
1-gpio-int-ex.elf:     file format elf32-littlearm


Disassembly of section .text:

00008000 <_start>:
    8000:	e3a0d302 	mov	sp, #134217728	; 0x8000000
    8004:	e3a0b000 	mov	fp, #0
    8008:	eb0004b5 	bl	92e4 <_cstart>
    800c:	eb0004cc 	bl	9344 <rpi_reboot>

00008010 <sw_uart_putc>:
    8010:	e92d41f0 	push	{r4, r5, r6, r7, r8, lr}
    8014:	e1a07001 	mov	r7, r1
    8018:	e3a02001 	mov	r2, #1
    801c:	e59f315c 	ldr	r3, [pc, #348]	; 8180 <sw_uart_putc+0x170>
    8020:	e5832000 	str	r2, [r3]
    8024:	e5d06000 	ldrb	r6, [r0]
    8028:	e5905008 	ldr	r5, [r0, #8]
    802c:	ee1f3f3c 	mrc	15, 0, r3, cr15, cr12, {1}
    8030:	ee1f4f3c 	mrc	15, 0, r4, cr15, cr12, {1}
    8034:	e1a00006 	mov	r0, r6
    8038:	e3a01000 	mov	r1, #0
    803c:	eb00058b 	bl	9670 <gpio_write>
    8040:	ee1f3f3c 	mrc	15, 0, r3, cr15, cr12, {1}
    8044:	e0643003 	rsb	r3, r4, r3
    8048:	e1550003 	cmp	r5, r3
    804c:	8afffffb 	bhi	8040 <sw_uart_putc+0x30>
    8050:	e1a08085 	lsl	r8, r5, #1
    8054:	e1a00006 	mov	r0, r6
    8058:	e2071001 	and	r1, r7, #1
    805c:	eb000583 	bl	9670 <gpio_write>
    8060:	ee1f3f3c 	mrc	15, 0, r3, cr15, cr12, {1}
    8064:	e0643003 	rsb	r3, r4, r3
    8068:	e1580003 	cmp	r8, r3
    806c:	8afffffb 	bhi	8060 <sw_uart_putc+0x50>
    8070:	e0888005 	add	r8, r8, r5
    8074:	e1a00006 	mov	r0, r6
    8078:	e2071002 	and	r1, r7, #2
    807c:	eb00057b 	bl	9670 <gpio_write>
    8080:	ee1f3f3c 	mrc	15, 0, r3, cr15, cr12, {1}
    8084:	e0643003 	rsb	r3, r4, r3
    8088:	e1580003 	cmp	r8, r3
    808c:	8afffffb 	bhi	8080 <sw_uart_putc+0x70>
    8090:	e0888005 	add	r8, r8, r5
    8094:	e1a00006 	mov	r0, r6
    8098:	e2071004 	and	r1, r7, #4
    809c:	eb000573 	bl	9670 <gpio_write>
    80a0:	ee1f3f3c 	mrc	15, 0, r3, cr15, cr12, {1}
    80a4:	e0643003 	rsb	r3, r4, r3
    80a8:	e1580003 	cmp	r8, r3
    80ac:	8afffffb 	bhi	80a0 <sw_uart_putc+0x90>
    80b0:	e0888005 	add	r8, r8, r5
    80b4:	e1a00006 	mov	r0, r6
    80b8:	e2071008 	and	r1, r7, #8
    80bc:	eb00056b 	bl	9670 <gpio_write>
    80c0:	ee1f3f3c 	mrc	15, 0, r3, cr15, cr12, {1}
    80c4:	e0643003 	rsb	r3, r4, r3
    80c8:	e1580003 	cmp	r8, r3
    80cc:	8afffffb 	bhi	80c0 <sw_uart_putc+0xb0>
    80d0:	e0888005 	add	r8, r8, r5
    80d4:	e1a00006 	mov	r0, r6
    80d8:	e2071010 	and	r1, r7, #16
    80dc:	eb000563 	bl	9670 <gpio_write>
    80e0:	ee1f3f3c 	mrc	15, 0, r3, cr15, cr12, {1}
    80e4:	e0643003 	rsb	r3, r4, r3
    80e8:	e1580003 	cmp	r8, r3
    80ec:	8afffffb 	bhi	80e0 <sw_uart_putc+0xd0>
    80f0:	e0888005 	add	r8, r8, r5
    80f4:	e1a00006 	mov	r0, r6
    80f8:	e2071020 	and	r1, r7, #32
    80fc:	eb00055b 	bl	9670 <gpio_write>
    8100:	ee1f3f3c 	mrc	15, 0, r3, cr15, cr12, {1}
    8104:	e0643003 	rsb	r3, r4, r3
    8108:	e1580003 	cmp	r8, r3
    810c:	8afffffb 	bhi	8100 <sw_uart_putc+0xf0>
    8110:	e0888005 	add	r8, r8, r5
    8114:	e1a00006 	mov	r0, r6
    8118:	e2071040 	and	r1, r7, #64	; 0x40
    811c:	eb000553 	bl	9670 <gpio_write>
    8120:	ee1f3f3c 	mrc	15, 0, r3, cr15, cr12, {1}
    8124:	e0643003 	rsb	r3, r4, r3
    8128:	e1580003 	cmp	r8, r3
    812c:	8afffffb 	bhi	8120 <sw_uart_putc+0x110>
    8130:	e0888005 	add	r8, r8, r5
    8134:	e1a00006 	mov	r0, r6
    8138:	e2071080 	and	r1, r7, #128	; 0x80
    813c:	eb00054b 	bl	9670 <gpio_write>
    8140:	ee1f3f3c 	mrc	15, 0, r3, cr15, cr12, {1}
    8144:	e0643003 	rsb	r3, r4, r3
    8148:	e1580003 	cmp	r8, r3
    814c:	8afffffb 	bhi	8140 <sw_uart_putc+0x130>
    8150:	e0885005 	add	r5, r8, r5
    8154:	e1a00006 	mov	r0, r6
    8158:	e3a01001 	mov	r1, #1
    815c:	eb000543 	bl	9670 <gpio_write>
    8160:	ee1f3f3c 	mrc	15, 0, r3, cr15, cr12, {1}
    8164:	e0643003 	rsb	r3, r4, r3
    8168:	e1550003 	cmp	r5, r3
    816c:	8afffffb 	bhi	8160 <sw_uart_putc+0x150>
    8170:	e3a02000 	mov	r2, #0
    8174:	e59f3004 	ldr	r3, [pc, #4]	; 8180 <sw_uart_putc+0x170>
    8178:	e5832000 	str	r2, [r3]
    817c:	e8bd81f0 	pop	{r4, r5, r6, r7, r8, pc}
    8180:	0000a47c 	andeq	sl, r0, ip, ror r4

00008184 <sw_uart_getc_timeout>:
    8184:	e92d43f8 	push	{r3, r4, r5, r6, r7, r8, r9, lr}
    8188:	e1a07001 	mov	r7, r1
    818c:	e5d05001 	ldrb	r5, [r0, #1]
    8190:	e1a06005 	mov	r6, r5
    8194:	ee1f8f3c 	mrc	15, 0, r8, cr15, cr12, {1}
    8198:	e5904008 	ldr	r4, [r0, #8]
    819c:	e08420a4 	add	r2, r4, r4, lsr #1
    81a0:	ee1f3f3c 	mrc	15, 0, r3, cr15, cr12, {1}
    81a4:	e0683003 	rsb	r3, r8, r3
    81a8:	e1520003 	cmp	r2, r3
    81ac:	8afffffb 	bhi	81a0 <sw_uart_getc_timeout+0x1c>
    81b0:	e0888004 	add	r8, r8, r4
    81b4:	e1a00005 	mov	r0, r5
    81b8:	eb000519 	bl	9624 <gpio_read>
    81bc:	e1a09550 	asr	r9, r0, r5
    81c0:	ee1f3f3c 	mrc	15, 0, r3, cr15, cr12, {1}
    81c4:	e0683003 	rsb	r3, r8, r3
    81c8:	e1540003 	cmp	r4, r3
    81cc:	8afffffb 	bhi	81c0 <sw_uart_getc_timeout+0x3c>
    81d0:	e0888004 	add	r8, r8, r4
    81d4:	e1a00005 	mov	r0, r5
    81d8:	eb000511 	bl	9624 <gpio_read>
    81dc:	e1a00550 	asr	r0, r0, r5
    81e0:	e1899080 	orr	r9, r9, r0, lsl #1
    81e4:	ee1f3f3c 	mrc	15, 0, r3, cr15, cr12, {1}
    81e8:	e0683003 	rsb	r3, r8, r3
    81ec:	e1540003 	cmp	r4, r3
    81f0:	8afffffb 	bhi	81e4 <sw_uart_getc_timeout+0x60>
    81f4:	e0888004 	add	r8, r8, r4
    81f8:	e1a00005 	mov	r0, r5
    81fc:	eb000508 	bl	9624 <gpio_read>
    8200:	e1a00550 	asr	r0, r0, r5
    8204:	e1899100 	orr	r9, r9, r0, lsl #2
    8208:	ee1f3f3c 	mrc	15, 0, r3, cr15, cr12, {1}
    820c:	e0683003 	rsb	r3, r8, r3
    8210:	e1540003 	cmp	r4, r3
    8214:	8afffffb 	bhi	8208 <sw_uart_getc_timeout+0x84>
    8218:	e0888004 	add	r8, r8, r4
    821c:	e1a00005 	mov	r0, r5
    8220:	eb0004ff 	bl	9624 <gpio_read>
    8224:	e1a00550 	asr	r0, r0, r5
    8228:	e1899180 	orr	r9, r9, r0, lsl #3
    822c:	ee1f3f3c 	mrc	15, 0, r3, cr15, cr12, {1}
    8230:	e0683003 	rsb	r3, r8, r3
    8234:	e1540003 	cmp	r4, r3
    8238:	8afffffb 	bhi	822c <sw_uart_getc_timeout+0xa8>
    823c:	e0888004 	add	r8, r8, r4
    8240:	e1a00005 	mov	r0, r5
    8244:	eb0004f6 	bl	9624 <gpio_read>
    8248:	e1a00550 	asr	r0, r0, r5
    824c:	e1899200 	orr	r9, r9, r0, lsl #4
    8250:	ee1f3f3c 	mrc	15, 0, r3, cr15, cr12, {1}
    8254:	e0683003 	rsb	r3, r8, r3
    8258:	e1540003 	cmp	r4, r3
    825c:	8afffffb 	bhi	8250 <sw_uart_getc_timeout+0xcc>
    8260:	e0888004 	add	r8, r8, r4
    8264:	e1a00005 	mov	r0, r5
    8268:	eb0004ed 	bl	9624 <gpio_read>
    826c:	e1a00550 	asr	r0, r0, r5
    8270:	e1899280 	orr	r9, r9, r0, lsl #5
    8274:	ee1f3f3c 	mrc	15, 0, r3, cr15, cr12, {1}
    8278:	e0683003 	rsb	r3, r8, r3
    827c:	e1540003 	cmp	r4, r3
    8280:	8afffffb 	bhi	8274 <sw_uart_getc_timeout+0xf0>
    8284:	e0888004 	add	r8, r8, r4
    8288:	e1a00005 	mov	r0, r5
    828c:	eb0004e4 	bl	9624 <gpio_read>
    8290:	e1a00550 	asr	r0, r0, r5
    8294:	e1899300 	orr	r9, r9, r0, lsl #6
    8298:	ee1f3f3c 	mrc	15, 0, r3, cr15, cr12, {1}
    829c:	e0683003 	rsb	r3, r8, r3
    82a0:	e1540003 	cmp	r4, r3
    82a4:	8afffffb 	bhi	8298 <sw_uart_getc_timeout+0x114>
    82a8:	e1a00005 	mov	r0, r5
    82ac:	eb0004dc 	bl	9624 <gpio_read>
    82b0:	e1a00550 	asr	r0, r0, r5
    82b4:	e1899380 	orr	r9, r9, r0, lsl #7
    82b8:	eb00043a 	bl	93a8 <timer_get_usec_raw>
    82bc:	e1a04000 	mov	r4, r0
    82c0:	e1a00006 	mov	r0, r6
    82c4:	eb0004d6 	bl	9624 <gpio_read>
    82c8:	e3500000 	cmp	r0, #0
    82cc:	0a000005 	beq	82e8 <sw_uart_getc_timeout+0x164>
    82d0:	eb000434 	bl	93a8 <timer_get_usec_raw>
    82d4:	e0640000 	rsb	r0, r4, r0
    82d8:	e1570000 	cmp	r7, r0
    82dc:	2afffff7 	bcs	82c0 <sw_uart_getc_timeout+0x13c>
    82e0:	e3a03000 	mov	r3, #0
    82e4:	ea000000 	b	82ec <sw_uart_getc_timeout+0x168>
    82e8:	e3a03001 	mov	r3, #1
    82ec:	e3530000 	cmp	r3, #0
    82f0:	0a000001 	beq	82fc <sw_uart_getc_timeout+0x178>
    82f4:	e1a00009 	mov	r0, r9
    82f8:	e8bd83f8 	pop	{r3, r4, r5, r6, r7, r8, r9, pc}
    82fc:	e3e00000 	mvn	r0, #0
    8300:	e8bd83f8 	pop	{r3, r4, r5, r6, r7, r8, r9, pc}

00008304 <sw_uart_gets_until>:
    8304:	e92d47f0 	push	{r4, r5, r6, r7, r8, r9, sl, lr}
    8308:	e1a08000 	mov	r8, r0
    830c:	e1a06001 	mov	r6, r1
    8310:	e1a09003 	mov	r9, r3
    8314:	e59da020 	ldr	sl, [sp, #32]
    8318:	e3520000 	cmp	r2, #0
    831c:	1a000005 	bne	8338 <sw_uart_gets_until+0x34>
    8320:	e59f005c 	ldr	r0, [pc, #92]	; 8384 <sw_uart_gets_until+0x80>
    8324:	e59f105c 	ldr	r1, [pc, #92]	; 8388 <sw_uart_gets_until+0x84>
    8328:	e59f205c 	ldr	r2, [pc, #92]	; 838c <sw_uart_gets_until+0x88>
    832c:	e3a0307a 	mov	r3, #122	; 0x7a
    8330:	eb00027a 	bl	8d20 <printk>
    8334:	eb0003e0 	bl	92bc <clean_reboot>
    8338:	e3a04000 	mov	r4, #0
    833c:	e5c14000 	strb	r4, [r1]
    8340:	e2427001 	sub	r7, r2, #1
    8344:	ea000007 	b	8368 <sw_uart_gets_until+0x64>
    8348:	e1a00008 	mov	r0, r8
    834c:	e1a0100a 	mov	r1, sl
    8350:	ebffff8b 	bl	8184 <sw_uart_getc_timeout>
    8354:	e6ef0070 	uxtb	r0, r0
    8358:	e1500009 	cmp	r0, r9
    835c:	0a000004 	beq	8374 <sw_uart_gets_until+0x70>
    8360:	e7c60005 	strb	r0, [r6, r5]
    8364:	e2844001 	add	r4, r4, #1
    8368:	e1a05004 	mov	r5, r4
    836c:	e1540007 	cmp	r4, r7
    8370:	3afffff4 	bcc	8348 <sw_uart_gets_until+0x44>
    8374:	e3a03000 	mov	r3, #0
    8378:	e7c63005 	strb	r3, [r6, r5]
    837c:	e1a00004 	mov	r0, r4
    8380:	e8bd87f0 	pop	{r4, r5, r6, r7, r8, r9, sl, pc}
    8384:	00009f6c 	andeq	r9, r0, ip, ror #30
    8388:	00009f88 	andeq	r9, r0, r8, lsl #31
    838c:	00009ee0 	andeq	r9, r0, r0, ror #29

00008390 <sw_uart_gets_timeout>:
    8390:	e92d41f0 	push	{r4, r5, r6, r7, r8, lr}
    8394:	e1a07000 	mov	r7, r0
    8398:	e1a05001 	mov	r5, r1
    839c:	e1a08003 	mov	r8, r3
    83a0:	e3520000 	cmp	r2, #0
    83a4:	1a000005 	bne	83c0 <sw_uart_gets_timeout+0x30>
    83a8:	e59f004c 	ldr	r0, [pc, #76]	; 83fc <sw_uart_gets_timeout+0x6c>
    83ac:	e59f104c 	ldr	r1, [pc, #76]	; 8400 <sw_uart_gets_timeout+0x70>
    83b0:	e59f204c 	ldr	r2, [pc, #76]	; 8404 <sw_uart_gets_timeout+0x74>
    83b4:	e3a03090 	mov	r3, #144	; 0x90
    83b8:	eb000258 	bl	8d20 <printk>
    83bc:	eb0003be 	bl	92bc <clean_reboot>
    83c0:	e3a04000 	mov	r4, #0
    83c4:	e5c14000 	strb	r4, [r1]
    83c8:	e2426001 	sub	r6, r2, #1
    83cc:	ea000004 	b	83e4 <sw_uart_gets_timeout+0x54>
    83d0:	e1a00007 	mov	r0, r7
    83d4:	e1a01008 	mov	r1, r8
    83d8:	ebffff69 	bl	8184 <sw_uart_getc_timeout>
    83dc:	e7c50004 	strb	r0, [r5, r4]
    83e0:	e2844001 	add	r4, r4, #1
    83e4:	e1540006 	cmp	r4, r6
    83e8:	3afffff8 	bcc	83d0 <sw_uart_gets_timeout+0x40>
    83ec:	e3a03000 	mov	r3, #0
    83f0:	e7c53004 	strb	r3, [r5, r4]
    83f4:	e1a00004 	mov	r0, r4
    83f8:	e8bd81f0 	pop	{r4, r5, r6, r7, r8, pc}
    83fc:	00009f6c 	andeq	r9, r0, ip, ror #30
    8400:	00009f88 	andeq	r9, r0, r8, lsl #31
    8404:	00009ef4 	strdeq	r9, [r0], -r4

00008408 <sw_uart_init_helper>:
    8408:	e92d41f0 	push	{r4, r5, r6, r7, r8, lr}
    840c:	e1a04000 	mov	r4, r0
    8410:	e1a06001 	mov	r6, r1
    8414:	e1a08002 	mov	r8, r2
    8418:	e1a05003 	mov	r5, r3
    841c:	e59d7018 	ldr	r7, [sp, #24]
    8420:	e1a00001 	mov	r0, r1
    8424:	eb0003fa 	bl	9414 <gpio_set_output>
    8428:	e1a00008 	mov	r0, r8
    842c:	eb000449 	bl	9558 <gpio_set_input>
    8430:	e3a03001 	mov	r3, #1
    8434:	ee0f3f1c 	mcr	15, 0, r3, cr15, cr12, {0}
    8438:	e1a00006 	mov	r0, r6
    843c:	e3a01001 	mov	r1, #1
    8440:	eb00048a 	bl	9670 <gpio_write>
    8444:	e0020795 	mul	r2, r5, r7
    8448:	e59f3064 	ldr	r3, [pc, #100]	; 84b4 <sw_uart_init_helper+0xac>
    844c:	e0653003 	rsb	r3, r5, r3
    8450:	e1530002 	cmp	r3, r2
    8454:	8a000005 	bhi	8470 <sw_uart_init_helper+0x68>
    8458:	e59f3054 	ldr	r3, [pc, #84]	; 84b4 <sw_uart_init_helper+0xac>
    845c:	e0853003 	add	r3, r5, r3
    8460:	e1530002 	cmp	r3, r2
    8464:	2a000003 	bcs	8478 <sw_uart_init_helper+0x70>
    8468:	e3a03000 	mov	r3, #0
    846c:	ea000002 	b	847c <sw_uart_init_helper+0x74>
    8470:	e3a03000 	mov	r3, #0
    8474:	ea000000 	b	847c <sw_uart_init_helper+0x74>
    8478:	e3a03001 	mov	r3, #1
    847c:	e3530000 	cmp	r3, #0
    8480:	1a000005 	bne	849c <sw_uart_init_helper+0x94>
    8484:	e59f002c 	ldr	r0, [pc, #44]	; 84b8 <sw_uart_init_helper+0xb0>
    8488:	e59f102c 	ldr	r1, [pc, #44]	; 84bc <sw_uart_init_helper+0xb4>
    848c:	e59f202c 	ldr	r2, [pc, #44]	; 84c0 <sw_uart_init_helper+0xb8>
    8490:	e3a030ab 	mov	r3, #171	; 0xab
    8494:	eb000221 	bl	8d20 <printk>
    8498:	eb000387 	bl	92bc <clean_reboot>
    849c:	e5c46000 	strb	r6, [r4]
    84a0:	e5c48001 	strb	r8, [r4, #1]
    84a4:	e5845004 	str	r5, [r4, #4]
    84a8:	e5847008 	str	r7, [r4, #8]
    84ac:	e1a00004 	mov	r0, r4
    84b0:	e8bd81f0 	pop	{r4, r5, r6, r7, r8, pc}
    84b4:	29b92700 	ldmibcs	r9!, {r8, r9, sl, sp}
    84b8:	00009f98 	muleq	r0, r8, pc	; <UNPREDICTABLE>
    84bc:	00009f88 	andeq	r9, r0, r8, lsl #31
    84c0:	00009f0c 	andeq	r9, r0, ip, lsl #30

000084c4 <sw_uart_getc>:
    84c4:	e92d4008 	push	{r3, lr}
    84c8:	e3e01000 	mvn	r1, #0
    84cc:	ebffff2c 	bl	8184 <sw_uart_getc_timeout>
    84d0:	e3500000 	cmp	r0, #0
    84d4:	a8bd8008 	popge	{r3, pc}
    84d8:	e59f0010 	ldr	r0, [pc, #16]	; 84f0 <sw_uart_getc+0x2c>
    84dc:	e59f1010 	ldr	r1, [pc, #16]	; 84f4 <sw_uart_getc+0x30>
    84e0:	e59f2010 	ldr	r2, [pc, #16]	; 84f8 <sw_uart_getc+0x34>
    84e4:	e3a030ba 	mov	r3, #186	; 0xba
    84e8:	eb00020c 	bl	8d20 <printk>
    84ec:	eb000372 	bl	92bc <clean_reboot>
    84f0:	00009fdc 	ldrdeq	r9, [r0], -ip
    84f4:	00009f88 	andeq	r9, r0, r8, lsl #31
    84f8:	00009f20 	andeq	r9, r0, r0, lsr #30

000084fc <sw_uart_putk>:
    84fc:	e92d4038 	push	{r3, r4, r5, lr}
    8500:	e1a05000 	mov	r5, r0
    8504:	e1a04001 	mov	r4, r1
    8508:	ea000002 	b	8518 <sw_uart_putk+0x1c>
    850c:	e1a00005 	mov	r0, r5
    8510:	ebfffebe 	bl	8010 <sw_uart_putc>
    8514:	e2844001 	add	r4, r4, #1
    8518:	e5d41000 	ldrb	r1, [r4]
    851c:	e3510000 	cmp	r1, #0
    8520:	1afffff9 	bne	850c <sw_uart_putk+0x10>
    8524:	e8bd8038 	pop	{r3, r4, r5, pc}

00008528 <sw_uart_printk>:
    8528:	e92d000e 	push	{r1, r2, r3}
    852c:	e92d4030 	push	{r4, r5, lr}
    8530:	e24dde1d 	sub	sp, sp, #464	; 0x1d0
    8534:	e1a05000 	mov	r5, r0
    8538:	e28d3e1e 	add	r3, sp, #480	; 0x1e0
    853c:	e58d3000 	str	r3, [sp]
    8540:	e28d0004 	add	r0, sp, #4
    8544:	e3a01f73 	mov	r1, #460	; 0x1cc
    8548:	e59d21dc 	ldr	r2, [sp, #476]	; 0x1dc
    854c:	eb0002b0 	bl	9014 <va_printk>
    8550:	e1a04000 	mov	r4, r0
    8554:	e59f303c 	ldr	r3, [pc, #60]	; 8598 <sw_uart_printk+0x70>
    8558:	e1500003 	cmp	r0, r3
    855c:	9a000005 	bls	8578 <sw_uart_printk+0x50>
    8560:	e59f0034 	ldr	r0, [pc, #52]	; 859c <sw_uart_printk+0x74>
    8564:	e59f1034 	ldr	r1, [pc, #52]	; 85a0 <sw_uart_printk+0x78>
    8568:	e59f2034 	ldr	r2, [pc, #52]	; 85a4 <sw_uart_printk+0x7c>
    856c:	e3a030ce 	mov	r3, #206	; 0xce
    8570:	eb0001ea 	bl	8d20 <printk>
    8574:	eb000350 	bl	92bc <clean_reboot>
    8578:	e1a00005 	mov	r0, r5
    857c:	e28d1004 	add	r1, sp, #4
    8580:	ebffffdd 	bl	84fc <sw_uart_putk>
    8584:	e1a00004 	mov	r0, r4
    8588:	e28dde1d 	add	sp, sp, #464	; 0x1d0
    858c:	e8bd4030 	pop	{r4, r5, lr}
    8590:	e28dd00c 	add	sp, sp, #12
    8594:	e12fff1e 	bx	lr
    8598:	000001ca 	andeq	r0, r0, sl, asr #3
    859c:	0000a014 	andeq	sl, r0, r4, lsl r0
    85a0:	00009f88 	andeq	r9, r0, r8, lsl #31
    85a4:	00009f30 	andeq	r9, r0, r0, lsr pc

000085a8 <sw_uart_gets_until_blk>:
    85a8:	e52de004 	push	{lr}		; (str lr, [sp, #-4]!)
    85ac:	e24dd00c 	sub	sp, sp, #12
    85b0:	e3e0c000 	mvn	ip, #0
    85b4:	e58dc000 	str	ip, [sp]
    85b8:	ebffff51 	bl	8304 <sw_uart_gets_until>
    85bc:	e3500000 	cmp	r0, #0
    85c0:	aa000005 	bge	85dc <sw_uart_gets_until_blk+0x34>
    85c4:	e59f0018 	ldr	r0, [pc, #24]	; 85e4 <sw_uart_gets_until_blk+0x3c>
    85c8:	e59f1018 	ldr	r1, [pc, #24]	; 85e8 <sw_uart_gets_until_blk+0x40>
    85cc:	e59f2018 	ldr	r2, [pc, #24]	; 85ec <sw_uart_gets_until_blk+0x44>
    85d0:	e3a030d6 	mov	r3, #214	; 0xd6
    85d4:	eb0001d1 	bl	8d20 <printk>
    85d8:	eb000337 	bl	92bc <clean_reboot>
    85dc:	e28dd00c 	add	sp, sp, #12
    85e0:	e49df004 	pop	{pc}		; (ldr pc, [sp], #4)
    85e4:	00009fdc 	ldrdeq	r9, [r0], -ip
    85e8:	00009f88 	andeq	r9, r0, r8, lsl #31
    85ec:	00009f40 	andeq	r9, r0, r0, asr #30

000085f0 <interrupt_vector>:
    85f0:	e92d4010 	push	{r4, lr}
    85f4:	e59f30e0 	ldr	r3, [pc, #224]	; 86dc <interrupt_vector+0xec>
    85f8:	e5933000 	ldr	r3, [r3]
    85fc:	e3530000 	cmp	r3, #0
    8600:	0a000005 	beq	861c <interrupt_vector+0x2c>
    8604:	e59f00d4 	ldr	r0, [pc, #212]	; 86e0 <interrupt_vector+0xf0>
    8608:	e59f10d4 	ldr	r1, [pc, #212]	; 86e4 <interrupt_vector+0xf4>
    860c:	e59f20d4 	ldr	r2, [pc, #212]	; 86e8 <interrupt_vector+0xf8>
    8610:	e3a030dc 	mov	r3, #220	; 0xdc
    8614:	eb0001c1 	bl	8d20 <printk>
    8618:	eb000327 	bl	92bc <clean_reboot>
    861c:	e59f30b8 	ldr	r3, [pc, #184]	; 86dc <interrupt_vector+0xec>
    8620:	e5932004 	ldr	r2, [r3, #4]
    8624:	e2822001 	add	r2, r2, #1
    8628:	e5832004 	str	r2, [r3, #4]
    862c:	e3a00031 	mov	r0, #49	; 0x31
    8630:	eb000462 	bl	97c0 <is_gpio_int>
    8634:	e3500000 	cmp	r0, #0
    8638:	1a000003 	bne	864c <interrupt_vector+0x5c>
    863c:	e3a00032 	mov	r0, #50	; 0x32
    8640:	eb00045e 	bl	97c0 <is_gpio_int>
    8644:	e3500000 	cmp	r0, #0
    8648:	0a000020 	beq	86d0 <interrupt_vector+0xe0>
    864c:	e3a00015 	mov	r0, #21
    8650:	eb0003f3 	bl	9624 <gpio_read>
    8654:	e3500000 	cmp	r0, #0
    8658:	1a000015 	bne	86b4 <interrupt_vector+0xc4>
    865c:	e59f4078 	ldr	r4, [pc, #120]	; 86dc <interrupt_vector+0xec>
    8660:	e5941008 	ldr	r1, [r4, #8]
    8664:	e284000c 	add	r0, r4, #12
    8668:	ebfffec5 	bl	8184 <sw_uart_getc_timeout>
    866c:	e6ef0070 	uxtb	r0, r0
    8670:	e59f3074 	ldr	r3, [pc, #116]	; 86ec <interrupt_vector+0xfc>
    8674:	e7942003 	ldr	r2, [r4, r3]
    8678:	e7941003 	ldr	r1, [r4, r3]
    867c:	e2811001 	add	r1, r1, #1
    8680:	e1a01981 	lsl	r1, r1, #19
    8684:	e2833004 	add	r3, r3, #4
    8688:	e7943003 	ldr	r3, [r4, r3]
    868c:	e15309a1 	cmp	r3, r1, lsr #19
    8690:	0a00000e 	beq	86d0 <interrupt_vector+0xe0>
    8694:	e0841002 	add	r1, r4, r2
    8698:	e5c10018 	strb	r0, [r1, #24]
    869c:	e2822001 	add	r2, r2, #1
    86a0:	e1a02982 	lsl	r2, r2, #19
    86a4:	e1a029a2 	lsr	r2, r2, #19
    86a8:	e59f103c 	ldr	r1, [pc, #60]	; 86ec <interrupt_vector+0xfc>
    86ac:	e7842001 	str	r2, [r4, r1]
    86b0:	ea000006 	b	86d0 <interrupt_vector+0xe0>
    86b4:	e3a00015 	mov	r0, #21
    86b8:	eb0003d9 	bl	9624 <gpio_read>
    86bc:	e3500000 	cmp	r0, #0
    86c0:	c59f3028 	ldrgt	r3, [pc, #40]	; 86f0 <interrupt_vector+0x100>
    86c4:	c5932034 	ldrgt	r2, [r3, #52]	; 0x34
    86c8:	c2822001 	addgt	r2, r2, #1
    86cc:	c5832034 	strgt	r2, [r3, #52]	; 0x34
    86d0:	e3a00015 	mov	r0, #21
    86d4:	eb0004a7 	bl	9978 <gpio_event_clear>
    86d8:	e8bd8010 	pop	{r4, pc}
    86dc:	0000a47c 	andeq	sl, r0, ip, ror r4
    86e0:	0000a038 	andeq	sl, r0, r8, lsr r0
    86e4:	00009f88 	andeq	r9, r0, r8, lsl #31
    86e8:	00009f58 	andeq	r9, r0, r8, asr pc
    86ec:	0000201c 	andeq	r2, r0, ip, lsl r0
    86f0:	0000c474 	andeq	ip, r0, r4, ror r4

000086f4 <sw_uart_getc_int>:
    86f4:	e92d41f0 	push	{r4, r5, r6, r7, r8, lr}
    86f8:	e59f4038 	ldr	r4, [pc, #56]	; 8738 <sw_uart_getc_int+0x44>
    86fc:	e59f6038 	ldr	r6, [pc, #56]	; 873c <sw_uart_getc_int+0x48>
    8700:	e59f5038 	ldr	r5, [pc, #56]	; 8740 <sw_uart_getc_int+0x4c>
    8704:	e2848018 	add	r8, r4, #24
    8708:	e284700c 	add	r7, r4, #12
    870c:	ea000004 	b	8724 <sw_uart_getc_int+0x30>
    8710:	e1a00008 	mov	r0, r8
    8714:	eb0000cd 	bl	8a50 <cq_pop>
    8718:	e1a01000 	mov	r1, r0
    871c:	e1a00007 	mov	r0, r7
    8720:	ebfffe3a 	bl	8010 <sw_uart_putc>
    8724:	e7942006 	ldr	r2, [r4, r6]
    8728:	e7943005 	ldr	r3, [r4, r5]
    872c:	e1520003 	cmp	r2, r3
    8730:	1afffff6 	bne	8710 <sw_uart_getc_int+0x1c>
    8734:	eafffffa 	b	8724 <sw_uart_getc_int+0x30>
    8738:	0000a47c 	andeq	sl, r0, ip, ror r4
    873c:	0000201c 	andeq	r2, r0, ip, lsl r0
    8740:	00002020 	andeq	r2, r0, r0, lsr #32

00008744 <notmain>:
    8744:	e92d4070 	push	{r4, r5, r6, lr}
    8748:	e24dd018 	sub	sp, sp, #24
    874c:	eb000569 	bl	9cf8 <uart_init>
    8750:	eb0002d1 	bl	929c <enable_cache>
    8754:	e59f6074 	ldr	r6, [pc, #116]	; 87d0 <notmain+0x8c>
    8758:	e28d5008 	add	r5, sp, #8
    875c:	e59f3070 	ldr	r3, [pc, #112]	; 87d4 <notmain+0x90>
    8760:	e58d3000 	str	r3, [sp]
    8764:	e1a00005 	mov	r0, r5
    8768:	e3a01014 	mov	r1, #20
    876c:	e3a02015 	mov	r2, #21
    8770:	e59f3060 	ldr	r3, [pc, #96]	; 87d8 <notmain+0x94>
    8774:	ebffff23 	bl	8408 <sw_uart_init_helper>
    8778:	e286400c 	add	r4, r6, #12
    877c:	e8950007 	ldm	r5, {r0, r1, r2}
    8780:	e8840007 	stm	r4, {r0, r1, r2}
    8784:	eb000491 	bl	99d0 <int_init>
    8788:	e3a00015 	mov	r0, #21
    878c:	eb000437 	bl	9870 <gpio_int_falling_edge>
    8790:	e2860018 	add	r0, r6, #24
    8794:	e3a01001 	mov	r1, #1
    8798:	eb000043 	bl	88ac <cq_init>
    879c:	e59f0038 	ldr	r0, [pc, #56]	; 87dc <notmain+0x98>
    87a0:	eb00015e 	bl	8d20 <printk>
    87a4:	e1a00004 	mov	r0, r4
    87a8:	e59f1030 	ldr	r1, [pc, #48]	; 87e0 <notmain+0x9c>
    87ac:	ebffff5d 	bl	8528 <sw_uart_printk>
    87b0:	eb000513 	bl	9c04 <system_enable_interrupts>
    87b4:	e59f0028 	ldr	r0, [pc, #40]	; 87e4 <notmain+0xa0>
    87b8:	eb000158 	bl	8d20 <printk>
    87bc:	e5963008 	ldr	r3, [r6, #8]
    87c0:	e1a00004 	mov	r0, r4
    87c4:	e59f101c 	ldr	r1, [pc, #28]	; 87e8 <notmain+0xa4>
    87c8:	e0010391 	mul	r1, r1, r3
    87cc:	ebffffc8 	bl	86f4 <sw_uart_getc_int>
    87d0:	0000a47c 	andeq	sl, r0, ip, ror r4
    87d4:	000017bc 			; <UNDEFINED> instruction: 0x000017bc
    87d8:	0001c200 	andeq	ip, r1, r0, lsl #4
    87dc:	0000a04c 	andeq	sl, r0, ip, asr #32
    87e0:	0000a064 	andeq	sl, r0, r4, rrx
    87e4:	0000a074 	andeq	sl, r0, r4, ror r0
    87e8:	000f4240 	andeq	r4, pc, r0, asr #4

000087ec <cq_print>:
    87ec:	e92d4010 	push	{r4, lr}
    87f0:	e24dd010 	sub	sp, sp, #16
    87f4:	e59f205c 	ldr	r2, [pc, #92]	; 8858 <cq_print+0x6c>
    87f8:	e790e002 	ldr	lr, [r0, r2]
    87fc:	e59f3058 	ldr	r3, [pc, #88]	; 885c <cq_print+0x70>
    8800:	e790c003 	ldr	ip, [r0, r3]
    8804:	e7904002 	ldr	r4, [r0, r2]
    8808:	e7901003 	ldr	r1, [r0, r3]
    880c:	e0611004 	rsb	r1, r1, r4
    8810:	e1a01981 	lsl	r1, r1, #19
    8814:	e1a019a1 	lsr	r1, r1, #19
    8818:	e7902002 	ldr	r2, [r0, r2]
    881c:	e7903003 	ldr	r3, [r0, r3]
    8820:	e1520003 	cmp	r2, r3
    8824:	13a03000 	movne	r3, #0
    8828:	03a03001 	moveq	r3, #1
    882c:	e58de000 	str	lr, [sp]
    8830:	e58dc004 	str	ip, [sp, #4]
    8834:	e58d1008 	str	r1, [sp, #8]
    8838:	e58d300c 	str	r3, [sp, #12]
    883c:	e59f001c 	ldr	r0, [pc, #28]	; 8860 <cq_print+0x74>
    8840:	e59f101c 	ldr	r1, [pc, #28]	; 8864 <cq_print+0x78>
    8844:	e59f201c 	ldr	r2, [pc, #28]	; 8868 <cq_print+0x7c>
    8848:	e3a0300a 	mov	r3, #10
    884c:	eb000133 	bl	8d20 <printk>
    8850:	e28dd010 	add	sp, sp, #16
    8854:	e8bd8010 	pop	{r4, pc}
    8858:	00002004 	andeq	r2, r0, r4
    885c:	00002008 	andeq	r2, r0, r8
    8860:	0000a0b8 	strheq	sl, [r0], -r8
    8864:	0000a0f4 	strdeq	sl, [r0], -r4
    8868:	0000a084 	andeq	sl, r0, r4, lsl #1

0000886c <cq_ok>:
    886c:	e92d4008 	push	{r3, lr}
    8870:	e3a03a02 	mov	r3, #8192	; 0x2000
    8874:	e7902003 	ldr	r2, [r0, r3]
    8878:	e59f301c 	ldr	r3, [pc, #28]	; 889c <cq_ok+0x30>
    887c:	e1520003 	cmp	r2, r3
    8880:	08bd8008 	popeq	{r3, pc}
    8884:	e59f0014 	ldr	r0, [pc, #20]	; 88a0 <cq_ok+0x34>
    8888:	e59f1014 	ldr	r1, [pc, #20]	; 88a4 <cq_ok+0x38>
    888c:	e59f2014 	ldr	r2, [pc, #20]	; 88a8 <cq_ok+0x3c>
    8890:	e3a0300f 	mov	r3, #15
    8894:	eb000121 	bl	8d20 <printk>
    8898:	eb000287 	bl	92bc <clean_reboot>
    889c:	12345678 	eorsne	r5, r4, #120, 12	; 0x7800000
    88a0:	0000a104 	andeq	sl, r0, r4, lsl #2
    88a4:	0000a0f4 	strdeq	sl, [r0], -r4
    88a8:	0000a090 	muleq	r0, r0, r0

000088ac <cq_init>:
    88ac:	e92d4038 	push	{r3, r4, r5, lr}
    88b0:	e1a04000 	mov	r4, r0
    88b4:	e1a05001 	mov	r5, r1
    88b8:	e3a01000 	mov	r1, #0
    88bc:	e59f215c 	ldr	r2, [pc, #348]	; 8a20 <cq_init+0x174>
    88c0:	eb00010e 	bl	8d00 <memset>
    88c4:	e59f2158 	ldr	r2, [pc, #344]	; 8a24 <cq_init+0x178>
    88c8:	e3a03a02 	mov	r3, #8192	; 0x2000
    88cc:	e7842003 	str	r2, [r4, r3]
    88d0:	e59f2150 	ldr	r2, [pc, #336]	; 8a28 <cq_init+0x17c>
    88d4:	e3a03000 	mov	r3, #0
    88d8:	e7843002 	str	r3, [r4, r2]
    88dc:	e59f0148 	ldr	r0, [pc, #328]	; 8a2c <cq_init+0x180>
    88e0:	e7843000 	str	r3, [r4, r0]
    88e4:	e59f1144 	ldr	r1, [pc, #324]	; 8a30 <cq_init+0x184>
    88e8:	e7843001 	str	r3, [r4, r1]
    88ec:	e59f3140 	ldr	r3, [pc, #320]	; 8a34 <cq_init+0x188>
    88f0:	e7d41003 	ldrb	r1, [r4, r3]
    88f4:	e2055001 	and	r5, r5, #1
    88f8:	e3c11001 	bic	r1, r1, #1
    88fc:	e1855001 	orr	r5, r5, r1
    8900:	e7c45003 	strb	r5, [r4, r3]
    8904:	e7941000 	ldr	r1, [r4, r0]
    8908:	e7943002 	ldr	r3, [r4, r2]
    890c:	e1510003 	cmp	r1, r3
    8910:	0a000005 	beq	892c <cq_init+0x80>
    8914:	e59f011c 	ldr	r0, [pc, #284]	; 8a38 <cq_init+0x18c>
    8918:	e59f111c 	ldr	r1, [pc, #284]	; 8a3c <cq_init+0x190>
    891c:	e59f211c 	ldr	r2, [pc, #284]	; 8a40 <cq_init+0x194>
    8920:	e3a03018 	mov	r3, #24
    8924:	eb0000fd 	bl	8d20 <printk>
    8928:	eb000263 	bl	92bc <clean_reboot>
    892c:	e59f30f8 	ldr	r3, [pc, #248]	; 8a2c <cq_init+0x180>
    8930:	e7942003 	ldr	r2, [r4, r3]
    8934:	e2822001 	add	r2, r2, #1
    8938:	e1a02982 	lsl	r2, r2, #19
    893c:	e2833004 	add	r3, r3, #4
    8940:	e7943003 	ldr	r3, [r4, r3]
    8944:	e15309a2 	cmp	r3, r2, lsr #19
    8948:	1a000005 	bne	8964 <cq_init+0xb8>
    894c:	e59f00f0 	ldr	r0, [pc, #240]	; 8a44 <cq_init+0x198>
    8950:	e59f10e4 	ldr	r1, [pc, #228]	; 8a3c <cq_init+0x190>
    8954:	e59f20e4 	ldr	r2, [pc, #228]	; 8a40 <cq_init+0x194>
    8958:	e3a03019 	mov	r3, #25
    895c:	eb0000ef 	bl	8d20 <printk>
    8960:	eb000255 	bl	92bc <clean_reboot>
    8964:	e59f30c0 	ldr	r3, [pc, #192]	; 8a2c <cq_init+0x180>
    8968:	e7942003 	ldr	r2, [r4, r3]
    896c:	e2833004 	add	r3, r3, #4
    8970:	e7943003 	ldr	r3, [r4, r3]
    8974:	e0633002 	rsb	r3, r3, r2
    8978:	e1b03983 	lsls	r3, r3, #19
    897c:	0a000005 	beq	8998 <cq_init+0xec>
    8980:	e59f00c0 	ldr	r0, [pc, #192]	; 8a48 <cq_init+0x19c>
    8984:	e59f10b0 	ldr	r1, [pc, #176]	; 8a3c <cq_init+0x190>
    8988:	e59f20b0 	ldr	r2, [pc, #176]	; 8a40 <cq_init+0x194>
    898c:	e3a0301a 	mov	r3, #26
    8990:	eb0000e2 	bl	8d20 <printk>
    8994:	eb000248 	bl	92bc <clean_reboot>
    8998:	e59f308c 	ldr	r3, [pc, #140]	; 8a2c <cq_init+0x180>
    899c:	e7942003 	ldr	r2, [r4, r3]
    89a0:	e2833004 	add	r3, r3, #4
    89a4:	e7943003 	ldr	r3, [r4, r3]
    89a8:	e1520003 	cmp	r2, r3
    89ac:	0a000009 	beq	89d8 <cq_init+0x12c>
    89b0:	e59f3070 	ldr	r3, [pc, #112]	; 8a28 <cq_init+0x17c>
    89b4:	e7942003 	ldr	r2, [r4, r3]
    89b8:	e7d41002 	ldrb	r1, [r4, r2]
    89bc:	e6ef1071 	uxtb	r1, r1
    89c0:	e2822001 	add	r2, r2, #1
    89c4:	e1a02982 	lsl	r2, r2, #19
    89c8:	e1a029a2 	lsr	r2, r2, #19
    89cc:	e7842003 	str	r2, [r4, r3]
    89d0:	e3a03001 	mov	r3, #1
    89d4:	ea000001 	b	89e0 <cq_init+0x134>
    89d8:	e3a01012 	mov	r1, #18
    89dc:	e3a03000 	mov	r3, #0
    89e0:	e3530000 	cmp	r3, #0
    89e4:	1a000002 	bne	89f4 <cq_init+0x148>
    89e8:	e3510012 	cmp	r1, #18
    89ec:	0a000002 	beq	89fc <cq_init+0x150>
    89f0:	ea000002 	b	8a00 <cq_init+0x154>
    89f4:	e3a03000 	mov	r3, #0
    89f8:	ea000000 	b	8a00 <cq_init+0x154>
    89fc:	e3a03001 	mov	r3, #1
    8a00:	e3530000 	cmp	r3, #0
    8a04:	18bd8038 	popne	{r3, r4, r5, pc}
    8a08:	e59f003c 	ldr	r0, [pc, #60]	; 8a4c <cq_init+0x1a0>
    8a0c:	e59f1028 	ldr	r1, [pc, #40]	; 8a3c <cq_init+0x190>
    8a10:	e59f2028 	ldr	r2, [pc, #40]	; 8a40 <cq_init+0x194>
    8a14:	e3a0301c 	mov	r3, #28
    8a18:	eb0000c0 	bl	8d20 <printk>
    8a1c:	eb000226 	bl	92bc <clean_reboot>
    8a20:	00002014 	andeq	r2, r0, r4, lsl r0
    8a24:	12345678 	eorsne	r5, r4, #120, 12	; 0x7800000
    8a28:	00002008 	andeq	r2, r0, r8
    8a2c:	00002004 	andeq	r2, r0, r4
    8a30:	0000200c 	andeq	r2, r0, ip
    8a34:	00002010 	andeq	r2, r0, r0, lsl r0
    8a38:	0000a128 	andeq	sl, r0, r8, lsr #2
    8a3c:	0000a0f4 	strdeq	sl, [r0], -r4
    8a40:	0000a098 	muleq	r0, r8, r0
    8a44:	0000a144 	andeq	sl, r0, r4, asr #2
    8a48:	0000a160 	andeq	sl, r0, r0, ror #2
    8a4c:	0000a184 	andeq	sl, r0, r4, lsl #3

00008a50 <cq_pop>:
    8a50:	e92d0070 	push	{r4, r5, r6}
    8a54:	e1a03000 	mov	r3, r0
    8a58:	e59f4054 	ldr	r4, [pc, #84]	; 8ab4 <cq_pop+0x64>
    8a5c:	e59f2054 	ldr	r2, [pc, #84]	; 8ab8 <cq_pop+0x68>
    8a60:	e3a06000 	mov	r6, #0
    8a64:	e3a00001 	mov	r0, #1
    8a68:	e793c004 	ldr	ip, [r3, r4]
    8a6c:	e7931002 	ldr	r1, [r3, r2]
    8a70:	e15c0001 	cmp	ip, r1
    8a74:	0a000008 	beq	8a9c <cq_pop+0x4c>
    8a78:	e7931002 	ldr	r1, [r3, r2]
    8a7c:	e7d35001 	ldrb	r5, [r3, r1]
    8a80:	e6ef5075 	uxtb	r5, r5
    8a84:	e2811001 	add	r1, r1, #1
    8a88:	e1a01981 	lsl	r1, r1, #19
    8a8c:	e1a019a1 	lsr	r1, r1, #19
    8a90:	e7831002 	str	r1, [r3, r2]
    8a94:	e1a01000 	mov	r1, r0
    8a98:	ea000000 	b	8aa0 <cq_pop+0x50>
    8a9c:	e1a01006 	mov	r1, r6
    8aa0:	e3510000 	cmp	r1, #0
    8aa4:	0affffef 	beq	8a68 <cq_pop+0x18>
    8aa8:	e1a00005 	mov	r0, r5
    8aac:	e8bd0070 	pop	{r4, r5, r6}
    8ab0:	e12fff1e 	bx	lr
    8ab4:	00002004 	andeq	r2, r0, r4
    8ab8:	00002008 	andeq	r2, r0, r8

00008abc <cq_pop_n>:
    8abc:	e92d40f8 	push	{r3, r4, r5, r6, r7, lr}
    8ac0:	e1a07000 	mov	r7, r0
    8ac4:	e1a06001 	mov	r6, r1
    8ac8:	e1a05002 	mov	r5, r2
    8acc:	e3a04000 	mov	r4, #0
    8ad0:	ea000003 	b	8ae4 <cq_pop_n+0x28>
    8ad4:	e1a00007 	mov	r0, r7
    8ad8:	ebffffdc 	bl	8a50 <cq_pop>
    8adc:	e7c60004 	strb	r0, [r6, r4]
    8ae0:	e2844001 	add	r4, r4, #1
    8ae4:	e1540005 	cmp	r4, r5
    8ae8:	3afffff9 	bcc	8ad4 <cq_pop_n+0x18>
    8aec:	e8bd80f8 	pop	{r3, r4, r5, r6, r7, pc}

00008af0 <cq_pop_n_noblk>:
    8af0:	e92d4070 	push	{r4, r5, r6, lr}
    8af4:	e1a04000 	mov	r4, r0
    8af8:	e1a06001 	mov	r6, r1
    8afc:	e1a05002 	mov	r5, r2
    8b00:	ebffff59 	bl	886c <cq_ok>
    8b04:	e59f3038 	ldr	r3, [pc, #56]	; 8b44 <cq_pop_n_noblk+0x54>
    8b08:	e7942003 	ldr	r2, [r4, r3]
    8b0c:	e2833004 	add	r3, r3, #4
    8b10:	e7943003 	ldr	r3, [r4, r3]
    8b14:	e0633002 	rsb	r3, r3, r2
    8b18:	e1a03983 	lsl	r3, r3, #19
    8b1c:	e15509a3 	cmp	r5, r3, lsr #19
    8b20:	8a000005 	bhi	8b3c <cq_pop_n_noblk+0x4c>
    8b24:	e1a00004 	mov	r0, r4
    8b28:	e1a01006 	mov	r1, r6
    8b2c:	e1a02005 	mov	r2, r5
    8b30:	ebffffe1 	bl	8abc <cq_pop_n>
    8b34:	e3a00001 	mov	r0, #1
    8b38:	e8bd8070 	pop	{r4, r5, r6, pc}
    8b3c:	e3a00000 	mov	r0, #0
    8b40:	e8bd8070 	pop	{r4, r5, r6, pc}
    8b44:	00002004 	andeq	r2, r0, r4

00008b48 <cq_peek_n>:
    8b48:	e92d4070 	push	{r4, r5, r6, lr}
    8b4c:	e1a04000 	mov	r4, r0
    8b50:	e59f307c 	ldr	r3, [pc, #124]	; 8bd4 <cq_peek_n+0x8c>
    8b54:	e7905003 	ldr	r5, [r0, r3]
    8b58:	e2833004 	add	r3, r3, #4
    8b5c:	e7903003 	ldr	r3, [r0, r3]
    8b60:	e0635005 	rsb	r5, r3, r5
    8b64:	e1a05985 	lsl	r5, r5, #19
    8b68:	e1a059a5 	lsr	r5, r5, #19
    8b6c:	e1520005 	cmp	r2, r5
    8b70:	8a000013 	bhi	8bc4 <cq_peek_n+0x7c>
    8b74:	e59f305c 	ldr	r3, [pc, #92]	; 8bd8 <cq_peek_n+0x90>
    8b78:	e7906003 	ldr	r6, [r0, r3]
    8b7c:	ebffffdb 	bl	8af0 <cq_pop_n_noblk>
    8b80:	e3500000 	cmp	r0, #0
    8b84:	08bd8070 	popeq	{r4, r5, r6, pc}
    8b88:	e59f3048 	ldr	r3, [pc, #72]	; 8bd8 <cq_peek_n+0x90>
    8b8c:	e7846003 	str	r6, [r4, r3]
    8b90:	e59f203c 	ldr	r2, [pc, #60]	; 8bd4 <cq_peek_n+0x8c>
    8b94:	e7942002 	ldr	r2, [r4, r2]
    8b98:	e7943003 	ldr	r3, [r4, r3]
    8b9c:	e0633002 	rsb	r3, r3, r2
    8ba0:	e1a03983 	lsl	r3, r3, #19
    8ba4:	e15509a3 	cmp	r5, r3, lsr #19
    8ba8:	0a000007 	beq	8bcc <cq_peek_n+0x84>
    8bac:	e59f0028 	ldr	r0, [pc, #40]	; 8bdc <cq_peek_n+0x94>
    8bb0:	e59f1028 	ldr	r1, [pc, #40]	; 8be0 <cq_peek_n+0x98>
    8bb4:	e59f2028 	ldr	r2, [pc, #40]	; 8be4 <cq_peek_n+0x9c>
    8bb8:	e3a03030 	mov	r3, #48	; 0x30
    8bbc:	eb000057 	bl	8d20 <printk>
    8bc0:	eb0001bd 	bl	92bc <clean_reboot>
    8bc4:	e3a00000 	mov	r0, #0
    8bc8:	e8bd8070 	pop	{r4, r5, r6, pc}
    8bcc:	e3a00001 	mov	r0, #1
    8bd0:	e8bd8070 	pop	{r4, r5, r6, pc}
    8bd4:	00002004 	andeq	r2, r0, r4
    8bd8:	00002008 	andeq	r2, r0, r8
    8bdc:	0000a1bc 			; <UNDEFINED> instruction: 0x0000a1bc
    8be0:	0000a0f4 	strdeq	sl, [r0], -r4
    8be4:	0000a0a0 	andeq	sl, r0, r0, lsr #1

00008be8 <cq_push_n>:
    8be8:	e92d47f0 	push	{r4, r5, r6, r7, r8, r9, sl, lr}
    8bec:	e59f30f4 	ldr	r3, [pc, #244]	; 8ce8 <cq_push_n+0x100>
    8bf0:	e790c003 	ldr	ip, [r0, r3]
    8bf4:	e2833004 	add	r3, r3, #4
    8bf8:	e7903003 	ldr	r3, [r0, r3]
    8bfc:	e063300c 	rsb	r3, r3, ip
    8c00:	e1a03983 	lsl	r3, r3, #19
    8c04:	e1a039a3 	lsr	r3, r3, #19
    8c08:	e2633a02 	rsb	r3, r3, #8192	; 0x2000
    8c0c:	e1520003 	cmp	r2, r3
    8c10:	8a00002e 	bhi	8cd0 <cq_push_n+0xe8>
    8c14:	e3a03000 	mov	r3, #0
    8c18:	e59fc0c8 	ldr	ip, [pc, #200]	; 8ce8 <cq_push_n+0x100>
    8c1c:	e59f70c8 	ldr	r7, [pc, #200]	; 8cec <cq_push_n+0x104>
    8c20:	e1a09003 	mov	r9, r3
    8c24:	e3a08001 	mov	r8, #1
    8c28:	ea000018 	b	8c90 <cq_push_n+0xa8>
    8c2c:	e7d1a003 	ldrb	sl, [r1, r3]
    8c30:	e790400c 	ldr	r4, [r0, ip]
    8c34:	e790600c 	ldr	r6, [r0, ip]
    8c38:	e2866001 	add	r6, r6, #1
    8c3c:	e1a06986 	lsl	r6, r6, #19
    8c40:	e7905007 	ldr	r5, [r0, r7]
    8c44:	e15509a6 	cmp	r5, r6, lsr #19
    8c48:	0a000006 	beq	8c68 <cq_push_n+0x80>
    8c4c:	e7c0a004 	strb	sl, [r0, r4]
    8c50:	e2844001 	add	r4, r4, #1
    8c54:	e1a04984 	lsl	r4, r4, #19
    8c58:	e1a049a4 	lsr	r4, r4, #19
    8c5c:	e780400c 	str	r4, [r0, ip]
    8c60:	e1a04008 	mov	r4, r8
    8c64:	ea000000 	b	8c6c <cq_push_n+0x84>
    8c68:	e1a04009 	mov	r4, r9
    8c6c:	e3540000 	cmp	r4, #0
    8c70:	1a000005 	bne	8c8c <cq_push_n+0xa4>
    8c74:	e59f0074 	ldr	r0, [pc, #116]	; 8cf0 <cq_push_n+0x108>
    8c78:	e59f1074 	ldr	r1, [pc, #116]	; 8cf4 <cq_push_n+0x10c>
    8c7c:	e59f2074 	ldr	r2, [pc, #116]	; 8cf8 <cq_push_n+0x110>
    8c80:	e3a0304e 	mov	r3, #78	; 0x4e
    8c84:	eb000025 	bl	8d20 <printk>
    8c88:	eb00018b 	bl	92bc <clean_reboot>
    8c8c:	e2833001 	add	r3, r3, #1
    8c90:	e1530002 	cmp	r3, r2
    8c94:	3affffe4 	bcc	8c2c <cq_push_n+0x44>
    8c98:	e3520000 	cmp	r2, #0
    8c9c:	0a00000d 	beq	8cd8 <cq_push_n+0xf0>
    8ca0:	e59f3040 	ldr	r3, [pc, #64]	; 8ce8 <cq_push_n+0x100>
    8ca4:	e7902003 	ldr	r2, [r0, r3]
    8ca8:	e2833004 	add	r3, r3, #4
    8cac:	e7903003 	ldr	r3, [r0, r3]
    8cb0:	e1520003 	cmp	r2, r3
    8cb4:	1a000009 	bne	8ce0 <cq_push_n+0xf8>
    8cb8:	e59f003c 	ldr	r0, [pc, #60]	; 8cfc <cq_push_n+0x114>
    8cbc:	e59f1030 	ldr	r1, [pc, #48]	; 8cf4 <cq_push_n+0x10c>
    8cc0:	e59f2030 	ldr	r2, [pc, #48]	; 8cf8 <cq_push_n+0x110>
    8cc4:	e3a03050 	mov	r3, #80	; 0x50
    8cc8:	eb000014 	bl	8d20 <printk>
    8ccc:	eb00017a 	bl	92bc <clean_reboot>
    8cd0:	e3a00000 	mov	r0, #0
    8cd4:	e8bd87f0 	pop	{r4, r5, r6, r7, r8, r9, sl, pc}
    8cd8:	e3a00001 	mov	r0, #1
    8cdc:	e8bd87f0 	pop	{r4, r5, r6, r7, r8, r9, sl, pc}
    8ce0:	e3a00001 	mov	r0, #1
    8ce4:	e8bd87f0 	pop	{r4, r5, r6, r7, r8, r9, sl, pc}
    8ce8:	00002004 	andeq	r2, r0, r4
    8cec:	00002008 	andeq	r2, r0, r8
    8cf0:	0000a1e0 	andeq	sl, r0, r0, ror #3
    8cf4:	0000a0f4 	strdeq	sl, [r0], -r4
    8cf8:	0000a0ac 	andeq	sl, r0, ip, lsr #1
    8cfc:	0000a204 	andeq	sl, r0, r4, lsl #4

00008d00 <memset>:
    8d00:	e0802002 	add	r2, r0, r2
    8d04:	e1a03000 	mov	r3, r0
    8d08:	ea000001 	b	8d14 <memset+0x14>
    8d0c:	e5c31000 	strb	r1, [r3]
    8d10:	e2833001 	add	r3, r3, #1
    8d14:	e1530002 	cmp	r3, r2
    8d18:	3afffffb 	bcc	8d0c <memset+0xc>
    8d1c:	e12fff1e 	bx	lr

00008d20 <printk>:
    8d20:	e92d000f 	push	{r0, r1, r2, r3}
    8d24:	e92d4030 	push	{r4, r5, lr}
    8d28:	e24dd00c 	sub	sp, sp, #12
    8d2c:	e28d301c 	add	r3, sp, #28
    8d30:	e58d3004 	str	r3, [sp, #4]
    8d34:	e59f4034 	ldr	r4, [pc, #52]	; 8d70 <printk+0x50>
    8d38:	e1a00004 	mov	r0, r4
    8d3c:	e3a01b01 	mov	r1, #1024	; 0x400
    8d40:	e59d2018 	ldr	r2, [sp, #24]
    8d44:	eb0000b2 	bl	9014 <va_printk>
    8d48:	e1a05000 	mov	r5, r0
    8d4c:	e59f3020 	ldr	r3, [pc, #32]	; 8d74 <printk+0x54>
    8d50:	e5933000 	ldr	r3, [r3]
    8d54:	e1a00004 	mov	r0, r4
    8d58:	e12fff33 	blx	r3
    8d5c:	e1a00005 	mov	r0, r5
    8d60:	e28dd00c 	add	sp, sp, #12
    8d64:	e8bd4030 	pop	{r4, r5, lr}
    8d68:	e28dd010 	add	sp, sp, #16
    8d6c:	e12fff1e 	bx	lr
    8d70:	0000c4b4 			; <UNDEFINED> instruction: 0x0000c4b4
    8d74:	00009e44 	andeq	r9, r0, r4, asr #28

00008d78 <internal_putk>:
    8d78:	e92d4038 	push	{r3, r4, r5, lr}
    8d7c:	e1a04000 	mov	r4, r0
    8d80:	e59f5020 	ldr	r5, [pc, #32]	; 8da8 <internal_putk+0x30>
    8d84:	ea000002 	b	8d94 <internal_putk+0x1c>
    8d88:	e5953000 	ldr	r3, [r5]
    8d8c:	e12fff33 	blx	r3
    8d90:	e2844001 	add	r4, r4, #1
    8d94:	e5d40000 	ldrb	r0, [r4]
    8d98:	e3500000 	cmp	r0, #0
    8d9c:	1afffff9 	bne	8d88 <internal_putk+0x10>
    8da0:	e3a00001 	mov	r0, #1
    8da4:	e8bd8038 	pop	{r3, r4, r5, pc}
    8da8:	00009edc 	ldrdeq	r9, [r0], -ip

00008dac <isdigit>:
    8dac:	e2400030 	sub	r0, r0, #48	; 0x30
    8db0:	e3500009 	cmp	r0, #9
    8db4:	83a00000 	movhi	r0, #0
    8db8:	93a00001 	movls	r0, #1
    8dbc:	e12fff1e 	bx	lr

00008dc0 <pad>:
    8dc0:	e0611000 	rsb	r1, r1, r0
    8dc4:	e3a03020 	mov	r3, #32
    8dc8:	ea000002 	b	8dd8 <pad+0x18>
    8dcc:	e5c03000 	strb	r3, [r0]
    8dd0:	e2811001 	add	r1, r1, #1
    8dd4:	e2800001 	add	r0, r0, #1
    8dd8:	e1510002 	cmp	r1, r2
    8ddc:	bafffffa 	blt	8dcc <pad+0xc>
    8de0:	e3a03000 	mov	r3, #0
    8de4:	e5c03000 	strb	r3, [r0]
    8de8:	e12fff1e 	bx	lr

00008dec <reverse>:
    8dec:	e063c002 	rsb	ip, r3, r2
    8df0:	e28cc001 	add	ip, ip, #1
    8df4:	e15c0001 	cmp	ip, r1
    8df8:	c061100c 	rsbgt	r1, r1, ip
    8dfc:	c0833001 	addgt	r3, r3, r1
    8e00:	e2422001 	sub	r2, r2, #1
    8e04:	e1a01000 	mov	r1, r0
    8e08:	ea000002 	b	8e18 <reverse+0x2c>
    8e0c:	e452c001 	ldrb	ip, [r2], #-1
    8e10:	e5c1c000 	strb	ip, [r1]
    8e14:	e2811001 	add	r1, r1, #1
    8e18:	e1520003 	cmp	r2, r3
    8e1c:	2afffffa 	bcs	8e0c <reverse+0x20>
    8e20:	e3a03000 	mov	r3, #0
    8e24:	e5c13000 	strb	r3, [r1]
    8e28:	e12fff1e 	bx	lr

00008e2c <emit>:
    8e2c:	e92d41f0 	push	{r4, r5, r6, r7, r8, lr}
    8e30:	e24dd040 	sub	sp, sp, #64	; 0x40
    8e34:	e1a05001 	mov	r5, r1
    8e38:	e1a04002 	mov	r4, r2
    8e3c:	e59d2058 	ldr	r2, [sp, #88]	; 0x58
    8e40:	e1520004 	cmp	r2, r4
    8e44:	c2442001 	subgt	r2, r4, #1
    8e48:	e1a0c003 	mov	ip, r3
    8e4c:	e2400002 	sub	r0, r0, #2
    8e50:	e350000e 	cmp	r0, #14
    8e54:	979ff100 	ldrls	pc, [pc, r0, lsl #2]
    8e58:	ea000042 	b	8f68 <emit+0x13c>
    8e5c:	00008f40 	andeq	r8, r0, r0, asr #30
    8e60:	00008f68 	andeq	r8, r0, r8, ror #30
    8e64:	00008f68 	andeq	r8, r0, r8, ror #30
    8e68:	00008f68 	andeq	r8, r0, r8, ror #30
    8e6c:	00008f68 	andeq	r8, r0, r8, ror #30
    8e70:	00008f68 	andeq	r8, r0, r8, ror #30
    8e74:	00008f34 	andeq	r8, r0, r4, lsr pc
    8e78:	00008f68 	andeq	r8, r0, r8, ror #30
    8e7c:	00008e98 	muleq	r0, r8, lr
    8e80:	00008f68 	andeq	r8, r0, r8, ror #30
    8e84:	00008f68 	andeq	r8, r0, r8, ror #30
    8e88:	00008f68 	andeq	r8, r0, r8, ror #30
    8e8c:	00008f68 	andeq	r8, r0, r8, ror #30
    8e90:	00008f68 	andeq	r8, r0, r8, ror #30
    8e94:	00008f0c 	andeq	r8, r0, ip, lsl #30
    8e98:	e59d105c 	ldr	r1, [sp, #92]	; 0x5c
    8e9c:	e2911000 	adds	r1, r1, #0
    8ea0:	13a01001 	movne	r1, #1
    8ea4:	e0111fa3 	ands	r1, r1, r3, lsr #31
    8ea8:	1263c000 	rsbne	ip, r3, #0
    8eac:	13a08001 	movne	r8, #1
    8eb0:	03a08000 	moveq	r8, #0
    8eb4:	e1a0100d 	mov	r1, sp
    8eb8:	e59f70e8 	ldr	r7, [pc, #232]	; 8fa8 <emit+0x17c>
    8ebc:	e59f60e8 	ldr	r6, [pc, #232]	; 8fac <emit+0x180>
    8ec0:	ea000000 	b	8ec8 <emit+0x9c>
    8ec4:	e1a01003 	mov	r1, r3
    8ec8:	e2813001 	add	r3, r1, #1
    8ecc:	e08e0c97 	umull	r0, lr, r7, ip
    8ed0:	e1a0e1ae 	lsr	lr, lr, #3
    8ed4:	e1a0000e 	mov	r0, lr
    8ed8:	e08ee10e 	add	lr, lr, lr, lsl #2
    8edc:	e1a0e08e 	lsl	lr, lr, #1
    8ee0:	e06ee00c 	rsb	lr, lr, ip
    8ee4:	e7d6c00e 	ldrb	ip, [r6, lr]
    8ee8:	e5c1c000 	strb	ip, [r1]
    8eec:	e1a0c000 	mov	ip, r0
    8ef0:	e3500000 	cmp	r0, #0
    8ef4:	1afffff2 	bne	8ec4 <emit+0x98>
    8ef8:	e3580000 	cmp	r8, #0
    8efc:	12813002 	addne	r3, r1, #2
    8f00:	13a0002d 	movne	r0, #45	; 0x2d
    8f04:	15c10001 	strbne	r0, [r1, #1]
    8f08:	ea00001c 	b	8f80 <emit+0x154>
    8f0c:	e1a0e00d 	mov	lr, sp
    8f10:	e59f0098 	ldr	r0, [pc, #152]	; 8fb0 <emit+0x184>
    8f14:	e28e3001 	add	r3, lr, #1
    8f18:	e20c100f 	and	r1, ip, #15
    8f1c:	e7d01001 	ldrb	r1, [r0, r1]
    8f20:	e5ce1000 	strb	r1, [lr]
    8f24:	e1a0e003 	mov	lr, r3
    8f28:	e1b0c22c 	lsrs	ip, ip, #4
    8f2c:	1afffff8 	bne	8f14 <emit+0xe8>
    8f30:	ea000012 	b	8f80 <emit+0x154>
    8f34:	e5cd3000 	strb	r3, [sp]
    8f38:	e28d3001 	add	r3, sp, #1
    8f3c:	ea00000f 	b	8f80 <emit+0x154>
    8f40:	e1a0e00d 	mov	lr, sp
    8f44:	e59f0068 	ldr	r0, [pc, #104]	; 8fb4 <emit+0x188>
    8f48:	e28e3001 	add	r3, lr, #1
    8f4c:	e20c1001 	and	r1, ip, #1
    8f50:	e7d01001 	ldrb	r1, [r0, r1]
    8f54:	e5ce1000 	strb	r1, [lr]
    8f58:	e1a0e003 	mov	lr, r3
    8f5c:	e1b0c0ac 	lsrs	ip, ip, #1
    8f60:	1afffff8 	bne	8f48 <emit+0x11c>
    8f64:	ea000005 	b	8f80 <emit+0x154>
    8f68:	e59f0048 	ldr	r0, [pc, #72]	; 8fb8 <emit+0x18c>
    8f6c:	e59f1048 	ldr	r1, [pc, #72]	; 8fbc <emit+0x190>
    8f70:	e59f2048 	ldr	r2, [pc, #72]	; 8fc0 <emit+0x194>
    8f74:	e3a03075 	mov	r3, #117	; 0x75
    8f78:	ebffff68 	bl	8d20 <printk>
    8f7c:	eb0000ce 	bl	92bc <clean_reboot>
    8f80:	e1a00003 	mov	r0, r3
    8f84:	e1a0100d 	mov	r1, sp
    8f88:	ebffff8c 	bl	8dc0 <pad>
    8f8c:	e1a02000 	mov	r2, r0
    8f90:	e1a00005 	mov	r0, r5
    8f94:	e1a01004 	mov	r1, r4
    8f98:	e1a0300d 	mov	r3, sp
    8f9c:	ebffff92 	bl	8dec <reverse>
    8fa0:	e28dd040 	add	sp, sp, #64	; 0x40
    8fa4:	e8bd81f0 	pop	{r4, r5, r6, r7, r8, pc}
    8fa8:	cccccccd 	stclgt	12, cr12, [ip], {205}	; 0xcd
    8fac:	0000a270 	andeq	sl, r0, r0, ror r2
    8fb0:	0000a27c 	andeq	sl, r0, ip, ror r2
    8fb4:	0000a290 	muleq	r0, r0, r2
    8fb8:	0000a248 	andeq	sl, r0, r8, asr #4
    8fbc:	0000a25c 	andeq	sl, r0, ip, asr r2
    8fc0:	0000a224 	andeq	sl, r0, r4, lsr #4

00008fc4 <rpi_set_output>:
    8fc4:	e92d4008 	push	{r3, lr}
    8fc8:	e3500000 	cmp	r0, #0
    8fcc:	1a000005 	bne	8fe8 <rpi_set_output+0x24>
    8fd0:	e59f0028 	ldr	r0, [pc, #40]	; 9000 <rpi_set_output+0x3c>
    8fd4:	e59f1028 	ldr	r1, [pc, #40]	; 9004 <rpi_set_output+0x40>
    8fd8:	e59f2028 	ldr	r2, [pc, #40]	; 9008 <rpi_set_output+0x44>
    8fdc:	e3a03020 	mov	r3, #32
    8fe0:	ebffff4e 	bl	8d20 <printk>
    8fe4:	eb0000b4 	bl	92bc <clean_reboot>
    8fe8:	e59f301c 	ldr	r3, [pc, #28]	; 900c <rpi_set_output+0x48>
    8fec:	e5830000 	str	r0, [r3]
    8ff0:	e3510000 	cmp	r1, #0
    8ff4:	159f3014 	ldrne	r3, [pc, #20]	; 9010 <rpi_set_output+0x4c>
    8ff8:	15831000 	strne	r1, [r3]
    8ffc:	e8bd8008 	pop	{r3, pc}
    9000:	0000a294 	muleq	r0, r4, r2
    9004:	0000a25c 	andeq	sl, r0, ip, asr r2
    9008:	0000a22c 	andeq	sl, r0, ip, lsr #4
    900c:	00009edc 	ldrdeq	r9, [r0], -ip
    9010:	00009e44 	andeq	r9, r0, r4, asr #28

00009014 <va_printk>:
    9014:	e92d4ff0 	push	{r4, r5, r6, r7, r8, r9, sl, fp, lr}
    9018:	e24dd08c 	sub	sp, sp, #140	; 0x8c
    901c:	e1a0b000 	mov	fp, r0
    9020:	e1a0a003 	mov	sl, r3
    9024:	e2411001 	sub	r1, r1, #1
    9028:	e0808001 	add	r8, r0, r1
    902c:	e3a03000 	mov	r3, #0
    9030:	e5c03000 	strb	r3, [r0]
    9034:	e1a04000 	mov	r4, r0
    9038:	ea000087 	b	925c <va_printk+0x248>
    903c:	e3530025 	cmp	r3, #37	; 0x25
    9040:	12822001 	addne	r2, r2, #1
    9044:	15c43000 	strbne	r3, [r4]
    9048:	12844001 	addne	r4, r4, #1
    904c:	1a000082 	bne	925c <va_printk+0x248>
    9050:	e5d21001 	ldrb	r1, [r2, #1]
    9054:	e3510025 	cmp	r1, #37	; 0x25
    9058:	05c43000 	strbeq	r3, [r4]
    905c:	02822002 	addeq	r2, r2, #2
    9060:	02844001 	addeq	r4, r4, #1
    9064:	0a00007c 	beq	925c <va_printk+0x248>
    9068:	e2826001 	add	r6, r2, #1
    906c:	e3a07000 	mov	r7, #0
    9070:	ea000004 	b	9088 <va_printk+0x74>
    9074:	e0877107 	add	r7, r7, r7, lsl #2
    9078:	e1a07087 	lsl	r7, r7, #1
    907c:	e0877005 	add	r7, r7, r5
    9080:	e2477030 	sub	r7, r7, #48	; 0x30
    9084:	e2866001 	add	r6, r6, #1
    9088:	e5d65000 	ldrb	r5, [r6]
    908c:	e1a09005 	mov	r9, r5
    9090:	e1a00005 	mov	r0, r5
    9094:	ebffff44 	bl	8dac <isdigit>
    9098:	e3500000 	cmp	r0, #0
    909c:	1afffff4 	bne	9074 <va_printk+0x60>
    90a0:	e357001f 	cmp	r7, #31
    90a4:	9a000005 	bls	90c0 <va_printk+0xac>
    90a8:	e59f01d8 	ldr	r0, [pc, #472]	; 9288 <va_printk+0x274>
    90ac:	e59f11d8 	ldr	r1, [pc, #472]	; 928c <va_printk+0x278>
    90b0:	e59f21d8 	ldr	r2, [pc, #472]	; 9290 <va_printk+0x27c>
    90b4:	e3a03092 	mov	r3, #146	; 0x92
    90b8:	ebffff18 	bl	8d20 <printk>
    90bc:	eb00007e 	bl	92bc <clean_reboot>
    90c0:	e2455062 	sub	r5, r5, #98	; 0x62
    90c4:	e3550016 	cmp	r5, #22
    90c8:	979ff105 	ldrls	pc, [pc, r5, lsl #2]
    90cc:	ea000051 	b	9218 <va_printk+0x204>
    90d0:	000091bc 			; <UNDEFINED> instruction: 0x000091bc
    90d4:	000091f0 	strdeq	r9, [r0], -r0
    90d8:	00009144 	andeq	r9, r0, r4, asr #2
    90dc:	00009218 	andeq	r9, r0, r8, lsl r2
    90e0:	0000912c 	andeq	r9, r0, ip, lsr #2
    90e4:	00009218 	andeq	r9, r0, r8, lsl r2
    90e8:	00009218 	andeq	r9, r0, r8, lsl r2
    90ec:	00009218 	andeq	r9, r0, r8, lsl r2
    90f0:	00009218 	andeq	r9, r0, r8, lsl r2
    90f4:	00009218 	andeq	r9, r0, r8, lsl r2
    90f8:	00009218 	andeq	r9, r0, r8, lsl r2
    90fc:	00009218 	andeq	r9, r0, r8, lsl r2
    9100:	00009218 	andeq	r9, r0, r8, lsl r2
    9104:	00009218 	andeq	r9, r0, r8, lsl r2
    9108:	00009194 	muleq	r0, r4, r1
    910c:	00009218 	andeq	r9, r0, r8, lsl r2
    9110:	00009218 	andeq	r9, r0, r8, lsl r2
    9114:	000091e4 	andeq	r9, r0, r4, ror #3
    9118:	00009218 	andeq	r9, r0, r8, lsl r2
    911c:	0000916c 	andeq	r9, r0, ip, ror #2
    9120:	00009218 	andeq	r9, r0, r8, lsl r2
    9124:	00009218 	andeq	r9, r0, r8, lsl r2
    9128:	00009194 	muleq	r0, r4, r1
    912c:	e59f0160 	ldr	r0, [pc, #352]	; 9294 <va_printk+0x280>
    9130:	e59f1154 	ldr	r1, [pc, #340]	; 928c <va_printk+0x278>
    9134:	e59f2154 	ldr	r2, [pc, #340]	; 9290 <va_printk+0x27c>
    9138:	e3a03098 	mov	r3, #152	; 0x98
    913c:	ebfffef7 	bl	8d20 <printk>
    9140:	eb00005d 	bl	92bc <clean_reboot>
    9144:	e59a3000 	ldr	r3, [sl]
    9148:	e28aa004 	add	sl, sl, #4
    914c:	e58d7000 	str	r7, [sp]
    9150:	e3a02001 	mov	r2, #1
    9154:	e58d2004 	str	r2, [sp, #4]
    9158:	e3a0000a 	mov	r0, #10
    915c:	e28d1008 	add	r1, sp, #8
    9160:	e3a02080 	mov	r2, #128	; 0x80
    9164:	ebffff30 	bl	8e2c <emit>
    9168:	ea000031 	b	9234 <va_printk+0x220>
    916c:	e59a3000 	ldr	r3, [sl]
    9170:	e28aa004 	add	sl, sl, #4
    9174:	e58d7000 	str	r7, [sp]
    9178:	e3a02000 	mov	r2, #0
    917c:	e58d2004 	str	r2, [sp, #4]
    9180:	e3a0000a 	mov	r0, #10
    9184:	e28d1008 	add	r1, sp, #8
    9188:	e3a02080 	mov	r2, #128	; 0x80
    918c:	ebffff26 	bl	8e2c <emit>
    9190:	ea000027 	b	9234 <va_printk+0x220>
    9194:	e59a3000 	ldr	r3, [sl]
    9198:	e28aa004 	add	sl, sl, #4
    919c:	e58d7000 	str	r7, [sp]
    91a0:	e3a02000 	mov	r2, #0
    91a4:	e58d2004 	str	r2, [sp, #4]
    91a8:	e3a00010 	mov	r0, #16
    91ac:	e28d1008 	add	r1, sp, #8
    91b0:	e3a02080 	mov	r2, #128	; 0x80
    91b4:	ebffff1c 	bl	8e2c <emit>
    91b8:	ea00001d 	b	9234 <va_printk+0x220>
    91bc:	e59a3000 	ldr	r3, [sl]
    91c0:	e28aa004 	add	sl, sl, #4
    91c4:	e58d7000 	str	r7, [sp]
    91c8:	e3a02000 	mov	r2, #0
    91cc:	e58d2004 	str	r2, [sp, #4]
    91d0:	e3a00002 	mov	r0, #2
    91d4:	e28d1008 	add	r1, sp, #8
    91d8:	e3a02080 	mov	r2, #128	; 0x80
    91dc:	ebffff12 	bl	8e2c <emit>
    91e0:	ea000013 	b	9234 <va_printk+0x220>
    91e4:	e59a0000 	ldr	r0, [sl]
    91e8:	e28aa004 	add	sl, sl, #4
    91ec:	ea000010 	b	9234 <va_printk+0x220>
    91f0:	e59a3000 	ldr	r3, [sl]
    91f4:	e28aa004 	add	sl, sl, #4
    91f8:	e58d7000 	str	r7, [sp]
    91fc:	e3a02000 	mov	r2, #0
    9200:	e58d2004 	str	r2, [sp, #4]
    9204:	e3a00008 	mov	r0, #8
    9208:	e08d1000 	add	r1, sp, r0
    920c:	e3a02080 	mov	r2, #128	; 0x80
    9210:	ebffff05 	bl	8e2c <emit>
    9214:	ea000006 	b	9234 <va_printk+0x220>
    9218:	e58d9000 	str	r9, [sp]
    921c:	e59f0074 	ldr	r0, [pc, #116]	; 9298 <va_printk+0x284>
    9220:	e59f1064 	ldr	r1, [pc, #100]	; 928c <va_printk+0x278>
    9224:	e59f2064 	ldr	r2, [pc, #100]	; 9290 <va_printk+0x27c>
    9228:	e3a030b9 	mov	r3, #185	; 0xb9
    922c:	ebfffebb 	bl	8d20 <printk>
    9230:	eb000021 	bl	92bc <clean_reboot>
    9234:	e2862001 	add	r2, r6, #1
    9238:	ea000002 	b	9248 <va_printk+0x234>
    923c:	e2800001 	add	r0, r0, #1
    9240:	e5c43000 	strb	r3, [r4]
    9244:	e2844001 	add	r4, r4, #1
    9248:	e1540008 	cmp	r4, r8
    924c:	2a000002 	bcs	925c <va_printk+0x248>
    9250:	e5d03000 	ldrb	r3, [r0]
    9254:	e3530000 	cmp	r3, #0
    9258:	1afffff7 	bne	923c <va_printk+0x228>
    925c:	e5d23000 	ldrb	r3, [r2]
    9260:	e3530000 	cmp	r3, #0
    9264:	0a000001 	beq	9270 <va_printk+0x25c>
    9268:	e1540008 	cmp	r4, r8
    926c:	3affff72 	bcc	903c <va_printk+0x28>
    9270:	e2840001 	add	r0, r4, #1
    9274:	e3a03000 	mov	r3, #0
    9278:	e5c43000 	strb	r3, [r4]
    927c:	e06b0000 	rsb	r0, fp, r0
    9280:	e28dd08c 	add	sp, sp, #140	; 0x8c
    9284:	e8bd8ff0 	pop	{r4, r5, r6, r7, r8, r9, sl, fp, pc}
    9288:	0000a2ac 	andeq	sl, r0, ip, lsr #5
    928c:	0000a25c 	andeq	sl, r0, ip, asr r2
    9290:	0000a23c 	andeq	sl, r0, ip, lsr r2
    9294:	0000a2c8 	andeq	sl, r0, r8, asr #5
    9298:	0000a2f0 	strdeq	sl, [r0], -r0

0000929c <enable_cache>:
    929c:	ee113f10 	mrc	15, 0, r3, cr1, cr0, {0}
    92a0:	e3833b06 	orr	r3, r3, #6144	; 0x1800
    92a4:	ee013f10 	mcr	15, 0, r3, cr1, cr0, {0}
    92a8:	e12fff1e 	bx	lr

000092ac <disable_cache>:
    92ac:	ee113f10 	mrc	15, 0, r3, cr1, cr0, {0}
    92b0:	e3c33b06 	bic	r3, r3, #6144	; 0x1800
    92b4:	ee013f10 	mcr	15, 0, r3, cr1, cr0, {0}
    92b8:	e12fff1e 	bx	lr

000092bc <clean_reboot>:
    92bc:	e92d4008 	push	{r3, lr}
    92c0:	e59f3014 	ldr	r3, [pc, #20]	; 92dc <clean_reboot+0x20>
    92c4:	e5933000 	ldr	r3, [r3]
    92c8:	e59f0010 	ldr	r0, [pc, #16]	; 92e0 <clean_reboot+0x24>
    92cc:	e12fff33 	blx	r3
    92d0:	e3a00064 	mov	r0, #100	; 0x64
    92d4:	eb000044 	bl	93ec <delay_ms>
    92d8:	eb000019 	bl	9344 <rpi_reboot>
    92dc:	00009e44 	andeq	r9, r0, r4, asr #28
    92e0:	0000a328 	andeq	sl, r0, r8, lsr #6

000092e4 <_cstart>:
    92e4:	e92d4008 	push	{r3, lr}
    92e8:	e59f3020 	ldr	r3, [pc, #32]	; 9310 <_cstart+0x2c>
    92ec:	e59f2020 	ldr	r2, [pc, #32]	; 9314 <_cstart+0x30>
    92f0:	e3a01000 	mov	r1, #0
    92f4:	ea000001 	b	9300 <_cstart+0x1c>
    92f8:	e5831000 	str	r1, [r3]
    92fc:	e2833004 	add	r3, r3, #4
    9300:	e1530002 	cmp	r3, r2
    9304:	3afffffb 	bcc	92f8 <_cstart+0x14>
    9308:	ebfffd0d 	bl	8744 <notmain>
    930c:	eb00000c 	bl	9344 <rpi_reboot>
    9310:	0000a47c 	andeq	sl, r0, ip, ror r4
    9314:	0000c8b8 			; <UNDEFINED> instruction: 0x0000c8b8

00009318 <at_user_level>:
    9318:	e10f0000 	mrs	r0, CPSR
    931c:	e200001f 	and	r0, r0, #31
    9320:	e3500010 	cmp	r0, #16
    9324:	13a00000 	movne	r0, #0
    9328:	03a00001 	moveq	r0, #1
    932c:	e12fff1e 	bx	lr

00009330 <set_user_level>:
    9330:	e10f3000 	mrs	r3, CPSR
    9334:	e3c3301f 	bic	r3, r3, #31
    9338:	e3833010 	orr	r3, r3, #16
    933c:	e129f003 	msr	CPSR_fc, r3
    9340:	e12fff1e 	bx	lr

00009344 <rpi_reboot>:
    9344:	e92d4008 	push	{r3, lr}
    9348:	ebfffff2 	bl	9318 <at_user_level>
    934c:	e3500000 	cmp	r0, #0
    9350:	0a000000 	beq	9358 <rpi_reboot+0x14>
    9354:	ebfffff5 	bl	9330 <set_user_level>
    9358:	e3a0001e 	mov	r0, #30
    935c:	eb000022 	bl	93ec <delay_ms>
    9360:	e59f0014 	ldr	r0, [pc, #20]	; 937c <rpi_reboot+0x38>
    9364:	e59f1014 	ldr	r1, [pc, #20]	; 9380 <rpi_reboot+0x3c>
    9368:	eb000214 	bl	9bc0 <PUT32>
    936c:	e59f0010 	ldr	r0, [pc, #16]	; 9384 <rpi_reboot+0x40>
    9370:	e59f1010 	ldr	r1, [pc, #16]	; 9388 <rpi_reboot+0x44>
    9374:	eb000211 	bl	9bc0 <PUT32>
    9378:	eafffffe 	b	9378 <rpi_reboot+0x34>
    937c:	20100024 	andscs	r0, r0, r4, lsr #32
    9380:	5a000001 	bpl	938c <delay_cycles>
    9384:	2010001c 	andscs	r0, r0, ip, lsl r0
    9388:	5a000020 	bpl	9410 <delay_sec+0x10>

0000938c <delay_cycles>:
    938c:	ea000001 	b	9398 <delay_cycles+0xc>
    9390:	e2811000 	add	r1, r1, #0
    9394:	e1a00003 	mov	r0, r3
    9398:	e2403001 	sub	r3, r0, #1
    939c:	e3500000 	cmp	r0, #0
    93a0:	1afffffa 	bne	9390 <delay_cycles+0x4>
    93a4:	e12fff1e 	bx	lr

000093a8 <timer_get_usec_raw>:
    93a8:	e92d4008 	push	{r3, lr}
    93ac:	e59f0004 	ldr	r0, [pc, #4]	; 93b8 <timer_get_usec_raw+0x10>
    93b0:	eb00020e 	bl	9bf0 <GET32>
    93b4:	e8bd8008 	pop	{r3, pc}
    93b8:	20003004 	andcs	r3, r0, r4

000093bc <timer_get_usec>:
    93bc:	e92d4008 	push	{r3, lr}
    93c0:	ebfffff8 	bl	93a8 <timer_get_usec_raw>
    93c4:	e8bd8008 	pop	{r3, pc}

000093c8 <delay_us>:
    93c8:	e92d4038 	push	{r3, r4, r5, lr}
    93cc:	e1a05000 	mov	r5, r0
    93d0:	ebfffff9 	bl	93bc <timer_get_usec>
    93d4:	e1a04000 	mov	r4, r0
    93d8:	ebfffff7 	bl	93bc <timer_get_usec>
    93dc:	e0640000 	rsb	r0, r4, r0
    93e0:	e1500005 	cmp	r0, r5
    93e4:	3afffffb 	bcc	93d8 <delay_us+0x10>
    93e8:	e8bd8038 	pop	{r3, r4, r5, pc}

000093ec <delay_ms>:
    93ec:	e92d4008 	push	{r3, lr}
    93f0:	e3a03ffa 	mov	r3, #1000	; 0x3e8
    93f4:	e0000093 	mul	r0, r3, r0
    93f8:	ebfffff2 	bl	93c8 <delay_us>
    93fc:	e8bd8008 	pop	{r3, pc}

00009400 <delay_sec>:
    9400:	e92d4008 	push	{r3, lr}
    9404:	e3a03ffa 	mov	r3, #1000	; 0x3e8
    9408:	e0000093 	mul	r0, r3, r0
    940c:	ebfffff6 	bl	93ec <delay_ms>
    9410:	e8bd8008 	pop	{r3, pc}

00009414 <gpio_set_output>:
    9414:	e92d4038 	push	{r3, r4, r5, lr}
    9418:	e1a04000 	mov	r4, r0
    941c:	e350001f 	cmp	r0, #31
    9420:	88bd8038 	pophi	{r3, r4, r5, pc}
    9424:	e59f30b4 	ldr	r3, [pc, #180]	; 94e0 <gpio_set_output+0xcc>
    9428:	e0832093 	umull	r2, r3, r3, r0
    942c:	e1a031a3 	lsr	r3, r3, #3
    9430:	e3530005 	cmp	r3, #5
    9434:	979ff103 	ldrls	pc, [pc, r3, lsl #2]
    9438:	ea000017 	b	949c <gpio_set_output+0x88>
    943c:	00009454 	andeq	r9, r0, r4, asr r4
    9440:	00009460 	andeq	r9, r0, r0, ror #8
    9444:	0000946c 	andeq	r9, r0, ip, ror #8
    9448:	00009478 	andeq	r9, r0, r8, ror r4
    944c:	00009484 	andeq	r9, r0, r4, lsl #9
    9450:	00009490 	muleq	r0, r0, r4
    9454:	e59f3088 	ldr	r3, [pc, #136]	; 94e4 <gpio_set_output+0xd0>
    9458:	e5935000 	ldr	r5, [r3]
    945c:	ea00000f 	b	94a0 <gpio_set_output+0x8c>
    9460:	e59f307c 	ldr	r3, [pc, #124]	; 94e4 <gpio_set_output+0xd0>
    9464:	e5935004 	ldr	r5, [r3, #4]
    9468:	ea00000c 	b	94a0 <gpio_set_output+0x8c>
    946c:	e59f3070 	ldr	r3, [pc, #112]	; 94e4 <gpio_set_output+0xd0>
    9470:	e5935008 	ldr	r5, [r3, #8]
    9474:	ea000009 	b	94a0 <gpio_set_output+0x8c>
    9478:	e59f3064 	ldr	r3, [pc, #100]	; 94e4 <gpio_set_output+0xd0>
    947c:	e593500c 	ldr	r5, [r3, #12]
    9480:	ea000006 	b	94a0 <gpio_set_output+0x8c>
    9484:	e59f3058 	ldr	r3, [pc, #88]	; 94e4 <gpio_set_output+0xd0>
    9488:	e5935010 	ldr	r5, [r3, #16]
    948c:	ea000003 	b	94a0 <gpio_set_output+0x8c>
    9490:	e59f304c 	ldr	r3, [pc, #76]	; 94e4 <gpio_set_output+0xd0>
    9494:	e5935014 	ldr	r5, [r3, #20]
    9498:	ea000000 	b	94a0 <gpio_set_output+0x8c>
    949c:	e3a05000 	mov	r5, #0
    94a0:	e1a00005 	mov	r0, r5
    94a4:	eb0001cf 	bl	9be8 <get32>
    94a8:	e59f1030 	ldr	r1, [pc, #48]	; 94e0 <gpio_set_output+0xcc>
    94ac:	e0813491 	umull	r3, r1, r1, r4
    94b0:	e1a011a1 	lsr	r1, r1, #3
    94b4:	e0811101 	add	r1, r1, r1, lsl #2
    94b8:	e1a01081 	lsl	r1, r1, #1
    94bc:	e0611004 	rsb	r1, r1, r4
    94c0:	e0811081 	add	r1, r1, r1, lsl #1
    94c4:	e3a03007 	mov	r3, #7
    94c8:	e1c03113 	bic	r3, r0, r3, lsl r1
    94cc:	e1a00005 	mov	r0, r5
    94d0:	e3a02001 	mov	r2, #1
    94d4:	e1831112 	orr	r1, r3, r2, lsl r1
    94d8:	eb0001b6 	bl	9bb8 <put32>
    94dc:	e8bd8038 	pop	{r3, r4, r5, pc}
    94e0:	cccccccd 	stclgt	12, cr12, [ip], {205}	; 0xcd
    94e4:	00009e48 	andeq	r9, r0, r8, asr #28

000094e8 <gpio_set_on>:
    94e8:	e92d4008 	push	{r3, lr}
    94ec:	e350001f 	cmp	r0, #31
    94f0:	88bd8008 	pophi	{r3, pc}
    94f4:	959f3020 	ldrls	r3, [pc, #32]	; 951c <gpio_set_on+0x34>
    94f8:	95932018 	ldrls	r2, [r3, #24]
    94fc:	859f3018 	ldrhi	r3, [pc, #24]	; 951c <gpio_set_on+0x34>
    9500:	8593201c 	ldrhi	r2, [r3, #28]
    9504:	e200301f 	and	r3, r0, #31
    9508:	e1a00002 	mov	r0, r2
    950c:	e3a01001 	mov	r1, #1
    9510:	e1a01311 	lsl	r1, r1, r3
    9514:	eb0001a7 	bl	9bb8 <put32>
    9518:	e8bd8008 	pop	{r3, pc}
    951c:	00009e48 	andeq	r9, r0, r8, asr #28

00009520 <gpio_set_off>:
    9520:	e92d4008 	push	{r3, lr}
    9524:	e350001f 	cmp	r0, #31
    9528:	88bd8008 	pophi	{r3, pc}
    952c:	959f3020 	ldrls	r3, [pc, #32]	; 9554 <gpio_set_off+0x34>
    9530:	95932020 	ldrls	r2, [r3, #32]
    9534:	859f3018 	ldrhi	r3, [pc, #24]	; 9554 <gpio_set_off+0x34>
    9538:	85932024 	ldrhi	r2, [r3, #36]	; 0x24
    953c:	e200301f 	and	r3, r0, #31
    9540:	e1a00002 	mov	r0, r2
    9544:	e3a01001 	mov	r1, #1
    9548:	e1a01311 	lsl	r1, r1, r3
    954c:	eb000199 	bl	9bb8 <put32>
    9550:	e8bd8008 	pop	{r3, pc}
    9554:	00009e48 	andeq	r9, r0, r8, asr #28

00009558 <gpio_set_input>:
    9558:	e92d4038 	push	{r3, r4, r5, lr}
    955c:	e1a04000 	mov	r4, r0
    9560:	e350001f 	cmp	r0, #31
    9564:	88bd8038 	pophi	{r3, r4, r5, pc}
    9568:	e59f30ac 	ldr	r3, [pc, #172]	; 961c <gpio_set_input+0xc4>
    956c:	e0832093 	umull	r2, r3, r3, r0
    9570:	e1a031a3 	lsr	r3, r3, #3
    9574:	e3530005 	cmp	r3, #5
    9578:	979ff103 	ldrls	pc, [pc, r3, lsl #2]
    957c:	ea000017 	b	95e0 <gpio_set_input+0x88>
    9580:	00009598 	muleq	r0, r8, r5
    9584:	000095a4 	andeq	r9, r0, r4, lsr #11
    9588:	000095b0 			; <UNDEFINED> instruction: 0x000095b0
    958c:	000095bc 			; <UNDEFINED> instruction: 0x000095bc
    9590:	000095c8 	andeq	r9, r0, r8, asr #11
    9594:	000095d4 	ldrdeq	r9, [r0], -r4
    9598:	e59f3080 	ldr	r3, [pc, #128]	; 9620 <gpio_set_input+0xc8>
    959c:	e5935000 	ldr	r5, [r3]
    95a0:	ea00000f 	b	95e4 <gpio_set_input+0x8c>
    95a4:	e59f3074 	ldr	r3, [pc, #116]	; 9620 <gpio_set_input+0xc8>
    95a8:	e5935004 	ldr	r5, [r3, #4]
    95ac:	ea00000c 	b	95e4 <gpio_set_input+0x8c>
    95b0:	e59f3068 	ldr	r3, [pc, #104]	; 9620 <gpio_set_input+0xc8>
    95b4:	e5935008 	ldr	r5, [r3, #8]
    95b8:	ea000009 	b	95e4 <gpio_set_input+0x8c>
    95bc:	e59f305c 	ldr	r3, [pc, #92]	; 9620 <gpio_set_input+0xc8>
    95c0:	e593500c 	ldr	r5, [r3, #12]
    95c4:	ea000006 	b	95e4 <gpio_set_input+0x8c>
    95c8:	e59f3050 	ldr	r3, [pc, #80]	; 9620 <gpio_set_input+0xc8>
    95cc:	e5935010 	ldr	r5, [r3, #16]
    95d0:	ea000003 	b	95e4 <gpio_set_input+0x8c>
    95d4:	e59f3044 	ldr	r3, [pc, #68]	; 9620 <gpio_set_input+0xc8>
    95d8:	e5935014 	ldr	r5, [r3, #20]
    95dc:	ea000000 	b	95e4 <gpio_set_input+0x8c>
    95e0:	e3a05000 	mov	r5, #0
    95e4:	e1a00005 	mov	r0, r5
    95e8:	eb00017e 	bl	9be8 <get32>
    95ec:	e59f1028 	ldr	r1, [pc, #40]	; 961c <gpio_set_input+0xc4>
    95f0:	e0813491 	umull	r3, r1, r1, r4
    95f4:	e1a011a1 	lsr	r1, r1, #3
    95f8:	e0811101 	add	r1, r1, r1, lsl #2
    95fc:	e1a01081 	lsl	r1, r1, #1
    9600:	e0611004 	rsb	r1, r1, r4
    9604:	e0811081 	add	r1, r1, r1, lsl #1
    9608:	e3a03007 	mov	r3, #7
    960c:	e1c01113 	bic	r1, r0, r3, lsl r1
    9610:	e1a00005 	mov	r0, r5
    9614:	eb000167 	bl	9bb8 <put32>
    9618:	e8bd8038 	pop	{r3, r4, r5, pc}
    961c:	cccccccd 	stclgt	12, cr12, [ip], {205}	; 0xcd
    9620:	00009e48 	andeq	r9, r0, r8, asr #28

00009624 <gpio_read>:
    9624:	e92d4010 	push	{r4, lr}
    9628:	e1a04000 	mov	r4, r0
    962c:	e350001f 	cmp	r0, #31
    9630:	8a00000b 	bhi	9664 <gpio_read+0x40>
    9634:	8a000003 	bhi	9648 <gpio_read+0x24>
    9638:	e59f302c 	ldr	r3, [pc, #44]	; 966c <gpio_read+0x48>
    963c:	e5930028 	ldr	r0, [r3, #40]	; 0x28
    9640:	eb000168 	bl	9be8 <get32>
    9644:	ea000002 	b	9654 <gpio_read+0x30>
    9648:	e59f301c 	ldr	r3, [pc, #28]	; 966c <gpio_read+0x48>
    964c:	e593002c 	ldr	r0, [r3, #44]	; 0x2c
    9650:	eb000164 	bl	9be8 <get32>
    9654:	e204401f 	and	r4, r4, #31
    9658:	e3a03001 	mov	r3, #1
    965c:	e0000413 	and	r0, r0, r3, lsl r4
    9660:	e8bd8010 	pop	{r4, pc}
    9664:	e3e00000 	mvn	r0, #0
    9668:	e8bd8010 	pop	{r4, pc}
    966c:	00009e48 	andeq	r9, r0, r8, asr #28

00009670 <gpio_write>:
    9670:	e92d4008 	push	{r3, lr}
    9674:	e350001f 	cmp	r0, #31
    9678:	88bd8008 	pophi	{r3, pc}
    967c:	e3510000 	cmp	r1, #0
    9680:	0a00000b 	beq	96b4 <gpio_write+0x44>
    9684:	e350001f 	cmp	r0, #31
    9688:	88bd8008 	pophi	{r3, pc}
    968c:	959f3050 	ldrls	r3, [pc, #80]	; 96e4 <gpio_write+0x74>
    9690:	95932018 	ldrls	r2, [r3, #24]
    9694:	859f3048 	ldrhi	r3, [pc, #72]	; 96e4 <gpio_write+0x74>
    9698:	8593201c 	ldrhi	r2, [r3, #28]
    969c:	e200301f 	and	r3, r0, #31
    96a0:	e1a00002 	mov	r0, r2
    96a4:	e3a01001 	mov	r1, #1
    96a8:	e1a01311 	lsl	r1, r1, r3
    96ac:	eb000141 	bl	9bb8 <put32>
    96b0:	e8bd8008 	pop	{r3, pc}
    96b4:	e350001f 	cmp	r0, #31
    96b8:	88bd8008 	pophi	{r3, pc}
    96bc:	959f3020 	ldrls	r3, [pc, #32]	; 96e4 <gpio_write+0x74>
    96c0:	95932020 	ldrls	r2, [r3, #32]
    96c4:	859f3018 	ldrhi	r3, [pc, #24]	; 96e4 <gpio_write+0x74>
    96c8:	85932024 	ldrhi	r2, [r3, #36]	; 0x24
    96cc:	e200301f 	and	r3, r0, #31
    96d0:	e1a00002 	mov	r0, r2
    96d4:	e3a01001 	mov	r1, #1
    96d8:	e1a01311 	lsl	r1, r1, r3
    96dc:	eb000135 	bl	9bb8 <put32>
    96e0:	e8bd8008 	pop	{r3, pc}
    96e4:	00009e48 	andeq	r9, r0, r8, asr #28

000096e8 <gpio_set_function>:
    96e8:	e92d4070 	push	{r4, r5, r6, lr}
    96ec:	e1a04000 	mov	r4, r0
    96f0:	e1a05001 	mov	r5, r1
    96f4:	e3510007 	cmp	r1, #7
    96f8:	9350001f 	cmpls	r0, #31
    96fc:	88bd8070 	pophi	{r4, r5, r6, pc}
    9700:	e59f30b0 	ldr	r3, [pc, #176]	; 97b8 <gpio_set_function+0xd0>
    9704:	e0832093 	umull	r2, r3, r3, r0
    9708:	e1a031a3 	lsr	r3, r3, #3
    970c:	e3530005 	cmp	r3, #5
    9710:	979ff103 	ldrls	pc, [pc, r3, lsl #2]
    9714:	ea000017 	b	9778 <gpio_set_function+0x90>
    9718:	00009730 	andeq	r9, r0, r0, lsr r7
    971c:	0000973c 	andeq	r9, r0, ip, lsr r7
    9720:	00009748 	andeq	r9, r0, r8, asr #14
    9724:	00009754 	andeq	r9, r0, r4, asr r7
    9728:	00009760 	andeq	r9, r0, r0, ror #14
    972c:	0000976c 	andeq	r9, r0, ip, ror #14
    9730:	e59f3084 	ldr	r3, [pc, #132]	; 97bc <gpio_set_function+0xd4>
    9734:	e5936000 	ldr	r6, [r3]
    9738:	ea00000f 	b	977c <gpio_set_function+0x94>
    973c:	e59f3078 	ldr	r3, [pc, #120]	; 97bc <gpio_set_function+0xd4>
    9740:	e5936004 	ldr	r6, [r3, #4]
    9744:	ea00000c 	b	977c <gpio_set_function+0x94>
    9748:	e59f306c 	ldr	r3, [pc, #108]	; 97bc <gpio_set_function+0xd4>
    974c:	e5936008 	ldr	r6, [r3, #8]
    9750:	ea000009 	b	977c <gpio_set_function+0x94>
    9754:	e59f3060 	ldr	r3, [pc, #96]	; 97bc <gpio_set_function+0xd4>
    9758:	e593600c 	ldr	r6, [r3, #12]
    975c:	ea000006 	b	977c <gpio_set_function+0x94>
    9760:	e59f3054 	ldr	r3, [pc, #84]	; 97bc <gpio_set_function+0xd4>
    9764:	e5936010 	ldr	r6, [r3, #16]
    9768:	ea000003 	b	977c <gpio_set_function+0x94>
    976c:	e59f3048 	ldr	r3, [pc, #72]	; 97bc <gpio_set_function+0xd4>
    9770:	e5936014 	ldr	r6, [r3, #20]
    9774:	ea000000 	b	977c <gpio_set_function+0x94>
    9778:	e3a06000 	mov	r6, #0
    977c:	e1a00006 	mov	r0, r6
    9780:	eb000118 	bl	9be8 <get32>
    9784:	e59f302c 	ldr	r3, [pc, #44]	; 97b8 <gpio_set_function+0xd0>
    9788:	e0832493 	umull	r2, r3, r3, r4
    978c:	e1a031a3 	lsr	r3, r3, #3
    9790:	e0833103 	add	r3, r3, r3, lsl #2
    9794:	e1a03083 	lsl	r3, r3, #1
    9798:	e0633004 	rsb	r3, r3, r4
    979c:	e0833083 	add	r3, r3, r3, lsl #1
    97a0:	e3a01007 	mov	r1, #7
    97a4:	e1c01311 	bic	r1, r0, r1, lsl r3
    97a8:	e1a00006 	mov	r0, r6
    97ac:	e1811315 	orr	r1, r1, r5, lsl r3
    97b0:	eb000100 	bl	9bb8 <put32>
    97b4:	e8bd8070 	pop	{r4, r5, r6, pc}
    97b8:	cccccccd 	stclgt	12, cr12, [ip], {205}	; 0xcd
    97bc:	00009e48 	andeq	r9, r0, r8, asr #28

000097c0 <is_gpio_int>:
    97c0:	e92d4008 	push	{r3, lr}
    97c4:	e59f301c 	ldr	r3, [pc, #28]	; 97e8 <is_gpio_int+0x28>
    97c8:	e5930030 	ldr	r0, [r3, #48]	; 0x30
    97cc:	eb000105 	bl	9be8 <get32>
    97d0:	e3500000 	cmp	r0, #0
    97d4:	0a000001 	beq	97e0 <is_gpio_int+0x20>
    97d8:	e3a00001 	mov	r0, #1
    97dc:	e8bd8008 	pop	{r3, pc}
    97e0:	e3a00000 	mov	r0, #0
    97e4:	e8bd8008 	pop	{r3, pc}
    97e8:	00009e48 	andeq	r9, r0, r8, asr #28

000097ec <gpio_int_rising_edge>:
    97ec:	e92d4038 	push	{r3, r4, r5, lr}
    97f0:	e1a04000 	mov	r4, r0
    97f4:	e350001f 	cmp	r0, #31
    97f8:	88bd8038 	pophi	{r3, r4, r5, pc}
    97fc:	eb0000e7 	bl	9ba0 <dev_barrier>
    9800:	e354001f 	cmp	r4, #31
    9804:	8a000007 	bhi	9828 <gpio_int_rising_edge+0x3c>
    9808:	e59f505c 	ldr	r5, [pc, #92]	; 986c <gpio_int_rising_edge+0x80>
    980c:	e5950034 	ldr	r0, [r5, #52]	; 0x34
    9810:	eb0000f4 	bl	9be8 <get32>
    9814:	e3a01001 	mov	r1, #1
    9818:	e1801411 	orr	r1, r0, r1, lsl r4
    981c:	e5950034 	ldr	r0, [r5, #52]	; 0x34
    9820:	eb0000e4 	bl	9bb8 <put32>
    9824:	ea000007 	b	9848 <gpio_int_rising_edge+0x5c>
    9828:	e59f503c 	ldr	r5, [pc, #60]	; 986c <gpio_int_rising_edge+0x80>
    982c:	e5950038 	ldr	r0, [r5, #56]	; 0x38
    9830:	eb0000ec 	bl	9be8 <get32>
    9834:	e204401f 	and	r4, r4, #31
    9838:	e3a01001 	mov	r1, #1
    983c:	e1801411 	orr	r1, r0, r1, lsl r4
    9840:	e5950038 	ldr	r0, [r5, #56]	; 0x38
    9844:	eb0000db 	bl	9bb8 <put32>
    9848:	eb0000d4 	bl	9ba0 <dev_barrier>
    984c:	e59f4018 	ldr	r4, [pc, #24]	; 986c <gpio_int_rising_edge+0x80>
    9850:	e594003c 	ldr	r0, [r4, #60]	; 0x3c
    9854:	eb0000e3 	bl	9be8 <get32>
    9858:	e3801802 	orr	r1, r0, #131072	; 0x20000
    985c:	e594003c 	ldr	r0, [r4, #60]	; 0x3c
    9860:	eb0000d4 	bl	9bb8 <put32>
    9864:	eb0000cd 	bl	9ba0 <dev_barrier>
    9868:	e8bd8038 	pop	{r3, r4, r5, pc}
    986c:	00009e48 	andeq	r9, r0, r8, asr #28

00009870 <gpio_int_falling_edge>:
    9870:	e92d4038 	push	{r3, r4, r5, lr}
    9874:	e1a04000 	mov	r4, r0
    9878:	e350001f 	cmp	r0, #31
    987c:	88bd8038 	pophi	{r3, r4, r5, pc}
    9880:	eb0000c6 	bl	9ba0 <dev_barrier>
    9884:	e354001f 	cmp	r4, #31
    9888:	8a000007 	bhi	98ac <gpio_int_falling_edge+0x3c>
    988c:	e59f505c 	ldr	r5, [pc, #92]	; 98f0 <gpio_int_falling_edge+0x80>
    9890:	e5950040 	ldr	r0, [r5, #64]	; 0x40
    9894:	eb0000d3 	bl	9be8 <get32>
    9898:	e3a01001 	mov	r1, #1
    989c:	e1801411 	orr	r1, r0, r1, lsl r4
    98a0:	e5950040 	ldr	r0, [r5, #64]	; 0x40
    98a4:	eb0000c3 	bl	9bb8 <put32>
    98a8:	ea000007 	b	98cc <gpio_int_falling_edge+0x5c>
    98ac:	e59f503c 	ldr	r5, [pc, #60]	; 98f0 <gpio_int_falling_edge+0x80>
    98b0:	e5950044 	ldr	r0, [r5, #68]	; 0x44
    98b4:	eb0000cb 	bl	9be8 <get32>
    98b8:	e204401f 	and	r4, r4, #31
    98bc:	e3a01001 	mov	r1, #1
    98c0:	e1801411 	orr	r1, r0, r1, lsl r4
    98c4:	e5950044 	ldr	r0, [r5, #68]	; 0x44
    98c8:	eb0000ba 	bl	9bb8 <put32>
    98cc:	eb0000b3 	bl	9ba0 <dev_barrier>
    98d0:	e59f4018 	ldr	r4, [pc, #24]	; 98f0 <gpio_int_falling_edge+0x80>
    98d4:	e594003c 	ldr	r0, [r4, #60]	; 0x3c
    98d8:	eb0000c2 	bl	9be8 <get32>
    98dc:	e3801601 	orr	r1, r0, #1048576	; 0x100000
    98e0:	e594003c 	ldr	r0, [r4, #60]	; 0x3c
    98e4:	eb0000b3 	bl	9bb8 <put32>
    98e8:	eb0000ac 	bl	9ba0 <dev_barrier>
    98ec:	e8bd8038 	pop	{r3, r4, r5, pc}
    98f0:	00009e48 	andeq	r9, r0, r8, asr #28

000098f4 <gpio_event_detected>:
    98f4:	e92d4010 	push	{r4, lr}
    98f8:	e1a04000 	mov	r4, r0
    98fc:	e350001f 	cmp	r0, #31
    9900:	8a000019 	bhi	996c <gpio_event_detected+0x78>
    9904:	eb0000a5 	bl	9ba0 <dev_barrier>
    9908:	e354001f 	cmp	r4, #31
    990c:	8a000008 	bhi	9934 <gpio_event_detected+0x40>
    9910:	e59f305c 	ldr	r3, [pc, #92]	; 9974 <gpio_event_detected+0x80>
    9914:	e5930048 	ldr	r0, [r3, #72]	; 0x48
    9918:	eb0000b2 	bl	9be8 <get32>
    991c:	e3a03001 	mov	r3, #1
    9920:	e0103413 	ands	r3, r0, r3, lsl r4
    9924:	0a00000d 	beq	9960 <gpio_event_detected+0x6c>
    9928:	eb00009c 	bl	9ba0 <dev_barrier>
    992c:	e3a00001 	mov	r0, #1
    9930:	e8bd8010 	pop	{r4, pc}
    9934:	e59f3038 	ldr	r3, [pc, #56]	; 9974 <gpio_event_detected+0x80>
    9938:	e593004c 	ldr	r0, [r3, #76]	; 0x4c
    993c:	eb0000a9 	bl	9be8 <get32>
    9940:	e3a03001 	mov	r3, #1
    9944:	e0004413 	and	r4, r0, r3, lsl r4
    9948:	eb000094 	bl	9ba0 <dev_barrier>
    994c:	e3540000 	cmp	r4, #0
    9950:	0a000002 	beq	9960 <gpio_event_detected+0x6c>
    9954:	eb000091 	bl	9ba0 <dev_barrier>
    9958:	e3a00001 	mov	r0, #1
    995c:	e8bd8010 	pop	{r4, pc}
    9960:	eb00008e 	bl	9ba0 <dev_barrier>
    9964:	e3a00000 	mov	r0, #0
    9968:	e8bd8010 	pop	{r4, pc}
    996c:	e3e00000 	mvn	r0, #0
    9970:	e8bd8010 	pop	{r4, pc}
    9974:	00009e48 	andeq	r9, r0, r8, asr #28

00009978 <gpio_event_clear>:
    9978:	e92d4010 	push	{r4, lr}
    997c:	e1a04000 	mov	r4, r0
    9980:	e350001f 	cmp	r0, #31
    9984:	88bd8010 	pophi	{r4, pc}
    9988:	eb000084 	bl	9ba0 <dev_barrier>
    998c:	e354001f 	cmp	r4, #31
    9990:	8a000005 	bhi	99ac <gpio_event_clear+0x34>
    9994:	e59f3030 	ldr	r3, [pc, #48]	; 99cc <gpio_event_clear+0x54>
    9998:	e5930048 	ldr	r0, [r3, #72]	; 0x48
    999c:	e3a01001 	mov	r1, #1
    99a0:	e1a01411 	lsl	r1, r1, r4
    99a4:	eb000083 	bl	9bb8 <put32>
    99a8:	ea000005 	b	99c4 <gpio_event_clear+0x4c>
    99ac:	e204401f 	and	r4, r4, #31
    99b0:	e59f3014 	ldr	r3, [pc, #20]	; 99cc <gpio_event_clear+0x54>
    99b4:	e593004c 	ldr	r0, [r3, #76]	; 0x4c
    99b8:	e3a01001 	mov	r1, #1
    99bc:	e1a01411 	lsl	r1, r1, r4
    99c0:	eb00007c 	bl	9bb8 <put32>
    99c4:	eb000075 	bl	9ba0 <dev_barrier>
    99c8:	e8bd8010 	pop	{r4, pc}
    99cc:	00009e48 	andeq	r9, r0, r8, asr #28

000099d0 <int_init>:
    99d0:	e92d4008 	push	{r3, lr}
    99d4:	e59f004c 	ldr	r0, [pc, #76]	; 9a28 <int_init+0x58>
    99d8:	e3e01000 	mvn	r1, #0
    99dc:	eb000077 	bl	9bc0 <PUT32>
    99e0:	e59f0044 	ldr	r0, [pc, #68]	; 9a2c <int_init+0x5c>
    99e4:	e3e01000 	mvn	r1, #0
    99e8:	eb000074 	bl	9bc0 <PUT32>
    99ec:	eb00006b 	bl	9ba0 <dev_barrier>
    99f0:	e59f3038 	ldr	r3, [pc, #56]	; 9a30 <int_init+0x60>
    99f4:	e59f0038 	ldr	r0, [pc, #56]	; 9a34 <int_init+0x64>
    99f8:	e0630000 	rsb	r0, r3, r0
    99fc:	e1a00140 	asr	r0, r0, #2
    9a00:	e3a03000 	mov	r3, #0
    9a04:	e59fc024 	ldr	ip, [pc, #36]	; 9a30 <int_init+0x60>
    9a08:	ea000003 	b	9a1c <int_init+0x4c>
    9a0c:	e1a02103 	lsl	r2, r3, #2
    9a10:	e79c1103 	ldr	r1, [ip, r3, lsl #2]
    9a14:	e5821000 	str	r1, [r2]
    9a18:	e2833001 	add	r3, r3, #1
    9a1c:	e1530000 	cmp	r3, r0
    9a20:	3afffff9 	bcc	9a0c <int_init+0x3c>
    9a24:	e8bd8008 	pop	{r3, pc}
    9a28:	2000b21c 	andcs	fp, r0, ip, lsl r2
    9a2c:	2000b220 	andcs	fp, r0, r0, lsr #4
    9a30:	00009c24 	andeq	r9, r0, r4, lsr #24
    9a34:	00009c74 	andeq	r9, r0, r4, ror ip

00009a38 <fast_interrupt_vector>:
    9a38:	e52de004 	push	{lr}		; (str lr, [sp, #-4]!)
    9a3c:	e24dd00c 	sub	sp, sp, #12
    9a40:	e59f301c 	ldr	r3, [pc, #28]	; 9a64 <fast_interrupt_vector+0x2c>
    9a44:	e58d3000 	str	r3, [sp]
    9a48:	e58d0004 	str	r0, [sp, #4]
    9a4c:	e59f0014 	ldr	r0, [pc, #20]	; 9a68 <fast_interrupt_vector+0x30>
    9a50:	e59f1014 	ldr	r1, [pc, #20]	; 9a6c <fast_interrupt_vector+0x34>
    9a54:	e59f2014 	ldr	r2, [pc, #20]	; 9a70 <fast_interrupt_vector+0x38>
    9a58:	e3a03020 	mov	r3, #32
    9a5c:	ebfffcaf 	bl	8d20 <printk>
    9a60:	ebfffe15 	bl	92bc <clean_reboot>
    9a64:	0000a420 	andeq	sl, r0, r0, lsr #8
    9a68:	0000a3c4 	andeq	sl, r0, r4, asr #7
    9a6c:	0000a400 	andeq	sl, r0, r0, lsl #8
    9a70:	0000a334 	andeq	sl, r0, r4, lsr r3

00009a74 <software_interrupt_vector>:
    9a74:	e52de004 	push	{lr}		; (str lr, [sp, #-4]!)
    9a78:	e24dd00c 	sub	sp, sp, #12
    9a7c:	e59f301c 	ldr	r3, [pc, #28]	; 9aa0 <software_interrupt_vector+0x2c>
    9a80:	e58d3000 	str	r3, [sp]
    9a84:	e58d0004 	str	r0, [sp, #4]
    9a88:	e59f0014 	ldr	r0, [pc, #20]	; 9aa4 <software_interrupt_vector+0x30>
    9a8c:	e59f1014 	ldr	r1, [pc, #20]	; 9aa8 <software_interrupt_vector+0x34>
    9a90:	e59f2014 	ldr	r2, [pc, #20]	; 9aac <software_interrupt_vector+0x38>
    9a94:	e3a03025 	mov	r3, #37	; 0x25
    9a98:	ebfffca0 	bl	8d20 <printk>
    9a9c:	ebfffe06 	bl	92bc <clean_reboot>
    9aa0:	0000a428 	andeq	sl, r0, r8, lsr #8
    9aa4:	0000a3c4 	andeq	sl, r0, r4, asr #7
    9aa8:	0000a400 	andeq	sl, r0, r0, lsl #8
    9aac:	0000a34c 	andeq	sl, r0, ip, asr #6

00009ab0 <reset_vector>:
    9ab0:	e52de004 	push	{lr}		; (str lr, [sp, #-4]!)
    9ab4:	e24dd00c 	sub	sp, sp, #12
    9ab8:	e59f301c 	ldr	r3, [pc, #28]	; 9adc <reset_vector+0x2c>
    9abc:	e58d3000 	str	r3, [sp]
    9ac0:	e58d0004 	str	r0, [sp, #4]
    9ac4:	e59f0014 	ldr	r0, [pc, #20]	; 9ae0 <reset_vector+0x30>
    9ac8:	e59f1014 	ldr	r1, [pc, #20]	; 9ae4 <reset_vector+0x34>
    9acc:	e59f2014 	ldr	r2, [pc, #20]	; 9ae8 <reset_vector+0x38>
    9ad0:	e3a03028 	mov	r3, #40	; 0x28
    9ad4:	ebfffc91 	bl	8d20 <printk>
    9ad8:	ebfffdf7 	bl	92bc <clean_reboot>
    9adc:	0000a438 	andeq	sl, r0, r8, lsr r4
    9ae0:	0000a3c4 	andeq	sl, r0, r4, asr #7
    9ae4:	0000a400 	andeq	sl, r0, r0, lsl #8
    9ae8:	0000a368 	andeq	sl, r0, r8, ror #6

00009aec <undefined_instruction_vector>:
    9aec:	e52de004 	push	{lr}		; (str lr, [sp, #-4]!)
    9af0:	e24dd00c 	sub	sp, sp, #12
    9af4:	e59f301c 	ldr	r3, [pc, #28]	; 9b18 <undefined_instruction_vector+0x2c>
    9af8:	e58d3000 	str	r3, [sp]
    9afc:	e58d0004 	str	r0, [sp, #4]
    9b00:	e59f0014 	ldr	r0, [pc, #20]	; 9b1c <undefined_instruction_vector+0x30>
    9b04:	e59f1014 	ldr	r1, [pc, #20]	; 9b20 <undefined_instruction_vector+0x34>
    9b08:	e59f2014 	ldr	r2, [pc, #20]	; 9b24 <undefined_instruction_vector+0x38>
    9b0c:	e3a0302b 	mov	r3, #43	; 0x2b
    9b10:	ebfffc82 	bl	8d20 <printk>
    9b14:	ebfffde8 	bl	92bc <clean_reboot>
    9b18:	0000a448 	andeq	sl, r0, r8, asr #8
    9b1c:	0000a3c4 	andeq	sl, r0, r4, asr #7
    9b20:	0000a400 	andeq	sl, r0, r0, lsl #8
    9b24:	0000a378 	andeq	sl, r0, r8, ror r3

00009b28 <prefetch_abort_vector>:
    9b28:	e52de004 	push	{lr}		; (str lr, [sp, #-4]!)
    9b2c:	e24dd00c 	sub	sp, sp, #12
    9b30:	e59f301c 	ldr	r3, [pc, #28]	; 9b54 <prefetch_abort_vector+0x2c>
    9b34:	e58d3000 	str	r3, [sp]
    9b38:	e58d0004 	str	r0, [sp, #4]
    9b3c:	e59f0014 	ldr	r0, [pc, #20]	; 9b58 <prefetch_abort_vector+0x30>
    9b40:	e59f1014 	ldr	r1, [pc, #20]	; 9b5c <prefetch_abort_vector+0x34>
    9b44:	e59f2014 	ldr	r2, [pc, #20]	; 9b60 <prefetch_abort_vector+0x38>
    9b48:	e3a0302e 	mov	r3, #46	; 0x2e
    9b4c:	ebfffc73 	bl	8d20 <printk>
    9b50:	ebfffdd9 	bl	92bc <clean_reboot>
    9b54:	0000a460 	andeq	sl, r0, r0, ror #8
    9b58:	0000a3c4 	andeq	sl, r0, r4, asr #7
    9b5c:	0000a400 	andeq	sl, r0, r0, lsl #8
    9b60:	0000a398 	muleq	r0, r8, r3

00009b64 <data_abort_vector>:
    9b64:	e52de004 	push	{lr}		; (str lr, [sp, #-4]!)
    9b68:	e24dd00c 	sub	sp, sp, #12
    9b6c:	e59f301c 	ldr	r3, [pc, #28]	; 9b90 <data_abort_vector+0x2c>
    9b70:	e58d3000 	str	r3, [sp]
    9b74:	e58d0004 	str	r0, [sp, #4]
    9b78:	e59f0014 	ldr	r0, [pc, #20]	; 9b94 <data_abort_vector+0x30>
    9b7c:	e59f1014 	ldr	r1, [pc, #20]	; 9b98 <data_abort_vector+0x34>
    9b80:	e59f2014 	ldr	r2, [pc, #20]	; 9b9c <data_abort_vector+0x38>
    9b84:	e3a03031 	mov	r3, #49	; 0x31
    9b88:	ebfffc64 	bl	8d20 <printk>
    9b8c:	ebfffdca 	bl	92bc <clean_reboot>
    9b90:	0000a470 	andeq	sl, r0, r0, ror r4
    9b94:	0000a3c4 	andeq	sl, r0, r4, asr #7
    9b98:	0000a400 	andeq	sl, r0, r0, lsl #8
    9b9c:	0000a3b0 			; <UNDEFINED> instruction: 0x0000a3b0

00009ba0 <dev_barrier>:
    9ba0:	ea000002 	b	9bb0 <dsb>

00009ba4 <dmb>:
    9ba4:	e3a00000 	mov	r0, #0
    9ba8:	ee070fba 	mcr	15, 0, r0, cr7, cr10, {5}
    9bac:	e12fff1e 	bx	lr

00009bb0 <dsb>:
    9bb0:	ee070f9a 	mcr	15, 0, r0, cr7, cr10, {4}
    9bb4:	e12fff1e 	bx	lr

00009bb8 <put32>:
    9bb8:	e5801000 	str	r1, [r0]
    9bbc:	e12fff1e 	bx	lr

00009bc0 <PUT32>:
    9bc0:	e5801000 	str	r1, [r0]
    9bc4:	e12fff1e 	bx	lr

00009bc8 <put16>:
    9bc8:	e1c010b0 	strh	r1, [r0]
    9bcc:	e12fff1e 	bx	lr

00009bd0 <PUT16>:
    9bd0:	e1c010b0 	strh	r1, [r0]
    9bd4:	e12fff1e 	bx	lr

00009bd8 <put8>:
    9bd8:	e5c01000 	strb	r1, [r0]
    9bdc:	e12fff1e 	bx	lr

00009be0 <PUT8>:
    9be0:	e5c01000 	strb	r1, [r0]
    9be4:	e12fff1e 	bx	lr

00009be8 <get32>:
    9be8:	e5900000 	ldr	r0, [r0]
    9bec:	e12fff1e 	bx	lr

00009bf0 <GET32>:
    9bf0:	e5900000 	ldr	r0, [r0]
    9bf4:	e12fff1e 	bx	lr

00009bf8 <GETPC>:
    9bf8:	e1a0000e 	mov	r0, lr
    9bfc:	e12fff1e 	bx	lr

00009c00 <dummy>:
    9c00:	e12fff1e 	bx	lr

00009c04 <system_enable_interrupts>:
    9c04:	e10f0000 	mrs	r0, CPSR
    9c08:	e3c00080 	bic	r0, r0, #128	; 0x80
    9c0c:	e121f000 	msr	CPSR_c, r0
    9c10:	e12fff1e 	bx	lr

00009c14 <system_disable_interrupts>:
    9c14:	e10f0000 	mrs	r0, CPSR
    9c18:	e3800080 	orr	r0, r0, #128	; 0x80
    9c1c:	e121f000 	msr	CPSR_c, r0
    9c20:	e12fff1e 	bx	lr

00009c24 <_interrupt_table>:
    9c24:	e59ff030 	ldr	pc, [pc, #48]	; 9c5c <_reset_asm>
    9c28:	e59ff030 	ldr	pc, [pc, #48]	; 9c60 <_undefined_instruction_asm>
    9c2c:	e59ff030 	ldr	pc, [pc, #48]	; 9c64 <_software_interrupt_asm>
    9c30:	e59ff030 	ldr	pc, [pc, #48]	; 9c68 <_prefetch_abort_asm>
    9c34:	e59ff030 	ldr	pc, [pc, #48]	; 9c6c <_data_abort_asm>
    9c38:	e59ff01c 	ldr	pc, [pc, #28]	; 9c5c <_reset_asm>
    9c3c:	e59ff02c 	ldr	pc, [pc, #44]	; 9c70 <_interrupt_asm>

00009c40 <fast_interrupt_asm>:
    9c40:	e24ee004 	sub	lr, lr, #4
    9c44:	e52de004 	push	{lr}		; (str lr, [sp, #-4]!)
    9c48:	e92d1fff 	push	{r0, r1, r2, r3, r4, r5, r6, r7, r8, r9, sl, fp, ip}
    9c4c:	e1a0000e 	mov	r0, lr
    9c50:	ebffff78 	bl	9a38 <fast_interrupt_vector>
    9c54:	e8bd1fff 	pop	{r0, r1, r2, r3, r4, r5, r6, r7, r8, r9, sl, fp, ip}
    9c58:	e8fd8000 	ldm	sp!, {pc}^

00009c5c <_reset_asm>:
    9c5c:	00009cbc 			; <UNDEFINED> instruction: 0x00009cbc

00009c60 <_undefined_instruction_asm>:
    9c60:	00009cc4 	andeq	r9, r0, r4, asr #25

00009c64 <_software_interrupt_asm>:
    9c64:	00009c90 	muleq	r0, r0, ip

00009c68 <_prefetch_abort_asm>:
    9c68:	00009ccc 	andeq	r9, r0, ip, asr #25

00009c6c <_data_abort_asm>:
    9c6c:	00009cd4 	ldrdeq	r9, [r0], -r4

00009c70 <_interrupt_asm>:
    9c70:	00009c74 	andeq	r9, r0, r4, ror ip

00009c74 <_interrupt_table_end>:
    9c74:	e3a0d409 	mov	sp, #150994944	; 0x9000000
    9c78:	e24ee004 	sub	lr, lr, #4
    9c7c:	e92d5fff 	push	{r0, r1, r2, r3, r4, r5, r6, r7, r8, r9, sl, fp, ip, lr}
    9c80:	e1a0000e 	mov	r0, lr
    9c84:	ebfffa59 	bl	85f0 <interrupt_vector>
    9c88:	e8bd5fff 	pop	{r0, r1, r2, r3, r4, r5, r6, r7, r8, r9, sl, fp, ip, lr}
    9c8c:	e1b0f00e 	movs	pc, lr

00009c90 <software_interrupt_asm>:
    9c90:	e52de004 	push	{lr}		; (str lr, [sp, #-4]!)
    9c94:	e92d1ffe 	push	{r1, r2, r3, r4, r5, r6, r7, r8, r9, sl, fp, ip}
    9c98:	e24ee004 	sub	lr, lr, #4
    9c9c:	e1a0200e 	mov	r2, lr
    9ca0:	e1a01000 	mov	r1, r0
    9ca4:	e1a0000e 	mov	r0, lr
    9ca8:	eb000003 	bl	9cbc <reset_asm>
    9cac:	e8bd1ffe 	pop	{r1, r2, r3, r4, r5, r6, r7, r8, r9, sl, fp, ip}
    9cb0:	e49de004 	pop	{lr}		; (ldr lr, [sp], #4)
    9cb4:	e8fd8000 	ldm	sp!, {pc}^
    9cb8:	e1b0f00e 	movs	pc, lr

00009cbc <reset_asm>:
    9cbc:	e24ee004 	sub	lr, lr, #4
    9cc0:	ebffff7a 	bl	9ab0 <reset_vector>

00009cc4 <undefined_instruction_asm>:
    9cc4:	e24ee004 	sub	lr, lr, #4
    9cc8:	ebffff87 	bl	9aec <undefined_instruction_vector>

00009ccc <prefetch_abort_asm>:
    9ccc:	e24ee004 	sub	lr, lr, #4
    9cd0:	ebffff94 	bl	9b28 <prefetch_abort_vector>

00009cd4 <data_abort_asm>:
    9cd4:	e24ee004 	sub	lr, lr, #4
    9cd8:	ebffffa1 	bl	9b64 <data_abort_vector>

00009cdc <uart_can_getc>:
    9cdc:	e92d4008 	push	{r3, lr}
    9ce0:	e59f300c 	ldr	r3, [pc, #12]	; 9cf4 <uart_can_getc+0x18>
    9ce4:	e5930000 	ldr	r0, [r3]
    9ce8:	ebffffbe 	bl	9be8 <get32>
    9cec:	e2000001 	and	r0, r0, #1
    9cf0:	e8bd8008 	pop	{r3, pc}
    9cf4:	00009ea8 	andeq	r9, r0, r8, lsr #29

00009cf8 <uart_init>:
    9cf8:	e92d4038 	push	{r3, r4, r5, lr}
    9cfc:	ebffffa7 	bl	9ba0 <dev_barrier>
    9d00:	e3a0000e 	mov	r0, #14
    9d04:	e3a01002 	mov	r1, #2
    9d08:	ebfffe76 	bl	96e8 <gpio_set_function>
    9d0c:	e3a0000f 	mov	r0, #15
    9d10:	e3a01002 	mov	r1, #2
    9d14:	ebfffe73 	bl	96e8 <gpio_set_function>
    9d18:	ebffffa0 	bl	9ba0 <dev_barrier>
    9d1c:	e59f4068 	ldr	r4, [pc, #104]	; 9d8c <uart_init+0x94>
    9d20:	e5945004 	ldr	r5, [r4, #4]
    9d24:	e1a00005 	mov	r0, r5
    9d28:	ebffffae 	bl	9be8 <get32>
    9d2c:	e3801001 	orr	r1, r0, #1
    9d30:	e1a00005 	mov	r0, r5
    9d34:	ebffff9f 	bl	9bb8 <put32>
    9d38:	ebffff98 	bl	9ba0 <dev_barrier>
    9d3c:	e5940008 	ldr	r0, [r4, #8]
    9d40:	e3a01000 	mov	r1, #0
    9d44:	ebffff9b 	bl	9bb8 <put32>
    9d48:	e594000c 	ldr	r0, [r4, #12]
    9d4c:	e3a01000 	mov	r1, #0
    9d50:	ebffff98 	bl	9bb8 <put32>
    9d54:	e5940010 	ldr	r0, [r4, #16]
    9d58:	e3a01006 	mov	r1, #6
    9d5c:	ebffff95 	bl	9bb8 <put32>
    9d60:	e5940014 	ldr	r0, [r4, #20]
    9d64:	e3a01003 	mov	r1, #3
    9d68:	ebffff92 	bl	9bb8 <put32>
    9d6c:	e5940018 	ldr	r0, [r4, #24]
    9d70:	e59f1018 	ldr	r1, [pc, #24]	; 9d90 <uart_init+0x98>
    9d74:	ebffff8f 	bl	9bb8 <put32>
    9d78:	e5940008 	ldr	r0, [r4, #8]
    9d7c:	e3a01003 	mov	r1, #3
    9d80:	ebffff8c 	bl	9bb8 <put32>
    9d84:	ebffff85 	bl	9ba0 <dev_barrier>
    9d88:	e8bd8038 	pop	{r3, r4, r5, pc}
    9d8c:	00009ea8 	andeq	r9, r0, r8, lsr #29
    9d90:	0000010e 	andeq	r0, r0, lr, lsl #2

00009d94 <uart_getc>:
    9d94:	e92d4008 	push	{r3, lr}
    9d98:	ebffffcf 	bl	9cdc <uart_can_getc>
    9d9c:	e3500000 	cmp	r0, #0
    9da0:	0afffffc 	beq	9d98 <uart_getc+0x4>
    9da4:	e59f300c 	ldr	r3, [pc, #12]	; 9db8 <uart_getc+0x24>
    9da8:	e593001c 	ldr	r0, [r3, #28]
    9dac:	ebffff8d 	bl	9be8 <get32>
    9db0:	e6ef0070 	uxtb	r0, r0
    9db4:	e8bd8008 	pop	{r3, pc}
    9db8:	00009ea8 	andeq	r9, r0, r8, lsr #29

00009dbc <uart_can_putc>:
    9dbc:	e92d4008 	push	{r3, lr}
    9dc0:	e59f300c 	ldr	r3, [pc, #12]	; 9dd4 <uart_can_putc+0x18>
    9dc4:	e5930000 	ldr	r0, [r3]
    9dc8:	ebffff86 	bl	9be8 <get32>
    9dcc:	e2000020 	and	r0, r0, #32
    9dd0:	e8bd8008 	pop	{r3, pc}
    9dd4:	00009ea8 	andeq	r9, r0, r8, lsr #29

00009dd8 <uart_putc>:
    9dd8:	e92d4010 	push	{r4, lr}
    9ddc:	e1a04000 	mov	r4, r0
    9de0:	ebfffff5 	bl	9dbc <uart_can_putc>
    9de4:	e3500000 	cmp	r0, #0
    9de8:	0afffffc 	beq	9de0 <uart_putc+0x8>
    9dec:	e59f300c 	ldr	r3, [pc, #12]	; 9e00 <uart_putc+0x28>
    9df0:	e593001c 	ldr	r0, [r3, #28]
    9df4:	e1a01004 	mov	r1, r4
    9df8:	ebffff6e 	bl	9bb8 <put32>
    9dfc:	e8bd8010 	pop	{r4, pc}
    9e00:	00009ea8 	andeq	r9, r0, r8, lsr #29

00009e04 <uart_has_data>:
    9e04:	e92d4008 	push	{r3, lr}
    9e08:	ebffffb3 	bl	9cdc <uart_can_getc>
    9e0c:	e8bd8008 	pop	{r3, pc}

00009e10 <uart_getc_async>:
    9e10:	e92d4008 	push	{r3, lr}
    9e14:	ebfffffa 	bl	9e04 <uart_has_data>
    9e18:	e3500000 	cmp	r0, #0
    9e1c:	0a000001 	beq	9e28 <uart_getc_async+0x18>
    9e20:	ebffffdb 	bl	9d94 <uart_getc>
    9e24:	e8bd8008 	pop	{r3, pc}
    9e28:	e3e00000 	mvn	r0, #0
    9e2c:	e8bd8008 	pop	{r3, pc}

00009e30 <internal_putchar>:
    9e30:	e92d4010 	push	{r4, lr}
    9e34:	e1a04000 	mov	r4, r0
    9e38:	ebffffe6 	bl	9dd8 <uart_putc>
    9e3c:	e1a00004 	mov	r0, r4
    9e40:	e8bd8010 	pop	{r4, pc}

Disassembly of section .data:

00009e44 <putk>:
    9e44:	00008d78 	andeq	r8, r0, r8, ror sp

00009e48 <GPFSEL0>:
    9e48:	20200000 	eorcs	r0, r0, r0

00009e4c <GPFSEL1>:
    9e4c:	20200004 	eorcs	r0, r0, r4

00009e50 <GPFSEL2>:
    9e50:	20200008 	eorcs	r0, r0, r8

00009e54 <GPFSEL3>:
    9e54:	2020000c 	eorcs	r0, r0, ip

00009e58 <GPFSEL4>:
    9e58:	20200010 	eorcs	r0, r0, r0, lsl r0

00009e5c <GPFSEL5>:
    9e5c:	20200014 	eorcs	r0, r0, r4, lsl r0

00009e60 <GPSET0>:
    9e60:	2020001c 	eorcs	r0, r0, ip, lsl r0

00009e64 <GPSET1>:
    9e64:	20200020 	eorcs	r0, r0, r0, lsr #32

00009e68 <GPCLR0>:
    9e68:	20200028 	eorcs	r0, r0, r8, lsr #32

00009e6c <GPCLR1>:
    9e6c:	2020002c 	eorcs	r0, r0, ip, lsr #32

00009e70 <GPLEV0>:
    9e70:	20200034 	eorcs	r0, r0, r4, lsr r0

00009e74 <GPLEV1>:
    9e74:	20200038 	eorcs	r0, r0, r8, lsr r0

00009e78 <IRQ_PENDING_2>:
    9e78:	2000b208 	andcs	fp, r0, r8, lsl #4

00009e7c <GPREN0>:
    9e7c:	2020004c 	eorcs	r0, r0, ip, asr #32

00009e80 <GPREN1>:
    9e80:	20200050 	eorcs	r0, r0, r0, asr r0

00009e84 <ENABLE_IRQS_2>:
    9e84:	2000b214 	andcs	fp, r0, r4, lsl r2

00009e88 <GPFEN0>:
    9e88:	20200058 	eorcs	r0, r0, r8, asr r0

00009e8c <GPFEN1>:
    9e8c:	2020005c 	eorcs	r0, r0, ip, asr r0

00009e90 <GPEDS0>:
    9e90:	20200040 	eorcs	r0, r0, r0, asr #32

00009e94 <GPEDS1>:
    9e94:	20200044 	eorcs	r0, r0, r4, asr #32

00009e98 <IRQ_PENDING_1>:
    9e98:	2000b204 	andcs	fp, r0, r4, lsl #4

00009e9c <gpio_clr0>:
    9e9c:	20200028 	eorcs	r0, r0, r8, lsr #32

00009ea0 <gpio_set0>:
    9ea0:	2020001c 	eorcs	r0, r0, ip, lsl r0

00009ea4 <gpio_fsel0>:
    9ea4:	20200000 	eorcs	r0, r0, r0

00009ea8 <AUX_MU_LSR_REG>:
    9ea8:	20215054 	eorcs	r5, r1, r4, asr r0

00009eac <AUX_ENABLES>:
    9eac:	20215004 	eorcs	r5, r1, r4

00009eb0 <AUX_MU_CNTL_REG>:
    9eb0:	20215060 	eorcs	r5, r1, r0, rrx

00009eb4 <AUX_MU_IER_REG>:
    9eb4:	20215044 	eorcs	r5, r1, r4, asr #32

00009eb8 <AUX_MU_IIR_REG>:
    9eb8:	20215048 	eorcs	r5, r1, r8, asr #32

00009ebc <AUX_MU_LCR_REG>:
    9ebc:	2021504c 	eorcs	r5, r1, ip, asr #32

00009ec0 <AUX_MU_BAUD_REG>:
    9ec0:	20215068 	eorcs	r5, r1, r8, rrx

00009ec4 <AUX_MU_IO_REG>:
    9ec4:	20215040 	eorcs	r5, r1, r0, asr #32

00009ec8 <AUX_MU_STAT_REG>:
    9ec8:	20215064 	eorcs	r5, r1, r4, rrx

00009ecc <AUX_MU_SCRATCH>:
    9ecc:	2021505c 	eorcs	r5, r1, ip, asr r0

00009ed0 <AUX_MU_MSR_REG>:
    9ed0:	20215058 	eorcs	r5, r1, r8, asr r0

00009ed4 <AUX_MU_MCR_REG>:
    9ed4:	20215050 	eorcs	r5, r1, r0, asr r0

00009ed8 <AUX_IRQ>:
    9ed8:	20215000 	eorcs	r5, r1, r0

00009edc <rpi_putchar>:
    9edc:	00009e30 	andeq	r9, r0, r0, lsr lr

Disassembly of section .rodata:

00009ee0 <__FUNCTION__.4381>:
    9ee0:	755f7773 	ldrbvc	r7, [pc, #-1907]	; 9775 <gpio_set_function+0x8d>
    9ee4:	5f747261 	svcpl	0x00747261
    9ee8:	73746567 	cmnvc	r4, #432013312	; 0x19c00000
    9eec:	746e755f 	strbtvc	r7, [lr], #-1375	; 0x55f
    9ef0:	00006c69 	andeq	r6, r0, r9, ror #24

00009ef4 <__FUNCTION__.4393>:
    9ef4:	755f7773 	ldrbvc	r7, [pc, #-1907]	; 9789 <gpio_set_function+0xa1>
    9ef8:	5f747261 	svcpl	0x00747261
    9efc:	73746567 	cmnvc	r4, #432013312	; 0x19c00000
    9f00:	6d69745f 	cfstrdvs	mvd7, [r9, #-380]!	; 0xfffffe84
    9f04:	74756f65 	ldrbtvc	r6, [r5], #-3941	; 0xf65
    9f08:	00000000 	andeq	r0, r0, r0

00009f0c <__FUNCTION__.4407>:
    9f0c:	755f7773 	ldrbvc	r7, [pc, #-1907]	; 97a1 <gpio_set_function+0xb9>
    9f10:	5f747261 	svcpl	0x00747261
    9f14:	74696e69 	strbtvc	r6, [r9], #-3689	; 0xe69
    9f18:	6c65685f 	stclvs	8, cr6, [r5], #-380	; 0xfffffe84
    9f1c:	00726570 	rsbseq	r6, r2, r0, ror r5

00009f20 <__FUNCTION__.4413>:
    9f20:	755f7773 	ldrbvc	r7, [pc, #-1907]	; 97b5 <gpio_set_function+0xcd>
    9f24:	5f747261 	svcpl	0x00747261
    9f28:	63746567 	cmnvs	r4, #432013312	; 0x19c00000
    9f2c:	00000000 	andeq	r0, r0, r0

00009f30 <__FUNCTION__.4435>:
    9f30:	755f7773 	ldrbvc	r7, [pc, #-1907]	; 97c5 <is_gpio_int+0x5>
    9f34:	5f747261 	svcpl	0x00747261
    9f38:	6e697270 	mcrvs	2, 3, r7, cr9, cr0, {3}
    9f3c:	00006b74 	andeq	r6, r0, r4, ror fp

00009f40 <__FUNCTION__.4443>:
    9f40:	755f7773 	ldrbvc	r7, [pc, #-1907]	; 97d5 <is_gpio_int+0x15>
    9f44:	5f747261 	svcpl	0x00747261
    9f48:	73746567 	cmnvc	r4, #432013312	; 0x19c00000
    9f4c:	746e755f 	strbtvc	r7, [lr], #-1375	; 0x55f
    9f50:	625f6c69 	subsvs	r6, pc, #26880	; 0x6900
    9f54:	00006b6c 	andeq	r6, r0, ip, ror #22

00009f58 <__FUNCTION__.4447>:
    9f58:	65746e69 	ldrbvs	r6, [r4, #-3689]!	; 0xe69
    9f5c:	70757272 	rsbsvc	r7, r5, r2, ror r2
    9f60:	65765f74 	ldrbvs	r5, [r6, #-3956]!	; 0xf74
    9f64:	726f7463 	rsbvc	r7, pc, #1660944384	; 0x63000000
    9f68:	00000000 	andeq	r0, r0, r0
    9f6c:	494e4150 	stmdbmi	lr, {r4, r6, r8, lr}^
    9f70:	73253a43 	teqvc	r5, #274432	; 0x43000
    9f74:	3a73253a 	bcc	1cd3464 <__bss_end__+0x1cc6bac>
    9f78:	6e3a6425 	cdpvs	4, 3, cr6, cr10, cr5, {1}
    9f7c:	65747962 	ldrbvs	r7, [r4, #-2402]!	; 0x962
    9f80:	0a303e73 	beq	c19954 <__bss_end__+0xc0d09c>
    9f84:	00000000 	andeq	r0, r0, r0
    9f88:	70672d31 	rsbvc	r2, r7, r1, lsr sp
    9f8c:	692d6f69 	pushvs	{r0, r3, r5, r6, r8, r9, sl, fp, sp, lr}
    9f90:	652d746e 	strvs	r7, [sp, #-1134]!	; 0x46e
    9f94:	00632e78 	rsbeq	r2, r3, r8, ror lr
    9f98:	494e4150 	stmdbmi	lr, {r4, r6, r8, lr}^
    9f9c:	73253a43 	teqvc	r5, #274432	; 0x43000
    9fa0:	3a73253a 	bcc	1cd3490 <__bss_end__+0x1cc6bd8>
    9fa4:	283a6425 	ldmdacs	sl!, {r0, r2, r5, sl, sp, lr}
    9fa8:	207a686d 	rsbscs	r6, sl, sp, ror #16
    9fac:	6162202d 	cmnvs	r2, sp, lsr #32
    9fb0:	20296475 	eorcs	r6, r9, r5, ror r4
    9fb4:	64203d3c 	strtvs	r3, [r0], #-3388	; 0xd3c
    9fb8:	76697265 	strbtvc	r7, [r9], -r5, ror #4
    9fbc:	26206465 	strtcs	r6, [r0], -r5, ror #8
    9fc0:	65642026 	strbvs	r2, [r4, #-38]!	; 0x26
    9fc4:	65766972 	ldrbvs	r6, [r6, #-2418]!	; 0x972
    9fc8:	3d3c2064 	ldccc	0, cr2, [ip, #-400]!	; 0xfffffe70
    9fcc:	686d2820 	stmdavs	sp!, {r5, fp, sp}^
    9fd0:	202b207a 	eorcs	r2, fp, sl, ror r0
    9fd4:	64756162 	ldrbtvs	r6, [r5], #-354	; 0x162
    9fd8:	00000a29 	andeq	r0, r0, r9, lsr #20
    9fdc:	494e4150 	stmdbmi	lr, {r4, r6, r8, lr}^
    9fe0:	73253a43 	teqvc	r5, #274432	; 0x43000
    9fe4:	3a73253a 	bcc	1cd34d4 <__bss_end__+0x1cc6c1c>
    9fe8:	693a6425 	ldmdbvs	sl!, {r0, r2, r5, sl, sp, lr}
    9fec:	736f706d 	cmnvc	pc, #109	; 0x6d
    9ff0:	6c626973 	stclvs	9, cr6, [r2], #-460	; 0xfffffe34
    9ff4:	68203a65 	stmdavs	r0!, {r0, r2, r5, r6, r9, fp, ip, sp}
    9ff8:	20657661 	rsbcs	r7, r5, r1, ror #12
    9ffc:	69206e61 	stmdbvs	r0!, {r0, r5, r6, r9, sl, fp, sp, lr}
    a000:	6e69666e 	cdpvs	6, 6, cr6, cr9, cr14, {3}
    a004:	20657469 	rsbcs	r7, r5, r9, ror #8
    a008:	656d6974 	strbvs	r6, [sp, #-2420]!	; 0x974
    a00c:	2174756f 	cmncs	r4, pc, ror #10
    a010:	00000a0a 	andeq	r0, r0, sl, lsl #20
    a014:	494e4150 	stmdbmi	lr, {r4, r6, r8, lr}^
    a018:	73253a43 	teqvc	r5, #274432	; 0x43000
    a01c:	3a73253a 	bcc	1cd350c <__bss_end__+0x1cc6c54>
    a020:	733a6425 	teqvc	sl, #620756992	; 0x25000000
    a024:	203c207a 	eorscs	r2, ip, sl, ror r0
    a028:	657a6973 	ldrbvs	r6, [sl, #-2419]!	; 0x973
    a02c:	6220666f 	eorvs	r6, r0, #116391936	; 0x6f00000
    a030:	312d6675 	teqcc	sp, r5, ror r6
    a034:	0000000a 	andeq	r0, r0, sl
    a038:	494e4150 	stmdbmi	lr, {r4, r6, r8, lr}^
    a03c:	73253a43 	teqvc	r5, #274432	; 0x43000
    a040:	3a73253a 	bcc	1cd3530 <__bss_end__+0x1cc6c78>
    a044:	0a3a6425 	beq	ea30e0 <__bss_end__+0xe96828>
    a048:	00000000 	andeq	r0, r0, r0
    a04c:	756f6853 	strbvc	r6, [pc, #-2131]!	; 9801 <gpio_int_rising_edge+0x15>
    a050:	7320646c 	teqvc	r0, #108, 8	; 0x6c000000
    a054:	73206565 	teqvc	r0, #423624704	; 0x19400000
    a058:	20656d6f 	rsbcs	r6, r5, pc, ror #26
    a05c:	7074756f 	rsbsvc	r7, r4, pc, ror #10
    a060:	000a7475 	andeq	r7, sl, r5, ror r4
    a064:	79206f44 	stmdbvc	r0!, {r2, r6, r8, r9, sl, fp, sp, lr}
    a068:	7320756f 	teqvc	r0, #465567744	; 0x1bc00000
    a06c:	6d206565 	cfstr32vs	mvfx6, [r0, #-404]!	; 0xfffffe6c
    a070:	000a3f65 	andeq	r3, sl, r5, ror #30
    a074:	72617453 	rsbvc	r7, r1, #1392508928	; 0x53000000
    a078:	79742074 	ldmdbvc	r4!, {r2, r4, r5, r6, sp}^
    a07c:	676e6970 			; <UNDEFINED> instruction: 0x676e6970
    a080:	0000000a 	andeq	r0, r0, sl

0000a084 <__FUNCTION__.4218>:
    a084:	705f7163 	subsvc	r7, pc, r3, ror #2
    a088:	746e6972 	strbtvc	r6, [lr], #-2418	; 0x972
    a08c:	00000000 	andeq	r0, r0, r0

0000a090 <__FUNCTION__.4222>:
    a090:	6f5f7163 	svcvs	0x005f7163
    a094:	0000006b 	andeq	r0, r0, fp, rrx

0000a098 <__FUNCTION__.4227>:
    a098:	695f7163 	ldmdbvs	pc, {r0, r1, r5, r6, r8, ip, sp, lr}^	; <UNPREDICTABLE>
    a09c:	0074696e 	rsbseq	r6, r4, lr, ror #18

0000a0a0 <__FUNCTION__.4241>:
    a0a0:	705f7163 	subsvc	r7, pc, r3, ror #2
    a0a4:	5f6b6565 	svcpl	0x006b6565
    a0a8:	0000006e 	andeq	r0, r0, lr, rrx

0000a0ac <__FUNCTION__.4266>:
    a0ac:	705f7163 	subsvc	r7, pc, r3, ror #2
    a0b0:	5f687375 	svcpl	0x00687375
    a0b4:	0000006e 	andeq	r0, r0, lr, rrx
    a0b8:	253a7325 	ldrcs	r7, [sl, #-805]!	; 0x325
    a0bc:	64253a73 	strtvs	r3, [r5], #-2675	; 0xa73
    a0c0:	2071633a 	rsbscs	r6, r1, sl, lsr r3
    a0c4:	6e697270 	mcrvs	2, 3, r7, cr9, cr0, {3}
    a0c8:	68203a74 	stmdavs	r0!, {r2, r4, r5, r6, r9, fp, ip, sp}
    a0cc:	3d646165 	stfcce	f6, [r4, #-404]!	; 0xfffffe6c
    a0d0:	202c6425 	eorcs	r6, ip, r5, lsr #8
    a0d4:	6c696174 	stfvse	f6, [r9], #-464	; 0xfffffe30
    a0d8:	2c64253d 	cfstr64cs	mvdx2, [r4], #-244	; 0xffffff0c
    a0dc:	6c656e20 	stclvs	14, cr6, [r5], #-128	; 0xffffff80
    a0e0:	253d6d65 	ldrcs	r6, [sp, #-3429]!	; 0xd65
    a0e4:	65202c64 	strvs	r2, [r0, #-3172]!	; 0xc64
    a0e8:	7974706d 	ldmdbvc	r4!, {r0, r2, r3, r5, r6, ip, sp, lr}^
    a0ec:	0a64253d 	beq	19135e8 <__bss_end__+0x1906d30>
    a0f0:	00000000 	andeq	r0, r0, r0
    a0f4:	6362696c 	cmnvs	r2, #108, 18	; 0x1b0000
    a0f8:	7269632f 	rsbvc	r6, r9, #-1140850688	; 0xbc000000
    a0fc:	616c7563 	cmnvs	ip, r3, ror #10
    a100:	00632e72 	rsbeq	r2, r3, r2, ror lr
    a104:	494e4150 	stmdbmi	lr, {r4, r6, r8, lr}^
    a108:	73253a43 	teqvc	r5, #274432	; 0x43000
    a10c:	3a73253a 	bcc	1cd35fc <__bss_end__+0x1cc6d44>
    a110:	663a6425 	ldrtvs	r6, [sl], -r5, lsr #8
    a114:	65636e65 	strbvs	r6, [r3, #-3685]!	; 0xe65
    a118:	20736920 	rsbscs	r6, r3, r0, lsr #18
    a11c:	72726f63 	rsbsvc	r6, r2, #396	; 0x18c
    a120:	65747075 	ldrbvs	r7, [r4, #-117]!	; 0x75
    a124:	000a0a64 	andeq	r0, sl, r4, ror #20
    a128:	494e4150 	stmdbmi	lr, {r4, r6, r8, lr}^
    a12c:	73253a43 	teqvc	r5, #274432	; 0x43000
    a130:	3a73253a 	bcc	1cd3620 <__bss_end__+0x1cc6d68>
    a134:	633a6425 	teqvs	sl, #620756992	; 0x25000000
    a138:	6d655f71 	stclvs	15, cr5, [r5, #-452]!	; 0xfffffe3c
    a13c:	28797470 	ldmdacs	r9!, {r4, r5, r6, sl, ip, sp, lr}^
    a140:	000a2963 	andeq	r2, sl, r3, ror #18
    a144:	494e4150 	stmdbmi	lr, {r4, r6, r8, lr}^
    a148:	73253a43 	teqvc	r5, #274432	; 0x43000
    a14c:	3a73253a 	bcc	1cd363c <__bss_end__+0x1cc6d84>
    a150:	213a6425 	teqcs	sl, r5, lsr #8
    a154:	665f7163 	ldrbvs	r7, [pc], -r3, ror #2
    a158:	286c6c75 	stmdacs	ip!, {r0, r2, r4, r5, r6, sl, fp, sp, lr}^
    a15c:	000a2963 	andeq	r2, sl, r3, ror #18
    a160:	494e4150 	stmdbmi	lr, {r4, r6, r8, lr}^
    a164:	73253a43 	teqvc	r5, #274432	; 0x43000
    a168:	3a73253a 	bcc	1cd3658 <__bss_end__+0x1cc6da0>
    a16c:	633a6425 	teqvs	sl, #620756992	; 0x25000000
    a170:	656e5f71 	strbvs	r5, [lr, #-3953]!	; 0xf71
    a174:	286d656c 	stmdacs	sp!, {r2, r3, r5, r6, r8, sl, sp, lr}^
    a178:	3d202963 	stccc	9, cr2, [r0, #-396]!	; 0xfffffe74
    a17c:	0a30203d 	beq	c12278 <__bss_end__+0xc059c0>
    a180:	00000000 	andeq	r0, r0, r0
    a184:	494e4150 	stmdbmi	lr, {r4, r6, r8, lr}^
    a188:	73253a43 	teqvc	r5, #274432	; 0x43000
    a18c:	3a73253a 	bcc	1cd367c <__bss_end__+0x1cc6dc4>
    a190:	633a6425 	teqvs	sl, #620756992	; 0x25000000
    a194:	6f705f71 	svcvs	0x00705f71
    a198:	6f6e5f70 	svcvs	0x006e5f70
    a19c:	6f6c626e 	svcvs	0x006c626e
    a1a0:	63286b63 	teqvs	r8, #101376	; 0x18c00
    a1a4:	2965262c 	stmdbcs	r5!, {r2, r3, r5, r9, sl, sp}^
    a1a8:	203d3d20 	eorscs	r3, sp, r0, lsr #26
    a1ac:	26262030 			; <UNDEFINED> instruction: 0x26262030
    a1b0:	3d206520 	cfstr32cc	mvfx6, [r0, #-128]!	; 0xffffff80
    a1b4:	7830203d 	ldmdavc	r0!, {r0, r2, r3, r4, r5, sp}
    a1b8:	000a3231 	andeq	r3, sl, r1, lsr r2
    a1bc:	494e4150 	stmdbmi	lr, {r4, r6, r8, lr}^
    a1c0:	73253a43 	teqvc	r5, #274432	; 0x43000
    a1c4:	3a73253a 	bcc	1cd36b4 <__bss_end__+0x1cc6dfc>
    a1c8:	733a6425 	teqvc	sl, #620756992	; 0x25000000
    a1cc:	3d3d207a 	ldccc	0, cr2, [sp, #-488]!	; 0xfffffe18
    a1d0:	5f716320 	svcpl	0x00716320
    a1d4:	656c656e 	strbvs	r6, [ip, #-1390]!	; 0x56e
    a1d8:	2963286d 	stmdbcs	r3!, {r0, r2, r3, r5, r6, fp, sp}^
    a1dc:	0000000a 	andeq	r0, r0, sl
    a1e0:	494e4150 	stmdbmi	lr, {r4, r6, r8, lr}^
    a1e4:	73253a43 	teqvc	r5, #274432	; 0x43000
    a1e8:	3a73253a 	bcc	1cd36d8 <__bss_end__+0x1cc6e20>
    a1ec:	6e3a6425 	cdpvs	4, 3, cr6, cr10, cr5, {1}
    a1f0:	6820746f 	stmdavs	r0!, {r0, r1, r2, r3, r5, r6, sl, ip, sp, lr}
    a1f4:	6c646e61 	stclvs	14, cr6, [r4], #-388	; 0xfffffe7c
    a1f8:	20676e69 	rsbcs	r6, r7, r9, ror #28
    a1fc:	73696874 	cmnvc	r9, #116, 16	; 0x740000
    a200:	00000a0a 	andeq	r0, r0, sl, lsl #20
    a204:	494e4150 	stmdbmi	lr, {r4, r6, r8, lr}^
    a208:	73253a43 	teqvc	r5, #274432	; 0x43000
    a20c:	3a73253a 	bcc	1cd36fc <__bss_end__+0x1cc6e44>
    a210:	213a6425 	teqcs	sl, r5, lsr #8
    a214:	655f7163 	ldrbvs	r7, [pc, #-355]	; a0b9 <__FUNCTION__.4266+0xd>
    a218:	7974706d 	ldmdbvc	r4!, {r0, r2, r3, r5, r6, ip, sp, lr}^
    a21c:	0a296328 	beq	a62ec4 <__bss_end__+0xa5660c>
    a220:	00000000 	andeq	r0, r0, r0

0000a224 <__FUNCTION__.4202>:
    a224:	74696d65 	strbtvc	r6, [r9], #-3429	; 0xd65
    a228:	00000000 	andeq	r0, r0, r0

0000a22c <__FUNCTION__.4150>:
    a22c:	5f697072 	svcpl	0x00697072
    a230:	5f746573 	svcpl	0x00746573
    a234:	7074756f 	rsbsvc	r7, r4, pc, ror #10
    a238:	00007475 	andeq	r7, r0, r5, ror r4

0000a23c <__FUNCTION__.4224>:
    a23c:	705f6176 	subsvc	r6, pc, r6, ror r1	; <UNPREDICTABLE>
    a240:	746e6972 	strbtvc	r6, [lr], #-2418	; 0x972
    a244:	0000006b 	andeq	r0, r0, fp, rrx
    a248:	494e4150 	stmdbmi	lr, {r4, r6, r8, lr}^
    a24c:	73253a43 	teqvc	r5, #274432	; 0x43000
    a250:	3a73253a 	bcc	1cd3740 <__bss_end__+0x1cc6e88>
    a254:	303a6425 	eorscc	r6, sl, r5, lsr #8
    a258:	0000000a 	andeq	r0, r0, sl
    a25c:	6362696c 	cmnvs	r2, #108, 18	; 0x1b0000
    a260:	2d61762f 	stclcs	6, cr7, [r1, #-188]!	; 0xffffff44
    a264:	6e697270 	mcrvs	2, 3, r7, cr9, cr0, {3}
    a268:	632e6b74 	teqvs	lr, #116, 22	; 0x1d000
    a26c:	00000000 	andeq	r0, r0, r0
    a270:	33323130 	teqcc	r2, #48, 2
    a274:	37363534 			; <UNDEFINED> instruction: 0x37363534
    a278:	00003938 	andeq	r3, r0, r8, lsr r9
    a27c:	33323130 	teqcc	r2, #48, 2
    a280:	37363534 			; <UNDEFINED> instruction: 0x37363534
    a284:	62613938 	rsbvs	r3, r1, #56, 18	; 0xe0000
    a288:	66656463 	strbtvs	r6, [r5], -r3, ror #8
    a28c:	00000000 	andeq	r0, r0, r0
    a290:	00003130 	andeq	r3, r0, r0, lsr r1
    a294:	494e4150 	stmdbmi	lr, {r4, r6, r8, lr}^
    a298:	73253a43 	teqvc	r5, #274432	; 0x43000
    a29c:	3a73253a 	bcc	1cd378c <__bss_end__+0x1cc6ed4>
    a2a0:	703a6425 	eorsvc	r6, sl, r5, lsr #8
    a2a4:	5f637475 	svcpl	0x00637475
    a2a8:	000a7066 	andeq	r7, sl, r6, rrx
    a2ac:	494e4150 	stmdbmi	lr, {r4, r6, r8, lr}^
    a2b0:	73253a43 	teqvc	r5, #274432	; 0x43000
    a2b4:	3a73253a 	bcc	1cd37a4 <__bss_end__+0x1cc6eec>
    a2b8:	773a6425 	ldrvc	r6, [sl, -r5, lsr #8]!
    a2bc:	68746469 	ldmdavs	r4!, {r0, r3, r5, r6, sl, sp, lr}^
    a2c0:	33203c20 	teqcc	r0, #32, 24	; 0x2000
    a2c4:	00000a32 	andeq	r0, r0, r2, lsr sl
    a2c8:	494e4150 	stmdbmi	lr, {r4, r6, r8, lr}^
    a2cc:	73253a43 	teqvc	r5, #274432	; 0x43000
    a2d0:	3a73253a 	bcc	1cd37c0 <__bss_end__+0x1cc6f08>
    a2d4:	663a6425 	ldrtvs	r6, [sl], -r5, lsr #8
    a2d8:	74616f6c 	strbtvc	r6, [r1], #-3948	; 0xf6c
    a2dc:	746f6e20 	strbtvc	r6, [pc], #-3616	; a2e4 <__FUNCTION__.4224+0xa8>
    a2e0:	616e6520 	cmnvs	lr, r0, lsr #10
    a2e4:	64656c62 	strbtvs	r6, [r5], #-3170	; 0xc62
    a2e8:	0a212121 	beq	852774 <__bss_end__+0x845ebc>
    a2ec:	00000000 	andeq	r0, r0, r0
    a2f0:	494e4150 	stmdbmi	lr, {r4, r6, r8, lr}^
    a2f4:	73253a43 	teqvc	r5, #274432	; 0x43000
    a2f8:	3a73253a 	bcc	1cd37e8 <__bss_end__+0x1cc6f30>
    a2fc:	703a6425 	eorsvc	r6, sl, r5, lsr #8
    a300:	746e6972 	strbtvc	r6, [lr], #-2418	; 0x972
    a304:	6e203a6b 	vnmulvs.f32	s6, s0, s23
    a308:	6820746f 	stmdavs	r0!, {r0, r1, r2, r3, r5, r6, sl, ip, sp, lr}
    a30c:	6c646e61 	stclvs	14, cr6, [r4], #-388	; 0xfffffe7c
    a310:	20676e69 	rsbcs	r6, r7, r9, ror #28
    a314:	63657073 	cmnvs	r5, #115	; 0x73
    a318:	65696669 	strbvs	r6, [r9, #-1641]!	; 0x669
    a31c:	25272072 	strcs	r2, [r7, #-114]!	; 0x72
    a320:	0a0a2763 	beq	2940b4 <__bss_end__+0x2877fc>
    a324:	00000000 	andeq	r0, r0, r0
    a328:	454e4f44 	strbmi	r4, [lr, #-3908]	; 0xf44
    a32c:	0a212121 	beq	8527b8 <__bss_end__+0x845f00>
    a330:	00000000 	andeq	r0, r0, r0

0000a334 <__FUNCTION__.4175>:
    a334:	74736166 	ldrbtvc	r6, [r3], #-358	; 0x166
    a338:	746e695f 	strbtvc	r6, [lr], #-2399	; 0x95f
    a33c:	75727265 	ldrbvc	r7, [r2, #-613]!	; 0x265
    a340:	765f7470 			; <UNDEFINED> instruction: 0x765f7470
    a344:	6f746365 	svcvs	0x00746365
    a348:	00000072 	andeq	r0, r0, r2, ror r0

0000a34c <__FUNCTION__.4179>:
    a34c:	74666f73 	strbtvc	r6, [r6], #-3955	; 0xf73
    a350:	65726177 	ldrbvs	r6, [r2, #-375]!	; 0x177
    a354:	746e695f 	strbtvc	r6, [lr], #-2399	; 0x95f
    a358:	75727265 	ldrbvc	r7, [r2, #-613]!	; 0x265
    a35c:	765f7470 			; <UNDEFINED> instruction: 0x765f7470
    a360:	6f746365 	svcvs	0x00746365
    a364:	00000072 	andeq	r0, r0, r2, ror r0

0000a368 <__FUNCTION__.4183>:
    a368:	65736572 	ldrbvs	r6, [r3, #-1394]!	; 0x572
    a36c:	65765f74 	ldrbvs	r5, [r6, #-3956]!	; 0xf74
    a370:	726f7463 	rsbvc	r7, pc, #1660944384	; 0x63000000
    a374:	00000000 	andeq	r0, r0, r0

0000a378 <__FUNCTION__.4187>:
    a378:	65646e75 	strbvs	r6, [r4, #-3701]!	; 0xe75
    a37c:	656e6966 	strbvs	r6, [lr, #-2406]!	; 0x966
    a380:	6e695f64 	cdpvs	15, 6, cr5, cr9, cr4, {3}
    a384:	75727473 	ldrbvc	r7, [r2, #-1139]!	; 0x473
    a388:	6f697463 	svcvs	0x00697463
    a38c:	65765f6e 	ldrbvs	r5, [r6, #-3950]!	; 0xf6e
    a390:	726f7463 	rsbvc	r7, pc, #1660944384	; 0x63000000
    a394:	00000000 	andeq	r0, r0, r0

0000a398 <__FUNCTION__.4191>:
    a398:	66657270 			; <UNDEFINED> instruction: 0x66657270
    a39c:	68637465 	stmdavs	r3!, {r0, r2, r5, r6, sl, ip, sp, lr}^
    a3a0:	6f62615f 	svcvs	0x0062615f
    a3a4:	765f7472 			; <UNDEFINED> instruction: 0x765f7472
    a3a8:	6f746365 	svcvs	0x00746365
    a3ac:	00000072 	andeq	r0, r0, r2, ror r0

0000a3b0 <__FUNCTION__.4195>:
    a3b0:	61746164 	cmnvs	r4, r4, ror #2
    a3b4:	6f62615f 	svcvs	0x0062615f
    a3b8:	765f7472 			; <UNDEFINED> instruction: 0x765f7472
    a3bc:	6f746365 	svcvs	0x00746365
    a3c0:	00000072 	andeq	r0, r0, r2, ror r0
    a3c4:	494e4150 	stmdbmi	lr, {r4, r6, r8, lr}^
    a3c8:	73253a43 	teqvc	r5, #274432	; 0x43000
    a3cc:	3a73253a 	bcc	1cd38bc <__bss_end__+0x1cc7004>
    a3d0:	453a6425 	ldrmi	r6, [sl, #-1061]!	; 0x425
    a3d4:	524f5252 	subpl	r5, pc, #536870917	; 0x20000005
    a3d8:	6e75203a 	mrcvs	0, 3, r2, cr5, cr10, {1}
    a3dc:	646e6168 	strbtvs	r6, [lr], #-360	; 0x168
    a3e0:	2064656c 	rsbcs	r6, r4, ip, ror #10
    a3e4:	65637865 	strbvs	r7, [r3, #-2149]!	; 0x865
    a3e8:	6f697470 	svcvs	0x00697470
    a3ec:	253c206e 	ldrcs	r2, [ip, #-110]!	; 0x6e
    a3f0:	61203e73 	teqvs	r0, r3, ror lr
    a3f4:	43502074 	cmpmi	r0, #116	; 0x74
    a3f8:	0a78253d 	beq	1e138f4 <__bss_end__+0x1e0703c>
    a3fc:	0000000a 	andeq	r0, r0, sl
    a400:	34317363 	ldrtcc	r7, [r1], #-867	; 0x363
    a404:	692d6530 	pushvs	{r4, r5, r8, sl, sp, lr}
    a408:	7265746e 	rsbvc	r7, r5, #1845493760	; 0x6e000000
    a40c:	74707572 	ldrbtvc	r7, [r0], #-1394	; 0x572
    a410:	746e692f 	strbtvc	r6, [lr], #-2351	; 0x92f
    a414:	75727265 	ldrbvc	r7, [r2, #-613]!	; 0x265
    a418:	2d737470 	cfldrdcs	mvd7, [r3, #-448]!	; 0xfffffe40
    a41c:	00632e63 	rsbeq	r2, r3, r3, ror #28
    a420:	74736166 	ldrbtvc	r6, [r3], #-358	; 0x166
    a424:	00000000 	andeq	r0, r0, r0
    a428:	74666f73 	strbtvc	r6, [r6], #-3955	; 0xf73
    a42c:	746e6920 	strbtvc	r6, [lr], #-2336	; 0x920
    a430:	75727265 	ldrbvc	r7, [r2, #-613]!	; 0x265
    a434:	00007470 	andeq	r7, r0, r0, ror r4
    a438:	65736572 	ldrbvs	r6, [r3, #-1394]!	; 0x572
    a43c:	65762074 	ldrbvs	r2, [r6, #-116]!	; 0x74
    a440:	726f7463 	rsbvc	r7, pc, #1660944384	; 0x63000000
    a444:	00000000 	andeq	r0, r0, r0
    a448:	65646e75 	strbvs	r6, [r4, #-3701]!	; 0xe75
    a44c:	656e6966 	strbvs	r6, [lr, #-2406]!	; 0x966
    a450:	6e692064 	cdpvs	0, 6, cr2, cr9, cr4, {3}
    a454:	75727473 	ldrbvc	r7, [r2, #-1139]!	; 0x473
    a458:	6f697463 	svcvs	0x00697463
    a45c:	0000006e 	andeq	r0, r0, lr, rrx
    a460:	66657270 			; <UNDEFINED> instruction: 0x66657270
    a464:	68637465 	stmdavs	r3!, {r0, r2, r5, r6, sl, ip, sp, lr}^
    a468:	6f626120 	svcvs	0x00626120
    a46c:	00007472 	andeq	r7, r0, r2, ror r4
    a470:	61746164 	cmnvs	r4, r4, ror #2
    a474:	6f626120 	svcvs	0x00626120
    a478:	00007472 	andeq	r7, r0, r2, ror r4

Disassembly of section .bss:

0000a47c <__bss_start__>:
    a47c:	00000000 	andeq	r0, r0, r0

0000a480 <n_interrupt>:
    a480:	00000000 	andeq	r0, r0, r0

0000a484 <timeout>:
    a484:	00000000 	andeq	r0, r0, r0

0000a488 <u>:
	...

0000a494 <putQ>:
	...

0000c4a8 <n_rising_edge>:
    c4a8:	00000000 	andeq	r0, r0, r0

0000c4ac <n_falling_edge>:
    c4ac:	00000000 	andeq	r0, r0, r0

0000c4b0 <ninterrupt>:
    c4b0:	00000000 	andeq	r0, r0, r0

0000c4b4 <buf.4150>:
	...

0000c8b4 <rpi_arm_timer_t>:
    c8b4:	00000000 	andeq	r0, r0, r0

Disassembly of section .ARM.attributes:

00000000 <.ARM.attributes>:
   0:	00002a41 	andeq	r2, r0, r1, asr #20
   4:	61656100 	cmnvs	r5, r0, lsl #2
   8:	01006962 	tsteq	r0, r2, ror #18
   c:	00000020 	andeq	r0, r0, r0, lsr #32
  10:	4b5a3605 	blmi	168d82c <__bss_end__+0x1680f74>
  14:	08070600 	stmdaeq	r7, {r9, sl}
  18:	12010901 	andne	r0, r1, #16384	; 0x4000
  1c:	15011404 	strne	r1, [r1, #-1028]	; 0x404
  20:	18031701 	stmdane	r3, {r0, r8, r9, sl, ip}
  24:	22011a01 	andcs	r1, r1, #4096	; 0x1000
  28:	Address 0x0000000000000028 is out of bounds.


Disassembly of section .comment:

00000000 <.comment>:
   0:	3a434347 	bcc	10d0d24 <__bss_end__+0x10c446c>
   4:	4e472820 	cdpmi	8, 4, cr2, cr7, cr0, {1}
   8:	34202955 	strtcc	r2, [r0], #-2389	; 0x955
   c:	332e382e 	teqcc	lr, #3014656	; 0x2e0000
	...

Disassembly of section .debug_info:

00000000 <.debug_info>:
       0:	000016f4 	strdeq	r1, [r0], -r4
       4:	00000004 	andeq	r0, r0, r4
       8:	01040000 	mrseq	r0, (UNDEF: 4)
       c:	00000397 	muleq	r0, r7, r3
      10:	0004f001 	andeq	pc, r4, r1
      14:	00031600 	andeq	r1, r3, r0, lsl #12
      18:	00801000 	addeq	r1, r0, r0
      1c:	0007dc00 	andeq	sp, r7, r0, lsl #24
      20:	00000000 	andeq	r0, r0, r0
      24:	05040200 	streq	r0, [r4, #-512]	; 0x200
      28:	00746e69 	rsbseq	r6, r4, r9, ror #28
      2c:	88070403 	stmdahi	r7, {r0, r1, sl}
      30:	03000000 	movweq	r0, #0
      34:	02cd0601 	sbceq	r0, sp, #1048576	; 0x100000
      38:	02030000 	andeq	r0, r3, #0
      3c:	0002d905 	andeq	sp, r2, r5, lsl #18
      40:	05040300 	streq	r0, [r4, #-768]	; 0x300
      44:	000000c7 	andeq	r0, r0, r7, asr #1
      48:	c2050803 	andgt	r0, r5, #196608	; 0x30000
      4c:	04000000 	streq	r0, [r0], #-0
      50:	000004b6 			; <UNDEFINED> instruction: 0x000004b6
      54:	005a2e04 	subseq	r2, sl, r4, lsl #28
      58:	01030000 	mrseq	r0, (UNDEF: 3)
      5c:	0002cb08 	andeq	ip, r2, r8, lsl #22
      60:	07020300 	streq	r0, [r2, -r0, lsl #6]
      64:	000001b2 			; <UNDEFINED> instruction: 0x000001b2
      68:	00030004 	andeq	r0, r3, r4
      6c:	73340400 	teqvc	r4, #0, 8
      70:	03000000 	movweq	r0, #0
      74:	00830704 	addeq	r0, r3, r4, lsl #14
      78:	08030000 	stmdaeq	r3, {}	; <UNPREDICTABLE>
      7c:	00007e07 	andeq	r7, r0, r7, lsl #28
      80:	07040300 	streq	r0, [r4, -r0, lsl #6]
      84:	0000023a 	andeq	r0, r0, sl, lsr r2
      88:	04060405 	streq	r0, [r6], #-1029	; 0x405
      8c:	00000090 	muleq	r0, r0, r0
      90:	d4080103 	strle	r0, [r8], #-259	; 0x103
      94:	06000002 	streq	r0, [r0], -r2
      98:	00009d04 	andeq	r9, r0, r4, lsl #26
      9c:	00900700 	addseq	r0, r0, r0, lsl #14
      a0:	01080000 	mrseq	r0, (UNDEF: 8)
      a4:	00c33705 	sbceq	r3, r3, r5, lsl #14
      a8:	00090000 	andeq	r0, r9, r0
      ac:	31000000 	mrscc	r0, (UNDEF: 0)
      b0:	00000a09 	andeq	r0, r0, r9, lsl #20
      b4:	14093200 	strne	r3, [r9], #-512	; 0x200
      b8:	33000000 	movwcc	r0, #0
      bc:	00001e09 	andeq	r1, r0, r9, lsl #28
      c0:	08003400 	stmdaeq	r0, {sl, ip, sp}
      c4:	30330604 	eorscc	r0, r3, r4, lsl #12
      c8:	09000001 	stmdbeq	r0, {r0}
      cc:	0000012b 	andeq	r0, r0, fp, lsr #2
      d0:	8082e880 	addhi	lr, r2, r0, lsl #17
      d4:	011c0902 	tsteq	ip, r2, lsl #18
      d8:	e8800000 	stm	r0, {}	; <UNPREDICTABLE>
      dc:	09028082 	stmdbeq	r2, {r1, r7, pc}
      e0:	0000045e 	andeq	r0, r0, lr, asr r4
      e4:	8082e884 	addhi	lr, r2, r4, lsl #17
      e8:	01000902 	tsteq	r0, r2, lsl #18
      ec:	e8880000 	stm	r8, {}	; <UNPREDICTABLE>
      f0:	09028082 	stmdbeq	r2, {r1, r7, pc}
      f4:	0000046e 	andeq	r0, r0, lr, ror #8
      f8:	8082e88c 	addhi	lr, r2, ip, lsl #17
      fc:	00500902 	subseq	r0, r0, r2, lsl #18
     100:	e8900000 	ldm	r0, {}	; <UNPREDICTABLE>
     104:	09028082 	stmdbeq	r2, {r1, r7, pc}
     108:	00000154 	andeq	r0, r0, r4, asr r1
     10c:	8082e894 	umullhi	lr, r2, r4, r8
     110:	025a0902 	subseq	r0, sl, #32768	; 0x8000
     114:	e8980000 	ldm	r8, {}	; <UNPREDICTABLE>
     118:	09028082 	stmdbeq	r2, {r1, r7, pc}
     11c:	00000428 	andeq	r0, r0, r8, lsr #8
     120:	8082e89c 	umullhi	lr, r2, ip, r8
     124:	05080902 	streq	r0, [r8, #-2306]	; 0x902
     128:	e8a00000 	stmia	r0!, {}	; <UNPREDICTABLE>
     12c:	00028082 	andeq	r8, r2, r2, lsl #1
     130:	0002f504 	andeq	pc, r2, r4, lsl #10
     134:	5a1b0300 	bpl	6c0d3c <__bss_end__+0x6b4484>
     138:	0a000000 	beq	140 <_start-0x7ec0>
     13c:	27032014 	smladcs	r3, r4, r0, r2
     140:	00000195 	muleq	r0, r5, r1
     144:	0000950b 	andeq	r9, r0, fp, lsl #10
     148:	a6290300 	strtge	r0, [r9], -r0, lsl #6
     14c:	00000001 	andeq	r0, r0, r1
     150:	0003ee0c 	andeq	lr, r3, ip, lsl #28
     154:	2c2a0300 	stccs	3, cr0, [sl], #-0
     158:	00000000 	andeq	r0, r0, r0
     15c:	02fb0c20 	rscseq	r0, fp, #32, 24	; 0x2000
     160:	2b030000 	blcs	c0168 <__bss_end__+0xb38b0>
     164:	000001ab 	andeq	r0, r0, fp, lsr #3
     168:	350c2004 	strcc	r2, [ip, #-4]
     16c:	03000002 	movweq	r0, #2
     170:	0001ab2b 	andeq	sl, r1, fp, lsr #22
     174:	0c200800 	stceq	8, cr0, [r0], #-0
     178:	00000412 	andeq	r0, r0, r2, lsl r4
     17c:	01ab2e03 			; <UNDEFINED> instruction: 0x01ab2e03
     180:	200c0000 	andcs	r0, ip, r0
     184:	0000390d 	andeq	r3, r0, sp, lsl #18
     188:	2c300300 	ldccs	3, cr0, [r0], #-0
     18c:	04000000 	streq	r0, [r0], #-0
     190:	20101f01 	andscs	r1, r0, r1, lsl #30
     194:	01300e00 	teqeq	r0, r0, lsl #28
     198:	01a60000 			; <UNDEFINED> instruction: 0x01a60000
     19c:	810f0000 	mrshi	r0, CPSR
     1a0:	ff000000 			; <UNDEFINED> instruction: 0xff000000
     1a4:	9510001f 	ldrls	r0, [r0, #-31]
     1a8:	10000001 	andne	r0, r0, r1
     1ac:	0000002c 	andeq	r0, r0, ip, lsr #32
     1b0:	00049104 	andeq	r9, r4, r4, lsl #2
     1b4:	3b310300 	blcc	c40dbc <__bss_end__+0xc34504>
     1b8:	11000001 	tstne	r0, r1
     1bc:	f20e070c 	vabd.s8	d0, d14, d12
     1c0:	12000001 	andne	r0, r0, #1
     1c4:	07007874 	smlsdxeq	r0, r4, r8, r7
     1c8:	00004f0f 	andeq	r4, r0, pc, lsl #30
     1cc:	72120000 	andsvc	r0, r2, #0
     1d0:	0f070078 	svceq	0x00070078
     1d4:	0000004f 	andeq	r0, r0, pc, asr #32
     1d8:	03090b01 	movweq	r0, #39681	; 0x9b01
     1dc:	10070000 	andne	r0, r7, r0
     1e0:	00000068 	andeq	r0, r0, r8, rrx
     1e4:	00b40b04 	adcseq	r0, r4, r4, lsl #22
     1e8:	11070000 	mrsne	r0, (UNDEF: 7)
     1ec:	00000068 	andeq	r0, r0, r8, rrx
     1f0:	c1040008 	tstgt	r4, r8
     1f4:	07000002 	streq	r0, [r0, -r2]
     1f8:	0001bb12 	andeq	fp, r1, r2, lsl fp
     1fc:	01010800 	tsteq	r1, r0, lsl #16
     200:	00021213 	andeq	r1, r2, r3, lsl r2
     204:	030e0900 	movweq	r0, #59648	; 0xe900
     208:	09140000 	ldmdbeq	r4, {}	; <UNPREDICTABLE>
     20c:	00000168 	andeq	r0, r0, r8, ror #2
     210:	4b040015 	blmi	10026c <__bss_end__+0xf39b4>
     214:	08000002 	stmdaeq	r0, {r1}
     218:	00021d28 	andeq	r1, r2, r8, lsr #26
     21c:	01121300 	tsteq	r2, r0, lsl #6
     220:	0c040000 	stceq	0, cr0, [r4], {-0}
     224:	00023400 	andeq	r3, r2, r0, lsl #8
     228:	04231400 	strteq	r1, [r3], #-1024	; 0x400
     22c:	00880000 	addeq	r0, r8, r0
     230:	00000000 	andeq	r0, r0, r0
     234:	00011404 	andeq	r1, r1, r4, lsl #8
     238:	12620800 	rsbne	r0, r2, #0, 16
     23c:	15000002 	strne	r0, [r0, #-2]
     240:	00000500 	andeq	r0, r0, r0, lsl #10
     244:	00255403 	eoreq	r5, r5, r3, lsl #8
     248:	59030000 	stmdbpl	r3, {}	; <UNPREDICTABLE>
     24c:	16000002 	strne	r0, [r0], -r2
     250:	54030071 	strpl	r0, [r3], #-113	; 0x71
     254:	00000259 	andeq	r0, r0, r9, asr r2
     258:	b0040600 	andlt	r0, r4, r0, lsl #12
     25c:	17000001 	strne	r0, [r0, -r1]
     260:	0000016f 	andeq	r0, r0, pc, ror #2
     264:	8d030902 	stchi	9, cr0, [r3, #-8]
     268:	18000002 	stmdane	r0, {r1}
     26c:	0000070d 	andeq	r0, r0, sp, lsl #14
     270:	002c0902 	eoreq	r0, ip, r2, lsl #18
     274:	6e160000 	cdpvs	0, 1, cr0, cr6, cr0, {0}
     278:	2c090200 	sfmcs	f0, 4, [r9], {-0}
     27c:	19000000 	stmdbne	r0, {}	; <UNPREDICTABLE>
     280:	0000fb1a 	andeq	pc, r0, sl, lsl fp	; <UNPREDICTABLE>
     284:	2c0c0200 	sfmcs	f0, 4, [ip], {-0}
     288:	00000000 	andeq	r0, r0, r0
     28c:	009b1700 	addseq	r1, fp, r0, lsl #14
     290:	17020000 	strne	r0, [r2, -r0]
     294:	0002c403 	andeq	ip, r2, r3, lsl #8
     298:	69701600 	ldmdbvs	r0!, {r9, sl, ip}^
     29c:	1702006e 	strne	r0, [r2, -lr, rrx]
     2a0:	0000002c 	andeq	r0, r0, ip, lsr #32
     2a4:	02007616 	andeq	r7, r0, #23068672	; 0x1600000
     2a8:	00002c17 	andeq	r2, r0, r7, lsl ip
     2ac:	070d1800 	streq	r1, [sp, -r0, lsl #16]
     2b0:	17020000 	strne	r0, [r2, -r0]
     2b4:	0000002c 	andeq	r0, r0, ip, lsr #32
     2b8:	00017518 	andeq	r7, r1, r8, lsl r5
     2bc:	2c170200 	lfmcs	f0, 4, [r7], {-0}
     2c0:	00000000 	andeq	r0, r0, r0
     2c4:	00041b15 	andeq	r1, r4, r5, lsl fp
     2c8:	25640300 	strbcs	r0, [r4, #-768]!	; 0x300
     2cc:	03000000 	movweq	r0, #0
     2d0:	000002f2 	strdeq	r0, [r0], -r2
     2d4:	03006316 	movweq	r6, #790	; 0x316
     2d8:	00025964 	andeq	r5, r2, r4, ror #18
     2dc:	00781600 	rsbseq	r1, r8, r0, lsl #12
     2e0:	01306403 	teqeq	r0, r3, lsl #8
     2e4:	fb1a0000 	blx	6802ee <__bss_end__+0x673a36>
     2e8:	03000002 	movweq	r0, #2
     2ec:	00002c65 	andeq	r2, r0, r5, ror #24
     2f0:	ab150000 	blge	5402f8 <__bss_end__+0x533a40>
     2f4:	03000000 	movweq	r0, #0
     2f8:	00002551 	andeq	r2, r0, r1, asr r5
     2fc:	030c0300 	movweq	r0, #49920	; 0xc300
     300:	71160000 	tstvc	r6, r0
     304:	59510300 	ldmdbpl	r1, {r8, r9}^
     308:	00000002 	andeq	r0, r0, r2
     30c:	0001e61b 	andeq	lr, r1, fp, lsl r6
     310:	10150100 	andsne	r0, r5, r0, lsl #2
     314:	74000080 	strvc	r0, [r0], #-128	; 0x80
     318:	01000001 	tsteq	r0, r1
     31c:	0008e69c 	muleq	r8, ip, r6
     320:	02b51c00 	adcseq	r1, r5, #0, 24
     324:	15010000 	strne	r0, [r1, #-0]
     328:	000008e6 	andeq	r0, r0, r6, ror #17
     32c:	00000000 	andeq	r0, r0, r0
     330:	0100631d 	tsteq	r0, sp, lsl r3
     334:	00005a15 	andeq	r5, r0, r5, lsl sl
     338:	00002100 	andeq	r2, r0, r0, lsl #2
     33c:	78741e00 	ldmdavc	r4!, {r9, sl, fp, ip}^
     340:	25180100 	ldrcs	r0, [r8, #-256]	; 0x100
     344:	01000000 	mrseq	r0, (UNDEF: 0)
     348:	006e1f56 	rsbeq	r1, lr, r6, asr pc
     34c:	00681901 	rsbeq	r1, r8, r1, lsl #18
     350:	00420000 	subeq	r0, r2, r0
     354:	751f0000 	ldrvc	r0, [pc, #-0]	; 35c <_start-0x7ca4>
     358:	681a0100 	ldmdavs	sl, {r8}
     35c:	42000000 	andmi	r0, r0, #0
     360:	20000000 	andcs	r0, r0, r0
     364:	1b010073 	blne	40538 <__bss_end__+0x33c80>
     368:	00000068 	andeq	r0, r0, r8, rrx
     36c:	646e651f 	strbtvs	r6, [lr], #-1311	; 0x51f
     370:	2c1e0100 	ldfcss	f0, [lr], {-0}
     374:	55000000 	strpl	r0, [r0, #-0]
     378:	21000000 	mrscs	r0, (UNDEF: 0)
     37c:	0000070d 	andeq	r0, r0, sp, lsl #14
     380:	002c1f01 	eoreq	r1, ip, r1, lsl #30
     384:	54010000 	strpl	r0, [r1], #-0
     388:	00802c22 	addeq	r2, r0, r2, lsr #24
     38c:	00000400 	andeq	r0, r0, r0, lsl #8
     390:	0003a100 	andeq	sl, r3, r0, lsl #2
     394:	00fb1a00 	rscseq	r1, fp, r0, lsl #20
     398:	1b010000 	blne	403a0 <__bss_end__+0x33ae8>
     39c:	0000002c 	andeq	r0, r0, ip, lsr #32
     3a0:	80302200 	eorshi	r2, r0, r0, lsl #4
     3a4:	00040000 	andeq	r0, r4, r0
     3a8:	03bc0000 			; <UNDEFINED> instruction: 0x03bc0000
     3ac:	fb210000 	blx	8403b6 <__bss_end__+0x833afe>
     3b0:	01000000 	mrseq	r0, (UNDEF: 0)
     3b4:	00002c1f 	andeq	r2, r0, pc, lsl ip
     3b8:	00540100 	subseq	r0, r4, r0, lsl #2
     3bc:	00028d23 	andeq	r8, r2, r3, lsr #26
     3c0:	00803400 	addeq	r3, r0, r0, lsl #8
     3c4:	00001c00 	andeq	r1, r0, r0, lsl #24
     3c8:	39220100 	stmdbcc	r2!, {r8}
     3cc:	24000004 	strcs	r0, [r0], #-4
     3d0:	000002b8 			; <UNDEFINED> instruction: 0x000002b8
     3d4:	0000007e 	andeq	r0, r0, lr, ror r0
     3d8:	0002ad25 	andeq	sl, r2, r5, lsr #26
     3dc:	26540100 	ldrbcs	r0, [r4], -r0, lsl #2
     3e0:	000002a4 	andeq	r0, r0, r4, lsr #5
     3e4:	02992500 	addseq	r2, r9, #0, 10
     3e8:	56010000 	strpl	r0, [r1], -r0
     3ec:	00025f23 	andeq	r5, r2, r3, lsr #30
     3f0:	00804000 	addeq	r4, r0, r0
     3f4:	00001000 	andeq	r1, r0, r0
     3f8:	231a0200 	tstcs	sl, #0, 4
     3fc:	24000004 	strcs	r0, [r0], #-4
     400:	00000276 	andeq	r0, r0, r6, ror r2
     404:	00000091 	muleq	r0, r1, r0
     408:	00026b25 	andeq	r6, r2, r5, lsr #22
     40c:	27540100 	ldrbcs	r0, [r4, -r0, lsl #2]
     410:	00008040 	andeq	r8, r0, r0, asr #32
     414:	00000004 	andeq	r0, r0, r4
     418:	00028028 	andeq	r8, r2, r8, lsr #32
     41c:	0000a400 	andeq	sl, r0, r0, lsl #8
     420:	29000000 	stmdbcs	r0, {}	; <UNPREDICTABLE>
     424:	00008040 	andeq	r8, r0, r0, asr #32
     428:	000015e0 	andeq	r1, r0, r0, ror #11
     42c:	0151012a 	cmpeq	r1, sl, lsr #2
     430:	50012a30 	andpl	r2, r1, r0, lsr sl
     434:	00007602 	andeq	r7, r0, r2, lsl #12
     438:	028d2300 	addeq	r2, sp, #0, 6
     43c:	80540000 	subshi	r0, r4, r0
     440:	001c0000 	andseq	r0, ip, r0
     444:	24010000 	strcs	r0, [r1], #-0
     448:	000004bc 			; <UNDEFINED> instruction: 0x000004bc
     44c:	0002b824 	andeq	fp, r2, r4, lsr #16
     450:	0000b700 	andeq	fp, r0, r0, lsl #14
     454:	02ad2500 	adceq	r2, sp, #0, 10
     458:	54010000 	strpl	r0, [r1], #-0
     45c:	0002a424 	andeq	sl, r2, r4, lsr #8
     460:	0000d900 	andeq	sp, r0, r0, lsl #18
     464:	02992500 	addseq	r2, r9, #0, 10
     468:	56010000 	strpl	r0, [r1], -r0
     46c:	00025f23 	andeq	r5, r2, r3, lsr #30
     470:	00806000 	addeq	r6, r0, r0
     474:	00001000 	andeq	r1, r0, r0
     478:	a31a0200 	tstge	sl, #0, 4
     47c:	24000004 	strcs	r0, [r0], #-4
     480:	00000276 	andeq	r0, r0, r6, ror r2
     484:	0000010a 	andeq	r0, r0, sl, lsl #2
     488:	00026b25 	andeq	r6, r2, r5, lsr #22
     48c:	27540100 	ldrbcs	r0, [r4, -r0, lsl #2]
     490:	00008060 	andeq	r8, r0, r0, rrx
     494:	00000004 	andeq	r0, r0, r4
     498:	00028028 	andeq	r8, r2, r8, lsr #32
     49c:	00012c00 	andeq	r2, r1, r0, lsl #24
     4a0:	29000000 	stmdbcs	r0, {}	; <UNPREDICTABLE>
     4a4:	00008060 	andeq	r8, r0, r0, rrx
     4a8:	000015e0 	andeq	r1, r0, r0, ror #11
     4ac:	0451012a 	ldrbeq	r0, [r1], #-298	; 0x12a
     4b0:	1a310077 	bne	c40694 <__bss_end__+0xc33ddc>
     4b4:	0250012a 	subseq	r0, r0, #-2147483638	; 0x8000000a
     4b8:	00000076 	andeq	r0, r0, r6, ror r0
     4bc:	00028d23 	andeq	r8, r2, r3, lsr #26
     4c0:	00807400 	addeq	r7, r0, r0, lsl #8
     4c4:	00001c00 	andeq	r1, r0, r0, lsl #24
     4c8:	44260100 	strtmi	r0, [r6], #-256	; 0x100
     4cc:	24000005 	strcs	r0, [r0], #-5
     4d0:	000002b8 			; <UNDEFINED> instruction: 0x000002b8
     4d4:	0000013f 	andeq	r0, r0, pc, lsr r1
     4d8:	0002ad25 	andeq	sl, r2, r5, lsr #26
     4dc:	25540100 	ldrbcs	r0, [r4, #-256]	; 0x100
     4e0:	000002a4 	andeq	r0, r0, r4, lsr #5
     4e4:	32007708 	andcc	r7, r0, #8, 14	; 0x200000
     4e8:	1aff081a 	bne	fffc2558 <__bss_end__+0xfffb5ca0>
     4ec:	0299259f 	addseq	r2, r9, #666894336	; 0x27c00000
     4f0:	56010000 	strpl	r0, [r1], -r0
     4f4:	00025f23 	andeq	r5, r2, r3, lsr #30
     4f8:	00808000 	addeq	r8, r0, r0
     4fc:	00001000 	andeq	r1, r0, r0
     500:	2b1a0200 	blcs	680d08 <__bss_end__+0x674450>
     504:	24000005 	strcs	r0, [r0], #-5
     508:	00000276 	andeq	r0, r0, r6, ror r2
     50c:	00000164 	andeq	r0, r0, r4, ror #2
     510:	00026b25 	andeq	r6, r2, r5, lsr #22
     514:	27540100 	ldrbcs	r0, [r4, -r0, lsl #2]
     518:	00008080 	andeq	r8, r0, r0, lsl #1
     51c:	00000004 	andeq	r0, r0, r4
     520:	00028028 	andeq	r8, r2, r8, lsr #32
     524:	00018900 	andeq	r8, r1, r0, lsl #18
     528:	29000000 	stmdbcs	r0, {}	; <UNPREDICTABLE>
     52c:	00008080 	andeq	r8, r0, r0, lsl #1
     530:	000015e0 	andeq	r1, r0, r0, ror #11
     534:	0451012a 	ldrbeq	r0, [r1], #-298	; 0x12a
     538:	1a320077 	bne	c8071c <__bss_end__+0xc73e64>
     53c:	0250012a 	subseq	r0, r0, #-2147483638	; 0x8000000a
     540:	00000076 	andeq	r0, r0, r6, ror r0
     544:	00028d23 	andeq	r8, r2, r3, lsr #26
     548:	00809400 	addeq	r9, r0, r0, lsl #8
     54c:	00001c00 	andeq	r1, r0, r0, lsl #24
     550:	cc280100 	stfgts	f0, [r8], #-0
     554:	24000005 	strcs	r0, [r0], #-5
     558:	000002b8 			; <UNDEFINED> instruction: 0x000002b8
     55c:	0000019c 	muleq	r0, ip, r1
     560:	0002ad25 	andeq	sl, r2, r5, lsr #26
     564:	25540100 	ldrbcs	r0, [r4, #-256]	; 0x100
     568:	000002a4 	andeq	r0, r0, r4, lsr #5
     56c:	34007708 	strcc	r7, [r0], #-1800	; 0x708
     570:	1aff081a 	bne	fffc25e0 <__bss_end__+0xfffb5d28>
     574:	0299259f 	addseq	r2, r9, #666894336	; 0x27c00000
     578:	56010000 	strpl	r0, [r1], -r0
     57c:	00025f23 	andeq	r5, r2, r3, lsr #30
     580:	0080a000 	addeq	sl, r0, r0
     584:	00001000 	andeq	r1, r0, r0
     588:	b31a0200 	tstlt	sl, #0, 4
     58c:	24000005 	strcs	r0, [r0], #-5
     590:	00000276 	andeq	r0, r0, r6, ror r2
     594:	000001be 			; <UNDEFINED> instruction: 0x000001be
     598:	00026b25 	andeq	r6, r2, r5, lsr #22
     59c:	27540100 	ldrbcs	r0, [r4, -r0, lsl #2]
     5a0:	000080a0 	andeq	r8, r0, r0, lsr #1
     5a4:	00000004 	andeq	r0, r0, r4
     5a8:	00028028 	andeq	r8, r2, r8, lsr #32
     5ac:	0001e000 	andeq	lr, r1, r0
     5b0:	29000000 	stmdbcs	r0, {}	; <UNPREDICTABLE>
     5b4:	000080a0 	andeq	r8, r0, r0, lsr #1
     5b8:	000015e0 	andeq	r1, r0, r0, ror #11
     5bc:	0451012a 	ldrbeq	r0, [r1], #-298	; 0x12a
     5c0:	1a340077 	bne	d007a4 <__bss_end__+0xcf3eec>
     5c4:	0250012a 	subseq	r0, r0, #-2147483638	; 0x8000000a
     5c8:	00000076 	andeq	r0, r0, r6, ror r0
     5cc:	00028d23 	andeq	r8, r2, r3, lsr #26
     5d0:	0080b400 	addeq	fp, r0, r0, lsl #8
     5d4:	00001c00 	andeq	r1, r0, r0, lsl #24
     5d8:	542a0100 	strtpl	r0, [sl], #-256	; 0x100
     5dc:	24000006 	strcs	r0, [r0], #-6
     5e0:	000002b8 			; <UNDEFINED> instruction: 0x000002b8
     5e4:	000001f3 	strdeq	r0, [r0], -r3
     5e8:	0002ad25 	andeq	sl, r2, r5, lsr #26
     5ec:	25540100 	ldrbcs	r0, [r4, #-256]	; 0x100
     5f0:	000002a4 	andeq	r0, r0, r4, lsr #5
     5f4:	38007708 	stmdacc	r0, {r3, r8, r9, sl, ip, sp, lr}
     5f8:	1aff081a 	bne	fffc2668 <__bss_end__+0xfffb5db0>
     5fc:	0299259f 	addseq	r2, r9, #666894336	; 0x27c00000
     600:	56010000 	strpl	r0, [r1], -r0
     604:	00025f23 	andeq	r5, r2, r3, lsr #30
     608:	0080c000 	addeq	ip, r0, r0
     60c:	00001000 	andeq	r1, r0, r0
     610:	3b1a0200 	blcc	680e18 <__bss_end__+0x674560>
     614:	24000006 	strcs	r0, [r0], #-6
     618:	00000276 	andeq	r0, r0, r6, ror r2
     61c:	00000218 	andeq	r0, r0, r8, lsl r2
     620:	00026b25 	andeq	r6, r2, r5, lsr #22
     624:	27540100 	ldrbcs	r0, [r4, -r0, lsl #2]
     628:	000080c0 	andeq	r8, r0, r0, asr #1
     62c:	00000004 	andeq	r0, r0, r4
     630:	00028028 	andeq	r8, r2, r8, lsr #32
     634:	00023d00 	andeq	r3, r2, r0, lsl #26
     638:	29000000 	stmdbcs	r0, {}	; <UNPREDICTABLE>
     63c:	000080c0 	andeq	r8, r0, r0, asr #1
     640:	000015e0 	andeq	r1, r0, r0, ror #11
     644:	0451012a 	ldrbeq	r0, [r1], #-298	; 0x12a
     648:	1a380077 	bne	e0082c <__bss_end__+0xdf3f74>
     64c:	0250012a 	subseq	r0, r0, #-2147483638	; 0x8000000a
     650:	00000076 	andeq	r0, r0, r6, ror r0
     654:	00028d23 	andeq	r8, r2, r3, lsr #26
     658:	0080d400 	addeq	sp, r0, r0, lsl #8
     65c:	00001c00 	andeq	r1, r0, r0, lsl #24
     660:	dc2c0100 	stfles	f0, [ip], #-0
     664:	24000006 	strcs	r0, [r0], #-6
     668:	000002b8 			; <UNDEFINED> instruction: 0x000002b8
     66c:	00000250 	andeq	r0, r0, r0, asr r2
     670:	0002ad25 	andeq	sl, r2, r5, lsr #26
     674:	25540100 	ldrbcs	r0, [r4, #-256]	; 0x100
     678:	000002a4 	andeq	r0, r0, r4, lsr #5
     67c:	40007708 	andmi	r7, r0, r8, lsl #14
     680:	1aff081a 	bne	fffc26f0 <__bss_end__+0xfffb5e38>
     684:	0299259f 	addseq	r2, r9, #666894336	; 0x27c00000
     688:	56010000 	strpl	r0, [r1], -r0
     68c:	00025f23 	andeq	r5, r2, r3, lsr #30
     690:	0080e000 	addeq	lr, r0, r0
     694:	00001000 	andeq	r1, r0, r0
     698:	c31a0200 	tstgt	sl, #0, 4
     69c:	24000006 	strcs	r0, [r0], #-6
     6a0:	00000276 	andeq	r0, r0, r6, ror r2
     6a4:	00000277 	andeq	r0, r0, r7, ror r2
     6a8:	00026b25 	andeq	r6, r2, r5, lsr #22
     6ac:	27540100 	ldrbcs	r0, [r4, -r0, lsl #2]
     6b0:	000080e0 	andeq	r8, r0, r0, ror #1
     6b4:	00000004 	andeq	r0, r0, r4
     6b8:	00028028 	andeq	r8, r2, r8, lsr #32
     6bc:	00029e00 	andeq	r9, r2, r0, lsl #28
     6c0:	29000000 	stmdbcs	r0, {}	; <UNPREDICTABLE>
     6c4:	000080e0 	andeq	r8, r0, r0, ror #1
     6c8:	000015e0 	andeq	r1, r0, r0, ror #11
     6cc:	0451012a 	ldrbeq	r0, [r1], #-298	; 0x12a
     6d0:	1a400077 	bne	10008b4 <__bss_end__+0xff3ffc>
     6d4:	0250012a 	subseq	r0, r0, #-2147483638	; 0x8000000a
     6d8:	00000076 	andeq	r0, r0, r6, ror r0
     6dc:	00028d23 	andeq	r8, r2, r3, lsr #26
     6e0:	0080f400 	addeq	pc, r0, r0, lsl #8
     6e4:	00001c00 	andeq	r1, r0, r0, lsl #24
     6e8:	662e0100 	strtvs	r0, [lr], -r0, lsl #2
     6ec:	24000007 	strcs	r0, [r0], #-7
     6f0:	000002b8 			; <UNDEFINED> instruction: 0x000002b8
     6f4:	000002b1 			; <UNDEFINED> instruction: 0x000002b1
     6f8:	0002ad25 	andeq	sl, r2, r5, lsr #26
     6fc:	25540100 	ldrbcs	r0, [r4, #-256]	; 0x100
     700:	000002a4 	andeq	r0, r0, r4, lsr #5
     704:	08007709 	stmdaeq	r0, {r0, r3, r8, r9, sl, ip, sp, lr}
     708:	ff081a20 			; <UNDEFINED> instruction: 0xff081a20
     70c:	99259f1a 	stmdbls	r5!, {r1, r3, r4, r8, r9, sl, fp, ip, pc}
     710:	01000002 	tsteq	r0, r2
     714:	025f2356 	subseq	r2, pc, #1476395009	; 0x58000001
     718:	81000000 	mrshi	r0, (UNDEF: 0)
     71c:	00100000 	andseq	r0, r0, r0
     720:	1a020000 	bne	80728 <__bss_end__+0x73e70>
     724:	0000074c 	andeq	r0, r0, ip, asr #14
     728:	00027624 	andeq	r7, r2, r4, lsr #12
     72c:	0002db00 	andeq	sp, r2, r0, lsl #22
     730:	026b2500 	rsbeq	r2, fp, #0, 10
     734:	54010000 	strpl	r0, [r1], #-0
     738:	00810027 	addeq	r0, r1, r7, lsr #32
     73c:	00000400 	andeq	r0, r0, r0, lsl #8
     740:	02802800 	addeq	r2, r0, #0, 16
     744:	03050000 	movweq	r0, #20480	; 0x5000
     748:	00000000 	andeq	r0, r0, r0
     74c:	00810029 	addeq	r0, r1, r9, lsr #32
     750:	0015e000 	andseq	lr, r5, r0
     754:	51012a00 	tstpl	r1, r0, lsl #20
     758:	08007705 	stmdaeq	r0, {r0, r2, r8, r9, sl, ip, sp, lr}
     75c:	012a1a20 	teqeq	sl, r0, lsr #20
     760:	00760250 	rsbseq	r0, r6, r0, asr r2
     764:	8d230000 	stchi	0, cr0, [r3, #-0]
     768:	14000002 	strne	r0, [r0], #-2
     76c:	1c000081 	stcne	0, cr0, [r0], {129}	; 0x81
     770:	01000000 	mrseq	r0, (UNDEF: 0)
     774:	0007f030 	andeq	pc, r7, r0, lsr r0	; <UNPREDICTABLE>
     778:	02b82400 	adcseq	r2, r8, #0, 8
     77c:	03180000 	tsteq	r8, #0
     780:	ad250000 	stcge	0, cr0, [r5, #-0]
     784:	01000002 	tsteq	r0, r2
     788:	02a42554 	adceq	r2, r4, #84, 10	; 0x15000000
     78c:	77090000 	strvc	r0, [r9, -r0]
     790:	1a400800 	bne	1002798 <__bss_end__+0xff5ee0>
     794:	9f1aff08 	svcls	0x001aff08
     798:	00029925 	andeq	r9, r2, r5, lsr #18
     79c:	23560100 	cmpcs	r6, #0, 2
     7a0:	0000025f 	andeq	r0, r0, pc, asr r2
     7a4:	00008120 	andeq	r8, r0, r0, lsr #2
     7a8:	00000010 	andeq	r0, r0, r0, lsl r0
     7ac:	07d61a02 	ldrbeq	r1, [r6, r2, lsl #20]
     7b0:	76240000 	strtvc	r0, [r4], -r0
     7b4:	3a000002 	bcc	7c4 <_start-0x783c>
     7b8:	25000003 	strcs	r0, [r0, #-3]
     7bc:	0000026b 	andeq	r0, r0, fp, ror #4
     7c0:	20275401 	eorcs	r5, r7, r1, lsl #8
     7c4:	04000081 	streq	r0, [r0], #-129	; 0x81
     7c8:	28000000 	stmdacs	r0, {}	; <UNPREDICTABLE>
     7cc:	00000280 	andeq	r0, r0, r0, lsl #5
     7d0:	0000035c 	andeq	r0, r0, ip, asr r3
     7d4:	20290000 	eorcs	r0, r9, r0
     7d8:	e0000081 	and	r0, r0, r1, lsl #1
     7dc:	2a000015 	bcs	838 <_start-0x77c8>
     7e0:	77055101 	strvc	r5, [r5, -r1, lsl #2]
     7e4:	1a400800 	bne	10027ec <__bss_end__+0xff5f34>
     7e8:	0250012a 	subseq	r0, r0, #-2147483638	; 0x8000000a
     7ec:	00000076 	andeq	r0, r0, r6, ror r0
     7f0:	00028d23 	andeq	r8, r2, r3, lsr #26
     7f4:	00813400 	addeq	r3, r1, r0, lsl #8
     7f8:	00001c00 	andeq	r1, r0, r0, lsl #24
     7fc:	70320100 	eorsvc	r0, r2, r0, lsl #2
     800:	25000008 	strcs	r0, [r0, #-8]
     804:	000002b8 			; <UNDEFINED> instruction: 0x000002b8
     808:	ad255801 	stcge	8, cr5, [r5, #-4]!
     80c:	01000002 	tsteq	r0, r2
     810:	02a42454 	adceq	r2, r4, #84, 8	; 0x54000000
     814:	036f0000 	cmneq	pc, #0
     818:	99250000 	stmdbls	r5!, {}	; <UNPREDICTABLE>
     81c:	01000002 	tsteq	r0, r2
     820:	025f2356 	subseq	r2, pc, #1476395009	; 0x58000001
     824:	81400000 	mrshi	r0, (UNDEF: 64)
     828:	00100000 	andseq	r0, r0, r0
     82c:	1a020000 	bne	80834 <__bss_end__+0x73f7c>
     830:	00000856 	andeq	r0, r0, r6, asr r8
     834:	00027625 	andeq	r7, r2, r5, lsr #12
     838:	25580100 	ldrbcs	r0, [r8, #-256]	; 0x100
     83c:	0000026b 	andeq	r0, r0, fp, ror #4
     840:	40275401 	eormi	r5, r7, r1, lsl #8
     844:	04000081 	streq	r0, [r0], #-129	; 0x81
     848:	28000000 	stmdacs	r0, {}	; <UNPREDICTABLE>
     84c:	00000280 	andeq	r0, r0, r0, lsl #5
     850:	000003a2 	andeq	r0, r0, r2, lsr #7
     854:	40290000 	eormi	r0, r9, r0
     858:	e0000081 	and	r0, r0, r1, lsl #1
     85c:	2a000015 	bcs	8b8 <_start-0x7748>
     860:	77055101 	strvc	r5, [r5, -r1, lsl #2]
     864:	1a800800 	bne	fe00286c <__bss_end__+0xfdff5fb4>
     868:	0250012a 	subseq	r0, r0, #-2147483638	; 0x8000000a
     86c:	00000076 	andeq	r0, r0, r6, ror r0
     870:	00028d2b 	andeq	r8, r2, fp, lsr #26
     874:	00815400 	addeq	r5, r1, r0, lsl #8
     878:	00001c00 	andeq	r1, r0, r0, lsl #24
     87c:	25340100 	ldrcs	r0, [r4, #-256]!	; 0x100
     880:	000002b8 			; <UNDEFINED> instruction: 0x000002b8
     884:	ad255501 	cfstr32ge	mvfx5, [r5, #-4]!
     888:	01000002 	tsteq	r0, r2
     88c:	02a42654 	adceq	r2, r4, #84, 12	; 0x5400000
     890:	25010000 	strcs	r0, [r1, #-0]
     894:	00000299 	muleq	r0, r9, r2
     898:	5f235601 	svcpl	0x00235601
     89c:	60000002 	andvs	r0, r0, r2
     8a0:	10000081 	andne	r0, r0, r1, lsl #1
     8a4:	02000000 	andeq	r0, r0, #0
     8a8:	0008cf1a 	andeq	ip, r8, sl, lsl pc
     8ac:	02762500 	rsbseq	r2, r6, #0, 10
     8b0:	55010000 	strpl	r0, [r1, #-0]
     8b4:	00026b25 	andeq	r6, r2, r5, lsr #22
     8b8:	27540100 	ldrbcs	r0, [r4, -r0, lsl #2]
     8bc:	00008160 	andeq	r8, r0, r0, ror #2
     8c0:	00000004 	andeq	r0, r0, r4
     8c4:	00028028 	andeq	r8, r2, r8, lsr #32
     8c8:	0003b500 	andeq	fp, r3, r0, lsl #10
     8cc:	29000000 	stmdbcs	r0, {}	; <UNPREDICTABLE>
     8d0:	00008160 	andeq	r8, r0, r0, ror #2
     8d4:	000015e0 	andeq	r1, r0, r0, ror #11
     8d8:	0151012a 	cmpeq	r1, sl, lsr #2
     8dc:	50012a31 	andpl	r2, r1, r1, lsr sl
     8e0:	00007602 	andeq	r7, r0, r2, lsl #12
     8e4:	04060000 	streq	r0, [r6], #-0
     8e8:	000001f2 	strdeq	r0, [r0], -r2
     8ec:	00049615 	andeq	r9, r4, r5, lsl r6
     8f0:	25390100 	ldrcs	r0, [r9, #-256]!	; 0x100
     8f4:	03000000 	movweq	r0, #0
     8f8:	00000926 	andeq	r0, r0, r6, lsr #18
     8fc:	00787216 	rsbseq	r7, r8, r6, lsl r2
     900:	00253901 	eoreq	r3, r5, r1, lsl #18
     904:	76160000 	ldrvc	r0, [r6], -r0
     908:	25390100 	ldrcs	r0, [r9, #-256]!	; 0x100
     90c:	18000000 	stmdane	r0, {}	; <UNPREDICTABLE>
     910:	000001d9 	ldrdeq	r0, [r0], -r9
     914:	002c3901 	eoreq	r3, ip, r1, lsl #18
     918:	0d1a0000 	ldceq	0, cr0, [sl, #-0]
     91c:	01000007 	tsteq	r0, r7
     920:	00002c3a 	andeq	r2, r0, sl, lsr ip
     924:	d02c0000 	eorle	r0, ip, r0
     928:	01000000 	mrseq	r0, (UNDEF: 0)
     92c:	00002546 	andeq	r2, r0, r6, asr #10
     930:	00818400 	addeq	r8, r1, r0, lsl #8
     934:	00018000 	andeq	r8, r1, r0
     938:	7a9c0100 	bvc	fe700d40 <__bss_end__+0xfe6f4488>
     93c:	1c00000c 	stcne	0, cr0, [r0], {12}
     940:	000002b5 			; <UNDEFINED> instruction: 0x000002b5
     944:	08e64601 	stmiaeq	r6!, {r0, r9, sl, lr}^
     948:	03c80000 	biceq	r0, r8, #0
     94c:	d91c0000 	ldmdble	ip, {}	; <UNPREDICTABLE>
     950:	01000001 	tsteq	r0, r1
     954:	00002546 	andeq	r2, r0, r6, asr #10
     958:	0003e900 	andeq	lr, r3, r0, lsl #18
     95c:	78721e00 	ldmdavc	r2!, {r9, sl, fp, ip}^
     960:	25470100 	strbcs	r0, [r7, #-256]	; 0x100
     964:	01000000 	mrseq	r0, (UNDEF: 0)
     968:	00731f55 	rsbseq	r1, r3, r5, asr pc
     96c:	002c4c01 	eoreq	r4, ip, r1, lsl #24
     970:	04070000 	streq	r0, [r7], #-0
     974:	751f0000 	ldrvc	r0, [pc, #-0]	; 97c <_start-0x7684>
     978:	684f0100 	stmdavs	pc, {r8}^	; <UNPREDICTABLE>
     97c:	1a000000 	bne	984 <_start-0x767c>
     980:	1f000004 	svcne	0x00000004
     984:	5001006e 	andpl	r0, r1, lr, rrx
     988:	0000002c 	andeq	r0, r0, ip, lsr #32
     98c:	0000042d 	andeq	r0, r0, sp, lsr #8
     990:	0100631f 	tsteq	r0, pc, lsl r3
     994:	00002c51 	andeq	r2, r0, r1, asr ip
     998:	00044400 	andeq	r4, r4, r0, lsl #8
     99c:	81942200 	orrshi	r2, r4, r0, lsl #4
     9a0:	00040000 	andeq	r0, r4, r0
     9a4:	09ba0000 	ldmibeq	sl!, {}	; <UNPREDICTABLE>
     9a8:	fb2d0000 	blx	b409b2 <__bss_end__+0xb340fa>
     9ac:	01000000 	mrseq	r0, (UNDEF: 0)
     9b0:	00002c4c 	andeq	r2, r0, ip, asr #24
     9b4:	00046300 	andeq	r6, r4, r0, lsl #6
     9b8:	5f230000 	svcpl	0x00230000
     9bc:	a0000002 	andge	r0, r0, r2
     9c0:	10000081 	andne	r0, r0, r1, lsl #1
     9c4:	01000000 	mrseq	r0, (UNDEF: 0)
     9c8:	0009f352 	andeq	pc, r9, r2, asr r3	; <UNPREDICTABLE>
     9cc:	02762400 	rsbseq	r2, r6, #0, 8
     9d0:	04760000 	ldrbteq	r0, [r6], #-0
     9d4:	6b240000 	blvs	9009dc <__bss_end__+0x8f4124>
     9d8:	9b000002 	blls	9e8 <_start-0x7618>
     9dc:	27000004 	strcs	r0, [r0, -r4]
     9e0:	000081a0 	andeq	r8, r0, r0, lsr #3
     9e4:	00000004 	andeq	r0, r0, r4
     9e8:	00028028 	andeq	r8, r2, r8, lsr #32
     9ec:	0004ae00 	andeq	sl, r4, r0, lsl #28
     9f0:	23000000 	movwcs	r0, #0
     9f4:	0000025f 	andeq	r0, r0, pc, asr r2
     9f8:	000081c0 	andeq	r8, r0, r0, asr #3
     9fc:	00000010 	andeq	r0, r0, r0, lsl r0
     a00:	0a2c5501 	beq	b15e0c <__bss_end__+0xb09554>
     a04:	76240000 	strtvc	r0, [r4], -r0
     a08:	c1000002 	tstgt	r0, r2
     a0c:	24000004 	strcs	r0, [r0], #-4
     a10:	0000026b 	andeq	r0, r0, fp, ror #4
     a14:	000004d4 	ldrdeq	r0, [r0], -r4
     a18:	0081c027 	addeq	ip, r1, r7, lsr #32
     a1c:	00000400 	andeq	r0, r0, r0, lsl #8
     a20:	02802800 	addeq	r2, r0, #0, 16
     a24:	04e70000 	strbteq	r0, [r7], #0
     a28:	00000000 	andeq	r0, r0, r0
     a2c:	00025f23 	andeq	r5, r2, r3, lsr #30
     a30:	0081e400 	addeq	lr, r1, r0, lsl #8
     a34:	00001000 	andeq	r1, r0, r0
     a38:	65580100 	ldrbvs	r0, [r8, #-256]	; 0x100
     a3c:	2400000a 	strcs	r0, [r0], #-10
     a40:	00000276 	andeq	r0, r0, r6, ror r2
     a44:	000004fa 	strdeq	r0, [r0], -sl
     a48:	00026b24 	andeq	r6, r2, r4, lsr #22
     a4c:	00050d00 	andeq	r0, r5, r0, lsl #26
     a50:	81e42700 	mvnhi	r2, r0, lsl #14
     a54:	00040000 	andeq	r0, r4, r0
     a58:	80280000 	eorhi	r0, r8, r0
     a5c:	20000002 	andcs	r0, r0, r2
     a60:	00000005 	andeq	r0, r0, r5
     a64:	025f2300 	subseq	r2, pc, #0, 6
     a68:	82080000 	andhi	r0, r8, #0
     a6c:	00100000 	andseq	r0, r0, r0
     a70:	5b010000 	blpl	40a78 <__bss_end__+0x341c0>
     a74:	00000a9e 	muleq	r0, lr, sl
     a78:	00027624 	andeq	r7, r2, r4, lsr #12
     a7c:	00053300 	andeq	r3, r5, r0, lsl #6
     a80:	026b2400 	rsbeq	r2, fp, #0, 8
     a84:	05460000 	strbeq	r0, [r6, #-0]
     a88:	08270000 	stmdaeq	r7!, {}	; <UNPREDICTABLE>
     a8c:	04000082 	streq	r0, [r0], #-130	; 0x82
     a90:	28000000 	stmdacs	r0, {}	; <UNPREDICTABLE>
     a94:	00000280 	andeq	r0, r0, r0, lsl #5
     a98:	00000559 	andeq	r0, r0, r9, asr r5
     a9c:	5f230000 	svcpl	0x00230000
     aa0:	2c000002 	stccs	0, cr0, [r0], {2}
     aa4:	10000082 	andne	r0, r0, r2, lsl #1
     aa8:	01000000 	mrseq	r0, (UNDEF: 0)
     aac:	000ad75e 	andeq	sp, sl, lr, asr r7
     ab0:	02762400 	rsbseq	r2, r6, #0, 8
     ab4:	056c0000 	strbeq	r0, [ip, #-0]!
     ab8:	6b240000 	blvs	900ac0 <__bss_end__+0x8f4208>
     abc:	7f000002 	svcvc	0x00000002
     ac0:	27000005 	strcs	r0, [r0, -r5]
     ac4:	0000822c 	andeq	r8, r0, ip, lsr #4
     ac8:	00000004 	andeq	r0, r0, r4
     acc:	00028028 	andeq	r8, r2, r8, lsr #32
     ad0:	00059200 	andeq	r9, r5, r0, lsl #4
     ad4:	23000000 	movwcs	r0, #0
     ad8:	0000025f 	andeq	r0, r0, pc, asr r2
     adc:	00008250 	andeq	r8, r0, r0, asr r2
     ae0:	00000010 	andeq	r0, r0, r0, lsl r0
     ae4:	0b106101 	bleq	418ef0 <__bss_end__+0x40c638>
     ae8:	76240000 	strtvc	r0, [r4], -r0
     aec:	a5000002 	strge	r0, [r0, #-2]
     af0:	24000005 	strcs	r0, [r0], #-5
     af4:	0000026b 	andeq	r0, r0, fp, ror #4
     af8:	000005b8 			; <UNDEFINED> instruction: 0x000005b8
     afc:	00825027 	addeq	r5, r2, r7, lsr #32
     b00:	00000400 	andeq	r0, r0, r0, lsl #8
     b04:	02802800 	addeq	r2, r0, #0, 16
     b08:	05cb0000 	strbeq	r0, [fp]
     b0c:	00000000 	andeq	r0, r0, r0
     b10:	00025f23 	andeq	r5, r2, r3, lsr #30
     b14:	00827400 	addeq	r7, r2, r0, lsl #8
     b18:	00001000 	andeq	r1, r0, r0
     b1c:	49640100 	stmdbmi	r4!, {r8}^
     b20:	2400000b 	strcs	r0, [r0], #-11
     b24:	00000276 	andeq	r0, r0, r6, ror r2
     b28:	000005de 	ldrdeq	r0, [r0], -lr
     b2c:	00026b24 	andeq	r6, r2, r4, lsr #22
     b30:	0005f100 	andeq	pc, r5, r0, lsl #2
     b34:	82742700 	rsbshi	r2, r4, #0, 14
     b38:	00040000 	andeq	r0, r4, r0
     b3c:	80280000 	eorhi	r0, r8, r0
     b40:	04000002 	streq	r0, [r0], #-2
     b44:	00000006 	andeq	r0, r0, r6
     b48:	025f2300 	subseq	r2, pc, #0, 6
     b4c:	82980000 	addshi	r0, r8, #0
     b50:	00100000 	andseq	r0, r0, r0
     b54:	67010000 	strvs	r0, [r1, -r0]
     b58:	00000b7e 	andeq	r0, r0, lr, ror fp
     b5c:	00027624 	andeq	r7, r2, r4, lsr #12
     b60:	00061700 	andeq	r1, r6, r0, lsl #14
     b64:	026b2e00 	rsbeq	r2, fp, #0, 28
     b68:	98270000 	stmdals	r7!, {}	; <UNPREDICTABLE>
     b6c:	04000082 	streq	r0, [r0], #-130	; 0x82
     b70:	28000000 	stmdacs	r0, {}	; <UNPREDICTABLE>
     b74:	00000280 	andeq	r0, r0, r0, lsl #5
     b78:	0000062a 	andeq	r0, r0, sl, lsr #12
     b7c:	ec230000 	stc	0, cr0, [r3], #-0
     b80:	b8000008 	stmdalt	r0, {r3}
     b84:	34000082 	strcc	r0, [r0], #-130	; 0x82
     b88:	01000000 	mrseq	r0, (UNDEF: 0)
     b8c:	000bdd6e 	andeq	sp, fp, lr, ror #26
     b90:	090f2500 	stmdbeq	pc, {r8, sl, sp}	; <UNPREDICTABLE>
     b94:	57010000 	strpl	r0, [r1, -r0]
     b98:	00090626 	andeq	r0, r9, r6, lsr #12
     b9c:	fc250000 	stc2	0, cr0, [r5], #-0
     ba0:	01000008 	tsteq	r0, r8
     ba4:	82b82755 	adcshi	r2, r8, #22282240	; 0x1540000
     ba8:	00340000 	eorseq	r0, r4, r0
     bac:	1a2f0000 	bne	bc0bb4 <__bss_end__+0xbb42fc>
     bb0:	01000009 	tsteq	r0, r9
     bb4:	82bc3054 	adcshi	r3, ip, #84	; 0x54
     bb8:	15f60000 	ldrbne	r0, [r6, #0]!
     bbc:	c8310000 	ldmdagt	r1!, {}	; <UNPREDICTABLE>
     bc0:	01000082 	smlabbeq	r0, r2, r0, r0
     bc4:	d2000016 	andle	r0, r0, #22
     bc8:	2a00000b 	bcs	bfc <_start-0x7404>
     bcc:	75025001 	strvc	r5, [r2, #-1]
     bd0:	d4300000 	ldrtle	r0, [r0], #-0
     bd4:	f6000082 			; <UNDEFINED> instruction: 0xf6000082
     bd8:	00000015 	andeq	r0, r0, r5, lsl r0
     bdc:	81bc3100 			; <UNDEFINED> instruction: 0x81bc3100
     be0:	16010000 	strne	r0, [r1], -r0
     be4:	0bf10000 	bleq	ffc40bec <__bss_end__+0xffc34334>
     be8:	012a0000 	teqeq	sl, r0
     bec:	00750250 	rsbseq	r0, r5, r0, asr r2
     bf0:	81dc3100 	bicshi	r3, ip, r0, lsl #2
     bf4:	16010000 	strne	r0, [r1], -r0
     bf8:	0c050000 	stceq	0, cr0, [r5], {-0}
     bfc:	012a0000 	teqeq	sl, r0
     c00:	00750250 	rsbseq	r0, r5, r0, asr r2
     c04:	82003100 	andhi	r3, r0, #0, 2
     c08:	16010000 	strne	r0, [r1], -r0
     c0c:	0c190000 	ldceq	0, cr0, [r9], {-0}
     c10:	012a0000 	teqeq	sl, r0
     c14:	00750250 	rsbseq	r0, r5, r0, asr r2
     c18:	82243100 	eorhi	r3, r4, #0, 2
     c1c:	16010000 	strne	r0, [r1], -r0
     c20:	0c2d0000 	stceq	0, cr0, [sp], #-0
     c24:	012a0000 	teqeq	sl, r0
     c28:	00750250 	rsbseq	r0, r5, r0, asr r2
     c2c:	82483100 	subhi	r3, r8, #0, 2
     c30:	16010000 	strne	r0, [r1], -r0
     c34:	0c410000 	mareq	acc0, r0, r1
     c38:	012a0000 	teqeq	sl, r0
     c3c:	00750250 	rsbseq	r0, r5, r0, asr r2
     c40:	826c3100 	rsbhi	r3, ip, #0, 2
     c44:	16010000 	strne	r0, [r1], -r0
     c48:	0c550000 	mraeq	r0, r5, acc0
     c4c:	012a0000 	teqeq	sl, r0
     c50:	00750250 	rsbseq	r0, r5, r0, asr r2
     c54:	82903100 	addshi	r3, r0, #0, 2
     c58:	16010000 	strne	r0, [r1], -r0
     c5c:	0c690000 	stcleq	0, cr0, [r9], #-0
     c60:	012a0000 	teqeq	sl, r0
     c64:	00750250 	rsbseq	r0, r5, r0, asr r2
     c68:	82b02900 	adcshi	r2, r0, #0, 18
     c6c:	16010000 	strne	r0, [r1], -r0
     c70:	012a0000 	teqeq	sl, r0
     c74:	00750250 	rsbseq	r0, r5, r0, asr r2
     c78:	e52c0000 	str	r0, [ip, #-0]!
     c7c:	01000000 	mrseq	r0, (UNDEF: 0)
     c80:	00002579 	andeq	r2, r0, r9, ror r5
     c84:	00830400 	addeq	r0, r3, r0, lsl #8
     c88:	00008c00 	andeq	r8, r0, r0, lsl #24
     c8c:	559c0100 	ldrpl	r0, [ip, #256]	; 0x100
     c90:	1d00000d 	stcne	0, cr0, [r0, #-52]	; 0xffffffcc
     c94:	79010075 	stmdbvc	r1, {r0, r2, r4, r5, r6}
     c98:	000008e6 	andeq	r0, r0, r6, ror #17
     c9c:	0000063d 	andeq	r0, r0, sp, lsr r6
     ca0:	6675621d 			; <UNDEFINED> instruction: 0x6675621d
     ca4:	55790100 	ldrbpl	r0, [r9, #-256]!	; 0x100
     ca8:	7100000d 	tstvc	r0, sp
     cac:	1c000006 	stcne	0, cr0, [r0], {6}
     cb0:	000002ba 			; <UNDEFINED> instruction: 0x000002ba
     cb4:	00687901 	rsbeq	r7, r8, r1, lsl #18
     cb8:	06a50000 	strteq	r0, [r5], r0
     cbc:	651d0000 	ldrvs	r0, [sp, #-0]
     cc0:	0100646e 	tsteq	r0, lr, ror #8
     cc4:	00004f79 	andeq	r4, r0, r9, ror pc
     cc8:	0006de00 	andeq	sp, r6, r0, lsl #28
     ccc:	01473200 	mrseq	r3, (UNDEF: 103)
     cd0:	79010000 	stmdbvc	r1, {}	; <UNPREDICTABLE>
     cd4:	00000068 	andeq	r0, r0, r8, rrx
     cd8:	33009102 	movwcc	r9, #258	; 0x102
     cdc:	0000018e 	andeq	r0, r0, lr, lsl #3
     ce0:	00000d6b 	andeq	r0, r0, fp, ror #26
     ce4:	9ee00305 	cdpls	3, 14, cr0, cr0, cr5, {0}
     ce8:	691f0000 	ldmdbvs	pc, {}	; <UNPREDICTABLE>
     cec:	257d0100 	ldrbcs	r0, [sp, #-256]!	; 0x100
     cf0:	18000000 	stmdane	r0, {}	; <UNPREDICTABLE>
     cf4:	2d000007 	stccs	0, cr0, [r0, #-28]	; 0xffffffe4
     cf8:	00000243 	andeq	r0, r0, r3, asr #4
     cfc:	004f7e01 	subeq	r7, pc, r1, lsl #28
     d00:	07370000 	ldreq	r0, [r7, -r0]!
     d04:	34310000 	ldrtcc	r0, [r1], #-0
     d08:	16000083 	strne	r0, [r0], -r3, lsl #1
     d0c:	35000016 	strcc	r0, [r0, #-22]
     d10:	2a00000d 	bcs	d4c <_start-0x72b4>
     d14:	08025301 	stmdaeq	r2, {r0, r8, r9, ip, lr}
     d18:	52012a7a 	andpl	r2, r1, #499712	; 0x7a000
     d1c:	9ee00305 	cdpls	3, 14, cr0, cr0, cr5, {0}
     d20:	012a0000 	teqeq	sl, r0
     d24:	88030551 	stmdahi	r3, {r0, r4, r6, r8, sl}
     d28:	2a00009f 	bcs	fac <_start-0x7054>
     d2c:	03055001 	movweq	r5, #20481	; 0x5001
     d30:	00009f6c 	andeq	r9, r0, ip, ror #30
     d34:	83383000 	teqhi	r8, #0
     d38:	162c0000 	strtne	r0, [ip], -r0
     d3c:	54290000 	strtpl	r0, [r9], #-0
     d40:	26000083 	strcs	r0, [r0], -r3, lsl #1
     d44:	2a000009 	bcs	d70 <_start-0x7290>
     d48:	7a025101 	bvc	95154 <__bss_end__+0x8889c>
     d4c:	50012a00 	andpl	r2, r1, r0, lsl #20
     d50:	00007802 	andeq	r7, r0, r2, lsl #16
     d54:	4f040600 	svcmi	0x00040600
     d58:	0e000000 	cdpeq	0, 0, cr0, cr0, cr0, {0}
     d5c:	00000090 	muleq	r0, r0, r0
     d60:	00000d6b 	andeq	r0, r0, fp, ror #26
     d64:	00008134 	andeq	r8, r0, r4, lsr r1
     d68:	07001200 	streq	r1, [r0, -r0, lsl #4]
     d6c:	00000d5b 	andeq	r0, r0, fp, asr sp
     d70:	00026b2c 	andeq	r6, r2, ip, lsr #22
     d74:	258d0100 	strcs	r0, [sp, #256]	; 0x100
     d78:	90000000 	andls	r0, r0, r0
     d7c:	78000083 	stmdavc	r0, {r0, r1, r7}
     d80:	01000000 	mrseq	r0, (UNDEF: 0)
     d84:	000e2e9c 	muleq	lr, ip, lr
     d88:	00751d00 	rsbseq	r1, r5, r0, lsl #26
     d8c:	08e68d01 	stmiaeq	r6!, {r0, r8, sl, fp, pc}^
     d90:	074a0000 	strbeq	r0, [sl, -r0]
     d94:	621d0000 	andsvs	r0, sp, #0
     d98:	01006675 	tsteq	r0, r5, ror r6
     d9c:	000d558d 	andeq	r5, sp, sp, lsl #11
     da0:	00077e00 	andeq	r7, r7, r0, lsl #28
     da4:	02ba1c00 	adcseq	r1, sl, #0, 24
     da8:	8e010000 	cdphi	0, 0, cr0, cr1, cr0, {0}
     dac:	00000068 	andeq	r0, r0, r8, rrx
     db0:	000007b2 			; <UNDEFINED> instruction: 0x000007b2
     db4:	0001471c 	andeq	r4, r1, ip, lsl r7
     db8:	688e0100 	stmvs	lr, {r8}
     dbc:	eb000000 	bl	dc4 <_start-0x723c>
     dc0:	33000007 	movwcc	r0, #7
     dc4:	0000018e 	andeq	r0, r0, lr, lsl #3
     dc8:	00000e3e 	andeq	r0, r0, lr, lsr lr
     dcc:	9ef40305 	cdpls	3, 15, cr0, cr4, cr5, {0}
     dd0:	691f0000 	ldmdbvs	pc, {}	; <UNPREDICTABLE>
     dd4:	25930100 	ldrcs	r0, [r3, #256]	; 0x100
     dd8:	1f000000 	svcne	0x00000000
     ddc:	31000008 	tstcc	r0, r8
     de0:	000083bc 			; <UNDEFINED> instruction: 0x000083bc
     de4:	00001616 	andeq	r1, r0, r6, lsl r6
     de8:	00000e0e 	andeq	r0, r0, lr, lsl #28
     dec:	0253012a 	subseq	r0, r3, #-2147483638	; 0x8000000a
     df0:	012a9008 	teqeq	sl, r8
     df4:	f4030552 	vst3.16	{d0,d2,d4}, [r3 :64], r2
     df8:	2a00009e 	bcs	1078 <_start-0x6f88>
     dfc:	03055101 	movweq	r5, #20737	; 0x5101
     e00:	00009f88 	andeq	r9, r0, r8, lsl #31
     e04:	0550012a 	ldrbeq	r0, [r0, #-298]	; 0x12a
     e08:	009f6c03 	addseq	r6, pc, r3, lsl #24
     e0c:	c0300000 	eorsgt	r0, r0, r0
     e10:	2c000083 	stccs	0, cr0, [r0], {131}	; 0x83
     e14:	29000016 	stmdbcs	r0, {r1, r2, r4}
     e18:	000083dc 	ldrdeq	r8, [r0], -ip
     e1c:	00000926 	andeq	r0, r0, r6, lsr #18
     e20:	0251012a 	subseq	r0, r1, #-2147483638	; 0x8000000a
     e24:	012a0078 	teqeq	sl, r8, ror r0
     e28:	00770250 	rsbseq	r0, r7, r0, asr r2
     e2c:	900e0000 	andls	r0, lr, r0
     e30:	3e000000 	cdpcc	0, 0, cr0, cr0, cr0, {0}
     e34:	3400000e 	strcc	r0, [r0], #-14
     e38:	00000081 	andeq	r0, r0, r1, lsl #1
     e3c:	2e070014 	mcrcs	0, 0, r0, cr7, cr4, {0}
     e40:	2c00000e 	stccs	0, cr0, [r0], {14}
     e44:	000001c5 	andeq	r0, r0, r5, asr #3
     e48:	01f2a001 	mvnseq	sl, r1
     e4c:	84080000 	strhi	r0, [r8], #-0
     e50:	00bc0000 	adcseq	r0, ip, r0
     e54:	9c010000 	stcls	0, cr0, [r1], {-0}
     e58:	00000f55 	andeq	r0, r0, r5, asr pc
     e5c:	0078741d 	rsbseq	r7, r8, sp, lsl r4
     e60:	004fa001 	subeq	sl, pc, r1
     e64:	083e0000 	ldmdaeq	lr!, {}	; <UNPREDICTABLE>
     e68:	721d0000 	andsvc	r0, sp, #0
     e6c:	a0010078 	andge	r0, r1, r8, ror r0
     e70:	0000004f 	andeq	r0, r0, pc, asr #32
     e74:	0000085f 	andeq	r0, r0, pc, asr r8
     e78:	0003091c 	andeq	r0, r3, ip, lsl r9
     e7c:	68a00100 	stmiavs	r0!, {r8}
     e80:	80000000 	andhi	r0, r0, r0
     e84:	32000008 	andcc	r0, r0, #8
     e88:	00000072 	andeq	r0, r0, r2, ror r0
     e8c:	0068a001 	rsbeq	sl, r8, r1
     e90:	91020000 	mrsls	r0, (UNDEF: 2)
     e94:	686d3500 	stmdavs	sp!, {r8, sl, ip, sp}^
     e98:	a901007a 	stmdbge	r1, {r1, r3, r4, r5, r6}
     e9c:	0000002c 	andeq	r0, r0, ip, lsr #32
     ea0:	29b92700 	ldmibcs	r9!, {r8, r9, sl, sp}
     ea4:	0004562d 	andeq	r5, r4, sp, lsr #12
     ea8:	2caa0100 	stfcss	f0, [sl]
     eac:	9e000000 	cdpls	0, 0, cr0, cr0, cr0, {0}
     eb0:	33000008 	movwcc	r0, #8
     eb4:	0000018e 	andeq	r0, r0, lr, lsl #3
     eb8:	00000f65 	andeq	r0, r0, r5, ror #30
     ebc:	9f0c0305 	svcls	0x000c0305
     ec0:	30220000 	eorcc	r0, r2, r0
     ec4:	08000084 	stmdaeq	r0, {r2, r7}
     ec8:	db000000 	blle	ed0 <_start-0x7130>
     ecc:	3600000e 	strcc	r0, [r0], -lr
     ed0:	01006e69 	tsteq	r0, r9, ror #28
     ed4:	00002ca4 	andeq	r2, r0, r4, lsr #25
     ed8:	31000100 	mrscc	r0, (UNDEF: 16)
     edc:	00008428 	andeq	r8, r0, r8, lsr #8
     ee0:	00001633 	andeq	r1, r0, r3, lsr r6
     ee4:	00000eef 	andeq	r0, r0, pc, ror #29
     ee8:	0250012a 	subseq	r0, r0, #-2147483638	; 0x8000000a
     eec:	31000076 	tstcc	r0, r6, ror r0
     ef0:	00008430 	andeq	r8, r0, r0, lsr r4
     ef4:	00001644 	andeq	r1, r0, r4, asr #12
     ef8:	00000f03 	andeq	r0, r0, r3, lsl #30
     efc:	0250012a 	subseq	r0, r0, #-2147483638	; 0x8000000a
     f00:	31000078 	tstcc	r0, r8, ror r0
     f04:	00008444 	andeq	r8, r0, r4, asr #8
     f08:	000015e0 	andeq	r1, r0, r0, ror #11
     f0c:	00000f1c 	andeq	r0, r0, ip, lsl pc
     f10:	0151012a 	cmpeq	r1, sl, lsr #2
     f14:	50012a31 	andpl	r2, r1, r1, lsr sl
     f18:	00007602 	andeq	r7, r0, r2, lsl #12
     f1c:	00849831 	addeq	r9, r4, r1, lsr r8
     f20:	00161600 	andseq	r1, r6, r0, lsl #12
     f24:	000f4b00 	andeq	r4, pc, r0, lsl #22
     f28:	53012a00 	movwpl	r2, #6656	; 0x1a00
     f2c:	2aab0802 	bcs	feac2f3c <__bss_end__+0xfeab6684>
     f30:	03055201 	movweq	r5, #20993	; 0x5201
     f34:	00009f0c 	andeq	r9, r0, ip, lsl #30
     f38:	0551012a 	ldrbeq	r0, [r1, #-298]	; 0x12a
     f3c:	009f8803 	addseq	r8, pc, r3, lsl #16
     f40:	50012a00 	andpl	r2, r1, r0, lsl #20
     f44:	9f980305 	svcls	0x00980305
     f48:	30000000 	andcc	r0, r0, r0
     f4c:	0000849c 	muleq	r0, ip, r4
     f50:	0000162c 	andeq	r1, r0, ip, lsr #12
     f54:	00900e00 	addseq	r0, r0, r0, lsl #28
     f58:	0f650000 	svceq	0x00650000
     f5c:	81340000 	teqhi	r4, r0
     f60:	13000000 	movwne	r0, #0
     f64:	0f550700 	svceq	0x00550700
     f68:	3a2c0000 	bcc	b00f70 <__bss_end__+0xaf46b8>
     f6c:	01000001 	tsteq	r0, r1
     f70:	000025b7 			; <UNDEFINED> instruction: 0x000025b7
     f74:	0084c400 	addeq	ip, r4, r0, lsl #8
     f78:	00003800 	andeq	r3, r0, r0, lsl #16
     f7c:	049c0100 	ldreq	r0, [ip], #256	; 0x100
     f80:	1c000010 	stcne	0, cr0, [r0], {16}
     f84:	000002b5 			; <UNDEFINED> instruction: 0x000002b5
     f88:	08e6b701 	stmiaeq	r6!, {r0, r8, r9, sl, ip, sp, pc}^
     f8c:	08cc0000 	stmiaeq	ip, {}^	; <UNPREDICTABLE>
     f90:	721f0000 	andsvc	r0, pc, #0
     f94:	01007365 	tsteq	r0, r5, ror #6
     f98:	000025b8 			; <UNDEFINED> instruction: 0x000025b8
     f9c:	0008ed00 	andeq	lr, r8, r0, lsl #26
     fa0:	018e3300 	orreq	r3, lr, r0, lsl #6
     fa4:	10140000 	andsne	r0, r4, r0
     fa8:	03050000 	movweq	r0, #20480	; 0x5000
     fac:	00009f20 	andeq	r9, r0, r0, lsr #30
     fb0:	0084d031 	addeq	sp, r4, r1, lsr r0
     fb4:	00092600 	andeq	r2, r9, r0, lsl #12
     fb8:	000fcb00 	andeq	ip, pc, r0, lsl #22
     fbc:	51012a00 	tstpl	r1, r0, lsl #20
     fc0:	2aff0902 	bcs	fffc33d0 <__bss_end__+0xfffb6b18>
     fc4:	f3035001 	vhadd.u8	d5, d3, d1
     fc8:	31005001 	tstcc	r0, r1
     fcc:	000084ec 	andeq	r8, r0, ip, ror #9
     fd0:	00001616 	andeq	r1, r0, r6, lsl r6
     fd4:	00000ffa 	strdeq	r0, [r0], -sl
     fd8:	0253012a 	subseq	r0, r3, #-2147483638	; 0x8000000a
     fdc:	012aba08 	teqeq	sl, r8, lsl #20
     fe0:	20030552 	andcs	r0, r3, r2, asr r5
     fe4:	2a00009f 	bcs	1268 <_start-0x6d98>
     fe8:	03055101 	movweq	r5, #20737	; 0x5101
     fec:	00009f88 	andeq	r9, r0, r8, lsl #31
     ff0:	0550012a 	ldrbeq	r0, [r0, #-298]	; 0x12a
     ff4:	009fdc03 	addseq	sp, pc, r3, lsl #24
     ff8:	f0300000 			; <UNDEFINED> instruction: 0xf0300000
     ffc:	2c000084 	stccs	0, cr0, [r0], {132}	; 0x84
    1000:	00000016 	andeq	r0, r0, r6, lsl r0
    1004:	0000900e 	andeq	r9, r0, lr
    1008:	00101400 	andseq	r1, r0, r0, lsl #8
    100c:	00813400 	addeq	r3, r1, r0, lsl #8
    1010:	000c0000 	andeq	r0, ip, r0
    1014:	00100407 	andseq	r0, r0, r7, lsl #8
    1018:	01f81b00 	mvnseq	r1, r0, lsl #22
    101c:	be010000 	cdplt	0, 0, cr0, cr1, cr0, {0}
    1020:	000084fc 	strdeq	r8, [r0], -ip
    1024:	0000002c 	andeq	r0, r0, ip, lsr #32
    1028:	105d9c01 	subsne	r9, sp, r1, lsl #24
    102c:	b51c0000 	ldrlt	r0, [ip, #-0]
    1030:	01000002 	tsteq	r0, r2
    1034:	0008e6be 			; <UNDEFINED> instruction: 0x0008e6be
    1038:	00090000 	andeq	r0, r9, r0
    103c:	736d1d00 	cmnvc	sp, #0, 26
    1040:	be010067 	cdplt	0, 0, cr0, cr1, cr7, {3}
    1044:	00000097 	muleq	r0, r7, r0
    1048:	0000091e 	andeq	r0, r0, lr, lsl r9
    104c:	00851429 	addeq	r1, r5, r9, lsr #8
    1050:	00030c00 	andeq	r0, r3, r0, lsl #24
    1054:	50012a00 	andpl	r2, r1, r0, lsl #20
    1058:	00007502 	andeq	r7, r0, r2, lsl #10
    105c:	020f2c00 	andeq	r2, pc, #0, 24
    1060:	c7010000 	strgt	r0, [r1, -r0]
    1064:	00000025 	andeq	r0, r0, r5, lsr #32
    1068:	00008528 	andeq	r8, r0, r8, lsr #10
    106c:	00000080 	andeq	r0, r0, r0, lsl #1
    1070:	11489c01 	cmpne	r8, r1, lsl #24
    1074:	b51c0000 	ldrlt	r0, [ip, #-0]
    1078:	01000002 	tsteq	r0, r2
    107c:	0008e6c7 	andeq	lr, r8, r7, asr #13
    1080:	00093c00 	andeq	r3, r9, r0, lsl #24
    1084:	6d663700 	stclvs	7, cr3, [r6, #-0]
    1088:	c7010074 	smlsdxgt	r1, r4, r0, r0
    108c:	00000097 	muleq	r0, r7, r0
    1090:	38749102 	ldmdacc	r4!, {r1, r8, ip, pc}^
    1094:	6675621e 			; <UNDEFINED> instruction: 0x6675621e
    1098:	48c80100 	stmiami	r8, {r8}^
    109c:	03000011 	movweq	r0, #17
    10a0:	217c9c91 			; <UNDEFINED> instruction: 0x217c9c91
    10a4:	000004eb 	andeq	r0, r0, fp, ror #9
    10a8:	0234ca01 	eorseq	ip, r4, #4096	; 0x1000
    10ac:	91030000 	mrsls	r0, (UNDEF: 3)
    10b0:	731f7c98 	tstvc	pc, #152, 24	; 0x9800
    10b4:	cc01007a 	stcgt	0, cr0, [r1], {122}	; 0x7a
    10b8:	00000025 	andeq	r0, r0, r5, lsr #32
    10bc:	00000968 	andeq	r0, r0, r8, ror #18
    10c0:	00018e33 	andeq	r8, r1, r3, lsr lr
    10c4:	00116900 	andseq	r6, r1, r0, lsl #18
    10c8:	30030500 	andcc	r0, r3, r0, lsl #10
    10cc:	3100009f 	swpcc	r0, pc, [r0]	; <UNPREDICTABLE>
    10d0:	00008550 	andeq	r8, r0, r0, asr r5
    10d4:	00001655 	andeq	r1, r0, r5, asr r6
    10d8:	000010f8 	strdeq	r1, [r0], -r8
    10dc:	0253012a 	subseq	r0, r3, #-2147483638	; 0x8000000a
    10e0:	012a5891 			; <UNDEFINED> instruction: 0x012a5891
    10e4:	54910352 	ldrpl	r0, [r1], #850	; 0x352
    10e8:	51012a06 	tstpl	r1, r6, lsl #20
    10ec:	01cc0a03 	biceq	r0, ip, r3, lsl #20
    10f0:	0350012a 	cmpeq	r0, #-2147483638	; 0x8000000a
    10f4:	007bfc91 			; <UNDEFINED> instruction: 0x007bfc91
    10f8:	00857431 	addeq	r7, r5, r1, lsr r4
    10fc:	00161600 	andseq	r1, r6, r0, lsl #12
    1100:	00112700 	andseq	r2, r1, r0, lsl #14
    1104:	53012a00 	movwpl	r2, #6656	; 0x1a00
    1108:	2ace0802 	bcs	ff383118 <__bss_end__+0xff376860>
    110c:	03055201 	movweq	r5, #20993	; 0x5201
    1110:	00009f30 	andeq	r9, r0, r0, lsr pc
    1114:	0551012a 	ldrbeq	r0, [r1, #-298]	; 0x12a
    1118:	009f8803 	addseq	r8, pc, r3, lsl #16
    111c:	50012a00 	andpl	r2, r1, r0, lsl #20
    1120:	a0140305 	andsge	r0, r4, r5, lsl #6
    1124:	30000000 	andcc	r0, r0, r0
    1128:	00008578 	andeq	r8, r0, r8, ror r5
    112c:	0000162c 	andeq	r1, r0, ip, lsr #12
    1130:	00858429 	addeq	r8, r5, r9, lsr #8
    1134:	00101900 	andseq	r1, r0, r0, lsl #18
    1138:	51012a00 	tstpl	r1, r0, lsl #20
    113c:	7bfc9103 	blvc	fff25550 <__bss_end__+0xfff18c98>
    1140:	0250012a 	subseq	r0, r0, #-2147483638	; 0x8000000a
    1144:	00000075 	andeq	r0, r0, r5, ror r0
    1148:	0000900e 	andeq	r9, r0, lr
    114c:	00115900 	andseq	r5, r1, r0, lsl #18
    1150:	00810f00 	addeq	r0, r1, r0, lsl #30
    1154:	01cb0000 	biceq	r0, fp, r0
    1158:	00900e00 	addseq	r0, r0, r0, lsl #28
    115c:	11690000 	cmnne	r9, r0
    1160:	81340000 	teqhi	r4, r0
    1164:	0e000000 	cdpeq	0, 0, cr0, cr0, cr0, {0}
    1168:	11590700 	cmpne	r9, r0, lsl #14
    116c:	9b2c0000 	blls	b01174 <__bss_end__+0xaf48bc>
    1170:	01000001 	tsteq	r0, r1
    1174:	000025d3 	ldrdeq	r2, [r0], -r3
    1178:	0085a800 	addeq	sl, r5, r0, lsl #16
    117c:	00004800 	andeq	r4, r0, r0, lsl #16
    1180:	429c0100 	addsmi	r0, ip, #0, 2
    1184:	1d000012 	stcne	0, cr0, [r0, #-72]	; 0xffffffb8
    1188:	d3010075 	movwle	r0, #4213	; 0x1075
    118c:	000008e6 	andeq	r0, r0, r6, ror #17
    1190:	000009a7 	andeq	r0, r0, r7, lsr #19
    1194:	6675621d 			; <UNDEFINED> instruction: 0x6675621d
    1198:	55d30100 	ldrbpl	r0, [r3, #256]	; 0x100
    119c:	c800000d 	stmdagt	r0, {r0, r2, r3}
    11a0:	1c000009 	stcne	0, cr0, [r0], {9}
    11a4:	000002ba 			; <UNDEFINED> instruction: 0x000002ba
    11a8:	0068d301 	rsbeq	sp, r8, r1, lsl #6
    11ac:	09e90000 	stmibeq	r9!, {}^	; <UNPREDICTABLE>
    11b0:	651d0000 	ldrvs	r0, [sp, #-0]
    11b4:	0100646e 	tsteq	r0, lr, ror #8
    11b8:	00004fd3 	ldrdeq	r4, [r0], -r3
    11bc:	000a0a00 	andeq	r0, sl, r0, lsl #20
    11c0:	65721f00 	ldrbvs	r1, [r2, #-3840]!	; 0xf00
    11c4:	d4010073 	strle	r0, [r1], #-115	; 0x73
    11c8:	00000025 	andeq	r0, r0, r5, lsr #32
    11cc:	00000a2b 	andeq	r0, r0, fp, lsr #20
    11d0:	00018e33 	andeq	r8, r1, r3, lsr lr
    11d4:	00125200 	andseq	r5, r2, r0, lsl #4
    11d8:	40030500 	andmi	r0, r3, r0, lsl #10
    11dc:	3100009f 	swpcc	r0, pc, [r0]	; <UNPREDICTABLE>
    11e0:	000085bc 			; <UNDEFINED> instruction: 0x000085bc
    11e4:	00000c7a 	andeq	r0, r0, sl, ror ip
    11e8:	00001209 	andeq	r1, r0, r9, lsl #4
    11ec:	0352012a 	cmpeq	r2, #-2147483638	; 0x8000000a
    11f0:	2a5201f3 	bcs	14819c4 <__bss_end__+0x147510c>
    11f4:	f3035101 	vrhadd.u8	d5, d3, d1
    11f8:	012a5101 	teqeq	sl, r1, lsl #2
    11fc:	01f30350 	mvnseq	r0, r0, asr r3
    1200:	7d022a50 	vstrvc	s4, [r2, #-320]	; 0xfffffec0
    1204:	ff090200 			; <UNDEFINED> instruction: 0xff090200
    1208:	85d83100 	ldrbhi	r3, [r8, #256]	; 0x100
    120c:	16160000 	ldrne	r0, [r6], -r0
    1210:	12380000 	eorsne	r0, r8, #0
    1214:	012a0000 	teqeq	sl, r0
    1218:	d6080253 			; <UNDEFINED> instruction: 0xd6080253
    121c:	0552012a 	ldrbeq	r0, [r2, #-298]	; 0x12a
    1220:	009f4003 	addseq	r4, pc, r3
    1224:	51012a00 	tstpl	r1, r0, lsl #20
    1228:	9f880305 	svcls	0x00880305
    122c:	012a0000 	teqeq	sl, r0
    1230:	dc030550 	cfstr32le	mvfx0, [r3], {80}	; 0x50
    1234:	0000009f 	muleq	r0, pc, r0	; <UNPREDICTABLE>
    1238:	0085dc30 	addeq	sp, r5, r0, lsr ip
    123c:	00162c00 	andseq	r2, r6, r0, lsl #24
    1240:	900e0000 	andls	r0, lr, r0
    1244:	52000000 	andpl	r0, r0, #0
    1248:	34000012 	strcc	r0, [r0], #-18
    124c:	00000081 	andeq	r0, r0, r1, lsl #1
    1250:	42070016 	andmi	r0, r7, #22
    1254:	1b000012 	blne	12a4 <_start-0x6d5c>
    1258:	00000ae8 	andeq	r0, r0, r8, ror #21
    125c:	85f0db01 	ldrbhi	sp, [r0, #2817]!	; 0xb01
    1260:	01040000 	mrseq	r0, (UNDEF: 4)
    1264:	9c010000 	stcls	0, cr0, [r1], {-0}
    1268:	00001385 	andeq	r1, r0, r5, lsl #7
    126c:	0063701d 	rsbeq	r7, r3, sp, lsl r0
    1270:	002cdb01 	eoreq	sp, ip, r1, lsl #22
    1274:	0a490000 	beq	124127c <__bss_end__+0x12349c4>
    1278:	8e330000 	cdphi	0, 3, cr0, cr3, cr0, {0}
    127c:	95000001 	strls	r0, [r0, #-1]
    1280:	05000013 	streq	r0, [r0, #-19]
    1284:	009f5803 	addseq	r5, pc, r3, lsl #16
    1288:	02c42300 	sbceq	r2, r4, #0, 6
    128c:	86700000 	ldrbthi	r0, [r0], -r0
    1290:	00440000 	subeq	r0, r4, r0
    1294:	e5010000 	str	r0, [r1, #-0]
    1298:	000012db 	ldrdeq	r1, [r0], -fp
    129c:	0002dd24 	andeq	sp, r2, r4, lsr #26
    12a0:	000a8300 	andeq	r8, sl, r0, lsl #6
    12a4:	02d42400 	sbcseq	r2, r4, #0, 8
    12a8:	0a960000 	beq	fe5812b0 <__bss_end__+0xfe5749f8>
    12ac:	70270000 	eorvc	r0, r7, r0
    12b0:	44000086 	strmi	r0, [r0], #-134	; 0x86
    12b4:	28000000 	stmdacs	r0, {}	; <UNPREDICTABLE>
    12b8:	000002e6 	andeq	r0, r0, r6, ror #5
    12bc:	00000aae 	andeq	r0, r0, lr, lsr #21
    12c0:	00023f2b 	andeq	r3, r2, fp, lsr #30
    12c4:	00867800 	addeq	r7, r6, r0, lsl #16
    12c8:	00001400 	andeq	r1, r0, r0, lsl #8
    12cc:	24660300 	strbtcs	r0, [r6], #-768	; 0x300
    12d0:	0000024f 	andeq	r0, r0, pc, asr #4
    12d4:	00000ad0 	ldrdeq	r0, [r0], -r0	; <UNPREDICTABLE>
    12d8:	31000000 	mrscc	r0, (UNDEF: 0)
    12dc:	00008618 	andeq	r8, r0, r8, lsl r6
    12e0:	00001616 	andeq	r1, r0, r6, lsl r6
    12e4:	0000130a 	andeq	r1, r0, sl, lsl #6
    12e8:	0253012a 	subseq	r0, r3, #-2147483638	; 0x8000000a
    12ec:	012adc08 	teqeq	sl, r8, lsl #24
    12f0:	58030552 	stmdapl	r3, {r1, r4, r6, r8, sl}
    12f4:	2a00009f 	bcs	1578 <_start-0x6a88>
    12f8:	03055101 	movweq	r5, #20737	; 0x5101
    12fc:	00009f88 	andeq	r9, r0, r8, lsl #31
    1300:	0550012a 	ldrbeq	r0, [r0, #-298]	; 0x12a
    1304:	00a03803 	adceq	r3, r0, r3, lsl #16
    1308:	1c300000 	ldcne	0, cr0, [r0], #-0
    130c:	2c000086 	stccs	0, cr0, [r0], {134}	; 0x86
    1310:	31000016 	tstcc	r0, r6, lsl r0
    1314:	00008634 	andeq	r8, r0, r4, lsr r6
    1318:	00001679 	andeq	r1, r0, r9, ror r6
    131c:	00001327 	andeq	r1, r0, r7, lsr #6
    1320:	0250012a 	subseq	r0, r0, #-2147483638	; 0x8000000a
    1324:	31003108 	tstcc	r0, r8, lsl #2
    1328:	00008644 	andeq	r8, r0, r4, asr #12
    132c:	00001679 	andeq	r1, r0, r9, ror r6
    1330:	0000133b 	andeq	r1, r0, fp, lsr r3
    1334:	0250012a 	subseq	r0, r0, #-2147483638	; 0x8000000a
    1338:	31003208 	tstcc	r0, r8, lsl #4
    133c:	00008654 	andeq	r8, r0, r4, asr r6
    1340:	00001601 	andeq	r1, r0, r1, lsl #12
    1344:	0000134e 	andeq	r1, r0, lr, asr #6
    1348:	0150012a 	cmpeq	r0, sl, lsr #2
    134c:	6c310045 	ldcvs	0, cr0, [r1], #-276	; 0xfffffeec
    1350:	26000086 	strcs	r0, [r0], -r6, lsl #1
    1354:	62000009 	andvs	r0, r0, #9
    1358:	2a000013 	bcs	13ac <_start-0x6c54>
    135c:	74025001 	strvc	r5, [r2], #-1
    1360:	bc31000c 	ldclt	0, cr0, [r1], #-48	; 0xffffffd0
    1364:	01000086 	smlabbeq	r0, r6, r0, r0
    1368:	75000016 	strvc	r0, [r0, #-22]
    136c:	2a000013 	bcs	13c0 <_start-0x6c40>
    1370:	45015001 	strmi	r5, [r1, #-1]
    1374:	86d82900 	ldrbhi	r2, [r8], r0, lsl #18
    1378:	168e0000 	strne	r0, [lr], r0
    137c:	012a0000 	teqeq	sl, r0
    1380:	00450150 	subeq	r0, r5, r0, asr r1
    1384:	00900e00 	addseq	r0, r0, r0, lsl #28
    1388:	13950000 	orrsne	r0, r5, #0
    138c:	81340000 	teqhi	r4, r0
    1390:	10000000 	andne	r0, r0, r0
    1394:	13850700 	orrne	r0, r5, #0, 14
    1398:	612c0000 	teqvs	ip, r0
    139c:	01000000 	mrseq	r0, (UNDEF: 0)
    13a0:	000025f0 	strdeq	r2, [r0], -r0
    13a4:	0086f400 	addeq	pc, r6, r0, lsl #8
    13a8:	00005000 	andeq	r5, r0, r0
    13ac:	259c0100 	ldrcs	r0, [ip, #256]	; 0x100
    13b0:	1c000014 	stcne	0, cr0, [r0], {20}
    13b4:	000002b5 			; <UNDEFINED> instruction: 0x000002b5
    13b8:	08e6f001 	stmiaeq	r6!, {r0, ip, sp, lr, pc}^
    13bc:	0ae80000 	beq	ffa013c4 <__bss_end__+0xff9f4b0c>
    13c0:	d91c0000 	ldmdble	ip, {}	; <UNPREDICTABLE>
    13c4:	01000001 	tsteq	r0, r1
    13c8:	000025f0 	strdeq	r2, [r0], -r0
    13cc:	000b0900 	andeq	r0, fp, r0, lsl #18
    13d0:	00f82d00 	rscseq	r2, r8, r0, lsl #26
    13d4:	f1010000 	setend	le
    13d8:	0000002c 	andeq	r0, r0, ip, lsr #32
    13dc:	00000b2a 	andeq	r0, r0, sl, lsr #22
    13e0:	0002f239 	andeq	pc, r2, r9, lsr r2	; <UNPREDICTABLE>
    13e4:	0086f800 	addeq	pc, r6, r0, lsl #16
    13e8:	00000000 	andeq	r0, r0, r0
    13ec:	00f90100 	rscseq	r0, r9, r0, lsl #2
    13f0:	25000014 	strcs	r0, [r0, #-20]
    13f4:	00000302 	andeq	r0, r0, r2, lsl #6
    13f8:	a4940306 	ldrge	r0, [r4], #774	; 0x306
    13fc:	009f0000 	addseq	r0, pc, r0
    1400:	00871831 	addeq	r1, r7, r1, lsr r8
    1404:	00169f00 	andseq	r9, r6, r0, lsl #30
    1408:	00141400 	andseq	r1, r4, r0, lsl #8
    140c:	50012a00 	andpl	r2, r1, r0, lsl #20
    1410:	00007802 	andeq	r7, r0, r2, lsl #16
    1414:	00872429 	addeq	r2, r7, r9, lsr #8
    1418:	00030c00 	andeq	r0, r3, r0, lsl #24
    141c:	50012a00 	andpl	r2, r1, r0, lsl #20
    1420:	00007702 	andeq	r7, r0, r2, lsl #14
    1424:	00483a00 	subeq	r3, r8, r0, lsl #20
    1428:	02010000 	andeq	r0, r1, #0
    142c:	00874401 	addeq	r4, r7, r1, lsl #8
    1430:	0000a800 	andeq	sl, r0, r0, lsl #16
    1434:	449c0100 	ldrmi	r0, [ip], #256	; 0x100
    1438:	22000015 	andcs	r0, r0, #21
    143c:	000087b4 			; <UNDEFINED> instruction: 0x000087b4
    1440:	00000038 	andeq	r0, r0, r8, lsr r0
    1444:	00001491 	muleq	r0, r1, r4
    1448:	0100693b 	tsteq	r0, fp, lsr r9
    144c:	00250114 	eoreq	r0, r5, r4, lsl r1
    1450:	27000000 	strcs	r0, [r0, -r0]
    1454:	000087b4 			; <UNDEFINED> instruction: 0x000087b4
    1458:	00000038 	andeq	r0, r0, r8, lsr r0
    145c:	7365723c 	cmnvc	r5, #60, 4	; 0xc0000003
    1460:	01160100 	tsteq	r6, r0, lsl #2
    1464:	00000025 	andeq	r0, r0, r5, lsr #32
    1468:	0087bc31 	addeq	fp, r7, r1, lsr ip
    146c:	00161600 	andseq	r1, r6, r0, lsl #12
    1470:	00147f00 	andseq	r7, r4, r0, lsl #30
    1474:	50012a00 	andpl	r2, r1, r0, lsl #20
    1478:	a0740305 	rsbsge	r0, r4, r5, lsl #6
    147c:	29000000 	stmdbcs	r0, {}	; <UNPREDICTABLE>
    1480:	000087d0 	ldrdeq	r8, [r0], -r0
    1484:	0000139a 	muleq	r0, sl, r3
    1488:	0250012a 	subseq	r0, r0, #-2147483638	; 0x8000000a
    148c:	00000074 	andeq	r0, r0, r4, ror r0
    1490:	87503000 	ldrbhi	r3, [r0, -r0]
    1494:	16b40000 	ldrtne	r0, [r4], r0
    1498:	54300000 	ldrtpl	r0, [r0], #-0
    149c:	bb000087 	bllt	16c0 <_start-0x6940>
    14a0:	31000016 	tstcc	r0, r6, lsl r0
    14a4:	00008778 	andeq	r8, r0, r8, ror r7
    14a8:	00000e43 	andeq	r0, r0, r3, asr #28
    14ac:	000014d1 	ldrdeq	r1, [r0], -r1	; <UNPREDICTABLE>
    14b0:	0453012a 	ldrbeq	r0, [r3], #-298	; 0x12a
    14b4:	2439e108 	ldrtcs	lr, [r9], #-264	; 0x108
    14b8:	0152012a 	cmpeq	r2, sl, lsr #2
    14bc:	51012a45 	tstpl	r1, r5, asr #20
    14c0:	012a4401 	teqeq	sl, r1, lsl #8
    14c4:	00750250 	rsbseq	r0, r5, r0, asr r2
    14c8:	007d022a 	rsbseq	r0, sp, sl, lsr #4
    14cc:	17bc0a03 	ldrne	r0, [ip, r3, lsl #20]!
    14d0:	87883000 	strhi	r3, [r8, r0]
    14d4:	16c20000 	strbne	r0, [r2], r0
    14d8:	90310000 	eorsls	r0, r1, r0
    14dc:	c9000087 	stmdbgt	r0, {r0, r1, r2, r7}
    14e0:	ed000016 	stc	0, cr0, [r0, #-88]	; 0xffffffa8
    14e4:	2a000014 	bcs	153c <_start-0x6ac4>
    14e8:	45015001 	strmi	r5, [r1, #-1]
    14ec:	879c3100 	ldrhi	r3, [ip, r0, lsl #2]
    14f0:	16da0000 	ldrbne	r0, [sl], r0
    14f4:	15060000 	strne	r0, [r6, #-0]
    14f8:	012a0000 	teqeq	sl, r0
    14fc:	2a310151 	bcs	c41a48 <__bss_end__+0xc35190>
    1500:	76025001 	strvc	r5, [r2], -r1
    1504:	a4310018 	ldrtge	r0, [r1], #-24
    1508:	16000087 	strne	r0, [r0], -r7, lsl #1
    150c:	1d000016 	stcne	0, cr0, [r0, #-88]	; 0xffffffa8
    1510:	2a000015 	bcs	156c <_start-0x6a94>
    1514:	03055001 	movweq	r5, #20481	; 0x5001
    1518:	0000a04c 	andeq	sl, r0, ip, asr #32
    151c:	87b03100 	ldrhi	r3, [r0, r0, lsl #2]!
    1520:	105d0000 	subsne	r0, sp, r0
    1524:	153a0000 	ldrne	r0, [sl, #-0]!
    1528:	012a0000 	teqeq	sl, r0
    152c:	64030551 	strvs	r0, [r3], #-1361	; 0x551
    1530:	2a0000a0 	bcs	17b8 <_start-0x6848>
    1534:	74025001 	strvc	r5, [r2], #-1
    1538:	b4300000 	ldrtlt	r0, [r0], #-0
    153c:	f0000087 			; <UNDEFINED> instruction: 0xf0000087
    1540:	00000016 	andeq	r0, r0, r6, lsl r0
    1544:	0004e021 	andeq	lr, r4, r1, lsr #32
    1548:	550d0100 	strpl	r0, [sp, #-256]	; 0x100
    154c:	05000015 	streq	r0, [r0, #-21]
    1550:	00c4b003 	sbceq	fp, r4, r3
    1554:	00251000 	eoreq	r1, r5, r0
    1558:	f3210000 	vhadd.u32	d0, d1, d0
    155c:	01000001 	tsteq	r0, r1
    1560:	0001b00e 	andeq	fp, r1, lr
    1564:	94030500 	strls	r0, [r3], #-1280	; 0x500
    1568:	1e0000a4 	cdpne	0, 0, cr0, cr0, cr4, {5}
    156c:	0f010075 	svceq	0x00010075
    1570:	000001f2 	strdeq	r0, [r0], -r2
    1574:	a4880305 	strge	r0, [r8], #773	; 0x305
    1578:	4c210000 	stcmi	0, cr0, [r1], #-0
    157c:	01000001 	tsteq	r0, r1
    1580:	0001ab10 	andeq	sl, r1, r0, lsl fp
    1584:	84030500 	strhi	r0, [r3], #-1280	; 0x500
    1588:	210000a4 	smlatbcs	r0, r4, r0, r0
    158c:	00000030 	andeq	r0, r0, r0, lsr r0
    1590:	15551101 	ldrbne	r1, [r5, #-257]	; 0x101
    1594:	03050000 	movweq	r0, #20480	; 0x5000
    1598:	0000a47c 	andeq	sl, r0, ip, ror r4
    159c:	00038921 	andeq	r8, r3, r1, lsr #18
    15a0:	ab140100 	blge	5019a8 <__bss_end__+0x4f50f0>
    15a4:	05000001 	streq	r0, [r0, #-1]
    15a8:	00c4a803 	sbceq	sl, r4, r3, lsl #16
    15ac:	04032100 	streq	r2, [r3], #-256	; 0x100
    15b0:	14010000 	strne	r0, [r1], #-0
    15b4:	000001ab 	andeq	r0, r0, fp, lsr #3
    15b8:	c4ac0305 	strtgt	r0, [ip], #773	; 0x305
    15bc:	4a210000 	bmi	8415c4 <__bss_end__+0x834d0c>
    15c0:	01000004 	tsteq	r0, r4
    15c4:	0001ab14 	andeq	sl, r1, r4, lsl fp
    15c8:	80030500 	andhi	r0, r3, r0, lsl #10
    15cc:	3d0000a4 	stccc	0, cr0, [r0, #-656]	; 0xfffffd70
    15d0:	000004a6 	andeq	r0, r0, r6, lsr #9
    15d4:	00c38006 	sbceq	r8, r3, r6
    15d8:	03050000 	movweq	r0, #20480	; 0x5000
    15dc:	0000c8b4 			; <UNDEFINED> instruction: 0x0000c8b4
    15e0:	0002e33e 	andeq	lr, r2, lr, lsr r3
    15e4:	f6210500 			; <UNDEFINED> instruction: 0xf6210500
    15e8:	3f000015 	svccc	0x00000015
    15ec:	0000002c 	andeq	r0, r0, ip, lsr #32
    15f0:	00002c3f 	andeq	r2, r0, pc, lsr ip
    15f4:	89400000 	stmdbhi	r0, {}^	; <UNPREDICTABLE>
    15f8:	09000002 	stmdbeq	r0, {r1}
    15fc:	00002c54 	andeq	r2, r0, r4, asr ip
    1600:	021e4100 	andseq	r4, lr, #0, 2
    1604:	24050000 	strcs	r0, [r5], #-0
    1608:	00000025 	andeq	r0, r0, r5, lsr #32
    160c:	00001616 	andeq	r1, r0, r6, lsl r6
    1610:	00002c3f 	andeq	r2, r0, pc, lsr ip
    1614:	08410000 	stmdaeq	r1, {}^	; <UNPREDICTABLE>
    1618:	09000002 	stmdbeq	r0, {r1}
    161c:	00002527 	andeq	r2, r0, r7, lsr #10
    1620:	00162c00 	andseq	r2, r6, r0, lsl #24
    1624:	00973f00 	addseq	r3, r7, r0, lsl #30
    1628:	00380000 	eorseq	r0, r8, r0
    162c:	00022842 	andeq	r2, r2, r2, asr #16
    1630:	3e630900 	cdpcc	9, 6, cr0, cr3, cr0, {0}
    1634:	00000481 	andeq	r0, r0, r1, lsl #9
    1638:	16441d05 	strbne	r1, [r4], -r5, lsl #26
    163c:	2c3f0000 	ldccs	0, cr0, [pc], #-0	; 1644 <_start-0x69bc>
    1640:	00000000 	andeq	r0, r0, r0
    1644:	0003f43e 	andeq	pc, r3, lr, lsr r4	; <UNPREDICTABLE>
    1648:	551c0500 	ldrpl	r0, [ip, #-1280]	; 0x500
    164c:	3f000016 	svccc	0x00000016
    1650:	0000002c 	andeq	r0, r0, ip, lsr #32
    1654:	02054100 	andeq	r4, r5, #0, 2
    1658:	020a0000 	andeq	r0, sl, #0
    165c:	00000025 	andeq	r0, r0, r5, lsr #32
    1660:	00001679 	andeq	r1, r0, r9, ror r6
    1664:	00008a3f 	andeq	r8, r0, pc, lsr sl
    1668:	00253f00 	eoreq	r3, r5, r0, lsl #30
    166c:	973f0000 	ldrls	r0, [pc, -r0]!
    1670:	3f000000 	svccc	0x00000000
    1674:	00000234 	andeq	r0, r0, r4, lsr r2
    1678:	04d44100 	ldrbeq	r4, [r4], #256	; 0x100
    167c:	38050000 	stmdacc	r5, {}	; <UNPREDICTABLE>
    1680:	00000025 	andeq	r0, r0, r5, lsr #32
    1684:	0000168e 	andeq	r1, r0, lr, lsl #13
    1688:	00002c3f 	andeq	r2, r0, pc, lsr ip
    168c:	7d3e0000 	ldcvc	0, cr0, [lr, #-0]
    1690:	05000001 	streq	r0, [r0, #-1]
    1694:	00169f4e 	andseq	r9, r6, lr, asr #30
    1698:	002c3f00 	eoreq	r3, ip, r0, lsl #30
    169c:	41000000 	mrsmi	r0, (UNDEF: 0)
    16a0:	000002ee 	andeq	r0, r0, lr, ror #5
    16a4:	01304103 	teqeq	r0, r3, lsl #2
    16a8:	16b40000 	ldrtne	r0, [r4], r0
    16ac:	593f0000 	ldmdbpl	pc!, {}	; <UNPREDICTABLE>
    16b0:	00000002 	andeq	r0, r0, r2
    16b4:	00037f42 	andeq	r7, r3, r2, asr #30
    16b8:	42380900 	eorsmi	r0, r8, #0, 18
    16bc:	0000043d 	andeq	r0, r0, sp, lsr r4
    16c0:	80428809 	subhi	r8, r2, r9, lsl #16
    16c4:	0b000002 	bleq	16d4 <_start-0x692c>
    16c8:	04be3e27 	ldrteq	r3, [lr], #3623	; 0xe27
    16cc:	46050000 	strmi	r0, [r5], -r0
    16d0:	000016da 	ldrdeq	r1, [r0], -sl
    16d4:	00002c3f 	andeq	r2, r0, pc, lsr ip
    16d8:	283e0000 	ldmdacs	lr!, {}	; <UNPREDICTABLE>
    16dc:	03000000 	movweq	r0, #0
    16e0:	0016f033 	andseq	pc, r6, r3, lsr r0	; <UNPREDICTABLE>
    16e4:	02593f00 	subseq	r3, r9, #0, 30
    16e8:	2c3f0000 	ldccs	0, cr0, [pc], #-0	; 16f0 <_start-0x6910>
    16ec:	00000000 	andeq	r0, r0, r0
    16f0:	00029c42 	andeq	r9, r2, r2, asr #24
    16f4:	00250b00 	eoreq	r0, r5, r0, lsl #22
    16f8:	0000096d 	andeq	r0, r0, sp, ror #18
    16fc:	03790004 	cmneq	r9, #4
    1700:	01040000 	mrseq	r0, (UNDEF: 4)
    1704:	00000397 	muleq	r0, r7, r3
    1708:	0005bd01 	andeq	fp, r5, r1, lsl #26
    170c:	00053500 	andeq	r3, r5, r0, lsl #10
    1710:	0087ec00 	addeq	lr, r7, r0, lsl #24
    1714:	00051400 	andeq	r1, r5, r0, lsl #8
    1718:	00043b00 	andeq	r3, r4, r0, lsl #22
    171c:	05040200 	streq	r0, [r4, #-512]	; 0x200
    1720:	00746e69 	rsbseq	r6, r4, r9, ror #28
    1724:	00058803 	andeq	r8, r5, r3, lsl #16
    1728:	37d40300 	ldrbcc	r0, [r4, r0, lsl #6]
    172c:	04000000 	streq	r0, [r0], #-0
    1730:	00880704 	addeq	r0, r8, r4, lsl #14
    1734:	01040000 	mrseq	r0, (UNDEF: 4)
    1738:	0002cd06 	andeq	ip, r2, r6, lsl #26
    173c:	05020400 	streq	r0, [r2, #-1024]	; 0x400
    1740:	000002d9 	ldrdeq	r0, [r0], -r9
    1744:	c7050404 	strgt	r0, [r5, -r4, lsl #8]
    1748:	04000000 	streq	r0, [r0], #-0
    174c:	00c20508 	sbceq	r0, r2, r8, lsl #10
    1750:	01040000 	mrseq	r0, (UNDEF: 4)
    1754:	0002cb08 	andeq	ip, r2, r8, lsl #22
    1758:	07020400 	streq	r0, [r2, -r0, lsl #8]
    175c:	000001b2 			; <UNDEFINED> instruction: 0x000001b2
    1760:	83070404 	movwhi	r0, #29700	; 0x7404
    1764:	04000000 	streq	r0, [r0], #-0
    1768:	007e0708 	rsbseq	r0, lr, r8, lsl #14
    176c:	04040000 	streq	r0, [r4], #-0
    1770:	00023a07 	andeq	r3, r2, r7, lsl #20
    1774:	04040500 	streq	r0, [r4], #-1280	; 0x500
    1778:	02d40801 	sbcseq	r0, r4, #65536	; 0x10000
    177c:	04060000 	streq	r0, [r6], #-0
    1780:	0000008c 	andeq	r0, r0, ip, lsl #1
    1784:	00007f07 	andeq	r7, r0, r7, lsl #30
    1788:	007f0800 	rsbseq	r0, pc, r0, lsl #16
    178c:	00a10000 	adceq	r0, r1, r0
    1790:	76090000 	strvc	r0, [r9], -r0
    1794:	07000000 	streq	r0, [r0, -r0]
    1798:	02f50300 	rscseq	r0, r5, #0, 6
    179c:	1b020000 	blne	817a4 <__bss_end__+0x74eec>
    17a0:	0000005a 	andeq	r0, r0, sl, asr r0
    17a4:	0220140a 	eoreq	r1, r0, #167772160	; 0xa000000
    17a8:	00010627 	andeq	r0, r1, r7, lsr #12
    17ac:	00950b00 	addseq	r0, r5, r0, lsl #22
    17b0:	29020000 	stmdbcs	r2, {}	; <UNPREDICTABLE>
    17b4:	00000117 	andeq	r0, r0, r7, lsl r1
    17b8:	03ee0c00 	mvneq	r0, #0, 24
    17bc:	2a020000 	bcs	817c4 <__bss_end__+0x74f0c>
    17c0:	00000037 	andeq	r0, r0, r7, lsr r0
    17c4:	fb0c2000 	blx	3097ce <__bss_end__+0x2fcf16>
    17c8:	02000002 	andeq	r0, r0, #2
    17cc:	00011c2b 	andeq	r1, r1, fp, lsr #24
    17d0:	0c200400 	cfstrseq	mvf0, [r0], #-0
    17d4:	00000235 	andeq	r0, r0, r5, lsr r2
    17d8:	011c2b02 	tsteq	ip, r2, lsl #22
    17dc:	20080000 	andcs	r0, r8, r0
    17e0:	0004120c 	andeq	r1, r4, ip, lsl #4
    17e4:	1c2e0200 	sfmne	f0, 4, [lr], #-0
    17e8:	0c000001 	stceq	0, cr0, [r0], {1}
    17ec:	00390d20 	eorseq	r0, r9, r0, lsr #26
    17f0:	30020000 	andcc	r0, r2, r0
    17f4:	00000037 	andeq	r0, r0, r7, lsr r0
    17f8:	101f0104 	andsne	r0, pc, r4, lsl #2
    17fc:	a1080020 	tstge	r8, r0, lsr #32
    1800:	17000000 	strne	r0, [r0, -r0]
    1804:	0e000001 	cdpeq	0, 0, cr0, cr0, cr1, {0}
    1808:	00000076 	andeq	r0, r0, r6, ror r0
    180c:	0f001fff 	svceq	0x00001fff
    1810:	00000106 	andeq	r0, r0, r6, lsl #2
    1814:	0000370f 	andeq	r3, r0, pc, lsl #14
    1818:	04910300 	ldreq	r0, [r1], #768	; 0x300
    181c:	31020000 	mrscc	r0, (UNDEF: 2)
    1820:	000000ac 	andeq	r0, r0, ip, lsr #1
    1824:	0005cd10 	andeq	ip, r5, r0, lsl sp
    1828:	37560200 	ldrbcc	r0, [r6, -r0, lsl #4]
    182c:	03000000 	movweq	r0, #0
    1830:	00000146 	andeq	r0, r0, r6, asr #2
    1834:	02007111 	andeq	r7, r0, #1073741828	; 0x40000004
    1838:	00014656 	andeq	r4, r1, r6, asr r6
    183c:	04060000 	streq	r0, [r6], #-0
    1840:	00000121 	andeq	r0, r0, r1, lsr #2
    1844:	0000ab10 	andeq	sl, r0, r0, lsl fp
    1848:	25510200 	ldrbcs	r0, [r1, #-512]	; 0x200
    184c:	03000000 	movweq	r0, #0
    1850:	00000166 	andeq	r0, r0, r6, ror #2
    1854:	02007111 	andeq	r7, r0, #1073741828	; 0x40000004
    1858:	00014651 	andeq	r4, r1, r1, asr r6
    185c:	00100000 	andseq	r0, r0, r0
    1860:	02000005 	andeq	r0, r0, #5
    1864:	00002554 	andeq	r2, r0, r4, asr r5
    1868:	01800300 	orreq	r0, r0, r0, lsl #6
    186c:	71110000 	tstvc	r1, r0
    1870:	46540200 	ldrbmi	r0, [r4], -r0, lsl #4
    1874:	00000001 	andeq	r0, r0, r1
    1878:	00052510 	andeq	r2, r5, r0, lsl r5
    187c:	255a0200 	ldrbcs	r0, [sl, #-512]	; 0x200
    1880:	03000000 	movweq	r0, #0
    1884:	000001ae 	andeq	r0, r0, lr, lsr #3
    1888:	02006311 	andeq	r6, r0, #1140850688	; 0x44000000
    188c:	0001465a 	andeq	r4, r1, sl, asr r6
    1890:	00651100 	rsbeq	r1, r5, r0, lsl #2
    1894:	01ae5a02 			; <UNDEFINED> instruction: 0x01ae5a02
    1898:	35120000 	ldrcc	r0, [r2, #-0]
    189c:	02000002 	andeq	r0, r0, #2
    18a0:	0000375d 	andeq	r3, r0, sp, asr r7
    18a4:	04060000 	streq	r0, [r6], #-0
    18a8:	000000a1 	andeq	r0, r0, r1, lsr #1
    18ac:	0005aa10 	andeq	sl, r5, r0, lsl sl
    18b0:	37570200 	ldrbcc	r0, [r7, -r0, lsl #4]
    18b4:	03000000 	movweq	r0, #0
    18b8:	000001ce 	andeq	r0, r0, lr, asr #3
    18bc:	02007111 	andeq	r7, r0, #1073741828	; 0x40000004
    18c0:	00014657 	andeq	r4, r1, r7, asr r6
    18c4:	1b100000 	blne	4018cc <__bss_end__+0x3f5014>
    18c8:	02000004 	andeq	r0, r0, #4
    18cc:	00002564 	andeq	r2, r0, r4, ror #10
    18d0:	01fc0300 	mvnseq	r0, r0, lsl #6
    18d4:	63110000 	tstvs	r1, #0
    18d8:	46640200 	strbtmi	r0, [r4], -r0, lsl #4
    18dc:	11000001 	tstne	r0, r1
    18e0:	64020078 	strvs	r0, [r2], #-120	; 0x78
    18e4:	000000a1 	andeq	r0, r0, r1, lsr #1
    18e8:	0002fb12 	andeq	pc, r2, r2, lsl fp	; <UNPREDICTABLE>
    18ec:	37650200 	strbcc	r0, [r5, -r0, lsl #4]!
    18f0:	00000000 	andeq	r0, r0, r0
    18f4:	0005d613 	andeq	sp, r5, r3, lsl r6
    18f8:	ec080100 	stfs	f0, [r8], {-0}
    18fc:	80000087 	andhi	r0, r0, r7, lsl #1
    1900:	01000000 	mrseq	r0, (UNDEF: 0)
    1904:	0002929c 	muleq	r2, ip, r2
    1908:	00631400 	rsbeq	r1, r3, r0, lsl #8
    190c:	01460801 	cmpeq	r6, r1, lsl #16
    1910:	0b520000 	bleq	1481918 <__bss_end__+0x1475060>
    1914:	8e150000 	cdphi	0, 1, cr0, cr5, cr0, {0}
    1918:	a2000001 	andge	r0, r0, #1
    191c:	05000002 	streq	r0, [r0, #-2]
    1920:	00a08403 	adceq	r8, r0, r3, lsl #8
    1924:	012c1600 	teqeq	ip, r0, lsl #12
    1928:	88040000 	stmdahi	r4, {}	; <UNPREDICTABLE>
    192c:	00140000 	andseq	r0, r4, r0
    1930:	09010000 	stmdbeq	r1, {}	; <UNPREDICTABLE>
    1934:	0000024a 	andeq	r0, r0, sl, asr #4
    1938:	00013c17 	andeq	r3, r1, r7, lsl ip
    193c:	000b7300 	andeq	r7, fp, r0, lsl #6
    1940:	4c160000 	ldcmi	0, cr0, [r6], {-0}
    1944:	18000001 	stmdane	r0, {r0}
    1948:	14000088 	strne	r0, [r0], #-136	; 0x88
    194c:	01000000 	mrseq	r0, (UNDEF: 0)
    1950:	00026709 	andeq	r6, r2, r9, lsl #14
    1954:	015c1700 	cmpeq	ip, r0, lsl #14
    1958:	0b940000 	bleq	fe501960 <__bss_end__+0xfe4f50a8>
    195c:	18000000 	stmdane	r0, {}	; <UNPREDICTABLE>
    1960:	00008850 	andeq	r8, r0, r0, asr r8
    1964:	00000938 	andeq	r0, r0, r8, lsr r9
    1968:	01530119 	cmpeq	r3, r9, lsl r1
    196c:	5201193a 	andpl	r1, r1, #950272	; 0xe8000
    1970:	a0840305 	addge	r0, r4, r5, lsl #6
    1974:	01190000 	tsteq	r9, r0
    1978:	f4030551 	vst3.16	{d0,d2,d4}, [r3 :64], r1
    197c:	190000a0 	stmdbne	r0, {r5, r7}
    1980:	03055001 	movweq	r5, #20481	; 0x5001
    1984:	0000a0b8 	strheq	sl, [r0], -r8
    1988:	7f080000 	svcvc	0x00080000
    198c:	a2000000 	andge	r0, r0, #0
    1990:	09000002 	stmdbeq	r0, {r1}
    1994:	00000076 	andeq	r0, r0, r6, ror r0
    1998:	92070008 	andls	r0, r7, #8
    199c:	13000002 	movwne	r0, #2
    19a0:	000005df 	ldrdeq	r0, [r0], -pc	; <UNPREDICTABLE>
    19a4:	886c0d01 	stmdahi	ip!, {r0, r8, sl, fp}^
    19a8:	00400000 	subeq	r0, r0, r0
    19ac:	9c010000 	stcls	0, cr0, [r1], {-0}
    19b0:	00000310 	andeq	r0, r0, r0, lsl r3
    19b4:	01006314 	tsteq	r0, r4, lsl r3
    19b8:	0001460d 	andeq	r4, r1, sp, lsl #12
    19bc:	000bb500 	andeq	fp, fp, r0, lsl #10
    19c0:	018e1500 	orreq	r1, lr, r0, lsl #10
    19c4:	03200000 	teqeq	r0, #0
    19c8:	03050000 	movweq	r0, #20480	; 0x5000
    19cc:	0000a090 	muleq	r0, r0, r0
    19d0:	0088981a 	addeq	r9, r8, sl, lsl r8
    19d4:	00093800 	andeq	r3, r9, r0, lsl #16
    19d8:	00030600 	andeq	r0, r3, r0, lsl #12
    19dc:	53011900 	movwpl	r1, #6400	; 0x1900
    19e0:	01193f01 	tsteq	r9, r1, lsl #30
    19e4:	90030552 	andls	r0, r3, r2, asr r5
    19e8:	190000a0 	stmdbne	r0, {r5, r7}
    19ec:	03055101 	movweq	r5, #20737	; 0x5101
    19f0:	0000a0f4 	strdeq	sl, [r0], -r4
    19f4:	05500119 	ldrbeq	r0, [r0, #-281]	; 0x119
    19f8:	00a10403 	adceq	r0, r1, r3, lsl #8
    19fc:	9c1b0000 	ldcls	0, cr0, [fp], {-0}
    1a00:	4e000088 	cdpmi	0, 0, cr0, cr0, cr8, {4}
    1a04:	00000009 	andeq	r0, r0, r9
    1a08:	00007f08 	andeq	r7, r0, r8, lsl #30
    1a0c:	00032000 	andeq	r2, r3, r0
    1a10:	00760900 	rsbseq	r0, r6, r0, lsl #18
    1a14:	00050000 	andeq	r0, r5, r0
    1a18:	00031007 	andeq	r1, r3, r7
    1a1c:	00281300 	eoreq	r1, r8, r0, lsl #6
    1a20:	12010000 	andne	r0, r1, #0
    1a24:	000088ac 	andeq	r8, r0, ip, lsr #17
    1a28:	000001a4 	andeq	r0, r0, r4, lsr #3
    1a2c:	050d9c01 	streq	r9, [sp, #-3073]	; 0xc01
    1a30:	63140000 	tstvs	r4, #0
    1a34:	46120100 	ldrmi	r0, [r2], -r0, lsl #2
    1a38:	d6000001 	strle	r0, [r0], -r1
    1a3c:	1c00000b 	stcne	0, cr0, [r0], {11}
    1a40:	00000039 	andeq	r0, r0, r9, lsr r0
    1a44:	00371201 	eorseq	r1, r7, r1, lsl #4
    1a48:	0bf40000 	bleq	ffd01a50 <__bss_end__+0xffcf5198>
    1a4c:	8e150000 	cdphi	0, 1, cr0, cr5, cr0, {0}
    1a50:	0d000001 	stceq	0, cr0, [r0, #-4]
    1a54:	05000005 	streq	r0, [r0, #-5]
    1a58:	00a09803 	adceq	r9, r0, r3, lsl #16
    1a5c:	00651d00 	rsbeq	r1, r5, r0, lsl #26
    1a60:	00a11b01 	adceq	r1, r1, r1, lsl #22
    1a64:	0c200000 	stceq	0, cr0, [r0], #-0
    1a68:	4c160000 	ldcmi	0, cr0, [r6], {-0}
    1a6c:	04000001 	streq	r0, [r0], #-1
    1a70:	08000089 	stmdaeq	r0, {r0, r3, r7}
    1a74:	01000000 	mrseq	r0, (UNDEF: 0)
    1a78:	00038d18 	andeq	r8, r3, r8, lsl sp
    1a7c:	015c1e00 	cmpeq	ip, r0, lsl #28
    1a80:	54010000 	strpl	r0, [r1], #-0
    1a84:	01661600 	cmneq	r6, r0, lsl #12
    1a88:	892c0000 	stmdbhi	ip!, {}	; <UNPREDICTABLE>
    1a8c:	00180000 	andseq	r0, r8, r0
    1a90:	19010000 	stmdbne	r1, {}	; <UNPREDICTABLE>
    1a94:	000003a8 	andeq	r0, r0, r8, lsr #7
    1a98:	0001761e 	andeq	r7, r1, lr, lsl r6
    1a9c:	00540100 	subseq	r0, r4, r0, lsl #2
    1aa0:	00012c16 	andeq	r2, r1, r6, lsl ip
    1aa4:	00896400 	addeq	r6, r9, r0, lsl #8
    1aa8:	00001400 	andeq	r1, r0, r0, lsl #8
    1aac:	c31a0100 	tstgt	sl, #0, 2
    1ab0:	1e000003 	cdpne	0, 0, cr0, cr0, cr3, {0}
    1ab4:	0000013c 	andeq	r0, r0, ip, lsr r1
    1ab8:	1f005401 	svcne	0x00005401
    1abc:	00000180 	andeq	r0, r0, r0, lsl #3
    1ac0:	00008998 	muleq	r0, r8, r9
    1ac4:	00000018 	andeq	r0, r0, r8, lsl r0
    1ac8:	04101c01 	ldreq	r1, [r0], #-3073	; 0xc01
    1acc:	991e0000 	ldmdbls	lr, {}	; <UNPREDICTABLE>
    1ad0:	06000001 	streq	r0, [r0], -r1
    1ad4:	001a5df2 			; <UNDEFINED> instruction: 0x001a5df2
    1ad8:	901e0000 	andsls	r0, lr, r0
    1adc:	01000001 	tsteq	r0, r1
    1ae0:	00182054 	andseq	r2, r8, r4, asr r0
    1ae4:	a2210000 	eorge	r0, r1, #0
    1ae8:	56000001 	strpl	r0, [r0], -r1
    1aec:	2200000c 	andcs	r0, r0, #12
    1af0:	0000014c 	andeq	r0, r0, ip, asr #2
    1af4:	00008998 	muleq	r0, r8, r9
    1af8:	00000010 	andeq	r0, r0, r0, lsl r0
    1afc:	5c1e5b02 	ldcpl	11, cr5, [lr], {2}
    1b00:	01000001 	tsteq	r0, r1
    1b04:	00000054 	andeq	r0, r0, r4, asr r0
    1b08:	0088c41a 	addeq	ip, r8, sl, lsl r4
    1b0c:	00095500 	andeq	r5, r9, r0, lsl #10
    1b10:	00043000 	andeq	r3, r4, r0
    1b14:	52011900 	andpl	r1, r1, #0, 18
    1b18:	20140a03 	andscs	r0, r4, r3, lsl #20
    1b1c:	01510119 	cmpeq	r1, r9, lsl r1
    1b20:	50011930 	andpl	r1, r1, r0, lsr r9
    1b24:	00007402 	andeq	r7, r0, r2, lsl #8
    1b28:	0089281a 	addeq	r2, r9, sl, lsl r8
    1b2c:	00093800 	andeq	r3, r9, r0, lsl #16
    1b30:	00045e00 	andeq	r5, r4, r0, lsl #28
    1b34:	53011900 	movwpl	r1, #6400	; 0x1900
    1b38:	01194801 	tsteq	r9, r1, lsl #16
    1b3c:	98030552 	stmdals	r3, {r1, r4, r6, r8, sl}
    1b40:	190000a0 	stmdbne	r0, {r5, r7}
    1b44:	03055101 	movweq	r5, #20737	; 0x5101
    1b48:	0000a0f4 	strdeq	sl, [r0], -r4
    1b4c:	05500119 	ldrbeq	r0, [r0, #-281]	; 0x119
    1b50:	00a12803 	adceq	r2, r1, r3, lsl #16
    1b54:	2c1b0000 	ldccs	0, cr0, [fp], {-0}
    1b58:	4e000089 	cdpmi	0, 0, cr0, cr0, cr9, {4}
    1b5c:	1a000009 	bne	1b88 <_start-0x6478>
    1b60:	00008960 	andeq	r8, r0, r0, ror #18
    1b64:	00000938 	andeq	r0, r0, r8, lsr r9
    1b68:	00000495 	muleq	r0, r5, r4
    1b6c:	01530119 	cmpeq	r3, r9, lsl r1
    1b70:	52011949 	andpl	r1, r1, #1196032	; 0x124000
    1b74:	a0980305 	addsge	r0, r8, r5, lsl #6
    1b78:	01190000 	tsteq	r9, r0
    1b7c:	f4030551 	vst3.16	{d0,d2,d4}, [r3 :64], r1
    1b80:	190000a0 	stmdbne	r0, {r5, r7}
    1b84:	03055001 	movweq	r5, #20481	; 0x5001
    1b88:	0000a144 	andeq	sl, r0, r4, asr #2
    1b8c:	89641b00 	stmdbhi	r4!, {r8, r9, fp, ip}^
    1b90:	094e0000 	stmdbeq	lr, {}^	; <UNPREDICTABLE>
    1b94:	941a0000 	ldrls	r0, [sl], #-0
    1b98:	38000089 	stmdacc	r0, {r0, r3, r7}
    1b9c:	cc000009 	stcgt	0, cr0, [r0], {9}
    1ba0:	19000004 	stmdbne	r0, {r2}
    1ba4:	4a015301 	bmi	567b0 <__bss_end__+0x49ef8>
    1ba8:	05520119 	ldrbeq	r0, [r2, #-281]	; 0x119
    1bac:	00a09803 	adceq	r9, r0, r3, lsl #16
    1bb0:	51011900 	tstpl	r1, r0, lsl #18
    1bb4:	a0f40305 	rscsge	r0, r4, r5, lsl #6
    1bb8:	01190000 	tsteq	r9, r0
    1bbc:	60030550 	andvs	r0, r3, r0, asr r5
    1bc0:	000000a1 	andeq	r0, r0, r1, lsr #1
    1bc4:	0089981b 	addeq	r9, r9, fp, lsl r8
    1bc8:	00094e00 	andeq	r4, r9, r0, lsl #28
    1bcc:	8a1c1a00 	bhi	7083d4 <__bss_end__+0x6fbb1c>
    1bd0:	09380000 	ldmdbeq	r8!, {}	; <UNPREDICTABLE>
    1bd4:	05030000 	streq	r0, [r3, #-0]
    1bd8:	01190000 	tsteq	r9, r0
    1bdc:	194c0153 	stmdbne	ip, {r0, r1, r4, r6, r8}^
    1be0:	03055201 	movweq	r5, #20993	; 0x5201
    1be4:	0000a098 	muleq	r0, r8, r0
    1be8:	05510119 	ldrbeq	r0, [r1, #-281]	; 0x119
    1bec:	00a0f403 	adceq	pc, r0, r3, lsl #8
    1bf0:	50011900 	andpl	r1, r1, r0, lsl #18
    1bf4:	a1840305 	orrge	r0, r4, r5, lsl #6
    1bf8:	1b000000 	blne	1c00 <_start-0x6400>
    1bfc:	00008a20 	andeq	r8, r0, r0, lsr #20
    1c00:	0000094e 	andeq	r0, r0, lr, asr #18
    1c04:	00910700 	addseq	r0, r1, r0, lsl #14
    1c08:	ee230000 	cdp	0, 2, cr0, cr3, cr0, {0}
    1c0c:	01000002 	tsteq	r0, r2
    1c10:	0000a135 	andeq	sl, r0, r5, lsr r1
    1c14:	008a5000 	addeq	r5, sl, r0
    1c18:	00006c00 	andeq	r6, r0, r0, lsl #24
    1c1c:	939c0100 	orrsls	r0, ip, #0, 2
    1c20:	14000005 	strne	r0, [r0], #-5
    1c24:	35010063 	strcc	r0, [r1, #-99]	; 0x63
    1c28:	00000146 	andeq	r0, r0, r6, asr #2
    1c2c:	00000c76 	andeq	r0, r0, r6, ror ip
    1c30:	0100651d 	tsteq	r0, sp, lsl r5
    1c34:	0000a136 	andeq	sl, r0, r6, lsr r1
    1c38:	000c9400 	andeq	r9, ip, r0, lsl #8
    1c3c:	01802200 	orreq	r2, r0, r0, lsl #4
    1c40:	8a580000 	bhi	1601c48 <__bss_end__+0x15f5390>
    1c44:	00480000 	subeq	r0, r8, r0
    1c48:	3a010000 	bcc	41c50 <__bss_end__+0x35398>
    1c4c:	0001991e 	andeq	r9, r1, lr, lsl r9
    1c50:	30f20600 	rscscc	r0, r2, r0, lsl #12
    1c54:	0000001c 	andeq	r0, r0, ip, lsl r0
    1c58:	0001901e 	andeq	r9, r1, lr, lsl r0
    1c5c:	24530100 	ldrbcs	r0, [r3], #-256	; 0x100
    1c60:	00008a58 	andeq	r8, r0, r8, asr sl
    1c64:	00000048 	andeq	r0, r0, r8, asr #32
    1c68:	0001a221 	andeq	sl, r1, r1, lsr #4
    1c6c:	000ca700 	andeq	sl, ip, r0, lsl #14
    1c70:	014c2500 	cmpeq	ip, r0, lsl #10
    1c74:	8a580000 	bhi	1601c7c <__bss_end__+0x15f53c4>
    1c78:	00300000 	eorseq	r0, r0, r0
    1c7c:	5b020000 	blpl	81c84 <__bss_end__+0x753cc>
    1c80:	00015c1e 	andeq	r5, r1, lr, lsl ip
    1c84:	00530100 	subseq	r0, r3, r0, lsl #2
    1c88:	13000000 	movwne	r0, #0
    1c8c:	000005b4 			; <UNDEFINED> instruction: 0x000005b4
    1c90:	8abc4001 	bhi	fef11c9c <__bss_end__+0xfef053e4>
    1c94:	00340000 	eorseq	r0, r4, r0
    1c98:	9c010000 	stcls	0, cr0, [r1], {-0}
    1c9c:	00000606 	andeq	r0, r0, r6, lsl #12
    1ca0:	01006314 	tsteq	r0, r4, lsl r3
    1ca4:	00014640 	andeq	r4, r1, r0, asr #12
    1ca8:	000cc700 	andeq	ip, ip, r0, lsl #14
    1cac:	0b891c00 	bleq	fe248cb4 <__bss_end__+0xfe23c3fc>
    1cb0:	40010000 	andmi	r0, r1, r0
    1cb4:	0000007d 	andeq	r0, r0, sp, ror r0
    1cb8:	00000ce5 	andeq	r0, r0, r5, ror #25
    1cbc:	01006e14 	tsteq	r0, r4, lsl lr
    1cc0:	00003740 	andeq	r3, r0, r0, asr #14
    1cc4:	000d0300 	andeq	r0, sp, r0, lsl #6
    1cc8:	00701d00 	rsbseq	r1, r0, r0, lsl #26
    1ccc:	01ae4101 			; <UNDEFINED> instruction: 0x01ae4101
    1cd0:	0d210000 	stceq	0, cr0, [r1, #-0]
    1cd4:	cc240000 	stcgt	0, cr0, [r4], #-0
    1cd8:	2000008a 	andcs	r0, r0, sl, lsl #1
    1cdc:	1d000000 	stcne	0, cr0, [r0, #-0]
    1ce0:	43010069 	movwmi	r0, #4201	; 0x1069
    1ce4:	00000025 	andeq	r0, r0, r5, lsr #32
    1ce8:	00000d3f 	andeq	r0, r0, pc, lsr sp
    1cec:	008adc18 	addeq	sp, sl, r8, lsl ip
    1cf0:	00051200 	andeq	r1, r5, r0, lsl #4
    1cf4:	50011900 	andpl	r1, r1, r0, lsl #18
    1cf8:	00007702 	andeq	r7, r0, r2, lsl #14
    1cfc:	79230000 	stmdbvc	r3!, {}	; <UNPREDICTABLE>
    1d00:	01000005 	tsteq	r0, r5
    1d04:	0000251f 	andeq	r2, r0, pc, lsl r5
    1d08:	008af000 	addeq	pc, sl, r0
    1d0c:	00005800 	andeq	r5, r0, r0, lsl #16
    1d10:	949c0100 	ldrls	r0, [ip], #256	; 0x100
    1d14:	14000006 	strne	r0, [r0], #-6
    1d18:	1f010071 	svcne	0x00010071
    1d1c:	00000146 	andeq	r0, r0, r6, asr #2
    1d20:	00000d5e 	andeq	r0, r0, lr, asr sp
    1d24:	000b891c 	andeq	r8, fp, ip, lsl r9
    1d28:	7d1f0100 	ldfvcs	f0, [pc, #-0]	; 1d30 <_start-0x62d0>
    1d2c:	7c000000 	stcvc	0, cr0, [r0], {-0}
    1d30:	1400000d 	strne	r0, [r0], #-13
    1d34:	1f01006e 	svcne	0x0001006e
    1d38:	00000037 	andeq	r0, r0, r7, lsr r0
    1d3c:	00000d9a 	muleq	r0, sl, sp
    1d40:	00012c16 	andeq	r2, r1, r6, lsl ip
    1d44:	008b0400 	addeq	r0, fp, r0, lsl #8
    1d48:	00001800 	andeq	r1, r0, r0, lsl #16
    1d4c:	63210100 	teqvs	r1, #0, 2
    1d50:	1e000006 	cdpne	0, 0, cr0, cr0, cr6, {0}
    1d54:	0000013c 	andeq	r0, r0, ip, lsr r1
    1d58:	1a005401 	bne	16d64 <__bss_end__+0xa4ac>
    1d5c:	00008b04 	andeq	r8, r0, r4, lsl #22
    1d60:	000002a7 	andeq	r0, r0, r7, lsr #5
    1d64:	00000677 	andeq	r0, r0, r7, ror r6
    1d68:	02500119 	subseq	r0, r0, #1073741830	; 0x40000006
    1d6c:	18000074 	stmdane	r0, {r2, r4, r5, r6}
    1d70:	00008b34 	andeq	r8, r0, r4, lsr fp
    1d74:	00000593 	muleq	r0, r3, r5
    1d78:	02520119 	subseq	r0, r2, #1073741830	; 0x40000006
    1d7c:	01190075 	tsteq	r9, r5, ror r0
    1d80:	00760251 	rsbseq	r0, r6, r1, asr r2
    1d84:	02500119 	subseq	r0, r0, #1073741830	; 0x40000006
    1d88:	00000074 	andeq	r0, r0, r4, ror r0
    1d8c:	00058f23 	andeq	r8, r5, r3, lsr #30
    1d90:	25280100 	strcs	r0, [r8, #-256]!	; 0x100
    1d94:	48000000 	stmdami	r0, {}	; <UNPREDICTABLE>
    1d98:	a000008b 	andge	r0, r0, fp, lsl #1
    1d9c:	01000000 	mrseq	r0, (UNDEF: 0)
    1da0:	0007939c 	muleq	r7, ip, r3
    1da4:	00631400 	rsbeq	r1, r3, r0, lsl #8
    1da8:	01462801 	cmpeq	r6, r1, lsl #16
    1dac:	0db80000 	ldceq	0, cr0, [r8]
    1db0:	76140000 	ldrvc	r0, [r4], -r0
    1db4:	ae280100 	sufgee	f0, f0, f0
    1db8:	ec000001 	stc	0, cr0, [r0], {1}
    1dbc:	1400000d 	strne	r0, [r0], #-13
    1dc0:	2801006e 	stmdacs	r1, {r1, r2, r3, r5, r6}
    1dc4:	00000037 	andeq	r0, r0, r7, lsr r0
    1dc8:	00000e26 	andeq	r0, r0, r6, lsr #28
    1dcc:	007a7326 	rsbseq	r7, sl, r6, lsr #6
    1dd0:	00252901 	eoreq	r2, r5, r1, lsl #18
    1dd4:	55010000 	strpl	r0, [r1, #-0]
    1dd8:	00023527 	andeq	r3, r2, r7, lsr #10
    1ddc:	372c0100 	strcc	r0, [ip, -r0, lsl #2]!
    1de0:	60000000 	andvs	r0, r0, r0
    1de4:	1500000e 	strne	r0, [r0, #-14]
    1de8:	0000018e 	andeq	r0, r0, lr, lsl #3
    1dec:	000007a3 	andeq	r0, r0, r3, lsr #15
    1df0:	a0a00305 	adcge	r0, r0, r5, lsl #6
    1df4:	2c160000 	ldccs	0, cr0, [r6], {-0}
    1df8:	50000001 	andpl	r0, r0, r1
    1dfc:	1c00008b 	stcne	0, cr0, [r0], {139}	; 0x8b
    1e00:	01000000 	mrseq	r0, (UNDEF: 0)
    1e04:	00071b29 	andeq	r1, r7, r9, lsr #22
    1e08:	013c1700 	teqeq	ip, r0, lsl #14
    1e0c:	0e7e0000 	cdpeq	0, 7, cr0, cr14, cr0, {0}
    1e10:	16000000 	strne	r0, [r0], -r0
    1e14:	0000012c 	andeq	r0, r0, ip, lsr #2
    1e18:	00008b90 	muleq	r0, r0, fp
    1e1c:	00000014 	andeq	r0, r0, r4, lsl r0
    1e20:	07383001 	ldreq	r3, [r8, -r1]!
    1e24:	3c170000 	ldccc	0, cr0, [r7], {-0}
    1e28:	b2000001 	andlt	r0, r0, #1
    1e2c:	0000000e 	andeq	r0, r0, lr
    1e30:	008b801a 	addeq	r8, fp, sl, lsl r0
    1e34:	00060600 	andeq	r0, r6, r0, lsl #12
    1e38:	00075a00 	andeq	r5, r7, r0, lsl #20
    1e3c:	52011900 	andpl	r1, r1, #0, 18
    1e40:	5201f303 	andpl	pc, r1, #201326592	; 0xc000000
    1e44:	03510119 	cmpeq	r1, #1073741830	; 0x40000006
    1e48:	195101f3 	ldmdbne	r1, {r0, r1, r4, r5, r6, r7, r8}^
    1e4c:	74025001 	strvc	r5, [r2], #-1
    1e50:	c01a0000 	andsgt	r0, sl, r0
    1e54:	3800008b 	stmdacc	r0, {r0, r1, r3, r7}
    1e58:	89000009 	stmdbhi	r0, {r0, r3}
    1e5c:	19000007 	stmdbne	r0, {r0, r1, r2}
    1e60:	08025301 	stmdaeq	r2, {r0, r8, r9, ip, lr}
    1e64:	52011930 	andpl	r1, r1, #48, 18	; 0xc0000
    1e68:	a0a00305 	adcge	r0, r0, r5, lsl #6
    1e6c:	01190000 	tsteq	r9, r0
    1e70:	f4030551 	vst3.16	{d0,d2,d4}, [r3 :64], r1
    1e74:	190000a0 	stmdbne	r0, {r5, r7}
    1e78:	03055001 	movweq	r5, #20481	; 0x5001
    1e7c:	0000a1bc 			; <UNDEFINED> instruction: 0x0000a1bc
    1e80:	8bc41b00 	blhi	ff108a88 <__bss_end__+0xff0fc1d0>
    1e84:	094e0000 	stmdbeq	lr, {}^	; <UNPREDICTABLE>
    1e88:	08000000 	stmdaeq	r0, {}	; <UNPREDICTABLE>
    1e8c:	0000007f 	andeq	r0, r0, pc, ror r0
    1e90:	000007a3 	andeq	r0, r0, r3, lsr #15
    1e94:	00007609 	andeq	r7, r0, r9, lsl #12
    1e98:	07000900 	streq	r0, [r0, -r0, lsl #18]
    1e9c:	00000793 	muleq	r0, r3, r7
    1ea0:	0005a023 	andeq	sl, r5, r3, lsr #32
    1ea4:	25470100 	strbcs	r0, [r7, #-256]	; 0x100
    1ea8:	e8000000 	stmda	r0, {}	; <UNPREDICTABLE>
    1eac:	1800008b 	stmdane	r0, {r0, r1, r3, r7}
    1eb0:	01000001 	tsteq	r0, r1
    1eb4:	0009339c 	muleq	r9, ip, r3
    1eb8:	00631400 	rsbeq	r1, r3, r0, lsl #8
    1ebc:	01464701 	cmpeq	r6, r1, lsl #14
    1ec0:	0ed00000 	cdpeq	0, 13, cr0, cr0, cr0, {0}
    1ec4:	891c0000 	ldmdbhi	ip, {}	; <UNPREDICTABLE>
    1ec8:	0100000b 	tsteq	r0, fp
    1ecc:	00007d47 	andeq	r7, r0, r7, asr #26
    1ed0:	000f5500 	andeq	r5, pc, r0, lsl #10
    1ed4:	006e1400 	rsbeq	r1, lr, r0, lsl #8
    1ed8:	00374701 	eorseq	r4, r7, r1, lsl #14
    1edc:	0f9a0000 	svceq	0x009a0000
    1ee0:	701d0000 	andsvc	r0, sp, r0
    1ee4:	ae480100 	dvfgee	f0, f0, f0
    1ee8:	ed000001 	stc	0, cr0, [r0, #-4]
    1eec:	1500000f 	strne	r0, [r0, #-15]
    1ef0:	0000018e 	andeq	r0, r0, lr, lsl #3
    1ef4:	00000933 	andeq	r0, r0, r3, lsr r9
    1ef8:	a0ac0305 	adcge	r0, ip, r5, lsl #6
    1efc:	b4160000 	ldrlt	r0, [r6], #-0
    1f00:	ec000001 	stc	0, cr0, [r0], {1}
    1f04:	2000008b 	andcs	r0, r0, fp, lsl #1
    1f08:	01000000 	mrseq	r0, (UNDEF: 0)
    1f0c:	00083c4a 	andeq	r3, r8, sl, asr #24
    1f10:	01c41700 	biceq	r1, r4, r0, lsl #14
    1f14:	10320000 	eorsne	r0, r2, r0
    1f18:	2c220000 	stccs	0, cr0, [r2], #-0
    1f1c:	ec000001 	stc	0, cr0, [r0], {1}
    1f20:	1c00008b 	stcne	0, cr0, [r0], {139}	; 0x8b
    1f24:	02000000 	andeq	r0, r0, #0
    1f28:	013c1757 	teqeq	ip, r7, asr r7
    1f2c:	10320000 	eorsne	r0, r2, r0
    1f30:	00000000 	andeq	r0, r0, r0
    1f34:	008c1828 	addeq	r1, ip, r8, lsr #16
    1f38:	00008000 	andeq	r8, r0, r0
    1f3c:	0008dd00 	andeq	sp, r8, r0, lsl #26
    1f40:	00691d00 	rsbeq	r1, r9, r0, lsl #26
    1f44:	00254c01 	eoreq	r4, r5, r1, lsl #24
    1f48:	10b70000 	adcsne	r0, r7, r0
    1f4c:	ce1f0000 	cdpgt	0, 1, cr0, cr15, cr0, {0}
    1f50:	18000001 	stmdane	r0, {r0}
    1f54:	4800008c 	stmdami	r0, {r2, r3, r7}
    1f58:	01000000 	mrseq	r0, (UNDEF: 0)
    1f5c:	0008a44d 	andeq	sl, r8, sp, asr #8
    1f60:	01e71700 	mvneq	r1, r0, lsl #14
    1f64:	10e00000 	rscne	r0, r0, r0
    1f68:	de170000 	cdple	0, 1, cr0, cr7, cr0, {0}
    1f6c:	1c000001 	stcne	0, cr0, [r0], {1}
    1f70:	20000011 	andcs	r0, r0, r1, lsl r0
    1f74:	00000048 	andeq	r0, r0, r8, asr #32
    1f78:	0001f021 	andeq	pc, r1, r1, lsr #32
    1f7c:	00114800 	andseq	r4, r1, r0, lsl #16
    1f80:	01662500 	cmneq	r6, r0, lsl #10
    1f84:	8c1c0000 	ldchi	0, cr0, [ip], {-0}
    1f88:	00600000 	rsbeq	r0, r0, r0
    1f8c:	66020000 	strvs	r0, [r2], -r0
    1f90:	00017617 	andeq	r7, r1, r7, lsl r6
    1f94:	00117300 	andseq	r7, r1, r0, lsl #6
    1f98:	00000000 	andeq	r0, r0, r0
    1f9c:	008c881a 	addeq	r8, ip, sl, lsl r8
    1fa0:	00093800 	andeq	r3, r9, r0, lsl #16
    1fa4:	0008d300 	andeq	sp, r8, r0, lsl #6
    1fa8:	53011900 	movwpl	r1, #6400	; 0x1900
    1fac:	194e0802 	stmdbne	lr, {r1, fp}^
    1fb0:	03055201 	movweq	r5, #20993	; 0x5201
    1fb4:	0000a0ac 	andeq	sl, r0, ip, lsr #1
    1fb8:	05510119 	ldrbeq	r0, [r1, #-281]	; 0x119
    1fbc:	00a0f403 	adceq	pc, r0, r3, lsl #8
    1fc0:	50011900 	andpl	r1, r1, r0, lsl #18
    1fc4:	a1e00305 	mvnge	r0, r5, lsl #6
    1fc8:	1b000000 	blne	1fd0 <_start-0x6030>
    1fcc:	00008c8c 	andeq	r8, r0, ip, lsl #25
    1fd0:	0000094e 	andeq	r0, r0, lr, asr #18
    1fd4:	014c1600 	cmpeq	ip, r0, lsl #12
    1fd8:	8ca00000 	stchi	0, cr0, [r0]
    1fdc:	00100000 	andseq	r0, r0, r0
    1fe0:	50010000 	andpl	r0, r1, r0
    1fe4:	000008fa 	strdeq	r0, [r0], -sl
    1fe8:	00015c17 	andeq	r5, r1, r7, lsl ip
    1fec:	00119f00 	andseq	r9, r1, r0, lsl #30
    1ff0:	cc1a0000 	ldcgt	0, cr0, [sl], {-0}
    1ff4:	3800008c 	stmdacc	r0, {r2, r3, r7}
    1ff8:	29000009 	stmdbcs	r0, {r0, r3}
    1ffc:	19000009 	stmdbne	r0, {r0, r3}
    2000:	08025301 	stmdaeq	r2, {r0, r8, r9, ip, lr}
    2004:	52011950 	andpl	r1, r1, #80, 18	; 0x140000
    2008:	a0ac0305 	adcge	r0, ip, r5, lsl #6
    200c:	01190000 	tsteq	r9, r0
    2010:	f4030551 	vst3.16	{d0,d2,d4}, [r3 :64], r1
    2014:	190000a0 	stmdbne	r0, {r5, r7}
    2018:	03055001 	movweq	r5, #20481	; 0x5001
    201c:	0000a204 	andeq	sl, r0, r4, lsl #4
    2020:	8cd01b00 	vldmiahi	r0, {d17-d16}
    2024:	094e0000 	stmdbeq	lr, {}^	; <UNPREDICTABLE>
    2028:	07000000 	streq	r0, [r0, -r0]
    202c:	00000793 	muleq	r0, r3, r7
    2030:	00020829 	andeq	r0, r2, r9, lsr #16
    2034:	25270400 	strcs	r0, [r7, #-1024]!	; 0x400
    2038:	4e000000 	cdpmi	0, 0, cr0, cr0, cr0, {0}
    203c:	2a000009 	bcs	2068 <_start-0x5f98>
    2040:	00000086 	andeq	r0, r0, r6, lsl #1
    2044:	282c002b 	stmdacs	ip!, {r0, r1, r3, r5}
    2048:	04000002 	streq	r0, [r0], #-2
    204c:	05992d63 	ldreq	r2, [r9, #3427]	; 0xd63
    2050:	1b050000 	blne	142058 <__bss_end__+0x1357a0>
    2054:	0000007d 	andeq	r0, r0, sp, ror r0
    2058:	00007d2a 	andeq	r7, r0, sl, lsr #26
    205c:	00252a00 	eoreq	r2, r5, r0, lsl #20
    2060:	2c2a0000 	stccs	0, cr0, [sl], #-0
    2064:	00000000 	andeq	r0, r0, r0
    2068:	0000db00 	andeq	sp, r0, r0, lsl #22
    206c:	ce000400 	cfcpysgt	mvf0, mvf0
    2070:	04000005 	streq	r0, [r0], #-5
    2074:	00039701 	andeq	r9, r3, r1, lsl #14
    2078:	05e50100 	strbeq	r0, [r5, #256]!	; 0x100
    207c:	05350000 	ldreq	r0, [r5, #-0]!
    2080:	8d000000 	stchi	0, cr0, [r0, #-0]
    2084:	00200000 	eoreq	r0, r0, r0
    2088:	06b70000 	ldrteq	r0, [r7], r0
    208c:	01020000 	mrseq	r0, (UNDEF: 2)
    2090:	0002cd06 	andeq	ip, r2, r6, lsl #26
    2094:	08010200 	stmdaeq	r1, {r9}
    2098:	000002cb 	andeq	r0, r0, fp, asr #5
    209c:	d9050202 	stmdble	r5, {r1, r9}
    20a0:	02000002 	andeq	r0, r0, #2
    20a4:	01b20702 			; <UNDEFINED> instruction: 0x01b20702
    20a8:	04030000 	streq	r0, [r3], #-0
    20ac:	746e6905 	strbtvc	r6, [lr], #-2309	; 0x905
    20b0:	07040200 	streq	r0, [r4, -r0, lsl #4]
    20b4:	00000088 	andeq	r0, r0, r8, lsl #1
    20b8:	c2050802 	andgt	r0, r5, #131072	; 0x20000
    20bc:	02000000 	andeq	r0, r0, #0
    20c0:	007e0708 	rsbseq	r0, lr, r8, lsl #14
    20c4:	04020000 	streq	r0, [r2], #-0
    20c8:	0000c705 	andeq	ip, r0, r5, lsl #14
    20cc:	07040200 	streq	r0, [r4, -r0, lsl #4]
    20d0:	0000023a 	andeq	r0, r0, sl, lsr r2
    20d4:	04020404 	streq	r0, [r2], #-1028	; 0x404
    20d8:	00008307 	andeq	r8, r0, r7, lsl #6
    20dc:	7a040500 	bvc	1034e4 <__bss_end__+0xf6c2c>
    20e0:	02000000 	andeq	r0, r0, #0
    20e4:	02d40801 	sbcseq	r0, r4, #65536	; 0x10000
    20e8:	88060000 	stmdahi	r6, {}	; <UNPREDICTABLE>
    20ec:	02000005 	andeq	r0, r0, #5
    20f0:	000048d4 	ldrdeq	r4, [r0], -r4	; <UNPREDICTABLE>
    20f4:	05990700 	ldreq	r0, [r9, #1792]	; 0x700
    20f8:	1b030000 	blne	c2100 <__bss_end__+0xb5848>
    20fc:	0000006b 	andeq	r0, r0, fp, rrx
    2100:	00008d00 	andeq	r8, r0, r0, lsl #26
    2104:	00000020 	andeq	r0, r0, r0, lsr #32
    2108:	5f089c01 	svcpl	0x00089c01
    210c:	03010070 	movweq	r0, #4208	; 0x1070
    2110:	0000006b 	andeq	r0, r0, fp, rrx
    2114:	63085001 	movwvs	r5, #32769	; 0x8001
    2118:	41030100 	mrsmi	r0, (UNDEF: 19)
    211c:	01000000 	mrseq	r0, (UNDEF: 0)
    2120:	006e0951 	rsbeq	r0, lr, r1, asr r9
    2124:	00810301 	addeq	r0, r1, r1, lsl #6
    2128:	11d90000 	bicsne	r0, r9, r0
    212c:	700a0000 	andvc	r0, sl, r0
    2130:	74040100 	strvc	r0, [r4], #-256	; 0x100
    2134:	fa000000 	blx	213c <_start-0x5ec4>
    2138:	0b000011 	bleq	2184 <_start-0x5e7c>
    213c:	04010065 	streq	r0, [r1], #-101	; 0x65
    2140:	00000074 	andeq	r0, r0, r4, ror r0
    2144:	00005201 	andeq	r5, r0, r1, lsl #4
    2148:	00000191 	muleq	r0, r1, r1
    214c:	066b0004 	strbteq	r0, [fp], -r4
    2150:	01040000 	mrseq	r0, (UNDEF: 4)
    2154:	00000397 	muleq	r0, r7, r3
    2158:	0005f301 	andeq	pc, r5, r1, lsl #6
    215c:	00053500 	andeq	r3, r5, r0, lsl #10
    2160:	008d2000 	addeq	r2, sp, r0
    2164:	00005800 	andeq	r5, r0, r0, lsl #16
    2168:	0007a700 	andeq	sl, r7, r0, lsl #14
    216c:	024b0200 	subeq	r0, fp, #0, 4
    2170:	28020000 	stmdacs	r2, {}	; <UNPREDICTABLE>
    2174:	00000030 	andeq	r0, r0, r0, lsr r0
    2178:	00011203 	andeq	r1, r1, r3, lsl #4
    217c:	00030400 	andeq	r0, r3, r0, lsl #8
    2180:	00000047 	andeq	r0, r0, r7, asr #32
    2184:	00042304 	andeq	r2, r4, r4, lsl #6
    2188:	00004700 	andeq	r4, r0, r0, lsl #14
    218c:	05000000 	streq	r0, [r0, #-0]
    2190:	01140204 	tsteq	r4, r4, lsl #4
    2194:	62020000 	andvs	r0, r2, #0
    2198:	00000025 	andeq	r0, r0, r5, lsr #32
    219c:	69050406 	stmdbvs	r5, {r1, r2, sl}
    21a0:	0700746e 	streq	r7, [r0, -lr, ror #8]
    21a4:	00880704 	addeq	r0, r8, r4, lsl #14
    21a8:	01070000 	mrseq	r0, (UNDEF: 7)
    21ac:	0002cd06 	andeq	ip, r2, r6, lsl #26
    21b0:	05020700 	streq	r0, [r2, #-1792]	; 0x700
    21b4:	000002d9 	ldrdeq	r0, [r0], -r9
    21b8:	c7050407 	strgt	r0, [r5, -r7, lsl #8]
    21bc:	07000000 	streq	r0, [r0, -r0]
    21c0:	00c20508 	sbceq	r0, r2, r8, lsl #10
    21c4:	01070000 	mrseq	r0, (UNDEF: 7)
    21c8:	0002cb08 	andeq	ip, r2, r8, lsl #22
    21cc:	07020700 	streq	r0, [r2, -r0, lsl #14]
    21d0:	000001b2 			; <UNDEFINED> instruction: 0x000001b2
    21d4:	83070407 	movwhi	r0, #29703	; 0x7407
    21d8:	07000000 	streq	r0, [r0, -r0]
    21dc:	007e0708 	rsbseq	r0, lr, r8, lsl #14
    21e0:	04070000 	streq	r0, [r7], #-0
    21e4:	00023a07 	andeq	r3, r2, r7, lsl #20
    21e8:	a7040800 	strge	r0, [r4, -r0, lsl #16]
    21ec:	07000000 	streq	r0, [r0, -r0]
    21f0:	02d40801 	sbcseq	r0, r4, #65536	; 0x10000
    21f4:	04080000 	streq	r0, [r8], #-0
    21f8:	000000b4 	strheq	r0, [r0], -r4
    21fc:	0000a709 	andeq	sl, r0, r9, lsl #14
    2200:	02080a00 	andeq	r0, r8, #0, 20
    2204:	06010000 	streq	r0, [r1], -r0
    2208:	00000054 	andeq	r0, r0, r4, asr r0
    220c:	00008d20 	andeq	r8, r0, r0, lsr #26
    2210:	00000058 	andeq	r0, r0, r8, asr r0
    2214:	01439c01 	cmpeq	r3, r1, lsl #24
    2218:	660b0000 	strvs	r0, [fp], -r0
    221c:	0100746d 	tsteq	r0, sp, ror #8
    2220:	0000ae06 	andeq	sl, r0, r6, lsl #28
    2224:	70910200 	addsvc	r0, r1, r0, lsl #4
    2228:	75620d0c 	strbvc	r0, [r2, #-3340]!	; 0xd0c
    222c:	08010066 	stmdaeq	r1, {r1, r2, r5, r6}
    2230:	00000143 	andeq	r0, r0, r3, asr #2
    2234:	c4b40305 	ldrtgt	r0, [r4], #773	; 0x305
    2238:	eb0e0000 	bl	382240 <__bss_end__+0x375988>
    223c:	01000004 	tsteq	r0, r4
    2240:	00004909 	andeq	r4, r0, r9, lsl #18
    2244:	5c910200 	lfmpl	f0, 4, [r1], {0}
    2248:	007a730f 	rsbseq	r7, sl, pc, lsl #6
    224c:	00540c01 	subseq	r0, r4, r1, lsl #24
    2250:	12250000 	eorne	r0, r5, #0
    2254:	48100000 	ldmdami	r0, {}	; <UNPREDICTABLE>
    2258:	7400008d 	strvc	r0, [r0], #-141	; 0x8d
    225c:	36000001 	strcc	r0, [r0], -r1
    2260:	11000001 	tstne	r0, r1
    2264:	91025301 	tstls	r2, r1, lsl #6
    2268:	5201114c 	andpl	r1, r1, #76, 2
    226c:	06489103 	strbeq	r9, [r8], -r3, lsl #2
    2270:	03510111 	cmpeq	r1, #1073741828	; 0x40000004
    2274:	1104000a 	tstne	r4, sl
    2278:	74025001 	strvc	r5, [r2], #-1
    227c:	5c120000 	ldcpl	0, cr0, [r2], {-0}
    2280:	1100008d 	smlabbne	r0, sp, r0, r0
    2284:	74025001 	strvc	r5, [r2], #-1
    2288:	13000000 	movwne	r0, #0
    228c:	000000a7 	andeq	r0, r0, r7, lsr #1
    2290:	00000154 	andeq	r0, r0, r4, asr r1
    2294:	00009a14 	andeq	r9, r0, r4, lsl sl
    2298:	0003ff00 	andeq	pc, r3, r0, lsl #30
    229c:	00005415 	andeq	r5, r0, r5, lsl r4
    22a0:	00016300 	andeq	r6, r1, r0, lsl #6
    22a4:	00ae1600 	adceq	r1, lr, r0, lsl #12
    22a8:	17000000 	strne	r0, [r0, -r0]
    22ac:	00000616 	andeq	r0, r0, r6, lsl r6
    22b0:	016e2004 	cmneq	lr, r4
    22b4:	04080000 	streq	r0, [r8], #-0
    22b8:	00000154 	andeq	r0, r0, r4, asr r1
    22bc:	00020518 	andeq	r0, r2, r8, lsl r5
    22c0:	54020500 	strpl	r0, [r2], #-1280	; 0x500
    22c4:	16000000 	strne	r0, [r0], -r0
    22c8:	000000a1 	andeq	r0, r0, r1, lsr #1
    22cc:	00005416 	andeq	r5, r0, r6, lsl r4
    22d0:	00ae1600 	adceq	r1, lr, r0, lsl #12
    22d4:	49160000 	ldmdbmi	r6, {}	; <UNPREDICTABLE>
    22d8:	00000000 	andeq	r0, r0, r0
    22dc:	0000ee00 	andeq	lr, r0, r0, lsl #28
    22e0:	9c000400 	cfstrsls	mvf0, [r0], {-0}
    22e4:	04000007 	streq	r0, [r0], #-7
    22e8:	00039701 	andeq	r9, r3, r1, lsl #14
    22ec:	06010100 	streq	r0, [r1], -r0, lsl #2
    22f0:	05350000 	ldreq	r0, [r5, #-0]!
    22f4:	8d780000 	ldclhi	0, cr0, [r8, #-0]
    22f8:	00340000 	eorseq	r0, r4, r0
    22fc:	08ad0000 	stmiaeq	sp!, {}	; <UNPREDICTABLE>
    2300:	04020000 	streq	r0, [r2], #-0
    2304:	746e6905 	strbtvc	r6, [lr], #-2309	; 0x905
    2308:	07040300 	streq	r0, [r4, -r0, lsl #6]
    230c:	00000088 	andeq	r0, r0, r8, lsl #1
    2310:	cd060103 	stfgts	f0, [r6, #-12]
    2314:	03000002 	movweq	r0, #2
    2318:	02d90502 	sbcseq	r0, r9, #8388608	; 0x800000
    231c:	04030000 	streq	r0, [r3], #-0
    2320:	0000c705 	andeq	ip, r0, r5, lsl #14
    2324:	05080300 	streq	r0, [r8, #-768]	; 0x300
    2328:	000000c2 	andeq	r0, r0, r2, asr #1
    232c:	cb080103 	blgt	202740 <__bss_end__+0x1f5e88>
    2330:	03000002 	movweq	r0, #2
    2334:	01b20702 			; <UNDEFINED> instruction: 0x01b20702
    2338:	04030000 	streq	r0, [r3], #-0
    233c:	00008307 	andeq	r8, r0, r7, lsl #6
    2340:	07080300 	streq	r0, [r8, -r0, lsl #6]
    2344:	0000007e 	andeq	r0, r0, lr, ror r0
    2348:	3a070403 	bcc	1c335c <__bss_end__+0x1b6aa4>
    234c:	03000002 	movweq	r0, #2
    2350:	02d40801 	sbcseq	r0, r4, #65536	; 0x10000
    2354:	04040000 	streq	r0, [r4], #-0
    2358:	0000007f 	andeq	r0, r0, pc, ror r0
    235c:	00007205 	andeq	r7, r0, r5, lsl #4
    2360:	060d0600 	streq	r0, [sp], -r0, lsl #12
    2364:	04010000 	streq	r0, [r1], #-0
    2368:	00000025 	andeq	r0, r0, r5, lsr #32
    236c:	00008d78 	andeq	r8, r0, r8, ror sp
    2370:	00000034 	andeq	r0, r0, r4, lsr r0
    2374:	00ab9c01 	adceq	r9, fp, r1, lsl #24
    2378:	70070000 	andvc	r0, r7, r0
    237c:	79040100 	stmdbvc	r4, {r8}
    2380:	4e000000 	cdpmi	0, 0, cr0, cr0, cr0, {0}
    2384:	00000012 	andeq	r0, r0, r2, lsl r0
    2388:	00002508 	andeq	r2, r0, r8, lsl #10
    238c:	0000ba00 	andeq	fp, r0, r0, lsl #20
    2390:	00250900 	eoreq	r0, r5, r0, lsl #18
    2394:	0a000000 	beq	239c <_start-0x5c64>
    2398:	0000061b 	andeq	r0, r0, fp, lsl r6
    239c:	00c51d02 	sbceq	r1, r5, r2, lsl #26
    23a0:	04040000 	streq	r0, [r4], #-0
    23a4:	000000ab 	andeq	r0, r0, fp, lsr #1
    23a8:	00002508 	andeq	r2, r0, r8, lsl #10
    23ac:	0000da00 	andeq	sp, r0, r0, lsl #20
    23b0:	00790900 	rsbseq	r0, r9, r0, lsl #18
    23b4:	0b000000 	bleq	23bc <_start-0x5c44>
    23b8:	00000616 	andeq	r0, r0, r6, lsl r6
    23bc:	00eb0c01 	rsceq	r0, fp, r1, lsl #24
    23c0:	03050000 	movweq	r0, #20480	; 0x5000
    23c4:	00009e44 	andeq	r9, r0, r4, asr #28
    23c8:	00cb0404 	sbceq	r0, fp, r4, lsl #8
    23cc:	54000000 	strpl	r0, [r0], #-0
    23d0:	04000006 	streq	r0, [r0], #-6
    23d4:	00083500 	andeq	r3, r8, r0, lsl #10
    23d8:	97010400 	strls	r0, [r1, -r0, lsl #8]
    23dc:	01000003 	tsteq	r0, r3
    23e0:	00000653 	andeq	r0, r0, r3, asr r6
    23e4:	00000535 	andeq	r0, r0, r5, lsr r5
    23e8:	00008dac 	andeq	r8, r0, ip, lsr #27
    23ec:	000004f0 	strdeq	r0, [r0], -r0	; <UNPREDICTABLE>
    23f0:	00000947 	andeq	r0, r0, r7, asr #18
    23f4:	69050402 	stmdbvs	r5, {r1, sl}
    23f8:	0300746e 	movweq	r7, #1134	; 0x46e
    23fc:	00880704 	addeq	r0, r8, r4, lsl #14
    2400:	01030000 	mrseq	r0, (UNDEF: 3)
    2404:	0002cd06 	andeq	ip, r2, r6, lsl #26
    2408:	05020300 	streq	r0, [r2, #-768]	; 0x300
    240c:	000002d9 	ldrdeq	r0, [r0], -r9
    2410:	c7050403 	strgt	r0, [r5, -r3, lsl #8]
    2414:	03000000 	movweq	r0, #0
    2418:	00c20508 	sbceq	r0, r2, r8, lsl #10
    241c:	01030000 	mrseq	r0, (UNDEF: 3)
    2420:	0002cb08 	andeq	ip, r2, r8, lsl #22
    2424:	07020300 	streq	r0, [r2, -r0, lsl #6]
    2428:	000001b2 			; <UNDEFINED> instruction: 0x000001b2
    242c:	83070403 	movwhi	r0, #29699	; 0x7403
    2430:	03000000 	movweq	r0, #0
    2434:	007e0708 	rsbseq	r0, lr, r8, lsl #14
    2438:	04030000 	streq	r0, [r3], #-0
    243c:	00023a07 	andeq	r3, r2, r7, lsl #20
    2440:	05040400 	streq	r0, [r4, #-1024]	; 0x400
    2444:	00007a04 	andeq	r7, r0, r4, lsl #20
    2448:	08010300 	stmdaeq	r1, {r8, r9}
    244c:	000002d4 	ldrdeq	r0, [r0], -r4
    2450:	00870405 	addeq	r0, r7, r5, lsl #8
    2454:	7a060000 	bvc	18245c <__bss_end__+0x175ba4>
    2458:	07000000 	streq	r0, [r0, -r0]
    245c:	0000024b 	andeq	r0, r0, fp, asr #4
    2460:	00972802 	addseq	r2, r7, r2, lsl #16
    2464:	12080000 	andne	r0, r8, #0
    2468:	04000001 	streq	r0, [r0], #-1
    246c:	00ae0004 	adceq	r0, lr, r4
    2470:	23090000 	movwcs	r0, #36864	; 0x9000
    2474:	72000004 	andvc	r0, r0, #4
    2478:	00000000 	andeq	r0, r0, r0
    247c:	01140700 	tsteq	r4, r0, lsl #14
    2480:	62020000 	andvs	r0, r2, #0
    2484:	0000008c 	andeq	r0, r0, ip, lsl #1
    2488:	0006350a 	andeq	r3, r6, sl, lsl #10
    248c:	25270100 	strcs	r0, [r7, #-256]!	; 0x100
    2490:	ac000000 	stcge	0, cr0, [r0], {-0}
    2494:	1400008d 	strne	r0, [r0], #-141	; 0x8d
    2498:	01000000 	mrseq	r0, (UNDEF: 0)
    249c:	0000e09c 	muleq	r0, ip, r0
    24a0:	00630b00 	rsbeq	r0, r3, r0, lsl #22
    24a4:	00252701 	eoreq	r2, r5, r1, lsl #14
    24a8:	126c0000 	rsbne	r0, ip, #0
    24ac:	0c000000 	stceq	0, cr0, [r0], {-0}
    24b0:	00646170 	rsbeq	r6, r4, r0, ror r1
    24b4:	00742e01 	rsbseq	r2, r4, r1, lsl #28
    24b8:	8dc00000 	stclhi	0, cr0, [r0]
    24bc:	002c0000 	eoreq	r0, ip, r0
    24c0:	9c010000 	stcls	0, cr0, [r1], {-0}
    24c4:	00000130 	andeq	r0, r0, r0, lsr r1
    24c8:	0100700b 	tsteq	r0, fp
    24cc:	0000742e 	andeq	r7, r0, lr, lsr #8
    24d0:	00129a00 	andseq	r9, r2, r0, lsl #20
    24d4:	06450d00 	strbeq	r0, [r5], -r0, lsl #26
    24d8:	2e010000 	cdpcs	0, 0, cr0, cr1, cr0, {0}
    24dc:	00000074 	andeq	r0, r0, r4, ror r0
    24e0:	000012c5 	andeq	r1, r0, r5, asr #5
    24e4:	0006730e 	andeq	r7, r6, lr, lsl #6
    24e8:	252e0100 	strcs	r0, [lr, #-256]!	; 0x100
    24ec:	01000000 	mrseq	r0, (UNDEF: 0)
    24f0:	656c0f52 	strbvs	r0, [ip, #-3922]!	; 0xf52
    24f4:	2f01006e 	svccs	0x0001006e
    24f8:	00000025 	andeq	r0, r0, r5, lsr #32
    24fc:	0a005101 	beq	16908 <__bss_end__+0xa050>
    2500:	0000062d 	andeq	r0, r0, sp, lsr #12
    2504:	00743701 	rsbseq	r3, r4, r1, lsl #14
    2508:	8dec0000 	stclhi	0, cr0, [ip]
    250c:	00400000 	subeq	r0, r0, r0
    2510:	9c010000 	stcls	0, cr0, [r1], {-0}
    2514:	0000019c 	muleq	r0, ip, r1
    2518:	7473640b 	ldrbtvc	r6, [r3], #-1035	; 0x40b
    251c:	74370100 	ldrtvc	r0, [r7], #-256	; 0x100
    2520:	e6000000 	str	r0, [r0], -r0
    2524:	0b000012 	bleq	2574 <_start-0x5a8c>
    2528:	3701006e 	strcc	r0, [r1, -lr, rrx]
    252c:	00000025 	andeq	r0, r0, r5, lsr #32
    2530:	0000131e 	andeq	r1, r0, lr, lsl r3
    2534:	0100700b 	tsteq	r0, fp
    2538:	00007437 	andeq	r7, r0, r7, lsr r4
    253c:	00133f00 	andseq	r3, r3, r0, lsl #30
    2540:	070d0d00 	streq	r0, [sp, -r0, lsl #26]
    2544:	37010000 	strcc	r0, [r1, -r0]
    2548:	00000074 	andeq	r0, r0, r4, ror r0
    254c:	00001375 	andeq	r1, r0, r5, ror r3
    2550:	6e656c10 	mcrvs	12, 3, r6, cr5, cr0, {0}
    2554:	25390100 	ldrcs	r0, [r9, #-256]!	; 0x100
    2558:	93000000 	movwls	r0, #0
    255c:	0f000013 	svceq	0x00000013
    2560:	3d010073 	stccc	0, cr0, [r1, #-460]	; 0xfffffe34
    2564:	00000074 	andeq	r0, r0, r4, ror r0
    2568:	0a005001 	beq	16574 <__bss_end__+0x9cbc>
    256c:	00000681 	andeq	r0, r0, r1, lsl #13
    2570:	00744701 	rsbseq	r4, r4, r1, lsl #14
    2574:	8e2c0000 	cdphi	0, 2, cr0, cr12, cr0, {0}
    2578:	01980000 	orrseq	r0, r8, r0
    257c:	9c010000 	stcls	0, cr0, [r1], {-0}
    2580:	000002ca 	andeq	r0, r0, sl, asr #5
    2584:	0006450d 	andeq	r4, r6, sp, lsl #10
    2588:	2c470100 	stfcse	f0, [r7], {-0}
    258c:	ba000000 	blt	2594 <_start-0x5a6c>
    2590:	0b000013 	bleq	25e4 <_start-0x5a1c>
    2594:	00747364 	rsbseq	r7, r4, r4, ror #6
    2598:	00744701 	rsbseq	r4, r4, r1, lsl #14
    259c:	13e80000 	mvnne	r0, #0
    25a0:	6e0b0000 	cdpvs	0, 0, cr0, cr11, cr0, {0}
    25a4:	25470100 	strbcs	r0, [r7, #-256]	; 0x100
    25a8:	56000000 	strpl	r0, [r0], -r0
    25ac:	0b000014 	bleq	2604 <_start-0x59fc>
    25b0:	006c6176 	rsbeq	r6, ip, r6, ror r1
    25b4:	00254701 	eoreq	r4, r5, r1, lsl #14
    25b8:	14820000 	strne	r0, [r2], #0
    25bc:	730d0000 	movwvc	r0, #53248	; 0xd000
    25c0:	01000006 	tsteq	r0, r6
    25c4:	00002547 	andeq	r2, r0, r7, asr #10
    25c8:	00150c00 	andseq	r0, r5, r0, lsl #24
    25cc:	064a0e00 	strbeq	r0, [sl], -r0, lsl #28
    25d0:	47010000 	strmi	r0, [r1, -r0]
    25d4:	00000025 	andeq	r0, r0, r5, lsr #32
    25d8:	0f049102 	svceq	0x00049102
    25dc:	00667562 	rsbeq	r7, r6, r2, ror #10
    25e0:	02ca4c01 	sbceq	r4, sl, #256	; 0x100
    25e4:	91030000 	mrsls	r0, (UNDEF: 3)
    25e8:	70107fa8 	andsvc	r7, r0, r8, lsr #31
    25ec:	744c0100 	strbvc	r0, [ip], #-256	; 0x100
    25f0:	36000000 	strcc	r0, [r0], -r0
    25f4:	10000015 	andne	r0, r0, r5, lsl r0
    25f8:	4d010075 	stcmi	0, cr0, [r1, #-468]	; 0xfffffe2c
    25fc:	0000002c 	andeq	r0, r0, ip, lsr #32
    2600:	000015db 	ldrdeq	r1, [r0], -fp
    2604:	00018e11 	andeq	r8, r1, r1, lsl lr
    2608:	0002ea00 	andeq	lr, r2, r0, lsl #20
    260c:	24030500 	strcs	r0, [r3], #-1280	; 0x500
    2610:	120000a2 	andne	r0, r0, #162	; 0xa2
    2614:	00008e98 	muleq	r0, r8, lr
    2618:	00000074 	andeq	r0, r0, r4, ror r0
    261c:	00000261 	andeq	r0, r0, r1, ror #4
    2620:	00062713 	andeq	r2, r6, r3, lsl r7
    2624:	2c520100 	ldfcse	f0, [r2], {-0}
    2628:	eb000000 	bl	2630 <_start-0x59d0>
    262c:	00000016 	andeq	r0, r0, r6, lsl r0
    2630:	008f7c14 	addeq	r7, pc, r4, lsl ip	; <UNPREDICTABLE>
    2634:	00063a00 	andeq	r3, r6, r0, lsl #20
    2638:	00029000 	andeq	r9, r2, r0
    263c:	53011500 	movwpl	r1, #5376	; 0x1500
    2640:	15750802 	ldrbne	r0, [r5, #-2050]!	; 0x802
    2644:	03055201 	movweq	r5, #20993	; 0x5201
    2648:	0000a224 	andeq	sl, r0, r4, lsr #4
    264c:	05510115 	ldrbeq	r0, [r1, #-277]	; 0x115
    2650:	00a25c03 	adceq	r5, r2, r3, lsl #24
    2654:	50011500 	andpl	r1, r1, r0, lsl #10
    2658:	a2480305 	subge	r0, r8, #335544320	; 0x14000000
    265c:	16000000 	strne	r0, [r0], -r0
    2660:	00008f80 	andeq	r8, r0, r0, lsl #31
    2664:	00000650 	andeq	r0, r0, r0, asr r6
    2668:	008f8c14 	addeq	r8, pc, r4, lsl ip	; <UNPREDICTABLE>
    266c:	0000e000 	andeq	lr, r0, r0
    2670:	0002ad00 	andeq	sl, r2, r0, lsl #26
    2674:	51011500 	tstpl	r1, r0, lsl #10
    2678:	00007d02 	andeq	r7, r0, r2, lsl #26
    267c:	008fa017 	addeq	sl, pc, r7, lsl r0	; <UNPREDICTABLE>
    2680:	00013000 	andeq	r3, r1, r0
    2684:	53011500 	movwpl	r1, #5376	; 0x1500
    2688:	15007d02 	strne	r7, [r0, #-3330]	; 0xd02
    268c:	74025101 	strvc	r5, [r2], #-257	; 0x101
    2690:	50011500 	andpl	r1, r1, r0, lsl #10
    2694:	00007502 	andeq	r7, r0, r2, lsl #10
    2698:	007a1800 	rsbseq	r1, sl, r0, lsl #16
    269c:	02da0000 	sbcseq	r0, sl, #0
    26a0:	6b190000 	blvs	6426a8 <__bss_end__+0x635df0>
    26a4:	3f000000 	svccc	0x00000000
    26a8:	007a1800 	rsbseq	r1, sl, r0, lsl #16
    26ac:	02ea0000 	rsceq	r0, sl, #0
    26b0:	6b190000 	blvs	6426b8 <__bss_end__+0x635e00>
    26b4:	04000000 	streq	r0, [r0], #-0
    26b8:	02da0600 	sbcseq	r0, sl, #0, 12
    26bc:	641a0000 	ldrvs	r0, [sl], #-0
    26c0:	01000006 	tsteq	r0, r6
    26c4:	008fc41f 	addeq	ip, pc, pc, lsl r4	; <UNPREDICTABLE>
    26c8:	00005000 	andeq	r5, r0, r0
    26cc:	6a9c0100 	bvs	fe702ad4 <__bss_end__+0xfe6f621c>
    26d0:	0d000003 	stceq	0, cr0, [r0, #-12]
    26d4:	00000679 	andeq	r0, r0, r9, ror r6
    26d8:	03791f01 	cmneq	r9, #1, 30
    26dc:	17170000 	ldrne	r0, [r7, -r0]
    26e0:	3d0d0000 	stccc	0, cr0, [sp, #-0]
    26e4:	01000006 	tsteq	r0, r6
    26e8:	00038e1f 	andeq	r8, r3, pc, lsl lr
    26ec:	00174300 	andseq	r4, r7, r0, lsl #6
    26f0:	018e1100 	orreq	r1, lr, r0, lsl #2
    26f4:	03a40000 			; <UNDEFINED> instruction: 0x03a40000
    26f8:	03050000 	movweq	r0, #20480	; 0x5000
    26fc:	0000a22c 	andeq	sl, r0, ip, lsr #4
    2700:	008fe414 	addeq	lr, pc, r4, lsl r4	; <UNPREDICTABLE>
    2704:	00063a00 	andeq	r3, r6, r0, lsl #20
    2708:	00036000 	andeq	r6, r3, r0
    270c:	53011500 	movwpl	r1, #5376	; 0x1500
    2710:	15200802 	strne	r0, [r0, #-2050]!	; 0x802
    2714:	03055201 	movweq	r5, #20993	; 0x5201
    2718:	0000a22c 	andeq	sl, r0, ip, lsr #4
    271c:	05510115 	ldrbeq	r0, [r1, #-277]	; 0x115
    2720:	00a25c03 	adceq	r5, r2, r3, lsl #24
    2724:	50011500 	andpl	r1, r1, r0, lsl #10
    2728:	a2940305 	addsge	r0, r4, #335544320	; 0x14000000
    272c:	16000000 	strne	r0, [r0], -r0
    2730:	00008fe8 	andeq	r8, r0, r8, ror #31
    2734:	00000650 	andeq	r0, r0, r0, asr r6
    2738:	00251b00 	eoreq	r1, r5, r0, lsl #22
    273c:	03790000 	cmneq	r9, #0
    2740:	251c0000 	ldrcs	r0, [ip, #-0]
    2744:	00000000 	andeq	r0, r0, r0
    2748:	036a0405 	cmneq	sl, #83886080	; 0x5000000
    274c:	251b0000 	ldrcs	r0, [fp, #-0]
    2750:	8e000000 	cdphi	0, 0, cr0, cr0, cr0, {0}
    2754:	1c000003 	stcne	0, cr0, [r0], {3}
    2758:	00000081 	andeq	r0, r0, r1, lsl #1
    275c:	7f040500 	svcvc	0x00040500
    2760:	18000003 	stmdane	r0, {r0, r1}
    2764:	0000007a 	andeq	r0, r0, sl, ror r0
    2768:	000003a4 	andeq	r0, r0, r4, lsr #7
    276c:	00006b19 	andeq	r6, r0, r9, lsl fp
    2770:	06000e00 	streq	r0, [r0], -r0, lsl #28
    2774:	00000394 	muleq	r0, r4, r3
    2778:	0002051d 	andeq	r0, r2, sp, lsl r5
    277c:	257d0100 	ldrbcs	r0, [sp, #-256]!	; 0x100
    2780:	14000000 	strne	r0, [r0], #-0
    2784:	88000090 	stmdahi	r0, {r4, r7}
    2788:	01000002 	tsteq	r0, r2
    278c:	0005ff9c 	muleq	r5, ip, pc	; <UNPREDICTABLE>
    2790:	75620b00 	strbvc	r0, [r2, #-2816]!	; 0xb00
    2794:	7d010066 	stcvc	0, cr0, [r1, #-408]	; 0xfffffe68
    2798:	00000074 	andeq	r0, r0, r4, ror r0
    279c:	0000176f 	andeq	r1, r0, pc, ror #14
    27a0:	01006e0b 	tsteq	r0, fp, lsl #28
    27a4:	0000257d 	andeq	r2, r0, sp, ror r5
    27a8:	00179b00 	andseq	r9, r7, r0, lsl #22
    27ac:	6d660b00 	vstmdbvs	r6!, {d16-d15}
    27b0:	7d010074 	stcvc	0, cr0, [r1, #-464]	; 0xfffffe30
    27b4:	00000081 	andeq	r0, r0, r1, lsl #1
    27b8:	000017c9 	andeq	r1, r0, r9, asr #15
    27bc:	0004eb0d 	andeq	lr, r4, sp, lsl #22
    27c0:	ae7d0100 	rpwgee	f0, f5, f0
    27c4:	fd000000 	stc2	0, cr0, [r0, #-0]
    27c8:	10000017 	andne	r0, r0, r7, lsl r0
    27cc:	7e010070 	mcrvc	0, 0, r0, cr1, cr0, {3}
    27d0:	00000074 	andeq	r0, r0, r4, ror r0
    27d4:	00001810 	andeq	r1, r0, r0, lsl r8
    27d8:	01006510 	tsteq	r0, r0, lsl r5
    27dc:	0000747e 	andeq	r7, r0, lr, ror r4
    27e0:	00188e00 	andseq	r8, r8, r0, lsl #28
    27e4:	018e1100 	orreq	r1, lr, r0, lsl #2
    27e8:	060f0000 	streq	r0, [pc], -r0
    27ec:	03050000 	movweq	r0, #20480	; 0x5000
    27f0:	0000a23c 	andeq	sl, r0, ip, lsr r2
    27f4:	0090681e 	addseq	r6, r0, lr, lsl r8
    27f8:	0001f400 	andeq	pc, r1, r0, lsl #8
    27fc:	00731000 	rsbseq	r1, r3, r0
    2800:	00748b01 	rsbseq	r8, r4, r1, lsl #22
    2804:	18b50000 	ldmne	r5!, {}	; <UNPREDICTABLE>
    2808:	6e0f0000 	cdpvs	0, 0, cr0, cr15, cr0, {0}
    280c:	01006d75 	tsteq	r0, r5, ror sp
    2810:	0006148b 	andeq	r1, r6, fp, lsl #9
    2814:	d8910300 	ldmle	r1, {r8, r9}
    2818:	0673137e 			; <UNDEFINED> instruction: 0x0673137e
    281c:	8c010000 	stchi	0, cr0, [r1], {-0}
    2820:	0000002c 	andeq	r0, r0, ip, lsr #32
    2824:	0000190a 	andeq	r1, r0, sl, lsl #18
    2828:	00909814 	addseq	r9, r0, r4, lsl r8
    282c:	0000b900 	andeq	fp, r0, r0, lsl #18
    2830:	00046d00 	andeq	r6, r4, r0, lsl #26
    2834:	50011500 	andpl	r1, r1, r0, lsl #10
    2838:	00007502 	andeq	r7, r0, r2, lsl #10
    283c:	0090bc14 	addseq	fp, r0, r4, lsl ip
    2840:	00063a00 	andeq	r3, r6, r0, lsl #20
    2844:	00049c00 	andeq	r9, r4, r0, lsl #24
    2848:	53011500 	movwpl	r1, #5376	; 0x1500
    284c:	15920802 	ldrne	r0, [r2, #2050]	; 0x802
    2850:	03055201 	movweq	r5, #20993	; 0x5201
    2854:	0000a23c 	andeq	sl, r0, ip, lsr r2
    2858:	05510115 	ldrbeq	r0, [r1, #-277]	; 0x115
    285c:	00a25c03 	adceq	r5, r2, r3, lsl #24
    2860:	50011500 	andpl	r1, r1, r0, lsl #10
    2864:	a2ac0305 	adcge	r0, ip, #335544320	; 0x14000000
    2868:	16000000 	strne	r0, [r0], -r0
    286c:	000090c0 	andeq	r9, r0, r0, asr #1
    2870:	00000650 	andeq	r0, r0, r0, asr r6
    2874:	00914014 	addseq	r4, r1, r4, lsl r0
    2878:	00063a00 	andeq	r3, r6, r0, lsl #20
    287c:	0004d400 	andeq	sp, r4, r0, lsl #8
    2880:	53011500 	movwpl	r1, #5376	; 0x1500
    2884:	15980802 	ldrne	r0, [r8, #2050]	; 0x802
    2888:	03055201 	movweq	r5, #20993	; 0x5201
    288c:	0000a23c 	andeq	sl, r0, ip, lsr r2
    2890:	05510115 	ldrbeq	r0, [r1, #-277]	; 0x115
    2894:	00a25c03 	adceq	r5, r2, r3, lsl #24
    2898:	50011500 	andpl	r1, r1, r0, lsl #10
    289c:	a2c80305 	sbcge	r0, r8, #335544320	; 0x14000000
    28a0:	16000000 	strne	r0, [r0], -r0
    28a4:	00009144 	andeq	r9, r0, r4, asr #2
    28a8:	00000650 	andeq	r0, r0, r0, asr r6
    28ac:	00916814 	addseq	r6, r1, r4, lsl r8
    28b0:	00019c00 	andeq	r9, r1, r0, lsl #24
    28b4:	00050a00 	andeq	r0, r5, r0, lsl #20
    28b8:	52011500 	andpl	r1, r1, #0, 10
    28bc:	15800802 	strne	r0, [r0, #2050]	; 0x802
    28c0:	91035101 	tstls	r3, r1, lsl #2
    28c4:	01157ed0 			; <UNDEFINED> instruction: 0x01157ed0
    28c8:	153a0150 	ldrne	r0, [sl, #-336]!	; 0x150
    28cc:	01047d02 	tsteq	r4, r2, lsl #26
    28d0:	7d021531 	cfstr32vc	mvfx1, [r2, #-196]	; 0xffffff3c
    28d4:	00770200 	rsbseq	r0, r7, r0, lsl #4
    28d8:	91901400 	orrsls	r1, r0, r0, lsl #8
    28dc:	019c0000 	orrseq	r0, ip, r0
    28e0:	05370000 	ldreq	r0, [r7, #-0]!
    28e4:	01150000 	tsteq	r5, r0
    28e8:	80080252 	andhi	r0, r8, r2, asr r2
    28ec:	03510115 	cmpeq	r1, #1073741829	; 0x40000005
    28f0:	157ed091 	ldrbne	sp, [lr, #-145]!	; 0x91
    28f4:	3a015001 	bcc	56900 <__bss_end__+0x4a048>
    28f8:	047d0215 	ldrbteq	r0, [sp], #-533	; 0x215
    28fc:	02153001 	andseq	r3, r5, #1
    2900:	7702007d 	smlsdxvc	r2, sp, r0, r0
    2904:	b8140000 	ldmdalt	r4, {}	; <UNPREDICTABLE>
    2908:	9c000091 	stcls	0, cr0, [r0], {145}	; 0x91
    290c:	64000001 	strvs	r0, [r0], #-1
    2910:	15000005 	strne	r0, [r0, #-5]
    2914:	08025201 	stmdaeq	r2, {r0, r9, ip, lr}
    2918:	51011580 	smlabbpl	r1, r0, r5, r1
    291c:	7ed09103 	atnvcs	f1, f3
    2920:	01500115 	cmpeq	r0, r5, lsl r1
    2924:	7d021540 	cfstr32vc	mvfx1, [r2, #-256]	; 0xffffff00
    2928:	15300104 	ldrne	r0, [r0, #-260]!	; 0x104
    292c:	02007d02 	andeq	r7, r0, #2, 26	; 0x80
    2930:	14000077 	strne	r0, [r0], #-119	; 0x77
    2934:	000091e0 	andeq	r9, r0, r0, ror #3
    2938:	0000019c 	muleq	r0, ip, r1
    293c:	00000591 	muleq	r0, r1, r5
    2940:	02520115 	subseq	r0, r2, #1073741829	; 0x40000005
    2944:	01158008 	tsteq	r5, r8
    2948:	d0910351 	addsle	r0, r1, r1, asr r3
    294c:	5001157e 	andpl	r1, r1, lr, ror r5
    2950:	02153201 	andseq	r3, r5, #268435456	; 0x10000000
    2954:	3001047d 	andcc	r0, r1, sp, ror r4
    2958:	007d0215 	rsbseq	r0, sp, r5, lsl r2
    295c:	00007702 	andeq	r7, r0, r2, lsl #14
    2960:	00921414 	addseq	r1, r2, r4, lsl r4
    2964:	00019c00 	andeq	r9, r1, r0, lsl #24
    2968:	0005be00 	andeq	fp, r5, r0, lsl #28
    296c:	52011500 	andpl	r1, r1, #0, 10
    2970:	15800802 	strne	r0, [r0, #2050]	; 0x802
    2974:	91035101 	tstls	r3, r1, lsl #2
    2978:	01157ed0 			; <UNDEFINED> instruction: 0x01157ed0
    297c:	15380150 	ldrne	r0, [r8, #-336]!	; 0x150
    2980:	01047d02 	tsteq	r4, r2, lsl #26
    2984:	7d021530 	cfstr32vc	mvfx1, [r2, #-192]	; 0xffffff40
    2988:	00770200 	rsbseq	r0, r7, r0, lsl #4
    298c:	92301400 	eorsls	r1, r0, #0, 8
    2990:	063a0000 	ldrteq	r0, [sl], -r0
    2994:	05f40000 	ldrbeq	r0, [r4, #0]!
    2998:	01150000 	tsteq	r5, r0
    299c:	b9080253 	stmdblt	r8, {r0, r1, r4, r6, r9}
    29a0:	05520115 	ldrbeq	r0, [r2, #-277]	; 0x115
    29a4:	00a23c03 	adceq	r3, r2, r3, lsl #24
    29a8:	51011500 	tstpl	r1, r0, lsl #10
    29ac:	a25c0305 	subsge	r0, ip, #335544320	; 0x14000000
    29b0:	01150000 	tsteq	r5, r0
    29b4:	f0030550 			; <UNDEFINED> instruction: 0xf0030550
    29b8:	150000a2 	strne	r0, [r0, #-162]	; 0xa2
    29bc:	02007d02 	andeq	r7, r0, #2, 26	; 0x80
    29c0:	16000079 			; <UNDEFINED> instruction: 0x16000079
    29c4:	00009234 	andeq	r9, r0, r4, lsr r2
    29c8:	00000650 	andeq	r0, r0, r0, asr r6
    29cc:	7a180000 	bvc	6029d4 <__bss_end__+0x5f611c>
    29d0:	0f000000 	svceq	0x00000000
    29d4:	19000006 	stmdbne	r0, {r1, r2}
    29d8:	0000006b 	andeq	r0, r0, fp, rrx
    29dc:	ff060009 			; <UNDEFINED> instruction: 0xff060009
    29e0:	18000005 	stmdane	r0, {r0, r2}
    29e4:	0000007a 	andeq	r0, r0, sl, ror r0
    29e8:	00000624 	andeq	r0, r0, r4, lsr #12
    29ec:	00006b19 	andeq	r6, r0, r9, lsl fp
    29f0:	1f007f00 	svcne	0x00007f00
    29f4:	0000061b 	andeq	r0, r0, fp, lsl r6
    29f8:	03791d03 	cmneq	r9, #3, 26	; 0xc0
    29fc:	161f0000 	ldrne	r0, [pc], -r0
    2a00:	03000006 	movweq	r0, #6
    2a04:	00038e20 	andeq	r8, r3, r0, lsr #28
    2a08:	02082000 	andeq	r2, r8, #0
    2a0c:	27030000 	strcs	r0, [r3, -r0]
    2a10:	00000025 	andeq	r0, r0, r5, lsr #32
    2a14:	00000650 	andeq	r0, r0, r0, asr r6
    2a18:	0000811c 	andeq	r8, r0, ip, lsl r1
    2a1c:	22002100 	andcs	r2, r0, #0, 2
    2a20:	00000228 	andeq	r0, r0, r8, lsr #4
    2a24:	b8006303 	stmdalt	r0, {r0, r1, r8, r9, sp, lr}
    2a28:	04000000 	streq	r0, [r0], #-0
    2a2c:	000a1300 	andeq	r1, sl, r0, lsl #6
    2a30:	97010400 	strls	r0, [r1, -r0, lsl #8]
    2a34:	01000003 	tsteq	r0, r3
    2a38:	00000694 	muleq	r0, r4, r6
    2a3c:	00000535 	andeq	r0, r0, r5, lsr r5
    2a40:	0000929c 	muleq	r0, ip, r2
    2a44:	00000020 	andeq	r0, r0, r0, lsr #32
    2a48:	00000b27 	andeq	r0, r0, r7, lsr #22
    2a4c:	69050402 	stmdbvs	r5, {r1, sl}
    2a50:	0300746e 	movweq	r7, #1134	; 0x46e
    2a54:	00880704 	addeq	r0, r8, r4, lsl #14
    2a58:	01030000 	mrseq	r0, (UNDEF: 3)
    2a5c:	0002cd06 	andeq	ip, r2, r6, lsl #26
    2a60:	05020300 	streq	r0, [r2, #-768]	; 0x300
    2a64:	000002d9 	ldrdeq	r0, [r0], -r9
    2a68:	c7050403 	strgt	r0, [r5, -r3, lsl #8]
    2a6c:	03000000 	movweq	r0, #0
    2a70:	00c20508 	sbceq	r0, r2, r8, lsl #10
    2a74:	01030000 	mrseq	r0, (UNDEF: 3)
    2a78:	0002cb08 	andeq	ip, r2, r8, lsl #22
    2a7c:	07020300 	streq	r0, [r2, -r0, lsl #6]
    2a80:	000001b2 			; <UNDEFINED> instruction: 0x000001b2
    2a84:	83070403 	movwhi	r0, #29699	; 0x7403
    2a88:	03000000 	movweq	r0, #0
    2a8c:	007e0708 	rsbseq	r0, lr, r8, lsl #14
    2a90:	04030000 	streq	r0, [r3], #-0
    2a94:	00023a07 	andeq	r3, r2, r7, lsl #20
    2a98:	08010300 	stmdaeq	r1, {r8, r9}
    2a9c:	000002d4 	ldrdeq	r0, [r0], -r4
    2aa0:	00043d04 	andeq	r3, r4, r4, lsl #26
    2aa4:	9c030100 	stflss	f0, [r3], {-0}
    2aa8:	10000092 	mulne	r0, r2, r0
    2aac:	01000000 	mrseq	r0, (UNDEF: 0)
    2ab0:	00009c9c 	muleq	r0, ip, ip
    2ab4:	00720500 	rsbseq	r0, r2, r0, lsl #10
    2ab8:	002c0401 	eoreq	r0, ip, r1, lsl #8
    2abc:	19340000 	ldmdbne	r4!, {}	; <UNPREDICTABLE>
    2ac0:	06000000 	streq	r0, [r0], -r0
    2ac4:	00000686 	andeq	r0, r0, r6, lsl #13
    2ac8:	92ac0c01 	adcls	r0, ip, #256	; 0x100
    2acc:	00100000 	andseq	r0, r0, r0
    2ad0:	9c010000 	stcls	0, cr0, [r1], {-0}
    2ad4:	01007205 	tsteq	r0, r5, lsl #4
    2ad8:	00002c0d 	andeq	r2, r0, sp, lsl #24
    2adc:	00195800 	andseq	r5, r9, r0, lsl #16
    2ae0:	ff000000 			; <UNDEFINED> instruction: 0xff000000
    2ae4:	04000000 	streq	r0, [r0], #-0
    2ae8:	000a7e00 	andeq	r7, sl, r0, lsl #28
    2aec:	97010400 	strls	r0, [r1, -r0, lsl #8]
    2af0:	01000003 	tsteq	r0, r3
    2af4:	000006b2 			; <UNDEFINED> instruction: 0x000006b2
    2af8:	00000535 	andeq	r0, r0, r5, lsr r5
    2afc:	000092bc 			; <UNDEFINED> instruction: 0x000092bc
    2b00:	00000028 	andeq	r0, r0, r8, lsr #32
    2b04:	00000b6e 	andeq	r0, r0, lr, ror #22
    2b08:	69050402 	stmdbvs	r5, {r1, sl}
    2b0c:	0300746e 	movweq	r7, #1134	; 0x46e
    2b10:	00880704 	addeq	r0, r8, r4, lsl #14
    2b14:	01030000 	mrseq	r0, (UNDEF: 3)
    2b18:	0002cd06 	andeq	ip, r2, r6, lsl #26
    2b1c:	05020300 	streq	r0, [r2, #-768]	; 0x300
    2b20:	000002d9 	ldrdeq	r0, [r0], -r9
    2b24:	c7050403 	strgt	r0, [r5, -r3, lsl #8]
    2b28:	03000000 	movweq	r0, #0
    2b2c:	00c20508 	sbceq	r0, r2, r8, lsl #10
    2b30:	01030000 	mrseq	r0, (UNDEF: 3)
    2b34:	0002cb08 	andeq	ip, r2, r8, lsl #22
    2b38:	07020300 	streq	r0, [r2, -r0, lsl #6]
    2b3c:	000001b2 			; <UNDEFINED> instruction: 0x000001b2
    2b40:	83070403 	movwhi	r0, #29699	; 0x7403
    2b44:	03000000 	movweq	r0, #0
    2b48:	007e0708 	rsbseq	r0, lr, r8, lsl #14
    2b4c:	04030000 	streq	r0, [r3], #-0
    2b50:	00023a07 	andeq	r3, r2, r7, lsl #20
    2b54:	08010300 	stmdaeq	r1, {r8, r9}
    2b58:	000002d4 	ldrdeq	r0, [r0], -r4
    2b5c:	007f0404 	rsbseq	r0, pc, r4, lsl #8
    2b60:	72050000 	andvc	r0, r5, #0
    2b64:	06000000 	streq	r0, [r0], -r0
    2b68:	00000228 	andeq	r0, r0, r8, lsr #4
    2b6c:	92bc0401 	adcsls	r0, ip, #16777216	; 0x1000000
    2b70:	00280000 	eoreq	r0, r8, r0
    2b74:	9c010000 	stcls	0, cr0, [r1], {-0}
    2b78:	000000ca 	andeq	r0, r0, sl, asr #1
    2b7c:	0092d007 	addseq	sp, r2, r7
    2b80:	0000ac00 	andeq	sl, r0, r0, lsl #24
    2b84:	50010800 	andpl	r0, r1, r0, lsl #16
    2b88:	a3280305 	teqge	r8, #335544320	; 0x14000000
    2b8c:	09000000 	stmdbeq	r0, {}	; <UNPREDICTABLE>
    2b90:	000092d8 	ldrdeq	r9, [r0], -r8
    2b94:	000000ea 	andeq	r0, r0, sl, ror #1
    2b98:	000000c0 	andeq	r0, r0, r0, asr #1
    2b9c:	02500108 	subseq	r0, r0, #8, 2
    2ba0:	0a006408 	beq	1bbc8 <__bss_end__+0xf310>
    2ba4:	000092dc 	ldrdeq	r9, [r0], -ip
    2ba8:	000000fb 	strdeq	r0, [r0], -fp
    2bac:	00250b00 	eoreq	r0, r5, r0, lsl #22
    2bb0:	00d90000 	sbcseq	r0, r9, r0
    2bb4:	790c0000 	stmdbvc	ip, {}	; <UNPREDICTABLE>
    2bb8:	00000000 	andeq	r0, r0, r0
    2bbc:	0006160d 	andeq	r1, r6, sp, lsl #12
    2bc0:	e4200200 	strt	r0, [r0], #-512	; 0x200
    2bc4:	04000000 	streq	r0, [r0], #-0
    2bc8:	0000ca04 	andeq	ip, r0, r4, lsl #20
    2bcc:	06cc0e00 	strbeq	r0, [ip], r0, lsl #28
    2bd0:	4d020000 	stcmi	0, cr0, [r2, #-0]
    2bd4:	000000fb 	strdeq	r0, [r0], -fp
    2bd8:	00002c0c 	andeq	r2, r0, ip, lsl #24
    2bdc:	a70f0000 	strge	r0, [pc, -r0]
    2be0:	02000006 	andeq	r0, r0, #6
    2be4:	010b0060 	tsteq	fp, r0, rrx
    2be8:	00040000 	andeq	r0, r4, r0
    2bec:	00000b48 	andeq	r0, r0, r8, asr #22
    2bf0:	03970104 	orrseq	r0, r7, #4, 2
    2bf4:	d5010000 	strle	r0, [r1, #-0]
    2bf8:	35000006 	strcc	r0, [r0, #-6]
    2bfc:	e4000005 	str	r0, [r0], #-5
    2c00:	34000092 	strcc	r0, [r0], #-146	; 0x92
    2c04:	05000000 	streq	r0, [r0, #-0]
    2c08:	0200000c 	andeq	r0, r0, #12
    2c0c:	6e690504 	cdpvs	5, 6, cr0, cr9, cr4, {0}
    2c10:	04030074 	streq	r0, [r3], #-116	; 0x74
    2c14:	00008807 	andeq	r8, r0, r7, lsl #16
    2c18:	06010300 	streq	r0, [r1], -r0, lsl #6
    2c1c:	000002cd 	andeq	r0, r0, sp, asr #5
    2c20:	d9050203 	stmdble	r5, {r0, r1, r9}
    2c24:	03000002 	movweq	r0, #2
    2c28:	00c70504 	sbceq	r0, r7, r4, lsl #10
    2c2c:	08030000 	stmdaeq	r3, {}	; <UNPREDICTABLE>
    2c30:	0000c205 	andeq	ip, r0, r5, lsl #4
    2c34:	08010300 	stmdaeq	r1, {r8, r9}
    2c38:	000002cb 	andeq	r0, r0, fp, asr #5
    2c3c:	b2070203 	andlt	r0, r7, #805306368	; 0x30000000
    2c40:	03000001 	movweq	r0, #1
    2c44:	00830704 	addeq	r0, r3, r4, lsl #14
    2c48:	08030000 	stmdaeq	r3, {}	; <UNPREDICTABLE>
    2c4c:	00007e07 	andeq	r7, r0, r7, lsl #28
    2c50:	07040300 	streq	r0, [r4, -r0, lsl #6]
    2c54:	0000023a 	andeq	r0, r0, sl, lsr r2
    2c58:	d4080103 	strle	r0, [r8], #-259	; 0x103
    2c5c:	04000002 	streq	r0, [r0], #-2
    2c60:	0000070b 	andeq	r0, r0, fp, lsl #14
    2c64:	92e40301 	rscls	r0, r4, #67108864	; 0x4000000
    2c68:	00340000 	eorseq	r0, r4, r0
    2c6c:	9c010000 	stcls	0, cr0, [r1], {-0}
    2c70:	000000de 	ldrdeq	r0, [r0], -lr
    2c74:	0006e905 	andeq	lr, r6, r5, lsl #18
    2c78:	25040100 	strcs	r0, [r4, #-256]	; 0x100
    2c7c:	05000000 	streq	r0, [r0, #-0]
    2c80:	000006f7 	strdeq	r0, [r0], -r7
    2c84:	00250401 	eoreq	r0, r5, r1, lsl #8
    2c88:	48060000 	stmdami	r6, {}	; <UNPREDICTABLE>
    2c8c:	01000000 	mrseq	r0, (UNDEF: 0)
    2c90:	0000b105 	andeq	fp, r0, r5, lsl #2
    2c94:	08000700 	stmdaeq	r0, {r8, r9, sl}
    2c98:	00737362 	rsbseq	r7, r3, r2, ror #6
    2c9c:	00de0701 	sbcseq	r0, lr, r1, lsl #14
    2ca0:	197c0000 	ldmdbne	ip!, {}^	; <UNPREDICTABLE>
    2ca4:	03090000 	movweq	r0, #36864	; 0x9000
    2ca8:	01000007 	tsteq	r0, r7
    2cac:	0000de08 	andeq	sp, r0, r8, lsl #28
    2cb0:	930c0a00 	movwls	r0, #51712	; 0xca00
    2cb4:	00fa0000 	rscseq	r0, sl, r0
    2cb8:	100a0000 	andne	r0, sl, r0
    2cbc:	07000093 			; <UNDEFINED> instruction: 0x07000093
    2cc0:	00000001 	andeq	r0, r0, r1
    2cc4:	0025040b 	eoreq	r0, r5, fp, lsl #8
    2cc8:	e9050000 	stmdb	r5, {}	; <UNPREDICTABLE>
    2ccc:	01000006 	tsteq	r0, r6
    2cd0:	00002504 	andeq	r2, r0, r4, lsl #10
    2cd4:	06f70500 	ldrbteq	r0, [r7], r0, lsl #10
    2cd8:	04010000 	streq	r0, [r1], #-0
    2cdc:	00000025 	andeq	r0, r0, r5, lsr #32
    2ce0:	00004806 	andeq	r4, r0, r6, lsl #16
    2ce4:	07050100 	streq	r0, [r5, -r0, lsl #2]
    2ce8:	07000001 	streq	r0, [r0, -r1]
    2cec:	06a70c00 	strteq	r0, [r7], r0, lsl #24
    2cf0:	60020000 	andvs	r0, r2, r0
    2cf4:	0001ad00 	andeq	sl, r1, r0, lsl #26
    2cf8:	f2000400 	vshl.s8	d0, d0, d0
    2cfc:	0400000b 	streq	r0, [r0], #-11
    2d00:	00039701 	andeq	r9, r3, r1, lsl #14
    2d04:	072d0100 	streq	r0, [sp, -r0, lsl #2]!
    2d08:	05350000 	ldreq	r0, [r5, #-0]!
    2d0c:	00780000 	rsbseq	r0, r8, r0
    2d10:	00000000 	andeq	r0, r0, r0
    2d14:	0c9f0000 	ldceq	0, cr0, [pc], {0}
    2d18:	04020000 	streq	r0, [r2], #-0
    2d1c:	746e6905 	strbtvc	r6, [lr], #-2309	; 0x905
    2d20:	07040300 	streq	r0, [r4, -r0, lsl #6]
    2d24:	00000088 	andeq	r0, r0, r8, lsl #1
    2d28:	cd060103 	stfgts	f0, [r6, #-12]
    2d2c:	03000002 	movweq	r0, #2
    2d30:	02d90502 	sbcseq	r0, r9, #8388608	; 0x800000
    2d34:	04030000 	streq	r0, [r3], #-0
    2d38:	0000c705 	andeq	ip, r0, r5, lsl #14
    2d3c:	05080300 	streq	r0, [r8, #-768]	; 0x300
    2d40:	000000c2 	andeq	r0, r0, r2, asr #1
    2d44:	cb080103 	blgt	203158 <__bss_end__+0x1f68a0>
    2d48:	03000002 	movweq	r0, #2
    2d4c:	01b20702 			; <UNDEFINED> instruction: 0x01b20702
    2d50:	04030000 	streq	r0, [r3], #-0
    2d54:	00008307 	andeq	r8, r0, r7, lsl #6
    2d58:	07080300 	streq	r0, [r8, -r0, lsl #6]
    2d5c:	0000007e 	andeq	r0, r0, lr, ror r0
    2d60:	3a070403 	bcc	1c3d74 <__bss_end__+0x1b74bc>
    2d64:	03000002 	movweq	r0, #2
    2d68:	02d40801 	sbcseq	r0, r4, #65536	; 0x10000
    2d6c:	13040000 	movwne	r0, #16384	; 0x4000
    2d70:	01000007 	tsteq	r0, r7
    2d74:	0000250e 	andeq	r2, r0, lr, lsl #10
    2d78:	00931800 	addseq	r1, r3, r0, lsl #16
    2d7c:	00001800 	andeq	r1, r0, r0, lsl #16
    2d80:	a29c0100 	addsge	r0, ip, #0, 2
    2d84:	05000000 	streq	r0, [r0, #-0]
    2d88:	0000077f 	andeq	r0, r0, pc, ror r7
    2d8c:	002c0f01 	eoreq	r0, ip, r1, lsl #30
    2d90:	199c0000 	ldmibne	ip, {}	; <UNPREDICTABLE>
    2d94:	06000000 	streq	r0, [r0], -r0
    2d98:	00000762 	andeq	r0, r0, r2, ror #14
    2d9c:	93301701 	teqls	r0, #262144	; 0x40000
    2da0:	00140000 	andseq	r0, r4, r0
    2da4:	9c010000 	stcls	0, cr0, [r1], {-0}
    2da8:	000000c7 	andeq	r0, r0, r7, asr #1
    2dac:	00077f05 	andeq	r7, r7, r5, lsl #30
    2db0:	2c180100 	ldfcss	f0, [r8], {-0}
    2db4:	bb000000 	bllt	2dbc <_start-0x5244>
    2db8:	00000019 	andeq	r0, r0, r9, lsl r0
    2dbc:	0006a706 	andeq	sl, r6, r6, lsl #14
    2dc0:	441f0100 	ldrmi	r0, [pc], #-256	; 2dc8 <_start-0x5238>
    2dc4:	48000093 	stmdami	r0, {r0, r1, r4, r7}
    2dc8:	01000000 	mrseq	r0, (UNDEF: 0)
    2dcc:	0001779c 	muleq	r1, ip, r7
    2dd0:	07770700 	ldrbeq	r0, [r7, -r0, lsl #14]!
    2dd4:	2a010000 	bcs	42ddc <__bss_end__+0x36524>
    2dd8:	00000177 	andeq	r0, r0, r7, ror r1
    2ddc:	2010001c 	andscs	r0, r0, ip, lsl r0
    2de0:	00075a07 	andeq	r5, r7, r7, lsl #20
    2de4:	772b0100 	strvc	r0, [fp, -r0, lsl #2]!
    2de8:	24000001 	strcs	r0, [r0], #-1
    2dec:	07201000 	streq	r1, [r0, -r0]!
    2df0:	00000721 	andeq	r0, r0, r1, lsr #14
    2df4:	01772c01 	cmneq	r7, r1, lsl #24
    2df8:	00000000 	andeq	r0, r0, r0
    2dfc:	41085a00 	tstmi	r8, r0, lsl #20
    2e00:	01000007 	tsteq	r0, r7
    2e04:	0001772d 	andeq	r7, r1, sp, lsr #14
    2e08:	4c092000 	stcmi	0, cr2, [r9], {-0}
    2e0c:	79000093 	stmdbvc	r0, {r0, r1, r4, r7}
    2e10:	09000000 	stmdbeq	r0, {}	; <UNPREDICTABLE>
    2e14:	00009358 	andeq	r9, r0, r8, asr r3
    2e18:	000000a2 	andeq	r0, r0, r2, lsr #1
    2e1c:	0093600a 	addseq	r6, r3, sl
    2e20:	00018d00 	andeq	r8, r1, r0, lsl #26
    2e24:	00013a00 	andeq	r3, r1, r0, lsl #20
    2e28:	50010b00 	andpl	r0, r1, r0, lsl #22
    2e2c:	0a004e01 	beq	16638 <__bss_end__+0x9d80>
    2e30:	0000936c 	andeq	r9, r0, ip, ror #6
    2e34:	0000019e 	muleq	r0, lr, r1
    2e38:	0000015a 	andeq	r0, r0, sl, asr r1
    2e3c:	0551010b 	ldrbeq	r0, [r1, #-267]	; 0x10b
    2e40:	0000010c 	andeq	r0, r0, ip, lsl #2
    2e44:	50010b5a 	andpl	r0, r1, sl, asr fp
    2e48:	00240c05 	eoreq	r0, r4, r5, lsl #24
    2e4c:	0c002010 	stceq	0, cr2, [r0], {16}
    2e50:	00009378 	andeq	r9, r0, r8, ror r3
    2e54:	0000019e 	muleq	r0, lr, r1
    2e58:	0551010b 	ldrbeq	r0, [r1, #-267]	; 0x10b
    2e5c:	0000200c 	andeq	r2, r0, ip
    2e60:	50010b5a 	andpl	r0, r1, sl, asr fp
    2e64:	001c0c05 	andseq	r0, ip, r5, lsl #24
    2e68:	00002010 	andeq	r2, r0, r0, lsl r0
    2e6c:	0000250d 	andeq	r2, r0, sp, lsl #10
    2e70:	07160800 	ldreq	r0, [r6, -r0, lsl #16]
    2e74:	0d010000 	stceq	0, cr0, [r1, #-0]
    2e78:	00000188 	andeq	r0, r0, r8, lsl #3
    2e7c:	002c0d10 	eoreq	r0, ip, r0, lsl sp
    2e80:	cc0e0000 	stcgt	0, cr0, [lr], {-0}
    2e84:	02000006 	andeq	r0, r0, #6
    2e88:	00019e4d 	andeq	r9, r1, sp, asr #28
    2e8c:	002c0f00 	eoreq	r0, ip, r0, lsl #30
    2e90:	10000000 	andne	r0, r0, r0
    2e94:	00000771 	andeq	r0, r0, r1, ror r7
    2e98:	2c0f9402 	cfstrscs	mvf9, [pc], {2}
    2e9c:	0f000000 	svceq	0x00000000
    2ea0:	0000002c 	andeq	r0, r0, ip, lsr #32
    2ea4:	01d80000 	bicseq	r0, r8, r0
    2ea8:	00040000 	andeq	r0, r4, r0
    2eac:	00000ce0 	andeq	r0, r0, r0, ror #25
    2eb0:	03970104 	orrseq	r0, r7, #4, 2
    2eb4:	8e010000 	cdphi	0, 0, cr0, cr1, cr0, {0}
    2eb8:	35000007 	strcc	r0, [r0, #-7]
    2ebc:	8c000005 	stchi	0, cr0, [r0], {5}
    2ec0:	88000093 	stmdahi	r0, {r0, r1, r4, r7}
    2ec4:	3c000000 	stccc	0, cr0, [r0], {-0}
    2ec8:	0200000d 	andeq	r0, r0, #13
    2ecc:	6e690504 	cdpvs	5, 6, cr0, cr9, cr4, {0}
    2ed0:	04030074 	streq	r0, [r3], #-116	; 0x74
    2ed4:	00008807 	andeq	r8, r0, r7, lsl #16
    2ed8:	06010300 	streq	r0, [r1], -r0, lsl #6
    2edc:	000002cd 	andeq	r0, r0, sp, asr #5
    2ee0:	d9050203 	stmdble	r5, {r0, r1, r9}
    2ee4:	03000002 	movweq	r0, #2
    2ee8:	00c70504 	sbceq	r0, r7, r4, lsl #10
    2eec:	08030000 	stmdaeq	r3, {}	; <UNPREDICTABLE>
    2ef0:	0000c205 	andeq	ip, r0, r5, lsl #4
    2ef4:	08010300 	stmdaeq	r1, {r8, r9}
    2ef8:	000002cb 	andeq	r0, r0, fp, asr #5
    2efc:	b2070203 	andlt	r0, r7, #805306368	; 0x30000000
    2f00:	03000001 	movweq	r0, #1
    2f04:	00830704 	addeq	r0, r3, r4, lsl #14
    2f08:	08030000 	stmdaeq	r3, {}	; <UNPREDICTABLE>
    2f0c:	00007e07 	andeq	r7, r0, r7, lsl #28
    2f10:	07040300 	streq	r0, [r4, -r0, lsl #6]
    2f14:	0000023a 	andeq	r0, r0, sl, lsr r2
    2f18:	d4080103 	strle	r0, [r8], #-259	; 0x103
    2f1c:	04000002 	streq	r0, [r0], #-2
    2f20:	000007ad 	andeq	r0, r0, sp, lsr #15
    2f24:	938c0501 	orrls	r0, ip, #4194304	; 0x400000
    2f28:	001c0000 	andseq	r0, ip, r0
    2f2c:	9c010000 	stcls	0, cr0, [r1], {-0}
    2f30:	0000009e 	muleq	r0, lr, r0
    2f34:	0007a705 	andeq	sl, r7, r5, lsl #14
    2f38:	2c050100 	stfcss	f0, [r5], {-0}
    2f3c:	e5000000 	str	r0, [r0, #-0]
    2f40:	00000019 	andeq	r0, r0, r9, lsl r0
    2f44:	00028906 	andeq	r8, r2, r6, lsl #18
    2f48:	2c0b0100 	stfcss	f0, [fp], {-0}
    2f4c:	a8000000 	stmdage	r0, {}	; <UNPREDICTABLE>
    2f50:	14000093 	strne	r0, [r0], #-147	; 0x93
    2f54:	01000000 	mrseq	r0, (UNDEF: 0)
    2f58:	0000cb9c 	muleq	r0, ip, fp
    2f5c:	93b40700 			; <UNDEFINED> instruction: 0x93b40700
    2f60:	01ca0000 	biceq	r0, sl, r0
    2f64:	01080000 	mrseq	r0, (UNDEF: 8)
    2f68:	040c0550 	streq	r0, [ip], #-1360	; 0x550
    2f6c:	00200030 	eoreq	r0, r0, r0, lsr r0
    2f70:	07c30600 	strbeq	r0, [r3, r0, lsl #12]
    2f74:	10010000 	andne	r0, r1, r0
    2f78:	0000002c 	andeq	r0, r0, ip, lsr #32
    2f7c:	000093bc 			; <UNDEFINED> instruction: 0x000093bc
    2f80:	0000000c 	andeq	r0, r0, ip
    2f84:	00f99c01 	rscseq	r9, r9, r1, lsl #24
    2f88:	75090000 	strvc	r0, [r9, #-0]
    2f8c:	2c140100 	ldfcss	f0, [r4], {-0}
    2f90:	01000000 	mrseq	r0, (UNDEF: 0)
    2f94:	93c40a50 	bicls	r0, r4, #80, 20	; 0x50000
    2f98:	009e0000 	addseq	r0, lr, r0
    2f9c:	04000000 	streq	r0, [r0], #-0
    2fa0:	000007ba 			; <UNDEFINED> instruction: 0x000007ba
    2fa4:	93c81901 	bicls	r1, r8, #16384	; 0x4000
    2fa8:	00240000 	eoreq	r0, r4, r0
    2fac:	9c010000 	stcls	0, cr0, [r1], {-0}
    2fb0:	00000157 	andeq	r0, r0, r7, asr r1
    2fb4:	0073750b 	rsbseq	r7, r3, fp, lsl #10
    2fb8:	002c1901 	eoreq	r1, ip, r1, lsl #18
    2fbc:	1a190000 	bne	642fc4 <__bss_end__+0x63670c>
    2fc0:	72090000 	andvc	r0, r9, #0
    2fc4:	1a010062 	bne	43154 <__bss_end__+0x3689c>
    2fc8:	0000002c 	andeq	r0, r0, ip, lsr #32
    2fcc:	d80c5401 	stmdale	ip, {r0, sl, ip, lr}
    2fd0:	10000093 	mulne	r0, r3, r0
    2fd4:	4d000000 	stcmi	0, cr0, [r0, #-0]
    2fd8:	0d000001 	stceq	0, cr0, [r0, #-4]
    2fdc:	01006172 	tsteq	r0, r2, ror r1
    2fe0:	00002c1c 	andeq	r2, r0, ip, lsl ip
    2fe4:	001a3700 	andseq	r3, sl, r0, lsl #14
    2fe8:	93dc0a00 	bicsls	r0, ip, #0, 20
    2fec:	00cb0000 	sbceq	r0, fp, r0
    2ff0:	0a000000 	beq	2ff8 <_start-0x5008>
    2ff4:	000093d4 	ldrdeq	r9, [r0], -r4
    2ff8:	000000cb 	andeq	r0, r0, fp, asr #1
    2ffc:	06cc0400 	strbeq	r0, [ip], r0, lsl #8
    3000:	22010000 	andcs	r0, r1, #0
    3004:	000093ec 	andeq	r9, r0, ip, ror #7
    3008:	00000014 	andeq	r0, r0, r4, lsl r0
    300c:	01909c01 	orrseq	r9, r0, r1, lsl #24
    3010:	6d0b0000 	stcvs	0, cr0, [fp, #-0]
    3014:	22010073 	andcs	r0, r1, #115	; 0x73
    3018:	0000002c 	andeq	r0, r0, ip, lsr #32
    301c:	00001a4a 	andeq	r1, r0, sl, asr #20
    3020:	0093fc07 	addseq	pc, r3, r7, lsl #24
    3024:	0000f900 	andeq	pc, r0, r0, lsl #18
    3028:	50010800 	andpl	r0, r1, r0, lsl #16
    302c:	5001f307 	andpl	pc, r1, r7, lsl #6
    3030:	1e03e80a 	cdpne	8, 0, cr14, cr3, cr10, {0}
    3034:	84040000 	strhi	r0, [r4], #-0
    3038:	01000007 	tsteq	r0, r7
    303c:	00940025 	addseq	r0, r4, r5, lsr #32
    3040:	00001400 	andeq	r1, r0, r0, lsl #8
    3044:	ca9c0100 	bgt	fe70344c <__bss_end__+0xfe6f6b94>
    3048:	0b000001 	bleq	3054 <_start-0x4fac>
    304c:	00636573 	rsbeq	r6, r3, r3, ror r5
    3050:	002c2501 	eoreq	r2, ip, r1, lsl #10
    3054:	1a6b0000 	bne	1ac305c <__bss_end__+0x1ab67a4>
    3058:	10070000 	andne	r0, r7, r0
    305c:	57000094 			; <UNDEFINED> instruction: 0x57000094
    3060:	08000001 	stmdaeq	r0, {r0}
    3064:	f3075001 	vhadd.u8	d5, d7, d1
    3068:	e80a5001 	stmda	sl, {r0, ip, lr}
    306c:	00001e03 	andeq	r1, r0, r3, lsl #28
    3070:	0007a10e 	andeq	sl, r7, lr, lsl #2
    3074:	2ca00200 	sfmcs	f0, 4, [r0]
    3078:	0f000000 	svceq	0x00000000
    307c:	0000002c 	andeq	r0, r0, ip, lsr #32
    3080:	08cf0000 	stmiaeq	pc, {}^	; <UNPREDICTABLE>
    3084:	00040000 	andeq	r0, r4, r0
    3088:	00000dc3 	andeq	r0, r0, r3, asr #27
    308c:	03970104 	orrseq	r0, r7, #4, 2
    3090:	5d010000 	stcpl	0, cr0, [r1, #-0]
    3094:	35000008 	strcc	r0, [r0, #-8]
    3098:	14000005 	strne	r0, [r0], #-5
    309c:	bc000094 	stclt	0, cr0, [r0], {148}	; 0x94
    30a0:	e3000005 	movw	r0, #5
    30a4:	0200000d 	andeq	r0, r0, #13
    30a8:	007e0708 	rsbseq	r0, lr, r8, lsl #14
    30ac:	04020000 	streq	r0, [r2], #-0
    30b0:	00008807 	andeq	r8, r0, r7, lsl #16
    30b4:	06010200 	streq	r0, [r1], -r0, lsl #4
    30b8:	000002cd 	andeq	r0, r0, sp, asr #5
    30bc:	d9050202 	stmdble	r5, {r1, r9}
    30c0:	02000002 	andeq	r0, r0, #2
    30c4:	00c70504 	sbceq	r0, r7, r4, lsl #10
    30c8:	08020000 	stmdaeq	r2, {}	; <UNPREDICTABLE>
    30cc:	0000c205 	andeq	ip, r0, r5, lsl #4
    30d0:	08010200 	stmdaeq	r1, {r9}
    30d4:	000002cb 	andeq	r0, r0, fp, asr #5
    30d8:	b2070202 	andlt	r0, r7, #536870912	; 0x20000000
    30dc:	02000001 	andeq	r0, r0, #1
    30e0:	00830704 	addeq	r0, r3, r4, lsl #14
    30e4:	04030000 	streq	r0, [r3], #-0
    30e8:	746e6905 	strbtvc	r6, [lr], #-2309	; 0x905
    30ec:	07040200 	streq	r0, [r4, -r0, lsl #4]
    30f0:	0000023a 	andeq	r0, r0, sl, lsr r2
    30f4:	d4080102 	strle	r0, [r8], #-258	; 0x102
    30f8:	04000002 	streq	r0, [r0], #-2
    30fc:	b20c0201 	andlt	r0, ip, #268435456	; 0x10000000
    3100:	05000000 	streq	r0, [r0, #-0]
    3104:	00000809 	andeq	r0, r0, r9, lsl #16
    3108:	093a0500 	ldmdbeq	sl!, {r8, sl}
    310c:	05010000 	streq	r0, [r1, #-0]
    3110:	0000095d 	andeq	r0, r0, sp, asr r9
    3114:	096c0504 	stmdbeq	ip!, {r2, r8, sl}^
    3118:	05050000 	streq	r0, [r5, #-0]
    311c:	0000097b 	andeq	r0, r0, fp, ror r9
    3120:	098a0506 	stmibeq	sl, {r1, r2, r8, sl}
    3124:	05070000 	streq	r0, [r7, #-0]
    3128:	00000999 	muleq	r0, r9, r9
    312c:	09a80503 	stmibeq	r8!, {r0, r1, r8, sl}
    3130:	00020000 	andeq	r0, r2, r0
    3134:	00095106 	andeq	r5, r9, r6, lsl #2
    3138:	79150200 	ldmdbvc	r5, {r9}
    313c:	07000000 	streq	r0, [r0, -r0]
    3140:	00000481 	andeq	r0, r0, r1, lsl #9
    3144:	94143f01 	ldrls	r3, [r4], #-3841	; 0xf01
    3148:	00d40000 	sbcseq	r0, r4, r0
    314c:	9c010000 	stcls	0, cr0, [r1], {-0}
    3150:	00000133 	andeq	r0, r0, r3, lsr r1
    3154:	6e697008 	cdpvs	0, 6, cr7, cr9, cr8, {0}
    3158:	2c3f0100 	ldfcss	f0, [pc], #-0	; 3160 <_start-0x4ea0>
    315c:	8c000000 	stchi	0, cr0, [r0], {-0}
    3160:	0900001a 	stmdbeq	r0, {r1, r3, r4}
    3164:	00000854 	andeq	r0, r0, r4, asr r8
    3168:	01334701 	teqeq	r3, r1, lsl #14
    316c:	1aaa0000 	bne	fea83174 <__bss_end__+0xfea768bc>
    3170:	b7090000 	strlt	r0, [r9, -r0]
    3174:	01000009 	tsteq	r0, r9
    3178:	00002c49 	andeq	r2, r0, r9, asr #24
    317c:	001aff00 	andseq	pc, sl, r0, lsl #30
    3180:	08fb0900 	ldmeq	fp!, {r8, fp}^
    3184:	57010000 	strpl	r0, [r1, -r0]
    3188:	0000002c 	andeq	r0, r0, ip, lsr #32
    318c:	00001ccb 	andeq	r1, r0, fp, asr #25
    3190:	0094a80a 	addseq	sl, r4, sl, lsl #16
    3194:	00088e00 	andeq	r8, r8, r0, lsl #28
    3198:	00012200 	andeq	r2, r1, r0, lsl #4
    319c:	50010b00 	andpl	r0, r1, r0, lsl #22
    31a0:	00007502 	andeq	r7, r0, r2, lsl #10
    31a4:	0094dc0c 	addseq	sp, r4, ip, lsl #24
    31a8:	0008af00 	andeq	sl, r8, r0, lsl #30
    31ac:	50010b00 	andpl	r0, r1, r0, lsl #22
    31b0:	00007502 	andeq	r7, r0, r2, lsl #10
    31b4:	39040d00 	stmdbcc	r4, {r8, sl, fp}
    31b8:	0e000001 	cdpeq	0, 0, cr0, cr0, cr1, {0}
    31bc:	0000002c 	andeq	r0, r0, ip, lsr #32
    31c0:	0009200f 	andeq	r2, r9, pc
    31c4:	03600100 	cmneq	r0, #0, 2
    31c8:	0000016c 	andeq	r0, r0, ip, ror #2
    31cc:	6e697010 	mcrvs	0, 3, r7, cr9, cr0, {0}
    31d0:	2c600100 	stfcse	f0, [r0], #-0
    31d4:	11000000 	mrsne	r0, (UNDEF: 0)
    31d8:	00000854 	andeq	r0, r0, r4, asr r8
    31dc:	01336701 	teqeq	r3, r1, lsl #14
    31e0:	fb110000 	blx	4431ea <__bss_end__+0x436932>
    31e4:	01000008 	tsteq	r0, r8
    31e8:	00002c68 	andeq	r2, r0, r8, ror #24
    31ec:	3e120000 	cdpcc	0, 1, cr0, cr2, cr0, {0}
    31f0:	e8000001 	stmda	r0, {r0}
    31f4:	38000094 	stmdacc	r0, {r2, r4, r7}
    31f8:	01000000 	mrseq	r0, (UNDEF: 0)
    31fc:	0001b09c 	muleq	r1, ip, r0
    3200:	014a1300 	mrseq	r1, (UNDEF: 122)
    3204:	1cfb0000 	ldclne	0, cr0, [fp]
    3208:	55140000 	ldrpl	r0, [r4, #-0]
    320c:	1c000001 	stcne	0, cr0, [r0], {1}
    3210:	1400001d 	strne	r0, [r0], #-29
    3214:	00000160 	andeq	r0, r0, r0, ror #2
    3218:	00001d52 	andeq	r1, r0, r2, asr sp
    321c:	0095180c 	addseq	r1, r5, ip, lsl #16
    3220:	0008af00 	andeq	sl, r8, r0, lsl #30
    3224:	51010b00 	tstpl	r1, r0, lsl #22
    3228:	01f33107 	mvnseq	r3, r7, lsl #2
    322c:	241a4f50 	ldrcs	r4, [sl], #-3920	; 0xf50
    3230:	190f0000 	stmdbne	pc, {}	; <UNPREDICTABLE>
    3234:	01000008 	tsteq	r0, r8
    3238:	01de037b 	bicseq	r0, lr, fp, ror r3
    323c:	70100000 	andsvc	r0, r0, r0
    3240:	01006e69 	tsteq	r0, r9, ror #28
    3244:	00002c7b 	andeq	r2, r0, fp, ror ip
    3248:	08541100 	ldmdaeq	r4, {r8, ip}^
    324c:	81010000 	mrshi	r0, (UNDEF: 1)
    3250:	00000133 	andeq	r0, r0, r3, lsr r1
    3254:	0008fb11 	andeq	pc, r8, r1, lsl fp	; <UNPREDICTABLE>
    3258:	2c820100 	stfcss	f0, [r2], {0}
    325c:	00000000 	andeq	r0, r0, r0
    3260:	0001b012 	andeq	fp, r1, r2, lsl r0
    3264:	00952000 	addseq	r2, r5, r0
    3268:	00003800 	andeq	r3, r0, r0, lsl #16
    326c:	229c0100 	addscs	r0, ip, #0, 2
    3270:	13000002 	movwne	r0, #2
    3274:	000001bc 			; <UNDEFINED> instruction: 0x000001bc
    3278:	00001d92 	muleq	r0, r2, sp
    327c:	0001c714 	andeq	ip, r1, r4, lsl r7
    3280:	001db300 	andseq	fp, sp, r0, lsl #6
    3284:	01d21400 	bicseq	r1, r2, r0, lsl #8
    3288:	1de90000 	stclne	0, cr0, [r9]
    328c:	500c0000 	andpl	r0, ip, r0
    3290:	af000095 	svcge	0x00000095
    3294:	0b000008 	bleq	32bc <_start-0x4d44>
    3298:	31075101 	tstcc	r7, r1, lsl #2
    329c:	4f5001f3 	svcmi	0x005001f3
    32a0:	0000241a 	andeq	r2, r0, sl, lsl r4
    32a4:	0003f407 	andeq	pc, r3, r7, lsl #8
    32a8:	58950100 	ldmpl	r5, {r8}
    32ac:	cc000095 	stcgt	0, cr0, [r0], {149}	; 0x95
    32b0:	01000000 	mrseq	r0, (UNDEF: 0)
    32b4:	0002989c 	muleq	r2, ip, r8
    32b8:	69700800 	ldmdbvs	r0!, {fp}^
    32bc:	9501006e 	strls	r0, [r1, #-110]	; 0x6e
    32c0:	0000002c 	andeq	r0, r0, ip, lsr #32
    32c4:	00001e29 	andeq	r1, r0, r9, lsr #28
    32c8:	00085409 	andeq	r5, r8, r9, lsl #8
    32cc:	339b0100 	orrscc	r0, fp, #0, 2
    32d0:	47000001 	strmi	r0, [r0, -r1]
    32d4:	0900001e 	stmdbeq	r0, {r1, r2, r3, r4}
    32d8:	000009b7 			; <UNDEFINED> instruction: 0x000009b7
    32dc:	002c9d01 	eoreq	r9, ip, r1, lsl #26
    32e0:	1e9c0000 	cdpne	0, 9, cr0, cr12, cr0, {0}
    32e4:	fb090000 	blx	2432ee <__bss_end__+0x236a36>
    32e8:	01000008 	tsteq	r0, r8
    32ec:	00002cab 	andeq	r2, r0, fp, lsr #25
    32f0:	00206800 	eoreq	r6, r0, r0, lsl #16
    32f4:	95ec0a00 	strbls	r0, [ip, #2560]!	; 0xa00
    32f8:	088e0000 	stmeq	lr, {}	; <UNPREDICTABLE>
    32fc:	02870000 	addeq	r0, r7, #0
    3300:	010b0000 	mrseq	r0, (UNDEF: 11)
    3304:	00750250 	rsbseq	r0, r5, r0, asr r2
    3308:	96180c00 	ldrls	r0, [r8], -r0, lsl #24
    330c:	08af0000 	stmiaeq	pc!, {}	; <UNPREDICTABLE>
    3310:	010b0000 	mrseq	r0, (UNDEF: 11)
    3314:	00750250 	rsbseq	r0, r5, r0, asr r2
    3318:	1e150000 	cdpne	0, 1, cr0, cr5, cr0, {0}
    331c:	01000002 	tsteq	r0, r2
    3320:	000064b3 			; <UNDEFINED> instruction: 0x000064b3
    3324:	00962400 	addseq	r2, r6, r0, lsl #8
    3328:	00004c00 	andeq	r4, r0, r0, lsl #24
    332c:	e09c0100 	adds	r0, ip, r0, lsl #2
    3330:	08000002 	stmdaeq	r0, {r1}
    3334:	006e6970 	rsbeq	r6, lr, r0, ror r9
    3338:	002cb301 	eoreq	fp, ip, r1, lsl #6
    333c:	20860000 	addcs	r0, r6, r0
    3340:	76160000 	ldrvc	r0, [r6], -r0
    3344:	2cb90100 	ldfcss	f0, [r9]
    3348:	de000000 	cdple	0, 0, cr0, cr0, cr0, {0}
    334c:	17000020 	strne	r0, [r0, -r0, lsr #32]
    3350:	00009644 	andeq	r9, r0, r4, asr #12
    3354:	0000088e 	andeq	r0, r0, lr, lsl #17
    3358:	00965417 	addseq	r5, r6, r7, lsl r4
    335c:	00088e00 	andeq	r8, r8, r0, lsl #28
    3360:	e3070000 	movw	r0, #28672	; 0x7000
    3364:	01000002 	tsteq	r0, r2
    3368:	009670c5 	addseq	r7, r6, r5, asr #1
    336c:	00007800 	andeq	r7, r0, r0, lsl #16
    3370:	aa9c0100 	bge	fe703778 <__bss_end__+0xfe6f6ec0>
    3374:	08000003 	stmdaeq	r0, {r0, r1}
    3378:	006e6970 	rsbeq	r6, lr, r0, ror r9
    337c:	002cc501 	eoreq	ip, ip, r1, lsl #10
    3380:	21140000 	tstcs	r4, r0
    3384:	76080000 	strvc	r0, [r8], -r0
    3388:	2cc50100 	stfcse	f0, [r5], {0}
    338c:	4e000000 	cdpmi	0, 0, cr0, cr0, cr0, {0}
    3390:	18000021 	stmdane	r0, {r0, r5}
    3394:	0000013e 	andeq	r0, r0, lr, lsr r1
    3398:	00009684 	andeq	r9, r0, r4, lsl #13
    339c:	00000030 	andeq	r0, r0, r0, lsr r0
    33a0:	035fcc01 	cmpeq	pc, #256	; 0x100
    33a4:	4a130000 	bmi	4c33ac <__bss_end__+0x4b6af4>
    33a8:	88000001 	stmdahi	r0, {r0}
    33ac:	19000021 	stmdbne	r0, {r0, r5}
    33b0:	00009684 	andeq	r9, r0, r4, lsl #13
    33b4:	00000030 	andeq	r0, r0, r0, lsr r0
    33b8:	00015514 	andeq	r5, r1, r4, lsl r5
    33bc:	0021a900 	eoreq	sl, r1, r0, lsl #18
    33c0:	01601400 	cmneq	r0, r0, lsl #8
    33c4:	21df0000 	bicscs	r0, pc, r0
    33c8:	b00c0000 	andlt	r0, ip, r0
    33cc:	af000096 	svcge	0x00000096
    33d0:	0b000008 	bleq	33f8 <_start-0x4c08>
    33d4:	31075101 	tstcc	r7, r1, lsl #2
    33d8:	4f5001f3 	svcmi	0x005001f3
    33dc:	0000241a 	andeq	r2, r0, sl, lsl r4
    33e0:	01b01a00 	lslseq	r1, r0, #20
    33e4:	96b40000 	ldrtls	r0, [r4], r0
    33e8:	00340000 	eorseq	r0, r4, r0
    33ec:	ce010000 	cdpgt	0, 0, cr0, cr1, cr0, {0}
    33f0:	0001bc13 	andeq	fp, r1, r3, lsl ip
    33f4:	00221f00 	eoreq	r1, r2, r0, lsl #30
    33f8:	96b41900 	ldrtls	r1, [r4], r0, lsl #18
    33fc:	00340000 	eorseq	r0, r4, r0
    3400:	c7140000 	ldrgt	r0, [r4, -r0]
    3404:	40000001 	andmi	r0, r0, r1
    3408:	14000022 	strne	r0, [r0], #-34	; 0x22
    340c:	000001d2 	ldrdeq	r0, [r0], -r2
    3410:	00002276 	andeq	r2, r0, r6, ror r2
    3414:	0096e00c 	addseq	lr, r6, ip
    3418:	0008af00 	andeq	sl, r8, r0, lsl #30
    341c:	51010b00 	tstpl	r1, r0, lsl #22
    3420:	01f33107 	mvnseq	r3, r7, lsl #2
    3424:	241a4f50 	ldrcs	r4, [sl], #-3920	; 0xf50
    3428:	00000000 	andeq	r0, r0, r0
    342c:	0008bf07 	andeq	fp, r8, r7, lsl #30
    3430:	e8d10100 	ldm	r1, {r8}^
    3434:	d8000096 	stmdale	r0, {r1, r2, r4, r7}
    3438:	01000000 	mrseq	r0, (UNDEF: 0)
    343c:	00042f9c 	muleq	r4, ip, pc	; <UNPREDICTABLE>
    3440:	69700800 	ldmdbvs	r0!, {fp}^
    3444:	d101006e 	tstle	r1, lr, rrx
    3448:	0000002c 	andeq	r0, r0, ip, lsr #32
    344c:	000022b6 			; <UNDEFINED> instruction: 0x000022b6
    3450:	00090d1b 	andeq	r0, r9, fp, lsl sp
    3454:	b2d10100 	sbcslt	r0, r1, #0, 2
    3458:	d4000000 	strle	r0, [r0], #-0
    345c:	09000022 	stmdbeq	r0, {r1, r5}
    3460:	00000854 	andeq	r0, r0, r4, asr r8
    3464:	0133d901 	teqeq	r3, r1, lsl #18
    3468:	22f50000 	rscscs	r0, r5, #0
    346c:	b7090000 	strlt	r0, [r9, -r0]
    3470:	01000009 	tsteq	r0, r9
    3474:	00002cda 	ldrdeq	r2, [r0], -sl
    3478:	00234a00 	eoreq	r4, r3, r0, lsl #20
    347c:	08fb0900 	ldmeq	fp!, {r8, fp}^
    3480:	e8010000 	stmda	r1, {}	; <UNPREDICTABLE>
    3484:	0000002c 	andeq	r0, r0, ip, lsr #32
    3488:	00002516 	andeq	r2, r0, r6, lsl r5
    348c:	0097840a 	addseq	r8, r7, sl, lsl #8
    3490:	00088e00 	andeq	r8, r8, r0, lsl #28
    3494:	00041e00 	andeq	r1, r4, r0, lsl #28
    3498:	50010b00 	andpl	r0, r1, r0, lsl #22
    349c:	00007602 	andeq	r7, r0, r2, lsl #12
    34a0:	0097b40c 	addseq	fp, r7, ip, lsl #8
    34a4:	0008af00 	andeq	sl, r8, r0, lsl #30
    34a8:	50010b00 	andpl	r0, r1, r0, lsl #22
    34ac:	00007602 	andeq	r7, r0, r2, lsl #12
    34b0:	04d41c00 	ldrbeq	r1, [r4], #3072	; 0xc00
    34b4:	05010000 	streq	r0, [r1, #-0]
    34b8:	00006401 	andeq	r6, r0, r1, lsl #8
    34bc:	0097c000 	addseq	ip, r7, r0
    34c0:	00002c00 	andeq	r2, r0, r0, lsl #24
    34c4:	639c0100 	orrsvs	r0, ip, #0, 2
    34c8:	1d000004 	stcne	0, cr0, [r0, #-16]
    34cc:	000004d7 	ldrdeq	r0, [r0], -r7
    34d0:	2c010501 	cfstr32cs	mvfx0, [r1], {1}
    34d4:	47000000 	strmi	r0, [r0, -r0]
    34d8:	17000025 	strne	r0, [r0, -r5, lsr #32]
    34dc:	000097d0 	ldrdeq	r9, [r0], -r0
    34e0:	0000088e 	andeq	r0, r0, lr, lsl #17
    34e4:	08aa1e00 	stmiaeq	sl!, {r9, sl, fp, ip}
    34e8:	14010000 	strne	r0, [r1], #-0
    34ec:	0097ec01 	addseq	lr, r7, r1, lsl #24
    34f0:	00008400 	andeq	r8, r0, r0, lsl #8
    34f4:	279c0100 	ldrcs	r0, [ip, r0, lsl #2]
    34f8:	1f000005 	svcne	0x00000005
    34fc:	006e6970 	rsbeq	r6, lr, r0, ror r9
    3500:	2c011401 	cfstrscs	mvf1, [r1], {1}
    3504:	68000000 	stmdavs	r0, {}	; <UNPREDICTABLE>
    3508:	20000025 	andcs	r0, r0, r5, lsr #32
    350c:	00000826 	andeq	r0, r0, r6, lsr #16
    3510:	2c012601 	stccs	6, cr2, [r1], {1}
    3514:	94000000 	strls	r0, [r0], #-0
    3518:	21000025 	tstcs	r0, r5, lsr #32
    351c:	00009808 	andeq	r9, r0, r8, lsl #16
    3520:	0000001c 	andeq	r0, r0, ip, lsl r0
    3524:	000004c9 	andeq	r0, r0, r9, asr #9
    3528:	0008fb20 	andeq	pc, r8, r0, lsr #22
    352c:	011d0100 	tsteq	sp, r0, lsl #2
    3530:	0000002c 	andeq	r0, r0, ip, lsr #32
    3534:	000025b2 			; <UNDEFINED> instruction: 0x000025b2
    3538:	00981417 	addseq	r1, r8, r7, lsl r4
    353c:	00088e00 	andeq	r8, r8, r0, lsl #28
    3540:	98241700 	stmdals	r4!, {r8, r9, sl, ip}
    3544:	08af0000 	stmiaeq	pc!, {}	; <UNPREDICTABLE>
    3548:	21000000 	mrscs	r0, (UNDEF: 0)
    354c:	00009828 	andeq	r9, r0, r8, lsr #16
    3550:	00000020 	andeq	r0, r0, r0, lsr #32
    3554:	000004f9 	strdeq	r0, [r0], -r9
    3558:	0008fb20 	andeq	pc, r8, r0, lsr #22
    355c:	01210100 	teqeq	r1, r0, lsl #2
    3560:	0000002c 	andeq	r0, r0, ip, lsr #32
    3564:	000025d0 	ldrdeq	r2, [r0], -r0
    3568:	00983417 	addseq	r3, r8, r7, lsl r4
    356c:	00088e00 	andeq	r8, r8, r0, lsl #28
    3570:	98481700 	stmdals	r8, {r8, r9, sl, ip}^
    3574:	08af0000 	stmiaeq	pc!, {}	; <UNPREDICTABLE>
    3578:	17000000 	strne	r0, [r0, -r0]
    357c:	00009800 	andeq	r9, r0, r0, lsl #16
    3580:	000008cb 	andeq	r0, r0, fp, asr #17
    3584:	00984c17 	addseq	r4, r8, r7, lsl ip
    3588:	0008cb00 	andeq	ip, r8, r0, lsl #22
    358c:	98581700 	ldmdals	r8, {r8, r9, sl, ip}^
    3590:	088e0000 	stmeq	lr, {}	; <UNPREDICTABLE>
    3594:	64170000 	ldrvs	r0, [r7], #-0
    3598:	af000098 	svcge	0x00000098
    359c:	17000008 	strne	r0, [r0, -r8]
    35a0:	00009868 	andeq	r9, r0, r8, ror #16
    35a4:	000008cb 	andeq	r0, r0, fp, asr #17
    35a8:	04be1e00 	ldrteq	r1, [lr], #3584	; 0xe00
    35ac:	31010000 	mrscc	r0, (UNDEF: 1)
    35b0:	00987001 	addseq	r7, r8, r1
    35b4:	00008400 	andeq	r8, r0, r0, lsl #8
    35b8:	eb9c0100 	bl	fe7039c0 <__bss_end__+0xfe6f7108>
    35bc:	1f000005 	svcne	0x00000005
    35c0:	006e6970 	rsbeq	r6, lr, r0, ror r9
    35c4:	2c013101 	stfcss	f3, [r1], {1}
    35c8:	ee000000 	cdp	0, 0, cr0, cr0, cr0, {0}
    35cc:	20000025 	andcs	r0, r0, r5, lsr #32
    35d0:	00000826 	andeq	r0, r0, r6, lsr #16
    35d4:	2c014201 	sfmcs	f4, 4, [r1], {1}
    35d8:	1a000000 	bne	35e0 <_start-0x4a20>
    35dc:	21000026 	tstcs	r0, r6, lsr #32
    35e0:	0000988c 	andeq	r9, r0, ip, lsl #17
    35e4:	0000001c 	andeq	r0, r0, ip, lsl r0
    35e8:	0000058d 	andeq	r0, r0, sp, lsl #11
    35ec:	0008fb20 	andeq	pc, r8, r0, lsr #22
    35f0:	01390100 	teqeq	r9, r0, lsl #2
    35f4:	0000002c 	andeq	r0, r0, ip, lsr #32
    35f8:	00002638 	andeq	r2, r0, r8, lsr r6
    35fc:	00989817 	addseq	r9, r8, r7, lsl r8
    3600:	00088e00 	andeq	r8, r8, r0, lsl #28
    3604:	98a81700 	stmials	r8!, {r8, r9, sl, ip}
    3608:	08af0000 	stmiaeq	pc!, {}	; <UNPREDICTABLE>
    360c:	21000000 	mrscs	r0, (UNDEF: 0)
    3610:	000098ac 	andeq	r9, r0, ip, lsr #17
    3614:	00000020 	andeq	r0, r0, r0, lsr #32
    3618:	000005bd 			; <UNDEFINED> instruction: 0x000005bd
    361c:	0008fb20 	andeq	pc, r8, r0, lsr #22
    3620:	013d0100 	teqeq	sp, r0, lsl #2
    3624:	0000002c 	andeq	r0, r0, ip, lsr #32
    3628:	00002656 	andeq	r2, r0, r6, asr r6
    362c:	0098b817 	addseq	fp, r8, r7, lsl r8
    3630:	00088e00 	andeq	r8, r8, r0, lsl #28
    3634:	98cc1700 	stmials	ip, {r8, r9, sl, ip}^
    3638:	08af0000 	stmiaeq	pc!, {}	; <UNPREDICTABLE>
    363c:	17000000 	strne	r0, [r0, -r0]
    3640:	00009884 	andeq	r9, r0, r4, lsl #17
    3644:	000008cb 	andeq	r0, r0, fp, asr #17
    3648:	0098d017 	addseq	sp, r8, r7, lsl r0
    364c:	0008cb00 	andeq	ip, r8, r0, lsl #22
    3650:	98dc1700 	ldmls	ip, {r8, r9, sl, ip}^
    3654:	088e0000 	stmeq	lr, {}	; <UNPREDICTABLE>
    3658:	e8170000 	ldmda	r7, {}	; <UNPREDICTABLE>
    365c:	af000098 	svcge	0x00000098
    3660:	17000008 	strne	r0, [r0, -r8]
    3664:	000098ec 	andeq	r9, r0, ip, ror #17
    3668:	000008cb 	andeq	r0, r0, fp, asr #17
    366c:	07d21c00 	ldrbeq	r1, [r2, r0, lsl #24]
    3670:	4c010000 	stcmi	0, cr0, [r1], {-0}
    3674:	00006401 	andeq	r6, r0, r1, lsl #8
    3678:	0098f400 	addseq	pc, r8, r0, lsl #8
    367c:	00008400 	andeq	r8, r0, r0, lsl #8
    3680:	919c0100 	orrsls	r0, ip, r0, lsl #2
    3684:	1f000006 	svcne	0x00000006
    3688:	006e6970 	rsbeq	r6, lr, r0, ror r9
    368c:	2c014c01 	stccs	12, cr4, [r1], {1}
    3690:	74000000 	strvc	r0, [r0], #-0
    3694:	21000026 	tstcs	r0, r6, lsr #32
    3698:	00009910 	andeq	r9, r0, r0, lsl r9
    369c:	00000024 	andeq	r0, r0, r4, lsr #32
    36a0:	00000645 	andeq	r0, r0, r5, asr #12
    36a4:	00083d20 	andeq	r3, r8, r0, lsr #26
    36a8:	01530100 	cmpeq	r3, r0, lsl #2
    36ac:	0000002c 	andeq	r0, r0, ip, lsr #32
    36b0:	000026b6 			; <UNDEFINED> instruction: 0x000026b6
    36b4:	00991c17 	addseq	r1, r9, r7, lsl ip
    36b8:	00088e00 	andeq	r8, r8, r0, lsl #28
    36bc:	992c1700 	stmdbls	ip!, {r8, r9, sl, ip}
    36c0:	08cb0000 	stmiaeq	fp, {}^	; <UNPREDICTABLE>
    36c4:	21000000 	mrscs	r0, (UNDEF: 0)
    36c8:	00009934 	andeq	r9, r0, r4, lsr r9
    36cc:	0000002c 	andeq	r0, r0, ip, lsr #32
    36d0:	0000067e 	andeq	r0, r0, lr, ror r6
    36d4:	00083d20 	andeq	r3, r8, r0, lsr #26
    36d8:	01560100 	cmpeq	r6, r0, lsl #2
    36dc:	0000002c 	andeq	r0, r0, ip, lsr #32
    36e0:	000026d0 	ldrdeq	r2, [r0], -r0
    36e4:	00994017 	addseq	r4, r9, r7, lsl r0
    36e8:	00088e00 	andeq	r8, r8, r0, lsl #28
    36ec:	994c1700 	stmdbls	ip, {r8, r9, sl, ip}^
    36f0:	08cb0000 	stmiaeq	fp, {}^	; <UNPREDICTABLE>
    36f4:	58170000 	ldmdapl	r7, {}	; <UNPREDICTABLE>
    36f8:	cb000099 	blgt	3964 <_start-0x469c>
    36fc:	00000008 	andeq	r0, r0, r8
    3700:	00990817 	addseq	r0, r9, r7, lsl r8
    3704:	0008cb00 	andeq	ip, r8, r0, lsl #22
    3708:	99641700 	stmdbls	r4!, {r8, r9, sl, ip}^
    370c:	08cb0000 	stmiaeq	fp, {}^	; <UNPREDICTABLE>
    3710:	1e000000 	cdpne	0, 0, cr0, cr0, cr0, {0}
    3714:	0000017d 	andeq	r0, r0, sp, ror r1
    3718:	78015f01 	stmdavc	r1, {r0, r8, r9, sl, fp, ip, lr}
    371c:	58000099 	stmdapl	r0, {r0, r3, r4, r7}
    3720:	01000000 	mrseq	r0, (UNDEF: 0)
    3724:	0006f69c 	muleq	r6, ip, r6
    3728:	69701f00 	ldmdbvs	r0!, {r8, r9, sl, fp, ip}^
    372c:	5f01006e 	svcpl	0x0001006e
    3730:	00002c01 	andeq	r2, r0, r1, lsl #24
    3734:	0026e300 	eoreq	lr, r6, r0, lsl #6
    3738:	998c1700 	stmibls	ip, {r8, r9, sl, ip}
    373c:	08cb0000 	stmiaeq	fp, {}^	; <UNPREDICTABLE>
    3740:	a80a0000 	stmdage	sl, {}	; <UNPREDICTABLE>
    3744:	af000099 	svcge	0x00000099
    3748:	d6000008 	strle	r0, [r0], -r8
    374c:	0b000006 	bleq	376c <_start-0x4894>
    3750:	31045101 	tstcc	r4, r1, lsl #2
    3754:	00240074 	eoreq	r0, r4, r4, ror r0
    3758:	0099c40a 	addseq	ip, r9, sl, lsl #8
    375c:	0008af00 	andeq	sl, r8, r0, lsl #30
    3760:	0006ec00 	andeq	lr, r6, r0, lsl #24
    3764:	51010b00 	tstpl	r1, r0, lsl #22
    3768:	00743104 	rsbseq	r3, r4, r4, lsl #2
    376c:	c8170024 	ldmdagt	r7, {r2, r5}
    3770:	cb000099 	blgt	39dc <_start-0x4624>
    3774:	00000008 	andeq	r0, r0, r8
    3778:	00089822 	andeq	r9, r8, r2, lsr #16
    377c:	33280100 	teqcc	r8, #0, 2
    3780:	05000001 	streq	r0, [r0, #-1]
    3784:	009ea403 	addseq	sl, lr, r3, lsl #8
    3788:	09032200 	stmdbeq	r3, {r9, sp}
    378c:	29010000 	stmdbcs	r1, {}	; <UNPREDICTABLE>
    3790:	00000133 	andeq	r0, r0, r3, lsr r1
    3794:	9ea00305 	cdpls	3, 10, cr0, cr0, cr5, {0}
    3798:	c2220000 	eorgt	r0, r2, #0
    379c:	01000009 	tsteq	r0, r9
    37a0:	0001332a 	andeq	r3, r1, sl, lsr #6
    37a4:	9c030500 	cfstr32ls	mvfx0, [r3], {-0}
    37a8:	2200009e 	andcs	r0, r0, #158	; 0x9e
    37ac:	00000864 	andeq	r0, r0, r4, ror #16
    37b0:	01332c01 	teqeq	r3, r1, lsl #24
    37b4:	03050000 	movweq	r0, #20480	; 0x5000
    37b8:	00009e48 	andeq	r9, r0, r8, asr #28
    37bc:	00086c22 	andeq	r6, r8, r2, lsr #24
    37c0:	332d0100 	teqcc	sp, #0, 2
    37c4:	05000001 	streq	r0, [r0, #-1]
    37c8:	009e4c03 	addseq	r4, lr, r3, lsl #24
    37cc:	07ec2200 	strbeq	r2, [ip, r0, lsl #4]!
    37d0:	2e010000 	cdpcs	0, 0, cr0, cr1, cr0, {0}
    37d4:	00000133 	andeq	r0, r0, r3, lsr r1
    37d8:	9e500305 	cdpls	3, 5, cr0, cr0, cr5, {0}
    37dc:	74220000 	strtvc	r0, [r2], #-0
    37e0:	01000008 	tsteq	r0, r8
    37e4:	0001332f 	andeq	r3, r1, pc, lsr #6
    37e8:	54030500 	strpl	r0, [r3], #-1280	; 0x500
    37ec:	2200009e 	andcs	r0, r0, #158	; 0x9e
    37f0:	0000087c 	andeq	r0, r0, ip, ror r8
    37f4:	01333001 	teqeq	r3, r1
    37f8:	03050000 	movweq	r0, #20480	; 0x5000
    37fc:	00009e58 	andeq	r9, r0, r8, asr lr
    3800:	00088422 	andeq	r8, r8, r2, lsr #8
    3804:	33310100 	teqcc	r1, #0, 2
    3808:	05000001 	streq	r0, [r0, #-1]
    380c:	009e5c03 	addseq	r5, lr, r3, lsl #24
    3810:	082f2200 	stmdaeq	pc!, {r9, sp}	; <UNPREDICTABLE>
    3814:	33010000 	movwcc	r0, #4096	; 0x1000
    3818:	00000133 	andeq	r0, r0, r3, lsr r1
    381c:	9e600305 	cdpls	3, 6, cr0, cr0, cr5, {0}
    3820:	36220000 	strtcc	r0, [r2], -r0
    3824:	01000008 	tsteq	r0, r8
    3828:	00013334 	andeq	r3, r1, r4, lsr r3
    382c:	64030500 	strvs	r0, [r3], #-1280	; 0x500
    3830:	2200009e 	andcs	r0, r0, #158	; 0x9e
    3834:	000007f4 	strdeq	r0, [r0], -r4
    3838:	01333601 	teqeq	r3, r1, lsl #12
    383c:	03050000 	movweq	r0, #20480	; 0x5000
    3840:	00009e68 	andeq	r9, r0, r8, ror #28
    3844:	0008a322 	andeq	sl, r8, r2, lsr #6
    3848:	33370100 	teqcc	r7, #0, 2
    384c:	05000001 	streq	r0, [r0, #-1]
    3850:	009e6c03 	addseq	r6, lr, r3, lsl #24
    3854:	08462200 	stmdaeq	r6, {r9, sp}^
    3858:	39010000 	stmdbcc	r1, {}	; <UNPREDICTABLE>
    385c:	00000133 	andeq	r0, r0, r3, lsr r1
    3860:	9e700305 	cdpls	3, 7, cr0, cr0, cr5, {0}
    3864:	4d220000 	stcmi	0, cr0, [r2, #-0]
    3868:	01000008 	tsteq	r0, r8
    386c:	0001333a 	andeq	r3, r1, sl, lsr r3
    3870:	74030500 	strvc	r0, [r3], #-1280	; 0x500
    3874:	2200009e 	andcs	r0, r0, #158	; 0x9e
    3878:	000008df 	ldrdeq	r0, [r0], -pc	; <UNPREDICTABLE>
    387c:	0133f001 	teqeq	r3, r1
    3880:	03050000 	movweq	r0, #20480	; 0x5000
    3884:	00009e98 	muleq	r0, r8, lr
    3888:	0008ed22 	andeq	lr, r8, r2, lsr #26
    388c:	33f10100 	mvnscc	r0, #0, 2
    3890:	05000001 	streq	r0, [r0, #-1]
    3894:	009e7803 	addseq	r7, lr, r3, lsl #16
    3898:	09122200 	ldmdbeq	r2, {r9, sp}
    389c:	f3010000 	vhadd.u8	d0, d1, d0
    38a0:	00000133 	andeq	r0, r0, r3, lsr r1
    38a4:	9e900305 	cdpls	3, 9, cr0, cr0, cr5, {0}
    38a8:	19220000 	stmdbne	r2!, {}	; <UNPREDICTABLE>
    38ac:	01000009 	tsteq	r0, r9
    38b0:	000133f4 	strdeq	r3, [r1], -r4
    38b4:	94030500 	strls	r0, [r3], #-1280	; 0x500
    38b8:	2200009e 	andcs	r0, r0, #158	; 0x9e
    38bc:	000008d1 	ldrdeq	r0, [r0], -r1
    38c0:	0133f601 	teqeq	r3, r1, lsl #12
    38c4:	03050000 	movweq	r0, #20480	; 0x5000
    38c8:	00009e7c 	andeq	r9, r0, ip, ror lr
    38cc:	0008d822 	andeq	sp, r8, r2, lsr #16
    38d0:	33f70100 	mvnscc	r0, #0, 2
    38d4:	05000001 	streq	r0, [r0, #-1]
    38d8:	009e8003 	addseq	r8, lr, r3
    38dc:	092c2200 	stmdbeq	ip!, {r9, sp}
    38e0:	f9010000 			; <UNDEFINED> instruction: 0xf9010000
    38e4:	00000133 	andeq	r0, r0, r3, lsr r1
    38e8:	9e880305 	cdpls	3, 8, cr0, cr8, cr5, {0}
    38ec:	33220000 	teqcc	r2, #0
    38f0:	01000009 	tsteq	r0, r9
    38f4:	000133fa 	strdeq	r3, [r1], -sl
    38f8:	8c030500 	cfstr32hi	mvfx0, [r3], {-0}
    38fc:	2200009e 	andcs	r0, r0, #158	; 0x9e
    3900:	000007fb 	strdeq	r0, [r0], -fp
    3904:	0133fc01 	teqeq	r3, r1, lsl #24
    3908:	03050000 	movweq	r0, #20480	; 0x5000
    390c:	00009e84 	andeq	r9, r0, r4, lsl #29
    3910:	00094b23 	andeq	r4, r9, r3, lsr #22
    3914:	2c200100 	stfcss	f0, [r0], #-0
    3918:	a3000000 	movwge	r0, #0
    391c:	24000008 	strcs	r0, [r0], #-8
    3920:	000008a3 	andeq	r0, r0, r3, lsr #17
    3924:	a9040d00 	stmdbge	r4, {r8, sl, fp}
    3928:	25000008 	strcs	r0, [r0, #-8]
    392c:	000008ae 	andeq	r0, r0, lr, lsr #17
    3930:	07e62726 	strbeq	r2, [r6, r6, lsr #14]!
    3934:	1e010000 	cdpne	0, 0, cr0, cr1, cr0, {0}
    3938:	000008c5 	andeq	r0, r0, r5, asr #17
    393c:	0008c524 	andeq	ip, r8, r4, lsr #10
    3940:	002c2400 	eoreq	r2, ip, r0, lsl #8
    3944:	0d000000 	stceq	0, cr0, [r0, #-0]
    3948:	0008ae04 	andeq	sl, r8, r4, lsl #28
    394c:	088c2800 	stmeq	ip, {fp, sp}
    3950:	84030000 	strhi	r0, [r3], #-0
    3954:	00055600 	andeq	r5, r5, r0, lsl #12
    3958:	06000400 	streq	r0, [r0], -r0, lsl #8
    395c:	04000010 	streq	r0, [r0], #-16
    3960:	00039701 	andeq	r9, r3, r1, lsl #14
    3964:	0a870100 	beq	fe1c3d6c <__bss_end__+0xfe1b74b4>
    3968:	05350000 	ldreq	r0, [r5, #-0]!
    396c:	99d00000 	ldmibls	r0, {}^	; <UNPREDICTABLE>
    3970:	01d00000 	bicseq	r0, r0, r0
    3974:	0ee00000 	cdpeq	0, 14, cr0, cr0, cr0, {0}
    3978:	04020000 	streq	r0, [r2], #-0
    397c:	746e6905 	strbtvc	r6, [lr], #-2309	; 0x905
    3980:	07040300 	streq	r0, [r4, -r0, lsl #6]
    3984:	00000088 	andeq	r0, r0, r8, lsl #1
    3988:	cd060103 	stfgts	f0, [r6, #-12]
    398c:	03000002 	movweq	r0, #2
    3990:	02d90502 	sbcseq	r0, r9, #8388608	; 0x800000
    3994:	04030000 	streq	r0, [r3], #-0
    3998:	0000c705 	andeq	ip, r0, r5, lsl #14
    399c:	05080300 	streq	r0, [r8, #-768]	; 0x300
    39a0:	000000c2 	andeq	r0, r0, r2, asr #1
    39a4:	cb080103 	blgt	203db8 <__bss_end__+0x1f7500>
    39a8:	03000002 	movweq	r0, #2
    39ac:	01b20702 			; <UNDEFINED> instruction: 0x01b20702
    39b0:	04030000 	streq	r0, [r3], #-0
    39b4:	00008307 	andeq	r8, r0, r7, lsl #6
    39b8:	07080300 	streq	r0, [r8, -r0, lsl #6]
    39bc:	0000007e 	andeq	r0, r0, lr, ror r0
    39c0:	3a070403 	bcc	1c49d4 <__bss_end__+0x1b811c>
    39c4:	03000002 	movweq	r0, #2
    39c8:	02d40801 	sbcseq	r0, r4, #65536	; 0x10000
    39cc:	04040000 	streq	r0, [r4], #-0
    39d0:	0000007f 	andeq	r0, r0, pc, ror r0
    39d4:	00007205 	andeq	r7, r0, r5, lsl #4
    39d8:	00720600 	rsbseq	r0, r2, r0, lsl #12
    39dc:	00940000 	addseq	r0, r4, r0
    39e0:	6b070000 	blvs	1c39e8 <__bss_end__+0x1b7130>
    39e4:	19000000 	stmdbne	r0, {}	; <UNPREDICTABLE>
    39e8:	03040800 	movweq	r0, #18432	; 0x4800
    39ec:	00010b14 	andeq	r0, r1, r4, lsl fp
    39f0:	0b2d0900 	bleq	b45df8 <__bss_end__+0xb39540>
    39f4:	e4800000 	str	r0, [r0], #0
    39f8:	09028082 	stmdbeq	r2, {r1, r7, pc}
    39fc:	00000a12 	andeq	r0, r0, r2, lsl sl
    3a00:	8082e480 	addhi	lr, r2, r0, lsl #9
    3a04:	0aa70902 	beq	fe9c5e14 <__bss_end__+0xfe9b955c>
    3a08:	e4840000 	str	r0, [r4], #0
    3a0c:	09028082 	stmdbeq	r2, {r1, r7, pc}
    3a10:	00000a79 	andeq	r0, r0, r9, ror sl
    3a14:	8082e488 	addhi	lr, r2, r8, lsl #9
    3a18:	09f50902 	ldmibeq	r5!, {r1, r8, fp}^
    3a1c:	e48c0000 	str	r0, [ip], #0
    3a20:	09028082 	stmdbeq	r2, {r1, r7, pc}
    3a24:	00000a36 	andeq	r0, r0, r6, lsr sl
    3a28:	8082e490 	umullhi	lr, r2, r0, r4
    3a2c:	0a440902 	beq	1105e3c <__bss_end__+0x10f9584>
    3a30:	e4940000 	ldr	r0, [r4], #0
    3a34:	09028082 	stmdbeq	r2, {r1, r7, pc}
    3a38:	00000a24 	andeq	r0, r0, r4, lsr #20
    3a3c:	8082e498 	umullhi	lr, r2, r8, r4
    3a40:	0af90902 	beq	ffe45e50 <__bss_end__+0xffe39598>
    3a44:	e49c0000 	ldr	r0, [ip], #0
    3a48:	09028082 	stmdbeq	r2, {r1, r7, pc}
    3a4c:	00000b08 	andeq	r0, r0, r8, lsl #22
    3a50:	8082e4a0 	addhi	lr, r2, r0, lsr #9
    3a54:	09e20902 	stmibeq	r2!, {r1, r8, fp}^
    3a58:	e4a40000 	strt	r0, [r4], #0
    3a5c:	00028082 	andeq	r8, r2, r2, lsl #1
    3a60:	0002800a 	andeq	r8, r2, sl
    3a64:	d0050100 	andle	r0, r5, r0, lsl #2
    3a68:	68000099 	stmdavs	r0, {r0, r3, r4, r7}
    3a6c:	01000000 	mrseq	r0, (UNDEF: 0)
    3a70:	0001b79c 	muleq	r1, ip, r7
    3a74:	0a010b00 	beq	4667c <__bss_end__+0x39dc4>
    3a78:	11010000 	mrsne	r0, (UNDEF: 1)
    3a7c:	0000002c 	andeq	r0, r0, ip, lsr #32
    3a80:	000a520b 	andeq	r5, sl, fp, lsl #4
    3a84:	2c120100 	ldfcss	f0, [r2], {-0}
    3a88:	0c000000 	stceq	0, cr0, [r0], {-0}
    3a8c:	00747364 	rsbseq	r7, r4, r4, ror #6
    3a90:	01b71601 			; <UNDEFINED> instruction: 0x01b71601
    3a94:	0d000000 	stceq	0, cr0, [r0, #-0]
    3a98:	00637273 	rsbeq	r7, r3, r3, ror r2
    3a9c:	01b71701 			; <UNDEFINED> instruction: 0x01b71701
    3aa0:	6e0e0000 	cdpvs	0, 0, cr0, cr14, cr0, {0}
    3aa4:	2c180100 	ldfcss	f0, [r8], {-0}
    3aa8:	01000000 	mrseq	r0, (UNDEF: 0)
    3aac:	9a000f50 	bls	77f4 <_start-0x80c>
    3ab0:	00240000 	eoreq	r0, r4, r0
    3ab4:	01730000 	cmneq	r3, r0
    3ab8:	69100000 	ldmdbvs	r0, {}	; <UNPREDICTABLE>
    3abc:	25190100 	ldrcs	r0, [r9, #-256]	; 0x100
    3ac0:	0f000000 	svceq	0x00000000
    3ac4:	00000027 	andeq	r0, r0, r7, lsr #32
    3ac8:	0099e011 	addseq	lr, r9, r1, lsl r0
    3acc:	00051f00 	andeq	r1, r5, r0, lsl #30
    3ad0:	00019000 	andeq	r9, r1, r0
    3ad4:	51011200 	mrspl	r1, R9_usr
    3ad8:	12ff0902 	rscsne	r0, pc, #32768	; 0x8000
    3adc:	0c055001 	stceq	0, cr5, [r5], {1}
    3ae0:	2000b21c 	andcs	fp, r0, ip, lsl r2
    3ae4:	99ec1100 	stmibls	ip!, {r8, ip}^
    3ae8:	051f0000 	ldreq	r0, [pc, #-0]	; 3af0 <_start-0x4510>
    3aec:	01ad0000 			; <UNDEFINED> instruction: 0x01ad0000
    3af0:	01120000 	tsteq	r2, r0
    3af4:	ff090251 			; <UNDEFINED> instruction: 0xff090251
    3af8:	05500112 	ldrbeq	r0, [r0, #-274]	; 0x112
    3afc:	00b2200c 	adcseq	r2, r2, ip
    3b00:	f0130020 			; <UNDEFINED> instruction: 0xf0130020
    3b04:	35000099 	strcc	r0, [r0, #-153]	; 0x99
    3b08:	00000005 	andeq	r0, r0, r5
    3b0c:	002c0404 	eoreq	r0, ip, r4, lsl #8
    3b10:	170a0000 	strne	r0, [sl, -r0]
    3b14:	0100000b 	tsteq	r0, fp
    3b18:	009a381f 	addseq	r3, sl, pc, lsl r8
    3b1c:	00003c00 	andeq	r3, r0, r0, lsl #24
    3b20:	3a9c0100 	bcc	fe703f28 <__bss_end__+0xfe6f7670>
    3b24:	14000002 	strne	r0, [r0], #-2
    3b28:	01006370 	tsteq	r0, r0, ror r3
    3b2c:	00002c1f 	andeq	r2, r0, pc, lsl ip
    3b30:	00272e00 	eoreq	r2, r7, r0, lsl #28
    3b34:	018e1500 	orreq	r1, lr, r0, lsl #10
    3b38:	024a0000 	subeq	r0, sl, #0
    3b3c:	03050000 	movweq	r0, #20480	; 0x5000
    3b40:	0000a334 	andeq	sl, r0, r4, lsr r3
    3b44:	009a6011 	addseq	r6, sl, r1, lsl r0
    3b48:	00053c00 	andeq	r3, r5, r0, lsl #24
    3b4c:	00023000 	andeq	r3, r2, r0
    3b50:	53011200 	movwpl	r1, #4608	; 0x1200
    3b54:	12200802 	eorne	r0, r0, #131072	; 0x20000
    3b58:	03055201 	movweq	r5, #20993	; 0x5201
    3b5c:	0000a334 	andeq	sl, r0, r4, lsr r3
    3b60:	05510112 	ldrbeq	r0, [r1, #-274]	; 0x112
    3b64:	00a40003 	adceq	r0, r4, r3
    3b68:	50011200 	andpl	r1, r1, r0, lsl #4
    3b6c:	a3c40305 	bicge	r0, r4, #335544320	; 0x14000000
    3b70:	02120000 	andseq	r0, r2, #0
    3b74:	f303047d 	vqshl.u8	q0, <illegal reg q14.5>, <illegal reg q1.5>
    3b78:	02125001 	andseq	r5, r2, #1
    3b7c:	0305007d 	movweq	r0, #20605	; 0x507d
    3b80:	0000a420 	andeq	sl, r0, r0, lsr #8
    3b84:	9a641300 	bls	190878c <__bss_end__+0x18fbed4>
    3b88:	05520000 	ldrbeq	r0, [r2, #-0]
    3b8c:	06000000 	streq	r0, [r0], -r0
    3b90:	00000072 	andeq	r0, r0, r2, ror r0
    3b94:	0000024a 	andeq	r0, r0, sl, asr #4
    3b98:	00006b07 	andeq	r6, r0, r7, lsl #22
    3b9c:	05001500 	streq	r1, [r0, #-1280]	; 0x500
    3ba0:	0000023a 	andeq	r0, r0, sl, lsr r2
    3ba4:	000adf0a 	andeq	sp, sl, sl, lsl #30
    3ba8:	74240100 	strtvc	r0, [r4], #-256	; 0x100
    3bac:	3c00009a 	stccc	0, cr0, [r0], {154}	; 0x9a
    3bb0:	01000000 	mrseq	r0, (UNDEF: 0)
    3bb4:	0002cc9c 	muleq	r2, ip, ip
    3bb8:	63701400 	cmnvs	r0, #0, 8
    3bbc:	2c240100 	stfcss	f0, [r4], #-0
    3bc0:	5b000000 	blpl	3bc8 <_start-0x4438>
    3bc4:	15000027 	strne	r0, [r0, #-39]	; 0x27
    3bc8:	0000018e 	andeq	r0, r0, lr, lsl #3
    3bcc:	000002cc 	andeq	r0, r0, ip, asr #5
    3bd0:	a34c0305 	movtge	r0, #49925	; 0xc305
    3bd4:	9c110000 	ldcls	0, cr0, [r1], {-0}
    3bd8:	3c00009a 	stccc	0, cr0, [r0], {154}	; 0x9a
    3bdc:	c2000005 	andgt	r0, r0, #5
    3be0:	12000002 	andne	r0, r0, #2
    3be4:	08025301 	stmdaeq	r2, {r0, r8, r9, ip, lr}
    3be8:	52011225 	andpl	r1, r1, #1342177282	; 0x50000002
    3bec:	a34c0305 	movtge	r0, #49925	; 0xc305
    3bf0:	01120000 	tsteq	r2, r0
    3bf4:	00030551 	andeq	r0, r3, r1, asr r5
    3bf8:	120000a4 	andne	r0, r0, #164	; 0xa4
    3bfc:	03055001 	movweq	r5, #20481	; 0x5001
    3c00:	0000a3c4 	andeq	sl, r0, r4, asr #7
    3c04:	047d0212 	ldrbteq	r0, [sp], #-530	; 0x212
    3c08:	5001f303 	andpl	pc, r1, r3, lsl #6
    3c0c:	007d0212 	rsbseq	r0, sp, r2, lsl r2
    3c10:	a4280305 	strtge	r0, [r8], #-773	; 0x305
    3c14:	13000000 	movwne	r0, #0
    3c18:	00009aa0 	andeq	r9, r0, r0, lsr #21
    3c1c:	00000552 	andeq	r0, r0, r2, asr r5
    3c20:	00840500 	addeq	r0, r4, r0, lsl #10
    3c24:	d20a0000 	andle	r0, sl, #0
    3c28:	0100000a 	tsteq	r0, sl
    3c2c:	009ab027 	addseq	fp, sl, r7, lsr #32
    3c30:	00003c00 	andeq	r3, r0, r0, lsl #24
    3c34:	4e9c0100 	fmlmie	f0, f4, f0
    3c38:	14000003 	strne	r0, [r0], #-3
    3c3c:	01006370 	tsteq	r0, r0, ror r3
    3c40:	00002c27 	andeq	r2, r0, r7, lsr #24
    3c44:	00278800 	eoreq	r8, r7, r0, lsl #16
    3c48:	018e1500 	orreq	r1, lr, r0, lsl #10
    3c4c:	035e0000 	cmpeq	lr, #0
    3c50:	03050000 	movweq	r0, #20480	; 0x5000
    3c54:	0000a368 	andeq	sl, r0, r8, ror #6
    3c58:	009ad811 	addseq	sp, sl, r1, lsl r8
    3c5c:	00053c00 	andeq	r3, r5, r0, lsl #24
    3c60:	00034400 	andeq	r4, r3, r0, lsl #8
    3c64:	53011200 	movwpl	r1, #4608	; 0x1200
    3c68:	12280802 	eorne	r0, r8, #131072	; 0x20000
    3c6c:	03055201 	movweq	r5, #20993	; 0x5201
    3c70:	0000a368 	andeq	sl, r0, r8, ror #6
    3c74:	05510112 	ldrbeq	r0, [r1, #-274]	; 0x112
    3c78:	00a40003 	adceq	r0, r4, r3
    3c7c:	50011200 	andpl	r1, r1, r0, lsl #4
    3c80:	a3c40305 	bicge	r0, r4, #335544320	; 0x14000000
    3c84:	02120000 	andseq	r0, r2, #0
    3c88:	f303047d 	vqshl.u8	q0, <illegal reg q14.5>, <illegal reg q1.5>
    3c8c:	02125001 	andseq	r5, r2, #1
    3c90:	0305007d 	movweq	r0, #20605	; 0x507d
    3c94:	0000a438 	andeq	sl, r0, r8, lsr r4
    3c98:	9adc1300 	bls	ff7088a0 <__bss_end__+0xff6fbfe8>
    3c9c:	05520000 	ldrbeq	r0, [r2, #-0]
    3ca0:	06000000 	streq	r0, [r0], -r0
    3ca4:	00000072 	andeq	r0, r0, r2, ror r0
    3ca8:	0000035e 	andeq	r0, r0, lr, asr r3
    3cac:	00006b07 	andeq	r6, r0, r7, lsl #22
    3cb0:	05000c00 	streq	r0, [r0, #-3072]	; 0xc00
    3cb4:	0000034e 	andeq	r0, r0, lr, asr #6
    3cb8:	000ab50a 	andeq	fp, sl, sl, lsl #10
    3cbc:	ec2a0100 	stfs	f0, [sl], #-0
    3cc0:	3c00009a 	stccc	0, cr0, [r0], {154}	; 0x9a
    3cc4:	01000000 	mrseq	r0, (UNDEF: 0)
    3cc8:	0003e09c 	muleq	r3, ip, r0
    3ccc:	63701400 	cmnvs	r0, #0, 8
    3cd0:	2c2a0100 	stfcss	f0, [sl], #-0
    3cd4:	b5000000 	strlt	r0, [r0, #-0]
    3cd8:	15000027 	strne	r0, [r0, #-39]	; 0x27
    3cdc:	0000018e 	andeq	r0, r0, lr, lsl #3
    3ce0:	000003f0 	strdeq	r0, [r0], -r0	; <UNPREDICTABLE>
    3ce4:	a3780305 	cmnge	r8, #335544320	; 0x14000000
    3ce8:	14110000 	ldrne	r0, [r1], #-0
    3cec:	3c00009b 	stccc	0, cr0, [r0], {155}	; 0x9b
    3cf0:	d6000005 	strle	r0, [r0], -r5
    3cf4:	12000003 	andne	r0, r0, #3
    3cf8:	08025301 	stmdaeq	r2, {r0, r8, r9, ip, lr}
    3cfc:	5201122b 	andpl	r1, r1, #-1342177278	; 0xb0000002
    3d00:	a3780305 	cmnge	r8, #335544320	; 0x14000000
    3d04:	01120000 	tsteq	r2, r0
    3d08:	00030551 	andeq	r0, r3, r1, asr r5
    3d0c:	120000a4 	andne	r0, r0, #164	; 0xa4
    3d10:	03055001 	movweq	r5, #20481	; 0x5001
    3d14:	0000a3c4 	andeq	sl, r0, r4, asr #7
    3d18:	047d0212 	ldrbteq	r0, [sp], #-530	; 0x212
    3d1c:	5001f303 	andpl	pc, r1, r3, lsl #6
    3d20:	007d0212 	rsbseq	r0, sp, r2, lsl r2
    3d24:	a4480305 	strbge	r0, [r8], #-773	; 0x305
    3d28:	13000000 	movwne	r0, #0
    3d2c:	00009b18 	andeq	r9, r0, r8, lsl fp
    3d30:	00000552 	andeq	r0, r0, r2, asr r5
    3d34:	00720600 	rsbseq	r0, r2, r0, lsl #12
    3d38:	03f00000 	mvnseq	r0, #0
    3d3c:	6b070000 	blvs	1c3d44 <__bss_end__+0x1b748c>
    3d40:	1c000000 	stcne	0, cr0, [r0], {-0}
    3d44:	03e00500 	mvneq	r0, #0, 10
    3d48:	cc0a0000 	stcgt	0, cr0, [sl], {-0}
    3d4c:	01000009 	tsteq	r0, r9
    3d50:	009b282d 	addseq	r2, fp, sp, lsr #16
    3d54:	00003c00 	andeq	r3, r0, r0, lsl #24
    3d58:	729c0100 	addsvc	r0, ip, #0, 2
    3d5c:	14000004 	strne	r0, [r0], #-4
    3d60:	01006370 	tsteq	r0, r0, ror r3
    3d64:	00002c2d 	andeq	r2, r0, sp, lsr #24
    3d68:	0027e200 	eoreq	lr, r7, r0, lsl #4
    3d6c:	018e1500 	orreq	r1, lr, r0, lsl #10
    3d70:	04720000 	ldrbteq	r0, [r2], #-0
    3d74:	03050000 	movweq	r0, #20480	; 0x5000
    3d78:	0000a398 	muleq	r0, r8, r3
    3d7c:	009b5011 	addseq	r5, fp, r1, lsl r0
    3d80:	00053c00 	andeq	r3, r5, r0, lsl #24
    3d84:	00046800 	andeq	r6, r4, r0, lsl #16
    3d88:	53011200 	movwpl	r1, #4608	; 0x1200
    3d8c:	122e0802 	eorne	r0, lr, #131072	; 0x20000
    3d90:	03055201 	movweq	r5, #20993	; 0x5201
    3d94:	0000a398 	muleq	r0, r8, r3
    3d98:	05510112 	ldrbeq	r0, [r1, #-274]	; 0x112
    3d9c:	00a40003 	adceq	r0, r4, r3
    3da0:	50011200 	andpl	r1, r1, r0, lsl #4
    3da4:	a3c40305 	bicge	r0, r4, #335544320	; 0x14000000
    3da8:	02120000 	andseq	r0, r2, #0
    3dac:	f303047d 	vqshl.u8	q0, <illegal reg q14.5>, <illegal reg q1.5>
    3db0:	02125001 	andseq	r5, r2, #1
    3db4:	0305007d 	movweq	r0, #20605	; 0x507d
    3db8:	0000a460 	andeq	sl, r0, r0, ror #8
    3dbc:	9b541300 	blls	15089c4 <__bss_end__+0x14fc10c>
    3dc0:	05520000 	ldrbeq	r0, [r2, #-0]
    3dc4:	05000000 	streq	r0, [r0, #-0]
    3dc8:	0000023a 	andeq	r0, r0, sl, lsr r2
    3dcc:	000a670a 	andeq	r6, sl, sl, lsl #14
    3dd0:	64300100 	ldrtvs	r0, [r0], #-256	; 0x100
    3dd4:	3c00009b 	stccc	0, cr0, [r0], {155}	; 0x9b
    3dd8:	01000000 	mrseq	r0, (UNDEF: 0)
    3ddc:	0004f49c 	muleq	r4, ip, r4
    3de0:	63701400 	cmnvs	r0, #0, 8
    3de4:	2c300100 	ldfcss	f0, [r0], #-0
    3de8:	0f000000 	svceq	0x00000000
    3dec:	15000028 	strne	r0, [r0, #-40]	; 0x28
    3df0:	0000018e 	andeq	r0, r0, lr, lsl #3
    3df4:	00000504 	andeq	r0, r0, r4, lsl #10
    3df8:	a3b00305 	movsge	r0, #335544320	; 0x14000000
    3dfc:	8c110000 	ldchi	0, cr0, [r1], {-0}
    3e00:	3c00009b 	stccc	0, cr0, [r0], {155}	; 0x9b
    3e04:	ea000005 	b	3e20 <_start-0x41e0>
    3e08:	12000004 	andne	r0, r0, #4
    3e0c:	08025301 	stmdaeq	r2, {r0, r8, r9, ip, lr}
    3e10:	52011231 	andpl	r1, r1, #268435459	; 0x10000003
    3e14:	a3b00305 	movsge	r0, #335544320	; 0x14000000
    3e18:	01120000 	tsteq	r2, r0
    3e1c:	00030551 	andeq	r0, r3, r1, asr r5
    3e20:	120000a4 	andne	r0, r0, #164	; 0xa4
    3e24:	03055001 	movweq	r5, #20481	; 0x5001
    3e28:	0000a3c4 	andeq	sl, r0, r4, asr #7
    3e2c:	047d0212 	ldrbteq	r0, [sp], #-530	; 0x212
    3e30:	5001f303 	andpl	pc, r1, r3, lsl #6
    3e34:	007d0212 	rsbseq	r0, sp, r2, lsl r2
    3e38:	a4700305 	ldrbtge	r0, [r0], #-773	; 0x305
    3e3c:	13000000 	movwne	r0, #0
    3e40:	00009b90 	muleq	r0, r0, fp
    3e44:	00000552 	andeq	r0, r0, r2, asr r5
    3e48:	00720600 	rsbseq	r0, r2, r0, lsl #12
    3e4c:	05040000 	streq	r0, [r4, #-0]
    3e50:	6b070000 	blvs	1c3e58 <__bss_end__+0x1b75a0>
    3e54:	11000000 	mrsne	r0, (UNDEF: 0)
    3e58:	04f40500 	ldrbteq	r0, [r4], #1280	; 0x500
    3e5c:	010b0000 	mrseq	r0, (UNDEF: 11)
    3e60:	0100000a 	tsteq	r0, sl
    3e64:	00002c11 	andeq	r2, r0, r1, lsl ip
    3e68:	0a520b00 	beq	1486a70 <__bss_end__+0x147a1b8>
    3e6c:	12010000 	andne	r0, r1, #0
    3e70:	0000002c 	andeq	r0, r0, ip, lsr #32
    3e74:	00077116 	andeq	r7, r7, r6, lsl r1
    3e78:	35940200 	ldrcc	r0, [r4, #512]	; 0x200
    3e7c:	17000005 	strne	r0, [r0, -r5]
    3e80:	0000002c 	andeq	r0, r0, ip, lsr #32
    3e84:	00002c17 	andeq	r2, r0, r7, lsl ip
    3e88:	8c180000 	ldchi	0, cr0, [r8], {-0}
    3e8c:	02000008 	andeq	r0, r0, #8
    3e90:	02081984 	andeq	r1, r8, #132, 18	; 0x210000
    3e94:	27020000 	strcs	r0, [r2, -r0]
    3e98:	00000025 	andeq	r0, r0, r5, lsr #32
    3e9c:	00000552 	andeq	r0, r0, r2, asr r5
    3ea0:	00007917 	andeq	r7, r0, r7, lsl r9
    3ea4:	18001a00 	stmdane	r0, {r9, fp, ip}
    3ea8:	00000228 	andeq	r0, r0, r8, lsr #4
    3eac:	ff006302 			; <UNDEFINED> instruction: 0xff006302
    3eb0:	04000003 	streq	r0, [r0], #-3
    3eb4:	00115d00 	andseq	r5, r1, r0, lsl #26
    3eb8:	97010400 	strls	r0, [r1, -r0, lsl #8]
    3ebc:	01000003 	tsteq	r0, r3
    3ec0:	00000b8e 	andeq	r0, r0, lr, lsl #23
    3ec4:	00000535 	andeq	r0, r0, r5, lsr r5
    3ec8:	00009cdc 	ldrdeq	r9, [r0], -ip
    3ecc:	00000154 	andeq	r0, r0, r4, asr r1
    3ed0:	00000fba 			; <UNDEFINED> instruction: 0x00000fba
    3ed4:	69050402 	stmdbvs	r5, {r1, sl}
    3ed8:	0300746e 	movweq	r7, #1134	; 0x46e
    3edc:	00880704 	addeq	r0, r8, r4, lsl #14
    3ee0:	01030000 	mrseq	r0, (UNDEF: 3)
    3ee4:	0002cd06 	andeq	ip, r2, r6, lsl #26
    3ee8:	05020300 	streq	r0, [r2, #-768]	; 0x300
    3eec:	000002d9 	ldrdeq	r0, [r0], -r9
    3ef0:	c7050403 	strgt	r0, [r5, -r3, lsl #8]
    3ef4:	03000000 	movweq	r0, #0
    3ef8:	00c20508 	sbceq	r0, r2, r8, lsl #10
    3efc:	01030000 	mrseq	r0, (UNDEF: 3)
    3f00:	0002cb08 	andeq	ip, r2, r8, lsl #22
    3f04:	07020300 	streq	r0, [r2, -r0, lsl #6]
    3f08:	000001b2 			; <UNDEFINED> instruction: 0x000001b2
    3f0c:	83070403 	movwhi	r0, #29699	; 0x7403
    3f10:	03000000 	movweq	r0, #0
    3f14:	007e0708 	rsbseq	r0, lr, r8, lsl #14
    3f18:	04030000 	streq	r0, [r3], #-0
    3f1c:	00023a07 	andeq	r3, r2, r7, lsl #20
    3f20:	08010300 	stmdaeq	r1, {r8, r9}
    3f24:	000002d4 	ldrdeq	r0, [r0], -r4
    3f28:	0c020104 	stfeqs	f0, [r2], {4}
    3f2c:	000000b2 	strheq	r0, [r0], -r2
    3f30:	00080905 	andeq	r0, r8, r5, lsl #18
    3f34:	3a050000 	bcc	143f3c <__bss_end__+0x137684>
    3f38:	01000009 	tsteq	r0, r9
    3f3c:	00095d05 	andeq	r5, r9, r5, lsl #26
    3f40:	6c050400 	cfstrsvs	mvf0, [r5], {-0}
    3f44:	05000009 	streq	r0, [r0, #-9]
    3f48:	00097b05 	andeq	r7, r9, r5, lsl #22
    3f4c:	8a050600 	bhi	145754 <__bss_end__+0x138e9c>
    3f50:	07000009 	streq	r0, [r0, -r9]
    3f54:	00099905 	andeq	r9, r9, r5, lsl #18
    3f58:	a8050300 	stmdage	r5, {r8, r9}
    3f5c:	02000009 	andeq	r0, r0, #9
    3f60:	09510600 	ldmdbeq	r1, {r9, sl}^
    3f64:	15020000 	strne	r0, [r2, #-0]
    3f68:	00000079 	andeq	r0, r0, r9, ror r0
    3f6c:	000b6207 	andeq	r6, fp, r7, lsl #4
    3f70:	25570100 	ldrbcs	r0, [r7, #-256]	; 0x100
    3f74:	dc000000 	stcle	0, cr0, [r0], {-0}
    3f78:	1c00009c 	stcne	0, cr0, [r0], {156}	; 0x9c
    3f7c:	01000000 	mrseq	r0, (UNDEF: 0)
    3f80:	0000e09c 	muleq	r0, ip, r0
    3f84:	9cec0800 	stclls	8, cr0, [ip]
    3f88:	03a80000 			; <UNDEFINED> instruction: 0x03a80000
    3f8c:	09000000 	stmdbeq	r0, {}	; <UNPREDICTABLE>
    3f90:	0000037f 	andeq	r0, r0, pc, ror r3
    3f94:	9cf83701 	ldclls	7, cr3, [r8], #4
    3f98:	009c0000 	addseq	r0, ip, r0
    3f9c:	9c010000 	stcls	0, cr0, [r1], {-0}
    3fa0:	000001e6 	andeq	r0, r0, r6, ror #3
    3fa4:	009d0008 	addseq	r0, sp, r8
    3fa8:	0003c900 	andeq	ip, r3, r0, lsl #18
    3fac:	9d0c0a00 	vstrls	s0, [ip, #-0]
    3fb0:	03d00000 	bicseq	r0, r0, #0
    3fb4:	01160000 	tsteq	r6, r0
    3fb8:	010b0000 	mrseq	r0, (UNDEF: 11)
    3fbc:	0b320151 	bleq	c84508 <__bss_end__+0xc77c50>
    3fc0:	3e015001 	cdpcc	0, 0, cr5, cr1, cr1, {0}
    3fc4:	9d180a00 	vldrls	s0, [r8, #-0]
    3fc8:	03d00000 	bicseq	r0, r0, #0
    3fcc:	012e0000 	teqeq	lr, r0
    3fd0:	010b0000 	mrseq	r0, (UNDEF: 11)
    3fd4:	0b320151 	bleq	c84520 <__bss_end__+0xc77c68>
    3fd8:	3f015001 	svccc	0x00015001
    3fdc:	9d1c0800 	ldcls	8, cr0, [ip, #-0]
    3fe0:	03c90000 	biceq	r0, r9, #0
    3fe4:	2c0a0000 	stccs	0, cr0, [sl], {-0}
    3fe8:	a800009d 	stmdage	r0, {r0, r2, r3, r4, r7}
    3fec:	4b000003 	blmi	4000 <_start-0x4000>
    3ff0:	0b000001 	bleq	3ffc <_start-0x4004>
    3ff4:	75025001 	strvc	r5, [r2, #-1]
    3ff8:	380a0000 	stmdacc	sl, {}	; <UNPREDICTABLE>
    3ffc:	e600009d 			; <UNDEFINED> instruction: 0xe600009d
    4000:	5f000003 	svcpl	0x00000003
    4004:	0b000001 	bleq	4010 <_start-0x3ff0>
    4008:	75025001 	strvc	r5, [r2, #-1]
    400c:	3c080000 	stccc	0, cr0, [r8], {-0}
    4010:	c900009d 	stmdbgt	r0, {r0, r2, r3, r4, r7}
    4014:	0a000003 	beq	4028 <_start-0x3fd8>
    4018:	00009d48 	andeq	r9, r0, r8, asr #26
    401c:	000003e6 	andeq	r0, r0, r6, ror #7
    4020:	0000017b 	andeq	r0, r0, fp, ror r1
    4024:	0151010b 	cmpeq	r1, fp, lsl #2
    4028:	540a0030 	strpl	r0, [sl], #-48	; 0x30
    402c:	e600009d 			; <UNDEFINED> instruction: 0xe600009d
    4030:	8e000003 	cdphi	0, 0, cr0, cr0, cr3, {0}
    4034:	0b000001 	bleq	4040 <_start-0x3fc0>
    4038:	30015101 	andcc	r5, r1, r1, lsl #2
    403c:	9d600a00 	vstmdbls	r0!, {s1-s0}
    4040:	03e60000 	mvneq	r0, #0
    4044:	01a10000 			; <UNDEFINED> instruction: 0x01a10000
    4048:	010b0000 	mrseq	r0, (UNDEF: 11)
    404c:	00360151 	eorseq	r0, r6, r1, asr r1
    4050:	009d6c0a 	addseq	r6, sp, sl, lsl #24
    4054:	0003e600 	andeq	lr, r3, r0, lsl #12
    4058:	0001b400 	andeq	fp, r1, r0, lsl #8
    405c:	51010b00 	tstpl	r1, r0, lsl #22
    4060:	0a003301 	beq	10c6c <__bss_end__+0x43b4>
    4064:	00009d78 	andeq	r9, r0, r8, ror sp
    4068:	000003e6 	andeq	r0, r0, r6, ror #7
    406c:	000001c9 	andeq	r0, r0, r9, asr #3
    4070:	0351010b 	cmpeq	r1, #-1073741822	; 0xc0000002
    4074:	00010e0a 	andeq	r0, r1, sl, lsl #28
    4078:	009d840a 	addseq	r8, sp, sl, lsl #8
    407c:	0003e600 	andeq	lr, r3, r0, lsl #12
    4080:	0001dc00 	andeq	sp, r1, r0, lsl #24
    4084:	51010b00 	tstpl	r1, r0, lsl #22
    4088:	08003301 	stmdaeq	r0, {r0, r8, r9, ip, sp}
    408c:	00009d88 	andeq	r9, r0, r8, lsl #27
    4090:	000003c9 	andeq	r0, r0, r9, asr #7
    4094:	013d0c00 	teqeq	sp, r0, lsl #24
    4098:	5d010000 	stcpl	0, cr0, [r1, #-0]
    409c:	00000025 	andeq	r0, r0, r5, lsr #32
    40a0:	00009d94 	muleq	r0, r4, sp
    40a4:	00000028 	andeq	r0, r0, r8, lsr #32
    40a8:	02129c01 	andseq	r9, r2, #256	; 0x100
    40ac:	9c080000 	stcls	0, cr0, [r8], {-0}
    40b0:	bd00009d 	stclt	0, cr0, [r0, #-628]	; 0xfffffd8c
    40b4:	08000000 	stmdaeq	r0, {}	; <UNPREDICTABLE>
    40b8:	00009db0 			; <UNDEFINED> instruction: 0x00009db0
    40bc:	000003a8 	andeq	r0, r0, r8, lsr #7
    40c0:	0bb30c00 	bleq	fecc70c8 <__bss_end__+0xfecba810>
    40c4:	64010000 	strvs	r0, [r1], #-0
    40c8:	00000025 	andeq	r0, r0, r5, lsr #32
    40cc:	00009dbc 			; <UNDEFINED> instruction: 0x00009dbc
    40d0:	0000001c 	andeq	r0, r0, ip, lsl r0
    40d4:	02359c01 	eorseq	r9, r5, #256	; 0x100
    40d8:	cc080000 	stcgt	0, cr0, [r8], {-0}
    40dc:	a800009d 	stmdage	r0, {r0, r2, r3, r4, r7}
    40e0:	00000003 	andeq	r0, r0, r3
    40e4:	0001e909 	andeq	lr, r1, r9, lsl #18
    40e8:	d86a0100 	stmdale	sl!, {r8}^
    40ec:	2c00009d 	stccs	0, cr0, [r0], {157}	; 0x9d
    40f0:	01000000 	mrseq	r0, (UNDEF: 0)
    40f4:	0002719c 	muleq	r2, ip, r1
    40f8:	00630d00 	rsbeq	r0, r3, r0, lsl #26
    40fc:	002c6a01 	eoreq	r6, ip, r1, lsl #20
    4100:	283c0000 	ldmdacs	ip!, {}	; <UNPREDICTABLE>
    4104:	e4080000 	str	r0, [r8], #-0
    4108:	1200009d 	andne	r0, r0, #157	; 0x9d
    410c:	0e000002 	cdpeq	0, 0, cr0, cr0, cr2, {0}
    4110:	00009dfc 	strdeq	r9, [r0], -ip
    4114:	000003e6 	andeq	r0, r0, r6, ror #7
    4118:	0251010b 	subseq	r0, r1, #-1073741822	; 0xc0000002
    411c:	00000074 	andeq	r0, r0, r4, ror r0
    4120:	000b800c 	andeq	r8, fp, ip
    4124:	25740100 	ldrbcs	r0, [r4, #-256]!	; 0x100
    4128:	04000000 	streq	r0, [r0], #-0
    412c:	0c00009e 	stceq	0, cr0, [r0], {158}	; 0x9e
    4130:	01000000 	mrseq	r0, (UNDEF: 0)
    4134:	0002949c 	muleq	r2, ip, r4
    4138:	9e0c0800 	cdpls	8, 0, cr0, cr12, cr0, {0}
    413c:	00bd0000 	adcseq	r0, sp, r0
    4140:	0c000000 	stceq	0, cr0, [r0], {-0}
    4144:	00000c22 	andeq	r0, r0, r2, lsr #24
    4148:	00257801 	eoreq	r7, r5, r1, lsl #16
    414c:	9e100000 	cdpls	0, 1, cr0, cr0, cr0, {0}
    4150:	00200000 	eoreq	r0, r0, r0
    4154:	9c010000 	stcls	0, cr0, [r1], {-0}
    4158:	000002c0 	andeq	r0, r0, r0, asr #5
    415c:	009e1808 	addseq	r1, lr, r8, lsl #16
    4160:	00027100 	andeq	r7, r2, r0, lsl #2
    4164:	9e240800 	cdpls	8, 2, cr0, cr4, cr0, {0}
    4168:	01e60000 	mvneq	r0, r0
    416c:	0f000000 	svceq	0x00000000
    4170:	00000bcd 	andeq	r0, r0, sp, asr #23
    4174:	02d11601 	sbcseq	r1, r1, #1048576	; 0x100000
    4178:	03050000 	movweq	r0, #20480	; 0x5000
    417c:	00009ed8 	ldrdeq	r9, [r0], -r8
    4180:	02d70410 	sbcseq	r0, r7, #16, 8	; 0x10000000
    4184:	2c110000 	ldccs	0, cr0, [r1], {-0}
    4188:	0f000000 	svceq	0x00000000
    418c:	00000bc1 	andeq	r0, r0, r1, asr #23
    4190:	02d11701 	sbcseq	r1, r1, #262144	; 0x40000
    4194:	03050000 	movweq	r0, #20480	; 0x5000
    4198:	00009eac 	andeq	r9, r0, ip, lsr #29
    419c:	000b450f 	andeq	r4, fp, pc, lsl #10
    41a0:	d11a0100 	tstle	sl, r0, lsl #2
    41a4:	05000002 	streq	r0, [r0, #-2]
    41a8:	009ec403 	addseq	ip, lr, r3, lsl #8
    41ac:	0b950f00 	bleq	fe547db4 <__bss_end__+0xfe53b4fc>
    41b0:	1b010000 	blne	441b8 <__bss_end__+0x37900>
    41b4:	000002d1 	ldrdeq	r0, [r0], -r1
    41b8:	9eb40305 	cdpls	3, 11, cr0, cr4, cr5, {0}
    41bc:	a40f0000 	strge	r0, [pc], #-0	; 41c4 <_start-0x3e3c>
    41c0:	0100000b 	tsteq	r0, fp
    41c4:	0002d11c 	andeq	sp, r2, ip, lsl r1
    41c8:	b8030500 	stmdalt	r3, {r8, sl}
    41cc:	0f00009e 	svceq	0x0000009e
    41d0:	00000c04 	andeq	r0, r0, r4, lsl #24
    41d4:	02d11d01 	sbcseq	r1, r1, #1, 26	; 0x40
    41d8:	03050000 	movweq	r0, #20480	; 0x5000
    41dc:	00009ebc 			; <UNDEFINED> instruction: 0x00009ebc
    41e0:	000b360f 	andeq	r3, fp, pc, lsl #12
    41e4:	d11e0100 	tstle	lr, r0, lsl #2
    41e8:	05000002 	streq	r0, [r0, #-2]
    41ec:	009ed403 	addseq	sp, lr, r3, lsl #8
    41f0:	0c130f00 	ldceq	15, cr0, [r3], {-0}
    41f4:	1f010000 	svcne	0x00010000
    41f8:	000002d1 	ldrdeq	r0, [r0], -r1
    41fc:	9ea80305 	cdpls	3, 10, cr0, cr8, cr5, {0}
    4200:	530f0000 	movwpl	r0, #61440	; 0xf000
    4204:	0100000b 	tsteq	r0, fp
    4208:	0002d120 	andeq	sp, r2, r0, lsr #2
    420c:	d0030500 	andle	r0, r3, r0, lsl #10
    4210:	0f00009e 	svceq	0x0000009e
    4214:	00000bf5 	strdeq	r0, [r0], -r5
    4218:	02d12101 	sbcseq	r2, r1, #1073741824	; 0x40000000
    421c:	03050000 	movweq	r0, #20480	; 0x5000
    4220:	00009ecc 	andeq	r9, r0, ip, asr #29
    4224:	000b700f 	andeq	r7, fp, pc
    4228:	d1220100 	teqle	r2, r0, lsl #2
    422c:	05000002 	streq	r0, [r0, #-2]
    4230:	009eb003 	addseq	fp, lr, r3
    4234:	0be50f00 	bleq	ff947e3c <__bss_end__+0xff93b584>
    4238:	23010000 	movwcs	r0, #4096	; 0x1000
    423c:	000002d1 	ldrdeq	r0, [r0], -r1
    4240:	9ec80305 	cdpls	3, 12, cr0, cr8, cr5, {0}
    4244:	d50f0000 	strle	r0, [pc, #-0]	; 424c <_start-0x3db4>
    4248:	0100000b 	tsteq	r0, fp
    424c:	0002d124 	andeq	sp, r2, r4, lsr #2
    4250:	c0030500 	andgt	r0, r3, r0, lsl #10
    4254:	1200009e 	andne	r0, r0, #158	; 0x9e
    4258:	0000094b 	andeq	r0, r0, fp, asr #18
    425c:	002ca103 	eoreq	sl, ip, r3, lsl #2
    4260:	03bd0000 			; <UNDEFINED> instruction: 0x03bd0000
    4264:	bd130000 	ldclt	0, cr0, [r3, #-0]
    4268:	00000003 	andeq	r0, r0, r3
    426c:	03c30410 	biceq	r0, r3, #16, 8	; 0x10000000
    4270:	c8140000 	ldmdagt	r4, {}	; <UNPREDICTABLE>
    4274:	15000003 	strne	r0, [r0, #-3]
    4278:	00088c16 	andeq	r8, r8, r6, lsl ip
    427c:	17840300 	strne	r0, [r4, r0, lsl #6]
    4280:	000008bf 			; <UNDEFINED> instruction: 0x000008bf
    4284:	03e61902 	mvneq	r1, #32768	; 0x8000
    4288:	2c130000 	ldccs	0, cr0, [r3], {-0}
    428c:	13000000 	movwne	r0, #0
    4290:	000000b2 	strheq	r0, [r0], -r2
    4294:	07e61700 	strbeq	r1, [r6, r0, lsl #14]!
    4298:	95030000 	strls	r0, [r3, #-0]
    429c:	000003fc 	strdeq	r0, [r0], -ip
    42a0:	0003fc13 	andeq	pc, r3, r3, lsl ip	; <UNPREDICTABLE>
    42a4:	002c1300 	eoreq	r1, ip, r0, lsl #6
    42a8:	10000000 	andne	r0, r0, r0
    42ac:	0003c804 	andeq	ip, r3, r4, lsl #16
    42b0:	00e00000 	rsceq	r0, r0, r0
    42b4:	00040000 	andeq	r0, r4, r0
    42b8:	000012a5 	andeq	r1, r0, r5, lsr #5
    42bc:	03970104 	orrseq	r0, r7, #4, 2
    42c0:	43010000 	movwmi	r0, #4096	; 0x1000
    42c4:	3500000c 	strcc	r0, [r0, #-12]
    42c8:	30000005 	andcc	r0, r0, r5
    42cc:	1400009e 	strne	r0, [r0], #-158	; 0x9e
    42d0:	35000000 	strcc	r0, [r0, #-0]
    42d4:	02000010 	andeq	r0, r0, #16
    42d8:	6e690504 	cdpvs	5, 6, cr0, cr9, cr4, {0}
    42dc:	04030074 	streq	r0, [r3], #-116	; 0x74
    42e0:	00008807 	andeq	r8, r0, r7, lsl #16
    42e4:	06010300 	streq	r0, [r1], -r0, lsl #6
    42e8:	000002cd 	andeq	r0, r0, sp, asr #5
    42ec:	d9050203 	stmdble	r5, {r0, r1, r9}
    42f0:	03000002 	movweq	r0, #2
    42f4:	00c70504 	sbceq	r0, r7, r4, lsl #10
    42f8:	08030000 	stmdaeq	r3, {}	; <UNPREDICTABLE>
    42fc:	0000c205 	andeq	ip, r0, r5, lsl #4
    4300:	08010300 	stmdaeq	r1, {r8, r9}
    4304:	000002cb 	andeq	r0, r0, fp, asr #5
    4308:	b2070203 	andlt	r0, r7, #805306368	; 0x30000000
    430c:	03000001 	movweq	r0, #1
    4310:	00830704 	addeq	r0, r3, r4, lsl #14
    4314:	08030000 	stmdaeq	r3, {}	; <UNPREDICTABLE>
    4318:	00007e07 	andeq	r7, r0, r7, lsl #28
    431c:	07040300 	streq	r0, [r4, -r0, lsl #6]
    4320:	0000023a 	andeq	r0, r0, sl, lsr r2
    4324:	d4080103 	strle	r0, [r8], #-259	; 0x103
    4328:	04000002 	streq	r0, [r0], #-2
    432c:	00000c32 	andeq	r0, r0, r2, lsr ip
    4330:	00250301 	eoreq	r0, r5, r1, lsl #6
    4334:	9e300000 	cdpls	0, 3, cr0, cr0, cr0, {0}
    4338:	00140000 	andseq	r0, r4, r0
    433c:	9c010000 	stcls	0, cr0, [r1], {-0}
    4340:	000000b0 	strheq	r0, [r0], -r0	; <UNPREDICTABLE>
    4344:	01006305 	tsteq	r0, r5, lsl #6
    4348:	00002503 	andeq	r2, r0, r3, lsl #10
    434c:	00285a00 	eoreq	r5, r8, r0, lsl #20
    4350:	9e3c0600 	cfmsuba32ls	mvax0, mvax0, mvfx12, mvfx0
    4354:	00d60000 	sbcseq	r0, r6, r0
    4358:	01070000 	mrseq	r0, (UNDEF: 7)
    435c:	00740250 	rsbseq	r0, r4, r0, asr r2
    4360:	25080000 	strcs	r0, [r8, #-0]
    4364:	bf000000 	svclt	0x00000000
    4368:	09000000 	stmdbeq	r0, {}	; <UNPREDICTABLE>
    436c:	00000025 	andeq	r0, r0, r5, lsr #32
    4370:	061b0a00 	ldreq	r0, [fp], -r0, lsl #20
    4374:	06010000 	streq	r0, [r1], -r0
    4378:	000000d0 	ldrdeq	r0, [r0], -r0	; <UNPREDICTABLE>
    437c:	9edc0305 	cdpls	3, 13, cr0, cr12, cr5, {0}
    4380:	040b0000 	streq	r0, [fp], #-0
    4384:	000000b0 	strheq	r0, [r0], -r0	; <UNPREDICTABLE>
    4388:	0001e90c 	andeq	lr, r1, ip, lsl #18
    438c:	093a0200 	ldmdbeq	sl!, {r9}
    4390:	0000002c 	andeq	r0, r0, ip, lsr #32
	...

Disassembly of section .debug_abbrev:

00000000 <.debug_abbrev>:
       0:	25011101 	strcs	r1, [r1, #-257]	; 0x101
       4:	030b130e 	movweq	r1, #45838	; 0xb30e
       8:	110e1b0e 	tstne	lr, lr, lsl #22
       c:	10061201 	andne	r1, r6, r1, lsl #4
      10:	02000017 	andeq	r0, r0, #23
      14:	0b0b0024 	bleq	2c00ac <__bss_end__+0x2b37f4>
      18:	08030b3e 	stmdaeq	r3, {r1, r2, r3, r4, r5, r8, r9, fp}
      1c:	24030000 	strcs	r0, [r3], #-0
      20:	3e0b0b00 	vmlacc.f64	d0, d11, d0
      24:	000e030b 	andeq	r0, lr, fp, lsl #6
      28:	00160400 	andseq	r0, r6, r0, lsl #8
      2c:	0b3a0e03 	bleq	e83840 <__bss_end__+0xe76f88>
      30:	13490b3b 	movtne	r0, #39739	; 0x9b3b
      34:	0f050000 	svceq	0x00050000
      38:	000b0b00 	andeq	r0, fp, r0, lsl #22
      3c:	000f0600 	andeq	r0, pc, r0, lsl #12
      40:	13490b0b 	movtne	r0, #39691	; 0x9b0b
      44:	26070000 	strcs	r0, [r7], -r0
      48:	00134900 	andseq	r4, r3, r0, lsl #18
      4c:	01040800 	tsteq	r4, r0, lsl #16
      50:	0b3a0b0b 	bleq	e82c84 <__bss_end__+0xe763cc>
      54:	13010b3b 	movwne	r0, #6971	; 0x1b3b
      58:	28090000 	stmdacs	r9, {}	; <UNPREDICTABLE>
      5c:	1c0e0300 	stcne	3, cr0, [lr], {-0}
      60:	0a00000d 	beq	9c <_start-0x7f64>
      64:	050b0113 	streq	r0, [fp, #-275]	; 0x113
      68:	0b3b0b3a 	bleq	ec2d58 <__bss_end__+0xeb64a0>
      6c:	00001301 	andeq	r1, r0, r1, lsl #6
      70:	03000d0b 	movweq	r0, #3339	; 0xd0b
      74:	3b0b3a0e 	blcc	2ce8b4 <__bss_end__+0x2c1ffc>
      78:	3813490b 	ldmdacc	r3, {r0, r1, r3, r8, fp, lr}
      7c:	0c00000b 	stceq	0, cr0, [r0], {11}
      80:	0e03000d 	cdpeq	0, 0, cr0, cr3, cr13, {0}
      84:	0b3b0b3a 	bleq	ec2d74 <__bss_end__+0xeb64bc>
      88:	05381349 	ldreq	r1, [r8, #-841]!	; 0x349
      8c:	0d0d0000 	stceq	0, cr0, [sp, #-0]
      90:	3a0e0300 	bcc	380c98 <__bss_end__+0x3743e0>
      94:	490b3b0b 	stmdbmi	fp, {r0, r1, r3, r8, r9, fp, ip, sp}
      98:	0d0b0b13 	vstreq	d0, [fp, #-76]	; 0xffffffb4
      9c:	380b0c0b 	stmdacc	fp, {r0, r1, r3, sl, fp}
      a0:	0e000005 	cdpeq	0, 0, cr0, cr0, cr5, {0}
      a4:	13490101 	movtne	r0, #37121	; 0x9101
      a8:	00001301 	andeq	r1, r0, r1, lsl #6
      ac:	4900210f 	stmdbmi	r0, {r0, r1, r2, r3, r8, sp}
      b0:	00052f13 	andeq	r2, r5, r3, lsl pc
      b4:	00351000 	eorseq	r1, r5, r0
      b8:	00001349 	andeq	r1, r0, r9, asr #6
      bc:	0b011311 	bleq	44d08 <__bss_end__+0x38450>
      c0:	3b0b3a0b 	blcc	2ce8f4 <__bss_end__+0x2c203c>
      c4:	0013010b 	andseq	r0, r3, fp, lsl #2
      c8:	000d1200 	andeq	r1, sp, r0, lsl #4
      cc:	0b3a0803 	bleq	e820e0 <__bss_end__+0xe75828>
      d0:	13490b3b 	movtne	r0, #39739	; 0x9b3b
      d4:	00000b38 	andeq	r0, r0, r8, lsr fp
      d8:	03011313 	movweq	r1, #4883	; 0x1313
      dc:	3a0b0b0e 	bcc	2c2d1c <__bss_end__+0x2b6464>
      e0:	010b3b0b 	tsteq	fp, fp, lsl #22
      e4:	14000013 	strne	r0, [r0], #-19
      e8:	0e03000d 	cdpeq	0, 0, cr0, cr3, cr13, {0}
      ec:	0b381349 	bleq	e04e18 <__bss_end__+0xdf8560>
      f0:	00001934 	andeq	r1, r0, r4, lsr r9
      f4:	03012e15 	movweq	r2, #7701	; 0x1e15
      f8:	3b0b3a0e 	blcc	2ce938 <__bss_end__+0x2c2080>
      fc:	4919270b 	ldmdbmi	r9, {r0, r1, r3, r8, r9, sl, sp}
     100:	010b2013 	tsteq	fp, r3, lsl r0
     104:	16000013 			; <UNDEFINED> instruction: 0x16000013
     108:	08030005 	stmdaeq	r3, {r0, r2}
     10c:	0b3b0b3a 	bleq	ec2dfc <__bss_end__+0xeb6544>
     110:	00001349 	andeq	r1, r0, r9, asr #6
     114:	03012e17 	movweq	r2, #7703	; 0x1e17
     118:	3b0b3a0e 	blcc	2ce958 <__bss_end__+0x2c20a0>
     11c:	2019270b 	andscs	r2, r9, fp, lsl #14
     120:	0013010b 	andseq	r0, r3, fp, lsl #2
     124:	00051800 	andeq	r1, r5, r0, lsl #16
     128:	0b3a0e03 	bleq	e8393c <__bss_end__+0xe77084>
     12c:	13490b3b 	movtne	r0, #39739	; 0x9b3b
     130:	0b190000 	bleq	640138 <__bss_end__+0x633880>
     134:	1a000001 	bne	140 <_start-0x7ec0>
     138:	0e030034 	mcreq	0, 0, r0, cr3, cr4, {1}
     13c:	0b3b0b3a 	bleq	ec2e2c <__bss_end__+0xeb6574>
     140:	00001349 	andeq	r1, r0, r9, asr #6
     144:	3f012e1b 	svccc	0x00012e1b
     148:	3a0e0319 	bcc	380db4 <__bss_end__+0x3744fc>
     14c:	270b3b0b 	strcs	r3, [fp, -fp, lsl #22]
     150:	12011119 	andne	r1, r1, #1073741830	; 0x40000006
     154:	97184006 	ldrls	r4, [r8, -r6]
     158:	13011942 	movwne	r1, #6466	; 0x1942
     15c:	051c0000 	ldreq	r0, [ip, #-0]
     160:	3a0e0300 	bcc	380d68 <__bss_end__+0x3744b0>
     164:	490b3b0b 	stmdbmi	fp, {r0, r1, r3, r8, r9, fp, ip, sp}
     168:	00170213 	andseq	r0, r7, r3, lsl r2
     16c:	00051d00 	andeq	r1, r5, r0, lsl #26
     170:	0b3a0803 	bleq	e82184 <__bss_end__+0xe758cc>
     174:	13490b3b 	movtne	r0, #39739	; 0x9b3b
     178:	00001702 	andeq	r1, r0, r2, lsl #14
     17c:	0300341e 	movweq	r3, #1054	; 0x41e
     180:	3b0b3a08 	blcc	2ce9a8 <__bss_end__+0x2c20f0>
     184:	0213490b 	andseq	r4, r3, #180224	; 0x2c000
     188:	1f000018 	svcne	0x00000018
     18c:	08030034 	stmdaeq	r3, {r2, r4, r5}
     190:	0b3b0b3a 	bleq	ec2e80 <__bss_end__+0xeb65c8>
     194:	17021349 	strne	r1, [r2, -r9, asr #6]
     198:	34200000 	strtcc	r0, [r0], #-0
     19c:	3a080300 	bcc	200da4 <__bss_end__+0x1f44ec>
     1a0:	490b3b0b 	stmdbmi	fp, {r0, r1, r3, r8, r9, fp, ip, sp}
     1a4:	21000013 	tstcs	r0, r3, lsl r0
     1a8:	0e030034 	mcreq	0, 0, r0, cr3, cr4, {1}
     1ac:	0b3b0b3a 	bleq	ec2e9c <__bss_end__+0xeb65e4>
     1b0:	18021349 	stmdane	r2, {r0, r3, r6, r8, r9, ip}
     1b4:	0b220000 	bleq	8801bc <__bss_end__+0x873904>
     1b8:	12011101 	andne	r1, r1, #1073741824	; 0x40000000
     1bc:	00130106 	andseq	r0, r3, r6, lsl #2
     1c0:	011d2300 	tsteq	sp, r0, lsl #6
     1c4:	01111331 	tsteq	r1, r1, lsr r3
     1c8:	0b580612 	bleq	1601a18 <__bss_end__+0x15f5160>
     1cc:	13010b59 	movwne	r0, #7001	; 0x1b59
     1d0:	05240000 	streq	r0, [r4, #-0]!
     1d4:	02133100 	andseq	r3, r3, #0, 2
     1d8:	25000017 	strcs	r0, [r0, #-23]
     1dc:	13310005 	teqne	r1, #5
     1e0:	00001802 	andeq	r1, r0, r2, lsl #16
     1e4:	31000526 	tstcc	r0, r6, lsr #10
     1e8:	000b1c13 	andeq	r1, fp, r3, lsl ip
     1ec:	010b2700 	tsteq	fp, r0, lsl #14
     1f0:	06120111 			; <UNDEFINED> instruction: 0x06120111
     1f4:	34280000 	strtcc	r0, [r8], #-0
     1f8:	02133100 	andseq	r3, r3, #0, 2
     1fc:	29000017 	stmdbcs	r0, {r0, r1, r2, r4}
     200:	01018289 	smlabbeq	r1, r9, r2, r8
     204:	13310111 	teqne	r1, #1073741828	; 0x40000004
     208:	8a2a0000 	bhi	a80210 <__bss_end__+0xa73958>
     20c:	02000182 	andeq	r0, r0, #-2147483616	; 0x80000020
     210:	18429118 	stmdane	r2, {r3, r4, r8, ip, pc}^
     214:	1d2b0000 	stcne	0, cr0, [fp, #-0]
     218:	11133101 	tstne	r3, r1, lsl #2
     21c:	58061201 	stmdapl	r6, {r0, r9, ip}
     220:	000b590b 	andeq	r5, fp, fp, lsl #18
     224:	012e2c00 	teqeq	lr, r0, lsl #24
     228:	0e03193f 	mcreq	9, 0, r1, cr3, cr15, {1}
     22c:	0b3b0b3a 	bleq	ec2f1c <__bss_end__+0xeb6664>
     230:	13491927 	movtne	r1, #39207	; 0x9927
     234:	06120111 			; <UNDEFINED> instruction: 0x06120111
     238:	42971840 	addsmi	r1, r7, #64, 16	; 0x400000
     23c:	00130119 	andseq	r0, r3, r9, lsl r1
     240:	00342d00 	eorseq	r2, r4, r0, lsl #26
     244:	0b3a0e03 	bleq	e83a58 <__bss_end__+0xe771a0>
     248:	13490b3b 	movtne	r0, #39739	; 0x9b3b
     24c:	00001702 	andeq	r1, r0, r2, lsl #14
     250:	3100052e 	tstcc	r0, lr, lsr #10
     254:	2f000013 	svccs	0x00000013
     258:	13310034 	teqne	r1, #52	; 0x34
     25c:	00001802 	andeq	r1, r0, r2, lsl #16
     260:	01828930 	orreq	r8, r2, r0, lsr r9
     264:	31011100 	mrscc	r1, (UNDEF: 17)
     268:	31000013 	tstcc	r0, r3, lsl r0
     26c:	01018289 	smlabbeq	r1, r9, r2, r8
     270:	13310111 	teqne	r1, #1073741828	; 0x40000004
     274:	00001301 	andeq	r1, r0, r1, lsl #6
     278:	03000532 	movweq	r0, #1330	; 0x532
     27c:	3b0b3a0e 	blcc	2ceabc <__bss_end__+0x2c2204>
     280:	0213490b 	andseq	r4, r3, #180224	; 0x2c000
     284:	33000018 	movwcc	r0, #24
     288:	0e030034 	mcreq	0, 0, r0, cr3, cr4, {1}
     28c:	19341349 	ldmdbne	r4!, {r0, r3, r6, r8, r9, ip}
     290:	00001802 	andeq	r1, r0, r2, lsl #16
     294:	49002134 	stmdbmi	r0, {r2, r4, r5, r8, sp}
     298:	000b2f13 	andeq	r2, fp, r3, lsl pc
     29c:	00343500 	eorseq	r3, r4, r0, lsl #10
     2a0:	0b3a0803 	bleq	e822b4 <__bss_end__+0xe759fc>
     2a4:	13490b3b 	movtne	r0, #39739	; 0x9b3b
     2a8:	0000061c 	andeq	r0, r0, ip, lsl r6
     2ac:	03003436 	movweq	r3, #1078	; 0x436
     2b0:	3b0b3a08 	blcc	2cead8 <__bss_end__+0x2c2220>
     2b4:	1c13490b 	ldcne	9, cr4, [r3], {11}
     2b8:	3700000b 	strcc	r0, [r0, -fp]
     2bc:	08030005 	stmdaeq	r3, {r0, r2}
     2c0:	0b3b0b3a 	bleq	ec2fb0 <__bss_end__+0xeb66f8>
     2c4:	18021349 	stmdane	r2, {r0, r3, r6, r8, r9, ip}
     2c8:	18380000 	ldmdane	r8!, {}	; <UNPREDICTABLE>
     2cc:	39000000 	stmdbcc	r0, {}	; <UNPREDICTABLE>
     2d0:	1331011d 	teqne	r1, #1073741831	; 0x40000007
     2d4:	17550152 			; <UNDEFINED> instruction: 0x17550152
     2d8:	0b590b58 	bleq	1643040 <__bss_end__+0x1636788>
     2dc:	00001301 	andeq	r1, r0, r1, lsl #6
     2e0:	3f012e3a 	svccc	0x00012e3a
     2e4:	3a0e0319 	bcc	380f50 <__bss_end__+0x374698>
     2e8:	11053b0b 	tstne	r5, fp, lsl #22
     2ec:	40061201 	andmi	r1, r6, r1, lsl #4
     2f0:	19429718 	stmdbne	r2, {r3, r4, r8, r9, sl, ip, pc}^
     2f4:	00001301 	andeq	r1, r0, r1, lsl #6
     2f8:	0300343b 	movweq	r3, #1083	; 0x43b
     2fc:	3b0b3a08 	blcc	2ceb24 <__bss_end__+0x2c226c>
     300:	1c134905 	ldcne	9, cr4, [r3], {5}
     304:	3c00000b 	stccc	0, cr0, [r0], {11}
     308:	08030034 	stmdaeq	r3, {r2, r4, r5}
     30c:	053b0b3a 	ldreq	r0, [fp, #-2874]!	; 0xb3a
     310:	00001349 	andeq	r1, r0, r9, asr #6
     314:	0300343d 	movweq	r3, #1085	; 0x43d
     318:	3b0b3a0e 	blcc	2ceb58 <__bss_end__+0x2c22a0>
     31c:	3f13490b 	svccc	0x0013490b
     320:	00180219 	andseq	r0, r8, r9, lsl r2
     324:	012e3e00 	teqeq	lr, r0, lsl #28
     328:	0e03193f 	mcreq	9, 0, r1, cr3, cr15, {1}
     32c:	0b3b0b3a 	bleq	ec301c <__bss_end__+0xeb6764>
     330:	193c1927 	ldmdbne	ip!, {r0, r1, r2, r5, r8, fp, ip}
     334:	00001301 	andeq	r1, r0, r1, lsl #6
     338:	4900053f 	stmdbmi	r0, {r0, r1, r2, r3, r4, r5, r8, sl}
     33c:	40000013 	andmi	r0, r0, r3, lsl r0
     340:	193f002e 	ldmdbne	pc!, {r1, r2, r3, r5}	; <UNPREDICTABLE>
     344:	0b3a0e03 	bleq	e83b58 <__bss_end__+0xe772a0>
     348:	19270b3b 	stmdbne	r7!, {r0, r1, r3, r4, r5, r8, r9, fp}
     34c:	193c1349 	ldmdbne	ip!, {r0, r3, r6, r8, r9, ip}
     350:	2e410000 	cdpcs	0, 4, cr0, cr1, cr0, {0}
     354:	03193f01 	tsteq	r9, #1, 30
     358:	3b0b3a0e 	blcc	2ceb98 <__bss_end__+0x2c22e0>
     35c:	4919270b 	ldmdbmi	r9, {r0, r1, r3, r8, r9, sl, sp}
     360:	01193c13 	tsteq	r9, r3, lsl ip
     364:	42000013 	andmi	r0, r0, #19
     368:	193f002e 	ldmdbne	pc!, {r1, r2, r3, r5}	; <UNPREDICTABLE>
     36c:	0b3a0e03 	bleq	e83b80 <__bss_end__+0xe772c8>
     370:	19270b3b 	stmdbne	r7!, {r0, r1, r3, r4, r5, r8, r9, fp}
     374:	0000193c 	andeq	r1, r0, ip, lsr r9
     378:	01110100 	tsteq	r1, r0, lsl #2
     37c:	0b130e25 	bleq	4c3c18 <__bss_end__+0x4b7360>
     380:	0e1b0e03 	cdpeq	14, 1, cr0, cr11, cr3, {0}
     384:	06120111 			; <UNDEFINED> instruction: 0x06120111
     388:	00001710 	andeq	r1, r0, r0, lsl r7
     38c:	0b002402 	bleq	939c <delay_cycles+0x10>
     390:	030b3e0b 	movweq	r3, #48651	; 0xbe0b
     394:	03000008 	movweq	r0, #8
     398:	0e030016 	mcreq	0, 0, r0, cr3, cr6, {0}
     39c:	0b3b0b3a 	bleq	ec308c <__bss_end__+0xeb67d4>
     3a0:	00001349 	andeq	r1, r0, r9, asr #6
     3a4:	0b002404 	bleq	93bc <timer_get_usec>
     3a8:	030b3e0b 	movweq	r3, #48651	; 0xbe0b
     3ac:	0500000e 	streq	r0, [r0, #-14]
     3b0:	0b0b000f 	bleq	2c03f4 <__bss_end__+0x2b3b3c>
     3b4:	0f060000 	svceq	0x00060000
     3b8:	490b0b00 	stmdbmi	fp, {r8, r9, fp}
     3bc:	07000013 	smladeq	r0, r3, r0, r0
     3c0:	13490026 	movtne	r0, #36902	; 0x9026
     3c4:	01080000 	mrseq	r0, (UNDEF: 8)
     3c8:	01134901 	tsteq	r3, r1, lsl #18
     3cc:	09000013 	stmdbeq	r0, {r0, r1, r4}
     3d0:	13490021 	movtne	r0, #36897	; 0x9021
     3d4:	00000b2f 	andeq	r0, r0, pc, lsr #22
     3d8:	0b01130a 	bleq	45008 <__bss_end__+0x38750>
     3dc:	3b0b3a05 	blcc	2cebf8 <__bss_end__+0x2c2340>
     3e0:	0013010b 	andseq	r0, r3, fp, lsl #2
     3e4:	000d0b00 	andeq	r0, sp, r0, lsl #22
     3e8:	0b3a0e03 	bleq	e83bfc <__bss_end__+0xe77344>
     3ec:	13490b3b 	movtne	r0, #39739	; 0x9b3b
     3f0:	00000b38 	andeq	r0, r0, r8, lsr fp
     3f4:	03000d0c 	movweq	r0, #3340	; 0xd0c
     3f8:	3b0b3a0e 	blcc	2cec38 <__bss_end__+0x2c2380>
     3fc:	3813490b 	ldmdacc	r3, {r0, r1, r3, r8, fp, lr}
     400:	0d000005 	stceq	0, cr0, [r0, #-20]	; 0xffffffec
     404:	0e03000d 	cdpeq	0, 0, cr0, cr3, cr13, {0}
     408:	0b3b0b3a 	bleq	ec30f8 <__bss_end__+0xeb6840>
     40c:	0b0b1349 	bleq	2c5138 <__bss_end__+0x2b8880>
     410:	0b0c0b0d 	bleq	30304c <__bss_end__+0x2f6794>
     414:	00000538 	andeq	r0, r0, r8, lsr r5
     418:	4900210e 	stmdbmi	r0, {r1, r2, r3, r8, sp}
     41c:	00052f13 	andeq	r2, r5, r3, lsl pc
     420:	00350f00 	eorseq	r0, r5, r0, lsl #30
     424:	00001349 	andeq	r1, r0, r9, asr #6
     428:	03012e10 	movweq	r2, #7696	; 0x1e10
     42c:	3b0b3a0e 	blcc	2cec6c <__bss_end__+0x2c23b4>
     430:	4919270b 	ldmdbmi	r9, {r0, r1, r3, r8, r9, sl, sp}
     434:	010b2013 	tsteq	fp, r3, lsl r0
     438:	11000013 	tstne	r0, r3, lsl r0
     43c:	08030005 	stmdaeq	r3, {r0, r2}
     440:	0b3b0b3a 	bleq	ec3130 <__bss_end__+0xeb6878>
     444:	00001349 	andeq	r1, r0, r9, asr #6
     448:	03003412 	movweq	r3, #1042	; 0x412
     44c:	3b0b3a0e 	blcc	2cec8c <__bss_end__+0x2c23d4>
     450:	0013490b 	andseq	r4, r3, fp, lsl #18
     454:	012e1300 	teqeq	lr, r0, lsl #6
     458:	0e03193f 	mcreq	9, 0, r1, cr3, cr15, {1}
     45c:	0b3b0b3a 	bleq	ec314c <__bss_end__+0xeb6894>
     460:	01111927 	tsteq	r1, r7, lsr #18
     464:	18400612 	stmdane	r0, {r1, r4, r9, sl}^
     468:	01194297 			; <UNDEFINED> instruction: 0x01194297
     46c:	14000013 	strne	r0, [r0], #-19
     470:	08030005 	stmdaeq	r3, {r0, r2}
     474:	0b3b0b3a 	bleq	ec3164 <__bss_end__+0xeb68ac>
     478:	17021349 	strne	r1, [r2, -r9, asr #6]
     47c:	34150000 	ldrcc	r0, [r5], #-0
     480:	490e0300 	stmdbmi	lr, {r8, r9}
     484:	02193413 	andseq	r3, r9, #318767104	; 0x13000000
     488:	16000018 			; <UNDEFINED> instruction: 0x16000018
     48c:	1331011d 	teqne	r1, #1073741831	; 0x40000007
     490:	06120111 			; <UNDEFINED> instruction: 0x06120111
     494:	0b590b58 	bleq	16431fc <__bss_end__+0x1636944>
     498:	00001301 	andeq	r1, r0, r1, lsl #6
     49c:	31000517 	tstcc	r0, r7, lsl r5
     4a0:	00170213 	andseq	r0, r7, r3, lsl r2
     4a4:	82891800 	addhi	r1, r9, #0, 16
     4a8:	01110101 	tsteq	r1, r1, lsl #2
     4ac:	00001331 	andeq	r1, r0, r1, lsr r3
     4b0:	01828a19 	orreq	r8, r2, r9, lsl sl
     4b4:	91180200 	tstls	r8, r0, lsl #4
     4b8:	00001842 	andeq	r1, r0, r2, asr #16
     4bc:	0182891a 	orreq	r8, r2, sl, lsl r9
     4c0:	31011101 	tstcc	r1, r1, lsl #2
     4c4:	00130113 	andseq	r0, r3, r3, lsl r1
     4c8:	82891b00 	addhi	r1, r9, #0, 22
     4cc:	01110001 	tsteq	r1, r1
     4d0:	00001331 	andeq	r1, r0, r1, lsr r3
     4d4:	0300051c 	movweq	r0, #1308	; 0x51c
     4d8:	3b0b3a0e 	blcc	2ced18 <__bss_end__+0x2c2460>
     4dc:	0213490b 	andseq	r4, r3, #180224	; 0x2c000
     4e0:	1d000017 	stcne	0, cr0, [r0, #-92]	; 0xffffffa4
     4e4:	08030034 	stmdaeq	r3, {r2, r4, r5}
     4e8:	0b3b0b3a 	bleq	ec31d8 <__bss_end__+0xeb6920>
     4ec:	17021349 	strne	r1, [r2, -r9, asr #6]
     4f0:	051e0000 	ldreq	r0, [lr, #-0]
     4f4:	02133100 	andseq	r3, r3, #0, 2
     4f8:	1f000018 	svcne	0x00000018
     4fc:	1331011d 	teqne	r1, #1073741831	; 0x40000007
     500:	17550152 			; <UNDEFINED> instruction: 0x17550152
     504:	0b590b58 	bleq	164326c <__bss_end__+0x16369b4>
     508:	00001301 	andeq	r1, r0, r1, lsl #6
     50c:	55010b20 	strpl	r0, [r1, #-2848]	; 0xb20
     510:	21000017 	tstcs	r0, r7, lsl r0
     514:	13310034 	teqne	r1, #52	; 0x34
     518:	00001702 	andeq	r1, r0, r2, lsl #14
     51c:	31011d22 	tstcc	r1, r2, lsr #26
     520:	12011113 	andne	r1, r1, #-1073741820	; 0xc0000004
     524:	590b5806 	stmdbpl	fp, {r1, r2, fp, ip, lr}
     528:	2300000b 	movwcs	r0, #11
     52c:	193f012e 	ldmdbne	pc!, {r1, r2, r3, r5, r8}	; <UNPREDICTABLE>
     530:	0b3a0e03 	bleq	e83d44 <__bss_end__+0xe7748c>
     534:	19270b3b 	stmdbne	r7!, {r0, r1, r3, r4, r5, r8, r9, fp}
     538:	01111349 	tsteq	r1, r9, asr #6
     53c:	18400612 	stmdane	r0, {r1, r4, r9, sl}^
     540:	01194297 			; <UNDEFINED> instruction: 0x01194297
     544:	24000013 	strcs	r0, [r0], #-19
     548:	0111010b 	tsteq	r1, fp, lsl #2
     54c:	00000612 	andeq	r0, r0, r2, lsl r6
     550:	31011d25 	tstcc	r1, r5, lsr #26
     554:	55015213 	strpl	r5, [r1, #-531]	; 0x213
     558:	590b5817 	stmdbpl	fp, {r0, r1, r2, r4, fp, ip, lr}
     55c:	2600000b 	strcs	r0, [r0], -fp
     560:	08030034 	stmdaeq	r3, {r2, r4, r5}
     564:	0b3b0b3a 	bleq	ec3254 <__bss_end__+0xeb699c>
     568:	18021349 	stmdane	r2, {r0, r3, r6, r8, r9, ip}
     56c:	34270000 	strtcc	r0, [r7], #-0
     570:	3a0e0300 	bcc	381178 <__bss_end__+0x3748c0>
     574:	490b3b0b 	stmdbmi	fp, {r0, r1, r3, r8, r9, fp, ip, sp}
     578:	00170213 	andseq	r0, r7, r3, lsl r2
     57c:	010b2800 	tsteq	fp, r0, lsl #16
     580:	06120111 			; <UNDEFINED> instruction: 0x06120111
     584:	00001301 	andeq	r1, r0, r1, lsl #6
     588:	3f012e29 	svccc	0x00012e29
     58c:	3a0e0319 	bcc	3811f8 <__bss_end__+0x374940>
     590:	270b3b0b 	strcs	r3, [fp, -fp, lsl #22]
     594:	3c134919 	ldccc	9, cr4, [r3], {25}
     598:	00130119 	andseq	r0, r3, r9, lsl r1
     59c:	00052a00 	andeq	r2, r5, r0, lsl #20
     5a0:	00001349 	andeq	r1, r0, r9, asr #6
     5a4:	0000182b 	andeq	r1, r0, fp, lsr #16
     5a8:	002e2c00 	eoreq	r2, lr, r0, lsl #24
     5ac:	0e03193f 	mcreq	9, 0, r1, cr3, cr15, {1}
     5b0:	0b3b0b3a 	bleq	ec32a0 <__bss_end__+0xeb69e8>
     5b4:	193c1927 	ldmdbne	ip!, {r0, r1, r2, r5, r8, fp, ip}
     5b8:	2e2d0000 	cdpcs	0, 2, cr0, cr13, cr0, {0}
     5bc:	03193f01 	tsteq	r9, #1, 30
     5c0:	3b0b3a0e 	blcc	2cee00 <__bss_end__+0x2c2548>
     5c4:	4919270b 	ldmdbmi	r9, {r0, r1, r3, r8, r9, sl, sp}
     5c8:	00193c13 	andseq	r3, r9, r3, lsl ip
     5cc:	11010000 	mrsne	r0, (UNDEF: 1)
     5d0:	130e2501 	movwne	r2, #58625	; 0xe501
     5d4:	1b0e030b 	blne	381208 <__bss_end__+0x374950>
     5d8:	1201110e 	andne	r1, r1, #-2147483645	; 0x80000003
     5dc:	00171006 	andseq	r1, r7, r6
     5e0:	00240200 	eoreq	r0, r4, r0, lsl #4
     5e4:	0b3e0b0b 	bleq	f83218 <__bss_end__+0xf76960>
     5e8:	00000e03 	andeq	r0, r0, r3, lsl #28
     5ec:	0b002403 	bleq	9600 <gpio_set_input+0xa8>
     5f0:	030b3e0b 	movweq	r3, #48651	; 0xbe0b
     5f4:	04000008 	streq	r0, [r0], #-8
     5f8:	0b0b000f 	bleq	2c063c <__bss_end__+0x2b3d84>
     5fc:	0f050000 	svceq	0x00050000
     600:	490b0b00 	stmdbmi	fp, {r8, r9, fp}
     604:	06000013 			; <UNDEFINED> instruction: 0x06000013
     608:	0e030016 	mcreq	0, 0, r0, cr3, cr6, {0}
     60c:	0b3b0b3a 	bleq	ec32fc <__bss_end__+0xeb6a44>
     610:	00001349 	andeq	r1, r0, r9, asr #6
     614:	3f012e07 	svccc	0x00012e07
     618:	3a0e0319 	bcc	381284 <__bss_end__+0x3749cc>
     61c:	270b3b0b 	strcs	r3, [fp, -fp, lsl #22]
     620:	11134919 	tstne	r3, r9, lsl r9
     624:	40061201 	andmi	r1, r6, r1, lsl #4
     628:	19429718 	stmdbne	r2, {r3, r4, r8, r9, sl, ip, pc}^
     62c:	05080000 	streq	r0, [r8, #-0]
     630:	3a080300 	bcc	201238 <__bss_end__+0x1f4980>
     634:	490b3b0b 	stmdbmi	fp, {r0, r1, r3, r8, r9, fp, ip, sp}
     638:	00180213 	andseq	r0, r8, r3, lsl r2
     63c:	00050900 	andeq	r0, r5, r0, lsl #18
     640:	0b3a0803 	bleq	e82654 <__bss_end__+0xe75d9c>
     644:	13490b3b 	movtne	r0, #39739	; 0x9b3b
     648:	00001702 	andeq	r1, r0, r2, lsl #14
     64c:	0300340a 	movweq	r3, #1034	; 0x40a
     650:	3b0b3a08 	blcc	2cee78 <__bss_end__+0x2c25c0>
     654:	0213490b 	andseq	r4, r3, #180224	; 0x2c000
     658:	0b000017 	bleq	6bc <_start-0x7944>
     65c:	08030034 	stmdaeq	r3, {r2, r4, r5}
     660:	0b3b0b3a 	bleq	ec3350 <__bss_end__+0xeb6a98>
     664:	18021349 	stmdane	r2, {r0, r3, r6, r8, r9, ip}
     668:	01000000 	mrseq	r0, (UNDEF: 0)
     66c:	0e250111 	mcreq	1, 1, r0, cr5, cr1, {0}
     670:	0e030b13 	vmoveq.32	d3[0], r0
     674:	01110e1b 	tsteq	r1, fp, lsl lr
     678:	17100612 			; <UNDEFINED> instruction: 0x17100612
     67c:	16020000 	strne	r0, [r2], -r0
     680:	3a0e0300 	bcc	381288 <__bss_end__+0x3749d0>
     684:	490b3b0b 	stmdbmi	fp, {r0, r1, r3, r8, r9, fp, ip, sp}
     688:	03000013 	movweq	r0, #19
     68c:	0e030113 	mcreq	1, 0, r0, cr3, cr3, {0}
     690:	0b3a0b0b 	bleq	e832c4 <__bss_end__+0xe76a0c>
     694:	13010b3b 	movwne	r0, #6971	; 0x1b3b
     698:	0d040000 	stceq	0, cr0, [r4, #-0]
     69c:	490e0300 	stmdbmi	lr, {r8, r9}
     6a0:	340b3813 	strcc	r3, [fp], #-2067	; 0x813
     6a4:	05000019 	streq	r0, [r0, #-25]
     6a8:	0b0b000f 	bleq	2c06ec <__bss_end__+0x2b3e34>
     6ac:	24060000 	strcs	r0, [r6], #-0
     6b0:	3e0b0b00 	vmlacc.f64	d0, d11, d0
     6b4:	0008030b 	andeq	r0, r8, fp, lsl #6
     6b8:	00240700 	eoreq	r0, r4, r0, lsl #14
     6bc:	0b3e0b0b 	bleq	f832f0 <__bss_end__+0xf76a38>
     6c0:	00000e03 	andeq	r0, r0, r3, lsl #28
     6c4:	0b000f08 	bleq	42ec <_start-0x3d14>
     6c8:	0013490b 	andseq	r4, r3, fp, lsl #18
     6cc:	00260900 	eoreq	r0, r6, r0, lsl #18
     6d0:	00001349 	andeq	r1, r0, r9, asr #6
     6d4:	3f012e0a 	svccc	0x00012e0a
     6d8:	3a0e0319 	bcc	381344 <__bss_end__+0x374a8c>
     6dc:	270b3b0b 	strcs	r3, [fp, -fp, lsl #22]
     6e0:	11134919 	tstne	r3, r9, lsl r9
     6e4:	40061201 	andmi	r1, r6, r1, lsl #4
     6e8:	19429718 	stmdbne	r2, {r3, r4, r8, r9, sl, ip, pc}^
     6ec:	00001301 	andeq	r1, r0, r1, lsl #6
     6f0:	0300050b 	movweq	r0, #1291	; 0x50b
     6f4:	3b0b3a08 	blcc	2cef1c <__bss_end__+0x2c2664>
     6f8:	0213490b 	andseq	r4, r3, #180224	; 0x2c000
     6fc:	0c000018 	stceq	0, cr0, [r0], {24}
     700:	00000018 	andeq	r0, r0, r8, lsl r0
     704:	0300340d 	movweq	r3, #1037	; 0x40d
     708:	3b0b3a08 	blcc	2cef30 <__bss_end__+0x2c2678>
     70c:	0213490b 	andseq	r4, r3, #180224	; 0x2c000
     710:	0e000018 	mcreq	0, 0, r0, cr0, cr8, {0}
     714:	0e030034 	mcreq	0, 0, r0, cr3, cr4, {1}
     718:	0b3b0b3a 	bleq	ec3408 <__bss_end__+0xeb6b50>
     71c:	18021349 	stmdane	r2, {r0, r3, r6, r8, r9, ip}
     720:	340f0000 	strcc	r0, [pc], #-0	; 728 <_start-0x78d8>
     724:	3a080300 	bcc	20132c <__bss_end__+0x1f4a74>
     728:	490b3b0b 	stmdbmi	fp, {r0, r1, r3, r8, r9, fp, ip, sp}
     72c:	00170213 	andseq	r0, r7, r3, lsl r2
     730:	82891000 	addhi	r1, r9, #0
     734:	01110101 	tsteq	r1, r1, lsl #2
     738:	13011331 	movwne	r1, #4913	; 0x1331
     73c:	8a110000 	bhi	440744 <__bss_end__+0x433e8c>
     740:	02000182 	andeq	r0, r0, #-2147483616	; 0x80000020
     744:	18429118 	stmdane	r2, {r3, r4, r8, ip, pc}^
     748:	89120000 	ldmdbhi	r2, {}	; <UNPREDICTABLE>
     74c:	11010182 	smlabbne	r1, r2, r1, r0
     750:	13000001 	movwne	r0, #1
     754:	13490101 	movtne	r0, #37121	; 0x9101
     758:	00001301 	andeq	r1, r0, r1, lsl #6
     75c:	49002114 	stmdbmi	r0, {r2, r4, r8, sp}
     760:	00052f13 	andeq	r2, r5, r3, lsl pc
     764:	01151500 	tsteq	r5, r0, lsl #10
     768:	13491927 	movtne	r1, #39207	; 0x9927
     76c:	00001301 	andeq	r1, r0, r1, lsl #6
     770:	49000516 	stmdbmi	r0, {r1, r2, r4, r8, sl}
     774:	17000013 	smladne	r0, r3, r0, r0
     778:	0e030034 	mcreq	0, 0, r0, cr3, cr4, {1}
     77c:	0b3b0b3a 	bleq	ec346c <__bss_end__+0xeb6bb4>
     780:	193f1349 	ldmdbne	pc!, {r0, r3, r6, r8, r9, ip}	; <UNPREDICTABLE>
     784:	0000193c 	andeq	r1, r0, ip, lsr r9
     788:	3f012e18 	svccc	0x00012e18
     78c:	3a0e0319 	bcc	3813f8 <__bss_end__+0x374b40>
     790:	270b3b0b 	strcs	r3, [fp, -fp, lsl #22]
     794:	3c134919 	ldccc	9, cr4, [r3], {25}
     798:	00000019 	andeq	r0, r0, r9, lsl r0
     79c:	25011101 	strcs	r1, [r1, #-257]	; 0x101
     7a0:	030b130e 	movweq	r1, #45838	; 0xb30e
     7a4:	110e1b0e 	tstne	lr, lr, lsl #22
     7a8:	10061201 	andne	r1, r6, r1, lsl #4
     7ac:	02000017 	andeq	r0, r0, #23
     7b0:	0b0b0024 	bleq	2c0848 <__bss_end__+0x2b3f90>
     7b4:	08030b3e 	stmdaeq	r3, {r1, r2, r3, r4, r5, r8, r9, fp}
     7b8:	24030000 	strcs	r0, [r3], #-0
     7bc:	3e0b0b00 	vmlacc.f64	d0, d11, d0
     7c0:	000e030b 	andeq	r0, lr, fp, lsl #6
     7c4:	000f0400 	andeq	r0, pc, r0, lsl #8
     7c8:	13490b0b 	movtne	r0, #39691	; 0x9b0b
     7cc:	26050000 	strcs	r0, [r5], -r0
     7d0:	00134900 	andseq	r4, r3, r0, lsl #18
     7d4:	012e0600 	teqeq	lr, r0, lsl #12
     7d8:	0e03193f 	mcreq	9, 0, r1, cr3, cr15, {1}
     7dc:	0b3b0b3a 	bleq	ec34cc <__bss_end__+0xeb6c14>
     7e0:	13491927 	movtne	r1, #39207	; 0x9927
     7e4:	06120111 			; <UNDEFINED> instruction: 0x06120111
     7e8:	42961840 	addsmi	r1, r6, #64, 16	; 0x400000
     7ec:	00130119 	andseq	r0, r3, r9, lsl r1
     7f0:	00050700 	andeq	r0, r5, r0, lsl #14
     7f4:	0b3a0803 	bleq	e82808 <__bss_end__+0xe75f50>
     7f8:	13490b3b 	movtne	r0, #39739	; 0x9b3b
     7fc:	00001702 	andeq	r1, r0, r2, lsl #14
     800:	27011508 	strcs	r1, [r1, -r8, lsl #10]
     804:	01134919 	tsteq	r3, r9, lsl r9
     808:	09000013 	stmdbeq	r0, {r0, r1, r4}
     80c:	13490005 	movtne	r0, #36869	; 0x9005
     810:	340a0000 	strcc	r0, [sl], #-0
     814:	3a0e0300 	bcc	38141c <__bss_end__+0x374b64>
     818:	490b3b0b 	stmdbmi	fp, {r0, r1, r3, r8, r9, fp, ip, sp}
     81c:	3c193f13 	ldccc	15, cr3, [r9], {19}
     820:	0b000019 	bleq	88c <_start-0x7774>
     824:	0e030034 	mcreq	0, 0, r0, cr3, cr4, {1}
     828:	0b3b0b3a 	bleq	ec3518 <__bss_end__+0xeb6c60>
     82c:	193f1349 	ldmdbne	pc!, {r0, r3, r6, r8, r9, ip}	; <UNPREDICTABLE>
     830:	00001802 	andeq	r1, r0, r2, lsl #16
     834:	01110100 	tsteq	r1, r0, lsl #2
     838:	0b130e25 	bleq	4c40d4 <__bss_end__+0x4b781c>
     83c:	0e1b0e03 	cdpeq	14, 1, cr0, cr11, cr3, {0}
     840:	06120111 			; <UNDEFINED> instruction: 0x06120111
     844:	00001710 	andeq	r1, r0, r0, lsl r7
     848:	0b002402 	bleq	9858 <gpio_int_rising_edge+0x6c>
     84c:	030b3e0b 	movweq	r3, #48651	; 0xbe0b
     850:	03000008 	movweq	r0, #8
     854:	0b0b0024 	bleq	2c08ec <__bss_end__+0x2b4034>
     858:	0e030b3e 	vmoveq.16	d3[0], r0
     85c:	0f040000 	svceq	0x00040000
     860:	000b0b00 	andeq	r0, fp, r0, lsl #22
     864:	000f0500 	andeq	r0, pc, r0, lsl #10
     868:	13490b0b 	movtne	r0, #39691	; 0x9b0b
     86c:	26060000 	strcs	r0, [r6], -r0
     870:	00134900 	andseq	r4, r3, r0, lsl #18
     874:	00160700 	andseq	r0, r6, r0, lsl #14
     878:	0b3a0e03 	bleq	e8408c <__bss_end__+0xe777d4>
     87c:	13490b3b 	movtne	r0, #39739	; 0x9b3b
     880:	13080000 	movwne	r0, #32768	; 0x8000
     884:	0b0e0301 	bleq	381490 <__bss_end__+0x374bd8>
     888:	3b0b3a0b 	blcc	2cf0bc <__bss_end__+0x2c2804>
     88c:	0013010b 	andseq	r0, r3, fp, lsl #2
     890:	000d0900 	andeq	r0, sp, r0, lsl #18
     894:	13490e03 	movtne	r0, #40451	; 0x9e03
     898:	19340b38 	ldmdbne	r4!, {r3, r4, r5, r8, r9, fp}
     89c:	2e0a0000 	cdpcs	0, 0, cr0, cr10, cr0, {0}
     8a0:	3a0e0301 	bcc	3814ac <__bss_end__+0x374bf4>
     8a4:	270b3b0b 	strcs	r3, [fp, -fp, lsl #22]
     8a8:	11134919 	tstne	r3, r9, lsl r9
     8ac:	40061201 	andmi	r1, r6, r1, lsl #4
     8b0:	19429718 	stmdbne	r2, {r3, r4, r8, r9, sl, ip, pc}^
     8b4:	00001301 	andeq	r1, r0, r1, lsl #6
     8b8:	0300050b 	movweq	r0, #1291	; 0x50b
     8bc:	3b0b3a08 	blcc	2cf0e4 <__bss_end__+0x2c282c>
     8c0:	0213490b 	andseq	r4, r3, #180224	; 0x2c000
     8c4:	0c000017 	stceq	0, cr0, [r0], {23}
     8c8:	0803012e 	stmdaeq	r3, {r1, r2, r3, r5, r8}
     8cc:	0b3b0b3a 	bleq	ec35bc <__bss_end__+0xeb6d04>
     8d0:	13491927 	movtne	r1, #39207	; 0x9927
     8d4:	06120111 			; <UNDEFINED> instruction: 0x06120111
     8d8:	42971840 	addsmi	r1, r7, #64, 16	; 0x400000
     8dc:	00130119 	andseq	r0, r3, r9, lsl r1
     8e0:	00050d00 	andeq	r0, r5, r0, lsl #26
     8e4:	0b3a0e03 	bleq	e840f8 <__bss_end__+0xe77840>
     8e8:	13490b3b 	movtne	r0, #39739	; 0x9b3b
     8ec:	00001702 	andeq	r1, r0, r2, lsl #14
     8f0:	0300050e 	movweq	r0, #1294	; 0x50e
     8f4:	3b0b3a0e 	blcc	2cf134 <__bss_end__+0x2c287c>
     8f8:	0213490b 	andseq	r4, r3, #180224	; 0x2c000
     8fc:	0f000018 	svceq	0x00000018
     900:	08030034 	stmdaeq	r3, {r2, r4, r5}
     904:	0b3b0b3a 	bleq	ec35f4 <__bss_end__+0xeb6d3c>
     908:	18021349 	stmdane	r2, {r0, r3, r6, r8, r9, ip}
     90c:	34100000 	ldrcc	r0, [r0], #-0
     910:	3a080300 	bcc	201518 <__bss_end__+0x1f4c60>
     914:	490b3b0b 	stmdbmi	fp, {r0, r1, r3, r8, r9, fp, ip, sp}
     918:	00170213 	andseq	r0, r7, r3, lsl r2
     91c:	00341100 	eorseq	r1, r4, r0, lsl #2
     920:	13490e03 	movtne	r0, #40451	; 0x9e03
     924:	18021934 	stmdane	r2, {r2, r4, r5, r8, fp, ip}
     928:	0b120000 	bleq	480930 <__bss_end__+0x474078>
     92c:	12011101 	andne	r1, r1, #1073741824	; 0x40000000
     930:	00130106 	andseq	r0, r3, r6, lsl #2
     934:	00341300 	eorseq	r1, r4, r0, lsl #6
     938:	0b3a0e03 	bleq	e8414c <__bss_end__+0xe77894>
     93c:	13490b3b 	movtne	r0, #39739	; 0x9b3b
     940:	00001702 	andeq	r1, r0, r2, lsl #14
     944:	01828914 	orreq	r8, r2, r4, lsl r9
     948:	31011101 	tstcc	r1, r1, lsl #2
     94c:	00130113 	andseq	r0, r3, r3, lsl r1
     950:	828a1500 	addhi	r1, sl, #0, 10
     954:	18020001 	stmdane	r2, {r0}
     958:	00184291 	mulseq	r8, r1, r2
     95c:	82891600 	addhi	r1, r9, #0, 12
     960:	01110001 	tsteq	r1, r1
     964:	00001331 	andeq	r1, r0, r1, lsr r3
     968:	01828917 	orreq	r8, r2, r7, lsl r9
     96c:	31011101 	tstcc	r1, r1, lsl #2
     970:	18000013 	stmdane	r0, {r0, r1, r4}
     974:	13490101 	movtne	r0, #37121	; 0x9101
     978:	00001301 	andeq	r1, r0, r1, lsl #6
     97c:	49002119 	stmdbmi	r0, {r0, r3, r4, r8, sp}
     980:	000b2f13 	andeq	r2, fp, r3, lsl pc
     984:	012e1a00 	teqeq	lr, r0, lsl #20
     988:	0e03193f 	mcreq	9, 0, r1, cr3, cr15, {1}
     98c:	0b3b0b3a 	bleq	ec367c <__bss_end__+0xeb6dc4>
     990:	01111927 	tsteq	r1, r7, lsr #18
     994:	18400612 	stmdane	r0, {r1, r4, r9, sl}^
     998:	01194297 			; <UNDEFINED> instruction: 0x01194297
     99c:	1b000013 	blne	9f0 <_start-0x7610>
     9a0:	19270115 	stmdbne	r7!, {r0, r2, r4, r8}
     9a4:	13011349 	movwne	r1, #4937	; 0x1349
     9a8:	051c0000 	ldreq	r0, [ip, #-0]
     9ac:	00134900 	andseq	r4, r3, r0, lsl #18
     9b0:	012e1d00 	teqeq	lr, r0, lsl #26
     9b4:	0e03193f 	mcreq	9, 0, r1, cr3, cr15, {1}
     9b8:	0b3b0b3a 	bleq	ec36a8 <__bss_end__+0xeb6df0>
     9bc:	13491927 	movtne	r1, #39207	; 0x9927
     9c0:	06120111 			; <UNDEFINED> instruction: 0x06120111
     9c4:	42971840 	addsmi	r1, r7, #64, 16	; 0x400000
     9c8:	00130119 	andseq	r0, r3, r9, lsl r1
     9cc:	010b1e00 	tsteq	fp, r0, lsl #28
     9d0:	06120111 			; <UNDEFINED> instruction: 0x06120111
     9d4:	341f0000 	ldrcc	r0, [pc], #-0	; 9dc <_start-0x7624>
     9d8:	3a0e0300 	bcc	3815e0 <__bss_end__+0x374d28>
     9dc:	490b3b0b 	stmdbmi	fp, {r0, r1, r3, r8, r9, fp, ip, sp}
     9e0:	3c193f13 	ldccc	15, cr3, [r9], {19}
     9e4:	20000019 	andcs	r0, r0, r9, lsl r0
     9e8:	193f012e 	ldmdbne	pc!, {r1, r2, r3, r5, r8}	; <UNPREDICTABLE>
     9ec:	0b3a0e03 	bleq	e84200 <__bss_end__+0xe77948>
     9f0:	19270b3b 	stmdbne	r7!, {r0, r1, r3, r4, r5, r8, r9, fp}
     9f4:	193c1349 	ldmdbne	ip!, {r0, r3, r6, r8, r9, ip}
     9f8:	00001301 	andeq	r1, r0, r1, lsl #6
     9fc:	00001821 	andeq	r1, r0, r1, lsr #16
     a00:	002e2200 	eoreq	r2, lr, r0, lsl #4
     a04:	0e03193f 	mcreq	9, 0, r1, cr3, cr15, {1}
     a08:	0b3b0b3a 	bleq	ec36f8 <__bss_end__+0xeb6e40>
     a0c:	193c1927 	ldmdbne	ip!, {r0, r1, r2, r5, r8, fp, ip}
     a10:	01000000 	mrseq	r0, (UNDEF: 0)
     a14:	0e250111 	mcreq	1, 1, r0, cr5, cr1, {0}
     a18:	0e030b13 	vmoveq.32	d3[0], r0
     a1c:	01110e1b 	tsteq	r1, fp, lsl lr
     a20:	17100612 			; <UNDEFINED> instruction: 0x17100612
     a24:	24020000 	strcs	r0, [r2], #-0
     a28:	3e0b0b00 	vmlacc.f64	d0, d11, d0
     a2c:	0008030b 	andeq	r0, r8, fp, lsl #6
     a30:	00240300 	eoreq	r0, r4, r0, lsl #6
     a34:	0b3e0b0b 	bleq	f83668 <__bss_end__+0xf76db0>
     a38:	00000e03 	andeq	r0, r0, r3, lsl #28
     a3c:	3f012e04 	svccc	0x00012e04
     a40:	3a0e0319 	bcc	3816ac <__bss_end__+0x374df4>
     a44:	270b3b0b 	strcs	r3, [fp, -fp, lsl #22]
     a48:	12011119 	andne	r1, r1, #1073741830	; 0x40000006
     a4c:	97184006 	ldrls	r4, [r8, -r6]
     a50:	13011942 	movwne	r1, #6466	; 0x1942
     a54:	34050000 	strcc	r0, [r5], #-0
     a58:	3a080300 	bcc	201660 <__bss_end__+0x1f4da8>
     a5c:	490b3b0b 	stmdbmi	fp, {r0, r1, r3, r8, r9, fp, ip, sp}
     a60:	00170213 	andseq	r0, r7, r3, lsl r2
     a64:	012e0600 	teqeq	lr, r0, lsl #12
     a68:	0e03193f 	mcreq	9, 0, r1, cr3, cr15, {1}
     a6c:	0b3b0b3a 	bleq	ec375c <__bss_end__+0xeb6ea4>
     a70:	01111927 	tsteq	r1, r7, lsr #18
     a74:	18400612 	stmdane	r0, {r1, r4, r9, sl}^
     a78:	00194297 	mulseq	r9, r7, r2
     a7c:	11010000 	mrsne	r0, (UNDEF: 1)
     a80:	130e2501 	movwne	r2, #58625	; 0xe501
     a84:	1b0e030b 	blne	3816b8 <__bss_end__+0x374e00>
     a88:	1201110e 	andne	r1, r1, #-2147483645	; 0x80000003
     a8c:	00171006 	andseq	r1, r7, r6
     a90:	00240200 	eoreq	r0, r4, r0, lsl #4
     a94:	0b3e0b0b 	bleq	f836c8 <__bss_end__+0xf76e10>
     a98:	00000803 	andeq	r0, r0, r3, lsl #16
     a9c:	0b002403 	bleq	9ab0 <reset_vector>
     aa0:	030b3e0b 	movweq	r3, #48651	; 0xbe0b
     aa4:	0400000e 	streq	r0, [r0], #-14
     aa8:	0b0b000f 	bleq	2c0aec <__bss_end__+0x2b4234>
     aac:	00001349 	andeq	r1, r0, r9, asr #6
     ab0:	49002605 	stmdbmi	r0, {r0, r2, r9, sl, sp}
     ab4:	06000013 			; <UNDEFINED> instruction: 0x06000013
     ab8:	193f012e 	ldmdbne	pc!, {r1, r2, r3, r5, r8}	; <UNPREDICTABLE>
     abc:	0b3a0e03 	bleq	e842d0 <__bss_end__+0xe77a18>
     ac0:	19270b3b 	stmdbne	r7!, {r0, r1, r3, r4, r5, r8, r9, fp}
     ac4:	06120111 			; <UNDEFINED> instruction: 0x06120111
     ac8:	42971840 	addsmi	r1, r7, #64, 16	; 0x400000
     acc:	00130119 	andseq	r0, r3, r9, lsl r1
     ad0:	82890700 	addhi	r0, r9, #0, 14
     ad4:	01110101 	tsteq	r1, r1, lsl #2
     ad8:	00001301 	andeq	r1, r0, r1, lsl #6
     adc:	01828a08 	orreq	r8, r2, r8, lsl #20
     ae0:	91180200 	tstls	r8, r0, lsl #4
     ae4:	00001842 	andeq	r1, r0, r2, asr #16
     ae8:	01828909 	orreq	r8, r2, r9, lsl #18
     aec:	31011101 	tstcc	r1, r1, lsl #2
     af0:	00130113 	andseq	r0, r3, r3, lsl r1
     af4:	82890a00 	addhi	r0, r9, #0, 20
     af8:	01110001 	tsteq	r1, r1
     afc:	00001331 	andeq	r1, r0, r1, lsr r3
     b00:	2701150b 	strcs	r1, [r1, -fp, lsl #10]
     b04:	01134919 	tsteq	r3, r9, lsl r9
     b08:	0c000013 	stceq	0, cr0, [r0], {19}
     b0c:	13490005 	movtne	r0, #36869	; 0x9005
     b10:	340d0000 	strcc	r0, [sp], #-0
     b14:	3a0e0300 	bcc	38171c <__bss_end__+0x374e64>
     b18:	490b3b0b 	stmdbmi	fp, {r0, r1, r3, r8, r9, fp, ip, sp}
     b1c:	3c193f13 	ldccc	15, cr3, [r9], {19}
     b20:	0e000019 	mcreq	0, 0, r0, cr0, cr9, {0}
     b24:	193f012e 	ldmdbne	pc!, {r1, r2, r3, r5, r8}	; <UNPREDICTABLE>
     b28:	0b3a0e03 	bleq	e8433c <__bss_end__+0xe77a84>
     b2c:	19270b3b 	stmdbne	r7!, {r0, r1, r3, r4, r5, r8, r9, fp}
     b30:	1301193c 	movwne	r1, #6460	; 0x193c
     b34:	2e0f0000 	cdpcs	0, 0, cr0, cr15, cr0, {0}
     b38:	03193f00 	tsteq	r9, #0, 30
     b3c:	3b0b3a0e 	blcc	2cf37c <__bss_end__+0x2c2ac4>
     b40:	3c19270b 	ldccc	7, cr2, [r9], {11}
     b44:	00000019 	andeq	r0, r0, r9, lsl r0
     b48:	25011101 	strcs	r1, [r1, #-257]	; 0x101
     b4c:	030b130e 	movweq	r1, #45838	; 0xb30e
     b50:	110e1b0e 	tstne	lr, lr, lsl #22
     b54:	10061201 	andne	r1, r6, r1, lsl #4
     b58:	02000017 	andeq	r0, r0, #23
     b5c:	0b0b0024 	bleq	2c0bf4 <__bss_end__+0x2b433c>
     b60:	08030b3e 	stmdaeq	r3, {r1, r2, r3, r4, r5, r8, r9, fp}
     b64:	24030000 	strcs	r0, [r3], #-0
     b68:	3e0b0b00 	vmlacc.f64	d0, d11, d0
     b6c:	000e030b 	andeq	r0, lr, fp, lsl #6
     b70:	012e0400 	teqeq	lr, r0, lsl #8
     b74:	0e03193f 	mcreq	9, 0, r1, cr3, cr15, {1}
     b78:	0b3b0b3a 	bleq	ec3868 <__bss_end__+0xeb6fb0>
     b7c:	06120111 			; <UNDEFINED> instruction: 0x06120111
     b80:	42971840 	addsmi	r1, r7, #64, 16	; 0x400000
     b84:	00130119 	andseq	r0, r3, r9, lsl r1
     b88:	00340500 	eorseq	r0, r4, r0, lsl #10
     b8c:	0b3a0e03 	bleq	e843a0 <__bss_end__+0xe77ae8>
     b90:	13490b3b 	movtne	r0, #39739	; 0x9b3b
     b94:	193c193f 	ldmdbne	ip!, {r0, r1, r2, r3, r4, r5, r8, fp, ip}
     b98:	2e060000 	cdpcs	0, 0, cr0, cr6, cr0, {0}
     b9c:	03193f01 	tsteq	r9, #1, 30
     ba0:	3b0b3a0e 	blcc	2cf3e0 <__bss_end__+0x2c2b28>
     ba4:	01193c0b 	tsteq	r9, fp, lsl #24
     ba8:	07000013 	smladeq	r0, r3, r0, r0
     bac:	00000018 	andeq	r0, r0, r8, lsl r0
     bb0:	03003408 	movweq	r3, #1032	; 0x408
     bb4:	3b0b3a08 	blcc	2cf3dc <__bss_end__+0x2c2b24>
     bb8:	0213490b 	andseq	r4, r3, #180224	; 0x2c000
     bbc:	09000017 	stmdbeq	r0, {r0, r1, r2, r4}
     bc0:	0e030034 	mcreq	0, 0, r0, cr3, cr4, {1}
     bc4:	0b3b0b3a 	bleq	ec38b4 <__bss_end__+0xeb6ffc>
     bc8:	00001349 	andeq	r1, r0, r9, asr #6
     bcc:	0182890a 	orreq	r8, r2, sl, lsl #18
     bd0:	31011100 	mrscc	r1, (UNDEF: 17)
     bd4:	0b000013 	bleq	c28 <_start-0x73d8>
     bd8:	0b0b000f 	bleq	2c0c1c <__bss_end__+0x2b4364>
     bdc:	00001349 	andeq	r1, r0, r9, asr #6
     be0:	3f002e0c 	svccc	0x00002e0c
     be4:	3a0e0319 	bcc	381850 <__bss_end__+0x374f98>
     be8:	270b3b0b 	strcs	r3, [fp, -fp, lsl #22]
     bec:	00193c19 	andseq	r3, r9, r9, lsl ip
     bf0:	11010000 	mrsne	r0, (UNDEF: 1)
     bf4:	130e2501 	movwne	r2, #58625	; 0xe501
     bf8:	1b0e030b 	blne	38182c <__bss_end__+0x374f74>
     bfc:	1117550e 	tstne	r7, lr, lsl #10
     c00:	00171001 	andseq	r1, r7, r1
     c04:	00240200 	eoreq	r0, r4, r0, lsl #4
     c08:	0b3e0b0b 	bleq	f8383c <__bss_end__+0xf76f84>
     c0c:	00000803 	andeq	r0, r0, r3, lsl #16
     c10:	0b002403 	bleq	9c24 <_interrupt_table>
     c14:	030b3e0b 	movweq	r3, #48651	; 0xbe0b
     c18:	0400000e 	streq	r0, [r0], #-14
     c1c:	193f012e 	ldmdbne	pc!, {r1, r2, r3, r5, r8}	; <UNPREDICTABLE>
     c20:	0b3a0e03 	bleq	e84434 <__bss_end__+0xe77b7c>
     c24:	19270b3b 	stmdbne	r7!, {r0, r1, r3, r4, r5, r8, r9, fp}
     c28:	01111349 	tsteq	r1, r9, asr #6
     c2c:	18400612 	stmdane	r0, {r1, r4, r9, sl}^
     c30:	01194297 			; <UNDEFINED> instruction: 0x01194297
     c34:	05000013 	streq	r0, [r0, #-19]
     c38:	0e030034 	mcreq	0, 0, r0, cr3, cr4, {1}
     c3c:	0b3b0b3a 	bleq	ec392c <__bss_end__+0xeb7074>
     c40:	17021349 	strne	r1, [r2, -r9, asr #6]
     c44:	2e060000 	cdpcs	0, 0, cr0, cr6, cr0, {0}
     c48:	03193f01 	tsteq	r9, #1, 30
     c4c:	3b0b3a0e 	blcc	2cf48c <__bss_end__+0x2c2bd4>
     c50:	1119270b 	tstne	r9, fp, lsl #14
     c54:	40061201 	andmi	r1, r6, r1, lsl #4
     c58:	19429718 	stmdbne	r2, {r3, r4, r8, r9, sl, ip, pc}^
     c5c:	00001301 	andeq	r1, r0, r1, lsl #6
     c60:	03003407 	movweq	r3, #1031	; 0x407
     c64:	3b0b3a0e 	blcc	2cf4a4 <__bss_end__+0x2c2bec>
     c68:	1c13490b 	ldcne	9, cr4, [r3], {11}
     c6c:	08000006 	stmdaeq	r0, {r1, r2}
     c70:	0e030034 	mcreq	0, 0, r0, cr3, cr4, {1}
     c74:	0b3b0b3a 	bleq	ec3964 <__bss_end__+0xeb70ac>
     c78:	0b1c1349 	bleq	7059a4 <__bss_end__+0x6f90ec>
     c7c:	89090000 	stmdbhi	r9, {}	; <UNPREDICTABLE>
     c80:	11000182 	smlabbne	r0, r2, r1, r0
     c84:	00133101 	andseq	r3, r3, r1, lsl #2
     c88:	82890a00 	addhi	r0, r9, #0, 20
     c8c:	01110101 	tsteq	r1, r1, lsl #2
     c90:	13011331 	movwne	r1, #4913	; 0x1331
     c94:	8a0b0000 	bhi	2c0c9c <__bss_end__+0x2b43e4>
     c98:	02000182 	andeq	r0, r0, #-2147483616	; 0x80000020
     c9c:	18429118 	stmdane	r2, {r3, r4, r8, ip, pc}^
     ca0:	890c0000 	stmdbhi	ip, {}	; <UNPREDICTABLE>
     ca4:	11010182 	smlabbne	r1, r2, r1, r0
     ca8:	00133101 	andseq	r3, r3, r1, lsl #2
     cac:	00260d00 	eoreq	r0, r6, r0, lsl #26
     cb0:	00001349 	andeq	r1, r0, r9, asr #6
     cb4:	3f012e0e 	svccc	0x00012e0e
     cb8:	3a0e0319 	bcc	381924 <__bss_end__+0x37506c>
     cbc:	270b3b0b 	strcs	r3, [fp, -fp, lsl #22]
     cc0:	01193c19 	tsteq	r9, r9, lsl ip
     cc4:	0f000013 	svceq	0x00000013
     cc8:	13490005 	movtne	r0, #36869	; 0x9005
     ccc:	2e100000 	cdpcs	0, 1, cr0, cr0, cr0, {0}
     cd0:	03193f01 	tsteq	r9, #1, 30
     cd4:	3b0b3a0e 	blcc	2cf514 <__bss_end__+0x2c2c5c>
     cd8:	3c19270b 	ldccc	7, cr2, [r9], {11}
     cdc:	00000019 	andeq	r0, r0, r9, lsl r0
     ce0:	25011101 	strcs	r1, [r1, #-257]	; 0x101
     ce4:	030b130e 	movweq	r1, #45838	; 0xb30e
     ce8:	110e1b0e 	tstne	lr, lr, lsl #22
     cec:	10061201 	andne	r1, r6, r1, lsl #4
     cf0:	02000017 	andeq	r0, r0, #23
     cf4:	0b0b0024 	bleq	2c0d8c <__bss_end__+0x2b44d4>
     cf8:	08030b3e 	stmdaeq	r3, {r1, r2, r3, r4, r5, r8, r9, fp}
     cfc:	24030000 	strcs	r0, [r3], #-0
     d00:	3e0b0b00 	vmlacc.f64	d0, d11, d0
     d04:	000e030b 	andeq	r0, lr, fp, lsl #6
     d08:	012e0400 	teqeq	lr, r0, lsl #8
     d0c:	0e03193f 	mcreq	9, 0, r1, cr3, cr15, {1}
     d10:	0b3b0b3a 	bleq	ec3a00 <__bss_end__+0xeb7148>
     d14:	01111927 	tsteq	r1, r7, lsr #18
     d18:	18400612 	stmdane	r0, {r1, r4, r9, sl}^
     d1c:	01194297 			; <UNDEFINED> instruction: 0x01194297
     d20:	05000013 	streq	r0, [r0, #-19]
     d24:	0e030005 	cdpeq	0, 0, cr0, cr3, cr5, {0}
     d28:	0b3b0b3a 	bleq	ec3a18 <__bss_end__+0xeb7160>
     d2c:	17021349 	strne	r1, [r2, -r9, asr #6]
     d30:	2e060000 	cdpcs	0, 0, cr0, cr6, cr0, {0}
     d34:	03193f01 	tsteq	r9, #1, 30
     d38:	3b0b3a0e 	blcc	2cf578 <__bss_end__+0x2c2cc0>
     d3c:	4919270b 	ldmdbmi	r9, {r0, r1, r3, r8, r9, sl, sp}
     d40:	12011113 	andne	r1, r1, #-1073741820	; 0xc0000004
     d44:	97184006 	ldrls	r4, [r8, -r6]
     d48:	13011942 	movwne	r1, #6466	; 0x1942
     d4c:	89070000 	stmdbhi	r7, {}	; <UNPREDICTABLE>
     d50:	11010182 	smlabbne	r1, r2, r1, r0
     d54:	00133101 	andseq	r3, r3, r1, lsl #2
     d58:	828a0800 	addhi	r0, sl, #0, 16
     d5c:	18020001 	stmdane	r2, {r0}
     d60:	00184291 	mulseq	r8, r1, r2
     d64:	00340900 	eorseq	r0, r4, r0, lsl #18
     d68:	0b3a0803 	bleq	e82d7c <__bss_end__+0xe764c4>
     d6c:	13490b3b 	movtne	r0, #39739	; 0x9b3b
     d70:	00001802 	andeq	r1, r0, r2, lsl #16
     d74:	0182890a 	orreq	r8, r2, sl, lsl #18
     d78:	31011100 	mrscc	r1, (UNDEF: 17)
     d7c:	0b000013 	bleq	dd0 <_start-0x7230>
     d80:	08030005 	stmdaeq	r3, {r0, r2}
     d84:	0b3b0b3a 	bleq	ec3a74 <__bss_end__+0xeb71bc>
     d88:	17021349 	strne	r1, [r2, -r9, asr #6]
     d8c:	0b0c0000 	bleq	300d94 <__bss_end__+0x2f44dc>
     d90:	12011101 	andne	r1, r1, #1073741824	; 0x40000000
     d94:	00130106 	andseq	r0, r3, r6, lsl #2
     d98:	00340d00 	eorseq	r0, r4, r0, lsl #26
     d9c:	0b3a0803 	bleq	e82db0 <__bss_end__+0xe764f8>
     da0:	13490b3b 	movtne	r0, #39739	; 0x9b3b
     da4:	00001702 	andeq	r1, r0, r2, lsl #14
     da8:	3f012e0e 	svccc	0x00012e0e
     dac:	3a0e0319 	bcc	381a18 <__bss_end__+0x375160>
     db0:	270b3b0b 	strcs	r3, [fp, -fp, lsl #22]
     db4:	3c134919 	ldccc	9, cr4, [r3], {25}
     db8:	0f000019 	svceq	0x00000019
     dbc:	13490005 	movtne	r0, #36869	; 0x9005
     dc0:	01000000 	mrseq	r0, (UNDEF: 0)
     dc4:	0e250111 	mcreq	1, 1, r0, cr5, cr1, {0}
     dc8:	0e030b13 	vmoveq.32	d3[0], r0
     dcc:	01110e1b 	tsteq	r1, fp, lsl lr
     dd0:	17100612 			; <UNDEFINED> instruction: 0x17100612
     dd4:	24020000 	strcs	r0, [r2], #-0
     dd8:	3e0b0b00 	vmlacc.f64	d0, d11, d0
     ddc:	000e030b 	andeq	r0, lr, fp, lsl #6
     de0:	00240300 	eoreq	r0, r4, r0, lsl #6
     de4:	0b3e0b0b 	bleq	f83a18 <__bss_end__+0xf77160>
     de8:	00000803 	andeq	r0, r0, r3, lsl #16
     dec:	0b010404 	bleq	41e04 <__bss_end__+0x3554c>
     df0:	3b0b3a0b 	blcc	2cf624 <__bss_end__+0x2c2d6c>
     df4:	0013010b 	andseq	r0, r3, fp, lsl #2
     df8:	00280500 	eoreq	r0, r8, r0, lsl #10
     dfc:	0d1c0e03 	ldceq	14, cr0, [ip, #-12]
     e00:	16060000 	strne	r0, [r6], -r0
     e04:	3a0e0300 	bcc	381a0c <__bss_end__+0x375154>
     e08:	490b3b0b 	stmdbmi	fp, {r0, r1, r3, r8, r9, fp, ip, sp}
     e0c:	07000013 	smladeq	r0, r3, r0, r0
     e10:	193f012e 	ldmdbne	pc!, {r1, r2, r3, r5, r8}	; <UNPREDICTABLE>
     e14:	0b3a0e03 	bleq	e84628 <__bss_end__+0xe77d70>
     e18:	19270b3b 	stmdbne	r7!, {r0, r1, r3, r4, r5, r8, r9, fp}
     e1c:	06120111 			; <UNDEFINED> instruction: 0x06120111
     e20:	42971840 	addsmi	r1, r7, #64, 16	; 0x400000
     e24:	00130119 	andseq	r0, r3, r9, lsl r1
     e28:	00050800 	andeq	r0, r5, r0, lsl #16
     e2c:	0b3a0803 	bleq	e82e40 <__bss_end__+0xe76588>
     e30:	13490b3b 	movtne	r0, #39739	; 0x9b3b
     e34:	00001702 	andeq	r1, r0, r2, lsl #14
     e38:	03003409 	movweq	r3, #1033	; 0x409
     e3c:	3b0b3a0e 	blcc	2cf67c <__bss_end__+0x2c2dc4>
     e40:	0213490b 	andseq	r4, r3, #180224	; 0x2c000
     e44:	0a000017 	beq	ea8 <_start-0x7158>
     e48:	01018289 	smlabbeq	r1, r9, r2, r8
     e4c:	13310111 	teqne	r1, #1073741828	; 0x40000004
     e50:	00001301 	andeq	r1, r0, r1, lsl #6
     e54:	01828a0b 	orreq	r8, r2, fp, lsl #20
     e58:	91180200 	tstls	r8, r0, lsl #4
     e5c:	00001842 	andeq	r1, r0, r2, asr #16
     e60:	0182890c 	orreq	r8, r2, ip, lsl #18
     e64:	31011101 	tstcc	r1, r1, lsl #2
     e68:	0d000013 	stceq	0, cr0, [r0, #-76]	; 0xffffffb4
     e6c:	0b0b000f 	bleq	2c0eb0 <__bss_end__+0x2b45f8>
     e70:	00001349 	andeq	r1, r0, r9, asr #6
     e74:	4900350e 	stmdbmi	r0, {r1, r2, r3, r8, sl, ip, sp}
     e78:	0f000013 	svceq	0x00000013
     e7c:	193f012e 	ldmdbne	pc!, {r1, r2, r3, r5, r8}	; <UNPREDICTABLE>
     e80:	0b3a0e03 	bleq	e84694 <__bss_end__+0xe77ddc>
     e84:	19270b3b 	stmdbne	r7!, {r0, r1, r3, r4, r5, r8, r9, fp}
     e88:	13010b20 	movwne	r0, #6944	; 0x1b20
     e8c:	05100000 	ldreq	r0, [r0, #-0]
     e90:	3a080300 	bcc	201a98 <__bss_end__+0x1f51e0>
     e94:	490b3b0b 	stmdbmi	fp, {r0, r1, r3, r8, r9, fp, ip, sp}
     e98:	11000013 	tstne	r0, r3, lsl r0
     e9c:	0e030034 	mcreq	0, 0, r0, cr3, cr4, {1}
     ea0:	0b3b0b3a 	bleq	ec3b90 <__bss_end__+0xeb72d8>
     ea4:	00001349 	andeq	r1, r0, r9, asr #6
     ea8:	31012e12 	tstcc	r1, r2, lsl lr
     eac:	12011113 	andne	r1, r1, #-1073741820	; 0xc0000004
     eb0:	97184006 	ldrls	r4, [r8, -r6]
     eb4:	13011942 	movwne	r1, #6466	; 0x1942
     eb8:	05130000 	ldreq	r0, [r3, #-0]
     ebc:	02133100 	andseq	r3, r3, #0, 2
     ec0:	14000017 	strne	r0, [r0], #-23
     ec4:	13310034 	teqne	r1, #52	; 0x34
     ec8:	00001702 	andeq	r1, r0, r2, lsl #14
     ecc:	3f012e15 	svccc	0x00012e15
     ed0:	3a0e0319 	bcc	381b3c <__bss_end__+0x375284>
     ed4:	270b3b0b 	strcs	r3, [fp, -fp, lsl #22]
     ed8:	11134919 	tstne	r3, r9, lsl r9
     edc:	40061201 	andmi	r1, r6, r1, lsl #4
     ee0:	19429718 	stmdbne	r2, {r3, r4, r8, r9, sl, ip, pc}^
     ee4:	00001301 	andeq	r1, r0, r1, lsl #6
     ee8:	03003416 	movweq	r3, #1046	; 0x416
     eec:	3b0b3a08 	blcc	2cf714 <__bss_end__+0x2c2e5c>
     ef0:	0213490b 	andseq	r4, r3, #180224	; 0x2c000
     ef4:	17000017 	smladne	r0, r7, r0, r0
     ef8:	00018289 	andeq	r8, r1, r9, lsl #5
     efc:	13310111 	teqne	r1, #1073741828	; 0x40000004
     f00:	1d180000 	ldcne	0, cr0, [r8, #-0]
     f04:	11133101 	tstne	r3, r1, lsl #2
     f08:	58061201 	stmdapl	r6, {r0, r9, ip}
     f0c:	010b590b 	tsteq	fp, fp, lsl #18
     f10:	19000013 	stmdbne	r0, {r0, r1, r4}
     f14:	0111010b 	tsteq	r1, fp, lsl #2
     f18:	00000612 	andeq	r0, r0, r2, lsl r6
     f1c:	31011d1a 	tstcc	r1, sl, lsl sp
     f20:	12011113 	andne	r1, r1, #-1073741820	; 0xc0000004
     f24:	590b5806 	stmdbpl	fp, {r1, r2, fp, ip, lr}
     f28:	1b00000b 	blne	f5c <_start-0x70a4>
     f2c:	0e030005 	cdpeq	0, 0, cr0, cr3, cr5, {0}
     f30:	0b3b0b3a 	bleq	ec3c20 <__bss_end__+0xeb7368>
     f34:	17021349 	strne	r1, [r2, -r9, asr #6]
     f38:	2e1c0000 	cdpcs	0, 1, cr0, cr12, cr0, {0}
     f3c:	03193f01 	tsteq	r9, #1, 30
     f40:	3b0b3a0e 	blcc	2cf780 <__bss_end__+0x2c2ec8>
     f44:	49192705 	ldmdbmi	r9, {r0, r2, r8, r9, sl, sp}
     f48:	12011113 	andne	r1, r1, #-1073741820	; 0xc0000004
     f4c:	97184006 	ldrls	r4, [r8, -r6]
     f50:	13011942 	movwne	r1, #6466	; 0x1942
     f54:	051d0000 	ldreq	r0, [sp, #-0]
     f58:	3a0e0300 	bcc	381b60 <__bss_end__+0x3752a8>
     f5c:	49053b0b 	stmdbmi	r5, {r0, r1, r3, r8, r9, fp, ip, sp}
     f60:	00170213 	andseq	r0, r7, r3, lsl r2
     f64:	012e1e00 	teqeq	lr, r0, lsl #28
     f68:	0e03193f 	mcreq	9, 0, r1, cr3, cr15, {1}
     f6c:	053b0b3a 	ldreq	r0, [fp, #-2874]!	; 0xb3a
     f70:	01111927 	tsteq	r1, r7, lsr #18
     f74:	18400612 	stmdane	r0, {r1, r4, r9, sl}^
     f78:	01194297 			; <UNDEFINED> instruction: 0x01194297
     f7c:	1f000013 	svcne	0x00000013
     f80:	08030005 	stmdaeq	r3, {r0, r2}
     f84:	053b0b3a 	ldreq	r0, [fp, #-2874]!	; 0xb3a
     f88:	17021349 	strne	r1, [r2, -r9, asr #6]
     f8c:	34200000 	strtcc	r0, [r0], #-0
     f90:	3a0e0300 	bcc	381b98 <__bss_end__+0x3752e0>
     f94:	49053b0b 	stmdbmi	r5, {r0, r1, r3, r8, r9, fp, ip, sp}
     f98:	00170213 	andseq	r0, r7, r3, lsl r2
     f9c:	010b2100 	mrseq	r2, (UNDEF: 27)
     fa0:	06120111 			; <UNDEFINED> instruction: 0x06120111
     fa4:	00001301 	andeq	r1, r0, r1, lsl #6
     fa8:	03003422 	movweq	r3, #1058	; 0x422
     fac:	3b0b3a0e 	blcc	2cf7ec <__bss_end__+0x2c2f34>
     fb0:	3f13490b 	svccc	0x0013490b
     fb4:	00180219 	andseq	r0, r8, r9, lsl r2
     fb8:	012e2300 	teqeq	lr, r0, lsl #6
     fbc:	0e03193f 	mcreq	9, 0, r1, cr3, cr15, {1}
     fc0:	0b3b0b3a 	bleq	ec3cb0 <__bss_end__+0xeb73f8>
     fc4:	13491927 	movtne	r1, #39207	; 0x9927
     fc8:	1301193c 	movwne	r1, #6460	; 0x193c
     fcc:	05240000 	streq	r0, [r4, #-0]!
     fd0:	00134900 	andseq	r4, r3, r0, lsl #18
     fd4:	00262500 	eoreq	r2, r6, r0, lsl #10
     fd8:	00001349 	andeq	r1, r0, r9, asr #6
     fdc:	00003526 	andeq	r3, r0, r6, lsr #10
     fe0:	012e2700 	teqeq	lr, r0, lsl #14
     fe4:	0e03193f 	mcreq	9, 0, r1, cr3, cr15, {1}
     fe8:	0b3b0b3a 	bleq	ec3cd8 <__bss_end__+0xeb7420>
     fec:	193c1927 	ldmdbne	ip!, {r0, r1, r2, r5, r8, fp, ip}
     ff0:	00001301 	andeq	r1, r0, r1, lsl #6
     ff4:	3f002e28 	svccc	0x00002e28
     ff8:	3a0e0319 	bcc	381c64 <__bss_end__+0x3753ac>
     ffc:	270b3b0b 	strcs	r3, [fp, -fp, lsl #22]
    1000:	00193c19 	andseq	r3, r9, r9, lsl ip
    1004:	11010000 	mrsne	r0, (UNDEF: 1)
    1008:	130e2501 	movwne	r2, #58625	; 0xe501
    100c:	1b0e030b 	blne	381c40 <__bss_end__+0x375388>
    1010:	1201110e 	andne	r1, r1, #-2147483645	; 0x80000003
    1014:	00171006 	andseq	r1, r7, r6
    1018:	00240200 	eoreq	r0, r4, r0, lsl #4
    101c:	0b3e0b0b 	bleq	f83c50 <__bss_end__+0xf77398>
    1020:	00000803 	andeq	r0, r0, r3, lsl #16
    1024:	0b002403 	bleq	a038 <__FUNCTION__.4447+0xe0>
    1028:	030b3e0b 	movweq	r3, #48651	; 0xbe0b
    102c:	0400000e 	streq	r0, [r0], #-14
    1030:	0b0b000f 	bleq	2c1074 <__bss_end__+0x2b47bc>
    1034:	00001349 	andeq	r1, r0, r9, asr #6
    1038:	49002605 	stmdbmi	r0, {r0, r2, r9, sl, sp}
    103c:	06000013 			; <UNDEFINED> instruction: 0x06000013
    1040:	13490101 	movtne	r0, #37121	; 0x9101
    1044:	00001301 	andeq	r1, r0, r1, lsl #6
    1048:	49002107 	stmdbmi	r0, {r0, r1, r2, r8, sp}
    104c:	000b2f13 	andeq	r2, fp, r3, lsl pc
    1050:	01040800 	tsteq	r4, r0, lsl #16
    1054:	0b3a0b0b 	bleq	e83c88 <__bss_end__+0xe773d0>
    1058:	13010b3b 	movwne	r0, #6971	; 0x1b3b
    105c:	28090000 	stmdacs	r9, {}	; <UNPREDICTABLE>
    1060:	1c0e0300 	stcne	3, cr0, [lr], {-0}
    1064:	0a00000d 	beq	10a0 <_start-0x6f60>
    1068:	193f012e 	ldmdbne	pc!, {r1, r2, r3, r5, r8}	; <UNPREDICTABLE>
    106c:	0b3a0e03 	bleq	e84880 <__bss_end__+0xe77fc8>
    1070:	19270b3b 	stmdbne	r7!, {r0, r1, r3, r4, r5, r8, r9, fp}
    1074:	06120111 			; <UNDEFINED> instruction: 0x06120111
    1078:	42971840 	addsmi	r1, r7, #64, 16	; 0x400000
    107c:	00130119 	andseq	r0, r3, r9, lsl r1
    1080:	00340b00 	eorseq	r0, r4, r0, lsl #22
    1084:	0b3a0e03 	bleq	e84898 <__bss_end__+0xe77fe0>
    1088:	13490b3b 	movtne	r0, #39739	; 0x9b3b
    108c:	193c193f 	ldmdbne	ip!, {r0, r1, r2, r3, r4, r5, r8, fp, ip}
    1090:	340c0000 	strcc	r0, [ip], #-0
    1094:	3a080300 	bcc	201c9c <__bss_end__+0x1f53e4>
    1098:	490b3b0b 	stmdbmi	fp, {r0, r1, r3, r8, r9, fp, ip, sp}
    109c:	000b1c13 	andeq	r1, fp, r3, lsl ip
    10a0:	00340d00 	eorseq	r0, r4, r0, lsl #26
    10a4:	0b3a0803 	bleq	e830b8 <__bss_end__+0xe76800>
    10a8:	13490b3b 	movtne	r0, #39739	; 0x9b3b
    10ac:	340e0000 	strcc	r0, [lr], #-0
    10b0:	3a080300 	bcc	201cb8 <__bss_end__+0x1f5400>
    10b4:	490b3b0b 	stmdbmi	fp, {r0, r1, r3, r8, r9, fp, ip, sp}
    10b8:	00180213 	andseq	r0, r8, r3, lsl r2
    10bc:	010b0f00 	tsteq	fp, r0, lsl #30
    10c0:	06120111 			; <UNDEFINED> instruction: 0x06120111
    10c4:	00001301 	andeq	r1, r0, r1, lsl #6
    10c8:	03003410 	movweq	r3, #1040	; 0x410
    10cc:	3b0b3a08 	blcc	2cf8f4 <__bss_end__+0x2c303c>
    10d0:	0213490b 	andseq	r4, r3, #180224	; 0x2c000
    10d4:	11000017 	tstne	r0, r7, lsl r0
    10d8:	01018289 	smlabbeq	r1, r9, r2, r8
    10dc:	13310111 	teqne	r1, #1073741828	; 0x40000004
    10e0:	00001301 	andeq	r1, r0, r1, lsl #6
    10e4:	01828a12 	orreq	r8, r2, r2, lsl sl
    10e8:	91180200 	tstls	r8, r0, lsl #4
    10ec:	00001842 	andeq	r1, r0, r2, asr #16
    10f0:	01828913 	orreq	r8, r2, r3, lsl r9
    10f4:	31011100 	mrscc	r1, (UNDEF: 17)
    10f8:	14000013 	strne	r0, [r0], #-19
    10fc:	08030005 	stmdaeq	r3, {r0, r2}
    1100:	0b3b0b3a 	bleq	ec3df0 <__bss_end__+0xeb7538>
    1104:	17021349 	strne	r1, [r2, -r9, asr #6]
    1108:	34150000 	ldrcc	r0, [r5], #-0
    110c:	490e0300 	stmdbmi	lr, {r8, r9}
    1110:	02193413 	andseq	r3, r9, #318767104	; 0x13000000
    1114:	16000018 			; <UNDEFINED> instruction: 0x16000018
    1118:	193f012e 	ldmdbne	pc!, {r1, r2, r3, r5, r8}	; <UNPREDICTABLE>
    111c:	0b3a0e03 	bleq	e84930 <__bss_end__+0xe78078>
    1120:	19270b3b 	stmdbne	r7!, {r0, r1, r3, r4, r5, r8, r9, fp}
    1124:	1301193c 	movwne	r1, #6460	; 0x193c
    1128:	05170000 	ldreq	r0, [r7, #-0]
    112c:	00134900 	andseq	r4, r3, r0, lsl #18
    1130:	002e1800 	eoreq	r1, lr, r0, lsl #16
    1134:	0e03193f 	mcreq	9, 0, r1, cr3, cr15, {1}
    1138:	0b3b0b3a 	bleq	ec3e28 <__bss_end__+0xeb7570>
    113c:	193c1927 	ldmdbne	ip!, {r0, r1, r2, r5, r8, fp, ip}
    1140:	2e190000 	cdpcs	0, 1, cr0, cr9, cr0, {0}
    1144:	03193f01 	tsteq	r9, #1, 30
    1148:	3b0b3a0e 	blcc	2cf988 <__bss_end__+0x2c30d0>
    114c:	4919270b 	ldmdbmi	r9, {r0, r1, r3, r8, r9, sl, sp}
    1150:	01193c13 	tsteq	r9, r3, lsl ip
    1154:	1a000013 	bne	11a8 <_start-0x6e58>
    1158:	00000018 	andeq	r0, r0, r8, lsl r0
    115c:	01110100 	tsteq	r1, r0, lsl #2
    1160:	0b130e25 	bleq	4c49fc <__bss_end__+0x4b8144>
    1164:	0e1b0e03 	cdpeq	14, 1, cr0, cr11, cr3, {0}
    1168:	06120111 			; <UNDEFINED> instruction: 0x06120111
    116c:	00001710 	andeq	r1, r0, r0, lsl r7
    1170:	0b002402 	bleq	a180 <__FUNCTION__.4266+0xd4>
    1174:	030b3e0b 	movweq	r3, #48651	; 0xbe0b
    1178:	03000008 	movweq	r0, #8
    117c:	0b0b0024 	bleq	2c1214 <__bss_end__+0x2b495c>
    1180:	0e030b3e 	vmoveq.16	d3[0], r0
    1184:	04040000 	streq	r0, [r4], #-0
    1188:	3a0b0b01 	bcc	2c3d94 <__bss_end__+0x2b74dc>
    118c:	010b3b0b 	tsteq	fp, fp, lsl #22
    1190:	05000013 	streq	r0, [r0, #-19]
    1194:	0e030028 	cdpeq	0, 0, cr0, cr3, cr8, {1}
    1198:	00000d1c 	andeq	r0, r0, ip, lsl sp
    119c:	03001606 	movweq	r1, #1542	; 0x606
    11a0:	3b0b3a0e 	blcc	2cf9e0 <__bss_end__+0x2c3128>
    11a4:	0013490b 	andseq	r4, r3, fp, lsl #18
    11a8:	012e0700 	teqeq	lr, r0, lsl #14
    11ac:	0b3a0e03 	bleq	e849c0 <__bss_end__+0xe78108>
    11b0:	19270b3b 	stmdbne	r7!, {r0, r1, r3, r4, r5, r8, r9, fp}
    11b4:	01111349 	tsteq	r1, r9, asr #6
    11b8:	18400612 	stmdane	r0, {r1, r4, r9, sl}^
    11bc:	01194297 			; <UNDEFINED> instruction: 0x01194297
    11c0:	08000013 	stmdaeq	r0, {r0, r1, r4}
    11c4:	00018289 	andeq	r8, r1, r9, lsl #5
    11c8:	13310111 	teqne	r1, #1073741828	; 0x40000004
    11cc:	2e090000 	cdpcs	0, 0, cr0, cr9, cr0, {0}
    11d0:	03193f01 	tsteq	r9, #1, 30
    11d4:	3b0b3a0e 	blcc	2cfa14 <__bss_end__+0x2c315c>
    11d8:	1119270b 	tstne	r9, fp, lsl #14
    11dc:	40061201 	andmi	r1, r6, r1, lsl #4
    11e0:	19429718 	stmdbne	r2, {r3, r4, r8, r9, sl, ip, pc}^
    11e4:	00001301 	andeq	r1, r0, r1, lsl #6
    11e8:	0182890a 	orreq	r8, r2, sl, lsl #18
    11ec:	31011101 	tstcc	r1, r1, lsl #2
    11f0:	00130113 	andseq	r0, r3, r3, lsl r1
    11f4:	828a0b00 	addhi	r0, sl, #0, 22
    11f8:	18020001 	stmdane	r2, {r0}
    11fc:	00184291 	mulseq	r8, r1, r2
    1200:	012e0c00 	teqeq	lr, r0, lsl #24
    1204:	0e03193f 	mcreq	9, 0, r1, cr3, cr15, {1}
    1208:	0b3b0b3a 	bleq	ec3ef8 <__bss_end__+0xeb7640>
    120c:	13491927 	movtne	r1, #39207	; 0x9927
    1210:	06120111 			; <UNDEFINED> instruction: 0x06120111
    1214:	42971840 	addsmi	r1, r7, #64, 16	; 0x400000
    1218:	00130119 	andseq	r0, r3, r9, lsl r1
    121c:	00050d00 	andeq	r0, r5, r0, lsl #26
    1220:	0b3a0803 	bleq	e83234 <__bss_end__+0xe7697c>
    1224:	13490b3b 	movtne	r0, #39739	; 0x9b3b
    1228:	00001702 	andeq	r1, r0, r2, lsl #14
    122c:	0182890e 	orreq	r8, r2, lr, lsl #18
    1230:	31011101 	tstcc	r1, r1, lsl #2
    1234:	0f000013 	svceq	0x00000013
    1238:	0e030034 	mcreq	0, 0, r0, cr3, cr4, {1}
    123c:	0b3b0b3a 	bleq	ec3f2c <__bss_end__+0xeb7674>
    1240:	193f1349 	ldmdbne	pc!, {r0, r3, r6, r8, r9, ip}	; <UNPREDICTABLE>
    1244:	00001802 	andeq	r1, r0, r2, lsl #16
    1248:	0b000f10 	bleq	4e90 <_start-0x3170>
    124c:	0013490b 	andseq	r4, r3, fp, lsl #18
    1250:	00351100 	eorseq	r1, r5, r0, lsl #2
    1254:	00001349 	andeq	r1, r0, r9, asr #6
    1258:	3f012e12 	svccc	0x00012e12
    125c:	3a0e0319 	bcc	381ec8 <__bss_end__+0x375610>
    1260:	270b3b0b 	strcs	r3, [fp, -fp, lsl #22]
    1264:	3c134919 	ldccc	9, cr4, [r3], {25}
    1268:	00130119 	andseq	r0, r3, r9, lsl r1
    126c:	00051300 	andeq	r1, r5, r0, lsl #6
    1270:	00001349 	andeq	r1, r0, r9, asr #6
    1274:	49002614 	stmdbmi	r0, {r2, r4, r9, sl, sp}
    1278:	15000013 	strne	r0, [r0, #-19]
    127c:	00000035 	andeq	r0, r0, r5, lsr r0
    1280:	3f002e16 	svccc	0x00002e16
    1284:	3a0e0319 	bcc	381ef0 <__bss_end__+0x375638>
    1288:	270b3b0b 	strcs	r3, [fp, -fp, lsl #22]
    128c:	00193c19 	andseq	r3, r9, r9, lsl ip
    1290:	012e1700 	teqeq	lr, r0, lsl #14
    1294:	0e03193f 	mcreq	9, 0, r1, cr3, cr15, {1}
    1298:	0b3b0b3a 	bleq	ec3f88 <__bss_end__+0xeb76d0>
    129c:	193c1927 	ldmdbne	ip!, {r0, r1, r2, r5, r8, fp, ip}
    12a0:	00001301 	andeq	r1, r0, r1, lsl #6
    12a4:	01110100 	tsteq	r1, r0, lsl #2
    12a8:	0b130e25 	bleq	4c4b44 <__bss_end__+0x4b828c>
    12ac:	0e1b0e03 	cdpeq	14, 1, cr0, cr11, cr3, {0}
    12b0:	06120111 			; <UNDEFINED> instruction: 0x06120111
    12b4:	00001710 	andeq	r1, r0, r0, lsl r7
    12b8:	0b002402 	bleq	a2c8 <__FUNCTION__.4224+0x8c>
    12bc:	030b3e0b 	movweq	r3, #48651	; 0xbe0b
    12c0:	03000008 	movweq	r0, #8
    12c4:	0b0b0024 	bleq	2c135c <__bss_end__+0x2b4aa4>
    12c8:	0e030b3e 	vmoveq.16	d3[0], r0
    12cc:	2e040000 	cdpcs	0, 0, cr0, cr4, cr0, {0}
    12d0:	3a0e0301 	bcc	381edc <__bss_end__+0x375624>
    12d4:	270b3b0b 	strcs	r3, [fp, -fp, lsl #22]
    12d8:	11134919 	tstne	r3, r9, lsl r9
    12dc:	40061201 	andmi	r1, r6, r1, lsl #4
    12e0:	19429718 	stmdbne	r2, {r3, r4, r8, r9, sl, ip, pc}^
    12e4:	00001301 	andeq	r1, r0, r1, lsl #6
    12e8:	03000505 	movweq	r0, #1285	; 0x505
    12ec:	3b0b3a08 	blcc	2cfb14 <__bss_end__+0x2c325c>
    12f0:	0213490b 	andseq	r4, r3, #180224	; 0x2c000
    12f4:	06000017 			; <UNDEFINED> instruction: 0x06000017
    12f8:	01018289 	smlabbeq	r1, r9, r2, r8
    12fc:	13310111 	teqne	r1, #1073741828	; 0x40000004
    1300:	8a070000 	bhi	1c1308 <__bss_end__+0x1b4a50>
    1304:	02000182 	andeq	r0, r0, #-2147483616	; 0x80000020
    1308:	18429118 	stmdane	r2, {r3, r4, r8, ip, pc}^
    130c:	15080000 	strne	r0, [r8, #-0]
    1310:	49192701 	ldmdbmi	r9, {r0, r8, r9, sl, sp}
    1314:	00130113 	andseq	r0, r3, r3, lsl r1
    1318:	00050900 	andeq	r0, r5, r0, lsl #18
    131c:	00001349 	andeq	r1, r0, r9, asr #6
    1320:	0300340a 	movweq	r3, #1034	; 0x40a
    1324:	3b0b3a0e 	blcc	2cfb64 <__bss_end__+0x2c32ac>
    1328:	3f13490b 	svccc	0x0013490b
    132c:	00180219 	andseq	r0, r8, r9, lsl r2
    1330:	000f0b00 	andeq	r0, pc, r0, lsl #22
    1334:	13490b0b 	movtne	r0, #39691	; 0x9b0b
    1338:	2e0c0000 	cdpcs	0, 0, cr0, cr12, cr0, {0}
    133c:	03193f01 	tsteq	r9, #1, 30
    1340:	3b0b3a0e 	blcc	2cfb80 <__bss_end__+0x2c32c8>
    1344:	3c19270b 	ldccc	7, cr2, [r9], {11}
    1348:	00000019 	andeq	r0, r0, r9, lsl r0

Disassembly of section .debug_loc:

00000000 <.debug_loc>:
       0:	00000000 	andeq	r0, r0, r0
       4:	00000028 	andeq	r0, r0, r8, lsr #32
       8:	28500001 	ldmdacs	r0, {r0}^
       c:	74000000 	strvc	r0, [r0], #-0
      10:	04000001 	streq	r0, [r0], #-1
      14:	5001f300 	andpl	pc, r1, r0, lsl #6
      18:	0000009f 	muleq	r0, pc, r0	; <UNPREDICTABLE>
	...
      24:	00002c00 	andeq	r2, r0, r0, lsl #24
      28:	51000100 	mrspl	r0, (UNDEF: 16)
      2c:	0000002c 	andeq	r0, r0, ip, lsr #32
      30:	00000174 	andeq	r0, r0, r4, ror r1
      34:	01f30004 	mvnseq	r0, r4
      38:	00009f51 	andeq	r9, r0, r1, asr pc
      3c:	00000000 	andeq	r0, r0, r0
      40:	001c0000 	andseq	r0, ip, r0
      44:	01440000 	mrseq	r0, (UNDEF: 68)
      48:	00010000 	andeq	r0, r1, r0
      4c:	00000055 	andeq	r0, r0, r5, asr r0
      50:	00000000 	andeq	r0, r0, r0
      54:	00002000 	andeq	r2, r0, r0
      58:	00004400 	andeq	r4, r0, r0, lsl #8
      5c:	55000100 	strpl	r0, [r0, #-256]	; 0x100
      60:	00000044 	andeq	r0, r0, r4, asr #32
      64:	00000144 	andeq	r0, r0, r4, asr #2
      68:	44580001 	ldrbmi	r0, [r8], #-1
      6c:	74000001 	strvc	r0, [r0], #-1
      70:	01000001 	tsteq	r0, r1
      74:	00005500 	andeq	r5, r0, r0, lsl #10
      78:	00000000 	andeq	r0, r0, r0
      7c:	00240000 	eoreq	r0, r4, r0
      80:	01440000 	mrseq	r0, (UNDEF: 68)
      84:	00010000 	andeq	r0, r1, r0
      88:	00000055 	andeq	r0, r0, r5, asr r0
      8c:	00000000 	andeq	r0, r0, r0
      90:	00003000 	andeq	r3, r0, r0
      94:	00014400 	andeq	r4, r1, r0, lsl #8
      98:	55000100 	strpl	r0, [r0, #-256]	; 0x100
	...
      a4:	00000034 	andeq	r0, r0, r4, lsr r0
      a8:	00000038 	andeq	r0, r0, r8, lsr r0
      ac:	00530001 	subseq	r0, r3, r1
      b0:	00000000 	andeq	r0, r0, r0
      b4:	44000000 	strmi	r0, [r0], #-0
      b8:	64000000 	strvs	r0, [r0], #-0
      bc:	01000000 	mrseq	r0, (UNDEF: 0)
      c0:	00645800 	rsbeq	r5, r4, r0, lsl #16
      c4:	01440000 	mrseq	r0, (UNDEF: 68)
      c8:	00050000 	andeq	r0, r5, r0
      cc:	24310075 	ldrtcs	r0, [r1], #-117	; 0x75
      d0:	0000009f 	muleq	r0, pc, r0	; <UNPREDICTABLE>
      d4:	00000000 	andeq	r0, r0, r0
      d8:	00004400 	andeq	r4, r0, r0, lsl #8
      dc:	00004c00 	andeq	r4, r0, r0, lsl #24
      e0:	77000500 	strvc	r0, [r0, -r0, lsl #10]
      e4:	9f1a3100 	svcls	0x001a3100
      e8:	0000004c 	andeq	r0, r0, ip, asr #32
      ec:	0000004f 	andeq	r0, r0, pc, asr #32
      f0:	4f510001 	svcmi	0x00510001
      f4:	74000000 	strvc	r0, [r0], #-0
      f8:	05000001 	streq	r0, [r0, #-1]
      fc:	31007700 	tstcc	r0, r0, lsl #14
     100:	00009f1a 	andeq	r9, r0, sl, lsl pc
     104:	00000000 	andeq	r0, r0, r0
     108:	00500000 	subseq	r0, r0, r0
     10c:	00640000 	rsbeq	r0, r4, r0
     110:	00010000 	andeq	r0, r1, r0
     114:	00006458 	andeq	r6, r0, r8, asr r4
     118:	00014400 	andeq	r4, r1, r0, lsl #8
     11c:	75000500 	strvc	r0, [r0, #-1280]	; 0x500
     120:	9f243100 	svcls	0x00243100
	...
     12c:	00000054 	andeq	r0, r0, r4, asr r0
     130:	00000058 	andeq	r0, r0, r8, asr r0
     134:	00530001 	subseq	r0, r3, r1
     138:	00000000 	andeq	r0, r0, r0
     13c:	64000000 	strvs	r0, [r0], #-0
     140:	84000000 	strhi	r0, [r0], #-0
     144:	01000000 	mrseq	r0, (UNDEF: 0)
     148:	00845800 	addeq	r5, r4, r0, lsl #16
     14c:	01440000 	mrseq	r0, (UNDEF: 68)
     150:	00080000 	andeq	r0, r8, r0
     154:	24310075 	ldrtcs	r0, [r1], #-117	; 0x75
     158:	9f220075 	svcls	0x00220075
	...
     164:	00000070 	andeq	r0, r0, r0, ror r0
     168:	00000084 	andeq	r0, r0, r4, lsl #1
     16c:	84580001 	ldrbhi	r0, [r8], #-1
     170:	44000000 	strmi	r0, [r0], #-0
     174:	08000001 	stmdaeq	r0, {r0}
     178:	31007500 	tstcc	r0, r0, lsl #10
     17c:	22007524 	andcs	r7, r0, #36, 10	; 0x9000000
     180:	0000009f 	muleq	r0, pc, r0	; <UNPREDICTABLE>
     184:	00000000 	andeq	r0, r0, r0
     188:	00007400 	andeq	r7, r0, r0, lsl #8
     18c:	00007800 	andeq	r7, r0, r0, lsl #16
     190:	53000100 	movwpl	r0, #256	; 0x100
	...
     19c:	00000084 	andeq	r0, r0, r4, lsl #1
     1a0:	000000a4 	andeq	r0, r0, r4, lsr #1
     1a4:	a4580001 	ldrbge	r0, [r8], #-1
     1a8:	44000000 	strmi	r0, [r0], #-0
     1ac:	05000001 	streq	r0, [r0, #-1]
     1b0:	32007500 	andcc	r7, r0, #0, 10
     1b4:	00009f24 	andeq	r9, r0, r4, lsr #30
     1b8:	00000000 	andeq	r0, r0, r0
     1bc:	00900000 	addseq	r0, r0, r0
     1c0:	00a40000 	adceq	r0, r4, r0
     1c4:	00010000 	andeq	r0, r1, r0
     1c8:	0000a458 	andeq	sl, r0, r8, asr r4
     1cc:	00014400 	andeq	r4, r1, r0, lsl #8
     1d0:	75000500 	strvc	r0, [r0, #-1280]	; 0x500
     1d4:	9f243200 	svcls	0x00243200
	...
     1e0:	00000094 	muleq	r0, r4, r0
     1e4:	00000098 	muleq	r0, r8, r0
     1e8:	00530001 	subseq	r0, r3, r1
     1ec:	00000000 	andeq	r0, r0, r0
     1f0:	a4000000 	strge	r0, [r0], #-0
     1f4:	c4000000 	strgt	r0, [r0], #-0
     1f8:	01000000 	mrseq	r0, (UNDEF: 0)
     1fc:	00c45800 	sbceq	r5, r4, r0, lsl #16
     200:	01440000 	mrseq	r0, (UNDEF: 68)
     204:	00080000 	andeq	r0, r8, r0
     208:	24320075 	ldrtcs	r0, [r2], #-117	; 0x75
     20c:	9f220075 	svcls	0x00220075
	...
     218:	000000b0 	strheq	r0, [r0], -r0	; <UNPREDICTABLE>
     21c:	000000c4 	andeq	r0, r0, r4, asr #1
     220:	c4580001 	ldrbgt	r0, [r8], #-1
     224:	44000000 	strmi	r0, [r0], #-0
     228:	08000001 	stmdaeq	r0, {r0}
     22c:	32007500 	andcc	r7, r0, #0, 10
     230:	22007524 	andcs	r7, r0, #36, 10	; 0x9000000
     234:	0000009f 	muleq	r0, pc, r0	; <UNPREDICTABLE>
     238:	00000000 	andeq	r0, r0, r0
     23c:	0000b400 	andeq	fp, r0, r0, lsl #8
     240:	0000b800 	andeq	fp, r0, r0, lsl #16
     244:	53000100 	movwpl	r0, #256	; 0x100
	...
     250:	000000c4 	andeq	r0, r0, r4, asr #1
     254:	000000e4 	andeq	r0, r0, r4, ror #1
     258:	e4580001 	ldrb	r0, [r8], #-1
     25c:	44000000 	strmi	r0, [r0], #-0
     260:	0a000001 	beq	26c <_start-0x7d94>
     264:	32007500 	andcc	r7, r0, #0, 10
     268:	31007524 	tstcc	r0, r4, lsr #10
     26c:	009f2224 	addseq	r2, pc, r4, lsr #4
     270:	00000000 	andeq	r0, r0, r0
     274:	d0000000 	andle	r0, r0, r0
     278:	e4000000 	str	r0, [r0], #-0
     27c:	01000000 	mrseq	r0, (UNDEF: 0)
     280:	00e45800 	rsceq	r5, r4, r0, lsl #16
     284:	01440000 	mrseq	r0, (UNDEF: 68)
     288:	000a0000 	andeq	r0, sl, r0
     28c:	24320075 	ldrtcs	r0, [r2], #-117	; 0x75
     290:	24310075 	ldrtcs	r0, [r1], #-117	; 0x75
     294:	00009f22 	andeq	r9, r0, r2, lsr #30
     298:	00000000 	andeq	r0, r0, r0
     29c:	00d40000 	sbcseq	r0, r4, r0
     2a0:	00d80000 	sbcseq	r0, r8, r0
     2a4:	00010000 	andeq	r0, r1, r0
     2a8:	00000053 	andeq	r0, r0, r3, asr r0
     2ac:	00000000 	andeq	r0, r0, r0
     2b0:	0000e400 	andeq	lr, r0, r0, lsl #8
     2b4:	00010400 	andeq	r0, r1, r0, lsl #8
     2b8:	58000100 	stmdapl	r0, {r8}
     2bc:	00000104 	andeq	r0, r0, r4, lsl #2
     2c0:	00000144 	andeq	r0, r0, r4, asr #2
     2c4:	0075000d 	rsbseq	r0, r5, sp
     2c8:	00752432 	rsbseq	r2, r5, r2, lsr r4
     2cc:	75222431 	strvc	r2, [r2, #-1073]!	; 0x431
     2d0:	009f2200 	addseq	r2, pc, r0, lsl #4
     2d4:	00000000 	andeq	r0, r0, r0
     2d8:	f0000000 			; <UNDEFINED> instruction: 0xf0000000
     2dc:	04000000 	streq	r0, [r0], #-0
     2e0:	01000001 	tsteq	r0, r1
     2e4:	01045800 	tsteq	r4, r0, lsl #16
     2e8:	01440000 	mrseq	r0, (UNDEF: 68)
     2ec:	000d0000 	andeq	r0, sp, r0
     2f0:	24320075 	ldrtcs	r0, [r2], #-117	; 0x75
     2f4:	24310075 	ldrtcs	r0, [r1], #-117	; 0x75
     2f8:	22007522 	andcs	r7, r0, #142606336	; 0x8800000
     2fc:	0000009f 	muleq	r0, pc, r0	; <UNPREDICTABLE>
     300:	00000000 	andeq	r0, r0, r0
     304:	0000f400 	andeq	pc, r0, r0, lsl #8
     308:	0000f800 	andeq	pc, r0, r0, lsl #16
     30c:	53000100 	movwpl	r0, #256	; 0x100
	...
     318:	00000104 	andeq	r0, r0, r4, lsl #2
     31c:	00000124 	andeq	r0, r0, r4, lsr #2
     320:	24580001 	ldrbcs	r0, [r8], #-1
     324:	44000001 	strmi	r0, [r0], #-1
     328:	05000001 	streq	r0, [r0, #-1]
     32c:	33007500 	movwcc	r7, #1280	; 0x500
     330:	00009f24 	andeq	r9, r0, r4, lsr #30
     334:	00000000 	andeq	r0, r0, r0
     338:	01100000 	tsteq	r0, r0
     33c:	01240000 	teqeq	r4, r0
     340:	00010000 	andeq	r0, r1, r0
     344:	00012458 	andeq	r2, r1, r8, asr r4
     348:	00014400 	andeq	r4, r1, r0, lsl #8
     34c:	75000500 	strvc	r0, [r0, #-1280]	; 0x500
     350:	9f243300 	svcls	0x00243300
	...
     35c:	00000114 	andeq	r0, r0, r4, lsl r1
     360:	00000118 	andeq	r0, r0, r8, lsl r1
     364:	00530001 	subseq	r0, r3, r1
     368:	00000000 	andeq	r0, r0, r0
     36c:	24000000 	strcs	r0, [r0], #-0
     370:	2c000001 	stccs	0, cr0, [r0], {1}
     374:	06000001 	streq	r0, [r0], -r1
     378:	08007700 	stmdaeq	r0, {r8, r9, sl, ip, sp, lr}
     37c:	2c9f1a80 	vldmiacs	pc, {s2-s129}
     380:	2f000001 	svccs	0x00000001
     384:	01000001 	tsteq	r0, r1
     388:	012f5100 	teqeq	pc, r0, lsl #2
     38c:	01740000 	cmneq	r4, r0
     390:	00060000 	andeq	r0, r6, r0
     394:	80080077 	andhi	r0, r8, r7, ror r0
     398:	00009f1a 	andeq	r9, r0, sl, lsl pc
     39c:	00000000 	andeq	r0, r0, r0
     3a0:	01340000 	teqeq	r4, r0
     3a4:	01380000 	teqeq	r8, r0
     3a8:	00010000 	andeq	r0, r1, r0
     3ac:	00000053 	andeq	r0, r0, r3, asr r0
     3b0:	00000000 	andeq	r0, r0, r0
     3b4:	00015400 	andeq	r5, r1, r0, lsl #8
     3b8:	00015800 	andeq	r5, r1, r0, lsl #16
     3bc:	53000100 	movwpl	r0, #256	; 0x100
	...
     3c8:	00000174 	andeq	r0, r0, r4, ror r1
     3cc:	000001a8 	andeq	r0, r0, r8, lsr #3
     3d0:	a8500001 	ldmdage	r0, {r0}^
     3d4:	f4000001 	vst4.8	{d0-d3}, [r0], r1
     3d8:	04000002 	streq	r0, [r0], #-2
     3dc:	5001f300 	andpl	pc, r1, r0, lsl #6
     3e0:	0000009f 	muleq	r0, pc, r0	; <UNPREDICTABLE>
     3e4:	00000000 	andeq	r0, r0, r0
     3e8:	00017400 	andeq	r7, r1, r0, lsl #8
     3ec:	0001ab00 	andeq	sl, r1, r0, lsl #22
     3f0:	51000100 	mrspl	r0, (UNDEF: 16)
     3f4:	000001ab 	andeq	r0, r0, fp, lsr #3
     3f8:	000002f4 	strdeq	r0, [r0], -r4
     3fc:	00570001 	subseq	r0, r7, r1
     400:	00000000 	andeq	r0, r0, r0
     404:	88000000 	stmdahi	r0, {}	; <UNPREDICTABLE>
     408:	78000001 	stmdavc	r0, {r0}
     40c:	01000002 	tsteq	r0, r2
     410:	00005800 	andeq	r5, r0, r0, lsl #16
     414:	00000000 	andeq	r0, r0, r0
     418:	018c0000 	orreq	r0, ip, r0
     41c:	02b00000 	adcseq	r0, r0, #0
     420:	00010000 	andeq	r0, r1, r0
     424:	00000054 	andeq	r0, r0, r4, asr r0
     428:	00000000 	andeq	r0, r0, r0
     42c:	00018c00 	andeq	r8, r1, r0, lsl #24
     430:	0002b000 	andeq	fp, r2, r0
     434:	74000500 	strvc	r0, [r0], #-1280	; 0x500
     438:	9f253100 	svcls	0x00253100
	...
     444:	0000018c 	andeq	r0, r0, ip, lsl #3
     448:	000001b0 			; <UNDEFINED> instruction: 0x000001b0
     44c:	9f300002 	svcls	0x00300002
     450:	000001b0 			; <UNDEFINED> instruction: 0x000001b0
     454:	000002f4 	strdeq	r0, [r0], -r4
     458:	00590001 	subseq	r0, r9, r1
     45c:	00000000 	andeq	r0, r0, r0
     460:	88000000 	stmdahi	r0, {}	; <UNPREDICTABLE>
     464:	a4000001 	strge	r0, [r0], #-1
     468:	01000001 	tsteq	r0, r1
     46c:	00005800 	andeq	r5, r0, r0, lsl #16
     470:	00000000 	andeq	r0, r0, r0
     474:	01900000 	orrseq	r0, r0, r0
     478:	01ab0000 			; <UNDEFINED> instruction: 0x01ab0000
     47c:	00010000 	andeq	r0, r1, r0
     480:	0001ab52 	andeq	sl, r1, r2, asr fp
     484:	0002b000 	andeq	fp, r2, r0
     488:	74000800 	strvc	r0, [r0], #-2048	; 0x800
     48c:	74253100 	strtvc	r3, [r5], #-256	; 0x100
     490:	009f2200 	addseq	r2, pc, r0, lsl #4
     494:	00000000 	andeq	r0, r0, r0
     498:	90000000 	andls	r0, r0, r0
     49c:	a4000001 	strge	r0, [r0], #-1
     4a0:	01000001 	tsteq	r0, r1
     4a4:	00005800 	andeq	r5, r0, r0, lsl #16
     4a8:	00000000 	andeq	r0, r0, r0
     4ac:	01940000 	orrseq	r0, r4, r0
     4b0:	01980000 	orrseq	r0, r8, r0
     4b4:	00010000 	andeq	r0, r1, r0
     4b8:	00000053 	andeq	r0, r0, r3, asr r0
     4bc:	00000000 	andeq	r0, r0, r0
     4c0:	0001b000 	andeq	fp, r1, r0
     4c4:	0002b000 	andeq	fp, r2, r0
     4c8:	54000100 	strpl	r0, [r0], #-256	; 0x100
	...
     4d4:	000001b0 			; <UNDEFINED> instruction: 0x000001b0
     4d8:	000001c4 	andeq	r0, r0, r4, asr #3
     4dc:	00580001 	subseq	r0, r8, r1
     4e0:	00000000 	andeq	r0, r0, r0
     4e4:	b4000000 	strlt	r0, [r0], #-0
     4e8:	b8000001 	stmdalt	r0, {r0}
     4ec:	01000001 	tsteq	r0, r1
     4f0:	00005300 	andeq	r5, r0, r0, lsl #6
     4f4:	00000000 	andeq	r0, r0, r0
     4f8:	01d40000 	bicseq	r0, r4, r0
     4fc:	02b00000 	adcseq	r0, r0, #0
     500:	00010000 	andeq	r0, r1, r0
     504:	00000054 	andeq	r0, r0, r4, asr r0
     508:	00000000 	andeq	r0, r0, r0
     50c:	0001d400 	andeq	sp, r1, r0, lsl #8
     510:	0001e800 	andeq	lr, r1, r0, lsl #16
     514:	58000100 	stmdapl	r0, {r8}
	...
     520:	000001d8 	ldrdeq	r0, [r0], -r8
     524:	000001dc 	ldrdeq	r0, [r0], -ip
     528:	00530001 	subseq	r0, r3, r1
     52c:	00000000 	andeq	r0, r0, r0
     530:	f8000000 			; <UNDEFINED> instruction: 0xf8000000
     534:	b0000001 	andlt	r0, r0, r1
     538:	01000002 	tsteq	r0, r2
     53c:	00005400 	andeq	r5, r0, r0, lsl #8
     540:	00000000 	andeq	r0, r0, r0
     544:	01f80000 	mvnseq	r0, r0
     548:	020c0000 	andeq	r0, ip, #0
     54c:	00010000 	andeq	r0, r1, r0
     550:	00000058 	andeq	r0, r0, r8, asr r0
     554:	00000000 	andeq	r0, r0, r0
     558:	0001fc00 	andeq	pc, r1, r0, lsl #24
     55c:	00020000 	andeq	r0, r2, r0
     560:	53000100 	movwpl	r0, #256	; 0x100
	...
     56c:	0000021c 	andeq	r0, r0, ip, lsl r2
     570:	000002b0 			; <UNDEFINED> instruction: 0x000002b0
     574:	00540001 	subseq	r0, r4, r1
     578:	00000000 	andeq	r0, r0, r0
     57c:	1c000000 	stcne	0, cr0, [r0], {-0}
     580:	30000002 	andcc	r0, r0, r2
     584:	01000002 	tsteq	r0, r2
     588:	00005800 	andeq	r5, r0, r0, lsl #16
     58c:	00000000 	andeq	r0, r0, r0
     590:	02200000 	eoreq	r0, r0, #0
     594:	02240000 	eoreq	r0, r4, #0
     598:	00010000 	andeq	r0, r1, r0
     59c:	00000053 	andeq	r0, r0, r3, asr r0
     5a0:	00000000 	andeq	r0, r0, r0
     5a4:	00024000 	andeq	r4, r2, r0
     5a8:	0002b000 	andeq	fp, r2, r0
     5ac:	54000100 	strpl	r0, [r0], #-256	; 0x100
	...
     5b8:	00000240 	andeq	r0, r0, r0, asr #4
     5bc:	00000254 	andeq	r0, r0, r4, asr r2
     5c0:	00580001 	subseq	r0, r8, r1
     5c4:	00000000 	andeq	r0, r0, r0
     5c8:	44000000 	strmi	r0, [r0], #-0
     5cc:	48000002 	stmdami	r0, {r1}
     5d0:	01000002 	tsteq	r0, r2
     5d4:	00005300 	andeq	r5, r0, r0, lsl #6
     5d8:	00000000 	andeq	r0, r0, r0
     5dc:	02640000 	rsbeq	r0, r4, #0
     5e0:	02b00000 	adcseq	r0, r0, #0
     5e4:	00010000 	andeq	r0, r1, r0
     5e8:	00000054 	andeq	r0, r0, r4, asr r0
     5ec:	00000000 	andeq	r0, r0, r0
     5f0:	00026400 	andeq	r6, r2, r0, lsl #8
     5f4:	00027800 	andeq	r7, r2, r0, lsl #16
     5f8:	58000100 	stmdapl	r0, {r8}
	...
     604:	00000268 	andeq	r0, r0, r8, ror #4
     608:	0000026c 	andeq	r0, r0, ip, ror #4
     60c:	00530001 	subseq	r0, r3, r1
     610:	00000000 	andeq	r0, r0, r0
     614:	88000000 	stmdahi	r0, {}	; <UNPREDICTABLE>
     618:	b0000002 	andlt	r0, r0, r2
     61c:	01000002 	tsteq	r0, r2
     620:	00005400 	andeq	r5, r0, r0, lsl #8
     624:	00000000 	andeq	r0, r0, r0
     628:	028c0000 	addeq	r0, ip, #0
     62c:	02900000 	addseq	r0, r0, #0
     630:	00010000 	andeq	r0, r1, r0
     634:	00000053 	andeq	r0, r0, r3, asr r0
     638:	00000000 	andeq	r0, r0, r0
     63c:	0002f400 	andeq	pc, r2, r0, lsl #8
     640:	00031400 	andeq	r1, r3, r0, lsl #8
     644:	50000100 	andpl	r0, r0, r0, lsl #2
     648:	00000314 	andeq	r0, r0, r4, lsl r3
     64c:	00000328 	andeq	r0, r0, r8, lsr #6
     650:	28580001 	ldmdacs	r8, {r0}^
     654:	38000003 	stmdacc	r0, {r0, r1}
     658:	01000003 	tsteq	r0, r3
     65c:	03385000 	teqeq	r8, #0
     660:	03800000 	orreq	r0, r0, #0
     664:	00010000 	andeq	r0, r1, r0
     668:	00000058 	andeq	r0, r0, r8, asr r0
     66c:	00000000 	andeq	r0, r0, r0
     670:	0002f400 	andeq	pc, r2, r0, lsl #8
     674:	00031800 	andeq	r1, r3, r0, lsl #16
     678:	51000100 	mrspl	r0, (UNDEF: 16)
     67c:	00000318 	andeq	r0, r0, r8, lsl r3
     680:	00000328 	andeq	r0, r0, r8, lsr #6
     684:	28560001 	ldmdacs	r6, {r0}^
     688:	38000003 	stmdacc	r0, {r0, r1}
     68c:	01000003 	tsteq	r0, r3
     690:	03385100 	teqeq	r8, #0, 2
     694:	03800000 	orreq	r0, r0, #0
     698:	00010000 	andeq	r0, r1, r0
     69c:	00000056 	andeq	r0, r0, r6, asr r0
     6a0:	00000000 	andeq	r0, r0, r0
     6a4:	0002f400 	andeq	pc, r2, r0, lsl #8
     6a8:	00031c00 	andeq	r1, r3, r0, lsl #24
     6ac:	52000100 	andpl	r0, r0, #0, 2
     6b0:	0000031c 	andeq	r0, r0, ip, lsl r3
     6b4:	00000328 	andeq	r0, r0, r8, lsr #6
     6b8:	01f30004 	mvnseq	r0, r4
     6bc:	03289f52 	teqeq	r8, #328	; 0x148
     6c0:	03380000 	teqeq	r8, #0
     6c4:	00010000 	andeq	r0, r1, r0
     6c8:	00033852 	andeq	r3, r3, r2, asr r8
     6cc:	00038000 	andeq	r8, r3, r0
     6d0:	77000300 	strvc	r0, [r0, -r0, lsl #6]
     6d4:	00009f01 	andeq	r9, r0, r1, lsl #30
     6d8:	00000000 	andeq	r0, r0, r0
     6dc:	02f40000 	rscseq	r0, r4, #0
     6e0:	03200000 	teqeq	r0, #0
     6e4:	00010000 	andeq	r0, r1, r0
     6e8:	00032053 	andeq	r2, r3, r3, asr r0
     6ec:	00032800 	andeq	r2, r3, r0, lsl #16
     6f0:	f3000400 	vshl.u8	d0, d0, d0
     6f4:	289f5301 	ldmcs	pc, {r0, r8, r9, ip, lr}	; <UNPREDICTABLE>
     6f8:	38000003 	stmdacc	r0, {r0, r1}
     6fc:	01000003 	tsteq	r0, r3
     700:	03385300 	teqeq	r8, #0, 6
     704:	03800000 	orreq	r0, r0, #0
     708:	00040000 	andeq	r0, r4, r0
     70c:	9f5301f3 	svcls	0x005301f3
	...
     718:	00000330 	andeq	r0, r0, r0, lsr r3
     71c:	00000338 	andeq	r0, r0, r8, lsr r3
     720:	9f300002 	svcls	0x00300002
     724:	00000338 	andeq	r0, r0, r8, lsr r3
     728:	00000380 	andeq	r0, r0, r0, lsl #7
     72c:	00540001 	subseq	r0, r4, r1
     730:	00000000 	andeq	r0, r0, r0
     734:	48000000 	stmdami	r0, {}	; <UNPREDICTABLE>
     738:	58000003 	stmdapl	r0, {r0, r1}
     73c:	01000003 	tsteq	r0, r3
     740:	00005000 	andeq	r5, r0, r0
     744:	00000000 	andeq	r0, r0, r0
     748:	03800000 	orreq	r0, r0, #0
     74c:	039c0000 	orrseq	r0, ip, #0
     750:	00010000 	andeq	r0, r1, r0
     754:	00039c50 	andeq	r9, r3, r0, asr ip
     758:	0003b000 	andeq	fp, r3, r0
     75c:	57000100 	strpl	r0, [r0, -r0, lsl #2]
     760:	000003b0 			; <UNDEFINED> instruction: 0x000003b0
     764:	000003c0 	andeq	r0, r0, r0, asr #7
     768:	c0500001 	subsgt	r0, r0, r1
     76c:	f8000003 			; <UNDEFINED> instruction: 0xf8000003
     770:	01000003 	tsteq	r0, r3
     774:	00005700 	andeq	r5, r0, r0, lsl #14
     778:	00000000 	andeq	r0, r0, r0
     77c:	03800000 	orreq	r0, r0, #0
     780:	03a00000 	moveq	r0, #0
     784:	00010000 	andeq	r0, r1, r0
     788:	0003a051 	andeq	sl, r3, r1, asr r0
     78c:	0003b000 	andeq	fp, r3, r0
     790:	55000100 	strpl	r0, [r0, #-256]	; 0x100
     794:	000003b0 			; <UNDEFINED> instruction: 0x000003b0
     798:	000003c0 	andeq	r0, r0, r0, asr #7
     79c:	c0510001 	subsgt	r0, r1, r1
     7a0:	f8000003 			; <UNDEFINED> instruction: 0xf8000003
     7a4:	01000003 	tsteq	r0, r3
     7a8:	00005500 	andeq	r5, r0, r0, lsl #10
     7ac:	00000000 	andeq	r0, r0, r0
     7b0:	03800000 	orreq	r0, r0, #0
     7b4:	03a40000 			; <UNDEFINED> instruction: 0x03a40000
     7b8:	00010000 	andeq	r0, r1, r0
     7bc:	0003a452 	andeq	sl, r3, r2, asr r4
     7c0:	0003b000 	andeq	fp, r3, r0
     7c4:	f3000400 	vshl.u8	d0, d0, d0
     7c8:	b09f5201 	addslt	r5, pc, r1, lsl #4
     7cc:	c0000003 	andgt	r0, r0, r3
     7d0:	01000003 	tsteq	r0, r3
     7d4:	03c05200 	biceq	r5, r0, #0, 4
     7d8:	03f80000 	mvnseq	r0, #0
     7dc:	00030000 	andeq	r0, r3, r0
     7e0:	009f0176 	addseq	r0, pc, r6, ror r1	; <UNPREDICTABLE>
     7e4:	00000000 	andeq	r0, r0, r0
     7e8:	80000000 	andhi	r0, r0, r0
     7ec:	a8000003 	stmdage	r0, {r0, r1}
     7f0:	01000003 	tsteq	r0, r3
     7f4:	03a85300 			; <UNDEFINED> instruction: 0x03a85300
     7f8:	03b00000 	movseq	r0, #0
     7fc:	00010000 	andeq	r0, r1, r0
     800:	0003b058 	andeq	fp, r3, r8, asr r0
     804:	0003c000 	andeq	ip, r3, r0
     808:	53000100 	movwpl	r0, #256	; 0x100
     80c:	000003c0 	andeq	r0, r0, r0, asr #7
     810:	000003f8 	strdeq	r0, [r0], -r8
     814:	00580001 	subseq	r0, r8, r1
     818:	00000000 	andeq	r0, r0, r0
     81c:	b8000000 	stmdalt	r0, {}	; <UNPREDICTABLE>
     820:	c0000003 	andgt	r0, r0, r3
     824:	02000003 	andeq	r0, r0, #3
     828:	c09f3000 	addsgt	r3, pc, r0
     82c:	f8000003 			; <UNDEFINED> instruction: 0xf8000003
     830:	01000003 	tsteq	r0, r3
     834:	00005400 	andeq	r5, r0, r0, lsl #8
     838:	00000000 	andeq	r0, r0, r0
     83c:	03f80000 	mvnseq	r0, #0
     840:	04170000 	ldreq	r0, [r7], #-0
     844:	00010000 	andeq	r0, r1, r0
     848:	00041751 	andeq	r1, r4, r1, asr r7
     84c:	0004b400 	andeq	fp, r4, r0, lsl #8
     850:	f3000400 	vshl.u8	d0, d0, d0
     854:	009f5101 	addseq	r5, pc, r1, lsl #2
     858:	00000000 	andeq	r0, r0, r0
     85c:	f8000000 			; <UNDEFINED> instruction: 0xf8000000
     860:	17000003 	strne	r0, [r0, -r3]
     864:	01000004 	tsteq	r0, r4
     868:	04175200 	ldreq	r5, [r7], #-512	; 0x200
     86c:	04b40000 	ldrteq	r0, [r4], #0
     870:	00040000 	andeq	r0, r4, r0
     874:	9f5201f3 	svcls	0x005201f3
	...
     880:	000003f8 	strdeq	r0, [r0], -r8
     884:	00000417 	andeq	r0, r0, r7, lsl r4
     888:	17530001 	ldrbne	r0, [r3, -r1]
     88c:	b4000004 	strlt	r0, [r0], #-4
     890:	01000004 	tsteq	r0, r4
     894:	00005500 	andeq	r5, r0, r0, lsl #10
     898:	00000000 	andeq	r0, r0, r0
     89c:	04380000 	ldrteq	r0, [r8], #-0
     8a0:	04800000 	streq	r0, [r0], #0
     8a4:	00010000 	andeq	r0, r1, r0
     8a8:	00048052 	andeq	r8, r4, r2, asr r0
     8ac:	00048c00 	andeq	r8, r4, r0, lsl #24
     8b0:	75000600 	strvc	r0, [r0, #-1536]	; 0x600
     8b4:	1e007700 	cdpne	7, 0, cr7, cr0, cr0, {0}
     8b8:	00048c9f 	muleq	r4, pc, ip	; <UNPREDICTABLE>
     8bc:	0004b400 	andeq	fp, r4, r0, lsl #8
     8c0:	52000100 	andpl	r0, r0, #0, 2
	...
     8cc:	000004b4 			; <UNDEFINED> instruction: 0x000004b4
     8d0:	000004bf 			; <UNDEFINED> instruction: 0x000004bf
     8d4:	bf500001 	svclt	0x00500001
     8d8:	ec000004 	stc	0, cr0, [r0], {4}
     8dc:	04000004 	streq	r0, [r0], #-4
     8e0:	5001f300 	andpl	pc, r1, r0, lsl #6
     8e4:	0000009f 	muleq	r0, pc, r0	; <UNPREDICTABLE>
     8e8:	00000000 	andeq	r0, r0, r0
     8ec:	0004c000 	andeq	ip, r4, r0
     8f0:	0004cc00 	andeq	ip, r4, r0, lsl #24
     8f4:	50000100 	andpl	r0, r0, r0, lsl #2
	...
     900:	000004ec 	andeq	r0, r0, ip, ror #9
     904:	000004fc 	strdeq	r0, [r0], -ip
     908:	fc500001 	mrrc2	0, 0, r0, r0, cr1	; <UNPREDICTABLE>
     90c:	18000004 	stmdane	r0, {r2}
     910:	01000005 	tsteq	r0, r5
     914:	00005500 	andeq	r5, r0, r0, lsl #10
     918:	00000000 	andeq	r0, r0, r0
     91c:	04ec0000 	strbteq	r0, [ip], #0
     920:	04fc0000 	ldrbteq	r0, [ip], #0
     924:	00010000 	andeq	r0, r1, r0
     928:	0004fc51 	andeq	pc, r4, r1, asr ip	; <UNPREDICTABLE>
     92c:	00051800 	andeq	r1, r5, r0, lsl #16
     930:	54000100 	strpl	r0, [r0], #-256	; 0x100
	...
     93c:	00000518 	andeq	r0, r0, r8, lsl r5
     940:	00000534 	andeq	r0, r0, r4, lsr r5
     944:	34500001 	ldrbcc	r0, [r0], #-1
     948:	80000005 	andhi	r0, r0, r5
     94c:	01000005 	tsteq	r0, r5
     950:	05805500 	streq	r5, [r0, #1280]	; 0x500
     954:	05980000 	ldreq	r0, [r8]
     958:	00040000 	andeq	r0, r4, r0
     95c:	9f5001f3 	svcls	0x005001f3
	...
     968:	00000544 	andeq	r0, r0, r4, asr #10
     96c:	00000554 	andeq	r0, r0, r4, asr r5
     970:	54500001 	ldrbpl	r0, [r0], #-1
     974:	68000005 	stmdavs	r0, {r0, r2}
     978:	01000005 	tsteq	r0, r5
     97c:	05685400 	strbeq	r5, [r8, #-1024]!	; 0x400
     980:	056c0000 	strbeq	r0, [ip, #-0]!
     984:	00010000 	andeq	r0, r1, r0
     988:	00056c50 	andeq	r6, r5, r0, asr ip
     98c:	00058000 	andeq	r8, r5, r0
     990:	54000100 	strpl	r0, [r0], #-256	; 0x100
     994:	00000580 	andeq	r0, r0, r0, lsl #11
     998:	00000598 	muleq	r0, r8, r5
     99c:	00500001 	subseq	r0, r0, r1
     9a0:	00000000 	andeq	r0, r0, r0
     9a4:	98000000 	stmdals	r0, {}	; <UNPREDICTABLE>
     9a8:	ab000005 	blge	9c4 <_start-0x763c>
     9ac:	01000005 	tsteq	r0, r5
     9b0:	05ab5000 	streq	r5, [fp, #0]!
     9b4:	05e00000 	strbeq	r0, [r0, #0]!
     9b8:	00040000 	andeq	r0, r4, r0
     9bc:	9f5001f3 	svcls	0x005001f3
	...
     9c8:	00000598 	muleq	r0, r8, r5
     9cc:	000005ab 	andeq	r0, r0, fp, lsr #11
     9d0:	ab510001 	blge	14409dc <__bss_end__+0x1434124>
     9d4:	e0000005 	and	r0, r0, r5
     9d8:	04000005 	streq	r0, [r0], #-5
     9dc:	5101f300 	mrspl	pc, SP_irq	; <UNPREDICTABLE>
     9e0:	0000009f 	muleq	r0, pc, r0	; <UNPREDICTABLE>
     9e4:	00000000 	andeq	r0, r0, r0
     9e8:	00059800 	andeq	r9, r5, r0, lsl #16
     9ec:	0005ab00 	andeq	sl, r5, r0, lsl #22
     9f0:	52000100 	andpl	r0, r0, #0, 2
     9f4:	000005ab 	andeq	r0, r0, fp, lsr #11
     9f8:	000005e0 	andeq	r0, r0, r0, ror #11
     9fc:	01f30004 	mvnseq	r0, r4
     a00:	00009f52 	andeq	r9, r0, r2, asr pc
     a04:	00000000 	andeq	r0, r0, r0
     a08:	05980000 	ldreq	r0, [r8]
     a0c:	05ab0000 	streq	r0, [fp, #0]!
     a10:	00010000 	andeq	r0, r1, r0
     a14:	0005ab53 	andeq	sl, r5, r3, asr fp
     a18:	0005e000 	andeq	lr, r5, r0
     a1c:	f3000400 	vshl.u8	d0, d0, d0
     a20:	009f5301 	addseq	r5, pc, r1, lsl #6
     a24:	00000000 	andeq	r0, r0, r0
     a28:	ac000000 	stcge	0, cr0, [r0], {-0}
     a2c:	b8000005 	stmdalt	r0, {r0, r2}
     a30:	01000005 	tsteq	r0, r5
     a34:	05cc5000 	strbeq	r5, [ip]
     a38:	05e00000 	strbeq	r0, [r0, #0]!
     a3c:	00010000 	andeq	r0, r1, r0
     a40:	00000050 	andeq	r0, r0, r0, asr r0
     a44:	00000000 	andeq	r0, r0, r0
     a48:	0005e000 	andeq	lr, r5, r0
     a4c:	0005f800 	andeq	pc, r5, r0, lsl #16
     a50:	50000100 	andpl	r0, r0, r0, lsl #2
     a54:	000005f8 	strdeq	r0, [r0], -r8
     a58:	0000060c 	andeq	r0, r0, ip, lsl #12
     a5c:	01f30004 	mvnseq	r0, r4
     a60:	060c9f50 			; <UNDEFINED> instruction: 0x060c9f50
     a64:	06200000 	strteq	r0, [r0], -r0
     a68:	00010000 	andeq	r0, r1, r0
     a6c:	00062050 	andeq	r2, r6, r0, asr r0
     a70:	0006e400 	andeq	lr, r6, r0, lsl #8
     a74:	f3000400 	vshl.u8	d0, d0, d0
     a78:	009f5001 	addseq	r5, pc, r1
     a7c:	00000000 	andeq	r0, r0, r0
     a80:	60000000 	andvs	r0, r0, r0
     a84:	a4000006 	strge	r0, [r0], #-6
     a88:	01000006 	tsteq	r0, r6
     a8c:	00005000 	andeq	r5, r0, r0
     a90:	00000000 	andeq	r0, r0, r0
     a94:	06600000 	strbteq	r0, [r0], -r0
     a98:	06a40000 	strteq	r0, [r4], r0
     a9c:	00060000 	andeq	r0, r6, r0
     aa0:	00a49403 	adceq	r9, r4, r3, lsl #8
     aa4:	00009f00 	andeq	r9, r0, r0, lsl #30
     aa8:	00000000 	andeq	r0, r0, r0
     aac:	06680000 	strbteq	r0, [r8], -r0
     ab0:	06900000 	ldreq	r0, [r0], r0
     ab4:	00010000 	andeq	r0, r1, r0
     ab8:	00069052 	andeq	r9, r6, r2, asr r0
     abc:	0006a400 	andeq	sl, r6, r0, lsl #8
     ac0:	03000500 	movweq	r0, #1280	; 0x500
     ac4:	0000c498 	muleq	r0, r8, r4
	...
     ad0:	00000668 	andeq	r0, r0, r8, ror #12
     ad4:	000006a4 	andeq	r0, r0, r4, lsr #13
     ad8:	94030006 	strls	r0, [r3], #-6
     adc:	9f0000a4 	svcls	0x000000a4
	...
     ae8:	000006e4 	andeq	r0, r0, r4, ror #13
     aec:	00000700 	andeq	r0, r0, r0, lsl #14
     af0:	00500001 	subseq	r0, r0, r1
     af4:	34000007 	strcc	r0, [r0], #-7
     af8:	04000007 	streq	r0, [r0], #-7
     afc:	5001f300 	andpl	pc, r1, r0, lsl #6
     b00:	0000009f 	muleq	r0, pc, r0	; <UNPREDICTABLE>
     b04:	00000000 	andeq	r0, r0, r0
     b08:	0006e400 	andeq	lr, r6, r0, lsl #8
     b0c:	00070000 	andeq	r0, r7, r0
     b10:	51000100 	mrspl	r0, (UNDEF: 16)
     b14:	00000700 	andeq	r0, r0, r0, lsl #14
     b18:	00000734 	andeq	r0, r0, r4, lsr r7
     b1c:	01f30004 	mvnseq	r0, r4
     b20:	00009f51 	andeq	r9, r0, r1, asr pc
     b24:	00000000 	andeq	r0, r0, r0
     b28:	070c0000 	streq	r0, [ip, -r0]
     b2c:	07100000 	ldreq	r0, [r0, -r0]
     b30:	00060000 	andeq	r0, r6, r0
     b34:	ff080070 			; <UNDEFINED> instruction: 0xff080070
     b38:	07109f1a 			; <UNDEFINED> instruction: 0x07109f1a
     b3c:	07130000 	ldreq	r0, [r3, -r0]
     b40:	00060000 	andeq	r0, r6, r0
     b44:	ff080071 			; <UNDEFINED> instruction: 0xff080071
     b48:	00009f1a 	andeq	r9, r0, sl, lsl pc
	...
     b54:	00540000 	subseq	r0, r4, r0
     b58:	00010000 	andeq	r0, r1, r0
     b5c:	00005450 	andeq	r5, r0, r0, asr r4
     b60:	00008000 	andeq	r8, r0, r0
     b64:	f3000400 	vshl.u8	d0, d0, d0
     b68:	009f5001 	addseq	r5, pc, r1
     b6c:	00000000 	andeq	r0, r0, r0
     b70:	18000000 	stmdane	r0, {}	; <UNPREDICTABLE>
     b74:	54000000 	strpl	r0, [r0], #-0
     b78:	01000000 	mrseq	r0, (UNDEF: 0)
     b7c:	00545000 	subseq	r5, r4, r0
     b80:	00800000 	addeq	r0, r0, r0
     b84:	00040000 	andeq	r0, r4, r0
     b88:	9f5001f3 	svcls	0x005001f3
	...
     b94:	0000002c 	andeq	r0, r0, ip, lsr #32
     b98:	00000054 	andeq	r0, r0, r4, asr r0
     b9c:	54500001 	ldrbpl	r0, [r0], #-1
     ba0:	80000000 	andhi	r0, r0, r0
     ba4:	04000000 	streq	r0, [r0], #-0
     ba8:	5001f300 	andpl	pc, r1, r0, lsl #6
     bac:	0000009f 	muleq	r0, pc, r0	; <UNPREDICTABLE>
     bb0:	00000000 	andeq	r0, r0, r0
     bb4:	00008000 	andeq	r8, r0, r0
     bb8:	00009c00 	andeq	r9, r0, r0, lsl #24
     bbc:	50000100 	andpl	r0, r0, r0, lsl #2
     bc0:	0000009c 	muleq	r0, ip, r0
     bc4:	000000c0 	andeq	r0, r0, r0, asr #1
     bc8:	01f30004 	mvnseq	r0, r4
     bcc:	00009f50 	andeq	r9, r0, r0, asr pc
     bd0:	00000000 	andeq	r0, r0, r0
     bd4:	00c00000 	sbceq	r0, r0, r0
     bd8:	00d70000 	sbcseq	r0, r7, r0
     bdc:	00010000 	andeq	r0, r1, r0
     be0:	0000d750 	andeq	sp, r0, r0, asr r7
     be4:	00026400 	andeq	r6, r2, r0, lsl #8
     be8:	54000100 	strpl	r0, [r0], #-256	; 0x100
	...
     bf4:	000000c0 	andeq	r0, r0, r0, asr #1
     bf8:	000000d0 	ldrdeq	r0, [r0], -r0	; <UNPREDICTABLE>
     bfc:	d0510001 	subsle	r0, r1, r1
     c00:	0c000000 	stceq	0, cr0, [r0], {-0}
     c04:	01000001 	tsteq	r0, r1
     c08:	010c5500 	tsteq	ip, r0, lsl #10
     c0c:	02640000 	rsbeq	r0, r4, #0
     c10:	00040000 	andeq	r0, r4, r0
     c14:	9f5101f3 	svcls	0x005101f3
	...
     c20:	000001ac 	andeq	r0, r0, ip, lsr #3
     c24:	000001d4 	ldrdeq	r0, [r0], -r4
     c28:	9f420002 	svcls	0x00420002
     c2c:	000001d4 	ldrdeq	r0, [r0], -r4
     c30:	000001ec 	andeq	r0, r0, ip, ror #3
     c34:	ec510001 	mrrc	0, 0, r0, r1, cr1
     c38:	f4000001 	vst4.8	{d0-d3}, [r0], r1
     c3c:	02000001 	andeq	r0, r0, #1
     c40:	f49f4200 			; <UNDEFINED> instruction: 0xf49f4200
     c44:	24000001 	strcs	r0, [r0], #-1
     c48:	01000002 	tsteq	r0, r2
     c4c:	00005100 	andeq	r5, r0, r0, lsl #2
     c50:	00000000 	andeq	r0, r0, r0
     c54:	01cc0000 	biceq	r0, ip, r0
     c58:	01d80000 	bicseq	r0, r8, r0
     c5c:	00010000 	andeq	r0, r1, r0
     c60:	0001d852 	andeq	sp, r1, r2, asr r8
     c64:	0001dc00 	andeq	sp, r1, r0, lsl #24
     c68:	72000300 	andvc	r0, r0, #0, 6
     c6c:	00009f7f 	andeq	r9, r0, pc, ror pc
     c70:	00000000 	andeq	r0, r0, r0
     c74:	02640000 	rsbeq	r0, r4, #0
     c78:	027c0000 	rsbseq	r0, ip, #0
     c7c:	00010000 	andeq	r0, r1, r0
     c80:	00027c50 	andeq	r7, r2, r0, asr ip
     c84:	0002d000 	andeq	sp, r2, r0
     c88:	53000100 	movwpl	r0, #256	; 0x100
	...
     c94:	00000298 	muleq	r0, r8, r2
     c98:	000002b0 			; <UNDEFINED> instruction: 0x000002b0
     c9c:	00550001 	subseq	r0, r5, r1
     ca0:	00000000 	andeq	r0, r0, r0
     ca4:	90000000 	andls	r0, r0, r0
     ca8:	9c000002 	stcls	0, cr0, [r0], {2}
     cac:	01000002 	tsteq	r0, r2
     cb0:	029c5100 	addseq	r5, ip, #0, 2
     cb4:	02a00000 	adceq	r0, r0, #0
     cb8:	00030000 	andeq	r0, r3, r0
     cbc:	009f7f71 	addseq	r7, pc, r1, ror pc	; <UNPREDICTABLE>
     cc0:	00000000 	andeq	r0, r0, r0
     cc4:	d0000000 	andle	r0, r0, r0
     cc8:	e8000002 	stmda	r0, {r1}
     ccc:	01000002 	tsteq	r0, r2
     cd0:	02e85000 	rsceq	r5, r8, #0
     cd4:	03040000 	movweq	r0, #16384	; 0x4000
     cd8:	00010000 	andeq	r0, r1, r0
     cdc:	00000057 	andeq	r0, r0, r7, asr r0
     ce0:	00000000 	andeq	r0, r0, r0
     ce4:	0002d000 	andeq	sp, r2, r0
     ce8:	0002e800 	andeq	lr, r2, r0, lsl #16
     cec:	51000100 	mrspl	r0, (UNDEF: 16)
     cf0:	000002e8 	andeq	r0, r0, r8, ror #5
     cf4:	00000304 	andeq	r0, r0, r4, lsl #6
     cf8:	00560001 	subseq	r0, r6, r1
     cfc:	00000000 	andeq	r0, r0, r0
     d00:	d0000000 	andle	r0, r0, r0
     d04:	e8000002 	stmda	r0, {r1}
     d08:	01000002 	tsteq	r0, r2
     d0c:	02e85200 	rsceq	r5, r8, #0, 4
     d10:	03040000 	movweq	r0, #16384	; 0x4000
     d14:	00010000 	andeq	r0, r1, r0
     d18:	00000055 	andeq	r0, r0, r5, asr r0
     d1c:	00000000 	andeq	r0, r0, r0
     d20:	0002e000 	andeq	lr, r2, r0
     d24:	0002e800 	andeq	lr, r2, r0, lsl #16
     d28:	51000100 	mrspl	r0, (UNDEF: 16)
     d2c:	000002e8 	andeq	r0, r0, r8, ror #5
     d30:	00000304 	andeq	r0, r0, r4, lsl #6
     d34:	00560001 	subseq	r0, r6, r1
     d38:	00000000 	andeq	r0, r0, r0
     d3c:	e0000000 	and	r0, r0, r0
     d40:	e8000002 	stmda	r0, {r1}
     d44:	02000002 	andeq	r0, r0, #2
     d48:	e89f3000 	ldm	pc, {ip, sp}	; <UNPREDICTABLE>
     d4c:	04000002 	streq	r0, [r0], #-2
     d50:	01000003 	tsteq	r0, r3
     d54:	00005400 	andeq	r5, r0, r0, lsl #8
     d58:	00000000 	andeq	r0, r0, r0
     d5c:	03040000 	movweq	r0, #16384	; 0x4000
     d60:	03170000 	tsteq	r7, #0
     d64:	00010000 	andeq	r0, r1, r0
     d68:	00031750 	andeq	r1, r3, r0, asr r7
     d6c:	00035c00 	andeq	r5, r3, r0, lsl #24
     d70:	54000100 	strpl	r0, [r0], #-256	; 0x100
	...
     d7c:	00000304 	andeq	r0, r0, r4, lsl #6
     d80:	00000317 	andeq	r0, r0, r7, lsl r3
     d84:	17510001 	ldrbne	r0, [r1, -r1]
     d88:	5c000003 	stcpl	0, cr0, [r0], {3}
     d8c:	01000003 	tsteq	r0, r3
     d90:	00005600 	andeq	r5, r0, r0, lsl #12
     d94:	00000000 	andeq	r0, r0, r0
     d98:	03040000 	movweq	r0, #16384	; 0x4000
     d9c:	03170000 	tsteq	r7, #0
     da0:	00010000 	andeq	r0, r1, r0
     da4:	00031752 	andeq	r1, r3, r2, asr r7
     da8:	00035c00 	andeq	r5, r3, r0, lsl #24
     dac:	55000100 	strpl	r0, [r0, #-256]	; 0x100
	...
     db8:	0000035c 	andeq	r0, r0, ip, asr r3
     dbc:	00000393 	muleq	r0, r3, r3
     dc0:	93500001 	cmpls	r0, #1
     dc4:	d8000003 	stmdale	r0, {r0, r1}
     dc8:	01000003 	tsteq	r0, r3
     dcc:	03d85400 	bicseq	r5, r8, #0, 8
     dd0:	03dc0000 	bicseq	r0, ip, #0
     dd4:	00010000 	andeq	r0, r1, r0
     dd8:	0003dc50 	andeq	sp, r3, r0, asr ip
     ddc:	0003fc00 	andeq	pc, r3, r0, lsl #24
     de0:	54000100 	strpl	r0, [r0], #-256	; 0x100
	...
     dec:	0000035c 	andeq	r0, r0, ip, asr r3
     df0:	00000393 	muleq	r0, r3, r3
     df4:	93510001 	cmpls	r1, #1
     df8:	d8000003 	stmdale	r0, {r0, r1}
     dfc:	04000003 	streq	r0, [r0], #-3
     e00:	5101f300 	mrspl	pc, SP_irq	; <UNPREDICTABLE>
     e04:	0003d89f 	muleq	r3, pc, r8	; <UNPREDICTABLE>
     e08:	0003e000 	andeq	lr, r3, r0
     e0c:	51000100 	mrspl	r0, (UNDEF: 16)
     e10:	000003e0 	andeq	r0, r0, r0, ror #7
     e14:	000003fc 	strdeq	r0, [r0], -ip
     e18:	01f30004 	mvnseq	r0, r4
     e1c:	00009f51 	andeq	r9, r0, r1, asr pc
     e20:	00000000 	andeq	r0, r0, r0
     e24:	035c0000 	cmpeq	ip, #0
     e28:	03930000 	orrseq	r0, r3, #0
     e2c:	00010000 	andeq	r0, r1, r0
     e30:	00039352 	andeq	r9, r3, r2, asr r3
     e34:	0003d800 	andeq	sp, r3, r0, lsl #16
     e38:	f3000400 	vshl.u8	d0, d0, d0
     e3c:	d89f5201 	ldmle	pc, {r0, r9, ip, lr}	; <UNPREDICTABLE>
     e40:	e0000003 	and	r0, r0, r3
     e44:	01000003 	tsteq	r0, r3
     e48:	03e05200 	mvneq	r5, #0, 4
     e4c:	03fc0000 	mvnseq	r0, #0
     e50:	00040000 	andeq	r0, r4, r0
     e54:	9f5201f3 	svcls	0x005201f3
	...
     e60:	00000390 	muleq	r0, r0, r3
     e64:	000003d8 	ldrdeq	r0, [r0], -r8
     e68:	e0560001 	subs	r0, r6, r1
     e6c:	fc000003 	stc2	0, cr0, [r0], {3}
     e70:	01000003 	tsteq	r0, r3
     e74:	00005600 	andeq	r5, r0, r0, lsl #12
     e78:	00000000 	andeq	r0, r0, r0
     e7c:	03640000 	cmneq	r4, #0
     e80:	03930000 	orrseq	r0, r3, #0
     e84:	00010000 	andeq	r0, r1, r0
     e88:	00039350 	andeq	r9, r3, r0, asr r3
     e8c:	0003d800 	andeq	sp, r3, r0, lsl #16
     e90:	54000100 	strpl	r0, [r0], #-256	; 0x100
     e94:	000003d8 	ldrdeq	r0, [r0], -r8
     e98:	000003dc 	ldrdeq	r0, [r0], -ip
     e9c:	dc500001 	mrrcle	0, 0, r0, r0, cr1	; <UNPREDICTABLE>
     ea0:	fc000003 	stc2	0, cr0, [r0], {3}
     ea4:	01000003 	tsteq	r0, r3
     ea8:	00005400 	andeq	r5, r0, r0, lsl #8
     eac:	00000000 	andeq	r0, r0, r0
     eb0:	03a40000 			; <UNDEFINED> instruction: 0x03a40000
     eb4:	03d80000 	bicseq	r0, r8, #0
     eb8:	00010000 	andeq	r0, r1, r0
     ebc:	0003e054 	andeq	lr, r3, r4, asr r0
     ec0:	0003fc00 	andeq	pc, r3, r0, lsl #24
     ec4:	54000100 	strpl	r0, [r0], #-256	; 0x100
	...
     ed0:	000003fc 	strdeq	r0, [r0], -ip
     ed4:	0000048c 	andeq	r0, r0, ip, lsl #9
     ed8:	8c500001 	mrrchi	0, 0, r0, r0, cr1	; <UNPREDICTABLE>
     edc:	a0000004 	andge	r0, r0, r4
     ee0:	04000004 	streq	r0, [r0], #-4
     ee4:	5001f300 	andpl	pc, r1, r0, lsl #6
     ee8:	0004a09f 	muleq	r4, pc, r0	; <UNPREDICTABLE>
     eec:	0004d000 	andeq	sp, r4, r0
     ef0:	50000100 	andpl	r0, r0, r0, lsl #2
     ef4:	000004d0 	ldrdeq	r0, [r0], -r0	; <UNPREDICTABLE>
     ef8:	000004e4 	andeq	r0, r0, r4, ror #9
     efc:	01f30004 	mvnseq	r0, r4
     f00:	04e49f50 	strbteq	r9, [r4], #3920	; 0xf50
     f04:	04e80000 	strbteq	r0, [r8], #0
     f08:	00010000 	andeq	r0, r1, r0
     f0c:	0004e850 	andeq	lr, r4, r0, asr r8
     f10:	0004ec00 	andeq	lr, r4, r0, lsl #24
     f14:	f3000400 	vshl.u8	d0, d0, d0
     f18:	ec9f5001 	ldc	0, cr5, [pc], {1}
     f1c:	f0000004 			; <UNDEFINED> instruction: 0xf0000004
     f20:	01000004 	tsteq	r0, r4
     f24:	04f05000 	ldrbteq	r5, [r0], #0
     f28:	04f40000 	ldrbteq	r0, [r4], #0
     f2c:	00040000 	andeq	r0, r4, r0
     f30:	9f5001f3 	svcls	0x005001f3
     f34:	000004f4 	strdeq	r0, [r0], -r4
     f38:	000004f8 	strdeq	r0, [r0], -r8
     f3c:	f8500001 			; <UNDEFINED> instruction: 0xf8500001
     f40:	14000004 	strne	r0, [r0], #-4
     f44:	04000005 	streq	r0, [r0], #-5
     f48:	5001f300 	andpl	pc, r1, r0, lsl #6
     f4c:	0000009f 	muleq	r0, pc, r0	; <UNPREDICTABLE>
     f50:	00000000 	andeq	r0, r0, r0
     f54:	0003fc00 	andeq	pc, r3, r0, lsl #24
     f58:	00049000 	andeq	r9, r4, r0
     f5c:	51000100 	mrspl	r0, (UNDEF: 16)
     f60:	00000490 	muleq	r0, r0, r4
     f64:	000004a0 	andeq	r0, r0, r0, lsr #9
     f68:	01f30004 	mvnseq	r0, r4
     f6c:	04a09f51 	strteq	r9, [r0], #3921	; 0xf51
     f70:	04d40000 	ldrbeq	r0, [r4], #0
     f74:	00010000 	andeq	r0, r1, r0
     f78:	0004d451 	andeq	sp, r4, r1, asr r4
     f7c:	0004e400 	andeq	lr, r4, r0, lsl #8
     f80:	f3000400 	vshl.u8	d0, d0, d0
     f84:	e49f5101 	ldr	r5, [pc], #257	; f8c <_start-0x7074>
     f88:	14000004 	strne	r0, [r0], #-4
     f8c:	01000005 	tsteq	r0, r5
     f90:	00005100 	andeq	r5, r0, r0, lsl #2
     f94:	00000000 	andeq	r0, r0, r0
     f98:	03fc0000 	mvnseq	r0, #0
     f9c:	04940000 	ldreq	r0, [r4], #0
     fa0:	00010000 	andeq	r0, r1, r0
     fa4:	00049452 	andeq	r9, r4, r2, asr r4
     fa8:	0004a000 	andeq	sl, r4, r0
     fac:	f3000400 	vshl.u8	d0, d0, d0
     fb0:	a09f5201 	addsge	r5, pc, r1, lsl #4
     fb4:	bc000004 	stclt	0, cr0, [r0], {4}
     fb8:	01000004 	tsteq	r0, r4
     fbc:	04bc5200 	ldrteq	r5, [ip], #512	; 0x200
     fc0:	04e40000 	strbteq	r0, [r4], #0
     fc4:	00040000 	andeq	r0, r4, r0
     fc8:	9f5201f3 	svcls	0x005201f3
     fcc:	000004e4 	andeq	r0, r0, r4, ror #9
     fd0:	000004f4 	strdeq	r0, [r0], -r4
     fd4:	f4520001 			; <UNDEFINED> instruction: 0xf4520001
     fd8:	14000004 	strne	r0, [r0], #-4
     fdc:	04000005 	streq	r0, [r0], #-5
     fe0:	5201f300 	andpl	pc, r1, #0, 6
     fe4:	0000009f 	muleq	r0, pc, r0	; <UNPREDICTABLE>
     fe8:	00000000 	andeq	r0, r0, r0
     fec:	00040000 	andeq	r0, r4, r0
     ff0:	00049000 	andeq	r9, r4, r0
     ff4:	51000100 	mrspl	r0, (UNDEF: 16)
     ff8:	00000490 	muleq	r0, r0, r4
     ffc:	000004a0 	andeq	r0, r0, r0, lsr #9
    1000:	01f30004 	mvnseq	r0, r4
    1004:	04a09f51 	strteq	r9, [r0], #3921	; 0xf51
    1008:	04d40000 	ldrbeq	r0, [r4], #0
    100c:	00010000 	andeq	r0, r1, r0
    1010:	0004d451 	andeq	sp, r4, r1, asr r4
    1014:	0004e400 	andeq	lr, r4, r0, lsl #8
    1018:	f3000400 	vshl.u8	d0, d0, d0
    101c:	e49f5101 	ldr	r5, [pc], #257	; 1024 <_start-0x6fdc>
    1020:	14000004 	strne	r0, [r0], #-4
    1024:	01000005 	tsteq	r0, r5
    1028:	00005100 	andeq	r5, r0, r0, lsl #2
    102c:	00000000 	andeq	r0, r0, r0
    1030:	04000000 	streq	r0, [r0], #-0
    1034:	048c0000 	streq	r0, [ip], #0
    1038:	00010000 	andeq	r0, r1, r0
    103c:	00048c50 	andeq	r8, r4, r0, asr ip
    1040:	0004a000 	andeq	sl, r4, r0
    1044:	f3000400 	vshl.u8	d0, d0, d0
    1048:	a09f5001 	addsge	r5, pc, r1
    104c:	d0000004 	andle	r0, r0, r4
    1050:	01000004 	tsteq	r0, r4
    1054:	04d05000 	ldrbeq	r5, [r0], #0
    1058:	04e40000 	strbteq	r0, [r4], #0
    105c:	00040000 	andeq	r0, r4, r0
    1060:	9f5001f3 	svcls	0x005001f3
    1064:	000004e4 	andeq	r0, r0, r4, ror #9
    1068:	000004e8 	andeq	r0, r0, r8, ror #9
    106c:	e8500001 	ldmda	r0, {r0}^
    1070:	ec000004 	stc	0, cr0, [r0], {4}
    1074:	04000004 	streq	r0, [r0], #-4
    1078:	5001f300 	andpl	pc, r1, r0, lsl #6
    107c:	0004ec9f 	muleq	r4, pc, ip	; <UNPREDICTABLE>
    1080:	0004f000 	andeq	pc, r4, r0
    1084:	50000100 	andpl	r0, r0, r0, lsl #2
    1088:	000004f0 	strdeq	r0, [r0], -r0	; <UNPREDICTABLE>
    108c:	000004f4 	strdeq	r0, [r0], -r4
    1090:	01f30004 	mvnseq	r0, r4
    1094:	04f49f50 	ldrbteq	r9, [r4], #3920	; 0xf50
    1098:	04f80000 	ldrbteq	r0, [r8], #0
    109c:	00010000 	andeq	r0, r1, r0
    10a0:	0004f850 	andeq	pc, r4, r0, asr r8	; <UNPREDICTABLE>
    10a4:	00051400 	andeq	r1, r5, r0, lsl #8
    10a8:	f3000400 	vshl.u8	d0, d0, d0
    10ac:	009f5001 	addseq	r5, pc, r1
    10b0:	00000000 	andeq	r0, r0, r0
    10b4:	40000000 	andmi	r0, r0, r0
    10b8:	98000004 	stmdals	r0, {r2}
    10bc:	01000004 	tsteq	r0, r4
    10c0:	04a05300 	strteq	r5, [r0], #768	; 0x300
    10c4:	04b80000 	ldrteq	r0, [r8], #0
    10c8:	00010000 	andeq	r0, r1, r0
    10cc:	0004ec53 	andeq	lr, r4, r3, asr ip
    10d0:	0004f400 	andeq	pc, r4, r0, lsl #8
    10d4:	53000100 	movwpl	r0, #256	; 0x100
	...
    10e0:	00000444 	andeq	r0, r0, r4, asr #8
    10e4:	00000464 	andeq	r0, r0, r4, ror #8
    10e8:	00710005 	rsbseq	r0, r1, r5
    10ec:	64220073 	strtvs	r0, [r2], #-115	; 0x73
    10f0:	7c000004 	stcvc	0, cr0, [r0], {4}
    10f4:	01000004 	tsteq	r0, r4
    10f8:	047c5a00 	ldrbteq	r5, [ip], #-2560	; 0xa00
    10fc:	04800000 	streq	r0, [r0], #0
    1100:	00050000 	andeq	r0, r5, r0
    1104:	00730071 	rsbseq	r0, r3, r1, ror r0
    1108:	00048022 	andeq	r8, r4, r2, lsr #32
    110c:	0004a400 	andeq	sl, r4, r0, lsl #8
    1110:	5a000100 	bpl	1518 <_start-0x6ae8>
	...
    111c:	00000444 	andeq	r0, r0, r4, asr #8
    1120:	0000048c 	andeq	r0, r0, ip, lsl #9
    1124:	8c500001 	mrrchi	0, 0, r0, r0, cr1	; <UNPREDICTABLE>
    1128:	a0000004 	andge	r0, r0, r4
    112c:	04000004 	streq	r0, [r0], #-4
    1130:	5001f300 	andpl	pc, r1, r0, lsl #6
    1134:	0004a09f 	muleq	r4, pc, r0	; <UNPREDICTABLE>
    1138:	0004a400 	andeq	sl, r4, r0, lsl #8
    113c:	50000100 	andpl	r0, r0, r0, lsl #2
	...
    1148:	00000448 	andeq	r0, r0, r8, asr #8
    114c:	00000468 	andeq	r0, r0, r8, ror #8
    1150:	68540001 	ldmdavs	r4, {r0}^
    1154:	6c000004 	stcvs	0, cr0, [r0], {4}
    1158:	03000004 	movweq	r0, #4
    115c:	9f7f7400 	svcls	0x007f7400
    1160:	0000047c 	andeq	r0, r0, ip, ror r4
    1164:	00000480 	andeq	r0, r0, r0, lsl #9
    1168:	00540001 	subseq	r0, r4, r1
    116c:	00000000 	andeq	r0, r0, r0
    1170:	48000000 	stmdami	r0, {}	; <UNPREDICTABLE>
    1174:	8c000004 	stchi	0, cr0, [r0], {4}
    1178:	01000004 	tsteq	r0, r4
    117c:	048c5000 	streq	r5, [ip], #0
    1180:	04a00000 	strteq	r0, [r0], #0
    1184:	00040000 	andeq	r0, r4, r0
    1188:	9f5001f3 	svcls	0x005001f3
    118c:	000004a0 	andeq	r0, r0, r0, lsr #9
    1190:	000004a4 	andeq	r0, r0, r4, lsr #9
    1194:	00500001 	subseq	r0, r0, r1
    1198:	00000000 	andeq	r0, r0, r0
    119c:	b4000000 	strlt	r0, [r0], #-0
    11a0:	d0000004 	andle	r0, r0, r4
    11a4:	01000004 	tsteq	r0, r4
    11a8:	04d05000 	ldrbeq	r5, [r0], #0
    11ac:	04e40000 	strbteq	r0, [r4], #0
    11b0:	00040000 	andeq	r0, r4, r0
    11b4:	9f5001f3 	svcls	0x005001f3
    11b8:	000004f4 	strdeq	r0, [r0], -r4
    11bc:	000004f8 	strdeq	r0, [r0], -r8
    11c0:	f8500001 			; <UNDEFINED> instruction: 0xf8500001
    11c4:	14000004 	strne	r0, [r0], #-4
    11c8:	04000005 	streq	r0, [r0], #-5
    11cc:	5001f300 	andpl	pc, r1, r0, lsl #6
    11d0:	0000009f 	muleq	r0, pc, r0	; <UNPREDICTABLE>
	...
    11dc:	00000400 	andeq	r0, r0, r0, lsl #8
    11e0:	52000100 	andpl	r0, r0, #0, 2
    11e4:	00000004 	andeq	r0, r0, r4
    11e8:	00000020 	andeq	r0, r0, r0, lsr #32
    11ec:	01f30004 	mvnseq	r0, r4
    11f0:	00009f52 	andeq	r9, r0, r2, asr pc
	...
    11fc:	000c0000 	andeq	r0, ip, r0
    1200:	00010000 	andeq	r0, r1, r0
    1204:	00000c50 	andeq	r0, r0, r0, asr ip
    1208:	00001400 	andeq	r1, r0, r0, lsl #8
    120c:	73000300 	movwvc	r0, #768	; 0x300
    1210:	00149f01 	andseq	r9, r4, r1, lsl #30
    1214:	00200000 	eoreq	r0, r0, r0
    1218:	00010000 	andeq	r0, r1, r0
    121c:	00000053 	andeq	r0, r0, r3, asr r0
    1220:	00000000 	andeq	r0, r0, r0
    1224:	00002c00 	andeq	r2, r0, r0, lsl #24
    1228:	00003800 	andeq	r3, r0, r0, lsl #16
    122c:	50000100 	andpl	r0, r0, r0, lsl #2
    1230:	00000038 	andeq	r0, r0, r8, lsr r0
    1234:	00000048 	andeq	r0, r0, r8, asr #32
    1238:	48550001 	ldmdami	r5, {r0}^
    123c:	58000000 	stmdapl	r0, {}	; <UNPREDICTABLE>
    1240:	01000000 	mrseq	r0, (UNDEF: 0)
    1244:	00005000 	andeq	r5, r0, r0
	...
    1250:	00100000 	andseq	r0, r0, r0
    1254:	00010000 	andeq	r0, r1, r0
    1258:	00001050 	andeq	r1, r0, r0, asr r0
    125c:	00003400 	andeq	r3, r0, r0, lsl #8
    1260:	54000100 	strpl	r0, [r0], #-256	; 0x100
	...
    1270:	00000004 	andeq	r0, r0, r4
    1274:	04500001 	ldrbeq	r0, [r0], #-1
    1278:	0c000000 	stceq	0, cr0, [r0], {-0}
    127c:	03000000 	movweq	r0, #0
    1280:	9f307000 	svcls	0x00307000
    1284:	0000000c 	andeq	r0, r0, ip
    1288:	00000014 	andeq	r0, r0, r4, lsl r0
    128c:	01f30004 	mvnseq	r0, r4
    1290:	00009f50 	andeq	r9, r0, r0, asr pc
    1294:	00000000 	andeq	r0, r0, r0
    1298:	00140000 	andseq	r0, r4, r0
    129c:	00200000 	eoreq	r0, r0, r0
    12a0:	00010000 	andeq	r0, r1, r0
    12a4:	00002050 	andeq	r2, r0, r0, asr r0
    12a8:	00002c00 	andeq	r2, r0, r0, lsl #24
    12ac:	70000300 	andvc	r0, r0, r0, lsl #6
    12b0:	002c9f01 	eoreq	r9, ip, r1, lsl #30
    12b4:	00400000 	subeq	r0, r0, r0
    12b8:	00010000 	andeq	r0, r1, r0
    12bc:	00000050 	andeq	r0, r0, r0, asr r0
    12c0:	00000000 	andeq	r0, r0, r0
    12c4:	00001400 	andeq	r1, r0, r0, lsl #8
    12c8:	00001800 	andeq	r1, r0, r0, lsl #16
    12cc:	51000100 	mrspl	r0, (UNDEF: 16)
    12d0:	00000018 	andeq	r0, r0, r8, lsl r0
    12d4:	00000040 	andeq	r0, r0, r0, asr #32
    12d8:	01f30004 	mvnseq	r0, r4
    12dc:	00009f51 	andeq	r9, r0, r1, asr pc
    12e0:	00000000 	andeq	r0, r0, r0
    12e4:	00400000 	subeq	r0, r0, r0
    12e8:	00600000 	rsbeq	r0, r0, r0
    12ec:	00010000 	andeq	r0, r1, r0
    12f0:	00006050 	andeq	r6, r0, r0, asr r0
    12f4:	00006c00 	andeq	r6, r0, r0, lsl #24
    12f8:	71000300 	mrsvc	r0, LR_irq
    12fc:	006c9f01 	rsbeq	r9, ip, r1, lsl #30
    1300:	00740000 	rsbseq	r0, r4, r0
    1304:	00010000 	andeq	r0, r1, r0
    1308:	00007451 	andeq	r7, r0, r1, asr r4
    130c:	00008000 	andeq	r8, r0, r0
    1310:	71000300 	mrsvc	r0, LR_irq
    1314:	00009f01 	andeq	r9, r0, r1, lsl #30
    1318:	00000000 	andeq	r0, r0, r0
    131c:	00400000 	subeq	r0, r0, r0
    1320:	00500000 	subseq	r0, r0, r0
    1324:	00010000 	andeq	r0, r1, r0
    1328:	00005051 	andeq	r5, r0, r1, asr r0
    132c:	00008000 	andeq	r8, r0, r0
    1330:	f3000400 	vshl.u8	d0, d0, d0
    1334:	009f5101 	addseq	r5, pc, r1, lsl #2
    1338:	00000000 	andeq	r0, r0, r0
    133c:	40000000 	andmi	r0, r0, r0
    1340:	58000000 	stmdapl	r0, {}	; <UNPREDICTABLE>
    1344:	01000000 	mrseq	r0, (UNDEF: 0)
    1348:	00585200 	subseq	r5, r8, r0, lsl #4
    134c:	00640000 	rsbeq	r0, r4, r0
    1350:	00010000 	andeq	r0, r1, r0
    1354:	00006452 	andeq	r6, r0, r2, asr r4
    1358:	00006800 	andeq	r6, r0, r0, lsl #16
    135c:	72000300 	andvc	r0, r0, #0, 6
    1360:	00689f01 	rsbeq	r9, r8, r1, lsl #30
    1364:	00800000 	addeq	r0, r0, r0
    1368:	00010000 	andeq	r0, r1, r0
    136c:	00000052 	andeq	r0, r0, r2, asr r0
    1370:	00000000 	andeq	r0, r0, r0
    1374:	00004000 	andeq	r4, r0, r0
    1378:	00005400 	andeq	r5, r0, r0, lsl #8
    137c:	53000100 	movwpl	r0, #256	; 0x100
    1380:	00000054 	andeq	r0, r0, r4, asr r0
    1384:	00000078 	andeq	r0, r0, r8, ror r0
    1388:	00530001 	subseq	r0, r3, r1
    138c:	00000000 	andeq	r0, r0, r0
    1390:	48000000 	stmdami	r0, {}	; <UNPREDICTABLE>
    1394:	60000000 	andvs	r0, r0, r0
    1398:	01000000 	mrseq	r0, (UNDEF: 0)
    139c:	00605c00 	rsbeq	r5, r0, r0, lsl #24
    13a0:	00800000 	addeq	r0, r0, r0
    13a4:	000a0000 	andeq	r0, sl, r0
    13a8:	f35201f3 	vbsl	q8, q9, <illegal reg q9.5>
    13ac:	231c5301 	tstcs	ip, #67108864	; 0x4000000
    13b0:	00009f01 	andeq	r9, r0, r1, lsl #30
    13b4:	00000000 	andeq	r0, r0, r0
    13b8:	00800000 	addeq	r0, r0, r0
    13bc:	00a40000 	adceq	r0, r4, r0
    13c0:	00010000 	andeq	r0, r1, r0
    13c4:	0000a450 	andeq	sl, r0, r0, asr r4
    13c8:	00011800 	andeq	r1, r1, r0, lsl #16
    13cc:	70000300 	andvc	r0, r0, r0, lsl #6
    13d0:	01189f02 	tsteq	r8, r2, lsl #30
    13d4:	02180000 	andseq	r0, r8, #0
    13d8:	00040000 	andeq	r0, r4, r0
    13dc:	9f5001f3 	svcls	0x005001f3
	...
    13e8:	00000080 	andeq	r0, r0, r0, lsl #1
    13ec:	000000f0 	strdeq	r0, [r0], -r0	; <UNPREDICTABLE>
    13f0:	f0510001 			; <UNDEFINED> instruction: 0xf0510001
    13f4:	60000000 	andvs	r0, r0, r0
    13f8:	01000001 	tsteq	r0, r1
    13fc:	01605500 	cmneq	r0, r0, lsl #10
    1400:	01680000 	cmneq	r8, r0
    1404:	00010000 	andeq	r0, r1, r0
    1408:	00016851 	andeq	r6, r1, r1, asr r8
    140c:	00018800 	andeq	r8, r1, r0, lsl #16
    1410:	55000100 	strpl	r0, [r0, #-256]	; 0x100
    1414:	00000188 	andeq	r0, r0, r8, lsl #3
    1418:	0000019c 	muleq	r0, ip, r1
    141c:	9c510001 	mrrcls	0, 0, r0, r1, cr1
    1420:	bc000001 	stclt	0, cr0, [r0], {1}
    1424:	01000001 	tsteq	r0, r1
    1428:	01bc5500 			; <UNDEFINED> instruction: 0x01bc5500
    142c:	01c40000 	biceq	r0, r4, r0
    1430:	00010000 	andeq	r0, r1, r0
    1434:	0001c451 	andeq	ip, r1, r1, asr r4
    1438:	0001fc00 	andeq	pc, r1, r0, lsl #24
    143c:	55000100 	strpl	r0, [r0, #-256]	; 0x100
    1440:	000001fc 	strdeq	r0, [r0], -ip
    1444:	00000218 	andeq	r0, r0, r8, lsl r2
    1448:	01f30004 	mvnseq	r0, r4
    144c:	00009f51 	andeq	r9, r0, r1, asr pc
    1450:	00000000 	andeq	r0, r0, r0
    1454:	00800000 	addeq	r0, r0, r0
    1458:	00940000 	addseq	r0, r4, r0
    145c:	00010000 	andeq	r0, r1, r0
    1460:	00009452 	andeq	r9, r0, r2, asr r4
    1464:	0001fc00 	andeq	pc, r1, r0, lsl #24
    1468:	54000100 	strpl	r0, [r0], #-256	; 0x100
    146c:	000001fc 	strdeq	r0, [r0], -ip
    1470:	00000218 	andeq	r0, r0, r8, lsl r2
    1474:	01f30004 	mvnseq	r0, r4
    1478:	00009f52 	andeq	r9, r0, r2, asr pc
    147c:	00000000 	andeq	r0, r0, r0
    1480:	00800000 	addeq	r0, r0, r0
    1484:	01000000 	mrseq	r0, (UNDEF: 0)
    1488:	00010000 	andeq	r0, r1, r0
    148c:	00010453 	andeq	r0, r1, r3, asr r4
    1490:	00010800 	andeq	r0, r1, r0, lsl #16
    1494:	53000100 	movwpl	r0, #256	; 0x100
    1498:	00000160 	andeq	r0, r0, r0, ror #2
    149c:	00000168 	andeq	r0, r0, r8, ror #2
    14a0:	68530001 	ldmdavs	r3, {r0}^
    14a4:	88000001 	stmdahi	r0, {r0}
    14a8:	04000001 	streq	r0, [r0], #-1
    14ac:	5301f300 	movwpl	pc, #4864	; 0x1300	; <UNPREDICTABLE>
    14b0:	0001889f 	muleq	r1, pc, r8	; <UNPREDICTABLE>
    14b4:	00019000 	andeq	r9, r1, r0
    14b8:	53000100 	movwpl	r0, #256	; 0x100
    14bc:	00000190 	muleq	r0, r0, r1
    14c0:	00000194 	muleq	r0, r4, r1
    14c4:	945c0001 	ldrbls	r0, [ip], #-1
    14c8:	9c000001 	stcls	0, cr0, [r0], {1}
    14cc:	01000001 	tsteq	r0, r1
    14d0:	019c5300 	orrseq	r5, ip, r0, lsl #6
    14d4:	01bc0000 			; <UNDEFINED> instruction: 0x01bc0000
    14d8:	00040000 	andeq	r0, r4, r0
    14dc:	9f5301f3 	svcls	0x005301f3
    14e0:	000001bc 			; <UNDEFINED> instruction: 0x000001bc
    14e4:	000001cc 	andeq	r0, r0, ip, asr #3
    14e8:	cc530001 	mrrcgt	0, 0, r0, r3, cr1
    14ec:	cf000001 	svcgt	0x00000001
    14f0:	01000001 	tsteq	r0, r1
    14f4:	01cf5c00 	biceq	r5, pc, r0, lsl #24
    14f8:	01d40000 	bicseq	r0, r4, r0
    14fc:	00040000 	andeq	r0, r4, r0
    1500:	9f5301f3 	svcls	0x005301f3
	...
    150c:	00000080 	andeq	r0, r0, r0, lsl #1
    1510:	0000009c 	muleq	r0, ip, r0
    1514:	00910002 	addseq	r0, r1, r2
    1518:	0000009c 	muleq	r0, ip, r0
    151c:	000001c8 	andeq	r0, r0, r8, asr #3
    1520:	d4520001 	ldrble	r0, [r2], #-1
    1524:	df000001 	svcle	0x00000001
    1528:	01000001 	tsteq	r0, r1
    152c:	00005200 	andeq	r5, r0, r0, lsl #4
    1530:	00000000 	andeq	r0, r0, r0
    1534:	009c0000 	addseq	r0, ip, r0
    1538:	01180000 	tsteq	r8, r0
    153c:	00010000 	andeq	r0, r1, r0
    1540:	0001185d 	andeq	r1, r1, sp, asr r8
    1544:	00011c00 	andeq	r1, r1, r0, lsl #24
    1548:	53000100 	movwpl	r0, #256	; 0x100
    154c:	0000011c 	andeq	r0, r0, ip, lsl r1
    1550:	00000120 	andeq	r0, r0, r0, lsr #2
    1554:	20510001 	subscs	r0, r1, r1
    1558:	60000001 	andvs	r0, r0, r1
    155c:	01000001 	tsteq	r0, r1
    1560:	01605300 	cmneq	r0, r0, lsl #6
    1564:	01680000 	cmneq	r8, r0
    1568:	00010000 	andeq	r0, r1, r0
    156c:	0001685d 	andeq	r6, r1, sp, asr r8
    1570:	00016c00 	andeq	r6, r1, r0, lsl #24
    1574:	5e000100 	adfpls	f0, f0, f0
    1578:	0000016c 	andeq	r0, r0, ip, ror #2
    157c:	00000188 	andeq	r0, r0, r8, lsl #3
    1580:	88530001 	ldmdahi	r3, {r0}^
    1584:	90000001 	andls	r0, r0, r1
    1588:	04000001 	streq	r0, [r0], #-1
    158c:	7fa19100 	svcvc	0x00a19100
    1590:	0001909f 	muleq	r1, pc, r0	; <UNPREDICTABLE>
    1594:	00019400 	andeq	r9, r1, r0, lsl #8
    1598:	53000100 	movwpl	r0, #256	; 0x100
    159c:	00000194 	muleq	r0, r4, r1
    15a0:	0000019c 	muleq	r0, ip, r1
    15a4:	9c5d0001 	mrrcls	0, 0, r0, sp, cr1
    15a8:	a0000001 	andge	r0, r0, r1
    15ac:	01000001 	tsteq	r0, r1
    15b0:	01a05e00 	lsleq	r5, r0, #28
    15b4:	01bc0000 			; <UNDEFINED> instruction: 0x01bc0000
    15b8:	00010000 	andeq	r0, r1, r0
    15bc:	0001bc53 	andeq	fp, r1, r3, asr ip
    15c0:	0001d400 	andeq	sp, r1, r0, lsl #8
    15c4:	5d000100 	stfpls	f0, [r0, #-0]
    15c8:	000001d4 	ldrdeq	r0, [r0], -r4
    15cc:	000001df 	ldrdeq	r0, [r0], -pc	; <UNPREDICTABLE>
    15d0:	00530001 	subseq	r0, r3, r1
    15d4:	00000000 	andeq	r0, r0, r0
    15d8:	a0000000 	andge	r0, r0, r0
    15dc:	ec000000 	stc	0, cr0, [r0], {-0}
    15e0:	01000000 	mrseq	r0, (UNDEF: 0)
    15e4:	00ec5c00 	rsceq	r5, ip, r0, lsl #24
    15e8:	01000000 	mrseq	r0, (UNDEF: 0)
    15ec:	00010000 	andeq	r0, r1, r0
    15f0:	00010053 	andeq	r0, r1, r3, asr r0
    15f4:	00010400 	andeq	r0, r1, r0, lsl #8
    15f8:	5c000100 	stfpls	f0, [r0], {-0}
    15fc:	00000104 	andeq	r0, r0, r4, lsl #2
    1600:	00000108 	andeq	r0, r0, r8, lsl #2
    1604:	08530001 	ldmdaeq	r3, {r0}^
    1608:	18000001 	stmdane	r0, {r0}
    160c:	01000001 	tsteq	r0, r1
    1610:	01185c00 	tsteq	r8, r0, lsl #24
    1614:	011c0000 	tsteq	ip, r0
    1618:	00010000 	andeq	r0, r1, r0
    161c:	00011c50 	andeq	r1, r1, r0, asr ip
    1620:	00013c00 	andeq	r3, r1, r0, lsl #24
    1624:	5c000100 	stfpls	f0, [r0], {-0}
    1628:	00000144 	andeq	r0, r0, r4, asr #2
    162c:	00000158 	andeq	r0, r0, r8, asr r1
    1630:	58500001 	ldmdapl	r0, {r0}^
    1634:	60000001 	andvs	r0, r0, r1
    1638:	01000001 	tsteq	r0, r1
    163c:	01605c00 	cmneq	r0, r0, lsl #24
    1640:	01680000 	cmneq	r8, r0
    1644:	00010000 	andeq	r0, r1, r0
    1648:	00016853 	andeq	r6, r1, r3, asr r8
    164c:	00017800 	andeq	r7, r1, r0, lsl #16
    1650:	5c000100 	stfpls	f0, [r0], {-0}
    1654:	00000178 	andeq	r0, r0, r8, ror r1
    1658:	00000180 	andeq	r0, r0, r0, lsl #3
    165c:	007c0005 	rsbseq	r0, ip, r5
    1660:	809f2534 	addshi	r2, pc, r4, lsr r5	; <UNPREDICTABLE>
    1664:	88000001 	stmdahi	r0, {r0}
    1668:	01000001 	tsteq	r0, r1
    166c:	01885c00 	orreq	r5, r8, r0, lsl #24
    1670:	01900000 	orrseq	r0, r0, r0
    1674:	00010000 	andeq	r0, r1, r0
    1678:	00019053 	andeq	r9, r1, r3, asr r0
    167c:	00019400 	andeq	r9, r1, r0, lsl #8
    1680:	5c000100 	stfpls	f0, [r0], {-0}
    1684:	00000194 	muleq	r0, r4, r1
    1688:	0000019c 	muleq	r0, ip, r1
    168c:	9c530001 	mrrcls	0, 0, r0, r3, cr1
    1690:	ac000001 	stcge	0, cr0, [r0], {1}
    1694:	01000001 	tsteq	r0, r1
    1698:	01ac5c00 			; <UNDEFINED> instruction: 0x01ac5c00
    169c:	01b40000 			; <UNDEFINED> instruction: 0x01b40000
    16a0:	00050000 	andeq	r0, r5, r0
    16a4:	2531007c 	ldrcs	r0, [r1, #-124]!	; 0x7c
    16a8:	0001b49f 	muleq	r1, pc, r4	; <UNPREDICTABLE>
    16ac:	0001bc00 	andeq	fp, r1, r0, lsl #24
    16b0:	5c000100 	stfpls	f0, [r0], {-0}
    16b4:	000001bc 			; <UNDEFINED> instruction: 0x000001bc
    16b8:	000001cc 	andeq	r0, r0, ip, asr #3
    16bc:	cc530001 	mrrcgt	0, 0, r0, r3, cr1
    16c0:	cf000001 	svcgt	0x00000001
    16c4:	01000001 	tsteq	r0, r1
    16c8:	01cf5c00 	biceq	r5, pc, r0, lsl #24
    16cc:	01d40000 	bicseq	r0, r4, r0
    16d0:	00040000 	andeq	r0, r4, r0
    16d4:	9f5301f3 	svcls	0x005301f3
    16d8:	000001d4 	ldrdeq	r0, [r0], -r4
    16dc:	000001df 	ldrdeq	r0, [r0], -pc	; <UNPREDICTABLE>
    16e0:	005c0001 	subseq	r0, ip, r1
    16e4:	00000000 	andeq	r0, r0, r0
    16e8:	ec000000 	stc	0, cr0, [r0], {-0}
    16ec:	fc000000 	stc2	0, cr0, [r0], {-0}
    16f0:	02000000 	andeq	r0, r0, #0
    16f4:	fc9f3000 	ldc2	0, cr3, [pc], {0}
    16f8:	04000000 	streq	r0, [r0], #-0
    16fc:	02000001 	andeq	r0, r0, #1
    1700:	049f3100 	ldreq	r3, [pc], #256	; 1708 <_start-0x68f8>
    1704:	08000001 	stmdaeq	r0, {r0}
    1708:	02000001 	andeq	r0, r0, #1
    170c:	009f3000 	addseq	r3, pc, r0
    1710:	00000000 	andeq	r0, r0, r0
    1714:	18000000 	stmdane	r0, {}	; <UNPREDICTABLE>
    1718:	28000002 	stmdacs	r0, {r1}
    171c:	01000002 	tsteq	r0, r2
    1720:	02285000 	eoreq	r5, r8, #0
    1724:	023c0000 	eorseq	r0, ip, #0
    1728:	00040000 	andeq	r0, r4, r0
    172c:	9f5001f3 	svcls	0x005001f3
    1730:	0000023c 	andeq	r0, r0, ip, lsr r2
    1734:	00000268 	andeq	r0, r0, r8, ror #4
    1738:	00500001 	subseq	r0, r0, r1
    173c:	00000000 	andeq	r0, r0, r0
    1740:	18000000 	stmdane	r0, {}	; <UNPREDICTABLE>
    1744:	2c000002 	stccs	0, cr0, [r0], {2}
    1748:	01000002 	tsteq	r0, r2
    174c:	022c5100 	eoreq	r5, ip, #0, 2
    1750:	023c0000 	eorseq	r0, ip, #0
    1754:	00040000 	andeq	r0, r4, r0
    1758:	9f5101f3 	svcls	0x005101f3
    175c:	0000023c 	andeq	r0, r0, ip, lsr r2
    1760:	00000268 	andeq	r0, r0, r8, ror #4
    1764:	00510001 	subseq	r0, r1, r1
    1768:	00000000 	andeq	r0, r0, r0
    176c:	68000000 	stmdavs	r0, {}	; <UNPREDICTABLE>
    1770:	90000002 	andls	r0, r0, r2
    1774:	01000002 	tsteq	r0, r2
    1778:	02905000 	addseq	r5, r0, #0
    177c:	04dc0000 	ldrbeq	r0, [ip], #0
    1780:	00010000 	andeq	r0, r1, r0
    1784:	0004dc5b 	andeq	sp, r4, fp, asr ip
    1788:	0004f000 	andeq	pc, r4, r0
    178c:	f3000400 	vshl.u8	d0, d0, d0
    1790:	009f5001 	addseq	r5, pc, r1
    1794:	00000000 	andeq	r0, r0, r0
    1798:	68000000 	stmdavs	r0, {}	; <UNPREDICTABLE>
    179c:	7c000002 	stcvc	0, cr0, [r0], {2}
    17a0:	01000002 	tsteq	r0, r2
    17a4:	027c5100 	rsbseq	r5, ip, #0, 2
    17a8:	02900000 	addseq	r0, r0, #0
    17ac:	00030000 	andeq	r0, r3, r0
    17b0:	909f0171 	addsls	r0, pc, r1, ror r1	; <UNPREDICTABLE>
    17b4:	f0000002 			; <UNDEFINED> instruction: 0xf0000002
    17b8:	04000004 	streq	r0, [r0], #-4
    17bc:	5101f300 	mrspl	pc, SP_irq	; <UNPREDICTABLE>
    17c0:	0000009f 	muleq	r0, pc, r0	; <UNPREDICTABLE>
    17c4:	00000000 	andeq	r0, r0, r0
    17c8:	00026800 	andeq	r6, r2, r0, lsl #16
    17cc:	00029800 	andeq	r9, r2, r0, lsl #16
    17d0:	52000100 	andpl	r0, r0, #0, 2
    17d4:	00000298 	muleq	r0, r8, r2
    17d8:	000002c0 	andeq	r0, r0, r0, asr #5
    17dc:	c0520001 	subsgt	r0, r2, r1
    17e0:	8c000002 	stchi	0, cr0, [r0], {2}
    17e4:	01000004 	tsteq	r0, r4
    17e8:	048c5600 	streq	r5, [ip], #1536	; 0x600
    17ec:	04f00000 	ldrbteq	r0, [r0], #0
    17f0:	00010000 	andeq	r0, r1, r0
    17f4:	00000052 	andeq	r0, r0, r2, asr r0
    17f8:	00000000 	andeq	r0, r0, r0
    17fc:	00026800 	andeq	r6, r2, r0, lsl #16
    1800:	00028400 	andeq	r8, r2, r0, lsl #8
    1804:	53000100 	movwpl	r0, #256	; 0x100
	...
    1810:	00000278 	andeq	r0, r0, r8, ror r2
    1814:	00000290 	muleq	r0, r0, r2
    1818:	90500001 	subsls	r0, r0, r1
    181c:	94000002 	strls	r0, [r0], #-2
    1820:	01000002 	tsteq	r0, r2
    1824:	02945400 	addseq	r5, r4, #0, 8
    1828:	02a00000 	adceq	r0, r0, #0
    182c:	00030000 	andeq	r0, r3, r0
    1830:	a09f0174 	addsge	r0, pc, r4, ror r1	; <UNPREDICTABLE>
    1834:	ac000002 	stcge	0, cr0, [r0], {2}
    1838:	01000002 	tsteq	r0, r2
    183c:	02ac5400 	adceq	r5, ip, #0, 8
    1840:	02b80000 	adcseq	r0, r8, #0
    1844:	00030000 	andeq	r0, r3, r0
    1848:	b89f0174 	ldmlt	pc, {r2, r4, r5, r6, r8}	; <UNPREDICTABLE>
    184c:	90000002 	andls	r0, r0, r2
    1850:	01000004 	tsteq	r0, r4
    1854:	04905400 	ldreq	r5, [r0], #1024	; 0x400
    1858:	049c0000 	ldreq	r0, [ip], #0
    185c:	00030000 	andeq	r0, r3, r0
    1860:	9c9f0174 	ldflss	f0, [pc], {116}	; 0x74
    1864:	c8000004 	stmdagt	r0, {r2}
    1868:	01000004 	tsteq	r0, r4
    186c:	04c85400 	strbeq	r5, [r8], #1024	; 0x400
    1870:	04d40000 	ldrbeq	r0, [r4], #0
    1874:	00010000 	andeq	r0, r1, r0
    1878:	0004d450 	andeq	sp, r4, r0, asr r4
    187c:	0004dc00 	andeq	sp, r4, r0, lsl #24
    1880:	74000300 	strvc	r0, [r0], #-768	; 0x300
    1884:	00009f01 	andeq	r9, r0, r1, lsl #30
    1888:	00000000 	andeq	r0, r0, r0
    188c:	02800000 	addeq	r0, r0, #0
    1890:	04dc0000 	ldrbeq	r0, [ip], #0
    1894:	00010000 	andeq	r0, r1, r0
    1898:	0004dc58 	andeq	sp, r4, r8, asr ip
    189c:	0004f000 	andeq	pc, r4, r0
    18a0:	f3000a00 	vpmax.u8	d0, d0, d0
    18a4:	01f35101 	mvnseq	r5, r1, lsl #2
    18a8:	1c312250 	lfmne	f2, 4, [r1], #-320	; 0xfffffec0
    18ac:	0000009f 	muleq	r0, pc, r0	; <UNPREDICTABLE>
    18b0:	00000000 	andeq	r0, r0, r0
    18b4:	0003bc00 	andeq	fp, r3, r0, lsl #24
    18b8:	0003c000 	andeq	ip, r3, r0
    18bc:	50000100 	andpl	r0, r0, r0, lsl #2
    18c0:	000003e4 	andeq	r0, r0, r4, ror #7
    18c4:	000003e8 	andeq	r0, r0, r8, ror #7
    18c8:	0c500001 	mrrceq	0, 0, r0, r0, cr1	; <UNPREDICTABLE>
    18cc:	10000004 	andne	r0, r0, r4
    18d0:	01000004 	tsteq	r0, r4
    18d4:	04345000 	ldrteq	r5, [r4], #-0
    18d8:	04380000 	ldrteq	r0, [r8], #-0
    18dc:	00010000 	andeq	r0, r1, r0
    18e0:	00044050 	andeq	r4, r4, r0, asr r0
    18e4:	00044400 	andeq	r4, r4, r0, lsl #8
    18e8:	50000100 	andpl	r0, r0, r0, lsl #2
    18ec:	00000468 	andeq	r0, r0, r8, ror #8
    18f0:	0000046c 	andeq	r0, r0, ip, ror #8
    18f4:	88500001 	ldmdahi	r0, {r0}^
    18f8:	b0000004 	andlt	r0, r0, r4
    18fc:	01000004 	tsteq	r0, r4
    1900:	00005000 	andeq	r5, r0, r0
    1904:	00000000 	andeq	r0, r0, r0
    1908:	02c00000 	sbceq	r0, r0, #0
    190c:	02c80000 	sbceq	r0, r8, #0
    1910:	00020000 	andeq	r0, r2, r0
    1914:	02c89f30 	sbceq	r9, r8, #48, 30	; 0xc0
    1918:	02cc0000 	sbceq	r0, ip, #0
    191c:	00010000 	andeq	r0, r1, r0
    1920:	0002d857 	andeq	sp, r2, r7, asr r8
    1924:	0004b000 	andeq	fp, r4, r0
    1928:	57000100 	strpl	r0, [r0, -r0, lsl #2]
	...
    1934:	00000004 	andeq	r0, r0, r4
    1938:	00000008 	andeq	r0, r0, r8
    193c:	00730007 	rsbseq	r0, r3, r7
    1940:	2110000a 	tstcs	r0, sl
    1944:	0000089f 	muleq	r0, pc, r8	; <UNPREDICTABLE>
    1948:	00001000 	andeq	r1, r0, r0
    194c:	53000100 	movwpl	r0, #256	; 0x100
	...
    1958:	00000014 	andeq	r0, r0, r4, lsl r0
    195c:	00000018 	andeq	r0, r0, r8, lsl r0
    1960:	00730007 	rsbseq	r0, r3, r7
    1964:	1aefff0b 	bne	ffc01598 <__bss_end__+0xffbf4ce0>
    1968:	0000189f 	muleq	r0, pc, r8	; <UNPREDICTABLE>
    196c:	00002000 	andeq	r2, r0, r0
    1970:	53000100 	movwpl	r0, #256	; 0x100
	...
    197c:	00000014 	andeq	r0, r0, r4, lsl r0
    1980:	0000001c 	andeq	r0, r0, ip, lsl r0
    1984:	04730003 	ldrbteq	r0, [r3], #-3
    1988:	00001c9f 	muleq	r0, pc, ip	; <UNPREDICTABLE>
    198c:	00002700 	andeq	r2, r0, r0, lsl #14
    1990:	53000100 	movwpl	r0, #256	; 0x100
	...
    199c:	00009318 	andeq	r9, r0, r8, lsl r3
    19a0:	0000931c 	andeq	r9, r0, ip, lsl r3
    19a4:	9f300002 	svcls	0x00300002
    19a8:	0000931c 	andeq	r9, r0, ip, lsl r3
    19ac:	00009320 	andeq	r9, r0, r0, lsr #6
    19b0:	00500001 	subseq	r0, r0, r1
    19b4:	00000000 	andeq	r0, r0, r0
    19b8:	30000000 	andcc	r0, r0, r0
    19bc:	34000093 	strcc	r0, [r0], #-147	; 0x93
    19c0:	02000093 	andeq	r0, r0, #147	; 0x93
    19c4:	349f3000 	ldrcc	r3, [pc], #0	; 19cc <_start-0x6634>
    19c8:	38000093 	stmdacc	r0, {r0, r1, r4, r7}
    19cc:	01000093 	swpeq	r0, r3, [r0]	; <UNPREDICTABLE>
    19d0:	933c5300 	teqls	ip, #0, 6
    19d4:	93440000 	movtls	r0, #16384	; 0x4000
    19d8:	00010000 	andeq	r0, r1, r0
    19dc:	00000053 	andeq	r0, r0, r3, asr r0
	...
    19e8:	00000400 	andeq	r0, r0, r0, lsl #8
    19ec:	50000100 	andpl	r0, r0, r0, lsl #2
    19f0:	00000004 	andeq	r0, r0, r4
    19f4:	0000000c 	andeq	r0, r0, ip
    19f8:	0c530001 	mrrceq	0, 0, r0, r3, cr1
    19fc:	10000000 	andne	r0, r0, r0
    1a00:	01000000 	mrseq	r0, (UNDEF: 0)
    1a04:	00105000 	andseq	r5, r0, r0
    1a08:	001c0000 	andseq	r0, ip, r0
    1a0c:	00010000 	andeq	r0, r1, r0
    1a10:	00000053 	andeq	r0, r0, r3, asr r0
    1a14:	00000000 	andeq	r0, r0, r0
    1a18:	00003c00 	andeq	r3, r0, r0, lsl #24
    1a1c:	00004700 	andeq	r4, r0, r0, lsl #14
    1a20:	50000100 	andpl	r0, r0, r0, lsl #2
    1a24:	00000047 	andeq	r0, r0, r7, asr #32
    1a28:	00000060 	andeq	r0, r0, r0, rrx
    1a2c:	00550001 	subseq	r0, r5, r1
    1a30:	00000000 	andeq	r0, r0, r0
    1a34:	50000000 	andpl	r0, r0, r0
    1a38:	54000000 	strpl	r0, [r0], #-0
    1a3c:	01000000 	mrseq	r0, (UNDEF: 0)
    1a40:	00005000 	andeq	r5, r0, r0
    1a44:	00000000 	andeq	r0, r0, r0
    1a48:	00600000 	rsbeq	r0, r0, r0
    1a4c:	006c0000 	rsbeq	r0, ip, r0
    1a50:	00010000 	andeq	r0, r1, r0
    1a54:	00006c50 	andeq	r6, r0, r0, asr ip
    1a58:	00007400 	andeq	r7, r0, r0, lsl #8
    1a5c:	f3000400 	vshl.u8	d0, d0, d0
    1a60:	009f5001 	addseq	r5, pc, r1
    1a64:	00000000 	andeq	r0, r0, r0
    1a68:	74000000 	strvc	r0, [r0], #-0
    1a6c:	80000000 	andhi	r0, r0, r0
    1a70:	01000000 	mrseq	r0, (UNDEF: 0)
    1a74:	00805000 	addeq	r5, r0, r0
    1a78:	00880000 	addeq	r0, r8, r0
    1a7c:	00040000 	andeq	r0, r4, r0
    1a80:	9f5001f3 	svcls	0x005001f3
	...
    1a90:	00000090 	muleq	r0, r0, r0
    1a94:	90500001 	subsls	r0, r0, r1
    1a98:	d4000000 	strle	r0, [r0], #-0
    1a9c:	01000000 	mrseq	r0, (UNDEF: 0)
    1aa0:	00005400 	andeq	r5, r0, r0, lsl #8
    1aa4:	00000000 	andeq	r0, r0, r0
    1aa8:	00480000 	subeq	r0, r8, r0
    1aac:	004c0000 	subeq	r0, ip, r0
    1ab0:	00010000 	andeq	r0, r1, r0
    1ab4:	00005455 	andeq	r5, r0, r5, asr r4
    1ab8:	00005800 	andeq	r5, r0, r0, lsl #16
    1abc:	55000100 	strpl	r0, [r0, #-256]	; 0x100
    1ac0:	00000060 	andeq	r0, r0, r0, rrx
    1ac4:	00000064 	andeq	r0, r0, r4, rrx
    1ac8:	6c550001 	mrrcvs	0, 0, r0, r5, cr1
    1acc:	70000000 	andvc	r0, r0, r0
    1ad0:	01000000 	mrseq	r0, (UNDEF: 0)
    1ad4:	00785500 	rsbseq	r5, r8, r0, lsl #10
    1ad8:	007c0000 	rsbseq	r0, ip, r0
    1adc:	00010000 	andeq	r0, r1, r0
    1ae0:	00008455 	andeq	r8, r0, r5, asr r4
    1ae4:	00008800 	andeq	r8, r0, r0, lsl #16
    1ae8:	55000100 	strpl	r0, [r0, #-256]	; 0x100
    1aec:	0000008c 	andeq	r0, r0, ip, lsl #1
    1af0:	000000d4 	ldrdeq	r0, [r0], -r4
    1af4:	00550001 	subseq	r0, r5, r1
    1af8:	00000000 	andeq	r0, r0, r0
    1afc:	1c000000 	stcne	0, cr0, [r0], {-0}
    1b00:	44000000 	strmi	r0, [r0], #-0
    1b04:	01000000 	mrseq	r0, (UNDEF: 0)
    1b08:	00445300 	subeq	r5, r4, r0, lsl #6
    1b0c:	004c0000 	subeq	r0, ip, r0
    1b10:	001c0000 	andseq	r0, ip, r0
    1b14:	2cf70070 	ldclcs	0, cr0, [r7], #448	; 0x1c0
    1b18:	25f425f7 	ldrbcs	r2, [r4, #1527]!	; 0x5f7
    1b1c:	cccccd08 	stclgt	13, cr12, [ip], {8}
    1b20:	000000cc 	andeq	r0, r0, ip, asr #1
    1b24:	20081e00 	andcs	r1, r8, r0, lsl #28
    1b28:	f72525f7 			; <UNDEFINED> instruction: 0xf72525f7
    1b2c:	9f25332c 	svcls	0x0025332c
    1b30:	0000004c 	andeq	r0, r0, ip, asr #32
    1b34:	00000050 	andeq	r0, r0, r0, asr r0
    1b38:	50530001 	subspl	r0, r3, r1
    1b3c:	58000000 	stmdapl	r0, {}	; <UNPREDICTABLE>
    1b40:	1c000000 	stcne	0, cr0, [r0], {-0}
    1b44:	f7007000 			; <UNDEFINED> instruction: 0xf7007000
    1b48:	f425f72c 	vld1.8	{d15}, [r5 :128], ip
    1b4c:	cccd0825 	stclgt	8, cr0, [sp], {37}	; 0x25
    1b50:	0000cccc 	andeq	ip, r0, ip, asr #25
    1b54:	081e0000 	ldmdaeq	lr, {}	; <UNPREDICTABLE>
    1b58:	2525f720 	strcs	pc, [r5, #-1824]!	; 0x720
    1b5c:	25332cf7 	ldrcs	r2, [r3, #-3319]!	; 0xcf7
    1b60:	0000589f 	muleq	r0, pc, r8	; <UNPREDICTABLE>
    1b64:	00005c00 	andeq	r5, r0, r0, lsl #24
    1b68:	53000100 	movwpl	r0, #256	; 0x100
    1b6c:	0000005c 	andeq	r0, r0, ip, asr r0
    1b70:	00000064 	andeq	r0, r0, r4, rrx
    1b74:	0070001c 	rsbseq	r0, r0, ip, lsl r0
    1b78:	25f72cf7 	ldrbcs	r2, [r7, #3319]!	; 0xcf7
    1b7c:	cd0825f4 	cfstr32gt	mvfx2, [r8, #-976]	; 0xfffffc30
    1b80:	00cccccc 	sbceq	ip, ip, ip, asr #25
    1b84:	1e000000 	cdpne	0, 0, cr0, cr0, cr0, {0}
    1b88:	25f72008 	ldrbcs	r2, [r7, #8]!
    1b8c:	332cf725 	msrcc	CPSR_fs, #9699328	; 0x940000
    1b90:	00649f25 	rsbeq	r9, r4, r5, lsr #30
    1b94:	00680000 	rsbeq	r0, r8, r0
    1b98:	00010000 	andeq	r0, r1, r0
    1b9c:	00006853 	andeq	r6, r0, r3, asr r8
    1ba0:	00007000 	andeq	r7, r0, r0
    1ba4:	70001c00 	andvc	r1, r0, r0, lsl #24
    1ba8:	f72cf700 			; <UNDEFINED> instruction: 0xf72cf700
    1bac:	0825f425 	stmdaeq	r5!, {r0, r2, r5, sl, ip, sp, lr, pc}
    1bb0:	cccccccd 	stclgt	12, cr12, [ip], {205}	; 0xcd
    1bb4:	00000000 	andeq	r0, r0, r0
    1bb8:	f720081e 			; <UNDEFINED> instruction: 0xf720081e
    1bbc:	2cf72525 	cfldr64cs	mvdx2, [r7], #148	; 0x94
    1bc0:	709f2533 	addsvc	r2, pc, r3, lsr r5	; <UNPREDICTABLE>
    1bc4:	74000000 	strvc	r0, [r0], #-0
    1bc8:	01000000 	mrseq	r0, (UNDEF: 0)
    1bcc:	00745300 	rsbseq	r5, r4, r0, lsl #6
    1bd0:	007c0000 	rsbseq	r0, ip, r0
    1bd4:	001c0000 	andseq	r0, ip, r0
    1bd8:	2cf70070 	ldclcs	0, cr0, [r7], #448	; 0x1c0
    1bdc:	25f425f7 	ldrbcs	r2, [r4, #1527]!	; 0x5f7
    1be0:	cccccd08 	stclgt	13, cr12, [ip], {8}
    1be4:	000000cc 	andeq	r0, r0, ip, asr #1
    1be8:	20081e00 	andcs	r1, r8, r0, lsl #28
    1bec:	f72525f7 			; <UNDEFINED> instruction: 0xf72525f7
    1bf0:	9f25332c 	svcls	0x0025332c
    1bf4:	0000007c 	andeq	r0, r0, ip, ror r0
    1bf8:	00000080 	andeq	r0, r0, r0, lsl #1
    1bfc:	80530001 	subshi	r0, r3, r1
    1c00:	88000000 	stmdahi	r0, {}	; <UNPREDICTABLE>
    1c04:	1c000000 	stcne	0, cr0, [r0], {-0}
    1c08:	f7007000 			; <UNDEFINED> instruction: 0xf7007000
    1c0c:	f425f72c 	vld1.8	{d15}, [r5 :128], ip
    1c10:	cccd0825 	stclgt	8, cr0, [sp], {37}	; 0x25
    1c14:	0000cccc 	andeq	ip, r0, ip, asr #25
    1c18:	081e0000 	ldmdaeq	lr, {}	; <UNPREDICTABLE>
    1c1c:	2525f720 	strcs	pc, [r5, #-1824]!	; 0x720
    1c20:	25332cf7 	ldrcs	r2, [r3, #-3319]!	; 0xcf7
    1c24:	0000889f 	muleq	r0, pc, r8	; <UNPREDICTABLE>
    1c28:	00008c00 	andeq	r8, r0, r0, lsl #24
    1c2c:	53000100 	movwpl	r0, #256	; 0x100
    1c30:	0000008c 	andeq	r0, r0, ip, lsl #1
    1c34:	00000090 	muleq	r0, r0, r0
    1c38:	0070001c 	rsbseq	r0, r0, ip, lsl r0
    1c3c:	25f72cf7 	ldrbcs	r2, [r7, #3319]!	; 0xcf7
    1c40:	cd0825f4 	cfstr32gt	mvfx2, [r8, #-976]	; 0xfffffc30
    1c44:	00cccccc 	sbceq	ip, ip, ip, asr #25
    1c48:	1e000000 	cdpne	0, 0, cr0, cr0, cr0, {0}
    1c4c:	25f72008 	ldrbcs	r2, [r7, #8]!
    1c50:	332cf725 	msrcc	CPSR_fs, #9699328	; 0x940000
    1c54:	00909f25 	addseq	r9, r0, r5, lsr #30
    1c58:	00980000 	addseq	r0, r8, r0
    1c5c:	001c0000 	andseq	r0, ip, r0
    1c60:	2cf70074 	ldclcs	0, cr0, [r7], #464	; 0x1d0
    1c64:	25f425f7 	ldrbcs	r2, [r4, #1527]!	; 0x5f7
    1c68:	cccccd08 	stclgt	13, cr12, [ip], {8}
    1c6c:	000000cc 	andeq	r0, r0, ip, asr #1
    1c70:	20081e00 	andcs	r1, r8, r0, lsl #28
    1c74:	f72525f7 			; <UNDEFINED> instruction: 0xf72525f7
    1c78:	9f25332c 	svcls	0x0025332c
    1c7c:	00000098 	muleq	r0, r8, r0
    1c80:	0000009c 	muleq	r0, ip, r0
    1c84:	00740017 	rsbseq	r0, r4, r7, lsl r0
    1c88:	25f72cf7 	ldrbcs	r2, [r7, #3319]!	; 0xcf7
    1c8c:	2cf70071 	ldclcs	0, cr0, [r7], #452	; 0x1c4
    1c90:	081e25f7 	ldmdaeq	lr, {r0, r1, r2, r4, r5, r6, r7, r8, sl, sp}
    1c94:	2525f720 	strcs	pc, [r5, #-1824]!	; 0x720
    1c98:	25332cf7 	ldrcs	r2, [r3, #-3319]!	; 0xcf7
    1c9c:	00009c9f 	muleq	r0, pc, ip	; <UNPREDICTABLE>
    1ca0:	0000d400 	andeq	sp, r0, r0, lsl #8
    1ca4:	74001c00 	strvc	r1, [r0], #-3072	; 0xc00
    1ca8:	f72cf700 			; <UNDEFINED> instruction: 0xf72cf700
    1cac:	0825f425 	stmdaeq	r5!, {r0, r2, r5, sl, ip, sp, lr, pc}
    1cb0:	cccccccd 	stclgt	12, cr12, [ip], {205}	; 0xcd
    1cb4:	00000000 	andeq	r0, r0, r0
    1cb8:	f720081e 			; <UNDEFINED> instruction: 0xf720081e
    1cbc:	2cf72525 	cfldr64cs	mvdx2, [r7], #148	; 0x94
    1cc0:	009f2533 	addseq	r2, pc, r3, lsr r5	; <UNPREDICTABLE>
    1cc4:	00000000 	andeq	r0, r0, r0
    1cc8:	94000000 	strls	r0, [r0], #-0
    1ccc:	b8000000 	stmdalt	r0, {}	; <UNPREDICTABLE>
    1cd0:	01000000 	mrseq	r0, (UNDEF: 0)
    1cd4:	00b85000 	adcseq	r5, r8, r0
    1cd8:	00c40000 	sbceq	r0, r4, r0
    1cdc:	00080000 	andeq	r0, r8, r0
    1ce0:	24007131 	strcs	r7, [r0], #-305	; 0x131
    1ce4:	9f210073 	svcls	0x00210073
    1ce8:	000000c4 	andeq	r0, r0, r4, asr #1
    1cec:	000000c7 	andeq	r0, r0, r7, asr #1
    1cf0:	00510001 	subseq	r0, r1, r1
    1cf4:	00000000 	andeq	r0, r0, r0
    1cf8:	d4000000 	strle	r0, [r0], #-0
    1cfc:	f8000000 			; <UNDEFINED> instruction: 0xf8000000
    1d00:	01000000 	mrseq	r0, (UNDEF: 0)
    1d04:	00f85000 	rscseq	r5, r8, r0
    1d08:	010c0000 	mrseq	r0, (UNDEF: 12)
    1d0c:	00040000 	andeq	r0, r4, r0
    1d10:	9f5001f3 	svcls	0x005001f3
	...
    1d1c:	000000e0 	andeq	r0, r0, r0, ror #1
    1d20:	000000e8 	andeq	r0, r0, r8, ror #1
    1d24:	9f300002 	svcls	0x00300002
    1d28:	000000e8 	andeq	r0, r0, r8, ror #1
    1d2c:	000000e8 	andeq	r0, r0, r8, ror #1
    1d30:	e8520001 	ldmda	r2, {r0}^
    1d34:	f0000000 			; <UNDEFINED> instruction: 0xf0000000
    1d38:	02000000 	andeq	r0, r0, #0
    1d3c:	f09f3000 			; <UNDEFINED> instruction: 0xf09f3000
    1d40:	03000000 	movweq	r0, #0
    1d44:	01000001 	tsteq	r0, r1
    1d48:	00005200 	andeq	r5, r0, r0, lsl #4
    1d4c:	00000000 	andeq	r0, r0, r0
    1d50:	00e00000 	rsceq	r0, r0, r0
    1d54:	00f40000 	rscseq	r0, r4, r0
    1d58:	00020000 	andeq	r0, r2, r0
    1d5c:	00f49f30 	rscseq	r9, r4, r0, lsr pc
    1d60:	01000000 	mrseq	r0, (UNDEF: 0)
    1d64:	00050000 	andeq	r0, r5, r0
    1d68:	24007331 	strcs	r7, [r0], #-817	; 0x331
    1d6c:	0001009f 	muleq	r1, pc, r0	; <UNPREDICTABLE>
    1d70:	00010300 	andeq	r0, r1, r0, lsl #6
    1d74:	51000100 	mrspl	r0, (UNDEF: 16)
    1d78:	00000103 	andeq	r0, r0, r3, lsl #2
    1d7c:	0000010c 	andeq	r0, r0, ip, lsl #2
    1d80:	f3310008 	vhadd.u<illegal width 64>	d0, d1, d8
    1d84:	1a4f5001 	bne	13d5d90 <__bss_end__+0x13c94d8>
    1d88:	00009f24 	andeq	r9, r0, r4, lsr #30
    1d8c:	00000000 	andeq	r0, r0, r0
    1d90:	010c0000 	mrseq	r0, (UNDEF: 12)
    1d94:	01300000 	teqeq	r0, r0
    1d98:	00010000 	andeq	r0, r1, r0
    1d9c:	00013050 	andeq	r3, r1, r0, asr r0
    1da0:	00014400 	andeq	r4, r1, r0, lsl #8
    1da4:	f3000400 	vshl.u8	d0, d0, d0
    1da8:	009f5001 	addseq	r5, pc, r1
    1dac:	00000000 	andeq	r0, r0, r0
    1db0:	18000000 	stmdane	r0, {}	; <UNPREDICTABLE>
    1db4:	20000001 	andcs	r0, r0, r1
    1db8:	02000001 	andeq	r0, r0, #1
    1dbc:	209f3000 	addscs	r3, pc, r0
    1dc0:	20000001 	andcs	r0, r0, r1
    1dc4:	01000001 	tsteq	r0, r1
    1dc8:	01205200 	teqeq	r0, r0, lsl #4
    1dcc:	01280000 	teqeq	r8, r0
    1dd0:	00020000 	andeq	r0, r2, r0
    1dd4:	01289f30 	teqeq	r8, r0, lsr pc
    1dd8:	013b0000 	teqeq	fp, r0
    1ddc:	00010000 	andeq	r0, r1, r0
    1de0:	00000052 	andeq	r0, r0, r2, asr r0
    1de4:	00000000 	andeq	r0, r0, r0
    1de8:	00011800 	andeq	r1, r1, r0, lsl #16
    1dec:	00012c00 	andeq	r2, r1, r0, lsl #24
    1df0:	30000200 	andcc	r0, r0, r0, lsl #4
    1df4:	00012c9f 	muleq	r1, pc, ip	; <UNPREDICTABLE>
    1df8:	00013800 	andeq	r3, r1, r0, lsl #16
    1dfc:	31000500 	tstcc	r0, r0, lsl #10
    1e00:	9f240073 	svcls	0x00240073
    1e04:	00000138 	andeq	r0, r0, r8, lsr r1
    1e08:	0000013b 	andeq	r0, r0, fp, lsr r1
    1e0c:	3b510001 	blcc	1441e18 <__bss_end__+0x1435560>
    1e10:	44000001 	strmi	r0, [r0], #-1
    1e14:	08000001 	stmdaeq	r0, {r0}
    1e18:	01f33100 	mvnseq	r3, r0, lsl #2
    1e1c:	241a4f50 	ldrcs	r4, [sl], #-3920	; 0xf50
    1e20:	0000009f 	muleq	r0, pc, r0	; <UNPREDICTABLE>
    1e24:	00000000 	andeq	r0, r0, r0
    1e28:	00014400 	andeq	r4, r1, r0, lsl #8
    1e2c:	0001d400 	andeq	sp, r1, r0, lsl #8
    1e30:	50000100 	andpl	r0, r0, r0, lsl #2
    1e34:	000001d4 	ldrdeq	r0, [r0], -r4
    1e38:	00000210 	andeq	r0, r0, r0, lsl r2
    1e3c:	00540001 	subseq	r0, r4, r1
    1e40:	00000000 	andeq	r0, r0, r0
    1e44:	8c000000 	stchi	0, cr0, [r0], {-0}
    1e48:	90000001 	andls	r0, r0, r1
    1e4c:	01000001 	tsteq	r0, r1
    1e50:	01985500 	orrseq	r5, r8, r0, lsl #10
    1e54:	019c0000 	orrseq	r0, ip, r0
    1e58:	00010000 	andeq	r0, r1, r0
    1e5c:	0001a455 	andeq	sl, r1, r5, asr r4
    1e60:	0001a800 	andeq	sl, r1, r0, lsl #16
    1e64:	55000100 	strpl	r0, [r0, #-256]	; 0x100
    1e68:	000001b0 			; <UNDEFINED> instruction: 0x000001b0
    1e6c:	000001b4 			; <UNDEFINED> instruction: 0x000001b4
    1e70:	bc550001 	mrrclt	0, 0, r0, r5, cr1
    1e74:	c0000001 	andgt	r0, r0, r1
    1e78:	01000001 	tsteq	r0, r1
    1e7c:	01c85500 	biceq	r5, r8, r0, lsl #10
    1e80:	01cc0000 	biceq	r0, ip, r0
    1e84:	00010000 	andeq	r0, r1, r0
    1e88:	0001d055 	andeq	sp, r1, r5, asr r0
    1e8c:	00021000 	andeq	r1, r2, r0
    1e90:	55000100 	strpl	r0, [r0, #-256]	; 0x100
	...
    1e9c:	00000160 	andeq	r0, r0, r0, ror #2
    1ea0:	00000188 	andeq	r0, r0, r8, lsl #3
    1ea4:	88530001 	ldmdahi	r3, {r0}^
    1ea8:	90000001 	andls	r0, r0, r1
    1eac:	1c000001 	stcne	0, cr0, [r0], {1}
    1eb0:	f7007000 			; <UNDEFINED> instruction: 0xf7007000
    1eb4:	f425f72c 	vld1.8	{d15}, [r5 :128], ip
    1eb8:	cccd0825 	stclgt	8, cr0, [sp], {37}	; 0x25
    1ebc:	0000cccc 	andeq	ip, r0, ip, asr #25
    1ec0:	081e0000 	ldmdaeq	lr, {}	; <UNPREDICTABLE>
    1ec4:	2525f720 	strcs	pc, [r5, #-1824]!	; 0x720
    1ec8:	25332cf7 	ldrcs	r2, [r3, #-3319]!	; 0xcf7
    1ecc:	0001909f 	muleq	r1, pc, r0	; <UNPREDICTABLE>
    1ed0:	00019400 	andeq	r9, r1, r0, lsl #8
    1ed4:	53000100 	movwpl	r0, #256	; 0x100
    1ed8:	00000194 	muleq	r0, r4, r1
    1edc:	0000019c 	muleq	r0, ip, r1
    1ee0:	0070001c 	rsbseq	r0, r0, ip, lsl r0
    1ee4:	25f72cf7 	ldrbcs	r2, [r7, #3319]!	; 0xcf7
    1ee8:	cd0825f4 	cfstr32gt	mvfx2, [r8, #-976]	; 0xfffffc30
    1eec:	00cccccc 	sbceq	ip, ip, ip, asr #25
    1ef0:	1e000000 	cdpne	0, 0, cr0, cr0, cr0, {0}
    1ef4:	25f72008 	ldrbcs	r2, [r7, #8]!
    1ef8:	332cf725 	msrcc	CPSR_fs, #9699328	; 0x940000
    1efc:	019c9f25 	orrseq	r9, ip, r5, lsr #30
    1f00:	01a00000 	moveq	r0, r0
    1f04:	00010000 	andeq	r0, r1, r0
    1f08:	0001a053 	andeq	sl, r1, r3, asr r0
    1f0c:	0001a800 	andeq	sl, r1, r0, lsl #16
    1f10:	70001c00 	andvc	r1, r0, r0, lsl #24
    1f14:	f72cf700 			; <UNDEFINED> instruction: 0xf72cf700
    1f18:	0825f425 	stmdaeq	r5!, {r0, r2, r5, sl, ip, sp, lr, pc}
    1f1c:	cccccccd 	stclgt	12, cr12, [ip], {205}	; 0xcd
    1f20:	00000000 	andeq	r0, r0, r0
    1f24:	f720081e 			; <UNDEFINED> instruction: 0xf720081e
    1f28:	2cf72525 	cfldr64cs	mvdx2, [r7], #148	; 0x94
    1f2c:	a89f2533 	ldmge	pc, {r0, r1, r4, r5, r8, sl, sp}	; <UNPREDICTABLE>
    1f30:	ac000001 	stcge	0, cr0, [r0], {1}
    1f34:	01000001 	tsteq	r0, r1
    1f38:	01ac5300 			; <UNDEFINED> instruction: 0x01ac5300
    1f3c:	01b40000 			; <UNDEFINED> instruction: 0x01b40000
    1f40:	001c0000 	andseq	r0, ip, r0
    1f44:	2cf70070 	ldclcs	0, cr0, [r7], #448	; 0x1c0
    1f48:	25f425f7 	ldrbcs	r2, [r4, #1527]!	; 0x5f7
    1f4c:	cccccd08 	stclgt	13, cr12, [ip], {8}
    1f50:	000000cc 	andeq	r0, r0, ip, asr #1
    1f54:	20081e00 	andcs	r1, r8, r0, lsl #28
    1f58:	f72525f7 			; <UNDEFINED> instruction: 0xf72525f7
    1f5c:	9f25332c 	svcls	0x0025332c
    1f60:	000001b4 			; <UNDEFINED> instruction: 0x000001b4
    1f64:	000001b8 			; <UNDEFINED> instruction: 0x000001b8
    1f68:	b8530001 	ldmdalt	r3, {r0}^
    1f6c:	c0000001 	andgt	r0, r0, r1
    1f70:	1c000001 	stcne	0, cr0, [r0], {1}
    1f74:	f7007000 			; <UNDEFINED> instruction: 0xf7007000
    1f78:	f425f72c 	vld1.8	{d15}, [r5 :128], ip
    1f7c:	cccd0825 	stclgt	8, cr0, [sp], {37}	; 0x25
    1f80:	0000cccc 	andeq	ip, r0, ip, asr #25
    1f84:	081e0000 	ldmdaeq	lr, {}	; <UNPREDICTABLE>
    1f88:	2525f720 	strcs	pc, [r5, #-1824]!	; 0x720
    1f8c:	25332cf7 	ldrcs	r2, [r3, #-3319]!	; 0xcf7
    1f90:	0001c09f 	muleq	r1, pc, r0	; <UNPREDICTABLE>
    1f94:	0001c400 	andeq	ip, r1, r0, lsl #8
    1f98:	53000100 	movwpl	r0, #256	; 0x100
    1f9c:	000001c4 	andeq	r0, r0, r4, asr #3
    1fa0:	000001cc 	andeq	r0, r0, ip, asr #3
    1fa4:	0070001c 	rsbseq	r0, r0, ip, lsl r0
    1fa8:	25f72cf7 	ldrbcs	r2, [r7, #3319]!	; 0xcf7
    1fac:	cd0825f4 	cfstr32gt	mvfx2, [r8, #-976]	; 0xfffffc30
    1fb0:	00cccccc 	sbceq	ip, ip, ip, asr #25
    1fb4:	1e000000 	cdpne	0, 0, cr0, cr0, cr0, {0}
    1fb8:	25f72008 	ldrbcs	r2, [r7, #8]!
    1fbc:	332cf725 	msrcc	CPSR_fs, #9699328	; 0x940000
    1fc0:	01cc9f25 	biceq	r9, ip, r5, lsr #30
    1fc4:	01d00000 	bicseq	r0, r0, r0
    1fc8:	00010000 	andeq	r0, r1, r0
    1fcc:	0001d053 	andeq	sp, r1, r3, asr r0
    1fd0:	0001d400 	andeq	sp, r1, r0, lsl #8
    1fd4:	70001c00 	andvc	r1, r0, r0, lsl #24
    1fd8:	f72cf700 			; <UNDEFINED> instruction: 0xf72cf700
    1fdc:	0825f425 	stmdaeq	r5!, {r0, r2, r5, sl, ip, sp, lr, pc}
    1fe0:	cccccccd 	stclgt	12, cr12, [ip], {205}	; 0xcd
    1fe4:	00000000 	andeq	r0, r0, r0
    1fe8:	f720081e 			; <UNDEFINED> instruction: 0xf720081e
    1fec:	2cf72525 	cfldr64cs	mvdx2, [r7], #148	; 0x94
    1ff0:	d49f2533 	ldrle	r2, [pc], #1331	; 1ff8 <_start-0x6008>
    1ff4:	dc000001 	stcle	0, cr0, [r0], {1}
    1ff8:	1c000001 	stcne	0, cr0, [r0], {1}
    1ffc:	f7007400 			; <UNDEFINED> instruction: 0xf7007400
    2000:	f425f72c 	vld1.8	{d15}, [r5 :128], ip
    2004:	cccd0825 	stclgt	8, cr0, [sp], {37}	; 0x25
    2008:	0000cccc 	andeq	ip, r0, ip, asr #25
    200c:	081e0000 	ldmdaeq	lr, {}	; <UNPREDICTABLE>
    2010:	2525f720 	strcs	pc, [r5, #-1824]!	; 0x720
    2014:	25332cf7 	ldrcs	r2, [r3, #-3319]!	; 0xcf7
    2018:	0001dc9f 	muleq	r1, pc, ip	; <UNPREDICTABLE>
    201c:	0001e000 	andeq	lr, r1, r0
    2020:	74001700 	strvc	r1, [r0], #-1792	; 0x700
    2024:	f72cf700 			; <UNDEFINED> instruction: 0xf72cf700
    2028:	f7007125 			; <UNDEFINED> instruction: 0xf7007125
    202c:	1e25f72c 	cdpne	7, 2, cr15, cr5, cr12, {1}
    2030:	25f72008 	ldrbcs	r2, [r7, #8]!
    2034:	332cf725 	msrcc	CPSR_fs, #9699328	; 0x940000
    2038:	01e09f25 	mvneq	r9, r5, lsr #30
    203c:	02100000 	andseq	r0, r0, #0
    2040:	001c0000 	andseq	r0, ip, r0
    2044:	2cf70074 	ldclcs	0, cr0, [r7], #464	; 0x1d0
    2048:	25f425f7 	ldrbcs	r2, [r4, #1527]!	; 0x5f7
    204c:	cccccd08 	stclgt	13, cr12, [ip], {8}
    2050:	000000cc 	andeq	r0, r0, ip, asr #1
    2054:	20081e00 	andcs	r1, r8, r0, lsl #28
    2058:	f72525f7 			; <UNDEFINED> instruction: 0xf72525f7
    205c:	9f25332c 	svcls	0x0025332c
	...
    2068:	000001d8 	ldrdeq	r0, [r0], -r8
    206c:	000001fc 	strdeq	r0, [r0], -ip
    2070:	fc500001 	mrrc2	0, 0, r0, r0, cr1	; <UNPREDICTABLE>
    2074:	03000001 	movweq	r0, #1
    2078:	01000002 	tsteq	r0, r2
    207c:	00005100 	andeq	r5, r0, r0, lsl #2
    2080:	00000000 	andeq	r0, r0, r0
    2084:	02100000 	andseq	r0, r0, #0
    2088:	022c0000 	eoreq	r0, ip, #0
    208c:	00010000 	andeq	r0, r1, r0
    2090:	00022c50 	andeq	r2, r2, r0, asr ip
    2094:	00023400 	andeq	r3, r2, r0, lsl #8
    2098:	54000100 	strpl	r0, [r0], #-256	; 0x100
    209c:	00000234 	andeq	r0, r0, r4, lsr r2
    20a0:	0000023c 	andeq	r0, r0, ip, lsr r2
    20a4:	3c500001 	mrrccc	0, 0, r0, r0, cr1	; <UNPREDICTABLE>
    20a8:	44000002 	strmi	r0, [r0], #-2
    20ac:	01000002 	tsteq	r0, r2
    20b0:	02445400 	subeq	r5, r4, #0, 8
    20b4:	02500000 	subseq	r0, r0, #0
    20b8:	00040000 	andeq	r0, r4, r0
    20bc:	9f5001f3 	svcls	0x005001f3
    20c0:	00000250 	andeq	r0, r0, r0, asr r2
    20c4:	00000254 	andeq	r0, r0, r4, asr r2
    20c8:	54500001 	ldrbpl	r0, [r0], #-1
    20cc:	5c000002 	stcpl	0, cr0, [r0], {2}
    20d0:	01000002 	tsteq	r0, r2
    20d4:	00005400 	andeq	r5, r0, r0, lsl #8
    20d8:	00000000 	andeq	r0, r0, r0
    20dc:	02200000 	eoreq	r0, r0, #0
    20e0:	02300000 	eorseq	r0, r0, #0
    20e4:	00020000 	andeq	r0, r2, r0
    20e8:	02309f30 	eorseq	r9, r0, #48, 30	; 0xc0
    20ec:	02340000 	eorseq	r0, r4, #0
    20f0:	00010000 	andeq	r0, r1, r0
    20f4:	00023450 	andeq	r3, r2, r0, asr r4
    20f8:	00024000 	andeq	r4, r2, r0
    20fc:	30000200 	andcc	r0, r0, r0, lsl #4
    2100:	0002409f 	muleq	r2, pc, r0	; <UNPREDICTABLE>
    2104:	00024c00 	andeq	r4, r2, r0, lsl #24
    2108:	50000100 	andpl	r0, r0, r0, lsl #2
	...
    2114:	0000025c 	andeq	r0, r0, ip, asr r2
    2118:	00000290 	muleq	r0, r0, r2
    211c:	90500001 	subsls	r0, r0, r1
    2120:	a0000002 	andge	r0, r0, r2
    2124:	04000002 	streq	r0, [r0], #-2
    2128:	5001f300 	andpl	pc, r1, r0, lsl #6
    212c:	0002a09f 	muleq	r2, pc, r0	; <UNPREDICTABLE>
    2130:	0002c000 	andeq	ip, r2, r0
    2134:	50000100 	andpl	r0, r0, r0, lsl #2
    2138:	000002c0 	andeq	r0, r0, r0, asr #5
    213c:	000002d4 	ldrdeq	r0, [r0], -r4
    2140:	01f30004 	mvnseq	r0, r4
    2144:	00009f50 	andeq	r9, r0, r0, asr pc
    2148:	00000000 	andeq	r0, r0, r0
    214c:	025c0000 	subseq	r0, ip, #0
    2150:	02940000 	addseq	r0, r4, #0
    2154:	00010000 	andeq	r0, r1, r0
    2158:	00029451 	andeq	r9, r2, r1, asr r4
    215c:	0002a000 	andeq	sl, r2, r0
    2160:	f3000400 	vshl.u8	d0, d0, d0
    2164:	a09f5101 	addsge	r5, pc, r1, lsl #2
    2168:	c4000002 	strgt	r0, [r0], #-2
    216c:	01000002 	tsteq	r0, r2
    2170:	02c45100 	sbceq	r5, r4, #0, 2
    2174:	02d40000 	sbcseq	r0, r4, #0
    2178:	00040000 	andeq	r0, r4, r0
    217c:	9f5101f3 	svcls	0x005101f3
	...
    2188:	00000270 	andeq	r0, r0, r0, ror r2
    218c:	00000290 	muleq	r0, r0, r2
    2190:	90500001 	subsls	r0, r0, r1
    2194:	a0000002 	andge	r0, r0, r2
    2198:	04000002 	streq	r0, [r0], #-2
    219c:	5001f300 	andpl	pc, r1, r0, lsl #6
    21a0:	0000009f 	muleq	r0, pc, r0	; <UNPREDICTABLE>
    21a4:	00000000 	andeq	r0, r0, r0
    21a8:	00027800 	andeq	r7, r2, r0, lsl #16
    21ac:	00028000 	andeq	r8, r2, r0
    21b0:	30000200 	andcc	r0, r0, r0, lsl #4
    21b4:	0002809f 	muleq	r2, pc, r0	; <UNPREDICTABLE>
    21b8:	00028000 	andeq	r8, r2, r0
    21bc:	52000100 	andpl	r0, r0, #0, 2
    21c0:	00000280 	andeq	r0, r0, r0, lsl #5
    21c4:	00000288 	andeq	r0, r0, r8, lsl #5
    21c8:	9f300002 	svcls	0x00300002
    21cc:	00000288 	andeq	r0, r0, r8, lsl #5
    21d0:	0000029b 	muleq	r0, fp, r2
    21d4:	00520001 	subseq	r0, r2, r1
    21d8:	00000000 	andeq	r0, r0, r0
    21dc:	78000000 	stmdavc	r0, {}	; <UNPREDICTABLE>
    21e0:	8c000002 	stchi	0, cr0, [r0], {2}
    21e4:	02000002 	andeq	r0, r0, #2
    21e8:	8c9f3000 	ldchi	0, cr3, [pc], {0}
    21ec:	98000002 	stmdals	r0, {r1}
    21f0:	05000002 	streq	r0, [r0, #-2]
    21f4:	00733100 	rsbseq	r3, r3, r0, lsl #2
    21f8:	02989f24 	addseq	r9, r8, #36, 30	; 0x90
    21fc:	029b0000 	addseq	r0, fp, #0
    2200:	00010000 	andeq	r0, r1, r0
    2204:	00029b51 	andeq	r9, r2, r1, asr fp
    2208:	0002a000 	andeq	sl, r2, r0
    220c:	31000800 	tstcc	r0, r0, lsl #16
    2210:	4f5001f3 	svcmi	0x005001f3
    2214:	009f241a 	addseq	r2, pc, sl, lsl r4	; <UNPREDICTABLE>
    2218:	00000000 	andeq	r0, r0, r0
    221c:	a0000000 	andge	r0, r0, r0
    2220:	c0000002 	andgt	r0, r0, r2
    2224:	01000002 	tsteq	r0, r2
    2228:	02c05000 	sbceq	r5, r0, #0
    222c:	02d40000 	sbcseq	r0, r4, #0
    2230:	00040000 	andeq	r0, r4, r0
    2234:	9f5001f3 	svcls	0x005001f3
	...
    2240:	000002a8 	andeq	r0, r0, r8, lsr #5
    2244:	000002b0 			; <UNDEFINED> instruction: 0x000002b0
    2248:	9f300002 	svcls	0x00300002
    224c:	000002b0 			; <UNDEFINED> instruction: 0x000002b0
    2250:	000002b0 			; <UNDEFINED> instruction: 0x000002b0
    2254:	b0520001 	subslt	r0, r2, r1
    2258:	b8000002 	stmdalt	r0, {r1}
    225c:	02000002 	andeq	r0, r0, #2
    2260:	b89f3000 	ldmlt	pc, {ip, sp}	; <UNPREDICTABLE>
    2264:	cb000002 	blgt	2274 <_start-0x5d8c>
    2268:	01000002 	tsteq	r0, r2
    226c:	00005200 	andeq	r5, r0, r0, lsl #4
    2270:	00000000 	andeq	r0, r0, r0
    2274:	02a80000 	adceq	r0, r8, #0
    2278:	02bc0000 	adcseq	r0, ip, #0
    227c:	00020000 	andeq	r0, r2, r0
    2280:	02bc9f30 	adcseq	r9, ip, #48, 30	; 0xc0
    2284:	02c80000 	sbceq	r0, r8, #0
    2288:	00050000 	andeq	r0, r5, r0
    228c:	24007331 	strcs	r7, [r0], #-817	; 0x331
    2290:	0002c89f 	muleq	r2, pc, r8	; <UNPREDICTABLE>
    2294:	0002cb00 	andeq	ip, r2, r0, lsl #22
    2298:	51000100 	mrspl	r0, (UNDEF: 16)
    229c:	000002cb 	andeq	r0, r0, fp, asr #5
    22a0:	000002d4 	ldrdeq	r0, [r0], -r4
    22a4:	f3310008 	vhadd.u<illegal width 64>	d0, d1, d8
    22a8:	1a4f5001 	bne	13d62b4 <__bss_end__+0x13c99fc>
    22ac:	00009f24 	andeq	r9, r0, r4, lsr #30
    22b0:	00000000 	andeq	r0, r0, r0
    22b4:	02d40000 	sbcseq	r0, r4, #0
    22b8:	036c0000 	cmneq	ip, #0
    22bc:	00010000 	andeq	r0, r1, r0
    22c0:	00036c50 	andeq	r6, r3, r0, asr ip
    22c4:	0003ac00 	andeq	sl, r3, r0, lsl #24
    22c8:	54000100 	strpl	r0, [r0], #-256	; 0x100
	...
    22d4:	000002d4 	ldrdeq	r0, [r0], -r4
    22d8:	0000036f 	andeq	r0, r0, pc, ror #6
    22dc:	6f510001 	svcvs	0x00510001
    22e0:	ac000003 	stcge	0, cr0, [r0], {3}
    22e4:	04000003 	streq	r0, [r0], #-3
    22e8:	5101f300 	mrspl	pc, SP_irq	; <UNPREDICTABLE>
    22ec:	0000009f 	muleq	r0, pc, r0	; <UNPREDICTABLE>
    22f0:	00000000 	andeq	r0, r0, r0
    22f4:	00032400 	andeq	r2, r3, r0, lsl #8
    22f8:	00032800 	andeq	r2, r3, r0, lsl #16
    22fc:	56000100 	strpl	r0, [r0], -r0, lsl #2
    2300:	00000330 	andeq	r0, r0, r0, lsr r3
    2304:	00000334 	andeq	r0, r0, r4, lsr r3
    2308:	3c560001 	mrrccc	0, 0, r0, r6, cr1
    230c:	40000003 	andmi	r0, r0, r3
    2310:	01000003 	tsteq	r0, r3
    2314:	03485600 	movteq	r5, #34304	; 0x8600
    2318:	034c0000 	movteq	r0, #49152	; 0xc000
    231c:	00010000 	andeq	r0, r1, r0
    2320:	00035456 	andeq	r5, r3, r6, asr r4
    2324:	00035800 	andeq	r5, r3, r0, lsl #16
    2328:	56000100 	strpl	r0, [r0], -r0, lsl #2
    232c:	00000360 	andeq	r0, r0, r0, ror #6
    2330:	00000364 	andeq	r0, r0, r4, ror #6
    2334:	68560001 	ldmdavs	r6, {r0}^
    2338:	ac000003 	stcge	0, cr0, [r0], {3}
    233c:	01000003 	tsteq	r0, r3
    2340:	00005600 	andeq	r5, r0, r0, lsl #12
    2344:	00000000 	andeq	r0, r0, r0
    2348:	02f80000 	rscseq	r0, r8, #0
    234c:	03200000 	teqeq	r0, #0
    2350:	00010000 	andeq	r0, r1, r0
    2354:	00032053 	andeq	r2, r3, r3, asr r0
    2358:	00032800 	andeq	r2, r3, r0, lsl #16
    235c:	70001c00 	andvc	r1, r0, r0, lsl #24
    2360:	f72cf700 			; <UNDEFINED> instruction: 0xf72cf700
    2364:	0825f425 	stmdaeq	r5!, {r0, r2, r5, sl, ip, sp, lr, pc}
    2368:	cccccccd 	stclgt	12, cr12, [ip], {205}	; 0xcd
    236c:	00000000 	andeq	r0, r0, r0
    2370:	f720081e 			; <UNDEFINED> instruction: 0xf720081e
    2374:	2cf72525 	cfldr64cs	mvdx2, [r7], #148	; 0x94
    2378:	289f2533 	ldmcs	pc, {r0, r1, r4, r5, r8, sl, sp}	; <UNPREDICTABLE>
    237c:	2c000003 	stccs	0, cr0, [r0], {3}
    2380:	01000003 	tsteq	r0, r3
    2384:	032c5300 	teqeq	ip, #0, 6
    2388:	03340000 	teqeq	r4, #0
    238c:	001c0000 	andseq	r0, ip, r0
    2390:	2cf70070 	ldclcs	0, cr0, [r7], #448	; 0x1c0
    2394:	25f425f7 	ldrbcs	r2, [r4, #1527]!	; 0x5f7
    2398:	cccccd08 	stclgt	13, cr12, [ip], {8}
    239c:	000000cc 	andeq	r0, r0, ip, asr #1
    23a0:	20081e00 	andcs	r1, r8, r0, lsl #28
    23a4:	f72525f7 			; <UNDEFINED> instruction: 0xf72525f7
    23a8:	9f25332c 	svcls	0x0025332c
    23ac:	00000334 	andeq	r0, r0, r4, lsr r3
    23b0:	00000338 	andeq	r0, r0, r8, lsr r3
    23b4:	38530001 	ldmdacc	r3, {r0}^
    23b8:	40000003 	andmi	r0, r0, r3
    23bc:	1c000003 	stcne	0, cr0, [r0], {3}
    23c0:	f7007000 			; <UNDEFINED> instruction: 0xf7007000
    23c4:	f425f72c 	vld1.8	{d15}, [r5 :128], ip
    23c8:	cccd0825 	stclgt	8, cr0, [sp], {37}	; 0x25
    23cc:	0000cccc 	andeq	ip, r0, ip, asr #25
    23d0:	081e0000 	ldmdaeq	lr, {}	; <UNPREDICTABLE>
    23d4:	2525f720 	strcs	pc, [r5, #-1824]!	; 0x720
    23d8:	25332cf7 	ldrcs	r2, [r3, #-3319]!	; 0xcf7
    23dc:	0003409f 	muleq	r3, pc, r0	; <UNPREDICTABLE>
    23e0:	00034400 	andeq	r4, r3, r0, lsl #8
    23e4:	53000100 	movwpl	r0, #256	; 0x100
    23e8:	00000344 	andeq	r0, r0, r4, asr #6
    23ec:	0000034c 	andeq	r0, r0, ip, asr #6
    23f0:	0070001c 	rsbseq	r0, r0, ip, lsl r0
    23f4:	25f72cf7 	ldrbcs	r2, [r7, #3319]!	; 0xcf7
    23f8:	cd0825f4 	cfstr32gt	mvfx2, [r8, #-976]	; 0xfffffc30
    23fc:	00cccccc 	sbceq	ip, ip, ip, asr #25
    2400:	1e000000 	cdpne	0, 0, cr0, cr0, cr0, {0}
    2404:	25f72008 	ldrbcs	r2, [r7, #8]!
    2408:	332cf725 	msrcc	CPSR_fs, #9699328	; 0x940000
    240c:	034c9f25 	movteq	r9, #53029	; 0xcf25
    2410:	03500000 	cmpeq	r0, #0
    2414:	00010000 	andeq	r0, r1, r0
    2418:	00035053 	andeq	r5, r3, r3, asr r0
    241c:	00035800 	andeq	r5, r3, r0, lsl #16
    2420:	70001c00 	andvc	r1, r0, r0, lsl #24
    2424:	f72cf700 			; <UNDEFINED> instruction: 0xf72cf700
    2428:	0825f425 	stmdaeq	r5!, {r0, r2, r5, sl, ip, sp, lr, pc}
    242c:	cccccccd 	stclgt	12, cr12, [ip], {205}	; 0xcd
    2430:	00000000 	andeq	r0, r0, r0
    2434:	f720081e 			; <UNDEFINED> instruction: 0xf720081e
    2438:	2cf72525 	cfldr64cs	mvdx2, [r7], #148	; 0x94
    243c:	589f2533 	ldmpl	pc, {r0, r1, r4, r5, r8, sl, sp}	; <UNPREDICTABLE>
    2440:	5c000003 	stcpl	0, cr0, [r0], {3}
    2444:	01000003 	tsteq	r0, r3
    2448:	035c5300 	cmpeq	ip, #0, 6
    244c:	03640000 	cmneq	r4, #0
    2450:	001c0000 	andseq	r0, ip, r0
    2454:	2cf70070 	ldclcs	0, cr0, [r7], #448	; 0x1c0
    2458:	25f425f7 	ldrbcs	r2, [r4, #1527]!	; 0x5f7
    245c:	cccccd08 	stclgt	13, cr12, [ip], {8}
    2460:	000000cc 	andeq	r0, r0, ip, asr #1
    2464:	20081e00 	andcs	r1, r8, r0, lsl #28
    2468:	f72525f7 			; <UNDEFINED> instruction: 0xf72525f7
    246c:	9f25332c 	svcls	0x0025332c
    2470:	00000364 	andeq	r0, r0, r4, ror #6
    2474:	00000368 	andeq	r0, r0, r8, ror #6
    2478:	68530001 	ldmdavs	r3, {r0}^
    247c:	6c000003 	stcvs	0, cr0, [r0], {3}
    2480:	1c000003 	stcne	0, cr0, [r0], {3}
    2484:	f7007000 			; <UNDEFINED> instruction: 0xf7007000
    2488:	f425f72c 	vld1.8	{d15}, [r5 :128], ip
    248c:	cccd0825 	stclgt	8, cr0, [sp], {37}	; 0x25
    2490:	0000cccc 	andeq	ip, r0, ip, asr #25
    2494:	081e0000 	ldmdaeq	lr, {}	; <UNPREDICTABLE>
    2498:	2525f720 	strcs	pc, [r5, #-1824]!	; 0x720
    249c:	25332cf7 	ldrcs	r2, [r3, #-3319]!	; 0xcf7
    24a0:	00036c9f 	muleq	r3, pc, ip	; <UNPREDICTABLE>
    24a4:	00037400 	andeq	r7, r3, r0, lsl #8
    24a8:	74001c00 	strvc	r1, [r0], #-3072	; 0xc00
    24ac:	f72cf700 			; <UNDEFINED> instruction: 0xf72cf700
    24b0:	0825f425 	stmdaeq	r5!, {r0, r2, r5, sl, ip, sp, lr, pc}
    24b4:	cccccccd 	stclgt	12, cr12, [ip], {205}	; 0xcd
    24b8:	00000000 	andeq	r0, r0, r0
    24bc:	f720081e 			; <UNDEFINED> instruction: 0xf720081e
    24c0:	2cf72525 	cfldr64cs	mvdx2, [r7], #148	; 0x94
    24c4:	749f2533 	ldrvc	r2, [pc], #1331	; 24cc <_start-0x5b34>
    24c8:	78000003 	stmdavc	r0, {r0, r1}
    24cc:	17000003 	strne	r0, [r0, -r3]
    24d0:	f7007400 			; <UNDEFINED> instruction: 0xf7007400
    24d4:	7325f72c 	msrvc	CPSR_sc, #44, 14	; 0xb00000
    24d8:	f72cf700 			; <UNDEFINED> instruction: 0xf72cf700
    24dc:	20081e25 	andcs	r1, r8, r5, lsr #28
    24e0:	f72525f7 			; <UNDEFINED> instruction: 0xf72525f7
    24e4:	9f25332c 	svcls	0x0025332c
    24e8:	00000378 	andeq	r0, r0, r8, ror r3
    24ec:	000003ac 	andeq	r0, r0, ip, lsr #7
    24f0:	0074001c 	rsbseq	r0, r4, ip, lsl r0
    24f4:	25f72cf7 	ldrbcs	r2, [r7, #3319]!	; 0xcf7
    24f8:	cd0825f4 	cfstr32gt	mvfx2, [r8, #-976]	; 0xfffffc30
    24fc:	00cccccc 	sbceq	ip, ip, ip, asr #25
    2500:	1e000000 	cdpne	0, 0, cr0, cr0, cr0, {0}
    2504:	25f72008 	ldrbcs	r2, [r7, #8]!
    2508:	332cf725 	msrcc	CPSR_fs, #9699328	; 0x940000
    250c:	00009f25 	andeq	r9, r0, r5, lsr #30
    2510:	00000000 	andeq	r0, r0, r0
    2514:	03700000 	cmneq	r0, #0
    2518:	03940000 	orrseq	r0, r4, #0
    251c:	00010000 	andeq	r0, r1, r0
    2520:	00039450 	andeq	r9, r3, r0, asr r4
    2524:	00039c00 	andeq	r9, r3, r0, lsl #24
    2528:	75000900 	strvc	r0, [r0, #-2304]	; 0x900
    252c:	24007300 	strcs	r7, [r0], #-768	; 0x300
    2530:	9f210071 	svcls	0x00210071
    2534:	0000039c 	muleq	r0, ip, r3
    2538:	0000039f 	muleq	r0, pc, r3	; <UNPREDICTABLE>
    253c:	00510001 	subseq	r0, r1, r1
    2540:	00000000 	andeq	r0, r0, r0
    2544:	ac000000 	stcge	0, cr0, [r0], {-0}
    2548:	b8000003 	stmdalt	r0, {r0, r1}
    254c:	01000003 	tsteq	r0, r3
    2550:	03b85000 			; <UNDEFINED> instruction: 0x03b85000
    2554:	03d80000 	bicseq	r0, r8, #0
    2558:	00040000 	andeq	r0, r4, r0
    255c:	9f5001f3 	svcls	0x005001f3
	...
    2568:	000003d8 	ldrdeq	r0, [r0], -r8
    256c:	000003eb 	andeq	r0, r0, fp, ror #7
    2570:	eb500001 	bl	140257c <__bss_end__+0x13f5cc4>
    2574:	24000003 	strcs	r0, [r0], #-3
    2578:	01000004 	tsteq	r0, r4
    257c:	04245400 	strteq	r5, [r4], #-1024	; 0x400
    2580:	045c0000 	ldrbeq	r0, [ip], #-0
    2584:	00040000 	andeq	r0, r4, r0
    2588:	9f5001f3 	svcls	0x005001f3
	...
    2594:	00000444 	andeq	r0, r0, r4, asr #8
    2598:	00000448 	andeq	r0, r0, r8, asr #8
    259c:	48500001 	ldmdami	r0, {r0}^
    25a0:	4f000004 	svcmi	0x00000004
    25a4:	01000004 	tsteq	r0, r4
    25a8:	00005100 	andeq	r5, r0, r0, lsl #2
    25ac:	00000000 	andeq	r0, r0, r0
    25b0:	04000000 	streq	r0, [r0], #-0
    25b4:	04080000 	streq	r0, [r8], #-0
    25b8:	00010000 	andeq	r0, r1, r0
    25bc:	00040850 	andeq	r0, r4, r0, asr r8
    25c0:	00040f00 	andeq	r0, r4, r0, lsl #30
    25c4:	51000100 	mrspl	r0, (UNDEF: 16)
	...
    25d0:	00000420 	andeq	r0, r0, r0, lsr #8
    25d4:	0000042c 	andeq	r0, r0, ip, lsr #8
    25d8:	2c500001 	mrrccs	0, 0, r0, r0, cr1	; <UNPREDICTABLE>
    25dc:	33000004 	movwcc	r0, #4
    25e0:	01000004 	tsteq	r0, r4
    25e4:	00005100 	andeq	r5, r0, r0, lsl #2
    25e8:	00000000 	andeq	r0, r0, r0
    25ec:	045c0000 	ldrbeq	r0, [ip], #-0
    25f0:	046f0000 	strbteq	r0, [pc], #-0	; 25f8 <_start-0x5a08>
    25f4:	00010000 	andeq	r0, r1, r0
    25f8:	00046f50 	andeq	r6, r4, r0, asr pc
    25fc:	0004a800 	andeq	sl, r4, r0, lsl #16
    2600:	54000100 	strpl	r0, [r0], #-256	; 0x100
    2604:	000004a8 	andeq	r0, r0, r8, lsr #9
    2608:	000004e0 	andeq	r0, r0, r0, ror #9
    260c:	01f30004 	mvnseq	r0, r4
    2610:	00009f50 	andeq	r9, r0, r0, asr pc
    2614:	00000000 	andeq	r0, r0, r0
    2618:	04c80000 	strbeq	r0, [r8], #0
    261c:	04cc0000 	strbeq	r0, [ip], #0
    2620:	00010000 	andeq	r0, r1, r0
    2624:	0004cc50 	andeq	ip, r4, r0, asr ip
    2628:	0004d300 	andeq	sp, r4, r0, lsl #6
    262c:	51000100 	mrspl	r0, (UNDEF: 16)
	...
    2638:	00000484 	andeq	r0, r0, r4, lsl #9
    263c:	0000048c 	andeq	r0, r0, ip, lsl #9
    2640:	8c500001 	mrrchi	0, 0, r0, r0, cr1	; <UNPREDICTABLE>
    2644:	93000004 	movwls	r0, #4
    2648:	01000004 	tsteq	r0, r4
    264c:	00005100 	andeq	r5, r0, r0, lsl #2
    2650:	00000000 	andeq	r0, r0, r0
    2654:	04a40000 	strteq	r0, [r4], #0
    2658:	04b00000 	ldrteq	r0, [r0], #0
    265c:	00010000 	andeq	r0, r1, r0
    2660:	0004b050 	andeq	fp, r4, r0, asr r0
    2664:	0004b700 	andeq	fp, r4, r0, lsl #14
    2668:	51000100 	mrspl	r0, (UNDEF: 16)
	...
    2674:	000004e0 	andeq	r0, r0, r0, ror #9
    2678:	000004f3 	strdeq	r0, [r0], -r3
    267c:	f3500001 	vhadd.u16	d16, d0, d1
    2680:	34000004 	strcc	r0, [r0], #-4
    2684:	01000005 	tsteq	r0, r5
    2688:	05345400 	ldreq	r5, [r4, #-1024]!	; 0x400
    268c:	05580000 	ldrbeq	r0, [r8, #-0]
    2690:	00040000 	andeq	r0, r4, r0
    2694:	9f5001f3 	svcls	0x005001f3
    2698:	00000558 	andeq	r0, r0, r8, asr r5
    269c:	0000055c 	andeq	r0, r0, ip, asr r5
    26a0:	5c500001 	mrrcpl	0, 0, r0, r0, cr1	; <UNPREDICTABLE>
    26a4:	64000005 	strvs	r0, [r0], #-5
    26a8:	01000005 	tsteq	r0, r5
    26ac:	00005400 	andeq	r5, r0, r0, lsl #8
    26b0:	00000000 	andeq	r0, r0, r0
    26b4:	05080000 	streq	r0, [r8, #-0]
    26b8:	05170000 	ldreq	r0, [r7, #-0]
    26bc:	00080000 	andeq	r0, r8, r0
    26c0:	24007431 	strcs	r7, [r0], #-1073	; 0x431
    26c4:	9f1a0070 	svcls	0x001a0070
	...
    26d0:	00000534 	andeq	r0, r0, r4, lsr r5
    26d4:	0000054c 	andeq	r0, r0, ip, asr #10
    26d8:	00540001 	subseq	r0, r4, r1
    26dc:	00000000 	andeq	r0, r0, r0
    26e0:	64000000 	strvs	r0, [r0], #-0
    26e4:	77000005 	strvc	r0, [r0, -r5]
    26e8:	01000005 	tsteq	r0, r5
    26ec:	05775000 	ldrbeq	r5, [r7, #-0]!
    26f0:	059c0000 	ldreq	r0, [ip]
    26f4:	00010000 	andeq	r0, r1, r0
    26f8:	00059c54 	andeq	r9, r5, r4, asr ip
    26fc:	0005bc00 	andeq	fp, r5, r0, lsl #24
    2700:	f3000400 	vshl.u8	d0, d0, d0
    2704:	009f5001 	addseq	r5, pc, r1
    2708:	00000000 	andeq	r0, r0, r0
    270c:	30000000 	andcc	r0, r0, r0
    2710:	3c000000 	stccc	0, cr0, [r0], {-0}
    2714:	02000000 	andeq	r0, r0, #0
    2718:	3c9f3000 	ldccc	0, cr3, [pc], {0}
    271c:	68000000 	stmdavs	r0, {}	; <UNPREDICTABLE>
    2720:	01000000 	mrseq	r0, (UNDEF: 0)
    2724:	00005300 	andeq	r5, r0, r0, lsl #6
    2728:	00000000 	andeq	r0, r0, r0
    272c:	00680000 	rsbeq	r0, r8, r0
    2730:	00800000 	addeq	r0, r0, r0
    2734:	00010000 	andeq	r0, r1, r0
    2738:	00008050 	andeq	r8, r0, r0, asr r0
    273c:	00008f00 	andeq	r8, r0, r0, lsl #30
    2740:	91000200 	mrsls	r0, R8_usr
    2744:	00008f6c 	andeq	r8, r0, ip, ror #30
    2748:	0000a400 	andeq	sl, r0, r0, lsl #8
    274c:	f3000400 	vshl.u8	d0, d0, d0
    2750:	009f5001 	addseq	r5, pc, r1
    2754:	00000000 	andeq	r0, r0, r0
    2758:	a4000000 	strge	r0, [r0], #-0
    275c:	bc000000 	stclt	0, cr0, [r0], {-0}
    2760:	01000000 	mrseq	r0, (UNDEF: 0)
    2764:	00bc5000 	adcseq	r5, ip, r0
    2768:	00cb0000 	sbceq	r0, fp, r0
    276c:	00020000 	andeq	r0, r2, r0
    2770:	00cb6c91 	smulleq	r6, fp, r1, ip
    2774:	00e00000 	rsceq	r0, r0, r0
    2778:	00040000 	andeq	r0, r4, r0
    277c:	9f5001f3 	svcls	0x005001f3
	...
    2788:	000000e0 	andeq	r0, r0, r0, ror #1
    278c:	000000f8 	strdeq	r0, [r0], -r8
    2790:	f8500001 			; <UNDEFINED> instruction: 0xf8500001
    2794:	07000000 	streq	r0, [r0, -r0]
    2798:	02000001 	andeq	r0, r0, #1
    279c:	076c9100 	strbeq	r9, [ip, -r0, lsl #2]!
    27a0:	1c000001 	stcne	0, cr0, [r0], {1}
    27a4:	04000001 	streq	r0, [r0], #-1
    27a8:	5001f300 	andpl	pc, r1, r0, lsl #6
    27ac:	0000009f 	muleq	r0, pc, r0	; <UNPREDICTABLE>
    27b0:	00000000 	andeq	r0, r0, r0
    27b4:	00011c00 	andeq	r1, r1, r0, lsl #24
    27b8:	00013400 	andeq	r3, r1, r0, lsl #8
    27bc:	50000100 	andpl	r0, r0, r0, lsl #2
    27c0:	00000134 	andeq	r0, r0, r4, lsr r1
    27c4:	00000143 	andeq	r0, r0, r3, asr #2
    27c8:	6c910002 	ldcvs	0, cr0, [r1], {2}
    27cc:	00000143 	andeq	r0, r0, r3, asr #2
    27d0:	00000158 	andeq	r0, r0, r8, asr r1
    27d4:	01f30004 	mvnseq	r0, r4
    27d8:	00009f50 	andeq	r9, r0, r0, asr pc
    27dc:	00000000 	andeq	r0, r0, r0
    27e0:	01580000 	cmpeq	r8, r0
    27e4:	01700000 	cmneq	r0, r0
    27e8:	00010000 	andeq	r0, r1, r0
    27ec:	00017050 	andeq	r7, r1, r0, asr r0
    27f0:	00017f00 	andeq	r7, r1, r0, lsl #30
    27f4:	91000200 	mrsls	r0, R8_usr
    27f8:	00017f6c 	andeq	r7, r1, ip, ror #30
    27fc:	00019400 	andeq	r9, r1, r0, lsl #8
    2800:	f3000400 	vshl.u8	d0, d0, d0
    2804:	009f5001 	addseq	r5, pc, r1
    2808:	00000000 	andeq	r0, r0, r0
    280c:	94000000 	strls	r0, [r0], #-0
    2810:	ac000001 	stcge	0, cr0, [r0], {1}
    2814:	01000001 	tsteq	r0, r1
    2818:	01ac5000 			; <UNDEFINED> instruction: 0x01ac5000
    281c:	01bb0000 			; <UNDEFINED> instruction: 0x01bb0000
    2820:	00020000 	andeq	r0, r2, r0
    2824:	01bb6c91 			; <UNDEFINED> instruction: 0x01bb6c91
    2828:	01d00000 	bicseq	r0, r0, r0
    282c:	00040000 	andeq	r0, r4, r0
    2830:	9f5001f3 	svcls	0x005001f3
	...
    283c:	000000fc 	strdeq	r0, [r0], -ip
    2840:	00000104 	andeq	r0, r0, r4, lsl #2
    2844:	04500001 	ldrbeq	r0, [r0], #-1
    2848:	28000001 	stmdacs	r0, {r0}
    284c:	01000001 	tsteq	r0, r1
    2850:	00005400 	andeq	r5, r0, r0, lsl #8
	...
    285c:	000b0000 	andeq	r0, fp, r0
    2860:	00010000 	andeq	r0, r1, r0
    2864:	00000b50 	andeq	r0, r0, r0, asr fp
    2868:	00001400 	andeq	r1, r0, r0, lsl #8
    286c:	54000100 	strpl	r0, [r0], #-256	; 0x100
	...

Disassembly of section .debug_aranges:

00000000 <.debug_aranges>:
   0:	0000001c 	andeq	r0, r0, ip, lsl r0
   4:	00000002 	andeq	r0, r0, r2
   8:	00040000 	andeq	r0, r4, r0
   c:	00000000 	andeq	r0, r0, r0
  10:	00008010 	andeq	r8, r0, r0, lsl r0
  14:	000007dc 	ldrdeq	r0, [r0], -ip
	...
  20:	0000001c 	andeq	r0, r0, ip, lsl r0
  24:	16f80002 	ldrbtne	r0, [r8], r2
  28:	00040000 	andeq	r0, r4, r0
  2c:	00000000 	andeq	r0, r0, r0
  30:	000087ec 	andeq	r8, r0, ip, ror #15
  34:	00000514 	andeq	r0, r0, r4, lsl r5
	...
  40:	0000001c 	andeq	r0, r0, ip, lsl r0
  44:	20690002 	rsbcs	r0, r9, r2
  48:	00040000 	andeq	r0, r4, r0
  4c:	00000000 	andeq	r0, r0, r0
  50:	00008d00 	andeq	r8, r0, r0, lsl #26
  54:	00000020 	andeq	r0, r0, r0, lsr #32
	...
  60:	0000001c 	andeq	r0, r0, ip, lsl r0
  64:	21480002 	cmpcs	r8, r2
  68:	00040000 	andeq	r0, r4, r0
  6c:	00000000 	andeq	r0, r0, r0
  70:	00008d20 	andeq	r8, r0, r0, lsr #26
  74:	00000058 	andeq	r0, r0, r8, asr r0
	...
  80:	0000001c 	andeq	r0, r0, ip, lsl r0
  84:	22dd0002 	sbcscs	r0, sp, #2
  88:	00040000 	andeq	r0, r4, r0
  8c:	00000000 	andeq	r0, r0, r0
  90:	00008d78 	andeq	r8, r0, r8, ror sp
  94:	00000034 	andeq	r0, r0, r4, lsr r0
	...
  a0:	0000001c 	andeq	r0, r0, ip, lsl r0
  a4:	23cf0002 	biccs	r0, pc, #2
  a8:	00040000 	andeq	r0, r4, r0
  ac:	00000000 	andeq	r0, r0, r0
  b0:	00008dac 	andeq	r8, r0, ip, lsr #27
  b4:	000004f0 	strdeq	r0, [r0], -r0	; <UNPREDICTABLE>
	...
  c0:	0000001c 	andeq	r0, r0, ip, lsl r0
  c4:	2a270002 	bcs	9c00d4 <__bss_end__+0x9b381c>
  c8:	00040000 	andeq	r0, r4, r0
  cc:	00000000 	andeq	r0, r0, r0
  d0:	0000929c 	muleq	r0, ip, r2
  d4:	00000020 	andeq	r0, r0, r0, lsr #32
	...
  e0:	0000001c 	andeq	r0, r0, ip, lsl r0
  e4:	2ae30002 	bcs	ff8c00f4 <__bss_end__+0xff8b383c>
  e8:	00040000 	andeq	r0, r4, r0
  ec:	00000000 	andeq	r0, r0, r0
  f0:	000092bc 			; <UNDEFINED> instruction: 0x000092bc
  f4:	00000028 	andeq	r0, r0, r8, lsr #32
	...
 100:	0000001c 	andeq	r0, r0, ip, lsl r0
 104:	2be60002 	blcs	ff980114 <__bss_end__+0xff97385c>
 108:	00040000 	andeq	r0, r4, r0
 10c:	00000000 	andeq	r0, r0, r0
 110:	000092e4 	andeq	r9, r0, r4, ror #5
 114:	00000034 	andeq	r0, r0, r4, lsr r0
	...
 120:	0000001c 	andeq	r0, r0, ip, lsl r0
 124:	2cf50002 	ldclcs	0, cr0, [r5], #8
 128:	00040000 	andeq	r0, r4, r0
 12c:	00000000 	andeq	r0, r0, r0
 130:	00009318 	andeq	r9, r0, r8, lsl r3
 134:	00000074 	andeq	r0, r0, r4, ror r0
	...
 140:	0000001c 	andeq	r0, r0, ip, lsl r0
 144:	2ea60002 	cdpcs	0, 10, cr0, cr6, cr2, {0}
 148:	00040000 	andeq	r0, r4, r0
 14c:	00000000 	andeq	r0, r0, r0
 150:	0000938c 	andeq	r9, r0, ip, lsl #7
 154:	00000088 	andeq	r0, r0, r8, lsl #1
	...
 160:	0000001c 	andeq	r0, r0, ip, lsl r0
 164:	30820002 	addcc	r0, r2, r2
 168:	00040000 	andeq	r0, r4, r0
 16c:	00000000 	andeq	r0, r0, r0
 170:	00009414 	andeq	r9, r0, r4, lsl r4
 174:	000005bc 			; <UNDEFINED> instruction: 0x000005bc
	...
 180:	0000001c 	andeq	r0, r0, ip, lsl r0
 184:	39550002 	ldmdbcc	r5, {r1}^
 188:	00040000 	andeq	r0, r4, r0
 18c:	00000000 	andeq	r0, r0, r0
 190:	000099d0 	ldrdeq	r9, [r0], -r0
 194:	000001d0 	ldrdeq	r0, [r0], -r0	; <UNPREDICTABLE>
	...
 1a0:	0000001c 	andeq	r0, r0, ip, lsl r0
 1a4:	3eaf0002 	cdpcc	0, 10, cr0, cr15, cr2, {0}
 1a8:	00040000 	andeq	r0, r4, r0
 1ac:	00000000 	andeq	r0, r0, r0
 1b0:	00009cdc 	ldrdeq	r9, [r0], -ip
 1b4:	00000154 	andeq	r0, r0, r4, asr r1
	...
 1c0:	0000001c 	andeq	r0, r0, ip, lsl r0
 1c4:	42b20002 	adcsmi	r0, r2, #2
 1c8:	00040000 	andeq	r0, r4, r0
 1cc:	00000000 	andeq	r0, r0, r0
 1d0:	00009e30 	andeq	r9, r0, r0, lsr lr
 1d4:	00000014 	andeq	r0, r0, r4, lsl r0
	...

Disassembly of section .debug_ranges:

00000000 <.debug_ranges>:
   0:	000006e8 	andeq	r0, r0, r8, ror #13
   4:	000006f4 	strdeq	r0, [r0], -r4
   8:	00000714 	andeq	r0, r0, r4, lsl r7
   c:	0000071c 	andeq	r0, r0, ip, lsl r7
	...
  18:	000001ac 	andeq	r0, r0, ip, lsr #3
  1c:	000001ec 	andeq	r0, r0, ip, ror #3
  20:	000001f0 	strdeq	r0, [r0], -r0	; <UNPREDICTABLE>
  24:	000001f4 	strdeq	r0, [r0], -r4
	...
  30:	0000026c 	andeq	r0, r0, ip, ror #4
  34:	00000274 	andeq	r0, r0, r4, ror r2
  38:	0000027c 	andeq	r0, r0, ip, ror r2
  3c:	00000284 	andeq	r0, r0, r4, lsl #5
	...
  48:	0000042c 	andeq	r0, r0, ip, lsr #8
  4c:	00000440 	andeq	r0, r0, r0, asr #8
  50:	00000444 	andeq	r0, r0, r4, asr #8
  54:	00000480 	andeq	r0, r0, r0, lsl #9
	...
  60:	00000430 	andeq	r0, r0, r0, lsr r4
  64:	00000434 	andeq	r0, r0, r4, lsr r4
  68:	00000448 	andeq	r0, r0, r8, asr #8
  6c:	00000458 	andeq	r0, r0, r8, asr r4
	...
  78:	00009318 	andeq	r9, r0, r8, lsl r3
  7c:	0000938c 	andeq	r9, r0, ip, lsl #7
	...

Disassembly of section .debug_line:

00000000 <.debug_line>:
       0:	00000437 	andeq	r0, r0, r7, lsr r4
       4:	02450002 	subeq	r0, r5, #2
       8:	01020000 	mrseq	r0, (UNDEF: 2)
       c:	000d0efb 	strdeq	r0, [sp], -fp
      10:	01010101 	tsteq	r1, r1, lsl #2
      14:	01000000 	mrseq	r0, (UNDEF: 0)
      18:	2f010000 	svccs	0x00010000
      1c:	72657355 	rsbvc	r7, r5, #1409286145	; 0x54000001
      20:	72622f73 	rsbvc	r2, r2, #460	; 0x1cc
      24:	6a6e6169 	bvs	1b985d0 <__bss_end__+0x1b8bd18>
      28:	442f6e75 	strtmi	r6, [pc], #-3701	; 30 <_start-0x7fd0>
      2c:	746b7365 	strbtvc	r7, [fp], #-869	; 0x365
      30:	732f706f 	teqvc	pc, #111	; 0x6f
      34:	6f6f6863 	svcvs	0x006f6863
      38:	69572f6c 	ldmdbvs	r7, {r2, r3, r5, r6, r8, r9, sl, fp, sp}^
      3c:	7265746e 	rsbvc	r7, r5, #1845493760	; 0x6e000000
      40:	30323931 	eorscc	r3, r2, r1, lsr r9
      44:	3153432f 	cmpcc	r3, pc, lsr #6
      48:	2f453034 	svccs	0x00453034
      4c:	34317363 	ldrtcc	r7, [r1], #-867	; 0x363
      50:	322d6530 	eorcc	r6, sp, #48, 10	; 0xc000000
      54:	6e697730 	mcrvs	7, 3, r7, cr9, cr0, {1}
      58:	62696c2f 	rsbvs	r6, r9, #12032	; 0x2f00
      5c:	632f6970 	teqvs	pc, #112, 18	; 0x1c0000
      60:	30343173 	eorscc	r3, r4, r3, ror r1
      64:	72732d65 	rsbsvc	r2, r3, #6464	; 0x1940
      68:	552f0063 	strpl	r0, [pc, #-99]!	; d <_start-0x7ff3>
      6c:	73726573 	cmnvc	r2, #482344960	; 0x1cc00000
      70:	6972622f 	ldmdbvs	r2!, {r0, r1, r2, r3, r5, r9, sp, lr}^
      74:	756a6e61 	strbvc	r6, [sl, #-3681]!	; 0xe61
      78:	65442f6e 	strbvs	r2, [r4, #-3950]	; 0xf6e
      7c:	6f746b73 	svcvs	0x00746b73
      80:	63732f70 	cmnvs	r3, #112, 30	; 0x1c0
      84:	6c6f6f68 	stclvs	15, cr6, [pc], #-416	; fffffeec <__bss_end__+0xffff3634>
      88:	6e69572f 	cdpvs	7, 6, cr5, cr9, cr15, {1}
      8c:	31726574 	cmncc	r2, r4, ror r5
      90:	2f303239 	svccs	0x00303239
      94:	34315343 	ldrtcc	r5, [r1], #-835	; 0x343
      98:	632f4530 	teqvs	pc, #48, 10	; 0xc000000
      9c:	30343173 	eorscc	r3, r4, r3, ror r1
      a0:	30322d65 	eorscc	r2, r2, r5, ror #26
      a4:	2f6e6977 	svccs	0x006e6977
      a8:	7062696c 	rsbvc	r6, r2, ip, ror #18
      ac:	696c2f69 	stmdbvs	ip!, {r0, r3, r5, r6, r8, r9, sl, fp, sp}^
      b0:	2f006362 	svccs	0x00006362
      b4:	2f727375 	svccs	0x00727375
      b8:	61636f6c 	cmnvs	r3, ip, ror #30
      bc:	65432f6c 	strbvs	r2, [r3, #-3948]	; 0xf6c
      c0:	72616c6c 	rsbvc	r6, r1, #108, 24	; 0x6c00
      c4:	6d72612f 	ldfvse	f6, [r2, #-188]!	; 0xffffff44
      c8:	6e6f6e2d 	cdpvs	14, 6, cr6, cr15, cr13, {1}
      cc:	61652d65 	cmnvs	r5, r5, ror #26
      d0:	342f6962 	strtcc	r6, [pc], #-2402	; d8 <_start-0x7f28>
      d4:	332e382e 	teqcc	lr, #3014656	; 0x2e0000
      d8:	3173632d 	cmncc	r3, sp, lsr #6
      dc:	2f653037 	svccs	0x00653037
      e0:	2f62696c 	svccs	0x0062696c
      e4:	2f636367 	svccs	0x00636367
      e8:	2d6d7261 	sfmcs	f7, 2, [sp, #-388]!	; 0xfffffe7c
      ec:	656e6f6e 	strbvs	r6, [lr, #-3950]!	; 0xf6e
      f0:	6261652d 	rsbvs	r6, r1, #188743680	; 0xb400000
      f4:	2e342f69 	cdpcs	15, 3, cr2, cr4, cr9, {3}
      f8:	2f332e38 	svccs	0x00332e38
      fc:	6c636e69 	stclvs	14, cr6, [r3], #-420	; 0xfffffe5c
     100:	00656475 	rsbeq	r6, r5, r5, ror r4
     104:	6573552f 	ldrbvs	r5, [r3, #-1327]!	; 0x52f
     108:	622f7372 	eorvs	r7, pc, #-939524095	; 0xc8000001
     10c:	6e616972 	mcrvs	9, 3, r6, cr1, cr2, {3}
     110:	2f6e756a 	svccs	0x006e756a
     114:	6b736544 	blvs	1cd962c <__bss_end__+0x1cccd74>
     118:	2f706f74 	svccs	0x00706f74
     11c:	6f686373 	svcvs	0x00686373
     120:	572f6c6f 	strpl	r6, [pc, -pc, ror #24]!
     124:	65746e69 	ldrbvs	r6, [r4, #-3689]!	; 0xe69
     128:	32393172 	eorscc	r3, r9, #-2147483620	; 0x8000001c
     12c:	53432f30 	movtpl	r2, #16176	; 0x3f30
     130:	45303431 	ldrmi	r3, [r0, #-1073]!	; 0x431
     134:	3173632f 	cmncc	r3, pc, lsr #6
     138:	2d653034 	stclcs	0, cr3, [r5, #-208]!	; 0xffffff30
     13c:	69773032 	ldmdbvs	r7!, {r1, r4, r5, ip, sp}^
     140:	696c2f6e 	stmdbvs	ip!, {r1, r2, r3, r5, r6, r8, r9, sl, fp, sp}^
     144:	2f697062 	svccs	0x00697062
     148:	34317363 	ldrtcc	r7, [r1], #-867	; 0x363
     14c:	692d6530 	pushvs	{r4, r5, r8, sl, sp, lr}
     150:	7265746e 	rsbvc	r7, r5, #1845493760	; 0x6e000000
     154:	74707572 	ldrbtvc	r7, [r0], #-1394	; 0x572
     158:	73552f00 	cmpvc	r5, #0, 30
     15c:	2f737265 	svccs	0x00737265
     160:	61697262 	cmnvs	r9, r2, ror #4
     164:	6e756a6e 	vsubvs.f32	s13, s10, s29
     168:	7365442f 	cmnvc	r5, #788529152	; 0x2f000000
     16c:	706f746b 	rsbvc	r7, pc, fp, ror #8
     170:	6863732f 	stmdavs	r3!, {r0, r1, r2, r3, r5, r8, r9, ip, sp, lr}^
     174:	2f6c6f6f 	svccs	0x006c6f6f
     178:	746e6957 	strbtvc	r6, [lr], #-2391	; 0x957
     17c:	39317265 	ldmdbcc	r1!, {r0, r2, r5, r6, r9, ip, sp, lr}
     180:	432f3032 	teqmi	pc, #50	; 0x32
     184:	30343153 	eorscc	r3, r4, r3, asr r1
     188:	73632f45 	cmnvc	r3, #276	; 0x114
     18c:	65303431 	ldrvs	r3, [r0, #-1073]!	; 0x431
     190:	7730322d 	ldrvc	r3, [r0, -sp, lsr #4]!
     194:	6c2f6e69 	stcvs	14, cr6, [pc], #-420	; fffffff8 <__bss_end__+0xffff3740>
     198:	69706269 	ldmdbvs	r0!, {r0, r3, r5, r6, r9, sp, lr}^
     19c:	2d310000 	ldccs	0, cr0, [r1, #-0]
     1a0:	6f697067 	svcvs	0x00697067
     1a4:	746e692d 	strbtvc	r6, [lr], #-2349	; 0x92d
     1a8:	2e78652d 	cdpcs	5, 7, cr6, cr8, cr13, {1}
     1ac:	00000063 	andeq	r0, r0, r3, rrx
     1b0:	63796300 	cmnvs	r9, #0, 6
     1b4:	752d656c 	strvc	r6, [sp, #-1388]!	; 0x56c
     1b8:	2e6c6974 	mcrcs	9, 3, r6, cr12, cr4, {3}
     1bc:	00010068 	andeq	r0, r1, r8, rrx
     1c0:	72696300 	rsbvc	r6, r9, #0, 6
     1c4:	616c7563 	cmnvs	ip, r3, ror #10
     1c8:	00682e72 	rsbeq	r2, r8, r2, ror lr
     1cc:	73000002 	movwvc	r0, #2
     1d0:	6e696474 	mcrvs	4, 3, r6, cr9, cr4, {3}
     1d4:	63672d74 	cmnvs	r7, #116, 26	; 0x1d00
     1d8:	00682e63 	rsbeq	r2, r8, r3, ror #28
     1dc:	67000003 	strvs	r0, [r0, -r3]
     1e0:	2e6f6970 	mcrcs	9, 3, r6, cr15, cr0, {3}
     1e4:	00010068 	andeq	r0, r1, r8, rrx
     1e8:	69707200 	ldmdbvs	r0!, {r9, ip, sp, lr}^
     1ec:	6d72612d 	ldfvse	f6, [r2, #-180]!	; 0xffffff4c
     1f0:	656d6974 	strbvs	r6, [sp, #-2420]!	; 0x974
     1f4:	00682e72 	rsbeq	r2, r8, r2, ror lr
     1f8:	73000004 	movwvc	r0, #4
     1fc:	61752d77 	cmnvs	r5, r7, ror sp
     200:	682e7472 	stmdavs	lr!, {r1, r4, r5, r6, sl, ip, sp, lr}
     204:	00000100 	andeq	r0, r0, r0, lsl #2
     208:	61647473 	smcvs	18243	; 0x4743
     20c:	682e6772 	stmdavs	lr!, {r1, r4, r5, r6, r8, r9, sl, sp, lr}
     210:	00000300 	andeq	r0, r0, r0, lsl #6
     214:	2e697072 	mcrcs	0, 3, r7, cr9, cr2, {3}
     218:	00050068 	andeq	r0, r5, r8, rrx
     21c:	2d617600 	stclcs	6, cr7, [r1, #-0]
     220:	6e697270 	mcrvs	2, 3, r7, cr9, cr0, {3}
     224:	682e6b74 	stmdavs	lr!, {r2, r4, r5, r6, r8, r9, fp, sp, lr}
     228:	00000200 	andeq	r0, r0, r0, lsl #4
     22c:	2d697072 	stclcs	0, cr7, [r9, #-456]!	; 0xfffffe38
     230:	65746e69 	ldrbvs	r6, [r4, #-3689]!	; 0xe69
     234:	70757272 	rsbsvc	r7, r5, r2, ror r2
     238:	682e7374 	stmdavs	lr!, {r2, r4, r5, r6, r8, r9, ip, sp, lr}
     23c:	00000400 	andeq	r0, r0, r0, lsl #8
     240:	6975623c 	ldmdbvs	r5!, {r2, r3, r4, r5, r9, sp, lr}^
     244:	692d746c 	pushvs	{r2, r3, r5, r6, sl, ip, sp, lr}
     248:	00003e6e 	andeq	r3, r0, lr, ror #28
     24c:	00000000 	andeq	r0, r0, r0
     250:	80100205 	andshi	r0, r0, r5, lsl #4
     254:	14030000 	strne	r0, [r3], #-0
     258:	2f674c01 	svccs	0x00674c01
     25c:	02043230 	andeq	r3, r4, #48, 4
     260:	032e7a03 	teqeq	lr, #12288	; 0x3000
     264:	01046673 	tsteq	r4, r3, ror r6
     268:	04821703 	streq	r1, [r2], #1795	; 0x703
     26c:	2e760302 	cdpcs	3, 7, cr0, cr6, cr2, {0}
     270:	04667303 	strbteq	r7, [r6], #-771	; 0x303
     274:	82190301 	andshi	r0, r9, #67108864	; 0x4000000
     278:	74030204 	strvc	r0, [r3], #-516	; 0x204
     27c:	6673032e 	ldrbtvs	r0, [r3], -lr, lsr #6
     280:	1b030104 	blne	c0698 <__bss_end__+0xb3de0>
     284:	03020482 	movweq	r0, #9346	; 0x2482
     288:	73032e72 	movwvc	r2, #15986	; 0x3e72
     28c:	03010466 	movweq	r0, #5222	; 0x1466
     290:	0204821d 	andeq	r8, r4, #-805306367	; 0xd0000001
     294:	032e7003 	teqeq	lr, #3
     298:	01046673 	tsteq	r4, r3, ror r6
     29c:	04821f03 	streq	r1, [r2], #3843	; 0xf03
     2a0:	2e6e0302 	cdpcs	3, 6, cr0, cr14, cr2, {0}
     2a4:	04667303 	strbteq	r7, [r6], #-771	; 0x303
     2a8:	82210301 	eorhi	r0, r1, #67108864	; 0x4000000
     2ac:	6c030204 	sfmvs	f0, 4, [r3], {4}
     2b0:	6673032e 	ldrbtvs	r0, [r3], -lr, lsr #6
     2b4:	23030104 	movwcs	r0, #12548	; 0x3104
     2b8:	03020482 	movweq	r0, #9346	; 0x2482
     2bc:	73032e6a 	movwvc	r2, #15978	; 0x3e6a
     2c0:	03010466 	movweq	r0, #5222	; 0x1466
     2c4:	02048225 	andeq	r8, r4, #1342177282	; 0x50000002
     2c8:	032e6803 	teqeq	lr, #196608	; 0x30000
     2cc:	01046673 	tsteq	r4, r3, ror r6
     2d0:	04822703 	streq	r2, [r2], #1795	; 0x703
     2d4:	2e660302 	cdpcs	3, 6, cr0, cr6, cr2, {0}
     2d8:	04667303 	strbteq	r7, [r6], #-771	; 0x303
     2dc:	82290301 	eorhi	r0, r9, #67108864	; 0x4000000
     2e0:	4b9e1103 	blmi	fe7846f4 <__bss_end__+0xfe777e3c>
     2e4:	0431314f 	ldrteq	r3, [r1], #-335	; 0x14f
     2e8:	7fba0302 	svcvc	0x00ba0302
     2ec:	0301042e 	movweq	r0, #5166	; 0x142e
     2f0:	2f8200c7 	svccs	0x008200c7
     2f4:	b8030204 	stmdalt	r3, {r2, r9}
     2f8:	0104667f 	tsteq	r4, pc, ror r6
     2fc:	8200ca03 	andhi	ip, r0, #12288	; 0x3000
     300:	0302042f 	movweq	r0, #9263	; 0x242f
     304:	04827fb5 	streq	r7, [r2], #4021	; 0xfb5
     308:	00cd0301 	sbceq	r0, sp, r1, lsl #6
     30c:	02042f82 	andeq	r2, r4, #520	; 0x208
     310:	827fb203 	rsbshi	fp, pc, #805306368	; 0x30000000
     314:	d0030104 	andle	r0, r3, r4, lsl #2
     318:	042f8200 	strteq	r8, [pc], #-512	; 320 <_start-0x7ce0>
     31c:	7faf0302 	svcvc	0x00af0302
     320:	03010482 	movweq	r0, #5250	; 0x1482
     324:	2f8200d3 	svccs	0x008200d3
     328:	ac030204 	sfmge	f0, 4, [r3], {4}
     32c:	0104827f 	tsteq	r4, pc, ror r2
     330:	8200d603 	andhi	sp, r0, #3145728	; 0x300000
     334:	0302042f 	movweq	r0, #9263	; 0x242f
     338:	04827fa9 	streq	r7, [r2], #4009	; 0xfa9
     33c:	00d90301 	sbcseq	r0, r9, r1, lsl #6
     340:	02042f82 	andeq	r2, r4, #520	; 0x208
     344:	827fa603 	rsbshi	sl, pc, #3145728	; 0x300000
     348:	dd030104 	stfles	f0, [r3, #-16]
     34c:	51038200 	mrspl	r8, R11_usr
     350:	83844c82 	orrhi	r4, r4, #33280	; 0x8200
     354:	2e310348 	cdpcs	3, 3, cr0, cr1, cr8, {2}
     358:	3432474e 	ldrtcc	r4, [r2], #-1870	; 0x74e
     35c:	0402009f 	streq	r0, [r2], #-159	; 0x9f
     360:	064a0601 	strbeq	r0, [sl], -r1, lsl #12
     364:	bb4b4ebb 	bllt	12d3e58 <__bss_end__+0x12c75a0>
     368:	0402002c 	streq	r0, [r2], #-44	; 0x2c
     36c:	062e0601 	strteq	r0, [lr], -r1, lsl #12
     370:	84a44c6d 	strthi	r4, [r4], #3181	; 0xc6d
     374:	01040200 	mrseq	r0, R12_usr
     378:	bb064a06 	bllt	192b98 <__bss_end__+0x1862e0>
     37c:	0402004d 	streq	r0, [r2], #-77	; 0x4d
     380:	02004b02 	andeq	r4, r0, #2048	; 0x800
     384:	00810204 	addeq	r0, r1, r4, lsl #4
     388:	06010402 	streq	r0, [r1], -r2, lsl #8
     38c:	4c4d062e 	mcrrmi	6, 2, r0, sp, cr14
     390:	4b4bbca5 	blmi	12ef62c <__bss_end__+0x12e2d74>
     394:	002f6b4b 	eoreq	r6, pc, fp, asr #22
     398:	06010402 	streq	r0, [r1], -r2, lsl #8
     39c:	02008282 	andeq	r8, r0, #536870920	; 0x20000008
     3a0:	009e0404 	addseq	r0, lr, r4, lsl #8
     3a4:	4a010402 	bmi	413b4 <__bss_end__+0x34afc>
     3a8:	bd88bd06 	stclt	13, cr11, [r8, #24]
     3ac:	084b4b2f 	stmdaeq	fp, {r0, r1, r2, r3, r5, r8, r9, fp, lr}^
     3b0:	02006724 	andeq	r6, r0, #36, 14	; 0x900000
     3b4:	002f0204 	eoreq	r0, pc, r4, lsl #4
     3b8:	49020402 	stmdbmi	r2, {r1, sl}
     3bc:	01040200 	mrseq	r0, R12_usr
     3c0:	68062e06 	stmdavs	r6, {r1, r2, r9, sl, fp, sp}
     3c4:	a04b8634 	subge	r8, fp, r4, lsr r6
     3c8:	01040200 	mrseq	r0, R12_usr
     3cc:	bb066606 	bllt	199bec <__bss_end__+0x18d334>
     3d0:	4b220868 	blmi	882578 <__bss_end__+0x875cc0>
     3d4:	a1bc4b67 			; <UNDEFINED> instruction: 0xa1bc4b67
     3d8:	0402002f 	streq	r0, [r2], #-47	; 0x2f
     3dc:	06820601 	streq	r0, [r2], r1, lsl #12
     3e0:	020088bb 	andeq	r8, r0, #12255232	; 0xbb0000
     3e4:	82060104 	andhi	r0, r6, #4, 2
     3e8:	04838306 	streq	r8, [r3], #774	; 0x306
     3ec:	7f800303 	svcvc	0x00800303
     3f0:	4a6f039e 	bmi	1bc1270 <__bss_end__+0x1bb49b8>
     3f4:	4c9e1203 	lfmmi	f1, 4, [lr], {3}
     3f8:	0301044b 	movweq	r0, #5195	; 0x144b
     3fc:	67ba00fd 			; <UNDEFINED> instruction: 0x67ba00fd
     400:	04230888 	strteq	r0, [r3], #-2184	; 0x888
     404:	7ee10303 	cdpvc	3, 14, cr0, cr1, cr3, {0}
     408:	0301042e 	movweq	r0, #5166	; 0x142e
     40c:	2f6601a9 	svccs	0x006601a9
     410:	04672f2c 	strbteq	r2, [r7], #-3884	; 0xf2c
     414:	04020003 	streq	r0, [r2], #-3
     418:	7ed60301 	cdpvc	3, 13, cr0, cr6, cr1, {0}
     41c:	0001044a 	andeq	r0, r1, sl, asr #8
     420:	03010402 	movweq	r0, #5122	; 0x1402
     424:	034a01a8 	movteq	r0, #41384	; 0xa1a8
     428:	2f4bba09 	svccs	0x004bba09
     42c:	30760830 	rsbscc	r0, r6, r0, lsr r8
     430:	684c684c 	stmdavs	ip, {r2, r3, r6, fp, sp, lr}^
     434:	18024b31 	stmdane	r2, {r0, r4, r5, r8, r9, fp, lr}
     438:	78010100 	stmdavc	r1, {r8}
     43c:	02000002 	andeq	r0, r0, #2
     440:	00012d00 	andeq	r2, r1, r0, lsl #26
     444:	fb010200 	blx	40c4e <__bss_end__+0x34396>
     448:	01000d0e 	tsteq	r0, lr, lsl #26
     44c:	00010101 	andeq	r0, r1, r1, lsl #2
     450:	00010000 	andeq	r0, r1, r0
     454:	696c0100 	stmdbvs	ip!, {r8}^
     458:	2f006362 	svccs	0x00006362
     45c:	2f727375 	svccs	0x00727375
     460:	61636f6c 	cmnvs	r3, ip, ror #30
     464:	65432f6c 	strbvs	r2, [r3, #-3948]	; 0xf6c
     468:	72616c6c 	rsbvc	r6, r1, #108, 24	; 0x6c00
     46c:	6d72612f 	ldfvse	f6, [r2, #-188]!	; 0xffffff44
     470:	6e6f6e2d 	cdpvs	14, 6, cr6, cr15, cr13, {1}
     474:	61652d65 	cmnvs	r5, r5, ror #26
     478:	342f6962 	strtcc	r6, [pc], #-2402	; 480 <_start-0x7b80>
     47c:	332e382e 	teqcc	lr, #3014656	; 0x2e0000
     480:	3173632d 	cmncc	r3, sp, lsr #6
     484:	2f653037 	svccs	0x00653037
     488:	2f62696c 	svccs	0x0062696c
     48c:	2f636367 	svccs	0x00636367
     490:	2d6d7261 	sfmcs	f7, 2, [sp, #-388]!	; 0xfffffe7c
     494:	656e6f6e 	strbvs	r6, [lr, #-3950]!	; 0xf6e
     498:	6261652d 	rsbvs	r6, r1, #188743680	; 0xb400000
     49c:	2e342f69 	cdpcs	15, 3, cr2, cr4, cr9, {3}
     4a0:	2f332e38 	svccs	0x00332e38
     4a4:	6c636e69 	stclvs	14, cr6, [r3], #-420	; 0xfffffe5c
     4a8:	00656475 	rsbeq	r6, r5, r5, ror r4
     4ac:	6573552f 	ldrbvs	r5, [r3, #-1327]!	; 0x52f
     4b0:	622f7372 	eorvs	r7, pc, #-939524095	; 0xc8000001
     4b4:	6e616972 	mcrvs	9, 3, r6, cr1, cr2, {3}
     4b8:	2f6e756a 	svccs	0x006e756a
     4bc:	6b736544 	blvs	1cd99d4 <__bss_end__+0x1ccd11c>
     4c0:	2f706f74 	svccs	0x00706f74
     4c4:	6f686373 	svcvs	0x00686373
     4c8:	572f6c6f 	strpl	r6, [pc, -pc, ror #24]!
     4cc:	65746e69 	ldrbvs	r6, [r4, #-3689]!	; 0xe69
     4d0:	32393172 	eorscc	r3, r9, #-2147483620	; 0x8000001c
     4d4:	53432f30 	movtpl	r2, #16176	; 0x3f30
     4d8:	45303431 	ldrmi	r3, [r0, #-1073]!	; 0x431
     4dc:	3173632f 	cmncc	r3, pc, lsr #6
     4e0:	2d653034 	stclcs	0, cr3, [r5, #-208]!	; 0xffffff30
     4e4:	69773032 	ldmdbvs	r7!, {r1, r4, r5, ip, sp}^
     4e8:	696c2f6e 	stmdbvs	ip!, {r1, r2, r3, r5, r6, r8, r9, sl, fp, sp}^
     4ec:	00697062 	rsbeq	r7, r9, r2, rrx
     4f0:	7273752f 	rsbsvc	r7, r3, #197132288	; 0xbc00000
     4f4:	636f6c2f 	cmnvs	pc, #12032	; 0x2f00
     4f8:	432f6c61 	teqmi	pc, #24832	; 0x6100
     4fc:	616c6c65 	cmnvs	ip, r5, ror #24
     500:	72612f72 	rsbvc	r2, r1, #456	; 0x1c8
     504:	6f6e2d6d 	svcvs	0x006e2d6d
     508:	652d656e 	strvs	r6, [sp, #-1390]!	; 0x56e
     50c:	2f696261 	svccs	0x00696261
     510:	2e382e34 	mrccs	14, 1, r2, cr8, cr4, {1}
     514:	73632d33 	cmnvc	r3, #3264	; 0xcc0
     518:	65303731 	ldrvs	r3, [r0, #-1841]!	; 0x731
     51c:	6d72612f 	ldfvse	f6, [r2, #-188]!	; 0xffffff44
     520:	6e6f6e2d 	cdpvs	14, 6, cr6, cr15, cr13, {1}
     524:	61652d65 	cmnvs	r5, r5, ror #26
     528:	692f6962 	stmdbvs	pc!, {r1, r5, r6, r8, fp, sp, lr}	; <UNPREDICTABLE>
     52c:	756c636e 	strbvc	r6, [ip, #-878]!	; 0x36e
     530:	00006564 	andeq	r6, r0, r4, ror #10
     534:	63726963 	cmnvs	r2, #1622016	; 0x18c000
     538:	72616c75 	rsbvc	r6, r1, #29952	; 0x7500
     53c:	0100632e 	tsteq	r0, lr, lsr #6
     540:	69630000 	stmdbvs	r3!, {}^	; <UNPREDICTABLE>
     544:	6c756372 	ldclvs	3, cr6, [r5], #-456	; 0xfffffe38
     548:	682e7261 	stmdavs	lr!, {r0, r5, r6, r9, ip, sp, lr}
     54c:	00000100 	andeq	r0, r0, r0, lsl #2
     550:	64647473 	strbtvs	r7, [r4], #-1139	; 0x473
     554:	682e6665 	stmdavs	lr!, {r0, r2, r5, r6, r9, sl, sp, lr}
     558:	00000200 	andeq	r0, r0, r0, lsl #4
     55c:	2e697072 	mcrcs	0, 3, r7, cr9, cr2, {3}
     560:	00030068 	andeq	r0, r3, r8, rrx
     564:	72747300 	rsbsvc	r7, r4, #0, 6
     568:	2e676e69 	cdpcs	14, 6, cr6, cr7, cr9, {3}
     56c:	00040068 	andeq	r0, r4, r8, rrx
     570:	05000000 	streq	r0, [r0, #-0]
     574:	0087ec02 	addeq	lr, r7, r2, lsl #24
     578:	044b1900 	strbeq	r1, [fp], #-2304	; 0x900
     57c:	00cd0302 	sbceq	r0, sp, r2, lsl #6
     580:	01049982 	smlabbeq	r4, r2, r9, r9
     584:	9e7fb803 	cdpls	8, 7, cr11, cr15, cr3, {0}
     588:	2fd82208 	svccs	0x00d82208
     58c:	673f089f 			; <UNDEFINED> instruction: 0x673f089f
     590:	4b9f6767 	blmi	fe7da334 <__bss_end__+0xfe7cda7c>
     594:	3a030204 	bcc	c0dac <__bss_end__+0xb44f4>
     598:	030104ba 	movweq	r0, #5306	; 0x14ba
     59c:	02004a47 	andeq	r4, r0, #290816	; 0x47000
     5a0:	4a060104 	bmi	1809b8 <__bss_end__+0x174100>
     5a4:	03060204 	movweq	r0, #25092	; 0x6204
     5a8:	0104ba3c 	tsteq	r4, ip, lsr sl
     5ac:	00ba4503 	adcseq	r4, sl, r3, lsl #10
     5b0:	06010402 	streq	r0, [r1], -r2, lsl #8
     5b4:	0602044a 	streq	r0, [r2], -sl, asr #8
     5b8:	04ba3d03 	ldrteq	r3, [sl], #3331	; 0xd03
     5bc:	9e440301 	cdpls	3, 4, cr0, cr4, cr1, {0}
     5c0:	01040200 	mrseq	r0, R12_usr
     5c4:	02044a06 	andeq	r4, r4, #24576	; 0x6000
     5c8:	ba370306 	blt	dc11e8 <__bss_end__+0xdb4930>
     5cc:	4c820a03 	vstmiami	r2, {s0-s2}
     5d0:	04834b4b 	streq	r4, [r3], #2891	; 0xb4b
     5d4:	7fbb0301 	svcvc	0x00bb0301
     5d8:	0302044a 	movweq	r0, #9290	; 0x244a
     5dc:	042e00c1 	strteq	r0, [lr], #-193	; 0xc1
     5e0:	2e400301 	cdpcs	3, 4, cr0, cr0, cr1, {0}
     5e4:	01040200 	mrseq	r0, R12_usr
     5e8:	00664a06 	rsbeq	r4, r6, r6, lsl #20
     5ec:	66040402 	strvs	r0, [r4], -r2, lsl #8
     5f0:	01040200 	mrseq	r0, R12_usr
     5f4:	1903064a 	stmdbne	r3, {r1, r3, r6, r9, sl}
     5f8:	04012402 	streq	r2, [r1], #-1026	; 0x402
     5fc:	4a1c0302 	bmi	70120c <__bss_end__+0x6f4954>
     600:	324a0b03 	subcc	r0, sl, #3072	; 0xc00
     604:	01040200 	mrseq	r0, R12_usr
     608:	002e7103 	eoreq	r7, lr, r3, lsl #2
     60c:	03010402 	movweq	r0, #5122	; 0x1402
     610:	2f4c4a0a 	svccs	0x004c4a0a
     614:	0446834b 	strbeq	r8, [r6], #-843	; 0x34b
     618:	2e5e0301 	cdpcs	3, 5, cr0, cr14, cr1, {0}
     61c:	0085a04e 	addeq	sl, r5, lr, asr #32
     620:	4b020402 	blmi	81630 <__bss_end__+0x74d78>
     624:	02040200 	andeq	r0, r4, #0, 4
     628:	04020065 	streq	r0, [r2], #-101	; 0x65
     62c:	062e0601 	strteq	r0, [lr], -r1, lsl #12
     630:	2e5a034c 	cdpcs	3, 5, cr0, cr10, cr12, {2}
     634:	03020483 	movweq	r0, #9347	; 0x2483
     638:	01042e36 	tsteq	r4, r6, lsr lr
     63c:	4cba4b03 	fldmiaxmi	sl!, {d4}	;@ Deprecated
     640:	4d314883 	ldcmi	8, cr4, [r1, #-524]!	; 0xfffffdf4
     644:	2e030204 	cdpcs	2, 0, cr0, cr3, cr4, {0}
     648:	0301044a 	movweq	r0, #5194	; 0x144a
     64c:	4b4cd654 	blmi	1335fa4 <__bss_end__+0x13296ec>
     650:	03020468 	movweq	r0, #9320	; 0x2468
     654:	01044a27 	tsteq	r4, r7, lsr #20
     658:	009e5a03 	addseq	r5, lr, r3, lsl #20
     65c:	06010402 	streq	r0, [r1], -r2, lsl #8
     660:	50b5064a 	adcspl	r0, r5, sl, asr #12
     664:	ba15032f 	blt	541328 <__bss_end__+0x534a70>
     668:	0f030204 	svceq	0x00030204
     66c:	0104d72e 	tsteq	r4, lr, lsr #14
     670:	042e7303 	strteq	r7, [lr], #-771	; 0x303
     674:	661b0302 	ldrvs	r0, [fp], -r2, lsl #6
     678:	032e6f03 	teqeq	lr, #3, 30
     67c:	04312e13 	ldrteq	r2, [r1], #-3603	; 0xe13
     680:	4a630301 	bmi	18c128c <__bss_end__+0x18b49d4>
     684:	18030204 	stmdane	r3, {r2, r9}
     688:	2e6f032e 	cdpcs	3, 6, cr0, cr15, cr14, {1}
     68c:	4c821203 	sfmmi	f1, 4, [r2], {3}
     690:	0447832f 	strbeq	r8, [r7], #-815	; 0x32f
     694:	2e660301 	cdpcs	3, 6, cr0, cr6, cr1, {0}
     698:	0200b84b 	andeq	fp, r0, #4915200	; 0x4b0000
     69c:	2e060104 	adfcss	f0, f6, f4
     6a0:	02044d06 	andeq	r4, r4, #384	; 0x180
     6a4:	8101044c 	tsthi	r1, ip, asr #8
     6a8:	01040200 	mrseq	r0, R12_usr
     6ac:	b5064a06 	strlt	r4, [r6, #-2566]	; 0xa06
     6b0:	0e026750 	mcreq	7, 0, r6, cr2, cr0, {2}
     6b4:	ec010100 	stfs	f0, [r1], {-0}
     6b8:	02000000 	andeq	r0, r0, #0
     6bc:	0000d000 	andeq	sp, r0, r0
     6c0:	fb010200 	blx	40eca <__bss_end__+0x34612>
     6c4:	01000d0e 	tsteq	r0, lr, lsl #26
     6c8:	00010101 	andeq	r0, r1, r1, lsl #2
     6cc:	00010000 	andeq	r0, r1, r0
     6d0:	696c0100 	stmdbvs	ip!, {r8}^
     6d4:	2f006362 	svccs	0x00006362
     6d8:	2f727375 	svccs	0x00727375
     6dc:	61636f6c 	cmnvs	r3, ip, ror #30
     6e0:	65432f6c 	strbvs	r2, [r3, #-3948]	; 0xf6c
     6e4:	72616c6c 	rsbvc	r6, r1, #108, 24	; 0x6c00
     6e8:	6d72612f 	ldfvse	f6, [r2, #-188]!	; 0xffffff44
     6ec:	6e6f6e2d 	cdpvs	14, 6, cr6, cr15, cr13, {1}
     6f0:	61652d65 	cmnvs	r5, r5, ror #26
     6f4:	342f6962 	strtcc	r6, [pc], #-2402	; 6fc <_start-0x7904>
     6f8:	332e382e 	teqcc	lr, #3014656	; 0x2e0000
     6fc:	3173632d 	cmncc	r3, sp, lsr #6
     700:	2f653037 	svccs	0x00653037
     704:	2f62696c 	svccs	0x0062696c
     708:	2f636367 	svccs	0x00636367
     70c:	2d6d7261 	sfmcs	f7, 2, [sp, #-388]!	; 0xfffffe7c
     710:	656e6f6e 	strbvs	r6, [lr, #-3950]!	; 0xf6e
     714:	6261652d 	rsbvs	r6, r1, #188743680	; 0xb400000
     718:	2e342f69 	cdpcs	15, 3, cr2, cr4, cr9, {3}
     71c:	2f332e38 	svccs	0x00332e38
     720:	6c636e69 	stclvs	14, cr6, [r3], #-420	; 0xfffffe5c
     724:	00656475 	rsbeq	r6, r5, r5, ror r4
     728:	7273752f 	rsbsvc	r7, r3, #197132288	; 0xbc00000
     72c:	636f6c2f 	cmnvs	pc, #12032	; 0x2f00
     730:	432f6c61 	teqmi	pc, #24832	; 0x6100
     734:	616c6c65 	cmnvs	ip, r5, ror #24
     738:	72612f72 	rsbvc	r2, r1, #456	; 0x1c8
     73c:	6f6e2d6d 	svcvs	0x006e2d6d
     740:	652d656e 	strvs	r6, [sp, #-1390]!	; 0x56e
     744:	2f696261 	svccs	0x00696261
     748:	2e382e34 	mrccs	14, 1, r2, cr8, cr4, {1}
     74c:	73632d33 	cmnvc	r3, #3264	; 0xcc0
     750:	65303731 	ldrvs	r3, [r0, #-1841]!	; 0x731
     754:	6d72612f 	ldfvse	f6, [r2, #-188]!	; 0xffffff44
     758:	6e6f6e2d 	cdpvs	14, 6, cr6, cr15, cr13, {1}
     75c:	61652d65 	cmnvs	r5, r5, ror #26
     760:	692f6962 	stmdbvs	pc!, {r1, r5, r6, r8, fp, sp, lr}	; <UNPREDICTABLE>
     764:	756c636e 	strbvc	r6, [ip, #-878]!	; 0x36e
     768:	00006564 	andeq	r6, r0, r4, ror #10
     76c:	736d656d 	cmnvc	sp, #457179136	; 0x1b400000
     770:	632e7465 	teqvs	lr, #1694498816	; 0x65000000
     774:	00000100 	andeq	r0, r0, r0, lsl #2
     778:	64647473 	strbtvs	r7, [r4], #-1139	; 0x473
     77c:	682e6665 	stmdavs	lr!, {r0, r2, r5, r6, r9, sl, sp, lr}
     780:	00000200 	andeq	r0, r0, r0, lsl #4
     784:	69727473 	ldmdbvs	r2!, {r0, r1, r4, r5, r6, sl, ip, sp, lr}^
     788:	682e676e 	stmdavs	lr!, {r1, r2, r3, r5, r6, r8, r9, sl, sp, lr}
     78c:	00000300 	andeq	r0, r0, r0, lsl #6
     790:	02050000 	andeq	r0, r5, #0
     794:	00008d00 	andeq	r8, r0, r0, lsl #26
     798:	2f4c1314 	svccs	0x004c1314
     79c:	01040200 	mrseq	r0, R12_usr
     7a0:	02024d49 	andeq	r4, r2, #4672	; 0x1240
     7a4:	02010100 	andeq	r0, r1, #0, 2
     7a8:	02000001 	andeq	r0, r0, #1
     7ac:	0000eb00 	andeq	lr, r0, r0, lsl #22
     7b0:	fb010200 	blx	40fba <__bss_end__+0x34702>
     7b4:	01000d0e 	tsteq	r0, lr, lsl #26
     7b8:	00010101 	andeq	r0, r1, r1, lsl #2
     7bc:	00010000 	andeq	r0, r1, r0
     7c0:	696c0100 	stmdbvs	ip!, {r8}^
     7c4:	2f006362 	svccs	0x00006362
     7c8:	2f727375 	svccs	0x00727375
     7cc:	61636f6c 	cmnvs	r3, ip, ror #30
     7d0:	65432f6c 	strbvs	r2, [r3, #-3948]	; 0xf6c
     7d4:	72616c6c 	rsbvc	r6, r1, #108, 24	; 0x6c00
     7d8:	6d72612f 	ldfvse	f6, [r2, #-188]!	; 0xffffff44
     7dc:	6e6f6e2d 	cdpvs	14, 6, cr6, cr15, cr13, {1}
     7e0:	61652d65 	cmnvs	r5, r5, ror #26
     7e4:	342f6962 	strtcc	r6, [pc], #-2402	; 7ec <_start-0x7814>
     7e8:	332e382e 	teqcc	lr, #3014656	; 0x2e0000
     7ec:	3173632d 	cmncc	r3, sp, lsr #6
     7f0:	2f653037 	svccs	0x00653037
     7f4:	2f62696c 	svccs	0x0062696c
     7f8:	2f636367 	svccs	0x00636367
     7fc:	2d6d7261 	sfmcs	f7, 2, [sp, #-388]!	; 0xfffffe7c
     800:	656e6f6e 	strbvs	r6, [lr, #-3950]!	; 0xf6e
     804:	6261652d 	rsbvs	r6, r1, #188743680	; 0xb400000
     808:	2e342f69 	cdpcs	15, 3, cr2, cr4, cr9, {3}
     80c:	2f332e38 	svccs	0x00332e38
     810:	6c636e69 	stclvs	14, cr6, [r3], #-420	; 0xfffffe5c
     814:	00656475 	rsbeq	r6, r5, r5, ror r4
     818:	6573552f 	ldrbvs	r5, [r3, #-1327]!	; 0x52f
     81c:	622f7372 	eorvs	r7, pc, #-939524095	; 0xc8000001
     820:	6e616972 	mcrvs	9, 3, r6, cr1, cr2, {3}
     824:	2f6e756a 	svccs	0x006e756a
     828:	6b736544 	blvs	1cd9d40 <__bss_end__+0x1ccd488>
     82c:	2f706f74 	svccs	0x00706f74
     830:	6f686373 	svcvs	0x00686373
     834:	572f6c6f 	strpl	r6, [pc, -pc, ror #24]!
     838:	65746e69 	ldrbvs	r6, [r4, #-3689]!	; 0xe69
     83c:	32393172 	eorscc	r3, r9, #-2147483620	; 0x8000001c
     840:	53432f30 	movtpl	r2, #16176	; 0x3f30
     844:	45303431 	ldrmi	r3, [r0, #-1073]!	; 0x431
     848:	3173632f 	cmncc	r3, pc, lsr #6
     84c:	2d653034 	stclcs	0, cr3, [r5, #-208]!	; 0xffffff30
     850:	69773032 	ldmdbvs	r7!, {r1, r4, r5, ip, sp}^
     854:	696c2f6e 	stmdbvs	ip!, {r1, r2, r3, r5, r6, r8, r9, sl, fp, sp}^
     858:	00697062 	rsbeq	r7, r9, r2, rrx
     85c:	69727000 	ldmdbvs	r2!, {ip, sp, lr}^
     860:	2e6b746e 	cdpcs	4, 6, cr7, cr11, cr14, {3}
     864:	00010063 	andeq	r0, r1, r3, rrx
     868:	64747300 	ldrbtvs	r7, [r4], #-768	; 0x300
     86c:	2e677261 	cdpcs	2, 6, cr7, cr7, cr1, {3}
     870:	00020068 	andeq	r0, r2, r8, rrx
     874:	75623c00 	strbvc	r3, [r2, #-3072]!	; 0xc00
     878:	2d746c69 	ldclcs	12, cr6, [r4, #-420]!	; 0xfffffe5c
     87c:	003e6e69 	eorseq	r6, lr, r9, ror #28
     880:	72000000 	andvc	r0, r0, #0
     884:	682e6970 	stmdavs	lr!, {r4, r5, r6, r8, fp, sp, lr}
     888:	00000300 	andeq	r0, r0, r0, lsl #6
     88c:	702d6176 	eorvc	r6, sp, r6, ror r1
     890:	746e6972 	strbtvc	r6, [lr], #-2418	; 0x972
     894:	00682e6b 	rsbeq	r2, r8, fp, ror #28
     898:	00000001 	andeq	r0, r0, r1
     89c:	20020500 	andcs	r0, r2, r0, lsl #10
     8a0:	1700008d 	strne	r0, [r0, -sp, lsl #1]
     8a4:	89bf4b6b 	ldmibhi	pc!, {r0, r1, r3, r5, r6, r8, r9, fp, lr}	; <UNPREDICTABLE>
     8a8:	01000e02 	tsteq	r0, r2, lsl #28
     8ac:	00009601 	andeq	r9, r0, r1, lsl #12
     8b0:	6f000200 	svcvs	0x00000200
     8b4:	02000000 	andeq	r0, r0, #0
     8b8:	0d0efb01 	vstreq	d15, [lr, #-4]
     8bc:	01010100 	mrseq	r0, (UNDEF: 17)
     8c0:	00000001 	andeq	r0, r0, r1
     8c4:	01000001 	tsteq	r0, r1
     8c8:	6362696c 	cmnvs	r2, #108, 18	; 0x1b0000
     8cc:	73552f00 	cmpvc	r5, #0, 30
     8d0:	2f737265 	svccs	0x00737265
     8d4:	61697262 	cmnvs	r9, r2, ror #4
     8d8:	6e756a6e 	vsubvs.f32	s13, s10, s29
     8dc:	7365442f 	cmnvc	r5, #788529152	; 0x2f000000
     8e0:	706f746b 	rsbvc	r7, pc, fp, ror #8
     8e4:	6863732f 	stmdavs	r3!, {r0, r1, r2, r3, r5, r8, r9, ip, sp, lr}^
     8e8:	2f6c6f6f 	svccs	0x006c6f6f
     8ec:	746e6957 	strbtvc	r6, [lr], #-2391	; 0x957
     8f0:	39317265 	ldmdbcc	r1!, {r0, r2, r5, r6, r9, ip, sp, lr}
     8f4:	432f3032 	teqmi	pc, #50	; 0x32
     8f8:	30343153 	eorscc	r3, r4, r3, asr r1
     8fc:	73632f45 	cmnvc	r3, #276	; 0x114
     900:	65303431 	ldrvs	r3, [r0, #-1073]!	; 0x431
     904:	7730322d 	ldrvc	r3, [r0, -sp, lsr #4]!
     908:	6c2f6e69 	stcvs	14, cr6, [pc], #-420	; 76c <_start-0x7894>
     90c:	69706269 	ldmdbvs	r0!, {r0, r3, r5, r6, r9, sp, lr}^
     910:	75700000 	ldrbvc	r0, [r0, #-0]!
     914:	632e6b74 	teqvs	lr, #116, 22	; 0x1d000
     918:	00000100 	andeq	r0, r0, r0, lsl #2
     91c:	2e697072 	mcrcs	0, 3, r7, cr9, cr2, {3}
     920:	00020068 	andeq	r0, r2, r8, rrx
     924:	05000000 	streq	r0, [r0, #-0]
     928:	008d7802 	addeq	r7, sp, r2, lsl #16
     92c:	2d4c1500 	cfstr64cs	mvdx1, [ip, #-0]
     930:	02040200 	andeq	r0, r4, #0, 4
     934:	0402002f 	streq	r0, [r2], #-47	; 0x2f
     938:	02004902 	andeq	r4, r0, #32768	; 0x8000
     93c:	2e060104 	adfcss	f0, f6, f4
     940:	06026b06 	streq	r6, [r2], -r6, lsl #22
     944:	dc010100 	stfles	f0, [r1], {-0}
     948:	02000001 	andeq	r0, r0, #1
     94c:	0000df00 	andeq	sp, r0, r0, lsl #30
     950:	fb010200 	blx	4115a <__bss_end__+0x348a2>
     954:	01000d0e 	tsteq	r0, lr, lsl #26
     958:	00010101 	andeq	r0, r1, r1, lsl #2
     95c:	00010000 	andeq	r0, r1, r0
     960:	696c0100 	stmdbvs	ip!, {r8}^
     964:	2f006362 	svccs	0x00006362
     968:	2f727375 	svccs	0x00727375
     96c:	61636f6c 	cmnvs	r3, ip, ror #30
     970:	65432f6c 	strbvs	r2, [r3, #-3948]	; 0xf6c
     974:	72616c6c 	rsbvc	r6, r1, #108, 24	; 0x6c00
     978:	6d72612f 	ldfvse	f6, [r2, #-188]!	; 0xffffff44
     97c:	6e6f6e2d 	cdpvs	14, 6, cr6, cr15, cr13, {1}
     980:	61652d65 	cmnvs	r5, r5, ror #26
     984:	342f6962 	strtcc	r6, [pc], #-2402	; 98c <_start-0x7674>
     988:	332e382e 	teqcc	lr, #3014656	; 0x2e0000
     98c:	3173632d 	cmncc	r3, sp, lsr #6
     990:	2f653037 	svccs	0x00653037
     994:	2f62696c 	svccs	0x0062696c
     998:	2f636367 	svccs	0x00636367
     99c:	2d6d7261 	sfmcs	f7, 2, [sp, #-388]!	; 0xfffffe7c
     9a0:	656e6f6e 	strbvs	r6, [lr, #-3950]!	; 0xf6e
     9a4:	6261652d 	rsbvs	r6, r1, #188743680	; 0xb400000
     9a8:	2e342f69 	cdpcs	15, 3, cr2, cr4, cr9, {3}
     9ac:	2f332e38 	svccs	0x00332e38
     9b0:	6c636e69 	stclvs	14, cr6, [r3], #-420	; 0xfffffe5c
     9b4:	00656475 	rsbeq	r6, r5, r5, ror r4
     9b8:	6573552f 	ldrbvs	r5, [r3, #-1327]!	; 0x52f
     9bc:	622f7372 	eorvs	r7, pc, #-939524095	; 0xc8000001
     9c0:	6e616972 	mcrvs	9, 3, r6, cr1, cr2, {3}
     9c4:	2f6e756a 	svccs	0x006e756a
     9c8:	6b736544 	blvs	1cd9ee0 <__bss_end__+0x1ccd628>
     9cc:	2f706f74 	svccs	0x00706f74
     9d0:	6f686373 	svcvs	0x00686373
     9d4:	572f6c6f 	strpl	r6, [pc, -pc, ror #24]!
     9d8:	65746e69 	ldrbvs	r6, [r4, #-3689]!	; 0xe69
     9dc:	32393172 	eorscc	r3, r9, #-2147483620	; 0x8000001c
     9e0:	53432f30 	movtpl	r2, #16176	; 0x3f30
     9e4:	45303431 	ldrmi	r3, [r0, #-1073]!	; 0x431
     9e8:	3173632f 	cmncc	r3, pc, lsr #6
     9ec:	2d653034 	stclcs	0, cr3, [r5, #-208]!	; 0xffffff30
     9f0:	69773032 	ldmdbvs	r7!, {r1, r4, r5, ip, sp}^
     9f4:	696c2f6e 	stmdbvs	ip!, {r1, r2, r3, r5, r6, r8, r9, sl, fp, sp}^
     9f8:	00697062 	rsbeq	r7, r9, r2, rrx
     9fc:	2d617600 	stclcs	6, cr7, [r1, #-0]
     a00:	6e697270 	mcrvs	2, 3, r7, cr9, cr0, {3}
     a04:	632e6b74 	teqvs	lr, #116, 22	; 0x1d000
     a08:	00000100 	andeq	r0, r0, r0, lsl #2
     a0c:	61647473 	smcvs	18243	; 0x4743
     a10:	682e6772 	stmdavs	lr!, {r1, r4, r5, r6, r8, r9, sl, sp, lr}
     a14:	00000200 	andeq	r0, r0, r0, lsl #4
     a18:	2e697072 	mcrcs	0, 3, r7, cr9, cr2, {3}
     a1c:	00030068 	andeq	r0, r3, r8, rrx
     a20:	75623c00 	strbvc	r3, [r2, #-3072]!	; 0xc00
     a24:	2d746c69 	ldclcs	12, cr6, [r4, #-420]!	; 0xfffffe5c
     a28:	003e6e69 	eorseq	r6, lr, r9, ror #28
     a2c:	00000000 	andeq	r0, r0, r0
     a30:	ac020500 	cfstr32ge	mvfx0, [r2], {-0}
     a34:	0300008d 	movweq	r0, #141	; 0x8d
     a38:	a5010126 	strge	r0, [r1, #-294]	; 0x126
     a3c:	002d3113 	eoreq	r3, sp, r3, lsl r1
     a40:	2f020402 	svccs	0x00020402
     a44:	02040200 	andeq	r0, r4, #0, 4
     a48:	0402002d 	streq	r0, [r2], #-45	; 0x2d
     a4c:	02002f02 	andeq	r2, r0, #2, 30
     a50:	4c2d0104 	stfmis	f0, [sp], #-16
     a54:	4b14304c 	blmi	50cb8c <__bss_end__+0x5002d4>
     a58:	02004f2f 	andeq	r4, r0, #47, 30	; 0xbc
     a5c:	00670204 	rsbeq	r0, r7, r4, lsl #4
     a60:	65010402 	strvs	r0, [r1, #-1026]	; 0x402
     a64:	a0304d4c 	eorsge	r4, r0, ip, asr #26
     a68:	0230312f 	eorseq	r3, r0, #-1073741813	; 0xc000000b
     a6c:	2d841626 	stccs	6, cr1, [r4, #152]	; 0x98
     a70:	0402002c 	streq	r0, [r2], #-44	; 0x2c
     a74:	02003001 	andeq	r3, r0, #1
     a78:	06330104 	ldrteq	r0, [r3], -r4, lsl #2
     a7c:	04020066 	streq	r0, [r2], #-102	; 0x66
     a80:	02002e01 	andeq	r2, r0, #1, 28
     a84:	08060104 	stmdaeq	r6, {r2, r8}
     a88:	032f6721 	teqeq	pc, #8650752	; 0x840000
     a8c:	13038273 	movwne	r8, #12915	; 0x3273
     a90:	0402002e 	streq	r0, [r2], #-46	; 0x2e
     a94:	002e0601 	eoreq	r0, lr, r1, lsl #12
     a98:	06010402 	streq	r0, [r1], -r2, lsl #8
     a9c:	034b6a9f 	movteq	r6, #47775	; 0xba9f
     aa0:	21032e67 	tstcs	r3, r7, ror #28
     aa4:	0402002e 	streq	r0, [r2], #-46	; 0x2e
     aa8:	002e0601 	eoreq	r0, lr, r1, lsl #12
     aac:	06010402 	streq	r0, [r1], -r2, lsl #8
     ab0:	0402009f 	streq	r0, [r2], #-159	; 0x9f
     ab4:	f3bd6a01 	vtbl.8	d6, {d13-d15}, d1
     ab8:	087fa603 	ldmdaeq	pc!, {r0, r1, r9, sl, sp, pc}^	; <UNPREDICTABLE>
     abc:	02002f20 	andeq	r2, r0, #32, 30	; 0x80
     ac0:	4a060104 	bmi	180ed8 <__bss_end__+0x174620>
     ac4:	2f4bbb06 	svccs	0x004bbb06
     ac8:	f200da03 	vpmax.s8	d13, d0, d3
     acc:	31484c83 	smlalbbcc	r4, r8, r3, ip
     ad0:	4b842f2f 	blmi	fe10c794 <__bss_end__+0xfe0ffedc>
     ad4:	314d2d2f 	cmpcc	sp, pc, lsr #26
     ad8:	00832f30 	addeq	r2, r3, r0, lsr pc
     adc:	2c010402 	cfstrscs	mvf0, [r1], {2}
     ae0:	040200be 	streq	r0, [r2], #-190	; 0xbe
     ae4:	064a0601 	strbeq	r0, [sl], -r1, lsl #12
     ae8:	163602bc 			; <UNDEFINED> instruction: 0x163602bc
     aec:	08ba0e03 	ldmeq	sl!, {r0, r1, r9, sl, fp}
     af0:	21083021 	tstcs	r8, r1, lsr #32
     af4:	30210831 	eorcc	r0, r1, r1, lsr r8
     af8:	4b302108 	blmi	c08f20 <__bss_end__+0xbfc668>
     afc:	30210830 	eorcc	r0, r1, r0, lsr r8
     b00:	002f31d9 	ldrdeq	r3, [pc], -r9	; <UNPREDICTABLE>
     b04:	65010402 	strvs	r0, [r1, #-1026]	; 0x402
     b08:	02040200 	andeq	r0, r4, #0, 4
     b0c:	02004a06 	andeq	r4, r0, #24576	; 0x6000
     b10:	03060104 	movweq	r0, #24836	; 0x6104
     b14:	02006642 	andeq	r6, r0, #69206016	; 0x4200000
     b18:	66060204 	strvs	r0, [r6], -r4, lsl #4
     b1c:	00c20306 	sbceq	r0, r2, r6, lsl #6
     b20:	1002684a 	andne	r6, r2, sl, asr #16
     b24:	43010100 	movwmi	r0, #4352	; 0x1100
     b28:	02000000 	andeq	r0, r0, #0
     b2c:	00002900 	andeq	r2, r0, r0, lsl #18
     b30:	fb010200 	blx	4133a <__bss_end__+0x34a82>
     b34:	01000d0e 	tsteq	r0, lr, lsl #26
     b38:	00010101 	andeq	r0, r1, r1, lsl #2
     b3c:	00010000 	andeq	r0, r1, r0
     b40:	73630100 	cmnvc	r3, #0, 2
     b44:	65303431 	ldrvs	r3, [r0, #-1073]!	; 0x431
     b48:	6372732d 	cmnvs	r2, #-1275068416	; 0xb4000000
     b4c:	61630000 	cmnvs	r3, r0
     b50:	2e656863 	cdpcs	8, 6, cr6, cr5, cr3, {3}
     b54:	00010063 	andeq	r0, r1, r3, rrx
     b58:	05000000 	streq	r0, [r0, #-0]
     b5c:	00929c02 	addseq	r9, r2, r2, lsl #24
     b60:	30141400 	andscc	r1, r4, r0, lsl #8
     b64:	31144e2f 	tstcc	r4, pc, lsr #28
     b68:	0004022f 	andeq	r0, r4, pc, lsr #4
     b6c:	00930101 	addseq	r0, r3, r1, lsl #2
     b70:	00020000 	andeq	r0, r2, r0
     b74:	0000007d 	andeq	r0, r0, sp, ror r0
     b78:	0efb0102 	cdpeq	1, 15, cr0, cr11, cr2, {0}
     b7c:	0101000d 	tsteq	r1, sp
     b80:	00000101 	andeq	r0, r0, r1, lsl #2
     b84:	00000100 	andeq	r0, r0, r0, lsl #2
     b88:	31736301 	cmncc	r3, r1, lsl #6
     b8c:	2d653034 	stclcs	0, cr3, [r5, #-208]!	; 0xffffff30
     b90:	00637273 	rsbeq	r7, r3, r3, ror r2
     b94:	6573552f 	ldrbvs	r5, [r3, #-1327]!	; 0x52f
     b98:	622f7372 	eorvs	r7, pc, #-939524095	; 0xc8000001
     b9c:	6e616972 	mcrvs	9, 3, r6, cr1, cr2, {3}
     ba0:	2f6e756a 	svccs	0x006e756a
     ba4:	6b736544 	blvs	1cda0bc <__bss_end__+0x1ccd804>
     ba8:	2f706f74 	svccs	0x00706f74
     bac:	6f686373 	svcvs	0x00686373
     bb0:	572f6c6f 	strpl	r6, [pc, -pc, ror #24]!
     bb4:	65746e69 	ldrbvs	r6, [r4, #-3689]!	; 0xe69
     bb8:	32393172 	eorscc	r3, r9, #-2147483620	; 0x8000001c
     bbc:	53432f30 	movtpl	r2, #16176	; 0x3f30
     bc0:	45303431 	ldrmi	r3, [r0, #-1073]!	; 0x431
     bc4:	3173632f 	cmncc	r3, pc, lsr #6
     bc8:	2d653034 	stclcs	0, cr3, [r5, #-208]!	; 0xffffff30
     bcc:	69773032 	ldmdbvs	r7!, {r1, r4, r5, ip, sp}^
     bd0:	696c2f6e 	stmdbvs	ip!, {r1, r2, r3, r5, r6, r8, r9, sl, fp, sp}^
     bd4:	00697062 	rsbeq	r7, r9, r2, rrx
     bd8:	656c6300 	strbvs	r6, [ip, #-768]!	; 0x300
     bdc:	722d6e61 	eorvc	r6, sp, #1552	; 0x610
     be0:	6f6f6265 	svcvs	0x006f6265
     be4:	00632e74 	rsbeq	r2, r3, r4, ror lr
     be8:	72000001 	andvc	r0, r0, #1
     bec:	682e6970 	stmdavs	lr!, {r4, r5, r6, r8, fp, sp, lr}
     bf0:	00000200 	andeq	r0, r0, r0, lsl #4
     bf4:	02050000 	andeq	r0, r5, #0
     bf8:	000092bc 			; <UNDEFINED> instruction: 0x000092bc
     bfc:	4b832f15 	blmi	fe0cc858 <__bss_end__+0xfe0bffa0>
     c00:	01000602 	tsteq	r0, r2, lsl #12
     c04:	00009601 	andeq	r9, r0, r1, lsl #12
     c08:	77000200 	strvc	r0, [r0, -r0, lsl #4]
     c0c:	02000000 	andeq	r0, r0, #0
     c10:	0d0efb01 	vstreq	d15, [lr, #-4]
     c14:	01010100 	mrseq	r0, (UNDEF: 17)
     c18:	00000001 	andeq	r0, r0, r1
     c1c:	01000001 	tsteq	r0, r1
     c20:	34317363 	ldrtcc	r7, [r1], #-867	; 0x363
     c24:	732d6530 	teqvc	sp, #48, 10	; 0xc000000
     c28:	2f006372 	svccs	0x00006372
     c2c:	72657355 	rsbvc	r7, r5, #1409286145	; 0x54000001
     c30:	72622f73 	rsbvc	r2, r2, #460	; 0x1cc
     c34:	6a6e6169 	bvs	1b991e0 <__bss_end__+0x1b8c928>
     c38:	442f6e75 	strtmi	r6, [pc], #-3701	; c40 <_start-0x73c0>
     c3c:	746b7365 	strbtvc	r7, [fp], #-869	; 0x365
     c40:	732f706f 	teqvc	pc, #111	; 0x6f
     c44:	6f6f6863 	svcvs	0x006f6863
     c48:	69572f6c 	ldmdbvs	r7, {r2, r3, r5, r6, r8, r9, sl, fp, sp}^
     c4c:	7265746e 	rsbvc	r7, r5, #1845493760	; 0x6e000000
     c50:	30323931 	eorscc	r3, r2, r1, lsr r9
     c54:	3153432f 	cmpcc	r3, pc, lsr #6
     c58:	2f453034 	svccs	0x00453034
     c5c:	34317363 	ldrtcc	r7, [r1], #-867	; 0x363
     c60:	322d6530 	eorcc	r6, sp, #48, 10	; 0xc000000
     c64:	6e697730 	mcrvs	7, 3, r7, cr9, cr0, {1}
     c68:	62696c2f 	rsbvs	r6, r9, #12032	; 0x2f00
     c6c:	00006970 	andeq	r6, r0, r0, ror r9
     c70:	61747363 	cmnvs	r4, r3, ror #6
     c74:	632e7472 	teqvs	lr, #1912602624	; 0x72000000
     c78:	00000100 	andeq	r0, r0, r0, lsl #2
     c7c:	2e697072 	mcrcs	0, 3, r7, cr9, cr2, {3}
     c80:	00020068 	andeq	r0, r2, r8, rrx
     c84:	05000000 	streq	r0, [r0, #-0]
     c88:	0092e402 	addseq	lr, r2, r2, lsl #8
     c8c:	31321400 	teqcc	r2, r0, lsl #8
     c90:	002f2d2f 	eoreq	r2, pc, pc, lsr #26
     c94:	49010402 	stmdbmi	r1, {r1, sl}
     c98:	06022f4d 	streq	r2, [r2], -sp, asr #30
     c9c:	99010100 	stmdbls	r1, {r8}
     ca0:	02000000 	andeq	r0, r0, #0
     ca4:	00007700 	andeq	r7, r0, r0, lsl #14
     ca8:	fb010200 	blx	414b2 <__bss_end__+0x34bfa>
     cac:	01000d0e 	tsteq	r0, lr, lsl #26
     cb0:	00010101 	andeq	r0, r1, r1, lsl #2
     cb4:	00010000 	andeq	r0, r1, r0
     cb8:	73630100 	cmnvc	r3, #0, 2
     cbc:	65303431 	ldrvs	r3, [r0, #-1073]!	; 0x431
     cc0:	6372732d 	cmnvs	r2, #-1275068416	; 0xb4000000
     cc4:	73552f00 	cmpvc	r5, #0, 30
     cc8:	2f737265 	svccs	0x00737265
     ccc:	61697262 	cmnvs	r9, r2, ror #4
     cd0:	6e756a6e 	vsubvs.f32	s13, s10, s29
     cd4:	7365442f 	cmnvc	r5, #788529152	; 0x2f000000
     cd8:	706f746b 	rsbvc	r7, pc, fp, ror #8
     cdc:	6863732f 	stmdavs	r3!, {r0, r1, r2, r3, r5, r8, r9, ip, sp, lr}^
     ce0:	2f6c6f6f 	svccs	0x006c6f6f
     ce4:	746e6957 	strbtvc	r6, [lr], #-2391	; 0x957
     ce8:	39317265 	ldmdbcc	r1!, {r0, r2, r5, r6, r9, ip, sp, lr}
     cec:	432f3032 	teqmi	pc, #50	; 0x32
     cf0:	30343153 	eorscc	r3, r4, r3, asr r1
     cf4:	73632f45 	cmnvc	r3, #276	; 0x114
     cf8:	65303431 	ldrvs	r3, [r0, #-1073]!	; 0x431
     cfc:	7730322d 	ldrvc	r3, [r0, -sp, lsr #4]!
     d00:	6c2f6e69 	stcvs	14, cr6, [pc], #-420	; b64 <_start-0x749c>
     d04:	69706269 	ldmdbvs	r0!, {r0, r3, r5, r6, r9, sp, lr}^
     d08:	65720000 	ldrbvs	r0, [r2, #-0]!
     d0c:	746f6f62 	strbtvc	r6, [pc], #-3938	; d14 <_start-0x72ec>
     d10:	0100632e 	tsteq	r0, lr, lsr #6
     d14:	70720000 	rsbsvc	r0, r2, r0
     d18:	00682e69 	rsbeq	r2, r8, r9, ror #28
     d1c:	00000002 	andeq	r0, r0, r2
     d20:	18020500 	stmdane	r2, {r8, sl}
     d24:	03000093 	movweq	r0, #147	; 0x93
     d28:	3114010d 	tstcc	r4, sp, lsl #2
     d2c:	2f15852f 	svccs	0x0015852f
     d30:	672f4d4b 	strvs	r4, [pc, -fp, asr #26]!
     d34:	02675235 	rsbeq	r5, r7, #1342177283	; 0x50000003
     d38:	01010010 	tsteq	r1, r0, lsl r0
     d3c:	000000a3 	andeq	r0, r0, r3, lsr #1
     d40:	00760002 	rsbseq	r0, r6, r2
     d44:	01020000 	mrseq	r0, (UNDEF: 2)
     d48:	000d0efb 	strdeq	r0, [sp], -fp
     d4c:	01010101 	tsteq	r1, r1, lsl #2
     d50:	01000000 	mrseq	r0, (UNDEF: 0)
     d54:	63010000 	movwvs	r0, #4096	; 0x1000
     d58:	30343173 	eorscc	r3, r4, r3, ror r1
     d5c:	72732d65 	rsbsvc	r2, r3, #6464	; 0x1940
     d60:	552f0063 	strpl	r0, [pc, #-99]!	; d05 <_start-0x72fb>
     d64:	73726573 	cmnvc	r2, #482344960	; 0x1cc00000
     d68:	6972622f 	ldmdbvs	r2!, {r0, r1, r2, r3, r5, r9, sp, lr}^
     d6c:	756a6e61 	strbvc	r6, [sl, #-3681]!	; 0xe61
     d70:	65442f6e 	strbvs	r2, [r4, #-3950]	; 0xf6e
     d74:	6f746b73 	svcvs	0x00746b73
     d78:	63732f70 	cmnvs	r3, #112, 30	; 0x1c0
     d7c:	6c6f6f68 	stclvs	15, cr6, [pc], #-416	; be4 <_start-0x741c>
     d80:	6e69572f 	cdpvs	7, 6, cr5, cr9, cr15, {1}
     d84:	31726574 	cmncc	r2, r4, ror r5
     d88:	2f303239 	svccs	0x00303239
     d8c:	34315343 	ldrtcc	r5, [r1], #-835	; 0x343
     d90:	632f4530 	teqvs	pc, #48, 10	; 0xc000000
     d94:	30343173 	eorscc	r3, r4, r3, ror r1
     d98:	30322d65 	eorscc	r2, r2, r5, ror #26
     d9c:	2f6e6977 	svccs	0x006e6977
     da0:	7062696c 	rsbvc	r6, r2, ip, ror #18
     da4:	74000069 	strvc	r0, [r0], #-105	; 0x69
     da8:	72656d69 	rsbvc	r6, r5, #6720	; 0x1a40
     dac:	0100632e 	tsteq	r0, lr, lsr #6
     db0:	70720000 	rsbsvc	r0, r2, r0
     db4:	00682e69 	rsbeq	r2, r8, r9, ror #28
     db8:	00000002 	andeq	r0, r0, r2
     dbc:	8c020500 	cfstr32hi	mvfx0, [r2], {-0}
     dc0:	16000093 			; <UNDEFINED> instruction: 0x16000093
     dc4:	002d2f13 	eoreq	r2, sp, r3, lsl pc
     dc8:	06010402 	streq	r0, [r1], -r2, lsl #8
     dcc:	3168062e 	cmncc	r8, lr, lsr #12
     dd0:	324d4b2f 	subcc	r4, sp, #48128	; 0xbc00
     dd4:	4c4b3031 	mcrrmi	0, 3, r3, fp, cr1
     dd8:	2f2f6a2f 	svccs	0x002f6a2f
     ddc:	08022f84 	stmdaeq	r2, {r2, r7, r8, r9, sl, fp, sp}
     de0:	f9010100 			; <UNDEFINED> instruction: 0xf9010100
     de4:	02000000 	andeq	r0, r0, #0
     de8:	00003b00 	andeq	r3, r0, r0, lsl #22
     dec:	fb010200 	blx	415f6 <__bss_end__+0x34d3e>
     df0:	01000d0e 	tsteq	r0, lr, lsl #26
     df4:	00010101 	andeq	r0, r1, r1, lsl #2
     df8:	00010000 	andeq	r0, r1, r0
     dfc:	73630100 	cmnvc	r3, #0, 2
     e00:	65303431 	ldrvs	r3, [r0, #-1073]!	; 0x431
     e04:	6372732d 	cmnvs	r2, #-1275068416	; 0xb4000000
     e08:	70670000 	rsbvc	r0, r7, r0
     e0c:	632e6f69 	teqvs	lr, #420	; 0x1a4
     e10:	00000000 	andeq	r0, r0, r0
     e14:	6f697067 	svcvs	0x00697067
     e18:	0100682e 	tsteq	r0, lr, lsr #16
     e1c:	70720000 	rsbsvc	r0, r2, r0
     e20:	00682e69 	rsbeq	r2, r8, r9, ror #28
     e24:	00000000 	andeq	r0, r0, r0
     e28:	14020500 	strne	r0, [r2], #-1280	; 0x500
     e2c:	03000094 	movweq	r0, #148	; 0x94
     e30:	504e013e 	subpl	r0, lr, lr, lsr r1
     e34:	67210869 	strvs	r0, [r1, -r9, ror #16]!
     e38:	67676767 	strbvs	r6, [r7, -r7, ror #14]!
     e3c:	084b3267 	stmdaeq	fp, {r0, r1, r2, r5, r6, r9, ip, sp}^
     e40:	5131dc22 	teqpl	r1, r2, lsr #24
     e44:	30504e13 	subscc	r4, r0, r3, lsl lr
     e48:	135031be 	cmpne	r0, #-2147483601	; 0x8000002f
     e4c:	c0304f4d 	eorsgt	r4, r0, sp, asr #30
     e50:	0869504c 	stmdaeq	r9!, {r2, r3, r6, ip, lr}^
     e54:	67676721 	strbvs	r6, [r7, -r1, lsr #14]!
     e58:	32676767 	rsbcc	r6, r7, #27000832	; 0x19c0000
     e5c:	a421084b 	strtge	r0, [r1], #-2123	; 0x84b
     e60:	842f504c 	strthi	r5, [pc], #-76	; e68 <_start-0x7198>
     e64:	82750369 	rsbshi	r0, r5, #-1543503871	; 0xa4000001
     e68:	4d2e0c03 	stcmi	12, cr0, [lr, #-12]!
     e6c:	98034e30 	stmdals	r3, {r4, r5, r9, sl, fp, lr}
     e70:	13514a7f 	cmpne	r1, #520192	; 0x7f000
     e74:	a530504e 	ldrge	r5, [r0, #-78]!	; 0x4e
     e78:	4f4d1350 	svcmi	0x004d1350
     e7c:	00c20330 	sbceq	r0, r2, r0, lsr r3
     e80:	696b6aba 	stmdbvs	fp!, {r1, r3, r4, r5, r7, r9, fp, sp, lr}^
     e84:	67672108 	strbvs	r2, [r7, -r8, lsl #2]!
     e88:	67676767 	strbvs	r6, [r7, -r7, ror #14]!
     e8c:	22084b32 	andcs	r4, r8, #51200	; 0xc800
     e90:	31ba1a03 			; <UNDEFINED> instruction: 0x31ba1a03
     e94:	522f4c9f 	eorpl	r4, pc, #40704	; 0x9f00
     e98:	4b2f4e4d 	blmi	bd47d4 <__bss_end__+0xbc7f1c>
     e9c:	67684b67 	strbvs	r4, [r8, -r7, ror #22]!
     ea0:	672f4c67 	strvs	r4, [pc, -r7, ror #24]!
     ea4:	4c6e4b2f 	stclmi	11, cr4, [lr], #-188	; 0xffffff44
     ea8:	674b2f4e 	strbvs	r2, [fp, -lr, asr #30]
     eac:	6767684b 	strbvs	r6, [r7, -fp, asr #16]!
     eb0:	2f672f4c 	svccs	0x00672f4c
     eb4:	4e4b6d4b 	cdpmi	13, 4, cr6, cr11, cr11, {2}
     eb8:	00674b2f 	rsbeq	r4, r7, pc, lsr #22
     ebc:	06010402 	streq	r0, [r1], -r2, lsl #8
     ec0:	9f680666 	svcls	0x00680666
     ec4:	0402002f 	streq	r0, [r2], #-47	; 0x2f
     ec8:	064a0601 	strbeq	r0, [sl], -r1, lsl #12
     ecc:	73032f68 	movwvc	r2, #16232	; 0x3f68
     ed0:	2e0e034a 	cdpcs	3, 0, cr0, cr14, cr10, {2}
     ed4:	2f4e4c4d 	svccs	0x004e4c4d
     ed8:	02bcbc4b 	adcseq	fp, ip, #19200	; 0x4b00
     edc:	01010006 	tsteq	r1, r6
     ee0:	000000d6 	ldrdeq	r0, [r0], -r6
     ee4:	00970002 	addseq	r0, r7, r2
     ee8:	01020000 	mrseq	r0, (UNDEF: 2)
     eec:	000d0efb 	strdeq	r0, [sp], -fp
     ef0:	01010101 	tsteq	r1, r1, lsl #2
     ef4:	01000000 	mrseq	r0, (UNDEF: 0)
     ef8:	63010000 	movwvs	r0, #4096	; 0x1000
     efc:	30343173 	eorscc	r3, r4, r3, ror r1
     f00:	6e692d65 	cdpvs	13, 6, cr2, cr9, cr5, {3}
     f04:	72726574 	rsbsvc	r6, r2, #116, 10	; 0x1d000000
     f08:	00747075 	rsbseq	r7, r4, r5, ror r0
     f0c:	6573552f 	ldrbvs	r5, [r3, #-1327]!	; 0x52f
     f10:	622f7372 	eorvs	r7, pc, #-939524095	; 0xc8000001
     f14:	6e616972 	mcrvs	9, 3, r6, cr1, cr2, {3}
     f18:	2f6e756a 	svccs	0x006e756a
     f1c:	6b736544 	blvs	1cda434 <__bss_end__+0x1ccdb7c>
     f20:	2f706f74 	svccs	0x00706f74
     f24:	6f686373 	svcvs	0x00686373
     f28:	572f6c6f 	strpl	r6, [pc, -pc, ror #24]!
     f2c:	65746e69 	ldrbvs	r6, [r4, #-3689]!	; 0xe69
     f30:	32393172 	eorscc	r3, r9, #-2147483620	; 0x8000001c
     f34:	53432f30 	movtpl	r2, #16176	; 0x3f30
     f38:	45303431 	ldrmi	r3, [r0, #-1073]!	; 0x431
     f3c:	3173632f 	cmncc	r3, pc, lsr #6
     f40:	2d653034 	stclcs	0, cr3, [r5, #-208]!	; 0xffffff30
     f44:	69773032 	ldmdbvs	r7!, {r1, r4, r5, ip, sp}^
     f48:	696c2f6e 	stmdbvs	ip!, {r1, r2, r3, r5, r6, r8, r9, sl, fp, sp}^
     f4c:	00697062 	rsbeq	r7, r9, r2, rrx
     f50:	746e6900 	strbtvc	r6, [lr], #-2304	; 0x900
     f54:	75727265 	ldrbvc	r7, [r2, #-613]!	; 0x265
     f58:	2d737470 	cfldrdcs	mvd7, [r3, #-448]!	; 0xfffffe40
     f5c:	00632e63 	rsbeq	r2, r3, r3, ror #28
     f60:	72000001 	andvc	r0, r0, #1
     f64:	682e6970 	stmdavs	lr!, {r4, r5, r6, r8, fp, sp, lr}
     f68:	00000200 	andeq	r0, r0, r0, lsl #4
     f6c:	2d697072 	stclcs	0, cr7, [r9, #-456]!	; 0xfffffe38
     f70:	65746e69 	ldrbvs	r6, [r4, #-3689]!	; 0xe69
     f74:	70757272 	rsbsvc	r7, r5, r2, ror r2
     f78:	682e7374 	stmdavs	lr!, {r2, r4, r5, r6, r8, r9, ip, sp, lr}
     f7c:	00000100 	andeq	r0, r0, r0, lsl #2
     f80:	02050000 	andeq	r0, r5, #0
     f84:	000099d0 	ldrdeq	r9, [r0], -r0
     f88:	67673116 			; <UNDEFINED> instruction: 0x67673116
     f8c:	832e0e03 	teqhi	lr, #3, 28	; 0x30
     f90:	02002d2f 	andeq	r2, r0, #3008	; 0xbc0
     f94:	002f0204 	eoreq	r0, pc, r4, lsl #4
     f98:	65020402 	strvs	r0, [r2, #-1026]	; 0x402
     f9c:	01040200 	mrseq	r0, R12_usr
     fa0:	4c062e06 	stcmi	14, cr2, [r6], {6}
     fa4:	94084ba2 	strls	r4, [r8], #-2978	; 0xba2
     fa8:	4b92084b 	blmi	fe4830dc <__bss_end__+0xfe476824>
     fac:	084b9208 	stmdaeq	fp, {r3, r9, ip, pc}^
     fb0:	92084b92 	andls	r4, r8, #149504	; 0x24800
     fb4:	001a024b 	andseq	r0, sl, fp, asr #4
     fb8:	00770101 	rsbseq	r0, r7, r1, lsl #2
     fbc:	00020000 	andeq	r0, r2, r0
     fc0:	0000003b 	andeq	r0, r0, fp, lsr r0
     fc4:	0efb0102 	cdpeq	1, 15, cr0, cr11, cr2, {0}
     fc8:	0101000d 	tsteq	r1, sp
     fcc:	00000101 	andeq	r0, r0, r1, lsl #2
     fd0:	00000100 	andeq	r0, r0, r0, lsl #2
     fd4:	31736301 	cmncc	r3, r1, lsl #6
     fd8:	2d653034 	stclcs	0, cr3, [r5, #-208]!	; 0xffffff30
     fdc:	00637273 	rsbeq	r7, r3, r3, ror r2
     fe0:	72617500 	rsbvc	r7, r1, #0, 10
     fe4:	00632e74 	rsbeq	r2, r3, r4, ror lr
     fe8:	67000000 	strvs	r0, [r0, -r0]
     fec:	2e6f6970 	mcrcs	9, 3, r6, cr15, cr0, {3}
     ff0:	00010068 	andeq	r0, r1, r8, rrx
     ff4:	69707200 	ldmdbvs	r0!, {r9, ip, sp, lr}^
     ff8:	0000682e 	andeq	r6, r0, lr, lsr #16
     ffc:	00000000 	andeq	r0, r0, r0
    1000:	9cdc0205 	lfmls	f0, 2, [ip], {5}
    1004:	d6030000 	strle	r0, [r3], -r0
    1008:	672f0100 	strvs	r0, [pc, -r0, lsl #2]!
    100c:	30665e03 	rsbcc	r5, r6, r3, lsl #28
    1010:	306d6733 	rsbcc	r6, sp, r3, lsr r7
    1014:	676730d8 			; <UNDEFINED> instruction: 0x676730d8
    1018:	68676767 	stmdavs	r7!, {r0, r1, r2, r5, r6, r8, r9, sl, sp, lr}^
    101c:	30820a03 	addcc	r0, r2, r3, lsl #20
    1020:	2f696767 	svccs	0x00696767
    1024:	674c6a67 	strbvs	r6, [ip, -r7, ror #20]
    1028:	302f2fc1 	eorcc	r2, pc, r1, asr #31
    102c:	3049682f 	subcc	r6, r9, pc, lsr #16
    1030:	01000202 	tsteq	r0, r2, lsl #4
    1034:	00008601 	andeq	r8, r0, r1, lsl #12
    1038:	72000200 	andvc	r0, r0, #0, 4
    103c:	02000000 	andeq	r0, r0, #0
    1040:	0d0efb01 	vstreq	d15, [lr, #-4]
    1044:	01010100 	mrseq	r0, (UNDEF: 17)
    1048:	00000001 	andeq	r0, r0, r1
    104c:	01000001 	tsteq	r0, r1
    1050:	6362696c 	cmnvs	r2, #108, 18	; 0x1b0000
    1054:	73552f00 	cmpvc	r5, #0, 30
    1058:	2f737265 	svccs	0x00737265
    105c:	61697262 	cmnvs	r9, r2, ror #4
    1060:	6e756a6e 	vsubvs.f32	s13, s10, s29
    1064:	7365442f 	cmnvc	r5, #788529152	; 0x2f000000
    1068:	706f746b 	rsbvc	r7, pc, fp, ror #8
    106c:	6863732f 	stmdavs	r3!, {r0, r1, r2, r3, r5, r8, r9, ip, sp, lr}^
    1070:	2f6c6f6f 	svccs	0x006c6f6f
    1074:	746e6957 	strbtvc	r6, [lr], #-2391	; 0x957
    1078:	39317265 	ldmdbcc	r1!, {r0, r2, r5, r6, r9, ip, sp, lr}
    107c:	432f3032 	teqmi	pc, #50	; 0x32
    1080:	30343153 	eorscc	r3, r4, r3, asr r1
    1084:	73632f45 	cmnvc	r3, #276	; 0x114
    1088:	65303431 	ldrvs	r3, [r0, #-1073]!	; 0x431
    108c:	7730322d 	ldrvc	r3, [r0, -sp, lsr #4]!
    1090:	6c2f6e69 	stcvs	14, cr6, [pc], #-420	; ef4 <_start-0x710c>
    1094:	69706269 	ldmdbvs	r0!, {r0, r3, r5, r6, r9, sp, lr}^
    1098:	75700000 	ldrbvc	r0, [r0, #-0]!
    109c:	61686374 	smcvs	34356	; 0x8634
    10a0:	00632e72 	rsbeq	r2, r3, r2, ror lr
    10a4:	72000001 	andvc	r0, r0, #1
    10a8:	682e6970 	stmdavs	lr!, {r4, r5, r6, r8, fp, sp, lr}
    10ac:	00000200 	andeq	r0, r0, r0, lsl #4
    10b0:	02050000 	andeq	r0, r5, #0
    10b4:	00009e30 	andeq	r9, r0, r0, lsr lr
    10b8:	06024a14 			; <UNDEFINED> instruction: 0x06024a14
    10bc:	Address 0x00000000000010bc is out of bounds.


Disassembly of section .debug_str:

00000000 <.debug_str>:
   0:	4f495047 	svcmi	0x00495047
   4:	544e495f 	strbpl	r4, [lr], #-2399	; 0x95f
   8:	50470030 	subpl	r0, r7, r0, lsr r0
   c:	495f4f49 	ldmdbmi	pc, {r0, r3, r6, r8, r9, sl, fp, lr}^	; <UNPREDICTABLE>
  10:	0031544e 	eorseq	r5, r1, lr, asr #8
  14:	4f495047 	svcmi	0x00495047
  18:	544e495f 	strbpl	r4, [lr], #-2399	; 0x95f
  1c:	50470032 	subpl	r0, r7, r2, lsr r0
  20:	495f4f49 	ldmdbmi	pc, {r0, r3, r6, r8, r9, sl, fp, lr}^	; <UNPREDICTABLE>
  24:	0033544e 	eorseq	r5, r3, lr, asr #8
  28:	695f7163 	ldmdbvs	pc, {r0, r1, r5, r6, r8, ip, sp, lr}^	; <UNPREDICTABLE>
  2c:	0074696e 	rsbseq	r6, r4, lr, ror #18
  30:	775f6e69 	ldrbvc	r6, [pc, -r9, ror #28]
  34:	65746972 	ldrbvs	r6, [r4, #-2418]!	; 0x972
  38:	72726500 	rsbsvc	r6, r2, #0, 10
  3c:	5f73726f 	svcpl	0x0073726f
  40:	61746166 	cmnvs	r4, r6, ror #2
  44:	00705f6c 	rsbseq	r5, r0, ip, ror #30
  48:	6d746f6e 	ldclvs	15, cr6, [r4, #-440]!	; 0xfffffe48
  4c:	006e6961 	rsbeq	r6, lr, r1, ror #18
  50:	5f6d7261 	svcpl	0x006d7261
  54:	656d6974 	strbvs	r6, [sp, #-2420]!	; 0x974
  58:	41525f72 	cmpmi	r2, r2, ror pc
  5c:	51524957 	cmppl	r2, r7, asr r9
  60:	5f777300 	svcpl	0x00777300
  64:	74726175 	ldrbtvc	r6, [r2], #-373	; 0x175
  68:	7465675f 	strbtvc	r6, [r5], #-1887	; 0x75f
  6c:	6e695f63 	cdpvs	15, 6, cr5, cr9, cr3, {3}
  70:	79630074 	stmdbvc	r3!, {r2, r4, r5, r6}^
  74:	65705f63 	ldrbvs	r5, [r0, #-3939]!	; 0xf63
  78:	69625f72 	stmdbvs	r2!, {r1, r4, r5, r6, r8, r9, sl, fp, ip, lr}^
  7c:	6f6c0074 	svcvs	0x006c0074
  80:	6c20676e 	stcvs	7, cr6, [r0], #-440	; 0xfffffe48
  84:	20676e6f 	rsbcs	r6, r7, pc, ror #28
  88:	69736e75 	ldmdbvs	r3!, {r0, r2, r4, r5, r6, r9, sl, fp, sp, lr}^
  8c:	64656e67 	strbtvs	r6, [r5], #-3687	; 0xe67
  90:	746e6920 	strbtvc	r6, [lr], #-2336	; 0x920
  94:	625f6300 	subsvs	r6, pc, #0, 6
  98:	77006675 	smlsdxvc	r0, r5, r6, r6
  9c:	65746972 	ldrbvs	r6, [r4, #-2418]!	; 0x972
  a0:	6379635f 	cmnvs	r9, #2080374785	; 0x7c000001
  a4:	746e755f 	strbtvc	r7, [lr], #-1375	; 0x55f
  a8:	63006c69 	movwvs	r6, #3177	; 0xc69
  ac:	6d655f71 	stclvs	15, cr5, [r5, #-452]!	; 0xfffffe3c
  b0:	00797470 	rsbseq	r7, r9, r0, ror r4
  b4:	6c637963 	stclvs	9, cr7, [r3], #-396	; 0xfffffe74
  b8:	65705f65 	ldrbvs	r5, [r0, #-3941]!	; 0xf65
  bc:	69625f72 	stmdbvs	r2!, {r1, r4, r5, r6, r8, r9, sl, fp, ip, lr}^
  c0:	6f6c0074 	svcvs	0x006c0074
  c4:	6c20676e 	stcvs	7, cr6, [r0], #-440	; 0xfffffe48
  c8:	20676e6f 	rsbcs	r6, r7, pc, ror #28
  cc:	00746e69 	rsbseq	r6, r4, r9, ror #28
  d0:	755f7773 	ldrbvc	r7, [pc, #-1907]	; fffff965 <__bss_end__+0xffff30ad>
  d4:	5f747261 	svcpl	0x00747261
  d8:	63746567 	cmnvs	r4, #432013312	; 0x19c00000
  dc:	6d69745f 	cfstrdvs	mvd7, [r9, #-380]!	; 0xfffffe84
  e0:	74756f65 	ldrbtvc	r6, [r5], #-3941	; 0xf65
  e4:	5f777300 	svcpl	0x00777300
  e8:	74726175 	ldrbtvc	r6, [r2], #-373	; 0x175
  ec:	7465675f 	strbtvc	r6, [r5], #-1887	; 0x75f
  f0:	6e755f73 	mrcvs	15, 3, r5, cr5, cr3, {3}
  f4:	006c6974 	rsbeq	r6, ip, r4, ror r9
  f8:	5f706f70 	svcpl	0x00706f70
  fc:	0074756f 	rsbseq	r7, r4, pc, ror #10
 100:	5f6d7261 	svcpl	0x006d7261
 104:	656d6974 	strbvs	r6, [sp, #-2420]!	; 0x974
 108:	6f435f72 	svcvs	0x00435f72
 10c:	6f72746e 	svcvs	0x0072746e
 110:	5f5f006c 	svcpl	0x005f006c
 114:	6c5f6176 	ldfvse	f6, [pc], {118}	; 0x76
 118:	00747369 	rsbseq	r7, r4, r9, ror #6
 11c:	5f6d7261 	svcpl	0x006d7261
 120:	656d6974 	strbvs	r6, [sp, #-2420]!	; 0x974
 124:	6f4c5f72 	svcvs	0x004c5f72
 128:	61006461 	tstvs	r0, r1, ror #8
 12c:	745f6d72 	ldrbvc	r6, [pc], #-3442	; 134 <_start-0x7ecc>
 130:	72656d69 	rsbvc	r6, r5, #6720	; 0x1a40
 134:	7361425f 	cmnvc	r1, #-268435451	; 0xf0000005
 138:	77730065 	ldrbvc	r0, [r3, -r5, rrx]!
 13c:	7261755f 	rsbvc	r7, r1, #398458880	; 0x17c00000
 140:	65675f74 	strbvs	r5, [r7, #-3956]!	; 0xf74
 144:	75006374 	strvc	r6, [r0, #-884]	; 0x374
 148:	5f636573 	svcpl	0x00636573
 14c:	656d6974 	strbvs	r6, [sp, #-2420]!	; 0x974
 150:	0074756f 	rsbseq	r7, r4, pc, ror #10
 154:	5f6d7261 	svcpl	0x006d7261
 158:	656d6974 	strbvs	r6, [sp, #-2420]!	; 0x974
 15c:	614d5f72 	hvcvs	54770	; 0xd5f2
 160:	64656b73 	strbtvs	r6, [r5], #-2931	; 0xb73
 164:	00515249 	subseq	r5, r1, r9, asr #4
 168:	705f6e69 	subsvc	r6, pc, r9, ror #28
 16c:	64006e69 	strvs	r6, [r0], #-3689	; 0xe69
 170:	79616c65 	stmdbvc	r1!, {r0, r2, r5, r6, sl, fp, sp, lr}^
 174:	79636e5f 	stmdbvc	r3!, {r0, r1, r2, r3, r4, r6, r9, sl, fp, sp, lr}^
 178:	73656c63 	cmnvc	r5, #25344	; 0x6300
 17c:	69706700 	ldmdbvs	r0!, {r8, r9, sl, sp, lr}^
 180:	76655f6f 	strbtvc	r5, [r5], -pc, ror #30
 184:	5f746e65 	svcpl	0x00746e65
 188:	61656c63 	cmnvs	r5, r3, ror #24
 18c:	5f5f0072 	svcpl	0x005f0072
 190:	434e5546 	movtmi	r5, #58694	; 0xe546
 194:	4e4f4954 	mcrmi	9, 2, r4, cr15, cr4, {2}
 198:	73005f5f 	movwvc	r5, #3935	; 0xf5f
 19c:	61755f77 	cmnvs	r5, r7, ror pc
 1a0:	675f7472 			; <UNDEFINED> instruction: 0x675f7472
 1a4:	5f737465 	svcpl	0x00737465
 1a8:	69746e75 	ldmdbvs	r4!, {r0, r2, r4, r5, r6, r9, sl, fp, sp, lr}^
 1ac:	6c625f6c 	stclvs	15, cr5, [r2], #-432	; 0xfffffe50
 1b0:	6873006b 	ldmdavs	r3!, {r0, r1, r3, r5, r6}^
 1b4:	2074726f 	rsbscs	r7, r4, pc, ror #4
 1b8:	69736e75 	ldmdbvs	r3!, {r0, r2, r4, r5, r6, r9, sl, fp, sp, lr}^
 1bc:	64656e67 	strbtvs	r6, [r5], #-3687	; 0xe67
 1c0:	746e6920 	strbtvc	r6, [lr], #-2336	; 0x920
 1c4:	5f777300 	svcpl	0x00777300
 1c8:	74726175 	ldrbtvc	r6, [r2], #-373	; 0x175
 1cc:	696e695f 	stmdbvs	lr!, {r0, r1, r2, r3, r4, r6, r8, fp, sp, lr}^
 1d0:	65685f74 	strbvs	r5, [r8, #-3956]!	; 0xf74
 1d4:	7265706c 	rsbvc	r7, r5, #108	; 0x6c
 1d8:	6d697400 	cfstrdvs	mvd7, [r9, #-0]
 1dc:	74756f65 	ldrbtvc	r6, [r5], #-3941	; 0xf65
 1e0:	6573755f 	ldrbvs	r7, [r3, #-1375]!	; 0x55f
 1e4:	77730063 	ldrbvc	r0, [r3, -r3, rrx]!
 1e8:	7261755f 	rsbvc	r7, r1, #398458880	; 0x17c00000
 1ec:	75705f74 	ldrbvc	r5, [r0, #-3956]!	; 0xf74
 1f0:	70006374 	andvc	r6, r0, r4, ror r3
 1f4:	00517475 	subseq	r7, r1, r5, ror r4
 1f8:	755f7773 	ldrbvc	r7, [pc, #-1907]	; fffffa8d <__bss_end__+0xffff31d5>
 1fc:	5f747261 	svcpl	0x00747261
 200:	6b747570 	blvs	1d1d7c8 <__bss_end__+0x1d10f10>
 204:	5f617600 	svcpl	0x00617600
 208:	6e697270 	mcrvs	2, 3, r7, cr9, cr0, {3}
 20c:	73006b74 	movwvc	r6, #2932	; 0xb74
 210:	61755f77 	cmnvs	r5, r7, ror pc
 214:	705f7472 	subsvc	r7, pc, r2, ror r4	; <UNPREDICTABLE>
 218:	746e6972 	strbtvc	r6, [lr], #-2418	; 0x972
 21c:	7067006b 	rsbvc	r0, r7, fp, rrx
 220:	725f6f69 	subsvc	r6, pc, #420	; 0x1a4
 224:	00646165 	rsbeq	r6, r4, r5, ror #2
 228:	61656c63 	cmnvs	r5, r3, ror #24
 22c:	65725f6e 	ldrbvs	r5, [r2, #-3950]!	; 0xf6e
 230:	746f6f62 	strbtvc	r6, [pc], #-3938	; 238 <_start-0x7dc8>
 234:	69617400 	stmdbvs	r1!, {sl, ip, sp, lr}^
 238:	6973006c 	ldmdbvs	r3!, {r2, r3, r5, r6}^
 23c:	7974657a 	ldmdbvc	r4!, {r1, r3, r4, r5, r6, r8, sl, sp, lr}^
 240:	63006570 	movwvs	r6, #1392	; 0x570
 244:	5f726168 	svcpl	0x00726168
 248:	5f006e69 	svcpl	0x00006e69
 24c:	756e675f 	strbvc	r6, [lr, #-1887]!	; 0x75f
 250:	61765f63 	cmnvs	r6, r3, ror #30
 254:	73696c5f 	cmnvc	r9, #24320	; 0x5f00
 258:	72610074 	rsbvc	r0, r1, #116	; 0x74
 25c:	69745f6d 	ldmdbvs	r4!, {r0, r2, r3, r5, r6, r8, r9, sl, fp, ip, lr}^
 260:	5f72656d 	svcpl	0x0072656d
 264:	6f6c6552 	svcvs	0x006c6552
 268:	73006461 	movwvc	r6, #1121	; 0x461
 26c:	61755f77 	cmnvs	r5, r7, ror pc
 270:	675f7472 			; <UNDEFINED> instruction: 0x675f7472
 274:	5f737465 	svcpl	0x00737465
 278:	656d6974 	strbvs	r6, [sp, #-2420]!	; 0x974
 27c:	0074756f 	rsbseq	r7, r4, pc, ror #10
 280:	5f746e69 	svcpl	0x00746e69
 284:	74696e69 	strbtvc	r6, [r9], #-3689	; 0xe69
 288:	6d697400 	cfstrdvs	mvd7, [r9, #-0]
 28c:	675f7265 	ldrbvs	r7, [pc, -r5, ror #4]
 290:	755f7465 	ldrbvc	r7, [pc, #-1125]	; fffffe33 <__bss_end__+0xffff357b>
 294:	5f636573 	svcpl	0x00636573
 298:	00776172 	rsbseq	r6, r7, r2, ror r1
 29c:	74737973 	ldrbtvc	r7, [r3], #-2419	; 0x973
 2a0:	655f6d65 	ldrbvs	r6, [pc, #-3429]	; fffff543 <__bss_end__+0xffff2c8b>
 2a4:	6c62616e 	stfvse	f6, [r2], #-440	; 0xfffffe48
 2a8:	6e695f65 	cdpvs	15, 6, cr5, cr9, cr5, {3}
 2ac:	72726574 	rsbsvc	r6, r2, #116, 10	; 0x1d000000
 2b0:	73747075 	cmnvc	r4, #117	; 0x75
 2b4:	72617500 	rsbvc	r7, r1, #0, 10
 2b8:	626e0074 	rsbvs	r0, lr, #116	; 0x74
 2bc:	73657479 	cmnvc	r5, #2030043136	; 0x79000000
 2c0:	5f777300 	svcpl	0x00777300
 2c4:	74726175 	ldrbtvc	r6, [r2], #-373	; 0x175
 2c8:	7500745f 	strvc	r7, [r0, #-1119]	; 0x45f
 2cc:	6769736e 	strbvs	r7, [r9, -lr, ror #6]!
 2d0:	2064656e 	rsbcs	r6, r4, lr, ror #10
 2d4:	72616863 	rsbvc	r6, r1, #6488064	; 0x630000
 2d8:	6f687300 	svcvs	0x00687300
 2dc:	69207472 	stmdbvs	r0!, {r1, r4, r5, r6, sl, ip, sp, lr}
 2e0:	6700746e 	strvs	r7, [r0, -lr, ror #8]
 2e4:	5f6f6970 	svcpl	0x006f6970
 2e8:	74697277 	strbtvc	r7, [r9], #-631	; 0x277
 2ec:	71630065 	cmnvc	r3, r5, rrx
 2f0:	706f705f 	rsbvc	r7, pc, pc, asr r0	; <UNPREDICTABLE>
 2f4:	65716300 	ldrbvs	r6, [r1, #-768]!	; 0x300
 2f8:	6800745f 	stmdavs	r0, {r0, r1, r2, r3, r4, r6, sl, ip, sp, lr}
 2fc:	00646165 	rsbeq	r6, r4, r5, ror #2
 300:	746e6975 	strbtvc	r6, [lr], #-2421	; 0x975
 304:	745f3233 	ldrbvc	r3, [pc], #-563	; 30c <_start-0x7cf4>
 308:	75616200 	strbvc	r6, [r1, #-512]!	; 0x200
 30c:	756f0064 	strbvc	r0, [pc, #-100]!	; 2b0 <_start-0x7d50>
 310:	69705f74 	ldmdbvs	r0!, {r2, r4, r5, r6, r8, r9, sl, fp, ip, lr}^
 314:	552f006e 	strpl	r0, [pc, #-110]!	; 2ae <_start-0x7d52>
 318:	73726573 	cmnvc	r2, #482344960	; 0x1cc00000
 31c:	6972622f 	ldmdbvs	r2!, {r0, r1, r2, r3, r5, r9, sp, lr}^
 320:	756a6e61 	strbvc	r6, [sl, #-3681]!	; 0xe61
 324:	65442f6e 	strbvs	r2, [r4, #-3950]	; 0xf6e
 328:	6f746b73 	svcvs	0x00746b73
 32c:	63732f70 	cmnvs	r3, #112, 30	; 0x1c0
 330:	6c6f6f68 	stclvs	15, cr6, [pc], #-416	; 198 <_start-0x7e68>
 334:	6e69572f 	cdpvs	7, 6, cr5, cr9, cr15, {1}
 338:	31726574 	cmncc	r2, r4, ror r5
 33c:	2f303239 	svccs	0x00303239
 340:	34315343 	ldrtcc	r5, [r1], #-835	; 0x343
 344:	632f4530 	teqvs	pc, #48, 10	; 0xc000000
 348:	30343173 	eorscc	r3, r4, r3, ror r1
 34c:	30322d65 	eorscc	r2, r2, r5, ror #26
 350:	2f6e6977 	svccs	0x006e6977
 354:	7362616c 	cmnvc	r2, #108, 2
 358:	642d382f 	strtvs	r3, [sp], #-2095	; 0x82f
 35c:	63697665 	cmnvs	r9, #105906176	; 0x6500000
 360:	6e692d65 	cdpvs	13, 6, cr2, cr9, cr5, {3}
 364:	72726574 	rsbsvc	r6, r2, #116, 10	; 0x1d000000
 368:	73747075 	cmnvc	r4, #117	; 0x75
 36c:	7261702f 	rsbvc	r7, r1, #47	; 0x2f
 370:	732d3374 	teqvc	sp, #116, 6	; 0xd0000001
 374:	61752d77 	cmnvs	r5, r7, ror sp
 378:	692d7472 	pushvs	{r1, r4, r5, r6, sl, ip, sp, lr}
 37c:	7500746e 	strvc	r7, [r0, #-1134]	; 0x46e
 380:	5f747261 	svcpl	0x00747261
 384:	74696e69 	strbtvc	r6, [r9], #-3689	; 0xe69
 388:	725f6e00 	subsvc	r6, pc, #0, 28
 38c:	6e697369 	cdpvs	3, 6, cr7, cr9, cr9, {3}
 390:	64655f67 	strbtvs	r5, [r5], #-3943	; 0xf67
 394:	47006567 	strmi	r6, [r0, -r7, ror #10]
 398:	4320554e 	teqmi	r0, #327155712	; 0x13800000
 39c:	382e3420 	stmdacc	lr!, {r5, sl, ip, sp}
 3a0:	2d20332e 	stccs	3, cr3, [r0, #-184]!	; 0xffffff48
 3a4:	7570636d 	ldrbvc	r6, [r0, #-877]!	; 0x36d
 3a8:	6d72613d 	ldfvse	f6, [r2, #-244]!	; 0xffffff0c
 3ac:	36373131 			; <UNDEFINED> instruction: 0x36373131
 3b0:	2d667a6a 	vstmdbcs	r6!, {s15-s120}
 3b4:	6d2d2073 	stcvs	0, cr2, [sp, #-460]!	; 0xfffffe34
 3b8:	656e7574 	strbvs	r7, [lr, #-1396]!	; 0x574
 3bc:	6d72613d 	ldfvse	f6, [r2, #-244]!	; 0xffffff0c
 3c0:	36373131 			; <UNDEFINED> instruction: 0x36373131
 3c4:	2d667a6a 	vstmdbcs	r6!, {s15-s120}
 3c8:	672d2073 			; <UNDEFINED> instruction: 0x672d2073
 3cc:	20626467 	rsbcs	r6, r2, r7, ror #8
 3d0:	20674f2d 	rsbcs	r4, r7, sp, lsr #30
 3d4:	6474732d 	ldrbtvs	r7, [r4], #-813	; 0x32d
 3d8:	756e673d 	strbvc	r6, [lr, #-1853]!	; 0x73d
 3dc:	2d203939 	stccs	9, cr3, [r0, #-228]!	; 0xffffff1c
 3e0:	65726666 	ldrbvs	r6, [r2, #-1638]!	; 0x666
 3e4:	61747365 	cmnvs	r4, r5, ror #6
 3e8:	6e69646e 	cdpvs	4, 6, cr6, cr9, cr14, {3}
 3ec:	65660067 	strbvs	r0, [r6, #-103]!	; 0x67
 3f0:	0065636e 	rsbeq	r6, r5, lr, ror #6
 3f4:	6f697067 	svcvs	0x00697067
 3f8:	7465735f 	strbtvc	r7, [r5], #-863	; 0x35f
 3fc:	706e695f 	rsbvc	r6, lr, pc, asr r9
 400:	6e007475 	mcrvs	4, 0, r7, cr0, cr5, {3}
 404:	6c61665f 	stclvs	6, cr6, [r1], #-380	; 0xfffffe84
 408:	676e696c 	strbvs	r6, [lr, -ip, ror #18]!
 40c:	6764655f 			; <UNDEFINED> instruction: 0x6764655f
 410:	766f0065 	strbtvc	r0, [pc], -r5, rrx
 414:	6c667265 	sfmvs	f7, 2, [r6], #-404	; 0xfffffe6c
 418:	6300776f 	movwvs	r7, #1903	; 0x76f
 41c:	75705f71 	ldrbvc	r5, [r0, #-3953]!	; 0xf71
 420:	5f006873 	svcpl	0x00006873
 424:	0070615f 	rsbseq	r6, r0, pc, asr r1
 428:	5f6d7261 	svcpl	0x006d7261
 42c:	656d6974 	strbvs	r6, [sp, #-2420]!	; 0x974
 430:	72505f72 	subsvc	r5, r0, #456	; 0x1c8
 434:	76694465 	strbtvc	r4, [r9], -r5, ror #8
 438:	72656469 	rsbvc	r6, r5, #1761607680	; 0x69000000
 43c:	616e6500 	cmnvs	lr, r0, lsl #10
 440:	5f656c62 	svcpl	0x00656c62
 444:	68636163 	stmdavs	r3!, {r0, r1, r5, r6, r8, sp, lr}^
 448:	5f6e0065 	svcpl	0x006e0065
 44c:	65746e69 	ldrbvs	r6, [r4, #-3689]!	; 0xe69
 450:	70757272 	rsbsvc	r7, r5, r2, ror r2
 454:	65640074 	strbvs	r0, [r4, #-116]!	; 0x74
 458:	65766972 	ldrbvs	r6, [r6, #-2418]!	; 0x972
 45c:	72610064 	rsbvc	r0, r1, #100	; 0x64
 460:	69745f6d 	ldmdbvs	r4!, {r0, r2, r3, r5, r6, r8, r9, sl, fp, ip, lr}^
 464:	5f72656d 	svcpl	0x0072656d
 468:	756c6156 	strbvc	r6, [ip, #-342]!	; 0x156
 46c:	72610065 	rsbvc	r0, r1, #101	; 0x65
 470:	69745f6d 	ldmdbvs	r4!, {r0, r2, r3, r5, r6, r8, r9, sl, fp, ip, lr}^
 474:	5f72656d 	svcpl	0x0072656d
 478:	43515249 	cmpmi	r1, #-1879048188	; 0x90000004
 47c:	7261656c 	rsbvc	r6, r1, #108, 10	; 0x1b000000
 480:	69706700 	ldmdbvs	r0!, {r8, r9, sl, sp, lr}^
 484:	65735f6f 	ldrbvs	r5, [r3, #-3951]!	; 0xf6f
 488:	756f5f74 	strbvc	r5, [pc, #-3956]!	; fffff51c <__bss_end__+0xffff2c64>
 48c:	74757074 	ldrbtvc	r7, [r5], #-116	; 0x74
 490:	5f716300 	svcpl	0x00716300
 494:	61770074 	cmnvs	r7, r4, ror r0
 498:	755f7469 	ldrbvc	r7, [pc, #-1129]	; 37 <_start-0x7fc9>
 49c:	6c69746e 	cfstrdvs	mvd7, [r9], #-440	; 0xfffffe48
 4a0:	6573755f 	ldrbvs	r7, [r3, #-1375]!	; 0x55f
 4a4:	70720063 	rsbsvc	r0, r2, r3, rrx
 4a8:	72615f69 	rsbvc	r5, r1, #420	; 0x1a4
 4ac:	69745f6d 	ldmdbvs	r4!, {r0, r2, r3, r5, r6, r8, r9, sl, fp, ip, lr}^
 4b0:	5f72656d 	svcpl	0x0072656d
 4b4:	69750074 	ldmdbvs	r5!, {r2, r4, r5, r6}^
 4b8:	5f38746e 	svcpl	0x0038746e
 4bc:	70670074 	rsbvc	r0, r7, r4, ror r0
 4c0:	695f6f69 	ldmdbvs	pc, {r0, r3, r5, r6, r8, r9, sl, fp, sp, lr}^	; <UNPREDICTABLE>
 4c4:	665f746e 	ldrbvs	r7, [pc], -lr, ror #8
 4c8:	696c6c61 	stmdbvs	ip!, {r0, r5, r6, sl, fp, sp, lr}^
 4cc:	655f676e 	ldrbvs	r6, [pc, #-1902]	; fffffd66 <__bss_end__+0xffff34ae>
 4d0:	00656764 	rsbeq	r6, r5, r4, ror #14
 4d4:	675f7369 	ldrbvs	r7, [pc, -r9, ror #6]
 4d8:	5f6f6970 	svcpl	0x006f6970
 4dc:	00746e69 	rsbseq	r6, r4, r9, ror #28
 4e0:	746e696e 	strbtvc	r6, [lr], #-2414	; 0x96e
 4e4:	75727265 	ldrbvc	r7, [r2, #-613]!	; 0x265
 4e8:	61007470 	tstvs	r0, r0, ror r4
 4ec:	00736772 	rsbseq	r6, r3, r2, ror r7
 4f0:	70672d31 	rsbvc	r2, r7, r1, lsr sp
 4f4:	692d6f69 	pushvs	{r0, r3, r5, r6, r8, r9, sl, fp, sp, lr}
 4f8:	652d746e 	strvs	r7, [sp, #-1134]!	; 0x46e
 4fc:	00632e78 	rsbeq	r2, r3, r8, ror lr
 500:	665f7163 	ldrbvs	r7, [pc], -r3, ror #2
 504:	006c6c75 	rsbeq	r6, ip, r5, ror ip
 508:	5f6d7261 	svcpl	0x006d7261
 50c:	656d6974 	strbvs	r6, [sp, #-2420]!	; 0x974
 510:	72465f72 	subvc	r5, r6, #456	; 0x1c8
 514:	75526565 	ldrbvc	r6, [r2, #-1381]	; 0x565
 518:	6e696e6e 	cdpvs	14, 6, cr6, cr9, cr14, {3}
 51c:	756f4367 	strbvc	r4, [pc, #-871]!	; 1bd <_start-0x7e43>
 520:	7265746e 	rsbvc	r7, r5, #1845493760	; 0x6e000000
 524:	5f716300 	svcpl	0x00716300
 528:	5f706f70 	svcpl	0x00706f70
 52c:	626e6f6e 	rsbvs	r6, lr, #440	; 0x1b8
 530:	6b636f6c 	blvs	18dc2e8 <__bss_end__+0x18cfa30>
 534:	73552f00 	cmpvc	r5, #0, 30
 538:	2f737265 	svccs	0x00737265
 53c:	61697262 	cmnvs	r9, r2, ror #4
 540:	6e756a6e 	vsubvs.f32	s13, s10, s29
 544:	7365442f 	cmnvc	r5, #788529152	; 0x2f000000
 548:	706f746b 	rsbvc	r7, pc, fp, ror #8
 54c:	6863732f 	stmdavs	r3!, {r0, r1, r2, r3, r5, r8, r9, ip, sp, lr}^
 550:	2f6c6f6f 	svccs	0x006c6f6f
 554:	746e6957 	strbtvc	r6, [lr], #-2391	; 0x957
 558:	39317265 	ldmdbcc	r1!, {r0, r2, r5, r6, r9, ip, sp, lr}
 55c:	432f3032 	teqmi	pc, #50	; 0x32
 560:	30343153 	eorscc	r3, r4, r3, asr r1
 564:	73632f45 	cmnvc	r3, #276	; 0x114
 568:	65303431 	ldrvs	r3, [r0, #-1073]!	; 0x431
 56c:	7730322d 	ldrvc	r3, [r0, -sp, lsr #4]!
 570:	6c2f6e69 	stcvs	14, cr6, [pc], #-420	; 3d4 <_start-0x7c2c>
 574:	69706269 	ldmdbvs	r0!, {r0, r3, r5, r6, r9, sp, lr}^
 578:	5f716300 	svcpl	0x00716300
 57c:	5f706f70 	svcpl	0x00706f70
 580:	6f6e5f6e 	svcvs	0x006e5f6e
 584:	006b6c62 	rsbeq	r6, fp, r2, ror #24
 588:	657a6973 	ldrbvs	r6, [sl, #-2419]!	; 0x973
 58c:	6300745f 	movwvs	r7, #1119	; 0x45f
 590:	65705f71 	ldrbvs	r5, [r0, #-3953]!	; 0xf71
 594:	6e5f6b65 	vnmlavs.f64	d22, d15, d21
 598:	6d656d00 	stclvs	13, cr6, [r5, #-0]
 59c:	00746573 	rsbseq	r6, r4, r3, ror r5
 5a0:	705f7163 	subsvc	r7, pc, r3, ror #2
 5a4:	5f687375 	svcpl	0x00687375
 5a8:	7163006e 	cmnvc	r3, lr, rrx
 5ac:	70736e5f 	rsbsvc	r6, r3, pc, asr lr
 5b0:	00656361 	rsbeq	r6, r5, r1, ror #6
 5b4:	705f7163 	subsvc	r7, pc, r3, ror #2
 5b8:	6e5f706f 	cdpvs	0, 5, cr7, cr15, cr15, {3}
 5bc:	62696c00 	rsbvs	r6, r9, #0, 24
 5c0:	69632f63 	stmdbvs	r3!, {r0, r1, r5, r6, r8, r9, sl, fp, sp}^
 5c4:	6c756372 	ldclvs	3, cr6, [r5], #-456	; 0xfffffe38
 5c8:	632e7261 	teqvs	lr, #268435462	; 0x10000006
 5cc:	5f716300 	svcpl	0x00716300
 5d0:	656c656e 	strbvs	r6, [ip, #-1390]!	; 0x56e
 5d4:	7163006d 	cmnvc	r3, sp, rrx
 5d8:	6972705f 	ldmdbvs	r2!, {r0, r1, r2, r3, r4, r6, ip, sp, lr}^
 5dc:	6300746e 	movwvs	r7, #1134	; 0x46e
 5e0:	6b6f5f71 	blvs	1bd83ac <__bss_end__+0x1bcbaf4>
 5e4:	62696c00 	rsbvs	r6, r9, #0, 24
 5e8:	656d2f63 	strbvs	r2, [sp, #-3939]!	; 0xf63
 5ec:	7465736d 	strbtvc	r7, [r5], #-877	; 0x36d
 5f0:	6c00632e 	stcvs	3, cr6, [r0], {46}	; 0x2e
 5f4:	2f636269 	svccs	0x00636269
 5f8:	6e697270 	mcrvs	2, 3, r7, cr9, cr0, {3}
 5fc:	632e6b74 	teqvs	lr, #116, 22	; 0x1d000
 600:	62696c00 	rsbvs	r6, r9, #0, 24
 604:	75702f63 	ldrbvc	r2, [r0, #-3939]!	; 0xf63
 608:	632e6b74 	teqvs	lr, #116, 22	; 0x1d000
 60c:	746e6900 	strbtvc	r6, [lr], #-2304	; 0x900
 610:	616e7265 	cmnvs	lr, r5, ror #4
 614:	75705f6c 	ldrbvc	r5, [r0, #-3948]!	; 0xf6c
 618:	72006b74 	andvc	r6, r0, #116, 22	; 0x1d000
 61c:	705f6970 	subsvc	r6, pc, r0, ror r9	; <UNPREDICTABLE>
 620:	68637475 	stmdavs	r3!, {r0, r2, r4, r5, r6, sl, ip, sp, lr}^
 624:	6e007261 	cdpvs	2, 0, cr7, cr0, cr1, {3}
 628:	705f6765 	subsvc	r6, pc, r5, ror #14
 62c:	76657200 	strbtvc	r7, [r5], -r0, lsl #4
 630:	65737265 	ldrbvs	r7, [r3, #-613]!	; 0x265
 634:	64736900 	ldrbtvs	r6, [r3], #-2304	; 0x900
 638:	74696769 	strbtvc	r6, [r9], #-1897	; 0x769
 63c:	74757000 	ldrbtvc	r7, [r5], #-0
 640:	70665f73 	rsbvc	r5, r6, r3, ror pc
 644:	73616200 	cmnvc	r1, #0, 4
 648:	69730065 	ldmdbvs	r3!, {r0, r2, r5, r6}^
 64c:	64656e67 	strbtvs	r6, [r5], #-3687	; 0xe67
 650:	6c00705f 	stcvs	0, cr7, [r0], {95}	; 0x5f
 654:	2f636269 	svccs	0x00636269
 658:	702d6176 	eorvc	r6, sp, r6, ror r1
 65c:	746e6972 	strbtvc	r6, [lr], #-2418	; 0x972
 660:	00632e6b 	rsbeq	r2, r3, fp, ror #28
 664:	5f697072 	svcpl	0x00697072
 668:	5f746573 	svcpl	0x00746573
 66c:	7074756f 	rsbsvc	r7, r4, pc, ror #10
 670:	77007475 	smlsdxvc	r0, r5, r4, r7
 674:	68746469 	ldmdavs	r4!, {r0, r3, r5, r6, sl, sp, lr}^
 678:	74757000 	ldrbtvc	r7, [r5], #-0
 67c:	70665f63 	rsbvc	r5, r6, r3, ror #30
 680:	696d6500 	stmdbvs	sp!, {r8, sl, sp, lr}^
 684:	69640074 	stmdbvs	r4!, {r2, r4, r5, r6}^
 688:	6c626173 	stfvse	f6, [r2], #-460	; 0xfffffe34
 68c:	61635f65 	cmnvs	r3, r5, ror #30
 690:	00656863 	rsbeq	r6, r5, r3, ror #16
 694:	34317363 	ldrtcc	r7, [r1], #-867	; 0x363
 698:	732d6530 	teqvc	sp, #48, 10	; 0xc000000
 69c:	632f6372 	teqvs	pc, #-939524095	; 0xc8000001
 6a0:	65686361 	strbvs	r6, [r8, #-865]!	; 0x361
 6a4:	7200632e 	andvc	r6, r0, #-1207959552	; 0xb8000000
 6a8:	725f6970 	subsvc	r6, pc, #112, 18	; 0x1c0000
 6ac:	6f6f6265 	svcvs	0x006f6265
 6b0:	73630074 	cmnvc	r3, #116	; 0x74
 6b4:	65303431 	ldrvs	r3, [r0, #-1073]!	; 0x431
 6b8:	6372732d 	cmnvs	r2, #-1275068416	; 0xb4000000
 6bc:	656c632f 	strbvs	r6, [ip, #-815]!	; 0x32f
 6c0:	722d6e61 	eorvc	r6, sp, #1552	; 0x610
 6c4:	6f6f6265 	svcvs	0x006f6265
 6c8:	00632e74 	rsbeq	r2, r3, r4, ror lr
 6cc:	616c6564 	cmnvs	ip, r4, ror #10
 6d0:	736d5f79 	cmnvc	sp, #484	; 0x1e4
 6d4:	31736300 	cmncc	r3, r0, lsl #6
 6d8:	2d653034 	stclcs	0, cr3, [r5, #-208]!	; 0xffffff30
 6dc:	2f637273 	svccs	0x00637273
 6e0:	61747363 	cmnvs	r4, r3, ror #6
 6e4:	632e7472 	teqvs	lr, #1912602624	; 0x72000000
 6e8:	625f5f00 	subsvs	r5, pc, #0, 30
 6ec:	735f7373 	cmpvc	pc, #-872415231	; 0xcc000001
 6f0:	74726174 	ldrbtvc	r6, [r2], #-372	; 0x174
 6f4:	5f005f5f 	svcpl	0x00005f5f
 6f8:	7373625f 	cmnvc	r3, #-268435451	; 0xf0000005
 6fc:	646e655f 	strbtvs	r6, [lr], #-1375	; 0x55f
 700:	62005f5f 	andvs	r5, r0, #380	; 0x17c
 704:	655f7373 	ldrbvs	r7, [pc, #-883]	; 399 <_start-0x7c67>
 708:	5f00646e 	svcpl	0x0000646e
 70c:	61747363 	cmnvs	r4, r3, ror #6
 710:	61007472 	tstvs	r0, r2, ror r4
 714:	73755f74 	cmnvc	r5, #116, 30	; 0x1d0
 718:	6c5f7265 	lfmvs	f7, 2, [pc], {101}	; 0x65
 71c:	6c657665 	stclvs	6, cr7, [r5], #-404	; 0xfffffe6c
 720:	5f4d5000 	svcpl	0x004d5000
 724:	53534150 	cmppl	r3, #80, 2
 728:	44524f57 	ldrbmi	r4, [r2], #-3927	; 0xf57
 72c:	31736300 	cmncc	r3, r0, lsl #6
 730:	2d653034 	stclcs	0, cr3, [r5, #-208]!	; 0xffffff30
 734:	2f637273 	svccs	0x00637273
 738:	6f626572 	svcvs	0x00626572
 73c:	632e746f 	teqvs	lr, #1862270976	; 0x6f000000
 740:	5f4d5000 	svcpl	0x004d5000
 744:	43545352 	cmpmi	r4, #1207959553	; 0x48000001
 748:	4352575f 	cmpmi	r2, #24903680	; 0x17c0000
 74c:	465f4746 	ldrbmi	r4, [pc], -r6, asr #14
 750:	5f4c4c55 	svcpl	0x004c4c55
 754:	45534552 	ldrbmi	r4, [r3, #-1362]	; 0x552
 758:	4d500054 	ldclmi	0, cr0, [r0, #-336]	; 0xfffffeb0
 75c:	4f44575f 	svcmi	0x0044575f
 760:	65730047 	ldrbvs	r0, [r3, #-71]!	; 0x47
 764:	73755f74 	cmnvc	r5, #116, 30	; 0x1d0
 768:	6c5f7265 	lfmvs	f7, 2, [pc], {101}	; 0x65
 76c:	6c657665 	stclvs	6, cr7, [r5], #-404	; 0xfffffe6c
 770:	54555000 	ldrbpl	r5, [r5], #-0
 774:	50003233 	andpl	r3, r0, r3, lsr r2
 778:	53525f4d 	cmppl	r2, #308	; 0x134
 77c:	63004354 	movwvs	r4, #852	; 0x354
 780:	00727370 	rsbseq	r7, r2, r0, ror r3
 784:	616c6564 	cmnvs	ip, r4, ror #10
 788:	65735f79 	ldrbvs	r5, [r3, #-3961]!	; 0xf79
 78c:	73630063 	cmnvc	r3, #99	; 0x63
 790:	65303431 	ldrvs	r3, [r0, #-1073]!	; 0x431
 794:	6372732d 	cmnvs	r2, #-1275068416	; 0xb4000000
 798:	6d69742f 	cfstrdvs	mvd7, [r9, #-188]!	; 0xffffff44
 79c:	632e7265 	teqvs	lr, #1342177286	; 0x50000006
 7a0:	54454700 	strbpl	r4, [r5], #-1792	; 0x700
 7a4:	74003233 	strvc	r3, [r0], #-563	; 0x233
 7a8:	736b6369 	cmnvc	fp, #-1543503871	; 0xa4000001
 7ac:	6c656400 	cfstrdvs	mvd6, [r5], #-0
 7b0:	635f7961 	cmpvs	pc, #1589248	; 0x184000
 7b4:	656c6379 	strbvs	r6, [ip, #-889]!	; 0x379
 7b8:	65640073 	strbvs	r0, [r4, #-115]!	; 0x73
 7bc:	5f79616c 	svcpl	0x0079616c
 7c0:	74007375 	strvc	r7, [r0], #-885	; 0x375
 7c4:	72656d69 	rsbvc	r6, r5, #6720	; 0x1a40
 7c8:	7465675f 	strbtvc	r6, [r5], #-1887	; 0x75f
 7cc:	6573755f 	ldrbvs	r7, [r3, #-1375]!	; 0x55f
 7d0:	70670063 	rsbvc	r0, r7, r3, rrx
 7d4:	655f6f69 	ldrbvs	r6, [pc, #-3945]	; fffff873 <__bss_end__+0xffff2fbb>
 7d8:	746e6576 	strbtvc	r6, [lr], #-1398	; 0x576
 7dc:	7465645f 	strbtvc	r6, [r5], #-1119	; 0x45f
 7e0:	65746365 	ldrbvs	r6, [r4, #-869]!	; 0x365
 7e4:	75700064 	ldrbvc	r0, [r0, #-100]!	; 0x64
 7e8:	00323374 	eorseq	r3, r2, r4, ror r3
 7ec:	53465047 	movtpl	r5, #24647	; 0x6047
 7f0:	00324c45 	eorseq	r4, r2, r5, asr #24
 7f4:	4c435047 	mcrrmi	0, 4, r5, r3, cr7
 7f8:	45003052 	strmi	r3, [r0, #-82]	; 0x52
 7fc:	4c42414e 	stfmie	f4, [r2], {78}	; 0x4e
 800:	52495f45 	subpl	r5, r9, #276	; 0x114
 804:	325f5351 	subscc	r5, pc, #1140850689	; 0x44000001
 808:	49504700 	ldmdbmi	r0, {r8, r9, sl, lr}^
 80c:	55465f4f 	strbpl	r5, [r6, #-3919]	; 0xf4f
 810:	495f434e 	ldmdbmi	pc, {r1, r2, r3, r6, r8, r9, lr}^	; <UNPREDICTABLE>
 814:	5455504e 	ldrbpl	r5, [r5], #-78	; 0x4e
 818:	69706700 	ldmdbvs	r0!, {r8, r9, sl, sp, lr}^
 81c:	65735f6f 	ldrbvs	r5, [r3, #-3951]!	; 0xf6f
 820:	666f5f74 	uqsub16vs	r5, pc, r4	; <UNPREDICTABLE>
 824:	6e690066 	cdpvs	0, 6, cr0, cr9, cr6, {3}
 828:	616d5f74 	smcvs	54772	; 0xd5f4
 82c:	47006b73 	smlsdxmi	r0, r3, fp, r6
 830:	54455350 	strbpl	r5, [r5], #-848	; 0x350
 834:	50470030 	subpl	r0, r7, r0, lsr r0
 838:	31544553 	cmpcc	r4, r3, asr r5
 83c:	67657200 	strbvs	r7, [r5, -r0, lsl #4]!
 840:	6174735f 	cmnvs	r4, pc, asr r3
 844:	50470074 	subpl	r0, r7, r4, ror r0
 848:	3056454c 	subscc	r4, r6, ip, asr #10
 84c:	4c504700 	mrrcmi	7, 0, r4, r0, cr0
 850:	00315645 	eorseq	r5, r1, r5, asr #12
 854:	6f697067 	svcvs	0x00697067
 858:	6765725f 			; <UNDEFINED> instruction: 0x6765725f
 85c:	69706700 	ldmdbvs	r0!, {r8, r9, sl, sp, lr}^
 860:	00632e6f 	rsbeq	r2, r3, pc, ror #28
 864:	53465047 	movtpl	r5, #24647	; 0x6047
 868:	00304c45 	eorseq	r4, r0, r5, asr #24
 86c:	53465047 	movtpl	r5, #24647	; 0x6047
 870:	00314c45 	eorseq	r4, r1, r5, asr #24
 874:	53465047 	movtpl	r5, #24647	; 0x6047
 878:	00334c45 	eorseq	r4, r3, r5, asr #24
 87c:	53465047 	movtpl	r5, #24647	; 0x6047
 880:	00344c45 	eorseq	r4, r4, r5, asr #24
 884:	53465047 	movtpl	r5, #24647	; 0x6047
 888:	00354c45 	eorseq	r4, r5, r5, asr #24
 88c:	5f766564 	svcpl	0x00766564
 890:	72726162 	rsbsvc	r6, r2, #-2147483624	; 0x80000018
 894:	00726569 	rsbseq	r6, r2, r9, ror #10
 898:	6f697067 	svcvs	0x00697067
 89c:	6573665f 	ldrbvs	r6, [r3, #-1631]!	; 0x65f
 8a0:	4700306c 	strmi	r3, [r0, -ip, rrx]
 8a4:	524c4350 	subpl	r4, ip, #80, 6	; 0x40000001
 8a8:	70670031 	rsbvc	r0, r7, r1, lsr r0
 8ac:	695f6f69 	ldmdbvs	pc, {r0, r3, r5, r6, r8, r9, sl, fp, sp, lr}^	; <UNPREDICTABLE>
 8b0:	725f746e 	subsvc	r7, pc, #1845493760	; 0x6e000000
 8b4:	6e697369 	cdpvs	3, 6, cr7, cr9, cr9, {3}
 8b8:	64655f67 	strbtvs	r5, [r5], #-3943	; 0xf67
 8bc:	67006567 	strvs	r6, [r0, -r7, ror #10]
 8c0:	5f6f6970 	svcpl	0x006f6970
 8c4:	5f746573 	svcpl	0x00746573
 8c8:	636e7566 	cmnvs	lr, #427819008	; 0x19800000
 8cc:	6e6f6974 	mcrvs	9, 3, r6, cr15, cr4, {3}
 8d0:	52504700 	subspl	r4, r0, #0, 14
 8d4:	00304e45 	eorseq	r4, r0, r5, asr #28
 8d8:	45525047 	ldrbmi	r5, [r2, #-71]	; 0x47
 8dc:	4900314e 	stmdbmi	r0, {r1, r2, r3, r6, r8, ip, sp}
 8e0:	505f5152 	subspl	r5, pc, r2, asr r1	; <UNPREDICTABLE>
 8e4:	49444e45 	stmdbmi	r4, {r0, r2, r6, r9, sl, fp, lr}^
 8e8:	315f474e 	cmpcc	pc, lr, asr #14
 8ec:	51524900 	cmppl	r2, r0, lsl #18
 8f0:	4e45505f 	mcrmi	0, 2, r5, cr5, cr15, {2}
 8f4:	474e4944 	strbmi	r4, [lr, -r4, asr #18]
 8f8:	6200325f 	andvs	r3, r0, #-268435451	; 0xf0000005
 8fc:	616d7469 	cmnvs	sp, r9, ror #8
 900:	67006b73 	smlsdxvs	r0, r3, fp, r6
 904:	5f6f6970 	svcpl	0x006f6970
 908:	30746573 	rsbscc	r6, r4, r3, ror r5
 90c:	6e756600 	cdpvs	6, 7, cr6, cr5, cr0, {0}
 910:	50470063 	subpl	r0, r7, r3, rrx
 914:	30534445 	subscc	r4, r3, r5, asr #8
 918:	45504700 	ldrbmi	r4, [r0, #-1792]	; 0x700
 91c:	00315344 	eorseq	r5, r1, r4, asr #6
 920:	6f697067 	svcvs	0x00697067
 924:	7465735f 	strbtvc	r7, [r5], #-863	; 0x35f
 928:	006e6f5f 	rsbeq	r6, lr, pc, asr pc
 92c:	45465047 	strbmi	r5, [r6, #-71]	; 0x47
 930:	4700304e 	strmi	r3, [r0, -lr, asr #32]
 934:	4e454650 	mcrmi	6, 2, r4, cr5, cr0, {2}
 938:	50470031 	subpl	r0, r7, r1, lsr r0
 93c:	465f4f49 	ldrbmi	r4, [pc], -r9, asr #30
 940:	5f434e55 	svcpl	0x00434e55
 944:	5054554f 	subspl	r5, r4, pc, asr #10
 948:	67005455 	smlsdvs	r0, r5, r4, r5
 94c:	32337465 	eorscc	r7, r3, #1694498816	; 0x65000000
 950:	69706700 	ldmdbvs	r0!, {r8, r9, sl, sp, lr}^
 954:	75665f6f 	strbvc	r5, [r6, #-3951]!	; 0xf6f
 958:	745f636e 	ldrbvc	r6, [pc], #-878	; 960 <_start-0x76a0>
 95c:	49504700 	ldmdbmi	r0, {r8, r9, sl, lr}^
 960:	55465f4f 	strbpl	r5, [r6, #-3919]	; 0xf4f
 964:	415f434e 	cmpmi	pc, lr, asr #6
 968:	0030544c 	eorseq	r5, r0, ip, asr #8
 96c:	4f495047 	svcmi	0x00495047
 970:	4e55465f 	mrcmi	6, 2, r4, cr5, cr15, {2}
 974:	4c415f43 	mcrrmi	15, 4, r5, r1, cr3
 978:	47003154 	smlsdmi	r0, r4, r1, r3
 97c:	5f4f4950 	svcpl	0x004f4950
 980:	434e5546 	movtmi	r5, #58694	; 0xe546
 984:	544c415f 	strbpl	r4, [ip], #-351	; 0x15f
 988:	50470032 	subpl	r0, r7, r2, lsr r0
 98c:	465f4f49 	ldrbmi	r4, [pc], -r9, asr #30
 990:	5f434e55 	svcpl	0x00434e55
 994:	33544c41 	cmpcc	r4, #16640	; 0x4100
 998:	49504700 	ldmdbmi	r0, {r8, r9, sl, lr}^
 99c:	55465f4f 	strbpl	r5, [r6, #-3919]	; 0xf4f
 9a0:	415f434e 	cmpmi	pc, lr, asr #6
 9a4:	0034544c 	eorseq	r5, r4, ip, asr #8
 9a8:	4f495047 	svcmi	0x00495047
 9ac:	4e55465f 	mrcmi	6, 2, r4, cr5, cr15, {2}
 9b0:	4c415f43 	mcrrmi	15, 4, r5, r1, cr3
 9b4:	72003554 	andvc	r3, r0, #84, 10	; 0x15000000
 9b8:	735f6765 	cmpvc	pc, #26476544	; 0x1940000
 9bc:	63656c65 	cmnvs	r5, #25856	; 0x6500
 9c0:	70670074 	rsbvc	r0, r7, r4, ror r0
 9c4:	635f6f69 	cmpvs	pc, #420	; 0x1a4
 9c8:	0030726c 	eorseq	r7, r0, ip, ror #4
 9cc:	66657270 			; <UNDEFINED> instruction: 0x66657270
 9d0:	68637465 	stmdavs	r3!, {r0, r2, r5, r6, sl, ip, sp, lr}^
 9d4:	6f62615f 	svcvs	0x0062615f
 9d8:	765f7472 			; <UNDEFINED> instruction: 0x765f7472
 9dc:	6f746365 	svcvs	0x00746365
 9e0:	69440072 	stmdbvs	r4, {r1, r4, r5, r6}^
 9e4:	6c626173 	stfvse	f6, [r2], #-460	; 0xfffffe34
 9e8:	61425f65 	cmpvs	r2, r5, ror #30
 9ec:	5f636973 	svcpl	0x00636973
 9f0:	73515249 	cmpvc	r1, #-1879048188	; 0x90000004
 9f4:	51494600 	cmppl	r9, r0, lsl #12
 9f8:	6e6f635f 	mcrvs	3, 3, r6, cr15, cr15, {2}
 9fc:	6c6f7274 	sfmvs	f7, 2, [pc], #-464	; 834 <_start-0x77cc>
 a00:	6e695f00 	cdpvs	15, 6, cr5, cr9, cr0, {0}
 a04:	72726574 	rsbsvc	r6, r2, #116, 10	; 0x1d000000
 a08:	5f747075 	svcpl	0x00747075
 a0c:	6c626174 	stfvse	f6, [r2], #-464	; 0xfffffe30
 a10:	52490065 	subpl	r0, r9, #101	; 0x65
 a14:	61625f51 	cmnvs	r2, r1, asr pc
 a18:	5f636973 	svcpl	0x00636973
 a1c:	646e6570 	strbtvs	r6, [lr], #-1392	; 0x570
 a20:	00676e69 	rsbeq	r6, r7, r9, ror #28
 a24:	62616e45 	rsbvs	r6, r1, #1104	; 0x450
 a28:	425f656c 	subsmi	r6, pc, #108, 10	; 0x1b000000
 a2c:	63697361 	cmnvs	r9, #-2080374783	; 0x84000001
 a30:	5152495f 	cmppl	r2, pc, asr r9
 a34:	6e450073 	mcrvs	0, 2, r0, cr5, cr3, {3}
 a38:	656c6261 	strbvs	r6, [ip, #-609]!	; 0x261
 a3c:	5152495f 	cmppl	r2, pc, asr r9
 a40:	00315f73 	eorseq	r5, r1, r3, ror pc
 a44:	62616e45 	rsbvs	r6, r1, #1104	; 0x450
 a48:	495f656c 	ldmdbmi	pc, {r2, r3, r5, r6, r8, sl, sp, lr}^	; <UNPREDICTABLE>
 a4c:	5f735152 	svcpl	0x00735152
 a50:	695f0032 	ldmdbvs	pc, {r1, r4, r5}^	; <UNPREDICTABLE>
 a54:	7265746e 	rsbvc	r7, r5, #1845493760	; 0x6e000000
 a58:	74707572 	ldrbtvc	r7, [r0], #-1394	; 0x572
 a5c:	6261745f 	rsbvs	r7, r1, #1593835520	; 0x5f000000
 a60:	655f656c 	ldrbvs	r6, [pc, #-1388]	; 4fc <_start-0x7b04>
 a64:	6400646e 	strvs	r6, [r0], #-1134	; 0x46e
 a68:	5f617461 	svcpl	0x00617461
 a6c:	726f6261 	rsbvc	r6, pc, #268435462	; 0x10000006
 a70:	65765f74 	ldrbvs	r5, [r6, #-3956]!	; 0xf74
 a74:	726f7463 	rsbvc	r7, pc, #1660944384	; 0x63000000
 a78:	51524900 	cmppl	r2, r0, lsl #18
 a7c:	6e65705f 	mcrvs	0, 3, r7, cr5, cr15, {2}
 a80:	676e6964 	strbvs	r6, [lr, -r4, ror #18]!
 a84:	6300325f 	movwvs	r3, #607	; 0x25f
 a88:	30343173 	eorscc	r3, r4, r3, ror r1
 a8c:	6e692d65 	cdpvs	13, 6, cr2, cr9, cr5, {3}
 a90:	72726574 	rsbsvc	r6, r2, #116, 10	; 0x1d000000
 a94:	2f747075 	svccs	0x00747075
 a98:	65746e69 	ldrbvs	r6, [r4, #-3689]!	; 0xe69
 a9c:	70757272 	rsbsvc	r7, r5, r2, ror r2
 aa0:	632d7374 	teqvs	sp, #116, 6	; 0xd0000001
 aa4:	4900632e 	stmdbmi	r0, {r1, r2, r3, r5, r8, r9, sp, lr}
 aa8:	705f5152 	subsvc	r5, pc, r2, asr r1	; <UNPREDICTABLE>
 aac:	69646e65 	stmdbvs	r4!, {r0, r2, r5, r6, r9, sl, fp, sp, lr}^
 ab0:	315f676e 	cmpcc	pc, lr, ror #14
 ab4:	646e7500 	strbtvs	r7, [lr], #-1280	; 0x500
 ab8:	6e696665 	cdpvs	6, 6, cr6, cr9, cr5, {3}
 abc:	695f6465 	ldmdbvs	pc, {r0, r2, r5, r6, sl, sp, lr}^	; <UNPREDICTABLE>
 ac0:	7274736e 	rsbsvc	r7, r4, #-1207959551	; 0xb8000001
 ac4:	69746375 	ldmdbvs	r4!, {r0, r2, r4, r5, r6, r8, r9, sp, lr}^
 ac8:	765f6e6f 	ldrbvc	r6, [pc], -pc, ror #28
 acc:	6f746365 	svcvs	0x00746365
 ad0:	65720072 	ldrbvs	r0, [r2, #-114]!	; 0x72
 ad4:	5f746573 	svcpl	0x00746573
 ad8:	74636576 	strbtvc	r6, [r3], #-1398	; 0x576
 adc:	7300726f 	movwvc	r7, #623	; 0x26f
 ae0:	7774666f 	ldrbvc	r6, [r4, -pc, ror #12]!
 ae4:	5f657261 	svcpl	0x00657261
 ae8:	65746e69 	ldrbvs	r6, [r4, #-3689]!	; 0xe69
 aec:	70757272 	rsbsvc	r7, r5, r2, ror r2
 af0:	65765f74 	ldrbvs	r5, [r6, #-3956]!	; 0xf74
 af4:	726f7463 	rsbvc	r7, pc, #1660944384	; 0x63000000
 af8:	73694400 	cmnvc	r9, #0, 8
 afc:	656c6261 	strbvs	r6, [ip, #-609]!	; 0x261
 b00:	5152495f 	cmppl	r2, pc, asr r9
 b04:	00315f73 	eorseq	r5, r1, r3, ror pc
 b08:	61736944 	cmnvs	r3, r4, asr #18
 b0c:	5f656c62 	svcpl	0x00656c62
 b10:	73515249 	cmpvc	r1, #-1879048188	; 0x90000004
 b14:	6600325f 			; <UNDEFINED> instruction: 0x6600325f
 b18:	5f747361 	svcpl	0x00747361
 b1c:	65746e69 	ldrbvs	r6, [r4, #-3689]!	; 0xe69
 b20:	70757272 	rsbsvc	r7, r5, r2, ror r2
 b24:	65765f74 	ldrbvs	r5, [r6, #-3956]!	; 0xf74
 b28:	726f7463 	rsbvc	r7, pc, #1660944384	; 0x63000000
 b2c:	51524900 	cmppl	r2, r0, lsl #18
 b30:	7361425f 	cmnvc	r1, #-268435451	; 0xf0000005
 b34:	55410065 	strbpl	r0, [r1, #-101]	; 0x65
 b38:	554d5f58 	strbpl	r5, [sp, #-3928]	; 0xf58
 b3c:	52434d5f 	subpl	r4, r3, #6080	; 0x17c0
 b40:	4745525f 	smlsldmi	r5, r5, pc, r2	; <UNPREDICTABLE>
 b44:	58554100 	ldmdapl	r5, {r8, lr}^
 b48:	5f554d5f 	svcpl	0x00554d5f
 b4c:	525f4f49 	subspl	r4, pc, #292	; 0x124
 b50:	41004745 	tstmi	r0, r5, asr #14
 b54:	4d5f5855 	ldclmi	8, cr5, [pc, #-340]	; a08 <_start-0x75f8>
 b58:	534d5f55 	movtpl	r5, #57173	; 0xdf55
 b5c:	45525f52 	ldrbmi	r5, [r2, #-3922]	; 0xf52
 b60:	61750047 	cmnvs	r5, r7, asr #32
 b64:	635f7472 	cmpvs	pc, #1912602624	; 0x72000000
 b68:	675f6e61 	ldrbvs	r6, [pc, -r1, ror #28]
 b6c:	00637465 	rsbeq	r7, r3, r5, ror #8
 b70:	5f585541 	svcpl	0x00585541
 b74:	435f554d 	cmpmi	pc, #322961408	; 0x13400000
 b78:	5f4c544e 	svcpl	0x004c544e
 b7c:	00474552 	subeq	r4, r7, r2, asr r5
 b80:	74726175 	ldrbtvc	r6, [r2], #-373	; 0x175
 b84:	7361685f 	cmnvc	r1, #6225920	; 0x5f0000
 b88:	7461645f 	strbtvc	r6, [r1], #-1119	; 0x45f
 b8c:	61750061 	cmnvs	r5, r1, rrx
 b90:	632e7472 	teqvs	lr, #1912602624	; 0x72000000
 b94:	58554100 	ldmdapl	r5, {r8, lr}^
 b98:	5f554d5f 	svcpl	0x00554d5f
 b9c:	5f524549 	svcpl	0x00524549
 ba0:	00474552 	subeq	r4, r7, r2, asr r5
 ba4:	5f585541 	svcpl	0x00585541
 ba8:	495f554d 	ldmdbmi	pc, {r0, r2, r3, r6, r8, sl, ip, lr}^	; <UNPREDICTABLE>
 bac:	525f5249 	subspl	r5, pc, #-1879048188	; 0x90000004
 bb0:	75004745 	strvc	r4, [r0, #-1861]	; 0x745
 bb4:	5f747261 	svcpl	0x00747261
 bb8:	5f6e6163 	svcpl	0x006e6163
 bbc:	63747570 	cmnvs	r4, #112, 10	; 0x1c000000
 bc0:	58554100 	ldmdapl	r5, {r8, lr}^
 bc4:	414e455f 	cmpmi	lr, pc, asr r5
 bc8:	53454c42 	movtpl	r4, #23618	; 0x5c42
 bcc:	58554100 	ldmdapl	r5, {r8, lr}^
 bd0:	5152495f 	cmppl	r2, pc, asr r9
 bd4:	58554100 	ldmdapl	r5, {r8, lr}^
 bd8:	5f554d5f 	svcpl	0x00554d5f
 bdc:	44554142 	ldrbmi	r4, [r5], #-322	; 0x142
 be0:	4745525f 	smlsldmi	r5, r5, pc, r2	; <UNPREDICTABLE>
 be4:	58554100 	ldmdapl	r5, {r8, lr}^
 be8:	5f554d5f 	svcpl	0x00554d5f
 bec:	54415453 	strbpl	r5, [r1], #-1107	; 0x453
 bf0:	4745525f 	smlsldmi	r5, r5, pc, r2	; <UNPREDICTABLE>
 bf4:	58554100 	ldmdapl	r5, {r8, lr}^
 bf8:	5f554d5f 	svcpl	0x00554d5f
 bfc:	41524353 	cmpmi	r2, r3, asr r3
 c00:	00484354 	subeq	r4, r8, r4, asr r3
 c04:	5f585541 	svcpl	0x00585541
 c08:	4c5f554d 	cfldr64mi	mvdx5, [pc], {77}	; 0x4d
 c0c:	525f5243 	subspl	r5, pc, #805306372	; 0x30000004
 c10:	41004745 	tstmi	r0, r5, asr #14
 c14:	4d5f5855 	ldclmi	8, cr5, [pc, #-340]	; ac8 <_start-0x7538>
 c18:	534c5f55 	movtpl	r5, #53077	; 0xcf55
 c1c:	45525f52 	ldrbmi	r5, [r2, #-3922]	; 0xf52
 c20:	61750047 	cmnvs	r5, r7, asr #32
 c24:	675f7472 			; <UNDEFINED> instruction: 0x675f7472
 c28:	5f637465 	svcpl	0x00637465
 c2c:	6e797361 	cdpvs	3, 7, cr7, cr9, cr1, {3}
 c30:	6e690063 	cdpvs	0, 6, cr0, cr9, cr3, {3}
 c34:	6e726574 	mrcvs	5, 3, r6, cr2, cr4, {3}
 c38:	705f6c61 	subsvc	r6, pc, r1, ror #24
 c3c:	68637475 	stmdavs	r3!, {r0, r2, r4, r5, r6, sl, ip, sp, lr}^
 c40:	6c007261 	sfmvs	f7, 4, [r0], {97}	; 0x61
 c44:	2f636269 	svccs	0x00636269
 c48:	63747570 	cmnvs	r4, #112, 10	; 0x1c000000
 c4c:	2e726168 	rpwcssz	f6, f2, #0.0
 c50:	Address 0x0000000000000c50 is out of bounds.


Disassembly of section .debug_frame:

00000000 <.debug_frame>:
   0:	0000000c 	andeq	r0, r0, ip
   4:	ffffffff 			; <UNDEFINED> instruction: 0xffffffff
   8:	7c020001 	stcvc	0, cr0, [r2], {1}
   c:	000d0c0e 	andeq	r0, sp, lr, lsl #24
  10:	0000001c 	andeq	r0, r0, ip, lsl r0
  14:	00000000 	andeq	r0, r0, r0
  18:	00008010 	andeq	r8, r0, r0, lsl r0
  1c:	00000174 	andeq	r0, r0, r4, ror r1
  20:	84180e42 	ldrhi	r0, [r8], #-3650	; 0xe42
  24:	86058506 	strhi	r8, [r5], -r6, lsl #10
  28:	88038704 	stmdahi	r3, {r2, r8, r9, sl, pc}
  2c:	00018e02 	andeq	r8, r1, r2, lsl #28
  30:	00000020 	andeq	r0, r0, r0, lsr #32
  34:	00000000 	andeq	r0, r0, r0
  38:	00008184 	andeq	r8, r0, r4, lsl #3
  3c:	00000180 	andeq	r0, r0, r0, lsl #3
  40:	83200e42 	teqhi	r0, #1056	; 0x420
  44:	85078408 	strhi	r8, [r7, #-1032]	; 0x408
  48:	87058606 	strhi	r8, [r5, -r6, lsl #12]
  4c:	89038804 	stmdbhi	r3, {r2, fp, pc}
  50:	00018e02 	andeq	r8, r1, r2, lsl #28
  54:	00000020 	andeq	r0, r0, r0, lsr #32
  58:	00000000 	andeq	r0, r0, r0
  5c:	00008304 	andeq	r8, r0, r4, lsl #6
  60:	0000008c 	andeq	r0, r0, ip, lsl #1
  64:	84200e42 	strthi	r0, [r0], #-3650	; 0xe42
  68:	86078508 	strhi	r8, [r7], -r8, lsl #10
  6c:	88058706 	stmdahi	r5, {r1, r2, r8, r9, sl, pc}
  70:	8a038904 	bhi	e2488 <__bss_end__+0xd5bd0>
  74:	00018e02 	andeq	r8, r1, r2, lsl #28
  78:	0000001c 	andeq	r0, r0, ip, lsl r0
  7c:	00000000 	andeq	r0, r0, r0
  80:	00008390 	muleq	r0, r0, r3
  84:	00000078 	andeq	r0, r0, r8, ror r0
  88:	84180e42 	ldrhi	r0, [r8], #-3650	; 0xe42
  8c:	86058506 	strhi	r8, [r5], -r6, lsl #10
  90:	88038704 	stmdahi	r3, {r2, r8, r9, sl, pc}
  94:	00018e02 	andeq	r8, r1, r2, lsl #28
  98:	0000001c 	andeq	r0, r0, ip, lsl r0
  9c:	00000000 	andeq	r0, r0, r0
  a0:	00008408 	andeq	r8, r0, r8, lsl #8
  a4:	000000bc 	strheq	r0, [r0], -ip
  a8:	84180e42 	ldrhi	r0, [r8], #-3650	; 0xe42
  ac:	86058506 	strhi	r8, [r5], -r6, lsl #10
  b0:	88038704 	stmdahi	r3, {r2, r8, r9, sl, pc}
  b4:	00018e02 	andeq	r8, r1, r2, lsl #28
  b8:	00000014 	andeq	r0, r0, r4, lsl r0
  bc:	00000000 	andeq	r0, r0, r0
  c0:	000084c4 	andeq	r8, r0, r4, asr #9
  c4:	00000038 	andeq	r0, r0, r8, lsr r0
  c8:	83080e42 	movwhi	r0, #36418	; 0x8e42
  cc:	00018e02 	andeq	r8, r1, r2, lsl #28
  d0:	00000018 	andeq	r0, r0, r8, lsl r0
  d4:	00000000 	andeq	r0, r0, r0
  d8:	000084fc 	strdeq	r8, [r0], -ip
  dc:	0000002c 	andeq	r0, r0, ip, lsr #32
  e0:	83100e42 	tsthi	r0, #1056	; 0x420
  e4:	85038404 	strhi	r8, [r3, #-1028]	; 0x404
  e8:	00018e02 	andeq	r8, r1, r2, lsl #28
  ec:	00000024 	andeq	r0, r0, r4, lsr #32
  f0:	00000000 	andeq	r0, r0, r0
  f4:	00008528 	andeq	r8, r0, r8, lsr #10
  f8:	00000080 	andeq	r0, r0, r0, lsl #1
  fc:	810c0e42 	tsthi	ip, r2, asr #28
 100:	83028203 	movwhi	r8, #8707	; 0x2203
 104:	180e4201 	stmdane	lr, {r0, r9, lr}
 108:	05850684 	streq	r0, [r5, #1668]	; 0x684
 10c:	0e42048e 	cdpeq	4, 4, cr0, cr2, cr14, {4}
 110:	000003e8 	andeq	r0, r0, r8, ror #7
 114:	00000014 	andeq	r0, r0, r4, lsl r0
 118:	00000000 	andeq	r0, r0, r0
 11c:	000085a8 	andeq	r8, r0, r8, lsr #11
 120:	00000048 	andeq	r0, r0, r8, asr #32
 124:	8e040e42 	cdphi	14, 0, cr0, cr4, cr2, {2}
 128:	100e4201 	andne	r4, lr, r1, lsl #4
 12c:	00000014 	andeq	r0, r0, r4, lsl r0
 130:	00000000 	andeq	r0, r0, r0
 134:	000085f0 	strdeq	r8, [r0], -r0
 138:	00000104 	andeq	r0, r0, r4, lsl #2
 13c:	84080e42 	strhi	r0, [r8], #-3650	; 0xe42
 140:	00018e02 	andeq	r8, r1, r2, lsl #28
 144:	0000001c 	andeq	r0, r0, ip, lsl r0
 148:	00000000 	andeq	r0, r0, r0
 14c:	000086f4 	strdeq	r8, [r0], -r4
 150:	00000050 	andeq	r0, r0, r0, asr r0
 154:	84180e42 	ldrhi	r0, [r8], #-3650	; 0xe42
 158:	86058506 	strhi	r8, [r5], -r6, lsl #10
 15c:	88038704 	stmdahi	r3, {r2, r8, r9, sl, pc}
 160:	00018e02 	andeq	r8, r1, r2, lsl #28
 164:	0000001c 	andeq	r0, r0, ip, lsl r0
 168:	00000000 	andeq	r0, r0, r0
 16c:	00008744 	andeq	r8, r0, r4, asr #14
 170:	000000a8 	andeq	r0, r0, r8, lsr #1
 174:	84100e42 	ldrhi	r0, [r0], #-3650	; 0xe42
 178:	86038504 	strhi	r8, [r3], -r4, lsl #10
 17c:	42018e02 	andmi	r8, r1, #2, 28
 180:	0000280e 	andeq	r2, r0, lr, lsl #16
 184:	0000000c 	andeq	r0, r0, ip
 188:	ffffffff 			; <UNDEFINED> instruction: 0xffffffff
 18c:	7c020001 	stcvc	0, cr0, [r2], {1}
 190:	000d0c0e 	andeq	r0, sp, lr, lsl #24
 194:	00000018 	andeq	r0, r0, r8, lsl r0
 198:	00000184 	andeq	r0, r0, r4, lsl #3
 19c:	000087ec 	andeq	r8, r0, ip, ror #15
 1a0:	00000080 	andeq	r0, r0, r0, lsl #1
 1a4:	84080e42 	strhi	r0, [r8], #-3650	; 0xe42
 1a8:	42018e02 	andmi	r8, r1, #2, 28
 1ac:	0000180e 	andeq	r1, r0, lr, lsl #16
 1b0:	00000014 	andeq	r0, r0, r4, lsl r0
 1b4:	00000184 	andeq	r0, r0, r4, lsl #3
 1b8:	0000886c 	andeq	r8, r0, ip, ror #16
 1bc:	00000040 	andeq	r0, r0, r0, asr #32
 1c0:	83080e42 	movwhi	r0, #36418	; 0x8e42
 1c4:	00018e02 	andeq	r8, r1, r2, lsl #28
 1c8:	00000018 	andeq	r0, r0, r8, lsl r0
 1cc:	00000184 	andeq	r0, r0, r4, lsl #3
 1d0:	000088ac 	andeq	r8, r0, ip, lsr #17
 1d4:	000001a4 	andeq	r0, r0, r4, lsr #3
 1d8:	83100e42 	tsthi	r0, #1056	; 0x420
 1dc:	85038404 	strhi	r8, [r3, #-1028]	; 0x404
 1e0:	00018e02 	andeq	r8, r1, r2, lsl #28
 1e4:	00000018 	andeq	r0, r0, r8, lsl r0
 1e8:	00000184 	andeq	r0, r0, r4, lsl #3
 1ec:	00008a50 	andeq	r8, r0, r0, asr sl
 1f0:	0000006c 	andeq	r0, r0, ip, rrx
 1f4:	840c0e42 	strhi	r0, [ip], #-3650	; 0xe42
 1f8:	86028503 	strhi	r8, [r2], -r3, lsl #10
 1fc:	00000001 	andeq	r0, r0, r1
 200:	0000001c 	andeq	r0, r0, ip, lsl r0
 204:	00000184 	andeq	r0, r0, r4, lsl #3
 208:	00008abc 			; <UNDEFINED> instruction: 0x00008abc
 20c:	00000034 	andeq	r0, r0, r4, lsr r0
 210:	83180e42 	tsthi	r8, #1056	; 0x420
 214:	85058406 	strhi	r8, [r5, #-1030]	; 0x406
 218:	87038604 	strhi	r8, [r3, -r4, lsl #12]
 21c:	00018e02 	andeq	r8, r1, r2, lsl #28
 220:	00000018 	andeq	r0, r0, r8, lsl r0
 224:	00000184 	andeq	r0, r0, r4, lsl #3
 228:	00008af0 	strdeq	r8, [r0], -r0
 22c:	00000058 	andeq	r0, r0, r8, asr r0
 230:	84100e42 	ldrhi	r0, [r0], #-3650	; 0xe42
 234:	86038504 	strhi	r8, [r3], -r4, lsl #10
 238:	00018e02 	andeq	r8, r1, r2, lsl #28
 23c:	00000018 	andeq	r0, r0, r8, lsl r0
 240:	00000184 	andeq	r0, r0, r4, lsl #3
 244:	00008b48 	andeq	r8, r0, r8, asr #22
 248:	000000a0 	andeq	r0, r0, r0, lsr #1
 24c:	84100e42 	ldrhi	r0, [r0], #-3650	; 0xe42
 250:	86038504 	strhi	r8, [r3], -r4, lsl #10
 254:	00018e02 	andeq	r8, r1, r2, lsl #28
 258:	00000020 	andeq	r0, r0, r0, lsr #32
 25c:	00000184 	andeq	r0, r0, r4, lsl #3
 260:	00008be8 	andeq	r8, r0, r8, ror #23
 264:	00000118 	andeq	r0, r0, r8, lsl r1
 268:	84200e42 	strthi	r0, [r0], #-3650	; 0xe42
 26c:	86078508 	strhi	r8, [r7], -r8, lsl #10
 270:	88058706 	stmdahi	r5, {r1, r2, r8, r9, sl, pc}
 274:	8a038904 	bhi	e268c <__bss_end__+0xd5dd4>
 278:	00018e02 	andeq	r8, r1, r2, lsl #28
 27c:	0000000c 	andeq	r0, r0, ip
 280:	ffffffff 			; <UNDEFINED> instruction: 0xffffffff
 284:	7c020001 	stcvc	0, cr0, [r2], {1}
 288:	000d0c0e 	andeq	r0, sp, lr, lsl #24
 28c:	0000000c 	andeq	r0, r0, ip
 290:	0000027c 	andeq	r0, r0, ip, ror r2
 294:	00008d00 	andeq	r8, r0, r0, lsl #26
 298:	00000020 	andeq	r0, r0, r0, lsr #32
 29c:	0000000c 	andeq	r0, r0, ip
 2a0:	ffffffff 			; <UNDEFINED> instruction: 0xffffffff
 2a4:	7c020001 	stcvc	0, cr0, [r2], {1}
 2a8:	000d0c0e 	andeq	r0, sp, lr, lsl #24
 2ac:	00000024 	andeq	r0, r0, r4, lsr #32
 2b0:	0000029c 	muleq	r0, ip, r2
 2b4:	00008d20 	andeq	r8, r0, r0, lsr #26
 2b8:	00000058 	andeq	r0, r0, r8, asr r0
 2bc:	80100e42 	andshi	r0, r0, r2, asr #28
 2c0:	82038104 	andhi	r8, r3, #4, 2
 2c4:	42018302 	andmi	r8, r1, #134217728	; 0x8000000
 2c8:	07841c0e 	streq	r1, [r4, lr, lsl #24]
 2cc:	058e0685 	streq	r0, [lr, #1669]	; 0x685
 2d0:	00280e42 	eoreq	r0, r8, r2, asr #28
 2d4:	0000000c 	andeq	r0, r0, ip
 2d8:	ffffffff 			; <UNDEFINED> instruction: 0xffffffff
 2dc:	7c020001 	stcvc	0, cr0, [r2], {1}
 2e0:	000d0c0e 	andeq	r0, sp, lr, lsl #24
 2e4:	00000018 	andeq	r0, r0, r8, lsl r0
 2e8:	000002d4 	ldrdeq	r0, [r0], -r4
 2ec:	00008d78 	andeq	r8, r0, r8, ror sp
 2f0:	00000034 	andeq	r0, r0, r4, lsr r0
 2f4:	83100e42 	tsthi	r0, #1056	; 0x420
 2f8:	85038404 	strhi	r8, [r3, #-1028]	; 0x404
 2fc:	00018e02 	andeq	r8, r1, r2, lsl #28
 300:	0000000c 	andeq	r0, r0, ip
 304:	ffffffff 			; <UNDEFINED> instruction: 0xffffffff
 308:	7c020001 	stcvc	0, cr0, [r2], {1}
 30c:	000d0c0e 	andeq	r0, sp, lr, lsl #24
 310:	0000000c 	andeq	r0, r0, ip
 314:	00000300 	andeq	r0, r0, r0, lsl #6
 318:	00008dac 	andeq	r8, r0, ip, lsr #27
 31c:	00000014 	andeq	r0, r0, r4, lsl r0
 320:	0000000c 	andeq	r0, r0, ip
 324:	00000300 	andeq	r0, r0, r0, lsl #6
 328:	00008dc0 	andeq	r8, r0, r0, asr #27
 32c:	0000002c 	andeq	r0, r0, ip, lsr #32
 330:	0000000c 	andeq	r0, r0, ip
 334:	00000300 	andeq	r0, r0, r0, lsl #6
 338:	00008dec 	andeq	r8, r0, ip, ror #27
 33c:	00000040 	andeq	r0, r0, r0, asr #32
 340:	00000020 	andeq	r0, r0, r0, lsr #32
 344:	00000300 	andeq	r0, r0, r0, lsl #6
 348:	00008e2c 	andeq	r8, r0, ip, lsr #28
 34c:	00000198 	muleq	r0, r8, r1
 350:	84180e42 	ldrhi	r0, [r8], #-3650	; 0xe42
 354:	86058506 	strhi	r8, [r5], -r6, lsl #10
 358:	88038704 	stmdahi	r3, {r2, r8, r9, sl, pc}
 35c:	42018e02 	andmi	r8, r1, #2, 28
 360:	0000580e 	andeq	r5, r0, lr, lsl #16
 364:	00000014 	andeq	r0, r0, r4, lsl r0
 368:	00000300 	andeq	r0, r0, r0, lsl #6
 36c:	00008fc4 	andeq	r8, r0, r4, asr #31
 370:	00000050 	andeq	r0, r0, r0, asr r0
 374:	83080e42 	movwhi	r0, #36418	; 0x8e42
 378:	00018e02 	andeq	r8, r1, r2, lsl #28
 37c:	00000028 	andeq	r0, r0, r8, lsr #32
 380:	00000300 	andeq	r0, r0, r0, lsl #6
 384:	00009014 	andeq	r9, r0, r4, lsl r0
 388:	00000288 	andeq	r0, r0, r8, lsl #5
 38c:	84240e42 	strthi	r0, [r4], #-3650	; 0xe42
 390:	86088509 	strhi	r8, [r8], -r9, lsl #10
 394:	88068707 	stmdahi	r6, {r0, r1, r2, r8, r9, sl, pc}
 398:	8a048905 	bhi	1227b4 <__bss_end__+0x115efc>
 39c:	8e028b03 	vmlahi.f64	d8, d2, d3
 3a0:	b00e4201 	andlt	r4, lr, r1, lsl #4
 3a4:	00000001 	andeq	r0, r0, r1
 3a8:	0000000c 	andeq	r0, r0, ip
 3ac:	ffffffff 			; <UNDEFINED> instruction: 0xffffffff
 3b0:	7c020001 	stcvc	0, cr0, [r2], {1}
 3b4:	000d0c0e 	andeq	r0, sp, lr, lsl #24
 3b8:	0000000c 	andeq	r0, r0, ip
 3bc:	000003a8 	andeq	r0, r0, r8, lsr #7
 3c0:	0000929c 	muleq	r0, ip, r2
 3c4:	00000010 	andeq	r0, r0, r0, lsl r0
 3c8:	0000000c 	andeq	r0, r0, ip
 3cc:	000003a8 	andeq	r0, r0, r8, lsr #7
 3d0:	000092ac 	andeq	r9, r0, ip, lsr #5
 3d4:	00000010 	andeq	r0, r0, r0, lsl r0
 3d8:	0000000c 	andeq	r0, r0, ip
 3dc:	ffffffff 			; <UNDEFINED> instruction: 0xffffffff
 3e0:	7c020001 	stcvc	0, cr0, [r2], {1}
 3e4:	000d0c0e 	andeq	r0, sp, lr, lsl #24
 3e8:	00000014 	andeq	r0, r0, r4, lsl r0
 3ec:	000003d8 	ldrdeq	r0, [r0], -r8
 3f0:	000092bc 			; <UNDEFINED> instruction: 0x000092bc
 3f4:	00000028 	andeq	r0, r0, r8, lsr #32
 3f8:	83080e42 	movwhi	r0, #36418	; 0x8e42
 3fc:	00018e02 	andeq	r8, r1, r2, lsl #28
 400:	0000000c 	andeq	r0, r0, ip
 404:	ffffffff 			; <UNDEFINED> instruction: 0xffffffff
 408:	7c020001 	stcvc	0, cr0, [r2], {1}
 40c:	000d0c0e 	andeq	r0, sp, lr, lsl #24
 410:	00000014 	andeq	r0, r0, r4, lsl r0
 414:	00000400 	andeq	r0, r0, r0, lsl #8
 418:	000092e4 	andeq	r9, r0, r4, ror #5
 41c:	00000034 	andeq	r0, r0, r4, lsr r0
 420:	83080e42 	movwhi	r0, #36418	; 0x8e42
 424:	00018e02 	andeq	r8, r1, r2, lsl #28
 428:	0000000c 	andeq	r0, r0, ip
 42c:	ffffffff 			; <UNDEFINED> instruction: 0xffffffff
 430:	7c020001 	stcvc	0, cr0, [r2], {1}
 434:	000d0c0e 	andeq	r0, sp, lr, lsl #24
 438:	0000000c 	andeq	r0, r0, ip
 43c:	00000428 	andeq	r0, r0, r8, lsr #8
 440:	00009318 	andeq	r9, r0, r8, lsl r3
 444:	00000018 	andeq	r0, r0, r8, lsl r0
 448:	0000000c 	andeq	r0, r0, ip
 44c:	00000428 	andeq	r0, r0, r8, lsr #8
 450:	00009330 	andeq	r9, r0, r0, lsr r3
 454:	00000014 	andeq	r0, r0, r4, lsl r0
 458:	00000014 	andeq	r0, r0, r4, lsl r0
 45c:	00000428 	andeq	r0, r0, r8, lsr #8
 460:	00009344 	andeq	r9, r0, r4, asr #6
 464:	00000048 	andeq	r0, r0, r8, asr #32
 468:	83080e42 	movwhi	r0, #36418	; 0x8e42
 46c:	00018e02 	andeq	r8, r1, r2, lsl #28
 470:	0000000c 	andeq	r0, r0, ip
 474:	ffffffff 			; <UNDEFINED> instruction: 0xffffffff
 478:	7c020001 	stcvc	0, cr0, [r2], {1}
 47c:	000d0c0e 	andeq	r0, sp, lr, lsl #24
 480:	0000000c 	andeq	r0, r0, ip
 484:	00000470 	andeq	r0, r0, r0, ror r4
 488:	0000938c 	andeq	r9, r0, ip, lsl #7
 48c:	0000001c 	andeq	r0, r0, ip, lsl r0
 490:	00000014 	andeq	r0, r0, r4, lsl r0
 494:	00000470 	andeq	r0, r0, r0, ror r4
 498:	000093a8 	andeq	r9, r0, r8, lsr #7
 49c:	00000014 	andeq	r0, r0, r4, lsl r0
 4a0:	83080e42 	movwhi	r0, #36418	; 0x8e42
 4a4:	00018e02 	andeq	r8, r1, r2, lsl #28
 4a8:	00000014 	andeq	r0, r0, r4, lsl r0
 4ac:	00000470 	andeq	r0, r0, r0, ror r4
 4b0:	000093bc 			; <UNDEFINED> instruction: 0x000093bc
 4b4:	0000000c 	andeq	r0, r0, ip
 4b8:	83080e42 	movwhi	r0, #36418	; 0x8e42
 4bc:	00018e02 	andeq	r8, r1, r2, lsl #28
 4c0:	00000018 	andeq	r0, r0, r8, lsl r0
 4c4:	00000470 	andeq	r0, r0, r0, ror r4
 4c8:	000093c8 	andeq	r9, r0, r8, asr #7
 4cc:	00000024 	andeq	r0, r0, r4, lsr #32
 4d0:	83100e42 	tsthi	r0, #1056	; 0x420
 4d4:	85038404 	strhi	r8, [r3, #-1028]	; 0x404
 4d8:	00018e02 	andeq	r8, r1, r2, lsl #28
 4dc:	00000014 	andeq	r0, r0, r4, lsl r0
 4e0:	00000470 	andeq	r0, r0, r0, ror r4
 4e4:	000093ec 	andeq	r9, r0, ip, ror #7
 4e8:	00000014 	andeq	r0, r0, r4, lsl r0
 4ec:	83080e42 	movwhi	r0, #36418	; 0x8e42
 4f0:	00018e02 	andeq	r8, r1, r2, lsl #28
 4f4:	00000014 	andeq	r0, r0, r4, lsl r0
 4f8:	00000470 	andeq	r0, r0, r0, ror r4
 4fc:	00009400 	andeq	r9, r0, r0, lsl #8
 500:	00000014 	andeq	r0, r0, r4, lsl r0
 504:	83080e42 	movwhi	r0, #36418	; 0x8e42
 508:	00018e02 	andeq	r8, r1, r2, lsl #28
 50c:	0000000c 	andeq	r0, r0, ip
 510:	ffffffff 			; <UNDEFINED> instruction: 0xffffffff
 514:	7c020001 	stcvc	0, cr0, [r2], {1}
 518:	000d0c0e 	andeq	r0, sp, lr, lsl #24
 51c:	00000018 	andeq	r0, r0, r8, lsl r0
 520:	0000050c 	andeq	r0, r0, ip, lsl #10
 524:	00009414 	andeq	r9, r0, r4, lsl r4
 528:	000000d4 	ldrdeq	r0, [r0], -r4
 52c:	83100e42 	tsthi	r0, #1056	; 0x420
 530:	85038404 	strhi	r8, [r3, #-1028]	; 0x404
 534:	00018e02 	andeq	r8, r1, r2, lsl #28
 538:	00000014 	andeq	r0, r0, r4, lsl r0
 53c:	0000050c 	andeq	r0, r0, ip, lsl #10
 540:	000094e8 	andeq	r9, r0, r8, ror #9
 544:	00000038 	andeq	r0, r0, r8, lsr r0
 548:	83080e42 	movwhi	r0, #36418	; 0x8e42
 54c:	00018e02 	andeq	r8, r1, r2, lsl #28
 550:	00000014 	andeq	r0, r0, r4, lsl r0
 554:	0000050c 	andeq	r0, r0, ip, lsl #10
 558:	00009520 	andeq	r9, r0, r0, lsr #10
 55c:	00000038 	andeq	r0, r0, r8, lsr r0
 560:	83080e42 	movwhi	r0, #36418	; 0x8e42
 564:	00018e02 	andeq	r8, r1, r2, lsl #28
 568:	00000018 	andeq	r0, r0, r8, lsl r0
 56c:	0000050c 	andeq	r0, r0, ip, lsl #10
 570:	00009558 	andeq	r9, r0, r8, asr r5
 574:	000000cc 	andeq	r0, r0, ip, asr #1
 578:	83100e42 	tsthi	r0, #1056	; 0x420
 57c:	85038404 	strhi	r8, [r3, #-1028]	; 0x404
 580:	00018e02 	andeq	r8, r1, r2, lsl #28
 584:	00000014 	andeq	r0, r0, r4, lsl r0
 588:	0000050c 	andeq	r0, r0, ip, lsl #10
 58c:	00009624 	andeq	r9, r0, r4, lsr #12
 590:	0000004c 	andeq	r0, r0, ip, asr #32
 594:	84080e42 	strhi	r0, [r8], #-3650	; 0xe42
 598:	00018e02 	andeq	r8, r1, r2, lsl #28
 59c:	00000014 	andeq	r0, r0, r4, lsl r0
 5a0:	0000050c 	andeq	r0, r0, ip, lsl #10
 5a4:	00009670 	andeq	r9, r0, r0, ror r6
 5a8:	00000078 	andeq	r0, r0, r8, ror r0
 5ac:	83080e42 	movwhi	r0, #36418	; 0x8e42
 5b0:	00018e02 	andeq	r8, r1, r2, lsl #28
 5b4:	00000018 	andeq	r0, r0, r8, lsl r0
 5b8:	0000050c 	andeq	r0, r0, ip, lsl #10
 5bc:	000096e8 	andeq	r9, r0, r8, ror #13
 5c0:	000000d8 	ldrdeq	r0, [r0], -r8
 5c4:	84100e42 	ldrhi	r0, [r0], #-3650	; 0xe42
 5c8:	86038504 	strhi	r8, [r3], -r4, lsl #10
 5cc:	00018e02 	andeq	r8, r1, r2, lsl #28
 5d0:	00000014 	andeq	r0, r0, r4, lsl r0
 5d4:	0000050c 	andeq	r0, r0, ip, lsl #10
 5d8:	000097c0 	andeq	r9, r0, r0, asr #15
 5dc:	0000002c 	andeq	r0, r0, ip, lsr #32
 5e0:	83080e42 	movwhi	r0, #36418	; 0x8e42
 5e4:	00018e02 	andeq	r8, r1, r2, lsl #28
 5e8:	00000018 	andeq	r0, r0, r8, lsl r0
 5ec:	0000050c 	andeq	r0, r0, ip, lsl #10
 5f0:	000097ec 	andeq	r9, r0, ip, ror #15
 5f4:	00000084 	andeq	r0, r0, r4, lsl #1
 5f8:	83100e42 	tsthi	r0, #1056	; 0x420
 5fc:	85038404 	strhi	r8, [r3, #-1028]	; 0x404
 600:	00018e02 	andeq	r8, r1, r2, lsl #28
 604:	00000018 	andeq	r0, r0, r8, lsl r0
 608:	0000050c 	andeq	r0, r0, ip, lsl #10
 60c:	00009870 	andeq	r9, r0, r0, ror r8
 610:	00000084 	andeq	r0, r0, r4, lsl #1
 614:	83100e42 	tsthi	r0, #1056	; 0x420
 618:	85038404 	strhi	r8, [r3, #-1028]	; 0x404
 61c:	00018e02 	andeq	r8, r1, r2, lsl #28
 620:	00000014 	andeq	r0, r0, r4, lsl r0
 624:	0000050c 	andeq	r0, r0, ip, lsl #10
 628:	000098f4 	strdeq	r9, [r0], -r4
 62c:	00000084 	andeq	r0, r0, r4, lsl #1
 630:	84080e42 	strhi	r0, [r8], #-3650	; 0xe42
 634:	00018e02 	andeq	r8, r1, r2, lsl #28
 638:	00000014 	andeq	r0, r0, r4, lsl r0
 63c:	0000050c 	andeq	r0, r0, ip, lsl #10
 640:	00009978 	andeq	r9, r0, r8, ror r9
 644:	00000058 	andeq	r0, r0, r8, asr r0
 648:	84080e42 	strhi	r0, [r8], #-3650	; 0xe42
 64c:	00018e02 	andeq	r8, r1, r2, lsl #28
 650:	0000000c 	andeq	r0, r0, ip
 654:	ffffffff 			; <UNDEFINED> instruction: 0xffffffff
 658:	7c020001 	stcvc	0, cr0, [r2], {1}
 65c:	000d0c0e 	andeq	r0, sp, lr, lsl #24
 660:	00000014 	andeq	r0, r0, r4, lsl r0
 664:	00000650 	andeq	r0, r0, r0, asr r6
 668:	000099d0 	ldrdeq	r9, [r0], -r0
 66c:	00000068 	andeq	r0, r0, r8, rrx
 670:	83080e42 	movwhi	r0, #36418	; 0x8e42
 674:	00018e02 	andeq	r8, r1, r2, lsl #28
 678:	00000014 	andeq	r0, r0, r4, lsl r0
 67c:	00000650 	andeq	r0, r0, r0, asr r6
 680:	00009a38 	andeq	r9, r0, r8, lsr sl
 684:	0000003c 	andeq	r0, r0, ip, lsr r0
 688:	8e040e42 	cdphi	14, 0, cr0, cr4, cr2, {2}
 68c:	100e4201 	andne	r4, lr, r1, lsl #4
 690:	00000014 	andeq	r0, r0, r4, lsl r0
 694:	00000650 	andeq	r0, r0, r0, asr r6
 698:	00009a74 	andeq	r9, r0, r4, ror sl
 69c:	0000003c 	andeq	r0, r0, ip, lsr r0
 6a0:	8e040e42 	cdphi	14, 0, cr0, cr4, cr2, {2}
 6a4:	100e4201 	andne	r4, lr, r1, lsl #4
 6a8:	00000014 	andeq	r0, r0, r4, lsl r0
 6ac:	00000650 	andeq	r0, r0, r0, asr r6
 6b0:	00009ab0 			; <UNDEFINED> instruction: 0x00009ab0
 6b4:	0000003c 	andeq	r0, r0, ip, lsr r0
 6b8:	8e040e42 	cdphi	14, 0, cr0, cr4, cr2, {2}
 6bc:	100e4201 	andne	r4, lr, r1, lsl #4
 6c0:	00000014 	andeq	r0, r0, r4, lsl r0
 6c4:	00000650 	andeq	r0, r0, r0, asr r6
 6c8:	00009aec 	andeq	r9, r0, ip, ror #21
 6cc:	0000003c 	andeq	r0, r0, ip, lsr r0
 6d0:	8e040e42 	cdphi	14, 0, cr0, cr4, cr2, {2}
 6d4:	100e4201 	andne	r4, lr, r1, lsl #4
 6d8:	00000014 	andeq	r0, r0, r4, lsl r0
 6dc:	00000650 	andeq	r0, r0, r0, asr r6
 6e0:	00009b28 	andeq	r9, r0, r8, lsr #22
 6e4:	0000003c 	andeq	r0, r0, ip, lsr r0
 6e8:	8e040e42 	cdphi	14, 0, cr0, cr4, cr2, {2}
 6ec:	100e4201 	andne	r4, lr, r1, lsl #4
 6f0:	00000014 	andeq	r0, r0, r4, lsl r0
 6f4:	00000650 	andeq	r0, r0, r0, asr r6
 6f8:	00009b64 	andeq	r9, r0, r4, ror #22
 6fc:	0000003c 	andeq	r0, r0, ip, lsr r0
 700:	8e040e42 	cdphi	14, 0, cr0, cr4, cr2, {2}
 704:	100e4201 	andne	r4, lr, r1, lsl #4
 708:	0000000c 	andeq	r0, r0, ip
 70c:	ffffffff 			; <UNDEFINED> instruction: 0xffffffff
 710:	7c020001 	stcvc	0, cr0, [r2], {1}
 714:	000d0c0e 	andeq	r0, sp, lr, lsl #24
 718:	00000014 	andeq	r0, r0, r4, lsl r0
 71c:	00000708 	andeq	r0, r0, r8, lsl #14
 720:	00009cdc 	ldrdeq	r9, [r0], -ip
 724:	0000001c 	andeq	r0, r0, ip, lsl r0
 728:	83080e42 	movwhi	r0, #36418	; 0x8e42
 72c:	00018e02 	andeq	r8, r1, r2, lsl #28
 730:	00000018 	andeq	r0, r0, r8, lsl r0
 734:	00000708 	andeq	r0, r0, r8, lsl #14
 738:	00009cf8 	strdeq	r9, [r0], -r8
 73c:	0000009c 	muleq	r0, ip, r0
 740:	83100e42 	tsthi	r0, #1056	; 0x420
 744:	85038404 	strhi	r8, [r3, #-1028]	; 0x404
 748:	00018e02 	andeq	r8, r1, r2, lsl #28
 74c:	00000014 	andeq	r0, r0, r4, lsl r0
 750:	00000708 	andeq	r0, r0, r8, lsl #14
 754:	00009d94 	muleq	r0, r4, sp
 758:	00000028 	andeq	r0, r0, r8, lsr #32
 75c:	83080e42 	movwhi	r0, #36418	; 0x8e42
 760:	00018e02 	andeq	r8, r1, r2, lsl #28
 764:	00000014 	andeq	r0, r0, r4, lsl r0
 768:	00000708 	andeq	r0, r0, r8, lsl #14
 76c:	00009dbc 			; <UNDEFINED> instruction: 0x00009dbc
 770:	0000001c 	andeq	r0, r0, ip, lsl r0
 774:	83080e42 	movwhi	r0, #36418	; 0x8e42
 778:	00018e02 	andeq	r8, r1, r2, lsl #28
 77c:	00000014 	andeq	r0, r0, r4, lsl r0
 780:	00000708 	andeq	r0, r0, r8, lsl #14
 784:	00009dd8 	ldrdeq	r9, [r0], -r8
 788:	0000002c 	andeq	r0, r0, ip, lsr #32
 78c:	84080e42 	strhi	r0, [r8], #-3650	; 0xe42
 790:	00018e02 	andeq	r8, r1, r2, lsl #28
 794:	00000014 	andeq	r0, r0, r4, lsl r0
 798:	00000708 	andeq	r0, r0, r8, lsl #14
 79c:	00009e04 	andeq	r9, r0, r4, lsl #28
 7a0:	0000000c 	andeq	r0, r0, ip
 7a4:	83080e42 	movwhi	r0, #36418	; 0x8e42
 7a8:	00018e02 	andeq	r8, r1, r2, lsl #28
 7ac:	00000014 	andeq	r0, r0, r4, lsl r0
 7b0:	00000708 	andeq	r0, r0, r8, lsl #14
 7b4:	00009e10 	andeq	r9, r0, r0, lsl lr
 7b8:	00000020 	andeq	r0, r0, r0, lsr #32
 7bc:	83080e42 	movwhi	r0, #36418	; 0x8e42
 7c0:	00018e02 	andeq	r8, r1, r2, lsl #28
 7c4:	0000000c 	andeq	r0, r0, ip
 7c8:	ffffffff 			; <UNDEFINED> instruction: 0xffffffff
 7cc:	7c020001 	stcvc	0, cr0, [r2], {1}
 7d0:	000d0c0e 	andeq	r0, sp, lr, lsl #24
 7d4:	00000014 	andeq	r0, r0, r4, lsl r0
 7d8:	000007c4 	andeq	r0, r0, r4, asr #15
 7dc:	00009e30 	andeq	r9, r0, r0, lsr lr
 7e0:	00000014 	andeq	r0, r0, r4, lsl r0
 7e4:	84080e42 	strhi	r0, [r8], #-3650	; 0xe42
 7e8:	00018e02 	andeq	r8, r1, r2, lsl #28
