
bootloader.elf:     file format elf32-littlearm


Disassembly of section .text:

00008000 <_start>:
    8000:	ea07dffe 	b	200000 <skip>
	...

00200000 <skip>:
  200000:	e3a0d302 	mov	sp, #134217728	; 0x8000000
  200004:	eb00004a 	bl	200134 <notmain>

00200008 <hang>:
  200008:	ea000063 	b	20019c <clean_reboot>

0020000c <BRANCHTO>:
  20000c:	e12fff10 	bx	r0

00200010 <sw_putk>:
  200010:	e92d4070 	push	{r4, r5, r6, lr}
  200014:	e1a05000 	mov	r5, r0
  200018:	e59f40a8 	ldr	r4, [pc, #168]	; 2000c8 <sw_putk+0xb8>
  20001c:	e1a00004 	mov	r0, r4
  200020:	e3a010ee 	mov	r1, #238	; 0xee
  200024:	eb0000a5 	bl	2002c0 <sw_uart_putc>
  200028:	e1a00004 	mov	r0, r4
  20002c:	e3a010ee 	mov	r1, #238	; 0xee
  200030:	eb0000a2 	bl	2002c0 <sw_uart_putc>
  200034:	e1a00004 	mov	r0, r4
  200038:	e3a010dd 	mov	r1, #221	; 0xdd
  20003c:	eb00009f 	bl	2002c0 <sw_uart_putc>
  200040:	e1a00004 	mov	r0, r4
  200044:	e3a010dd 	mov	r1, #221	; 0xdd
  200048:	eb00009c 	bl	2002c0 <sw_uart_putc>
  20004c:	e3a03000 	mov	r3, #0
  200050:	ea000000 	b	200058 <sw_putk+0x48>
  200054:	e2833001 	add	r3, r3, #1
  200058:	e1a04003 	mov	r4, r3
  20005c:	e7d52003 	ldrb	r2, [r5, r3]
  200060:	e3520000 	cmp	r2, #0
  200064:	1afffffa 	bne	200054 <sw_putk+0x44>
  200068:	e59f6058 	ldr	r6, [pc, #88]	; 2000c8 <sw_putk+0xb8>
  20006c:	e1a00006 	mov	r0, r6
  200070:	e6ef1073 	uxtb	r1, r3
  200074:	eb000091 	bl	2002c0 <sw_uart_putc>
  200078:	e1a01424 	lsr	r1, r4, #8
  20007c:	e1a00006 	mov	r0, r6
  200080:	e6ef1071 	uxtb	r1, r1
  200084:	eb00008d 	bl	2002c0 <sw_uart_putc>
  200088:	e1a01824 	lsr	r1, r4, #16
  20008c:	e1a00006 	mov	r0, r6
  200090:	e6ef1071 	uxtb	r1, r1
  200094:	eb000089 	bl	2002c0 <sw_uart_putc>
  200098:	e1a00006 	mov	r0, r6
  20009c:	e1a01c24 	lsr	r1, r4, #24
  2000a0:	eb000086 	bl	2002c0 <sw_uart_putc>
  2000a4:	e3a04000 	mov	r4, #0
  2000a8:	ea000002 	b	2000b8 <sw_putk+0xa8>
  2000ac:	e1a00006 	mov	r0, r6
  2000b0:	eb000082 	bl	2002c0 <sw_uart_putc>
  2000b4:	e2844001 	add	r4, r4, #1
  2000b8:	e7d51004 	ldrb	r1, [r5, r4]
  2000bc:	e3510000 	cmp	r1, #0
  2000c0:	1afffff9 	bne	2000ac <sw_putk+0x9c>
  2000c4:	e8bd8070 	pop	{r4, r5, r6, pc}
  2000c8:	002019fc 	strdeq	r1, [r0], -ip	; <UNPREDICTABLE>

002000cc <wait_for_data>:
  2000cc:	e92d41f0 	push	{r4, r5, r6, r7, r8, lr}
  2000d0:	e59f6054 	ldr	r6, [pc, #84]	; 20012c <wait_for_data+0x60>
  2000d4:	e3a08022 	mov	r8, #34	; 0x22
  2000d8:	e3a07011 	mov	r7, #17
  2000dc:	e59f504c 	ldr	r5, [pc, #76]	; 200130 <wait_for_data+0x64>
  2000e0:	e1a00006 	mov	r0, r6
  2000e4:	e1a01008 	mov	r1, r8
  2000e8:	eb000074 	bl	2002c0 <sw_uart_putc>
  2000ec:	e1a00006 	mov	r0, r6
  2000f0:	e1a01008 	mov	r1, r8
  2000f4:	eb000071 	bl	2002c0 <sw_uart_putc>
  2000f8:	e1a00006 	mov	r0, r6
  2000fc:	e1a01007 	mov	r1, r7
  200100:	eb00006e 	bl	2002c0 <sw_uart_putc>
  200104:	e1a00006 	mov	r0, r6
  200108:	e1a01007 	mov	r1, r7
  20010c:	eb00006b 	bl	2002c0 <sw_uart_putc>
  200110:	eb000054 	bl	200268 <timer_get_usec>
  200114:	e1a04000 	mov	r4, r0
  200118:	eb000052 	bl	200268 <timer_get_usec>
  20011c:	e0640000 	rsb	r0, r4, r0
  200120:	e1500005 	cmp	r0, r5
  200124:	9afffffb 	bls	200118 <wait_for_data+0x4c>
  200128:	eaffffec 	b	2000e0 <wait_for_data+0x14>
  20012c:	002019fc 	strdeq	r1, [r0], -ip	; <UNPREDICTABLE>
  200130:	000493df 	ldrdeq	r9, [r4], -pc	; <UNPREDICTABLE>

00200134 <notmain>:
  200134:	e52de004 	push	{lr}		; (str lr, [sp, #-4]!)
  200138:	e24dd01c 	sub	sp, sp, #28
  20013c:	e59f502c 	ldr	r5, [pc, #44]	; 200170 <notmain+0x3c>
  200140:	e28d4008 	add	r4, sp, #8
  200144:	e59f3028 	ldr	r3, [pc, #40]	; 200174 <notmain+0x40>
  200148:	e58d3000 	str	r3, [sp]
  20014c:	e1a00004 	mov	r0, r4
  200150:	e3a01015 	mov	r1, #21
  200154:	e3a02014 	mov	r2, #20
  200158:	e59f3018 	ldr	r3, [pc, #24]	; 200178 <notmain+0x44>
  20015c:	eb000140 	bl	200664 <sw_uart_init_helper>
  200160:	e8940007 	ldm	r4, {r0, r1, r2}
  200164:	e8850007 	stm	r5, {r0, r1, r2}
  200168:	eb000003 	bl	20017c <enable_cache>
  20016c:	ebffffd6 	bl	2000cc <wait_for_data>
  200170:	002019fc 	strdeq	r1, [r0], -ip	; <UNPREDICTABLE>
  200174:	000017bc 			; <UNDEFINED> instruction: 0x000017bc
  200178:	0001c200 	andeq	ip, r1, r0, lsl #4

0020017c <enable_cache>:
  20017c:	ee113f10 	mrc	15, 0, r3, cr1, cr0, {0}
  200180:	e3833b06 	orr	r3, r3, #6144	; 0x1800
  200184:	ee013f10 	mcr	15, 0, r3, cr1, cr0, {0}
  200188:	e12fff1e 	bx	lr

0020018c <disable_cache>:
  20018c:	ee113f10 	mrc	15, 0, r3, cr1, cr0, {0}
  200190:	e3c33b06 	bic	r3, r3, #6144	; 0x1800
  200194:	ee013f10 	mcr	15, 0, r3, cr1, cr0, {0}
  200198:	e12fff1e 	bx	lr

0020019c <clean_reboot>:
  20019c:	e92d4008 	push	{r3, lr}
  2001a0:	e59f3014 	ldr	r3, [pc, #20]	; 2001bc <clean_reboot+0x20>
  2001a4:	e5933000 	ldr	r3, [r3]
  2001a8:	e59f0010 	ldr	r0, [pc, #16]	; 2001c0 <clean_reboot+0x24>
  2001ac:	e12fff33 	blx	r3
  2001b0:	e3a00064 	mov	r0, #100	; 0x64
  2001b4:	eb000037 	bl	200298 <delay_ms>
  2001b8:	eb00000c 	bl	2001f0 <rpi_reboot>
  2001bc:	0020173c 	eoreq	r1, r0, ip, lsr r7
  2001c0:	00201778 	eoreq	r1, r0, r8, ror r7

002001c4 <at_user_level>:
  2001c4:	e10f0000 	mrs	r0, CPSR
  2001c8:	e200001f 	and	r0, r0, #31
  2001cc:	e3500010 	cmp	r0, #16
  2001d0:	13a00000 	movne	r0, #0
  2001d4:	03a00001 	moveq	r0, #1
  2001d8:	e12fff1e 	bx	lr

002001dc <set_user_level>:
  2001dc:	e10f3000 	mrs	r3, CPSR
  2001e0:	e3c3301f 	bic	r3, r3, #31
  2001e4:	e3833010 	orr	r3, r3, #16
  2001e8:	e129f003 	msr	CPSR_fc, r3
  2001ec:	e12fff1e 	bx	lr

002001f0 <rpi_reboot>:
  2001f0:	e92d4008 	push	{r3, lr}
  2001f4:	ebfffff2 	bl	2001c4 <at_user_level>
  2001f8:	e3500000 	cmp	r0, #0
  2001fc:	0a000000 	beq	200204 <rpi_reboot+0x14>
  200200:	ebfffff5 	bl	2001dc <set_user_level>
  200204:	e3a0001e 	mov	r0, #30
  200208:	eb000022 	bl	200298 <delay_ms>
  20020c:	e59f0014 	ldr	r0, [pc, #20]	; 200228 <rpi_reboot+0x38>
  200210:	e59f1014 	ldr	r1, [pc, #20]	; 20022c <rpi_reboot+0x3c>
  200214:	eb0001f1 	bl	2009e0 <PUT32>
  200218:	e59f0010 	ldr	r0, [pc, #16]	; 200230 <rpi_reboot+0x40>
  20021c:	e59f1010 	ldr	r1, [pc, #16]	; 200234 <rpi_reboot+0x44>
  200220:	eb0001ee 	bl	2009e0 <PUT32>
  200224:	eafffffe 	b	200224 <rpi_reboot+0x34>
  200228:	20100024 	andscs	r0, r0, r4, lsr #32
  20022c:	5a000001 	bpl	200238 <delay_cycles>
  200230:	2010001c 	andscs	r0, r0, ip, lsl r0
  200234:	5a000020 	bpl	2002bc <delay_sec+0x10>

00200238 <delay_cycles>:
  200238:	ea000001 	b	200244 <delay_cycles+0xc>
  20023c:	e2811000 	add	r1, r1, #0
  200240:	e1a00003 	mov	r0, r3
  200244:	e2403001 	sub	r3, r0, #1
  200248:	e3500000 	cmp	r0, #0
  20024c:	1afffffa 	bne	20023c <delay_cycles+0x4>
  200250:	e12fff1e 	bx	lr

00200254 <timer_get_usec_raw>:
  200254:	e92d4008 	push	{r3, lr}
  200258:	e59f0004 	ldr	r0, [pc, #4]	; 200264 <timer_get_usec_raw+0x10>
  20025c:	eb0001eb 	bl	200a10 <GET32>
  200260:	e8bd8008 	pop	{r3, pc}
  200264:	20003004 	andcs	r3, r0, r4

00200268 <timer_get_usec>:
  200268:	e92d4008 	push	{r3, lr}
  20026c:	ebfffff8 	bl	200254 <timer_get_usec_raw>
  200270:	e8bd8008 	pop	{r3, pc}

00200274 <delay_us>:
  200274:	e92d4038 	push	{r3, r4, r5, lr}
  200278:	e1a05000 	mov	r5, r0
  20027c:	ebfffff9 	bl	200268 <timer_get_usec>
  200280:	e1a04000 	mov	r4, r0
  200284:	ebfffff7 	bl	200268 <timer_get_usec>
  200288:	e0640000 	rsb	r0, r4, r0
  20028c:	e1500005 	cmp	r0, r5
  200290:	3afffffb 	bcc	200284 <delay_us+0x10>
  200294:	e8bd8038 	pop	{r3, r4, r5, pc}

00200298 <delay_ms>:
  200298:	e92d4008 	push	{r3, lr}
  20029c:	e3a03ffa 	mov	r3, #1000	; 0x3e8
  2002a0:	e0000093 	mul	r0, r3, r0
  2002a4:	ebfffff2 	bl	200274 <delay_us>
  2002a8:	e8bd8008 	pop	{r3, pc}

002002ac <delay_sec>:
  2002ac:	e92d4008 	push	{r3, lr}
  2002b0:	e3a03ffa 	mov	r3, #1000	; 0x3e8
  2002b4:	e0000093 	mul	r0, r3, r0
  2002b8:	ebfffff6 	bl	200298 <delay_ms>
  2002bc:	e8bd8008 	pop	{r3, pc}

002002c0 <sw_uart_putc>:
  2002c0:	e92d41f0 	push	{r4, r5, r6, r7, r8, lr}
  2002c4:	e1a07001 	mov	r7, r1
  2002c8:	e3a02001 	mov	r2, #1
  2002cc:	e59f3158 	ldr	r3, [pc, #344]	; 20042c <sw_uart_putc+0x16c>
  2002d0:	e5832000 	str	r2, [r3]
  2002d4:	e5d06000 	ldrb	r6, [r0]
  2002d8:	e5905008 	ldr	r5, [r0, #8]
  2002dc:	ee1f4f3c 	mrc	15, 0, r4, cr15, cr12, {1}
  2002e0:	e1a00006 	mov	r0, r6
  2002e4:	e3a01000 	mov	r1, #0
  2002e8:	eb000264 	bl	200c80 <gpio_write>
  2002ec:	ee1f3f3c 	mrc	15, 0, r3, cr15, cr12, {1}
  2002f0:	e0643003 	rsb	r3, r4, r3
  2002f4:	e1550003 	cmp	r5, r3
  2002f8:	8afffffb 	bhi	2002ec <sw_uart_putc+0x2c>
  2002fc:	e1a08085 	lsl	r8, r5, #1
  200300:	e1a00006 	mov	r0, r6
  200304:	e2071001 	and	r1, r7, #1
  200308:	eb00025c 	bl	200c80 <gpio_write>
  20030c:	ee1f3f3c 	mrc	15, 0, r3, cr15, cr12, {1}
  200310:	e0643003 	rsb	r3, r4, r3
  200314:	e1580003 	cmp	r8, r3
  200318:	8afffffb 	bhi	20030c <sw_uart_putc+0x4c>
  20031c:	e0888005 	add	r8, r8, r5
  200320:	e1a00006 	mov	r0, r6
  200324:	e2071002 	and	r1, r7, #2
  200328:	eb000254 	bl	200c80 <gpio_write>
  20032c:	ee1f3f3c 	mrc	15, 0, r3, cr15, cr12, {1}
  200330:	e0643003 	rsb	r3, r4, r3
  200334:	e1580003 	cmp	r8, r3
  200338:	8afffffb 	bhi	20032c <sw_uart_putc+0x6c>
  20033c:	e0888005 	add	r8, r8, r5
  200340:	e1a00006 	mov	r0, r6
  200344:	e2071004 	and	r1, r7, #4
  200348:	eb00024c 	bl	200c80 <gpio_write>
  20034c:	ee1f3f3c 	mrc	15, 0, r3, cr15, cr12, {1}
  200350:	e0643003 	rsb	r3, r4, r3
  200354:	e1580003 	cmp	r8, r3
  200358:	8afffffb 	bhi	20034c <sw_uart_putc+0x8c>
  20035c:	e0888005 	add	r8, r8, r5
  200360:	e1a00006 	mov	r0, r6
  200364:	e2071008 	and	r1, r7, #8
  200368:	eb000244 	bl	200c80 <gpio_write>
  20036c:	ee1f3f3c 	mrc	15, 0, r3, cr15, cr12, {1}
  200370:	e0643003 	rsb	r3, r4, r3
  200374:	e1580003 	cmp	r8, r3
  200378:	8afffffb 	bhi	20036c <sw_uart_putc+0xac>
  20037c:	e0888005 	add	r8, r8, r5
  200380:	e1a00006 	mov	r0, r6
  200384:	e2071010 	and	r1, r7, #16
  200388:	eb00023c 	bl	200c80 <gpio_write>
  20038c:	ee1f3f3c 	mrc	15, 0, r3, cr15, cr12, {1}
  200390:	e0643003 	rsb	r3, r4, r3
  200394:	e1580003 	cmp	r8, r3
  200398:	8afffffb 	bhi	20038c <sw_uart_putc+0xcc>
  20039c:	e0888005 	add	r8, r8, r5
  2003a0:	e1a00006 	mov	r0, r6
  2003a4:	e2071020 	and	r1, r7, #32
  2003a8:	eb000234 	bl	200c80 <gpio_write>
  2003ac:	ee1f3f3c 	mrc	15, 0, r3, cr15, cr12, {1}
  2003b0:	e0643003 	rsb	r3, r4, r3
  2003b4:	e1580003 	cmp	r8, r3
  2003b8:	8afffffb 	bhi	2003ac <sw_uart_putc+0xec>
  2003bc:	e0888005 	add	r8, r8, r5
  2003c0:	e1a00006 	mov	r0, r6
  2003c4:	e2071040 	and	r1, r7, #64	; 0x40
  2003c8:	eb00022c 	bl	200c80 <gpio_write>
  2003cc:	ee1f3f3c 	mrc	15, 0, r3, cr15, cr12, {1}
  2003d0:	e0643003 	rsb	r3, r4, r3
  2003d4:	e1580003 	cmp	r8, r3
  2003d8:	8afffffb 	bhi	2003cc <sw_uart_putc+0x10c>
  2003dc:	e0888005 	add	r8, r8, r5
  2003e0:	e1a00006 	mov	r0, r6
  2003e4:	e2071080 	and	r1, r7, #128	; 0x80
  2003e8:	eb000224 	bl	200c80 <gpio_write>
  2003ec:	ee1f3f3c 	mrc	15, 0, r3, cr15, cr12, {1}
  2003f0:	e0643003 	rsb	r3, r4, r3
  2003f4:	e1580003 	cmp	r8, r3
  2003f8:	8afffffb 	bhi	2003ec <sw_uart_putc+0x12c>
  2003fc:	e0885005 	add	r5, r8, r5
  200400:	e1a00006 	mov	r0, r6
  200404:	e3a01001 	mov	r1, #1
  200408:	eb00021c 	bl	200c80 <gpio_write>
  20040c:	ee1f3f3c 	mrc	15, 0, r3, cr15, cr12, {1}
  200410:	e0643003 	rsb	r3, r4, r3
  200414:	e1550003 	cmp	r5, r3
  200418:	8afffffb 	bhi	20040c <sw_uart_putc+0x14c>
  20041c:	e3a02000 	mov	r2, #0
  200420:	e59f3004 	ldr	r3, [pc, #4]	; 20042c <sw_uart_putc+0x16c>
  200424:	e5832000 	str	r2, [r3]
  200428:	e8bd81f0 	pop	{r4, r5, r6, r7, r8, pc}
  20042c:	00201a18 	eoreq	r1, r0, r8, lsl sl

00200430 <sw_uart_getc_timeout>:
  200430:	e92d40f8 	push	{r3, r4, r5, r6, r7, lr}
  200434:	e5d05001 	ldrb	r5, [r0, #1]
  200438:	ee1f6f3c 	mrc	15, 0, r6, cr15, cr12, {1}
  20043c:	e5904008 	ldr	r4, [r0, #8]
  200440:	e08420a4 	add	r2, r4, r4, lsr #1
  200444:	ee1f3f3c 	mrc	15, 0, r3, cr15, cr12, {1}
  200448:	e0663003 	rsb	r3, r6, r3
  20044c:	e1520003 	cmp	r2, r3
  200450:	8afffffb 	bhi	200444 <sw_uart_getc_timeout+0x14>
  200454:	e0866004 	add	r6, r6, r4
  200458:	e1a00005 	mov	r0, r5
  20045c:	eb0001f4 	bl	200c34 <gpio_read>
  200460:	e1a07550 	asr	r7, r0, r5
  200464:	ee1f3f3c 	mrc	15, 0, r3, cr15, cr12, {1}
  200468:	e0663003 	rsb	r3, r6, r3
  20046c:	e1540003 	cmp	r4, r3
  200470:	8afffffb 	bhi	200464 <sw_uart_getc_timeout+0x34>
  200474:	e0866004 	add	r6, r6, r4
  200478:	e1a00005 	mov	r0, r5
  20047c:	eb0001ec 	bl	200c34 <gpio_read>
  200480:	e1a00550 	asr	r0, r0, r5
  200484:	e1877080 	orr	r7, r7, r0, lsl #1
  200488:	ee1f3f3c 	mrc	15, 0, r3, cr15, cr12, {1}
  20048c:	e0663003 	rsb	r3, r6, r3
  200490:	e1540003 	cmp	r4, r3
  200494:	8afffffb 	bhi	200488 <sw_uart_getc_timeout+0x58>
  200498:	e0866004 	add	r6, r6, r4
  20049c:	e1a00005 	mov	r0, r5
  2004a0:	eb0001e3 	bl	200c34 <gpio_read>
  2004a4:	e1a00550 	asr	r0, r0, r5
  2004a8:	e1877100 	orr	r7, r7, r0, lsl #2
  2004ac:	ee1f3f3c 	mrc	15, 0, r3, cr15, cr12, {1}
  2004b0:	e0663003 	rsb	r3, r6, r3
  2004b4:	e1540003 	cmp	r4, r3
  2004b8:	8afffffb 	bhi	2004ac <sw_uart_getc_timeout+0x7c>
  2004bc:	e0866004 	add	r6, r6, r4
  2004c0:	e1a00005 	mov	r0, r5
  2004c4:	eb0001da 	bl	200c34 <gpio_read>
  2004c8:	e1a00550 	asr	r0, r0, r5
  2004cc:	e1877180 	orr	r7, r7, r0, lsl #3
  2004d0:	ee1f3f3c 	mrc	15, 0, r3, cr15, cr12, {1}
  2004d4:	e0663003 	rsb	r3, r6, r3
  2004d8:	e1540003 	cmp	r4, r3
  2004dc:	8afffffb 	bhi	2004d0 <sw_uart_getc_timeout+0xa0>
  2004e0:	e0866004 	add	r6, r6, r4
  2004e4:	e1a00005 	mov	r0, r5
  2004e8:	eb0001d1 	bl	200c34 <gpio_read>
  2004ec:	e1a00550 	asr	r0, r0, r5
  2004f0:	e1877200 	orr	r7, r7, r0, lsl #4
  2004f4:	ee1f3f3c 	mrc	15, 0, r3, cr15, cr12, {1}
  2004f8:	e0663003 	rsb	r3, r6, r3
  2004fc:	e1540003 	cmp	r4, r3
  200500:	8afffffb 	bhi	2004f4 <sw_uart_getc_timeout+0xc4>
  200504:	e0866004 	add	r6, r6, r4
  200508:	e1a00005 	mov	r0, r5
  20050c:	eb0001c8 	bl	200c34 <gpio_read>
  200510:	e1a00550 	asr	r0, r0, r5
  200514:	e1877280 	orr	r7, r7, r0, lsl #5
  200518:	ee1f3f3c 	mrc	15, 0, r3, cr15, cr12, {1}
  20051c:	e0663003 	rsb	r3, r6, r3
  200520:	e1540003 	cmp	r4, r3
  200524:	8afffffb 	bhi	200518 <sw_uart_getc_timeout+0xe8>
  200528:	e0866004 	add	r6, r6, r4
  20052c:	e1a00005 	mov	r0, r5
  200530:	eb0001bf 	bl	200c34 <gpio_read>
  200534:	e1a00550 	asr	r0, r0, r5
  200538:	e1877300 	orr	r7, r7, r0, lsl #6
  20053c:	ee1f3f3c 	mrc	15, 0, r3, cr15, cr12, {1}
  200540:	e0663003 	rsb	r3, r6, r3
  200544:	e1540003 	cmp	r4, r3
  200548:	8afffffb 	bhi	20053c <sw_uart_getc_timeout+0x10c>
  20054c:	e1a00005 	mov	r0, r5
  200550:	eb0001b7 	bl	200c34 <gpio_read>
  200554:	e1a00550 	asr	r0, r0, r5
  200558:	e1870380 	orr	r0, r7, r0, lsl #7
  20055c:	e8bd80f8 	pop	{r3, r4, r5, r6, r7, pc}

00200560 <sw_uart_gets_until>:
  200560:	e92d47f0 	push	{r4, r5, r6, r7, r8, r9, sl, lr}
  200564:	e1a08000 	mov	r8, r0
  200568:	e1a06001 	mov	r6, r1
  20056c:	e1a09003 	mov	r9, r3
  200570:	e59da020 	ldr	sl, [sp, #32]
  200574:	e3520000 	cmp	r2, #0
  200578:	1a000005 	bne	200594 <sw_uart_gets_until+0x34>
  20057c:	e59f005c 	ldr	r0, [pc, #92]	; 2005e0 <sw_uart_gets_until+0x80>
  200580:	e59f105c 	ldr	r1, [pc, #92]	; 2005e4 <sw_uart_gets_until+0x84>
  200584:	e59f205c 	ldr	r2, [pc, #92]	; 2005e8 <sw_uart_gets_until+0x88>
  200588:	e3a03079 	mov	r3, #121	; 0x79
  20058c:	eb000293 	bl	200fe0 <printk>
  200590:	ebffff01 	bl	20019c <clean_reboot>
  200594:	e3a04000 	mov	r4, #0
  200598:	e5c14000 	strb	r4, [r1]
  20059c:	e2427001 	sub	r7, r2, #1
  2005a0:	ea000007 	b	2005c4 <sw_uart_gets_until+0x64>
  2005a4:	e1a00008 	mov	r0, r8
  2005a8:	e1a0100a 	mov	r1, sl
  2005ac:	ebffff9f 	bl	200430 <sw_uart_getc_timeout>
  2005b0:	e6ef0070 	uxtb	r0, r0
  2005b4:	e1500009 	cmp	r0, r9
  2005b8:	0a000004 	beq	2005d0 <sw_uart_gets_until+0x70>
  2005bc:	e7c60005 	strb	r0, [r6, r5]
  2005c0:	e2844001 	add	r4, r4, #1
  2005c4:	e1a05004 	mov	r5, r4
  2005c8:	e1540007 	cmp	r4, r7
  2005cc:	3afffff4 	bcc	2005a4 <sw_uart_gets_until+0x44>
  2005d0:	e3a03000 	mov	r3, #0
  2005d4:	e7c63005 	strb	r3, [r6, r5]
  2005d8:	e1a00004 	mov	r0, r4
  2005dc:	e8bd87f0 	pop	{r4, r5, r6, r7, r8, r9, sl, pc}
  2005e0:	00201810 	eoreq	r1, r0, r0, lsl r8
  2005e4:	0020182c 	eoreq	r1, r0, ip, lsr #16
  2005e8:	00201784 	eoreq	r1, r0, r4, lsl #15

002005ec <sw_uart_gets_timeout>:
  2005ec:	e92d41f0 	push	{r4, r5, r6, r7, r8, lr}
  2005f0:	e1a07000 	mov	r7, r0
  2005f4:	e1a05001 	mov	r5, r1
  2005f8:	e1a08003 	mov	r8, r3
  2005fc:	e3520000 	cmp	r2, #0
  200600:	1a000005 	bne	20061c <sw_uart_gets_timeout+0x30>
  200604:	e59f004c 	ldr	r0, [pc, #76]	; 200658 <sw_uart_gets_timeout+0x6c>
  200608:	e59f104c 	ldr	r1, [pc, #76]	; 20065c <sw_uart_gets_timeout+0x70>
  20060c:	e59f204c 	ldr	r2, [pc, #76]	; 200660 <sw_uart_gets_timeout+0x74>
  200610:	e3a0308f 	mov	r3, #143	; 0x8f
  200614:	eb000271 	bl	200fe0 <printk>
  200618:	ebfffedf 	bl	20019c <clean_reboot>
  20061c:	e3a04000 	mov	r4, #0
  200620:	e5c14000 	strb	r4, [r1]
  200624:	e2426001 	sub	r6, r2, #1
  200628:	ea000004 	b	200640 <sw_uart_gets_timeout+0x54>
  20062c:	e1a00007 	mov	r0, r7
  200630:	e1a01008 	mov	r1, r8
  200634:	ebffff7d 	bl	200430 <sw_uart_getc_timeout>
  200638:	e7c50004 	strb	r0, [r5, r4]
  20063c:	e2844001 	add	r4, r4, #1
  200640:	e1540006 	cmp	r4, r6
  200644:	3afffff8 	bcc	20062c <sw_uart_gets_timeout+0x40>
  200648:	e3a03000 	mov	r3, #0
  20064c:	e7c53004 	strb	r3, [r5, r4]
  200650:	e1a00004 	mov	r0, r4
  200654:	e8bd81f0 	pop	{r4, r5, r6, r7, r8, pc}
  200658:	00201810 	eoreq	r1, r0, r0, lsl r8
  20065c:	0020182c 	eoreq	r1, r0, ip, lsr #16
  200660:	00201798 	mlaeq	r0, r8, r7, r1

00200664 <sw_uart_init_helper>:
  200664:	e92d41f0 	push	{r4, r5, r6, r7, r8, lr}
  200668:	e1a04000 	mov	r4, r0
  20066c:	e1a06001 	mov	r6, r1
  200670:	e1a08002 	mov	r8, r2
  200674:	e1a05003 	mov	r5, r3
  200678:	e59d7018 	ldr	r7, [sp, #24]
  20067c:	e1a00001 	mov	r0, r1
  200680:	eb0000e7 	bl	200a24 <gpio_set_output>
  200684:	e1a00008 	mov	r0, r8
  200688:	eb000136 	bl	200b68 <gpio_set_input>
  20068c:	e3a03001 	mov	r3, #1
  200690:	ee0f3f1c 	mcr	15, 0, r3, cr15, cr12, {0}
  200694:	e1a00006 	mov	r0, r6
  200698:	e3a01001 	mov	r1, #1
  20069c:	eb000177 	bl	200c80 <gpio_write>
  2006a0:	e0020795 	mul	r2, r5, r7
  2006a4:	e59f3064 	ldr	r3, [pc, #100]	; 200710 <sw_uart_init_helper+0xac>
  2006a8:	e0653003 	rsb	r3, r5, r3
  2006ac:	e1530002 	cmp	r3, r2
  2006b0:	8a000005 	bhi	2006cc <sw_uart_init_helper+0x68>
  2006b4:	e59f3054 	ldr	r3, [pc, #84]	; 200710 <sw_uart_init_helper+0xac>
  2006b8:	e0853003 	add	r3, r5, r3
  2006bc:	e1530002 	cmp	r3, r2
  2006c0:	2a000003 	bcs	2006d4 <sw_uart_init_helper+0x70>
  2006c4:	e3a03000 	mov	r3, #0
  2006c8:	ea000002 	b	2006d8 <sw_uart_init_helper+0x74>
  2006cc:	e3a03000 	mov	r3, #0
  2006d0:	ea000000 	b	2006d8 <sw_uart_init_helper+0x74>
  2006d4:	e3a03001 	mov	r3, #1
  2006d8:	e3530000 	cmp	r3, #0
  2006dc:	1a000005 	bne	2006f8 <sw_uart_init_helper+0x94>
  2006e0:	e59f002c 	ldr	r0, [pc, #44]	; 200714 <sw_uart_init_helper+0xb0>
  2006e4:	e59f102c 	ldr	r1, [pc, #44]	; 200718 <sw_uart_init_helper+0xb4>
  2006e8:	e59f202c 	ldr	r2, [pc, #44]	; 20071c <sw_uart_init_helper+0xb8>
  2006ec:	e3a030ab 	mov	r3, #171	; 0xab
  2006f0:	eb00023a 	bl	200fe0 <printk>
  2006f4:	ebfffea8 	bl	20019c <clean_reboot>
  2006f8:	e5c46000 	strb	r6, [r4]
  2006fc:	e5c48001 	strb	r8, [r4, #1]
  200700:	e5845004 	str	r5, [r4, #4]
  200704:	e5847008 	str	r7, [r4, #8]
  200708:	e1a00004 	mov	r0, r4
  20070c:	e8bd81f0 	pop	{r4, r5, r6, r7, r8, pc}
  200710:	29b92700 	ldmibcs	r9!, {r8, r9, sl, sp}
  200714:	00201844 	eoreq	r1, r0, r4, asr #16
  200718:	0020182c 	eoreq	r1, r0, ip, lsr #16
  20071c:	002017b0 	strhteq	r1, [r0], -r0

00200720 <sw_uart_getc>:
  200720:	e92d4008 	push	{r3, lr}
  200724:	e3e01000 	mvn	r1, #0
  200728:	ebffff40 	bl	200430 <sw_uart_getc_timeout>
  20072c:	e3500000 	cmp	r0, #0
  200730:	a8bd8008 	popge	{r3, pc}
  200734:	e59f0010 	ldr	r0, [pc, #16]	; 20074c <sw_uart_getc+0x2c>
  200738:	e59f1010 	ldr	r1, [pc, #16]	; 200750 <sw_uart_getc+0x30>
  20073c:	e59f2010 	ldr	r2, [pc, #16]	; 200754 <sw_uart_getc+0x34>
  200740:	e3a030ba 	mov	r3, #186	; 0xba
  200744:	eb000225 	bl	200fe0 <printk>
  200748:	ebfffe93 	bl	20019c <clean_reboot>
  20074c:	00201888 	eoreq	r1, r0, r8, lsl #17
  200750:	0020182c 	eoreq	r1, r0, ip, lsr #16
  200754:	002017c4 	eoreq	r1, r0, r4, asr #15

00200758 <sw_uart_putk>:
  200758:	e92d4038 	push	{r3, r4, r5, lr}
  20075c:	e1a05000 	mov	r5, r0
  200760:	e1a04001 	mov	r4, r1
  200764:	ea000002 	b	200774 <sw_uart_putk+0x1c>
  200768:	e1a00005 	mov	r0, r5
  20076c:	ebfffed3 	bl	2002c0 <sw_uart_putc>
  200770:	e2844001 	add	r4, r4, #1
  200774:	e5d41000 	ldrb	r1, [r4]
  200778:	e3510000 	cmp	r1, #0
  20077c:	1afffff9 	bne	200768 <sw_uart_putk+0x10>
  200780:	e8bd8038 	pop	{r3, r4, r5, pc}

00200784 <sw_uart_printk>:
  200784:	e92d000e 	push	{r1, r2, r3}
  200788:	e92d4030 	push	{r4, r5, lr}
  20078c:	e24dde1d 	sub	sp, sp, #464	; 0x1d0
  200790:	e1a05000 	mov	r5, r0
  200794:	e28d3e1e 	add	r3, sp, #480	; 0x1e0
  200798:	e58d3000 	str	r3, [sp]
  20079c:	e28d0004 	add	r0, sp, #4
  2007a0:	e3a01f73 	mov	r1, #460	; 0x1cc
  2007a4:	e59d21dc 	ldr	r2, [sp, #476]	; 0x1dc
  2007a8:	eb0002c9 	bl	2012d4 <va_printk>
  2007ac:	e1a04000 	mov	r4, r0
  2007b0:	e59f303c 	ldr	r3, [pc, #60]	; 2007f4 <sw_uart_printk+0x70>
  2007b4:	e1500003 	cmp	r0, r3
  2007b8:	9a000005 	bls	2007d4 <sw_uart_printk+0x50>
  2007bc:	e59f0034 	ldr	r0, [pc, #52]	; 2007f8 <sw_uart_printk+0x74>
  2007c0:	e59f1034 	ldr	r1, [pc, #52]	; 2007fc <sw_uart_printk+0x78>
  2007c4:	e59f2034 	ldr	r2, [pc, #52]	; 200800 <sw_uart_printk+0x7c>
  2007c8:	e3a030ce 	mov	r3, #206	; 0xce
  2007cc:	eb000203 	bl	200fe0 <printk>
  2007d0:	ebfffe71 	bl	20019c <clean_reboot>
  2007d4:	e1a00005 	mov	r0, r5
  2007d8:	e28d1004 	add	r1, sp, #4
  2007dc:	ebffffdd 	bl	200758 <sw_uart_putk>
  2007e0:	e1a00004 	mov	r0, r4
  2007e4:	e28dde1d 	add	sp, sp, #464	; 0x1d0
  2007e8:	e8bd4030 	pop	{r4, r5, lr}
  2007ec:	e28dd00c 	add	sp, sp, #12
  2007f0:	e12fff1e 	bx	lr
  2007f4:	000001ca 	andeq	r0, r0, sl, asr #3
  2007f8:	002018c0 	eoreq	r1, r0, r0, asr #17
  2007fc:	0020182c 	eoreq	r1, r0, ip, lsr #16
  200800:	002017d4 	ldrdeq	r1, [r0], -r4	; <UNPREDICTABLE>

00200804 <sw_uart_gets_until_blk>:
  200804:	e52de004 	push	{lr}		; (str lr, [sp, #-4]!)
  200808:	e24dd00c 	sub	sp, sp, #12
  20080c:	e3e0c000 	mvn	ip, #0
  200810:	e58dc000 	str	ip, [sp]
  200814:	ebffff51 	bl	200560 <sw_uart_gets_until>
  200818:	e3500000 	cmp	r0, #0
  20081c:	aa000005 	bge	200838 <sw_uart_gets_until_blk+0x34>
  200820:	e59f0018 	ldr	r0, [pc, #24]	; 200840 <sw_uart_gets_until_blk+0x3c>
  200824:	e59f1018 	ldr	r1, [pc, #24]	; 200844 <sw_uart_gets_until_blk+0x40>
  200828:	e59f2018 	ldr	r2, [pc, #24]	; 200848 <sw_uart_gets_until_blk+0x44>
  20082c:	e3a030d6 	mov	r3, #214	; 0xd6
  200830:	eb0001ea 	bl	200fe0 <printk>
  200834:	ebfffe58 	bl	20019c <clean_reboot>
  200838:	e28dd00c 	add	sp, sp, #12
  20083c:	e49df004 	pop	{pc}		; (ldr pc, [sp], #4)
  200840:	00201888 	eoreq	r1, r0, r8, lsl #17
  200844:	0020182c 	eoreq	r1, r0, ip, lsr #16
  200848:	002017e4 	eoreq	r1, r0, r4, ror #15

0020084c <interrupt_vector>:
  20084c:	e92d4010 	push	{r4, lr}
  200850:	e59f30e0 	ldr	r3, [pc, #224]	; 200938 <interrupt_vector+0xec>
  200854:	e5933000 	ldr	r3, [r3]
  200858:	e3530000 	cmp	r3, #0
  20085c:	0a000005 	beq	200878 <interrupt_vector+0x2c>
  200860:	e59f00d4 	ldr	r0, [pc, #212]	; 20093c <interrupt_vector+0xf0>
  200864:	e59f10d4 	ldr	r1, [pc, #212]	; 200940 <interrupt_vector+0xf4>
  200868:	e59f20d4 	ldr	r2, [pc, #212]	; 200944 <interrupt_vector+0xf8>
  20086c:	e3a030dc 	mov	r3, #220	; 0xdc
  200870:	eb0001da 	bl	200fe0 <printk>
  200874:	ebfffe48 	bl	20019c <clean_reboot>
  200878:	e59f30b8 	ldr	r3, [pc, #184]	; 200938 <interrupt_vector+0xec>
  20087c:	e5932004 	ldr	r2, [r3, #4]
  200880:	e2822001 	add	r2, r2, #1
  200884:	e5832004 	str	r2, [r3, #4]
  200888:	e3a00031 	mov	r0, #49	; 0x31
  20088c:	eb00014f 	bl	200dd0 <is_gpio_int>
  200890:	e3500000 	cmp	r0, #0
  200894:	1a000003 	bne	2008a8 <interrupt_vector+0x5c>
  200898:	e3a00032 	mov	r0, #50	; 0x32
  20089c:	eb00014b 	bl	200dd0 <is_gpio_int>
  2008a0:	e3500000 	cmp	r0, #0
  2008a4:	0a000020 	beq	20092c <interrupt_vector+0xe0>
  2008a8:	e3a00014 	mov	r0, #20
  2008ac:	eb0000e0 	bl	200c34 <gpio_read>
  2008b0:	e3500000 	cmp	r0, #0
  2008b4:	1a000015 	bne	200910 <interrupt_vector+0xc4>
  2008b8:	e59f4078 	ldr	r4, [pc, #120]	; 200938 <interrupt_vector+0xec>
  2008bc:	e5941008 	ldr	r1, [r4, #8]
  2008c0:	e284000c 	add	r0, r4, #12
  2008c4:	ebfffed9 	bl	200430 <sw_uart_getc_timeout>
  2008c8:	e6ef0070 	uxtb	r0, r0
  2008cc:	e59f3074 	ldr	r3, [pc, #116]	; 200948 <interrupt_vector+0xfc>
  2008d0:	e7942003 	ldr	r2, [r4, r3]
  2008d4:	e7941003 	ldr	r1, [r4, r3]
  2008d8:	e2811001 	add	r1, r1, #1
  2008dc:	e1a01981 	lsl	r1, r1, #19
  2008e0:	e2833004 	add	r3, r3, #4
  2008e4:	e7943003 	ldr	r3, [r4, r3]
  2008e8:	e15309a1 	cmp	r3, r1, lsr #19
  2008ec:	0a00000e 	beq	20092c <interrupt_vector+0xe0>
  2008f0:	e0841002 	add	r1, r4, r2
  2008f4:	e5c10018 	strb	r0, [r1, #24]
  2008f8:	e2822001 	add	r2, r2, #1
  2008fc:	e1a02982 	lsl	r2, r2, #19
  200900:	e1a029a2 	lsr	r2, r2, #19
  200904:	e59f103c 	ldr	r1, [pc, #60]	; 200948 <interrupt_vector+0xfc>
  200908:	e7842001 	str	r2, [r4, r1]
  20090c:	ea000006 	b	20092c <interrupt_vector+0xe0>
  200910:	e3a00014 	mov	r0, #20
  200914:	eb0000c6 	bl	200c34 <gpio_read>
  200918:	e3500000 	cmp	r0, #0
  20091c:	c59f3028 	ldrgt	r3, [pc, #40]	; 20094c <interrupt_vector+0x100>
  200920:	c5932034 	ldrgt	r2, [r3, #52]	; 0x34
  200924:	c2822001 	addgt	r2, r2, #1
  200928:	c5832034 	strgt	r2, [r3, #52]	; 0x34
  20092c:	e3a00014 	mov	r0, #20
  200930:	eb000194 	bl	200f88 <gpio_event_clear>
  200934:	e8bd8010 	pop	{r4, pc}
  200938:	00201a18 	eoreq	r1, r0, r8, lsl sl
  20093c:	002018e4 	eoreq	r1, r0, r4, ror #17
  200940:	0020182c 	eoreq	r1, r0, ip, lsr #16
  200944:	002017fc 	strdeq	r1, [r0], -ip	; <UNPREDICTABLE>
  200948:	0000201c 	andeq	r2, r0, ip, lsl r0
  20094c:	00203a10 	eoreq	r3, r0, r0, lsl sl

00200950 <sw_uart_getc_int>:
  200950:	e92d43f8 	push	{r3, r4, r5, r6, r7, r8, r9, lr}
  200954:	e1a08001 	mov	r8, r1
  200958:	ebfffe3d 	bl	200254 <timer_get_usec_raw>
  20095c:	e1a07000 	mov	r7, r0
  200960:	e3a09000 	mov	r9, #0
  200964:	e59f4060 	ldr	r4, [pc, #96]	; 2009cc <sw_uart_getc_int+0x7c>
  200968:	e59f6060 	ldr	r6, [pc, #96]	; 2009d0 <sw_uart_getc_int+0x80>
  20096c:	e59f5060 	ldr	r5, [pc, #96]	; 2009d4 <sw_uart_getc_int+0x84>
  200970:	ea000010 	b	2009b8 <sw_uart_getc_int+0x68>
  200974:	e7942006 	ldr	r2, [r4, r6]
  200978:	e7943005 	ldr	r3, [r4, r5]
  20097c:	e1520003 	cmp	r2, r3
  200980:	0a00000b 	beq	2009b4 <sw_uart_getc_int+0x64>
  200984:	e7942006 	ldr	r2, [r4, r6]
  200988:	e7943005 	ldr	r3, [r4, r5]
  20098c:	e1520003 	cmp	r2, r3
  200990:	0a000007 	beq	2009b4 <sw_uart_getc_int+0x64>
  200994:	e7943005 	ldr	r3, [r4, r5]
  200998:	e0842003 	add	r2, r4, r3
  20099c:	e5d29018 	ldrb	r9, [r2, #24]
  2009a0:	e6ef9079 	uxtb	r9, r9
  2009a4:	e2833001 	add	r3, r3, #1
  2009a8:	e1a03983 	lsl	r3, r3, #19
  2009ac:	e1a039a3 	lsr	r3, r3, #19
  2009b0:	e7843005 	str	r3, [r4, r5]
  2009b4:	ebfffe26 	bl	200254 <timer_get_usec_raw>
  2009b8:	e0673000 	rsb	r3, r7, r0
  2009bc:	e1530008 	cmp	r3, r8
  2009c0:	3affffeb 	bcc	200974 <sw_uart_getc_int+0x24>
  2009c4:	e1a00009 	mov	r0, r9
  2009c8:	e8bd83f8 	pop	{r3, r4, r5, r6, r7, r8, r9, pc}
  2009cc:	00201a18 	eoreq	r1, r0, r8, lsl sl
  2009d0:	0000201c 	andeq	r2, r0, ip, lsl r0
  2009d4:	00002020 	andeq	r2, r0, r0, lsr #32

002009d8 <put32>:
  2009d8:	e5801000 	str	r1, [r0]
  2009dc:	e12fff1e 	bx	lr

002009e0 <PUT32>:
  2009e0:	e5801000 	str	r1, [r0]
  2009e4:	e12fff1e 	bx	lr

002009e8 <put16>:
  2009e8:	e1c010b0 	strh	r1, [r0]
  2009ec:	e12fff1e 	bx	lr

002009f0 <PUT16>:
  2009f0:	e1c010b0 	strh	r1, [r0]
  2009f4:	e12fff1e 	bx	lr

002009f8 <put8>:
  2009f8:	e5c01000 	strb	r1, [r0]
  2009fc:	e12fff1e 	bx	lr

00200a00 <PUT8>:
  200a00:	e5c01000 	strb	r1, [r0]
  200a04:	e12fff1e 	bx	lr

00200a08 <get32>:
  200a08:	e5900000 	ldr	r0, [r0]
  200a0c:	e12fff1e 	bx	lr

00200a10 <GET32>:
  200a10:	e5900000 	ldr	r0, [r0]
  200a14:	e12fff1e 	bx	lr

00200a18 <GETPC>:
  200a18:	e1a0000e 	mov	r0, lr
  200a1c:	e12fff1e 	bx	lr

00200a20 <dummy>:
  200a20:	e12fff1e 	bx	lr

00200a24 <gpio_set_output>:
  200a24:	e92d4038 	push	{r3, r4, r5, lr}
  200a28:	e1a04000 	mov	r4, r0
  200a2c:	e350001f 	cmp	r0, #31
  200a30:	88bd8038 	pophi	{r3, r4, r5, pc}
  200a34:	e59f30b4 	ldr	r3, [pc, #180]	; 200af0 <gpio_set_output+0xcc>
  200a38:	e0832093 	umull	r2, r3, r3, r0
  200a3c:	e1a031a3 	lsr	r3, r3, #3
  200a40:	e3530005 	cmp	r3, #5
  200a44:	979ff103 	ldrls	pc, [pc, r3, lsl #2]
  200a48:	ea000017 	b	200aac <gpio_set_output+0x88>
  200a4c:	00200a64 	eoreq	r0, r0, r4, ror #20
  200a50:	00200a70 	eoreq	r0, r0, r0, ror sl
  200a54:	00200a7c 	eoreq	r0, r0, ip, ror sl
  200a58:	00200a88 	eoreq	r0, r0, r8, lsl #21
  200a5c:	00200a94 	mlaeq	r0, r4, sl, r0
  200a60:	00200aa0 	eoreq	r0, r0, r0, lsr #21
  200a64:	e59f3088 	ldr	r3, [pc, #136]	; 200af4 <gpio_set_output+0xd0>
  200a68:	e5935000 	ldr	r5, [r3]
  200a6c:	ea00000f 	b	200ab0 <gpio_set_output+0x8c>
  200a70:	e59f307c 	ldr	r3, [pc, #124]	; 200af4 <gpio_set_output+0xd0>
  200a74:	e5935004 	ldr	r5, [r3, #4]
  200a78:	ea00000c 	b	200ab0 <gpio_set_output+0x8c>
  200a7c:	e59f3070 	ldr	r3, [pc, #112]	; 200af4 <gpio_set_output+0xd0>
  200a80:	e5935008 	ldr	r5, [r3, #8]
  200a84:	ea000009 	b	200ab0 <gpio_set_output+0x8c>
  200a88:	e59f3064 	ldr	r3, [pc, #100]	; 200af4 <gpio_set_output+0xd0>
  200a8c:	e593500c 	ldr	r5, [r3, #12]
  200a90:	ea000006 	b	200ab0 <gpio_set_output+0x8c>
  200a94:	e59f3058 	ldr	r3, [pc, #88]	; 200af4 <gpio_set_output+0xd0>
  200a98:	e5935010 	ldr	r5, [r3, #16]
  200a9c:	ea000003 	b	200ab0 <gpio_set_output+0x8c>
  200aa0:	e59f304c 	ldr	r3, [pc, #76]	; 200af4 <gpio_set_output+0xd0>
  200aa4:	e5935014 	ldr	r5, [r3, #20]
  200aa8:	ea000000 	b	200ab0 <gpio_set_output+0x8c>
  200aac:	e3a05000 	mov	r5, #0
  200ab0:	e1a00005 	mov	r0, r5
  200ab4:	ebffffd3 	bl	200a08 <get32>
  200ab8:	e59f1030 	ldr	r1, [pc, #48]	; 200af0 <gpio_set_output+0xcc>
  200abc:	e0813491 	umull	r3, r1, r1, r4
  200ac0:	e1a011a1 	lsr	r1, r1, #3
  200ac4:	e0811101 	add	r1, r1, r1, lsl #2
  200ac8:	e1a01081 	lsl	r1, r1, #1
  200acc:	e0611004 	rsb	r1, r1, r4
  200ad0:	e0811081 	add	r1, r1, r1, lsl #1
  200ad4:	e3a03007 	mov	r3, #7
  200ad8:	e1c03113 	bic	r3, r0, r3, lsl r1
  200adc:	e1a00005 	mov	r0, r5
  200ae0:	e3a02001 	mov	r2, #1
  200ae4:	e1831112 	orr	r1, r3, r2, lsl r1
  200ae8:	ebffffba 	bl	2009d8 <put32>
  200aec:	e8bd8038 	pop	{r3, r4, r5, pc}
  200af0:	cccccccd 	stclgt	12, cr12, [ip], {205}	; 0xcd
  200af4:	002016dc 	ldrdeq	r1, [r0], -ip	; <UNPREDICTABLE>

00200af8 <gpio_set_on>:
  200af8:	e92d4008 	push	{r3, lr}
  200afc:	e350001f 	cmp	r0, #31
  200b00:	88bd8008 	pophi	{r3, pc}
  200b04:	959f3020 	ldrls	r3, [pc, #32]	; 200b2c <gpio_set_on+0x34>
  200b08:	95932018 	ldrls	r2, [r3, #24]
  200b0c:	859f3018 	ldrhi	r3, [pc, #24]	; 200b2c <gpio_set_on+0x34>
  200b10:	8593201c 	ldrhi	r2, [r3, #28]
  200b14:	e200301f 	and	r3, r0, #31
  200b18:	e1a00002 	mov	r0, r2
  200b1c:	e3a01001 	mov	r1, #1
  200b20:	e1a01311 	lsl	r1, r1, r3
  200b24:	ebffffab 	bl	2009d8 <put32>
  200b28:	e8bd8008 	pop	{r3, pc}
  200b2c:	002016dc 	ldrdeq	r1, [r0], -ip	; <UNPREDICTABLE>

00200b30 <gpio_set_off>:
  200b30:	e92d4008 	push	{r3, lr}
  200b34:	e350001f 	cmp	r0, #31
  200b38:	88bd8008 	pophi	{r3, pc}
  200b3c:	959f3020 	ldrls	r3, [pc, #32]	; 200b64 <gpio_set_off+0x34>
  200b40:	95932020 	ldrls	r2, [r3, #32]
  200b44:	859f3018 	ldrhi	r3, [pc, #24]	; 200b64 <gpio_set_off+0x34>
  200b48:	85932024 	ldrhi	r2, [r3, #36]	; 0x24
  200b4c:	e200301f 	and	r3, r0, #31
  200b50:	e1a00002 	mov	r0, r2
  200b54:	e3a01001 	mov	r1, #1
  200b58:	e1a01311 	lsl	r1, r1, r3
  200b5c:	ebffff9d 	bl	2009d8 <put32>
  200b60:	e8bd8008 	pop	{r3, pc}
  200b64:	002016dc 	ldrdeq	r1, [r0], -ip	; <UNPREDICTABLE>

00200b68 <gpio_set_input>:
  200b68:	e92d4038 	push	{r3, r4, r5, lr}
  200b6c:	e1a04000 	mov	r4, r0
  200b70:	e350001f 	cmp	r0, #31
  200b74:	88bd8038 	pophi	{r3, r4, r5, pc}
  200b78:	e59f30ac 	ldr	r3, [pc, #172]	; 200c2c <gpio_set_input+0xc4>
  200b7c:	e0832093 	umull	r2, r3, r3, r0
  200b80:	e1a031a3 	lsr	r3, r3, #3
  200b84:	e3530005 	cmp	r3, #5
  200b88:	979ff103 	ldrls	pc, [pc, r3, lsl #2]
  200b8c:	ea000017 	b	200bf0 <gpio_set_input+0x88>
  200b90:	00200ba8 	eoreq	r0, r0, r8, lsr #23
  200b94:	00200bb4 	strhteq	r0, [r0], -r4
  200b98:	00200bc0 	eoreq	r0, r0, r0, asr #23
  200b9c:	00200bcc 	eoreq	r0, r0, ip, asr #23
  200ba0:	00200bd8 	ldrdeq	r0, [r0], -r8	; <UNPREDICTABLE>
  200ba4:	00200be4 	eoreq	r0, r0, r4, ror #23
  200ba8:	e59f3080 	ldr	r3, [pc, #128]	; 200c30 <gpio_set_input+0xc8>
  200bac:	e5935000 	ldr	r5, [r3]
  200bb0:	ea00000f 	b	200bf4 <gpio_set_input+0x8c>
  200bb4:	e59f3074 	ldr	r3, [pc, #116]	; 200c30 <gpio_set_input+0xc8>
  200bb8:	e5935004 	ldr	r5, [r3, #4]
  200bbc:	ea00000c 	b	200bf4 <gpio_set_input+0x8c>
  200bc0:	e59f3068 	ldr	r3, [pc, #104]	; 200c30 <gpio_set_input+0xc8>
  200bc4:	e5935008 	ldr	r5, [r3, #8]
  200bc8:	ea000009 	b	200bf4 <gpio_set_input+0x8c>
  200bcc:	e59f305c 	ldr	r3, [pc, #92]	; 200c30 <gpio_set_input+0xc8>
  200bd0:	e593500c 	ldr	r5, [r3, #12]
  200bd4:	ea000006 	b	200bf4 <gpio_set_input+0x8c>
  200bd8:	e59f3050 	ldr	r3, [pc, #80]	; 200c30 <gpio_set_input+0xc8>
  200bdc:	e5935010 	ldr	r5, [r3, #16]
  200be0:	ea000003 	b	200bf4 <gpio_set_input+0x8c>
  200be4:	e59f3044 	ldr	r3, [pc, #68]	; 200c30 <gpio_set_input+0xc8>
  200be8:	e5935014 	ldr	r5, [r3, #20]
  200bec:	ea000000 	b	200bf4 <gpio_set_input+0x8c>
  200bf0:	e3a05000 	mov	r5, #0
  200bf4:	e1a00005 	mov	r0, r5
  200bf8:	ebffff82 	bl	200a08 <get32>
  200bfc:	e59f1028 	ldr	r1, [pc, #40]	; 200c2c <gpio_set_input+0xc4>
  200c00:	e0813491 	umull	r3, r1, r1, r4
  200c04:	e1a011a1 	lsr	r1, r1, #3
  200c08:	e0811101 	add	r1, r1, r1, lsl #2
  200c0c:	e1a01081 	lsl	r1, r1, #1
  200c10:	e0611004 	rsb	r1, r1, r4
  200c14:	e0811081 	add	r1, r1, r1, lsl #1
  200c18:	e3a03007 	mov	r3, #7
  200c1c:	e1c01113 	bic	r1, r0, r3, lsl r1
  200c20:	e1a00005 	mov	r0, r5
  200c24:	ebffff6b 	bl	2009d8 <put32>
  200c28:	e8bd8038 	pop	{r3, r4, r5, pc}
  200c2c:	cccccccd 	stclgt	12, cr12, [ip], {205}	; 0xcd
  200c30:	002016dc 	ldrdeq	r1, [r0], -ip	; <UNPREDICTABLE>

00200c34 <gpio_read>:
  200c34:	e92d4010 	push	{r4, lr}
  200c38:	e1a04000 	mov	r4, r0
  200c3c:	e350001f 	cmp	r0, #31
  200c40:	8a00000b 	bhi	200c74 <gpio_read+0x40>
  200c44:	8a000003 	bhi	200c58 <gpio_read+0x24>
  200c48:	e59f302c 	ldr	r3, [pc, #44]	; 200c7c <gpio_read+0x48>
  200c4c:	e5930028 	ldr	r0, [r3, #40]	; 0x28
  200c50:	ebffff6c 	bl	200a08 <get32>
  200c54:	ea000002 	b	200c64 <gpio_read+0x30>
  200c58:	e59f301c 	ldr	r3, [pc, #28]	; 200c7c <gpio_read+0x48>
  200c5c:	e593002c 	ldr	r0, [r3, #44]	; 0x2c
  200c60:	ebffff68 	bl	200a08 <get32>
  200c64:	e204401f 	and	r4, r4, #31
  200c68:	e3a03001 	mov	r3, #1
  200c6c:	e0000413 	and	r0, r0, r3, lsl r4
  200c70:	e8bd8010 	pop	{r4, pc}
  200c74:	e3e00000 	mvn	r0, #0
  200c78:	e8bd8010 	pop	{r4, pc}
  200c7c:	002016dc 	ldrdeq	r1, [r0], -ip	; <UNPREDICTABLE>

00200c80 <gpio_write>:
  200c80:	e92d4008 	push	{r3, lr}
  200c84:	e350001f 	cmp	r0, #31
  200c88:	88bd8008 	pophi	{r3, pc}
  200c8c:	e3510000 	cmp	r1, #0
  200c90:	0a00000b 	beq	200cc4 <gpio_write+0x44>
  200c94:	e350001f 	cmp	r0, #31
  200c98:	88bd8008 	pophi	{r3, pc}
  200c9c:	959f3050 	ldrls	r3, [pc, #80]	; 200cf4 <gpio_write+0x74>
  200ca0:	95932018 	ldrls	r2, [r3, #24]
  200ca4:	859f3048 	ldrhi	r3, [pc, #72]	; 200cf4 <gpio_write+0x74>
  200ca8:	8593201c 	ldrhi	r2, [r3, #28]
  200cac:	e200301f 	and	r3, r0, #31
  200cb0:	e1a00002 	mov	r0, r2
  200cb4:	e3a01001 	mov	r1, #1
  200cb8:	e1a01311 	lsl	r1, r1, r3
  200cbc:	ebffff45 	bl	2009d8 <put32>
  200cc0:	e8bd8008 	pop	{r3, pc}
  200cc4:	e350001f 	cmp	r0, #31
  200cc8:	88bd8008 	pophi	{r3, pc}
  200ccc:	959f3020 	ldrls	r3, [pc, #32]	; 200cf4 <gpio_write+0x74>
  200cd0:	95932020 	ldrls	r2, [r3, #32]
  200cd4:	859f3018 	ldrhi	r3, [pc, #24]	; 200cf4 <gpio_write+0x74>
  200cd8:	85932024 	ldrhi	r2, [r3, #36]	; 0x24
  200cdc:	e200301f 	and	r3, r0, #31
  200ce0:	e1a00002 	mov	r0, r2
  200ce4:	e3a01001 	mov	r1, #1
  200ce8:	e1a01311 	lsl	r1, r1, r3
  200cec:	ebffff39 	bl	2009d8 <put32>
  200cf0:	e8bd8008 	pop	{r3, pc}
  200cf4:	002016dc 	ldrdeq	r1, [r0], -ip	; <UNPREDICTABLE>

00200cf8 <gpio_set_function>:
  200cf8:	e92d4070 	push	{r4, r5, r6, lr}
  200cfc:	e1a04000 	mov	r4, r0
  200d00:	e1a05001 	mov	r5, r1
  200d04:	e3510007 	cmp	r1, #7
  200d08:	9350001f 	cmpls	r0, #31
  200d0c:	88bd8070 	pophi	{r4, r5, r6, pc}
  200d10:	e59f30b0 	ldr	r3, [pc, #176]	; 200dc8 <gpio_set_function+0xd0>
  200d14:	e0832093 	umull	r2, r3, r3, r0
  200d18:	e1a031a3 	lsr	r3, r3, #3
  200d1c:	e3530005 	cmp	r3, #5
  200d20:	979ff103 	ldrls	pc, [pc, r3, lsl #2]
  200d24:	ea000017 	b	200d88 <gpio_set_function+0x90>
  200d28:	00200d40 	eoreq	r0, r0, r0, asr #26
  200d2c:	00200d4c 	eoreq	r0, r0, ip, asr #26
  200d30:	00200d58 	eoreq	r0, r0, r8, asr sp
  200d34:	00200d64 	eoreq	r0, r0, r4, ror #26
  200d38:	00200d70 	eoreq	r0, r0, r0, ror sp
  200d3c:	00200d7c 	eoreq	r0, r0, ip, ror sp
  200d40:	e59f3084 	ldr	r3, [pc, #132]	; 200dcc <gpio_set_function+0xd4>
  200d44:	e5936000 	ldr	r6, [r3]
  200d48:	ea00000f 	b	200d8c <gpio_set_function+0x94>
  200d4c:	e59f3078 	ldr	r3, [pc, #120]	; 200dcc <gpio_set_function+0xd4>
  200d50:	e5936004 	ldr	r6, [r3, #4]
  200d54:	ea00000c 	b	200d8c <gpio_set_function+0x94>
  200d58:	e59f306c 	ldr	r3, [pc, #108]	; 200dcc <gpio_set_function+0xd4>
  200d5c:	e5936008 	ldr	r6, [r3, #8]
  200d60:	ea000009 	b	200d8c <gpio_set_function+0x94>
  200d64:	e59f3060 	ldr	r3, [pc, #96]	; 200dcc <gpio_set_function+0xd4>
  200d68:	e593600c 	ldr	r6, [r3, #12]
  200d6c:	ea000006 	b	200d8c <gpio_set_function+0x94>
  200d70:	e59f3054 	ldr	r3, [pc, #84]	; 200dcc <gpio_set_function+0xd4>
  200d74:	e5936010 	ldr	r6, [r3, #16]
  200d78:	ea000003 	b	200d8c <gpio_set_function+0x94>
  200d7c:	e59f3048 	ldr	r3, [pc, #72]	; 200dcc <gpio_set_function+0xd4>
  200d80:	e5936014 	ldr	r6, [r3, #20]
  200d84:	ea000000 	b	200d8c <gpio_set_function+0x94>
  200d88:	e3a06000 	mov	r6, #0
  200d8c:	e1a00006 	mov	r0, r6
  200d90:	ebffff1c 	bl	200a08 <get32>
  200d94:	e59f302c 	ldr	r3, [pc, #44]	; 200dc8 <gpio_set_function+0xd0>
  200d98:	e0832493 	umull	r2, r3, r3, r4
  200d9c:	e1a031a3 	lsr	r3, r3, #3
  200da0:	e0833103 	add	r3, r3, r3, lsl #2
  200da4:	e1a03083 	lsl	r3, r3, #1
  200da8:	e0633004 	rsb	r3, r3, r4
  200dac:	e0833083 	add	r3, r3, r3, lsl #1
  200db0:	e3a01007 	mov	r1, #7
  200db4:	e1c01311 	bic	r1, r0, r1, lsl r3
  200db8:	e1a00006 	mov	r0, r6
  200dbc:	e1811315 	orr	r1, r1, r5, lsl r3
  200dc0:	ebffff04 	bl	2009d8 <put32>
  200dc4:	e8bd8070 	pop	{r4, r5, r6, pc}
  200dc8:	cccccccd 	stclgt	12, cr12, [ip], {205}	; 0xcd
  200dcc:	002016dc 	ldrdeq	r1, [r0], -ip	; <UNPREDICTABLE>

00200dd0 <is_gpio_int>:
  200dd0:	e92d4008 	push	{r3, lr}
  200dd4:	e59f301c 	ldr	r3, [pc, #28]	; 200df8 <is_gpio_int+0x28>
  200dd8:	e5930030 	ldr	r0, [r3, #48]	; 0x30
  200ddc:	ebffff09 	bl	200a08 <get32>
  200de0:	e3500000 	cmp	r0, #0
  200de4:	0a000001 	beq	200df0 <is_gpio_int+0x20>
  200de8:	e3a00001 	mov	r0, #1
  200dec:	e8bd8008 	pop	{r3, pc}
  200df0:	e3a00000 	mov	r0, #0
  200df4:	e8bd8008 	pop	{r3, pc}
  200df8:	002016dc 	ldrdeq	r1, [r0], -ip	; <UNPREDICTABLE>

00200dfc <gpio_int_rising_edge>:
  200dfc:	e92d4038 	push	{r3, r4, r5, lr}
  200e00:	e1a04000 	mov	r4, r0
  200e04:	e350001f 	cmp	r0, #31
  200e08:	88bd8038 	pophi	{r3, r4, r5, pc}
  200e0c:	eb0001d2 	bl	20155c <dev_barrier>
  200e10:	e354001f 	cmp	r4, #31
  200e14:	8a000007 	bhi	200e38 <gpio_int_rising_edge+0x3c>
  200e18:	e59f505c 	ldr	r5, [pc, #92]	; 200e7c <gpio_int_rising_edge+0x80>
  200e1c:	e5950034 	ldr	r0, [r5, #52]	; 0x34
  200e20:	ebfffef8 	bl	200a08 <get32>
  200e24:	e3a01001 	mov	r1, #1
  200e28:	e1801411 	orr	r1, r0, r1, lsl r4
  200e2c:	e5950034 	ldr	r0, [r5, #52]	; 0x34
  200e30:	ebfffee8 	bl	2009d8 <put32>
  200e34:	ea000007 	b	200e58 <gpio_int_rising_edge+0x5c>
  200e38:	e59f503c 	ldr	r5, [pc, #60]	; 200e7c <gpio_int_rising_edge+0x80>
  200e3c:	e5950038 	ldr	r0, [r5, #56]	; 0x38
  200e40:	ebfffef0 	bl	200a08 <get32>
  200e44:	e204401f 	and	r4, r4, #31
  200e48:	e3a01001 	mov	r1, #1
  200e4c:	e1801411 	orr	r1, r0, r1, lsl r4
  200e50:	e5950038 	ldr	r0, [r5, #56]	; 0x38
  200e54:	ebfffedf 	bl	2009d8 <put32>
  200e58:	eb0001bf 	bl	20155c <dev_barrier>
  200e5c:	e59f4018 	ldr	r4, [pc, #24]	; 200e7c <gpio_int_rising_edge+0x80>
  200e60:	e594003c 	ldr	r0, [r4, #60]	; 0x3c
  200e64:	ebfffee7 	bl	200a08 <get32>
  200e68:	e3801802 	orr	r1, r0, #131072	; 0x20000
  200e6c:	e594003c 	ldr	r0, [r4, #60]	; 0x3c
  200e70:	ebfffed8 	bl	2009d8 <put32>
  200e74:	eb0001b8 	bl	20155c <dev_barrier>
  200e78:	e8bd8038 	pop	{r3, r4, r5, pc}
  200e7c:	002016dc 	ldrdeq	r1, [r0], -ip	; <UNPREDICTABLE>

00200e80 <gpio_int_falling_edge>:
  200e80:	e92d4038 	push	{r3, r4, r5, lr}
  200e84:	e1a04000 	mov	r4, r0
  200e88:	e350001f 	cmp	r0, #31
  200e8c:	88bd8038 	pophi	{r3, r4, r5, pc}
  200e90:	eb0001b1 	bl	20155c <dev_barrier>
  200e94:	e354001f 	cmp	r4, #31
  200e98:	8a000007 	bhi	200ebc <gpio_int_falling_edge+0x3c>
  200e9c:	e59f505c 	ldr	r5, [pc, #92]	; 200f00 <gpio_int_falling_edge+0x80>
  200ea0:	e5950040 	ldr	r0, [r5, #64]	; 0x40
  200ea4:	ebfffed7 	bl	200a08 <get32>
  200ea8:	e3a01001 	mov	r1, #1
  200eac:	e1801411 	orr	r1, r0, r1, lsl r4
  200eb0:	e5950040 	ldr	r0, [r5, #64]	; 0x40
  200eb4:	ebfffec7 	bl	2009d8 <put32>
  200eb8:	ea000007 	b	200edc <gpio_int_falling_edge+0x5c>
  200ebc:	e59f503c 	ldr	r5, [pc, #60]	; 200f00 <gpio_int_falling_edge+0x80>
  200ec0:	e5950044 	ldr	r0, [r5, #68]	; 0x44
  200ec4:	ebfffecf 	bl	200a08 <get32>
  200ec8:	e204401f 	and	r4, r4, #31
  200ecc:	e3a01001 	mov	r1, #1
  200ed0:	e1801411 	orr	r1, r0, r1, lsl r4
  200ed4:	e5950044 	ldr	r0, [r5, #68]	; 0x44
  200ed8:	ebfffebe 	bl	2009d8 <put32>
  200edc:	eb00019e 	bl	20155c <dev_barrier>
  200ee0:	e59f4018 	ldr	r4, [pc, #24]	; 200f00 <gpio_int_falling_edge+0x80>
  200ee4:	e594003c 	ldr	r0, [r4, #60]	; 0x3c
  200ee8:	ebfffec6 	bl	200a08 <get32>
  200eec:	e3801601 	orr	r1, r0, #1048576	; 0x100000
  200ef0:	e594003c 	ldr	r0, [r4, #60]	; 0x3c
  200ef4:	ebfffeb7 	bl	2009d8 <put32>
  200ef8:	eb000197 	bl	20155c <dev_barrier>
  200efc:	e8bd8038 	pop	{r3, r4, r5, pc}
  200f00:	002016dc 	ldrdeq	r1, [r0], -ip	; <UNPREDICTABLE>

00200f04 <gpio_event_detected>:
  200f04:	e92d4010 	push	{r4, lr}
  200f08:	e1a04000 	mov	r4, r0
  200f0c:	e350001f 	cmp	r0, #31
  200f10:	8a000019 	bhi	200f7c <gpio_event_detected+0x78>
  200f14:	eb000190 	bl	20155c <dev_barrier>
  200f18:	e354001f 	cmp	r4, #31
  200f1c:	8a000008 	bhi	200f44 <gpio_event_detected+0x40>
  200f20:	e59f305c 	ldr	r3, [pc, #92]	; 200f84 <gpio_event_detected+0x80>
  200f24:	e5930048 	ldr	r0, [r3, #72]	; 0x48
  200f28:	ebfffeb6 	bl	200a08 <get32>
  200f2c:	e3a03001 	mov	r3, #1
  200f30:	e0103413 	ands	r3, r0, r3, lsl r4
  200f34:	0a00000d 	beq	200f70 <gpio_event_detected+0x6c>
  200f38:	eb000187 	bl	20155c <dev_barrier>
  200f3c:	e3a00001 	mov	r0, #1
  200f40:	e8bd8010 	pop	{r4, pc}
  200f44:	e59f3038 	ldr	r3, [pc, #56]	; 200f84 <gpio_event_detected+0x80>
  200f48:	e593004c 	ldr	r0, [r3, #76]	; 0x4c
  200f4c:	ebfffead 	bl	200a08 <get32>
  200f50:	e3a03001 	mov	r3, #1
  200f54:	e0004413 	and	r4, r0, r3, lsl r4
  200f58:	eb00017f 	bl	20155c <dev_barrier>
  200f5c:	e3540000 	cmp	r4, #0
  200f60:	0a000002 	beq	200f70 <gpio_event_detected+0x6c>
  200f64:	eb00017c 	bl	20155c <dev_barrier>
  200f68:	e3a00001 	mov	r0, #1
  200f6c:	e8bd8010 	pop	{r4, pc}
  200f70:	eb000179 	bl	20155c <dev_barrier>
  200f74:	e3a00000 	mov	r0, #0
  200f78:	e8bd8010 	pop	{r4, pc}
  200f7c:	e3e00000 	mvn	r0, #0
  200f80:	e8bd8010 	pop	{r4, pc}
  200f84:	002016dc 	ldrdeq	r1, [r0], -ip	; <UNPREDICTABLE>

00200f88 <gpio_event_clear>:
  200f88:	e92d4010 	push	{r4, lr}
  200f8c:	e1a04000 	mov	r4, r0
  200f90:	e350001f 	cmp	r0, #31
  200f94:	88bd8010 	pophi	{r4, pc}
  200f98:	eb00016f 	bl	20155c <dev_barrier>
  200f9c:	e354001f 	cmp	r4, #31
  200fa0:	8a000005 	bhi	200fbc <gpio_event_clear+0x34>
  200fa4:	e59f3030 	ldr	r3, [pc, #48]	; 200fdc <gpio_event_clear+0x54>
  200fa8:	e5930048 	ldr	r0, [r3, #72]	; 0x48
  200fac:	e3a01001 	mov	r1, #1
  200fb0:	e1a01411 	lsl	r1, r1, r4
  200fb4:	ebfffe87 	bl	2009d8 <put32>
  200fb8:	ea000005 	b	200fd4 <gpio_event_clear+0x4c>
  200fbc:	e204401f 	and	r4, r4, #31
  200fc0:	e59f3014 	ldr	r3, [pc, #20]	; 200fdc <gpio_event_clear+0x54>
  200fc4:	e593004c 	ldr	r0, [r3, #76]	; 0x4c
  200fc8:	e3a01001 	mov	r1, #1
  200fcc:	e1a01411 	lsl	r1, r1, r4
  200fd0:	ebfffe80 	bl	2009d8 <put32>
  200fd4:	eb000160 	bl	20155c <dev_barrier>
  200fd8:	e8bd8010 	pop	{r4, pc}
  200fdc:	002016dc 	ldrdeq	r1, [r0], -ip	; <UNPREDICTABLE>

00200fe0 <printk>:
  200fe0:	e92d000f 	push	{r0, r1, r2, r3}
  200fe4:	e92d4030 	push	{r4, r5, lr}
  200fe8:	e24dd00c 	sub	sp, sp, #12
  200fec:	e28d301c 	add	r3, sp, #28
  200ff0:	e58d3004 	str	r3, [sp, #4]
  200ff4:	e59f4034 	ldr	r4, [pc, #52]	; 201030 <printk+0x50>
  200ff8:	e1a00004 	mov	r0, r4
  200ffc:	e3a01b01 	mov	r1, #1024	; 0x400
  201000:	e59d2018 	ldr	r2, [sp, #24]
  201004:	eb0000b2 	bl	2012d4 <va_printk>
  201008:	e1a05000 	mov	r5, r0
  20100c:	e59f3020 	ldr	r3, [pc, #32]	; 201034 <printk+0x54>
  201010:	e5933000 	ldr	r3, [r3]
  201014:	e1a00004 	mov	r0, r4
  201018:	e12fff33 	blx	r3
  20101c:	e1a00005 	mov	r0, r5
  201020:	e28dd00c 	add	sp, sp, #12
  201024:	e8bd4030 	pop	{r4, r5, lr}
  201028:	e28dd010 	add	sp, sp, #16
  20102c:	e12fff1e 	bx	lr
  201030:	00203a50 	eoreq	r3, r0, r0, asr sl
  201034:	0020173c 	eoreq	r1, r0, ip, lsr r7

00201038 <internal_putk>:
  201038:	e92d4038 	push	{r3, r4, r5, lr}
  20103c:	e1a04000 	mov	r4, r0
  201040:	e59f5020 	ldr	r5, [pc, #32]	; 201068 <internal_putk+0x30>
  201044:	ea000002 	b	201054 <internal_putk+0x1c>
  201048:	e5953000 	ldr	r3, [r5]
  20104c:	e12fff33 	blx	r3
  201050:	e2844001 	add	r4, r4, #1
  201054:	e5d40000 	ldrb	r0, [r4]
  201058:	e3500000 	cmp	r0, #0
  20105c:	1afffff9 	bne	201048 <internal_putk+0x10>
  201060:	e3a00001 	mov	r0, #1
  201064:	e8bd8038 	pop	{r3, r4, r5, pc}
  201068:	00201740 	eoreq	r1, r0, r0, asr #14

0020106c <isdigit>:
  20106c:	e2400030 	sub	r0, r0, #48	; 0x30
  201070:	e3500009 	cmp	r0, #9
  201074:	83a00000 	movhi	r0, #0
  201078:	93a00001 	movls	r0, #1
  20107c:	e12fff1e 	bx	lr

00201080 <pad>:
  201080:	e0611000 	rsb	r1, r1, r0
  201084:	e3a03020 	mov	r3, #32
  201088:	ea000002 	b	201098 <pad+0x18>
  20108c:	e5c03000 	strb	r3, [r0]
  201090:	e2811001 	add	r1, r1, #1
  201094:	e2800001 	add	r0, r0, #1
  201098:	e1510002 	cmp	r1, r2
  20109c:	bafffffa 	blt	20108c <pad+0xc>
  2010a0:	e3a03000 	mov	r3, #0
  2010a4:	e5c03000 	strb	r3, [r0]
  2010a8:	e12fff1e 	bx	lr

002010ac <reverse>:
  2010ac:	e063c002 	rsb	ip, r3, r2
  2010b0:	e28cc001 	add	ip, ip, #1
  2010b4:	e15c0001 	cmp	ip, r1
  2010b8:	c061100c 	rsbgt	r1, r1, ip
  2010bc:	c0833001 	addgt	r3, r3, r1
  2010c0:	e2422001 	sub	r2, r2, #1
  2010c4:	e1a01000 	mov	r1, r0
  2010c8:	ea000002 	b	2010d8 <reverse+0x2c>
  2010cc:	e452c001 	ldrb	ip, [r2], #-1
  2010d0:	e5c1c000 	strb	ip, [r1]
  2010d4:	e2811001 	add	r1, r1, #1
  2010d8:	e1520003 	cmp	r2, r3
  2010dc:	2afffffa 	bcs	2010cc <reverse+0x20>
  2010e0:	e3a03000 	mov	r3, #0
  2010e4:	e5c13000 	strb	r3, [r1]
  2010e8:	e12fff1e 	bx	lr

002010ec <emit>:
  2010ec:	e92d41f0 	push	{r4, r5, r6, r7, r8, lr}
  2010f0:	e24dd040 	sub	sp, sp, #64	; 0x40
  2010f4:	e1a05001 	mov	r5, r1
  2010f8:	e1a04002 	mov	r4, r2
  2010fc:	e59d2058 	ldr	r2, [sp, #88]	; 0x58
  201100:	e1520004 	cmp	r2, r4
  201104:	c2442001 	subgt	r2, r4, #1
  201108:	e1a0c003 	mov	ip, r3
  20110c:	e2400002 	sub	r0, r0, #2
  201110:	e350000e 	cmp	r0, #14
  201114:	979ff100 	ldrls	pc, [pc, r0, lsl #2]
  201118:	ea000042 	b	201228 <emit+0x13c>
  20111c:	00201200 	eoreq	r1, r0, r0, lsl #4
  201120:	00201228 	eoreq	r1, r0, r8, lsr #4
  201124:	00201228 	eoreq	r1, r0, r8, lsr #4
  201128:	00201228 	eoreq	r1, r0, r8, lsr #4
  20112c:	00201228 	eoreq	r1, r0, r8, lsr #4
  201130:	00201228 	eoreq	r1, r0, r8, lsr #4
  201134:	002011f4 	strdeq	r1, [r0], -r4	; <UNPREDICTABLE>
  201138:	00201228 	eoreq	r1, r0, r8, lsr #4
  20113c:	00201158 	eoreq	r1, r0, r8, asr r1
  201140:	00201228 	eoreq	r1, r0, r8, lsr #4
  201144:	00201228 	eoreq	r1, r0, r8, lsr #4
  201148:	00201228 	eoreq	r1, r0, r8, lsr #4
  20114c:	00201228 	eoreq	r1, r0, r8, lsr #4
  201150:	00201228 	eoreq	r1, r0, r8, lsr #4
  201154:	002011cc 	eoreq	r1, r0, ip, asr #3
  201158:	e59d105c 	ldr	r1, [sp, #92]	; 0x5c
  20115c:	e2911000 	adds	r1, r1, #0
  201160:	13a01001 	movne	r1, #1
  201164:	e0111fa3 	ands	r1, r1, r3, lsr #31
  201168:	1263c000 	rsbne	ip, r3, #0
  20116c:	13a08001 	movne	r8, #1
  201170:	03a08000 	moveq	r8, #0
  201174:	e1a0100d 	mov	r1, sp
  201178:	e59f70e8 	ldr	r7, [pc, #232]	; 201268 <emit+0x17c>
  20117c:	e59f60e8 	ldr	r6, [pc, #232]	; 20126c <emit+0x180>
  201180:	ea000000 	b	201188 <emit+0x9c>
  201184:	e1a01003 	mov	r1, r3
  201188:	e2813001 	add	r3, r1, #1
  20118c:	e08e0c97 	umull	r0, lr, r7, ip
  201190:	e1a0e1ae 	lsr	lr, lr, #3
  201194:	e1a0000e 	mov	r0, lr
  201198:	e08ee10e 	add	lr, lr, lr, lsl #2
  20119c:	e1a0e08e 	lsl	lr, lr, #1
  2011a0:	e06ee00c 	rsb	lr, lr, ip
  2011a4:	e7d6c00e 	ldrb	ip, [r6, lr]
  2011a8:	e5c1c000 	strb	ip, [r1]
  2011ac:	e1a0c000 	mov	ip, r0
  2011b0:	e3500000 	cmp	r0, #0
  2011b4:	1afffff2 	bne	201184 <emit+0x98>
  2011b8:	e3580000 	cmp	r8, #0
  2011bc:	12813002 	addne	r3, r1, #2
  2011c0:	13a0002d 	movne	r0, #45	; 0x2d
  2011c4:	15c10001 	strbne	r0, [r1, #1]
  2011c8:	ea00001c 	b	201240 <emit+0x154>
  2011cc:	e1a0e00d 	mov	lr, sp
  2011d0:	e59f0098 	ldr	r0, [pc, #152]	; 201270 <emit+0x184>
  2011d4:	e28e3001 	add	r3, lr, #1
  2011d8:	e20c100f 	and	r1, ip, #15
  2011dc:	e7d01001 	ldrb	r1, [r0, r1]
  2011e0:	e5ce1000 	strb	r1, [lr]
  2011e4:	e1a0e003 	mov	lr, r3
  2011e8:	e1b0c22c 	lsrs	ip, ip, #4
  2011ec:	1afffff8 	bne	2011d4 <emit+0xe8>
  2011f0:	ea000012 	b	201240 <emit+0x154>
  2011f4:	e5cd3000 	strb	r3, [sp]
  2011f8:	e28d3001 	add	r3, sp, #1
  2011fc:	ea00000f 	b	201240 <emit+0x154>
  201200:	e1a0e00d 	mov	lr, sp
  201204:	e59f0068 	ldr	r0, [pc, #104]	; 201274 <emit+0x188>
  201208:	e28e3001 	add	r3, lr, #1
  20120c:	e20c1001 	and	r1, ip, #1
  201210:	e7d01001 	ldrb	r1, [r0, r1]
  201214:	e5ce1000 	strb	r1, [lr]
  201218:	e1a0e003 	mov	lr, r3
  20121c:	e1b0c0ac 	lsrs	ip, ip, #1
  201220:	1afffff8 	bne	201208 <emit+0x11c>
  201224:	ea000005 	b	201240 <emit+0x154>
  201228:	e59f0048 	ldr	r0, [pc, #72]	; 201278 <emit+0x18c>
  20122c:	e59f1048 	ldr	r1, [pc, #72]	; 20127c <emit+0x190>
  201230:	e59f2048 	ldr	r2, [pc, #72]	; 201280 <emit+0x194>
  201234:	e3a03075 	mov	r3, #117	; 0x75
  201238:	ebffff68 	bl	200fe0 <printk>
  20123c:	ebfffbd6 	bl	20019c <clean_reboot>
  201240:	e1a00003 	mov	r0, r3
  201244:	e1a0100d 	mov	r1, sp
  201248:	ebffff8c 	bl	201080 <pad>
  20124c:	e1a02000 	mov	r2, r0
  201250:	e1a00005 	mov	r0, r5
  201254:	e1a01004 	mov	r1, r4
  201258:	e1a0300d 	mov	r3, sp
  20125c:	ebffff92 	bl	2010ac <reverse>
  201260:	e28dd040 	add	sp, sp, #64	; 0x40
  201264:	e8bd81f0 	pop	{r4, r5, r6, r7, r8, pc}
  201268:	cccccccd 	stclgt	12, cr12, [ip], {205}	; 0xcd
  20126c:	00201944 	eoreq	r1, r0, r4, asr #18
  201270:	00201950 	eoreq	r1, r0, r0, asr r9
  201274:	00201964 	eoreq	r1, r0, r4, ror #18
  201278:	0020191c 	eoreq	r1, r0, ip, lsl r9
  20127c:	00201930 	eoreq	r1, r0, r0, lsr r9
  201280:	002018f8 	strdeq	r1, [r0], -r8	; <UNPREDICTABLE>

00201284 <rpi_set_output>:
  201284:	e92d4008 	push	{r3, lr}
  201288:	e3500000 	cmp	r0, #0
  20128c:	1a000005 	bne	2012a8 <rpi_set_output+0x24>
  201290:	e59f0028 	ldr	r0, [pc, #40]	; 2012c0 <rpi_set_output+0x3c>
  201294:	e59f1028 	ldr	r1, [pc, #40]	; 2012c4 <rpi_set_output+0x40>
  201298:	e59f2028 	ldr	r2, [pc, #40]	; 2012c8 <rpi_set_output+0x44>
  20129c:	e3a03020 	mov	r3, #32
  2012a0:	ebffff4e 	bl	200fe0 <printk>
  2012a4:	ebfffbbc 	bl	20019c <clean_reboot>
  2012a8:	e59f301c 	ldr	r3, [pc, #28]	; 2012cc <rpi_set_output+0x48>
  2012ac:	e5830000 	str	r0, [r3]
  2012b0:	e3510000 	cmp	r1, #0
  2012b4:	159f3014 	ldrne	r3, [pc, #20]	; 2012d0 <rpi_set_output+0x4c>
  2012b8:	15831000 	strne	r1, [r3]
  2012bc:	e8bd8008 	pop	{r3, pc}
  2012c0:	00201968 	eoreq	r1, r0, r8, ror #18
  2012c4:	00201930 	eoreq	r1, r0, r0, lsr r9
  2012c8:	00201900 	eoreq	r1, r0, r0, lsl #18
  2012cc:	00201740 	eoreq	r1, r0, r0, asr #14
  2012d0:	0020173c 	eoreq	r1, r0, ip, lsr r7

002012d4 <va_printk>:
  2012d4:	e92d4ff0 	push	{r4, r5, r6, r7, r8, r9, sl, fp, lr}
  2012d8:	e24dd08c 	sub	sp, sp, #140	; 0x8c
  2012dc:	e1a0b000 	mov	fp, r0
  2012e0:	e1a0a003 	mov	sl, r3
  2012e4:	e2411001 	sub	r1, r1, #1
  2012e8:	e0808001 	add	r8, r0, r1
  2012ec:	e3a03000 	mov	r3, #0
  2012f0:	e5c03000 	strb	r3, [r0]
  2012f4:	e1a04000 	mov	r4, r0
  2012f8:	ea000087 	b	20151c <va_printk+0x248>
  2012fc:	e3530025 	cmp	r3, #37	; 0x25
  201300:	12822001 	addne	r2, r2, #1
  201304:	15c43000 	strbne	r3, [r4]
  201308:	12844001 	addne	r4, r4, #1
  20130c:	1a000082 	bne	20151c <va_printk+0x248>
  201310:	e5d21001 	ldrb	r1, [r2, #1]
  201314:	e3510025 	cmp	r1, #37	; 0x25
  201318:	05c43000 	strbeq	r3, [r4]
  20131c:	02822002 	addeq	r2, r2, #2
  201320:	02844001 	addeq	r4, r4, #1
  201324:	0a00007c 	beq	20151c <va_printk+0x248>
  201328:	e2826001 	add	r6, r2, #1
  20132c:	e3a07000 	mov	r7, #0
  201330:	ea000004 	b	201348 <va_printk+0x74>
  201334:	e0877107 	add	r7, r7, r7, lsl #2
  201338:	e1a07087 	lsl	r7, r7, #1
  20133c:	e0877005 	add	r7, r7, r5
  201340:	e2477030 	sub	r7, r7, #48	; 0x30
  201344:	e2866001 	add	r6, r6, #1
  201348:	e5d65000 	ldrb	r5, [r6]
  20134c:	e1a09005 	mov	r9, r5
  201350:	e1a00005 	mov	r0, r5
  201354:	ebffff44 	bl	20106c <isdigit>
  201358:	e3500000 	cmp	r0, #0
  20135c:	1afffff4 	bne	201334 <va_printk+0x60>
  201360:	e357001f 	cmp	r7, #31
  201364:	9a000005 	bls	201380 <va_printk+0xac>
  201368:	e59f01d8 	ldr	r0, [pc, #472]	; 201548 <va_printk+0x274>
  20136c:	e59f11d8 	ldr	r1, [pc, #472]	; 20154c <va_printk+0x278>
  201370:	e59f21d8 	ldr	r2, [pc, #472]	; 201550 <va_printk+0x27c>
  201374:	e3a03092 	mov	r3, #146	; 0x92
  201378:	ebffff18 	bl	200fe0 <printk>
  20137c:	ebfffb86 	bl	20019c <clean_reboot>
  201380:	e2455062 	sub	r5, r5, #98	; 0x62
  201384:	e3550016 	cmp	r5, #22
  201388:	979ff105 	ldrls	pc, [pc, r5, lsl #2]
  20138c:	ea000051 	b	2014d8 <va_printk+0x204>
  201390:	0020147c 	eoreq	r1, r0, ip, ror r4
  201394:	002014b0 	strhteq	r1, [r0], -r0
  201398:	00201404 	eoreq	r1, r0, r4, lsl #8
  20139c:	002014d8 	ldrdeq	r1, [r0], -r8	; <UNPREDICTABLE>
  2013a0:	002013ec 	eoreq	r1, r0, ip, ror #7
  2013a4:	002014d8 	ldrdeq	r1, [r0], -r8	; <UNPREDICTABLE>
  2013a8:	002014d8 	ldrdeq	r1, [r0], -r8	; <UNPREDICTABLE>
  2013ac:	002014d8 	ldrdeq	r1, [r0], -r8	; <UNPREDICTABLE>
  2013b0:	002014d8 	ldrdeq	r1, [r0], -r8	; <UNPREDICTABLE>
  2013b4:	002014d8 	ldrdeq	r1, [r0], -r8	; <UNPREDICTABLE>
  2013b8:	002014d8 	ldrdeq	r1, [r0], -r8	; <UNPREDICTABLE>
  2013bc:	002014d8 	ldrdeq	r1, [r0], -r8	; <UNPREDICTABLE>
  2013c0:	002014d8 	ldrdeq	r1, [r0], -r8	; <UNPREDICTABLE>
  2013c4:	002014d8 	ldrdeq	r1, [r0], -r8	; <UNPREDICTABLE>
  2013c8:	00201454 	eoreq	r1, r0, r4, asr r4
  2013cc:	002014d8 	ldrdeq	r1, [r0], -r8	; <UNPREDICTABLE>
  2013d0:	002014d8 	ldrdeq	r1, [r0], -r8	; <UNPREDICTABLE>
  2013d4:	002014a4 	eoreq	r1, r0, r4, lsr #9
  2013d8:	002014d8 	ldrdeq	r1, [r0], -r8	; <UNPREDICTABLE>
  2013dc:	0020142c 	eoreq	r1, r0, ip, lsr #8
  2013e0:	002014d8 	ldrdeq	r1, [r0], -r8	; <UNPREDICTABLE>
  2013e4:	002014d8 	ldrdeq	r1, [r0], -r8	; <UNPREDICTABLE>
  2013e8:	00201454 	eoreq	r1, r0, r4, asr r4
  2013ec:	e59f0160 	ldr	r0, [pc, #352]	; 201554 <va_printk+0x280>
  2013f0:	e59f1154 	ldr	r1, [pc, #340]	; 20154c <va_printk+0x278>
  2013f4:	e59f2154 	ldr	r2, [pc, #340]	; 201550 <va_printk+0x27c>
  2013f8:	e3a03098 	mov	r3, #152	; 0x98
  2013fc:	ebfffef7 	bl	200fe0 <printk>
  201400:	ebfffb65 	bl	20019c <clean_reboot>
  201404:	e59a3000 	ldr	r3, [sl]
  201408:	e28aa004 	add	sl, sl, #4
  20140c:	e58d7000 	str	r7, [sp]
  201410:	e3a02001 	mov	r2, #1
  201414:	e58d2004 	str	r2, [sp, #4]
  201418:	e3a0000a 	mov	r0, #10
  20141c:	e28d1008 	add	r1, sp, #8
  201420:	e3a02080 	mov	r2, #128	; 0x80
  201424:	ebffff30 	bl	2010ec <emit>
  201428:	ea000031 	b	2014f4 <va_printk+0x220>
  20142c:	e59a3000 	ldr	r3, [sl]
  201430:	e28aa004 	add	sl, sl, #4
  201434:	e58d7000 	str	r7, [sp]
  201438:	e3a02000 	mov	r2, #0
  20143c:	e58d2004 	str	r2, [sp, #4]
  201440:	e3a0000a 	mov	r0, #10
  201444:	e28d1008 	add	r1, sp, #8
  201448:	e3a02080 	mov	r2, #128	; 0x80
  20144c:	ebffff26 	bl	2010ec <emit>
  201450:	ea000027 	b	2014f4 <va_printk+0x220>
  201454:	e59a3000 	ldr	r3, [sl]
  201458:	e28aa004 	add	sl, sl, #4
  20145c:	e58d7000 	str	r7, [sp]
  201460:	e3a02000 	mov	r2, #0
  201464:	e58d2004 	str	r2, [sp, #4]
  201468:	e3a00010 	mov	r0, #16
  20146c:	e28d1008 	add	r1, sp, #8
  201470:	e3a02080 	mov	r2, #128	; 0x80
  201474:	ebffff1c 	bl	2010ec <emit>
  201478:	ea00001d 	b	2014f4 <va_printk+0x220>
  20147c:	e59a3000 	ldr	r3, [sl]
  201480:	e28aa004 	add	sl, sl, #4
  201484:	e58d7000 	str	r7, [sp]
  201488:	e3a02000 	mov	r2, #0
  20148c:	e58d2004 	str	r2, [sp, #4]
  201490:	e3a00002 	mov	r0, #2
  201494:	e28d1008 	add	r1, sp, #8
  201498:	e3a02080 	mov	r2, #128	; 0x80
  20149c:	ebffff12 	bl	2010ec <emit>
  2014a0:	ea000013 	b	2014f4 <va_printk+0x220>
  2014a4:	e59a0000 	ldr	r0, [sl]
  2014a8:	e28aa004 	add	sl, sl, #4
  2014ac:	ea000010 	b	2014f4 <va_printk+0x220>
  2014b0:	e59a3000 	ldr	r3, [sl]
  2014b4:	e28aa004 	add	sl, sl, #4
  2014b8:	e58d7000 	str	r7, [sp]
  2014bc:	e3a02000 	mov	r2, #0
  2014c0:	e58d2004 	str	r2, [sp, #4]
  2014c4:	e3a00008 	mov	r0, #8
  2014c8:	e08d1000 	add	r1, sp, r0
  2014cc:	e3a02080 	mov	r2, #128	; 0x80
  2014d0:	ebffff05 	bl	2010ec <emit>
  2014d4:	ea000006 	b	2014f4 <va_printk+0x220>
  2014d8:	e58d9000 	str	r9, [sp]
  2014dc:	e59f0074 	ldr	r0, [pc, #116]	; 201558 <va_printk+0x284>
  2014e0:	e59f1064 	ldr	r1, [pc, #100]	; 20154c <va_printk+0x278>
  2014e4:	e59f2064 	ldr	r2, [pc, #100]	; 201550 <va_printk+0x27c>
  2014e8:	e3a030b9 	mov	r3, #185	; 0xb9
  2014ec:	ebfffebb 	bl	200fe0 <printk>
  2014f0:	ebfffb29 	bl	20019c <clean_reboot>
  2014f4:	e2862001 	add	r2, r6, #1
  2014f8:	ea000002 	b	201508 <va_printk+0x234>
  2014fc:	e2800001 	add	r0, r0, #1
  201500:	e5c43000 	strb	r3, [r4]
  201504:	e2844001 	add	r4, r4, #1
  201508:	e1540008 	cmp	r4, r8
  20150c:	2a000002 	bcs	20151c <va_printk+0x248>
  201510:	e5d03000 	ldrb	r3, [r0]
  201514:	e3530000 	cmp	r3, #0
  201518:	1afffff7 	bne	2014fc <va_printk+0x228>
  20151c:	e5d23000 	ldrb	r3, [r2]
  201520:	e3530000 	cmp	r3, #0
  201524:	0a000001 	beq	201530 <va_printk+0x25c>
  201528:	e1540008 	cmp	r4, r8
  20152c:	3affff72 	bcc	2012fc <va_printk+0x28>
  201530:	e2840001 	add	r0, r4, #1
  201534:	e3a03000 	mov	r3, #0
  201538:	e5c43000 	strb	r3, [r4]
  20153c:	e06b0000 	rsb	r0, fp, r0
  201540:	e28dd08c 	add	sp, sp, #140	; 0x8c
  201544:	e8bd8ff0 	pop	{r4, r5, r6, r7, r8, r9, sl, fp, pc}
  201548:	00201980 	eoreq	r1, r0, r0, lsl #19
  20154c:	00201930 	eoreq	r1, r0, r0, lsr r9
  201550:	00201910 	eoreq	r1, r0, r0, lsl r9
  201554:	0020199c 	mlaeq	r0, ip, r9, r1
  201558:	002019c4 	eoreq	r1, r0, r4, asr #19

0020155c <dev_barrier>:
  20155c:	ea000002 	b	20156c <dsb>

00201560 <dmb>:
  201560:	e3a00000 	mov	r0, #0
  201564:	ee070fba 	mcr	15, 0, r0, cr7, cr10, {5}
  201568:	e12fff1e 	bx	lr

0020156c <dsb>:
  20156c:	ee070f9a 	mcr	15, 0, r0, cr7, cr10, {4}
  201570:	e12fff1e 	bx	lr

00201574 <internal_putchar>:
  201574:	e92d4010 	push	{r4, lr}
  201578:	e1a04000 	mov	r4, r0
  20157c:	eb000040 	bl	201684 <uart_putc>
  201580:	e1a00004 	mov	r0, r4
  201584:	e8bd8010 	pop	{r4, pc}

00201588 <uart_init>:
  201588:	e92d4038 	push	{r3, r4, r5, lr}
  20158c:	ebfffff2 	bl	20155c <dev_barrier>
  201590:	e3a0000e 	mov	r0, #14
  201594:	e3a01002 	mov	r1, #2
  201598:	ebfffdd6 	bl	200cf8 <gpio_set_function>
  20159c:	e3a0000f 	mov	r0, #15
  2015a0:	e3a01002 	mov	r1, #2
  2015a4:	ebfffdd3 	bl	200cf8 <gpio_set_function>
  2015a8:	ebffffeb 	bl	20155c <dev_barrier>
  2015ac:	e59f4068 	ldr	r4, [pc, #104]	; 20161c <uart_init+0x94>
  2015b0:	e5945000 	ldr	r5, [r4]
  2015b4:	e1a00005 	mov	r0, r5
  2015b8:	ebfffd12 	bl	200a08 <get32>
  2015bc:	e3801001 	orr	r1, r0, #1
  2015c0:	e1a00005 	mov	r0, r5
  2015c4:	ebfffd03 	bl	2009d8 <put32>
  2015c8:	ebffffe3 	bl	20155c <dev_barrier>
  2015cc:	e5940004 	ldr	r0, [r4, #4]
  2015d0:	e3a01000 	mov	r1, #0
  2015d4:	ebfffcff 	bl	2009d8 <put32>
  2015d8:	e5940008 	ldr	r0, [r4, #8]
  2015dc:	e3a01000 	mov	r1, #0
  2015e0:	ebfffcfc 	bl	2009d8 <put32>
  2015e4:	e594000c 	ldr	r0, [r4, #12]
  2015e8:	e3a01006 	mov	r1, #6
  2015ec:	ebfffcf9 	bl	2009d8 <put32>
  2015f0:	e5940010 	ldr	r0, [r4, #16]
  2015f4:	e3a01003 	mov	r1, #3
  2015f8:	ebfffcf6 	bl	2009d8 <put32>
  2015fc:	e5940014 	ldr	r0, [r4, #20]
  201600:	e59f1018 	ldr	r1, [pc, #24]	; 201620 <uart_init+0x98>
  201604:	ebfffcf3 	bl	2009d8 <put32>
  201608:	e5940004 	ldr	r0, [r4, #4]
  20160c:	e3a01003 	mov	r1, #3
  201610:	ebfffcf0 	bl	2009d8 <put32>
  201614:	ebffffd0 	bl	20155c <dev_barrier>
  201618:	e8bd8038 	pop	{r3, r4, r5, pc}
  20161c:	00201744 	eoreq	r1, r0, r4, asr #14
  201620:	0000010e 	andeq	r0, r0, lr, lsl #2

00201624 <uart_can_getc>:
  201624:	e92d4008 	push	{r3, lr}
  201628:	e59f300c 	ldr	r3, [pc, #12]	; 20163c <uart_can_getc+0x18>
  20162c:	e5930018 	ldr	r0, [r3, #24]
  201630:	ebfffcf4 	bl	200a08 <get32>
  201634:	e2000001 	and	r0, r0, #1
  201638:	e8bd8008 	pop	{r3, pc}
  20163c:	00201744 	eoreq	r1, r0, r4, asr #14

00201640 <uart_getc>:
  201640:	e92d4008 	push	{r3, lr}
  201644:	ebfffff6 	bl	201624 <uart_can_getc>
  201648:	e3500000 	cmp	r0, #0
  20164c:	0afffffc 	beq	201644 <uart_getc+0x4>
  201650:	e59f300c 	ldr	r3, [pc, #12]	; 201664 <uart_getc+0x24>
  201654:	e593001c 	ldr	r0, [r3, #28]
  201658:	ebfffcea 	bl	200a08 <get32>
  20165c:	e6ef0070 	uxtb	r0, r0
  201660:	e8bd8008 	pop	{r3, pc}
  201664:	00201744 	eoreq	r1, r0, r4, asr #14

00201668 <uart_can_putc>:
  201668:	e92d4008 	push	{r3, lr}
  20166c:	e59f300c 	ldr	r3, [pc, #12]	; 201680 <uart_can_putc+0x18>
  201670:	e5930018 	ldr	r0, [r3, #24]
  201674:	ebfffce3 	bl	200a08 <get32>
  201678:	e2000020 	and	r0, r0, #32
  20167c:	e8bd8008 	pop	{r3, pc}
  201680:	00201744 	eoreq	r1, r0, r4, asr #14

00201684 <uart_putc>:
  201684:	e92d4010 	push	{r4, lr}
  201688:	e1a04000 	mov	r4, r0
  20168c:	ebfffff5 	bl	201668 <uart_can_putc>
  201690:	e3500000 	cmp	r0, #0
  201694:	0afffffc 	beq	20168c <uart_putc+0x8>
  201698:	e59f300c 	ldr	r3, [pc, #12]	; 2016ac <uart_putc+0x28>
  20169c:	e593001c 	ldr	r0, [r3, #28]
  2016a0:	e1a01004 	mov	r1, r4
  2016a4:	ebfffccb 	bl	2009d8 <put32>
  2016a8:	e8bd8010 	pop	{r4, pc}
  2016ac:	00201744 	eoreq	r1, r0, r4, asr #14

002016b0 <uart_has_data>:
  2016b0:	e92d4008 	push	{r3, lr}
  2016b4:	ebffffda 	bl	201624 <uart_can_getc>
  2016b8:	e8bd8008 	pop	{r3, pc}

002016bc <uart_getc_async>:
  2016bc:	e92d4008 	push	{r3, lr}
  2016c0:	ebfffffa 	bl	2016b0 <uart_has_data>
  2016c4:	e3500000 	cmp	r0, #0
  2016c8:	0a000001 	beq	2016d4 <uart_getc_async+0x18>
  2016cc:	ebffffdb 	bl	201640 <uart_getc>
  2016d0:	e8bd8008 	pop	{r3, pc}
  2016d4:	e3e00000 	mvn	r0, #0
  2016d8:	e8bd8008 	pop	{r3, pc}

Disassembly of section .data:

002016dc <GPFSEL0>:
  2016dc:	20200000 	eorcs	r0, r0, r0

002016e0 <GPFSEL1>:
  2016e0:	20200004 	eorcs	r0, r0, r4

002016e4 <GPFSEL2>:
  2016e4:	20200008 	eorcs	r0, r0, r8

002016e8 <GPFSEL3>:
  2016e8:	2020000c 	eorcs	r0, r0, ip

002016ec <GPFSEL4>:
  2016ec:	20200010 	eorcs	r0, r0, r0, lsl r0

002016f0 <GPFSEL5>:
  2016f0:	20200014 	eorcs	r0, r0, r4, lsl r0

002016f4 <GPSET0>:
  2016f4:	2020001c 	eorcs	r0, r0, ip, lsl r0

002016f8 <GPSET1>:
  2016f8:	20200020 	eorcs	r0, r0, r0, lsr #32

002016fc <GPCLR0>:
  2016fc:	20200028 	eorcs	r0, r0, r8, lsr #32

00201700 <GPCLR1>:
  201700:	2020002c 	eorcs	r0, r0, ip, lsr #32

00201704 <GPLEV0>:
  201704:	20200034 	eorcs	r0, r0, r4, lsr r0

00201708 <GPLEV1>:
  201708:	20200038 	eorcs	r0, r0, r8, lsr r0

0020170c <IRQ_PENDING_2>:
  20170c:	2000b208 	andcs	fp, r0, r8, lsl #4

00201710 <GPREN0>:
  201710:	2020004c 	eorcs	r0, r0, ip, asr #32

00201714 <GPREN1>:
  201714:	20200050 	eorcs	r0, r0, r0, asr r0

00201718 <ENABLE_IRQS_2>:
  201718:	2000b214 	andcs	fp, r0, r4, lsl r2

0020171c <GPFEN0>:
  20171c:	20200058 	eorcs	r0, r0, r8, asr r0

00201720 <GPFEN1>:
  201720:	2020005c 	eorcs	r0, r0, ip, asr r0

00201724 <GPEDS0>:
  201724:	20200040 	eorcs	r0, r0, r0, asr #32

00201728 <GPEDS1>:
  201728:	20200044 	eorcs	r0, r0, r4, asr #32

0020172c <IRQ_PENDING_1>:
  20172c:	2000b204 	andcs	fp, r0, r4, lsl #4

00201730 <gpio_clr0>:
  201730:	20200028 	eorcs	r0, r0, r8, lsr #32

00201734 <gpio_set0>:
  201734:	2020001c 	eorcs	r0, r0, ip, lsl r0

00201738 <gpio_fsel0>:
  201738:	20200000 	eorcs	r0, r0, r0

0020173c <putk>:
  20173c:	00201038 	eoreq	r1, r0, r8, lsr r0

00201740 <rpi_putchar>:
  201740:	00201574 	eoreq	r1, r0, r4, ror r5

00201744 <AUX_ENABLES>:
  201744:	20215004 	eorcs	r5, r1, r4

00201748 <AUX_MU_CNTL_REG>:
  201748:	20215060 	eorcs	r5, r1, r0, rrx

0020174c <AUX_MU_IER_REG>:
  20174c:	20215044 	eorcs	r5, r1, r4, asr #32

00201750 <AUX_MU_IIR_REG>:
  201750:	20215048 	eorcs	r5, r1, r8, asr #32

00201754 <AUX_MU_LCR_REG>:
  201754:	2021504c 	eorcs	r5, r1, ip, asr #32

00201758 <AUX_MU_BAUD_REG>:
  201758:	20215068 	eorcs	r5, r1, r8, rrx

0020175c <AUX_MU_LSR_REG>:
  20175c:	20215054 	eorcs	r5, r1, r4, asr r0

00201760 <AUX_MU_IO_REG>:
  201760:	20215040 	eorcs	r5, r1, r0, asr #32

00201764 <AUX_MU_STAT_REG>:
  201764:	20215064 	eorcs	r5, r1, r4, rrx

00201768 <AUX_MU_SCRATCH>:
  201768:	2021505c 	eorcs	r5, r1, ip, asr r0

0020176c <AUX_MU_MSR_REG>:
  20176c:	20215058 	eorcs	r5, r1, r8, asr r0

00201770 <AUX_MU_MCR_REG>:
  201770:	20215050 	eorcs	r5, r1, r0, asr r0

00201774 <AUX_IRQ>:
  201774:	20215000 	eorcs	r5, r1, r0

Disassembly of section .rodata:

00201778 <__FUNCTION__.4397-0xc>:
  201778:	454e4f44 	strbmi	r4, [lr, #-3908]	; 0xf44
  20177c:	0a212121 	beq	a49c08 <__bss_end__+0x845db0>
  201780:	00000000 	andeq	r0, r0, r0

00201784 <__FUNCTION__.4397>:
  201784:	755f7773 	ldrbvc	r7, [pc, #-1907]	; 201019 <printk+0x39>
  201788:	5f747261 	svcpl	0x00747261
  20178c:	73746567 	cmnvc	r4, #432013312	; 0x19c00000
  201790:	746e755f 	strbtvc	r7, [lr], #-1375	; 0x55f
  201794:	00006c69 	andeq	r6, r0, r9, ror #24

00201798 <__FUNCTION__.4409>:
  201798:	755f7773 	ldrbvc	r7, [pc, #-1907]	; 20102d <printk+0x4d>
  20179c:	5f747261 	svcpl	0x00747261
  2017a0:	73746567 	cmnvc	r4, #432013312	; 0x19c00000
  2017a4:	6d69745f 	cfstrdvs	mvd7, [r9, #-380]!	; 0xfffffe84
  2017a8:	74756f65 	ldrbtvc	r6, [r5], #-3941	; 0xf65
  2017ac:	00000000 	andeq	r0, r0, r0

002017b0 <__FUNCTION__.4423>:
  2017b0:	755f7773 	ldrbvc	r7, [pc, #-1907]	; 201045 <internal_putk+0xd>
  2017b4:	5f747261 	svcpl	0x00747261
  2017b8:	74696e69 	strbtvc	r6, [r9], #-3689	; 0xe69
  2017bc:	6c65685f 	stclvs	8, cr6, [r5], #-380	; 0xfffffe84
  2017c0:	00726570 	rsbseq	r6, r2, r0, ror r5

002017c4 <__FUNCTION__.4429>:
  2017c4:	755f7773 	ldrbvc	r7, [pc, #-1907]	; 201059 <internal_putk+0x21>
  2017c8:	5f747261 	svcpl	0x00747261
  2017cc:	63746567 	cmnvs	r4, #432013312	; 0x19c00000
  2017d0:	00000000 	andeq	r0, r0, r0

002017d4 <__FUNCTION__.4451>:
  2017d4:	755f7773 	ldrbvc	r7, [pc, #-1907]	; 201069 <internal_putk+0x31>
  2017d8:	5f747261 	svcpl	0x00747261
  2017dc:	6e697270 	mcrvs	2, 3, r7, cr9, cr0, {3}
  2017e0:	00006b74 	andeq	r6, r0, r4, ror fp

002017e4 <__FUNCTION__.4459>:
  2017e4:	755f7773 	ldrbvc	r7, [pc, #-1907]	; 201079 <isdigit+0xd>
  2017e8:	5f747261 	svcpl	0x00747261
  2017ec:	73746567 	cmnvc	r4, #432013312	; 0x19c00000
  2017f0:	746e755f 	strbtvc	r7, [lr], #-1375	; 0x55f
  2017f4:	625f6c69 	subsvs	r6, pc, #26880	; 0x6900
  2017f8:	00006b6c 	andeq	r6, r0, ip, ror #22

002017fc <__FUNCTION__.4463>:
  2017fc:	65746e69 	ldrbvs	r6, [r4, #-3689]!	; 0xe69
  201800:	70757272 	rsbsvc	r7, r5, r2, ror r2
  201804:	65765f74 	ldrbvs	r5, [r6, #-3956]!	; 0xf74
  201808:	726f7463 	rsbvc	r7, pc, #1660944384	; 0x63000000
  20180c:	00000000 	andeq	r0, r0, r0
  201810:	494e4150 	stmdbmi	lr, {r4, r6, r8, lr}^
  201814:	73253a43 	teqvc	r5, #274432	; 0x43000
  201818:	3a73253a 	bcc	1ecad08 <__bss_end__+0x1cc6eb0>
  20181c:	6e3a6425 	cdpvs	4, 3, cr6, cr10, cr5, {1}
  201820:	65747962 	ldrbvs	r7, [r4, #-2402]!	; 0x962
  201824:	0a303e73 	beq	e111f8 <__bss_end__+0xc0d3a0>
  201828:	00000000 	andeq	r0, r0, r0
  20182c:	732d796d 	teqvc	sp, #1785856	; 0x1b4000
  201830:	732f6372 	teqvc	pc, #-939524095	; 0xc8000001
  201834:	61755f77 	cmnvs	r5, r7, ror pc
  201838:	695f7472 	ldmdbvs	pc, {r1, r4, r5, r6, sl, ip, sp, lr}^	; <UNPREDICTABLE>
  20183c:	632e746e 	teqvs	lr, #1845493760	; 0x6e000000
  201840:	00000000 	andeq	r0, r0, r0
  201844:	494e4150 	stmdbmi	lr, {r4, r6, r8, lr}^
  201848:	73253a43 	teqvc	r5, #274432	; 0x43000
  20184c:	3a73253a 	bcc	1ecad3c <__bss_end__+0x1cc6ee4>
  201850:	283a6425 	ldmdacs	sl!, {r0, r2, r5, sl, sp, lr}
  201854:	207a686d 	rsbscs	r6, sl, sp, ror #16
  201858:	6162202d 	cmnvs	r2, sp, lsr #32
  20185c:	20296475 	eorcs	r6, r9, r5, ror r4
  201860:	64203d3c 	strtvs	r3, [r0], #-3388	; 0xd3c
  201864:	76697265 	strbtvc	r7, [r9], -r5, ror #4
  201868:	26206465 	strtcs	r6, [r0], -r5, ror #8
  20186c:	65642026 	strbvs	r2, [r4, #-38]!	; 0x26
  201870:	65766972 	ldrbvs	r6, [r6, #-2418]!	; 0x972
  201874:	3d3c2064 	ldccc	0, cr2, [ip, #-400]!	; 0xfffffe70
  201878:	686d2820 	stmdavs	sp!, {r5, fp, sp}^
  20187c:	202b207a 	eorcs	r2, fp, sl, ror r0
  201880:	64756162 	ldrbtvs	r6, [r5], #-354	; 0x162
  201884:	00000a29 	andeq	r0, r0, r9, lsr #20
  201888:	494e4150 	stmdbmi	lr, {r4, r6, r8, lr}^
  20188c:	73253a43 	teqvc	r5, #274432	; 0x43000
  201890:	3a73253a 	bcc	1ecad80 <__bss_end__+0x1cc6f28>
  201894:	693a6425 	ldmdbvs	sl!, {r0, r2, r5, sl, sp, lr}
  201898:	736f706d 	cmnvc	pc, #109	; 0x6d
  20189c:	6c626973 	stclvs	9, cr6, [r2], #-460	; 0xfffffe34
  2018a0:	68203a65 	stmdavs	r0!, {r0, r2, r5, r6, r9, fp, ip, sp}
  2018a4:	20657661 	rsbcs	r7, r5, r1, ror #12
  2018a8:	69206e61 	stmdbvs	r0!, {r0, r5, r6, r9, sl, fp, sp, lr}
  2018ac:	6e69666e 	cdpvs	6, 6, cr6, cr9, cr14, {3}
  2018b0:	20657469 	rsbcs	r7, r5, r9, ror #8
  2018b4:	656d6974 	strbvs	r6, [sp, #-2420]!	; 0x974
  2018b8:	2174756f 	cmncs	r4, pc, ror #10
  2018bc:	00000a0a 	andeq	r0, r0, sl, lsl #20
  2018c0:	494e4150 	stmdbmi	lr, {r4, r6, r8, lr}^
  2018c4:	73253a43 	teqvc	r5, #274432	; 0x43000
  2018c8:	3a73253a 	bcc	1ecadb8 <__bss_end__+0x1cc6f60>
  2018cc:	733a6425 	teqvc	sl, #620756992	; 0x25000000
  2018d0:	203c207a 	eorscs	r2, ip, sl, ror r0
  2018d4:	657a6973 	ldrbvs	r6, [sl, #-2419]!	; 0x973
  2018d8:	6220666f 	eorvs	r6, r0, #116391936	; 0x6f00000
  2018dc:	312d6675 	teqcc	sp, r5, ror r6
  2018e0:	0000000a 	andeq	r0, r0, sl
  2018e4:	494e4150 	stmdbmi	lr, {r4, r6, r8, lr}^
  2018e8:	73253a43 	teqvc	r5, #274432	; 0x43000
  2018ec:	3a73253a 	bcc	1ecaddc <__bss_end__+0x1cc6f84>
  2018f0:	0a3a6425 	beq	109a98c <__bss_end__+0xe96b34>
  2018f4:	00000000 	andeq	r0, r0, r0

002018f8 <__FUNCTION__.4205>:
  2018f8:	74696d65 	strbtvc	r6, [r9], #-3429	; 0xd65
  2018fc:	00000000 	andeq	r0, r0, r0

00201900 <__FUNCTION__.4153>:
  201900:	5f697072 	svcpl	0x00697072
  201904:	5f746573 	svcpl	0x00746573
  201908:	7074756f 	rsbsvc	r7, r4, pc, ror #10
  20190c:	00007475 	andeq	r7, r0, r5, ror r4

00201910 <__FUNCTION__.4227>:
  201910:	705f6176 	subsvc	r6, pc, r6, ror r1	; <UNPREDICTABLE>
  201914:	746e6972 	strbtvc	r6, [lr], #-2418	; 0x972
  201918:	0000006b 	andeq	r0, r0, fp, rrx
  20191c:	494e4150 	stmdbmi	lr, {r4, r6, r8, lr}^
  201920:	73253a43 	teqvc	r5, #274432	; 0x43000
  201924:	3a73253a 	bcc	1ecae14 <__bss_end__+0x1cc6fbc>
  201928:	303a6425 	eorscc	r6, sl, r5, lsr #8
  20192c:	0000000a 	andeq	r0, r0, sl
  201930:	6362696c 	cmnvs	r2, #108, 18	; 0x1b0000
  201934:	2d61762f 	stclcs	6, cr7, [r1, #-188]!	; 0xffffff44
  201938:	6e697270 	mcrvs	2, 3, r7, cr9, cr0, {3}
  20193c:	632e6b74 	teqvs	lr, #116, 22	; 0x1d000
  201940:	00000000 	andeq	r0, r0, r0
  201944:	33323130 	teqcc	r2, #48, 2
  201948:	37363534 			; <UNDEFINED> instruction: 0x37363534
  20194c:	00003938 	andeq	r3, r0, r8, lsr r9
  201950:	33323130 	teqcc	r2, #48, 2
  201954:	37363534 			; <UNDEFINED> instruction: 0x37363534
  201958:	62613938 	rsbvs	r3, r1, #56, 18	; 0xe0000
  20195c:	66656463 	strbtvs	r6, [r5], -r3, ror #8
  201960:	00000000 	andeq	r0, r0, r0
  201964:	00003130 	andeq	r3, r0, r0, lsr r1
  201968:	494e4150 	stmdbmi	lr, {r4, r6, r8, lr}^
  20196c:	73253a43 	teqvc	r5, #274432	; 0x43000
  201970:	3a73253a 	bcc	1ecae60 <__bss_end__+0x1cc7008>
  201974:	703a6425 	eorsvc	r6, sl, r5, lsr #8
  201978:	5f637475 	svcpl	0x00637475
  20197c:	000a7066 	andeq	r7, sl, r6, rrx
  201980:	494e4150 	stmdbmi	lr, {r4, r6, r8, lr}^
  201984:	73253a43 	teqvc	r5, #274432	; 0x43000
  201988:	3a73253a 	bcc	1ecae78 <__bss_end__+0x1cc7020>
  20198c:	773a6425 	ldrvc	r6, [sl, -r5, lsr #8]!
  201990:	68746469 	ldmdavs	r4!, {r0, r3, r5, r6, sl, sp, lr}^
  201994:	33203c20 	teqcc	r0, #32, 24	; 0x2000
  201998:	00000a32 	andeq	r0, r0, r2, lsr sl
  20199c:	494e4150 	stmdbmi	lr, {r4, r6, r8, lr}^
  2019a0:	73253a43 	teqvc	r5, #274432	; 0x43000
  2019a4:	3a73253a 	bcc	1ecae94 <__bss_end__+0x1cc703c>
  2019a8:	663a6425 	ldrtvs	r6, [sl], -r5, lsr #8
  2019ac:	74616f6c 	strbtvc	r6, [r1], #-3948	; 0xf6c
  2019b0:	746f6e20 	strbtvc	r6, [pc], #-3616	; 2019b8 <__FUNCTION__.4227+0xa8>
  2019b4:	616e6520 	cmnvs	lr, r0, lsr #10
  2019b8:	64656c62 	strbtvs	r6, [r5], #-3170	; 0xc62
  2019bc:	0a212121 	beq	a49e48 <__bss_end__+0x845ff0>
  2019c0:	00000000 	andeq	r0, r0, r0
  2019c4:	494e4150 	stmdbmi	lr, {r4, r6, r8, lr}^
  2019c8:	73253a43 	teqvc	r5, #274432	; 0x43000
  2019cc:	3a73253a 	bcc	1ecaebc <__bss_end__+0x1cc7064>
  2019d0:	703a6425 	eorsvc	r6, sl, r5, lsr #8
  2019d4:	746e6972 	strbtvc	r6, [lr], #-2418	; 0x972
  2019d8:	6e203a6b 	vnmulvs.f32	s6, s0, s23
  2019dc:	6820746f 	stmdavs	r0!, {r0, r1, r2, r3, r5, r6, sl, ip, sp, lr}
  2019e0:	6c646e61 	stclvs	14, cr6, [r4], #-388	; 0xfffffe7c
  2019e4:	20676e69 	rsbcs	r6, r7, r9, ror #28
  2019e8:	63657073 	cmnvs	r5, #115	; 0x73
  2019ec:	65696669 	strbvs	r6, [r9, #-1641]!	; 0x669
  2019f0:	25272072 	strcs	r2, [r7, #-114]!	; 0x72
  2019f4:	0a0a2763 	beq	48b788 <__bss_end__+0x287930>
  2019f8:	00000000 	andeq	r0, r0, r0

Disassembly of section .bss:

002019fc <__bss_start__>:
	...

00201a08 <n_interrupt>:
  201a08:	00000000 	andeq	r0, r0, r0

00201a0c <n_falling_edge>:
  201a0c:	00000000 	andeq	r0, r0, r0

00201a10 <n_rising_edge>:
  201a10:	00000000 	andeq	r0, r0, r0

00201a14 <ninterrupt>:
  201a14:	00000000 	andeq	r0, r0, r0

00201a18 <in_write>:
  201a18:	00000000 	andeq	r0, r0, r0

00201a1c <n_interrupt>:
  201a1c:	00000000 	andeq	r0, r0, r0

00201a20 <timeout>:
  201a20:	00000000 	andeq	r0, r0, r0

00201a24 <u>:
	...

00201a30 <putQ>:
	...

00203a44 <n_rising_edge>:
  203a44:	00000000 	andeq	r0, r0, r0

00203a48 <n_falling_edge>:
  203a48:	00000000 	andeq	r0, r0, r0

00203a4c <ninterrupt>:
  203a4c:	00000000 	andeq	r0, r0, r0

00203a50 <buf.4153>:
	...

00203e50 <rpi_arm_timer_t>:
	...

Disassembly of section .ARM.attributes:

00000000 <.ARM.attributes>:
   0:	00003341 	andeq	r3, r0, r1, asr #6
   4:	61656100 	cmnvs	r5, r0, lsl #2
   8:	01006962 	tsteq	r0, r2, ror #18
   c:	00000029 	andeq	r0, r0, r9, lsr #32
  10:	4d524105 	ldfmie	f4, [r2, #-20]	; 0xffffffec
  14:	36373131 			; <UNDEFINED> instruction: 0x36373131
  18:	2d465a4a 	vstrcs	s11, [r6, #-296]	; 0xfffffed8
  1c:	07060053 	smlsdeq	r6, r3, r0, r0
  20:	01090108 	tsteq	r9, r8, lsl #2
  24:	01140412 	tsteq	r4, r2, lsl r4
  28:	03170115 	tsteq	r7, #1073741829	; 0x40000005
  2c:	011a0118 	tsteq	sl, r8, lsl r1
  30:	01440122 	cmpeq	r4, r2, lsr #2

Disassembly of section .comment:

00000000 <.comment>:
   0:	3a434347 	bcc	10d0d24 <__bss_end__+0xeccecc>
   4:	4e472820 	cdpmi	8, 4, cr2, cr7, cr0, {1}
   8:	34202955 	strtcc	r2, [r0], #-2389	; 0x955
   c:	332e382e 	teqcc	lr, #3014656	; 0x2e0000
	...

Disassembly of section .debug_info:

00000000 <.debug_info>:
       0:	00000617 	andeq	r0, r0, r7, lsl r6
       4:	00000004 	andeq	r0, r0, r4
       8:	01040000 	mrseq	r0, (UNDEF: 4)
       c:	00000066 	andeq	r0, r0, r6, rrx
      10:	00012201 	andeq	r2, r1, r1, lsl #4
      14:	00015400 	andeq	r5, r1, r0, lsl #8
      18:	20001000 	andcs	r1, r0, r0
      1c:	00016c00 	andeq	r6, r1, r0, lsl #24
      20:	00000000 	andeq	r0, r0, r0
      24:	05040200 	streq	r0, [r4, #-512]	; 0x200
      28:	00746e69 	rsbseq	r6, r4, r9, ror #28
      2c:	f6070403 			; <UNDEFINED> instruction: 0xf6070403
      30:	03000001 	movweq	r0, #1
      34:	00e50601 	rsceq	r0, r5, r1, lsl #12
      38:	02030000 	andeq	r0, r3, #0
      3c:	00025405 	andeq	r5, r2, r5, lsl #8
      40:	05040300 	streq	r0, [r4, #-768]	; 0x300
      44:	00000230 	andeq	r0, r0, r0, lsr r2
      48:	2b050803 	blcs	14205c <_start+0x13a05c>
      4c:	04000002 	streq	r0, [r0], #-2
      50:	00000203 	andeq	r0, r0, r3, lsl #4
      54:	005a2e02 	subseq	r2, sl, r2, lsl #28
      58:	01030000 	mrseq	r0, (UNDEF: 3)
      5c:	0000e308 	andeq	lr, r0, r8, lsl #6
      60:	07020300 	streq	r0, [r2, -r0, lsl #6]
      64:	0000002e 	andeq	r0, r0, lr, lsr #32
      68:	00026b04 	andeq	r6, r2, r4, lsl #22
      6c:	73340200 	teqvc	r4, #0, 4
      70:	03000000 	movweq	r0, #0
      74:	01f10704 	mvnseq	r0, r4, lsl #14
      78:	08030000 	stmdaeq	r3, {}	; <UNPREDICTABLE>
      7c:	0001ec07 	andeq	lr, r1, r7, lsl #24
      80:	07040300 	streq	r0, [r4, -r0, lsl #6]
      84:	00000222 	andeq	r0, r0, r2, lsr #4
      88:	ec080103 	stfs	f0, [r8], {3}
      8c:	05000000 	streq	r0, [r0, #-0]
      90:	00009504 	andeq	r9, r0, r4, lsl #10
      94:	00880600 	addeq	r0, r8, r0, lsl #12
      98:	2c070000 	stccs	0, cr0, [r7], {-0}
      9c:	08000000 	stmdaeq	r0, {}	; <UNPREDICTABLE>
      a0:	d60e030c 	strle	r0, [lr], -ip, lsl #6
      a4:	09000000 	stmdbeq	r0, {}	; <UNPREDICTABLE>
      a8:	03007874 	movweq	r7, #2164	; 0x874
      ac:	00004f0f 	andeq	r4, r0, pc, lsl #30
      b0:	72090000 	andvc	r0, r9, #0
      b4:	0f030078 	svceq	0x00030078
      b8:	0000004f 	andeq	r0, r0, pc, asr #32
      bc:	011d0a01 	tsteq	sp, r1, lsl #20
      c0:	10030000 	andne	r0, r3, r0
      c4:	00000068 	andeq	r0, r0, r8, rrx
      c8:	01460a04 	cmpeq	r6, r4, lsl #20
      cc:	11030000 	mrsne	r0, (UNDEF: 3)
      d0:	00000068 	andeq	r0, r0, r8, rrx
      d4:	00040008 	andeq	r0, r4, r8
      d8:	03000001 	movweq	r0, #1
      dc:	00009f12 	andeq	r9, r0, r2, lsl pc
      e0:	04040b00 	streq	r0, [r4], #-2816	; 0xb00
      e4:	00015603 	andeq	r5, r1, r3, lsl #12
      e8:	01c70c00 	biceq	r0, r7, r0, lsl #24
      ec:	80800000 	addhi	r0, r0, r0
      f0:	028f0c02 	addeq	r0, pc, #512	; 0x200
      f4:	80800000 	addhi	r0, r0, r0
      f8:	0c0ffffc 	stceq	15, cr15, [pc], {252}	; 0xfc
      fc:	0000010f 	andeq	r0, r0, pc, lsl #2
     100:	88c4c4a2 	stmiahi	r4, {r1, r5, r7, sl, lr, pc}^
     104:	01de0c01 	bicseq	r0, lr, r1, lsl #24
     108:	88c40000 	stmiahi	r4, {}^	; <UNPREDICTABLE>
     10c:	0c0399cd 	stceq	9, cr9, [r3], {205}	; 0xcd
     110:	00000018 	andeq	r0, r0, r8, lsl r0
     114:	aad5cce6 	bge	ff5734b4 <__bss_end__+0xff36f65c>
     118:	020b0c05 	andeq	r0, fp, #1280	; 0x500
     11c:	91880000 	orrls	r0, r8, r0
     120:	0c07bbde 	stceq	11, cr11, [r7], {222}	; 0xde
     124:	00000274 	andeq	r0, r0, r4, ror r2
     128:	cce6d5aa 	cfstr64gt	mvdx13, [r6], #680	; 0x2a8
     12c:	012f0c09 	teqeq	pc, r9, lsl #24
     130:	99cc0000 	stmibls	ip, {}^	; <UNPREDICTABLE>
     134:	0c0bddef 	stceq	13, cr13, [fp], {239}	; 0xef
     138:	00000021 	andeq	r0, r0, r1, lsr #32
     13c:	eef7ddee 	cdp	13, 15, cr13, cr7, cr14, {7}
     140:	02810c0d 	addeq	r0, r1, #3328	; 0xd00
     144:	fdef0000 	stc2l	0, cr0, [pc]	; 14c <_start-0x7eb4>
     148:	0c0df5b6 	cfstr32eq	mvfx15, [sp], {182}	; 0xb6
     14c:	000000cb 	andeq	r0, r0, fp, asr #1
     150:	f7b7f5ce 			; <UNDEFINED> instruction: 0xf7b7f5ce
     154:	750d000f 	strvc	r0, [sp, #-15]
     158:	04003233 	streq	r3, [r0], #-563	; 0x233
     15c:	00002c23 	andeq	r2, r0, r3, lsr #24
     160:	00da0e00 	sbcseq	r0, sl, r0, lsl #28
     164:	26010000 	strcs	r0, [r1], -r0
     168:	00017803 	andeq	r7, r1, r3, lsl #16
     16c:	63750f00 	cmnvs	r5, #0, 30
     170:	5a260100 	bpl	980578 <__bss_end__+0x77c720>
     174:	00000000 	andeq	r0, r0, r0
     178:	00004110 	andeq	r4, r0, r0, lsl r1
     17c:	5a290100 	bpl	a40584 <__bss_end__+0x83c72c>
     180:	03000000 	movweq	r0, #0
     184:	0002390e 	andeq	r3, r2, lr, lsl #18
     188:	03340100 	teqeq	r4, #0, 2
     18c:	0000019a 	muleq	r0, sl, r1
     190:	0100750f 	tsteq	r0, pc, lsl #10
     194:	00002c34 	andeq	r2, r0, r4, lsr ip
     198:	b2110000 	andslt	r0, r1, #0
     19c:	01000001 	tsteq	r0, r1
     1a0:	2000104e 	andcs	r1, r0, lr, asr #32
     1a4:	0000bc00 	andeq	fp, r0, r0, lsl #24
     1a8:	b49c0100 	ldrlt	r0, [ip], #256	; 0x100
     1ac:	12000003 	andne	r0, r0, #3
     1b0:	0067736d 	rsbeq	r7, r7, sp, ror #6
     1b4:	008f4e01 	addeq	r4, pc, r1, lsl #28
     1b8:	00000000 	andeq	r0, r0, r0
     1bc:	6e130000 	cdpvs	0, 1, cr0, cr3, cr0, {0}
     1c0:	25510100 	ldrbcs	r0, [r1, #-256]	; 0x100
     1c4:	1e000000 	cdpne	0, 0, cr0, cr0, cr0, {0}
     1c8:	14000000 	strne	r0, [r0], #-0
     1cc:	00000184 	andeq	r0, r0, r4, lsl #3
     1d0:	00200018 	eoreq	r0, r0, r8, lsl r0
     1d4:	00000034 	andeq	r0, r0, r4, lsr r0
     1d8:	02a54f01 	adceq	r4, r5, #1, 30
     1dc:	90150000 	andsls	r0, r5, r0
     1e0:	ee000001 	cdp	0, 0, cr0, cr0, cr1, {0}
     1e4:	7deef7dd 	stclvc	7, cr15, [lr, #884]!	; 0x374
     1e8:	00016114 	andeq	r6, r1, r4, lsl r1
     1ec:	20001800 	andcs	r1, r0, r0, lsl #16
     1f0:	00001000 	andeq	r1, r0, r0
     1f4:	18350100 	ldmdane	r5!, {r8}
     1f8:	15000002 	strne	r0, [r0, #-2]
     1fc:	0000016d 	andeq	r0, r0, sp, ror #2
     200:	0028166e 	eoreq	r1, r8, lr, ror #12
     204:	05c80020 	strbeq	r0, [r8, #32]
     208:	01170000 	tsteq	r7, r0
     20c:	ee090251 	mcr	2, 0, r0, cr9, cr1, {2}
     210:	02500117 	subseq	r0, r0, #-1073741819	; 0xc0000005
     214:	00000074 	andeq	r0, r0, r4, ror r0
     218:	00016114 	andeq	r6, r1, r4, lsl r1
     21c:	20002800 	andcs	r2, r0, r0, lsl #16
     220:	00000c00 	andeq	r0, r0, r0, lsl #24
     224:	48360100 	ldmdami	r6!, {r8}
     228:	15000002 	strne	r0, [r0, #-2]
     22c:	0000016d 	andeq	r0, r0, sp, ror #2
     230:	0034166e 	eorseq	r1, r4, lr, ror #12
     234:	05c80020 	strbeq	r0, [r8, #32]
     238:	01170000 	tsteq	r7, r0
     23c:	ee090251 	mcr	2, 0, r0, cr9, cr1, {2}
     240:	02500117 	subseq	r0, r0, #-1073741819	; 0xc0000005
     244:	00000074 	andeq	r0, r0, r4, ror r0
     248:	00016114 	andeq	r6, r1, r4, lsl r1
     24c:	20003400 	andcs	r3, r0, r0, lsl #8
     250:	00000c00 	andeq	r0, r0, r0, lsl #24
     254:	78370100 	ldmdavc	r7!, {r8}
     258:	15000002 	strne	r0, [r0, #-2]
     25c:	0000016d 	andeq	r0, r0, sp, ror #2
     260:	0040165d 	subeq	r1, r0, sp, asr r6
     264:	05c80020 	strbeq	r0, [r8, #32]
     268:	01170000 	tsteq	r7, r0
     26c:	dd090251 	sfmle	f0, 4, [r9, #-324]	; 0xfffffebc
     270:	02500117 	subseq	r0, r0, #-1073741819	; 0xc0000005
     274:	00000074 	andeq	r0, r0, r4, ror r0
     278:	00016118 	andeq	r6, r1, r8, lsl r1
     27c:	20004000 	andcs	r4, r0, r0
     280:	00000c00 	andeq	r0, r0, r0, lsl #24
     284:	15380100 	ldrne	r0, [r8, #-256]!	; 0x100
     288:	0000016d 	andeq	r0, r0, sp, ror #2
     28c:	004c165d 	subeq	r1, ip, sp, asr r6
     290:	05c80020 	strbeq	r0, [r8, #32]
     294:	01170000 	tsteq	r7, r0
     298:	dd090251 	sfmle	f0, 4, [r9, #-324]	; 0xfffffebc
     29c:	02500117 	subseq	r0, r0, #-1073741819	; 0xc0000005
     2a0:	00000074 	andeq	r0, r0, r4, ror r0
     2a4:	01841400 	orreq	r1, r4, r0, lsl #8
     2a8:	00680000 	rsbeq	r0, r8, r0
     2ac:	003c0020 	eorseq	r0, ip, r0, lsr #32
     2b0:	54010000 	strpl	r0, [r1], #-0
     2b4:	0000038a 	andeq	r0, r0, sl, lsl #7
     2b8:	00019019 	andeq	r9, r1, r9, lsl r0
     2bc:	00004700 	andeq	r4, r0, r0, lsl #14
     2c0:	01611400 	cmneq	r1, r0, lsl #8
     2c4:	00680000 	rsbeq	r0, r8, r0
     2c8:	00100020 	andseq	r0, r0, r0, lsr #32
     2cc:	35010000 	strcc	r0, [r1, #-0]
     2d0:	000002ee 	andeq	r0, r0, lr, ror #5
     2d4:	00016d19 	andeq	r6, r1, r9, lsl sp
     2d8:	00004700 	andeq	r4, r0, r0, lsl #14
     2dc:	00781600 	rsbseq	r1, r8, r0, lsl #12
     2e0:	05c80020 	strbeq	r0, [r8, #32]
     2e4:	01170000 	tsteq	r7, r0
     2e8:	00760250 	rsbseq	r0, r6, r0, asr r2
     2ec:	61140000 	tstvs	r4, r0
     2f0:	7c000001 	stcvc	0, cr0, [r0], {1}
     2f4:	0c002000 	stceq	0, cr2, [r0], {-0}
     2f8:	01000000 	mrseq	r0, (UNDEF: 0)
     2fc:	00032336 	andeq	r2, r3, r6, lsr r3
     300:	016d1900 	cmneq	sp, r0, lsl #18
     304:	00650000 	rsbeq	r0, r5, r0
     308:	88160000 	ldmdahi	r6, {}	; <UNPREDICTABLE>
     30c:	c8002000 	stmdagt	r0, {sp}
     310:	17000005 	strne	r0, [r0, -r5]
     314:	74045101 	strvc	r5, [r4], #-257	; 0x101
     318:	17253800 	strne	r3, [r5, -r0, lsl #16]!
     31c:	76025001 	strvc	r5, [r2], -r1
     320:	14000000 	strne	r0, [r0], #-0
     324:	00000161 	andeq	r0, r0, r1, ror #2
     328:	0020008c 	eoreq	r0, r0, ip, lsl #1
     32c:	0000000c 	andeq	r0, r0, ip
     330:	03583701 	cmpeq	r8, #262144	; 0x40000
     334:	6d190000 	ldcvs	0, cr0, [r9, #-0]
     338:	87000001 	strhi	r0, [r0, -r1]
     33c:	16000000 	strne	r0, [r0], -r0
     340:	00200098 	mlaeq	r0, r8, r0, r0
     344:	000005c8 	andeq	r0, r0, r8, asr #11
     348:	04510117 	ldrbeq	r0, [r1], #-279	; 0x117
     34c:	25400074 	strbcs	r0, [r0, #-116]	; 0x74
     350:	02500117 	subseq	r0, r0, #-1073741819	; 0xc0000005
     354:	00000076 	andeq	r0, r0, r6, ror r0
     358:	00016118 	andeq	r6, r1, r8, lsl r1
     35c:	20009800 	andcs	r9, r0, r0, lsl #16
     360:	00000c00 	andeq	r0, r0, r0, lsl #24
     364:	19380100 	ldmdbne	r8!, {r8}
     368:	0000016d 	andeq	r0, r0, sp, ror #2
     36c:	000000a9 	andeq	r0, r0, r9, lsr #1
     370:	2000a416 	andcs	sl, r0, r6, lsl r4
     374:	0005c800 	andeq	ip, r5, r0, lsl #16
     378:	51011700 	tstpl	r1, r0, lsl #14
     37c:	48007404 	stmdami	r0, {r2, sl, ip, sp, lr}
     380:	50011725 	andpl	r1, r1, r5, lsr #14
     384:	00007602 	andeq	r7, r0, r2, lsl #12
     388:	61180000 	tstvs	r8, r0
     38c:	ac000001 	stcge	0, cr0, [r0], {1}
     390:	08002000 	stmdaeq	r0, {sp}
     394:	01000000 	mrseq	r0, (UNDEF: 0)
     398:	016d1956 	cmneq	sp, r6, asr r9
     39c:	00c00000 	sbceq	r0, r0, r0
     3a0:	b4160000 	ldrlt	r0, [r6], #-0
     3a4:	c8002000 	stmdagt	r0, {sp}
     3a8:	17000005 	strne	r0, [r0, -r5]
     3ac:	76025001 	strvc	r5, [r2], -r1
     3b0:	00000000 	andeq	r0, r0, r0
     3b4:	00000a11 	andeq	r0, r0, r1, lsl sl
     3b8:	cc5d0100 	ldfgte	f0, [sp], {-0}
     3bc:	68002000 	stmdavs	r0, {sp}
     3c0:	01000000 	mrseq	r0, (UNDEF: 0)
     3c4:	0004ca9c 	muleq	r4, ip, sl
     3c8:	00d01a00 	sbcseq	r1, r0, r0, lsl #20
     3cc:	00640020 	rsbeq	r0, r4, r0, lsr #32
     3d0:	731b0000 	tstvc	fp, #0
     3d4:	2c7d0100 	ldfcse	f0, [sp], #-0
     3d8:	01000000 	mrseq	r0, (UNDEF: 0)
     3dc:	01841c54 	orreq	r1, r4, r4, asr ip
     3e0:	00d00000 	sbcseq	r0, r0, r0
     3e4:	00000020 	andeq	r0, r0, r0, lsr #32
     3e8:	7b010000 	blvc	403f0 <_start+0x383f0>
     3ec:	000004b6 			; <UNDEFINED> instruction: 0x000004b6
     3f0:	0001901d 	andeq	r9, r1, sp, lsl r0
     3f4:	11222200 	teqne	r2, r0, lsl #4
     3f8:	01611c11 	cmneq	r1, r1, lsl ip
     3fc:	00d00000 	sbcseq	r0, r0, r0
     400:	00180020 	andseq	r0, r8, r0, lsr #32
     404:	35010000 	strcc	r0, [r1, #-0]
     408:	00000429 	andeq	r0, r0, r9, lsr #8
     40c:	00016d1e 	andeq	r6, r1, lr, lsl sp
     410:	ec162200 	lfm	f2, 4, [r6], {-0}
     414:	c8002000 	stmdagt	r0, {sp}
     418:	17000005 	strne	r0, [r0, -r5]
     41c:	78025101 	stmdavc	r2, {r0, r8, ip, lr}
     420:	50011700 	andpl	r1, r1, r0, lsl #14
     424:	00007602 	andeq	r7, r0, r2, lsl #12
     428:	01611c00 	cmneq	r1, r0, lsl #24
     42c:	00d80000 	sbcseq	r0, r8, r0
     430:	00300020 	eorseq	r0, r0, r0, lsr #32
     434:	37010000 	strcc	r0, [r1, -r0]
     438:	00000459 	andeq	r0, r0, r9, asr r4
     43c:	00016d1e 	andeq	r6, r1, lr, lsl sp
     440:	04161100 	ldreq	r1, [r6], #-256	; 0x100
     444:	c8002001 	stmdagt	r0, {r0, sp}
     448:	17000005 	strne	r0, [r0, -r5]
     44c:	77025101 	strvc	r5, [r2, -r1, lsl #2]
     450:	50011700 	andpl	r1, r1, r0, lsl #14
     454:	00007602 	andeq	r7, r0, r2, lsl #12
     458:	01611400 	cmneq	r1, r0, lsl #8
     45c:	00ec0000 	rsceq	r0, ip, r0
     460:	000c0020 	andeq	r0, ip, r0, lsr #32
     464:	36010000 	strcc	r0, [r1], -r0
     468:	00000489 	andeq	r0, r0, r9, lsl #9
     46c:	00016d1e 	andeq	r6, r1, lr, lsl sp
     470:	f8162200 			; <UNDEFINED> instruction: 0xf8162200
     474:	c8002000 	stmdagt	r0, {sp}
     478:	17000005 	strne	r0, [r0, -r5]
     47c:	78025101 	stmdavc	r2, {r0, r8, ip, lr}
     480:	50011700 	andpl	r1, r1, r0, lsl #14
     484:	00007602 	andeq	r7, r0, r2, lsl #12
     488:	01611800 	cmneq	r1, r0, lsl #16
     48c:	01040000 	mrseq	r0, (UNDEF: 4)
     490:	000c0020 	andeq	r0, ip, r0, lsr #32
     494:	38010000 	stmdacc	r1, {}	; <UNPREDICTABLE>
     498:	00016d1e 	andeq	r6, r1, lr, lsl sp
     49c:	10161100 	andsne	r1, r6, r0, lsl #2
     4a0:	c8002001 	stmdagt	r0, {r0, sp}
     4a4:	17000005 	strne	r0, [r0, -r5]
     4a8:	77025101 	strvc	r5, [r2, -r1, lsl #2]
     4ac:	50011700 	andpl	r1, r1, r0, lsl #14
     4b0:	00007602 	andeq	r7, r0, r2, lsl #12
     4b4:	141f0000 	ldrne	r0, [pc], #-0	; 4bc <_start-0x7b44>
     4b8:	e4002001 	str	r2, [r0], #-1
     4bc:	1f000005 	svcne	0x00000005
     4c0:	0020011c 	eoreq	r0, r0, ip, lsl r1
     4c4:	000005e4 	andeq	r0, r0, r4, ror #11
     4c8:	c3110000 	tstgt	r1, #0
     4cc:	01000000 	mrseq	r0, (UNDEF: 0)
     4d0:	2001348c 	andcs	r3, r1, ip, lsl #9
     4d4:	00004800 	andeq	r4, r0, r0, lsl #16
     4d8:	559c0100 	ldrpl	r0, [ip, #256]	; 0x100
     4dc:	20000005 	andcs	r0, r0, r5
     4e0:	0000005e 	andeq	r0, r0, lr, asr r0
     4e4:	002ca301 	eoreq	sl, ip, r1, lsl #6
     4e8:	0a200000 	beq	8004f0 <__bss_end__+0x5fc698>
     4ec:	01000001 	tsteq	r0, r1
     4f0:	00002caa 	andeq	r2, r0, sl, lsr #25
     4f4:	02422000 	subeq	r2, r2, #0
     4f8:	ab010000 	blge	40500 <_start+0x38500>
     4fc:	0000002c 	andeq	r0, r0, ip, lsr #32
     500:	0000bd20 	andeq	fp, r0, r0, lsr #26
     504:	2cac0100 	stfcss	f0, [ip]
     508:	21000000 	mrscs	r0, (UNDEF: 0)
     50c:	c1010069 	tstgt	r1, r9, rrx
     510:	00000025 	andeq	r0, r0, r5, lsr #32
     514:	20016022 	andcs	r6, r1, r2, lsr #32
     518:	0005ef00 	andeq	lr, r5, r0, lsl #30
     51c:	00054200 	andeq	r4, r5, r0, lsl #4
     520:	53011700 	movwpl	r1, #5888	; 0x1700
     524:	39e10804 	stmibcc	r1!, {r2, fp}^
     528:	52011724 	andpl	r1, r1, #36, 14	; 0x900000
     52c:	01174401 	tsteq	r7, r1, lsl #8
     530:	17450151 	smlsldne	r0, r5, r1, r1
     534:	74025001 	strvc	r5, [r2], #-1
     538:	7d021700 	stcvc	7, cr1, [r2, #-0]
     53c:	bc0a0300 	stclt	3, cr0, [sl], {-0}
     540:	6c1f0017 	ldcvs	0, cr0, [pc], {23}
     544:	13002001 	movwne	r2, #1
     548:	1f000006 	svcne	0x00000006
     54c:	00200170 	eoreq	r0, r0, r0, ror r1
     550:	000003b4 			; <UNDEFINED> instruction: 0x000003b4
     554:	01562300 	cmpeq	r6, r0, lsl #6
     558:	05650000 	strbeq	r0, [r5, #-0]!
     55c:	81240000 	teqhi	r4, r0
     560:	ff000000 			; <UNDEFINED> instruction: 0xff000000
     564:	00002000 	andeq	r2, r0, r0
     568:	26040000 	strcs	r0, [r4], -r0
     56c:	00000555 	andeq	r0, r0, r5, asr r5
     570:	0100751b 	tsteq	r0, fp, lsl r5
     574:	0000d61e 	andeq	sp, r0, lr, lsl r6
     578:	fc030500 	stc2	5, cr0, [r3], {-0}
     57c:	25002019 	strcs	r2, [r0, #-25]
     580:	00000249 	andeq	r0, r0, r9, asr #4
     584:	05902001 	ldreq	r2, [r0, #1]
     588:	03050000 	movweq	r0, #20480	; 0x5000
     58c:	00201a14 	eoreq	r1, r0, r4, lsl sl
     590:	00002507 	andeq	r2, r0, r7, lsl #10
     594:	02142500 	andseq	r2, r4, #0, 10
     598:	23010000 	movwcs	r0, #4096	; 0x1000
     59c:	0000009a 	muleq	r0, sl, r0
     5a0:	1a100305 	bne	4011bc <__bss_end__+0x1fd364>
     5a4:	f1250020 			; <UNDEFINED> instruction: 0xf1250020
     5a8:	01000000 	mrseq	r0, (UNDEF: 0)
     5ac:	00009a23 	andeq	r9, r0, r3, lsr #20
     5b0:	0c030500 	cfstr32eq	mvfx0, [r3], {-0}
     5b4:	2500201a 	strcs	r2, [r0, #-26]
     5b8:	0000013a 	andeq	r0, r0, sl, lsr r1
     5bc:	009a2301 	addseq	r2, sl, r1, lsl #6
     5c0:	03050000 	movweq	r0, #20480	; 0x5000
     5c4:	00201a08 	eoreq	r1, r0, r8, lsl #20
     5c8:	0001ba26 	andeq	fp, r1, r6, lsr #20
     5cc:	de2a0300 	cdple	3, 2, cr0, cr10, cr0, {0}
     5d0:	27000005 	strcs	r0, [r0, -r5]
     5d4:	000005de 	ldrdeq	r0, [r0], -lr
     5d8:	00005a27 	andeq	r5, r0, r7, lsr #20
     5dc:	04050000 	streq	r0, [r5], #-0
     5e0:	000000d6 	ldrdeq	r0, [r0], -r6
     5e4:	0001cf28 	andeq	ip, r1, r8, lsr #30
     5e8:	2c520500 	cfldr64cs	mvdx0, [r2], {-0}
     5ec:	29000000 	stmdbcs	r0, {}	; <UNPREDICTABLE>
     5f0:	0000004a 	andeq	r0, r0, sl, asr #32
     5f4:	00d61d03 	sbcseq	r1, r6, r3, lsl #26
     5f8:	06130000 	ldreq	r0, [r3], -r0
     5fc:	4f270000 	svcmi	0x00270000
     600:	27000000 	strcs	r0, [r0, -r0]
     604:	0000004f 	andeq	r0, r0, pc, asr #32
     608:	00006827 	andeq	r6, r0, r7, lsr #16
     60c:	00682700 	rsbeq	r2, r8, r0, lsl #14
     610:	2a000000 	bcs	618 <_start-0x79e8>
     614:	0000025e 	andeq	r0, r0, lr, asr r2
     618:	b8008805 	stmdalt	r0, {r0, r2, fp, pc}
     61c:	04000000 	streq	r0, [r0], #-0
     620:	00022d00 	andeq	r2, r2, r0, lsl #26
     624:	66010400 	strvs	r0, [r1], -r0, lsl #8
     628:	01000000 	mrseq	r0, (UNDEF: 0)
     62c:	000002ec 	andeq	r0, r0, ip, ror #5
     630:	000002a8 	andeq	r0, r0, r8, lsr #5
     634:	0020017c 	eoreq	r0, r0, ip, ror r1
     638:	00000020 	andeq	r0, r0, r0, lsr #32
     63c:	000001c1 	andeq	r0, r0, r1, asr #3
     640:	69050402 	stmdbvs	r5, {r1, sl}
     644:	0300746e 	movweq	r7, #1134	; 0x46e
     648:	01f60704 	mvnseq	r0, r4, lsl #14
     64c:	01030000 	mrseq	r0, (UNDEF: 3)
     650:	0000e506 	andeq	lr, r0, r6, lsl #10
     654:	05020300 	streq	r0, [r2, #-768]	; 0x300
     658:	00000254 	andeq	r0, r0, r4, asr r2
     65c:	30050403 	andcc	r0, r5, r3, lsl #8
     660:	03000002 	movweq	r0, #2
     664:	022b0508 	eoreq	r0, fp, #8, 10	; 0x2000000
     668:	01030000 	mrseq	r0, (UNDEF: 3)
     66c:	0000e308 	andeq	lr, r0, r8, lsl #6
     670:	07020300 	streq	r0, [r2, -r0, lsl #6]
     674:	0000002e 	andeq	r0, r0, lr, lsr #32
     678:	f1070403 			; <UNDEFINED> instruction: 0xf1070403
     67c:	03000001 	movweq	r0, #1
     680:	01ec0708 	mvneq	r0, r8, lsl #14
     684:	04030000 	streq	r0, [r3], #-0
     688:	00022207 	andeq	r2, r2, r7, lsl #4
     68c:	08010300 	stmdaeq	r1, {r8, r9}
     690:	000000ec 	andeq	r0, r0, ip, ror #1
     694:	00025e04 	andeq	r5, r2, r4, lsl #28
     698:	7c030100 	stfvcs	f0, [r3], {-0}
     69c:	10002001 	andne	r2, r0, r1
     6a0:	01000000 	mrseq	r0, (UNDEF: 0)
     6a4:	00009c9c 	muleq	r0, ip, ip
     6a8:	00720500 	rsbseq	r0, r2, r0, lsl #10
     6ac:	002c0401 	eoreq	r0, ip, r1, lsl #8
     6b0:	00d30000 	sbcseq	r0, r3, r0
     6b4:	06000000 	streq	r0, [r0], -r0
     6b8:	0000029a 	muleq	r0, sl, r2
     6bc:	018c0c01 	orreq	r0, ip, r1, lsl #24
     6c0:	00100020 	andseq	r0, r0, r0, lsr #32
     6c4:	9c010000 	stcls	0, cr0, [r1], {-0}
     6c8:	01007205 	tsteq	r0, r5, lsl #4
     6cc:	00002c0d 	andeq	r2, r0, sp, lsl #24
     6d0:	0000f700 	andeq	pc, r0, r0, lsl #14
     6d4:	ff000000 			; <UNDEFINED> instruction: 0xff000000
     6d8:	04000000 	streq	r0, [r0], #-0
     6dc:	00029800 	andeq	r9, r2, r0, lsl #16
     6e0:	66010400 	strvs	r0, [r1], -r0, lsl #8
     6e4:	01000000 	mrseq	r0, (UNDEF: 0)
     6e8:	00000317 	andeq	r0, r0, r7, lsl r3
     6ec:	000002a8 	andeq	r0, r0, r8, lsr #5
     6f0:	0020019c 	mlaeq	r0, ip, r1, r0
     6f4:	00000028 	andeq	r0, r0, r8, lsr #32
     6f8:	00000208 	andeq	r0, r0, r8, lsl #4
     6fc:	69050402 	stmdbvs	r5, {r1, sl}
     700:	0300746e 	movweq	r7, #1134	; 0x46e
     704:	01f60704 	mvnseq	r0, r4, lsl #14
     708:	01030000 	mrseq	r0, (UNDEF: 3)
     70c:	0000e506 	andeq	lr, r0, r6, lsl #10
     710:	05020300 	streq	r0, [r2, #-768]	; 0x300
     714:	00000254 	andeq	r0, r0, r4, asr r2
     718:	30050403 	andcc	r0, r5, r3, lsl #8
     71c:	03000002 	movweq	r0, #2
     720:	022b0508 	eoreq	r0, fp, #8, 10	; 0x2000000
     724:	01030000 	mrseq	r0, (UNDEF: 3)
     728:	0000e308 	andeq	lr, r0, r8, lsl #6
     72c:	07020300 	streq	r0, [r2, -r0, lsl #6]
     730:	0000002e 	andeq	r0, r0, lr, lsr #32
     734:	f1070403 			; <UNDEFINED> instruction: 0xf1070403
     738:	03000001 	movweq	r0, #1
     73c:	01ec0708 	mvneq	r0, r8, lsl #14
     740:	04030000 	streq	r0, [r3], #-0
     744:	00022207 	andeq	r2, r2, r7, lsl #4
     748:	08010300 	stmdaeq	r1, {r8, r9}
     74c:	000000ec 	andeq	r0, r0, ip, ror #1
     750:	007f0404 	rsbseq	r0, pc, r4, lsl #8
     754:	72050000 	andvc	r0, r5, #0
     758:	06000000 	streq	r0, [r0], -r0
     75c:	0000030a 	andeq	r0, r0, sl, lsl #6
     760:	019c0401 	orrseq	r0, ip, r1, lsl #8
     764:	00280020 	eoreq	r0, r8, r0, lsr #32
     768:	9c010000 	stcls	0, cr0, [r1], {-0}
     76c:	000000ca 	andeq	r0, r0, sl, asr #1
     770:	2001b007 	andcs	fp, r1, r7
     774:	0000ac00 	andeq	sl, r0, r0, lsl #24
     778:	50010800 	andpl	r0, r1, r0, lsl #16
     77c:	17780305 	ldrbne	r0, [r8, -r5, lsl #6]!
     780:	09000020 	stmdbeq	r0, {r5}
     784:	002001b8 	strhteq	r0, [r0], -r8
     788:	000000ea 	andeq	r0, r0, sl, ror #1
     78c:	000000c0 	andeq	r0, r0, r0, asr #1
     790:	02500108 	subseq	r0, r0, #8, 2
     794:	0a006408 	beq	197bc <_start+0x117bc>
     798:	002001bc 	strhteq	r0, [r0], -ip
     79c:	000000fb 	strdeq	r0, [r0], -fp
     7a0:	00250b00 	eoreq	r0, r5, r0, lsl #22
     7a4:	00d90000 	sbcseq	r0, r9, r0
     7a8:	790c0000 	stmdbvc	ip, {}	; <UNPREDICTABLE>
     7ac:	00000000 	andeq	r0, r0, r0
     7b0:	0009630d 	andeq	r6, r9, sp, lsl #6
     7b4:	e4200200 	strt	r0, [r0], #-512	; 0x200
     7b8:	04000000 	streq	r0, [r0], #-0
     7bc:	0000ca04 	andeq	ip, r0, r4, lsl #20
     7c0:	03310e00 	teqeq	r1, #0, 28
     7c4:	4d020000 	stcmi	0, cr0, [r2, #-0]
     7c8:	000000fb 	strdeq	r0, [r0], -fp
     7cc:	00002c0c 	andeq	r2, r0, ip, lsl #24
     7d0:	ff0f0000 			; <UNDEFINED> instruction: 0xff0f0000
     7d4:	02000002 	andeq	r0, r0, #2
     7d8:	01ad0060 			; <UNDEFINED> instruction: 0x01ad0060
     7dc:	00040000 	andeq	r0, r4, r0
     7e0:	00000362 	andeq	r0, r0, r2, ror #6
     7e4:	00660104 	rsbeq	r0, r6, r4, lsl #2
     7e8:	54010000 	strpl	r0, [r1], #-0
     7ec:	a8000003 	stmdage	r0, {r0, r1}
     7f0:	48000002 	stmdami	r0, {r1}
     7f4:	00000000 	andeq	r0, r0, r0
     7f8:	9f000000 	svcls	0x00000000
     7fc:	02000002 	andeq	r0, r0, #2
     800:	6e690504 	cdpvs	5, 6, cr0, cr9, cr4, {0}
     804:	04030074 	streq	r0, [r3], #-116	; 0x74
     808:	0001f607 	andeq	pc, r1, r7, lsl #12
     80c:	06010300 	streq	r0, [r1], -r0, lsl #6
     810:	000000e5 	andeq	r0, r0, r5, ror #1
     814:	54050203 	strpl	r0, [r5], #-515	; 0x203
     818:	03000002 	movweq	r0, #2
     81c:	02300504 	eorseq	r0, r0, #4, 10	; 0x1000000
     820:	08030000 	stmdaeq	r3, {}	; <UNPREDICTABLE>
     824:	00022b05 	andeq	r2, r2, r5, lsl #22
     828:	08010300 	stmdaeq	r1, {r8, r9}
     82c:	000000e3 	andeq	r0, r0, r3, ror #1
     830:	2e070203 	cdpcs	2, 0, cr0, cr7, cr3, {0}
     834:	03000000 	movweq	r0, #0
     838:	01f10704 	mvnseq	r0, r4, lsl #14
     83c:	08030000 	stmdaeq	r3, {}	; <UNPREDICTABLE>
     840:	0001ec07 	andeq	lr, r1, r7, lsl #24
     844:	07040300 	streq	r0, [r4, -r0, lsl #6]
     848:	00000222 	andeq	r0, r0, r2, lsr #4
     84c:	ec080103 	stfs	f0, [r8], {3}
     850:	04000000 	streq	r0, [r0], #-0
     854:	0000033a 	andeq	r0, r0, sl, lsr r3
     858:	00250e01 	eoreq	r0, r5, r1, lsl #28
     85c:	01c40000 	biceq	r0, r4, r0
     860:	00180020 	andseq	r0, r8, r0, lsr #32
     864:	9c010000 	stcls	0, cr0, [r1], {-0}
     868:	000000a2 	andeq	r0, r0, r2, lsr #1
     86c:	0003a605 	andeq	sl, r3, r5, lsl #12
     870:	2c0f0100 	stfcss	f0, [pc], {-0}
     874:	1b000000 	blne	87c <_start-0x7784>
     878:	00000001 	andeq	r0, r0, r1
     87c:	00038906 	andeq	r8, r3, r6, lsl #18
     880:	dc170100 	ldfles	f0, [r7], {-0}
     884:	14002001 	strne	r2, [r0], #-1
     888:	01000000 	mrseq	r0, (UNDEF: 0)
     88c:	0000c79c 	muleq	r0, ip, r7
     890:	03a60500 			; <UNDEFINED> instruction: 0x03a60500
     894:	18010000 	stmdane	r1, {}	; <UNPREDICTABLE>
     898:	0000002c 	andeq	r0, r0, ip, lsr #32
     89c:	0000013a 	andeq	r0, r0, sl, lsr r1
     8a0:	02ff0600 	rscseq	r0, pc, #0, 12
     8a4:	1f010000 	svcne	0x00010000
     8a8:	002001f0 	strdeq	r0, [r0], -r0	; <UNPREDICTABLE>
     8ac:	00000048 	andeq	r0, r0, r8, asr #32
     8b0:	01779c01 	cmneq	r7, r1, lsl #24
     8b4:	9e070000 	cdpls	0, 0, cr0, cr7, cr0, {0}
     8b8:	01000003 	tsteq	r0, r3
     8bc:	0001772a 	andeq	r7, r1, sl, lsr #14
     8c0:	10001c00 	andne	r1, r0, r0, lsl #24
     8c4:	03810720 	orreq	r0, r1, #32, 14	; 0x800000
     8c8:	2b010000 	blcs	408d0 <_start+0x388d0>
     8cc:	00000177 	andeq	r0, r0, r7, ror r1
     8d0:	20100024 	andscs	r0, r0, r4, lsr #32
     8d4:	00034807 	andeq	r4, r3, r7, lsl #16
     8d8:	772c0100 	strvc	r0, [ip, -r0, lsl #2]!
     8dc:	00000001 	andeq	r0, r0, r1
     8e0:	085a0000 	ldmdaeq	sl, {}^	; <UNPREDICTABLE>
     8e4:	00000368 	andeq	r0, r0, r8, ror #6
     8e8:	01772d01 	cmneq	r7, r1, lsl #26
     8ec:	09200000 	stmdbeq	r0!, {}	; <UNPREDICTABLE>
     8f0:	002001f8 	strdeq	r0, [r0], -r8	; <UNPREDICTABLE>
     8f4:	00000079 	andeq	r0, r0, r9, ror r0
     8f8:	20020409 	andcs	r0, r2, r9, lsl #8
     8fc:	0000a200 	andeq	sl, r0, r0, lsl #4
     900:	020c0a00 	andeq	r0, ip, #0, 20
     904:	018d0020 	orreq	r0, sp, r0, lsr #32
     908:	013a0000 	teqeq	sl, r0
     90c:	010b0000 	mrseq	r0, (UNDEF: 11)
     910:	004e0150 	subeq	r0, lr, r0, asr r1
     914:	2002180a 	andcs	r1, r2, sl, lsl #16
     918:	00019e00 	andeq	r9, r1, r0, lsl #28
     91c:	00015a00 	andeq	r5, r1, r0, lsl #20
     920:	51010b00 	tstpl	r1, r0, lsl #22
     924:	00010c05 	andeq	r0, r1, r5, lsl #24
     928:	010b5a00 	tsteq	fp, r0, lsl #20
     92c:	240c0550 	strcs	r0, [ip], #-1360	; 0x550
     930:	00201000 	eoreq	r1, r0, r0
     934:	2002240c 	andcs	r2, r2, ip, lsl #8
     938:	00019e00 	andeq	r9, r1, r0, lsl #28
     93c:	51010b00 	tstpl	r1, r0, lsl #22
     940:	00200c05 	eoreq	r0, r0, r5, lsl #24
     944:	010b5a00 	tsteq	fp, r0, lsl #20
     948:	1c0c0550 	cfstr32ne	mvfx0, [ip], {80}	; 0x50
     94c:	00201000 	eoreq	r1, r0, r0
     950:	00250d00 	eoreq	r0, r5, r0, lsl #26
     954:	3d080000 	stccc	0, cr0, [r8, #-0]
     958:	01000003 	tsteq	r0, r3
     95c:	0001880d 	andeq	r8, r1, sp, lsl #16
     960:	2c0d1000 	stccs	0, cr1, [sp], {-0}
     964:	0e000000 	cdpeq	0, 0, cr0, cr0, cr0, {0}
     968:	00000331 	andeq	r0, r0, r1, lsr r3
     96c:	019e4d02 	orrseq	r4, lr, r2, lsl #26
     970:	2c0f0000 	stccs	0, cr0, [pc], {-0}
     974:	00000000 	andeq	r0, r0, r0
     978:	00039810 	andeq	r9, r3, r0, lsl r8
     97c:	0f940200 	svceq	0x00940200
     980:	0000002c 	andeq	r0, r0, ip, lsr #32
     984:	00002c0f 	andeq	r2, r0, pc, lsl #24
     988:	d8000000 	stmdale	r0, {}	; <UNPREDICTABLE>
     98c:	04000001 	streq	r0, [r0], #-1
     990:	00045000 	andeq	r5, r4, r0
     994:	66010400 	strvs	r0, [r1], -r0, lsl #8
     998:	01000000 	mrseq	r0, (UNDEF: 0)
     99c:	000003c8 	andeq	r0, r0, r8, asr #7
     9a0:	000002a8 	andeq	r0, r0, r8, lsr #5
     9a4:	00200238 	eoreq	r0, r0, r8, lsr r2
     9a8:	00000088 	andeq	r0, r0, r8, lsl #1
     9ac:	0000033c 	andeq	r0, r0, ip, lsr r3
     9b0:	69050402 	stmdbvs	r5, {r1, sl}
     9b4:	0300746e 	movweq	r7, #1134	; 0x46e
     9b8:	01f60704 	mvnseq	r0, r4, lsl #14
     9bc:	01030000 	mrseq	r0, (UNDEF: 3)
     9c0:	0000e506 	andeq	lr, r0, r6, lsl #10
     9c4:	05020300 	streq	r0, [r2, #-768]	; 0x300
     9c8:	00000254 	andeq	r0, r0, r4, asr r2
     9cc:	30050403 	andcc	r0, r5, r3, lsl #8
     9d0:	03000002 	movweq	r0, #2
     9d4:	022b0508 	eoreq	r0, fp, #8, 10	; 0x2000000
     9d8:	01030000 	mrseq	r0, (UNDEF: 3)
     9dc:	0000e308 	andeq	lr, r0, r8, lsl #6
     9e0:	07020300 	streq	r0, [r2, -r0, lsl #6]
     9e4:	0000002e 	andeq	r0, r0, lr, lsr #32
     9e8:	f1070403 			; <UNDEFINED> instruction: 0xf1070403
     9ec:	03000001 	movweq	r0, #1
     9f0:	01ec0708 	mvneq	r0, r8, lsl #14
     9f4:	04030000 	streq	r0, [r3], #-0
     9f8:	00022207 	andeq	r2, r2, r7, lsl #4
     9fc:	08010300 	stmdaeq	r1, {r8, r9}
     a00:	000000ec 	andeq	r0, r0, ip, ror #1
     a04:	0003e704 	andeq	lr, r3, r4, lsl #14
     a08:	38050100 	stmdacc	r5, {r8}
     a0c:	1c002002 	stcne	0, cr2, [r0], {2}
     a10:	01000000 	mrseq	r0, (UNDEF: 0)
     a14:	00009e9c 	muleq	r0, ip, lr
     a18:	03e10500 	mvneq	r0, #0, 10
     a1c:	05010000 	streq	r0, [r1, #-0]
     a20:	0000002c 	andeq	r0, r0, ip, lsr #32
     a24:	00000164 	andeq	r0, r0, r4, ror #2
     a28:	03ab0600 			; <UNDEFINED> instruction: 0x03ab0600
     a2c:	0b010000 	bleq	40a34 <_start+0x38a34>
     a30:	0000002c 	andeq	r0, r0, ip, lsr #32
     a34:	00200254 	eoreq	r0, r0, r4, asr r2
     a38:	00000014 	andeq	r0, r0, r4, lsl r0
     a3c:	00cb9c01 	sbceq	r9, fp, r1, lsl #24
     a40:	60070000 	andvs	r0, r7, r0
     a44:	ca002002 	bgt	8a54 <_start+0xa54>
     a48:	08000001 	stmdaeq	r0, {r0}
     a4c:	0c055001 	stceq	0, cr5, [r5], {1}
     a50:	20003004 	andcs	r3, r0, r4
     a54:	cf060000 	svcgt	0x00060000
     a58:	01000001 	tsteq	r0, r1
     a5c:	00002c10 	andeq	r2, r0, r0, lsl ip
     a60:	20026800 	andcs	r6, r2, r0, lsl #16
     a64:	00000c00 	andeq	r0, r0, r0, lsl #24
     a68:	f99c0100 			; <UNDEFINED> instruction: 0xf99c0100
     a6c:	09000000 	stmdbeq	r0, {}	; <UNPREDICTABLE>
     a70:	14010075 	strne	r0, [r1], #-117	; 0x75
     a74:	0000002c 	andeq	r0, r0, ip, lsr #32
     a78:	700a5001 	andvc	r5, sl, r1
     a7c:	9e002002 	cdpls	0, 0, cr2, cr0, cr2, {0}
     a80:	00000000 	andeq	r0, r0, r0
     a84:	0003f404 	andeq	pc, r3, r4, lsl #8
     a88:	74190100 	ldrvc	r0, [r9], #-256	; 0x100
     a8c:	24002002 	strcs	r2, [r0], #-2
     a90:	01000000 	mrseq	r0, (UNDEF: 0)
     a94:	0001579c 	muleq	r1, ip, r7
     a98:	73750b00 	cmnvc	r5, #0, 22
     a9c:	2c190100 	ldfcss	f0, [r9], {-0}
     aa0:	98000000 	stmdals	r0, {}	; <UNPREDICTABLE>
     aa4:	09000001 	stmdbeq	r0, {r0}
     aa8:	01006272 	tsteq	r0, r2, ror r2
     aac:	00002c1a 	andeq	r2, r0, sl, lsl ip
     ab0:	0c540100 	ldfeqe	f0, [r4], {-0}
     ab4:	00200284 	eoreq	r0, r0, r4, lsl #5
     ab8:	00000010 	andeq	r0, r0, r0, lsl r0
     abc:	0000014d 	andeq	r0, r0, sp, asr #2
     ac0:	0061720d 	rsbeq	r7, r1, sp, lsl #4
     ac4:	002c1c01 	eoreq	r1, ip, r1, lsl #24
     ac8:	01b60000 			; <UNDEFINED> instruction: 0x01b60000
     acc:	880a0000 	stmdahi	sl, {}	; <UNPREDICTABLE>
     ad0:	cb002002 	blgt	8ae0 <_start+0xae0>
     ad4:	00000000 	andeq	r0, r0, r0
     ad8:	2002800a 	andcs	r8, r2, sl
     adc:	0000cb00 	andeq	ip, r0, r0, lsl #22
     ae0:	31040000 	mrscc	r0, (UNDEF: 4)
     ae4:	01000003 	tsteq	r0, r3
     ae8:	20029822 	andcs	r9, r2, r2, lsr #16
     aec:	00001400 	andeq	r1, r0, r0, lsl #8
     af0:	909c0100 	addsls	r0, ip, r0, lsl #2
     af4:	0b000001 	bleq	b00 <_start-0x7500>
     af8:	0100736d 	tsteq	r0, sp, ror #6
     afc:	00002c22 	andeq	r2, r0, r2, lsr #24
     b00:	0001c900 	andeq	ip, r1, r0, lsl #18
     b04:	02a80700 	adceq	r0, r8, #0, 14
     b08:	00f90020 	rscseq	r0, r9, r0, lsr #32
     b0c:	01080000 	mrseq	r0, (UNDEF: 8)
     b10:	01f30750 	mvnseq	r0, r0, asr r7
     b14:	03e80a50 	mvneq	r0, #80, 20	; 0x50000
     b18:	0400001e 	streq	r0, [r0], #-30
     b1c:	000003be 			; <UNDEFINED> instruction: 0x000003be
     b20:	02ac2501 	adceq	r2, ip, #4194304	; 0x400000
     b24:	00140020 	andseq	r0, r4, r0, lsr #32
     b28:	9c010000 	stcls	0, cr0, [r1], {-0}
     b2c:	000001ca 	andeq	r0, r0, sl, asr #3
     b30:	6365730b 	cmnvs	r5, #738197504	; 0x2c000000
     b34:	2c250100 	stfcss	f0, [r5], #-0
     b38:	ea000000 	b	b40 <_start-0x74c0>
     b3c:	07000001 	streq	r0, [r0, -r1]
     b40:	002002bc 	strhteq	r0, [r0], -ip
     b44:	00000157 	andeq	r0, r0, r7, asr r1
     b48:	07500108 	ldrbeq	r0, [r0, -r8, lsl #2]
     b4c:	0a5001f3 	beq	1401320 <__bss_end__+0x11fd4c8>
     b50:	001e03e8 	andseq	r0, lr, r8, ror #7
     b54:	03db0e00 	bicseq	r0, fp, #0, 28
     b58:	a0020000 	andge	r0, r2, r0
     b5c:	0000002c 	andeq	r0, r0, ip, lsr #32
     b60:	00002c0f 	andeq	r2, r0, pc, lsl #24
     b64:	32000000 	andcc	r0, r0, #0
     b68:	04000015 	streq	r0, [r0], #-21
     b6c:	00053300 	andeq	r3, r5, r0, lsl #6
     b70:	66010400 	strvs	r0, [r1], -r0, lsl #8
     b74:	01000000 	mrseq	r0, (UNDEF: 0)
     b78:	000004e1 	andeq	r0, r0, r1, ror #9
     b7c:	000002a8 	andeq	r0, r0, r8, lsr #5
     b80:	002002c0 	eoreq	r0, r0, r0, asr #5
     b84:	00000718 	andeq	r0, r0, r8, lsl r7
     b88:	000003e3 	andeq	r0, r0, r3, ror #7
     b8c:	69050402 	stmdbvs	r5, {r1, sl}
     b90:	0300746e 	movweq	r7, #1134	; 0x46e
     b94:	01f60704 	mvnseq	r0, r4, lsl #14
     b98:	01030000 	mrseq	r0, (UNDEF: 3)
     b9c:	0000e506 	andeq	lr, r0, r6, lsl #10
     ba0:	05020300 	streq	r0, [r2, #-768]	; 0x300
     ba4:	00000254 	andeq	r0, r0, r4, asr r2
     ba8:	30050403 	andcc	r0, r5, r3, lsl #8
     bac:	03000002 	movweq	r0, #2
     bb0:	022b0508 	eoreq	r0, fp, #8, 10	; 0x2000000
     bb4:	03040000 	movweq	r0, #16384	; 0x4000
     bb8:	04000002 	streq	r0, [r0], #-2
     bbc:	00005a2e 	andeq	r5, r0, lr, lsr #20
     bc0:	08010300 	stmdaeq	r1, {r8, r9}
     bc4:	000000e3 	andeq	r0, r0, r3, ror #1
     bc8:	2e070203 	cdpcs	2, 0, cr0, cr7, cr3, {0}
     bcc:	04000000 	streq	r0, [r0], #-0
     bd0:	0000026b 	andeq	r0, r0, fp, ror #4
     bd4:	00733404 	rsbseq	r3, r3, r4, lsl #8
     bd8:	04030000 	streq	r0, [r3], #-0
     bdc:	0001f107 	andeq	pc, r1, r7, lsl #2
     be0:	07080300 	streq	r0, [r8, -r0, lsl #6]
     be4:	000001ec 	andeq	r0, r0, ip, ror #3
     be8:	22070403 	andcs	r0, r7, #50331648	; 0x3000000
     bec:	05000002 	streq	r0, [r0, #-2]
     bf0:	90040604 	andls	r0, r4, r4, lsl #12
     bf4:	03000000 	movweq	r0, #0
     bf8:	00ec0801 	rsceq	r0, ip, r1, lsl #16
     bfc:	04060000 	streq	r0, [r6], #-0
     c00:	0000009d 	muleq	r0, sp, r0
     c04:	00009007 	andeq	r9, r0, r7
     c08:	05010800 	streq	r0, [r1, #-2048]	; 0x800
     c0c:	0000c337 	andeq	ip, r0, r7, lsr r3
     c10:	03fd0900 	mvnseq	r0, #0, 18
     c14:	09310000 	ldmdbeq	r1!, {}	; <UNPREDICTABLE>
     c18:	00000407 	andeq	r0, r0, r7, lsl #8
     c1c:	04110932 	ldreq	r0, [r1], #-2354	; 0x932
     c20:	09330000 	ldmdbeq	r3!, {}	; <UNPREDICTABLE>
     c24:	0000041b 	andeq	r0, r0, fp, lsl r4
     c28:	04080034 	streq	r0, [r8], #-52	; 0x34
     c2c:	01303306 	teqeq	r0, r6, lsl #6
     c30:	05090000 	streq	r0, [r9, #-0]
     c34:	80000005 	andhi	r0, r0, r5
     c38:	028082e8 	addeq	r8, r0, #232, 4	; 0x8000000e
     c3c:	0004f609 	andeq	pc, r4, r9, lsl #12
     c40:	82e88000 	rschi	r8, r8, #0
     c44:	ac090280 	sfmge	f0, 4, [r9], {128}	; 0x80
     c48:	84000006 	strhi	r0, [r0], #-6
     c4c:	028082e8 	addeq	r8, r0, #232, 4	; 0x8000000e
     c50:	0004c509 	andeq	ip, r4, r9, lsl #10
     c54:	82e88800 	rschi	r8, r8, #0, 16
     c58:	bc090280 	sfmlt	f0, 4, [r9], {128}	; 0x80
     c5c:	8c000006 	stchi	0, cr0, [r0], {6}
     c60:	028082e8 	addeq	r8, r0, #232, 4	; 0x8000000e
     c64:	00044809 	andeq	r4, r4, r9, lsl #16
     c68:	82e89000 	rschi	r9, r8, #0
     c6c:	2e090280 	cdpcs	2, 0, cr0, cr9, cr0, {4}
     c70:	94000005 	strls	r0, [r0], #-5
     c74:	028082e8 	addeq	r8, r0, #232, 4	; 0x8000000e
     c78:	00060a09 	andeq	r0, r6, r9, lsl #20
     c7c:	82e89800 	rschi	r9, r8, #0, 16
     c80:	8f090280 	svchi	0x00090280
     c84:	9c000006 	stcls	0, cr0, [r0], {6}
     c88:	028082e8 	addeq	r8, r0, #232, 4	; 0x8000000e
     c8c:	00070c09 	andeq	r0, r7, r9, lsl #24
     c90:	82e8a000 	rschi	sl, r8, #0
     c94:	04000280 	streq	r0, [r0], #-640	; 0x280
     c98:	00000646 	andeq	r0, r0, r6, asr #12
     c9c:	005a1c03 	subseq	r1, sl, r3, lsl #24
     ca0:	140a0000 	strne	r0, [sl], #-0
     ca4:	95280320 	strls	r0, [r8, #-800]!	; 0x320
     ca8:	0b000001 	bleq	cb4 <_start-0x734c>
     cac:	00000476 	andeq	r0, r0, r6, ror r4
     cb0:	01a62a03 			; <UNDEFINED> instruction: 0x01a62a03
     cb4:	0c000000 	stceq	0, cr0, [r0], {-0}
     cb8:	00000659 	andeq	r0, r0, r9, asr r6
     cbc:	002c2b03 	eoreq	r2, ip, r3, lsl #22
     cc0:	20000000 	andcs	r0, r0, r0
     cc4:	00064c0c 	andeq	r4, r6, ip, lsl #24
     cc8:	ab2c0300 	blge	b018d0 <__bss_end__+0x8fda78>
     ccc:	04000001 	streq	r0, [r0], #-1
     cd0:	05de0c20 	ldrbeq	r0, [lr, #3104]	; 0xc20
     cd4:	2c030000 	stccs	0, cr0, [r3], {-0}
     cd8:	000001ab 	andeq	r0, r0, fp, lsr #3
     cdc:	6e0c2008 	cdpvs	0, 0, cr2, cr12, cr8, {0}
     ce0:	03000006 	movweq	r0, #6
     ce4:	0001ab2f 	andeq	sl, r1, pc, lsr #22
     ce8:	0d200c00 	stceq	12, cr0, [r0, #-0]
     cec:	0000042e 	andeq	r0, r0, lr, lsr #8
     cf0:	002c3103 	eoreq	r3, ip, r3, lsl #2
     cf4:	01040000 	mrseq	r0, (UNDEF: 4)
     cf8:	0020101f 	eoreq	r1, r0, pc, lsl r0
     cfc:	0001300e 	andeq	r3, r1, lr
     d00:	0001a600 	andeq	sl, r1, r0, lsl #12
     d04:	00810f00 	addeq	r0, r1, r0, lsl #30
     d08:	1fff0000 	svcne	0x00ff0000
     d0c:	01951000 	orrseq	r1, r5, r0
     d10:	2c100000 	ldccs	0, cr0, [r0], {-0}
     d14:	04000000 	streq	r0, [r0], #-0
     d18:	000006df 	ldrdeq	r0, [r0], -pc	; <UNPREDICTABLE>
     d1c:	013b3203 	teqeq	fp, r3, lsl #4
     d20:	0c110000 	ldceq	0, cr0, [r1], {-0}
     d24:	01f20e07 	mvnseq	r0, r7, lsl #28
     d28:	74120000 	ldrvc	r0, [r2], #-0
     d2c:	0f070078 	svceq	0x00070078
     d30:	0000004f 	andeq	r0, r0, pc, asr #32
     d34:	78721200 	ldmdavc	r2!, {r9, ip}^
     d38:	4f0f0700 	svcmi	0x000f0700
     d3c:	01000000 	mrseq	r0, (UNDEF: 0)
     d40:	00011d0b 	andeq	r1, r1, fp, lsl #26
     d44:	68100700 	ldmdavs	r0, {r8, r9, sl}
     d48:	04000000 	streq	r0, [r0], #-0
     d4c:	0001460b 	andeq	r4, r1, fp, lsl #12
     d50:	68110700 	ldmdavs	r1, {r8, r9, sl}
     d54:	08000000 	stmdaeq	r0, {}	; <UNPREDICTABLE>
     d58:	01000400 	tsteq	r0, r0, lsl #8
     d5c:	12070000 	andne	r0, r7, #0
     d60:	000001bb 			; <UNDEFINED> instruction: 0x000001bb
     d64:	13010108 	movwne	r0, #4360	; 0x1108
     d68:	00000212 	andeq	r0, r0, r2, lsl r2
     d6c:	00065109 	andeq	r5, r6, r9, lsl #2
     d70:	42091500 	andmi	r1, r9, #0, 10
     d74:	14000005 	strne	r0, [r0], #-5
     d78:	05eb0400 	strbeq	r0, [fp, #1024]!	; 0x400
     d7c:	28080000 	stmdacs	r8, {}	; <UNPREDICTABLE>
     d80:	0000021d 	andeq	r0, r0, sp, lsl r2
     d84:	0004d713 	andeq	sp, r4, r3, lsl r7
     d88:	000b0400 	andeq	r0, fp, r0, lsl #8
     d8c:	00000234 	andeq	r0, r0, r4, lsr r2
     d90:	00068a14 	andeq	r8, r6, r4, lsl sl
     d94:	00008800 	andeq	r8, r0, r0, lsl #16
     d98:	04000000 	streq	r0, [r0], #-0
     d9c:	000004d9 	ldrdeq	r0, [r0], -r9
     da0:	02126208 	andseq	r6, r2, #8, 4	; 0x80000000
     da4:	8c150000 	ldchi	0, cr0, [r5], {-0}
     da8:	03000004 	movweq	r0, #4
     dac:	00002539 	andeq	r2, r0, r9, lsr r5
     db0:	02590300 	subseq	r0, r9, #0, 6
     db4:	71160000 	tstvc	r6, r0
     db8:	59390300 	ldmdbpl	r9!, {r8, r9}
     dbc:	00000002 	andeq	r0, r0, r2
     dc0:	01b00406 	lslseq	r0, r6, #8
     dc4:	04150000 	ldreq	r0, [r5], #-0
     dc8:	03000007 	movweq	r0, #7
     dcc:	0000253c 	andeq	r2, r0, ip, lsr r5
     dd0:	02790300 	rsbseq	r0, r9, #0, 6
     dd4:	71160000 	tstvc	r6, r0
     dd8:	593c0300 	ldmdbpl	ip!, {r8, r9}
     ddc:	00000002 	andeq	r0, r0, r2
     de0:	00054917 	andeq	r4, r5, r7, lsl r9
     de4:	03090200 	movweq	r0, #37376	; 0x9200
     de8:	000002a7 	andeq	r0, r0, r7, lsr #5
     dec:	0006f918 	andeq	pc, r6, r8, lsl r9	; <UNPREDICTABLE>
     df0:	2c090200 	sfmcs	f0, 4, [r9], {-0}
     df4:	16000000 	strne	r0, [r0], -r0
     df8:	0902006e 	stmdbeq	r2, {r1, r2, r3, r5, r6}
     dfc:	0000002c 	andeq	r0, r0, ip, lsr #32
     e00:	04c01a19 	strbeq	r1, [r0], #2585	; 0xa19
     e04:	0c020000 	stceq	0, cr0, [r2], {-0}
     e08:	0000002c 	andeq	r0, r0, ip, lsr #32
     e0c:	7c170000 	ldcvc	0, cr0, [r7], {-0}
     e10:	02000004 	andeq	r0, r0, #4
     e14:	02de0317 	sbcseq	r0, lr, #1543503872	; 0x5c000000
     e18:	70160000 	andsvc	r0, r6, r0
     e1c:	02006e69 	andeq	r6, r0, #1680	; 0x690
     e20:	00002c17 	andeq	r2, r0, r7, lsl ip
     e24:	00761600 	rsbseq	r1, r6, r0, lsl #12
     e28:	002c1702 	eoreq	r1, ip, r2, lsl #14
     e2c:	f9180000 			; <UNDEFINED> instruction: 0xf9180000
     e30:	02000006 	andeq	r0, r0, #6
     e34:	00002c17 	andeq	r2, r0, r7, lsl ip
     e38:	054f1800 	strbeq	r1, [pc, #-2048]	; 640 <_start-0x79c0>
     e3c:	17020000 	strne	r0, [r2, -r0]
     e40:	0000002c 	andeq	r0, r0, ip, lsr #32
     e44:	06771500 	ldrbteq	r1, [r7], -r0, lsl #10
     e48:	56030000 	strpl	r0, [r3], -r0
     e4c:	00000025 	andeq	r0, r0, r5, lsr #32
     e50:	00030c03 	andeq	r0, r3, r3, lsl #24
     e54:	00631600 	rsbeq	r1, r3, r0, lsl #12
     e58:	02595603 	subseq	r5, r9, #3145728	; 0x300000
     e5c:	78160000 	ldmdavc	r6, {}	; <UNPREDICTABLE>
     e60:	30560300 	subscc	r0, r6, r0, lsl #6
     e64:	1a000001 	bne	e70 <_start-0x7190>
     e68:	0000064c 	andeq	r0, r0, ip, asr #12
     e6c:	002c5703 	eoreq	r5, ip, r3, lsl #14
     e70:	15000000 	strne	r0, [r0, #-0]
     e74:	000005fa 	strdeq	r0, [r0], -sl
     e78:	00254203 	eoreq	r4, r5, r3, lsl #4
     e7c:	3a030000 	bcc	c0e84 <_start+0xb8e84>
     e80:	16000003 	strne	r0, [r0], -r3
     e84:	42030063 	andmi	r0, r3, #99	; 0x63
     e88:	00000259 	andeq	r0, r0, r9, asr r2
     e8c:	03006516 	movweq	r6, #1302	; 0x516
     e90:	00033a42 	andeq	r3, r3, r2, asr #20
     e94:	05de1a00 	ldrbeq	r1, [lr, #2560]	; 0xa00
     e98:	45030000 	strmi	r0, [r3, #-0]
     e9c:	0000002c 	andeq	r0, r0, ip, lsr #32
     ea0:	30040600 	andcc	r0, r4, r0, lsl #12
     ea4:	1b000001 	blne	eb0 <_start-0x7150>
     ea8:	000001ba 			; <UNDEFINED> instruction: 0x000001ba
     eac:	02c01701 	sbceq	r1, r0, #262144	; 0x40000
     eb0:	01700020 	cmneq	r0, r0, lsr #32
     eb4:	9c010000 	stcls	0, cr0, [r1], {-0}
     eb8:	000008e7 	andeq	r0, r0, r7, ror #17
     ebc:	0006301c 	andeq	r3, r6, ip, lsl r0
     ec0:	e7170100 	ldr	r0, [r7, -r0, lsl #2]
     ec4:	0b000008 	bleq	eec <_start-0x7114>
     ec8:	1d000002 	stcne	0, cr0, [r0, #-8]
     ecc:	17010063 	strne	r0, [r1, -r3, rrx]
     ed0:	0000005a 	andeq	r0, r0, sl, asr r0
     ed4:	0000022c 	andeq	r0, r0, ip, lsr #4
     ed8:	0078741e 	rsbseq	r7, r8, lr, lsl r4
     edc:	00251a01 	eoreq	r1, r5, r1, lsl #20
     ee0:	56010000 	strpl	r0, [r1], -r0
     ee4:	01006e1f 	tsteq	r0, pc, lsl lr
     ee8:	0000681b 	andeq	r6, r0, fp, lsl r8
     eec:	00024d00 	andeq	r4, r2, r0, lsl #26
     ef0:	00751f00 	rsbseq	r1, r5, r0, lsl #30
     ef4:	00681c01 	rsbeq	r1, r8, r1, lsl #24
     ef8:	02600000 	rsbeq	r0, r0, #0
     efc:	731e0000 	tstvc	lr, #0
     f00:	681d0100 	ldmdavs	sp, {r8}
     f04:	01000000 	mrseq	r0, (UNDEF: 0)
     f08:	02dc2054 	sbcseq	r2, ip, #84	; 0x54
     f0c:	00040020 	andeq	r0, r4, r0, lsr #32
     f10:	03bd0000 			; <UNDEFINED> instruction: 0x03bd0000
     f14:	c0210000 	eorgt	r0, r1, r0
     f18:	01000004 	tsteq	r0, r4
     f1c:	00002c1d 	andeq	r2, r0, sp, lsl ip
     f20:	00540100 	subseq	r0, r4, r0, lsl #2
     f24:	0002a722 	andeq	sl, r2, r2, lsr #14
     f28:	2002e000 	andcs	lr, r2, r0
     f2c:	00001c00 	andeq	r1, r0, r0, lsl #24
     f30:	3a210100 	bcc	841338 <__bss_end__+0x63d4e0>
     f34:	23000004 	movwcs	r0, #4
     f38:	000002d2 	ldrdeq	r0, [r0], -r2
     f3c:	00000289 	andeq	r0, r0, r9, lsl #5
     f40:	0002c724 	andeq	ip, r2, r4, lsr #14
     f44:	25540100 	ldrbcs	r0, [r4, #-256]	; 0x100
     f48:	000002be 			; <UNDEFINED> instruction: 0x000002be
     f4c:	02b32400 	adcseq	r2, r3, #0, 8
     f50:	56010000 	strpl	r0, [r1], -r0
     f54:	00027922 	andeq	r7, r2, r2, lsr #18
     f58:	2002ec00 	andcs	lr, r2, r0, lsl #24
     f5c:	00001000 	andeq	r1, r0, r0
     f60:	241a0200 	ldrcs	r0, [sl], #-512	; 0x200
     f64:	23000004 	movwcs	r0, #4
     f68:	00000290 	muleq	r0, r0, r2
     f6c:	0000029c 	muleq	r0, ip, r2
     f70:	00028524 	andeq	r8, r2, r4, lsr #10
     f74:	26540100 	ldrbcs	r0, [r4], -r0, lsl #2
     f78:	002002ec 	eoreq	r0, r0, ip, ror #5
     f7c:	00000004 	andeq	r0, r0, r4
     f80:	00029a27 	andeq	r9, r2, r7, lsr #20
     f84:	0002af00 	andeq	sl, r2, r0, lsl #30
     f88:	28000000 	stmdacs	r0, {}	; <UNPREDICTABLE>
     f8c:	002002ec 	eoreq	r0, r0, ip, ror #5
     f90:	00001476 	andeq	r1, r0, r6, ror r4
     f94:	01510129 	cmpeq	r1, r9, lsr #2
     f98:	50012930 	andpl	r2, r1, r0, lsr r9
     f9c:	00007602 	andeq	r7, r0, r2, lsl #12
     fa0:	02a72200 	adceq	r2, r7, #0, 4
     fa4:	03000000 	movweq	r0, #0
     fa8:	001c0020 	andseq	r0, ip, r0, lsr #32
     fac:	23010000 	movwcs	r0, #4096	; 0x1000
     fb0:	000004bd 			; <UNDEFINED> instruction: 0x000004bd
     fb4:	0002d223 	andeq	sp, r2, r3, lsr #4
     fb8:	0002c200 	andeq	ip, r2, r0, lsl #4
     fbc:	02c72400 	sbceq	r2, r7, #0, 8
     fc0:	54010000 	strpl	r0, [r1], #-0
     fc4:	0002be23 	andeq	fp, r2, r3, lsr #28
     fc8:	0002e400 	andeq	lr, r2, r0, lsl #8
     fcc:	02b32400 	adcseq	r2, r3, #0, 8
     fd0:	56010000 	strpl	r0, [r1], -r0
     fd4:	00027922 	andeq	r7, r2, r2, lsr #18
     fd8:	20030c00 	andcs	r0, r3, r0, lsl #24
     fdc:	00001000 	andeq	r1, r0, r0
     fe0:	a41a0200 	ldrge	r0, [sl], #-512	; 0x200
     fe4:	23000004 	movwcs	r0, #4
     fe8:	00000290 	muleq	r0, r0, r2
     fec:	00000315 	andeq	r0, r0, r5, lsl r3
     ff0:	00028524 	andeq	r8, r2, r4, lsr #10
     ff4:	26540100 	ldrbcs	r0, [r4], -r0, lsl #2
     ff8:	0020030c 	eoreq	r0, r0, ip, lsl #6
     ffc:	00000004 	andeq	r0, r0, r4
    1000:	00029a27 	andeq	r9, r2, r7, lsr #20
    1004:	00033700 	andeq	r3, r3, r0, lsl #14
    1008:	28000000 	stmdacs	r0, {}	; <UNPREDICTABLE>
    100c:	0020030c 	eoreq	r0, r0, ip, lsl #6
    1010:	00001476 	andeq	r1, r0, r6, ror r4
    1014:	04510129 	ldrbeq	r0, [r1], #-297	; 0x129
    1018:	1a310077 	bne	c411fc <__bss_end__+0xa3d3a4>
    101c:	02500129 	subseq	r0, r0, #1073741834	; 0x4000000a
    1020:	00000076 	andeq	r0, r0, r6, ror r0
    1024:	0002a722 	andeq	sl, r2, r2, lsr #14
    1028:	20032000 	andcs	r2, r3, r0
    102c:	00001c00 	andeq	r1, r0, r0, lsl #24
    1030:	45250100 	strmi	r0, [r5, #-256]!	; 0x100
    1034:	23000005 	movwcs	r0, #5
    1038:	000002d2 	ldrdeq	r0, [r0], -r2
    103c:	0000034a 	andeq	r0, r0, sl, asr #6
    1040:	0002c724 	andeq	ip, r2, r4, lsr #14
    1044:	24540100 	ldrbcs	r0, [r4], #-256	; 0x100
    1048:	000002be 			; <UNDEFINED> instruction: 0x000002be
    104c:	32007708 	andcc	r7, r0, #8, 14	; 0x200000
    1050:	1aff081a 	bne	fffc30c0 <__bss_end__+0xffdbf268>
    1054:	02b3249f 	adcseq	r2, r3, #-1627389952	; 0x9f000000
    1058:	56010000 	strpl	r0, [r1], -r0
    105c:	00027922 	andeq	r7, r2, r2, lsr #18
    1060:	20032c00 	andcs	r2, r3, r0, lsl #24
    1064:	00001000 	andeq	r1, r0, r0
    1068:	2c1a0200 	lfmcs	f0, 4, [sl], {-0}
    106c:	23000005 	movwcs	r0, #5
    1070:	00000290 	muleq	r0, r0, r2
    1074:	0000036f 	andeq	r0, r0, pc, ror #6
    1078:	00028524 	andeq	r8, r2, r4, lsr #10
    107c:	26540100 	ldrbcs	r0, [r4], -r0, lsl #2
    1080:	0020032c 	eoreq	r0, r0, ip, lsr #6
    1084:	00000004 	andeq	r0, r0, r4
    1088:	00029a27 	andeq	r9, r2, r7, lsr #20
    108c:	00039400 	andeq	r9, r3, r0, lsl #8
    1090:	28000000 	stmdacs	r0, {}	; <UNPREDICTABLE>
    1094:	0020032c 	eoreq	r0, r0, ip, lsr #6
    1098:	00001476 	andeq	r1, r0, r6, ror r4
    109c:	04510129 	ldrbeq	r0, [r1], #-297	; 0x129
    10a0:	1a320077 	bne	c81284 <__bss_end__+0xa7d42c>
    10a4:	02500129 	subseq	r0, r0, #1073741834	; 0x4000000a
    10a8:	00000076 	andeq	r0, r0, r6, ror r0
    10ac:	0002a722 	andeq	sl, r2, r2, lsr #14
    10b0:	20034000 	andcs	r4, r3, r0
    10b4:	00001c00 	andeq	r1, r0, r0, lsl #24
    10b8:	cd270100 	stfgts	f0, [r7, #-0]
    10bc:	23000005 	movwcs	r0, #5
    10c0:	000002d2 	ldrdeq	r0, [r0], -r2
    10c4:	000003a7 	andeq	r0, r0, r7, lsr #7
    10c8:	0002c724 	andeq	ip, r2, r4, lsr #14
    10cc:	24540100 	ldrbcs	r0, [r4], #-256	; 0x100
    10d0:	000002be 			; <UNDEFINED> instruction: 0x000002be
    10d4:	34007708 	strcc	r7, [r0], #-1800	; 0x708
    10d8:	1aff081a 	bne	fffc3148 <__bss_end__+0xffdbf2f0>
    10dc:	02b3249f 	adcseq	r2, r3, #-1627389952	; 0x9f000000
    10e0:	56010000 	strpl	r0, [r1], -r0
    10e4:	00027922 	andeq	r7, r2, r2, lsr #18
    10e8:	20034c00 	andcs	r4, r3, r0, lsl #24
    10ec:	00001000 	andeq	r1, r0, r0
    10f0:	b41a0200 	ldrlt	r0, [sl], #-512	; 0x200
    10f4:	23000005 	movwcs	r0, #5
    10f8:	00000290 	muleq	r0, r0, r2
    10fc:	000003c9 	andeq	r0, r0, r9, asr #7
    1100:	00028524 	andeq	r8, r2, r4, lsr #10
    1104:	26540100 	ldrbcs	r0, [r4], -r0, lsl #2
    1108:	0020034c 	eoreq	r0, r0, ip, asr #6
    110c:	00000004 	andeq	r0, r0, r4
    1110:	00029a27 	andeq	r9, r2, r7, lsr #20
    1114:	0003eb00 	andeq	lr, r3, r0, lsl #22
    1118:	28000000 	stmdacs	r0, {}	; <UNPREDICTABLE>
    111c:	0020034c 	eoreq	r0, r0, ip, asr #6
    1120:	00001476 	andeq	r1, r0, r6, ror r4
    1124:	04510129 	ldrbeq	r0, [r1], #-297	; 0x129
    1128:	1a340077 	bne	d0130c <__bss_end__+0xafd4b4>
    112c:	02500129 	subseq	r0, r0, #1073741834	; 0x4000000a
    1130:	00000076 	andeq	r0, r0, r6, ror r0
    1134:	0002a722 	andeq	sl, r2, r2, lsr #14
    1138:	20036000 	andcs	r6, r3, r0
    113c:	00001c00 	andeq	r1, r0, r0, lsl #24
    1140:	55290100 	strpl	r0, [r9, #-256]!	; 0x100
    1144:	23000006 	movwcs	r0, #6
    1148:	000002d2 	ldrdeq	r0, [r0], -r2
    114c:	000003fe 	strdeq	r0, [r0], -lr
    1150:	0002c724 	andeq	ip, r2, r4, lsr #14
    1154:	24540100 	ldrbcs	r0, [r4], #-256	; 0x100
    1158:	000002be 			; <UNDEFINED> instruction: 0x000002be
    115c:	38007708 	stmdacc	r0, {r3, r8, r9, sl, ip, sp, lr}
    1160:	1aff081a 	bne	fffc31d0 <__bss_end__+0xffdbf378>
    1164:	02b3249f 	adcseq	r2, r3, #-1627389952	; 0x9f000000
    1168:	56010000 	strpl	r0, [r1], -r0
    116c:	00027922 	andeq	r7, r2, r2, lsr #18
    1170:	20036c00 	andcs	r6, r3, r0, lsl #24
    1174:	00001000 	andeq	r1, r0, r0
    1178:	3c1a0200 	lfmcc	f0, 4, [sl], {-0}
    117c:	23000006 	movwcs	r0, #6
    1180:	00000290 	muleq	r0, r0, r2
    1184:	00000423 	andeq	r0, r0, r3, lsr #8
    1188:	00028524 	andeq	r8, r2, r4, lsr #10
    118c:	26540100 	ldrbcs	r0, [r4], -r0, lsl #2
    1190:	0020036c 	eoreq	r0, r0, ip, ror #6
    1194:	00000004 	andeq	r0, r0, r4
    1198:	00029a27 	andeq	r9, r2, r7, lsr #20
    119c:	00044800 	andeq	r4, r4, r0, lsl #16
    11a0:	28000000 	stmdacs	r0, {}	; <UNPREDICTABLE>
    11a4:	0020036c 	eoreq	r0, r0, ip, ror #6
    11a8:	00001476 	andeq	r1, r0, r6, ror r4
    11ac:	04510129 	ldrbeq	r0, [r1], #-297	; 0x129
    11b0:	1a380077 	bne	e01394 <__bss_end__+0xbfd53c>
    11b4:	02500129 	subseq	r0, r0, #1073741834	; 0x4000000a
    11b8:	00000076 	andeq	r0, r0, r6, ror r0
    11bc:	0002a722 	andeq	sl, r2, r2, lsr #14
    11c0:	20038000 	andcs	r8, r3, r0
    11c4:	00001c00 	andeq	r1, r0, r0, lsl #24
    11c8:	dd2b0100 	stfles	f0, [fp, #-0]
    11cc:	23000006 	movwcs	r0, #6
    11d0:	000002d2 	ldrdeq	r0, [r0], -r2
    11d4:	0000045b 	andeq	r0, r0, fp, asr r4
    11d8:	0002c724 	andeq	ip, r2, r4, lsr #14
    11dc:	24540100 	ldrbcs	r0, [r4], #-256	; 0x100
    11e0:	000002be 			; <UNDEFINED> instruction: 0x000002be
    11e4:	40007708 	andmi	r7, r0, r8, lsl #14
    11e8:	1aff081a 	bne	fffc3258 <__bss_end__+0xffdbf400>
    11ec:	02b3249f 	adcseq	r2, r3, #-1627389952	; 0x9f000000
    11f0:	56010000 	strpl	r0, [r1], -r0
    11f4:	00027922 	andeq	r7, r2, r2, lsr #18
    11f8:	20038c00 	andcs	r8, r3, r0, lsl #24
    11fc:	00001000 	andeq	r1, r0, r0
    1200:	c41a0200 	ldrgt	r0, [sl], #-512	; 0x200
    1204:	23000006 	movwcs	r0, #6
    1208:	00000290 	muleq	r0, r0, r2
    120c:	00000482 	andeq	r0, r0, r2, lsl #9
    1210:	00028524 	andeq	r8, r2, r4, lsr #10
    1214:	26540100 	ldrbcs	r0, [r4], -r0, lsl #2
    1218:	0020038c 	eoreq	r0, r0, ip, lsl #7
    121c:	00000004 	andeq	r0, r0, r4
    1220:	00029a27 	andeq	r9, r2, r7, lsr #20
    1224:	0004a900 	andeq	sl, r4, r0, lsl #18
    1228:	28000000 	stmdacs	r0, {}	; <UNPREDICTABLE>
    122c:	0020038c 	eoreq	r0, r0, ip, lsl #7
    1230:	00001476 	andeq	r1, r0, r6, ror r4
    1234:	04510129 	ldrbeq	r0, [r1], #-297	; 0x129
    1238:	1a400077 	bne	100141c <__bss_end__+0xdfd5c4>
    123c:	02500129 	subseq	r0, r0, #1073741834	; 0x4000000a
    1240:	00000076 	andeq	r0, r0, r6, ror r0
    1244:	0002a722 	andeq	sl, r2, r2, lsr #14
    1248:	2003a000 	andcs	sl, r3, r0
    124c:	00001c00 	andeq	r1, r0, r0, lsl #24
    1250:	672d0100 	strvs	r0, [sp, -r0, lsl #2]!
    1254:	23000007 	movwcs	r0, #7
    1258:	000002d2 	ldrdeq	r0, [r0], -r2
    125c:	000004bc 			; <UNDEFINED> instruction: 0x000004bc
    1260:	0002c724 	andeq	ip, r2, r4, lsr #14
    1264:	24540100 	ldrbcs	r0, [r4], #-256	; 0x100
    1268:	000002be 			; <UNDEFINED> instruction: 0x000002be
    126c:	08007709 	stmdaeq	r0, {r0, r3, r8, r9, sl, ip, sp, lr}
    1270:	ff081a20 			; <UNDEFINED> instruction: 0xff081a20
    1274:	b3249f1a 	teqlt	r4, #26, 30	; 0x68
    1278:	01000002 	tsteq	r0, r2
    127c:	02792256 	rsbseq	r2, r9, #1610612741	; 0x60000005
    1280:	03ac0000 			; <UNDEFINED> instruction: 0x03ac0000
    1284:	00100020 	andseq	r0, r0, r0, lsr #32
    1288:	1a020000 	bne	81290 <_start+0x79290>
    128c:	0000074d 	andeq	r0, r0, sp, asr #14
    1290:	00029023 	andeq	r9, r2, r3, lsr #32
    1294:	0004e600 	andeq	lr, r4, r0, lsl #12
    1298:	02852400 	addeq	r2, r5, #0, 8
    129c:	54010000 	strpl	r0, [r1], #-0
    12a0:	2003ac26 	andcs	sl, r3, r6, lsr #24
    12a4:	00000400 	andeq	r0, r0, r0, lsl #8
    12a8:	029a2700 	addseq	r2, sl, #0, 14
    12ac:	05100000 	ldreq	r0, [r0, #-0]
    12b0:	00000000 	andeq	r0, r0, r0
    12b4:	2003ac28 	andcs	sl, r3, r8, lsr #24
    12b8:	00147600 	andseq	r7, r4, r0, lsl #12
    12bc:	51012900 	tstpl	r1, r0, lsl #18
    12c0:	08007705 	stmdaeq	r0, {r0, r2, r8, r9, sl, ip, sp, lr}
    12c4:	01291a20 	teqeq	r9, r0, lsr #20
    12c8:	00760250 	rsbseq	r0, r6, r0, asr r2
    12cc:	a7220000 	strge	r0, [r2, -r0]!
    12d0:	c0000002 	andgt	r0, r0, r2
    12d4:	1c002003 	stcne	0, cr2, [r0], {3}
    12d8:	01000000 	mrseq	r0, (UNDEF: 0)
    12dc:	0007f12f 	andeq	pc, r7, pc, lsr #2
    12e0:	02d22300 	sbcseq	r2, r2, #0, 6
    12e4:	05230000 	streq	r0, [r3, #-0]!
    12e8:	c7240000 	strgt	r0, [r4, -r0]!
    12ec:	01000002 	tsteq	r0, r2
    12f0:	02be2454 	adcseq	r2, lr, #84, 8	; 0x54000000
    12f4:	77090000 	strvc	r0, [r9, -r0]
    12f8:	1a400800 	bne	1003300 <__bss_end__+0xdff4a8>
    12fc:	9f1aff08 	svcls	0x001aff08
    1300:	0002b324 	andeq	fp, r2, r4, lsr #6
    1304:	22560100 	subscs	r0, r6, #0, 2
    1308:	00000279 	andeq	r0, r0, r9, ror r2
    130c:	002003cc 	eoreq	r0, r0, ip, asr #7
    1310:	00000010 	andeq	r0, r0, r0, lsl r0
    1314:	07d71a02 	ldrbeq	r1, [r7, r2, lsl #20]
    1318:	90230000 	eorls	r0, r3, r0
    131c:	45000002 	strmi	r0, [r0, #-2]
    1320:	24000005 	strcs	r0, [r0], #-5
    1324:	00000285 	andeq	r0, r0, r5, lsl #5
    1328:	cc265401 	cfstrsgt	mvf5, [r6], #-4
    132c:	04002003 	streq	r2, [r0], #-3
    1330:	27000000 	strcs	r0, [r0, -r0]
    1334:	0000029a 	muleq	r0, sl, r2
    1338:	00000567 	andeq	r0, r0, r7, ror #10
    133c:	cc280000 	stcgt	0, cr0, [r8], #-0
    1340:	76002003 	strvc	r2, [r0], -r3
    1344:	29000014 	stmdbcs	r0, {r2, r4}
    1348:	77055101 	strvc	r5, [r5, -r1, lsl #2]
    134c:	1a400800 	bne	1003354 <__bss_end__+0xdff4fc>
    1350:	02500129 	subseq	r0, r0, #1073741834	; 0x4000000a
    1354:	00000076 	andeq	r0, r0, r6, ror r0
    1358:	0002a722 	andeq	sl, r2, r2, lsr #14
    135c:	2003e000 	andcs	lr, r3, r0
    1360:	00001c00 	andeq	r1, r0, r0, lsl #24
    1364:	71310100 	teqvc	r1, r0, lsl #2
    1368:	24000008 	strcs	r0, [r0], #-8
    136c:	000002d2 	ldrdeq	r0, [r0], -r2
    1370:	c7245801 	strgt	r5, [r4, -r1, lsl #16]!
    1374:	01000002 	tsteq	r0, r2
    1378:	02be2354 	adcseq	r2, lr, #84, 6	; 0x50000001
    137c:	057a0000 	ldrbeq	r0, [sl, #-0]!
    1380:	b3240000 	teqlt	r4, #0
    1384:	01000002 	tsteq	r0, r2
    1388:	02792256 	rsbseq	r2, r9, #1610612741	; 0x60000005
    138c:	03ec0000 	mvneq	r0, #0
    1390:	00100020 	andseq	r0, r0, r0, lsr #32
    1394:	1a020000 	bne	8139c <_start+0x7939c>
    1398:	00000857 	andeq	r0, r0, r7, asr r8
    139c:	00029024 	andeq	r9, r2, r4, lsr #32
    13a0:	24580100 	ldrbcs	r0, [r8], #-256	; 0x100
    13a4:	00000285 	andeq	r0, r0, r5, lsl #5
    13a8:	ec265401 	cfstrs	mvf5, [r6], #-4
    13ac:	04002003 	streq	r2, [r0], #-3
    13b0:	27000000 	strcs	r0, [r0, -r0]
    13b4:	0000029a 	muleq	r0, sl, r2
    13b8:	000005ad 	andeq	r0, r0, sp, lsr #11
    13bc:	ec280000 	stc	0, cr0, [r8], #-0
    13c0:	76002003 	strvc	r2, [r0], -r3
    13c4:	29000014 	stmdbcs	r0, {r2, r4}
    13c8:	77055101 	strvc	r5, [r5, -r1, lsl #2]
    13cc:	1a800800 	bne	fe0033d4 <__bss_end__+0xfddff57c>
    13d0:	02500129 	subseq	r0, r0, #1073741834	; 0x4000000a
    13d4:	00000076 	andeq	r0, r0, r6, ror r0
    13d8:	0002a72a 	andeq	sl, r2, sl, lsr #14
    13dc:	20040000 	andcs	r0, r4, r0
    13e0:	00001c00 	andeq	r1, r0, r0, lsl #24
    13e4:	24330100 	ldrtcs	r0, [r3], #-256	; 0x100
    13e8:	000002d2 	ldrdeq	r0, [r0], -r2
    13ec:	c7245501 	strgt	r5, [r4, -r1, lsl #10]!
    13f0:	01000002 	tsteq	r0, r2
    13f4:	02be2554 	adcseq	r2, lr, #84, 10	; 0x15000000
    13f8:	24010000 	strcs	r0, [r1], #-0
    13fc:	000002b3 			; <UNDEFINED> instruction: 0x000002b3
    1400:	79225601 	stmdbvc	r2!, {r0, r9, sl, ip, lr}
    1404:	0c000002 	stceq	0, cr0, [r0], {2}
    1408:	10002004 	andne	r2, r0, r4
    140c:	02000000 	andeq	r0, r0, #0
    1410:	0008d01a 	andeq	sp, r8, sl, lsl r0
    1414:	02902400 	addseq	r2, r0, #0, 8
    1418:	55010000 	strpl	r0, [r1, #-0]
    141c:	00028524 	andeq	r8, r2, r4, lsr #10
    1420:	26540100 	ldrbcs	r0, [r4], -r0, lsl #2
    1424:	0020040c 	eoreq	r0, r0, ip, lsl #8
    1428:	00000004 	andeq	r0, r0, r4
    142c:	00029a27 	andeq	r9, r2, r7, lsr #20
    1430:	0005c000 	andeq	ip, r5, r0
    1434:	28000000 	stmdacs	r0, {}	; <UNPREDICTABLE>
    1438:	0020040c 	eoreq	r0, r0, ip, lsl #8
    143c:	00001476 	andeq	r1, r0, r6, ror r4
    1440:	01510129 	cmpeq	r1, r9, lsr #2
    1444:	50012931 	andpl	r2, r1, r1, lsr r9
    1448:	00007602 	andeq	r7, r0, r2, lsl #12
    144c:	04060000 	streq	r0, [r6], #-0
    1450:	000001f2 	strdeq	r0, [r0], -r2
    1454:	0004952b 	andeq	r9, r4, fp, lsr #10
    1458:	25450100 	strbcs	r0, [r5, #-256]	; 0x100
    145c:	30000000 	andcc	r0, r0, r0
    1460:	30002004 	andcc	r2, r0, r4
    1464:	01000001 	tsteq	r0, r1
    1468:	000bd49c 	muleq	fp, ip, r4
    146c:	06301c00 	ldrteq	r1, [r0], -r0, lsl #24
    1470:	45010000 	strmi	r0, [r1, #-0]
    1474:	000008e7 	andeq	r0, r0, r7, ror #17
    1478:	000005d3 	ldrdeq	r0, [r0], -r3
    147c:	00059c1c 	andeq	r9, r5, ip, lsl ip
    1480:	25450100 	strbcs	r0, [r5, #-256]	; 0x100
    1484:	f4000000 	vst4.8	{d0-d3}, [r0], r0
    1488:	1e000005 	cdpne	0, 0, cr0, cr0, cr5, {0}
    148c:	01007872 	tsteq	r0, r2, ror r8
    1490:	00002546 	andeq	r2, r0, r6, asr #10
    1494:	1f550100 	svcne	0x00550100
    1498:	4b010073 	blmi	4166c <_start+0x3966c>
    149c:	0000002c 	andeq	r0, r0, ip, lsr #32
    14a0:	00000615 	andeq	r0, r0, r5, lsl r6
    14a4:	0100751e 	tsteq	r0, lr, lsl r5
    14a8:	0000684e 	andeq	r6, r0, lr, asr #16
    14ac:	1e540100 	rdfnes	f0, f4, f0
    14b0:	4f01006e 	svcmi	0x0001006e
    14b4:	0000002c 	andeq	r0, r0, ip, lsr #32
    14b8:	31007405 	tstcc	r0, r5, lsl #8
    14bc:	631f9f25 	tstvs	pc, #37, 30	; 0x94
    14c0:	2c500100 	ldfcse	f0, [r0], {-0}
    14c4:	28000000 	stmdacs	r0, {}	; <UNPREDICTABLE>
    14c8:	20000006 	andcs	r0, r0, r6
    14cc:	00200438 	eoreq	r0, r0, r8, lsr r4
    14d0:	00000004 	andeq	r0, r0, r4
    14d4:	00000981 	andeq	r0, r0, r1, lsl #19
    14d8:	0004c02c 	andeq	ip, r4, ip, lsr #32
    14dc:	2c4b0100 	stfcse	f0, [fp], {-0}
    14e0:	64000000 	strvs	r0, [r0], #-0
    14e4:	00000006 	andeq	r0, r0, r6
    14e8:	00027922 	andeq	r7, r2, r2, lsr #18
    14ec:	20044400 	andcs	r4, r4, r0, lsl #8
    14f0:	00001000 	andeq	r1, r0, r0
    14f4:	ba510100 	blt	14418fc <__bss_end__+0x123daa4>
    14f8:	23000009 	movwcs	r0, #9
    14fc:	00000290 	muleq	r0, r0, r2
    1500:	00000677 	andeq	r0, r0, r7, ror r6
    1504:	00028523 	andeq	r8, r2, r3, lsr #10
    1508:	00069c00 	andeq	r9, r6, r0, lsl #24
    150c:	04442600 	strbeq	r2, [r4], #-1536	; 0x600
    1510:	00040020 	andeq	r0, r4, r0, lsr #32
    1514:	9a270000 	bls	9c151c <__bss_end__+0x7bd6c4>
    1518:	af000002 	svcge	0x00000002
    151c:	00000006 	andeq	r0, r0, r6
    1520:	02792200 	rsbseq	r2, r9, #0, 4
    1524:	04640000 	strbteq	r0, [r4], #-0
    1528:	00100020 	andseq	r0, r0, r0, lsr #32
    152c:	54010000 	strpl	r0, [r1], #-0
    1530:	000009f1 	strdeq	r0, [r0], -r1
    1534:	00029024 	andeq	r9, r2, r4, lsr #32
    1538:	23540100 	cmpcs	r4, #0, 2
    153c:	00000285 	andeq	r0, r0, r5, lsl #5
    1540:	000006c2 	andeq	r0, r0, r2, asr #13
    1544:	20046426 	andcs	r6, r4, r6, lsr #8
    1548:	00000400 	andeq	r0, r0, r0, lsl #8
    154c:	029a2700 	addseq	r2, sl, #0, 14
    1550:	06d50000 	ldrbeq	r0, [r5], r0
    1554:	00000000 	andeq	r0, r0, r0
    1558:	00027922 	andeq	r7, r2, r2, lsr #18
    155c:	20048800 	andcs	r8, r4, r0, lsl #16
    1560:	00001000 	andeq	r1, r0, r0
    1564:	28570100 	ldmdacs	r7, {r8}^
    1568:	2400000a 	strcs	r0, [r0], #-10
    156c:	00000290 	muleq	r0, r0, r2
    1570:	85235401 	strhi	r5, [r3, #-1025]!	; 0x401
    1574:	e8000002 	stmda	r0, {r1}
    1578:	26000006 	strcs	r0, [r0], -r6
    157c:	00200488 	eoreq	r0, r0, r8, lsl #9
    1580:	00000004 	andeq	r0, r0, r4
    1584:	00029a27 	andeq	r9, r2, r7, lsr #20
    1588:	0006fb00 	andeq	pc, r6, r0, lsl #22
    158c:	22000000 	andcs	r0, r0, #0
    1590:	00000279 	andeq	r0, r0, r9, ror r2
    1594:	002004ac 	eoreq	r0, r0, ip, lsr #9
    1598:	00000010 	andeq	r0, r0, r0, lsl r0
    159c:	0a5f5a01 	beq	17d7da8 <__bss_end__+0x15d3f50>
    15a0:	90240000 	eorls	r0, r4, r0
    15a4:	01000002 	tsteq	r0, r2
    15a8:	02852354 	addeq	r2, r5, #84, 6	; 0x50000001
    15ac:	070e0000 	streq	r0, [lr, -r0]
    15b0:	ac260000 	stcge	0, cr0, [r6], #-0
    15b4:	04002004 	streq	r2, [r0], #-4
    15b8:	27000000 	strcs	r0, [r0, -r0]
    15bc:	0000029a 	muleq	r0, sl, r2
    15c0:	00000721 	andeq	r0, r0, r1, lsr #14
    15c4:	79220000 	stmdbvc	r2!, {}	; <UNPREDICTABLE>
    15c8:	d0000002 	andle	r0, r0, r2
    15cc:	10002004 	andne	r2, r0, r4
    15d0:	01000000 	mrseq	r0, (UNDEF: 0)
    15d4:	000a965d 	andeq	r9, sl, sp, asr r6
    15d8:	02902400 	addseq	r2, r0, #0, 8
    15dc:	54010000 	strpl	r0, [r1], #-0
    15e0:	00028523 	andeq	r8, r2, r3, lsr #10
    15e4:	00073400 	andeq	r3, r7, r0, lsl #8
    15e8:	04d02600 	ldrbeq	r2, [r0], #1536	; 0x600
    15ec:	00040020 	andeq	r0, r4, r0, lsr #32
    15f0:	9a270000 	bls	9c15f8 <__bss_end__+0x7bd7a0>
    15f4:	47000002 	strmi	r0, [r0, -r2]
    15f8:	00000007 	andeq	r0, r0, r7
    15fc:	02792200 	rsbseq	r2, r9, #0, 4
    1600:	04f40000 	ldrbteq	r0, [r4], #0
    1604:	00100020 	andseq	r0, r0, r0, lsr #32
    1608:	60010000 	andvs	r0, r1, r0
    160c:	00000acd 	andeq	r0, r0, sp, asr #21
    1610:	00029024 	andeq	r9, r2, r4, lsr #32
    1614:	23540100 	cmpcs	r4, #0, 2
    1618:	00000285 	andeq	r0, r0, r5, lsl #5
    161c:	0000075a 	andeq	r0, r0, sl, asr r7
    1620:	2004f426 	andcs	pc, r4, r6, lsr #8
    1624:	00000400 	andeq	r0, r0, r0, lsl #8
    1628:	029a2700 	addseq	r2, sl, #0, 14
    162c:	076d0000 	strbeq	r0, [sp, -r0]!
    1630:	00000000 	andeq	r0, r0, r0
    1634:	00027922 	andeq	r7, r2, r2, lsr #18
    1638:	20051800 	andcs	r1, r5, r0, lsl #16
    163c:	00001000 	andeq	r1, r0, r0
    1640:	04630100 	strbteq	r0, [r3], #-256	; 0x100
    1644:	2400000b 	strcs	r0, [r0], #-11
    1648:	00000290 	muleq	r0, r0, r2
    164c:	85235401 	strhi	r5, [r3, #-1025]!	; 0x401
    1650:	80000002 	andhi	r0, r0, r2
    1654:	26000007 	strcs	r0, [r0], -r7
    1658:	00200518 	eoreq	r0, r0, r8, lsl r5
    165c:	00000004 	andeq	r0, r0, r4
    1660:	00029a27 	andeq	r9, r2, r7, lsr #20
    1664:	00079300 	andeq	r9, r7, r0, lsl #6
    1668:	22000000 	andcs	r0, r0, #0
    166c:	00000279 	andeq	r0, r0, r9, ror r2
    1670:	0020053c 	eoreq	r0, r0, ip, lsr r5
    1674:	00000010 	andeq	r0, r0, r0, lsl r0
    1678:	0b376601 	bleq	ddae84 <__bss_end__+0xbd702c>
    167c:	90240000 	eorls	r0, r4, r0
    1680:	01000002 	tsteq	r0, r2
    1684:	02852d54 	addeq	r2, r5, #84, 26	; 0x1500
    1688:	3c260000 	stccc	0, cr0, [r6], #-0
    168c:	04002005 	streq	r2, [r0], #-5
    1690:	27000000 	strcs	r0, [r0, -r0]
    1694:	0000029a 	muleq	r0, sl, r2
    1698:	000007a6 	andeq	r0, r0, r6, lsr #15
    169c:	602e0000 	eorvs	r0, lr, r0
    16a0:	8c002004 	stchi	0, cr2, [r0], {4}
    16a4:	4b000014 	blmi	16fc <_start-0x6904>
    16a8:	2900000b 	stmdbcs	r0, {r0, r1, r3}
    16ac:	75025001 	strvc	r5, [r2, #-1]
    16b0:	802e0000 	eorhi	r0, lr, r0
    16b4:	8c002004 	stchi	0, cr2, [r0], {4}
    16b8:	5f000014 	svcpl	0x00000014
    16bc:	2900000b 	stmdbcs	r0, {r0, r1, r3}
    16c0:	75025001 	strvc	r5, [r2, #-1]
    16c4:	a42e0000 	strtge	r0, [lr], #-0
    16c8:	8c002004 	stchi	0, cr2, [r0], {4}
    16cc:	73000014 	movwvc	r0, #20
    16d0:	2900000b 	stmdbcs	r0, {r0, r1, r3}
    16d4:	75025001 	strvc	r5, [r2, #-1]
    16d8:	c82e0000 	stmdagt	lr!, {}	; <UNPREDICTABLE>
    16dc:	8c002004 	stchi	0, cr2, [r0], {4}
    16e0:	87000014 	smladhi	r0, r4, r0, r0
    16e4:	2900000b 	stmdbcs	r0, {r0, r1, r3}
    16e8:	75025001 	strvc	r5, [r2, #-1]
    16ec:	ec2e0000 	stc	0, cr0, [lr], #-0
    16f0:	8c002004 	stchi	0, cr2, [r0], {4}
    16f4:	9b000014 	blls	174c <_start-0x68b4>
    16f8:	2900000b 	stmdbcs	r0, {r0, r1, r3}
    16fc:	75025001 	strvc	r5, [r2, #-1]
    1700:	102e0000 	eorne	r0, lr, r0
    1704:	8c002005 	stchi	0, cr2, [r0], {5}
    1708:	af000014 	svcge	0x00000014
    170c:	2900000b 	stmdbcs	r0, {r0, r1, r3}
    1710:	75025001 	strvc	r5, [r2, #-1]
    1714:	342e0000 	strtcc	r0, [lr], #-0
    1718:	8c002005 	stchi	0, cr2, [r0], {5}
    171c:	c3000014 	movwgt	r0, #20
    1720:	2900000b 	stmdbcs	r0, {r0, r1, r3}
    1724:	75025001 	strvc	r5, [r2, #-1]
    1728:	54280000 	strtpl	r0, [r8], #-0
    172c:	8c002005 	stchi	0, cr2, [r0], {5}
    1730:	29000014 	stmdbcs	r0, {r2, r4}
    1734:	75025001 	strvc	r5, [r2, #-1]
    1738:	2b000000 	blcs	1740 <_start-0x68c0>
    173c:	000004aa 	andeq	r0, r0, sl, lsr #9
    1740:	00257801 	eoreq	r7, r5, r1, lsl #16
    1744:	05600000 	strbeq	r0, [r0, #-0]!
    1748:	008c0020 	addeq	r0, ip, r0, lsr #32
    174c:	9c010000 	stcls	0, cr0, [r1], {-0}
    1750:	00000caf 	andeq	r0, r0, pc, lsr #25
    1754:	0100751d 	tsteq	r0, sp, lsl r5
    1758:	0008e778 	andeq	lr, r8, r8, ror r7
    175c:	0007b900 	andeq	fp, r7, r0, lsl #18
    1760:	75621d00 	strbvc	r1, [r2, #-3328]!	; 0xd00
    1764:	78010066 	stmdavc	r1, {r1, r2, r5, r6}
    1768:	00000caf 	andeq	r0, r0, pc, lsr #25
    176c:	000007ed 	andeq	r0, r0, sp, ror #15
    1770:	0002421c 	andeq	r4, r2, ip, lsl r2
    1774:	68780100 	ldmdavs	r8!, {r8}^
    1778:	21000000 	mrscs	r0, (UNDEF: 0)
    177c:	1d000008 	stcne	0, cr0, [r0, #-32]	; 0xffffffe0
    1780:	00646e65 	rsbeq	r6, r4, r5, ror #28
    1784:	004f7801 	subeq	r7, pc, r1, lsl #16
    1788:	085a0000 	ldmdaeq	sl, {}^	; <UNPREDICTABLE>
    178c:	212f0000 	teqcs	pc, r0
    1790:	01000005 	tsteq	r0, r5
    1794:	00006878 	andeq	r6, r0, r8, ror r8
    1798:	00910200 	addseq	r0, r1, r0, lsl #4
    179c:	00056830 	andeq	r6, r5, r0, lsr r8
    17a0:	000cc500 	andeq	ip, ip, r0, lsl #10
    17a4:	84030500 	strhi	r0, [r3], #-1280	; 0x500
    17a8:	1f002017 	svcne	0x00002017
    17ac:	7c010069 	stcvc	0, cr0, [r1], {105}	; 0x69
    17b0:	00000025 	andeq	r0, r0, r5, lsr #32
    17b4:	00000894 	muleq	r0, r4, r8
    17b8:	0005e32c 	andeq	lr, r5, ip, lsr #6
    17bc:	4f7d0100 	svcmi	0x007d0100
    17c0:	b3000000 	movwlt	r0, #0
    17c4:	2e000008 	cdpcs	0, 0, cr0, cr0, cr8, {0}
    17c8:	00200590 	mlaeq	r0, r0, r5, r0
    17cc:	000014a1 	andeq	r1, r0, r1, lsr #9
    17d0:	00000c8f 	andeq	r0, r0, pc, lsl #25
    17d4:	02530129 	subseq	r0, r3, #1073741834	; 0x4000000a
    17d8:	01297908 	teqeq	r9, r8, lsl #18
    17dc:	84030552 	strhi	r0, [r3], #-1362	; 0x552
    17e0:	29002017 	stmdbcs	r0, {r0, r1, r2, r4, sp}
    17e4:	03055101 	movweq	r5, #20737	; 0x5101
    17e8:	0020182c 	eoreq	r1, r0, ip, lsr #16
    17ec:	05500129 	ldrbeq	r0, [r0, #-297]	; 0x129
    17f0:	20181003 	andscs	r1, r8, r3
    17f4:	94310000 	ldrtls	r0, [r1], #-0
    17f8:	b7002005 	strlt	r2, [r0, -r5]
    17fc:	28000014 	stmdacs	r0, {r2, r4}
    1800:	002005b0 	strhteq	r0, [r0], -r0
    1804:	000008ed 	andeq	r0, r0, sp, ror #17
    1808:	02510129 	subseq	r0, r1, #1073741834	; 0x4000000a
    180c:	0129007a 	teqeq	r9, sl, ror r0
    1810:	00780250 	rsbseq	r0, r8, r0, asr r2
    1814:	04060000 	streq	r0, [r6], #-0
    1818:	0000004f 	andeq	r0, r0, pc, asr #32
    181c:	0000900e 	andeq	r9, r0, lr
    1820:	000cc500 	andeq	ip, ip, r0, lsl #10
    1824:	00813200 	addeq	r3, r1, r0, lsl #4
    1828:	00120000 	andseq	r0, r2, r0
    182c:	000cb507 	andeq	fp, ip, r7, lsl #10
    1830:	061b2b00 	ldreq	r2, [fp], -r0, lsl #22
    1834:	8c010000 	stchi	0, cr0, [r1], {-0}
    1838:	00000025 	andeq	r0, r0, r5, lsr #32
    183c:	002005ec 	eoreq	r0, r0, ip, ror #11
    1840:	00000078 	andeq	r0, r0, r8, ror r0
    1844:	0d889c01 	stceq	12, cr9, [r8, #4]
    1848:	751d0000 	ldrvc	r0, [sp, #-0]
    184c:	e78c0100 	str	r0, [ip, r0, lsl #2]
    1850:	c6000008 	strgt	r0, [r0], -r8
    1854:	1d000008 	stcne	0, cr0, [r0, #-32]	; 0xffffffe0
    1858:	00667562 	rsbeq	r7, r6, r2, ror #10
    185c:	0caf8c01 	stceq	12, cr8, [pc], #4	; 1868 <_start-0x6798>
    1860:	08fa0000 	ldmeq	sl!, {}^	; <UNPREDICTABLE>
    1864:	421c0000 	andsmi	r0, ip, #0
    1868:	01000002 	tsteq	r0, r2
    186c:	0000688d 	andeq	r6, r0, sp, lsl #17
    1870:	00092e00 	andeq	r2, r9, r0, lsl #28
    1874:	05211c00 	streq	r1, [r1, #-3072]!	; 0xc00
    1878:	8d010000 	stchi	0, cr0, [r1, #-0]
    187c:	00000068 	andeq	r0, r0, r8, rrx
    1880:	00000967 	andeq	r0, r0, r7, ror #18
    1884:	00056830 	andeq	r6, r5, r0, lsr r8
    1888:	000d9800 	andeq	r9, sp, r0, lsl #16
    188c:	98030500 	stmdals	r3, {r8, sl}
    1890:	1f002017 	svcne	0x00002017
    1894:	92010069 	andls	r0, r1, #105	; 0x69
    1898:	00000025 	andeq	r0, r0, r5, lsr #32
    189c:	0000099b 	muleq	r0, fp, r9
    18a0:	2006182e 	andcs	r1, r6, lr, lsr #16
    18a4:	0014a100 	andseq	sl, r4, r0, lsl #2
    18a8:	000d6800 	andeq	r6, sp, r0, lsl #16
    18ac:	53012900 	movwpl	r2, #6400	; 0x1900
    18b0:	298f0802 	stmibcs	pc, {r1, fp}	; <UNPREDICTABLE>
    18b4:	03055201 	movweq	r5, #20993	; 0x5201
    18b8:	00201798 	mlaeq	r0, r8, r7, r1
    18bc:	05510129 	ldrbeq	r0, [r1, #-297]	; 0x129
    18c0:	20182c03 	andscs	r2, r8, r3, lsl #24
    18c4:	50012900 	andpl	r2, r1, r0, lsl #18
    18c8:	18100305 	ldmdane	r0, {r0, r2, r8, r9}
    18cc:	31000020 	tstcc	r0, r0, lsr #32
    18d0:	0020061c 	eoreq	r0, r0, ip, lsl r6
    18d4:	000014b7 			; <UNDEFINED> instruction: 0x000014b7
    18d8:	20063828 	andcs	r3, r6, r8, lsr #16
    18dc:	0008ed00 	andeq	lr, r8, r0, lsl #26
    18e0:	51012900 	tstpl	r1, r0, lsl #18
    18e4:	29007802 	stmdbcs	r0, {r1, fp, ip, sp, lr}
    18e8:	77025001 	strvc	r5, [r2, -r1]
    18ec:	0e000000 	cdpeq	0, 0, cr0, cr0, cr0, {0}
    18f0:	00000090 	muleq	r0, r0, r0
    18f4:	00000d98 	muleq	r0, r8, sp
    18f8:	00008132 	andeq	r8, r0, r2, lsr r1
    18fc:	07001400 	streq	r1, [r0, -r0, lsl #8]
    1900:	00000d88 	andeq	r0, r0, r8, lsl #27
    1904:	00004a2b 	andeq	r4, r0, fp, lsr #20
    1908:	f29f0100 	vaddw.s16	q0, <illegal reg q7.5>, d0
    190c:	64000001 	strvs	r0, [r0], #-1
    1910:	bc002006 	stclt	0, cr2, [r0], {6}
    1914:	01000000 	mrseq	r0, (UNDEF: 0)
    1918:	000eaf9c 	muleq	lr, ip, pc	; <UNPREDICTABLE>
    191c:	78741d00 	ldmdavc	r4!, {r8, sl, fp, ip}^
    1920:	4f9f0100 	svcmi	0x009f0100
    1924:	ba000000 	blt	192c <_start-0x66d4>
    1928:	1d000009 	stcne	0, cr0, [r0, #-36]	; 0xffffffdc
    192c:	01007872 	tsteq	r0, r2, ror r8
    1930:	00004f9f 	muleq	r0, pc, pc	; <UNPREDICTABLE>
    1934:	0009db00 	andeq	sp, r9, r0, lsl #22
    1938:	011d1c00 	tsteq	sp, r0, lsl #24
    193c:	9f010000 	svcls	0x00010000
    1940:	00000068 	andeq	r0, r0, r8, rrx
    1944:	000009fc 	strdeq	r0, [r0], -ip
    1948:	00046a2f 	andeq	r6, r4, pc, lsr #20
    194c:	689f0100 	ldmvs	pc, {r8}	; <UNPREDICTABLE>
    1950:	02000000 	andeq	r0, r0, #0
    1954:	6d330091 	ldcvs	0, cr0, [r3, #-580]!	; 0xfffffdbc
    1958:	01007a68 	tsteq	r0, r8, ror #20
    195c:	00002ca9 	andeq	r2, r0, r9, lsr #25
    1960:	b9270000 	stmdblt	r7!, {}	; <UNPREDICTABLE>
    1964:	06a42c29 	strteq	r2, [r4], r9, lsr #24
    1968:	aa010000 	bge	41970 <_start+0x39970>
    196c:	0000002c 	andeq	r0, r0, ip, lsr #32
    1970:	00000a1a 	andeq	r0, r0, sl, lsl sl
    1974:	00056830 	andeq	r6, r5, r0, lsr r8
    1978:	000ebf00 	andeq	fp, lr, r0, lsl #30
    197c:	b0030500 	andlt	r0, r3, r0, lsl #10
    1980:	20002017 	andcs	r2, r0, r7, lsl r0
    1984:	0020068c 	eoreq	r0, r0, ip, lsl #13
    1988:	00000008 	andeq	r0, r0, r8
    198c:	00000e35 	andeq	r0, r0, r5, lsr lr
    1990:	006e6934 	rsbeq	r6, lr, r4, lsr r9
    1994:	002ca401 	eoreq	sl, ip, r1, lsl #8
    1998:	00010000 	andeq	r0, r1, r0
    199c:	2006842e 	andcs	r8, r6, lr, lsr #8
    19a0:	0014be00 	andseq	fp, r4, r0, lsl #28
    19a4:	000e4900 	andeq	r4, lr, r0, lsl #18
    19a8:	50012900 	andpl	r2, r1, r0, lsl #18
    19ac:	00007602 	andeq	r7, r0, r2, lsl #12
    19b0:	20068c2e 	andcs	r8, r6, lr, lsr #24
    19b4:	0014cf00 	andseq	ip, r4, r0, lsl #30
    19b8:	000e5d00 	andeq	r5, lr, r0, lsl #26
    19bc:	50012900 	andpl	r2, r1, r0, lsl #18
    19c0:	00007802 	andeq	r7, r0, r2, lsl #16
    19c4:	2006a02e 	andcs	sl, r6, lr, lsr #32
    19c8:	00147600 	andseq	r7, r4, r0, lsl #12
    19cc:	000e7600 	andeq	r7, lr, r0, lsl #12
    19d0:	51012900 	tstpl	r1, r0, lsl #18
    19d4:	01293101 	teqeq	r9, r1, lsl #2
    19d8:	00760250 	rsbseq	r0, r6, r0, asr r2
    19dc:	06f42e00 	ldrbteq	r2, [r4], r0, lsl #28
    19e0:	14a10020 	strtne	r0, [r1], #32
    19e4:	0ea50000 	cdpeq	0, 10, cr0, cr5, cr0, {0}
    19e8:	01290000 	teqeq	r9, r0
    19ec:	ab080253 	blge	202340 <putQ+0x910>
    19f0:	05520129 	ldrbeq	r0, [r2, #-297]	; 0x129
    19f4:	2017b003 	andscs	fp, r7, r3
    19f8:	51012900 	tstpl	r1, r0, lsl #18
    19fc:	182c0305 	stmdane	ip!, {r0, r2, r8, r9}
    1a00:	01290020 	teqeq	r9, r0, lsr #32
    1a04:	44030550 	strmi	r0, [r3], #-1360	; 0x550
    1a08:	00002018 	andeq	r2, r0, r8, lsl r0
    1a0c:	2006f831 	andcs	pc, r6, r1, lsr r8	; <UNPREDICTABLE>
    1a10:	0014b700 	andseq	fp, r4, r0, lsl #14
    1a14:	900e0000 	andls	r0, lr, r0
    1a18:	bf000000 	svclt	0x00000000
    1a1c:	3200000e 	andcc	r0, r0, #14
    1a20:	00000081 	andeq	r0, r0, r1, lsl #1
    1a24:	af070013 	svcge	0x00070013
    1a28:	2b00000e 	blcs	1a68 <_start-0x6598>
    1a2c:	00000514 	andeq	r0, r0, r4, lsl r5
    1a30:	0025b701 	eoreq	fp, r5, r1, lsl #14
    1a34:	07200000 	streq	r0, [r0, -r0]!
    1a38:	00380020 	eorseq	r0, r8, r0, lsr #32
    1a3c:	9c010000 	stcls	0, cr0, [r1], {-0}
    1a40:	00000f5e 	andeq	r0, r0, lr, asr pc
    1a44:	0006301c 	andeq	r3, r6, ip, lsl r0
    1a48:	e7b70100 	ldr	r0, [r7, r0, lsl #2]!
    1a4c:	48000008 	stmdami	r0, {r3}
    1a50:	1f00000a 	svcne	0x0000000a
    1a54:	00736572 	rsbseq	r6, r3, r2, ror r5
    1a58:	0025b801 	eoreq	fp, r5, r1, lsl #16
    1a5c:	0a690000 	beq	1a41a64 <__bss_end__+0x183dc0c>
    1a60:	68300000 	ldmdavs	r0!, {}	; <UNPREDICTABLE>
    1a64:	6e000005 	cdpvs	0, 0, cr0, cr0, cr5, {0}
    1a68:	0500000f 	streq	r0, [r0, #-15]
    1a6c:	2017c403 	andscs	ip, r7, r3, lsl #8
    1a70:	072c2e00 	streq	r2, [ip, -r0, lsl #28]!
    1a74:	08ed0020 	stmiaeq	sp!, {r5}^
    1a78:	0f250000 	svceq	0x00250000
    1a7c:	01290000 	teqeq	r9, r0
    1a80:	ff090251 			; <UNDEFINED> instruction: 0xff090251
    1a84:	03500129 	cmpeq	r0, #1073741834	; 0x4000000a
    1a88:	005001f3 	ldrsheq	r0, [r0], #-19	; 0xffffffed
    1a8c:	2007482e 	andcs	r4, r7, lr, lsr #16
    1a90:	0014a100 	andseq	sl, r4, r0, lsl #2
    1a94:	000f5400 	andeq	r5, pc, r0, lsl #8
    1a98:	53012900 	movwpl	r2, #6400	; 0x1900
    1a9c:	29ba0802 	ldmibcs	sl!, {r1, fp}
    1aa0:	03055201 	movweq	r5, #20993	; 0x5201
    1aa4:	002017c4 	eoreq	r1, r0, r4, asr #15
    1aa8:	05510129 	ldrbeq	r0, [r1, #-297]	; 0x129
    1aac:	20182c03 	andscs	r2, r8, r3, lsl #24
    1ab0:	50012900 	andpl	r2, r1, r0, lsl #18
    1ab4:	18880305 	stmne	r8, {r0, r2, r8, r9}
    1ab8:	31000020 	tstcc	r0, r0, lsr #32
    1abc:	0020074c 	eoreq	r0, r0, ip, asr #14
    1ac0:	000014b7 			; <UNDEFINED> instruction: 0x000014b7
    1ac4:	00900e00 	addseq	r0, r0, r0, lsl #28
    1ac8:	0f6e0000 	svceq	0x006e0000
    1acc:	81320000 	teqhi	r2, r0
    1ad0:	0c000000 	stceq	0, cr0, [r0], {-0}
    1ad4:	0f5e0700 	svceq	0x005e0700
    1ad8:	ae1b0000 	cdpge	0, 1, cr0, cr11, cr0, {0}
    1adc:	01000005 	tsteq	r0, r5
    1ae0:	200758be 			; <UNDEFINED> instruction: 0x200758be
    1ae4:	00002c00 	andeq	r2, r0, r0, lsl #24
    1ae8:	b79c0100 	ldrlt	r0, [ip, r0, lsl #2]
    1aec:	1c00000f 	stcne	0, cr0, [r0], {15}
    1af0:	00000630 	andeq	r0, r0, r0, lsr r6
    1af4:	08e7be01 	stmiaeq	r7!, {r0, r9, sl, fp, ip, sp, pc}^
    1af8:	0a7c0000 	beq	1f01b00 <__bss_end__+0x1cfdca8>
    1afc:	6d1d0000 	ldcvs	0, cr0, [sp, #-0]
    1b00:	01006773 	tsteq	r0, r3, ror r7
    1b04:	000097be 			; <UNDEFINED> instruction: 0x000097be
    1b08:	000a9a00 	andeq	r9, sl, r0, lsl #20
    1b0c:	07702800 	ldrbeq	r2, [r0, -r0, lsl #16]!
    1b10:	03400020 	movteq	r0, #32
    1b14:	01290000 	teqeq	r9, r0
    1b18:	00750250 	rsbseq	r0, r5, r0, asr r2
    1b1c:	c52b0000 	strgt	r0, [fp, #-0]!
    1b20:	01000005 	tsteq	r0, r5
    1b24:	000025c7 	andeq	r2, r0, r7, asr #11
    1b28:	20078400 	andcs	r8, r7, r0, lsl #8
    1b2c:	00008000 	andeq	r8, r0, r0
    1b30:	a29c0100 	addsge	r0, ip, #0, 2
    1b34:	1c000010 	stcne	0, cr0, [r0], {16}
    1b38:	00000630 	andeq	r0, r0, r0, lsr r6
    1b3c:	08e7c701 	stmiaeq	r7!, {r0, r8, r9, sl, lr, pc}^
    1b40:	0ab80000 	beq	fee01b48 <__bss_end__+0xfebfdcf0>
    1b44:	66350000 	ldrtvs	r0, [r5], -r0
    1b48:	0100746d 	tsteq	r0, sp, ror #8
    1b4c:	000097c7 	andeq	r9, r0, r7, asr #15
    1b50:	74910200 	ldrvc	r0, [r1], #512	; 0x200
    1b54:	75621e36 	strbvc	r1, [r2, #-3638]!	; 0xe36
    1b58:	c8010066 	stmdagt	r1, {r1, r2, r5, r6}
    1b5c:	000010a2 	andeq	r1, r0, r2, lsr #1
    1b60:	7c9c9103 	ldfvcd	f1, [ip], {3}
    1b64:	0006ff21 	andeq	pc, r6, r1, lsr #30
    1b68:	34ca0100 	strbcc	r0, [sl], #256	; 0x100
    1b6c:	03000002 	movweq	r0, #2
    1b70:	1f7c9891 	svcne	0x007c9891
    1b74:	01007a73 	tsteq	r0, r3, ror sl
    1b78:	000025cc 	andeq	r2, r0, ip, asr #11
    1b7c:	000ae400 	andeq	lr, sl, r0, lsl #8
    1b80:	05683000 	strbeq	r3, [r8, #-0]!
    1b84:	10c30000 	sbcne	r0, r3, r0
    1b88:	03050000 	movweq	r0, #20480	; 0x5000
    1b8c:	002017d4 	ldrdeq	r1, [r0], -r4	; <UNPREDICTABLE>
    1b90:	2007ac2e 	andcs	sl, r7, lr, lsr #24
    1b94:	0014e000 	andseq	lr, r4, r0
    1b98:	00105200 	andseq	r5, r0, r0, lsl #4
    1b9c:	53012900 	movwpl	r2, #6400	; 0x1900
    1ba0:	29589102 	ldmdbcs	r8, {r1, r8, ip, pc}^
    1ba4:	91035201 	tstls	r3, r1, lsl #4
    1ba8:	01290654 	teqeq	r9, r4, asr r6
    1bac:	cc0a0351 	stcgt	3, cr0, [sl], {81}	; 0x51
    1bb0:	50012901 	andpl	r2, r1, r1, lsl #18
    1bb4:	7bfc9103 	blvc	fff25fc8 <__bss_end__+0xffd22170>
    1bb8:	07d02e00 	ldrbeq	r2, [r0, r0, lsl #28]
    1bbc:	14a10020 	strtne	r0, [r1], #32
    1bc0:	10810000 	addne	r0, r1, r0
    1bc4:	01290000 	teqeq	r9, r0
    1bc8:	ce080253 	mcrgt	2, 0, r0, cr8, cr3, {2}
    1bcc:	05520129 	ldrbeq	r0, [r2, #-297]	; 0x129
    1bd0:	2017d403 	andscs	sp, r7, r3, lsl #8
    1bd4:	51012900 	tstpl	r1, r0, lsl #18
    1bd8:	182c0305 	stmdane	ip!, {r0, r2, r8, r9}
    1bdc:	01290020 	teqeq	r9, r0, lsr #32
    1be0:	c0030550 	andgt	r0, r3, r0, asr r5
    1be4:	00002018 	andeq	r2, r0, r8, lsl r0
    1be8:	2007d431 	andcs	sp, r7, r1, lsr r4
    1bec:	0014b700 	andseq	fp, r4, r0, lsl #14
    1bf0:	07e02800 	strbeq	r2, [r0, r0, lsl #16]!
    1bf4:	0f730020 	svceq	0x00730020
    1bf8:	01290000 	teqeq	r9, r0
    1bfc:	fc910351 	ldc2	3, cr0, [r1], {81}	; 0x51
    1c00:	5001297b 	andpl	r2, r1, fp, ror r9
    1c04:	00007502 	andeq	r7, r0, r2, lsl #10
    1c08:	00900e00 	addseq	r0, r0, r0, lsl #28
    1c0c:	10b30000 	adcsne	r0, r3, r0
    1c10:	810f0000 	mrshi	r0, CPSR
    1c14:	cb000000 	blgt	1c1c <_start-0x63e4>
    1c18:	900e0001 	andls	r0, lr, r1
    1c1c:	c3000000 	movwgt	r0, #0
    1c20:	32000010 	andcc	r0, r0, #16
    1c24:	00000081 	andeq	r0, r0, r1, lsl #1
    1c28:	b307000e 	movwlt	r0, #28686	; 0x700e
    1c2c:	2b000010 	blcs	1c74 <_start-0x638c>
    1c30:	00000585 	andeq	r0, r0, r5, lsl #11
    1c34:	0025d301 	eoreq	sp, r5, r1, lsl #6
    1c38:	08040000 	stmdaeq	r4, {}	; <UNPREDICTABLE>
    1c3c:	00480020 	subeq	r0, r8, r0, lsr #32
    1c40:	9c010000 	stcls	0, cr0, [r1], {-0}
    1c44:	0000119c 	muleq	r0, ip, r1
    1c48:	0100751d 	tsteq	r0, sp, lsl r5
    1c4c:	0008e7d3 	ldrdeq	lr, [r8], -r3
    1c50:	000b2300 	andeq	r2, fp, r0, lsl #6
    1c54:	75621d00 	strbvc	r1, [r2, #-3328]!	; 0xd00
    1c58:	d3010066 	movwle	r0, #4198	; 0x1066
    1c5c:	00000caf 	andeq	r0, r0, pc, lsr #25
    1c60:	00000b44 	andeq	r0, r0, r4, asr #22
    1c64:	0002421c 	andeq	r4, r2, ip, lsl r2
    1c68:	68d30100 	ldmvs	r3, {r8}^
    1c6c:	65000000 	strvs	r0, [r0, #-0]
    1c70:	1d00000b 	stcne	0, cr0, [r0, #-44]	; 0xffffffd4
    1c74:	00646e65 	rsbeq	r6, r4, r5, ror #28
    1c78:	004fd301 	subeq	sp, pc, r1, lsl #6
    1c7c:	0b860000 	bleq	fe181c84 <__bss_end__+0xfdf7de2c>
    1c80:	721f0000 	andsvc	r0, pc, #0
    1c84:	01007365 	tsteq	r0, r5, ror #6
    1c88:	000025d4 	ldrdeq	r2, [r0], -r4
    1c8c:	000ba700 	andeq	sl, fp, r0, lsl #14
    1c90:	05683000 	strbeq	r3, [r8, #-0]!
    1c94:	11ac0000 			; <UNDEFINED> instruction: 0x11ac0000
    1c98:	03050000 	movweq	r0, #20480	; 0x5000
    1c9c:	002017e4 	eoreq	r1, r0, r4, ror #15
    1ca0:	2008182e 	andcs	r1, r8, lr, lsr #16
    1ca4:	000bd400 	andeq	sp, fp, r0, lsl #8
    1ca8:	00116300 	andseq	r6, r1, r0, lsl #6
    1cac:	52012900 	andpl	r2, r1, #0, 18
    1cb0:	5201f303 	andpl	pc, r1, #201326592	; 0xc000000
    1cb4:	03510129 	cmpeq	r1, #1073741834	; 0x4000000a
    1cb8:	295101f3 	ldmdbcs	r1, {r0, r1, r4, r5, r6, r7, r8}^
    1cbc:	f3035001 	vhadd.u8	d5, d3, d1
    1cc0:	02295001 	eoreq	r5, r9, #1
    1cc4:	0902007d 	stmdbeq	r2, {r0, r2, r3, r4, r5, r6}
    1cc8:	342e00ff 	strtcc	r0, [lr], #-255	; 0xff
    1ccc:	a1002008 	tstge	r0, r8
    1cd0:	92000014 	andls	r0, r0, #20
    1cd4:	29000011 	stmdbcs	r0, {r0, r4}
    1cd8:	08025301 	stmdaeq	r2, {r0, r8, r9, ip, lr}
    1cdc:	520129d6 	andpl	r2, r1, #3506176	; 0x358000
    1ce0:	17e40305 	strbne	r0, [r4, r5, lsl #6]!
    1ce4:	01290020 	teqeq	r9, r0, lsr #32
    1ce8:	2c030551 	cfstr32cs	mvfx0, [r3], {81}	; 0x51
    1cec:	29002018 	stmdbcs	r0, {r3, r4, sp}
    1cf0:	03055001 	movweq	r5, #20481	; 0x5001
    1cf4:	00201888 	eoreq	r1, r0, r8, lsl #17
    1cf8:	08383100 	ldmdaeq	r8!, {r8, ip, sp}
    1cfc:	14b70020 	ldrtne	r0, [r7], #32
    1d00:	0e000000 	cdpeq	0, 0, cr0, cr0, cr0, {0}
    1d04:	00000090 	muleq	r0, r0, r0
    1d08:	000011ac 	andeq	r1, r0, ip, lsr #3
    1d0c:	00008132 	andeq	r8, r0, r2, lsr r1
    1d10:	07001600 	streq	r1, [r0, -r0, lsl #12]
    1d14:	0000119c 	muleq	r0, ip, r1
    1d18:	0006351b 	andeq	r3, r6, fp, lsl r5
    1d1c:	4cdb0100 	ldfmie	f0, [fp], {0}
    1d20:	04002008 	streq	r2, [r0], #-8
    1d24:	01000001 	tsteq	r0, r1
    1d28:	0012df9c 	mulseq	r2, ip, pc	; <UNPREDICTABLE>
    1d2c:	63701d00 	cmnvs	r0, #0, 26
    1d30:	2cdb0100 	ldfcse	f0, [fp], {0}
    1d34:	c5000000 	strgt	r0, [r0, #-0]
    1d38:	3000000b 	andcc	r0, r0, fp
    1d3c:	00000568 	andeq	r0, r0, r8, ror #10
    1d40:	000012ef 	andeq	r1, r0, pc, ror #5
    1d44:	17fc0305 	ldrbne	r0, [ip, r5, lsl #6]!
    1d48:	de220020 	cdple	0, 2, cr0, cr2, cr0, {1}
    1d4c:	cc000002 	stcgt	0, cr0, [r0], {2}
    1d50:	44002008 	strmi	r2, [r0], #-8
    1d54:	01000000 	mrseq	r0, (UNDEF: 0)
    1d58:	001235e5 	andseq	r3, r2, r5, ror #11
    1d5c:	02f72300 	rscseq	r2, r7, #0, 6
    1d60:	0bff0000 	bleq	fffc1d68 <__bss_end__+0xffdbdf10>
    1d64:	ee230000 	cdp	0, 2, cr0, cr3, cr0, {0}
    1d68:	12000002 	andne	r0, r0, #2
    1d6c:	2600000c 	strcs	r0, [r0], -ip
    1d70:	002008cc 	eoreq	r0, r0, ip, asr #17
    1d74:	00000044 	andeq	r0, r0, r4, asr #32
    1d78:	00030027 	andeq	r0, r3, r7, lsr #32
    1d7c:	000c2a00 	andeq	r2, ip, r0, lsl #20
    1d80:	025f2a00 	subseq	r2, pc, #0, 20
    1d84:	08d40000 	ldmeq	r4, {}^	; <UNPREDICTABLE>
    1d88:	00140020 	andseq	r0, r4, r0, lsr #32
    1d8c:	58030000 	stmdapl	r3, {}	; <UNPREDICTABLE>
    1d90:	00026f23 	andeq	r6, r2, r3, lsr #30
    1d94:	000c4c00 	andeq	r4, ip, r0, lsl #24
    1d98:	00000000 	andeq	r0, r0, r0
    1d9c:	2008742e 	andcs	r7, r8, lr, lsr #8
    1da0:	0014a100 	andseq	sl, r4, r0, lsl #2
    1da4:	00126400 	andseq	r6, r2, r0, lsl #8
    1da8:	53012900 	movwpl	r2, #6400	; 0x1900
    1dac:	29dc0802 	ldmibcs	ip, {r1, fp}^
    1db0:	03055201 	movweq	r5, #20993	; 0x5201
    1db4:	002017fc 	strdeq	r1, [r0], -ip	; <UNPREDICTABLE>
    1db8:	05510129 	ldrbeq	r0, [r1, #-297]	; 0x129
    1dbc:	20182c03 	andscs	r2, r8, r3, lsl #24
    1dc0:	50012900 	andpl	r2, r1, r0, lsl #18
    1dc4:	18e40305 	stmiane	r4!, {r0, r2, r8, r9}^
    1dc8:	31000020 	tstcc	r0, r0, lsr #32
    1dcc:	00200878 	eoreq	r0, r0, r8, ror r8
    1dd0:	000014b7 			; <UNDEFINED> instruction: 0x000014b7
    1dd4:	2008902e 	andcs	r9, r8, lr, lsr #32
    1dd8:	00150400 	andseq	r0, r5, r0, lsl #8
    1ddc:	00128100 	andseq	r8, r2, r0, lsl #2
    1de0:	50012900 	andpl	r2, r1, r0, lsl #18
    1de4:	00310802 	eorseq	r0, r1, r2, lsl #16
    1de8:	2008a02e 	andcs	sl, r8, lr, lsr #32
    1dec:	00150400 	andseq	r0, r5, r0, lsl #8
    1df0:	00129500 	andseq	r9, r2, r0, lsl #10
    1df4:	50012900 	andpl	r2, r1, r0, lsl #18
    1df8:	00320802 	eorseq	r0, r2, r2, lsl #16
    1dfc:	2008b02e 	andcs	fp, r8, lr, lsr #32
    1e00:	00148c00 	andseq	r8, r4, r0, lsl #24
    1e04:	0012a800 	andseq	sl, r2, r0, lsl #16
    1e08:	50012900 	andpl	r2, r1, r0, lsl #18
    1e0c:	2e004401 	cdpcs	4, 0, cr4, cr0, cr1, {0}
    1e10:	002008c8 	eoreq	r0, r0, r8, asr #17
    1e14:	000008ed 	andeq	r0, r0, sp, ror #17
    1e18:	000012bc 			; <UNDEFINED> instruction: 0x000012bc
    1e1c:	02500129 	subseq	r0, r0, #1073741834	; 0x4000000a
    1e20:	2e000c74 	mcrcs	12, 0, r0, cr0, cr4, {3}
    1e24:	00200918 	eoreq	r0, r0, r8, lsl r9
    1e28:	0000148c 	andeq	r1, r0, ip, lsl #9
    1e2c:	000012cf 	andeq	r1, r0, pc, asr #5
    1e30:	01500129 	cmpeq	r0, r9, lsr #2
    1e34:	34280044 	strtcc	r0, [r8], #-68	; 0x44
    1e38:	19002009 	stmdbne	r0, {r0, r3, sp}
    1e3c:	29000015 	stmdbcs	r0, {r0, r2, r4}
    1e40:	44015001 	strmi	r5, [r1], #-1
    1e44:	900e0000 	andls	r0, lr, r0
    1e48:	ef000000 	svc	0x00000000
    1e4c:	32000012 	andcc	r0, r0, #18
    1e50:	00000081 	andeq	r0, r0, r1, lsl #1
    1e54:	df070010 	svcle	0x00070010
    1e58:	2b000012 	blcs	1ea8 <_start-0x6158>
    1e5c:	00000459 	andeq	r0, r0, r9, asr r4
    1e60:	0025f001 	eoreq	pc, r5, r1
    1e64:	09500000 	ldmdbeq	r0, {}^	; <UNPREDICTABLE>
    1e68:	00880020 	addeq	r0, r8, r0, lsr #32
    1e6c:	9c010000 	stcls	0, cr0, [r1], {-0}
    1e70:	000013da 	ldrdeq	r1, [r0], -sl
    1e74:	0006301c 	andeq	r3, r6, ip, lsl r0
    1e78:	e7f00100 	ldrb	r0, [r0, r0, lsl #2]!
    1e7c:	64000008 	strvs	r0, [r0], #-8
    1e80:	1c00000c 	stcne	0, cr0, [r0], {12}
    1e84:	0000059c 	muleq	r0, ip, r5
    1e88:	0025f001 	eoreq	pc, r5, r1
    1e8c:	0c850000 	stceq	0, cr0, [r5], {0}
    1e90:	bd2c0000 	stclt	0, cr0, [ip, #-0]
    1e94:	01000004 	tsteq	r0, r4
    1e98:	000090f1 	strdeq	r9, [r0], -r1
    1e9c:	000ca300 	andeq	sl, ip, r0, lsl #6
    1ea0:	067f2c00 	ldrbteq	r2, [pc], -r0, lsl #24
    1ea4:	f8010000 			; <UNDEFINED> instruction: 0xf8010000
    1ea8:	0000002c 	andeq	r0, r0, ip, lsr #32
    1eac:	00000cc2 	andeq	r0, r0, r2, asr #25
    1eb0:	0006f02c 	andeq	pc, r6, ip, lsr #32
    1eb4:	2cf90100 	ldfcse	f0, [r9]
    1eb8:	e0000000 	and	r0, r0, r0
    1ebc:	3700000c 	strcc	r0, [r0, -ip]
    1ec0:	0000023f 	andeq	r0, r0, pc, lsr r2
    1ec4:	00200964 	eoreq	r0, r0, r4, ror #18
    1ec8:	00000058 	andeq	r0, r0, r8, asr r0
    1ecc:	1375fb01 	cmnne	r5, #1024	; 0x400
    1ed0:	4f230000 	svcmi	0x00230000
    1ed4:	fe000002 	cdp2	0, 0, cr0, cr0, cr2, {0}
    1ed8:	0000000c 	andeq	r0, r0, ip
    1edc:	00030c22 	andeq	r0, r3, r2, lsr #24
    1ee0:	20098400 	andcs	r8, r9, r0, lsl #8
    1ee4:	00003000 	andeq	r3, r0, r0
    1ee8:	c7fc0100 	ldrbgt	r0, [ip, r0, lsl #2]!
    1eec:	23000013 	movwcs	r0, #19
    1ef0:	00000325 	andeq	r0, r0, r5, lsr #6
    1ef4:	00000d16 	andeq	r0, r0, r6, lsl sp
    1ef8:	00031c23 	andeq	r1, r3, r3, lsr #24
    1efc:	000d2e00 	andeq	r2, sp, r0, lsl #28
    1f00:	09842600 	stmibeq	r4, {r9, sl, sp}
    1f04:	00300020 	eorseq	r0, r0, r0, lsr #32
    1f08:	2e270000 	cdpcs	0, 2, cr0, cr7, cr0, {0}
    1f0c:	46000003 	strmi	r0, [r0], -r3
    1f10:	2a00000d 	bcs	1f4c <_start-0x60b4>
    1f14:	0000023f 	andeq	r0, r0, pc, lsr r2
    1f18:	00200984 	eoreq	r0, r0, r4, lsl #19
    1f1c:	00000008 	andeq	r0, r0, r8
    1f20:	4f234303 	svcmi	0x00234303
    1f24:	2e000002 	cdpcs	0, 0, cr0, cr0, cr2, {0}
    1f28:	0000000d 	andeq	r0, r0, sp
    1f2c:	5c310000 	ldcpl	0, cr0, [r1], #-0
    1f30:	2a002009 	bcs	9f5c <_start+0x1f5c>
    1f34:	31000015 	tstcc	r0, r5, lsl r0
    1f38:	002009b8 	strhteq	r0, [r0], -r8
    1f3c:	0000152a 	andeq	r1, r0, sl, lsr #10
    1f40:	02492100 	subeq	r2, r9, #0, 2
    1f44:	0d010000 	stceq	0, cr0, [r1, #-0]
    1f48:	000013eb 	andeq	r1, r0, fp, ror #7
    1f4c:	3a4c0305 	bcc	1302b68 <__bss_end__+0x10fed10>
    1f50:	25100020 	ldrcs	r0, [r0, #-32]
    1f54:	21000000 	mrscs	r0, (UNDEF: 0)
    1f58:	000005a9 	andeq	r0, r0, r9, lsr #11
    1f5c:	01b00e01 	lslseq	r0, r1, #28
    1f60:	03050000 	movweq	r0, #20480	; 0x5000
    1f64:	00201a30 	eoreq	r1, r0, r0, lsr sl
    1f68:	0100751e 	tsteq	r0, lr, lsl r5
    1f6c:	0001f20f 	andeq	pc, r1, pc, lsl #4
    1f70:	24030500 	strcs	r0, [r3], #-1280	; 0x500
    1f74:	2100201a 	tstcs	r0, sl, lsl r0
    1f78:	00000526 	andeq	r0, r0, r6, lsr #10
    1f7c:	01ab1001 			; <UNDEFINED> instruction: 0x01ab1001
    1f80:	03050000 	movweq	r0, #20480	; 0x5000
    1f84:	00201a20 	eoreq	r1, r0, r0, lsr #20
    1f88:	00042521 	andeq	r2, r4, r1, lsr #10
    1f8c:	eb110100 	bl	442394 <__bss_end__+0x23e53c>
    1f90:	05000013 	streq	r0, [r0, #-19]
    1f94:	201a1803 	andscs	r1, sl, r3, lsl #16
    1f98:	02142100 	andseq	r2, r4, #0, 2
    1f9c:	16010000 	strne	r0, [r1], -r0
    1fa0:	000001ab 	andeq	r0, r0, fp, lsr #3
    1fa4:	3a440305 	bcc	1102bc0 <__bss_end__+0xefed68>
    1fa8:	f1210020 			; <UNDEFINED> instruction: 0xf1210020
    1fac:	01000000 	mrseq	r0, (UNDEF: 0)
    1fb0:	0001ab16 	andeq	sl, r1, r6, lsl fp
    1fb4:	48030500 	stmdami	r3, {r8, sl}
    1fb8:	2100203a 	tstcs	r0, sl, lsr r0
    1fbc:	0000013a 	andeq	r0, r0, sl, lsr r1
    1fc0:	01ab1601 			; <UNDEFINED> instruction: 0x01ab1601
    1fc4:	03050000 	movweq	r0, #20480	; 0x5000
    1fc8:	00201a1c 	eoreq	r1, r0, ip, lsl sl
    1fcc:	00057538 	andeq	r7, r5, r8, lsr r5
    1fd0:	c3800600 	orrgt	r0, r0, #0, 12
    1fd4:	05000000 	streq	r0, [r0, #-0]
    1fd8:	203e5003 	eorscs	r5, lr, r3
    1fdc:	043d3900 	ldrteq	r3, [sp], #-2304	; 0x900
    1fe0:	21050000 	mrscs	r0, (UNDEF: 5)
    1fe4:	0000148c 	andeq	r1, r0, ip, lsl #9
    1fe8:	00002c3a 	andeq	r2, r0, sl, lsr ip
    1fec:	002c3a00 	eoreq	r3, ip, r0, lsl #20
    1ff0:	3b000000 	blcc	1ff8 <_start-0x6008>
    1ff4:	000005d4 	ldrdeq	r0, [r0], -r4
    1ff8:	00252405 	eoreq	r2, r5, r5, lsl #8
    1ffc:	14a10000 	strtne	r0, [r1], #0
    2000:	2c3a0000 	ldccs	0, cr0, [sl], #-0
    2004:	00000000 	andeq	r0, r0, r0
    2008:	0005be3b 	andeq	fp, r5, fp, lsr lr
    200c:	25270900 	strcs	r0, [r7, #-2304]!	; 0x900
    2010:	b7000000 	strlt	r0, [r0, -r0]
    2014:	3a000014 	bcc	206c <_start-0x5f94>
    2018:	00000097 	muleq	r0, r7, r0
    201c:	0a3c0036 	beq	f020fc <__bss_end__+0xcfe2a4>
    2020:	09000003 	stmdbeq	r0, {r0, r1}
    2024:	06cf3963 	strbeq	r3, [pc], r3, ror #18
    2028:	1d050000 	stcne	0, cr0, [r5, #-0]
    202c:	000014cf 	andeq	r1, r0, pc, asr #9
    2030:	00002c3a 	andeq	r2, r0, sl, lsr ip
    2034:	5f390000 	svcpl	0x00390000
    2038:	05000006 	streq	r0, [r0, #-6]
    203c:	0014e01c 	andseq	lr, r4, ip, lsl r0
    2040:	002c3a00 	eoreq	r3, ip, r0, lsl #20
    2044:	3b000000 	blcc	204c <_start-0x5fb4>
    2048:	000005bb 			; <UNDEFINED> instruction: 0x000005bb
    204c:	0025020a 	eoreq	r0, r5, sl, lsl #4
    2050:	15040000 	strne	r0, [r4, #-0]
    2054:	8a3a0000 	bhi	e8205c <__bss_end__+0xc7e204>
    2058:	3a000000 	bcc	2060 <_start-0x5fa0>
    205c:	00000025 	andeq	r0, r0, r5, lsr #32
    2060:	0000973a 	andeq	r9, r0, sl, lsr r7
    2064:	02343a00 	eorseq	r3, r4, #0, 20
    2068:	3b000000 	blcc	2070 <_start-0x5f90>
    206c:	000006e4 	andeq	r0, r0, r4, ror #13
    2070:	00253805 	eoreq	r3, r5, r5, lsl #16
    2074:	15190000 	ldrne	r0, [r9, #-0]
    2078:	2c3a0000 	ldccs	0, cr0, [sl], #-0
    207c:	00000000 	andeq	r0, r0, r0
    2080:	00055739 	andeq	r5, r5, r9, lsr r7
    2084:	2a4e0500 	bcs	138348c <__bss_end__+0x117f634>
    2088:	3a000015 	bcc	20e4 <_start-0x5f1c>
    208c:	0000002c 	andeq	r0, r0, ip, lsr #32
    2090:	03ab3d00 			; <UNDEFINED> instruction: 0x03ab3d00
    2094:	54090000 	strpl	r0, [r9], #-0
    2098:	0000002c 	andeq	r0, r0, ip, lsr #32
    209c:	0008cf00 	andeq	ip, r8, r0, lsl #30
    20a0:	62000400 	andvs	r0, r0, #0, 8
    20a4:	04000008 	streq	r0, [r0], #-8
    20a8:	00006601 	andeq	r6, r0, r1, lsl #12
    20ac:	077d0100 	ldrbeq	r0, [sp, -r0, lsl #2]!
    20b0:	02a80000 	adceq	r0, r8, #0
    20b4:	0a240000 	beq	9020bc <__bss_end__+0x6fe264>
    20b8:	05bc0020 	ldreq	r0, [ip, #32]!
    20bc:	08030000 	stmdaeq	r3, {}	; <UNPREDICTABLE>
    20c0:	08020000 	stmdaeq	r2, {}	; <UNPREDICTABLE>
    20c4:	0001ec07 	andeq	lr, r1, r7, lsl #24
    20c8:	07040200 	streq	r0, [r4, -r0, lsl #4]
    20cc:	000001f6 	strdeq	r0, [r0], -r6
    20d0:	e5060102 	str	r0, [r6, #-258]	; 0x102
    20d4:	02000000 	andeq	r0, r0, #0
    20d8:	02540502 	subseq	r0, r4, #8388608	; 0x800000
    20dc:	04020000 	streq	r0, [r2], #-0
    20e0:	00023005 	andeq	r3, r2, r5
    20e4:	05080200 	streq	r0, [r8, #-512]	; 0x200
    20e8:	0000022b 	andeq	r0, r0, fp, lsr #4
    20ec:	e3080102 	movw	r0, #33026	; 0x8102
    20f0:	02000000 	andeq	r0, r0, #0
    20f4:	002e0702 	eoreq	r0, lr, r2, lsl #14
    20f8:	04020000 	streq	r0, [r2], #-0
    20fc:	0001f107 	andeq	pc, r1, r7, lsl #2
    2100:	05040300 	streq	r0, [r4, #-768]	; 0x300
    2104:	00746e69 	rsbseq	r6, r4, r9, ror #28
    2108:	22070402 	andcs	r0, r7, #33554432	; 0x2000000
    210c:	02000002 	andeq	r0, r0, #2
    2110:	00ec0801 	rsceq	r0, ip, r1, lsl #16
    2114:	01040000 	mrseq	r0, (UNDEF: 4)
    2118:	00b20c02 	adcseq	r0, r2, r2, lsl #24
    211c:	60050000 	andvs	r0, r5, r0
    2120:	00000007 	andeq	r0, r0, r7
    2124:	00089805 	andeq	r9, r8, r5, lsl #16
    2128:	d1050100 	mrsle	r0, (UNDEF: 21)
    212c:	04000008 	streq	r0, [r0], #-8
    2130:	0008e005 	andeq	lr, r8, r5
    2134:	ef050500 	svc	0x00050500
    2138:	06000008 	streq	r0, [r0], -r8
    213c:	0008fe05 	andeq	pc, r8, r5, lsl #28
    2140:	0d050700 	stceq	7, cr0, [r5, #-0]
    2144:	03000009 	movweq	r0, #9
    2148:	00091c05 	andeq	r1, r9, r5, lsl #24
    214c:	06000200 	streq	r0, [r0], -r0, lsl #4
    2150:	000008c5 	andeq	r0, r0, r5, asr #17
    2154:	00791502 	rsbseq	r1, r9, r2, lsl #10
    2158:	cf070000 	svcgt	0x00070000
    215c:	01000006 	tsteq	r0, r6
    2160:	200a243f 	andcs	r2, sl, pc, lsr r4
    2164:	0000d400 	andeq	sp, r0, r0, lsl #8
    2168:	339c0100 	orrscc	r0, ip, #0, 2
    216c:	08000001 	stmdaeq	r0, {r0}
    2170:	006e6970 	rsbeq	r6, lr, r0, ror r9
    2174:	002c3f01 	eoreq	r3, ip, r1, lsl #30
    2178:	0d680000 	stcleq	0, cr0, [r8, #-0]
    217c:	b9090000 	stmdblt	r9, {}	; <UNPREDICTABLE>
    2180:	01000007 	tsteq	r0, r7
    2184:	00013347 	andeq	r3, r1, r7, asr #6
    2188:	000d8600 	andeq	r8, sp, r0, lsl #12
    218c:	092b0900 	stmdbeq	fp!, {r8, fp}
    2190:	49010000 	stmdbmi	r1, {}	; <UNPREDICTABLE>
    2194:	0000002c 	andeq	r0, r0, ip, lsr #32
    2198:	00000ddb 	ldrdeq	r0, [r0], -fp
    219c:	00085909 	andeq	r5, r8, r9, lsl #18
    21a0:	2c570100 	ldfcse	f0, [r7], {-0}
    21a4:	a7000000 	strge	r0, [r0, -r0]
    21a8:	0a00000f 	beq	21ec <_start-0x5e14>
    21ac:	00200ab8 	strhteq	r0, [r0], -r8
    21b0:	0000088e 	andeq	r0, r0, lr, lsl #17
    21b4:	00000122 	andeq	r0, r0, r2, lsr #2
    21b8:	0250010b 	subseq	r0, r0, #-1073741822	; 0xc0000002
    21bc:	0c000075 	stceq	0, cr0, [r0], {117}	; 0x75
    21c0:	00200aec 	eoreq	r0, r0, ip, ror #21
    21c4:	000008af 	andeq	r0, r0, pc, lsr #17
    21c8:	0250010b 	subseq	r0, r0, #-1073741822	; 0xc0000002
    21cc:	00000075 	andeq	r0, r0, r5, ror r0
    21d0:	0139040d 	teqeq	r9, sp, lsl #8
    21d4:	2c0e0000 	stccs	0, cr0, [lr], {-0}
    21d8:	0f000000 	svceq	0x00000000
    21dc:	0000087e 	andeq	r0, r0, lr, ror r8
    21e0:	6c036001 	stcvs	0, cr6, [r3], {1}
    21e4:	10000001 	andne	r0, r0, r1
    21e8:	006e6970 	rsbeq	r6, lr, r0, ror r9
    21ec:	002c6001 	eoreq	r6, ip, r1
    21f0:	b9110000 	ldmdblt	r1, {}	; <UNPREDICTABLE>
    21f4:	01000007 	tsteq	r0, r7
    21f8:	00013367 	andeq	r3, r1, r7, ror #6
    21fc:	08591100 	ldmdaeq	r9, {r8, ip}^
    2200:	68010000 	stmdavs	r1, {}	; <UNPREDICTABLE>
    2204:	0000002c 	andeq	r0, r0, ip, lsr #32
    2208:	013e1200 	teqeq	lr, r0, lsl #4
    220c:	0af80000 	beq	ffe02214 <__bss_end__+0xffbfe3bc>
    2210:	00380020 	eorseq	r0, r8, r0, lsr #32
    2214:	9c010000 	stcls	0, cr0, [r1], {-0}
    2218:	000001b0 			; <UNDEFINED> instruction: 0x000001b0
    221c:	00014a13 	andeq	r4, r1, r3, lsl sl
    2220:	000fd700 	andeq	sp, pc, r0, lsl #14
    2224:	01551400 	cmpeq	r5, r0, lsl #8
    2228:	0ff80000 	svceq	0x00f80000
    222c:	60140000 	andsvs	r0, r4, r0
    2230:	2e000001 	cdpcs	0, 0, cr0, cr0, cr1, {0}
    2234:	0c000010 	stceq	0, cr0, [r0], {16}
    2238:	00200b28 	eoreq	r0, r0, r8, lsr #22
    223c:	000008af 	andeq	r0, r0, pc, lsr #17
    2240:	0751010b 	ldrbeq	r0, [r1, -fp, lsl #2]
    2244:	5001f331 	andpl	pc, r1, r1, lsr r3	; <UNPREDICTABLE>
    2248:	00241a4f 	eoreq	r1, r4, pc, asr #20
    224c:	07700f00 	ldrbeq	r0, [r0, -r0, lsl #30]!
    2250:	7b010000 	blvc	42258 <_start+0x3a258>
    2254:	0001de03 	andeq	sp, r1, r3, lsl #28
    2258:	69701000 	ldmdbvs	r0!, {ip}^
    225c:	7b01006e 	blvc	4241c <_start+0x3a41c>
    2260:	0000002c 	andeq	r0, r0, ip, lsr #32
    2264:	0007b911 	andeq	fp, r7, r1, lsl r9
    2268:	33810100 	orrcc	r0, r1, #0, 2
    226c:	11000001 	tstne	r0, r1
    2270:	00000859 	andeq	r0, r0, r9, asr r8
    2274:	002c8201 	eoreq	r8, ip, r1, lsl #4
    2278:	12000000 	andne	r0, r0, #0
    227c:	000001b0 			; <UNDEFINED> instruction: 0x000001b0
    2280:	00200b30 	eoreq	r0, r0, r0, lsr fp
    2284:	00000038 	andeq	r0, r0, r8, lsr r0
    2288:	02229c01 	eoreq	r9, r2, #256	; 0x100
    228c:	bc130000 	ldclt	0, cr0, [r3], {-0}
    2290:	6e000001 	cdpvs	0, 0, cr0, cr0, cr1, {0}
    2294:	14000010 	strne	r0, [r0], #-16
    2298:	000001c7 	andeq	r0, r0, r7, asr #3
    229c:	0000108f 	andeq	r1, r0, pc, lsl #1
    22a0:	0001d214 	andeq	sp, r1, r4, lsl r2
    22a4:	0010c500 	andseq	ip, r0, r0, lsl #10
    22a8:	0b600c00 	bleq	18052b0 <__bss_end__+0x1601458>
    22ac:	08af0020 	stmiaeq	pc!, {r5}	; <UNPREDICTABLE>
    22b0:	010b0000 	mrseq	r0, (UNDEF: 11)
    22b4:	f3310751 	vaba.u<illegal width 64>	q0, <illegal reg q0.5>, <illegal reg q0.5>
    22b8:	1a4f5001 	bne	13d62c4 <__bss_end__+0x11d246c>
    22bc:	07000024 	streq	r0, [r0, -r4, lsr #32]
    22c0:	0000065f 	andeq	r0, r0, pc, asr r6
    22c4:	0b689501 	bleq	1a276d0 <__bss_end__+0x1823878>
    22c8:	00cc0020 	sbceq	r0, ip, r0, lsr #32
    22cc:	9c010000 	stcls	0, cr0, [r1], {-0}
    22d0:	00000298 	muleq	r0, r8, r2
    22d4:	6e697008 	cdpvs	0, 6, cr7, cr9, cr8, {0}
    22d8:	2c950100 	ldfcss	f0, [r5], {0}
    22dc:	05000000 	streq	r0, [r0, #-0]
    22e0:	09000011 	stmdbeq	r0, {r0, r4}
    22e4:	000007b9 			; <UNDEFINED> instruction: 0x000007b9
    22e8:	01339b01 	teqeq	r3, r1, lsl #22
    22ec:	11230000 	teqne	r3, r0
    22f0:	2b090000 	blcs	2422f8 <__bss_end__+0x3e4a0>
    22f4:	01000009 	tsteq	r0, r9
    22f8:	00002c9d 	muleq	r0, sp, ip
    22fc:	00117800 	andseq	r7, r1, r0, lsl #16
    2300:	08590900 	ldmdaeq	r9, {r8, fp}^
    2304:	ab010000 	blge	4230c <_start+0x3a30c>
    2308:	0000002c 	andeq	r0, r0, ip, lsr #32
    230c:	00001344 	andeq	r1, r0, r4, asr #6
    2310:	200bfc0a 	andcs	pc, fp, sl, lsl #24
    2314:	00088e00 	andeq	r8, r8, r0, lsl #28
    2318:	00028700 	andeq	r8, r2, r0, lsl #14
    231c:	50010b00 	andpl	r0, r1, r0, lsl #22
    2320:	00007502 	andeq	r7, r0, r2, lsl #10
    2324:	200c280c 	andcs	r2, ip, ip, lsl #16
    2328:	0008af00 	andeq	sl, r8, r0, lsl #30
    232c:	50010b00 	andpl	r0, r1, r0, lsl #22
    2330:	00007502 	andeq	r7, r0, r2, lsl #10
    2334:	05d41500 	ldrbeq	r1, [r4, #1280]	; 0x500
    2338:	b3010000 	movwlt	r0, #4096	; 0x1000
    233c:	00000064 	andeq	r0, r0, r4, rrx
    2340:	00200c34 	eoreq	r0, r0, r4, lsr ip
    2344:	0000004c 	andeq	r0, r0, ip, asr #32
    2348:	02e09c01 	rsceq	r9, r0, #256	; 0x100
    234c:	70080000 	andvc	r0, r8, r0
    2350:	01006e69 	tsteq	r0, r9, ror #28
    2354:	00002cb3 			; <UNDEFINED> instruction: 0x00002cb3
    2358:	00136200 	andseq	r6, r3, r0, lsl #4
    235c:	00761600 	rsbseq	r1, r6, r0, lsl #12
    2360:	002cb901 	eoreq	fp, ip, r1, lsl #18
    2364:	13ba0000 			; <UNDEFINED> instruction: 0x13ba0000
    2368:	54170000 	ldrpl	r0, [r7], #-0
    236c:	8e00200c 	cdphi	0, 0, cr2, cr0, cr12, {0}
    2370:	17000008 	strne	r0, [r0, -r8]
    2374:	00200c64 	eoreq	r0, r0, r4, ror #24
    2378:	0000088e 	andeq	r0, r0, lr, lsl #17
    237c:	043d0700 	ldrteq	r0, [sp], #-1792	; 0x700
    2380:	c5010000 	strgt	r0, [r1, #-0]
    2384:	00200c80 	eoreq	r0, r0, r0, lsl #25
    2388:	00000078 	andeq	r0, r0, r8, ror r0
    238c:	03aa9c01 			; <UNDEFINED> instruction: 0x03aa9c01
    2390:	70080000 	andvc	r0, r8, r0
    2394:	01006e69 	tsteq	r0, r9, ror #28
    2398:	00002cc5 	andeq	r2, r0, r5, asr #25
    239c:	0013f000 	andseq	pc, r3, r0
    23a0:	00760800 	rsbseq	r0, r6, r0, lsl #16
    23a4:	002cc501 	eoreq	ip, ip, r1, lsl #10
    23a8:	142a0000 	strtne	r0, [sl], #-0
    23ac:	3e180000 	cdpcc	0, 1, cr0, cr8, cr0, {0}
    23b0:	94000001 	strls	r0, [r0], #-1
    23b4:	3000200c 	andcc	r2, r0, ip
    23b8:	01000000 	mrseq	r0, (UNDEF: 0)
    23bc:	00035fcc 	andeq	r5, r3, ip, asr #31
    23c0:	014a1300 	mrseq	r1, (UNDEF: 122)
    23c4:	14640000 	strbtne	r0, [r4], #-0
    23c8:	94190000 	ldrls	r0, [r9], #-0
    23cc:	3000200c 	andcc	r2, r0, ip
    23d0:	14000000 	strne	r0, [r0], #-0
    23d4:	00000155 	andeq	r0, r0, r5, asr r1
    23d8:	00001485 	andeq	r1, r0, r5, lsl #9
    23dc:	00016014 	andeq	r6, r1, r4, lsl r0
    23e0:	0014bb00 	andseq	fp, r4, r0, lsl #22
    23e4:	0cc00c00 	stcleq	12, cr0, [r0], {0}
    23e8:	08af0020 	stmiaeq	pc!, {r5}	; <UNPREDICTABLE>
    23ec:	010b0000 	mrseq	r0, (UNDEF: 11)
    23f0:	f3310751 	vaba.u<illegal width 64>	q0, <illegal reg q0.5>, <illegal reg q0.5>
    23f4:	1a4f5001 	bne	13d6400 <__bss_end__+0x11d25a8>
    23f8:	00000024 	andeq	r0, r0, r4, lsr #32
    23fc:	0001b01a 	andeq	fp, r1, sl, lsl r0
    2400:	200cc400 	andcs	ip, ip, r0, lsl #8
    2404:	00003400 	andeq	r3, r0, r0, lsl #8
    2408:	13ce0100 	bicne	r0, lr, #0, 2
    240c:	000001bc 			; <UNDEFINED> instruction: 0x000001bc
    2410:	000014fb 	strdeq	r1, [r0], -fp
    2414:	200cc419 	andcs	ip, ip, r9, lsl r4
    2418:	00003400 	andeq	r3, r0, r0, lsl #8
    241c:	01c71400 	biceq	r1, r7, r0, lsl #8
    2420:	151c0000 	ldrne	r0, [ip, #-0]
    2424:	d2140000 	andsle	r0, r4, #0
    2428:	52000001 	andpl	r0, r0, #1
    242c:	0c000015 	stceq	0, cr0, [r0], {21}
    2430:	00200cf0 	strdeq	r0, [r0], -r0	; <UNPREDICTABLE>
    2434:	000008af 	andeq	r0, r0, pc, lsr #17
    2438:	0751010b 	ldrbeq	r0, [r1, -fp, lsl #2]
    243c:	5001f331 	andpl	pc, r1, r1, lsr r3	; <UNPREDICTABLE>
    2440:	00241a4f 	eoreq	r1, r4, pc, asr #20
    2444:	07000000 	streq	r0, [r0, -r0]
    2448:	0000081d 	andeq	r0, r0, sp, lsl r8
    244c:	0cf8d101 	ldfeqp	f5, [r8], #4
    2450:	00d80020 	sbcseq	r0, r8, r0, lsr #32
    2454:	9c010000 	stcls	0, cr0, [r1], {-0}
    2458:	0000042f 	andeq	r0, r0, pc, lsr #8
    245c:	6e697008 	cdpvs	0, 6, cr7, cr9, cr8, {0}
    2460:	2cd10100 	ldfcse	f0, [r1], {0}
    2464:	92000000 	andls	r0, r0, #0
    2468:	1b000015 	blne	24c4 <_start-0x5b3c>
    246c:	0000086b 	andeq	r0, r0, fp, ror #16
    2470:	00b2d101 	adcseq	sp, r2, r1, lsl #2
    2474:	15b00000 	ldrne	r0, [r0, #0]!
    2478:	b9090000 	stmdblt	r9, {}	; <UNPREDICTABLE>
    247c:	01000007 	tsteq	r0, r7
    2480:	000133d9 	ldrdeq	r3, [r1], -r9
    2484:	0015d100 	andseq	sp, r5, r0, lsl #2
    2488:	092b0900 	stmdbeq	fp!, {r8, fp}
    248c:	da010000 	ble	42494 <_start+0x3a494>
    2490:	0000002c 	andeq	r0, r0, ip, lsr #32
    2494:	00001626 	andeq	r1, r0, r6, lsr #12
    2498:	00085909 	andeq	r5, r8, r9, lsl #18
    249c:	2ce80100 	stfcse	f0, [r8]
    24a0:	f2000000 	vhadd.s8	d0, d0, d0
    24a4:	0a000017 	beq	2508 <_start-0x5af8>
    24a8:	00200d94 	mlaeq	r0, r4, sp, r0
    24ac:	0000088e 	andeq	r0, r0, lr, lsl #17
    24b0:	0000041e 	andeq	r0, r0, lr, lsl r4
    24b4:	0250010b 	subseq	r0, r0, #-1073741822	; 0xc0000002
    24b8:	0c000076 	stceq	0, cr0, [r0], {118}	; 0x76
    24bc:	00200dc4 	eoreq	r0, r0, r4, asr #27
    24c0:	000008af 	andeq	r0, r0, pc, lsr #17
    24c4:	0250010b 	subseq	r0, r0, #-1073741822	; 0xc0000002
    24c8:	00000076 	andeq	r0, r0, r6, ror r0
    24cc:	0006e41c 	andeq	lr, r6, ip, lsl r4
    24d0:	01050100 	mrseq	r0, (UNDEF: 21)
    24d4:	00000064 	andeq	r0, r0, r4, rrx
    24d8:	00200dd0 	ldrdeq	r0, [r0], -r0	; <UNPREDICTABLE>
    24dc:	0000002c 	andeq	r0, r0, ip, lsr #32
    24e0:	04639c01 	strbteq	r9, [r3], #-3073	; 0xc01
    24e4:	e71d0000 	ldr	r0, [sp, -r0]
    24e8:	01000006 	tsteq	r0, r6
    24ec:	002c0105 	eoreq	r0, ip, r5, lsl #2
    24f0:	18230000 	stmdane	r3!, {}	; <UNPREDICTABLE>
    24f4:	e0170000 	ands	r0, r7, r0
    24f8:	8e00200d 	cdphi	0, 0, cr2, cr0, cr13, {0}
    24fc:	00000008 	andeq	r0, r0, r8
    2500:	0008081e 	andeq	r0, r8, lr, lsl r8
    2504:	01140100 	tsteq	r4, r0, lsl #2
    2508:	00200dfc 	strdeq	r0, [r0], -ip	; <UNPREDICTABLE>
    250c:	00000084 	andeq	r0, r0, r4, lsl #1
    2510:	05279c01 	streq	r9, [r7, #-3073]!	; 0xc01
    2514:	701f0000 	andsvc	r0, pc, r0
    2518:	01006e69 	tsteq	r0, r9, ror #28
    251c:	002c0114 	eoreq	r0, ip, r4, lsl r1
    2520:	18440000 	stmdane	r4, {}^	; <UNPREDICTABLE>
    2524:	8b200000 	blhi	80252c <__bss_end__+0x5fe6d4>
    2528:	01000007 	tsteq	r0, r7
    252c:	002c0126 	eoreq	r0, ip, r6, lsr #2
    2530:	18700000 	ldmdane	r0!, {}^	; <UNPREDICTABLE>
    2534:	18210000 	stmdane	r1!, {}	; <UNPREDICTABLE>
    2538:	1c00200e 	stcne	0, cr2, [r0], {14}
    253c:	c9000000 	stmdbgt	r0, {}	; <UNPREDICTABLE>
    2540:	20000004 	andcs	r0, r0, r4
    2544:	00000859 	andeq	r0, r0, r9, asr r8
    2548:	2c011d01 	stccs	13, cr1, [r1], {1}
    254c:	8e000000 	cdphi	0, 0, cr0, cr0, cr0, {0}
    2550:	17000018 	smladne	r0, r8, r0, r0
    2554:	00200e24 	eoreq	r0, r0, r4, lsr #28
    2558:	0000088e 	andeq	r0, r0, lr, lsl #17
    255c:	200e3417 	andcs	r3, lr, r7, lsl r4
    2560:	0008af00 	andeq	sl, r8, r0, lsl #30
    2564:	38210000 	stmdacc	r1!, {}	; <UNPREDICTABLE>
    2568:	2000200e 	andcs	r2, r0, lr
    256c:	f9000000 			; <UNDEFINED> instruction: 0xf9000000
    2570:	20000004 	andcs	r0, r0, r4
    2574:	00000859 	andeq	r0, r0, r9, asr r8
    2578:	2c012101 	stfcss	f2, [r1], {1}
    257c:	ac000000 	stcge	0, cr0, [r0], {-0}
    2580:	17000018 	smladne	r0, r8, r0, r0
    2584:	00200e44 	eoreq	r0, r0, r4, asr #28
    2588:	0000088e 	andeq	r0, r0, lr, lsl #17
    258c:	200e5817 	andcs	r5, lr, r7, lsl r8
    2590:	0008af00 	andeq	sl, r8, r0, lsl #30
    2594:	10170000 	andsne	r0, r7, r0
    2598:	cb00200e 	blgt	a5d8 <_start+0x25d8>
    259c:	17000008 	strne	r0, [r0, -r8]
    25a0:	00200e5c 	eoreq	r0, r0, ip, asr lr
    25a4:	000008cb 	andeq	r0, r0, fp, asr #17
    25a8:	200e6817 	andcs	r6, lr, r7, lsl r8
    25ac:	00088e00 	andeq	r8, r8, r0, lsl #28
    25b0:	0e741700 	cdpeq	7, 7, cr1, cr4, cr0, {0}
    25b4:	08af0020 	stmiaeq	pc!, {r5}	; <UNPREDICTABLE>
    25b8:	78170000 	ldmdavc	r7, {}	; <UNPREDICTABLE>
    25bc:	cb00200e 	blgt	a5fc <_start+0x25fc>
    25c0:	00000008 	andeq	r0, r0, r8
    25c4:	0008af1e 	andeq	sl, r8, lr, lsl pc
    25c8:	01310100 	teqeq	r1, r0, lsl #2
    25cc:	00200e80 	eoreq	r0, r0, r0, lsl #29
    25d0:	00000084 	andeq	r0, r0, r4, lsl #1
    25d4:	05eb9c01 	strbeq	r9, [fp, #3073]!	; 0xc01
    25d8:	701f0000 	andsvc	r0, pc, r0
    25dc:	01006e69 	tsteq	r0, r9, ror #28
    25e0:	002c0131 	eoreq	r0, ip, r1, lsr r1
    25e4:	18ca0000 	stmiane	sl, {}^	; <UNPREDICTABLE>
    25e8:	8b200000 	blhi	8025f0 <__bss_end__+0x5fe798>
    25ec:	01000007 	tsteq	r0, r7
    25f0:	002c0142 	eoreq	r0, ip, r2, asr #2
    25f4:	18f60000 	ldmne	r6!, {}^	; <UNPREDICTABLE>
    25f8:	9c210000 	stcls	0, cr0, [r1], #-0
    25fc:	1c00200e 	stcne	0, cr2, [r0], {14}
    2600:	8d000000 	stchi	0, cr0, [r0, #-0]
    2604:	20000005 	andcs	r0, r0, r5
    2608:	00000859 	andeq	r0, r0, r9, asr r8
    260c:	2c013901 	stccs	9, cr3, [r1], {1}
    2610:	14000000 	strne	r0, [r0], #-0
    2614:	17000019 	smladne	r0, r9, r0, r0
    2618:	00200ea8 	eoreq	r0, r0, r8, lsr #29
    261c:	0000088e 	andeq	r0, r0, lr, lsl #17
    2620:	200eb817 	andcs	fp, lr, r7, lsl r8
    2624:	0008af00 	andeq	sl, r8, r0, lsl #30
    2628:	bc210000 	stclt	0, cr0, [r1], #-0
    262c:	2000200e 	andcs	r2, r0, lr
    2630:	bd000000 	stclt	0, cr0, [r0, #-0]
    2634:	20000005 	andcs	r0, r0, r5
    2638:	00000859 	andeq	r0, r0, r9, asr r8
    263c:	2c013d01 	stccs	13, cr3, [r1], {1}
    2640:	32000000 	andcc	r0, r0, #0
    2644:	17000019 	smladne	r0, r9, r0, r0
    2648:	00200ec8 	eoreq	r0, r0, r8, asr #29
    264c:	0000088e 	andeq	r0, r0, lr, lsl #17
    2650:	200edc17 	andcs	sp, lr, r7, lsl ip
    2654:	0008af00 	andeq	sl, r8, r0, lsl #30
    2658:	94170000 	ldrls	r0, [r7], #-0
    265c:	cb00200e 	blgt	a69c <_start+0x269c>
    2660:	17000008 	strne	r0, [r0, -r8]
    2664:	00200ee0 	eoreq	r0, r0, r0, ror #29
    2668:	000008cb 	andeq	r0, r0, fp, asr #17
    266c:	200eec17 	andcs	lr, lr, r7, lsl ip
    2670:	00088e00 	andeq	r8, r8, r0, lsl #28
    2674:	0ef81700 	cdpeq	7, 15, cr1, cr8, cr0, {0}
    2678:	08af0020 	stmiaeq	pc!, {r5}	; <UNPREDICTABLE>
    267c:	fc170000 	ldc2	0, cr0, [r7], {-0}
    2680:	cb00200e 	blgt	a6c0 <_start+0x26c0>
    2684:	00000008 	andeq	r0, r0, r8
    2688:	0007291c 	andeq	r2, r7, ip, lsl r9
    268c:	014c0100 	mrseq	r0, (UNDEF: 92)
    2690:	00000064 	andeq	r0, r0, r4, rrx
    2694:	00200f04 	eoreq	r0, r0, r4, lsl #30
    2698:	00000084 	andeq	r0, r0, r4, lsl #1
    269c:	06919c01 	ldreq	r9, [r1], r1, lsl #24
    26a0:	701f0000 	andsvc	r0, pc, r0
    26a4:	01006e69 	tsteq	r0, r9, ror #28
    26a8:	002c014c 	eoreq	r0, ip, ip, asr #2
    26ac:	19500000 	ldmdbne	r0, {}^	; <UNPREDICTABLE>
    26b0:	20210000 	eorcs	r0, r1, r0
    26b4:	2400200f 	strcs	r2, [r0], #-15
    26b8:	45000000 	strmi	r0, [r0, #-0]
    26bc:	20000006 	andcs	r0, r0, r6
    26c0:	000007a2 	andeq	r0, r0, r2, lsr #15
    26c4:	2c015301 	stccs	3, cr5, [r1], {1}
    26c8:	92000000 	andls	r0, r0, #0
    26cc:	17000019 	smladne	r0, r9, r0, r0
    26d0:	00200f2c 	eoreq	r0, r0, ip, lsr #30
    26d4:	0000088e 	andeq	r0, r0, lr, lsl #17
    26d8:	200f3c17 	andcs	r3, pc, r7, lsl ip	; <UNPREDICTABLE>
    26dc:	0008cb00 	andeq	ip, r8, r0, lsl #22
    26e0:	44210000 	strtmi	r0, [r1], #-0
    26e4:	2c00200f 	stccs	0, cr2, [r0], {15}
    26e8:	7e000000 	cdpvc	0, 0, cr0, cr0, cr0, {0}
    26ec:	20000006 	andcs	r0, r0, r6
    26f0:	000007a2 	andeq	r0, r0, r2, lsr #15
    26f4:	2c015601 	stccs	6, cr5, [r1], {1}
    26f8:	ac000000 	stcge	0, cr0, [r0], {-0}
    26fc:	17000019 	smladne	r0, r9, r0, r0
    2700:	00200f50 	eoreq	r0, r0, r0, asr pc
    2704:	0000088e 	andeq	r0, r0, lr, lsl #17
    2708:	200f5c17 	andcs	r5, pc, r7, lsl ip	; <UNPREDICTABLE>
    270c:	0008cb00 	andeq	ip, r8, r0, lsl #22
    2710:	0f681700 	svceq	0x00681700
    2714:	08cb0020 	stmiaeq	fp, {r5}^
    2718:	17000000 	strne	r0, [r0, -r0]
    271c:	00200f18 	eoreq	r0, r0, r8, lsl pc
    2720:	000008cb 	andeq	r0, r0, fp, asr #17
    2724:	200f7417 	andcs	r7, pc, r7, lsl r4	; <UNPREDICTABLE>
    2728:	0008cb00 	andeq	ip, r8, r0, lsl #22
    272c:	571e0000 	ldrpl	r0, [lr, -r0]
    2730:	01000005 	tsteq	r0, r5
    2734:	0f88015f 	svceq	0x0088015f
    2738:	00580020 	subseq	r0, r8, r0, lsr #32
    273c:	9c010000 	stcls	0, cr0, [r1], {-0}
    2740:	000006f6 	strdeq	r0, [r0], -r6
    2744:	6e69701f 	mcrvs	0, 3, r7, cr9, cr15, {0}
    2748:	015f0100 	cmpeq	pc, r0, lsl #2
    274c:	0000002c 	andeq	r0, r0, ip, lsr #32
    2750:	000019bf 			; <UNDEFINED> instruction: 0x000019bf
    2754:	200f9c17 	andcs	r9, pc, r7, lsl ip	; <UNPREDICTABLE>
    2758:	0008cb00 	andeq	ip, r8, r0, lsl #22
    275c:	0fb80a00 	svceq	0x00b80a00
    2760:	08af0020 	stmiaeq	pc!, {r5}	; <UNPREDICTABLE>
    2764:	06d60000 	ldrbeq	r0, [r6], r0
    2768:	010b0000 	mrseq	r0, (UNDEF: 11)
    276c:	74310451 	ldrtvc	r0, [r1], #-1105	; 0x451
    2770:	0a002400 	beq	b778 <_start+0x3778>
    2774:	00200fd4 	ldrdeq	r0, [r0], -r4	; <UNPREDICTABLE>
    2778:	000008af 	andeq	r0, r0, pc, lsr #17
    277c:	000006ec 	andeq	r0, r0, ip, ror #13
    2780:	0451010b 	ldrbeq	r0, [r1], #-267	; 0x10b
    2784:	24007431 	strcs	r7, [r0], #-1073	; 0x431
    2788:	0fd81700 	svceq	0x00d81700
    278c:	08cb0020 	stmiaeq	fp, {r5}^
    2790:	22000000 	andcs	r0, r0, #0
    2794:	000007f6 	strdeq	r0, [r0], -r6
    2798:	01332801 	teqeq	r3, r1, lsl #16
    279c:	03050000 	movweq	r0, #20480	; 0x5000
    27a0:	00201738 	eoreq	r1, r0, r8, lsr r7
    27a4:	00086122 	andeq	r6, r8, r2, lsr #2
    27a8:	33290100 	teqcc	r9, #0, 2
    27ac:	05000001 	streq	r0, [r0, #-1]
    27b0:	20173403 	andscs	r3, r7, r3, lsl #8
    27b4:	09362200 	ldmdbeq	r6!, {r9, sp}
    27b8:	2a010000 	bcs	427c0 <_start+0x3a7c0>
    27bc:	00000133 	andeq	r0, r0, r3, lsr r1
    27c0:	17300305 	ldrne	r0, [r0, -r5, lsl #6]!
    27c4:	c2220020 	eorgt	r0, r2, #32
    27c8:	01000007 	tsteq	r0, r7
    27cc:	0001332c 	andeq	r3, r1, ip, lsr #6
    27d0:	dc030500 	cfstr32le	mvfx0, [r3], {-0}
    27d4:	22002016 	andcs	r2, r0, #22
    27d8:	000007ca 	andeq	r0, r0, sl, asr #15
    27dc:	01332d01 	teqeq	r3, r1, lsl #26
    27e0:	03050000 	movweq	r0, #20480	; 0x5000
    27e4:	002016e0 	eoreq	r1, r0, r0, ror #13
    27e8:	00074322 	andeq	r4, r7, r2, lsr #6
    27ec:	332e0100 	teqcc	lr, #0, 2
    27f0:	05000001 	streq	r0, [r0, #-1]
    27f4:	2016e403 	andscs	lr, r6, r3, lsl #8
    27f8:	07d22200 	ldrbeq	r2, [r2, r0, lsl #4]
    27fc:	2f010000 	svccs	0x00010000
    2800:	00000133 	andeq	r0, r0, r3, lsr r1
    2804:	16e80305 	strbtne	r0, [r8], r5, lsl #6
    2808:	da220020 	ble	882890 <__bss_end__+0x67ea38>
    280c:	01000007 	tsteq	r0, r7
    2810:	00013330 	andeq	r3, r1, r0, lsr r3
    2814:	ec030500 	cfstr32	mvfx0, [r3], {-0}
    2818:	22002016 	andcs	r2, r0, #22
    281c:	000007e2 	andeq	r0, r0, r2, ror #15
    2820:	01333101 	teqeq	r3, r1, lsl #2
    2824:	03050000 	movweq	r0, #20480	; 0x5000
    2828:	002016f0 	strdeq	r1, [r0], -r0	; <UNPREDICTABLE>
    282c:	00079422 	andeq	r9, r7, r2, lsr #8
    2830:	33330100 	teqcc	r3, #0, 2
    2834:	05000001 	streq	r0, [r0, #-1]
    2838:	2016f403 	andscs	pc, r6, r3, lsl #8
    283c:	079b2200 	ldreq	r2, [fp, r0, lsl #4]
    2840:	34010000 	strcc	r0, [r1], #-0
    2844:	00000133 	andeq	r0, r0, r3, lsr r1
    2848:	16f80305 	ldrbtne	r0, [r8], r5, lsl #6
    284c:	4b220020 	blmi	8828d4 <__bss_end__+0x67ea7c>
    2850:	01000007 	tsteq	r0, r7
    2854:	00013336 	andeq	r3, r1, r6, lsr r3
    2858:	fc030500 	stc2	5, cr0, [r3], {-0}
    285c:	22002016 	andcs	r2, r0, #22
    2860:	00000801 	andeq	r0, r0, r1, lsl #16
    2864:	01333701 	teqeq	r3, r1, lsl #14
    2868:	03050000 	movweq	r0, #20480	; 0x5000
    286c:	00201700 	eoreq	r1, r0, r0, lsl #14
    2870:	0007ab22 	andeq	sl, r7, r2, lsr #22
    2874:	33390100 	teqcc	r9, #0, 2
    2878:	05000001 	streq	r0, [r0, #-1]
    287c:	20170403 	andscs	r0, r7, r3, lsl #8
    2880:	07b22200 	ldreq	r2, [r2, r0, lsl #4]!
    2884:	3a010000 	bcc	4288c <_start+0x3a88c>
    2888:	00000133 	andeq	r0, r0, r3, lsr r1
    288c:	17080305 	strne	r0, [r8, -r5, lsl #6]
    2890:	3d220020 	stccc	0, cr0, [r2, #-128]!	; 0xffffff80
    2894:	01000008 	tsteq	r0, r8
    2898:	000133f0 	strdeq	r3, [r1], -r0
    289c:	2c030500 	cfstr32cs	mvfx0, [r3], {-0}
    28a0:	22002017 	andcs	r2, r0, #23
    28a4:	0000084b 	andeq	r0, r0, fp, asr #16
    28a8:	0133f101 	teqeq	r3, r1, lsl #2
    28ac:	03050000 	movweq	r0, #20480	; 0x5000
    28b0:	0020170c 	eoreq	r1, r0, ip, lsl #14
    28b4:	00087022 	andeq	r7, r8, r2, lsr #32
    28b8:	33f30100 	mvnscc	r0, #0, 2
    28bc:	05000001 	streq	r0, [r0, #-1]
    28c0:	20172403 	andscs	r2, r7, r3, lsl #8
    28c4:	08772200 	ldmdaeq	r7!, {r9, sp}^
    28c8:	f4010000 	vst4.8	{d0-d3}, [r1], r0
    28cc:	00000133 	andeq	r0, r0, r3, lsr r1
    28d0:	17280305 	strne	r0, [r8, -r5, lsl #6]!
    28d4:	2f220020 	svccs	0x00220020
    28d8:	01000008 	tsteq	r0, r8
    28dc:	000133f6 	strdeq	r3, [r1], -r6
    28e0:	10030500 	andne	r0, r3, r0, lsl #10
    28e4:	22002017 	andcs	r2, r0, #23
    28e8:	00000836 	andeq	r0, r0, r6, lsr r8
    28ec:	0133f701 	teqeq	r3, r1, lsl #14
    28f0:	03050000 	movweq	r0, #20480	; 0x5000
    28f4:	00201714 	eoreq	r1, r0, r4, lsl r7
    28f8:	00088a22 	andeq	r8, r8, r2, lsr #20
    28fc:	33f90100 	mvnscc	r0, #0, 2
    2900:	05000001 	streq	r0, [r0, #-1]
    2904:	20171c03 	andscs	r1, r7, r3, lsl #24
    2908:	08912200 	ldmeq	r1, {r9, sp}
    290c:	fa010000 	blx	42914 <_start+0x3a914>
    2910:	00000133 	andeq	r0, r0, r3, lsr r1
    2914:	17200305 	strne	r0, [r0, -r5, lsl #6]!
    2918:	52220020 	eorpl	r0, r2, #32
    291c:	01000007 	tsteq	r0, r7
    2920:	000133fc 	strdeq	r3, [r1], -ip
    2924:	18030500 	stmdane	r3, {r8, sl}
    2928:	23002017 	movwcs	r2, #23
    292c:	000008a9 	andeq	r0, r0, r9, lsr #17
    2930:	002c2001 	eoreq	r2, ip, r1
    2934:	08a30000 	stmiaeq	r3!, {}	; <UNPREDICTABLE>
    2938:	a3240000 	teqge	r4, #0
    293c:	00000008 	andeq	r0, r0, r8
    2940:	08a9040d 	stmiaeq	r9!, {r0, r2, r3, sl}
    2944:	ae250000 	cdpge	0, 2, cr0, cr5, cr0, {0}
    2948:	26000008 	strcs	r0, [r0], -r8
    294c:	00073d27 	andeq	r3, r7, r7, lsr #26
    2950:	c51e0100 	ldrgt	r0, [lr, #-256]	; 0x100
    2954:	24000008 	strcs	r0, [r0], #-8
    2958:	000008c5 	andeq	r0, r0, r5, asr #17
    295c:	00002c24 	andeq	r2, r0, r4, lsr #24
    2960:	040d0000 	streq	r0, [sp], #-0
    2964:	000008ae 	andeq	r0, r0, lr, lsr #17
    2968:	0007ea28 	andeq	lr, r7, r8, lsr #20
    296c:	00840300 	addeq	r0, r4, r0, lsl #6
    2970:	00000191 	muleq	r0, r1, r1
    2974:	0aa50004 	beq	fe94298c <__bss_end__+0xfe73eb34>
    2978:	01040000 	mrseq	r0, (UNDEF: 4)
    297c:	00000066 	andeq	r0, r0, r6, rrx
    2980:	00094001 	andeq	r4, r9, r1
    2984:	0002a800 	andeq	sl, r2, r0, lsl #16
    2988:	200fe000 	andcs	lr, pc, r0
    298c:	00005800 	andeq	r5, r0, r0, lsl #16
    2990:	00098f00 	andeq	r8, r9, r0, lsl #30
    2994:	05eb0200 	strbeq	r0, [fp, #512]!	; 0x200
    2998:	28020000 	stmdacs	r2, {}	; <UNPREDICTABLE>
    299c:	00000030 	andeq	r0, r0, r0, lsr r0
    29a0:	0004d703 	andeq	sp, r4, r3, lsl #14
    29a4:	00030400 	andeq	r0, r3, r0, lsl #8
    29a8:	00000047 	andeq	r0, r0, r7, asr #32
    29ac:	00068a04 	andeq	r8, r6, r4, lsl #20
    29b0:	00004700 	andeq	r4, r0, r0, lsl #14
    29b4:	05000000 	streq	r0, [r0, #-0]
    29b8:	04d90204 	ldrbeq	r0, [r9], #516	; 0x204
    29bc:	62020000 	andvs	r0, r2, #0
    29c0:	00000025 	andeq	r0, r0, r5, lsr #32
    29c4:	69050406 	stmdbvs	r5, {r1, r2, sl}
    29c8:	0700746e 	streq	r7, [r0, -lr, ror #8]
    29cc:	01f60704 	mvnseq	r0, r4, lsl #14
    29d0:	01070000 	mrseq	r0, (UNDEF: 7)
    29d4:	0000e506 	andeq	lr, r0, r6, lsl #10
    29d8:	05020700 	streq	r0, [r2, #-1792]	; 0x700
    29dc:	00000254 	andeq	r0, r0, r4, asr r2
    29e0:	30050407 	andcc	r0, r5, r7, lsl #8
    29e4:	07000002 	streq	r0, [r0, -r2]
    29e8:	022b0508 	eoreq	r0, fp, #8, 10	; 0x2000000
    29ec:	01070000 	mrseq	r0, (UNDEF: 7)
    29f0:	0000e308 	andeq	lr, r0, r8, lsl #6
    29f4:	07020700 	streq	r0, [r2, -r0, lsl #14]
    29f8:	0000002e 	andeq	r0, r0, lr, lsr #32
    29fc:	f1070407 			; <UNDEFINED> instruction: 0xf1070407
    2a00:	07000001 	streq	r0, [r0, -r1]
    2a04:	01ec0708 	mvneq	r0, r8, lsl #14
    2a08:	04070000 	streq	r0, [r7], #-0
    2a0c:	00022207 	andeq	r2, r2, r7, lsl #4
    2a10:	a7040800 	strge	r0, [r4, -r0, lsl #16]
    2a14:	07000000 	streq	r0, [r0, -r0]
    2a18:	00ec0801 	rsceq	r0, ip, r1, lsl #16
    2a1c:	04080000 	streq	r0, [r8], #-0
    2a20:	000000b4 	strheq	r0, [r0], -r4
    2a24:	0000a709 	andeq	sl, r0, r9, lsl #14
    2a28:	05be0a00 	ldreq	r0, [lr, #2560]!	; 0xa00
    2a2c:	06010000 	streq	r0, [r1], -r0
    2a30:	00000054 	andeq	r0, r0, r4, asr r0
    2a34:	00200fe0 	eoreq	r0, r0, r0, ror #31
    2a38:	00000058 	andeq	r0, r0, r8, asr r0
    2a3c:	01439c01 	cmpeq	r3, r1, lsl #24
    2a40:	660b0000 	strvs	r0, [fp], -r0
    2a44:	0100746d 	tsteq	r0, sp, ror #8
    2a48:	0000ae06 	andeq	sl, r0, r6, lsl #28
    2a4c:	70910200 	addsvc	r0, r1, r0, lsl #4
    2a50:	75620d0c 	strbvc	r0, [r2, #-3340]!	; 0xd0c
    2a54:	08010066 	stmdaeq	r1, {r1, r2, r5, r6}
    2a58:	00000143 	andeq	r0, r0, r3, asr #2
    2a5c:	3a500305 	bcc	1403678 <__bss_end__+0x11ff820>
    2a60:	ff0e0020 			; <UNDEFINED> instruction: 0xff0e0020
    2a64:	01000006 	tsteq	r0, r6
    2a68:	00004909 	andeq	r4, r0, r9, lsl #18
    2a6c:	5c910200 	lfmpl	f0, 4, [r1], {0}
    2a70:	007a730f 	rsbseq	r7, sl, pc, lsl #6
    2a74:	00540c01 	subseq	r0, r4, r1, lsl #24
    2a78:	19eb0000 	stmibne	fp!, {}^	; <UNPREDICTABLE>
    2a7c:	08100000 	ldmdaeq	r0, {}	; <UNPREDICTABLE>
    2a80:	74002010 	strvc	r2, [r0], #-16
    2a84:	36000001 	strcc	r0, [r0], -r1
    2a88:	11000001 	tstne	r0, r1
    2a8c:	91025301 	tstls	r2, r1, lsl #6
    2a90:	5201114c 	andpl	r1, r1, #76, 2
    2a94:	06489103 	strbeq	r9, [r8], -r3, lsl #2
    2a98:	03510111 	cmpeq	r1, #1073741828	; 0x40000004
    2a9c:	1104000a 	tstne	r4, sl
    2aa0:	74025001 	strvc	r5, [r2], #-1
    2aa4:	1c120000 	ldcne	0, cr0, [r2], {-0}
    2aa8:	11002010 	tstne	r0, r0, lsl r0
    2aac:	74025001 	strvc	r5, [r2], #-1
    2ab0:	13000000 	movwne	r0, #0
    2ab4:	000000a7 	andeq	r0, r0, r7, lsr #1
    2ab8:	00000154 	andeq	r0, r0, r4, asr r1
    2abc:	00009a14 	andeq	r9, r0, r4, lsl sl
    2ac0:	0003ff00 	andeq	pc, r3, r0, lsl #30
    2ac4:	00005415 	andeq	r5, r0, r5, lsl r4
    2ac8:	00016300 	andeq	r6, r1, r0, lsl #6
    2acc:	00ae1600 	adceq	r1, lr, r0, lsl #12
    2ad0:	17000000 	strne	r0, [r0, -r0]
    2ad4:	00000963 	andeq	r0, r0, r3, ror #18
    2ad8:	016e2004 	cmneq	lr, r4
    2adc:	04080000 	streq	r0, [r8], #-0
    2ae0:	00000154 	andeq	r0, r0, r4, asr r1
    2ae4:	0005bb18 	andeq	fp, r5, r8, lsl fp
    2ae8:	54020500 	strpl	r0, [r2], #-1280	; 0x500
    2aec:	16000000 	strne	r0, [r0], -r0
    2af0:	000000a1 	andeq	r0, r0, r1, lsr #1
    2af4:	00005416 	andeq	r5, r0, r6, lsl r4
    2af8:	00ae1600 	adceq	r1, lr, r0, lsl #12
    2afc:	49160000 	ldmdbmi	r6, {}	; <UNPREDICTABLE>
    2b00:	00000000 	andeq	r0, r0, r0
    2b04:	0000ee00 	andeq	lr, r0, r0, lsl #28
    2b08:	d6000400 	strle	r0, [r0], -r0, lsl #8
    2b0c:	0400000b 	streq	r0, [r0], #-11
    2b10:	00006601 	andeq	r6, r0, r1, lsl #12
    2b14:	094e0100 	stmdbeq	lr, {r8}^
    2b18:	02a80000 	adceq	r0, r8, #0
    2b1c:	10380000 	eorsne	r0, r8, r0
    2b20:	00340020 	eorseq	r0, r4, r0, lsr #32
    2b24:	0a950000 	beq	fe542b2c <__bss_end__+0xfe33ecd4>
    2b28:	04020000 	streq	r0, [r2], #-0
    2b2c:	746e6905 	strbtvc	r6, [lr], #-2309	; 0x905
    2b30:	07040300 	streq	r0, [r4, -r0, lsl #6]
    2b34:	000001f6 	strdeq	r0, [r0], -r6
    2b38:	e5060103 	str	r0, [r6, #-259]	; 0x103
    2b3c:	03000000 	movweq	r0, #0
    2b40:	02540502 	subseq	r0, r4, #8388608	; 0x800000
    2b44:	04030000 	streq	r0, [r3], #-0
    2b48:	00023005 	andeq	r3, r2, r5
    2b4c:	05080300 	streq	r0, [r8, #-768]	; 0x300
    2b50:	0000022b 	andeq	r0, r0, fp, lsr #4
    2b54:	e3080103 	movw	r0, #33027	; 0x8103
    2b58:	03000000 	movweq	r0, #0
    2b5c:	002e0702 	eoreq	r0, lr, r2, lsl #14
    2b60:	04030000 	streq	r0, [r3], #-0
    2b64:	0001f107 	andeq	pc, r1, r7, lsl #2
    2b68:	07080300 	streq	r0, [r8, -r0, lsl #6]
    2b6c:	000001ec 	andeq	r0, r0, ip, ror #3
    2b70:	22070403 	andcs	r0, r7, #50331648	; 0x3000000
    2b74:	03000002 	movweq	r0, #2
    2b78:	00ec0801 	rsceq	r0, ip, r1, lsl #16
    2b7c:	04040000 	streq	r0, [r4], #-0
    2b80:	0000007f 	andeq	r0, r0, pc, ror r0
    2b84:	00007205 	andeq	r7, r0, r5, lsl #4
    2b88:	095a0600 	ldmdbeq	sl, {r9, sl}^
    2b8c:	04010000 	streq	r0, [r1], #-0
    2b90:	00000025 	andeq	r0, r0, r5, lsr #32
    2b94:	00201038 	eoreq	r1, r0, r8, lsr r0
    2b98:	00000034 	andeq	r0, r0, r4, lsr r0
    2b9c:	00ab9c01 	adceq	r9, fp, r1, lsl #24
    2ba0:	70070000 	andvc	r0, r7, r0
    2ba4:	79040100 	stmdbvc	r4, {r8}
    2ba8:	14000000 	strne	r0, [r0], #-0
    2bac:	0000001a 	andeq	r0, r0, sl, lsl r0
    2bb0:	00002508 	andeq	r2, r0, r8, lsl #10
    2bb4:	0000ba00 	andeq	fp, r0, r0, lsl #20
    2bb8:	00250900 	eoreq	r0, r5, r0, lsl #18
    2bbc:	0a000000 	beq	2bc4 <_start-0x543c>
    2bc0:	00000968 	andeq	r0, r0, r8, ror #18
    2bc4:	00c51d02 	sbceq	r1, r5, r2, lsl #26
    2bc8:	04040000 	streq	r0, [r4], #-0
    2bcc:	000000ab 	andeq	r0, r0, fp, lsr #1
    2bd0:	00002508 	andeq	r2, r0, r8, lsl #10
    2bd4:	0000da00 	andeq	sp, r0, r0, lsl #20
    2bd8:	00790900 	rsbseq	r0, r9, r0, lsl #18
    2bdc:	0b000000 	bleq	2be4 <_start-0x541c>
    2be0:	00000963 	andeq	r0, r0, r3, ror #18
    2be4:	00eb0c01 	rsceq	r0, fp, r1, lsl #24
    2be8:	03050000 	movweq	r0, #20480	; 0x5000
    2bec:	0020173c 	eoreq	r1, r0, ip, lsr r7
    2bf0:	00cb0404 	sbceq	r0, fp, r4, lsl #8
    2bf4:	54000000 	strpl	r0, [r0], #-0
    2bf8:	04000006 	streq	r0, [r0], #-6
    2bfc:	000c6f00 	andeq	r6, ip, r0, lsl #30
    2c00:	66010400 	strvs	r0, [r1], -r0, lsl #8
    2c04:	01000000 	mrseq	r0, (UNDEF: 0)
    2c08:	000009a0 	andeq	r0, r0, r0, lsr #19
    2c0c:	000002a8 	andeq	r0, r0, r8, lsr #5
    2c10:	0020106c 	eoreq	r1, r0, ip, rrx
    2c14:	000004f0 	strdeq	r0, [r0], -r0	; <UNPREDICTABLE>
    2c18:	00000b2f 	andeq	r0, r0, pc, lsr #22
    2c1c:	69050402 	stmdbvs	r5, {r1, sl}
    2c20:	0300746e 	movweq	r7, #1134	; 0x46e
    2c24:	01f60704 	mvnseq	r0, r4, lsl #14
    2c28:	01030000 	mrseq	r0, (UNDEF: 3)
    2c2c:	0000e506 	andeq	lr, r0, r6, lsl #10
    2c30:	05020300 	streq	r0, [r2, #-768]	; 0x300
    2c34:	00000254 	andeq	r0, r0, r4, asr r2
    2c38:	30050403 	andcc	r0, r5, r3, lsl #8
    2c3c:	03000002 	movweq	r0, #2
    2c40:	022b0508 	eoreq	r0, fp, #8, 10	; 0x2000000
    2c44:	01030000 	mrseq	r0, (UNDEF: 3)
    2c48:	0000e308 	andeq	lr, r0, r8, lsl #6
    2c4c:	07020300 	streq	r0, [r2, -r0, lsl #6]
    2c50:	0000002e 	andeq	r0, r0, lr, lsr #32
    2c54:	f1070403 			; <UNDEFINED> instruction: 0xf1070403
    2c58:	03000001 	movweq	r0, #1
    2c5c:	01ec0708 	mvneq	r0, r8, lsl #14
    2c60:	04030000 	streq	r0, [r3], #-0
    2c64:	00022207 	andeq	r2, r2, r7, lsl #4
    2c68:	05040400 	streq	r0, [r4, #-1024]	; 0x400
    2c6c:	00007a04 	andeq	r7, r0, r4, lsl #20
    2c70:	08010300 	stmdaeq	r1, {r8, r9}
    2c74:	000000ec 	andeq	r0, r0, ip, ror #1
    2c78:	00870405 	addeq	r0, r7, r5, lsl #8
    2c7c:	7a060000 	bvc	182c84 <_start+0x17ac84>
    2c80:	07000000 	streq	r0, [r0, -r0]
    2c84:	000005eb 	andeq	r0, r0, fp, ror #11
    2c88:	00972802 	addseq	r2, r7, r2, lsl #16
    2c8c:	d7080000 	strle	r0, [r8, -r0]
    2c90:	04000004 	streq	r0, [r0], #-4
    2c94:	00ae0004 	adceq	r0, lr, r4
    2c98:	8a090000 	bhi	242ca0 <__bss_end__+0x3ee48>
    2c9c:	72000006 	andvc	r0, r0, #6
    2ca0:	00000000 	andeq	r0, r0, r0
    2ca4:	04d90700 	ldrbeq	r0, [r9], #1792	; 0x700
    2ca8:	62020000 	andvs	r0, r2, #0
    2cac:	0000008c 	andeq	r0, r0, ip, lsl #1
    2cb0:	0009820a 	andeq	r8, r9, sl, lsl #4
    2cb4:	25270100 	strcs	r0, [r7, #-256]!	; 0x100
    2cb8:	6c000000 	stcvs	0, cr0, [r0], {-0}
    2cbc:	14002010 	strne	r2, [r0], #-16
    2cc0:	01000000 	mrseq	r0, (UNDEF: 0)
    2cc4:	0000e09c 	muleq	r0, ip, r0
    2cc8:	00630b00 	rsbeq	r0, r3, r0, lsl #22
    2ccc:	00252701 	eoreq	r2, r5, r1, lsl #14
    2cd0:	1a320000 	bne	c82cd8 <__bss_end__+0xa7ee80>
    2cd4:	0c000000 	stceq	0, cr0, [r0], {-0}
    2cd8:	00646170 	rsbeq	r6, r4, r0, ror r1
    2cdc:	00742e01 	rsbseq	r2, r4, r1, lsl #28
    2ce0:	10800000 	addne	r0, r0, r0
    2ce4:	002c0020 	eoreq	r0, ip, r0, lsr #32
    2ce8:	9c010000 	stcls	0, cr0, [r1], {-0}
    2cec:	00000130 	andeq	r0, r0, r0, lsr r1
    2cf0:	0100700b 	tsteq	r0, fp
    2cf4:	0000742e 	andeq	r7, r0, lr, lsr #8
    2cf8:	001a6000 	andseq	r6, sl, r0
    2cfc:	09920d00 	ldmibeq	r2, {r8, sl, fp}
    2d00:	2e010000 	cdpcs	0, 0, cr0, cr1, cr0, {0}
    2d04:	00000074 	andeq	r0, r0, r4, ror r0
    2d08:	00001a8b 	andeq	r1, r0, fp, lsl #21
    2d0c:	0009c00e 	andeq	ip, r9, lr
    2d10:	252e0100 	strcs	r0, [lr, #-256]!	; 0x100
    2d14:	01000000 	mrseq	r0, (UNDEF: 0)
    2d18:	656c0f52 	strbvs	r0, [ip, #-3922]!	; 0xf52
    2d1c:	2f01006e 	svccs	0x0001006e
    2d20:	00000025 	andeq	r0, r0, r5, lsr #32
    2d24:	0a005101 	beq	17130 <_start+0xf130>
    2d28:	0000097a 	andeq	r0, r0, sl, ror r9
    2d2c:	00743701 	rsbseq	r3, r4, r1, lsl #14
    2d30:	10ac0000 	adcne	r0, ip, r0
    2d34:	00400020 	subeq	r0, r0, r0, lsr #32
    2d38:	9c010000 	stcls	0, cr0, [r1], {-0}
    2d3c:	0000019c 	muleq	r0, ip, r1
    2d40:	7473640b 	ldrbtvc	r6, [r3], #-1035	; 0x40b
    2d44:	74370100 	ldrtvc	r0, [r7], #-256	; 0x100
    2d48:	ac000000 	stcge	0, cr0, [r0], {-0}
    2d4c:	0b00001a 	bleq	2dbc <_start-0x5244>
    2d50:	3701006e 	strcc	r0, [r1, -lr, rrx]
    2d54:	00000025 	andeq	r0, r0, r5, lsr #32
    2d58:	00001ae4 	andeq	r1, r0, r4, ror #21
    2d5c:	0100700b 	tsteq	r0, fp
    2d60:	00007437 	andeq	r7, r0, r7, lsr r4
    2d64:	001b0500 	andseq	r0, fp, r0, lsl #10
    2d68:	06f90d00 	ldrbteq	r0, [r9], r0, lsl #26
    2d6c:	37010000 	strcc	r0, [r1, -r0]
    2d70:	00000074 	andeq	r0, r0, r4, ror r0
    2d74:	00001b3b 	andeq	r1, r0, fp, lsr fp
    2d78:	6e656c10 	mcrvs	12, 3, r6, cr5, cr0, {0}
    2d7c:	25390100 	ldrcs	r0, [r9, #-256]!	; 0x100
    2d80:	59000000 	stmdbpl	r0, {}	; <UNPREDICTABLE>
    2d84:	0f00001b 	svceq	0x0000001b
    2d88:	3d010073 	stccc	0, cr0, [r1, #-460]	; 0xfffffe34
    2d8c:	00000074 	andeq	r0, r0, r4, ror r0
    2d90:	0a005001 	beq	16d9c <_start+0xed9c>
    2d94:	000009ce 	andeq	r0, r0, lr, asr #19
    2d98:	00744701 	rsbseq	r4, r4, r1, lsl #14
    2d9c:	10ec0000 	rscne	r0, ip, r0
    2da0:	01980020 	orrseq	r0, r8, r0, lsr #32
    2da4:	9c010000 	stcls	0, cr0, [r1], {-0}
    2da8:	000002ca 	andeq	r0, r0, sl, asr #5
    2dac:	0009920d 	andeq	r9, r9, sp, lsl #4
    2db0:	2c470100 	stfcse	f0, [r7], {-0}
    2db4:	80000000 	andhi	r0, r0, r0
    2db8:	0b00001b 	bleq	2e2c <_start-0x51d4>
    2dbc:	00747364 	rsbseq	r7, r4, r4, ror #6
    2dc0:	00744701 	rsbseq	r4, r4, r1, lsl #14
    2dc4:	1bae0000 	blne	feb82dcc <__bss_end__+0xfe97ef74>
    2dc8:	6e0b0000 	cdpvs	0, 0, cr0, cr11, cr0, {0}
    2dcc:	25470100 	strbcs	r0, [r7, #-256]	; 0x100
    2dd0:	1c000000 	stcne	0, cr0, [r0], {-0}
    2dd4:	0b00001c 	bleq	2e4c <_start-0x51b4>
    2dd8:	006c6176 	rsbeq	r6, ip, r6, ror r1
    2ddc:	00254701 	eoreq	r4, r5, r1, lsl #14
    2de0:	1c480000 	marne	acc0, r0, r8
    2de4:	c00d0000 	andgt	r0, sp, r0
    2de8:	01000009 	tsteq	r0, r9
    2dec:	00002547 	andeq	r2, r0, r7, asr #10
    2df0:	001cd200 	andseq	sp, ip, r0, lsl #4
    2df4:	09970e00 	ldmibeq	r7, {r9, sl, fp}
    2df8:	47010000 	strmi	r0, [r1, -r0]
    2dfc:	00000025 	andeq	r0, r0, r5, lsr #32
    2e00:	0f049102 	svceq	0x00049102
    2e04:	00667562 	rsbeq	r7, r6, r2, ror #10
    2e08:	02ca4c01 	sbceq	r4, sl, #256	; 0x100
    2e0c:	91030000 	mrsls	r0, (UNDEF: 3)
    2e10:	70107fa8 	andsvc	r7, r0, r8, lsr #31
    2e14:	744c0100 	strbvc	r0, [ip], #-256	; 0x100
    2e18:	fc000000 	stc2	0, cr0, [r0], {-0}
    2e1c:	1000001c 	andne	r0, r0, ip, lsl r0
    2e20:	4d010075 	stcmi	0, cr0, [r1, #-468]	; 0xfffffe2c
    2e24:	0000002c 	andeq	r0, r0, ip, lsr #32
    2e28:	00001da1 	andeq	r1, r0, r1, lsr #27
    2e2c:	00056811 	andeq	r6, r5, r1, lsl r8
    2e30:	0002ea00 	andeq	lr, r2, r0, lsl #20
    2e34:	f8030500 			; <UNDEFINED> instruction: 0xf8030500
    2e38:	12002018 	andne	r2, r0, #24
    2e3c:	00201158 	eoreq	r1, r0, r8, asr r1
    2e40:	00000074 	andeq	r0, r0, r4, ror r0
    2e44:	00000261 	andeq	r0, r0, r1, ror #4
    2e48:	00097413 	andeq	r7, r9, r3, lsl r4
    2e4c:	2c520100 	ldfcse	f0, [r2], {-0}
    2e50:	b1000000 	mrslt	r0, (UNDEF: 0)
    2e54:	0000001e 	andeq	r0, r0, lr, lsl r0
    2e58:	20123c14 	andscs	r3, r2, r4, lsl ip
    2e5c:	00063a00 	andeq	r3, r6, r0, lsl #20
    2e60:	00029000 	andeq	r9, r2, r0
    2e64:	53011500 	movwpl	r1, #5376	; 0x1500
    2e68:	15750802 	ldrbne	r0, [r5, #-2050]!	; 0x802
    2e6c:	03055201 	movweq	r5, #20993	; 0x5201
    2e70:	002018f8 	strdeq	r1, [r0], -r8	; <UNPREDICTABLE>
    2e74:	05510115 	ldrbeq	r0, [r1, #-277]	; 0x115
    2e78:	20193003 	andscs	r3, r9, r3
    2e7c:	50011500 	andpl	r1, r1, r0, lsl #10
    2e80:	191c0305 	ldmdbne	ip, {r0, r2, r8, r9}
    2e84:	16000020 	strne	r0, [r0], -r0, lsr #32
    2e88:	00201240 	eoreq	r1, r0, r0, asr #4
    2e8c:	00000650 	andeq	r0, r0, r0, asr r6
    2e90:	20124c14 	andscs	r4, r2, r4, lsl ip
    2e94:	0000e000 	andeq	lr, r0, r0
    2e98:	0002ad00 	andeq	sl, r2, r0, lsl #26
    2e9c:	51011500 	tstpl	r1, r0, lsl #10
    2ea0:	00007d02 	andeq	r7, r0, r2, lsl #26
    2ea4:	20126017 	andscs	r6, r2, r7, lsl r0
    2ea8:	00013000 	andeq	r3, r1, r0
    2eac:	53011500 	movwpl	r1, #5376	; 0x1500
    2eb0:	15007d02 	strne	r7, [r0, #-3330]	; 0xd02
    2eb4:	74025101 	strvc	r5, [r2], #-257	; 0x101
    2eb8:	50011500 	andpl	r1, r1, r0, lsl #10
    2ebc:	00007502 	andeq	r7, r0, r2, lsl #10
    2ec0:	007a1800 	rsbseq	r1, sl, r0, lsl #16
    2ec4:	02da0000 	sbcseq	r0, sl, #0
    2ec8:	6b190000 	blvs	642ed0 <__bss_end__+0x43f078>
    2ecc:	3f000000 	svccc	0x00000000
    2ed0:	007a1800 	rsbseq	r1, sl, r0, lsl #16
    2ed4:	02ea0000 	rsceq	r0, sl, #0
    2ed8:	6b190000 	blvs	642ee0 <__bss_end__+0x43f088>
    2edc:	04000000 	streq	r0, [r0], #-0
    2ee0:	02da0600 	sbcseq	r0, sl, #0, 12
    2ee4:	b11a0000 	tstlt	sl, r0
    2ee8:	01000009 	tsteq	r0, r9
    2eec:	2012841f 	andscs	r8, r2, pc, lsl r4
    2ef0:	00005000 	andeq	r5, r0, r0
    2ef4:	6a9c0100 	bvs	fe7032fc <__bss_end__+0xfe4ff4a4>
    2ef8:	0d000003 	stceq	0, cr0, [r0, #-12]
    2efc:	000009c6 	andeq	r0, r0, r6, asr #19
    2f00:	03791f01 	cmneq	r9, #1, 30
    2f04:	1edd0000 	cdpne	0, 13, cr0, cr13, cr0, {0}
    2f08:	8a0d0000 	bhi	342f10 <__bss_end__+0x13f0b8>
    2f0c:	01000009 	tsteq	r0, r9
    2f10:	00038e1f 	andeq	r8, r3, pc, lsl lr
    2f14:	001f0900 	andseq	r0, pc, r0, lsl #18
    2f18:	05681100 	strbeq	r1, [r8, #-256]!	; 0x100
    2f1c:	03a40000 			; <UNDEFINED> instruction: 0x03a40000
    2f20:	03050000 	movweq	r0, #20480	; 0x5000
    2f24:	00201900 	eoreq	r1, r0, r0, lsl #18
    2f28:	2012a414 	andscs	sl, r2, r4, lsl r4
    2f2c:	00063a00 	andeq	r3, r6, r0, lsl #20
    2f30:	00036000 	andeq	r6, r3, r0
    2f34:	53011500 	movwpl	r1, #5376	; 0x1500
    2f38:	15200802 	strne	r0, [r0, #-2050]!	; 0x802
    2f3c:	03055201 	movweq	r5, #20993	; 0x5201
    2f40:	00201900 	eoreq	r1, r0, r0, lsl #18
    2f44:	05510115 	ldrbeq	r0, [r1, #-277]	; 0x115
    2f48:	20193003 	andscs	r3, r9, r3
    2f4c:	50011500 	andpl	r1, r1, r0, lsl #10
    2f50:	19680305 	stmdbne	r8!, {r0, r2, r8, r9}^
    2f54:	16000020 	strne	r0, [r0], -r0, lsr #32
    2f58:	002012a8 	eoreq	r1, r0, r8, lsr #5
    2f5c:	00000650 	andeq	r0, r0, r0, asr r6
    2f60:	00251b00 	eoreq	r1, r5, r0, lsl #22
    2f64:	03790000 	cmneq	r9, #0
    2f68:	251c0000 	ldrcs	r0, [ip, #-0]
    2f6c:	00000000 	andeq	r0, r0, r0
    2f70:	036a0405 	cmneq	sl, #83886080	; 0x5000000
    2f74:	251b0000 	ldrcs	r0, [fp, #-0]
    2f78:	8e000000 	cdphi	0, 0, cr0, cr0, cr0, {0}
    2f7c:	1c000003 	stcne	0, cr0, [r0], {3}
    2f80:	00000081 	andeq	r0, r0, r1, lsl #1
    2f84:	7f040500 	svcvc	0x00040500
    2f88:	18000003 	stmdane	r0, {r0, r1}
    2f8c:	0000007a 	andeq	r0, r0, sl, ror r0
    2f90:	000003a4 	andeq	r0, r0, r4, lsr #7
    2f94:	00006b19 	andeq	r6, r0, r9, lsl fp
    2f98:	06000e00 	streq	r0, [r0], -r0, lsl #28
    2f9c:	00000394 	muleq	r0, r4, r3
    2fa0:	0005bb1d 	andeq	fp, r5, sp, lsl fp
    2fa4:	257d0100 	ldrbcs	r0, [sp, #-256]!	; 0x100
    2fa8:	d4000000 	strle	r0, [r0], #-0
    2fac:	88002012 	stmdahi	r0, {r1, r4, sp}
    2fb0:	01000002 	tsteq	r0, r2
    2fb4:	0005ff9c 	muleq	r5, ip, pc	; <UNPREDICTABLE>
    2fb8:	75620b00 	strbvc	r0, [r2, #-2816]!	; 0xb00
    2fbc:	7d010066 	stcvc	0, cr0, [r1, #-408]	; 0xfffffe68
    2fc0:	00000074 	andeq	r0, r0, r4, ror r0
    2fc4:	00001f35 	andeq	r1, r0, r5, lsr pc
    2fc8:	01006e0b 	tsteq	r0, fp, lsl #28
    2fcc:	0000257d 	andeq	r2, r0, sp, ror r5
    2fd0:	001f6100 	andseq	r6, pc, r0, lsl #2
    2fd4:	6d660b00 	vstmdbvs	r6!, {d16-d15}
    2fd8:	7d010074 	stcvc	0, cr0, [r1, #-464]	; 0xfffffe30
    2fdc:	00000081 	andeq	r0, r0, r1, lsl #1
    2fe0:	00001f8f 	andeq	r1, r0, pc, lsl #31
    2fe4:	0006ff0d 	andeq	pc, r6, sp, lsl #30
    2fe8:	ae7d0100 	rpwgee	f0, f5, f0
    2fec:	c3000000 	movwgt	r0, #0
    2ff0:	1000001f 	andne	r0, r0, pc, lsl r0
    2ff4:	7e010070 	mcrvc	0, 0, r0, cr1, cr0, {3}
    2ff8:	00000074 	andeq	r0, r0, r4, ror r0
    2ffc:	00001fd6 	ldrdeq	r1, [r0], -r6
    3000:	01006510 	tsteq	r0, r0, lsl r5
    3004:	0000747e 	andeq	r7, r0, lr, ror r4
    3008:	00205400 	eoreq	r5, r0, r0, lsl #8
    300c:	05681100 	strbeq	r1, [r8, #-256]!	; 0x100
    3010:	060f0000 	streq	r0, [pc], -r0
    3014:	03050000 	movweq	r0, #20480	; 0x5000
    3018:	00201910 	eoreq	r1, r0, r0, lsl r9
    301c:	2013281e 	andscs	r2, r3, lr, lsl r8
    3020:	0001f400 	andeq	pc, r1, r0, lsl #8
    3024:	00731000 	rsbseq	r1, r3, r0
    3028:	00748b01 	rsbseq	r8, r4, r1, lsl #22
    302c:	207b0000 	rsbscs	r0, fp, r0
    3030:	6e0f0000 	cdpvs	0, 0, cr0, cr15, cr0, {0}
    3034:	01006d75 	tsteq	r0, r5, ror sp
    3038:	0006148b 	andeq	r1, r6, fp, lsl #9
    303c:	d8910300 	ldmle	r1, {r8, r9}
    3040:	09c0137e 	stmibeq	r0, {r1, r2, r3, r4, r5, r6, r8, r9, ip}^
    3044:	8c010000 	stchi	0, cr0, [r1], {-0}
    3048:	0000002c 	andeq	r0, r0, ip, lsr #32
    304c:	000020d0 	ldrdeq	r2, [r0], -r0
    3050:	20135814 	andscs	r5, r3, r4, lsl r8
    3054:	0000b900 	andeq	fp, r0, r0, lsl #18
    3058:	00046d00 	andeq	r6, r4, r0, lsl #26
    305c:	50011500 	andpl	r1, r1, r0, lsl #10
    3060:	00007502 	andeq	r7, r0, r2, lsl #10
    3064:	20137c14 	andscs	r7, r3, r4, lsl ip
    3068:	00063a00 	andeq	r3, r6, r0, lsl #20
    306c:	00049c00 	andeq	r9, r4, r0, lsl #24
    3070:	53011500 	movwpl	r1, #5376	; 0x1500
    3074:	15920802 	ldrne	r0, [r2, #2050]	; 0x802
    3078:	03055201 	movweq	r5, #20993	; 0x5201
    307c:	00201910 	eoreq	r1, r0, r0, lsl r9
    3080:	05510115 	ldrbeq	r0, [r1, #-277]	; 0x115
    3084:	20193003 	andscs	r3, r9, r3
    3088:	50011500 	andpl	r1, r1, r0, lsl #10
    308c:	19800305 	stmibne	r0, {r0, r2, r8, r9}
    3090:	16000020 	strne	r0, [r0], -r0, lsr #32
    3094:	00201380 	eoreq	r1, r0, r0, lsl #7
    3098:	00000650 	andeq	r0, r0, r0, asr r6
    309c:	20140014 	andscs	r0, r4, r4, lsl r0
    30a0:	00063a00 	andeq	r3, r6, r0, lsl #20
    30a4:	0004d400 	andeq	sp, r4, r0, lsl #8
    30a8:	53011500 	movwpl	r1, #5376	; 0x1500
    30ac:	15980802 	ldrne	r0, [r8, #2050]	; 0x802
    30b0:	03055201 	movweq	r5, #20993	; 0x5201
    30b4:	00201910 	eoreq	r1, r0, r0, lsl r9
    30b8:	05510115 	ldrbeq	r0, [r1, #-277]	; 0x115
    30bc:	20193003 	andscs	r3, r9, r3
    30c0:	50011500 	andpl	r1, r1, r0, lsl #10
    30c4:	199c0305 	ldmibne	ip, {r0, r2, r8, r9}
    30c8:	16000020 	strne	r0, [r0], -r0, lsr #32
    30cc:	00201404 	eoreq	r1, r0, r4, lsl #8
    30d0:	00000650 	andeq	r0, r0, r0, asr r6
    30d4:	20142814 	andscs	r2, r4, r4, lsl r8
    30d8:	00019c00 	andeq	r9, r1, r0, lsl #24
    30dc:	00050a00 	andeq	r0, r5, r0, lsl #20
    30e0:	52011500 	andpl	r1, r1, #0, 10
    30e4:	15800802 	strne	r0, [r0, #2050]	; 0x802
    30e8:	91035101 	tstls	r3, r1, lsl #2
    30ec:	01157ed0 			; <UNDEFINED> instruction: 0x01157ed0
    30f0:	153a0150 	ldrne	r0, [sl, #-336]!	; 0x150
    30f4:	01047d02 	tsteq	r4, r2, lsl #26
    30f8:	7d021531 	cfstr32vc	mvfx1, [r2, #-196]	; 0xffffff3c
    30fc:	00770200 	rsbseq	r0, r7, r0, lsl #4
    3100:	14501400 	ldrbne	r1, [r0], #-1024	; 0x400
    3104:	019c0020 	orrseq	r0, ip, r0, lsr #32
    3108:	05370000 	ldreq	r0, [r7, #-0]!
    310c:	01150000 	tsteq	r5, r0
    3110:	80080252 	andhi	r0, r8, r2, asr r2
    3114:	03510115 	cmpeq	r1, #1073741829	; 0x40000005
    3118:	157ed091 	ldrbne	sp, [lr, #-145]!	; 0x91
    311c:	3a015001 	bcc	57128 <_start+0x4f128>
    3120:	047d0215 	ldrbteq	r0, [sp], #-533	; 0x215
    3124:	02153001 	andseq	r3, r5, #1
    3128:	7702007d 	smlsdxvc	r2, sp, r0, r0
    312c:	78140000 	ldmdavc	r4, {}	; <UNPREDICTABLE>
    3130:	9c002014 	stcls	0, cr2, [r0], {20}
    3134:	64000001 	strvs	r0, [r0], #-1
    3138:	15000005 	strne	r0, [r0, #-5]
    313c:	08025201 	stmdaeq	r2, {r0, r9, ip, lr}
    3140:	51011580 	smlabbpl	r1, r0, r5, r1
    3144:	7ed09103 	atnvcs	f1, f3
    3148:	01500115 	cmpeq	r0, r5, lsl r1
    314c:	7d021540 	cfstr32vc	mvfx1, [r2, #-256]	; 0xffffff00
    3150:	15300104 	ldrne	r0, [r0, #-260]!	; 0x104
    3154:	02007d02 	andeq	r7, r0, #2, 26	; 0x80
    3158:	14000077 	strne	r0, [r0], #-119	; 0x77
    315c:	002014a0 	eoreq	r1, r0, r0, lsr #9
    3160:	0000019c 	muleq	r0, ip, r1
    3164:	00000591 	muleq	r0, r1, r5
    3168:	02520115 	subseq	r0, r2, #1073741829	; 0x40000005
    316c:	01158008 	tsteq	r5, r8
    3170:	d0910351 	addsle	r0, r1, r1, asr r3
    3174:	5001157e 	andpl	r1, r1, lr, ror r5
    3178:	02153201 	andseq	r3, r5, #268435456	; 0x10000000
    317c:	3001047d 	andcc	r0, r1, sp, ror r4
    3180:	007d0215 	rsbseq	r0, sp, r5, lsl r2
    3184:	00007702 	andeq	r7, r0, r2, lsl #14
    3188:	2014d414 	andscs	sp, r4, r4, lsl r4
    318c:	00019c00 	andeq	r9, r1, r0, lsl #24
    3190:	0005be00 	andeq	fp, r5, r0, lsl #28
    3194:	52011500 	andpl	r1, r1, #0, 10
    3198:	15800802 	strne	r0, [r0, #2050]	; 0x802
    319c:	91035101 	tstls	r3, r1, lsl #2
    31a0:	01157ed0 			; <UNDEFINED> instruction: 0x01157ed0
    31a4:	15380150 	ldrne	r0, [r8, #-336]!	; 0x150
    31a8:	01047d02 	tsteq	r4, r2, lsl #26
    31ac:	7d021530 	cfstr32vc	mvfx1, [r2, #-192]	; 0xffffff40
    31b0:	00770200 	rsbseq	r0, r7, r0, lsl #4
    31b4:	14f01400 	ldrbtne	r1, [r0], #1024	; 0x400
    31b8:	063a0020 	ldrteq	r0, [sl], -r0, lsr #32
    31bc:	05f40000 	ldrbeq	r0, [r4, #0]!
    31c0:	01150000 	tsteq	r5, r0
    31c4:	b9080253 	stmdblt	r8, {r0, r1, r4, r6, r9}
    31c8:	05520115 	ldrbeq	r0, [r2, #-277]	; 0x115
    31cc:	20191003 	andscs	r1, r9, r3
    31d0:	51011500 	tstpl	r1, r0, lsl #10
    31d4:	19300305 	ldmdbne	r0!, {r0, r2, r8, r9}
    31d8:	01150020 	tsteq	r5, r0, lsr #32
    31dc:	c4030550 	strgt	r0, [r3], #-1360	; 0x550
    31e0:	15002019 	strne	r2, [r0, #-25]
    31e4:	02007d02 	andeq	r7, r0, #2, 26	; 0x80
    31e8:	16000079 			; <UNDEFINED> instruction: 0x16000079
    31ec:	002014f4 	strdeq	r1, [r0], -r4	; <UNPREDICTABLE>
    31f0:	00000650 	andeq	r0, r0, r0, asr r6
    31f4:	7a180000 	bvc	6031fc <__bss_end__+0x3ff3a4>
    31f8:	0f000000 	svceq	0x00000000
    31fc:	19000006 	stmdbne	r0, {r1, r2}
    3200:	0000006b 	andeq	r0, r0, fp, rrx
    3204:	ff060009 			; <UNDEFINED> instruction: 0xff060009
    3208:	18000005 	stmdane	r0, {r0, r2}
    320c:	0000007a 	andeq	r0, r0, sl, ror r0
    3210:	00000624 	andeq	r0, r0, r4, lsr #12
    3214:	00006b19 	andeq	r6, r0, r9, lsl fp
    3218:	1f007f00 	svcne	0x00007f00
    321c:	00000968 	andeq	r0, r0, r8, ror #18
    3220:	03791d03 	cmneq	r9, #3, 26	; 0xc0
    3224:	631f0000 	tstvs	pc, #0
    3228:	03000009 	movweq	r0, #9
    322c:	00038e20 	andeq	r8, r3, r0, lsr #28
    3230:	05be2000 	ldreq	r2, [lr, #0]!
    3234:	27030000 	strcs	r0, [r3, -r0]
    3238:	00000025 	andeq	r0, r0, r5, lsr #32
    323c:	00000650 	andeq	r0, r0, r0, asr r6
    3240:	0000811c 	andeq	r8, r0, ip, lsl r1
    3244:	22002100 	andcs	r2, r0, #0, 2
    3248:	0000030a 	andeq	r0, r0, sl, lsl #6
    324c:	e0006303 	and	r6, r0, r3, lsl #6
    3250:	04000000 	streq	r0, [r0], #-0
    3254:	000e4d00 	andeq	r4, lr, r0, lsl #26
    3258:	66010400 	strvs	r0, [r1], -r0, lsl #8
    325c:	01000000 	mrseq	r0, (UNDEF: 0)
    3260:	000009e4 	andeq	r0, r0, r4, ror #19
    3264:	000002a8 	andeq	r0, r0, r8, lsr #5
    3268:	00201574 	eoreq	r1, r0, r4, ror r5
    326c:	00000014 	andeq	r0, r0, r4, lsl r0
    3270:	00000d0f 	andeq	r0, r0, pc, lsl #26
    3274:	69050402 	stmdbvs	r5, {r1, sl}
    3278:	0300746e 	movweq	r7, #1134	; 0x46e
    327c:	01f60704 	mvnseq	r0, r4, lsl #14
    3280:	01030000 	mrseq	r0, (UNDEF: 3)
    3284:	0000e506 	andeq	lr, r0, r6, lsl #10
    3288:	05020300 	streq	r0, [r2, #-768]	; 0x300
    328c:	00000254 	andeq	r0, r0, r4, asr r2
    3290:	30050403 	andcc	r0, r5, r3, lsl #8
    3294:	03000002 	movweq	r0, #2
    3298:	022b0508 	eoreq	r0, fp, #8, 10	; 0x2000000
    329c:	01030000 	mrseq	r0, (UNDEF: 3)
    32a0:	0000e308 	andeq	lr, r0, r8, lsl #6
    32a4:	07020300 	streq	r0, [r2, -r0, lsl #6]
    32a8:	0000002e 	andeq	r0, r0, lr, lsr #32
    32ac:	f1070403 			; <UNDEFINED> instruction: 0xf1070403
    32b0:	03000001 	movweq	r0, #1
    32b4:	01ec0708 	mvneq	r0, r8, lsl #14
    32b8:	04030000 	streq	r0, [r3], #-0
    32bc:	00022207 	andeq	r2, r2, r7, lsl #4
    32c0:	08010300 	stmdaeq	r1, {r8, r9}
    32c4:	000000ec 	andeq	r0, r0, ip, ror #1
    32c8:	0009d304 	andeq	sp, r9, r4, lsl #6
    32cc:	25030100 	strcs	r0, [r3, #-256]	; 0x100
    32d0:	74000000 	strvc	r0, [r0], #-0
    32d4:	14002015 	strne	r2, [r0], #-21
    32d8:	01000000 	mrseq	r0, (UNDEF: 0)
    32dc:	0000b09c 	muleq	r0, ip, r0
    32e0:	00630500 	rsbeq	r0, r3, r0, lsl #10
    32e4:	00250301 	eoreq	r0, r5, r1, lsl #6
    32e8:	20fa0000 	rscscs	r0, sl, r0
    32ec:	80060000 	andhi	r0, r6, r0
    32f0:	d6002015 			; <UNDEFINED> instruction: 0xd6002015
    32f4:	07000000 	streq	r0, [r0, -r0]
    32f8:	74025001 	strvc	r5, [r2], #-1
    32fc:	08000000 	stmdaeq	r0, {}	; <UNPREDICTABLE>
    3300:	00000025 	andeq	r0, r0, r5, lsr #32
    3304:	000000bf 	strheq	r0, [r0], -pc	; <UNPREDICTABLE>
    3308:	00002509 	andeq	r2, r0, r9, lsl #10
    330c:	680a0000 	stmdavs	sl, {}	; <UNPREDICTABLE>
    3310:	01000009 	tsteq	r0, r9
    3314:	0000d006 	andeq	sp, r0, r6
    3318:	40030500 	andmi	r0, r3, r0, lsl #10
    331c:	0b002017 	bleq	b380 <_start+0x3380>
    3320:	0000b004 	andeq	fp, r0, r4
    3324:	01bd0c00 			; <UNDEFINED> instruction: 0x01bd0c00
    3328:	3a020000 	bcc	83330 <_start+0x7b330>
    332c:	00002c09 	andeq	r2, r0, r9, lsl #24
    3330:	ff000000 			; <UNDEFINED> instruction: 0xff000000
    3334:	04000003 	streq	r0, [r0], #-3
    3338:	000ef400 	andeq	pc, lr, r0, lsl #8
    333c:	66010400 	strvs	r0, [r1], -r0, lsl #8
    3340:	01000000 	mrseq	r0, (UNDEF: 0)
    3344:	00000ac4 	andeq	r0, r0, r4, asr #21
    3348:	000002a8 	andeq	r0, r0, r8, lsr #5
    334c:	00201588 	eoreq	r1, r0, r8, lsl #11
    3350:	00000154 	andeq	r0, r0, r4, asr r1
    3354:	00000d99 	muleq	r0, r9, sp
    3358:	69050402 	stmdbvs	r5, {r1, sl}
    335c:	0300746e 	movweq	r7, #1134	; 0x46e
    3360:	01f60704 	mvnseq	r0, r4, lsl #14
    3364:	01030000 	mrseq	r0, (UNDEF: 3)
    3368:	0000e506 	andeq	lr, r0, r6, lsl #10
    336c:	05020300 	streq	r0, [r2, #-768]	; 0x300
    3370:	00000254 	andeq	r0, r0, r4, asr r2
    3374:	30050403 	andcc	r0, r5, r3, lsl #8
    3378:	03000002 	movweq	r0, #2
    337c:	022b0508 	eoreq	r0, fp, #8, 10	; 0x2000000
    3380:	01030000 	mrseq	r0, (UNDEF: 3)
    3384:	0000e308 	andeq	lr, r0, r8, lsl #6
    3388:	07020300 	streq	r0, [r2, -r0, lsl #6]
    338c:	0000002e 	andeq	r0, r0, lr, lsr #32
    3390:	f1070403 			; <UNDEFINED> instruction: 0xf1070403
    3394:	03000001 	movweq	r0, #1
    3398:	01ec0708 	mvneq	r0, r8, lsl #14
    339c:	04030000 	streq	r0, [r3], #-0
    33a0:	00022207 	andeq	r2, r2, r7, lsl #4
    33a4:	08010300 	stmdaeq	r1, {r8, r9}
    33a8:	000000ec 	andeq	r0, r0, ip, ror #1
    33ac:	0c020104 	stfeqs	f0, [r2], {4}
    33b0:	000000b2 	strheq	r0, [r0], -r2
    33b4:	00076005 	andeq	r6, r7, r5
    33b8:	98050000 	stmdals	r5, {}	; <UNPREDICTABLE>
    33bc:	01000008 	tsteq	r0, r8
    33c0:	0008d105 	andeq	sp, r8, r5, lsl #2
    33c4:	e0050400 	and	r0, r5, r0, lsl #8
    33c8:	05000008 	streq	r0, [r0, #-8]
    33cc:	0008ef05 	andeq	lr, r8, r5, lsl #30
    33d0:	fe050600 	cdp2	6, 0, cr0, cr5, cr0, {0}
    33d4:	07000008 	streq	r0, [r0, -r8]
    33d8:	00090d05 	andeq	r0, r9, r5, lsl #26
    33dc:	1c050300 	stcne	3, cr0, [r5], {-0}
    33e0:	02000009 	andeq	r0, r0, #9
    33e4:	08c50600 	stmiaeq	r5, {r9, sl}^
    33e8:	15020000 	strne	r0, [r2, #-0]
    33ec:	00000079 	andeq	r0, r0, r9, ror r0
    33f0:	000a4b07 	andeq	r4, sl, r7, lsl #22
    33f4:	88370100 	ldmdahi	r7!, {r8}
    33f8:	9c002015 	stcls	0, cr2, [r0], {21}
    33fc:	01000000 	mrseq	r0, (UNDEF: 0)
    3400:	0001c39c 	muleq	r1, ip, r3
    3404:	15900800 	ldrne	r0, [r0, #2048]	; 0x800
    3408:	03a80020 			; <UNDEFINED> instruction: 0x03a80020
    340c:	9c090000 	stcls	0, cr0, [r9], {-0}
    3410:	af002015 	svcge	0x00002015
    3414:	f3000003 	vhadd.u8	d0, d0, d3
    3418:	0a000000 	beq	3420 <_start-0x4be0>
    341c:	32015101 	andcc	r5, r1, #1073741824	; 0x40000000
    3420:	0150010a 	cmpeq	r0, sl, lsl #2
    3424:	a809003e 	stmdage	r9, {r1, r2, r3, r4, r5}
    3428:	af002015 	svcge	0x00002015
    342c:	0b000003 	bleq	3440 <_start-0x4bc0>
    3430:	0a000001 	beq	343c <_start-0x4bc4>
    3434:	32015101 	andcc	r5, r1, #1073741824	; 0x40000000
    3438:	0150010a 	cmpeq	r0, sl, lsl #2
    343c:	ac08003f 	stcge	0, cr0, [r8], {63}	; 0x3f
    3440:	a8002015 	stmdage	r0, {r0, r2, r4, sp}
    3444:	09000003 	stmdbeq	r0, {r0, r1}
    3448:	002015bc 	strhteq	r1, [r0], -ip
    344c:	000003c5 	andeq	r0, r0, r5, asr #7
    3450:	00000128 	andeq	r0, r0, r8, lsr #2
    3454:	0250010a 	subseq	r0, r0, #-2147483646	; 0x80000002
    3458:	09000075 	stmdbeq	r0, {r0, r2, r4, r5, r6}
    345c:	002015c8 	eoreq	r1, r0, r8, asr #11
    3460:	000003e6 	andeq	r0, r0, r6, ror #7
    3464:	0000013c 	andeq	r0, r0, ip, lsr r1
    3468:	0250010a 	subseq	r0, r0, #-2147483646	; 0x80000002
    346c:	08000075 	stmdaeq	r0, {r0, r2, r4, r5, r6}
    3470:	002015cc 	eoreq	r1, r0, ip, asr #11
    3474:	000003a8 	andeq	r0, r0, r8, lsr #7
    3478:	2015d809 	andscs	sp, r5, r9, lsl #16
    347c:	0003e600 	andeq	lr, r3, r0, lsl #12
    3480:	00015800 	andeq	r5, r1, r0, lsl #16
    3484:	51010a00 	tstpl	r1, r0, lsl #20
    3488:	09003001 	stmdbeq	r0, {r0, ip, sp}
    348c:	002015e4 	eoreq	r1, r0, r4, ror #11
    3490:	000003e6 	andeq	r0, r0, r6, ror #7
    3494:	0000016b 	andeq	r0, r0, fp, ror #2
    3498:	0151010a 	cmpeq	r1, sl, lsl #2
    349c:	f0090030 			; <UNDEFINED> instruction: 0xf0090030
    34a0:	e6002015 			; <UNDEFINED> instruction: 0xe6002015
    34a4:	7e000003 	cdpvc	0, 0, cr0, cr0, cr3, {0}
    34a8:	0a000001 	beq	34b4 <_start-0x4b4c>
    34ac:	36015101 	strcc	r5, [r1], -r1, lsl #2
    34b0:	15fc0900 	ldrbne	r0, [ip, #2304]!	; 0x900
    34b4:	03e60020 	mvneq	r0, #32
    34b8:	01910000 	orrseq	r0, r1, r0
    34bc:	010a0000 	mrseq	r0, (UNDEF: 10)
    34c0:	00330151 	eorseq	r0, r3, r1, asr r1
    34c4:	20160809 	andscs	r0, r6, r9, lsl #16
    34c8:	0003e600 	andeq	lr, r3, r0, lsl #12
    34cc:	0001a600 	andeq	sl, r1, r0, lsl #12
    34d0:	51010a00 	tstpl	r1, r0, lsl #20
    34d4:	010e0a03 	tsteq	lr, r3, lsl #20
    34d8:	16140900 	ldrne	r0, [r4], -r0, lsl #18
    34dc:	03e60020 	mvneq	r0, #32
    34e0:	01b90000 			; <UNDEFINED> instruction: 0x01b90000
    34e4:	010a0000 	mrseq	r0, (UNDEF: 10)
    34e8:	00330151 	eorseq	r0, r3, r1, asr r1
    34ec:	20161808 	andscs	r1, r6, r8, lsl #16
    34f0:	0003a800 	andeq	sl, r3, r0, lsl #16
    34f4:	1f0b0000 	svcne	0x000b0000
    34f8:	0100000a 	tsteq	r0, sl
    34fc:	00002557 	andeq	r2, r0, r7, asr r5
    3500:	20162400 	andscs	r2, r6, r0, lsl #8
    3504:	00001c00 	andeq	r1, r0, r0, lsl #24
    3508:	e69c0100 	ldr	r0, [ip], r0, lsl #2
    350c:	08000001 	stmdaeq	r0, {r0}
    3510:	00201634 	eoreq	r1, r0, r4, lsr r6
    3514:	000003c5 	andeq	r0, r0, r5, asr #7
    3518:	05170b00 	ldreq	r0, [r7, #-2816]	; 0xb00
    351c:	5d010000 	stcpl	0, cr0, [r1, #-0]
    3520:	00000025 	andeq	r0, r0, r5, lsr #32
    3524:	00201640 	eoreq	r1, r0, r0, asr #12
    3528:	00000028 	andeq	r0, r0, r8, lsr #32
    352c:	02129c01 	andseq	r9, r2, #256	; 0x100
    3530:	48080000 	stmdami	r8, {}	; <UNPREDICTABLE>
    3534:	c3002016 	movwgt	r2, #22
    3538:	08000001 	stmdaeq	r0, {r0}
    353c:	0020165c 	eoreq	r1, r0, ip, asr r6
    3540:	000003c5 	andeq	r0, r0, r5, asr #7
    3544:	0a730b00 	beq	1cc614c <__bss_end__+0x1ac22f4>
    3548:	64010000 	strvs	r0, [r1], #-0
    354c:	00000025 	andeq	r0, r0, r5, lsr #32
    3550:	00201668 	eoreq	r1, r0, r8, ror #12
    3554:	0000001c 	andeq	r0, r0, ip, lsl r0
    3558:	02359c01 	eorseq	r9, r5, #256	; 0x100
    355c:	78080000 	stmdavc	r8, {}	; <UNPREDICTABLE>
    3560:	c5002016 	strgt	r2, [r0, #-22]
    3564:	00000003 	andeq	r0, r0, r3
    3568:	0001bd07 	andeq	fp, r1, r7, lsl #26
    356c:	846a0100 	strbthi	r0, [sl], #-256	; 0x100
    3570:	2c002016 	stccs	0, cr2, [r0], {22}
    3574:	01000000 	mrseq	r0, (UNDEF: 0)
    3578:	0002719c 	muleq	r2, ip, r1
    357c:	00630c00 	rsbeq	r0, r3, r0, lsl #24
    3580:	002c6a01 	eoreq	r6, ip, r1, lsl #20
    3584:	21180000 	tstcs	r8, r0
    3588:	90080000 	andls	r0, r8, r0
    358c:	12002016 	andne	r2, r0, #22
    3590:	0d000002 	stceq	0, cr0, [r0, #-8]
    3594:	002016a8 	eoreq	r1, r0, r8, lsr #13
    3598:	000003e6 	andeq	r0, r0, r6, ror #7
    359c:	0251010a 	subseq	r0, r1, #-2147483646	; 0x80000002
    35a0:	00000074 	andeq	r0, r0, r4, ror r0
    35a4:	000a3d0b 	andeq	r3, sl, fp, lsl #26
    35a8:	25740100 	ldrbcs	r0, [r4, #-256]!	; 0x100
    35ac:	b0000000 	andlt	r0, r0, r0
    35b0:	0c002016 	stceq	0, cr2, [r0], {22}
    35b4:	01000000 	mrseq	r0, (UNDEF: 0)
    35b8:	0002949c 	muleq	r2, ip, r4
    35bc:	16b80800 	ldrtne	r0, [r8], r0, lsl #16
    35c0:	01c30020 	biceq	r0, r3, r0, lsr #32
    35c4:	0b000000 	bleq	35cc <_start-0x4a34>
    35c8:	00000af0 	strdeq	r0, [r0], -r0	; <UNPREDICTABLE>
    35cc:	00257801 	eoreq	r7, r5, r1, lsl #16
    35d0:	16bc0000 	ldrtne	r0, [ip], r0
    35d4:	00200020 	eoreq	r0, r0, r0, lsr #32
    35d8:	9c010000 	stcls	0, cr0, [r1], {-0}
    35dc:	000002c0 	andeq	r0, r0, r0, asr #5
    35e0:	2016c408 	andscs	ip, r6, r8, lsl #8
    35e4:	00027100 	andeq	r7, r2, r0, lsl #2
    35e8:	16d00800 	ldrbne	r0, [r0], r0, lsl #16
    35ec:	01e60020 	mvneq	r0, r0, lsr #32
    35f0:	0e000000 	cdpeq	0, 0, cr0, cr0, cr0, {0}
    35f4:	00000a8d 	andeq	r0, r0, sp, lsl #21
    35f8:	02d11601 	sbcseq	r1, r1, #1048576	; 0x100000
    35fc:	03050000 	movweq	r0, #20480	; 0x5000
    3600:	00201774 	eoreq	r1, r0, r4, ror r7
    3604:	02d7040f 	sbcseq	r0, r7, #251658240	; 0xf000000
    3608:	2c100000 	ldccs	0, cr0, [r0], {-0}
    360c:	0e000000 	cdpeq	0, 0, cr0, cr0, cr0, {0}
    3610:	00000a81 	andeq	r0, r0, r1, lsl #21
    3614:	02d11701 	sbcseq	r1, r1, #262144	; 0x40000
    3618:	03050000 	movweq	r0, #20480	; 0x5000
    361c:	00201744 	eoreq	r1, r0, r4, asr #14
    3620:	000a020e 	andeq	r0, sl, lr, lsl #4
    3624:	d11a0100 	tstle	sl, r0, lsl #2
    3628:	05000002 	streq	r0, [r0, #-2]
    362c:	20176003 	andscs	r6, r7, r3
    3630:	0a550e00 	beq	1546e38 <__bss_end__+0x1342fe0>
    3634:	1b010000 	blne	4363c <_start+0x3b63c>
    3638:	000002d1 	ldrdeq	r0, [r0], -r1
    363c:	174c0305 	strbne	r0, [ip, -r5, lsl #6]
    3640:	640e0020 	strvs	r0, [lr], #-32
    3644:	0100000a 	tsteq	r0, sl
    3648:	0002d11c 	andeq	sp, r2, ip, lsl r1
    364c:	50030500 	andpl	r0, r3, r0, lsl #10
    3650:	0e002017 	mcreq	0, 0, r2, cr0, cr7, {0}
    3654:	00000ad2 	ldrdeq	r0, [r0], -r2
    3658:	02d11d01 	sbcseq	r1, r1, #1, 26	; 0x40
    365c:	03050000 	movweq	r0, #20480	; 0x5000
    3660:	00201754 	eoreq	r1, r0, r4, asr r7
    3664:	0009f30e 	andeq	pc, r9, lr, lsl #6
    3668:	d11e0100 	tstle	lr, r0, lsl #2
    366c:	05000002 	streq	r0, [r0, #-2]
    3670:	20177003 	andscs	r7, r7, r3
    3674:	0ae10e00 	beq	ff846e7c <__bss_end__+0xff643024>
    3678:	1f010000 	svcne	0x00010000
    367c:	000002d1 	ldrdeq	r0, [r0], -r1
    3680:	175c0305 	ldrbne	r0, [ip, -r5, lsl #6]
    3684:	100e0020 	andne	r0, lr, r0, lsr #32
    3688:	0100000a 	tsteq	r0, sl
    368c:	0002d120 	andeq	sp, r2, r0, lsr #2
    3690:	6c030500 	cfstr32vs	mvfx0, [r3], {-0}
    3694:	0e002017 	mcreq	0, 0, r2, cr0, cr7, {0}
    3698:	00000ab5 			; <UNDEFINED> instruction: 0x00000ab5
    369c:	02d12101 	sbcseq	r2, r1, #1073741824	; 0x40000000
    36a0:	03050000 	movweq	r0, #20480	; 0x5000
    36a4:	00201768 	eoreq	r1, r0, r8, ror #14
    36a8:	000a2d0e 	andeq	r2, sl, lr, lsl #26
    36ac:	d1220100 	teqle	r2, r0, lsl #2
    36b0:	05000002 	streq	r0, [r0, #-2]
    36b4:	20174803 	andscs	r4, r7, r3, lsl #16
    36b8:	0aa50e00 	beq	fe946ec0 <__bss_end__+0xfe743068>
    36bc:	23010000 	movwcs	r0, #4096	; 0x1000
    36c0:	000002d1 	ldrdeq	r0, [r0], -r1
    36c4:	17640305 	strbne	r0, [r4, -r5, lsl #6]!
    36c8:	950e0020 	strls	r0, [lr, #-32]
    36cc:	0100000a 	tsteq	r0, sl
    36d0:	0002d124 	andeq	sp, r2, r4, lsr #2
    36d4:	58030500 	stmdapl	r3, {r8, sl}
    36d8:	11002017 	tstne	r0, r7, lsl r0
    36dc:	000007ea 	andeq	r0, r0, sl, ror #15
    36e0:	1d128403 	cfldrsne	mvf8, [r2, #-12]
    36e4:	02000008 	andeq	r0, r0, #8
    36e8:	0003c519 	andeq	ip, r3, r9, lsl r5
    36ec:	002c1300 	eoreq	r1, ip, r0, lsl #6
    36f0:	b2130000 	andslt	r0, r3, #0
    36f4:	00000000 	andeq	r0, r0, r0
    36f8:	0008a914 	andeq	sl, r8, r4, lsl r9
    36fc:	2ca10300 	stccs	3, cr0, [r1]
    3700:	da000000 	ble	3708 <_start-0x48f8>
    3704:	13000003 	movwne	r0, #3
    3708:	000003da 	ldrdeq	r0, [r0], -sl
    370c:	e0040f00 	and	r0, r4, r0, lsl #30
    3710:	15000003 	strne	r0, [r0, #-3]
    3714:	000003e5 	andeq	r0, r0, r5, ror #7
    3718:	073d1216 			; <UNDEFINED> instruction: 0x073d1216
    371c:	95030000 	strls	r0, [r3, #-0]
    3720:	000003fc 	strdeq	r0, [r0], -ip
    3724:	0003fc13 	andeq	pc, r3, r3, lsl ip	; <UNPREDICTABLE>
    3728:	002c1300 	eoreq	r1, ip, r0, lsl #6
    372c:	0f000000 	svceq	0x00000000
    3730:	0003e504 	andeq	lr, r3, r4, lsl #10
	...

Disassembly of section .debug_abbrev:

00000000 <.debug_abbrev>:
       0:	25011101 	strcs	r1, [r1, #-257]	; 0x101
       4:	030b130e 	movweq	r1, #45838	; 0xb30e
       8:	110e1b0e 	tstne	lr, lr, lsl #22
       c:	10061201 	andne	r1, r6, r1, lsl #4
      10:	02000017 	andeq	r0, r0, #23
      14:	0b0b0024 	bleq	2c00ac <__bss_end__+0xbc254>
      18:	08030b3e 	stmdaeq	r3, {r1, r2, r3, r4, r5, r8, r9, fp}
      1c:	24030000 	strcs	r0, [r3], #-0
      20:	3e0b0b00 	vmlacc.f64	d0, d11, d0
      24:	000e030b 	andeq	r0, lr, fp, lsl #6
      28:	00160400 	andseq	r0, r6, r0, lsl #8
      2c:	0b3a0e03 	bleq	e83840 <__bss_end__+0xc7f9e8>
      30:	13490b3b 	movtne	r0, #39739	; 0x9b3b
      34:	0f050000 	svceq	0x00050000
      38:	490b0b00 	stmdbmi	fp, {r8, r9, fp}
      3c:	06000013 			; <UNDEFINED> instruction: 0x06000013
      40:	13490026 	movtne	r0, #36902	; 0x9026
      44:	35070000 	strcc	r0, [r7, #-0]
      48:	00134900 	andseq	r4, r3, r0, lsl #18
      4c:	01130800 	tsteq	r3, r0, lsl #16
      50:	0b3a0b0b 	bleq	e82c84 <__bss_end__+0xc7ee2c>
      54:	13010b3b 	movwne	r0, #6971	; 0x1b3b
      58:	0d090000 	stceq	0, cr0, [r9, #-0]
      5c:	3a080300 	bcc	200c64 <gpio_read+0x30>
      60:	490b3b0b 	stmdbmi	fp, {r0, r1, r3, r8, r9, fp, ip, sp}
      64:	000b3813 	andeq	r3, fp, r3, lsl r8
      68:	000d0a00 	andeq	r0, sp, r0, lsl #20
      6c:	0b3a0e03 	bleq	e83880 <__bss_end__+0xc7fa28>
      70:	13490b3b 	movtne	r0, #39739	; 0x9b3b
      74:	00000b38 	andeq	r0, r0, r8, lsr fp
      78:	0b01040b 	bleq	410ac <_start+0x390ac>
      7c:	3b0b3a0b 	blcc	2ce8b0 <__bss_end__+0xcaa58>
      80:	0013010b 	andseq	r0, r3, fp, lsl #2
      84:	00280c00 	eoreq	r0, r8, r0, lsl #24
      88:	0d1c0e03 	ldceq	14, cr0, [ip, #-12]
      8c:	160d0000 	strne	r0, [sp], -r0
      90:	3a080300 	bcc	200c98 <gpio_write+0x18>
      94:	490b3b0b 	stmdbmi	fp, {r0, r1, r3, r8, r9, fp, ip, sp}
      98:	0e000013 	mcreq	0, 0, r0, cr0, cr3, {0}
      9c:	0e03012e 	adfeqsp	f0, f3, #0.5
      a0:	0b3b0b3a 	bleq	ec2d90 <__bss_end__+0xcbef38>
      a4:	0b201927 	bleq	806548 <__bss_end__+0x6026f0>
      a8:	00001301 	andeq	r1, r0, r1, lsl #6
      ac:	0300050f 	movweq	r0, #1295	; 0x50f
      b0:	3b0b3a08 	blcc	2ce8d8 <__bss_end__+0xcaa80>
      b4:	0013490b 	andseq	r4, r3, fp, lsl #18
      b8:	002e1000 	eoreq	r1, lr, r0
      bc:	0b3a0e03 	bleq	e838d0 <__bss_end__+0xc7fa78>
      c0:	19270b3b 	stmdbne	r7!, {r0, r1, r3, r4, r5, r8, r9, fp}
      c4:	0b201349 	bleq	804df0 <__bss_end__+0x600f98>
      c8:	2e110000 	cdpcs	0, 1, cr0, cr1, cr0, {0}
      cc:	03193f01 	tsteq	r9, #1, 30
      d0:	3b0b3a0e 	blcc	2ce910 <__bss_end__+0xcaab8>
      d4:	1119270b 	tstne	r9, fp, lsl #14
      d8:	40061201 	andmi	r1, r6, r1, lsl #4
      dc:	19429718 	stmdbne	r2, {r3, r4, r8, r9, sl, ip, pc}^
      e0:	00001301 	andeq	r1, r0, r1, lsl #6
      e4:	03000512 	movweq	r0, #1298	; 0x512
      e8:	3b0b3a08 	blcc	2ce910 <__bss_end__+0xcaab8>
      ec:	0213490b 	andseq	r4, r3, #180224	; 0x2c000
      f0:	13000017 	movwne	r0, #23
      f4:	08030034 	stmdaeq	r3, {r2, r4, r5}
      f8:	0b3b0b3a 	bleq	ec2de8 <__bss_end__+0xcbef90>
      fc:	17021349 	strne	r1, [r2, -r9, asr #6]
     100:	1d140000 	ldcne	0, cr0, [r4, #-0]
     104:	11133101 	tstne	r3, r1, lsl #2
     108:	58061201 	stmdapl	r6, {r0, r9, ip}
     10c:	010b590b 	tsteq	fp, fp, lsl #18
     110:	15000013 	strne	r0, [r0, #-19]
     114:	13310005 	teqne	r1, #5
     118:	00000d1c 	andeq	r0, r0, ip, lsl sp
     11c:	01828916 	orreq	r8, r2, r6, lsl r9
     120:	31011101 	tstcc	r1, r1, lsl #2
     124:	17000013 	smladne	r0, r3, r0, r0
     128:	0001828a 	andeq	r8, r1, sl, lsl #5
     12c:	42911802 	addsmi	r1, r1, #131072	; 0x20000
     130:	18000018 	stmdane	r0, {r3, r4}
     134:	1331011d 	teqne	r1, #1073741831	; 0x40000007
     138:	06120111 			; <UNDEFINED> instruction: 0x06120111
     13c:	0b590b58 	bleq	1642ea4 <__bss_end__+0x143f04c>
     140:	05190000 	ldreq	r0, [r9, #-0]
     144:	02133100 	andseq	r3, r3, #0, 2
     148:	1a000017 	bne	1ac <_start-0x7e54>
     14c:	0111010b 	tsteq	r1, fp, lsl #2
     150:	00000612 	andeq	r0, r0, r2, lsl r6
     154:	0300341b 	movweq	r3, #1051	; 0x41b
     158:	3b0b3a08 	blcc	2ce980 <__bss_end__+0xcab28>
     15c:	0213490b 	andseq	r4, r3, #180224	; 0x2c000
     160:	1c000018 	stcne	0, cr0, [r0], {24}
     164:	1331011d 	teqne	r1, #1073741831	; 0x40000007
     168:	17550152 			; <UNDEFINED> instruction: 0x17550152
     16c:	0b590b58 	bleq	1642ed4 <__bss_end__+0x143f07c>
     170:	00001301 	andeq	r1, r0, r1, lsl #6
     174:	3100051d 	tstcc	r0, sp, lsl r5
     178:	00061c13 	andeq	r1, r6, r3, lsl ip
     17c:	00051e00 	andeq	r1, r5, r0, lsl #28
     180:	0b1c1331 	bleq	704e4c <__bss_end__+0x500ff4>
     184:	891f0000 	ldmdbhi	pc, {}	; <UNPREDICTABLE>
     188:	11000182 	smlabbne	r0, r2, r1, r0
     18c:	00133101 	andseq	r3, r3, r1, lsl #2
     190:	00342000 	eorseq	r2, r4, r0
     194:	0b3a0e03 	bleq	e839a8 <__bss_end__+0xc7fb50>
     198:	13490b3b 	movtne	r0, #39739	; 0x9b3b
     19c:	34210000 	strtcc	r0, [r1], #-0
     1a0:	3a080300 	bcc	200da8 <gpio_set_function+0xb0>
     1a4:	490b3b0b 	stmdbmi	fp, {r0, r1, r3, r8, r9, fp, ip, sp}
     1a8:	22000013 	andcs	r0, r0, #19
     1ac:	01018289 	smlabbeq	r1, r9, r2, r8
     1b0:	13310111 	teqne	r1, #1073741828	; 0x40000004
     1b4:	00001301 	andeq	r1, r0, r1, lsl #6
     1b8:	49010123 	stmdbmi	r1, {r0, r1, r5, r8}
     1bc:	00130113 	andseq	r0, r3, r3, lsl r1
     1c0:	00212400 	eoreq	r2, r1, r0, lsl #8
     1c4:	0b2f1349 	bleq	bc4ef0 <__bss_end__+0x9c1098>
     1c8:	34250000 	strtcc	r0, [r5], #-0
     1cc:	3a0e0300 	bcc	380dd4 <__bss_end__+0x17cf7c>
     1d0:	490b3b0b 	stmdbmi	fp, {r0, r1, r3, r8, r9, fp, ip, sp}
     1d4:	00180213 	andseq	r0, r8, r3, lsl r2
     1d8:	012e2600 	teqeq	lr, r0, lsl #12
     1dc:	0e03193f 	mcreq	9, 0, r1, cr3, cr15, {1}
     1e0:	0b3b0b3a 	bleq	ec2ed0 <__bss_end__+0xcbf078>
     1e4:	193c1927 	ldmdbne	ip!, {r0, r1, r2, r5, r8, fp, ip}
     1e8:	00001301 	andeq	r1, r0, r1, lsl #6
     1ec:	49000527 	stmdbmi	r0, {r0, r1, r2, r5, r8, sl}
     1f0:	28000013 	stmdacs	r0, {r0, r1, r4}
     1f4:	193f002e 	ldmdbne	pc!, {r1, r2, r3, r5}	; <UNPREDICTABLE>
     1f8:	0b3a0e03 	bleq	e83a0c <__bss_end__+0xc7fbb4>
     1fc:	19270b3b 	stmdbne	r7!, {r0, r1, r3, r4, r5, r8, r9, fp}
     200:	193c1349 	ldmdbne	ip!, {r0, r3, r6, r8, r9, ip}
     204:	2e290000 	cdpcs	0, 2, cr0, cr9, cr0, {0}
     208:	03193f01 	tsteq	r9, #1, 30
     20c:	3b0b3a0e 	blcc	2cea4c <__bss_end__+0xcabf4>
     210:	4919270b 	ldmdbmi	r9, {r0, r1, r3, r8, r9, sl, sp}
     214:	01193c13 	tsteq	r9, r3, lsl ip
     218:	2a000013 	bcs	26c <_start-0x7d94>
     21c:	193f002e 	ldmdbne	pc!, {r1, r2, r3, r5}	; <UNPREDICTABLE>
     220:	0b3a0e03 	bleq	e83a34 <__bss_end__+0xc7fbdc>
     224:	19270b3b 	stmdbne	r7!, {r0, r1, r3, r4, r5, r8, r9, fp}
     228:	0000193c 	andeq	r1, r0, ip, lsr r9
     22c:	01110100 	tsteq	r1, r0, lsl #2
     230:	0b130e25 	bleq	4c3acc <__bss_end__+0x2bfc74>
     234:	0e1b0e03 	cdpeq	14, 1, cr0, cr11, cr3, {0}
     238:	06120111 			; <UNDEFINED> instruction: 0x06120111
     23c:	00001710 	andeq	r1, r0, r0, lsl r7
     240:	0b002402 	bleq	9250 <_start+0x1250>
     244:	030b3e0b 	movweq	r3, #48651	; 0xbe0b
     248:	03000008 	movweq	r0, #8
     24c:	0b0b0024 	bleq	2c02e4 <__bss_end__+0xbc48c>
     250:	0e030b3e 	vmoveq.16	d3[0], r0
     254:	2e040000 	cdpcs	0, 0, cr0, cr4, cr0, {0}
     258:	03193f01 	tsteq	r9, #1, 30
     25c:	3b0b3a0e 	blcc	2cea9c <__bss_end__+0xcac44>
     260:	1119270b 	tstne	r9, fp, lsl #14
     264:	40061201 	andmi	r1, r6, r1, lsl #4
     268:	19429718 	stmdbne	r2, {r3, r4, r8, r9, sl, ip, pc}^
     26c:	00001301 	andeq	r1, r0, r1, lsl #6
     270:	03003405 	movweq	r3, #1029	; 0x405
     274:	3b0b3a08 	blcc	2cea9c <__bss_end__+0xcac44>
     278:	0213490b 	andseq	r4, r3, #180224	; 0x2c000
     27c:	06000017 			; <UNDEFINED> instruction: 0x06000017
     280:	193f012e 	ldmdbne	pc!, {r1, r2, r3, r5, r8}	; <UNPREDICTABLE>
     284:	0b3a0e03 	bleq	e83a98 <__bss_end__+0xc7fc40>
     288:	19270b3b 	stmdbne	r7!, {r0, r1, r3, r4, r5, r8, r9, fp}
     28c:	06120111 			; <UNDEFINED> instruction: 0x06120111
     290:	42971840 	addsmi	r1, r7, #64, 16	; 0x400000
     294:	00000019 	andeq	r0, r0, r9, lsl r0
     298:	25011101 	strcs	r1, [r1, #-257]	; 0x101
     29c:	030b130e 	movweq	r1, #45838	; 0xb30e
     2a0:	110e1b0e 	tstne	lr, lr, lsl #22
     2a4:	10061201 	andne	r1, r6, r1, lsl #4
     2a8:	02000017 	andeq	r0, r0, #23
     2ac:	0b0b0024 	bleq	2c0344 <__bss_end__+0xbc4ec>
     2b0:	08030b3e 	stmdaeq	r3, {r1, r2, r3, r4, r5, r8, r9, fp}
     2b4:	24030000 	strcs	r0, [r3], #-0
     2b8:	3e0b0b00 	vmlacc.f64	d0, d11, d0
     2bc:	000e030b 	andeq	r0, lr, fp, lsl #6
     2c0:	000f0400 	andeq	r0, pc, r0, lsl #8
     2c4:	13490b0b 	movtne	r0, #39691	; 0x9b0b
     2c8:	26050000 	strcs	r0, [r5], -r0
     2cc:	00134900 	andseq	r4, r3, r0, lsl #18
     2d0:	012e0600 	teqeq	lr, r0, lsl #12
     2d4:	0e03193f 	mcreq	9, 0, r1, cr3, cr15, {1}
     2d8:	0b3b0b3a 	bleq	ec2fc8 <__bss_end__+0xcbf170>
     2dc:	01111927 	tsteq	r1, r7, lsr #18
     2e0:	18400612 	stmdane	r0, {r1, r4, r9, sl}^
     2e4:	01194297 			; <UNDEFINED> instruction: 0x01194297
     2e8:	07000013 	smladeq	r0, r3, r0, r0
     2ec:	01018289 	smlabbeq	r1, r9, r2, r8
     2f0:	13010111 	movwne	r0, #4369	; 0x1111
     2f4:	8a080000 	bhi	2002fc <sw_uart_putc+0x3c>
     2f8:	02000182 	andeq	r0, r0, #-2147483616	; 0x80000020
     2fc:	18429118 	stmdane	r2, {r3, r4, r8, ip, pc}^
     300:	89090000 	stmdbhi	r9, {}	; <UNPREDICTABLE>
     304:	11010182 	smlabbne	r1, r2, r1, r0
     308:	01133101 	tsteq	r3, r1, lsl #2
     30c:	0a000013 	beq	360 <_start-0x7ca0>
     310:	00018289 	andeq	r8, r1, r9, lsl #5
     314:	13310111 	teqne	r1, #1073741828	; 0x40000004
     318:	150b0000 	strne	r0, [fp, #-0]
     31c:	49192701 	ldmdbmi	r9, {r0, r8, r9, sl, sp}
     320:	00130113 	andseq	r0, r3, r3, lsl r1
     324:	00050c00 	andeq	r0, r5, r0, lsl #24
     328:	00001349 	andeq	r1, r0, r9, asr #6
     32c:	0300340d 	movweq	r3, #1037	; 0x40d
     330:	3b0b3a0e 	blcc	2ceb70 <__bss_end__+0xcad18>
     334:	3f13490b 	svccc	0x0013490b
     338:	00193c19 	andseq	r3, r9, r9, lsl ip
     33c:	012e0e00 	teqeq	lr, r0, lsl #28
     340:	0e03193f 	mcreq	9, 0, r1, cr3, cr15, {1}
     344:	0b3b0b3a 	bleq	ec3034 <__bss_end__+0xcbf1dc>
     348:	193c1927 	ldmdbne	ip!, {r0, r1, r2, r5, r8, fp, ip}
     34c:	00001301 	andeq	r1, r0, r1, lsl #6
     350:	3f002e0f 	svccc	0x00002e0f
     354:	3a0e0319 	bcc	380fc0 <__bss_end__+0x17d168>
     358:	270b3b0b 	strcs	r3, [fp, -fp, lsl #22]
     35c:	00193c19 	andseq	r3, r9, r9, lsl ip
     360:	11010000 	mrsne	r0, (UNDEF: 1)
     364:	130e2501 	movwne	r2, #58625	; 0xe501
     368:	1b0e030b 	blne	380f9c <__bss_end__+0x17d144>
     36c:	1117550e 	tstne	r7, lr, lsl #10
     370:	00171001 	andseq	r1, r7, r1
     374:	00240200 	eoreq	r0, r4, r0, lsl #4
     378:	0b3e0b0b 	bleq	f82fac <__bss_end__+0xd7f154>
     37c:	00000803 	andeq	r0, r0, r3, lsl #16
     380:	0b002403 	bleq	9394 <_start+0x1394>
     384:	030b3e0b 	movweq	r3, #48651	; 0xbe0b
     388:	0400000e 	streq	r0, [r0], #-14
     38c:	193f012e 	ldmdbne	pc!, {r1, r2, r3, r5, r8}	; <UNPREDICTABLE>
     390:	0b3a0e03 	bleq	e83ba4 <__bss_end__+0xc7fd4c>
     394:	19270b3b 	stmdbne	r7!, {r0, r1, r3, r4, r5, r8, r9, fp}
     398:	01111349 	tsteq	r1, r9, asr #6
     39c:	18400612 	stmdane	r0, {r1, r4, r9, sl}^
     3a0:	01194297 			; <UNDEFINED> instruction: 0x01194297
     3a4:	05000013 	streq	r0, [r0, #-19]
     3a8:	0e030034 	mcreq	0, 0, r0, cr3, cr4, {1}
     3ac:	0b3b0b3a 	bleq	ec309c <__bss_end__+0xcbf244>
     3b0:	17021349 	strne	r1, [r2, -r9, asr #6]
     3b4:	2e060000 	cdpcs	0, 0, cr0, cr6, cr0, {0}
     3b8:	03193f01 	tsteq	r9, #1, 30
     3bc:	3b0b3a0e 	blcc	2cebfc <__bss_end__+0xcada4>
     3c0:	1119270b 	tstne	r9, fp, lsl #14
     3c4:	40061201 	andmi	r1, r6, r1, lsl #4
     3c8:	19429718 	stmdbne	r2, {r3, r4, r8, r9, sl, ip, pc}^
     3cc:	00001301 	andeq	r1, r0, r1, lsl #6
     3d0:	03003407 	movweq	r3, #1031	; 0x407
     3d4:	3b0b3a0e 	blcc	2cec14 <__bss_end__+0xcadbc>
     3d8:	1c13490b 	ldcne	9, cr4, [r3], {11}
     3dc:	08000006 	stmdaeq	r0, {r1, r2}
     3e0:	0e030034 	mcreq	0, 0, r0, cr3, cr4, {1}
     3e4:	0b3b0b3a 	bleq	ec30d4 <__bss_end__+0xcbf27c>
     3e8:	0b1c1349 	bleq	705114 <__bss_end__+0x5012bc>
     3ec:	89090000 	stmdbhi	r9, {}	; <UNPREDICTABLE>
     3f0:	11000182 	smlabbne	r0, r2, r1, r0
     3f4:	00133101 	andseq	r3, r3, r1, lsl #2
     3f8:	82890a00 	addhi	r0, r9, #0, 20
     3fc:	01110101 	tsteq	r1, r1, lsl #2
     400:	13011331 	movwne	r1, #4913	; 0x1331
     404:	8a0b0000 	bhi	2c040c <__bss_end__+0xbc5b4>
     408:	02000182 	andeq	r0, r0, #-2147483616	; 0x80000020
     40c:	18429118 	stmdane	r2, {r3, r4, r8, ip, pc}^
     410:	890c0000 	stmdbhi	ip, {}	; <UNPREDICTABLE>
     414:	11010182 	smlabbne	r1, r2, r1, r0
     418:	00133101 	andseq	r3, r3, r1, lsl #2
     41c:	00260d00 	eoreq	r0, r6, r0, lsl #26
     420:	00001349 	andeq	r1, r0, r9, asr #6
     424:	3f012e0e 	svccc	0x00012e0e
     428:	3a0e0319 	bcc	381094 <__bss_end__+0x17d23c>
     42c:	270b3b0b 	strcs	r3, [fp, -fp, lsl #22]
     430:	01193c19 	tsteq	r9, r9, lsl ip
     434:	0f000013 	svceq	0x00000013
     438:	13490005 	movtne	r0, #36869	; 0x9005
     43c:	2e100000 	cdpcs	0, 1, cr0, cr0, cr0, {0}
     440:	03193f01 	tsteq	r9, #1, 30
     444:	3b0b3a0e 	blcc	2cec84 <__bss_end__+0xcae2c>
     448:	3c19270b 	ldccc	7, cr2, [r9], {11}
     44c:	00000019 	andeq	r0, r0, r9, lsl r0
     450:	25011101 	strcs	r1, [r1, #-257]	; 0x101
     454:	030b130e 	movweq	r1, #45838	; 0xb30e
     458:	110e1b0e 	tstne	lr, lr, lsl #22
     45c:	10061201 	andne	r1, r6, r1, lsl #4
     460:	02000017 	andeq	r0, r0, #23
     464:	0b0b0024 	bleq	2c04fc <__bss_end__+0xbc6a4>
     468:	08030b3e 	stmdaeq	r3, {r1, r2, r3, r4, r5, r8, r9, fp}
     46c:	24030000 	strcs	r0, [r3], #-0
     470:	3e0b0b00 	vmlacc.f64	d0, d11, d0
     474:	000e030b 	andeq	r0, lr, fp, lsl #6
     478:	012e0400 	teqeq	lr, r0, lsl #8
     47c:	0e03193f 	mcreq	9, 0, r1, cr3, cr15, {1}
     480:	0b3b0b3a 	bleq	ec3170 <__bss_end__+0xcbf318>
     484:	01111927 	tsteq	r1, r7, lsr #18
     488:	18400612 	stmdane	r0, {r1, r4, r9, sl}^
     48c:	01194297 			; <UNDEFINED> instruction: 0x01194297
     490:	05000013 	streq	r0, [r0, #-19]
     494:	0e030005 	cdpeq	0, 0, cr0, cr3, cr5, {0}
     498:	0b3b0b3a 	bleq	ec3188 <__bss_end__+0xcbf330>
     49c:	17021349 	strne	r1, [r2, -r9, asr #6]
     4a0:	2e060000 	cdpcs	0, 0, cr0, cr6, cr0, {0}
     4a4:	03193f01 	tsteq	r9, #1, 30
     4a8:	3b0b3a0e 	blcc	2cece8 <__bss_end__+0xcae90>
     4ac:	4919270b 	ldmdbmi	r9, {r0, r1, r3, r8, r9, sl, sp}
     4b0:	12011113 	andne	r1, r1, #-1073741820	; 0xc0000004
     4b4:	97184006 	ldrls	r4, [r8, -r6]
     4b8:	13011942 	movwne	r1, #6466	; 0x1942
     4bc:	89070000 	stmdbhi	r7, {}	; <UNPREDICTABLE>
     4c0:	11010182 	smlabbne	r1, r2, r1, r0
     4c4:	00133101 	andseq	r3, r3, r1, lsl #2
     4c8:	828a0800 	addhi	r0, sl, #0, 16
     4cc:	18020001 	stmdane	r2, {r0}
     4d0:	00184291 	mulseq	r8, r1, r2
     4d4:	00340900 	eorseq	r0, r4, r0, lsl #18
     4d8:	0b3a0803 	bleq	e824ec <__bss_end__+0xc7e694>
     4dc:	13490b3b 	movtne	r0, #39739	; 0x9b3b
     4e0:	00001802 	andeq	r1, r0, r2, lsl #16
     4e4:	0182890a 	orreq	r8, r2, sl, lsl #18
     4e8:	31011100 	mrscc	r1, (UNDEF: 17)
     4ec:	0b000013 	bleq	540 <_start-0x7ac0>
     4f0:	08030005 	stmdaeq	r3, {r0, r2}
     4f4:	0b3b0b3a 	bleq	ec31e4 <__bss_end__+0xcbf38c>
     4f8:	17021349 	strne	r1, [r2, -r9, asr #6]
     4fc:	0b0c0000 	bleq	300504 <__bss_end__+0xfc6ac>
     500:	12011101 	andne	r1, r1, #1073741824	; 0x40000000
     504:	00130106 	andseq	r0, r3, r6, lsl #2
     508:	00340d00 	eorseq	r0, r4, r0, lsl #26
     50c:	0b3a0803 	bleq	e82520 <__bss_end__+0xc7e6c8>
     510:	13490b3b 	movtne	r0, #39739	; 0x9b3b
     514:	00001702 	andeq	r1, r0, r2, lsl #14
     518:	3f012e0e 	svccc	0x00012e0e
     51c:	3a0e0319 	bcc	381188 <__bss_end__+0x17d330>
     520:	270b3b0b 	strcs	r3, [fp, -fp, lsl #22]
     524:	3c134919 	ldccc	9, cr4, [r3], {25}
     528:	0f000019 	svceq	0x00000019
     52c:	13490005 	movtne	r0, #36869	; 0x9005
     530:	01000000 	mrseq	r0, (UNDEF: 0)
     534:	0e250111 	mcreq	1, 1, r0, cr5, cr1, {0}
     538:	0e030b13 	vmoveq.32	d3[0], r0
     53c:	01110e1b 	tsteq	r1, fp, lsl lr
     540:	17100612 			; <UNDEFINED> instruction: 0x17100612
     544:	24020000 	strcs	r0, [r2], #-0
     548:	3e0b0b00 	vmlacc.f64	d0, d11, d0
     54c:	0008030b 	andeq	r0, r8, fp, lsl #6
     550:	00240300 	eoreq	r0, r4, r0, lsl #6
     554:	0b3e0b0b 	bleq	f83188 <__bss_end__+0xd7f330>
     558:	00000e03 	andeq	r0, r0, r3, lsl #28
     55c:	03001604 	movweq	r1, #1540	; 0x604
     560:	3b0b3a0e 	blcc	2ceda0 <__bss_end__+0xcaf48>
     564:	0013490b 	andseq	r4, r3, fp, lsl #18
     568:	000f0500 	andeq	r0, pc, r0, lsl #10
     56c:	00000b0b 	andeq	r0, r0, fp, lsl #22
     570:	0b000f06 	bleq	4190 <_start-0x3e70>
     574:	0013490b 	andseq	r4, r3, fp, lsl #18
     578:	00260700 	eoreq	r0, r6, r0, lsl #14
     57c:	00001349 	andeq	r1, r0, r9, asr #6
     580:	0b010408 	bleq	415a8 <_start+0x395a8>
     584:	3b0b3a0b 	blcc	2cedb8 <__bss_end__+0xcaf60>
     588:	0013010b 	andseq	r0, r3, fp, lsl #2
     58c:	00280900 	eoreq	r0, r8, r0, lsl #18
     590:	0d1c0e03 	ldceq	14, cr0, [ip, #-12]
     594:	130a0000 	movwne	r0, #40960	; 0xa000
     598:	3a050b01 	bcc	1431a4 <_start+0x13b1a4>
     59c:	010b3b0b 	tsteq	fp, fp, lsl #22
     5a0:	0b000013 	bleq	5f4 <_start-0x7a0c>
     5a4:	0e03000d 	cdpeq	0, 0, cr0, cr3, cr13, {0}
     5a8:	0b3b0b3a 	bleq	ec3298 <__bss_end__+0xcbf440>
     5ac:	0b381349 	bleq	e052d8 <__bss_end__+0xc01480>
     5b0:	0d0c0000 	stceq	0, cr0, [ip, #-0]
     5b4:	3a0e0300 	bcc	3811bc <__bss_end__+0x17d364>
     5b8:	490b3b0b 	stmdbmi	fp, {r0, r1, r3, r8, r9, fp, ip, sp}
     5bc:	00053813 	andeq	r3, r5, r3, lsl r8
     5c0:	000d0d00 	andeq	r0, sp, r0, lsl #26
     5c4:	0b3a0e03 	bleq	e83dd8 <__bss_end__+0xc7ff80>
     5c8:	13490b3b 	movtne	r0, #39739	; 0x9b3b
     5cc:	0b0d0b0b 	bleq	343200 <__bss_end__+0x13f3a8>
     5d0:	05380b0c 	ldreq	r0, [r8, #-2828]!	; 0xb0c
     5d4:	010e0000 	mrseq	r0, (UNDEF: 14)
     5d8:	01134901 	tsteq	r3, r1, lsl #18
     5dc:	0f000013 	svceq	0x00000013
     5e0:	13490021 	movtne	r0, #36897	; 0x9021
     5e4:	0000052f 	andeq	r0, r0, pc, lsr #10
     5e8:	49003510 	stmdbmi	r0, {r4, r8, sl, ip, sp}
     5ec:	11000013 	tstne	r0, r3, lsl r0
     5f0:	0b0b0113 	bleq	2c0a44 <__bss_end__+0xbcbec>
     5f4:	0b3b0b3a 	bleq	ec32e4 <__bss_end__+0xcbf48c>
     5f8:	00001301 	andeq	r1, r0, r1, lsl #6
     5fc:	03000d12 	movweq	r0, #3346	; 0xd12
     600:	3b0b3a08 	blcc	2cee28 <__bss_end__+0xcafd0>
     604:	3813490b 	ldmdacc	r3, {r0, r1, r3, r8, fp, lr}
     608:	1300000b 	movwne	r0, #11
     60c:	0e030113 	mcreq	1, 0, r0, cr3, cr3, {0}
     610:	0b3a0b0b 	bleq	e83244 <__bss_end__+0xc7f3ec>
     614:	13010b3b 	movwne	r0, #6971	; 0x1b3b
     618:	0d140000 	ldceq	0, cr0, [r4, #-0]
     61c:	490e0300 	stmdbmi	lr, {r8, r9}
     620:	340b3813 	strcc	r3, [fp], #-2067	; 0x813
     624:	15000019 	strne	r0, [r0, #-25]
     628:	0e03012e 	adfeqsp	f0, f3, #0.5
     62c:	0b3b0b3a 	bleq	ec331c <__bss_end__+0xcbf4c4>
     630:	13491927 	movtne	r1, #39207	; 0x9927
     634:	13010b20 	movwne	r0, #6944	; 0x1b20
     638:	05160000 	ldreq	r0, [r6, #-0]
     63c:	3a080300 	bcc	201244 <emit+0x158>
     640:	490b3b0b 	stmdbmi	fp, {r0, r1, r3, r8, r9, fp, ip, sp}
     644:	17000013 	smladne	r0, r3, r0, r0
     648:	0e03012e 	adfeqsp	f0, f3, #0.5
     64c:	0b3b0b3a 	bleq	ec333c <__bss_end__+0xcbf4e4>
     650:	0b201927 	bleq	806af4 <__bss_end__+0x602c9c>
     654:	00001301 	andeq	r1, r0, r1, lsl #6
     658:	03000518 	movweq	r0, #1304	; 0x518
     65c:	3b0b3a0e 	blcc	2cee9c <__bss_end__+0xcb044>
     660:	0013490b 	andseq	r4, r3, fp, lsl #18
     664:	010b1900 	tsteq	fp, r0, lsl #18
     668:	341a0000 	ldrcc	r0, [sl], #-0
     66c:	3a0e0300 	bcc	381274 <__bss_end__+0x17d41c>
     670:	490b3b0b 	stmdbmi	fp, {r0, r1, r3, r8, r9, fp, ip, sp}
     674:	1b000013 	blne	6c8 <_start-0x7938>
     678:	193f012e 	ldmdbne	pc!, {r1, r2, r3, r5, r8}	; <UNPREDICTABLE>
     67c:	0b3a0e03 	bleq	e83e90 <__bss_end__+0xc80038>
     680:	19270b3b 	stmdbne	r7!, {r0, r1, r3, r4, r5, r8, r9, fp}
     684:	06120111 			; <UNDEFINED> instruction: 0x06120111
     688:	42971840 	addsmi	r1, r7, #64, 16	; 0x400000
     68c:	00130119 	andseq	r0, r3, r9, lsl r1
     690:	00051c00 	andeq	r1, r5, r0, lsl #24
     694:	0b3a0e03 	bleq	e83ea8 <__bss_end__+0xc80050>
     698:	13490b3b 	movtne	r0, #39739	; 0x9b3b
     69c:	00001702 	andeq	r1, r0, r2, lsl #14
     6a0:	0300051d 	movweq	r0, #1309	; 0x51d
     6a4:	3b0b3a08 	blcc	2ceecc <__bss_end__+0xcb074>
     6a8:	0213490b 	andseq	r4, r3, #180224	; 0x2c000
     6ac:	1e000017 	mcrne	0, 0, r0, cr0, cr7, {0}
     6b0:	08030034 	stmdaeq	r3, {r2, r4, r5}
     6b4:	0b3b0b3a 	bleq	ec33a4 <__bss_end__+0xcbf54c>
     6b8:	18021349 	stmdane	r2, {r0, r3, r6, r8, r9, ip}
     6bc:	341f0000 	ldrcc	r0, [pc], #-0	; 6c4 <_start-0x793c>
     6c0:	3a080300 	bcc	2012c8 <rpi_set_output+0x44>
     6c4:	490b3b0b 	stmdbmi	fp, {r0, r1, r3, r8, r9, fp, ip, sp}
     6c8:	00170213 	andseq	r0, r7, r3, lsl r2
     6cc:	010b2000 	mrseq	r2, (UNDEF: 11)
     6d0:	06120111 			; <UNDEFINED> instruction: 0x06120111
     6d4:	00001301 	andeq	r1, r0, r1, lsl #6
     6d8:	03003421 	movweq	r3, #1057	; 0x421
     6dc:	3b0b3a0e 	blcc	2cef1c <__bss_end__+0xcb0c4>
     6e0:	0213490b 	andseq	r4, r3, #180224	; 0x2c000
     6e4:	22000018 	andcs	r0, r0, #24
     6e8:	1331011d 	teqne	r1, #1073741831	; 0x40000007
     6ec:	06120111 			; <UNDEFINED> instruction: 0x06120111
     6f0:	0b590b58 	bleq	1643458 <__bss_end__+0x143f600>
     6f4:	00001301 	andeq	r1, r0, r1, lsl #6
     6f8:	31000523 	tstcc	r0, r3, lsr #10
     6fc:	00170213 	andseq	r0, r7, r3, lsl r2
     700:	00052400 	andeq	r2, r5, r0, lsl #8
     704:	18021331 	stmdane	r2, {r0, r4, r5, r8, r9, ip}
     708:	05250000 	streq	r0, [r5, #-0]!
     70c:	1c133100 	ldfnes	f3, [r3], {-0}
     710:	2600000b 	strcs	r0, [r0], -fp
     714:	0111010b 	tsteq	r1, fp, lsl #2
     718:	00000612 	andeq	r0, r0, r2, lsl r6
     71c:	31003427 	tstcc	r0, r7, lsr #8
     720:	00170213 	andseq	r0, r7, r3, lsl r2
     724:	82892800 	addhi	r2, r9, #0, 16
     728:	01110101 	tsteq	r1, r1, lsl #2
     72c:	00001331 	andeq	r1, r0, r1, lsr r3
     730:	01828a29 	orreq	r8, r2, r9, lsr #20
     734:	91180200 	tstls	r8, r0, lsl #4
     738:	00001842 	andeq	r1, r0, r2, asr #16
     73c:	31011d2a 	tstcc	r1, sl, lsr #26
     740:	12011113 	andne	r1, r1, #-1073741820	; 0xc0000004
     744:	590b5806 	stmdbpl	fp, {r1, r2, fp, ip, lr}
     748:	2b00000b 	blcs	77c <_start-0x7884>
     74c:	193f012e 	ldmdbne	pc!, {r1, r2, r3, r5, r8}	; <UNPREDICTABLE>
     750:	0b3a0e03 	bleq	e83f64 <__bss_end__+0xc8010c>
     754:	19270b3b 	stmdbne	r7!, {r0, r1, r3, r4, r5, r8, r9, fp}
     758:	01111349 	tsteq	r1, r9, asr #6
     75c:	18400612 	stmdane	r0, {r1, r4, r9, sl}^
     760:	01194297 			; <UNDEFINED> instruction: 0x01194297
     764:	2c000013 	stccs	0, cr0, [r0], {19}
     768:	0e030034 	mcreq	0, 0, r0, cr3, cr4, {1}
     76c:	0b3b0b3a 	bleq	ec345c <__bss_end__+0xcbf604>
     770:	17021349 	strne	r1, [r2, -r9, asr #6]
     774:	052d0000 	streq	r0, [sp, #-0]!
     778:	00133100 	andseq	r3, r3, r0, lsl #2
     77c:	82892e00 	addhi	r2, r9, #0, 28
     780:	01110101 	tsteq	r1, r1, lsl #2
     784:	13011331 	movwne	r1, #4913	; 0x1331
     788:	052f0000 	streq	r0, [pc, #-0]!	; 790 <_start-0x7870>
     78c:	3a0e0300 	bcc	381394 <__bss_end__+0x17d53c>
     790:	490b3b0b 	stmdbmi	fp, {r0, r1, r3, r8, r9, fp, ip, sp}
     794:	00180213 	andseq	r0, r8, r3, lsl r2
     798:	00343000 	eorseq	r3, r4, r0
     79c:	13490e03 	movtne	r0, #40451	; 0x9e03
     7a0:	18021934 	stmdane	r2, {r2, r4, r5, r8, fp, ip}
     7a4:	89310000 	ldmdbhi	r1!, {}	; <UNPREDICTABLE>
     7a8:	11000182 	smlabbne	r0, r2, r1, r0
     7ac:	00133101 	andseq	r3, r3, r1, lsl #2
     7b0:	00213200 	eoreq	r3, r1, r0, lsl #4
     7b4:	0b2f1349 	bleq	bc54e0 <__bss_end__+0x9c1688>
     7b8:	34330000 	ldrtcc	r0, [r3], #-0
     7bc:	3a080300 	bcc	2013c4 <va_printk+0xf0>
     7c0:	490b3b0b 	stmdbmi	fp, {r0, r1, r3, r8, r9, fp, ip, sp}
     7c4:	00061c13 	andeq	r1, r6, r3, lsl ip
     7c8:	00343400 	eorseq	r3, r4, r0, lsl #8
     7cc:	0b3a0803 	bleq	e827e0 <__bss_end__+0xc7e988>
     7d0:	13490b3b 	movtne	r0, #39739	; 0x9b3b
     7d4:	00000b1c 	andeq	r0, r0, ip, lsl fp
     7d8:	03000535 	movweq	r0, #1333	; 0x535
     7dc:	3b0b3a08 	blcc	2cf004 <__bss_end__+0xcb1ac>
     7e0:	0213490b 	andseq	r4, r3, #180224	; 0x2c000
     7e4:	36000018 			; <UNDEFINED> instruction: 0x36000018
     7e8:	00000018 	andeq	r0, r0, r8, lsl r0
     7ec:	31011d37 	tstcc	r1, r7, lsr sp
     7f0:	55015213 	strpl	r5, [r1, #-531]	; 0x213
     7f4:	590b5817 	stmdbpl	fp, {r0, r1, r2, r4, fp, ip, lr}
     7f8:	0013010b 	andseq	r0, r3, fp, lsl #2
     7fc:	00343800 	eorseq	r3, r4, r0, lsl #16
     800:	0b3a0e03 	bleq	e84014 <__bss_end__+0xc801bc>
     804:	13490b3b 	movtne	r0, #39739	; 0x9b3b
     808:	1802193f 	stmdane	r2, {r0, r1, r2, r3, r4, r5, r8, fp, ip}
     80c:	2e390000 	cdpcs	0, 3, cr0, cr9, cr0, {0}
     810:	03193f01 	tsteq	r9, #1, 30
     814:	3b0b3a0e 	blcc	2cf054 <__bss_end__+0xcb1fc>
     818:	3c19270b 	ldccc	7, cr2, [r9], {11}
     81c:	00130119 	andseq	r0, r3, r9, lsl r1
     820:	00053a00 	andeq	r3, r5, r0, lsl #20
     824:	00001349 	andeq	r1, r0, r9, asr #6
     828:	3f012e3b 	svccc	0x00012e3b
     82c:	3a0e0319 	bcc	381498 <__bss_end__+0x17d640>
     830:	270b3b0b 	strcs	r3, [fp, -fp, lsl #22]
     834:	3c134919 	ldccc	9, cr4, [r3], {25}
     838:	00130119 	andseq	r0, r3, r9, lsl r1
     83c:	002e3c00 	eoreq	r3, lr, r0, lsl #24
     840:	0e03193f 	mcreq	9, 0, r1, cr3, cr15, {1}
     844:	0b3b0b3a 	bleq	ec3534 <__bss_end__+0xcbf6dc>
     848:	193c1927 	ldmdbne	ip!, {r0, r1, r2, r5, r8, fp, ip}
     84c:	2e3d0000 	cdpcs	0, 3, cr0, cr13, cr0, {0}
     850:	03193f00 	tsteq	r9, #0, 30
     854:	3b0b3a0e 	blcc	2cf094 <__bss_end__+0xcb23c>
     858:	4919270b 	ldmdbmi	r9, {r0, r1, r3, r8, r9, sl, sp}
     85c:	00193c13 	andseq	r3, r9, r3, lsl ip
     860:	11010000 	mrsne	r0, (UNDEF: 1)
     864:	130e2501 	movwne	r2, #58625	; 0xe501
     868:	1b0e030b 	blne	38149c <__bss_end__+0x17d644>
     86c:	1201110e 	andne	r1, r1, #-2147483645	; 0x80000003
     870:	00171006 	andseq	r1, r7, r6
     874:	00240200 	eoreq	r0, r4, r0, lsl #4
     878:	0b3e0b0b 	bleq	f834ac <__bss_end__+0xd7f654>
     87c:	00000e03 	andeq	r0, r0, r3, lsl #28
     880:	0b002403 	bleq	9894 <_start+0x1894>
     884:	030b3e0b 	movweq	r3, #48651	; 0xbe0b
     888:	04000008 	streq	r0, [r0], #-8
     88c:	0b0b0104 	bleq	2c0ca4 <__bss_end__+0xbce4c>
     890:	0b3b0b3a 	bleq	ec3580 <__bss_end__+0xcbf728>
     894:	00001301 	andeq	r1, r0, r1, lsl #6
     898:	03002805 	movweq	r2, #2053	; 0x805
     89c:	000d1c0e 	andeq	r1, sp, lr, lsl #24
     8a0:	00160600 	andseq	r0, r6, r0, lsl #12
     8a4:	0b3a0e03 	bleq	e840b8 <__bss_end__+0xc80260>
     8a8:	13490b3b 	movtne	r0, #39739	; 0x9b3b
     8ac:	2e070000 	cdpcs	0, 0, cr0, cr7, cr0, {0}
     8b0:	03193f01 	tsteq	r9, #1, 30
     8b4:	3b0b3a0e 	blcc	2cf0f4 <__bss_end__+0xcb29c>
     8b8:	1119270b 	tstne	r9, fp, lsl #14
     8bc:	40061201 	andmi	r1, r6, r1, lsl #4
     8c0:	19429718 	stmdbne	r2, {r3, r4, r8, r9, sl, ip, pc}^
     8c4:	00001301 	andeq	r1, r0, r1, lsl #6
     8c8:	03000508 	movweq	r0, #1288	; 0x508
     8cc:	3b0b3a08 	blcc	2cf0f4 <__bss_end__+0xcb29c>
     8d0:	0213490b 	andseq	r4, r3, #180224	; 0x2c000
     8d4:	09000017 	stmdbeq	r0, {r0, r1, r2, r4}
     8d8:	0e030034 	mcreq	0, 0, r0, cr3, cr4, {1}
     8dc:	0b3b0b3a 	bleq	ec35cc <__bss_end__+0xcbf774>
     8e0:	17021349 	strne	r1, [r2, -r9, asr #6]
     8e4:	890a0000 	stmdbhi	sl, {}	; <UNPREDICTABLE>
     8e8:	11010182 	smlabbne	r1, r2, r1, r0
     8ec:	01133101 	tsteq	r3, r1, lsl #2
     8f0:	0b000013 	bleq	944 <_start-0x76bc>
     8f4:	0001828a 	andeq	r8, r1, sl, lsl #5
     8f8:	42911802 	addsmi	r1, r1, #131072	; 0x20000
     8fc:	0c000018 	stceq	0, cr0, [r0], {24}
     900:	01018289 	smlabbeq	r1, r9, r2, r8
     904:	13310111 	teqne	r1, #1073741828	; 0x40000004
     908:	0f0d0000 	svceq	0x000d0000
     90c:	490b0b00 	stmdbmi	fp, {r8, r9, fp}
     910:	0e000013 	mcreq	0, 0, r0, cr0, cr3, {0}
     914:	13490035 	movtne	r0, #36917	; 0x9035
     918:	2e0f0000 	cdpcs	0, 0, cr0, cr15, cr0, {0}
     91c:	03193f01 	tsteq	r9, #1, 30
     920:	3b0b3a0e 	blcc	2cf160 <__bss_end__+0xcb308>
     924:	2019270b 	andscs	r2, r9, fp, lsl #14
     928:	0013010b 	andseq	r0, r3, fp, lsl #2
     92c:	00051000 	andeq	r1, r5, r0
     930:	0b3a0803 	bleq	e82944 <__bss_end__+0xc7eaec>
     934:	13490b3b 	movtne	r0, #39739	; 0x9b3b
     938:	34110000 	ldrcc	r0, [r1], #-0
     93c:	3a0e0300 	bcc	381544 <__bss_end__+0x17d6ec>
     940:	490b3b0b 	stmdbmi	fp, {r0, r1, r3, r8, r9, fp, ip, sp}
     944:	12000013 	andne	r0, r0, #19
     948:	1331012e 	teqne	r1, #-2147483637	; 0x8000000b
     94c:	06120111 			; <UNDEFINED> instruction: 0x06120111
     950:	42971840 	addsmi	r1, r7, #64, 16	; 0x400000
     954:	00130119 	andseq	r0, r3, r9, lsl r1
     958:	00051300 	andeq	r1, r5, r0, lsl #6
     95c:	17021331 	smladxne	r2, r1, r3, r1
     960:	34140000 	ldrcc	r0, [r4], #-0
     964:	02133100 	andseq	r3, r3, #0, 2
     968:	15000017 	strne	r0, [r0, #-23]
     96c:	193f012e 	ldmdbne	pc!, {r1, r2, r3, r5, r8}	; <UNPREDICTABLE>
     970:	0b3a0e03 	bleq	e84184 <__bss_end__+0xc8032c>
     974:	19270b3b 	stmdbne	r7!, {r0, r1, r3, r4, r5, r8, r9, fp}
     978:	01111349 	tsteq	r1, r9, asr #6
     97c:	18400612 	stmdane	r0, {r1, r4, r9, sl}^
     980:	01194297 			; <UNDEFINED> instruction: 0x01194297
     984:	16000013 			; <UNDEFINED> instruction: 0x16000013
     988:	08030034 	stmdaeq	r3, {r2, r4, r5}
     98c:	0b3b0b3a 	bleq	ec367c <__bss_end__+0xcbf824>
     990:	17021349 	strne	r1, [r2, -r9, asr #6]
     994:	89170000 	ldmdbhi	r7, {}	; <UNPREDICTABLE>
     998:	11000182 	smlabbne	r0, r2, r1, r0
     99c:	00133101 	andseq	r3, r3, r1, lsl #2
     9a0:	011d1800 	tsteq	sp, r0, lsl #16
     9a4:	01111331 	tsteq	r1, r1, lsr r3
     9a8:	0b580612 	bleq	16021f8 <__bss_end__+0x13fe3a0>
     9ac:	13010b59 	movwne	r0, #7001	; 0x1b59
     9b0:	0b190000 	bleq	6409b8 <__bss_end__+0x43cb60>
     9b4:	12011101 	andne	r1, r1, #1073741824	; 0x40000000
     9b8:	1a000006 	bne	9d8 <_start-0x7628>
     9bc:	1331011d 	teqne	r1, #1073741831	; 0x40000007
     9c0:	06120111 			; <UNDEFINED> instruction: 0x06120111
     9c4:	0b590b58 	bleq	164372c <__bss_end__+0x143f8d4>
     9c8:	051b0000 	ldreq	r0, [fp, #-0]
     9cc:	3a0e0300 	bcc	3815d4 <__bss_end__+0x17d77c>
     9d0:	490b3b0b 	stmdbmi	fp, {r0, r1, r3, r8, r9, fp, ip, sp}
     9d4:	00170213 	andseq	r0, r7, r3, lsl r2
     9d8:	012e1c00 	teqeq	lr, r0, lsl #24
     9dc:	0e03193f 	mcreq	9, 0, r1, cr3, cr15, {1}
     9e0:	053b0b3a 	ldreq	r0, [fp, #-2874]!	; 0xb3a
     9e4:	13491927 	movtne	r1, #39207	; 0x9927
     9e8:	06120111 			; <UNDEFINED> instruction: 0x06120111
     9ec:	42971840 	addsmi	r1, r7, #64, 16	; 0x400000
     9f0:	00130119 	andseq	r0, r3, r9, lsl r1
     9f4:	00051d00 	andeq	r1, r5, r0, lsl #26
     9f8:	0b3a0e03 	bleq	e8420c <__bss_end__+0xc803b4>
     9fc:	1349053b 	movtne	r0, #38203	; 0x953b
     a00:	00001702 	andeq	r1, r0, r2, lsl #14
     a04:	3f012e1e 	svccc	0x00012e1e
     a08:	3a0e0319 	bcc	381674 <__bss_end__+0x17d81c>
     a0c:	27053b0b 	strcs	r3, [r5, -fp, lsl #22]
     a10:	12011119 	andne	r1, r1, #1073741830	; 0x40000006
     a14:	97184006 	ldrls	r4, [r8, -r6]
     a18:	13011942 	movwne	r1, #6466	; 0x1942
     a1c:	051f0000 	ldreq	r0, [pc, #-0]	; a24 <_start-0x75dc>
     a20:	3a080300 	bcc	201628 <uart_can_getc+0x4>
     a24:	49053b0b 	stmdbmi	r5, {r0, r1, r3, r8, r9, fp, ip, sp}
     a28:	00170213 	andseq	r0, r7, r3, lsl r2
     a2c:	00342000 	eorseq	r2, r4, r0
     a30:	0b3a0e03 	bleq	e84244 <__bss_end__+0xc803ec>
     a34:	1349053b 	movtne	r0, #38203	; 0x953b
     a38:	00001702 	andeq	r1, r0, r2, lsl #14
     a3c:	11010b21 	tstne	r1, r1, lsr #22
     a40:	01061201 	tsteq	r6, r1, lsl #4
     a44:	22000013 	andcs	r0, r0, #19
     a48:	0e030034 	mcreq	0, 0, r0, cr3, cr4, {1}
     a4c:	0b3b0b3a 	bleq	ec373c <__bss_end__+0xcbf8e4>
     a50:	193f1349 	ldmdbne	pc!, {r0, r3, r6, r8, r9, ip}	; <UNPREDICTABLE>
     a54:	00001802 	andeq	r1, r0, r2, lsl #16
     a58:	3f012e23 	svccc	0x00012e23
     a5c:	3a0e0319 	bcc	3816c8 <__bss_end__+0x17d870>
     a60:	270b3b0b 	strcs	r3, [fp, -fp, lsl #22]
     a64:	3c134919 	ldccc	9, cr4, [r3], {25}
     a68:	00130119 	andseq	r0, r3, r9, lsl r1
     a6c:	00052400 	andeq	r2, r5, r0, lsl #8
     a70:	00001349 	andeq	r1, r0, r9, asr #6
     a74:	49002625 	stmdbmi	r0, {r0, r2, r5, r9, sl, sp}
     a78:	26000013 			; <UNDEFINED> instruction: 0x26000013
     a7c:	00000035 	andeq	r0, r0, r5, lsr r0
     a80:	3f012e27 	svccc	0x00012e27
     a84:	3a0e0319 	bcc	3816f0 <__bss_end__+0x17d898>
     a88:	270b3b0b 	strcs	r3, [fp, -fp, lsl #22]
     a8c:	01193c19 	tsteq	r9, r9, lsl ip
     a90:	28000013 	stmdacs	r0, {r0, r1, r4}
     a94:	193f002e 	ldmdbne	pc!, {r1, r2, r3, r5}	; <UNPREDICTABLE>
     a98:	0b3a0e03 	bleq	e842ac <__bss_end__+0xc80454>
     a9c:	19270b3b 	stmdbne	r7!, {r0, r1, r3, r4, r5, r8, r9, fp}
     aa0:	0000193c 	andeq	r1, r0, ip, lsr r9
     aa4:	01110100 	tsteq	r1, r0, lsl #2
     aa8:	0b130e25 	bleq	4c4344 <__bss_end__+0x2c04ec>
     aac:	0e1b0e03 	cdpeq	14, 1, cr0, cr11, cr3, {0}
     ab0:	06120111 			; <UNDEFINED> instruction: 0x06120111
     ab4:	00001710 	andeq	r1, r0, r0, lsl r7
     ab8:	03001602 	movweq	r1, #1538	; 0x602
     abc:	3b0b3a0e 	blcc	2cf2fc <__bss_end__+0xcb4a4>
     ac0:	0013490b 	andseq	r4, r3, fp, lsl #18
     ac4:	01130300 	tsteq	r3, r0, lsl #6
     ac8:	0b0b0e03 	bleq	2c42dc <__bss_end__+0xc0484>
     acc:	0b3b0b3a 	bleq	ec37bc <__bss_end__+0xcbf964>
     ad0:	00001301 	andeq	r1, r0, r1, lsl #6
     ad4:	03000d04 	movweq	r0, #3332	; 0xd04
     ad8:	3813490e 	ldmdacc	r3, {r1, r2, r3, r8, fp, lr}
     adc:	0019340b 	andseq	r3, r9, fp, lsl #8
     ae0:	000f0500 	andeq	r0, pc, r0, lsl #10
     ae4:	00000b0b 	andeq	r0, r0, fp, lsl #22
     ae8:	0b002406 	bleq	9b08 <_start+0x1b08>
     aec:	030b3e0b 	movweq	r3, #48651	; 0xbe0b
     af0:	07000008 	streq	r0, [r0, -r8]
     af4:	0b0b0024 	bleq	2c0b8c <__bss_end__+0xbcd34>
     af8:	0e030b3e 	vmoveq.16	d3[0], r0
     afc:	0f080000 	svceq	0x00080000
     b00:	490b0b00 	stmdbmi	fp, {r8, r9, fp}
     b04:	09000013 	stmdbeq	r0, {r0, r1, r4}
     b08:	13490026 	movtne	r0, #36902	; 0x9026
     b0c:	2e0a0000 	cdpcs	0, 0, cr0, cr10, cr0, {0}
     b10:	03193f01 	tsteq	r9, #1, 30
     b14:	3b0b3a0e 	blcc	2cf354 <__bss_end__+0xcb4fc>
     b18:	4919270b 	ldmdbmi	r9, {r0, r1, r3, r8, r9, sl, sp}
     b1c:	12011113 	andne	r1, r1, #-1073741820	; 0xc0000004
     b20:	97184006 	ldrls	r4, [r8, -r6]
     b24:	13011942 	movwne	r1, #6466	; 0x1942
     b28:	050b0000 	streq	r0, [fp, #-0]
     b2c:	3a080300 	bcc	201734 <gpio_set0>
     b30:	490b3b0b 	stmdbmi	fp, {r0, r1, r3, r8, r9, fp, ip, sp}
     b34:	00180213 	andseq	r0, r8, r3, lsl r2
     b38:	00180c00 	andseq	r0, r8, r0, lsl #24
     b3c:	340d0000 	strcc	r0, [sp], #-0
     b40:	3a080300 	bcc	201748 <AUX_MU_CNTL_REG>
     b44:	490b3b0b 	stmdbmi	fp, {r0, r1, r3, r8, r9, fp, ip, sp}
     b48:	00180213 	andseq	r0, r8, r3, lsl r2
     b4c:	00340e00 	eorseq	r0, r4, r0, lsl #28
     b50:	0b3a0e03 	bleq	e84364 <__bss_end__+0xc8050c>
     b54:	13490b3b 	movtne	r0, #39739	; 0x9b3b
     b58:	00001802 	andeq	r1, r0, r2, lsl #16
     b5c:	0300340f 	movweq	r3, #1039	; 0x40f
     b60:	3b0b3a08 	blcc	2cf388 <__bss_end__+0xcb530>
     b64:	0213490b 	andseq	r4, r3, #180224	; 0x2c000
     b68:	10000017 	andne	r0, r0, r7, lsl r0
     b6c:	01018289 	smlabbeq	r1, r9, r2, r8
     b70:	13310111 	teqne	r1, #1073741828	; 0x40000004
     b74:	00001301 	andeq	r1, r0, r1, lsl #6
     b78:	01828a11 	orreq	r8, r2, r1, lsl sl
     b7c:	91180200 	tstls	r8, r0, lsl #4
     b80:	00001842 	andeq	r1, r0, r2, asr #16
     b84:	01828912 	orreq	r8, r2, r2, lsl r9
     b88:	00011101 	andeq	r1, r1, r1, lsl #2
     b8c:	01011300 	mrseq	r1, SP_irq
     b90:	13011349 	movwne	r1, #4937	; 0x1349
     b94:	21140000 	tstcs	r4, r0
     b98:	2f134900 	svccs	0x00134900
     b9c:	15000005 	strne	r0, [r0, #-5]
     ba0:	19270115 	stmdbne	r7!, {r0, r2, r4, r8}
     ba4:	13011349 	movwne	r1, #4937	; 0x1349
     ba8:	05160000 	ldreq	r0, [r6, #-0]
     bac:	00134900 	andseq	r4, r3, r0, lsl #18
     bb0:	00341700 	eorseq	r1, r4, r0, lsl #14
     bb4:	0b3a0e03 	bleq	e843c8 <__bss_end__+0xc80570>
     bb8:	13490b3b 	movtne	r0, #39739	; 0x9b3b
     bbc:	193c193f 	ldmdbne	ip!, {r0, r1, r2, r3, r4, r5, r8, fp, ip}
     bc0:	2e180000 	cdpcs	0, 1, cr0, cr8, cr0, {0}
     bc4:	03193f01 	tsteq	r9, #1, 30
     bc8:	3b0b3a0e 	blcc	2cf408 <__bss_end__+0xcb5b0>
     bcc:	4919270b 	ldmdbmi	r9, {r0, r1, r3, r8, r9, sl, sp}
     bd0:	00193c13 	andseq	r3, r9, r3, lsl ip
     bd4:	11010000 	mrsne	r0, (UNDEF: 1)
     bd8:	130e2501 	movwne	r2, #58625	; 0xe501
     bdc:	1b0e030b 	blne	381810 <__bss_end__+0x17d9b8>
     be0:	1201110e 	andne	r1, r1, #-2147483645	; 0x80000003
     be4:	00171006 	andseq	r1, r7, r6
     be8:	00240200 	eoreq	r0, r4, r0, lsl #4
     bec:	0b3e0b0b 	bleq	f83820 <__bss_end__+0xd7f9c8>
     bf0:	00000803 	andeq	r0, r0, r3, lsl #16
     bf4:	0b002403 	bleq	9c08 <_start+0x1c08>
     bf8:	030b3e0b 	movweq	r3, #48651	; 0xbe0b
     bfc:	0400000e 	streq	r0, [r0], #-14
     c00:	0b0b000f 	bleq	2c0c44 <__bss_end__+0xbcdec>
     c04:	00001349 	andeq	r1, r0, r9, asr #6
     c08:	49002605 	stmdbmi	r0, {r0, r2, r9, sl, sp}
     c0c:	06000013 			; <UNDEFINED> instruction: 0x06000013
     c10:	193f012e 	ldmdbne	pc!, {r1, r2, r3, r5, r8}	; <UNPREDICTABLE>
     c14:	0b3a0e03 	bleq	e84428 <__bss_end__+0xc805d0>
     c18:	19270b3b 	stmdbne	r7!, {r0, r1, r3, r4, r5, r8, r9, fp}
     c1c:	01111349 	tsteq	r1, r9, asr #6
     c20:	18400612 	stmdane	r0, {r1, r4, r9, sl}^
     c24:	01194296 			; <UNDEFINED> instruction: 0x01194296
     c28:	07000013 	smladeq	r0, r3, r0, r0
     c2c:	08030005 	stmdaeq	r3, {r0, r2}
     c30:	0b3b0b3a 	bleq	ec3920 <__bss_end__+0xcbfac8>
     c34:	17021349 	strne	r1, [r2, -r9, asr #6]
     c38:	15080000 	strne	r0, [r8, #-0]
     c3c:	49192701 	ldmdbmi	r9, {r0, r8, r9, sl, sp}
     c40:	00130113 	andseq	r0, r3, r3, lsl r1
     c44:	00050900 	andeq	r0, r5, r0, lsl #18
     c48:	00001349 	andeq	r1, r0, r9, asr #6
     c4c:	0300340a 	movweq	r3, #1034	; 0x40a
     c50:	3b0b3a0e 	blcc	2cf490 <__bss_end__+0xcb638>
     c54:	3f13490b 	svccc	0x0013490b
     c58:	00193c19 	andseq	r3, r9, r9, lsl ip
     c5c:	00340b00 	eorseq	r0, r4, r0, lsl #22
     c60:	0b3a0e03 	bleq	e84474 <__bss_end__+0xc8061c>
     c64:	13490b3b 	movtne	r0, #39739	; 0x9b3b
     c68:	1802193f 	stmdane	r2, {r0, r1, r2, r3, r4, r5, r8, fp, ip}
     c6c:	01000000 	mrseq	r0, (UNDEF: 0)
     c70:	0e250111 	mcreq	1, 1, r0, cr5, cr1, {0}
     c74:	0e030b13 	vmoveq.32	d3[0], r0
     c78:	01110e1b 	tsteq	r1, fp, lsl lr
     c7c:	17100612 			; <UNDEFINED> instruction: 0x17100612
     c80:	24020000 	strcs	r0, [r2], #-0
     c84:	3e0b0b00 	vmlacc.f64	d0, d11, d0
     c88:	0008030b 	andeq	r0, r8, fp, lsl #6
     c8c:	00240300 	eoreq	r0, r4, r0, lsl #6
     c90:	0b3e0b0b 	bleq	f838c4 <__bss_end__+0xd7fa6c>
     c94:	00000e03 	andeq	r0, r0, r3, lsl #28
     c98:	0b000f04 	bleq	48b0 <_start-0x3750>
     c9c:	0500000b 	streq	r0, [r0, #-11]
     ca0:	0b0b000f 	bleq	2c0ce4 <__bss_end__+0xbce8c>
     ca4:	00001349 	andeq	r1, r0, r9, asr #6
     ca8:	49002606 	stmdbmi	r0, {r1, r2, r9, sl, sp}
     cac:	07000013 	smladeq	r0, r3, r0, r0
     cb0:	0e030016 	mcreq	0, 0, r0, cr3, cr6, {0}
     cb4:	0b3b0b3a 	bleq	ec39a4 <__bss_end__+0xcbfb4c>
     cb8:	00001349 	andeq	r1, r0, r9, asr #6
     cbc:	03011308 	movweq	r1, #4872	; 0x1308
     cc0:	3a0b0b0e 	bcc	2c3900 <__bss_end__+0xbfaa8>
     cc4:	010b3b0b 	tsteq	fp, fp, lsl #22
     cc8:	09000013 	stmdbeq	r0, {r0, r1, r4}
     ccc:	0e03000d 	cdpeq	0, 0, cr0, cr3, cr13, {0}
     cd0:	0b381349 	bleq	e059fc <__bss_end__+0xc01ba4>
     cd4:	00001934 	andeq	r1, r0, r4, lsr r9
     cd8:	03012e0a 	movweq	r2, #7690	; 0x1e0a
     cdc:	3b0b3a0e 	blcc	2cf51c <__bss_end__+0xcb6c4>
     ce0:	4919270b 	ldmdbmi	r9, {r0, r1, r3, r8, r9, sl, sp}
     ce4:	12011113 	andne	r1, r1, #-1073741820	; 0xc0000004
     ce8:	97184006 	ldrls	r4, [r8, -r6]
     cec:	13011942 	movwne	r1, #6466	; 0x1942
     cf0:	050b0000 	streq	r0, [fp, #-0]
     cf4:	3a080300 	bcc	2018fc <__FUNCTION__.4205+0x4>
     cf8:	490b3b0b 	stmdbmi	fp, {r0, r1, r3, r8, r9, fp, ip, sp}
     cfc:	00170213 	andseq	r0, r7, r3, lsl r2
     d00:	012e0c00 	teqeq	lr, r0, lsl #24
     d04:	0b3a0803 	bleq	e82d18 <__bss_end__+0xc7eec0>
     d08:	19270b3b 	stmdbne	r7!, {r0, r1, r3, r4, r5, r8, r9, fp}
     d0c:	01111349 	tsteq	r1, r9, asr #6
     d10:	18400612 	stmdane	r0, {r1, r4, r9, sl}^
     d14:	01194297 			; <UNDEFINED> instruction: 0x01194297
     d18:	0d000013 	stceq	0, cr0, [r0, #-76]	; 0xffffffb4
     d1c:	0e030005 	cdpeq	0, 0, cr0, cr3, cr5, {0}
     d20:	0b3b0b3a 	bleq	ec3a10 <__bss_end__+0xcbfbb8>
     d24:	17021349 	strne	r1, [r2, -r9, asr #6]
     d28:	050e0000 	streq	r0, [lr, #-0]
     d2c:	3a0e0300 	bcc	381934 <__bss_end__+0x17dadc>
     d30:	490b3b0b 	stmdbmi	fp, {r0, r1, r3, r8, r9, fp, ip, sp}
     d34:	00180213 	andseq	r0, r8, r3, lsl r2
     d38:	00340f00 	eorseq	r0, r4, r0, lsl #30
     d3c:	0b3a0803 	bleq	e82d50 <__bss_end__+0xc7eef8>
     d40:	13490b3b 	movtne	r0, #39739	; 0x9b3b
     d44:	00001802 	andeq	r1, r0, r2, lsl #16
     d48:	03003410 	movweq	r3, #1040	; 0x410
     d4c:	3b0b3a08 	blcc	2cf574 <__bss_end__+0xcb71c>
     d50:	0213490b 	andseq	r4, r3, #180224	; 0x2c000
     d54:	11000017 	tstne	r0, r7, lsl r0
     d58:	0e030034 	mcreq	0, 0, r0, cr3, cr4, {1}
     d5c:	19341349 	ldmdbne	r4!, {r0, r3, r6, r8, r9, ip}
     d60:	00001802 	andeq	r1, r0, r2, lsl #16
     d64:	11010b12 	tstne	r1, r2, lsl fp
     d68:	01061201 	tsteq	r6, r1, lsl #4
     d6c:	13000013 	movwne	r0, #19
     d70:	0e030034 	mcreq	0, 0, r0, cr3, cr4, {1}
     d74:	0b3b0b3a 	bleq	ec3a64 <__bss_end__+0xcbfc0c>
     d78:	17021349 	strne	r1, [r2, -r9, asr #6]
     d7c:	89140000 	ldmdbhi	r4, {}	; <UNPREDICTABLE>
     d80:	11010182 	smlabbne	r1, r2, r1, r0
     d84:	01133101 	tsteq	r3, r1, lsl #2
     d88:	15000013 	strne	r0, [r0, #-19]
     d8c:	0001828a 	andeq	r8, r1, sl, lsl #5
     d90:	42911802 	addsmi	r1, r1, #131072	; 0x20000
     d94:	16000018 			; <UNDEFINED> instruction: 0x16000018
     d98:	00018289 	andeq	r8, r1, r9, lsl #5
     d9c:	13310111 	teqne	r1, #1073741828	; 0x40000004
     da0:	89170000 	ldmdbhi	r7, {}	; <UNPREDICTABLE>
     da4:	11010182 	smlabbne	r1, r2, r1, r0
     da8:	00133101 	andseq	r3, r3, r1, lsl #2
     dac:	01011800 	tsteq	r1, r0, lsl #16
     db0:	13011349 	movwne	r1, #4937	; 0x1349
     db4:	21190000 	tstcs	r9, r0
     db8:	2f134900 	svccs	0x00134900
     dbc:	1a00000b 	bne	df0 <_start-0x7210>
     dc0:	193f012e 	ldmdbne	pc!, {r1, r2, r3, r5, r8}	; <UNPREDICTABLE>
     dc4:	0b3a0e03 	bleq	e845d8 <__bss_end__+0xc80780>
     dc8:	19270b3b 	stmdbne	r7!, {r0, r1, r3, r4, r5, r8, r9, fp}
     dcc:	06120111 			; <UNDEFINED> instruction: 0x06120111
     dd0:	42971840 	addsmi	r1, r7, #64, 16	; 0x400000
     dd4:	00130119 	andseq	r0, r3, r9, lsl r1
     dd8:	01151b00 	tsteq	r5, r0, lsl #22
     ddc:	13491927 	movtne	r1, #39207	; 0x9927
     de0:	00001301 	andeq	r1, r0, r1, lsl #6
     de4:	4900051c 	stmdbmi	r0, {r2, r3, r4, r8, sl}
     de8:	1d000013 	stcne	0, cr0, [r0, #-76]	; 0xffffffb4
     dec:	193f012e 	ldmdbne	pc!, {r1, r2, r3, r5, r8}	; <UNPREDICTABLE>
     df0:	0b3a0e03 	bleq	e84604 <__bss_end__+0xc807ac>
     df4:	19270b3b 	stmdbne	r7!, {r0, r1, r3, r4, r5, r8, r9, fp}
     df8:	01111349 	tsteq	r1, r9, asr #6
     dfc:	18400612 	stmdane	r0, {r1, r4, r9, sl}^
     e00:	01194297 			; <UNDEFINED> instruction: 0x01194297
     e04:	1e000013 	mcrne	0, 0, r0, cr0, cr3, {0}
     e08:	0111010b 	tsteq	r1, fp, lsl #2
     e0c:	00000612 	andeq	r0, r0, r2, lsl r6
     e10:	0300341f 	movweq	r3, #1055	; 0x41f
     e14:	3b0b3a0e 	blcc	2cf654 <__bss_end__+0xcb7fc>
     e18:	3f13490b 	svccc	0x0013490b
     e1c:	00193c19 	andseq	r3, r9, r9, lsl ip
     e20:	012e2000 	teqeq	lr, r0
     e24:	0e03193f 	mcreq	9, 0, r1, cr3, cr15, {1}
     e28:	0b3b0b3a 	bleq	ec3b18 <__bss_end__+0xcbfcc0>
     e2c:	13491927 	movtne	r1, #39207	; 0x9927
     e30:	1301193c 	movwne	r1, #6460	; 0x193c
     e34:	18210000 	stmdane	r1!, {}	; <UNPREDICTABLE>
     e38:	22000000 	andcs	r0, r0, #0
     e3c:	193f002e 	ldmdbne	pc!, {r1, r2, r3, r5}	; <UNPREDICTABLE>
     e40:	0b3a0e03 	bleq	e84654 <__bss_end__+0xc807fc>
     e44:	19270b3b 	stmdbne	r7!, {r0, r1, r3, r4, r5, r8, r9, fp}
     e48:	0000193c 	andeq	r1, r0, ip, lsr r9
     e4c:	01110100 	tsteq	r1, r0, lsl #2
     e50:	0b130e25 	bleq	4c46ec <__bss_end__+0x2c0894>
     e54:	0e1b0e03 	cdpeq	14, 1, cr0, cr11, cr3, {0}
     e58:	06120111 			; <UNDEFINED> instruction: 0x06120111
     e5c:	00001710 	andeq	r1, r0, r0, lsl r7
     e60:	0b002402 	bleq	9e70 <_start+0x1e70>
     e64:	030b3e0b 	movweq	r3, #48651	; 0xbe0b
     e68:	03000008 	movweq	r0, #8
     e6c:	0b0b0024 	bleq	2c0f04 <__bss_end__+0xbd0ac>
     e70:	0e030b3e 	vmoveq.16	d3[0], r0
     e74:	2e040000 	cdpcs	0, 0, cr0, cr4, cr0, {0}
     e78:	3a0e0301 	bcc	381a84 <__bss_end__+0x17dc2c>
     e7c:	270b3b0b 	strcs	r3, [fp, -fp, lsl #22]
     e80:	11134919 	tstne	r3, r9, lsl r9
     e84:	40061201 	andmi	r1, r6, r1, lsl #4
     e88:	19429718 	stmdbne	r2, {r3, r4, r8, r9, sl, ip, pc}^
     e8c:	00001301 	andeq	r1, r0, r1, lsl #6
     e90:	03000505 	movweq	r0, #1285	; 0x505
     e94:	3b0b3a08 	blcc	2cf6bc <__bss_end__+0xcb864>
     e98:	0213490b 	andseq	r4, r3, #180224	; 0x2c000
     e9c:	06000017 			; <UNDEFINED> instruction: 0x06000017
     ea0:	01018289 	smlabbeq	r1, r9, r2, r8
     ea4:	13310111 	teqne	r1, #1073741828	; 0x40000004
     ea8:	8a070000 	bhi	1c0eb0 <_start+0x1b8eb0>
     eac:	02000182 	andeq	r0, r0, #-2147483616	; 0x80000020
     eb0:	18429118 	stmdane	r2, {r3, r4, r8, ip, pc}^
     eb4:	15080000 	strne	r0, [r8, #-0]
     eb8:	49192701 	ldmdbmi	r9, {r0, r8, r9, sl, sp}
     ebc:	00130113 	andseq	r0, r3, r3, lsl r1
     ec0:	00050900 	andeq	r0, r5, r0, lsl #18
     ec4:	00001349 	andeq	r1, r0, r9, asr #6
     ec8:	0300340a 	movweq	r3, #1034	; 0x40a
     ecc:	3b0b3a0e 	blcc	2cf70c <__bss_end__+0xcb8b4>
     ed0:	3f13490b 	svccc	0x0013490b
     ed4:	00180219 	andseq	r0, r8, r9, lsl r2
     ed8:	000f0b00 	andeq	r0, pc, r0, lsl #22
     edc:	13490b0b 	movtne	r0, #39691	; 0x9b0b
     ee0:	2e0c0000 	cdpcs	0, 0, cr0, cr12, cr0, {0}
     ee4:	03193f01 	tsteq	r9, #1, 30
     ee8:	3b0b3a0e 	blcc	2cf728 <__bss_end__+0xcb8d0>
     eec:	3c19270b 	ldccc	7, cr2, [r9], {11}
     ef0:	00000019 	andeq	r0, r0, r9, lsl r0
     ef4:	25011101 	strcs	r1, [r1, #-257]	; 0x101
     ef8:	030b130e 	movweq	r1, #45838	; 0xb30e
     efc:	110e1b0e 	tstne	lr, lr, lsl #22
     f00:	10061201 	andne	r1, r6, r1, lsl #4
     f04:	02000017 	andeq	r0, r0, #23
     f08:	0b0b0024 	bleq	2c0fa0 <__bss_end__+0xbd148>
     f0c:	08030b3e 	stmdaeq	r3, {r1, r2, r3, r4, r5, r8, r9, fp}
     f10:	24030000 	strcs	r0, [r3], #-0
     f14:	3e0b0b00 	vmlacc.f64	d0, d11, d0
     f18:	000e030b 	andeq	r0, lr, fp, lsl #6
     f1c:	01040400 	tsteq	r4, r0, lsl #8
     f20:	0b3a0b0b 	bleq	e83b54 <__bss_end__+0xc7fcfc>
     f24:	13010b3b 	movwne	r0, #6971	; 0x1b3b
     f28:	28050000 	stmdacs	r5, {}	; <UNPREDICTABLE>
     f2c:	1c0e0300 	stcne	3, cr0, [lr], {-0}
     f30:	0600000d 	streq	r0, [r0], -sp
     f34:	0e030016 	mcreq	0, 0, r0, cr3, cr6, {0}
     f38:	0b3b0b3a 	bleq	ec3c28 <__bss_end__+0xcbfdd0>
     f3c:	00001349 	andeq	r1, r0, r9, asr #6
     f40:	3f012e07 	svccc	0x00012e07
     f44:	3a0e0319 	bcc	381bb0 <__bss_end__+0x17dd58>
     f48:	270b3b0b 	strcs	r3, [fp, -fp, lsl #22]
     f4c:	12011119 	andne	r1, r1, #1073741830	; 0x40000006
     f50:	97184006 	ldrls	r4, [r8, -r6]
     f54:	13011942 	movwne	r1, #6466	; 0x1942
     f58:	89080000 	stmdbhi	r8, {}	; <UNPREDICTABLE>
     f5c:	11000182 	smlabbne	r0, r2, r1, r0
     f60:	00133101 	andseq	r3, r3, r1, lsl #2
     f64:	82890900 	addhi	r0, r9, #0, 18
     f68:	01110101 	tsteq	r1, r1, lsl #2
     f6c:	13011331 	movwne	r1, #4913	; 0x1331
     f70:	8a0a0000 	bhi	280f78 <__bss_end__+0x7d120>
     f74:	02000182 	andeq	r0, r0, #-2147483616	; 0x80000020
     f78:	18429118 	stmdane	r2, {r3, r4, r8, ip, pc}^
     f7c:	2e0b0000 	cdpcs	0, 0, cr0, cr11, cr0, {0}
     f80:	03193f01 	tsteq	r9, #1, 30
     f84:	3b0b3a0e 	blcc	2cf7c4 <__bss_end__+0xcb96c>
     f88:	4919270b 	ldmdbmi	r9, {r0, r1, r3, r8, r9, sl, sp}
     f8c:	12011113 	andne	r1, r1, #-1073741820	; 0xc0000004
     f90:	97184006 	ldrls	r4, [r8, -r6]
     f94:	13011942 	movwne	r1, #6466	; 0x1942
     f98:	050c0000 	streq	r0, [ip, #-0]
     f9c:	3a080300 	bcc	201ba4 <putQ+0x174>
     fa0:	490b3b0b 	stmdbmi	fp, {r0, r1, r3, r8, r9, fp, ip, sp}
     fa4:	00170213 	andseq	r0, r7, r3, lsl r2
     fa8:	82890d00 	addhi	r0, r9, #0, 26
     fac:	01110101 	tsteq	r1, r1, lsl #2
     fb0:	00001331 	andeq	r1, r0, r1, lsr r3
     fb4:	0300340e 	movweq	r3, #1038	; 0x40e
     fb8:	3b0b3a0e 	blcc	2cf7f8 <__bss_end__+0xcb9a0>
     fbc:	3f13490b 	svccc	0x0013490b
     fc0:	00180219 	andseq	r0, r8, r9, lsl r2
     fc4:	000f0f00 	andeq	r0, pc, r0, lsl #30
     fc8:	13490b0b 	movtne	r0, #39691	; 0x9b0b
     fcc:	35100000 	ldrcc	r0, [r0, #-0]
     fd0:	00134900 	andseq	r4, r3, r0, lsl #18
     fd4:	002e1100 	eoreq	r1, lr, r0, lsl #2
     fd8:	0e03193f 	mcreq	9, 0, r1, cr3, cr15, {1}
     fdc:	0b3b0b3a 	bleq	ec3ccc <__bss_end__+0xcbfe74>
     fe0:	193c1927 	ldmdbne	ip!, {r0, r1, r2, r5, r8, fp, ip}
     fe4:	2e120000 	cdpcs	0, 1, cr0, cr2, cr0, {0}
     fe8:	03193f01 	tsteq	r9, #1, 30
     fec:	3b0b3a0e 	blcc	2cf82c <__bss_end__+0xcb9d4>
     ff0:	3c19270b 	ldccc	7, cr2, [r9], {11}
     ff4:	00130119 	andseq	r0, r3, r9, lsl r1
     ff8:	00051300 	andeq	r1, r5, r0, lsl #6
     ffc:	00001349 	andeq	r1, r0, r9, asr #6
    1000:	3f012e14 	svccc	0x00012e14
    1004:	3a0e0319 	bcc	381c70 <__bss_end__+0x17de18>
    1008:	270b3b0b 	strcs	r3, [fp, -fp, lsl #22]
    100c:	3c134919 	ldccc	9, cr4, [r3], {25}
    1010:	00130119 	andseq	r0, r3, r9, lsl r1
    1014:	00261500 	eoreq	r1, r6, r0, lsl #10
    1018:	00001349 	andeq	r1, r0, r9, asr #6
    101c:	00003516 	andeq	r3, r0, r6, lsl r5
	...

Disassembly of section .debug_loc:

00000000 <.debug_loc>:
       0:	00000000 	andeq	r0, r0, r0
       4:	00000010 	andeq	r0, r0, r0, lsl r0
       8:	10500001 	subsne	r0, r0, r1
       c:	bc000000 	stclt	0, cr0, [r0], {-0}
      10:	01000000 	mrseq	r0, (UNDEF: 0)
      14:	00005500 	andeq	r5, r0, r0, lsl #10
      18:	00000000 	andeq	r0, r0, r0
      1c:	00440000 	subeq	r0, r4, r0
      20:	00670000 	rsbeq	r0, r7, r0
      24:	00010000 	andeq	r0, r1, r0
      28:	00006753 	andeq	r6, r0, r3, asr r7
      2c:	00009800 	andeq	r9, r0, r0, lsl #16
      30:	54000100 	strpl	r0, [r0], #-256	; 0x100
      34:	0000009c 	muleq	r0, ip, r0
      38:	000000bc 	strheq	r0, [r0], -ip
      3c:	00540001 	subseq	r0, r4, r1
      40:	00000000 	andeq	r0, r0, r0
      44:	58000000 	stmdapl	r0, {}	; <UNPREDICTABLE>
      48:	67000000 	strvs	r0, [r0, -r0]
      4c:	01000000 	mrseq	r0, (UNDEF: 0)
      50:	00675300 	rsbeq	r5, r7, r0, lsl #6
      54:	00980000 	addseq	r0, r8, r0
      58:	00010000 	andeq	r0, r1, r0
      5c:	00000054 	andeq	r0, r0, r4, asr r0
      60:	00000000 	andeq	r0, r0, r0
      64:	00006c00 	andeq	r6, r0, r0, lsl #24
      68:	00007400 	andeq	r7, r0, r0, lsl #8
      6c:	51000100 	mrspl	r0, (UNDEF: 16)
      70:	00000074 	andeq	r0, r0, r4, ror r0
      74:	00000098 	muleq	r0, r8, r0
      78:	00740005 	rsbseq	r0, r4, r5
      7c:	009f2538 	addseq	r2, pc, r8, lsr r5	; <UNPREDICTABLE>
      80:	00000000 	andeq	r0, r0, r0
      84:	7c000000 	stcvc	0, cr0, [r0], {-0}
      88:	84000000 	strhi	r0, [r0], #-0
      8c:	01000000 	mrseq	r0, (UNDEF: 0)
      90:	00845100 	addeq	r5, r4, r0, lsl #2
      94:	00980000 	addseq	r0, r8, r0
      98:	00050000 	andeq	r0, r5, r0
      9c:	25400074 	strbcs	r0, [r0, #-116]	; 0x74
      a0:	0000009f 	muleq	r0, pc, r0	; <UNPREDICTABLE>
      a4:	00000000 	andeq	r0, r0, r0
      a8:	00008800 	andeq	r8, r0, r0, lsl #16
      ac:	00009800 	andeq	r9, r0, r0, lsl #16
      b0:	74000500 	strvc	r0, [r0], #-1280	; 0x500
      b4:	9f254800 	svcls	0x00254800
	...
      c0:	0000009c 	muleq	r0, ip, r0
      c4:	000000a3 	andeq	r0, r0, r3, lsr #1
      c8:	00510001 	subseq	r0, r1, r1
      cc:	00000000 	andeq	r0, r0, r0
      d0:	04000000 	streq	r0, [r0], #-0
      d4:	08000000 	stmdaeq	r0, {}	; <UNPREDICTABLE>
      d8:	07000000 	streq	r0, [r0, -r0]
      dc:	0a007300 	beq	1cce4 <_start+0x14ce4>
      e0:	9f211000 	svcls	0x00211000
      e4:	00000008 	andeq	r0, r0, r8
      e8:	00000010 	andeq	r0, r0, r0, lsl r0
      ec:	00530001 	subseq	r0, r3, r1
      f0:	00000000 	andeq	r0, r0, r0
      f4:	14000000 	strne	r0, [r0], #-0
      f8:	18000000 	stmdane	r0, {}	; <UNPREDICTABLE>
      fc:	07000000 	streq	r0, [r0, -r0]
     100:	0b007300 	bleq	1cd08 <_start+0x14d08>
     104:	9f1aefff 	svcls	0x001aefff
     108:	00000018 	andeq	r0, r0, r8, lsl r0
     10c:	00000020 	andeq	r0, r0, r0, lsr #32
     110:	00530001 	subseq	r0, r3, r1
     114:	00000000 	andeq	r0, r0, r0
     118:	c4000000 	strgt	r0, [r0], #-0
     11c:	c8002001 	stmdagt	r0, {r0, sp}
     120:	02002001 	andeq	r2, r0, #1
     124:	c89f3000 	ldmgt	pc, {ip, sp}	; <UNPREDICTABLE>
     128:	cc002001 	stcgt	0, cr2, [r0], {1}
     12c:	01002001 	tsteq	r0, r1
     130:	00005000 	andeq	r5, r0, r0
     134:	00000000 	andeq	r0, r0, r0
     138:	01dc0000 	bicseq	r0, ip, r0
     13c:	01e00020 	mvneq	r0, r0, lsr #32
     140:	00020020 	andeq	r0, r2, r0, lsr #32
     144:	01e09f30 	mvneq	r9, r0, lsr pc
     148:	01e40020 	mvneq	r0, r0, lsr #32
     14c:	00010020 	andeq	r0, r1, r0, lsr #32
     150:	2001e853 	andcs	lr, r1, r3, asr r8
     154:	2001f000 	andcs	pc, r1, r0
     158:	53000100 	movwpl	r0, #256	; 0x100
	...
     168:	00000004 	andeq	r0, r0, r4
     16c:	04500001 	ldrbeq	r0, [r0], #-1
     170:	0c000000 	stceq	0, cr0, [r0], {-0}
     174:	01000000 	mrseq	r0, (UNDEF: 0)
     178:	000c5300 	andeq	r5, ip, r0, lsl #6
     17c:	00100000 	andseq	r0, r0, r0
     180:	00010000 	andeq	r0, r1, r0
     184:	00001050 	andeq	r1, r0, r0, asr r0
     188:	00001c00 	andeq	r1, r0, r0, lsl #24
     18c:	53000100 	movwpl	r0, #256	; 0x100
	...
     198:	0000003c 	andeq	r0, r0, ip, lsr r0
     19c:	00000047 	andeq	r0, r0, r7, asr #32
     1a0:	47500001 	ldrbmi	r0, [r0, -r1]
     1a4:	60000000 	andvs	r0, r0, r0
     1a8:	01000000 	mrseq	r0, (UNDEF: 0)
     1ac:	00005500 	andeq	r5, r0, r0, lsl #10
     1b0:	00000000 	andeq	r0, r0, r0
     1b4:	00500000 	subseq	r0, r0, r0
     1b8:	00540000 	subseq	r0, r4, r0
     1bc:	00010000 	andeq	r0, r1, r0
     1c0:	00000050 	andeq	r0, r0, r0, asr r0
     1c4:	00000000 	andeq	r0, r0, r0
     1c8:	00006000 	andeq	r6, r0, r0
     1cc:	00006c00 	andeq	r6, r0, r0, lsl #24
     1d0:	50000100 	andpl	r0, r0, r0, lsl #2
     1d4:	0000006c 	andeq	r0, r0, ip, rrx
     1d8:	00000074 	andeq	r0, r0, r4, ror r0
     1dc:	01f30004 	mvnseq	r0, r4
     1e0:	00009f50 	andeq	r9, r0, r0, asr pc
     1e4:	00000000 	andeq	r0, r0, r0
     1e8:	00740000 	rsbseq	r0, r4, r0
     1ec:	00800000 	addeq	r0, r0, r0
     1f0:	00010000 	andeq	r0, r1, r0
     1f4:	00008050 	andeq	r8, r0, r0, asr r0
     1f8:	00008800 	andeq	r8, r0, r0, lsl #16
     1fc:	f3000400 	vshl.u8	d0, d0, d0
     200:	009f5001 	addseq	r5, pc, r1
	...
     20c:	24000000 	strcs	r0, [r0], #-0
     210:	01000000 	mrseq	r0, (UNDEF: 0)
     214:	00245000 	eoreq	r5, r4, r0
     218:	01700000 	cmneq	r0, r0
     21c:	00040000 	andeq	r0, r4, r0
     220:	9f5001f3 	svcls	0x005001f3
	...
     230:	00000028 	andeq	r0, r0, r8, lsr #32
     234:	28510001 	ldmdacs	r1, {r0}^
     238:	70000000 	andvc	r0, r0, r0
     23c:	04000001 	streq	r0, [r0], #-1
     240:	5101f300 	mrspl	pc, SP_irq	; <UNPREDICTABLE>
     244:	0000009f 	muleq	r0, pc, r0	; <UNPREDICTABLE>
     248:	00000000 	andeq	r0, r0, r0
     24c:	00001c00 	andeq	r1, r0, r0, lsl #24
     250:	00014000 	andeq	r4, r1, r0
     254:	55000100 	strpl	r0, [r0, #-256]	; 0x100
	...
     260:	0000001c 	andeq	r0, r0, ip, lsl r0
     264:	00000040 	andeq	r0, r0, r0, asr #32
     268:	40550001 	subsmi	r0, r5, r1
     26c:	40000000 	andmi	r0, r0, r0
     270:	01000001 	tsteq	r0, r1
     274:	01405800 	cmpeq	r0, r0, lsl #16
     278:	01700000 	cmneq	r0, r0
     27c:	00010000 	andeq	r0, r1, r0
     280:	00000055 	andeq	r0, r0, r5, asr r0
     284:	00000000 	andeq	r0, r0, r0
     288:	00002000 	andeq	r2, r0, r0
     28c:	00014000 	andeq	r4, r1, r0
     290:	55000100 	strpl	r0, [r0, #-256]	; 0x100
	...
     29c:	0000002c 	andeq	r0, r0, ip, lsr #32
     2a0:	00000140 	andeq	r0, r0, r0, asr #2
     2a4:	00550001 	subseq	r0, r5, r1
     2a8:	00000000 	andeq	r0, r0, r0
     2ac:	30000000 	andcc	r0, r0, r0
     2b0:	34000000 	strcc	r0, [r0], #-0
     2b4:	01000000 	mrseq	r0, (UNDEF: 0)
     2b8:	00005300 	andeq	r5, r0, r0, lsl #6
     2bc:	00000000 	andeq	r0, r0, r0
     2c0:	00400000 	subeq	r0, r0, r0
     2c4:	00600000 	rsbeq	r0, r0, r0
     2c8:	00010000 	andeq	r0, r1, r0
     2cc:	00006058 	andeq	r6, r0, r8, asr r0
     2d0:	00014000 	andeq	r4, r1, r0
     2d4:	75000500 	strvc	r0, [r0, #-1280]	; 0x500
     2d8:	9f243100 	svcls	0x00243100
	...
     2e4:	00000040 	andeq	r0, r0, r0, asr #32
     2e8:	00000048 	andeq	r0, r0, r8, asr #32
     2ec:	00770005 	rsbseq	r0, r7, r5
     2f0:	489f1a31 	ldmmi	pc, {r0, r4, r5, r9, fp, ip}	; <UNPREDICTABLE>
     2f4:	4b000000 	blmi	2fc <_start-0x7d04>
     2f8:	01000000 	mrseq	r0, (UNDEF: 0)
     2fc:	004b5100 	subeq	r5, fp, r0, lsl #2
     300:	01700000 	cmneq	r0, r0
     304:	00050000 	andeq	r0, r5, r0
     308:	1a310077 	bne	c404ec <__bss_end__+0xa3c694>
     30c:	0000009f 	muleq	r0, pc, r0	; <UNPREDICTABLE>
     310:	00000000 	andeq	r0, r0, r0
     314:	00004c00 	andeq	r4, r0, r0, lsl #24
     318:	00006000 	andeq	r6, r0, r0
     31c:	58000100 	stmdapl	r0, {r8}
     320:	00000060 	andeq	r0, r0, r0, rrx
     324:	00000140 	andeq	r0, r0, r0, asr #2
     328:	00750005 	rsbseq	r0, r5, r5
     32c:	009f2431 	addseq	r2, pc, r1, lsr r4	; <UNPREDICTABLE>
     330:	00000000 	andeq	r0, r0, r0
     334:	50000000 	andpl	r0, r0, r0
     338:	54000000 	strpl	r0, [r0], #-0
     33c:	01000000 	mrseq	r0, (UNDEF: 0)
     340:	00005300 	andeq	r5, r0, r0, lsl #6
     344:	00000000 	andeq	r0, r0, r0
     348:	00600000 	rsbeq	r0, r0, r0
     34c:	00800000 	addeq	r0, r0, r0
     350:	00010000 	andeq	r0, r1, r0
     354:	00008058 	andeq	r8, r0, r8, asr r0
     358:	00014000 	andeq	r4, r1, r0
     35c:	75000800 	strvc	r0, [r0, #-2048]	; 0x800
     360:	75243100 	strvc	r3, [r4, #-256]!	; 0x100
     364:	009f2200 	addseq	r2, pc, r0, lsl #4
     368:	00000000 	andeq	r0, r0, r0
     36c:	6c000000 	stcvs	0, cr0, [r0], {-0}
     370:	80000000 	andhi	r0, r0, r0
     374:	01000000 	mrseq	r0, (UNDEF: 0)
     378:	00805800 	addeq	r5, r0, r0, lsl #16
     37c:	01400000 	mrseq	r0, (UNDEF: 64)
     380:	00080000 	andeq	r0, r8, r0
     384:	24310075 	ldrtcs	r0, [r1], #-117	; 0x75
     388:	9f220075 	svcls	0x00220075
	...
     394:	00000070 	andeq	r0, r0, r0, ror r0
     398:	00000074 	andeq	r0, r0, r4, ror r0
     39c:	00530001 	subseq	r0, r3, r1
     3a0:	00000000 	andeq	r0, r0, r0
     3a4:	80000000 	andhi	r0, r0, r0
     3a8:	a0000000 	andge	r0, r0, r0
     3ac:	01000000 	mrseq	r0, (UNDEF: 0)
     3b0:	00a05800 	adceq	r5, r0, r0, lsl #16
     3b4:	01400000 	mrseq	r0, (UNDEF: 64)
     3b8:	00050000 	andeq	r0, r5, r0
     3bc:	24320075 	ldrtcs	r0, [r2], #-117	; 0x75
     3c0:	0000009f 	muleq	r0, pc, r0	; <UNPREDICTABLE>
     3c4:	00000000 	andeq	r0, r0, r0
     3c8:	00008c00 	andeq	r8, r0, r0, lsl #24
     3cc:	0000a000 	andeq	sl, r0, r0
     3d0:	58000100 	stmdapl	r0, {r8}
     3d4:	000000a0 	andeq	r0, r0, r0, lsr #1
     3d8:	00000140 	andeq	r0, r0, r0, asr #2
     3dc:	00750005 	rsbseq	r0, r5, r5
     3e0:	009f2432 	addseq	r2, pc, r2, lsr r4	; <UNPREDICTABLE>
     3e4:	00000000 	andeq	r0, r0, r0
     3e8:	90000000 	andls	r0, r0, r0
     3ec:	94000000 	strls	r0, [r0], #-0
     3f0:	01000000 	mrseq	r0, (UNDEF: 0)
     3f4:	00005300 	andeq	r5, r0, r0, lsl #6
     3f8:	00000000 	andeq	r0, r0, r0
     3fc:	00a00000 	adceq	r0, r0, r0
     400:	00c00000 	sbceq	r0, r0, r0
     404:	00010000 	andeq	r0, r1, r0
     408:	0000c058 	andeq	ip, r0, r8, asr r0
     40c:	00014000 	andeq	r4, r1, r0
     410:	75000800 	strvc	r0, [r0, #-2048]	; 0x800
     414:	75243200 	strvc	r3, [r4, #-512]!	; 0x200
     418:	009f2200 	addseq	r2, pc, r0, lsl #4
     41c:	00000000 	andeq	r0, r0, r0
     420:	ac000000 	stcge	0, cr0, [r0], {-0}
     424:	c0000000 	andgt	r0, r0, r0
     428:	01000000 	mrseq	r0, (UNDEF: 0)
     42c:	00c05800 	sbceq	r5, r0, r0, lsl #16
     430:	01400000 	mrseq	r0, (UNDEF: 64)
     434:	00080000 	andeq	r0, r8, r0
     438:	24320075 	ldrtcs	r0, [r2], #-117	; 0x75
     43c:	9f220075 	svcls	0x00220075
	...
     448:	000000b0 	strheq	r0, [r0], -r0	; <UNPREDICTABLE>
     44c:	000000b4 	strheq	r0, [r0], -r4
     450:	00530001 	subseq	r0, r3, r1
     454:	00000000 	andeq	r0, r0, r0
     458:	c0000000 	andgt	r0, r0, r0
     45c:	e0000000 	and	r0, r0, r0
     460:	01000000 	mrseq	r0, (UNDEF: 0)
     464:	00e05800 	rsceq	r5, r0, r0, lsl #16
     468:	01400000 	mrseq	r0, (UNDEF: 64)
     46c:	000a0000 	andeq	r0, sl, r0
     470:	24320075 	ldrtcs	r0, [r2], #-117	; 0x75
     474:	24310075 	ldrtcs	r0, [r1], #-117	; 0x75
     478:	00009f22 	andeq	r9, r0, r2, lsr #30
     47c:	00000000 	andeq	r0, r0, r0
     480:	00cc0000 	sbceq	r0, ip, r0
     484:	00e00000 	rsceq	r0, r0, r0
     488:	00010000 	andeq	r0, r1, r0
     48c:	0000e058 	andeq	lr, r0, r8, asr r0
     490:	00014000 	andeq	r4, r1, r0
     494:	75000a00 	strvc	r0, [r0, #-2560]	; 0xa00
     498:	75243200 	strvc	r3, [r4, #-512]!	; 0x200
     49c:	22243100 	eorcs	r3, r4, #0, 2
     4a0:	0000009f 	muleq	r0, pc, r0	; <UNPREDICTABLE>
     4a4:	00000000 	andeq	r0, r0, r0
     4a8:	0000d000 	andeq	sp, r0, r0
     4ac:	0000d400 	andeq	sp, r0, r0, lsl #8
     4b0:	53000100 	movwpl	r0, #256	; 0x100
	...
     4bc:	000000e0 	andeq	r0, r0, r0, ror #1
     4c0:	00000100 	andeq	r0, r0, r0, lsl #2
     4c4:	00580001 	subseq	r0, r8, r1
     4c8:	40000001 	andmi	r0, r0, r1
     4cc:	0d000001 	stceq	0, cr0, [r0, #-4]
     4d0:	32007500 	andcc	r7, r0, #0, 10
     4d4:	31007524 	tstcc	r0, r4, lsr #10
     4d8:	00752224 	rsbseq	r2, r5, r4, lsr #4
     4dc:	00009f22 	andeq	r9, r0, r2, lsr #30
     4e0:	00000000 	andeq	r0, r0, r0
     4e4:	00ec0000 	rsceq	r0, ip, r0
     4e8:	01000000 	mrseq	r0, (UNDEF: 0)
     4ec:	00010000 	andeq	r0, r1, r0
     4f0:	00010058 	andeq	r0, r1, r8, asr r0
     4f4:	00014000 	andeq	r4, r1, r0
     4f8:	75000d00 	strvc	r0, [r0, #-3328]	; 0xd00
     4fc:	75243200 	strvc	r3, [r4, #-512]!	; 0x200
     500:	22243100 	eorcs	r3, r4, #0, 2
     504:	9f220075 	svcls	0x00220075
	...
     510:	000000f0 	strdeq	r0, [r0], -r0	; <UNPREDICTABLE>
     514:	000000f4 	strdeq	r0, [r0], -r4
     518:	00530001 	subseq	r0, r3, r1
	...
     524:	20000001 	andcs	r0, r0, r1
     528:	01000001 	tsteq	r0, r1
     52c:	01205800 	teqeq	r0, r0, lsl #16
     530:	01400000 	mrseq	r0, (UNDEF: 64)
     534:	00050000 	andeq	r0, r5, r0
     538:	24330075 	ldrtcs	r0, [r3], #-117	; 0x75
     53c:	0000009f 	muleq	r0, pc, r0	; <UNPREDICTABLE>
     540:	00000000 	andeq	r0, r0, r0
     544:	00010c00 	andeq	r0, r1, r0, lsl #24
     548:	00012000 	andeq	r2, r1, r0
     54c:	58000100 	stmdapl	r0, {r8}
     550:	00000120 	andeq	r0, r0, r0, lsr #2
     554:	00000140 	andeq	r0, r0, r0, asr #2
     558:	00750005 	rsbseq	r0, r5, r5
     55c:	009f2433 	addseq	r2, pc, r3, lsr r4	; <UNPREDICTABLE>
     560:	00000000 	andeq	r0, r0, r0
     564:	10000000 	andne	r0, r0, r0
     568:	14000001 	strne	r0, [r0], #-1
     56c:	01000001 	tsteq	r0, r1
     570:	00005300 	andeq	r5, r0, r0, lsl #6
     574:	00000000 	andeq	r0, r0, r0
     578:	01200000 	teqeq	r0, r0
     57c:	01280000 	teqeq	r8, r0
     580:	00060000 	andeq	r0, r6, r0
     584:	80080077 	andhi	r0, r8, r7, ror r0
     588:	01289f1a 	teqeq	r8, sl, lsl pc
     58c:	012b0000 	teqeq	fp, r0
     590:	00010000 	andeq	r0, r1, r0
     594:	00012b51 	andeq	r2, r1, r1, asr fp
     598:	00017000 	andeq	r7, r1, r0
     59c:	77000600 	strvc	r0, [r0, -r0, lsl #12]
     5a0:	1a800800 	bne	fe0025a8 <__bss_end__+0xfddfe750>
     5a4:	0000009f 	muleq	r0, pc, r0	; <UNPREDICTABLE>
     5a8:	00000000 	andeq	r0, r0, r0
     5ac:	00013000 	andeq	r3, r1, r0
     5b0:	00013400 	andeq	r3, r1, r0, lsl #8
     5b4:	53000100 	movwpl	r0, #256	; 0x100
	...
     5c0:	00000150 	andeq	r0, r0, r0, asr r1
     5c4:	00000154 	andeq	r0, r0, r4, asr r1
     5c8:	00530001 	subseq	r0, r3, r1
     5cc:	00000000 	andeq	r0, r0, r0
     5d0:	70000000 	andvc	r0, r0, r0
     5d4:	9c000001 	stcls	0, cr0, [r0], {1}
     5d8:	01000001 	tsteq	r0, r1
     5dc:	019c5000 	orrseq	r5, ip, r0
     5e0:	02a00000 	adceq	r0, r0, #0
     5e4:	00040000 	andeq	r0, r4, r0
     5e8:	9f5001f3 	svcls	0x005001f3
	...
     5f4:	00000170 	andeq	r0, r0, r0, ror r1
     5f8:	0000019f 	muleq	r0, pc, r1	; <UNPREDICTABLE>
     5fc:	9f510001 	svcls	0x00510001
     600:	a0000001 	andge	r0, r0, r1
     604:	04000002 	streq	r0, [r0], #-2
     608:	5101f300 	mrspl	pc, SP_irq	; <UNPREDICTABLE>
     60c:	0000009f 	muleq	r0, pc, r0	; <UNPREDICTABLE>
     610:	00000000 	andeq	r0, r0, r0
     614:	00017c00 	andeq	r7, r1, r0, lsl #24
     618:	00026c00 	andeq	r6, r2, r0, lsl #24
     61c:	56000100 	strpl	r0, [r0], -r0, lsl #2
	...
     628:	00000180 	andeq	r0, r0, r0, lsl #3
     62c:	000001a4 	andeq	r0, r0, r4, lsr #3
     630:	9f300002 	svcls	0x00300002
     634:	000001a4 	andeq	r0, r0, r4, lsr #3
     638:	00000298 	muleq	r0, r8, r2
     63c:	98570001 	ldmdals	r7, {r0}^
     640:	9c000002 	stcls	0, cr0, [r0], {2}
     644:	08000002 	stmdaeq	r0, {r1}
     648:	37007000 	strcc	r7, [r0, -r0]
     64c:	21007724 	tstcs	r0, r4, lsr #14
     650:	00029c9f 	muleq	r2, pc, ip	; <UNPREDICTABLE>
     654:	0002a000 	andeq	sl, r2, r0
     658:	50000100 	andpl	r0, r0, r0, lsl #2
	...
     664:	0000017c 	andeq	r0, r0, ip, ror r1
     668:	00000198 	muleq	r0, r8, r1
     66c:	00560001 	subseq	r0, r6, r1
     670:	00000000 	andeq	r0, r0, r0
     674:	84000000 	strhi	r0, [r0], #-0
     678:	9f000001 	svcls	0x00000001
     67c:	01000001 	tsteq	r0, r1
     680:	019f5200 	orrseq	r5, pc, r0, lsl #4
     684:	02a00000 	adceq	r0, r0, #0
     688:	00080000 	andeq	r0, r8, r0
     68c:	25310074 	ldrcs	r0, [r1, #-116]!	; 0x74
     690:	9f220074 	svcls	0x00220074
	...
     69c:	00000184 	andeq	r0, r0, r4, lsl #3
     6a0:	00000198 	muleq	r0, r8, r1
     6a4:	00560001 	subseq	r0, r6, r1
     6a8:	00000000 	andeq	r0, r0, r0
     6ac:	88000000 	stmdahi	r0, {}	; <UNPREDICTABLE>
     6b0:	8c000001 	stchi	0, cr0, [r0], {1}
     6b4:	01000001 	tsteq	r0, r1
     6b8:	00005300 	andeq	r5, r0, r0, lsl #6
     6bc:	00000000 	andeq	r0, r0, r0
     6c0:	01a40000 			; <UNDEFINED> instruction: 0x01a40000
     6c4:	01b80000 			; <UNDEFINED> instruction: 0x01b80000
     6c8:	00010000 	andeq	r0, r1, r0
     6cc:	00000056 	andeq	r0, r0, r6, asr r0
     6d0:	00000000 	andeq	r0, r0, r0
     6d4:	0001a800 	andeq	sl, r1, r0, lsl #16
     6d8:	0001ac00 	andeq	sl, r1, r0, lsl #24
     6dc:	53000100 	movwpl	r0, #256	; 0x100
	...
     6e8:	000001c8 	andeq	r0, r0, r8, asr #3
     6ec:	000001dc 	ldrdeq	r0, [r0], -ip
     6f0:	00560001 	subseq	r0, r6, r1
     6f4:	00000000 	andeq	r0, r0, r0
     6f8:	cc000000 	stcgt	0, cr0, [r0], {-0}
     6fc:	d0000001 	andle	r0, r0, r1
     700:	01000001 	tsteq	r0, r1
     704:	00005300 	andeq	r5, r0, r0, lsl #6
     708:	00000000 	andeq	r0, r0, r0
     70c:	01ec0000 	mvneq	r0, r0
     710:	02000000 	andeq	r0, r0, #0
     714:	00010000 	andeq	r0, r1, r0
     718:	00000056 	andeq	r0, r0, r6, asr r0
     71c:	00000000 	andeq	r0, r0, r0
     720:	0001f000 	andeq	pc, r1, r0
     724:	0001f400 	andeq	pc, r1, r0, lsl #8
     728:	53000100 	movwpl	r0, #256	; 0x100
	...
     734:	00000210 	andeq	r0, r0, r0, lsl r2
     738:	00000224 	andeq	r0, r0, r4, lsr #4
     73c:	00560001 	subseq	r0, r6, r1
     740:	00000000 	andeq	r0, r0, r0
     744:	14000000 	strne	r0, [r0], #-0
     748:	18000002 	stmdane	r0, {r1}
     74c:	01000002 	tsteq	r0, r2
     750:	00005300 	andeq	r5, r0, r0, lsl #6
     754:	00000000 	andeq	r0, r0, r0
     758:	02340000 	eorseq	r0, r4, #0
     75c:	02480000 	subeq	r0, r8, #0
     760:	00010000 	andeq	r0, r1, r0
     764:	00000056 	andeq	r0, r0, r6, asr r0
     768:	00000000 	andeq	r0, r0, r0
     76c:	00023800 	andeq	r3, r2, r0, lsl #16
     770:	00023c00 	andeq	r3, r2, r0, lsl #24
     774:	53000100 	movwpl	r0, #256	; 0x100
	...
     780:	00000258 	andeq	r0, r0, r8, asr r2
     784:	0000026c 	andeq	r0, r0, ip, ror #4
     788:	00560001 	subseq	r0, r6, r1
     78c:	00000000 	andeq	r0, r0, r0
     790:	5c000000 	stcpl	0, cr0, [r0], {-0}
     794:	60000002 	andvs	r0, r0, r2
     798:	01000002 	tsteq	r0, r2
     79c:	00005300 	andeq	r5, r0, r0, lsl #6
     7a0:	00000000 	andeq	r0, r0, r0
     7a4:	02800000 	addeq	r0, r0, #0
     7a8:	02840000 	addeq	r0, r4, #0
     7ac:	00010000 	andeq	r0, r1, r0
     7b0:	00000053 	andeq	r0, r0, r3, asr r0
     7b4:	00000000 	andeq	r0, r0, r0
     7b8:	0002a000 	andeq	sl, r2, r0
     7bc:	0002c000 	andeq	ip, r2, r0
     7c0:	50000100 	andpl	r0, r0, r0, lsl #2
     7c4:	000002c0 	andeq	r0, r0, r0, asr #5
     7c8:	000002d4 	ldrdeq	r0, [r0], -r4
     7cc:	d4580001 	ldrble	r0, [r8], #-1
     7d0:	e4000002 	str	r0, [r0], #-2
     7d4:	01000002 	tsteq	r0, r2
     7d8:	02e45000 	rsceq	r5, r4, #0
     7dc:	032c0000 	teqeq	ip, #0
     7e0:	00010000 	andeq	r0, r1, r0
     7e4:	00000058 	andeq	r0, r0, r8, asr r0
     7e8:	00000000 	andeq	r0, r0, r0
     7ec:	0002a000 	andeq	sl, r2, r0
     7f0:	0002c400 	andeq	ip, r2, r0, lsl #8
     7f4:	51000100 	mrspl	r0, (UNDEF: 16)
     7f8:	000002c4 	andeq	r0, r0, r4, asr #5
     7fc:	000002d4 	ldrdeq	r0, [r0], -r4
     800:	d4560001 	ldrble	r0, [r6], #-1
     804:	e4000002 	str	r0, [r0], #-2
     808:	01000002 	tsteq	r0, r2
     80c:	02e45100 	rsceq	r5, r4, #0, 2
     810:	032c0000 	teqeq	ip, #0
     814:	00010000 	andeq	r0, r1, r0
     818:	00000056 	andeq	r0, r0, r6, asr r0
     81c:	00000000 	andeq	r0, r0, r0
     820:	0002a000 	andeq	sl, r2, r0
     824:	0002c800 	andeq	ip, r2, r0, lsl #16
     828:	52000100 	andpl	r0, r0, #0, 2
     82c:	000002c8 	andeq	r0, r0, r8, asr #5
     830:	000002d4 	ldrdeq	r0, [r0], -r4
     834:	01f30004 	mvnseq	r0, r4
     838:	02d49f52 	sbcseq	r9, r4, #328	; 0x148
     83c:	02e40000 	rsceq	r0, r4, #0
     840:	00010000 	andeq	r0, r1, r0
     844:	0002e452 	andeq	lr, r2, r2, asr r4
     848:	00032c00 	andeq	r2, r3, r0, lsl #24
     84c:	77000300 	strvc	r0, [r0, -r0, lsl #6]
     850:	00009f01 	andeq	r9, r0, r1, lsl #30
     854:	00000000 	andeq	r0, r0, r0
     858:	02a00000 	adceq	r0, r0, #0
     85c:	02cc0000 	sbceq	r0, ip, #0
     860:	00010000 	andeq	r0, r1, r0
     864:	0002cc53 	andeq	ip, r2, r3, asr ip
     868:	0002d400 	andeq	sp, r2, r0, lsl #8
     86c:	f3000400 	vshl.u8	d0, d0, d0
     870:	d49f5301 	ldrle	r5, [pc], #769	; 878 <_start-0x7788>
     874:	e4000002 	str	r0, [r0], #-2
     878:	01000002 	tsteq	r0, r2
     87c:	02e45300 	rsceq	r5, r4, #0, 6
     880:	032c0000 	teqeq	ip, #0
     884:	00040000 	andeq	r0, r4, r0
     888:	9f5301f3 	svcls	0x005301f3
	...
     894:	000002dc 	ldrdeq	r0, [r0], -ip
     898:	000002e4 	andeq	r0, r0, r4, ror #5
     89c:	9f300002 	svcls	0x00300002
     8a0:	000002e4 	andeq	r0, r0, r4, ror #5
     8a4:	0000032c 	andeq	r0, r0, ip, lsr #6
     8a8:	00540001 	subseq	r0, r4, r1
     8ac:	00000000 	andeq	r0, r0, r0
     8b0:	f4000000 	vst4.8	{d0-d3}, [r0], r0
     8b4:	04000002 	streq	r0, [r0], #-2
     8b8:	01000003 	tsteq	r0, r3
     8bc:	00005000 	andeq	r5, r0, r0
     8c0:	00000000 	andeq	r0, r0, r0
     8c4:	032c0000 	teqeq	ip, #0
     8c8:	03480000 	movteq	r0, #32768	; 0x8000
     8cc:	00010000 	andeq	r0, r1, r0
     8d0:	00034850 	andeq	r4, r3, r0, asr r8
     8d4:	00035c00 	andeq	r5, r3, r0, lsl #24
     8d8:	57000100 	strpl	r0, [r0, -r0, lsl #2]
     8dc:	0000035c 	andeq	r0, r0, ip, asr r3
     8e0:	0000036c 	andeq	r0, r0, ip, ror #6
     8e4:	6c500001 	mrrcvs	0, 0, r0, r0, cr1	; <UNPREDICTABLE>
     8e8:	a4000003 	strge	r0, [r0], #-3
     8ec:	01000003 	tsteq	r0, r3
     8f0:	00005700 	andeq	r5, r0, r0, lsl #14
     8f4:	00000000 	andeq	r0, r0, r0
     8f8:	032c0000 	teqeq	ip, #0
     8fc:	034c0000 	movteq	r0, #49152	; 0xc000
     900:	00010000 	andeq	r0, r1, r0
     904:	00034c51 	andeq	r4, r3, r1, asr ip
     908:	00035c00 	andeq	r5, r3, r0, lsl #24
     90c:	55000100 	strpl	r0, [r0, #-256]	; 0x100
     910:	0000035c 	andeq	r0, r0, ip, asr r3
     914:	0000036c 	andeq	r0, r0, ip, ror #6
     918:	6c510001 	mrrcvs	0, 0, r0, r1, cr1
     91c:	a4000003 	strge	r0, [r0], #-3
     920:	01000003 	tsteq	r0, r3
     924:	00005500 	andeq	r5, r0, r0, lsl #10
     928:	00000000 	andeq	r0, r0, r0
     92c:	032c0000 	teqeq	ip, #0
     930:	03500000 	cmpeq	r0, #0
     934:	00010000 	andeq	r0, r1, r0
     938:	00035052 	andeq	r5, r3, r2, asr r0
     93c:	00035c00 	andeq	r5, r3, r0, lsl #24
     940:	f3000400 	vshl.u8	d0, d0, d0
     944:	5c9f5201 	lfmpl	f5, 4, [pc], {1}
     948:	6c000003 	stcvs	0, cr0, [r0], {3}
     94c:	01000003 	tsteq	r0, r3
     950:	036c5200 	cmneq	ip, #0, 4
     954:	03a40000 			; <UNDEFINED> instruction: 0x03a40000
     958:	00030000 	andeq	r0, r3, r0
     95c:	009f0176 	addseq	r0, pc, r6, ror r1	; <UNPREDICTABLE>
     960:	00000000 	andeq	r0, r0, r0
     964:	2c000000 	stccs	0, cr0, [r0], {-0}
     968:	54000003 	strpl	r0, [r0], #-3
     96c:	01000003 	tsteq	r0, r3
     970:	03545300 	cmpeq	r4, #0, 6
     974:	035c0000 	cmpeq	ip, #0
     978:	00010000 	andeq	r0, r1, r0
     97c:	00035c58 	andeq	r5, r3, r8, asr ip
     980:	00036c00 	andeq	r6, r3, r0, lsl #24
     984:	53000100 	movwpl	r0, #256	; 0x100
     988:	0000036c 	andeq	r0, r0, ip, ror #6
     98c:	000003a4 	andeq	r0, r0, r4, lsr #7
     990:	00580001 	subseq	r0, r8, r1
     994:	00000000 	andeq	r0, r0, r0
     998:	64000000 	strvs	r0, [r0], #-0
     99c:	6c000003 	stcvs	0, cr0, [r0], {3}
     9a0:	02000003 	andeq	r0, r0, #3
     9a4:	6c9f3000 	ldcvs	0, cr3, [pc], {0}
     9a8:	a4000003 	strge	r0, [r0], #-3
     9ac:	01000003 	tsteq	r0, r3
     9b0:	00005400 	andeq	r5, r0, r0, lsl #8
     9b4:	00000000 	andeq	r0, r0, r0
     9b8:	03a40000 			; <UNDEFINED> instruction: 0x03a40000
     9bc:	03c30000 	biceq	r0, r3, #0
     9c0:	00010000 	andeq	r0, r1, r0
     9c4:	0003c351 	andeq	ip, r3, r1, asr r3
     9c8:	00046000 	andeq	r6, r4, r0
     9cc:	f3000400 	vshl.u8	d0, d0, d0
     9d0:	009f5101 	addseq	r5, pc, r1, lsl #2
     9d4:	00000000 	andeq	r0, r0, r0
     9d8:	a4000000 	strge	r0, [r0], #-0
     9dc:	c3000003 	movwgt	r0, #3
     9e0:	01000003 	tsteq	r0, r3
     9e4:	03c35200 	biceq	r5, r3, #0, 4
     9e8:	04600000 	strbteq	r0, [r0], #-0
     9ec:	00040000 	andeq	r0, r4, r0
     9f0:	9f5201f3 	svcls	0x005201f3
	...
     9fc:	000003a4 	andeq	r0, r0, r4, lsr #7
     a00:	000003c3 	andeq	r0, r0, r3, asr #7
     a04:	c3530001 	cmpgt	r3, #1
     a08:	60000003 	andvs	r0, r0, r3
     a0c:	01000004 	tsteq	r0, r4
     a10:	00005500 	andeq	r5, r0, r0, lsl #10
     a14:	00000000 	andeq	r0, r0, r0
     a18:	03e40000 	mvneq	r0, #0
     a1c:	042c0000 	strteq	r0, [ip], #-0
     a20:	00010000 	andeq	r0, r1, r0
     a24:	00042c52 	andeq	r2, r4, r2, asr ip
     a28:	00043800 	andeq	r3, r4, r0, lsl #16
     a2c:	75000600 	strvc	r0, [r0, #-1536]	; 0x600
     a30:	1e007700 	cdpne	7, 0, cr7, cr0, cr0, {0}
     a34:	0004389f 	muleq	r4, pc, r8	; <UNPREDICTABLE>
     a38:	00046000 	andeq	r6, r4, r0
     a3c:	52000100 	andpl	r0, r0, #0, 2
	...
     a48:	00000460 	andeq	r0, r0, r0, ror #8
     a4c:	0000046b 	andeq	r0, r0, fp, ror #8
     a50:	6b500001 	blvs	1400a5c <__bss_end__+0x11fcc04>
     a54:	98000004 	stmdals	r0, {r2}
     a58:	04000004 	streq	r0, [r0], #-4
     a5c:	5001f300 	andpl	pc, r1, r0, lsl #6
     a60:	0000009f 	muleq	r0, pc, r0	; <UNPREDICTABLE>
     a64:	00000000 	andeq	r0, r0, r0
     a68:	00046c00 	andeq	r6, r4, r0, lsl #24
     a6c:	00047800 	andeq	r7, r4, r0, lsl #16
     a70:	50000100 	andpl	r0, r0, r0, lsl #2
	...
     a7c:	00000498 	muleq	r0, r8, r4
     a80:	000004a8 	andeq	r0, r0, r8, lsr #9
     a84:	a8500001 	ldmdage	r0, {r0}^
     a88:	c4000004 	strgt	r0, [r0], #-4
     a8c:	01000004 	tsteq	r0, r4
     a90:	00005500 	andeq	r5, r0, r0, lsl #10
     a94:	00000000 	andeq	r0, r0, r0
     a98:	04980000 	ldreq	r0, [r8], #0
     a9c:	04a80000 	strteq	r0, [r8], #0
     aa0:	00010000 	andeq	r0, r1, r0
     aa4:	0004a851 	andeq	sl, r4, r1, asr r8
     aa8:	0004c400 	andeq	ip, r4, r0, lsl #8
     aac:	54000100 	strpl	r0, [r0], #-256	; 0x100
	...
     ab8:	000004c4 	andeq	r0, r0, r4, asr #9
     abc:	000004e0 	andeq	r0, r0, r0, ror #9
     ac0:	e0500001 	subs	r0, r0, r1
     ac4:	2c000004 	stccs	0, cr0, [r0], {4}
     ac8:	01000005 	tsteq	r0, r5
     acc:	052c5500 	streq	r5, [ip, #-1280]!	; 0x500
     ad0:	05440000 	strbeq	r0, [r4, #-0]
     ad4:	00040000 	andeq	r0, r4, r0
     ad8:	9f5001f3 	svcls	0x005001f3
	...
     ae4:	000004f0 	strdeq	r0, [r0], -r0	; <UNPREDICTABLE>
     ae8:	00000500 	andeq	r0, r0, r0, lsl #10
     aec:	00500001 	subseq	r0, r0, r1
     af0:	14000005 	strne	r0, [r0], #-5
     af4:	01000005 	tsteq	r0, r5
     af8:	05145400 	ldreq	r5, [r4, #-1024]	; 0x400
     afc:	05180000 	ldreq	r0, [r8, #-0]
     b00:	00010000 	andeq	r0, r1, r0
     b04:	00051850 	andeq	r1, r5, r0, asr r8
     b08:	00052c00 	andeq	r2, r5, r0, lsl #24
     b0c:	54000100 	strpl	r0, [r0], #-256	; 0x100
     b10:	0000052c 	andeq	r0, r0, ip, lsr #10
     b14:	00000544 	andeq	r0, r0, r4, asr #10
     b18:	00500001 	subseq	r0, r0, r1
     b1c:	00000000 	andeq	r0, r0, r0
     b20:	44000000 	strmi	r0, [r0], #-0
     b24:	57000005 	strpl	r0, [r0, -r5]
     b28:	01000005 	tsteq	r0, r5
     b2c:	05575000 	ldrbeq	r5, [r7, #-0]
     b30:	058c0000 	streq	r0, [ip]
     b34:	00040000 	andeq	r0, r4, r0
     b38:	9f5001f3 	svcls	0x005001f3
	...
     b44:	00000544 	andeq	r0, r0, r4, asr #10
     b48:	00000557 	andeq	r0, r0, r7, asr r5
     b4c:	57510001 	ldrbpl	r0, [r1, -r1]
     b50:	8c000005 	stchi	0, cr0, [r0], {5}
     b54:	04000005 	streq	r0, [r0], #-5
     b58:	5101f300 	mrspl	pc, SP_irq	; <UNPREDICTABLE>
     b5c:	0000009f 	muleq	r0, pc, r0	; <UNPREDICTABLE>
     b60:	00000000 	andeq	r0, r0, r0
     b64:	00054400 	andeq	r4, r5, r0, lsl #8
     b68:	00055700 	andeq	r5, r5, r0, lsl #14
     b6c:	52000100 	andpl	r0, r0, #0, 2
     b70:	00000557 	andeq	r0, r0, r7, asr r5
     b74:	0000058c 	andeq	r0, r0, ip, lsl #11
     b78:	01f30004 	mvnseq	r0, r4
     b7c:	00009f52 	andeq	r9, r0, r2, asr pc
     b80:	00000000 	andeq	r0, r0, r0
     b84:	05440000 	strbeq	r0, [r4, #-0]
     b88:	05570000 	ldrbeq	r0, [r7, #-0]
     b8c:	00010000 	andeq	r0, r1, r0
     b90:	00055753 	andeq	r5, r5, r3, asr r7
     b94:	00058c00 	andeq	r8, r5, r0, lsl #24
     b98:	f3000400 	vshl.u8	d0, d0, d0
     b9c:	009f5301 	addseq	r5, pc, r1, lsl #6
     ba0:	00000000 	andeq	r0, r0, r0
     ba4:	58000000 	stmdapl	r0, {}	; <UNPREDICTABLE>
     ba8:	64000005 	strvs	r0, [r0], #-5
     bac:	01000005 	tsteq	r0, r5
     bb0:	05785000 	ldrbeq	r5, [r8, #-0]!
     bb4:	058c0000 	streq	r0, [ip]
     bb8:	00010000 	andeq	r0, r1, r0
     bbc:	00000050 	andeq	r0, r0, r0, asr r0
     bc0:	00000000 	andeq	r0, r0, r0
     bc4:	00058c00 	andeq	r8, r5, r0, lsl #24
     bc8:	0005a400 	andeq	sl, r5, r0, lsl #8
     bcc:	50000100 	andpl	r0, r0, r0, lsl #2
     bd0:	000005a4 	andeq	r0, r0, r4, lsr #11
     bd4:	000005b8 			; <UNDEFINED> instruction: 0x000005b8
     bd8:	01f30004 	mvnseq	r0, r4
     bdc:	05b89f50 	ldreq	r9, [r8, #3920]!	; 0xf50
     be0:	05cc0000 	strbeq	r0, [ip]
     be4:	00010000 	andeq	r0, r1, r0
     be8:	0005cc50 	andeq	ip, r5, r0, asr ip
     bec:	00069000 	andeq	r9, r6, r0
     bf0:	f3000400 	vshl.u8	d0, d0, d0
     bf4:	009f5001 	addseq	r5, pc, r1
     bf8:	00000000 	andeq	r0, r0, r0
     bfc:	0c000000 	stceq	0, cr0, [r0], {-0}
     c00:	50000006 	andpl	r0, r0, r6
     c04:	01000006 	tsteq	r0, r6
     c08:	00005000 	andeq	r5, r0, r0
     c0c:	00000000 	andeq	r0, r0, r0
     c10:	060c0000 	streq	r0, [ip], -r0
     c14:	06500000 	ldrbeq	r0, [r0], -r0
     c18:	00060000 	andeq	r0, r6, r0
     c1c:	201a3003 	andscs	r3, sl, r3
     c20:	00009f00 	andeq	r9, r0, r0, lsl #30
     c24:	00000000 	andeq	r0, r0, r0
     c28:	06140000 	ldreq	r0, [r4], -r0
     c2c:	063c0000 	ldrteq	r0, [ip], -r0
     c30:	00010000 	andeq	r0, r1, r0
     c34:	00063c52 	andeq	r3, r6, r2, asr ip
     c38:	00065000 	andeq	r5, r6, r0
     c3c:	03000500 	movweq	r0, #1280	; 0x500
     c40:	00203a34 	eoreq	r3, r0, r4, lsr sl
	...
     c4c:	00000614 	andeq	r0, r0, r4, lsl r6
     c50:	00000650 	andeq	r0, r0, r0, asr r6
     c54:	30030006 	andcc	r0, r3, r6
     c58:	9f00201a 	svcls	0x0000201a
	...
     c64:	00000690 	muleq	r0, r0, r6
     c68:	0000069b 	muleq	r0, fp, r6
     c6c:	9b500001 	blls	1400c78 <__bss_end__+0x11fce20>
     c70:	18000006 	stmdane	r0, {r1, r2}
     c74:	04000007 	streq	r0, [r0], #-7
     c78:	5001f300 	andpl	pc, r1, r0, lsl #6
     c7c:	0000009f 	muleq	r0, pc, r0	; <UNPREDICTABLE>
     c80:	00000000 	andeq	r0, r0, r0
     c84:	00069000 	andeq	r9, r6, r0
     c88:	00069b00 	andeq	r9, r6, r0, lsl #22
     c8c:	51000100 	mrspl	r0, (UNDEF: 16)
     c90:	0000069b 	muleq	r0, fp, r6
     c94:	00000718 	andeq	r0, r0, r8, lsl r7
     c98:	00580001 	subseq	r0, r8, r1
     c9c:	00000000 	andeq	r0, r0, r0
     ca0:	98000000 	stmdals	r0, {}	; <UNPREDICTABLE>
     ca4:	b4000006 	strlt	r0, [r0], #-6
     ca8:	02000006 	andeq	r0, r0, #6
     cac:	e49f3000 	ldr	r3, [pc], #0	; cb4 <_start-0x734c>
     cb0:	f4000006 	vst4.8	{d0-d3}, [r0], r6
     cb4:	01000006 	tsteq	r0, r6
     cb8:	00005900 	andeq	r5, r0, r0, lsl #18
     cbc:	00000000 	andeq	r0, r0, r0
     cc0:	06a00000 	strteq	r0, [r0], r0
     cc4:	06b40000 	ldrteq	r0, [r4], r0
     cc8:	00010000 	andeq	r0, r1, r0
     ccc:	0006b450 	andeq	fp, r6, r0, asr r4
     cd0:	00071800 	andeq	r1, r7, r0, lsl #16
     cd4:	57000100 	strpl	r0, [r0, -r0, lsl #2]
	...
     ce0:	000006a0 	andeq	r0, r0, r0, lsr #13
     ce4:	000006f7 	strdeq	r0, [r0], -r7
     ce8:	f8500001 			; <UNDEFINED> instruction: 0xf8500001
     cec:	08000006 	stmdaeq	r0, {r1, r2}
     cf0:	01000007 	tsteq	r0, r7
     cf4:	00005000 	andeq	r5, r0, r0
     cf8:	00000000 	andeq	r0, r0, r0
     cfc:	06b40000 	ldrteq	r0, [r4], r0
     d00:	06f80000 	ldrbteq	r0, [r8], r0
     d04:	00060000 	andeq	r0, r6, r0
     d08:	201a3003 	andscs	r3, sl, r3
     d0c:	00009f00 	andeq	r9, r0, r0, lsl #30
     d10:	00000000 	andeq	r0, r0, r0
     d14:	06c40000 	strbeq	r0, [r4], r0
     d18:	06f40000 	ldrbteq	r0, [r4], r0
     d1c:	00060000 	andeq	r0, r6, r0
     d20:	001e92f2 			; <UNDEFINED> instruction: 0x001e92f2
	...
     d2c:	06c40000 	strbeq	r0, [r4], r0
     d30:	06f40000 	ldrbteq	r0, [r4], r0
     d34:	00060000 	andeq	r0, r6, r0
     d38:	201a3003 	andscs	r3, sl, r3
     d3c:	00009f00 	andeq	r9, r0, r0, lsl #30
     d40:	00000000 	andeq	r0, r0, r0
     d44:	06d80000 	ldrbeq	r0, [r8], r0
     d48:	06e80000 	strbteq	r0, [r8], r0
     d4c:	00010000 	andeq	r0, r1, r0
     d50:	0006e853 	andeq	lr, r6, r3, asr r8
     d54:	0006f400 	andeq	pc, r6, r0, lsl #8
     d58:	03000500 	movweq	r0, #1280	; 0x500
     d5c:	00203a38 	eoreq	r3, r0, r8, lsr sl
	...
     d6c:	00000090 	muleq	r0, r0, r0
     d70:	90500001 	subsls	r0, r0, r1
     d74:	d4000000 	strle	r0, [r0], #-0
     d78:	01000000 	mrseq	r0, (UNDEF: 0)
     d7c:	00005400 	andeq	r5, r0, r0, lsl #8
     d80:	00000000 	andeq	r0, r0, r0
     d84:	00480000 	subeq	r0, r8, r0
     d88:	004c0000 	subeq	r0, ip, r0
     d8c:	00010000 	andeq	r0, r1, r0
     d90:	00005455 	andeq	r5, r0, r5, asr r4
     d94:	00005800 	andeq	r5, r0, r0, lsl #16
     d98:	55000100 	strpl	r0, [r0, #-256]	; 0x100
     d9c:	00000060 	andeq	r0, r0, r0, rrx
     da0:	00000064 	andeq	r0, r0, r4, rrx
     da4:	6c550001 	mrrcvs	0, 0, r0, r5, cr1
     da8:	70000000 	andvc	r0, r0, r0
     dac:	01000000 	mrseq	r0, (UNDEF: 0)
     db0:	00785500 	rsbseq	r5, r8, r0, lsl #10
     db4:	007c0000 	rsbseq	r0, ip, r0
     db8:	00010000 	andeq	r0, r1, r0
     dbc:	00008455 	andeq	r8, r0, r5, asr r4
     dc0:	00008800 	andeq	r8, r0, r0, lsl #16
     dc4:	55000100 	strpl	r0, [r0, #-256]	; 0x100
     dc8:	0000008c 	andeq	r0, r0, ip, lsl #1
     dcc:	000000d4 	ldrdeq	r0, [r0], -r4
     dd0:	00550001 	subseq	r0, r5, r1
     dd4:	00000000 	andeq	r0, r0, r0
     dd8:	1c000000 	stcne	0, cr0, [r0], {-0}
     ddc:	44000000 	strmi	r0, [r0], #-0
     de0:	01000000 	mrseq	r0, (UNDEF: 0)
     de4:	00445300 	subeq	r5, r4, r0, lsl #6
     de8:	004c0000 	subeq	r0, ip, r0
     dec:	001c0000 	andseq	r0, ip, r0
     df0:	2cf70070 	ldclcs	0, cr0, [r7], #448	; 0x1c0
     df4:	25f425f7 	ldrbcs	r2, [r4, #1527]!	; 0x5f7
     df8:	cccccd08 	stclgt	13, cr12, [ip], {8}
     dfc:	000000cc 	andeq	r0, r0, ip, asr #1
     e00:	20081e00 	andcs	r1, r8, r0, lsl #28
     e04:	f72525f7 			; <UNDEFINED> instruction: 0xf72525f7
     e08:	9f25332c 	svcls	0x0025332c
     e0c:	0000004c 	andeq	r0, r0, ip, asr #32
     e10:	00000050 	andeq	r0, r0, r0, asr r0
     e14:	50530001 	subspl	r0, r3, r1
     e18:	58000000 	stmdapl	r0, {}	; <UNPREDICTABLE>
     e1c:	1c000000 	stcne	0, cr0, [r0], {-0}
     e20:	f7007000 			; <UNDEFINED> instruction: 0xf7007000
     e24:	f425f72c 	vld1.8	{d15}, [r5 :128], ip
     e28:	cccd0825 	stclgt	8, cr0, [sp], {37}	; 0x25
     e2c:	0000cccc 	andeq	ip, r0, ip, asr #25
     e30:	081e0000 	ldmdaeq	lr, {}	; <UNPREDICTABLE>
     e34:	2525f720 	strcs	pc, [r5, #-1824]!	; 0x720
     e38:	25332cf7 	ldrcs	r2, [r3, #-3319]!	; 0xcf7
     e3c:	0000589f 	muleq	r0, pc, r8	; <UNPREDICTABLE>
     e40:	00005c00 	andeq	r5, r0, r0, lsl #24
     e44:	53000100 	movwpl	r0, #256	; 0x100
     e48:	0000005c 	andeq	r0, r0, ip, asr r0
     e4c:	00000064 	andeq	r0, r0, r4, rrx
     e50:	0070001c 	rsbseq	r0, r0, ip, lsl r0
     e54:	25f72cf7 	ldrbcs	r2, [r7, #3319]!	; 0xcf7
     e58:	cd0825f4 	cfstr32gt	mvfx2, [r8, #-976]	; 0xfffffc30
     e5c:	00cccccc 	sbceq	ip, ip, ip, asr #25
     e60:	1e000000 	cdpne	0, 0, cr0, cr0, cr0, {0}
     e64:	25f72008 	ldrbcs	r2, [r7, #8]!
     e68:	332cf725 	msrcc	CPSR_fs, #9699328	; 0x940000
     e6c:	00649f25 	rsbeq	r9, r4, r5, lsr #30
     e70:	00680000 	rsbeq	r0, r8, r0
     e74:	00010000 	andeq	r0, r1, r0
     e78:	00006853 	andeq	r6, r0, r3, asr r8
     e7c:	00007000 	andeq	r7, r0, r0
     e80:	70001c00 	andvc	r1, r0, r0, lsl #24
     e84:	f72cf700 			; <UNDEFINED> instruction: 0xf72cf700
     e88:	0825f425 	stmdaeq	r5!, {r0, r2, r5, sl, ip, sp, lr, pc}
     e8c:	cccccccd 	stclgt	12, cr12, [ip], {205}	; 0xcd
     e90:	00000000 	andeq	r0, r0, r0
     e94:	f720081e 			; <UNDEFINED> instruction: 0xf720081e
     e98:	2cf72525 	cfldr64cs	mvdx2, [r7], #148	; 0x94
     e9c:	709f2533 	addsvc	r2, pc, r3, lsr r5	; <UNPREDICTABLE>
     ea0:	74000000 	strvc	r0, [r0], #-0
     ea4:	01000000 	mrseq	r0, (UNDEF: 0)
     ea8:	00745300 	rsbseq	r5, r4, r0, lsl #6
     eac:	007c0000 	rsbseq	r0, ip, r0
     eb0:	001c0000 	andseq	r0, ip, r0
     eb4:	2cf70070 	ldclcs	0, cr0, [r7], #448	; 0x1c0
     eb8:	25f425f7 	ldrbcs	r2, [r4, #1527]!	; 0x5f7
     ebc:	cccccd08 	stclgt	13, cr12, [ip], {8}
     ec0:	000000cc 	andeq	r0, r0, ip, asr #1
     ec4:	20081e00 	andcs	r1, r8, r0, lsl #28
     ec8:	f72525f7 			; <UNDEFINED> instruction: 0xf72525f7
     ecc:	9f25332c 	svcls	0x0025332c
     ed0:	0000007c 	andeq	r0, r0, ip, ror r0
     ed4:	00000080 	andeq	r0, r0, r0, lsl #1
     ed8:	80530001 	subshi	r0, r3, r1
     edc:	88000000 	stmdahi	r0, {}	; <UNPREDICTABLE>
     ee0:	1c000000 	stcne	0, cr0, [r0], {-0}
     ee4:	f7007000 			; <UNDEFINED> instruction: 0xf7007000
     ee8:	f425f72c 	vld1.8	{d15}, [r5 :128], ip
     eec:	cccd0825 	stclgt	8, cr0, [sp], {37}	; 0x25
     ef0:	0000cccc 	andeq	ip, r0, ip, asr #25
     ef4:	081e0000 	ldmdaeq	lr, {}	; <UNPREDICTABLE>
     ef8:	2525f720 	strcs	pc, [r5, #-1824]!	; 0x720
     efc:	25332cf7 	ldrcs	r2, [r3, #-3319]!	; 0xcf7
     f00:	0000889f 	muleq	r0, pc, r8	; <UNPREDICTABLE>
     f04:	00008c00 	andeq	r8, r0, r0, lsl #24
     f08:	53000100 	movwpl	r0, #256	; 0x100
     f0c:	0000008c 	andeq	r0, r0, ip, lsl #1
     f10:	00000090 	muleq	r0, r0, r0
     f14:	0070001c 	rsbseq	r0, r0, ip, lsl r0
     f18:	25f72cf7 	ldrbcs	r2, [r7, #3319]!	; 0xcf7
     f1c:	cd0825f4 	cfstr32gt	mvfx2, [r8, #-976]	; 0xfffffc30
     f20:	00cccccc 	sbceq	ip, ip, ip, asr #25
     f24:	1e000000 	cdpne	0, 0, cr0, cr0, cr0, {0}
     f28:	25f72008 	ldrbcs	r2, [r7, #8]!
     f2c:	332cf725 	msrcc	CPSR_fs, #9699328	; 0x940000
     f30:	00909f25 	addseq	r9, r0, r5, lsr #30
     f34:	00980000 	addseq	r0, r8, r0
     f38:	001c0000 	andseq	r0, ip, r0
     f3c:	2cf70074 	ldclcs	0, cr0, [r7], #464	; 0x1d0
     f40:	25f425f7 	ldrbcs	r2, [r4, #1527]!	; 0x5f7
     f44:	cccccd08 	stclgt	13, cr12, [ip], {8}
     f48:	000000cc 	andeq	r0, r0, ip, asr #1
     f4c:	20081e00 	andcs	r1, r8, r0, lsl #28
     f50:	f72525f7 			; <UNDEFINED> instruction: 0xf72525f7
     f54:	9f25332c 	svcls	0x0025332c
     f58:	00000098 	muleq	r0, r8, r0
     f5c:	0000009c 	muleq	r0, ip, r0
     f60:	00740017 	rsbseq	r0, r4, r7, lsl r0
     f64:	25f72cf7 	ldrbcs	r2, [r7, #3319]!	; 0xcf7
     f68:	2cf70071 	ldclcs	0, cr0, [r7], #452	; 0x1c4
     f6c:	081e25f7 	ldmdaeq	lr, {r0, r1, r2, r4, r5, r6, r7, r8, sl, sp}
     f70:	2525f720 	strcs	pc, [r5, #-1824]!	; 0x720
     f74:	25332cf7 	ldrcs	r2, [r3, #-3319]!	; 0xcf7
     f78:	00009c9f 	muleq	r0, pc, ip	; <UNPREDICTABLE>
     f7c:	0000d400 	andeq	sp, r0, r0, lsl #8
     f80:	74001c00 	strvc	r1, [r0], #-3072	; 0xc00
     f84:	f72cf700 			; <UNDEFINED> instruction: 0xf72cf700
     f88:	0825f425 	stmdaeq	r5!, {r0, r2, r5, sl, ip, sp, lr, pc}
     f8c:	cccccccd 	stclgt	12, cr12, [ip], {205}	; 0xcd
     f90:	00000000 	andeq	r0, r0, r0
     f94:	f720081e 			; <UNDEFINED> instruction: 0xf720081e
     f98:	2cf72525 	cfldr64cs	mvdx2, [r7], #148	; 0x94
     f9c:	009f2533 	addseq	r2, pc, r3, lsr r5	; <UNPREDICTABLE>
     fa0:	00000000 	andeq	r0, r0, r0
     fa4:	94000000 	strls	r0, [r0], #-0
     fa8:	b8000000 	stmdalt	r0, {}	; <UNPREDICTABLE>
     fac:	01000000 	mrseq	r0, (UNDEF: 0)
     fb0:	00b85000 	adcseq	r5, r8, r0
     fb4:	00c40000 	sbceq	r0, r4, r0
     fb8:	00080000 	andeq	r0, r8, r0
     fbc:	24007131 	strcs	r7, [r0], #-305	; 0x131
     fc0:	9f210073 	svcls	0x00210073
     fc4:	000000c4 	andeq	r0, r0, r4, asr #1
     fc8:	000000c7 	andeq	r0, r0, r7, asr #1
     fcc:	00510001 	subseq	r0, r1, r1
     fd0:	00000000 	andeq	r0, r0, r0
     fd4:	d4000000 	strle	r0, [r0], #-0
     fd8:	f8000000 			; <UNDEFINED> instruction: 0xf8000000
     fdc:	01000000 	mrseq	r0, (UNDEF: 0)
     fe0:	00f85000 	rscseq	r5, r8, r0
     fe4:	010c0000 	mrseq	r0, (UNDEF: 12)
     fe8:	00040000 	andeq	r0, r4, r0
     fec:	9f5001f3 	svcls	0x005001f3
	...
     ff8:	000000e0 	andeq	r0, r0, r0, ror #1
     ffc:	000000e8 	andeq	r0, r0, r8, ror #1
    1000:	9f300002 	svcls	0x00300002
    1004:	000000e8 	andeq	r0, r0, r8, ror #1
    1008:	000000e8 	andeq	r0, r0, r8, ror #1
    100c:	e8520001 	ldmda	r2, {r0}^
    1010:	f0000000 			; <UNDEFINED> instruction: 0xf0000000
    1014:	02000000 	andeq	r0, r0, #0
    1018:	f09f3000 			; <UNDEFINED> instruction: 0xf09f3000
    101c:	03000000 	movweq	r0, #0
    1020:	01000001 	tsteq	r0, r1
    1024:	00005200 	andeq	r5, r0, r0, lsl #4
    1028:	00000000 	andeq	r0, r0, r0
    102c:	00e00000 	rsceq	r0, r0, r0
    1030:	00f40000 	rscseq	r0, r4, r0
    1034:	00020000 	andeq	r0, r2, r0
    1038:	00f49f30 	rscseq	r9, r4, r0, lsr pc
    103c:	01000000 	mrseq	r0, (UNDEF: 0)
    1040:	00050000 	andeq	r0, r5, r0
    1044:	24007331 	strcs	r7, [r0], #-817	; 0x331
    1048:	0001009f 	muleq	r1, pc, r0	; <UNPREDICTABLE>
    104c:	00010300 	andeq	r0, r1, r0, lsl #6
    1050:	51000100 	mrspl	r0, (UNDEF: 16)
    1054:	00000103 	andeq	r0, r0, r3, lsl #2
    1058:	0000010c 	andeq	r0, r0, ip, lsl #2
    105c:	f3310008 	vhadd.u<illegal width 64>	d0, d1, d8
    1060:	1a4f5001 	bne	13d506c <__bss_end__+0x11d1214>
    1064:	00009f24 	andeq	r9, r0, r4, lsr #30
    1068:	00000000 	andeq	r0, r0, r0
    106c:	010c0000 	mrseq	r0, (UNDEF: 12)
    1070:	01300000 	teqeq	r0, r0
    1074:	00010000 	andeq	r0, r1, r0
    1078:	00013050 	andeq	r3, r1, r0, asr r0
    107c:	00014400 	andeq	r4, r1, r0, lsl #8
    1080:	f3000400 	vshl.u8	d0, d0, d0
    1084:	009f5001 	addseq	r5, pc, r1
    1088:	00000000 	andeq	r0, r0, r0
    108c:	18000000 	stmdane	r0, {}	; <UNPREDICTABLE>
    1090:	20000001 	andcs	r0, r0, r1
    1094:	02000001 	andeq	r0, r0, #1
    1098:	209f3000 	addscs	r3, pc, r0
    109c:	20000001 	andcs	r0, r0, r1
    10a0:	01000001 	tsteq	r0, r1
    10a4:	01205200 	teqeq	r0, r0, lsl #4
    10a8:	01280000 	teqeq	r8, r0
    10ac:	00020000 	andeq	r0, r2, r0
    10b0:	01289f30 	teqeq	r8, r0, lsr pc
    10b4:	013b0000 	teqeq	fp, r0
    10b8:	00010000 	andeq	r0, r1, r0
    10bc:	00000052 	andeq	r0, r0, r2, asr r0
    10c0:	00000000 	andeq	r0, r0, r0
    10c4:	00011800 	andeq	r1, r1, r0, lsl #16
    10c8:	00012c00 	andeq	r2, r1, r0, lsl #24
    10cc:	30000200 	andcc	r0, r0, r0, lsl #4
    10d0:	00012c9f 	muleq	r1, pc, ip	; <UNPREDICTABLE>
    10d4:	00013800 	andeq	r3, r1, r0, lsl #16
    10d8:	31000500 	tstcc	r0, r0, lsl #10
    10dc:	9f240073 	svcls	0x00240073
    10e0:	00000138 	andeq	r0, r0, r8, lsr r1
    10e4:	0000013b 	andeq	r0, r0, fp, lsr r1
    10e8:	3b510001 	blcc	14410f4 <__bss_end__+0x123d29c>
    10ec:	44000001 	strmi	r0, [r0], #-1
    10f0:	08000001 	stmdaeq	r0, {r0}
    10f4:	01f33100 	mvnseq	r3, r0, lsl #2
    10f8:	241a4f50 	ldrcs	r4, [sl], #-3920	; 0xf50
    10fc:	0000009f 	muleq	r0, pc, r0	; <UNPREDICTABLE>
    1100:	00000000 	andeq	r0, r0, r0
    1104:	00014400 	andeq	r4, r1, r0, lsl #8
    1108:	0001d400 	andeq	sp, r1, r0, lsl #8
    110c:	50000100 	andpl	r0, r0, r0, lsl #2
    1110:	000001d4 	ldrdeq	r0, [r0], -r4
    1114:	00000210 	andeq	r0, r0, r0, lsl r2
    1118:	00540001 	subseq	r0, r4, r1
    111c:	00000000 	andeq	r0, r0, r0
    1120:	8c000000 	stchi	0, cr0, [r0], {-0}
    1124:	90000001 	andls	r0, r0, r1
    1128:	01000001 	tsteq	r0, r1
    112c:	01985500 	orrseq	r5, r8, r0, lsl #10
    1130:	019c0000 	orrseq	r0, ip, r0
    1134:	00010000 	andeq	r0, r1, r0
    1138:	0001a455 	andeq	sl, r1, r5, asr r4
    113c:	0001a800 	andeq	sl, r1, r0, lsl #16
    1140:	55000100 	strpl	r0, [r0, #-256]	; 0x100
    1144:	000001b0 			; <UNDEFINED> instruction: 0x000001b0
    1148:	000001b4 			; <UNDEFINED> instruction: 0x000001b4
    114c:	bc550001 	mrrclt	0, 0, r0, r5, cr1
    1150:	c0000001 	andgt	r0, r0, r1
    1154:	01000001 	tsteq	r0, r1
    1158:	01c85500 	biceq	r5, r8, r0, lsl #10
    115c:	01cc0000 	biceq	r0, ip, r0
    1160:	00010000 	andeq	r0, r1, r0
    1164:	0001d055 	andeq	sp, r1, r5, asr r0
    1168:	00021000 	andeq	r1, r2, r0
    116c:	55000100 	strpl	r0, [r0, #-256]	; 0x100
	...
    1178:	00000160 	andeq	r0, r0, r0, ror #2
    117c:	00000188 	andeq	r0, r0, r8, lsl #3
    1180:	88530001 	ldmdahi	r3, {r0}^
    1184:	90000001 	andls	r0, r0, r1
    1188:	1c000001 	stcne	0, cr0, [r0], {1}
    118c:	f7007000 			; <UNDEFINED> instruction: 0xf7007000
    1190:	f425f72c 	vld1.8	{d15}, [r5 :128], ip
    1194:	cccd0825 	stclgt	8, cr0, [sp], {37}	; 0x25
    1198:	0000cccc 	andeq	ip, r0, ip, asr #25
    119c:	081e0000 	ldmdaeq	lr, {}	; <UNPREDICTABLE>
    11a0:	2525f720 	strcs	pc, [r5, #-1824]!	; 0x720
    11a4:	25332cf7 	ldrcs	r2, [r3, #-3319]!	; 0xcf7
    11a8:	0001909f 	muleq	r1, pc, r0	; <UNPREDICTABLE>
    11ac:	00019400 	andeq	r9, r1, r0, lsl #8
    11b0:	53000100 	movwpl	r0, #256	; 0x100
    11b4:	00000194 	muleq	r0, r4, r1
    11b8:	0000019c 	muleq	r0, ip, r1
    11bc:	0070001c 	rsbseq	r0, r0, ip, lsl r0
    11c0:	25f72cf7 	ldrbcs	r2, [r7, #3319]!	; 0xcf7
    11c4:	cd0825f4 	cfstr32gt	mvfx2, [r8, #-976]	; 0xfffffc30
    11c8:	00cccccc 	sbceq	ip, ip, ip, asr #25
    11cc:	1e000000 	cdpne	0, 0, cr0, cr0, cr0, {0}
    11d0:	25f72008 	ldrbcs	r2, [r7, #8]!
    11d4:	332cf725 	msrcc	CPSR_fs, #9699328	; 0x940000
    11d8:	019c9f25 	orrseq	r9, ip, r5, lsr #30
    11dc:	01a00000 	moveq	r0, r0
    11e0:	00010000 	andeq	r0, r1, r0
    11e4:	0001a053 	andeq	sl, r1, r3, asr r0
    11e8:	0001a800 	andeq	sl, r1, r0, lsl #16
    11ec:	70001c00 	andvc	r1, r0, r0, lsl #24
    11f0:	f72cf700 			; <UNDEFINED> instruction: 0xf72cf700
    11f4:	0825f425 	stmdaeq	r5!, {r0, r2, r5, sl, ip, sp, lr, pc}
    11f8:	cccccccd 	stclgt	12, cr12, [ip], {205}	; 0xcd
    11fc:	00000000 	andeq	r0, r0, r0
    1200:	f720081e 			; <UNDEFINED> instruction: 0xf720081e
    1204:	2cf72525 	cfldr64cs	mvdx2, [r7], #148	; 0x94
    1208:	a89f2533 	ldmge	pc, {r0, r1, r4, r5, r8, sl, sp}	; <UNPREDICTABLE>
    120c:	ac000001 	stcge	0, cr0, [r0], {1}
    1210:	01000001 	tsteq	r0, r1
    1214:	01ac5300 			; <UNDEFINED> instruction: 0x01ac5300
    1218:	01b40000 			; <UNDEFINED> instruction: 0x01b40000
    121c:	001c0000 	andseq	r0, ip, r0
    1220:	2cf70070 	ldclcs	0, cr0, [r7], #448	; 0x1c0
    1224:	25f425f7 	ldrbcs	r2, [r4, #1527]!	; 0x5f7
    1228:	cccccd08 	stclgt	13, cr12, [ip], {8}
    122c:	000000cc 	andeq	r0, r0, ip, asr #1
    1230:	20081e00 	andcs	r1, r8, r0, lsl #28
    1234:	f72525f7 			; <UNDEFINED> instruction: 0xf72525f7
    1238:	9f25332c 	svcls	0x0025332c
    123c:	000001b4 			; <UNDEFINED> instruction: 0x000001b4
    1240:	000001b8 			; <UNDEFINED> instruction: 0x000001b8
    1244:	b8530001 	ldmdalt	r3, {r0}^
    1248:	c0000001 	andgt	r0, r0, r1
    124c:	1c000001 	stcne	0, cr0, [r0], {1}
    1250:	f7007000 			; <UNDEFINED> instruction: 0xf7007000
    1254:	f425f72c 	vld1.8	{d15}, [r5 :128], ip
    1258:	cccd0825 	stclgt	8, cr0, [sp], {37}	; 0x25
    125c:	0000cccc 	andeq	ip, r0, ip, asr #25
    1260:	081e0000 	ldmdaeq	lr, {}	; <UNPREDICTABLE>
    1264:	2525f720 	strcs	pc, [r5, #-1824]!	; 0x720
    1268:	25332cf7 	ldrcs	r2, [r3, #-3319]!	; 0xcf7
    126c:	0001c09f 	muleq	r1, pc, r0	; <UNPREDICTABLE>
    1270:	0001c400 	andeq	ip, r1, r0, lsl #8
    1274:	53000100 	movwpl	r0, #256	; 0x100
    1278:	000001c4 	andeq	r0, r0, r4, asr #3
    127c:	000001cc 	andeq	r0, r0, ip, asr #3
    1280:	0070001c 	rsbseq	r0, r0, ip, lsl r0
    1284:	25f72cf7 	ldrbcs	r2, [r7, #3319]!	; 0xcf7
    1288:	cd0825f4 	cfstr32gt	mvfx2, [r8, #-976]	; 0xfffffc30
    128c:	00cccccc 	sbceq	ip, ip, ip, asr #25
    1290:	1e000000 	cdpne	0, 0, cr0, cr0, cr0, {0}
    1294:	25f72008 	ldrbcs	r2, [r7, #8]!
    1298:	332cf725 	msrcc	CPSR_fs, #9699328	; 0x940000
    129c:	01cc9f25 	biceq	r9, ip, r5, lsr #30
    12a0:	01d00000 	bicseq	r0, r0, r0
    12a4:	00010000 	andeq	r0, r1, r0
    12a8:	0001d053 	andeq	sp, r1, r3, asr r0
    12ac:	0001d400 	andeq	sp, r1, r0, lsl #8
    12b0:	70001c00 	andvc	r1, r0, r0, lsl #24
    12b4:	f72cf700 			; <UNDEFINED> instruction: 0xf72cf700
    12b8:	0825f425 	stmdaeq	r5!, {r0, r2, r5, sl, ip, sp, lr, pc}
    12bc:	cccccccd 	stclgt	12, cr12, [ip], {205}	; 0xcd
    12c0:	00000000 	andeq	r0, r0, r0
    12c4:	f720081e 			; <UNDEFINED> instruction: 0xf720081e
    12c8:	2cf72525 	cfldr64cs	mvdx2, [r7], #148	; 0x94
    12cc:	d49f2533 	ldrle	r2, [pc], #1331	; 12d4 <_start-0x6d2c>
    12d0:	dc000001 	stcle	0, cr0, [r0], {1}
    12d4:	1c000001 	stcne	0, cr0, [r0], {1}
    12d8:	f7007400 			; <UNDEFINED> instruction: 0xf7007400
    12dc:	f425f72c 	vld1.8	{d15}, [r5 :128], ip
    12e0:	cccd0825 	stclgt	8, cr0, [sp], {37}	; 0x25
    12e4:	0000cccc 	andeq	ip, r0, ip, asr #25
    12e8:	081e0000 	ldmdaeq	lr, {}	; <UNPREDICTABLE>
    12ec:	2525f720 	strcs	pc, [r5, #-1824]!	; 0x720
    12f0:	25332cf7 	ldrcs	r2, [r3, #-3319]!	; 0xcf7
    12f4:	0001dc9f 	muleq	r1, pc, ip	; <UNPREDICTABLE>
    12f8:	0001e000 	andeq	lr, r1, r0
    12fc:	74001700 	strvc	r1, [r0], #-1792	; 0x700
    1300:	f72cf700 			; <UNDEFINED> instruction: 0xf72cf700
    1304:	f7007125 			; <UNDEFINED> instruction: 0xf7007125
    1308:	1e25f72c 	cdpne	7, 2, cr15, cr5, cr12, {1}
    130c:	25f72008 	ldrbcs	r2, [r7, #8]!
    1310:	332cf725 	msrcc	CPSR_fs, #9699328	; 0x940000
    1314:	01e09f25 	mvneq	r9, r5, lsr #30
    1318:	02100000 	andseq	r0, r0, #0
    131c:	001c0000 	andseq	r0, ip, r0
    1320:	2cf70074 	ldclcs	0, cr0, [r7], #464	; 0x1d0
    1324:	25f425f7 	ldrbcs	r2, [r4, #1527]!	; 0x5f7
    1328:	cccccd08 	stclgt	13, cr12, [ip], {8}
    132c:	000000cc 	andeq	r0, r0, ip, asr #1
    1330:	20081e00 	andcs	r1, r8, r0, lsl #28
    1334:	f72525f7 			; <UNDEFINED> instruction: 0xf72525f7
    1338:	9f25332c 	svcls	0x0025332c
	...
    1344:	000001d8 	ldrdeq	r0, [r0], -r8
    1348:	000001fc 	strdeq	r0, [r0], -ip
    134c:	fc500001 	mrrc2	0, 0, r0, r0, cr1	; <UNPREDICTABLE>
    1350:	03000001 	movweq	r0, #1
    1354:	01000002 	tsteq	r0, r2
    1358:	00005100 	andeq	r5, r0, r0, lsl #2
    135c:	00000000 	andeq	r0, r0, r0
    1360:	02100000 	andseq	r0, r0, #0
    1364:	022c0000 	eoreq	r0, ip, #0
    1368:	00010000 	andeq	r0, r1, r0
    136c:	00022c50 	andeq	r2, r2, r0, asr ip
    1370:	00023400 	andeq	r3, r2, r0, lsl #8
    1374:	54000100 	strpl	r0, [r0], #-256	; 0x100
    1378:	00000234 	andeq	r0, r0, r4, lsr r2
    137c:	0000023c 	andeq	r0, r0, ip, lsr r2
    1380:	3c500001 	mrrccc	0, 0, r0, r0, cr1	; <UNPREDICTABLE>
    1384:	44000002 	strmi	r0, [r0], #-2
    1388:	01000002 	tsteq	r0, r2
    138c:	02445400 	subeq	r5, r4, #0, 8
    1390:	02500000 	subseq	r0, r0, #0
    1394:	00040000 	andeq	r0, r4, r0
    1398:	9f5001f3 	svcls	0x005001f3
    139c:	00000250 	andeq	r0, r0, r0, asr r2
    13a0:	00000254 	andeq	r0, r0, r4, asr r2
    13a4:	54500001 	ldrbpl	r0, [r0], #-1
    13a8:	5c000002 	stcpl	0, cr0, [r0], {2}
    13ac:	01000002 	tsteq	r0, r2
    13b0:	00005400 	andeq	r5, r0, r0, lsl #8
    13b4:	00000000 	andeq	r0, r0, r0
    13b8:	02200000 	eoreq	r0, r0, #0
    13bc:	02300000 	eorseq	r0, r0, #0
    13c0:	00020000 	andeq	r0, r2, r0
    13c4:	02309f30 	eorseq	r9, r0, #48, 30	; 0xc0
    13c8:	02340000 	eorseq	r0, r4, #0
    13cc:	00010000 	andeq	r0, r1, r0
    13d0:	00023450 	andeq	r3, r2, r0, asr r4
    13d4:	00024000 	andeq	r4, r2, r0
    13d8:	30000200 	andcc	r0, r0, r0, lsl #4
    13dc:	0002409f 	muleq	r2, pc, r0	; <UNPREDICTABLE>
    13e0:	00024c00 	andeq	r4, r2, r0, lsl #24
    13e4:	50000100 	andpl	r0, r0, r0, lsl #2
	...
    13f0:	0000025c 	andeq	r0, r0, ip, asr r2
    13f4:	00000290 	muleq	r0, r0, r2
    13f8:	90500001 	subsls	r0, r0, r1
    13fc:	a0000002 	andge	r0, r0, r2
    1400:	04000002 	streq	r0, [r0], #-2
    1404:	5001f300 	andpl	pc, r1, r0, lsl #6
    1408:	0002a09f 	muleq	r2, pc, r0	; <UNPREDICTABLE>
    140c:	0002c000 	andeq	ip, r2, r0
    1410:	50000100 	andpl	r0, r0, r0, lsl #2
    1414:	000002c0 	andeq	r0, r0, r0, asr #5
    1418:	000002d4 	ldrdeq	r0, [r0], -r4
    141c:	01f30004 	mvnseq	r0, r4
    1420:	00009f50 	andeq	r9, r0, r0, asr pc
    1424:	00000000 	andeq	r0, r0, r0
    1428:	025c0000 	subseq	r0, ip, #0
    142c:	02940000 	addseq	r0, r4, #0
    1430:	00010000 	andeq	r0, r1, r0
    1434:	00029451 	andeq	r9, r2, r1, asr r4
    1438:	0002a000 	andeq	sl, r2, r0
    143c:	f3000400 	vshl.u8	d0, d0, d0
    1440:	a09f5101 	addsge	r5, pc, r1, lsl #2
    1444:	c4000002 	strgt	r0, [r0], #-2
    1448:	01000002 	tsteq	r0, r2
    144c:	02c45100 	sbceq	r5, r4, #0, 2
    1450:	02d40000 	sbcseq	r0, r4, #0
    1454:	00040000 	andeq	r0, r4, r0
    1458:	9f5101f3 	svcls	0x005101f3
	...
    1464:	00000270 	andeq	r0, r0, r0, ror r2
    1468:	00000290 	muleq	r0, r0, r2
    146c:	90500001 	subsls	r0, r0, r1
    1470:	a0000002 	andge	r0, r0, r2
    1474:	04000002 	streq	r0, [r0], #-2
    1478:	5001f300 	andpl	pc, r1, r0, lsl #6
    147c:	0000009f 	muleq	r0, pc, r0	; <UNPREDICTABLE>
    1480:	00000000 	andeq	r0, r0, r0
    1484:	00027800 	andeq	r7, r2, r0, lsl #16
    1488:	00028000 	andeq	r8, r2, r0
    148c:	30000200 	andcc	r0, r0, r0, lsl #4
    1490:	0002809f 	muleq	r2, pc, r0	; <UNPREDICTABLE>
    1494:	00028000 	andeq	r8, r2, r0
    1498:	52000100 	andpl	r0, r0, #0, 2
    149c:	00000280 	andeq	r0, r0, r0, lsl #5
    14a0:	00000288 	andeq	r0, r0, r8, lsl #5
    14a4:	9f300002 	svcls	0x00300002
    14a8:	00000288 	andeq	r0, r0, r8, lsl #5
    14ac:	0000029b 	muleq	r0, fp, r2
    14b0:	00520001 	subseq	r0, r2, r1
    14b4:	00000000 	andeq	r0, r0, r0
    14b8:	78000000 	stmdavc	r0, {}	; <UNPREDICTABLE>
    14bc:	8c000002 	stchi	0, cr0, [r0], {2}
    14c0:	02000002 	andeq	r0, r0, #2
    14c4:	8c9f3000 	ldchi	0, cr3, [pc], {0}
    14c8:	98000002 	stmdals	r0, {r1}
    14cc:	05000002 	streq	r0, [r0, #-2]
    14d0:	00733100 	rsbseq	r3, r3, r0, lsl #2
    14d4:	02989f24 	addseq	r9, r8, #36, 30	; 0x90
    14d8:	029b0000 	addseq	r0, fp, #0
    14dc:	00010000 	andeq	r0, r1, r0
    14e0:	00029b51 	andeq	r9, r2, r1, asr fp
    14e4:	0002a000 	andeq	sl, r2, r0
    14e8:	31000800 	tstcc	r0, r0, lsl #16
    14ec:	4f5001f3 	svcmi	0x005001f3
    14f0:	009f241a 	addseq	r2, pc, sl, lsl r4	; <UNPREDICTABLE>
    14f4:	00000000 	andeq	r0, r0, r0
    14f8:	a0000000 	andge	r0, r0, r0
    14fc:	c0000002 	andgt	r0, r0, r2
    1500:	01000002 	tsteq	r0, r2
    1504:	02c05000 	sbceq	r5, r0, #0
    1508:	02d40000 	sbcseq	r0, r4, #0
    150c:	00040000 	andeq	r0, r4, r0
    1510:	9f5001f3 	svcls	0x005001f3
	...
    151c:	000002a8 	andeq	r0, r0, r8, lsr #5
    1520:	000002b0 			; <UNDEFINED> instruction: 0x000002b0
    1524:	9f300002 	svcls	0x00300002
    1528:	000002b0 			; <UNDEFINED> instruction: 0x000002b0
    152c:	000002b0 			; <UNDEFINED> instruction: 0x000002b0
    1530:	b0520001 	subslt	r0, r2, r1
    1534:	b8000002 	stmdalt	r0, {r1}
    1538:	02000002 	andeq	r0, r0, #2
    153c:	b89f3000 	ldmlt	pc, {ip, sp}	; <UNPREDICTABLE>
    1540:	cb000002 	blgt	1550 <_start-0x6ab0>
    1544:	01000002 	tsteq	r0, r2
    1548:	00005200 	andeq	r5, r0, r0, lsl #4
    154c:	00000000 	andeq	r0, r0, r0
    1550:	02a80000 	adceq	r0, r8, #0
    1554:	02bc0000 	adcseq	r0, ip, #0
    1558:	00020000 	andeq	r0, r2, r0
    155c:	02bc9f30 	adcseq	r9, ip, #48, 30	; 0xc0
    1560:	02c80000 	sbceq	r0, r8, #0
    1564:	00050000 	andeq	r0, r5, r0
    1568:	24007331 	strcs	r7, [r0], #-817	; 0x331
    156c:	0002c89f 	muleq	r2, pc, r8	; <UNPREDICTABLE>
    1570:	0002cb00 	andeq	ip, r2, r0, lsl #22
    1574:	51000100 	mrspl	r0, (UNDEF: 16)
    1578:	000002cb 	andeq	r0, r0, fp, asr #5
    157c:	000002d4 	ldrdeq	r0, [r0], -r4
    1580:	f3310008 	vhadd.u<illegal width 64>	d0, d1, d8
    1584:	1a4f5001 	bne	13d5590 <__bss_end__+0x11d1738>
    1588:	00009f24 	andeq	r9, r0, r4, lsr #30
    158c:	00000000 	andeq	r0, r0, r0
    1590:	02d40000 	sbcseq	r0, r4, #0
    1594:	036c0000 	cmneq	ip, #0
    1598:	00010000 	andeq	r0, r1, r0
    159c:	00036c50 	andeq	r6, r3, r0, asr ip
    15a0:	0003ac00 	andeq	sl, r3, r0, lsl #24
    15a4:	54000100 	strpl	r0, [r0], #-256	; 0x100
	...
    15b0:	000002d4 	ldrdeq	r0, [r0], -r4
    15b4:	0000036f 	andeq	r0, r0, pc, ror #6
    15b8:	6f510001 	svcvs	0x00510001
    15bc:	ac000003 	stcge	0, cr0, [r0], {3}
    15c0:	04000003 	streq	r0, [r0], #-3
    15c4:	5101f300 	mrspl	pc, SP_irq	; <UNPREDICTABLE>
    15c8:	0000009f 	muleq	r0, pc, r0	; <UNPREDICTABLE>
    15cc:	00000000 	andeq	r0, r0, r0
    15d0:	00032400 	andeq	r2, r3, r0, lsl #8
    15d4:	00032800 	andeq	r2, r3, r0, lsl #16
    15d8:	56000100 	strpl	r0, [r0], -r0, lsl #2
    15dc:	00000330 	andeq	r0, r0, r0, lsr r3
    15e0:	00000334 	andeq	r0, r0, r4, lsr r3
    15e4:	3c560001 	mrrccc	0, 0, r0, r6, cr1
    15e8:	40000003 	andmi	r0, r0, r3
    15ec:	01000003 	tsteq	r0, r3
    15f0:	03485600 	movteq	r5, #34304	; 0x8600
    15f4:	034c0000 	movteq	r0, #49152	; 0xc000
    15f8:	00010000 	andeq	r0, r1, r0
    15fc:	00035456 	andeq	r5, r3, r6, asr r4
    1600:	00035800 	andeq	r5, r3, r0, lsl #16
    1604:	56000100 	strpl	r0, [r0], -r0, lsl #2
    1608:	00000360 	andeq	r0, r0, r0, ror #6
    160c:	00000364 	andeq	r0, r0, r4, ror #6
    1610:	68560001 	ldmdavs	r6, {r0}^
    1614:	ac000003 	stcge	0, cr0, [r0], {3}
    1618:	01000003 	tsteq	r0, r3
    161c:	00005600 	andeq	r5, r0, r0, lsl #12
    1620:	00000000 	andeq	r0, r0, r0
    1624:	02f80000 	rscseq	r0, r8, #0
    1628:	03200000 	teqeq	r0, #0
    162c:	00010000 	andeq	r0, r1, r0
    1630:	00032053 	andeq	r2, r3, r3, asr r0
    1634:	00032800 	andeq	r2, r3, r0, lsl #16
    1638:	70001c00 	andvc	r1, r0, r0, lsl #24
    163c:	f72cf700 			; <UNDEFINED> instruction: 0xf72cf700
    1640:	0825f425 	stmdaeq	r5!, {r0, r2, r5, sl, ip, sp, lr, pc}
    1644:	cccccccd 	stclgt	12, cr12, [ip], {205}	; 0xcd
    1648:	00000000 	andeq	r0, r0, r0
    164c:	f720081e 			; <UNDEFINED> instruction: 0xf720081e
    1650:	2cf72525 	cfldr64cs	mvdx2, [r7], #148	; 0x94
    1654:	289f2533 	ldmcs	pc, {r0, r1, r4, r5, r8, sl, sp}	; <UNPREDICTABLE>
    1658:	2c000003 	stccs	0, cr0, [r0], {3}
    165c:	01000003 	tsteq	r0, r3
    1660:	032c5300 	teqeq	ip, #0, 6
    1664:	03340000 	teqeq	r4, #0
    1668:	001c0000 	andseq	r0, ip, r0
    166c:	2cf70070 	ldclcs	0, cr0, [r7], #448	; 0x1c0
    1670:	25f425f7 	ldrbcs	r2, [r4, #1527]!	; 0x5f7
    1674:	cccccd08 	stclgt	13, cr12, [ip], {8}
    1678:	000000cc 	andeq	r0, r0, ip, asr #1
    167c:	20081e00 	andcs	r1, r8, r0, lsl #28
    1680:	f72525f7 			; <UNDEFINED> instruction: 0xf72525f7
    1684:	9f25332c 	svcls	0x0025332c
    1688:	00000334 	andeq	r0, r0, r4, lsr r3
    168c:	00000338 	andeq	r0, r0, r8, lsr r3
    1690:	38530001 	ldmdacc	r3, {r0}^
    1694:	40000003 	andmi	r0, r0, r3
    1698:	1c000003 	stcne	0, cr0, [r0], {3}
    169c:	f7007000 			; <UNDEFINED> instruction: 0xf7007000
    16a0:	f425f72c 	vld1.8	{d15}, [r5 :128], ip
    16a4:	cccd0825 	stclgt	8, cr0, [sp], {37}	; 0x25
    16a8:	0000cccc 	andeq	ip, r0, ip, asr #25
    16ac:	081e0000 	ldmdaeq	lr, {}	; <UNPREDICTABLE>
    16b0:	2525f720 	strcs	pc, [r5, #-1824]!	; 0x720
    16b4:	25332cf7 	ldrcs	r2, [r3, #-3319]!	; 0xcf7
    16b8:	0003409f 	muleq	r3, pc, r0	; <UNPREDICTABLE>
    16bc:	00034400 	andeq	r4, r3, r0, lsl #8
    16c0:	53000100 	movwpl	r0, #256	; 0x100
    16c4:	00000344 	andeq	r0, r0, r4, asr #6
    16c8:	0000034c 	andeq	r0, r0, ip, asr #6
    16cc:	0070001c 	rsbseq	r0, r0, ip, lsl r0
    16d0:	25f72cf7 	ldrbcs	r2, [r7, #3319]!	; 0xcf7
    16d4:	cd0825f4 	cfstr32gt	mvfx2, [r8, #-976]	; 0xfffffc30
    16d8:	00cccccc 	sbceq	ip, ip, ip, asr #25
    16dc:	1e000000 	cdpne	0, 0, cr0, cr0, cr0, {0}
    16e0:	25f72008 	ldrbcs	r2, [r7, #8]!
    16e4:	332cf725 	msrcc	CPSR_fs, #9699328	; 0x940000
    16e8:	034c9f25 	movteq	r9, #53029	; 0xcf25
    16ec:	03500000 	cmpeq	r0, #0
    16f0:	00010000 	andeq	r0, r1, r0
    16f4:	00035053 	andeq	r5, r3, r3, asr r0
    16f8:	00035800 	andeq	r5, r3, r0, lsl #16
    16fc:	70001c00 	andvc	r1, r0, r0, lsl #24
    1700:	f72cf700 			; <UNDEFINED> instruction: 0xf72cf700
    1704:	0825f425 	stmdaeq	r5!, {r0, r2, r5, sl, ip, sp, lr, pc}
    1708:	cccccccd 	stclgt	12, cr12, [ip], {205}	; 0xcd
    170c:	00000000 	andeq	r0, r0, r0
    1710:	f720081e 			; <UNDEFINED> instruction: 0xf720081e
    1714:	2cf72525 	cfldr64cs	mvdx2, [r7], #148	; 0x94
    1718:	589f2533 	ldmpl	pc, {r0, r1, r4, r5, r8, sl, sp}	; <UNPREDICTABLE>
    171c:	5c000003 	stcpl	0, cr0, [r0], {3}
    1720:	01000003 	tsteq	r0, r3
    1724:	035c5300 	cmpeq	ip, #0, 6
    1728:	03640000 	cmneq	r4, #0
    172c:	001c0000 	andseq	r0, ip, r0
    1730:	2cf70070 	ldclcs	0, cr0, [r7], #448	; 0x1c0
    1734:	25f425f7 	ldrbcs	r2, [r4, #1527]!	; 0x5f7
    1738:	cccccd08 	stclgt	13, cr12, [ip], {8}
    173c:	000000cc 	andeq	r0, r0, ip, asr #1
    1740:	20081e00 	andcs	r1, r8, r0, lsl #28
    1744:	f72525f7 			; <UNDEFINED> instruction: 0xf72525f7
    1748:	9f25332c 	svcls	0x0025332c
    174c:	00000364 	andeq	r0, r0, r4, ror #6
    1750:	00000368 	andeq	r0, r0, r8, ror #6
    1754:	68530001 	ldmdavs	r3, {r0}^
    1758:	6c000003 	stcvs	0, cr0, [r0], {3}
    175c:	1c000003 	stcne	0, cr0, [r0], {3}
    1760:	f7007000 			; <UNDEFINED> instruction: 0xf7007000
    1764:	f425f72c 	vld1.8	{d15}, [r5 :128], ip
    1768:	cccd0825 	stclgt	8, cr0, [sp], {37}	; 0x25
    176c:	0000cccc 	andeq	ip, r0, ip, asr #25
    1770:	081e0000 	ldmdaeq	lr, {}	; <UNPREDICTABLE>
    1774:	2525f720 	strcs	pc, [r5, #-1824]!	; 0x720
    1778:	25332cf7 	ldrcs	r2, [r3, #-3319]!	; 0xcf7
    177c:	00036c9f 	muleq	r3, pc, ip	; <UNPREDICTABLE>
    1780:	00037400 	andeq	r7, r3, r0, lsl #8
    1784:	74001c00 	strvc	r1, [r0], #-3072	; 0xc00
    1788:	f72cf700 			; <UNDEFINED> instruction: 0xf72cf700
    178c:	0825f425 	stmdaeq	r5!, {r0, r2, r5, sl, ip, sp, lr, pc}
    1790:	cccccccd 	stclgt	12, cr12, [ip], {205}	; 0xcd
    1794:	00000000 	andeq	r0, r0, r0
    1798:	f720081e 			; <UNDEFINED> instruction: 0xf720081e
    179c:	2cf72525 	cfldr64cs	mvdx2, [r7], #148	; 0x94
    17a0:	749f2533 	ldrvc	r2, [pc], #1331	; 17a8 <_start-0x6858>
    17a4:	78000003 	stmdavc	r0, {r0, r1}
    17a8:	17000003 	strne	r0, [r0, -r3]
    17ac:	f7007400 			; <UNDEFINED> instruction: 0xf7007400
    17b0:	7325f72c 	msrvc	CPSR_sc, #44, 14	; 0xb00000
    17b4:	f72cf700 			; <UNDEFINED> instruction: 0xf72cf700
    17b8:	20081e25 	andcs	r1, r8, r5, lsr #28
    17bc:	f72525f7 			; <UNDEFINED> instruction: 0xf72525f7
    17c0:	9f25332c 	svcls	0x0025332c
    17c4:	00000378 	andeq	r0, r0, r8, ror r3
    17c8:	000003ac 	andeq	r0, r0, ip, lsr #7
    17cc:	0074001c 	rsbseq	r0, r4, ip, lsl r0
    17d0:	25f72cf7 	ldrbcs	r2, [r7, #3319]!	; 0xcf7
    17d4:	cd0825f4 	cfstr32gt	mvfx2, [r8, #-976]	; 0xfffffc30
    17d8:	00cccccc 	sbceq	ip, ip, ip, asr #25
    17dc:	1e000000 	cdpne	0, 0, cr0, cr0, cr0, {0}
    17e0:	25f72008 	ldrbcs	r2, [r7, #8]!
    17e4:	332cf725 	msrcc	CPSR_fs, #9699328	; 0x940000
    17e8:	00009f25 	andeq	r9, r0, r5, lsr #30
    17ec:	00000000 	andeq	r0, r0, r0
    17f0:	03700000 	cmneq	r0, #0
    17f4:	03940000 	orrseq	r0, r4, #0
    17f8:	00010000 	andeq	r0, r1, r0
    17fc:	00039450 	andeq	r9, r3, r0, asr r4
    1800:	00039c00 	andeq	r9, r3, r0, lsl #24
    1804:	75000900 	strvc	r0, [r0, #-2304]	; 0x900
    1808:	24007300 	strcs	r7, [r0], #-768	; 0x300
    180c:	9f210071 	svcls	0x00210071
    1810:	0000039c 	muleq	r0, ip, r3
    1814:	0000039f 	muleq	r0, pc, r3	; <UNPREDICTABLE>
    1818:	00510001 	subseq	r0, r1, r1
    181c:	00000000 	andeq	r0, r0, r0
    1820:	ac000000 	stcge	0, cr0, [r0], {-0}
    1824:	b8000003 	stmdalt	r0, {r0, r1}
    1828:	01000003 	tsteq	r0, r3
    182c:	03b85000 			; <UNDEFINED> instruction: 0x03b85000
    1830:	03d80000 	bicseq	r0, r8, #0
    1834:	00040000 	andeq	r0, r4, r0
    1838:	9f5001f3 	svcls	0x005001f3
	...
    1844:	000003d8 	ldrdeq	r0, [r0], -r8
    1848:	000003eb 	andeq	r0, r0, fp, ror #7
    184c:	eb500001 	bl	1401858 <__bss_end__+0x11fda00>
    1850:	24000003 	strcs	r0, [r0], #-3
    1854:	01000004 	tsteq	r0, r4
    1858:	04245400 	strteq	r5, [r4], #-1024	; 0x400
    185c:	045c0000 	ldrbeq	r0, [ip], #-0
    1860:	00040000 	andeq	r0, r4, r0
    1864:	9f5001f3 	svcls	0x005001f3
	...
    1870:	00000444 	andeq	r0, r0, r4, asr #8
    1874:	00000448 	andeq	r0, r0, r8, asr #8
    1878:	48500001 	ldmdami	r0, {r0}^
    187c:	4f000004 	svcmi	0x00000004
    1880:	01000004 	tsteq	r0, r4
    1884:	00005100 	andeq	r5, r0, r0, lsl #2
    1888:	00000000 	andeq	r0, r0, r0
    188c:	04000000 	streq	r0, [r0], #-0
    1890:	04080000 	streq	r0, [r8], #-0
    1894:	00010000 	andeq	r0, r1, r0
    1898:	00040850 	andeq	r0, r4, r0, asr r8
    189c:	00040f00 	andeq	r0, r4, r0, lsl #30
    18a0:	51000100 	mrspl	r0, (UNDEF: 16)
	...
    18ac:	00000420 	andeq	r0, r0, r0, lsr #8
    18b0:	0000042c 	andeq	r0, r0, ip, lsr #8
    18b4:	2c500001 	mrrccs	0, 0, r0, r0, cr1	; <UNPREDICTABLE>
    18b8:	33000004 	movwcc	r0, #4
    18bc:	01000004 	tsteq	r0, r4
    18c0:	00005100 	andeq	r5, r0, r0, lsl #2
    18c4:	00000000 	andeq	r0, r0, r0
    18c8:	045c0000 	ldrbeq	r0, [ip], #-0
    18cc:	046f0000 	strbteq	r0, [pc], #-0	; 18d4 <_start-0x672c>
    18d0:	00010000 	andeq	r0, r1, r0
    18d4:	00046f50 	andeq	r6, r4, r0, asr pc
    18d8:	0004a800 	andeq	sl, r4, r0, lsl #16
    18dc:	54000100 	strpl	r0, [r0], #-256	; 0x100
    18e0:	000004a8 	andeq	r0, r0, r8, lsr #9
    18e4:	000004e0 	andeq	r0, r0, r0, ror #9
    18e8:	01f30004 	mvnseq	r0, r4
    18ec:	00009f50 	andeq	r9, r0, r0, asr pc
    18f0:	00000000 	andeq	r0, r0, r0
    18f4:	04c80000 	strbeq	r0, [r8], #0
    18f8:	04cc0000 	strbeq	r0, [ip], #0
    18fc:	00010000 	andeq	r0, r1, r0
    1900:	0004cc50 	andeq	ip, r4, r0, asr ip
    1904:	0004d300 	andeq	sp, r4, r0, lsl #6
    1908:	51000100 	mrspl	r0, (UNDEF: 16)
	...
    1914:	00000484 	andeq	r0, r0, r4, lsl #9
    1918:	0000048c 	andeq	r0, r0, ip, lsl #9
    191c:	8c500001 	mrrchi	0, 0, r0, r0, cr1	; <UNPREDICTABLE>
    1920:	93000004 	movwls	r0, #4
    1924:	01000004 	tsteq	r0, r4
    1928:	00005100 	andeq	r5, r0, r0, lsl #2
    192c:	00000000 	andeq	r0, r0, r0
    1930:	04a40000 	strteq	r0, [r4], #0
    1934:	04b00000 	ldrteq	r0, [r0], #0
    1938:	00010000 	andeq	r0, r1, r0
    193c:	0004b050 	andeq	fp, r4, r0, asr r0
    1940:	0004b700 	andeq	fp, r4, r0, lsl #14
    1944:	51000100 	mrspl	r0, (UNDEF: 16)
	...
    1950:	000004e0 	andeq	r0, r0, r0, ror #9
    1954:	000004f3 	strdeq	r0, [r0], -r3
    1958:	f3500001 	vhadd.u16	d16, d0, d1
    195c:	34000004 	strcc	r0, [r0], #-4
    1960:	01000005 	tsteq	r0, r5
    1964:	05345400 	ldreq	r5, [r4, #-1024]!	; 0x400
    1968:	05580000 	ldrbeq	r0, [r8, #-0]
    196c:	00040000 	andeq	r0, r4, r0
    1970:	9f5001f3 	svcls	0x005001f3
    1974:	00000558 	andeq	r0, r0, r8, asr r5
    1978:	0000055c 	andeq	r0, r0, ip, asr r5
    197c:	5c500001 	mrrcpl	0, 0, r0, r0, cr1	; <UNPREDICTABLE>
    1980:	64000005 	strvs	r0, [r0], #-5
    1984:	01000005 	tsteq	r0, r5
    1988:	00005400 	andeq	r5, r0, r0, lsl #8
    198c:	00000000 	andeq	r0, r0, r0
    1990:	05080000 	streq	r0, [r8, #-0]
    1994:	05170000 	ldreq	r0, [r7, #-0]
    1998:	00080000 	andeq	r0, r8, r0
    199c:	24007431 	strcs	r7, [r0], #-1073	; 0x431
    19a0:	9f1a0070 	svcls	0x001a0070
	...
    19ac:	00000534 	andeq	r0, r0, r4, lsr r5
    19b0:	0000054c 	andeq	r0, r0, ip, asr #10
    19b4:	00540001 	subseq	r0, r4, r1
    19b8:	00000000 	andeq	r0, r0, r0
    19bc:	64000000 	strvs	r0, [r0], #-0
    19c0:	77000005 	strvc	r0, [r0, -r5]
    19c4:	01000005 	tsteq	r0, r5
    19c8:	05775000 	ldrbeq	r5, [r7, #-0]!
    19cc:	059c0000 	ldreq	r0, [ip]
    19d0:	00010000 	andeq	r0, r1, r0
    19d4:	00059c54 	andeq	r9, r5, r4, asr ip
    19d8:	0005bc00 	andeq	fp, r5, r0, lsl #24
    19dc:	f3000400 	vshl.u8	d0, d0, d0
    19e0:	009f5001 	addseq	r5, pc, r1
    19e4:	00000000 	andeq	r0, r0, r0
    19e8:	2c000000 	stccs	0, cr0, [r0], {-0}
    19ec:	38000000 	stmdacc	r0, {}	; <UNPREDICTABLE>
    19f0:	01000000 	mrseq	r0, (UNDEF: 0)
    19f4:	00385000 	eorseq	r5, r8, r0
    19f8:	00480000 	subeq	r0, r8, r0
    19fc:	00010000 	andeq	r0, r1, r0
    1a00:	00004855 	andeq	r4, r0, r5, asr r8
    1a04:	00005800 	andeq	r5, r0, r0, lsl #16
    1a08:	50000100 	andpl	r0, r0, r0, lsl #2
	...
    1a18:	00000010 	andeq	r0, r0, r0, lsl r0
    1a1c:	10500001 	subsne	r0, r0, r1
    1a20:	34000000 	strcc	r0, [r0], #-0
    1a24:	01000000 	mrseq	r0, (UNDEF: 0)
    1a28:	00005400 	andeq	r5, r0, r0, lsl #8
	...
    1a34:	00040000 	andeq	r0, r4, r0
    1a38:	00010000 	andeq	r0, r1, r0
    1a3c:	00000450 	andeq	r0, r0, r0, asr r4
    1a40:	00000c00 	andeq	r0, r0, r0, lsl #24
    1a44:	70000300 	andvc	r0, r0, r0, lsl #6
    1a48:	000c9f30 	andeq	r9, ip, r0, lsr pc
    1a4c:	00140000 	andseq	r0, r4, r0
    1a50:	00040000 	andeq	r0, r4, r0
    1a54:	9f5001f3 	svcls	0x005001f3
	...
    1a60:	00000014 	andeq	r0, r0, r4, lsl r0
    1a64:	00000020 	andeq	r0, r0, r0, lsr #32
    1a68:	20500001 	subscs	r0, r0, r1
    1a6c:	2c000000 	stccs	0, cr0, [r0], {-0}
    1a70:	03000000 	movweq	r0, #0
    1a74:	9f017000 	svcls	0x00017000
    1a78:	0000002c 	andeq	r0, r0, ip, lsr #32
    1a7c:	00000040 	andeq	r0, r0, r0, asr #32
    1a80:	00500001 	subseq	r0, r0, r1
    1a84:	00000000 	andeq	r0, r0, r0
    1a88:	14000000 	strne	r0, [r0], #-0
    1a8c:	18000000 	stmdane	r0, {}	; <UNPREDICTABLE>
    1a90:	01000000 	mrseq	r0, (UNDEF: 0)
    1a94:	00185100 	andseq	r5, r8, r0, lsl #2
    1a98:	00400000 	subeq	r0, r0, r0
    1a9c:	00040000 	andeq	r0, r4, r0
    1aa0:	9f5101f3 	svcls	0x005101f3
	...
    1aac:	00000040 	andeq	r0, r0, r0, asr #32
    1ab0:	00000060 	andeq	r0, r0, r0, rrx
    1ab4:	60500001 	subsvs	r0, r0, r1
    1ab8:	6c000000 	stcvs	0, cr0, [r0], {-0}
    1abc:	03000000 	movweq	r0, #0
    1ac0:	9f017100 	svcls	0x00017100
    1ac4:	0000006c 	andeq	r0, r0, ip, rrx
    1ac8:	00000074 	andeq	r0, r0, r4, ror r0
    1acc:	74510001 	ldrbvc	r0, [r1], #-1
    1ad0:	80000000 	andhi	r0, r0, r0
    1ad4:	03000000 	movweq	r0, #0
    1ad8:	9f017100 	svcls	0x00017100
	...
    1ae4:	00000040 	andeq	r0, r0, r0, asr #32
    1ae8:	00000050 	andeq	r0, r0, r0, asr r0
    1aec:	50510001 	subspl	r0, r1, r1
    1af0:	80000000 	andhi	r0, r0, r0
    1af4:	04000000 	streq	r0, [r0], #-0
    1af8:	5101f300 	mrspl	pc, SP_irq	; <UNPREDICTABLE>
    1afc:	0000009f 	muleq	r0, pc, r0	; <UNPREDICTABLE>
    1b00:	00000000 	andeq	r0, r0, r0
    1b04:	00004000 	andeq	r4, r0, r0
    1b08:	00005800 	andeq	r5, r0, r0, lsl #16
    1b0c:	52000100 	andpl	r0, r0, #0, 2
    1b10:	00000058 	andeq	r0, r0, r8, asr r0
    1b14:	00000064 	andeq	r0, r0, r4, rrx
    1b18:	64520001 	ldrbvs	r0, [r2], #-1
    1b1c:	68000000 	stmdavs	r0, {}	; <UNPREDICTABLE>
    1b20:	03000000 	movweq	r0, #0
    1b24:	9f017200 	svcls	0x00017200
    1b28:	00000068 	andeq	r0, r0, r8, rrx
    1b2c:	00000080 	andeq	r0, r0, r0, lsl #1
    1b30:	00520001 	subseq	r0, r2, r1
    1b34:	00000000 	andeq	r0, r0, r0
    1b38:	40000000 	andmi	r0, r0, r0
    1b3c:	54000000 	strpl	r0, [r0], #-0
    1b40:	01000000 	mrseq	r0, (UNDEF: 0)
    1b44:	00545300 	subseq	r5, r4, r0, lsl #6
    1b48:	00780000 	rsbseq	r0, r8, r0
    1b4c:	00010000 	andeq	r0, r1, r0
    1b50:	00000053 	andeq	r0, r0, r3, asr r0
    1b54:	00000000 	andeq	r0, r0, r0
    1b58:	00004800 	andeq	r4, r0, r0, lsl #16
    1b5c:	00006000 	andeq	r6, r0, r0
    1b60:	5c000100 	stfpls	f0, [r0], {-0}
    1b64:	00000060 	andeq	r0, r0, r0, rrx
    1b68:	00000080 	andeq	r0, r0, r0, lsl #1
    1b6c:	01f3000a 	mvnseq	r0, sl
    1b70:	5301f352 	movwpl	pc, #4946	; 0x1352	; <UNPREDICTABLE>
    1b74:	9f01231c 	svcls	0x0001231c
	...
    1b80:	00000080 	andeq	r0, r0, r0, lsl #1
    1b84:	000000a4 	andeq	r0, r0, r4, lsr #1
    1b88:	a4500001 	ldrbge	r0, [r0], #-1
    1b8c:	18000000 	stmdane	r0, {}	; <UNPREDICTABLE>
    1b90:	03000001 	movweq	r0, #1
    1b94:	9f027000 	svcls	0x00027000
    1b98:	00000118 	andeq	r0, r0, r8, lsl r1
    1b9c:	00000218 	andeq	r0, r0, r8, lsl r2
    1ba0:	01f30004 	mvnseq	r0, r4
    1ba4:	00009f50 	andeq	r9, r0, r0, asr pc
    1ba8:	00000000 	andeq	r0, r0, r0
    1bac:	00800000 	addeq	r0, r0, r0
    1bb0:	00f00000 	rscseq	r0, r0, r0
    1bb4:	00010000 	andeq	r0, r1, r0
    1bb8:	0000f051 	andeq	pc, r0, r1, asr r0	; <UNPREDICTABLE>
    1bbc:	00016000 	andeq	r6, r1, r0
    1bc0:	55000100 	strpl	r0, [r0, #-256]	; 0x100
    1bc4:	00000160 	andeq	r0, r0, r0, ror #2
    1bc8:	00000168 	andeq	r0, r0, r8, ror #2
    1bcc:	68510001 	ldmdavs	r1, {r0}^
    1bd0:	88000001 	stmdahi	r0, {r0}
    1bd4:	01000001 	tsteq	r0, r1
    1bd8:	01885500 	orreq	r5, r8, r0, lsl #10
    1bdc:	019c0000 	orrseq	r0, ip, r0
    1be0:	00010000 	andeq	r0, r1, r0
    1be4:	00019c51 	andeq	r9, r1, r1, asr ip
    1be8:	0001bc00 	andeq	fp, r1, r0, lsl #24
    1bec:	55000100 	strpl	r0, [r0, #-256]	; 0x100
    1bf0:	000001bc 			; <UNDEFINED> instruction: 0x000001bc
    1bf4:	000001c4 	andeq	r0, r0, r4, asr #3
    1bf8:	c4510001 	ldrbgt	r0, [r1], #-1
    1bfc:	fc000001 	stc2	0, cr0, [r0], {1}
    1c00:	01000001 	tsteq	r0, r1
    1c04:	01fc5500 	mvnseq	r5, r0, lsl #10
    1c08:	02180000 	andseq	r0, r8, #0
    1c0c:	00040000 	andeq	r0, r4, r0
    1c10:	9f5101f3 	svcls	0x005101f3
	...
    1c1c:	00000080 	andeq	r0, r0, r0, lsl #1
    1c20:	00000094 	muleq	r0, r4, r0
    1c24:	94520001 	ldrbls	r0, [r2], #-1
    1c28:	fc000000 	stc2	0, cr0, [r0], {-0}
    1c2c:	01000001 	tsteq	r0, r1
    1c30:	01fc5400 	mvnseq	r5, r0, lsl #8
    1c34:	02180000 	andseq	r0, r8, #0
    1c38:	00040000 	andeq	r0, r4, r0
    1c3c:	9f5201f3 	svcls	0x005201f3
	...
    1c48:	00000080 	andeq	r0, r0, r0, lsl #1
    1c4c:	00000100 	andeq	r0, r0, r0, lsl #2
    1c50:	04530001 	ldrbeq	r0, [r3], #-1
    1c54:	08000001 	stmdaeq	r0, {r0}
    1c58:	01000001 	tsteq	r0, r1
    1c5c:	01605300 	cmneq	r0, r0, lsl #6
    1c60:	01680000 	cmneq	r8, r0
    1c64:	00010000 	andeq	r0, r1, r0
    1c68:	00016853 	andeq	r6, r1, r3, asr r8
    1c6c:	00018800 	andeq	r8, r1, r0, lsl #16
    1c70:	f3000400 	vshl.u8	d0, d0, d0
    1c74:	889f5301 	ldmhi	pc, {r0, r8, r9, ip, lr}	; <UNPREDICTABLE>
    1c78:	90000001 	andls	r0, r0, r1
    1c7c:	01000001 	tsteq	r0, r1
    1c80:	01905300 	orrseq	r5, r0, r0, lsl #6
    1c84:	01940000 	orrseq	r0, r4, r0
    1c88:	00010000 	andeq	r0, r1, r0
    1c8c:	0001945c 	andeq	r9, r1, ip, asr r4
    1c90:	00019c00 	andeq	r9, r1, r0, lsl #24
    1c94:	53000100 	movwpl	r0, #256	; 0x100
    1c98:	0000019c 	muleq	r0, ip, r1
    1c9c:	000001bc 			; <UNDEFINED> instruction: 0x000001bc
    1ca0:	01f30004 	mvnseq	r0, r4
    1ca4:	01bc9f53 			; <UNDEFINED> instruction: 0x01bc9f53
    1ca8:	01cc0000 	biceq	r0, ip, r0
    1cac:	00010000 	andeq	r0, r1, r0
    1cb0:	0001cc53 	andeq	ip, r1, r3, asr ip
    1cb4:	0001cf00 	andeq	ip, r1, r0, lsl #30
    1cb8:	5c000100 	stfpls	f0, [r0], {-0}
    1cbc:	000001cf 	andeq	r0, r0, pc, asr #3
    1cc0:	000001d4 	ldrdeq	r0, [r0], -r4
    1cc4:	01f30004 	mvnseq	r0, r4
    1cc8:	00009f53 	andeq	r9, r0, r3, asr pc
    1ccc:	00000000 	andeq	r0, r0, r0
    1cd0:	00800000 	addeq	r0, r0, r0
    1cd4:	009c0000 	addseq	r0, ip, r0
    1cd8:	00020000 	andeq	r0, r2, r0
    1cdc:	009c0091 	umullseq	r0, ip, r1, r0
    1ce0:	01c80000 	biceq	r0, r8, r0
    1ce4:	00010000 	andeq	r0, r1, r0
    1ce8:	0001d452 	andeq	sp, r1, r2, asr r4
    1cec:	0001df00 	andeq	sp, r1, r0, lsl #30
    1cf0:	52000100 	andpl	r0, r0, #0, 2
	...
    1cfc:	0000009c 	muleq	r0, ip, r0
    1d00:	00000118 	andeq	r0, r0, r8, lsl r1
    1d04:	185d0001 	ldmdane	sp, {r0}^
    1d08:	1c000001 	stcne	0, cr0, [r0], {1}
    1d0c:	01000001 	tsteq	r0, r1
    1d10:	011c5300 	tsteq	ip, r0, lsl #6
    1d14:	01200000 	teqeq	r0, r0
    1d18:	00010000 	andeq	r0, r1, r0
    1d1c:	00012051 	andeq	r2, r1, r1, asr r0
    1d20:	00016000 	andeq	r6, r1, r0
    1d24:	53000100 	movwpl	r0, #256	; 0x100
    1d28:	00000160 	andeq	r0, r0, r0, ror #2
    1d2c:	00000168 	andeq	r0, r0, r8, ror #2
    1d30:	685d0001 	ldmdavs	sp, {r0}^
    1d34:	6c000001 	stcvs	0, cr0, [r0], {1}
    1d38:	01000001 	tsteq	r0, r1
    1d3c:	016c5e00 	cmneq	ip, r0, lsl #28
    1d40:	01880000 	orreq	r0, r8, r0
    1d44:	00010000 	andeq	r0, r1, r0
    1d48:	00018853 	andeq	r8, r1, r3, asr r8
    1d4c:	00019000 	andeq	r9, r1, r0
    1d50:	91000400 	tstls	r0, r0, lsl #8
    1d54:	909f7fa1 	addsls	r7, pc, r1, lsr #31
    1d58:	94000001 	strls	r0, [r0], #-1
    1d5c:	01000001 	tsteq	r0, r1
    1d60:	01945300 	orrseq	r5, r4, r0, lsl #6
    1d64:	019c0000 	orrseq	r0, ip, r0
    1d68:	00010000 	andeq	r0, r1, r0
    1d6c:	00019c5d 	andeq	r9, r1, sp, asr ip
    1d70:	0001a000 	andeq	sl, r1, r0
    1d74:	5e000100 	adfpls	f0, f0, f0
    1d78:	000001a0 	andeq	r0, r0, r0, lsr #3
    1d7c:	000001bc 			; <UNDEFINED> instruction: 0x000001bc
    1d80:	bc530001 	mrrclt	0, 0, r0, r3, cr1
    1d84:	d4000001 	strle	r0, [r0], #-1
    1d88:	01000001 	tsteq	r0, r1
    1d8c:	01d45d00 	bicseq	r5, r4, r0, lsl #26
    1d90:	01df0000 	bicseq	r0, pc, r0
    1d94:	00010000 	andeq	r0, r1, r0
    1d98:	00000053 	andeq	r0, r0, r3, asr r0
    1d9c:	00000000 	andeq	r0, r0, r0
    1da0:	0000a000 	andeq	sl, r0, r0
    1da4:	0000ec00 	andeq	lr, r0, r0, lsl #24
    1da8:	5c000100 	stfpls	f0, [r0], {-0}
    1dac:	000000ec 	andeq	r0, r0, ip, ror #1
    1db0:	00000100 	andeq	r0, r0, r0, lsl #2
    1db4:	00530001 	subseq	r0, r3, r1
    1db8:	04000001 	streq	r0, [r0], #-1
    1dbc:	01000001 	tsteq	r0, r1
    1dc0:	01045c00 	tsteq	r4, r0, lsl #24
    1dc4:	01080000 	mrseq	r0, (UNDEF: 8)
    1dc8:	00010000 	andeq	r0, r1, r0
    1dcc:	00010853 	andeq	r0, r1, r3, asr r8
    1dd0:	00011800 	andeq	r1, r1, r0, lsl #16
    1dd4:	5c000100 	stfpls	f0, [r0], {-0}
    1dd8:	00000118 	andeq	r0, r0, r8, lsl r1
    1ddc:	0000011c 	andeq	r0, r0, ip, lsl r1
    1de0:	1c500001 	mrrcne	0, 0, r0, r0, cr1	; <UNPREDICTABLE>
    1de4:	3c000001 	stccc	0, cr0, [r0], {1}
    1de8:	01000001 	tsteq	r0, r1
    1dec:	01445c00 	cmpeq	r4, r0, lsl #24
    1df0:	01580000 	cmpeq	r8, r0
    1df4:	00010000 	andeq	r0, r1, r0
    1df8:	00015850 	andeq	r5, r1, r0, asr r8
    1dfc:	00016000 	andeq	r6, r1, r0
    1e00:	5c000100 	stfpls	f0, [r0], {-0}
    1e04:	00000160 	andeq	r0, r0, r0, ror #2
    1e08:	00000168 	andeq	r0, r0, r8, ror #2
    1e0c:	68530001 	ldmdavs	r3, {r0}^
    1e10:	78000001 	stmdavc	r0, {r0}
    1e14:	01000001 	tsteq	r0, r1
    1e18:	01785c00 	cmneq	r8, r0, lsl #24
    1e1c:	01800000 	orreq	r0, r0, r0
    1e20:	00050000 	andeq	r0, r5, r0
    1e24:	2534007c 	ldrcs	r0, [r4, #-124]!	; 0x7c
    1e28:	0001809f 	muleq	r1, pc, r0	; <UNPREDICTABLE>
    1e2c:	00018800 	andeq	r8, r1, r0, lsl #16
    1e30:	5c000100 	stfpls	f0, [r0], {-0}
    1e34:	00000188 	andeq	r0, r0, r8, lsl #3
    1e38:	00000190 	muleq	r0, r0, r1
    1e3c:	90530001 	subsls	r0, r3, r1
    1e40:	94000001 	strls	r0, [r0], #-1
    1e44:	01000001 	tsteq	r0, r1
    1e48:	01945c00 	orrseq	r5, r4, r0, lsl #24
    1e4c:	019c0000 	orrseq	r0, ip, r0
    1e50:	00010000 	andeq	r0, r1, r0
    1e54:	00019c53 	andeq	r9, r1, r3, asr ip
    1e58:	0001ac00 	andeq	sl, r1, r0, lsl #24
    1e5c:	5c000100 	stfpls	f0, [r0], {-0}
    1e60:	000001ac 	andeq	r0, r0, ip, lsr #3
    1e64:	000001b4 			; <UNDEFINED> instruction: 0x000001b4
    1e68:	007c0005 	rsbseq	r0, ip, r5
    1e6c:	b49f2531 	ldrlt	r2, [pc], #1329	; 1e74 <_start-0x618c>
    1e70:	bc000001 	stclt	0, cr0, [r0], {1}
    1e74:	01000001 	tsteq	r0, r1
    1e78:	01bc5c00 			; <UNDEFINED> instruction: 0x01bc5c00
    1e7c:	01cc0000 	biceq	r0, ip, r0
    1e80:	00010000 	andeq	r0, r1, r0
    1e84:	0001cc53 	andeq	ip, r1, r3, asr ip
    1e88:	0001cf00 	andeq	ip, r1, r0, lsl #30
    1e8c:	5c000100 	stfpls	f0, [r0], {-0}
    1e90:	000001cf 	andeq	r0, r0, pc, asr #3
    1e94:	000001d4 	ldrdeq	r0, [r0], -r4
    1e98:	01f30004 	mvnseq	r0, r4
    1e9c:	01d49f53 	bicseq	r9, r4, r3, asr pc
    1ea0:	01df0000 	bicseq	r0, pc, r0
    1ea4:	00010000 	andeq	r0, r1, r0
    1ea8:	0000005c 	andeq	r0, r0, ip, asr r0
    1eac:	00000000 	andeq	r0, r0, r0
    1eb0:	0000ec00 	andeq	lr, r0, r0, lsl #24
    1eb4:	0000fc00 	andeq	pc, r0, r0, lsl #24
    1eb8:	30000200 	andcc	r0, r0, r0, lsl #4
    1ebc:	0000fc9f 	muleq	r0, pc, ip	; <UNPREDICTABLE>
    1ec0:	00010400 	andeq	r0, r1, r0, lsl #8
    1ec4:	31000200 	mrscc	r0, R8_usr
    1ec8:	0001049f 	muleq	r1, pc, r4	; <UNPREDICTABLE>
    1ecc:	00010800 	andeq	r0, r1, r0, lsl #16
    1ed0:	30000200 	andcc	r0, r0, r0, lsl #4
    1ed4:	0000009f 	muleq	r0, pc, r0	; <UNPREDICTABLE>
    1ed8:	00000000 	andeq	r0, r0, r0
    1edc:	00021800 	andeq	r1, r2, r0, lsl #16
    1ee0:	00022800 	andeq	r2, r2, r0, lsl #16
    1ee4:	50000100 	andpl	r0, r0, r0, lsl #2
    1ee8:	00000228 	andeq	r0, r0, r8, lsr #4
    1eec:	0000023c 	andeq	r0, r0, ip, lsr r2
    1ef0:	01f30004 	mvnseq	r0, r4
    1ef4:	023c9f50 	eorseq	r9, ip, #80, 30	; 0x140
    1ef8:	02680000 	rsbeq	r0, r8, #0
    1efc:	00010000 	andeq	r0, r1, r0
    1f00:	00000050 	andeq	r0, r0, r0, asr r0
    1f04:	00000000 	andeq	r0, r0, r0
    1f08:	00021800 	andeq	r1, r2, r0, lsl #16
    1f0c:	00022c00 	andeq	r2, r2, r0, lsl #24
    1f10:	51000100 	mrspl	r0, (UNDEF: 16)
    1f14:	0000022c 	andeq	r0, r0, ip, lsr #4
    1f18:	0000023c 	andeq	r0, r0, ip, lsr r2
    1f1c:	01f30004 	mvnseq	r0, r4
    1f20:	023c9f51 	eorseq	r9, ip, #324	; 0x144
    1f24:	02680000 	rsbeq	r0, r8, #0
    1f28:	00010000 	andeq	r0, r1, r0
    1f2c:	00000051 	andeq	r0, r0, r1, asr r0
    1f30:	00000000 	andeq	r0, r0, r0
    1f34:	00026800 	andeq	r6, r2, r0, lsl #16
    1f38:	00029000 	andeq	r9, r2, r0
    1f3c:	50000100 	andpl	r0, r0, r0, lsl #2
    1f40:	00000290 	muleq	r0, r0, r2
    1f44:	000004dc 	ldrdeq	r0, [r0], -ip
    1f48:	dc5b0001 	mrrcle	0, 0, r0, fp, cr1
    1f4c:	f0000004 			; <UNDEFINED> instruction: 0xf0000004
    1f50:	04000004 	streq	r0, [r0], #-4
    1f54:	5001f300 	andpl	pc, r1, r0, lsl #6
    1f58:	0000009f 	muleq	r0, pc, r0	; <UNPREDICTABLE>
    1f5c:	00000000 	andeq	r0, r0, r0
    1f60:	00026800 	andeq	r6, r2, r0, lsl #16
    1f64:	00027c00 	andeq	r7, r2, r0, lsl #24
    1f68:	51000100 	mrspl	r0, (UNDEF: 16)
    1f6c:	0000027c 	andeq	r0, r0, ip, ror r2
    1f70:	00000290 	muleq	r0, r0, r2
    1f74:	01710003 	cmneq	r1, r3
    1f78:	0002909f 	muleq	r2, pc, r0	; <UNPREDICTABLE>
    1f7c:	0004f000 	andeq	pc, r4, r0
    1f80:	f3000400 	vshl.u8	d0, d0, d0
    1f84:	009f5101 	addseq	r5, pc, r1, lsl #2
    1f88:	00000000 	andeq	r0, r0, r0
    1f8c:	68000000 	stmdavs	r0, {}	; <UNPREDICTABLE>
    1f90:	98000002 	stmdals	r0, {r1}
    1f94:	01000002 	tsteq	r0, r2
    1f98:	02985200 	addseq	r5, r8, #0, 4
    1f9c:	02c00000 	sbceq	r0, r0, #0
    1fa0:	00010000 	andeq	r0, r1, r0
    1fa4:	0002c052 	andeq	ip, r2, r2, asr r0
    1fa8:	00048c00 	andeq	r8, r4, r0, lsl #24
    1fac:	56000100 	strpl	r0, [r0], -r0, lsl #2
    1fb0:	0000048c 	andeq	r0, r0, ip, lsl #9
    1fb4:	000004f0 	strdeq	r0, [r0], -r0	; <UNPREDICTABLE>
    1fb8:	00520001 	subseq	r0, r2, r1
    1fbc:	00000000 	andeq	r0, r0, r0
    1fc0:	68000000 	stmdavs	r0, {}	; <UNPREDICTABLE>
    1fc4:	84000002 	strhi	r0, [r0], #-2
    1fc8:	01000002 	tsteq	r0, r2
    1fcc:	00005300 	andeq	r5, r0, r0, lsl #6
    1fd0:	00000000 	andeq	r0, r0, r0
    1fd4:	02780000 	rsbseq	r0, r8, #0
    1fd8:	02900000 	addseq	r0, r0, #0
    1fdc:	00010000 	andeq	r0, r1, r0
    1fe0:	00029050 	andeq	r9, r2, r0, asr r0
    1fe4:	00029400 	andeq	r9, r2, r0, lsl #8
    1fe8:	54000100 	strpl	r0, [r0], #-256	; 0x100
    1fec:	00000294 	muleq	r0, r4, r2
    1ff0:	000002a0 	andeq	r0, r0, r0, lsr #5
    1ff4:	01740003 	cmneq	r4, r3
    1ff8:	0002a09f 	muleq	r2, pc, r0	; <UNPREDICTABLE>
    1ffc:	0002ac00 	andeq	sl, r2, r0, lsl #24
    2000:	54000100 	strpl	r0, [r0], #-256	; 0x100
    2004:	000002ac 	andeq	r0, r0, ip, lsr #5
    2008:	000002b8 			; <UNDEFINED> instruction: 0x000002b8
    200c:	01740003 	cmneq	r4, r3
    2010:	0002b89f 	muleq	r2, pc, r8	; <UNPREDICTABLE>
    2014:	00049000 	andeq	r9, r4, r0
    2018:	54000100 	strpl	r0, [r0], #-256	; 0x100
    201c:	00000490 	muleq	r0, r0, r4
    2020:	0000049c 	muleq	r0, ip, r4
    2024:	01740003 	cmneq	r4, r3
    2028:	00049c9f 	muleq	r4, pc, ip	; <UNPREDICTABLE>
    202c:	0004c800 	andeq	ip, r4, r0, lsl #16
    2030:	54000100 	strpl	r0, [r0], #-256	; 0x100
    2034:	000004c8 	andeq	r0, r0, r8, asr #9
    2038:	000004d4 	ldrdeq	r0, [r0], -r4
    203c:	d4500001 	ldrble	r0, [r0], #-1
    2040:	dc000004 	stcle	0, cr0, [r0], {4}
    2044:	03000004 	movweq	r0, #4
    2048:	9f017400 	svcls	0x00017400
	...
    2054:	00000280 	andeq	r0, r0, r0, lsl #5
    2058:	000004dc 	ldrdeq	r0, [r0], -ip
    205c:	dc580001 	mrrcle	0, 0, r0, r8, cr1
    2060:	f0000004 			; <UNDEFINED> instruction: 0xf0000004
    2064:	0a000004 	beq	207c <_start-0x5f84>
    2068:	5101f300 	mrspl	pc, SP_irq	; <UNPREDICTABLE>
    206c:	225001f3 	subscs	r0, r0, #-1073741764	; 0xc000003c
    2070:	009f1c31 	addseq	r1, pc, r1, lsr ip	; <UNPREDICTABLE>
    2074:	00000000 	andeq	r0, r0, r0
    2078:	bc000000 	stclt	0, cr0, [r0], {-0}
    207c:	c0000003 	andgt	r0, r0, r3
    2080:	01000003 	tsteq	r0, r3
    2084:	03e45000 	mvneq	r5, #0
    2088:	03e80000 	mvneq	r0, #0
    208c:	00010000 	andeq	r0, r1, r0
    2090:	00040c50 	andeq	r0, r4, r0, asr ip
    2094:	00041000 	andeq	r1, r4, r0
    2098:	50000100 	andpl	r0, r0, r0, lsl #2
    209c:	00000434 	andeq	r0, r0, r4, lsr r4
    20a0:	00000438 	andeq	r0, r0, r8, lsr r4
    20a4:	40500001 	subsmi	r0, r0, r1
    20a8:	44000004 	strmi	r0, [r0], #-4
    20ac:	01000004 	tsteq	r0, r4
    20b0:	04685000 	strbteq	r5, [r8], #-0
    20b4:	046c0000 	strbteq	r0, [ip], #-0
    20b8:	00010000 	andeq	r0, r1, r0
    20bc:	00048850 	andeq	r8, r4, r0, asr r8
    20c0:	0004b000 	andeq	fp, r4, r0
    20c4:	50000100 	andpl	r0, r0, r0, lsl #2
	...
    20d0:	000002c0 	andeq	r0, r0, r0, asr #5
    20d4:	000002c8 	andeq	r0, r0, r8, asr #5
    20d8:	9f300002 	svcls	0x00300002
    20dc:	000002c8 	andeq	r0, r0, r8, asr #5
    20e0:	000002cc 	andeq	r0, r0, ip, asr #5
    20e4:	d8570001 	ldmdale	r7, {r0}^
    20e8:	b0000002 	andlt	r0, r0, r2
    20ec:	01000004 	tsteq	r0, r4
    20f0:	00005700 	andeq	r5, r0, r0, lsl #14
	...
    20fc:	000b0000 	andeq	r0, fp, r0
    2100:	00010000 	andeq	r0, r1, r0
    2104:	00000b50 	andeq	r0, r0, r0, asr fp
    2108:	00001400 	andeq	r1, r0, r0, lsl #8
    210c:	54000100 	strpl	r0, [r0], #-256	; 0x100
	...
    2118:	000000fc 	strdeq	r0, [r0], -ip
    211c:	00000104 	andeq	r0, r0, r4, lsl #2
    2120:	04500001 	ldrbeq	r0, [r0], #-1
    2124:	28000001 	stmdacs	r0, {r0}
    2128:	01000001 	tsteq	r0, r1
    212c:	00005400 	andeq	r5, r0, r0, lsl #8
    2130:	00000000 	andeq	r0, r0, r0
	...

Disassembly of section .debug_aranges:

00000000 <.debug_aranges>:
   0:	0000001c 	andeq	r0, r0, ip, lsl r0
   4:	00000002 	andeq	r0, r0, r2
   8:	00040000 	andeq	r0, r4, r0
   c:	00000000 	andeq	r0, r0, r0
  10:	00200010 	eoreq	r0, r0, r0, lsl r0
  14:	0000016c 	andeq	r0, r0, ip, ror #2
	...
  20:	0000001c 	andeq	r0, r0, ip, lsl r0
  24:	061b0002 	ldreq	r0, [fp], -r2
  28:	00040000 	andeq	r0, r4, r0
  2c:	00000000 	andeq	r0, r0, r0
  30:	0020017c 	eoreq	r0, r0, ip, ror r1
  34:	00000020 	andeq	r0, r0, r0, lsr #32
	...
  40:	0000001c 	andeq	r0, r0, ip, lsl r0
  44:	06d70002 	ldrbeq	r0, [r7], r2
  48:	00040000 	andeq	r0, r4, r0
  4c:	00000000 	andeq	r0, r0, r0
  50:	0020019c 	mlaeq	r0, ip, r1, r0
  54:	00000028 	andeq	r0, r0, r8, lsr #32
	...
  60:	0000001c 	andeq	r0, r0, ip, lsl r0
  64:	07da0002 	ldrbeq	r0, [sl, r2]
  68:	00040000 	andeq	r0, r4, r0
  6c:	00000000 	andeq	r0, r0, r0
  70:	002001c4 	eoreq	r0, r0, r4, asr #3
  74:	00000074 	andeq	r0, r0, r4, ror r0
	...
  80:	0000001c 	andeq	r0, r0, ip, lsl r0
  84:	098b0002 	stmibeq	fp, {r1}
  88:	00040000 	andeq	r0, r4, r0
  8c:	00000000 	andeq	r0, r0, r0
  90:	00200238 	eoreq	r0, r0, r8, lsr r2
  94:	00000088 	andeq	r0, r0, r8, lsl #1
	...
  a0:	0000001c 	andeq	r0, r0, ip, lsl r0
  a4:	0b670002 	bleq	19c00b4 <__bss_end__+0x17bc25c>
  a8:	00040000 	andeq	r0, r4, r0
  ac:	00000000 	andeq	r0, r0, r0
  b0:	002002c0 	eoreq	r0, r0, r0, asr #5
  b4:	00000718 	andeq	r0, r0, r8, lsl r7
	...
  c0:	0000001c 	andeq	r0, r0, ip, lsl r0
  c4:	209d0002 	addscs	r0, sp, r2
  c8:	00040000 	andeq	r0, r4, r0
  cc:	00000000 	andeq	r0, r0, r0
  d0:	00200a24 	eoreq	r0, r0, r4, lsr #20
  d4:	000005bc 			; <UNDEFINED> instruction: 0x000005bc
	...
  e0:	0000001c 	andeq	r0, r0, ip, lsl r0
  e4:	29700002 	ldmdbcs	r0!, {r1}^
  e8:	00040000 	andeq	r0, r4, r0
  ec:	00000000 	andeq	r0, r0, r0
  f0:	00200fe0 	eoreq	r0, r0, r0, ror #31
  f4:	00000058 	andeq	r0, r0, r8, asr r0
	...
 100:	0000001c 	andeq	r0, r0, ip, lsl r0
 104:	2b050002 	blcs	140114 <_start+0x138114>
 108:	00040000 	andeq	r0, r4, r0
 10c:	00000000 	andeq	r0, r0, r0
 110:	00201038 	eoreq	r1, r0, r8, lsr r0
 114:	00000034 	andeq	r0, r0, r4, lsr r0
	...
 120:	0000001c 	andeq	r0, r0, ip, lsl r0
 124:	2bf70002 	blcs	ffdc0134 <__bss_end__+0xffbbc2dc>
 128:	00040000 	andeq	r0, r4, r0
 12c:	00000000 	andeq	r0, r0, r0
 130:	0020106c 	eoreq	r1, r0, ip, rrx
 134:	000004f0 	strdeq	r0, [r0], -r0	; <UNPREDICTABLE>
	...
 140:	0000001c 	andeq	r0, r0, ip, lsl r0
 144:	324f0002 	subcc	r0, pc, #2
 148:	00040000 	andeq	r0, r4, r0
 14c:	00000000 	andeq	r0, r0, r0
 150:	00201574 	eoreq	r1, r0, r4, ror r5
 154:	00000014 	andeq	r0, r0, r4, lsl r0
	...
 160:	0000001c 	andeq	r0, r0, ip, lsl r0
 164:	33330002 	teqcc	r3, #2
 168:	00040000 	andeq	r0, r4, r0
 16c:	00000000 	andeq	r0, r0, r0
 170:	00201588 	eoreq	r1, r0, r8, lsl #11
 174:	00000154 	andeq	r0, r0, r4, asr r1
	...

Disassembly of section .debug_ranges:

00000000 <.debug_ranges>:
   0:	000000c0 	andeq	r0, r0, r0, asr #1
   4:	000000cc 	andeq	r0, r0, ip, asr #1
   8:	000000d0 	ldrdeq	r0, [r0], -r0	; <UNPREDICTABLE>
   c:	00000100 	andeq	r0, r0, r0, lsl #2
	...
  18:	000000c0 	andeq	r0, r0, r0, asr #1
  1c:	000000c8 	andeq	r0, r0, r8, asr #1
  20:	000000d0 	ldrdeq	r0, [r0], -r0	; <UNPREDICTABLE>
  24:	000000dc 	ldrdeq	r0, [r0], -ip
	...
  30:	000000c8 	andeq	r0, r0, r8, asr #1
  34:	000000cc 	andeq	r0, r0, ip, asr #1
  38:	000000e8 	andeq	r0, r0, r8, ror #1
  3c:	000000f4 	strdeq	r0, [r0], -r4
	...
  48:	002001c4 	eoreq	r0, r0, r4, asr #3
  4c:	00200238 	eoreq	r0, r0, r8, lsr r2
	...
  58:	000006a4 	andeq	r0, r0, r4, lsr #13
  5c:	000006b0 			; <UNDEFINED> instruction: 0x000006b0
  60:	000006b4 			; <UNDEFINED> instruction: 0x000006b4
  64:	000006bc 			; <UNDEFINED> instruction: 0x000006bc
	...

Disassembly of section .debug_line:

00000000 <.debug_line>:
   0:	000001bd 			; <UNDEFINED> instruction: 0x000001bd
   4:	014d0002 	cmpeq	sp, r2
   8:	01020000 	mrseq	r0, (UNDEF: 2)
   c:	000d0efb 	strdeq	r0, [sp], -fp
  10:	01010101 	tsteq	r1, r1, lsl #2
  14:	01000000 	mrseq	r0, (UNDEF: 0)
  18:	2f010000 	svccs	0x00010000
  1c:	2f727375 	svccs	0x00727375
  20:	61636f6c 	cmnvs	r3, ip, ror #30
  24:	65432f6c 	strbvs	r2, [r3, #-3948]	; 0xf6c
  28:	72616c6c 	rsbvc	r6, r1, #108, 24	; 0x6c00
  2c:	6d72612f 	ldfvse	f6, [r2, #-188]!	; 0xffffff44
  30:	6e6f6e2d 	cdpvs	14, 6, cr6, cr15, cr13, {1}
  34:	61652d65 	cmnvs	r5, r5, ror #26
  38:	342f6962 	strtcc	r6, [pc], #-2402	; 40 <_start-0x7fc0>
  3c:	332e382e 	teqcc	lr, #3014656	; 0x2e0000
  40:	3173632d 	cmncc	r3, sp, lsr #6
  44:	2f653037 	svccs	0x00653037
  48:	2f62696c 	svccs	0x0062696c
  4c:	2f636367 	svccs	0x00636367
  50:	2d6d7261 	sfmcs	f7, 2, [sp, #-388]!	; 0xfffffe7c
  54:	656e6f6e 	strbvs	r6, [lr, #-3950]!	; 0xf6e
  58:	6261652d 	rsbvs	r6, r1, #188743680	; 0xb400000
  5c:	2e342f69 	cdpcs	15, 3, cr2, cr4, cr9, {3}
  60:	2f332e38 	svccs	0x00332e38
  64:	6c636e69 	stclvs	14, cr6, [r3], #-420	; 0xfffffe5c
  68:	00656475 	rsbeq	r6, r5, r5, ror r4
  6c:	6573552f 	ldrbvs	r5, [r3, #-1327]!	; 0x52f
  70:	622f7372 	eorvs	r7, pc, #-939524095	; 0xc8000001
  74:	6e616972 	mcrvs	9, 3, r6, cr1, cr2, {3}
  78:	2f6e756a 	svccs	0x006e756a
  7c:	6b736544 	blvs	1cd9594 <__bss_end__+0x1ad573c>
  80:	2f706f74 	svccs	0x00706f74
  84:	6f686373 	svcvs	0x00686373
  88:	572f6c6f 	strpl	r6, [pc, -pc, ror #24]!
  8c:	65746e69 	ldrbvs	r6, [r4, #-3689]!	; 0xe69
  90:	32393172 	eorscc	r3, r9, #-2147483620	; 0x8000001c
  94:	53432f30 	movtpl	r2, #16176	; 0x3f30
  98:	45303431 	ldrmi	r3, [r0, #-1073]!	; 0x431
  9c:	3173632f 	cmncc	r3, pc, lsr #6
  a0:	2d653034 	stclcs	0, cr3, [r5, #-208]!	; 0xffffff30
  a4:	69773032 	ldmdbvs	r7!, {r1, r4, r5, ip, sp}^
  a8:	696c2f6e 	stmdbvs	ip!, {r1, r2, r3, r5, r6, r8, r9, sl, fp, sp}^
  ac:	2f697062 	svccs	0x00697062
  b0:	34317363 	ldrtcc	r7, [r1], #-867	; 0x363
  b4:	732d6530 	teqvc	sp, #48, 10	; 0xc000000
  b8:	2e006372 	mcrcs	3, 0, r6, cr0, cr2, {3}
  bc:	68732f2e 	ldmdavs	r3!, {r1, r2, r3, r5, r8, r9, sl, fp, sp}^
  c0:	64657261 	strbtvs	r7, [r5], #-609	; 0x261
  c4:	646f632d 	strbtvs	r6, [pc], #-813	; cc <_start-0x7f34>
  c8:	552f0065 	strpl	r0, [pc, #-101]!	; 6b <_start-0x7f95>
  cc:	73726573 	cmnvc	r2, #482344960	; 0x1cc00000
  d0:	6972622f 	ldmdbvs	r2!, {r0, r1, r2, r3, r5, r9, sp, lr}^
  d4:	756a6e61 	strbvc	r6, [sl, #-3681]!	; 0xe61
  d8:	65442f6e 	strbvs	r2, [r4, #-3950]	; 0xf6e
  dc:	6f746b73 	svcvs	0x00746b73
  e0:	63732f70 	cmnvs	r3, #112, 30	; 0x1c0
  e4:	6c6f6f68 	stclvs	15, cr6, [pc], #-416	; ffffff4c <__bss_end__+0xffdfc0f4>
  e8:	6e69572f 	cdpvs	7, 6, cr5, cr9, cr15, {1}
  ec:	31726574 	cmncc	r2, r4, ror r5
  f0:	2f303239 	svccs	0x00303239
  f4:	34315343 	ldrtcc	r5, [r1], #-835	; 0x343
  f8:	632f4530 	teqvs	pc, #48, 10	; 0xc000000
  fc:	30343173 	eorscc	r3, r4, r3, ror r1
 100:	30322d65 	eorscc	r2, r2, r5, ror #26
 104:	2f6e6977 	svccs	0x006e6977
 108:	7062696c 	rsbvc	r6, r2, ip, ror #18
 10c:	62000069 	andvs	r0, r0, #105	; 0x69
 110:	6c746f6f 	ldclvs	15, cr6, [r4], #-444	; 0xfffffe44
 114:	6564616f 	strbvs	r6, [r4, #-367]!	; 0x16f
 118:	00632e72 	rsbeq	r2, r3, r2, ror lr
 11c:	73000000 	movwvc	r0, #0
 120:	6e696474 	mcrvs	4, 3, r6, cr9, cr4, {3}
 124:	63672d74 	cmnvs	r7, #116, 26	; 0x1d00
 128:	00682e63 	rsbeq	r2, r8, r3, ror #28
 12c:	73000001 	movwvc	r0, #1
 130:	61752d77 	cmnvs	r5, r7, ror sp
 134:	682e7472 	stmdavs	lr!, {r1, r4, r5, r6, sl, ip, sp, lr}
 138:	00000200 	andeq	r0, r0, r0, lsl #4
 13c:	706d6973 	rsbvc	r6, sp, r3, ror r9
 140:	622d656c 	eorvs	r6, sp, #108, 10	; 0x1b000000
 144:	2e746f6f 	cdpcs	15, 7, cr6, cr4, cr15, {3}
 148:	00030068 	andeq	r0, r3, r8, rrx
 14c:	69707200 	ldmdbvs	r0!, {r9, ip, sp, lr}^
 150:	0400682e 	streq	r6, [r0], #-2094	; 0x82e
 154:	00000000 	andeq	r0, r0, r0
 158:	00100205 	andseq	r0, r0, r5, lsl #4
 15c:	cd030020 	stcgt	0, cr0, [r3, #-128]	; 0xffffff80
 160:	59030100 	stmdbpl	r3, {r8}
 164:	082b034a 	stmdaeq	fp!, {r1, r3, r6, r8, r9}
 168:	04020090 	streq	r0, [r2], #-144	; 0x90
 16c:	004a0602 	subeq	r0, sl, r2, lsl #12
 170:	2e010402 	cdpcs	4, 0, cr0, cr1, cr2, {0}
 174:	82550306 	subshi	r0, r5, #402653184	; 0x18000000
 178:	03820f03 	orreq	r0, r2, #3, 30
 17c:	10032e71 	andne	r2, r3, r1, ror lr
 180:	2e700366 	cdpcs	3, 7, cr0, cr0, cr6, {3}
 184:	00ba2e03 	adcseq	r2, sl, r3, lsl #28
 188:	03020402 	movweq	r0, #9218	; 0x2402
 18c:	02004a52 	andeq	r4, r0, #335872	; 0x52000
 190:	2e030204 	cdpcs	2, 0, cr0, cr3, cr4, {0}
 194:	0402004a 	streq	r0, [r2], #-74	; 0x4a
 198:	062e0601 	strteq	r0, [lr], -r1, lsl #12
 19c:	4a035068 	bmi	d4344 <_start+0xcc344>
 1a0:	00d8032e 	sbcseq	r0, r8, lr, lsr #6
 1a4:	7fa80366 	svcvc	0x00a80366
 1a8:	00d6032e 	sbcseq	r0, r6, lr, lsr #6
 1ac:	02007408 	andeq	r7, r0, #8, 8	; 0x8000000
 1b0:	034c0104 	movteq	r0, #49412	; 0xc104
 1b4:	084bd60d 	stmdaeq	fp, {r0, r2, r3, r9, sl, ip, lr, pc}^
 1b8:	2e0b035a 	mcrcs	3, 0, r0, cr11, cr10, {2}
 1bc:	01000802 	tsteq	r0, r2, lsl #16
 1c0:	00004301 	andeq	r4, r0, r1, lsl #6
 1c4:	29000200 	stmdbcs	r0, {r9}
 1c8:	02000000 	andeq	r0, r0, #0
 1cc:	0d0efb01 	vstreq	d15, [lr, #-4]
 1d0:	01010100 	mrseq	r0, (UNDEF: 17)
 1d4:	00000001 	andeq	r0, r0, r1
 1d8:	01000001 	tsteq	r0, r1
 1dc:	34317363 	ldrtcc	r7, [r1], #-867	; 0x363
 1e0:	732d6530 	teqvc	sp, #48, 10	; 0xc000000
 1e4:	00006372 	andeq	r6, r0, r2, ror r3
 1e8:	68636163 	stmdavs	r3!, {r0, r1, r5, r6, r8, sp, lr}^
 1ec:	00632e65 	rsbeq	r2, r3, r5, ror #28
 1f0:	00000001 	andeq	r0, r0, r1
 1f4:	7c020500 	cfstr32vc	mvfx0, [r2], {-0}
 1f8:	14002001 	strne	r2, [r0], #-1
 1fc:	4e2f3014 	miaTTmi	acc0, r4, r3
 200:	022f3114 	eoreq	r3, pc, #20, 2
 204:	01010004 	tsteq	r1, r4
 208:	00000093 	muleq	r0, r3, r0
 20c:	007d0002 	rsbseq	r0, sp, r2
 210:	01020000 	mrseq	r0, (UNDEF: 2)
 214:	000d0efb 	strdeq	r0, [sp], -fp
 218:	01010101 	tsteq	r1, r1, lsl #2
 21c:	01000000 	mrseq	r0, (UNDEF: 0)
 220:	63010000 	movwvs	r0, #4096	; 0x1000
 224:	30343173 	eorscc	r3, r4, r3, ror r1
 228:	72732d65 	rsbsvc	r2, r3, #6464	; 0x1940
 22c:	552f0063 	strpl	r0, [pc, #-99]!	; 1d1 <_start-0x7e2f>
 230:	73726573 	cmnvc	r2, #482344960	; 0x1cc00000
 234:	6972622f 	ldmdbvs	r2!, {r0, r1, r2, r3, r5, r9, sp, lr}^
 238:	756a6e61 	strbvc	r6, [sl, #-3681]!	; 0xe61
 23c:	65442f6e 	strbvs	r2, [r4, #-3950]	; 0xf6e
 240:	6f746b73 	svcvs	0x00746b73
 244:	63732f70 	cmnvs	r3, #112, 30	; 0x1c0
 248:	6c6f6f68 	stclvs	15, cr6, [pc], #-416	; b0 <_start-0x7f50>
 24c:	6e69572f 	cdpvs	7, 6, cr5, cr9, cr15, {1}
 250:	31726574 	cmncc	r2, r4, ror r5
 254:	2f303239 	svccs	0x00303239
 258:	34315343 	ldrtcc	r5, [r1], #-835	; 0x343
 25c:	632f4530 	teqvs	pc, #48, 10	; 0xc000000
 260:	30343173 	eorscc	r3, r4, r3, ror r1
 264:	30322d65 	eorscc	r2, r2, r5, ror #26
 268:	2f6e6977 	svccs	0x006e6977
 26c:	7062696c 	rsbvc	r6, r2, ip, ror #18
 270:	63000069 	movwvs	r0, #105	; 0x69
 274:	6e61656c 	cdpvs	5, 6, cr6, cr1, cr12, {3}
 278:	6265722d 	rsbvs	r7, r5, #-805306366	; 0xd0000002
 27c:	2e746f6f 	cdpcs	15, 7, cr6, cr4, cr15, {3}
 280:	00010063 	andeq	r0, r1, r3, rrx
 284:	69707200 	ldmdbvs	r0!, {r9, ip, sp, lr}^
 288:	0200682e 	andeq	r6, r0, #3014656	; 0x2e0000
 28c:	00000000 	andeq	r0, r0, r0
 290:	019c0205 	orrseq	r0, ip, r5, lsl #4
 294:	2f150020 	svccs	0x00150020
 298:	06024b83 	streq	r4, [r2], -r3, lsl #23
 29c:	99010100 	stmdbls	r1, {r8}
 2a0:	02000000 	andeq	r0, r0, #0
 2a4:	00007700 	andeq	r7, r0, r0, lsl #14
 2a8:	fb010200 	blx	40ab2 <_start+0x38ab2>
 2ac:	01000d0e 	tsteq	r0, lr, lsl #26
 2b0:	00010101 	andeq	r0, r1, r1, lsl #2
 2b4:	00010000 	andeq	r0, r1, r0
 2b8:	73630100 	cmnvc	r3, #0, 2
 2bc:	65303431 	ldrvs	r3, [r0, #-1073]!	; 0x431
 2c0:	6372732d 	cmnvs	r2, #-1275068416	; 0xb4000000
 2c4:	73552f00 	cmpvc	r5, #0, 30
 2c8:	2f737265 	svccs	0x00737265
 2cc:	61697262 	cmnvs	r9, r2, ror #4
 2d0:	6e756a6e 	vsubvs.f32	s13, s10, s29
 2d4:	7365442f 	cmnvc	r5, #788529152	; 0x2f000000
 2d8:	706f746b 	rsbvc	r7, pc, fp, ror #8
 2dc:	6863732f 	stmdavs	r3!, {r0, r1, r2, r3, r5, r8, r9, ip, sp, lr}^
 2e0:	2f6c6f6f 	svccs	0x006c6f6f
 2e4:	746e6957 	strbtvc	r6, [lr], #-2391	; 0x957
 2e8:	39317265 	ldmdbcc	r1!, {r0, r2, r5, r6, r9, ip, sp, lr}
 2ec:	432f3032 	teqmi	pc, #50	; 0x32
 2f0:	30343153 	eorscc	r3, r4, r3, asr r1
 2f4:	73632f45 	cmnvc	r3, #276	; 0x114
 2f8:	65303431 	ldrvs	r3, [r0, #-1073]!	; 0x431
 2fc:	7730322d 	ldrvc	r3, [r0, -sp, lsr #4]!
 300:	6c2f6e69 	stcvs	14, cr6, [pc], #-420	; 164 <_start-0x7e9c>
 304:	69706269 	ldmdbvs	r0!, {r0, r3, r5, r6, r9, sp, lr}^
 308:	65720000 	ldrbvs	r0, [r2, #-0]!
 30c:	746f6f62 	strbtvc	r6, [pc], #-3938	; 314 <_start-0x7cec>
 310:	0100632e 	tsteq	r0, lr, lsr #6
 314:	70720000 	rsbsvc	r0, r2, r0
 318:	00682e69 	rsbeq	r2, r8, r9, ror #28
 31c:	00000002 	andeq	r0, r0, r2
 320:	c4020500 	strgt	r0, [r2], #-1280	; 0x500
 324:	03002001 	movweq	r2, #1
 328:	3114010d 	tstcc	r4, sp, lsl #2
 32c:	2f15852f 	svccs	0x0015852f
 330:	672f4d4b 	strvs	r4, [pc, -fp, asr #26]!
 334:	02675235 	rsbeq	r5, r7, #1342177283	; 0x50000003
 338:	01010010 	tsteq	r1, r0, lsl r0
 33c:	000000a3 	andeq	r0, r0, r3, lsr #1
 340:	00760002 	rsbseq	r0, r6, r2
 344:	01020000 	mrseq	r0, (UNDEF: 2)
 348:	000d0efb 	strdeq	r0, [sp], -fp
 34c:	01010101 	tsteq	r1, r1, lsl #2
 350:	01000000 	mrseq	r0, (UNDEF: 0)
 354:	63010000 	movwvs	r0, #4096	; 0x1000
 358:	30343173 	eorscc	r3, r4, r3, ror r1
 35c:	72732d65 	rsbsvc	r2, r3, #6464	; 0x1940
 360:	552f0063 	strpl	r0, [pc, #-99]!	; 305 <_start-0x7cfb>
 364:	73726573 	cmnvc	r2, #482344960	; 0x1cc00000
 368:	6972622f 	ldmdbvs	r2!, {r0, r1, r2, r3, r5, r9, sp, lr}^
 36c:	756a6e61 	strbvc	r6, [sl, #-3681]!	; 0xe61
 370:	65442f6e 	strbvs	r2, [r4, #-3950]	; 0xf6e
 374:	6f746b73 	svcvs	0x00746b73
 378:	63732f70 	cmnvs	r3, #112, 30	; 0x1c0
 37c:	6c6f6f68 	stclvs	15, cr6, [pc], #-416	; 1e4 <_start-0x7e1c>
 380:	6e69572f 	cdpvs	7, 6, cr5, cr9, cr15, {1}
 384:	31726574 	cmncc	r2, r4, ror r5
 388:	2f303239 	svccs	0x00303239
 38c:	34315343 	ldrtcc	r5, [r1], #-835	; 0x343
 390:	632f4530 	teqvs	pc, #48, 10	; 0xc000000
 394:	30343173 	eorscc	r3, r4, r3, ror r1
 398:	30322d65 	eorscc	r2, r2, r5, ror #26
 39c:	2f6e6977 	svccs	0x006e6977
 3a0:	7062696c 	rsbvc	r6, r2, ip, ror #18
 3a4:	74000069 	strvc	r0, [r0], #-105	; 0x69
 3a8:	72656d69 	rsbvc	r6, r5, #6720	; 0x1a40
 3ac:	0100632e 	tsteq	r0, lr, lsr #6
 3b0:	70720000 	rsbsvc	r0, r2, r0
 3b4:	00682e69 	rsbeq	r2, r8, r9, ror #28
 3b8:	00000002 	andeq	r0, r0, r2
 3bc:	38020500 	stmdacc	r2, {r8, sl}
 3c0:	16002002 	strne	r2, [r0], -r2
 3c4:	002d2f13 	eoreq	r2, sp, r3, lsl pc
 3c8:	06010402 	streq	r0, [r1], -r2, lsl #8
 3cc:	3168062e 	cmncc	r8, lr, lsr #12
 3d0:	324d4b2f 	subcc	r4, sp, #48128	; 0xbc00
 3d4:	4c4b3031 	mcrrmi	0, 3, r3, fp, cr1
 3d8:	2f2f6a2f 	svccs	0x002f6a2f
 3dc:	08022f84 	stmdaeq	r2, {r2, r7, r8, r9, sl, fp, sp}
 3e0:	1c010100 	stfnes	f0, [r1], {-0}
 3e4:	02000004 	andeq	r0, r0, #4
 3e8:	00023600 	andeq	r3, r2, r0, lsl #12
 3ec:	fb010200 	blx	40bf6 <_start+0x38bf6>
 3f0:	01000d0e 	tsteq	r0, lr, lsl #26
 3f4:	00010101 	andeq	r0, r1, r1, lsl #2
 3f8:	00010000 	andeq	r0, r1, r0
 3fc:	796d0100 	stmdbvc	sp!, {r8}^
 400:	6372732d 	cmnvs	r2, #-1275068416	; 0xb4000000
 404:	73552f00 	cmpvc	r5, #0, 30
 408:	2f737265 	svccs	0x00737265
 40c:	61697262 	cmnvs	r9, r2, ror #4
 410:	6e756a6e 	vsubvs.f32	s13, s10, s29
 414:	7365442f 	cmnvc	r5, #788529152	; 0x2f000000
 418:	706f746b 	rsbvc	r7, pc, fp, ror #8
 41c:	6863732f 	stmdavs	r3!, {r0, r1, r2, r3, r5, r8, r9, ip, sp, lr}^
 420:	2f6c6f6f 	svccs	0x006c6f6f
 424:	746e6957 	strbtvc	r6, [lr], #-2391	; 0x957
 428:	39317265 	ldmdbcc	r1!, {r0, r2, r5, r6, r9, ip, sp, lr}
 42c:	432f3032 	teqmi	pc, #50	; 0x32
 430:	30343153 	eorscc	r3, r4, r3, asr r1
 434:	73632f45 	cmnvc	r3, #276	; 0x114
 438:	65303431 	ldrvs	r3, [r0, #-1073]!	; 0x431
 43c:	7730322d 	ldrvc	r3, [r0, -sp, lsr #4]!
 440:	6c2f6e69 	stcvs	14, cr6, [pc], #-420	; 2a4 <_start-0x7d5c>
 444:	69706269 	ldmdbvs	r0!, {r0, r3, r5, r6, r9, sp, lr}^
 448:	3173632f 	cmncc	r3, pc, lsr #6
 44c:	2d653034 	stclcs	0, cr3, [r5, #-208]!	; 0xffffff30
 450:	00637273 	rsbeq	r7, r3, r3, ror r2
 454:	6573552f 	ldrbvs	r5, [r3, #-1327]!	; 0x52f
 458:	622f7372 	eorvs	r7, pc, #-939524095	; 0xc8000001
 45c:	6e616972 	mcrvs	9, 3, r6, cr1, cr2, {3}
 460:	2f6e756a 	svccs	0x006e756a
 464:	6b736544 	blvs	1cd997c <__bss_end__+0x1ad5b24>
 468:	2f706f74 	svccs	0x00706f74
 46c:	6f686373 	svcvs	0x00686373
 470:	572f6c6f 	strpl	r6, [pc, -pc, ror #24]!
 474:	65746e69 	ldrbvs	r6, [r4, #-3689]!	; 0xe69
 478:	32393172 	eorscc	r3, r9, #-2147483620	; 0x8000001c
 47c:	53432f30 	movtpl	r2, #16176	; 0x3f30
 480:	45303431 	ldrmi	r3, [r0, #-1073]!	; 0x431
 484:	3173632f 	cmncc	r3, pc, lsr #6
 488:	2d653034 	stclcs	0, cr3, [r5, #-208]!	; 0xffffff30
 48c:	69773032 	ldmdbvs	r7!, {r1, r4, r5, ip, sp}^
 490:	696c2f6e 	stmdbvs	ip!, {r1, r2, r3, r5, r6, r8, r9, sl, fp, sp}^
 494:	2f697062 	svccs	0x00697062
 498:	6362696c 	cmnvs	r2, #108, 18	; 0x1b0000
 49c:	73752f00 	cmnvc	r5, #0, 30
 4a0:	6f6c2f72 	svcvs	0x006c2f72
 4a4:	2f6c6163 	svccs	0x006c6163
 4a8:	6c6c6543 	cfstr64vs	mvdx6, [ip], #-268	; 0xfffffef4
 4ac:	612f7261 	teqvs	pc, r1, ror #4
 4b0:	6e2d6d72 	mcrvs	13, 1, r6, cr13, cr2, {3}
 4b4:	2d656e6f 	stclcs	14, cr6, [r5, #-444]!	; 0xfffffe44
 4b8:	69626165 	stmdbvs	r2!, {r0, r2, r5, r6, r8, sp, lr}^
 4bc:	382e342f 	stmdacc	lr!, {r0, r1, r2, r3, r5, sl, ip, sp}
 4c0:	632d332e 	teqvs	sp, #-1207959552	; 0xb8000000
 4c4:	30373173 	eorscc	r3, r7, r3, ror r1
 4c8:	696c2f65 	stmdbvs	ip!, {r0, r2, r5, r6, r8, r9, sl, fp, sp}^
 4cc:	63672f62 	cmnvs	r7, #392	; 0x188
 4d0:	72612f63 	rsbvc	r2, r1, #396	; 0x18c
 4d4:	6f6e2d6d 	svcvs	0x006e2d6d
 4d8:	652d656e 	strvs	r6, [sp, #-1390]!	; 0x56e
 4dc:	2f696261 	svccs	0x00696261
 4e0:	2e382e34 	mrccs	14, 1, r2, cr8, cr4, {1}
 4e4:	6e692f33 	mcrvs	15, 3, r2, cr9, cr3, {1}
 4e8:	64756c63 	ldrbtvs	r6, [r5], #-3171	; 0xc63
 4ec:	552f0065 	strpl	r0, [pc, #-101]!	; 48f <_start-0x7b71>
 4f0:	73726573 	cmnvc	r2, #482344960	; 0x1cc00000
 4f4:	6972622f 	ldmdbvs	r2!, {r0, r1, r2, r3, r5, r9, sp, lr}^
 4f8:	756a6e61 	strbvc	r6, [sl, #-3681]!	; 0xe61
 4fc:	65442f6e 	strbvs	r2, [r4, #-3950]	; 0xf6e
 500:	6f746b73 	svcvs	0x00746b73
 504:	63732f70 	cmnvs	r3, #112, 30	; 0x1c0
 508:	6c6f6f68 	stclvs	15, cr6, [pc], #-416	; 370 <_start-0x7c90>
 50c:	6e69572f 	cdpvs	7, 6, cr5, cr9, cr15, {1}
 510:	31726574 	cmncc	r2, r4, ror r5
 514:	2f303239 	svccs	0x00303239
 518:	34315343 	ldrtcc	r5, [r1], #-835	; 0x343
 51c:	632f4530 	teqvs	pc, #48, 10	; 0xc000000
 520:	30343173 	eorscc	r3, r4, r3, ror r1
 524:	30322d65 	eorscc	r2, r2, r5, ror #26
 528:	2f6e6977 	svccs	0x006e6977
 52c:	7062696c 	rsbvc	r6, r2, ip, ror #18
 530:	73632f69 	cmnvc	r3, #420	; 0x1a4
 534:	65303431 	ldrvs	r3, [r0, #-1073]!	; 0x431
 538:	746e692d 	strbtvc	r6, [lr], #-2349	; 0x92d
 53c:	75727265 	ldrbvc	r7, [r2, #-613]!	; 0x265
 540:	2f007470 	svccs	0x00007470
 544:	72657355 	rsbvc	r7, r5, #1409286145	; 0x54000001
 548:	72622f73 	rsbvc	r2, r2, #460	; 0x1cc
 54c:	6a6e6169 	bvs	1b98af8 <__bss_end__+0x1994ca0>
 550:	442f6e75 	strtmi	r6, [pc], #-3701	; 558 <_start-0x7aa8>
 554:	746b7365 	strbtvc	r7, [fp], #-869	; 0x365
 558:	732f706f 	teqvc	pc, #111	; 0x6f
 55c:	6f6f6863 	svcvs	0x006f6863
 560:	69572f6c 	ldmdbvs	r7, {r2, r3, r5, r6, r8, r9, sl, fp, sp}^
 564:	7265746e 	rsbvc	r7, r5, #1845493760	; 0x6e000000
 568:	30323931 	eorscc	r3, r2, r1, lsr r9
 56c:	3153432f 	cmpcc	r3, pc, lsr #6
 570:	2f453034 	svccs	0x00453034
 574:	34317363 	ldrtcc	r7, [r1], #-867	; 0x363
 578:	322d6530 	eorcc	r6, sp, #48, 10	; 0xc000000
 57c:	6e697730 	mcrvs	7, 3, r7, cr9, cr0, {1}
 580:	62696c2f 	rsbvs	r6, r9, #12032	; 0x2f00
 584:	00006970 	andeq	r6, r0, r0, ror r9
 588:	755f7773 	ldrbvc	r7, [pc, #-1907]	; fffffe1d <__bss_end__+0xffdfbfc5>
 58c:	5f747261 	svcpl	0x00747261
 590:	2e746e69 	cdpcs	14, 7, cr6, cr4, cr9, {3}
 594:	00010063 	andeq	r0, r1, r3, rrx
 598:	63796300 	cmnvs	r9, #0, 6
 59c:	752d656c 	strvc	r6, [sp, #-1388]!	; 0x56c
 5a0:	2e6c6974 	mcrcs	9, 3, r6, cr12, cr4, {3}
 5a4:	00020068 	andeq	r0, r2, r8, rrx
 5a8:	72696300 	rsbvc	r6, r9, #0, 6
 5ac:	616c7563 	cmnvs	ip, r3, ror #10
 5b0:	00682e72 	rsbeq	r2, r8, r2, ror lr
 5b4:	73000003 	movwvc	r0, #3
 5b8:	6e696474 	mcrvs	4, 3, r6, cr9, cr4, {3}
 5bc:	63672d74 	cmnvs	r7, #116, 26	; 0x1d00
 5c0:	00682e63 	rsbeq	r2, r8, r3, ror #28
 5c4:	67000004 	strvs	r0, [r0, -r4]
 5c8:	2e6f6970 	mcrcs	9, 3, r6, cr15, cr0, {3}
 5cc:	00020068 	andeq	r0, r2, r8, rrx
 5d0:	69707200 	ldmdbvs	r0!, {r9, ip, sp, lr}^
 5d4:	6d72612d 	ldfvse	f6, [r2, #-180]!	; 0xffffff4c
 5d8:	656d6974 	strbvs	r6, [sp, #-2420]!	; 0x974
 5dc:	00682e72 	rsbeq	r2, r8, r2, ror lr
 5e0:	73000005 	movwvc	r0, #5
 5e4:	61752d77 	cmnvs	r5, r7, ror sp
 5e8:	682e7472 	stmdavs	lr!, {r1, r4, r5, r6, sl, ip, sp, lr}
 5ec:	00000200 	andeq	r0, r0, r0, lsl #4
 5f0:	61647473 	smcvs	18243	; 0x4743
 5f4:	682e6772 	stmdavs	lr!, {r1, r4, r5, r6, r8, r9, sl, sp, lr}
 5f8:	00000400 	andeq	r0, r0, r0, lsl #8
 5fc:	2e697072 	mcrcs	0, 3, r7, cr9, cr2, {3}
 600:	00060068 	andeq	r0, r6, r8, rrx
 604:	2d617600 	stclcs	6, cr7, [r1, #-0]
 608:	6e697270 	mcrvs	2, 3, r7, cr9, cr0, {3}
 60c:	682e6b74 	stmdavs	lr!, {r2, r4, r5, r6, r8, r9, fp, sp, lr}
 610:	00000300 	andeq	r0, r0, r0, lsl #6
 614:	6975623c 	ldmdbvs	r5!, {r2, r3, r4, r5, r9, sp, lr}^
 618:	692d746c 	pushvs	{r2, r3, r5, r6, sl, ip, sp, lr}
 61c:	00003e6e 	andeq	r3, r0, lr, ror #28
 620:	00000000 	andeq	r0, r0, r0
 624:	02c00205 	sbceq	r0, r0, #1342177280	; 0x50000000
 628:	16030020 	strne	r0, [r3], -r0, lsr #32
 62c:	2f674c01 	svccs	0x00674c01
 630:	2a020430 	bcs	816f8 <_start+0x796f8>
 634:	04667303 	strbteq	r7, [r6], #-771	; 0x303
 638:	82160301 	andshi	r0, r6, #67108864	; 0x4000000
 63c:	77030204 	strvc	r0, [r3, -r4, lsl #4]
 640:	6673032e 	ldrbtvs	r0, [r3], -lr, lsr #6
 644:	18030104 	stmdane	r3, {r2, r8}
 648:	03020482 	movweq	r0, #9346	; 0x2482
 64c:	73032e75 	movwvc	r2, #15989	; 0x3e75
 650:	03010466 	movweq	r0, #5222	; 0x1466
 654:	0204821a 	andeq	r8, r4, #-1610612735	; 0xa0000001
 658:	032e7303 	teqeq	lr, #201326592	; 0xc000000
 65c:	01046673 	tsteq	r4, r3, ror r6
 660:	04821c03 	streq	r1, [r2], #3075	; 0xc03
 664:	2e710302 	cdpcs	3, 7, cr0, cr1, cr2, {0}
 668:	04667303 	strbteq	r7, [r6], #-771	; 0x303
 66c:	821e0301 	andshi	r0, lr, #67108864	; 0x4000000
 670:	6f030204 	svcvs	0x00030204
 674:	6673032e 	ldrbtvs	r0, [r3], -lr, lsr #6
 678:	20030104 	andcs	r0, r3, r4, lsl #2
 67c:	03020482 	movweq	r0, #9346	; 0x2482
 680:	73032e6d 	movwvc	r2, #15981	; 0x3e6d
 684:	03010466 	movweq	r0, #5222	; 0x1466
 688:	02048222 	andeq	r8, r4, #536870914	; 0x20000002
 68c:	032e6b03 	teqeq	lr, #3072	; 0xc00
 690:	01046673 	tsteq	r4, r3, ror r6
 694:	04822403 	streq	r2, [r2], #1027	; 0x403
 698:	2e690302 	cdpcs	3, 6, cr0, cr9, cr2, {0}
 69c:	04667303 	strbteq	r7, [r6], #-771	; 0x303
 6a0:	82260301 	eorhi	r0, r6, #67108864	; 0x4000000
 6a4:	67030204 	strvs	r0, [r3, -r4, lsl #4]
 6a8:	6673032e 	ldrbtvs	r0, [r3], -lr, lsr #6
 6ac:	28030104 	stmdacs	r3, {r2, r8}
 6b0:	9e110382 	cdpls	3, 1, cr0, cr1, cr2, {4}
 6b4:	3131332f 	teqcc	r1, pc, lsr #6
 6b8:	bb030204 	bllt	c0ed0 <_start+0xb8ed0>
 6bc:	01042e7f 	tsteq	r4, pc, ror lr
 6c0:	8200c603 	andhi	ip, r0, #3145728	; 0x300000
 6c4:	0302042f 	movweq	r0, #9263	; 0x242f
 6c8:	04667fb9 	strbteq	r7, [r6], #-4025	; 0xfb9
 6cc:	00c90301 	sbceq	r0, r9, r1, lsl #6
 6d0:	02042f82 	andeq	r2, r4, #520	; 0x208
 6d4:	827fb603 	rsbshi	fp, pc, #3145728	; 0x300000
 6d8:	cc030104 	stfgts	f0, [r3], {4}
 6dc:	042f8200 	strteq	r8, [pc], #-512	; 6e4 <_start-0x791c>
 6e0:	7fb30302 	svcvc	0x00b30302
 6e4:	03010482 	movweq	r0, #5250	; 0x1482
 6e8:	2f8200cf 	svccs	0x008200cf
 6ec:	b0030204 	andlt	r0, r3, r4, lsl #4
 6f0:	0104827f 	tsteq	r4, pc, ror r2
 6f4:	8200d203 	andhi	sp, r0, #805306368	; 0x30000000
 6f8:	0302042f 	movweq	r0, #9263	; 0x242f
 6fc:	04827fad 	streq	r7, [r2], #4013	; 0xfad
 700:	00d50301 	sbcseq	r0, r5, r1, lsl #6
 704:	02042f82 	andeq	r2, r4, #520	; 0x208
 708:	827faa03 	rsbshi	sl, pc, #12288	; 0x3000
 70c:	d8030104 	stmdale	r3, {r2, r8}
 710:	042f8200 	strteq	r8, [pc], #-512	; 718 <_start-0x78e8>
 714:	7fa70302 	svcvc	0x00a70302
 718:	03010482 	movweq	r0, #5250	; 0x1482
 71c:	038200dc 	orreq	r0, r2, #220	; 0xdc
 720:	9f50660a 	svcls	0x0050660a
 724:	01040200 	mrseq	r0, R12_usr
 728:	bb064a06 	bllt	192f48 <_start+0x18af48>
 72c:	2cbb4b4e 	vldmiacs	fp!, {d4-<overflow reg d42>}
 730:	01040200 	mrseq	r0, R12_usr
 734:	6d062e06 	stcvs	14, cr2, [r6, #-24]	; 0xffffffe8
 738:	0084a44c 	addeq	sl, r4, ip, asr #8
 73c:	06010402 	streq	r0, [r1], -r2, lsl #8
 740:	4dbb064a 	ldcmi	6, cr0, [fp, #296]!	; 0x128
 744:	02040200 	andeq	r0, r4, #0, 4
 748:	0402004b 	streq	r0, [r2], #-75	; 0x4b
 74c:	02008102 	andeq	r8, r0, #-2147483648	; 0x80000000
 750:	2e060104 	adfcss	f0, f6, f4
 754:	a54c4d06 	strbge	r4, [ip, #-3334]	; 0xd06
 758:	4b4c4bbc 	blmi	1313650 <__bss_end__+0x110f7f8>
 75c:	02002f6b 	andeq	r2, r0, #428	; 0x1ac
 760:	82060104 	andhi	r0, r6, #4, 2
 764:	04020082 	streq	r0, [r2], #-130	; 0x82
 768:	02009e04 	andeq	r9, r0, #4, 28	; 0x40
 76c:	064a0104 	strbeq	r0, [sl], -r4, lsl #2
 770:	2fbd88bd 	svccs	0x00bd88bd
 774:	24084b4b 	strcs	r4, [r8], #-2891	; 0xb4b
 778:	04020067 	streq	r0, [r2], #-103	; 0x67
 77c:	02002f02 	andeq	r2, r0, #2, 30
 780:	00490204 	subeq	r0, r9, r4, lsl #4
 784:	06010402 	streq	r0, [r1], -r2, lsl #8
 788:	3468062e 	strbtcc	r0, [r8], #-1582	; 0x62e
 78c:	00a04b86 	adceq	r4, r0, r6, lsl #23
 790:	06010402 	streq	r0, [r1], -r2, lsl #8
 794:	68bb0666 	ldmvs	fp!, {r1, r2, r5, r6, r9, sl}
 798:	674b2208 	strbvs	r2, [fp, -r8, lsl #4]
 79c:	2fa1bc4b 	svccs	0x00a1bc4b
 7a0:	01040200 	mrseq	r0, R12_usr
 7a4:	bb068206 	bllt	1a0fc4 <_start+0x198fc4>
 7a8:	04020088 	streq	r0, [r2], #-136	; 0x88
 7ac:	06820601 	streq	r0, [r2], r1, lsl #12
 7b0:	03048383 	movweq	r8, #17283	; 0x4383
 7b4:	9e7ef203 	cdpls	2, 7, cr15, cr14, cr3, {0}
 7b8:	034a6503 	movteq	r6, #42243	; 0xa503
 7bc:	4b4c9e1c 	blmi	1328034 <__bss_end__+0x11241dc>
 7c0:	8b030104 	blhi	c0bd8 <_start+0xb8bd8>
 7c4:	8867ba01 	stmdahi	r7!, {r0, r9, fp, ip, sp, pc}^
 7c8:	03522308 	cmpeq	r2, #8, 6	; 0x20000000
 7cc:	03044a79 	movweq	r4, #19065	; 0x4a79
 7d0:	2e7ec803 	cdpcs	8, 7, cr12, cr14, cr3, {0}
 7d4:	c1030104 	tstgt	r3, r4, lsl #2
 7d8:	03046601 	movweq	r6, #17921	; 0x4601
 7dc:	2e7ebf03 	cdpcs	15, 7, cr11, cr14, cr3, {0}
 7e0:	c2030104 	andgt	r0, r3, #4, 2
 7e4:	03044a01 	movweq	r4, #18945	; 0x4a01
 7e8:	4a7ebe03 	bmi	1fafffc <__bss_end__+0x1dac1a4>
 7ec:	4c4a0a03 	mcrrmi	10, 0, r0, sl, cr3
 7f0:	0104672f 	tsteq	r4, pc, lsr #14
 7f4:	8201b803 	andhi	fp, r1, #196608	; 0x30000
 7f8:	01040200 	mrseq	r0, R12_usr
 7fc:	0a026e29 	beq	9c0a8 <_start+0x940a8>
 800:	88010100 	stmdahi	r1, {r8}
 804:	02000001 	andeq	r0, r0, #1
 808:	0000ca00 	andeq	ip, r0, r0, lsl #20
 80c:	fb010200 	blx	41016 <_start+0x39016>
 810:	01000d0e 	tsteq	r0, lr, lsl #26
 814:	00010101 	andeq	r0, r1, r1, lsl #2
 818:	00010000 	andeq	r0, r1, r0
 81c:	796d0100 	stmdbvc	sp!, {r8}^
 820:	6372732d 	cmnvs	r2, #-1275068416	; 0xb4000000
 824:	73552f00 	cmpvc	r5, #0, 30
 828:	2f737265 	svccs	0x00737265
 82c:	61697262 	cmnvs	r9, r2, ror #4
 830:	6e756a6e 	vsubvs.f32	s13, s10, s29
 834:	7365442f 	cmnvc	r5, #788529152	; 0x2f000000
 838:	706f746b 	rsbvc	r7, pc, fp, ror #8
 83c:	6863732f 	stmdavs	r3!, {r0, r1, r2, r3, r5, r8, r9, ip, sp, lr}^
 840:	2f6c6f6f 	svccs	0x006c6f6f
 844:	746e6957 	strbtvc	r6, [lr], #-2391	; 0x957
 848:	39317265 	ldmdbcc	r1!, {r0, r2, r5, r6, r9, ip, sp, lr}
 84c:	432f3032 	teqmi	pc, #50	; 0x32
 850:	30343153 	eorscc	r3, r4, r3, asr r1
 854:	73632f45 	cmnvc	r3, #276	; 0x114
 858:	65303431 	ldrvs	r3, [r0, #-1073]!	; 0x431
 85c:	7730322d 	ldrvc	r3, [r0, -sp, lsr #4]!
 860:	6c2f6e69 	stcvs	14, cr6, [pc], #-420	; 6c4 <_start-0x793c>
 864:	69706269 	ldmdbvs	r0!, {r0, r3, r5, r6, r9, sp, lr}^
 868:	3173632f 	cmncc	r3, pc, lsr #6
 86c:	2d653034 	stclcs	0, cr3, [r5, #-208]!	; 0xffffff30
 870:	00637273 	rsbeq	r7, r3, r3, ror r2
 874:	6573552f 	ldrbvs	r5, [r3, #-1327]!	; 0x52f
 878:	622f7372 	eorvs	r7, pc, #-939524095	; 0xc8000001
 87c:	6e616972 	mcrvs	9, 3, r6, cr1, cr2, {3}
 880:	2f6e756a 	svccs	0x006e756a
 884:	6b736544 	blvs	1cd9d9c <__bss_end__+0x1ad5f44>
 888:	2f706f74 	svccs	0x00706f74
 88c:	6f686373 	svcvs	0x00686373
 890:	572f6c6f 	strpl	r6, [pc, -pc, ror #24]!
 894:	65746e69 	ldrbvs	r6, [r4, #-3689]!	; 0xe69
 898:	32393172 	eorscc	r3, r9, #-2147483620	; 0x8000001c
 89c:	53432f30 	movtpl	r2, #16176	; 0x3f30
 8a0:	45303431 	ldrmi	r3, [r0, #-1073]!	; 0x431
 8a4:	3173632f 	cmncc	r3, pc, lsr #6
 8a8:	2d653034 	stclcs	0, cr3, [r5, #-208]!	; 0xffffff30
 8ac:	69773032 	ldmdbvs	r7!, {r1, r4, r5, ip, sp}^
 8b0:	696c2f6e 	stmdbvs	ip!, {r1, r2, r3, r5, r6, r8, r9, sl, fp, sp}^
 8b4:	00697062 	rsbeq	r7, r9, r2, rrx
 8b8:	69706700 	ldmdbvs	r0!, {r8, r9, sl, sp, lr}^
 8bc:	00632e6f 	rsbeq	r2, r3, pc, ror #28
 8c0:	67000001 	strvs	r0, [r0, -r1]
 8c4:	2e6f6970 	mcrcs	9, 3, r6, cr15, cr0, {3}
 8c8:	00020068 	andeq	r0, r2, r8, rrx
 8cc:	69707200 	ldmdbvs	r0!, {r9, ip, sp, lr}^
 8d0:	0300682e 	movweq	r6, #2094	; 0x82e
 8d4:	00000000 	andeq	r0, r0, r0
 8d8:	0a240205 	beq	9010f4 <__bss_end__+0x6fd29c>
 8dc:	3e030020 	cdpcc	0, 0, cr0, cr3, cr0, {1}
 8e0:	69504e01 	ldmdbvs	r0, {r0, r9, sl, fp, lr}^
 8e4:	67672108 	strbvs	r2, [r7, -r8, lsl #2]!
 8e8:	67676767 	strbvs	r6, [r7, -r7, ror #14]!
 8ec:	22084b32 	andcs	r4, r8, #51200	; 0xc800
 8f0:	135131dc 	cmpne	r1, #220, 2	; 0x37
 8f4:	be30504e 	cdplt	0, 3, cr5, cr0, cr14, {2}
 8f8:	4d135031 	ldcmi	0, cr5, [r3, #-196]	; 0xffffff3c
 8fc:	4cc0304f 	stclmi	0, cr3, [r0], {79}	; 0x4f
 900:	21086950 	tstcs	r8, r0, asr r9
 904:	67676767 	strbvs	r6, [r7, -r7, ror #14]!
 908:	4b326767 	blmi	c9a6ac <__bss_end__+0xa96854>
 90c:	4ca42108 	stfmis	f2, [r4], #32
 910:	69842f50 	stmibvs	r4, {r4, r6, r8, r9, sl, fp, sp}
 914:	03827503 	orreq	r7, r2, #12582912	; 0xc00000
 918:	304d2e0c 	subcc	r2, sp, ip, lsl #28
 91c:	7f98034e 	svcvc	0x0098034e
 920:	4e13514a 	mufmism	f5, f3, #2.0
 924:	50a53050 	adcpl	r3, r5, r0, asr r0
 928:	304f4d13 	subcc	r4, pc, r3, lsl sp	; <UNPREDICTABLE>
 92c:	ba00c203 	blt	31140 <_start+0x29140>
 930:	08696b6a 	stmdaeq	r9!, {r1, r3, r5, r6, r8, r9, fp, sp, lr}^
 934:	67676721 	strbvs	r6, [r7, -r1, lsr #14]!
 938:	32676767 	rsbcc	r6, r7, #27000832	; 0x19c0000
 93c:	0322084b 	teqeq	r2, #4915200	; 0x4b0000
 940:	9f31ba1a 	svcls	0x0031ba1a
 944:	4d522f4c 	ldclmi	15, cr2, [r2, #-304]	; 0xfffffed0
 948:	674b2f4e 	strbvs	r2, [fp, -lr, asr #30]
 94c:	6767684b 	strbvs	r6, [r7, -fp, asr #16]!
 950:	2f672f4c 	svccs	0x00672f4c
 954:	4e4c6e4b 	cdpmi	14, 4, cr6, cr12, cr11, {2}
 958:	4b674b2f 	blmi	19d361c <__bss_end__+0x17cf7c4>
 95c:	4c676768 	stclmi	7, cr6, [r7], #-416	; 0xfffffe60
 960:	4b2f672f 	blmi	bda624 <__bss_end__+0x9d67cc>
 964:	2f4e4b6d 	svccs	0x004e4b6d
 968:	0200674b 	andeq	r6, r0, #19660800	; 0x12c0000
 96c:	66060104 	strvs	r0, [r6], -r4, lsl #2
 970:	2f9f6806 	svccs	0x009f6806
 974:	01040200 	mrseq	r0, R12_usr
 978:	68064a06 	stmdavs	r6, {r1, r2, r9, fp, lr}
 97c:	4a73032f 	bmi	1cc1640 <__bss_end__+0x1abd7e8>
 980:	4d2e0e03 	stcmi	14, cr0, [lr, #-12]!
 984:	4b2f4e4c 	blmi	bd42bc <__bss_end__+0x9d0464>
 988:	0602bcbc 			; <UNDEFINED> instruction: 0x0602bcbc
 98c:	02010100 	andeq	r0, r1, #0, 2
 990:	02000001 	andeq	r0, r0, #1
 994:	0000eb00 	andeq	lr, r0, r0, lsl #22
 998:	fb010200 	blx	411a2 <_start+0x391a2>
 99c:	01000d0e 	tsteq	r0, lr, lsl #26
 9a0:	00010101 	andeq	r0, r1, r1, lsl #2
 9a4:	00010000 	andeq	r0, r1, r0
 9a8:	696c0100 	stmdbvs	ip!, {r8}^
 9ac:	2f006362 	svccs	0x00006362
 9b0:	2f727375 	svccs	0x00727375
 9b4:	61636f6c 	cmnvs	r3, ip, ror #30
 9b8:	65432f6c 	strbvs	r2, [r3, #-3948]	; 0xf6c
 9bc:	72616c6c 	rsbvc	r6, r1, #108, 24	; 0x6c00
 9c0:	6d72612f 	ldfvse	f6, [r2, #-188]!	; 0xffffff44
 9c4:	6e6f6e2d 	cdpvs	14, 6, cr6, cr15, cr13, {1}
 9c8:	61652d65 	cmnvs	r5, r5, ror #26
 9cc:	342f6962 	strtcc	r6, [pc], #-2402	; 9d4 <_start-0x762c>
 9d0:	332e382e 	teqcc	lr, #3014656	; 0x2e0000
 9d4:	3173632d 	cmncc	r3, sp, lsr #6
 9d8:	2f653037 	svccs	0x00653037
 9dc:	2f62696c 	svccs	0x0062696c
 9e0:	2f636367 	svccs	0x00636367
 9e4:	2d6d7261 	sfmcs	f7, 2, [sp, #-388]!	; 0xfffffe7c
 9e8:	656e6f6e 	strbvs	r6, [lr, #-3950]!	; 0xf6e
 9ec:	6261652d 	rsbvs	r6, r1, #188743680	; 0xb400000
 9f0:	2e342f69 	cdpcs	15, 3, cr2, cr4, cr9, {3}
 9f4:	2f332e38 	svccs	0x00332e38
 9f8:	6c636e69 	stclvs	14, cr6, [r3], #-420	; 0xfffffe5c
 9fc:	00656475 	rsbeq	r6, r5, r5, ror r4
 a00:	6573552f 	ldrbvs	r5, [r3, #-1327]!	; 0x52f
 a04:	622f7372 	eorvs	r7, pc, #-939524095	; 0xc8000001
 a08:	6e616972 	mcrvs	9, 3, r6, cr1, cr2, {3}
 a0c:	2f6e756a 	svccs	0x006e756a
 a10:	6b736544 	blvs	1cd9f28 <__bss_end__+0x1ad60d0>
 a14:	2f706f74 	svccs	0x00706f74
 a18:	6f686373 	svcvs	0x00686373
 a1c:	572f6c6f 	strpl	r6, [pc, -pc, ror #24]!
 a20:	65746e69 	ldrbvs	r6, [r4, #-3689]!	; 0xe69
 a24:	32393172 	eorscc	r3, r9, #-2147483620	; 0x8000001c
 a28:	53432f30 	movtpl	r2, #16176	; 0x3f30
 a2c:	45303431 	ldrmi	r3, [r0, #-1073]!	; 0x431
 a30:	3173632f 	cmncc	r3, pc, lsr #6
 a34:	2d653034 	stclcs	0, cr3, [r5, #-208]!	; 0xffffff30
 a38:	69773032 	ldmdbvs	r7!, {r1, r4, r5, ip, sp}^
 a3c:	696c2f6e 	stmdbvs	ip!, {r1, r2, r3, r5, r6, r8, r9, sl, fp, sp}^
 a40:	00697062 	rsbeq	r7, r9, r2, rrx
 a44:	69727000 	ldmdbvs	r2!, {ip, sp, lr}^
 a48:	2e6b746e 	cdpcs	4, 6, cr7, cr11, cr14, {3}
 a4c:	00010063 	andeq	r0, r1, r3, rrx
 a50:	64747300 	ldrbtvs	r7, [r4], #-768	; 0x300
 a54:	2e677261 	cdpcs	2, 6, cr7, cr7, cr1, {3}
 a58:	00020068 	andeq	r0, r2, r8, rrx
 a5c:	75623c00 	strbvc	r3, [r2, #-3072]!	; 0xc00
 a60:	2d746c69 	ldclcs	12, cr6, [r4, #-420]!	; 0xfffffe5c
 a64:	003e6e69 	eorseq	r6, lr, r9, ror #28
 a68:	72000000 	andvc	r0, r0, #0
 a6c:	682e6970 	stmdavs	lr!, {r4, r5, r6, r8, fp, sp, lr}
 a70:	00000300 	andeq	r0, r0, r0, lsl #6
 a74:	702d6176 	eorvc	r6, sp, r6, ror r1
 a78:	746e6972 	strbtvc	r6, [lr], #-2418	; 0x972
 a7c:	00682e6b 	rsbeq	r2, r8, fp, ror #28
 a80:	00000001 	andeq	r0, r0, r1
 a84:	e0020500 	and	r0, r2, r0, lsl #10
 a88:	1700200f 	strne	r2, [r0, -pc]
 a8c:	89bf4b6b 	ldmibhi	pc!, {r0, r1, r3, r5, r6, r8, r9, fp, lr}	; <UNPREDICTABLE>
 a90:	01000e02 	tsteq	r0, r2, lsl #28
 a94:	00009601 	andeq	r9, r0, r1, lsl #12
 a98:	6f000200 	svcvs	0x00000200
 a9c:	02000000 	andeq	r0, r0, #0
 aa0:	0d0efb01 	vstreq	d15, [lr, #-4]
 aa4:	01010100 	mrseq	r0, (UNDEF: 17)
 aa8:	00000001 	andeq	r0, r0, r1
 aac:	01000001 	tsteq	r0, r1
 ab0:	6362696c 	cmnvs	r2, #108, 18	; 0x1b0000
 ab4:	73552f00 	cmpvc	r5, #0, 30
 ab8:	2f737265 	svccs	0x00737265
 abc:	61697262 	cmnvs	r9, r2, ror #4
 ac0:	6e756a6e 	vsubvs.f32	s13, s10, s29
 ac4:	7365442f 	cmnvc	r5, #788529152	; 0x2f000000
 ac8:	706f746b 	rsbvc	r7, pc, fp, ror #8
 acc:	6863732f 	stmdavs	r3!, {r0, r1, r2, r3, r5, r8, r9, ip, sp, lr}^
 ad0:	2f6c6f6f 	svccs	0x006c6f6f
 ad4:	746e6957 	strbtvc	r6, [lr], #-2391	; 0x957
 ad8:	39317265 	ldmdbcc	r1!, {r0, r2, r5, r6, r9, ip, sp, lr}
 adc:	432f3032 	teqmi	pc, #50	; 0x32
 ae0:	30343153 	eorscc	r3, r4, r3, asr r1
 ae4:	73632f45 	cmnvc	r3, #276	; 0x114
 ae8:	65303431 	ldrvs	r3, [r0, #-1073]!	; 0x431
 aec:	7730322d 	ldrvc	r3, [r0, -sp, lsr #4]!
 af0:	6c2f6e69 	stcvs	14, cr6, [pc], #-420	; 954 <_start-0x76ac>
 af4:	69706269 	ldmdbvs	r0!, {r0, r3, r5, r6, r9, sp, lr}^
 af8:	75700000 	ldrbvc	r0, [r0, #-0]!
 afc:	632e6b74 	teqvs	lr, #116, 22	; 0x1d000
 b00:	00000100 	andeq	r0, r0, r0, lsl #2
 b04:	2e697072 	mcrcs	0, 3, r7, cr9, cr2, {3}
 b08:	00020068 	andeq	r0, r2, r8, rrx
 b0c:	05000000 	streq	r0, [r0, #-0]
 b10:	20103802 	andscs	r3, r0, r2, lsl #16
 b14:	2d4c1500 	cfstr64cs	mvdx1, [ip, #-0]
 b18:	02040200 	andeq	r0, r4, #0, 4
 b1c:	0402002f 	streq	r0, [r2], #-47	; 0x2f
 b20:	02004902 	andeq	r4, r0, #32768	; 0x8000
 b24:	2e060104 	adfcss	f0, f6, f4
 b28:	06026b06 	streq	r6, [r2], -r6, lsl #22
 b2c:	dc010100 	stfles	f0, [r1], {-0}
 b30:	02000001 	andeq	r0, r0, #1
 b34:	0000df00 	andeq	sp, r0, r0, lsl #30
 b38:	fb010200 	blx	41342 <_start+0x39342>
 b3c:	01000d0e 	tsteq	r0, lr, lsl #26
 b40:	00010101 	andeq	r0, r1, r1, lsl #2
 b44:	00010000 	andeq	r0, r1, r0
 b48:	696c0100 	stmdbvs	ip!, {r8}^
 b4c:	2f006362 	svccs	0x00006362
 b50:	2f727375 	svccs	0x00727375
 b54:	61636f6c 	cmnvs	r3, ip, ror #30
 b58:	65432f6c 	strbvs	r2, [r3, #-3948]	; 0xf6c
 b5c:	72616c6c 	rsbvc	r6, r1, #108, 24	; 0x6c00
 b60:	6d72612f 	ldfvse	f6, [r2, #-188]!	; 0xffffff44
 b64:	6e6f6e2d 	cdpvs	14, 6, cr6, cr15, cr13, {1}
 b68:	61652d65 	cmnvs	r5, r5, ror #26
 b6c:	342f6962 	strtcc	r6, [pc], #-2402	; b74 <_start-0x748c>
 b70:	332e382e 	teqcc	lr, #3014656	; 0x2e0000
 b74:	3173632d 	cmncc	r3, sp, lsr #6
 b78:	2f653037 	svccs	0x00653037
 b7c:	2f62696c 	svccs	0x0062696c
 b80:	2f636367 	svccs	0x00636367
 b84:	2d6d7261 	sfmcs	f7, 2, [sp, #-388]!	; 0xfffffe7c
 b88:	656e6f6e 	strbvs	r6, [lr, #-3950]!	; 0xf6e
 b8c:	6261652d 	rsbvs	r6, r1, #188743680	; 0xb400000
 b90:	2e342f69 	cdpcs	15, 3, cr2, cr4, cr9, {3}
 b94:	2f332e38 	svccs	0x00332e38
 b98:	6c636e69 	stclvs	14, cr6, [r3], #-420	; 0xfffffe5c
 b9c:	00656475 	rsbeq	r6, r5, r5, ror r4
 ba0:	6573552f 	ldrbvs	r5, [r3, #-1327]!	; 0x52f
 ba4:	622f7372 	eorvs	r7, pc, #-939524095	; 0xc8000001
 ba8:	6e616972 	mcrvs	9, 3, r6, cr1, cr2, {3}
 bac:	2f6e756a 	svccs	0x006e756a
 bb0:	6b736544 	blvs	1cda0c8 <__bss_end__+0x1ad6270>
 bb4:	2f706f74 	svccs	0x00706f74
 bb8:	6f686373 	svcvs	0x00686373
 bbc:	572f6c6f 	strpl	r6, [pc, -pc, ror #24]!
 bc0:	65746e69 	ldrbvs	r6, [r4, #-3689]!	; 0xe69
 bc4:	32393172 	eorscc	r3, r9, #-2147483620	; 0x8000001c
 bc8:	53432f30 	movtpl	r2, #16176	; 0x3f30
 bcc:	45303431 	ldrmi	r3, [r0, #-1073]!	; 0x431
 bd0:	3173632f 	cmncc	r3, pc, lsr #6
 bd4:	2d653034 	stclcs	0, cr3, [r5, #-208]!	; 0xffffff30
 bd8:	69773032 	ldmdbvs	r7!, {r1, r4, r5, ip, sp}^
 bdc:	696c2f6e 	stmdbvs	ip!, {r1, r2, r3, r5, r6, r8, r9, sl, fp, sp}^
 be0:	00697062 	rsbeq	r7, r9, r2, rrx
 be4:	2d617600 	stclcs	6, cr7, [r1, #-0]
 be8:	6e697270 	mcrvs	2, 3, r7, cr9, cr0, {3}
 bec:	632e6b74 	teqvs	lr, #116, 22	; 0x1d000
 bf0:	00000100 	andeq	r0, r0, r0, lsl #2
 bf4:	61647473 	smcvs	18243	; 0x4743
 bf8:	682e6772 	stmdavs	lr!, {r1, r4, r5, r6, r8, r9, sl, sp, lr}
 bfc:	00000200 	andeq	r0, r0, r0, lsl #4
 c00:	2e697072 	mcrcs	0, 3, r7, cr9, cr2, {3}
 c04:	00030068 	andeq	r0, r3, r8, rrx
 c08:	75623c00 	strbvc	r3, [r2, #-3072]!	; 0xc00
 c0c:	2d746c69 	ldclcs	12, cr6, [r4, #-420]!	; 0xfffffe5c
 c10:	003e6e69 	eorseq	r6, lr, r9, ror #28
 c14:	00000000 	andeq	r0, r0, r0
 c18:	6c020500 	cfstr32vs	mvfx0, [r2], {-0}
 c1c:	03002010 	movweq	r2, #16
 c20:	a5010126 	strge	r0, [r1, #-294]	; 0x126
 c24:	002d3113 	eoreq	r3, sp, r3, lsl r1
 c28:	2f020402 	svccs	0x00020402
 c2c:	02040200 	andeq	r0, r4, #0, 4
 c30:	0402002d 	streq	r0, [r2], #-45	; 0x2d
 c34:	02002f02 	andeq	r2, r0, #2, 30
 c38:	4c2d0104 	stfmis	f0, [sp], #-16
 c3c:	4b14304c 	blmi	50cd74 <__bss_end__+0x308f1c>
 c40:	02004f2f 	andeq	r4, r0, #47, 30	; 0xbc
 c44:	00670204 	rsbeq	r0, r7, r4, lsl #4
 c48:	65010402 	strvs	r0, [r1, #-1026]	; 0x402
 c4c:	a0304d4c 	eorsge	r4, r0, ip, asr #26
 c50:	0230312f 	eorseq	r3, r0, #-1073741813	; 0xc000000b
 c54:	2d841626 	stccs	6, cr1, [r4, #152]	; 0x98
 c58:	0402002c 	streq	r0, [r2], #-44	; 0x2c
 c5c:	02003001 	andeq	r3, r0, #1
 c60:	06330104 	ldrteq	r0, [r3], -r4, lsl #2
 c64:	04020066 	streq	r0, [r2], #-102	; 0x66
 c68:	02002e01 	andeq	r2, r0, #1, 28
 c6c:	08060104 	stmdaeq	r6, {r2, r8}
 c70:	032f6721 	teqeq	pc, #8650752	; 0x840000
 c74:	13038273 	movwne	r8, #12915	; 0x3273
 c78:	0402002e 	streq	r0, [r2], #-46	; 0x2e
 c7c:	002e0601 	eoreq	r0, lr, r1, lsl #12
 c80:	06010402 	streq	r0, [r1], -r2, lsl #8
 c84:	034b6a9f 	movteq	r6, #47775	; 0xba9f
 c88:	21032e67 	tstcs	r3, r7, ror #28
 c8c:	0402002e 	streq	r0, [r2], #-46	; 0x2e
 c90:	002e0601 	eoreq	r0, lr, r1, lsl #12
 c94:	06010402 	streq	r0, [r1], -r2, lsl #8
 c98:	0402009f 	streq	r0, [r2], #-159	; 0x9f
 c9c:	f3bd6a01 	vtbl.8	d6, {d13-d15}, d1
 ca0:	087fa603 	ldmdaeq	pc!, {r0, r1, r9, sl, sp, pc}^	; <UNPREDICTABLE>
 ca4:	02002f20 	andeq	r2, r0, #32, 30	; 0x80
 ca8:	4a060104 	bmi	1810c0 <_start+0x1790c0>
 cac:	2f4bbb06 	svccs	0x004bbb06
 cb0:	f200da03 	vpmax.s8	d13, d0, d3
 cb4:	31484c83 	smlalbbcc	r4, r8, r3, ip
 cb8:	4b842f2f 	blmi	fe10c97c <__bss_end__+0xfdf08b24>
 cbc:	314d2d2f 	cmpcc	sp, pc, lsr #26
 cc0:	00832f30 	addeq	r2, r3, r0, lsr pc
 cc4:	2c010402 	cfstrscs	mvf0, [r1], {2}
 cc8:	040200be 	streq	r0, [r2], #-190	; 0xbe
 ccc:	064a0601 	strbeq	r0, [sl], -r1, lsl #12
 cd0:	163602bc 			; <UNDEFINED> instruction: 0x163602bc
 cd4:	08ba0e03 	ldmeq	sl!, {r0, r1, r9, sl, fp}
 cd8:	21083021 	tstcs	r8, r1, lsr #32
 cdc:	30210831 	eorcc	r0, r1, r1, lsr r8
 ce0:	4b302108 	blmi	c09108 <__bss_end__+0xa052b0>
 ce4:	30210830 	eorcc	r0, r1, r0, lsr r8
 ce8:	002f31d9 	ldrdeq	r3, [pc], -r9	; <UNPREDICTABLE>
 cec:	65010402 	strvs	r0, [r1, #-1026]	; 0x402
 cf0:	02040200 	andeq	r0, r4, #0, 4
 cf4:	02004a06 	andeq	r4, r0, #24576	; 0x6000
 cf8:	03060104 	movweq	r0, #24836	; 0x6104
 cfc:	02006642 	andeq	r6, r0, #69206016	; 0x4200000
 d00:	66060204 	strvs	r0, [r6], -r4, lsl #4
 d04:	00c20306 	sbceq	r0, r2, r6, lsl #6
 d08:	1002684a 	andne	r6, r2, sl, asr #16
 d0c:	86010100 	strhi	r0, [r1], -r0, lsl #2
 d10:	02000000 	andeq	r0, r0, #0
 d14:	00007200 	andeq	r7, r0, r0, lsl #4
 d18:	fb010200 	blx	41522 <_start+0x39522>
 d1c:	01000d0e 	tsteq	r0, lr, lsl #26
 d20:	00010101 	andeq	r0, r1, r1, lsl #2
 d24:	00010000 	andeq	r0, r1, r0
 d28:	696c0100 	stmdbvs	ip!, {r8}^
 d2c:	2f006362 	svccs	0x00006362
 d30:	72657355 	rsbvc	r7, r5, #1409286145	; 0x54000001
 d34:	72622f73 	rsbvc	r2, r2, #460	; 0x1cc
 d38:	6a6e6169 	bvs	1b992e4 <__bss_end__+0x199548c>
 d3c:	442f6e75 	strtmi	r6, [pc], #-3701	; d44 <_start-0x72bc>
 d40:	746b7365 	strbtvc	r7, [fp], #-869	; 0x365
 d44:	732f706f 	teqvc	pc, #111	; 0x6f
 d48:	6f6f6863 	svcvs	0x006f6863
 d4c:	69572f6c 	ldmdbvs	r7, {r2, r3, r5, r6, r8, r9, sl, fp, sp}^
 d50:	7265746e 	rsbvc	r7, r5, #1845493760	; 0x6e000000
 d54:	30323931 	eorscc	r3, r2, r1, lsr r9
 d58:	3153432f 	cmpcc	r3, pc, lsr #6
 d5c:	2f453034 	svccs	0x00453034
 d60:	34317363 	ldrtcc	r7, [r1], #-867	; 0x363
 d64:	322d6530 	eorcc	r6, sp, #48, 10	; 0xc000000
 d68:	6e697730 	mcrvs	7, 3, r7, cr9, cr0, {1}
 d6c:	62696c2f 	rsbvs	r6, r9, #12032	; 0x2f00
 d70:	00006970 	andeq	r6, r0, r0, ror r9
 d74:	63747570 	cmnvs	r4, #112, 10	; 0x1c000000
 d78:	2e726168 	rpwcssz	f6, f2, #0.0
 d7c:	00010063 	andeq	r0, r1, r3, rrx
 d80:	69707200 	ldmdbvs	r0!, {r9, ip, sp, lr}^
 d84:	0200682e 	andeq	r6, r0, #3014656	; 0x2e0000
 d88:	00000000 	andeq	r0, r0, r0
 d8c:	15740205 	ldrbne	r0, [r4, #-517]!	; 0x205
 d90:	4a140020 	bmi	500e18 <__bss_end__+0x2fcfc0>
 d94:	01000602 	tsteq	r0, r2, lsl #12
 d98:	00010101 	andeq	r0, r1, r1, lsl #2
 d9c:	ca000200 	bgt	15a4 <_start-0x6a5c>
 da0:	02000000 	andeq	r0, r0, #0
 da4:	0d0efb01 	vstreq	d15, [lr, #-4]
 da8:	01010100 	mrseq	r0, (UNDEF: 17)
 dac:	00000001 	andeq	r0, r0, r1
 db0:	01000001 	tsteq	r0, r1
 db4:	732d796d 	teqvc	sp, #1785856	; 0x1b4000
 db8:	2f006372 	svccs	0x00006372
 dbc:	72657355 	rsbvc	r7, r5, #1409286145	; 0x54000001
 dc0:	72622f73 	rsbvc	r2, r2, #460	; 0x1cc
 dc4:	6a6e6169 	bvs	1b99370 <__bss_end__+0x1995518>
 dc8:	442f6e75 	strtmi	r6, [pc], #-3701	; dd0 <_start-0x7230>
 dcc:	746b7365 	strbtvc	r7, [fp], #-869	; 0x365
 dd0:	732f706f 	teqvc	pc, #111	; 0x6f
 dd4:	6f6f6863 	svcvs	0x006f6863
 dd8:	69572f6c 	ldmdbvs	r7, {r2, r3, r5, r6, r8, r9, sl, fp, sp}^
 ddc:	7265746e 	rsbvc	r7, r5, #1845493760	; 0x6e000000
 de0:	30323931 	eorscc	r3, r2, r1, lsr r9
 de4:	3153432f 	cmpcc	r3, pc, lsr #6
 de8:	2f453034 	svccs	0x00453034
 dec:	34317363 	ldrtcc	r7, [r1], #-867	; 0x363
 df0:	322d6530 	eorcc	r6, sp, #48, 10	; 0xc000000
 df4:	6e697730 	mcrvs	7, 3, r7, cr9, cr0, {1}
 df8:	62696c2f 	rsbvs	r6, r9, #12032	; 0x2f00
 dfc:	632f6970 	teqvs	pc, #112, 18	; 0x1c0000
 e00:	30343173 	eorscc	r3, r4, r3, ror r1
 e04:	72732d65 	rsbsvc	r2, r3, #6464	; 0x1940
 e08:	552f0063 	strpl	r0, [pc, #-99]!	; dad <_start-0x7253>
 e0c:	73726573 	cmnvc	r2, #482344960	; 0x1cc00000
 e10:	6972622f 	ldmdbvs	r2!, {r0, r1, r2, r3, r5, r9, sp, lr}^
 e14:	756a6e61 	strbvc	r6, [sl, #-3681]!	; 0xe61
 e18:	65442f6e 	strbvs	r2, [r4, #-3950]	; 0xf6e
 e1c:	6f746b73 	svcvs	0x00746b73
 e20:	63732f70 	cmnvs	r3, #112, 30	; 0x1c0
 e24:	6c6f6f68 	stclvs	15, cr6, [pc], #-416	; c8c <_start-0x7374>
 e28:	6e69572f 	cdpvs	7, 6, cr5, cr9, cr15, {1}
 e2c:	31726574 	cmncc	r2, r4, ror r5
 e30:	2f303239 	svccs	0x00303239
 e34:	34315343 	ldrtcc	r5, [r1], #-835	; 0x343
 e38:	632f4530 	teqvs	pc, #48, 10	; 0xc000000
 e3c:	30343173 	eorscc	r3, r4, r3, ror r1
 e40:	30322d65 	eorscc	r2, r2, r5, ror #26
 e44:	2f6e6977 	svccs	0x006e6977
 e48:	7062696c 	rsbvc	r6, r2, ip, ror #18
 e4c:	75000069 	strvc	r0, [r0, #-105]	; 0x69
 e50:	2e747261 	cdpcs	2, 7, cr7, cr4, cr1, {3}
 e54:	00010063 	andeq	r0, r1, r3, rrx
 e58:	69706700 	ldmdbvs	r0!, {r8, r9, sl, sp, lr}^
 e5c:	00682e6f 	rsbeq	r2, r8, pc, ror #28
 e60:	72000002 	andvc	r0, r0, #2
 e64:	682e6970 	stmdavs	lr!, {r4, r5, r6, r8, fp, sp, lr}
 e68:	00000300 	andeq	r0, r0, r0, lsl #6
 e6c:	02050000 	andeq	r0, r5, #0
 e70:	00201588 	eoreq	r1, r0, r8, lsl #11
 e74:	30013603 	andcc	r3, r1, r3, lsl #12
 e78:	306d6733 	rsbcc	r6, sp, r3, lsr r7
 e7c:	676730d8 			; <UNDEFINED> instruction: 0x676730d8
 e80:	68676767 	stmdavs	r7!, {r0, r1, r2, r5, r6, r8, r9, sl, sp, lr}^
 e84:	6a672f86 	bvs	19ccca4 <__bss_end__+0x17c8e4c>
 e88:	69676730 	stmdbvs	r7!, {r4, r5, r8, r9, sl, sp, lr}^
 e8c:	4c6a672f 	stclmi	7, cr6, [sl], #-188	; 0xffffff44
 e90:	2f2fc167 	svccs	0x002fc167
 e94:	49682f30 	stmdbmi	r8!, {r4, r5, r8, r9, sl, fp, sp}^
 e98:	00020230 	andeq	r0, r2, r0, lsr r2
 e9c:	Address 0x0000000000000e9c is out of bounds.


Disassembly of section .debug_str:

00000000 <.debug_str>:
   0:	33637263 	cmncc	r3, #805306374	; 0x30000006
   4:	61745f32 	cmnvs	r4, r2, lsr pc
   8:	61770062 	cmnvs	r7, r2, rrx
   c:	665f7469 	ldrbvs	r7, [pc], -r9, ror #8
  10:	645f726f 	ldrbvs	r7, [pc], #-623	; 18 <_start-0x7fe8>
  14:	00617461 	rsbeq	r7, r1, r1, ror #8
  18:	5f544547 	svcpl	0x00544547
  1c:	45444f43 	strbmi	r4, [r4, #-3907]	; 0xf43
  20:	49525000 	ldmdbmi	r2, {ip, lr}^
  24:	535f544e 	cmppl	pc, #1308622848	; 0x4e000000
  28:	4e495254 	mcrmi	2, 2, r5, cr9, cr4, {2}
  2c:	68730047 	ldmdavs	r3!, {r0, r1, r2, r6}^
  30:	2074726f 	rsbscs	r7, r4, pc, ror #4
  34:	69736e75 	ldmdbvs	r3!, {r0, r2, r4, r5, r6, r9, sl, fp, sp, lr}^
  38:	64656e67 	strbtvs	r6, [r5], #-3687	; 0xe67
  3c:	746e6920 	strbtvc	r6, [lr], #-2336	; 0x920
  40:	74656700 	strbtvc	r6, [r5], #-1792	; 0x700
  44:	7479625f 	ldrbtvc	r6, [r9], #-607	; 0x25f
  48:	77730065 	ldrbvc	r0, [r3, -r5, rrx]!
  4c:	7261755f 	rsbvc	r7, r1, #398458880	; 0x17c00000
  50:	6e695f74 	mcrvs	15, 3, r5, cr9, cr4, {3}
  54:	685f7469 	ldmdavs	pc, {r0, r3, r5, r6, sl, ip, sp, lr}^	; <UNPREDICTABLE>
  58:	65706c65 	ldrbvs	r6, [r0, #-3173]!	; 0xc65
  5c:	6e690072 	mcrvs	0, 3, r0, cr9, cr2, {3}
  60:	7461645f 	strbtvc	r6, [r1], #-1119	; 0x45f
  64:	4e470061 	cdpmi	0, 4, cr0, cr7, cr1, {3}
  68:	20432055 	subcs	r2, r3, r5, asr r0
  6c:	2e382e34 	mrccs	14, 1, r2, cr8, cr4, {1}
  70:	6d2d2033 	stcvs	0, cr2, [sp, #-204]!	; 0xffffff34
  74:	3d757063 	ldclcc	0, cr7, [r5, #-396]!	; 0xfffffe74
  78:	316d7261 	cmncc	sp, r1, ror #4
  7c:	6a363731 	bvs	d8dd48 <__bss_end__+0xb89ef0>
  80:	732d667a 	teqvc	sp, #127926272	; 0x7a00000
  84:	746d2d20 	strbtvc	r2, [sp], #-3360	; 0xd20
  88:	3d656e75 	stclcc	14, cr6, [r5, #-468]!	; 0xfffffe2c
  8c:	316d7261 	cmncc	sp, r1, ror #4
  90:	6a363731 	bvs	d8dd5c <__bss_end__+0xb89f04>
  94:	732d667a 	teqvc	sp, #127926272	; 0x7a00000
  98:	67672d20 	strbvs	r2, [r7, -r0, lsr #26]!
  9c:	2d206264 	sfmcs	f6, 4, [r0, #-400]!	; 0xfffffe70
  a0:	2d20674f 	stccs	7, cr6, [r0, #-316]!	; 0xfffffec4
  a4:	3d647473 	cfstrdcc	mvd7, [r4, #-460]!	; 0xfffffe34
  a8:	39756e67 	ldmdbcc	r5!, {r0, r1, r2, r5, r6, r9, sl, fp, sp, lr}^
  ac:	662d2039 			; <UNDEFINED> instruction: 0x662d2039
  b0:	65657266 	strbvs	r7, [r5, #-614]!	; 0x266
  b4:	6e617473 	mcrvs	4, 3, r7, cr1, cr3, {3}
  b8:	676e6964 	strbvs	r6, [lr, -r4, ror #18]!
  bc:	736b6300 	cmnvc	fp, #0, 6
  c0:	6e006d75 	mcrvs	13, 0, r6, cr0, cr5, {3}
  c4:	616d746f 	cmnvs	sp, pc, ror #8
  c8:	42006e69 	andmi	r6, r0, #1680	; 0x690
  cc:	435f4441 	cmpmi	pc, #1090519040	; 0x41000000
  d0:	5f45444f 	svcpl	0x0045444f
  d4:	55534b43 	ldrbpl	r4, [r3, #-2883]	; 0xb43
  d8:	7570004d 	ldrbvc	r0, [r0, #-77]!	; 0x4d
  dc:	79625f74 	stmdbvc	r2!, {r2, r4, r5, r6, r8, r9, sl, fp, ip, lr}^
  e0:	75006574 	strvc	r6, [r0, #-1396]	; 0x574
  e4:	6769736e 	strbvs	r7, [r9, -lr, ror #6]!
  e8:	2064656e 	rsbcs	r6, r4, lr, ror #10
  ec:	72616863 	rsbvc	r6, r1, #6488064	; 0x630000
  f0:	665f6e00 	ldrbvs	r6, [pc], -r0, lsl #28
  f4:	696c6c61 	stmdbvs	ip!, {r0, r5, r6, sl, fp, sp, lr}^
  f8:	655f676e 	ldrbvs	r6, [pc, #-1902]	; fffff992 <__bss_end__+0xffdfbb3a>
  fc:	00656764 	rsbeq	r6, r5, r4, ror #14
 100:	755f7773 	ldrbvc	r7, [pc, #-1907]	; fffff995 <__bss_end__+0xffdfbb3d>
 104:	5f747261 	svcpl	0x00747261
 108:	64610074 	strbtvs	r0, [r1], #-116	; 0x74
 10c:	47007264 	strmi	r7, [r0, -r4, ror #4]
 110:	505f5445 	subspl	r5, pc, r5, asr #8
 114:	5f474f52 	svcpl	0x00474f52
 118:	4f464e49 	svcmi	0x00464e49
 11c:	75616200 	strbvc	r6, [r1, #-512]!	; 0x200
 120:	6f620064 	svcvs	0x00620064
 124:	6f6c746f 	svcvs	0x006c746f
 128:	72656461 	rsbvc	r6, r5, #1627389952	; 0x61000000
 12c:	4200632e 	andmi	r6, r0, #-1207959552	; 0xb8000000
 130:	5f544f4f 	svcpl	0x00544f4f
 134:	4f525245 	svcmi	0x00525245
 138:	5f6e0052 	svcpl	0x006e0052
 13c:	65746e69 	ldrbvs	r6, [r4, #-3689]!	; 0xe69
 140:	70757272 	rsbsvc	r7, r5, r2, ror r2
 144:	79630074 	stmdbvc	r3!, {r2, r4, r5, r6}^
 148:	5f656c63 	svcpl	0x00656c63
 14c:	5f726570 	svcpl	0x00726570
 150:	00746962 	rsbseq	r6, r4, r2, ror #18
 154:	6573552f 	ldrbvs	r5, [r3, #-1327]!	; 0x52f
 158:	622f7372 	eorvs	r7, pc, #-939524095	; 0xc8000001
 15c:	6e616972 	mcrvs	9, 3, r6, cr1, cr2, {3}
 160:	2f6e756a 	svccs	0x006e756a
 164:	6b736544 	blvs	1cd967c <__bss_end__+0x1ad5824>
 168:	2f706f74 	svccs	0x00706f74
 16c:	6f686373 	svcvs	0x00686373
 170:	572f6c6f 	strpl	r6, [pc, -pc, ror #24]!
 174:	65746e69 	ldrbvs	r6, [r4, #-3689]!	; 0xe69
 178:	32393172 	eorscc	r3, r9, #-2147483620	; 0x8000001c
 17c:	53432f30 	movtpl	r2, #16176	; 0x3f30
 180:	45303431 	ldrmi	r3, [r0, #-1073]!	; 0x431
 184:	3173632f 	cmncc	r3, pc, lsr #6
 188:	2d653034 	stclcs	0, cr3, [r5, #-208]!	; 0xffffff30
 18c:	69773032 	ldmdbvs	r7!, {r1, r4, r5, ip, sp}^
 190:	616c2f6e 	cmnvs	ip, lr, ror #30
 194:	732f7362 	teqvc	pc, #-2013265919	; 0x88000001
 198:	61752d77 	cmnvs	r5, r7, ror sp
 19c:	622d7472 	eorvs	r7, sp, #1912602624	; 0x72000000
 1a0:	6c746f6f 	ldclvs	15, cr6, [r4], #-444	; 0xfffffe44
 1a4:	6564616f 	strbvs	r6, [r4, #-367]!	; 0x16f
 1a8:	69702f72 	ldmdbvs	r0!, {r1, r4, r5, r6, r8, r9, sl, fp, sp}^
 1ac:	6469732d 	strbtvs	r7, [r9], #-813	; 0x32d
 1b0:	77730065 	ldrbvc	r0, [r3, -r5, rrx]!
 1b4:	7475705f 	ldrbtvc	r7, [r5], #-95	; 0x5f
 1b8:	7773006b 	ldrbvc	r0, [r3, -fp, rrx]!
 1bc:	7261755f 	rsbvc	r7, r1, #398458880	; 0x17c00000
 1c0:	75705f74 	ldrbvc	r5, [r0, #-3956]!	; 0xf74
 1c4:	41006374 	tstmi	r0, r4, ror r3
 1c8:	41424d52 	cmpmi	r2, r2, asr sp
 1cc:	74004553 	strvc	r4, [r0], #-1363	; 0x553
 1d0:	72656d69 	rsbvc	r6, r5, #6720	; 0x1a40
 1d4:	7465675f 	strbtvc	r6, [r5], #-1887	; 0x75f
 1d8:	6573755f 	ldrbvs	r7, [r3, #-1375]!	; 0x55f
 1dc:	55500063 	ldrbpl	r0, [r0, #-99]	; 0x63
 1e0:	52505f54 	subspl	r5, r0, #84, 30	; 0x150
 1e4:	495f474f 	ldmdbmi	pc, {r0, r1, r2, r3, r6, r8, r9, sl, lr}^	; <UNPREDICTABLE>
 1e8:	004f464e 	subeq	r4, pc, lr, asr #12
 1ec:	676e6f6c 	strbvs	r6, [lr, -ip, ror #30]!
 1f0:	6e6f6c20 	cdpvs	12, 6, cr6, cr15, cr0, {1}
 1f4:	6e752067 	cdpvs	0, 7, cr2, cr5, cr7, {3}
 1f8:	6e676973 	mcrvs	9, 3, r6, cr7, cr3, {3}
 1fc:	69206465 	stmdbvs	r0!, {r0, r2, r5, r6, sl, sp, lr}
 200:	7500746e 	strvc	r7, [r0, #-1134]	; 0x46e
 204:	38746e69 	ldmdacc	r4!, {r0, r3, r5, r6, r9, sl, fp, sp, lr}^
 208:	5000745f 	andpl	r7, r0, pc, asr r4
 20c:	435f5455 	cmpmi	pc, #1426063360	; 0x55000000
 210:	0045444f 	subeq	r4, r5, pc, asr #8
 214:	69725f6e 	ldmdbvs	r2!, {r1, r2, r3, r5, r6, r8, r9, sl, fp, ip, lr}^
 218:	676e6973 			; <UNDEFINED> instruction: 0x676e6973
 21c:	6764655f 			; <UNDEFINED> instruction: 0x6764655f
 220:	69730065 	ldmdbvs	r3!, {r0, r2, r5, r6}^
 224:	7974657a 	ldmdbvc	r4!, {r1, r3, r4, r5, r6, r8, sl, sp, lr}^
 228:	6c006570 	cfstr32vs	mvfx6, [r0], {112}	; 0x70
 22c:	20676e6f 	rsbcs	r6, r7, pc, ror #28
 230:	676e6f6c 	strbvs	r6, [lr, -ip, ror #30]!
 234:	746e6920 	strbtvc	r6, [lr], #-2336	; 0x920
 238:	74757000 	ldrbtvc	r7, [r5], #-0
 23c:	6e69755f 	mcrvs	5, 3, r7, cr9, cr15, {2}
 240:	626e0074 	rsbvs	r0, lr, #116	; 0x74
 244:	73657479 	cmnvc	r5, #2030043136	; 0x79000000
 248:	6e696e00 	cdpvs	14, 6, cr6, cr9, cr0, {0}
 24c:	72726574 	rsbsvc	r6, r2, #116, 10	; 0x1d000000
 250:	00747075 	rsbseq	r7, r4, r5, ror r0
 254:	726f6873 	rsbvc	r6, pc, #7536640	; 0x730000
 258:	6e692074 	mcrvs	0, 3, r2, cr9, cr4, {3}
 25c:	6e650074 	mcrvs	0, 3, r0, cr5, cr4, {3}
 260:	656c6261 	strbvs	r6, [ip, #-609]!	; 0x261
 264:	6361635f 	cmnvs	r1, #2080374785	; 0x7c000001
 268:	75006568 	strvc	r6, [r0, #-1384]	; 0x568
 26c:	33746e69 	cmncc	r4, #1680	; 0x690
 270:	00745f32 	rsbseq	r5, r4, r2, lsr pc
 274:	544f4f42 	strbpl	r4, [pc], #-3906	; 27c <_start-0x7d84>
 278:	4355535f 	cmpmi	r5, #2080374785	; 0x7c000001
 27c:	53534543 	cmppl	r3, #281018368	; 0x10c00000
 280:	44414200 	strbmi	r4, [r1], #-512	; 0x200
 284:	444f435f 	strbmi	r4, [pc], #-863	; 28c <_start-0x7d74>
 288:	44415f45 	strbmi	r5, [r1], #-3909	; 0xf45
 28c:	42005244 	andmi	r5, r0, #68, 4	; 0x40000004
 290:	5f544f4f 	svcpl	0x00544f4f
 294:	52415453 	subpl	r5, r1, #1392508928	; 0x53000000
 298:	69640054 	stmdbvs	r4!, {r2, r4, r6}^
 29c:	6c626173 	stfvse	f6, [r2], #-460	; 0xfffffe34
 2a0:	61635f65 	cmnvs	r3, r5, ror #30
 2a4:	00656863 	rsbeq	r6, r5, r3, ror #16
 2a8:	6573552f 	ldrbvs	r5, [r3, #-1327]!	; 0x52f
 2ac:	622f7372 	eorvs	r7, pc, #-939524095	; 0xc8000001
 2b0:	6e616972 	mcrvs	9, 3, r6, cr1, cr2, {3}
 2b4:	2f6e756a 	svccs	0x006e756a
 2b8:	6b736544 	blvs	1cd97d0 <__bss_end__+0x1ad5978>
 2bc:	2f706f74 	svccs	0x00706f74
 2c0:	6f686373 	svcvs	0x00686373
 2c4:	572f6c6f 	strpl	r6, [pc, -pc, ror #24]!
 2c8:	65746e69 	ldrbvs	r6, [r4, #-3689]!	; 0xe69
 2cc:	32393172 	eorscc	r3, r9, #-2147483620	; 0x8000001c
 2d0:	53432f30 	movtpl	r2, #16176	; 0x3f30
 2d4:	45303431 	ldrmi	r3, [r0, #-1073]!	; 0x431
 2d8:	3173632f 	cmncc	r3, pc, lsr #6
 2dc:	2d653034 	stclcs	0, cr3, [r5, #-208]!	; 0xffffff30
 2e0:	69773032 	ldmdbvs	r7!, {r1, r4, r5, ip, sp}^
 2e4:	696c2f6e 	stmdbvs	ip!, {r1, r2, r3, r5, r6, r8, r9, sl, fp, sp}^
 2e8:	00697062 	rsbeq	r7, r9, r2, rrx
 2ec:	34317363 	ldrtcc	r7, [r1], #-867	; 0x363
 2f0:	732d6530 	teqvc	sp, #48, 10	; 0xc000000
 2f4:	632f6372 	teqvs	pc, #-939524095	; 0xc8000001
 2f8:	65686361 	strbvs	r6, [r8, #-865]!	; 0x361
 2fc:	7200632e 	andvc	r6, r0, #-1207959552	; 0xb8000000
 300:	725f6970 	subsvc	r6, pc, #112, 18	; 0x1c0000
 304:	6f6f6265 	svcvs	0x006f6265
 308:	6c630074 	stclvs	0, cr0, [r3], #-464	; 0xfffffe30
 30c:	5f6e6165 	svcpl	0x006e6165
 310:	6f626572 	svcvs	0x00626572
 314:	6300746f 	movwvs	r7, #1135	; 0x46f
 318:	30343173 	eorscc	r3, r4, r3, ror r1
 31c:	72732d65 	rsbsvc	r2, r3, #6464	; 0x1940
 320:	6c632f63 	stclvs	15, cr2, [r3], #-396	; 0xfffffe74
 324:	2d6e6165 	stfcse	f6, [lr, #-404]!	; 0xfffffe6c
 328:	6f626572 	svcvs	0x00626572
 32c:	632e746f 	teqvs	lr, #1862270976	; 0x6f000000
 330:	6c656400 	cfstrdvs	mvd6, [r5], #-0
 334:	6d5f7961 	ldclvs	9, cr7, [pc, #-388]	; 1b8 <_start-0x7e48>
 338:	74610073 	strbtvc	r0, [r1], #-115	; 0x73
 33c:	6573755f 	ldrbvs	r7, [r3, #-1375]!	; 0x55f
 340:	656c5f72 	strbvs	r5, [ip, #-3954]!	; 0xf72
 344:	006c6576 	rsbeq	r6, ip, r6, ror r5
 348:	505f4d50 	subspl	r4, pc, r0, asr sp	; <UNPREDICTABLE>
 34c:	57535341 	ldrbpl	r5, [r3, -r1, asr #6]
 350:	0044524f 	subeq	r5, r4, pc, asr #4
 354:	34317363 	ldrtcc	r7, [r1], #-867	; 0x363
 358:	732d6530 	teqvc	sp, #48, 10	; 0xc000000
 35c:	722f6372 	eorvc	r6, pc, #-939524095	; 0xc8000001
 360:	6f6f6265 	svcvs	0x006f6265
 364:	00632e74 	rsbeq	r2, r3, r4, ror lr
 368:	525f4d50 	subspl	r4, pc, #80, 26	; 0x1400
 36c:	5f435453 	svcpl	0x00435453
 370:	46435257 			; <UNDEFINED> instruction: 0x46435257
 374:	55465f47 	strbpl	r5, [r6, #-3911]	; 0xf47
 378:	525f4c4c 	subspl	r4, pc, #76, 24	; 0x4c00
 37c:	54455345 	strbpl	r5, [r5], #-837	; 0x345
 380:	5f4d5000 	svcpl	0x004d5000
 384:	474f4457 	smlsldmi	r4, pc, r7, r4	; <UNPREDICTABLE>
 388:	74657300 	strbtvc	r7, [r5], #-768	; 0x300
 38c:	6573755f 	ldrbvs	r7, [r3, #-1375]!	; 0x55f
 390:	656c5f72 	strbvs	r5, [ip, #-3954]!	; 0xf72
 394:	006c6576 	rsbeq	r6, ip, r6, ror r5
 398:	33545550 	cmpcc	r4, #80, 10	; 0x14000000
 39c:	4d500032 	ldclmi	0, cr0, [r0, #-200]	; 0xffffff38
 3a0:	5453525f 	ldrbpl	r5, [r3], #-607	; 0x25f
 3a4:	70630043 	rsbvc	r0, r3, r3, asr #32
 3a8:	74007273 	strvc	r7, [r0], #-627	; 0x273
 3ac:	72656d69 	rsbvc	r6, r5, #6720	; 0x1a40
 3b0:	7465675f 	strbtvc	r6, [r5], #-1887	; 0x75f
 3b4:	6573755f 	ldrbvs	r7, [r3, #-1375]!	; 0x55f
 3b8:	61725f63 	cmnvs	r2, r3, ror #30
 3bc:	65640077 	strbvs	r0, [r4, #-119]!	; 0x77
 3c0:	5f79616c 	svcpl	0x0079616c
 3c4:	00636573 	rsbeq	r6, r3, r3, ror r5
 3c8:	34317363 	ldrtcc	r7, [r1], #-867	; 0x363
 3cc:	732d6530 	teqvc	sp, #48, 10	; 0xc000000
 3d0:	742f6372 	strtvc	r6, [pc], #-882	; 3d8 <_start-0x7c28>
 3d4:	72656d69 	rsbvc	r6, r5, #6720	; 0x1a40
 3d8:	4700632e 	strmi	r6, [r0, -lr, lsr #6]
 3dc:	32335445 	eorscc	r5, r3, #1157627904	; 0x45000000
 3e0:	63697400 	cmnvs	r9, #0, 8
 3e4:	6400736b 	strvs	r7, [r0], #-875	; 0x36b
 3e8:	79616c65 	stmdbvc	r1!, {r0, r2, r5, r6, sl, fp, sp, lr}^
 3ec:	6379635f 	cmnvs	r9, #2080374785	; 0x7c000001
 3f0:	0073656c 	rsbseq	r6, r3, ip, ror #10
 3f4:	616c6564 	cmnvs	ip, r4, ror #10
 3f8:	73755f79 	cmnvc	r5, #484	; 0x1e4
 3fc:	49504700 	ldmdbmi	r0, {r8, r9, sl, lr}^
 400:	4e495f4f 	cdpmi	15, 4, cr5, cr9, cr15, {2}
 404:	47003054 	smlsdmi	r0, r4, r0, r3
 408:	5f4f4950 	svcpl	0x004f4950
 40c:	31544e49 	cmpcc	r4, r9, asr #28
 410:	49504700 	ldmdbmi	r0, {r8, r9, sl, lr}^
 414:	4e495f4f 	cdpmi	15, 4, cr5, cr9, cr15, {2}
 418:	47003254 	smlsdmi	r0, r4, r2, r3
 41c:	5f4f4950 	svcpl	0x004f4950
 420:	33544e49 	cmpcc	r4, #1168	; 0x490
 424:	5f6e6900 	svcpl	0x006e6900
 428:	74697277 	strbtvc	r7, [r9], #-631	; 0x277
 42c:	72650065 	rsbvc	r0, r5, #101	; 0x65
 430:	73726f72 	cmnvc	r2, #456	; 0x1c8
 434:	7461665f 	strbtvc	r6, [r1], #-1631	; 0x65f
 438:	705f6c61 	subsvc	r6, pc, r1, ror #24
 43c:	69706700 	ldmdbvs	r0!, {r8, r9, sl, sp, lr}^
 440:	72775f6f 	rsbsvc	r5, r7, #444	; 0x1bc
 444:	00657469 	rsbeq	r7, r5, r9, ror #8
 448:	5f6d7261 	svcpl	0x006d7261
 44c:	656d6974 	strbvs	r6, [sp, #-2420]!	; 0x974
 450:	41525f72 	cmpmi	r2, r2, ror pc
 454:	51524957 	cmppl	r2, r7, asr r9
 458:	5f777300 	svcpl	0x00777300
 45c:	74726175 	ldrbtvc	r6, [r2], #-373	; 0x175
 460:	7465675f 	strbtvc	r6, [r5], #-1887	; 0x75f
 464:	6e695f63 	cdpvs	15, 6, cr5, cr9, cr3, {3}
 468:	79630074 	stmdbvc	r3!, {r2, r4, r5, r6}^
 46c:	65705f63 	ldrbvs	r5, [r0, #-3939]!	; 0xf63
 470:	69625f72 	stmdbvs	r2!, {r1, r4, r5, r6, r8, r9, sl, fp, ip, lr}^
 474:	5f630074 	svcpl	0x00630074
 478:	00667562 	rsbeq	r7, r6, r2, ror #10
 47c:	74697277 	strbtvc	r7, [r9], #-631	; 0x277
 480:	79635f65 	stmdbvc	r3!, {r0, r2, r5, r6, r8, r9, sl, fp, ip, lr}^
 484:	6e755f63 	cdpvs	15, 7, cr5, cr5, cr3, {3}
 488:	006c6974 	rsbeq	r6, ip, r4, ror r9
 48c:	655f7163 	ldrbvs	r7, [pc, #-355]	; 331 <_start-0x7ccf>
 490:	7974706d 	ldmdbvc	r4!, {r0, r2, r3, r5, r6, ip, sp, lr}^
 494:	5f777300 	svcpl	0x00777300
 498:	74726175 	ldrbtvc	r6, [r2], #-373	; 0x175
 49c:	7465675f 	strbtvc	r6, [r5], #-1887	; 0x75f
 4a0:	69745f63 	ldmdbvs	r4!, {r0, r1, r5, r6, r8, r9, sl, fp, ip, lr}^
 4a4:	756f656d 	strbvc	r6, [pc, #-1389]!	; ffffff3f <__bss_end__+0xffdfc0e7>
 4a8:	77730074 			; <UNDEFINED> instruction: 0x77730074
 4ac:	7261755f 	rsbvc	r7, r1, #398458880	; 0x17c00000
 4b0:	65675f74 	strbvs	r5, [r7, #-3956]!	; 0xf74
 4b4:	755f7374 	ldrbvc	r7, [pc, #-884]	; 148 <_start-0x7eb8>
 4b8:	6c69746e 	cfstrdvs	mvd7, [r9], #-440	; 0xfffffe48
 4bc:	706f7000 	rsbvc	r7, pc, r0
 4c0:	74756f5f 	ldrbtvc	r6, [r5], #-3935	; 0xf5f
 4c4:	6d726100 	ldfvse	f6, [r2, #-0]
 4c8:	6d69745f 	cfstrdvs	mvd7, [r9, #-380]!	; 0xfffffe84
 4cc:	435f7265 	cmpmi	pc, #1342177286	; 0x50000006
 4d0:	72746e6f 	rsbsvc	r6, r4, #1776	; 0x6f0
 4d4:	5f006c6f 	svcpl	0x00006c6f
 4d8:	5f61765f 	svcpl	0x0061765f
 4dc:	7473696c 	ldrbtvc	r6, [r3], #-2412	; 0x96c
 4e0:	2d796d00 	ldclcs	13, cr6, [r9, #-0]
 4e4:	2f637273 	svccs	0x00637273
 4e8:	755f7773 	ldrbvc	r7, [pc, #-1907]	; fffffd7d <__bss_end__+0xffdfbf25>
 4ec:	5f747261 	svcpl	0x00747261
 4f0:	2e746e69 	cdpcs	14, 7, cr6, cr4, cr9, {3}
 4f4:	72610063 	rsbvc	r0, r1, #99	; 0x63
 4f8:	69745f6d 	ldmdbvs	r4!, {r0, r2, r3, r5, r6, r8, r9, sl, fp, ip, lr}^
 4fc:	5f72656d 	svcpl	0x0072656d
 500:	64616f4c 	strbtvs	r6, [r1], #-3916	; 0xf4c
 504:	6d726100 	ldfvse	f6, [r2, #-0]
 508:	6d69745f 	cfstrdvs	mvd7, [r9, #-380]!	; 0xfffffe84
 50c:	425f7265 	subsmi	r7, pc, #1342177286	; 0x50000006
 510:	00657361 	rsbeq	r7, r5, r1, ror #6
 514:	755f7773 	ldrbvc	r7, [pc, #-1907]	; fffffda9 <__bss_end__+0xffdfbf51>
 518:	5f747261 	svcpl	0x00747261
 51c:	63746567 	cmnvs	r4, #432013312	; 0x19c00000
 520:	65737500 	ldrbvs	r7, [r3, #-1280]!	; 0x500
 524:	69745f63 	ldmdbvs	r4!, {r0, r1, r5, r6, r8, r9, sl, fp, ip, lr}^
 528:	756f656d 	strbvc	r6, [pc, #-1389]!	; ffffffc3 <__bss_end__+0xffdfc16b>
 52c:	72610074 	rsbvc	r0, r1, #116	; 0x74
 530:	69745f6d 	ldmdbvs	r4!, {r0, r2, r3, r5, r6, r8, r9, sl, fp, ip, lr}^
 534:	5f72656d 	svcpl	0x0072656d
 538:	6b73614d 	blvs	1cd8a74 <__bss_end__+0x1ad4c1c>
 53c:	52496465 	subpl	r6, r9, #1694498816	; 0x65000000
 540:	6e690051 	mcrvs	0, 3, r0, cr9, cr1, {2}
 544:	6e69705f 	mcrvs	0, 3, r7, cr9, cr15, {2}
 548:	6c656400 	cfstrdvs	mvd6, [r5], #-0
 54c:	6e5f7961 	cdpvs	9, 5, cr7, cr15, cr1, {3}
 550:	6c637963 	stclvs	9, cr7, [r3], #-396	; 0xfffffe74
 554:	67007365 	strvs	r7, [r0, -r5, ror #6]
 558:	5f6f6970 	svcpl	0x006f6970
 55c:	6e657665 	cdpvs	6, 6, cr7, cr5, cr5, {3}
 560:	6c635f74 	stclvs	15, cr5, [r3], #-464	; 0xfffffe30
 564:	00726165 	rsbseq	r6, r2, r5, ror #2
 568:	55465f5f 	strbpl	r5, [r6, #-3935]	; 0xf5f
 56c:	4954434e 	ldmdbmi	r4, {r1, r2, r3, r6, r8, r9, lr}^
 570:	5f5f4e4f 	svcpl	0x005f4e4f
 574:	69707200 	ldmdbvs	r0!, {r9, ip, sp, lr}^
 578:	6d72615f 	ldfvse	f6, [r2, #-380]!	; 0xfffffe84
 57c:	6d69745f 	cfstrdvs	mvd7, [r9, #-380]!	; 0xfffffe84
 580:	745f7265 	ldrbvc	r7, [pc], #-613	; 588 <_start-0x7a78>
 584:	5f777300 	svcpl	0x00777300
 588:	74726175 	ldrbtvc	r6, [r2], #-373	; 0x175
 58c:	7465675f 	strbtvc	r6, [r5], #-1887	; 0x75f
 590:	6e755f73 	mrcvs	15, 3, r5, cr5, cr3, {3}
 594:	5f6c6974 	svcpl	0x006c6974
 598:	006b6c62 	rsbeq	r6, fp, r2, ror #24
 59c:	656d6974 	strbvs	r6, [sp, #-2420]!	; 0x974
 5a0:	5f74756f 	svcpl	0x0074756f
 5a4:	63657375 	cmnvs	r5, #-738197503	; 0xd4000001
 5a8:	74757000 	ldrbtvc	r7, [r5], #-0
 5ac:	77730051 			; <UNDEFINED> instruction: 0x77730051
 5b0:	7261755f 	rsbvc	r7, r1, #398458880	; 0x17c00000
 5b4:	75705f74 	ldrbvc	r5, [r0, #-3956]!	; 0xf74
 5b8:	76006b74 			; <UNDEFINED> instruction: 0x76006b74
 5bc:	72705f61 	rsbsvc	r5, r0, #388	; 0x184
 5c0:	6b746e69 	blvs	1d1bf6c <__bss_end__+0x1b18114>
 5c4:	5f777300 	svcpl	0x00777300
 5c8:	74726175 	ldrbtvc	r6, [r2], #-373	; 0x175
 5cc:	6972705f 	ldmdbvs	r2!, {r0, r1, r2, r3, r4, r6, ip, sp, lr}^
 5d0:	006b746e 	rsbeq	r7, fp, lr, ror #8
 5d4:	6f697067 	svcvs	0x00697067
 5d8:	6165725f 	cmnvs	r5, pc, asr r2
 5dc:	61740064 	cmnvs	r4, r4, rrx
 5e0:	63006c69 	movwvs	r6, #3177	; 0xc69
 5e4:	5f726168 	svcpl	0x00726168
 5e8:	5f006e69 	svcpl	0x00006e69
 5ec:	756e675f 	strbvc	r6, [lr, #-1887]!	; 0x75f
 5f0:	61765f63 	cmnvs	r6, r3, ror #30
 5f4:	73696c5f 	cmnvc	r9, #24320	; 0x5f00
 5f8:	71630074 	smcvc	12292	; 0x3004
 5fc:	706f705f 	rsbvc	r7, pc, pc, asr r0	; <UNPREDICTABLE>
 600:	6e6f6e5f 	mcrvs	14, 3, r6, cr15, cr15, {2}
 604:	636f6c62 	cmnvs	pc, #25088	; 0x6200
 608:	7261006b 	rsbvc	r0, r1, #107	; 0x6b
 60c:	69745f6d 	ldmdbvs	r4!, {r0, r2, r3, r5, r6, r8, r9, sl, fp, ip, lr}^
 610:	5f72656d 	svcpl	0x0072656d
 614:	6f6c6552 	svcvs	0x006c6552
 618:	73006461 	movwvc	r6, #1121	; 0x461
 61c:	61755f77 	cmnvs	r5, r7, ror pc
 620:	675f7472 			; <UNDEFINED> instruction: 0x675f7472
 624:	5f737465 	svcpl	0x00737465
 628:	656d6974 	strbvs	r6, [sp, #-2420]!	; 0x974
 62c:	0074756f 	rsbseq	r7, r4, pc, ror #10
 630:	74726175 	ldrbtvc	r6, [r2], #-373	; 0x175
 634:	746e6900 	strbtvc	r6, [lr], #-2304	; 0x900
 638:	75727265 	ldrbvc	r7, [r2, #-613]!	; 0x265
 63c:	765f7470 			; <UNDEFINED> instruction: 0x765f7470
 640:	6f746365 	svcvs	0x00746365
 644:	71630072 	smcvc	12290	; 0x3002
 648:	00745f65 	rsbseq	r5, r4, r5, ror #30
 64c:	64616568 	strbtvs	r6, [r1], #-1384	; 0x568
 650:	74756f00 	ldrbtvc	r6, [r5], #-3840	; 0xf00
 654:	6e69705f 	mcrvs	0, 3, r7, cr9, cr15, {2}
 658:	6e656600 	cdpvs	6, 6, cr6, cr5, cr0, {0}
 65c:	67006563 	strvs	r6, [r0, -r3, ror #10]
 660:	5f6f6970 	svcpl	0x006f6970
 664:	5f746573 	svcpl	0x00746573
 668:	75706e69 	ldrbvc	r6, [r0, #-3689]!	; 0xe69
 66c:	766f0074 			; <UNDEFINED> instruction: 0x766f0074
 670:	6c667265 	sfmvs	f7, 2, [r6], #-404	; 0xfffffe6c
 674:	6300776f 	movwvs	r7, #1903	; 0x76f
 678:	75705f71 	ldrbvc	r5, [r0, #-3953]!	; 0xf71
 67c:	73006873 	movwvc	r6, #2163	; 0x873
 680:	74726174 	ldrbtvc	r6, [r2], #-372	; 0x174
 684:	6d69745f 	cfstrdvs	mvd7, [r9, #-380]!	; 0xfffffe84
 688:	5f5f0065 	svcpl	0x005f0065
 68c:	61007061 	tstvs	r0, r1, rrx
 690:	745f6d72 	ldrbvc	r6, [pc], #-3442	; 698 <_start-0x7968>
 694:	72656d69 	rsbvc	r6, r5, #6720	; 0x1a40
 698:	6572505f 	ldrbvs	r5, [r2, #-95]!	; 0x5f
 69c:	69766944 	ldmdbvs	r6!, {r2, r6, r8, fp, sp, lr}^
 6a0:	00726564 	rsbseq	r6, r2, r4, ror #10
 6a4:	69726564 	ldmdbvs	r2!, {r2, r5, r6, r8, sl, sp, lr}^
 6a8:	00646576 	rsbeq	r6, r4, r6, ror r5
 6ac:	5f6d7261 	svcpl	0x006d7261
 6b0:	656d6974 	strbvs	r6, [sp, #-2420]!	; 0x974
 6b4:	61565f72 	cmpvs	r6, r2, ror pc
 6b8:	0065756c 	rsbeq	r7, r5, ip, ror #10
 6bc:	5f6d7261 	svcpl	0x006d7261
 6c0:	656d6974 	strbvs	r6, [sp, #-2420]!	; 0x974
 6c4:	52495f72 	subpl	r5, r9, #456	; 0x1c8
 6c8:	656c4351 	strbvs	r4, [ip, #-849]!	; 0x351
 6cc:	67007261 	strvs	r7, [r0, -r1, ror #4]
 6d0:	5f6f6970 	svcpl	0x006f6970
 6d4:	5f746573 	svcpl	0x00746573
 6d8:	7074756f 	rsbsvc	r7, r4, pc, ror #10
 6dc:	63007475 	movwvs	r7, #1141	; 0x475
 6e0:	00745f71 	rsbseq	r5, r4, r1, ror pc
 6e4:	675f7369 	ldrbvs	r7, [pc, -r9, ror #6]
 6e8:	5f6f6970 	svcpl	0x006f6970
 6ec:	00746e69 	rsbseq	r6, r4, r9, ror #28
 6f0:	5f646e65 	svcpl	0x00646e65
 6f4:	656d6974 	strbvs	r6, [sp, #-2420]!	; 0x974
 6f8:	61747300 	cmnvs	r4, r0, lsl #6
 6fc:	61007472 	tstvs	r0, r2, ror r4
 700:	00736772 	rsbseq	r6, r3, r2, ror r7
 704:	665f7163 	ldrbvs	r7, [pc], -r3, ror #2
 708:	006c6c75 	rsbeq	r6, ip, r5, ror ip
 70c:	5f6d7261 	svcpl	0x006d7261
 710:	656d6974 	strbvs	r6, [sp, #-2420]!	; 0x974
 714:	72465f72 	subvc	r5, r6, #456	; 0x1c8
 718:	75526565 	ldrbvc	r6, [r2, #-1381]	; 0x565
 71c:	6e696e6e 	cdpvs	14, 6, cr6, cr9, cr14, {3}
 720:	756f4367 	strbvc	r4, [pc, #-871]!	; 3c1 <_start-0x7c3f>
 724:	7265746e 	rsbvc	r7, r5, #1845493760	; 0x6e000000
 728:	69706700 	ldmdbvs	r0!, {r8, r9, sl, sp, lr}^
 72c:	76655f6f 	strbtvc	r5, [r5], -pc, ror #30
 730:	5f746e65 	svcpl	0x00746e65
 734:	65746564 	ldrbvs	r6, [r4, #-1380]!	; 0x564
 738:	64657463 	strbtvs	r7, [r5], #-1123	; 0x463
 73c:	74757000 	ldrbtvc	r7, [r5], #-0
 740:	47003233 	smladxmi	r0, r3, r2, r3
 744:	45534650 	ldrbmi	r4, [r3, #-1616]	; 0x650
 748:	4700324c 	strmi	r3, [r0, -ip, asr #4]
 74c:	524c4350 	subpl	r4, ip, #80, 6	; 0x40000001
 750:	4e450030 	mcrmi	0, 2, r0, cr5, cr0, {1}
 754:	454c4241 	strbmi	r4, [ip, #-577]	; 0x241
 758:	5152495f 	cmppl	r2, pc, asr r9
 75c:	00325f53 	eorseq	r5, r2, r3, asr pc
 760:	4f495047 	svcmi	0x00495047
 764:	4e55465f 	mrcmi	6, 2, r4, cr5, cr15, {2}
 768:	4e495f43 	cdpmi	15, 4, cr5, cr9, cr3, {2}
 76c:	00545550 	subseq	r5, r4, r0, asr r5
 770:	6f697067 	svcvs	0x00697067
 774:	7465735f 	strbtvc	r7, [r5], #-863	; 0x35f
 778:	66666f5f 	uqsaxvs	r6, r6, pc	; <UNPREDICTABLE>
 77c:	2d796d00 	ldclcs	13, cr6, [r9, #-0]
 780:	2f637273 	svccs	0x00637273
 784:	6f697067 	svcvs	0x00697067
 788:	6900632e 	stmdbvs	r0, {r1, r2, r3, r5, r8, r9, sp, lr}
 78c:	6d5f746e 	cfldrdvs	mvd7, [pc, #-440]	; 5dc <_start-0x7a24>
 790:	006b7361 	rsbeq	r7, fp, r1, ror #6
 794:	45535047 	ldrbmi	r5, [r3, #-71]	; 0x47
 798:	47003054 	smlsdmi	r0, r4, r0, r3
 79c:	54455350 	strbpl	r5, [r5], #-848	; 0x350
 7a0:	65720031 	ldrbvs	r0, [r2, #-49]!	; 0x31
 7a4:	74735f67 	ldrbtvc	r5, [r3], #-3943	; 0xf67
 7a8:	47007461 	strmi	r7, [r0, -r1, ror #8]
 7ac:	56454c50 			; <UNDEFINED> instruction: 0x56454c50
 7b0:	50470030 	subpl	r0, r7, r0, lsr r0
 7b4:	3156454c 	cmpcc	r6, ip, asr #10
 7b8:	69706700 	ldmdbvs	r0!, {r8, r9, sl, sp, lr}^
 7bc:	65725f6f 	ldrbvs	r5, [r2, #-3951]!	; 0xf6f
 7c0:	50470067 	subpl	r0, r7, r7, rrx
 7c4:	4c455346 	mcrrmi	3, 4, r5, r5, cr6
 7c8:	50470030 	subpl	r0, r7, r0, lsr r0
 7cc:	4c455346 	mcrrmi	3, 4, r5, r5, cr6
 7d0:	50470031 	subpl	r0, r7, r1, lsr r0
 7d4:	4c455346 	mcrrmi	3, 4, r5, r5, cr6
 7d8:	50470033 	subpl	r0, r7, r3, lsr r0
 7dc:	4c455346 	mcrrmi	3, 4, r5, r5, cr6
 7e0:	50470034 	subpl	r0, r7, r4, lsr r0
 7e4:	4c455346 	mcrrmi	3, 4, r5, r5, cr6
 7e8:	65640035 	strbvs	r0, [r4, #-53]!	; 0x35
 7ec:	61625f76 	smcvs	9718	; 0x25f6
 7f0:	65697272 	strbvs	r7, [r9, #-626]!	; 0x272
 7f4:	70670072 	rsbvc	r0, r7, r2, ror r0
 7f8:	665f6f69 	ldrbvs	r6, [pc], -r9, ror #30
 7fc:	306c6573 	rsbcc	r6, ip, r3, ror r5
 800:	43504700 	cmpmi	r0, #0, 14
 804:	0031524c 	eorseq	r5, r1, ip, asr #4
 808:	6f697067 	svcvs	0x00697067
 80c:	746e695f 	strbtvc	r6, [lr], #-2399	; 0x95f
 810:	7369725f 	cmnvc	r9, #-268435451	; 0xf0000005
 814:	5f676e69 	svcpl	0x00676e69
 818:	65676465 	strbvs	r6, [r7, #-1125]!	; 0x465
 81c:	69706700 	ldmdbvs	r0!, {r8, r9, sl, sp, lr}^
 820:	65735f6f 	ldrbvs	r5, [r3, #-3951]!	; 0xf6f
 824:	75665f74 	strbvc	r5, [r6, #-3956]!	; 0xf74
 828:	6974636e 	ldmdbvs	r4!, {r1, r2, r3, r5, r6, r8, r9, sp, lr}^
 82c:	47006e6f 	strmi	r6, [r0, -pc, ror #28]
 830:	4e455250 	mcrmi	2, 2, r5, cr5, cr0, {2}
 834:	50470030 	subpl	r0, r7, r0, lsr r0
 838:	314e4552 	cmpcc	lr, r2, asr r5
 83c:	51524900 	cmppl	r2, r0, lsl #18
 840:	4e45505f 	mcrmi	0, 2, r5, cr5, cr15, {2}
 844:	474e4944 	strbmi	r4, [lr, -r4, asr #18]
 848:	4900315f 	stmdbmi	r0, {r0, r1, r2, r3, r4, r6, r8, ip, sp}
 84c:	505f5152 	subspl	r5, pc, r2, asr r1	; <UNPREDICTABLE>
 850:	49444e45 	stmdbmi	r4, {r0, r2, r6, r9, sl, fp, lr}^
 854:	325f474e 	subscc	r4, pc, #20447232	; 0x1380000
 858:	74696200 	strbtvc	r6, [r9], #-512	; 0x200
 85c:	6b73616d 	blvs	1cd8e18 <__bss_end__+0x1ad4fc0>
 860:	69706700 	ldmdbvs	r0!, {r8, r9, sl, sp, lr}^
 864:	65735f6f 	ldrbvs	r5, [r3, #-3951]!	; 0xf6f
 868:	66003074 			; <UNDEFINED> instruction: 0x66003074
 86c:	00636e75 	rsbeq	r6, r3, r5, ror lr
 870:	44455047 	strbmi	r5, [r5], #-71	; 0x47
 874:	47003053 	smlsdmi	r0, r3, r0, r3
 878:	53444550 	movtpl	r4, #17744	; 0x4550
 87c:	70670031 	rsbvc	r0, r7, r1, lsr r0
 880:	735f6f69 	cmpvc	pc, #420	; 0x1a4
 884:	6f5f7465 	svcvs	0x005f7465
 888:	5047006e 	subpl	r0, r7, lr, rrx
 88c:	304e4546 	subcc	r4, lr, r6, asr #10
 890:	46504700 	ldrbmi	r4, [r0], -r0, lsl #14
 894:	00314e45 	eorseq	r4, r1, r5, asr #28
 898:	4f495047 	svcmi	0x00495047
 89c:	4e55465f 	mrcmi	6, 2, r4, cr5, cr15, {2}
 8a0:	554f5f43 	strbpl	r5, [pc, #-3907]	; fffff965 <__bss_end__+0xffdfbb0d>
 8a4:	54555054 	ldrbpl	r5, [r5], #-84	; 0x54
 8a8:	74656700 	strbtvc	r6, [r5], #-1792	; 0x700
 8ac:	67003233 	smladxvs	r0, r3, r2, r3
 8b0:	5f6f6970 	svcpl	0x006f6970
 8b4:	5f746e69 	svcpl	0x00746e69
 8b8:	6c6c6166 	stfvse	f6, [ip], #-408	; 0xfffffe68
 8bc:	5f676e69 	svcpl	0x00676e69
 8c0:	65676465 	strbvs	r6, [r7, #-1125]!	; 0x465
 8c4:	69706700 	ldmdbvs	r0!, {r8, r9, sl, sp, lr}^
 8c8:	75665f6f 	strbvc	r5, [r6, #-3951]!	; 0xf6f
 8cc:	745f636e 	ldrbvc	r6, [pc], #-878	; 8d4 <_start-0x772c>
 8d0:	49504700 	ldmdbmi	r0, {r8, r9, sl, lr}^
 8d4:	55465f4f 	strbpl	r5, [r6, #-3919]	; 0xf4f
 8d8:	415f434e 	cmpmi	pc, lr, asr #6
 8dc:	0030544c 	eorseq	r5, r0, ip, asr #8
 8e0:	4f495047 	svcmi	0x00495047
 8e4:	4e55465f 	mrcmi	6, 2, r4, cr5, cr15, {2}
 8e8:	4c415f43 	mcrrmi	15, 4, r5, r1, cr3
 8ec:	47003154 	smlsdmi	r0, r4, r1, r3
 8f0:	5f4f4950 	svcpl	0x004f4950
 8f4:	434e5546 	movtmi	r5, #58694	; 0xe546
 8f8:	544c415f 	strbpl	r4, [ip], #-351	; 0x15f
 8fc:	50470032 	subpl	r0, r7, r2, lsr r0
 900:	465f4f49 	ldrbmi	r4, [pc], -r9, asr #30
 904:	5f434e55 	svcpl	0x00434e55
 908:	33544c41 	cmpcc	r4, #16640	; 0x4100
 90c:	49504700 	ldmdbmi	r0, {r8, r9, sl, lr}^
 910:	55465f4f 	strbpl	r5, [r6, #-3919]	; 0xf4f
 914:	415f434e 	cmpmi	pc, lr, asr #6
 918:	0034544c 	eorseq	r5, r4, ip, asr #8
 91c:	4f495047 	svcmi	0x00495047
 920:	4e55465f 	mrcmi	6, 2, r4, cr5, cr15, {2}
 924:	4c415f43 	mcrrmi	15, 4, r5, r1, cr3
 928:	72003554 	andvc	r3, r0, #84, 10	; 0x15000000
 92c:	735f6765 	cmpvc	pc, #26476544	; 0x1940000
 930:	63656c65 	cmnvs	r5, #25856	; 0x6500
 934:	70670074 	rsbvc	r0, r7, r4, ror r0
 938:	635f6f69 	cmpvs	pc, #420	; 0x1a4
 93c:	0030726c 	eorseq	r7, r0, ip, ror #4
 940:	6362696c 	cmnvs	r2, #108, 18	; 0x1b0000
 944:	6972702f 	ldmdbvs	r2!, {r0, r1, r2, r3, r5, ip, sp, lr}^
 948:	2e6b746e 	cdpcs	4, 6, cr7, cr11, cr14, {3}
 94c:	696c0063 	stmdbvs	ip!, {r0, r1, r5, r6}^
 950:	702f6362 	eorvc	r6, pc, r2, ror #6
 954:	2e6b7475 	mcrcs	4, 3, r7, cr11, cr5, {3}
 958:	6e690063 	cdpvs	0, 6, cr0, cr9, cr3, {3}
 95c:	6e726574 	mrcvs	5, 3, r6, cr2, cr4, {3}
 960:	705f6c61 	subsvc	r6, pc, r1, ror #24
 964:	006b7475 	rsbeq	r7, fp, r5, ror r4
 968:	5f697072 	svcpl	0x00697072
 96c:	63747570 	cmnvs	r4, #112, 10	; 0x1c000000
 970:	00726168 	rsbseq	r6, r2, r8, ror #2
 974:	5f67656e 	svcpl	0x0067656e
 978:	65720070 	ldrbvs	r0, [r2, #-112]!	; 0x70
 97c:	73726576 	cmnvc	r2, #494927872	; 0x1d800000
 980:	73690065 	cmnvc	r9, #101	; 0x65
 984:	69676964 	stmdbvs	r7!, {r2, r5, r6, r8, fp, sp, lr}^
 988:	75700074 	ldrbvc	r0, [r0, #-116]!	; 0x74
 98c:	665f7374 			; <UNDEFINED> instruction: 0x665f7374
 990:	61620070 	smcvs	8192	; 0x2000
 994:	73006573 	movwvc	r6, #1395	; 0x573
 998:	656e6769 	strbvs	r6, [lr, #-1897]!	; 0x769
 99c:	00705f64 	rsbseq	r5, r0, r4, ror #30
 9a0:	6362696c 	cmnvs	r2, #108, 18	; 0x1b0000
 9a4:	2d61762f 	stclcs	6, cr7, [r1, #-188]!	; 0xffffff44
 9a8:	6e697270 	mcrvs	2, 3, r7, cr9, cr0, {3}
 9ac:	632e6b74 	teqvs	lr, #116, 22	; 0x1d000
 9b0:	69707200 	ldmdbvs	r0!, {r9, ip, sp, lr}^
 9b4:	7465735f 	strbtvc	r7, [r5], #-863	; 0x35f
 9b8:	74756f5f 	ldrbtvc	r6, [r5], #-3935	; 0xf5f
 9bc:	00747570 	rsbseq	r7, r4, r0, ror r5
 9c0:	74646977 	strbtvc	r6, [r4], #-2423	; 0x977
 9c4:	75700068 	ldrbvc	r0, [r0, #-104]!	; 0x68
 9c8:	665f6374 			; <UNDEFINED> instruction: 0x665f6374
 9cc:	6d650070 	stclvs	0, cr0, [r5, #-448]!	; 0xfffffe40
 9d0:	69007469 	stmdbvs	r0, {r0, r3, r5, r6, sl, ip, sp, lr}
 9d4:	7265746e 	rsbvc	r7, r5, #1845493760	; 0x6e000000
 9d8:	5f6c616e 	svcpl	0x006c616e
 9dc:	63747570 	cmnvs	r4, #112, 10	; 0x1c000000
 9e0:	00726168 	rsbseq	r6, r2, r8, ror #2
 9e4:	6362696c 	cmnvs	r2, #108, 18	; 0x1b0000
 9e8:	7475702f 	ldrbtvc	r7, [r5], #-47	; 0x2f
 9ec:	72616863 	rsbvc	r6, r1, #6488064	; 0x630000
 9f0:	4100632e 	tstmi	r0, lr, lsr #6
 9f4:	4d5f5855 	ldclmi	8, cr5, [pc, #-340]	; 8a8 <_start-0x7758>
 9f8:	434d5f55 	movtmi	r5, #57173	; 0xdf55
 9fc:	45525f52 	ldrbmi	r5, [r2, #-3922]	; 0xf52
 a00:	55410047 	strbpl	r0, [r1, #-71]	; 0x47
 a04:	554d5f58 	strbpl	r5, [sp, #-3928]	; 0xf58
 a08:	5f4f495f 	svcpl	0x004f495f
 a0c:	00474552 	subeq	r4, r7, r2, asr r5
 a10:	5f585541 	svcpl	0x00585541
 a14:	4d5f554d 	cfldr64mi	mvdx5, [pc, #-308]	; 8e8 <_start-0x7718>
 a18:	525f5253 	subspl	r5, pc, #805306373	; 0x30000005
 a1c:	75004745 	strvc	r4, [r0, #-1861]	; 0x745
 a20:	5f747261 	svcpl	0x00747261
 a24:	5f6e6163 	svcpl	0x006e6163
 a28:	63746567 	cmnvs	r4, #432013312	; 0x19c00000
 a2c:	58554100 	ldmdapl	r5, {r8, lr}^
 a30:	5f554d5f 	svcpl	0x00554d5f
 a34:	4c544e43 	mrrcmi	14, 4, r4, r4, cr3	; <UNPREDICTABLE>
 a38:	4745525f 	smlsldmi	r5, r5, pc, r2	; <UNPREDICTABLE>
 a3c:	72617500 	rsbvc	r7, r1, #0, 10
 a40:	61685f74 	smcvs	34292	; 0x85f4
 a44:	61645f73 	smcvs	17907	; 0x45f3
 a48:	75006174 	strvc	r6, [r0, #-372]	; 0x174
 a4c:	5f747261 	svcpl	0x00747261
 a50:	74696e69 	strbtvc	r6, [r9], #-3689	; 0xe69
 a54:	58554100 	ldmdapl	r5, {r8, lr}^
 a58:	5f554d5f 	svcpl	0x00554d5f
 a5c:	5f524549 	svcpl	0x00524549
 a60:	00474552 	subeq	r4, r7, r2, asr r5
 a64:	5f585541 	svcpl	0x00585541
 a68:	495f554d 	ldmdbmi	pc, {r0, r2, r3, r6, r8, sl, ip, lr}^	; <UNPREDICTABLE>
 a6c:	525f5249 	subspl	r5, pc, #-1879048188	; 0x90000004
 a70:	75004745 	strvc	r4, [r0, #-1861]	; 0x745
 a74:	5f747261 	svcpl	0x00747261
 a78:	5f6e6163 	svcpl	0x006e6163
 a7c:	63747570 	cmnvs	r4, #112, 10	; 0x1c000000
 a80:	58554100 	ldmdapl	r5, {r8, lr}^
 a84:	414e455f 	cmpmi	lr, pc, asr r5
 a88:	53454c42 	movtpl	r4, #23618	; 0x5c42
 a8c:	58554100 	ldmdapl	r5, {r8, lr}^
 a90:	5152495f 	cmppl	r2, pc, asr r9
 a94:	58554100 	ldmdapl	r5, {r8, lr}^
 a98:	5f554d5f 	svcpl	0x00554d5f
 a9c:	44554142 	ldrbmi	r4, [r5], #-322	; 0x142
 aa0:	4745525f 	smlsldmi	r5, r5, pc, r2	; <UNPREDICTABLE>
 aa4:	58554100 	ldmdapl	r5, {r8, lr}^
 aa8:	5f554d5f 	svcpl	0x00554d5f
 aac:	54415453 	strbpl	r5, [r1], #-1107	; 0x453
 ab0:	4745525f 	smlsldmi	r5, r5, pc, r2	; <UNPREDICTABLE>
 ab4:	58554100 	ldmdapl	r5, {r8, lr}^
 ab8:	5f554d5f 	svcpl	0x00554d5f
 abc:	41524353 	cmpmi	r2, r3, asr r3
 ac0:	00484354 	subeq	r4, r8, r4, asr r3
 ac4:	732d796d 	teqvc	sp, #1785856	; 0x1b4000
 ac8:	752f6372 	strvc	r6, [pc, #-882]!	; 75e <_start-0x78a2>
 acc:	2e747261 	cdpcs	2, 7, cr7, cr4, cr1, {3}
 ad0:	55410063 	strbpl	r0, [r1, #-99]	; 0x63
 ad4:	554d5f58 	strbpl	r5, [sp, #-3928]	; 0xf58
 ad8:	52434c5f 	subpl	r4, r3, #24320	; 0x5f00
 adc:	4745525f 	smlsldmi	r5, r5, pc, r2	; <UNPREDICTABLE>
 ae0:	58554100 	ldmdapl	r5, {r8, lr}^
 ae4:	5f554d5f 	svcpl	0x00554d5f
 ae8:	5f52534c 	svcpl	0x0052534c
 aec:	00474552 	subeq	r4, r7, r2, asr r5
 af0:	74726175 	ldrbtvc	r6, [r2], #-373	; 0x175
 af4:	7465675f 	strbtvc	r6, [r5], #-1887	; 0x75f
 af8:	73615f63 	cmnvc	r1, #396	; 0x18c
 afc:	00636e79 	rsbeq	r6, r3, r9, ror lr

Disassembly of section .debug_frame:

00000000 <.debug_frame>:
   0:	0000000c 	andeq	r0, r0, ip
   4:	ffffffff 			; <UNDEFINED> instruction: 0xffffffff
   8:	7c020001 	stcvc	0, cr0, [r2], {1}
   c:	000d0c0e 	andeq	r0, sp, lr, lsl #24
  10:	00000018 	andeq	r0, r0, r8, lsl r0
  14:	00000000 	andeq	r0, r0, r0
  18:	00200010 	eoreq	r0, r0, r0, lsl r0
  1c:	000000bc 	strheq	r0, [r0], -ip
  20:	84100e42 	ldrhi	r0, [r0], #-3650	; 0xe42
  24:	86038504 	strhi	r8, [r3], -r4, lsl #10
  28:	00018e02 	andeq	r8, r1, r2, lsl #28
  2c:	0000001c 	andeq	r0, r0, ip, lsl r0
  30:	00000000 	andeq	r0, r0, r0
  34:	002000cc 	eoreq	r0, r0, ip, asr #1
  38:	00000068 	andeq	r0, r0, r8, rrx
  3c:	84180e42 	ldrhi	r0, [r8], #-3650	; 0xe42
  40:	86058506 	strhi	r8, [r5], -r6, lsl #10
  44:	88038704 	stmdahi	r3, {r2, r8, r9, sl, pc}
  48:	00018e02 	andeq	r8, r1, r2, lsl #28
  4c:	00000014 	andeq	r0, r0, r4, lsl r0
  50:	00000000 	andeq	r0, r0, r0
  54:	00200134 	eoreq	r0, r0, r4, lsr r1
  58:	00000048 	andeq	r0, r0, r8, asr #32
  5c:	8e040e42 	cdphi	14, 0, cr0, cr4, cr2, {2}
  60:	200e4201 	andcs	r4, lr, r1, lsl #4
  64:	0000000c 	andeq	r0, r0, ip
  68:	ffffffff 			; <UNDEFINED> instruction: 0xffffffff
  6c:	7c020001 	stcvc	0, cr0, [r2], {1}
  70:	000d0c0e 	andeq	r0, sp, lr, lsl #24
  74:	0000000c 	andeq	r0, r0, ip
  78:	00000064 	andeq	r0, r0, r4, rrx
  7c:	0020017c 	eoreq	r0, r0, ip, ror r1
  80:	00000010 	andeq	r0, r0, r0, lsl r0
  84:	0000000c 	andeq	r0, r0, ip
  88:	00000064 	andeq	r0, r0, r4, rrx
  8c:	0020018c 	eoreq	r0, r0, ip, lsl #3
  90:	00000010 	andeq	r0, r0, r0, lsl r0
  94:	0000000c 	andeq	r0, r0, ip
  98:	ffffffff 			; <UNDEFINED> instruction: 0xffffffff
  9c:	7c020001 	stcvc	0, cr0, [r2], {1}
  a0:	000d0c0e 	andeq	r0, sp, lr, lsl #24
  a4:	00000014 	andeq	r0, r0, r4, lsl r0
  a8:	00000094 	muleq	r0, r4, r0
  ac:	0020019c 	mlaeq	r0, ip, r1, r0
  b0:	00000028 	andeq	r0, r0, r8, lsr #32
  b4:	83080e42 	movwhi	r0, #36418	; 0x8e42
  b8:	00018e02 	andeq	r8, r1, r2, lsl #28
  bc:	0000000c 	andeq	r0, r0, ip
  c0:	ffffffff 			; <UNDEFINED> instruction: 0xffffffff
  c4:	7c020001 	stcvc	0, cr0, [r2], {1}
  c8:	000d0c0e 	andeq	r0, sp, lr, lsl #24
  cc:	0000000c 	andeq	r0, r0, ip
  d0:	000000bc 	strheq	r0, [r0], -ip
  d4:	002001c4 	eoreq	r0, r0, r4, asr #3
  d8:	00000018 	andeq	r0, r0, r8, lsl r0
  dc:	0000000c 	andeq	r0, r0, ip
  e0:	000000bc 	strheq	r0, [r0], -ip
  e4:	002001dc 	ldrdeq	r0, [r0], -ip	; <UNPREDICTABLE>
  e8:	00000014 	andeq	r0, r0, r4, lsl r0
  ec:	00000014 	andeq	r0, r0, r4, lsl r0
  f0:	000000bc 	strheq	r0, [r0], -ip
  f4:	002001f0 	strdeq	r0, [r0], -r0	; <UNPREDICTABLE>
  f8:	00000048 	andeq	r0, r0, r8, asr #32
  fc:	83080e42 	movwhi	r0, #36418	; 0x8e42
 100:	00018e02 	andeq	r8, r1, r2, lsl #28
 104:	0000000c 	andeq	r0, r0, ip
 108:	ffffffff 			; <UNDEFINED> instruction: 0xffffffff
 10c:	7c020001 	stcvc	0, cr0, [r2], {1}
 110:	000d0c0e 	andeq	r0, sp, lr, lsl #24
 114:	0000000c 	andeq	r0, r0, ip
 118:	00000104 	andeq	r0, r0, r4, lsl #2
 11c:	00200238 	eoreq	r0, r0, r8, lsr r2
 120:	0000001c 	andeq	r0, r0, ip, lsl r0
 124:	00000014 	andeq	r0, r0, r4, lsl r0
 128:	00000104 	andeq	r0, r0, r4, lsl #2
 12c:	00200254 	eoreq	r0, r0, r4, asr r2
 130:	00000014 	andeq	r0, r0, r4, lsl r0
 134:	83080e42 	movwhi	r0, #36418	; 0x8e42
 138:	00018e02 	andeq	r8, r1, r2, lsl #28
 13c:	00000014 	andeq	r0, r0, r4, lsl r0
 140:	00000104 	andeq	r0, r0, r4, lsl #2
 144:	00200268 	eoreq	r0, r0, r8, ror #4
 148:	0000000c 	andeq	r0, r0, ip
 14c:	83080e42 	movwhi	r0, #36418	; 0x8e42
 150:	00018e02 	andeq	r8, r1, r2, lsl #28
 154:	00000018 	andeq	r0, r0, r8, lsl r0
 158:	00000104 	andeq	r0, r0, r4, lsl #2
 15c:	00200274 	eoreq	r0, r0, r4, ror r2
 160:	00000024 	andeq	r0, r0, r4, lsr #32
 164:	83100e42 	tsthi	r0, #1056	; 0x420
 168:	85038404 	strhi	r8, [r3, #-1028]	; 0x404
 16c:	00018e02 	andeq	r8, r1, r2, lsl #28
 170:	00000014 	andeq	r0, r0, r4, lsl r0
 174:	00000104 	andeq	r0, r0, r4, lsl #2
 178:	00200298 	mlaeq	r0, r8, r2, r0
 17c:	00000014 	andeq	r0, r0, r4, lsl r0
 180:	83080e42 	movwhi	r0, #36418	; 0x8e42
 184:	00018e02 	andeq	r8, r1, r2, lsl #28
 188:	00000014 	andeq	r0, r0, r4, lsl r0
 18c:	00000104 	andeq	r0, r0, r4, lsl #2
 190:	002002ac 	eoreq	r0, r0, ip, lsr #5
 194:	00000014 	andeq	r0, r0, r4, lsl r0
 198:	83080e42 	movwhi	r0, #36418	; 0x8e42
 19c:	00018e02 	andeq	r8, r1, r2, lsl #28
 1a0:	0000000c 	andeq	r0, r0, ip
 1a4:	ffffffff 			; <UNDEFINED> instruction: 0xffffffff
 1a8:	7c020001 	stcvc	0, cr0, [r2], {1}
 1ac:	000d0c0e 	andeq	r0, sp, lr, lsl #24
 1b0:	0000001c 	andeq	r0, r0, ip, lsl r0
 1b4:	000001a0 	andeq	r0, r0, r0, lsr #3
 1b8:	002002c0 	eoreq	r0, r0, r0, asr #5
 1bc:	00000170 	andeq	r0, r0, r0, ror r1
 1c0:	84180e42 	ldrhi	r0, [r8], #-3650	; 0xe42
 1c4:	86058506 	strhi	r8, [r5], -r6, lsl #10
 1c8:	88038704 	stmdahi	r3, {r2, r8, r9, sl, pc}
 1cc:	00018e02 	andeq	r8, r1, r2, lsl #28
 1d0:	0000001c 	andeq	r0, r0, ip, lsl r0
 1d4:	000001a0 	andeq	r0, r0, r0, lsr #3
 1d8:	00200430 	eoreq	r0, r0, r0, lsr r4
 1dc:	00000130 	andeq	r0, r0, r0, lsr r1
 1e0:	83180e42 	tsthi	r8, #1056	; 0x420
 1e4:	85058406 	strhi	r8, [r5, #-1030]	; 0x406
 1e8:	87038604 	strhi	r8, [r3, -r4, lsl #12]
 1ec:	00018e02 	andeq	r8, r1, r2, lsl #28
 1f0:	00000020 	andeq	r0, r0, r0, lsr #32
 1f4:	000001a0 	andeq	r0, r0, r0, lsr #3
 1f8:	00200560 	eoreq	r0, r0, r0, ror #10
 1fc:	0000008c 	andeq	r0, r0, ip, lsl #1
 200:	84200e42 	strthi	r0, [r0], #-3650	; 0xe42
 204:	86078508 	strhi	r8, [r7], -r8, lsl #10
 208:	88058706 	stmdahi	r5, {r1, r2, r8, r9, sl, pc}
 20c:	8a038904 	bhi	e2624 <_start+0xda624>
 210:	00018e02 	andeq	r8, r1, r2, lsl #28
 214:	0000001c 	andeq	r0, r0, ip, lsl r0
 218:	000001a0 	andeq	r0, r0, r0, lsr #3
 21c:	002005ec 	eoreq	r0, r0, ip, ror #11
 220:	00000078 	andeq	r0, r0, r8, ror r0
 224:	84180e42 	ldrhi	r0, [r8], #-3650	; 0xe42
 228:	86058506 	strhi	r8, [r5], -r6, lsl #10
 22c:	88038704 	stmdahi	r3, {r2, r8, r9, sl, pc}
 230:	00018e02 	andeq	r8, r1, r2, lsl #28
 234:	0000001c 	andeq	r0, r0, ip, lsl r0
 238:	000001a0 	andeq	r0, r0, r0, lsr #3
 23c:	00200664 	eoreq	r0, r0, r4, ror #12
 240:	000000bc 	strheq	r0, [r0], -ip
 244:	84180e42 	ldrhi	r0, [r8], #-3650	; 0xe42
 248:	86058506 	strhi	r8, [r5], -r6, lsl #10
 24c:	88038704 	stmdahi	r3, {r2, r8, r9, sl, pc}
 250:	00018e02 	andeq	r8, r1, r2, lsl #28
 254:	00000014 	andeq	r0, r0, r4, lsl r0
 258:	000001a0 	andeq	r0, r0, r0, lsr #3
 25c:	00200720 	eoreq	r0, r0, r0, lsr #14
 260:	00000038 	andeq	r0, r0, r8, lsr r0
 264:	83080e42 	movwhi	r0, #36418	; 0x8e42
 268:	00018e02 	andeq	r8, r1, r2, lsl #28
 26c:	00000018 	andeq	r0, r0, r8, lsl r0
 270:	000001a0 	andeq	r0, r0, r0, lsr #3
 274:	00200758 	eoreq	r0, r0, r8, asr r7
 278:	0000002c 	andeq	r0, r0, ip, lsr #32
 27c:	83100e42 	tsthi	r0, #1056	; 0x420
 280:	85038404 	strhi	r8, [r3, #-1028]	; 0x404
 284:	00018e02 	andeq	r8, r1, r2, lsl #28
 288:	00000024 	andeq	r0, r0, r4, lsr #32
 28c:	000001a0 	andeq	r0, r0, r0, lsr #3
 290:	00200784 	eoreq	r0, r0, r4, lsl #15
 294:	00000080 	andeq	r0, r0, r0, lsl #1
 298:	810c0e42 	tsthi	ip, r2, asr #28
 29c:	83028203 	movwhi	r8, #8707	; 0x2203
 2a0:	180e4201 	stmdane	lr, {r0, r9, lr}
 2a4:	05850684 	streq	r0, [r5, #1668]	; 0x684
 2a8:	0e42048e 	cdpeq	4, 4, cr0, cr2, cr14, {4}
 2ac:	000003e8 	andeq	r0, r0, r8, ror #7
 2b0:	00000014 	andeq	r0, r0, r4, lsl r0
 2b4:	000001a0 	andeq	r0, r0, r0, lsr #3
 2b8:	00200804 	eoreq	r0, r0, r4, lsl #16
 2bc:	00000048 	andeq	r0, r0, r8, asr #32
 2c0:	8e040e42 	cdphi	14, 0, cr0, cr4, cr2, {2}
 2c4:	100e4201 	andne	r4, lr, r1, lsl #4
 2c8:	00000014 	andeq	r0, r0, r4, lsl r0
 2cc:	000001a0 	andeq	r0, r0, r0, lsr #3
 2d0:	0020084c 	eoreq	r0, r0, ip, asr #16
 2d4:	00000104 	andeq	r0, r0, r4, lsl #2
 2d8:	84080e42 	strhi	r0, [r8], #-3650	; 0xe42
 2dc:	00018e02 	andeq	r8, r1, r2, lsl #28
 2e0:	00000020 	andeq	r0, r0, r0, lsr #32
 2e4:	000001a0 	andeq	r0, r0, r0, lsr #3
 2e8:	00200950 	eoreq	r0, r0, r0, asr r9
 2ec:	00000088 	andeq	r0, r0, r8, lsl #1
 2f0:	83200e42 	teqhi	r0, #1056	; 0x420
 2f4:	85078408 	strhi	r8, [r7, #-1032]	; 0x408
 2f8:	87058606 	strhi	r8, [r5, -r6, lsl #12]
 2fc:	89038804 	stmdbhi	r3, {r2, fp, pc}
 300:	00018e02 	andeq	r8, r1, r2, lsl #28
 304:	0000000c 	andeq	r0, r0, ip
 308:	ffffffff 			; <UNDEFINED> instruction: 0xffffffff
 30c:	7c020001 	stcvc	0, cr0, [r2], {1}
 310:	000d0c0e 	andeq	r0, sp, lr, lsl #24
 314:	00000018 	andeq	r0, r0, r8, lsl r0
 318:	00000304 	andeq	r0, r0, r4, lsl #6
 31c:	00200a24 	eoreq	r0, r0, r4, lsr #20
 320:	000000d4 	ldrdeq	r0, [r0], -r4
 324:	83100e42 	tsthi	r0, #1056	; 0x420
 328:	85038404 	strhi	r8, [r3, #-1028]	; 0x404
 32c:	00018e02 	andeq	r8, r1, r2, lsl #28
 330:	00000014 	andeq	r0, r0, r4, lsl r0
 334:	00000304 	andeq	r0, r0, r4, lsl #6
 338:	00200af8 	strdeq	r0, [r0], -r8	; <UNPREDICTABLE>
 33c:	00000038 	andeq	r0, r0, r8, lsr r0
 340:	83080e42 	movwhi	r0, #36418	; 0x8e42
 344:	00018e02 	andeq	r8, r1, r2, lsl #28
 348:	00000014 	andeq	r0, r0, r4, lsl r0
 34c:	00000304 	andeq	r0, r0, r4, lsl #6
 350:	00200b30 	eoreq	r0, r0, r0, lsr fp
 354:	00000038 	andeq	r0, r0, r8, lsr r0
 358:	83080e42 	movwhi	r0, #36418	; 0x8e42
 35c:	00018e02 	andeq	r8, r1, r2, lsl #28
 360:	00000018 	andeq	r0, r0, r8, lsl r0
 364:	00000304 	andeq	r0, r0, r4, lsl #6
 368:	00200b68 	eoreq	r0, r0, r8, ror #22
 36c:	000000cc 	andeq	r0, r0, ip, asr #1
 370:	83100e42 	tsthi	r0, #1056	; 0x420
 374:	85038404 	strhi	r8, [r3, #-1028]	; 0x404
 378:	00018e02 	andeq	r8, r1, r2, lsl #28
 37c:	00000014 	andeq	r0, r0, r4, lsl r0
 380:	00000304 	andeq	r0, r0, r4, lsl #6
 384:	00200c34 	eoreq	r0, r0, r4, lsr ip
 388:	0000004c 	andeq	r0, r0, ip, asr #32
 38c:	84080e42 	strhi	r0, [r8], #-3650	; 0xe42
 390:	00018e02 	andeq	r8, r1, r2, lsl #28
 394:	00000014 	andeq	r0, r0, r4, lsl r0
 398:	00000304 	andeq	r0, r0, r4, lsl #6
 39c:	00200c80 	eoreq	r0, r0, r0, lsl #25
 3a0:	00000078 	andeq	r0, r0, r8, ror r0
 3a4:	83080e42 	movwhi	r0, #36418	; 0x8e42
 3a8:	00018e02 	andeq	r8, r1, r2, lsl #28
 3ac:	00000018 	andeq	r0, r0, r8, lsl r0
 3b0:	00000304 	andeq	r0, r0, r4, lsl #6
 3b4:	00200cf8 	strdeq	r0, [r0], -r8	; <UNPREDICTABLE>
 3b8:	000000d8 	ldrdeq	r0, [r0], -r8
 3bc:	84100e42 	ldrhi	r0, [r0], #-3650	; 0xe42
 3c0:	86038504 	strhi	r8, [r3], -r4, lsl #10
 3c4:	00018e02 	andeq	r8, r1, r2, lsl #28
 3c8:	00000014 	andeq	r0, r0, r4, lsl r0
 3cc:	00000304 	andeq	r0, r0, r4, lsl #6
 3d0:	00200dd0 	ldrdeq	r0, [r0], -r0	; <UNPREDICTABLE>
 3d4:	0000002c 	andeq	r0, r0, ip, lsr #32
 3d8:	83080e42 	movwhi	r0, #36418	; 0x8e42
 3dc:	00018e02 	andeq	r8, r1, r2, lsl #28
 3e0:	00000018 	andeq	r0, r0, r8, lsl r0
 3e4:	00000304 	andeq	r0, r0, r4, lsl #6
 3e8:	00200dfc 	strdeq	r0, [r0], -ip	; <UNPREDICTABLE>
 3ec:	00000084 	andeq	r0, r0, r4, lsl #1
 3f0:	83100e42 	tsthi	r0, #1056	; 0x420
 3f4:	85038404 	strhi	r8, [r3, #-1028]	; 0x404
 3f8:	00018e02 	andeq	r8, r1, r2, lsl #28
 3fc:	00000018 	andeq	r0, r0, r8, lsl r0
 400:	00000304 	andeq	r0, r0, r4, lsl #6
 404:	00200e80 	eoreq	r0, r0, r0, lsl #29
 408:	00000084 	andeq	r0, r0, r4, lsl #1
 40c:	83100e42 	tsthi	r0, #1056	; 0x420
 410:	85038404 	strhi	r8, [r3, #-1028]	; 0x404
 414:	00018e02 	andeq	r8, r1, r2, lsl #28
 418:	00000014 	andeq	r0, r0, r4, lsl r0
 41c:	00000304 	andeq	r0, r0, r4, lsl #6
 420:	00200f04 	eoreq	r0, r0, r4, lsl #30
 424:	00000084 	andeq	r0, r0, r4, lsl #1
 428:	84080e42 	strhi	r0, [r8], #-3650	; 0xe42
 42c:	00018e02 	andeq	r8, r1, r2, lsl #28
 430:	00000014 	andeq	r0, r0, r4, lsl r0
 434:	00000304 	andeq	r0, r0, r4, lsl #6
 438:	00200f88 	eoreq	r0, r0, r8, lsl #31
 43c:	00000058 	andeq	r0, r0, r8, asr r0
 440:	84080e42 	strhi	r0, [r8], #-3650	; 0xe42
 444:	00018e02 	andeq	r8, r1, r2, lsl #28
 448:	0000000c 	andeq	r0, r0, ip
 44c:	ffffffff 			; <UNDEFINED> instruction: 0xffffffff
 450:	7c020001 	stcvc	0, cr0, [r2], {1}
 454:	000d0c0e 	andeq	r0, sp, lr, lsl #24
 458:	00000024 	andeq	r0, r0, r4, lsr #32
 45c:	00000448 	andeq	r0, r0, r8, asr #8
 460:	00200fe0 	eoreq	r0, r0, r0, ror #31
 464:	00000058 	andeq	r0, r0, r8, asr r0
 468:	80100e42 	andshi	r0, r0, r2, asr #28
 46c:	82038104 	andhi	r8, r3, #4, 2
 470:	42018302 	andmi	r8, r1, #134217728	; 0x8000000
 474:	07841c0e 	streq	r1, [r4, lr, lsl #24]
 478:	058e0685 	streq	r0, [lr, #1669]	; 0x685
 47c:	00280e42 	eoreq	r0, r8, r2, asr #28
 480:	0000000c 	andeq	r0, r0, ip
 484:	ffffffff 			; <UNDEFINED> instruction: 0xffffffff
 488:	7c020001 	stcvc	0, cr0, [r2], {1}
 48c:	000d0c0e 	andeq	r0, sp, lr, lsl #24
 490:	00000018 	andeq	r0, r0, r8, lsl r0
 494:	00000480 	andeq	r0, r0, r0, lsl #9
 498:	00201038 	eoreq	r1, r0, r8, lsr r0
 49c:	00000034 	andeq	r0, r0, r4, lsr r0
 4a0:	83100e42 	tsthi	r0, #1056	; 0x420
 4a4:	85038404 	strhi	r8, [r3, #-1028]	; 0x404
 4a8:	00018e02 	andeq	r8, r1, r2, lsl #28
 4ac:	0000000c 	andeq	r0, r0, ip
 4b0:	ffffffff 			; <UNDEFINED> instruction: 0xffffffff
 4b4:	7c020001 	stcvc	0, cr0, [r2], {1}
 4b8:	000d0c0e 	andeq	r0, sp, lr, lsl #24
 4bc:	0000000c 	andeq	r0, r0, ip
 4c0:	000004ac 	andeq	r0, r0, ip, lsr #9
 4c4:	0020106c 	eoreq	r1, r0, ip, rrx
 4c8:	00000014 	andeq	r0, r0, r4, lsl r0
 4cc:	0000000c 	andeq	r0, r0, ip
 4d0:	000004ac 	andeq	r0, r0, ip, lsr #9
 4d4:	00201080 	eoreq	r1, r0, r0, lsl #1
 4d8:	0000002c 	andeq	r0, r0, ip, lsr #32
 4dc:	0000000c 	andeq	r0, r0, ip
 4e0:	000004ac 	andeq	r0, r0, ip, lsr #9
 4e4:	002010ac 	eoreq	r1, r0, ip, lsr #1
 4e8:	00000040 	andeq	r0, r0, r0, asr #32
 4ec:	00000020 	andeq	r0, r0, r0, lsr #32
 4f0:	000004ac 	andeq	r0, r0, ip, lsr #9
 4f4:	002010ec 	eoreq	r1, r0, ip, ror #1
 4f8:	00000198 	muleq	r0, r8, r1
 4fc:	84180e42 	ldrhi	r0, [r8], #-3650	; 0xe42
 500:	86058506 	strhi	r8, [r5], -r6, lsl #10
 504:	88038704 	stmdahi	r3, {r2, r8, r9, sl, pc}
 508:	42018e02 	andmi	r8, r1, #2, 28
 50c:	0000580e 	andeq	r5, r0, lr, lsl #16
 510:	00000014 	andeq	r0, r0, r4, lsl r0
 514:	000004ac 	andeq	r0, r0, ip, lsr #9
 518:	00201284 	eoreq	r1, r0, r4, lsl #5
 51c:	00000050 	andeq	r0, r0, r0, asr r0
 520:	83080e42 	movwhi	r0, #36418	; 0x8e42
 524:	00018e02 	andeq	r8, r1, r2, lsl #28
 528:	00000028 	andeq	r0, r0, r8, lsr #32
 52c:	000004ac 	andeq	r0, r0, ip, lsr #9
 530:	002012d4 	ldrdeq	r1, [r0], -r4	; <UNPREDICTABLE>
 534:	00000288 	andeq	r0, r0, r8, lsl #5
 538:	84240e42 	strthi	r0, [r4], #-3650	; 0xe42
 53c:	86088509 	strhi	r8, [r8], -r9, lsl #10
 540:	88068707 	stmdahi	r6, {r0, r1, r2, r8, r9, sl, pc}
 544:	8a048905 	bhi	122960 <_start+0x11a960>
 548:	8e028b03 	vmlahi.f64	d8, d2, d3
 54c:	b00e4201 	andlt	r4, lr, r1, lsl #4
 550:	00000001 	andeq	r0, r0, r1
 554:	0000000c 	andeq	r0, r0, ip
 558:	ffffffff 			; <UNDEFINED> instruction: 0xffffffff
 55c:	7c020001 	stcvc	0, cr0, [r2], {1}
 560:	000d0c0e 	andeq	r0, sp, lr, lsl #24
 564:	00000014 	andeq	r0, r0, r4, lsl r0
 568:	00000554 	andeq	r0, r0, r4, asr r5
 56c:	00201574 	eoreq	r1, r0, r4, ror r5
 570:	00000014 	andeq	r0, r0, r4, lsl r0
 574:	84080e42 	strhi	r0, [r8], #-3650	; 0xe42
 578:	00018e02 	andeq	r8, r1, r2, lsl #28
 57c:	0000000c 	andeq	r0, r0, ip
 580:	ffffffff 			; <UNDEFINED> instruction: 0xffffffff
 584:	7c020001 	stcvc	0, cr0, [r2], {1}
 588:	000d0c0e 	andeq	r0, sp, lr, lsl #24
 58c:	00000018 	andeq	r0, r0, r8, lsl r0
 590:	0000057c 	andeq	r0, r0, ip, ror r5
 594:	00201588 	eoreq	r1, r0, r8, lsl #11
 598:	0000009c 	muleq	r0, ip, r0
 59c:	83100e42 	tsthi	r0, #1056	; 0x420
 5a0:	85038404 	strhi	r8, [r3, #-1028]	; 0x404
 5a4:	00018e02 	andeq	r8, r1, r2, lsl #28
 5a8:	00000014 	andeq	r0, r0, r4, lsl r0
 5ac:	0000057c 	andeq	r0, r0, ip, ror r5
 5b0:	00201624 	eoreq	r1, r0, r4, lsr #12
 5b4:	0000001c 	andeq	r0, r0, ip, lsl r0
 5b8:	83080e42 	movwhi	r0, #36418	; 0x8e42
 5bc:	00018e02 	andeq	r8, r1, r2, lsl #28
 5c0:	00000014 	andeq	r0, r0, r4, lsl r0
 5c4:	0000057c 	andeq	r0, r0, ip, ror r5
 5c8:	00201640 	eoreq	r1, r0, r0, asr #12
 5cc:	00000028 	andeq	r0, r0, r8, lsr #32
 5d0:	83080e42 	movwhi	r0, #36418	; 0x8e42
 5d4:	00018e02 	andeq	r8, r1, r2, lsl #28
 5d8:	00000014 	andeq	r0, r0, r4, lsl r0
 5dc:	0000057c 	andeq	r0, r0, ip, ror r5
 5e0:	00201668 	eoreq	r1, r0, r8, ror #12
 5e4:	0000001c 	andeq	r0, r0, ip, lsl r0
 5e8:	83080e42 	movwhi	r0, #36418	; 0x8e42
 5ec:	00018e02 	andeq	r8, r1, r2, lsl #28
 5f0:	00000014 	andeq	r0, r0, r4, lsl r0
 5f4:	0000057c 	andeq	r0, r0, ip, ror r5
 5f8:	00201684 	eoreq	r1, r0, r4, lsl #13
 5fc:	0000002c 	andeq	r0, r0, ip, lsr #32
 600:	84080e42 	strhi	r0, [r8], #-3650	; 0xe42
 604:	00018e02 	andeq	r8, r1, r2, lsl #28
 608:	00000014 	andeq	r0, r0, r4, lsl r0
 60c:	0000057c 	andeq	r0, r0, ip, ror r5
 610:	002016b0 	strhteq	r1, [r0], -r0
 614:	0000000c 	andeq	r0, r0, ip
 618:	83080e42 	movwhi	r0, #36418	; 0x8e42
 61c:	00018e02 	andeq	r8, r1, r2, lsl #28
 620:	00000014 	andeq	r0, r0, r4, lsl r0
 624:	0000057c 	andeq	r0, r0, ip, ror r5
 628:	002016bc 	strhteq	r1, [r0], -ip
 62c:	00000020 	andeq	r0, r0, r0, lsr #32
 630:	83080e42 	movwhi	r0, #36418	; 0x8e42
 634:	00018e02 	andeq	r8, r1, r2, lsl #28
