
vm.elf:     file format elf32-littlearm


Disassembly of section .text:

00008000 <_start>:
    8000:	e3a0d302 	mov	sp, #134217728	; 0x8000000
    8004:	e3a0b000 	mov	fp, #0
    8008:	eb00075e 	bl	9d88 <_cstart>
    800c:	eb00078c 	bl	9e44 <rpi_reboot>

00008010 <ttbr0_get>:
    8010:	e92d4038 	push	{r3, r4, r5, lr}
    8014:	e1a04000 	mov	r4, r0
    8018:	e1a05001 	mov	r5, r1
    801c:	e3520000 	cmp	r2, #0
    8020:	0a000006 	beq	8040 <ttbr0_get+0x30>
    8024:	eb0005f0 	bl	97ec <rpi_reset_putc>
    8028:	e59f0030 	ldr	r0, [pc, #48]	; 8060 <ttbr0_get+0x50>
    802c:	e59f1030 	ldr	r1, [pc, #48]	; 8064 <ttbr0_get+0x54>
    8030:	e59f2030 	ldr	r2, [pc, #48]	; 8068 <ttbr0_get+0x58>
    8034:	e3a0301f 	mov	r3, #31
    8038:	eb0005d0 	bl	9780 <printk>
    803c:	eb00073f 	bl	9d40 <clean_reboot>
    8040:	eb0004b2 	bl	9310 <read_ttbr0>
    8044:	e1a031a0 	lsr	r3, r0, #3
    8048:	e2033003 	and	r3, r3, #3
    804c:	e5853000 	str	r3, [r5]
    8050:	e3c00dff 	bic	r0, r0, #16320	; 0x3fc0
    8054:	e3c0003f 	bic	r0, r0, #63	; 0x3f
    8058:	e5840000 	str	r0, [r4]
    805c:	e8bd8038 	pop	{r3, r4, r5, pc}
    8060:	0000b004 	andeq	fp, r0, r4
    8064:	0000ba8c 	andeq	fp, r0, ip, lsl #21
    8068:	0000af60 	andeq	sl, r0, r0, ror #30

0000806c <ttbr1_get>:
    806c:	e92d4038 	push	{r3, r4, r5, lr}
    8070:	e1a04000 	mov	r4, r0
    8074:	e1a05001 	mov	r5, r1
    8078:	e3520000 	cmp	r2, #0
    807c:	0a000006 	beq	809c <ttbr1_get+0x30>
    8080:	eb0005d9 	bl	97ec <rpi_reset_putc>
    8084:	e59f0030 	ldr	r0, [pc, #48]	; 80bc <ttbr1_get+0x50>
    8088:	e59f1030 	ldr	r1, [pc, #48]	; 80c0 <ttbr1_get+0x54>
    808c:	e59f2030 	ldr	r2, [pc, #48]	; 80c4 <ttbr1_get+0x58>
    8090:	e3a03028 	mov	r3, #40	; 0x28
    8094:	eb0005b9 	bl	9780 <printk>
    8098:	eb000728 	bl	9d40 <clean_reboot>
    809c:	eb00049f 	bl	9320 <read_ttbr1>
    80a0:	e1a031a0 	lsr	r3, r0, #3
    80a4:	e2033003 	and	r3, r3, #3
    80a8:	e5853000 	str	r3, [r5]
    80ac:	e3c00dff 	bic	r0, r0, #16320	; 0x3fc0
    80b0:	e3c0003f 	bic	r0, r0, #63	; 0x3f
    80b4:	e5840000 	str	r0, [r4]
    80b8:	e8bd8038 	pop	{r3, r4, r5, pc}
    80bc:	0000b004 	andeq	fp, r0, r4
    80c0:	0000ba8c 	andeq	fp, r0, ip, lsl #21
    80c4:	0000af6c 	andeq	sl, r0, ip, ror #30

000080c8 <domain_acl_print>:
    80c8:	e92d4008 	push	{r3, lr}
    80cc:	e59f0014 	ldr	r0, [pc, #20]	; 80e8 <domain_acl_print+0x20>
    80d0:	eb0005aa 	bl	9780 <printk>
    80d4:	eb00049c 	bl	934c <read_domain_access_ctrl>
    80d8:	e1a01000 	mov	r1, r0
    80dc:	e59f0008 	ldr	r0, [pc, #8]	; 80ec <domain_acl_print+0x24>
    80e0:	eb0005a6 	bl	9780 <printk>
    80e4:	e8bd8008 	pop	{r3, pc}
    80e8:	0000b01c 	andeq	fp, r0, ip, lsl r0
    80ec:	0000b034 	andeq	fp, r0, r4, lsr r0

000080f0 <mmu_lookup_section>:
    80f0:	e92d4008 	push	{r3, lr}
    80f4:	eb0005bc 	bl	97ec <rpi_reset_putc>
    80f8:	e59f0010 	ldr	r0, [pc, #16]	; 8110 <mmu_lookup_section+0x20>
    80fc:	e59f1010 	ldr	r1, [pc, #16]	; 8114 <mmu_lookup_section+0x24>
    8100:	e59f2010 	ldr	r2, [pc, #16]	; 8118 <mmu_lookup_section+0x28>
    8104:	e3a0304b 	mov	r3, #75	; 0x4b
    8108:	eb00059c 	bl	9780 <printk>
    810c:	eb00070b 	bl	9d40 <clean_reboot>
    8110:	0000b03c 	andeq	fp, r0, ip, lsr r0
    8114:	0000ba8c 	andeq	fp, r0, ip, lsl #21
    8118:	0000af78 	andeq	sl, r0, r8, ror pc

0000811c <mmu_mark_sec_ap_perm>:
    811c:	e92d4008 	push	{r3, lr}
    8120:	e1a01a21 	lsr	r1, r1, #20
    8124:	e0800101 	add	r0, r0, r1, lsl #2
    8128:	e3a01000 	mov	r1, #0
    812c:	e2033003 	and	r3, r3, #3
    8130:	e1a0e103 	lsl	lr, r3, #2
    8134:	ea000005 	b	8150 <mmu_mark_sec_ap_perm+0x34>
    8138:	e0803101 	add	r3, r0, r1, lsl #2
    813c:	e5d3c001 	ldrb	ip, [r3, #1]
    8140:	e3ccc00c 	bic	ip, ip, #12
    8144:	e18ec00c 	orr	ip, lr, ip
    8148:	e5c3c001 	strb	ip, [r3, #1]
    814c:	e2811001 	add	r1, r1, #1
    8150:	e1510002 	cmp	r1, r2
    8154:	3afffff7 	bcc	8138 <mmu_mark_sec_ap_perm+0x1c>
    8158:	eb0003fe 	bl	9158 <mmu_sync_pte_mod>
    815c:	e8bd8008 	pop	{r3, pc}

00008160 <mmu_mark_sec_readonly>:
    8160:	e92d4008 	push	{r3, lr}
    8164:	e3a03002 	mov	r3, #2
    8168:	ebffffeb 	bl	811c <mmu_mark_sec_ap_perm>
    816c:	e8bd8008 	pop	{r3, pc}

00008170 <mmu_mark_sec_rw>:
    8170:	e92d4008 	push	{r3, lr}
    8174:	e3a03003 	mov	r3, #3
    8178:	ebffffe7 	bl	811c <mmu_mark_sec_ap_perm>
    817c:	e8bd8008 	pop	{r3, pc}

00008180 <mmu_mark_sec_no_access>:
    8180:	e92d4008 	push	{r3, lr}
    8184:	e3a03000 	mov	r3, #0
    8188:	ebffffe3 	bl	811c <mmu_mark_sec_ap_perm>
    818c:	e8bd8008 	pop	{r3, pc}

00008190 <mmu_map_section>:
    8190:	e92d4070 	push	{r4, r5, r6, lr}
    8194:	e1a04000 	mov	r4, r0
    8198:	e1a06001 	mov	r6, r1
    819c:	e1a05002 	mov	r5, r2
    81a0:	e3110013 	tst	r1, #19
    81a4:	0a000006 	beq	81c4 <mmu_map_section+0x34>
    81a8:	eb00058f 	bl	97ec <rpi_reset_putc>
    81ac:	e59f0094 	ldr	r0, [pc, #148]	; 8248 <mmu_map_section+0xb8>
    81b0:	e59f1094 	ldr	r1, [pc, #148]	; 824c <mmu_map_section+0xbc>
    81b4:	e59f2094 	ldr	r2, [pc, #148]	; 8250 <mmu_map_section+0xc0>
    81b8:	e3a03075 	mov	r3, #117	; 0x75
    81bc:	eb00056f 	bl	9780 <printk>
    81c0:	eb0006de 	bl	9d40 <clean_reboot>
    81c4:	e3120013 	tst	r2, #19
    81c8:	0a000006 	beq	81e8 <mmu_map_section+0x58>
    81cc:	eb000586 	bl	97ec <rpi_reset_putc>
    81d0:	e59f007c 	ldr	r0, [pc, #124]	; 8254 <mmu_map_section+0xc4>
    81d4:	e59f1070 	ldr	r1, [pc, #112]	; 824c <mmu_map_section+0xbc>
    81d8:	e59f2070 	ldr	r2, [pc, #112]	; 8250 <mmu_map_section+0xc0>
    81dc:	e3a03076 	mov	r3, #118	; 0x76
    81e0:	eb000566 	bl	9780 <printk>
    81e4:	eb0006d5 	bl	9d40 <clean_reboot>
    81e8:	eb0003fa 	bl	91d8 <cp15_ctrl_reg1_rd>
    81ec:	e3800502 	orr	r0, r0, #8388608	; 0x800000
    81f0:	eb0003fb 	bl	91e4 <cp15_ctrl_reg1_wr>
    81f4:	eb0003f7 	bl	91d8 <cp15_ctrl_reg1_rd>
    81f8:	e1a03a25 	lsr	r3, r5, #20
    81fc:	e1a03a03 	lsl	r3, r3, #20
    8200:	e3833ec2 	orr	r3, r3, #3104	; 0xc20
    8204:	e3833002 	orr	r3, r3, #2
    8208:	e1a06a26 	lsr	r6, r6, #20
    820c:	e0845106 	add	r5, r4, r6, lsl #2
    8210:	e7843106 	str	r3, [r4, r6, lsl #2]
    8214:	eb0003cf 	bl	9158 <mmu_sync_pte_mod>
    8218:	e1a00005 	mov	r0, r5
    821c:	eb000354 	bl	8f74 <fld_print>
    8220:	e59f0030 	ldr	r0, [pc, #48]	; 8258 <mmu_map_section+0xc8>
    8224:	e1a01004 	mov	r1, r4
    8228:	e7942106 	ldr	r2, [r4, r6, lsl #2]
    822c:	eb000553 	bl	9780 <printk>
    8230:	e59f0024 	ldr	r0, [pc, #36]	; 825c <mmu_map_section+0xcc>
    8234:	e1a01005 	mov	r1, r5
    8238:	e3a02004 	mov	r2, #4
    823c:	eb00027f 	bl	8c40 <hash_print>
    8240:	e1a00005 	mov	r0, r5
    8244:	e8bd8070 	pop	{r4, r5, r6, pc}
    8248:	0000b068 	andeq	fp, r0, r8, rrx
    824c:	0000ba8c 	andeq	fp, r0, ip, lsl #21
    8250:	0000af8c 	andeq	sl, r0, ip, lsl #31
    8254:	0000b08c 	andeq	fp, r0, ip, lsl #1
    8258:	0000b0b0 	strheq	fp, [r0], -r0
    825c:	0000b0c4 	andeq	fp, r0, r4, asr #1

00008260 <mmu_map_sections>:
    8260:	e92d41f0 	push	{r4, r5, r6, r7, r8, lr}
    8264:	e1a08000 	mov	r8, r0
    8268:	e1a05001 	mov	r5, r1
    826c:	e1a06002 	mov	r6, r2
    8270:	e1a07003 	mov	r7, r3
    8274:	e3110013 	tst	r1, #19
    8278:	0a000006 	beq	8298 <mmu_map_sections+0x38>
    827c:	eb00055a 	bl	97ec <rpi_reset_putc>
    8280:	e59f0064 	ldr	r0, [pc, #100]	; 82ec <mmu_map_sections+0x8c>
    8284:	e59f1064 	ldr	r1, [pc, #100]	; 82f0 <mmu_map_sections+0x90>
    8288:	e59f2064 	ldr	r2, [pc, #100]	; 82f4 <mmu_map_sections+0x94>
    828c:	e3a03099 	mov	r3, #153	; 0x99
    8290:	eb00053a 	bl	9780 <printk>
    8294:	eb0006a9 	bl	9d40 <clean_reboot>
    8298:	e3120013 	tst	r2, #19
    829c:	0a00000e 	beq	82dc <mmu_map_sections+0x7c>
    82a0:	eb000551 	bl	97ec <rpi_reset_putc>
    82a4:	e59f004c 	ldr	r0, [pc, #76]	; 82f8 <mmu_map_sections+0x98>
    82a8:	e59f1040 	ldr	r1, [pc, #64]	; 82f0 <mmu_map_sections+0x90>
    82ac:	e59f2040 	ldr	r2, [pc, #64]	; 82f4 <mmu_map_sections+0x94>
    82b0:	e3a0309a 	mov	r3, #154	; 0x9a
    82b4:	eb000531 	bl	9780 <printk>
    82b8:	eb0006a0 	bl	9d40 <clean_reboot>
    82bc:	e1a00008 	mov	r0, r8
    82c0:	e1a01005 	mov	r1, r5
    82c4:	e1a02006 	mov	r2, r6
    82c8:	ebffffb0 	bl	8190 <mmu_map_section>
    82cc:	e2855601 	add	r5, r5, #1048576	; 0x100000
    82d0:	e2866601 	add	r6, r6, #1048576	; 0x100000
    82d4:	e2844001 	add	r4, r4, #1
    82d8:	ea000000 	b	82e0 <mmu_map_sections+0x80>
    82dc:	e3a04000 	mov	r4, #0
    82e0:	e1540007 	cmp	r4, r7
    82e4:	3afffff4 	bcc	82bc <mmu_map_sections+0x5c>
    82e8:	e8bd81f0 	pop	{r4, r5, r6, r7, r8, pc}
    82ec:	0000b068 	andeq	fp, r0, r8, rrx
    82f0:	0000ba8c 	andeq	fp, r0, ip, lsl #21
    82f4:	0000af9c 	muleq	r0, ip, pc	; <UNPREDICTABLE>
    82f8:	0000b08c 	andeq	fp, r0, ip, lsl #1

000082fc <mmu_init>:
    82fc:	e92d4010 	push	{r4, lr}
    8300:	e1a04000 	mov	r4, r0
    8304:	e310000d 	tst	r0, #13
    8308:	0a000006 	beq	8328 <mmu_init+0x2c>
    830c:	eb000536 	bl	97ec <rpi_reset_putc>
    8310:	e59f002c 	ldr	r0, [pc, #44]	; 8344 <mmu_init+0x48>
    8314:	e59f102c 	ldr	r1, [pc, #44]	; 8348 <mmu_init+0x4c>
    8318:	e59f202c 	ldr	r2, [pc, #44]	; 834c <mmu_init+0x50>
    831c:	e3a030a4 	mov	r3, #164	; 0xa4
    8320:	eb000516 	bl	9780 <printk>
    8324:	eb000685 	bl	9d40 <clean_reboot>
    8328:	e3a01000 	mov	r1, #0
    832c:	e3a02901 	mov	r2, #16384	; 0x4000
    8330:	eb00050a 	bl	9760 <memset>
    8334:	e59f3014 	ldr	r3, [pc, #20]	; 8350 <mmu_init+0x54>
    8338:	e5834000 	str	r4, [r3]
    833c:	e1a00004 	mov	r0, r4
    8340:	e8bd8010 	pop	{r4, pc}
    8344:	0000b0d0 	ldrdeq	fp, [r0], -r0
    8348:	0000ba8c 	andeq	fp, r0, ip, lsl #21
    834c:	0000afb0 			; <UNDEFINED> instruction: 0x0000afb0
    8350:	0000bf74 	andeq	fp, r0, r4, ror pc

00008354 <x_mmu_disable>:
    8354:	e92d4008 	push	{r3, lr}
    8358:	eb00039e 	bl	91d8 <cp15_ctrl_reg1_rd>
    835c:	e3c00001 	bic	r0, r0, #1
    8360:	eb0003cd 	bl	929c <our_mmu_disable>
    8364:	e8bd8008 	pop	{r3, pc}

00008368 <prefetch_abort_vector>:
    8368:	e92d4008 	push	{r3, lr}
    836c:	ebfffff8 	bl	8354 <x_mmu_disable>
    8370:	eb00051d 	bl	97ec <rpi_reset_putc>
    8374:	e59f0010 	ldr	r0, [pc, #16]	; 838c <prefetch_abort_vector+0x24>
    8378:	e59f1010 	ldr	r1, [pc, #16]	; 8390 <prefetch_abort_vector+0x28>
    837c:	e59f2010 	ldr	r2, [pc, #16]	; 8394 <prefetch_abort_vector+0x2c>
    8380:	e3a030be 	mov	r3, #190	; 0xbe
    8384:	eb0004fd 	bl	9780 <printk>
    8388:	eb00066c 	bl	9d40 <clean_reboot>
    838c:	0000b130 	andeq	fp, r0, r0, lsr r1
    8390:	0000ba8c 	andeq	fp, r0, ip, lsl #21
    8394:	0000afbc 			; <UNDEFINED> instruction: 0x0000afbc

00008398 <data_abort_vector>:
    8398:	e92d4038 	push	{r3, r4, r5, lr}
    839c:	ee155f10 	mrc	15, 0, r5, cr5, cr0, {0}
    83a0:	ee164f10 	mrc	15, 0, r4, cr6, cr0, {0}
    83a4:	e59f0128 	ldr	r0, [pc, #296]	; 84d4 <data_abort_vector+0x13c>
    83a8:	e1a01004 	mov	r1, r4
    83ac:	eb0004f3 	bl	9780 <printk>
    83b0:	e1a03325 	lsr	r3, r5, #6
    83b4:	e2033010 	and	r3, r3, #16
    83b8:	e205000f 	and	r0, r5, #15
    83bc:	e1833000 	orr	r3, r3, r0
    83c0:	e353000d 	cmp	r3, #13
    83c4:	979ff103 	ldrls	pc, [pc, r3, lsl #2]
    83c8:	ea000037 	b	84ac <data_abort_vector+0x114>
    83cc:	00008424 	andeq	r8, r0, r4, lsr #8
    83d0:	00008404 	andeq	r8, r0, r4, lsl #8
    83d4:	000084ac 	andeq	r8, r0, ip, lsr #9
    83d8:	00008444 	andeq	r8, r0, r4, asr #8
    83dc:	000084ac 	andeq	r8, r0, ip, lsr #9
    83e0:	00008464 	andeq	r8, r0, r4, ror #8
    83e4:	000084ac 	andeq	r8, r0, ip, lsr #9
    83e8:	000084ac 	andeq	r8, r0, ip, lsr #9
    83ec:	000084ac 	andeq	r8, r0, ip, lsr #9
    83f0:	000084ac 	andeq	r8, r0, ip, lsr #9
    83f4:	000084ac 	andeq	r8, r0, ip, lsr #9
    83f8:	000084ac 	andeq	r8, r0, ip, lsr #9
    83fc:	000084ac 	andeq	r8, r0, ip, lsr #9
    8400:	00008488 	andeq	r8, r0, r8, lsl #9
    8404:	ebffffd2 	bl	8354 <x_mmu_disable>
    8408:	eb0004f7 	bl	97ec <rpi_reset_putc>
    840c:	e59f00c4 	ldr	r0, [pc, #196]	; 84d8 <data_abort_vector+0x140>
    8410:	e59f10c4 	ldr	r1, [pc, #196]	; 84dc <data_abort_vector+0x144>
    8414:	e59f20c4 	ldr	r2, [pc, #196]	; 84e0 <data_abort_vector+0x148>
    8418:	e3a030f0 	mov	r3, #240	; 0xf0
    841c:	eb0004d7 	bl	9780 <printk>
    8420:	eb000646 	bl	9d40 <clean_reboot>
    8424:	ebffffca 	bl	8354 <x_mmu_disable>
    8428:	eb0004ef 	bl	97ec <rpi_reset_putc>
    842c:	e59f00b0 	ldr	r0, [pc, #176]	; 84e4 <data_abort_vector+0x14c>
    8430:	e59f10a4 	ldr	r1, [pc, #164]	; 84dc <data_abort_vector+0x144>
    8434:	e59f20a4 	ldr	r2, [pc, #164]	; 84e0 <data_abort_vector+0x148>
    8438:	e3a030f4 	mov	r3, #244	; 0xf4
    843c:	eb0004cf 	bl	9780 <printk>
    8440:	eb00063e 	bl	9d40 <clean_reboot>
    8444:	ebffffc2 	bl	8354 <x_mmu_disable>
    8448:	eb0004e7 	bl	97ec <rpi_reset_putc>
    844c:	e59f0094 	ldr	r0, [pc, #148]	; 84e8 <data_abort_vector+0x150>
    8450:	e59f1084 	ldr	r1, [pc, #132]	; 84dc <data_abort_vector+0x144>
    8454:	e59f2084 	ldr	r2, [pc, #132]	; 84e0 <data_abort_vector+0x148>
    8458:	e3a030f8 	mov	r3, #248	; 0xf8
    845c:	eb0004c7 	bl	9780 <printk>
    8460:	eb000636 	bl	9d40 <clean_reboot>
    8464:	e59f0080 	ldr	r0, [pc, #128]	; 84ec <data_abort_vector+0x154>
    8468:	eb0004c4 	bl	9780 <printk>
    846c:	e1a04a24 	lsr	r4, r4, #20
    8470:	e1a02a04 	lsl	r2, r4, #20
    8474:	e59f3074 	ldr	r3, [pc, #116]	; 84f0 <data_abort_vector+0x158>
    8478:	e5930000 	ldr	r0, [r3]
    847c:	e1a01002 	mov	r1, r2
    8480:	ebffff42 	bl	8190 <mmu_map_section>
    8484:	ea000010 	b	84cc <data_abort_vector+0x134>
    8488:	e59f0064 	ldr	r0, [pc, #100]	; 84f4 <data_abort_vector+0x15c>
    848c:	eb0004bb 	bl	9780 <printk>
    8490:	e1a01a24 	lsr	r1, r4, #20
    8494:	e59f3054 	ldr	r3, [pc, #84]	; 84f0 <data_abort_vector+0x158>
    8498:	e5930000 	ldr	r0, [r3]
    849c:	e1a01a01 	lsl	r1, r1, #20
    84a0:	e3a02001 	mov	r2, #1
    84a4:	ebffff31 	bl	8170 <mmu_mark_sec_rw>
    84a8:	ea000007 	b	84cc <data_abort_vector+0x134>
    84ac:	ebffffa8 	bl	8354 <x_mmu_disable>
    84b0:	eb0004cd 	bl	97ec <rpi_reset_putc>
    84b4:	e59f003c 	ldr	r0, [pc, #60]	; 84f8 <data_abort_vector+0x160>
    84b8:	e59f101c 	ldr	r1, [pc, #28]	; 84dc <data_abort_vector+0x144>
    84bc:	e59f201c 	ldr	r2, [pc, #28]	; 84e0 <data_abort_vector+0x148>
    84c0:	e59f3034 	ldr	r3, [pc, #52]	; 84fc <data_abort_vector+0x164>
    84c4:	eb0004ad 	bl	9780 <printk>
    84c8:	eb00061c 	bl	9d40 <clean_reboot>
    84cc:	eb000321 	bl	9158 <mmu_sync_pte_mod>
    84d0:	e8bd8038 	pop	{r3, r4, r5, pc}
    84d4:	0000b154 	andeq	fp, r0, r4, asr r1
    84d8:	0000b160 	andeq	fp, r0, r0, ror #2
    84dc:	0000ba8c 	andeq	fp, r0, ip, lsl #21
    84e0:	0000afd4 	ldrdeq	sl, [r0], -r4
    84e4:	0000b184 	andeq	fp, r0, r4, lsl #3
    84e8:	0000b1a0 	andeq	fp, r0, r0, lsr #3
    84ec:	0000b1c8 	andeq	fp, r0, r8, asr #3
    84f0:	0000bf74 	andeq	fp, r0, r4, ror pc
    84f4:	0000b1dc 	ldrdeq	fp, [r0], -ip
    84f8:	0000b1f0 	strdeq	fp, [r0], -r0
    84fc:	00000106 	andeq	r0, r0, r6, lsl #2

00008500 <interrupt_vector>:
    8500:	e92d4008 	push	{r3, lr}
    8504:	ebffff92 	bl	8354 <x_mmu_disable>
    8508:	eb0004b7 	bl	97ec <rpi_reset_putc>
    850c:	e59f0010 	ldr	r0, [pc, #16]	; 8524 <interrupt_vector+0x24>
    8510:	e59f1010 	ldr	r1, [pc, #16]	; 8528 <interrupt_vector+0x28>
    8514:	e59f2010 	ldr	r2, [pc, #16]	; 852c <interrupt_vector+0x2c>
    8518:	e59f3010 	ldr	r3, [pc, #16]	; 8530 <interrupt_vector+0x30>
    851c:	eb000497 	bl	9780 <printk>
    8520:	eb000606 	bl	9d40 <clean_reboot>
    8524:	0000b218 	andeq	fp, r0, r8, lsl r2
    8528:	0000ba8c 	andeq	fp, r0, ip, lsl #21
    852c:	0000afe8 	andeq	sl, r0, r8, ror #31
    8530:	0000010d 	andeq	r0, r0, sp, lsl #2

00008534 <mmu_install_handlers>:
    8534:	e92d4008 	push	{r3, lr}
    8538:	eb000852 	bl	a688 <int_init>
    853c:	e8bd8008 	pop	{r3, pc}

00008540 <vm_test>:
    8540:	e92d41f0 	push	{r4, r5, r6, r7, r8, lr}
    8544:	e24dd008 	sub	sp, sp, #8
    8548:	e59f0308 	ldr	r0, [pc, #776]	; 8858 <vm_test+0x318>
    854c:	eb00048b 	bl	9780 <printk>
    8550:	e3a00601 	mov	r0, #1048576	; 0x100000
    8554:	ebffff68 	bl	82fc <mmu_init>
    8558:	e1a04000 	mov	r4, r0
    855c:	e3500601 	cmp	r0, #1048576	; 0x100000
    8560:	0a000006 	beq	8580 <vm_test+0x40>
    8564:	eb0004a0 	bl	97ec <rpi_reset_putc>
    8568:	e59f02ec 	ldr	r0, [pc, #748]	; 885c <vm_test+0x31c>
    856c:	e59f12ec 	ldr	r1, [pc, #748]	; 8860 <vm_test+0x320>
    8570:	e59f22ec 	ldr	r2, [pc, #748]	; 8864 <vm_test+0x324>
    8574:	e59f32ec 	ldr	r3, [pc, #748]	; 8868 <vm_test+0x328>
    8578:	eb000480 	bl	9780 <printk>
    857c:	eb0005ef 	bl	9d40 <clean_reboot>
    8580:	e3a01000 	mov	r1, #0
    8584:	e1a02001 	mov	r2, r1
    8588:	ebffff00 	bl	8190 <mmu_map_section>
    858c:	e1a00004 	mov	r0, r4
    8590:	e3a01601 	mov	r1, #1048576	; 0x100000
    8594:	e1a02001 	mov	r2, r1
    8598:	ebfffefc 	bl	8190 <mmu_map_section>
    859c:	e1a00004 	mov	r0, r4
    85a0:	e3a0167f 	mov	r1, #133169152	; 0x7f00000
    85a4:	e1a02001 	mov	r2, r1
    85a8:	ebfffef8 	bl	8190 <mmu_map_section>
    85ac:	e1a00004 	mov	r0, r4
    85b0:	e3a01202 	mov	r1, #536870912	; 0x20000000
    85b4:	e1a02001 	mov	r2, r1
    85b8:	ebfffef4 	bl	8190 <mmu_map_section>
    85bc:	e59f22a8 	ldr	r2, [pc, #680]	; 886c <vm_test+0x32c>
    85c0:	e1a00004 	mov	r0, r4
    85c4:	e1a01002 	mov	r1, r2
    85c8:	ebfffef0 	bl	8190 <mmu_map_section>
    85cc:	e59f229c 	ldr	r2, [pc, #668]	; 8870 <vm_test+0x330>
    85d0:	e1a00004 	mov	r0, r4
    85d4:	e1a01002 	mov	r1, r2
    85d8:	ebfffeec 	bl	8190 <mmu_map_section>
    85dc:	e1a00004 	mov	r0, r4
    85e0:	e3a0168f 	mov	r1, #149946368	; 0x8f00000
    85e4:	e1a02001 	mov	r2, r1
    85e8:	ebfffee8 	bl	8190 <mmu_map_section>
    85ec:	ebffffd0 	bl	8534 <mmu_install_handlers>
    85f0:	eb0002f8 	bl	91d8 <cp15_ctrl_reg1_rd>
    85f4:	e3800502 	orr	r0, r0, #8388608	; 0x800000
    85f8:	eb0002f9 	bl	91e4 <cp15_ctrl_reg1_wr>
    85fc:	eb0002f5 	bl	91d8 <cp15_ctrl_reg1_rd>
    8600:	e1a05000 	mov	r5, r0
    8604:	e3100502 	tst	r0, #8388608	; 0x800000
    8608:	1a000006 	bne	8628 <vm_test+0xe8>
    860c:	eb000476 	bl	97ec <rpi_reset_putc>
    8610:	e59f025c 	ldr	r0, [pc, #604]	; 8874 <vm_test+0x334>
    8614:	e59f1244 	ldr	r1, [pc, #580]	; 8860 <vm_test+0x320>
    8618:	e59f2244 	ldr	r2, [pc, #580]	; 8864 <vm_test+0x324>
    861c:	e59f3254 	ldr	r3, [pc, #596]	; 8878 <vm_test+0x338>
    8620:	eb000456 	bl	9780 <printk>
    8624:	eb0005c5 	bl	9d40 <clean_reboot>
    8628:	e3100001 	tst	r0, #1
    862c:	0a000006 	beq	864c <vm_test+0x10c>
    8630:	eb00046d 	bl	97ec <rpi_reset_putc>
    8634:	e59f0240 	ldr	r0, [pc, #576]	; 887c <vm_test+0x33c>
    8638:	e59f1220 	ldr	r1, [pc, #544]	; 8860 <vm_test+0x320>
    863c:	e59f2220 	ldr	r2, [pc, #544]	; 8864 <vm_test+0x324>
    8640:	e3a03f51 	mov	r3, #324	; 0x144
    8644:	eb00044d 	bl	9780 <printk>
    8648:	eb0005bc 	bl	9d40 <clean_reboot>
    864c:	e59f022c 	ldr	r0, [pc, #556]	; 8880 <vm_test+0x340>
    8650:	eb00033f 	bl	9354 <our_write_domain_access_ctrl>
    8654:	eb00083a 	bl	a744 <dsb>
    8658:	e3a00001 	mov	r0, #1
    865c:	e1a01004 	mov	r1, r4
    8660:	eb0002e8 	bl	9208 <our_set_procid_ttbr0>
    8664:	e3850001 	orr	r0, r5, #1
    8668:	eb0002ef 	bl	922c <our_mmu_enable>
    866c:	eb0002d9 	bl	91d8 <cp15_ctrl_reg1_rd>
    8670:	e1a05000 	mov	r5, r0
    8674:	e3100001 	tst	r0, #1
    8678:	1a000006 	bne	8698 <vm_test+0x158>
    867c:	eb00045a 	bl	97ec <rpi_reset_putc>
    8680:	e59f01fc 	ldr	r0, [pc, #508]	; 8884 <vm_test+0x344>
    8684:	e59f11d4 	ldr	r1, [pc, #468]	; 8860 <vm_test+0x320>
    8688:	e59f21d4 	ldr	r2, [pc, #468]	; 8864 <vm_test+0x324>
    868c:	e59f31f4 	ldr	r3, [pc, #500]	; 8888 <vm_test+0x348>
    8690:	eb00043a 	bl	9780 <printk>
    8694:	eb0005a9 	bl	9d40 <clean_reboot>
    8698:	e28d0008 	add	r0, sp, #8
    869c:	e3a03005 	mov	r3, #5
    86a0:	e5203004 	str	r3, [r0, #-4]!
    86a4:	eb000834 	bl	a77c <get32>
    86a8:	e3500005 	cmp	r0, #5
    86ac:	0a000006 	beq	86cc <vm_test+0x18c>
    86b0:	eb00044d 	bl	97ec <rpi_reset_putc>
    86b4:	e59f01d0 	ldr	r0, [pc, #464]	; 888c <vm_test+0x34c>
    86b8:	e59f11a0 	ldr	r1, [pc, #416]	; 8860 <vm_test+0x320>
    86bc:	e59f21a0 	ldr	r2, [pc, #416]	; 8864 <vm_test+0x324>
    86c0:	e59f31c8 	ldr	r3, [pc, #456]	; 8890 <vm_test+0x350>
    86c4:	eb00042d 	bl	9780 <printk>
    86c8:	eb00059c 	bl	9d40 <clean_reboot>
    86cc:	e28d0004 	add	r0, sp, #4
    86d0:	eb000829 	bl	a77c <get32>
    86d4:	e1a08000 	mov	r8, r0
    86d8:	e59f01b4 	ldr	r0, [pc, #436]	; 8894 <vm_test+0x354>
    86dc:	eb000427 	bl	9780 <printk>
    86e0:	e59d3004 	ldr	r3, [sp, #4]
    86e4:	e2833001 	add	r3, r3, #1
    86e8:	e58d3004 	str	r3, [sp, #4]
    86ec:	e28d0004 	add	r0, sp, #4
    86f0:	eb000821 	bl	a77c <get32>
    86f4:	e1a07000 	mov	r7, r0
    86f8:	e59f0198 	ldr	r0, [pc, #408]	; 8898 <vm_test+0x358>
    86fc:	e59f1198 	ldr	r1, [pc, #408]	; 889c <vm_test+0x35c>
    8700:	eb00041e 	bl	9780 <printk>
    8704:	e59f3194 	ldr	r3, [pc, #404]	; 88a0 <vm_test+0x360>
    8708:	e3a0200b 	mov	r2, #11
    870c:	e543200f 	strb	r2, [r3, #-15]
    8710:	e553300f 	ldrb	r3, [r3, #-15]
    8714:	e6ef3073 	uxtb	r3, r3
    8718:	e1530002 	cmp	r3, r2
    871c:	0a000006 	beq	873c <vm_test+0x1fc>
    8720:	eb000431 	bl	97ec <rpi_reset_putc>
    8724:	e59f0178 	ldr	r0, [pc, #376]	; 88a4 <vm_test+0x364>
    8728:	e59f1130 	ldr	r1, [pc, #304]	; 8860 <vm_test+0x320>
    872c:	e59f2130 	ldr	r2, [pc, #304]	; 8864 <vm_test+0x324>
    8730:	e3a03e17 	mov	r3, #368	; 0x170
    8734:	eb000411 	bl	9780 <printk>
    8738:	eb000580 	bl	9d40 <clean_reboot>
    873c:	e59f6158 	ldr	r6, [pc, #344]	; 889c <vm_test+0x35c>
    8740:	e1a00006 	mov	r0, r6
    8744:	eb00080c 	bl	a77c <get32>
    8748:	e1a02000 	mov	r2, r0
    874c:	e59f0154 	ldr	r0, [pc, #340]	; 88a8 <vm_test+0x368>
    8750:	e1a01006 	mov	r1, r6
    8754:	eb000409 	bl	9780 <printk>
    8758:	e59f014c 	ldr	r0, [pc, #332]	; 88ac <vm_test+0x36c>
    875c:	e1a01006 	mov	r1, r6
    8760:	eb000406 	bl	9780 <printk>
    8764:	e1a00004 	mov	r0, r4
    8768:	e1a01006 	mov	r1, r6
    876c:	e3a02001 	mov	r2, #1
    8770:	ebfffe82 	bl	8180 <mmu_mark_sec_no_access>
    8774:	e59f3124 	ldr	r3, [pc, #292]	; 88a0 <vm_test+0x360>
    8778:	e3a0200c 	mov	r2, #12
    877c:	e543200f 	strb	r2, [r3, #-15]
    8780:	e553300f 	ldrb	r3, [r3, #-15]
    8784:	e6ef3073 	uxtb	r3, r3
    8788:	e1530002 	cmp	r3, r2
    878c:	0a000006 	beq	87ac <vm_test+0x26c>
    8790:	eb000415 	bl	97ec <rpi_reset_putc>
    8794:	e59f0114 	ldr	r0, [pc, #276]	; 88b0 <vm_test+0x370>
    8798:	e59f10c0 	ldr	r1, [pc, #192]	; 8860 <vm_test+0x320>
    879c:	e59f20c0 	ldr	r2, [pc, #192]	; 8864 <vm_test+0x324>
    87a0:	e59f310c 	ldr	r3, [pc, #268]	; 88b4 <vm_test+0x374>
    87a4:	eb0003f5 	bl	9780 <printk>
    87a8:	eb000564 	bl	9d40 <clean_reboot>
    87ac:	e59f30ec 	ldr	r3, [pc, #236]	; 88a0 <vm_test+0x360>
    87b0:	e553200f 	ldrb	r2, [r3, #-15]
    87b4:	e59f00fc 	ldr	r0, [pc, #252]	; 88b8 <vm_test+0x378>
    87b8:	e59f10dc 	ldr	r1, [pc, #220]	; 889c <vm_test+0x35c>
    87bc:	eb0003ef 	bl	9780 <printk>
    87c0:	e59f00f4 	ldr	r0, [pc, #244]	; 88bc <vm_test+0x37c>
    87c4:	eb0003ed 	bl	9780 <printk>
    87c8:	e3c50001 	bic	r0, r5, #1
    87cc:	eb0002b2 	bl	929c <our_mmu_disable>
    87d0:	eb000280 	bl	91d8 <cp15_ctrl_reg1_rd>
    87d4:	e3100001 	tst	r0, #1
    87d8:	0a000006 	beq	87f8 <vm_test+0x2b8>
    87dc:	eb000402 	bl	97ec <rpi_reset_putc>
    87e0:	e59f0094 	ldr	r0, [pc, #148]	; 887c <vm_test+0x33c>
    87e4:	e59f1074 	ldr	r1, [pc, #116]	; 8860 <vm_test+0x320>
    87e8:	e59f2074 	ldr	r2, [pc, #116]	; 8864 <vm_test+0x324>
    87ec:	e59f30cc 	ldr	r3, [pc, #204]	; 88c0 <vm_test+0x380>
    87f0:	eb0003e2 	bl	9780 <printk>
    87f4:	eb000551 	bl	9d40 <clean_reboot>
    87f8:	e59f00c4 	ldr	r0, [pc, #196]	; 88c4 <vm_test+0x384>
    87fc:	eb0003df 	bl	9780 <printk>
    8800:	e3580005 	cmp	r8, #5
    8804:	0a000006 	beq	8824 <vm_test+0x2e4>
    8808:	eb0003f7 	bl	97ec <rpi_reset_putc>
    880c:	e59f00b4 	ldr	r0, [pc, #180]	; 88c8 <vm_test+0x388>
    8810:	e59f1048 	ldr	r1, [pc, #72]	; 8860 <vm_test+0x320>
    8814:	e59f2048 	ldr	r2, [pc, #72]	; 8864 <vm_test+0x324>
    8818:	e59f30ac 	ldr	r3, [pc, #172]	; 88cc <vm_test+0x38c>
    881c:	eb0003d7 	bl	9780 <printk>
    8820:	eb000546 	bl	9d40 <clean_reboot>
    8824:	e3570006 	cmp	r7, #6
    8828:	0a000006 	beq	8848 <vm_test+0x308>
    882c:	eb0003ee 	bl	97ec <rpi_reset_putc>
    8830:	e59f0098 	ldr	r0, [pc, #152]	; 88d0 <vm_test+0x390>
    8834:	e59f1024 	ldr	r1, [pc, #36]	; 8860 <vm_test+0x320>
    8838:	e59f2024 	ldr	r2, [pc, #36]	; 8864 <vm_test+0x324>
    883c:	e3a03f62 	mov	r3, #392	; 0x188
    8840:	eb0003ce 	bl	9780 <printk>
    8844:	eb00053d 	bl	9d40 <clean_reboot>
    8848:	e59f0084 	ldr	r0, [pc, #132]	; 88d4 <vm_test+0x394>
    884c:	eb0003cb 	bl	9780 <printk>
    8850:	e28dd008 	add	sp, sp, #8
    8854:	e8bd81f0 	pop	{r4, r5, r6, r7, r8, pc}
    8858:	0000b234 	andeq	fp, r0, r4, lsr r2
    885c:	0000b254 	andeq	fp, r0, r4, asr r2
    8860:	0000ba8c 	andeq	fp, r0, ip, lsl #21
    8864:	0000affc 	strdeq	sl, [r0], -ip
    8868:	00000125 	andeq	r0, r0, r5, lsr #2
    886c:	20100000 	andscs	r0, r0, r0
    8870:	20200000 	eorcs	r0, r0, r0
    8874:	0000b27c 	andeq	fp, r0, ip, ror r2
    8878:	00000143 	andeq	r0, r0, r3, asr #2
    887c:	0000b298 	muleq	r0, r8, r2
    8880:	55555555 	ldrbpl	r5, [r5, #-1365]	; 0x555
    8884:	0000b2b8 			; <UNDEFINED> instruction: 0x0000b2b8
    8888:	00000159 	andeq	r0, r0, r9, asr r1
    888c:	0000b2d8 	ldrdeq	fp, [r0], -r8
    8890:	0000015e 	andeq	r0, r0, lr, asr r1
    8894:	0000b2f8 	strdeq	fp, [r0], -r8
    8898:	0000b310 	andeq	fp, r0, r0, lsl r3
    889c:	07effff0 			; <UNDEFINED> instruction: 0x07effff0
    88a0:	07efffff 			; <UNDEFINED> instruction: 0x07efffff
    88a4:	0000b334 	andeq	fp, r0, r4, lsr r3
    88a8:	0000b350 	andeq	fp, r0, r0, asr r3
    88ac:	0000b378 	andeq	fp, r0, r8, ror r3
    88b0:	0000b394 	muleq	r0, r4, r3
    88b4:	00000177 	andeq	r0, r0, r7, ror r1
    88b8:	0000b3b0 			; <UNDEFINED> instruction: 0x0000b3b0
    88bc:	0000b3dc 	ldrdeq	fp, [r0], -ip
    88c0:	00000183 	andeq	r0, r0, r3, lsl #3
    88c4:	0000b3f0 	strdeq	fp, [r0], -r0
    88c8:	0000b3f8 	strdeq	fp, [r0], -r8
    88cc:	00000187 	andeq	r0, r0, r7, lsl #3
    88d0:	0000b410 	andeq	fp, r0, r0, lsl r4
    88d4:	0000b428 	andeq	fp, r0, r8, lsr #8

000088d8 <notmain>:
    88d8:	e92d4008 	push	{r3, lr}
    88dc:	eb000714 	bl	a534 <uart_init>
    88e0:	e59f0024 	ldr	r0, [pc, #36]	; 890c <notmain+0x34>
    88e4:	eb0003a5 	bl	9780 <printk>
    88e8:	e59f0020 	ldr	r0, [pc, #32]	; 8910 <notmain+0x38>
    88ec:	eb0003a3 	bl	9780 <printk>
    88f0:	eb000213 	bl	9144 <check_vm_structs>
    88f4:	e59f0018 	ldr	r0, [pc, #24]	; 8914 <notmain+0x3c>
    88f8:	eb0003a0 	bl	9780 <printk>
    88fc:	e59f0014 	ldr	r0, [pc, #20]	; 8918 <notmain+0x40>
    8900:	eb00039e 	bl	9780 <printk>
    8904:	ebffff0d 	bl	8540 <vm_test>
    8908:	eb00050c 	bl	9d40 <clean_reboot>
    890c:	0000b448 	andeq	fp, r0, r8, asr #8
    8910:	0000b464 	andeq	fp, r0, r4, ror #8
    8914:	0000b474 	andeq	fp, r0, r4, ror r4
    8918:	0000b480 	andeq	fp, r0, r0, lsl #9

0000891c <get_cache_type>:
    891c:	e12fff1e 	bx	lr

00008920 <control_reg1_sanity_check>:
    8920:	e92d4008 	push	{r3, lr}
    8924:	e5d03000 	ldrb	r3, [r0]
    8928:	e1a03223 	lsr	r3, r3, #4
    892c:	e2033007 	and	r3, r3, #7
    8930:	e3530007 	cmp	r3, #7
    8934:	0a000006 	beq	8954 <control_reg1_sanity_check+0x34>
    8938:	eb0003ab 	bl	97ec <rpi_reset_putc>
    893c:	e59f0150 	ldr	r0, [pc, #336]	; 8a94 <control_reg1_sanity_check+0x174>
    8940:	e59f1150 	ldr	r1, [pc, #336]	; 8a98 <control_reg1_sanity_check+0x178>
    8944:	e59f2150 	ldr	r2, [pc, #336]	; 8a9c <control_reg1_sanity_check+0x17c>
    8948:	e3a03031 	mov	r3, #49	; 0x31
    894c:	eb00038b 	bl	9780 <printk>
    8950:	eb0004fa 	bl	9d40 <clean_reboot>
    8954:	e5d03002 	ldrb	r3, [r0, #2]
    8958:	e3130001 	tst	r3, #1
    895c:	1a000006 	bne	897c <control_reg1_sanity_check+0x5c>
    8960:	eb0003a1 	bl	97ec <rpi_reset_putc>
    8964:	e59f0134 	ldr	r0, [pc, #308]	; 8aa0 <control_reg1_sanity_check+0x180>
    8968:	e59f1128 	ldr	r1, [pc, #296]	; 8a98 <control_reg1_sanity_check+0x178>
    896c:	e59f2128 	ldr	r2, [pc, #296]	; 8a9c <control_reg1_sanity_check+0x17c>
    8970:	e3a03032 	mov	r3, #50	; 0x32
    8974:	eb000381 	bl	9780 <printk>
    8978:	eb0004f0 	bl	9d40 <clean_reboot>
    897c:	e5d03002 	ldrb	r3, [r0, #2]
    8980:	e3130004 	tst	r3, #4
    8984:	1a000006 	bne	89a4 <control_reg1_sanity_check+0x84>
    8988:	eb000397 	bl	97ec <rpi_reset_putc>
    898c:	e59f0110 	ldr	r0, [pc, #272]	; 8aa4 <control_reg1_sanity_check+0x184>
    8990:	e59f1100 	ldr	r1, [pc, #256]	; 8a98 <control_reg1_sanity_check+0x178>
    8994:	e59f2100 	ldr	r2, [pc, #256]	; 8a9c <control_reg1_sanity_check+0x17c>
    8998:	e3a03033 	mov	r3, #51	; 0x33
    899c:	eb000377 	bl	9780 <printk>
    89a0:	eb0004e6 	bl	9d40 <clean_reboot>
    89a4:	e5d03002 	ldrb	r3, [r0, #2]
    89a8:	e3130002 	tst	r3, #2
    89ac:	0a000006 	beq	89cc <control_reg1_sanity_check+0xac>
    89b0:	eb00038d 	bl	97ec <rpi_reset_putc>
    89b4:	e59f00ec 	ldr	r0, [pc, #236]	; 8aa8 <control_reg1_sanity_check+0x188>
    89b8:	e59f10d8 	ldr	r1, [pc, #216]	; 8a98 <control_reg1_sanity_check+0x178>
    89bc:	e59f20d8 	ldr	r2, [pc, #216]	; 8a9c <control_reg1_sanity_check+0x17c>
    89c0:	e3a03036 	mov	r3, #54	; 0x36
    89c4:	eb00036d 	bl	9780 <printk>
    89c8:	eb0004dc 	bl	9d40 <clean_reboot>
    89cc:	e5d03002 	ldrb	r3, [r0, #2]
    89d0:	e3130008 	tst	r3, #8
    89d4:	0a000006 	beq	89f4 <control_reg1_sanity_check+0xd4>
    89d8:	eb000383 	bl	97ec <rpi_reset_putc>
    89dc:	e59f00c8 	ldr	r0, [pc, #200]	; 8aac <control_reg1_sanity_check+0x18c>
    89e0:	e59f10b0 	ldr	r1, [pc, #176]	; 8a98 <control_reg1_sanity_check+0x178>
    89e4:	e59f20b0 	ldr	r2, [pc, #176]	; 8a9c <control_reg1_sanity_check+0x17c>
    89e8:	e3a03037 	mov	r3, #55	; 0x37
    89ec:	eb000363 	bl	9780 <printk>
    89f0:	eb0004d2 	bl	9d40 <clean_reboot>
    89f4:	e5d03002 	ldrb	r3, [r0, #2]
    89f8:	e3130010 	tst	r3, #16
    89fc:	0a000006 	beq	8a1c <control_reg1_sanity_check+0xfc>
    8a00:	eb000379 	bl	97ec <rpi_reset_putc>
    8a04:	e59f00a4 	ldr	r0, [pc, #164]	; 8ab0 <control_reg1_sanity_check+0x190>
    8a08:	e59f1088 	ldr	r1, [pc, #136]	; 8a98 <control_reg1_sanity_check+0x178>
    8a0c:	e59f2088 	ldr	r2, [pc, #136]	; 8a9c <control_reg1_sanity_check+0x17c>
    8a10:	e3a03038 	mov	r3, #56	; 0x38
    8a14:	eb000359 	bl	9780 <printk>
    8a18:	eb0004c8 	bl	9d40 <clean_reboot>
    8a1c:	e5d03003 	ldrb	r3, [r0, #3]
    8a20:	e3130004 	tst	r3, #4
    8a24:	0a000006 	beq	8a44 <control_reg1_sanity_check+0x124>
    8a28:	eb00036f 	bl	97ec <rpi_reset_putc>
    8a2c:	e59f0080 	ldr	r0, [pc, #128]	; 8ab4 <control_reg1_sanity_check+0x194>
    8a30:	e59f1060 	ldr	r1, [pc, #96]	; 8a98 <control_reg1_sanity_check+0x178>
    8a34:	e59f2060 	ldr	r2, [pc, #96]	; 8a9c <control_reg1_sanity_check+0x17c>
    8a38:	e3a03041 	mov	r3, #65	; 0x41
    8a3c:	eb00034f 	bl	9780 <printk>
    8a40:	eb0004be 	bl	9d40 <clean_reboot>
    8a44:	e5d03001 	ldrb	r3, [r0, #1]
    8a48:	e3130010 	tst	r3, #16
    8a4c:	0a000006 	beq	8a6c <control_reg1_sanity_check+0x14c>
    8a50:	eb000365 	bl	97ec <rpi_reset_putc>
    8a54:	e59f005c 	ldr	r0, [pc, #92]	; 8ab8 <control_reg1_sanity_check+0x198>
    8a58:	e59f1038 	ldr	r1, [pc, #56]	; 8a98 <control_reg1_sanity_check+0x178>
    8a5c:	e59f2038 	ldr	r2, [pc, #56]	; 8a9c <control_reg1_sanity_check+0x17c>
    8a60:	e3a03042 	mov	r3, #66	; 0x42
    8a64:	eb000345 	bl	9780 <printk>
    8a68:	eb0004b4 	bl	9d40 <clean_reboot>
    8a6c:	e5d03000 	ldrb	r3, [r0]
    8a70:	e3130004 	tst	r3, #4
    8a74:	08bd8008 	popeq	{r3, pc}
    8a78:	eb00035b 	bl	97ec <rpi_reset_putc>
    8a7c:	e59f0038 	ldr	r0, [pc, #56]	; 8abc <control_reg1_sanity_check+0x19c>
    8a80:	e59f1010 	ldr	r1, [pc, #16]	; 8a98 <control_reg1_sanity_check+0x178>
    8a84:	e59f2010 	ldr	r2, [pc, #16]	; 8a9c <control_reg1_sanity_check+0x17c>
    8a88:	e3a03043 	mov	r3, #67	; 0x43
    8a8c:	eb00033b 	bl	9780 <printk>
    8a90:	eb0004aa 	bl	9d40 <clean_reboot>
    8a94:	0000b508 	andeq	fp, r0, r8, lsl #10
    8a98:	0000b530 	andeq	fp, r0, r0, lsr r5
    8a9c:	0000b490 	muleq	r0, r0, r4
    8aa0:	0000b540 	andeq	fp, r0, r0, asr #10
    8aa4:	0000b55c 	andeq	fp, r0, ip, asr r5
    8aa8:	0000b578 	andeq	fp, r0, r8, ror r5
    8aac:	0000b598 	muleq	r0, r8, r5
    8ab0:	0000b5b8 			; <UNDEFINED> instruction: 0x0000b5b8
    8ab4:	0000b5d4 	ldrdeq	fp, [r0], -r4
    8ab8:	0000b5f4 	strdeq	fp, [r0], -r4
    8abc:	0000b618 	andeq	fp, r0, r8, lsl r6

00008ac0 <fld_check_valid>:
    8ac0:	e92d4008 	push	{r3, lr}
    8ac4:	e5d03002 	ldrb	r3, [r0, #2]
    8ac8:	e3130008 	tst	r3, #8
    8acc:	0a000006 	beq	8aec <fld_check_valid+0x2c>
    8ad0:	eb000345 	bl	97ec <rpi_reset_putc>
    8ad4:	e59f012c 	ldr	r0, [pc, #300]	; 8c08 <fld_check_valid+0x148>
    8ad8:	e59f112c 	ldr	r1, [pc, #300]	; 8c0c <fld_check_valid+0x14c>
    8adc:	e59f212c 	ldr	r2, [pc, #300]	; 8c10 <fld_check_valid+0x150>
    8ae0:	e3a03073 	mov	r3, #115	; 0x73
    8ae4:	eb000325 	bl	9780 <printk>
    8ae8:	eb000494 	bl	9d40 <clean_reboot>
    8aec:	e5d03000 	ldrb	r3, [r0]
    8af0:	e2033003 	and	r3, r3, #3
    8af4:	e3530002 	cmp	r3, #2
    8af8:	0a000006 	beq	8b18 <fld_check_valid+0x58>
    8afc:	eb00033a 	bl	97ec <rpi_reset_putc>
    8b00:	e59f010c 	ldr	r0, [pc, #268]	; 8c14 <fld_check_valid+0x154>
    8b04:	e59f1100 	ldr	r1, [pc, #256]	; 8c0c <fld_check_valid+0x14c>
    8b08:	e59f2100 	ldr	r2, [pc, #256]	; 8c10 <fld_check_valid+0x150>
    8b0c:	e3a03074 	mov	r3, #116	; 0x74
    8b10:	eb00031a 	bl	9780 <printk>
    8b14:	eb000489 	bl	9d40 <clean_reboot>
    8b18:	e5d03002 	ldrb	r3, [r0, #2]
    8b1c:	e3130001 	tst	r3, #1
    8b20:	0a000006 	beq	8b40 <fld_check_valid+0x80>
    8b24:	eb000330 	bl	97ec <rpi_reset_putc>
    8b28:	e59f00e8 	ldr	r0, [pc, #232]	; 8c18 <fld_check_valid+0x158>
    8b2c:	e59f10d8 	ldr	r1, [pc, #216]	; 8c0c <fld_check_valid+0x14c>
    8b30:	e59f20d8 	ldr	r2, [pc, #216]	; 8c10 <fld_check_valid+0x150>
    8b34:	e3a03075 	mov	r3, #117	; 0x75
    8b38:	eb000310 	bl	9780 <printk>
    8b3c:	eb00047f 	bl	9d40 <clean_reboot>
    8b40:	e5d03001 	ldrb	r3, [r0, #1]
    8b44:	e3130002 	tst	r3, #2
    8b48:	0a000006 	beq	8b68 <fld_check_valid+0xa8>
    8b4c:	eb000326 	bl	97ec <rpi_reset_putc>
    8b50:	e59f00c4 	ldr	r0, [pc, #196]	; 8c1c <fld_check_valid+0x15c>
    8b54:	e59f10b0 	ldr	r1, [pc, #176]	; 8c0c <fld_check_valid+0x14c>
    8b58:	e59f20b0 	ldr	r2, [pc, #176]	; 8c10 <fld_check_valid+0x150>
    8b5c:	e3a03076 	mov	r3, #118	; 0x76
    8b60:	eb000306 	bl	9780 <printk>
    8b64:	eb000475 	bl	9d40 <clean_reboot>
    8b68:	e5d03001 	ldrb	r3, [r0, #1]
    8b6c:	e3130070 	tst	r3, #112	; 0x70
    8b70:	0a000006 	beq	8b90 <fld_check_valid+0xd0>
    8b74:	eb00031c 	bl	97ec <rpi_reset_putc>
    8b78:	e59f00a0 	ldr	r0, [pc, #160]	; 8c20 <fld_check_valid+0x160>
    8b7c:	e59f1088 	ldr	r1, [pc, #136]	; 8c0c <fld_check_valid+0x14c>
    8b80:	e59f2088 	ldr	r2, [pc, #136]	; 8c10 <fld_check_valid+0x150>
    8b84:	e3a03077 	mov	r3, #119	; 0x77
    8b88:	eb0002fc 	bl	9780 <printk>
    8b8c:	eb00046b 	bl	9d40 <clean_reboot>
    8b90:	e5d03000 	ldrb	r3, [r0]
    8b94:	e3130008 	tst	r3, #8
    8b98:	0a000006 	beq	8bb8 <fld_check_valid+0xf8>
    8b9c:	eb000312 	bl	97ec <rpi_reset_putc>
    8ba0:	e59f007c 	ldr	r0, [pc, #124]	; 8c24 <fld_check_valid+0x164>
    8ba4:	e59f1060 	ldr	r1, [pc, #96]	; 8c0c <fld_check_valid+0x14c>
    8ba8:	e59f2060 	ldr	r2, [pc, #96]	; 8c10 <fld_check_valid+0x150>
    8bac:	e3a03078 	mov	r3, #120	; 0x78
    8bb0:	eb0002f2 	bl	9780 <printk>
    8bb4:	eb000461 	bl	9d40 <clean_reboot>
    8bb8:	e5d03000 	ldrb	r3, [r0]
    8bbc:	e3130004 	tst	r3, #4
    8bc0:	0a000006 	beq	8be0 <fld_check_valid+0x120>
    8bc4:	eb000308 	bl	97ec <rpi_reset_putc>
    8bc8:	e59f0058 	ldr	r0, [pc, #88]	; 8c28 <fld_check_valid+0x168>
    8bcc:	e59f1038 	ldr	r1, [pc, #56]	; 8c0c <fld_check_valid+0x14c>
    8bd0:	e59f2038 	ldr	r2, [pc, #56]	; 8c10 <fld_check_valid+0x150>
    8bd4:	e3a03079 	mov	r3, #121	; 0x79
    8bd8:	eb0002e8 	bl	9780 <printk>
    8bdc:	eb000457 	bl	9d40 <clean_reboot>
    8be0:	e5d03002 	ldrb	r3, [r0, #2]
    8be4:	e3130004 	tst	r3, #4
    8be8:	08bd8008 	popeq	{r3, pc}
    8bec:	eb0002fe 	bl	97ec <rpi_reset_putc>
    8bf0:	e59f0034 	ldr	r0, [pc, #52]	; 8c2c <fld_check_valid+0x16c>
    8bf4:	e59f1010 	ldr	r1, [pc, #16]	; 8c0c <fld_check_valid+0x14c>
    8bf8:	e59f2010 	ldr	r2, [pc, #16]	; 8c10 <fld_check_valid+0x150>
    8bfc:	e3a0307a 	mov	r3, #122	; 0x7a
    8c00:	eb0002de 	bl	9780 <printk>
    8c04:	eb00044d 	bl	9d40 <clean_reboot>
    8c08:	0000b640 	andeq	fp, r0, r0, asr #12
    8c0c:	0000b530 	andeq	fp, r0, r0, lsr r5
    8c10:	0000b4ac 	andeq	fp, r0, ip, lsr #9
    8c14:	0000b660 	andeq	fp, r0, r0, ror #12
    8c18:	0000b680 	andeq	fp, r0, r0, lsl #13
    8c1c:	0000b69c 	muleq	r0, ip, r6
    8c20:	0000b6b8 			; <UNDEFINED> instruction: 0x0000b6b8
    8c24:	0000b6d4 	ldrdeq	fp, [r0], -r4
    8c28:	0000b6f0 	strdeq	fp, [r0], -r0
    8c2c:	0000b70c 	andeq	fp, r0, ip, lsl #14

00008c30 <control_reg1_check_offsets>:
    8c30:	e52de004 	push	{lr}		; (str lr, [sp, #-4]!)
    8c34:	e49df004 	pop	{pc}		; (ldr pc, [sp], #4)

00008c38 <tlb_config_check_offsets>:
    8c38:	e52de004 	push	{lr}		; (str lr, [sp, #-4]!)
    8c3c:	e49df004 	pop	{pc}		; (ldr pc, [sp], #4)

00008c40 <hash_print>:
    8c40:	e92d4038 	push	{r3, r4, r5, lr}
    8c44:	e1a05000 	mov	r5, r0
    8c48:	e1a04002 	mov	r4, r2
    8c4c:	e1a00001 	mov	r0, r1
    8c50:	e1a01002 	mov	r1, r2
    8c54:	eb000285 	bl	9670 <fast_hash>
    8c58:	e1a02000 	mov	r2, r0
    8c5c:	e59f000c 	ldr	r0, [pc, #12]	; 8c70 <hash_print+0x30>
    8c60:	e1a01005 	mov	r1, r5
    8c64:	e1a03004 	mov	r3, r4
    8c68:	eb0002c4 	bl	9780 <printk>
    8c6c:	e8bd8038 	pop	{r3, r4, r5, pc}
    8c70:	0000b8e8 	andeq	fp, r0, r8, ror #17

00008c74 <control_reg1_print>:
    8c74:	e92d4010 	push	{r4, lr}
    8c78:	e1a04000 	mov	r4, r0
    8c7c:	ebffff27 	bl	8920 <control_reg1_sanity_check>
    8c80:	e59f01a0 	ldr	r0, [pc, #416]	; 8e28 <control_reg1_print+0x1b4>
    8c84:	eb0002bd 	bl	9780 <printk>
    8c88:	e5d41003 	ldrb	r1, [r4, #3]
    8c8c:	e1a012a1 	lsr	r1, r1, #5
    8c90:	e59f0194 	ldr	r0, [pc, #404]	; 8e2c <control_reg1_print+0x1b8>
    8c94:	e2011001 	and	r1, r1, #1
    8c98:	e59f2190 	ldr	r2, [pc, #400]	; 8e30 <control_reg1_print+0x1bc>
    8c9c:	eb0002b7 	bl	9780 <printk>
    8ca0:	e5d41003 	ldrb	r1, [r4, #3]
    8ca4:	e1a01221 	lsr	r1, r1, #4
    8ca8:	e59f017c 	ldr	r0, [pc, #380]	; 8e2c <control_reg1_print+0x1b8>
    8cac:	e2011001 	and	r1, r1, #1
    8cb0:	e59f217c 	ldr	r2, [pc, #380]	; 8e34 <control_reg1_print+0x1c0>
    8cb4:	eb0002b1 	bl	9780 <printk>
    8cb8:	e5d41003 	ldrb	r1, [r4, #3]
    8cbc:	e1a01121 	lsr	r1, r1, #2
    8cc0:	e59f0164 	ldr	r0, [pc, #356]	; 8e2c <control_reg1_print+0x1b8>
    8cc4:	e2011001 	and	r1, r1, #1
    8cc8:	e59f2168 	ldr	r2, [pc, #360]	; 8e38 <control_reg1_print+0x1c4>
    8ccc:	eb0002ab 	bl	9780 <printk>
    8cd0:	e5d41003 	ldrb	r1, [r4, #3]
    8cd4:	e1a010a1 	lsr	r1, r1, #1
    8cd8:	e59f014c 	ldr	r0, [pc, #332]	; 8e2c <control_reg1_print+0x1b8>
    8cdc:	e2011001 	and	r1, r1, #1
    8ce0:	e59f2154 	ldr	r2, [pc, #340]	; 8e3c <control_reg1_print+0x1c8>
    8ce4:	eb0002a5 	bl	9780 <printk>
    8ce8:	e5d41003 	ldrb	r1, [r4, #3]
    8cec:	e59f0138 	ldr	r0, [pc, #312]	; 8e2c <control_reg1_print+0x1b8>
    8cf0:	e2011001 	and	r1, r1, #1
    8cf4:	e59f2144 	ldr	r2, [pc, #324]	; 8e40 <control_reg1_print+0x1cc>
    8cf8:	eb0002a0 	bl	9780 <printk>
    8cfc:	e5d41002 	ldrb	r1, [r4, #2]
    8d00:	e59f0124 	ldr	r0, [pc, #292]	; 8e2c <control_reg1_print+0x1b8>
    8d04:	e1a013a1 	lsr	r1, r1, #7
    8d08:	e59f2134 	ldr	r2, [pc, #308]	; 8e44 <control_reg1_print+0x1d0>
    8d0c:	eb00029b 	bl	9780 <printk>
    8d10:	e5d41002 	ldrb	r1, [r4, #2]
    8d14:	e1a01321 	lsr	r1, r1, #6
    8d18:	e59f010c 	ldr	r0, [pc, #268]	; 8e2c <control_reg1_print+0x1b8>
    8d1c:	e2011001 	and	r1, r1, #1
    8d20:	e59f2120 	ldr	r2, [pc, #288]	; 8e48 <control_reg1_print+0x1d4>
    8d24:	eb000295 	bl	9780 <printk>
    8d28:	e5d41002 	ldrb	r1, [r4, #2]
    8d2c:	e1a012a1 	lsr	r1, r1, #5
    8d30:	e59f00f4 	ldr	r0, [pc, #244]	; 8e2c <control_reg1_print+0x1b8>
    8d34:	e2011001 	and	r1, r1, #1
    8d38:	e59f210c 	ldr	r2, [pc, #268]	; 8e4c <control_reg1_print+0x1d8>
    8d3c:	eb00028f 	bl	9780 <printk>
    8d40:	e5d41001 	ldrb	r1, [r4, #1]
    8d44:	e1a01321 	lsr	r1, r1, #6
    8d48:	e59f00dc 	ldr	r0, [pc, #220]	; 8e2c <control_reg1_print+0x1b8>
    8d4c:	e2011001 	and	r1, r1, #1
    8d50:	e59f20f8 	ldr	r2, [pc, #248]	; 8e50 <control_reg1_print+0x1dc>
    8d54:	eb000289 	bl	9780 <printk>
    8d58:	e5d41001 	ldrb	r1, [r4, #1]
    8d5c:	e1a01221 	lsr	r1, r1, #4
    8d60:	e59f00c4 	ldr	r0, [pc, #196]	; 8e2c <control_reg1_print+0x1b8>
    8d64:	e2011001 	and	r1, r1, #1
    8d68:	e59f20e4 	ldr	r2, [pc, #228]	; 8e54 <control_reg1_print+0x1e0>
    8d6c:	eb000283 	bl	9780 <printk>
    8d70:	e5d41001 	ldrb	r1, [r4, #1]
    8d74:	e1a011a1 	lsr	r1, r1, #3
    8d78:	e59f00ac 	ldr	r0, [pc, #172]	; 8e2c <control_reg1_print+0x1b8>
    8d7c:	e2011001 	and	r1, r1, #1
    8d80:	e59f20d0 	ldr	r2, [pc, #208]	; 8e58 <control_reg1_print+0x1e4>
    8d84:	eb00027d 	bl	9780 <printk>
    8d88:	e5d41001 	ldrb	r1, [r4, #1]
    8d8c:	e1a010a1 	lsr	r1, r1, #1
    8d90:	e59f0094 	ldr	r0, [pc, #148]	; 8e2c <control_reg1_print+0x1b8>
    8d94:	e2011001 	and	r1, r1, #1
    8d98:	e59f20bc 	ldr	r2, [pc, #188]	; 8e5c <control_reg1_print+0x1e8>
    8d9c:	eb000277 	bl	9780 <printk>
    8da0:	e5d41001 	ldrb	r1, [r4, #1]
    8da4:	e59f0080 	ldr	r0, [pc, #128]	; 8e2c <control_reg1_print+0x1b8>
    8da8:	e2011001 	and	r1, r1, #1
    8dac:	e59f20ac 	ldr	r2, [pc, #172]	; 8e60 <control_reg1_print+0x1ec>
    8db0:	eb000272 	bl	9780 <printk>
    8db4:	e5d41000 	ldrb	r1, [r4]
    8db8:	e59f006c 	ldr	r0, [pc, #108]	; 8e2c <control_reg1_print+0x1b8>
    8dbc:	e1a013a1 	lsr	r1, r1, #7
    8dc0:	e59f209c 	ldr	r2, [pc, #156]	; 8e64 <control_reg1_print+0x1f0>
    8dc4:	eb00026d 	bl	9780 <printk>
    8dc8:	e5d41000 	ldrb	r1, [r4]
    8dcc:	e1a011a1 	lsr	r1, r1, #3
    8dd0:	e59f0054 	ldr	r0, [pc, #84]	; 8e2c <control_reg1_print+0x1b8>
    8dd4:	e2011001 	and	r1, r1, #1
    8dd8:	e59f2088 	ldr	r2, [pc, #136]	; 8e68 <control_reg1_print+0x1f4>
    8ddc:	eb000267 	bl	9780 <printk>
    8de0:	e5d41000 	ldrb	r1, [r4]
    8de4:	e1a01121 	lsr	r1, r1, #2
    8de8:	e59f003c 	ldr	r0, [pc, #60]	; 8e2c <control_reg1_print+0x1b8>
    8dec:	e2011001 	and	r1, r1, #1
    8df0:	e59f2074 	ldr	r2, [pc, #116]	; 8e6c <control_reg1_print+0x1f8>
    8df4:	eb000261 	bl	9780 <printk>
    8df8:	e5d41000 	ldrb	r1, [r4]
    8dfc:	e1a010a1 	lsr	r1, r1, #1
    8e00:	e59f0024 	ldr	r0, [pc, #36]	; 8e2c <control_reg1_print+0x1b8>
    8e04:	e2011001 	and	r1, r1, #1
    8e08:	e59f2060 	ldr	r2, [pc, #96]	; 8e70 <control_reg1_print+0x1fc>
    8e0c:	eb00025b 	bl	9780 <printk>
    8e10:	e5d41000 	ldrb	r1, [r4]
    8e14:	e59f0010 	ldr	r0, [pc, #16]	; 8e2c <control_reg1_print+0x1b8>
    8e18:	e2011001 	and	r1, r1, #1
    8e1c:	e59f2050 	ldr	r2, [pc, #80]	; 8e74 <control_reg1_print+0x200>
    8e20:	eb000256 	bl	9780 <printk>
    8e24:	e8bd8010 	pop	{r4, pc}
    8e28:	0000b904 	andeq	fp, r0, r4, lsl #18
    8e2c:	0000b91c 	andeq	fp, r0, ip, lsl r9
    8e30:	0000b8b8 			; <UNDEFINED> instruction: 0x0000b8b8
    8e34:	0000b8a8 	andeq	fp, r0, r8, lsr #17
    8e38:	0000b89c 	muleq	r0, ip, r8
    8e3c:	0000b898 	muleq	r0, r8, r8
    8e40:	0000b88c 	andeq	fp, r0, ip, lsl #17
    8e44:	0000b884 	andeq	fp, r0, r4, lsl #17
    8e48:	0000b878 	andeq	fp, r0, r8, ror r8
    8e4c:	0000b874 	andeq	fp, r0, r4, ror r8
    8e50:	0000b860 	andeq	fp, r0, r0, ror #16
    8e54:	0000b840 	andeq	fp, r0, r0, asr #16
    8e58:	0000b830 	andeq	fp, r0, r0, lsr r8
    8e5c:	0000b820 	andeq	fp, r0, r0, lsr #16
    8e60:	0000b818 	andeq	fp, r0, r8, lsl r8
    8e64:	0000b80c 	andeq	fp, r0, ip, lsl #16
    8e68:	0000b800 	andeq	fp, r0, r0, lsl #16
    8e6c:	0000b7ec 	andeq	fp, r0, ip, ror #15
    8e70:	0000b7e0 	andeq	fp, r0, r0, ror #15
    8e74:	0000b774 	andeq	fp, r0, r4, ror r7

00008e78 <tlb_config_print>:
    8e78:	e92d4010 	push	{r4, lr}
    8e7c:	e1a04000 	mov	r4, r0
    8e80:	e59f002c 	ldr	r0, [pc, #44]	; 8eb4 <tlb_config_print+0x3c>
    8e84:	eb00023d 	bl	9780 <printk>
    8e88:	e5d41000 	ldrb	r1, [r4]
    8e8c:	e59f0024 	ldr	r0, [pc, #36]	; 8eb8 <tlb_config_print+0x40>
    8e90:	e2011001 	and	r1, r1, #1
    8e94:	eb000239 	bl	9780 <printk>
    8e98:	e59f001c 	ldr	r0, [pc, #28]	; 8ebc <tlb_config_print+0x44>
    8e9c:	e5d41001 	ldrb	r1, [r4, #1]
    8ea0:	eb000236 	bl	9780 <printk>
    8ea4:	e59f0014 	ldr	r0, [pc, #20]	; 8ec0 <tlb_config_print+0x48>
    8ea8:	e5d41002 	ldrb	r1, [r4, #2]
    8eac:	eb000233 	bl	9780 <printk>
    8eb0:	e8bd8010 	pop	{r4, pc}
    8eb4:	0000b930 	andeq	fp, r0, r0, lsr r9
    8eb8:	0000b940 	andeq	fp, r0, r0, asr #18
    8ebc:	0000b950 	andeq	fp, r0, r0, asr r9
    8ec0:	0000b968 	andeq	fp, r0, r8, ror #18

00008ec4 <fld_mk>:
    8ec4:	e3a00002 	mov	r0, #2
    8ec8:	e12fff1e 	bx	lr

00008ecc <fld_check_offsets>:
    8ecc:	e92d4010 	push	{r4, lr}
    8ed0:	e24dd020 	sub	sp, sp, #32
    8ed4:	ebfffffa 	bl	8ec4 <fld_mk>
    8ed8:	e28d3020 	add	r3, sp, #32
    8edc:	e5230004 	str	r0, [r3, #-4]!
    8ee0:	e1a00003 	mov	r0, r3
    8ee4:	ebfffef5 	bl	8ac0 <fld_check_valid>
    8ee8:	e59f406c 	ldr	r4, [pc, #108]	; 8f5c <fld_check_offsets+0x90>
    8eec:	e1540004 	cmp	r4, r4
    8ef0:	0a00000e 	beq	8f30 <fld_check_offsets+0x64>
    8ef4:	eb00023c 	bl	97ec <rpi_reset_putc>
    8ef8:	e58d4000 	str	r4, [sp]
    8efc:	e58d4004 	str	r4, [sp, #4]
    8f00:	e59f3058 	ldr	r3, [pc, #88]	; 8f60 <fld_check_offsets+0x94>
    8f04:	e58d3008 	str	r3, [sp, #8]
    8f08:	e3a03014 	mov	r3, #20
    8f0c:	e58d300c 	str	r3, [sp, #12]
    8f10:	e3a0300c 	mov	r3, #12
    8f14:	e58d3010 	str	r3, [sp, #16]
    8f18:	e59f0044 	ldr	r0, [pc, #68]	; 8f64 <fld_check_offsets+0x98>
    8f1c:	e59f1044 	ldr	r1, [pc, #68]	; 8f68 <fld_check_offsets+0x9c>
    8f20:	e59f2044 	ldr	r2, [pc, #68]	; 8f6c <fld_check_offsets+0xa0>
    8f24:	e3a03096 	mov	r3, #150	; 0x96
    8f28:	eb000214 	bl	9780 <printk>
    8f2c:	eb000383 	bl	9d40 <clean_reboot>
    8f30:	e3740601 	cmn	r4, #1048576	; 0x100000
    8f34:	0a000006 	beq	8f54 <fld_check_offsets+0x88>
    8f38:	eb00022b 	bl	97ec <rpi_reset_putc>
    8f3c:	e59f002c 	ldr	r0, [pc, #44]	; 8f70 <fld_check_offsets+0xa4>
    8f40:	e59f1020 	ldr	r1, [pc, #32]	; 8f68 <fld_check_offsets+0x9c>
    8f44:	e59f2020 	ldr	r2, [pc, #32]	; 8f6c <fld_check_offsets+0xa0>
    8f48:	e3a03096 	mov	r3, #150	; 0x96
    8f4c:	eb00020b 	bl	9780 <printk>
    8f50:	eb00037a 	bl	9d40 <clean_reboot>
    8f54:	e28dd020 	add	sp, sp, #32
    8f58:	e8bd8010 	pop	{r4, pc}
    8f5c:	fff00000 			; <UNDEFINED> instruction: 0xfff00000	; IMB
    8f60:	0000b9b8 			; <UNDEFINED> instruction: 0x0000b9b8
    8f64:	0000b79c 	muleq	r0, ip, r7
    8f68:	0000b530 	andeq	fp, r0, r0, lsr r5
    8f6c:	0000b4f4 	strdeq	fp, [r0], -r4
    8f70:	0000b780 	andeq	fp, r0, r0, lsl #15

00008f74 <fld_print>:
    8f74:	e92d4010 	push	{r4, lr}
    8f78:	e1a04000 	mov	r4, r0
    8f7c:	e59f0178 	ldr	r0, [pc, #376]	; 90fc <fld_print+0x188>
    8f80:	eb0001fe 	bl	9780 <printk>
    8f84:	e59f0174 	ldr	r0, [pc, #372]	; 9100 <fld_print+0x18c>
    8f88:	e1a01004 	mov	r1, r4
    8f8c:	eb0001fb 	bl	9780 <printk>
    8f90:	e1d410b2 	ldrh	r1, [r4, #2]
    8f94:	e59f0168 	ldr	r0, [pc, #360]	; 9104 <fld_print+0x190>
    8f98:	e1a01221 	lsr	r1, r1, #4
    8f9c:	e59f2164 	ldr	r2, [pc, #356]	; 9108 <fld_print+0x194>
    8fa0:	eb0001f6 	bl	9780 <printk>
    8fa4:	e1d410b2 	ldrh	r1, [r4, #2]
    8fa8:	e1a01221 	lsr	r1, r1, #4
    8fac:	e3510008 	cmp	r1, #8
    8fb0:	da000001 	ble	8fbc <fld_print+0x48>
    8fb4:	e59f0150 	ldr	r0, [pc, #336]	; 910c <fld_print+0x198>
    8fb8:	eb0001f0 	bl	9780 <printk>
    8fbc:	e1d410b2 	ldrh	r1, [r4, #2]
    8fc0:	e1a01221 	lsr	r1, r1, #4
    8fc4:	e59f0144 	ldr	r0, [pc, #324]	; 9110 <fld_print+0x19c>
    8fc8:	e1a01a01 	lsl	r1, r1, #20
    8fcc:	eb0001eb 	bl	9780 <printk>
    8fd0:	e59f013c 	ldr	r0, [pc, #316]	; 9114 <fld_print+0x1a0>
    8fd4:	eb0001e9 	bl	9780 <printk>
    8fd8:	e5d41002 	ldrb	r1, [r4, #2]
    8fdc:	e1a010a1 	lsr	r1, r1, #1
    8fe0:	e59f011c 	ldr	r0, [pc, #284]	; 9104 <fld_print+0x190>
    8fe4:	e2011001 	and	r1, r1, #1
    8fe8:	e59f2128 	ldr	r2, [pc, #296]	; 9118 <fld_print+0x1a4>
    8fec:	eb0001e3 	bl	9780 <printk>
    8ff0:	e5d41002 	ldrb	r1, [r4, #2]
    8ff4:	e59f0108 	ldr	r0, [pc, #264]	; 9104 <fld_print+0x190>
    8ff8:	e2011001 	and	r1, r1, #1
    8ffc:	e59f2118 	ldr	r2, [pc, #280]	; 911c <fld_print+0x1a8>
    9000:	eb0001de 	bl	9780 <printk>
    9004:	e5d41001 	ldrb	r1, [r4, #1]
    9008:	e59f00f4 	ldr	r0, [pc, #244]	; 9104 <fld_print+0x190>
    900c:	e1a013a1 	lsr	r1, r1, #7
    9010:	e59f2108 	ldr	r2, [pc, #264]	; 9120 <fld_print+0x1ac>
    9014:	eb0001d9 	bl	9780 <printk>
    9018:	e5d41001 	ldrb	r1, [r4, #1]
    901c:	e1a01221 	lsr	r1, r1, #4
    9020:	e59f00dc 	ldr	r0, [pc, #220]	; 9104 <fld_print+0x190>
    9024:	e2011007 	and	r1, r1, #7
    9028:	e59f20f4 	ldr	r2, [pc, #244]	; 9124 <fld_print+0x1b0>
    902c:	eb0001d3 	bl	9780 <printk>
    9030:	e5d41001 	ldrb	r1, [r4, #1]
    9034:	e1a01121 	lsr	r1, r1, #2
    9038:	e59f00c4 	ldr	r0, [pc, #196]	; 9104 <fld_print+0x190>
    903c:	e2011003 	and	r1, r1, #3
    9040:	e59f20e0 	ldr	r2, [pc, #224]	; 9128 <fld_print+0x1b4>
    9044:	eb0001cd 	bl	9780 <printk>
    9048:	e5d41001 	ldrb	r1, [r4, #1]
    904c:	e1a010a1 	lsr	r1, r1, #1
    9050:	e59f00ac 	ldr	r0, [pc, #172]	; 9104 <fld_print+0x190>
    9054:	e2011001 	and	r1, r1, #1
    9058:	e59f20cc 	ldr	r2, [pc, #204]	; 912c <fld_print+0x1b8>
    905c:	eb0001c7 	bl	9780 <printk>
    9060:	e1d410b0 	ldrh	r1, [r4]
    9064:	e1a012a1 	lsr	r1, r1, #5
    9068:	e59f0094 	ldr	r0, [pc, #148]	; 9104 <fld_print+0x190>
    906c:	e201100f 	and	r1, r1, #15
    9070:	e59f20b8 	ldr	r2, [pc, #184]	; 9130 <fld_print+0x1bc>
    9074:	eb0001c1 	bl	9780 <printk>
    9078:	e1d410b0 	ldrh	r1, [r4]
    907c:	e1a012a1 	lsr	r1, r1, #5
    9080:	e201100f 	and	r1, r1, #15
    9084:	e3510008 	cmp	r1, #8
    9088:	da000001 	ble	9094 <fld_print+0x120>
    908c:	e59f0078 	ldr	r0, [pc, #120]	; 910c <fld_print+0x198>
    9090:	eb0001ba 	bl	9780 <printk>
    9094:	e5d41000 	ldrb	r1, [r4]
    9098:	e1a01221 	lsr	r1, r1, #4
    909c:	e59f0060 	ldr	r0, [pc, #96]	; 9104 <fld_print+0x190>
    90a0:	e2011001 	and	r1, r1, #1
    90a4:	e59f2088 	ldr	r2, [pc, #136]	; 9134 <fld_print+0x1c0>
    90a8:	eb0001b4 	bl	9780 <printk>
    90ac:	e5d41000 	ldrb	r1, [r4]
    90b0:	e1a011a1 	lsr	r1, r1, #3
    90b4:	e59f0048 	ldr	r0, [pc, #72]	; 9104 <fld_print+0x190>
    90b8:	e2011001 	and	r1, r1, #1
    90bc:	e59f2074 	ldr	r2, [pc, #116]	; 9138 <fld_print+0x1c4>
    90c0:	eb0001ae 	bl	9780 <printk>
    90c4:	e5d41000 	ldrb	r1, [r4]
    90c8:	e1a01121 	lsr	r1, r1, #2
    90cc:	e59f0030 	ldr	r0, [pc, #48]	; 9104 <fld_print+0x190>
    90d0:	e2011001 	and	r1, r1, #1
    90d4:	e59f2060 	ldr	r2, [pc, #96]	; 913c <fld_print+0x1c8>
    90d8:	eb0001a8 	bl	9780 <printk>
    90dc:	e5d41000 	ldrb	r1, [r4]
    90e0:	e59f001c 	ldr	r0, [pc, #28]	; 9104 <fld_print+0x190>
    90e4:	e2011003 	and	r1, r1, #3
    90e8:	e59f2050 	ldr	r2, [pc, #80]	; 9140 <fld_print+0x1cc>
    90ec:	eb0001a3 	bl	9780 <printk>
    90f0:	e1a00004 	mov	r0, r4
    90f4:	ebfffe71 	bl	8ac0 <fld_check_valid>
    90f8:	e8bd8010 	pop	{r4, pc}
    90fc:	0000b9c8 	andeq	fp, r0, r8, asr #19
    9100:	0000b9e8 	andeq	fp, r0, r8, ror #19
    9104:	0000b91c 	andeq	fp, r0, ip, lsl r9
    9108:	0000b9b8 			; <UNDEFINED> instruction: 0x0000b9b8
    910c:	0000b928 	andeq	fp, r0, r8, lsr #18
    9110:	0000b9f0 	strdeq	fp, [r0], -r0
    9114:	0000ba04 	andeq	fp, r0, r4, lsl #20
    9118:	0000b9ac 	andeq	fp, r0, ip, lsr #19
    911c:	0000b9a8 	andeq	fp, r0, r8, lsr #19
    9120:	0000b9a4 	andeq	fp, r0, r4, lsr #19
    9124:	0000b9a0 	andeq	fp, r0, r0, lsr #19
    9128:	0000b99c 	muleq	r0, ip, r9
    912c:	0000b998 	muleq	r0, r8, r9
    9130:	0000b990 	muleq	r0, r0, r9
    9134:	0000b98c 	andeq	fp, r0, ip, lsl #19
    9138:	0000b988 	andeq	fp, r0, r8, lsl #19
    913c:	0000b984 	andeq	fp, r0, r4, lsl #19
    9140:	0000b980 	andeq	fp, r0, r0, lsl #19

00009144 <check_vm_structs>:
    9144:	e92d4008 	push	{r3, lr}
    9148:	ebfffeb8 	bl	8c30 <control_reg1_check_offsets>
    914c:	ebfffeb9 	bl	8c38 <tlb_config_check_offsets>
    9150:	ebffff5d 	bl	8ecc <fld_check_offsets>
    9154:	e8bd8008 	pop	{r3, pc}

00009158 <mmu_sync_pte_mod>:
    9158:	e3a02000 	mov	r2, #0
    915c:	ee072f16 	mcr	15, 0, r2, cr7, cr6, {0}
    9160:	ee072f9a 	mcr	15, 0, r2, cr7, cr10, {4}
    9164:	ee082f17 	mcr	15, 0, r2, cr8, cr7, {0}
    9168:	ee072fd5 	mcr	15, 0, r2, cr7, cr5, {6}
    916c:	ee072f9a 	mcr	15, 0, r2, cr7, cr10, {4}
    9170:	ee072f95 	mcr	15, 0, r2, cr7, cr5, {4}
    9174:	e12fff1e 	bx	lr

00009178 <our_get_cache_type>:
    9178:	ee100f30 	mrc	15, 0, r0, cr0, cr0, {1}
    917c:	e12fff1e 	bx	lr

00009180 <clear_icache>:
    9180:	ee070f15 	mcr	15, 0, r0, cr7, cr5, {0}
    9184:	ee070fd5 	mcr	15, 0, r0, cr7, cr5, {6}
    9188:	e12fff1e 	bx	lr

0000918c <inv_icache>:
    918c:	e3a00000 	mov	r0, #0
    9190:	ee070f15 	mcr	15, 0, r0, cr7, cr5, {0}
    9194:	e12fff1e 	bx	lr

00009198 <inv_dcache>:
    9198:	e3a00000 	mov	r0, #0
    919c:	ee070fd5 	mcr	15, 0, r0, cr7, cr5, {6}
    91a0:	ee070f16 	mcr	15, 0, r0, cr7, cr6, {0}
    91a4:	e12fff1e 	bx	lr

000091a8 <inv_caches>:
    91a8:	e3a00000 	mov	r0, #0
    91ac:	ee070f17 	mcr	15, 0, r0, cr7, cr7, {0}
    91b0:	e12fff1e 	bx	lr

000091b4 <clean_inv_caches>:
    91b4:	ee070f1f 	mcr	15, 0, r0, cr7, cr15, {0}
    91b8:	e12fff1e 	bx	lr

000091bc <cp15_read_tlb_config>:
    91bc:	ee100f70 	mrc	15, 0, r0, cr0, cr0, {3}
    91c0:	e12fff1e 	bx	lr

000091c4 <read_domain_reg>:
    91c4:	e3a00000 	mov	r0, #0
    91c8:	ee130f10 	mrc	15, 0, r0, cr3, cr0, {0}
    91cc:	e12fff1e 	bx	lr

000091d0 <write_domain_reg>:
    91d0:	ee030f10 	mcr	15, 0, r0, cr3, cr0, {0}
    91d4:	e12fff1e 	bx	lr

000091d8 <cp15_ctrl_reg1_rd>:
    91d8:	e3a00000 	mov	r0, #0
    91dc:	ee110f10 	mrc	15, 0, r0, cr1, cr0, {0}
    91e0:	e12fff1e 	bx	lr

000091e4 <cp15_ctrl_reg1_wr>:
    91e4:	e3a01000 	mov	r1, #0
    91e8:	ee071f9a 	mcr	15, 0, r1, cr7, cr10, {4}
    91ec:	ee010f10 	mcr	15, 0, r0, cr1, cr0, {0}
    91f0:	ee071f95 	mcr	15, 0, r1, cr7, cr5, {4}
    91f4:	e12fff1e 	bx	lr

000091f8 <switch_addr>:
    91f8:	ee010f10 	mcr	15, 0, r0, cr1, cr0, {0}
    91fc:	e5920000 	ldr	r0, [r2]
    9200:	ee011f10 	mcr	15, 0, r1, cr1, cr0, {0}
    9204:	e12fff1e 	bx	lr

00009208 <our_set_procid_ttbr0>:
    9208:	e3a02000 	mov	r2, #0
    920c:	ee0d2f30 	mcr	15, 0, r2, cr13, cr0, {1}
    9210:	ee072f95 	mcr	15, 0, r2, cr7, cr5, {4}
    9214:	ee021f10 	mcr	15, 0, r1, cr2, cr0, {0}
    9218:	ee022f30 	mcr	15, 0, r2, cr2, cr0, {1}
    921c:	ee072f95 	mcr	15, 0, r2, cr7, cr5, {4}
    9220:	ee0d0f30 	mcr	15, 0, r0, cr13, cr0, {1}
    9224:	ee072f9a 	mcr	15, 0, r2, cr7, cr10, {4}
    9228:	e12fff1e 	bx	lr

0000922c <our_mmu_enable>:
    922c:	e3a01000 	mov	r1, #0
    9230:	ee071f9a 	mcr	15, 0, r1, cr7, cr10, {4}
    9234:	ee071f16 	mcr	15, 0, r1, cr7, cr6, {0}
    9238:	ee071f15 	mcr	15, 0, r1, cr7, cr5, {0}
    923c:	ee071f15 	mcr	15, 0, r1, cr7, cr5, {0}
    9240:	ee071f15 	mcr	15, 0, r1, cr7, cr5, {0}
    9244:	ee071f15 	mcr	15, 0, r1, cr7, cr5, {0}
    9248:	e320f000 	nop	{0}
    924c:	e320f000 	nop	{0}
    9250:	e320f000 	nop	{0}
    9254:	e320f000 	nop	{0}
    9258:	e320f000 	nop	{0}
    925c:	e320f000 	nop	{0}
    9260:	e320f000 	nop	{0}
    9264:	e320f000 	nop	{0}
    9268:	e320f000 	nop	{0}
    926c:	e320f000 	nop	{0}
    9270:	e320f000 	nop	{0}
    9274:	ee081f17 	mcr	15, 0, r1, cr8, cr7, {0}
    9278:	ee071f9a 	mcr	15, 0, r1, cr7, cr10, {4}
    927c:	ee071f95 	mcr	15, 0, r1, cr7, cr5, {4}
    9280:	ee010f10 	mcr	15, 0, r0, cr1, cr0, {0}
    9284:	ee071fd5 	mcr	15, 0, r1, cr7, cr5, {6}
    9288:	ee071f9a 	mcr	15, 0, r1, cr7, cr10, {4}
    928c:	ee071f95 	mcr	15, 0, r1, cr7, cr5, {4}
    9290:	ee071f9a 	mcr	15, 0, r1, cr7, cr10, {4}
    9294:	ee071f9a 	mcr	15, 0, r1, cr7, cr10, {4}
    9298:	e12fff1e 	bx	lr

0000929c <our_mmu_disable>:
    929c:	e3a01000 	mov	r1, #0
    92a0:	ee071f9a 	mcr	15, 0, r1, cr7, cr10, {4}
    92a4:	ee071f1e 	mcr	15, 0, r1, cr7, cr14, {0}
    92a8:	ee071f9a 	mcr	15, 0, r1, cr7, cr10, {4}
    92ac:	ee010f10 	mcr	15, 0, r0, cr1, cr0, {0}
    92b0:	ee071f9a 	mcr	15, 0, r1, cr7, cr10, {4}
    92b4:	ee071f16 	mcr	15, 0, r1, cr7, cr6, {0}
    92b8:	ee071f15 	mcr	15, 0, r1, cr7, cr5, {0}
    92bc:	ee071f15 	mcr	15, 0, r1, cr7, cr5, {0}
    92c0:	ee071f15 	mcr	15, 0, r1, cr7, cr5, {0}
    92c4:	ee071f15 	mcr	15, 0, r1, cr7, cr5, {0}
    92c8:	e320f000 	nop	{0}
    92cc:	e320f000 	nop	{0}
    92d0:	e320f000 	nop	{0}
    92d4:	e320f000 	nop	{0}
    92d8:	e320f000 	nop	{0}
    92dc:	e320f000 	nop	{0}
    92e0:	e320f000 	nop	{0}
    92e4:	e320f000 	nop	{0}
    92e8:	e320f000 	nop	{0}
    92ec:	e320f000 	nop	{0}
    92f0:	e320f000 	nop	{0}
    92f4:	ee081f17 	mcr	15, 0, r1, cr8, cr7, {0}
    92f8:	ee071f9a 	mcr	15, 0, r1, cr7, cr10, {4}
    92fc:	ee071fd5 	mcr	15, 0, r1, cr7, cr5, {6}
    9300:	ee071f9a 	mcr	15, 0, r1, cr7, cr10, {4}
    9304:	ee071f95 	mcr	15, 0, r1, cr7, cr5, {4}
    9308:	ee071f9a 	mcr	15, 0, r1, cr7, cr10, {4}
    930c:	e12fff1e 	bx	lr

00009310 <read_ttbr0>:
    9310:	ee120f10 	mrc	15, 0, r0, cr2, cr0, {0}
    9314:	e12fff1e 	bx	lr

00009318 <write_ttbr0>:
    9318:	ee020f10 	mcr	15, 0, r0, cr2, cr0, {0}
    931c:	e12fff1e 	bx	lr

00009320 <read_ttbr1>:
    9320:	ee120f30 	mrc	15, 0, r0, cr2, cr0, {1}
    9324:	e12fff1e 	bx	lr

00009328 <write_ttbr1>:
    9328:	ee020f30 	mcr	15, 0, r0, cr2, cr0, {1}
    932c:	e12fff1e 	bx	lr

00009330 <read_tlb_base_ctrl>:
    9330:	ee120f50 	mrc	15, 0, r0, cr2, cr0, {2}
    9334:	e12fff1e 	bx	lr

00009338 <write_tlb_base_ctrl>:
    9338:	e3a01000 	mov	r1, #0
    933c:	ee071f9a 	mcr	15, 0, r1, cr7, cr10, {4}
    9340:	ee020f50 	mcr	15, 0, r0, cr2, cr0, {2}
    9344:	ee071f95 	mcr	15, 0, r1, cr7, cr5, {4}
    9348:	e12fff1e 	bx	lr

0000934c <read_domain_access_ctrl>:
    934c:	ee130f10 	mrc	15, 0, r0, cr3, cr0, {0}
    9350:	e12fff1e 	bx	lr

00009354 <our_write_domain_access_ctrl>:
    9354:	ee030f10 	mcr	15, 0, r0, cr3, cr0, {0}
    9358:	e12fff1e 	bx	lr

0000935c <tlb_invalidate>:
    935c:	e3a00000 	mov	r0, #0
    9360:	ee080f17 	mcr	15, 0, r0, cr8, cr7, {0}
    9364:	e12fff1e 	bx	lr

00009368 <tlb_i_invalidate>:
    9368:	e3a00000 	mov	r0, #0
    936c:	ee080f15 	mcr	15, 0, r0, cr8, cr5, {0}
    9370:	e12fff1e 	bx	lr

00009374 <tlb_d_invalidate>:
    9374:	e3a00000 	mov	r0, #0
    9378:	ee080f16 	mcr	15, 0, r0, cr8, cr6, {0}
    937c:	e12fff1e 	bx	lr

00009380 <our_tlb_set_procid>:
    9380:	ee0d0f30 	mcr	15, 0, r0, cr13, cr0, {1}
    9384:	e12fff1e 	bx	lr

00009388 <tlb_get_procid>:
    9388:	e3a00000 	mov	r0, #0
    938c:	ee1d0f30 	mrc	15, 0, r0, cr13, cr0, {1}
    9390:	e12fff1e 	bx	lr

00009394 <sec_bits_only>:
    9394:	e1a00aa0 	lsr	r0, r0, #21
    9398:	e1a00a80 	lsl	r0, r0, #21
    939c:	e12fff1e 	bx	lr

000093a0 <our_mmu_lookup_section>:
    93a0:	e92d4010 	push	{r4, lr}
    93a4:	e3110013 	tst	r1, #19
    93a8:	1a000006 	bne	93c8 <our_mmu_lookup_section+0x28>
    93ac:	e1a01a21 	lsr	r1, r1, #20
    93b0:	e0803101 	add	r3, r0, r1, lsl #2
    93b4:	e7d02101 	ldrb	r2, [r0, r1, lsl #2]
    93b8:	e3120003 	tst	r2, #3
    93bc:	0a000008 	beq	93e4 <our_mmu_lookup_section+0x44>
    93c0:	e1a00003 	mov	r0, r3
    93c4:	e8bd8010 	pop	{r4, pc}
    93c8:	eb000107 	bl	97ec <rpi_reset_putc>
    93cc:	e3a0300d 	mov	r3, #13
    93d0:	e59f2028 	ldr	r2, [pc, #40]	; 9400 <our_mmu_lookup_section+0x60>
    93d4:	e59f1028 	ldr	r1, [pc, #40]	; 9404 <our_mmu_lookup_section+0x64>
    93d8:	e59f0028 	ldr	r0, [pc, #40]	; 9408 <our_mmu_lookup_section+0x68>
    93dc:	eb0000e7 	bl	9780 <printk>
    93e0:	eb000256 	bl	9d40 <clean_reboot>
    93e4:	eb000100 	bl	97ec <rpi_reset_putc>
    93e8:	e3a03010 	mov	r3, #16
    93ec:	e59f200c 	ldr	r2, [pc, #12]	; 9400 <our_mmu_lookup_section+0x60>
    93f0:	e59f100c 	ldr	r1, [pc, #12]	; 9404 <our_mmu_lookup_section+0x64>
    93f4:	e59f0010 	ldr	r0, [pc, #16]	; 940c <our_mmu_lookup_section+0x6c>
    93f8:	eb0000e0 	bl	9780 <printk>
    93fc:	eb00024f 	bl	9d40 <clean_reboot>
    9400:	0000ba1c 	andeq	fp, r0, ip, lsl sl
    9404:	0000ba88 	andeq	fp, r0, r8, lsl #21
    9408:	0000b068 	andeq	fp, r0, r8, rrx
    940c:	0000ba94 	muleq	r0, r4, sl

00009410 <fld_set_base_addr>:
    9410:	e92d4010 	push	{r4, lr}
    9414:	e3110013 	tst	r1, #19
    9418:	1a00000d 	bne	9454 <fld_set_base_addr+0x44>
    941c:	e1a02a21 	lsr	r2, r1, #20
    9420:	e1d030b2 	ldrh	r3, [r0, #2]
    9424:	e203300f 	and	r3, r3, #15
    9428:	e1833202 	orr	r3, r3, r2, lsl #4
    942c:	e1c030b2 	strh	r3, [r0, #2]
    9430:	e1510a02 	cmp	r1, r2, lsl #20
    9434:	08bd8010 	popeq	{r4, pc}
    9438:	eb0000eb 	bl	97ec <rpi_reset_putc>
    943c:	e3a03027 	mov	r3, #39	; 0x27
    9440:	e59f2028 	ldr	r2, [pc, #40]	; 9470 <fld_set_base_addr+0x60>
    9444:	e59f1028 	ldr	r1, [pc, #40]	; 9474 <fld_set_base_addr+0x64>
    9448:	e59f0028 	ldr	r0, [pc, #40]	; 9478 <fld_set_base_addr+0x68>
    944c:	eb0000cb 	bl	9780 <printk>
    9450:	eb00023a 	bl	9d40 <clean_reboot>
    9454:	eb0000e4 	bl	97ec <rpi_reset_putc>
    9458:	e3a03022 	mov	r3, #34	; 0x22
    945c:	e59f200c 	ldr	r2, [pc, #12]	; 9470 <fld_set_base_addr+0x60>
    9460:	e59f100c 	ldr	r1, [pc, #12]	; 9474 <fld_set_base_addr+0x64>
    9464:	e59f0010 	ldr	r0, [pc, #16]	; 947c <fld_set_base_addr+0x6c>
    9468:	eb0000c4 	bl	9780 <printk>
    946c:	eb000233 	bl	9d40 <clean_reboot>
    9470:	0000ba34 	andeq	fp, r0, r4, lsr sl
    9474:	0000ba88 	andeq	fp, r0, r8, lsl #21
    9478:	0000bb24 	andeq	fp, r0, r4, lsr #22
    947c:	0000bac8 	andeq	fp, r0, r8, asr #21

00009480 <our_mmu_map_section>:
    9480:	e92d41f0 	push	{r4, r5, r6, r7, r8, lr}
    9484:	e3110013 	tst	r1, #19
    9488:	1a000028 	bne	9530 <our_mmu_map_section+0xb0>
    948c:	e1a05000 	mov	r5, r0
    9490:	e1a08002 	mov	r8, r2
    9494:	e3120013 	tst	r2, #19
    9498:	1a00002b 	bne	954c <our_mmu_map_section+0xcc>
    949c:	e1a04a21 	lsr	r4, r1, #20
    94a0:	e1a07104 	lsl	r7, r4, #2
    94a4:	e0806007 	add	r6, r0, r7
    94a8:	e7d03104 	ldrb	r3, [r0, r4, lsl #2]
    94ac:	e3130003 	tst	r3, #3
    94b0:	1a00002c 	bne	9568 <our_mmu_map_section+0xe8>
    94b4:	ebfffe82 	bl	8ec4 <fld_mk>
    94b8:	e7850104 	str	r0, [r5, r4, lsl #2]
    94bc:	e5d63002 	ldrb	r3, [r6, #2]
    94c0:	e3c33002 	bic	r3, r3, #2
    94c4:	e5c63002 	strb	r3, [r6, #2]
    94c8:	e5d63001 	ldrb	r3, [r6, #1]
    94cc:	e203300f 	and	r3, r3, #15
    94d0:	e383300c 	orr	r3, r3, #12
    94d4:	e5c63001 	strb	r3, [r6, #1]
    94d8:	e19530b7 	ldrh	r3, [r5, r7]
    94dc:	e3c33e1e 	bic	r3, r3, #480	; 0x1e0
    94e0:	e18530b7 	strh	r3, [r5, r7]
    94e4:	e7d53104 	ldrb	r3, [r5, r4, lsl #2]
    94e8:	e3c33010 	bic	r3, r3, #16
    94ec:	e7c53104 	strb	r3, [r5, r4, lsl #2]
    94f0:	e1a01008 	mov	r1, r8
    94f4:	e1a00006 	mov	r0, r6
    94f8:	ebffffc4 	bl	9410 <fld_set_base_addr>
    94fc:	ebffff15 	bl	9158 <mmu_sync_pte_mod>
    9500:	e1a00006 	mov	r0, r6
    9504:	ebfffe9a 	bl	8f74 <fld_print>
    9508:	e7952104 	ldr	r2, [r5, r4, lsl #2]
    950c:	e1a01005 	mov	r1, r5
    9510:	e59f006c 	ldr	r0, [pc, #108]	; 9584 <our_mmu_map_section+0x104>
    9514:	eb000099 	bl	9780 <printk>
    9518:	e3a02004 	mov	r2, #4
    951c:	e1a01006 	mov	r1, r6
    9520:	e59f0060 	ldr	r0, [pc, #96]	; 9588 <our_mmu_map_section+0x108>
    9524:	ebfffdc5 	bl	8c40 <hash_print>
    9528:	e1a00006 	mov	r0, r6
    952c:	e8bd81f0 	pop	{r4, r5, r6, r7, r8, pc}
    9530:	eb0000ad 	bl	97ec <rpi_reset_putc>
    9534:	e3a03033 	mov	r3, #51	; 0x33
    9538:	e59f204c 	ldr	r2, [pc, #76]	; 958c <our_mmu_map_section+0x10c>
    953c:	e59f104c 	ldr	r1, [pc, #76]	; 9590 <our_mmu_map_section+0x110>
    9540:	e59f004c 	ldr	r0, [pc, #76]	; 9594 <our_mmu_map_section+0x114>
    9544:	eb00008d 	bl	9780 <printk>
    9548:	eb0001fc 	bl	9d40 <clean_reboot>
    954c:	eb0000a6 	bl	97ec <rpi_reset_putc>
    9550:	e3a03034 	mov	r3, #52	; 0x34
    9554:	e59f2030 	ldr	r2, [pc, #48]	; 958c <our_mmu_map_section+0x10c>
    9558:	e59f1030 	ldr	r1, [pc, #48]	; 9590 <our_mmu_map_section+0x110>
    955c:	e59f0034 	ldr	r0, [pc, #52]	; 9598 <our_mmu_map_section+0x118>
    9560:	eb000086 	bl	9780 <printk>
    9564:	eb0001f5 	bl	9d40 <clean_reboot>
    9568:	eb00009f 	bl	97ec <rpi_reset_putc>
    956c:	e3a03038 	mov	r3, #56	; 0x38
    9570:	e59f2014 	ldr	r2, [pc, #20]	; 958c <our_mmu_map_section+0x10c>
    9574:	e59f1014 	ldr	r1, [pc, #20]	; 9590 <our_mmu_map_section+0x110>
    9578:	e59f001c 	ldr	r0, [pc, #28]	; 959c <our_mmu_map_section+0x11c>
    957c:	eb00007f 	bl	9780 <printk>
    9580:	eb0001ee 	bl	9d40 <clean_reboot>
    9584:	0000b0b0 	strheq	fp, [r0], -r0
    9588:	0000b0c4 	andeq	fp, r0, r4, asr #1
    958c:	0000ba48 	andeq	fp, r0, r8, asr #20
    9590:	0000ba88 	andeq	fp, r0, r8, lsl #21
    9594:	0000b068 	andeq	fp, r0, r8, rrx
    9598:	0000b08c 	andeq	fp, r0, ip, lsl #1
    959c:	0000bb58 	andeq	fp, r0, r8, asr fp

000095a0 <our_mmu_init>:
    95a0:	e92d4010 	push	{r4, lr}
    95a4:	e310000d 	tst	r0, #13
    95a8:	1a000005 	bne	95c4 <our_mmu_init+0x24>
    95ac:	e1a04000 	mov	r4, r0
    95b0:	e3a02901 	mov	r2, #16384	; 0x4000
    95b4:	e3a01000 	mov	r1, #0
    95b8:	eb000068 	bl	9760 <memset>
    95bc:	e1a00004 	mov	r0, r4
    95c0:	e8bd8010 	pop	{r4, pc}
    95c4:	eb000088 	bl	97ec <rpi_reset_putc>
    95c8:	e3a03050 	mov	r3, #80	; 0x50
    95cc:	e59f200c 	ldr	r2, [pc, #12]	; 95e0 <our_mmu_init+0x40>
    95d0:	e59f100c 	ldr	r1, [pc, #12]	; 95e4 <our_mmu_init+0x44>
    95d4:	e59f000c 	ldr	r0, [pc, #12]	; 95e8 <our_mmu_init+0x48>
    95d8:	eb000068 	bl	9780 <printk>
    95dc:	eb0001d7 	bl	9d40 <clean_reboot>
    95e0:	0000ba5c 	andeq	fp, r0, ip, asr sl
    95e4:	0000ba88 	andeq	fp, r0, r8, lsl #21
    95e8:	0000b0d0 	ldrdeq	fp, [r0], -r0

000095ec <our_mmu_mark_sec_ap_perm>:
    95ec:	e92d41f0 	push	{r4, r5, r6, r7, r8, lr}
    95f0:	e1a08000 	mov	r8, r0
    95f4:	e1a05002 	mov	r5, r2
    95f8:	e1a06003 	mov	r6, r3
    95fc:	e1a00001 	mov	r0, r1
    9600:	ebffff63 	bl	9394 <sec_bits_only>
    9604:	e3560003 	cmp	r6, #3
    9608:	91a07000 	movls	r7, r0
    960c:	93a04000 	movls	r4, #0
    9610:	9a000010 	bls	9658 <our_mmu_mark_sec_ap_perm+0x6c>
    9614:	eb000074 	bl	97ec <rpi_reset_putc>
    9618:	e3a0305a 	mov	r3, #90	; 0x5a
    961c:	e59f2040 	ldr	r2, [pc, #64]	; 9664 <our_mmu_mark_sec_ap_perm+0x78>
    9620:	e59f1040 	ldr	r1, [pc, #64]	; 9668 <our_mmu_mark_sec_ap_perm+0x7c>
    9624:	e59f0040 	ldr	r0, [pc, #64]	; 966c <our_mmu_mark_sec_ap_perm+0x80>
    9628:	eb000054 	bl	9780 <printk>
    962c:	eb0001c3 	bl	9d40 <clean_reboot>
    9630:	e1a01007 	mov	r1, r7
    9634:	e1a00008 	mov	r0, r8
    9638:	ebffff58 	bl	93a0 <our_mmu_lookup_section>
    963c:	e5d02001 	ldrb	r2, [r0, #1]
    9640:	e2063003 	and	r3, r6, #3
    9644:	e3c2200c 	bic	r2, r2, #12
    9648:	e1823103 	orr	r3, r2, r3, lsl #2
    964c:	e5c03001 	strb	r3, [r0, #1]
    9650:	ebfffec0 	bl	9158 <mmu_sync_pte_mod>
    9654:	e2844001 	add	r4, r4, #1
    9658:	e1540005 	cmp	r4, r5
    965c:	3afffff3 	bcc	9630 <our_mmu_mark_sec_ap_perm+0x44>
    9660:	e8bd81f0 	pop	{r4, r5, r6, r7, r8, pc}
    9664:	0000ba6c 	andeq	fp, r0, ip, ror #20
    9668:	0000ba88 	andeq	fp, r0, r8, lsl #21
    966c:	0000bb8c 	andeq	fp, r0, ip, lsl #23

00009670 <fast_hash>:
    9670:	e52d4004 	push	{r4}		; (str r4, [sp, #-4]!)
    9674:	e1a02001 	mov	r2, r1
    9678:	e1a03000 	mov	r3, r0
    967c:	e3500000 	cmp	r0, #0
    9680:	13510000 	cmpne	r1, #0
    9684:	da000032 	ble	9754 <fast_hash+0xe4>
    9688:	e2014003 	and	r4, r1, #3
    968c:	e1a01141 	asr	r1, r1, #2
    9690:	ea00000b 	b	96c4 <fast_hash+0x54>
    9694:	e5d3c001 	ldrb	ip, [r3, #1]
    9698:	e5d30000 	ldrb	r0, [r3]
    969c:	e080040c 	add	r0, r0, ip, lsl #8
    96a0:	e0800002 	add	r0, r0, r2
    96a4:	e5d3c003 	ldrb	ip, [r3, #3]
    96a8:	e5d32002 	ldrb	r2, [r3, #2]
    96ac:	e082240c 	add	r2, r2, ip, lsl #8
    96b0:	e0202582 	eor	r2, r0, r2, lsl #11
    96b4:	e0222800 	eor	r2, r2, r0, lsl #16
    96b8:	e2833004 	add	r3, r3, #4
    96bc:	e08225a2 	add	r2, r2, r2, lsr #11
    96c0:	e2411001 	sub	r1, r1, #1
    96c4:	e3510000 	cmp	r1, #0
    96c8:	cafffff1 	bgt	9694 <fast_hash+0x24>
    96cc:	e3540002 	cmp	r4, #2
    96d0:	0a00000d 	beq	970c <fast_hash+0x9c>
    96d4:	e3540003 	cmp	r4, #3
    96d8:	0a000002 	beq	96e8 <fast_hash+0x78>
    96dc:	e3540001 	cmp	r4, #1
    96e0:	1a000014 	bne	9738 <fast_hash+0xc8>
    96e4:	ea00000f 	b	9728 <fast_hash+0xb8>
    96e8:	e5d30001 	ldrb	r0, [r3, #1]
    96ec:	e5d31000 	ldrb	r1, [r3]
    96f0:	e0811400 	add	r1, r1, r0, lsl #8
    96f4:	e0812002 	add	r2, r1, r2
    96f8:	e0222802 	eor	r2, r2, r2, lsl #16
    96fc:	e1d330d2 	ldrsb	r3, [r3, #2]
    9700:	e0222903 	eor	r2, r2, r3, lsl #18
    9704:	e08225a2 	add	r2, r2, r2, lsr #11
    9708:	ea00000a 	b	9738 <fast_hash+0xc8>
    970c:	e5d31001 	ldrb	r1, [r3, #1]
    9710:	e5d33000 	ldrb	r3, [r3]
    9714:	e0833401 	add	r3, r3, r1, lsl #8
    9718:	e0832002 	add	r2, r3, r2
    971c:	e0222582 	eor	r2, r2, r2, lsl #11
    9720:	e08228a2 	add	r2, r2, r2, lsr #17
    9724:	ea000003 	b	9738 <fast_hash+0xc8>
    9728:	e1d330d0 	ldrsb	r3, [r3]
    972c:	e0832002 	add	r2, r3, r2
    9730:	e0222502 	eor	r2, r2, r2, lsl #10
    9734:	e08220a2 	add	r2, r2, r2, lsr #1
    9738:	e0220182 	eor	r0, r2, r2, lsl #3
    973c:	e08002a0 	add	r0, r0, r0, lsr #5
    9740:	e0200200 	eor	r0, r0, r0, lsl #4
    9744:	e08008a0 	add	r0, r0, r0, lsr #17
    9748:	e0200c80 	eor	r0, r0, r0, lsl #25
    974c:	e0800320 	add	r0, r0, r0, lsr #6
    9750:	ea000000 	b	9758 <fast_hash+0xe8>
    9754:	e3a00000 	mov	r0, #0
    9758:	e49d4004 	pop	{r4}		; (ldr r4, [sp], #4)
    975c:	e12fff1e 	bx	lr

00009760 <memset>:
    9760:	e0802002 	add	r2, r0, r2
    9764:	e1a03000 	mov	r3, r0
    9768:	ea000001 	b	9774 <memset+0x14>
    976c:	e5c31000 	strb	r1, [r3]
    9770:	e2833001 	add	r3, r3, #1
    9774:	e1530002 	cmp	r3, r2
    9778:	3afffffb 	bcc	976c <memset+0xc>
    977c:	e12fff1e 	bx	lr

00009780 <printk>:
    9780:	e92d000f 	push	{r0, r1, r2, r3}
    9784:	e92d4030 	push	{r4, r5, lr}
    9788:	e24dd00c 	sub	sp, sp, #12
    978c:	e28d301c 	add	r3, sp, #28
    9790:	e58d3004 	str	r3, [sp, #4]
    9794:	e59f4034 	ldr	r4, [pc, #52]	; 97d0 <printk+0x50>
    9798:	e1a00004 	mov	r0, r4
    979c:	e3a01b01 	mov	r1, #1024	; 0x400
    97a0:	e59d2018 	ldr	r2, [sp, #24]
    97a4:	eb0000c3 	bl	9ab8 <va_printk>
    97a8:	e1a05000 	mov	r5, r0
    97ac:	e59f3020 	ldr	r3, [pc, #32]	; 97d4 <printk+0x54>
    97b0:	e5933000 	ldr	r3, [r3]
    97b4:	e1a00004 	mov	r0, r4
    97b8:	e12fff33 	blx	r3
    97bc:	e1a00005 	mov	r0, r5
    97c0:	e28dd00c 	add	sp, sp, #12
    97c4:	e8bd4030 	pop	{r4, r5, lr}
    97c8:	e28dd010 	add	sp, sp, #16
    97cc:	e12fff1e 	bx	lr
    97d0:	0000bf78 	andeq	fp, r0, r8, ror pc
    97d4:	0000aec8 	andeq	sl, r0, r8, asr #29

000097d8 <internal_putchar>:
    97d8:	e92d4010 	push	{r4, lr}
    97dc:	e1a04000 	mov	r4, r0
    97e0:	eb000392 	bl	a630 <uart_putc>
    97e4:	e1a00004 	mov	r0, r4
    97e8:	e8bd8010 	pop	{r4, pc}

000097ec <rpi_reset_putc>:
    97ec:	e59f2008 	ldr	r2, [pc, #8]	; 97fc <rpi_reset_putc+0x10>
    97f0:	e59f3008 	ldr	r3, [pc, #8]	; 9800 <rpi_reset_putc+0x14>
    97f4:	e5832000 	str	r2, [r3]
    97f8:	e12fff1e 	bx	lr
    97fc:	000097d8 	ldrdeq	r9, [r0], -r8
    9800:	0000aec4 	andeq	sl, r0, r4, asr #29

00009804 <rpi_set_putc>:
    9804:	e59f3004 	ldr	r3, [pc, #4]	; 9810 <rpi_set_putc+0xc>
    9808:	e5830000 	str	r0, [r3]
    980c:	e12fff1e 	bx	lr
    9810:	0000aec4 	andeq	sl, r0, r4, asr #29

00009814 <internal_putk>:
    9814:	e92d4038 	push	{r3, r4, r5, lr}
    9818:	e1a04000 	mov	r4, r0
    981c:	e59f5020 	ldr	r5, [pc, #32]	; 9844 <internal_putk+0x30>
    9820:	ea000002 	b	9830 <internal_putk+0x1c>
    9824:	e5953000 	ldr	r3, [r5]
    9828:	e12fff33 	blx	r3
    982c:	e2844001 	add	r4, r4, #1
    9830:	e5d40000 	ldrb	r0, [r4]
    9834:	e3500000 	cmp	r0, #0
    9838:	1afffff9 	bne	9824 <internal_putk+0x10>
    983c:	e3a00001 	mov	r0, #1
    9840:	e8bd8038 	pop	{r3, r4, r5, pc}
    9844:	0000aec4 	andeq	sl, r0, r4, asr #29

00009848 <isdigit>:
    9848:	e2400030 	sub	r0, r0, #48	; 0x30
    984c:	e3500009 	cmp	r0, #9
    9850:	83a00000 	movhi	r0, #0
    9854:	93a00001 	movls	r0, #1
    9858:	e12fff1e 	bx	lr

0000985c <pad>:
    985c:	e0611000 	rsb	r1, r1, r0
    9860:	e3a03020 	mov	r3, #32
    9864:	ea000002 	b	9874 <pad+0x18>
    9868:	e5c03000 	strb	r3, [r0]
    986c:	e2811001 	add	r1, r1, #1
    9870:	e2800001 	add	r0, r0, #1
    9874:	e1510002 	cmp	r1, r2
    9878:	bafffffa 	blt	9868 <pad+0xc>
    987c:	e3a03000 	mov	r3, #0
    9880:	e5c03000 	strb	r3, [r0]
    9884:	e12fff1e 	bx	lr

00009888 <reverse>:
    9888:	e063c002 	rsb	ip, r3, r2
    988c:	e28cc001 	add	ip, ip, #1
    9890:	e15c0001 	cmp	ip, r1
    9894:	c061100c 	rsbgt	r1, r1, ip
    9898:	c0833001 	addgt	r3, r3, r1
    989c:	e2422001 	sub	r2, r2, #1
    98a0:	e1a01000 	mov	r1, r0
    98a4:	ea000002 	b	98b4 <reverse+0x2c>
    98a8:	e452c001 	ldrb	ip, [r2], #-1
    98ac:	e5c1c000 	strb	ip, [r1]
    98b0:	e2811001 	add	r1, r1, #1
    98b4:	e1520003 	cmp	r2, r3
    98b8:	2afffffa 	bcs	98a8 <reverse+0x20>
    98bc:	e3a03000 	mov	r3, #0
    98c0:	e5c13000 	strb	r3, [r1]
    98c4:	e12fff1e 	bx	lr

000098c8 <emit>:
    98c8:	e92d41f0 	push	{r4, r5, r6, r7, r8, lr}
    98cc:	e24dd040 	sub	sp, sp, #64	; 0x40
    98d0:	e1a05001 	mov	r5, r1
    98d4:	e1a04002 	mov	r4, r2
    98d8:	e59d2058 	ldr	r2, [sp, #88]	; 0x58
    98dc:	e1520004 	cmp	r2, r4
    98e0:	c2442001 	subgt	r2, r4, #1
    98e4:	e1a0c003 	mov	ip, r3
    98e8:	e2400002 	sub	r0, r0, #2
    98ec:	e350000e 	cmp	r0, #14
    98f0:	979ff100 	ldrls	pc, [pc, r0, lsl #2]
    98f4:	ea000042 	b	9a04 <emit+0x13c>
    98f8:	000099dc 	ldrdeq	r9, [r0], -ip
    98fc:	00009a04 	andeq	r9, r0, r4, lsl #20
    9900:	00009a04 	andeq	r9, r0, r4, lsl #20
    9904:	00009a04 	andeq	r9, r0, r4, lsl #20
    9908:	00009a04 	andeq	r9, r0, r4, lsl #20
    990c:	00009a04 	andeq	r9, r0, r4, lsl #20
    9910:	000099d0 	ldrdeq	r9, [r0], -r0
    9914:	00009a04 	andeq	r9, r0, r4, lsl #20
    9918:	00009934 	andeq	r9, r0, r4, lsr r9
    991c:	00009a04 	andeq	r9, r0, r4, lsl #20
    9920:	00009a04 	andeq	r9, r0, r4, lsl #20
    9924:	00009a04 	andeq	r9, r0, r4, lsl #20
    9928:	00009a04 	andeq	r9, r0, r4, lsl #20
    992c:	00009a04 	andeq	r9, r0, r4, lsl #20
    9930:	000099a8 	andeq	r9, r0, r8, lsr #19
    9934:	e59d105c 	ldr	r1, [sp, #92]	; 0x5c
    9938:	e2911000 	adds	r1, r1, #0
    993c:	13a01001 	movne	r1, #1
    9940:	e0111fa3 	ands	r1, r1, r3, lsr #31
    9944:	1263c000 	rsbne	ip, r3, #0
    9948:	13a08001 	movne	r8, #1
    994c:	03a08000 	moveq	r8, #0
    9950:	e1a0100d 	mov	r1, sp
    9954:	e59f70ec 	ldr	r7, [pc, #236]	; 9a48 <emit+0x180>
    9958:	e59f60ec 	ldr	r6, [pc, #236]	; 9a4c <emit+0x184>
    995c:	ea000000 	b	9964 <emit+0x9c>
    9960:	e1a01003 	mov	r1, r3
    9964:	e2813001 	add	r3, r1, #1
    9968:	e08e0c97 	umull	r0, lr, r7, ip
    996c:	e1a0e1ae 	lsr	lr, lr, #3
    9970:	e1a0000e 	mov	r0, lr
    9974:	e08ee10e 	add	lr, lr, lr, lsl #2
    9978:	e1a0e08e 	lsl	lr, lr, #1
    997c:	e06ee00c 	rsb	lr, lr, ip
    9980:	e7d6c00e 	ldrb	ip, [r6, lr]
    9984:	e5c1c000 	strb	ip, [r1]
    9988:	e1a0c000 	mov	ip, r0
    998c:	e3500000 	cmp	r0, #0
    9990:	1afffff2 	bne	9960 <emit+0x98>
    9994:	e3580000 	cmp	r8, #0
    9998:	12813002 	addne	r3, r1, #2
    999c:	13a0002d 	movne	r0, #45	; 0x2d
    99a0:	15c10001 	strbne	r0, [r1, #1]
    99a4:	ea00001d 	b	9a20 <emit+0x158>
    99a8:	e1a0e00d 	mov	lr, sp
    99ac:	e59f009c 	ldr	r0, [pc, #156]	; 9a50 <emit+0x188>
    99b0:	e28e3001 	add	r3, lr, #1
    99b4:	e20c100f 	and	r1, ip, #15
    99b8:	e7d01001 	ldrb	r1, [r0, r1]
    99bc:	e5ce1000 	strb	r1, [lr]
    99c0:	e1a0e003 	mov	lr, r3
    99c4:	e1b0c22c 	lsrs	ip, ip, #4
    99c8:	1afffff8 	bne	99b0 <emit+0xe8>
    99cc:	ea000013 	b	9a20 <emit+0x158>
    99d0:	e5cd3000 	strb	r3, [sp]
    99d4:	e28d3001 	add	r3, sp, #1
    99d8:	ea000010 	b	9a20 <emit+0x158>
    99dc:	e1a0e00d 	mov	lr, sp
    99e0:	e59f006c 	ldr	r0, [pc, #108]	; 9a54 <emit+0x18c>
    99e4:	e28e3001 	add	r3, lr, #1
    99e8:	e20c1001 	and	r1, ip, #1
    99ec:	e7d01001 	ldrb	r1, [r0, r1]
    99f0:	e5ce1000 	strb	r1, [lr]
    99f4:	e1a0e003 	mov	lr, r3
    99f8:	e1b0c0ac 	lsrs	ip, ip, #1
    99fc:	1afffff8 	bne	99e4 <emit+0x11c>
    9a00:	ea000006 	b	9a20 <emit+0x158>
    9a04:	ebffff78 	bl	97ec <rpi_reset_putc>
    9a08:	e59f0048 	ldr	r0, [pc, #72]	; 9a58 <emit+0x190>
    9a0c:	e59f1048 	ldr	r1, [pc, #72]	; 9a5c <emit+0x194>
    9a10:	e59f2048 	ldr	r2, [pc, #72]	; 9a60 <emit+0x198>
    9a14:	e3a03075 	mov	r3, #117	; 0x75
    9a18:	ebffff58 	bl	9780 <printk>
    9a1c:	eb0000c7 	bl	9d40 <clean_reboot>
    9a20:	e1a00003 	mov	r0, r3
    9a24:	e1a0100d 	mov	r1, sp
    9a28:	ebffff8b 	bl	985c <pad>
    9a2c:	e1a02000 	mov	r2, r0
    9a30:	e1a00005 	mov	r0, r5
    9a34:	e1a01004 	mov	r1, r4
    9a38:	e1a0300d 	mov	r3, sp
    9a3c:	ebffff91 	bl	9888 <reverse>
    9a40:	e28dd040 	add	sp, sp, #64	; 0x40
    9a44:	e8bd81f0 	pop	{r4, r5, r6, r7, r8, pc}
    9a48:	cccccccd 	stclgt	12, cr12, [ip], {205}	; 0xcd
    9a4c:	0000bc14 	andeq	fp, r0, r4, lsl ip
    9a50:	0000bc20 	andeq	fp, r0, r0, lsr #24
    9a54:	0000bc34 	andeq	fp, r0, r4, lsr ip
    9a58:	0000bbec 	andeq	fp, r0, ip, ror #23
    9a5c:	0000bc00 	andeq	fp, r0, r0, lsl #24
    9a60:	0000bbc8 	andeq	fp, r0, r8, asr #23

00009a64 <rpi_set_output>:
    9a64:	e92d4008 	push	{r3, lr}
    9a68:	e3500000 	cmp	r0, #0
    9a6c:	1a000006 	bne	9a8c <rpi_set_output+0x28>
    9a70:	ebffff5d 	bl	97ec <rpi_reset_putc>
    9a74:	e59f0028 	ldr	r0, [pc, #40]	; 9aa4 <rpi_set_output+0x40>
    9a78:	e59f1028 	ldr	r1, [pc, #40]	; 9aa8 <rpi_set_output+0x44>
    9a7c:	e59f2028 	ldr	r2, [pc, #40]	; 9aac <rpi_set_output+0x48>
    9a80:	e3a03020 	mov	r3, #32
    9a84:	ebffff3d 	bl	9780 <printk>
    9a88:	eb0000ac 	bl	9d40 <clean_reboot>
    9a8c:	e59f301c 	ldr	r3, [pc, #28]	; 9ab0 <rpi_set_output+0x4c>
    9a90:	e5830000 	str	r0, [r3]
    9a94:	e3510000 	cmp	r1, #0
    9a98:	159f3014 	ldrne	r3, [pc, #20]	; 9ab4 <rpi_set_output+0x50>
    9a9c:	15831000 	strne	r1, [r3]
    9aa0:	e8bd8008 	pop	{r3, pc}
    9aa4:	0000bc38 	andeq	fp, r0, r8, lsr ip
    9aa8:	0000bc00 	andeq	fp, r0, r0, lsl #24
    9aac:	0000bbd0 	ldrdeq	fp, [r0], -r0
    9ab0:	0000aec4 	andeq	sl, r0, r4, asr #29
    9ab4:	0000aec8 	andeq	sl, r0, r8, asr #29

00009ab8 <va_printk>:
    9ab8:	e92d4ff0 	push	{r4, r5, r6, r7, r8, r9, sl, fp, lr}
    9abc:	e24dd08c 	sub	sp, sp, #140	; 0x8c
    9ac0:	e1a0a000 	mov	sl, r0
    9ac4:	e1a09003 	mov	r9, r3
    9ac8:	e2411001 	sub	r1, r1, #1
    9acc:	e0808001 	add	r8, r0, r1
    9ad0:	e3a03000 	mov	r3, #0
    9ad4:	e5c03000 	strb	r3, [r0]
    9ad8:	e1a04000 	mov	r4, r0
    9adc:	e1a0b003 	mov	fp, r3
    9ae0:	ea000086 	b	9d00 <va_printk+0x248>
    9ae4:	e3530025 	cmp	r3, #37	; 0x25
    9ae8:	12822001 	addne	r2, r2, #1
    9aec:	15c43000 	strbne	r3, [r4]
    9af0:	12844001 	addne	r4, r4, #1
    9af4:	1a000081 	bne	9d00 <va_printk+0x248>
    9af8:	e5d21001 	ldrb	r1, [r2, #1]
    9afc:	e3510025 	cmp	r1, #37	; 0x25
    9b00:	05c43000 	strbeq	r3, [r4]
    9b04:	02822002 	addeq	r2, r2, #2
    9b08:	02844001 	addeq	r4, r4, #1
    9b0c:	0a00007b 	beq	9d00 <va_printk+0x248>
    9b10:	e2826001 	add	r6, r2, #1
    9b14:	e1a0700b 	mov	r7, fp
    9b18:	ea000004 	b	9b30 <va_printk+0x78>
    9b1c:	e0877107 	add	r7, r7, r7, lsl #2
    9b20:	e1a07087 	lsl	r7, r7, #1
    9b24:	e0877005 	add	r7, r7, r5
    9b28:	e2477030 	sub	r7, r7, #48	; 0x30
    9b2c:	e2866001 	add	r6, r6, #1
    9b30:	e5d65000 	ldrb	r5, [r6]
    9b34:	e1a00005 	mov	r0, r5
    9b38:	ebffff42 	bl	9848 <isdigit>
    9b3c:	e3500000 	cmp	r0, #0
    9b40:	1afffff5 	bne	9b1c <va_printk+0x64>
    9b44:	e357001f 	cmp	r7, #31
    9b48:	9a000006 	bls	9b68 <va_printk+0xb0>
    9b4c:	ebffff26 	bl	97ec <rpi_reset_putc>
    9b50:	e59f01d4 	ldr	r0, [pc, #468]	; 9d2c <va_printk+0x274>
    9b54:	e59f11d4 	ldr	r1, [pc, #468]	; 9d30 <va_printk+0x278>
    9b58:	e59f21d4 	ldr	r2, [pc, #468]	; 9d34 <va_printk+0x27c>
    9b5c:	e3a03092 	mov	r3, #146	; 0x92
    9b60:	ebffff06 	bl	9780 <printk>
    9b64:	eb000075 	bl	9d40 <clean_reboot>
    9b68:	e2455062 	sub	r5, r5, #98	; 0x62
    9b6c:	e3550016 	cmp	r5, #22
    9b70:	979ff105 	ldrls	pc, [pc, r5, lsl #2]
    9b74:	ea00004e 	b	9cb4 <va_printk+0x1fc>
    9b78:	00009c60 	andeq	r9, r0, r0, ror #24
    9b7c:	00009c90 	muleq	r0, r0, ip
    9b80:	00009bf0 	strdeq	r9, [r0], -r0
    9b84:	00009cb4 			; <UNDEFINED> instruction: 0x00009cb4
    9b88:	00009bd4 	ldrdeq	r9, [r0], -r4
    9b8c:	00009cb4 			; <UNDEFINED> instruction: 0x00009cb4
    9b90:	00009cb4 			; <UNDEFINED> instruction: 0x00009cb4
    9b94:	00009cb4 			; <UNDEFINED> instruction: 0x00009cb4
    9b98:	00009cb4 			; <UNDEFINED> instruction: 0x00009cb4
    9b9c:	00009cb4 			; <UNDEFINED> instruction: 0x00009cb4
    9ba0:	00009cb4 			; <UNDEFINED> instruction: 0x00009cb4
    9ba4:	00009cb4 			; <UNDEFINED> instruction: 0x00009cb4
    9ba8:	00009cb4 			; <UNDEFINED> instruction: 0x00009cb4
    9bac:	00009cb4 			; <UNDEFINED> instruction: 0x00009cb4
    9bb0:	00009c3c 	andeq	r9, r0, ip, lsr ip
    9bb4:	00009cb4 			; <UNDEFINED> instruction: 0x00009cb4
    9bb8:	00009cb4 			; <UNDEFINED> instruction: 0x00009cb4
    9bbc:	00009c84 	andeq	r9, r0, r4, lsl #25
    9bc0:	00009cb4 			; <UNDEFINED> instruction: 0x00009cb4
    9bc4:	00009c18 	andeq	r9, r0, r8, lsl ip
    9bc8:	00009cb4 			; <UNDEFINED> instruction: 0x00009cb4
    9bcc:	00009cb4 			; <UNDEFINED> instruction: 0x00009cb4
    9bd0:	00009c3c 	andeq	r9, r0, ip, lsr ip
    9bd4:	ebffff04 	bl	97ec <rpi_reset_putc>
    9bd8:	e59f0158 	ldr	r0, [pc, #344]	; 9d38 <va_printk+0x280>
    9bdc:	e59f114c 	ldr	r1, [pc, #332]	; 9d30 <va_printk+0x278>
    9be0:	e59f214c 	ldr	r2, [pc, #332]	; 9d34 <va_printk+0x27c>
    9be4:	e3a03098 	mov	r3, #152	; 0x98
    9be8:	ebfffee4 	bl	9780 <printk>
    9bec:	eb000053 	bl	9d40 <clean_reboot>
    9bf0:	e5993000 	ldr	r3, [r9]
    9bf4:	e2899004 	add	r9, r9, #4
    9bf8:	e58d7000 	str	r7, [sp]
    9bfc:	e3a02001 	mov	r2, #1
    9c00:	e58d2004 	str	r2, [sp, #4]
    9c04:	e3a0000a 	mov	r0, #10
    9c08:	e28d1008 	add	r1, sp, #8
    9c0c:	e3a02080 	mov	r2, #128	; 0x80
    9c10:	ebffff2c 	bl	98c8 <emit>
    9c14:	ea00002f 	b	9cd8 <va_printk+0x220>
    9c18:	e5993000 	ldr	r3, [r9]
    9c1c:	e2899004 	add	r9, r9, #4
    9c20:	e58d7000 	str	r7, [sp]
    9c24:	e58db004 	str	fp, [sp, #4]
    9c28:	e3a0000a 	mov	r0, #10
    9c2c:	e28d1008 	add	r1, sp, #8
    9c30:	e3a02080 	mov	r2, #128	; 0x80
    9c34:	ebffff23 	bl	98c8 <emit>
    9c38:	ea000026 	b	9cd8 <va_printk+0x220>
    9c3c:	e5993000 	ldr	r3, [r9]
    9c40:	e2899004 	add	r9, r9, #4
    9c44:	e58d7000 	str	r7, [sp]
    9c48:	e58db004 	str	fp, [sp, #4]
    9c4c:	e3a00010 	mov	r0, #16
    9c50:	e28d1008 	add	r1, sp, #8
    9c54:	e3a02080 	mov	r2, #128	; 0x80
    9c58:	ebffff1a 	bl	98c8 <emit>
    9c5c:	ea00001d 	b	9cd8 <va_printk+0x220>
    9c60:	e5993000 	ldr	r3, [r9]
    9c64:	e2899004 	add	r9, r9, #4
    9c68:	e58d7000 	str	r7, [sp]
    9c6c:	e58db004 	str	fp, [sp, #4]
    9c70:	e3a00002 	mov	r0, #2
    9c74:	e28d1008 	add	r1, sp, #8
    9c78:	e3a02080 	mov	r2, #128	; 0x80
    9c7c:	ebffff11 	bl	98c8 <emit>
    9c80:	ea000014 	b	9cd8 <va_printk+0x220>
    9c84:	e5990000 	ldr	r0, [r9]
    9c88:	e2899004 	add	r9, r9, #4
    9c8c:	ea000011 	b	9cd8 <va_printk+0x220>
    9c90:	e5993000 	ldr	r3, [r9]
    9c94:	e2899004 	add	r9, r9, #4
    9c98:	e58d7000 	str	r7, [sp]
    9c9c:	e58db004 	str	fp, [sp, #4]
    9ca0:	e3a00008 	mov	r0, #8
    9ca4:	e08d1000 	add	r1, sp, r0
    9ca8:	e3a02080 	mov	r2, #128	; 0x80
    9cac:	ebffff05 	bl	98c8 <emit>
    9cb0:	ea000008 	b	9cd8 <va_printk+0x220>
    9cb4:	ebfffecc 	bl	97ec <rpi_reset_putc>
    9cb8:	e5d63000 	ldrb	r3, [r6]
    9cbc:	e58d3000 	str	r3, [sp]
    9cc0:	e59f0074 	ldr	r0, [pc, #116]	; 9d3c <va_printk+0x284>
    9cc4:	e59f1064 	ldr	r1, [pc, #100]	; 9d30 <va_printk+0x278>
    9cc8:	e59f2064 	ldr	r2, [pc, #100]	; 9d34 <va_printk+0x27c>
    9ccc:	e3a030b9 	mov	r3, #185	; 0xb9
    9cd0:	ebfffeaa 	bl	9780 <printk>
    9cd4:	eb000019 	bl	9d40 <clean_reboot>
    9cd8:	e2862001 	add	r2, r6, #1
    9cdc:	ea000002 	b	9cec <va_printk+0x234>
    9ce0:	e2800001 	add	r0, r0, #1
    9ce4:	e5c43000 	strb	r3, [r4]
    9ce8:	e2844001 	add	r4, r4, #1
    9cec:	e1540008 	cmp	r4, r8
    9cf0:	2a000002 	bcs	9d00 <va_printk+0x248>
    9cf4:	e5d03000 	ldrb	r3, [r0]
    9cf8:	e3530000 	cmp	r3, #0
    9cfc:	1afffff7 	bne	9ce0 <va_printk+0x228>
    9d00:	e5d23000 	ldrb	r3, [r2]
    9d04:	e3530000 	cmp	r3, #0
    9d08:	0a000001 	beq	9d14 <va_printk+0x25c>
    9d0c:	e1540008 	cmp	r4, r8
    9d10:	3affff73 	bcc	9ae4 <va_printk+0x2c>
    9d14:	e2840001 	add	r0, r4, #1
    9d18:	e3a03000 	mov	r3, #0
    9d1c:	e5c43000 	strb	r3, [r4]
    9d20:	e06a0000 	rsb	r0, sl, r0
    9d24:	e28dd08c 	add	sp, sp, #140	; 0x8c
    9d28:	e8bd8ff0 	pop	{r4, r5, r6, r7, r8, r9, sl, fp, pc}
    9d2c:	0000bc50 	andeq	fp, r0, r0, asr ip
    9d30:	0000bc00 	andeq	fp, r0, r0, lsl #24
    9d34:	0000bbe0 	andeq	fp, r0, r0, ror #23
    9d38:	0000bc6c 	andeq	fp, r0, ip, ror #24
    9d3c:	0000bc94 	muleq	r0, r4, ip

00009d40 <clean_reboot>:
    9d40:	e92d4008 	push	{r3, lr}
    9d44:	e59f3014 	ldr	r3, [pc, #20]	; 9d60 <clean_reboot+0x20>
    9d48:	e5933000 	ldr	r3, [r3]
    9d4c:	e59f0010 	ldr	r0, [pc, #16]	; 9d64 <clean_reboot+0x24>
    9d50:	e12fff33 	blx	r3
    9d54:	e3a00064 	mov	r0, #100	; 0x64
    9d58:	eb000063 	bl	9eec <delay_ms>
    9d5c:	eb000038 	bl	9e44 <rpi_reboot>
    9d60:	0000aec8 	andeq	sl, r0, r8, asr #29
    9d64:	0000bccc 	andeq	fp, r0, ip, asr #25

00009d68 <internal_sw_putchar>:
    9d68:	e92d4010 	push	{r4, lr}
    9d6c:	e1a04000 	mov	r4, r0
    9d70:	e59f000c 	ldr	r0, [pc, #12]	; 9d84 <internal_sw_putchar+0x1c>
    9d74:	e6ef1074 	uxtb	r1, r4
    9d78:	eb000065 	bl	9f14 <sw_uart_putc>
    9d7c:	e1a00004 	mov	r0, r4
    9d80:	e8bd8010 	pop	{r4, pc}
    9d84:	0000c378 	andeq	ip, r0, r8, ror r3

00009d88 <_cstart>:
    9d88:	e92d4008 	push	{r3, lr}
    9d8c:	e59f3068 	ldr	r3, [pc, #104]	; 9dfc <_cstart+0x74>
    9d90:	e59f2068 	ldr	r2, [pc, #104]	; 9e00 <_cstart+0x78>
    9d94:	e3a01000 	mov	r1, #0
    9d98:	ea000001 	b	9da4 <_cstart+0x1c>
    9d9c:	e5831000 	str	r1, [r3]
    9da0:	e2833004 	add	r3, r3, #4
    9da4:	e1530002 	cmp	r3, r2
    9da8:	3afffffb 	bcc	9d9c <_cstart+0x14>
    9dac:	eb000418 	bl	ae14 <cb_get_block>
    9db0:	e3500000 	cmp	r0, #0
    9db4:	0a00000e 	beq	9df4 <_cstart+0x6c>
    9db8:	e5d02004 	ldrb	r2, [r0, #4]
    9dbc:	e3520002 	cmp	r2, #2
    9dc0:	1a00000b 	bne	9df4 <_cstart+0x6c>
    9dc4:	e59f1038 	ldr	r1, [pc, #56]	; 9e04 <_cstart+0x7c>
    9dc8:	e59f2038 	ldr	r2, [pc, #56]	; 9e08 <_cstart+0x80>
    9dcc:	e5821000 	str	r1, [r2]
    9dd0:	e59fc034 	ldr	ip, [pc, #52]	; 9e0c <_cstart+0x84>
    9dd4:	e2803008 	add	r3, r0, #8
    9dd8:	e8930007 	ldm	r3, {r0, r1, r2}
    9ddc:	e88c0007 	stm	ip, {r0, r1, r2}
    9de0:	e1a0000c 	mov	r0, ip
    9de4:	e59f1024 	ldr	r1, [pc, #36]	; 9e10 <_cstart+0x88>
    9de8:	eb00019d 	bl	a464 <sw_uart_printk>
    9dec:	e59f0020 	ldr	r0, [pc, #32]	; 9e14 <_cstart+0x8c>
    9df0:	ebfffe62 	bl	9780 <printk>
    9df4:	ebfffab7 	bl	88d8 <notmain>
    9df8:	eb000011 	bl	9e44 <rpi_reboot>
    9dfc:	0000bf74 	andeq	fp, r0, r4, ror pc
    9e00:	0000c388 	andeq	ip, r0, r8, lsl #7
    9e04:	00009d68 	andeq	r9, r0, r8, ror #26
    9e08:	0000aec4 	andeq	sl, r0, r4, asr #29
    9e0c:	0000c378 	andeq	ip, r0, r8, ror r3
    9e10:	0000bcd8 	ldrdeq	fp, [r0], -r8
    9e14:	0000bcfc 	strdeq	fp, [r0], -ip

00009e18 <at_user_level>:
    9e18:	e10f0000 	mrs	r0, CPSR
    9e1c:	e200001f 	and	r0, r0, #31
    9e20:	e3500010 	cmp	r0, #16
    9e24:	13a00000 	movne	r0, #0
    9e28:	03a00001 	moveq	r0, #1
    9e2c:	e12fff1e 	bx	lr

00009e30 <set_user_level>:
    9e30:	e10f3000 	mrs	r3, CPSR
    9e34:	e3c3301f 	bic	r3, r3, #31
    9e38:	e3833010 	orr	r3, r3, #16
    9e3c:	e129f003 	msr	CPSR_fc, r3
    9e40:	e12fff1e 	bx	lr

00009e44 <rpi_reboot>:
    9e44:	e92d4008 	push	{r3, lr}
    9e48:	ebfffff2 	bl	9e18 <at_user_level>
    9e4c:	e3500000 	cmp	r0, #0
    9e50:	0a000000 	beq	9e58 <rpi_reboot+0x14>
    9e54:	ebfffff5 	bl	9e30 <set_user_level>
    9e58:	e3a0001e 	mov	r0, #30
    9e5c:	eb000022 	bl	9eec <delay_ms>
    9e60:	e59f0014 	ldr	r0, [pc, #20]	; 9e7c <rpi_reboot+0x38>
    9e64:	e59f1014 	ldr	r1, [pc, #20]	; 9e80 <rpi_reboot+0x3c>
    9e68:	eb000239 	bl	a754 <PUT32>
    9e6c:	e59f0010 	ldr	r0, [pc, #16]	; 9e84 <rpi_reboot+0x40>
    9e70:	e59f1010 	ldr	r1, [pc, #16]	; 9e88 <rpi_reboot+0x44>
    9e74:	eb000236 	bl	a754 <PUT32>
    9e78:	eafffffe 	b	9e78 <rpi_reboot+0x34>
    9e7c:	20100024 	andscs	r0, r0, r4, lsr #32
    9e80:	5a000001 	bpl	9e8c <delay_cycles>
    9e84:	2010001c 	andscs	r0, r0, ip, lsl r0
    9e88:	5a000020 	bpl	9f10 <delay_sec+0x10>

00009e8c <delay_cycles>:
    9e8c:	ea000001 	b	9e98 <delay_cycles+0xc>
    9e90:	e2811000 	add	r1, r1, #0
    9e94:	e1a00003 	mov	r0, r3
    9e98:	e2403001 	sub	r3, r0, #1
    9e9c:	e3500000 	cmp	r0, #0
    9ea0:	1afffffa 	bne	9e90 <delay_cycles+0x4>
    9ea4:	e12fff1e 	bx	lr

00009ea8 <timer_get_usec_raw>:
    9ea8:	e92d4008 	push	{r3, lr}
    9eac:	e59f0004 	ldr	r0, [pc, #4]	; 9eb8 <timer_get_usec_raw+0x10>
    9eb0:	eb000233 	bl	a784 <GET32>
    9eb4:	e8bd8008 	pop	{r3, pc}
    9eb8:	20003004 	andcs	r3, r0, r4

00009ebc <timer_get_usec>:
    9ebc:	e92d4008 	push	{r3, lr}
    9ec0:	ebfffff8 	bl	9ea8 <timer_get_usec_raw>
    9ec4:	e8bd8008 	pop	{r3, pc}

00009ec8 <delay_us>:
    9ec8:	e92d4038 	push	{r3, r4, r5, lr}
    9ecc:	e1a05000 	mov	r5, r0
    9ed0:	ebfffff9 	bl	9ebc <timer_get_usec>
    9ed4:	e1a04000 	mov	r4, r0
    9ed8:	ebfffff7 	bl	9ebc <timer_get_usec>
    9edc:	e0640000 	rsb	r0, r4, r0
    9ee0:	e1500005 	cmp	r0, r5
    9ee4:	3afffffb 	bcc	9ed8 <delay_us+0x10>
    9ee8:	e8bd8038 	pop	{r3, r4, r5, pc}

00009eec <delay_ms>:
    9eec:	e92d4008 	push	{r3, lr}
    9ef0:	e3a03ffa 	mov	r3, #1000	; 0x3e8
    9ef4:	e0000093 	mul	r0, r3, r0
    9ef8:	ebfffff2 	bl	9ec8 <delay_us>
    9efc:	e8bd8008 	pop	{r3, pc}

00009f00 <delay_sec>:
    9f00:	e92d4008 	push	{r3, lr}
    9f04:	e3a03ffa 	mov	r3, #1000	; 0x3e8
    9f08:	e0000093 	mul	r0, r3, r0
    9f0c:	ebfffff6 	bl	9eec <delay_ms>
    9f10:	e8bd8008 	pop	{r3, pc}

00009f14 <sw_uart_putc>:
    9f14:	e92d41f0 	push	{r4, r5, r6, r7, r8, lr}
    9f18:	e1a07001 	mov	r7, r1
    9f1c:	e5d06000 	ldrb	r6, [r0]
    9f20:	e5905008 	ldr	r5, [r0, #8]
    9f24:	ee1f4f3c 	mrc	15, 0, r4, cr15, cr12, {1}
    9f28:	e1a00006 	mov	r0, r6
    9f2c:	e3a01000 	mov	r1, #0
    9f30:	eb0002ea 	bl	aae0 <gpio_write>
    9f34:	ee1f3f3c 	mrc	15, 0, r3, cr15, cr12, {1}
    9f38:	e0643003 	rsb	r3, r4, r3
    9f3c:	e1550003 	cmp	r5, r3
    9f40:	8afffffb 	bhi	9f34 <sw_uart_putc+0x20>
    9f44:	e1a08085 	lsl	r8, r5, #1
    9f48:	e1a00006 	mov	r0, r6
    9f4c:	e2071001 	and	r1, r7, #1
    9f50:	eb0002e2 	bl	aae0 <gpio_write>
    9f54:	ee1f3f3c 	mrc	15, 0, r3, cr15, cr12, {1}
    9f58:	e0643003 	rsb	r3, r4, r3
    9f5c:	e1580003 	cmp	r8, r3
    9f60:	8afffffb 	bhi	9f54 <sw_uart_putc+0x40>
    9f64:	e0888005 	add	r8, r8, r5
    9f68:	e1a00006 	mov	r0, r6
    9f6c:	e2071002 	and	r1, r7, #2
    9f70:	eb0002da 	bl	aae0 <gpio_write>
    9f74:	ee1f3f3c 	mrc	15, 0, r3, cr15, cr12, {1}
    9f78:	e0643003 	rsb	r3, r4, r3
    9f7c:	e1580003 	cmp	r8, r3
    9f80:	8afffffb 	bhi	9f74 <sw_uart_putc+0x60>
    9f84:	e0888005 	add	r8, r8, r5
    9f88:	e1a00006 	mov	r0, r6
    9f8c:	e2071004 	and	r1, r7, #4
    9f90:	eb0002d2 	bl	aae0 <gpio_write>
    9f94:	ee1f3f3c 	mrc	15, 0, r3, cr15, cr12, {1}
    9f98:	e0643003 	rsb	r3, r4, r3
    9f9c:	e1580003 	cmp	r8, r3
    9fa0:	8afffffb 	bhi	9f94 <sw_uart_putc+0x80>
    9fa4:	e0888005 	add	r8, r8, r5
    9fa8:	e1a00006 	mov	r0, r6
    9fac:	e2071008 	and	r1, r7, #8
    9fb0:	eb0002ca 	bl	aae0 <gpio_write>
    9fb4:	ee1f3f3c 	mrc	15, 0, r3, cr15, cr12, {1}
    9fb8:	e0643003 	rsb	r3, r4, r3
    9fbc:	e1580003 	cmp	r8, r3
    9fc0:	8afffffb 	bhi	9fb4 <sw_uart_putc+0xa0>
    9fc4:	e0888005 	add	r8, r8, r5
    9fc8:	e1a00006 	mov	r0, r6
    9fcc:	e2071010 	and	r1, r7, #16
    9fd0:	eb0002c2 	bl	aae0 <gpio_write>
    9fd4:	ee1f3f3c 	mrc	15, 0, r3, cr15, cr12, {1}
    9fd8:	e0643003 	rsb	r3, r4, r3
    9fdc:	e1580003 	cmp	r8, r3
    9fe0:	8afffffb 	bhi	9fd4 <sw_uart_putc+0xc0>
    9fe4:	e0888005 	add	r8, r8, r5
    9fe8:	e1a00006 	mov	r0, r6
    9fec:	e2071020 	and	r1, r7, #32
    9ff0:	eb0002ba 	bl	aae0 <gpio_write>
    9ff4:	ee1f3f3c 	mrc	15, 0, r3, cr15, cr12, {1}
    9ff8:	e0643003 	rsb	r3, r4, r3
    9ffc:	e1580003 	cmp	r8, r3
    a000:	8afffffb 	bhi	9ff4 <sw_uart_putc+0xe0>
    a004:	e0888005 	add	r8, r8, r5
    a008:	e1a00006 	mov	r0, r6
    a00c:	e2071040 	and	r1, r7, #64	; 0x40
    a010:	eb0002b2 	bl	aae0 <gpio_write>
    a014:	ee1f3f3c 	mrc	15, 0, r3, cr15, cr12, {1}
    a018:	e0643003 	rsb	r3, r4, r3
    a01c:	e1580003 	cmp	r8, r3
    a020:	8afffffb 	bhi	a014 <sw_uart_putc+0x100>
    a024:	e0888005 	add	r8, r8, r5
    a028:	e1a00006 	mov	r0, r6
    a02c:	e2071080 	and	r1, r7, #128	; 0x80
    a030:	eb0002aa 	bl	aae0 <gpio_write>
    a034:	ee1f3f3c 	mrc	15, 0, r3, cr15, cr12, {1}
    a038:	e0643003 	rsb	r3, r4, r3
    a03c:	e1580003 	cmp	r8, r3
    a040:	8afffffb 	bhi	a034 <sw_uart_putc+0x120>
    a044:	e0885005 	add	r5, r8, r5
    a048:	e1a00006 	mov	r0, r6
    a04c:	e3a01001 	mov	r1, #1
    a050:	eb0002a2 	bl	aae0 <gpio_write>
    a054:	ee1f3f3c 	mrc	15, 0, r3, cr15, cr12, {1}
    a058:	e0643003 	rsb	r3, r4, r3
    a05c:	e1550003 	cmp	r5, r3
    a060:	8afffffb 	bhi	a054 <sw_uart_putc+0x140>
    a064:	e8bd81f0 	pop	{r4, r5, r6, r7, r8, pc}

0000a068 <sw_uart_getc_timeout>:
    a068:	e92d43f8 	push	{r3, r4, r5, r6, r7, r8, r9, lr}
    a06c:	e1a09000 	mov	r9, r0
    a070:	e5d07001 	ldrb	r7, [r0, #1]
    a074:	e1a05007 	mov	r5, r7
    a078:	e1a06001 	mov	r6, r1
    a07c:	ebffff89 	bl	9ea8 <timer_get_usec_raw>
    a080:	e1a04000 	mov	r4, r0
    a084:	e1a00005 	mov	r0, r5
    a088:	eb000281 	bl	aa94 <gpio_read>
    a08c:	e3500000 	cmp	r0, #0
    a090:	0a000005 	beq	a0ac <sw_uart_getc_timeout+0x44>
    a094:	ebffff83 	bl	9ea8 <timer_get_usec_raw>
    a098:	e0640000 	rsb	r0, r4, r0
    a09c:	e1560000 	cmp	r6, r0
    a0a0:	2afffff7 	bcs	a084 <sw_uart_getc_timeout+0x1c>
    a0a4:	e3a03000 	mov	r3, #0
    a0a8:	ea000000 	b	a0b0 <sw_uart_getc_timeout+0x48>
    a0ac:	e3a03001 	mov	r3, #1
    a0b0:	e3530000 	cmp	r3, #0
    a0b4:	0a000059 	beq	a220 <sw_uart_getc_timeout+0x1b8>
    a0b8:	ee1f8f3c 	mrc	15, 0, r8, cr15, cr12, {1}
    a0bc:	e5994008 	ldr	r4, [r9, #8]
    a0c0:	e08420a4 	add	r2, r4, r4, lsr #1
    a0c4:	ee1f3f3c 	mrc	15, 0, r3, cr15, cr12, {1}
    a0c8:	e0683003 	rsb	r3, r8, r3
    a0cc:	e1520003 	cmp	r2, r3
    a0d0:	8afffffb 	bhi	a0c4 <sw_uart_getc_timeout+0x5c>
    a0d4:	e0888004 	add	r8, r8, r4
    a0d8:	e1a00007 	mov	r0, r7
    a0dc:	eb00026c 	bl	aa94 <gpio_read>
    a0e0:	e1a09750 	asr	r9, r0, r7
    a0e4:	ee1f3f3c 	mrc	15, 0, r3, cr15, cr12, {1}
    a0e8:	e0683003 	rsb	r3, r8, r3
    a0ec:	e1540003 	cmp	r4, r3
    a0f0:	8afffffb 	bhi	a0e4 <sw_uart_getc_timeout+0x7c>
    a0f4:	e0888004 	add	r8, r8, r4
    a0f8:	e1a00007 	mov	r0, r7
    a0fc:	eb000264 	bl	aa94 <gpio_read>
    a100:	e1a00750 	asr	r0, r0, r7
    a104:	e1899080 	orr	r9, r9, r0, lsl #1
    a108:	ee1f3f3c 	mrc	15, 0, r3, cr15, cr12, {1}
    a10c:	e0683003 	rsb	r3, r8, r3
    a110:	e1540003 	cmp	r4, r3
    a114:	8afffffb 	bhi	a108 <sw_uart_getc_timeout+0xa0>
    a118:	e0888004 	add	r8, r8, r4
    a11c:	e1a00007 	mov	r0, r7
    a120:	eb00025b 	bl	aa94 <gpio_read>
    a124:	e1a00750 	asr	r0, r0, r7
    a128:	e1899100 	orr	r9, r9, r0, lsl #2
    a12c:	ee1f3f3c 	mrc	15, 0, r3, cr15, cr12, {1}
    a130:	e0683003 	rsb	r3, r8, r3
    a134:	e1540003 	cmp	r4, r3
    a138:	8afffffb 	bhi	a12c <sw_uart_getc_timeout+0xc4>
    a13c:	e0888004 	add	r8, r8, r4
    a140:	e1a00007 	mov	r0, r7
    a144:	eb000252 	bl	aa94 <gpio_read>
    a148:	e1a00750 	asr	r0, r0, r7
    a14c:	e1899180 	orr	r9, r9, r0, lsl #3
    a150:	ee1f3f3c 	mrc	15, 0, r3, cr15, cr12, {1}
    a154:	e0683003 	rsb	r3, r8, r3
    a158:	e1540003 	cmp	r4, r3
    a15c:	8afffffb 	bhi	a150 <sw_uart_getc_timeout+0xe8>
    a160:	e0888004 	add	r8, r8, r4
    a164:	e1a00007 	mov	r0, r7
    a168:	eb000249 	bl	aa94 <gpio_read>
    a16c:	e1a00750 	asr	r0, r0, r7
    a170:	e1899200 	orr	r9, r9, r0, lsl #4
    a174:	ee1f3f3c 	mrc	15, 0, r3, cr15, cr12, {1}
    a178:	e0683003 	rsb	r3, r8, r3
    a17c:	e1540003 	cmp	r4, r3
    a180:	8afffffb 	bhi	a174 <sw_uart_getc_timeout+0x10c>
    a184:	e0888004 	add	r8, r8, r4
    a188:	e1a00007 	mov	r0, r7
    a18c:	eb000240 	bl	aa94 <gpio_read>
    a190:	e1a00750 	asr	r0, r0, r7
    a194:	e1899280 	orr	r9, r9, r0, lsl #5
    a198:	ee1f3f3c 	mrc	15, 0, r3, cr15, cr12, {1}
    a19c:	e0683003 	rsb	r3, r8, r3
    a1a0:	e1540003 	cmp	r4, r3
    a1a4:	8afffffb 	bhi	a198 <sw_uart_getc_timeout+0x130>
    a1a8:	e0888004 	add	r8, r8, r4
    a1ac:	e1a00007 	mov	r0, r7
    a1b0:	eb000237 	bl	aa94 <gpio_read>
    a1b4:	e1a00750 	asr	r0, r0, r7
    a1b8:	e1899300 	orr	r9, r9, r0, lsl #6
    a1bc:	ee1f3f3c 	mrc	15, 0, r3, cr15, cr12, {1}
    a1c0:	e0683003 	rsb	r3, r8, r3
    a1c4:	e1540003 	cmp	r4, r3
    a1c8:	8afffffb 	bhi	a1bc <sw_uart_getc_timeout+0x154>
    a1cc:	e1a00007 	mov	r0, r7
    a1d0:	eb00022f 	bl	aa94 <gpio_read>
    a1d4:	e1a00750 	asr	r0, r0, r7
    a1d8:	e1899380 	orr	r9, r9, r0, lsl #7
    a1dc:	ebffff31 	bl	9ea8 <timer_get_usec_raw>
    a1e0:	e1a04000 	mov	r4, r0
    a1e4:	e1a00005 	mov	r0, r5
    a1e8:	eb000229 	bl	aa94 <gpio_read>
    a1ec:	e3500000 	cmp	r0, #0
    a1f0:	0a000005 	beq	a20c <sw_uart_getc_timeout+0x1a4>
    a1f4:	ebffff2b 	bl	9ea8 <timer_get_usec_raw>
    a1f8:	e0640000 	rsb	r0, r4, r0
    a1fc:	e1560000 	cmp	r6, r0
    a200:	2afffff7 	bcs	a1e4 <sw_uart_getc_timeout+0x17c>
    a204:	e3a03000 	mov	r3, #0
    a208:	ea000000 	b	a210 <sw_uart_getc_timeout+0x1a8>
    a20c:	e3a03001 	mov	r3, #1
    a210:	e3530000 	cmp	r3, #0
    a214:	0a000003 	beq	a228 <sw_uart_getc_timeout+0x1c0>
    a218:	e1a00009 	mov	r0, r9
    a21c:	e8bd83f8 	pop	{r3, r4, r5, r6, r7, r8, r9, pc}
    a220:	e3e00000 	mvn	r0, #0
    a224:	e8bd83f8 	pop	{r3, r4, r5, r6, r7, r8, r9, pc}
    a228:	e3e00000 	mvn	r0, #0
    a22c:	e8bd83f8 	pop	{r3, r4, r5, r6, r7, r8, r9, pc}

0000a230 <sw_uart_gets_until>:
    a230:	e92d47f0 	push	{r4, r5, r6, r7, r8, r9, sl, lr}
    a234:	e1a08000 	mov	r8, r0
    a238:	e1a06001 	mov	r6, r1
    a23c:	e1a09003 	mov	r9, r3
    a240:	e59da020 	ldr	sl, [sp, #32]
    a244:	e3520000 	cmp	r2, #0
    a248:	1a000006 	bne	a268 <sw_uart_gets_until+0x38>
    a24c:	ebfffd66 	bl	97ec <rpi_reset_putc>
    a250:	e59f005c 	ldr	r0, [pc, #92]	; a2b4 <sw_uart_gets_until+0x84>
    a254:	e59f105c 	ldr	r1, [pc, #92]	; a2b8 <sw_uart_gets_until+0x88>
    a258:	e59f205c 	ldr	r2, [pc, #92]	; a2bc <sw_uart_gets_until+0x8c>
    a25c:	e3a0306d 	mov	r3, #109	; 0x6d
    a260:	ebfffd46 	bl	9780 <printk>
    a264:	ebfffeb5 	bl	9d40 <clean_reboot>
    a268:	e3a04000 	mov	r4, #0
    a26c:	e5c14000 	strb	r4, [r1]
    a270:	e2427001 	sub	r7, r2, #1
    a274:	ea000007 	b	a298 <sw_uart_gets_until+0x68>
    a278:	e1a00008 	mov	r0, r8
    a27c:	e1a0100a 	mov	r1, sl
    a280:	ebffff78 	bl	a068 <sw_uart_getc_timeout>
    a284:	e6ef0070 	uxtb	r0, r0
    a288:	e1500009 	cmp	r0, r9
    a28c:	0a000004 	beq	a2a4 <sw_uart_gets_until+0x74>
    a290:	e7c60005 	strb	r0, [r6, r5]
    a294:	e2844001 	add	r4, r4, #1
    a298:	e1a05004 	mov	r5, r4
    a29c:	e1540007 	cmp	r4, r7
    a2a0:	3afffff4 	bcc	a278 <sw_uart_gets_until+0x48>
    a2a4:	e3a03000 	mov	r3, #0
    a2a8:	e7c63005 	strb	r3, [r6, r5]
    a2ac:	e1a00004 	mov	r0, r4
    a2b0:	e8bd87f0 	pop	{r4, r5, r6, r7, r8, r9, sl, pc}
    a2b4:	0000bd80 	andeq	fp, r0, r0, lsl #27
    a2b8:	0000bd9c 	muleq	r0, ip, sp
    a2bc:	0000bd08 	andeq	fp, r0, r8, lsl #26

0000a2c0 <sw_uart_gets_timeout>:
    a2c0:	e92d41f0 	push	{r4, r5, r6, r7, r8, lr}
    a2c4:	e1a07000 	mov	r7, r0
    a2c8:	e1a05001 	mov	r5, r1
    a2cc:	e1a08003 	mov	r8, r3
    a2d0:	e3520000 	cmp	r2, #0
    a2d4:	1a000006 	bne	a2f4 <sw_uart_gets_timeout+0x34>
    a2d8:	ebfffd43 	bl	97ec <rpi_reset_putc>
    a2dc:	e59f004c 	ldr	r0, [pc, #76]	; a330 <sw_uart_gets_timeout+0x70>
    a2e0:	e59f104c 	ldr	r1, [pc, #76]	; a334 <sw_uart_gets_timeout+0x74>
    a2e4:	e59f204c 	ldr	r2, [pc, #76]	; a338 <sw_uart_gets_timeout+0x78>
    a2e8:	e3a03083 	mov	r3, #131	; 0x83
    a2ec:	ebfffd23 	bl	9780 <printk>
    a2f0:	ebfffe92 	bl	9d40 <clean_reboot>
    a2f4:	e3a04000 	mov	r4, #0
    a2f8:	e5c14000 	strb	r4, [r1]
    a2fc:	e2426001 	sub	r6, r2, #1
    a300:	ea000004 	b	a318 <sw_uart_gets_timeout+0x58>
    a304:	e1a00007 	mov	r0, r7
    a308:	e1a01008 	mov	r1, r8
    a30c:	ebffff55 	bl	a068 <sw_uart_getc_timeout>
    a310:	e7c50004 	strb	r0, [r5, r4]
    a314:	e2844001 	add	r4, r4, #1
    a318:	e1540006 	cmp	r4, r6
    a31c:	3afffff8 	bcc	a304 <sw_uart_gets_timeout+0x44>
    a320:	e3a03000 	mov	r3, #0
    a324:	e7c53004 	strb	r3, [r5, r4]
    a328:	e1a00004 	mov	r0, r4
    a32c:	e8bd81f0 	pop	{r4, r5, r6, r7, r8, pc}
    a330:	0000bd80 	andeq	fp, r0, r0, lsl #27
    a334:	0000bd9c 	muleq	r0, ip, sp
    a338:	0000bd1c 	andeq	fp, r0, ip, lsl sp

0000a33c <sw_uart_init_helper>:
    a33c:	e92d41f0 	push	{r4, r5, r6, r7, r8, lr}
    a340:	e1a04000 	mov	r4, r0
    a344:	e1a06001 	mov	r6, r1
    a348:	e1a08002 	mov	r8, r2
    a34c:	e1a05003 	mov	r5, r3
    a350:	e59d7018 	ldr	r7, [sp, #24]
    a354:	e1a00001 	mov	r0, r1
    a358:	eb000149 	bl	a884 <gpio_set_output>
    a35c:	e1a00008 	mov	r0, r8
    a360:	eb000198 	bl	a9c8 <gpio_set_input>
    a364:	e3a03001 	mov	r3, #1
    a368:	ee0f3f1c 	mcr	15, 0, r3, cr15, cr12, {0}
    a36c:	e1a00006 	mov	r0, r6
    a370:	e3a01001 	mov	r1, #1
    a374:	eb0001d9 	bl	aae0 <gpio_write>
    a378:	e0020795 	mul	r2, r5, r7
    a37c:	e59f3068 	ldr	r3, [pc, #104]	; a3ec <sw_uart_init_helper+0xb0>
    a380:	e0653003 	rsb	r3, r5, r3
    a384:	e1530002 	cmp	r3, r2
    a388:	8a000005 	bhi	a3a4 <sw_uart_init_helper+0x68>
    a38c:	e59f3058 	ldr	r3, [pc, #88]	; a3ec <sw_uart_init_helper+0xb0>
    a390:	e0853003 	add	r3, r5, r3
    a394:	e1530002 	cmp	r3, r2
    a398:	2a000003 	bcs	a3ac <sw_uart_init_helper+0x70>
    a39c:	e3a03000 	mov	r3, #0
    a3a0:	ea000002 	b	a3b0 <sw_uart_init_helper+0x74>
    a3a4:	e3a03000 	mov	r3, #0
    a3a8:	ea000000 	b	a3b0 <sw_uart_init_helper+0x74>
    a3ac:	e3a03001 	mov	r3, #1
    a3b0:	e3530000 	cmp	r3, #0
    a3b4:	1a000006 	bne	a3d4 <sw_uart_init_helper+0x98>
    a3b8:	ebfffd0b 	bl	97ec <rpi_reset_putc>
    a3bc:	e59f002c 	ldr	r0, [pc, #44]	; a3f0 <sw_uart_init_helper+0xb4>
    a3c0:	e59f102c 	ldr	r1, [pc, #44]	; a3f4 <sw_uart_init_helper+0xb8>
    a3c4:	e59f202c 	ldr	r2, [pc, #44]	; a3f8 <sw_uart_init_helper+0xbc>
    a3c8:	e3a0309d 	mov	r3, #157	; 0x9d
    a3cc:	ebfffceb 	bl	9780 <printk>
    a3d0:	ebfffe5a 	bl	9d40 <clean_reboot>
    a3d4:	e5c46000 	strb	r6, [r4]
    a3d8:	e5c48001 	strb	r8, [r4, #1]
    a3dc:	e5845004 	str	r5, [r4, #4]
    a3e0:	e5847008 	str	r7, [r4, #8]
    a3e4:	e1a00004 	mov	r0, r4
    a3e8:	e8bd81f0 	pop	{r4, r5, r6, r7, r8, pc}
    a3ec:	29b92700 	ldmibcs	r9!, {r8, r9, sl, sp}
    a3f0:	0000bdb0 			; <UNDEFINED> instruction: 0x0000bdb0
    a3f4:	0000bd9c 	muleq	r0, ip, sp
    a3f8:	0000bd34 	andeq	fp, r0, r4, lsr sp

0000a3fc <sw_uart_getc>:
    a3fc:	e92d4008 	push	{r3, lr}
    a400:	e3e01000 	mvn	r1, #0
    a404:	ebffff17 	bl	a068 <sw_uart_getc_timeout>
    a408:	e3500000 	cmp	r0, #0
    a40c:	a8bd8008 	popge	{r3, pc}
    a410:	ebfffcf5 	bl	97ec <rpi_reset_putc>
    a414:	e59f0010 	ldr	r0, [pc, #16]	; a42c <sw_uart_getc+0x30>
    a418:	e59f1010 	ldr	r1, [pc, #16]	; a430 <sw_uart_getc+0x34>
    a41c:	e59f2010 	ldr	r2, [pc, #16]	; a434 <sw_uart_getc+0x38>
    a420:	e3a030ac 	mov	r3, #172	; 0xac
    a424:	ebfffcd5 	bl	9780 <printk>
    a428:	ebfffe44 	bl	9d40 <clean_reboot>
    a42c:	0000bdf4 	strdeq	fp, [r0], -r4
    a430:	0000bd9c 	muleq	r0, ip, sp
    a434:	0000bd48 	andeq	fp, r0, r8, asr #26

0000a438 <sw_uart_putk>:
    a438:	e92d4038 	push	{r3, r4, r5, lr}
    a43c:	e1a05000 	mov	r5, r0
    a440:	e1a04001 	mov	r4, r1
    a444:	ea000002 	b	a454 <sw_uart_putk+0x1c>
    a448:	e1a00005 	mov	r0, r5
    a44c:	ebfffeb0 	bl	9f14 <sw_uart_putc>
    a450:	e2844001 	add	r4, r4, #1
    a454:	e5d41000 	ldrb	r1, [r4]
    a458:	e3510000 	cmp	r1, #0
    a45c:	1afffff9 	bne	a448 <sw_uart_putk+0x10>
    a460:	e8bd8038 	pop	{r3, r4, r5, pc}

0000a464 <sw_uart_printk>:
    a464:	e92d000e 	push	{r1, r2, r3}
    a468:	e92d4030 	push	{r4, r5, lr}
    a46c:	e24dde1d 	sub	sp, sp, #464	; 0x1d0
    a470:	e1a05000 	mov	r5, r0
    a474:	e28d3e1e 	add	r3, sp, #480	; 0x1e0
    a478:	e58d3000 	str	r3, [sp]
    a47c:	e28d0004 	add	r0, sp, #4
    a480:	e3a01f73 	mov	r1, #460	; 0x1cc
    a484:	e59d21dc 	ldr	r2, [sp, #476]	; 0x1dc
    a488:	ebfffd8a 	bl	9ab8 <va_printk>
    a48c:	e1a04000 	mov	r4, r0
    a490:	e59f3040 	ldr	r3, [pc, #64]	; a4d8 <sw_uart_printk+0x74>
    a494:	e1500003 	cmp	r0, r3
    a498:	9a000006 	bls	a4b8 <sw_uart_printk+0x54>
    a49c:	ebfffcd2 	bl	97ec <rpi_reset_putc>
    a4a0:	e59f0034 	ldr	r0, [pc, #52]	; a4dc <sw_uart_printk+0x78>
    a4a4:	e59f1034 	ldr	r1, [pc, #52]	; a4e0 <sw_uart_printk+0x7c>
    a4a8:	e59f2034 	ldr	r2, [pc, #52]	; a4e4 <sw_uart_printk+0x80>
    a4ac:	e3a030c0 	mov	r3, #192	; 0xc0
    a4b0:	ebfffcb2 	bl	9780 <printk>
    a4b4:	ebfffe21 	bl	9d40 <clean_reboot>
    a4b8:	e1a00005 	mov	r0, r5
    a4bc:	e28d1004 	add	r1, sp, #4
    a4c0:	ebffffdc 	bl	a438 <sw_uart_putk>
    a4c4:	e1a00004 	mov	r0, r4
    a4c8:	e28dde1d 	add	sp, sp, #464	; 0x1d0
    a4cc:	e8bd4030 	pop	{r4, r5, lr}
    a4d0:	e28dd00c 	add	sp, sp, #12
    a4d4:	e12fff1e 	bx	lr
    a4d8:	000001ca 	andeq	r0, r0, sl, asr #3
    a4dc:	0000be2c 	andeq	fp, r0, ip, lsr #28
    a4e0:	0000bd9c 	muleq	r0, ip, sp
    a4e4:	0000bd58 	andeq	fp, r0, r8, asr sp

0000a4e8 <sw_uart_gets_until_blk>:
    a4e8:	e52de004 	push	{lr}		; (str lr, [sp, #-4]!)
    a4ec:	e24dd00c 	sub	sp, sp, #12
    a4f0:	e3e0c000 	mvn	ip, #0
    a4f4:	e58dc000 	str	ip, [sp]
    a4f8:	ebffff4c 	bl	a230 <sw_uart_gets_until>
    a4fc:	e3500000 	cmp	r0, #0
    a500:	aa000006 	bge	a520 <sw_uart_gets_until_blk+0x38>
    a504:	ebfffcb8 	bl	97ec <rpi_reset_putc>
    a508:	e59f0018 	ldr	r0, [pc, #24]	; a528 <sw_uart_gets_until_blk+0x40>
    a50c:	e59f1018 	ldr	r1, [pc, #24]	; a52c <sw_uart_gets_until_blk+0x44>
    a510:	e59f2018 	ldr	r2, [pc, #24]	; a530 <sw_uart_gets_until_blk+0x48>
    a514:	e3a030c8 	mov	r3, #200	; 0xc8
    a518:	ebfffc98 	bl	9780 <printk>
    a51c:	ebfffe07 	bl	9d40 <clean_reboot>
    a520:	e28dd00c 	add	sp, sp, #12
    a524:	e49df004 	pop	{pc}		; (ldr pc, [sp], #4)
    a528:	0000bdf4 	strdeq	fp, [r0], -r4
    a52c:	0000bd9c 	muleq	r0, ip, sp
    a530:	0000bd68 	andeq	fp, r0, r8, ror #26

0000a534 <uart_init>:
    a534:	e92d4038 	push	{r3, r4, r5, lr}
    a538:	eb00007d 	bl	a734 <dev_barrier>
    a53c:	e3a0000e 	mov	r0, #14
    a540:	e3a01002 	mov	r1, #2
    a544:	eb00016e 	bl	ab04 <gpio_set_function>
    a548:	e3a0000f 	mov	r0, #15
    a54c:	e3a01002 	mov	r1, #2
    a550:	eb00016b 	bl	ab04 <gpio_set_function>
    a554:	eb000076 	bl	a734 <dev_barrier>
    a558:	e59f4068 	ldr	r4, [pc, #104]	; a5c8 <uart_init+0x94>
    a55c:	e5945000 	ldr	r5, [r4]
    a560:	e1a00005 	mov	r0, r5
    a564:	eb000084 	bl	a77c <get32>
    a568:	e3801001 	orr	r1, r0, #1
    a56c:	e1a00005 	mov	r0, r5
    a570:	eb000075 	bl	a74c <put32>
    a574:	eb00006e 	bl	a734 <dev_barrier>
    a578:	e5940004 	ldr	r0, [r4, #4]
    a57c:	e3a01000 	mov	r1, #0
    a580:	eb000071 	bl	a74c <put32>
    a584:	e5940008 	ldr	r0, [r4, #8]
    a588:	e3a01000 	mov	r1, #0
    a58c:	eb00006e 	bl	a74c <put32>
    a590:	e594000c 	ldr	r0, [r4, #12]
    a594:	e3a01006 	mov	r1, #6
    a598:	eb00006b 	bl	a74c <put32>
    a59c:	e5940010 	ldr	r0, [r4, #16]
    a5a0:	e3a01003 	mov	r1, #3
    a5a4:	eb000068 	bl	a74c <put32>
    a5a8:	e5940014 	ldr	r0, [r4, #20]
    a5ac:	e59f1018 	ldr	r1, [pc, #24]	; a5cc <uart_init+0x98>
    a5b0:	eb000065 	bl	a74c <put32>
    a5b4:	e5940004 	ldr	r0, [r4, #4]
    a5b8:	e3a01003 	mov	r1, #3
    a5bc:	eb000062 	bl	a74c <put32>
    a5c0:	eb00005b 	bl	a734 <dev_barrier>
    a5c4:	e8bd8038 	pop	{r3, r4, r5, pc}
    a5c8:	0000aecc 	andeq	sl, r0, ip, asr #29
    a5cc:	0000010e 	andeq	r0, r0, lr, lsl #2

0000a5d0 <uart_can_getc>:
    a5d0:	e92d4008 	push	{r3, lr}
    a5d4:	e59f300c 	ldr	r3, [pc, #12]	; a5e8 <uart_can_getc+0x18>
    a5d8:	e5930018 	ldr	r0, [r3, #24]
    a5dc:	eb000066 	bl	a77c <get32>
    a5e0:	e2000001 	and	r0, r0, #1
    a5e4:	e8bd8008 	pop	{r3, pc}
    a5e8:	0000aecc 	andeq	sl, r0, ip, asr #29

0000a5ec <uart_getc>:
    a5ec:	e92d4008 	push	{r3, lr}
    a5f0:	ebfffff6 	bl	a5d0 <uart_can_getc>
    a5f4:	e3500000 	cmp	r0, #0
    a5f8:	0afffffc 	beq	a5f0 <uart_getc+0x4>
    a5fc:	e59f300c 	ldr	r3, [pc, #12]	; a610 <uart_getc+0x24>
    a600:	e593001c 	ldr	r0, [r3, #28]
    a604:	eb00005c 	bl	a77c <get32>
    a608:	e6ef0070 	uxtb	r0, r0
    a60c:	e8bd8008 	pop	{r3, pc}
    a610:	0000aecc 	andeq	sl, r0, ip, asr #29

0000a614 <uart_can_putc>:
    a614:	e92d4008 	push	{r3, lr}
    a618:	e59f300c 	ldr	r3, [pc, #12]	; a62c <uart_can_putc+0x18>
    a61c:	e5930018 	ldr	r0, [r3, #24]
    a620:	eb000055 	bl	a77c <get32>
    a624:	e2000020 	and	r0, r0, #32
    a628:	e8bd8008 	pop	{r3, pc}
    a62c:	0000aecc 	andeq	sl, r0, ip, asr #29

0000a630 <uart_putc>:
    a630:	e92d4010 	push	{r4, lr}
    a634:	e1a04000 	mov	r4, r0
    a638:	ebfffff5 	bl	a614 <uart_can_putc>
    a63c:	e3500000 	cmp	r0, #0
    a640:	0afffffc 	beq	a638 <uart_putc+0x8>
    a644:	e59f300c 	ldr	r3, [pc, #12]	; a658 <uart_putc+0x28>
    a648:	e593001c 	ldr	r0, [r3, #28]
    a64c:	e1a01004 	mov	r1, r4
    a650:	eb00003d 	bl	a74c <put32>
    a654:	e8bd8010 	pop	{r4, pc}
    a658:	0000aecc 	andeq	sl, r0, ip, asr #29

0000a65c <uart_has_data>:
    a65c:	e92d4008 	push	{r3, lr}
    a660:	ebffffda 	bl	a5d0 <uart_can_getc>
    a664:	e8bd8008 	pop	{r3, pc}

0000a668 <uart_getc_async>:
    a668:	e92d4008 	push	{r3, lr}
    a66c:	ebfffffa 	bl	a65c <uart_has_data>
    a670:	e3500000 	cmp	r0, #0
    a674:	0a000001 	beq	a680 <uart_getc_async+0x18>
    a678:	ebffffdb 	bl	a5ec <uart_getc>
    a67c:	e8bd8008 	pop	{r3, pc}
    a680:	e3e00000 	mvn	r0, #0
    a684:	e8bd8008 	pop	{r3, pc}

0000a688 <int_init>:
    a688:	e92d4008 	push	{r3, lr}
    a68c:	e59f004c 	ldr	r0, [pc, #76]	; a6e0 <int_init+0x58>
    a690:	e3e01000 	mvn	r1, #0
    a694:	eb00002e 	bl	a754 <PUT32>
    a698:	e59f0044 	ldr	r0, [pc, #68]	; a6e4 <int_init+0x5c>
    a69c:	e3e01000 	mvn	r1, #0
    a6a0:	eb00002b 	bl	a754 <PUT32>
    a6a4:	eb000022 	bl	a734 <dev_barrier>
    a6a8:	e59f3038 	ldr	r3, [pc, #56]	; a6e8 <int_init+0x60>
    a6ac:	e59f0038 	ldr	r0, [pc, #56]	; a6ec <int_init+0x64>
    a6b0:	e0630000 	rsb	r0, r3, r0
    a6b4:	e1a00140 	asr	r0, r0, #2
    a6b8:	e3a03000 	mov	r3, #0
    a6bc:	e59fc024 	ldr	ip, [pc, #36]	; a6e8 <int_init+0x60>
    a6c0:	ea000003 	b	a6d4 <int_init+0x4c>
    a6c4:	e1a02103 	lsl	r2, r3, #2
    a6c8:	e79c1103 	ldr	r1, [ip, r3, lsl #2]
    a6cc:	e5821000 	str	r1, [r2]
    a6d0:	e2833001 	add	r3, r3, #1
    a6d4:	e1530000 	cmp	r3, r0
    a6d8:	3afffff9 	bcc	a6c4 <int_init+0x3c>
    a6dc:	e8bd8008 	pop	{r3, pc}
    a6e0:	2000b21c 	andcs	fp, r0, ip, lsl r2
    a6e4:	2000b220 	andcs	fp, r0, r0, lsr #4
    a6e8:	0000a7b8 			; <UNDEFINED> instruction: 0x0000a7b8
    a6ec:	0000a808 	andeq	sl, r0, r8, lsl #16

0000a6f0 <fast_interrupt_vector>:
    a6f0:	e52de004 	push	{lr}		; (str lr, [sp, #-4]!)
    a6f4:	e24dd00c 	sub	sp, sp, #12
    a6f8:	e1a04000 	mov	r4, r0
    a6fc:	ebfffc3a 	bl	97ec <rpi_reset_putc>
    a700:	e59f301c 	ldr	r3, [pc, #28]	; a724 <fast_interrupt_vector+0x34>
    a704:	e58d3000 	str	r3, [sp]
    a708:	e58d4004 	str	r4, [sp, #4]
    a70c:	e59f0014 	ldr	r0, [pc, #20]	; a728 <fast_interrupt_vector+0x38>
    a710:	e59f1014 	ldr	r1, [pc, #20]	; a72c <fast_interrupt_vector+0x3c>
    a714:	e59f2014 	ldr	r2, [pc, #20]	; a730 <fast_interrupt_vector+0x40>
    a718:	e3a0302f 	mov	r3, #47	; 0x2f
    a71c:	ebfffc17 	bl	9780 <printk>
    a720:	ebfffd86 	bl	9d40 <clean_reboot>
    a724:	0000bec4 	andeq	fp, r0, r4, asr #29
    a728:	0000be68 	andeq	fp, r0, r8, ror #28
    a72c:	0000bea4 	andeq	fp, r0, r4, lsr #29
    a730:	0000be50 	andeq	fp, r0, r0, asr lr

0000a734 <dev_barrier>:
    a734:	ea000002 	b	a744 <dsb>

0000a738 <dmb>:
    a738:	e3a00000 	mov	r0, #0
    a73c:	ee070fba 	mcr	15, 0, r0, cr7, cr10, {5}
    a740:	e12fff1e 	bx	lr

0000a744 <dsb>:
    a744:	ee070f9a 	mcr	15, 0, r0, cr7, cr10, {4}
    a748:	e12fff1e 	bx	lr

0000a74c <put32>:
    a74c:	e5801000 	str	r1, [r0]
    a750:	e12fff1e 	bx	lr

0000a754 <PUT32>:
    a754:	e5801000 	str	r1, [r0]
    a758:	e12fff1e 	bx	lr

0000a75c <put16>:
    a75c:	e1c010b0 	strh	r1, [r0]
    a760:	e12fff1e 	bx	lr

0000a764 <PUT16>:
    a764:	e1c010b0 	strh	r1, [r0]
    a768:	e12fff1e 	bx	lr

0000a76c <put8>:
    a76c:	e5c01000 	strb	r1, [r0]
    a770:	e12fff1e 	bx	lr

0000a774 <PUT8>:
    a774:	e5c01000 	strb	r1, [r0]
    a778:	e12fff1e 	bx	lr

0000a77c <get32>:
    a77c:	e5900000 	ldr	r0, [r0]
    a780:	e12fff1e 	bx	lr

0000a784 <GET32>:
    a784:	e5900000 	ldr	r0, [r0]
    a788:	e12fff1e 	bx	lr

0000a78c <GETPC>:
    a78c:	e1a0000e 	mov	r0, lr
    a790:	e12fff1e 	bx	lr

0000a794 <dummy>:
    a794:	e12fff1e 	bx	lr

0000a798 <system_enable_interrupts>:
    a798:	e10f0000 	mrs	r0, CPSR
    a79c:	e3c00080 	bic	r0, r0, #128	; 0x80
    a7a0:	e121f000 	msr	CPSR_c, r0
    a7a4:	e12fff1e 	bx	lr

0000a7a8 <system_disable_interrupts>:
    a7a8:	e10f0000 	mrs	r0, CPSR
    a7ac:	e3800080 	orr	r0, r0, #128	; 0x80
    a7b0:	e121f000 	msr	CPSR_c, r0
    a7b4:	e12fff1e 	bx	lr

0000a7b8 <_interrupt_table>:
    a7b8:	e59ff030 	ldr	pc, [pc, #48]	; a7f0 <_reset_asm>
    a7bc:	e59ff030 	ldr	pc, [pc, #48]	; a7f4 <_undefined_instruction_asm>
    a7c0:	e59ff030 	ldr	pc, [pc, #48]	; a7f8 <_software_interrupt_asm>
    a7c4:	e59ff030 	ldr	pc, [pc, #48]	; a7fc <_prefetch_abort_asm>
    a7c8:	e59ff030 	ldr	pc, [pc, #48]	; a800 <_data_abort_asm>
    a7cc:	e59ff01c 	ldr	pc, [pc, #28]	; a7f0 <_reset_asm>
    a7d0:	e59ff02c 	ldr	pc, [pc, #44]	; a804 <_interrupt_asm>

0000a7d4 <fast_interrupt_asm>:
    a7d4:	e24ee004 	sub	lr, lr, #4
    a7d8:	e52de004 	push	{lr}		; (str lr, [sp, #-4]!)
    a7dc:	e92d1fff 	push	{r0, r1, r2, r3, r4, r5, r6, r7, r8, r9, sl, fp, ip}
    a7e0:	e1a0000e 	mov	r0, lr
    a7e4:	ebffffc1 	bl	a6f0 <fast_interrupt_vector>
    a7e8:	e8bd1fff 	pop	{r0, r1, r2, r3, r4, r5, r6, r7, r8, r9, sl, fp, ip}
    a7ec:	e8fd8000 	ldm	sp!, {pc}^

0000a7f0 <_reset_asm>:
    a7f0:	0000a850 	andeq	sl, r0, r0, asr r8

0000a7f4 <_undefined_instruction_asm>:
    a7f4:	0000a858 	andeq	sl, r0, r8, asr r8

0000a7f8 <_software_interrupt_asm>:
    a7f8:	0000a824 	andeq	sl, r0, r4, lsr #16

0000a7fc <_prefetch_abort_asm>:
    a7fc:	0000a860 	andeq	sl, r0, r0, ror #16

0000a800 <_data_abort_asm>:
    a800:	0000a868 	andeq	sl, r0, r8, ror #16

0000a804 <_interrupt_asm>:
    a804:	0000a808 	andeq	sl, r0, r8, lsl #16

0000a808 <_interrupt_table_end>:
    a808:	e3a0d409 	mov	sp, #150994944	; 0x9000000
    a80c:	e24ee004 	sub	lr, lr, #4
    a810:	e92d5fff 	push	{r0, r1, r2, r3, r4, r5, r6, r7, r8, r9, sl, fp, ip, lr}
    a814:	e1a0000e 	mov	r0, lr
    a818:	ebfff738 	bl	8500 <interrupt_vector>
    a81c:	e8bd5fff 	pop	{r0, r1, r2, r3, r4, r5, r6, r7, r8, r9, sl, fp, ip, lr}
    a820:	e1b0f00e 	movs	pc, lr

0000a824 <software_interrupt_asm>:
    a824:	e52de004 	push	{lr}		; (str lr, [sp, #-4]!)
    a828:	e92d1ffe 	push	{r1, r2, r3, r4, r5, r6, r7, r8, r9, sl, fp, ip}
    a82c:	e24ee004 	sub	lr, lr, #4
    a830:	e1a0200e 	mov	r2, lr
    a834:	e1a01000 	mov	r1, r0
    a838:	e1a0000e 	mov	r0, lr
    a83c:	eb000003 	bl	a850 <reset_asm>
    a840:	e8bd1ffe 	pop	{r1, r2, r3, r4, r5, r6, r7, r8, r9, sl, fp, ip}
    a844:	e49de004 	pop	{lr}		; (ldr lr, [sp], #4)
    a848:	e8fd8000 	ldm	sp!, {pc}^
    a84c:	e1b0f00e 	movs	pc, lr

0000a850 <reset_asm>:
    a850:	e24ee004 	sub	lr, lr, #4
    a854:	eb000178 	bl	ae3c <reset_vector>

0000a858 <undefined_instruction_asm>:
    a858:	e24ee004 	sub	lr, lr, #4
    a85c:	eb000187 	bl	ae80 <undefined_instruction_vector>

0000a860 <prefetch_abort_asm>:
    a860:	e24ee004 	sub	lr, lr, #4
    a864:	ebfff6bf 	bl	8368 <prefetch_abort_vector>

0000a868 <data_abort_asm>:
    a868:	e3a0d409 	mov	sp, #150994944	; 0x9000000
    a86c:	e24ee008 	sub	lr, lr, #8
    a870:	e92d5fff 	push	{r0, r1, r2, r3, r4, r5, r6, r7, r8, r9, sl, fp, ip, lr}
    a874:	e1a0000e 	mov	r0, lr
    a878:	ebfff6c6 	bl	8398 <data_abort_vector>
    a87c:	e8bd5fff 	pop	{r0, r1, r2, r3, r4, r5, r6, r7, r8, r9, sl, fp, ip, lr}
    a880:	e1b0f00e 	movs	pc, lr

0000a884 <gpio_set_output>:
    a884:	e92d4038 	push	{r3, r4, r5, lr}
    a888:	e1a04000 	mov	r4, r0
    a88c:	e350001f 	cmp	r0, #31
    a890:	88bd8038 	pophi	{r3, r4, r5, pc}
    a894:	e59f30b4 	ldr	r3, [pc, #180]	; a950 <gpio_set_output+0xcc>
    a898:	e0832093 	umull	r2, r3, r3, r0
    a89c:	e1a031a3 	lsr	r3, r3, #3
    a8a0:	e3530005 	cmp	r3, #5
    a8a4:	979ff103 	ldrls	pc, [pc, r3, lsl #2]
    a8a8:	ea000017 	b	a90c <gpio_set_output+0x88>
    a8ac:	0000a8c4 	andeq	sl, r0, r4, asr #17
    a8b0:	0000a8d0 	ldrdeq	sl, [r0], -r0
    a8b4:	0000a8dc 	ldrdeq	sl, [r0], -ip
    a8b8:	0000a8e8 	andeq	sl, r0, r8, ror #17
    a8bc:	0000a8f4 	strdeq	sl, [r0], -r4
    a8c0:	0000a900 	andeq	sl, r0, r0, lsl #18
    a8c4:	e59f3088 	ldr	r3, [pc, #136]	; a954 <gpio_set_output+0xd0>
    a8c8:	e5935000 	ldr	r5, [r3]
    a8cc:	ea00000f 	b	a910 <gpio_set_output+0x8c>
    a8d0:	e59f307c 	ldr	r3, [pc, #124]	; a954 <gpio_set_output+0xd0>
    a8d4:	e5935004 	ldr	r5, [r3, #4]
    a8d8:	ea00000c 	b	a910 <gpio_set_output+0x8c>
    a8dc:	e59f3070 	ldr	r3, [pc, #112]	; a954 <gpio_set_output+0xd0>
    a8e0:	e5935008 	ldr	r5, [r3, #8]
    a8e4:	ea000009 	b	a910 <gpio_set_output+0x8c>
    a8e8:	e59f3064 	ldr	r3, [pc, #100]	; a954 <gpio_set_output+0xd0>
    a8ec:	e593500c 	ldr	r5, [r3, #12]
    a8f0:	ea000006 	b	a910 <gpio_set_output+0x8c>
    a8f4:	e59f3058 	ldr	r3, [pc, #88]	; a954 <gpio_set_output+0xd0>
    a8f8:	e5935010 	ldr	r5, [r3, #16]
    a8fc:	ea000003 	b	a910 <gpio_set_output+0x8c>
    a900:	e59f304c 	ldr	r3, [pc, #76]	; a954 <gpio_set_output+0xd0>
    a904:	e5935014 	ldr	r5, [r3, #20]
    a908:	ea000000 	b	a910 <gpio_set_output+0x8c>
    a90c:	e3a05000 	mov	r5, #0
    a910:	e1a00005 	mov	r0, r5
    a914:	ebffff98 	bl	a77c <get32>
    a918:	e59f1030 	ldr	r1, [pc, #48]	; a950 <gpio_set_output+0xcc>
    a91c:	e0813491 	umull	r3, r1, r1, r4
    a920:	e1a011a1 	lsr	r1, r1, #3
    a924:	e0811101 	add	r1, r1, r1, lsl #2
    a928:	e1a01081 	lsl	r1, r1, #1
    a92c:	e0611004 	rsb	r1, r1, r4
    a930:	e0811081 	add	r1, r1, r1, lsl #1
    a934:	e3a03007 	mov	r3, #7
    a938:	e1c03113 	bic	r3, r0, r3, lsl r1
    a93c:	e1a00005 	mov	r0, r5
    a940:	e3a02001 	mov	r2, #1
    a944:	e1831112 	orr	r1, r3, r2, lsl r1
    a948:	ebffff7f 	bl	a74c <put32>
    a94c:	e8bd8038 	pop	{r3, r4, r5, pc}
    a950:	cccccccd 	stclgt	12, cr12, [ip], {205}	; 0xcd
    a954:	0000af00 	andeq	sl, r0, r0, lsl #30

0000a958 <gpio_set_on>:
    a958:	e92d4008 	push	{r3, lr}
    a95c:	e350001f 	cmp	r0, #31
    a960:	88bd8008 	pophi	{r3, pc}
    a964:	959f3020 	ldrls	r3, [pc, #32]	; a98c <gpio_set_on+0x34>
    a968:	95932018 	ldrls	r2, [r3, #24]
    a96c:	859f3018 	ldrhi	r3, [pc, #24]	; a98c <gpio_set_on+0x34>
    a970:	8593201c 	ldrhi	r2, [r3, #28]
    a974:	e200301f 	and	r3, r0, #31
    a978:	e1a00002 	mov	r0, r2
    a97c:	e3a01001 	mov	r1, #1
    a980:	e1a01311 	lsl	r1, r1, r3
    a984:	ebffff70 	bl	a74c <put32>
    a988:	e8bd8008 	pop	{r3, pc}
    a98c:	0000af00 	andeq	sl, r0, r0, lsl #30

0000a990 <gpio_set_off>:
    a990:	e92d4008 	push	{r3, lr}
    a994:	e350001f 	cmp	r0, #31
    a998:	88bd8008 	pophi	{r3, pc}
    a99c:	959f3020 	ldrls	r3, [pc, #32]	; a9c4 <gpio_set_off+0x34>
    a9a0:	95932020 	ldrls	r2, [r3, #32]
    a9a4:	859f3018 	ldrhi	r3, [pc, #24]	; a9c4 <gpio_set_off+0x34>
    a9a8:	85932024 	ldrhi	r2, [r3, #36]	; 0x24
    a9ac:	e200301f 	and	r3, r0, #31
    a9b0:	e1a00002 	mov	r0, r2
    a9b4:	e3a01001 	mov	r1, #1
    a9b8:	e1a01311 	lsl	r1, r1, r3
    a9bc:	ebffff62 	bl	a74c <put32>
    a9c0:	e8bd8008 	pop	{r3, pc}
    a9c4:	0000af00 	andeq	sl, r0, r0, lsl #30

0000a9c8 <gpio_set_input>:
    a9c8:	e92d4038 	push	{r3, r4, r5, lr}
    a9cc:	e1a04000 	mov	r4, r0
    a9d0:	e350001f 	cmp	r0, #31
    a9d4:	88bd8038 	pophi	{r3, r4, r5, pc}
    a9d8:	e59f30ac 	ldr	r3, [pc, #172]	; aa8c <gpio_set_input+0xc4>
    a9dc:	e0832093 	umull	r2, r3, r3, r0
    a9e0:	e1a031a3 	lsr	r3, r3, #3
    a9e4:	e3530005 	cmp	r3, #5
    a9e8:	979ff103 	ldrls	pc, [pc, r3, lsl #2]
    a9ec:	ea000017 	b	aa50 <gpio_set_input+0x88>
    a9f0:	0000aa08 	andeq	sl, r0, r8, lsl #20
    a9f4:	0000aa14 	andeq	sl, r0, r4, lsl sl
    a9f8:	0000aa20 	andeq	sl, r0, r0, lsr #20
    a9fc:	0000aa2c 	andeq	sl, r0, ip, lsr #20
    aa00:	0000aa38 	andeq	sl, r0, r8, lsr sl
    aa04:	0000aa44 	andeq	sl, r0, r4, asr #20
    aa08:	e59f3080 	ldr	r3, [pc, #128]	; aa90 <gpio_set_input+0xc8>
    aa0c:	e5935000 	ldr	r5, [r3]
    aa10:	ea00000f 	b	aa54 <gpio_set_input+0x8c>
    aa14:	e59f3074 	ldr	r3, [pc, #116]	; aa90 <gpio_set_input+0xc8>
    aa18:	e5935004 	ldr	r5, [r3, #4]
    aa1c:	ea00000c 	b	aa54 <gpio_set_input+0x8c>
    aa20:	e59f3068 	ldr	r3, [pc, #104]	; aa90 <gpio_set_input+0xc8>
    aa24:	e5935008 	ldr	r5, [r3, #8]
    aa28:	ea000009 	b	aa54 <gpio_set_input+0x8c>
    aa2c:	e59f305c 	ldr	r3, [pc, #92]	; aa90 <gpio_set_input+0xc8>
    aa30:	e593500c 	ldr	r5, [r3, #12]
    aa34:	ea000006 	b	aa54 <gpio_set_input+0x8c>
    aa38:	e59f3050 	ldr	r3, [pc, #80]	; aa90 <gpio_set_input+0xc8>
    aa3c:	e5935010 	ldr	r5, [r3, #16]
    aa40:	ea000003 	b	aa54 <gpio_set_input+0x8c>
    aa44:	e59f3044 	ldr	r3, [pc, #68]	; aa90 <gpio_set_input+0xc8>
    aa48:	e5935014 	ldr	r5, [r3, #20]
    aa4c:	ea000000 	b	aa54 <gpio_set_input+0x8c>
    aa50:	e3a05000 	mov	r5, #0
    aa54:	e1a00005 	mov	r0, r5
    aa58:	ebffff47 	bl	a77c <get32>
    aa5c:	e59f1028 	ldr	r1, [pc, #40]	; aa8c <gpio_set_input+0xc4>
    aa60:	e0813491 	umull	r3, r1, r1, r4
    aa64:	e1a011a1 	lsr	r1, r1, #3
    aa68:	e0811101 	add	r1, r1, r1, lsl #2
    aa6c:	e1a01081 	lsl	r1, r1, #1
    aa70:	e0611004 	rsb	r1, r1, r4
    aa74:	e0811081 	add	r1, r1, r1, lsl #1
    aa78:	e3a03007 	mov	r3, #7
    aa7c:	e1c01113 	bic	r1, r0, r3, lsl r1
    aa80:	e1a00005 	mov	r0, r5
    aa84:	ebffff30 	bl	a74c <put32>
    aa88:	e8bd8038 	pop	{r3, r4, r5, pc}
    aa8c:	cccccccd 	stclgt	12, cr12, [ip], {205}	; 0xcd
    aa90:	0000af00 	andeq	sl, r0, r0, lsl #30

0000aa94 <gpio_read>:
    aa94:	e92d4010 	push	{r4, lr}
    aa98:	e1a04000 	mov	r4, r0
    aa9c:	e350001f 	cmp	r0, #31
    aaa0:	8a00000b 	bhi	aad4 <gpio_read+0x40>
    aaa4:	8a000003 	bhi	aab8 <gpio_read+0x24>
    aaa8:	e59f302c 	ldr	r3, [pc, #44]	; aadc <gpio_read+0x48>
    aaac:	e5930028 	ldr	r0, [r3, #40]	; 0x28
    aab0:	ebffff31 	bl	a77c <get32>
    aab4:	ea000002 	b	aac4 <gpio_read+0x30>
    aab8:	e59f301c 	ldr	r3, [pc, #28]	; aadc <gpio_read+0x48>
    aabc:	e593002c 	ldr	r0, [r3, #44]	; 0x2c
    aac0:	ebffff2d 	bl	a77c <get32>
    aac4:	e204401f 	and	r4, r4, #31
    aac8:	e3a03001 	mov	r3, #1
    aacc:	e0000413 	and	r0, r0, r3, lsl r4
    aad0:	e8bd8010 	pop	{r4, pc}
    aad4:	e3e00000 	mvn	r0, #0
    aad8:	e8bd8010 	pop	{r4, pc}
    aadc:	0000af00 	andeq	sl, r0, r0, lsl #30

0000aae0 <gpio_write>:
    aae0:	e92d4008 	push	{r3, lr}
    aae4:	e350001f 	cmp	r0, #31
    aae8:	88bd8008 	pophi	{r3, pc}
    aaec:	e3510000 	cmp	r1, #0
    aaf0:	0a000001 	beq	aafc <gpio_write+0x1c>
    aaf4:	ebffff97 	bl	a958 <gpio_set_on>
    aaf8:	e8bd8008 	pop	{r3, pc}
    aafc:	ebffffa3 	bl	a990 <gpio_set_off>
    ab00:	e8bd8008 	pop	{r3, pc}

0000ab04 <gpio_set_function>:
    ab04:	e92d4070 	push	{r4, r5, r6, lr}
    ab08:	e1a04000 	mov	r4, r0
    ab0c:	e1a05001 	mov	r5, r1
    ab10:	e3510007 	cmp	r1, #7
    ab14:	9350001f 	cmpls	r0, #31
    ab18:	88bd8070 	pophi	{r4, r5, r6, pc}
    ab1c:	e59f30b0 	ldr	r3, [pc, #176]	; abd4 <gpio_set_function+0xd0>
    ab20:	e0832093 	umull	r2, r3, r3, r0
    ab24:	e1a031a3 	lsr	r3, r3, #3
    ab28:	e3530005 	cmp	r3, #5
    ab2c:	979ff103 	ldrls	pc, [pc, r3, lsl #2]
    ab30:	ea000017 	b	ab94 <gpio_set_function+0x90>
    ab34:	0000ab4c 	andeq	sl, r0, ip, asr #22
    ab38:	0000ab58 	andeq	sl, r0, r8, asr fp
    ab3c:	0000ab64 	andeq	sl, r0, r4, ror #22
    ab40:	0000ab70 	andeq	sl, r0, r0, ror fp
    ab44:	0000ab7c 	andeq	sl, r0, ip, ror fp
    ab48:	0000ab88 	andeq	sl, r0, r8, lsl #23
    ab4c:	e59f3084 	ldr	r3, [pc, #132]	; abd8 <gpio_set_function+0xd4>
    ab50:	e5936000 	ldr	r6, [r3]
    ab54:	ea00000f 	b	ab98 <gpio_set_function+0x94>
    ab58:	e59f3078 	ldr	r3, [pc, #120]	; abd8 <gpio_set_function+0xd4>
    ab5c:	e5936004 	ldr	r6, [r3, #4]
    ab60:	ea00000c 	b	ab98 <gpio_set_function+0x94>
    ab64:	e59f306c 	ldr	r3, [pc, #108]	; abd8 <gpio_set_function+0xd4>
    ab68:	e5936008 	ldr	r6, [r3, #8]
    ab6c:	ea000009 	b	ab98 <gpio_set_function+0x94>
    ab70:	e59f3060 	ldr	r3, [pc, #96]	; abd8 <gpio_set_function+0xd4>
    ab74:	e593600c 	ldr	r6, [r3, #12]
    ab78:	ea000006 	b	ab98 <gpio_set_function+0x94>
    ab7c:	e59f3054 	ldr	r3, [pc, #84]	; abd8 <gpio_set_function+0xd4>
    ab80:	e5936010 	ldr	r6, [r3, #16]
    ab84:	ea000003 	b	ab98 <gpio_set_function+0x94>
    ab88:	e59f3048 	ldr	r3, [pc, #72]	; abd8 <gpio_set_function+0xd4>
    ab8c:	e5936014 	ldr	r6, [r3, #20]
    ab90:	ea000000 	b	ab98 <gpio_set_function+0x94>
    ab94:	e3a06000 	mov	r6, #0
    ab98:	e1a00006 	mov	r0, r6
    ab9c:	ebfffef6 	bl	a77c <get32>
    aba0:	e59f302c 	ldr	r3, [pc, #44]	; abd4 <gpio_set_function+0xd0>
    aba4:	e0832493 	umull	r2, r3, r3, r4
    aba8:	e1a031a3 	lsr	r3, r3, #3
    abac:	e0833103 	add	r3, r3, r3, lsl #2
    abb0:	e1a03083 	lsl	r3, r3, #1
    abb4:	e0633004 	rsb	r3, r3, r4
    abb8:	e0833083 	add	r3, r3, r3, lsl #1
    abbc:	e3a01007 	mov	r1, #7
    abc0:	e1c01311 	bic	r1, r0, r1, lsl r3
    abc4:	e1a00006 	mov	r0, r6
    abc8:	e1811315 	orr	r1, r1, r5, lsl r3
    abcc:	ebfffede 	bl	a74c <put32>
    abd0:	e8bd8070 	pop	{r4, r5, r6, pc}
    abd4:	cccccccd 	stclgt	12, cr12, [ip], {205}	; 0xcd
    abd8:	0000af00 	andeq	sl, r0, r0, lsl #30

0000abdc <is_gpio_int>:
    abdc:	e92d4008 	push	{r3, lr}
    abe0:	e59f301c 	ldr	r3, [pc, #28]	; ac04 <is_gpio_int+0x28>
    abe4:	e5930030 	ldr	r0, [r3, #48]	; 0x30
    abe8:	ebfffee3 	bl	a77c <get32>
    abec:	e3500000 	cmp	r0, #0
    abf0:	0a000001 	beq	abfc <is_gpio_int+0x20>
    abf4:	e3a00001 	mov	r0, #1
    abf8:	e8bd8008 	pop	{r3, pc}
    abfc:	e3a00000 	mov	r0, #0
    ac00:	e8bd8008 	pop	{r3, pc}
    ac04:	0000af00 	andeq	sl, r0, r0, lsl #30

0000ac08 <gpio_int_rising_edge>:
    ac08:	e92d4038 	push	{r3, r4, r5, lr}
    ac0c:	e1a04000 	mov	r4, r0
    ac10:	e350001f 	cmp	r0, #31
    ac14:	88bd8038 	pophi	{r3, r4, r5, pc}
    ac18:	ebfffec5 	bl	a734 <dev_barrier>
    ac1c:	e354001f 	cmp	r4, #31
    ac20:	8a000007 	bhi	ac44 <gpio_int_rising_edge+0x3c>
    ac24:	e59f505c 	ldr	r5, [pc, #92]	; ac88 <gpio_int_rising_edge+0x80>
    ac28:	e5950034 	ldr	r0, [r5, #52]	; 0x34
    ac2c:	ebfffed2 	bl	a77c <get32>
    ac30:	e3a01001 	mov	r1, #1
    ac34:	e1801411 	orr	r1, r0, r1, lsl r4
    ac38:	e5950034 	ldr	r0, [r5, #52]	; 0x34
    ac3c:	ebfffec2 	bl	a74c <put32>
    ac40:	ea000007 	b	ac64 <gpio_int_rising_edge+0x5c>
    ac44:	e59f503c 	ldr	r5, [pc, #60]	; ac88 <gpio_int_rising_edge+0x80>
    ac48:	e5950038 	ldr	r0, [r5, #56]	; 0x38
    ac4c:	ebfffeca 	bl	a77c <get32>
    ac50:	e204401f 	and	r4, r4, #31
    ac54:	e3a01001 	mov	r1, #1
    ac58:	e1801411 	orr	r1, r0, r1, lsl r4
    ac5c:	e5950038 	ldr	r0, [r5, #56]	; 0x38
    ac60:	ebfffeb9 	bl	a74c <put32>
    ac64:	ebfffeb2 	bl	a734 <dev_barrier>
    ac68:	e59f4018 	ldr	r4, [pc, #24]	; ac88 <gpio_int_rising_edge+0x80>
    ac6c:	e594003c 	ldr	r0, [r4, #60]	; 0x3c
    ac70:	ebfffec1 	bl	a77c <get32>
    ac74:	e3801802 	orr	r1, r0, #131072	; 0x20000
    ac78:	e594003c 	ldr	r0, [r4, #60]	; 0x3c
    ac7c:	ebfffeb2 	bl	a74c <put32>
    ac80:	ebfffeab 	bl	a734 <dev_barrier>
    ac84:	e8bd8038 	pop	{r3, r4, r5, pc}
    ac88:	0000af00 	andeq	sl, r0, r0, lsl #30

0000ac8c <gpio_int_falling_edge>:
    ac8c:	e92d4038 	push	{r3, r4, r5, lr}
    ac90:	e1a04000 	mov	r4, r0
    ac94:	e350001f 	cmp	r0, #31
    ac98:	88bd8038 	pophi	{r3, r4, r5, pc}
    ac9c:	ebfffea4 	bl	a734 <dev_barrier>
    aca0:	e354001f 	cmp	r4, #31
    aca4:	8a000007 	bhi	acc8 <gpio_int_falling_edge+0x3c>
    aca8:	e59f505c 	ldr	r5, [pc, #92]	; ad0c <gpio_int_falling_edge+0x80>
    acac:	e5950040 	ldr	r0, [r5, #64]	; 0x40
    acb0:	ebfffeb1 	bl	a77c <get32>
    acb4:	e3a01001 	mov	r1, #1
    acb8:	e1801411 	orr	r1, r0, r1, lsl r4
    acbc:	e5950040 	ldr	r0, [r5, #64]	; 0x40
    acc0:	ebfffea1 	bl	a74c <put32>
    acc4:	ea000007 	b	ace8 <gpio_int_falling_edge+0x5c>
    acc8:	e59f503c 	ldr	r5, [pc, #60]	; ad0c <gpio_int_falling_edge+0x80>
    accc:	e5950044 	ldr	r0, [r5, #68]	; 0x44
    acd0:	ebfffea9 	bl	a77c <get32>
    acd4:	e204401f 	and	r4, r4, #31
    acd8:	e3a01001 	mov	r1, #1
    acdc:	e1801411 	orr	r1, r0, r1, lsl r4
    ace0:	e5950044 	ldr	r0, [r5, #68]	; 0x44
    ace4:	ebfffe98 	bl	a74c <put32>
    ace8:	ebfffe91 	bl	a734 <dev_barrier>
    acec:	e59f4018 	ldr	r4, [pc, #24]	; ad0c <gpio_int_falling_edge+0x80>
    acf0:	e594003c 	ldr	r0, [r4, #60]	; 0x3c
    acf4:	ebfffea0 	bl	a77c <get32>
    acf8:	e3801601 	orr	r1, r0, #1048576	; 0x100000
    acfc:	e594003c 	ldr	r0, [r4, #60]	; 0x3c
    ad00:	ebfffe91 	bl	a74c <put32>
    ad04:	ebfffe8a 	bl	a734 <dev_barrier>
    ad08:	e8bd8038 	pop	{r3, r4, r5, pc}
    ad0c:	0000af00 	andeq	sl, r0, r0, lsl #30

0000ad10 <gpio_event_detected>:
    ad10:	e92d4010 	push	{r4, lr}
    ad14:	e1a04000 	mov	r4, r0
    ad18:	e350001f 	cmp	r0, #31
    ad1c:	8a000019 	bhi	ad88 <gpio_event_detected+0x78>
    ad20:	ebfffe83 	bl	a734 <dev_barrier>
    ad24:	e354001f 	cmp	r4, #31
    ad28:	8a000008 	bhi	ad50 <gpio_event_detected+0x40>
    ad2c:	e59f305c 	ldr	r3, [pc, #92]	; ad90 <gpio_event_detected+0x80>
    ad30:	e5930048 	ldr	r0, [r3, #72]	; 0x48
    ad34:	ebfffe90 	bl	a77c <get32>
    ad38:	e3a03001 	mov	r3, #1
    ad3c:	e0103413 	ands	r3, r0, r3, lsl r4
    ad40:	0a00000d 	beq	ad7c <gpio_event_detected+0x6c>
    ad44:	ebfffe7a 	bl	a734 <dev_barrier>
    ad48:	e3a00001 	mov	r0, #1
    ad4c:	e8bd8010 	pop	{r4, pc}
    ad50:	e59f3038 	ldr	r3, [pc, #56]	; ad90 <gpio_event_detected+0x80>
    ad54:	e593004c 	ldr	r0, [r3, #76]	; 0x4c
    ad58:	ebfffe87 	bl	a77c <get32>
    ad5c:	e3a03001 	mov	r3, #1
    ad60:	e0004413 	and	r4, r0, r3, lsl r4
    ad64:	ebfffe72 	bl	a734 <dev_barrier>
    ad68:	e3540000 	cmp	r4, #0
    ad6c:	0a000002 	beq	ad7c <gpio_event_detected+0x6c>
    ad70:	ebfffe6f 	bl	a734 <dev_barrier>
    ad74:	e3a00001 	mov	r0, #1
    ad78:	e8bd8010 	pop	{r4, pc}
    ad7c:	ebfffe6c 	bl	a734 <dev_barrier>
    ad80:	e3a00000 	mov	r0, #0
    ad84:	e8bd8010 	pop	{r4, pc}
    ad88:	e3e00000 	mvn	r0, #0
    ad8c:	e8bd8010 	pop	{r4, pc}
    ad90:	0000af00 	andeq	sl, r0, r0, lsl #30

0000ad94 <gpio_event_clear>:
    ad94:	e92d4010 	push	{r4, lr}
    ad98:	e1a04000 	mov	r4, r0
    ad9c:	e350001f 	cmp	r0, #31
    ada0:	88bd8010 	pophi	{r4, pc}
    ada4:	ebfffe62 	bl	a734 <dev_barrier>
    ada8:	e354001f 	cmp	r4, #31
    adac:	8a000005 	bhi	adc8 <gpio_event_clear+0x34>
    adb0:	e59f3030 	ldr	r3, [pc, #48]	; ade8 <gpio_event_clear+0x54>
    adb4:	e5930048 	ldr	r0, [r3, #72]	; 0x48
    adb8:	e3a01001 	mov	r1, #1
    adbc:	e1a01411 	lsl	r1, r1, r4
    adc0:	ebfffe61 	bl	a74c <put32>
    adc4:	ea000005 	b	ade0 <gpio_event_clear+0x4c>
    adc8:	e204401f 	and	r4, r4, #31
    adcc:	e59f3014 	ldr	r3, [pc, #20]	; ade8 <gpio_event_clear+0x54>
    add0:	e593004c 	ldr	r0, [r3, #76]	; 0x4c
    add4:	e3a01001 	mov	r1, #1
    add8:	e1a01411 	lsl	r1, r1, r4
    addc:	ebfffe5a 	bl	a74c <put32>
    ade0:	ebfffe53 	bl	a734 <dev_barrier>
    ade4:	e8bd8010 	pop	{r4, pc}
    ade8:	0000af00 	andeq	sl, r0, r0, lsl #30

0000adec <cb_new>:
    adec:	e92d4008 	push	{r3, lr}
    adf0:	e3a00409 	mov	r0, #150994944	; 0x9000000
    adf4:	e3a01000 	mov	r1, #0
    adf8:	e3a02004 	mov	r2, #4
    adfc:	ebfffa57 	bl	9760 <memset>
    ae00:	e3a00409 	mov	r0, #150994944	; 0x9000000
    ae04:	e59f3004 	ldr	r3, [pc, #4]	; ae10 <cb_new+0x24>
    ae08:	e5803000 	str	r3, [r0]
    ae0c:	e8bd8008 	pop	{r3, pc}
    ae10:	12345678 	eorsne	r5, r4, #120, 12	; 0x7800000

0000ae14 <cb_get_block>:
    ae14:	e3a03409 	mov	r3, #150994944	; 0x9000000
    ae18:	e5932000 	ldr	r2, [r3]
    ae1c:	e59f3014 	ldr	r3, [pc, #20]	; ae38 <cb_get_block+0x24>
    ae20:	e1520003 	cmp	r2, r3
    ae24:	0a000001 	beq	ae30 <cb_get_block+0x1c>
    ae28:	e3a00000 	mov	r0, #0
    ae2c:	e12fff1e 	bx	lr
    ae30:	e3a00409 	mov	r0, #150994944	; 0x9000000
    ae34:	e12fff1e 	bx	lr
    ae38:	12345678 	eorsne	r5, r4, #120, 12	; 0x7800000

0000ae3c <reset_vector>:
    ae3c:	e52de004 	push	{lr}		; (str lr, [sp, #-4]!)
    ae40:	e24dd00c 	sub	sp, sp, #12
    ae44:	e1a04000 	mov	r4, r0
    ae48:	ebfffa67 	bl	97ec <rpi_reset_putc>
    ae4c:	e59f301c 	ldr	r3, [pc, #28]	; ae70 <reset_vector+0x34>
    ae50:	e58d3000 	str	r3, [sp]
    ae54:	e58d4004 	str	r4, [sp, #4]
    ae58:	e59f0014 	ldr	r0, [pc, #20]	; ae74 <reset_vector+0x38>
    ae5c:	e59f1014 	ldr	r1, [pc, #20]	; ae78 <reset_vector+0x3c>
    ae60:	e59f2014 	ldr	r2, [pc, #20]	; ae7c <reset_vector+0x40>
    ae64:	e3a03002 	mov	r3, #2
    ae68:	ebfffa44 	bl	9780 <printk>
    ae6c:	ebfffbb3 	bl	9d40 <clean_reboot>
    ae70:	0000bf08 	andeq	fp, r0, r8, lsl #30
    ae74:	0000be68 	andeq	fp, r0, r8, ror #28
    ae78:	0000bedc 	ldrdeq	fp, [r0], -ip
    ae7c:	0000becc 	andeq	fp, r0, ip, asr #29

0000ae80 <undefined_instruction_vector>:
    ae80:	e52de004 	push	{lr}		; (str lr, [sp, #-4]!)
    ae84:	e24dd00c 	sub	sp, sp, #12
    ae88:	e1a04000 	mov	r4, r0
    ae8c:	ebfffa56 	bl	97ec <rpi_reset_putc>
    ae90:	e59f301c 	ldr	r3, [pc, #28]	; aeb4 <undefined_instruction_vector+0x34>
    ae94:	e58d3000 	str	r3, [sp]
    ae98:	e58d4004 	str	r4, [sp, #4]
    ae9c:	e59f0014 	ldr	r0, [pc, #20]	; aeb8 <undefined_instruction_vector+0x38>
    aea0:	e59f1014 	ldr	r1, [pc, #20]	; aebc <undefined_instruction_vector+0x3c>
    aea4:	e59f2014 	ldr	r2, [pc, #20]	; aec0 <undefined_instruction_vector+0x40>
    aea8:	e3a03002 	mov	r3, #2
    aeac:	ebfffa33 	bl	9780 <printk>
    aeb0:	ebfffba2 	bl	9d40 <clean_reboot>
    aeb4:	0000bf64 	andeq	fp, r0, r4, ror #30
    aeb8:	0000be68 	andeq	fp, r0, r8, ror #28
    aebc:	0000bf30 	andeq	fp, r0, r0, lsr pc
    aec0:	0000bf10 	andeq	fp, r0, r0, lsl pc

Disassembly of section .data:

0000aec4 <rpi_putchar>:
    aec4:	000097d8 	ldrdeq	r9, [r0], -r8

0000aec8 <putk>:
    aec8:	00009814 	andeq	r9, r0, r4, lsl r8

0000aecc <AUX_ENABLES>:
    aecc:	20215004 	eorcs	r5, r1, r4

0000aed0 <AUX_MU_CNTL_REG>:
    aed0:	20215060 	eorcs	r5, r1, r0, rrx

0000aed4 <AUX_MU_IER_REG>:
    aed4:	20215044 	eorcs	r5, r1, r4, asr #32

0000aed8 <AUX_MU_IIR_REG>:
    aed8:	20215048 	eorcs	r5, r1, r8, asr #32

0000aedc <AUX_MU_LCR_REG>:
    aedc:	2021504c 	eorcs	r5, r1, ip, asr #32

0000aee0 <AUX_MU_BAUD_REG>:
    aee0:	20215068 	eorcs	r5, r1, r8, rrx

0000aee4 <AUX_MU_LSR_REG>:
    aee4:	20215054 	eorcs	r5, r1, r4, asr r0

0000aee8 <AUX_MU_IO_REG>:
    aee8:	20215040 	eorcs	r5, r1, r0, asr #32

0000aeec <AUX_MU_STAT_REG>:
    aeec:	20215064 	eorcs	r5, r1, r4, rrx

0000aef0 <AUX_MU_SCRATCH>:
    aef0:	2021505c 	eorcs	r5, r1, ip, asr r0

0000aef4 <AUX_MU_MSR_REG>:
    aef4:	20215058 	eorcs	r5, r1, r8, asr r0

0000aef8 <AUX_MU_MCR_REG>:
    aef8:	20215050 	eorcs	r5, r1, r0, asr r0

0000aefc <AUX_IRQ>:
    aefc:	20215000 	eorcs	r5, r1, r0

0000af00 <GPFSEL0>:
    af00:	20200000 	eorcs	r0, r0, r0

0000af04 <GPFSEL1>:
    af04:	20200004 	eorcs	r0, r0, r4

0000af08 <GPFSEL2>:
    af08:	20200008 	eorcs	r0, r0, r8

0000af0c <GPFSEL3>:
    af0c:	2020000c 	eorcs	r0, r0, ip

0000af10 <GPFSEL4>:
    af10:	20200010 	eorcs	r0, r0, r0, lsl r0

0000af14 <GPFSEL5>:
    af14:	20200014 	eorcs	r0, r0, r4, lsl r0

0000af18 <GPSET0>:
    af18:	2020001c 	eorcs	r0, r0, ip, lsl r0

0000af1c <GPSET1>:
    af1c:	20200020 	eorcs	r0, r0, r0, lsr #32

0000af20 <GPCLR0>:
    af20:	20200028 	eorcs	r0, r0, r8, lsr #32

0000af24 <GPCLR1>:
    af24:	2020002c 	eorcs	r0, r0, ip, lsr #32

0000af28 <GPLEV0>:
    af28:	20200034 	eorcs	r0, r0, r4, lsr r0

0000af2c <GPLEV1>:
    af2c:	20200038 	eorcs	r0, r0, r8, lsr r0

0000af30 <IRQ_PENDING_2>:
    af30:	2000b208 	andcs	fp, r0, r8, lsl #4

0000af34 <GPREN0>:
    af34:	2020004c 	eorcs	r0, r0, ip, asr #32

0000af38 <GPREN1>:
    af38:	20200050 	eorcs	r0, r0, r0, asr r0

0000af3c <ENABLE_IRQS_2>:
    af3c:	2000b214 	andcs	fp, r0, r4, lsl r2

0000af40 <GPFEN0>:
    af40:	20200058 	eorcs	r0, r0, r8, asr r0

0000af44 <GPFEN1>:
    af44:	2020005c 	eorcs	r0, r0, ip, asr r0

0000af48 <GPEDS0>:
    af48:	20200040 	eorcs	r0, r0, r0, asr #32

0000af4c <GPEDS1>:
    af4c:	20200044 	eorcs	r0, r0, r4, asr #32

0000af50 <IRQ_PENDING_1>:
    af50:	2000b204 	andcs	fp, r0, r4, lsl #4

0000af54 <gpio_clr0>:
    af54:	20200028 	eorcs	r0, r0, r8, lsr #32

0000af58 <gpio_set0>:
    af58:	2020001c 	eorcs	r0, r0, ip, lsl r0

0000af5c <gpio_fsel0>:
    af5c:	20200000 	eorcs	r0, r0, r0

Disassembly of section .rodata:

0000af60 <__FUNCTION__.4308>:
    af60:	72627474 	rsbvc	r7, r2, #116, 8	; 0x74000000
    af64:	65675f30 	strbvs	r5, [r7, #-3888]!	; 0xf30
    af68:	00000074 	andeq	r0, r0, r4, ror r0

0000af6c <__FUNCTION__.4315>:
    af6c:	72627474 	rsbvc	r7, r2, #116, 8	; 0x74000000
    af70:	65675f31 	strbvs	r5, [r7, #-3889]!	; 0xf31
    af74:	00000074 	andeq	r0, r0, r4, ror r0

0000af78 <__FUNCTION__.4332>:
    af78:	5f756d6d 	svcpl	0x00756d6d
    af7c:	6b6f6f6c 	blvs	1be6d34 <__bss_end__+0x1bda9ac>
    af80:	735f7075 	cmpvc	pc, #117	; 0x75
    af84:	69746365 	ldmdbvs	r4!, {r0, r2, r5, r6, r8, r9, sp, lr}^
    af88:	00006e6f 	andeq	r6, r0, pc, ror #28

0000af8c <__FUNCTION__.4368>:
    af8c:	5f756d6d 	svcpl	0x00756d6d
    af90:	5f70616d 	svcpl	0x0070616d
    af94:	74636573 	strbtvc	r6, [r3], #-1395	; 0x573
    af98:	006e6f69 	rsbeq	r6, lr, r9, ror #30

0000af9c <__FUNCTION__.4378>:
    af9c:	5f756d6d 	svcpl	0x00756d6d
    afa0:	5f70616d 	svcpl	0x0070616d
    afa4:	74636573 	strbtvc	r6, [r3], #-1395	; 0x573
    afa8:	736e6f69 	cmnvc	lr, #420	; 0x1a4
    afac:	00000000 	andeq	r0, r0, r0

0000afb0 <__FUNCTION__.4386>:
    afb0:	5f756d6d 	svcpl	0x00756d6d
    afb4:	74696e69 	strbtvc	r6, [r9], #-3689	; 0xe69
    afb8:	00000000 	andeq	r0, r0, r0

0000afbc <__FUNCTION__.4430>:
    afbc:	66657270 			; <UNDEFINED> instruction: 0x66657270
    afc0:	68637465 	stmdavs	r3!, {r0, r2, r5, r6, sl, ip, sp, lr}^
    afc4:	6f62615f 	svcvs	0x0062615f
    afc8:	765f7472 			; <UNDEFINED> instruction: 0x765f7472
    afcc:	6f746365 	svcvs	0x00746365
    afd0:	00000072 	andeq	r0, r0, r2, ror r0

0000afd4 <__FUNCTION__.4459>:
    afd4:	61746164 	cmnvs	r4, r4, ror #2
    afd8:	6f62615f 	svcvs	0x0062615f
    afdc:	765f7472 			; <UNDEFINED> instruction: 0x765f7472
    afe0:	6f746365 	svcvs	0x00746365
    afe4:	00000072 	andeq	r0, r0, r2, ror r0

0000afe8 <__FUNCTION__.4469>:
    afe8:	65746e69 	ldrbvs	r6, [r4, #-3689]!	; 0xe69
    afec:	70757272 	rsbsvc	r7, r5, r2, ror r2
    aff0:	65765f74 	ldrbvs	r5, [r6, #-3956]!	; 0xf74
    aff4:	726f7463 	rsbvc	r7, pc, #1660944384	; 0x63000000
    aff8:	00000000 	andeq	r0, r0, r0

0000affc <__FUNCTION__.4478>:
    affc:	745f6d76 	ldrbvc	r6, [pc], #-3446	; b004 <__FUNCTION__.4478+0x8>
    b000:	00747365 	rsbseq	r7, r4, r5, ror #6
    b004:	494e4150 	stmdbmi	lr, {r4, r6, r8, lr}^
    b008:	73253a43 	teqvc	r5, #274432	; 0x43000
    b00c:	3a73253a 	bcc	1cd44fc <__bss_end__+0x1cc8174>
    b010:	6e3a6425 	cdpvs	4, 3, cr6, cr10, cr5, {1}
    b014:	203d3d20 	eorscs	r3, sp, r0, lsr #26
    b018:	00000a30 	andeq	r0, r0, r0, lsr sl
    b01c:	616d6f64 	cmnvs	sp, r4, ror #30
    b020:	61206e69 	teqvs	r0, r9, ror #28
    b024:	73656363 	cmnvc	r5, #-1946157055	; 0x8c000001
    b028:	6f632073 	svcvs	0x00632073
    b02c:	6f72746e 	svcvs	0x0072746e
    b030:	000a3a6c 	andeq	r3, sl, ip, ror #20
    b034:	0a622509 	beq	1894460 <__bss_end__+0x18880d8>
    b038:	00000000 	andeq	r0, r0, r0
    b03c:	494e4150 	stmdbmi	lr, {r4, r6, r8, lr}^
    b040:	73253a43 	teqvc	r5, #274432	; 0x43000
    b044:	3a73253a 	bcc	1cd4534 <__bss_end__+0x1cc81ac>
    b048:	693a6425 	ldmdbvs	sl!, {r0, r2, r5, sl, sp, lr}
    b04c:	656c706d 	strbvs	r7, [ip, #-109]!	; 0x6d
    b050:	746e656d 	strbtvc	r6, [lr], #-1389	; 0x56d
    b054:	69687420 	stmdbvs	r8!, {r5, sl, ip, sp, lr}^
    b058:	75662073 	strbvc	r2, [r6, #-115]!	; 0x73
    b05c:	6974636e 	ldmdbvs	r4!, {r1, r2, r3, r5, r6, r8, r9, sp, lr}^
    b060:	0a216e6f 	beq	866a24 <__bss_end__+0x85a69c>
    b064:	0000000a 	andeq	r0, r0, sl
    b068:	494e4150 	stmdbmi	lr, {r4, r6, r8, lr}^
    b06c:	73253a43 	teqvc	r5, #274432	; 0x43000
    b070:	3a73253a 	bcc	1cd4560 <__bss_end__+0x1cc81d8>
    b074:	693a6425 	ldmdbvs	sl!, {r0, r2, r5, sl, sp, lr}
    b078:	6c615f73 	stclvs	15, cr5, [r1], #-460	; 0xfffffe34
    b07c:	656e6769 	strbvs	r6, [lr, #-1897]!	; 0x769
    b080:	61762864 	cmnvs	r6, r4, ror #16
    b084:	3032202c 	eorscc	r2, r2, ip, lsr #32
    b088:	00000a29 	andeq	r0, r0, r9, lsr #20
    b08c:	494e4150 	stmdbmi	lr, {r4, r6, r8, lr}^
    b090:	73253a43 	teqvc	r5, #274432	; 0x43000
    b094:	3a73253a 	bcc	1cd4584 <__bss_end__+0x1cc81fc>
    b098:	693a6425 	ldmdbvs	sl!, {r0, r2, r5, sl, sp, lr}
    b09c:	6c615f73 	stclvs	15, cr5, [r1], #-460	; 0xfffffe34
    b0a0:	656e6769 	strbvs	r6, [lr, #-1897]!	; 0x769
    b0a4:	61702864 	cmnvs	r0, r4, ror #16
    b0a8:	3032202c 	eorscc	r2, r2, ip, lsr #32
    b0ac:	00000a29 	andeq	r0, r0, r9, lsr #20
    b0b0:	702e796d 	eorvc	r7, lr, sp, ror #18
    b0b4:	20406574 	subcs	r6, r0, r4, ror r5
    b0b8:	78257830 	stmdavc	r5!, {r4, r5, fp, ip, sp, lr}
    b0bc:	25203d20 	strcs	r3, [r0, #-3360]!	; 0xd20
    b0c0:	00000a62 	andeq	r0, r0, r2, ror #20
    b0c4:	20455450 	subcs	r5, r5, r0, asr r4
    b0c8:	3a637263 	bcc	18e7a5c <__bss_end__+0x18db6d4>
    b0cc:	00000000 	andeq	r0, r0, r0
    b0d0:	4f525245 	svcmi	0x00525245
    b0d4:	73253a52 	teqvc	r5, #335872	; 0x52000
    b0d8:	3a73253a 	bcc	1cd45c8 <__bss_end__+0x1cc8240>
    b0dc:	203a6425 	eorscs	r6, sl, r5, lsr #8
    b0e0:	534c4146 	movtpl	r4, #49478	; 0xc146
    b0e4:	283c2845 	ldmdacs	ip!, {r0, r2, r6, fp, sp}
    b0e8:	61622828 	cmnvs	r2, r8, lsr #16
    b0ec:	20296573 	eorcs	r6, r9, r3, ror r5
    b0f0:	28282026 	stmdacs	r8!, {r1, r2, r5, sp}
    b0f4:	65707974 	ldrbvs	r7, [r0, #-2420]!	; 0x974
    b0f8:	6228666f 	eorvs	r6, r8, #116391936	; 0x6f00000
    b0fc:	29657361 	stmdbcs	r5!, {r0, r5, r6, r8, r9, ip, sp, lr}^
    b100:	34312829 	ldrtcc	r2, [r1], #-2089	; 0x829
    b104:	202d2029 	eorcs	r2, sp, r9, lsr #32
    b108:	20292931 	eorcs	r2, r9, r1, lsr r9
    b10c:	30203d3d 	eorcc	r3, r0, sp, lsr sp
    b110:	3a293e29 	bcc	a5a9bc <__bss_end__+0xa4e634>
    b114:	73756d20 	cmnvc	r5, #32, 26	; 0x800
    b118:	65622074 	strbvs	r2, [r2, #-116]!	; 0x74
    b11c:	20343120 	eorscs	r3, r4, r0, lsr #2
    b120:	20746962 	rsbscs	r6, r4, r2, ror #18
    b124:	67696c61 	strbvs	r6, [r9, -r1, ror #24]!
    b128:	2164656e 	cmncs	r4, lr, ror #10
    b12c:	0000000a 	andeq	r0, r0, sl
    b130:	494e4150 	stmdbmi	lr, {r4, r6, r8, lr}^
    b134:	73253a43 	teqvc	r5, #274432	; 0x43000
    b138:	3a73253a 	bcc	1cd4628 <__bss_end__+0x1cc82a0>
    b13c:	693a6425 	ldmdbvs	sl!, {r0, r2, r5, sl, sp, lr}
    b140:	6164206e 	cmnvs	r4, lr, rrx
    b144:	70206174 	eorvc	r6, r0, r4, ror r1
    b148:	65666572 	strbvs	r6, [r6, #-1394]!	; 0x572
    b14c:	0a686374 	beq	1a23f24 <__bss_end__+0x1a17b9c>
    b150:	0000000a 	andeq	r0, r0, sl
    b154:	20524146 	subscs	r4, r2, r6, asr #2
    b158:	203a7369 	eorscs	r7, sl, r9, ror #6
    b15c:	000a7825 	andeq	r7, sl, r5, lsr #16
    b160:	494e4150 	stmdbmi	lr, {r4, r6, r8, lr}^
    b164:	73253a43 	teqvc	r5, #274432	; 0x43000
    b168:	3a73253a 	bcc	1cd4658 <__bss_end__+0x1cc82d0>
    b16c:	413a6425 	teqmi	sl, r5, lsr #8
    b170:	6e67696c 	cdpvs	9, 6, cr6, cr7, cr12, {3}
    b174:	746e656d 	strbtvc	r6, [lr], #-1389	; 0x56d
    b178:	75616620 	strbvc	r6, [r1, #-1568]!	; 0x620
    b17c:	0a0a746c 	beq	2a8334 <__bss_end__+0x29bfac>
    b180:	00000000 	andeq	r0, r0, r0
    b184:	494e4150 	stmdbmi	lr, {r4, r6, r8, lr}^
    b188:	73253a43 	teqvc	r5, #274432	; 0x43000
    b18c:	3a73253a 	bcc	1cd467c <__bss_end__+0x1cc82f4>
    b190:	543a6425 	ldrtpl	r6, [sl], #-1061	; 0x425
    b194:	4d20424c 	sfmmi	f4, 4, [r0, #-304]!	; 0xfffffed0
    b198:	20737369 	rsbscs	r7, r3, r9, ror #6
    b19c:	00000a0a 	andeq	r0, r0, sl, lsl #20
    b1a0:	494e4150 	stmdbmi	lr, {r4, r6, r8, lr}^
    b1a4:	73253a43 	teqvc	r5, #274432	; 0x43000
    b1a8:	3a73253a 	bcc	1cd4698 <__bss_end__+0x1cc8310>
    b1ac:	443a6425 	ldrtmi	r6, [sl], #-1061	; 0x425
    b1b0:	41207065 	teqmi	r0, r5, rrx
    b1b4:	6e67696c 	cdpvs	9, 6, cr6, cr7, cr12, {3}
    b1b8:	746e656d 	strbtvc	r6, [lr], #-1389	; 0x56d
    b1bc:	75616620 	strbvc	r6, [r1, #-1568]!	; 0x620
    b1c0:	0a0a746c 	beq	2a8378 <__bss_end__+0x29bff0>
    b1c4:	00000000 	andeq	r0, r0, r0
    b1c8:	6e617254 	mcrvs	2, 3, r7, cr1, cr4, {2}
    b1cc:	74616c73 	strbtvc	r6, [r1], #-3187	; 0xc73
    b1d0:	206e6f69 	rsbcs	r6, lr, r9, ror #30
    b1d4:	6c756166 	ldfvse	f6, [r5], #-408	; 0xfffffe68
    b1d8:	00000a74 	andeq	r0, r0, r4, ror sl
    b1dc:	6d726550 	cfldr64vs	mvdx6, [r2, #-320]!	; 0xfffffec0
    b1e0:	69737369 	ldmdbvs	r3!, {r0, r3, r5, r6, r8, r9, ip, sp, lr}^
    b1e4:	66206e6f 	strtvs	r6, [r0], -pc, ror #28
    b1e8:	746c7561 	strbtvc	r7, [ip], #-1377	; 0x561
    b1ec:	0000000a 	andeq	r0, r0, sl
    b1f0:	494e4150 	stmdbmi	lr, {r4, r6, r8, lr}^
    b1f4:	73253a43 	teqvc	r5, #274432	; 0x43000
    b1f8:	3a73253a 	bcc	1cd46e8 <__bss_end__+0x1cc8360>
    b1fc:	573a6425 	ldrpl	r6, [sl, -r5, lsr #8]!
    b200:	63204654 	teqvs	r0, #84, 12	; 0x5400000
    b204:	20657361 	rsbcs	r7, r5, r1, ror #6
    b208:	74207369 	strtvc	r7, [r0], #-873	; 0x369
    b20c:	21736968 	cmncs	r3, r8, ror #18
    b210:	3f3f213f 	svccc	0x003f213f
    b214:	0000000a 	andeq	r0, r0, sl
    b218:	494e4150 	stmdbmi	lr, {r4, r6, r8, lr}^
    b21c:	73253a43 	teqvc	r5, #274432	; 0x43000
    b220:	3a73253a 	bcc	1cd4710 <__bss_end__+0x1cc8388>
    b224:	693a6425 	ldmdbvs	sl!, {r0, r2, r5, sl, sp, lr}
    b228:	736f706d 	cmnvc	pc, #109	; 0x6d
    b22c:	6c626973 	stclvs	9, cr6, [r2], #-460	; 0xfffffe34
    b230:	000a0a65 	andeq	r0, sl, r5, ror #20
    b234:	2a2a2a2a 	bcs	a95ae4 <__bss_end__+0xa8975c>
    b238:	2a2a2a2a 	bcs	a95ae8 <__bss_end__+0xa89760>
    b23c:	72617020 	rsbvc	r7, r1, #32
    b240:	21312074 	teqcs	r1, r4, ror r0
    b244:	2a2a2a20 	bcs	a95acc <__bss_end__+0xa89744>
    b248:	2a2a2a2a 	bcs	a95af8 <__bss_end__+0xa89770>
    b24c:	2a2a2a2a 	bcs	a95afc <__bss_end__+0xa89774>
    b250:	00000a2a 	andeq	r0, r0, sl, lsr #20
    b254:	494e4150 	stmdbmi	lr, {r4, r6, r8, lr}^
    b258:	73253a43 	teqvc	r5, #274432	; 0x43000
    b25c:	3a73253a 	bcc	1cd474c <__bss_end__+0x1cc83c4>
    b260:	703a6425 	eorsvc	r6, sl, r5, lsr #8
    b264:	3d3d2074 	ldccc	0, cr2, [sp, #-464]!	; 0xfffffe30
    b268:	6f762820 	svcvs	0x00762820
    b26c:	292a6469 	stmdbcs	sl!, {r0, r3, r5, r6, sl, sp, lr}
    b270:	30317830 	eorscc	r7, r1, r0, lsr r8
    b274:	30303030 	eorscc	r3, r0, r0, lsr r0
    b278:	0000000a 	andeq	r0, r0, sl
    b27c:	494e4150 	stmdbmi	lr, {r4, r6, r8, lr}^
    b280:	73253a43 	teqvc	r5, #274432	; 0x43000
    b284:	3a73253a 	bcc	1cd4774 <__bss_end__+0x1cc83ec>
    b288:	633a6425 	teqvs	sl, #620756992	; 0x25000000
    b28c:	50582e31 	subspl	r2, r8, r1, lsr lr
    b290:	0a74705f 	beq	1d27414 <__bss_end__+0x1d1b08c>
    b294:	00000000 	andeq	r0, r0, r0
    b298:	494e4150 	stmdbmi	lr, {r4, r6, r8, lr}^
    b29c:	73253a43 	teqvc	r5, #274432	; 0x43000
    b2a0:	3a73253a 	bcc	1cd4790 <__bss_end__+0x1cc8408>
    b2a4:	213a6425 	teqcs	sl, r5, lsr #8
    b2a8:	4d2e3163 	stfmis	f3, [lr, #-396]!	; 0xfffffe74
    b2ac:	655f554d 	ldrbvs	r5, [pc, #-1357]	; ad67 <gpio_event_detected+0x57>
    b2b0:	6c62616e 	stfvse	f6, [r2], #-440	; 0xfffffe48
    b2b4:	000a6465 	andeq	r6, sl, r5, ror #8
    b2b8:	494e4150 	stmdbmi	lr, {r4, r6, r8, lr}^
    b2bc:	73253a43 	teqvc	r5, #274432	; 0x43000
    b2c0:	3a73253a 	bcc	1cd47b0 <__bss_end__+0x1cc8428>
    b2c4:	633a6425 	teqvs	sl, #620756992	; 0x25000000
    b2c8:	4d4d2e31 	stclmi	14, cr2, [sp, #-196]	; 0xffffff3c
    b2cc:	6e655f55 	mcrvs	15, 3, r5, cr5, cr5, {2}
    b2d0:	656c6261 	strbvs	r6, [ip, #-609]!	; 0x261
    b2d4:	00000a64 	andeq	r0, r0, r4, ror #20
    b2d8:	494e4150 	stmdbmi	lr, {r4, r6, r8, lr}^
    b2dc:	73253a43 	teqvc	r5, #274432	; 0x43000
    b2e0:	3a73253a 	bcc	1cd47d0 <__bss_end__+0x1cc8448>
    b2e4:	673a6425 	ldrvs	r6, [sl, -r5, lsr #8]!
    b2e8:	32337465 	eorscc	r7, r3, #1694498816	; 0x65000000
    b2ec:	29782628 	ldmdbcs	r8!, {r3, r5, r9, sl, sp}^
    b2f0:	203d3d20 	eorscs	r3, sp, r0, lsr #26
    b2f4:	00000a35 	andeq	r0, r0, r5, lsr sl
    b2f8:	6e696f64 	cdpvs	15, 6, cr6, cr9, cr4, {3}
    b2fc:	72702067 	rsbsvc	r2, r0, #103	; 0x67
    b300:	20746e69 	rsbscs	r6, r4, r9, ror #28
    b304:	68746977 	ldmdavs	r4!, {r0, r1, r2, r4, r5, r6, r8, fp, sp, lr}^
    b308:	206d7620 	rsbcs	r7, sp, r0, lsr #12
    b30c:	000a4e4f 	andeq	r4, sl, pc, asr #28
    b310:	756f6261 	strbvc	r6, [pc, #-609]!	; b0b7 <__FUNCTION__.4478+0xbb>
    b314:	6f742074 	svcvs	0x00742074
    b318:	206f6420 	rsbcs	r6, pc, r0, lsr #8
    b31c:	69206e61 	stmdbvs	r0!, {r0, r5, r6, r9, sl, fp, sp, lr}
    b320:	6c61766e 	stclvs	6, cr7, [r1], #-440	; 0xfffffe48
    b324:	77206469 	strvc	r6, [r0, -r9, ror #8]!
    b328:	65746972 	ldrbvs	r6, [r4, #-2418]!	; 0x972
    b32c:	206f7420 	rsbcs	r7, pc, r0, lsr #8
    b330:	000a7825 	andeq	r7, sl, r5, lsr #16
    b334:	494e4150 	stmdbmi	lr, {r4, r6, r8, lr}^
    b338:	73253a43 	teqvc	r5, #274432	; 0x43000
    b33c:	3a73253a 	bcc	1cd482c <__bss_end__+0x1cc84a4>
    b340:	2a3a6425 	bcs	ea43dc <__bss_end__+0xe98054>
    b344:	3d3d2070 	ldccc	0, cr2, [sp, #-448]!	; 0xfffffe40
    b348:	0a313120 	beq	c577d0 <__bss_end__+0xc4b448>
    b34c:	00000000 	andeq	r0, r0, r0
    b350:	656e6f64 	strbvs	r6, [lr, #-3940]!	; 0xf64
    b354:	74697720 	strbtvc	r7, [r9], #-1824	; 0x720
    b358:	6e692068 	cdpvs	0, 6, cr2, cr9, cr8, {3}
    b35c:	696c6176 	stmdbvs	ip!, {r1, r2, r4, r5, r6, r8, sp, lr}^
    b360:	72772064 	rsbsvc	r2, r7, #100	; 0x64
    b364:	20657469 	rsbcs	r7, r5, r9, ror #8
    b368:	25206f74 	strcs	r6, [r0, #-3956]!	; 0xf74
    b36c:	61682078 	smcvs	33288	; 0x8208
    b370:	253d6576 	ldrcs	r6, [sp, #-1398]!	; 0x576
    b374:	00000a64 	andeq	r0, r0, r4, ror #20
    b378:	756f6261 	strbvc	r6, [pc, #-609]!	; b11f <__FUNCTION__.4478+0x123>
    b37c:	6f742074 	svcvs	0x00742074
    b380:	72616d20 	rsbvc	r6, r1, #32, 26	; 0x800
    b384:	6f6e206b 	svcvs	0x006e206b
    b388:	63636120 	cmnvs	r3, #32, 2
    b38c:	25737365 	ldrbcs	r7, [r3, #-869]!	; 0x365
    b390:	00000a78 	andeq	r0, r0, r8, ror sl
    b394:	494e4150 	stmdbmi	lr, {r4, r6, r8, lr}^
    b398:	73253a43 	teqvc	r5, #274432	; 0x43000
    b39c:	3a73253a 	bcc	1cd488c <__bss_end__+0x1cc8504>
    b3a0:	2a3a6425 	bcs	ea443c <__bss_end__+0xe980b4>
    b3a4:	3d3d2070 	ldccc	0, cr2, [sp, #-448]!	; 0xfffffe40
    b3a8:	0a323120 	beq	c97830 <__bss_end__+0xc8b4a8>
    b3ac:	00000000 	andeq	r0, r0, r0
    b3b0:	656e6f64 	strbvs	r6, [lr, #-3940]!	; 0xf64
    b3b4:	74697720 	strbtvc	r7, [r9], #-1824	; 0x720
    b3b8:	6e692068 	cdpvs	0, 6, cr2, cr9, cr8, {3}
    b3bc:	696c6176 	stmdbvs	ip!, {r1, r2, r4, r5, r6, r8, sp, lr}^
    b3c0:	65702064 	ldrbvs	r2, [r0, #-100]!	; 0x64
    b3c4:	77206d72 			; <UNDEFINED> instruction: 0x77206d72
    b3c8:	65746972 	ldrbvs	r6, [r4, #-2418]!	; 0x972
    b3cc:	206f7420 	rsbcs	r7, pc, r0, lsr #8
    b3d0:	68207825 	stmdavs	r0!, {r0, r2, r5, fp, ip, sp, lr}
    b3d4:	3d657661 	stclcc	6, cr7, [r5, #-388]!	; 0xfffffe7c
    b3d8:	000a6425 	andeq	r6, sl, r5, lsr #8
    b3dc:	54524150 	ldrbpl	r4, [r2], #-336	; 0x150
    b3e0:	73203a32 	teqvc	r0, #204800	; 0x32000
    b3e4:	65636375 	strbvs	r6, [r3, #-885]!	; 0x375
    b3e8:	0a217373 	beq	8681bc <__bss_end__+0x85be34>
    b3ec:	00000000 	andeq	r0, r0, r0
    b3f0:	0a46464f 	beq	119cd34 <__bss_end__+0x11909ac>
    b3f4:	00000000 	andeq	r0, r0, r0
    b3f8:	494e4150 	stmdbmi	lr, {r4, r6, r8, lr}^
    b3fc:	73253a43 	teqvc	r5, #274432	; 0x43000
    b400:	3a73253a 	bcc	1cd48f0 <__bss_end__+0x1cc8568>
    b404:	763a6425 	ldrtvc	r6, [sl], -r5, lsr #8
    b408:	3d3d2030 	ldccc	0, cr2, [sp, #-192]!	; 0xffffff40
    b40c:	000a3520 	andeq	r3, sl, r0, lsr #10
    b410:	494e4150 	stmdbmi	lr, {r4, r6, r8, lr}^
    b414:	73253a43 	teqvc	r5, #274432	; 0x43000
    b418:	3a73253a 	bcc	1cd4908 <__bss_end__+0x1cc8580>
    b41c:	763a6425 	ldrtvc	r6, [sl], -r5, lsr #8
    b420:	3d3d2031 	ldccc	0, cr2, [sp, #-196]!	; 0xffffff3c
    b424:	000a3620 	andeq	r3, sl, r0, lsr #12
    b428:	2a2a2a2a 	bcs	a95cd8 <__bss_end__+0xa89950>
    b42c:	2a2a2a2a 	bcs	a95cdc <__bss_end__+0xa89954>
    b430:	63757320 	cmnvs	r5, #32, 6	; 0x80000000
    b434:	73736563 	cmnvc	r3, #415236096	; 0x18c00000
    b438:	2a2a2a20 	bcs	a95cc0 <__bss_end__+0xa89938>
    b43c:	2a2a2a2a 	bcs	a95cec <__bss_end__+0xa89964>
    b440:	2a2a2a2a 	bcs	a95cf0 <__bss_end__+0xa89968>
    b444:	00000a2a 	andeq	r0, r0, sl, lsr #20
    b448:	6c706d69 	ldclvs	13, cr6, [r0], #-420	; 0xfffffe5c
    b44c:	6e656d65 	cdpvs	13, 6, cr6, cr5, cr5, {3}
    b450:	6e6f2074 	mcrvs	0, 3, r2, cr15, cr4, {3}
    b454:	74612065 	strbtvc	r2, [r1], #-101	; 0x65
    b458:	74206120 	strtvc	r6, [r0], #-288	; 0x120
    b45c:	2e656d69 	cdpcs	13, 6, cr6, cr5, cr9, {3}
    b460:	0000000a 	andeq	r0, r0, sl
    b464:	73696874 	cmnvc	r9, #116, 16	; 0x740000
    b468:	20736920 	rsbscs	r6, r3, r0, lsr #18
    b46c:	74726170 	ldrbtvc	r6, [r2], #-368	; 0x170
    b470:	00000a30 	andeq	r0, r0, r0, lsr sl
    b474:	43435553 	movtmi	r5, #13651	; 0x3553
    b478:	31535345 	cmpcc	r3, r5, asr #6
    b47c:	0000000a 	andeq	r0, r0, sl
    b480:	73696874 	cmnvc	r9, #116, 16	; 0x740000
    b484:	20736920 	rsbscs	r6, r3, r0, lsr #18
    b488:	74726170 	ldrbtvc	r6, [r2], #-368	; 0x170
    b48c:	00000a31 	andeq	r0, r0, r1, lsr sl

0000b490 <__FUNCTION__.4501>:
    b490:	746e6f63 	strbtvc	r6, [lr], #-3939	; 0xf63
    b494:	5f6c6f72 	svcpl	0x006c6f72
    b498:	31676572 	smccc	30290	; 0x7652
    b49c:	6e61735f 	mcrvs	3, 3, r7, cr1, cr15, {2}
    b4a0:	5f797469 	svcpl	0x00797469
    b4a4:	63656863 	cmnvs	r5, #6488064	; 0x630000
    b4a8:	0000006b 	andeq	r0, r0, fp, rrx

0000b4ac <__FUNCTION__.4544>:
    b4ac:	5f646c66 	svcpl	0x00646c66
    b4b0:	63656863 	cmnvs	r5, #6488064	; 0x630000
    b4b4:	61765f6b 	cmnvs	r6, fp, ror #30
    b4b8:	0064696c 	rsbeq	r6, r4, ip, ror #18

0000b4bc <__FUNCTION__.4315>:
    b4bc:	746e6f63 	strbtvc	r6, [lr], #-3939	; 0xf63
    b4c0:	5f6c6f72 	svcpl	0x006c6f72
    b4c4:	31676572 	smccc	30290	; 0x7652
    b4c8:	6568635f 	strbvs	r6, [r8, #-863]!	; 0x35f
    b4cc:	6f5f6b63 	svcvs	0x005f6b63
    b4d0:	65736666 	ldrbvs	r6, [r3, #-1638]!	; 0x666
    b4d4:	00007374 	andeq	r7, r0, r4, ror r3

0000b4d8 <__FUNCTION__.4517>:
    b4d8:	5f626c74 	svcpl	0x00626c74
    b4dc:	666e6f63 	strbtvs	r6, [lr], -r3, ror #30
    b4e0:	635f6769 	cmpvs	pc, #27525120	; 0x1a40000
    b4e4:	6b636568 	blvs	18e4a8c <__bss_end__+0x18d8704>
    b4e8:	66666f5f 	uqsaxvs	r6, r6, pc	; <UNPREDICTABLE>
    b4ec:	73746573 	cmnvc	r4, #482344960	; 0x1cc00000
    b4f0:	00000000 	andeq	r0, r0, r0

0000b4f4 <__FUNCTION__.4553>:
    b4f4:	5f646c66 	svcpl	0x00646c66
    b4f8:	63656863 	cmnvs	r5, #6488064	; 0x630000
    b4fc:	666f5f6b 	strbtvs	r5, [pc], -fp, ror #30
    b500:	74657366 	strbtvc	r7, [r5], #-870	; 0x366
    b504:	00000073 	andeq	r0, r0, r3, ror r0
    b508:	494e4150 	stmdbmi	lr, {r4, r6, r8, lr}^
    b50c:	73253a43 	teqvc	r5, #274432	; 0x43000
    b510:	3a73253a 	bcc	1cd4a00 <__bss_end__+0x1cc8678>
    b514:	723a6425 	eorsvc	r6, sl, #620756992	; 0x25000000
    b518:	755f3e2d 	ldrbvc	r3, [pc, #-3629]	; a6f3 <fast_interrupt_vector+0x3>
    b51c:	6573756e 	ldrbvs	r7, [r3, #-1390]!	; 0x56e
    b520:	3d203164 	stfccs	f3, [r0, #-400]!	; 0xfffffe70
    b524:	6230203d 	eorsvs	r2, r0, #61	; 0x3d
    b528:	0a313131 	beq	c579f4 <__bss_end__+0xc4b66c>
    b52c:	00000000 	andeq	r0, r0, r0
    b530:	682d6d76 	stmdavs	sp!, {r1, r2, r4, r5, r6, r8, sl, fp, sp, lr}
    b534:	65706c65 	ldrbvs	r6, [r0, #-3173]!	; 0xc65
    b538:	632e7372 	teqvs	lr, #-939524095	; 0xc8000001
    b53c:	00000000 	andeq	r0, r0, r0
    b540:	494e4150 	stmdbmi	lr, {r4, r6, r8, lr}^
    b544:	73253a43 	teqvc	r5, #274432	; 0x43000
    b548:	3a73253a 	bcc	1cd4a38 <__bss_end__+0x1cc86b0>
    b54c:	723a6425 	eorsvc	r6, sl, #620756992	; 0x25000000
    b550:	645f3e2d 	ldrbvs	r3, [pc], #-3629	; b558 <__FUNCTION__.4553+0x64>
    b554:	3d3d2074 	ldccc	0, cr2, [sp, #-464]!	; 0xfffffe30
    b558:	000a3120 	andeq	r3, sl, r0, lsr #2
    b55c:	494e4150 	stmdbmi	lr, {r4, r6, r8, lr}^
    b560:	73253a43 	teqvc	r5, #274432	; 0x43000
    b564:	3a73253a 	bcc	1cd4a54 <__bss_end__+0x1cc86cc>
    b568:	723a6425 	eorsvc	r6, sl, #620756992	; 0x25000000
    b56c:	695f3e2d 	ldmdbvs	pc, {r0, r2, r3, r5, r9, sl, fp, ip, sp}^	; <UNPREDICTABLE>
    b570:	3d3d2074 	ldccc	0, cr2, [sp, #-464]!	; 0xfffffe30
    b574:	000a3120 	andeq	r3, sl, r0, lsr #2
    b578:	494e4150 	stmdbmi	lr, {r4, r6, r8, lr}^
    b57c:	73253a43 	teqvc	r5, #274432	; 0x43000
    b580:	3a73253a 	bcc	1cd4a70 <__bss_end__+0x1cc86e8>
    b584:	723a6425 	eorsvc	r6, sl, #620756992	; 0x25000000
    b588:	735f3e2d 	cmpvc	pc, #720	; 0x2d0
    b58c:	20307a62 	eorscs	r7, r0, r2, ror #20
    b590:	30203d3d 	eorcc	r3, r0, sp, lsr sp
    b594:	0000000a 	andeq	r0, r0, sl
    b598:	494e4150 	stmdbmi	lr, {r4, r6, r8, lr}^
    b59c:	73253a43 	teqvc	r5, #274432	; 0x43000
    b5a0:	3a73253a 	bcc	1cd4a90 <__bss_end__+0x1cc8708>
    b5a4:	723a6425 	eorsvc	r6, sl, #620756992	; 0x25000000
    b5a8:	735f3e2d 	cmpvc	pc, #720	; 0x2d0
    b5ac:	20317a62 	eorscs	r7, r1, r2, ror #20
    b5b0:	30203d3d 	eorcc	r3, r0, sp, lsr sp
    b5b4:	0000000a 	andeq	r0, r0, sl
    b5b8:	494e4150 	stmdbmi	lr, {r4, r6, r8, lr}^
    b5bc:	73253a43 	teqvc	r5, #274432	; 0x43000
    b5c0:	3a73253a 	bcc	1cd4ab0 <__bss_end__+0x1cc8728>
    b5c4:	723a6425 	eorsvc	r6, sl, #620756992	; 0x25000000
    b5c8:	735f3e2d 	cmpvc	pc, #720	; 0x2d0
    b5cc:	3d3d2074 	ldccc	0, cr2, [sp, #-464]!	; 0xfffffe30
    b5d0:	000a3020 	andeq	r3, sl, r0, lsr #32
    b5d4:	494e4150 	stmdbmi	lr, {r4, r6, r8, lr}^
    b5d8:	73253a43 	teqvc	r5, #274432	; 0x43000
    b5dc:	3a73253a 	bcc	1cd4acc <__bss_end__+0x1cc8744>
    b5e0:	213a6425 	teqcs	sl, r5, lsr #8
    b5e4:	4c3e2d72 	ldcmi	13, cr2, [lr], #-456	; 0xfffffe38
    b5e8:	6e655f32 	mcrvs	15, 3, r5, cr5, cr2, {1}
    b5ec:	656c6261 	strbvs	r6, [ip, #-609]!	; 0x261
    b5f0:	00000a64 	andeq	r0, r0, r4, ror #20
    b5f4:	494e4150 	stmdbmi	lr, {r4, r6, r8, lr}^
    b5f8:	73253a43 	teqvc	r5, #274432	; 0x43000
    b5fc:	3a73253a 	bcc	1cd4aec <__bss_end__+0x1cc8764>
    b600:	213a6425 	teqcs	sl, r5, lsr #8
    b604:	493e2d72 	ldmdbmi	lr!, {r1, r4, r5, r6, r8, sl, fp, sp}
    b608:	6163695f 	cmnvs	r3, pc, asr r9
    b60c:	5f656863 	svcpl	0x00656863
    b610:	62616e65 	rsbvs	r6, r1, #1616	; 0x650
    b614:	000a656c 	andeq	r6, sl, ip, ror #10
    b618:	494e4150 	stmdbmi	lr, {r4, r6, r8, lr}^
    b61c:	73253a43 	teqvc	r5, #274432	; 0x43000
    b620:	3a73253a 	bcc	1cd4b10 <__bss_end__+0x1cc8788>
    b624:	213a6425 	teqcs	sl, r5, lsr #8
    b628:	433e2d72 	teqmi	lr, #7296	; 0x1c80
    b62c:	696e755f 	stmdbvs	lr!, {r0, r1, r2, r3, r4, r6, r8, sl, ip, sp, lr}^
    b630:	64656966 	strbtvs	r6, [r5], #-2406	; 0x966
    b634:	616e655f 	cmnvs	lr, pc, asr r5
    b638:	0a656c62 	beq	19667c8 <__bss_end__+0x195a440>
    b63c:	00000000 	andeq	r0, r0, r0
    b640:	494e4150 	stmdbmi	lr, {r4, r6, r8, lr}^
    b644:	73253a43 	teqvc	r5, #274432	; 0x43000
    b648:	3a73253a 	bcc	1cd4b38 <__bss_end__+0x1cc87b0>
    b64c:	663a6425 	ldrtvs	r6, [sl], -r5, lsr #8
    b650:	735f3e2d 	cmpvc	pc, #720	; 0x2d0
    b654:	20317a62 	eorscs	r7, r1, r2, ror #20
    b658:	30203d3d 	eorcc	r3, r0, sp, lsr sp
    b65c:	0000000a 	andeq	r0, r0, sl
    b660:	494e4150 	stmdbmi	lr, {r4, r6, r8, lr}^
    b664:	73253a43 	teqvc	r5, #274432	; 0x43000
    b668:	3a73253a 	bcc	1cd4b58 <__bss_end__+0x1cc87d0>
    b66c:	663a6425 	ldrtvs	r6, [sl], -r5, lsr #8
    b670:	61743e2d 	cmnvs	r4, sp, lsr #28
    b674:	3d3d2067 	ldccc	0, cr2, [sp, #-412]!	; 0xfffffe64
    b678:	31623020 	cmncc	r2, r0, lsr #32
    b67c:	00000a30 	andeq	r0, r0, r0, lsr sl
    b680:	494e4150 	stmdbmi	lr, {r4, r6, r8, lr}^
    b684:	73253a43 	teqvc	r5, #274432	; 0x43000
    b688:	3a73253a 	bcc	1cd4b78 <__bss_end__+0x1cc87f0>
    b68c:	663a6425 	ldrtvs	r6, [sl], -r5, lsr #8
    b690:	20533e2d 	subscs	r3, r3, sp, lsr #28
    b694:	30203d3d 	eorcc	r3, r0, sp, lsr sp
    b698:	0000000a 	andeq	r0, r0, sl
    b69c:	494e4150 	stmdbmi	lr, {r4, r6, r8, lr}^
    b6a0:	73253a43 	teqvc	r5, #274432	; 0x43000
    b6a4:	3a73253a 	bcc	1cd4b94 <__bss_end__+0x1cc880c>
    b6a8:	663a6425 	ldrtvs	r6, [sl], -r5, lsr #8
    b6ac:	4d493e2d 	stclmi	14, cr3, [r9, #-180]	; 0xffffff4c
    b6b0:	3d3d2050 	ldccc	0, cr2, [sp, #-320]!	; 0xfffffec0
    b6b4:	000a3020 	andeq	r3, sl, r0, lsr #32
    b6b8:	494e4150 	stmdbmi	lr, {r4, r6, r8, lr}^
    b6bc:	73253a43 	teqvc	r5, #274432	; 0x43000
    b6c0:	3a73253a 	bcc	1cd4bb0 <__bss_end__+0x1cc8828>
    b6c4:	663a6425 	ldrtvs	r6, [sl], -r5, lsr #8
    b6c8:	45543e2d 	ldrbmi	r3, [r4, #-3629]	; 0xe2d
    b6cc:	3d3d2058 	ldccc	0, cr2, [sp, #-352]!	; 0xfffffea0
    b6d0:	000a3020 	andeq	r3, sl, r0, lsr #32
    b6d4:	494e4150 	stmdbmi	lr, {r4, r6, r8, lr}^
    b6d8:	73253a43 	teqvc	r5, #274432	; 0x43000
    b6dc:	3a73253a 	bcc	1cd4bcc <__bss_end__+0x1cc8844>
    b6e0:	663a6425 	ldrtvs	r6, [sl], -r5, lsr #8
    b6e4:	20433e2d 	subcs	r3, r3, sp, lsr #28
    b6e8:	30203d3d 	eorcc	r3, r0, sp, lsr sp
    b6ec:	0000000a 	andeq	r0, r0, sl
    b6f0:	494e4150 	stmdbmi	lr, {r4, r6, r8, lr}^
    b6f4:	73253a43 	teqvc	r5, #274432	; 0x43000
    b6f8:	3a73253a 	bcc	1cd4be8 <__bss_end__+0x1cc8860>
    b6fc:	663a6425 	ldrtvs	r6, [sl], -r5, lsr #8
    b700:	20423e2d 	subcs	r3, r2, sp, lsr #28
    b704:	30203d3d 	eorcc	r3, r0, sp, lsr sp
    b708:	0000000a 	andeq	r0, r0, sl
    b70c:	494e4150 	stmdbmi	lr, {r4, r6, r8, lr}^
    b710:	73253a43 	teqvc	r5, #274432	; 0x43000
    b714:	3a73253a 	bcc	1cd4c04 <__bss_end__+0x1cc887c>
    b718:	663a6425 	ldrtvs	r6, [sl], -r5, lsr #8
    b71c:	75733e2d 	ldrbvc	r3, [r3, #-3629]!	; 0xe2d
    b720:	20726570 	rsbscs	r6, r2, r0, ror r5
    b724:	30203d3d 	eorcc	r3, r0, sp, lsr sp
    b728:	0000000a 	andeq	r0, r0, sl
    b72c:	494e4150 	stmdbmi	lr, {r4, r6, r8, lr}^
    b730:	73253a43 	teqvc	r5, #274432	; 0x43000
    b734:	3a73253a 	bcc	1cd4c24 <__bss_end__+0x1cc889c>
    b738:	6f3a6425 	svcvs	0x003a6425
    b73c:	65736666 	ldrbvs	r6, [r3, #-1638]!	; 0x666
    b740:	72772074 	rsbsvc	r2, r7, #116	; 0x74
    b744:	3a676e6f 	bcc	19e7108 <__bss_end__+0x19dad80>
    b748:	70786520 	rsbsvc	r6, r8, r0, lsr #10
    b74c:	20746365 	rsbscs	r6, r4, r5, ror #6
    b750:	67207825 	strvs	r7, [r0, -r5, lsr #16]!
    b754:	2520746f 	strcs	r7, [r0, #-1135]!	; 0x46f
    b758:	73252078 	teqvc	r5, #120	; 0x78
    b75c:	666f5b20 	strbtvs	r5, [pc], -r0, lsr #22
    b760:	64253d66 	strtvs	r3, [r5], #-3430	; 0xd66
    b764:	69626e2c 	stmdbvs	r2!, {r2, r3, r5, r9, sl, fp, sp, lr}^
    b768:	253d7374 	ldrcs	r7, [sp, #-884]!	; 0x374
    b76c:	0a0a5d64 	beq	2a2d04 <__bss_end__+0x29697c>
    b770:	00000000 	andeq	r0, r0, r0
    b774:	5f554d4d 	svcpl	0x00554d4d
    b778:	62616e65 	rsbvs	r6, r1, #1616	; 0x650
    b77c:	0064656c 	rsbeq	r6, r4, ip, ror #10
    b780:	494e4150 	stmdbmi	lr, {r4, r6, r8, lr}^
    b784:	73253a43 	teqvc	r5, #274432	; 0x43000
    b788:	3a73253a 	bcc	1cd4c78 <__bss_end__+0x1cc88f0>
    b78c:	783a6425 	ldmdavc	sl!, {r0, r2, r5, sl, sp, lr}
    b790:	3d20752e 	cfstr32cc	mvfx7, [r0, #-184]!	; 0xffffff48
    b794:	7865203d 	stmdavc	r5!, {r0, r2, r3, r4, r5, sp}^
    b798:	00000a70 	andeq	r0, r0, r0, ror sl
    b79c:	494e4150 	stmdbmi	lr, {r4, r6, r8, lr}^
    b7a0:	73253a43 	teqvc	r5, #274432	; 0x43000
    b7a4:	3a73253a 	bcc	1cd4c94 <__bss_end__+0x1cc890c>
    b7a8:	773a6425 	ldrvc	r6, [sl, -r5, lsr #8]!
    b7ac:	68746469 	ldmdavs	r4!, {r0, r3, r5, r6, sl, sp, lr}^
    b7b0:	6f727720 	svcvs	0x00727720
    b7b4:	203a676e 	eorscs	r6, sl, lr, ror #14
    b7b8:	65707865 	ldrbvs	r7, [r0, #-2149]!	; 0x865
    b7bc:	25207463 	strcs	r7, [r0, #-1123]!	; 0x463
    b7c0:	6f672078 	svcvs	0x00672078
    b7c4:	78252074 	stmdavc	r5!, {r2, r4, r5, r6, sp}
    b7c8:	20732520 	rsbscs	r2, r3, r0, lsr #10
    b7cc:	66666f5b 	uqsaxvs	r6, r6, fp
    b7d0:	2c64253d 	cfstr64cs	mvdx2, [r4], #-244	; 0xffffff0c
    b7d4:	7469626e 	strbtvc	r6, [r9], #-622	; 0x26e
    b7d8:	64253d73 	strtvs	r3, [r5], #-3443	; 0xd73
    b7dc:	000a0a5d 	andeq	r0, sl, sp, asr sl
    b7e0:	6c615f41 	stclvs	15, cr5, [r1], #-260	; 0xfffffefc
    b7e4:	6d6e6769 	stclvs	7, cr6, [lr, #-420]!	; 0xfffffe5c
    b7e8:	00746e65 	rsbseq	r6, r4, r5, ror #28
    b7ec:	6e755f43 	cdpvs	15, 7, cr5, cr5, cr3, {2}
    b7f0:	65696669 	strbvs	r6, [r9, #-1641]!	; 0x669
    b7f4:	6e655f64 	cdpvs	15, 6, cr5, cr5, cr4, {3}
    b7f8:	656c6261 	strbvs	r6, [ip, #-609]!	; 0x261
    b7fc:	00000000 	andeq	r0, r0, r0
    b800:	72775f57 	rsbsvc	r5, r7, #348	; 0x15c
    b804:	5f657469 	svcpl	0x00657469
    b808:	00667562 	rsbeq	r7, r6, r2, ror #10
    b80c:	6e655f42 	cdpvs	15, 6, cr5, cr5, cr2, {2}
    b810:	6e616964 	cdpvs	9, 6, cr6, cr1, cr4, {3}
    b814:	00000000 	andeq	r0, r0, r0
    b818:	72705f53 	rsbsvc	r5, r0, #332	; 0x14c
    b81c:	0000746f 	andeq	r7, r0, pc, ror #8
    b820:	6f725f52 	svcvs	0x00725f52
    b824:	72705f6d 	rsbsvc	r5, r0, #436	; 0x1b4
    b828:	0000746f 	andeq	r7, r0, pc, ror #8
    b82c:	00000046 	andeq	r0, r0, r6, asr #32
    b830:	72625f5a 	rsbvc	r5, r2, #360	; 0x168
    b834:	68636e61 	stmdavs	r3!, {r0, r5, r6, r9, sl, fp, sp, lr}^
    b838:	6572705f 	ldrbvs	r7, [r2, #-95]!	; 0x5f
    b83c:	00000064 	andeq	r0, r0, r4, rrx
    b840:	63695f49 	cmnvs	r9, #292	; 0x124
    b844:	65686361 	strbvs	r6, [r8, #-865]!	; 0x361
    b848:	616e655f 	cmnvs	lr, pc, asr r5
    b84c:	00656c62 	rsbeq	r6, r5, r2, ror #24
    b850:	69685f56 	stmdbvs	r8!, {r1, r2, r4, r6, r8, r9, sl, fp, ip, lr}^
    b854:	655f6867 	ldrbvs	r6, [pc, #-2151]	; aff5 <__FUNCTION__.4469+0xd>
    b858:	70656378 	rsbvc	r6, r5, r8, ror r3
    b85c:	00765f74 	rsbseq	r5, r6, r4, ror pc
    b860:	635f5252 	cmpvs	pc, #536870917	; 0x20000005
    b864:	65686361 	strbvs	r6, [r8, #-865]!	; 0x361
    b868:	7065725f 	rsbvc	r7, r5, pc, asr r2
    b86c:	00000000 	andeq	r0, r0, r0
    b870:	0000344c 	andeq	r3, r0, ip, asr #8
    b874:	00003146 	andeq	r3, r0, r6, asr #2
    b878:	6e755f55 	mrcvs	15, 3, r5, cr5, cr5, {2}
    b87c:	67696c61 	strbvs	r6, [r9, -r1, ror #24]!
    b880:	0064656e 	rsbeq	r6, r4, lr, ror #10
    b884:	705f5058 	subsvc	r5, pc, r8, asr r0	; <UNPREDICTABLE>
    b888:	00000074 	andeq	r0, r0, r4, ror r0
    b88c:	765f4556 			; <UNDEFINED> instruction: 0x765f4556
    b890:	5f746365 	svcpl	0x00746365
    b894:	00746e69 	rsbseq	r6, r4, r9, ror #28
    b898:	00004545 	andeq	r4, r0, r5, asr #10
    b89c:	655f324c 	ldrbvs	r3, [pc, #-588]	; b658 <__FUNCTION__.4553+0x164>
    b8a0:	6c62616e 	stfvse	f6, [r2], #-440	; 0xfffffe48
    b8a4:	00006465 	andeq	r6, r0, r5, ror #8
    b8a8:	745f5254 	ldrbvc	r5, [pc], #-596	; b8b0 <__FUNCTION__.4553+0x3bc>
    b8ac:	725f7865 	subsvc	r7, pc, #6619136	; 0x650000
    b8b0:	70616d65 	rsbvc	r6, r1, r5, ror #26
    b8b4:	00000000 	andeq	r0, r0, r0
    b8b8:	665f4146 	ldrbvs	r4, [pc], -r6, asr #2
    b8bc:	6563726f 	strbvs	r7, [r3, #-623]!	; 0x26f
    b8c0:	0070615f 	rsbseq	r6, r0, pc, asr r1
    b8c4:	66696e75 			; <UNDEFINED> instruction: 0x66696e75
    b8c8:	5f646569 	svcpl	0x00646569
    b8cc:	00000070 	andeq	r0, r0, r0, ror r0
    b8d0:	5f645f6e 	svcpl	0x00645f6e
    b8d4:	6b636f6c 	blvs	18e768c <__bss_end__+0x18db304>
    b8d8:	00000000 	andeq	r0, r0, r0
    b8dc:	5f695f6e 	svcpl	0x00695f6e
    b8e0:	6b636f6c 	blvs	18e7698 <__bss_end__+0x18db310>
    b8e4:	00000000 	andeq	r0, r0, r0
    b8e8:	48534148 	ldmdami	r3, {r3, r6, r8, lr}^
    b8ec:	3a73253a 	bcc	1cd4ddc <__bss_end__+0x1cc8a54>
    b8f0:	73616820 	cmnvc	r1, #32, 16	; 0x200000
    b8f4:	78253d68 	stmdavc	r5!, {r3, r5, r6, r8, sl, fp, ip, sp}
    b8f8:	79626e2c 	stmdbvc	r2!, {r2, r3, r5, r9, sl, fp, sp, lr}^
    b8fc:	3d736574 	cfldr64cc	mvdx6, [r3, #-464]!	; 0xfffffe30
    b900:	000a6425 	andeq	r6, sl, r5, lsr #8
    b904:	74737973 	ldrbtvc	r7, [r3], #-2419	; 0x973
    b908:	63206d65 	teqvs	r0, #6464	; 0x1940
    b90c:	72746e6f 	rsbsvc	r6, r4, #1776	; 0x6f0
    b910:	72206c6f 	eorvc	r6, r0, #28416	; 0x6f00
    b914:	0a3d6765 	beq	f656b0 <__bss_end__+0xf59328>
    b918:	00000000 	andeq	r0, r0, r0
    b91c:	25623009 	strbcs	r3, [r2, #-9]!
    b920:	203d0962 	eorscs	r0, sp, r2, ror #18
    b924:	000a7325 	andeq	r7, sl, r5, lsr #6
    b928:	25783009 	ldrbcs	r3, [r8, #-9]!
    b92c:	00000a78 	andeq	r0, r0, r8, ror sl
    b930:	20424c54 	subcs	r4, r2, r4, asr ip
    b934:	666e6f63 	strbtvs	r6, [lr], -r3, ror #30
    b938:	0a3a6769 	beq	ea56e4 <__bss_end__+0xe9935c>
    b93c:	00000000 	andeq	r0, r0, r0
    b940:	696e7509 	stmdbvs	lr!, {r0, r3, r8, sl, ip, sp, lr}^
    b944:	64656966 	strbtvs	r6, [r5], #-2406	; 0x966
    b948:	0a64253d 	beq	1914e44 <__bss_end__+0x1908abc>
    b94c:	00000000 	andeq	r0, r0, r0
    b950:	636f6c09 	cmnvs	pc, #2304	; 0x900
    b954:	6c62616b 	stfvse	f6, [r2], #-428	; 0xfffffe54
    b958:	61642065 	cmnvs	r4, r5, rrx
    b95c:	65206174 	strvs	r6, [r0, #-372]!	; 0x174
    b960:	253d746e 	ldrcs	r7, [sp, #-1134]!	; 0x46e
    b964:	00000a64 	andeq	r0, r0, r4, ror #20
    b968:	636f6c09 	cmnvs	pc, #2304	; 0x900
    b96c:	6c62616b 	stfvse	f6, [r2], #-428	; 0xfffffe54
    b970:	6e692065 	cdpvs	0, 6, cr2, cr9, cr5, {3}
    b974:	65207473 	strvs	r7, [r0, #-1139]!	; 0x473
    b978:	253d746e 	ldrcs	r7, [sp, #-1134]!	; 0x46e
    b97c:	00000a64 	andeq	r0, r0, r4, ror #20
    b980:	00676174 	rsbeq	r6, r7, r4, ror r1
    b984:	00000042 	andeq	r0, r0, r2, asr #32
    b988:	00000043 	andeq	r0, r0, r3, asr #32
    b98c:	00004e58 	andeq	r4, r0, r8, asr lr
    b990:	616d6f64 	cmnvs	sp, r4, ror #30
    b994:	00006e69 	andeq	r6, r0, r9, ror #28
    b998:	00504d49 	subseq	r4, r0, r9, asr #26
    b99c:	00005041 	andeq	r5, r0, r1, asr #32
    b9a0:	00584554 	subseq	r4, r8, r4, asr r5
    b9a4:	00585041 	subseq	r5, r8, r1, asr #32
    b9a8:	00000053 	andeq	r0, r0, r3, asr r0
    b9ac:	0000476e 	andeq	r4, r0, lr, ror #14
    b9b0:	65707573 	ldrbvs	r7, [r0, #-1395]!	; 0x573
    b9b4:	00000072 	andeq	r0, r0, r2, ror r0
    b9b8:	5f636573 	svcpl	0x00636573
    b9bc:	65736162 	ldrbvs	r6, [r3, #-354]!	; 0x162
    b9c0:	6464615f 	strbtvs	r6, [r4], #-351	; 0x15f
    b9c4:	00000072 	andeq	r0, r0, r2, ror r0
    b9c8:	2d2d2d2d 	stccs	13, cr2, [sp, #-180]!	; 0xffffff4c
    b9cc:	2d2d2d2d 	stccs	13, cr2, [sp, #-180]!	; 0xffffff4c
    b9d0:	2d2d2d2d 	stccs	13, cr2, [sp, #-180]!	; 0xffffff4c
    b9d4:	2d2d2d2d 	stccs	13, cr2, [sp, #-180]!	; 0xffffff4c
    b9d8:	2d2d2d2d 	stccs	13, cr2, [sp, #-180]!	; 0xffffff4c
    b9dc:	2d2d2d2d 	stccs	13, cr2, [sp, #-180]!	; 0xffffff4c
    b9e0:	2d2d2d2d 	stccs	13, cr2, [sp, #-180]!	; 0xffffff4c
    b9e4:	000a2d2d 	andeq	r2, sl, sp, lsr #26
    b9e8:	78257830 	stmdavc	r5!, {r4, r5, fp, ip, sp, lr}
    b9ec:	00000a3a 	andeq	r0, r0, sl, lsr sl
    b9f0:	2d202009 	stccs	0, cr2, [r0, #-36]!	; 0xffffffdc
    b9f4:	76203e2d 	strtvc	r3, [r0], -sp, lsr #28
    b9f8:	78303d61 	ldmdavc	r0!, {r0, r5, r6, r8, sl, fp, ip, sp}
    b9fc:	0a783825 	beq	1e19a98 <__bss_end__+0x1e0d710>
    ba00:	00000000 	andeq	r0, r0, r0
    ba04:	20202009 	eorcs	r2, r0, r9
    ba08:	20202020 	eorcs	r2, r0, r0, lsr #32
    ba0c:	20202020 	eorcs	r2, r0, r0, lsr #32
    ba10:	34353637 	ldrtcc	r3, [r5], #-1591	; 0x637
    ba14:	30313233 	eorscc	r3, r1, r3, lsr r2
    ba18:	0000000a 	andeq	r0, r0, sl

0000ba1c <__FUNCTION__.4403>:
    ba1c:	5f72756f 	svcpl	0x0072756f
    ba20:	5f756d6d 	svcpl	0x00756d6d
    ba24:	6b6f6f6c 	blvs	1be77dc <__bss_end__+0x1bdb454>
    ba28:	735f7075 	cmpvc	pc, #117	; 0x75
    ba2c:	69746365 	ldmdbvs	r4!, {r0, r2, r5, r6, r8, r9, sp, lr}^
    ba30:	00006e6f 	andeq	r6, r0, pc, ror #28

0000ba34 <__FUNCTION__.4414>:
    ba34:	5f646c66 	svcpl	0x00646c66
    ba38:	5f746573 	svcpl	0x00746573
    ba3c:	65736162 	ldrbvs	r6, [r3, #-354]!	; 0x162
    ba40:	6464615f 	strbtvs	r6, [r4], #-351	; 0x15f
    ba44:	00000072 	andeq	r0, r0, r2, ror r0

0000ba48 <__FUNCTION__.4420>:
    ba48:	5f72756f 	svcpl	0x0072756f
    ba4c:	5f756d6d 	svcpl	0x00756d6d
    ba50:	5f70616d 	svcpl	0x0070616d
    ba54:	74636573 	strbtvc	r6, [r3], #-1395	; 0x573
    ba58:	006e6f69 	rsbeq	r6, lr, r9, ror #30

0000ba5c <__FUNCTION__.4426>:
    ba5c:	5f72756f 	svcpl	0x0072756f
    ba60:	5f756d6d 	svcpl	0x00756d6d
    ba64:	74696e69 	strbtvc	r6, [r9], #-3689	; 0xe69
    ba68:	00000000 	andeq	r0, r0, r0

0000ba6c <__FUNCTION__.4434>:
    ba6c:	5f72756f 	svcpl	0x0072756f
    ba70:	5f756d6d 	svcpl	0x00756d6d
    ba74:	6b72616d 	blvs	1ca4030 <__bss_end__+0x1c97ca8>
    ba78:	6365735f 	cmnvs	r5, #2080374785	; 0x7c000001
    ba7c:	5f70615f 	svcpl	0x0070615f
    ba80:	6d726570 	cfldr64vs	mvdx6, [r2, #-448]!	; 0xfffffe40
    ba84:	00000000 	andeq	r0, r0, r0
    ba88:	2d72756f 	cfldr64cs	mvdx7, [r2, #-444]!	; 0xfffffe44
    ba8c:	632e6d76 	teqvs	lr, #7552	; 0x1d80
    ba90:	00000000 	andeq	r0, r0, r0
    ba94:	4f525245 	svcmi	0x00525245
    ba98:	73253a52 	teqvc	r5, #335872	; 0x52000
    ba9c:	3a73253a 	bcc	1cd4f8c <__bss_end__+0x1cc8c04>
    baa0:	203a6425 	eorscs	r6, sl, r5, lsr #8
    baa4:	534c4146 	movtpl	r4, #49478	; 0xc146
    baa8:	703c2845 	eorsvc	r2, ip, r5, asr #16
    baac:	3e2d6574 	mcrcc	5, 1, r6, cr13, cr4, {3}
    bab0:	3e676174 	mcrcc	1, 3, r6, cr7, cr4, {3}
    bab4:	69203a29 	stmdbvs	r0!, {r0, r3, r5, r9, fp, ip, sp}
    bab8:	6c61766e 	stclvs	6, cr7, [r1], #-440	; 0xfffffe48
    babc:	73206469 	teqvc	r0, #1761607680	; 0x69000000
    bac0:	69746365 	ldmdbvs	r4!, {r0, r2, r5, r6, r8, r9, sp, lr}^
    bac4:	000a6e6f 	andeq	r6, sl, pc, ror #28
    bac8:	4f525245 	svcmi	0x00525245
    bacc:	73253a52 	teqvc	r5, #335872	; 0x52000
    bad0:	3a73253a 	bcc	1cd4fc0 <__bss_end__+0x1cc8c38>
    bad4:	203a6425 	eorscs	r6, sl, r5, lsr #8
    bad8:	534c4146 	movtpl	r4, #49478	; 0xc146
    badc:	283c2845 	ldmdacs	ip!, {r0, r2, r6, fp, sp}
    bae0:	64612828 	strbtvs	r2, [r1], #-2088	; 0x828
    bae4:	20297264 	eorcs	r7, r9, r4, ror #4
    bae8:	28282026 	stmdacs	r8!, {r1, r2, r5, sp}
    baec:	65707974 	ldrbvs	r7, [r0, #-2420]!	; 0x974
    baf0:	6128666f 	teqvs	r8, pc, ror #12
    baf4:	29726464 	ldmdbcs	r2!, {r2, r5, r6, sl, sp, lr}^
    baf8:	30322829 	eorscc	r2, r2, r9, lsr #16
    bafc:	202d2029 	eorcs	r2, sp, r9, lsr #32
    bb00:	20292931 	eorcs	r2, r9, r1, lsr r9
    bb04:	30203d3d 	eorcc	r3, r0, sp, lsr sp
    bb08:	3a293e29 	bcc	a5b3b4 <__bss_end__+0xa4f02c>
    bb0c:	64646120 	strbtvs	r6, [r4], #-288	; 0x120
    bb10:	73692072 	cmnvc	r9, #114	; 0x72
    bb14:	746f6e20 	strbtvc	r6, [pc], #-3616	; bb1c <__FUNCTION__.4434+0xb0>
    bb18:	696c6120 	stmdbvs	ip!, {r5, r8, sp, lr}^
    bb1c:	64656e67 	strbtvs	r6, [r5], #-3687	; 0xe67
    bb20:	00000a21 	andeq	r0, r0, r1, lsr #20
    bb24:	494e4150 	stmdbmi	lr, {r4, r6, r8, lr}^
    bb28:	73253a43 	teqvc	r5, #274432	; 0x43000
    bb2c:	3a73253a 	bcc	1cd501c <__bss_end__+0x1cc8c94>
    bb30:	283a6425 	ldmdacs	sl!, {r0, r2, r5, sl, sp, lr}
    bb34:	733e2d66 	teqvc	lr, #6528	; 0x1980
    bb38:	625f6365 	subsvs	r6, pc, #-1811939327	; 0x94000001
    bb3c:	5f657361 	svcpl	0x00657361
    bb40:	72646461 	rsbvc	r6, r4, #1627389952	; 0x61000000
    bb44:	203c3c20 	eorscs	r3, ip, r0, lsr #24
    bb48:	20293032 	eorcs	r3, r9, r2, lsr r0
    bb4c:	61203d3d 	teqvs	r0, sp, lsr sp
    bb50:	0a726464 	beq	1ca4ce8 <__bss_end__+0x1c98960>
    bb54:	00000000 	andeq	r0, r0, r0
    bb58:	4f525245 	svcmi	0x00525245
    bb5c:	73253a52 	teqvc	r5, #335872	; 0x52000
    bb60:	3a73253a 	bcc	1cd5050 <__bss_end__+0x1cc8cc8>
    bb64:	203a6425 	eorscs	r6, sl, r5, lsr #8
    bb68:	534c4146 	movtpl	r4, #49478	; 0xc146
    bb6c:	213c2845 	teqcs	ip, r5, asr #16
    bb70:	2d657470 	cfstrdcs	mvd7, [r5, #-448]!	; 0xfffffe40
    bb74:	6761743e 			; <UNDEFINED> instruction: 0x6761743e
    bb78:	203a293e 	eorscs	r2, sl, lr, lsr r9
    bb7c:	65726c61 	ldrbvs	r6, [r2, #-3169]!	; 0xc61
    bb80:	20796461 	rsbscs	r6, r9, r1, ror #8
    bb84:	0a746573 	beq	1d25158 <__bss_end__+0x1d18dd0>
    bb88:	00000000 	andeq	r0, r0, r0
    bb8c:	4f525245 	svcmi	0x00525245
    bb90:	73253a52 	teqvc	r5, #335872	; 0x52000
    bb94:	3a73253a 	bcc	1cd5084 <__bss_end__+0x1cc8cfc>
    bb98:	203a6425 	eorscs	r6, sl, r5, lsr #8
    bb9c:	534c4146 	movtpl	r4, #49478	; 0xc146
    bba0:	703c2845 	eorsvc	r2, ip, r5, asr #16
    bba4:	206d7265 	rsbcs	r7, sp, r5, ror #4
    bba8:	30203d3c 	eorcc	r3, r0, ip, lsr sp
    bbac:	3e313162 	rsfccsz	f3, f1, f2
    bbb0:	69203a29 	stmdbvs	r0!, {r0, r3, r5, r9, fp, ip, sp}
    bbb4:	6c61766e 	stclvs	6, cr7, [r1], #-440	; 0xfffffe48
    bbb8:	70206469 	eorvc	r6, r0, r9, ror #8
    bbbc:	696d7265 	stmdbvs	sp!, {r0, r2, r5, r6, r9, ip, sp, lr}^
    bbc0:	6f697373 	svcvs	0x00697373
    bbc4:	00000a6e 	andeq	r0, r0, lr, ror #20

0000bbc8 <__FUNCTION__.4231>:
    bbc8:	74696d65 	strbtvc	r6, [r9], #-3429	; 0xd65
    bbcc:	00000000 	andeq	r0, r0, r0

0000bbd0 <__FUNCTION__.4179>:
    bbd0:	5f697072 	svcpl	0x00697072
    bbd4:	5f746573 	svcpl	0x00746573
    bbd8:	7074756f 	rsbsvc	r7, r4, pc, ror #10
    bbdc:	00007475 	andeq	r7, r0, r5, ror r4

0000bbe0 <__FUNCTION__.4253>:
    bbe0:	705f6176 	subsvc	r6, pc, r6, ror r1	; <UNPREDICTABLE>
    bbe4:	746e6972 	strbtvc	r6, [lr], #-2418	; 0x972
    bbe8:	0000006b 	andeq	r0, r0, fp, rrx
    bbec:	494e4150 	stmdbmi	lr, {r4, r6, r8, lr}^
    bbf0:	73253a43 	teqvc	r5, #274432	; 0x43000
    bbf4:	3a73253a 	bcc	1cd50e4 <__bss_end__+0x1cc8d5c>
    bbf8:	303a6425 	eorscc	r6, sl, r5, lsr #8
    bbfc:	0000000a 	andeq	r0, r0, sl
    bc00:	6362696c 	cmnvs	r2, #108, 18	; 0x1b0000
    bc04:	2d61762f 	stclcs	6, cr7, [r1, #-188]!	; 0xffffff44
    bc08:	6e697270 	mcrvs	2, 3, r7, cr9, cr0, {3}
    bc0c:	632e6b74 	teqvs	lr, #116, 22	; 0x1d000
    bc10:	00000000 	andeq	r0, r0, r0
    bc14:	33323130 	teqcc	r2, #48, 2
    bc18:	37363534 			; <UNDEFINED> instruction: 0x37363534
    bc1c:	00003938 	andeq	r3, r0, r8, lsr r9
    bc20:	33323130 	teqcc	r2, #48, 2
    bc24:	37363534 			; <UNDEFINED> instruction: 0x37363534
    bc28:	62613938 	rsbvs	r3, r1, #56, 18	; 0xe0000
    bc2c:	66656463 	strbtvs	r6, [r5], -r3, ror #8
    bc30:	00000000 	andeq	r0, r0, r0
    bc34:	00003130 	andeq	r3, r0, r0, lsr r1
    bc38:	494e4150 	stmdbmi	lr, {r4, r6, r8, lr}^
    bc3c:	73253a43 	teqvc	r5, #274432	; 0x43000
    bc40:	3a73253a 	bcc	1cd5130 <__bss_end__+0x1cc8da8>
    bc44:	703a6425 	eorsvc	r6, sl, r5, lsr #8
    bc48:	5f637475 	svcpl	0x00637475
    bc4c:	000a7066 	andeq	r7, sl, r6, rrx
    bc50:	494e4150 	stmdbmi	lr, {r4, r6, r8, lr}^
    bc54:	73253a43 	teqvc	r5, #274432	; 0x43000
    bc58:	3a73253a 	bcc	1cd5148 <__bss_end__+0x1cc8dc0>
    bc5c:	773a6425 	ldrvc	r6, [sl, -r5, lsr #8]!
    bc60:	68746469 	ldmdavs	r4!, {r0, r3, r5, r6, sl, sp, lr}^
    bc64:	33203c20 	teqcc	r0, #32, 24	; 0x2000
    bc68:	00000a32 	andeq	r0, r0, r2, lsr sl
    bc6c:	494e4150 	stmdbmi	lr, {r4, r6, r8, lr}^
    bc70:	73253a43 	teqvc	r5, #274432	; 0x43000
    bc74:	3a73253a 	bcc	1cd5164 <__bss_end__+0x1cc8ddc>
    bc78:	663a6425 	ldrtvs	r6, [sl], -r5, lsr #8
    bc7c:	74616f6c 	strbtvc	r6, [r1], #-3948	; 0xf6c
    bc80:	746f6e20 	strbtvc	r6, [pc], #-3616	; bc88 <__FUNCTION__.4253+0xa8>
    bc84:	616e6520 	cmnvs	lr, r0, lsr #10
    bc88:	64656c62 	strbtvs	r6, [r5], #-3170	; 0xc62
    bc8c:	0a212121 	beq	854118 <__bss_end__+0x847d90>
    bc90:	00000000 	andeq	r0, r0, r0
    bc94:	494e4150 	stmdbmi	lr, {r4, r6, r8, lr}^
    bc98:	73253a43 	teqvc	r5, #274432	; 0x43000
    bc9c:	3a73253a 	bcc	1cd518c <__bss_end__+0x1cc8e04>
    bca0:	703a6425 	eorsvc	r6, sl, r5, lsr #8
    bca4:	746e6972 	strbtvc	r6, [lr], #-2418	; 0x972
    bca8:	6e203a6b 	vnmulvs.f32	s6, s0, s23
    bcac:	6820746f 	stmdavs	r0!, {r0, r1, r2, r3, r5, r6, sl, ip, sp, lr}
    bcb0:	6c646e61 	stclvs	14, cr6, [r4], #-388	; 0xfffffe7c
    bcb4:	20676e69 	rsbcs	r6, r7, r9, ror #28
    bcb8:	63657073 	cmnvs	r5, #115	; 0x73
    bcbc:	65696669 	strbvs	r6, [r9, #-1641]!	; 0x669
    bcc0:	25272072 	strcs	r2, [r7, #-114]!	; 0x72
    bcc4:	0a0a2763 	beq	295a58 <__bss_end__+0x2896d0>
    bcc8:	00000000 	andeq	r0, r0, r0
    bccc:	454e4f44 	strbmi	r4, [lr, #-3908]	; 0xf44
    bcd0:	0a212121 	beq	85415c <__bss_end__+0x847dd4>
    bcd4:	00000000 	andeq	r0, r0, r0
    bcd8:	756f6261 	strbvc	r6, [pc, #-609]!	; ba7f <__FUNCTION__.4434+0x13>
    bcdc:	6f742074 	svcvs	0x00742074
    bce0:	69727020 	ldmdbvs	r2!, {r5, ip, sp, lr}^
    bce4:	6f20746e 	svcvs	0x0020746e
    bce8:	6572206e 	ldrbvs	r2, [r2, #-110]!	; 0x6e
    bcec:	616c7567 	cmnvs	ip, r7, ror #10
    bcf0:	72702072 	rsbsvc	r2, r0, #114	; 0x72
    bcf4:	66746e69 	ldrbtvs	r6, [r4], -r9, ror #28
    bcf8:	0000000a 	andeq	r0, r0, sl
    bcfc:	63637573 	cmnvs	r3, #482344960	; 0x1cc00000
    bd00:	21737365 	cmncs	r3, r5, ror #6
    bd04:	0000000a 	andeq	r0, r0, sl

0000bd08 <__FUNCTION__.4280>:
    bd08:	755f7773 	ldrbvc	r7, [pc, #-1907]	; b59d <__FUNCTION__.4553+0xa9>
    bd0c:	5f747261 	svcpl	0x00747261
    bd10:	73746567 	cmnvc	r4, #432013312	; 0x19c00000
    bd14:	746e755f 	strbtvc	r7, [lr], #-1375	; 0x55f
    bd18:	00006c69 	andeq	r6, r0, r9, ror #24

0000bd1c <__FUNCTION__.4292>:
    bd1c:	755f7773 	ldrbvc	r7, [pc, #-1907]	; b5b1 <__FUNCTION__.4553+0xbd>
    bd20:	5f747261 	svcpl	0x00747261
    bd24:	73746567 	cmnvc	r4, #432013312	; 0x19c00000
    bd28:	6d69745f 	cfstrdvs	mvd7, [r9, #-380]!	; 0xfffffe84
    bd2c:	74756f65 	ldrbtvc	r6, [r5], #-3941	; 0xf65
    bd30:	00000000 	andeq	r0, r0, r0

0000bd34 <__FUNCTION__.4306>:
    bd34:	755f7773 	ldrbvc	r7, [pc, #-1907]	; b5c9 <__FUNCTION__.4553+0xd5>
    bd38:	5f747261 	svcpl	0x00747261
    bd3c:	74696e69 	strbtvc	r6, [r9], #-3689	; 0xe69
    bd40:	6c65685f 	stclvs	8, cr6, [r5], #-380	; 0xfffffe84
    bd44:	00726570 	rsbseq	r6, r2, r0, ror r5

0000bd48 <__FUNCTION__.4312>:
    bd48:	755f7773 	ldrbvc	r7, [pc, #-1907]	; b5dd <__FUNCTION__.4553+0xe9>
    bd4c:	5f747261 	svcpl	0x00747261
    bd50:	63746567 	cmnvs	r4, #432013312	; 0x19c00000
    bd54:	00000000 	andeq	r0, r0, r0

0000bd58 <__FUNCTION__.4334>:
    bd58:	755f7773 	ldrbvc	r7, [pc, #-1907]	; b5ed <__FUNCTION__.4553+0xf9>
    bd5c:	5f747261 	svcpl	0x00747261
    bd60:	6e697270 	mcrvs	2, 3, r7, cr9, cr0, {3}
    bd64:	00006b74 	andeq	r6, r0, r4, ror fp

0000bd68 <__FUNCTION__.4342>:
    bd68:	755f7773 	ldrbvc	r7, [pc, #-1907]	; b5fd <__FUNCTION__.4553+0x109>
    bd6c:	5f747261 	svcpl	0x00747261
    bd70:	73746567 	cmnvc	r4, #432013312	; 0x19c00000
    bd74:	746e755f 	strbtvc	r7, [lr], #-1375	; 0x55f
    bd78:	625f6c69 	subsvs	r6, pc, #26880	; 0x6900
    bd7c:	00006b6c 	andeq	r6, r0, ip, ror #22
    bd80:	494e4150 	stmdbmi	lr, {r4, r6, r8, lr}^
    bd84:	73253a43 	teqvc	r5, #274432	; 0x43000
    bd88:	3a73253a 	bcc	1cd5278 <__bss_end__+0x1cc8ef0>
    bd8c:	6e3a6425 	cdpvs	4, 3, cr6, cr10, cr5, {1}
    bd90:	65747962 	ldrbvs	r7, [r4, #-2402]!	; 0x962
    bd94:	0a303e73 	beq	c1b768 <__bss_end__+0xc0f3e0>
    bd98:	00000000 	andeq	r0, r0, r0
    bd9c:	732d796d 	teqvc	sp, #1785856	; 0x1b4000
    bda0:	732f6372 	teqvc	pc, #-939524095	; 0xc8000001
    bda4:	61752d77 	cmnvs	r5, r7, ror sp
    bda8:	632e7472 	teqvs	lr, #1912602624	; 0x72000000
    bdac:	00000000 	andeq	r0, r0, r0
    bdb0:	494e4150 	stmdbmi	lr, {r4, r6, r8, lr}^
    bdb4:	73253a43 	teqvc	r5, #274432	; 0x43000
    bdb8:	3a73253a 	bcc	1cd52a8 <__bss_end__+0x1cc8f20>
    bdbc:	283a6425 	ldmdacs	sl!, {r0, r2, r5, sl, sp, lr}
    bdc0:	207a686d 	rsbscs	r6, sl, sp, ror #16
    bdc4:	6162202d 	cmnvs	r2, sp, lsr #32
    bdc8:	20296475 	eorcs	r6, r9, r5, ror r4
    bdcc:	64203d3c 	strtvs	r3, [r0], #-3388	; 0xd3c
    bdd0:	76697265 	strbtvc	r7, [r9], -r5, ror #4
    bdd4:	26206465 	strtcs	r6, [r0], -r5, ror #8
    bdd8:	65642026 	strbvs	r2, [r4, #-38]!	; 0x26
    bddc:	65766972 	ldrbvs	r6, [r6, #-2418]!	; 0x972
    bde0:	3d3c2064 	ldccc	0, cr2, [ip, #-400]!	; 0xfffffe70
    bde4:	686d2820 	stmdavs	sp!, {r5, fp, sp}^
    bde8:	202b207a 	eorcs	r2, fp, sl, ror r0
    bdec:	64756162 	ldrbtvs	r6, [r5], #-354	; 0x162
    bdf0:	00000a29 	andeq	r0, r0, r9, lsr #20
    bdf4:	494e4150 	stmdbmi	lr, {r4, r6, r8, lr}^
    bdf8:	73253a43 	teqvc	r5, #274432	; 0x43000
    bdfc:	3a73253a 	bcc	1cd52ec <__bss_end__+0x1cc8f64>
    be00:	693a6425 	ldmdbvs	sl!, {r0, r2, r5, sl, sp, lr}
    be04:	736f706d 	cmnvc	pc, #109	; 0x6d
    be08:	6c626973 	stclvs	9, cr6, [r2], #-460	; 0xfffffe34
    be0c:	68203a65 	stmdavs	r0!, {r0, r2, r5, r6, r9, fp, ip, sp}
    be10:	20657661 	rsbcs	r7, r5, r1, ror #12
    be14:	69206e61 	stmdbvs	r0!, {r0, r5, r6, r9, sl, fp, sp, lr}
    be18:	6e69666e 	cdpvs	6, 6, cr6, cr9, cr14, {3}
    be1c:	20657469 	rsbcs	r7, r5, r9, ror #8
    be20:	656d6974 	strbvs	r6, [sp, #-2420]!	; 0x974
    be24:	2174756f 	cmncs	r4, pc, ror #10
    be28:	00000a0a 	andeq	r0, r0, sl, lsl #20
    be2c:	494e4150 	stmdbmi	lr, {r4, r6, r8, lr}^
    be30:	73253a43 	teqvc	r5, #274432	; 0x43000
    be34:	3a73253a 	bcc	1cd5324 <__bss_end__+0x1cc8f9c>
    be38:	733a6425 	teqvc	sl, #620756992	; 0x25000000
    be3c:	203c207a 	eorscs	r2, ip, sl, ror r0
    be40:	657a6973 	ldrbvs	r6, [sl, #-2419]!	; 0x973
    be44:	6220666f 	eorvs	r6, r0, #116391936	; 0x6f00000
    be48:	312d6675 	teqcc	sp, r5, ror r6
    be4c:	0000000a 	andeq	r0, r0, sl

0000be50 <__FUNCTION__.4221>:
    be50:	74736166 	ldrbtvc	r6, [r3], #-358	; 0x166
    be54:	746e695f 	strbtvc	r6, [lr], #-2399	; 0x95f
    be58:	75727265 	ldrbvc	r7, [r2, #-613]!	; 0x265
    be5c:	765f7470 			; <UNDEFINED> instruction: 0x765f7470
    be60:	6f746365 	svcvs	0x00746365
    be64:	00000072 	andeq	r0, r0, r2, ror r0
    be68:	494e4150 	stmdbmi	lr, {r4, r6, r8, lr}^
    be6c:	73253a43 	teqvc	r5, #274432	; 0x43000
    be70:	3a73253a 	bcc	1cd5360 <__bss_end__+0x1cc8fd8>
    be74:	453a6425 	ldrmi	r6, [sl, #-1061]!	; 0x425
    be78:	524f5252 	subpl	r5, pc, #536870917	; 0x20000005
    be7c:	6e75203a 	mrcvs	0, 3, r2, cr5, cr10, {1}
    be80:	646e6168 	strbtvs	r6, [lr], #-360	; 0x168
    be84:	2064656c 	rsbcs	r6, r4, ip, ror #10
    be88:	65637865 	strbvs	r7, [r3, #-2149]!	; 0x865
    be8c:	6f697470 	svcvs	0x00697470
    be90:	253c206e 	ldrcs	r2, [ip, #-110]!	; 0x6e
    be94:	61203e73 	teqvs	r0, r3, ror lr
    be98:	43502074 	cmpmi	r0, #116	; 0x74
    be9c:	0a78253d 	beq	1e15398 <__bss_end__+0x1e09010>
    bea0:	0000000a 	andeq	r0, r0, sl
    bea4:	34317363 	ldrtcc	r7, [r1], #-867	; 0x363
    bea8:	692d6530 	pushvs	{r4, r5, r8, sl, sp, lr}
    beac:	7265746e 	rsbvc	r7, r5, #1845493760	; 0x6e000000
    beb0:	74707572 	ldrbtvc	r7, [r0], #-1394	; 0x572
    beb4:	746e692f 	strbtvc	r6, [lr], #-2351	; 0x92f
    beb8:	75727265 	ldrbvc	r7, [r2, #-613]!	; 0x265
    bebc:	2d737470 	cfldrdcs	mvd7, [r3, #-448]!	; 0xfffffe40
    bec0:	00632e63 	rsbeq	r2, r3, r3, ror #28
    bec4:	74736166 	ldrbtvc	r6, [r3], #-358	; 0x166
    bec8:	00000000 	andeq	r0, r0, r0

0000becc <__FUNCTION__.4207>:
    becc:	65736572 	ldrbvs	r6, [r3, #-1394]!	; 0x572
    bed0:	65765f74 	ldrbvs	r5, [r6, #-3956]!	; 0xf74
    bed4:	726f7463 	rsbvc	r7, pc, #1660944384	; 0x63000000
    bed8:	00000000 	andeq	r0, r0, r0
    bedc:	34317363 	ldrtcc	r7, [r1], #-867	; 0x363
    bee0:	692d6530 	pushvs	{r4, r5, r8, sl, sp, lr}
    bee4:	7265746e 	rsbvc	r7, r5, #1845493760	; 0x6e000000
    bee8:	74707572 	ldrbtvc	r7, [r0], #-1394	; 0x572
    beec:	6665642f 	strbtvs	r6, [r5], -pc, lsr #8
    bef0:	746c7561 	strbtvc	r7, [ip], #-1377	; 0x561
    bef4:	6e61682d 	cdpvs	8, 6, cr6, cr1, cr13, {1}
    bef8:	72656c64 	rsbvc	r6, r5, #100, 24	; 0x6400
    befc:	7365722d 	cmnvc	r5, #-805306366	; 0xd0000002
    bf00:	632e7465 	teqvs	lr, #1694498816	; 0x65000000
    bf04:	00000000 	andeq	r0, r0, r0
    bf08:	65736572 	ldrbvs	r6, [r3, #-1394]!	; 0x572
    bf0c:	00000074 	andeq	r0, r0, r4, ror r0

0000bf10 <__FUNCTION__.4207>:
    bf10:	65646e75 	strbvs	r6, [r4, #-3701]!	; 0xe75
    bf14:	656e6966 	strbvs	r6, [lr, #-2406]!	; 0x966
    bf18:	6e695f64 	cdpvs	15, 6, cr5, cr9, cr4, {3}
    bf1c:	75727473 	ldrbvc	r7, [r2, #-1139]!	; 0x473
    bf20:	6f697463 	svcvs	0x00697463
    bf24:	65765f6e 	ldrbvs	r5, [r6, #-3950]!	; 0xf6e
    bf28:	726f7463 	rsbvc	r7, pc, #1660944384	; 0x63000000
    bf2c:	00000000 	andeq	r0, r0, r0
    bf30:	34317363 	ldrtcc	r7, [r1], #-867	; 0x363
    bf34:	692d6530 	pushvs	{r4, r5, r8, sl, sp, lr}
    bf38:	7265746e 	rsbvc	r7, r5, #1845493760	; 0x6e000000
    bf3c:	74707572 	ldrbtvc	r7, [r0], #-1394	; 0x572
    bf40:	6665642f 	strbtvs	r6, [r5], -pc, lsr #8
    bf44:	746c7561 	strbtvc	r7, [ip], #-1377	; 0x561
    bf48:	6e61682d 	cdpvs	8, 6, cr6, cr1, cr13, {1}
    bf4c:	72656c64 	rsbvc	r6, r5, #100, 24	; 0x6400
    bf50:	646e752d 	strbtvs	r7, [lr], #-1325	; 0x52d
    bf54:	6e696665 	cdpvs	6, 6, cr6, cr9, cr5, {3}
    bf58:	692d6465 	pushvs	{r0, r2, r5, r6, sl, sp, lr}
    bf5c:	2e74736e 	cdpcs	3, 7, cr7, cr4, cr14, {3}
    bf60:	00000063 	andeq	r0, r0, r3, rrx
    bf64:	65646e75 	strbvs	r6, [r4, #-3701]!	; 0xe75
    bf68:	656e6966 	strbvs	r6, [lr, #-2406]!	; 0x966
    bf6c:	6e692064 	cdpvs	0, 6, cr2, cr9, cr4, {3}
    bf70:	00007473 	andeq	r7, r0, r3, ror r4

Disassembly of section .bss:

0000bf74 <__bss_start__>:
    bf74:	00000000 	andeq	r0, r0, r0

0000bf78 <buf.4179>:
	...

0000c378 <console_uart>:
	...

Disassembly of section .ARM.attributes:

00000000 <.ARM.attributes>:
   0:	00002a41 	andeq	r2, r0, r1, asr #20
   4:	61656100 	cmnvs	r5, r0, lsl #2
   8:	01006962 	tsteq	r0, r2, ror #18
   c:	00000020 	andeq	r0, r0, r0, lsr #32
  10:	4b5a3605 	blmi	168d82c <__bss_end__+0x16814a4>
  14:	08070600 	stmdaeq	r7, {r9, sl}
  18:	12010901 	andne	r0, r1, #16384	; 0x4000
  1c:	15011404 	strne	r1, [r1, #-1028]	; 0x404
  20:	18031701 	stmdane	r3, {r0, r8, r9, sl, ip}
  24:	22011a01 	andcs	r1, r1, #4096	; 0x1000
  28:	Address 0x0000000000000028 is out of bounds.


Disassembly of section .comment:

00000000 <.comment>:
   0:	3a434347 	bcc	10d0d24 <__bss_end__+0x10c499c>
   4:	4e472820 	cdpmi	8, 4, cr2, cr7, cr0, {1}
   8:	34202955 	strtcc	r2, [r0], #-2389	; 0x955
   c:	332e382e 	teqcc	lr, #3014656	; 0x2e0000
  10:	43434700 	movtmi	r4, #14080	; 0x3700
  14:	4728203a 			; <UNDEFINED> instruction: 0x4728203a
  18:	5420554e 	strtpl	r5, [r0], #-1358	; 0x54e
  1c:	736c6f6f 	cmnvc	ip, #444	; 0x1bc
  20:	726f6620 	rsbvc	r6, pc, #32, 12	; 0x2000000
  24:	6d724120 	ldfvse	f4, [r2, #-128]!	; 0xffffff80
  28:	626d4520 	rsbvs	r4, sp, #32, 10	; 0x8000000
  2c:	65646465 	strbvs	r6, [r4, #-1125]!	; 0x465
  30:	72502064 	subsvc	r2, r0, #100	; 0x64
  34:	7365636f 	cmnvc	r5, #-1140850687	; 0xbc000001
  38:	73726f73 	cmnvc	r2, #460	; 0x1cc
  3c:	322d3720 	eorcc	r3, sp, #32, 14	; 0x800000
  40:	2d383130 	ldfcss	f3, [r8, #-192]!	; 0xffffff40
  44:	752d3371 	strvc	r3, [sp, #-881]!	; 0x371
  48:	74616470 	strbtvc	r6, [r1], #-1136	; 0x470
  4c:	37202965 	strcc	r2, [r0, -r5, ror #18]!
  50:	312e332e 	teqcc	lr, lr, lsr #6
  54:	31303220 	teqcc	r0, r0, lsr #4
  58:	32363038 	eorscc	r3, r6, #56	; 0x38
  5c:	72282032 	eorvc	r2, r8, #50	; 0x32
  60:	61656c65 	cmnvs	r5, r5, ror #24
  64:	20296573 	eorcs	r6, r9, r3, ror r5
  68:	4d52415b 	ldfmie	f4, [r2, #-364]	; 0xfffffe94
  6c:	626d652f 	rsbvs	r6, sp, #197132288	; 0xbc00000
  70:	65646465 	strbvs	r6, [r4, #-1125]!	; 0x465
  74:	2d372d64 	ldccs	13, cr2, [r7, #-400]!	; 0xfffffe70
  78:	6e617262 	cdpvs	2, 6, cr7, cr1, cr2, {3}
  7c:	72206863 	eorvc	r6, r0, #6488064	; 0x630000
  80:	73697665 	cmnvc	r9, #105906176	; 0x6500000
  84:	206e6f69 	rsbcs	r6, lr, r9, ror #30
  88:	39313632 	ldmdbcc	r1!, {r1, r4, r5, r9, sl, ip, sp}
  8c:	005d3730 	subseq	r3, sp, r0, lsr r7

Disassembly of section .debug_info:

00000000 <.debug_info>:
       0:	00001771 	andeq	r1, r0, r1, ror r7
       4:	00000004 	andeq	r0, r0, r4
       8:	01040000 	mrseq	r0, (UNDEF: 4)
       c:	000003aa 	andeq	r0, r0, sl, lsr #7
      10:	0007a301 	andeq	sl, r7, r1, lsl #6
      14:	00011e00 	andeq	r1, r1, r0, lsl #28
      18:	00801000 	addeq	r1, r0, r0
      1c:	00090c00 	andeq	r0, r9, r0, lsl #24
      20:	00000000 	andeq	r0, r0, r0
      24:	05040200 	streq	r0, [r4, #-512]	; 0x200
      28:	00746e69 	rsbseq	r6, r4, r9, ror #28
      2c:	00003603 	andeq	r3, r0, r3, lsl #12
      30:	37d40200 	ldrbcc	r0, [r4, r0, lsl #4]
      34:	04000000 	streq	r0, [r0], #-0
      38:	00920704 	addseq	r0, r2, r4, lsl #14
      3c:	01040000 	mrseq	r0, (UNDEF: 4)
      40:	00030206 	andeq	r0, r3, r6, lsl #4
      44:	05020400 	streq	r0, [r2, #-1024]	; 0x400
      48:	0000032e 	andeq	r0, r0, lr, lsr #6
      4c:	b8050404 	stmdalt	r5, {r2, sl}
      50:	04000000 	streq	r0, [r0], #-0
      54:	00b30508 	adcseq	r0, r3, r8, lsl #10
      58:	6d030000 	stcvs	0, cr0, [r3, #-0]
      5c:	03000004 	movweq	r0, #4
      60:	0000652e 	andeq	r6, r0, lr, lsr #10
      64:	08010400 	stmdaeq	r1, {sl}
      68:	00000300 	andeq	r0, r0, r0, lsl #6
      6c:	e2070204 	and	r0, r7, #4, 4	; 0x40000000
      70:	03000001 	movweq	r0, #1
      74:	0000038b 	andeq	r0, r0, fp, lsl #7
      78:	007e3403 	rsbseq	r3, lr, r3, lsl #8
      7c:	04040000 	streq	r0, [r4], #-0
      80:	00008d07 	andeq	r8, r0, r7, lsl #26
      84:	07080400 	streq	r0, [r8, -r0, lsl #8]
      88:	00000088 	andeq	r0, r0, r8, lsl #1
      8c:	86070404 	strhi	r0, [r7], -r4, lsl #8
      90:	05000002 	streq	r0, [r0, #-2]
      94:	08010404 	stmdaeq	r1, {r2, sl}
      98:	00000309 	andeq	r0, r0, r9, lsl #6
      9c:	00a20406 	adceq	r0, r2, r6, lsl #8
      a0:	95070000 	strls	r0, [r7, #-0]
      a4:	08000000 	stmdaeq	r0, {}	; <UNPREDICTABLE>
      a8:	00000095 	muleq	r0, r5, r0
      ac:	000000b7 	strheq	r0, [r0], -r7
      b0:	00008c09 	andeq	r8, r0, r9, lsl #24
      b4:	0a000700 	beq	1cbc <_start-0x6344>
      b8:	0000026f 	andeq	r0, r0, pc, ror #4
      bc:	8d420404 	cfstrdhi	mvd0, [r2, #-16]
      c0:	0b000001 	bleq	cc <_start-0x7f34>
      c4:	00676174 	rsbeq	r6, r7, r4, ror r1
      c8:	00374404 	eorseq	r4, r7, r4, lsl #8
      cc:	02040000 	andeq	r0, r4, #0
      d0:	420b001e 	andmi	r0, fp, #30
      d4:	37450400 	strbcc	r0, [r5, -r0, lsl #8]
      d8:	04000000 	streq	r0, [r0], #-0
      dc:	0b001d01 	bleq	74e8 <_start-0xb18>
      e0:	46040043 	strmi	r0, [r4], -r3, asr #32
      e4:	00000037 	andeq	r0, r0, r7, lsr r0
      e8:	001c0104 	andseq	r0, ip, r4, lsl #2
      ec:	004e580b 	subeq	r5, lr, fp, lsl #16
      f0:	00374704 	eorseq	r4, r7, r4, lsl #14
      f4:	01040000 	mrseq	r0, (UNDEF: 4)
      f8:	970c001b 	smladls	ip, fp, r0, r0
      fc:	04000004 	streq	r0, [r0], #-4
     100:	0000374a 	andeq	r3, r0, sl, asr #14
     104:	17040400 	strne	r0, [r4, -r0, lsl #8]
     108:	4d490b00 	vstrmi	d16, [r9, #-0]
     10c:	4b040050 	blmi	100254 <__bss_end__+0xf3ecc>
     110:	00000037 	andeq	r0, r0, r7, lsr r0
     114:	00160104 	andseq	r0, r6, r4, lsl #2
     118:	0050410b 	subseq	r4, r0, fp, lsl #2
     11c:	00374e04 	eorseq	r4, r7, r4, lsl #28
     120:	02040000 	andeq	r0, r4, #0
     124:	540b0014 	strpl	r0, [fp], #-20
     128:	04005845 	streq	r5, [r0], #-2117	; 0x845
     12c:	0000374f 	andeq	r3, r0, pc, asr #14
     130:	11030400 	tstne	r3, r0, lsl #8
     134:	50410b00 	subpl	r0, r1, r0, lsl #22
     138:	50040058 	andpl	r0, r4, r8, asr r0
     13c:	00000037 	andeq	r0, r0, r7, lsr r0
     140:	00100104 	andseq	r0, r0, r4, lsl #2
     144:	0400530b 	streq	r5, [r0], #-779	; 0x30b
     148:	00003751 	andeq	r3, r0, r1, asr r7
     14c:	0f010400 	svceq	0x00010400
     150:	476e0b00 	strbmi	r0, [lr, -r0, lsl #22]!
     154:	37520400 	ldrbcc	r0, [r2, -r0, lsl #8]
     158:	04000000 	streq	r0, [r0], #-0
     15c:	0c000e01 	stceq	14, cr0, [r0], {1}
     160:	00000212 	andeq	r0, r0, r2, lsl r2
     164:	00375304 	eorseq	r5, r7, r4, lsl #6
     168:	01040000 	mrseq	r0, (UNDEF: 4)
     16c:	a40c000d 	strge	r0, [ip], #-13
     170:	04000004 	streq	r0, [r0], #-4
     174:	00003754 	andeq	r3, r0, r4, asr r7
     178:	0c010400 	cfstrseq	mvf0, [r1], {-0}
     17c:	00d80c00 	sbcseq	r0, r8, r0, lsl #24
     180:	55040000 	strpl	r0, [r4, #-0]
     184:	00000037 	andeq	r0, r0, r7, lsr r0
     188:	00000c04 	andeq	r0, r0, r4, lsl #24
     18c:	01960300 	orrseq	r0, r6, r0, lsl #6
     190:	56040000 	strpl	r0, [r4], -r0
     194:	000000b7 	strheq	r0, [r0], -r7
     198:	0004010a 	andeq	r0, r4, sl, lsl #2
     19c:	86040400 	strhi	r0, [r4], -r0, lsl #8
     1a0:	00000353 	andeq	r0, r0, r3, asr r3
     1a4:	0003500c 	andeq	r5, r3, ip
     1a8:	37880400 	strcc	r0, [r8, r0, lsl #8]
     1ac:	04000000 	streq	r0, [r0], #-0
     1b0:	0c001f01 	stceq	15, cr1, [r0], {1}
     1b4:	000000a7 	andeq	r0, r0, r7, lsr #1
     1b8:	00378904 	eorseq	r8, r7, r4, lsl #18
     1bc:	01040000 	mrseq	r0, (UNDEF: 4)
     1c0:	c60c001e 			; <UNDEFINED> instruction: 0xc60c001e
     1c4:	04000004 	streq	r0, [r0], #-4
     1c8:	0000378a 	andeq	r3, r0, sl, lsl #15
     1cc:	1d010400 	cfstrsne	mvf0, [r1, #-0]
     1d0:	03220c00 	teqeq	r2, #0, 24
     1d4:	8c040000 	stchi	0, cr0, [r4], {-0}
     1d8:	00000037 	andeq	r0, r0, r7, lsr r0
     1dc:	001c0104 	andseq	r0, ip, r4, lsl #2
     1e0:	00042b0c 	andeq	r2, r4, ip, lsl #22
     1e4:	378d0400 	strcc	r0, [sp, r0, lsl #8]
     1e8:	04000000 	streq	r0, [r0], #-0
     1ec:	0c001903 	stceq	9, cr1, [r0], {3}
     1f0:	0000004d 	andeq	r0, r0, sp, asr #32
     1f4:	00378e04 	eorseq	r8, r7, r4, lsl #28
     1f8:	01040000 	mrseq	r0, (UNDEF: 4)
     1fc:	380c0018 	stmdacc	ip, {r3, r4}
     200:	04000003 	streq	r0, [r0], #-3
     204:	0000378f 	andeq	r3, r0, pc, lsl #15
     208:	17010400 	strne	r0, [r1, -r0, lsl #8]
     20c:	02b60c00 	adcseq	r0, r6, #0, 24
     210:	90040000 	andls	r0, r4, r0
     214:	00000037 	andeq	r0, r0, r7, lsr r0
     218:	00160104 	andseq	r0, r6, r4, lsl #2
     21c:	0400460b 	streq	r4, [r0], #-1547	; 0x60b
     220:	00003791 	muleq	r0, r1, r7
     224:	15010400 	strne	r0, [r1, #-1024]	; 0x400
     228:	00000c00 	andeq	r0, r0, r0, lsl #24
     22c:	92040000 	andls	r0, r4, #0
     230:	00000037 	andeq	r0, r0, r7, lsr r0
     234:	00140104 	andseq	r0, r4, r4, lsl #2
     238:	0000600c 	andeq	r6, r0, ip
     23c:	37930400 	ldrcc	r0, [r3, r0, lsl #8]
     240:	04000000 	streq	r0, [r0], #-0
     244:	0c001301 	stceq	3, cr1, [r0], {1}
     248:	0000003d 	andeq	r0, r0, sp, lsr r0
     24c:	00379404 	eorseq	r9, r7, r4, lsl #8
     250:	01040000 	mrseq	r0, (UNDEF: 4)
     254:	050c0012 	streq	r0, [ip, #-18]
     258:	04000002 	streq	r0, [r0], #-2
     25c:	00003795 	muleq	r0, r5, r7
     260:	11010400 	tstne	r1, r0, lsl #8
     264:	344c0b00 	strbcc	r0, [ip], #-2816	; 0xb00
     268:	37960400 	ldrcc	r0, [r6, r0, lsl #8]
     26c:	04000000 	streq	r0, [r0], #-0
     270:	0b001001 	bleq	427c <_start-0x3d84>
     274:	0074645f 	rsbseq	r6, r4, pc, asr r4
     278:	00379704 	eorseq	r9, r7, r4, lsl #14
     27c:	01040000 	mrseq	r0, (UNDEF: 4)
     280:	9e0c000f 	cdpls	0, 0, cr0, cr12, cr15, {0}
     284:	04000004 	streq	r0, [r0], #-4
     288:	00003798 	muleq	r0, r8, r7
     28c:	0e010400 	cfcpyseq	mvf0, mvf1
     290:	695f0b00 	ldmdbvs	pc, {r8, r9, fp}^	; <UNPREDICTABLE>
     294:	99040074 	stmdbls	r4, {r2, r4, r5, r6}
     298:	00000037 	andeq	r0, r0, r7, lsr r0
     29c:	000d0104 	andeq	r0, sp, r4, lsl #2
     2a0:	0004a40c 	andeq	sl, r4, ip, lsl #8
     2a4:	379a0400 	ldrcc	r0, [sl, r0, lsl #8]
     2a8:	04000000 	streq	r0, [r0], #-0
     2ac:	0b000c01 	bleq	32b8 <_start-0x4d48>
     2b0:	0074735f 	rsbseq	r7, r4, pc, asr r3
     2b4:	00379b04 	eorseq	r9, r7, r4, lsl #22
     2b8:	01040000 	mrseq	r0, (UNDEF: 4)
     2bc:	460b000b 	strmi	r0, [fp], -fp
     2c0:	9c040031 	stcls	0, cr0, [r4], {49}	; 0x31
     2c4:	00000037 	andeq	r0, r0, r7, lsr r0
     2c8:	000a0104 	andeq	r0, sl, r4, lsl #2
     2cc:	00037f0c 	andeq	r7, r3, ip, lsl #30
     2d0:	379d0400 	ldrcc	r0, [sp, r0, lsl #8]
     2d4:	04000000 	streq	r0, [r0], #-0
     2d8:	0c000901 	stceq	9, cr0, [r0], {1}
     2dc:	000003a4 	andeq	r0, r0, r4, lsr #7
     2e0:	00379e04 	eorseq	r9, r7, r4, lsl #28
     2e4:	01040000 	mrseq	r0, (UNDEF: 4)
     2e8:	aa0c0008 	bge	300310 <__bss_end__+0x2f3f88>
     2ec:	04000002 	streq	r0, [r0], #-2
     2f0:	000037a0 	andeq	r3, r0, r0, lsr #15
     2f4:	07010400 	streq	r0, [r1, -r0, lsl #8]
     2f8:	45450b00 	strbmi	r0, [r5, #-2816]	; 0xb00
     2fc:	37a10400 	strcc	r0, [r1, r0, lsl #8]!
     300:	04000000 	streq	r0, [r0], #-0
     304:	0c000601 	stceq	6, cr0, [r0], {1}
     308:	000004bb 			; <UNDEFINED> instruction: 0x000004bb
     30c:	0037a204 	eorseq	sl, r7, r4, lsl #4
     310:	01040000 	mrseq	r0, (UNDEF: 4)
     314:	590c0005 	stmdbpl	ip, {r0, r2}
     318:	04000002 	streq	r0, [r0], #-2
     31c:	000037a3 	andeq	r3, r0, r3, lsr #15
     320:	04010400 	streq	r0, [r1], #-1024	; 0x400
     324:	030e0c00 	movweq	r0, #60416	; 0xec00
     328:	a4040000 	strge	r0, [r4], #-0
     32c:	00000037 	andeq	r0, r0, r7, lsr r0
     330:	00030104 	andeq	r0, r3, r4, lsl #2
     334:	0002e60c 	andeq	lr, r2, ip, lsl #12
     338:	37a50400 	strcc	r0, [r5, r0, lsl #8]!
     33c:	04000000 	streq	r0, [r0], #-0
     340:	0c000201 	sfmeq	f0, 4, [r0], {1}
     344:	00000264 	andeq	r0, r0, r4, ror #4
     348:	0037a604 	eorseq	sl, r7, r4, lsl #12
     34c:	02040000 	andeq	r0, r4, #0
     350:	03000000 	movweq	r0, #0
     354:	0000041a 	andeq	r0, r0, sl, lsl r4
     358:	0198a704 	orrseq	sl, r8, r4, lsl #14
     35c:	9f0a0000 	svcls	0x000a0000
     360:	04000000 	streq	r0, [r0], #-0
     364:	0377bd04 	cmneq	r7, #4, 26	; 0x100
     368:	8e0d0000 	cdphi	0, 0, cr0, cr13, cr0, {0}
     36c:	04000006 	streq	r0, [r0], #-6
     370:	000037ca 	andeq	r3, r0, sl, asr #15
     374:	0e000000 	cdpeq	0, 0, cr0, cr0, cr0, {0}
     378:	92510101 	subsls	r0, r1, #1073741824	; 0x40000000
     37c:	0f000003 	svceq	0x00000003
     380:	000001ff 	strdeq	r0, [r0], -pc	; <UNPREDICTABLE>
     384:	048a0f03 	streq	r0, [sl], #3843	; 0xf03
     388:	0f000000 	svceq	0x00000000
     38c:	000000c1 	andeq	r0, r0, r1, asr #1
     390:	04100002 	ldreq	r0, [r0], #-2
     394:	0403ca01 	streq	ip, [r3], #-2561	; 0xa01
     398:	3b0c0000 	blcc	3003a0 <__bss_end__+0x2f4018>
     39c:	01000004 	tsteq	r0, r4
     3a0:	000037cb 	andeq	r3, r0, fp, asr #15
     3a4:	1c040400 	cfstrsne	mvf0, [r4], {-0}
     3a8:	04970c00 	ldreq	r0, [r7], #3072	; 0xc00
     3ac:	cc010000 	stcgt	0, cr0, [r1], {-0}
     3b0:	00000037 	andeq	r0, r0, r7, lsr r0
     3b4:	00180404 	andseq	r0, r8, r4, lsl #8
     3b8:	0001910c 	andeq	r9, r1, ip, lsl #2
     3bc:	37cd0100 	strbcc	r0, [sp, r0, lsl #2]
     3c0:	04000000 	streq	r0, [r0], #-0
     3c4:	0c001701 	stceq	7, cr1, [r0], {1}
     3c8:	0000040e 	andeq	r0, r0, lr, lsl #8
     3cc:	0037ce01 	eorseq	ip, r7, r1, lsl #28
     3d0:	01040000 	mrseq	r0, (UNDEF: 4)
     3d4:	560c0016 			; <UNDEFINED> instruction: 0x560c0016
     3d8:	01000000 	mrseq	r0, (UNDEF: 0)
     3dc:	000037cf 	andeq	r3, r0, pc, asr #15
     3e0:	15010400 	strne	r0, [r1, #-1024]	; 0x400
     3e4:	72770b00 	rsbsvc	r0, r7, #0, 22
     3e8:	37d00100 	ldrbcc	r0, [r0, r0, lsl #2]
     3ec:	04000000 	streq	r0, [r0], #-0
     3f0:	0c001401 	cfstrseq	mvf1, [r0], {1}
     3f4:	00000414 	andeq	r0, r0, r4, lsl r4
     3f8:	0037d101 	eorseq	sp, r7, r1, lsl #2
     3fc:	14040000 	strne	r0, [r4], #-0
     400:	03000000 	movweq	r0, #0
     404:	000000f0 	strdeq	r0, [r0], -r0	; <UNPREDICTABLE>
     408:	0392d201 	orrseq	sp, r2, #268435456	; 0x10000000
     40c:	010e0000 	mrseq	r0, (UNDEF: 14)
     410:	0435d501 	ldrteq	sp, [r5], #-1281	; 0x501
     414:	e60f0000 	str	r0, [pc], -r0
     418:	01000000 	mrseq	r0, (UNDEF: 0)
     41c:	00028f0f 	andeq	r8, r2, pc, lsl #30
     420:	f20f0000 	vhadd.s8	d0, d15, d0
     424:	03000002 	movweq	r0, #2
     428:	0001ab0f 	andeq	sl, r1, pc, lsl #22
     42c:	420f0500 	andmi	r0, pc, #0, 10
     430:	0d000004 	stceq	0, cr0, [r0, #-16]
     434:	04e61100 	strbteq	r1, [r6], #256	; 0x100
     438:	1e010000 	cdpne	0, 0, cr0, cr1, cr0, {0}
     43c:	00008010 	andeq	r8, r0, r0, lsl r0
     440:	0000005c 	andeq	r0, r0, ip, asr r0
     444:	04db9c01 	ldrbeq	r9, [fp], #3073	; 0xc01
     448:	8e120000 	cdphi	0, 1, cr0, cr2, cr0, {0}
     44c:	01000006 	tsteq	r0, r6
     450:	0004db1e 	andeq	sp, r4, lr, lsl fp
     454:	00000000 	andeq	r0, r0, r0
     458:	67721300 	ldrbvs	r1, [r2, -r0, lsl #6]!
     45c:	1e01006e 	cdpne	0, 0, cr0, cr1, cr14, {3}
     460:	000004db 	ldrdeq	r0, [r0], -fp
     464:	00000034 	andeq	r0, r0, r4, lsr r0
     468:	01006e13 	tsteq	r0, r3, lsl lr
     46c:	0000371e 	andeq	r3, r0, lr, lsl r7
     470:	00006800 	andeq	r6, r0, r0, lsl #16
     474:	01bf1400 			; <UNDEFINED> instruction: 0x01bf1400
     478:	04f10000 	ldrbteq	r0, [r1], #0
     47c:	03050000 	movweq	r0, #20480	; 0x5000
     480:	0000af60 	andeq	sl, r0, r0, ror #30
     484:	01007215 	tsteq	r0, r5, lsl r2
     488:	00003722 	andeq	r3, r0, r2, lsr #14
     48c:	0000a200 	andeq	sl, r0, r0, lsl #4
     490:	80281600 	eorhi	r1, r8, r0, lsl #12
     494:	16320000 	ldrtne	r0, [r2], -r0
     498:	3c170000 	ldccc	0, cr0, [r7], {-0}
     49c:	39000080 	stmdbcc	r0, {r7}
     4a0:	c8000016 	stmdagt	r0, {r1, r2, r4}
     4a4:	18000004 	stmdane	r0, {r2}
     4a8:	4f015301 	svcmi	0x00015301
     4ac:	05520118 	ldrbeq	r0, [r2, #-280]	; 0x118
     4b0:	00af6003 	adceq	r6, pc, r3
     4b4:	51011800 	tstpl	r1, r0, lsl #16
     4b8:	ba8c0305 	blt	fe3010d4 <__bss_end__+0xfe2f4d4c>
     4bc:	01180000 	tsteq	r8, r0
     4c0:	04030550 	streq	r0, [r3], #-1360	; 0x550
     4c4:	000000b0 	strheq	r0, [r0], -r0	; <UNPREDICTABLE>
     4c8:	00804016 	addeq	r4, r0, r6, lsl r0
     4cc:	00164f00 	andseq	r4, r6, r0, lsl #30
     4d0:	80441600 	subhi	r1, r4, r0, lsl #12
     4d4:	16560000 	ldrbne	r0, [r6], -r0
     4d8:	06000000 	streq	r0, [r0], -r0
     4dc:	00003704 	andeq	r3, r0, r4, lsl #14
     4e0:	00950800 	addseq	r0, r5, r0, lsl #16
     4e4:	04f10000 	ldrbteq	r0, [r1], #0
     4e8:	8c090000 	stchi	0, cr0, [r9], {-0}
     4ec:	09000000 	stmdbeq	r0, {}	; <UNPREDICTABLE>
     4f0:	04e10700 	strbteq	r0, [r1], #1792	; 0x700
     4f4:	dc110000 	ldcle	0, cr0, [r1], {-0}
     4f8:	01000002 	tsteq	r0, r2
     4fc:	00806c27 	addeq	r6, r0, r7, lsr #24
     500:	00005c00 	andeq	r5, r0, r0, lsl #24
     504:	9d9c0100 	ldflss	f0, [ip]
     508:	12000005 	andne	r0, r0, #5
     50c:	0000068e 	andeq	r0, r0, lr, lsl #13
     510:	04db2701 	ldrbeq	r2, [fp], #1793	; 0x701
     514:	00b50000 	adcseq	r0, r5, r0
     518:	72130000 	andsvc	r0, r3, #0
     51c:	01006e67 	tsteq	r0, r7, ror #28
     520:	0004db27 	andeq	sp, r4, r7, lsr #22
     524:	0000e900 	andeq	lr, r0, r0, lsl #18
     528:	006e1300 	rsbeq	r1, lr, r0, lsl #6
     52c:	00372701 	eorseq	r2, r7, r1, lsl #14
     530:	011d0000 	tsteq	sp, r0
     534:	bf140000 	svclt	0x00140000
     538:	9d000001 	stcls	0, cr0, [r0, #-4]
     53c:	05000005 	streq	r0, [r0, #-5]
     540:	00af6c03 	adceq	r6, pc, r3, lsl #24
     544:	00721500 	rsbseq	r1, r2, r0, lsl #10
     548:	00372b01 	eorseq	r2, r7, r1, lsl #22
     54c:	01570000 	cmpeq	r7, r0
     550:	84160000 	ldrhi	r0, [r6], #-0
     554:	32000080 	andcc	r0, r0, #128	; 0x80
     558:	17000016 	smladne	r0, r6, r0, r0
     55c:	00008098 	muleq	r0, r8, r0
     560:	00001639 	andeq	r1, r0, r9, lsr r6
     564:	0000058a 	andeq	r0, r0, sl, lsl #11
     568:	02530118 	subseq	r0, r3, #24, 2
     56c:	01182808 	tsteq	r8, r8, lsl #16
     570:	6c030552 	cfstr32vs	mvfx0, [r3], {82}	; 0x52
     574:	180000af 	stmdane	r0, {r0, r1, r2, r3, r5, r7}
     578:	03055101 	movweq	r5, #20737	; 0x5101
     57c:	0000ba8c 	andeq	fp, r0, ip, lsl #21
     580:	05500118 	ldrbeq	r0, [r0, #-280]	; 0x118
     584:	00b00403 	adcseq	r0, r0, r3, lsl #8
     588:	9c160000 	ldcls	0, cr0, [r6], {-0}
     58c:	4f000080 	svcmi	0x00000080
     590:	16000016 			; <UNDEFINED> instruction: 0x16000016
     594:	000080a0 	andeq	r8, r0, r0, lsr #1
     598:	00001661 	andeq	r1, r0, r1, ror #12
     59c:	04e10700 	strbteq	r0, [r1], #1792	; 0x700
     5a0:	3f110000 	svccc	0x00110000
     5a4:	01000003 	tsteq	r0, r3
     5a8:	0080c83f 	addeq	ip, r0, pc, lsr r8
     5ac:	00002800 	andeq	r2, r0, r0, lsl #16
     5b0:	eb9c0100 	bl	fe7009b8 <__bss_end__+0xfe6f4630>
     5b4:	17000005 	strne	r0, [r0, -r5]
     5b8:	000080d4 	ldrdeq	r8, [r0], -r4
     5bc:	00001639 	andeq	r1, r0, r9, lsr r6
     5c0:	000005ce 	andeq	r0, r0, lr, asr #11
     5c4:	05500118 	ldrbeq	r0, [r0, #-280]	; 0x118
     5c8:	00b01c03 	adcseq	r1, r0, r3, lsl #24
     5cc:	d8160000 	ldmdale	r6, {}	; <UNPREDICTABLE>
     5d0:	6c000080 	stcvs	0, cr0, [r0], {128}	; 0x80
     5d4:	19000016 	stmdbne	r0, {r1, r2, r4}
     5d8:	000080e4 	andeq	r8, r0, r4, ror #1
     5dc:	00001639 	andeq	r1, r0, r9, lsr r6
     5e0:	05500118 	ldrbeq	r0, [r0, #-280]	; 0x118
     5e4:	00b03403 	adcseq	r3, r0, r3, lsl #8
     5e8:	1a000000 	bne	5f0 <_start-0x7a10>
     5ec:	000007ac 	andeq	r0, r0, ip, lsr #15
     5f0:	067d4901 	ldrbteq	r4, [sp], -r1, lsl #18
     5f4:	80f00000 	rscshi	r0, r0, r0
     5f8:	002c0000 	eoreq	r0, ip, r0
     5fc:	9c010000 	stcls	0, cr0, [r1], {-0}
     600:	0000067d 	andeq	r0, r0, sp, ror r6
     604:	00747013 	rsbseq	r7, r4, r3, lsl r0
     608:	067d4901 	ldrbteq	r4, [sp], -r1, lsl #18
     60c:	016a0000 	cmneq	sl, r0
     610:	76130000 	ldrvc	r0, [r3], -r0
     614:	49010061 	stmdbmi	r1, {r0, r5, r6}
     618:	00000037 	andeq	r0, r0, r7, lsr r0
     61c:	0000018b 	andeq	r0, r0, fp, lsl #3
     620:	6574701b 	ldrbvs	r7, [r4, #-27]!
     624:	7d4a0100 	stfvce	f0, [sl, #-0]
     628:	00000006 	andeq	r0, r0, r6
     62c:	0001bf14 	andeq	fp, r1, r4, lsl pc
     630:	00069300 	andeq	r9, r6, r0, lsl #6
     634:	78030500 	stmdavc	r3, {r8, sl}
     638:	160000af 	strne	r0, [r0], -pc, lsr #1
     63c:	000080f8 	strdeq	r8, [r0], -r8	; <UNPREDICTABLE>
     640:	00001632 	andeq	r1, r0, r2, lsr r6
     644:	00810c17 	addeq	r0, r1, r7, lsl ip
     648:	00163900 	andseq	r3, r6, r0, lsl #18
     64c:	00067300 	andeq	r7, r6, r0, lsl #6
     650:	53011800 	movwpl	r1, #6144	; 0x1800
     654:	184b0802 	stmdane	fp, {r1, fp}^
     658:	03055201 	movweq	r5, #20993	; 0x5201
     65c:	0000af78 	andeq	sl, r0, r8, ror pc
     660:	05510118 	ldrbeq	r0, [r1, #-280]	; 0x118
     664:	00ba8c03 	adcseq	r8, sl, r3, lsl #24
     668:	50011800 	andpl	r1, r1, r0, lsl #16
     66c:	b03c0305 	eorslt	r0, ip, r5, lsl #6
     670:	16000000 	strne	r0, [r0], -r0
     674:	00008110 	andeq	r8, r0, r0, lsl r1
     678:	0000164f 	andeq	r1, r0, pc, asr #12
     67c:	8d040600 	stchi	6, cr0, [r4, #-0]
     680:	08000001 	stmdaeq	r0, {r0}
     684:	00000095 	muleq	r0, r5, r0
     688:	00000693 	muleq	r0, r3, r6
     68c:	00008c09 	andeq	r8, r0, r9, lsl #24
     690:	07001200 	streq	r1, [r0, -r0, lsl #4]
     694:	00000683 	andeq	r0, r0, r3, lsl #13
     698:	00064f11 	andeq	r4, r6, r1, lsl pc
     69c:	1c5b0100 	ldfnee	f0, [fp], {-0}
     6a0:	44000081 	strmi	r0, [r0], #-129	; 0x81
     6a4:	01000000 	mrseq	r0, (UNDEF: 0)
     6a8:	00071b9c 	muleq	r7, ip, fp
     6ac:	74701300 	ldrbtvc	r1, [r0], #-768	; 0x300
     6b0:	7d5b0100 	ldfvce	f0, [fp, #-0]
     6b4:	ac000006 	stcge	0, cr0, [r0], {6}
     6b8:	13000001 	movwne	r0, #1
     6bc:	01006176 	tsteq	r0, r6, ror r1
     6c0:	0000375b 	andeq	r3, r0, fp, asr r7
     6c4:	0001cd00 	andeq	ip, r1, r0, lsl #26
     6c8:	005b1200 	subseq	r1, fp, r0, lsl #4
     6cc:	5b010000 	blpl	406d4 <__bss_end__+0x3434c>
     6d0:	00000037 	andeq	r0, r0, r7, lsr r0
     6d4:	000001ee 	andeq	r0, r0, lr, ror #3
     6d8:	00065f12 	andeq	r5, r6, r2, lsl pc
     6dc:	375b0100 	ldrbcc	r0, [fp, -r0, lsl #2]
     6e0:	0f000000 	svceq	0x00000000
     6e4:	15000002 	strne	r0, [r0, #-2]
     6e8:	00657470 	rsbeq	r7, r5, r0, ror r4
     6ec:	067d5d01 	ldrbteq	r5, [sp], -r1, lsl #26
     6f0:	02300000 	eorseq	r0, r0, #0
     6f4:	281c0000 	ldmdacs	ip, {}	; <UNPREDICTABLE>
     6f8:	30000081 	andcc	r0, r0, r1, lsl #1
     6fc:	11000000 	mrsne	r0, (UNDEF: 0)
     700:	15000007 	strne	r0, [r0, #-7]
     704:	5e010069 	cdppl	0, 0, cr0, cr1, cr9, {3}
     708:	0000002c 	andeq	r0, r0, ip, lsr #32
     70c:	00000259 	andeq	r0, r0, r9, asr r2
     710:	815c1600 	cmphi	ip, r0, lsl #12
     714:	16770000 	ldrbtne	r0, [r7], -r0
     718:	11000000 	mrsne	r0, (UNDEF: 0)
     71c:	00000020 	andeq	r0, r0, r0, lsr #32
     720:	81606301 	cmnhi	r0, r1, lsl #6
     724:	00100000 	andseq	r0, r0, r0
     728:	9c010000 	stcls	0, cr0, [r1], {-0}
     72c:	00000780 	andeq	r0, r0, r0, lsl #15
     730:	00747013 	rsbseq	r7, r4, r3, lsl r0
     734:	067d6301 	ldrbteq	r6, [sp], -r1, lsl #6
     738:	02780000 	rsbseq	r0, r8, #0
     73c:	76130000 	ldrvc	r0, [r3], -r0
     740:	63010061 	movwvs	r0, #4193	; 0x1061
     744:	00000037 	andeq	r0, r0, r7, lsr r0
     748:	00000299 	muleq	r0, r9, r2
     74c:	00005b12 	andeq	r5, r0, r2, lsl fp
     750:	37630100 	strbcc	r0, [r3, -r0, lsl #2]!
     754:	ba000000 	blt	75c <_start-0x78a4>
     758:	19000002 	stmdbne	r0, {r1}
     75c:	0000816c 	andeq	r8, r0, ip, ror #2
     760:	00000698 	muleq	r0, r8, r6
     764:	01530118 	cmpeq	r3, r8, lsl r1
     768:	52011832 	andpl	r1, r1, #3276800	; 0x320000
     76c:	5201f303 	andpl	pc, r1, #201326592	; 0xc000000
     770:	03510118 	cmpeq	r1, #24, 2
     774:	185101f3 	ldmdane	r1, {r0, r1, r4, r5, r6, r7, r8}^
     778:	f3035001 	vhadd.u8	d5, d3, d1
     77c:	00005001 	andeq	r5, r0, r1
     780:	00022a11 	andeq	r2, r2, r1, lsl sl
     784:	70660100 	rsbvc	r0, r6, r0, lsl #2
     788:	10000081 	andne	r0, r0, r1, lsl #1
     78c:	01000000 	mrseq	r0, (UNDEF: 0)
     790:	0007e59c 	muleq	r7, ip, r5
     794:	74701300 	ldrbtvc	r1, [r0], #-768	; 0x300
     798:	7d660100 	stfvce	f0, [r6, #-0]
     79c:	db000006 	blle	7bc <_start-0x7844>
     7a0:	13000002 	movwne	r0, #2
     7a4:	01006176 	tsteq	r0, r6, ror r1
     7a8:	00003766 	andeq	r3, r0, r6, ror #14
     7ac:	0002fc00 	andeq	pc, r2, r0, lsl #24
     7b0:	005b1200 	subseq	r1, fp, r0, lsl #4
     7b4:	66010000 	strvs	r0, [r1], -r0
     7b8:	00000037 	andeq	r0, r0, r7, lsr r0
     7bc:	0000031d 	andeq	r0, r0, sp, lsl r3
     7c0:	00817c19 	addeq	r7, r1, r9, lsl ip
     7c4:	00069800 	andeq	r9, r6, r0, lsl #16
     7c8:	53011800 	movwpl	r1, #6144	; 0x1800
     7cc:	01183301 	tsteq	r8, r1, lsl #6
     7d0:	01f30352 	mvnseq	r0, r2, asr r3
     7d4:	51011852 	tstpl	r1, r2, asr r8
     7d8:	5101f303 	tstpl	r1, r3, lsl #6
     7dc:	03500118 	cmpeq	r0, #24, 2
     7e0:	005001f3 	ldrsheq	r0, [r0], #-19	; 0xffffffed
     7e4:	04f61100 	ldrbteq	r1, [r6], #256	; 0x100
     7e8:	69010000 	stmdbvs	r1, {}	; <UNPREDICTABLE>
     7ec:	00008180 	andeq	r8, r0, r0, lsl #3
     7f0:	00000010 	andeq	r0, r0, r0, lsl r0
     7f4:	084a9c01 	stmdaeq	sl, {r0, sl, fp, ip, pc}^
     7f8:	70130000 	andsvc	r0, r3, r0
     7fc:	69010074 	stmdbvs	r1, {r2, r4, r5, r6}
     800:	0000067d 	andeq	r0, r0, sp, ror r6
     804:	0000033e 	andeq	r0, r0, lr, lsr r3
     808:	00617613 	rsbeq	r7, r1, r3, lsl r6
     80c:	00376901 	eorseq	r6, r7, r1, lsl #18
     810:	035f0000 	cmpeq	pc, #0
     814:	5b120000 	blpl	48081c <__bss_end__+0x474494>
     818:	01000000 	mrseq	r0, (UNDEF: 0)
     81c:	00003769 	andeq	r3, r0, r9, ror #14
     820:	00038000 	andeq	r8, r3, r0
     824:	818c1900 	orrhi	r1, ip, r0, lsl #18
     828:	06980000 	ldreq	r0, [r8], r0
     82c:	01180000 	tsteq	r8, r0
     830:	18300153 	ldmdane	r0!, {r0, r1, r4, r6, r8}
     834:	f3035201 	vhsub.u8	d5, d3, d1
     838:	01185201 	tsteq	r8, r1, lsl #4
     83c:	01f30351 	mvnseq	r0, r1, asr r3
     840:	50011851 	andpl	r1, r1, r1, asr r8
     844:	5001f303 	andpl	pc, r1, r3, lsl #6
     848:	2f1a0000 	svccs	0x001a0000
     84c:	01000007 	tsteq	r0, r7
     850:	00067d74 	andeq	r7, r6, r4, ror sp
     854:	00819000 	addeq	r9, r1, r0
     858:	0000d000 	andeq	sp, r0, r0
     85c:	b89c0100 	ldmlt	ip, {r8}
     860:	13000009 	movwne	r0, #9
     864:	01007470 	tsteq	r0, r0, ror r4
     868:	00067d74 	andeq	r7, r6, r4, ror sp
     86c:	0003a100 	andeq	sl, r3, r0, lsl #2
     870:	61761300 	cmnvs	r6, r0, lsl #6
     874:	37740100 	ldrbcc	r0, [r4, -r0, lsl #2]!
     878:	eb000000 	bl	880 <_start-0x7780>
     87c:	13000003 	movwne	r0, #3
     880:	01006170 	tsteq	r0, r0, ror r1
     884:	00003774 	andeq	r3, r0, r4, ror r7
     888:	00044300 	andeq	r4, r4, r0, lsl #6
     88c:	01bf1400 			; <UNDEFINED> instruction: 0x01bf1400
     890:	09c80000 	stmibeq	r8, {}^	; <UNPREDICTABLE>
     894:	03050000 	movweq	r0, #20480	; 0x5000
     898:	0000af8c 	andeq	sl, r0, ip, lsl #31
     89c:	0000821d 	andeq	r8, r0, sp, lsl r2
     8a0:	8d790100 	ldfhie	f0, [r9, #-0]
     8a4:	9b000001 	blls	8b0 <_start-0x7750>
     8a8:	1e000004 	cdpne	0, 0, cr0, cr0, cr4, {0}
     8ac:	01003163 	tsteq	r0, r3, ror #2
     8b0:	0001987b 	andeq	r9, r1, fp, ror r8
     8b4:	74701f00 	ldrbtvc	r1, [r0], #-3840	; 0xf00
     8b8:	8f010065 	svchi	0x00010065
     8bc:	0000067d 	andeq	r0, r0, sp, ror r6
     8c0:	ac165501 	cfldr32ge	mvfx5, [r6], {1}
     8c4:	32000081 	andcc	r0, r0, #129	; 0x81
     8c8:	17000016 	smladne	r0, r6, r0, r0
     8cc:	000081c0 	andeq	r8, r0, r0, asr #3
     8d0:	00001639 	andeq	r1, r0, r9, lsr r6
     8d4:	000008fa 	strdeq	r0, [r0], -sl
     8d8:	02530118 	subseq	r0, r3, #24, 2
     8dc:	01187508 	tsteq	r8, r8, lsl #10
     8e0:	8c030552 	cfstr32hi	mvfx0, [r3], {82}	; 0x52
     8e4:	180000af 	stmdane	r0, {r0, r1, r2, r3, r5, r7}
     8e8:	03055101 	movweq	r5, #20737	; 0x5101
     8ec:	0000ba8c 	andeq	fp, r0, ip, lsl #21
     8f0:	05500118 	ldrbeq	r0, [r0, #-280]	; 0x118
     8f4:	00b06803 	adcseq	r6, r0, r3, lsl #16
     8f8:	c4160000 	ldrgt	r0, [r6], #-0
     8fc:	4f000081 	svcmi	0x00000081
     900:	16000016 			; <UNDEFINED> instruction: 0x16000016
     904:	000081d0 	ldrdeq	r8, [r0], -r0
     908:	00001632 	andeq	r1, r0, r2, lsr r6
     90c:	0081e417 	addeq	lr, r1, r7, lsl r4
     910:	00163900 	andseq	r3, r6, r0, lsl #18
     914:	00093b00 	andeq	r3, r9, r0, lsl #22
     918:	53011800 	movwpl	r1, #6144	; 0x1800
     91c:	18760802 	ldmdane	r6!, {r1, fp}^
     920:	03055201 	movweq	r5, #20993	; 0x5201
     924:	0000af8c 	andeq	sl, r0, ip, lsl #31
     928:	05510118 	ldrbeq	r0, [r1, #-280]	; 0x118
     92c:	00ba8c03 	adcseq	r8, sl, r3, lsl #24
     930:	50011800 	andpl	r1, r1, r0, lsl #16
     934:	b08c0305 	addlt	r0, ip, r5, lsl #6
     938:	16000000 	strne	r0, [r0], -r0
     93c:	000081e8 	andeq	r8, r0, r8, ror #3
     940:	0000164f 	andeq	r1, r0, pc, asr #12
     944:	0081ec16 	addeq	lr, r1, r6, lsl ip
     948:	00167e00 	andseq	r7, r6, r0, lsl #28
     94c:	81f41600 	mvnshi	r1, r0, lsl #12
     950:	16890000 	strne	r0, [r9], r0
     954:	f8160000 			; <UNDEFINED> instruction: 0xf8160000
     958:	7e000081 	cdpvc	0, 0, cr0, cr0, cr1, {4}
     95c:	16000016 			; <UNDEFINED> instruction: 0x16000016
     960:	00008218 	andeq	r8, r0, r8, lsl r2
     964:	00001677 	andeq	r1, r0, r7, ror r6
     968:	00822017 	addeq	r2, r2, r7, lsl r0
     96c:	00169a00 	andseq	r9, r6, r0, lsl #20
     970:	00097c00 	andeq	r7, r9, r0, lsl #24
     974:	50011800 	andpl	r1, r1, r0, lsl #16
     978:	00007502 	andeq	r7, r0, r2, lsl #10
     97c:	00823017 	addeq	r3, r2, r7, lsl r0
     980:	00163900 	andseq	r3, r6, r0, lsl #18
     984:	00099900 	andeq	r9, r9, r0, lsl #18
     988:	51011800 	tstpl	r1, r0, lsl #16
     98c:	18007402 	stmdane	r0, {r1, sl, ip, sp, lr}
     990:	03055001 	movweq	r5, #20481	; 0x5001
     994:	0000b0b0 	strheq	fp, [r0], -r0
     998:	82401900 	subhi	r1, r0, #0, 18
     99c:	16ab0000 	strtne	r0, [fp], r0
     9a0:	01180000 	tsteq	r8, r0
     9a4:	18340152 	ldmdane	r4!, {r1, r4, r6, r8}
     9a8:	75025101 	strvc	r5, [r2, #-257]	; 0x101
     9ac:	50011800 	andpl	r1, r1, r0, lsl #16
     9b0:	b0c40305 	sbclt	r0, r4, r5, lsl #6
     9b4:	00000000 	andeq	r0, r0, r0
     9b8:	00009508 	andeq	r9, r0, r8, lsl #10
     9bc:	0009c800 	andeq	ip, r9, r0, lsl #16
     9c0:	008c0900 	addeq	r0, ip, r0, lsl #18
     9c4:	000f0000 	andeq	r0, pc, r0
     9c8:	0009b807 	andeq	fp, r9, r7, lsl #16
     9cc:	04aa1100 	strteq	r1, [sl], #256	; 0x100
     9d0:	98010000 	stmdals	r1, {}	; <UNPREDICTABLE>
     9d4:	00008260 	andeq	r8, r0, r0, ror #4
     9d8:	0000009c 	muleq	r0, ip, r0
     9dc:	0ae09c01 	beq	ff8279e8 <__bss_end__+0xff81b660>
     9e0:	70130000 	andsvc	r0, r3, r0
     9e4:	98010074 	stmdals	r1, {r2, r4, r5, r6}
     9e8:	0000067d 	andeq	r0, r0, sp, ror r6
     9ec:	000004ae 	andeq	r0, r0, lr, lsr #9
     9f0:	00617613 	rsbeq	r7, r1, r3, lsl r6
     9f4:	00379801 	eorseq	r9, r7, r1, lsl #16
     9f8:	04f80000 	ldrbteq	r0, [r8], #0
     9fc:	70130000 	andsvc	r0, r3, r0
     a00:	98010061 	stmdals	r1, {r0, r5, r6}
     a04:	00000037 	andeq	r0, r0, r7, lsr r0
     a08:	00000542 	andeq	r0, r0, r2, asr #10
     a0c:	00005b12 	andeq	r5, r0, r2, lsl fp
     a10:	37980100 	ldrcc	r0, [r8, r0, lsl #2]
     a14:	8c000000 	stchi	0, cr0, [r0], {-0}
     a18:	14000005 	strne	r0, [r0], #-5
     a1c:	000001bf 			; <UNDEFINED> instruction: 0x000001bf
     a20:	00000af0 	strdeq	r0, [r0], -r0	; <UNPREDICTABLE>
     a24:	af9c0305 	svcge	0x009c0305
     a28:	00200000 	eoreq	r0, r0, r0
     a2c:	5d000000 	stcpl	0, cr0, [r0, #-0]
     a30:	1500000a 	strne	r0, [r0, #-10]
     a34:	9b010069 	blls	40be0 <__bss_end__+0x34858>
     a38:	00000037 	andeq	r0, r0, r7, lsr r0
     a3c:	000005d6 	ldrdeq	r0, [r0], -r6
     a40:	0082cc19 	addeq	ip, r2, r9, lsl ip
     a44:	00084a00 	andeq	r4, r8, r0, lsl #20
     a48:	52011800 	andpl	r1, r1, #0, 16
     a4c:	18007602 	stmdane	r0, {r1, r9, sl, ip, sp, lr}
     a50:	75025101 	strvc	r5, [r2, #-257]	; 0x101
     a54:	50011800 	andpl	r1, r1, r0, lsl #16
     a58:	00007802 	andeq	r7, r0, r2, lsl #16
     a5c:	82801600 	addhi	r1, r0, #0, 12
     a60:	16320000 	ldrtne	r0, [r2], -r0
     a64:	94170000 	ldrls	r0, [r7], #-0
     a68:	39000082 	stmdbcc	r0, {r1, r7}
     a6c:	95000016 	strls	r0, [r0, #-22]
     a70:	1800000a 	stmdane	r0, {r1, r3}
     a74:	08025301 	stmdaeq	r2, {r0, r8, r9, ip, lr}
     a78:	52011899 	andpl	r1, r1, #10027008	; 0x990000
     a7c:	af9c0305 	svcge	0x009c0305
     a80:	01180000 	tsteq	r8, r0
     a84:	8c030551 	cfstr32hi	mvfx0, [r3], {81}	; 0x51
     a88:	180000ba 	stmdane	r0, {r1, r3, r4, r5, r7}
     a8c:	03055001 	movweq	r5, #20481	; 0x5001
     a90:	0000b068 	andeq	fp, r0, r8, rrx
     a94:	82981600 	addshi	r1, r8, #0, 12
     a98:	164f0000 	strbne	r0, [pc], -r0
     a9c:	a4160000 	ldrge	r0, [r6], #-0
     aa0:	32000082 	andcc	r0, r0, #130	; 0x82
     aa4:	17000016 	smladne	r0, r6, r0, r0
     aa8:	000082b8 			; <UNDEFINED> instruction: 0x000082b8
     aac:	00001639 	andeq	r1, r0, r9, lsr r6
     ab0:	00000ad6 	ldrdeq	r0, [r0], -r6
     ab4:	02530118 	subseq	r0, r3, #24, 2
     ab8:	01189a08 	tsteq	r8, r8, lsl #20
     abc:	9c030552 	cfstr32ls	mvfx0, [r3], {82}	; 0x52
     ac0:	180000af 	stmdane	r0, {r0, r1, r2, r3, r5, r7}
     ac4:	03055101 	movweq	r5, #20737	; 0x5101
     ac8:	0000ba8c 	andeq	fp, r0, ip, lsl #21
     acc:	05500118 	ldrbeq	r0, [r0, #-280]	; 0x118
     ad0:	00b08c03 	adcseq	r8, r0, r3, lsl #24
     ad4:	bc160000 	ldclt	0, cr0, [r6], {-0}
     ad8:	4f000082 	svcmi	0x00000082
     adc:	00000016 	andeq	r0, r0, r6, lsl r0
     ae0:	00009508 	andeq	r9, r0, r8, lsl #10
     ae4:	000af000 	andeq	pc, sl, r0
     ae8:	008c0900 	addeq	r0, ip, r0, lsl #18
     aec:	00100000 	andseq	r0, r0, r0
     af0:	000ae007 	andeq	lr, sl, r7
     af4:	07ec1a00 	strbeq	r1, [ip, r0, lsl #20]!
     af8:	a3010000 	movwge	r0, #4096	; 0x1000
     afc:	0000067d 	andeq	r0, r0, sp, ror r6
     b00:	000082fc 	strdeq	r8, [r0], -ip
     b04:	00000058 	andeq	r0, r0, r8, asr r0
     b08:	0b989c01 	bleq	fe627b14 <__bss_end__+0xfe61b78c>
     b0c:	8e120000 	cdphi	0, 1, cr0, cr2, cr0, {0}
     b10:	01000006 	tsteq	r0, r6
     b14:	000037a3 	andeq	r3, r0, r3, lsr #15
     b18:	0005f400 	andeq	pc, r5, r0, lsl #8
     b1c:	01bf1400 			; <UNDEFINED> instruction: 0x01bf1400
     b20:	0ba80000 	bleq	fea00b28 <__bss_end__+0xfe9f47a0>
     b24:	03050000 	movweq	r0, #20480	; 0x5000
     b28:	0000afb0 			; <UNDEFINED> instruction: 0x0000afb0
     b2c:	00747015 	rsbseq	r7, r4, r5, lsl r0
     b30:	067da501 	ldrbteq	sl, [sp], -r1, lsl #10
     b34:	06280000 	strteq	r0, [r8], -r0
     b38:	10160000 	andsne	r0, r6, r0
     b3c:	32000083 	andcc	r0, r0, #131	; 0x83
     b40:	17000016 	smladne	r0, r6, r0, r0
     b44:	00008324 	andeq	r8, r0, r4, lsr #6
     b48:	00001639 	andeq	r1, r0, r9, lsr r6
     b4c:	00000b72 	andeq	r0, r0, r2, ror fp
     b50:	02530118 	subseq	r0, r3, #24, 2
     b54:	0118a408 	tsteq	r8, r8, lsl #8
     b58:	b0030552 	andlt	r0, r3, r2, asr r5
     b5c:	180000af 	stmdane	r0, {r0, r1, r2, r3, r5, r7}
     b60:	03055101 	movweq	r5, #20737	; 0x5101
     b64:	0000ba8c 	andeq	fp, r0, ip, lsl #21
     b68:	05500118 	ldrbeq	r0, [r0, #-280]	; 0x118
     b6c:	00b0d003 	adcseq	sp, r0, r3
     b70:	28160000 	ldmdacs	r6, {}	; <UNPREDICTABLE>
     b74:	4f000083 	svcmi	0x00000083
     b78:	19000016 	stmdbne	r0, {r1, r2, r4}
     b7c:	00008334 	andeq	r8, r0, r4, lsr r3
     b80:	000016ce 	andeq	r1, r0, lr, asr #13
     b84:	03520118 	cmpeq	r2, #24, 2
     b88:	1840000a 	stmdane	r0, {r1, r3}^
     b8c:	30015101 	andcc	r5, r1, r1, lsl #2
     b90:	02500118 	subseq	r0, r0, #24, 2
     b94:	00000074 	andeq	r0, r0, r4, ror r0
     b98:	00009508 	andeq	r9, r0, r8, lsl #10
     b9c:	000ba800 	andeq	sl, fp, r0, lsl #16
     ba0:	008c0900 	addeq	r0, ip, r0, lsl #18
     ba4:	00080000 	andeq	r0, r8, r0
     ba8:	000b9807 	andeq	r9, fp, r7, lsl #16
     bac:	024b1100 	subeq	r1, fp, #0, 2
     bb0:	b6010000 	strlt	r0, [r1], -r0
     bb4:	00008354 	andeq	r8, r0, r4, asr r3
     bb8:	00000014 	andeq	r0, r0, r4, lsl r0
     bbc:	0bdf9c01 	bleq	ff7e7bc8 <__bss_end__+0xff7db840>
     bc0:	631e0000 	tstvs	lr, #0
     bc4:	b7010031 	smladxlt	r1, r1, r0, r0
     bc8:	00000353 	andeq	r0, r0, r3, asr r3
     bcc:	00835c16 	addeq	r5, r3, r6, lsl ip
     bd0:	00167e00 	andseq	r7, r6, r0, lsl #28
     bd4:	83641600 	cmnhi	r4, #0, 12
     bd8:	16ed0000 	strbtne	r0, [sp], r0
     bdc:	11000000 	mrsne	r0, (UNDEF: 0)
     be0:	000000f7 	strdeq	r0, [r0], -r7
     be4:	8368bc01 	cmnhi	r8, #256	; 0x100
     be8:	00300000 	eorseq	r0, r0, r0
     bec:	9c010000 	stcls	0, cr0, [r1], {-0}
     bf0:	00000c5c 	andeq	r0, r0, ip, asr ip
     bf4:	00726c13 	rsbseq	r6, r2, r3, lsl ip
     bf8:	0037bc01 	eorseq	fp, r7, r1, lsl #24
     bfc:	06460000 	strbeq	r0, [r6], -r0
     c00:	bf140000 	svclt	0x00140000
     c04:	6c000001 	stcvs	0, cr0, [r0], {1}
     c08:	0500000c 	streq	r0, [r0, #-12]
     c0c:	00afbc03 	adceq	fp, pc, r3, lsl #24
     c10:	83701600 	cmnhi	r0, #0, 12
     c14:	0bad0000 	bleq	feb40c1c <__bss_end__+0xfeb34894>
     c18:	74160000 	ldrvc	r0, [r6], #-0
     c1c:	32000083 	andcc	r0, r0, #131	; 0x83
     c20:	17000016 	smladne	r0, r6, r0, r0
     c24:	00008388 	andeq	r8, r0, r8, lsl #7
     c28:	00001639 	andeq	r1, r0, r9, lsr r6
     c2c:	00000c52 	andeq	r0, r0, r2, asr ip
     c30:	02530118 	subseq	r0, r3, #24, 2
     c34:	0118be08 	tsteq	r8, r8, lsl #28
     c38:	bc030552 	cfstr32lt	mvfx0, [r3], {82}	; 0x52
     c3c:	180000af 	stmdane	r0, {r0, r1, r2, r3, r5, r7}
     c40:	03055101 	movweq	r5, #20737	; 0x5101
     c44:	0000ba8c 	andeq	fp, r0, ip, lsl #21
     c48:	05500118 	ldrbeq	r0, [r0, #-280]	; 0x118
     c4c:	00b13003 	adcseq	r3, r1, r3
     c50:	8c160000 	ldchi	0, cr0, [r6], {-0}
     c54:	4f000083 	svcmi	0x00000083
     c58:	00000016 	andeq	r0, r0, r6, lsl r0
     c5c:	00009508 	andeq	r9, r0, r8, lsl #10
     c60:	000c6c00 	andeq	r6, ip, r0, lsl #24
     c64:	008c0900 	addeq	r0, ip, r0, lsl #18
     c68:	00150000 	andseq	r0, r5, r0
     c6c:	000c5c07 	andeq	r5, ip, r7, lsl #24
     c70:	000e1100 	andeq	r1, lr, r0, lsl #2
     c74:	dd010000 	stcle	0, cr0, [r1, #-0]
     c78:	00008398 	muleq	r0, r8, r3
     c7c:	00000168 	andeq	r0, r0, r8, ror #2
     c80:	0e959c01 	cdpeq	12, 9, cr9, cr5, cr1, {0}
     c84:	6c130000 	ldcvs	0, cr0, [r3], {-0}
     c88:	dd010072 	stcle	0, cr0, [r1, #-456]	; 0xfffffe38
     c8c:	00000037 	andeq	r0, r0, r7, lsr r0
     c90:	00000667 	andeq	r0, r0, r7, ror #12
     c94:	0001dd21 	andeq	sp, r1, r1, lsr #26
     c98:	03e10100 	mvneq	r0, #0, 2
     c9c:	01000004 	tsteq	r0, r4
     ca0:	61661555 	cmnvs	r6, r5, asr r5
     ca4:	e3010072 	movw	r0, #4210	; 0x1072
     ca8:	00000073 	andeq	r0, r0, r3, ror r0
     cac:	00000688 	andeq	r0, r0, r8, lsl #13
     cb0:	00031b1d 	andeq	r1, r3, sp, lsl fp
     cb4:	37eb0100 	strbcc	r0, [fp, r0, lsl #2]!
     cb8:	b2000000 	andlt	r0, r0, #0
     cbc:	22000006 	andcs	r0, r0, #6
     cc0:	000000cc 	andeq	r0, r0, ip, asr #1
     cc4:	0037ec01 	eorseq	lr, r7, r1, lsl #24
     cc8:	80800000 	addhi	r0, r0, r0
     ccc:	01bf1440 			; <UNDEFINED> instruction: 0x01bf1440
     cd0:	0ea50000 	cdpeq	0, 10, cr0, cr5, cr0, {0}
     cd4:	03050000 	movweq	r0, #20480	; 0x5000
     cd8:	0000afd4 	ldrdeq	sl, [r0], -r4
     cdc:	0083b017 	addeq	fp, r3, r7, lsl r0
     ce0:	00163900 	andseq	r3, r6, r0, lsl #18
     ce4:	000cf900 	andeq	pc, ip, r0, lsl #18
     ce8:	51011800 	tstpl	r1, r0, lsl #16
     cec:	18007402 	stmdane	r0, {r1, sl, ip, sp, lr}
     cf0:	03055001 	movweq	r5, #20481	; 0x5001
     cf4:	0000b154 	andeq	fp, r0, r4, asr r1
     cf8:	84081600 	strhi	r1, [r8], #-1536	; 0x600
     cfc:	0bad0000 	bleq	feb40d04 <__bss_end__+0xfeb3497c>
     d00:	0c160000 	ldceq	0, cr0, [r6], {-0}
     d04:	32000084 	andcc	r0, r0, #132	; 0x84
     d08:	17000016 	smladne	r0, r6, r0, r0
     d0c:	00008420 	andeq	r8, r0, r0, lsr #8
     d10:	00001639 	andeq	r1, r0, r9, lsr r6
     d14:	00000d3a 	andeq	r0, r0, sl, lsr sp
     d18:	02530118 	subseq	r0, r3, #24, 2
     d1c:	0118f008 	tsteq	r8, r8
     d20:	d4030552 	strle	r0, [r3], #-1362	; 0x552
     d24:	180000af 	stmdane	r0, {r0, r1, r2, r3, r5, r7}
     d28:	03055101 	movweq	r5, #20737	; 0x5101
     d2c:	0000ba8c 	andeq	fp, r0, ip, lsl #21
     d30:	05500118 	ldrbeq	r0, [r0, #-280]	; 0x118
     d34:	00b16003 	adcseq	r6, r1, r3
     d38:	24160000 	ldrcs	r0, [r6], #-0
     d3c:	4f000084 	svcmi	0x00000084
     d40:	16000016 			; <UNDEFINED> instruction: 0x16000016
     d44:	00008428 	andeq	r8, r0, r8, lsr #8
     d48:	00000bad 	andeq	r0, r0, sp, lsr #23
     d4c:	00842c16 	addeq	r2, r4, r6, lsl ip
     d50:	00163200 	andseq	r3, r6, r0, lsl #4
     d54:	84401700 	strbhi	r1, [r0], #-1792	; 0x700
     d58:	16390000 	ldrtne	r0, [r9], -r0
     d5c:	0d840000 	stceq	0, cr0, [r4]
     d60:	01180000 	tsteq	r8, r0
     d64:	f4080253 	vst1.16	{d0-d3}, [r8 :64], r3
     d68:	05520118 	ldrbeq	r0, [r2, #-280]	; 0x118
     d6c:	00afd403 	adceq	sp, pc, r3, lsl #8
     d70:	51011800 	tstpl	r1, r0, lsl #16
     d74:	ba8c0305 	blt	fe301990 <__bss_end__+0xfe2f5608>
     d78:	01180000 	tsteq	r8, r0
     d7c:	84030550 	strhi	r0, [r3], #-1360	; 0x550
     d80:	000000b1 	strheq	r0, [r0], -r1
     d84:	00844416 	addeq	r4, r4, r6, lsl r4
     d88:	00164f00 	andseq	r4, r6, r0, lsl #30
     d8c:	84481600 	strbhi	r1, [r8], #-1536	; 0x600
     d90:	0bad0000 	bleq	feb40d98 <__bss_end__+0xfeb34a10>
     d94:	4c160000 	ldcmi	0, cr0, [r6], {-0}
     d98:	32000084 	andcc	r0, r0, #132	; 0x84
     d9c:	17000016 	smladne	r0, r6, r0, r0
     da0:	00008460 	andeq	r8, r0, r0, ror #8
     da4:	00001639 	andeq	r1, r0, r9, lsr r6
     da8:	00000dce 	andeq	r0, r0, lr, asr #27
     dac:	02530118 	subseq	r0, r3, #24, 2
     db0:	0118f808 	tsteq	r8, r8, lsl #16
     db4:	d4030552 	strle	r0, [r3], #-1362	; 0x552
     db8:	180000af 	stmdane	r0, {r0, r1, r2, r3, r5, r7}
     dbc:	03055101 	movweq	r5, #20737	; 0x5101
     dc0:	0000ba8c 	andeq	fp, r0, ip, lsl #21
     dc4:	05500118 	ldrbeq	r0, [r0, #-280]	; 0x118
     dc8:	00b1a003 	adcseq	sl, r1, r3
     dcc:	64160000 	ldrvs	r0, [r6], #-0
     dd0:	4f000084 	svcmi	0x00000084
     dd4:	17000016 	smladne	r0, r6, r0, r0
     dd8:	0000846c 	andeq	r8, r0, ip, ror #8
     ddc:	00001639 	andeq	r1, r0, r9, lsr r6
     de0:	00000dee 	andeq	r0, r0, lr, ror #27
     de4:	05500118 	ldrbeq	r0, [r0, #-280]	; 0x118
     de8:	00b1c803 	adcseq	ip, r1, r3, lsl #16
     dec:	84170000 	ldrhi	r0, [r7], #-0
     df0:	4a000084 	bmi	1008 <_start-0x6ff8>
     df4:	0c000008 	stceq	0, cr0, [r0], {8}
     df8:	1800000e 	stmdane	r0, {r1, r2, r3}
     dfc:	74045201 	strvc	r5, [r4], #-513	; 0x201
     e00:	18244400 	stmdane	r4!, {sl, lr}
     e04:	74045101 	strvc	r5, [r4], #-257	; 0x101
     e08:	00244400 	eoreq	r4, r4, r0, lsl #8
     e0c:	00849017 	addeq	r9, r4, r7, lsl r0
     e10:	00163900 	andseq	r3, r6, r0, lsl #18
     e14:	000e2300 	andeq	r2, lr, r0, lsl #6
     e18:	50011800 	andpl	r1, r1, r0, lsl #16
     e1c:	b1dc0305 	bicslt	r0, ip, r5, lsl #6
     e20:	17000000 	strne	r0, [r0, -r0]
     e24:	000084a8 	andeq	r8, r0, r8, lsr #9
     e28:	00000780 	andeq	r0, r0, r0, lsl #15
     e2c:	00000e40 	andeq	r0, r0, r0, asr #28
     e30:	01520118 	cmpeq	r2, r8, lsl r1
     e34:	51011831 	tstpl	r1, r1, lsr r8
     e38:	44007406 	strmi	r7, [r0], #-1030	; 0x406
     e3c:	00244425 	eoreq	r4, r4, r5, lsr #8
     e40:	0084b016 	addeq	fp, r4, r6, lsl r0
     e44:	000bad00 	andeq	sl, fp, r0, lsl #26
     e48:	84b41600 	ldrthi	r1, [r4], #1536	; 0x600
     e4c:	16320000 	ldrtne	r0, [r2], -r0
     e50:	c8170000 	ldmdagt	r7, {}	; <UNPREDICTABLE>
     e54:	39000084 	stmdbcc	r0, {r2, r7}
     e58:	82000016 	andhi	r0, r0, #22
     e5c:	1800000e 	stmdane	r0, {r1, r2, r3}
     e60:	0a035301 	beq	d5a6c <__bss_end__+0xc96e4>
     e64:	01180106 	tsteq	r8, r6, lsl #2
     e68:	d4030552 	strle	r0, [r3], #-1362	; 0x552
     e6c:	180000af 	stmdane	r0, {r0, r1, r2, r3, r5, r7}
     e70:	03055101 	movweq	r5, #20737	; 0x5101
     e74:	0000ba8c 	andeq	fp, r0, ip, lsl #21
     e78:	05500118 	ldrbeq	r0, [r0, #-280]	; 0x118
     e7c:	00b1f003 	adcseq	pc, r1, r3
     e80:	cc160000 	ldcgt	0, cr0, [r6], {-0}
     e84:	4f000084 	svcmi	0x00000084
     e88:	16000016 			; <UNDEFINED> instruction: 0x16000016
     e8c:	000084d0 	ldrdeq	r8, [r0], -r0
     e90:	00001677 	andeq	r1, r0, r7, ror r6
     e94:	00950800 	addseq	r0, r5, r0, lsl #16
     e98:	0ea50000 	cdpeq	0, 10, cr0, cr5, cr0, {0}
     e9c:	8c090000 	stchi	0, cr0, [r9], {-0}
     ea0:	11000000 	mrsne	r0, (UNDEF: 0)
     ea4:	0e950700 	cdpeq	7, 9, cr0, cr5, cr0, {0}
     ea8:	e3230000 	teq	r3, #0
     eac:	01000011 	tsteq	r0, r1, lsl r0
     eb0:	8500010b 	strhi	r0, [r0, #-267]	; 0x10b
     eb4:	00340000 	eorseq	r0, r4, r0
     eb8:	9c010000 	stcls	0, cr0, [r1], {-0}
     ebc:	00000f2a 	andeq	r0, r0, sl, lsr #30
     ec0:	00726c24 	rsbseq	r6, r2, r4, lsr #24
     ec4:	37010b01 	strcc	r0, [r1, -r1, lsl #22]
     ec8:	80000000 	andhi	r0, r0, r0
     ecc:	14000007 	strne	r0, [r0], #-7
     ed0:	000001bf 			; <UNDEFINED> instruction: 0x000001bf
     ed4:	00000f2a 	andeq	r0, r0, sl, lsr #30
     ed8:	afe80305 	svcge	0x00e80305
     edc:	08160000 	ldmdaeq	r6, {}	; <UNPREDICTABLE>
     ee0:	ad000085 	stcge	0, cr0, [r0, #-532]	; 0xfffffdec
     ee4:	1600000b 	strne	r0, [r0], -fp
     ee8:	0000850c 	andeq	r8, r0, ip, lsl #10
     eec:	00001632 	andeq	r1, r0, r2, lsr r6
     ef0:	00852017 	addeq	r2, r5, r7, lsl r0
     ef4:	00163900 	andseq	r3, r6, r0, lsl #18
     ef8:	000f2000 	andeq	r2, pc, r0
     efc:	53011800 	movwpl	r1, #6144	; 0x1800
     f00:	010d0a03 	tsteq	sp, r3, lsl #20
     f04:	05520118 	ldrbeq	r0, [r2, #-280]	; 0x118
     f08:	00afe803 	adceq	lr, pc, r3, lsl #16
     f0c:	51011800 	tstpl	r1, r0, lsl #16
     f10:	ba8c0305 	blt	fe301b2c <__bss_end__+0xfe2f57a4>
     f14:	01180000 	tsteq	r8, r0
     f18:	18030550 	stmdane	r3, {r4, r6, r8, sl}
     f1c:	000000b2 	strheq	r0, [r0], -r2
     f20:	00852416 	addeq	r2, r5, r6, lsl r4
     f24:	00164f00 	andseq	r4, r6, r0, lsl #30
     f28:	e0070000 	and	r0, r7, r0
     f2c:	2300000a 	movwcs	r0, #10
     f30:	00000475 	andeq	r0, r0, r5, ror r4
     f34:	34010f01 	strcc	r0, [r1], #-3841	; 0xf01
     f38:	0c000085 	stceq	0, cr0, [r0], {133}	; 0x85
     f3c:	01000000 	mrseq	r0, (UNDEF: 0)
     f40:	000f4f9c 	muleq	pc, ip, pc	; <UNPREDICTABLE>
     f44:	853c1600 	ldrhi	r1, [ip, #-1536]!	; 0x600
     f48:	16fe0000 	ldrbtne	r0, [lr], r0
     f4c:	23000000 	movwcs	r0, #0
     f50:	0000016c 	andeq	r0, r0, ip, ror #2
     f54:	40012001 	andmi	r2, r1, r1
     f58:	98000085 	stmdals	r0, {r0, r2, r7}
     f5c:	01000003 	tsteq	r0, r3
     f60:	0015669c 	mulseq	r5, ip, r6
     f64:	068e2500 	streq	r2, [lr], r0, lsl #10
     f68:	22010000 	andcs	r0, r1, #0
     f6c:	00003701 	andeq	r3, r0, r1, lsl #14
     f70:	10000000 	andne	r0, r0, r0
     f74:	74702600 	ldrbtvc	r2, [r0], #-1536	; 0x600
     f78:	01240100 	teqeq	r4, r0, lsl #2
     f7c:	0000067d 	andeq	r0, r0, sp, ror r6
     f80:	000007a1 	andeq	r0, r0, r1, lsr #15
     f84:	0001bf14 	andeq	fp, r1, r4, lsl pc
     f88:	00156600 	andseq	r6, r5, r0, lsl #12
     f8c:	fc030500 	stc2	5, cr0, [r3], {-0}
     f90:	260000af 	strcs	r0, [r0], -pc, lsr #1
     f94:	01003163 	tsteq	r0, r3, ror #2
     f98:	0198013f 	orrseq	r0, r8, pc, lsr r1
     f9c:	07d50000 	ldrbeq	r0, [r5, r0]
     fa0:	78270000 	stmdavc	r7!, {}	; <UNPREDICTABLE>
     fa4:	015c0100 	cmpeq	ip, r0, lsl #2
     fa8:	00000025 	andeq	r0, r0, r5, lsr #32
     fac:	26649102 	strbtcs	r9, [r4], -r2, lsl #2
     fb0:	01003076 	tsteq	r0, r6, ror r0
     fb4:	0025015c 	eoreq	r0, r5, ip, asr r1
     fb8:	082a0000 	stmdaeq	sl!, {}	; <UNPREDICTABLE>
     fbc:	76260000 	strtvc	r0, [r6], -r0
     fc0:	5c010031 	stcpl	0, cr0, [r1], {49}	; 0x31
     fc4:	00002501 	andeq	r2, r0, r1, lsl #10
     fc8:	00084800 	andeq	r4, r8, r0, lsl #16
     fcc:	00702800 	rsbseq	r2, r0, r0, lsl #16
     fd0:	6b016d01 	blvs	5c3dc <__bss_end__+0x50054>
     fd4:	f0000015 			; <UNDEFINED> instruction: 0xf0000015
     fd8:	1707efff 			; <UNDEFINED> instruction: 0x1707efff
     fdc:	00008550 	andeq	r8, r0, r0, asr r5
     fe0:	00001639 	andeq	r1, r0, r9, lsr r6
     fe4:	00000ff2 	strdeq	r0, [r0], -r2
     fe8:	05500118 	ldrbeq	r0, [r0, #-280]	; 0x118
     fec:	00b23403 	adcseq	r3, r2, r3, lsl #8
     ff0:	58170000 	ldmdapl	r7, {}	; <UNPREDICTABLE>
     ff4:	f5000085 			; <UNDEFINED> instruction: 0xf5000085
     ff8:	0700000a 	streq	r0, [r0, -sl]
     ffc:	18000010 	stmdane	r0, {r4}
    1000:	40035001 	andmi	r5, r3, r1
    1004:	16002440 	strne	r2, [r0], -r0, asr #8
    1008:	00008568 	andeq	r8, r0, r8, ror #10
    100c:	00001632 	andeq	r1, r0, r2, lsr r6
    1010:	00857c17 	addeq	r7, r5, r7, lsl ip
    1014:	00163900 	andseq	r3, r6, r0, lsl #18
    1018:	00104000 	andseq	r4, r0, r0
    101c:	53011800 	movwpl	r1, #6144	; 0x1800
    1020:	01250a03 	teqeq	r5, r3, lsl #20
    1024:	05520118 	ldrbeq	r0, [r2, #-280]	; 0x118
    1028:	00affc03 	adceq	pc, pc, r3, lsl #24
    102c:	51011800 	tstpl	r1, r0, lsl #16
    1030:	ba8c0305 	blt	fe301c4c <__bss_end__+0xfe2f58c4>
    1034:	01180000 	tsteq	r8, r0
    1038:	54030550 	strpl	r0, [r3], #-1360	; 0x550
    103c:	000000b2 	strheq	r0, [r0], -r2
    1040:	00858016 	addeq	r8, r5, r6, lsl r0
    1044:	00164f00 	andseq	r4, r6, r0, lsl #30
    1048:	858c1700 	strhi	r1, [ip, #1792]	; 0x700
    104c:	084a0000 	stmdaeq	sl, {}^	; <UNPREDICTABLE>
    1050:	10610000 	rsbne	r0, r1, r0
    1054:	01180000 	tsteq	r8, r0
    1058:	18300152 	ldmdane	r0!, {r1, r4, r6, r8}
    105c:	30015101 	andcc	r5, r1, r1, lsl #2
    1060:	859c1700 	ldrhi	r1, [ip, #1792]	; 0x700
    1064:	084a0000 	stmdaeq	sl, {}^	; <UNPREDICTABLE>
    1068:	10830000 	addne	r0, r3, r0
    106c:	01180000 	tsteq	r8, r0
    1070:	40400352 	submi	r0, r0, r2, asr r3
    1074:	51011824 	tstpl	r1, r4, lsr #16
    1078:	24404003 	strbcs	r4, [r0], #-3
    107c:	02500118 	subseq	r0, r0, #24, 2
    1080:	17000074 	smlsdxne	r0, r4, r0, r0
    1084:	000085ac 	andeq	r8, r0, ip, lsr #11
    1088:	0000084a 	andeq	r0, r0, sl, asr #16
    108c:	000010a7 	andeq	r1, r0, r7, lsr #1
    1090:	04520118 	ldrbeq	r0, [r2], #-280	; 0x118
    1094:	2443fe08 	strbcs	pc, [r3], #-3592	; 0xe08	; <UNPREDICTABLE>
    1098:	04510118 	ldrbeq	r0, [r1], #-280	; 0x118
    109c:	2443fe08 	strbcs	pc, [r3], #-3592	; 0xe08	; <UNPREDICTABLE>
    10a0:	02500118 	subseq	r0, r0, #24, 2
    10a4:	17000074 	smlsdxne	r0, r4, r0, r0
    10a8:	000085bc 			; <UNDEFINED> instruction: 0x000085bc
    10ac:	0000084a 	andeq	r0, r0, sl, asr #16
    10b0:	000010c9 	andeq	r1, r0, r9, asr #1
    10b4:	03520118 	cmpeq	r2, #24, 2
    10b8:	18244940 	stmdane	r4!, {r6, r8, fp, lr}
    10bc:	40035101 	andmi	r5, r3, r1, lsl #2
    10c0:	01182449 	tsteq	r8, r9, asr #8
    10c4:	00740250 	rsbseq	r0, r4, r0, asr r2
    10c8:	85cc1700 	strbhi	r1, [ip, #1792]	; 0x700
    10cc:	084a0000 	stmdaeq	sl, {}^	; <UNPREDICTABLE>
    10d0:	10ef0000 	rscne	r0, pc, r0
    10d4:	01180000 	tsteq	r8, r0
    10d8:	000c0552 	andeq	r0, ip, r2, asr r5
    10dc:	18201000 	stmdane	r0!, {ip}
    10e0:	0c055101 	stfeqs	f5, [r5], {1}
    10e4:	20100000 	andscs	r0, r0, r0
    10e8:	02500118 	subseq	r0, r0, #24, 2
    10ec:	17000074 	smlsdxne	r0, r4, r0, r0
    10f0:	000085dc 	ldrdeq	r8, [r0], -ip
    10f4:	0000084a 	andeq	r0, r0, sl, asr #16
    10f8:	00001115 	andeq	r1, r0, r5, lsl r1
    10fc:	05520118 	ldrbeq	r0, [r2, #-280]	; 0x118
    1100:	2000000c 	andcs	r0, r0, ip
    1104:	51011820 	tstpl	r1, r0, lsr #16
    1108:	00000c05 	andeq	r0, r0, r5, lsl #24
    110c:	01182020 	tsteq	r8, r0, lsr #32
    1110:	00740250 	rsbseq	r0, r4, r0, asr r2
    1114:	85ec1700 	strbhi	r1, [ip, #1792]!	; 0x700
    1118:	084a0000 	stmdaeq	sl, {}^	; <UNPREDICTABLE>
    111c:	11390000 	teqne	r9, r0
    1120:	01180000 	tsteq	r8, r0
    1124:	8f080452 	svchi	0x00080452
    1128:	01182444 	tsteq	r8, r4, asr #8
    112c:	8f080451 	svchi	0x00080451
    1130:	01182444 	tsteq	r8, r4, asr #8
    1134:	00740250 	rsbseq	r0, r4, r0, asr r2
    1138:	85f01600 	ldrbhi	r1, [r0, #1536]!	; 0x600
    113c:	0f2f0000 	svceq	0x002f0000
    1140:	f4160000 			; <UNDEFINED> instruction: 0xf4160000
    1144:	7e000085 	cdpvc	0, 0, cr0, cr0, cr5, {4}
    1148:	16000016 			; <UNDEFINED> instruction: 0x16000016
    114c:	000085fc 	strdeq	r8, [r0], -ip
    1150:	00001689 	andeq	r1, r0, r9, lsl #13
    1154:	00860016 	addeq	r0, r6, r6, lsl r0
    1158:	00167e00 	andseq	r7, r6, r0, lsl #28
    115c:	86101600 	ldrhi	r1, [r0], -r0, lsl #12
    1160:	16320000 	ldrtne	r0, [r2], -r0
    1164:	24170000 	ldrcs	r0, [r7], #-0
    1168:	39000086 	stmdbcc	r0, {r1, r2, r7}
    116c:	96000016 			; <UNDEFINED> instruction: 0x96000016
    1170:	18000011 	stmdane	r0, {r0, r4}
    1174:	0a035301 	beq	d5d80 <__bss_end__+0xc99f8>
    1178:	01180143 	tsteq	r8, r3, asr #2
    117c:	fc030552 	stc2	5, cr0, [r3], {82}	; 0x52
    1180:	180000af 	stmdane	r0, {r0, r1, r2, r3, r5, r7}
    1184:	03055101 	movweq	r5, #20737	; 0x5101
    1188:	0000ba8c 	andeq	fp, r0, ip, lsl #21
    118c:	05500118 	ldrbeq	r0, [r0, #-280]	; 0x118
    1190:	00b27c03 	adcseq	r7, r2, r3, lsl #24
    1194:	28160000 	ldmdacs	r6, {}	; <UNPREDICTABLE>
    1198:	4f000086 	svcmi	0x00000086
    119c:	16000016 			; <UNDEFINED> instruction: 0x16000016
    11a0:	00008634 	andeq	r8, r0, r4, lsr r6
    11a4:	00001632 	andeq	r1, r0, r2, lsr r6
    11a8:	00864817 	addeq	r4, r6, r7, lsl r8
    11ac:	00163900 	andseq	r3, r6, r0, lsl #18
    11b0:	0011d800 	andseq	sp, r1, r0, lsl #16
    11b4:	53011800 	movwpl	r1, #6144	; 0x1800
    11b8:	01440a03 	cmpeq	r4, r3, lsl #20
    11bc:	05520118 	ldrbeq	r0, [r2, #-280]	; 0x118
    11c0:	00affc03 	adceq	pc, pc, r3, lsl #24
    11c4:	51011800 	tstpl	r1, r0, lsl #16
    11c8:	ba8c0305 	blt	fe301de4 <__bss_end__+0xfe2f5a5c>
    11cc:	01180000 	tsteq	r8, r0
    11d0:	98030550 	stmdals	r3, {r4, r6, r8, sl}
    11d4:	000000b2 	strheq	r0, [r0], -r2
    11d8:	00864c16 	addeq	r4, r6, r6, lsl ip
    11dc:	00164f00 	andseq	r4, r6, r0, lsl #30
    11e0:	86541700 	ldrbhi	r1, [r4], -r0, lsl #14
    11e4:	17050000 	strne	r0, [r5, -r0]
    11e8:	11f80000 	mvnsne	r0, r0
    11ec:	01180000 	tsteq	r8, r0
    11f0:	550c0550 	strpl	r0, [ip, #-1360]	; 0x550
    11f4:	00555555 	subseq	r5, r5, r5, asr r5
    11f8:	00865816 	addeq	r5, r6, r6, lsl r8
    11fc:	00171600 	andseq	r1, r7, r0, lsl #12
    1200:	86641700 	strbthi	r1, [r4], -r0, lsl #14
    1204:	171d0000 	ldrne	r0, [sp, -r0]
    1208:	121a0000 	andsne	r0, sl, #0
    120c:	01180000 	tsteq	r8, r0
    1210:	00740251 	rsbseq	r0, r4, r1, asr r2
    1214:	01500118 	cmpeq	r0, r8, lsl r1
    1218:	6c170031 	ldcvs	0, cr0, [r7], {49}	; 0x31
    121c:	33000086 	movwcc	r0, #134	; 0x86
    1220:	30000017 	andcc	r0, r0, r7, lsl r0
    1224:	18000012 	stmdane	r0, {r1, r4}
    1228:	75045001 	strvc	r5, [r4, #-1]
    122c:	00213100 	eoreq	r3, r1, r0, lsl #2
    1230:	00867016 	addeq	r7, r6, r6, lsl r0
    1234:	00167e00 	andseq	r7, r6, r0, lsl #28
    1238:	86801600 	strhi	r1, [r0], r0, lsl #12
    123c:	16320000 	ldrtne	r0, [r2], -r0
    1240:	94170000 	ldrls	r0, [r7], #-0
    1244:	39000086 	stmdbcc	r0, {r1, r2, r7}
    1248:	72000016 	andvc	r0, r0, #22
    124c:	18000012 	stmdane	r0, {r1, r4}
    1250:	0a035301 	beq	d5e5c <__bss_end__+0xc9ad4>
    1254:	01180159 	tsteq	r8, r9, asr r1
    1258:	fc030552 	stc2	5, cr0, [r3], {82}	; 0x52
    125c:	180000af 	stmdane	r0, {r0, r1, r2, r3, r5, r7}
    1260:	03055101 	movweq	r5, #20737	; 0x5101
    1264:	0000ba8c 	andeq	fp, r0, ip, lsl #21
    1268:	05500118 	ldrbeq	r0, [r0, #-280]	; 0x118
    126c:	00b2b803 	adcseq	fp, r2, r3, lsl #16
    1270:	98160000 	ldmdals	r6, {}	; <UNPREDICTABLE>
    1274:	4f000086 	svcmi	0x00000086
    1278:	17000016 	smladne	r0, r6, r0, r0
    127c:	000086a8 	andeq	r8, r0, r8, lsr #13
    1280:	00001744 	andeq	r1, r0, r4, asr #14
    1284:	0000128f 	andeq	r1, r0, pc, lsl #5
    1288:	02500118 	subseq	r0, r0, #24, 2
    128c:	16005c91 			; <UNDEFINED> instruction: 0x16005c91
    1290:	000086b4 			; <UNDEFINED> instruction: 0x000086b4
    1294:	00001632 	andeq	r1, r0, r2, lsr r6
    1298:	0086c817 	addeq	ip, r6, r7, lsl r8
    129c:	00163900 	andseq	r3, r6, r0, lsl #18
    12a0:	0012c800 	andseq	ip, r2, r0, lsl #16
    12a4:	53011800 	movwpl	r1, #6144	; 0x1800
    12a8:	015e0a03 	cmpeq	lr, r3, lsl #20
    12ac:	05520118 	ldrbeq	r0, [r2, #-280]	; 0x118
    12b0:	00affc03 	adceq	pc, pc, r3, lsl #24
    12b4:	51011800 	tstpl	r1, r0, lsl #16
    12b8:	ba8c0305 	blt	fe301ed4 <__bss_end__+0xfe2f5b4c>
    12bc:	01180000 	tsteq	r8, r0
    12c0:	d8030550 	stmdale	r3, {r4, r6, r8, sl}
    12c4:	000000b2 	strheq	r0, [r0], -r2
    12c8:	0086cc16 	addeq	ip, r6, r6, lsl ip
    12cc:	00164f00 	andseq	r4, r6, r0, lsl #30
    12d0:	86d41700 	ldrbhi	r1, [r4], r0, lsl #14
    12d4:	17440000 	strbne	r0, [r4, -r0]
    12d8:	12e50000 	rscne	r0, r5, #0
    12dc:	01180000 	tsteq	r8, r0
    12e0:	5c910250 	lfmpl	f0, 4, [r1], {80}	; 0x50
    12e4:	86e01700 	strbthi	r1, [r0], r0, lsl #14
    12e8:	16390000 	ldrtne	r0, [r9], -r0
    12ec:	12fc0000 	rscsne	r0, ip, #0
    12f0:	01180000 	tsteq	r8, r0
    12f4:	f8030550 			; <UNDEFINED> instruction: 0xf8030550
    12f8:	000000b2 	strheq	r0, [r0], -r2
    12fc:	0086f417 	addeq	pc, r6, r7, lsl r4	; <UNPREDICTABLE>
    1300:	00174400 	andseq	r4, r7, r0, lsl #8
    1304:	00131000 	andseq	r1, r3, r0
    1308:	50011800 	andpl	r1, r1, r0, lsl #16
    130c:	005c9102 	subseq	r9, ip, r2, lsl #2
    1310:	00870417 	addeq	r0, r7, r7, lsl r4
    1314:	00163900 	andseq	r3, r6, r0, lsl #18
    1318:	00133000 	andseq	r3, r3, r0
    131c:	51011800 	tstpl	r1, r0, lsl #16
    1320:	fff00c05 			; <UNDEFINED> instruction: 0xfff00c05
    1324:	011807ef 	tsteq	r8, pc, ror #15
    1328:	10030550 	andne	r0, r3, r0, asr r5
    132c:	000000b3 	strheq	r0, [r0], -r3
    1330:	00872416 	addeq	r2, r7, r6, lsl r4
    1334:	00163200 	andseq	r3, r6, r0, lsl #4
    1338:	87381700 	ldrhi	r1, [r8, -r0, lsl #14]!
    133c:	16390000 	ldrtne	r0, [r9], -r0
    1340:	13690000 	cmnne	r9, #0
    1344:	01180000 	tsteq	r8, r0
    1348:	700a0353 	andvc	r0, sl, r3, asr r3
    134c:	52011801 	andpl	r1, r1, #65536	; 0x10000
    1350:	affc0305 	svcge	0x00fc0305
    1354:	01180000 	tsteq	r8, r0
    1358:	8c030551 	cfstr32hi	mvfx0, [r3], {81}	; 0x51
    135c:	180000ba 	stmdane	r0, {r1, r3, r4, r5, r7}
    1360:	03055001 	movweq	r5, #20481	; 0x5001
    1364:	0000b334 	andeq	fp, r0, r4, lsr r3
    1368:	873c1600 	ldrhi	r1, [ip, -r0, lsl #12]!
    136c:	164f0000 	strbne	r0, [pc], -r0
    1370:	48170000 	ldmdami	r7, {}	; <UNPREDICTABLE>
    1374:	44000087 	strmi	r0, [r0], #-135	; 0x87
    1378:	86000017 			; <UNDEFINED> instruction: 0x86000017
    137c:	18000013 	stmdane	r0, {r0, r1, r4}
    1380:	76025001 	strvc	r5, [r2], -r1
    1384:	58170000 	ldmdapl	r7, {}	; <UNPREDICTABLE>
    1388:	39000087 	stmdbcc	r0, {r0, r1, r2, r7}
    138c:	a3000016 	movwge	r0, #22
    1390:	18000013 	stmdane	r0, {r0, r1, r4}
    1394:	76025101 	strvc	r5, [r2], -r1, lsl #2
    1398:	50011800 	andpl	r1, r1, r0, lsl #16
    139c:	b3500305 	cmplt	r0, #335544320	; 0x14000000
    13a0:	17000000 	strne	r0, [r0, -r0]
    13a4:	00008764 	andeq	r8, r0, r4, ror #14
    13a8:	00001639 	andeq	r1, r0, r9, lsr r6
    13ac:	000013c0 	andeq	r1, r0, r0, asr #7
    13b0:	02510118 	subseq	r0, r1, #24, 2
    13b4:	01180076 	tsteq	r8, r6, ror r0
    13b8:	78030550 	stmdavc	r3, {r4, r6, r8, sl}
    13bc:	000000b3 	strheq	r0, [r0], -r3
    13c0:	00877417 	addeq	r7, r7, r7, lsl r4
    13c4:	0007e500 	andeq	lr, r7, r0, lsl #10
    13c8:	0013df00 	andseq	sp, r3, r0, lsl #30
    13cc:	52011800 	andpl	r1, r1, #0, 16
    13d0:	01183101 	tsteq	r8, r1, lsl #2
    13d4:	00760251 	rsbseq	r0, r6, r1, asr r2
    13d8:	02500118 	subseq	r0, r0, #24, 2
    13dc:	16000074 			; <UNDEFINED> instruction: 0x16000074
    13e0:	00008794 	muleq	r0, r4, r7
    13e4:	00001632 	andeq	r1, r0, r2, lsr r6
    13e8:	0087a817 	addeq	sl, r7, r7, lsl r8
    13ec:	00163900 	andseq	r3, r6, r0, lsl #18
    13f0:	00141800 	andseq	r1, r4, r0, lsl #16
    13f4:	53011800 	movwpl	r1, #6144	; 0x1800
    13f8:	01770a03 	cmneq	r7, r3, lsl #20
    13fc:	05520118 	ldrbeq	r0, [r2, #-280]	; 0x118
    1400:	00affc03 	adceq	pc, pc, r3, lsl #24
    1404:	51011800 	tstpl	r1, r0, lsl #16
    1408:	ba8c0305 	blt	fe302024 <__bss_end__+0xfe2f5c9c>
    140c:	01180000 	tsteq	r8, r0
    1410:	94030550 	strls	r0, [r3], #-1360	; 0x550
    1414:	000000b3 	strheq	r0, [r0], -r3
    1418:	0087ac16 	addeq	sl, r7, r6, lsl ip
    141c:	00164f00 	andseq	r4, r6, r0, lsl #30
    1420:	87c01700 	strbhi	r1, [r0, r0, lsl #14]
    1424:	16390000 	ldrtne	r0, [r9], -r0
    1428:	143e0000 	ldrtne	r0, [lr], #-0
    142c:	01180000 	tsteq	r8, r0
    1430:	00760251 	rsbseq	r0, r6, r1, asr r2
    1434:	05500118 	ldrbeq	r0, [r0, #-280]	; 0x118
    1438:	00b3b003 	adcseq	fp, r3, r3
    143c:	c8170000 	ldmdagt	r7, {}	; <UNPREDICTABLE>
    1440:	39000087 	stmdbcc	r0, {r0, r1, r2, r7}
    1444:	55000016 	strpl	r0, [r0, #-22]
    1448:	18000014 	stmdane	r0, {r2, r4}
    144c:	03055001 	movweq	r5, #20481	; 0x5001
    1450:	0000b3dc 	ldrdeq	fp, [r0], -ip
    1454:	87d01700 	ldrbhi	r1, [r0, r0, lsl #14]
    1458:	16ed0000 	strbtne	r0, [sp], r0
    145c:	146c0000 	strbtne	r0, [ip], #-0
    1460:	01180000 	tsteq	r8, r0
    1464:	00750550 	rsbseq	r0, r5, r0, asr r5
    1468:	001afe09 	andseq	pc, sl, r9, lsl #28
    146c:	0087d416 	addeq	sp, r7, r6, lsl r4
    1470:	00167e00 	andseq	r7, r6, r0, lsl #28
    1474:	87e01600 	strbhi	r1, [r0, r0, lsl #12]!
    1478:	16320000 	ldrtne	r0, [r2], -r0
    147c:	f4170000 			; <UNDEFINED> instruction: 0xf4170000
    1480:	39000087 	stmdbcc	r0, {r0, r1, r2, r7}
    1484:	ae000016 	mcrge	0, 0, r0, cr0, cr6, {0}
    1488:	18000014 	stmdane	r0, {r2, r4}
    148c:	0a035301 	beq	d6098 <__bss_end__+0xc9d10>
    1490:	01180183 	tsteq	r8, r3, lsl #3
    1494:	fc030552 	stc2	5, cr0, [r3], {82}	; 0x52
    1498:	180000af 	stmdane	r0, {r0, r1, r2, r3, r5, r7}
    149c:	03055101 	movweq	r5, #20737	; 0x5101
    14a0:	0000ba8c 	andeq	fp, r0, ip, lsl #21
    14a4:	05500118 	ldrbeq	r0, [r0, #-280]	; 0x118
    14a8:	00b29803 	adcseq	r9, r2, r3, lsl #16
    14ac:	f8160000 			; <UNDEFINED> instruction: 0xf8160000
    14b0:	4f000087 	svcmi	0x00000087
    14b4:	17000016 	smladne	r0, r6, r0, r0
    14b8:	00008800 	andeq	r8, r0, r0, lsl #16
    14bc:	00001639 	andeq	r1, r0, r9, lsr r6
    14c0:	000014ce 	andeq	r1, r0, lr, asr #9
    14c4:	05500118 	ldrbeq	r0, [r0, #-280]	; 0x118
    14c8:	00b3f003 	adcseq	pc, r3, r3
    14cc:	0c160000 	ldceq	0, cr0, [r6], {-0}
    14d0:	32000088 	andcc	r0, r0, #136	; 0x88
    14d4:	17000016 	smladne	r0, r6, r0, r0
    14d8:	00008820 	andeq	r8, r0, r0, lsr #16
    14dc:	00001639 	andeq	r1, r0, r9, lsr r6
    14e0:	00001507 	andeq	r1, r0, r7, lsl #10
    14e4:	03530118 	cmpeq	r3, #24, 2
    14e8:	1801870a 	stmdane	r1, {r1, r3, r8, r9, sl, pc}
    14ec:	03055201 	movweq	r5, #20993	; 0x5201
    14f0:	0000affc 	strdeq	sl, [r0], -ip
    14f4:	05510118 	ldrbeq	r0, [r1, #-280]	; 0x118
    14f8:	00ba8c03 	adcseq	r8, sl, r3, lsl #24
    14fc:	50011800 	andpl	r1, r1, r0, lsl #16
    1500:	b3f80305 	mvnslt	r0, #335544320	; 0x14000000
    1504:	16000000 	strne	r0, [r0], -r0
    1508:	00008824 	andeq	r8, r0, r4, lsr #16
    150c:	0000164f 	andeq	r1, r0, pc, asr #12
    1510:	00883016 	addeq	r3, r8, r6, lsl r0
    1514:	00163200 	andseq	r3, r6, r0, lsl #4
    1518:	88441700 	stmdahi	r4, {r8, r9, sl, ip}^
    151c:	16390000 	ldrtne	r0, [r9], -r0
    1520:	15490000 	strbne	r0, [r9, #-0]
    1524:	01180000 	tsteq	r8, r0
    1528:	880a0353 	stmdahi	sl, {r0, r1, r4, r6, r8, r9}
    152c:	52011801 	andpl	r1, r1, #65536	; 0x10000
    1530:	affc0305 	svcge	0x00fc0305
    1534:	01180000 	tsteq	r8, r0
    1538:	8c030551 	cfstr32hi	mvfx0, [r3], {81}	; 0x51
    153c:	180000ba 	stmdane	r0, {r1, r3, r4, r5, r7}
    1540:	03055001 	movweq	r5, #20481	; 0x5001
    1544:	0000b410 	andeq	fp, r0, r0, lsl r4
    1548:	88481600 	stmdahi	r8, {r9, sl, ip}^
    154c:	164f0000 	strbne	r0, [pc], -r0
    1550:	50190000 	andspl	r0, r9, r0
    1554:	39000088 	stmdbcc	r0, {r3, r7}
    1558:	18000016 	stmdane	r0, {r1, r2, r4}
    155c:	03055001 	movweq	r5, #20481	; 0x5001
    1560:	0000b428 	andeq	fp, r0, r8, lsr #8
    1564:	a7070000 	strge	r0, [r7, -r0]
    1568:	06000000 	streq	r0, [r0], -r0
    156c:	00157104 	andseq	r7, r5, r4, lsl #2
    1570:	005a2900 	subseq	r2, sl, r0, lsl #18
    1574:	70230000 	eorvc	r0, r3, r0
    1578:	01000000 	mrseq	r0, (UNDEF: 0)
    157c:	88d8018c 	ldmhi	r8, {r2, r3, r7, r8}^
    1580:	00440000 	subeq	r0, r4, r0
    1584:	9c010000 	stcls	0, cr0, [r1], {-0}
    1588:	0000160d 	andeq	r1, r0, sp, lsl #12
    158c:	0088e016 	addeq	lr, r8, r6, lsl r0
    1590:	00176500 	andseq	r6, r7, r0, lsl #10
    1594:	88e81700 	stmiahi	r8!, {r8, r9, sl, ip}^
    1598:	16390000 	ldrtne	r0, [r9], -r0
    159c:	15ac0000 	strne	r0, [ip, #0]!
    15a0:	01180000 	tsteq	r8, r0
    15a4:	48030550 	stmdami	r3, {r4, r6, r8, sl}
    15a8:	000000b4 	strheq	r0, [r0], -r4
    15ac:	0088f017 	addeq	pc, r8, r7, lsl r0	; <UNPREDICTABLE>
    15b0:	00163900 	andseq	r3, r6, r0, lsl #18
    15b4:	0015c300 	andseq	ip, r5, r0, lsl #6
    15b8:	50011800 	andpl	r1, r1, r0, lsl #16
    15bc:	b4640305 	strbtlt	r0, [r4], #-773	; 0x305
    15c0:	16000000 	strne	r0, [r0], -r0
    15c4:	000088f4 	strdeq	r8, [r0], -r4
    15c8:	0000176c 	andeq	r1, r0, ip, ror #14
    15cc:	0088fc17 	addeq	pc, r8, r7, lsl ip	; <UNPREDICTABLE>
    15d0:	00163900 	andseq	r3, r6, r0, lsl #18
    15d4:	0015e300 	andseq	lr, r5, r0, lsl #6
    15d8:	50011800 	andpl	r1, r1, r0, lsl #16
    15dc:	b4740305 	ldrbtlt	r0, [r4], #-773	; 0x305
    15e0:	17000000 	strne	r0, [r0, -r0]
    15e4:	00008904 	andeq	r8, r0, r4, lsl #18
    15e8:	00001639 	andeq	r1, r0, r9, lsr r6
    15ec:	000015fa 	strdeq	r1, [r0], -sl
    15f0:	05500118 	ldrbeq	r0, [r0, #-280]	; 0x118
    15f4:	00b48003 	adcseq	r8, r4, r3
    15f8:	08160000 	ldmdaeq	r6, {}	; <UNPREDICTABLE>
    15fc:	4f000089 	svcmi	0x00000089
    1600:	1600000f 	strne	r0, [r0], -pc
    1604:	0000890c 	andeq	r8, r0, ip, lsl #18
    1608:	0000164f 	andeq	r1, r0, pc, asr #12
    160c:	04f02a00 	ldrbteq	r2, [r0], #2560	; 0xa00
    1610:	11010000 	mrsne	r0, (UNDEF: 1)
    1614:	0000161c 	andeq	r1, r0, ip, lsl r6
    1618:	00100000 	andseq	r0, r0, r0
    161c:	00003707 	andeq	r3, r0, r7, lsl #14
    1620:	02d62100 	sbcseq	r2, r6, #0, 2
    1624:	19010000 	stmdbne	r1, {}	; <UNPREDICTABLE>
    1628:	0000067d 	andeq	r0, r0, sp, ror r6
    162c:	bf740305 	svclt	0x00740305
    1630:	9c2b0000 	stcls	0, cr0, [fp], #-0
    1634:	05000001 	streq	r0, [r0, #-1]
    1638:	0b682c1e 	bleq	1a0c6b8 <__bss_end__+0x1a00330>
    163c:	29050000 	stmdbcs	r5, {}	; <UNPREDICTABLE>
    1640:	00000025 	andeq	r0, r0, r5, lsr #32
    1644:	0000164f 	andeq	r1, r0, pc, asr #12
    1648:	00009c2d 	andeq	r9, r0, sp, lsr #24
    164c:	2b002e00 	blcs	ce54 <__bss_end__+0xacc>
    1650:	00000372 	andeq	r0, r0, r2, ror r3
    1654:	5c2f6605 	stcpl	6, cr6, [pc], #-20	; 1648 <_start-0x69b8>
    1658:	04000003 	streq	r0, [r0], #-3
    165c:	00035ecd 	andeq	r5, r3, sp, asr #29
    1660:	03672f00 	cmneq	r7, #0, 30
    1664:	d0040000 	andle	r0, r4, r0
    1668:	0000035e 	andeq	r0, r0, lr, asr r3
    166c:	0004552f 	andeq	r5, r4, pc, lsr #10
    1670:	37fa0400 	ldrbcc	r0, [sl, r0, lsl #8]!
    1674:	2b000000 	blcs	167c <_start-0x6984>
    1678:	0000010d 	andeq	r0, r0, sp, lsl #2
    167c:	982ffe04 	stmdals	pc!, {r2, r9, sl, fp, ip, sp, lr, pc}	; <UNPREDICTABLE>
    1680:	04000002 	streq	r0, [r0], #-2
    1684:	000353aa 	andeq	r5, r3, sl, lsr #7
    1688:	02183000 	andseq	r3, r8, #0
    168c:	ab040000 	blge	101694 <__bss_end__+0xf530c>
    1690:	0000169a 	muleq	r0, sl, r6
    1694:	0003532d 	andeq	r5, r3, sp, lsr #6
    1698:	f5300000 			; <UNDEFINED> instruction: 0xf5300000
    169c:	04000001 	streq	r0, [r0], #-1
    16a0:	0016ab5a 	andseq	sl, r6, sl, asr fp
    16a4:	067d2d00 	ldrbteq	r2, [sp], -r0, lsl #26
    16a8:	31000000 	mrscc	r0, (UNDEF: 0)
    16ac:	000001cc 	andeq	r0, r0, ip, asr #3
    16b0:	c7010504 	strgt	r0, [r1, -r4, lsl #10]
    16b4:	2d000016 	stccs	0, cr0, [r0, #-88]	; 0xffffffa8
    16b8:	0000009c 	muleq	r0, ip, r0
    16bc:	0016c72d 	andseq	ip, r6, sp, lsr #14
    16c0:	00372d00 	eorseq	r2, r7, r0, lsl #26
    16c4:	06000000 	streq	r0, [r0], -r0
    16c8:	0016cd04 	andseq	ip, r6, r4, lsl #26
    16cc:	342c3200 	strtcc	r3, [ip], #-512	; 0x200
    16d0:	06000004 	streq	r0, [r0], -r4
    16d4:	0000931b 	andeq	r9, r0, fp, lsl r3
    16d8:	0016ed00 	andseq	lr, r6, r0, lsl #26
    16dc:	00932d00 	addseq	r2, r3, r0, lsl #26
    16e0:	252d0000 	strcs	r0, [sp, #-0]!
    16e4:	2d000000 	stccs	0, cr0, [r0, #-0]
    16e8:	0000002c 	andeq	r0, r0, ip, lsr #32
    16ec:	03943000 	orrseq	r3, r4, #0
    16f0:	f7040000 			; <UNDEFINED> instruction: 0xf7040000
    16f4:	000016fe 	strdeq	r1, [r0], -lr
    16f8:	0001982d 	andeq	r9, r1, sp, lsr #16
    16fc:	0d2b0000 	stceq	0, cr0, [fp, #-0]
    1700:	07000005 	streq	r0, [r0, -r5]
    1704:	01743033 	cmneq	r4, r3, lsr r0
    1708:	fb040000 	blx	101712 <__bss_end__+0xf538a>
    170c:	00001716 	andeq	r1, r0, r6, lsl r7
    1710:	0000372d 	andeq	r3, r0, sp, lsr #14
    1714:	64330000 	ldrtvs	r0, [r3], #-0
    1718:	05006273 	streq	r6, [r0, #-627]	; 0x273
    171c:	02c13087 	sbceq	r3, r1, #135	; 0x87
    1720:	f1040000 	cps	#0
    1724:	00001733 	andeq	r1, r0, r3, lsr r7
    1728:	0000372d 	andeq	r3, r0, sp, lsr #14
    172c:	067d2d00 	ldrbteq	r2, [sp], -r0, lsl #26
    1730:	30000000 	andcc	r0, r0, r0
    1734:	000004d7 	ldrdeq	r0, [r0], -r7
    1738:	1744f404 	strbne	pc, [r4, -r4, lsl #8]	; <UNPREDICTABLE>
    173c:	532d0000 	teqpl	sp, #0
    1740:	00000003 	andeq	r0, r0, r3
    1744:	0001d72c 	andeq	sp, r1, ip, lsr #14
    1748:	37a90500 	strcc	r0, [r9, r0, lsl #10]!
    174c:	59000000 	stmdbpl	r0, {}	; <UNPREDICTABLE>
    1750:	2d000017 	stccs	0, cr0, [r0, #-92]	; 0xffffffa4
    1754:	00001759 	andeq	r1, r0, r9, asr r7
    1758:	5f040600 	svcpl	0x00040600
    175c:	07000017 	smladeq	r0, r7, r0, r0
    1760:	00001764 	andeq	r1, r0, r4, ror #14
    1764:	00782b34 	rsbseq	r2, r8, r4, lsr fp
    1768:	3a050000 	bcc	141770 <__bss_end__+0x1353e8>
    176c:	00023a35 	andeq	r3, r2, r5, lsr sl
    1770:	01080400 	tsteq	r8, r0, lsl #8
    1774:	00109200 	andseq	r9, r0, r0, lsl #4
    1778:	e8000400 	stmda	r0, {sl}
    177c:	04000002 	streq	r0, [r0], #-2
    1780:	0003aa01 	andeq	sl, r3, r1, lsl #20
    1784:	05d40100 	ldrbeq	r0, [r4, #256]	; 0x100
    1788:	011e0000 	tsteq	lr, r0
    178c:	89200000 	stmdbhi	r0!, {}	; <UNPREDICTABLE>
    1790:	08380000 	ldmdaeq	r8!, {}	; <UNPREDICTABLE>
    1794:	02f50000 	rscseq	r0, r5, #0
    1798:	04020000 	streq	r0, [r2], #-0
    179c:	746e6905 	strbtvc	r6, [lr], #-2309	; 0x905
    17a0:	07040300 	streq	r0, [r4, -r0, lsl #6]
    17a4:	00000092 	muleq	r0, r2, r0
    17a8:	02060103 	andeq	r0, r6, #-1073741824	; 0xc0000000
    17ac:	03000003 	movweq	r0, #3
    17b0:	032e0502 	teqeq	lr, #8388608	; 0x800000
    17b4:	04030000 	streq	r0, [r3], #-0
    17b8:	0000b805 	andeq	fp, r0, r5, lsl #16
    17bc:	05080300 	streq	r0, [r8, #-768]	; 0x300
    17c0:	000000b3 	strheq	r0, [r0], -r3
    17c4:	00080103 	andeq	r0, r8, r3, lsl #2
    17c8:	03000003 	movweq	r0, #3
    17cc:	01e20702 	mvneq	r0, r2, lsl #14
    17d0:	8b040000 	blhi	1017d8 <__bss_end__+0xf5450>
    17d4:	03000003 	movweq	r0, #3
    17d8:	00006834 	andeq	r6, r0, r4, lsr r8
    17dc:	07040300 	streq	r0, [r4, -r0, lsl #6]
    17e0:	0000008d 	andeq	r0, r0, sp, lsl #1
    17e4:	88070803 	stmdahi	r7, {r0, r1, fp}
    17e8:	03000000 	movweq	r0, #0
    17ec:	02860704 	addeq	r0, r6, #4, 14	; 0x100000
    17f0:	01030000 	mrseq	r0, (UNDEF: 3)
    17f4:	00030908 	andeq	r0, r3, r8, lsl #18
    17f8:	8a040500 	bhi	102c00 <__bss_end__+0xf6878>
    17fc:	06000000 	streq	r0, [r0], -r0
    1800:	0000007d 	andeq	r0, r0, sp, ror r0
    1804:	00007d07 	andeq	r7, r0, r7, lsl #26
    1808:	00009f00 	andeq	r9, r0, r0, lsl #30
    180c:	00760800 	rsbseq	r0, r6, r0, lsl #16
    1810:	00190000 	andseq	r0, r9, r0
    1814:	00007d07 	andeq	r7, r0, r7, lsl #26
    1818:	0000af00 	andeq	sl, r0, r0, lsl #30
    181c:	00760800 	rsbseq	r0, r6, r0, lsl #16
    1820:	00180000 	andseq	r0, r8, r0
    1824:	00026f09 	andeq	r6, r2, r9, lsl #30
    1828:	42020400 	andmi	r0, r2, #0, 8
    182c:	00000185 	andeq	r0, r0, r5, lsl #3
    1830:	6761740a 	strbvs	r7, [r1, -sl, lsl #8]!
    1834:	2c440200 	sfmcs	f0, 2, [r4], {-0}
    1838:	04000000 	streq	r0, [r0], #-0
    183c:	0a001e02 	beq	904c <fld_print+0xd8>
    1840:	45020042 	strmi	r0, [r2, #-66]	; 0x42
    1844:	0000002c 	andeq	r0, r0, ip, lsr #32
    1848:	001d0104 	andseq	r0, sp, r4, lsl #2
    184c:	0200430a 	andeq	r4, r0, #671088640	; 0x28000000
    1850:	00002c46 	andeq	r2, r0, r6, asr #24
    1854:	1c010400 	cfstrsne	mvf0, [r1], {-0}
    1858:	4e580a00 	vnmlsmi.f32	s1, s16, s0
    185c:	2c470200 	sfmcs	f0, 2, [r7], {-0}
    1860:	04000000 	streq	r0, [r0], #-0
    1864:	0b001b01 	bleq	8470 <data_abort_vector+0xd8>
    1868:	00000497 	muleq	r0, r7, r4
    186c:	002c4a02 	eoreq	r4, ip, r2, lsl #20
    1870:	04040000 	streq	r0, [r4], #-0
    1874:	490a0017 	stmdbmi	sl, {r0, r1, r2, r4}
    1878:	0200504d 	andeq	r5, r0, #77	; 0x4d
    187c:	00002c4b 	andeq	r2, r0, fp, asr #24
    1880:	16010400 	strne	r0, [r1], -r0, lsl #8
    1884:	50410a00 	subpl	r0, r1, r0, lsl #20
    1888:	2c4e0200 	sfmcs	f0, 2, [lr], {-0}
    188c:	04000000 	streq	r0, [r0], #-0
    1890:	0a001402 	beq	68a0 <_start-0x1760>
    1894:	00584554 	subseq	r4, r8, r4, asr r5
    1898:	002c4f02 	eoreq	r4, ip, r2, lsl #30
    189c:	03040000 	movweq	r0, #16384	; 0x4000
    18a0:	410a0011 	tstmi	sl, r1, lsl r0
    18a4:	02005850 	andeq	r5, r0, #80, 16	; 0x500000
    18a8:	00002c50 	andeq	r2, r0, r0, asr ip
    18ac:	10010400 	andne	r0, r1, r0, lsl #8
    18b0:	00530a00 	subseq	r0, r3, r0, lsl #20
    18b4:	002c5102 	eoreq	r5, ip, r2, lsl #2
    18b8:	01040000 	mrseq	r0, (UNDEF: 4)
    18bc:	6e0a000f 	cdpvs	0, 0, cr0, cr10, cr15, {0}
    18c0:	52020047 	andpl	r0, r2, #71	; 0x47
    18c4:	0000002c 	andeq	r0, r0, ip, lsr #32
    18c8:	000e0104 	andeq	r0, lr, r4, lsl #2
    18cc:	0002120b 	andeq	r1, r2, fp, lsl #4
    18d0:	2c530200 	lfmcs	f0, 2, [r3], {-0}
    18d4:	04000000 	streq	r0, [r0], #-0
    18d8:	0b000d01 	bleq	4ce4 <_start-0x331c>
    18dc:	000004a4 	andeq	r0, r0, r4, lsr #9
    18e0:	002c5402 	eoreq	r5, ip, r2, lsl #8
    18e4:	01040000 	mrseq	r0, (UNDEF: 4)
    18e8:	d80b000c 	stmdale	fp, {r2, r3}
    18ec:	02000000 	andeq	r0, r0, #0
    18f0:	00002c55 	andeq	r2, r0, r5, asr ip
    18f4:	000c0400 	andeq	r0, ip, r0, lsl #8
    18f8:	96040000 	strls	r0, [r4], -r0
    18fc:	02000001 	andeq	r0, r0, #1
    1900:	0000af56 	andeq	sl, r0, r6, asr pc
    1904:	05620900 	strbeq	r0, [r2, #-2304]!	; 0x900
    1908:	02040000 	andeq	r0, r4, #0
    190c:	0001e865 	andeq	lr, r1, r5, ror #16
    1910:	05e10b00 	strbeq	r0, [r1, #2816]!	; 0xb00
    1914:	67020000 	strvs	r0, [r2, -r0]
    1918:	0000002c 	andeq	r0, r0, ip, lsr #32
    191c:	001f0104 	andseq	r0, pc, r4, lsl #2
    1920:	00049e0b 	andeq	r9, r4, fp, lsl #28
    1924:	2c680200 	sfmcs	f0, 2, [r8], #-0
    1928:	04000000 	streq	r0, [r0], #-0
    192c:	0b001807 	bleq	7950 <_start-0x6b0>
    1930:	000005f4 	strdeq	r0, [r0], -r4
    1934:	002c6902 	eoreq	r6, ip, r2, lsl #18
    1938:	08040000 	stmdaeq	r4, {}	; <UNPREDICTABLE>
    193c:	eb0b0010 	bl	2c1984 <__bss_end__+0x2b55fc>
    1940:	02000005 	andeq	r0, r0, #5
    1944:	00002c6a 	andeq	r2, r0, sl, ror #24
    1948:	08080400 	stmdaeq	r8, {sl}
    194c:	04a40b00 	strteq	r0, [r4], #2816	; 0xb00
    1950:	6b020000 	blvs	81958 <__bss_end__+0x755d0>
    1954:	0000002c 	andeq	r0, r0, ip, lsr #32
    1958:	00000804 	andeq	r0, r0, r4, lsl #16
    195c:	04010900 	streq	r0, [r1], #-2304	; 0x900
    1960:	02040000 	andeq	r0, r4, #0
    1964:	0003a386 	andeq	sl, r3, r6, lsl #7
    1968:	03500b00 	cmpeq	r0, #0, 22
    196c:	88020000 	stmdahi	r2, {}	; <UNPREDICTABLE>
    1970:	0000002c 	andeq	r0, r0, ip, lsr #32
    1974:	001f0104 	andseq	r0, pc, r4, lsl #2
    1978:	0000a70b 	andeq	sl, r0, fp, lsl #14
    197c:	2c890200 	sfmcs	f0, 4, [r9], {0}
    1980:	04000000 	streq	r0, [r0], #-0
    1984:	0b001e01 	bleq	9190 <inv_icache+0x4>
    1988:	000004c6 	andeq	r0, r0, r6, asr #9
    198c:	002c8a02 	eoreq	r8, ip, r2, lsl #20
    1990:	01040000 	mrseq	r0, (UNDEF: 4)
    1994:	220b001d 	andcs	r0, fp, #29
    1998:	02000003 	andeq	r0, r0, #3
    199c:	00002c8c 	andeq	r2, r0, ip, lsl #25
    19a0:	1c010400 	cfstrsne	mvf0, [r1], {-0}
    19a4:	042b0b00 	strteq	r0, [fp], #-2816	; 0xb00
    19a8:	8d020000 	stchi	0, cr0, [r2, #-0]
    19ac:	0000002c 	andeq	r0, r0, ip, lsr #32
    19b0:	00190304 	andseq	r0, r9, r4, lsl #6
    19b4:	00004d0b 	andeq	r4, r0, fp, lsl #26
    19b8:	2c8e0200 	sfmcs	f0, 4, [lr], {0}
    19bc:	04000000 	streq	r0, [r0], #-0
    19c0:	0b001801 	bleq	79cc <_start-0x634>
    19c4:	00000338 	andeq	r0, r0, r8, lsr r3
    19c8:	002c8f02 	eoreq	r8, ip, r2, lsl #30
    19cc:	01040000 	mrseq	r0, (UNDEF: 4)
    19d0:	b60b0017 			; <UNDEFINED> instruction: 0xb60b0017
    19d4:	02000002 	andeq	r0, r0, #2
    19d8:	00002c90 	muleq	r0, r0, ip
    19dc:	16010400 	strne	r0, [r1], -r0, lsl #8
    19e0:	00460a00 	subeq	r0, r6, r0, lsl #20
    19e4:	002c9102 	eoreq	r9, ip, r2, lsl #2
    19e8:	01040000 	mrseq	r0, (UNDEF: 4)
    19ec:	000b0015 	andeq	r0, fp, r5, lsl r0
    19f0:	02000000 	andeq	r0, r0, #0
    19f4:	00002c92 	muleq	r0, r2, ip
    19f8:	14010400 	strne	r0, [r1], #-1024	; 0x400
    19fc:	00600b00 	rsbeq	r0, r0, r0, lsl #22
    1a00:	93020000 	movwls	r0, #8192	; 0x2000
    1a04:	0000002c 	andeq	r0, r0, ip, lsr #32
    1a08:	00130104 	andseq	r0, r3, r4, lsl #2
    1a0c:	00003d0b 	andeq	r3, r0, fp, lsl #26
    1a10:	2c940200 	lfmcs	f0, 4, [r4], {0}
    1a14:	04000000 	streq	r0, [r0], #-0
    1a18:	0b001201 	bleq	6224 <_start-0x1ddc>
    1a1c:	00000205 	andeq	r0, r0, r5, lsl #4
    1a20:	002c9502 	eoreq	r9, ip, r2, lsl #10
    1a24:	01040000 	mrseq	r0, (UNDEF: 4)
    1a28:	4c0a0011 	stcmi	0, cr0, [sl], {17}
    1a2c:	96020034 			; <UNDEFINED> instruction: 0x96020034
    1a30:	0000002c 	andeq	r0, r0, ip, lsr #32
    1a34:	00100104 	andseq	r0, r0, r4, lsl #2
    1a38:	74645f0a 	strbtvc	r5, [r4], #-3850	; 0xf0a
    1a3c:	2c970200 	lfmcs	f0, 4, [r7], {0}
    1a40:	04000000 	streq	r0, [r0], #-0
    1a44:	0b000f01 	bleq	5650 <_start-0x29b0>
    1a48:	0000049e 	muleq	r0, lr, r4
    1a4c:	002c9802 	eoreq	r9, ip, r2, lsl #16
    1a50:	01040000 	mrseq	r0, (UNDEF: 4)
    1a54:	5f0a000e 	svcpl	0x000a000e
    1a58:	02007469 	andeq	r7, r0, #1761607680	; 0x69000000
    1a5c:	00002c99 	muleq	r0, r9, ip
    1a60:	0d010400 	cfstrseq	mvf0, [r1, #-0]
    1a64:	04a40b00 	strteq	r0, [r4], #2816	; 0xb00
    1a68:	9a020000 	bls	81a70 <__bss_end__+0x756e8>
    1a6c:	0000002c 	andeq	r0, r0, ip, lsr #32
    1a70:	000c0104 	andeq	r0, ip, r4, lsl #2
    1a74:	74735f0a 	ldrbtvc	r5, [r3], #-3850	; 0xf0a
    1a78:	2c9b0200 	lfmcs	f0, 4, [fp], {0}
    1a7c:	04000000 	streq	r0, [r0], #-0
    1a80:	0a000b01 	beq	468c <_start-0x3974>
    1a84:	02003146 	andeq	r3, r0, #-2147483631	; 0x80000011
    1a88:	00002c9c 	muleq	r0, ip, ip
    1a8c:	0a010400 	beq	42a94 <__bss_end__+0x3670c>
    1a90:	037f0b00 	cmneq	pc, #0, 22
    1a94:	9d020000 	stcls	0, cr0, [r2, #-0]
    1a98:	0000002c 	andeq	r0, r0, ip, lsr #32
    1a9c:	00090104 	andeq	r0, r9, r4, lsl #2
    1aa0:	0003a40b 	andeq	sl, r3, fp, lsl #8
    1aa4:	2c9e0200 	lfmcs	f0, 4, [lr], {0}
    1aa8:	04000000 	streq	r0, [r0], #-0
    1aac:	0b000801 	bleq	3ab8 <_start-0x4548>
    1ab0:	000002aa 	andeq	r0, r0, sl, lsr #5
    1ab4:	002ca002 	eoreq	sl, ip, r2
    1ab8:	01040000 	mrseq	r0, (UNDEF: 4)
    1abc:	450a0007 	strmi	r0, [sl, #-7]
    1ac0:	a1020045 	tstge	r2, r5, asr #32
    1ac4:	0000002c 	andeq	r0, r0, ip, lsr #32
    1ac8:	00060104 	andeq	r0, r6, r4, lsl #2
    1acc:	0004bb0b 	andeq	fp, r4, fp, lsl #22
    1ad0:	2ca20200 	sfmcs	f0, 4, [r2]
    1ad4:	04000000 	streq	r0, [r0], #-0
    1ad8:	0b000501 	bleq	2ee4 <_start-0x511c>
    1adc:	00000259 	andeq	r0, r0, r9, asr r2
    1ae0:	002ca302 	eoreq	sl, ip, r2, lsl #6
    1ae4:	01040000 	mrseq	r0, (UNDEF: 4)
    1ae8:	0e0b0004 	cdpeq	0, 0, cr0, cr11, cr4, {0}
    1aec:	02000003 	andeq	r0, r0, #3
    1af0:	00002ca4 	andeq	r2, r0, r4, lsr #25
    1af4:	03010400 	movweq	r0, #5120	; 0x1400
    1af8:	02e60b00 	rsceq	r0, r6, #0, 22
    1afc:	a5020000 	strge	r0, [r2, #-0]
    1b00:	0000002c 	andeq	r0, r0, ip, lsr #32
    1b04:	00020104 	andeq	r0, r2, r4, lsl #2
    1b08:	0002640b 	andeq	r6, r2, fp, lsl #8
    1b0c:	2ca60200 	sfmcs	f0, 4, [r6]
    1b10:	04000000 	streq	r0, [r0], #-0
    1b14:	00000002 	andeq	r0, r0, r2
    1b18:	0005320c 	andeq	r3, r5, ip, lsl #4
    1b1c:	202f0100 	eorcs	r0, pc, r0, lsl #2
    1b20:	a0000089 	andge	r0, r0, r9, lsl #1
    1b24:	01000001 	tsteq	r0, r1
    1b28:	00061e9c 	muleq	r6, ip, lr
    1b2c:	00720d00 	rsbseq	r0, r2, r0, lsl #26
    1b30:	061e2f01 	ldreq	r2, [lr], -r1, lsl #30
    1b34:	08660000 	stmdaeq	r6!, {}^	; <UNPREDICTABLE>
    1b38:	bf0e0000 	svclt	0x000e0000
    1b3c:	24000001 	strcs	r0, [r0], #-1
    1b40:	05000006 	streq	r0, [r0, #-6]
    1b44:	00b49003 	adcseq	r9, r4, r3
    1b48:	893c0f00 	ldmdbhi	ip!, {r8, r9, sl, fp}
    1b4c:	105b0000 	subsne	r0, fp, r0
    1b50:	50100000 	andspl	r0, r0, r0
    1b54:	62000089 	andvs	r0, r0, #137	; 0x89
    1b58:	0c000010 	stceq	0, cr0, [r0], {16}
    1b5c:	11000004 	tstne	r0, r4
    1b60:	08025301 	stmdaeq	r2, {r0, r8, r9, ip, lr}
    1b64:	52011131 	andpl	r1, r1, #1073741836	; 0x4000000c
    1b68:	b4900305 	ldrlt	r0, [r0], #773	; 0x305
    1b6c:	01110000 	tsteq	r1, r0
    1b70:	30030551 	andcc	r0, r3, r1, asr r5
    1b74:	110000b5 	strhne	r0, [r0, -r5]
    1b78:	03055001 	movweq	r5, #20481	; 0x5001
    1b7c:	0000b508 	andeq	fp, r0, r8, lsl #10
    1b80:	89540f00 	ldmdbhi	r4, {r8, r9, sl, fp}^
    1b84:	10780000 	rsbsne	r0, r8, r0
    1b88:	640f0000 	strvs	r0, [pc], #-0	; 1b90 <_start-0x6470>
    1b8c:	5b000089 	blpl	1db8 <_start-0x6248>
    1b90:	10000010 	andne	r0, r0, r0, lsl r0
    1b94:	00008978 	andeq	r8, r0, r8, ror r9
    1b98:	00001062 	andeq	r1, r0, r2, rrx
    1b9c:	0000044d 	andeq	r0, r0, sp, asr #8
    1ba0:	02530111 	subseq	r0, r3, #1073741828	; 0x40000004
    1ba4:	01113208 	tsteq	r1, r8, lsl #4
    1ba8:	90030552 	andls	r0, r3, r2, asr r5
    1bac:	110000b4 	strhne	r0, [r0, -r4]
    1bb0:	03055101 	movweq	r5, #20737	; 0x5101
    1bb4:	0000b530 	andeq	fp, r0, r0, lsr r5
    1bb8:	05500111 	ldrbeq	r0, [r0, #-273]	; 0x111
    1bbc:	00b54003 	adcseq	r4, r5, r3
    1bc0:	7c0f0000 	stcvc	0, cr0, [pc], {-0}
    1bc4:	78000089 	stmdavc	r0, {r0, r3, r7}
    1bc8:	0f000010 	svceq	0x00000010
    1bcc:	0000898c 	andeq	r8, r0, ip, lsl #19
    1bd0:	0000105b 	andeq	r1, r0, fp, asr r0
    1bd4:	0089a010 	addeq	sl, r9, r0, lsl r0
    1bd8:	00106200 	andseq	r6, r0, r0, lsl #4
    1bdc:	00048e00 	andeq	r8, r4, r0, lsl #28
    1be0:	53011100 	movwpl	r1, #4352	; 0x1100
    1be4:	11330802 	teqne	r3, r2, lsl #16
    1be8:	03055201 	movweq	r5, #20993	; 0x5201
    1bec:	0000b490 	muleq	r0, r0, r4
    1bf0:	05510111 	ldrbeq	r0, [r1, #-273]	; 0x111
    1bf4:	00b53003 	adcseq	r3, r5, r3
    1bf8:	50011100 	andpl	r1, r1, r0, lsl #2
    1bfc:	b55c0305 	ldrblt	r0, [ip, #-773]	; 0x305
    1c00:	0f000000 	svceq	0x00000000
    1c04:	000089a4 	andeq	r8, r0, r4, lsr #19
    1c08:	00001078 	andeq	r1, r0, r8, ror r0
    1c0c:	0089b40f 	addeq	fp, r9, pc, lsl #8
    1c10:	00105b00 	andseq	r5, r0, r0, lsl #22
    1c14:	89c81000 	stmibhi	r8, {ip}^
    1c18:	10620000 	rsbne	r0, r2, r0
    1c1c:	04cf0000 	strbeq	r0, [pc], #0	; 1c24 <_start-0x63dc>
    1c20:	01110000 	tsteq	r1, r0
    1c24:	36080253 			; <UNDEFINED> instruction: 0x36080253
    1c28:	05520111 	ldrbeq	r0, [r2, #-273]	; 0x111
    1c2c:	00b49003 	adcseq	r9, r4, r3
    1c30:	51011100 	mrspl	r1, (UNDEF: 17)
    1c34:	b5300305 	ldrlt	r0, [r0, #-773]!	; 0x305
    1c38:	01110000 	tsteq	r1, r0
    1c3c:	78030550 	stmdavc	r3, {r4, r6, r8, sl}
    1c40:	000000b5 	strheq	r0, [r0], -r5
    1c44:	0089cc0f 	addeq	ip, r9, pc, lsl #24
    1c48:	00107800 	andseq	r7, r0, r0, lsl #16
    1c4c:	89dc0f00 	ldmibhi	ip, {r8, r9, sl, fp}^
    1c50:	105b0000 	subsne	r0, fp, r0
    1c54:	f0100000 			; <UNDEFINED> instruction: 0xf0100000
    1c58:	62000089 	andvs	r0, r0, #137	; 0x89
    1c5c:	10000010 	andne	r0, r0, r0, lsl r0
    1c60:	11000005 	tstne	r0, r5
    1c64:	08025301 	stmdaeq	r2, {r0, r8, r9, ip, lr}
    1c68:	52011137 	andpl	r1, r1, #-1073741811	; 0xc000000d
    1c6c:	b4900305 	ldrlt	r0, [r0], #773	; 0x305
    1c70:	01110000 	tsteq	r1, r0
    1c74:	30030551 	andcc	r0, r3, r1, asr r5
    1c78:	110000b5 	strhne	r0, [r0, -r5]
    1c7c:	03055001 	movweq	r5, #20481	; 0x5001
    1c80:	0000b598 	muleq	r0, r8, r5
    1c84:	89f40f00 	ldmibhi	r4!, {r8, r9, sl, fp}^
    1c88:	10780000 	rsbsne	r0, r8, r0
    1c8c:	040f0000 	streq	r0, [pc], #-0	; 1c94 <_start-0x636c>
    1c90:	5b00008a 	blpl	1ec0 <_start-0x6140>
    1c94:	10000010 	andne	r0, r0, r0, lsl r0
    1c98:	00008a18 	andeq	r8, r0, r8, lsl sl
    1c9c:	00001062 	andeq	r1, r0, r2, rrx
    1ca0:	00000551 	andeq	r0, r0, r1, asr r5
    1ca4:	02530111 	subseq	r0, r3, #1073741828	; 0x40000004
    1ca8:	01113808 	tsteq	r1, r8, lsl #16
    1cac:	90030552 	andls	r0, r3, r2, asr r5
    1cb0:	110000b4 	strhne	r0, [r0, -r4]
    1cb4:	03055101 	movweq	r5, #20737	; 0x5101
    1cb8:	0000b530 	andeq	fp, r0, r0, lsr r5
    1cbc:	05500111 	ldrbeq	r0, [r0, #-273]	; 0x111
    1cc0:	00b5b803 	adcseq	fp, r5, r3, lsl #16
    1cc4:	1c0f0000 	stcne	0, cr0, [pc], {-0}
    1cc8:	7800008a 	stmdavc	r0, {r1, r3, r7}
    1ccc:	0f000010 	svceq	0x00000010
    1cd0:	00008a2c 	andeq	r8, r0, ip, lsr #20
    1cd4:	0000105b 	andeq	r1, r0, fp, asr r0
    1cd8:	008a4010 	addeq	r4, sl, r0, lsl r0
    1cdc:	00106200 	andseq	r6, r0, r0, lsl #4
    1ce0:	00059200 	andeq	r9, r5, r0, lsl #4
    1ce4:	53011100 	movwpl	r1, #4352	; 0x1100
    1ce8:	11410802 	cmpne	r1, r2, lsl #16
    1cec:	03055201 	movweq	r5, #20993	; 0x5201
    1cf0:	0000b490 	muleq	r0, r0, r4
    1cf4:	05510111 	ldrbeq	r0, [r1, #-273]	; 0x111
    1cf8:	00b53003 	adcseq	r3, r5, r3
    1cfc:	50011100 	andpl	r1, r1, r0, lsl #2
    1d00:	b5d40305 	ldrblt	r0, [r4, #773]	; 0x305
    1d04:	0f000000 	svceq	0x00000000
    1d08:	00008a44 	andeq	r8, r0, r4, asr #20
    1d0c:	00001078 	andeq	r1, r0, r8, ror r0
    1d10:	008a540f 	addeq	r5, sl, pc, lsl #8
    1d14:	00105b00 	andseq	r5, r0, r0, lsl #22
    1d18:	8a681000 	bhi	1a05d20 <__bss_end__+0x19f9998>
    1d1c:	10620000 	rsbne	r0, r2, r0
    1d20:	05d30000 	ldrbeq	r0, [r3]
    1d24:	01110000 	tsteq	r1, r0
    1d28:	42080253 	andmi	r0, r8, #805306373	; 0x30000005
    1d2c:	05520111 	ldrbeq	r0, [r2, #-273]	; 0x111
    1d30:	00b49003 	adcseq	r9, r4, r3
    1d34:	51011100 	mrspl	r1, (UNDEF: 17)
    1d38:	b5300305 	ldrlt	r0, [r0, #-773]!	; 0x305
    1d3c:	01110000 	tsteq	r1, r0
    1d40:	f4030550 	vst3.16	{d0,d2,d4}, [r3 :64], r0
    1d44:	000000b5 	strheq	r0, [r0], -r5
    1d48:	008a6c0f 	addeq	r6, sl, pc, lsl #24
    1d4c:	00107800 	andseq	r7, r0, r0, lsl #16
    1d50:	8a7c0f00 	bhi	1f05958 <__bss_end__+0x1ef95d0>
    1d54:	105b0000 	subsne	r0, fp, r0
    1d58:	90100000 	andsls	r0, r0, r0
    1d5c:	6200008a 	andvs	r0, r0, #138	; 0x8a
    1d60:	14000010 	strne	r0, [r0], #-16
    1d64:	11000006 	tstne	r0, r6
    1d68:	08025301 	stmdaeq	r2, {r0, r8, r9, ip, lr}
    1d6c:	52011143 	andpl	r1, r1, #-1073741808	; 0xc0000010
    1d70:	b4900305 	ldrlt	r0, [r0], #773	; 0x305
    1d74:	01110000 	tsteq	r1, r0
    1d78:	30030551 	andcc	r0, r3, r1, asr r5
    1d7c:	110000b5 	strhne	r0, [r0, -r5]
    1d80:	03055001 	movweq	r5, #20481	; 0x5001
    1d84:	0000b618 	andeq	fp, r0, r8, lsl r6
    1d88:	8a940f00 	bhi	fe505990 <__bss_end__+0xfe4f9608>
    1d8c:	10780000 	rsbsne	r0, r8, r0
    1d90:	05000000 	streq	r0, [r0, #-0]
    1d94:	0001e804 	andeq	lr, r1, r4, lsl #16
    1d98:	008f0600 	addeq	r0, pc, r0, lsl #12
    1d9c:	4c0c0000 	stcmi	0, cr0, [ip], {-0}
    1da0:	01000005 	tsteq	r0, r5
    1da4:	008ac072 	addeq	ip, sl, r2, ror r0
    1da8:	00017000 	andeq	r7, r1, r0
    1dac:	639c0100 	orrsvs	r0, ip, #0, 2
    1db0:	0d000008 	stceq	0, cr0, [r0, #-32]	; 0xffffffe0
    1db4:	72010066 	andvc	r0, r1, #102	; 0x66
    1db8:	00000863 	andeq	r0, r0, r3, ror #16
    1dbc:	0000094f 	andeq	r0, r0, pc, asr #18
    1dc0:	0001bf0e 	andeq	fp, r1, lr, lsl #30
    1dc4:	00087900 	andeq	r7, r8, r0, lsl #18
    1dc8:	ac030500 	cfstr32ge	mvfx0, [r3], {-0}
    1dcc:	0f0000b4 	svceq	0x000000b4
    1dd0:	00008ad4 	ldrdeq	r8, [r0], -r4
    1dd4:	0000105b 	andeq	r1, r0, fp, asr r0
    1dd8:	008ae810 	addeq	lr, sl, r0, lsl r8
    1ddc:	00106200 	andseq	r6, r0, r0, lsl #4
    1de0:	00069200 	andeq	r9, r6, r0, lsl #4
    1de4:	53011100 	movwpl	r1, #4352	; 0x1100
    1de8:	11730802 	cmnne	r3, r2, lsl #16
    1dec:	03055201 	movweq	r5, #20993	; 0x5201
    1df0:	0000b4ac 	andeq	fp, r0, ip, lsr #9
    1df4:	05510111 	ldrbeq	r0, [r1, #-273]	; 0x111
    1df8:	00b53003 	adcseq	r3, r5, r3
    1dfc:	50011100 	andpl	r1, r1, r0, lsl #2
    1e00:	b6400305 	strblt	r0, [r0], -r5, lsl #6
    1e04:	0f000000 	svceq	0x00000000
    1e08:	00008aec 	andeq	r8, r0, ip, ror #21
    1e0c:	00001078 	andeq	r1, r0, r8, ror r0
    1e10:	008b000f 	addeq	r0, fp, pc
    1e14:	00105b00 	andseq	r5, r0, r0, lsl #22
    1e18:	8b141000 	blhi	505e20 <__bss_end__+0x4f9a98>
    1e1c:	10620000 	rsbne	r0, r2, r0
    1e20:	06d30000 	ldrbeq	r0, [r3], r0
    1e24:	01110000 	tsteq	r1, r0
    1e28:	74080253 	strvc	r0, [r8], #-595	; 0x253
    1e2c:	05520111 	ldrbeq	r0, [r2, #-273]	; 0x111
    1e30:	00b4ac03 	adcseq	sl, r4, r3, lsl #24
    1e34:	51011100 	mrspl	r1, (UNDEF: 17)
    1e38:	b5300305 	ldrlt	r0, [r0, #-773]!	; 0x305
    1e3c:	01110000 	tsteq	r1, r0
    1e40:	60030550 	andvs	r0, r3, r0, asr r5
    1e44:	000000b6 	strheq	r0, [r0], -r6
    1e48:	008b180f 	addeq	r1, fp, pc, lsl #16
    1e4c:	00107800 	andseq	r7, r0, r0, lsl #16
    1e50:	8b280f00 	blhi	a05a58 <__bss_end__+0x9f96d0>
    1e54:	105b0000 	subsne	r0, fp, r0
    1e58:	3c100000 	ldccc	0, cr0, [r0], {-0}
    1e5c:	6200008b 	andvs	r0, r0, #139	; 0x8b
    1e60:	14000010 	strne	r0, [r0], #-16
    1e64:	11000007 	tstne	r0, r7
    1e68:	08025301 	stmdaeq	r2, {r0, r8, r9, ip, lr}
    1e6c:	52011175 	andpl	r1, r1, #1073741853	; 0x4000001d
    1e70:	b4ac0305 	strtlt	r0, [ip], #773	; 0x305
    1e74:	01110000 	tsteq	r1, r0
    1e78:	30030551 	andcc	r0, r3, r1, asr r5
    1e7c:	110000b5 	strhne	r0, [r0, -r5]
    1e80:	03055001 	movweq	r5, #20481	; 0x5001
    1e84:	0000b680 	andeq	fp, r0, r0, lsl #13
    1e88:	8b400f00 	blhi	1005a90 <__bss_end__+0xff9708>
    1e8c:	10780000 	rsbsne	r0, r8, r0
    1e90:	500f0000 	andpl	r0, pc, r0
    1e94:	5b00008b 	blpl	20c8 <_start-0x5f38>
    1e98:	10000010 	andne	r0, r0, r0, lsl r0
    1e9c:	00008b64 	andeq	r8, r0, r4, ror #22
    1ea0:	00001062 	andeq	r1, r0, r2, rrx
    1ea4:	00000755 	andeq	r0, r0, r5, asr r7
    1ea8:	02530111 	subseq	r0, r3, #1073741828	; 0x40000004
    1eac:	01117608 	tsteq	r1, r8, lsl #12
    1eb0:	ac030552 	cfstr32ge	mvfx0, [r3], {82}	; 0x52
    1eb4:	110000b4 	strhne	r0, [r0, -r4]
    1eb8:	03055101 	movweq	r5, #20737	; 0x5101
    1ebc:	0000b530 	andeq	fp, r0, r0, lsr r5
    1ec0:	05500111 	ldrbeq	r0, [r0, #-273]	; 0x111
    1ec4:	00b69c03 	adcseq	r9, r6, r3, lsl #24
    1ec8:	680f0000 	stmdavs	pc, {}	; <UNPREDICTABLE>
    1ecc:	7800008b 	stmdavc	r0, {r0, r1, r3, r7}
    1ed0:	0f000010 	svceq	0x00000010
    1ed4:	00008b78 	andeq	r8, r0, r8, ror fp
    1ed8:	0000105b 	andeq	r1, r0, fp, asr r0
    1edc:	008b8c10 	addeq	r8, fp, r0, lsl ip
    1ee0:	00106200 	andseq	r6, r0, r0, lsl #4
    1ee4:	00079600 	andeq	r9, r7, r0, lsl #12
    1ee8:	53011100 	movwpl	r1, #4352	; 0x1100
    1eec:	11770802 	cmnne	r7, r2, lsl #16
    1ef0:	03055201 	movweq	r5, #20993	; 0x5201
    1ef4:	0000b4ac 	andeq	fp, r0, ip, lsr #9
    1ef8:	05510111 	ldrbeq	r0, [r1, #-273]	; 0x111
    1efc:	00b53003 	adcseq	r3, r5, r3
    1f00:	50011100 	andpl	r1, r1, r0, lsl #2
    1f04:	b6b80305 	ldrtlt	r0, [r8], r5, lsl #6
    1f08:	0f000000 	svceq	0x00000000
    1f0c:	00008b90 	muleq	r0, r0, fp
    1f10:	00001078 	andeq	r1, r0, r8, ror r0
    1f14:	008ba00f 	addeq	sl, fp, pc
    1f18:	00105b00 	andseq	r5, r0, r0, lsl #22
    1f1c:	8bb41000 	blhi	fed05f24 <__bss_end__+0xfecf9b9c>
    1f20:	10620000 	rsbne	r0, r2, r0
    1f24:	07d70000 	ldrbeq	r0, [r7, r0]
    1f28:	01110000 	tsteq	r1, r0
    1f2c:	78080253 	stmdavc	r8, {r0, r1, r4, r6, r9}
    1f30:	05520111 	ldrbeq	r0, [r2, #-273]	; 0x111
    1f34:	00b4ac03 	adcseq	sl, r4, r3, lsl #24
    1f38:	51011100 	mrspl	r1, (UNDEF: 17)
    1f3c:	b5300305 	ldrlt	r0, [r0, #-773]!	; 0x305
    1f40:	01110000 	tsteq	r1, r0
    1f44:	d4030550 	strle	r0, [r3], #-1360	; 0x550
    1f48:	000000b6 	strheq	r0, [r0], -r6
    1f4c:	008bb80f 	addeq	fp, fp, pc, lsl #16
    1f50:	00107800 	andseq	r7, r0, r0, lsl #16
    1f54:	8bc80f00 	blhi	ff205b5c <__bss_end__+0xff1f97d4>
    1f58:	105b0000 	subsne	r0, fp, r0
    1f5c:	dc100000 	ldcle	0, cr0, [r0], {-0}
    1f60:	6200008b 	andvs	r0, r0, #139	; 0x8b
    1f64:	18000010 	stmdane	r0, {r4}
    1f68:	11000008 	tstne	r0, r8
    1f6c:	08025301 	stmdaeq	r2, {r0, r8, r9, ip, lr}
    1f70:	52011179 	andpl	r1, r1, #1073741854	; 0x4000001e
    1f74:	b4ac0305 	strtlt	r0, [ip], #773	; 0x305
    1f78:	01110000 	tsteq	r1, r0
    1f7c:	30030551 	andcc	r0, r3, r1, asr r5
    1f80:	110000b5 	strhne	r0, [r0, -r5]
    1f84:	03055001 	movweq	r5, #20481	; 0x5001
    1f88:	0000b6f0 	strdeq	fp, [r0], -r0
    1f8c:	8be00f00 	blhi	ff805b94 <__bss_end__+0xff7f980c>
    1f90:	10780000 	rsbsne	r0, r8, r0
    1f94:	f00f0000 			; <UNDEFINED> instruction: 0xf00f0000
    1f98:	5b00008b 	blpl	21cc <_start-0x5e34>
    1f9c:	10000010 	andne	r0, r0, r0, lsl r0
    1fa0:	00008c04 	andeq	r8, r0, r4, lsl #24
    1fa4:	00001062 	andeq	r1, r0, r2, rrx
    1fa8:	00000859 	andeq	r0, r0, r9, asr r8
    1fac:	02530111 	subseq	r0, r3, #1073741828	; 0x40000004
    1fb0:	01117a08 	tsteq	r1, r8, lsl #20
    1fb4:	ac030552 	cfstr32ge	mvfx0, [r3], {82}	; 0x52
    1fb8:	110000b4 	strhne	r0, [r0, -r4]
    1fbc:	03055101 	movweq	r5, #20737	; 0x5101
    1fc0:	0000b530 	andeq	fp, r0, r0, lsr r5
    1fc4:	05500111 	ldrbeq	r0, [r0, #-273]	; 0x111
    1fc8:	00b70c03 	adcseq	r0, r7, r3, lsl #24
    1fcc:	080f0000 	stmdaeq	pc, {}	; <UNPREDICTABLE>
    1fd0:	7800008c 	stmdavc	r0, {r2, r3, r7}
    1fd4:	00000010 	andeq	r0, r0, r0, lsl r0
    1fd8:	01850405 	orreq	r0, r5, r5, lsl #8
    1fdc:	7d070000 	stcvc	0, cr0, [r7, #-0]
    1fe0:	79000000 	stmdbvc	r0, {}	; <UNPREDICTABLE>
    1fe4:	08000008 	stmdaeq	r0, {r3}
    1fe8:	00000076 	andeq	r0, r0, r6, ror r0
    1fec:	6906000f 	stmdbvs	r6, {r0, r1, r2, r3}
    1ff0:	0c000008 	stceq	0, cr0, [r0], {8}
    1ff4:	000005a8 	andeq	r0, r0, r8, lsr #11
    1ff8:	8c301601 	ldchi	6, cr1, [r0], #-4
    1ffc:	00080000 	andeq	r0, r8, r0
    2000:	9c010000 	stcls	0, cr0, [r1], {-0}
    2004:	000008a3 	andeq	r0, r0, r3, lsr #17
    2008:	0001bf0e 	andeq	fp, r1, lr, lsl #30
    200c:	0008b300 	andeq	fp, r8, r0, lsl #6
    2010:	bc030500 	cfstr32lt	mvfx0, [r3], {-0}
    2014:	000000b4 	strheq	r0, [r0], -r4
    2018:	00007d07 	andeq	r7, r0, r7, lsl #26
    201c:	0008b300 	andeq	fp, r8, r0, lsl #6
    2020:	00760800 	rsbseq	r0, r6, r0, lsl #16
    2024:	001a0000 	andseq	r0, sl, r0
    2028:	0008a306 	andeq	sl, r8, r6, lsl #6
    202c:	058f0c00 	streq	r0, [pc, #3072]	; 2c34 <_start-0x53cc>
    2030:	62010000 	andvs	r0, r1, #0
    2034:	00008c38 	andeq	r8, r0, r8, lsr ip
    2038:	00000008 	andeq	r0, r0, r8
    203c:	08dd9c01 	ldmeq	sp, {r0, sl, fp, ip, pc}^
    2040:	bf0e0000 	svclt	0x000e0000
    2044:	dd000001 	stcle	0, cr0, [r0, #-4]
    2048:	05000008 	streq	r0, [r0, #-8]
    204c:	00b4d803 	adcseq	sp, r4, r3, lsl #16
    2050:	9f060000 	svcls	0x00060000
    2054:	12000000 	andne	r0, r0, #0
    2058:	000001cc 	andeq	r0, r0, ip, asr #3
    205c:	8c400f01 	mcrrhi	15, 0, r0, r0, cr1
    2060:	00340000 	eorseq	r0, r4, r0
    2064:	9c010000 	stcls	0, cr0, [r1], {-0}
    2068:	0000095d 	andeq	r0, r0, sp, asr r9
    206c:	67736d0d 	ldrbvs	r6, [r3, -sp, lsl #26]!
    2070:	840f0100 	strhi	r0, [pc], #-256	; 2078 <_start-0x5f88>
    2074:	1f000000 	svcne	0x00000000
    2078:	1300000a 	movwne	r0, #10
    207c:	00000fb8 			; <UNDEFINED> instruction: 0x00000fb8
    2080:	095d0f01 	ldmdbeq	sp, {r0, r8, r9, sl, fp}^
    2084:	0a3d0000 	beq	f4208c <__bss_end__+0xf35d04>
    2088:	6e0d0000 	cdpvs	0, 0, cr0, cr13, cr0, {0}
    208c:	2c0f0100 	stfcss	f0, [pc], {-0}
    2090:	69000000 	stmdbvs	r0, {}	; <UNPREDICTABLE>
    2094:	1000000a 	andne	r0, r0, sl
    2098:	00008c58 	andeq	r8, r0, r8, asr ip
    209c:	0000107f 	andeq	r1, r0, pc, ror r0
    20a0:	0000093d 	andeq	r0, r0, sp, lsr r9
    20a4:	02510111 	subseq	r0, r1, #1073741828	; 0x40000004
    20a8:	01110074 	tsteq	r1, r4, ror r0
    20ac:	01f30350 	mvnseq	r0, r0, asr r3
    20b0:	6c140051 	ldcvs	0, cr0, [r4], {81}	; 0x51
    20b4:	6200008c 	andvs	r0, r0, #140	; 0x8c
    20b8:	11000010 	tstne	r0, r0, lsl r0
    20bc:	74025301 	strvc	r5, [r2], #-769	; 0x301
    20c0:	51011100 	mrspl	r1, (UNDEF: 17)
    20c4:	11007502 	tstne	r0, r2, lsl #10
    20c8:	03055001 	movweq	r5, #20481	; 0x5001
    20cc:	0000b8e8 	andeq	fp, r0, r8, ror #17
    20d0:	04050000 	streq	r0, [r5], #-0
    20d4:	00000963 	andeq	r0, r0, r3, ror #18
    20d8:	057c1215 	ldrbeq	r1, [ip, #-533]!	; 0x215
    20dc:	46010000 	strmi	r0, [r1], -r0
    20e0:	00008c74 	andeq	r8, r0, r4, ror ip
    20e4:	00000204 	andeq	r0, r0, r4, lsl #4
    20e8:	0bee9c01 	bleq	ffba90f4 <__bss_end__+0xffb9cd6c>
    20ec:	720d0000 	andvc	r0, sp, #0
    20f0:	1e460100 	dvfnes	f0, f6, f0
    20f4:	87000006 	strhi	r0, [r0, -r6]
    20f8:	1000000a 	andne	r0, r0, sl
    20fc:	00008c80 	andeq	r8, r0, r0, lsl #25
    2100:	000003a3 	andeq	r0, r0, r3, lsr #7
    2104:	0000099a 	muleq	r0, sl, r9
    2108:	02500111 	subseq	r0, r0, #1073741828	; 0x40000004
    210c:	10000074 	andne	r0, r0, r4, ror r0
    2110:	00008c88 	andeq	r8, r0, r8, lsl #25
    2114:	00001062 	andeq	r1, r0, r2, rrx
    2118:	000009b1 			; <UNDEFINED> instruction: 0x000009b1
    211c:	05500111 	ldrbeq	r0, [r0, #-273]	; 0x111
    2120:	00b90403 	adcseq	r0, r9, r3, lsl #8
    2124:	a0100000 	andsge	r0, r0, r0
    2128:	6200008c 	andvs	r0, r0, #140	; 0x8c
    212c:	d1000010 	tstle	r0, r0, lsl r0
    2130:	11000009 	tstne	r0, r9
    2134:	03055201 	movweq	r5, #20993	; 0x5201
    2138:	0000b8b8 			; <UNDEFINED> instruction: 0x0000b8b8
    213c:	05500111 	ldrbeq	r0, [r0, #-273]	; 0x111
    2140:	00b91c03 	adcseq	r1, r9, r3, lsl #24
    2144:	b8100000 	ldmdalt	r0, {}	; <UNPREDICTABLE>
    2148:	6200008c 	andvs	r0, r0, #140	; 0x8c
    214c:	f1000010 	cps	#16
    2150:	11000009 	tstne	r0, r9
    2154:	03055201 	movweq	r5, #20993	; 0x5201
    2158:	0000b8a8 	andeq	fp, r0, r8, lsr #17
    215c:	05500111 	ldrbeq	r0, [r0, #-273]	; 0x111
    2160:	00b91c03 	adcseq	r1, r9, r3, lsl #24
    2164:	d0100000 	andsle	r0, r0, r0
    2168:	6200008c 	andvs	r0, r0, #140	; 0x8c
    216c:	11000010 	tstne	r0, r0, lsl r0
    2170:	1100000a 	tstne	r0, sl
    2174:	03055201 	movweq	r5, #20993	; 0x5201
    2178:	0000b89c 	muleq	r0, ip, r8
    217c:	05500111 	ldrbeq	r0, [r0, #-273]	; 0x111
    2180:	00b91c03 	adcseq	r1, r9, r3, lsl #24
    2184:	e8100000 	ldmda	r0, {}	; <UNPREDICTABLE>
    2188:	6200008c 	andvs	r0, r0, #140	; 0x8c
    218c:	31000010 	tstcc	r0, r0, lsl r0
    2190:	1100000a 	tstne	r0, sl
    2194:	03055201 	movweq	r5, #20993	; 0x5201
    2198:	0000b898 	muleq	r0, r8, r8
    219c:	05500111 	ldrbeq	r0, [r0, #-273]	; 0x111
    21a0:	00b91c03 	adcseq	r1, r9, r3, lsl #24
    21a4:	fc100000 	ldc2	0, cr0, [r0], {-0}
    21a8:	6200008c 	andvs	r0, r0, #140	; 0x8c
    21ac:	51000010 	tstpl	r0, r0, lsl r0
    21b0:	1100000a 	tstne	r0, sl
    21b4:	03055201 	movweq	r5, #20993	; 0x5201
    21b8:	0000b88c 	andeq	fp, r0, ip, lsl #17
    21bc:	05500111 	ldrbeq	r0, [r0, #-273]	; 0x111
    21c0:	00b91c03 	adcseq	r1, r9, r3, lsl #24
    21c4:	10100000 	andsne	r0, r0, r0
    21c8:	6200008d 	andvs	r0, r0, #141	; 0x8d
    21cc:	71000010 	tstvc	r0, r0, lsl r0
    21d0:	1100000a 	tstne	r0, sl
    21d4:	03055201 	movweq	r5, #20993	; 0x5201
    21d8:	0000b884 	andeq	fp, r0, r4, lsl #17
    21dc:	05500111 	ldrbeq	r0, [r0, #-273]	; 0x111
    21e0:	00b91c03 	adcseq	r1, r9, r3, lsl #24
    21e4:	28100000 	ldmdacs	r0, {}	; <UNPREDICTABLE>
    21e8:	6200008d 	andvs	r0, r0, #141	; 0x8d
    21ec:	91000010 	tstls	r0, r0, lsl r0
    21f0:	1100000a 	tstne	r0, sl
    21f4:	03055201 	movweq	r5, #20993	; 0x5201
    21f8:	0000b878 	andeq	fp, r0, r8, ror r8
    21fc:	05500111 	ldrbeq	r0, [r0, #-273]	; 0x111
    2200:	00b91c03 	adcseq	r1, r9, r3, lsl #24
    2204:	40100000 	andsmi	r0, r0, r0
    2208:	6200008d 	andvs	r0, r0, #141	; 0x8d
    220c:	b1000010 	tstlt	r0, r0, lsl r0
    2210:	1100000a 	tstne	r0, sl
    2214:	03055201 	movweq	r5, #20993	; 0x5201
    2218:	0000b874 	andeq	fp, r0, r4, ror r8
    221c:	05500111 	ldrbeq	r0, [r0, #-273]	; 0x111
    2220:	00b91c03 	adcseq	r1, r9, r3, lsl #24
    2224:	58100000 	ldmdapl	r0, {}	; <UNPREDICTABLE>
    2228:	6200008d 	andvs	r0, r0, #141	; 0x8d
    222c:	d1000010 	tstle	r0, r0, lsl r0
    2230:	1100000a 	tstne	r0, sl
    2234:	03055201 	movweq	r5, #20993	; 0x5201
    2238:	0000b860 	andeq	fp, r0, r0, ror #16
    223c:	05500111 	ldrbeq	r0, [r0, #-273]	; 0x111
    2240:	00b91c03 	adcseq	r1, r9, r3, lsl #24
    2244:	70100000 	andsvc	r0, r0, r0
    2248:	6200008d 	andvs	r0, r0, #141	; 0x8d
    224c:	f1000010 	cps	#16
    2250:	1100000a 	tstne	r0, sl
    2254:	03055201 	movweq	r5, #20993	; 0x5201
    2258:	0000b840 	andeq	fp, r0, r0, asr #16
    225c:	05500111 	ldrbeq	r0, [r0, #-273]	; 0x111
    2260:	00b91c03 	adcseq	r1, r9, r3, lsl #24
    2264:	88100000 	ldmdahi	r0, {}	; <UNPREDICTABLE>
    2268:	6200008d 	andvs	r0, r0, #141	; 0x8d
    226c:	11000010 	tstne	r0, r0, lsl r0
    2270:	1100000b 	tstne	r0, fp
    2274:	03055201 	movweq	r5, #20993	; 0x5201
    2278:	0000b830 	andeq	fp, r0, r0, lsr r8
    227c:	05500111 	ldrbeq	r0, [r0, #-273]	; 0x111
    2280:	00b91c03 	adcseq	r1, r9, r3, lsl #24
    2284:	a0100000 	andsge	r0, r0, r0
    2288:	6200008d 	andvs	r0, r0, #141	; 0x8d
    228c:	31000010 	tstcc	r0, r0, lsl r0
    2290:	1100000b 	tstne	r0, fp
    2294:	03055201 	movweq	r5, #20993	; 0x5201
    2298:	0000b820 	andeq	fp, r0, r0, lsr #16
    229c:	05500111 	ldrbeq	r0, [r0, #-273]	; 0x111
    22a0:	00b91c03 	adcseq	r1, r9, r3, lsl #24
    22a4:	b4100000 	ldrlt	r0, [r0], #-0
    22a8:	6200008d 	andvs	r0, r0, #141	; 0x8d
    22ac:	51000010 	tstpl	r0, r0, lsl r0
    22b0:	1100000b 	tstne	r0, fp
    22b4:	03055201 	movweq	r5, #20993	; 0x5201
    22b8:	0000b818 	andeq	fp, r0, r8, lsl r8
    22bc:	05500111 	ldrbeq	r0, [r0, #-273]	; 0x111
    22c0:	00b91c03 	adcseq	r1, r9, r3, lsl #24
    22c4:	c8100000 	ldmdagt	r0, {}	; <UNPREDICTABLE>
    22c8:	6200008d 	andvs	r0, r0, #141	; 0x8d
    22cc:	71000010 	tstvc	r0, r0, lsl r0
    22d0:	1100000b 	tstne	r0, fp
    22d4:	03055201 	movweq	r5, #20993	; 0x5201
    22d8:	0000b80c 	andeq	fp, r0, ip, lsl #16
    22dc:	05500111 	ldrbeq	r0, [r0, #-273]	; 0x111
    22e0:	00b91c03 	adcseq	r1, r9, r3, lsl #24
    22e4:	e0100000 	ands	r0, r0, r0
    22e8:	6200008d 	andvs	r0, r0, #141	; 0x8d
    22ec:	91000010 	tstls	r0, r0, lsl r0
    22f0:	1100000b 	tstne	r0, fp
    22f4:	03055201 	movweq	r5, #20993	; 0x5201
    22f8:	0000b800 	andeq	fp, r0, r0, lsl #16
    22fc:	05500111 	ldrbeq	r0, [r0, #-273]	; 0x111
    2300:	00b91c03 	adcseq	r1, r9, r3, lsl #24
    2304:	f8100000 			; <UNDEFINED> instruction: 0xf8100000
    2308:	6200008d 	andvs	r0, r0, #141	; 0x8d
    230c:	b1000010 	tstlt	r0, r0, lsl r0
    2310:	1100000b 	tstne	r0, fp
    2314:	03055201 	movweq	r5, #20993	; 0x5201
    2318:	0000b7ec 	andeq	fp, r0, ip, ror #15
    231c:	05500111 	ldrbeq	r0, [r0, #-273]	; 0x111
    2320:	00b91c03 	adcseq	r1, r9, r3, lsl #24
    2324:	10100000 	andsne	r0, r0, r0
    2328:	6200008e 	andvs	r0, r0, #142	; 0x8e
    232c:	d1000010 	tstle	r0, r0, lsl r0
    2330:	1100000b 	tstne	r0, fp
    2334:	03055201 	movweq	r5, #20993	; 0x5201
    2338:	0000b7e0 	andeq	fp, r0, r0, ror #15
    233c:	05500111 	ldrbeq	r0, [r0, #-273]	; 0x111
    2340:	00b91c03 	adcseq	r1, r9, r3, lsl #24
    2344:	24140000 	ldrcs	r0, [r4], #-0
    2348:	6200008e 	andvs	r0, r0, #142	; 0x8e
    234c:	11000010 	tstne	r0, r0, lsl r0
    2350:	03055201 	movweq	r5, #20993	; 0x5201
    2354:	0000b774 	andeq	fp, r0, r4, ror r7
    2358:	05500111 	ldrbeq	r0, [r0, #-273]	; 0x111
    235c:	00b91c03 	adcseq	r1, r9, r3, lsl #24
    2360:	12000000 	andne	r0, r0, #0
    2364:	000005c3 	andeq	r0, r0, r3, asr #11
    2368:	8e786801 	cdphi	8, 7, cr6, cr8, cr1, {0}
    236c:	004c0000 	subeq	r0, ip, r0
    2370:	9c010000 	stcls	0, cr0, [r1], {-0}
    2374:	00000c69 	andeq	r0, r0, r9, ror #24
    2378:	0100630d 	tsteq	r0, sp, lsl #6
    237c:	000c6968 	andeq	r6, ip, r8, ror #18
    2380:	000aa500 	andeq	sl, sl, r0, lsl #10
    2384:	8e881000 	cdphi	0, 8, cr1, cr8, cr0, {0}
    2388:	10620000 	rsbne	r0, r2, r0
    238c:	0c270000 	stceq	0, cr0, [r7], #-0
    2390:	01110000 	tsteq	r1, r0
    2394:	30030550 	andcc	r0, r3, r0, asr r5
    2398:	000000b9 	strheq	r0, [r0], -r9
    239c:	008e9810 	addeq	r9, lr, r0, lsl r8
    23a0:	00106200 	andseq	r6, r0, r0, lsl #4
    23a4:	000c3e00 	andeq	r3, ip, r0, lsl #28
    23a8:	50011100 	andpl	r1, r1, r0, lsl #2
    23ac:	b9400305 	stmdblt	r0, {r0, r2, r8, r9}^
    23b0:	10000000 	andne	r0, r0, r0
    23b4:	00008ea4 	andeq	r8, r0, r4, lsr #29
    23b8:	00001062 	andeq	r1, r0, r2, rrx
    23bc:	00000c55 	andeq	r0, r0, r5, asr ip
    23c0:	05500111 	ldrbeq	r0, [r0, #-273]	; 0x111
    23c4:	00b95003 	adcseq	r5, r9, r3
    23c8:	b0140000 	andslt	r0, r4, r0
    23cc:	6200008e 	andvs	r0, r0, #142	; 0x8e
    23d0:	11000010 	tstne	r0, r0, lsl r0
    23d4:	03055001 	movweq	r5, #20481	; 0x5001
    23d8:	0000b968 	andeq	fp, r0, r8, ror #18
    23dc:	04050000 	streq	r0, [r5], #-0
    23e0:	00000190 	muleq	r0, r0, r1
    23e4:	00057516 	andeq	r7, r5, r6, lsl r5
    23e8:	857e0100 	ldrbhi	r0, [lr, #-256]!	; 0x100
    23ec:	c4000001 	strgt	r0, [r0], #-1
    23f0:	0800008e 	stmdaeq	r0, {r1, r2, r3, r7}
    23f4:	01000000 	mrseq	r0, (UNDEF: 0)
    23f8:	05160c9c 	ldreq	r0, [r6, #-3228]	; 0xc9c
    23fc:	83010000 	movwhi	r0, #4096	; 0x1000
    2400:	00008ecc 	andeq	r8, r0, ip, asr #29
    2404:	000000a8 	andeq	r0, r0, r8, lsr #1
    2408:	0dd29c01 	ldcleq	12, cr9, [r2, #4]
    240c:	66170000 	ldrvs	r0, [r7], -r0
    2410:	85840100 	strhi	r0, [r4, #256]	; 0x100
    2414:	02000001 	andeq	r0, r0, #1
    2418:	bf0e7491 	svclt	0x000e7491
    241c:	e2000001 	and	r0, r0, #1
    2420:	0500000d 	streq	r0, [r0, #-13]
    2424:	00b4f403 	adcseq	pc, r4, r3, lsl #8
    2428:	8ee81800 	cdphi	8, 14, cr1, cr8, cr0, {0}
    242c:	006c0000 	rsbeq	r0, ip, r0
    2430:	0db80000 	ldceq	0, cr0, [r8]
    2434:	5f190000 	svcpl	0x00190000
    2438:	01040075 	tsteq	r4, r5, ror r0
    243c:	000cdf96 	muleq	ip, r6, pc	; <UNPREDICTABLE>
    2440:	00731a00 	rsbseq	r1, r3, r0, lsl #20
    2444:	01859601 	orreq	r9, r5, r1, lsl #12
    2448:	751a0000 	ldrvc	r0, [sl, #-0]
    244c:	2c960100 	ldfcss	f0, [r6], {0}
    2450:	00000000 	andeq	r0, r0, r0
    2454:	01007817 	tsteq	r0, r7, lsl r8
    2458:	000cc196 	muleq	ip, r6, r1
    245c:	1b530100 	blne	14c2864 <__bss_end__+0x14b64dc>
    2460:	00707865 	rsbseq	r7, r0, r5, ror #16
    2464:	002c9601 	eoreq	r9, ip, r1, lsl #12
    2468:	80800000 	addhi	r0, r0, r0
    246c:	055c1c40 	ldrbeq	r1, [ip, #-3136]	; 0xc40
    2470:	96010000 	strls	r0, [r1], -r0
    2474:	0000002c 	andeq	r0, r0, ip, lsr #32
    2478:	056d1d14 	strbeq	r1, [sp, #-3348]!	; 0xd14
    247c:	96010000 	strls	r0, [r1], -r0
    2480:	0000002c 	andeq	r0, r0, ip, lsr #32
    2484:	f80f0fff 			; <UNDEFINED> instruction: 0xf80f0fff
    2488:	5b00008e 	blpl	26c8 <_start-0x5938>
    248c:	10000010 	andne	r0, r0, r0, lsl r0
    2490:	00008f2c 	andeq	r8, r0, ip, lsr #30
    2494:	00001062 	andeq	r1, r0, r2, rrx
    2498:	00000d6d 	andeq	r0, r0, sp, ror #26
    249c:	02530111 	subseq	r0, r3, #1073741828	; 0x40000004
    24a0:	01119608 	tsteq	r1, r8, lsl #12
    24a4:	f4030552 	vst3.16	{d0,d2,d4}, [r3 :64], r2
    24a8:	110000b4 	strhne	r0, [r0, -r4]
    24ac:	03055101 	movweq	r5, #20737	; 0x5101
    24b0:	0000b530 	andeq	fp, r0, r0, lsr r5
    24b4:	05500111 	ldrbeq	r0, [r0, #-273]	; 0x111
    24b8:	00b79c03 	adcseq	r9, r7, r3, lsl #24
    24bc:	7d021100 	stfvcs	f1, [r2, #-0]
    24c0:	113c0110 	teqne	ip, r0, lsl r1
    24c4:	010c7d02 	tsteq	ip, r2, lsl #26
    24c8:	7d021144 	stfvcs	f1, [r2, #-272]	; 0xfffffef0
    24cc:	b8030508 	stmdalt	r3, {r3, r8, sl}
    24d0:	110000b9 	strhne	r0, [r0, -r9]
    24d4:	02047d02 	andeq	r7, r4, #2, 26	; 0x80
    24d8:	02110074 	andseq	r0, r1, #116	; 0x74
    24dc:	7402007d 	strvc	r0, [r2], #-125	; 0x7d
    24e0:	300f0000 	andcc	r0, pc, r0
    24e4:	7800008f 	stmdavc	r0, {r0, r1, r2, r3, r7}
    24e8:	0f000010 	svceq	0x00000010
    24ec:	00008f3c 	andeq	r8, r0, ip, lsr pc
    24f0:	0000105b 	andeq	r1, r0, fp, asr r0
    24f4:	008f5010 	addeq	r5, pc, r0, lsl r0	; <UNPREDICTABLE>
    24f8:	00106200 	andseq	r6, r0, r0, lsl #4
    24fc:	000dae00 	andeq	sl, sp, r0, lsl #28
    2500:	53011100 	movwpl	r1, #4352	; 0x1100
    2504:	11960802 	orrsne	r0, r6, r2, lsl #16
    2508:	03055201 	movweq	r5, #20993	; 0x5201
    250c:	0000b4f4 	strdeq	fp, [r0], -r4
    2510:	05510111 	ldrbeq	r0, [r1, #-273]	; 0x111
    2514:	00b53003 	adcseq	r3, r5, r3
    2518:	50011100 	andpl	r1, r1, r0, lsl #2
    251c:	b7800305 	strlt	r0, [r0, r5, lsl #6]
    2520:	0f000000 	svceq	0x00000000
    2524:	00008f54 	andeq	r8, r0, r4, asr pc
    2528:	00001078 	andeq	r1, r0, r8, ror r0
    252c:	8ed80f00 	cdphi	15, 13, cr0, cr8, cr0, {0}
    2530:	0c6f0000 	stcleq	0, cr0, [pc], #-0	; 2538 <_start-0x5ac8>
    2534:	e8140000 	ldmda	r4, {}	; <UNPREDICTABLE>
    2538:	2900008e 	stmdbcs	r0, {r1, r2, r3, r7}
    253c:	11000006 	tstne	r0, r6
    2540:	91025001 	tstls	r2, r1
    2544:	0700006c 	streq	r0, [r0, -ip, rrx]
    2548:	0000007d 	andeq	r0, r0, sp, ror r0
    254c:	00000de2 	andeq	r0, r0, r2, ror #27
    2550:	00007608 	andeq	r7, r0, r8, lsl #12
    2554:	06001100 	streq	r1, [r0], -r0, lsl #2
    2558:	00000dd2 	ldrdeq	r0, [r0], -r2
    255c:	0001f512 	andeq	pc, r1, r2, lsl r5	; <UNPREDICTABLE>
    2560:	74990100 	ldrvc	r0, [r9], #256	; 0x100
    2564:	d000008f 	andle	r0, r0, pc, lsl #1
    2568:	01000001 	tsteq	r0, r1
    256c:	00102a9c 	mulseq	r0, ip, sl
    2570:	00660d00 	rsbeq	r0, r6, r0, lsl #26
    2574:	08639901 	stmdaeq	r3!, {r0, r8, fp, ip, pc}^
    2578:	0ac30000 	beq	ff0c2580 <__bss_end__+0xff0b61f8>
    257c:	84100000 	ldrhi	r0, [r0], #-0
    2580:	6200008f 	andvs	r0, r0, #143	; 0x8f
    2584:	20000010 	andcs	r0, r0, r0, lsl r0
    2588:	1100000e 	tstne	r0, lr
    258c:	03055001 	movweq	r5, #20481	; 0x5001
    2590:	0000b9c8 	andeq	fp, r0, r8, asr #19
    2594:	8f901000 	svchi	0x00901000
    2598:	10620000 	rsbne	r0, r2, r0
    259c:	0e3d0000 	cdpeq	0, 3, cr0, cr13, cr0, {0}
    25a0:	01110000 	tsteq	r1, r0
    25a4:	00740251 	rsbseq	r0, r4, r1, asr r2
    25a8:	05500111 	ldrbeq	r0, [r0, #-273]	; 0x111
    25ac:	00b9e803 	adcseq	lr, r9, r3, lsl #16
    25b0:	a4100000 	ldrge	r0, [r0], #-0
    25b4:	6200008f 	andvs	r0, r0, #143	; 0x8f
    25b8:	5d000010 	stcpl	0, cr0, [r0, #-64]	; 0xffffffc0
    25bc:	1100000e 	tstne	r0, lr
    25c0:	03055201 	movweq	r5, #20993	; 0x5201
    25c4:	0000b9b8 			; <UNDEFINED> instruction: 0x0000b9b8
    25c8:	05500111 	ldrbeq	r0, [r0, #-273]	; 0x111
    25cc:	00b91c03 	adcseq	r1, r9, r3, lsl #24
    25d0:	bc100000 	ldclt	0, cr0, [r0], {-0}
    25d4:	6200008f 	andvs	r0, r0, #143	; 0x8f
    25d8:	74000010 	strvc	r0, [r0], #-16
    25dc:	1100000e 	tstne	r0, lr
    25e0:	03055001 	movweq	r5, #20481	; 0x5001
    25e4:	0000b928 	andeq	fp, r0, r8, lsr #18
    25e8:	8fd01000 	svchi	0x00d01000
    25ec:	10620000 	rsbne	r0, r2, r0
    25f0:	0e8b0000 	cdpeq	0, 8, cr0, cr11, cr0, {0}
    25f4:	01110000 	tsteq	r1, r0
    25f8:	f0030550 			; <UNDEFINED> instruction: 0xf0030550
    25fc:	000000b9 	strheq	r0, [r0], -r9
    2600:	008fd810 	addeq	sp, pc, r0, lsl r8	; <UNPREDICTABLE>
    2604:	00106200 	andseq	r6, r0, r0, lsl #4
    2608:	000ea200 	andeq	sl, lr, r0, lsl #4
    260c:	50011100 	andpl	r1, r1, r0, lsl #2
    2610:	ba040305 	blt	10322c <__bss_end__+0xf6ea4>
    2614:	10000000 	andne	r0, r0, r0
    2618:	00008ff0 	strdeq	r8, [r0], -r0
    261c:	00001062 	andeq	r1, r0, r2, rrx
    2620:	00000ec2 	andeq	r0, r0, r2, asr #29
    2624:	05520111 	ldrbeq	r0, [r2, #-273]	; 0x111
    2628:	00b9ac03 	adcseq	sl, r9, r3, lsl #24
    262c:	50011100 	andpl	r1, r1, r0, lsl #2
    2630:	b91c0305 	ldmdblt	ip, {r0, r2, r8, r9}
    2634:	10000000 	andne	r0, r0, r0
    2638:	00009004 	andeq	r9, r0, r4
    263c:	00001062 	andeq	r1, r0, r2, rrx
    2640:	00000ee2 	andeq	r0, r0, r2, ror #29
    2644:	05520111 	ldrbeq	r0, [r2, #-273]	; 0x111
    2648:	00b9a803 	adcseq	sl, r9, r3, lsl #16
    264c:	50011100 	andpl	r1, r1, r0, lsl #2
    2650:	b91c0305 	ldmdblt	ip, {r0, r2, r8, r9}
    2654:	10000000 	andne	r0, r0, r0
    2658:	00009018 	andeq	r9, r0, r8, lsl r0
    265c:	00001062 	andeq	r1, r0, r2, rrx
    2660:	00000f02 	andeq	r0, r0, r2, lsl #30
    2664:	05520111 	ldrbeq	r0, [r2, #-273]	; 0x111
    2668:	00b9a403 	adcseq	sl, r9, r3, lsl #8
    266c:	50011100 	andpl	r1, r1, r0, lsl #2
    2670:	b91c0305 	ldmdblt	ip, {r0, r2, r8, r9}
    2674:	10000000 	andne	r0, r0, r0
    2678:	00009030 	andeq	r9, r0, r0, lsr r0
    267c:	00001062 	andeq	r1, r0, r2, rrx
    2680:	00000f22 	andeq	r0, r0, r2, lsr #30
    2684:	05520111 	ldrbeq	r0, [r2, #-273]	; 0x111
    2688:	00b9a003 	adcseq	sl, r9, r3
    268c:	50011100 	andpl	r1, r1, r0, lsl #2
    2690:	b91c0305 	ldmdblt	ip, {r0, r2, r8, r9}
    2694:	10000000 	andne	r0, r0, r0
    2698:	00009048 	andeq	r9, r0, r8, asr #32
    269c:	00001062 	andeq	r1, r0, r2, rrx
    26a0:	00000f42 	andeq	r0, r0, r2, asr #30
    26a4:	05520111 	ldrbeq	r0, [r2, #-273]	; 0x111
    26a8:	00b99c03 	adcseq	r9, r9, r3, lsl #24
    26ac:	50011100 	andpl	r1, r1, r0, lsl #2
    26b0:	b91c0305 	ldmdblt	ip, {r0, r2, r8, r9}
    26b4:	10000000 	andne	r0, r0, r0
    26b8:	00009060 	andeq	r9, r0, r0, rrx
    26bc:	00001062 	andeq	r1, r0, r2, rrx
    26c0:	00000f62 	andeq	r0, r0, r2, ror #30
    26c4:	05520111 	ldrbeq	r0, [r2, #-273]	; 0x111
    26c8:	00b99803 	adcseq	r9, r9, r3, lsl #16
    26cc:	50011100 	andpl	r1, r1, r0, lsl #2
    26d0:	b91c0305 	ldmdblt	ip, {r0, r2, r8, r9}
    26d4:	10000000 	andne	r0, r0, r0
    26d8:	00009078 	andeq	r9, r0, r8, ror r0
    26dc:	00001062 	andeq	r1, r0, r2, rrx
    26e0:	00000f82 	andeq	r0, r0, r2, lsl #31
    26e4:	05520111 	ldrbeq	r0, [r2, #-273]	; 0x111
    26e8:	00b99003 	adcseq	r9, r9, r3
    26ec:	50011100 	andpl	r1, r1, r0, lsl #2
    26f0:	b91c0305 	ldmdblt	ip, {r0, r2, r8, r9}
    26f4:	10000000 	andne	r0, r0, r0
    26f8:	00009094 	muleq	r0, r4, r0
    26fc:	00001062 	andeq	r1, r0, r2, rrx
    2700:	00000f99 	muleq	r0, r9, pc	; <UNPREDICTABLE>
    2704:	05500111 	ldrbeq	r0, [r0, #-273]	; 0x111
    2708:	00b92803 	adcseq	r2, r9, r3, lsl #16
    270c:	ac100000 	ldcge	0, cr0, [r0], {-0}
    2710:	62000090 	andvs	r0, r0, #144	; 0x90
    2714:	b9000010 	stmdblt	r0, {r4}
    2718:	1100000f 	tstne	r0, pc
    271c:	03055201 	movweq	r5, #20993	; 0x5201
    2720:	0000b98c 	andeq	fp, r0, ip, lsl #19
    2724:	05500111 	ldrbeq	r0, [r0, #-273]	; 0x111
    2728:	00b91c03 	adcseq	r1, r9, r3, lsl #24
    272c:	c4100000 	ldrgt	r0, [r0], #-0
    2730:	62000090 	andvs	r0, r0, #144	; 0x90
    2734:	d9000010 	stmdble	r0, {r4}
    2738:	1100000f 	tstne	r0, pc
    273c:	03055201 	movweq	r5, #20993	; 0x5201
    2740:	0000b988 	andeq	fp, r0, r8, lsl #19
    2744:	05500111 	ldrbeq	r0, [r0, #-273]	; 0x111
    2748:	00b91c03 	adcseq	r1, r9, r3, lsl #24
    274c:	dc100000 	ldcle	0, cr0, [r0], {-0}
    2750:	62000090 	andvs	r0, r0, #144	; 0x90
    2754:	f9000010 			; <UNDEFINED> instruction: 0xf9000010
    2758:	1100000f 	tstne	r0, pc
    275c:	03055201 	movweq	r5, #20993	; 0x5201
    2760:	0000b984 	andeq	fp, r0, r4, lsl #19
    2764:	05500111 	ldrbeq	r0, [r0, #-273]	; 0x111
    2768:	00b91c03 	adcseq	r1, r9, r3, lsl #24
    276c:	f0100000 			; <UNDEFINED> instruction: 0xf0100000
    2770:	62000090 	andvs	r0, r0, #144	; 0x90
    2774:	19000010 	stmdbne	r0, {r4}
    2778:	11000010 	tstne	r0, r0, lsl r0
    277c:	03055201 	movweq	r5, #20993	; 0x5201
    2780:	0000b980 	andeq	fp, r0, r0, lsl #19
    2784:	05500111 	ldrbeq	r0, [r0, #-273]	; 0x111
    2788:	00b91c03 	adcseq	r1, r9, r3, lsl #24
    278c:	f8140000 			; <UNDEFINED> instruction: 0xf8140000
    2790:	29000090 	stmdbcs	r0, {r4, r7}
    2794:	11000006 	tstne	r0, r6
    2798:	74025001 	strvc	r5, [r2], #-1
    279c:	12000000 	andne	r0, r0, #0
    27a0:	0000023a 	andeq	r0, r0, sl, lsr r2
    27a4:	9144b301 	cmpls	r4, r1, lsl #6
    27a8:	00140000 	andseq	r0, r4, r0
    27ac:	9c010000 	stcls	0, cr0, [r1], {-0}
    27b0:	0000105b 	andeq	r1, r0, fp, asr r0
    27b4:	00914c0f 	addseq	r4, r1, pc, lsl #24
    27b8:	00087e00 	andeq	r7, r8, r0, lsl #28
    27bc:	91500f00 	cmpls	r0, r0, lsl #30
    27c0:	08b80000 	ldmeq	r8!, {}	; <UNPREDICTABLE>
    27c4:	540f0000 	strpl	r0, [pc], #-0	; 27cc <_start-0x5834>
    27c8:	84000091 	strhi	r0, [r0], #-145	; 0x91
    27cc:	0000000c 	andeq	r0, r0, ip
    27d0:	00019c1e 	andeq	r9, r1, lr, lsl ip
    27d4:	1f1e0400 	svcne	0x001e0400
    27d8:	00000b68 	andeq	r0, r0, r8, ror #22
    27dc:	00252904 	eoreq	r2, r5, r4, lsl #18
    27e0:	10780000 	rsbsne	r0, r8, r0
    27e4:	84200000 	strthi	r0, [r0], #-0
    27e8:	21000000 	mrscs	r0, (UNDEF: 0)
    27ec:	03721e00 	cmneq	r2, #0, 28
    27f0:	66040000 	strvs	r0, [r4], -r0
    27f4:	00052822 	andeq	r2, r5, r2, lsr #16
    27f8:	5d050500 	cfstr32pl	mvfx0, [r5, #-0]
    27fc:	20000000 	andcs	r0, r0, r0
    2800:	00000084 	andeq	r0, r0, r4, lsl #1
    2804:	00002520 	andeq	r2, r0, r0, lsr #10
    2808:	c1000000 	mrsgt	r0, (UNDEF: 0)
    280c:	0400000f 	streq	r0, [r0], #-15
    2810:	0004cd00 	andeq	ip, r4, r0, lsl #26
    2814:	7a010400 	bvc	4381c <__bss_end__+0x37494>
    2818:	0c000008 	stceq	0, cr0, [r0], {8}
    281c:	0000079f 	muleq	r0, pc, r7	; <UNPREDICTABLE>
    2820:	00000824 	andeq	r0, r0, r4, lsr #16
    2824:	00009394 	muleq	r0, r4, r3
    2828:	000002dc 	ldrdeq	r0, [r0], -ip
    282c:	00000546 	andeq	r0, r0, r6, asr #10
    2830:	69050402 	stmdbvs	r5, {r1, sl}
    2834:	0300746e 	movweq	r7, #1134	; 0x46e
    2838:	00920704 	addseq	r0, r2, r4, lsl #14
    283c:	01030000 	mrseq	r0, (UNDEF: 3)
    2840:	00030206 	andeq	r0, r3, r6, lsl #4
    2844:	05020300 	streq	r0, [r2, #-768]	; 0x300
    2848:	0000032e 	andeq	r0, r0, lr, lsr #6
    284c:	b8050403 	stmdalt	r5, {r0, r1, sl}
    2850:	03000000 	movweq	r0, #0
    2854:	00b30508 	adcseq	r0, r3, r8, lsl #10
    2858:	01030000 	mrseq	r0, (UNDEF: 3)
    285c:	00030008 	andeq	r0, r3, r8
    2860:	07020300 	streq	r0, [r2, -r0, lsl #6]
    2864:	000001e2 	andeq	r0, r0, r2, ror #3
    2868:	8d070403 	cfstrshi	mvf0, [r7, #-12]
    286c:	03000000 	movweq	r0, #0
    2870:	00880708 	addeq	r0, r8, r8, lsl #14
    2874:	03040000 	movweq	r0, #16384	; 0x4000
    2878:	02000008 	andeq	r0, r0, #8
    287c:	00007622 	andeq	r7, r0, r2, lsr #12
    2880:	7c040500 	cfstr32vc	mvfx0, [r4], {-0}
    2884:	06000000 	streq	r0, [r0], -r0
    2888:	000009e5 	andeq	r0, r0, r5, ror #19
    288c:	00091904 	andeq	r1, r9, r4, lsl #18
    2890:	412c0300 	teqmi	ip, r0, lsl #6
    2894:	04000000 	streq	r0, [r0], #-0
    2898:	000009fa 	strdeq	r0, [r0], -sl
    289c:	00417203 	subeq	r7, r1, r3, lsl #4
    28a0:	0b070000 	bleq	1c28a8 <__bss_end__+0x1b6520>
    28a4:	04000008 	streq	r0, [r0], #-8
    28a8:	002c0165 	eoreq	r0, ip, r5, ror #2
    28ac:	04080000 	streq	r0, [r8], #-0
    28b0:	00c2a603 	sbceq	sl, r2, r3, lsl #12
    28b4:	fd090000 	stc2	0, cr0, [r9, #-0]
    28b8:	03000007 	movweq	r0, #7
    28bc:	000097a8 	andeq	r9, r0, r8, lsr #15
    28c0:	07820900 	streq	r0, [r2, r0, lsl #18]
    28c4:	a9030000 	stmdbge	r3, {}	; <UNPREDICTABLE>
    28c8:	000000c2 	andeq	r0, r0, r2, asr #1
    28cc:	004f0a00 	subeq	r0, pc, r0, lsl #20
    28d0:	00d20000 	sbcseq	r0, r2, r0
    28d4:	2c0b0000 	stccs	0, cr0, [fp], {-0}
    28d8:	03000000 	movweq	r0, #0
    28dc:	03080c00 	movweq	r0, #35840	; 0x8c00
    28e0:	0000f3a3 	andeq	pc, r0, r3, lsr #7
    28e4:	09dd0d00 	ldmibeq	sp, {r8, sl, fp}^
    28e8:	a5030000 	strge	r0, [r3, #-0]
    28ec:	00000025 	andeq	r0, r0, r5, lsr #32
    28f0:	09ec0d00 	stmibeq	ip!, {r8, sl, fp}^
    28f4:	aa030000 	bge	c28fc <__bss_end__+0xb6574>
    28f8:	000000a3 	andeq	r0, r0, r3, lsr #1
    28fc:	5f040004 	svcpl	0x00040004
    2900:	03000009 	movweq	r0, #9
    2904:	0000d2ab 	andeq	sp, r0, fp, lsr #5
    2908:	073f0400 	ldreq	r0, [pc, -r0, lsl #8]!
    290c:	af030000 	svcge	0x00030000
    2910:	0000006b 	andeq	r0, r0, fp, rrx
    2914:	0405040e 	streq	r0, [r5], #-1038	; 0x40e
    2918:	00000111 	andeq	r0, r0, r1, lsl r1
    291c:	09080103 	stmdbeq	r8, {r0, r1, r8}
    2920:	0f000003 	svceq	0x00000003
    2924:	00000111 	andeq	r0, r0, r1, lsl r1
    2928:	000a3204 	andeq	r3, sl, r4, lsl #4
    292c:	5d160500 	cfldr32pl	mvfx0, [r6, #-0]
    2930:	10000000 	andne	r0, r0, r0
    2934:	00000750 	andeq	r0, r0, r0, asr r7
    2938:	7b2f0518 	blvc	bc3da0 <__bss_end__+0xbb7a18>
    293c:	0d000001 	stceq	0, cr0, [r0, #-4]
    2940:	00000980 	andeq	r0, r0, r0, lsl #19
    2944:	017b3105 	cmneq	fp, r5, lsl #2
    2948:	11000000 	mrsne	r0, (UNDEF: 0)
    294c:	05006b5f 	streq	r6, [r0, #-2911]	; 0xb5f
    2950:	00002532 	andeq	r2, r0, r2, lsr r5
    2954:	c80d0400 	stmdagt	sp, {sl}
    2958:	05000009 	streq	r0, [r0, #-9]
    295c:	00002532 	andeq	r2, r0, r2, lsr r5
    2960:	250d0800 	strcs	r0, [sp, #-2048]	; 0x800
    2964:	05000007 	streq	r0, [r0, #-7]
    2968:	00002532 	andeq	r2, r0, r2, lsr r5
    296c:	670d0c00 	strvs	r0, [sp, -r0, lsl #24]
    2970:	0500000a 	streq	r0, [r0, #-10]
    2974:	00002532 	andeq	r2, r0, r2, lsr r5
    2978:	5f111000 	svcpl	0x00111000
    297c:	33050078 	movwcc	r0, #20600	; 0x5078
    2980:	00000181 	andeq	r0, r0, r1, lsl #3
    2984:	04050014 	streq	r0, [r5], #-20
    2988:	00000128 	andeq	r0, r0, r8, lsr #2
    298c:	00011d0a 	andeq	r1, r1, sl, lsl #26
    2990:	00019100 	andeq	r9, r1, r0, lsl #2
    2994:	002c0b00 	eoreq	r0, ip, r0, lsl #22
    2998:	00000000 	andeq	r0, r0, r0
    299c:	00077d10 	andeq	r7, r7, r0, lsl sp
    29a0:	37052400 	strcc	r2, [r5, -r0, lsl #8]
    29a4:	0000020a 	andeq	r0, r0, sl, lsl #4
    29a8:	00067e0d 	andeq	r7, r6, sp, lsl #28
    29ac:	25390500 	ldrcs	r0, [r9, #-1280]!	; 0x500
    29b0:	00000000 	andeq	r0, r0, r0
    29b4:	000a020d 	andeq	r0, sl, sp, lsl #4
    29b8:	253a0500 	ldrcs	r0, [sl, #-1280]!	; 0x500
    29bc:	04000000 	streq	r0, [r0], #-0
    29c0:	0006930d 	andeq	r9, r6, sp, lsl #6
    29c4:	253b0500 	ldrcs	r0, [fp, #-1280]!	; 0x500
    29c8:	08000000 	stmdaeq	r0, {}	; <UNPREDICTABLE>
    29cc:	000ae00d 	andeq	lr, sl, sp
    29d0:	253c0500 	ldrcs	r0, [ip, #-1280]!	; 0x500
    29d4:	0c000000 	stceq	0, cr0, [r0], {-0}
    29d8:	0008690d 	andeq	r6, r8, sp, lsl #18
    29dc:	253d0500 	ldrcs	r0, [sp, #-1280]!	; 0x500
    29e0:	10000000 	andne	r0, r0, r0
    29e4:	00081a0d 	andeq	r1, r8, sp, lsl #20
    29e8:	253e0500 	ldrcs	r0, [lr, #-1280]!	; 0x500
    29ec:	14000000 	strne	r0, [r0], #-0
    29f0:	000a6c0d 	andeq	r6, sl, sp, lsl #24
    29f4:	253f0500 	ldrcs	r0, [pc, #-1280]!	; 24fc <_start-0x5b04>
    29f8:	18000000 	stmdane	r0, {}	; <UNPREDICTABLE>
    29fc:	0009410d 	andeq	r4, r9, sp, lsl #2
    2a00:	25400500 	strbcs	r0, [r0, #-1280]	; 0x500
    2a04:	1c000000 	stcne	0, cr0, [r0], {-0}
    2a08:	000aa70d 	andeq	sl, sl, sp, lsl #14
    2a0c:	25410500 	strbcs	r0, [r1, #-1280]	; 0x500
    2a10:	20000000 	andcs	r0, r0, r0
    2a14:	06a21200 	strteq	r1, [r2], r0, lsl #4
    2a18:	01080000 	mrseq	r0, (UNDEF: 8)
    2a1c:	024a4a05 	subeq	r4, sl, #20480	; 0x5000
    2a20:	180d0000 	stmdane	sp, {}	; <UNPREDICTABLE>
    2a24:	05000007 	streq	r0, [r0, #-7]
    2a28:	00024a4b 	andeq	r4, r2, fp, asr #20
    2a2c:	fd0d0000 	stc2	0, cr0, [sp, #-0]
    2a30:	05000005 	streq	r0, [r0, #-5]
    2a34:	00024a4c 	andeq	r4, r2, ip, asr #20
    2a38:	24138000 	ldrcs	r8, [r3], #-0
    2a3c:	0500000a 	streq	r0, [r0, #-10]
    2a40:	00011d4e 	andeq	r1, r1, lr, asr #26
    2a44:	13010000 	movwne	r0, #4096	; 0x1000
    2a48:	000006c7 	andeq	r0, r0, r7, asr #13
    2a4c:	011d5105 	tsteq	sp, r5, lsl #2
    2a50:	01040000 	mrseq	r0, (UNDEF: 4)
    2a54:	01090a00 	tsteq	r9, r0, lsl #20
    2a58:	025a0000 	subseq	r0, sl, #0
    2a5c:	2c0b0000 	stccs	0, cr0, [fp], {-0}
    2a60:	1f000000 	svcne	0x00000000
    2a64:	08721200 	ldmdaeq	r2!, {r9, ip}^
    2a68:	01900000 	orrseq	r0, r0, r0
    2a6c:	02985d05 	addseq	r5, r8, #320	; 0x140
    2a70:	800d0000 	andhi	r0, sp, r0
    2a74:	05000009 	streq	r0, [r0, #-9]
    2a78:	0002985e 	andeq	r9, r2, lr, asr r8
    2a7c:	980d0000 	stmdals	sp, {}	; <UNPREDICTABLE>
    2a80:	05000009 	streq	r0, [r0, #-9]
    2a84:	0000255f 	andeq	r2, r0, pc, asr r5
    2a88:	200d0400 	andcs	r0, sp, r0, lsl #8
    2a8c:	05000007 	streq	r0, [r0, #-7]
    2a90:	00029e61 	andeq	r9, r2, r1, ror #28
    2a94:	a20d0800 	andge	r0, sp, #0, 16
    2a98:	05000006 	streq	r0, [r0, #-6]
    2a9c:	00020a62 	andeq	r0, r2, r2, ror #20
    2aa0:	05008800 	streq	r8, [r0, #-2048]	; 0x800
    2aa4:	00025a04 	andeq	r5, r2, r4, lsl #20
    2aa8:	02ae0a00 	adceq	r0, lr, #0, 20
    2aac:	02ae0000 	adceq	r0, lr, #0
    2ab0:	2c0b0000 	stccs	0, cr0, [fp], {-0}
    2ab4:	1f000000 	svcne	0x00000000
    2ab8:	b4040500 	strlt	r0, [r4], #-1280	; 0x500
    2abc:	14000002 	strne	r0, [r0], #-2
    2ac0:	00094b10 	andeq	r4, r9, r0, lsl fp
    2ac4:	75050800 	strvc	r0, [r5, #-2048]	; 0x800
    2ac8:	000002da 	ldrdeq	r0, [r0], -sl
    2acc:	00068d0d 	andeq	r8, r6, sp, lsl #26
    2ad0:	da760500 	ble	1d83ed8 <__bss_end__+0x1d77b50>
    2ad4:	00000002 	andeq	r0, r0, r2
    2ad8:	0006090d 	andeq	r0, r6, sp, lsl #18
    2adc:	25770500 	ldrbcs	r0, [r7, #-1280]!	; 0x500
    2ae0:	04000000 	streq	r0, [r0], #-0
    2ae4:	4f040500 	svcmi	0x00040500
    2ae8:	10000000 	andne	r0, r0, r0
    2aec:	0000096a 	andeq	r0, r0, sl, ror #18
    2af0:	0ab50568 	beq	fed44098 <__bss_end__+0xfed37d10>
    2af4:	11000004 	tstne	r0, r4
    2af8:	0500705f 	streq	r7, [r0, #-95]	; 0x5f
    2afc:	0002dab6 			; <UNDEFINED> instruction: 0x0002dab6
    2b00:	5f110000 	svcpl	0x00110000
    2b04:	b7050072 	smlsdxlt	r5, r2, r0, r0
    2b08:	00000025 	andeq	r0, r0, r5, lsr #32
    2b0c:	775f1104 	ldrbvc	r1, [pc, -r4, lsl #2]
    2b10:	25b80500 	ldrcs	r0, [r8, #1280]!	; 0x500
    2b14:	08000000 	stmdaeq	r0, {}	; <UNPREDICTABLE>
    2b18:	0006c00d 	andeq	ip, r6, sp
    2b1c:	3ab90500 	bcc	fee43f24 <__bss_end__+0xfee37b9c>
    2b20:	0c000000 	stceq	0, cr0, [r0], {-0}
    2b24:	0007990d 	andeq	r9, r7, sp, lsl #18
    2b28:	3aba0500 	bcc	fee83f30 <__bss_end__+0xfee77ba8>
    2b2c:	0e000000 	cdpeq	0, 0, cr0, cr0, cr0, {0}
    2b30:	66625f11 	uqadd16vs	r5, r2, r1
    2b34:	b5bb0500 	ldrlt	r0, [fp, #1280]!	; 0x500
    2b38:	10000002 	andne	r0, r0, r2
    2b3c:	0006420d 	andeq	r4, r6, sp, lsl #4
    2b40:	25bc0500 	ldrcs	r0, [ip, #1280]!	; 0x500
    2b44:	18000000 	stmdane	r0, {}	; <UNPREDICTABLE>
    2b48:	0006b00d 	andeq	fp, r6, sp
    2b4c:	09c30500 	stmibeq	r3, {r8, sl}^
    2b50:	1c000001 	stcne	0, cr0, [r0], {1}
    2b54:	000eb80d 	andeq	fp, lr, sp, lsl #16
    2b58:	65c50500 	strbvs	r0, [r5, #1280]	; 0x500
    2b5c:	20000005 	andcs	r0, r0, r5
    2b60:	000efc0d 	andeq	pc, lr, sp, lsl #24
    2b64:	8fc70500 	svchi	0x00c70500
    2b68:	24000005 	strcs	r0, [r0], #-5
    2b6c:	0009f40d 	andeq	pc, r9, sp, lsl #8
    2b70:	b3ca0500 	biclt	r0, sl, #0, 10
    2b74:	28000005 	stmdacs	r0, {r0, r2}
    2b78:	000ac10d 	andeq	ip, sl, sp, lsl #2
    2b7c:	cdcb0500 	cfstr64gt	mvdx0, [fp]
    2b80:	2c000005 	stccs	0, cr0, [r0], {5}
    2b84:	62755f11 	rsbsvs	r5, r5, #17, 30	; 0x44
    2b88:	b5ce0500 	strblt	r0, [lr, #1280]	; 0x500
    2b8c:	30000002 	andcc	r0, r0, r2
    2b90:	70755f11 	rsbsvc	r5, r5, r1, lsl pc
    2b94:	dacf0500 	ble	ff3c3f9c <__bss_end__+0xff3b7c14>
    2b98:	38000002 	stmdacc	r0, {r1}
    2b9c:	72755f11 	rsbsvc	r5, r5, #17, 30	; 0x44
    2ba0:	25d00500 	ldrbcs	r0, [r0, #1280]	; 0x500
    2ba4:	3c000000 	stccc	0, cr0, [r0], {-0}
    2ba8:	0006870d 	andeq	r8, r6, sp, lsl #14
    2bac:	d3d30500 	bicsle	r0, r3, #0, 10
    2bb0:	40000005 	andmi	r0, r0, r5
    2bb4:	000a990d 	andeq	r9, sl, sp, lsl #18
    2bb8:	e3d40500 	bics	r0, r4, #0, 10
    2bbc:	43000005 	movwmi	r0, #5
    2bc0:	626c5f11 	rsbvs	r5, ip, #17, 30	; 0x44
    2bc4:	b5d70500 	ldrblt	r0, [r7, #1280]	; 0x500
    2bc8:	44000002 	strmi	r0, [r0], #-2
    2bcc:	0006e80d 	andeq	lr, r6, sp, lsl #16
    2bd0:	25da0500 	ldrbcs	r0, [sl, #1280]	; 0x500
    2bd4:	4c000000 	stcmi	0, cr0, [r0], {-0}
    2bd8:	0000d00d 	andeq	sp, r0, sp
    2bdc:	81db0500 	bicshi	r0, fp, r0, lsl #10
    2be0:	50000000 	andpl	r0, r0, r0
    2be4:	000fb70d 	andeq	fp, pc, sp, lsl #14
    2be8:	28de0500 	ldmcs	lr, {r8, sl}^
    2bec:	54000004 	strpl	r0, [r0], #-4
    2bf0:	0009e60d 	andeq	lr, r9, sp, lsl #12
    2bf4:	fee20500 	cdp2	5, 14, cr0, cr2, cr0, {0}
    2bf8:	58000000 	stmdapl	r0, {}	; <UNPREDICTABLE>
    2bfc:	0009720d 	andeq	r7, r9, sp, lsl #4
    2c00:	f3e40500 	vabal.u32	q8, d4, d0
    2c04:	5c000000 	stcpl	0, cr0, [r0], {-0}
    2c08:	0008120d 	andeq	r1, r8, sp, lsl #4
    2c0c:	25e50500 	strbcs	r0, [r5, #1280]!	; 0x500
    2c10:	64000000 	strvs	r0, [r0], #-0
    2c14:	00251500 	eoreq	r1, r5, r0, lsl #10
    2c18:	04280000 	strteq	r0, [r8], #-0
    2c1c:	28160000 	ldmdacs	r6, {}	; <UNPREDICTABLE>
    2c20:	16000004 	strne	r0, [r0], -r4
    2c24:	00000109 	andeq	r0, r0, r9, lsl #2
    2c28:	00010b16 	andeq	r0, r1, r6, lsl fp
    2c2c:	00251600 	eoreq	r1, r5, r0, lsl #12
    2c30:	05000000 	streq	r0, [r0, #-0]
    2c34:	00043304 	andeq	r3, r4, r4, lsl #6
    2c38:	04280f00 	strteq	r0, [r8], #-3840	; 0xf00
    2c3c:	d0170000 	andsle	r0, r7, r0
    2c40:	28000009 	stmdacs	r0, {r0, r3}
    2c44:	02600504 	rsbeq	r0, r0, #4, 10	; 0x1000000
    2c48:	00000565 	andeq	r0, r0, r5, ror #10
    2c4c:	00093a18 	andeq	r3, r9, r8, lsl sl
    2c50:	02620500 	rsbeq	r0, r2, #0, 10
    2c54:	00000025 	andeq	r0, r0, r5, lsr #32
    2c58:	06cf1800 	strbeq	r1, [pc], r0, lsl #16
    2c5c:	67050000 	strvs	r0, [r5, -r0]
    2c60:	00063a02 	andeq	r3, r6, r2, lsl #20
    2c64:	89180400 	ldmdbhi	r8, {sl}
    2c68:	05000007 	streq	r0, [r0, #-7]
    2c6c:	063a0267 	ldrteq	r0, [sl], -r7, ror #4
    2c70:	18080000 	stmdane	r8, {}	; <UNPREDICTABLE>
    2c74:	00000748 	andeq	r0, r0, r8, asr #14
    2c78:	3a026705 	bcc	9c894 <__bss_end__+0x9050c>
    2c7c:	0c000006 	stceq	0, cr0, [r0], {6}
    2c80:	00099318 	andeq	r9, r9, r8, lsl r3
    2c84:	02690500 	rsbeq	r0, r9, #0, 10
    2c88:	00000025 	andeq	r0, r0, r5, lsr #32
    2c8c:	06171810 			; <UNDEFINED> instruction: 0x06171810
    2c90:	6a050000 	bvs	142c98 <__bss_end__+0x136910>
    2c94:	00081c02 	andeq	r1, r8, r2, lsl #24
    2c98:	af181400 	svcge	0x00181400
    2c9c:	05000009 	streq	r0, [r0, #-9]
    2ca0:	0025026d 	eoreq	r0, r5, sp, ror #4
    2ca4:	18300000 	ldmdane	r0!, {}	; <UNPREDICTABLE>
    2ca8:	0000099d 	muleq	r0, sp, r9
    2cac:	31026e05 	tstcc	r2, r5, lsl #28
    2cb0:	34000008 	strcc	r0, [r0], #-8
    2cb4:	00090e18 	andeq	r0, r9, r8, lsl lr
    2cb8:	02700500 	rsbseq	r0, r0, #0, 10
    2cbc:	00000025 	andeq	r0, r0, r5, lsr #32
    2cc0:	09a51838 	stmibeq	r5!, {r3, r4, r5, fp, ip}
    2cc4:	72050000 	andvc	r0, r5, #0
    2cc8:	00084202 	andeq	r4, r8, r2, lsl #4
    2ccc:	f5183c00 			; <UNDEFINED> instruction: 0xf5183c00
    2cd0:	05000007 	streq	r0, [r0, #-7]
    2cd4:	017b0275 	cmneq	fp, r5, ror r2
    2cd8:	18400000 	stmdane	r0, {}^	; <UNPREDICTABLE>
    2cdc:	00000767 	andeq	r0, r0, r7, ror #14
    2ce0:	25027605 	strcs	r7, [r2, #-1541]	; 0x605
    2ce4:	44000000 	strmi	r0, [r0], #-0
    2ce8:	000adb18 	andeq	sp, sl, r8, lsl fp
    2cec:	02770500 	rsbseq	r0, r7, #0, 10
    2cf0:	0000017b 	andeq	r0, r0, fp, ror r1
    2cf4:	09201848 	stmdbeq	r0!, {r3, r6, fp, ip}
    2cf8:	78050000 	stmdavc	r5, {}	; <UNPREDICTABLE>
    2cfc:	00084802 	andeq	r4, r8, r2, lsl #16
    2d00:	91184c00 	tstls	r8, r0, lsl #24
    2d04:	05000007 	streq	r0, [r0, #-7]
    2d08:	0025027b 	eoreq	r0, r5, fp, ror r2
    2d0c:	18500000 	ldmdane	r0, {}^	; <UNPREDICTABLE>
    2d10:	000006f1 	strdeq	r0, [r0], -r1
    2d14:	0b027c05 	bleq	a1d30 <__bss_end__+0x959a8>
    2d18:	54000001 	strpl	r0, [r0], #-1
    2d1c:	00138218 	andseq	r8, r3, r8, lsl r2
    2d20:	029f0500 	addseq	r0, pc, #0, 10
    2d24:	000007fa 	strdeq	r0, [r0], -sl
    2d28:	08721958 	ldmdaeq	r2!, {r3, r4, r6, r8, fp, ip}^
    2d2c:	a3050000 	movwge	r0, #20480	; 0x5000
    2d30:	00029802 	andeq	r9, r2, r2, lsl #16
    2d34:	19014800 	stmdbne	r1, {fp, lr}
    2d38:	000007c6 	andeq	r0, r0, r6, asr #15
    2d3c:	5a02a405 	bpl	abd58 <__bss_end__+0x9f9d0>
    2d40:	4c000002 	stcmi	0, cr0, [r0], {2}
    2d44:	0a8f1901 	beq	fe3c9150 <__bss_end__+0xfe3bcdc8>
    2d48:	a8050000 	stmdage	r5, {}	; <UNPREDICTABLE>
    2d4c:	00085902 	andeq	r5, r8, r2, lsl #18
    2d50:	1902dc00 	stmdbne	r2, {sl, fp, ip, lr, pc}
    2d54:	000006b8 			; <UNDEFINED> instruction: 0x000006b8
    2d58:	ff02ad05 			; <UNDEFINED> instruction: 0xff02ad05
    2d5c:	e0000005 	and	r0, r0, r5
    2d60:	069d1902 	ldreq	r1, [sp], r2, lsl #18
    2d64:	af050000 	svcge	0x00050000
    2d68:	00086502 	andeq	r6, r8, r2, lsl #10
    2d6c:	0002ec00 	andeq	lr, r2, r0, lsl #24
    2d70:	040a0405 	streq	r0, [sl], #-1029	; 0x405
    2d74:	25150000 	ldrcs	r0, [r5, #-0]
    2d78:	89000000 	stmdbhi	r0, {}	; <UNPREDICTABLE>
    2d7c:	16000005 	strne	r0, [r0], -r5
    2d80:	00000428 	andeq	r0, r0, r8, lsr #8
    2d84:	00010916 	andeq	r0, r1, r6, lsl r9
    2d88:	05891600 	streq	r1, [r9, #1536]	; 0x600
    2d8c:	25160000 	ldrcs	r0, [r6, #-0]
    2d90:	00000000 	andeq	r0, r0, r0
    2d94:	01180405 	tsteq	r8, r5, lsl #8
    2d98:	04050000 	streq	r0, [r5], #-0
    2d9c:	0000056b 	andeq	r0, r0, fp, ror #10
    2da0:	00008c15 	andeq	r8, r0, r5, lsl ip
    2da4:	0005b300 	andeq	fp, r5, r0, lsl #6
    2da8:	04281600 	strteq	r1, [r8], #-1536	; 0x600
    2dac:	09160000 	ldmdbeq	r6, {}	; <UNPREDICTABLE>
    2db0:	16000001 	strne	r0, [r0], -r1
    2db4:	0000008c 	andeq	r0, r0, ip, lsl #1
    2db8:	00002516 	andeq	r2, r0, r6, lsl r5
    2dbc:	04050000 	streq	r0, [r5], #-0
    2dc0:	00000595 	muleq	r0, r5, r5
    2dc4:	00002515 	andeq	r2, r0, r5, lsl r5
    2dc8:	0005cd00 	andeq	ip, r5, r0, lsl #26
    2dcc:	04281600 	strteq	r1, [r8], #-1536	; 0x600
    2dd0:	09160000 	ldmdbeq	r6, {}	; <UNPREDICTABLE>
    2dd4:	00000001 	andeq	r0, r0, r1
    2dd8:	05b90405 	ldreq	r0, [r9, #1029]!	; 0x405
    2ddc:	4f0a0000 	svcmi	0x000a0000
    2de0:	e3000000 	movw	r0, #0
    2de4:	0b000005 	bleq	2e00 <_start-0x5200>
    2de8:	0000002c 	andeq	r0, r0, ip, lsr #32
    2dec:	4f0a0002 	svcmi	0x000a0002
    2df0:	f3000000 	vhadd.u8	d0, d0, d0
    2df4:	0b000005 	bleq	2e10 <_start-0x51f0>
    2df8:	0000002c 	andeq	r0, r0, ip, lsr #32
    2dfc:	58070000 	stmdapl	r7, {}	; <UNPREDICTABLE>
    2e00:	05000009 	streq	r0, [r0, #-9]
    2e04:	02e0011f 	rsceq	r0, r0, #-1073741817	; 0xc0000007
    2e08:	761a0000 	ldrvc	r0, [sl], -r0
    2e0c:	0c00000a 	stceq	0, cr0, [r0], {10}
    2e10:	34012305 	strcc	r2, [r1], #-773	; 0x305
    2e14:	18000006 	stmdane	r0, {r1, r2}
    2e18:	00000980 	andeq	r0, r0, r0, lsl #19
    2e1c:	34012505 	strcc	r2, [r1], #-1285	; 0x505
    2e20:	00000006 	andeq	r0, r0, r6
    2e24:	0007bf18 	andeq	fp, r7, r8, lsl pc
    2e28:	01260500 	teqeq	r6, r0, lsl #10
    2e2c:	00000025 	andeq	r0, r0, r5, lsr #32
    2e30:	09521804 	ldmdbeq	r2, {r2, fp, ip}^
    2e34:	27050000 	strcs	r0, [r5, -r0]
    2e38:	00063a01 	andeq	r3, r6, r1, lsl #20
    2e3c:	05000800 	streq	r0, [r0, #-2048]	; 0x800
    2e40:	0005ff04 	andeq	pc, r5, r4, lsl #30
    2e44:	f3040500 	vrshl.u8	d0, d0, d4
    2e48:	1a000005 	bne	2e64 <_start-0x519c>
    2e4c:	0000060f 	andeq	r0, r0, pc, lsl #12
    2e50:	013f050e 	teqeq	pc, lr, lsl #10
    2e54:	00000675 	andeq	r0, r0, r5, ror r6
    2e58:	0009d718 	andeq	sp, r9, r8, lsl r7
    2e5c:	01400500 	cmpeq	r0, r0, lsl #10
    2e60:	00000675 	andeq	r0, r0, r5, ror r6
    2e64:	0a111800 	beq	448e6c <__bss_end__+0x43cae4>
    2e68:	41050000 	mrsmi	r0, (UNDEF: 5)
    2e6c:	00067501 	andeq	r7, r6, r1, lsl #10
    2e70:	2d180600 	ldccs	6, cr0, [r8, #-0]
    2e74:	0500000a 	streq	r0, [r0, #-10]
    2e78:	00560142 	subseq	r0, r6, r2, asr #2
    2e7c:	000c0000 	andeq	r0, ip, r0
    2e80:	0000560a 	andeq	r5, r0, sl, lsl #12
    2e84:	00068500 	andeq	r8, r6, r0, lsl #10
    2e88:	002c0b00 	eoreq	r0, ip, r0, lsl #22
    2e8c:	00020000 	andeq	r0, r2, r0
    2e90:	8005d01b 	andhi	sp, r5, fp, lsl r0
    2e94:	00078602 	andeq	r8, r7, r2, lsl #12
    2e98:	0a5a1800 	beq	1688ea0 <__bss_end__+0x167cb18>
    2e9c:	82050000 	andhi	r0, r5, #0
    2ea0:	00002c02 	andeq	r2, r0, r2, lsl #24
    2ea4:	17180000 	ldrne	r0, [r8, -r0]
    2ea8:	0500000a 	streq	r0, [r0, #-10]
    2eac:	010b0283 	smlabbeq	fp, r3, r2, r0
    2eb0:	18040000 	stmdane	r4, {}	; <UNPREDICTABLE>
    2eb4:	000007db 	ldrdeq	r0, [r0], -fp
    2eb8:	86028405 	strhi	r8, [r2], -r5, lsl #8
    2ebc:	08000007 	stmdaeq	r0, {r0, r1, r2}
    2ec0:	000ab218 	andeq	fp, sl, r8, lsl r2
    2ec4:	02850500 	addeq	r0, r5, #0, 10
    2ec8:	00000191 	muleq	r0, r1, r1
    2ecc:	07581824 	ldrbeq	r1, [r8, -r4, lsr #16]
    2ed0:	86050000 	strhi	r0, [r5], -r0
    2ed4:	00002502 	andeq	r2, r0, r2, lsl #10
    2ed8:	7b184800 	blvc	614ee0 <__bss_end__+0x608b58>
    2edc:	05000009 	streq	r0, [r0, #-9]
    2ee0:	00640287 	rsbeq	r0, r4, r7, lsl #5
    2ee4:	18500000 	ldmdane	r0, {}^	; <UNPREDICTABLE>
    2ee8:	00000ac8 	andeq	r0, r0, r8, asr #21
    2eec:	40028805 	andmi	r8, r2, r5, lsl #16
    2ef0:	58000006 	stmdapl	r0, {r1, r2}
    2ef4:	00098618 	andeq	r8, r9, r8, lsl r6
    2ef8:	02890500 	addeq	r0, r9, #0, 10
    2efc:	000000f3 	strdeq	r0, [r0], -r3
    2f00:	0acd1868 	beq	ff3490a8 <__bss_end__+0xff33cd20>
    2f04:	8a050000 	bhi	142f0c <__bss_end__+0x136b84>
    2f08:	0000f302 	andeq	pc, r0, r2, lsl #6
    2f0c:	2a187000 	bcs	61ef14 <__bss_end__+0x612b8c>
    2f10:	05000009 	streq	r0, [r0, #-9]
    2f14:	00f3028b 	rscseq	r0, r3, fp, lsl #5
    2f18:	18780000 	ldmdane	r8!, {}^	; <UNPREDICTABLE>
    2f1c:	00000a85 	andeq	r0, r0, r5, lsl #21
    2f20:	96028c05 	strls	r8, [r2], -r5, lsl #24
    2f24:	80000007 	andhi	r0, r0, r7
    2f28:	0007cf18 	andeq	ip, r7, r8, lsl pc
    2f2c:	028d0500 	addeq	r0, sp, #0, 10
    2f30:	000007a6 	andeq	r0, r0, r6, lsr #15
    2f34:	0a3a1888 	beq	e8915c <__bss_end__+0xe7cdd4>
    2f38:	8e050000 	cdphi	0, 0, cr0, cr5, cr0, {0}
    2f3c:	00002502 	andeq	r2, r0, r2, lsl #10
    2f40:	0a18a000 	beq	62af48 <__bss_end__+0x61ebc0>
    2f44:	05000007 	streq	r0, [r0, #-7]
    2f48:	00f3028f 	rscseq	r0, r3, pc, lsl #5
    2f4c:	18a40000 	stmiane	r4!, {}	; <UNPREDICTABLE>
    2f50:	0000066f 	andeq	r0, r0, pc, ror #12
    2f54:	f3029005 	vhadd.u8	d9, d2, d5
    2f58:	ac000000 	stcge	0, cr0, [r0], {-0}
    2f5c:	0006f918 	andeq	pc, r6, r8, lsl r9	; <UNPREDICTABLE>
    2f60:	02910500 	addseq	r0, r1, #0, 10
    2f64:	000000f3 	strdeq	r0, [r0], -r3
    2f68:	062218b4 			; <UNDEFINED> instruction: 0x062218b4
    2f6c:	92050000 	andls	r0, r5, #0
    2f70:	0000f302 	andeq	pc, r0, r2, lsl #6
    2f74:	3118bc00 	tstcc	r8, r0, lsl #24
    2f78:	05000006 	streq	r0, [r0, #-6]
    2f7c:	00f30293 	smlalseq	r0, r3, r3, r2
    2f80:	18c40000 	stmiane	r4, {}^	; <UNPREDICTABLE>
    2f84:	00000938 	andeq	r0, r0, r8, lsr r9
    2f88:	25029405 	strcs	r9, [r2, #-1029]	; 0x405
    2f8c:	cc000000 	stcgt	0, cr0, [r0], {-0}
    2f90:	01110a00 	tsteq	r1, r0, lsl #20
    2f94:	07960000 	ldreq	r0, [r6, r0]
    2f98:	2c0b0000 	stccs	0, cr0, [fp], {-0}
    2f9c:	19000000 	stmdbne	r0, {}	; <UNPREDICTABLE>
    2fa0:	01110a00 	tsteq	r1, r0, lsl #20
    2fa4:	07a60000 	streq	r0, [r6, r0]!
    2fa8:	2c0b0000 	stccs	0, cr0, [fp], {-0}
    2fac:	07000000 	streq	r0, [r0, -r0]
    2fb0:	01110a00 	tsteq	r1, r0, lsl #20
    2fb4:	07b60000 	ldreq	r0, [r6, r0]!
    2fb8:	2c0b0000 	stccs	0, cr0, [fp], {-0}
    2fbc:	17000000 	strne	r0, [r0, -r0]
    2fc0:	05f01b00 	ldrbeq	r1, [r0, #2816]!	; 0xb00
    2fc4:	07da0299 	bfieq	r0, r9, #5, #22
    2fc8:	54180000 	ldrpl	r0, [r8], #-0
    2fcc:	05000008 	streq	r0, [r0, #-8]
    2fd0:	07da029c 	bfieq	r0, ip, #5, #22
    2fd4:	18000000 	stmdane	r0, {}	; <UNPREDICTABLE>
    2fd8:	00000a7c 	andeq	r0, r0, ip, ror sl
    2fdc:	ea029d05 	b	aa3f8 <__bss_end__+0x9e070>
    2fe0:	78000007 	stmdavc	r0, {r0, r1, r2}
    2fe4:	02da0a00 	sbcseq	r0, sl, #0, 20
    2fe8:	07ea0000 	strbeq	r0, [sl, r0]!
    2fec:	2c0b0000 	stccs	0, cr0, [fp], {-0}
    2ff0:	1d000000 	stcne	0, cr0, [r0, #-0]
    2ff4:	002c0a00 	eoreq	r0, ip, r0, lsl #20
    2ff8:	07fa0000 	ldrbeq	r0, [sl, r0]!
    2ffc:	2c0b0000 	stccs	0, cr0, [fp], {-0}
    3000:	1d000000 	stcne	0, cr0, [r0, #-0]
    3004:	05f01c00 	ldrbeq	r1, [r0, #3072]!	; 0xc00
    3008:	081c027e 	ldmdaeq	ip, {r1, r2, r3, r4, r5, r6, r9}
    300c:	d01d0000 	andsle	r0, sp, r0
    3010:	05000009 	streq	r0, [r0, #-9]
    3014:	06850295 	pkhbteq	r0, r5, r5, lsl #5
    3018:	9f1d0000 	svcls	0x001d0000
    301c:	0500000a 	streq	r0, [r0, #-10]
    3020:	07b6029e 			; <UNDEFINED> instruction: 0x07b6029e
    3024:	0a000000 	beq	302c <_start-0x4fd4>
    3028:	00000111 	andeq	r0, r0, r1, lsl r1
    302c:	0000082c 	andeq	r0, r0, ip, lsr #16
    3030:	00002c0b 	andeq	r2, r0, fp, lsl #24
    3034:	06001800 	streq	r1, [r0], -r0, lsl #16
    3038:	00000664 	andeq	r0, r0, r4, ror #12
    303c:	082c0405 	stmdaeq	ip!, {r0, r2, sl}
    3040:	421e0000 	andsmi	r0, lr, #0
    3044:	16000008 	strne	r0, [r0], -r8
    3048:	00000428 	andeq	r0, r0, r8, lsr #8
    304c:	37040500 	strcc	r0, [r4, -r0, lsl #10]
    3050:	05000008 	streq	r0, [r0, #-8]
    3054:	00017b04 	andeq	r7, r1, r4, lsl #22
    3058:	08591e00 	ldmdaeq	r9, {r9, sl, fp, ip}^
    305c:	25160000 	ldrcs	r0, [r6, #-0]
    3060:	00000000 	andeq	r0, r0, r0
    3064:	085f0405 	ldmdaeq	pc, {r0, r2, sl}^	; <UNPREDICTABLE>
    3068:	04050000 	streq	r0, [r5], #-0
    306c:	0000084e 	andeq	r0, r0, lr, asr #16
    3070:	0005f30a 	andeq	pc, r5, sl, lsl #6
    3074:	00087500 	andeq	r7, r8, r0, lsl #10
    3078:	002c0b00 	eoreq	r0, ip, r0, lsl #22
    307c:	00020000 	andeq	r0, r2, r0
    3080:	000a4e1f 	andeq	r4, sl, pc, lsl lr
    3084:	032e0500 	teqeq	lr, #0, 10
    3088:	00000428 	andeq	r0, r0, r8, lsr #8
    308c:	000a471f 	andeq	r4, sl, pc, lsl r7
    3090:	032f0500 	teqeq	pc, #0, 10
    3094:	0000042e 	andeq	r0, r0, lr, lsr #8
    3098:	00002515 	andeq	r2, r0, r5, lsl r5
    309c:	00089c00 	andeq	r9, r8, r0, lsl #24
    30a0:	00251600 	eoreq	r1, r5, r0, lsl #12
    30a4:	20000000 	andcs	r0, r0, r0
    30a8:	00000771 	andeq	r0, r0, r1, ror r7
    30ac:	08a71d06 	stmiaeq	r7!, {r1, r2, r8, sl, fp, ip}
    30b0:	04050000 	streq	r0, [r5], #-0
    30b4:	0000088d 	andeq	r0, r0, sp, lsl #17
    30b8:	00002515 	andeq	r2, r0, r5, lsl r5
    30bc:	0008bc00 	andeq	fp, r8, r0, lsl #24
    30c0:	05891600 	streq	r1, [r9, #1536]	; 0x600
    30c4:	20000000 	andcs	r0, r0, r0
    30c8:	00000bc0 	andeq	r0, r0, r0, asr #23
    30cc:	08c72206 	stmiaeq	r7, {r1, r2, r9, sp}^
    30d0:	04050000 	streq	r0, [r5], #-0
    30d4:	000008ad 	andeq	r0, r0, sp, lsr #17
    30d8:	00026f10 	andeq	r6, r2, r0, lsl pc
    30dc:	42070400 	andmi	r0, r7, #0, 8
    30e0:	000009a3 	andeq	r0, r0, r3, lsr #19
    30e4:	67617421 	strbvs	r7, [r1, -r1, lsr #8]!
    30e8:	2c450700 	mcrrcs	7, 0, r0, r5, cr0
    30ec:	04000000 	streq	r0, [r0], #-0
    30f0:	21001e02 	tstcs	r0, r2, lsl #28
    30f4:	46070042 	strmi	r0, [r7], -r2, asr #32
    30f8:	0000002c 	andeq	r0, r0, ip, lsr #32
    30fc:	001d0104 	andseq	r0, sp, r4, lsl #2
    3100:	07004321 	streq	r4, [r0, -r1, lsr #6]
    3104:	00002c47 	andeq	r2, r0, r7, asr #24
    3108:	1c010400 	cfstrsne	mvf0, [r1], {-0}
    310c:	4e582100 	rdfmie	f2, f0, f0
    3110:	2c480700 	mcrrcs	7, 0, r0, r8, cr0
    3114:	04000000 	streq	r0, [r0], #-0
    3118:	22001b01 	andcs	r1, r0, #1024	; 0x400
    311c:	00000497 	muleq	r0, r7, r4
    3120:	002c4b07 	eoreq	r4, ip, r7, lsl #22
    3124:	04040000 	streq	r0, [r4], #-0
    3128:	49210017 	stmdbmi	r1!, {r0, r1, r2, r4}
    312c:	0700504d 	streq	r5, [r0, -sp, asr #32]
    3130:	00002c4c 	andeq	r2, r0, ip, asr #24
    3134:	16010400 	strne	r0, [r1], -r0, lsl #8
    3138:	50412100 	subpl	r2, r1, r0, lsl #2
    313c:	2c4f0700 	mcrrcs	7, 0, r0, pc, cr0
    3140:	04000000 	streq	r0, [r0], #-0
    3144:	21001402 	tstcs	r0, r2, lsl #8
    3148:	00584554 	subseq	r4, r8, r4, asr r5
    314c:	002c5007 	eoreq	r5, ip, r7
    3150:	03040000 	movweq	r0, #16384	; 0x4000
    3154:	41210011 	teqmi	r1, r1, lsl r0
    3158:	07005850 	smlsdeq	r0, r0, r8, r5
    315c:	00002c51 	andeq	r2, r0, r1, asr ip
    3160:	10010400 	andne	r0, r1, r0, lsl #8
    3164:	00532100 	subseq	r2, r3, r0, lsl #2
    3168:	002c5207 	eoreq	r5, ip, r7, lsl #4
    316c:	01040000 	mrseq	r0, (UNDEF: 4)
    3170:	6e21000f 	cdpvs	0, 2, cr0, cr1, cr15, {0}
    3174:	53070047 	movwpl	r0, #28743	; 0x7047
    3178:	0000002c 	andeq	r0, r0, ip, lsr #32
    317c:	000e0104 	andeq	r0, lr, r4, lsl #2
    3180:	00021222 	andeq	r1, r2, r2, lsr #4
    3184:	2c540700 	mrrccs	7, 0, r0, r4, cr0
    3188:	04000000 	streq	r0, [r0], #-0
    318c:	22000d01 	andcs	r0, r0, #1, 26	; 0x40
    3190:	000004a4 	andeq	r0, r0, r4, lsr #9
    3194:	002c5507 	eoreq	r5, ip, r7, lsl #10
    3198:	01040000 	mrseq	r0, (UNDEF: 4)
    319c:	d822000c 	stmdale	r2!, {r2, r3}
    31a0:	07000000 	streq	r0, [r0, -r0]
    31a4:	00002c56 	andeq	r2, r0, r6, asr ip
    31a8:	000c0400 	andeq	r0, ip, r0, lsl #8
    31ac:	96040000 	strls	r0, [r4], -r0
    31b0:	07000001 	streq	r0, [r0, -r1]
    31b4:	0008cd6f 	andeq	ip, r8, pc, ror #26
    31b8:	01072300 	mrseq	r2, SP_und
    31bc:	0000004f 	andeq	r0, r0, pc, asr #32
    31c0:	09ce1701 	stmibeq	lr, {r0, r8, r9, sl, ip}^
    31c4:	ff240000 			; <UNDEFINED> instruction: 0xff240000
    31c8:	03000001 	movweq	r0, #1
    31cc:	00048a24 	andeq	r8, r4, r4, lsr #20
    31d0:	c1240000 	teqgt	r4, r0
    31d4:	02000000 	andeq	r0, r0, #0
    31d8:	064b2500 	strbeq	r2, [fp], -r0, lsl #10
    31dc:	58010000 	stmdapl	r1, {}	; <UNPREDICTABLE>
    31e0:	000095ec 	andeq	r9, r0, ip, ror #11
    31e4:	00000084 	andeq	r0, r0, r4, lsl #1
    31e8:	0ad49c01 	beq	ff52a1f4 <__bss_end__+0xff51de6c>
    31ec:	70260000 	eorvc	r0, r6, r0
    31f0:	58010074 	stmdapl	r1, {r2, r4, r5, r6}
    31f4:	00000ad4 	ldrdeq	r0, [r0], -r4
    31f8:	00000ae1 	andeq	r0, r0, r1, ror #21
    31fc:	00617626 	rsbeq	r7, r1, r6, lsr #12
    3200:	002c5801 	eoreq	r5, ip, r1, lsl #16
    3204:	0aff0000 	beq	fffc320c <__bss_end__+0xfffb6e84>
    3208:	5b270000 	blpl	9c3210 <__bss_end__+0x9b6e88>
    320c:	01000000 	mrseq	r0, (UNDEF: 0)
    3210:	00002c58 	andeq	r2, r0, r8, asr ip
    3214:	000b3600 	andeq	r3, fp, r0, lsl #12
    3218:	065f2700 	ldrbeq	r2, [pc], -r0, lsl #14
    321c:	58010000 	stmdapl	r1, {}	; <UNPREDICTABLE>
    3220:	0000002c 	andeq	r0, r0, ip, lsr #32
    3224:	00000b54 	andeq	r0, r0, r4, asr fp
    3228:	0001bf28 	andeq	fp, r1, r8, lsr #30
    322c:	000aea00 	andeq	lr, sl, r0, lsl #20
    3230:	6c030500 	cfstr32vs	mvfx0, [r3], {-0}
    3234:	290000ba 	stmdbcs	r0, {r1, r3, r4, r5, r7}
    3238:	00000018 	andeq	r0, r0, r8, lsl r0
    323c:	00000a7d 	andeq	r0, r0, sp, ror sl
    3240:	0100692a 	tsteq	r0, sl, lsr #18
    3244:	0000255b 	andeq	r2, r0, fp, asr r5
    3248:	2b540100 	blcs	1503650 <__bss_end__+0x14f72c8>
    324c:	00009630 	andeq	r9, r0, r0, lsr r6
    3250:	00000024 	andeq	r0, r0, r4, lsr #32
    3254:	6574702c 	ldrbvs	r7, [r4, #-44]!	; 0x2c
    3258:	d45c0100 	ldrble	r0, [ip], #-256	; 0x100
    325c:	7200000a 	andvc	r0, r0, #10
    3260:	2d00000b 	stccs	0, cr0, [r0, #-44]	; 0xffffffd4
    3264:	0000963c 	andeq	r9, r0, ip, lsr r6
    3268:	00000e4b 	andeq	r0, r0, fp, asr #28
    326c:	00000a72 	andeq	r0, r0, r2, ror sl
    3270:	0250012e 	subseq	r0, r0, #-2147483637	; 0x8000000b
    3274:	012e0078 	teqeq	lr, r8, ror r0
    3278:	00770251 	rsbseq	r0, r7, r1, asr r2
    327c:	96542f00 	ldrbls	r2, [r4], -r0, lsl #30
    3280:	0f6a0000 	svceq	0x006a0000
    3284:	00000000 	andeq	r0, r0, r0
    3288:	0096042d 	addseq	r0, r6, sp, lsr #8
    328c:	000f4300 	andeq	r4, pc, r0, lsl #6
    3290:	000a9200 	andeq	r9, sl, r0, lsl #4
    3294:	50012e00 	andpl	r2, r1, r0, lsl #28
    3298:	5101f303 	tstpl	r1, r3, lsl #6
    329c:	96182f00 	ldrls	r2, [r8], -r0, lsl #30
    32a0:	0f760000 	svceq	0x00760000
    32a4:	2c2d0000 	stccs	0, cr0, [sp], #-0
    32a8:	81000096 	swphi	r0, r6, [r0]	; <UNPREDICTABLE>
    32ac:	ca00000f 	bgt	32f0 <_start-0x4d10>
    32b0:	2e00000a 	cdpcs	0, 0, cr0, cr0, cr10, {0}
    32b4:	03055001 	movweq	r5, #20481	; 0x5001
    32b8:	0000bb8c 	andeq	fp, r0, ip, lsl #23
    32bc:	0551012e 	ldrbeq	r0, [r1, #-302]	; 0x12e
    32c0:	00ba8803 	adcseq	r8, sl, r3, lsl #16
    32c4:	52012e00 	andpl	r2, r1, #0, 28
    32c8:	ba6c0305 	blt	1b03ee4 <__bss_end__+0x1af7b5c>
    32cc:	012e0000 	teqeq	lr, r0
    32d0:	5a080253 	bpl	203c24 <__bss_end__+0x1f789c>
    32d4:	96302f00 	ldrtls	r2, [r0], -r0, lsl #30
    32d8:	0f8c0000 	svceq	0x008c0000
    32dc:	05000000 	streq	r0, [r0, #-0]
    32e0:	0009a304 	andeq	sl, r9, r4, lsl #6
    32e4:	01180a00 	tsteq	r8, r0, lsl #20
    32e8:	0aea0000 	beq	ffa832f0 <__bss_end__+0xffa76f68>
    32ec:	2c0b0000 	stccs	0, cr0, [fp], {-0}
    32f0:	18000000 	stmdane	r0, {}	; <UNPREDICTABLE>
    32f4:	0ada0f00 	beq	ff686efc <__bss_end__+0xff67ab74>
    32f8:	e8300000 	ldmda	r0!, {}	; <UNPREDICTABLE>
    32fc:	01000007 	tsteq	r0, r7
    3300:	000ad44f 	andeq	sp, sl, pc, asr #8
    3304:	0095a000 	addseq	sl, r5, r0
    3308:	00004c00 	andeq	r4, r0, r0, lsl #24
    330c:	969c0100 	ldrls	r0, [ip], r0, lsl #2
    3310:	2700000b 	strcs	r0, [r0, -fp]
    3314:	0000068e 	andeq	r0, r0, lr, lsl #13
    3318:	002c4f01 	eoreq	r4, ip, r1, lsl #30
    331c:	0b850000 	bleq	fe143324 <__bss_end__+0xfe136f9c>
    3320:	bf280000 	svclt	0x00280000
    3324:	a6000001 	strge	r0, [r0], -r1
    3328:	0500000b 	streq	r0, [r0, #-11]
    332c:	00ba5c03 	adcseq	r5, sl, r3, lsl #24
    3330:	74702c00 	ldrbtvc	r2, [r0], #-3072	; 0xc00
    3334:	d4520100 	ldrble	r0, [r2], #-256	; 0x100
    3338:	bc00000a 	stclt	0, cr0, [r0], {10}
    333c:	2d00000b 	stccs	0, cr0, [r0, #-44]	; 0xffffffd4
    3340:	000095bc 			; <UNDEFINED> instruction: 0x000095bc
    3344:	00000f97 	muleq	r0, r7, pc	; <UNPREDICTABLE>
    3348:	00000b54 	andeq	r0, r0, r4, asr fp
    334c:	0250012e 	subseq	r0, r0, #-2147483637	; 0x8000000b
    3350:	012e0074 	teqeq	lr, r4, ror r0
    3354:	2e300151 	mrccs	1, 1, r0, cr0, cr1, {2}
    3358:	0a035201 	beq	d7b64 <__bss_end__+0xcb7dc>
    335c:	2f004000 	svccs	0x00004000
    3360:	000095c8 	andeq	r9, r0, r8, asr #11
    3364:	00000f76 	andeq	r0, r0, r6, ror pc
    3368:	0095dc2d 	addseq	sp, r5, sp, lsr #24
    336c:	000f8100 	andeq	r8, pc, r0, lsl #2
    3370:	000b8c00 	andeq	r8, fp, r0, lsl #24
    3374:	50012e00 	andpl	r2, r1, r0, lsl #28
    3378:	b0d00305 	sbcslt	r0, r0, r5, lsl #6
    337c:	012e0000 	teqeq	lr, r0
    3380:	88030551 	stmdahi	r3, {r0, r4, r6, r8, sl}
    3384:	2e0000ba 	mcrcs	0, 0, r0, cr0, cr10, {5}
    3388:	03055201 	movweq	r5, #20993	; 0x5201
    338c:	0000ba5c 	andeq	fp, r0, ip, asr sl
    3390:	0253012e 	subseq	r0, r3, #-2147483637	; 0x8000000b
    3394:	2f005008 	svccs	0x00005008
    3398:	000095e0 	andeq	r9, r0, r0, ror #11
    339c:	00000f8c 	andeq	r0, r0, ip, lsl #31
    33a0:	01180a00 	tsteq	r8, r0, lsl #20
    33a4:	0ba60000 	bleq	fe9833ac <__bss_end__+0xfe977024>
    33a8:	2c0b0000 	stccs	0, cr0, [fp], {-0}
    33ac:	0c000000 	stceq	0, cr0, [r0], {-0}
    33b0:	0b960f00 	bleq	fe586fb8 <__bss_end__+0xfe57ac30>
    33b4:	2b300000 	blcs	c033bc <__bss_end__+0xbf7034>
    33b8:	01000007 	tsteq	r0, r7
    33bc:	000ad432 	andeq	sp, sl, r2, lsr r4
    33c0:	00948000 	addseq	r8, r4, r0
    33c4:	00012000 	andeq	r2, r1, r0
    33c8:	5e9c0100 	fmlple	f0, f4, f0
    33cc:	2600000d 	strcs	r0, [r0], -sp
    33d0:	01007470 	tsteq	r0, r0, ror r4
    33d4:	000ad432 	andeq	sp, sl, r2, lsr r4
    33d8:	000bda00 	andeq	sp, fp, r0, lsl #20
    33dc:	61762600 	cmnvs	r6, r0, lsl #12
    33e0:	2c320100 	ldfcss	f0, [r2], #-0
    33e4:	3d000000 	stccc	0, cr0, [r0, #-0]
    33e8:	2600000c 	strcs	r0, [r0], -ip
    33ec:	01006170 	tsteq	r0, r0, ror r1
    33f0:	00002c32 	andeq	r2, r0, r2, lsr ip
    33f4:	000ca900 	andeq	sl, ip, r0, lsl #18
    33f8:	01bf2800 			; <UNDEFINED> instruction: 0x01bf2800
    33fc:	0d6e0000 	stcleq	0, cr0, [lr, #-0]
    3400:	03050000 	movweq	r0, #20480	; 0x5000
    3404:	0000ba48 	andeq	fp, r0, r8, asr #20
    3408:	000a0b31 	andeq	r0, sl, r1, lsr fp
    340c:	2c360100 	ldfcss	f0, [r6], #-0
    3410:	0c000000 	stceq	0, cr0, [r0], {-0}
    3414:	2c00000d 	stccs	0, cr0, [r0], {13}
    3418:	00657470 	rsbeq	r7, r5, r0, ror r4
    341c:	0ad43701 	beq	ff511028 <__bss_end__+0xff504ca0>
    3420:	0d2a0000 	stceq	0, cr0, [sl, #-0]
    3424:	b82f0000 	stmdalt	pc!, {}	; <UNPREDICTABLE>
    3428:	a2000094 	andge	r0, r0, #148	; 0x94
    342c:	2d00000f 	stccs	0, cr0, [r0, #-60]	; 0xffffffc4
    3430:	000094fc 	strdeq	r9, [r0], -ip
    3434:	00000d73 	andeq	r0, r0, r3, ror sp
    3438:	00000c3e 	andeq	r0, r0, lr, lsr ip
    343c:	0250012e 	subseq	r0, r0, #-2147483637	; 0x8000000b
    3440:	012e0076 	teqeq	lr, r6, ror r0
    3444:	00780251 	rsbseq	r0, r8, r1, asr r2
    3448:	95002f00 	strls	r2, [r0, #-3840]	; 0xf00
    344c:	0f6a0000 	svceq	0x006a0000
    3450:	082d0000 	stmdaeq	sp!, {}	; <UNPREDICTABLE>
    3454:	ad000095 	stcge	0, cr0, [r0, #-596]	; 0xfffffdac
    3458:	5b00000f 	blpl	349c <_start-0x4b64>
    345c:	2e00000c 	cdpcs	0, 0, cr0, cr0, cr12, {0}
    3460:	76025001 	strvc	r5, [r2], -r1
    3464:	182d0000 	stmdane	sp!, {}	; <UNPREDICTABLE>
    3468:	81000095 	swphi	r0, r5, [r0]	; <UNPREDICTABLE>
    346c:	7800000f 	stmdavc	r0, {r0, r1, r2, r3}
    3470:	2e00000c 	cdpcs	0, 0, cr0, cr0, cr12, {0}
    3474:	03055001 	movweq	r5, #20481	; 0x5001
    3478:	0000b0b0 	strheq	fp, [r0], -r0
    347c:	0251012e 	subseq	r0, r1, #-2147483637	; 0x8000000b
    3480:	2d000075 	stccs	0, cr0, [r0, #-468]	; 0xfffffe2c
    3484:	00009528 	andeq	r9, r0, r8, lsr #10
    3488:	00000fb8 			; <UNDEFINED> instruction: 0x00000fb8
    348c:	00000c9a 	muleq	r0, sl, ip
    3490:	0550012e 	ldrbeq	r0, [r0, #-302]	; 0x12e
    3494:	00b0c403 	adcseq	ip, r0, r3, lsl #8
    3498:	51012e00 	tstpl	r1, r0, lsl #28
    349c:	2e007602 	cfmadd32cs	mvax0, mvfx7, mvfx0, mvfx2
    34a0:	34015201 	strcc	r5, [r1], #-513	; 0x201
    34a4:	95342f00 	ldrls	r2, [r4, #-3840]!	; 0xf00
    34a8:	0f760000 	svceq	0x00760000
    34ac:	482d0000 	stmdami	sp!, {}	; <UNPREDICTABLE>
    34b0:	81000095 	swphi	r0, r5, [r0]	; <UNPREDICTABLE>
    34b4:	d200000f 	andle	r0, r0, #15
    34b8:	2e00000c 	cdpcs	0, 0, cr0, cr0, cr12, {0}
    34bc:	03055001 	movweq	r5, #20481	; 0x5001
    34c0:	0000b068 	andeq	fp, r0, r8, rrx
    34c4:	0551012e 	ldrbeq	r0, [r1, #-302]	; 0x12e
    34c8:	00ba8803 	adcseq	r8, sl, r3, lsl #16
    34cc:	52012e00 	andpl	r2, r1, #0, 28
    34d0:	ba480305 	blt	12040ec <__bss_end__+0x11f7d64>
    34d4:	012e0000 	teqeq	lr, r0
    34d8:	33080253 	movwcc	r0, #33363	; 0x8253
    34dc:	954c2f00 	strbls	r2, [ip, #-3840]	; 0xf00
    34e0:	0f8c0000 	svceq	0x008c0000
    34e4:	502f0000 	eorpl	r0, pc, r0
    34e8:	76000095 			; <UNDEFINED> instruction: 0x76000095
    34ec:	2d00000f 	stccs	0, cr0, [r0, #-60]	; 0xffffffc4
    34f0:	00009564 	andeq	r9, r0, r4, ror #10
    34f4:	00000f81 	andeq	r0, r0, r1, lsl #31
    34f8:	00000d13 	andeq	r0, r0, r3, lsl sp
    34fc:	0550012e 	ldrbeq	r0, [r0, #-302]	; 0x12e
    3500:	00b08c03 	adcseq	r8, r0, r3, lsl #24
    3504:	51012e00 	tstpl	r1, r0, lsl #28
    3508:	ba880305 	blt	fe204124 <__bss_end__+0xfe1f7d9c>
    350c:	012e0000 	teqeq	lr, r0
    3510:	48030552 	stmdami	r3, {r1, r4, r6, r8, sl}
    3514:	2e0000ba 	mcrcs	0, 0, r0, cr0, cr10, {5}
    3518:	08025301 	stmdaeq	r2, {r0, r8, r9, ip, lr}
    351c:	682f0034 	stmdavs	pc!, {r2, r4, r5}	; <UNPREDICTABLE>
    3520:	8c000095 	stchi	0, cr0, [r0], {149}	; 0x95
    3524:	2f00000f 	svccs	0x0000000f
    3528:	0000956c 	andeq	r9, r0, ip, ror #10
    352c:	00000f76 	andeq	r0, r0, r6, ror pc
    3530:	0095802d 	addseq	r8, r5, sp, lsr #32
    3534:	000f8100 	andeq	r8, pc, r0, lsl #2
    3538:	000d5400 	andeq	r5, sp, r0, lsl #8
    353c:	50012e00 	andpl	r2, r1, r0, lsl #28
    3540:	bb580305 	bllt	160415c <__bss_end__+0x15f7dd4>
    3544:	012e0000 	teqeq	lr, r0
    3548:	88030551 	stmdahi	r3, {r0, r4, r6, r8, sl}
    354c:	2e0000ba 	mcrcs	0, 0, r0, cr0, cr10, {5}
    3550:	03055201 	movweq	r5, #20993	; 0x5201
    3554:	0000ba48 	andeq	fp, r0, r8, asr #20
    3558:	0253012e 	subseq	r0, r3, #-2147483637	; 0x8000000b
    355c:	2f003808 	svccs	0x00003808
    3560:	00009584 	andeq	r9, r0, r4, lsl #11
    3564:	00000f8c 	andeq	r0, r0, ip, lsl #31
    3568:	01180a00 	tsteq	r8, r0, lsl #20
    356c:	0d6e0000 	stcleq	0, cr0, [lr, #-0]
    3570:	2c0b0000 	stccs	0, cr0, [fp], {-0}
    3574:	13000000 	movwne	r0, #0
    3578:	0d5e0f00 	ldcleq	15, cr0, [lr, #-0]
    357c:	d6250000 	strtle	r0, [r5], -r0
    3580:	01000006 	tsteq	r0, r6
    3584:	00941021 	addseq	r1, r4, r1, lsr #32
    3588:	00007000 	andeq	r7, r0, r0
    358c:	369c0100 	ldrcc	r0, [ip], r0, lsl #2
    3590:	2600000e 	strcs	r0, [r0], -lr
    3594:	21010066 	tstcs	r1, r6, rrx
    3598:	00000ad4 	ldrdeq	r0, [r0], -r4
    359c:	00000d48 	andeq	r0, r0, r8, asr #26
    35a0:	0000e127 	andeq	lr, r0, r7, lsr #2
    35a4:	2c210100 	stfcss	f0, [r1], #-0
    35a8:	82000000 	andhi	r0, r0, #0
    35ac:	2800000d 	stmdacs	r0, {r0, r2, r3}
    35b0:	000001bf 			; <UNDEFINED> instruction: 0x000001bf
    35b4:	00000e46 	andeq	r0, r0, r6, asr #28
    35b8:	ba340305 	blt	d041d4 <__bss_end__+0xcf7e4c>
    35bc:	3c2f0000 	stccc	0, cr0, [pc], #-0	; 35c4 <_start-0x4a3c>
    35c0:	76000094 			; <UNDEFINED> instruction: 0x76000094
    35c4:	2d00000f 	stccs	0, cr0, [r0, #-60]	; 0xffffffc4
    35c8:	00009450 	andeq	r9, r0, r0, asr r4
    35cc:	00000f81 	andeq	r0, r0, r1, lsl #31
    35d0:	00000deb 	andeq	r0, r0, fp, ror #27
    35d4:	0550012e 	ldrbeq	r0, [r0, #-302]	; 0x12e
    35d8:	00bb2403 	adcseq	r2, fp, r3, lsl #8
    35dc:	51012e00 	tstpl	r1, r0, lsl #28
    35e0:	ba880305 	blt	fe2041fc <__bss_end__+0xfe1f7e74>
    35e4:	012e0000 	teqeq	lr, r0
    35e8:	34030552 	strcc	r0, [r3], #-1362	; 0x552
    35ec:	2e0000ba 	mcrcs	0, 0, r0, cr0, cr10, {5}
    35f0:	08025301 	stmdaeq	r2, {r0, r8, r9, ip, lr}
    35f4:	542f0027 	strtpl	r0, [pc], #-39	; 35fc <_start-0x4a04>
    35f8:	8c000094 	stchi	0, cr0, [r0], {148}	; 0x94
    35fc:	2f00000f 	svccs	0x0000000f
    3600:	00009458 	andeq	r9, r0, r8, asr r4
    3604:	00000f76 	andeq	r0, r0, r6, ror pc
    3608:	00946c2d 	addseq	r6, r4, sp, lsr #24
    360c:	000f8100 	andeq	r8, pc, r0, lsl #2
    3610:	000e2c00 	andeq	r2, lr, r0, lsl #24
    3614:	50012e00 	andpl	r2, r1, r0, lsl #28
    3618:	bac80305 	blt	ff204234 <__bss_end__+0xff1f7eac>
    361c:	012e0000 	teqeq	lr, r0
    3620:	88030551 	stmdahi	r3, {r0, r4, r6, r8, sl}
    3624:	2e0000ba 	mcrcs	0, 0, r0, cr0, cr10, {5}
    3628:	03055201 	movweq	r5, #20993	; 0x5201
    362c:	0000ba34 	andeq	fp, r0, r4, lsr sl
    3630:	0253012e 	subseq	r0, r3, #-2147483637	; 0x8000000b
    3634:	2f002208 	svccs	0x00002208
    3638:	00009470 	andeq	r9, r0, r0, ror r4
    363c:	00000f8c 	andeq	r0, r0, ip, lsl #31
    3640:	01180a00 	tsteq	r8, r0, lsl #20
    3644:	0e460000 	cdpeq	0, 4, cr0, cr6, cr0, {0}
    3648:	2c0b0000 	stccs	0, cr0, [fp], {-0}
    364c:	11000000 	mrsne	r0, (UNDEF: 0)
    3650:	0e360f00 	cdpeq	15, 3, cr0, cr6, cr0, {0}
    3654:	a8300000 	ldmdage	r0!, {}	; <UNPREDICTABLE>
    3658:	01000007 	tsteq	r0, r7
    365c:	000ad40c 	andeq	sp, sl, ip, lsl #8
    3660:	0093a000 	addseq	sl, r3, r0
    3664:	00007000 	andeq	r7, r0, r0
    3668:	2e9c0100 	fmlcse	f0, f4, f0
    366c:	2600000f 	strcs	r0, [r0], -pc
    3670:	01007470 	tsteq	r0, r0, ror r4
    3674:	000ad40c 	andeq	sp, sl, ip, lsl #8
    3678:	000dbc00 	andeq	fp, sp, r0, lsl #24
    367c:	61762600 	cmnvs	r6, r0, lsl #12
    3680:	2c0c0100 	stfcss	f0, [ip], {-0}
    3684:	0f000000 	svceq	0x00000000
    3688:	2800000e 	stmdacs	r0, {r1, r2, r3}
    368c:	000001bf 			; <UNDEFINED> instruction: 0x000001bf
    3690:	00000f3e 	andeq	r0, r0, lr, lsr pc
    3694:	ba1c0305 	blt	7042b0 <__bss_end__+0x6f7f28>
    3698:	0b310000 	bleq	c436a0 <__bss_end__+0xc37318>
    369c:	0100000a 	tsteq	r0, sl
    36a0:	00002c0e 	andeq	r2, r0, lr, lsl #24
    36a4:	000e4900 	andeq	r4, lr, r0, lsl #18
    36a8:	74702c00 	ldrbtvc	r2, [r0], #-3072	; 0xc00
    36ac:	0f010065 	svceq	0x00010065
    36b0:	00000ad4 	ldrdeq	r0, [r0], -r4
    36b4:	00000e77 	andeq	r0, r0, r7, ror lr
    36b8:	0093cc2f 	addseq	ip, r3, pc, lsr #24
    36bc:	000f7600 	andeq	r7, pc, r0, lsl #12
    36c0:	93e02d00 	mvnls	r2, #0, 26
    36c4:	0f810000 	svceq	0x00810000
    36c8:	0ee40000 	cdpeq	0, 14, cr0, cr4, cr0, {0}
    36cc:	012e0000 	teqeq	lr, r0
    36d0:	68030550 	stmdavs	r3, {r4, r6, r8, sl}
    36d4:	2e0000b0 	mcrcs	0, 0, r0, cr0, cr0, {5}
    36d8:	03055101 	movweq	r5, #20737	; 0x5101
    36dc:	0000ba88 	andeq	fp, r0, r8, lsl #21
    36e0:	0552012e 	ldrbeq	r0, [r2, #-302]	; 0x12e
    36e4:	00ba1c03 	adcseq	r1, sl, r3, lsl #24
    36e8:	53012e00 	movwpl	r2, #7680	; 0x1e00
    36ec:	2f003d01 	svccs	0x00003d01
    36f0:	000093e4 	andeq	r9, r0, r4, ror #7
    36f4:	00000f8c 	andeq	r0, r0, ip, lsl #31
    36f8:	0093e82f 	addseq	lr, r3, pc, lsr #16
    36fc:	000f7600 	andeq	r7, pc, r0, lsl #12
    3700:	93fc2d00 	mvnsls	r2, #0, 26
    3704:	0f810000 	svceq	0x00810000
    3708:	0f240000 	svceq	0x00240000
    370c:	012e0000 	teqeq	lr, r0
    3710:	94030550 	strls	r0, [r3], #-1360	; 0x550
    3714:	2e0000ba 	mcrcs	0, 0, r0, cr0, cr10, {5}
    3718:	03055101 	movweq	r5, #20737	; 0x5101
    371c:	0000ba88 	andeq	fp, r0, r8, lsl #21
    3720:	0552012e 	ldrbeq	r0, [r2, #-302]	; 0x12e
    3724:	00ba1c03 	adcseq	r1, sl, r3, lsl #24
    3728:	53012e00 	movwpl	r2, #7680	; 0x1e00
    372c:	2f004001 	svccs	0x00004001
    3730:	00009400 	andeq	r9, r0, r0, lsl #8
    3734:	00000f8c 	andeq	r0, r0, ip, lsl #31
    3738:	01180a00 	tsteq	r8, r0, lsl #20
    373c:	0f3e0000 	svceq	0x003e0000
    3740:	2c0b0000 	stccs	0, cr0, [fp], {-0}
    3744:	16000000 	strne	r0, [r0], -r0
    3748:	0f2e0f00 	svceq	0x002e0f00
    374c:	5b320000 	blpl	c83754 <__bss_end__+0xc773cc>
    3750:	01000008 	tsteq	r0, r8
    3754:	00002c08 	andeq	r2, r0, r8, lsl #24
    3758:	00939400 	addseq	r9, r3, r0, lsl #8
    375c:	00000c00 	andeq	r0, r0, r0, lsl #24
    3760:	6a9c0100 	bvs	fe703b68 <__bss_end__+0xfe6f77e0>
    3764:	2600000f 	strcs	r0, [r0], -pc
    3768:	08010075 	stmdaeq	r1, {r0, r2, r4, r5, r6}
    376c:	0000002c 	andeq	r0, r0, ip, lsr #32
    3770:	00000eab 	andeq	r0, r0, fp, lsr #29
    3774:	010d3300 	mrseq	r3, SP_mon
    3778:	010d0000 	mrseq	r0, (UNDEF: 13)
    377c:	17070000 	strne	r0, [r7, -r0]
    3780:	019c3401 	orrseq	r3, ip, r1, lsl #8
    3784:	019c0000 	orrseq	r0, ip, r0
    3788:	1e060000 	cdpne	0, 0, cr0, cr6, cr0, {0}
    378c:	000b6834 	andeq	r6, fp, r4, lsr r8
    3790:	000b6800 	andeq	r6, fp, r0, lsl #16
    3794:	34290600 	strtcc	r0, [r9], #-1536	; 0x600
    3798:	00000372 	andeq	r0, r0, r2, ror r3
    379c:	00000372 	andeq	r0, r0, r2, ror r3
    37a0:	34346506 	ldrtcc	r6, [r4], #-1286	; 0x506
    37a4:	34000004 	strcc	r0, [r0], #-4
    37a8:	08000004 	stmdaeq	r0, {r2}
    37ac:	05753421 	ldrbeq	r3, [r5, #-1057]!	; 0x421
    37b0:	05750000 	ldrbeq	r0, [r5, #-0]!
    37b4:	76070000 	strvc	r0, [r7], -r0
    37b8:	0001f534 	andeq	pc, r1, r4, lsr r5	; <UNPREDICTABLE>
    37bc:	0001f500 	andeq	pc, r1, r0, lsl #10
    37c0:	33730700 	cmncc	r3, #0, 14
    37c4:	000001cc 	andeq	r0, r0, ip, asr #3
    37c8:	000001cc 	andeq	r0, r0, ip, asr #3
    37cc:	00011e07 	andeq	r1, r1, r7, lsl #28
    37d0:	000000f8 	strdeq	r0, [r0], -r8
    37d4:	07a00004 	streq	r0, [r0, r4]!
    37d8:	01040000 	mrseq	r0, (UNDEF: 4)
    37dc:	000003aa 	andeq	r0, r0, sl, lsr #7
    37e0:	000aea01 	andeq	lr, sl, r1, lsl #20
    37e4:	000af600 	andeq	pc, sl, r0, lsl #12
    37e8:	00967000 	addseq	r7, r6, r0
    37ec:	0000f000 	andeq	pc, r0, r0
    37f0:	0006cb00 	andeq	ip, r6, r0, lsl #22
    37f4:	05040200 	streq	r0, [r4, #-512]	; 0x200
    37f8:	00746e69 	rsbseq	r6, r4, r9, ror #28
    37fc:	92070403 	andls	r0, r7, #50331648	; 0x3000000
    3800:	03000000 	movweq	r0, #0
    3804:	03020601 	movweq	r0, #9729	; 0x2601
    3808:	02030000 	andeq	r0, r3, #0
    380c:	00032e05 	andeq	r2, r3, r5, lsl #28
    3810:	05040300 	streq	r0, [r4, #-768]	; 0x300
    3814:	000000b8 	strheq	r0, [r0], -r8
    3818:	b3050803 	movwlt	r0, #22531	; 0x5803
    381c:	04000000 	streq	r0, [r0], #-0
    3820:	0000046d 	andeq	r0, r0, sp, ror #8
    3824:	005a2e02 	subseq	r2, sl, r2, lsl #28
    3828:	01030000 	mrseq	r0, (UNDEF: 3)
    382c:	00030008 	andeq	r0, r3, r8
    3830:	07020300 	streq	r0, [r2, -r0, lsl #6]
    3834:	000001e2 	andeq	r0, r0, r2, ror #3
    3838:	00038b04 	andeq	r8, r3, r4, lsl #22
    383c:	73340200 	teqvc	r4, #0, 4
    3840:	03000000 	movweq	r0, #0
    3844:	008d0704 	addeq	r0, sp, r4, lsl #14
    3848:	08030000 	stmdaeq	r3, {}	; <UNPREDICTABLE>
    384c:	00008807 	andeq	r8, r0, r7, lsl #16
    3850:	07040300 	streq	r0, [r4, -r0, lsl #6]
    3854:	00000286 	andeq	r0, r0, r6, lsl #5
    3858:	09080103 	stmdbeq	r8, {r0, r1, r8}
    385c:	05000003 	streq	r0, [r0, #-3]
    3860:	00009504 	andeq	r9, r0, r4, lsl #10
    3864:	00880600 	addeq	r0, r8, r0, lsl #12
    3868:	28070000 	stmdacs	r7, {}	; <UNPREDICTABLE>
    386c:	01000005 	tsteq	r0, r5
    3870:	0000680f 	andeq	r6, r0, pc, lsl #16
    3874:	00967000 	addseq	r7, r6, r0
    3878:	0000f000 	andeq	pc, r0, r0
    387c:	089c0100 	ldmeq	ip, {r8}
    3880:	00000fb8 			; <UNDEFINED> instruction: 0x00000fb8
    3884:	008f0f01 	addeq	r0, pc, r1, lsl #30
    3888:	0ecc0000 	cdpeq	0, 12, cr0, cr12, cr0, {0}
    388c:	6c090000 	stcvs	0, cr0, [r9], {-0}
    3890:	01006e65 	tsteq	r0, r5, ror #28
    3894:	0000250f 	andeq	r2, r0, pc, lsl #10
    3898:	000f0b00 	andeq	r0, pc, r0, lsl #22
    389c:	052d0a00 	streq	r0, [sp, #-2560]!	; 0xa00
    38a0:	10010000 	andne	r0, r1, r0
    38a4:	00000068 	andeq	r0, r0, r8, rrx
    38a8:	00000f4a 	andeq	r0, r0, sl, asr #30
    38ac:	706d740b 	rsbvc	r7, sp, fp, lsl #8
    38b0:	68100100 	ldmdavs	r0, {r8}
    38b4:	94000000 	strls	r0, [r0], #-0
    38b8:	0b00000f 	bleq	38fc <_start-0x4704>
    38bc:	006d6572 	rsbeq	r6, sp, r2, ror r5
    38c0:	00251101 	eoreq	r1, r5, r1, lsl #2
    38c4:	0fdf0000 	svceq	0x00df0000
    38c8:	00000000 	andeq	r0, r0, r0
    38cc:	000000db 	ldrdeq	r0, [r0], -fp
    38d0:	083d0004 	ldmdaeq	sp!, {r2}
    38d4:	01040000 	mrseq	r0, (UNDEF: 4)
    38d8:	000003aa 	andeq	r0, r0, sl, lsr #7
    38dc:	000b3a01 	andeq	r3, fp, r1, lsl #20
    38e0:	000af600 	andeq	pc, sl, r0, lsl #12
    38e4:	00976000 	addseq	r6, r7, r0
    38e8:	00002000 	andeq	r2, r0, r0
    38ec:	0007ad00 	andeq	sl, r7, r0, lsl #26
    38f0:	06010200 	streq	r0, [r1], -r0, lsl #4
    38f4:	00000302 	andeq	r0, r0, r2, lsl #6
    38f8:	00080102 	andeq	r0, r8, r2, lsl #2
    38fc:	02000003 	andeq	r0, r0, #3
    3900:	032e0502 	teqeq	lr, #8388608	; 0x800000
    3904:	02020000 	andeq	r0, r2, #0
    3908:	0001e207 	andeq	lr, r1, r7, lsl #4
    390c:	05040300 	streq	r0, [r4, #-768]	; 0x300
    3910:	00746e69 	rsbseq	r6, r4, r9, ror #28
    3914:	92070402 	andls	r0, r7, #33554432	; 0x2000000
    3918:	02000000 	andeq	r0, r0, #0
    391c:	00b30508 	adcseq	r0, r3, r8, lsl #10
    3920:	08020000 	stmdaeq	r2, {}	; <UNPREDICTABLE>
    3924:	00008807 	andeq	r8, r0, r7, lsl #16
    3928:	05040200 	streq	r0, [r4, #-512]	; 0x200
    392c:	000000b8 	strheq	r0, [r0], -r8
    3930:	86070402 	strhi	r0, [r7], -r2, lsl #8
    3934:	04000002 	streq	r0, [r0], #-2
    3938:	07040204 	streq	r0, [r4, -r4, lsl #4]
    393c:	0000008d 	andeq	r0, r0, sp, lsl #1
    3940:	007a0405 	rsbseq	r0, sl, r5, lsl #8
    3944:	01020000 	mrseq	r0, (UNDEF: 2)
    3948:	00030908 	andeq	r0, r3, r8, lsl #18
    394c:	00360600 	eorseq	r0, r6, r0, lsl #12
    3950:	d4020000 	strle	r0, [r2], #-0
    3954:	00000048 	andeq	r0, r0, r8, asr #32
    3958:	00043407 	andeq	r3, r4, r7, lsl #8
    395c:	6b1b0300 	blvs	6c4564 <__bss_end__+0x6b81dc>
    3960:	60000000 	andvs	r0, r0, r0
    3964:	20000097 	mulcs	r0, r7, r0
    3968:	01000000 	mrseq	r0, (UNDEF: 0)
    396c:	705f089c 			; <UNDEFINED> instruction: 0x705f089c
    3970:	6b030100 	blvs	c3d78 <__bss_end__+0xb79f0>
    3974:	01000000 	mrseq	r0, (UNDEF: 0)
    3978:	00630850 	rsbeq	r0, r3, r0, asr r8
    397c:	00410301 	subeq	r0, r1, r1, lsl #6
    3980:	51010000 	mrspl	r0, (UNDEF: 1)
    3984:	01006e09 	tsteq	r0, r9, lsl #28
    3988:	00008103 	andeq	r8, r0, r3, lsl #2
    398c:	000ff200 	andeq	pc, pc, r0, lsl #4
    3990:	00700a00 	rsbseq	r0, r0, r0, lsl #20
    3994:	00740401 	rsbseq	r0, r4, r1, lsl #8
    3998:	10130000 	andsne	r0, r3, r0
    399c:	650b0000 	strvs	r0, [fp, #-0]
    39a0:	74040100 	strvc	r0, [r4], #-256	; 0x100
    39a4:	01000000 	mrseq	r0, (UNDEF: 0)
    39a8:	91000052 	qaddls	r0, r2, r0
    39ac:	04000001 	streq	r0, [r0], #-1
    39b0:	0008da00 	andeq	sp, r8, r0, lsl #20
    39b4:	aa010400 	bge	449bc <__bss_end__+0x38634>
    39b8:	01000003 	tsteq	r0, r3
    39bc:	00000b57 	andeq	r0, r0, r7, asr fp
    39c0:	00000af6 	strdeq	r0, [r0], -r6
    39c4:	00009780 	andeq	r9, r0, r0, lsl #15
    39c8:	00000058 	andeq	r0, r0, r8, asr r0
    39cc:	0000089d 	muleq	r0, sp, r8
    39d0:	000b4802 	andeq	r4, fp, r2, lsl #16
    39d4:	30280200 	eorcc	r0, r8, r0, lsl #4
    39d8:	03000000 	movweq	r0, #0
    39dc:	00000b6f 	andeq	r0, r0, pc, ror #22
    39e0:	47000304 	strmi	r0, [r0, -r4, lsl #6]
    39e4:	04000000 	streq	r0, [r0], #-0
    39e8:	00000b79 	andeq	r0, r0, r9, ror fp
    39ec:	00000047 	andeq	r0, r0, r7, asr #32
    39f0:	04050000 	streq	r0, [r5], #-0
    39f4:	000b7102 	andeq	r7, fp, r2, lsl #2
    39f8:	25620200 	strbcs	r0, [r2, #-512]!	; 0x200
    39fc:	06000000 	streq	r0, [r0], -r0
    3a00:	6e690504 	cdpvs	5, 6, cr0, cr9, cr4, {0}
    3a04:	04070074 	streq	r0, [r7], #-116	; 0x74
    3a08:	00009207 	andeq	r9, r0, r7, lsl #4
    3a0c:	06010700 	streq	r0, [r1], -r0, lsl #14
    3a10:	00000302 	andeq	r0, r0, r2, lsl #6
    3a14:	2e050207 	cdpcs	2, 0, cr0, cr5, cr7, {0}
    3a18:	07000003 	streq	r0, [r0, -r3]
    3a1c:	00b80504 	adcseq	r0, r8, r4, lsl #10
    3a20:	08070000 	stmdaeq	r7, {}	; <UNPREDICTABLE>
    3a24:	0000b305 	andeq	fp, r0, r5, lsl #6
    3a28:	08010700 	stmdaeq	r1, {r8, r9, sl}
    3a2c:	00000300 	andeq	r0, r0, r0, lsl #6
    3a30:	e2070207 	and	r0, r7, #1879048192	; 0x70000000
    3a34:	07000001 	streq	r0, [r0, -r1]
    3a38:	008d0704 	addeq	r0, sp, r4, lsl #14
    3a3c:	08070000 	stmdaeq	r7, {}	; <UNPREDICTABLE>
    3a40:	00008807 	andeq	r8, r0, r7, lsl #16
    3a44:	07040700 	streq	r0, [r4, -r0, lsl #14]
    3a48:	00000286 	andeq	r0, r0, r6, lsl #5
    3a4c:	00a70408 	adceq	r0, r7, r8, lsl #8
    3a50:	01070000 	mrseq	r0, (UNDEF: 7)
    3a54:	00030908 	andeq	r0, r3, r8, lsl #18
    3a58:	b4040800 	strlt	r0, [r4], #-2048	; 0x800
    3a5c:	09000000 	stmdbeq	r0, {}	; <UNPREDICTABLE>
    3a60:	000000a7 	andeq	r0, r0, r7, lsr #1
    3a64:	000b680a 	andeq	r6, fp, sl, lsl #16
    3a68:	54060100 	strpl	r0, [r6], #-256	; 0x100
    3a6c:	80000000 	andhi	r0, r0, r0
    3a70:	58000097 	stmdapl	r0, {r0, r1, r2, r4, r7}
    3a74:	01000000 	mrseq	r0, (UNDEF: 0)
    3a78:	0001439c 	muleq	r1, ip, r3
    3a7c:	6d660b00 	vstmdbvs	r6!, {d16-d15}
    3a80:	06010074 			; <UNDEFINED> instruction: 0x06010074
    3a84:	000000ae 	andeq	r0, r0, lr, lsr #1
    3a88:	0c709102 	ldfeqp	f1, [r0], #-8
    3a8c:	6675620d 	ldrbtvs	r6, [r5], -sp, lsl #4
    3a90:	43080100 	movwmi	r0, #33024	; 0x8100
    3a94:	05000001 	streq	r0, [r0, #-1]
    3a98:	00bf7803 	adcseq	r7, pc, r3, lsl #16
    3a9c:	06ab0e00 	strteq	r0, [fp], r0, lsl #28
    3aa0:	09010000 	stmdbeq	r1, {}	; <UNPREDICTABLE>
    3aa4:	00000049 	andeq	r0, r0, r9, asr #32
    3aa8:	0f5c9102 	svceq	0x005c9102
    3aac:	01007a73 	tsteq	r0, r3, ror sl
    3ab0:	0000540c 	andeq	r5, r0, ip, lsl #8
    3ab4:	00103e00 	andseq	r3, r0, r0, lsl #28
    3ab8:	97a81000 	strls	r1, [r8, r0]!
    3abc:	01740000 	cmneq	r4, r0
    3ac0:	01360000 	teqeq	r6, r0
    3ac4:	01110000 	tsteq	r1, r0
    3ac8:	4c910253 	lfmmi	f0, 4, [r1], {83}	; 0x53
    3acc:	03520111 	cmpeq	r2, #1073741828	; 0x40000004
    3ad0:	11064891 			; <UNDEFINED> instruction: 0x11064891
    3ad4:	0a035101 	beq	d7ee0 <__bss_end__+0xcbb58>
    3ad8:	01110400 	tsteq	r1, r0, lsl #8
    3adc:	00740250 	rsbseq	r0, r4, r0, asr r2
    3ae0:	97bc1200 	ldrls	r1, [ip, r0, lsl #4]!
    3ae4:	01110000 	tsteq	r1, r0
    3ae8:	00740250 	rsbseq	r0, r4, r0, asr r2
    3aec:	a7130000 	ldrge	r0, [r3, -r0]
    3af0:	54000000 	strpl	r0, [r0], #-0
    3af4:	14000001 	strne	r0, [r0], #-1
    3af8:	0000009a 	muleq	r0, sl, r0
    3afc:	150003ff 	strne	r0, [r0, #-1023]	; 0x3ff
    3b00:	00000054 	andeq	r0, r0, r4, asr r0
    3b04:	00000163 	andeq	r0, r0, r3, ror #2
    3b08:	0000ae16 	andeq	sl, r0, r6, lsl lr
    3b0c:	c0170000 	andsgt	r0, r7, r0
    3b10:	0400000b 	streq	r0, [r0], #-11
    3b14:	00016e22 	andeq	r6, r1, r2, lsr #28
    3b18:	54040800 	strpl	r0, [r4], #-2048	; 0x800
    3b1c:	18000001 	stmdane	r0, {r0}
    3b20:	00000b65 	andeq	r0, r0, r5, ror #22
    3b24:	00540205 	subseq	r0, r4, r5, lsl #4
    3b28:	a1160000 	tstge	r6, r0
    3b2c:	16000000 	strne	r0, [r0], -r0
    3b30:	00000054 	andeq	r0, r0, r4, asr r0
    3b34:	0000ae16 	andeq	sl, r0, r6, lsl lr
    3b38:	00491600 	subeq	r1, r9, r0, lsl #12
    3b3c:	00000000 	andeq	r0, r0, r0
    3b40:	00000113 	andeq	r0, r0, r3, lsl r1
    3b44:	0a0b0004 	beq	2c3b5c <__bss_end__+0x2b77d4>
    3b48:	01040000 	mrseq	r0, (UNDEF: 4)
    3b4c:	000003aa 	andeq	r0, r0, sl, lsr #7
    3b50:	000b8f01 	andeq	r8, fp, r1, lsl #30
    3b54:	000af600 	andeq	pc, sl, r0, lsl #12
    3b58:	0097d800 	addseq	sp, r7, r0, lsl #16
    3b5c:	00003c00 	andeq	r3, r0, r0, lsl #24
    3b60:	0009a300 	andeq	sl, r9, r0, lsl #6
    3b64:	05040200 	streq	r0, [r4, #-512]	; 0x200
    3b68:	00746e69 	rsbseq	r6, r4, r9, ror #28
    3b6c:	92070403 	andls	r0, r7, #50331648	; 0x3000000
    3b70:	03000000 	movweq	r0, #0
    3b74:	03020601 	movweq	r0, #9729	; 0x2601
    3b78:	02030000 	andeq	r0, r3, #0
    3b7c:	00032e05 	andeq	r2, r3, r5, lsl #28
    3b80:	05040300 	streq	r0, [r4, #-768]	; 0x300
    3b84:	000000b8 	strheq	r0, [r0], -r8
    3b88:	b3050803 	movwlt	r0, #22531	; 0x5803
    3b8c:	03000000 	movweq	r0, #0
    3b90:	03000801 	movweq	r0, #2049	; 0x801
    3b94:	02030000 	andeq	r0, r3, #0
    3b98:	0001e207 	andeq	lr, r1, r7, lsl #4
    3b9c:	07040300 	streq	r0, [r4, -r0, lsl #6]
    3ba0:	0000008d 	andeq	r0, r0, sp, lsl #1
    3ba4:	88070803 	stmdahi	r7, {r0, r1, fp}
    3ba8:	03000000 	movweq	r0, #0
    3bac:	02860704 	addeq	r0, r6, #4, 14	; 0x100000
    3bb0:	01030000 	mrseq	r0, (UNDEF: 3)
    3bb4:	00030908 	andeq	r0, r3, r8, lsl #18
    3bb8:	0b7e0400 	bleq	1f84bc0 <__bss_end__+0x1f78838>
    3bbc:	03010000 	movweq	r0, #4096	; 0x1000
    3bc0:	00000025 	andeq	r0, r0, r5, lsr #32
    3bc4:	000097d8 	ldrdeq	r9, [r0], -r8
    3bc8:	00000014 	andeq	r0, r0, r4, lsl r0
    3bcc:	00b09c01 	adcseq	r9, r0, r1, lsl #24
    3bd0:	63050000 	movwvs	r0, #20480	; 0x5000
    3bd4:	25030100 	strcs	r0, [r3, #-256]	; 0x100
    3bd8:	67000000 	strvs	r0, [r0, -r0]
    3bdc:	06000010 			; <UNDEFINED> instruction: 0x06000010
    3be0:	000097e4 	andeq	r9, r0, r4, ror #15
    3be4:	00000109 	andeq	r0, r0, r9, lsl #2
    3be8:	02500107 	subseq	r0, r0, #-1073741823	; 0xc0000001
    3bec:	00000074 	andeq	r0, r0, r4, ror r0
    3bf0:	00019c08 	andeq	r9, r1, r8, lsl #24
    3bf4:	ec080100 	stfs	f0, [r8], {-0}
    3bf8:	18000097 	stmdane	r0, {r0, r1, r2, r4, r7}
    3bfc:	01000000 	mrseq	r0, (UNDEF: 0)
    3c00:	0b9e099c 	bleq	fe786278 <__bss_end__+0xfe779ef0>
    3c04:	0b010000 	bleq	43c0c <__bss_end__+0x37884>
    3c08:	00009804 	andeq	r9, r0, r4, lsl #16
    3c0c:	00000010 	andeq	r0, r0, r0, lsl r0
    3c10:	00e39c01 	rsceq	r9, r3, r1, lsl #24
    3c14:	660a0000 	strvs	r0, [sl], -r0
    3c18:	0b010070 	bleq	43de0 <__bss_end__+0x37a58>
    3c1c:	000000f2 	strdeq	r0, [r0], -r2
    3c20:	0b005001 	bleq	17c2c <__bss_end__+0xb8a4>
    3c24:	00000025 	andeq	r0, r0, r5, lsr #32
    3c28:	000000f2 	strdeq	r0, [r0], -r2
    3c2c:	0000250c 	andeq	r2, r0, ip, lsl #10
    3c30:	040d0000 	streq	r0, [sp], #-0
    3c34:	000000e3 	andeq	r0, r0, r3, ror #1
    3c38:	0007710e 	andeq	r7, r7, lr, lsl #2
    3c3c:	f2060100 	vrhadd.s8	d0, d6, d0
    3c40:	05000000 	streq	r0, [r0, #-0]
    3c44:	00aec403 	adceq	ip, lr, r3, lsl #8
    3c48:	0cee0f00 	stcleq	15, cr0, [lr]
    3c4c:	3c020000 	stccc	0, cr0, [r2], {-0}
    3c50:	00002c0c 	andeq	r2, r0, ip, lsl #24
    3c54:	ee000000 	cdp	0, 0, cr0, cr0, cr0, {0}
    3c58:	04000000 	streq	r0, [r0], #-0
    3c5c:	000af300 	andeq	pc, sl, r0, lsl #6
    3c60:	aa010400 	bge	44c68 <__bss_end__+0x388e0>
    3c64:	01000003 	tsteq	r0, r3
    3c68:	00000bab 	andeq	r0, r0, fp, lsr #23
    3c6c:	00000af6 	strdeq	r0, [r0], -r6
    3c70:	00009814 	andeq	r9, r0, r4, lsl r8
    3c74:	00000034 	andeq	r0, r0, r4, lsr r0
    3c78:	00000a31 	andeq	r0, r0, r1, lsr sl
    3c7c:	69050402 	stmdbvs	r5, {r1, sl}
    3c80:	0300746e 	movweq	r7, #1134	; 0x46e
    3c84:	00920704 	addseq	r0, r2, r4, lsl #14
    3c88:	01030000 	mrseq	r0, (UNDEF: 3)
    3c8c:	00030206 	andeq	r0, r3, r6, lsl #4
    3c90:	05020300 	streq	r0, [r2, #-768]	; 0x300
    3c94:	0000032e 	andeq	r0, r0, lr, lsr #6
    3c98:	b8050403 	stmdalt	r5, {r0, r1, sl}
    3c9c:	03000000 	movweq	r0, #0
    3ca0:	00b30508 	adcseq	r0, r3, r8, lsl #10
    3ca4:	01030000 	mrseq	r0, (UNDEF: 3)
    3ca8:	00030008 	andeq	r0, r3, r8
    3cac:	07020300 	streq	r0, [r2, -r0, lsl #6]
    3cb0:	000001e2 	andeq	r0, r0, r2, ror #3
    3cb4:	8d070403 	cfstrshi	mvf0, [r7, #-12]
    3cb8:	03000000 	movweq	r0, #0
    3cbc:	00880708 	addeq	r0, r8, r8, lsl #14
    3cc0:	04030000 	streq	r0, [r3], #-0
    3cc4:	00028607 	andeq	r8, r2, r7, lsl #12
    3cc8:	08010300 	stmdaeq	r1, {r8, r9}
    3ccc:	00000309 	andeq	r0, r0, r9, lsl #6
    3cd0:	007f0404 	rsbseq	r0, pc, r4, lsl #8
    3cd4:	72050000 	andvc	r0, r5, #0
    3cd8:	06000000 	streq	r0, [r0], -r0
    3cdc:	00000bb7 			; <UNDEFINED> instruction: 0x00000bb7
    3ce0:	00250401 	eoreq	r0, r5, r1, lsl #8
    3ce4:	98140000 	ldmdals	r4, {}	; <UNPREDICTABLE>
    3ce8:	00340000 	eorseq	r0, r4, r0
    3cec:	9c010000 	stcls	0, cr0, [r1], {-0}
    3cf0:	000000ab 	andeq	r0, r0, fp, lsr #1
    3cf4:	01007007 	tsteq	r0, r7
    3cf8:	00007904 	andeq	r7, r0, r4, lsl #18
    3cfc:	00108500 	andseq	r8, r0, r0, lsl #10
    3d00:	25080000 	strcs	r0, [r8, #-0]
    3d04:	ba000000 	blt	3d0c <_start-0x42f4>
    3d08:	09000000 	stmdbeq	r0, {}	; <UNPREDICTABLE>
    3d0c:	00000025 	andeq	r0, r0, r5, lsr #32
    3d10:	07710a00 	ldrbeq	r0, [r1, -r0, lsl #20]!
    3d14:	1d020000 	stcne	0, cr0, [r2, #-0]
    3d18:	000000c5 	andeq	r0, r0, r5, asr #1
    3d1c:	00ab0404 	adceq	r0, fp, r4, lsl #8
    3d20:	25080000 	strcs	r0, [r8, #-0]
    3d24:	da000000 	ble	3d2c <_start-0x42d4>
    3d28:	09000000 	stmdbeq	r0, {}	; <UNPREDICTABLE>
    3d2c:	00000079 	andeq	r0, r0, r9, ror r0
    3d30:	0bc00b00 	bleq	ff006938 <__bss_end__+0xfeffa5b0>
    3d34:	0c010000 	stceq	0, cr0, [r1], {-0}
    3d38:	000000eb 	andeq	r0, r0, fp, ror #1
    3d3c:	aec80305 	cdpge	3, 12, cr0, cr8, cr5, {0}
    3d40:	04040000 	streq	r0, [r4], #-0
    3d44:	000000cb 	andeq	r0, r0, fp, asr #1
    3d48:	00068100 	andeq	r8, r6, r0, lsl #2
    3d4c:	8c000400 	cfstrshi	mvf0, [r0], {-0}
    3d50:	0400000b 	streq	r0, [r0], #-11
    3d54:	0003aa01 	andeq	sl, r3, r1, lsl #20
    3d58:	0bec0100 	bleq	ffb04160 <__bss_end__+0xffaf7dd8>
    3d5c:	0af60000 	beq	ffd83d64 <__bss_end__+0xffd779dc>
    3d60:	98480000 	stmdals	r8, {}^	; <UNPREDICTABLE>
    3d64:	04f80000 	ldrbteq	r0, [r8], #0
    3d68:	0acb0000 	beq	ff2c3d70 <__bss_end__+0xff2b79e8>
    3d6c:	04020000 	streq	r0, [r2], #-0
    3d70:	746e6905 	strbtvc	r6, [lr], #-2309	; 0x905
    3d74:	07040300 	streq	r0, [r4, -r0, lsl #6]
    3d78:	00000092 	muleq	r0, r2, r0
    3d7c:	02060103 	andeq	r0, r6, #-1073741824	; 0xc0000000
    3d80:	03000003 	movweq	r0, #3
    3d84:	032e0502 	teqeq	lr, #8388608	; 0x800000
    3d88:	04030000 	streq	r0, [r3], #-0
    3d8c:	0000b805 	andeq	fp, r0, r5, lsl #16
    3d90:	05080300 	streq	r0, [r8, #-768]	; 0x300
    3d94:	000000b3 	strheq	r0, [r0], -r3
    3d98:	00080103 	andeq	r0, r8, r3, lsl #2
    3d9c:	03000003 	movweq	r0, #3
    3da0:	01e20702 	mvneq	r0, r2, lsl #14
    3da4:	04030000 	streq	r0, [r3], #-0
    3da8:	00008d07 	andeq	r8, r0, r7, lsl #26
    3dac:	07080300 	streq	r0, [r8, -r0, lsl #6]
    3db0:	00000088 	andeq	r0, r0, r8, lsl #1
    3db4:	86070403 	strhi	r0, [r7], -r3, lsl #8
    3db8:	04000002 	streq	r0, [r0], #-2
    3dbc:	7a040504 	bvc	1051d4 <__bss_end__+0xf8e4c>
    3dc0:	03000000 	movweq	r0, #0
    3dc4:	03090801 	movweq	r0, #38913	; 0x9801
    3dc8:	04050000 	streq	r0, [r5], #-0
    3dcc:	00000087 	andeq	r0, r0, r7, lsl #1
    3dd0:	00007a06 	andeq	r7, r0, r6, lsl #20
    3dd4:	0b480700 	bleq	12059dc <__bss_end__+0x11f9654>
    3dd8:	28020000 	stmdacs	r2, {}	; <UNPREDICTABLE>
    3ddc:	00000097 	muleq	r0, r7, r0
    3de0:	000b6f08 	andeq	r6, fp, r8, lsl #30
    3de4:	00040400 	andeq	r0, r4, r0, lsl #8
    3de8:	000000ae 	andeq	r0, r0, lr, lsr #1
    3dec:	000b7909 	andeq	r7, fp, r9, lsl #18
    3df0:	00007200 	andeq	r7, r0, r0, lsl #4
    3df4:	07000000 	streq	r0, [r0, -r0]
    3df8:	00000b71 	andeq	r0, r0, r1, ror fp
    3dfc:	008c6202 	addeq	r6, ip, r2, lsl #4
    3e00:	d30a0000 	movwle	r0, #40960	; 0xa000
    3e04:	0100000b 	tsteq	r0, fp
    3e08:	00002527 	andeq	r2, r0, r7, lsr #10
    3e0c:	00984800 	addseq	r4, r8, r0, lsl #16
    3e10:	00001400 	andeq	r1, r0, r0, lsl #8
    3e14:	e09c0100 	adds	r0, ip, r0, lsl #2
    3e18:	0b000000 	bleq	3e20 <_start-0x41e0>
    3e1c:	27010063 	strcs	r0, [r1, -r3, rrx]
    3e20:	00000025 	andeq	r0, r0, r5, lsr #32
    3e24:	000010a3 	andeq	r1, r0, r3, lsr #1
    3e28:	61700c00 	cmnvs	r0, r0, lsl #24
    3e2c:	2e010064 	cdpcs	0, 0, cr0, cr1, cr4, {3}
    3e30:	00000074 	andeq	r0, r0, r4, ror r0
    3e34:	0000985c 	andeq	r9, r0, ip, asr r8
    3e38:	0000002c 	andeq	r0, r0, ip, lsr #32
    3e3c:	01309c01 	teqeq	r0, r1, lsl #24
    3e40:	700b0000 	andvc	r0, fp, r0
    3e44:	742e0100 	strtvc	r0, [lr], #-256	; 0x100
    3e48:	d1000000 	mrsle	r0, (UNDEF: 0)
    3e4c:	0d000010 	stceq	0, cr0, [r0, #-64]	; 0xffffffc0
    3e50:	0000068e 	andeq	r0, r0, lr, lsl #13
    3e54:	00742e01 	rsbseq	r2, r4, r1, lsl #28
    3e58:	10fc0000 	rscsne	r0, ip, r0
    3e5c:	0c0e0000 	stceq	0, cr0, [lr], {-0}
    3e60:	0100000c 	tsteq	r0, ip
    3e64:	0000252e 	andeq	r2, r0, lr, lsr #10
    3e68:	0f520100 	svceq	0x00520100
    3e6c:	006e656c 	rsbeq	r6, lr, ip, ror #10
    3e70:	00252f01 	eoreq	r2, r5, r1, lsl #30
    3e74:	51010000 	mrspl	r0, (UNDEF: 1)
    3e78:	0bcb0a00 	bleq	ff2c6680 <__bss_end__+0xff2ba2f8>
    3e7c:	37010000 	strcc	r0, [r1, -r0]
    3e80:	00000074 	andeq	r0, r0, r4, ror r0
    3e84:	00009888 	andeq	r9, r0, r8, lsl #17
    3e88:	00000040 	andeq	r0, r0, r0, asr #32
    3e8c:	019c9c01 	orrseq	r9, ip, r1, lsl #24
    3e90:	640b0000 	strvs	r0, [fp], #-0
    3e94:	01007473 	tsteq	r0, r3, ror r4
    3e98:	00007437 	andeq	r7, r0, r7, lsr r4
    3e9c:	00111d00 	andseq	r1, r1, r0, lsl #26
    3ea0:	006e0b00 	rsbeq	r0, lr, r0, lsl #22
    3ea4:	00253701 	eoreq	r3, r5, r1, lsl #14
    3ea8:	11550000 	cmpne	r5, r0
    3eac:	700b0000 	andvc	r0, fp, r0
    3eb0:	74370100 	ldrtvc	r0, [r7], #-256	; 0x100
    3eb4:	76000000 	strvc	r0, [r0], -r0
    3eb8:	0d000011 	stceq	0, cr0, [r0, #-68]	; 0xffffffbc
    3ebc:	00000cda 	ldrdeq	r0, [r0], -sl
    3ec0:	00743701 	rsbseq	r3, r4, r1, lsl #14
    3ec4:	11ac0000 			; <UNDEFINED> instruction: 0x11ac0000
    3ec8:	6c100000 	ldcvs	0, cr0, [r0], {-0}
    3ecc:	01006e65 	tsteq	r0, r5, ror #28
    3ed0:	00002539 	andeq	r2, r0, r9, lsr r5
    3ed4:	0011ca00 	andseq	ip, r1, r0, lsl #20
    3ed8:	00730f00 	rsbseq	r0, r3, r0, lsl #30
    3edc:	00743d01 	rsbseq	r3, r4, r1, lsl #26
    3ee0:	50010000 	andpl	r0, r1, r0
    3ee4:	0c1a0a00 	ldceq	10, cr0, [sl], {-0}
    3ee8:	47010000 	strmi	r0, [r1, -r0]
    3eec:	00000074 	andeq	r0, r0, r4, ror r0
    3ef0:	000098c8 	andeq	r9, r0, r8, asr #17
    3ef4:	0000019c 	muleq	r0, ip, r1
    3ef8:	02d39c01 	sbcseq	r9, r3, #256	; 0x100
    3efc:	8e0d0000 	cdphi	0, 0, cr0, cr13, cr0, {0}
    3f00:	01000006 	tsteq	r0, r6
    3f04:	00002c47 	andeq	r2, r0, r7, asr #24
    3f08:	0011f100 	andseq	pc, r1, r0, lsl #2
    3f0c:	73640b00 	cmnvc	r4, #0, 22
    3f10:	47010074 	smlsdxmi	r1, r4, r0, r0
    3f14:	00000074 	andeq	r0, r0, r4, ror r0
    3f18:	0000121f 	andeq	r1, r0, pc, lsl r2
    3f1c:	01006e0b 	tsteq	r0, fp, lsl #28
    3f20:	00002547 	andeq	r2, r0, r7, asr #10
    3f24:	00128d00 	andseq	r8, r2, r0, lsl #26
    3f28:	61760b00 	cmnvs	r6, r0, lsl #22
    3f2c:	4701006c 	strmi	r0, [r1, -ip, rrx]
    3f30:	00000025 	andeq	r0, r0, r5, lsr #32
    3f34:	000012b9 			; <UNDEFINED> instruction: 0x000012b9
    3f38:	000c0c0d 	andeq	r0, ip, sp, lsl #24
    3f3c:	25470100 	strbcs	r0, [r7, #-256]	; 0x100
    3f40:	38000000 	stmdacc	r0, {}	; <UNPREDICTABLE>
    3f44:	0e000013 	mcreq	0, 0, r0, cr0, cr3, {0}
    3f48:	00000be3 	andeq	r0, r0, r3, ror #23
    3f4c:	00254701 	eoreq	r4, r5, r1, lsl #14
    3f50:	91020000 	mrsls	r0, (UNDEF: 2)
    3f54:	75620f04 	strbvc	r0, [r2, #-3844]!	; 0xf04
    3f58:	4c010066 	stcmi	0, cr0, [r1], {102}	; 0x66
    3f5c:	000002d3 	ldrdeq	r0, [r0], -r3
    3f60:	7fa89103 	svcvc	0x00a89103
    3f64:	01007010 	tsteq	r0, r0, lsl r0
    3f68:	0000744c 	andeq	r7, r0, ip, asr #8
    3f6c:	00136200 	andseq	r6, r3, r0, lsl #4
    3f70:	00751000 	rsbseq	r1, r5, r0
    3f74:	002c4d01 	eoreq	r4, ip, r1, lsl #26
    3f78:	14070000 	strne	r0, [r7], #-0
    3f7c:	bf110000 	svclt	0x00110000
    3f80:	f3000001 	vhadd.u8	d0, d0, d1
    3f84:	05000002 	streq	r0, [r0, #-2]
    3f88:	00bbc803 	adcseq	ip, fp, r3, lsl #16
    3f8c:	99341200 	ldmdbls	r4!, {r9, ip}
    3f90:	00740000 	rsbseq	r0, r4, r0
    3f94:	02610000 	rsbeq	r0, r1, #0
    3f98:	c5130000 	ldrgt	r0, [r3, #-0]
    3f9c:	0100000b 	tsteq	r0, fp
    3fa0:	00002c52 	andeq	r2, r0, r2, asr ip
    3fa4:	00150c00 	andseq	r0, r5, r0, lsl #24
    3fa8:	08140000 	ldmdaeq	r4, {}	; <UNPREDICTABLE>
    3fac:	6000009a 	mulvs	r0, sl, r0
    3fb0:	15000006 	strne	r0, [r0, #-6]
    3fb4:	00009a1c 	andeq	r9, r0, ip, lsl sl
    3fb8:	00000667 	andeq	r0, r0, r7, ror #12
    3fbc:	00000299 	muleq	r0, r9, r2
    3fc0:	02530116 	subseq	r0, r3, #-2147483643	; 0x80000005
    3fc4:	01167508 	tsteq	r6, r8, lsl #10
    3fc8:	c8030552 	stmdagt	r3, {r1, r4, r6, r8, sl}
    3fcc:	160000bb 			; <UNDEFINED> instruction: 0x160000bb
    3fd0:	03055101 	movweq	r5, #20737	; 0x5101
    3fd4:	0000bc00 	andeq	fp, r0, r0, lsl #24
    3fd8:	05500116 	ldrbeq	r0, [r0, #-278]	; 0x116
    3fdc:	00bbec03 	adcseq	lr, fp, r3, lsl #24
    3fe0:	20140000 	andscs	r0, r4, r0
    3fe4:	7d00009a 	stcvc	0, cr0, [r0, #-616]	; 0xfffffd98
    3fe8:	15000006 	strne	r0, [r0, #-6]
    3fec:	00009a2c 	andeq	r9, r0, ip, lsr #20
    3ff0:	000000e0 	andeq	r0, r0, r0, ror #1
    3ff4:	000002b6 			; <UNDEFINED> instruction: 0x000002b6
    3ff8:	02510116 	subseq	r0, r1, #-2147483643	; 0x80000005
    3ffc:	1700007d 	smlsdxne	r0, sp, r0, r0
    4000:	00009a40 	andeq	r9, r0, r0, asr #20
    4004:	00000130 	andeq	r0, r0, r0, lsr r1
    4008:	02530116 	subseq	r0, r3, #-2147483643	; 0x80000005
    400c:	0116007d 	tsteq	r6, sp, ror r0
    4010:	00740251 	rsbseq	r0, r4, r1, asr r2
    4014:	02500116 	subseq	r0, r0, #-2147483643	; 0x80000005
    4018:	00000075 	andeq	r0, r0, r5, ror r0
    401c:	00007a18 	andeq	r7, r0, r8, lsl sl
    4020:	0002e300 	andeq	lr, r2, r0, lsl #6
    4024:	006b1900 	rsbeq	r1, fp, r0, lsl #18
    4028:	003f0000 	eorseq	r0, pc, r0
    402c:	00007a18 	andeq	r7, r0, r8, lsl sl
    4030:	0002f300 	andeq	pc, r2, r0, lsl #6
    4034:	006b1900 	rsbeq	r1, fp, r0, lsl #18
    4038:	00040000 	andeq	r0, r4, r0
    403c:	0002e306 	andeq	lr, r2, r6, lsl #6
    4040:	0bfd1a00 	bleq	fff4a848 <__bss_end__+0xfff3e4c0>
    4044:	1f010000 	svcne	0x00010000
    4048:	00009a64 	andeq	r9, r0, r4, ror #20
    404c:	00000054 	andeq	r0, r0, r4, asr r0
    4050:	037c9c01 	cmneq	ip, #256	; 0x100
    4054:	120d0000 	andne	r0, sp, #0
    4058:	0100000c 	tsteq	r0, ip
    405c:	00038b1f 	andeq	r8, r3, pc, lsl fp
    4060:	00153800 	andseq	r3, r5, r0, lsl #16
    4064:	0bdb0d00 	bleq	ff6c746c <__bss_end__+0xff6bb0e4>
    4068:	1f010000 	svcne	0x00010000
    406c:	000003a0 	andeq	r0, r0, r0, lsr #7
    4070:	00001564 	andeq	r1, r0, r4, ror #10
    4074:	0001bf11 	andeq	fp, r1, r1, lsl pc
    4078:	0003b600 	andeq	fp, r3, r0, lsl #12
    407c:	d0030500 	andle	r0, r3, r0, lsl #10
    4080:	140000bb 	strne	r0, [r0], #-187	; 0xbb
    4084:	00009a74 	andeq	r9, r0, r4, ror sl
    4088:	00000660 	andeq	r0, r0, r0, ror #12
    408c:	009a8815 	addseq	r8, sl, r5, lsl r8
    4090:	00066700 	andeq	r6, r6, r0, lsl #14
    4094:	00037200 	andeq	r7, r3, r0, lsl #4
    4098:	53011600 	movwpl	r1, #5632	; 0x1600
    409c:	16200802 	strtne	r0, [r0], -r2, lsl #16
    40a0:	03055201 	movweq	r5, #20993	; 0x5201
    40a4:	0000bbd0 	ldrdeq	fp, [r0], -r0
    40a8:	05510116 	ldrbeq	r0, [r1, #-278]	; 0x116
    40ac:	00bc0003 	adcseq	r0, ip, r3
    40b0:	50011600 	andpl	r1, r1, r0, lsl #12
    40b4:	bc380305 	ldclt	3, cr0, [r8], #-20	; 0xffffffec
    40b8:	14000000 	strne	r0, [r0], #-0
    40bc:	00009a8c 	andeq	r9, r0, ip, lsl #21
    40c0:	0000067d 	andeq	r0, r0, sp, ror r6
    40c4:	00251b00 	eoreq	r1, r5, r0, lsl #22
    40c8:	038b0000 	orreq	r0, fp, #0
    40cc:	251c0000 	ldrcs	r0, [ip, #-0]
    40d0:	00000000 	andeq	r0, r0, r0
    40d4:	037c0405 	cmneq	ip, #83886080	; 0x5000000
    40d8:	251b0000 	ldrcs	r0, [fp, #-0]
    40dc:	a0000000 	andge	r0, r0, r0
    40e0:	1c000003 	stcne	0, cr0, [r0], {3}
    40e4:	00000081 	andeq	r0, r0, r1, lsl #1
    40e8:	91040500 	tstls	r4, r0, lsl #10
    40ec:	18000003 	stmdane	r0, {r0, r1}
    40f0:	0000007a 	andeq	r0, r0, sl, ror r0
    40f4:	000003b6 			; <UNDEFINED> instruction: 0x000003b6
    40f8:	00006b19 	andeq	r6, r0, r9, lsl fp
    40fc:	06000e00 	streq	r0, [r0], -r0, lsl #28
    4100:	000003a6 	andeq	r0, r0, r6, lsr #7
    4104:	000b651d 	andeq	r6, fp, sp, lsl r5
    4108:	257d0100 	ldrbcs	r0, [sp, #-256]!	; 0x100
    410c:	b8000000 	stmdalt	r0, {}	; <UNPREDICTABLE>
    4110:	8800009a 	stmdahi	r0, {r1, r3, r4, r7}
    4114:	01000002 	tsteq	r0, r2
    4118:	0006259c 	muleq	r6, ip, r5
    411c:	75620b00 	strbvc	r0, [r2, #-2816]!	; 0xb00
    4120:	7d010066 	stcvc	0, cr0, [r1, #-408]	; 0xfffffe68
    4124:	00000074 	andeq	r0, r0, r4, ror r0
    4128:	00001590 	muleq	r0, r0, r5
    412c:	01006e0b 	tsteq	r0, fp, lsl #28
    4130:	0000257d 	andeq	r2, r0, sp, ror r5
    4134:	0015bc00 	andseq	fp, r5, r0, lsl #24
    4138:	6d660b00 	vstmdbvs	r6!, {d16-d15}
    413c:	7d010074 	stcvc	0, cr0, [r1, #-464]	; 0xfffffe30
    4140:	00000081 	andeq	r0, r0, r1, lsl #1
    4144:	000015ea 	andeq	r1, r0, sl, ror #11
    4148:	0006ab0d 	andeq	sl, r6, sp, lsl #22
    414c:	ae7d0100 	rpwgee	f0, f5, f0
    4150:	1e000000 	cdpne	0, 0, cr0, cr0, cr0, {0}
    4154:	10000016 	andne	r0, r0, r6, lsl r0
    4158:	7e010070 	mcrvc	0, 0, r0, cr1, cr0, {3}
    415c:	00000074 	andeq	r0, r0, r4, ror r0
    4160:	00001631 	andeq	r1, r0, r1, lsr r6
    4164:	01006510 	tsteq	r0, r0, lsl r5
    4168:	0000747e 	andeq	r7, r0, lr, ror r4
    416c:	0016af00 	andseq	sl, r6, r0, lsl #30
    4170:	01bf1100 			; <UNDEFINED> instruction: 0x01bf1100
    4174:	06350000 	ldrteq	r0, [r5], -r0
    4178:	03050000 	movweq	r0, #20480	; 0x5000
    417c:	0000bbe0 	andeq	fp, r0, r0, ror #23
    4180:	0000301e 	andeq	r3, r0, lr, lsl r0
    4184:	00731000 	rsbseq	r1, r3, r0
    4188:	00748b01 	rsbseq	r8, r4, r1, lsl #22
    418c:	16d60000 	ldrbne	r0, [r6], r0
    4190:	6e0f0000 	cdpvs	0, 0, cr0, cr15, cr0, {0}
    4194:	01006d75 	tsteq	r0, r5, ror sp
    4198:	00063a8b 	andeq	r3, r6, fp, lsl #21
    419c:	d8910300 	ldmle	r1, {r8, r9}
    41a0:	0c0c137e 	stceq	3, cr1, [ip], {126}	; 0x7e
    41a4:	8c010000 	stchi	0, cr0, [r1], {-0}
    41a8:	0000002c 	andeq	r0, r0, ip, lsr #32
    41ac:	0000172b 	andeq	r1, r0, fp, lsr #14
    41b0:	009b3c15 	addseq	r3, fp, r5, lsl ip
    41b4:	0000b900 	andeq	fp, r0, r0, lsl #18
    41b8:	00047b00 	andeq	r7, r4, r0, lsl #22
    41bc:	50011600 	andpl	r1, r1, r0, lsl #12
    41c0:	00007502 	andeq	r7, r0, r2, lsl #10
    41c4:	009b5014 	addseq	r5, fp, r4, lsl r0
    41c8:	00066000 	andeq	r6, r6, r0
    41cc:	9b641500 	blls	19095d4 <__bss_end__+0x18fd24c>
    41d0:	06670000 	strbteq	r0, [r7], -r0
    41d4:	04b30000 	ldrteq	r0, [r3], #0
    41d8:	01160000 	tsteq	r6, r0
    41dc:	92080253 	andls	r0, r8, #805306373	; 0x30000005
    41e0:	05520116 	ldrbeq	r0, [r2, #-278]	; 0x116
    41e4:	00bbe003 	adcseq	lr, fp, r3
    41e8:	51011600 	tstpl	r1, r0, lsl #12
    41ec:	bc000305 	stclt	3, cr0, [r0], {5}
    41f0:	01160000 	tsteq	r6, r0
    41f4:	50030550 	andpl	r0, r3, r0, asr r5
    41f8:	000000bc 	strheq	r0, [r0], -ip
    41fc:	009b6814 	addseq	r6, fp, r4, lsl r8
    4200:	00067d00 	andeq	r7, r6, r0, lsl #26
    4204:	9bd81400 	blls	ff60920c <__bss_end__+0xff5fce84>
    4208:	06600000 	strbteq	r0, [r0], -r0
    420c:	ec150000 	ldc	0, cr0, [r5], {-0}
    4210:	6700009b 			; <UNDEFINED> instruction: 0x6700009b
    4214:	f4000006 	vst4.8	{d0-d3}, [r0], r6
    4218:	16000004 	strne	r0, [r0], -r4
    421c:	08025301 	stmdaeq	r2, {r0, r8, r9, ip, lr}
    4220:	52011698 	andpl	r1, r1, #152, 12	; 0x9800000
    4224:	bbe00305 	bllt	ff804e40 <__bss_end__+0xff7f8ab8>
    4228:	01160000 	tsteq	r6, r0
    422c:	00030551 	andeq	r0, r3, r1, asr r5
    4230:	160000bc 			; <UNDEFINED> instruction: 0x160000bc
    4234:	03055001 	movweq	r5, #20481	; 0x5001
    4238:	0000bc6c 	andeq	fp, r0, ip, ror #24
    423c:	9bf01400 	blls	ffc09244 <__bss_end__+0xffbfcebc>
    4240:	067d0000 	ldrbteq	r0, [sp], -r0
    4244:	14150000 	ldrne	r0, [r5], #-0
    4248:	9c00009c 	stcls	0, cr0, [r0], {156}	; 0x9c
    424c:	2a000001 	bcs	4258 <_start-0x3da8>
    4250:	16000005 	strne	r0, [r0], -r5
    4254:	08025201 	stmdaeq	r2, {r0, r9, ip, lr}
    4258:	51011680 	smlabbpl	r1, r0, r6, r1
    425c:	7ed09103 	atnvcs	f1, f3
    4260:	01500116 	cmpeq	r0, r6, lsl r1
    4264:	7d02163a 	stcvc	6, cr1, [r2, #-232]	; 0xffffff18
    4268:	16310104 	ldrtne	r0, [r1], -r4, lsl #2
    426c:	02007d02 	andeq	r7, r0, #2, 26	; 0x80
    4270:	15000077 	strne	r0, [r0, #-119]	; 0x77
    4274:	00009c38 	andeq	r9, r0, r8, lsr ip
    4278:	0000019c 	muleq	r0, ip, r1
    427c:	00000558 	andeq	r0, r0, r8, asr r5
    4280:	02520116 	subseq	r0, r2, #-2147483643	; 0x80000005
    4284:	01168008 	tsteq	r6, r8
    4288:	d0910351 	addsle	r0, r1, r1, asr r3
    428c:	5001167e 	andpl	r1, r1, lr, ror r6
    4290:	02163a01 	andseq	r3, r6, #4096	; 0x1000
    4294:	7b02047d 	blvc	85490 <__bss_end__+0x79108>
    4298:	7d021600 	stcvc	6, cr1, [r2, #-0]
    429c:	00770200 	rsbseq	r0, r7, r0, lsl #4
    42a0:	9c5c1500 	cfldr64ls	mvdx1, [ip], {-0}
    42a4:	019c0000 	orrseq	r0, ip, r0
    42a8:	05860000 	streq	r0, [r6]
    42ac:	01160000 	tsteq	r6, r0
    42b0:	80080252 	andhi	r0, r8, r2, asr r2
    42b4:	03510116 	cmpeq	r1, #-2147483643	; 0x80000005
    42b8:	167ed091 			; <UNDEFINED> instruction: 0x167ed091
    42bc:	40015001 	andmi	r5, r1, r1
    42c0:	047d0216 	ldrbteq	r0, [sp], #-534	; 0x216
    42c4:	16007b02 	strne	r7, [r0], -r2, lsl #22
    42c8:	02007d02 	andeq	r7, r0, #2, 26	; 0x80
    42cc:	15000077 	strne	r0, [r0, #-119]	; 0x77
    42d0:	00009c80 	andeq	r9, r0, r0, lsl #25
    42d4:	0000019c 	muleq	r0, ip, r1
    42d8:	000005b4 			; <UNDEFINED> instruction: 0x000005b4
    42dc:	02520116 	subseq	r0, r2, #-2147483643	; 0x80000005
    42e0:	01168008 	tsteq	r6, r8
    42e4:	d0910351 	addsle	r0, r1, r1, asr r3
    42e8:	5001167e 	andpl	r1, r1, lr, ror r6
    42ec:	02163201 	andseq	r3, r6, #268435456	; 0x10000000
    42f0:	7b02047d 	blvc	854ec <__bss_end__+0x79164>
    42f4:	7d021600 	stcvc	6, cr1, [r2, #-0]
    42f8:	00770200 	rsbseq	r0, r7, r0, lsl #4
    42fc:	9cb01500 	cfldr32ls	mvfx1, [r0]
    4300:	019c0000 	orrseq	r0, ip, r0
    4304:	05e20000 	strbeq	r0, [r2, #0]!
    4308:	01160000 	tsteq	r6, r0
    430c:	80080252 	andhi	r0, r8, r2, asr r2
    4310:	03510116 	cmpeq	r1, #-2147483643	; 0x80000005
    4314:	167ed091 			; <UNDEFINED> instruction: 0x167ed091
    4318:	38015001 	stmdacc	r1, {r0, ip, lr}
    431c:	047d0216 	ldrbteq	r0, [sp], #-534	; 0x216
    4320:	16007b02 	strne	r7, [r0], -r2, lsl #22
    4324:	02007d02 	andeq	r7, r0, #2, 26	; 0x80
    4328:	14000077 	strne	r0, [r0], #-119	; 0x77
    432c:	00009cb8 			; <UNDEFINED> instruction: 0x00009cb8
    4330:	00000660 	andeq	r0, r0, r0, ror #12
    4334:	009cd415 	addseq	sp, ip, r5, lsl r4
    4338:	00066700 	andeq	r6, r6, r0, lsl #14
    433c:	00061a00 	andeq	r1, r6, r0, lsl #20
    4340:	53011600 	movwpl	r1, #5632	; 0x1600
    4344:	16b90802 	ldrtne	r0, [r9], r2, lsl #16
    4348:	03055201 	movweq	r5, #20993	; 0x5201
    434c:	0000bbe0 	andeq	fp, r0, r0, ror #23
    4350:	05510116 	ldrbeq	r0, [r1, #-278]	; 0x116
    4354:	00bc0003 	adcseq	r0, ip, r3
    4358:	50011600 	andpl	r1, r1, r0, lsl #12
    435c:	bc940305 	ldclt	3, cr0, [r4], {5}
    4360:	14000000 	strne	r0, [r0], #-0
    4364:	00009cd8 	ldrdeq	r9, [r0], -r8
    4368:	0000067d 	andeq	r0, r0, sp, ror r6
    436c:	7a180000 	bvc	604374 <__bss_end__+0x5f7fec>
    4370:	35000000 	strcc	r0, [r0, #-0]
    4374:	19000006 	stmdbne	r0, {r1, r2}
    4378:	0000006b 	andeq	r0, r0, fp, rrx
    437c:	25060009 	strcs	r0, [r6, #-9]
    4380:	18000006 	stmdane	r0, {r1, r2}
    4384:	0000007a 	andeq	r0, r0, sl, ror r0
    4388:	0000064a 	andeq	r0, r0, sl, asr #12
    438c:	00006b19 	andeq	r6, r0, r9, lsl fp
    4390:	1f007f00 	svcne	0x00007f00
    4394:	00000771 	andeq	r0, r0, r1, ror r7
    4398:	038b1d03 	orreq	r1, fp, #3, 26	; 0xc0
    439c:	c01f0000 	andsgt	r0, pc, r0
    43a0:	0300000b 	movweq	r0, #11
    43a4:	0003a022 	andeq	sl, r3, r2, lsr #32
    43a8:	019c2000 	orrseq	r2, ip, r0
    43ac:	1e030000 	cdpne	0, 0, cr0, cr3, cr0, {0}
    43b0:	000b6821 	andeq	r6, fp, r1, lsr #16
    43b4:	25290300 	strcs	r0, [r9, #-768]!	; 0x300
    43b8:	7d000000 	stcvc	0, cr0, [r0, #-0]
    43bc:	1c000006 	stcne	0, cr0, [r0], {6}
    43c0:	00000081 	andeq	r0, r0, r1, lsl #1
    43c4:	72200022 	eorvc	r0, r0, #34	; 0x22
    43c8:	03000003 	movweq	r0, #3
    43cc:	00ff0066 	rscseq	r0, pc, r6, rrx
    43d0:	00040000 	andeq	r0, r4, r0
    43d4:	00000d68 	andeq	r0, r0, r8, ror #26
    43d8:	03aa0104 			; <UNDEFINED> instruction: 0x03aa0104
    43dc:	2a010000 	bcs	443e4 <__bss_end__+0x3805c>
    43e0:	f600000c 			; <UNDEFINED> instruction: 0xf600000c
    43e4:	4000000a 	andmi	r0, r0, sl
    43e8:	2800009d 	stmdacs	r0, {r0, r2, r3, r4, r7}
    43ec:	ad000000 	stcge	0, cr0, [r0, #-0]
    43f0:	0200000c 	andeq	r0, r0, #12
    43f4:	6e690504 	cdpvs	5, 6, cr0, cr9, cr4, {0}
    43f8:	04030074 	streq	r0, [r3], #-116	; 0x74
    43fc:	00009207 	andeq	r9, r0, r7, lsl #4
    4400:	06010300 	streq	r0, [r1], -r0, lsl #6
    4404:	00000302 	andeq	r0, r0, r2, lsl #6
    4408:	2e050203 	cdpcs	2, 0, cr0, cr5, cr3, {0}
    440c:	03000003 	movweq	r0, #3
    4410:	00b80504 	adcseq	r0, r8, r4, lsl #10
    4414:	08030000 	stmdaeq	r3, {}	; <UNPREDICTABLE>
    4418:	0000b305 	andeq	fp, r0, r5, lsl #6
    441c:	08010300 	stmdaeq	r1, {r8, r9}
    4420:	00000300 	andeq	r0, r0, r0, lsl #6
    4424:	e2070203 	and	r0, r7, #805306368	; 0x30000000
    4428:	03000001 	movweq	r0, #1
    442c:	008d0704 	addeq	r0, sp, r4, lsl #14
    4430:	08030000 	stmdaeq	r3, {}	; <UNPREDICTABLE>
    4434:	00008807 	andeq	r8, r0, r7, lsl #16
    4438:	07040300 	streq	r0, [r4, -r0, lsl #6]
    443c:	00000286 	andeq	r0, r0, r6, lsl #5
    4440:	09080103 	stmdbeq	r8, {r0, r1, r8}
    4444:	04000003 	streq	r0, [r0], #-3
    4448:	00007f04 	andeq	r7, r0, r4, lsl #30
    444c:	00720500 	rsbseq	r0, r2, r0, lsl #10
    4450:	72060000 	andvc	r0, r6, #0
    4454:	01000003 	tsteq	r0, r3
    4458:	009d4004 	addseq	r4, sp, r4
    445c:	00002800 	andeq	r2, r0, r0, lsl #16
    4460:	ca9c0100 	bgt	fe704868 <__bss_end__+0xfe6f84e0>
    4464:	07000000 	streq	r0, [r0, -r0]
    4468:	00009d54 	andeq	r9, r0, r4, asr sp
    446c:	000000ac 	andeq	r0, r0, ip, lsr #1
    4470:	05500108 	ldrbeq	r0, [r0, #-264]	; 0x108
    4474:	00bccc03 	adcseq	ip, ip, r3, lsl #24
    4478:	5c090000 	stcpl	0, cr0, [r9], {-0}
    447c:	ea00009d 	b	46f8 <_start-0x3908>
    4480:	c0000000 	andgt	r0, r0, r0
    4484:	08000000 	stmdaeq	r0, {}	; <UNPREDICTABLE>
    4488:	08025001 	stmdaeq	r2, {r0, ip, lr}
    448c:	600a0064 	andvs	r0, sl, r4, rrx
    4490:	fb00009d 	blx	470e <_start-0x38f2>
    4494:	00000000 	andeq	r0, r0, r0
    4498:	0000250b 	andeq	r2, r0, fp, lsl #10
    449c:	0000d900 	andeq	sp, r0, r0, lsl #18
    44a0:	00790c00 	rsbseq	r0, r9, r0, lsl #24
    44a4:	0d000000 	stceq	0, cr0, [r0, #-0]
    44a8:	00000bc0 	andeq	r0, r0, r0, asr #23
    44ac:	00e42202 	rsceq	r2, r4, r2, lsl #4
    44b0:	04040000 	streq	r0, [r4], #-0
    44b4:	000000ca 	andeq	r0, r0, sl, asr #1
    44b8:	000c440e 	andeq	r4, ip, lr, lsl #8
    44bc:	fb500200 	blx	1404cc6 <__bss_end__+0x13f893e>
    44c0:	0c000000 	stceq	0, cr0, [r0], {-0}
    44c4:	0000002c 	andeq	r0, r0, ip, lsr #32
    44c8:	0c1f0f00 	ldceq	15, cr0, [pc], {-0}
    44cc:	63020000 	movwvs	r0, #8192	; 0x2000
    44d0:	0002dd00 	andeq	sp, r2, r0, lsl #26
    44d4:	32000400 	andcc	r0, r0, #0, 8
    44d8:	0400000e 	streq	r0, [r0], #-14
    44dc:	0003aa01 	andeq	sl, r3, r1, lsl #20
    44e0:	0d270100 	stfeqs	f0, [r7, #-0]
    44e4:	0af60000 	beq	ffd844ec <__bss_end__+0xffd78164>
    44e8:	9d680000 	stclls	0, cr0, [r8, #-0]
    44ec:	00b00000 	adcseq	r0, r0, r0
    44f0:	0d440000 	stcleq	0, cr0, [r4, #-0]
    44f4:	04020000 	streq	r0, [r2], #-0
    44f8:	746e6905 	strbtvc	r6, [lr], #-2309	; 0x905
    44fc:	07040300 	streq	r0, [r4, -r0, lsl #6]
    4500:	00000092 	muleq	r0, r2, r0
    4504:	02060103 	andeq	r0, r6, #-1073741824	; 0xc0000000
    4508:	03000003 	movweq	r0, #3
    450c:	032e0502 	teqeq	lr, #8388608	; 0x800000
    4510:	04030000 	streq	r0, [r3], #-0
    4514:	0000b805 	andeq	fp, r0, r5, lsl #16
    4518:	05080300 	streq	r0, [r8, #-768]	; 0x300
    451c:	000000b3 	strheq	r0, [r0], -r3
    4520:	00046d04 	andeq	r6, r4, r4, lsl #26
    4524:	5a2e0200 	bpl	b84d2c <__bss_end__+0xb789a4>
    4528:	03000000 	movweq	r0, #0
    452c:	03000801 	movweq	r0, #2049	; 0x801
    4530:	02030000 	andeq	r0, r3, #0
    4534:	0001e207 	andeq	lr, r1, r7, lsl #4
    4538:	038b0400 	orreq	r0, fp, #0, 8
    453c:	34020000 	strcc	r0, [r2], #-0
    4540:	00000073 	andeq	r0, r0, r3, ror r0
    4544:	8d070403 	cfstrshi	mvf0, [r7, #-12]
    4548:	03000000 	movweq	r0, #0
    454c:	00880708 	addeq	r0, r8, r8, lsl #14
    4550:	04030000 	streq	r0, [r3], #-0
    4554:	00028607 	andeq	r8, r2, r7, lsl #12
    4558:	08010300 	stmdaeq	r1, {r8, r9}
    455c:	00000309 	andeq	r0, r0, r9, lsl #6
    4560:	00950405 	addseq	r0, r5, r5, lsl #8
    4564:	88060000 	stmdahi	r6, {}	; <UNPREDICTABLE>
    4568:	07000000 	streq	r0, [r0, -r0]
    456c:	d10e030c 	tstle	lr, ip, lsl #6
    4570:	08000000 	stmdaeq	r0, {}	; <UNPREDICTABLE>
    4574:	03007874 	movweq	r7, #2164	; 0x874
    4578:	00004f0f 	andeq	r4, r0, pc, lsl #30
    457c:	72080000 	andvc	r0, r8, #0
    4580:	0f030078 	svceq	0x00030078
    4584:	0000004f 	andeq	r0, r0, pc, asr #32
    4588:	0cc60901 	stcleq	9, cr0, [r6], {1}
    458c:	10030000 	andne	r0, r3, r0
    4590:	00000068 	andeq	r0, r0, r8, rrx
    4594:	0c770904 	ldcleq	9, cr0, [r7], #-16
    4598:	11030000 	mrsne	r0, (UNDEF: 3)
    459c:	00000068 	andeq	r0, r0, r8, rrx
    45a0:	af040008 	svcge	0x00040008
    45a4:	0300000c 	movweq	r0, #12
    45a8:	00009a12 	andeq	r9, r0, r2, lsl sl
    45ac:	04010a00 	streq	r0, [r1], #-2560	; 0xa00
    45b0:	0000f710 	andeq	pc, r0, r0, lsl r7	; <UNPREDICTABLE>
    45b4:	0ccb0b00 	vstmiaeq	fp, {d16-d15}
    45b8:	0b010000 	bleq	445c0 <__bss_end__+0x38238>
    45bc:	00000cb9 			; <UNDEFINED> instruction: 0x00000cb9
    45c0:	0ca10b02 	vstmiaeq	r1!, {d0}
    45c4:	00030000 	andeq	r0, r3, r0
    45c8:	000ce004 	andeq	lr, ip, r4
    45cc:	dc100400 	cfldrsle	mvf0, [r0], {-0}
    45d0:	07000000 	streq	r0, [r0, -r0]
    45d4:	2f140414 	svccs	0x00140414
    45d8:	09000001 	stmdbeq	r0, {r0}
    45dc:	00000d47 	andeq	r0, r0, r7, asr #26
    45e0:	002c1504 	eoreq	r1, ip, r4, lsl #10
    45e4:	09000000 	stmdbeq	r0, {}	; <UNPREDICTABLE>
    45e8:	00000d3b 	andeq	r0, r0, fp, lsr sp
    45ec:	00f71804 	rscseq	r1, r7, r4, lsl #16
    45f0:	09040000 	stmdbeq	r4, {}	; <UNPREDICTABLE>
    45f4:	00000d06 	andeq	r0, r0, r6, lsl #26
    45f8:	00d11b04 	sbcseq	r1, r1, r4, lsl #22
    45fc:	00080000 	andeq	r0, r8, r0
    4600:	000cf804 	andeq	pc, ip, r4, lsl #16
    4604:	02200400 	eoreq	r0, r0, #0, 8
    4608:	0c000001 	stceq	0, cr0, [r0], {1}
    460c:	00000c4d 	andeq	r0, r0, sp, asr #24
    4610:	00250601 	eoreq	r0, r5, r1, lsl #12
    4614:	9d680000 	stclls	0, cr0, [r8, #-0]
    4618:	00200000 	eoreq	r0, r0, r0
    461c:	9c010000 	stcls	0, cr0, [r1], {-0}
    4620:	0000017a 	andeq	r0, r0, sl, ror r1
    4624:	0100630d 	tsteq	r0, sp, lsl #6
    4628:	00002506 	andeq	r2, r0, r6, lsl #10
    462c:	00175500 	andseq	r5, r7, r0, lsl #10
    4630:	9d7c0e00 	ldclls	14, cr0, [ip, #-0]
    4634:	027a0000 	rsbseq	r0, sl, #0
    4638:	010f0000 	mrseq	r0, CPSR
    463c:	00740251 	rsbseq	r0, r4, r1, asr r2
    4640:	0550010f 	ldrbeq	r0, [r0, #-271]	; 0x10f
    4644:	00c37803 	sbceq	r7, r3, r3, lsl #16
    4648:	10000000 	andne	r0, r0, r0
    464c:	00000cd8 	ldrdeq	r0, [r0], -r8
    4650:	9d880b01 	vstrls	d0, [r8, #4]
    4654:	00900000 	addseq	r0, r0, r0
    4658:	9c010000 	stcls	0, cr0, [r1], {-0}
    465c:	00000227 	andeq	r0, r0, r7, lsr #4
    4660:	000c6111 	andeq	r6, ip, r1, lsl r1
    4664:	250c0100 	strcs	r0, [ip, #-256]	; 0x100
    4668:	11000000 	mrsne	r0, (UNDEF: 0)
    466c:	00000d1b 	andeq	r0, r0, fp, lsl sp
    4670:	00250c01 	eoreq	r0, r5, r1, lsl #24
    4674:	70120000 	andsvc	r0, r2, r0
    4678:	01000000 	mrseq	r0, (UNDEF: 0)
    467c:	7362130d 	cmnvc	r2, #872415232	; 0x34000000
    4680:	0f010073 	svceq	0x00010073
    4684:	00000227 	andeq	r0, r0, r7, lsr #4
    4688:	00001773 	andeq	r1, r0, r3, ror r7
    468c:	000c6f14 	andeq	r6, ip, r4, lsl pc
    4690:	27100100 	ldrcs	r0, [r0, -r0, lsl #2]
    4694:	13000002 	movwne	r0, #2
    4698:	01006263 	tsteq	r0, r3, ror #4
    469c:	00022d17 	andeq	r2, r2, r7, lsl sp
    46a0:	00179300 	andseq	r9, r7, r0, lsl #6
    46a4:	9db01500 	cfldr32ls	mvfx1, [r0]
    46a8:	02960000 	addseq	r0, r6, #0
    46ac:	ec160000 	ldc	0, cr0, [r6], {-0}
    46b0:	a100009d 	swpge	r0, sp, [r0]	; <UNPREDICTABLE>
    46b4:	fd000002 	stc2	0, cr0, [r0, #-8]
    46b8:	0f000001 	svceq	0x00000001
    46bc:	03055101 	movweq	r5, #20737	; 0x5101
    46c0:	0000bcd8 	ldrdeq	fp, [r0], -r8
    46c4:	0550010f 	ldrbeq	r0, [r0, #-271]	; 0x10f
    46c8:	00c37803 	sbceq	r7, r3, r3, lsl #16
    46cc:	f4160000 			; <UNDEFINED> instruction: 0xf4160000
    46d0:	bc00009d 	stclt	0, cr0, [r0], {157}	; 0x9d
    46d4:	14000002 	strne	r0, [r0], #-2
    46d8:	0f000002 	svceq	0x00000002
    46dc:	03055001 	movweq	r5, #20481	; 0x5001
    46e0:	0000bcfc 	strdeq	fp, [r0], -ip
    46e4:	9df81500 	cfldr64ls	mvdx1, [r8]
    46e8:	02d20000 	sbcseq	r0, r2, #0
    46ec:	fc150000 	ldc2	0, cr0, [r5], {-0}
    46f0:	d900009d 	stmdble	r0, {r0, r2, r3, r4, r7}
    46f4:	00000002 	andeq	r0, r0, r2
    46f8:	00250405 	eoreq	r0, r5, r5, lsl #8
    46fc:	04050000 	streq	r0, [r5], #-0
    4700:	0000012f 	andeq	r0, r0, pc, lsr #2
    4704:	000c8517 	andeq	r8, ip, r7, lsl r5
    4708:	d1050100 	mrsle	r0, (UNDEF: 21)
    470c:	05000000 	streq	r0, [r0, #-0]
    4710:	00c37803 	sbceq	r7, r3, r3, lsl #16
    4714:	00251800 	eoreq	r1, r5, r0, lsl #16
    4718:	02530000 	subseq	r0, r3, #0
    471c:	25190000 	ldrcs	r0, [r9, #-0]
    4720:	00000000 	andeq	r0, r0, r0
    4724:	00077111 	andeq	r7, r7, r1, lsl r1
    4728:	5e1d0500 	cfmul32pl	mvfx0, mvfx13, mvfx0
    472c:	05000002 	streq	r0, [r0, #-2]
    4730:	00024404 	andeq	r4, r2, r4, lsl #8
    4734:	0c611100 	stfeqe	f1, [r1], #-0
    4738:	0c010000 	stceq	0, cr0, [r1], {-0}
    473c:	00000025 	andeq	r0, r0, r5, lsr #32
    4740:	000d1b11 	andeq	r1, sp, r1, lsl fp
    4744:	250c0100 	strcs	r0, [ip, #-256]	; 0x100
    4748:	1a000000 	bne	4750 <_start-0x38b0>
    474c:	00000ceb 	andeq	r0, r0, fp, ror #25
    4750:	02904403 	addseq	r4, r0, #50331648	; 0x3000000
    4754:	90190000 	andsls	r0, r9, r0
    4758:	19000002 	stmdbne	r0, {r1}
    475c:	0000005a 	andeq	r0, r0, sl, asr r0
    4760:	d1040500 	tstle	r4, r0, lsl #10
    4764:	1b000000 	blne	476c <_start-0x3894>
    4768:	00000d0e 	andeq	r0, r0, lr, lsl #26
    476c:	022d2a04 	eoreq	r2, sp, #4, 20	; 0x4000
    4770:	921c0000 	andsls	r0, ip, #0
    4774:	0300000c 	movweq	r0, #12
    4778:	00002515 	andeq	r2, r0, r5, lsl r5
    477c:	0002bc00 	andeq	fp, r2, r0, lsl #24
    4780:	02901900 	addseq	r1, r0, #0, 18
    4784:	8f190000 	svchi	0x00190000
    4788:	1d000000 	stcne	0, cr0, [r0, #-0]
    478c:	0b681c00 	bleq	1a0b794 <__bss_end__+0x19ff40c>
    4790:	29050000 	stmdbcs	r5, {}	; <UNPREDICTABLE>
    4794:	00000025 	andeq	r0, r0, r5, lsr #32
    4798:	000002d2 	ldrdeq	r0, [r0], -r2
    479c:	00008f19 	andeq	r8, r0, r9, lsl pc
    47a0:	12001d00 	andne	r1, r0, #0, 26
    47a4:	00000070 	andeq	r0, r0, r0, ror r0
    47a8:	1f12d105 	svcne	0x0012d105
    47ac:	0500000c 	streq	r0, [r0, #-12]
    47b0:	01ad0063 			; <UNDEFINED> instruction: 0x01ad0063
    47b4:	00040000 	andeq	r0, r4, r0
    47b8:	00000fc9 	andeq	r0, r0, r9, asr #31
    47bc:	03aa0104 			; <UNDEFINED> instruction: 0x03aa0104
    47c0:	67010000 	strvs	r0, [r1, -r0]
    47c4:	f600000d 			; <UNDEFINED> instruction: 0xf600000d
    47c8:	4800000a 	stmdami	r0, {r1, r3}
    47cc:	00000000 	andeq	r0, r0, r0
    47d0:	69000000 	stmdbvs	r0, {}	; <UNPREDICTABLE>
    47d4:	0200000e 	andeq	r0, r0, #14
    47d8:	6e690504 	cdpvs	5, 6, cr0, cr9, cr4, {0}
    47dc:	04030074 	streq	r0, [r3], #-116	; 0x74
    47e0:	00009207 	andeq	r9, r0, r7, lsl #4
    47e4:	06010300 	streq	r0, [r1], -r0, lsl #6
    47e8:	00000302 	andeq	r0, r0, r2, lsl #6
    47ec:	2e050203 	cdpcs	2, 0, cr0, cr5, cr3, {0}
    47f0:	03000003 	movweq	r0, #3
    47f4:	00b80504 	adcseq	r0, r8, r4, lsl #10
    47f8:	08030000 	stmdaeq	r3, {}	; <UNPREDICTABLE>
    47fc:	0000b305 	andeq	fp, r0, r5, lsl #6
    4800:	08010300 	stmdaeq	r1, {r8, r9}
    4804:	00000300 	andeq	r0, r0, r0, lsl #6
    4808:	e2070203 	and	r0, r7, #805306368	; 0x30000000
    480c:	03000001 	movweq	r0, #1
    4810:	008d0704 	addeq	r0, sp, r4, lsl #14
    4814:	08030000 	stmdaeq	r3, {}	; <UNPREDICTABLE>
    4818:	00008807 	andeq	r8, r0, r7, lsl #16
    481c:	07040300 	streq	r0, [r4, -r0, lsl #6]
    4820:	00000286 	andeq	r0, r0, r6, lsl #5
    4824:	09080103 	stmdbeq	r8, {r0, r1, r8}
    4828:	04000003 	streq	r0, [r0], #-3
    482c:	00000d4d 	andeq	r0, r0, sp, asr #26
    4830:	00250e01 	eoreq	r0, r5, r1, lsl #28
    4834:	9e180000 	cdpls	0, 1, cr0, cr8, cr0, {0}
    4838:	00180000 	andseq	r0, r8, r0
    483c:	9c010000 	stcls	0, cr0, [r1], {-0}
    4840:	000000a2 	andeq	r0, r0, r2, lsr #1
    4844:	000db905 	andeq	fp, sp, r5, lsl #18
    4848:	2c0f0100 	stfcss	f0, [pc], {-0}
    484c:	b3000000 	movwlt	r0, #0
    4850:	00000017 	andeq	r0, r0, r7, lsl r0
    4854:	000d9c06 	andeq	r9, sp, r6, lsl #24
    4858:	30170100 	andscc	r0, r7, r0, lsl #2
    485c:	1400009e 	strne	r0, [r0], #-158	; 0x9e
    4860:	01000000 	mrseq	r0, (UNDEF: 0)
    4864:	0000c79c 	muleq	r0, ip, r7
    4868:	0db90500 	cfldr32eq	mvfx0, [r9]
    486c:	18010000 	stmdane	r1, {}	; <UNPREDICTABLE>
    4870:	0000002c 	andeq	r0, r0, ip, lsr #32
    4874:	000017d2 	ldrdeq	r1, [r0], -r2
    4878:	0c1f0600 	ldceq	6, cr0, [pc], {-0}
    487c:	1f010000 	svcne	0x00010000
    4880:	00009e44 	andeq	r9, r0, r4, asr #28
    4884:	00000048 	andeq	r0, r0, r8, asr #32
    4888:	01779c01 	cmneq	r7, r1, lsl #24
    488c:	b1070000 	mrslt	r0, (UNDEF: 7)
    4890:	0100000d 	tsteq	r0, sp
    4894:	0001772a 	andeq	r7, r1, sl, lsr #14
    4898:	10001c00 	andne	r1, r0, r0, lsl #24
    489c:	0d940720 	ldceq	7, cr0, [r4, #128]	; 0x80
    48a0:	2b010000 	blcs	448a8 <__bss_end__+0x38520>
    48a4:	00000177 	andeq	r0, r0, r7, ror r1
    48a8:	20100024 	andscs	r0, r0, r4, lsr #32
    48ac:	000d5b07 	andeq	r5, sp, r7, lsl #22
    48b0:	772c0100 	strvc	r0, [ip, -r0, lsl #2]!
    48b4:	00000001 	andeq	r0, r0, r1
    48b8:	085a0000 	ldmdaeq	sl, {}^	; <UNPREDICTABLE>
    48bc:	00000d7b 	andeq	r0, r0, fp, ror sp
    48c0:	01772d01 	cmneq	r7, r1, lsl #26
    48c4:	09200000 	stmdbeq	r0!, {}	; <UNPREDICTABLE>
    48c8:	00009e4c 	andeq	r9, r0, ip, asr #28
    48cc:	00000079 	andeq	r0, r0, r9, ror r0
    48d0:	009e5809 	addseq	r5, lr, r9, lsl #16
    48d4:	0000a200 	andeq	sl, r0, r0, lsl #4
    48d8:	9e600a00 	vmulls.f32	s1, s0, s0
    48dc:	018d0000 	orreq	r0, sp, r0
    48e0:	013a0000 	teqeq	sl, r0
    48e4:	010b0000 	mrseq	r0, (UNDEF: 11)
    48e8:	004e0150 	subeq	r0, lr, r0, asr r1
    48ec:	009e6c0a 	addseq	r6, lr, sl, lsl #24
    48f0:	00019e00 	andeq	r9, r1, r0, lsl #28
    48f4:	00015a00 	andeq	r5, r1, r0, lsl #20
    48f8:	51010b00 	tstpl	r1, r0, lsl #22
    48fc:	00010c05 	andeq	r0, r1, r5, lsl #24
    4900:	010b5a00 	tsteq	fp, r0, lsl #20
    4904:	240c0550 	strcs	r0, [ip], #-1360	; 0x550
    4908:	00201000 	eoreq	r1, r0, r0
    490c:	009e780c 	addseq	r7, lr, ip, lsl #16
    4910:	00019e00 	andeq	r9, r1, r0, lsl #28
    4914:	51010b00 	tstpl	r1, r0, lsl #22
    4918:	00200c05 	eoreq	r0, r0, r5, lsl #24
    491c:	010b5a00 	tsteq	fp, r0, lsl #20
    4920:	1c0c0550 	cfstr32ne	mvfx0, [ip], {80}	; 0x50
    4924:	00201000 	eoreq	r1, r0, r0
    4928:	00250d00 	eoreq	r0, r5, r0, lsl #26
    492c:	50080000 	andpl	r0, r8, r0
    4930:	0100000d 	tsteq	r0, sp
    4934:	0001880d 	andeq	r8, r1, sp, lsl #16
    4938:	2c0d1000 	stccs	0, cr1, [sp], {-0}
    493c:	0e000000 	cdpeq	0, 0, cr0, cr0, cr0, {0}
    4940:	00000c44 	andeq	r0, r0, r4, asr #24
    4944:	019e5002 	orrseq	r5, lr, r2
    4948:	2c0f0000 	stccs	0, cr0, [pc], {-0}
    494c:	00000000 	andeq	r0, r0, r0
    4950:	000dab10 	andeq	sl, sp, r0, lsl fp
    4954:	0f9c0200 	svceq	0x009c0200
    4958:	0000002c 	andeq	r0, r0, ip, lsr #32
    495c:	00002c0f 	andeq	r2, r0, pc, lsl #24
    4960:	d8000000 	stmdale	r0, {}	; <UNPREDICTABLE>
    4964:	04000001 	streq	r0, [r0], #-1
    4968:	0010b700 	andseq	fp, r0, r0, lsl #14
    496c:	aa010400 	bge	45974 <__bss_end__+0x395ec>
    4970:	01000003 	tsteq	r0, r3
    4974:	00000ddb 	ldrdeq	r0, [r0], -fp
    4978:	00000af6 	strdeq	r0, [r0], -r6
    497c:	00009e8c 	andeq	r9, r0, ip, lsl #29
    4980:	00000088 	andeq	r0, r0, r8, lsl #1
    4984:	00000f06 	andeq	r0, r0, r6, lsl #30
    4988:	69050402 	stmdbvs	r5, {r1, sl}
    498c:	0300746e 	movweq	r7, #1134	; 0x46e
    4990:	00920704 	addseq	r0, r2, r4, lsl #14
    4994:	01030000 	mrseq	r0, (UNDEF: 3)
    4998:	00030206 	andeq	r0, r3, r6, lsl #4
    499c:	05020300 	streq	r0, [r2, #-768]	; 0x300
    49a0:	0000032e 	andeq	r0, r0, lr, lsr #6
    49a4:	b8050403 	stmdalt	r5, {r0, r1, sl}
    49a8:	03000000 	movweq	r0, #0
    49ac:	00b30508 	adcseq	r0, r3, r8, lsl #10
    49b0:	01030000 	mrseq	r0, (UNDEF: 3)
    49b4:	00030008 	andeq	r0, r3, r8
    49b8:	07020300 	streq	r0, [r2, -r0, lsl #6]
    49bc:	000001e2 	andeq	r0, r0, r2, ror #3
    49c0:	8d070403 	cfstrshi	mvf0, [r7, #-12]
    49c4:	03000000 	movweq	r0, #0
    49c8:	00880708 	addeq	r0, r8, r8, lsl #14
    49cc:	04030000 	streq	r0, [r3], #-0
    49d0:	00028607 	andeq	r8, r2, r7, lsl #12
    49d4:	08010300 	stmdaeq	r1, {r8, r9}
    49d8:	00000309 	andeq	r0, r0, r9, lsl #6
    49dc:	000dfa04 	andeq	pc, sp, r4, lsl #20
    49e0:	8c050100 	stfhis	f0, [r5], {-0}
    49e4:	1c00009e 	stcne	0, cr0, [r0], {158}	; 0x9e
    49e8:	01000000 	mrseq	r0, (UNDEF: 0)
    49ec:	00009e9c 	muleq	r0, ip, lr
    49f0:	0df40500 	cfldr64eq	mvdx0, [r4]
    49f4:	05010000 	streq	r0, [r1, #-0]
    49f8:	0000002c 	andeq	r0, r0, ip, lsr #32
    49fc:	000017fc 	strdeq	r1, [r0], -ip
    4a00:	0dbe0600 	ldceq	6, cr0, [lr]
    4a04:	0b010000 	bleq	44a0c <__bss_end__+0x38684>
    4a08:	0000002c 	andeq	r0, r0, ip, lsr #32
    4a0c:	00009ea8 	andeq	r9, r0, r8, lsr #29
    4a10:	00000014 	andeq	r0, r0, r4, lsl r0
    4a14:	00cb9c01 	sbceq	r9, fp, r1, lsl #24
    4a18:	b4070000 	strlt	r0, [r7], #-0
    4a1c:	ca00009e 	bgt	4c9c <_start-0x3364>
    4a20:	08000001 	stmdaeq	r0, {r0}
    4a24:	0c055001 	stceq	0, cr5, [r5], {1}
    4a28:	20003004 	andcs	r3, r0, r4
    4a2c:	10060000 	andne	r0, r6, r0
    4a30:	0100000e 	tsteq	r0, lr
    4a34:	00002c10 	andeq	r2, r0, r0, lsl ip
    4a38:	009ebc00 	addseq	fp, lr, r0, lsl #24
    4a3c:	00000c00 	andeq	r0, r0, r0, lsl #24
    4a40:	f99c0100 			; <UNDEFINED> instruction: 0xf99c0100
    4a44:	09000000 	stmdbeq	r0, {}	; <UNPREDICTABLE>
    4a48:	14010075 	strne	r0, [r1], #-117	; 0x75
    4a4c:	0000002c 	andeq	r0, r0, ip, lsr #32
    4a50:	c40a5001 	strgt	r5, [sl], #-1
    4a54:	9e00009e 	mcrls	0, 0, r0, cr0, cr14, {4}
    4a58:	00000000 	andeq	r0, r0, r0
    4a5c:	000e0704 	andeq	r0, lr, r4, lsl #14
    4a60:	c8190100 	ldmdagt	r9, {r8}
    4a64:	2400009e 	strcs	r0, [r0], #-158	; 0x9e
    4a68:	01000000 	mrseq	r0, (UNDEF: 0)
    4a6c:	0001579c 	muleq	r1, ip, r7
    4a70:	73750b00 	cmnvc	r5, #0, 22
    4a74:	2c190100 	ldfcss	f0, [r9], {-0}
    4a78:	30000000 	andcc	r0, r0, r0
    4a7c:	09000018 	stmdbeq	r0, {r3, r4}
    4a80:	01006272 	tsteq	r0, r2, ror r2
    4a84:	00002c1a 	andeq	r2, r0, sl, lsl ip
    4a88:	0c540100 	ldfeqe	f0, [r4], {-0}
    4a8c:	00009ed8 	ldrdeq	r9, [r0], -r8
    4a90:	00000010 	andeq	r0, r0, r0, lsl r0
    4a94:	0000014d 	andeq	r0, r0, sp, asr #2
    4a98:	0061720d 	rsbeq	r7, r1, sp, lsl #4
    4a9c:	002c1c01 	eoreq	r1, ip, r1, lsl #24
    4aa0:	184e0000 	stmdane	lr, {}^	; <UNPREDICTABLE>
    4aa4:	dc0a0000 	stcle	0, cr0, [sl], {-0}
    4aa8:	cb00009e 	blgt	4d28 <_start-0x32d8>
    4aac:	00000000 	andeq	r0, r0, r0
    4ab0:	009ed40a 	addseq	sp, lr, sl, lsl #8
    4ab4:	0000cb00 	andeq	ip, r0, r0, lsl #22
    4ab8:	44040000 	strmi	r0, [r4], #-0
    4abc:	0100000c 	tsteq	r0, ip
    4ac0:	009eec22 	addseq	lr, lr, r2, lsr #24
    4ac4:	00001400 	andeq	r1, r0, r0, lsl #8
    4ac8:	909c0100 	addsls	r0, ip, r0, lsl #2
    4acc:	0b000001 	bleq	4ad8 <_start-0x3528>
    4ad0:	0100736d 	tsteq	r0, sp, ror #6
    4ad4:	00002c22 	andeq	r2, r0, r2, lsr #24
    4ad8:	00186100 	andseq	r6, r8, r0, lsl #2
    4adc:	9efc0700 	cdpls	7, 15, cr0, cr12, cr0, {0}
    4ae0:	00f90000 	rscseq	r0, r9, r0
    4ae4:	01080000 	mrseq	r0, (UNDEF: 8)
    4ae8:	01f30750 	mvnseq	r0, r0, asr r7
    4aec:	03e80a50 	mvneq	r0, #80, 20	; 0x50000
    4af0:	0400001e 	streq	r0, [r0], #-30
    4af4:	00000dd1 	ldrdeq	r0, [r0], -r1
    4af8:	9f002501 	svcls	0x00002501
    4afc:	00140000 	andseq	r0, r4, r0
    4b00:	9c010000 	stcls	0, cr0, [r1], {-0}
    4b04:	000001ca 	andeq	r0, r0, sl, asr #3
    4b08:	6365730b 	cmnvs	r5, #738197504	; 0x2c000000
    4b0c:	2c250100 	stfcss	f0, [r5], #-0
    4b10:	82000000 	andhi	r0, r0, #0
    4b14:	07000018 	smladeq	r0, r8, r0, r0
    4b18:	00009f10 	andeq	r9, r0, r0, lsl pc
    4b1c:	00000157 	andeq	r0, r0, r7, asr r1
    4b20:	07500108 	ldrbeq	r0, [r0, -r8, lsl #2]
    4b24:	0a5001f3 	beq	14052f8 <__bss_end__+0x13f8f70>
    4b28:	001e03e8 	andseq	r0, lr, r8, ror #7
    4b2c:	0dee0e00 	stcleq	14, cr0, [lr]
    4b30:	a8020000 	stmdage	r2, {}	; <UNPREDICTABLE>
    4b34:	0000002c 	andeq	r0, r0, ip, lsr #32
    4b38:	00002c0f 	andeq	r2, r0, pc, lsl #24
    4b3c:	ca000000 	bgt	4b44 <_start-0x34bc>
    4b40:	04000011 	streq	r0, [r0], #-17
    4b44:	00119a00 	andseq	r9, r1, r0, lsl #20
    4b48:	aa010400 	bge	45b50 <__bss_end__+0x397c8>
    4b4c:	01000003 	tsteq	r0, r3
    4b50:	00000ebe 			; <UNDEFINED> instruction: 0x00000ebe
    4b54:	00000af6 	strdeq	r0, [r0], -r6
    4b58:	00009f14 	andeq	r9, r0, r4, lsl pc
    4b5c:	00000620 	andeq	r0, r0, r0, lsr #12
    4b60:	00000fad 	andeq	r0, r0, sp, lsr #31
    4b64:	69050402 	stmdbvs	r5, {r1, sl}
    4b68:	0300746e 	movweq	r7, #1134	; 0x46e
    4b6c:	00920704 	addseq	r0, r2, r4, lsl #14
    4b70:	01030000 	mrseq	r0, (UNDEF: 3)
    4b74:	00030206 	andeq	r0, r3, r6, lsl #4
    4b78:	05020300 	streq	r0, [r2, #-768]	; 0x300
    4b7c:	0000032e 	andeq	r0, r0, lr, lsr #6
    4b80:	b8050403 	stmdalt	r5, {r0, r1, sl}
    4b84:	03000000 	movweq	r0, #0
    4b88:	00b30508 	adcseq	r0, r3, r8, lsl #10
    4b8c:	6d040000 	stcvs	0, cr0, [r4, #-0]
    4b90:	03000004 	movweq	r0, #4
    4b94:	00005a2e 	andeq	r5, r0, lr, lsr #20
    4b98:	08010300 	stmdaeq	r1, {r8, r9}
    4b9c:	00000300 	andeq	r0, r0, r0, lsl #6
    4ba0:	e2070203 	and	r0, r7, #805306368	; 0x30000000
    4ba4:	04000001 	streq	r0, [r0], #-1
    4ba8:	0000038b 	andeq	r0, r0, fp, lsl #7
    4bac:	00733403 	rsbseq	r3, r3, r3, lsl #8
    4bb0:	04030000 	streq	r0, [r3], #-0
    4bb4:	00008d07 	andeq	r8, r0, r7, lsl #26
    4bb8:	07080300 	streq	r0, [r8, -r0, lsl #6]
    4bbc:	00000088 	andeq	r0, r0, r8, lsl #1
    4bc0:	86070403 	strhi	r0, [r7], -r3, lsl #8
    4bc4:	05000002 	streq	r0, [r0, #-2]
    4bc8:	90040604 	andls	r0, r4, r4, lsl #12
    4bcc:	03000000 	movweq	r0, #0
    4bd0:	03090801 	movweq	r0, #38913	; 0x9801
    4bd4:	04060000 	streq	r0, [r6], #-0
    4bd8:	0000009d 	muleq	r0, sp, r0
    4bdc:	00009007 	andeq	r9, r0, r7
    4be0:	040c0800 	streq	r0, [ip], #-2048	; 0x800
    4be4:	0000d90e 	andeq	sp, r0, lr, lsl #18
    4be8:	78740900 	ldmdavc	r4!, {r8, fp}^
    4bec:	4f0f0400 	svcmi	0x000f0400
    4bf0:	00000000 	andeq	r0, r0, r0
    4bf4:	00787209 	rsbseq	r7, r8, r9, lsl #4
    4bf8:	004f0f04 	subeq	r0, pc, r4, lsl #30
    4bfc:	0a010000 	beq	44c04 <__bss_end__+0x3887c>
    4c00:	00000cc6 	andeq	r0, r0, r6, asr #25
    4c04:	00681004 	rsbeq	r1, r8, r4
    4c08:	0a040000 	beq	104c10 <__bss_end__+0xf8888>
    4c0c:	00000c77 	andeq	r0, r0, r7, ror ip
    4c10:	00681104 	rsbeq	r1, r8, r4, lsl #2
    4c14:	00080000 	andeq	r0, r8, r0
    4c18:	000caf04 	andeq	sl, ip, r4, lsl #30
    4c1c:	a2120400 	andsge	r0, r2, #0, 8
    4c20:	04000000 	streq	r0, [r0], #-0
    4c24:	00000b48 	andeq	r0, r0, r8, asr #22
    4c28:	00ef2805 	rsceq	r2, pc, r5, lsl #16
    4c2c:	6f0b0000 	svcvs	0x000b0000
    4c30:	0400000b 	streq	r0, [r0], #-11
    4c34:	01060009 	tsteq	r6, r9
    4c38:	790c0000 	stmdbvc	ip, {}	; <UNPREDICTABLE>
    4c3c:	8800000b 	stmdahi	r0, {r0, r1, r3}
    4c40:	00000000 	andeq	r0, r0, r0
    4c44:	0b710400 	bleq	1c45c4c <__bss_end__+0x1c398c4>
    4c48:	62050000 	andvs	r0, r5, #0
    4c4c:	000000e4 	andeq	r0, r0, r4, ror #1
    4c50:	000e780d 	andeq	r7, lr, sp, lsl #16
    4c54:	03090200 	movweq	r0, #37376	; 0x9200
    4c58:	0000013f 	andeq	r0, r0, pc, lsr r1
    4c5c:	000cda0e 	andeq	sp, ip, lr, lsl #20
    4c60:	2c090200 	sfmcs	f0, 4, [r9], {-0}
    4c64:	0f000000 	svceq	0x00000000
    4c68:	0902006e 	stmdbeq	r2, {r1, r2, r3, r5, r6}
    4c6c:	0000002c 	andeq	r0, r0, ip, lsr #32
    4c70:	0eec1110 	mcreq	1, 7, r1, cr12, cr0, {0}
    4c74:	0c020000 	stceq	0, cr0, [r2], {-0}
    4c78:	0000002c 	andeq	r0, r0, ip, lsr #32
    4c7c:	2b0d0000 	blcs	344c84 <__bss_end__+0x3388fc>
    4c80:	0200000e 	andeq	r0, r0, #14
    4c84:	01760317 	cmneq	r6, r7, lsl r3
    4c88:	700f0000 	andvc	r0, pc, r0
    4c8c:	02006e69 	andeq	r6, r0, #1680	; 0x690
    4c90:	00002c17 	andeq	r2, r0, r7, lsl ip
    4c94:	00760f00 	rsbseq	r0, r6, r0, lsl #30
    4c98:	002c1702 	eoreq	r1, ip, r2, lsl #14
    4c9c:	da0e0000 	ble	384ca4 <__bss_end__+0x37891c>
    4ca0:	0200000c 	andeq	r0, r0, #12
    4ca4:	00002c17 	andeq	r2, r0, r7, lsl ip
    4ca8:	0e7e0e00 	cdpeq	14, 7, cr0, cr14, cr0, {0}
    4cac:	17020000 	strne	r0, [r2, -r0]
    4cb0:	0000002c 	andeq	r0, r0, ip, lsr #32
    4cb4:	0ceb1200 	sfmeq	f1, 2, [fp]
    4cb8:	09010000 	stmdbeq	r1, {}	; <UNPREDICTABLE>
    4cbc:	00009f14 	andeq	r9, r0, r4, lsl pc
    4cc0:	00000154 	andeq	r0, r0, r4, asr r1
    4cc4:	07229c01 	streq	r9, [r2, -r1, lsl #24]!
    4cc8:	8d130000 	ldchi	0, cr0, [r3, #-0]
    4ccc:	0100000c 	tsteq	r0, ip
    4cd0:	00072209 	andeq	r2, r7, r9, lsl #4
    4cd4:	0018a300 	andseq	sl, r8, r0, lsl #6
    4cd8:	00631400 	rsbeq	r1, r3, r0, lsl #8
    4cdc:	005a0901 	subseq	r0, sl, r1, lsl #18
    4ce0:	18c40000 	stmiane	r4, {}^	; <UNPREDICTABLE>
    4ce4:	74150000 	ldrvc	r0, [r5], #-0
    4ce8:	0b010078 	bleq	44ed0 <__bss_end__+0x38b48>
    4cec:	00000025 	andeq	r0, r0, r5, lsr #32
    4cf0:	08007606 	stmdaeq	r0, {r1, r2, r9, sl, ip, sp, lr}
    4cf4:	169f1aff 			; <UNDEFINED> instruction: 0x169f1aff
    4cf8:	0c01006e 	stceq	0, cr0, [r1], {110}	; 0x6e
    4cfc:	00000068 	andeq	r0, r0, r8, rrx
    4d00:	000018e5 	andeq	r1, r0, r5, ror #17
    4d04:	01007516 	tsteq	r0, r6, lsl r5
    4d08:	0000680d 	andeq	r6, r0, sp, lsl #16
    4d0c:	0018f800 	andseq	pc, r8, r0, lsl #16
    4d10:	00731500 	rsbseq	r1, r3, r0, lsl #10
    4d14:	00680e01 	rsbeq	r0, r8, r1, lsl #28
    4d18:	54010000 	strpl	r0, [r1], #-0
    4d1c:	009f2417 	addseq	r2, pc, r7, lsl r4	; <UNPREDICTABLE>
    4d20:	00000400 	andeq	r0, r0, r0, lsl #8
    4d24:	0001f800 	andeq	pc, r1, r0, lsl #16
    4d28:	0eec1800 	cdpeq	8, 14, cr1, cr12, cr0, {0}
    4d2c:	0e010000 	cdpeq	0, 0, cr0, cr1, cr0, {0}
    4d30:	0000002c 	andeq	r0, r0, ip, lsr #32
    4d34:	19005401 	stmdbne	r0, {r0, sl, ip, lr}
    4d38:	0000013f 	andeq	r0, r0, pc, lsr r1
    4d3c:	00009f28 	andeq	r9, r0, r8, lsr #30
    4d40:	0000001c 	andeq	r0, r0, ip, lsl r0
    4d44:	02751101 	rsbseq	r1, r5, #1073741824	; 0x40000000
    4d48:	6a1a0000 	bvs	684d50 <__bss_end__+0x6789c8>
    4d4c:	21000001 	tstcs	r0, r1
    4d50:	1b000019 	blne	4dbc <_start-0x3244>
    4d54:	0000015f 	andeq	r0, r0, pc, asr r1
    4d58:	561c5401 	ldrpl	r5, [ip], -r1, lsl #8
    4d5c:	00000001 	andeq	r0, r0, r1
    4d60:	00014b1b 	andeq	r4, r1, fp, lsl fp
    4d64:	19560100 	ldmdbne	r6, {r8}^
    4d68:	00000111 	andeq	r0, r0, r1, lsl r1
    4d6c:	00009f34 	andeq	r9, r0, r4, lsr pc
    4d70:	00000010 	andeq	r0, r0, r0, lsl r0
    4d74:	025f1a02 	subseq	r1, pc, #8192	; 0x2000
    4d78:	281a0000 	ldmdacs	sl, {}	; <UNPREDICTABLE>
    4d7c:	34000001 	strcc	r0, [r0], #-1
    4d80:	1b000019 	blne	4dec <_start-0x3214>
    4d84:	0000011d 	andeq	r0, r0, sp, lsl r1
    4d88:	341d5401 	ldrcc	r5, [sp], #-1025	; 0x401
    4d8c:	0400009f 	streq	r0, [r0], #-159	; 0x9f
    4d90:	1e000000 	cdpne	0, 0, cr0, cr0, cr0, {0}
    4d94:	00000132 	andeq	r0, r0, r2, lsr r1
    4d98:	00001947 	andeq	r1, r0, r7, asr #18
    4d9c:	341f0000 	ldrcc	r0, [pc], #-0	; 4da4 <_start-0x325c>
    4da0:	3100009f 	swpcc	r0, pc, [r0]	; <UNPREDICTABLE>
    4da4:	20000011 	andcs	r0, r0, r1, lsl r0
    4da8:	30015101 	andcc	r5, r1, r1, lsl #2
    4dac:	02500120 	subseq	r0, r0, #32, 2
    4db0:	00000076 	andeq	r0, r0, r6, ror r0
    4db4:	00013f19 	andeq	r3, r1, r9, lsl pc
    4db8:	009f4800 	addseq	r4, pc, r0, lsl #16
    4dbc:	00001c00 	andeq	r1, r0, r0, lsl #24
    4dc0:	f8130100 			; <UNDEFINED> instruction: 0xf8130100
    4dc4:	1a000002 	bne	4dd4 <_start-0x322c>
    4dc8:	0000016a 	andeq	r0, r0, sl, ror #2
    4dcc:	0000195a 	andeq	r1, r0, sl, asr r9
    4dd0:	00015f1b 	andeq	r5, r1, fp, lsl pc
    4dd4:	1a540100 	bne	15051dc <__bss_end__+0x14f8e54>
    4dd8:	00000156 	andeq	r0, r0, r6, asr r1
    4ddc:	0000197c 	andeq	r1, r0, ip, ror r9
    4de0:	00014b1b 	andeq	r4, r1, fp, lsl fp
    4de4:	19560100 	ldmdbne	r6, {r8}^
    4de8:	00000111 	andeq	r0, r0, r1, lsl r1
    4dec:	00009f54 	andeq	r9, r0, r4, asr pc
    4df0:	00000010 	andeq	r0, r0, r0, lsl r0
    4df4:	02df1a02 	sbcseq	r1, pc, #8192	; 0x2000
    4df8:	281a0000 	ldmdacs	sl, {}	; <UNPREDICTABLE>
    4dfc:	ad000001 	stcge	0, cr0, [r0, #-4]
    4e00:	1b000019 	blne	4e6c <_start-0x3194>
    4e04:	0000011d 	andeq	r0, r0, sp, lsl r1
    4e08:	541d5401 	ldrpl	r5, [sp], #-1025	; 0x401
    4e0c:	0400009f 	streq	r0, [r0], #-159	; 0x9f
    4e10:	1e000000 	cdpne	0, 0, cr0, cr0, cr0, {0}
    4e14:	00000132 	andeq	r0, r0, r2, lsr r1
    4e18:	000019cf 	andeq	r1, r0, pc, asr #19
    4e1c:	541f0000 	ldrpl	r0, [pc], #-0	; 4e24 <_start-0x31dc>
    4e20:	3100009f 	swpcc	r0, pc, [r0]	; <UNPREDICTABLE>
    4e24:	20000011 	andcs	r0, r0, r1, lsl r0
    4e28:	77045101 	strvc	r5, [r4, -r1, lsl #2]
    4e2c:	201a3100 	andscs	r3, sl, r0, lsl #2
    4e30:	76025001 	strvc	r5, [r2], -r1
    4e34:	19000000 	stmdbne	r0, {}	; <UNPREDICTABLE>
    4e38:	0000013f 	andeq	r0, r0, pc, lsr r1
    4e3c:	00009f68 	andeq	r9, r0, r8, ror #30
    4e40:	0000001c 	andeq	r0, r0, ip, lsl r0
    4e44:	03801501 	orreq	r1, r0, #4194304	; 0x400000
    4e48:	6a1a0000 	bvs	684e50 <__bss_end__+0x678ac8>
    4e4c:	e2000001 	and	r0, r0, #1
    4e50:	1b000019 	blne	4ebc <_start-0x3144>
    4e54:	0000015f 	andeq	r0, r0, pc, asr r1
    4e58:	561b5401 	ldrpl	r5, [fp], -r1, lsl #8
    4e5c:	08000001 	stmdaeq	r0, {r0}
    4e60:	1a320077 	bne	c85044 <__bss_end__+0xc78cbc>
    4e64:	9f1aff08 	svcls	0x001aff08
    4e68:	00014b1b 	andeq	r4, r1, fp, lsl fp
    4e6c:	19560100 	ldmdbne	r6, {r8}^
    4e70:	00000111 	andeq	r0, r0, r1, lsl r1
    4e74:	00009f74 	andeq	r9, r0, r4, ror pc
    4e78:	00000010 	andeq	r0, r0, r0, lsl r0
    4e7c:	03671a02 	cmneq	r7, #8192	; 0x2000
    4e80:	281a0000 	ldmdacs	sl, {}	; <UNPREDICTABLE>
    4e84:	07000001 	streq	r0, [r0, -r1]
    4e88:	1b00001a 	blne	4ef8 <_start-0x3108>
    4e8c:	0000011d 	andeq	r0, r0, sp, lsl r1
    4e90:	741d5401 	ldrvc	r5, [sp], #-1025	; 0x401
    4e94:	0400009f 	streq	r0, [r0], #-159	; 0x9f
    4e98:	1e000000 	cdpne	0, 0, cr0, cr0, cr0, {0}
    4e9c:	00000132 	andeq	r0, r0, r2, lsr r1
    4ea0:	00001a2c 	andeq	r1, r0, ip, lsr #20
    4ea4:	741f0000 	ldrvc	r0, [pc], #-0	; 4eac <_start-0x3154>
    4ea8:	3100009f 	swpcc	r0, pc, [r0]	; <UNPREDICTABLE>
    4eac:	20000011 	andcs	r0, r0, r1, lsl r0
    4eb0:	77045101 	strvc	r5, [r4, -r1, lsl #2]
    4eb4:	201a3200 	andscs	r3, sl, r0, lsl #4
    4eb8:	76025001 	strvc	r5, [r2], -r1
    4ebc:	19000000 	stmdbne	r0, {}	; <UNPREDICTABLE>
    4ec0:	0000013f 	andeq	r0, r0, pc, lsr r1
    4ec4:	00009f88 	andeq	r9, r0, r8, lsl #31
    4ec8:	0000001c 	andeq	r0, r0, ip, lsl r0
    4ecc:	04081701 	streq	r1, [r8], #-1793	; 0x701
    4ed0:	6a1a0000 	bvs	684ed8 <__bss_end__+0x678b50>
    4ed4:	3f000001 	svccc	0x00000001
    4ed8:	1b00001a 	blne	4f48 <_start-0x30b8>
    4edc:	0000015f 	andeq	r0, r0, pc, asr r1
    4ee0:	561b5401 	ldrpl	r5, [fp], -r1, lsl #8
    4ee4:	08000001 	stmdaeq	r0, {r0}
    4ee8:	1a340077 	bne	d050cc <__bss_end__+0xcf8d44>
    4eec:	9f1aff08 	svcls	0x001aff08
    4ef0:	00014b1b 	andeq	r4, r1, fp, lsl fp
    4ef4:	19560100 	ldmdbne	r6, {r8}^
    4ef8:	00000111 	andeq	r0, r0, r1, lsl r1
    4efc:	00009f94 	muleq	r0, r4, pc	; <UNPREDICTABLE>
    4f00:	00000010 	andeq	r0, r0, r0, lsl r0
    4f04:	03ef1a02 	mvneq	r1, #8192	; 0x2000
    4f08:	281a0000 	ldmdacs	sl, {}	; <UNPREDICTABLE>
    4f0c:	61000001 	tstvs	r0, r1
    4f10:	1b00001a 	blne	4f80 <_start-0x3080>
    4f14:	0000011d 	andeq	r0, r0, sp, lsl r1
    4f18:	941d5401 	ldrls	r5, [sp], #-1025	; 0x401
    4f1c:	0400009f 	streq	r0, [r0], #-159	; 0x9f
    4f20:	1e000000 	cdpne	0, 0, cr0, cr0, cr0, {0}
    4f24:	00000132 	andeq	r0, r0, r2, lsr r1
    4f28:	00001a83 	andeq	r1, r0, r3, lsl #21
    4f2c:	941f0000 	ldrls	r0, [pc], #-0	; 4f34 <_start-0x30cc>
    4f30:	3100009f 	swpcc	r0, pc, [r0]	; <UNPREDICTABLE>
    4f34:	20000011 	andcs	r0, r0, r1, lsl r0
    4f38:	77045101 	strvc	r5, [r4, -r1, lsl #2]
    4f3c:	201a3400 	andscs	r3, sl, r0, lsl #8
    4f40:	76025001 	strvc	r5, [r2], -r1
    4f44:	19000000 	stmdbne	r0, {}	; <UNPREDICTABLE>
    4f48:	0000013f 	andeq	r0, r0, pc, lsr r1
    4f4c:	00009fa8 	andeq	r9, r0, r8, lsr #31
    4f50:	0000001c 	andeq	r0, r0, ip, lsl r0
    4f54:	04901901 	ldreq	r1, [r0], #2305	; 0x901
    4f58:	6a1a0000 	bvs	684f60 <__bss_end__+0x678bd8>
    4f5c:	96000001 	strls	r0, [r0], -r1
    4f60:	1b00001a 	blne	4fd0 <_start-0x3030>
    4f64:	0000015f 	andeq	r0, r0, pc, asr r1
    4f68:	561b5401 	ldrpl	r5, [fp], -r1, lsl #8
    4f6c:	08000001 	stmdaeq	r0, {r0}
    4f70:	1a380077 	bne	e05154 <__bss_end__+0xdf8dcc>
    4f74:	9f1aff08 	svcls	0x001aff08
    4f78:	00014b1b 	andeq	r4, r1, fp, lsl fp
    4f7c:	19560100 	ldmdbne	r6, {r8}^
    4f80:	00000111 	andeq	r0, r0, r1, lsl r1
    4f84:	00009fb4 			; <UNDEFINED> instruction: 0x00009fb4
    4f88:	00000010 	andeq	r0, r0, r0, lsl r0
    4f8c:	04771a02 	ldrbteq	r1, [r7], #-2562	; 0xa02
    4f90:	281a0000 	ldmdacs	sl, {}	; <UNPREDICTABLE>
    4f94:	bb000001 	bllt	4fa0 <_start-0x3060>
    4f98:	1b00001a 	blne	5008 <_start-0x2ff8>
    4f9c:	0000011d 	andeq	r0, r0, sp, lsl r1
    4fa0:	b41d5401 	ldrlt	r5, [sp], #-1025	; 0x401
    4fa4:	0400009f 	streq	r0, [r0], #-159	; 0x9f
    4fa8:	1e000000 	cdpne	0, 0, cr0, cr0, cr0, {0}
    4fac:	00000132 	andeq	r0, r0, r2, lsr r1
    4fb0:	00001ae0 	andeq	r1, r0, r0, ror #21
    4fb4:	b41f0000 	ldrlt	r0, [pc], #-0	; 4fbc <_start-0x3044>
    4fb8:	3100009f 	swpcc	r0, pc, [r0]	; <UNPREDICTABLE>
    4fbc:	20000011 	andcs	r0, r0, r1, lsl r0
    4fc0:	77045101 	strvc	r5, [r4, -r1, lsl #2]
    4fc4:	201a3800 	andscs	r3, sl, r0, lsl #16
    4fc8:	76025001 	strvc	r5, [r2], -r1
    4fcc:	19000000 	stmdbne	r0, {}	; <UNPREDICTABLE>
    4fd0:	0000013f 	andeq	r0, r0, pc, lsr r1
    4fd4:	00009fc8 	andeq	r9, r0, r8, asr #31
    4fd8:	0000001c 	andeq	r0, r0, ip, lsl r0
    4fdc:	05181b01 	ldreq	r1, [r8, #-2817]	; 0xb01
    4fe0:	6a1a0000 	bvs	684fe8 <__bss_end__+0x678c60>
    4fe4:	f3000001 	vhadd.u8	d0, d0, d1
    4fe8:	1b00001a 	blne	5058 <_start-0x2fa8>
    4fec:	0000015f 	andeq	r0, r0, pc, asr r1
    4ff0:	561b5401 	ldrpl	r5, [fp], -r1, lsl #8
    4ff4:	08000001 	stmdaeq	r0, {r0}
    4ff8:	1a400077 	bne	10051dc <__bss_end__+0xff8e54>
    4ffc:	9f1aff08 	svcls	0x001aff08
    5000:	00014b1b 	andeq	r4, r1, fp, lsl fp
    5004:	19560100 	ldmdbne	r6, {r8}^
    5008:	00000111 	andeq	r0, r0, r1, lsl r1
    500c:	00009fd4 	ldrdeq	r9, [r0], -r4
    5010:	00000010 	andeq	r0, r0, r0, lsl r0
    5014:	04ff1a02 	ldrbteq	r1, [pc], #2562	; 501c <_start-0x2fe4>
    5018:	281a0000 	ldmdacs	sl, {}	; <UNPREDICTABLE>
    501c:	1a000001 	bne	5028 <_start-0x2fd8>
    5020:	1b00001b 	blne	5094 <_start-0x2f6c>
    5024:	0000011d 	andeq	r0, r0, sp, lsl r1
    5028:	d41d5401 	ldrle	r5, [sp], #-1025	; 0x401
    502c:	0400009f 	streq	r0, [r0], #-159	; 0x9f
    5030:	1e000000 	cdpne	0, 0, cr0, cr0, cr0, {0}
    5034:	00000132 	andeq	r0, r0, r2, lsr r1
    5038:	00001b41 	andeq	r1, r0, r1, asr #22
    503c:	d41f0000 	ldrle	r0, [pc], #-0	; 5044 <_start-0x2fbc>
    5040:	3100009f 	swpcc	r0, pc, [r0]	; <UNPREDICTABLE>
    5044:	20000011 	andcs	r0, r0, r1, lsl r0
    5048:	77045101 	strvc	r5, [r4, -r1, lsl #2]
    504c:	201a4000 	andscs	r4, sl, r0
    5050:	76025001 	strvc	r5, [r2], -r1
    5054:	19000000 	stmdbne	r0, {}	; <UNPREDICTABLE>
    5058:	0000013f 	andeq	r0, r0, pc, lsr r1
    505c:	00009fe8 	andeq	r9, r0, r8, ror #31
    5060:	0000001c 	andeq	r0, r0, ip, lsl r0
    5064:	05a21d01 	streq	r1, [r2, #3329]!	; 0xd01
    5068:	6a1a0000 	bvs	685070 <__bss_end__+0x678ce8>
    506c:	54000001 	strpl	r0, [r0], #-1
    5070:	1b00001b 	blne	50e4 <_start-0x2f1c>
    5074:	0000015f 	andeq	r0, r0, pc, asr r1
    5078:	561b5401 	ldrpl	r5, [fp], -r1, lsl #8
    507c:	09000001 	stmdbeq	r0, {r0}
    5080:	20080077 	andcs	r0, r8, r7, ror r0
    5084:	1aff081a 	bne	fffc70f4 <__bss_end__+0xfffbad6c>
    5088:	014b1b9f 			; <UNDEFINED> instruction: 0x014b1b9f
    508c:	56010000 	strpl	r0, [r1], -r0
    5090:	00011119 	andeq	r1, r1, r9, lsl r1
    5094:	009ff400 	addseq	pc, pc, r0, lsl #8
    5098:	00001000 	andeq	r1, r0, r0
    509c:	881a0200 	ldmdahi	sl, {r9}
    50a0:	1a000005 	bne	50bc <_start-0x2f44>
    50a4:	00000128 	andeq	r0, r0, r8, lsr #2
    50a8:	00001b7e 	andeq	r1, r0, lr, ror fp
    50ac:	00011d1b 	andeq	r1, r1, fp, lsl sp
    50b0:	1d540100 	ldfnee	f0, [r4, #-0]
    50b4:	00009ff4 	strdeq	r9, [r0], -r4
    50b8:	00000004 	andeq	r0, r0, r4
    50bc:	0001321e 	andeq	r3, r1, lr, lsl r2
    50c0:	001ba800 	andseq	sl, fp, r0, lsl #16
    50c4:	1f000000 	svcne	0x00000000
    50c8:	00009ff4 	strdeq	r9, [r0], -r4
    50cc:	00001131 	andeq	r1, r0, r1, lsr r1
    50d0:	05510120 	ldrbeq	r0, [r1, #-288]	; 0x120
    50d4:	20080077 	andcs	r0, r8, r7, ror r0
    50d8:	5001201a 	andpl	r2, r1, sl, lsl r0
    50dc:	00007602 	andeq	r7, r0, r2, lsl #12
    50e0:	013f1900 	teqeq	pc, r0, lsl #18
    50e4:	a0080000 	andge	r0, r8, r0
    50e8:	001c0000 	andseq	r0, ip, r0
    50ec:	1f010000 	svcne	0x00010000
    50f0:	0000062c 	andeq	r0, r0, ip, lsr #12
    50f4:	00016a1a 	andeq	r6, r1, sl, lsl sl
    50f8:	001bbb00 	andseq	fp, fp, r0, lsl #22
    50fc:	015f1b00 	cmpeq	pc, r0, lsl #22
    5100:	54010000 	strpl	r0, [r1], #-0
    5104:	0001561b 	andeq	r5, r1, fp, lsl r6
    5108:	00770900 	rsbseq	r0, r7, r0, lsl #18
    510c:	081a4008 	ldmdaeq	sl, {r3, lr}
    5110:	1b9f1aff 	blne	fe7cbd14 <__bss_end__+0xfe7bf98c>
    5114:	0000014b 	andeq	r0, r0, fp, asr #2
    5118:	11195601 	tstne	r9, r1, lsl #12
    511c:	14000001 	strne	r0, [r0], #-1
    5120:	100000a0 	andne	r0, r0, r0, lsr #1
    5124:	02000000 	andeq	r0, r0, #0
    5128:	0006121a 	andeq	r1, r6, sl, lsl r2
    512c:	01281a00 	teqeq	r8, r0, lsl #20
    5130:	1bdd0000 	blne	ff745138 <__bss_end__+0xff738db0>
    5134:	1d1b0000 	ldcne	0, cr0, [fp, #-0]
    5138:	01000001 	tsteq	r0, r1
    513c:	a0141d54 	andsge	r1, r4, r4, asr sp
    5140:	00040000 	andeq	r0, r4, r0
    5144:	321e0000 	andscc	r0, lr, #0
    5148:	ff000001 			; <UNDEFINED> instruction: 0xff000001
    514c:	0000001b 	andeq	r0, r0, fp, lsl r0
    5150:	a0141f00 	andsge	r1, r4, r0, lsl #30
    5154:	11310000 	teqne	r1, r0
    5158:	01200000 	teqeq	r0, r0
    515c:	00770551 	rsbseq	r0, r7, r1, asr r5
    5160:	201a4008 	andscs	r4, sl, r8
    5164:	76025001 	strvc	r5, [r2], -r1
    5168:	19000000 	stmdbne	r0, {}	; <UNPREDICTABLE>
    516c:	0000013f 	andeq	r0, r0, pc, lsr r1
    5170:	0000a028 	andeq	sl, r0, r8, lsr #32
    5174:	0000001c 	andeq	r0, r0, ip, lsl r0
    5178:	06ac2101 	strteq	r2, [ip], r1, lsl #2
    517c:	6a1b0000 	bvs	6c5184 <__bss_end__+0x6b8dfc>
    5180:	01000001 	tsteq	r0, r1
    5184:	015f1b58 	cmpeq	pc, r8, asr fp	; <UNPREDICTABLE>
    5188:	54010000 	strpl	r0, [r1], #-0
    518c:	0001561a 	andeq	r5, r1, sl, lsl r6
    5190:	001c1200 	andseq	r1, ip, r0, lsl #4
    5194:	014b1b00 	cmpeq	fp, r0, lsl #22
    5198:	56010000 	strpl	r0, [r1], -r0
    519c:	00011119 	andeq	r1, r1, r9, lsl r1
    51a0:	00a03400 	adceq	r3, r0, r0, lsl #8
    51a4:	00001000 	andeq	r1, r0, r0
    51a8:	921a0200 	andsls	r0, sl, #0, 4
    51ac:	1b000006 	blne	51cc <_start-0x2e34>
    51b0:	00000128 	andeq	r0, r0, r8, lsr #2
    51b4:	1d1b5801 	ldcne	8, cr5, [fp, #-4]
    51b8:	01000001 	tsteq	r0, r1
    51bc:	a0341d54 	eorsge	r1, r4, r4, asr sp
    51c0:	00040000 	andeq	r0, r4, r0
    51c4:	321e0000 	andscc	r0, lr, #0
    51c8:	45000001 	strmi	r0, [r0, #-1]
    51cc:	0000001c 	andeq	r0, r0, ip, lsl r0
    51d0:	a0341f00 	eorsge	r1, r4, r0, lsl #30
    51d4:	11310000 	teqne	r1, r0
    51d8:	01200000 	teqeq	r0, r0
    51dc:	00770551 	rsbseq	r0, r7, r1, asr r5
    51e0:	201a8008 	andscs	r8, sl, r8
    51e4:	76025001 	strvc	r5, [r2], -r1
    51e8:	21000000 	mrscs	r0, (UNDEF: 0)
    51ec:	0000013f 	andeq	r0, r0, pc, lsr r1
    51f0:	0000a048 	andeq	sl, r0, r8, asr #32
    51f4:	0000001c 	andeq	r0, r0, ip, lsl r0
    51f8:	6a1b2301 	bvs	6cde04 <__bss_end__+0x6c1a7c>
    51fc:	01000001 	tsteq	r0, r1
    5200:	015f1b55 	cmpeq	pc, r5, asr fp	; <UNPREDICTABLE>
    5204:	54010000 	strpl	r0, [r1], #-0
    5208:	0001561c 	andeq	r5, r1, ip, lsl r6
    520c:	4b1b0100 	blmi	6c5614 <__bss_end__+0x6b928c>
    5210:	01000001 	tsteq	r0, r1
    5214:	01111956 	tsteq	r1, r6, asr r9
    5218:	a0540000 	subsge	r0, r4, r0
    521c:	00100000 	andseq	r0, r0, r0
    5220:	1a020000 	bne	85228 <__bss_end__+0x78ea0>
    5224:	0000070b 	andeq	r0, r0, fp, lsl #14
    5228:	0001281b 	andeq	r2, r1, fp, lsl r8
    522c:	1b550100 	blne	1545634 <__bss_end__+0x15392ac>
    5230:	0000011d 	andeq	r0, r0, sp, lsl r1
    5234:	541d5401 	ldrpl	r5, [sp], #-1025	; 0x401
    5238:	040000a0 	streq	r0, [r0], #-160	; 0xa0
    523c:	1e000000 	cdpne	0, 0, cr0, cr0, cr0, {0}
    5240:	00000132 	andeq	r0, r0, r2, lsr r1
    5244:	00001c58 	andeq	r1, r0, r8, asr ip
    5248:	541f0000 	ldrpl	r0, [pc], #-0	; 5250 <_start-0x2db0>
    524c:	310000a0 	smlatbcc	r0, r0, r0, r0
    5250:	20000011 	andcs	r0, r0, r1, lsl r0
    5254:	31015101 	tstcc	r1, r1, lsl #2
    5258:	02500120 	subseq	r0, r0, #32, 2
    525c:	00000076 	andeq	r0, r0, r6, ror r0
    5260:	d9040600 	stmdble	r4, {r9, sl}
    5264:	22000000 	andcs	r0, r0, #0
    5268:	00000f46 	andeq	r0, r0, r6, asr #30
    526c:	00252701 	eoreq	r2, r5, r1, lsl #14
    5270:	62030000 	andvs	r0, r3, #0
    5274:	0f000007 	svceq	0x00000007
    5278:	01007872 	tsteq	r0, r2, ror r8
    527c:	00002527 	andeq	r2, r0, r7, lsr #10
    5280:	00760f00 	rsbseq	r0, r6, r0, lsl #30
    5284:	00252701 	eoreq	r2, r5, r1, lsl #14
    5288:	9a0e0000 	bls	385290 <__bss_end__+0x378f08>
    528c:	0100000e 	tsteq	r0, lr
    5290:	00002c27 	andeq	r2, r0, r7, lsr #24
    5294:	0cda1100 	ldfeqe	f1, [sl], {0}
    5298:	28010000 	stmdacs	r1, {}	; <UNPREDICTABLE>
    529c:	0000002c 	andeq	r0, r0, ip, lsr #32
    52a0:	0e3b2300 	cdpeq	3, 3, cr2, cr11, cr0, {0}
    52a4:	34010000 	strcc	r0, [r1], #-0
    52a8:	00000025 	andeq	r0, r0, r5, lsr #32
    52ac:	0000a068 	andeq	sl, r0, r8, rrx
    52b0:	000001c8 	andeq	r0, r0, r8, asr #3
    52b4:	0b1e9c01 	bleq	7ac2c0 <__bss_end__+0x79ff38>
    52b8:	8d130000 	ldchi	0, cr0, [r3, #-0]
    52bc:	0100000c 	tsteq	r0, ip
    52c0:	00072234 	andeq	r2, r7, r4, lsr r2
    52c4:	001c6b00 	andseq	r6, ip, r0, lsl #22
    52c8:	0e9a1300 	cdpeq	3, 9, cr1, cr10, cr0, {0}
    52cc:	34010000 	strcc	r0, [r1], #-0
    52d0:	00000025 	andeq	r0, r0, r5, lsr #32
    52d4:	00001cb0 			; <UNDEFINED> instruction: 0x00001cb0
    52d8:	00787215 	rsbseq	r7, r8, r5, lsl r2
    52dc:	00253501 	eoreq	r3, r5, r1, lsl #10
    52e0:	55010000 	strpl	r0, [r1, #-0]
    52e4:	01007316 	tsteq	r0, r6, lsl r3
    52e8:	00002c3c 	andeq	r2, r0, ip, lsr ip
    52ec:	001cce00 	andseq	ip, ip, r0, lsl #28
    52f0:	00751600 	rsbseq	r1, r5, r0, lsl #12
    52f4:	00683f01 	rsbeq	r3, r8, r1, lsl #30
    52f8:	1ce10000 	stclne	0, cr0, [r1]
    52fc:	6e160000 	cdpvs	0, 1, cr0, cr6, cr0, {0}
    5300:	2c400100 	stfcse	f0, [r0], {-0}
    5304:	f4000000 	vst4.8	{d0-d3}, [r0], r0
    5308:	1600001c 			; <UNDEFINED> instruction: 0x1600001c
    530c:	41010063 	tstmi	r1, r3, rrx
    5310:	0000002c 	andeq	r0, r0, ip, lsr #32
    5314:	00001d0b 	andeq	r1, r0, fp, lsl #26
    5318:	00072819 	andeq	r2, r7, r9, lsl r8
    531c:	00a07c00 	adceq	r7, r0, r0, lsl #24
    5320:	00003400 	andeq	r3, r0, r0, lsl #8
    5324:	3c380100 	ldfccs	f0, [r8], #-0
    5328:	1a000008 	bne	5350 <_start-0x2cb0>
    532c:	0000074b 	andeq	r0, r0, fp, asr #14
    5330:	00001d35 	andeq	r1, r0, r5, lsr sp
    5334:	0007421c 	andeq	r4, r7, ip, lsl r2
    5338:	381b0000 	ldmdacc	fp, {}	; <UNPREDICTABLE>
    533c:	01000007 	tsteq	r0, r7
    5340:	a07c1d55 	rsbsge	r1, ip, r5, asr sp
    5344:	00340000 	eorseq	r0, r4, r0
    5348:	561e0000 	ldrpl	r0, [lr], -r0
    534c:	53000007 	movwpl	r0, #7
    5350:	2400001d 	strcs	r0, [r0], #-29
    5354:	0000a080 	andeq	sl, r0, r0, lsl #1
    5358:	00001147 	andeq	r1, r0, r7, asr #2
    535c:	00a08c25 	adceq	r8, r0, r5, lsr #24
    5360:	00115200 	andseq	r5, r1, r0, lsl #4
    5364:	00083100 	andeq	r3, r8, r0, lsl #2
    5368:	50012000 	andpl	r2, r1, r0
    536c:	00007502 	andeq	r7, r0, r2, lsl #10
    5370:	00a09824 	adceq	r9, r0, r4, lsr #16
    5374:	00114700 	andseq	r4, r1, r0, lsl #14
    5378:	17000000 	strne	r0, [r0, -r0]
    537c:	0000a0b8 	strheq	sl, [r0], -r8
    5380:	00000004 	andeq	r0, r0, r4
    5384:	00000859 	andeq	r0, r0, r9, asr r8
    5388:	000eec26 	andeq	lr, lr, r6, lsr #24
    538c:	2c3c0100 	ldfcss	f0, [ip], #-0
    5390:	71000000 	mrsvc	r0, (UNDEF: 0)
    5394:	0000001d 	andeq	r0, r0, sp, lsl r0
    5398:	00011119 	andeq	r1, r1, r9, lsl r1
    539c:	00a0c400 	adceq	ip, r0, r0, lsl #8
    53a0:	00001000 	andeq	r1, r0, r0
    53a4:	92440100 	subls	r0, r4, #0, 2
    53a8:	1a000008 	bne	53d0 <_start-0x2c30>
    53ac:	00000128 	andeq	r0, r0, r8, lsr #2
    53b0:	00001d84 	andeq	r1, r0, r4, lsl #27
    53b4:	00011d1a 	andeq	r1, r1, sl, lsl sp
    53b8:	001da900 	andseq	sl, sp, r0, lsl #18
    53bc:	a0c41d00 	sbcge	r1, r4, r0, lsl #26
    53c0:	00040000 	andeq	r0, r4, r0
    53c4:	321e0000 	andscc	r0, lr, #0
    53c8:	bc000001 	stclt	0, cr0, [r0], {1}
    53cc:	0000001d 	andeq	r0, r0, sp, lsl r0
    53d0:	01111900 	tsteq	r1, r0, lsl #18
    53d4:	a0e40000 	rscge	r0, r4, r0
    53d8:	00100000 	andseq	r0, r0, r0
    53dc:	48010000 	stmdami	r1, {}	; <UNPREDICTABLE>
    53e0:	000008cb 	andeq	r0, r0, fp, asr #17
    53e4:	0001281a 	andeq	r2, r1, sl, lsl r8
    53e8:	001dcf00 	andseq	ip, sp, r0, lsl #30
    53ec:	011d1a00 	tsteq	sp, r0, lsl #20
    53f0:	1de20000 	stclne	0, cr0, [r2]
    53f4:	e41d0000 	ldr	r0, [sp], #-0
    53f8:	040000a0 	streq	r0, [r0], #-160	; 0xa0
    53fc:	1e000000 	cdpne	0, 0, cr0, cr0, cr0, {0}
    5400:	00000132 	andeq	r0, r0, r2, lsr r1
    5404:	00001df5 	strdeq	r1, [r0], -r5
    5408:	11190000 	tstne	r9, r0
    540c:	08000001 	stmdaeq	r0, {r0}
    5410:	100000a1 	andne	r0, r0, r1, lsr #1
    5414:	01000000 	mrseq	r0, (UNDEF: 0)
    5418:	0009044b 	andeq	r0, r9, fp, asr #8
    541c:	01281a00 	teqeq	r8, r0, lsl #20
    5420:	1e080000 	cdpne	0, 0, cr0, cr8, cr0, {0}
    5424:	1d1a0000 	ldcne	0, cr0, [sl, #-0]
    5428:	1b000001 	blne	5434 <_start-0x2bcc>
    542c:	1d00001e 	stcne	0, cr0, [r0, #-120]	; 0xffffff88
    5430:	0000a108 	andeq	sl, r0, r8, lsl #2
    5434:	00000004 	andeq	r0, r0, r4
    5438:	0001321e 	andeq	r3, r1, lr, lsl r2
    543c:	001e2e00 	andseq	r2, lr, r0, lsl #28
    5440:	19000000 	stmdbne	r0, {}	; <UNPREDICTABLE>
    5444:	00000111 	andeq	r0, r0, r1, lsl r1
    5448:	0000a12c 	andeq	sl, r0, ip, lsr #2
    544c:	00000010 	andeq	r0, r0, r0, lsl r0
    5450:	093d4e01 	ldmdbeq	sp!, {r0, r9, sl, fp, lr}
    5454:	281a0000 	ldmdacs	sl, {}	; <UNPREDICTABLE>
    5458:	41000001 	tstmi	r0, r1
    545c:	1a00001e 	bne	54dc <_start-0x2b24>
    5460:	0000011d 	andeq	r0, r0, sp, lsl r1
    5464:	00001e54 	andeq	r1, r0, r4, asr lr
    5468:	00a12c1d 	adceq	r2, r1, sp, lsl ip
    546c:	00000400 	andeq	r0, r0, r0, lsl #8
    5470:	01321e00 	teqeq	r2, r0, lsl #28
    5474:	1e670000 	cdpne	0, 6, cr0, cr7, cr0, {0}
    5478:	00000000 	andeq	r0, r0, r0
    547c:	00011119 	andeq	r1, r1, r9, lsl r1
    5480:	00a15000 	adceq	r5, r1, r0
    5484:	00001000 	andeq	r1, r0, r0
    5488:	76510100 	ldrbvc	r0, [r1], -r0, lsl #2
    548c:	1a000009 	bne	54b8 <_start-0x2b48>
    5490:	00000128 	andeq	r0, r0, r8, lsr #2
    5494:	00001e7a 	andeq	r1, r0, sl, ror lr
    5498:	00011d1a 	andeq	r1, r1, sl, lsl sp
    549c:	001e8d00 	andseq	r8, lr, r0, lsl #26
    54a0:	a1501d00 	cmpge	r0, r0, lsl #26
    54a4:	00040000 	andeq	r0, r4, r0
    54a8:	321e0000 	andscc	r0, lr, #0
    54ac:	a0000001 	andge	r0, r0, r1
    54b0:	0000001e 	andeq	r0, r0, lr, lsl r0
    54b4:	01111900 	tsteq	r1, r0, lsl #18
    54b8:	a1740000 	cmnge	r4, r0
    54bc:	00100000 	andseq	r0, r0, r0
    54c0:	54010000 	strpl	r0, [r1], #-0
    54c4:	000009af 	andeq	r0, r0, pc, lsr #19
    54c8:	0001281a 	andeq	r2, r1, sl, lsl r8
    54cc:	001eb300 	andseq	fp, lr, r0, lsl #6
    54d0:	011d1a00 	tsteq	sp, r0, lsl #20
    54d4:	1ec60000 	cdpne	0, 12, cr0, cr6, cr0, {0}
    54d8:	741d0000 	ldrvc	r0, [sp], #-0
    54dc:	040000a1 	streq	r0, [r0], #-161	; 0xa1
    54e0:	1e000000 	cdpne	0, 0, cr0, cr0, cr0, {0}
    54e4:	00000132 	andeq	r0, r0, r2, lsr r1
    54e8:	00001ed9 	ldrdeq	r1, [r0], -r9
    54ec:	11190000 	tstne	r9, r0
    54f0:	98000001 	stmdals	r0, {r0}
    54f4:	100000a1 	andne	r0, r0, r1, lsr #1
    54f8:	01000000 	mrseq	r0, (UNDEF: 0)
    54fc:	0009e857 	andeq	lr, r9, r7, asr r8
    5500:	01281a00 	teqeq	r8, r0, lsl #20
    5504:	1eec0000 	cdpne	0, 14, cr0, cr12, cr0, {0}
    5508:	1d1a0000 	ldcne	0, cr0, [sl, #-0]
    550c:	ff000001 			; <UNDEFINED> instruction: 0xff000001
    5510:	1d00001e 	stcne	0, cr0, [r0, #-120]	; 0xffffff88
    5514:	0000a198 	muleq	r0, r8, r1
    5518:	00000004 	andeq	r0, r0, r4
    551c:	0001321e 	andeq	r3, r1, lr, lsl r2
    5520:	001f1200 	andseq	r1, pc, r0, lsl #4
    5524:	19000000 	stmdbne	r0, {}	; <UNPREDICTABLE>
    5528:	00000111 	andeq	r0, r0, r1, lsl r1
    552c:	0000a1bc 			; <UNDEFINED> instruction: 0x0000a1bc
    5530:	00000010 	andeq	r0, r0, r0, lsl r0
    5534:	0a1d5a01 	beq	75bd40 <__bss_end__+0x74f9b8>
    5538:	281a0000 	ldmdacs	sl, {}	; <UNPREDICTABLE>
    553c:	25000001 	strcs	r0, [r0, #-1]
    5540:	2700001f 	smladcs	r0, pc, r0, r0	; <UNPREDICTABLE>
    5544:	0000011d 	andeq	r0, r0, sp, lsl r1
    5548:	00a1bc1d 	adceq	fp, r1, sp, lsl ip
    554c:	00000400 	andeq	r0, r0, r0, lsl #8
    5550:	01321e00 	teqeq	r2, r0, lsl #28
    5554:	1f380000 	svcne	0x00380000
    5558:	00000000 	andeq	r0, r0, r0
    555c:	00072819 	andeq	r2, r7, r9, lsl r8
    5560:	00a1dc00 	adceq	sp, r1, r0, lsl #24
    5564:	00003400 	andeq	r3, r0, r0, lsl #8
    5568:	81610100 	cmnhi	r1, r0, lsl #2
    556c:	2700000a 	strcs	r0, [r0, -sl]
    5570:	0000074b 	andeq	r0, r0, fp, asr #14
    5574:	0007421a 	andeq	r4, r7, sl, lsl r2
    5578:	001f4b00 	andseq	r4, pc, r0, lsl #22
    557c:	07381a00 	ldreq	r1, [r8, -r0, lsl #20]!
    5580:	1f6b0000 	svcne	0x006b0000
    5584:	dc1d0000 	ldcle	0, cr0, [sp], {-0}
    5588:	340000a1 	strcc	r0, [r0], #-161	; 0xa1
    558c:	1e000000 	cdpne	0, 0, cr0, cr0, cr0, {0}
    5590:	00000756 	andeq	r0, r0, r6, asr r7
    5594:	00001f89 	andeq	r1, r0, r9, lsl #31
    5598:	00a1e024 	adceq	lr, r1, r4, lsr #32
    559c:	00114700 	andseq	r4, r1, r0, lsl #14
    55a0:	a1ec2500 	mvnge	r2, r0, lsl #10
    55a4:	11520000 	cmpne	r2, r0
    55a8:	0a760000 	beq	1d855b0 <__bss_end__+0x1d79228>
    55ac:	01200000 	teqeq	r0, r0
    55b0:	00750250 	rsbseq	r0, r5, r0, asr r2
    55b4:	a1f82400 	mvnsge	r2, r0, lsl #8
    55b8:	11470000 	mrsne	r0, (UNDEF: 71)
    55bc:	00000000 	andeq	r0, r0, r0
    55c0:	00a0e025 	adceq	lr, r0, r5, lsr #32
    55c4:	00115200 	andseq	r5, r1, r0, lsl #4
    55c8:	000a9500 	andeq	r9, sl, r0, lsl #10
    55cc:	50012000 	andpl	r2, r1, r0
    55d0:	00007502 	andeq	r7, r0, r2, lsl #10
    55d4:	00a10025 	adceq	r0, r1, r5, lsr #32
    55d8:	00115200 	andseq	r5, r1, r0, lsl #4
    55dc:	000aa900 	andeq	sl, sl, r0, lsl #18
    55e0:	50012000 	andpl	r2, r1, r0
    55e4:	00007502 	andeq	r7, r0, r2, lsl #10
    55e8:	00a12425 	adceq	r2, r1, r5, lsr #8
    55ec:	00115200 	andseq	r5, r1, r0, lsl #4
    55f0:	000abd00 	andeq	fp, sl, r0, lsl #26
    55f4:	50012000 	andpl	r2, r1, r0
    55f8:	00007502 	andeq	r7, r0, r2, lsl #10
    55fc:	00a14825 	adceq	r4, r1, r5, lsr #16
    5600:	00115200 	andseq	r5, r1, r0, lsl #4
    5604:	000ad100 	andeq	sp, sl, r0, lsl #2
    5608:	50012000 	andpl	r2, r1, r0
    560c:	00007502 	andeq	r7, r0, r2, lsl #10
    5610:	00a16c25 	adceq	r6, r1, r5, lsr #24
    5614:	00115200 	andseq	r5, r1, r0, lsl #4
    5618:	000ae500 	andeq	lr, sl, r0, lsl #10
    561c:	50012000 	andpl	r2, r1, r0
    5620:	00007502 	andeq	r7, r0, r2, lsl #10
    5624:	00a19025 	adceq	r9, r1, r5, lsr #32
    5628:	00115200 	andseq	r5, r1, r0, lsl #4
    562c:	000af900 	andeq	pc, sl, r0, lsl #18
    5630:	50012000 	andpl	r2, r1, r0
    5634:	00007502 	andeq	r7, r0, r2, lsl #10
    5638:	00a1b425 	adceq	fp, r1, r5, lsr #8
    563c:	00115200 	andseq	r5, r1, r0, lsl #4
    5640:	000b0d00 	andeq	r0, fp, r0, lsl #26
    5644:	50012000 	andpl	r2, r1, r0
    5648:	00007502 	andeq	r7, r0, r2, lsl #10
    564c:	00a1d41f 	adceq	sp, r1, pc, lsl r4
    5650:	00115200 	andseq	r5, r1, r0, lsl #4
    5654:	50012000 	andpl	r2, r1, r0
    5658:	00007502 	andeq	r7, r0, r2, lsl #10
    565c:	0e502300 	cdpeq	3, 5, cr2, cr0, cr0, {0}
    5660:	6c010000 	stcvs	0, cr0, [r1], {-0}
    5664:	00000025 	andeq	r0, r0, r5, lsr #32
    5668:	0000a230 	andeq	sl, r0, r0, lsr r2
    566c:	00000090 	muleq	r0, r0, r0
    5670:	0c029c01 	stceq	12, cr9, [r2], {1}
    5674:	75140000 	ldrvc	r0, [r4, #-0]
    5678:	226c0100 	rsbcs	r0, ip, #0, 2
    567c:	a7000007 	strge	r0, [r0, -r7]
    5680:	1400001f 	strne	r0, [r0], #-31
    5684:	00667562 	rsbeq	r7, r6, r2, ror #10
    5688:	0c026c01 	stceq	12, cr6, [r2], {1}
    568c:	1fdb0000 	svcne	0x00db0000
    5690:	f1130000 			; <UNDEFINED> instruction: 0xf1130000
    5694:	0100000e 	tsteq	r0, lr
    5698:	0000686c 	andeq	r6, r0, ip, ror #16
    569c:	00200f00 	eoreq	r0, r0, r0, lsl #30
    56a0:	6e651400 	cdpvs	4, 6, cr1, cr5, cr0, {0}
    56a4:	6c010064 	stcvs	0, cr0, [r1], {100}	; 0x64
    56a8:	0000004f 	andeq	r0, r0, pc, asr #32
    56ac:	00002048 	andeq	r2, r0, r8, asr #32
    56b0:	000f0328 	andeq	r0, pc, r8, lsr #6
    56b4:	686c0100 	stmdavs	ip!, {r8}^
    56b8:	02000000 	andeq	r0, r0, #0
    56bc:	bf290091 	svclt	0x00290091
    56c0:	18000001 	stmdane	r0, {r0}
    56c4:	0500000c 	streq	r0, [r0, #-12]
    56c8:	00bd0803 	adcseq	r0, sp, r3, lsl #16
    56cc:	00691600 	rsbeq	r1, r9, r0, lsl #12
    56d0:	00257001 	eoreq	r7, r5, r1
    56d4:	20820000 	addcs	r0, r2, r0
    56d8:	cf260000 	svcgt	0x00260000
    56dc:	0100000e 	tsteq	r0, lr
    56e0:	00004f71 	andeq	r4, r0, r1, ror pc
    56e4:	0020a100 	eoreq	sl, r0, r0, lsl #2
    56e8:	a2502400 	subsge	r2, r0, #0, 8
    56ec:	11670000 	cmnne	r7, r0
    56f0:	64250000 	strtvs	r0, [r5], #-0
    56f4:	6e0000a2 	cdpvs	0, 0, cr0, cr0, cr2, {5}
    56f8:	e2000011 	and	r0, r0, #17
    56fc:	2000000b 	andcs	r0, r0, fp
    5700:	08025301 	stmdaeq	r2, {r0, r8, r9, ip, lr}
    5704:	5201206d 	andpl	r2, r1, #109	; 0x6d
    5708:	bd080305 	stclt	3, cr0, [r8, #-20]	; 0xffffffec
    570c:	01200000 	teqeq	r0, r0
    5710:	9c030551 	cfstr32ls	mvfx0, [r3], {81}	; 0x51
    5714:	200000bd 	strhcs	r0, [r0], -sp
    5718:	03055001 	movweq	r5, #20481	; 0x5001
    571c:	0000bd80 	andeq	fp, r0, r0, lsl #27
    5720:	a2682400 	rsbge	r2, r8, #0, 8
    5724:	11840000 	orrne	r0, r4, r0
    5728:	841f0000 	ldrhi	r0, [pc], #-0	; 5730 <_start-0x28d0>
    572c:	620000a2 	andvs	r0, r0, #162	; 0xa2
    5730:	20000007 	andcs	r0, r0, r7
    5734:	7a025101 	bvc	99b40 <__bss_end__+0x8d7b8>
    5738:	50012000 	andpl	r2, r1, r0
    573c:	00007802 	andeq	r7, r0, r2, lsl #16
    5740:	4f040600 	svcmi	0x00040600
    5744:	2a000000 	bcs	574c <_start-0x28b4>
    5748:	00000090 	muleq	r0, r0, r0
    574c:	00000c18 	andeq	r0, r0, r8, lsl ip
    5750:	0000812b 	andeq	r8, r0, fp, lsr #2
    5754:	07001200 	streq	r1, [r0, -r0, lsl #4]
    5758:	00000c08 	andeq	r0, r0, r8, lsl #24
    575c:	000ed723 	andeq	sp, lr, r3, lsr #14
    5760:	25800100 	strcs	r0, [r0, #256]	; 0x100
    5764:	c0000000 	andgt	r0, r0, r0
    5768:	7c0000a2 	stcvc	0, cr0, [r0], {162}	; 0xa2
    576c:	01000000 	mrseq	r0, (UNDEF: 0)
    5770:	000ce49c 	muleq	ip, ip, r4
    5774:	00751400 	rsbseq	r1, r5, r0, lsl #8
    5778:	07228001 	streq	r8, [r2, -r1]!
    577c:	20b40000 	adcscs	r0, r4, r0
    5780:	62140000 	andsvs	r0, r4, #0
    5784:	01006675 	tsteq	r0, r5, ror r6
    5788:	000c0280 	andeq	r0, ip, r0, lsl #5
    578c:	0020e800 	eoreq	lr, r0, r0, lsl #16
    5790:	0ef11300 	cdpeq	3, 15, cr1, cr1, cr0, {0}
    5794:	81010000 	mrshi	r0, (UNDEF: 1)
    5798:	00000068 	andeq	r0, r0, r8, rrx
    579c:	0000211c 	andeq	r2, r0, ip, lsl r1
    57a0:	000f0313 	andeq	r0, pc, r3, lsl r3	; <UNPREDICTABLE>
    57a4:	68810100 	stmvs	r1, {r8}
    57a8:	55000000 	strpl	r0, [r0, #-0]
    57ac:	29000021 	stmdbcs	r0, {r0, r5}
    57b0:	000001bf 			; <UNDEFINED> instruction: 0x000001bf
    57b4:	00000cf4 	strdeq	r0, [r0], -r4
    57b8:	bd1c0305 	ldclt	3, cr0, [ip, #-20]	; 0xffffffec
    57bc:	69160000 	ldmdbvs	r6, {}	; <UNPREDICTABLE>
    57c0:	25860100 	strcs	r0, [r6, #256]	; 0x100
    57c4:	89000000 	stmdbhi	r0, {}	; <UNPREDICTABLE>
    57c8:	24000021 	strcs	r0, [r0], #-33	; 0x21
    57cc:	0000a2dc 	ldrdeq	sl, [r0], -ip
    57d0:	00001167 	andeq	r1, r0, r7, ror #2
    57d4:	00a2f025 	adceq	pc, r2, r5, lsr #32
    57d8:	00116e00 	andseq	r6, r1, r0, lsl #28
    57dc:	000cc400 	andeq	ip, ip, r0, lsl #8
    57e0:	53012000 	movwpl	r2, #4096	; 0x1000
    57e4:	20830802 	addcs	r0, r3, r2, lsl #16
    57e8:	03055201 	movweq	r5, #20993	; 0x5201
    57ec:	0000bd1c 	andeq	fp, r0, ip, lsl sp
    57f0:	05510120 	ldrbeq	r0, [r1, #-288]	; 0x120
    57f4:	00bd9c03 	adcseq	r9, sp, r3, lsl #24
    57f8:	50012000 	andpl	r2, r1, r0
    57fc:	bd800305 	stclt	3, cr0, [r0, #20]
    5800:	24000000 	strcs	r0, [r0], #-0
    5804:	0000a2f4 	strdeq	sl, [r0], -r4
    5808:	00001184 	andeq	r1, r0, r4, lsl #3
    580c:	00a3101f 	adceq	r1, r3, pc, lsl r0
    5810:	00076200 	andeq	r6, r7, r0, lsl #4
    5814:	51012000 	mrspl	r2, (UNDEF: 1)
    5818:	20007802 	andcs	r7, r0, r2, lsl #16
    581c:	77025001 	strvc	r5, [r2, -r1]
    5820:	2a000000 	bcs	5828 <_start-0x27d8>
    5824:	00000090 	muleq	r0, r0, r0
    5828:	00000cf4 	strdeq	r0, [r0], -r4
    582c:	0000812b 	andeq	r8, r0, fp, lsr #2
    5830:	07001400 	streq	r1, [r0, -r0, lsl #8]
    5834:	00000ce4 	andeq	r0, r0, r4, ror #25
    5838:	000e8623 	andeq	r8, lr, r3, lsr #12
    583c:	d9930100 	ldmible	r3, {r8}
    5840:	3c000000 	stccc	0, cr0, [r0], {-0}
    5844:	c00000a3 	andgt	r0, r0, r3, lsr #1
    5848:	01000000 	mrseq	r0, (UNDEF: 0)
    584c:	000e149c 	muleq	lr, ip, r4
    5850:	78741400 	ldmdavc	r4!, {sl, ip}^
    5854:	4f930100 	svcmi	0x00930100
    5858:	a8000000 	stmdage	r0, {}	; <UNPREDICTABLE>
    585c:	14000021 	strne	r0, [r0], #-33	; 0x21
    5860:	01007872 	tsteq	r0, r2, ror r8
    5864:	00004f93 	muleq	r0, r3, pc	; <UNPREDICTABLE>
    5868:	0021c900 	eoreq	ip, r1, r0, lsl #18
    586c:	0cc61300 	stcleq	3, cr1, [r6], {0}
    5870:	93010000 	movwls	r0, #4096	; 0x1000
    5874:	00000068 	andeq	r0, r0, r8, rrx
    5878:	000021ea 	andeq	r2, r0, sl, ror #3
    587c:	000e1f28 	andeq	r1, lr, r8, lsr #30
    5880:	68930100 	ldmvs	r3, {r8}
    5884:	02000000 	andeq	r0, r0, #0
    5888:	6d2c0091 	stcvs	0, cr0, [ip, #-580]!	; 0xfffffdbc
    588c:	01007a68 	tsteq	r0, r8, ror #20
    5890:	00002c9b 	muleq	r0, fp, ip
    5894:	b9270000 	stmdblt	r7!, {}	; <UNPREDICTABLE>
    5898:	0e702629 	cdpeq	6, 7, cr2, cr0, cr9, {1}
    589c:	9c010000 	stcls	0, cr0, [r1], {-0}
    58a0:	0000002c 	andeq	r0, r0, ip, lsr #32
    58a4:	00002208 	andeq	r2, r0, r8, lsl #4
    58a8:	0001bf29 	andeq	fp, r1, r9, lsr #30
    58ac:	000e2400 	andeq	r2, lr, r0, lsl #8
    58b0:	34030500 	strcc	r0, [r3], #-1280	; 0x500
    58b4:	170000bd 			; <UNDEFINED> instruction: 0x170000bd
    58b8:	0000a364 	andeq	sl, r0, r4, ror #6
    58bc:	00000008 	andeq	r0, r0, r8
    58c0:	00000d91 	muleq	r0, r1, sp
    58c4:	006e692d 	rsbeq	r6, lr, sp, lsr #18
    58c8:	002c9701 	eoreq	r9, ip, r1, lsl #14
    58cc:	00010000 	andeq	r0, r1, r0
    58d0:	00a35c25 	adceq	r5, r3, r5, lsr #24
    58d4:	00118b00 	andseq	r8, r1, r0, lsl #22
    58d8:	000da500 	andeq	sl, sp, r0, lsl #10
    58dc:	50012000 	andpl	r2, r1, r0
    58e0:	00007602 	andeq	r7, r0, r2, lsl #12
    58e4:	00a36425 	adceq	r6, r3, r5, lsr #8
    58e8:	00119c00 	andseq	r9, r1, r0, lsl #24
    58ec:	000db900 	andeq	fp, sp, r0, lsl #18
    58f0:	50012000 	andpl	r2, r1, r0
    58f4:	00007802 	andeq	r7, r0, r2, lsl #16
    58f8:	00a37825 	adceq	r7, r3, r5, lsr #16
    58fc:	00113100 	andseq	r3, r1, r0, lsl #2
    5900:	000dd200 	andeq	sp, sp, r0, lsl #4
    5904:	51012000 	mrspl	r2, (UNDEF: 1)
    5908:	01203101 	teqeq	r0, r1, lsl #2
    590c:	00760250 	rsbseq	r0, r6, r0, asr r2
    5910:	a3bc2400 			; <UNDEFINED> instruction: 0xa3bc2400
    5914:	11670000 	cmnne	r7, r0
    5918:	d0250000 	eorle	r0, r5, r0
    591c:	6e0000a3 	cdpvs	0, 0, cr0, cr0, cr3, {5}
    5920:	0a000011 	beq	596c <_start-0x2694>
    5924:	2000000e 	andcs	r0, r0, lr
    5928:	08025301 	stmdaeq	r2, {r0, r8, r9, ip, lr}
    592c:	5201209d 	andpl	r2, r1, #157	; 0x9d
    5930:	bd340305 	ldclt	3, cr0, [r4, #-20]!	; 0xffffffec
    5934:	01200000 	teqeq	r0, r0
    5938:	9c030551 	cfstr32ls	mvfx0, [r3], {81}	; 0x51
    593c:	200000bd 	strhcs	r0, [r0], -sp
    5940:	03055001 	movweq	r5, #20481	; 0x5001
    5944:	0000bdb0 			; <UNDEFINED> instruction: 0x0000bdb0
    5948:	a3d42400 	bicsge	r2, r4, #0, 8
    594c:	11840000 	orrne	r0, r4, r0
    5950:	2a000000 	bcs	5958 <_start-0x26a8>
    5954:	00000090 	muleq	r0, r0, r0
    5958:	00000e24 	andeq	r0, r0, r4, lsr #28
    595c:	0000812b 	andeq	r8, r0, fp, lsr #2
    5960:	07001300 	streq	r1, [r0, -r0, lsl #6]
    5964:	00000e14 	andeq	r0, r0, r4, lsl lr
    5968:	000e6323 	andeq	r6, lr, r3, lsr #6
    596c:	25a90100 	strcs	r0, [r9, #256]!	; 0x100
    5970:	fc000000 	stc2	0, cr0, [r0], {-0}
    5974:	3c0000a3 	stccc	0, cr0, [r0], {163}	; 0xa3
    5978:	01000000 	mrseq	r0, (UNDEF: 0)
    597c:	000ecc9c 	muleq	lr, ip, ip
    5980:	0c8d1300 	stceq	3, cr1, [sp], {0}
    5984:	a9010000 	stmdbge	r1, {}	; <UNPREDICTABLE>
    5988:	00000722 	andeq	r0, r0, r2, lsr #14
    598c:	00002236 	andeq	r2, r0, r6, lsr r2
    5990:	73657216 	cmnvc	r5, #1610612737	; 0x60000001
    5994:	25aa0100 	strcs	r0, [sl, #256]!	; 0x100
    5998:	57000000 	strpl	r0, [r0, -r0]
    599c:	29000022 	stmdbcs	r0, {r1, r5}
    59a0:	000001bf 			; <UNDEFINED> instruction: 0x000001bf
    59a4:	00000edc 	ldrdeq	r0, [r0], -ip
    59a8:	bd480305 	stcllt	3, cr0, [r8, #-20]	; 0xffffffec
    59ac:	08250000 	stmdaeq	r5!, {}	; <UNPREDICTABLE>
    59b0:	620000a4 	andvs	r0, r0, #164	; 0xa4
    59b4:	8a000007 	bhi	59d8 <_start-0x2628>
    59b8:	2000000e 	andcs	r0, r0, lr
    59bc:	09025101 	stmdbeq	r2, {r0, r8, ip, lr}
    59c0:	500120ff 	strdpl	r2, [r1], -pc	; <UNPREDICTABLE>
    59c4:	5001f303 	andpl	pc, r1, r3, lsl #6
    59c8:	a4142400 	ldrge	r2, [r4], #-1024	; 0x400
    59cc:	11670000 	cmnne	r7, r0
    59d0:	28250000 	stmdacs	r5!, {}	; <UNPREDICTABLE>
    59d4:	6e0000a4 	cdpvs	0, 0, cr0, cr0, cr4, {5}
    59d8:	c2000011 	andgt	r0, r0, #17
    59dc:	2000000e 	andcs	r0, r0, lr
    59e0:	08025301 	stmdaeq	r2, {r0, r8, r9, ip, lr}
    59e4:	520120ac 	andpl	r2, r1, #172	; 0xac
    59e8:	bd480305 	stcllt	3, cr0, [r8, #-20]	; 0xffffffec
    59ec:	01200000 	teqeq	r0, r0
    59f0:	9c030551 	cfstr32ls	mvfx0, [r3], {81}	; 0x51
    59f4:	200000bd 	strhcs	r0, [r0], -sp
    59f8:	03055001 	movweq	r5, #20481	; 0x5001
    59fc:	0000bdf4 	strdeq	fp, [r0], -r4
    5a00:	a42c2400 	strtge	r2, [ip], #-1024	; 0x400
    5a04:	11840000 	orrne	r0, r4, r0
    5a08:	2a000000 	bcs	5a10 <_start-0x25f0>
    5a0c:	00000090 	muleq	r0, r0, r0
    5a10:	00000edc 	ldrdeq	r0, [r0], -ip
    5a14:	0000812b 	andeq	r8, r0, fp, lsr #2
    5a18:	07000c00 	streq	r0, [r0, -r0, lsl #24]
    5a1c:	00000ecc 	andeq	r0, r0, ip, asr #29
    5a20:	000ea712 	andeq	sl, lr, r2, lsl r7
    5a24:	38b00100 	ldmcc	r0!, {r8}
    5a28:	2c0000a4 	stccs	0, cr0, [r0], {164}	; 0xa4
    5a2c:	01000000 	mrseq	r0, (UNDEF: 0)
    5a30:	000f259c 	muleq	pc, ip, r5	; <UNPREDICTABLE>
    5a34:	0c8d1300 	stceq	3, cr1, [sp], {0}
    5a38:	b0010000 	andlt	r0, r1, r0
    5a3c:	00000722 	andeq	r0, r0, r2, lsr #14
    5a40:	0000226a 	andeq	r2, r0, sl, ror #4
    5a44:	67736d14 			; <UNDEFINED> instruction: 0x67736d14
    5a48:	97b00100 	ldrls	r0, [r0, r0, lsl #2]!
    5a4c:	88000000 	stmdahi	r0, {}	; <UNPREDICTABLE>
    5a50:	1f000022 	svcne	0x00000022
    5a54:	0000a450 	andeq	sl, r0, r0, asr r4
    5a58:	00000176 	andeq	r0, r0, r6, ror r1
    5a5c:	02500120 	subseq	r0, r0, #32, 2
    5a60:	00000075 	andeq	r0, r0, r5, ror r0
    5a64:	000c9223 	andeq	r9, ip, r3, lsr #4
    5a68:	25b90100 	ldrcs	r0, [r9, #256]!	; 0x100
    5a6c:	64000000 	strvs	r0, [r0], #-0
    5a70:	840000a4 	strhi	r0, [r0], #-164	; 0xa4
    5a74:	01000000 	mrseq	r0, (UNDEF: 0)
    5a78:	0010199c 	mulseq	r0, ip, r9
    5a7c:	0c8d1300 	stceq	3, cr1, [sp], {0}
    5a80:	b9010000 	stmdblt	r1, {}	; <UNPREDICTABLE>
    5a84:	00000722 	andeq	r0, r0, r2, lsr #14
    5a88:	000022a6 	andeq	r2, r0, r6, lsr #5
    5a8c:	746d662e 	strbtvc	r6, [sp], #-1582	; 0x62e
    5a90:	97b90100 	ldrls	r0, [r9, r0, lsl #2]!
    5a94:	02000000 	andeq	r0, r0, #0
    5a98:	152f7491 	strne	r7, [pc, #-1169]!	; 560f <_start-0x29f1>
    5a9c:	00667562 	rsbeq	r7, r6, r2, ror #10
    5aa0:	1019ba01 	andsne	fp, r9, r1, lsl #20
    5aa4:	91030000 	mrsls	r0, (UNDEF: 3)
    5aa8:	ab187c9c 	blge	624d20 <__bss_end__+0x618998>
    5aac:	01000006 	tsteq	r0, r6
    5ab0:	000106bc 			; <UNDEFINED> instruction: 0x000106bc
    5ab4:	98910300 	ldmls	r1, {r8, r9}
    5ab8:	7a73167c 	bvc	1ccb4b0 <__bss_end__+0x1cbf128>
    5abc:	25be0100 	ldrcs	r0, [lr, #256]!	; 0x100
    5ac0:	d2000000 	andle	r0, r0, #0
    5ac4:	29000022 	stmdbcs	r0, {r1, r5}
    5ac8:	000001bf 			; <UNDEFINED> instruction: 0x000001bf
    5acc:	0000103a 	andeq	r1, r0, sl, lsr r0
    5ad0:	bd580305 	ldcllt	3, cr0, [r8, #-20]	; 0xffffffec
    5ad4:	8c250000 	stchi	0, cr0, [r5], #-0
    5ad8:	ad0000a4 	stcge	0, cr0, [r0, #-656]	; 0xfffffd70
    5adc:	c0000011 	andgt	r0, r0, r1, lsl r0
    5ae0:	2000000f 	andcs	r0, r0, pc
    5ae4:	91025301 	tstls	r2, r1, lsl #6
    5ae8:	52012058 	andpl	r2, r1, #88	; 0x58
    5aec:	06549103 	ldrbeq	r9, [r4], -r3, lsl #2
    5af0:	03510120 	cmpeq	r1, #32, 2
    5af4:	2001cc0a 	andcs	ip, r1, sl, lsl #24
    5af8:	91035001 	tstls	r3, r1
    5afc:	24007bfc 	strcs	r7, [r0], #-3068	; 0xbfc
    5b00:	0000a4a0 	andeq	sl, r0, r0, lsr #9
    5b04:	00001167 	andeq	r1, r0, r7, ror #2
    5b08:	00a4b425 	adceq	fp, r4, r5, lsr #8
    5b0c:	00116e00 	andseq	r6, r1, r0, lsl #28
    5b10:	000ff800 	andeq	pc, pc, r0, lsl #16
    5b14:	53012000 	movwpl	r2, #4096	; 0x1000
    5b18:	20c00802 	sbccs	r0, r0, r2, lsl #16
    5b1c:	03055201 	movweq	r5, #20993	; 0x5201
    5b20:	0000bd58 	andeq	fp, r0, r8, asr sp
    5b24:	05510120 	ldrbeq	r0, [r1, #-288]	; 0x120
    5b28:	00bd9c03 	adcseq	r9, sp, r3, lsl #24
    5b2c:	50012000 	andpl	r2, r1, r0
    5b30:	be2c0305 	cdplt	3, 2, cr0, cr12, cr5, {0}
    5b34:	24000000 	strcs	r0, [r0], #-0
    5b38:	0000a4b8 			; <UNDEFINED> instruction: 0x0000a4b8
    5b3c:	00001184 	andeq	r1, r0, r4, lsl #3
    5b40:	00a4c41f 	adceq	ip, r4, pc, lsl r4
    5b44:	000ee100 	andeq	lr, lr, r0, lsl #2
    5b48:	51012000 	mrspl	r2, (UNDEF: 1)
    5b4c:	7bfc9103 	blvc	fff29f60 <__bss_end__+0xfff1dbd8>
    5b50:	02500120 	subseq	r0, r0, #32, 2
    5b54:	00000075 	andeq	r0, r0, r5, ror r0
    5b58:	0000902a 	andeq	r9, r0, sl, lsr #32
    5b5c:	00102a00 	andseq	r2, r0, r0, lsl #20
    5b60:	00813000 	addeq	r3, r1, r0
    5b64:	01cb0000 	biceq	r0, fp, r0
    5b68:	00902a00 	addseq	r2, r0, r0, lsl #20
    5b6c:	103a0000 	eorsne	r0, sl, r0
    5b70:	812b0000 	teqhi	fp, r0
    5b74:	0e000000 	cdpeq	0, 0, cr0, cr0, cr0, {0}
    5b78:	102a0700 	eorne	r0, sl, r0, lsl #14
    5b7c:	1f230000 	svcne	0x00230000
    5b80:	0100000f 	tsteq	r0, pc
    5b84:	000025c5 	andeq	r2, r0, r5, asr #11
    5b88:	00a4e800 	adceq	lr, r4, r0, lsl #16
    5b8c:	00004c00 	andeq	r4, r0, r0, lsl #24
    5b90:	1c9c0100 	ldfnes	f0, [ip], {0}
    5b94:	14000011 	strne	r0, [r0], #-17
    5b98:	c5010075 	strgt	r0, [r1, #-117]	; 0x75
    5b9c:	00000722 	andeq	r0, r0, r2, lsr #14
    5ba0:	00002311 	andeq	r2, r0, r1, lsl r3
    5ba4:	66756214 			; <UNDEFINED> instruction: 0x66756214
    5ba8:	02c50100 	sbceq	r0, r5, #0, 2
    5bac:	3200000c 	andcc	r0, r0, #12
    5bb0:	13000023 	movwne	r0, #35	; 0x23
    5bb4:	00000ef1 	strdeq	r0, [r0], -r1
    5bb8:	0068c501 	rsbeq	ip, r8, r1, lsl #10
    5bbc:	23530000 	cmpcs	r3, #0
    5bc0:	65140000 	ldrvs	r0, [r4, #-0]
    5bc4:	0100646e 	tsteq	r0, lr, ror #8
    5bc8:	00004fc5 	andeq	r4, r0, r5, asr #31
    5bcc:	00237400 	eoreq	r7, r3, r0, lsl #8
    5bd0:	65721600 	ldrbvs	r1, [r2, #-1536]!	; 0x600
    5bd4:	c6010073 			; <UNDEFINED> instruction: 0xc6010073
    5bd8:	00000025 	andeq	r0, r0, r5, lsr #32
    5bdc:	00002395 	muleq	r0, r5, r3
    5be0:	0001bf29 	andeq	fp, r1, r9, lsr #30
    5be4:	00112c00 	andseq	r2, r1, r0, lsl #24
    5be8:	68030500 	stmdavs	r3, {r8, sl}
    5bec:	250000bd 	strcs	r0, [r0, #-189]	; 0xbd
    5bf0:	0000a4fc 	strdeq	sl, [r0], -ip
    5bf4:	00000b1e 	andeq	r0, r0, lr, lsl fp
    5bf8:	000010da 	ldrdeq	r1, [r0], -sl
    5bfc:	03520120 	cmpeq	r2, #32, 2
    5c00:	205201f3 	ldrshcs	r0, [r2], #-19	; 0xffffffed
    5c04:	f3035101 	vrhadd.u8	d5, d3, d1
    5c08:	01205101 	teqeq	r0, r1, lsl #2
    5c0c:	01f30350 	mvnseq	r0, r0, asr r3
    5c10:	7d022050 	stcvc	0, cr2, [r2, #-320]	; 0xfffffec0
    5c14:	ff090200 			; <UNDEFINED> instruction: 0xff090200
    5c18:	a5082400 	strge	r2, [r8, #-1024]	; 0x400
    5c1c:	11670000 	cmnne	r7, r0
    5c20:	1c250000 	stcne	0, cr0, [r5], #-0
    5c24:	6e0000a5 	cdpvs	0, 0, cr0, cr0, cr5, {5}
    5c28:	12000011 	andne	r0, r0, #17
    5c2c:	20000011 	andcs	r0, r0, r1, lsl r0
    5c30:	08025301 	stmdaeq	r2, {r0, r8, r9, ip, lr}
    5c34:	520120c8 	andpl	r2, r1, #200	; 0xc8
    5c38:	bd680305 	stcllt	3, cr0, [r8, #-20]!	; 0xffffffec
    5c3c:	01200000 	teqeq	r0, r0
    5c40:	9c030551 	cfstr32ls	mvfx0, [r3], {81}	; 0x51
    5c44:	200000bd 	strhcs	r0, [r0], -sp
    5c48:	03055001 	movweq	r5, #20481	; 0x5001
    5c4c:	0000bdf4 	strdeq	fp, [r0], -r4
    5c50:	a5202400 	strge	r2, [r0, #-1024]!	; 0x400
    5c54:	11840000 	orrne	r0, r4, r0
    5c58:	2a000000 	bcs	5c60 <_start-0x23a0>
    5c5c:	00000090 	muleq	r0, r0, r0
    5c60:	0000112c 	andeq	r1, r0, ip, lsr #2
    5c64:	0000812b 	andeq	r8, r0, fp, lsr #2
    5c68:	07001600 	streq	r1, [r0, -r0, lsl #12]
    5c6c:	0000111c 	andeq	r1, r0, ip, lsl r1
    5c70:	000ef831 	andeq	pc, lr, r1, lsr r8	; <UNPREDICTABLE>
    5c74:	47210600 	strmi	r0, [r1, -r0, lsl #12]!
    5c78:	32000011 	andcc	r0, r0, #17
    5c7c:	0000002c 	andeq	r0, r0, ip, lsr #32
    5c80:	00002c32 	andeq	r2, r0, r2, lsr ip
    5c84:	be330000 	cdplt	0, 3, cr0, cr3, cr0, {0}
    5c88:	0700000d 	streq	r0, [r0, -sp]
    5c8c:	00002c57 	andeq	r2, r0, r7, asr ip
    5c90:	0eb43400 	cdpeq	4, 11, cr3, cr4, cr0, {0}
    5c94:	24060000 	strcs	r0, [r6], #-0
    5c98:	00000025 	andeq	r0, r0, r5, lsr #32
    5c9c:	00001167 	andeq	r1, r0, r7, ror #2
    5ca0:	00002c32 	andeq	r2, r0, r2, lsr ip
    5ca4:	9c350000 	ldcls	0, cr0, [r5], #-0
    5ca8:	07000001 	streq	r0, [r0, -r1]
    5cac:	0b68341e 	bleq	1a12d2c <__bss_end__+0x1a069a4>
    5cb0:	29070000 	stmdbcs	r7, {}	; <UNPREDICTABLE>
    5cb4:	00000025 	andeq	r0, r0, r5, lsr #32
    5cb8:	00001184 	andeq	r1, r0, r4, lsl #3
    5cbc:	00009732 	andeq	r9, r0, r2, lsr r7
    5cc0:	35002f00 	strcc	r2, [r0, #-3840]	; 0xf00
    5cc4:	00000372 	andeq	r0, r0, r2, ror r3
    5cc8:	36316607 	ldrtcc	r6, [r1], -r7, lsl #12
    5ccc:	0600000f 	streq	r0, [r0], -pc
    5cd0:	00119c1d 	andseq	r9, r1, sp, lsl ip
    5cd4:	002c3200 	eoreq	r3, ip, r0, lsl #4
    5cd8:	31000000 	mrscc	r0, (UNDEF: 0)
    5cdc:	00000f10 	andeq	r0, r0, r0, lsl pc
    5ce0:	11ad1c06 			; <UNDEFINED> instruction: 0x11ad1c06
    5ce4:	2c320000 	ldccs	0, cr0, [r2], #-0
    5ce8:	00000000 	andeq	r0, r0, r0
    5cec:	000b6536 	andeq	r6, fp, r6, lsr r5
    5cf0:	25020800 	strcs	r0, [r2, #-2048]	; 0x800
    5cf4:	32000000 	andcc	r0, r0, #0
    5cf8:	0000008a 	andeq	r0, r0, sl, lsl #1
    5cfc:	00002532 	andeq	r2, r0, r2, lsr r5
    5d00:	00973200 	addseq	r3, r7, r0, lsl #4
    5d04:	06320000 	ldrteq	r0, [r2], -r0
    5d08:	00000001 	andeq	r0, r0, r1
    5d0c:	0003ff00 	andeq	pc, r3, r0, lsl #30
    5d10:	6c000400 	cfstrsvs	mvf0, [r0], {-0}
    5d14:	04000014 	streq	r0, [r0], #-20
    5d18:	0003aa01 	andeq	sl, r3, r1, lsl #20
    5d1c:	10b80100 	adcsne	r0, r8, r0, lsl #2
    5d20:	0af60000 	beq	ffd85d28 <__bss_end__+0xffd799a0>
    5d24:	a5340000 	ldrge	r0, [r4, #-0]!
    5d28:	01540000 	cmpeq	r4, r0
    5d2c:	12f60000 	rscsne	r0, r6, #0
    5d30:	04020000 	streq	r0, [r2], #-0
    5d34:	746e6905 	strbtvc	r6, [lr], #-2309	; 0x905
    5d38:	07040300 	streq	r0, [r4, -r0, lsl #6]
    5d3c:	00000092 	muleq	r0, r2, r0
    5d40:	02060103 	andeq	r0, r6, #-1073741824	; 0xc0000000
    5d44:	03000003 	movweq	r0, #3
    5d48:	032e0502 	teqeq	lr, #8388608	; 0x800000
    5d4c:	04030000 	streq	r0, [r3], #-0
    5d50:	0000b805 	andeq	fp, r0, r5, lsl #16
    5d54:	05080300 	streq	r0, [r8, #-768]	; 0x300
    5d58:	000000b3 	strheq	r0, [r0], -r3
    5d5c:	00080103 	andeq	r0, r8, r3, lsl #2
    5d60:	03000003 	movweq	r0, #3
    5d64:	01e20702 	mvneq	r0, r2, lsl #14
    5d68:	04030000 	streq	r0, [r3], #-0
    5d6c:	00008d07 	andeq	r8, r0, r7, lsl #26
    5d70:	07080300 	streq	r0, [r8, -r0, lsl #6]
    5d74:	00000088 	andeq	r0, r0, r8, lsl #1
    5d78:	86070403 	strhi	r0, [r7], -r3, lsl #8
    5d7c:	03000002 	movweq	r0, #2
    5d80:	03090801 	movweq	r0, #38913	; 0x9801
    5d84:	01040000 	mrseq	r0, (UNDEF: 4)
    5d88:	00b20c02 	adcseq	r0, r2, r2, lsl #24
    5d8c:	d5050000 	strle	r0, [r5, #-0]
    5d90:	00000010 	andeq	r0, r0, r0, lsl r0
    5d94:	000fc905 	andeq	ip, pc, r5, lsl #18
    5d98:	82050100 	andhi	r0, r5, #0, 2
    5d9c:	0400000f 	streq	r0, [r0], #-15
    5da0:	000fda05 	andeq	sp, pc, r5, lsl #20
    5da4:	e9050500 	stmdb	r5, {r8, sl}
    5da8:	0600000f 	streq	r0, [r0], -pc
    5dac:	000ff805 	andeq	pc, pc, r5, lsl #16
    5db0:	88050700 	stmdahi	r5, {r8, r9, sl}
    5db4:	03000010 	movweq	r0, #16
    5db8:	00100705 	andseq	r0, r0, r5, lsl #14
    5dbc:	06000200 	streq	r0, [r0], -r0, lsl #4
    5dc0:	0000103a 	andeq	r1, r0, sl, lsr r0
    5dc4:	00791502 	rsbseq	r1, r9, r2, lsl #10
    5dc8:	78070000 	stmdavc	r7, {}	; <UNPREDICTABLE>
    5dcc:	01000000 	mrseq	r0, (UNDEF: 0)
    5dd0:	00a53437 	adceq	r3, r5, r7, lsr r4
    5dd4:	00009c00 	andeq	r9, r0, r0, lsl #24
    5dd8:	c39c0100 	orrsgt	r0, ip, #0, 2
    5ddc:	08000001 	stmdaeq	r0, {r0}
    5de0:	0000a53c 	andeq	sl, r0, ip, lsr r5
    5de4:	000003a8 	andeq	r0, r0, r8, lsr #7
    5de8:	00a54809 	adceq	r4, r5, r9, lsl #16
    5dec:	0003af00 	andeq	sl, r3, r0, lsl #30
    5df0:	0000f300 	andeq	pc, r0, r0, lsl #6
    5df4:	51010a00 	tstpl	r1, r0, lsl #20
    5df8:	010a3201 	tsteq	sl, r1, lsl #4
    5dfc:	003e0150 	eorseq	r0, lr, r0, asr r1
    5e00:	00a55409 	adceq	r5, r5, r9, lsl #8
    5e04:	0003af00 	andeq	sl, r3, r0, lsl #30
    5e08:	00010b00 	andeq	r0, r1, r0, lsl #22
    5e0c:	51010a00 	tstpl	r1, r0, lsl #20
    5e10:	010a3201 	tsteq	sl, r1, lsl #4
    5e14:	003f0150 	eorseq	r0, pc, r0, asr r1	; <UNPREDICTABLE>
    5e18:	00a55808 	adceq	r5, r5, r8, lsl #16
    5e1c:	0003a800 	andeq	sl, r3, r0, lsl #16
    5e20:	a5680900 	strbge	r0, [r8, #-2304]!	; 0x900
    5e24:	03c50000 	biceq	r0, r5, #0
    5e28:	01280000 	teqeq	r8, r0
    5e2c:	010a0000 	mrseq	r0, (UNDEF: 10)
    5e30:	00750250 	rsbseq	r0, r5, r0, asr r2
    5e34:	a5740900 	ldrbge	r0, [r4, #-2304]!	; 0x900
    5e38:	03e60000 	mvneq	r0, #0
    5e3c:	013c0000 	teqeq	ip, r0
    5e40:	010a0000 	mrseq	r0, (UNDEF: 10)
    5e44:	00750250 	rsbseq	r0, r5, r0, asr r2
    5e48:	a5780800 	ldrbge	r0, [r8, #-2048]!	; 0x800
    5e4c:	03a80000 			; <UNDEFINED> instruction: 0x03a80000
    5e50:	84090000 	strhi	r0, [r9], #-0
    5e54:	e60000a5 	str	r0, [r0], -r5, lsr #1
    5e58:	58000003 	stmdapl	r0, {r0, r1}
    5e5c:	0a000001 	beq	5e68 <_start-0x2198>
    5e60:	30015101 	andcc	r5, r1, r1, lsl #2
    5e64:	a5900900 	ldrge	r0, [r0, #2304]	; 0x900
    5e68:	03e60000 	mvneq	r0, #0
    5e6c:	016b0000 	cmneq	fp, r0
    5e70:	010a0000 	mrseq	r0, (UNDEF: 10)
    5e74:	00300151 	eorseq	r0, r0, r1, asr r1
    5e78:	00a59c09 	adceq	r9, r5, r9, lsl #24
    5e7c:	0003e600 	andeq	lr, r3, r0, lsl #12
    5e80:	00017e00 	andeq	r7, r1, r0, lsl #28
    5e84:	51010a00 	tstpl	r1, r0, lsl #20
    5e88:	09003601 	stmdbeq	r0, {r0, r9, sl, ip, sp}
    5e8c:	0000a5a8 	andeq	sl, r0, r8, lsr #11
    5e90:	000003e6 	andeq	r0, r0, r6, ror #7
    5e94:	00000191 	muleq	r0, r1, r1
    5e98:	0151010a 	cmpeq	r1, sl, lsl #2
    5e9c:	b4090033 	strlt	r0, [r9], #-51	; 0x33
    5ea0:	e60000a5 	str	r0, [r0], -r5, lsr #1
    5ea4:	a6000003 	strge	r0, [r0], -r3
    5ea8:	0a000001 	beq	5eb4 <_start-0x214c>
    5eac:	0a035101 	beq	da2b8 <__bss_end__+0xcdf30>
    5eb0:	0900010e 	stmdbeq	r0, {r1, r2, r3, r8}
    5eb4:	0000a5c0 	andeq	sl, r0, r0, asr #11
    5eb8:	000003e6 	andeq	r0, r0, r6, ror #7
    5ebc:	000001b9 			; <UNDEFINED> instruction: 0x000001b9
    5ec0:	0151010a 	cmpeq	r1, sl, lsl #2
    5ec4:	c4080033 	strgt	r0, [r8], #-51	; 0x33
    5ec8:	a80000a5 	stmdage	r0, {r0, r2, r5, r7}
    5ecc:	00000003 	andeq	r0, r0, r3
    5ed0:	000f910b 	andeq	r9, pc, fp, lsl #2
    5ed4:	25570100 	ldrbcs	r0, [r7, #-256]	; 0x100
    5ed8:	d0000000 	andle	r0, r0, r0
    5edc:	1c0000a5 	stcne	0, cr0, [r0], {165}	; 0xa5
    5ee0:	01000000 	mrseq	r0, (UNDEF: 0)
    5ee4:	0001e69c 	muleq	r1, ip, r6
    5ee8:	a5e00800 	strbge	r0, [r0, #2048]!	; 0x800
    5eec:	03c50000 	biceq	r0, r5, #0
    5ef0:	0b000000 	bleq	5ef8 <_start-0x2108>
    5ef4:	00000e66 	andeq	r0, r0, r6, ror #28
    5ef8:	00255d01 	eoreq	r5, r5, r1, lsl #26
    5efc:	a5ec0000 	strbge	r0, [ip, #0]!
    5f00:	00280000 	eoreq	r0, r8, r0
    5f04:	9c010000 	stcls	0, cr0, [r1], {-0}
    5f08:	00000212 	andeq	r0, r0, r2, lsl r2
    5f0c:	00a5f408 	adceq	pc, r5, r8, lsl #8
    5f10:	0001c300 	andeq	ip, r1, r0, lsl #6
    5f14:	a6080800 	strge	r0, [r8], -r0, lsl #16
    5f18:	03c50000 	biceq	r0, r5, #0
    5f1c:	0b000000 	bleq	5f24 <_start-0x20dc>
    5f20:	00001046 	andeq	r1, r0, r6, asr #32
    5f24:	00256401 	eoreq	r6, r5, r1, lsl #8
    5f28:	a6140000 	ldrge	r0, [r4], -r0
    5f2c:	001c0000 	andseq	r0, ip, r0
    5f30:	9c010000 	stcls	0, cr0, [r1], {-0}
    5f34:	00000235 	andeq	r0, r0, r5, lsr r2
    5f38:	00a62408 	adceq	r2, r6, r8, lsl #8
    5f3c:	0003c500 	andeq	ip, r3, r0, lsl #10
    5f40:	ee070000 	cdp	0, 0, cr0, cr7, cr0, {0}
    5f44:	0100000c 	tsteq	r0, ip
    5f48:	00a6306a 	adceq	r3, r6, sl, rrx
    5f4c:	00002c00 	andeq	r2, r0, r0, lsl #24
    5f50:	719c0100 	orrsvc	r0, ip, r0, lsl #2
    5f54:	0c000002 	stceq	0, cr0, [r0], {2}
    5f58:	6a010063 	bvs	460ec <__bss_end__+0x39d64>
    5f5c:	0000002c 	andeq	r0, r0, ip, lsr #32
    5f60:	000023b3 			; <UNDEFINED> instruction: 0x000023b3
    5f64:	00a63c08 	adceq	r3, r6, r8, lsl #24
    5f68:	00021200 	andeq	r1, r2, r0, lsl #4
    5f6c:	a6540d00 	ldrbge	r0, [r4], -r0, lsl #26
    5f70:	03e60000 	mvneq	r0, #0
    5f74:	010a0000 	mrseq	r0, (UNDEF: 10)
    5f78:	00740251 	rsbseq	r0, r4, r1, asr r2
    5f7c:	af0b0000 	svcge	0x000b0000
    5f80:	0100000f 	tsteq	r0, pc
    5f84:	00002574 	andeq	r2, r0, r4, ror r5
    5f88:	00a65c00 	adceq	r5, r6, r0, lsl #24
    5f8c:	00000c00 	andeq	r0, r0, r0, lsl #24
    5f90:	949c0100 	ldrls	r0, [ip], #256	; 0x100
    5f94:	08000002 	stmdaeq	r0, {r1}
    5f98:	0000a664 	andeq	sl, r0, r4, ror #12
    5f9c:	000001c3 	andeq	r0, r0, r3, asr #3
    5fa0:	10f40b00 	rscsne	r0, r4, r0, lsl #22
    5fa4:	78010000 	stmdavc	r1, {}	; <UNPREDICTABLE>
    5fa8:	00000025 	andeq	r0, r0, r5, lsr #32
    5fac:	0000a668 	andeq	sl, r0, r8, ror #12
    5fb0:	00000020 	andeq	r0, r0, r0, lsr #32
    5fb4:	02c09c01 	sbceq	r9, r0, #256	; 0x100
    5fb8:	70080000 	andvc	r0, r8, r0
    5fbc:	710000a6 	smlatbvc	r0, r6, r0, r0
    5fc0:	08000002 	stmdaeq	r0, {r1}
    5fc4:	0000a67c 	andeq	sl, r0, ip, ror r6
    5fc8:	000001e6 	andeq	r0, r0, r6, ror #3
    5fcc:	10600e00 	rsbne	r0, r0, r0, lsl #28
    5fd0:	16010000 	strne	r0, [r1], -r0
    5fd4:	000002d1 	ldrdeq	r0, [r0], -r1
    5fd8:	aefc0305 	cdpge	3, 15, cr0, cr12, cr5, {0}
    5fdc:	040f0000 	streq	r0, [pc], #-0	; 5fe4 <_start-0x201c>
    5fe0:	000002d7 	ldrdeq	r0, [r0], -r7
    5fe4:	00002c10 	andeq	r2, r0, r0, lsl ip
    5fe8:	10540e00 	subsne	r0, r4, r0, lsl #28
    5fec:	17010000 	strne	r0, [r1, -r0]
    5ff0:	000002d1 	ldrdeq	r0, [r0], -r1
    5ff4:	aecc0305 	cdpge	3, 12, cr0, cr12, cr5, {0}
    5ff8:	650e0000 	strvs	r0, [lr, #-0]
    5ffc:	0100000f 	tsteq	r0, pc
    6000:	0002d11a 	andeq	sp, r2, sl, lsl r1
    6004:	e8030500 	stmda	r3, {r8, sl}
    6008:	0e0000ae 	cdpeq	0, 0, cr0, cr0, cr14, {5}
    600c:	00001016 	andeq	r1, r0, r6, lsl r0
    6010:	02d11b01 	sbcseq	r1, r1, #1024	; 0x400
    6014:	03050000 	movweq	r0, #20480	; 0x5000
    6018:	0000aed4 	ldrdeq	sl, [r0], -r4
    601c:	00102b0e 	andseq	r2, r0, lr, lsl #22
    6020:	d11c0100 	tstle	ip, r0, lsl #2
    6024:	05000002 	streq	r0, [r0, #-2]
    6028:	00aed803 	adceq	sp, lr, r3, lsl #16
    602c:	10c60e00 	sbcne	r0, r6, r0, lsl #28
    6030:	1d010000 	stcne	0, cr0, [r1, #-0]
    6034:	000002d1 	ldrdeq	r0, [r0], -r1
    6038:	aedc0305 	cdpge	3, 13, cr0, cr12, cr5, {0}
    603c:	560e0000 	strpl	r0, [lr], -r0
    6040:	0100000f 	tsteq	r0, pc
    6044:	0002d11e 	andeq	sp, r2, lr, lsl r1
    6048:	f8030500 			; <UNDEFINED> instruction: 0xf8030500
    604c:	0e0000ae 	cdpeq	0, 0, cr0, cr0, cr14, {5}
    6050:	000010e5 	andeq	r1, r0, r5, ror #1
    6054:	02d11f01 	sbcseq	r1, r1, #1, 30
    6058:	03050000 	movweq	r0, #20480	; 0x5000
    605c:	0000aee4 	andeq	sl, r0, r4, ror #29
    6060:	000f730e 	andeq	r7, pc, lr, lsl #6
    6064:	d1200100 	teqle	r0, r0, lsl #2
    6068:	05000002 	streq	r0, [r0, #-2]
    606c:	00aef403 	adceq	pc, lr, r3, lsl #8
    6070:	10a90e00 	adcne	r0, r9, r0, lsl #28
    6074:	21010000 	mrscs	r0, (UNDEF: 1)
    6078:	000002d1 	ldrdeq	r0, [r0], -r1
    607c:	aef00305 	cdpge	3, 15, cr0, cr0, cr5, {0}
    6080:	9f0e0000 	svcls	0x000e0000
    6084:	0100000f 	tsteq	r0, pc
    6088:	0002d122 	andeq	sp, r2, r2, lsr #2
    608c:	d0030500 	andle	r0, r3, r0, lsl #10
    6090:	0e0000ae 	cdpeq	0, 0, cr0, cr0, cr14, {5}
    6094:	00001078 	andeq	r1, r0, r8, ror r0
    6098:	02d12301 	sbcseq	r2, r1, #67108864	; 0x4000000
    609c:	03050000 	movweq	r0, #20480	; 0x5000
    60a0:	0000aeec 	andeq	sl, r0, ip, ror #29
    60a4:	0010680e 	andseq	r6, r0, lr, lsl #16
    60a8:	d1240100 	teqle	r4, r0, lsl #2
    60ac:	05000002 	streq	r0, [r0, #-2]
    60b0:	00aee003 	adceq	lr, lr, r3
    60b4:	0fbd1100 	svceq	0x00bd1100
    60b8:	8a030000 	bhi	c60c0 <__bss_end__+0xb9d38>
    60bc:	00109712 	andseq	r9, r0, r2, lsl r7
    60c0:	c5190200 	ldrgt	r0, [r9, #-512]	; 0x200
    60c4:	13000003 	movwne	r0, #3
    60c8:	0000002c 	andeq	r0, r0, ip, lsr #32
    60cc:	0000b213 	andeq	fp, r0, r3, lsl r2
    60d0:	d7140000 	ldrle	r0, [r4, -r0]
    60d4:	03000001 	movweq	r0, #1
    60d8:	00002ca9 	andeq	r2, r0, r9, lsr #25
    60dc:	0003da00 	andeq	sp, r3, r0, lsl #20
    60e0:	03da1300 	bicseq	r1, sl, #0, 6
    60e4:	0f000000 	svceq	0x00000000
    60e8:	0003e004 	andeq	lr, r3, r4
    60ec:	03e51500 	mvneq	r1, #0, 10
    60f0:	12160000 	andsne	r0, r6, #0
    60f4:	00001025 	andeq	r1, r0, r5, lsr #32
    60f8:	03fc9d03 	mvnseq	r9, #3, 26	; 0xc0
    60fc:	fc130000 	ldc2	0, cr0, [r3], {-0}
    6100:	13000003 	movwne	r0, #3
    6104:	0000002c 	andeq	r0, r0, ip, lsr #32
    6108:	e5040f00 	str	r0, [r4, #-3840]	; 0xf00
    610c:	00000003 	andeq	r0, r0, r3
    6110:	0000029b 	muleq	r0, fp, r2
    6114:	159a0004 	ldrne	r0, [sl, #4]
    6118:	01040000 	mrseq	r0, (UNDEF: 4)
    611c:	000003aa 	andeq	r0, r0, sl, lsr #7
    6120:	00119701 	andseq	r9, r1, r1, lsl #14
    6124:	000af600 	andeq	pc, sl, r0, lsl #12
    6128:	00a68800 	adceq	r8, r6, r0, lsl #16
    612c:	0000ac00 	andeq	sl, r0, r0, lsl #24
    6130:	0013fb00 	andseq	pc, r3, r0, lsl #22
    6134:	05040200 	streq	r0, [r4, #-512]	; 0x200
    6138:	00746e69 	rsbseq	r6, r4, r9, ror #28
    613c:	92070403 	andls	r0, r7, #50331648	; 0x3000000
    6140:	03000000 	movweq	r0, #0
    6144:	03020601 	movweq	r0, #9729	; 0x2601
    6148:	02030000 	andeq	r0, r3, #0
    614c:	00032e05 	andeq	r2, r3, r5, lsl #28
    6150:	05040300 	streq	r0, [r4, #-768]	; 0x300
    6154:	000000b8 	strheq	r0, [r0], -r8
    6158:	b3050803 	movwlt	r0, #22531	; 0x5803
    615c:	03000000 	movweq	r0, #0
    6160:	03000801 	movweq	r0, #2049	; 0x801
    6164:	02030000 	andeq	r0, r3, #0
    6168:	0001e207 	andeq	lr, r1, r7, lsl #4
    616c:	07040300 	streq	r0, [r4, -r0, lsl #6]
    6170:	0000008d 	andeq	r0, r0, sp, lsl #1
    6174:	88070803 	stmdahi	r7, {r0, r1, fp}
    6178:	03000000 	movweq	r0, #0
    617c:	02860704 	addeq	r0, r6, #4, 14	; 0x100000
    6180:	01030000 	mrseq	r0, (UNDEF: 3)
    6184:	00030908 	andeq	r0, r3, r8, lsl #18
    6188:	7f040400 	svcvc	0x00040400
    618c:	05000000 	streq	r0, [r0, #-0]
    6190:	00000072 	andeq	r0, r0, r2, ror r0
    6194:	14030406 	strne	r0, [r3], #-1030	; 0x406
    6198:	000000fb 	strdeq	r0, [r0], -fp
    619c:	0011b707 	andseq	fp, r1, r7, lsl #14
    61a0:	82e48000 	rschi	r8, r4, #0
    61a4:	42070280 	andmi	r0, r7, #128, 4
    61a8:	80000011 	andhi	r0, r0, r1, lsl r0
    61ac:	028082e4 	addeq	r8, r0, #228, 4	; 0x4000000e
    61b0:	0011f407 	andseq	pc, r1, r7, lsl #8
    61b4:	82e48400 	rschi	r8, r4, #0, 8
    61b8:	04070280 	streq	r0, [r7], #-640	; 0x280
    61bc:	88000011 	stmdahi	r0, {r0, r4}
    61c0:	028082e4 	addeq	r8, r0, #228, 4	; 0x4000000e
    61c4:	00112507 	andseq	r2, r1, r7, lsl #10
    61c8:	82e48c00 	rschi	r8, r4, #0, 24
    61cc:	66070280 	strvs	r0, [r7], -r0, lsl #5
    61d0:	90000011 	andls	r0, r0, r1, lsl r0
    61d4:	028082e4 	addeq	r8, r0, #228, 4	; 0x4000000e
    61d8:	00117407 	andseq	r7, r1, r7, lsl #8
    61dc:	82e49400 	rschi	r9, r4, #0, 8
    61e0:	54070280 	strpl	r0, [r7], #-640	; 0x280
    61e4:	98000011 	stmdals	r0, {r0, r4}
    61e8:	028082e4 	addeq	r8, r0, #228, 4	; 0x4000000e
    61ec:	0011c007 	andseq	ip, r1, r7
    61f0:	82e49c00 	rschi	r9, r4, #0, 24
    61f4:	cf070280 	svcgt	0x00070280
    61f8:	a0000011 	andge	r0, r0, r1, lsl r0
    61fc:	028082e4 	addeq	r8, r0, #228, 4	; 0x4000000e
    6200:	00111207 	andseq	r1, r1, r7, lsl #4
    6204:	82e4a400 	rschi	sl, r4, #0, 8
    6208:	08000280 	stmdaeq	r0, {r7, r9}
    620c:	0000050d 	andeq	r0, r0, sp, lsl #10
    6210:	a6881b01 	strge	r1, [r8], r1, lsl #22
    6214:	00680000 	rsbeq	r0, r8, r0
    6218:	9c010000 	stcls	0, cr0, [r1], {-0}
    621c:	000001a7 	andeq	r0, r0, r7, lsr #3
    6220:	00113109 	andseq	r3, r1, r9, lsl #2
    6224:	2c230100 	stfcss	f0, [r3], #-0
    6228:	09000000 	stmdbeq	r0, {}	; <UNPREDICTABLE>
    622c:	00001182 	andeq	r1, r0, r2, lsl #3
    6230:	002c2401 	eoreq	r2, ip, r1, lsl #8
    6234:	640a0000 	strvs	r0, [sl], #-0
    6238:	01007473 	tsteq	r0, r3, ror r4
    623c:	0001a727 	andeq	sl, r1, r7, lsr #14
    6240:	730b0000 	movwvc	r0, #45056	; 0xb000
    6244:	01006372 	tsteq	r0, r2, ror r3
    6248:	0001a728 	andeq	sl, r1, r8, lsr #14
    624c:	006e0c00 	rsbeq	r0, lr, r0, lsl #24
    6250:	002c2901 	eoreq	r2, ip, r1, lsl #18
    6254:	50010000 	andpl	r0, r1, r0
    6258:	00a6b80d 	adceq	fp, r6, sp, lsl #16
    625c:	00002400 	andeq	r2, r0, r0, lsl #8
    6260:	00016300 	andeq	r6, r1, r0, lsl #6
    6264:	00690e00 	rsbeq	r0, r9, r0, lsl #28
    6268:	00252a01 	eoreq	r2, r5, r1, lsl #20
    626c:	23d10000 	bicscs	r0, r1, #0
    6270:	0f000000 	svceq	0x00000000
    6274:	0000a698 	muleq	r0, r8, r6
    6278:	0000025d 	andeq	r0, r0, sp, asr r2
    627c:	00000180 	andeq	r0, r0, r0, lsl #3
    6280:	02510110 	subseq	r0, r1, #16, 2
    6284:	0110ff09 	tsteq	r0, r9, lsl #30
    6288:	1c0c0550 	cfstr32ne	mvfx0, [ip], {80}	; 0x50
    628c:	002000b2 	strhteq	r0, [r0], -r2
    6290:	00a6a40f 	adceq	sl, r6, pc, lsl #8
    6294:	00025d00 	andeq	r5, r2, r0, lsl #26
    6298:	00019d00 	andeq	r9, r1, r0, lsl #26
    629c:	51011000 	mrspl	r1, (UNDEF: 1)
    62a0:	10ff0902 	rscsne	r0, pc, r2, lsl #18
    62a4:	0c055001 	stceq	0, cr5, [r5], {1}
    62a8:	2000b220 	andcs	fp, r0, r0, lsr #4
    62ac:	a6a81100 	strtge	r1, [r8], r0, lsl #2
    62b0:	02730000 	rsbseq	r0, r3, #0
    62b4:	04000000 	streq	r0, [r0], #-0
    62b8:	00002c04 	andeq	r2, r0, r4, lsl #24
    62bc:	11de0800 	bicsne	r0, lr, r0, lsl #16
    62c0:	2e010000 	cdpcs	0, 0, cr0, cr1, cr0, {0}
    62c4:	0000a6f0 	strdeq	sl, [r0], -r0
    62c8:	00000044 	andeq	r0, r0, r4, asr #32
    62cc:	02329c01 	eorseq	r9, r2, #256	; 0x100
    62d0:	70120000 	andsvc	r0, r2, r0
    62d4:	2e010063 	cdpcs	0, 0, cr0, cr1, cr3, {3}
    62d8:	0000002c 	andeq	r0, r0, ip, lsr #32
    62dc:	000023f0 	strdeq	r2, [r0], -r0
    62e0:	0001bf13 	andeq	fp, r1, r3, lsl pc
    62e4:	00024200 	andeq	r4, r2, r0, lsl #4
    62e8:	50030500 	andpl	r0, r3, r0, lsl #10
    62ec:	110000be 	strhne	r0, [r0, -lr]
    62f0:	0000a700 	andeq	sl, r0, r0, lsl #14
    62f4:	0000027a 	andeq	r0, r0, sl, ror r2
    62f8:	00a7200f 	adceq	r2, r7, pc
    62fc:	00028100 	andeq	r8, r2, r0, lsl #2
    6300:	00022800 	andeq	r2, r2, r0, lsl #16
    6304:	53011000 	movwpl	r1, #4096	; 0x1000
    6308:	102f0802 	eorne	r0, pc, r2, lsl #16
    630c:	03055201 	movweq	r5, #20993	; 0x5201
    6310:	0000be50 	andeq	fp, r0, r0, asr lr
    6314:	05510110 	ldrbeq	r0, [r1, #-272]	; 0x110
    6318:	00bea403 	adcseq	sl, lr, r3, lsl #8
    631c:	50011000 	andpl	r1, r1, r0
    6320:	be680305 	cdplt	3, 6, cr0, cr8, cr5, {0}
    6324:	02100000 	andseq	r0, r0, #0
    6328:	7402047d 	strvc	r0, [r2], #-1149	; 0x47d
    632c:	7d021000 	stcvc	0, cr1, [r2, #-0]
    6330:	c4030500 	strgt	r0, [r3], #-1280	; 0x500
    6334:	000000be 	strheq	r0, [r0], -lr
    6338:	00a72411 	adceq	r2, r7, r1, lsl r4
    633c:	00029700 	andeq	r9, r2, r0, lsl #14
    6340:	72140000 	andsvc	r0, r4, #0
    6344:	42000000 	andmi	r0, r0, #0
    6348:	15000002 	strne	r0, [r0, #-2]
    634c:	0000006b 	andeq	r0, r0, fp, rrx
    6350:	32050015 	andcc	r0, r5, #21
    6354:	09000002 	stmdbeq	r0, {r1}
    6358:	00001131 	andeq	r1, r0, r1, lsr r1
    635c:	002c2301 	eoreq	r2, ip, r1, lsl #6
    6360:	82090000 	andhi	r0, r9, #0
    6364:	01000011 	tsteq	r0, r1, lsl r0
    6368:	00002c24 	andeq	r2, r0, r4, lsr #24
    636c:	0dab1600 	stceq	6, cr1, [fp]
    6370:	9c020000 	stcls	0, cr0, [r2], {-0}
    6374:	00000273 	andeq	r0, r0, r3, ror r2
    6378:	00002c17 	andeq	r2, r0, r7, lsl ip
    637c:	002c1700 	eoreq	r1, ip, r0, lsl #14
    6380:	18000000 	stmdane	r0, {}	; <UNPREDICTABLE>
    6384:	00000fbd 			; <UNDEFINED> instruction: 0x00000fbd
    6388:	9c188a02 	ldcls	10, cr8, [r8], {2}
    638c:	02000001 	andeq	r0, r0, #1
    6390:	0b68191e 	bleq	1a0c810 <__bss_end__+0x1a00488>
    6394:	29020000 	stmdbcs	r2, {}	; <UNPREDICTABLE>
    6398:	00000025 	andeq	r0, r0, r5, lsr #32
    639c:	00000297 	muleq	r0, r7, r2
    63a0:	00007917 	andeq	r7, r0, r7, lsl r9
    63a4:	18001a00 	stmdane	r0, {r9, fp, ip}
    63a8:	00000372 	andeq	r0, r0, r2, ror r3
    63ac:	21006602 	tstcs	r0, r2, lsl #12
    63b0:	04000008 	streq	r0, [r0], #-8
    63b4:	0016f100 	andseq	pc, r6, r0, lsl #2
    63b8:	aa010400 	bge	473c0 <__bss_end__+0x3b038>
    63bc:	01000003 	tsteq	r0, r3
    63c0:	0000124c 	andeq	r1, r0, ip, asr #4
    63c4:	00000af6 	strdeq	r0, [r0], -r6
    63c8:	0000a884 	andeq	sl, r0, r4, lsl #17
    63cc:	00000568 	andeq	r0, r0, r8, ror #10
    63d0:	000014c8 	andeq	r1, r0, r8, asr #9
    63d4:	88070802 	stmdahi	r7, {r1, fp}
    63d8:	02000000 	andeq	r0, r0, #0
    63dc:	00920704 	addseq	r0, r2, r4, lsl #14
    63e0:	01020000 	mrseq	r0, (UNDEF: 2)
    63e4:	00030206 	andeq	r0, r3, r6, lsl #4
    63e8:	05020200 	streq	r0, [r2, #-512]	; 0x200
    63ec:	0000032e 	andeq	r0, r0, lr, lsr #6
    63f0:	b8050402 	stmdalt	r5, {r1, sl}
    63f4:	02000000 	andeq	r0, r0, #0
    63f8:	00b30508 	adcseq	r0, r3, r8, lsl #10
    63fc:	01020000 	mrseq	r0, (UNDEF: 2)
    6400:	00030008 	andeq	r0, r3, r8
    6404:	07020200 	streq	r0, [r2, -r0, lsl #4]
    6408:	000001e2 	andeq	r0, r0, r2, ror #3
    640c:	8d070402 	cfstrshi	mvf0, [r7, #-8]
    6410:	03000000 	movweq	r0, #0
    6414:	6e690504 	cdpvs	5, 6, cr0, cr9, cr4, {0}
    6418:	04020074 	streq	r0, [r2], #-116	; 0x74
    641c:	00028607 	andeq	r8, r2, r7, lsl #12
    6420:	08010200 	stmdaeq	r1, {r9}
    6424:	00000309 	andeq	r0, r0, r9, lsl #6
    6428:	0c020104 	stfeqs	f0, [r2], {4}
    642c:	000000b2 	strheq	r0, [r0], -r2
    6430:	0010d505 	andseq	sp, r0, r5, lsl #10
    6434:	c9050000 	stmdbgt	r5, {}	; <UNPREDICTABLE>
    6438:	0100000f 	tsteq	r0, pc
    643c:	000f8205 	andeq	r8, pc, r5, lsl #4
    6440:	da050400 	ble	147448 <__bss_end__+0x13b0c0>
    6444:	0500000f 	streq	r0, [r0, #-15]
    6448:	000fe905 	andeq	lr, pc, r5, lsl #18
    644c:	f8050600 			; <UNDEFINED> instruction: 0xf8050600
    6450:	0700000f 	streq	r0, [r0, -pc]
    6454:	00108805 	andseq	r8, r0, r5, lsl #16
    6458:	07050300 	streq	r0, [r5, -r0, lsl #6]
    645c:	02000010 	andeq	r0, r0, #16
    6460:	103a0600 	eorsne	r0, sl, r0, lsl #12
    6464:	15020000 	strne	r0, [r2, #-0]
    6468:	00000079 	andeq	r0, r0, r9, ror r0
    646c:	000f3607 	andeq	r3, pc, r7, lsl #12
    6470:	843f0100 	ldrthi	r0, [pc], #-256	; 6478 <_start-0x1b88>
    6474:	d40000a8 	strle	r0, [r0], #-168	; 0xa8
    6478:	01000000 	mrseq	r0, (UNDEF: 0)
    647c:	0001339c 	muleq	r1, ip, r3
    6480:	69700800 	ldmdbvs	r0!, {fp}^
    6484:	3f01006e 	svccc	0x0001006e
    6488:	0000002c 	andeq	r0, r0, ip, lsr #32
    648c:	0000240e 	andeq	r2, r0, lr, lsl #8
    6490:	00128809 	andseq	r8, r2, r9, lsl #16
    6494:	33470100 	movtcc	r0, #28928	; 0x7100
    6498:	2c000001 	stccs	0, cr0, [r0], {1}
    649c:	09000024 	stmdbeq	r0, {r2, r5}
    64a0:	0000136b 	andeq	r1, r0, fp, ror #6
    64a4:	002c4901 	eoreq	r4, ip, r1, lsl #18
    64a8:	24810000 	strcs	r0, [r1], #0
    64ac:	1b090000 	blne	2464b4 <__bss_end__+0x23a12c>
    64b0:	01000013 	tsteq	r0, r3, lsl r0
    64b4:	00002c57 	andeq	r2, r0, r7, asr ip
    64b8:	00264d00 	eoreq	r4, r6, r0, lsl #26
    64bc:	a9180a00 	ldmdbge	r8, {r9, fp}
    64c0:	07e00000 	strbeq	r0, [r0, r0]!
    64c4:	01220000 	teqeq	r2, r0
    64c8:	010b0000 	mrseq	r0, (UNDEF: 11)
    64cc:	00750250 	rsbseq	r0, r5, r0, asr r2
    64d0:	a94c0c00 	stmdbge	ip, {sl, fp}^
    64d4:	08010000 	stmdaeq	r1, {}	; <UNPREDICTABLE>
    64d8:	010b0000 	mrseq	r0, (UNDEF: 11)
    64dc:	00750250 	rsbseq	r0, r5, r0, asr r2
    64e0:	040d0000 	streq	r0, [sp], #-0
    64e4:	00000139 	andeq	r0, r0, r9, lsr r1
    64e8:	00002c0e 	andeq	r2, r0, lr, lsl #24
    64ec:	133b0700 	teqne	fp, #0, 14
    64f0:	60010000 	andvs	r0, r1, r0
    64f4:	0000a958 	andeq	sl, r0, r8, asr r9
    64f8:	00000038 	andeq	r0, r0, r8, lsr r0
    64fc:	01969c01 	orrseq	r9, r6, r1, lsl #24
    6500:	70080000 	andvc	r0, r8, r0
    6504:	01006e69 	tsteq	r0, r9, ror #28
    6508:	00002c60 	andeq	r2, r0, r0, ror #24
    650c:	00267d00 	eoreq	r7, r6, r0, lsl #26
    6510:	12880900 	addne	r0, r8, #0, 18
    6514:	67010000 	strvs	r0, [r1, -r0]
    6518:	00000133 	andeq	r0, r0, r3, lsr r1
    651c:	0000269e 	muleq	r0, lr, r6
    6520:	00131b09 	andseq	r1, r3, r9, lsl #22
    6524:	2c680100 	stfcse	f0, [r8], #-0
    6528:	d4000000 	strle	r0, [r0], #-0
    652c:	0c000026 	stceq	0, cr0, [r0], {38}	; 0x26
    6530:	0000a988 	andeq	sl, r0, r8, lsl #19
    6534:	00000801 	andeq	r0, r0, r1, lsl #16
    6538:	0751010b 	ldrbeq	r0, [r1, -fp, lsl #2]
    653c:	5001f331 	andpl	pc, r1, r1, lsr r3	; <UNPREDICTABLE>
    6540:	00241a4f 	eoreq	r1, r4, pc, asr #20
    6544:	123f0700 	eorsne	r0, pc, #0, 14
    6548:	7b010000 	blvc	46550 <__bss_end__+0x3a1c8>
    654c:	0000a990 	muleq	r0, r0, r9
    6550:	00000038 	andeq	r0, r0, r8, lsr r0
    6554:	01ee9c01 	mvneq	r9, r1, lsl #24
    6558:	70080000 	andvc	r0, r8, r0
    655c:	01006e69 	tsteq	r0, r9, ror #28
    6560:	00002c7b 	andeq	r2, r0, fp, ror ip
    6564:	00271400 	eoreq	r1, r7, r0, lsl #8
    6568:	12880900 	addne	r0, r8, #0, 18
    656c:	81010000 	mrshi	r0, (UNDEF: 1)
    6570:	00000133 	andeq	r0, r0, r3, lsr r1
    6574:	00002735 	andeq	r2, r0, r5, lsr r7
    6578:	00131b09 	andseq	r1, r3, r9, lsl #22
    657c:	2c820100 	stfcss	f0, [r2], {0}
    6580:	6b000000 	blvs	6588 <_start-0x1a78>
    6584:	0c000027 	stceq	0, cr0, [r0], {39}	; 0x27
    6588:	0000a9c0 	andeq	sl, r0, r0, asr #19
    658c:	00000801 	andeq	r0, r0, r1, lsl #16
    6590:	0751010b 	ldrbeq	r0, [r1, -fp, lsl #2]
    6594:	5001f331 	andpl	pc, r1, r1, lsr r3	; <UNPREDICTABLE>
    6598:	00241a4f 	eoreq	r1, r4, pc, asr #20
    659c:	0f100700 	svceq	0x00100700
    65a0:	95010000 	strls	r0, [r1, #-0]
    65a4:	0000a9c8 	andeq	sl, r0, r8, asr #19
    65a8:	000000cc 	andeq	r0, r0, ip, asr #1
    65ac:	02649c01 	rsbeq	r9, r4, #256	; 0x100
    65b0:	70080000 	andvc	r0, r8, r0
    65b4:	01006e69 	tsteq	r0, r9, ror #28
    65b8:	00002c95 	muleq	r0, r5, ip
    65bc:	0027ab00 	eoreq	sl, r7, r0, lsl #22
    65c0:	12880900 	addne	r0, r8, #0, 18
    65c4:	9b010000 	blls	465cc <__bss_end__+0x3a244>
    65c8:	00000133 	andeq	r0, r0, r3, lsr r1
    65cc:	000027c9 	andeq	r2, r0, r9, asr #15
    65d0:	00136b09 	andseq	r6, r3, r9, lsl #22
    65d4:	2c9d0100 	ldfcss	f0, [sp], {0}
    65d8:	1e000000 	cdpne	0, 0, cr0, cr0, cr0, {0}
    65dc:	09000028 	stmdbeq	r0, {r3, r5}
    65e0:	0000131b 	andeq	r1, r0, fp, lsl r3
    65e4:	002cab01 	eoreq	sl, ip, r1, lsl #22
    65e8:	29ea0000 	stmibcs	sl!, {}^	; <UNPREDICTABLE>
    65ec:	5c0a0000 	stcpl	0, cr0, [sl], {-0}
    65f0:	e00000aa 	and	r0, r0, sl, lsr #1
    65f4:	53000007 	movwpl	r0, #7
    65f8:	0b000002 	bleq	6608 <_start-0x19f8>
    65fc:	75025001 	strvc	r5, [r2, #-1]
    6600:	880c0000 	stmdahi	ip, {}	; <UNPREDICTABLE>
    6604:	010000aa 	smlatbeq	r0, sl, r0, r0
    6608:	0b000008 	bleq	6630 <_start-0x19d0>
    660c:	75025001 	strvc	r5, [r2, #-1]
    6610:	0f000000 	svceq	0x00000000
    6614:	00000eb4 			; <UNDEFINED> instruction: 0x00000eb4
    6618:	0064b301 	rsbeq	fp, r4, r1, lsl #6
    661c:	aa940000 	bge	fe506624 <__bss_end__+0xfe4fa29c>
    6620:	004c0000 	subeq	r0, ip, r0
    6624:	9c010000 	stcls	0, cr0, [r1], {-0}
    6628:	000002ac 	andeq	r0, r0, ip, lsr #5
    662c:	6e697008 	cdpvs	0, 6, cr7, cr9, cr8, {0}
    6630:	2cb30100 	ldfcss	f0, [r3]
    6634:	08000000 	stmdaeq	r0, {}	; <UNPREDICTABLE>
    6638:	1000002a 	andne	r0, r0, sl, lsr #32
    663c:	b9010076 	stmdblt	r1, {r1, r2, r4, r5, r6}
    6640:	0000002c 	andeq	r0, r0, ip, lsr #32
    6644:	00002a60 	andeq	r2, r0, r0, ror #20
    6648:	00aab411 	adceq	fp, sl, r1, lsl r4
    664c:	0007e000 	andeq	lr, r7, r0
    6650:	aac41100 	bge	ff10aa58 <__bss_end__+0xff0fe6d0>
    6654:	07e00000 	strbeq	r0, [r0, r0]!
    6658:	07000000 	streq	r0, [r0, -r0]
    665c:	00000ef8 	strdeq	r0, [r0], -r8
    6660:	aae0c501 	bge	ff837a6c <__bss_end__+0xff82b6e4>
    6664:	00240000 	eoreq	r0, r4, r0
    6668:	9c010000 	stcls	0, cr0, [r1], {-0}
    666c:	000002fc 	strdeq	r0, [r0], -ip
    6670:	6e697008 	cdpvs	0, 6, cr7, cr9, cr8, {0}
    6674:	2cc50100 	stfcse	f0, [r5], {0}
    6678:	96000000 	strls	r0, [r0], -r0
    667c:	0800002a 	stmdaeq	r0, {r1, r3, r5}
    6680:	c5010076 	strgt	r0, [r1, #-118]	; 0x76
    6684:	0000002c 	andeq	r0, r0, ip, lsr #32
    6688:	00002ad0 	ldrdeq	r2, [r0], -r0
    668c:	00aaf80a 	adceq	pc, sl, sl, lsl #16
    6690:	00013e00 	andeq	r3, r1, r0, lsl #28
    6694:	0002f200 	andeq	pc, r2, r0, lsl #4
    6698:	50010b00 	andpl	r0, r1, r0, lsl #22
    669c:	5001f303 	andpl	pc, r1, r3, lsl #6
    66a0:	ab001100 	blge	aaa8 <gpio_read+0x14>
    66a4:	01960000 	orrseq	r0, r6, r0
    66a8:	07000000 	streq	r0, [r0, -r0]
    66ac:	00001097 	muleq	r0, r7, r0
    66b0:	ab04d101 	blge	13aabc <__bss_end__+0x12e734>
    66b4:	00d80000 	sbcseq	r0, r8, r0
    66b8:	9c010000 	stcls	0, cr0, [r1], {-0}
    66bc:	00000381 	andeq	r0, r0, r1, lsl #7
    66c0:	6e697008 	cdpvs	0, 6, cr7, cr9, cr8, {0}
    66c4:	2cd10100 	ldfcse	f0, [r1], {0}
    66c8:	0a000000 	beq	66d0 <_start-0x1930>
    66cc:	1200002b 	andne	r0, r0, #43	; 0x2b
    66d0:	00000a94 	muleq	r0, r4, sl
    66d4:	00b2d101 	adcseq	sp, r2, r1, lsl #2
    66d8:	2b280000 	blcs	a066e0 <__bss_end__+0x9fa358>
    66dc:	88090000 	stmdahi	r9, {}	; <UNPREDICTABLE>
    66e0:	01000012 	tsteq	r0, r2, lsl r0
    66e4:	000133d9 	ldrdeq	r3, [r1], -r9
    66e8:	002b4900 	eoreq	r4, fp, r0, lsl #18
    66ec:	136b0900 	cmnne	fp, #0, 18
    66f0:	da010000 	ble	466f8 <__bss_end__+0x3a370>
    66f4:	0000002c 	andeq	r0, r0, ip, lsr #32
    66f8:	00002b9e 	muleq	r0, lr, fp
    66fc:	00131b09 	andseq	r1, r3, r9, lsl #22
    6700:	2ce80100 	stfcse	f0, [r8]
    6704:	6a000000 	bvs	670c <_start-0x18f4>
    6708:	0a00002d 	beq	67c4 <_start-0x183c>
    670c:	0000aba0 	andeq	sl, r0, r0, lsr #23
    6710:	000007e0 	andeq	r0, r0, r0, ror #15
    6714:	00000370 	andeq	r0, r0, r0, ror r3
    6718:	0250010b 	subseq	r0, r0, #-1073741822	; 0xc0000002
    671c:	0c000076 	stceq	0, cr0, [r0], {118}	; 0x76
    6720:	0000abd0 	ldrdeq	sl, [r0], -r0
    6724:	00000801 	andeq	r0, r0, r1, lsl #16
    6728:	0250010b 	subseq	r0, r0, #-1073741822	; 0xc0000002
    672c:	00000076 	andeq	r0, r0, r6, ror r0
    6730:	00123313 	andseq	r3, r2, r3, lsl r3
    6734:	01050100 	mrseq	r0, (UNDEF: 21)
    6738:	00000064 	andeq	r0, r0, r4, rrx
    673c:	0000abdc 	ldrdeq	sl, [r0], -ip
    6740:	0000002c 	andeq	r0, r0, ip, lsr #32
    6744:	03b59c01 			; <UNDEFINED> instruction: 0x03b59c01
    6748:	36140000 	ldrcc	r0, [r4], -r0
    674c:	01000012 	tsteq	r0, r2, lsl r0
    6750:	002c0105 	eoreq	r0, ip, r5, lsl #2
    6754:	2d9b0000 	ldccs	0, cr0, [fp]
    6758:	ec110000 	ldc	0, cr0, [r1], {-0}
    675c:	e00000ab 	and	r0, r0, fp, lsr #1
    6760:	00000007 	andeq	r0, r0, r7
    6764:	0012cb15 	andseq	ip, r2, r5, lsl fp
    6768:	01140100 	tsteq	r4, r0, lsl #2
    676c:	0000ac08 	andeq	sl, r0, r8, lsl #24
    6770:	00000084 	andeq	r0, r0, r4, lsl #1
    6774:	04799c01 	ldrbteq	r9, [r9], #-3073	; 0xc01
    6778:	70160000 	andsvc	r0, r6, r0
    677c:	01006e69 	tsteq	r0, r9, ror #28
    6780:	002c0114 	eoreq	r0, ip, r4, lsl r1
    6784:	2dbc0000 	ldccs	0, cr0, [ip]
    6788:	5a170000 	bpl	5c6790 <__bss_end__+0x5ba408>
    678c:	01000012 	tsteq	r0, r2, lsl r0
    6790:	002c0126 	eoreq	r0, ip, r6, lsr #2
    6794:	2de80000 	stclcs	0, cr0, [r8]
    6798:	24180000 	ldrcs	r0, [r8], #-0
    679c:	1c0000ac 	stcne	0, cr0, [r0], {172}	; 0xac
    67a0:	1b000000 	blne	67a8 <_start-0x1858>
    67a4:	17000004 	strne	r0, [r0, -r4]
    67a8:	0000131b 	andeq	r1, r0, fp, lsl r3
    67ac:	2c011d01 	stccs	13, cr1, [r1], {1}
    67b0:	06000000 	streq	r0, [r0], -r0
    67b4:	1100002e 	tstne	r0, lr, lsr #32
    67b8:	0000ac30 	andeq	sl, r0, r0, lsr ip
    67bc:	000007e0 	andeq	r0, r0, r0, ror #15
    67c0:	00ac4011 	adceq	r4, ip, r1, lsl r0
    67c4:	00080100 	andeq	r0, r8, r0, lsl #2
    67c8:	44180000 	ldrmi	r0, [r8], #-0
    67cc:	200000ac 	andcs	r0, r0, ip, lsr #1
    67d0:	4b000000 	blmi	67d8 <_start-0x1828>
    67d4:	17000004 	strne	r0, [r0, -r4]
    67d8:	0000131b 	andeq	r1, r0, fp, lsl r3
    67dc:	2c012101 	stfcss	f2, [r1], {1}
    67e0:	24000000 	strcs	r0, [r0], #-0
    67e4:	1100002e 	tstne	r0, lr, lsr #32
    67e8:	0000ac50 	andeq	sl, r0, r0, asr ip
    67ec:	000007e0 	andeq	r0, r0, r0, ror #15
    67f0:	00ac6411 	adceq	r6, ip, r1, lsl r4
    67f4:	00080100 	andeq	r0, r8, r0, lsl #2
    67f8:	1c110000 	ldcne	0, cr0, [r1], {-0}
    67fc:	1d0000ac 	stcne	0, cr0, [r0, #-688]	; 0xfffffd50
    6800:	11000008 	tstne	r0, r8
    6804:	0000ac68 	andeq	sl, r0, r8, ror #24
    6808:	0000081d 	andeq	r0, r0, sp, lsl r8
    680c:	00ac7411 	adceq	r7, ip, r1, lsl r4
    6810:	0007e000 	andeq	lr, r7, r0
    6814:	ac801100 	stfges	f1, [r0], {0}
    6818:	08010000 	stmdaeq	r1, {}	; <UNPREDICTABLE>
    681c:	84110000 	ldrhi	r0, [r1], #-0
    6820:	1d0000ac 	stcne	0, cr0, [r0, #-688]	; 0xfffffd50
    6824:	00000008 	andeq	r0, r0, r8
    6828:	00135515 	andseq	r5, r3, r5, lsl r5
    682c:	01310100 	teqeq	r1, r0, lsl #2
    6830:	0000ac8c 	andeq	sl, r0, ip, lsl #25
    6834:	00000084 	andeq	r0, r0, r4, lsl #1
    6838:	053d9c01 	ldreq	r9, [sp, #-3073]!	; 0xc01
    683c:	70160000 	andsvc	r0, r6, r0
    6840:	01006e69 	tsteq	r0, r9, ror #28
    6844:	002c0131 	eoreq	r0, ip, r1, lsr r1
    6848:	2e420000 	cdpcs	0, 4, cr0, cr2, cr0, {0}
    684c:	5a170000 	bpl	5c6854 <__bss_end__+0x5ba4cc>
    6850:	01000012 	tsteq	r0, r2, lsl r0
    6854:	002c0142 	eoreq	r0, ip, r2, asr #2
    6858:	2e6e0000 	cdpcs	0, 6, cr0, cr14, cr0, {0}
    685c:	a8180000 	ldmdage	r8, {}	; <UNPREDICTABLE>
    6860:	1c0000ac 	stcne	0, cr0, [r0], {172}	; 0xac
    6864:	df000000 	svcle	0x00000000
    6868:	17000004 	strne	r0, [r0, -r4]
    686c:	0000131b 	andeq	r1, r0, fp, lsl r3
    6870:	2c013901 	stccs	9, cr3, [r1], {1}
    6874:	8c000000 	stchi	0, cr0, [r0], {-0}
    6878:	1100002e 	tstne	r0, lr, lsr #32
    687c:	0000acb4 			; <UNDEFINED> instruction: 0x0000acb4
    6880:	000007e0 	andeq	r0, r0, r0, ror #15
    6884:	00acc411 	adceq	ip, ip, r1, lsl r4
    6888:	00080100 	andeq	r0, r8, r0, lsl #2
    688c:	c8180000 	ldmdagt	r8, {}	; <UNPREDICTABLE>
    6890:	200000ac 	andcs	r0, r0, ip, lsr #1
    6894:	0f000000 	svceq	0x00000000
    6898:	17000005 	strne	r0, [r0, -r5]
    689c:	0000131b 	andeq	r1, r0, fp, lsl r3
    68a0:	2c013d01 	stccs	13, cr3, [r1], {1}
    68a4:	aa000000 	bge	68ac <_start-0x1754>
    68a8:	1100002e 	tstne	r0, lr, lsr #32
    68ac:	0000acd4 	ldrdeq	sl, [r0], -r4
    68b0:	000007e0 	andeq	r0, r0, r0, ror #15
    68b4:	00ace811 	adceq	lr, ip, r1, lsl r8
    68b8:	00080100 	andeq	r0, r8, r0, lsl #2
    68bc:	a0110000 	andsge	r0, r1, r0
    68c0:	1d0000ac 	stcne	0, cr0, [r0, #-688]	; 0xfffffd50
    68c4:	11000008 	tstne	r0, r8
    68c8:	0000acec 	andeq	sl, r0, ip, ror #25
    68cc:	0000081d 	andeq	r0, r0, sp, lsl r8
    68d0:	00acf811 	adceq	pc, ip, r1, lsl r8	; <UNPREDICTABLE>
    68d4:	0007e000 	andeq	lr, r7, r0
    68d8:	ad041100 	stfges	f1, [r4, #-0]
    68dc:	08010000 	stmdaeq	r1, {}	; <UNPREDICTABLE>
    68e0:	08110000 	ldmdaeq	r1, {}	; <UNPREDICTABLE>
    68e4:	1d0000ad 	stcne	0, cr0, [r0, #-692]	; 0xfffffd4c
    68e8:	00000008 	andeq	r0, r0, r8
    68ec:	00120213 	andseq	r0, r2, r3, lsl r2
    68f0:	014c0100 	mrseq	r0, (UNDEF: 92)
    68f4:	00000064 	andeq	r0, r0, r4, rrx
    68f8:	0000ad10 	andeq	sl, r0, r0, lsl sp
    68fc:	00000084 	andeq	r0, r0, r4, lsl #1
    6900:	05e39c01 	strbeq	r9, [r3, #3073]!	; 0xc01
    6904:	70160000 	andsvc	r0, r6, r0
    6908:	01006e69 	tsteq	r0, r9, ror #28
    690c:	002c014c 	eoreq	r0, ip, ip, asr #2
    6910:	2ec80000 	cdpcs	0, 12, cr0, cr8, cr0, {0}
    6914:	2c180000 	ldccs	0, cr0, [r8], {-0}
    6918:	240000ad 	strcs	r0, [r0], #-173	; 0xad
    691c:	97000000 	strls	r0, [r0, -r0]
    6920:	17000005 	strne	r0, [r0, -r5]
    6924:	00001271 	andeq	r1, r0, r1, ror r2
    6928:	2c015301 	stccs	3, cr5, [r1], {1}
    692c:	0a000000 	beq	6934 <_start-0x16cc>
    6930:	1100002f 	tstne	r0, pc, lsr #32
    6934:	0000ad38 	andeq	sl, r0, r8, lsr sp
    6938:	000007e0 	andeq	r0, r0, r0, ror #15
    693c:	00ad4811 	adceq	r4, sp, r1, lsl r8
    6940:	00081d00 	andeq	r1, r8, r0, lsl #26
    6944:	50180000 	andspl	r0, r8, r0
    6948:	2c0000ad 	stccs	0, cr0, [r0], {173}	; 0xad
    694c:	d0000000 	andle	r0, r0, r0
    6950:	17000005 	strne	r0, [r0, -r5]
    6954:	00001271 	andeq	r1, r0, r1, ror r2
    6958:	2c015601 	stccs	6, cr5, [r1], {1}
    695c:	24000000 	strcs	r0, [r0], #-0
    6960:	1100002f 	tstne	r0, pc, lsr #32
    6964:	0000ad5c 	andeq	sl, r0, ip, asr sp
    6968:	000007e0 	andeq	r0, r0, r0, ror #15
    696c:	00ad6811 	adceq	r6, sp, r1, lsl r8
    6970:	00081d00 	andeq	r1, r8, r0, lsl #26
    6974:	ad741100 	ldfgee	f1, [r4, #-0]
    6978:	081d0000 	ldmdaeq	sp, {}	; <UNPREDICTABLE>
    697c:	11000000 	mrsne	r0, (UNDEF: 0)
    6980:	0000ad24 	andeq	sl, r0, r4, lsr #26
    6984:	0000081d 	andeq	r0, r0, sp, lsl r8
    6988:	00ad8011 	adceq	r8, sp, r1, lsl r0
    698c:	00081d00 	andeq	r1, r8, r0, lsl #26
    6990:	ee150000 	cdp	0, 1, cr0, cr5, cr0, {0}
    6994:	01000012 	tsteq	r0, r2, lsl r0
    6998:	ad94015f 	ldfges	f0, [r4, #380]	; 0x17c
    699c:	00580000 	subseq	r0, r8, r0
    69a0:	9c010000 	stcls	0, cr0, [r1], {-0}
    69a4:	00000648 	andeq	r0, r0, r8, asr #12
    69a8:	6e697016 	mcrvs	0, 3, r7, cr9, cr6, {0}
    69ac:	015f0100 	cmpeq	pc, r0, lsl #2
    69b0:	0000002c 	andeq	r0, r0, ip, lsr #32
    69b4:	00002f37 	andeq	r2, r0, r7, lsr pc
    69b8:	00ada811 	adceq	sl, sp, r1, lsl r8
    69bc:	00081d00 	andeq	r1, r8, r0, lsl #26
    69c0:	adc40a00 	vstrge	s1, [r4]
    69c4:	08010000 	stmdaeq	r1, {}	; <UNPREDICTABLE>
    69c8:	06280000 	strteq	r0, [r8], -r0
    69cc:	010b0000 	mrseq	r0, (UNDEF: 11)
    69d0:	74310451 	ldrtvc	r0, [r1], #-1105	; 0x451
    69d4:	0a002400 	beq	f9dc <__bss_end__+0x3654>
    69d8:	0000ade0 	andeq	sl, r0, r0, ror #27
    69dc:	00000801 	andeq	r0, r0, r1, lsl #16
    69e0:	0000063e 	andeq	r0, r0, lr, lsr r6
    69e4:	0451010b 	ldrbeq	r0, [r1], #-267	; 0x10b
    69e8:	24007431 	strcs	r7, [r0], #-1073	; 0x431
    69ec:	ade41100 	stfgee	f1, [r4]
    69f0:	081d0000 	ldmdaeq	sp, {}	; <UNPREDICTABLE>
    69f4:	19000000 	stmdbne	r0, {}	; <UNPREDICTABLE>
    69f8:	000012b9 			; <UNDEFINED> instruction: 0x000012b9
    69fc:	01332801 	teqeq	r3, r1, lsl #16
    6a00:	03050000 	movweq	r0, #20480	; 0x5000
    6a04:	0000af5c 	andeq	sl, r0, ip, asr pc
    6a08:	00132319 	andseq	r2, r3, r9, lsl r3
    6a0c:	33290100 	teqcc	r9, #0, 2
    6a10:	05000001 	streq	r0, [r0, #-1]
    6a14:	00af5803 	adceq	r5, pc, r3, lsl #16
    6a18:	13761900 	cmnne	r6, #0, 18
    6a1c:	2a010000 	bcs	46a24 <__bss_end__+0x3a69c>
    6a20:	00000133 	andeq	r0, r0, r3, lsr r1
    6a24:	af540305 	svcge	0x00540305
    6a28:	91190000 	tstls	r9, r0
    6a2c:	01000012 	tsteq	r0, r2, lsl r0
    6a30:	0001332c 	andeq	r3, r1, ip, lsr #6
    6a34:	00030500 	andeq	r0, r3, r0, lsl #10
    6a38:	190000af 	stmdbne	r0, {r0, r1, r2, r3, r5, r7}
    6a3c:	00001299 	muleq	r0, r9, r2
    6a40:	01332d01 	teqeq	r3, r1, lsl #26
    6a44:	03050000 	movweq	r0, #20480	; 0x5000
    6a48:	0000af04 	andeq	sl, r0, r4, lsl #30
    6a4c:	00121619 	andseq	r1, r2, r9, lsl r6
    6a50:	332e0100 	teqcc	lr, #0, 2
    6a54:	05000001 	streq	r0, [r0, #-1]
    6a58:	00af0803 	adceq	r0, pc, r3, lsl #16
    6a5c:	12a11900 	adcne	r1, r1, #0, 18
    6a60:	2f010000 	svccs	0x00010000
    6a64:	00000133 	andeq	r0, r0, r3, lsr r1
    6a68:	af0c0305 	svcge	0x000c0305
    6a6c:	a9190000 	ldmdbge	r9, {}	; <UNPREDICTABLE>
    6a70:	01000012 	tsteq	r0, r2, lsl r0
    6a74:	00013330 	andeq	r3, r1, r0, lsr r3
    6a78:	10030500 	andne	r0, r3, r0, lsl #10
    6a7c:	190000af 	stmdbne	r0, {r0, r1, r2, r3, r5, r7}
    6a80:	000012b1 			; <UNDEFINED> instruction: 0x000012b1
    6a84:	01333101 	teqeq	r3, r1, lsl #2
    6a88:	03050000 	movweq	r0, #20480	; 0x5000
    6a8c:	0000af14 	andeq	sl, r0, r4, lsl pc
    6a90:	00126319 	andseq	r6, r2, r9, lsl r3
    6a94:	33330100 	teqcc	r3, #0, 2
    6a98:	05000001 	streq	r0, [r0, #-1]
    6a9c:	00af1803 	adceq	r1, pc, r3, lsl #16
    6aa0:	126a1900 	rsbne	r1, sl, #0, 18
    6aa4:	34010000 	strcc	r0, [r1], #-0
    6aa8:	00000133 	andeq	r0, r0, r3, lsr r1
    6aac:	af1c0305 	svcge	0x001c0305
    6ab0:	1e190000 	cdpne	0, 1, cr0, cr9, cr0, {0}
    6ab4:	01000012 	tsteq	r0, r2, lsl r0
    6ab8:	00013336 	andeq	r3, r1, r6, lsr r3
    6abc:	20030500 	andcs	r0, r3, r0, lsl #10
    6ac0:	190000af 	stmdbne	r0, {r0, r1, r2, r3, r5, r7}
    6ac4:	000012c4 	andeq	r1, r0, r4, asr #5
    6ac8:	01333701 	teqeq	r3, r1, lsl #14
    6acc:	03050000 	movweq	r0, #20480	; 0x5000
    6ad0:	0000af24 	andeq	sl, r0, r4, lsr #30
    6ad4:	00127a19 	andseq	r7, r2, r9, lsl sl
    6ad8:	33390100 	teqcc	r9, #0, 2
    6adc:	05000001 	streq	r0, [r0, #-1]
    6ae0:	00af2803 	adceq	r2, pc, r3, lsl #16
    6ae4:	12811900 	addne	r1, r1, #0, 18
    6ae8:	3a010000 	bcc	46af0 <__bss_end__+0x3a768>
    6aec:	00000133 	andeq	r0, r0, r3, lsr r1
    6af0:	af2c0305 	svcge	0x002c0305
    6af4:	ff190000 			; <UNDEFINED> instruction: 0xff190000
    6af8:	01000012 	tsteq	r0, r2, lsl r0
    6afc:	000133f0 	strdeq	r3, [r1], -r0
    6b00:	50030500 	andpl	r0, r3, r0, lsl #10
    6b04:	190000af 	stmdbne	r0, {r0, r1, r2, r3, r5, r7}
    6b08:	0000130d 	andeq	r1, r0, sp, lsl #6
    6b0c:	0133f101 	teqeq	r3, r1, lsl #2
    6b10:	03050000 	movweq	r0, #20480	; 0x5000
    6b14:	0000af30 	andeq	sl, r0, r0, lsr pc
    6b18:	00132d19 	andseq	r2, r3, r9, lsl sp
    6b1c:	33f30100 	mvnscc	r0, #0, 2
    6b20:	05000001 	streq	r0, [r0, #-1]
    6b24:	00af4803 	adceq	r4, pc, r3, lsl #16
    6b28:	13341900 	teqne	r4, #0, 18
    6b2c:	f4010000 	vst4.8	{d0-d3}, [r1], r0
    6b30:	00000133 	andeq	r0, r0, r3, lsr r1
    6b34:	af4c0305 	svcge	0x004c0305
    6b38:	e0190000 	ands	r0, r9, r0
    6b3c:	01000012 	tsteq	r0, r2, lsl r0
    6b40:	000133f6 	strdeq	r3, [r1], -r6
    6b44:	34030500 	strcc	r0, [r3], #-1280	; 0x500
    6b48:	190000af 	stmdbne	r0, {r0, r1, r2, r3, r5, r7}
    6b4c:	000012e7 	andeq	r1, r0, r7, ror #5
    6b50:	0133f701 	teqeq	r3, r1, lsl #14
    6b54:	03050000 	movweq	r0, #20480	; 0x5000
    6b58:	0000af38 	andeq	sl, r0, r8, lsr pc
    6b5c:	00134719 	andseq	r4, r3, r9, lsl r7
    6b60:	33f90100 	mvnscc	r0, #0, 2
    6b64:	05000001 	streq	r0, [r0, #-1]
    6b68:	00af4003 	adceq	r4, pc, r3
    6b6c:	134e1900 	movtne	r1, #59648	; 0xe900
    6b70:	fa010000 	blx	46b78 <__bss_end__+0x3a7f0>
    6b74:	00000133 	andeq	r0, r0, r3, lsr r1
    6b78:	af440305 	svcge	0x00440305
    6b7c:	25190000 	ldrcs	r0, [r9, #-0]
    6b80:	01000012 	tsteq	r0, r2, lsl r0
    6b84:	000133fc 	strdeq	r3, [r1], -ip
    6b88:	3c030500 	cfstr32cc	mvfx0, [r3], {-0}
    6b8c:	1a0000af 	bne	6e50 <_start-0x11b0>
    6b90:	000001d7 	ldrdeq	r0, [r0], -r7
    6b94:	002c2001 	eoreq	r2, ip, r1
    6b98:	07f50000 	ldrbeq	r0, [r5, r0]!
    6b9c:	f51b0000 			; <UNDEFINED> instruction: 0xf51b0000
    6ba0:	00000007 	andeq	r0, r0, r7
    6ba4:	07fb040d 	ldrbeq	r0, [fp, sp, lsl #8]!
    6ba8:	001c0000 	andseq	r0, ip, r0
    6bac:	1d000008 	stcne	0, cr0, [r0, #-32]	; 0xffffffe0
    6bb0:	0010251e 	andseq	r2, r0, lr, lsl r5
    6bb4:	171e0100 	ldrne	r0, [lr, -r0, lsl #2]
    6bb8:	1b000008 	blne	6be0 <_start-0x1420>
    6bbc:	00000817 	andeq	r0, r0, r7, lsl r8
    6bc0:	00002c1b 	andeq	r2, r0, fp, lsl ip
    6bc4:	040d0000 	streq	r0, [sp], #-0
    6bc8:	00000800 	andeq	r0, r0, r0, lsl #16
    6bcc:	000fbd1f 	andeq	fp, pc, pc, lsl sp	; <UNPREDICTABLE>
    6bd0:	008a0300 	addeq	r0, sl, r0, lsl #6
    6bd4:	000001c3 	andeq	r0, r0, r3, asr #3
    6bd8:	18ba0004 	ldmne	sl!, {r2}
    6bdc:	01040000 	mrseq	r0, (UNDEF: 4)
    6be0:	000003aa 	andeq	r0, r0, sl, lsr #7
    6be4:	00138701 	andseq	r8, r3, r1, lsl #14
    6be8:	000af600 	andeq	pc, sl, r0, lsl #12
    6bec:	00adec00 	adceq	lr, sp, r0, lsl #24
    6bf0:	00005000 	andeq	r5, r0, r0
    6bf4:	00164400 	andseq	r4, r6, r0, lsl #8
    6bf8:	05040200 	streq	r0, [r4, #-512]	; 0x200
    6bfc:	00746e69 	rsbseq	r6, r4, r9, ror #28
    6c00:	00003603 	andeq	r3, r0, r3, lsl #12
    6c04:	37d40200 	ldrbcc	r0, [r4, r0, lsl #4]
    6c08:	04000000 	streq	r0, [r0], #-0
    6c0c:	00920704 	addseq	r0, r2, r4, lsl #14
    6c10:	01040000 	mrseq	r0, (UNDEF: 4)
    6c14:	00030206 	andeq	r0, r3, r6, lsl #4
    6c18:	05020400 	streq	r0, [r2, #-1024]	; 0x400
    6c1c:	0000032e 	andeq	r0, r0, lr, lsr #6
    6c20:	b8050404 	stmdalt	r5, {r2, sl}
    6c24:	04000000 	streq	r0, [r0], #-0
    6c28:	00b30508 	adcseq	r0, r3, r8, lsl #10
    6c2c:	6d030000 	stcvs	0, cr0, [r3, #-0]
    6c30:	03000004 	movweq	r0, #4
    6c34:	0000652e 	andeq	r6, r0, lr, lsr #10
    6c38:	08010400 	stmdaeq	r1, {sl}
    6c3c:	00000300 	andeq	r0, r0, r0, lsl #6
    6c40:	e2070204 	and	r0, r7, #4, 4	; 0x40000000
    6c44:	03000001 	movweq	r0, #1
    6c48:	0000038b 	andeq	r0, r0, fp, lsl #7
    6c4c:	007e3403 	rsbseq	r3, lr, r3, lsl #8
    6c50:	04040000 	streq	r0, [r4], #-0
    6c54:	00008d07 	andeq	r8, r0, r7, lsl #26
    6c58:	07080400 	streq	r0, [r8, -r0, lsl #8]
    6c5c:	00000088 	andeq	r0, r0, r8, lsl #1
    6c60:	86070404 	strhi	r0, [r7], -r4, lsl #8
    6c64:	05000002 	streq	r0, [r0, #-2]
    6c68:	08010404 	stmdaeq	r1, {r2, sl}
    6c6c:	00000309 	andeq	r0, r0, r9, lsl #6
    6c70:	0e040c06 	cdpeq	12, 0, cr0, cr4, cr6, {0}
    6c74:	000000d3 	ldrdeq	r0, [r0], -r3
    6c78:	00787407 	rsbseq	r7, r8, r7, lsl #8
    6c7c:	005a0f04 	subseq	r0, sl, r4, lsl #30
    6c80:	07000000 	streq	r0, [r0, -r0]
    6c84:	04007872 	streq	r7, [r0], #-2162	; 0x872
    6c88:	00005a0f 	andeq	r5, r0, pc, lsl #20
    6c8c:	c6080100 	strgt	r0, [r8], -r0, lsl #2
    6c90:	0400000c 	streq	r0, [r0], #-12
    6c94:	00007310 	andeq	r7, r0, r0, lsl r3
    6c98:	77080400 	strvc	r0, [r8, -r0, lsl #8]
    6c9c:	0400000c 	streq	r0, [r0], #-12
    6ca0:	00007311 	andeq	r7, r0, r1, lsl r3
    6ca4:	03000800 	movweq	r0, #2048	; 0x800
    6ca8:	00000caf 	andeq	r0, r0, pc, lsr #25
    6cac:	009c1204 	addseq	r1, ip, r4, lsl #4
    6cb0:	01090000 	mrseq	r0, (UNDEF: 9)
    6cb4:	00f91005 	rscseq	r1, r9, r5
    6cb8:	cb0a0000 	blgt	286cc0 <__bss_end__+0x27a938>
    6cbc:	0100000c 	tsteq	r0, ip
    6cc0:	000cb90a 	andeq	fp, ip, sl, lsl #18
    6cc4:	a10a0200 	mrsge	r0, R10_fiq
    6cc8:	0300000c 	movweq	r0, #12
    6ccc:	0ce00300 	stcleq	3, cr0, [r0]
    6cd0:	10050000 	andne	r0, r5, r0
    6cd4:	000000de 	ldrdeq	r0, [r0], -lr
    6cd8:	14051406 	strne	r1, [r5], #-1030	; 0x406
    6cdc:	00000131 	andeq	r0, r0, r1, lsr r1
    6ce0:	000d4708 	andeq	r4, sp, r8, lsl #14
    6ce4:	37150500 	ldrcc	r0, [r5, -r0, lsl #10]
    6ce8:	00000000 	andeq	r0, r0, r0
    6cec:	000d3b08 	andeq	r3, sp, r8, lsl #22
    6cf0:	f9180500 			; <UNDEFINED> instruction: 0xf9180500
    6cf4:	04000000 	streq	r0, [r0], #-0
    6cf8:	000d0608 	andeq	r0, sp, r8, lsl #12
    6cfc:	d31b0500 	tstle	fp, #0, 10
    6d00:	08000000 	stmdaeq	r0, {}	; <UNPREDICTABLE>
    6d04:	0cf80300 	ldcleq	3, cr0, [r8]
    6d08:	20050000 	andcs	r0, r5, r0
    6d0c:	00000104 	andeq	r0, r0, r4, lsl #2
    6d10:	0013800b 	andseq	r8, r3, fp
    6d14:	7e050100 	adfvcs	f0, f5, f0
    6d18:	ec000001 	stc	0, cr0, [r0], {1}
    6d1c:	280000ad 	stmdacs	r0, {r0, r2, r3, r5, r7}
    6d20:	01000000 	mrseq	r0, (UNDEF: 0)
    6d24:	00017e9c 	muleq	r1, ip, lr
    6d28:	00630c00 	rsbeq	r0, r3, r0, lsl #24
    6d2c:	017e0601 	cmneq	lr, r1, lsl #12
    6d30:	00000000 	andeq	r0, r0, r0
    6d34:	000d0900 	andeq	r0, sp, r0, lsl #18
    6d38:	ab0000ae 	blge	6ff8 <_start-0x1008>
    6d3c:	0e000001 	cdpeq	0, 0, cr0, cr0, cr1, {0}
    6d40:	34015201 	strcc	r5, [r1], #-513	; 0x201
    6d44:	0151010e 	cmpeq	r1, lr, lsl #2
    6d48:	50010e30 	andpl	r0, r1, r0, lsr lr
    6d4c:	24474203 	strbcs	r4, [r7], #-515	; 0x203
    6d50:	040f0000 	streq	r0, [pc], #-0	; 6d58 <_start-0x12a8>
    6d54:	00000131 	andeq	r0, r0, r1, lsr r1
    6d58:	000d0e0b 	andeq	r0, sp, fp, lsl #28
    6d5c:	7e0c0100 	adfvce	f0, f4, f0
    6d60:	14000001 	strne	r0, [r0], #-1
    6d64:	280000ae 	stmdacs	r0, {r1, r2, r3, r5, r7}
    6d68:	01000000 	mrseq	r0, (UNDEF: 0)
    6d6c:	0001ab9c 	muleq	r1, ip, fp
    6d70:	00630c00 	rsbeq	r0, r3, r0, lsl #24
    6d74:	017e0d01 	cmneq	lr, r1, lsl #26
    6d78:	00000000 	andeq	r0, r0, r0
    6d7c:	10000900 	andne	r0, r0, r0, lsl #18
    6d80:	00000434 	andeq	r0, r0, r4, lsr r4
    6d84:	00931b06 	addseq	r1, r3, r6, lsl #22
    6d88:	93110000 	tstls	r1, #0
    6d8c:	11000000 	mrsne	r0, (UNDEF: 0)
    6d90:	00000025 	andeq	r0, r0, r5, lsr #32
    6d94:	00002c11 	andeq	r2, r0, r1, lsl ip
    6d98:	3e000000 	cdpcc	0, 0, cr0, cr0, cr0, {0}
    6d9c:	04000001 	streq	r0, [r0], #-1
    6da0:	00199e00 	andseq	r9, r9, r0, lsl #28
    6da4:	aa010400 	bge	47dac <__bss_end__+0x3ba24>
    6da8:	01000003 	tsteq	r0, r3
    6dac:	000013af 	andeq	r1, r0, pc, lsr #7
    6db0:	00000af6 	strdeq	r0, [r0], -r6
    6db4:	0000ae3c 	andeq	sl, r0, ip, lsr lr
    6db8:	00000044 	andeq	r0, r0, r4, asr #32
    6dbc:	00001770 	andeq	r1, r0, r0, ror r7
    6dc0:	69050402 	stmdbvs	r5, {r1, sl}
    6dc4:	0300746e 	movweq	r7, #1134	; 0x46e
    6dc8:	00920704 	addseq	r0, r2, r4, lsl #14
    6dcc:	01030000 	mrseq	r0, (UNDEF: 3)
    6dd0:	00030206 	andeq	r0, r3, r6, lsl #4
    6dd4:	05020300 	streq	r0, [r2, #-768]	; 0x300
    6dd8:	0000032e 	andeq	r0, r0, lr, lsr #6
    6ddc:	b8050403 	stmdalt	r5, {r0, r1, sl}
    6de0:	03000000 	movweq	r0, #0
    6de4:	00b30508 	adcseq	r0, r3, r8, lsl #10
    6de8:	01030000 	mrseq	r0, (UNDEF: 3)
    6dec:	00030008 	andeq	r0, r3, r8
    6df0:	07020300 	streq	r0, [r2, -r0, lsl #6]
    6df4:	000001e2 	andeq	r0, r0, r2, ror #3
    6df8:	8d070403 	cfstrshi	mvf0, [r7, #-12]
    6dfc:	03000000 	movweq	r0, #0
    6e00:	00880708 	addeq	r0, r8, r8, lsl #14
    6e04:	04030000 	streq	r0, [r3], #-0
    6e08:	00028607 	andeq	r8, r2, r7, lsl #12
    6e0c:	08010300 	stmdaeq	r1, {r8, r9}
    6e10:	00000309 	andeq	r0, r0, r9, lsl #6
    6e14:	007f0404 	rsbseq	r0, pc, r4, lsl #8
    6e18:	72050000 	andvc	r0, r5, #0
    6e1c:	06000000 	streq	r0, [r0], -r0
    6e20:	000013a2 	andeq	r1, r0, r2, lsr #7
    6e24:	ae3c0201 	cdpge	2, 3, cr0, cr12, cr1, {0}
    6e28:	00440000 	subeq	r0, r4, r0
    6e2c:	9c010000 	stcls	0, cr0, [r1], {-0}
    6e30:	00000108 	andeq	r0, r0, r8, lsl #2
    6e34:	00637007 	rsbeq	r7, r3, r7
    6e38:	002c0201 	eoreq	r0, ip, r1, lsl #4
    6e3c:	2f630000 	svccs	0x00630000
    6e40:	bf080000 	svclt	0x00080000
    6e44:	18000001 	stmdane	r0, {r0}
    6e48:	05000001 	streq	r0, [r0, #-1]
    6e4c:	00becc03 	adcseq	ip, lr, r3, lsl #24
    6e50:	ae4c0900 	cdpge	9, 4, cr0, cr12, cr0, {0}
    6e54:	011d0000 	tsteq	sp, r0
    6e58:	6c0a0000 	stcvs	0, cr0, [sl], {-0}
    6e5c:	240000ae 	strcs	r0, [r0], #-174	; 0xae
    6e60:	fe000001 	cdp2	0, 0, cr0, cr0, cr1, {0}
    6e64:	0b000000 	bleq	6e6c <_start-0x1194>
    6e68:	32015301 	andcc	r5, r1, #67108864	; 0x4000000
    6e6c:	0552010b 	ldrbeq	r0, [r2, #-267]	; 0x10b
    6e70:	00becc03 	adcseq	ip, lr, r3, lsl #24
    6e74:	51010b00 	tstpl	r1, r0, lsl #22
    6e78:	bedc0305 	cdplt	3, 13, cr0, cr12, cr5, {0}
    6e7c:	010b0000 	mrseq	r0, (UNDEF: 11)
    6e80:	68030550 	stmdavs	r3, {r4, r6, r8, sl}
    6e84:	0b0000be 	bleq	7184 <_start-0xe7c>
    6e88:	02047d02 	andeq	r7, r4, #2, 26	; 0x80
    6e8c:	020b0074 	andeq	r0, fp, #116	; 0x74
    6e90:	0305007d 	movweq	r0, #20605	; 0x507d
    6e94:	0000bf08 	andeq	fp, r0, r8, lsl #30
    6e98:	ae700900 	cdpge	9, 7, cr0, cr0, cr0, {0}
    6e9c:	013a0000 	teqeq	sl, r0
    6ea0:	0c000000 	stceq	0, cr0, [r0], {-0}
    6ea4:	00000072 	andeq	r0, r0, r2, ror r0
    6ea8:	00000118 	andeq	r0, r0, r8, lsl r1
    6eac:	00006b0d 	andeq	r6, r0, sp, lsl #22
    6eb0:	05000c00 	streq	r0, [r0, #-3072]	; 0xc00
    6eb4:	00000108 	andeq	r0, r0, r8, lsl #2
    6eb8:	00019c0e 	andeq	r9, r1, lr, lsl #24
    6ebc:	0f1e0200 	svceq	0x001e0200
    6ec0:	00000b68 	andeq	r0, r0, r8, ror #22
    6ec4:	00252902 	eoreq	r2, r5, r2, lsl #18
    6ec8:	013a0000 	teqeq	sl, r0
    6ecc:	79100000 	ldmdbvc	r0, {}	; <UNPREDICTABLE>
    6ed0:	11000000 	mrsne	r0, (UNDEF: 0)
    6ed4:	03720e00 	cmneq	r2, #0, 28
    6ed8:	66020000 	strvs	r0, [r2], -r0
    6edc:	00013e00 	andeq	r3, r1, r0, lsl #28
    6ee0:	76000400 	strvc	r0, [r0], -r0, lsl #8
    6ee4:	0400001a 	streq	r0, [r0], #-26
    6ee8:	0003aa01 	andeq	sl, r3, r1, lsl #20
    6eec:	13d80100 	bicsne	r0, r8, #0, 2
    6ef0:	0af60000 	beq	ffd86ef8 <__bss_end__+0xffd7ab70>
    6ef4:	ae800000 	cdpge	0, 8, cr0, cr0, cr0, {0}
    6ef8:	00440000 	subeq	r0, r4, r0
    6efc:	18140000 	ldmdane	r4, {}	; <UNPREDICTABLE>
    6f00:	04020000 	streq	r0, [r2], #-0
    6f04:	746e6905 	strbtvc	r6, [lr], #-2309	; 0x905
    6f08:	07040300 	streq	r0, [r4, -r0, lsl #6]
    6f0c:	00000092 	muleq	r0, r2, r0
    6f10:	02060103 	andeq	r0, r6, #-1073741824	; 0xc0000000
    6f14:	03000003 	movweq	r0, #3
    6f18:	032e0502 	teqeq	lr, #8388608	; 0x800000
    6f1c:	04030000 	streq	r0, [r3], #-0
    6f20:	0000b805 	andeq	fp, r0, r5, lsl #16
    6f24:	05080300 	streq	r0, [r8, #-768]	; 0x300
    6f28:	000000b3 	strheq	r0, [r0], -r3
    6f2c:	00080103 	andeq	r0, r8, r3, lsl #2
    6f30:	03000003 	movweq	r0, #3
    6f34:	01e20702 	mvneq	r0, r2, lsl #14
    6f38:	04030000 	streq	r0, [r3], #-0
    6f3c:	00008d07 	andeq	r8, r0, r7, lsl #26
    6f40:	07080300 	streq	r0, [r8, -r0, lsl #6]
    6f44:	00000088 	andeq	r0, r0, r8, lsl #1
    6f48:	86070403 	strhi	r0, [r7], -r3, lsl #8
    6f4c:	03000002 	movweq	r0, #2
    6f50:	03090801 	movweq	r0, #38913	; 0x9801
    6f54:	04040000 	streq	r0, [r4], #-0
    6f58:	0000007f 	andeq	r0, r0, pc, ror r0
    6f5c:	00007205 	andeq	r7, r0, r5, lsl #4
    6f60:	140a0600 	strne	r0, [sl], #-1536	; 0x600
    6f64:	02010000 	andeq	r0, r1, #0
    6f68:	0000ae80 	andeq	sl, r0, r0, lsl #29
    6f6c:	00000044 	andeq	r0, r0, r4, asr #32
    6f70:	01089c01 	tsteq	r8, r1, lsl #24
    6f74:	70070000 	andvc	r0, r7, r0
    6f78:	02010063 	andeq	r0, r1, #99	; 0x63
    6f7c:	0000002c 	andeq	r0, r0, ip, lsr #32
    6f80:	00002f81 	andeq	r2, r0, r1, lsl #31
    6f84:	0001bf08 	andeq	fp, r1, r8, lsl #30
    6f88:	00011800 	andeq	r1, r1, r0, lsl #16
    6f8c:	10030500 	andne	r0, r3, r0, lsl #10
    6f90:	090000bf 	stmdbeq	r0, {r0, r1, r2, r3, r4, r5, r7}
    6f94:	0000ae90 	muleq	r0, r0, lr
    6f98:	0000011d 	andeq	r0, r0, sp, lsl r1
    6f9c:	00aeb00a 	adceq	fp, lr, sl
    6fa0:	00012400 	andeq	r2, r1, r0, lsl #8
    6fa4:	0000fe00 	andeq	pc, r0, r0, lsl #28
    6fa8:	53010b00 	movwpl	r0, #6912	; 0x1b00
    6fac:	010b3201 	tsteq	fp, r1, lsl #4
    6fb0:	10030552 	andne	r0, r3, r2, asr r5
    6fb4:	0b0000bf 	bleq	72b8 <_start-0xd48>
    6fb8:	03055101 	movweq	r5, #20737	; 0x5101
    6fbc:	0000bf30 	andeq	fp, r0, r0, lsr pc
    6fc0:	0550010b 	ldrbeq	r0, [r0, #-267]	; 0x10b
    6fc4:	00be6803 	adcseq	r6, lr, r3, lsl #16
    6fc8:	7d020b00 	vstrvc	d0, [r2, #-0]
    6fcc:	00740204 	rsbseq	r0, r4, r4, lsl #4
    6fd0:	007d020b 	rsbseq	r0, sp, fp, lsl #4
    6fd4:	bf640305 	svclt	0x00640305
    6fd8:	09000000 	stmdbeq	r0, {}	; <UNPREDICTABLE>
    6fdc:	0000aeb4 			; <UNDEFINED> instruction: 0x0000aeb4
    6fe0:	0000013a 	andeq	r0, r0, sl, lsr r1
    6fe4:	00720c00 	rsbseq	r0, r2, r0, lsl #24
    6fe8:	01180000 	tsteq	r8, r0
    6fec:	6b0d0000 	blvs	346ff4 <__bss_end__+0x33ac6c>
    6ff0:	1c000000 	stcne	0, cr0, [r0], {-0}
    6ff4:	01080500 	tsteq	r8, r0, lsl #10
    6ff8:	9c0e0000 	stcls	0, cr0, [lr], {-0}
    6ffc:	02000001 	andeq	r0, r0, #1
    7000:	0b680f1e 	bleq	1a0ac80 <__bss_end__+0x19fe8f8>
    7004:	29020000 	stmdbcs	r2, {}	; <UNPREDICTABLE>
    7008:	00000025 	andeq	r0, r0, r5, lsr #32
    700c:	0000013a 	andeq	r0, r0, sl, lsr r1
    7010:	00007910 	andeq	r7, r0, r0, lsl r9
    7014:	0e001100 	adfeqs	f1, f0, f0
    7018:	00000372 	andeq	r0, r0, r2, ror r3
    701c:	Address 0x000000000000701c is out of bounds.


Disassembly of section .debug_abbrev:

00000000 <.debug_abbrev>:
       0:	25011101 	strcs	r1, [r1, #-257]	; 0x101
       4:	030b130e 	movweq	r1, #45838	; 0xb30e
       8:	110e1b0e 	tstne	lr, lr, lsl #22
       c:	10061201 	andne	r1, r6, r1, lsl #4
      10:	02000017 	andeq	r0, r0, #23
      14:	0b0b0024 	bleq	2c00ac <__bss_end__+0x2b3d24>
      18:	08030b3e 	stmdaeq	r3, {r1, r2, r3, r4, r5, r8, r9, fp}
      1c:	16030000 	strne	r0, [r3], -r0
      20:	3a0e0300 	bcc	380c28 <__bss_end__+0x3748a0>
      24:	490b3b0b 	stmdbmi	fp, {r0, r1, r3, r8, r9, fp, ip, sp}
      28:	04000013 	streq	r0, [r0], #-19
      2c:	0b0b0024 	bleq	2c00c4 <__bss_end__+0x2b3d3c>
      30:	0e030b3e 	vmoveq.16	d3[0], r0
      34:	0f050000 	svceq	0x00050000
      38:	000b0b00 	andeq	r0, fp, r0, lsl #22
      3c:	000f0600 	andeq	r0, pc, r0, lsl #12
      40:	13490b0b 	movtne	r0, #39691	; 0x9b0b
      44:	26070000 	strcs	r0, [r7], -r0
      48:	00134900 	andseq	r4, r3, r0, lsl #18
      4c:	01010800 	tsteq	r1, r0, lsl #16
      50:	13011349 	movwne	r1, #4937	; 0x1349
      54:	21090000 	mrscs	r0, (UNDEF: 9)
      58:	2f134900 	svccs	0x00134900
      5c:	0a00000b 	beq	90 <_start-0x7f70>
      60:	0e030113 	mcreq	1, 0, r0, cr3, cr3, {0}
      64:	0b3a0b0b 	bleq	e82c98 <__bss_end__+0xe76910>
      68:	13010b3b 	movwne	r0, #6971	; 0x1b3b
      6c:	0d0b0000 	stceq	0, cr0, [fp, #-0]
      70:	3a080300 	bcc	200c78 <__bss_end__+0x1f48f0>
      74:	490b3b0b 	stmdbmi	fp, {r0, r1, r3, r8, r9, fp, ip, sp}
      78:	0d0b0b13 	vstreq	d0, [fp, #-76]	; 0xffffffb4
      7c:	380b0c0b 	stmdacc	fp, {r0, r1, r3, sl, fp}
      80:	0c00000b 	stceq	0, cr0, [r0], {11}
      84:	0e03000d 	cdpeq	0, 0, cr0, cr3, cr13, {0}
      88:	0b3b0b3a 	bleq	ec2d78 <__bss_end__+0xeb69f0>
      8c:	0b0b1349 	bleq	2c4db8 <__bss_end__+0x2b8a30>
      90:	0b0c0b0d 	bleq	302ccc <__bss_end__+0x2f6944>
      94:	00000b38 	andeq	r0, r0, r8, lsr fp
      98:	03000d0d 	movweq	r0, #3341	; 0xd0d
      9c:	3b0b3a0e 	blcc	2ce8dc <__bss_end__+0x2c2554>
      a0:	3813490b 	ldmdacc	r3, {r0, r1, r3, r8, fp, lr}
      a4:	0e00000b 	cdpeq	0, 0, cr0, cr0, cr11, {0}
      a8:	0b0b0104 	bleq	2c04c0 <__bss_end__+0x2b4138>
      ac:	0b3b0b3a 	bleq	ec2d9c <__bss_end__+0xeb6a14>
      b0:	00001301 	andeq	r1, r0, r1, lsl #6
      b4:	0300280f 	movweq	r2, #2063	; 0x80f
      b8:	000d1c0e 	andeq	r1, sp, lr, lsl #24
      bc:	01131000 	tsteq	r3, r0
      c0:	0b3a0b0b 	bleq	e82cf4 <__bss_end__+0xe7696c>
      c4:	13010b3b 	movwne	r0, #6971	; 0x1b3b
      c8:	2e110000 	cdpcs	0, 1, cr0, cr1, cr0, {0}
      cc:	03193f01 	tsteq	r9, #1, 30
      d0:	3b0b3a0e 	blcc	2ce910 <__bss_end__+0x2c2588>
      d4:	1119270b 	tstne	r9, fp, lsl #14
      d8:	40061201 	andmi	r1, r6, r1, lsl #4
      dc:	19429718 	stmdbne	r2, {r3, r4, r8, r9, sl, ip, pc}^
      e0:	00001301 	andeq	r1, r0, r1, lsl #6
      e4:	03000512 	movweq	r0, #1298	; 0x512
      e8:	3b0b3a0e 	blcc	2ce928 <__bss_end__+0x2c25a0>
      ec:	0213490b 	andseq	r4, r3, #180224	; 0x2c000
      f0:	13000017 	movwne	r0, #23
      f4:	08030005 	stmdaeq	r3, {r0, r2}
      f8:	0b3b0b3a 	bleq	ec2de8 <__bss_end__+0xeb6a60>
      fc:	17021349 	strne	r1, [r2, -r9, asr #6]
     100:	34140000 	ldrcc	r0, [r4], #-0
     104:	490e0300 	stmdbmi	lr, {r8, r9}
     108:	02193413 	andseq	r3, r9, #318767104	; 0x13000000
     10c:	15000018 	strne	r0, [r0, #-24]
     110:	08030034 	stmdaeq	r3, {r2, r4, r5}
     114:	0b3b0b3a 	bleq	ec2e04 <__bss_end__+0xeb6a7c>
     118:	17021349 	strne	r1, [r2, -r9, asr #6]
     11c:	89160000 	ldmdbhi	r6, {}	; <UNPREDICTABLE>
     120:	11000182 	smlabbne	r0, r2, r1, r0
     124:	00133101 	andseq	r3, r3, r1, lsl #2
     128:	82891700 	addhi	r1, r9, #0, 14
     12c:	01110101 	tsteq	r1, r1, lsl #2
     130:	13011331 	movwne	r1, #4913	; 0x1331
     134:	8a180000 	bhi	60013c <__bss_end__+0x5f3db4>
     138:	02000182 	andeq	r0, r0, #-2147483616	; 0x80000020
     13c:	18429118 	stmdane	r2, {r3, r4, r8, ip, pc}^
     140:	89190000 	ldmdbhi	r9, {}	; <UNPREDICTABLE>
     144:	11010182 	smlabbne	r1, r2, r1, r0
     148:	00133101 	andseq	r3, r3, r1, lsl #2
     14c:	012e1a00 	teqeq	lr, r0, lsl #20
     150:	0e03193f 	mcreq	9, 0, r1, cr3, cr15, {1}
     154:	0b3b0b3a 	bleq	ec2e44 <__bss_end__+0xeb6abc>
     158:	13491927 	movtne	r1, #39207	; 0x9927
     15c:	06120111 			; <UNDEFINED> instruction: 0x06120111
     160:	42971840 	addsmi	r1, r7, #64, 16	; 0x400000
     164:	00130119 	andseq	r0, r3, r9, lsl r1
     168:	00341b00 	eorseq	r1, r4, r0, lsl #22
     16c:	0b3a0803 	bleq	e82180 <__bss_end__+0xe75df8>
     170:	13490b3b 	movtne	r0, #39739	; 0x9b3b
     174:	00000b1c 	andeq	r0, r0, ip, lsl fp
     178:	11010b1c 	tstne	r1, ip, lsl fp
     17c:	01061201 	tsteq	r6, r1, lsl #4
     180:	1d000013 	stcne	0, cr0, [r0, #-76]	; 0xffffffb4
     184:	0e030034 	mcreq	0, 0, r0, cr3, cr4, {1}
     188:	0b3b0b3a 	bleq	ec2e78 <__bss_end__+0xeb6af0>
     18c:	17021349 	strne	r1, [r2, -r9, asr #6]
     190:	341e0000 	ldrcc	r0, [lr], #-0
     194:	3a080300 	bcc	200d9c <__bss_end__+0x1f4a14>
     198:	490b3b0b 	stmdbmi	fp, {r0, r1, r3, r8, r9, fp, ip, sp}
     19c:	1f000013 	svcne	0x00000013
     1a0:	08030034 	stmdaeq	r3, {r2, r4, r5}
     1a4:	0b3b0b3a 	bleq	ec2e94 <__bss_end__+0xeb6b0c>
     1a8:	18021349 	stmdane	r2, {r0, r3, r6, r8, r9, ip}
     1ac:	0b200000 	bleq	8001b4 <__bss_end__+0x7f3e2c>
     1b0:	01175501 	tsteq	r7, r1, lsl #10
     1b4:	21000013 	tstcs	r0, r3, lsl r0
     1b8:	0e030034 	mcreq	0, 0, r0, cr3, cr4, {1}
     1bc:	0b3b0b3a 	bleq	ec2eac <__bss_end__+0xeb6b24>
     1c0:	18021349 	stmdane	r2, {r0, r3, r6, r8, r9, ip}
     1c4:	34220000 	strtcc	r0, [r2], #-0
     1c8:	3a0e0300 	bcc	380dd0 <__bss_end__+0x374a48>
     1cc:	490b3b0b 	stmdbmi	fp, {r0, r1, r3, r8, r9, fp, ip, sp}
     1d0:	000d1c13 	andeq	r1, sp, r3, lsl ip
     1d4:	012e2300 	teqeq	lr, r0, lsl #6
     1d8:	0e03193f 	mcreq	9, 0, r1, cr3, cr15, {1}
     1dc:	053b0b3a 	ldreq	r0, [fp, #-2874]!	; 0xb3a
     1e0:	01111927 	tsteq	r1, r7, lsr #18
     1e4:	18400612 	stmdane	r0, {r1, r4, r9, sl}^
     1e8:	01194297 			; <UNDEFINED> instruction: 0x01194297
     1ec:	24000013 	strcs	r0, [r0], #-19
     1f0:	08030005 	stmdaeq	r3, {r0, r2}
     1f4:	053b0b3a 	ldreq	r0, [fp, #-2874]!	; 0xb3a
     1f8:	17021349 	strne	r1, [r2, -r9, asr #6]
     1fc:	34250000 	strtcc	r0, [r5], #-0
     200:	3a0e0300 	bcc	380e08 <__bss_end__+0x374a80>
     204:	49053b0b 	stmdbmi	r5, {r0, r1, r3, r8, r9, fp, ip, sp}
     208:	00061c13 	andeq	r1, r6, r3, lsl ip
     20c:	00342600 	eorseq	r2, r4, r0, lsl #12
     210:	0b3a0803 	bleq	e82224 <__bss_end__+0xe75e9c>
     214:	1349053b 	movtne	r0, #38203	; 0x953b
     218:	00001702 	andeq	r1, r0, r2, lsl #14
     21c:	03003427 	movweq	r3, #1063	; 0x427
     220:	3b0b3a08 	blcc	2cea48 <__bss_end__+0x2c26c0>
     224:	02134905 	andseq	r4, r3, #81920	; 0x14000
     228:	28000018 	stmdacs	r0, {r3, r4}
     22c:	08030034 	stmdaeq	r3, {r2, r4, r5}
     230:	053b0b3a 	ldreq	r0, [fp, #-2874]!	; 0xb3a
     234:	061c1349 	ldreq	r1, [ip], -r9, asr #6
     238:	35290000 	strcc	r0, [r9, #-0]!
     23c:	00134900 	andseq	r4, r3, r0, lsl #18
     240:	00342a00 	eorseq	r2, r4, r0, lsl #20
     244:	0b3a0e03 	bleq	e83a58 <__bss_end__+0xe776d0>
     248:	13490b3b 	movtne	r0, #39739	; 0x9b3b
     24c:	0000061c 	andeq	r0, r0, ip, lsl r6
     250:	3f002e2b 	svccc	0x00002e2b
     254:	3a0e0319 	bcc	380ec0 <__bss_end__+0x374b38>
     258:	270b3b0b 	strcs	r3, [fp, -fp, lsl #22]
     25c:	00193c19 	andseq	r3, r9, r9, lsl ip
     260:	012e2c00 	teqeq	lr, r0, lsl #24
     264:	0e03193f 	mcreq	9, 0, r1, cr3, cr15, {1}
     268:	0b3b0b3a 	bleq	ec2f58 <__bss_end__+0xeb6bd0>
     26c:	13491927 	movtne	r1, #39207	; 0x9927
     270:	1301193c 	movwne	r1, #6460	; 0x193c
     274:	052d0000 	streq	r0, [sp, #-0]!
     278:	00134900 	andseq	r4, r3, r0, lsl #18
     27c:	00182e00 	andseq	r2, r8, r0, lsl #28
     280:	2e2f0000 	cdpcs	0, 2, cr0, cr15, cr0, {0}
     284:	03193f00 	tsteq	r9, #0, 30
     288:	3b0b3a0e 	blcc	2ceac8 <__bss_end__+0x2c2740>
     28c:	4919270b 	ldmdbmi	r9, {r0, r1, r3, r8, r9, sl, sp}
     290:	00193c13 	andseq	r3, r9, r3, lsl ip
     294:	012e3000 	teqeq	lr, r0
     298:	0e03193f 	mcreq	9, 0, r1, cr3, cr15, {1}
     29c:	0b3b0b3a 	bleq	ec2f8c <__bss_end__+0xeb6c04>
     2a0:	193c1927 	ldmdbne	ip!, {r0, r1, r2, r5, r8, fp, ip}
     2a4:	00001301 	andeq	r1, r0, r1, lsl #6
     2a8:	3f012e31 	svccc	0x00012e31
     2ac:	3a0e0319 	bcc	380f18 <__bss_end__+0x374b90>
     2b0:	27053b0b 	strcs	r3, [r5, -fp, lsl #22]
     2b4:	01193c19 	tsteq	r9, r9, lsl ip
     2b8:	32000013 	andcc	r0, r0, #19
     2bc:	00000026 	andeq	r0, r0, r6, lsr #32
     2c0:	3f002e33 	svccc	0x00002e33
     2c4:	3a080319 	bcc	200f30 <__bss_end__+0x1f4ba8>
     2c8:	270b3b0b 	strcs	r3, [fp, -fp, lsl #22]
     2cc:	00193c19 	andseq	r3, r9, r9, lsl ip
     2d0:	00353400 	eorseq	r3, r5, r0, lsl #8
     2d4:	2e350000 	cdpcs	0, 3, cr0, cr5, cr0, {0}
     2d8:	03193f00 	tsteq	r9, #0, 30
     2dc:	3b0b3a0e 	blcc	2ceb1c <__bss_end__+0x2c2794>
     2e0:	3c192705 	ldccc	7, cr2, [r9], {5}
     2e4:	00000019 	andeq	r0, r0, r9, lsl r0
     2e8:	25011101 	strcs	r1, [r1, #-257]	; 0x101
     2ec:	030b130e 	movweq	r1, #45838	; 0xb30e
     2f0:	110e1b0e 	tstne	lr, lr, lsl #22
     2f4:	10061201 	andne	r1, r6, r1, lsl #4
     2f8:	02000017 	andeq	r0, r0, #23
     2fc:	0b0b0024 	bleq	2c0394 <__bss_end__+0x2b400c>
     300:	08030b3e 	stmdaeq	r3, {r1, r2, r3, r4, r5, r8, r9, fp}
     304:	24030000 	strcs	r0, [r3], #-0
     308:	3e0b0b00 	vmlacc.f64	d0, d11, d0
     30c:	000e030b 	andeq	r0, lr, fp, lsl #6
     310:	00160400 	andseq	r0, r6, r0, lsl #8
     314:	0b3a0e03 	bleq	e83b28 <__bss_end__+0xe777a0>
     318:	13490b3b 	movtne	r0, #39739	; 0x9b3b
     31c:	0f050000 	svceq	0x00050000
     320:	490b0b00 	stmdbmi	fp, {r8, r9, fp}
     324:	06000013 			; <UNDEFINED> instruction: 0x06000013
     328:	13490026 	movtne	r0, #36902	; 0x9026
     32c:	01070000 	mrseq	r0, (UNDEF: 7)
     330:	01134901 	tsteq	r3, r1, lsl #18
     334:	08000013 	stmdaeq	r0, {r0, r1, r4}
     338:	13490021 	movtne	r0, #36897	; 0x9021
     33c:	00000b2f 	andeq	r0, r0, pc, lsr #22
     340:	03011309 	movweq	r1, #4873	; 0x1309
     344:	3a0b0b0e 	bcc	2c2f84 <__bss_end__+0x2b6bfc>
     348:	010b3b0b 	tsteq	fp, fp, lsl #22
     34c:	0a000013 	beq	3a0 <_start-0x7c60>
     350:	0803000d 	stmdaeq	r3, {r0, r2, r3}
     354:	0b3b0b3a 	bleq	ec3044 <__bss_end__+0xeb6cbc>
     358:	0b0b1349 	bleq	2c5084 <__bss_end__+0x2b8cfc>
     35c:	0b0c0b0d 	bleq	302f98 <__bss_end__+0x2f6c10>
     360:	00000b38 	andeq	r0, r0, r8, lsr fp
     364:	03000d0b 	movweq	r0, #3339	; 0xd0b
     368:	3b0b3a0e 	blcc	2ceba8 <__bss_end__+0x2c2820>
     36c:	0b13490b 	bleq	4d27a0 <__bss_end__+0x4c6418>
     370:	0c0b0d0b 	stceq	13, cr0, [fp], {11}
     374:	000b380b 	andeq	r3, fp, fp, lsl #16
     378:	012e0c00 	teqeq	lr, r0, lsl #24
     37c:	0b3a0e03 	bleq	e83b90 <__bss_end__+0xe77808>
     380:	19270b3b 	stmdbne	r7!, {r0, r1, r3, r4, r5, r8, r9, fp}
     384:	06120111 			; <UNDEFINED> instruction: 0x06120111
     388:	42971840 	addsmi	r1, r7, #64, 16	; 0x400000
     38c:	00130119 	andseq	r0, r3, r9, lsl r1
     390:	00050d00 	andeq	r0, r5, r0, lsl #26
     394:	0b3a0803 	bleq	e823a8 <__bss_end__+0xe76020>
     398:	13490b3b 	movtne	r0, #39739	; 0x9b3b
     39c:	00001702 	andeq	r1, r0, r2, lsl #14
     3a0:	0300340e 	movweq	r3, #1038	; 0x40e
     3a4:	3413490e 	ldrcc	r4, [r3], #-2318	; 0x90e
     3a8:	00180219 	andseq	r0, r8, r9, lsl r2
     3ac:	82890f00 	addhi	r0, r9, #0, 30
     3b0:	01110001 	tsteq	r1, r1
     3b4:	00001331 	andeq	r1, r0, r1, lsr r3
     3b8:	01828910 	orreq	r8, r2, r0, lsl r9
     3bc:	31011101 	tstcc	r1, r1, lsl #2
     3c0:	00130113 	andseq	r0, r3, r3, lsl r1
     3c4:	828a1100 	addhi	r1, sl, #0, 2
     3c8:	18020001 	stmdane	r2, {r0}
     3cc:	00184291 	mulseq	r8, r1, r2
     3d0:	012e1200 	teqeq	lr, r0, lsl #4
     3d4:	0e03193f 	mcreq	9, 0, r1, cr3, cr15, {1}
     3d8:	0b3b0b3a 	bleq	ec30c8 <__bss_end__+0xeb6d40>
     3dc:	01111927 	tsteq	r1, r7, lsr #18
     3e0:	18400612 	stmdane	r0, {r1, r4, r9, sl}^
     3e4:	01194297 			; <UNDEFINED> instruction: 0x01194297
     3e8:	13000013 	movwne	r0, #19
     3ec:	0e030005 	cdpeq	0, 0, cr0, cr3, cr5, {0}
     3f0:	0b3b0b3a 	bleq	ec30e0 <__bss_end__+0xeb6d58>
     3f4:	17021349 	strne	r1, [r2, -r9, asr #6]
     3f8:	89140000 	ldmdbhi	r4, {}	; <UNPREDICTABLE>
     3fc:	11010182 	smlabbne	r1, r2, r1, r0
     400:	00133101 	andseq	r3, r3, r1, lsl #2
     404:	00261500 	eoreq	r1, r6, r0, lsl #10
     408:	2e160000 	cdpcs	0, 1, cr0, cr6, cr0, {0}
     40c:	03193f00 	tsteq	r9, #0, 30
     410:	3b0b3a0e 	blcc	2cec50 <__bss_end__+0x2c28c8>
     414:	4919270b 	ldmdbmi	r9, {r0, r1, r3, r8, r9, sl, sp}
     418:	12011113 	andne	r1, r1, #-1073741820	; 0xc0000004
     41c:	97184006 	ldrls	r4, [r8, -r6]
     420:	00001942 	andeq	r1, r0, r2, asr #18
     424:	03003417 	movweq	r3, #1047	; 0x417
     428:	3b0b3a08 	blcc	2cec50 <__bss_end__+0x2c28c8>
     42c:	0213490b 	andseq	r4, r3, #180224	; 0x2c000
     430:	18000018 	stmdane	r0, {r3, r4}
     434:	0111010b 	tsteq	r1, fp, lsl #2
     438:	13010612 	movwne	r0, #5650	; 0x1612
     43c:	17190000 	ldrne	r0, [r9, -r0]
     440:	0b080301 	bleq	20104c <__bss_end__+0x1f4cc4>
     444:	3b0b3a0b 	blcc	2cec78 <__bss_end__+0x2c28f0>
     448:	0013010b 	andseq	r0, r3, fp, lsl #2
     44c:	000d1a00 	andeq	r1, sp, r0, lsl #20
     450:	0b3a0803 	bleq	e82464 <__bss_end__+0xe760dc>
     454:	13490b3b 	movtne	r0, #39739	; 0x9b3b
     458:	341b0000 	ldrcc	r0, [fp], #-0
     45c:	3a080300 	bcc	201064 <__bss_end__+0x1f4cdc>
     460:	490b3b0b 	stmdbmi	fp, {r0, r1, r3, r8, r9, fp, ip, sp}
     464:	000d1c13 	andeq	r1, sp, r3, lsl ip
     468:	00341c00 	eorseq	r1, r4, r0, lsl #24
     46c:	0b3a0e03 	bleq	e83c80 <__bss_end__+0xe778f8>
     470:	13490b3b 	movtne	r0, #39739	; 0x9b3b
     474:	00000b1c 	andeq	r0, r0, ip, lsl fp
     478:	0300341d 	movweq	r3, #1053	; 0x41d
     47c:	3b0b3a0e 	blcc	2cecbc <__bss_end__+0x2c2934>
     480:	1c13490b 	ldcne	9, cr4, [r3], {11}
     484:	1e000005 	cdpne	0, 0, cr0, cr0, cr5, {0}
     488:	193f002e 	ldmdbne	pc!, {r1, r2, r3, r5}	; <UNPREDICTABLE>
     48c:	0b3a0e03 	bleq	e83ca0 <__bss_end__+0xe77918>
     490:	19270b3b 	stmdbne	r7!, {r0, r1, r3, r4, r5, r8, r9, fp}
     494:	0000193c 	andeq	r1, r0, ip, lsr r9
     498:	3f012e1f 	svccc	0x00012e1f
     49c:	3a0e0319 	bcc	381108 <__bss_end__+0x374d80>
     4a0:	270b3b0b 	strcs	r3, [fp, -fp, lsl #22]
     4a4:	3c134919 	ldccc	9, cr4, [r3], {25}
     4a8:	00130119 	andseq	r0, r3, r9, lsl r1
     4ac:	00052000 	andeq	r2, r5, r0
     4b0:	00001349 	andeq	r1, r0, r9, asr #6
     4b4:	00001821 	andeq	r1, r0, r1, lsr #16
     4b8:	012e2200 	teqeq	lr, r0, lsl #4
     4bc:	0e03193f 	mcreq	9, 0, r1, cr3, cr15, {1}
     4c0:	0b3b0b3a 	bleq	ec31b0 <__bss_end__+0xeb6e28>
     4c4:	13491927 	movtne	r1, #39207	; 0x9927
     4c8:	0000193c 	andeq	r1, r0, ip, lsr r9
     4cc:	01110100 	tsteq	r1, r0, lsl #2
     4d0:	0b130e25 	bleq	4c3d6c <__bss_end__+0x4b79e4>
     4d4:	0e1b0e03 	cdpeq	14, 1, cr0, cr11, cr3, {0}
     4d8:	06120111 			; <UNDEFINED> instruction: 0x06120111
     4dc:	00001710 	andeq	r1, r0, r0, lsl r7
     4e0:	0b002402 	bleq	94f0 <our_mmu_map_section+0x70>
     4e4:	030b3e0b 	movweq	r3, #48651	; 0xbe0b
     4e8:	03000008 	movweq	r0, #8
     4ec:	0b0b0024 	bleq	2c0584 <__bss_end__+0x2b41fc>
     4f0:	0e030b3e 	vmoveq.16	d3[0], r0
     4f4:	16040000 	strne	r0, [r4], -r0
     4f8:	3a0e0300 	bcc	381100 <__bss_end__+0x374d78>
     4fc:	490b3b0b 	stmdbmi	fp, {r0, r1, r3, r8, r9, fp, ip, sp}
     500:	05000013 	streq	r0, [r0, #-19]
     504:	0b0b000f 	bleq	2c0548 <__bss_end__+0x2b41c0>
     508:	00001349 	andeq	r1, r0, r9, asr #6
     50c:	03001306 	movweq	r1, #774	; 0x306
     510:	00193c0e 	andseq	r3, r9, lr, lsl #24
     514:	00160700 	andseq	r0, r6, r0, lsl #14
     518:	0b3a0e03 	bleq	e83d2c <__bss_end__+0xe779a4>
     51c:	1349053b 	movtne	r0, #38203	; 0x953b
     520:	17080000 	strne	r0, [r8, -r0]
     524:	3a0b0b01 	bcc	2c3130 <__bss_end__+0x2b6da8>
     528:	010b3b0b 	tsteq	fp, fp, lsl #22
     52c:	09000013 	stmdbeq	r0, {r0, r1, r4}
     530:	0e03000d 	cdpeq	0, 0, cr0, cr3, cr13, {0}
     534:	0b3b0b3a 	bleq	ec3224 <__bss_end__+0xeb6e9c>
     538:	00001349 	andeq	r1, r0, r9, asr #6
     53c:	4901010a 	stmdbmi	r1, {r1, r3, r8}
     540:	00130113 	andseq	r0, r3, r3, lsl r1
     544:	00210b00 	eoreq	r0, r1, r0, lsl #22
     548:	0b2f1349 	bleq	bc5274 <__bss_end__+0xbb8eec>
     54c:	130c0000 	movwne	r0, #49152	; 0xc000
     550:	3a0b0b01 	bcc	2c315c <__bss_end__+0x2b6dd4>
     554:	010b3b0b 	tsteq	fp, fp, lsl #22
     558:	0d000013 	stceq	0, cr0, [r0, #-76]	; 0xffffffb4
     55c:	0e03000d 	cdpeq	0, 0, cr0, cr3, cr13, {0}
     560:	0b3b0b3a 	bleq	ec3250 <__bss_end__+0xeb6ec8>
     564:	0b381349 	bleq	e05290 <__bss_end__+0xdf8f08>
     568:	0f0e0000 	svceq	0x000e0000
     56c:	000b0b00 	andeq	r0, fp, r0, lsl #22
     570:	00260f00 	eoreq	r0, r6, r0, lsl #30
     574:	00001349 	andeq	r1, r0, r9, asr #6
     578:	03011310 	movweq	r1, #4880	; 0x1310
     57c:	3a0b0b0e 	bcc	2c31bc <__bss_end__+0x2b6e34>
     580:	010b3b0b 	tsteq	fp, fp, lsl #22
     584:	11000013 	tstne	r0, r3, lsl r0
     588:	0803000d 	stmdaeq	r3, {r0, r2, r3}
     58c:	0b3b0b3a 	bleq	ec327c <__bss_end__+0xeb6ef4>
     590:	0b381349 	bleq	e052bc <__bss_end__+0xdf8f34>
     594:	13120000 	tstne	r2, #0
     598:	0b0e0301 	bleq	3811a4 <__bss_end__+0x374e1c>
     59c:	3b0b3a05 	blcc	2cedb8 <__bss_end__+0x2c2a30>
     5a0:	0013010b 	andseq	r0, r3, fp, lsl #2
     5a4:	000d1300 	andeq	r1, sp, r0, lsl #6
     5a8:	0b3a0e03 	bleq	e83dbc <__bss_end__+0xe77a34>
     5ac:	13490b3b 	movtne	r0, #39739	; 0x9b3b
     5b0:	00000538 	andeq	r0, r0, r8, lsr r5
     5b4:	27001514 	smladcs	r0, r4, r5, r1
     5b8:	15000019 	strne	r0, [r0, #-25]
     5bc:	19270115 	stmdbne	r7!, {r0, r2, r4, r8}
     5c0:	13011349 	movwne	r1, #4937	; 0x1349
     5c4:	05160000 	ldreq	r0, [r6, #-0]
     5c8:	00134900 	andseq	r4, r3, r0, lsl #18
     5cc:	01131700 	tsteq	r3, r0, lsl #14
     5d0:	050b0e03 	streq	r0, [fp, #-3587]	; 0xe03
     5d4:	053b0b3a 	ldreq	r0, [fp, #-2874]!	; 0xb3a
     5d8:	00001301 	andeq	r1, r0, r1, lsl #6
     5dc:	03000d18 	movweq	r0, #3352	; 0xd18
     5e0:	3b0b3a0e 	blcc	2cee20 <__bss_end__+0x2c2a98>
     5e4:	38134905 	ldmdacc	r3, {r0, r2, r8, fp, lr}
     5e8:	1900000b 	stmdbne	r0, {r0, r1, r3}
     5ec:	0e03000d 	cdpeq	0, 0, cr0, cr3, cr13, {0}
     5f0:	053b0b3a 	ldreq	r0, [fp, #-2874]!	; 0xb3a
     5f4:	05381349 	ldreq	r1, [r8, #-841]!	; 0x349
     5f8:	131a0000 	tstne	sl, #0
     5fc:	0b0e0301 	bleq	381208 <__bss_end__+0x374e80>
     600:	3b0b3a0b 	blcc	2cee34 <__bss_end__+0x2c2aac>
     604:	00130105 	andseq	r0, r3, r5, lsl #2
     608:	01131b00 	tsteq	r3, r0, lsl #22
     60c:	0b3a0b0b 	bleq	e83240 <__bss_end__+0xe76eb8>
     610:	1301053b 	movwne	r0, #5435	; 0x153b
     614:	171c0000 	ldrne	r0, [ip, -r0]
     618:	3a0b0b01 	bcc	2c3224 <__bss_end__+0x2b6e9c>
     61c:	01053b0b 	tsteq	r5, fp, lsl #22
     620:	1d000013 	stcne	0, cr0, [r0, #-76]	; 0xffffffb4
     624:	0e03000d 	cdpeq	0, 0, cr0, cr3, cr13, {0}
     628:	053b0b3a 	ldreq	r0, [fp, #-2874]!	; 0xb3a
     62c:	00001349 	andeq	r1, r0, r9, asr #6
     630:	2701151e 	smladcs	r1, lr, r5, r1
     634:	00130119 	andseq	r0, r3, r9, lsl r1
     638:	00341f00 	eorseq	r1, r4, r0, lsl #30
     63c:	0b3a0e03 	bleq	e83e50 <__bss_end__+0xe77ac8>
     640:	1349053b 	movtne	r0, #38203	; 0x953b
     644:	193c193f 	ldmdbne	ip!, {r0, r1, r2, r3, r4, r5, r8, fp, ip}
     648:	34200000 	strtcc	r0, [r0], #-0
     64c:	3a0e0300 	bcc	381254 <__bss_end__+0x374ecc>
     650:	490b3b0b 	stmdbmi	fp, {r0, r1, r3, r8, r9, fp, ip, sp}
     654:	3c193f13 	ldccc	15, cr3, [r9], {19}
     658:	21000019 	tstcs	r0, r9, lsl r0
     65c:	0803000d 	stmdaeq	r3, {r0, r2, r3}
     660:	0b3b0b3a 	bleq	ec3350 <__bss_end__+0xeb6fc8>
     664:	0b0b1349 	bleq	2c5390 <__bss_end__+0x2b9008>
     668:	0b0c0b0d 	bleq	3032a4 <__bss_end__+0x2f6f1c>
     66c:	00000b38 	andeq	r0, r0, r8, lsr fp
     670:	03000d22 	movweq	r0, #3362	; 0xd22
     674:	3b0b3a0e 	blcc	2ceeb4 <__bss_end__+0x2c2b2c>
     678:	0b13490b 	bleq	4d2aac <__bss_end__+0x4c6724>
     67c:	0c0b0d0b 	stceq	13, cr0, [fp], {11}
     680:	000b380b 	andeq	r3, fp, fp, lsl #16
     684:	01042300 	mrseq	r2, LR_abt
     688:	0b0b0b3e 	bleq	2c3388 <__bss_end__+0x2b7000>
     68c:	0b3a1349 	bleq	e853b8 <__bss_end__+0xe79030>
     690:	13010b3b 	movwne	r0, #6971	; 0x1b3b
     694:	28240000 	stmdacs	r4!, {}	; <UNPREDICTABLE>
     698:	1c0e0300 	stcne	3, cr0, [lr], {-0}
     69c:	2500000b 	strcs	r0, [r0, #-11]
     6a0:	193f012e 	ldmdbne	pc!, {r1, r2, r3, r5, r8}	; <UNPREDICTABLE>
     6a4:	0b3a0e03 	bleq	e83eb8 <__bss_end__+0xe77b30>
     6a8:	19270b3b 	stmdbne	r7!, {r0, r1, r3, r4, r5, r8, r9, fp}
     6ac:	06120111 			; <UNDEFINED> instruction: 0x06120111
     6b0:	42971840 	addsmi	r1, r7, #64, 16	; 0x400000
     6b4:	00130119 	andseq	r0, r3, r9, lsl r1
     6b8:	00052600 	andeq	r2, r5, r0, lsl #12
     6bc:	0b3a0803 	bleq	e826d0 <__bss_end__+0xe76348>
     6c0:	13490b3b 	movtne	r0, #39739	; 0x9b3b
     6c4:	00001702 	andeq	r1, r0, r2, lsl #14
     6c8:	03000527 	movweq	r0, #1319	; 0x527
     6cc:	3b0b3a0e 	blcc	2cef0c <__bss_end__+0x2c2b84>
     6d0:	0213490b 	andseq	r4, r3, #180224	; 0x2c000
     6d4:	28000017 	stmdacs	r0, {r0, r1, r2, r4}
     6d8:	0e030034 	mcreq	0, 0, r0, cr3, cr4, {1}
     6dc:	19341349 	ldmdbne	r4!, {r0, r3, r6, r8, r9, ip}
     6e0:	00001802 	andeq	r1, r0, r2, lsl #16
     6e4:	55010b29 	strpl	r0, [r1, #-2857]	; 0xb29
     6e8:	00130117 	andseq	r0, r3, r7, lsl r1
     6ec:	00342a00 	eorseq	r2, r4, r0, lsl #20
     6f0:	0b3a0803 	bleq	e82704 <__bss_end__+0xe7637c>
     6f4:	13490b3b 	movtne	r0, #39739	; 0x9b3b
     6f8:	00001802 	andeq	r1, r0, r2, lsl #16
     6fc:	11010b2b 	tstne	r1, fp, lsr #22
     700:	00061201 	andeq	r1, r6, r1, lsl #4
     704:	00342c00 	eorseq	r2, r4, r0, lsl #24
     708:	0b3a0803 	bleq	e8271c <__bss_end__+0xe76394>
     70c:	13490b3b 	movtne	r0, #39739	; 0x9b3b
     710:	00001702 	andeq	r1, r0, r2, lsl #14
     714:	0182892d 	orreq	r8, r2, sp, lsr #18
     718:	31011101 	tstcc	r1, r1, lsl #2
     71c:	00130113 	andseq	r0, r3, r3, lsl r1
     720:	828a2e00 	addhi	r2, sl, #0, 28
     724:	18020001 	stmdane	r2, {r0}
     728:	00184291 	mulseq	r8, r1, r2
     72c:	82892f00 	addhi	r2, r9, #0, 30
     730:	01110001 	tsteq	r1, r1
     734:	00001331 	andeq	r1, r0, r1, lsr r3
     738:	3f012e30 	svccc	0x00012e30
     73c:	3a0e0319 	bcc	3813a8 <__bss_end__+0x375020>
     740:	270b3b0b 	strcs	r3, [fp, -fp, lsl #22]
     744:	11134919 	tstne	r3, r9, lsl r9
     748:	40061201 	andmi	r1, r6, r1, lsl #4
     74c:	19429718 	stmdbne	r2, {r3, r4, r8, r9, sl, ip, pc}^
     750:	00001301 	andeq	r1, r0, r1, lsl #6
     754:	03003431 	movweq	r3, #1073	; 0x431
     758:	3b0b3a0e 	blcc	2cef98 <__bss_end__+0x2c2c10>
     75c:	0213490b 	andseq	r4, r3, #180224	; 0x2c000
     760:	32000017 	andcc	r0, r0, #23
     764:	0e03012e 	adfeqsp	f0, f3, #0.5
     768:	0b3b0b3a 	bleq	ec3458 <__bss_end__+0xeb70d0>
     76c:	13491927 	movtne	r1, #39207	; 0x9927
     770:	06120111 			; <UNDEFINED> instruction: 0x06120111
     774:	42971840 	addsmi	r1, r7, #64, 16	; 0x400000
     778:	00130119 	andseq	r0, r3, r9, lsl r1
     77c:	002e3300 	eoreq	r3, lr, r0, lsl #6
     780:	193c193f 	ldmdbne	ip!, {r0, r1, r2, r3, r4, r5, r8, fp, ip}
     784:	0e030e6e 	cdpeq	14, 0, cr0, cr3, cr14, {3}
     788:	053b0b3a 	ldreq	r0, [fp, #-2874]!	; 0xb3a
     78c:	2e340000 	cdpcs	0, 3, cr0, cr4, cr0, {0}
     790:	3c193f00 	ldccc	15, cr3, [r9], {-0}
     794:	030e6e19 	movweq	r6, #60953	; 0xee19
     798:	3b0b3a0e 	blcc	2cefd8 <__bss_end__+0x2c2c50>
     79c:	0000000b 	andeq	r0, r0, fp
     7a0:	25011101 	strcs	r1, [r1, #-257]	; 0x101
     7a4:	030b130e 	movweq	r1, #45838	; 0xb30e
     7a8:	110e1b0e 	tstne	lr, lr, lsl #22
     7ac:	10061201 	andne	r1, r6, r1, lsl #4
     7b0:	02000017 	andeq	r0, r0, #23
     7b4:	0b0b0024 	bleq	2c084c <__bss_end__+0x2b44c4>
     7b8:	08030b3e 	stmdaeq	r3, {r1, r2, r3, r4, r5, r8, r9, fp}
     7bc:	24030000 	strcs	r0, [r3], #-0
     7c0:	3e0b0b00 	vmlacc.f64	d0, d11, d0
     7c4:	000e030b 	andeq	r0, lr, fp, lsl #6
     7c8:	00160400 	andseq	r0, r6, r0, lsl #8
     7cc:	0b3a0e03 	bleq	e83fe0 <__bss_end__+0xe77c58>
     7d0:	13490b3b 	movtne	r0, #39739	; 0x9b3b
     7d4:	0f050000 	svceq	0x00050000
     7d8:	490b0b00 	stmdbmi	fp, {r8, r9, fp}
     7dc:	06000013 			; <UNDEFINED> instruction: 0x06000013
     7e0:	13490026 	movtne	r0, #36902	; 0x9026
     7e4:	2e070000 	cdpcs	0, 0, cr0, cr7, cr0, {0}
     7e8:	03193f01 	tsteq	r9, #1, 30
     7ec:	3b0b3a0e 	blcc	2cf02c <__bss_end__+0x2c2ca4>
     7f0:	4919270b 	ldmdbmi	r9, {r0, r1, r3, r8, r9, sl, sp}
     7f4:	12011113 	andne	r1, r1, #-1073741820	; 0xc0000004
     7f8:	97184006 	ldrls	r4, [r8, -r6]
     7fc:	00001942 	andeq	r1, r0, r2, asr #18
     800:	03000508 	movweq	r0, #1288	; 0x508
     804:	3b0b3a0e 	blcc	2cf044 <__bss_end__+0x2c2cbc>
     808:	0213490b 	andseq	r4, r3, #180224	; 0x2c000
     80c:	09000017 	stmdbeq	r0, {r0, r1, r2, r4}
     810:	08030005 	stmdaeq	r3, {r0, r2}
     814:	0b3b0b3a 	bleq	ec3504 <__bss_end__+0xeb717c>
     818:	17021349 	strne	r1, [r2, -r9, asr #6]
     81c:	340a0000 	strcc	r0, [sl], #-0
     820:	3a0e0300 	bcc	381428 <__bss_end__+0x3750a0>
     824:	490b3b0b 	stmdbmi	fp, {r0, r1, r3, r8, r9, fp, ip, sp}
     828:	00170213 	andseq	r0, r7, r3, lsl r2
     82c:	00340b00 	eorseq	r0, r4, r0, lsl #22
     830:	0b3a0803 	bleq	e82844 <__bss_end__+0xe764bc>
     834:	13490b3b 	movtne	r0, #39739	; 0x9b3b
     838:	00001702 	andeq	r1, r0, r2, lsl #14
     83c:	01110100 	tsteq	r1, r0, lsl #2
     840:	0b130e25 	bleq	4c40dc <__bss_end__+0x4b7d54>
     844:	0e1b0e03 	cdpeq	14, 1, cr0, cr11, cr3, {0}
     848:	06120111 			; <UNDEFINED> instruction: 0x06120111
     84c:	00001710 	andeq	r1, r0, r0, lsl r7
     850:	0b002402 	bleq	9860 <pad+0x4>
     854:	030b3e0b 	movweq	r3, #48651	; 0xbe0b
     858:	0300000e 	movweq	r0, #14
     85c:	0b0b0024 	bleq	2c08f4 <__bss_end__+0x2b456c>
     860:	08030b3e 	stmdaeq	r3, {r1, r2, r3, r4, r5, r8, r9, fp}
     864:	0f040000 	svceq	0x00040000
     868:	000b0b00 	andeq	r0, fp, r0, lsl #22
     86c:	000f0500 	andeq	r0, pc, r0, lsl #10
     870:	13490b0b 	movtne	r0, #39691	; 0x9b0b
     874:	16060000 	strne	r0, [r6], -r0
     878:	3a0e0300 	bcc	381480 <__bss_end__+0x3750f8>
     87c:	490b3b0b 	stmdbmi	fp, {r0, r1, r3, r8, r9, fp, ip, sp}
     880:	07000013 	smladeq	r0, r3, r0, r0
     884:	193f012e 	ldmdbne	pc!, {r1, r2, r3, r5, r8}	; <UNPREDICTABLE>
     888:	0b3a0e03 	bleq	e8409c <__bss_end__+0xe77d14>
     88c:	19270b3b 	stmdbne	r7!, {r0, r1, r3, r4, r5, r8, r9, fp}
     890:	01111349 	tsteq	r1, r9, asr #6
     894:	18400612 	stmdane	r0, {r1, r4, r9, sl}^
     898:	00194297 	mulseq	r9, r7, r2
     89c:	00050800 	andeq	r0, r5, r0, lsl #16
     8a0:	0b3a0803 	bleq	e828b4 <__bss_end__+0xe7652c>
     8a4:	13490b3b 	movtne	r0, #39739	; 0x9b3b
     8a8:	00001802 	andeq	r1, r0, r2, lsl #16
     8ac:	03000509 	movweq	r0, #1289	; 0x509
     8b0:	3b0b3a08 	blcc	2cf0d8 <__bss_end__+0x2c2d50>
     8b4:	0213490b 	andseq	r4, r3, #180224	; 0x2c000
     8b8:	0a000017 	beq	91c <_start-0x76e4>
     8bc:	08030034 	stmdaeq	r3, {r2, r4, r5}
     8c0:	0b3b0b3a 	bleq	ec35b0 <__bss_end__+0xeb7228>
     8c4:	17021349 	strne	r1, [r2, -r9, asr #6]
     8c8:	340b0000 	strcc	r0, [fp], #-0
     8cc:	3a080300 	bcc	2014d4 <__bss_end__+0x1f514c>
     8d0:	490b3b0b 	stmdbmi	fp, {r0, r1, r3, r8, r9, fp, ip, sp}
     8d4:	00180213 	andseq	r0, r8, r3, lsl r2
     8d8:	11010000 	mrsne	r0, (UNDEF: 1)
     8dc:	130e2501 	movwne	r2, #58625	; 0xe501
     8e0:	1b0e030b 	blne	381514 <__bss_end__+0x37518c>
     8e4:	1201110e 	andne	r1, r1, #-2147483645	; 0x80000003
     8e8:	00171006 	andseq	r1, r7, r6
     8ec:	00160200 	andseq	r0, r6, r0, lsl #4
     8f0:	0b3a0e03 	bleq	e84104 <__bss_end__+0xe77d7c>
     8f4:	13490b3b 	movtne	r0, #39739	; 0x9b3b
     8f8:	13030000 	movwne	r0, #12288	; 0x3000
     8fc:	0b0e0301 	bleq	381508 <__bss_end__+0x375180>
     900:	3b0b3a0b 	blcc	2cf134 <__bss_end__+0x2c2dac>
     904:	0013010b 	andseq	r0, r3, fp, lsl #2
     908:	000d0400 	andeq	r0, sp, r0, lsl #8
     90c:	13490e03 	movtne	r0, #40451	; 0x9e03
     910:	19340b38 	ldmdbne	r4!, {r3, r4, r5, r8, r9, fp}
     914:	0f050000 	svceq	0x00050000
     918:	000b0b00 	andeq	r0, fp, r0, lsl #22
     91c:	00240600 	eoreq	r0, r4, r0, lsl #12
     920:	0b3e0b0b 	bleq	f83554 <__bss_end__+0xf771cc>
     924:	00000803 	andeq	r0, r0, r3, lsl #16
     928:	0b002407 	bleq	994c <emit+0x84>
     92c:	030b3e0b 	movweq	r3, #48651	; 0xbe0b
     930:	0800000e 	stmdaeq	r0, {r1, r2, r3}
     934:	0b0b000f 	bleq	2c0978 <__bss_end__+0x2b45f0>
     938:	00001349 	andeq	r1, r0, r9, asr #6
     93c:	49002609 	stmdbmi	r0, {r0, r3, r9, sl, sp}
     940:	0a000013 	beq	994 <_start-0x766c>
     944:	193f012e 	ldmdbne	pc!, {r1, r2, r3, r5, r8}	; <UNPREDICTABLE>
     948:	0b3a0e03 	bleq	e8415c <__bss_end__+0xe77dd4>
     94c:	19270b3b 	stmdbne	r7!, {r0, r1, r3, r4, r5, r8, r9, fp}
     950:	01111349 	tsteq	r1, r9, asr #6
     954:	18400612 	stmdane	r0, {r1, r4, r9, sl}^
     958:	01194297 			; <UNDEFINED> instruction: 0x01194297
     95c:	0b000013 	bleq	9b0 <_start-0x7650>
     960:	08030005 	stmdaeq	r3, {r0, r2}
     964:	0b3b0b3a 	bleq	ec3654 <__bss_end__+0xeb72cc>
     968:	18021349 	stmdane	r2, {r0, r3, r6, r8, r9, ip}
     96c:	180c0000 	stmdane	ip, {}	; <UNPREDICTABLE>
     970:	0d000000 	stceq	0, cr0, [r0, #-0]
     974:	08030034 	stmdaeq	r3, {r2, r4, r5}
     978:	0b3b0b3a 	bleq	ec3668 <__bss_end__+0xeb72e0>
     97c:	18021349 	stmdane	r2, {r0, r3, r6, r8, r9, ip}
     980:	340e0000 	strcc	r0, [lr], #-0
     984:	3a0e0300 	bcc	38158c <__bss_end__+0x375204>
     988:	490b3b0b 	stmdbmi	fp, {r0, r1, r3, r8, r9, fp, ip, sp}
     98c:	00180213 	andseq	r0, r8, r3, lsl r2
     990:	00340f00 	eorseq	r0, r4, r0, lsl #30
     994:	0b3a0803 	bleq	e829a8 <__bss_end__+0xe76620>
     998:	13490b3b 	movtne	r0, #39739	; 0x9b3b
     99c:	00001702 	andeq	r1, r0, r2, lsl #14
     9a0:	01828910 	orreq	r8, r2, r0, lsl r9
     9a4:	31011101 	tstcc	r1, r1, lsl #2
     9a8:	00130113 	andseq	r0, r3, r3, lsl r1
     9ac:	828a1100 	addhi	r1, sl, #0, 2
     9b0:	18020001 	stmdane	r2, {r0}
     9b4:	00184291 	mulseq	r8, r1, r2
     9b8:	82891200 	addhi	r1, r9, #0, 4
     9bc:	01110101 	tsteq	r1, r1, lsl #2
     9c0:	01130000 	tsteq	r3, r0
     9c4:	01134901 	tsteq	r3, r1, lsl #18
     9c8:	14000013 	strne	r0, [r0], #-19
     9cc:	13490021 	movtne	r0, #36897	; 0x9021
     9d0:	0000052f 	andeq	r0, r0, pc, lsr #10
     9d4:	27011515 	smladcs	r1, r5, r5, r1
     9d8:	01134919 	tsteq	r3, r9, lsl r9
     9dc:	16000013 			; <UNDEFINED> instruction: 0x16000013
     9e0:	13490005 	movtne	r0, #36869	; 0x9005
     9e4:	34170000 	ldrcc	r0, [r7], #-0
     9e8:	3a0e0300 	bcc	3815f0 <__bss_end__+0x375268>
     9ec:	490b3b0b 	stmdbmi	fp, {r0, r1, r3, r8, r9, fp, ip, sp}
     9f0:	3c193f13 	ldccc	15, cr3, [r9], {19}
     9f4:	18000019 	stmdane	r0, {r0, r3, r4}
     9f8:	193f012e 	ldmdbne	pc!, {r1, r2, r3, r5, r8}	; <UNPREDICTABLE>
     9fc:	0b3a0e03 	bleq	e84210 <__bss_end__+0xe77e88>
     a00:	19270b3b 	stmdbne	r7!, {r0, r1, r3, r4, r5, r8, r9, fp}
     a04:	193c1349 	ldmdbne	ip!, {r0, r3, r6, r8, r9, ip}
     a08:	01000000 	mrseq	r0, (UNDEF: 0)
     a0c:	0e250111 	mcreq	1, 1, r0, cr5, cr1, {0}
     a10:	0e030b13 	vmoveq.32	d3[0], r0
     a14:	01110e1b 	tsteq	r1, fp, lsl lr
     a18:	17100612 			; <UNDEFINED> instruction: 0x17100612
     a1c:	24020000 	strcs	r0, [r2], #-0
     a20:	3e0b0b00 	vmlacc.f64	d0, d11, d0
     a24:	0008030b 	andeq	r0, r8, fp, lsl #6
     a28:	00240300 	eoreq	r0, r4, r0, lsl #6
     a2c:	0b3e0b0b 	bleq	f83660 <__bss_end__+0xf772d8>
     a30:	00000e03 	andeq	r0, r0, r3, lsl #28
     a34:	03012e04 	movweq	r2, #7684	; 0x1e04
     a38:	3b0b3a0e 	blcc	2cf278 <__bss_end__+0x2c2ef0>
     a3c:	4919270b 	ldmdbmi	r9, {r0, r1, r3, r8, r9, sl, sp}
     a40:	12011113 	andne	r1, r1, #-1073741820	; 0xc0000004
     a44:	97184006 	ldrls	r4, [r8, -r6]
     a48:	13011942 	movwne	r1, #6466	; 0x1942
     a4c:	05050000 	streq	r0, [r5, #-0]
     a50:	3a080300 	bcc	201658 <__bss_end__+0x1f52d0>
     a54:	490b3b0b 	stmdbmi	fp, {r0, r1, r3, r8, r9, fp, ip, sp}
     a58:	00170213 	andseq	r0, r7, r3, lsl r2
     a5c:	82890600 	addhi	r0, r9, #0, 12
     a60:	01110101 	tsteq	r1, r1, lsl #2
     a64:	00001331 	andeq	r1, r0, r1, lsr r3
     a68:	01828a07 	orreq	r8, r2, r7, lsl #20
     a6c:	91180200 	tstls	r8, r0, lsl #4
     a70:	00001842 	andeq	r1, r0, r2, asr #16
     a74:	3f002e08 	svccc	0x00002e08
     a78:	3a0e0319 	bcc	3816e4 <__bss_end__+0x37535c>
     a7c:	270b3b0b 	strcs	r3, [fp, -fp, lsl #22]
     a80:	12011119 	andne	r1, r1, #1073741830	; 0x40000006
     a84:	97184006 	ldrls	r4, [r8, -r6]
     a88:	00001942 	andeq	r1, r0, r2, asr #18
     a8c:	3f012e09 	svccc	0x00012e09
     a90:	3a0e0319 	bcc	3816fc <__bss_end__+0x375374>
     a94:	270b3b0b 	strcs	r3, [fp, -fp, lsl #22]
     a98:	12011119 	andne	r1, r1, #1073741830	; 0x40000006
     a9c:	97184006 	ldrls	r4, [r8, -r6]
     aa0:	13011942 	movwne	r1, #6466	; 0x1942
     aa4:	050a0000 	streq	r0, [sl, #-0]
     aa8:	3a080300 	bcc	2016b0 <__bss_end__+0x1f5328>
     aac:	490b3b0b 	stmdbmi	fp, {r0, r1, r3, r8, r9, fp, ip, sp}
     ab0:	00180213 	andseq	r0, r8, r3, lsl r2
     ab4:	01150b00 	tsteq	r5, r0, lsl #22
     ab8:	13491927 	movtne	r1, #39207	; 0x9927
     abc:	00001301 	andeq	r1, r0, r1, lsl #6
     ac0:	4900050c 	stmdbmi	r0, {r2, r3, r8, sl}
     ac4:	0d000013 	stceq	0, cr0, [r0, #-76]	; 0xffffffb4
     ac8:	0b0b000f 	bleq	2c0b0c <__bss_end__+0x2b4784>
     acc:	00001349 	andeq	r1, r0, r9, asr #6
     ad0:	0300340e 	movweq	r3, #1038	; 0x40e
     ad4:	3b0b3a0e 	blcc	2cf314 <__bss_end__+0x2c2f8c>
     ad8:	3f13490b 	svccc	0x0013490b
     adc:	00180219 	andseq	r0, r8, r9, lsl r2
     ae0:	012e0f00 	teqeq	lr, r0, lsl #30
     ae4:	0e03193f 	mcreq	9, 0, r1, cr3, cr15, {1}
     ae8:	0b3b0b3a 	bleq	ec37d8 <__bss_end__+0xeb7450>
     aec:	193c1927 	ldmdbne	ip!, {r0, r1, r2, r5, r8, fp, ip}
     af0:	01000000 	mrseq	r0, (UNDEF: 0)
     af4:	0e250111 	mcreq	1, 1, r0, cr5, cr1, {0}
     af8:	0e030b13 	vmoveq.32	d3[0], r0
     afc:	01110e1b 	tsteq	r1, fp, lsl lr
     b00:	17100612 			; <UNDEFINED> instruction: 0x17100612
     b04:	24020000 	strcs	r0, [r2], #-0
     b08:	3e0b0b00 	vmlacc.f64	d0, d11, d0
     b0c:	0008030b 	andeq	r0, r8, fp, lsl #6
     b10:	00240300 	eoreq	r0, r4, r0, lsl #6
     b14:	0b3e0b0b 	bleq	f83748 <__bss_end__+0xf773c0>
     b18:	00000e03 	andeq	r0, r0, r3, lsl #28
     b1c:	0b000f04 	bleq	4734 <_start-0x38cc>
     b20:	0013490b 	andseq	r4, r3, fp, lsl #18
     b24:	00260500 	eoreq	r0, r6, r0, lsl #10
     b28:	00001349 	andeq	r1, r0, r9, asr #6
     b2c:	3f012e06 	svccc	0x00012e06
     b30:	3a0e0319 	bcc	38179c <__bss_end__+0x375414>
     b34:	270b3b0b 	strcs	r3, [fp, -fp, lsl #22]
     b38:	11134919 	tstne	r3, r9, lsl r9
     b3c:	40061201 	andmi	r1, r6, r1, lsl #4
     b40:	19429618 	stmdbne	r2, {r3, r4, r9, sl, ip, pc}^
     b44:	00001301 	andeq	r1, r0, r1, lsl #6
     b48:	03000507 	movweq	r0, #1287	; 0x507
     b4c:	3b0b3a08 	blcc	2cf374 <__bss_end__+0x2c2fec>
     b50:	0213490b 	andseq	r4, r3, #180224	; 0x2c000
     b54:	08000017 	stmdaeq	r0, {r0, r1, r2, r4}
     b58:	19270115 	stmdbne	r7!, {r0, r2, r4, r8}
     b5c:	13011349 	movwne	r1, #4937	; 0x1349
     b60:	05090000 	streq	r0, [r9, #-0]
     b64:	00134900 	andseq	r4, r3, r0, lsl #18
     b68:	00340a00 	eorseq	r0, r4, r0, lsl #20
     b6c:	0b3a0e03 	bleq	e84380 <__bss_end__+0xe77ff8>
     b70:	13490b3b 	movtne	r0, #39739	; 0x9b3b
     b74:	193c193f 	ldmdbne	ip!, {r0, r1, r2, r3, r4, r5, r8, fp, ip}
     b78:	340b0000 	strcc	r0, [fp], #-0
     b7c:	3a0e0300 	bcc	381784 <__bss_end__+0x3753fc>
     b80:	490b3b0b 	stmdbmi	fp, {r0, r1, r3, r8, r9, fp, ip, sp}
     b84:	02193f13 	andseq	r3, r9, #19, 30	; 0x4c
     b88:	00000018 	andeq	r0, r0, r8, lsl r0
     b8c:	25011101 	strcs	r1, [r1, #-257]	; 0x101
     b90:	030b130e 	movweq	r1, #45838	; 0xb30e
     b94:	110e1b0e 	tstne	lr, lr, lsl #22
     b98:	10061201 	andne	r1, r6, r1, lsl #4
     b9c:	02000017 	andeq	r0, r0, #23
     ba0:	0b0b0024 	bleq	2c0c38 <__bss_end__+0x2b48b0>
     ba4:	08030b3e 	stmdaeq	r3, {r1, r2, r3, r4, r5, r8, r9, fp}
     ba8:	24030000 	strcs	r0, [r3], #-0
     bac:	3e0b0b00 	vmlacc.f64	d0, d11, d0
     bb0:	000e030b 	andeq	r0, lr, fp, lsl #6
     bb4:	000f0400 	andeq	r0, pc, r0, lsl #8
     bb8:	00000b0b 	andeq	r0, r0, fp, lsl #22
     bbc:	0b000f05 	bleq	47d8 <_start-0x3828>
     bc0:	0013490b 	andseq	r4, r3, fp, lsl #18
     bc4:	00260600 	eoreq	r0, r6, r0, lsl #12
     bc8:	00001349 	andeq	r1, r0, r9, asr #6
     bcc:	03001607 	movweq	r1, #1543	; 0x607
     bd0:	3b0b3a0e 	blcc	2cf410 <__bss_end__+0x2c3088>
     bd4:	0013490b 	andseq	r4, r3, fp, lsl #18
     bd8:	01130800 	tsteq	r3, r0, lsl #16
     bdc:	0b0b0e03 	bleq	2c43f0 <__bss_end__+0x2b8068>
     be0:	0b3b0b3a 	bleq	ec38d0 <__bss_end__+0xeb7548>
     be4:	00001301 	andeq	r1, r0, r1, lsl #6
     be8:	03000d09 	movweq	r0, #3337	; 0xd09
     bec:	3813490e 	ldmdacc	r3, {r1, r2, r3, r8, fp, lr}
     bf0:	0019340b 	andseq	r3, r9, fp, lsl #8
     bf4:	012e0a00 	teqeq	lr, r0, lsl #20
     bf8:	0b3a0e03 	bleq	e8440c <__bss_end__+0xe78084>
     bfc:	19270b3b 	stmdbne	r7!, {r0, r1, r3, r4, r5, r8, r9, fp}
     c00:	01111349 	tsteq	r1, r9, asr #6
     c04:	18400612 	stmdane	r0, {r1, r4, r9, sl}^
     c08:	01194297 			; <UNDEFINED> instruction: 0x01194297
     c0c:	0b000013 	bleq	c60 <_start-0x73a0>
     c10:	08030005 	stmdaeq	r3, {r0, r2}
     c14:	0b3b0b3a 	bleq	ec3904 <__bss_end__+0xeb757c>
     c18:	17021349 	strne	r1, [r2, -r9, asr #6]
     c1c:	2e0c0000 	cdpcs	0, 0, cr0, cr12, cr0, {0}
     c20:	3a080301 	bcc	20182c <__bss_end__+0x1f54a4>
     c24:	270b3b0b 	strcs	r3, [fp, -fp, lsl #22]
     c28:	11134919 	tstne	r3, r9, lsl r9
     c2c:	40061201 	andmi	r1, r6, r1, lsl #4
     c30:	19429718 	stmdbne	r2, {r3, r4, r8, r9, sl, ip, pc}^
     c34:	00001301 	andeq	r1, r0, r1, lsl #6
     c38:	0300050d 	movweq	r0, #1293	; 0x50d
     c3c:	3b0b3a0e 	blcc	2cf47c <__bss_end__+0x2c30f4>
     c40:	0213490b 	andseq	r4, r3, #180224	; 0x2c000
     c44:	0e000017 	mcreq	0, 0, r0, cr0, cr7, {0}
     c48:	0e030005 	cdpeq	0, 0, cr0, cr3, cr5, {0}
     c4c:	0b3b0b3a 	bleq	ec393c <__bss_end__+0xeb75b4>
     c50:	18021349 	stmdane	r2, {r0, r3, r6, r8, r9, ip}
     c54:	340f0000 	strcc	r0, [pc], #-0	; c5c <_start-0x73a4>
     c58:	3a080300 	bcc	201860 <__bss_end__+0x1f54d8>
     c5c:	490b3b0b 	stmdbmi	fp, {r0, r1, r3, r8, r9, fp, ip, sp}
     c60:	00180213 	andseq	r0, r8, r3, lsl r2
     c64:	00341000 	eorseq	r1, r4, r0
     c68:	0b3a0803 	bleq	e82c7c <__bss_end__+0xe768f4>
     c6c:	13490b3b 	movtne	r0, #39739	; 0x9b3b
     c70:	00001702 	andeq	r1, r0, r2, lsl #14
     c74:	03003411 	movweq	r3, #1041	; 0x411
     c78:	3413490e 	ldrcc	r4, [r3], #-2318	; 0x90e
     c7c:	00180219 	andseq	r0, r8, r9, lsl r2
     c80:	010b1200 	mrseq	r1, R11_fiq
     c84:	06120111 			; <UNDEFINED> instruction: 0x06120111
     c88:	00001301 	andeq	r1, r0, r1, lsl #6
     c8c:	03003413 	movweq	r3, #1043	; 0x413
     c90:	3b0b3a0e 	blcc	2cf4d0 <__bss_end__+0x2c3148>
     c94:	0213490b 	andseq	r4, r3, #180224	; 0x2c000
     c98:	14000017 	strne	r0, [r0], #-23
     c9c:	00018289 	andeq	r8, r1, r9, lsl #5
     ca0:	13310111 	teqne	r1, #1073741828	; 0x40000004
     ca4:	89150000 	ldmdbhi	r5, {}	; <UNPREDICTABLE>
     ca8:	11010182 	smlabbne	r1, r2, r1, r0
     cac:	01133101 	tsteq	r3, r1, lsl #2
     cb0:	16000013 			; <UNDEFINED> instruction: 0x16000013
     cb4:	0001828a 	andeq	r8, r1, sl, lsl #5
     cb8:	42911802 	addsmi	r1, r1, #131072	; 0x20000
     cbc:	17000018 	smladne	r0, r8, r0, r0
     cc0:	01018289 	smlabbeq	r1, r9, r2, r8
     cc4:	13310111 	teqne	r1, #1073741828	; 0x40000004
     cc8:	01180000 	tsteq	r8, r0
     ccc:	01134901 	tsteq	r3, r1, lsl #18
     cd0:	19000013 	stmdbne	r0, {r0, r1, r4}
     cd4:	13490021 	movtne	r0, #36897	; 0x9021
     cd8:	00000b2f 	andeq	r0, r0, pc, lsr #22
     cdc:	3f012e1a 	svccc	0x00012e1a
     ce0:	3a0e0319 	bcc	38194c <__bss_end__+0x3755c4>
     ce4:	270b3b0b 	strcs	r3, [fp, -fp, lsl #22]
     ce8:	12011119 	andne	r1, r1, #1073741830	; 0x40000006
     cec:	97184006 	ldrls	r4, [r8, -r6]
     cf0:	13011942 	movwne	r1, #6466	; 0x1942
     cf4:	151b0000 	ldrne	r0, [fp, #-0]
     cf8:	49192701 	ldmdbmi	r9, {r0, r8, r9, sl, sp}
     cfc:	00130113 	andseq	r0, r3, r3, lsl r1
     d00:	00051c00 	andeq	r1, r5, r0, lsl #24
     d04:	00001349 	andeq	r1, r0, r9, asr #6
     d08:	3f012e1d 	svccc	0x00012e1d
     d0c:	3a0e0319 	bcc	381978 <__bss_end__+0x3755f0>
     d10:	270b3b0b 	strcs	r3, [fp, -fp, lsl #22]
     d14:	11134919 	tstne	r3, r9, lsl r9
     d18:	40061201 	andmi	r1, r6, r1, lsl #4
     d1c:	19429718 	stmdbne	r2, {r3, r4, r8, r9, sl, ip, pc}^
     d20:	00001301 	andeq	r1, r0, r1, lsl #6
     d24:	55010b1e 	strpl	r0, [r1, #-2846]	; 0xb1e
     d28:	1f000017 	svcne	0x00000017
     d2c:	0e030034 	mcreq	0, 0, r0, cr3, cr4, {1}
     d30:	0b3b0b3a 	bleq	ec3a20 <__bss_end__+0xeb7698>
     d34:	193f1349 	ldmdbne	pc!, {r0, r3, r6, r8, r9, ip}	; <UNPREDICTABLE>
     d38:	0000193c 	andeq	r1, r0, ip, lsr r9
     d3c:	3f002e20 	svccc	0x00002e20
     d40:	3a0e0319 	bcc	3819ac <__bss_end__+0x375624>
     d44:	270b3b0b 	strcs	r3, [fp, -fp, lsl #22]
     d48:	00193c19 	andseq	r3, r9, r9, lsl ip
     d4c:	012e2100 	teqeq	lr, r0, lsl #2
     d50:	0e03193f 	mcreq	9, 0, r1, cr3, cr15, {1}
     d54:	0b3b0b3a 	bleq	ec3a44 <__bss_end__+0xeb76bc>
     d58:	13491927 	movtne	r1, #39207	; 0x9927
     d5c:	1301193c 	movwne	r1, #6460	; 0x193c
     d60:	18220000 	stmdane	r2!, {}	; <UNPREDICTABLE>
     d64:	00000000 	andeq	r0, r0, r0
     d68:	25011101 	strcs	r1, [r1, #-257]	; 0x101
     d6c:	030b130e 	movweq	r1, #45838	; 0xb30e
     d70:	110e1b0e 	tstne	lr, lr, lsl #22
     d74:	10061201 	andne	r1, r6, r1, lsl #4
     d78:	02000017 	andeq	r0, r0, #23
     d7c:	0b0b0024 	bleq	2c0e14 <__bss_end__+0x2b4a8c>
     d80:	08030b3e 	stmdaeq	r3, {r1, r2, r3, r4, r5, r8, r9, fp}
     d84:	24030000 	strcs	r0, [r3], #-0
     d88:	3e0b0b00 	vmlacc.f64	d0, d11, d0
     d8c:	000e030b 	andeq	r0, lr, fp, lsl #6
     d90:	000f0400 	andeq	r0, pc, r0, lsl #8
     d94:	13490b0b 	movtne	r0, #39691	; 0x9b0b
     d98:	26050000 	strcs	r0, [r5], -r0
     d9c:	00134900 	andseq	r4, r3, r0, lsl #18
     da0:	012e0600 	teqeq	lr, r0, lsl #12
     da4:	0e03193f 	mcreq	9, 0, r1, cr3, cr15, {1}
     da8:	0b3b0b3a 	bleq	ec3a98 <__bss_end__+0xeb7710>
     dac:	01111927 	tsteq	r1, r7, lsr #18
     db0:	18400612 	stmdane	r0, {r1, r4, r9, sl}^
     db4:	01194297 			; <UNDEFINED> instruction: 0x01194297
     db8:	07000013 	smladeq	r0, r3, r0, r0
     dbc:	01018289 	smlabbeq	r1, r9, r2, r8
     dc0:	13010111 	movwne	r0, #4369	; 0x1111
     dc4:	8a080000 	bhi	200dcc <__bss_end__+0x1f4a44>
     dc8:	02000182 	andeq	r0, r0, #-2147483616	; 0x80000020
     dcc:	18429118 	stmdane	r2, {r3, r4, r8, ip, pc}^
     dd0:	89090000 	stmdbhi	r9, {}	; <UNPREDICTABLE>
     dd4:	11010182 	smlabbne	r1, r2, r1, r0
     dd8:	01133101 	tsteq	r3, r1, lsl #2
     ddc:	0a000013 	beq	e30 <_start-0x71d0>
     de0:	00018289 	andeq	r8, r1, r9, lsl #5
     de4:	13310111 	teqne	r1, #1073741828	; 0x40000004
     de8:	150b0000 	strne	r0, [fp, #-0]
     dec:	49192701 	ldmdbmi	r9, {r0, r8, r9, sl, sp}
     df0:	00130113 	andseq	r0, r3, r3, lsl r1
     df4:	00050c00 	andeq	r0, r5, r0, lsl #24
     df8:	00001349 	andeq	r1, r0, r9, asr #6
     dfc:	0300340d 	movweq	r3, #1037	; 0x40d
     e00:	3b0b3a0e 	blcc	2cf640 <__bss_end__+0x2c32b8>
     e04:	3f13490b 	svccc	0x0013490b
     e08:	00193c19 	andseq	r3, r9, r9, lsl ip
     e0c:	012e0e00 	teqeq	lr, r0, lsl #28
     e10:	0e03193f 	mcreq	9, 0, r1, cr3, cr15, {1}
     e14:	0b3b0b3a 	bleq	ec3b04 <__bss_end__+0xeb777c>
     e18:	193c1927 	ldmdbne	ip!, {r0, r1, r2, r5, r8, fp, ip}
     e1c:	00001301 	andeq	r1, r0, r1, lsl #6
     e20:	3f002e0f 	svccc	0x00002e0f
     e24:	3a0e0319 	bcc	381a90 <__bss_end__+0x375708>
     e28:	270b3b0b 	strcs	r3, [fp, -fp, lsl #22]
     e2c:	00193c19 	andseq	r3, r9, r9, lsl ip
     e30:	11010000 	mrsne	r0, (UNDEF: 1)
     e34:	130e2501 	movwne	r2, #58625	; 0xe501
     e38:	1b0e030b 	blne	381a6c <__bss_end__+0x3756e4>
     e3c:	1201110e 	andne	r1, r1, #-2147483645	; 0x80000003
     e40:	00171006 	andseq	r1, r7, r6
     e44:	00240200 	eoreq	r0, r4, r0, lsl #4
     e48:	0b3e0b0b 	bleq	f83a7c <__bss_end__+0xf776f4>
     e4c:	00000803 	andeq	r0, r0, r3, lsl #16
     e50:	0b002403 	bleq	9e64 <rpi_reboot+0x20>
     e54:	030b3e0b 	movweq	r3, #48651	; 0xbe0b
     e58:	0400000e 	streq	r0, [r0], #-14
     e5c:	0e030016 	mcreq	0, 0, r0, cr3, cr6, {0}
     e60:	0b3b0b3a 	bleq	ec3b50 <__bss_end__+0xeb77c8>
     e64:	00001349 	andeq	r1, r0, r9, asr #6
     e68:	0b000f05 	bleq	4a84 <_start-0x357c>
     e6c:	0013490b 	andseq	r4, r3, fp, lsl #18
     e70:	00260600 	eoreq	r0, r6, r0, lsl #12
     e74:	00001349 	andeq	r1, r0, r9, asr #6
     e78:	0b011307 	bleq	45a9c <__bss_end__+0x39714>
     e7c:	3b0b3a0b 	blcc	2cf6b0 <__bss_end__+0x2c3328>
     e80:	0013010b 	andseq	r0, r3, fp, lsl #2
     e84:	000d0800 	andeq	r0, sp, r0, lsl #16
     e88:	0b3a0803 	bleq	e82e9c <__bss_end__+0xe76b14>
     e8c:	13490b3b 	movtne	r0, #39739	; 0x9b3b
     e90:	00000b38 	andeq	r0, r0, r8, lsr fp
     e94:	03000d09 	movweq	r0, #3337	; 0xd09
     e98:	3b0b3a0e 	blcc	2cf6d8 <__bss_end__+0x2c3350>
     e9c:	3813490b 	ldmdacc	r3, {r0, r1, r3, r8, fp, lr}
     ea0:	0a00000b 	beq	ed4 <_start-0x712c>
     ea4:	0b0b0104 	bleq	2c12bc <__bss_end__+0x2b4f34>
     ea8:	0b3b0b3a 	bleq	ec3b98 <__bss_end__+0xeb7810>
     eac:	00001301 	andeq	r1, r0, r1, lsl #6
     eb0:	0300280b 	movweq	r2, #2059	; 0x80b
     eb4:	000d1c0e 	andeq	r1, sp, lr, lsl #24
     eb8:	012e0c00 	teqeq	lr, r0, lsl #24
     ebc:	0b3a0e03 	bleq	e846d0 <__bss_end__+0xe78348>
     ec0:	19270b3b 	stmdbne	r7!, {r0, r1, r3, r4, r5, r8, r9, fp}
     ec4:	01111349 	tsteq	r1, r9, asr #6
     ec8:	18400612 	stmdane	r0, {r1, r4, r9, sl}^
     ecc:	01194297 			; <UNDEFINED> instruction: 0x01194297
     ed0:	0d000013 	stceq	0, cr0, [r0, #-76]	; 0xffffffb4
     ed4:	08030005 	stmdaeq	r3, {r0, r2}
     ed8:	0b3b0b3a 	bleq	ec3bc8 <__bss_end__+0xeb7840>
     edc:	17021349 	strne	r1, [r2, -r9, asr #6]
     ee0:	890e0000 	stmdbhi	lr, {}	; <UNPREDICTABLE>
     ee4:	11010182 	smlabbne	r1, r2, r1, r0
     ee8:	00133101 	andseq	r3, r3, r1, lsl #2
     eec:	828a0f00 	addhi	r0, sl, #0, 30
     ef0:	18020001 	stmdane	r2, {r0}
     ef4:	00184291 	mulseq	r8, r1, r2
     ef8:	012e1000 	teqeq	lr, r0
     efc:	0e03193f 	mcreq	9, 0, r1, cr3, cr15, {1}
     f00:	0b3b0b3a 	bleq	ec3bf0 <__bss_end__+0xeb7868>
     f04:	06120111 			; <UNDEFINED> instruction: 0x06120111
     f08:	42971840 	addsmi	r1, r7, #64, 16	; 0x400000
     f0c:	00130119 	andseq	r0, r3, r9, lsl r1
     f10:	00341100 	eorseq	r1, r4, r0, lsl #2
     f14:	0b3a0e03 	bleq	e84728 <__bss_end__+0xe783a0>
     f18:	13490b3b 	movtne	r0, #39739	; 0x9b3b
     f1c:	193c193f 	ldmdbne	ip!, {r0, r1, r2, r3, r4, r5, r8, fp, ip}
     f20:	2e120000 	cdpcs	0, 1, cr0, cr2, cr0, {0}
     f24:	03193f00 	tsteq	r9, #0, 30
     f28:	3b0b3a0e 	blcc	2cf768 <__bss_end__+0x2c33e0>
     f2c:	3c19270b 	ldccc	7, cr2, [r9], {11}
     f30:	13000019 	movwne	r0, #25
     f34:	08030034 	stmdaeq	r3, {r2, r4, r5}
     f38:	0b3b0b3a 	bleq	ec3c28 <__bss_end__+0xeb78a0>
     f3c:	17021349 	strne	r1, [r2, -r9, asr #6]
     f40:	34140000 	ldrcc	r0, [r4], #-0
     f44:	3a0e0300 	bcc	381b4c <__bss_end__+0x3757c4>
     f48:	490b3b0b 	stmdbmi	fp, {r0, r1, r3, r8, r9, fp, ip, sp}
     f4c:	15000013 	strne	r0, [r0, #-19]
     f50:	00018289 	andeq	r8, r1, r9, lsl #5
     f54:	13310111 	teqne	r1, #1073741828	; 0x40000004
     f58:	89160000 	ldmdbhi	r6, {}	; <UNPREDICTABLE>
     f5c:	11010182 	smlabbne	r1, r2, r1, r0
     f60:	01133101 	tsteq	r3, r1, lsl #2
     f64:	17000013 	smladne	r0, r3, r0, r0
     f68:	0e030034 	mcreq	0, 0, r0, cr3, cr4, {1}
     f6c:	0b3b0b3a 	bleq	ec3c5c <__bss_end__+0xeb78d4>
     f70:	18021349 	stmdane	r2, {r0, r3, r6, r8, r9, ip}
     f74:	15180000 	ldrne	r0, [r8, #-0]
     f78:	49192701 	ldmdbmi	r9, {r0, r8, r9, sl, sp}
     f7c:	00130113 	andseq	r0, r3, r3, lsl r1
     f80:	00051900 	andeq	r1, r5, r0, lsl #18
     f84:	00001349 	andeq	r1, r0, r9, asr #6
     f88:	3f012e1a 	svccc	0x00012e1a
     f8c:	3a0e0319 	bcc	381bf8 <__bss_end__+0x375870>
     f90:	270b3b0b 	strcs	r3, [fp, -fp, lsl #22]
     f94:	01193c19 	tsteq	r9, r9, lsl ip
     f98:	1b000013 	blne	fec <_start-0x7014>
     f9c:	193f002e 	ldmdbne	pc!, {r1, r2, r3, r5}	; <UNPREDICTABLE>
     fa0:	0b3a0e03 	bleq	e847b4 <__bss_end__+0xe7842c>
     fa4:	19270b3b 	stmdbne	r7!, {r0, r1, r3, r4, r5, r8, r9, fp}
     fa8:	193c1349 	ldmdbne	ip!, {r0, r3, r6, r8, r9, ip}
     fac:	2e1c0000 	cdpcs	0, 1, cr0, cr12, cr0, {0}
     fb0:	03193f01 	tsteq	r9, #1, 30
     fb4:	3b0b3a0e 	blcc	2cf7f4 <__bss_end__+0x2c346c>
     fb8:	4919270b 	ldmdbmi	r9, {r0, r1, r3, r8, r9, sl, sp}
     fbc:	01193c13 	tsteq	r9, r3, lsl ip
     fc0:	1d000013 	stcne	0, cr0, [r0, #-76]	; 0xffffffb4
     fc4:	00000018 	andeq	r0, r0, r8, lsl r0
     fc8:	01110100 	tsteq	r1, r0, lsl #2
     fcc:	0b130e25 	bleq	4c4868 <__bss_end__+0x4b84e0>
     fd0:	0e1b0e03 	cdpeq	14, 1, cr0, cr11, cr3, {0}
     fd4:	01111755 	tsteq	r1, r5, asr r7
     fd8:	00001710 	andeq	r1, r0, r0, lsl r7
     fdc:	0b002402 	bleq	9fec <sw_uart_putc+0xd8>
     fe0:	030b3e0b 	movweq	r3, #48651	; 0xbe0b
     fe4:	03000008 	movweq	r0, #8
     fe8:	0b0b0024 	bleq	2c1080 <__bss_end__+0x2b4cf8>
     fec:	0e030b3e 	vmoveq.16	d3[0], r0
     ff0:	2e040000 	cdpcs	0, 0, cr0, cr4, cr0, {0}
     ff4:	03193f01 	tsteq	r9, #1, 30
     ff8:	3b0b3a0e 	blcc	2cf838 <__bss_end__+0x2c34b0>
     ffc:	4919270b 	ldmdbmi	r9, {r0, r1, r3, r8, r9, sl, sp}
    1000:	12011113 	andne	r1, r1, #-1073741820	; 0xc0000004
    1004:	97184006 	ldrls	r4, [r8, -r6]
    1008:	13011942 	movwne	r1, #6466	; 0x1942
    100c:	34050000 	strcc	r0, [r5], #-0
    1010:	3a0e0300 	bcc	381c18 <__bss_end__+0x375890>
    1014:	490b3b0b 	stmdbmi	fp, {r0, r1, r3, r8, r9, fp, ip, sp}
    1018:	00170213 	andseq	r0, r7, r3, lsl r2
    101c:	012e0600 	teqeq	lr, r0, lsl #12
    1020:	0e03193f 	mcreq	9, 0, r1, cr3, cr15, {1}
    1024:	0b3b0b3a 	bleq	ec3d14 <__bss_end__+0xeb798c>
    1028:	01111927 	tsteq	r1, r7, lsr #18
    102c:	18400612 	stmdane	r0, {r1, r4, r9, sl}^
    1030:	01194297 			; <UNDEFINED> instruction: 0x01194297
    1034:	07000013 	smladeq	r0, r3, r0, r0
    1038:	0e030034 	mcreq	0, 0, r0, cr3, cr4, {1}
    103c:	0b3b0b3a 	bleq	ec3d2c <__bss_end__+0xeb79a4>
    1040:	061c1349 	ldreq	r1, [ip], -r9, asr #6
    1044:	34080000 	strcc	r0, [r8], #-0
    1048:	3a0e0300 	bcc	381c50 <__bss_end__+0x3758c8>
    104c:	490b3b0b 	stmdbmi	fp, {r0, r1, r3, r8, r9, fp, ip, sp}
    1050:	000b1c13 	andeq	r1, fp, r3, lsl ip
    1054:	82890900 	addhi	r0, r9, #0, 18
    1058:	01110001 	tsteq	r1, r1
    105c:	00001331 	andeq	r1, r0, r1, lsr r3
    1060:	0182890a 	orreq	r8, r2, sl, lsl #18
    1064:	31011101 	tstcc	r1, r1, lsl #2
    1068:	00130113 	andseq	r0, r3, r3, lsl r1
    106c:	828a0b00 	addhi	r0, sl, #0, 22
    1070:	18020001 	stmdane	r2, {r0}
    1074:	00184291 	mulseq	r8, r1, r2
    1078:	82890c00 	addhi	r0, r9, #0, 24
    107c:	01110101 	tsteq	r1, r1, lsl #2
    1080:	00001331 	andeq	r1, r0, r1, lsr r3
    1084:	4900260d 	stmdbmi	r0, {r0, r2, r3, r9, sl, sp}
    1088:	0e000013 	mcreq	0, 0, r0, cr0, cr3, {0}
    108c:	193f012e 	ldmdbne	pc!, {r1, r2, r3, r5, r8}	; <UNPREDICTABLE>
    1090:	0b3a0e03 	bleq	e848a4 <__bss_end__+0xe7851c>
    1094:	19270b3b 	stmdbne	r7!, {r0, r1, r3, r4, r5, r8, r9, fp}
    1098:	1301193c 	movwne	r1, #6460	; 0x193c
    109c:	050f0000 	streq	r0, [pc, #-0]	; 10a4 <_start-0x6f5c>
    10a0:	00134900 	andseq	r4, r3, r0, lsl #18
    10a4:	012e1000 	teqeq	lr, r0
    10a8:	0e03193f 	mcreq	9, 0, r1, cr3, cr15, {1}
    10ac:	0b3b0b3a 	bleq	ec3d9c <__bss_end__+0xeb7a14>
    10b0:	193c1927 	ldmdbne	ip!, {r0, r1, r2, r5, r8, fp, ip}
    10b4:	01000000 	mrseq	r0, (UNDEF: 0)
    10b8:	0e250111 	mcreq	1, 1, r0, cr5, cr1, {0}
    10bc:	0e030b13 	vmoveq.32	d3[0], r0
    10c0:	01110e1b 	tsteq	r1, fp, lsl lr
    10c4:	17100612 			; <UNDEFINED> instruction: 0x17100612
    10c8:	24020000 	strcs	r0, [r2], #-0
    10cc:	3e0b0b00 	vmlacc.f64	d0, d11, d0
    10d0:	0008030b 	andeq	r0, r8, fp, lsl #6
    10d4:	00240300 	eoreq	r0, r4, r0, lsl #6
    10d8:	0b3e0b0b 	bleq	f83d0c <__bss_end__+0xf77984>
    10dc:	00000e03 	andeq	r0, r0, r3, lsl #28
    10e0:	3f012e04 	svccc	0x00012e04
    10e4:	3a0e0319 	bcc	381d50 <__bss_end__+0x3759c8>
    10e8:	270b3b0b 	strcs	r3, [fp, -fp, lsl #22]
    10ec:	12011119 	andne	r1, r1, #1073741830	; 0x40000006
    10f0:	97184006 	ldrls	r4, [r8, -r6]
    10f4:	13011942 	movwne	r1, #6466	; 0x1942
    10f8:	05050000 	streq	r0, [r5, #-0]
    10fc:	3a0e0300 	bcc	381d04 <__bss_end__+0x37597c>
    1100:	490b3b0b 	stmdbmi	fp, {r0, r1, r3, r8, r9, fp, ip, sp}
    1104:	00170213 	andseq	r0, r7, r3, lsl r2
    1108:	012e0600 	teqeq	lr, r0, lsl #12
    110c:	0e03193f 	mcreq	9, 0, r1, cr3, cr15, {1}
    1110:	0b3b0b3a 	bleq	ec3e00 <__bss_end__+0xeb7a78>
    1114:	13491927 	movtne	r1, #39207	; 0x9927
    1118:	06120111 			; <UNDEFINED> instruction: 0x06120111
    111c:	42971840 	addsmi	r1, r7, #64, 16	; 0x400000
    1120:	00130119 	andseq	r0, r3, r9, lsl r1
    1124:	82890700 	addhi	r0, r9, #0, 14
    1128:	01110101 	tsteq	r1, r1, lsl #2
    112c:	00001331 	andeq	r1, r0, r1, lsr r3
    1130:	01828a08 	orreq	r8, r2, r8, lsl #20
    1134:	91180200 	tstls	r8, r0, lsl #4
    1138:	00001842 	andeq	r1, r0, r2, asr #16
    113c:	03003409 	movweq	r3, #1033	; 0x409
    1140:	3b0b3a08 	blcc	2cf968 <__bss_end__+0x2c35e0>
    1144:	0213490b 	andseq	r4, r3, #180224	; 0x2c000
    1148:	0a000018 	beq	11b0 <_start-0x6e50>
    114c:	00018289 	andeq	r8, r1, r9, lsl #5
    1150:	13310111 	teqne	r1, #1073741828	; 0x40000004
    1154:	050b0000 	streq	r0, [fp, #-0]
    1158:	3a080300 	bcc	201d60 <__bss_end__+0x1f59d8>
    115c:	490b3b0b 	stmdbmi	fp, {r0, r1, r3, r8, r9, fp, ip, sp}
    1160:	00170213 	andseq	r0, r7, r3, lsl r2
    1164:	010b0c00 	tsteq	fp, r0, lsl #24
    1168:	06120111 			; <UNDEFINED> instruction: 0x06120111
    116c:	00001301 	andeq	r1, r0, r1, lsl #6
    1170:	0300340d 	movweq	r3, #1037	; 0x40d
    1174:	3b0b3a08 	blcc	2cf99c <__bss_end__+0x2c3614>
    1178:	0213490b 	andseq	r4, r3, #180224	; 0x2c000
    117c:	0e000017 	mcreq	0, 0, r0, cr0, cr7, {0}
    1180:	193f012e 	ldmdbne	pc!, {r1, r2, r3, r5, r8}	; <UNPREDICTABLE>
    1184:	0b3a0e03 	bleq	e84998 <__bss_end__+0xe78610>
    1188:	19270b3b 	stmdbne	r7!, {r0, r1, r3, r4, r5, r8, r9, fp}
    118c:	193c1349 	ldmdbne	ip!, {r0, r3, r6, r8, r9, ip}
    1190:	050f0000 	streq	r0, [pc, #-0]	; 1198 <_start-0x6e68>
    1194:	00134900 	andseq	r4, r3, r0, lsl #18
    1198:	11010000 	mrsne	r0, (UNDEF: 1)
    119c:	130e2501 	movwne	r2, #58625	; 0xe501
    11a0:	1b0e030b 	blne	381dd4 <__bss_end__+0x375a4c>
    11a4:	1201110e 	andne	r1, r1, #-2147483645	; 0x80000003
    11a8:	00171006 	andseq	r1, r7, r6
    11ac:	00240200 	eoreq	r0, r4, r0, lsl #4
    11b0:	0b3e0b0b 	bleq	f83de4 <__bss_end__+0xf77a5c>
    11b4:	00000803 	andeq	r0, r0, r3, lsl #16
    11b8:	0b002403 	bleq	a1cc <sw_uart_getc_timeout+0x164>
    11bc:	030b3e0b 	movweq	r3, #48651	; 0xbe0b
    11c0:	0400000e 	streq	r0, [r0], #-14
    11c4:	0e030016 	mcreq	0, 0, r0, cr3, cr6, {0}
    11c8:	0b3b0b3a 	bleq	ec3eb8 <__bss_end__+0xeb7b30>
    11cc:	00001349 	andeq	r1, r0, r9, asr #6
    11d0:	0b000f05 	bleq	4dec <_start-0x3214>
    11d4:	0600000b 	streq	r0, [r0], -fp
    11d8:	0b0b000f 	bleq	2c121c <__bss_end__+0x2b4e94>
    11dc:	00001349 	andeq	r1, r0, r9, asr #6
    11e0:	49002607 	stmdbmi	r0, {r0, r1, r2, r9, sl, sp}
    11e4:	08000013 	stmdaeq	r0, {r0, r1, r4}
    11e8:	0b0b0113 	bleq	2c163c <__bss_end__+0x2b52b4>
    11ec:	0b3b0b3a 	bleq	ec3edc <__bss_end__+0xeb7b54>
    11f0:	00001301 	andeq	r1, r0, r1, lsl #6
    11f4:	03000d09 	movweq	r0, #3337	; 0xd09
    11f8:	3b0b3a08 	blcc	2cfa20 <__bss_end__+0x2c3698>
    11fc:	3813490b 	ldmdacc	r3, {r0, r1, r3, r8, fp, lr}
    1200:	0a00000b 	beq	1234 <_start-0x6dcc>
    1204:	0e03000d 	cdpeq	0, 0, cr0, cr3, cr13, {0}
    1208:	0b3b0b3a 	bleq	ec3ef8 <__bss_end__+0xeb7b70>
    120c:	0b381349 	bleq	e05f38 <__bss_end__+0xdf9bb0>
    1210:	130b0000 	movwne	r0, #45056	; 0xb000
    1214:	0b0e0301 	bleq	381e20 <__bss_end__+0x375a98>
    1218:	3b0b3a0b 	blcc	2cfa4c <__bss_end__+0x2c36c4>
    121c:	0013010b 	andseq	r0, r3, fp, lsl #2
    1220:	000d0c00 	andeq	r0, sp, r0, lsl #24
    1224:	13490e03 	movtne	r0, #40451	; 0x9e03
    1228:	19340b38 	ldmdbne	r4!, {r3, r4, r5, r8, r9, fp}
    122c:	2e0d0000 	cdpcs	0, 0, cr0, cr13, cr0, {0}
    1230:	3a0e0301 	bcc	381e3c <__bss_end__+0x375ab4>
    1234:	270b3b0b 	strcs	r3, [fp, -fp, lsl #22]
    1238:	010b2019 	tsteq	fp, r9, lsl r0
    123c:	0e000013 	mcreq	0, 0, r0, cr0, cr3, {0}
    1240:	0e030005 	cdpeq	0, 0, cr0, cr3, cr5, {0}
    1244:	0b3b0b3a 	bleq	ec3f34 <__bss_end__+0xeb7bac>
    1248:	00001349 	andeq	r1, r0, r9, asr #6
    124c:	0300050f 	movweq	r0, #1295	; 0x50f
    1250:	3b0b3a08 	blcc	2cfa78 <__bss_end__+0x2c36f0>
    1254:	0013490b 	andseq	r4, r3, fp, lsl #18
    1258:	010b1000 	mrseq	r1, (UNDEF: 11)
    125c:	34110000 	ldrcc	r0, [r1], #-0
    1260:	3a0e0300 	bcc	381e68 <__bss_end__+0x375ae0>
    1264:	490b3b0b 	stmdbmi	fp, {r0, r1, r3, r8, r9, fp, ip, sp}
    1268:	12000013 	andne	r0, r0, #19
    126c:	193f012e 	ldmdbne	pc!, {r1, r2, r3, r5, r8}	; <UNPREDICTABLE>
    1270:	0b3a0e03 	bleq	e84a84 <__bss_end__+0xe786fc>
    1274:	19270b3b 	stmdbne	r7!, {r0, r1, r3, r4, r5, r8, r9, fp}
    1278:	06120111 			; <UNDEFINED> instruction: 0x06120111
    127c:	42971840 	addsmi	r1, r7, #64, 16	; 0x400000
    1280:	00130119 	andseq	r0, r3, r9, lsl r1
    1284:	00051300 	andeq	r1, r5, r0, lsl #6
    1288:	0b3a0e03 	bleq	e84a9c <__bss_end__+0xe78714>
    128c:	13490b3b 	movtne	r0, #39739	; 0x9b3b
    1290:	00001702 	andeq	r1, r0, r2, lsl #14
    1294:	03000514 	movweq	r0, #1300	; 0x514
    1298:	3b0b3a08 	blcc	2cfac0 <__bss_end__+0x2c3738>
    129c:	0213490b 	andseq	r4, r3, #180224	; 0x2c000
    12a0:	15000017 	strne	r0, [r0, #-23]
    12a4:	08030034 	stmdaeq	r3, {r2, r4, r5}
    12a8:	0b3b0b3a 	bleq	ec3f98 <__bss_end__+0xeb7c10>
    12ac:	18021349 	stmdane	r2, {r0, r3, r6, r8, r9, ip}
    12b0:	34160000 	ldrcc	r0, [r6], #-0
    12b4:	3a080300 	bcc	201ebc <__bss_end__+0x1f5b34>
    12b8:	490b3b0b 	stmdbmi	fp, {r0, r1, r3, r8, r9, fp, ip, sp}
    12bc:	00170213 	andseq	r0, r7, r3, lsl r2
    12c0:	010b1700 	tsteq	fp, r0, lsl #14
    12c4:	06120111 			; <UNDEFINED> instruction: 0x06120111
    12c8:	00001301 	andeq	r1, r0, r1, lsl #6
    12cc:	03003418 	movweq	r3, #1048	; 0x418
    12d0:	3b0b3a0e 	blcc	2cfb10 <__bss_end__+0x2c3788>
    12d4:	0213490b 	andseq	r4, r3, #180224	; 0x2c000
    12d8:	19000018 	stmdbne	r0, {r3, r4}
    12dc:	1331011d 	teqne	r1, #1073741831	; 0x40000007
    12e0:	06120111 			; <UNDEFINED> instruction: 0x06120111
    12e4:	0b590b58 	bleq	164404c <__bss_end__+0x1637cc4>
    12e8:	00001301 	andeq	r1, r0, r1, lsl #6
    12ec:	3100051a 	tstcc	r0, sl, lsl r5
    12f0:	00170213 	andseq	r0, r7, r3, lsl r2
    12f4:	00051b00 	andeq	r1, r5, r0, lsl #22
    12f8:	18021331 	stmdane	r2, {r0, r4, r5, r8, r9, ip}
    12fc:	051c0000 	ldreq	r0, [ip, #-0]
    1300:	1c133100 	ldfnes	f3, [r3], {-0}
    1304:	1d00000b 	stcne	0, cr0, [r0, #-44]	; 0xffffffd4
    1308:	0111010b 	tsteq	r1, fp, lsl #2
    130c:	00000612 	andeq	r0, r0, r2, lsl r6
    1310:	3100341e 	tstcc	r0, lr, lsl r4
    1314:	00170213 	andseq	r0, r7, r3, lsl r2
    1318:	82891f00 	addhi	r1, r9, #0, 30
    131c:	01110101 	tsteq	r1, r1, lsl #2
    1320:	00001331 	andeq	r1, r0, r1, lsr r3
    1324:	01828a20 	orreq	r8, r2, r0, lsr #20
    1328:	91180200 	tstls	r8, r0, lsl #4
    132c:	00001842 	andeq	r1, r0, r2, asr #16
    1330:	31011d21 	tstcc	r1, r1, lsr #26
    1334:	12011113 	andne	r1, r1, #-1073741820	; 0xc0000004
    1338:	590b5806 	stmdbpl	fp, {r1, r2, fp, ip, lr}
    133c:	2200000b 	andcs	r0, r0, #11
    1340:	0e03012e 	adfeqsp	f0, f3, #0.5
    1344:	0b3b0b3a 	bleq	ec4034 <__bss_end__+0xeb7cac>
    1348:	13491927 	movtne	r1, #39207	; 0x9927
    134c:	13010b20 	movwne	r0, #6944	; 0x1b20
    1350:	2e230000 	cdpcs	0, 2, cr0, cr3, cr0, {0}
    1354:	03193f01 	tsteq	r9, #1, 30
    1358:	3b0b3a0e 	blcc	2cfb98 <__bss_end__+0x2c3810>
    135c:	4919270b 	ldmdbmi	r9, {r0, r1, r3, r8, r9, sl, sp}
    1360:	12011113 	andne	r1, r1, #-1073741820	; 0xc0000004
    1364:	97184006 	ldrls	r4, [r8, -r6]
    1368:	13011942 	movwne	r1, #6466	; 0x1942
    136c:	89240000 	stmdbhi	r4!, {}	; <UNPREDICTABLE>
    1370:	11000182 	smlabbne	r0, r2, r1, r0
    1374:	00133101 	andseq	r3, r3, r1, lsl #2
    1378:	82892500 	addhi	r2, r9, #0, 10
    137c:	01110101 	tsteq	r1, r1, lsl #2
    1380:	13011331 	movwne	r1, #4913	; 0x1331
    1384:	34260000 	strtcc	r0, [r6], #-0
    1388:	3a0e0300 	bcc	381f90 <__bss_end__+0x375c08>
    138c:	490b3b0b 	stmdbmi	fp, {r0, r1, r3, r8, r9, fp, ip, sp}
    1390:	00170213 	andseq	r0, r7, r3, lsl r2
    1394:	00052700 	andeq	r2, r5, r0, lsl #14
    1398:	00001331 	andeq	r1, r0, r1, lsr r3
    139c:	03000528 	movweq	r0, #1320	; 0x528
    13a0:	3b0b3a0e 	blcc	2cfbe0 <__bss_end__+0x2c3858>
    13a4:	0213490b 	andseq	r4, r3, #180224	; 0x2c000
    13a8:	29000018 	stmdbcs	r0, {r3, r4}
    13ac:	0e030034 	mcreq	0, 0, r0, cr3, cr4, {1}
    13b0:	19341349 	ldmdbne	r4!, {r0, r3, r6, r8, r9, ip}
    13b4:	00001802 	andeq	r1, r0, r2, lsl #16
    13b8:	4901012a 	stmdbmi	r1, {r1, r3, r5, r8}
    13bc:	00130113 	andseq	r0, r3, r3, lsl r1
    13c0:	00212b00 	eoreq	r2, r1, r0, lsl #22
    13c4:	0b2f1349 	bleq	bc60f0 <__bss_end__+0xbb9d68>
    13c8:	342c0000 	strtcc	r0, [ip], #-0
    13cc:	3a080300 	bcc	201fd4 <__bss_end__+0x1f5c4c>
    13d0:	490b3b0b 	stmdbmi	fp, {r0, r1, r3, r8, r9, fp, ip, sp}
    13d4:	00061c13 	andeq	r1, r6, r3, lsl ip
    13d8:	00342d00 	eorseq	r2, r4, r0, lsl #26
    13dc:	0b3a0803 	bleq	e833f0 <__bss_end__+0xe77068>
    13e0:	13490b3b 	movtne	r0, #39739	; 0x9b3b
    13e4:	00000b1c 	andeq	r0, r0, ip, lsl fp
    13e8:	0300052e 	movweq	r0, #1326	; 0x52e
    13ec:	3b0b3a08 	blcc	2cfc14 <__bss_end__+0x2c388c>
    13f0:	0213490b 	andseq	r4, r3, #180224	; 0x2c000
    13f4:	2f000018 	svccs	0x00000018
    13f8:	00000018 	andeq	r0, r0, r8, lsl r0
    13fc:	49002130 	stmdbmi	r0, {r4, r5, r8, sp}
    1400:	00052f13 	andeq	r2, r5, r3, lsl pc
    1404:	012e3100 	teqeq	lr, r0, lsl #2
    1408:	0e03193f 	mcreq	9, 0, r1, cr3, cr15, {1}
    140c:	0b3b0b3a 	bleq	ec40fc <__bss_end__+0xeb7d74>
    1410:	193c1927 	ldmdbne	ip!, {r0, r1, r2, r5, r8, fp, ip}
    1414:	00001301 	andeq	r1, r0, r1, lsl #6
    1418:	49000532 	stmdbmi	r0, {r1, r4, r5, r8, sl}
    141c:	33000013 	movwcc	r0, #19
    1420:	193f002e 	ldmdbne	pc!, {r1, r2, r3, r5}	; <UNPREDICTABLE>
    1424:	0b3a0e03 	bleq	e84c38 <__bss_end__+0xe788b0>
    1428:	19270b3b 	stmdbne	r7!, {r0, r1, r3, r4, r5, r8, r9, fp}
    142c:	193c1349 	ldmdbne	ip!, {r0, r3, r6, r8, r9, ip}
    1430:	2e340000 	cdpcs	0, 3, cr0, cr4, cr0, {0}
    1434:	03193f01 	tsteq	r9, #1, 30
    1438:	3b0b3a0e 	blcc	2cfc78 <__bss_end__+0x2c38f0>
    143c:	4919270b 	ldmdbmi	r9, {r0, r1, r3, r8, r9, sl, sp}
    1440:	01193c13 	tsteq	r9, r3, lsl ip
    1444:	35000013 	strcc	r0, [r0, #-19]
    1448:	193f002e 	ldmdbne	pc!, {r1, r2, r3, r5}	; <UNPREDICTABLE>
    144c:	0b3a0e03 	bleq	e84c60 <__bss_end__+0xe788d8>
    1450:	19270b3b 	stmdbne	r7!, {r0, r1, r3, r4, r5, r8, r9, fp}
    1454:	0000193c 	andeq	r1, r0, ip, lsr r9
    1458:	3f012e36 	svccc	0x00012e36
    145c:	3a0e0319 	bcc	3820c8 <__bss_end__+0x375d40>
    1460:	270b3b0b 	strcs	r3, [fp, -fp, lsl #22]
    1464:	3c134919 	ldccc	9, cr4, [r3], {25}
    1468:	00000019 	andeq	r0, r0, r9, lsl r0
    146c:	25011101 	strcs	r1, [r1, #-257]	; 0x101
    1470:	030b130e 	movweq	r1, #45838	; 0xb30e
    1474:	110e1b0e 	tstne	lr, lr, lsl #22
    1478:	10061201 	andne	r1, r6, r1, lsl #4
    147c:	02000017 	andeq	r0, r0, #23
    1480:	0b0b0024 	bleq	2c1518 <__bss_end__+0x2b5190>
    1484:	08030b3e 	stmdaeq	r3, {r1, r2, r3, r4, r5, r8, r9, fp}
    1488:	24030000 	strcs	r0, [r3], #-0
    148c:	3e0b0b00 	vmlacc.f64	d0, d11, d0
    1490:	000e030b 	andeq	r0, lr, fp, lsl #6
    1494:	01040400 	tsteq	r4, r0, lsl #8
    1498:	0b3a0b0b 	bleq	e840cc <__bss_end__+0xe77d44>
    149c:	13010b3b 	movwne	r0, #6971	; 0x1b3b
    14a0:	28050000 	stmdacs	r5, {}	; <UNPREDICTABLE>
    14a4:	1c0e0300 	stcne	3, cr0, [lr], {-0}
    14a8:	0600000d 	streq	r0, [r0], -sp
    14ac:	0e030016 	mcreq	0, 0, r0, cr3, cr6, {0}
    14b0:	0b3b0b3a 	bleq	ec41a0 <__bss_end__+0xeb7e18>
    14b4:	00001349 	andeq	r1, r0, r9, asr #6
    14b8:	3f012e07 	svccc	0x00012e07
    14bc:	3a0e0319 	bcc	382128 <__bss_end__+0x375da0>
    14c0:	270b3b0b 	strcs	r3, [fp, -fp, lsl #22]
    14c4:	12011119 	andne	r1, r1, #1073741830	; 0x40000006
    14c8:	97184006 	ldrls	r4, [r8, -r6]
    14cc:	13011942 	movwne	r1, #6466	; 0x1942
    14d0:	89080000 	stmdbhi	r8, {}	; <UNPREDICTABLE>
    14d4:	11000182 	smlabbne	r0, r2, r1, r0
    14d8:	00133101 	andseq	r3, r3, r1, lsl #2
    14dc:	82890900 	addhi	r0, r9, #0, 18
    14e0:	01110101 	tsteq	r1, r1, lsl #2
    14e4:	13011331 	movwne	r1, #4913	; 0x1331
    14e8:	8a0a0000 	bhi	2814f0 <__bss_end__+0x275168>
    14ec:	02000182 	andeq	r0, r0, #-2147483616	; 0x80000020
    14f0:	18429118 	stmdane	r2, {r3, r4, r8, ip, pc}^
    14f4:	2e0b0000 	cdpcs	0, 0, cr0, cr11, cr0, {0}
    14f8:	03193f01 	tsteq	r9, #1, 30
    14fc:	3b0b3a0e 	blcc	2cfd3c <__bss_end__+0x2c39b4>
    1500:	4919270b 	ldmdbmi	r9, {r0, r1, r3, r8, r9, sl, sp}
    1504:	12011113 	andne	r1, r1, #-1073741820	; 0xc0000004
    1508:	97184006 	ldrls	r4, [r8, -r6]
    150c:	13011942 	movwne	r1, #6466	; 0x1942
    1510:	050c0000 	streq	r0, [ip, #-0]
    1514:	3a080300 	bcc	20211c <__bss_end__+0x1f5d94>
    1518:	490b3b0b 	stmdbmi	fp, {r0, r1, r3, r8, r9, fp, ip, sp}
    151c:	00170213 	andseq	r0, r7, r3, lsl r2
    1520:	82890d00 	addhi	r0, r9, #0, 26
    1524:	01110101 	tsteq	r1, r1, lsl #2
    1528:	00001331 	andeq	r1, r0, r1, lsr r3
    152c:	0300340e 	movweq	r3, #1038	; 0x40e
    1530:	3b0b3a0e 	blcc	2cfd70 <__bss_end__+0x2c39e8>
    1534:	3f13490b 	svccc	0x0013490b
    1538:	00180219 	andseq	r0, r8, r9, lsl r2
    153c:	000f0f00 	andeq	r0, pc, r0, lsl #30
    1540:	13490b0b 	movtne	r0, #39691	; 0x9b0b
    1544:	35100000 	ldrcc	r0, [r0, #-0]
    1548:	00134900 	andseq	r4, r3, r0, lsl #18
    154c:	002e1100 	eoreq	r1, lr, r0, lsl #2
    1550:	0e03193f 	mcreq	9, 0, r1, cr3, cr15, {1}
    1554:	0b3b0b3a 	bleq	ec4244 <__bss_end__+0xeb7ebc>
    1558:	193c1927 	ldmdbne	ip!, {r0, r1, r2, r5, r8, fp, ip}
    155c:	2e120000 	cdpcs	0, 1, cr0, cr2, cr0, {0}
    1560:	03193f01 	tsteq	r9, #1, 30
    1564:	3b0b3a0e 	blcc	2cfda4 <__bss_end__+0x2c3a1c>
    1568:	3c19270b 	ldccc	7, cr2, [r9], {11}
    156c:	00130119 	andseq	r0, r3, r9, lsl r1
    1570:	00051300 	andeq	r1, r5, r0, lsl #6
    1574:	00001349 	andeq	r1, r0, r9, asr #6
    1578:	3f012e14 	svccc	0x00012e14
    157c:	3a0e0319 	bcc	3821e8 <__bss_end__+0x375e60>
    1580:	270b3b0b 	strcs	r3, [fp, -fp, lsl #22]
    1584:	3c134919 	ldccc	9, cr4, [r3], {25}
    1588:	00130119 	andseq	r0, r3, r9, lsl r1
    158c:	00261500 	eoreq	r1, r6, r0, lsl #10
    1590:	00001349 	andeq	r1, r0, r9, asr #6
    1594:	00003516 	andeq	r3, r0, r6, lsl r5
    1598:	11010000 	mrsne	r0, (UNDEF: 1)
    159c:	130e2501 	movwne	r2, #58625	; 0xe501
    15a0:	1b0e030b 	blne	3821d4 <__bss_end__+0x375e4c>
    15a4:	1201110e 	andne	r1, r1, #-2147483645	; 0x80000003
    15a8:	00171006 	andseq	r1, r7, r6
    15ac:	00240200 	eoreq	r0, r4, r0, lsl #4
    15b0:	0b3e0b0b 	bleq	f841e4 <__bss_end__+0xf77e5c>
    15b4:	00000803 	andeq	r0, r0, r3, lsl #16
    15b8:	0b002403 	bleq	a5cc <uart_init+0x98>
    15bc:	030b3e0b 	movweq	r3, #48651	; 0xbe0b
    15c0:	0400000e 	streq	r0, [r0], #-14
    15c4:	0b0b000f 	bleq	2c1608 <__bss_end__+0x2b5280>
    15c8:	00001349 	andeq	r1, r0, r9, asr #6
    15cc:	49002605 	stmdbmi	r0, {r0, r2, r9, sl, sp}
    15d0:	06000013 			; <UNDEFINED> instruction: 0x06000013
    15d4:	0b0b0104 	bleq	2c19ec <__bss_end__+0x2b5664>
    15d8:	0b3b0b3a 	bleq	ec42c8 <__bss_end__+0xeb7f40>
    15dc:	00001301 	andeq	r1, r0, r1, lsl #6
    15e0:	03002807 	movweq	r2, #2055	; 0x807
    15e4:	000d1c0e 	andeq	r1, sp, lr, lsl #24
    15e8:	012e0800 	teqeq	lr, r0, lsl #16
    15ec:	0e03193f 	mcreq	9, 0, r1, cr3, cr15, {1}
    15f0:	0b3b0b3a 	bleq	ec42e0 <__bss_end__+0xeb7f58>
    15f4:	01111927 	tsteq	r1, r7, lsr #18
    15f8:	18400612 	stmdane	r0, {r1, r4, r9, sl}^
    15fc:	01194297 			; <UNDEFINED> instruction: 0x01194297
    1600:	09000013 	stmdbeq	r0, {r0, r1, r4}
    1604:	0e030034 	mcreq	0, 0, r0, cr3, cr4, {1}
    1608:	0b3b0b3a 	bleq	ec42f8 <__bss_end__+0xeb7f70>
    160c:	193f1349 	ldmdbne	pc!, {r0, r3, r6, r8, r9, ip}	; <UNPREDICTABLE>
    1610:	0000193c 	andeq	r1, r0, ip, lsr r9
    1614:	0300340a 	movweq	r3, #1034	; 0x40a
    1618:	3b0b3a08 	blcc	2cfe40 <__bss_end__+0x2c3ab8>
    161c:	1c13490b 	ldcne	9, cr4, [r3], {11}
    1620:	0b00000b 	bleq	1654 <_start-0x69ac>
    1624:	08030034 	stmdaeq	r3, {r2, r4, r5}
    1628:	0b3b0b3a 	bleq	ec4318 <__bss_end__+0xeb7f90>
    162c:	00001349 	andeq	r1, r0, r9, asr #6
    1630:	0300340c 	movweq	r3, #1036	; 0x40c
    1634:	3b0b3a08 	blcc	2cfe5c <__bss_end__+0x2c3ad4>
    1638:	0213490b 	andseq	r4, r3, #180224	; 0x2c000
    163c:	0d000018 	stceq	0, cr0, [r0, #-96]	; 0xffffffa0
    1640:	0111010b 	tsteq	r1, fp, lsl #2
    1644:	13010612 	movwne	r0, #5650	; 0x1612
    1648:	340e0000 	strcc	r0, [lr], #-0
    164c:	3a080300 	bcc	202254 <__bss_end__+0x1f5ecc>
    1650:	490b3b0b 	stmdbmi	fp, {r0, r1, r3, r8, r9, fp, ip, sp}
    1654:	00170213 	andseq	r0, r7, r3, lsl r2
    1658:	82890f00 	addhi	r0, r9, #0, 30
    165c:	01110101 	tsteq	r1, r1, lsl #2
    1660:	13011331 	movwne	r1, #4913	; 0x1331
    1664:	8a100000 	bhi	40166c <__bss_end__+0x3f52e4>
    1668:	02000182 	andeq	r0, r0, #-2147483616	; 0x80000020
    166c:	18429118 	stmdane	r2, {r3, r4, r8, ip, pc}^
    1670:	89110000 	ldmdbhi	r1, {}	; <UNPREDICTABLE>
    1674:	11000182 	smlabbne	r0, r2, r1, r0
    1678:	00133101 	andseq	r3, r3, r1, lsl #2
    167c:	00051200 	andeq	r1, r5, r0, lsl #4
    1680:	0b3a0803 	bleq	e83694 <__bss_end__+0xe7730c>
    1684:	13490b3b 	movtne	r0, #39739	; 0x9b3b
    1688:	00001702 	andeq	r1, r0, r2, lsl #14
    168c:	03003413 	movweq	r3, #1043	; 0x413
    1690:	3413490e 	ldrcc	r4, [r3], #-2318	; 0x90e
    1694:	00180219 	andseq	r0, r8, r9, lsl r2
    1698:	01011400 	tsteq	r1, r0, lsl #8
    169c:	13011349 	movwne	r1, #4937	; 0x1349
    16a0:	21150000 	tstcs	r5, r0
    16a4:	2f134900 	svccs	0x00134900
    16a8:	1600000b 	strne	r0, [r0], -fp
    16ac:	193f012e 	ldmdbne	pc!, {r1, r2, r3, r5, r8}	; <UNPREDICTABLE>
    16b0:	0b3a0e03 	bleq	e84ec4 <__bss_end__+0xe78b3c>
    16b4:	19270b3b 	stmdbne	r7!, {r0, r1, r3, r4, r5, r8, r9, fp}
    16b8:	1301193c 	movwne	r1, #6460	; 0x193c
    16bc:	05170000 	ldreq	r0, [r7, #-0]
    16c0:	00134900 	andseq	r4, r3, r0, lsl #18
    16c4:	002e1800 	eoreq	r1, lr, r0, lsl #16
    16c8:	0e03193f 	mcreq	9, 0, r1, cr3, cr15, {1}
    16cc:	0b3b0b3a 	bleq	ec43bc <__bss_end__+0xeb8034>
    16d0:	193c1927 	ldmdbne	ip!, {r0, r1, r2, r5, r8, fp, ip}
    16d4:	2e190000 	cdpcs	0, 1, cr0, cr9, cr0, {0}
    16d8:	03193f01 	tsteq	r9, #1, 30
    16dc:	3b0b3a0e 	blcc	2cff1c <__bss_end__+0x2c3b94>
    16e0:	4919270b 	ldmdbmi	r9, {r0, r1, r3, r8, r9, sl, sp}
    16e4:	01193c13 	tsteq	r9, r3, lsl ip
    16e8:	1a000013 	bne	173c <_start-0x68c4>
    16ec:	00000018 	andeq	r0, r0, r8, lsl r0
    16f0:	01110100 	tsteq	r1, r0, lsl #2
    16f4:	0b130e25 	bleq	4c4f90 <__bss_end__+0x4b8c08>
    16f8:	0e1b0e03 	cdpeq	14, 1, cr0, cr11, cr3, {0}
    16fc:	06120111 			; <UNDEFINED> instruction: 0x06120111
    1700:	00001710 	andeq	r1, r0, r0, lsl r7
    1704:	0b002402 	bleq	a714 <fast_interrupt_vector+0x24>
    1708:	030b3e0b 	movweq	r3, #48651	; 0xbe0b
    170c:	0300000e 	movweq	r0, #14
    1710:	0b0b0024 	bleq	2c17a8 <__bss_end__+0x2b5420>
    1714:	08030b3e 	stmdaeq	r3, {r1, r2, r3, r4, r5, r8, r9, fp}
    1718:	04040000 	streq	r0, [r4], #-0
    171c:	3a0b0b01 	bcc	2c4328 <__bss_end__+0x2b7fa0>
    1720:	010b3b0b 	tsteq	fp, fp, lsl #22
    1724:	05000013 	streq	r0, [r0, #-19]
    1728:	0e030028 	cdpeq	0, 0, cr0, cr3, cr8, {1}
    172c:	00000d1c 	andeq	r0, r0, ip, lsl sp
    1730:	03001606 	movweq	r1, #1542	; 0x606
    1734:	3b0b3a0e 	blcc	2cff74 <__bss_end__+0x2c3bec>
    1738:	0013490b 	andseq	r4, r3, fp, lsl #18
    173c:	012e0700 	teqeq	lr, r0, lsl #14
    1740:	0e03193f 	mcreq	9, 0, r1, cr3, cr15, {1}
    1744:	0b3b0b3a 	bleq	ec4434 <__bss_end__+0xeb80ac>
    1748:	01111927 	tsteq	r1, r7, lsr #18
    174c:	18400612 	stmdane	r0, {r1, r4, r9, sl}^
    1750:	01194297 			; <UNDEFINED> instruction: 0x01194297
    1754:	08000013 	stmdaeq	r0, {r0, r1, r4}
    1758:	08030005 	stmdaeq	r3, {r0, r2}
    175c:	0b3b0b3a 	bleq	ec444c <__bss_end__+0xeb80c4>
    1760:	17021349 	strne	r1, [r2, -r9, asr #6]
    1764:	34090000 	strcc	r0, [r9], #-0
    1768:	3a0e0300 	bcc	382370 <__bss_end__+0x375fe8>
    176c:	490b3b0b 	stmdbmi	fp, {r0, r1, r3, r8, r9, fp, ip, sp}
    1770:	00170213 	andseq	r0, r7, r3, lsl r2
    1774:	82890a00 	addhi	r0, r9, #0, 20
    1778:	01110101 	tsteq	r1, r1, lsl #2
    177c:	13011331 	movwne	r1, #4913	; 0x1331
    1780:	8a0b0000 	bhi	2c1788 <__bss_end__+0x2b5400>
    1784:	02000182 	andeq	r0, r0, #-2147483616	; 0x80000020
    1788:	18429118 	stmdane	r2, {r3, r4, r8, ip, pc}^
    178c:	890c0000 	stmdbhi	ip, {}	; <UNPREDICTABLE>
    1790:	11010182 	smlabbne	r1, r2, r1, r0
    1794:	00133101 	andseq	r3, r3, r1, lsl #2
    1798:	000f0d00 	andeq	r0, pc, r0, lsl #26
    179c:	13490b0b 	movtne	r0, #39691	; 0x9b0b
    17a0:	350e0000 	strcc	r0, [lr, #-0]
    17a4:	00134900 	andseq	r4, r3, r0, lsl #18
    17a8:	012e0f00 	teqeq	lr, r0, lsl #30
    17ac:	0e03193f 	mcreq	9, 0, r1, cr3, cr15, {1}
    17b0:	0b3b0b3a 	bleq	ec44a0 <__bss_end__+0xeb8118>
    17b4:	13491927 	movtne	r1, #39207	; 0x9927
    17b8:	06120111 			; <UNDEFINED> instruction: 0x06120111
    17bc:	42971840 	addsmi	r1, r7, #64, 16	; 0x400000
    17c0:	00130119 	andseq	r0, r3, r9, lsl r1
    17c4:	00341000 	eorseq	r1, r4, r0
    17c8:	0b3a0803 	bleq	e837dc <__bss_end__+0xe77454>
    17cc:	13490b3b 	movtne	r0, #39739	; 0x9b3b
    17d0:	00001702 	andeq	r1, r0, r2, lsl #14
    17d4:	01828911 	orreq	r8, r2, r1, lsl r9
    17d8:	31011100 	mrscc	r1, (UNDEF: 17)
    17dc:	12000013 	andne	r0, r0, #19
    17e0:	0e030005 	cdpeq	0, 0, cr0, cr3, cr5, {0}
    17e4:	0b3b0b3a 	bleq	ec44d4 <__bss_end__+0xeb814c>
    17e8:	17021349 	strne	r1, [r2, -r9, asr #6]
    17ec:	2e130000 	cdpcs	0, 1, cr0, cr3, cr0, {0}
    17f0:	03193f01 	tsteq	r9, #1, 30
    17f4:	3b0b3a0e 	blcc	2d0034 <__bss_end__+0x2c3cac>
    17f8:	49192705 	ldmdbmi	r9, {r0, r2, r8, r9, sl, sp}
    17fc:	12011113 	andne	r1, r1, #-1073741820	; 0xc0000004
    1800:	97184006 	ldrls	r4, [r8, -r6]
    1804:	13011942 	movwne	r1, #6466	; 0x1942
    1808:	05140000 	ldreq	r0, [r4, #-0]
    180c:	3a0e0300 	bcc	382414 <__bss_end__+0x37608c>
    1810:	49053b0b 	stmdbmi	r5, {r0, r1, r3, r8, r9, fp, ip, sp}
    1814:	00170213 	andseq	r0, r7, r3, lsl r2
    1818:	012e1500 	teqeq	lr, r0, lsl #10
    181c:	0e03193f 	mcreq	9, 0, r1, cr3, cr15, {1}
    1820:	053b0b3a 	ldreq	r0, [fp, #-2874]!	; 0xb3a
    1824:	01111927 	tsteq	r1, r7, lsr #18
    1828:	18400612 	stmdane	r0, {r1, r4, r9, sl}^
    182c:	01194297 			; <UNDEFINED> instruction: 0x01194297
    1830:	16000013 			; <UNDEFINED> instruction: 0x16000013
    1834:	08030005 	stmdaeq	r3, {r0, r2}
    1838:	053b0b3a 	ldreq	r0, [fp, #-2874]!	; 0xb3a
    183c:	17021349 	strne	r1, [r2, -r9, asr #6]
    1840:	34170000 	ldrcc	r0, [r7], #-0
    1844:	3a0e0300 	bcc	38244c <__bss_end__+0x3760c4>
    1848:	49053b0b 	stmdbmi	r5, {r0, r1, r3, r8, r9, fp, ip, sp}
    184c:	00170213 	andseq	r0, r7, r3, lsl r2
    1850:	010b1800 	tsteq	fp, r0, lsl #16
    1854:	06120111 			; <UNDEFINED> instruction: 0x06120111
    1858:	00001301 	andeq	r1, r0, r1, lsl #6
    185c:	03003419 	movweq	r3, #1049	; 0x419
    1860:	3b0b3a0e 	blcc	2d00a0 <__bss_end__+0x2c3d18>
    1864:	3f13490b 	svccc	0x0013490b
    1868:	00180219 	andseq	r0, r8, r9, lsl r2
    186c:	012e1a00 	teqeq	lr, r0, lsl #20
    1870:	0e03193f 	mcreq	9, 0, r1, cr3, cr15, {1}
    1874:	0b3b0b3a 	bleq	ec4564 <__bss_end__+0xeb81dc>
    1878:	13491927 	movtne	r1, #39207	; 0x9927
    187c:	1301193c 	movwne	r1, #6460	; 0x193c
    1880:	051b0000 	ldreq	r0, [fp, #-0]
    1884:	00134900 	andseq	r4, r3, r0, lsl #18
    1888:	00261c00 	eoreq	r1, r6, r0, lsl #24
    188c:	00001349 	andeq	r1, r0, r9, asr #6
    1890:	0000351d 	andeq	r3, r0, sp, lsl r5
    1894:	012e1e00 	teqeq	lr, r0, lsl #28
    1898:	0e03193f 	mcreq	9, 0, r1, cr3, cr15, {1}
    189c:	0b3b0b3a 	bleq	ec458c <__bss_end__+0xeb8204>
    18a0:	193c1927 	ldmdbne	ip!, {r0, r1, r2, r5, r8, fp, ip}
    18a4:	00001301 	andeq	r1, r0, r1, lsl #6
    18a8:	3f002e1f 	svccc	0x00002e1f
    18ac:	3a0e0319 	bcc	382518 <__bss_end__+0x376190>
    18b0:	270b3b0b 	strcs	r3, [fp, -fp, lsl #22]
    18b4:	00193c19 	andseq	r3, r9, r9, lsl ip
    18b8:	11010000 	mrsne	r0, (UNDEF: 1)
    18bc:	130e2501 	movwne	r2, #58625	; 0xe501
    18c0:	1b0e030b 	blne	3824f4 <__bss_end__+0x37616c>
    18c4:	1201110e 	andne	r1, r1, #-2147483645	; 0x80000003
    18c8:	00171006 	andseq	r1, r7, r6
    18cc:	00240200 	eoreq	r0, r4, r0, lsl #4
    18d0:	0b3e0b0b 	bleq	f84504 <__bss_end__+0xf7817c>
    18d4:	00000803 	andeq	r0, r0, r3, lsl #16
    18d8:	03001603 	movweq	r1, #1539	; 0x603
    18dc:	3b0b3a0e 	blcc	2d011c <__bss_end__+0x2c3d94>
    18e0:	0013490b 	andseq	r4, r3, fp, lsl #18
    18e4:	00240400 	eoreq	r0, r4, r0, lsl #8
    18e8:	0b3e0b0b 	bleq	f8451c <__bss_end__+0xf78194>
    18ec:	00000e03 	andeq	r0, r0, r3, lsl #28
    18f0:	0b000f05 	bleq	550c <_start-0x2af4>
    18f4:	0600000b 	streq	r0, [r0], -fp
    18f8:	0b0b0113 	bleq	2c1d4c <__bss_end__+0x2b59c4>
    18fc:	0b3b0b3a 	bleq	ec45ec <__bss_end__+0xeb8264>
    1900:	00001301 	andeq	r1, r0, r1, lsl #6
    1904:	03000d07 	movweq	r0, #3335	; 0xd07
    1908:	3b0b3a08 	blcc	2d0130 <__bss_end__+0x2c3da8>
    190c:	3813490b 	ldmdacc	r3, {r0, r1, r3, r8, fp, lr}
    1910:	0800000b 	stmdaeq	r0, {r0, r1, r3}
    1914:	0e03000d 	cdpeq	0, 0, cr0, cr3, cr13, {0}
    1918:	0b3b0b3a 	bleq	ec4608 <__bss_end__+0xeb8280>
    191c:	0b381349 	bleq	e06648 <__bss_end__+0xdfa2c0>
    1920:	04090000 	streq	r0, [r9], #-0
    1924:	3a0b0b01 	bcc	2c4530 <__bss_end__+0x2b81a8>
    1928:	010b3b0b 	tsteq	fp, fp, lsl #22
    192c:	0a000013 	beq	1980 <_start-0x6680>
    1930:	0e030028 	cdpeq	0, 0, cr0, cr3, cr8, {1}
    1934:	00000d1c 	andeq	r0, r0, ip, lsl sp
    1938:	3f012e0b 	svccc	0x00012e0b
    193c:	3a0e0319 	bcc	3825a8 <__bss_end__+0x376220>
    1940:	270b3b0b 	strcs	r3, [fp, -fp, lsl #22]
    1944:	11134919 	tstne	r3, r9, lsl r9
    1948:	40061201 	andmi	r1, r6, r1, lsl #4
    194c:	19429718 	stmdbne	r2, {r3, r4, r8, r9, sl, ip, pc}^
    1950:	00001301 	andeq	r1, r0, r1, lsl #6
    1954:	0300340c 	movweq	r3, #1036	; 0x40c
    1958:	3b0b3a08 	blcc	2d0180 <__bss_end__+0x2c3df8>
    195c:	1c13490b 	ldcne	9, cr4, [r3], {11}
    1960:	0d000006 	stceq	0, cr0, [r0, #-24]	; 0xffffffe8
    1964:	01018289 	smlabbeq	r1, r9, r2, r8
    1968:	13310111 	teqne	r1, #1073741828	; 0x40000004
    196c:	8a0e0000 	bhi	381974 <__bss_end__+0x3755ec>
    1970:	02000182 	andeq	r0, r0, #-2147483616	; 0x80000020
    1974:	18429118 	stmdane	r2, {r3, r4, r8, ip, pc}^
    1978:	0f0f0000 	svceq	0x000f0000
    197c:	490b0b00 	stmdbmi	fp, {r8, r9, fp}
    1980:	10000013 	andne	r0, r0, r3, lsl r0
    1984:	193f012e 	ldmdbne	pc!, {r1, r2, r3, r5, r8}	; <UNPREDICTABLE>
    1988:	0b3a0e03 	bleq	e8519c <__bss_end__+0xe78e14>
    198c:	19270b3b 	stmdbne	r7!, {r0, r1, r3, r4, r5, r8, r9, fp}
    1990:	193c1349 	ldmdbne	ip!, {r0, r3, r6, r8, r9, ip}
    1994:	05110000 	ldreq	r0, [r1, #-0]
    1998:	00134900 	andseq	r4, r3, r0, lsl #18
    199c:	11010000 	mrsne	r0, (UNDEF: 1)
    19a0:	130e2501 	movwne	r2, #58625	; 0xe501
    19a4:	1b0e030b 	blne	3825d8 <__bss_end__+0x376250>
    19a8:	1201110e 	andne	r1, r1, #-2147483645	; 0x80000003
    19ac:	00171006 	andseq	r1, r7, r6
    19b0:	00240200 	eoreq	r0, r4, r0, lsl #4
    19b4:	0b3e0b0b 	bleq	f845e8 <__bss_end__+0xf78260>
    19b8:	00000803 	andeq	r0, r0, r3, lsl #16
    19bc:	0b002403 	bleq	a9d0 <gpio_set_input+0x8>
    19c0:	030b3e0b 	movweq	r3, #48651	; 0xbe0b
    19c4:	0400000e 	streq	r0, [r0], #-14
    19c8:	0b0b000f 	bleq	2c1a0c <__bss_end__+0x2b5684>
    19cc:	00001349 	andeq	r1, r0, r9, asr #6
    19d0:	49002605 	stmdbmi	r0, {r0, r2, r9, sl, sp}
    19d4:	06000013 			; <UNDEFINED> instruction: 0x06000013
    19d8:	193f012e 	ldmdbne	pc!, {r1, r2, r3, r5, r8}	; <UNPREDICTABLE>
    19dc:	0b3a0e03 	bleq	e851f0 <__bss_end__+0xe78e68>
    19e0:	19270b3b 	stmdbne	r7!, {r0, r1, r3, r4, r5, r8, r9, fp}
    19e4:	06120111 			; <UNDEFINED> instruction: 0x06120111
    19e8:	42971840 	addsmi	r1, r7, #64, 16	; 0x400000
    19ec:	00130119 	andseq	r0, r3, r9, lsl r1
    19f0:	00050700 	andeq	r0, r5, r0, lsl #14
    19f4:	0b3a0803 	bleq	e83a08 <__bss_end__+0xe77680>
    19f8:	13490b3b 	movtne	r0, #39739	; 0x9b3b
    19fc:	00001702 	andeq	r1, r0, r2, lsl #14
    1a00:	03003408 	movweq	r3, #1032	; 0x408
    1a04:	3413490e 	ldrcc	r4, [r3], #-2318	; 0x90e
    1a08:	00180219 	andseq	r0, r8, r9, lsl r2
    1a0c:	82890900 	addhi	r0, r9, #0, 18
    1a10:	01110001 	tsteq	r1, r1
    1a14:	00001331 	andeq	r1, r0, r1, lsr r3
    1a18:	0182890a 	orreq	r8, r2, sl, lsl #18
    1a1c:	31011101 	tstcc	r1, r1, lsl #2
    1a20:	00130113 	andseq	r0, r3, r3, lsl r1
    1a24:	828a0b00 	addhi	r0, sl, #0, 22
    1a28:	18020001 	stmdane	r2, {r0}
    1a2c:	00184291 	mulseq	r8, r1, r2
    1a30:	01010c00 	tsteq	r1, r0, lsl #24
    1a34:	13011349 	movwne	r1, #4937	; 0x1349
    1a38:	210d0000 	mrscs	r0, (UNDEF: 13)
    1a3c:	2f134900 	svccs	0x00134900
    1a40:	0e00000b 	cdpeq	0, 0, cr0, cr0, cr11, {0}
    1a44:	193f002e 	ldmdbne	pc!, {r1, r2, r3, r5}	; <UNPREDICTABLE>
    1a48:	0b3a0e03 	bleq	e8525c <__bss_end__+0xe78ed4>
    1a4c:	19270b3b 	stmdbne	r7!, {r0, r1, r3, r4, r5, r8, r9, fp}
    1a50:	0000193c 	andeq	r1, r0, ip, lsr r9
    1a54:	3f012e0f 	svccc	0x00012e0f
    1a58:	3a0e0319 	bcc	3826c4 <__bss_end__+0x37633c>
    1a5c:	270b3b0b 	strcs	r3, [fp, -fp, lsl #22]
    1a60:	3c134919 	ldccc	9, cr4, [r3], {25}
    1a64:	00130119 	andseq	r0, r3, r9, lsl r1
    1a68:	00051000 	andeq	r1, r5, r0
    1a6c:	00001349 	andeq	r1, r0, r9, asr #6
    1a70:	00001811 	andeq	r1, r0, r1, lsl r8
    1a74:	11010000 	mrsne	r0, (UNDEF: 1)
    1a78:	130e2501 	movwne	r2, #58625	; 0xe501
    1a7c:	1b0e030b 	blne	3826b0 <__bss_end__+0x376328>
    1a80:	1201110e 	andne	r1, r1, #-2147483645	; 0x80000003
    1a84:	00171006 	andseq	r1, r7, r6
    1a88:	00240200 	eoreq	r0, r4, r0, lsl #4
    1a8c:	0b3e0b0b 	bleq	f846c0 <__bss_end__+0xf78338>
    1a90:	00000803 	andeq	r0, r0, r3, lsl #16
    1a94:	0b002403 	bleq	aaa8 <gpio_read+0x14>
    1a98:	030b3e0b 	movweq	r3, #48651	; 0xbe0b
    1a9c:	0400000e 	streq	r0, [r0], #-14
    1aa0:	0b0b000f 	bleq	2c1ae4 <__bss_end__+0x2b575c>
    1aa4:	00001349 	andeq	r1, r0, r9, asr #6
    1aa8:	49002605 	stmdbmi	r0, {r0, r2, r9, sl, sp}
    1aac:	06000013 			; <UNDEFINED> instruction: 0x06000013
    1ab0:	193f012e 	ldmdbne	pc!, {r1, r2, r3, r5, r8}	; <UNPREDICTABLE>
    1ab4:	0b3a0e03 	bleq	e852c8 <__bss_end__+0xe78f40>
    1ab8:	19270b3b 	stmdbne	r7!, {r0, r1, r3, r4, r5, r8, r9, fp}
    1abc:	06120111 			; <UNDEFINED> instruction: 0x06120111
    1ac0:	42971840 	addsmi	r1, r7, #64, 16	; 0x400000
    1ac4:	00130119 	andseq	r0, r3, r9, lsl r1
    1ac8:	00050700 	andeq	r0, r5, r0, lsl #14
    1acc:	0b3a0803 	bleq	e83ae0 <__bss_end__+0xe77758>
    1ad0:	13490b3b 	movtne	r0, #39739	; 0x9b3b
    1ad4:	00001702 	andeq	r1, r0, r2, lsl #14
    1ad8:	03003408 	movweq	r3, #1032	; 0x408
    1adc:	3413490e 	ldrcc	r4, [r3], #-2318	; 0x90e
    1ae0:	00180219 	andseq	r0, r8, r9, lsl r2
    1ae4:	82890900 	addhi	r0, r9, #0, 18
    1ae8:	01110001 	tsteq	r1, r1
    1aec:	00001331 	andeq	r1, r0, r1, lsr r3
    1af0:	0182890a 	orreq	r8, r2, sl, lsl #18
    1af4:	31011101 	tstcc	r1, r1, lsl #2
    1af8:	00130113 	andseq	r0, r3, r3, lsl r1
    1afc:	828a0b00 	addhi	r0, sl, #0, 22
    1b00:	18020001 	stmdane	r2, {r0}
    1b04:	00184291 	mulseq	r8, r1, r2
    1b08:	01010c00 	tsteq	r1, r0, lsl #24
    1b0c:	13011349 	movwne	r1, #4937	; 0x1349
    1b10:	210d0000 	mrscs	r0, (UNDEF: 13)
    1b14:	2f134900 	svccs	0x00134900
    1b18:	0e00000b 	cdpeq	0, 0, cr0, cr0, cr11, {0}
    1b1c:	193f002e 	ldmdbne	pc!, {r1, r2, r3, r5}	; <UNPREDICTABLE>
    1b20:	0b3a0e03 	bleq	e85334 <__bss_end__+0xe78fac>
    1b24:	19270b3b 	stmdbne	r7!, {r0, r1, r3, r4, r5, r8, r9, fp}
    1b28:	0000193c 	andeq	r1, r0, ip, lsr r9
    1b2c:	3f012e0f 	svccc	0x00012e0f
    1b30:	3a0e0319 	bcc	38279c <__bss_end__+0x376414>
    1b34:	270b3b0b 	strcs	r3, [fp, -fp, lsl #22]
    1b38:	3c134919 	ldccc	9, cr4, [r3], {25}
    1b3c:	00130119 	andseq	r0, r3, r9, lsl r1
    1b40:	00051000 	andeq	r1, r5, r0
    1b44:	00001349 	andeq	r1, r0, r9, asr #6
    1b48:	00001811 	andeq	r1, r0, r1, lsl r8
	...

Disassembly of section .debug_loc:

00000000 <.debug_loc>:
       0:	00000000 	andeq	r0, r0, r0
       4:	00000017 	andeq	r0, r0, r7, lsl r0
       8:	17500001 	ldrbne	r0, [r0, -r1]
       c:	30000000 	andcc	r0, r0, r0
      10:	01000000 	mrseq	r0, (UNDEF: 0)
      14:	00305400 	eorseq	r5, r0, r0, lsl #8
      18:	00330000 	eorseq	r0, r3, r0
      1c:	00010000 	andeq	r0, r1, r0
      20:	00003350 	andeq	r3, r0, r0, asr r3
      24:	00005c00 	andeq	r5, r0, r0, lsl #24
      28:	54000100 	strpl	r0, [r0], #-256	; 0x100
	...
      38:	00000017 	andeq	r0, r0, r7, lsl r0
      3c:	17510001 	ldrbne	r0, [r1, -r1]
      40:	30000000 	andcc	r0, r0, r0
      44:	01000000 	mrseq	r0, (UNDEF: 0)
      48:	00305500 	eorseq	r5, r0, r0, lsl #10
      4c:	00330000 	eorseq	r0, r3, r0
      50:	00010000 	andeq	r0, r1, r0
      54:	00003351 	andeq	r3, r0, r1, asr r3
      58:	00005c00 	andeq	r5, r0, r0, lsl #24
      5c:	55000100 	strpl	r0, [r0, #-256]	; 0x100
	...
      6c:	00000017 	andeq	r0, r0, r7, lsl r0
      70:	17520001 	ldrbne	r0, [r2, -r1]
      74:	30000000 	andcc	r0, r0, r0
      78:	04000000 	streq	r0, [r0], #-0
      7c:	5201f300 	andpl	pc, r1, #0, 6
      80:	0000309f 	muleq	r0, pc, r0	; <UNPREDICTABLE>
      84:	00003300 	andeq	r3, r0, r0, lsl #6
      88:	52000100 	andpl	r0, r0, #0, 2
      8c:	00000033 	andeq	r0, r0, r3, lsr r0
      90:	0000005c 	andeq	r0, r0, ip, asr r0
      94:	01f30004 	mvnseq	r0, r4
      98:	00009f52 	andeq	r9, r0, r2, asr pc
      9c:	00000000 	andeq	r0, r0, r0
      a0:	00340000 	eorseq	r0, r4, r0
      a4:	00440000 	subeq	r0, r4, r0
      a8:	00010000 	andeq	r0, r1, r0
      ac:	00000050 	andeq	r0, r0, r0, asr r0
      b0:	00000000 	andeq	r0, r0, r0
      b4:	00005c00 	andeq	r5, r0, r0, lsl #24
      b8:	00007300 	andeq	r7, r0, r0, lsl #6
      bc:	50000100 	andpl	r0, r0, r0, lsl #2
      c0:	00000073 	andeq	r0, r0, r3, ror r0
      c4:	0000008c 	andeq	r0, r0, ip, lsl #1
      c8:	8c540001 	mrrchi	0, 0, r0, r4, cr1
      cc:	8f000000 	svchi	0x00000000
      d0:	01000000 	mrseq	r0, (UNDEF: 0)
      d4:	008f5000 	addeq	r5, pc, r0
      d8:	00b80000 	adcseq	r0, r8, r0
      dc:	00010000 	andeq	r0, r1, r0
      e0:	00000054 	andeq	r0, r0, r4, asr r0
      e4:	00000000 	andeq	r0, r0, r0
      e8:	00005c00 	andeq	r5, r0, r0, lsl #24
      ec:	00007300 	andeq	r7, r0, r0, lsl #6
      f0:	51000100 	mrspl	r0, (UNDEF: 16)
      f4:	00000073 	andeq	r0, r0, r3, ror r0
      f8:	0000008c 	andeq	r0, r0, ip, lsl #1
      fc:	8c550001 	mrrchi	0, 0, r0, r5, cr1
     100:	8f000000 	svchi	0x00000000
     104:	01000000 	mrseq	r0, (UNDEF: 0)
     108:	008f5100 	addeq	r5, pc, r0, lsl #2
     10c:	00b80000 	adcseq	r0, r8, r0
     110:	00010000 	andeq	r0, r1, r0
     114:	00000055 	andeq	r0, r0, r5, asr r0
     118:	00000000 	andeq	r0, r0, r0
     11c:	00005c00 	andeq	r5, r0, r0, lsl #24
     120:	00007300 	andeq	r7, r0, r0, lsl #6
     124:	52000100 	andpl	r0, r0, #0, 2
     128:	00000073 	andeq	r0, r0, r3, ror r0
     12c:	0000008c 	andeq	r0, r0, ip, lsl #1
     130:	01f30004 	mvnseq	r0, r4
     134:	008c9f52 	addeq	r9, ip, r2, asr pc
     138:	008f0000 	addeq	r0, pc, r0
     13c:	00010000 	andeq	r0, r1, r0
     140:	00008f52 	andeq	r8, r0, r2, asr pc
     144:	0000b800 	andeq	fp, r0, r0, lsl #16
     148:	f3000400 	vshl.u8	d0, d0, d0
     14c:	009f5201 	addseq	r5, pc, r1, lsl #4
     150:	00000000 	andeq	r0, r0, r0
     154:	90000000 	andls	r0, r0, r0
     158:	a0000000 	andge	r0, r0, r0
     15c:	01000000 	mrseq	r0, (UNDEF: 0)
     160:	00005000 	andeq	r5, r0, r0
     164:	00000000 	andeq	r0, r0, r0
     168:	00e00000 	rsceq	r0, r0, r0
     16c:	00e70000 	rsceq	r0, r7, r0
     170:	00010000 	andeq	r0, r1, r0
     174:	0000e750 	andeq	lr, r0, r0, asr r7
     178:	00010c00 	andeq	r0, r1, r0, lsl #24
     17c:	f3000400 	vshl.u8	d0, d0, d0
     180:	009f5001 	addseq	r5, pc, r1
     184:	00000000 	andeq	r0, r0, r0
     188:	e0000000 	and	r0, r0, r0
     18c:	e7000000 	str	r0, [r0, -r0]
     190:	01000000 	mrseq	r0, (UNDEF: 0)
     194:	00e75100 	rsceq	r5, r7, r0, lsl #2
     198:	010c0000 	mrseq	r0, (UNDEF: 12)
     19c:	00040000 	andeq	r0, r4, r0
     1a0:	9f5101f3 	svcls	0x005101f3
	...
     1ac:	0000010c 	andeq	r0, r0, ip, lsl #2
     1b0:	00000118 	andeq	r0, r0, r8, lsl r1
     1b4:	18500001 	ldmdane	r0, {r0}^
     1b8:	50000001 	andpl	r0, r0, r1
     1bc:	04000001 	streq	r0, [r0], #-1
     1c0:	5001f300 	andpl	pc, r1, r0, lsl #6
     1c4:	0000009f 	muleq	r0, pc, r0	; <UNPREDICTABLE>
     1c8:	00000000 	andeq	r0, r0, r0
     1cc:	00010c00 	andeq	r0, r1, r0, lsl #24
     1d0:	00011400 	andeq	r1, r1, r0, lsl #8
     1d4:	51000100 	mrspl	r0, (UNDEF: 16)
     1d8:	00000114 	andeq	r0, r0, r4, lsl r1
     1dc:	00000150 	andeq	r0, r0, r0, asr r1
     1e0:	01f30004 	mvnseq	r0, r4
     1e4:	00009f51 	andeq	r9, r0, r1, asr pc
     1e8:	00000000 	andeq	r0, r0, r0
     1ec:	010c0000 	mrseq	r0, (UNDEF: 12)
     1f0:	014b0000 	mrseq	r0, (UNDEF: 75)
     1f4:	00010000 	andeq	r0, r1, r0
     1f8:	00014b52 	andeq	r4, r1, r2, asr fp
     1fc:	00015000 	andeq	r5, r1, r0
     200:	f3000400 	vshl.u8	d0, d0, d0
     204:	009f5201 	addseq	r5, pc, r1, lsl #4
     208:	00000000 	andeq	r0, r0, r0
     20c:	0c000000 	stceq	0, cr0, [r0], {-0}
     210:	20000001 	andcs	r0, r0, r1
     214:	01000001 	tsteq	r0, r1
     218:	01205300 	teqeq	r0, r0, lsl #6
     21c:	01500000 	cmpeq	r0, r0
     220:	00040000 	andeq	r0, r4, r0
     224:	9f5301f3 	svcls	0x005301f3
	...
     230:	00000118 	andeq	r0, r0, r8, lsl r1
     234:	0000014b 	andeq	r0, r0, fp, asr #2
     238:	4b500001 	blmi	1400244 <__bss_end__+0x13f3ebc>
     23c:	50000001 	andpl	r0, r0, r1
     240:	0c000001 	stceq	0, cr0, [r0], {1}
     244:	5101f300 	mrspl	pc, SP_irq	; <UNPREDICTABLE>
     248:	24322544 	ldrtcs	r2, [r2], #-1348	; 0x544
     24c:	225001f3 	subscs	r0, r0, #-1073741764	; 0xc000003c
     250:	0000009f 	muleq	r0, pc, r0	; <UNPREDICTABLE>
     254:	00000000 	andeq	r0, r0, r0
     258:	00011800 	andeq	r1, r1, r0, lsl #16
     25c:	00012800 	andeq	r2, r1, r0, lsl #16
     260:	30000200 	andcc	r0, r0, r0, lsl #4
     264:	0001289f 	muleq	r1, pc, r8	; <UNPREDICTABLE>
     268:	00014b00 	andeq	r4, r1, r0, lsl #22
     26c:	51000100 	mrspl	r0, (UNDEF: 16)
	...
     278:	00000150 	andeq	r0, r0, r0, asr r1
     27c:	0000015b 	andeq	r0, r0, fp, asr r1
     280:	5b500001 	blpl	140028c <__bss_end__+0x13f3f04>
     284:	60000001 	andvs	r0, r0, r1
     288:	04000001 	streq	r0, [r0], #-1
     28c:	5001f300 	andpl	pc, r1, r0, lsl #6
     290:	0000009f 	muleq	r0, pc, r0	; <UNPREDICTABLE>
     294:	00000000 	andeq	r0, r0, r0
     298:	00015000 	andeq	r5, r1, r0
     29c:	00015b00 	andeq	r5, r1, r0, lsl #22
     2a0:	51000100 	mrspl	r0, (UNDEF: 16)
     2a4:	0000015b 	andeq	r0, r0, fp, asr r1
     2a8:	00000160 	andeq	r0, r0, r0, ror #2
     2ac:	01f30004 	mvnseq	r0, r4
     2b0:	00009f51 	andeq	r9, r0, r1, asr pc
     2b4:	00000000 	andeq	r0, r0, r0
     2b8:	01500000 	cmpeq	r0, r0
     2bc:	015b0000 	cmpeq	fp, r0
     2c0:	00010000 	andeq	r0, r1, r0
     2c4:	00015b52 	andeq	r5, r1, r2, asr fp
     2c8:	00016000 	andeq	r6, r1, r0
     2cc:	f3000400 	vshl.u8	d0, d0, d0
     2d0:	009f5201 	addseq	r5, pc, r1, lsl #4
     2d4:	00000000 	andeq	r0, r0, r0
     2d8:	60000000 	andvs	r0, r0, r0
     2dc:	6b000001 	blvs	2e8 <_start-0x7d18>
     2e0:	01000001 	tsteq	r0, r1
     2e4:	016b5000 	cmneq	fp, r0
     2e8:	01700000 	cmneq	r0, r0
     2ec:	00040000 	andeq	r0, r4, r0
     2f0:	9f5001f3 	svcls	0x005001f3
	...
     2fc:	00000160 	andeq	r0, r0, r0, ror #2
     300:	0000016b 	andeq	r0, r0, fp, ror #2
     304:	6b510001 	blvs	1440310 <__bss_end__+0x1433f88>
     308:	70000001 	andvc	r0, r0, r1
     30c:	04000001 	streq	r0, [r0], #-1
     310:	5101f300 	mrspl	pc, SP_irq	; <UNPREDICTABLE>
     314:	0000009f 	muleq	r0, pc, r0	; <UNPREDICTABLE>
     318:	00000000 	andeq	r0, r0, r0
     31c:	00016000 	andeq	r6, r1, r0
     320:	00016b00 	andeq	r6, r1, r0, lsl #22
     324:	52000100 	andpl	r0, r0, #0, 2
     328:	0000016b 	andeq	r0, r0, fp, ror #2
     32c:	00000170 	andeq	r0, r0, r0, ror r1
     330:	01f30004 	mvnseq	r0, r4
     334:	00009f52 	andeq	r9, r0, r2, asr pc
     338:	00000000 	andeq	r0, r0, r0
     33c:	01700000 	cmneq	r0, r0
     340:	017b0000 	cmneq	fp, r0
     344:	00010000 	andeq	r0, r1, r0
     348:	00017b50 	andeq	r7, r1, r0, asr fp
     34c:	00018000 	andeq	r8, r1, r0
     350:	f3000400 	vshl.u8	d0, d0, d0
     354:	009f5001 	addseq	r5, pc, r1
     358:	00000000 	andeq	r0, r0, r0
     35c:	70000000 	andvc	r0, r0, r0
     360:	7b000001 	blvc	36c <_start-0x7c94>
     364:	01000001 	tsteq	r0, r1
     368:	017b5100 	cmneq	fp, r0, lsl #2
     36c:	01800000 	orreq	r0, r0, r0
     370:	00040000 	andeq	r0, r4, r0
     374:	9f5101f3 	svcls	0x005101f3
	...
     380:	00000170 	andeq	r0, r0, r0, ror r1
     384:	0000017b 	andeq	r0, r0, fp, ror r1
     388:	7b520001 	blvc	1480394 <__bss_end__+0x147400c>
     38c:	80000001 	andhi	r0, r0, r1
     390:	04000001 	streq	r0, [r0], #-1
     394:	5201f300 	andpl	pc, r1, #0, 6
     398:	0000009f 	muleq	r0, pc, r0	; <UNPREDICTABLE>
     39c:	00000000 	andeq	r0, r0, r0
     3a0:	00018000 	andeq	r8, r1, r0
     3a4:	00019b00 	andeq	r9, r1, r0, lsl #22
     3a8:	50000100 	andpl	r0, r0, r0, lsl #2
     3ac:	0000019b 	muleq	r0, fp, r1
     3b0:	000001b4 			; <UNDEFINED> instruction: 0x000001b4
     3b4:	b4540001 	ldrblt	r0, [r4], #-1
     3b8:	bf000001 	svclt	0x00000001
     3bc:	01000001 	tsteq	r0, r1
     3c0:	01bf5000 			; <UNDEFINED> instruction: 0x01bf5000
     3c4:	01d80000 	bicseq	r0, r8, r0
     3c8:	00010000 	andeq	r0, r1, r0
     3cc:	0001d854 	andeq	sp, r1, r4, asr r8
     3d0:	0001db00 	andeq	sp, r1, r0, lsl #22
     3d4:	50000100 	andpl	r0, r0, r0, lsl #2
     3d8:	000001db 	ldrdeq	r0, [r0], -fp
     3dc:	00000250 	andeq	r0, r0, r0, asr r2
     3e0:	00540001 	subseq	r0, r4, r1
     3e4:	00000000 	andeq	r0, r0, r0
     3e8:	80000000 	andhi	r0, r0, r0
     3ec:	9b000001 	blls	3f8 <_start-0x7c08>
     3f0:	01000001 	tsteq	r0, r1
     3f4:	019b5100 	orrseq	r5, fp, r0, lsl #2
     3f8:	01b40000 			; <UNDEFINED> instruction: 0x01b40000
     3fc:	00010000 	andeq	r0, r1, r0
     400:	0001b456 	andeq	fp, r1, r6, asr r4
     404:	0001bf00 	andeq	fp, r1, r0, lsl #30
     408:	51000100 	mrspl	r0, (UNDEF: 16)
     40c:	000001bf 			; <UNDEFINED> instruction: 0x000001bf
     410:	000001d8 	ldrdeq	r0, [r0], -r8
     414:	d8560001 	ldmdale	r6, {r0}^
     418:	db000001 	blle	424 <_start-0x7bdc>
     41c:	01000001 	tsteq	r0, r1
     420:	01db5100 	bicseq	r5, fp, r0, lsl #2
     424:	01fc0000 	mvnseq	r0, r0
     428:	00010000 	andeq	r0, r1, r0
     42c:	0001fc56 	andeq	pc, r1, r6, asr ip	; <UNPREDICTABLE>
     430:	00025000 	andeq	r5, r2, r0
     434:	f3000400 	vshl.u8	d0, d0, d0
     438:	009f5101 	addseq	r5, pc, r1, lsl #2
     43c:	00000000 	andeq	r0, r0, r0
     440:	80000000 	andhi	r0, r0, r0
     444:	9b000001 	blls	450 <_start-0x7bb0>
     448:	01000001 	tsteq	r0, r1
     44c:	019b5200 	orrseq	r5, fp, r0, lsl #4
     450:	01b40000 			; <UNDEFINED> instruction: 0x01b40000
     454:	00010000 	andeq	r0, r1, r0
     458:	0001b455 	andeq	fp, r1, r5, asr r4
     45c:	0001bf00 	andeq	fp, r1, r0, lsl #30
     460:	52000100 	andpl	r0, r0, #0, 2
     464:	000001bf 			; <UNDEFINED> instruction: 0x000001bf
     468:	000001d8 	ldrdeq	r0, [r0], -r8
     46c:	d8550001 	ldmdale	r5, {r0}^
     470:	db000001 	blle	47c <_start-0x7b84>
     474:	01000001 	tsteq	r0, r1
     478:	01db5200 	bicseq	r5, fp, r0, lsl #4
     47c:	02000000 	andeq	r0, r0, #0
     480:	00010000 	andeq	r0, r1, r0
     484:	00020055 	andeq	r0, r2, r5, asr r0
     488:	00025000 	andeq	r5, r2, r0
     48c:	f3000400 	vshl.u8	d0, d0, d0
     490:	009f5201 	addseq	r5, pc, r1, lsl #4
     494:	00000000 	andeq	r0, r0, r0
     498:	04000000 	streq	r0, [r0], #-0
     49c:	07000002 	streq	r0, [r0, -r2]
     4a0:	01000002 	tsteq	r0, r2
     4a4:	00005300 	andeq	r5, r0, r0, lsl #6
     4a8:	00000000 	andeq	r0, r0, r0
     4ac:	02500000 	subseq	r0, r0, #0
     4b0:	026f0000 	rsbeq	r0, pc, #0
     4b4:	00010000 	andeq	r0, r1, r0
     4b8:	00026f50 	andeq	r6, r2, r0, asr pc
     4bc:	00028800 	andeq	r8, r2, r0, lsl #16
     4c0:	58000100 	stmdapl	r0, {r8}
     4c4:	00000288 	andeq	r0, r0, r8, lsl #5
     4c8:	00000293 	muleq	r0, r3, r2
     4cc:	93500001 	cmpls	r0, #1
     4d0:	cc000002 	stcgt	0, cr0, [r0], {2}
     4d4:	01000002 	tsteq	r0, r2
     4d8:	02cc5800 	sbceq	r5, ip, #0, 16
     4dc:	02d00000 	sbcseq	r0, r0, #0
     4e0:	00010000 	andeq	r0, r1, r0
     4e4:	0002d050 	andeq	sp, r2, r0, asr r0
     4e8:	0002ec00 	andeq	lr, r2, r0, lsl #24
     4ec:	58000100 	stmdapl	r0, {r8}
	...
     4f8:	00000250 	andeq	r0, r0, r0, asr r2
     4fc:	0000026f 	andeq	r0, r0, pc, ror #4
     500:	6f510001 	svcvs	0x00510001
     504:	88000002 	stmdahi	r0, {r1}
     508:	01000002 	tsteq	r0, r2
     50c:	02885500 	addeq	r5, r8, #0, 10
     510:	02930000 	addseq	r0, r3, #0
     514:	00010000 	andeq	r0, r1, r0
     518:	00029351 	andeq	r9, r2, r1, asr r3
     51c:	0002cc00 	andeq	ip, r2, r0, lsl #24
     520:	55000100 	strpl	r0, [r0, #-256]	; 0x100
     524:	000002cc 	andeq	r0, r0, ip, asr #5
     528:	000002d0 	ldrdeq	r0, [r0], -r0	; <UNPREDICTABLE>
     52c:	d0510001 	subsle	r0, r1, r1
     530:	ec000002 	stc	0, cr0, [r0], {2}
     534:	01000002 	tsteq	r0, r2
     538:	00005500 	andeq	r5, r0, r0, lsl #10
     53c:	00000000 	andeq	r0, r0, r0
     540:	02500000 	subseq	r0, r0, #0
     544:	026f0000 	rsbeq	r0, pc, #0
     548:	00010000 	andeq	r0, r1, r0
     54c:	00026f52 	andeq	r6, r2, r2, asr pc
     550:	00028800 	andeq	r8, r2, r0, lsl #16
     554:	56000100 	strpl	r0, [r0], -r0, lsl #2
     558:	00000288 	andeq	r0, r0, r8, lsl #5
     55c:	00000293 	muleq	r0, r3, r2
     560:	93520001 	cmpls	r2, #1
     564:	cc000002 	stcgt	0, cr0, [r0], {2}
     568:	01000002 	tsteq	r0, r2
     56c:	02cc5600 	sbceq	r5, ip, #0, 12
     570:	02d00000 	sbcseq	r0, r0, #0
     574:	00010000 	andeq	r0, r1, r0
     578:	0002d052 	andeq	sp, r2, r2, asr r0
     57c:	0002ec00 	andeq	lr, r2, r0, lsl #24
     580:	56000100 	strpl	r0, [r0], -r0, lsl #2
	...
     58c:	00000250 	andeq	r0, r0, r0, asr r2
     590:	0000026f 	andeq	r0, r0, pc, ror #4
     594:	6f530001 	svcvs	0x00530001
     598:	88000002 	stmdahi	r0, {r1}
     59c:	01000002 	tsteq	r0, r2
     5a0:	02885700 	addeq	r5, r8, #0, 14
     5a4:	02930000 	addseq	r0, r3, #0
     5a8:	00010000 	andeq	r0, r1, r0
     5ac:	00029353 	andeq	r9, r2, r3, asr r3
     5b0:	0002cc00 	andeq	ip, r2, r0, lsl #24
     5b4:	57000100 	strpl	r0, [r0, -r0, lsl #2]
     5b8:	000002cc 	andeq	r0, r0, ip, asr #5
     5bc:	000002d0 	ldrdeq	r0, [r0], -r0	; <UNPREDICTABLE>
     5c0:	d0530001 	subsle	r0, r3, r1
     5c4:	ec000002 	stc	0, cr0, [r0], {2}
     5c8:	01000002 	tsteq	r0, r2
     5cc:	00005700 	andeq	r5, r0, r0, lsl #14
     5d0:	00000000 	andeq	r0, r0, r0
     5d4:	02ac0000 	adceq	r0, ip, #0
     5d8:	02cc0000 	sbceq	r0, ip, #0
     5dc:	00010000 	andeq	r0, r1, r0
     5e0:	0002d054 	andeq	sp, r2, r4, asr r0
     5e4:	0002ec00 	andeq	lr, r2, r0, lsl #24
     5e8:	54000100 	strpl	r0, [r0], #-256	; 0x100
	...
     5f4:	000002ec 	andeq	r0, r0, ip, ror #5
     5f8:	000002ff 	strdeq	r0, [r0], -pc	; <UNPREDICTABLE>
     5fc:	ff500001 			; <UNDEFINED> instruction: 0xff500001
     600:	18000002 	stmdane	r0, {r1}
     604:	01000003 	tsteq	r0, r3
     608:	03185400 	tsteq	r8, #0, 8
     60c:	03230000 	teqeq	r3, #0
     610:	00010000 	andeq	r0, r1, r0
     614:	00032350 	andeq	r2, r3, r0, asr r3
     618:	00034400 	andeq	r4, r3, r0, lsl #8
     61c:	54000100 	strpl	r0, [r0], #-256	; 0x100
	...
     628:	00000318 	andeq	r0, r0, r8, lsl r3
     62c:	00000323 	andeq	r0, r0, r3, lsr #6
     630:	23500001 	cmpcs	r0, #1
     634:	44000003 	strmi	r0, [r0], #-3
     638:	01000003 	tsteq	r0, r3
     63c:	00005400 	andeq	r5, r0, r0, lsl #8
     640:	00000000 	andeq	r0, r0, r0
     644:	03580000 	cmpeq	r8, #0
     648:	035f0000 	cmpeq	pc, #0
     64c:	00010000 	andeq	r0, r1, r0
     650:	00035f50 	andeq	r5, r3, r0, asr pc
     654:	00038800 	andeq	r8, r3, r0, lsl #16
     658:	f3000400 	vshl.u8	d0, d0, d0
     65c:	009f5001 	addseq	r5, pc, r1
     660:	00000000 	andeq	r0, r0, r0
     664:	88000000 	stmdahi	r0, {}	; <UNPREDICTABLE>
     668:	98000003 	stmdals	r0, {r0, r1}
     66c:	01000003 	tsteq	r0, r3
     670:	03985000 	orrseq	r5, r8, #0
     674:	04f00000 	ldrbteq	r0, [r0], #0
     678:	00040000 	andeq	r0, r4, r0
     67c:	9f5001f3 	svcls	0x005001f3
	...
     688:	0000038c 	andeq	r0, r0, ip, lsl #7
     68c:	00000394 	muleq	r0, r4, r3
     690:	9f300002 	svcls	0x00300002
     694:	00000394 	muleq	r0, r4, r3
     698:	00000460 	andeq	r0, r0, r0, ror #8
     69c:	78540001 	ldmdavc	r4, {r0}^
     6a0:	bc000004 	stclt	0, cr0, [r0], {4}
     6a4:	01000004 	tsteq	r0, r4
     6a8:	00005400 	andeq	r5, r0, r0, lsl #8
     6ac:	00000000 	andeq	r0, r0, r0
     6b0:	03b00000 	movseq	r0, #0
     6b4:	03f70000 	mvnseq	r0, #0
     6b8:	00010000 	andeq	r0, r1, r0
     6bc:	0003f753 	andeq	pc, r3, r3, asr r7	; <UNPREDICTABLE>
     6c0:	00041400 	andeq	r1, r4, r0, lsl #8
     6c4:	75000c00 	strvc	r0, [r0, #-3072]	; 0xc00
     6c8:	40253600 	eormi	r3, r5, r0, lsl #12
     6cc:	3f00751a 	svccc	0x0000751a
     6d0:	149f211a 	ldrne	r2, [pc], #282	; 6d8 <_start-0x7928>
     6d4:	17000004 	strne	r0, [r0, -r4]
     6d8:	01000004 	tsteq	r0, r4
     6dc:	04175300 	ldreq	r5, [r7], #-768	; 0x300
     6e0:	04340000 	ldrteq	r0, [r4], #-0
     6e4:	000c0000 	andeq	r0, ip, r0
     6e8:	25360075 	ldrcs	r0, [r6, #-117]!	; 0x75
     6ec:	00751a40 	rsbseq	r1, r5, r0, asr #20
     6f0:	9f211a3f 	svcls	0x00211a3f
     6f4:	00000434 	andeq	r0, r0, r4, lsr r4
     6f8:	00000437 	andeq	r0, r0, r7, lsr r4
     6fc:	37530001 	ldrbcc	r0, [r3, -r1]
     700:	54000004 	strpl	r0, [r0], #-4
     704:	0c000004 	stceq	0, cr0, [r0], {4}
     708:	36007500 	strcc	r7, [r0], -r0, lsl #10
     70c:	751a4025 	ldrvc	r4, [sl, #-37]	; 0x25
     710:	211a3f00 	tstcs	sl, r0, lsl #30
     714:	0004549f 	muleq	r4, pc, r4	; <UNPREDICTABLE>
     718:	00045b00 	andeq	r5, r4, r0, lsl #22
     71c:	53000100 	movwpl	r0, #256	; 0x100
     720:	0000045b 	andeq	r0, r0, fp, asr r4
     724:	00000478 	andeq	r0, r0, r8, ror r4
     728:	0075000c 	rsbseq	r0, r5, ip
     72c:	1a402536 	bne	1009c0c <__bss_end__+0xffd884>
     730:	1a3f0075 	bne	fc090c <__bss_end__+0xfb4584>
     734:	04789f21 	ldrbteq	r9, [r8], #-3873	; 0xf21
     738:	047f0000 	ldrbteq	r0, [pc], #-0	; 740 <_start-0x78c0>
     73c:	00010000 	andeq	r0, r1, r0
     740:	00047f53 	andeq	r7, r4, r3, asr pc
     744:	00049c00 	andeq	r9, r4, r0, lsl #24
     748:	75000c00 	strvc	r0, [r0, #-3072]	; 0xc00
     74c:	40253600 	eormi	r3, r5, r0, lsl #12
     750:	3f00751a 	svccc	0x0000751a
     754:	9c9f211a 	ldflss	f2, [pc], {26}
     758:	9f000004 	svcls	0x00000004
     75c:	01000004 	tsteq	r0, r4
     760:	049f5300 	ldreq	r5, [pc], #768	; 768 <_start-0x7898>
     764:	04f00000 	ldrbteq	r0, [r0], #0
     768:	000c0000 	andeq	r0, ip, r0
     76c:	25360075 	ldrcs	r0, [r6, #-117]!	; 0x75
     770:	00751a40 	rsbseq	r1, r5, r0, asr #20
     774:	9f211a3f 	svcls	0x00211a3f
	...
     780:	000004f0 	strdeq	r0, [r0], -r0	; <UNPREDICTABLE>
     784:	000004f7 	strdeq	r0, [r0], -r7
     788:	f7500001 			; <UNDEFINED> instruction: 0xf7500001
     78c:	24000004 	strcs	r0, [r0], #-4
     790:	04000005 	streq	r0, [r0], #-5
     794:	5001f300 	andpl	pc, r1, r0, lsl #6
     798:	0000009f 	muleq	r0, pc, r0	; <UNPREDICTABLE>
     79c:	00000000 	andeq	r0, r0, r0
     7a0:	00054c00 	andeq	r4, r5, r0, lsl #24
     7a4:	00055700 	andeq	r5, r5, r0, lsl #14
     7a8:	50000100 	andpl	r0, r0, r0, lsl #2
     7ac:	00000557 	andeq	r0, r0, r7, asr r5
     7b0:	00000570 	andeq	r0, r0, r0, ror r5
     7b4:	70540001 	subsvc	r0, r4, r1
     7b8:	7b000005 	blvc	7d4 <_start-0x782c>
     7bc:	01000005 	tsteq	r0, r5
     7c0:	057b5000 	ldrbeq	r5, [fp, #-0]!
     7c4:	08480000 	stmdaeq	r8, {}^	; <UNPREDICTABLE>
     7c8:	00010000 	andeq	r0, r1, r0
     7cc:	00000054 	andeq	r0, r0, r4, asr r0
     7d0:	00000000 	andeq	r0, r0, r0
     7d4:	0005f800 	andeq	pc, r5, r0, lsl #16
     7d8:	0005ff00 	andeq	pc, r5, r0, lsl #30
     7dc:	50000100 	andpl	r0, r0, r0, lsl #2
     7e0:	00000618 	andeq	r0, r0, r8, lsl r6
     7e4:	00000623 	andeq	r0, r0, r3, lsr #12
     7e8:	3c500001 	mrrccc	0, 0, r0, r0, cr1	; <UNPREDICTABLE>
     7ec:	40000006 	andmi	r0, r0, r6
     7f0:	01000006 	tsteq	r0, r6
     7f4:	06545000 	ldrbeq	r5, [r4], -r0
     7f8:	06640000 	strbteq	r0, [r4], -r0
     7fc:	00010000 	andeq	r0, r1, r0
     800:	00066855 	andeq	r6, r6, r5, asr r8
     804:	00066f00 	andeq	r6, r6, r0, lsl #30
     808:	50000100 	andpl	r0, r0, r0, lsl #2
     80c:	00000688 	andeq	r0, r0, r8, lsl #13
     810:	0000068c 	andeq	r0, r0, ip, lsl #13
     814:	b8500001 	ldmdalt	r0, {r0}^
     818:	48000007 	stmdami	r0, {r0, r1, r2}
     81c:	01000008 	tsteq	r0, r8
     820:	00005500 	andeq	r5, r0, r0, lsl #10
     824:	00000000 	andeq	r0, r0, r0
     828:	06c80000 	strbeq	r0, [r8], r0
     82c:	06cc0000 	strbeq	r0, [ip], r0
     830:	00010000 	andeq	r0, r1, r0
     834:	0006cc50 	andeq	ip, r6, r0, asr ip
     838:	00084800 	andeq	r4, r8, r0, lsl #16
     83c:	58000100 	stmdapl	r0, {r8}
	...
     848:	000006e8 	andeq	r0, r0, r8, ror #13
     84c:	000006ec 	andeq	r0, r0, ip, ror #13
     850:	ec500001 	mrrc	0, 0, r0, r0, cr1	; <UNPREDICTABLE>
     854:	48000006 	stmdami	r0, {r1, r2}
     858:	01000008 	tsteq	r0, r8
     85c:	00005700 	andeq	r5, r0, r0, lsl #14
	...
     868:	001b0000 	andseq	r0, fp, r0
     86c:	00010000 	andeq	r0, r1, r0
     870:	00001b50 	andeq	r1, r0, r0, asr fp
     874:	00003400 	andeq	r3, r0, r0, lsl #8
     878:	f3000400 	vshl.u8	d0, d0, d0
     87c:	349f5001 	ldrcc	r5, [pc], #1	; 884 <_start-0x777c>
     880:	43000000 	movwmi	r0, #0
     884:	01000000 	mrseq	r0, (UNDEF: 0)
     888:	00435000 	subeq	r5, r3, r0
     88c:	005c0000 	subseq	r0, ip, r0
     890:	00040000 	andeq	r0, r4, r0
     894:	9f5001f3 	svcls	0x005001f3
     898:	0000005c 	andeq	r0, r0, ip, asr r0
     89c:	0000006b 	andeq	r0, r0, fp, rrx
     8a0:	6b500001 	blvs	14008ac <__bss_end__+0x13f4524>
     8a4:	84000000 	strhi	r0, [r0], #-0
     8a8:	04000000 	streq	r0, [r0], #-0
     8ac:	5001f300 	andpl	pc, r1, r0, lsl #6
     8b0:	0000849f 	muleq	r0, pc, r4	; <UNPREDICTABLE>
     8b4:	00009300 	andeq	r9, r0, r0, lsl #6
     8b8:	50000100 	andpl	r0, r0, r0, lsl #2
     8bc:	00000093 	muleq	r0, r3, r0
     8c0:	000000ac 	andeq	r0, r0, ip, lsr #1
     8c4:	01f30004 	mvnseq	r0, r4
     8c8:	00ac9f50 	adceq	r9, ip, r0, asr pc
     8cc:	00bb0000 	adcseq	r0, fp, r0
     8d0:	00010000 	andeq	r0, r1, r0
     8d4:	0000bb50 	andeq	fp, r0, r0, asr fp
     8d8:	0000d400 	andeq	sp, r0, r0, lsl #8
     8dc:	f3000400 	vshl.u8	d0, d0, d0
     8e0:	d49f5001 	ldrle	r5, [pc], #1	; 8e8 <_start-0x7718>
     8e4:	e3000000 	movw	r0, #0
     8e8:	01000000 	mrseq	r0, (UNDEF: 0)
     8ec:	00e35000 	rsceq	r5, r3, r0
     8f0:	00fc0000 	rscseq	r0, ip, r0
     8f4:	00040000 	andeq	r0, r4, r0
     8f8:	9f5001f3 	svcls	0x005001f3
     8fc:	000000fc 	strdeq	r0, [r0], -ip
     900:	0000010b 	andeq	r0, r0, fp, lsl #2
     904:	0b500001 	bleq	1400910 <__bss_end__+0x13f4588>
     908:	24000001 	strcs	r0, [r0], #-1
     90c:	04000001 	streq	r0, [r0], #-1
     910:	5001f300 	andpl	pc, r1, r0, lsl #6
     914:	0001249f 	muleq	r1, pc, r4	; <UNPREDICTABLE>
     918:	00013300 	andeq	r3, r1, r0, lsl #6
     91c:	50000100 	andpl	r0, r0, r0, lsl #2
     920:	00000133 	andeq	r0, r0, r3, lsr r1
     924:	0000014c 	andeq	r0, r0, ip, asr #2
     928:	01f30004 	mvnseq	r0, r4
     92c:	014c9f50 	cmpeq	ip, r0, asr pc
     930:	015b0000 	cmpeq	fp, r0
     934:	00010000 	andeq	r0, r1, r0
     938:	00015b50 	andeq	r5, r1, r0, asr fp
     93c:	0001a000 	andeq	sl, r1, r0
     940:	f3000400 	vshl.u8	d0, d0, d0
     944:	009f5001 	addseq	r5, pc, r1
     948:	00000000 	andeq	r0, r0, r0
     94c:	a0000000 	andge	r0, r0, r0
     950:	b3000001 	movwlt	r0, #1
     954:	01000001 	tsteq	r0, r1
     958:	01b35000 			; <UNDEFINED> instruction: 0x01b35000
     95c:	01cc0000 	biceq	r0, ip, r0
     960:	00040000 	andeq	r0, r4, r0
     964:	9f5001f3 	svcls	0x005001f3
     968:	000001cc 	andeq	r0, r0, ip, asr #3
     96c:	000001df 	ldrdeq	r0, [r0], -pc	; <UNPREDICTABLE>
     970:	df500001 	svcle	0x00500001
     974:	f8000001 			; <UNDEFINED> instruction: 0xf8000001
     978:	04000001 	streq	r0, [r0], #-1
     97c:	5001f300 	andpl	pc, r1, r0, lsl #6
     980:	0001f89f 	muleq	r1, pc, r8	; <UNPREDICTABLE>
     984:	00020700 	andeq	r0, r2, r0, lsl #14
     988:	50000100 	andpl	r0, r0, r0, lsl #2
     98c:	00000207 	andeq	r0, r0, r7, lsl #4
     990:	00000220 	andeq	r0, r0, r0, lsr #4
     994:	01f30004 	mvnseq	r0, r4
     998:	02209f50 	eoreq	r9, r0, #80, 30	; 0x140
     99c:	022f0000 	eoreq	r0, pc, #0
     9a0:	00010000 	andeq	r0, r1, r0
     9a4:	00022f50 	andeq	r2, r2, r0, asr pc
     9a8:	00024800 	andeq	r4, r2, r0, lsl #16
     9ac:	f3000400 	vshl.u8	d0, d0, d0
     9b0:	489f5001 	ldmmi	pc, {r0, ip, lr}	; <UNPREDICTABLE>
     9b4:	57000002 	strpl	r0, [r0, -r2]
     9b8:	01000002 	tsteq	r0, r2
     9bc:	02575000 	subseq	r5, r7, #0
     9c0:	02700000 	rsbseq	r0, r0, #0
     9c4:	00040000 	andeq	r0, r4, r0
     9c8:	9f5001f3 	svcls	0x005001f3
     9cc:	00000270 	andeq	r0, r0, r0, ror r2
     9d0:	0000027f 	andeq	r0, r0, pc, ror r2
     9d4:	7f500001 	svcvc	0x00500001
     9d8:	98000002 	stmdals	r0, {r1}
     9dc:	04000002 	streq	r0, [r0], #-2
     9e0:	5001f300 	andpl	pc, r1, r0, lsl #6
     9e4:	0002989f 	muleq	r2, pc, r8	; <UNPREDICTABLE>
     9e8:	0002a700 	andeq	sl, r2, r0, lsl #14
     9ec:	50000100 	andpl	r0, r0, r0, lsl #2
     9f0:	000002a7 	andeq	r0, r0, r7, lsr #5
     9f4:	000002c0 	andeq	r0, r0, r0, asr #5
     9f8:	01f30004 	mvnseq	r0, r4
     9fc:	02c09f50 	sbceq	r9, r0, #80, 30	; 0x140
     a00:	02cf0000 	sbceq	r0, pc, #0
     a04:	00010000 	andeq	r0, r1, r0
     a08:	0002cf50 	andeq	ip, r2, r0, asr pc
     a0c:	00031000 	andeq	r1, r3, r0
     a10:	f3000400 	vshl.u8	d0, d0, d0
     a14:	009f5001 	addseq	r5, pc, r1
     a18:	00000000 	andeq	r0, r0, r0
     a1c:	20000000 	andcs	r0, r0, r0
     a20:	30000003 	andcc	r0, r0, r3
     a24:	01000003 	tsteq	r0, r3
     a28:	03305000 	teqeq	r0, #0
     a2c:	03540000 	cmpeq	r4, #0
     a30:	00010000 	andeq	r0, r1, r0
     a34:	00000055 	andeq	r0, r0, r5, asr r0
     a38:	00000000 	andeq	r0, r0, r0
     a3c:	00032000 	andeq	r2, r3, r0
     a40:	00033400 	andeq	r3, r3, r0, lsl #8
     a44:	51000100 	mrspl	r0, (UNDEF: 16)
     a48:	00000334 	andeq	r0, r0, r4, lsr r3
     a4c:	00000337 	andeq	r0, r0, r7, lsr r3
     a50:	37500001 	ldrbcc	r0, [r0, -r1]
     a54:	54000003 	strpl	r0, [r0], #-3
     a58:	04000003 	streq	r0, [r0], #-3
     a5c:	5101f300 	mrspl	pc, SP_irq	; <UNPREDICTABLE>
     a60:	0000009f 	muleq	r0, pc, r0	; <UNPREDICTABLE>
     a64:	00000000 	andeq	r0, r0, r0
     a68:	00032000 	andeq	r2, r3, r0
     a6c:	00033700 	andeq	r3, r3, r0, lsl #14
     a70:	52000100 	andpl	r0, r0, #0, 2
     a74:	00000337 	andeq	r0, r0, r7, lsr r3
     a78:	00000354 	andeq	r0, r0, r4, asr r3
     a7c:	00540001 	subseq	r0, r4, r1
     a80:	00000000 	andeq	r0, r0, r0
     a84:	54000000 	strpl	r0, [r0], #-0
     a88:	5f000003 	svcpl	0x00000003
     a8c:	01000003 	tsteq	r0, r3
     a90:	035f5000 	cmpeq	pc, #0
     a94:	05580000 	ldrbeq	r0, [r8, #-0]
     a98:	00010000 	andeq	r0, r1, r0
     a9c:	00000054 	andeq	r0, r0, r4, asr r0
     aa0:	00000000 	andeq	r0, r0, r0
     aa4:	00055800 	andeq	r5, r5, r0, lsl #16
     aa8:	00056400 	andeq	r6, r5, r0, lsl #8
     aac:	50000100 	andpl	r0, r0, r0, lsl #2
     ab0:	00000564 	andeq	r0, r0, r4, ror #10
     ab4:	000005a4 	andeq	r0, r0, r4, lsr #11
     ab8:	00540001 	subseq	r0, r4, r1
     abc:	00000000 	andeq	r0, r0, r0
     ac0:	54000000 	strpl	r0, [r0], #-0
     ac4:	60000006 	andvs	r0, r0, r6
     ac8:	01000006 	tsteq	r0, r6
     acc:	06605000 	strbteq	r5, [r0], -r0
     ad0:	08240000 	stmdaeq	r4!, {}	; <UNPREDICTABLE>
     ad4:	00010000 	andeq	r0, r1, r0
     ad8:	00000054 	andeq	r0, r0, r4, asr r0
     adc:	00000000 	andeq	r0, r0, r0
     ae0:	00025800 	andeq	r5, r2, r0, lsl #16
     ae4:	00026c00 	andeq	r6, r2, r0, lsl #24
     ae8:	50000100 	andpl	r0, r0, r0, lsl #2
     aec:	0000026c 	andeq	r0, r0, ip, ror #4
     af0:	000002dc 	ldrdeq	r0, [r0], -ip
     af4:	00580001 	subseq	r0, r8, r1
     af8:	00000000 	andeq	r0, r0, r0
     afc:	58000000 	stmdapl	r0, {}	; <UNPREDICTABLE>
     b00:	6f000002 	svcvs	0x00000002
     b04:	01000002 	tsteq	r0, r2
     b08:	026f5100 	rsbeq	r5, pc, #0, 2
     b0c:	02700000 	rsbseq	r0, r0, #0
     b10:	00040000 	andeq	r0, r4, r0
     b14:	9f5101f3 	svcls	0x005101f3
     b18:	00000270 	andeq	r0, r0, r0, ror r2
     b1c:	00000283 	andeq	r0, r0, r3, lsl #5
     b20:	9c500001 	mrrcls	0, 0, r0, r0, cr1	; <UNPREDICTABLE>
     b24:	dc000002 	stcle	0, cr0, [r0], {2}
     b28:	01000002 	tsteq	r0, r2
     b2c:	00005700 	andeq	r5, r0, r0, lsl #14
     b30:	00000000 	andeq	r0, r0, r0
     b34:	02580000 	subseq	r0, r8, #0
     b38:	026f0000 	rsbeq	r0, pc, #0
     b3c:	00010000 	andeq	r0, r1, r0
     b40:	00026f52 	andeq	r6, r2, r2, asr pc
     b44:	0002dc00 	andeq	sp, r2, r0, lsl #24
     b48:	55000100 	strpl	r0, [r0, #-256]	; 0x100
	...
     b54:	00000258 	andeq	r0, r0, r8, asr r2
     b58:	0000026f 	andeq	r0, r0, pc, ror #4
     b5c:	6f530001 	svcvs	0x00530001
     b60:	dc000002 	stcle	0, cr0, [r0], {2}
     b64:	01000002 	tsteq	r0, r2
     b68:	00005600 	andeq	r5, r0, r0, lsl #12
     b6c:	00000000 	andeq	r0, r0, r0
     b70:	02a80000 	adceq	r0, r8, #0
     b74:	02bf0000 	adcseq	r0, pc, #0
     b78:	00010000 	andeq	r0, r1, r0
     b7c:	00000050 	andeq	r0, r0, r0, asr r0
     b80:	00000000 	andeq	r0, r0, r0
     b84:	00020c00 	andeq	r0, r2, r0, lsl #24
     b88:	00022700 	andeq	r2, r2, r0, lsl #14
     b8c:	50000100 	andpl	r0, r0, r0, lsl #2
     b90:	00000227 	andeq	r0, r0, r7, lsr #4
     b94:	00000230 	andeq	r0, r0, r0, lsr r2
     b98:	30540001 	subscc	r0, r4, r1
     b9c:	33000002 	movwcc	r0, #2
     ba0:	01000002 	tsteq	r0, r2
     ba4:	02335000 	eorseq	r5, r3, #0
     ba8:	02580000 	subseq	r0, r8, #0
     bac:	00040000 	andeq	r0, r4, r0
     bb0:	9f5001f3 	svcls	0x005001f3
	...
     bbc:	0000021c 	andeq	r0, r0, ip, lsl r2
     bc0:	00000227 	andeq	r0, r0, r7, lsr #4
     bc4:	27500001 	ldrbcs	r0, [r0, -r1]
     bc8:	30000002 	andcc	r0, r0, r2
     bcc:	01000002 	tsteq	r0, r2
     bd0:	00005400 	andeq	r5, r0, r0, lsl #8
     bd4:	00000000 	andeq	r0, r0, r0
     bd8:	00ec0000 	rsceq	r0, ip, r0
     bdc:	01230000 	teqeq	r3, r0
     be0:	00010000 	andeq	r0, r1, r0
     be4:	00012350 	andeq	r2, r1, r0, asr r3
     be8:	00019c00 	andeq	r9, r1, r0, lsl #24
     bec:	55000100 	strpl	r0, [r0, #-256]	; 0x100
     bf0:	0000019c 	muleq	r0, ip, r1
     bf4:	0000019f 	muleq	r0, pc, r1	; <UNPREDICTABLE>
     bf8:	9f500001 	svcls	0x00500001
     bfc:	b8000001 	stmdalt	r0, {r0}
     c00:	04000001 	streq	r0, [r0], #-1
     c04:	5001f300 	andpl	pc, r1, r0, lsl #6
     c08:	0001b89f 	muleq	r1, pc, r8	; <UNPREDICTABLE>
     c0c:	0001bb00 	andeq	fp, r1, r0, lsl #22
     c10:	50000100 	andpl	r0, r0, r0, lsl #2
     c14:	000001bb 			; <UNDEFINED> instruction: 0x000001bb
     c18:	000001d4 	ldrdeq	r0, [r0], -r4
     c1c:	d4550001 	ldrble	r0, [r5], #-1
     c20:	d7000001 	strle	r0, [r0, -r1]
     c24:	01000001 	tsteq	r0, r1
     c28:	01d75000 	bicseq	r5, r7, r0
     c2c:	020c0000 	andeq	r0, ip, #0
     c30:	00010000 	andeq	r0, r1, r0
     c34:	00000055 	andeq	r0, r0, r5, asr r0
     c38:	00000000 	andeq	r0, r0, r0
     c3c:	0000ec00 	andeq	lr, r0, r0, lsl #24
     c40:	00012300 	andeq	r2, r1, r0, lsl #6
     c44:	51000100 	mrspl	r0, (UNDEF: 16)
     c48:	00000123 	andeq	r0, r0, r3, lsr #2
     c4c:	0000019c 	muleq	r0, ip, r1
     c50:	01f30004 	mvnseq	r0, r4
     c54:	019c9f51 	orrseq	r9, ip, r1, asr pc
     c58:	019f0000 	orrseq	r0, pc, r0
     c5c:	00010000 	andeq	r0, r1, r0
     c60:	00019f51 	andeq	r9, r1, r1, asr pc
     c64:	0001b800 	andeq	fp, r1, r0, lsl #16
     c68:	f3000400 	vshl.u8	d0, d0, d0
     c6c:	b89f5101 	ldmlt	pc, {r0, r8, ip, lr}	; <UNPREDICTABLE>
     c70:	bb000001 	bllt	c7c <_start-0x7384>
     c74:	01000001 	tsteq	r0, r1
     c78:	01bb5100 			; <UNDEFINED> instruction: 0x01bb5100
     c7c:	01d40000 	bicseq	r0, r4, r0
     c80:	00040000 	andeq	r0, r4, r0
     c84:	9f5101f3 	svcls	0x005101f3
     c88:	000001d4 	ldrdeq	r0, [r0], -r4
     c8c:	000001d7 	ldrdeq	r0, [r0], -r7
     c90:	d7510001 	ldrble	r0, [r1, -r1]
     c94:	0c000001 	stceq	0, cr0, [r0], {1}
     c98:	04000002 	streq	r0, [r0], #-2
     c9c:	5101f300 	mrspl	pc, SP_irq	; <UNPREDICTABLE>
     ca0:	0000009f 	muleq	r0, pc, r0	; <UNPREDICTABLE>
     ca4:	00000000 	andeq	r0, r0, r0
     ca8:	0000ec00 	andeq	lr, r0, r0, lsl #24
     cac:	00012300 	andeq	r2, r1, r0, lsl #6
     cb0:	52000100 	andpl	r0, r0, #0, 2
     cb4:	00000123 	andeq	r0, r0, r3, lsr #2
     cb8:	0000019c 	muleq	r0, ip, r1
     cbc:	9c580001 	mrrcls	0, 0, r0, r8, cr1
     cc0:	9f000001 	svcls	0x00000001
     cc4:	01000001 	tsteq	r0, r1
     cc8:	019f5200 	orrseq	r5, pc, r0, lsl #4
     ccc:	01b80000 			; <UNDEFINED> instruction: 0x01b80000
     cd0:	00040000 	andeq	r0, r4, r0
     cd4:	9f5201f3 	svcls	0x005201f3
     cd8:	000001b8 			; <UNDEFINED> instruction: 0x000001b8
     cdc:	000001bb 			; <UNDEFINED> instruction: 0x000001bb
     ce0:	bb520001 	bllt	1480cec <__bss_end__+0x1474964>
     ce4:	d4000001 	strle	r0, [r0], #-1
     ce8:	01000001 	tsteq	r0, r1
     cec:	01d45800 	bicseq	r5, r4, r0, lsl #16
     cf0:	01d70000 	bicseq	r0, r7, r0
     cf4:	00010000 	andeq	r0, r1, r0
     cf8:	0001d752 	andeq	sp, r1, r2, asr r7
     cfc:	00020c00 	andeq	r0, r2, r0, lsl #24
     d00:	58000100 	stmdapl	r0, {r8}
	...
     d0c:	0000010c 	andeq	r0, r0, ip, lsl #2
     d10:	0000019c 	muleq	r0, ip, r1
     d14:	d4540001 	ldrble	r0, [r4], #-1
     d18:	0c000001 	stceq	0, cr0, [r0], {1}
     d1c:	01000002 	tsteq	r0, r2
     d20:	00005400 	andeq	r5, r0, r0, lsl #8
     d24:	00000000 	andeq	r0, r0, r0
     d28:	01140000 	tsteq	r4, r0
     d2c:	019c0000 	orrseq	r0, ip, r0
     d30:	00010000 	andeq	r0, r1, r0
     d34:	0001d456 	andeq	sp, r1, r6, asr r4
     d38:	00020c00 	andeq	r0, r2, r0, lsl #24
     d3c:	56000100 	strpl	r0, [r0], -r0, lsl #2
	...
     d48:	0000007c 	andeq	r0, r0, ip, ror r0
     d4c:	000000a7 	andeq	r0, r0, r7, lsr #1
     d50:	a7500001 	ldrbge	r0, [r0, -r1]
     d54:	c0000000 	andgt	r0, r0, r0
     d58:	04000000 	streq	r0, [r0], #-0
     d5c:	5001f300 	andpl	pc, r1, r0, lsl #6
     d60:	0000c09f 	muleq	r0, pc, r0	; <UNPREDICTABLE>
     d64:	0000c300 	andeq	ip, r0, r0, lsl #6
     d68:	50000100 	andpl	r0, r0, r0, lsl #2
     d6c:	000000c3 	andeq	r0, r0, r3, asr #1
     d70:	000000ec 	andeq	r0, r0, ip, ror #1
     d74:	01f30004 	mvnseq	r0, r4
     d78:	00009f50 	andeq	r9, r0, r0, asr pc
     d7c:	00000000 	andeq	r0, r0, r0
     d80:	007c0000 	rsbseq	r0, ip, r0
     d84:	00a70000 	adceq	r0, r7, r0
     d88:	00010000 	andeq	r0, r1, r0
     d8c:	0000a751 	andeq	sl, r0, r1, asr r7
     d90:	0000c000 	andeq	ip, r0, r0
     d94:	f3000400 	vshl.u8	d0, d0, d0
     d98:	c09f5101 	addsgt	r5, pc, r1, lsl #2
     d9c:	c3000000 	movwgt	r0, #0
     da0:	01000000 	mrseq	r0, (UNDEF: 0)
     da4:	00c35100 	sbceq	r5, r3, r0, lsl #2
     da8:	00ec0000 	rsceq	r0, ip, r0
     dac:	00040000 	andeq	r0, r4, r0
     db0:	9f5101f3 	svcls	0x005101f3
	...
     dbc:	0000000c 	andeq	r0, r0, ip
     dc0:	00000030 	andeq	r0, r0, r0, lsr r0
     dc4:	30500001 	subscc	r0, r0, r1
     dc8:	34000000 	strcc	r0, [r0], #-0
     dcc:	04000000 	streq	r0, [r0], #-0
     dd0:	5001f300 	andpl	pc, r1, r0, lsl #6
     dd4:	0000349f 	muleq	r0, pc, r4	; <UNPREDICTABLE>
     dd8:	00003700 	andeq	r3, r0, r0, lsl #14
     ddc:	50000100 	andpl	r0, r0, r0, lsl #2
     de0:	00000037 	andeq	r0, r0, r7, lsr r0
     de4:	00000050 	andeq	r0, r0, r0, asr r0
     de8:	01f30004 	mvnseq	r0, r4
     dec:	00509f50 	subseq	r9, r0, r0, asr pc
     df0:	00530000 	subseq	r0, r3, r0
     df4:	00010000 	andeq	r0, r1, r0
     df8:	00005350 	andeq	r5, r0, r0, asr r3
     dfc:	00007c00 	andeq	r7, r0, r0, lsl #24
     e00:	f3000400 	vshl.u8	d0, d0, d0
     e04:	009f5001 	addseq	r5, pc, r1
     e08:	00000000 	andeq	r0, r0, r0
     e0c:	0c000000 	stceq	0, cr0, [r0], {-0}
     e10:	1c000000 	stcne	0, cr0, [r0], {-0}
     e14:	01000000 	mrseq	r0, (UNDEF: 0)
     e18:	001c5100 	andseq	r5, ip, r0, lsl #2
     e1c:	00340000 	eorseq	r0, r4, r0
     e20:	00040000 	andeq	r0, r4, r0
     e24:	9f5101f3 	svcls	0x005101f3
     e28:	00000034 	andeq	r0, r0, r4, lsr r0
     e2c:	00000037 	andeq	r0, r0, r7, lsr r0
     e30:	37510001 	ldrbcc	r0, [r1, -r1]
     e34:	7c000000 	stcvc	0, cr0, [r0], {-0}
     e38:	04000000 	streq	r0, [r0], #-0
     e3c:	5101f300 	mrspl	pc, SP_irq	; <UNPREDICTABLE>
     e40:	0000009f 	muleq	r0, pc, r0	; <UNPREDICTABLE>
     e44:	00000000 	andeq	r0, r0, r0
     e48:	00001c00 	andeq	r1, r0, r0, lsl #24
     e4c:	00003400 	andeq	r3, r0, r0, lsl #8
     e50:	51000100 	mrspl	r0, (UNDEF: 16)
     e54:	00000050 	andeq	r0, r0, r0, asr r0
     e58:	00000053 	andeq	r0, r0, r3, asr r0
     e5c:	53510001 	cmppl	r1, #1
     e60:	7c000000 	stcvc	0, cr0, [r0], {-0}
     e64:	06000000 	streq	r0, [r0], -r0
     e68:	5101f300 	mrspl	pc, SP_irq	; <UNPREDICTABLE>
     e6c:	009f2544 	addseq	r2, pc, r4, asr #10
     e70:	00000000 	andeq	r0, r0, r0
     e74:	20000000 	andcs	r0, r0, r0
     e78:	34000000 	strcc	r0, [r0], #-0
     e7c:	01000000 	mrseq	r0, (UNDEF: 0)
     e80:	00505300 	subseq	r5, r0, r0, lsl #6
     e84:	00530000 	subseq	r0, r3, r0
     e88:	00010000 	andeq	r0, r1, r0
     e8c:	00005353 	andeq	r5, r0, r3, asr r3
     e90:	00007c00 	andeq	r7, r0, r0, lsl #24
     e94:	f3000c00 			; <UNDEFINED> instruction: 0xf3000c00
     e98:	25445101 	strbcs	r5, [r4, #-257]	; 0x101
     e9c:	01f32432 	mvnseq	r2, r2, lsr r4
     ea0:	009f2250 	addseq	r2, pc, r0, asr r2	; <UNPREDICTABLE>
	...
     eac:	04000000 	streq	r0, [r0], #-0
     eb0:	01000000 	mrseq	r0, (UNDEF: 0)
     eb4:	00045000 	andeq	r5, r4, r0
     eb8:	000c0000 	andeq	r0, ip, r0
     ebc:	00040000 	andeq	r0, r4, r0
     ec0:	9f5001f3 	svcls	0x005001f3
	...
     ed0:	00000024 	andeq	r0, r0, r4, lsr #32
     ed4:	24500001 	ldrbcs	r0, [r0], #-1
     ed8:	90000000 	andls	r0, r0, r0
     edc:	01000000 	mrseq	r0, (UNDEF: 0)
     ee0:	009c5300 	addseq	r5, ip, r0, lsl #6
     ee4:	00a40000 	adceq	r0, r4, r0
     ee8:	00010000 	andeq	r0, r1, r0
     eec:	0000b853 	andeq	fp, r0, r3, asr r8
     ef0:	0000bc00 	andeq	fp, r0, r0, lsl #24
     ef4:	53000100 	movwpl	r0, #256	; 0x100
     ef8:	000000e4 	andeq	r0, r0, r4, ror #1
     efc:	000000e8 	andeq	r0, r0, r8, ror #1
     f00:	00500001 	subseq	r0, r0, r1
	...
     f0c:	20000000 	andcs	r0, r0, r0
     f10:	01000000 	mrseq	r0, (UNDEF: 0)
     f14:	00205100 	eoreq	r5, r0, r0, lsl #2
     f18:	00800000 	addeq	r0, r0, r0
     f1c:	00010000 	andeq	r0, r1, r0
     f20:	00009c51 	andeq	r9, r0, r1, asr ip
     f24:	0000a000 	andeq	sl, r0, r0
     f28:	51000100 	mrspl	r0, (UNDEF: 16)
     f2c:	000000b8 	strheq	r0, [r0], -r8
     f30:	000000c8 	andeq	r0, r0, r8, asr #1
     f34:	e4510001 	ldrb	r0, [r1], #-1
     f38:	e8000000 	stmda	r0, {}	; <UNPREDICTABLE>
     f3c:	01000000 	mrseq	r0, (UNDEF: 0)
     f40:	00005100 	andeq	r5, r0, r0, lsl #2
     f44:	00000000 	andeq	r0, r0, r0
     f48:	00080000 	andeq	r0, r8, r0
     f4c:	00200000 	eoreq	r0, r0, r0
     f50:	00010000 	andeq	r0, r1, r0
     f54:	00002051 	andeq	r2, r0, r1, asr r0
     f58:	00003400 	andeq	r3, r0, r0, lsl #8
     f5c:	52000100 	andpl	r0, r0, #0, 2
     f60:	00000034 	andeq	r0, r0, r4, lsr r0
     f64:	00000048 	andeq	r0, r0, r8, asr #32
     f68:	48500001 	ldmdami	r0, {r0}^
     f6c:	cc000000 	stcgt	0, cr0, [r0], {-0}
     f70:	01000000 	mrseq	r0, (UNDEF: 0)
     f74:	00cc5200 	sbceq	r5, ip, r0, lsl #4
     f78:	00e00000 	rsceq	r0, r0, r0
     f7c:	00010000 	andeq	r0, r1, r0
     f80:	0000e450 	andeq	lr, r0, r0, asr r4
     f84:	0000e800 	andeq	lr, r0, r0, lsl #16
     f88:	51000100 	mrspl	r0, (UNDEF: 16)
	...
     f94:	00000044 	andeq	r0, r0, r4, asr #32
     f98:	00000048 	andeq	r0, r0, r8, asr #32
     f9c:	48520001 	ldmdami	r2, {r0}^
     fa0:	4c000000 	stcmi	0, cr0, [r0], {-0}
     fa4:	12000000 	andne	r0, r0, #0
     fa8:	38007c00 	stmdacc	r0, {sl, fp, ip, sp, lr}
     fac:	94027324 	strls	r7, [r2], #-804	; 0x324
     fb0:	1aff0801 	bne	fffc2fbc <__bss_end__+0xfffb6c34>
     fb4:	70243b22 	eorvc	r3, r4, r2, lsr #22
     fb8:	4c9f2700 	ldcmi	7, cr2, [pc], {0}
     fbc:	54000000 	strpl	r0, [r0], #-0
     fc0:	12000000 	andne	r0, r0, #0
     fc4:	38007c00 	stmdacc	r0, {sl, fp, ip, sp, lr}
     fc8:	947e7324 	ldrbtls	r7, [lr], #-804	; 0x324
     fcc:	1aff0801 	bne	fffc2fd8 <__bss_end__+0xfffb6c50>
     fd0:	70243b22 	eorvc	r3, r4, r2, lsr #22
     fd4:	009f2700 	addseq	r2, pc, r0, lsl #14
     fd8:	00000000 	andeq	r0, r0, r0
     fdc:	1c000000 	stcne	0, cr0, [r0], {-0}
     fe0:	e4000000 	str	r0, [r0], #-0
     fe4:	01000000 	mrseq	r0, (UNDEF: 0)
     fe8:	00005400 	andeq	r5, r0, r0, lsl #8
	...
     ff4:	00040000 	andeq	r0, r4, r0
     ff8:	00010000 	andeq	r0, r1, r0
     ffc:	00000452 	andeq	r0, r0, r2, asr r4
    1000:	00002000 	andeq	r2, r0, r0
    1004:	f3000400 	vshl.u8	d0, d0, d0
    1008:	009f5201 	addseq	r5, pc, r1, lsl #4
	...
    1014:	0c000000 	stceq	0, cr0, [r0], {-0}
    1018:	01000000 	mrseq	r0, (UNDEF: 0)
    101c:	000c5000 	andeq	r5, ip, r0
    1020:	00140000 	andseq	r0, r4, r0
    1024:	00030000 	andeq	r0, r3, r0
    1028:	149f0173 	ldrne	r0, [pc], #371	; 1030 <_start-0x6fd0>
    102c:	20000000 	andcs	r0, r0, r0
    1030:	01000000 	mrseq	r0, (UNDEF: 0)
    1034:	00005300 	andeq	r5, r0, r0, lsl #6
    1038:	00000000 	andeq	r0, r0, r0
    103c:	002c0000 	eoreq	r0, ip, r0
    1040:	00380000 	eorseq	r0, r8, r0
    1044:	00010000 	andeq	r0, r1, r0
    1048:	00003850 	andeq	r3, r0, r0, asr r8
    104c:	00004800 	andeq	r4, r0, r0, lsl #16
    1050:	55000100 	strpl	r0, [r0, #-256]	; 0x100
    1054:	00000048 	andeq	r0, r0, r8, asr #32
    1058:	00000058 	andeq	r0, r0, r8, asr r0
    105c:	00500001 	subseq	r0, r0, r1
	...
    1068:	0b000000 	bleq	1070 <_start-0x6f90>
    106c:	01000000 	mrseq	r0, (UNDEF: 0)
    1070:	000b5000 	andeq	r5, fp, r0
    1074:	00140000 	andseq	r0, r4, r0
    1078:	00010000 	andeq	r0, r1, r0
    107c:	00000054 	andeq	r0, r0, r4, asr r0
	...
    1088:	00001000 	andeq	r1, r0, r0
    108c:	50000100 	andpl	r0, r0, r0, lsl #2
    1090:	00000010 	andeq	r0, r0, r0, lsl r0
    1094:	00000034 	andeq	r0, r0, r4, lsr r0
    1098:	00540001 	subseq	r0, r4, r1
	...
    10a4:	04000000 	streq	r0, [r0], #-0
    10a8:	01000000 	mrseq	r0, (UNDEF: 0)
    10ac:	00045000 	andeq	r5, r4, r0
    10b0:	000c0000 	andeq	r0, ip, r0
    10b4:	00030000 	andeq	r0, r3, r0
    10b8:	0c9f3070 	ldceq	0, cr3, [pc], {112}	; 0x70
    10bc:	14000000 	strne	r0, [r0], #-0
    10c0:	04000000 	streq	r0, [r0], #-0
    10c4:	5001f300 	andpl	pc, r1, r0, lsl #6
    10c8:	0000009f 	muleq	r0, pc, r0	; <UNPREDICTABLE>
    10cc:	00000000 	andeq	r0, r0, r0
    10d0:	00001400 	andeq	r1, r0, r0, lsl #8
    10d4:	00002000 	andeq	r2, r0, r0
    10d8:	50000100 	andpl	r0, r0, r0, lsl #2
    10dc:	00000020 	andeq	r0, r0, r0, lsr #32
    10e0:	0000002c 	andeq	r0, r0, ip, lsr #32
    10e4:	01700003 	cmneq	r0, r3
    10e8:	00002c9f 	muleq	r0, pc, ip	; <UNPREDICTABLE>
    10ec:	00004000 	andeq	r4, r0, r0
    10f0:	50000100 	andpl	r0, r0, r0, lsl #2
	...
    10fc:	00000014 	andeq	r0, r0, r4, lsl r0
    1100:	00000018 	andeq	r0, r0, r8, lsl r0
    1104:	18510001 	ldmdane	r1, {r0}^
    1108:	40000000 	andmi	r0, r0, r0
    110c:	04000000 	streq	r0, [r0], #-0
    1110:	5101f300 	mrspl	pc, SP_irq	; <UNPREDICTABLE>
    1114:	0000009f 	muleq	r0, pc, r0	; <UNPREDICTABLE>
    1118:	00000000 	andeq	r0, r0, r0
    111c:	00004000 	andeq	r4, r0, r0
    1120:	00006000 	andeq	r6, r0, r0
    1124:	50000100 	andpl	r0, r0, r0, lsl #2
    1128:	00000060 	andeq	r0, r0, r0, rrx
    112c:	0000006c 	andeq	r0, r0, ip, rrx
    1130:	01710003 	cmneq	r1, r3
    1134:	00006c9f 	muleq	r0, pc, ip	; <UNPREDICTABLE>
    1138:	00007400 	andeq	r7, r0, r0, lsl #8
    113c:	51000100 	mrspl	r0, (UNDEF: 16)
    1140:	00000074 	andeq	r0, r0, r4, ror r0
    1144:	00000080 	andeq	r0, r0, r0, lsl #1
    1148:	01710003 	cmneq	r1, r3
    114c:	0000009f 	muleq	r0, pc, r0	; <UNPREDICTABLE>
    1150:	00000000 	andeq	r0, r0, r0
    1154:	00004000 	andeq	r4, r0, r0
    1158:	00005000 	andeq	r5, r0, r0
    115c:	51000100 	mrspl	r0, (UNDEF: 16)
    1160:	00000050 	andeq	r0, r0, r0, asr r0
    1164:	00000080 	andeq	r0, r0, r0, lsl #1
    1168:	01f30004 	mvnseq	r0, r4
    116c:	00009f51 	andeq	r9, r0, r1, asr pc
    1170:	00000000 	andeq	r0, r0, r0
    1174:	00400000 	subeq	r0, r0, r0
    1178:	00580000 	subseq	r0, r8, r0
    117c:	00010000 	andeq	r0, r1, r0
    1180:	00005852 	andeq	r5, r0, r2, asr r8
    1184:	00006400 	andeq	r6, r0, r0, lsl #8
    1188:	52000100 	andpl	r0, r0, #0, 2
    118c:	00000064 	andeq	r0, r0, r4, rrx
    1190:	00000068 	andeq	r0, r0, r8, rrx
    1194:	01720003 	cmneq	r2, r3
    1198:	0000689f 	muleq	r0, pc, r8	; <UNPREDICTABLE>
    119c:	00008000 	andeq	r8, r0, r0
    11a0:	52000100 	andpl	r0, r0, #0, 2
	...
    11ac:	00000040 	andeq	r0, r0, r0, asr #32
    11b0:	00000054 	andeq	r0, r0, r4, asr r0
    11b4:	54530001 	ldrbpl	r0, [r3], #-1
    11b8:	78000000 	stmdavc	r0, {}	; <UNPREDICTABLE>
    11bc:	01000000 	mrseq	r0, (UNDEF: 0)
    11c0:	00005300 	andeq	r5, r0, r0, lsl #6
    11c4:	00000000 	andeq	r0, r0, r0
    11c8:	00480000 	subeq	r0, r8, r0
    11cc:	00600000 	rsbeq	r0, r0, r0
    11d0:	00010000 	andeq	r0, r1, r0
    11d4:	0000605c 	andeq	r6, r0, ip, asr r0
    11d8:	00008000 	andeq	r8, r0, r0
    11dc:	f3000a00 	vpmax.u8	d0, d0, d0
    11e0:	01f35201 	mvnseq	r5, r1, lsl #4
    11e4:	01231c53 	teqeq	r3, r3, asr ip
    11e8:	0000009f 	muleq	r0, pc, r0	; <UNPREDICTABLE>
    11ec:	00000000 	andeq	r0, r0, r0
    11f0:	00008000 	andeq	r8, r0, r0
    11f4:	0000a400 	andeq	sl, r0, r0, lsl #8
    11f8:	50000100 	andpl	r0, r0, r0, lsl #2
    11fc:	000000a4 	andeq	r0, r0, r4, lsr #1
    1200:	00000118 	andeq	r0, r0, r8, lsl r1
    1204:	02700003 	rsbseq	r0, r0, #3
    1208:	0001189f 	muleq	r1, pc, r8	; <UNPREDICTABLE>
    120c:	00021c00 	andeq	r1, r2, r0, lsl #24
    1210:	f3000400 	vshl.u8	d0, d0, d0
    1214:	009f5001 	addseq	r5, pc, r1
    1218:	00000000 	andeq	r0, r0, r0
    121c:	80000000 	andhi	r0, r0, r0
    1220:	f0000000 			; <UNDEFINED> instruction: 0xf0000000
    1224:	01000000 	mrseq	r0, (UNDEF: 0)
    1228:	00f05100 	rscseq	r5, r0, r0, lsl #2
    122c:	01600000 	cmneq	r0, r0
    1230:	00010000 	andeq	r0, r1, r0
    1234:	00016055 	andeq	r6, r1, r5, asr r0
    1238:	00016800 	andeq	r6, r1, r0, lsl #16
    123c:	51000100 	mrspl	r0, (UNDEF: 16)
    1240:	00000168 	andeq	r0, r0, r8, ror #2
    1244:	00000188 	andeq	r0, r0, r8, lsl #3
    1248:	88550001 	ldmdahi	r5, {r0}^
    124c:	9c000001 	stcls	0, cr0, [r0], {1}
    1250:	01000001 	tsteq	r0, r1
    1254:	019c5100 	orrseq	r5, ip, r0, lsl #2
    1258:	01bc0000 			; <UNDEFINED> instruction: 0x01bc0000
    125c:	00010000 	andeq	r0, r1, r0
    1260:	0001bc55 	andeq	fp, r1, r5, asr ip
    1264:	0001bf00 	andeq	fp, r1, r0, lsl #30
    1268:	51000100 	mrspl	r0, (UNDEF: 16)
    126c:	000001bf 			; <UNDEFINED> instruction: 0x000001bf
    1270:	00000200 	andeq	r0, r0, r0, lsl #4
    1274:	00550001 	subseq	r0, r5, r1
    1278:	1c000002 	stcne	0, cr0, [r0], {2}
    127c:	04000002 	streq	r0, [r0], #-2
    1280:	5101f300 	mrspl	pc, SP_irq	; <UNPREDICTABLE>
    1284:	0000009f 	muleq	r0, pc, r0	; <UNPREDICTABLE>
    1288:	00000000 	andeq	r0, r0, r0
    128c:	00008000 	andeq	r8, r0, r0
    1290:	00009400 	andeq	r9, r0, r0, lsl #8
    1294:	52000100 	andpl	r0, r0, #0, 2
    1298:	00000094 	muleq	r0, r4, r0
    129c:	00000200 	andeq	r0, r0, r0, lsl #4
    12a0:	00540001 	subseq	r0, r4, r1
    12a4:	1c000002 	stcne	0, cr0, [r0], {2}
    12a8:	04000002 	streq	r0, [r0], #-2
    12ac:	5201f300 	andpl	pc, r1, #0, 6
    12b0:	0000009f 	muleq	r0, pc, r0	; <UNPREDICTABLE>
    12b4:	00000000 	andeq	r0, r0, r0
    12b8:	00008000 	andeq	r8, r0, r0
    12bc:	00010000 	andeq	r0, r1, r0
    12c0:	53000100 	movwpl	r0, #256	; 0x100
    12c4:	00000104 	andeq	r0, r0, r4, lsl #2
    12c8:	00000108 	andeq	r0, r0, r8, lsl #2
    12cc:	60530001 	subsvs	r0, r3, r1
    12d0:	68000001 	stmdavs	r0, {r0}
    12d4:	01000001 	tsteq	r0, r1
    12d8:	01685300 	cmneq	r8, r0, lsl #6
    12dc:	01880000 	orreq	r0, r8, r0
    12e0:	00040000 	andeq	r0, r4, r0
    12e4:	9f5301f3 	svcls	0x005301f3
    12e8:	00000188 	andeq	r0, r0, r8, lsl #3
    12ec:	00000190 	muleq	r0, r0, r1
    12f0:	90530001 	subsls	r0, r3, r1
    12f4:	94000001 	strls	r0, [r0], #-1
    12f8:	01000001 	tsteq	r0, r1
    12fc:	01945c00 	orrseq	r5, r4, r0, lsl #24
    1300:	019c0000 	orrseq	r0, ip, r0
    1304:	00010000 	andeq	r0, r1, r0
    1308:	00019c53 	andeq	r9, r1, r3, asr ip
    130c:	0001bc00 	andeq	fp, r1, r0, lsl #24
    1310:	f3000400 	vshl.u8	d0, d0, d0
    1314:	bc9f5301 	ldclt	3, cr5, [pc], {1}
    1318:	bf000001 	svclt	0x00000001
    131c:	01000001 	tsteq	r0, r1
    1320:	01bf5300 			; <UNDEFINED> instruction: 0x01bf5300
    1324:	01d80000 	bicseq	r0, r8, r0
    1328:	00040000 	andeq	r0, r4, r0
    132c:	9f5301f3 	svcls	0x005301f3
	...
    1338:	00000080 	andeq	r0, r0, r0, lsl #1
    133c:	0000009c 	muleq	r0, ip, r0
    1340:	00910002 	addseq	r0, r1, r2
    1344:	0000009c 	muleq	r0, ip, r0
    1348:	000001bf 			; <UNDEFINED> instruction: 0x000001bf
    134c:	d8520001 	ldmdale	r2, {r0}^
    1350:	e3000001 	movw	r0, #1
    1354:	01000001 	tsteq	r0, r1
    1358:	00005200 	andeq	r5, r0, r0, lsl #4
    135c:	00000000 	andeq	r0, r0, r0
    1360:	009c0000 	addseq	r0, ip, r0
    1364:	01180000 	tsteq	r8, r0
    1368:	00010000 	andeq	r0, r1, r0
    136c:	0001185d 	andeq	r1, r1, sp, asr r8
    1370:	00011c00 	andeq	r1, r1, r0, lsl #24
    1374:	53000100 	movwpl	r0, #256	; 0x100
    1378:	0000011c 	andeq	r0, r0, ip, lsl r1
    137c:	00000120 	andeq	r0, r0, r0, lsr #2
    1380:	20510001 	subscs	r0, r1, r1
    1384:	60000001 	andvs	r0, r0, r1
    1388:	01000001 	tsteq	r0, r1
    138c:	01605300 	cmneq	r0, r0, lsl #6
    1390:	01680000 	cmneq	r8, r0
    1394:	00010000 	andeq	r0, r1, r0
    1398:	0001685d 	andeq	r6, r1, sp, asr r8
    139c:	00016c00 	andeq	r6, r1, r0, lsl #24
    13a0:	5e000100 	adfpls	f0, f0, f0
    13a4:	0000016c 	andeq	r0, r0, ip, ror #2
    13a8:	00000188 	andeq	r0, r0, r8, lsl #3
    13ac:	88530001 	ldmdahi	r3, {r0}^
    13b0:	90000001 	andls	r0, r0, r1
    13b4:	04000001 	streq	r0, [r0], #-1
    13b8:	7fa19100 	svcvc	0x00a19100
    13bc:	0001909f 	muleq	r1, pc, r0	; <UNPREDICTABLE>
    13c0:	00019400 	andeq	r9, r1, r0, lsl #8
    13c4:	53000100 	movwpl	r0, #256	; 0x100
    13c8:	00000194 	muleq	r0, r4, r1
    13cc:	0000019c 	muleq	r0, ip, r1
    13d0:	9c5d0001 	mrrcls	0, 0, r0, sp, cr1
    13d4:	a0000001 	andge	r0, r0, r1
    13d8:	01000001 	tsteq	r0, r1
    13dc:	01a05e00 	lsleq	r5, r0, #28
    13e0:	01bc0000 			; <UNDEFINED> instruction: 0x01bc0000
    13e4:	00010000 	andeq	r0, r1, r0
    13e8:	0001bc53 	andeq	fp, r1, r3, asr ip
    13ec:	0001d800 	andeq	sp, r1, r0, lsl #16
    13f0:	5d000100 	stfpls	f0, [r0, #-0]
    13f4:	000001d8 	ldrdeq	r0, [r0], -r8
    13f8:	000001e3 	andeq	r0, r0, r3, ror #3
    13fc:	00530001 	subseq	r0, r3, r1
    1400:	00000000 	andeq	r0, r0, r0
    1404:	a0000000 	andge	r0, r0, r0
    1408:	ec000000 	stc	0, cr0, [r0], {-0}
    140c:	01000000 	mrseq	r0, (UNDEF: 0)
    1410:	00ec5c00 	rsceq	r5, ip, r0, lsl #24
    1414:	01000000 	mrseq	r0, (UNDEF: 0)
    1418:	00010000 	andeq	r0, r1, r0
    141c:	00010053 	andeq	r0, r1, r3, asr r0
    1420:	00010400 	andeq	r0, r1, r0, lsl #8
    1424:	5c000100 	stfpls	f0, [r0], {-0}
    1428:	00000104 	andeq	r0, r0, r4, lsl #2
    142c:	00000108 	andeq	r0, r0, r8, lsl #2
    1430:	08530001 	ldmdaeq	r3, {r0}^
    1434:	18000001 	stmdane	r0, {r0}
    1438:	01000001 	tsteq	r0, r1
    143c:	01185c00 	tsteq	r8, r0, lsl #24
    1440:	011c0000 	tsteq	ip, r0
    1444:	00010000 	andeq	r0, r1, r0
    1448:	00011c50 	andeq	r1, r1, r0, asr ip
    144c:	00013c00 	andeq	r3, r1, r0, lsl #24
    1450:	5c000100 	stfpls	f0, [r0], {-0}
    1454:	00000144 	andeq	r0, r0, r4, asr #2
    1458:	00000158 	andeq	r0, r0, r8, asr r1
    145c:	58500001 	ldmdapl	r0, {r0}^
    1460:	60000001 	andvs	r0, r0, r1
    1464:	01000001 	tsteq	r0, r1
    1468:	01605c00 	cmneq	r0, r0, lsl #24
    146c:	01680000 	cmneq	r8, r0
    1470:	00010000 	andeq	r0, r1, r0
    1474:	00016853 	andeq	r6, r1, r3, asr r8
    1478:	00017800 	andeq	r7, r1, r0, lsl #16
    147c:	5c000100 	stfpls	f0, [r0], {-0}
    1480:	00000178 	andeq	r0, r0, r8, ror r1
    1484:	00000180 	andeq	r0, r0, r0, lsl #3
    1488:	007c0005 	rsbseq	r0, ip, r5
    148c:	809f2534 	addshi	r2, pc, r4, lsr r5	; <UNPREDICTABLE>
    1490:	88000001 	stmdahi	r0, {r0}
    1494:	01000001 	tsteq	r0, r1
    1498:	01885c00 	orreq	r5, r8, r0, lsl #24
    149c:	01900000 	orrseq	r0, r0, r0
    14a0:	00010000 	andeq	r0, r1, r0
    14a4:	00019053 	andeq	r9, r1, r3, asr r0
    14a8:	00019400 	andeq	r9, r1, r0, lsl #8
    14ac:	5c000100 	stfpls	f0, [r0], {-0}
    14b0:	00000194 	muleq	r0, r4, r1
    14b4:	0000019c 	muleq	r0, ip, r1
    14b8:	9c530001 	mrrcls	0, 0, r0, r3, cr1
    14bc:	ac000001 	stcge	0, cr0, [r0], {1}
    14c0:	01000001 	tsteq	r0, r1
    14c4:	01ac5c00 			; <UNDEFINED> instruction: 0x01ac5c00
    14c8:	01b40000 			; <UNDEFINED> instruction: 0x01b40000
    14cc:	00050000 	andeq	r0, r5, r0
    14d0:	2531007c 	ldrcs	r0, [r1, #-124]!	; 0x7c
    14d4:	0001b49f 	muleq	r1, pc, r4	; <UNPREDICTABLE>
    14d8:	0001bc00 	andeq	fp, r1, r0, lsl #24
    14dc:	5c000100 	stfpls	f0, [r0], {-0}
    14e0:	000001bc 			; <UNDEFINED> instruction: 0x000001bc
    14e4:	000001bf 			; <UNDEFINED> instruction: 0x000001bf
    14e8:	bf530001 	svclt	0x00530001
    14ec:	d8000001 	stmdale	r0, {r0}
    14f0:	04000001 	streq	r0, [r0], #-1
    14f4:	5301f300 	movwpl	pc, #4864	; 0x1300	; <UNPREDICTABLE>
    14f8:	0001d89f 	muleq	r1, pc, r8	; <UNPREDICTABLE>
    14fc:	0001e300 	andeq	lr, r1, r0, lsl #6
    1500:	5c000100 	stfpls	f0, [r0], {-0}
	...
    150c:	000000ec 	andeq	r0, r0, ip, ror #1
    1510:	000000fc 	strdeq	r0, [r0], -ip
    1514:	9f300002 	svcls	0x00300002
    1518:	000000fc 	strdeq	r0, [r0], -ip
    151c:	00000104 	andeq	r0, r0, r4, lsl #2
    1520:	9f310002 	svcls	0x00310002
    1524:	00000104 	andeq	r0, r0, r4, lsl #2
    1528:	00000108 	andeq	r0, r0, r8, lsl #2
    152c:	9f300002 	svcls	0x00300002
	...
    1538:	0000021c 	andeq	r0, r0, ip, lsl r2
    153c:	0000022b 	andeq	r0, r0, fp, lsr #4
    1540:	2b500001 	blcs	140154c <__bss_end__+0x13f51c4>
    1544:	44000002 	strmi	r0, [r0], #-2
    1548:	04000002 	streq	r0, [r0], #-2
    154c:	5001f300 	andpl	pc, r1, r0, lsl #6
    1550:	0002449f 	muleq	r2, pc, r4	; <UNPREDICTABLE>
    1554:	00027000 	andeq	r7, r2, r0
    1558:	50000100 	andpl	r0, r0, r0, lsl #2
	...
    1564:	0000021c 	andeq	r0, r0, ip, lsl r2
    1568:	0000022b 	andeq	r0, r0, fp, lsr #4
    156c:	2b510001 	blcs	1441578 <__bss_end__+0x14351f0>
    1570:	44000002 	strmi	r0, [r0], #-2
    1574:	04000002 	streq	r0, [r0], #-2
    1578:	5101f300 	mrspl	pc, SP_irq	; <UNPREDICTABLE>
    157c:	0002449f 	muleq	r2, pc, r4	; <UNPREDICTABLE>
    1580:	00027000 	andeq	r7, r2, r0
    1584:	51000100 	mrspl	r0, (UNDEF: 16)
	...
    1590:	00000270 	andeq	r0, r0, r0, ror r2
    1594:	0000029c 	muleq	r0, ip, r2
    1598:	9c500001 	mrrcls	0, 0, r0, r0, cr1	; <UNPREDICTABLE>
    159c:	e4000002 	str	r0, [r0], #-2
    15a0:	01000004 	tsteq	r0, r4
    15a4:	04e45a00 	strbteq	r5, [r4], #2560	; 0xa00
    15a8:	04f80000 	ldrbteq	r0, [r8], #0
    15ac:	00040000 	andeq	r0, r4, r0
    15b0:	9f5001f3 	svcls	0x005001f3
	...
    15bc:	00000270 	andeq	r0, r0, r0, ror r2
    15c0:	00000284 	andeq	r0, r0, r4, lsl #5
    15c4:	84510001 	ldrbhi	r0, [r1], #-1
    15c8:	9c000002 	stcls	0, cr0, [r0], {2}
    15cc:	03000002 	movweq	r0, #2
    15d0:	9f017100 	svcls	0x00017100
    15d4:	0000029c 	muleq	r0, ip, r2
    15d8:	000004f8 	strdeq	r0, [r0], -r8
    15dc:	01f30004 	mvnseq	r0, r4
    15e0:	00009f51 	andeq	r9, r0, r1, asr pc
    15e4:	00000000 	andeq	r0, r0, r0
    15e8:	02700000 	rsbseq	r0, r0, #0
    15ec:	02a40000 	adceq	r0, r4, #0
    15f0:	00010000 	andeq	r0, r1, r0
    15f4:	0002a452 	andeq	sl, r2, r2, asr r4
    15f8:	0002cc00 	andeq	ip, r2, r0, lsl #24
    15fc:	52000100 	andpl	r0, r0, #0, 2
    1600:	000002cc 	andeq	r0, r0, ip, asr #5
    1604:	00000494 	muleq	r0, r4, r4
    1608:	94560001 	ldrbls	r0, [r6], #-1
    160c:	f8000004 			; <UNDEFINED> instruction: 0xf8000004
    1610:	01000004 	tsteq	r0, r4
    1614:	00005200 	andeq	r5, r0, r0, lsl #4
    1618:	00000000 	andeq	r0, r0, r0
    161c:	02700000 	rsbseq	r0, r0, #0
    1620:	028c0000 	addeq	r0, ip, #0
    1624:	00010000 	andeq	r0, r1, r0
    1628:	00000053 	andeq	r0, r0, r3, asr r0
    162c:	00000000 	andeq	r0, r0, r0
    1630:	00028000 	andeq	r8, r2, r0
    1634:	00029c00 	andeq	r9, r2, r0, lsl #24
    1638:	50000100 	andpl	r0, r0, r0, lsl #2
    163c:	0000029c 	muleq	r0, ip, r2
    1640:	000002a0 	andeq	r0, r0, r0, lsr #5
    1644:	a0540001 	subsge	r0, r4, r1
    1648:	ac000002 	stcge	0, cr0, [r0], {2}
    164c:	03000002 	movweq	r0, #2
    1650:	9f017400 	svcls	0x00017400
    1654:	000002ac 	andeq	r0, r0, ip, lsr #5
    1658:	000002b8 			; <UNDEFINED> instruction: 0x000002b8
    165c:	b8540001 	ldmdalt	r4, {r0}^
    1660:	c4000002 	strgt	r0, [r0], #-2
    1664:	03000002 	movweq	r0, #2
    1668:	9f017400 	svcls	0x00017400
    166c:	000002c4 	andeq	r0, r0, r4, asr #5
    1670:	00000498 	muleq	r0, r8, r4
    1674:	98540001 	ldmdals	r4, {r0}^
    1678:	a4000004 	strge	r0, [r0], #-4
    167c:	03000004 	movweq	r0, #4
    1680:	9f017400 	svcls	0x00017400
    1684:	000004a4 	andeq	r0, r0, r4, lsr #9
    1688:	000004d0 	ldrdeq	r0, [r0], -r0	; <UNPREDICTABLE>
    168c:	d0540001 	subsle	r0, r4, r1
    1690:	dc000004 	stcle	0, cr0, [r0], {4}
    1694:	01000004 	tsteq	r0, r4
    1698:	04dc5000 	ldrbeq	r5, [ip], #0
    169c:	04e40000 	strbteq	r0, [r4], #0
    16a0:	00030000 	andeq	r0, r3, r0
    16a4:	009f0174 	addseq	r0, pc, r4, ror r1	; <UNPREDICTABLE>
    16a8:	00000000 	andeq	r0, r0, r0
    16ac:	88000000 	stmdahi	r0, {}	; <UNPREDICTABLE>
    16b0:	e4000002 	str	r0, [r0], #-2
    16b4:	01000004 	tsteq	r0, r4
    16b8:	04e45800 	strbteq	r5, [r4], #2048	; 0x800
    16bc:	04f80000 	ldrbteq	r0, [r8], #0
    16c0:	000a0000 	andeq	r0, sl, r0
    16c4:	f35101f3 	vbsl	q8, <illegal reg q8.5>, <illegal reg q9.5>
    16c8:	31225001 	teqcc	r2, r1
    16cc:	00009f1c 	andeq	r9, r0, ip, lsl pc
    16d0:	00000000 	andeq	r0, r0, r0
    16d4:	03cc0000 	biceq	r0, ip, #0
    16d8:	03d00000 	bicseq	r0, r0, #0
    16dc:	00010000 	andeq	r0, r1, r0
    16e0:	0003f050 	andeq	pc, r3, r0, asr r0	; <UNPREDICTABLE>
    16e4:	0003f400 	andeq	pc, r3, r0, lsl #8
    16e8:	50000100 	andpl	r0, r0, r0, lsl #2
    16ec:	00000414 	andeq	r0, r0, r4, lsl r4
    16f0:	00000418 	andeq	r0, r0, r8, lsl r4
    16f4:	38500001 	ldmdacc	r0, {r0}^
    16f8:	3c000004 	stccc	0, cr0, [r0], {4}
    16fc:	01000004 	tsteq	r0, r4
    1700:	04445000 	strbeq	r5, [r4], #-0
    1704:	04480000 	strbeq	r0, [r8], #-0
    1708:	00010000 	andeq	r0, r1, r0
    170c:	00046850 	andeq	r6, r4, r0, asr r8
    1710:	00046c00 	andeq	r6, r4, r0, lsl #24
    1714:	50000100 	andpl	r0, r0, r0, lsl #2
    1718:	00000490 	muleq	r0, r0, r4
    171c:	000004b8 			; <UNDEFINED> instruction: 0x000004b8
    1720:	00500001 	subseq	r0, r0, r1
    1724:	00000000 	andeq	r0, r0, r0
    1728:	cc000000 	stcgt	0, cr0, [r0], {-0}
    172c:	d4000002 	strle	r0, [r0], #-2
    1730:	02000002 	andeq	r0, r0, #2
    1734:	d49f3000 	ldrle	r3, [pc], #0	; 173c <_start-0x68c4>
    1738:	d8000002 	stmdale	r0, {r1}
    173c:	01000002 	tsteq	r0, r2
    1740:	02e45700 	rsceq	r5, r4, #0, 14
    1744:	04b80000 	ldrteq	r0, [r8], #0
    1748:	00010000 	andeq	r0, r1, r0
    174c:	00000057 	andeq	r0, r0, r7, asr r0
	...
    1758:	00000c00 	andeq	r0, r0, r0, lsl #24
    175c:	50000100 	andpl	r0, r0, r0, lsl #2
    1760:	0000000c 	andeq	r0, r0, ip
    1764:	00000020 	andeq	r0, r0, r0, lsr #32
    1768:	00540001 	subseq	r0, r4, r1
    176c:	00000000 	andeq	r0, r0, r0
    1770:	34000000 	strcc	r0, [r0], #-0
    1774:	3c000000 	stccc	0, cr0, [r0], {-0}
    1778:	03000000 	movweq	r0, #0
    177c:	9f047300 	svcls	0x00047300
    1780:	0000003c 	andeq	r0, r0, ip, lsr r0
    1784:	00000047 	andeq	r0, r0, r7, asr #32
    1788:	00530001 	subseq	r0, r3, r1
    178c:	00000000 	andeq	r0, r0, r0
    1790:	48000000 	stmdami	r0, {}	; <UNPREDICTABLE>
    1794:	74000000 	strvc	r0, [r0], #-0
    1798:	01000000 	mrseq	r0, (UNDEF: 0)
    179c:	00745000 	rsbseq	r5, r4, r0
    17a0:	00830000 	addeq	r0, r3, r0
    17a4:	00030000 	andeq	r0, r3, r0
    17a8:	009f7873 	addseq	r7, pc, r3, ror r8	; <UNPREDICTABLE>
    17ac:	00000000 	andeq	r0, r0, r0
    17b0:	18000000 	stmdane	r0, {}	; <UNPREDICTABLE>
    17b4:	1c00009e 	stcne	0, cr0, [r0], {158}	; 0x9e
    17b8:	0200009e 	andeq	r0, r0, #158	; 0x9e
    17bc:	1c9f3000 	ldcne	0, cr3, [pc], {0}
    17c0:	2000009e 	mulcs	r0, lr, r0
    17c4:	0100009e 	swpeq	r0, lr, [r0]	; <UNPREDICTABLE>
    17c8:	00005000 	andeq	r5, r0, r0
    17cc:	00000000 	andeq	r0, r0, r0
    17d0:	9e300000 	cdpls	0, 3, cr0, cr0, cr0, {0}
    17d4:	9e340000 	cdpls	0, 3, cr0, cr4, cr0, {0}
    17d8:	00020000 	andeq	r0, r2, r0
    17dc:	9e349f30 	mrcls	15, 1, r9, cr4, cr0, {1}
    17e0:	9e380000 	cdpls	0, 3, cr0, cr8, cr0, {0}
    17e4:	00010000 	andeq	r0, r1, r0
    17e8:	009e3c53 	addseq	r3, lr, r3, asr ip
    17ec:	009e4400 	addseq	r4, lr, r0, lsl #8
    17f0:	53000100 	movwpl	r0, #256	; 0x100
	...
    1800:	00000004 	andeq	r0, r0, r4
    1804:	04500001 	ldrbeq	r0, [r0], #-1
    1808:	0c000000 	stceq	0, cr0, [r0], {-0}
    180c:	01000000 	mrseq	r0, (UNDEF: 0)
    1810:	000c5300 	andeq	r5, ip, r0, lsl #6
    1814:	00100000 	andseq	r0, r0, r0
    1818:	00010000 	andeq	r0, r1, r0
    181c:	00001050 	andeq	r1, r0, r0, asr r0
    1820:	00001c00 	andeq	r1, r0, r0, lsl #24
    1824:	53000100 	movwpl	r0, #256	; 0x100
	...
    1830:	0000003c 	andeq	r0, r0, ip, lsr r0
    1834:	00000047 	andeq	r0, r0, r7, asr #32
    1838:	47500001 	ldrbmi	r0, [r0, -r1]
    183c:	60000000 	andvs	r0, r0, r0
    1840:	01000000 	mrseq	r0, (UNDEF: 0)
    1844:	00005500 	andeq	r5, r0, r0, lsl #10
    1848:	00000000 	andeq	r0, r0, r0
    184c:	00500000 	subseq	r0, r0, r0
    1850:	00540000 	subseq	r0, r4, r0
    1854:	00010000 	andeq	r0, r1, r0
    1858:	00000050 	andeq	r0, r0, r0, asr r0
    185c:	00000000 	andeq	r0, r0, r0
    1860:	00006000 	andeq	r6, r0, r0
    1864:	00006c00 	andeq	r6, r0, r0, lsl #24
    1868:	50000100 	andpl	r0, r0, r0, lsl #2
    186c:	0000006c 	andeq	r0, r0, ip, rrx
    1870:	00000074 	andeq	r0, r0, r4, ror r0
    1874:	01f30004 	mvnseq	r0, r4
    1878:	00009f50 	andeq	r9, r0, r0, asr pc
    187c:	00000000 	andeq	r0, r0, r0
    1880:	00740000 	rsbseq	r0, r4, r0
    1884:	00800000 	addeq	r0, r0, r0
    1888:	00010000 	andeq	r0, r1, r0
    188c:	00008050 	andeq	r8, r0, r0, asr r0
    1890:	00008800 	andeq	r8, r0, r0, lsl #16
    1894:	f3000400 	vshl.u8	d0, d0, d0
    1898:	009f5001 	addseq	r5, pc, r1
	...
    18a4:	18000000 	stmdane	r0, {}	; <UNPREDICTABLE>
    18a8:	01000000 	mrseq	r0, (UNDEF: 0)
    18ac:	00185000 	andseq	r5, r8, r0
    18b0:	01540000 	cmpeq	r4, r0
    18b4:	00040000 	andeq	r0, r4, r0
    18b8:	9f5001f3 	svcls	0x005001f3
	...
    18c8:	0000001c 	andeq	r0, r0, ip, lsl r0
    18cc:	1c510001 	mrrcne	0, 0, r0, r1, cr1
    18d0:	54000000 	strpl	r0, [r0], #-0
    18d4:	04000001 	streq	r0, [r0], #-1
    18d8:	5101f300 	mrspl	pc, SP_irq	; <UNPREDICTABLE>
    18dc:	0000009f 	muleq	r0, pc, r0	; <UNPREDICTABLE>
    18e0:	00000000 	andeq	r0, r0, r0
    18e4:	00001000 	andeq	r1, r0, r0
    18e8:	00013400 	andeq	r3, r1, r0, lsl #8
    18ec:	55000100 	strpl	r0, [r0, #-256]	; 0x100
	...
    18f8:	00000010 	andeq	r0, r0, r0, lsl r0
    18fc:	00000034 	andeq	r0, r0, r4, lsr r0
    1900:	34550001 	ldrbcc	r0, [r5], #-1
    1904:	34000000 	strcc	r0, [r0], #-0
    1908:	01000001 	tsteq	r0, r1
    190c:	01345800 	teqeq	r4, r0, lsl #16
    1910:	01540000 	cmpeq	r4, r0
    1914:	00010000 	andeq	r0, r1, r0
    1918:	00000055 	andeq	r0, r0, r5, asr r0
    191c:	00000000 	andeq	r0, r0, r0
    1920:	00001400 	andeq	r1, r0, r0, lsl #8
    1924:	00013400 	andeq	r3, r1, r0, lsl #8
    1928:	55000100 	strpl	r0, [r0, #-256]	; 0x100
	...
    1934:	00000020 	andeq	r0, r0, r0, lsr #32
    1938:	00000134 	andeq	r0, r0, r4, lsr r1
    193c:	00550001 	subseq	r0, r5, r1
    1940:	00000000 	andeq	r0, r0, r0
    1944:	24000000 	strcs	r0, [r0], #-0
    1948:	28000000 	stmdacs	r0, {}	; <UNPREDICTABLE>
    194c:	01000000 	mrseq	r0, (UNDEF: 0)
    1950:	00005300 	andeq	r5, r0, r0, lsl #6
    1954:	00000000 	andeq	r0, r0, r0
    1958:	00340000 	eorseq	r0, r4, r0
    195c:	00540000 	subseq	r0, r4, r0
    1960:	00010000 	andeq	r0, r1, r0
    1964:	00005458 	andeq	r5, r0, r8, asr r4
    1968:	00013400 	andeq	r3, r1, r0, lsl #8
    196c:	75000500 	strvc	r0, [r0, #-1280]	; 0x500
    1970:	9f243100 	svcls	0x00243100
	...
    197c:	00000034 	andeq	r0, r0, r4, lsr r0
    1980:	0000003c 	andeq	r0, r0, ip, lsr r0
    1984:	00770005 	rsbseq	r0, r7, r5
    1988:	3c9f1a31 	vldmiacc	pc, {s2-s50}
    198c:	3f000000 	svccc	0x00000000
    1990:	01000000 	mrseq	r0, (UNDEF: 0)
    1994:	003f5100 	eorseq	r5, pc, r0, lsl #2
    1998:	01540000 	cmpeq	r4, r0
    199c:	00050000 	andeq	r0, r5, r0
    19a0:	1a310077 	bne	c41b84 <__bss_end__+0xc357fc>
    19a4:	0000009f 	muleq	r0, pc, r0	; <UNPREDICTABLE>
    19a8:	00000000 	andeq	r0, r0, r0
    19ac:	00004000 	andeq	r4, r0, r0
    19b0:	00005400 	andeq	r5, r0, r0, lsl #8
    19b4:	58000100 	stmdapl	r0, {r8}
    19b8:	00000054 	andeq	r0, r0, r4, asr r0
    19bc:	00000134 	andeq	r0, r0, r4, lsr r1
    19c0:	00750005 	rsbseq	r0, r5, r5
    19c4:	009f2431 	addseq	r2, pc, r1, lsr r4	; <UNPREDICTABLE>
    19c8:	00000000 	andeq	r0, r0, r0
    19cc:	44000000 	strmi	r0, [r0], #-0
    19d0:	48000000 	stmdami	r0, {}	; <UNPREDICTABLE>
    19d4:	01000000 	mrseq	r0, (UNDEF: 0)
    19d8:	00005300 	andeq	r5, r0, r0, lsl #6
    19dc:	00000000 	andeq	r0, r0, r0
    19e0:	00540000 	subseq	r0, r4, r0
    19e4:	00740000 	rsbseq	r0, r4, r0
    19e8:	00010000 	andeq	r0, r1, r0
    19ec:	00007458 	andeq	r7, r0, r8, asr r4
    19f0:	00013400 	andeq	r3, r1, r0, lsl #8
    19f4:	75000800 	strvc	r0, [r0, #-2048]	; 0x800
    19f8:	75243100 	strvc	r3, [r4, #-256]!	; 0x100
    19fc:	009f2200 	addseq	r2, pc, r0, lsl #4
    1a00:	00000000 	andeq	r0, r0, r0
    1a04:	60000000 	andvs	r0, r0, r0
    1a08:	74000000 	strvc	r0, [r0], #-0
    1a0c:	01000000 	mrseq	r0, (UNDEF: 0)
    1a10:	00745800 	rsbseq	r5, r4, r0, lsl #16
    1a14:	01340000 	teqeq	r4, r0
    1a18:	00080000 	andeq	r0, r8, r0
    1a1c:	24310075 	ldrtcs	r0, [r1], #-117	; 0x75
    1a20:	9f220075 	svcls	0x00220075
	...
    1a2c:	00000064 	andeq	r0, r0, r4, rrx
    1a30:	00000068 	andeq	r0, r0, r8, rrx
    1a34:	00530001 	subseq	r0, r3, r1
    1a38:	00000000 	andeq	r0, r0, r0
    1a3c:	74000000 	strvc	r0, [r0], #-0
    1a40:	94000000 	strls	r0, [r0], #-0
    1a44:	01000000 	mrseq	r0, (UNDEF: 0)
    1a48:	00945800 	addseq	r5, r4, r0, lsl #16
    1a4c:	01340000 	teqeq	r4, r0
    1a50:	00050000 	andeq	r0, r5, r0
    1a54:	24320075 	ldrtcs	r0, [r2], #-117	; 0x75
    1a58:	0000009f 	muleq	r0, pc, r0	; <UNPREDICTABLE>
    1a5c:	00000000 	andeq	r0, r0, r0
    1a60:	00008000 	andeq	r8, r0, r0
    1a64:	00009400 	andeq	r9, r0, r0, lsl #8
    1a68:	58000100 	stmdapl	r0, {r8}
    1a6c:	00000094 	muleq	r0, r4, r0
    1a70:	00000134 	andeq	r0, r0, r4, lsr r1
    1a74:	00750005 	rsbseq	r0, r5, r5
    1a78:	009f2432 	addseq	r2, pc, r2, lsr r4	; <UNPREDICTABLE>
    1a7c:	00000000 	andeq	r0, r0, r0
    1a80:	84000000 	strhi	r0, [r0], #-0
    1a84:	88000000 	stmdahi	r0, {}	; <UNPREDICTABLE>
    1a88:	01000000 	mrseq	r0, (UNDEF: 0)
    1a8c:	00005300 	andeq	r5, r0, r0, lsl #6
    1a90:	00000000 	andeq	r0, r0, r0
    1a94:	00940000 	addseq	r0, r4, r0
    1a98:	00b40000 	adcseq	r0, r4, r0
    1a9c:	00010000 	andeq	r0, r1, r0
    1aa0:	0000b458 	andeq	fp, r0, r8, asr r4
    1aa4:	00013400 	andeq	r3, r1, r0, lsl #8
    1aa8:	75000800 	strvc	r0, [r0, #-2048]	; 0x800
    1aac:	75243200 	strvc	r3, [r4, #-512]!	; 0x200
    1ab0:	009f2200 	addseq	r2, pc, r0, lsl #4
    1ab4:	00000000 	andeq	r0, r0, r0
    1ab8:	a0000000 	andge	r0, r0, r0
    1abc:	b4000000 	strlt	r0, [r0], #-0
    1ac0:	01000000 	mrseq	r0, (UNDEF: 0)
    1ac4:	00b45800 	adcseq	r5, r4, r0, lsl #16
    1ac8:	01340000 	teqeq	r4, r0
    1acc:	00080000 	andeq	r0, r8, r0
    1ad0:	24320075 	ldrtcs	r0, [r2], #-117	; 0x75
    1ad4:	9f220075 	svcls	0x00220075
	...
    1ae0:	000000a4 	andeq	r0, r0, r4, lsr #1
    1ae4:	000000a8 	andeq	r0, r0, r8, lsr #1
    1ae8:	00530001 	subseq	r0, r3, r1
    1aec:	00000000 	andeq	r0, r0, r0
    1af0:	b4000000 	strlt	r0, [r0], #-0
    1af4:	d4000000 	strle	r0, [r0], #-0
    1af8:	01000000 	mrseq	r0, (UNDEF: 0)
    1afc:	00d45800 	sbcseq	r5, r4, r0, lsl #16
    1b00:	01340000 	teqeq	r4, r0
    1b04:	000a0000 	andeq	r0, sl, r0
    1b08:	24320075 	ldrtcs	r0, [r2], #-117	; 0x75
    1b0c:	24310075 	ldrtcs	r0, [r1], #-117	; 0x75
    1b10:	00009f22 	andeq	r9, r0, r2, lsr #30
    1b14:	00000000 	andeq	r0, r0, r0
    1b18:	00c00000 	sbceq	r0, r0, r0
    1b1c:	00d40000 	sbcseq	r0, r4, r0
    1b20:	00010000 	andeq	r0, r1, r0
    1b24:	0000d458 	andeq	sp, r0, r8, asr r4
    1b28:	00013400 	andeq	r3, r1, r0, lsl #8
    1b2c:	75000a00 	strvc	r0, [r0, #-2560]	; 0xa00
    1b30:	75243200 	strvc	r3, [r4, #-512]!	; 0x200
    1b34:	22243100 	eorcs	r3, r4, #0, 2
    1b38:	0000009f 	muleq	r0, pc, r0	; <UNPREDICTABLE>
    1b3c:	00000000 	andeq	r0, r0, r0
    1b40:	0000c400 	andeq	ip, r0, r0, lsl #8
    1b44:	0000c800 	andeq	ip, r0, r0, lsl #16
    1b48:	53000100 	movwpl	r0, #256	; 0x100
	...
    1b54:	000000d4 	ldrdeq	r0, [r0], -r4
    1b58:	000000f4 	strdeq	r0, [r0], -r4
    1b5c:	f4580001 			; <UNDEFINED> instruction: 0xf4580001
    1b60:	34000000 	strcc	r0, [r0], #-0
    1b64:	0d000001 	stceq	0, cr0, [r0, #-4]
    1b68:	32007500 	andcc	r7, r0, #0, 10
    1b6c:	31007524 	tstcc	r0, r4, lsr #10
    1b70:	00752224 	rsbseq	r2, r5, r4, lsr #4
    1b74:	00009f22 	andeq	r9, r0, r2, lsr #30
    1b78:	00000000 	andeq	r0, r0, r0
    1b7c:	00e00000 	rsceq	r0, r0, r0
    1b80:	00f40000 	rscseq	r0, r4, r0
    1b84:	00010000 	andeq	r0, r1, r0
    1b88:	0000f458 	andeq	pc, r0, r8, asr r4	; <UNPREDICTABLE>
    1b8c:	00013400 	andeq	r3, r1, r0, lsl #8
    1b90:	75000d00 	strvc	r0, [r0, #-3328]	; 0xd00
    1b94:	75243200 	strvc	r3, [r4, #-512]!	; 0x200
    1b98:	22243100 	eorcs	r3, r4, #0, 2
    1b9c:	9f220075 	svcls	0x00220075
	...
    1ba8:	000000e4 	andeq	r0, r0, r4, ror #1
    1bac:	000000e8 	andeq	r0, r0, r8, ror #1
    1bb0:	00530001 	subseq	r0, r3, r1
    1bb4:	00000000 	andeq	r0, r0, r0
    1bb8:	f4000000 	vst4.8	{d0-d3}, [r0], r0
    1bbc:	14000000 	strne	r0, [r0], #-0
    1bc0:	01000001 	tsteq	r0, r1
    1bc4:	01145800 	tsteq	r4, r0, lsl #16
    1bc8:	01340000 	teqeq	r4, r0
    1bcc:	00050000 	andeq	r0, r5, r0
    1bd0:	24330075 	ldrtcs	r0, [r3], #-117	; 0x75
    1bd4:	0000009f 	muleq	r0, pc, r0	; <UNPREDICTABLE>
    1bd8:	00000000 	andeq	r0, r0, r0
    1bdc:	00010000 	andeq	r0, r1, r0
    1be0:	00011400 	andeq	r1, r1, r0, lsl #8
    1be4:	58000100 	stmdapl	r0, {r8}
    1be8:	00000114 	andeq	r0, r0, r4, lsl r1
    1bec:	00000134 	andeq	r0, r0, r4, lsr r1
    1bf0:	00750005 	rsbseq	r0, r5, r5
    1bf4:	009f2433 	addseq	r2, pc, r3, lsr r4	; <UNPREDICTABLE>
    1bf8:	00000000 	andeq	r0, r0, r0
    1bfc:	04000000 	streq	r0, [r0], #-0
    1c00:	08000001 	stmdaeq	r0, {r0}
    1c04:	01000001 	tsteq	r0, r1
    1c08:	00005300 	andeq	r5, r0, r0, lsl #6
    1c0c:	00000000 	andeq	r0, r0, r0
    1c10:	01140000 	tsteq	r4, r0
    1c14:	011c0000 	tsteq	ip, r0
    1c18:	00060000 	andeq	r0, r6, r0
    1c1c:	80080077 	andhi	r0, r8, r7, ror r0
    1c20:	011c9f1a 	tsteq	ip, sl, lsl pc
    1c24:	011f0000 	tsteq	pc, r0
    1c28:	00010000 	andeq	r0, r1, r0
    1c2c:	00011f51 	andeq	r1, r1, r1, asr pc
    1c30:	00015400 	andeq	r5, r1, r0, lsl #8
    1c34:	77000600 	strvc	r0, [r0, -r0, lsl #12]
    1c38:	1a800800 	bne	fe003c40 <__bss_end__+0xfdff78b8>
    1c3c:	0000009f 	muleq	r0, pc, r0	; <UNPREDICTABLE>
    1c40:	00000000 	andeq	r0, r0, r0
    1c44:	00012400 	andeq	r2, r1, r0, lsl #8
    1c48:	00012800 	andeq	r2, r1, r0, lsl #16
    1c4c:	53000100 	movwpl	r0, #256	; 0x100
	...
    1c58:	00000144 	andeq	r0, r0, r4, asr #2
    1c5c:	00000148 	andeq	r0, r0, r8, asr #2
    1c60:	00530001 	subseq	r0, r3, r1
    1c64:	00000000 	andeq	r0, r0, r0
    1c68:	54000000 	strpl	r0, [r0], #-0
    1c6c:	6b000001 	blvs	1c78 <_start-0x6388>
    1c70:	01000001 	tsteq	r0, r1
    1c74:	016b5000 	cmneq	fp, r0
    1c78:	01d00000 	bicseq	r0, r0, r0
    1c7c:	00010000 	andeq	r0, r1, r0
    1c80:	0001d059 	andeq	sp, r1, r9, asr r0
    1c84:	00030c00 	andeq	r0, r3, r0, lsl #24
    1c88:	f3000400 	vshl.u8	d0, d0, d0
    1c8c:	0c9f5001 	ldceq	0, cr5, [pc], {1}
    1c90:	14000003 	strne	r0, [r0], #-3
    1c94:	01000003 	tsteq	r0, r3
    1c98:	03145900 	tsteq	r4, #0, 18
    1c9c:	031c0000 	tsteq	ip, #0
    1ca0:	00040000 	andeq	r0, r4, r0
    1ca4:	9f5001f3 	svcls	0x005001f3
	...
    1cb0:	00000154 	andeq	r0, r0, r4, asr r1
    1cb4:	0000016b 	andeq	r0, r0, fp, ror #2
    1cb8:	6b510001 	blvs	1441cc4 <__bss_end__+0x143593c>
    1cbc:	1c000001 	stcne	0, cr0, [r0], {1}
    1cc0:	01000003 	tsteq	r0, r3
    1cc4:	00005600 	andeq	r5, r0, r0, lsl #12
    1cc8:	00000000 	andeq	r0, r0, r0
    1ccc:	01a80000 			; <UNDEFINED> instruction: 0x01a80000
    1cd0:	02980000 	addseq	r0, r8, #0
    1cd4:	00010000 	andeq	r0, r1, r0
    1cd8:	00000058 	andeq	r0, r0, r8, asr r0
    1cdc:	00000000 	andeq	r0, r0, r0
    1ce0:	0001ac00 	andeq	sl, r1, r0, lsl #24
    1ce4:	0002d000 	andeq	sp, r2, r0
    1ce8:	54000100 	strpl	r0, [r0], #-256	; 0x100
	...
    1cf4:	000001ac 	andeq	r0, r0, ip, lsr #3
    1cf8:	000002d0 	ldrdeq	r0, [r0], -r0	; <UNPREDICTABLE>
    1cfc:	00740005 	rsbseq	r0, r4, r5
    1d00:	009f2531 	addseq	r2, pc, r1, lsr r5	; <UNPREDICTABLE>
    1d04:	00000000 	andeq	r0, r0, r0
    1d08:	ac000000 	stcge	0, cr0, [r0], {-0}
    1d0c:	d0000001 	andle	r0, r0, r1
    1d10:	02000001 	andeq	r0, r0, #1
    1d14:	d09f3000 	addsle	r3, pc, r0
    1d18:	0c000001 	stceq	0, cr0, [r0], {1}
    1d1c:	01000003 	tsteq	r0, r3
    1d20:	03145900 	tsteq	r4, #0, 18
    1d24:	031c0000 	tsteq	ip, #0
    1d28:	00010000 	andeq	r0, r1, r0
    1d2c:	00000059 	andeq	r0, r0, r9, asr r0
    1d30:	00000000 	andeq	r0, r0, r0
    1d34:	00016800 	andeq	r6, r1, r0, lsl #16
    1d38:	00016b00 	andeq	r6, r1, r0, lsl #22
    1d3c:	51000100 	mrspl	r0, (UNDEF: 16)
    1d40:	0000016b 	andeq	r0, r0, fp, ror #2
    1d44:	0000031c 	andeq	r0, r0, ip, lsl r3
    1d48:	00560001 	subseq	r0, r6, r1
    1d4c:	00000000 	andeq	r0, r0, r0
    1d50:	70000000 	andvc	r0, r0, r0
    1d54:	ac000001 	stcge	0, cr0, [r0], {1}
    1d58:	01000001 	tsteq	r0, r1
    1d5c:	030c5400 	movweq	r5, #50176	; 0xc400
    1d60:	03140000 	tsteq	r4, #0
    1d64:	00010000 	andeq	r0, r1, r0
    1d68:	00000054 	andeq	r0, r0, r4, asr r0
    1d6c:	00000000 	andeq	r0, r0, r0
    1d70:	0001a800 	andeq	sl, r1, r0, lsl #16
    1d74:	0001c400 	andeq	ip, r1, r0, lsl #8
    1d78:	58000100 	stmdapl	r0, {r8}
	...
    1d84:	000001b0 			; <UNDEFINED> instruction: 0x000001b0
    1d88:	000001cb 	andeq	r0, r0, fp, asr #3
    1d8c:	cb520001 	blgt	1481d98 <__bss_end__+0x1475a10>
    1d90:	d0000001 	andle	r0, r0, r1
    1d94:	08000002 	stmdaeq	r0, {r1}
    1d98:	31007400 	tstcc	r0, r0, lsl #8
    1d9c:	22007425 	andcs	r7, r0, #620756992	; 0x25000000
    1da0:	0000009f 	muleq	r0, pc, r0	; <UNPREDICTABLE>
    1da4:	00000000 	andeq	r0, r0, r0
    1da8:	0001b000 	andeq	fp, r1, r0
    1dac:	0001c400 	andeq	ip, r1, r0, lsl #8
    1db0:	58000100 	stmdapl	r0, {r8}
	...
    1dbc:	000001b4 			; <UNDEFINED> instruction: 0x000001b4
    1dc0:	000001b8 			; <UNDEFINED> instruction: 0x000001b8
    1dc4:	00530001 	subseq	r0, r3, r1
    1dc8:	00000000 	andeq	r0, r0, r0
    1dcc:	d0000000 	andle	r0, r0, r0
    1dd0:	d0000001 	andle	r0, r0, r1
    1dd4:	01000002 	tsteq	r0, r2
    1dd8:	00005400 	andeq	r5, r0, r0, lsl #8
    1ddc:	00000000 	andeq	r0, r0, r0
    1de0:	01d00000 	bicseq	r0, r0, r0
    1de4:	01e40000 	mvneq	r0, r0
    1de8:	00010000 	andeq	r0, r1, r0
    1dec:	00000058 	andeq	r0, r0, r8, asr r0
    1df0:	00000000 	andeq	r0, r0, r0
    1df4:	0001d400 	andeq	sp, r1, r0, lsl #8
    1df8:	0001d800 	andeq	sp, r1, r0, lsl #16
    1dfc:	53000100 	movwpl	r0, #256	; 0x100
	...
    1e08:	000001f4 	strdeq	r0, [r0], -r4
    1e0c:	000002d0 	ldrdeq	r0, [r0], -r0	; <UNPREDICTABLE>
    1e10:	00540001 	subseq	r0, r4, r1
    1e14:	00000000 	andeq	r0, r0, r0
    1e18:	f4000000 	vst4.8	{d0-d3}, [r0], r0
    1e1c:	08000001 	stmdaeq	r0, {r0}
    1e20:	01000002 	tsteq	r0, r2
    1e24:	00005800 	andeq	r5, r0, r0, lsl #16
    1e28:	00000000 	andeq	r0, r0, r0
    1e2c:	01f80000 	mvnseq	r0, r0
    1e30:	01fc0000 	mvnseq	r0, r0
    1e34:	00010000 	andeq	r0, r1, r0
    1e38:	00000053 	andeq	r0, r0, r3, asr r0
    1e3c:	00000000 	andeq	r0, r0, r0
    1e40:	00021800 	andeq	r1, r2, r0, lsl #16
    1e44:	0002d000 	andeq	sp, r2, r0
    1e48:	54000100 	strpl	r0, [r0], #-256	; 0x100
	...
    1e54:	00000218 	andeq	r0, r0, r8, lsl r2
    1e58:	0000022c 	andeq	r0, r0, ip, lsr #4
    1e5c:	00580001 	subseq	r0, r8, r1
    1e60:	00000000 	andeq	r0, r0, r0
    1e64:	1c000000 	stcne	0, cr0, [r0], {-0}
    1e68:	20000002 	andcs	r0, r0, r2
    1e6c:	01000002 	tsteq	r0, r2
    1e70:	00005300 	andeq	r5, r0, r0, lsl #6
    1e74:	00000000 	andeq	r0, r0, r0
    1e78:	023c0000 	eorseq	r0, ip, #0
    1e7c:	02d00000 	sbcseq	r0, r0, #0
    1e80:	00010000 	andeq	r0, r1, r0
    1e84:	00000054 	andeq	r0, r0, r4, asr r0
    1e88:	00000000 	andeq	r0, r0, r0
    1e8c:	00023c00 	andeq	r3, r2, r0, lsl #24
    1e90:	00025000 	andeq	r5, r2, r0
    1e94:	58000100 	stmdapl	r0, {r8}
	...
    1ea0:	00000240 	andeq	r0, r0, r0, asr #4
    1ea4:	00000244 	andeq	r0, r0, r4, asr #4
    1ea8:	00530001 	subseq	r0, r3, r1
    1eac:	00000000 	andeq	r0, r0, r0
    1eb0:	60000000 	andvs	r0, r0, r0
    1eb4:	d0000002 	andle	r0, r0, r2
    1eb8:	01000002 	tsteq	r0, r2
    1ebc:	00005400 	andeq	r5, r0, r0, lsl #8
    1ec0:	00000000 	andeq	r0, r0, r0
    1ec4:	02600000 	rsbeq	r0, r0, #0
    1ec8:	02740000 	rsbseq	r0, r4, #0
    1ecc:	00010000 	andeq	r0, r1, r0
    1ed0:	00000058 	andeq	r0, r0, r8, asr r0
    1ed4:	00000000 	andeq	r0, r0, r0
    1ed8:	00026400 	andeq	r6, r2, r0, lsl #8
    1edc:	00026800 	andeq	r6, r2, r0, lsl #16
    1ee0:	53000100 	movwpl	r0, #256	; 0x100
	...
    1eec:	00000284 	andeq	r0, r0, r4, lsl #5
    1ef0:	000002d0 	ldrdeq	r0, [r0], -r0	; <UNPREDICTABLE>
    1ef4:	00540001 	subseq	r0, r4, r1
    1ef8:	00000000 	andeq	r0, r0, r0
    1efc:	84000000 	strhi	r0, [r0], #-0
    1f00:	98000002 	stmdals	r0, {r1}
    1f04:	01000002 	tsteq	r0, r2
    1f08:	00005800 	andeq	r5, r0, r0, lsl #16
    1f0c:	00000000 	andeq	r0, r0, r0
    1f10:	02880000 	addeq	r0, r8, #0
    1f14:	028c0000 	addeq	r0, ip, #0
    1f18:	00010000 	andeq	r0, r1, r0
    1f1c:	00000053 	andeq	r0, r0, r3, asr r0
    1f20:	00000000 	andeq	r0, r0, r0
    1f24:	0002a800 	andeq	sl, r2, r0, lsl #16
    1f28:	0002d000 	andeq	sp, r2, r0
    1f2c:	54000100 	strpl	r0, [r0], #-256	; 0x100
	...
    1f38:	000002ac 	andeq	r0, r0, ip, lsr #5
    1f3c:	000002b0 			; <UNDEFINED> instruction: 0x000002b0
    1f40:	00530001 	subseq	r0, r3, r1
    1f44:	00000000 	andeq	r0, r0, r0
    1f48:	c8000000 	stmdagt	r0, {}	; <UNPREDICTABLE>
    1f4c:	0c000002 	stceq	0, cr0, [r0], {2}
    1f50:	02000003 	andeq	r0, r0, #3
    1f54:	149f3000 	ldrne	r3, [pc], #0	; 1f5c <_start-0x60a4>
    1f58:	1c000003 	stcne	0, cr0, [r0], {3}
    1f5c:	02000003 	andeq	r0, r0, #3
    1f60:	009f3000 	addseq	r3, pc, r0
    1f64:	00000000 	andeq	r0, r0, r0
    1f68:	c8000000 	stmdagt	r0, {}	; <UNPREDICTABLE>
    1f6c:	0c000002 	stceq	0, cr0, [r0], {2}
    1f70:	01000003 	tsteq	r0, r3
    1f74:	03145500 	tsteq	r4, #0, 10
    1f78:	031c0000 	tsteq	ip, #0
    1f7c:	00010000 	andeq	r0, r1, r0
    1f80:	00000055 	andeq	r0, r0, r5, asr r0
    1f84:	00000000 	andeq	r0, r0, r0
    1f88:	0002d000 	andeq	sp, r2, r0
    1f8c:	00030c00 	andeq	r0, r3, r0, lsl #24
    1f90:	54000100 	strpl	r0, [r0], #-256	; 0x100
    1f94:	00000314 	andeq	r0, r0, r4, lsl r3
    1f98:	0000031c 	andeq	r0, r0, ip, lsl r3
    1f9c:	00540001 	subseq	r0, r4, r1
    1fa0:	00000000 	andeq	r0, r0, r0
    1fa4:	1c000000 	stcne	0, cr0, [r0], {-0}
    1fa8:	3b000003 	blcc	1fbc <_start-0x6044>
    1fac:	01000003 	tsteq	r0, r3
    1fb0:	033b5000 	teqeq	fp, #0
    1fb4:	03540000 	cmpeq	r4, #0
    1fb8:	00010000 	andeq	r0, r1, r0
    1fbc:	00035458 	andeq	r5, r3, r8, asr r4
    1fc0:	00036400 	andeq	r6, r3, r0, lsl #8
    1fc4:	50000100 	andpl	r0, r0, r0, lsl #2
    1fc8:	00000364 	andeq	r0, r0, r4, ror #6
    1fcc:	000003ac 	andeq	r0, r0, ip, lsr #7
    1fd0:	00580001 	subseq	r0, r8, r1
    1fd4:	00000000 	andeq	r0, r0, r0
    1fd8:	1c000000 	stcne	0, cr0, [r0], {-0}
    1fdc:	3b000003 	blcc	1ff0 <_start-0x6010>
    1fe0:	01000003 	tsteq	r0, r3
    1fe4:	033b5100 	teqeq	fp, #0, 2
    1fe8:	03540000 	cmpeq	r4, #0
    1fec:	00010000 	andeq	r0, r1, r0
    1ff0:	00035456 	andeq	r5, r3, r6, asr r4
    1ff4:	00036400 	andeq	r6, r3, r0, lsl #8
    1ff8:	51000100 	mrspl	r0, (UNDEF: 16)
    1ffc:	00000364 	andeq	r0, r0, r4, ror #6
    2000:	000003ac 	andeq	r0, r0, ip, lsr #7
    2004:	00560001 	subseq	r0, r6, r1
    2008:	00000000 	andeq	r0, r0, r0
    200c:	1c000000 	stcne	0, cr0, [r0], {-0}
    2010:	3b000003 	blcc	2024 <_start-0x5fdc>
    2014:	01000003 	tsteq	r0, r3
    2018:	033b5200 	teqeq	fp, #0, 4
    201c:	03540000 	cmpeq	r4, #0
    2020:	00040000 	andeq	r0, r4, r0
    2024:	9f5201f3 	svcls	0x005201f3
    2028:	00000354 	andeq	r0, r0, r4, asr r3
    202c:	00000364 	andeq	r0, r0, r4, ror #6
    2030:	64520001 	ldrbvs	r0, [r2], #-1
    2034:	ac000003 	stcge	0, cr0, [r0], {3}
    2038:	03000003 	movweq	r0, #3
    203c:	9f017700 	svcls	0x00017700
	...
    2048:	0000031c 	andeq	r0, r0, ip, lsl r3
    204c:	0000033b 	andeq	r0, r0, fp, lsr r3
    2050:	3b530001 	blcc	14c205c <__bss_end__+0x14b5cd4>
    2054:	54000003 	strpl	r0, [r0], #-3
    2058:	04000003 	streq	r0, [r0], #-3
    205c:	5301f300 	movwpl	pc, #4864	; 0x1300	; <UNPREDICTABLE>
    2060:	0003549f 	muleq	r3, pc, r4	; <UNPREDICTABLE>
    2064:	00036400 	andeq	r6, r3, r0, lsl #8
    2068:	53000100 	movwpl	r0, #256	; 0x100
    206c:	00000364 	andeq	r0, r0, r4, ror #6
    2070:	000003ac 	andeq	r0, r0, ip, lsr #7
    2074:	01f30004 	mvnseq	r0, r4
    2078:	00009f53 	andeq	r9, r0, r3, asr pc
    207c:	00000000 	andeq	r0, r0, r0
    2080:	035c0000 	cmpeq	ip, #0
    2084:	03640000 	cmneq	r4, #0
    2088:	00020000 	andeq	r0, r2, r0
    208c:	03649f30 	cmneq	r4, #48, 30	; 0xc0
    2090:	03ac0000 			; <UNDEFINED> instruction: 0x03ac0000
    2094:	00010000 	andeq	r0, r1, r0
    2098:	00000054 	andeq	r0, r0, r4, asr r0
    209c:	00000000 	andeq	r0, r0, r0
    20a0:	00037400 	andeq	r7, r3, r0, lsl #8
    20a4:	00038400 	andeq	r8, r3, r0, lsl #8
    20a8:	50000100 	andpl	r0, r0, r0, lsl #2
	...
    20b4:	000003ac 	andeq	r0, r0, ip, lsr #7
    20b8:	000003c7 	andeq	r0, r0, r7, asr #7
    20bc:	c7500001 	ldrbgt	r0, [r0, -r1]
    20c0:	e0000003 	and	r0, r0, r3
    20c4:	01000003 	tsteq	r0, r3
    20c8:	03e05700 	mvneq	r5, #0, 14
    20cc:	03f00000 	mvnseq	r0, #0
    20d0:	00010000 	andeq	r0, r1, r0
    20d4:	0003f050 	andeq	pc, r3, r0, asr r0	; <UNPREDICTABLE>
    20d8:	00042800 	andeq	r2, r4, r0, lsl #16
    20dc:	57000100 	strpl	r0, [r0, -r0, lsl #2]
	...
    20e8:	000003ac 	andeq	r0, r0, ip, lsr #7
    20ec:	000003c7 	andeq	r0, r0, r7, asr #7
    20f0:	c7510001 	ldrbgt	r0, [r1, -r1]
    20f4:	e0000003 	and	r0, r0, r3
    20f8:	01000003 	tsteq	r0, r3
    20fc:	03e05500 	mvneq	r5, #0, 10
    2100:	03f00000 	mvnseq	r0, #0
    2104:	00010000 	andeq	r0, r1, r0
    2108:	0003f051 	andeq	pc, r3, r1, asr r0	; <UNPREDICTABLE>
    210c:	00042800 	andeq	r2, r4, r0, lsl #16
    2110:	55000100 	strpl	r0, [r0, #-256]	; 0x100
	...
    211c:	000003ac 	andeq	r0, r0, ip, lsr #7
    2120:	000003c7 	andeq	r0, r0, r7, asr #7
    2124:	c7520001 	ldrbgt	r0, [r2, -r1]
    2128:	e0000003 	and	r0, r0, r3
    212c:	04000003 	streq	r0, [r0], #-3
    2130:	5201f300 	andpl	pc, r1, #0, 6
    2134:	0003e09f 	muleq	r3, pc, r0	; <UNPREDICTABLE>
    2138:	0003f000 	andeq	pc, r3, r0
    213c:	52000100 	andpl	r0, r0, #0, 2
    2140:	000003f0 	strdeq	r0, [r0], -r0	; <UNPREDICTABLE>
    2144:	00000428 	andeq	r0, r0, r8, lsr #8
    2148:	01760003 	cmneq	r6, r3
    214c:	0000009f 	muleq	r0, pc, r0	; <UNPREDICTABLE>
    2150:	00000000 	andeq	r0, r0, r0
    2154:	0003ac00 	andeq	sl, r3, r0, lsl #24
    2158:	0003c700 	andeq	ip, r3, r0, lsl #14
    215c:	53000100 	movwpl	r0, #256	; 0x100
    2160:	000003c7 	andeq	r0, r0, r7, asr #7
    2164:	000003e0 	andeq	r0, r0, r0, ror #7
    2168:	e0580001 	subs	r0, r8, r1
    216c:	f0000003 			; <UNDEFINED> instruction: 0xf0000003
    2170:	01000003 	tsteq	r0, r3
    2174:	03f05300 	mvnseq	r5, #0, 6
    2178:	04280000 	strteq	r0, [r8], #-0
    217c:	00010000 	andeq	r0, r1, r0
    2180:	00000058 	andeq	r0, r0, r8, asr r0
    2184:	00000000 	andeq	r0, r0, r0
    2188:	0003e800 	andeq	lr, r3, r0, lsl #16
    218c:	0003f000 	andeq	pc, r3, r0
    2190:	30000200 	andcc	r0, r0, r0, lsl #4
    2194:	0003f09f 	muleq	r3, pc, r0	; <UNPREDICTABLE>
    2198:	00042800 	andeq	r2, r4, r0, lsl #16
    219c:	54000100 	strpl	r0, [r0], #-256	; 0x100
	...
    21a8:	00000428 	andeq	r0, r0, r8, lsr #8
    21ac:	00000447 	andeq	r0, r0, r7, asr #8
    21b0:	47510001 	ldrbmi	r0, [r1, -r1]
    21b4:	e8000004 	stmda	r0, {r2}
    21b8:	04000004 	streq	r0, [r0], #-4
    21bc:	5101f300 	mrspl	pc, SP_irq	; <UNPREDICTABLE>
    21c0:	0000009f 	muleq	r0, pc, r0	; <UNPREDICTABLE>
    21c4:	00000000 	andeq	r0, r0, r0
    21c8:	00042800 	andeq	r2, r4, r0, lsl #16
    21cc:	00044700 	andeq	r4, r4, r0, lsl #14
    21d0:	52000100 	andpl	r0, r0, #0, 2
    21d4:	00000447 	andeq	r0, r0, r7, asr #8
    21d8:	000004e8 	andeq	r0, r0, r8, ror #9
    21dc:	01f30004 	mvnseq	r0, r4
    21e0:	00009f52 	andeq	r9, r0, r2, asr pc
    21e4:	00000000 	andeq	r0, r0, r0
    21e8:	04280000 	strteq	r0, [r8], #-0
    21ec:	04470000 	strbeq	r0, [r7], #-0
    21f0:	00010000 	andeq	r0, r1, r0
    21f4:	00044753 	andeq	r4, r4, r3, asr r7
    21f8:	0004e800 	andeq	lr, r4, r0, lsl #16
    21fc:	55000100 	strpl	r0, [r0, #-256]	; 0x100
	...
    2208:	00000468 	andeq	r0, r0, r8, ror #8
    220c:	000004a7 	andeq	r0, r0, r7, lsr #9
    2210:	a7520001 	ldrbge	r0, [r2, -r1]
    2214:	c0000004 	andgt	r0, r0, r4
    2218:	06000004 	streq	r0, [r0], -r4
    221c:	77007500 	strvc	r7, [r0, -r0, lsl #10]
    2220:	c09f1e00 	addsgt	r1, pc, r0, lsl #28
    2224:	e8000004 	stmda	r0, {r2}
    2228:	01000004 	tsteq	r0, r4
    222c:	00005200 	andeq	r5, r0, r0, lsl #4
    2230:	00000000 	andeq	r0, r0, r0
    2234:	04e80000 	strbteq	r0, [r8], #0
    2238:	04f30000 	ldrbteq	r0, [r3], #0
    223c:	00010000 	andeq	r0, r1, r0
    2240:	0004f350 	andeq	pc, r4, r0, asr r3	; <UNPREDICTABLE>
    2244:	00052400 	andeq	r2, r5, r0, lsl #8
    2248:	f3000400 	vshl.u8	d0, d0, d0
    224c:	009f5001 	addseq	r5, pc, r1
    2250:	00000000 	andeq	r0, r0, r0
    2254:	f4000000 	vst4.8	{d0-d3}, [r0], r0
    2258:	ff000004 			; <UNDEFINED> instruction: 0xff000004
    225c:	01000004 	tsteq	r0, r4
    2260:	00005000 	andeq	r5, r0, r0
    2264:	00000000 	andeq	r0, r0, r0
    2268:	05240000 	streq	r0, [r4, #-0]!
    226c:	05340000 	ldreq	r0, [r4, #-0]!
    2270:	00010000 	andeq	r0, r1, r0
    2274:	00053450 	andeq	r3, r5, r0, asr r4
    2278:	00055000 	andeq	r5, r5, r0
    227c:	55000100 	strpl	r0, [r0, #-256]	; 0x100
	...
    2288:	00000524 	andeq	r0, r0, r4, lsr #10
    228c:	00000534 	andeq	r0, r0, r4, lsr r5
    2290:	34510001 	ldrbcc	r0, [r1], #-1
    2294:	50000005 	andpl	r0, r0, r5
    2298:	01000005 	tsteq	r0, r5
    229c:	00005400 	andeq	r5, r0, r0, lsl #8
    22a0:	00000000 	andeq	r0, r0, r0
    22a4:	05500000 	ldrbeq	r0, [r0, #-0]
    22a8:	056c0000 	strbeq	r0, [ip, #-0]!
    22ac:	00010000 	andeq	r0, r1, r0
    22b0:	00056c50 	andeq	r6, r5, r0, asr ip
    22b4:	0005bc00 	andeq	fp, r5, r0, lsl #24
    22b8:	55000100 	strpl	r0, [r0, #-256]	; 0x100
    22bc:	000005bc 			; <UNDEFINED> instruction: 0x000005bc
    22c0:	000005d4 	ldrdeq	r0, [r0], -r4
    22c4:	01f30004 	mvnseq	r0, r4
    22c8:	00009f50 	andeq	r9, r0, r0, asr pc
    22cc:	00000000 	andeq	r0, r0, r0
    22d0:	057c0000 	ldrbeq	r0, [ip, #-0]!
    22d4:	058b0000 	streq	r0, [fp]
    22d8:	00010000 	andeq	r0, r1, r0
    22dc:	00058b50 	andeq	r8, r5, r0, asr fp
    22e0:	0005a400 	andeq	sl, r5, r0, lsl #8
    22e4:	54000100 	strpl	r0, [r0], #-256	; 0x100
    22e8:	000005a4 	andeq	r0, r0, r4, lsr #11
    22ec:	000005a8 	andeq	r0, r0, r8, lsr #11
    22f0:	a8500001 	ldmdage	r0, {r0}^
    22f4:	bc000005 	stclt	0, cr0, [r0], {5}
    22f8:	01000005 	tsteq	r0, r5
    22fc:	05bc5400 	ldreq	r5, [ip, #1024]!	; 0x400
    2300:	05d40000 	ldrbeq	r0, [r4]
    2304:	00010000 	andeq	r0, r1, r0
    2308:	00000050 	andeq	r0, r0, r0, asr r0
    230c:	00000000 	andeq	r0, r0, r0
    2310:	0005d400 	andeq	sp, r5, r0, lsl #8
    2314:	0005e700 	andeq	lr, r5, r0, lsl #14
    2318:	50000100 	andpl	r0, r0, r0, lsl #2
    231c:	000005e7 	andeq	r0, r0, r7, ror #11
    2320:	00000620 	andeq	r0, r0, r0, lsr #12
    2324:	01f30004 	mvnseq	r0, r4
    2328:	00009f50 	andeq	r9, r0, r0, asr pc
    232c:	00000000 	andeq	r0, r0, r0
    2330:	05d40000 	ldrbeq	r0, [r4]
    2334:	05e70000 	strbeq	r0, [r7, #0]!
    2338:	00010000 	andeq	r0, r1, r0
    233c:	0005e751 	andeq	lr, r5, r1, asr r7
    2340:	00062000 	andeq	r2, r6, r0
    2344:	f3000400 	vshl.u8	d0, d0, d0
    2348:	009f5101 	addseq	r5, pc, r1, lsl #2
    234c:	00000000 	andeq	r0, r0, r0
    2350:	d4000000 	strle	r0, [r0], #-0
    2354:	e7000005 	str	r0, [r0, -r5]
    2358:	01000005 	tsteq	r0, r5
    235c:	05e75200 	strbeq	r5, [r7, #512]!	; 0x200
    2360:	06200000 	strteq	r0, [r0], -r0
    2364:	00040000 	andeq	r0, r4, r0
    2368:	9f5201f3 	svcls	0x005201f3
	...
    2374:	000005d4 	ldrdeq	r0, [r0], -r4
    2378:	000005e7 	andeq	r0, r0, r7, ror #11
    237c:	e7530001 	ldrb	r0, [r3, -r1]
    2380:	20000005 	andcs	r0, r0, r5
    2384:	04000006 	streq	r0, [r0], #-6
    2388:	5301f300 	movwpl	pc, #4864	; 0x1300	; <UNPREDICTABLE>
    238c:	0000009f 	muleq	r0, pc, r0	; <UNPREDICTABLE>
    2390:	00000000 	andeq	r0, r0, r0
    2394:	0005e800 	andeq	lr, r5, r0, lsl #16
    2398:	0005f300 	andeq	pc, r5, r0, lsl #6
    239c:	50000100 	andpl	r0, r0, r0, lsl #2
    23a0:	0000060c 	andeq	r0, r0, ip, lsl #12
    23a4:	00000620 	andeq	r0, r0, r0, lsr #12
    23a8:	00500001 	subseq	r0, r0, r1
    23ac:	00000000 	andeq	r0, r0, r0
    23b0:	fc000000 	stc2	0, cr0, [r0], {-0}
    23b4:	04000000 	streq	r0, [r0], #-0
    23b8:	01000001 	tsteq	r0, r1
    23bc:	01045000 	mrseq	r5, (UNDEF: 4)
    23c0:	01280000 	teqeq	r8, r0
    23c4:	00010000 	andeq	r0, r1, r0
    23c8:	00000054 	andeq	r0, r0, r4, asr r0
    23cc:	00000000 	andeq	r0, r0, r0
    23d0:	00003000 	andeq	r3, r0, r0
    23d4:	00003c00 	andeq	r3, r0, r0, lsl #24
    23d8:	30000200 	andcc	r0, r0, r0, lsl #4
    23dc:	00003c9f 	muleq	r0, pc, ip	; <UNPREDICTABLE>
    23e0:	00006800 	andeq	r6, r0, r0, lsl #16
    23e4:	53000100 	movwpl	r0, #256	; 0x100
	...
    23f0:	00000068 	andeq	r0, r0, r8, rrx
    23f4:	00000077 	andeq	r0, r0, r7, ror r0
    23f8:	77500001 	ldrbvc	r0, [r0, -r1]
    23fc:	ac000000 	stcge	0, cr0, [r0], {-0}
    2400:	01000000 	mrseq	r0, (UNDEF: 0)
    2404:	00005400 	andeq	r5, r0, r0, lsl #8
	...
    2410:	00900000 	addseq	r0, r0, r0
    2414:	00010000 	andeq	r0, r1, r0
    2418:	00009050 	andeq	r9, r0, r0, asr r0
    241c:	0000d400 	andeq	sp, r0, r0, lsl #8
    2420:	54000100 	strpl	r0, [r0], #-256	; 0x100
	...
    242c:	00000048 	andeq	r0, r0, r8, asr #32
    2430:	0000004c 	andeq	r0, r0, ip, asr #32
    2434:	54550001 	ldrbpl	r0, [r5], #-1
    2438:	58000000 	stmdapl	r0, {}	; <UNPREDICTABLE>
    243c:	01000000 	mrseq	r0, (UNDEF: 0)
    2440:	00605500 	rsbeq	r5, r0, r0, lsl #10
    2444:	00640000 	rsbeq	r0, r4, r0
    2448:	00010000 	andeq	r0, r1, r0
    244c:	00006c55 	andeq	r6, r0, r5, asr ip
    2450:	00007000 	andeq	r7, r0, r0
    2454:	55000100 	strpl	r0, [r0, #-256]	; 0x100
    2458:	00000078 	andeq	r0, r0, r8, ror r0
    245c:	0000007c 	andeq	r0, r0, ip, ror r0
    2460:	84550001 	ldrbhi	r0, [r5], #-1
    2464:	88000000 	stmdahi	r0, {}	; <UNPREDICTABLE>
    2468:	01000000 	mrseq	r0, (UNDEF: 0)
    246c:	008c5500 	addeq	r5, ip, r0, lsl #10
    2470:	00d40000 	sbcseq	r0, r4, r0
    2474:	00010000 	andeq	r0, r1, r0
    2478:	00000055 	andeq	r0, r0, r5, asr r0
    247c:	00000000 	andeq	r0, r0, r0
    2480:	00001c00 	andeq	r1, r0, r0, lsl #24
    2484:	00004400 	andeq	r4, r0, r0, lsl #8
    2488:	53000100 	movwpl	r0, #256	; 0x100
    248c:	00000044 	andeq	r0, r0, r4, asr #32
    2490:	0000004c 	andeq	r0, r0, ip, asr #32
    2494:	0070001c 	rsbseq	r0, r0, ip, lsl r0
    2498:	25f72cf7 	ldrbcs	r2, [r7, #3319]!	; 0xcf7
    249c:	cd0825f4 	cfstr32gt	mvfx2, [r8, #-976]	; 0xfffffc30
    24a0:	00cccccc 	sbceq	ip, ip, ip, asr #25
    24a4:	1e000000 	cdpne	0, 0, cr0, cr0, cr0, {0}
    24a8:	25f72008 	ldrbcs	r2, [r7, #8]!
    24ac:	332cf725 	msrcc	CPSR_fs, #9699328	; 0x940000
    24b0:	004c9f25 	subeq	r9, ip, r5, lsr #30
    24b4:	00500000 	subseq	r0, r0, r0
    24b8:	00010000 	andeq	r0, r1, r0
    24bc:	00005053 	andeq	r5, r0, r3, asr r0
    24c0:	00005800 	andeq	r5, r0, r0, lsl #16
    24c4:	70001c00 	andvc	r1, r0, r0, lsl #24
    24c8:	f72cf700 			; <UNDEFINED> instruction: 0xf72cf700
    24cc:	0825f425 	stmdaeq	r5!, {r0, r2, r5, sl, ip, sp, lr, pc}
    24d0:	cccccccd 	stclgt	12, cr12, [ip], {205}	; 0xcd
    24d4:	00000000 	andeq	r0, r0, r0
    24d8:	f720081e 			; <UNDEFINED> instruction: 0xf720081e
    24dc:	2cf72525 	cfldr64cs	mvdx2, [r7], #148	; 0x94
    24e0:	589f2533 	ldmpl	pc, {r0, r1, r4, r5, r8, sl, sp}	; <UNPREDICTABLE>
    24e4:	5c000000 	stcpl	0, cr0, [r0], {-0}
    24e8:	01000000 	mrseq	r0, (UNDEF: 0)
    24ec:	005c5300 	subseq	r5, ip, r0, lsl #6
    24f0:	00640000 	rsbeq	r0, r4, r0
    24f4:	001c0000 	andseq	r0, ip, r0
    24f8:	2cf70070 	ldclcs	0, cr0, [r7], #448	; 0x1c0
    24fc:	25f425f7 	ldrbcs	r2, [r4, #1527]!	; 0x5f7
    2500:	cccccd08 	stclgt	13, cr12, [ip], {8}
    2504:	000000cc 	andeq	r0, r0, ip, asr #1
    2508:	20081e00 	andcs	r1, r8, r0, lsl #28
    250c:	f72525f7 			; <UNDEFINED> instruction: 0xf72525f7
    2510:	9f25332c 	svcls	0x0025332c
    2514:	00000064 	andeq	r0, r0, r4, rrx
    2518:	00000068 	andeq	r0, r0, r8, rrx
    251c:	68530001 	ldmdavs	r3, {r0}^
    2520:	70000000 	andvc	r0, r0, r0
    2524:	1c000000 	stcne	0, cr0, [r0], {-0}
    2528:	f7007000 			; <UNDEFINED> instruction: 0xf7007000
    252c:	f425f72c 	vld1.8	{d15}, [r5 :128], ip
    2530:	cccd0825 	stclgt	8, cr0, [sp], {37}	; 0x25
    2534:	0000cccc 	andeq	ip, r0, ip, asr #25
    2538:	081e0000 	ldmdaeq	lr, {}	; <UNPREDICTABLE>
    253c:	2525f720 	strcs	pc, [r5, #-1824]!	; 0x720
    2540:	25332cf7 	ldrcs	r2, [r3, #-3319]!	; 0xcf7
    2544:	0000709f 	muleq	r0, pc, r0	; <UNPREDICTABLE>
    2548:	00007400 	andeq	r7, r0, r0, lsl #8
    254c:	53000100 	movwpl	r0, #256	; 0x100
    2550:	00000074 	andeq	r0, r0, r4, ror r0
    2554:	0000007c 	andeq	r0, r0, ip, ror r0
    2558:	0070001c 	rsbseq	r0, r0, ip, lsl r0
    255c:	25f72cf7 	ldrbcs	r2, [r7, #3319]!	; 0xcf7
    2560:	cd0825f4 	cfstr32gt	mvfx2, [r8, #-976]	; 0xfffffc30
    2564:	00cccccc 	sbceq	ip, ip, ip, asr #25
    2568:	1e000000 	cdpne	0, 0, cr0, cr0, cr0, {0}
    256c:	25f72008 	ldrbcs	r2, [r7, #8]!
    2570:	332cf725 	msrcc	CPSR_fs, #9699328	; 0x940000
    2574:	007c9f25 	rsbseq	r9, ip, r5, lsr #30
    2578:	00800000 	addeq	r0, r0, r0
    257c:	00010000 	andeq	r0, r1, r0
    2580:	00008053 	andeq	r8, r0, r3, asr r0
    2584:	00008800 	andeq	r8, r0, r0, lsl #16
    2588:	70001c00 	andvc	r1, r0, r0, lsl #24
    258c:	f72cf700 			; <UNDEFINED> instruction: 0xf72cf700
    2590:	0825f425 	stmdaeq	r5!, {r0, r2, r5, sl, ip, sp, lr, pc}
    2594:	cccccccd 	stclgt	12, cr12, [ip], {205}	; 0xcd
    2598:	00000000 	andeq	r0, r0, r0
    259c:	f720081e 			; <UNDEFINED> instruction: 0xf720081e
    25a0:	2cf72525 	cfldr64cs	mvdx2, [r7], #148	; 0x94
    25a4:	889f2533 	ldmhi	pc, {r0, r1, r4, r5, r8, sl, sp}	; <UNPREDICTABLE>
    25a8:	8c000000 	stchi	0, cr0, [r0], {-0}
    25ac:	01000000 	mrseq	r0, (UNDEF: 0)
    25b0:	008c5300 	addeq	r5, ip, r0, lsl #6
    25b4:	00900000 	addseq	r0, r0, r0
    25b8:	001c0000 	andseq	r0, ip, r0
    25bc:	2cf70070 	ldclcs	0, cr0, [r7], #448	; 0x1c0
    25c0:	25f425f7 	ldrbcs	r2, [r4, #1527]!	; 0x5f7
    25c4:	cccccd08 	stclgt	13, cr12, [ip], {8}
    25c8:	000000cc 	andeq	r0, r0, ip, asr #1
    25cc:	20081e00 	andcs	r1, r8, r0, lsl #28
    25d0:	f72525f7 			; <UNDEFINED> instruction: 0xf72525f7
    25d4:	9f25332c 	svcls	0x0025332c
    25d8:	00000090 	muleq	r0, r0, r0
    25dc:	00000098 	muleq	r0, r8, r0
    25e0:	0074001c 	rsbseq	r0, r4, ip, lsl r0
    25e4:	25f72cf7 	ldrbcs	r2, [r7, #3319]!	; 0xcf7
    25e8:	cd0825f4 	cfstr32gt	mvfx2, [r8, #-976]	; 0xfffffc30
    25ec:	00cccccc 	sbceq	ip, ip, ip, asr #25
    25f0:	1e000000 	cdpne	0, 0, cr0, cr0, cr0, {0}
    25f4:	25f72008 	ldrbcs	r2, [r7, #8]!
    25f8:	332cf725 	msrcc	CPSR_fs, #9699328	; 0x940000
    25fc:	00989f25 	addseq	r9, r8, r5, lsr #30
    2600:	009c0000 	addseq	r0, ip, r0
    2604:	00170000 	andseq	r0, r7, r0
    2608:	2cf70074 	ldclcs	0, cr0, [r7], #464	; 0x1d0
    260c:	007125f7 	ldrshteq	r2, [r1], #-87	; 0xffffffa9
    2610:	25f72cf7 	ldrbcs	r2, [r7, #3319]!	; 0xcf7
    2614:	f720081e 			; <UNDEFINED> instruction: 0xf720081e
    2618:	2cf72525 	cfldr64cs	mvdx2, [r7], #148	; 0x94
    261c:	9c9f2533 	cfldr32ls	mvfx2, [pc], {51}	; 0x33
    2620:	d4000000 	strle	r0, [r0], #-0
    2624:	1c000000 	stcne	0, cr0, [r0], {-0}
    2628:	f7007400 			; <UNDEFINED> instruction: 0xf7007400
    262c:	f425f72c 	vld1.8	{d15}, [r5 :128], ip
    2630:	cccd0825 	stclgt	8, cr0, [sp], {37}	; 0x25
    2634:	0000cccc 	andeq	ip, r0, ip, asr #25
    2638:	081e0000 	ldmdaeq	lr, {}	; <UNPREDICTABLE>
    263c:	2525f720 	strcs	pc, [r5, #-1824]!	; 0x720
    2640:	25332cf7 	ldrcs	r2, [r3, #-3319]!	; 0xcf7
    2644:	0000009f 	muleq	r0, pc, r0	; <UNPREDICTABLE>
    2648:	00000000 	andeq	r0, r0, r0
    264c:	00009400 	andeq	r9, r0, r0, lsl #8
    2650:	0000b800 	andeq	fp, r0, r0, lsl #16
    2654:	50000100 	andpl	r0, r0, r0, lsl #2
    2658:	000000b8 	strheq	r0, [r0], -r8
    265c:	000000c4 	andeq	r0, r0, r4, asr #1
    2660:	71310008 	teqvc	r1, r8
    2664:	00732400 	rsbseq	r2, r3, r0, lsl #8
    2668:	00c49f21 	sbceq	r9, r4, r1, lsr #30
    266c:	00c70000 	sbceq	r0, r7, r0
    2670:	00010000 	andeq	r0, r1, r0
    2674:	00000051 	andeq	r0, r0, r1, asr r0
    2678:	00000000 	andeq	r0, r0, r0
    267c:	0000d400 	andeq	sp, r0, r0, lsl #8
    2680:	0000f800 	andeq	pc, r0, r0, lsl #16
    2684:	50000100 	andpl	r0, r0, r0, lsl #2
    2688:	000000f8 	strdeq	r0, [r0], -r8
    268c:	0000010c 	andeq	r0, r0, ip, lsl #2
    2690:	01f30004 	mvnseq	r0, r4
    2694:	00009f50 	andeq	r9, r0, r0, asr pc
    2698:	00000000 	andeq	r0, r0, r0
    269c:	00e00000 	rsceq	r0, r0, r0
    26a0:	00e80000 	rsceq	r0, r8, r0
    26a4:	00020000 	andeq	r0, r2, r0
    26a8:	00e89f30 	rsceq	r9, r8, r0, lsr pc
    26ac:	00e80000 	rsceq	r0, r8, r0
    26b0:	00010000 	andeq	r0, r1, r0
    26b4:	0000e852 	andeq	lr, r0, r2, asr r8
    26b8:	0000f000 	andeq	pc, r0, r0
    26bc:	30000200 	andcc	r0, r0, r0, lsl #4
    26c0:	0000f09f 	muleq	r0, pc, r0	; <UNPREDICTABLE>
    26c4:	00010300 	andeq	r0, r1, r0, lsl #6
    26c8:	52000100 	andpl	r0, r0, #0, 2
	...
    26d4:	000000e0 	andeq	r0, r0, r0, ror #1
    26d8:	000000f4 	strdeq	r0, [r0], -r4
    26dc:	9f300002 	svcls	0x00300002
    26e0:	000000f4 	strdeq	r0, [r0], -r4
    26e4:	00000100 	andeq	r0, r0, r0, lsl #2
    26e8:	73310005 	teqvc	r1, #5
    26ec:	009f2400 	addseq	r2, pc, r0, lsl #8
    26f0:	03000001 	movweq	r0, #1
    26f4:	01000001 	tsteq	r0, r1
    26f8:	01035100 	mrseq	r5, (UNDEF: 19)
    26fc:	010c0000 	mrseq	r0, (UNDEF: 12)
    2700:	00080000 	andeq	r0, r8, r0
    2704:	5001f331 	andpl	pc, r1, r1, lsr r3	; <UNPREDICTABLE>
    2708:	9f241a4f 	svcls	0x00241a4f
	...
    2714:	0000010c 	andeq	r0, r0, ip, lsl #2
    2718:	00000130 	andeq	r0, r0, r0, lsr r1
    271c:	30500001 	subscc	r0, r0, r1
    2720:	44000001 	strmi	r0, [r0], #-1
    2724:	04000001 	streq	r0, [r0], #-1
    2728:	5001f300 	andpl	pc, r1, r0, lsl #6
    272c:	0000009f 	muleq	r0, pc, r0	; <UNPREDICTABLE>
    2730:	00000000 	andeq	r0, r0, r0
    2734:	00011800 	andeq	r1, r1, r0, lsl #16
    2738:	00012000 	andeq	r2, r1, r0
    273c:	30000200 	andcc	r0, r0, r0, lsl #4
    2740:	0001209f 	muleq	r1, pc, r0	; <UNPREDICTABLE>
    2744:	00012000 	andeq	r2, r1, r0
    2748:	52000100 	andpl	r0, r0, #0, 2
    274c:	00000120 	andeq	r0, r0, r0, lsr #2
    2750:	00000128 	andeq	r0, r0, r8, lsr #2
    2754:	9f300002 	svcls	0x00300002
    2758:	00000128 	andeq	r0, r0, r8, lsr #2
    275c:	0000013b 	andeq	r0, r0, fp, lsr r1
    2760:	00520001 	subseq	r0, r2, r1
    2764:	00000000 	andeq	r0, r0, r0
    2768:	18000000 	stmdane	r0, {}	; <UNPREDICTABLE>
    276c:	2c000001 	stccs	0, cr0, [r0], {1}
    2770:	02000001 	andeq	r0, r0, #1
    2774:	2c9f3000 	ldccs	0, cr3, [pc], {0}
    2778:	38000001 	stmdacc	r0, {r0}
    277c:	05000001 	streq	r0, [r0, #-1]
    2780:	00733100 	rsbseq	r3, r3, r0, lsl #2
    2784:	01389f24 	teqeq	r8, r4, lsr #30
    2788:	013b0000 	teqeq	fp, r0
    278c:	00010000 	andeq	r0, r1, r0
    2790:	00013b51 	andeq	r3, r1, r1, asr fp
    2794:	00014400 	andeq	r4, r1, r0, lsl #8
    2798:	31000800 	tstcc	r0, r0, lsl #16
    279c:	4f5001f3 	svcmi	0x005001f3
    27a0:	009f241a 	addseq	r2, pc, sl, lsl r4	; <UNPREDICTABLE>
    27a4:	00000000 	andeq	r0, r0, r0
    27a8:	44000000 	strmi	r0, [r0], #-0
    27ac:	d4000001 	strle	r0, [r0], #-1
    27b0:	01000001 	tsteq	r0, r1
    27b4:	01d45000 	bicseq	r5, r4, r0
    27b8:	02100000 	andseq	r0, r0, #0
    27bc:	00010000 	andeq	r0, r1, r0
    27c0:	00000054 	andeq	r0, r0, r4, asr r0
    27c4:	00000000 	andeq	r0, r0, r0
    27c8:	00018c00 	andeq	r8, r1, r0, lsl #24
    27cc:	00019000 	andeq	r9, r1, r0
    27d0:	55000100 	strpl	r0, [r0, #-256]	; 0x100
    27d4:	00000198 	muleq	r0, r8, r1
    27d8:	0000019c 	muleq	r0, ip, r1
    27dc:	a4550001 	ldrbge	r0, [r5], #-1
    27e0:	a8000001 	stmdage	r0, {r0}
    27e4:	01000001 	tsteq	r0, r1
    27e8:	01b05500 	lslseq	r5, r0, #10
    27ec:	01b40000 			; <UNDEFINED> instruction: 0x01b40000
    27f0:	00010000 	andeq	r0, r1, r0
    27f4:	0001bc55 	andeq	fp, r1, r5, asr ip
    27f8:	0001c000 	andeq	ip, r1, r0
    27fc:	55000100 	strpl	r0, [r0, #-256]	; 0x100
    2800:	000001c8 	andeq	r0, r0, r8, asr #3
    2804:	000001cc 	andeq	r0, r0, ip, asr #3
    2808:	d0550001 	subsle	r0, r5, r1
    280c:	10000001 	andne	r0, r0, r1
    2810:	01000002 	tsteq	r0, r2
    2814:	00005500 	andeq	r5, r0, r0, lsl #10
    2818:	00000000 	andeq	r0, r0, r0
    281c:	01600000 	cmneq	r0, r0
    2820:	01880000 	orreq	r0, r8, r0
    2824:	00010000 	andeq	r0, r1, r0
    2828:	00018853 	andeq	r8, r1, r3, asr r8
    282c:	00019000 	andeq	r9, r1, r0
    2830:	70001c00 	andvc	r1, r0, r0, lsl #24
    2834:	f72cf700 			; <UNDEFINED> instruction: 0xf72cf700
    2838:	0825f425 	stmdaeq	r5!, {r0, r2, r5, sl, ip, sp, lr, pc}
    283c:	cccccccd 	stclgt	12, cr12, [ip], {205}	; 0xcd
    2840:	00000000 	andeq	r0, r0, r0
    2844:	f720081e 			; <UNDEFINED> instruction: 0xf720081e
    2848:	2cf72525 	cfldr64cs	mvdx2, [r7], #148	; 0x94
    284c:	909f2533 	addsls	r2, pc, r3, lsr r5	; <UNPREDICTABLE>
    2850:	94000001 	strls	r0, [r0], #-1
    2854:	01000001 	tsteq	r0, r1
    2858:	01945300 	orrseq	r5, r4, r0, lsl #6
    285c:	019c0000 	orrseq	r0, ip, r0
    2860:	001c0000 	andseq	r0, ip, r0
    2864:	2cf70070 	ldclcs	0, cr0, [r7], #448	; 0x1c0
    2868:	25f425f7 	ldrbcs	r2, [r4, #1527]!	; 0x5f7
    286c:	cccccd08 	stclgt	13, cr12, [ip], {8}
    2870:	000000cc 	andeq	r0, r0, ip, asr #1
    2874:	20081e00 	andcs	r1, r8, r0, lsl #28
    2878:	f72525f7 			; <UNDEFINED> instruction: 0xf72525f7
    287c:	9f25332c 	svcls	0x0025332c
    2880:	0000019c 	muleq	r0, ip, r1
    2884:	000001a0 	andeq	r0, r0, r0, lsr #3
    2888:	a0530001 	subsge	r0, r3, r1
    288c:	a8000001 	stmdage	r0, {r0}
    2890:	1c000001 	stcne	0, cr0, [r0], {1}
    2894:	f7007000 			; <UNDEFINED> instruction: 0xf7007000
    2898:	f425f72c 	vld1.8	{d15}, [r5 :128], ip
    289c:	cccd0825 	stclgt	8, cr0, [sp], {37}	; 0x25
    28a0:	0000cccc 	andeq	ip, r0, ip, asr #25
    28a4:	081e0000 	ldmdaeq	lr, {}	; <UNPREDICTABLE>
    28a8:	2525f720 	strcs	pc, [r5, #-1824]!	; 0x720
    28ac:	25332cf7 	ldrcs	r2, [r3, #-3319]!	; 0xcf7
    28b0:	0001a89f 	muleq	r1, pc, r8	; <UNPREDICTABLE>
    28b4:	0001ac00 	andeq	sl, r1, r0, lsl #24
    28b8:	53000100 	movwpl	r0, #256	; 0x100
    28bc:	000001ac 	andeq	r0, r0, ip, lsr #3
    28c0:	000001b4 			; <UNDEFINED> instruction: 0x000001b4
    28c4:	0070001c 	rsbseq	r0, r0, ip, lsl r0
    28c8:	25f72cf7 	ldrbcs	r2, [r7, #3319]!	; 0xcf7
    28cc:	cd0825f4 	cfstr32gt	mvfx2, [r8, #-976]	; 0xfffffc30
    28d0:	00cccccc 	sbceq	ip, ip, ip, asr #25
    28d4:	1e000000 	cdpne	0, 0, cr0, cr0, cr0, {0}
    28d8:	25f72008 	ldrbcs	r2, [r7, #8]!
    28dc:	332cf725 	msrcc	CPSR_fs, #9699328	; 0x940000
    28e0:	01b49f25 			; <UNDEFINED> instruction: 0x01b49f25
    28e4:	01b80000 			; <UNDEFINED> instruction: 0x01b80000
    28e8:	00010000 	andeq	r0, r1, r0
    28ec:	0001b853 	andeq	fp, r1, r3, asr r8
    28f0:	0001c000 	andeq	ip, r1, r0
    28f4:	70001c00 	andvc	r1, r0, r0, lsl #24
    28f8:	f72cf700 			; <UNDEFINED> instruction: 0xf72cf700
    28fc:	0825f425 	stmdaeq	r5!, {r0, r2, r5, sl, ip, sp, lr, pc}
    2900:	cccccccd 	stclgt	12, cr12, [ip], {205}	; 0xcd
    2904:	00000000 	andeq	r0, r0, r0
    2908:	f720081e 			; <UNDEFINED> instruction: 0xf720081e
    290c:	2cf72525 	cfldr64cs	mvdx2, [r7], #148	; 0x94
    2910:	c09f2533 	addsgt	r2, pc, r3, lsr r5	; <UNPREDICTABLE>
    2914:	c4000001 	strgt	r0, [r0], #-1
    2918:	01000001 	tsteq	r0, r1
    291c:	01c45300 	biceq	r5, r4, r0, lsl #6
    2920:	01cc0000 	biceq	r0, ip, r0
    2924:	001c0000 	andseq	r0, ip, r0
    2928:	2cf70070 	ldclcs	0, cr0, [r7], #448	; 0x1c0
    292c:	25f425f7 	ldrbcs	r2, [r4, #1527]!	; 0x5f7
    2930:	cccccd08 	stclgt	13, cr12, [ip], {8}
    2934:	000000cc 	andeq	r0, r0, ip, asr #1
    2938:	20081e00 	andcs	r1, r8, r0, lsl #28
    293c:	f72525f7 			; <UNDEFINED> instruction: 0xf72525f7
    2940:	9f25332c 	svcls	0x0025332c
    2944:	000001cc 	andeq	r0, r0, ip, asr #3
    2948:	000001d0 	ldrdeq	r0, [r0], -r0	; <UNPREDICTABLE>
    294c:	d0530001 	subsle	r0, r3, r1
    2950:	d4000001 	strle	r0, [r0], #-1
    2954:	1c000001 	stcne	0, cr0, [r0], {1}
    2958:	f7007000 			; <UNDEFINED> instruction: 0xf7007000
    295c:	f425f72c 	vld1.8	{d15}, [r5 :128], ip
    2960:	cccd0825 	stclgt	8, cr0, [sp], {37}	; 0x25
    2964:	0000cccc 	andeq	ip, r0, ip, asr #25
    2968:	081e0000 	ldmdaeq	lr, {}	; <UNPREDICTABLE>
    296c:	2525f720 	strcs	pc, [r5, #-1824]!	; 0x720
    2970:	25332cf7 	ldrcs	r2, [r3, #-3319]!	; 0xcf7
    2974:	0001d49f 	muleq	r1, pc, r4	; <UNPREDICTABLE>
    2978:	0001dc00 	andeq	sp, r1, r0, lsl #24
    297c:	74001c00 	strvc	r1, [r0], #-3072	; 0xc00
    2980:	f72cf700 			; <UNDEFINED> instruction: 0xf72cf700
    2984:	0825f425 	stmdaeq	r5!, {r0, r2, r5, sl, ip, sp, lr, pc}
    2988:	cccccccd 	stclgt	12, cr12, [ip], {205}	; 0xcd
    298c:	00000000 	andeq	r0, r0, r0
    2990:	f720081e 			; <UNDEFINED> instruction: 0xf720081e
    2994:	2cf72525 	cfldr64cs	mvdx2, [r7], #148	; 0x94
    2998:	dc9f2533 	cfldr32le	mvfx2, [pc], {51}	; 0x33
    299c:	e0000001 	and	r0, r0, r1
    29a0:	17000001 	strne	r0, [r0, -r1]
    29a4:	f7007400 			; <UNDEFINED> instruction: 0xf7007400
    29a8:	7125f72c 	msrvc	SP_abt, ip
    29ac:	f72cf700 			; <UNDEFINED> instruction: 0xf72cf700
    29b0:	20081e25 	andcs	r1, r8, r5, lsr #28
    29b4:	f72525f7 			; <UNDEFINED> instruction: 0xf72525f7
    29b8:	9f25332c 	svcls	0x0025332c
    29bc:	000001e0 	andeq	r0, r0, r0, ror #3
    29c0:	00000210 	andeq	r0, r0, r0, lsl r2
    29c4:	0074001c 	rsbseq	r0, r4, ip, lsl r0
    29c8:	25f72cf7 	ldrbcs	r2, [r7, #3319]!	; 0xcf7
    29cc:	cd0825f4 	cfstr32gt	mvfx2, [r8, #-976]	; 0xfffffc30
    29d0:	00cccccc 	sbceq	ip, ip, ip, asr #25
    29d4:	1e000000 	cdpne	0, 0, cr0, cr0, cr0, {0}
    29d8:	25f72008 	ldrbcs	r2, [r7, #8]!
    29dc:	332cf725 	msrcc	CPSR_fs, #9699328	; 0x940000
    29e0:	00009f25 	andeq	r9, r0, r5, lsr #30
    29e4:	00000000 	andeq	r0, r0, r0
    29e8:	01d80000 	bicseq	r0, r8, r0
    29ec:	01fc0000 	mvnseq	r0, r0
    29f0:	00010000 	andeq	r0, r1, r0
    29f4:	0001fc50 	andeq	pc, r1, r0, asr ip	; <UNPREDICTABLE>
    29f8:	00020300 	andeq	r0, r2, r0, lsl #6
    29fc:	51000100 	mrspl	r0, (UNDEF: 16)
	...
    2a08:	00000210 	andeq	r0, r0, r0, lsl r2
    2a0c:	0000022c 	andeq	r0, r0, ip, lsr #4
    2a10:	2c500001 	mrrccs	0, 0, r0, r0, cr1	; <UNPREDICTABLE>
    2a14:	34000002 	strcc	r0, [r0], #-2
    2a18:	01000002 	tsteq	r0, r2
    2a1c:	02345400 	eorseq	r5, r4, #0, 8
    2a20:	023c0000 	eorseq	r0, ip, #0
    2a24:	00010000 	andeq	r0, r1, r0
    2a28:	00023c50 	andeq	r3, r2, r0, asr ip
    2a2c:	00024400 	andeq	r4, r2, r0, lsl #8
    2a30:	54000100 	strpl	r0, [r0], #-256	; 0x100
    2a34:	00000244 	andeq	r0, r0, r4, asr #4
    2a38:	00000250 	andeq	r0, r0, r0, asr r2
    2a3c:	01f30004 	mvnseq	r0, r4
    2a40:	02509f50 	subseq	r9, r0, #80, 30	; 0x140
    2a44:	02540000 	subseq	r0, r4, #0
    2a48:	00010000 	andeq	r0, r1, r0
    2a4c:	00025450 	andeq	r5, r2, r0, asr r4
    2a50:	00025c00 	andeq	r5, r2, r0, lsl #24
    2a54:	54000100 	strpl	r0, [r0], #-256	; 0x100
	...
    2a60:	00000220 	andeq	r0, r0, r0, lsr #4
    2a64:	00000230 	andeq	r0, r0, r0, lsr r2
    2a68:	9f300002 	svcls	0x00300002
    2a6c:	00000230 	andeq	r0, r0, r0, lsr r2
    2a70:	00000234 	andeq	r0, r0, r4, lsr r2
    2a74:	34500001 	ldrbcc	r0, [r0], #-1
    2a78:	40000002 	andmi	r0, r0, r2
    2a7c:	02000002 	andeq	r0, r0, #2
    2a80:	409f3000 	addsmi	r3, pc, r0
    2a84:	4c000002 	stcmi	0, cr0, [r0], {2}
    2a88:	01000002 	tsteq	r0, r2
    2a8c:	00005000 	andeq	r5, r0, r0
    2a90:	00000000 	andeq	r0, r0, r0
    2a94:	025c0000 	subseq	r0, ip, #0
    2a98:	02730000 	rsbseq	r0, r3, #0
    2a9c:	00010000 	andeq	r0, r1, r0
    2aa0:	00027350 	andeq	r7, r2, r0, asr r3
    2aa4:	00027800 	andeq	r7, r2, r0, lsl #16
    2aa8:	f3000400 	vshl.u8	d0, d0, d0
    2aac:	789f5001 	ldmvc	pc, {r0, ip, lr}	; <UNPREDICTABLE>
    2ab0:	7b000002 	blvc	2ac0 <_start-0x5540>
    2ab4:	01000002 	tsteq	r0, r2
    2ab8:	027b5000 	rsbseq	r5, fp, #0
    2abc:	02800000 	addeq	r0, r0, #0
    2ac0:	00040000 	andeq	r0, r4, r0
    2ac4:	9f5001f3 	svcls	0x005001f3
	...
    2ad0:	0000025c 	andeq	r0, r0, ip, asr r2
    2ad4:	00000273 	andeq	r0, r0, r3, ror r2
    2ad8:	73510001 	cmpvc	r1, #1
    2adc:	78000002 	stmdavc	r0, {r1}
    2ae0:	04000002 	streq	r0, [r0], #-2
    2ae4:	5101f300 	mrspl	pc, SP_irq	; <UNPREDICTABLE>
    2ae8:	0002789f 	muleq	r2, pc, r8	; <UNPREDICTABLE>
    2aec:	00027b00 	andeq	r7, r2, r0, lsl #22
    2af0:	51000100 	mrspl	r0, (UNDEF: 16)
    2af4:	0000027b 	andeq	r0, r0, fp, ror r2
    2af8:	00000280 	andeq	r0, r0, r0, lsl #5
    2afc:	01f30004 	mvnseq	r0, r4
    2b00:	00009f51 	andeq	r9, r0, r1, asr pc
    2b04:	00000000 	andeq	r0, r0, r0
    2b08:	02800000 	addeq	r0, r0, #0
    2b0c:	03180000 	tsteq	r8, #0
    2b10:	00010000 	andeq	r0, r1, r0
    2b14:	00031850 	andeq	r1, r3, r0, asr r8
    2b18:	00035800 	andeq	r5, r3, r0, lsl #16
    2b1c:	54000100 	strpl	r0, [r0], #-256	; 0x100
	...
    2b28:	00000280 	andeq	r0, r0, r0, lsl #5
    2b2c:	0000031b 	andeq	r0, r0, fp, lsl r3
    2b30:	1b510001 	blne	1442b3c <__bss_end__+0x14367b4>
    2b34:	58000003 	stmdapl	r0, {r0, r1}
    2b38:	04000003 	streq	r0, [r0], #-3
    2b3c:	5101f300 	mrspl	pc, SP_irq	; <UNPREDICTABLE>
    2b40:	0000009f 	muleq	r0, pc, r0	; <UNPREDICTABLE>
    2b44:	00000000 	andeq	r0, r0, r0
    2b48:	0002d000 	andeq	sp, r2, r0
    2b4c:	0002d400 	andeq	sp, r2, r0, lsl #8
    2b50:	56000100 	strpl	r0, [r0], -r0, lsl #2
    2b54:	000002dc 	ldrdeq	r0, [r0], -ip
    2b58:	000002e0 	andeq	r0, r0, r0, ror #5
    2b5c:	e8560001 	ldmda	r6, {r0}^
    2b60:	ec000002 	stc	0, cr0, [r0], {2}
    2b64:	01000002 	tsteq	r0, r2
    2b68:	02f45600 	rscseq	r5, r4, #0, 12
    2b6c:	02f80000 	rscseq	r0, r8, #0
    2b70:	00010000 	andeq	r0, r1, r0
    2b74:	00030056 	andeq	r0, r3, r6, asr r0
    2b78:	00030400 	andeq	r0, r3, r0, lsl #8
    2b7c:	56000100 	strpl	r0, [r0], -r0, lsl #2
    2b80:	0000030c 	andeq	r0, r0, ip, lsl #6
    2b84:	00000310 	andeq	r0, r0, r0, lsl r3
    2b88:	14560001 	ldrbne	r0, [r6], #-1
    2b8c:	58000003 	stmdapl	r0, {r0, r1}
    2b90:	01000003 	tsteq	r0, r3
    2b94:	00005600 	andeq	r5, r0, r0, lsl #12
    2b98:	00000000 	andeq	r0, r0, r0
    2b9c:	02a40000 	adceq	r0, r4, #0
    2ba0:	02cc0000 	sbceq	r0, ip, #0
    2ba4:	00010000 	andeq	r0, r1, r0
    2ba8:	0002cc53 	andeq	ip, r2, r3, asr ip
    2bac:	0002d400 	andeq	sp, r2, r0, lsl #8
    2bb0:	70001c00 	andvc	r1, r0, r0, lsl #24
    2bb4:	f72cf700 			; <UNDEFINED> instruction: 0xf72cf700
    2bb8:	0825f425 	stmdaeq	r5!, {r0, r2, r5, sl, ip, sp, lr, pc}
    2bbc:	cccccccd 	stclgt	12, cr12, [ip], {205}	; 0xcd
    2bc0:	00000000 	andeq	r0, r0, r0
    2bc4:	f720081e 			; <UNDEFINED> instruction: 0xf720081e
    2bc8:	2cf72525 	cfldr64cs	mvdx2, [r7], #148	; 0x94
    2bcc:	d49f2533 	ldrle	r2, [pc], #1331	; 2bd4 <_start-0x542c>
    2bd0:	d8000002 	stmdale	r0, {r1}
    2bd4:	01000002 	tsteq	r0, r2
    2bd8:	02d85300 	sbcseq	r5, r8, #0, 6
    2bdc:	02e00000 	rsceq	r0, r0, #0
    2be0:	001c0000 	andseq	r0, ip, r0
    2be4:	2cf70070 	ldclcs	0, cr0, [r7], #448	; 0x1c0
    2be8:	25f425f7 	ldrbcs	r2, [r4, #1527]!	; 0x5f7
    2bec:	cccccd08 	stclgt	13, cr12, [ip], {8}
    2bf0:	000000cc 	andeq	r0, r0, ip, asr #1
    2bf4:	20081e00 	andcs	r1, r8, r0, lsl #28
    2bf8:	f72525f7 			; <UNDEFINED> instruction: 0xf72525f7
    2bfc:	9f25332c 	svcls	0x0025332c
    2c00:	000002e0 	andeq	r0, r0, r0, ror #5
    2c04:	000002e4 	andeq	r0, r0, r4, ror #5
    2c08:	e4530001 	ldrb	r0, [r3], #-1
    2c0c:	ec000002 	stc	0, cr0, [r0], {2}
    2c10:	1c000002 	stcne	0, cr0, [r0], {2}
    2c14:	f7007000 			; <UNDEFINED> instruction: 0xf7007000
    2c18:	f425f72c 	vld1.8	{d15}, [r5 :128], ip
    2c1c:	cccd0825 	stclgt	8, cr0, [sp], {37}	; 0x25
    2c20:	0000cccc 	andeq	ip, r0, ip, asr #25
    2c24:	081e0000 	ldmdaeq	lr, {}	; <UNPREDICTABLE>
    2c28:	2525f720 	strcs	pc, [r5, #-1824]!	; 0x720
    2c2c:	25332cf7 	ldrcs	r2, [r3, #-3319]!	; 0xcf7
    2c30:	0002ec9f 	muleq	r2, pc, ip	; <UNPREDICTABLE>
    2c34:	0002f000 	andeq	pc, r2, r0
    2c38:	53000100 	movwpl	r0, #256	; 0x100
    2c3c:	000002f0 	strdeq	r0, [r0], -r0	; <UNPREDICTABLE>
    2c40:	000002f8 	strdeq	r0, [r0], -r8
    2c44:	0070001c 	rsbseq	r0, r0, ip, lsl r0
    2c48:	25f72cf7 	ldrbcs	r2, [r7, #3319]!	; 0xcf7
    2c4c:	cd0825f4 	cfstr32gt	mvfx2, [r8, #-976]	; 0xfffffc30
    2c50:	00cccccc 	sbceq	ip, ip, ip, asr #25
    2c54:	1e000000 	cdpne	0, 0, cr0, cr0, cr0, {0}
    2c58:	25f72008 	ldrbcs	r2, [r7, #8]!
    2c5c:	332cf725 	msrcc	CPSR_fs, #9699328	; 0x940000
    2c60:	02f89f25 	rscseq	r9, r8, #37, 30	; 0x94
    2c64:	02fc0000 	rscseq	r0, ip, #0
    2c68:	00010000 	andeq	r0, r1, r0
    2c6c:	0002fc53 	andeq	pc, r2, r3, asr ip	; <UNPREDICTABLE>
    2c70:	00030400 	andeq	r0, r3, r0, lsl #8
    2c74:	70001c00 	andvc	r1, r0, r0, lsl #24
    2c78:	f72cf700 			; <UNDEFINED> instruction: 0xf72cf700
    2c7c:	0825f425 	stmdaeq	r5!, {r0, r2, r5, sl, ip, sp, lr, pc}
    2c80:	cccccccd 	stclgt	12, cr12, [ip], {205}	; 0xcd
    2c84:	00000000 	andeq	r0, r0, r0
    2c88:	f720081e 			; <UNDEFINED> instruction: 0xf720081e
    2c8c:	2cf72525 	cfldr64cs	mvdx2, [r7], #148	; 0x94
    2c90:	049f2533 	ldreq	r2, [pc], #1331	; 2c98 <_start-0x5368>
    2c94:	08000003 	stmdaeq	r0, {r0, r1}
    2c98:	01000003 	tsteq	r0, r3
    2c9c:	03085300 	movweq	r5, #33536	; 0x8300
    2ca0:	03100000 	tsteq	r0, #0
    2ca4:	001c0000 	andseq	r0, ip, r0
    2ca8:	2cf70070 	ldclcs	0, cr0, [r7], #448	; 0x1c0
    2cac:	25f425f7 	ldrbcs	r2, [r4, #1527]!	; 0x5f7
    2cb0:	cccccd08 	stclgt	13, cr12, [ip], {8}
    2cb4:	000000cc 	andeq	r0, r0, ip, asr #1
    2cb8:	20081e00 	andcs	r1, r8, r0, lsl #28
    2cbc:	f72525f7 			; <UNDEFINED> instruction: 0xf72525f7
    2cc0:	9f25332c 	svcls	0x0025332c
    2cc4:	00000310 	andeq	r0, r0, r0, lsl r3
    2cc8:	00000314 	andeq	r0, r0, r4, lsl r3
    2ccc:	14530001 	ldrbne	r0, [r3], #-1
    2cd0:	18000003 	stmdane	r0, {r0, r1}
    2cd4:	1c000003 	stcne	0, cr0, [r0], {3}
    2cd8:	f7007000 			; <UNDEFINED> instruction: 0xf7007000
    2cdc:	f425f72c 	vld1.8	{d15}, [r5 :128], ip
    2ce0:	cccd0825 	stclgt	8, cr0, [sp], {37}	; 0x25
    2ce4:	0000cccc 	andeq	ip, r0, ip, asr #25
    2ce8:	081e0000 	ldmdaeq	lr, {}	; <UNPREDICTABLE>
    2cec:	2525f720 	strcs	pc, [r5, #-1824]!	; 0x720
    2cf0:	25332cf7 	ldrcs	r2, [r3, #-3319]!	; 0xcf7
    2cf4:	0003189f 	muleq	r3, pc, r8	; <UNPREDICTABLE>
    2cf8:	00032000 	andeq	r2, r3, r0
    2cfc:	74001c00 	strvc	r1, [r0], #-3072	; 0xc00
    2d00:	f72cf700 			; <UNDEFINED> instruction: 0xf72cf700
    2d04:	0825f425 	stmdaeq	r5!, {r0, r2, r5, sl, ip, sp, lr, pc}
    2d08:	cccccccd 	stclgt	12, cr12, [ip], {205}	; 0xcd
    2d0c:	00000000 	andeq	r0, r0, r0
    2d10:	f720081e 			; <UNDEFINED> instruction: 0xf720081e
    2d14:	2cf72525 	cfldr64cs	mvdx2, [r7], #148	; 0x94
    2d18:	209f2533 	addscs	r2, pc, r3, lsr r5	; <UNPREDICTABLE>
    2d1c:	24000003 	strcs	r0, [r0], #-3
    2d20:	17000003 	strne	r0, [r0, -r3]
    2d24:	f7007400 			; <UNDEFINED> instruction: 0xf7007400
    2d28:	7325f72c 	msrvc	CPSR_sc, #44, 14	; 0xb00000
    2d2c:	f72cf700 			; <UNDEFINED> instruction: 0xf72cf700
    2d30:	20081e25 	andcs	r1, r8, r5, lsr #28
    2d34:	f72525f7 			; <UNDEFINED> instruction: 0xf72525f7
    2d38:	9f25332c 	svcls	0x0025332c
    2d3c:	00000324 	andeq	r0, r0, r4, lsr #6
    2d40:	00000358 	andeq	r0, r0, r8, asr r3
    2d44:	0074001c 	rsbseq	r0, r4, ip, lsl r0
    2d48:	25f72cf7 	ldrbcs	r2, [r7, #3319]!	; 0xcf7
    2d4c:	cd0825f4 	cfstr32gt	mvfx2, [r8, #-976]	; 0xfffffc30
    2d50:	00cccccc 	sbceq	ip, ip, ip, asr #25
    2d54:	1e000000 	cdpne	0, 0, cr0, cr0, cr0, {0}
    2d58:	25f72008 	ldrbcs	r2, [r7, #8]!
    2d5c:	332cf725 	msrcc	CPSR_fs, #9699328	; 0x940000
    2d60:	00009f25 	andeq	r9, r0, r5, lsr #30
    2d64:	00000000 	andeq	r0, r0, r0
    2d68:	031c0000 	tsteq	ip, #0
    2d6c:	03400000 	movteq	r0, #0
    2d70:	00010000 	andeq	r0, r1, r0
    2d74:	00034050 	andeq	r4, r3, r0, asr r0
    2d78:	00034800 	andeq	r4, r3, r0, lsl #16
    2d7c:	75000900 	strvc	r0, [r0, #-2304]	; 0x900
    2d80:	24007300 	strcs	r7, [r0], #-768	; 0x300
    2d84:	9f210071 	svcls	0x00210071
    2d88:	00000348 	andeq	r0, r0, r8, asr #6
    2d8c:	0000034b 	andeq	r0, r0, fp, asr #6
    2d90:	00510001 	subseq	r0, r1, r1
    2d94:	00000000 	andeq	r0, r0, r0
    2d98:	58000000 	stmdapl	r0, {}	; <UNPREDICTABLE>
    2d9c:	64000003 	strvs	r0, [r0], #-3
    2da0:	01000003 	tsteq	r0, r3
    2da4:	03645000 	cmneq	r4, #0
    2da8:	03840000 	orreq	r0, r4, #0
    2dac:	00040000 	andeq	r0, r4, r0
    2db0:	9f5001f3 	svcls	0x005001f3
	...
    2dbc:	00000384 	andeq	r0, r0, r4, lsl #7
    2dc0:	00000397 	muleq	r0, r7, r3
    2dc4:	97500001 	ldrbls	r0, [r0, -r1]
    2dc8:	d0000003 	andle	r0, r0, r3
    2dcc:	01000003 	tsteq	r0, r3
    2dd0:	03d05400 	bicseq	r5, r0, #0, 8
    2dd4:	04080000 	streq	r0, [r8], #-0
    2dd8:	00040000 	andeq	r0, r4, r0
    2ddc:	9f5001f3 	svcls	0x005001f3
	...
    2de8:	000003f0 	strdeq	r0, [r0], -r0	; <UNPREDICTABLE>
    2dec:	000003f4 	strdeq	r0, [r0], -r4
    2df0:	f4500001 			; <UNDEFINED> instruction: 0xf4500001
    2df4:	fb000003 	blx	2e0a <_start-0x51f6>
    2df8:	01000003 	tsteq	r0, r3
    2dfc:	00005100 	andeq	r5, r0, r0, lsl #2
    2e00:	00000000 	andeq	r0, r0, r0
    2e04:	03ac0000 			; <UNDEFINED> instruction: 0x03ac0000
    2e08:	03b40000 			; <UNDEFINED> instruction: 0x03b40000
    2e0c:	00010000 	andeq	r0, r1, r0
    2e10:	0003b450 	andeq	fp, r3, r0, asr r4
    2e14:	0003bb00 	andeq	fp, r3, r0, lsl #22
    2e18:	51000100 	mrspl	r0, (UNDEF: 16)
	...
    2e24:	000003cc 	andeq	r0, r0, ip, asr #7
    2e28:	000003d8 	ldrdeq	r0, [r0], -r8
    2e2c:	d8500001 	ldmdale	r0, {r0}^
    2e30:	df000003 	svcle	0x00000003
    2e34:	01000003 	tsteq	r0, r3
    2e38:	00005100 	andeq	r5, r0, r0, lsl #2
    2e3c:	00000000 	andeq	r0, r0, r0
    2e40:	04080000 	streq	r0, [r8], #-0
    2e44:	041b0000 	ldreq	r0, [fp], #-0
    2e48:	00010000 	andeq	r0, r1, r0
    2e4c:	00041b50 	andeq	r1, r4, r0, asr fp
    2e50:	00045400 	andeq	r5, r4, r0, lsl #8
    2e54:	54000100 	strpl	r0, [r0], #-256	; 0x100
    2e58:	00000454 	andeq	r0, r0, r4, asr r4
    2e5c:	0000048c 	andeq	r0, r0, ip, lsl #9
    2e60:	01f30004 	mvnseq	r0, r4
    2e64:	00009f50 	andeq	r9, r0, r0, asr pc
    2e68:	00000000 	andeq	r0, r0, r0
    2e6c:	04740000 	ldrbteq	r0, [r4], #-0
    2e70:	04780000 	ldrbteq	r0, [r8], #-0
    2e74:	00010000 	andeq	r0, r1, r0
    2e78:	00047850 	andeq	r7, r4, r0, asr r8
    2e7c:	00047f00 	andeq	r7, r4, r0, lsl #30
    2e80:	51000100 	mrspl	r0, (UNDEF: 16)
	...
    2e8c:	00000430 	andeq	r0, r0, r0, lsr r4
    2e90:	00000438 	andeq	r0, r0, r8, lsr r4
    2e94:	38500001 	ldmdacc	r0, {r0}^
    2e98:	3f000004 	svccc	0x00000004
    2e9c:	01000004 	tsteq	r0, r4
    2ea0:	00005100 	andeq	r5, r0, r0, lsl #2
    2ea4:	00000000 	andeq	r0, r0, r0
    2ea8:	04500000 	ldrbeq	r0, [r0], #-0
    2eac:	045c0000 	ldrbeq	r0, [ip], #-0
    2eb0:	00010000 	andeq	r0, r1, r0
    2eb4:	00045c50 	andeq	r5, r4, r0, asr ip
    2eb8:	00046300 	andeq	r6, r4, r0, lsl #6
    2ebc:	51000100 	mrspl	r0, (UNDEF: 16)
	...
    2ec8:	0000048c 	andeq	r0, r0, ip, lsl #9
    2ecc:	0000049f 	muleq	r0, pc, r4	; <UNPREDICTABLE>
    2ed0:	9f500001 	svcls	0x00500001
    2ed4:	e0000004 	and	r0, r0, r4
    2ed8:	01000004 	tsteq	r0, r4
    2edc:	04e05400 	strbteq	r5, [r0], #1024	; 0x400
    2ee0:	05040000 	streq	r0, [r4, #-0]
    2ee4:	00040000 	andeq	r0, r4, r0
    2ee8:	9f5001f3 	svcls	0x005001f3
    2eec:	00000504 	andeq	r0, r0, r4, lsl #10
    2ef0:	00000508 	andeq	r0, r0, r8, lsl #10
    2ef4:	08500001 	ldmdaeq	r0, {r0}^
    2ef8:	10000005 	andne	r0, r0, r5
    2efc:	01000005 	tsteq	r0, r5
    2f00:	00005400 	andeq	r5, r0, r0, lsl #8
    2f04:	00000000 	andeq	r0, r0, r0
    2f08:	04b40000 	ldrteq	r0, [r4], #0
    2f0c:	04c30000 	strbeq	r0, [r3], #0
    2f10:	00080000 	andeq	r0, r8, r0
    2f14:	24007431 	strcs	r7, [r0], #-1073	; 0x431
    2f18:	9f1a0070 	svcls	0x001a0070
	...
    2f24:	000004e0 	andeq	r0, r0, r0, ror #9
    2f28:	000004f8 	strdeq	r0, [r0], -r8
    2f2c:	00540001 	subseq	r0, r4, r1
    2f30:	00000000 	andeq	r0, r0, r0
    2f34:	10000000 	andne	r0, r0, r0
    2f38:	23000005 	movwcs	r0, #5
    2f3c:	01000005 	tsteq	r0, r5
    2f40:	05235000 	streq	r5, [r3, #-0]!
    2f44:	05480000 	strbeq	r0, [r8, #-0]
    2f48:	00010000 	andeq	r0, r1, r0
    2f4c:	00054854 	andeq	r4, r5, r4, asr r8
    2f50:	00056800 	andeq	r6, r5, r0, lsl #16
    2f54:	f3000400 	vshl.u8	d0, d0, d0
    2f58:	009f5001 	addseq	r5, pc, r1
	...
    2f64:	0f000000 	svceq	0x00000000
    2f68:	01000000 	mrseq	r0, (UNDEF: 0)
    2f6c:	000f5000 	andeq	r5, pc, r0
    2f70:	00440000 	subeq	r0, r4, r0
    2f74:	00010000 	andeq	r0, r1, r0
    2f78:	00000054 	andeq	r0, r0, r4, asr r0
	...
    2f84:	00000f00 	andeq	r0, r0, r0, lsl #30
    2f88:	50000100 	andpl	r0, r0, r0, lsl #2
    2f8c:	0000000f 	andeq	r0, r0, pc
    2f90:	00000044 	andeq	r0, r0, r4, asr #32
    2f94:	00540001 	subseq	r0, r4, r1
    2f98:	00000000 	andeq	r0, r0, r0
    2f9c:	Address 0x0000000000002f9c is out of bounds.


Disassembly of section .debug_aranges:

00000000 <.debug_aranges>:
   0:	0000001c 	andeq	r0, r0, ip, lsl r0
   4:	00000002 	andeq	r0, r0, r2
   8:	00040000 	andeq	r0, r4, r0
   c:	00000000 	andeq	r0, r0, r0
  10:	00008010 	andeq	r8, r0, r0, lsl r0
  14:	0000090c 	andeq	r0, r0, ip, lsl #18
	...
  20:	0000001c 	andeq	r0, r0, ip, lsl r0
  24:	17750002 	ldrbne	r0, [r5, -r2]!
  28:	00040000 	andeq	r0, r4, r0
  2c:	00000000 	andeq	r0, r0, r0
  30:	00008920 	andeq	r8, r0, r0, lsr #18
  34:	00000838 	andeq	r0, r0, r8, lsr r8
	...
  40:	0000001c 	andeq	r0, r0, ip, lsl r0
  44:	280b0002 	stmdacs	fp, {r1}
  48:	00040000 	andeq	r0, r4, r0
  4c:	00000000 	andeq	r0, r0, r0
  50:	00009394 	muleq	r0, r4, r3
  54:	000002dc 	ldrdeq	r0, [r0], -ip
	...
  60:	0000001c 	andeq	r0, r0, ip, lsl r0
  64:	37d00002 	ldrbcc	r0, [r0, r2]
  68:	00040000 	andeq	r0, r4, r0
  6c:	00000000 	andeq	r0, r0, r0
  70:	00009670 	andeq	r9, r0, r0, ror r6
  74:	000000f0 	strdeq	r0, [r0], -r0	; <UNPREDICTABLE>
	...
  80:	0000001c 	andeq	r0, r0, ip, lsl r0
  84:	38cc0002 	stmiacc	ip, {r1}^
  88:	00040000 	andeq	r0, r4, r0
  8c:	00000000 	andeq	r0, r0, r0
  90:	00009760 	andeq	r9, r0, r0, ror #14
  94:	00000020 	andeq	r0, r0, r0, lsr #32
	...
  a0:	0000001c 	andeq	r0, r0, ip, lsl r0
  a4:	39ab0002 	stmibcc	fp!, {r1}
  a8:	00040000 	andeq	r0, r4, r0
  ac:	00000000 	andeq	r0, r0, r0
  b0:	00009780 	andeq	r9, r0, r0, lsl #15
  b4:	00000058 	andeq	r0, r0, r8, asr r0
	...
  c0:	0000001c 	andeq	r0, r0, ip, lsl r0
  c4:	3b400002 	blcc	10000d4 <__bss_end__+0xff3d4c>
  c8:	00040000 	andeq	r0, r4, r0
  cc:	00000000 	andeq	r0, r0, r0
  d0:	000097d8 	ldrdeq	r9, [r0], -r8
  d4:	0000003c 	andeq	r0, r0, ip, lsr r0
	...
  e0:	0000001c 	andeq	r0, r0, ip, lsl r0
  e4:	3c570002 	mrrccc	0, 0, r0, r7, cr2
  e8:	00040000 	andeq	r0, r4, r0
  ec:	00000000 	andeq	r0, r0, r0
  f0:	00009814 	andeq	r9, r0, r4, lsl r8
  f4:	00000034 	andeq	r0, r0, r4, lsr r0
	...
 100:	0000001c 	andeq	r0, r0, ip, lsl r0
 104:	3d490002 	stclcc	0, cr0, [r9, #-8]
 108:	00040000 	andeq	r0, r4, r0
 10c:	00000000 	andeq	r0, r0, r0
 110:	00009848 	andeq	r9, r0, r8, asr #16
 114:	000004f8 	strdeq	r0, [r0], -r8
	...
 120:	0000001c 	andeq	r0, r0, ip, lsl r0
 124:	43ce0002 	bicmi	r0, lr, #2
 128:	00040000 	andeq	r0, r4, r0
 12c:	00000000 	andeq	r0, r0, r0
 130:	00009d40 	andeq	r9, r0, r0, asr #26
 134:	00000028 	andeq	r0, r0, r8, lsr #32
	...
 140:	0000001c 	andeq	r0, r0, ip, lsl r0
 144:	44d10002 	ldrbmi	r0, [r1], #2
 148:	00040000 	andeq	r0, r4, r0
 14c:	00000000 	andeq	r0, r0, r0
 150:	00009d68 	andeq	r9, r0, r8, ror #26
 154:	000000b0 	strheq	r0, [r0], -r0	; <UNPREDICTABLE>
	...
 160:	0000001c 	andeq	r0, r0, ip, lsl r0
 164:	47b20002 	ldrmi	r0, [r2, r2]!
 168:	00040000 	andeq	r0, r4, r0
 16c:	00000000 	andeq	r0, r0, r0
 170:	00009e18 	andeq	r9, r0, r8, lsl lr
 174:	00000074 	andeq	r0, r0, r4, ror r0
	...
 180:	0000001c 	andeq	r0, r0, ip, lsl r0
 184:	49630002 	stmdbmi	r3!, {r1}^
 188:	00040000 	andeq	r0, r4, r0
 18c:	00000000 	andeq	r0, r0, r0
 190:	00009e8c 	andeq	r9, r0, ip, lsl #29
 194:	00000088 	andeq	r0, r0, r8, lsl #1
	...
 1a0:	0000001c 	andeq	r0, r0, ip, lsl r0
 1a4:	4b3f0002 	blmi	fc01b4 <__bss_end__+0xfb3e2c>
 1a8:	00040000 	andeq	r0, r4, r0
 1ac:	00000000 	andeq	r0, r0, r0
 1b0:	00009f14 	andeq	r9, r0, r4, lsl pc
 1b4:	00000620 	andeq	r0, r0, r0, lsr #12
	...
 1c0:	0000001c 	andeq	r0, r0, ip, lsl r0
 1c4:	5d0d0002 	stcpl	0, cr0, [sp, #-8]
 1c8:	00040000 	andeq	r0, r4, r0
 1cc:	00000000 	andeq	r0, r0, r0
 1d0:	0000a534 	andeq	sl, r0, r4, lsr r5
 1d4:	00000154 	andeq	r0, r0, r4, asr r1
	...
 1e0:	0000001c 	andeq	r0, r0, ip, lsl r0
 1e4:	61100002 	tstvs	r0, r2
 1e8:	00040000 	andeq	r0, r4, r0
 1ec:	00000000 	andeq	r0, r0, r0
 1f0:	0000a688 	andeq	sl, r0, r8, lsl #13
 1f4:	000000ac 	andeq	r0, r0, ip, lsr #1
	...
 200:	0000001c 	andeq	r0, r0, ip, lsl r0
 204:	63af0002 			; <UNDEFINED> instruction: 0x63af0002
 208:	00040000 	andeq	r0, r4, r0
 20c:	00000000 	andeq	r0, r0, r0
 210:	0000a884 	andeq	sl, r0, r4, lsl #17
 214:	00000568 	andeq	r0, r0, r8, ror #10
	...
 220:	0000001c 	andeq	r0, r0, ip, lsl r0
 224:	6bd40002 	blvs	ff500234 <__bss_end__+0xff4f3eac>
 228:	00040000 	andeq	r0, r4, r0
 22c:	00000000 	andeq	r0, r0, r0
 230:	0000adec 	andeq	sl, r0, ip, ror #27
 234:	00000050 	andeq	r0, r0, r0, asr r0
	...
 240:	0000001c 	andeq	r0, r0, ip, lsl r0
 244:	6d9b0002 	ldcvs	0, cr0, [fp, #8]
 248:	00040000 	andeq	r0, r4, r0
 24c:	00000000 	andeq	r0, r0, r0
 250:	0000ae3c 	andeq	sl, r0, ip, lsr lr
 254:	00000044 	andeq	r0, r0, r4, asr #32
	...
 260:	0000001c 	andeq	r0, r0, ip, lsl r0
 264:	6edd0002 	cdpvs	0, 13, cr0, cr13, cr2, {0}
 268:	00040000 	andeq	r0, r4, r0
 26c:	00000000 	andeq	r0, r0, r0
 270:	0000ae80 	andeq	sl, r0, r0, lsl #29
 274:	00000044 	andeq	r0, r0, r4, asr #32
	...

Disassembly of section .debug_ranges:

00000000 <.debug_ranges>:
   0:	000002ac 	andeq	r0, r0, ip, lsr #5
   4:	000002cc 	andeq	r0, r0, ip, asr #5
   8:	000002d0 	ldrdeq	r0, [r0], -r0	; <UNPREDICTABLE>
   c:	000002d8 	ldrdeq	r0, [r0], -r8
	...
  18:	00000278 	andeq	r0, r0, r8, ror r2
  1c:	00000280 	andeq	r0, r0, r0, lsl #5
  20:	0000029c 	muleq	r0, ip, r2
  24:	000002dc 	ldrdeq	r0, [r0], -ip
	...
  30:	00000294 	muleq	r0, r4, r2
  34:	00000298 	muleq	r0, r8, r2
  38:	000002c8 	andeq	r0, r0, r8, asr #5
  3c:	000004b8 			; <UNDEFINED> instruction: 0x000004b8
	...
  48:	00009e18 	andeq	r9, r0, r8, lsl lr
  4c:	00009e8c 	andeq	r9, r0, ip, lsl #29
	...

Disassembly of section .debug_line:

00000000 <.debug_line>:
       0:	000002f1 	strdeq	r0, [r0], -r1
       4:	01950002 	orrseq	r0, r5, r2
       8:	01020000 	mrseq	r0, (UNDEF: 2)
       c:	000d0efb 	strdeq	r0, [sp], -fp
      10:	01010101 	tsteq	r1, r1, lsl #2
      14:	01000000 	mrseq	r0, (UNDEF: 0)
      18:	2f010000 	svccs	0x00010000
      1c:	2f727375 	svccs	0x00727375
      20:	61636f6c 	cmnvs	r3, ip, ror #30
      24:	65432f6c 	strbvs	r2, [r3, #-3948]	; 0xf6c
      28:	72616c6c 	rsbvc	r6, r1, #108, 24	; 0x6c00
      2c:	6d72612f 	ldfvse	f6, [r2, #-188]!	; 0xffffff44
      30:	6e6f6e2d 	cdpvs	14, 6, cr6, cr15, cr13, {1}
      34:	61652d65 	cmnvs	r5, r5, ror #26
      38:	342f6962 	strtcc	r6, [pc], #-2402	; 40 <_start-0x7fc0>
      3c:	332e382e 	teqcc	lr, #3014656	; 0x2e0000
      40:	3173632d 	cmncc	r3, sp, lsr #6
      44:	2f653037 	svccs	0x00653037
      48:	2f62696c 	svccs	0x0062696c
      4c:	2f636367 	svccs	0x00636367
      50:	2d6d7261 	sfmcs	f7, 2, [sp, #-388]!	; 0xfffffe7c
      54:	656e6f6e 	strbvs	r6, [lr, #-3950]!	; 0xf6e
      58:	6261652d 	rsbvs	r6, r1, #188743680	; 0xb400000
      5c:	2e342f69 	cdpcs	15, 3, cr2, cr4, cr9, {3}
      60:	2f332e38 	svccs	0x00332e38
      64:	6c636e69 	stclvs	14, cr6, [r3], #-420	; 0xfffffe5c
      68:	00656475 	rsbeq	r6, r5, r5, ror r4
      6c:	6573552f 	ldrbvs	r5, [r3, #-1327]!	; 0x52f
      70:	622f7372 	eorvs	r7, pc, #-939524095	; 0xc8000001
      74:	6e616972 	mcrvs	9, 3, r6, cr1, cr2, {3}
      78:	2f6e756a 	svccs	0x006e756a
      7c:	6b736544 	blvs	1cd9594 <__bss_end__+0x1ccd20c>
      80:	2f706f74 	svccs	0x00706f74
      84:	6f686373 	svcvs	0x00686373
      88:	572f6c6f 	strpl	r6, [pc, -pc, ror #24]!
      8c:	65746e69 	ldrbvs	r6, [r4, #-3689]!	; 0xe69
      90:	32393172 	eorscc	r3, r9, #-2147483620	; 0x8000001c
      94:	53432f30 	movtpl	r2, #16176	; 0x3f30
      98:	45303431 	ldrmi	r3, [r0, #-1073]!	; 0x431
      9c:	3173632f 	cmncc	r3, pc, lsr #6
      a0:	2d653034 	stclcs	0, cr3, [r5, #-208]!	; 0xffffff30
      a4:	69773032 	ldmdbvs	r7!, {r1, r4, r5, ip, sp}^
      a8:	696c2f6e 	stmdbvs	ip!, {r1, r2, r3, r5, r6, r8, r9, sl, fp, sp}^
      ac:	00697062 	rsbeq	r7, r9, r2, rrx
      b0:	7273752f 	rsbsvc	r7, r3, #197132288	; 0xbc00000
      b4:	636f6c2f 	cmnvs	pc, #12032	; 0x2f00
      b8:	432f6c61 	teqmi	pc, #24832	; 0x6100
      bc:	616c6c65 	cmnvs	ip, r5, ror #24
      c0:	72612f72 	rsbvc	r2, r1, #456	; 0x1c8
      c4:	6f6e2d6d 	svcvs	0x006e2d6d
      c8:	652d656e 	strvs	r6, [sp, #-1390]!	; 0x56e
      cc:	2f696261 	svccs	0x00696261
      d0:	2e382e34 	mrccs	14, 1, r2, cr8, cr4, {1}
      d4:	73632d33 	cmnvc	r3, #3264	; 0xcc0
      d8:	65303731 	ldrvs	r3, [r0, #-1841]!	; 0x731
      dc:	6d72612f 	ldfvse	f6, [r2, #-188]!	; 0xffffff44
      e0:	6e6f6e2d 	cdpvs	14, 6, cr6, cr15, cr13, {1}
      e4:	61652d65 	cmnvs	r5, r5, ror #26
      e8:	692f6962 	stmdbvs	pc!, {r1, r5, r6, r8, fp, sp, lr}	; <UNPREDICTABLE>
      ec:	756c636e 	strbvc	r6, [ip, #-878]!	; 0x36e
      f0:	2f006564 	svccs	0x00006564
      f4:	72657355 	rsbvc	r7, r5, #1409286145	; 0x54000001
      f8:	72622f73 	rsbvc	r2, r2, #460	; 0x1cc
      fc:	6a6e6169 	bvs	1b986a8 <__bss_end__+0x1b8c320>
     100:	442f6e75 	strtmi	r6, [pc], #-3701	; 108 <_start-0x7ef8>
     104:	746b7365 	strbtvc	r7, [fp], #-869	; 0x365
     108:	732f706f 	teqvc	pc, #111	; 0x6f
     10c:	6f6f6863 	svcvs	0x006f6863
     110:	69572f6c 	ldmdbvs	r7, {r2, r3, r5, r6, r8, r9, sl, fp, sp}^
     114:	7265746e 	rsbvc	r7, r5, #1845493760	; 0x6e000000
     118:	30323931 	eorscc	r3, r2, r1, lsr r9
     11c:	3153432f 	cmpcc	r3, pc, lsr #6
     120:	2f453034 	svccs	0x00453034
     124:	34317363 	ldrtcc	r7, [r1], #-867	; 0x363
     128:	322d6530 	eorcc	r6, sp, #48, 10	; 0xc000000
     12c:	6e697730 	mcrvs	7, 3, r7, cr9, cr0, {1}
     130:	62696c2f 	rsbvs	r6, r9, #12032	; 0x2f00
     134:	632f6970 	teqvs	pc, #112, 18	; 0x1c0000
     138:	30343173 	eorscc	r3, r4, r3, ror r1
     13c:	6e692d65 	cdpvs	13, 6, cr2, cr9, cr5, {3}
     140:	72726574 	rsbsvc	r6, r2, #116, 10	; 0x1d000000
     144:	00747075 	rsbseq	r7, r4, r5, ror r0
     148:	2e6d7600 	cdpcs	6, 6, cr7, cr13, cr0, {0}
     14c:	00000063 	andeq	r0, r0, r3, rrx
     150:	64747300 	ldrbtvs	r7, [r4], #-768	; 0x300
     154:	2e666564 	cdpcs	5, 6, cr6, cr6, cr4, {3}
     158:	00010068 	andeq	r0, r1, r8, rrx
     15c:	64747300 	ldrbtvs	r7, [r4], #-768	; 0x300
     160:	2d746e69 	ldclcs	14, cr6, [r4, #-420]!	; 0xfffffe5c
     164:	2e636367 	cdpcs	3, 6, cr6, cr3, cr7, {3}
     168:	00010068 	andeq	r0, r1, r8, rrx
     16c:	2e6d7600 	cdpcs	6, 6, cr7, cr13, cr0, {0}
     170:	00000068 	andeq	r0, r0, r8, rrx
     174:	69707200 	ldmdbvs	r0!, {r9, ip, sp, lr}^
     178:	0200682e 	andeq	r6, r0, #3014656	; 0x2e0000
     17c:	74730000 	ldrbtvc	r0, [r3], #-0
     180:	676e6972 			; <UNDEFINED> instruction: 0x676e6972
     184:	0300682e 	movweq	r6, #2094	; 0x82e
     188:	70720000 	rsbsvc	r0, r2, r0
     18c:	6e692d69 	cdpvs	13, 6, cr2, cr9, cr9, {3}
     190:	72726574 	rsbsvc	r6, r2, #116, 10	; 0x1d000000
     194:	73747075 	cmnvc	r4, #117	; 0x75
     198:	0400682e 	streq	r6, [r0], #-2094	; 0x82e
     19c:	00000000 	andeq	r0, r0, r0
     1a0:	80100205 	andshi	r0, r0, r5, lsl #4
     1a4:	1d030000 	stcne	0, cr0, [r3, #-0]
     1a8:	02006701 	andeq	r6, r0, #262144	; 0x40000
     1ac:	4a060104 	bmi	1805c4 <__bss_end__+0x17423c>
     1b0:	672fd906 	strvs	sp, [pc, -r6, lsl #18]!
     1b4:	020067d9 	andeq	r6, r0, #56885248	; 0x3640000
     1b8:	4a060104 	bmi	1805d0 <__bss_end__+0x174248>
     1bc:	672fd906 	strvs	sp, [pc, -r6, lsl #18]!
     1c0:	2fd61203 	svccs	0x00d61203
     1c4:	0330de4b 	teqeq	r0, #1200	; 0x4b0
     1c8:	303c0810 	eorscc	r0, ip, r0, lsl r8
     1cc:	00492f4b 	subeq	r2, r9, fp, asr #30
     1d0:	2f020402 	svccs	0x00020402
     1d4:	02040200 	andeq	r0, r4, #0, 4
     1d8:	0402009d 	streq	r0, [r2], #-157	; 0x9d
     1dc:	062e0601 	strteq	r0, [lr], -r1, lsl #12
     1e0:	682f4c4d 	stmdavs	pc!, {r0, r2, r3, r6, sl, fp, lr}	; <UNPREDICTABLE>
     1e4:	032f682f 	teqeq	pc, #3080192	; 0x2f0000
     1e8:	0083660a 	addeq	r6, r3, sl, lsl #12
     1ec:	06010402 	streq	r0, [r1], -r2, lsl #8
     1f0:	00d7064a 	sbcseq	r0, r7, sl, asr #12
     1f4:	06010402 	streq	r0, [r1], -r2, lsl #8
     1f8:	30db064a 	sbcscc	r0, fp, sl, asr #12
     1fc:	2e0f034b 	cdpcs	3, 0, cr0, cr15, cr11, {2}
     200:	2f2f4b84 	svccs	0x002f4b84
     204:	f484834b 	vst4.8	{d8[2],d9[2],d10[2],d11[2]}, [r4], fp
     208:	0402009f 	streq	r0, [r2], #-159	; 0x9f
     20c:	064a0601 	strbeq	r0, [sl], -r1, lsl #12
     210:	040200d7 	streq	r0, [r2], #-215	; 0xd7
     214:	004a0601 	subeq	r0, sl, r1, lsl #12
     218:	06020402 	streq	r0, [r2], -r2, lsl #8
     21c:	040200d8 	streq	r0, [r2], #-216	; 0xd8
     220:	02008302 	andeq	r8, r0, #134217728	; 0x8000000
     224:	002f0204 	eoreq	r0, pc, r4, lsl #4
     228:	2b020402 	blcs	81238 <__bss_end__+0x74eb0>
     22c:	01040200 	mrseq	r0, R12_usr
     230:	4f066606 	svcmi	0x00066606
     234:	02004ba1 	andeq	r4, r0, #164864	; 0x28400
     238:	4a060104 	bmi	180650 <__bss_end__+0x1742c8>
     23c:	4d68d906 	stclmi	9, cr13, [r8, #-24]!	; 0xffffffe8
     240:	2fba0a03 	svccs	0x00ba0a03
     244:	2f4d2f2f 	svccs	0x004d2f2f
     248:	081f032f 	ldmdaeq	pc, {r0, r1, r2, r3, r5, r8, r9}	; <UNPREDICTABLE>
     24c:	322f353c 	eorcc	r3, pc, #60, 10	; 0xf000000
     250:	22028468 	andcs	r8, r2, #104, 8	; 0x68000000
     254:	2fd92f14 	svccs	0x00d92f14
     258:	4bda2fd9 	blmi	ff68c1c4 <__bss_end__+0xff67fe3c>
     25c:	bb4b31bb 	bllt	12cc950 <__bss_end__+0x12c05c8>
     260:	08d82f30 	ldmeq	r8, {r4, r5, r8, r9, sl, fp, sp}^
     264:	082f2f93 	stmdaeq	pc!, {r0, r1, r4, r7, r8, r9, sl, fp, sp}	; <UNPREDICTABLE>
     268:	10032f5a 	andne	r2, r3, sl, asr pc
     26c:	674d4b4a 	strbvs	r4, [sp, -sl, asr #22]
     270:	01040200 	mrseq	r0, R12_usr
     274:	d9064a06 	stmdble	r6, {r1, r2, r9, fp, lr}
     278:	83868468 	orrhi	r8, r6, #104, 8	; 0x68000000
     27c:	36838683 	strcc	r8, [r3], r3, lsl #13
     280:	004b4b30 	subeq	r4, fp, r0, lsr fp
     284:	06010402 	streq	r0, [r1], -r2, lsl #8
     288:	00d7064a 	sbcseq	r0, r7, sl, asr #12
     28c:	06010402 	streq	r0, [r1], -r2, lsl #8
     290:	4bd9064a 	blmi	ff641bc0 <__bss_end__+0xff635838>
     294:	66090331 			; <UNDEFINED> instruction: 0x66090331
     298:	02004b4e 	andeq	r4, r0, #79872	; 0x13800
     29c:	4a060104 	bmi	1806b4 <__bss_end__+0x17432c>
     2a0:	0068d906 	rsbeq	sp, r8, r6, lsl #18
     2a4:	06010402 	streq	r0, [r1], -r2, lsl #8
     2a8:	67d80666 	ldrbvs	r0, [r8, r6, ror #12]
     2ac:	0b03674b 	bleq	d9fe0 <__bss_end__+0xcdc58>
     2b0:	00676766 	rsbeq	r6, r7, r6, ror #14
     2b4:	06010402 	streq	r0, [r1], -r2, lsl #8
     2b8:	d9d70682 	ldmible	r7, {r1, r7, r9, sl}^
     2bc:	00678367 	rsbeq	r8, r7, r7, ror #6
     2c0:	06010402 	streq	r0, [r1], -r2, lsl #8
     2c4:	a0d70682 	sbcsge	r0, r7, r2, lsl #13
     2c8:	002f4d4f 	eoreq	r4, pc, pc, asr #26
     2cc:	06010402 	streq	r0, [r1], -r2, lsl #8
     2d0:	4dd7064a 	ldclmi	6, cr0, [r7, #296]	; 0x128
     2d4:	01040200 	mrseq	r0, R12_usr
     2d8:	d7064a06 	strle	r4, [r6, -r6, lsl #20]
     2dc:	01040200 	mrseq	r0, R12_usr
     2e0:	d7064a06 	strle	r4, [r6, -r6, lsl #20]
     2e4:	1444024b 	strbne	r0, [r4], #-587	; 0x24b
     2e8:	4b4c2f2f 	blmi	130bfac <__bss_end__+0x12ffc24>
     2ec:	304b4c2f 	subcc	r4, fp, pc, lsr #24
     2f0:	01000a02 	tsteq	r0, r2, lsl #20
     2f4:	00024d01 	andeq	r4, r2, r1, lsl #26
     2f8:	32000200 	andcc	r0, r0, #0, 4
     2fc:	02000001 	andeq	r0, r0, #1
     300:	0d0efb01 	vstreq	d15, [lr, #-4]
     304:	01010100 	mrseq	r0, (UNDEF: 17)
     308:	00000001 	andeq	r0, r0, r1
     30c:	01000001 	tsteq	r0, r1
     310:	7273752f 	rsbsvc	r7, r3, #197132288	; 0xbc00000
     314:	636f6c2f 	cmnvs	pc, #12032	; 0x2f00
     318:	432f6c61 	teqmi	pc, #24832	; 0x6100
     31c:	616c6c65 	cmnvs	ip, r5, ror #24
     320:	72612f72 	rsbvc	r2, r1, #456	; 0x1c8
     324:	6f6e2d6d 	svcvs	0x006e2d6d
     328:	652d656e 	strvs	r6, [sp, #-1390]!	; 0x56e
     32c:	2f696261 	svccs	0x00696261
     330:	2e382e34 	mrccs	14, 1, r2, cr8, cr4, {1}
     334:	73632d33 	cmnvc	r3, #3264	; 0xcc0
     338:	65303731 	ldrvs	r3, [r0, #-1841]!	; 0x731
     33c:	62696c2f 	rsbvs	r6, r9, #12032	; 0x2f00
     340:	6363672f 	cmnvs	r3, #12320768	; 0xbc0000
     344:	6d72612f 	ldfvse	f6, [r2, #-188]!	; 0xffffff44
     348:	6e6f6e2d 	cdpvs	14, 6, cr6, cr15, cr13, {1}
     34c:	61652d65 	cmnvs	r5, r5, ror #26
     350:	342f6962 	strtcc	r6, [pc], #-2402	; 358 <_start-0x7ca8>
     354:	332e382e 	teqcc	lr, #3014656	; 0x2e0000
     358:	636e692f 	cmnvs	lr, #770048	; 0xbc000
     35c:	6564756c 	strbvs	r7, [r4, #-1388]!	; 0x56c
     360:	73552f00 	cmpvc	r5, #0, 30
     364:	2f737265 	svccs	0x00737265
     368:	61697262 	cmnvs	r9, r2, ror #4
     36c:	6e756a6e 	vsubvs.f32	s13, s10, s29
     370:	7365442f 	cmnvc	r5, #788529152	; 0x2f000000
     374:	706f746b 	rsbvc	r7, pc, fp, ror #8
     378:	6863732f 	stmdavs	r3!, {r0, r1, r2, r3, r5, r8, r9, ip, sp, lr}^
     37c:	2f6c6f6f 	svccs	0x006c6f6f
     380:	746e6957 	strbtvc	r6, [lr], #-2391	; 0x957
     384:	39317265 	ldmdbcc	r1!, {r0, r2, r5, r6, r9, ip, sp, lr}
     388:	432f3032 	teqmi	pc, #50	; 0x32
     38c:	30343153 	eorscc	r3, r4, r3, asr r1
     390:	73632f45 	cmnvc	r3, #276	; 0x114
     394:	65303431 	ldrvs	r3, [r0, #-1073]!	; 0x431
     398:	7730322d 	ldrvc	r3, [r0, -sp, lsr #4]!
     39c:	6c2f6e69 	stcvs	14, cr6, [pc], #-420	; 200 <_start-0x7e00>
     3a0:	69706269 	ldmdbvs	r0!, {r0, r3, r5, r6, r9, sp, lr}^
     3a4:	73552f00 	cmpvc	r5, #0, 30
     3a8:	2f737265 	svccs	0x00737265
     3ac:	61697262 	cmnvs	r9, r2, ror #4
     3b0:	6e756a6e 	vsubvs.f32	s13, s10, s29
     3b4:	7365442f 	cmnvc	r5, #788529152	; 0x2f000000
     3b8:	706f746b 	rsbvc	r7, pc, fp, ror #8
     3bc:	6863732f 	stmdavs	r3!, {r0, r1, r2, r3, r5, r8, r9, ip, sp, lr}^
     3c0:	2f6c6f6f 	svccs	0x006c6f6f
     3c4:	746e6957 	strbtvc	r6, [lr], #-2391	; 0x957
     3c8:	39317265 	ldmdbcc	r1!, {r0, r2, r5, r6, r9, ip, sp, lr}
     3cc:	432f3032 	teqmi	pc, #50	; 0x32
     3d0:	30343153 	eorscc	r3, r4, r3, asr r1
     3d4:	73632f45 	cmnvc	r3, #276	; 0x114
     3d8:	65303431 	ldrvs	r3, [r0, #-1073]!	; 0x431
     3dc:	7730322d 	ldrvc	r3, [r0, -sp, lsr #4]!
     3e0:	6c2f6e69 	stcvs	14, cr6, [pc], #-420	; 244 <_start-0x7dbc>
     3e4:	69706269 	ldmdbvs	r0!, {r0, r3, r5, r6, r9, sp, lr}^
     3e8:	62696c2f 	rsbvs	r6, r9, #12032	; 0x2f00
     3ec:	76000063 	strvc	r0, [r0], -r3, rrx
     3f0:	65682d6d 	strbvs	r2, [r8, #-3437]!	; 0xd6d
     3f4:	7265706c 	rsbvc	r7, r5, #108	; 0x6c
     3f8:	00632e73 	rsbeq	r2, r3, r3, ror lr
     3fc:	76000000 	strvc	r0, [r0], -r0
     400:	00682e6d 	rsbeq	r2, r8, sp, ror #28
     404:	73000000 	movwvc	r0, #0
     408:	6e696474 	mcrvs	4, 3, r6, cr9, cr4, {3}
     40c:	63672d74 	cmnvs	r7, #116, 26	; 0x1d00
     410:	00682e63 	rsbeq	r2, r8, r3, ror #28
     414:	72000001 	andvc	r0, r0, #1
     418:	682e6970 	stmdavs	lr!, {r4, r5, r6, r8, fp, sp, lr}
     41c:	00000200 	andeq	r0, r0, r0, lsl #4
     420:	6362696c 	cmnvs	r2, #108, 18	; 0x1b0000
     424:	7478652d 	ldrbtvc	r6, [r8], #-1325	; 0x52d
     428:	682e6172 	stmdavs	lr!, {r1, r4, r5, r6, r8, sp, lr}
     42c:	00000300 	andeq	r0, r0, r0, lsl #6
     430:	02050000 	andeq	r0, r5, #0
     434:	00008920 	andeq	r8, r0, r0, lsr #18
     438:	30012e03 	andcc	r2, r1, r3, lsl #28
     43c:	01040200 	mrseq	r0, R12_usr
     440:	d7069e06 	strle	r9, [r6, -r6, lsl #28]
     444:	01040200 	mrseq	r0, R12_usr
     448:	d7066606 	strle	r6, [r6, -r6, lsl #12]
     44c:	01040200 	mrseq	r0, R12_usr
     450:	d9066606 	stmdble	r6, {r1, r2, r9, sl, sp, lr}
     454:	01040200 	mrseq	r0, R12_usr
     458:	d7066606 	strle	r6, [r6, -r6, lsl #12]
     45c:	01040200 	mrseq	r0, R12_usr
     460:	d7066606 	strle	r6, [r6, -r6, lsl #12]
     464:	01040200 	mrseq	r0, R12_usr
     468:	03066606 	movweq	r6, #26118	; 0x6606
     46c:	0200d609 	andeq	sp, r0, #9437184	; 0x900000
     470:	66060104 	strvs	r0, [r6], -r4, lsl #2
     474:	0200d706 	andeq	sp, r0, #1572864	; 0x180000
     478:	66060104 	strvs	r0, [r6], -r4, lsl #2
     47c:	0200d706 	andeq	sp, r0, #1572864	; 0x180000
     480:	66060104 	strvs	r0, [r6], -r4, lsl #2
     484:	022f0306 	eoreq	r0, pc, #402653184	; 0x18000000
     488:	002f0124 	eoreq	r0, pc, r4, lsr #2
     48c:	06010402 	streq	r0, [r1], -r2, lsl #8
     490:	00d70666 	sbcseq	r0, r7, r6, ror #12
     494:	06010402 	streq	r0, [r1], -r2, lsl #8
     498:	00d70682 	sbcseq	r0, r7, r2, lsl #13
     49c:	06010402 	streq	r0, [r1], -r2, lsl #8
     4a0:	00d70666 	sbcseq	r0, r7, r6, ror #12
     4a4:	06010402 	streq	r0, [r1], -r2, lsl #8
     4a8:	00d70666 	sbcseq	r0, r7, r6, ror #12
     4ac:	06010402 	streq	r0, [r1], -r2, lsl #8
     4b0:	00d70666 	sbcseq	r0, r7, r6, ror #12
     4b4:	06010402 	streq	r0, [r1], -r2, lsl #8
     4b8:	00d70666 	sbcseq	r0, r7, r6, ror #12
     4bc:	06010402 	streq	r0, [r1], -r2, lsl #8
     4c0:	00d70666 	sbcseq	r0, r7, r6, ror #12
     4c4:	06010402 	streq	r0, [r1], -r2, lsl #8
     4c8:	9c030666 	stcls	6, cr0, [r3], {102}	; 0x66
     4cc:	0122027f 	teqeq	r2, pc, ror r2
     4d0:	4a00cc03 	bmi	334e4 <__bss_end__+0x2715c>
     4d4:	7fad0301 	svcvc	0x00ad0301
     4d8:	0367014a 	cmneq	r7, #-2147483630	; 0x80000012
     4dc:	4b3c0836 	blmi	f025bc <__bss_end__+0xef6234>
     4e0:	bbbb4b30 	bllt	feed31a8 <__bss_end__+0xfeec6e20>
     4e4:	9f9fbbbb 	svcls	0x009fbbbb
     4e8:	bbbbbbbb 	bllt	feeef3dc <__bss_end__+0xfeee3054>
     4ec:	9f9fbbbb 	svcls	0x009fbbbb
     4f0:	03bbbbbb 			; <UNDEFINED> instruction: 0x03bbbbbb
     4f4:	0134020d 	teqeq	r4, sp, lsl #4
     4f8:	67834b4b 	strvs	r4, [r3, fp, asr #22]
     4fc:	15f21203 	ldrbne	r1, [r2, #515]!	; 0x203
     500:	03674b4c 	cmneq	r7, #76, 22	; 0x13000
     504:	02004a11 	andeq	r4, r0, #69632	; 0x11000
     508:	66060104 	strvs	r0, [r6], -r4, lsl #2
     50c:	02040200 	andeq	r0, r4, #0, 4
     510:	0200c808 	andeq	ip, r0, #8, 16	; 0x80000
     514:	064a0104 	strbeq	r0, [sl], -r4, lsl #2
     518:	4b4bf4d7 	blmi	12fd87c <__bss_end__+0x12f14f4>
     51c:	04020067 	streq	r0, [r2], #-103	; 0x67
     520:	20080601 	andcs	r0, r8, r1, lsl #12
     524:	4c9f4b06 	vldmiami	pc, {d4-d6}
     528:	bb9f9fbb 	bllt	fe7e841c <__bss_end__+0xfe7dc094>
     52c:	0200bbbb 	andeq	fp, r0, #191488	; 0x2ec00
     530:	08060104 	stmdaeq	r6, {r2, r8}
     534:	bb4b0658 	bllt	12c1e9c <__bss_end__+0x12b5b14>
     538:	02a0bbbb 	adceq	fp, r0, #191488	; 0x2ec00
     53c:	2f2f192a 	svccs	0x002f192a
     540:	0004022f 	andeq	r0, r4, pc, lsr #4
     544:	01810101 	orreq	r0, r1, r1, lsl #2
     548:	00020000 	andeq	r0, r2, r0
     54c:	000000f2 	strdeq	r0, [r0], -r2
     550:	0efb0102 	cdpeq	1, 15, cr0, cr11, cr2, {0}
     554:	0101000d 	tsteq	r1, sp
     558:	00000101 	andeq	r0, r0, r1, lsl #2
     55c:	00000100 	andeq	r0, r0, r0, lsl #2
     560:	73752f01 	cmnvc	r5, #1, 30
     564:	72612f72 	rsbvc	r2, r1, #456	; 0x1c8
     568:	6f6e2d6d 	svcvs	0x006e2d6d
     56c:	652d656e 	strvs	r6, [sp, #-1390]!	; 0x56e
     570:	2f696261 	svccs	0x00696261
     574:	6c636e69 	stclvs	14, cr6, [r3], #-420	; 0xfffffe5c
     578:	2f656475 	svccs	0x00656475
     57c:	00737973 	rsbseq	r7, r3, r3, ror r9
     580:	7273752f 	rsbsvc	r7, r3, #197132288	; 0xbc00000
     584:	62696c2f 	rsbvs	r6, r9, #12032	; 0x2f00
     588:	6363672f 	cmnvs	r3, #12320768	; 0xbc0000
     58c:	6d72612f 	ldfvse	f6, [r2, #-188]!	; 0xffffff44
     590:	6e6f6e2d 	cdpvs	14, 6, cr6, cr15, cr13, {1}
     594:	61652d65 	cmnvs	r5, r5, ror #26
     598:	372f6962 	strcc	r6, [pc, -r2, ror #18]!
     59c:	312e332e 	teqcc	lr, lr, lsr #6
     5a0:	636e692f 	cmnvs	lr, #770048	; 0xbc000
     5a4:	6564756c 	strbvs	r7, [r4, #-1388]!	; 0x56c
     5a8:	6f682f00 	svcvs	0x00682f00
     5ac:	652f656d 	strvs	r6, [pc, #-1389]!	; 47 <_start-0x7fb9>
     5b0:	656c676e 	strbvs	r6, [ip, #-1902]!	; 0x76e
     5b4:	6c632f72 	stclvs	15, cr2, [r3], #-456	; 0xfffffe38
     5b8:	2f737361 	svccs	0x00737361
     5bc:	34317363 	ldrtcc	r7, [r1], #-867	; 0x363
     5c0:	322d6530 	eorcc	r6, sp, #48, 10	; 0xc000000
     5c4:	6e697730 	mcrvs	7, 3, r7, cr9, cr0, {1}
     5c8:	62696c2f 	rsbvs	r6, r9, #12032	; 0x2f00
     5cc:	2f006970 	svccs	0x00006970
     5d0:	2f727375 	svccs	0x00727375
     5d4:	2d6d7261 	sfmcs	f7, 2, [sp, #-388]!	; 0xfffffe7c
     5d8:	656e6f6e 	strbvs	r6, [lr, #-3950]!	; 0xf6e
     5dc:	6261652d 	rsbvs	r6, r1, #188743680	; 0xb400000
     5e0:	6e692f69 	cdpvs	15, 6, cr2, cr9, cr9, {3}
     5e4:	64756c63 	ldrbtvs	r6, [r5], #-3171	; 0xc63
     5e8:	6f000065 	svcvs	0x00000065
     5ec:	762d7275 			; <UNDEFINED> instruction: 0x762d7275
     5f0:	00632e6d 	rsbeq	r2, r3, sp, ror #28
     5f4:	6c000000 	stcvs	0, cr0, [r0], {-0}
     5f8:	2e6b636f 	cdpcs	3, 6, cr6, cr11, cr15, {3}
     5fc:	00010068 	andeq	r0, r1, r8, rrx
     600:	79745f00 	ldmdbvc	r4!, {r8, r9, sl, fp, ip, lr}^
     604:	2e736570 	mrccs	5, 3, r6, cr3, cr0, {3}
     608:	00010068 	andeq	r0, r1, r8, rrx
     60c:	64747300 	ldrbtvs	r7, [r4], #-768	; 0x300
     610:	2e666564 	cdpcs	5, 6, cr6, cr6, cr4, {3}
     614:	00020068 	andeq	r0, r2, r8, rrx
     618:	65657200 	strbvs	r7, [r5, #-512]!	; 0x200
     61c:	682e746e 	stmdavs	lr!, {r1, r2, r3, r5, r6, sl, ip, sp, lr}
     620:	00000100 	andeq	r0, r0, r0, lsl #2
     624:	2e697072 	mcrcs	0, 3, r7, cr9, cr2, {3}
     628:	00030068 	andeq	r0, r3, r8, rrx
     62c:	2e6d7600 	cdpcs	6, 6, cr7, cr13, cr0, {0}
     630:	00000068 	andeq	r0, r0, r8, rrx
     634:	72747300 	rsbsvc	r7, r4, #0, 6
     638:	2e676e69 	cdpcs	14, 6, cr6, cr7, cr9, {3}
     63c:	00040068 	andeq	r0, r4, r8, rrx
     640:	05000000 	streq	r0, [r0, #-0]
     644:	00939402 	addseq	r9, r3, r2, lsl #8
     648:	68141900 	ldmdavs	r4, {r8, fp, ip}
     64c:	2f2f4b2f 	svccs	0x002f4b2f
     650:	04020068 	streq	r0, [r2], #-104	; 0x68
     654:	02004501 	andeq	r4, r0, #4194304	; 0x400000
     658:	03d90104 	bicseq	r0, r9, #4, 2
     65c:	2f580811 	svccs	0x00580811
     660:	0200a14c 	andeq	sl, r0, #76, 2
     664:	4a060104 	bmi	180a7c <__bss_end__+0x1746f4>
     668:	01040200 	mrseq	r0, R12_usr
     66c:	1003d106 	andne	sp, r3, r6, lsl #2
     670:	832f5808 	teqhi	pc, #8, 16	; 0x80000
     674:	674b2f4c 	strbvs	r2, [fp, -ip, asr #30]
     678:	6730674f 	ldrvs	r6, [r0, -pc, asr #14]!
     67c:	2f676868 	svccs	0x00676868
     680:	0084834b 	addeq	r8, r4, fp, asr #6
     684:	03010402 	movweq	r0, #5122	; 0x1402
     688:	02004a67 	andeq	r4, r0, #421888	; 0x67000
     68c:	00d70104 	sbcseq	r0, r7, r4, lsl #2
     690:	da010402 	ble	416a0 <__bss_end__+0x35318>
     694:	ac081703 	stcge	7, cr1, [r8], {3}
     698:	0069692f 	rsbeq	r6, r9, pc, lsr #18
     69c:	03010402 	movweq	r0, #5122	; 0x1402
     6a0:	44084a7a 	strmi	r4, [r8], #-2682	; 0xa7a
     6a4:	004b4b83 	subeq	r4, fp, r3, lsl #23
     6a8:	49010402 	stmdbmi	r1, {r1, sl}
     6ac:	03040200 	movweq	r0, #16896	; 0x4200
     6b0:	040200d8 	streq	r0, [r2], #-216	; 0xd8
     6b4:	02006703 	andeq	r6, r0, #786432	; 0xc0000
     6b8:	009f0304 	addseq	r0, pc, r4, lsl #6
     6bc:	2b030402 	blcs	c16cc <__bss_end__+0xb5344>
     6c0:	01040200 	mrseq	r0, R12_usr
     6c4:	0c022e06 	stceq	14, cr2, [r2], {6}
     6c8:	de010100 	adfles	f0, f1, f0
     6cc:	02000000 	andeq	r0, r0, #0
     6d0:	00008300 	andeq	r8, r0, r0, lsl #6
     6d4:	fb010200 	blx	40ede <__bss_end__+0x34b56>
     6d8:	01000d0e 	tsteq	r0, lr, lsl #26
     6dc:	00010101 	andeq	r0, r1, r1, lsl #2
     6e0:	00010000 	andeq	r0, r1, r0
     6e4:	696c0100 	stmdbvs	ip!, {r8}^
     6e8:	2f006362 	svccs	0x00006362
     6ec:	2f727375 	svccs	0x00727375
     6f0:	61636f6c 	cmnvs	r3, ip, ror #30
     6f4:	65432f6c 	strbvs	r2, [r3, #-3948]	; 0xf6c
     6f8:	72616c6c 	rsbvc	r6, r1, #108, 24	; 0x6c00
     6fc:	6d72612f 	ldfvse	f6, [r2, #-188]!	; 0xffffff44
     700:	6e6f6e2d 	cdpvs	14, 6, cr6, cr15, cr13, {1}
     704:	61652d65 	cmnvs	r5, r5, ror #26
     708:	342f6962 	strtcc	r6, [pc], #-2402	; 710 <_start-0x78f0>
     70c:	332e382e 	teqcc	lr, #3014656	; 0x2e0000
     710:	3173632d 	cmncc	r3, sp, lsr #6
     714:	2f653037 	svccs	0x00653037
     718:	2f62696c 	svccs	0x0062696c
     71c:	2f636367 	svccs	0x00636367
     720:	2d6d7261 	sfmcs	f7, 2, [sp, #-388]!	; 0xfffffe7c
     724:	656e6f6e 	strbvs	r6, [lr, #-3950]!	; 0xf6e
     728:	6261652d 	rsbvs	r6, r1, #188743680	; 0xb400000
     72c:	2e342f69 	cdpcs	15, 3, cr2, cr4, cr9, {3}
     730:	2f332e38 	svccs	0x00332e38
     734:	6c636e69 	stclvs	14, cr6, [r3], #-420	; 0xfffffe5c
     738:	00656475 	rsbeq	r6, r5, r5, ror r4
     73c:	73616800 	cmnvc	r1, #0, 16
     740:	00632e68 	rsbeq	r2, r3, r8, ror #28
     744:	73000001 	movwvc	r0, #1
     748:	6e696474 	mcrvs	4, 3, r6, cr9, cr4, {3}
     74c:	63672d74 	cmnvs	r7, #116, 26	; 0x1d00
     750:	00682e63 	rsbeq	r2, r8, r3, ror #28
     754:	00000002 	andeq	r0, r0, r2
     758:	70020500 	andvc	r0, r2, r0, lsl #10
     75c:	03000096 	movweq	r0, #150	; 0x96
     760:	312f010e 	teqcc	pc, lr, lsl #2
     764:	00312f84 	eorseq	r2, r1, r4, lsl #31
     768:	2f020402 	svccs	0x00020402
     76c:	02040200 	andeq	r0, r4, #0, 4
     770:	04020083 	streq	r0, [r2], #-131	; 0x83
     774:	02008302 	andeq	r8, r0, #134217728	; 0x8000000
     778:	002f0204 	eoreq	r0, pc, r4, lsl #4
     77c:	2f020402 	svccs	0x00020402
     780:	02040200 	andeq	r0, r4, #0, 4
     784:	04020029 	streq	r0, [r2], #-41	; 0x29
     788:	062e0601 	strteq	r0, [lr], -r1, lsl #12
     78c:	d74a0903 	strble	r0, [sl, -r3, lsl #18]
     790:	2f4b2f83 	svccs	0x004b2f83
     794:	2f2f832f 	svccs	0x002f832f
     798:	322f4b2f 	eorcc	r4, pc, #48128	; 0xbc00
     79c:	2f2f2f2f 	svccs	0x002f2f2f
     7a0:	5a03302f 	bpl	cc864 <__bss_end__+0xc04dc>
     7a4:	2e27032e 	cdpcs	3, 2, cr0, cr7, cr14, {1}
     7a8:	01000402 	tsteq	r0, r2, lsl #8
     7ac:	0000ec01 	andeq	lr, r0, r1, lsl #24
     7b0:	d0000200 	andle	r0, r0, r0, lsl #4
     7b4:	02000000 	andeq	r0, r0, #0
     7b8:	0d0efb01 	vstreq	d15, [lr, #-4]
     7bc:	01010100 	mrseq	r0, (UNDEF: 17)
     7c0:	00000001 	andeq	r0, r0, r1
     7c4:	01000001 	tsteq	r0, r1
     7c8:	6362696c 	cmnvs	r2, #108, 18	; 0x1b0000
     7cc:	73752f00 	cmnvc	r5, #0, 30
     7d0:	6f6c2f72 	svcvs	0x006c2f72
     7d4:	2f6c6163 	svccs	0x006c6163
     7d8:	6c6c6543 	cfstr64vs	mvdx6, [ip], #-268	; 0xfffffef4
     7dc:	612f7261 	teqvs	pc, r1, ror #4
     7e0:	6e2d6d72 	mcrvs	13, 1, r6, cr13, cr2, {3}
     7e4:	2d656e6f 	stclcs	14, cr6, [r5, #-444]!	; 0xfffffe44
     7e8:	69626165 	stmdbvs	r2!, {r0, r2, r5, r6, r8, sp, lr}^
     7ec:	382e342f 	stmdacc	lr!, {r0, r1, r2, r3, r5, sl, ip, sp}
     7f0:	632d332e 	teqvs	sp, #-1207959552	; 0xb8000000
     7f4:	30373173 	eorscc	r3, r7, r3, ror r1
     7f8:	696c2f65 	stmdbvs	ip!, {r0, r2, r5, r6, r8, r9, sl, fp, sp}^
     7fc:	63672f62 	cmnvs	r7, #392	; 0x188
     800:	72612f63 	rsbvc	r2, r1, #396	; 0x18c
     804:	6f6e2d6d 	svcvs	0x006e2d6d
     808:	652d656e 	strvs	r6, [sp, #-1390]!	; 0x56e
     80c:	2f696261 	svccs	0x00696261
     810:	2e382e34 	mrccs	14, 1, r2, cr8, cr4, {1}
     814:	6e692f33 	mcrvs	15, 3, r2, cr9, cr3, {1}
     818:	64756c63 	ldrbtvs	r6, [r5], #-3171	; 0xc63
     81c:	752f0065 	strvc	r0, [pc, #-101]!	; 7bf <_start-0x7841>
     820:	6c2f7273 	sfmvs	f7, 4, [pc], #-460	; 65c <_start-0x79a4>
     824:	6c61636f 	stclvs	3, cr6, [r1], #-444	; 0xfffffe44
     828:	6c65432f 	stclvs	3, cr4, [r5], #-188	; 0xffffff44
     82c:	2f72616c 	svccs	0x0072616c
     830:	2d6d7261 	sfmcs	f7, 2, [sp, #-388]!	; 0xfffffe7c
     834:	656e6f6e 	strbvs	r6, [lr, #-3950]!	; 0xf6e
     838:	6261652d 	rsbvs	r6, r1, #188743680	; 0xb400000
     83c:	2e342f69 	cdpcs	15, 3, cr2, cr4, cr9, {3}
     840:	2d332e38 	ldccs	14, cr2, [r3, #-224]!	; 0xffffff20
     844:	37317363 	ldrcc	r7, [r1, -r3, ror #6]!
     848:	612f6530 	teqvs	pc, r0, lsr r5	; <UNPREDICTABLE>
     84c:	6e2d6d72 	mcrvs	13, 1, r6, cr13, cr2, {3}
     850:	2d656e6f 	stclcs	14, cr6, [r5, #-444]!	; 0xfffffe44
     854:	69626165 	stmdbvs	r2!, {r0, r2, r5, r6, r8, sp, lr}^
     858:	636e692f 	cmnvs	lr, #770048	; 0xbc000
     85c:	6564756c 	strbvs	r7, [r4, #-1388]!	; 0x56c
     860:	656d0000 	strbvs	r0, [sp, #-0]!
     864:	7465736d 	strbtvc	r7, [r5], #-877	; 0x36d
     868:	0100632e 	tsteq	r0, lr, lsr #6
     86c:	74730000 	ldrbtvc	r0, [r3], #-0
     870:	66656464 	strbtvs	r6, [r5], -r4, ror #8
     874:	0200682e 	andeq	r6, r0, #3014656	; 0x2e0000
     878:	74730000 	ldrbtvc	r0, [r3], #-0
     87c:	676e6972 			; <UNDEFINED> instruction: 0x676e6972
     880:	0300682e 	movweq	r6, #2094	; 0x82e
     884:	00000000 	andeq	r0, r0, r0
     888:	97600205 	strbls	r0, [r0, -r5, lsl #4]!
     88c:	13140000 	tstne	r4, #0
     890:	02002f4c 	andeq	r2, r0, #76, 30	; 0x130
     894:	4d490104 	stfmie	f0, [r9, #-16]
     898:	01000202 	tsteq	r0, r2, lsl #4
     89c:	00010201 	andeq	r0, r1, r1, lsl #4
     8a0:	eb000200 	bl	10a8 <_start-0x6f58>
     8a4:	02000000 	andeq	r0, r0, #0
     8a8:	0d0efb01 	vstreq	d15, [lr, #-4]
     8ac:	01010100 	mrseq	r0, (UNDEF: 17)
     8b0:	00000001 	andeq	r0, r0, r1
     8b4:	01000001 	tsteq	r0, r1
     8b8:	6362696c 	cmnvs	r2, #108, 18	; 0x1b0000
     8bc:	73752f00 	cmnvc	r5, #0, 30
     8c0:	6f6c2f72 	svcvs	0x006c2f72
     8c4:	2f6c6163 	svccs	0x006c6163
     8c8:	6c6c6543 	cfstr64vs	mvdx6, [ip], #-268	; 0xfffffef4
     8cc:	612f7261 	teqvs	pc, r1, ror #4
     8d0:	6e2d6d72 	mcrvs	13, 1, r6, cr13, cr2, {3}
     8d4:	2d656e6f 	stclcs	14, cr6, [r5, #-444]!	; 0xfffffe44
     8d8:	69626165 	stmdbvs	r2!, {r0, r2, r5, r6, r8, sp, lr}^
     8dc:	382e342f 	stmdacc	lr!, {r0, r1, r2, r3, r5, sl, ip, sp}
     8e0:	632d332e 	teqvs	sp, #-1207959552	; 0xb8000000
     8e4:	30373173 	eorscc	r3, r7, r3, ror r1
     8e8:	696c2f65 	stmdbvs	ip!, {r0, r2, r5, r6, r8, r9, sl, fp, sp}^
     8ec:	63672f62 	cmnvs	r7, #392	; 0x188
     8f0:	72612f63 	rsbvc	r2, r1, #396	; 0x18c
     8f4:	6f6e2d6d 	svcvs	0x006e2d6d
     8f8:	652d656e 	strvs	r6, [sp, #-1390]!	; 0x56e
     8fc:	2f696261 	svccs	0x00696261
     900:	2e382e34 	mrccs	14, 1, r2, cr8, cr4, {1}
     904:	6e692f33 	mcrvs	15, 3, r2, cr9, cr3, {1}
     908:	64756c63 	ldrbtvs	r6, [r5], #-3171	; 0xc63
     90c:	552f0065 	strpl	r0, [pc, #-101]!	; 8af <_start-0x7751>
     910:	73726573 	cmnvc	r2, #482344960	; 0x1cc00000
     914:	6972622f 	ldmdbvs	r2!, {r0, r1, r2, r3, r5, r9, sp, lr}^
     918:	756a6e61 	strbvc	r6, [sl, #-3681]!	; 0xe61
     91c:	65442f6e 	strbvs	r2, [r4, #-3950]	; 0xf6e
     920:	6f746b73 	svcvs	0x00746b73
     924:	63732f70 	cmnvs	r3, #112, 30	; 0x1c0
     928:	6c6f6f68 	stclvs	15, cr6, [pc], #-416	; 790 <_start-0x7870>
     92c:	6e69572f 	cdpvs	7, 6, cr5, cr9, cr15, {1}
     930:	31726574 	cmncc	r2, r4, ror r5
     934:	2f303239 	svccs	0x00303239
     938:	34315343 	ldrtcc	r5, [r1], #-835	; 0x343
     93c:	632f4530 	teqvs	pc, #48, 10	; 0xc000000
     940:	30343173 	eorscc	r3, r4, r3, ror r1
     944:	30322d65 	eorscc	r2, r2, r5, ror #26
     948:	2f6e6977 	svccs	0x006e6977
     94c:	7062696c 	rsbvc	r6, r2, ip, ror #18
     950:	70000069 	andvc	r0, r0, r9, rrx
     954:	746e6972 	strbtvc	r6, [lr], #-2418	; 0x972
     958:	00632e6b 	rsbeq	r2, r3, fp, ror #28
     95c:	73000001 	movwvc	r0, #1
     960:	72616474 	rsbvc	r6, r1, #116, 8	; 0x74000000
     964:	00682e67 	rsbeq	r2, r8, r7, ror #28
     968:	3c000002 	stccc	0, cr0, [r0], {2}
     96c:	6c697562 	cfstr64vs	mvdx7, [r9], #-392	; 0xfffffe78
     970:	6e692d74 	mcrvs	13, 3, r2, cr9, cr4, {3}
     974:	0000003e 	andeq	r0, r0, lr, lsr r0
     978:	69707200 	ldmdbvs	r0!, {r9, ip, sp, lr}^
     97c:	0300682e 	movweq	r6, #2094	; 0x82e
     980:	61760000 	cmnvs	r6, r0
     984:	6972702d 	ldmdbvs	r2!, {r0, r2, r3, r5, ip, sp, lr}^
     988:	2e6b746e 	cdpcs	4, 6, cr7, cr11, cr14, {3}
     98c:	00010068 	andeq	r0, r1, r8, rrx
     990:	05000000 	streq	r0, [r0, #-0]
     994:	00978002 	addseq	r8, r7, r2
     998:	4b6b1700 	blmi	1ac65a0 <__bss_end__+0x1aba218>
     99c:	0e0289bf 	mcreq	9, 0, r8, cr2, cr15, {5}
     9a0:	8a010100 	bhi	40da8 <__bss_end__+0x34a20>
     9a4:	02000000 	andeq	r0, r0, #0
     9a8:	00007200 	andeq	r7, r0, r0, lsl #4
     9ac:	fb010200 	blx	411b6 <__bss_end__+0x34e2e>
     9b0:	01000d0e 	tsteq	r0, lr, lsl #26
     9b4:	00010101 	andeq	r0, r1, r1, lsl #2
     9b8:	00010000 	andeq	r0, r1, r0
     9bc:	696c0100 	stmdbvs	ip!, {r8}^
     9c0:	2f006362 	svccs	0x00006362
     9c4:	72657355 	rsbvc	r7, r5, #1409286145	; 0x54000001
     9c8:	72622f73 	rsbvc	r2, r2, #460	; 0x1cc
     9cc:	6a6e6169 	bvs	1b98f78 <__bss_end__+0x1b8cbf0>
     9d0:	442f6e75 	strtmi	r6, [pc], #-3701	; 9d8 <_start-0x7628>
     9d4:	746b7365 	strbtvc	r7, [fp], #-869	; 0x365
     9d8:	732f706f 	teqvc	pc, #111	; 0x6f
     9dc:	6f6f6863 	svcvs	0x006f6863
     9e0:	69572f6c 	ldmdbvs	r7, {r2, r3, r5, r6, r8, r9, sl, fp, sp}^
     9e4:	7265746e 	rsbvc	r7, r5, #1845493760	; 0x6e000000
     9e8:	30323931 	eorscc	r3, r2, r1, lsr r9
     9ec:	3153432f 	cmpcc	r3, pc, lsr #6
     9f0:	2f453034 	svccs	0x00453034
     9f4:	34317363 	ldrtcc	r7, [r1], #-867	; 0x363
     9f8:	322d6530 	eorcc	r6, sp, #48, 10	; 0xc000000
     9fc:	6e697730 	mcrvs	7, 3, r7, cr9, cr0, {1}
     a00:	62696c2f 	rsbvs	r6, r9, #12032	; 0x2f00
     a04:	00006970 	andeq	r6, r0, r0, ror r9
     a08:	63747570 	cmnvs	r4, #112, 10	; 0x1c000000
     a0c:	2e726168 	rpwcssz	f6, f2, #0.0
     a10:	00010063 	andeq	r0, r1, r3, rrx
     a14:	69707200 	ldmdbvs	r0!, {r9, ip, sp, lr}^
     a18:	0200682e 	andeq	r6, r0, #3014656	; 0x2e0000
     a1c:	00000000 	andeq	r0, r0, r0
     a20:	97d80205 	ldrbls	r0, [r8, r5, lsl #4]
     a24:	4a140000 	bmi	500a2c <__bss_end__+0x4f46a4>
     a28:	13bc136b 			; <UNDEFINED> instruction: 0x13bc136b
     a2c:	01000802 	tsteq	r0, r2, lsl #16
     a30:	00009601 	andeq	r9, r0, r1, lsl #12
     a34:	6f000200 	svcvs	0x00000200
     a38:	02000000 	andeq	r0, r0, #0
     a3c:	0d0efb01 	vstreq	d15, [lr, #-4]
     a40:	01010100 	mrseq	r0, (UNDEF: 17)
     a44:	00000001 	andeq	r0, r0, r1
     a48:	01000001 	tsteq	r0, r1
     a4c:	6362696c 	cmnvs	r2, #108, 18	; 0x1b0000
     a50:	73552f00 	cmpvc	r5, #0, 30
     a54:	2f737265 	svccs	0x00737265
     a58:	61697262 	cmnvs	r9, r2, ror #4
     a5c:	6e756a6e 	vsubvs.f32	s13, s10, s29
     a60:	7365442f 	cmnvc	r5, #788529152	; 0x2f000000
     a64:	706f746b 	rsbvc	r7, pc, fp, ror #8
     a68:	6863732f 	stmdavs	r3!, {r0, r1, r2, r3, r5, r8, r9, ip, sp, lr}^
     a6c:	2f6c6f6f 	svccs	0x006c6f6f
     a70:	746e6957 	strbtvc	r6, [lr], #-2391	; 0x957
     a74:	39317265 	ldmdbcc	r1!, {r0, r2, r5, r6, r9, ip, sp, lr}
     a78:	432f3032 	teqmi	pc, #50	; 0x32
     a7c:	30343153 	eorscc	r3, r4, r3, asr r1
     a80:	73632f45 	cmnvc	r3, #276	; 0x114
     a84:	65303431 	ldrvs	r3, [r0, #-1073]!	; 0x431
     a88:	7730322d 	ldrvc	r3, [r0, -sp, lsr #4]!
     a8c:	6c2f6e69 	stcvs	14, cr6, [pc], #-420	; 8f0 <_start-0x7710>
     a90:	69706269 	ldmdbvs	r0!, {r0, r3, r5, r6, r9, sp, lr}^
     a94:	75700000 	ldrbvc	r0, [r0, #-0]!
     a98:	632e6b74 	teqvs	lr, #116, 22	; 0x1d000
     a9c:	00000100 	andeq	r0, r0, r0, lsl #2
     aa0:	2e697072 	mcrcs	0, 3, r7, cr9, cr2, {3}
     aa4:	00020068 	andeq	r0, r2, r8, rrx
     aa8:	05000000 	streq	r0, [r0, #-0]
     aac:	00981402 	addseq	r1, r8, r2, lsl #8
     ab0:	2d4c1500 	cfstr64cs	mvdx1, [ip, #-0]
     ab4:	02040200 	andeq	r0, r4, #0, 4
     ab8:	0402002f 	streq	r0, [r2], #-47	; 0x2f
     abc:	02004902 	andeq	r4, r0, #32768	; 0x8000
     ac0:	2e060104 	adfcss	f0, f6, f4
     ac4:	06026b06 	streq	r6, [r2], -r6, lsl #22
     ac8:	de010100 	adfles	f0, f1, f0
     acc:	02000001 	andeq	r0, r0, #1
     ad0:	0000df00 	andeq	sp, r0, r0, lsl #30
     ad4:	fb010200 	blx	412de <__bss_end__+0x34f56>
     ad8:	01000d0e 	tsteq	r0, lr, lsl #26
     adc:	00010101 	andeq	r0, r1, r1, lsl #2
     ae0:	00010000 	andeq	r0, r1, r0
     ae4:	696c0100 	stmdbvs	ip!, {r8}^
     ae8:	2f006362 	svccs	0x00006362
     aec:	2f727375 	svccs	0x00727375
     af0:	61636f6c 	cmnvs	r3, ip, ror #30
     af4:	65432f6c 	strbvs	r2, [r3, #-3948]	; 0xf6c
     af8:	72616c6c 	rsbvc	r6, r1, #108, 24	; 0x6c00
     afc:	6d72612f 	ldfvse	f6, [r2, #-188]!	; 0xffffff44
     b00:	6e6f6e2d 	cdpvs	14, 6, cr6, cr15, cr13, {1}
     b04:	61652d65 	cmnvs	r5, r5, ror #26
     b08:	342f6962 	strtcc	r6, [pc], #-2402	; b10 <_start-0x74f0>
     b0c:	332e382e 	teqcc	lr, #3014656	; 0x2e0000
     b10:	3173632d 	cmncc	r3, sp, lsr #6
     b14:	2f653037 	svccs	0x00653037
     b18:	2f62696c 	svccs	0x0062696c
     b1c:	2f636367 	svccs	0x00636367
     b20:	2d6d7261 	sfmcs	f7, 2, [sp, #-388]!	; 0xfffffe7c
     b24:	656e6f6e 	strbvs	r6, [lr, #-3950]!	; 0xf6e
     b28:	6261652d 	rsbvs	r6, r1, #188743680	; 0xb400000
     b2c:	2e342f69 	cdpcs	15, 3, cr2, cr4, cr9, {3}
     b30:	2f332e38 	svccs	0x00332e38
     b34:	6c636e69 	stclvs	14, cr6, [r3], #-420	; 0xfffffe5c
     b38:	00656475 	rsbeq	r6, r5, r5, ror r4
     b3c:	6573552f 	ldrbvs	r5, [r3, #-1327]!	; 0x52f
     b40:	622f7372 	eorvs	r7, pc, #-939524095	; 0xc8000001
     b44:	6e616972 	mcrvs	9, 3, r6, cr1, cr2, {3}
     b48:	2f6e756a 	svccs	0x006e756a
     b4c:	6b736544 	blvs	1cda064 <__bss_end__+0x1ccdcdc>
     b50:	2f706f74 	svccs	0x00706f74
     b54:	6f686373 	svcvs	0x00686373
     b58:	572f6c6f 	strpl	r6, [pc, -pc, ror #24]!
     b5c:	65746e69 	ldrbvs	r6, [r4, #-3689]!	; 0xe69
     b60:	32393172 	eorscc	r3, r9, #-2147483620	; 0x8000001c
     b64:	53432f30 	movtpl	r2, #16176	; 0x3f30
     b68:	45303431 	ldrmi	r3, [r0, #-1073]!	; 0x431
     b6c:	3173632f 	cmncc	r3, pc, lsr #6
     b70:	2d653034 	stclcs	0, cr3, [r5, #-208]!	; 0xffffff30
     b74:	69773032 	ldmdbvs	r7!, {r1, r4, r5, ip, sp}^
     b78:	696c2f6e 	stmdbvs	ip!, {r1, r2, r3, r5, r6, r8, r9, sl, fp, sp}^
     b7c:	00697062 	rsbeq	r7, r9, r2, rrx
     b80:	2d617600 	stclcs	6, cr7, [r1, #-0]
     b84:	6e697270 	mcrvs	2, 3, r7, cr9, cr0, {3}
     b88:	632e6b74 	teqvs	lr, #116, 22	; 0x1d000
     b8c:	00000100 	andeq	r0, r0, r0, lsl #2
     b90:	61647473 	smcvs	18243	; 0x4743
     b94:	682e6772 	stmdavs	lr!, {r1, r4, r5, r6, r8, r9, sl, sp, lr}
     b98:	00000200 	andeq	r0, r0, r0, lsl #4
     b9c:	2e697072 	mcrcs	0, 3, r7, cr9, cr2, {3}
     ba0:	00030068 	andeq	r0, r3, r8, rrx
     ba4:	75623c00 	strbvc	r3, [r2, #-3072]!	; 0xc00
     ba8:	2d746c69 	ldclcs	12, cr6, [r4, #-420]!	; 0xfffffe5c
     bac:	003e6e69 	eorseq	r6, lr, r9, ror #28
     bb0:	00000000 	andeq	r0, r0, r0
     bb4:	48020500 	stmdami	r2, {r8, sl}
     bb8:	03000098 	movweq	r0, #152	; 0x98
     bbc:	a5010126 	strge	r0, [r1, #-294]	; 0x126
     bc0:	002d3113 	eoreq	r3, sp, r3, lsl r1
     bc4:	2f020402 	svccs	0x00020402
     bc8:	02040200 	andeq	r0, r4, #0, 4
     bcc:	0402002d 	streq	r0, [r2], #-45	; 0x2d
     bd0:	02002f02 	andeq	r2, r0, #2, 30
     bd4:	4c2d0104 	stfmis	f0, [sp], #-16
     bd8:	4b14304c 	blmi	50cd10 <__bss_end__+0x500988>
     bdc:	02004f2f 	andeq	r4, r0, #47, 30	; 0xbc
     be0:	00670204 	rsbeq	r0, r7, r4, lsl #4
     be4:	65010402 	strvs	r0, [r1, #-1026]	; 0x402
     be8:	a0304d4c 	eorsge	r4, r0, ip, asr #26
     bec:	0230312f 	eorseq	r3, r0, #-1073741813	; 0xc000000b
     bf0:	2d841626 	stccs	6, cr1, [r4, #152]	; 0x98
     bf4:	0402002c 	streq	r0, [r2], #-44	; 0x2c
     bf8:	02003001 	andeq	r3, r0, #1
     bfc:	06330104 	ldrteq	r0, [r3], -r4, lsl #2
     c00:	04020066 	streq	r0, [r2], #-102	; 0x66
     c04:	02002e01 	andeq	r2, r0, #1, 28
     c08:	08060104 	stmdaeq	r6, {r2, r8}
     c0c:	032f6721 	teqeq	pc, #8650752	; 0x840000
     c10:	13038273 	movwne	r8, #12915	; 0x3273
     c14:	0402002e 	streq	r0, [r2], #-46	; 0x2e
     c18:	002e0601 	eoreq	r0, lr, r1, lsl #12
     c1c:	06010402 	streq	r0, [r1], -r2, lsl #8
     c20:	034b6a9f 	movteq	r6, #47775	; 0xba9f
     c24:	21032e67 	tstcs	r3, r7, ror #28
     c28:	0402002e 	streq	r0, [r2], #-46	; 0x2e
     c2c:	002e0601 	eoreq	r0, lr, r1, lsl #12
     c30:	06010402 	streq	r0, [r1], -r2, lsl #8
     c34:	0402009f 	streq	r0, [r2], #-159	; 0x9f
     c38:	f3d96a01 	vmlsl.u16	q11, d9, d1
     c3c:	087fa603 	ldmdaeq	pc!, {r0, r1, r9, sl, sp, pc}^	; <UNPREDICTABLE>
     c40:	02002f20 	andeq	r2, r0, #32, 30	; 0x80
     c44:	4a060104 	bmi	18105c <__bss_end__+0x174cd4>
     c48:	2f4bd706 	svccs	0x004bd706
     c4c:	f200da03 	vpmax.s8	d13, d0, d3
     c50:	03484c83 	movteq	r4, #35971	; 0x8c83
     c54:	75032e0e 	strvc	r2, [r3, #-3598]	; 0xe0e
     c58:	842f2f2e 	strthi	r2, [pc], #-3886	; c60 <_start-0x73a0>
     c5c:	4d2d2f4b 	stcmi	15, cr2, [sp, #-300]!	; 0xfffffed4
     c60:	832f3031 	teqhi	pc, #49	; 0x31
     c64:	01040200 	mrseq	r0, R12_usr
     c68:	0200a22c 	andeq	sl, r0, #44, 4	; 0xc0000002
     c6c:	4a060104 	bmi	181084 <__bss_end__+0x174cfc>
     c70:	3602d806 	strcc	sp, [r2], -r6, lsl #16
     c74:	d60e0316 			; <UNDEFINED> instruction: 0xd60e0316
     c78:	f3302108 	vrhadd.u<illegal width 64>	d2, d0, d8
     c7c:	f330f331 	vcge.u<illegal width 64>	d15, d0, d17
     c80:	f3304b30 			; <UNDEFINED> instruction: 0xf3304b30
     c84:	31230830 	teqcc	r3, r0, lsr r8
     c88:	0402002f 	streq	r0, [r2], #-47	; 0x2f
     c8c:	02006501 	andeq	r6, r0, #4194304	; 0x400000
     c90:	4a060204 	bmi	1814a8 <__bss_end__+0x175120>
     c94:	01040200 	mrseq	r0, R12_usr
     c98:	66420306 	strbvs	r0, [r2], -r6, lsl #6
     c9c:	02040200 	andeq	r0, r4, #0, 4
     ca0:	03066606 	movweq	r6, #26118	; 0x6606
     ca4:	684a00c2 	stmdavs	sl, {r1, r6, r7}^
     ca8:	01001002 	tsteq	r0, r2
     cac:	00009301 	andeq	r9, r0, r1, lsl #6
     cb0:	7d000200 	sfmvc	f0, 4, [r0, #-0]
     cb4:	02000000 	andeq	r0, r0, #0
     cb8:	0d0efb01 	vstreq	d15, [lr, #-4]
     cbc:	01010100 	mrseq	r0, (UNDEF: 17)
     cc0:	00000001 	andeq	r0, r0, r1
     cc4:	01000001 	tsteq	r0, r1
     cc8:	34317363 	ldrtcc	r7, [r1], #-867	; 0x363
     ccc:	732d6530 	teqvc	sp, #48, 10	; 0xc000000
     cd0:	2f006372 	svccs	0x00006372
     cd4:	72657355 	rsbvc	r7, r5, #1409286145	; 0x54000001
     cd8:	72622f73 	rsbvc	r2, r2, #460	; 0x1cc
     cdc:	6a6e6169 	bvs	1b99288 <__bss_end__+0x1b8cf00>
     ce0:	442f6e75 	strtmi	r6, [pc], #-3701	; ce8 <_start-0x7318>
     ce4:	746b7365 	strbtvc	r7, [fp], #-869	; 0x365
     ce8:	732f706f 	teqvc	pc, #111	; 0x6f
     cec:	6f6f6863 	svcvs	0x006f6863
     cf0:	69572f6c 	ldmdbvs	r7, {r2, r3, r5, r6, r8, r9, sl, fp, sp}^
     cf4:	7265746e 	rsbvc	r7, r5, #1845493760	; 0x6e000000
     cf8:	30323931 	eorscc	r3, r2, r1, lsr r9
     cfc:	3153432f 	cmpcc	r3, pc, lsr #6
     d00:	2f453034 	svccs	0x00453034
     d04:	34317363 	ldrtcc	r7, [r1], #-867	; 0x363
     d08:	322d6530 	eorcc	r6, sp, #48, 10	; 0xc000000
     d0c:	6e697730 	mcrvs	7, 3, r7, cr9, cr0, {1}
     d10:	62696c2f 	rsbvs	r6, r9, #12032	; 0x2f00
     d14:	00006970 	andeq	r6, r0, r0, ror r9
     d18:	61656c63 	cmnvs	r5, r3, ror #24
     d1c:	65722d6e 	ldrbvs	r2, [r2, #-3438]!	; 0xd6e
     d20:	746f6f62 	strbtvc	r6, [pc], #-3938	; d28 <_start-0x72d8>
     d24:	0100632e 	tsteq	r0, lr, lsr #6
     d28:	70720000 	rsbsvc	r0, r2, r0
     d2c:	00682e69 	rsbeq	r2, r8, r9, ror #28
     d30:	00000002 	andeq	r0, r0, r2
     d34:	40020500 	andmi	r0, r2, r0, lsl #10
     d38:	1500009d 	strne	r0, [r0, #-157]	; 0x9d
     d3c:	024b832f 	subeq	r8, fp, #-1140850688	; 0xbc000000
     d40:	01010006 	tsteq	r1, r6
     d44:	00000121 	andeq	r0, r0, r1, lsr #2
     d48:	00f80002 	rscseq	r0, r8, r2
     d4c:	01020000 	mrseq	r0, (UNDEF: 2)
     d50:	000d0efb 	strdeq	r0, [sp], -fp
     d54:	01010101 	tsteq	r1, r1, lsl #2
     d58:	01000000 	mrseq	r0, (UNDEF: 0)
     d5c:	63010000 	movwvs	r0, #4096	; 0x1000
     d60:	30343173 	eorscc	r3, r4, r3, ror r1
     d64:	72732d65 	rsbsvc	r2, r3, #6464	; 0x1940
     d68:	752f0063 	strvc	r0, [pc, #-99]!	; d0d <_start-0x72f3>
     d6c:	6c2f7273 	sfmvs	f7, 4, [pc], #-460	; ba8 <_start-0x7458>
     d70:	6c61636f 	stclvs	3, cr6, [r1], #-444	; 0xfffffe44
     d74:	6c65432f 	stclvs	3, cr4, [r5], #-188	; 0xffffff44
     d78:	2f72616c 	svccs	0x0072616c
     d7c:	2d6d7261 	sfmcs	f7, 2, [sp, #-388]!	; 0xfffffe7c
     d80:	656e6f6e 	strbvs	r6, [lr, #-3950]!	; 0xf6e
     d84:	6261652d 	rsbvs	r6, r1, #188743680	; 0xb400000
     d88:	2e342f69 	cdpcs	15, 3, cr2, cr4, cr9, {3}
     d8c:	2d332e38 	ldccs	14, cr2, [r3, #-224]!	; 0xffffff20
     d90:	37317363 	ldrcc	r7, [r1, -r3, ror #6]!
     d94:	6c2f6530 	cfstr32vs	mvfx6, [pc], #-192	; cdc <_start-0x7324>
     d98:	672f6269 	strvs	r6, [pc, -r9, ror #4]!
     d9c:	612f6363 	teqvs	pc, r3, ror #6
     da0:	6e2d6d72 	mcrvs	13, 1, r6, cr13, cr2, {3}
     da4:	2d656e6f 	stclcs	14, cr6, [r5, #-444]!	; 0xfffffe44
     da8:	69626165 	stmdbvs	r2!, {r0, r2, r5, r6, r8, sp, lr}^
     dac:	382e342f 	stmdacc	lr!, {r0, r1, r2, r3, r5, sl, ip, sp}
     db0:	692f332e 	stmdbvs	pc!, {r1, r2, r3, r5, r8, r9, ip, sp}	; <UNPREDICTABLE>
     db4:	756c636e 	strbvc	r6, [ip, #-878]!	; 0x36e
     db8:	2f006564 	svccs	0x00006564
     dbc:	72657355 	rsbvc	r7, r5, #1409286145	; 0x54000001
     dc0:	72622f73 	rsbvc	r2, r2, #460	; 0x1cc
     dc4:	6a6e6169 	bvs	1b99370 <__bss_end__+0x1b8cfe8>
     dc8:	442f6e75 	strtmi	r6, [pc], #-3701	; dd0 <_start-0x7230>
     dcc:	746b7365 	strbtvc	r7, [fp], #-869	; 0x365
     dd0:	732f706f 	teqvc	pc, #111	; 0x6f
     dd4:	6f6f6863 	svcvs	0x006f6863
     dd8:	69572f6c 	ldmdbvs	r7, {r2, r3, r5, r6, r8, r9, sl, fp, sp}^
     ddc:	7265746e 	rsbvc	r7, r5, #1845493760	; 0x6e000000
     de0:	30323931 	eorscc	r3, r2, r1, lsr r9
     de4:	3153432f 	cmpcc	r3, pc, lsr #6
     de8:	2f453034 	svccs	0x00453034
     dec:	34317363 	ldrtcc	r7, [r1], #-867	; 0x363
     df0:	322d6530 	eorcc	r6, sp, #48, 10	; 0xc000000
     df4:	6e697730 	mcrvs	7, 3, r7, cr9, cr0, {1}
     df8:	62696c2f 	rsbvs	r6, r9, #12032	; 0x2f00
     dfc:	00006970 	andeq	r6, r0, r0, ror r9
     e00:	61747363 	cmnvs	r4, r3, ror #6
     e04:	632e7472 	teqvs	lr, #1912602624	; 0x72000000
     e08:	00000100 	andeq	r0, r0, r0, lsl #2
     e0c:	69647473 	stmdbvs	r4!, {r0, r1, r4, r5, r6, sl, ip, sp, lr}^
     e10:	672d746e 	strvs	r7, [sp, -lr, ror #8]!
     e14:	682e6363 	stmdavs	lr!, {r0, r1, r5, r6, r8, r9, sp, lr}
     e18:	00000200 	andeq	r0, r0, r0, lsl #4
     e1c:	752d7773 	strvc	r7, [sp, #-1907]!	; 0x773
     e20:	2e747261 	cdpcs	2, 7, cr7, cr4, cr1, {3}
     e24:	00010068 	andeq	r0, r1, r8, rrx
     e28:	6e6f6300 	cdpvs	3, 6, cr6, cr15, cr0, {0}
     e2c:	6c6f7274 	sfmvs	f7, 2, [pc], #-464	; c64 <_start-0x739c>
     e30:	6f6c622d 	svcvs	0x006c622d
     e34:	682e6b63 	stmdavs	lr!, {r0, r1, r5, r6, r8, r9, fp, sp, lr}
     e38:	00000100 	andeq	r0, r0, r0, lsl #2
     e3c:	2e697072 	mcrcs	0, 3, r7, cr9, cr2, {3}
     e40:	00030068 	andeq	r0, r3, r8, rrx
     e44:	05000000 	streq	r0, [r0, #-0]
     e48:	009d6802 	addseq	r6, sp, r2, lsl #16
     e4c:	684b1700 	stmdavs	fp, {r8, r9, sl, ip}^
     e50:	2f313268 	svccs	0x00313268
     e54:	02002f2d 	andeq	r2, r0, #45, 30	; 0xb4
     e58:	4f490104 	svcmi	0x00490104
     e5c:	67674b2f 	strbvs	r4, [r7, -pc, lsr #22]!
     e60:	2f4e6783 	svccs	0x004e6783
     e64:	01001002 	tsteq	r0, r2
     e68:	00009901 	andeq	r9, r0, r1, lsl #18
     e6c:	77000200 	strvc	r0, [r0, -r0, lsl #4]
     e70:	02000000 	andeq	r0, r0, #0
     e74:	0d0efb01 	vstreq	d15, [lr, #-4]
     e78:	01010100 	mrseq	r0, (UNDEF: 17)
     e7c:	00000001 	andeq	r0, r0, r1
     e80:	01000001 	tsteq	r0, r1
     e84:	34317363 	ldrtcc	r7, [r1], #-867	; 0x363
     e88:	732d6530 	teqvc	sp, #48, 10	; 0xc000000
     e8c:	2f006372 	svccs	0x00006372
     e90:	72657355 	rsbvc	r7, r5, #1409286145	; 0x54000001
     e94:	72622f73 	rsbvc	r2, r2, #460	; 0x1cc
     e98:	6a6e6169 	bvs	1b99444 <__bss_end__+0x1b8d0bc>
     e9c:	442f6e75 	strtmi	r6, [pc], #-3701	; ea4 <_start-0x715c>
     ea0:	746b7365 	strbtvc	r7, [fp], #-869	; 0x365
     ea4:	732f706f 	teqvc	pc, #111	; 0x6f
     ea8:	6f6f6863 	svcvs	0x006f6863
     eac:	69572f6c 	ldmdbvs	r7, {r2, r3, r5, r6, r8, r9, sl, fp, sp}^
     eb0:	7265746e 	rsbvc	r7, r5, #1845493760	; 0x6e000000
     eb4:	30323931 	eorscc	r3, r2, r1, lsr r9
     eb8:	3153432f 	cmpcc	r3, pc, lsr #6
     ebc:	2f453034 	svccs	0x00453034
     ec0:	34317363 	ldrtcc	r7, [r1], #-867	; 0x363
     ec4:	322d6530 	eorcc	r6, sp, #48, 10	; 0xc000000
     ec8:	6e697730 	mcrvs	7, 3, r7, cr9, cr0, {1}
     ecc:	62696c2f 	rsbvs	r6, r9, #12032	; 0x2f00
     ed0:	00006970 	andeq	r6, r0, r0, ror r9
     ed4:	6f626572 	svcvs	0x00626572
     ed8:	632e746f 	teqvs	lr, #1862270976	; 0x6f000000
     edc:	00000100 	andeq	r0, r0, r0, lsl #2
     ee0:	2e697072 	mcrcs	0, 3, r7, cr9, cr2, {3}
     ee4:	00020068 	andeq	r0, r2, r8, rrx
     ee8:	05000000 	streq	r0, [r0, #-0]
     eec:	009e1802 	addseq	r1, lr, r2, lsl #16
     ef0:	010d0300 	mrseq	r0, SP_mon
     ef4:	852f3114 	strhi	r3, [pc, #-276]!	; de8 <_start-0x7218>
     ef8:	4d4b2f15 	stclmi	15, cr2, [fp, #-84]	; 0xffffffac
     efc:	5235672f 	eorspl	r6, r5, #12320768	; 0xbc0000
     f00:	00100267 	andseq	r0, r0, r7, ror #4
     f04:	00a30101 	adceq	r0, r3, r1, lsl #2
     f08:	00020000 	andeq	r0, r2, r0
     f0c:	00000076 	andeq	r0, r0, r6, ror r0
     f10:	0efb0102 	cdpeq	1, 15, cr0, cr11, cr2, {0}
     f14:	0101000d 	tsteq	r1, sp
     f18:	00000101 	andeq	r0, r0, r1, lsl #2
     f1c:	00000100 	andeq	r0, r0, r0, lsl #2
     f20:	31736301 	cmncc	r3, r1, lsl #6
     f24:	2d653034 	stclcs	0, cr3, [r5, #-208]!	; 0xffffff30
     f28:	00637273 	rsbeq	r7, r3, r3, ror r2
     f2c:	6573552f 	ldrbvs	r5, [r3, #-1327]!	; 0x52f
     f30:	622f7372 	eorvs	r7, pc, #-939524095	; 0xc8000001
     f34:	6e616972 	mcrvs	9, 3, r6, cr1, cr2, {3}
     f38:	2f6e756a 	svccs	0x006e756a
     f3c:	6b736544 	blvs	1cda454 <__bss_end__+0x1cce0cc>
     f40:	2f706f74 	svccs	0x00706f74
     f44:	6f686373 	svcvs	0x00686373
     f48:	572f6c6f 	strpl	r6, [pc, -pc, ror #24]!
     f4c:	65746e69 	ldrbvs	r6, [r4, #-3689]!	; 0xe69
     f50:	32393172 	eorscc	r3, r9, #-2147483620	; 0x8000001c
     f54:	53432f30 	movtpl	r2, #16176	; 0x3f30
     f58:	45303431 	ldrmi	r3, [r0, #-1073]!	; 0x431
     f5c:	3173632f 	cmncc	r3, pc, lsr #6
     f60:	2d653034 	stclcs	0, cr3, [r5, #-208]!	; 0xffffff30
     f64:	69773032 	ldmdbvs	r7!, {r1, r4, r5, ip, sp}^
     f68:	696c2f6e 	stmdbvs	ip!, {r1, r2, r3, r5, r6, r8, r9, sl, fp, sp}^
     f6c:	00697062 	rsbeq	r7, r9, r2, rrx
     f70:	6d697400 	cfstrdvs	mvd7, [r9, #-0]
     f74:	632e7265 	teqvs	lr, #1342177286	; 0x50000006
     f78:	00000100 	andeq	r0, r0, r0, lsl #2
     f7c:	2e697072 	mcrcs	0, 3, r7, cr9, cr2, {3}
     f80:	00020068 	andeq	r0, r2, r8, rrx
     f84:	05000000 	streq	r0, [r0, #-0]
     f88:	009e8c02 	addseq	r8, lr, r2, lsl #24
     f8c:	2f131600 	svccs	0x00131600
     f90:	0402002d 	streq	r0, [r2], #-45	; 0x2d
     f94:	062e0601 	strteq	r0, [lr], -r1, lsl #12
     f98:	4b2f3168 	blmi	bcd540 <__bss_end__+0xbc11b8>
     f9c:	3031324d 	eorscc	r3, r1, sp, asr #4
     fa0:	6a2f4c4b 	bvs	bd40d4 <__bss_end__+0xbc7d4c>
     fa4:	2f842f2f 	svccs	0x00842f2f
     fa8:	01000802 	tsteq	r0, r2, lsl #16
     fac:	00034501 	andeq	r4, r3, r1, lsl #10
     fb0:	bd000200 	sfmlt	f0, 4, [r0, #-0]
     fb4:	02000001 	andeq	r0, r0, #1
     fb8:	0d0efb01 	vstreq	d15, [lr, #-4]
     fbc:	01010100 	mrseq	r0, (UNDEF: 17)
     fc0:	00000001 	andeq	r0, r0, r1
     fc4:	01000001 	tsteq	r0, r1
     fc8:	732d796d 	teqvc	sp, #1785856	; 0x1b4000
     fcc:	2f006372 	svccs	0x00006372
     fd0:	72657355 	rsbvc	r7, r5, #1409286145	; 0x54000001
     fd4:	72622f73 	rsbvc	r2, r2, #460	; 0x1cc
     fd8:	6a6e6169 	bvs	1b99584 <__bss_end__+0x1b8d1fc>
     fdc:	442f6e75 	strtmi	r6, [pc], #-3701	; fe4 <_start-0x701c>
     fe0:	746b7365 	strbtvc	r7, [fp], #-869	; 0x365
     fe4:	732f706f 	teqvc	pc, #111	; 0x6f
     fe8:	6f6f6863 	svcvs	0x006f6863
     fec:	69572f6c 	ldmdbvs	r7, {r2, r3, r5, r6, r8, r9, sl, fp, sp}^
     ff0:	7265746e 	rsbvc	r7, r5, #1845493760	; 0x6e000000
     ff4:	30323931 	eorscc	r3, r2, r1, lsr r9
     ff8:	3153432f 	cmpcc	r3, pc, lsr #6
     ffc:	2f453034 	svccs	0x00453034
    1000:	34317363 	ldrtcc	r7, [r1], #-867	; 0x363
    1004:	322d6530 	eorcc	r6, sp, #48, 10	; 0xc000000
    1008:	6e697730 	mcrvs	7, 3, r7, cr9, cr0, {1}
    100c:	62696c2f 	rsbvs	r6, r9, #12032	; 0x2f00
    1010:	632f6970 	teqvs	pc, #112, 18	; 0x1c0000
    1014:	30343173 	eorscc	r3, r4, r3, ror r1
    1018:	72732d65 	rsbsvc	r2, r3, #6464	; 0x1940
    101c:	752f0063 	strvc	r0, [pc, #-99]!	; fc1 <_start-0x703f>
    1020:	6c2f7273 	sfmvs	f7, 4, [pc], #-460	; e5c <_start-0x71a4>
    1024:	6c61636f 	stclvs	3, cr6, [r1], #-444	; 0xfffffe44
    1028:	6c65432f 	stclvs	3, cr4, [r5], #-188	; 0xffffff44
    102c:	2f72616c 	svccs	0x0072616c
    1030:	2d6d7261 	sfmcs	f7, 2, [sp, #-388]!	; 0xfffffe7c
    1034:	656e6f6e 	strbvs	r6, [lr, #-3950]!	; 0xf6e
    1038:	6261652d 	rsbvs	r6, r1, #188743680	; 0xb400000
    103c:	2e342f69 	cdpcs	15, 3, cr2, cr4, cr9, {3}
    1040:	2d332e38 	ldccs	14, cr2, [r3, #-224]!	; 0xffffff20
    1044:	37317363 	ldrcc	r7, [r1, -r3, ror #6]!
    1048:	6c2f6530 	cfstr32vs	mvfx6, [pc], #-192	; f90 <_start-0x7070>
    104c:	672f6269 	strvs	r6, [pc, -r9, ror #4]!
    1050:	612f6363 	teqvs	pc, r3, ror #6
    1054:	6e2d6d72 	mcrvs	13, 1, r6, cr13, cr2, {3}
    1058:	2d656e6f 	stclcs	14, cr6, [r5, #-444]!	; 0xfffffe44
    105c:	69626165 	stmdbvs	r2!, {r0, r2, r5, r6, r8, sp, lr}^
    1060:	382e342f 	stmdacc	lr!, {r0, r1, r2, r3, r5, sl, ip, sp}
    1064:	692f332e 	stmdbvs	pc!, {r1, r2, r3, r5, r8, r9, ip, sp}	; <UNPREDICTABLE>
    1068:	756c636e 	strbvc	r6, [ip, #-878]!	; 0x36e
    106c:	2f006564 	svccs	0x00006564
    1070:	72657355 	rsbvc	r7, r5, #1409286145	; 0x54000001
    1074:	72622f73 	rsbvc	r2, r2, #460	; 0x1cc
    1078:	6a6e6169 	bvs	1b99624 <__bss_end__+0x1b8d29c>
    107c:	442f6e75 	strtmi	r6, [pc], #-3701	; 1084 <_start-0x6f7c>
    1080:	746b7365 	strbtvc	r7, [fp], #-869	; 0x365
    1084:	732f706f 	teqvc	pc, #111	; 0x6f
    1088:	6f6f6863 	svcvs	0x006f6863
    108c:	69572f6c 	ldmdbvs	r7, {r2, r3, r5, r6, r8, r9, sl, fp, sp}^
    1090:	7265746e 	rsbvc	r7, r5, #1845493760	; 0x6e000000
    1094:	30323931 	eorscc	r3, r2, r1, lsr r9
    1098:	3153432f 	cmpcc	r3, pc, lsr #6
    109c:	2f453034 	svccs	0x00453034
    10a0:	34317363 	ldrtcc	r7, [r1], #-867	; 0x363
    10a4:	322d6530 	eorcc	r6, sp, #48, 10	; 0xc000000
    10a8:	6e697730 	mcrvs	7, 3, r7, cr9, cr0, {1}
    10ac:	62696c2f 	rsbvs	r6, r9, #12032	; 0x2f00
    10b0:	2f006970 	svccs	0x00006970
    10b4:	72657355 	rsbvc	r7, r5, #1409286145	; 0x54000001
    10b8:	72622f73 	rsbvc	r2, r2, #460	; 0x1cc
    10bc:	6a6e6169 	bvs	1b99668 <__bss_end__+0x1b8d2e0>
    10c0:	442f6e75 	strtmi	r6, [pc], #-3701	; 10c8 <_start-0x6f38>
    10c4:	746b7365 	strbtvc	r7, [fp], #-869	; 0x365
    10c8:	732f706f 	teqvc	pc, #111	; 0x6f
    10cc:	6f6f6863 	svcvs	0x006f6863
    10d0:	69572f6c 	ldmdbvs	r7, {r2, r3, r5, r6, r8, r9, sl, fp, sp}^
    10d4:	7265746e 	rsbvc	r7, r5, #1845493760	; 0x6e000000
    10d8:	30323931 	eorscc	r3, r2, r1, lsr r9
    10dc:	3153432f 	cmpcc	r3, pc, lsr #6
    10e0:	2f453034 	svccs	0x00453034
    10e4:	34317363 	ldrtcc	r7, [r1], #-867	; 0x363
    10e8:	322d6530 	eorcc	r6, sp, #48, 10	; 0xc000000
    10ec:	6e697730 	mcrvs	7, 3, r7, cr9, cr0, {1}
    10f0:	62696c2f 	rsbvs	r6, r9, #12032	; 0x2f00
    10f4:	6c2f6970 	stcvs	9, cr6, [pc], #-448	; f3c <_start-0x70c4>
    10f8:	00636269 	rsbeq	r6, r3, r9, ror #4
    10fc:	2d777300 	ldclcs	3, cr7, [r7, #-0]
    1100:	74726175 	ldrbtvc	r6, [r2], #-373	; 0x175
    1104:	0100632e 	tsteq	r0, lr, lsr #6
    1108:	79630000 	stmdbvc	r3!, {}^	; <UNPREDICTABLE>
    110c:	2d656c63 	stclcs	12, cr6, [r5, #-396]!	; 0xfffffe74
    1110:	6c697475 	cfstrdvs	mvd7, [r9], #-468	; 0xfffffe2c
    1114:	0200682e 	andeq	r6, r0, #3014656	; 0x2e0000
    1118:	74730000 	ldrbtvc	r0, [r3], #-0
    111c:	746e6964 	strbtvc	r6, [lr], #-2404	; 0x964
    1120:	6363672d 	cmnvs	r3, #11796480	; 0xb40000
    1124:	0300682e 	movweq	r6, #2094	; 0x82e
    1128:	77730000 	ldrbvc	r0, [r3, -r0]!
    112c:	7261752d 	rsbvc	r7, r1, #188743680	; 0xb400000
    1130:	00682e74 	rsbeq	r2, r8, r4, ror lr
    1134:	73000002 	movwvc	r0, #2
    1138:	72616474 	rsbvc	r6, r1, #116, 8	; 0x74000000
    113c:	00682e67 	rsbeq	r2, r8, r7, ror #28
    1140:	67000003 	strvs	r0, [r0, -r3]
    1144:	2e6f6970 	mcrcs	9, 3, r6, cr15, cr0, {3}
    1148:	00020068 	andeq	r0, r2, r8, rrx
    114c:	69707200 	ldmdbvs	r0!, {r9, ip, sp, lr}^
    1150:	0400682e 	streq	r6, [r0], #-2094	; 0x82e
    1154:	61760000 	cmnvs	r6, r0
    1158:	6972702d 	ldmdbvs	r2!, {r0, r2, r3, r5, ip, sp, lr}^
    115c:	2e6b746e 	cdpcs	4, 6, cr7, cr11, cr14, {3}
    1160:	00050068 	andeq	r0, r5, r8, rrx
    1164:	75623c00 	strbvc	r3, [r2, #-3072]!	; 0xc00
    1168:	2d746c69 	ldclcs	12, cr6, [r4, #-420]!	; 0xfffffe5c
    116c:	003e6e69 	eorseq	r6, lr, r9, ror #28
    1170:	00000000 	andeq	r0, r0, r0
    1174:	14020500 	strne	r0, [r2], #-1280	; 0x500
    1178:	1a00009f 	bne	13fc <_start-0x6c04>
    117c:	04302f4c 	ldrteq	r2, [r0], #-3916	; 0xf4c
    1180:	2e0b0302 	cdpcs	3, 0, cr0, cr11, cr2, {0}
    1184:	04667303 	strbteq	r7, [r6], #-771	; 0x303
    1188:	02048801 	andeq	r8, r4, #65536	; 0x10000
    118c:	66730335 			; <UNDEFINED> instruction: 0x66730335
    1190:	048a0104 	streq	r0, [sl], #260	; 0x104
    1194:	73033302 	movwvc	r3, #13058	; 0x3302
    1198:	03010466 	movweq	r0, #5222	; 0x1466
    119c:	0204820a 	andeq	r8, r4, #-1610612736	; 0xa0000000
    11a0:	66730331 			; <UNDEFINED> instruction: 0x66730331
    11a4:	0c030104 	stfeqs	f0, [r3], {4}
    11a8:	2f020482 	svccs	0x00020482
    11ac:	04667303 	strbteq	r7, [r6], #-771	; 0x303
    11b0:	820e0301 	andhi	r0, lr, #67108864	; 0x4000000
    11b4:	032d0204 	teqeq	sp, #4, 4	; 0x40000000
    11b8:	01046673 	tsteq	r4, r3, ror r6
    11bc:	04821003 	streq	r1, [r2], #3
    11c0:	73032b02 	movwvc	r2, #15106	; 0x3b02
    11c4:	03010466 	movweq	r0, #5222	; 0x1466
    11c8:	02048212 	andeq	r8, r4, #536870913	; 0x20000001
    11cc:	66730329 	ldrbtvs	r0, [r3], -r9, lsr #6
    11d0:	14030104 	strne	r0, [r3], #-260	; 0x104
    11d4:	03020482 	movweq	r0, #9346	; 0x2482
    11d8:	73032e79 	movwvc	r2, #15993	; 0x3e79
    11dc:	03010466 	movweq	r0, #5222	; 0x1466
    11e0:	02048216 	andeq	r8, r4, #1610612737	; 0x60000001
    11e4:	032e7703 	teqeq	lr, #786432	; 0xc0000
    11e8:	01046673 	tsteq	r4, r3, ror r6
    11ec:	03821803 	orreq	r1, r2, #196608	; 0x30000
    11f0:	4d4b2e10 	stclmi	14, cr2, [fp, #-64]	; 0xffffffc0
    11f4:	4c2e7003 	stcmi	0, cr7, [lr], #-12
    11f8:	03488384 	movteq	r8, #33668	; 0x8384
    11fc:	314e2e0d 	cmpcc	lr, sp, lsl #28
    1200:	03020433 	movweq	r0, #9267	; 0x2433
    1204:	01042e48 	tsteq	r4, r8, asr #28
    1208:	2f823a03 	svccs	0x00823a03
    120c:	45030204 	strmi	r0, [r3, #-516]	; 0x204
    1210:	03010466 	movweq	r0, #5222	; 0x1466
    1214:	042f823d 	strteq	r8, [pc], #-573	; 121c <_start-0x6de4>
    1218:	82420302 	subhi	r0, r2, #134217728	; 0x8000000
    121c:	c0030104 	andgt	r0, r3, r4, lsl #2
    1220:	042f8200 	strteq	r8, [pc], #-512	; 1228 <_start-0x6dd8>
    1224:	7fbf0302 	svcvc	0x00bf0302
    1228:	03010482 	movweq	r0, #5250	; 0x1482
    122c:	2f8200c3 	svccs	0x008200c3
    1230:	bc030204 	sfmlt	f0, 4, [r3], {4}
    1234:	0104827f 	tsteq	r4, pc, ror r2
    1238:	8200c603 	andhi	ip, r0, #3145728	; 0x300000
    123c:	0302042f 	movweq	r0, #9263	; 0x242f
    1240:	04827fb9 	streq	r7, [r2], #4025	; 0xfb9
    1244:	00c90301 	sbceq	r0, r9, r1, lsl #6
    1248:	02042f82 	andeq	r2, r4, #520	; 0x208
    124c:	827fb603 	rsbshi	fp, pc, #3145728	; 0x300000
    1250:	cc030104 	stfgts	f0, [r3], {4}
    1254:	042f8200 	strteq	r8, [pc], #-512	; 125c <_start-0x6da4>
    1258:	7fb30302 	svcvc	0x00b30302
    125c:	03010482 	movweq	r0, #5250	; 0x1482
    1260:	038200d0 	orreq	r0, r2, #208	; 0xd0
    1264:	844c824c 	strbhi	r8, [ip], #-588	; 0x24c
    1268:	36034883 	strcc	r4, [r3], -r3, lsl #17
    126c:	54034e2e 	strpl	r4, [r3], #-3630	; 0xe2e
    1270:	4a29034a 	bmi	a41fa0 <__bss_end__+0xa35c18>
    1274:	009f3432 	addseq	r3, pc, r2, lsr r4	; <UNPREDICTABLE>
    1278:	06010402 	streq	r0, [r1], -r2, lsl #8
    127c:	4ed7064a 	cdpmi	6, 13, cr0, cr7, cr10, {2}
    1280:	002cbb4b 	eoreq	fp, ip, fp, asr #22
    1284:	06010402 	streq	r0, [r1], -r2, lsl #8
    1288:	4c6d062e 	stclmi	6, cr0, [sp], #-184	; 0xffffff48
    128c:	020084a4 	andeq	r8, r0, #164, 8	; 0xa4000000
    1290:	4a060104 	bmi	1816a8 <__bss_end__+0x175320>
    1294:	004dd706 	subeq	sp, sp, r6, lsl #14
    1298:	4b020402 	blmi	822a8 <__bss_end__+0x75f20>
    129c:	02040200 	andeq	r0, r4, #0, 4
    12a0:	04020081 	streq	r0, [r2], #-129	; 0x81
    12a4:	062e0601 	strteq	r0, [lr], -r1, lsl #12
    12a8:	bca54c4d 	stclt	12, cr4, [r5], #308	; 0x134
    12ac:	6a4b4b4b 	bvs	12d3fe0 <__bss_end__+0x12c7c58>
    12b0:	0402002f 	streq	r0, [r2], #-47	; 0x2f
    12b4:	82820601 	addhi	r0, r2, #1048576	; 0x100000
    12b8:	04040200 	streq	r0, [r4], #-512	; 0x200
    12bc:	0402009e 	streq	r0, [r2], #-158	; 0x9e
    12c0:	d9064a01 	stmdble	r6, {r0, r9, fp, lr}
    12c4:	4b2fbd88 	blmi	bf08ec <__bss_end__+0xbe4564>
    12c8:	6740084b 	strbvs	r0, [r0, -fp, asr #16]
    12cc:	02040200 	andeq	r0, r4, #0, 4
    12d0:	0402002f 	streq	r0, [r2], #-47	; 0x2f
    12d4:	02004902 	andeq	r4, r0, #32768	; 0x8000
    12d8:	2e060104 	adfcss	f0, f6, f4
    12dc:	86346806 	ldrthi	r6, [r4], -r6, lsl #16
    12e0:	0200a04b 	andeq	sl, r0, #75	; 0x4b
    12e4:	66060104 	strvs	r0, [r6], -r4, lsl #2
    12e8:	0868d706 	stmdaeq	r8!, {r1, r2, r8, r9, sl, ip, lr, pc}^
    12ec:	4b674b22 	blmi	19d3f7c <__bss_end__+0x19c7bf4>
    12f0:	000a02d8 	ldrdeq	r0, [sl], -r8
    12f4:	01010101 	tsteq	r1, r1, lsl #2
    12f8:	00020000 	andeq	r0, r2, r0
    12fc:	000000ca 	andeq	r0, r0, sl, asr #1
    1300:	0efb0102 	cdpeq	1, 15, cr0, cr11, cr2, {0}
    1304:	0101000d 	tsteq	r1, sp
    1308:	00000101 	andeq	r0, r0, r1, lsl #2
    130c:	00000100 	andeq	r0, r0, r0, lsl #2
    1310:	2d796d01 	ldclcs	13, cr6, [r9, #-4]!
    1314:	00637273 	rsbeq	r7, r3, r3, ror r2
    1318:	6573552f 	ldrbvs	r5, [r3, #-1327]!	; 0x52f
    131c:	622f7372 	eorvs	r7, pc, #-939524095	; 0xc8000001
    1320:	6e616972 	mcrvs	9, 3, r6, cr1, cr2, {3}
    1324:	2f6e756a 	svccs	0x006e756a
    1328:	6b736544 	blvs	1cda840 <__bss_end__+0x1cce4b8>
    132c:	2f706f74 	svccs	0x00706f74
    1330:	6f686373 	svcvs	0x00686373
    1334:	572f6c6f 	strpl	r6, [pc, -pc, ror #24]!
    1338:	65746e69 	ldrbvs	r6, [r4, #-3689]!	; 0xe69
    133c:	32393172 	eorscc	r3, r9, #-2147483620	; 0x8000001c
    1340:	53432f30 	movtpl	r2, #16176	; 0x3f30
    1344:	45303431 	ldrmi	r3, [r0, #-1073]!	; 0x431
    1348:	3173632f 	cmncc	r3, pc, lsr #6
    134c:	2d653034 	stclcs	0, cr3, [r5, #-208]!	; 0xffffff30
    1350:	69773032 	ldmdbvs	r7!, {r1, r4, r5, ip, sp}^
    1354:	696c2f6e 	stmdbvs	ip!, {r1, r2, r3, r5, r6, r8, r9, sl, fp, sp}^
    1358:	2f697062 	svccs	0x00697062
    135c:	34317363 	ldrtcc	r7, [r1], #-867	; 0x363
    1360:	732d6530 	teqvc	sp, #48, 10	; 0xc000000
    1364:	2f006372 	svccs	0x00006372
    1368:	72657355 	rsbvc	r7, r5, #1409286145	; 0x54000001
    136c:	72622f73 	rsbvc	r2, r2, #460	; 0x1cc
    1370:	6a6e6169 	bvs	1b9991c <__bss_end__+0x1b8d594>
    1374:	442f6e75 	strtmi	r6, [pc], #-3701	; 137c <_start-0x6c84>
    1378:	746b7365 	strbtvc	r7, [fp], #-869	; 0x365
    137c:	732f706f 	teqvc	pc, #111	; 0x6f
    1380:	6f6f6863 	svcvs	0x006f6863
    1384:	69572f6c 	ldmdbvs	r7, {r2, r3, r5, r6, r8, r9, sl, fp, sp}^
    1388:	7265746e 	rsbvc	r7, r5, #1845493760	; 0x6e000000
    138c:	30323931 	eorscc	r3, r2, r1, lsr r9
    1390:	3153432f 	cmpcc	r3, pc, lsr #6
    1394:	2f453034 	svccs	0x00453034
    1398:	34317363 	ldrtcc	r7, [r1], #-867	; 0x363
    139c:	322d6530 	eorcc	r6, sp, #48, 10	; 0xc000000
    13a0:	6e697730 	mcrvs	7, 3, r7, cr9, cr0, {1}
    13a4:	62696c2f 	rsbvs	r6, r9, #12032	; 0x2f00
    13a8:	00006970 	andeq	r6, r0, r0, ror r9
    13ac:	74726175 	ldrbtvc	r6, [r2], #-373	; 0x175
    13b0:	0100632e 	tsteq	r0, lr, lsr #6
    13b4:	70670000 	rsbvc	r0, r7, r0
    13b8:	682e6f69 	stmdavs	lr!, {r0, r3, r5, r6, r8, r9, sl, fp, sp, lr}
    13bc:	00000200 	andeq	r0, r0, r0, lsl #4
    13c0:	2e697072 	mcrcs	0, 3, r7, cr9, cr2, {3}
    13c4:	00030068 	andeq	r0, r3, r8, rrx
    13c8:	05000000 	streq	r0, [r0, #-0]
    13cc:	00a53402 	adceq	r3, r5, r2, lsl #8
    13d0:	01360300 	teqeq	r6, r0, lsl #6
    13d4:	6d673330 	stclvs	3, cr3, [r7, #-192]!	; 0xffffff40
    13d8:	6730d830 			; <UNDEFINED> instruction: 0x6730d830
    13dc:	67676767 	strbvs	r6, [r7, -r7, ror #14]!
    13e0:	672f8668 	strvs	r8, [pc, -r8, ror #12]!
    13e4:	6767306a 	strbvs	r3, [r7, -sl, rrx]!
    13e8:	6a672f69 	bvs	19cd194 <__bss_end__+0x19c0e0c>
    13ec:	2fc1674c 	svccs	0x00c1674c
    13f0:	682f302f 	stmdavs	pc!, {r0, r1, r2, r3, r5, ip, sp}	; <UNPREDICTABLE>
    13f4:	02023049 	andeq	r3, r2, #73	; 0x49
    13f8:	c9010100 	stmdbgt	r1, {r8}
    13fc:	02000000 	andeq	r0, r0, #0
    1400:	00009700 	andeq	r9, r0, r0, lsl #14
    1404:	fb010200 	blx	41c0e <__bss_end__+0x35886>
    1408:	01000d0e 	tsteq	r0, lr, lsl #26
    140c:	00010101 	andeq	r0, r1, r1, lsl #2
    1410:	00010000 	andeq	r0, r1, r0
    1414:	73630100 	cmnvc	r3, #0, 2
    1418:	65303431 	ldrvs	r3, [r0, #-1073]!	; 0x431
    141c:	746e692d 	strbtvc	r6, [lr], #-2349	; 0x92d
    1420:	75727265 	ldrbvc	r7, [r2, #-613]!	; 0x265
    1424:	2f007470 	svccs	0x00007470
    1428:	72657355 	rsbvc	r7, r5, #1409286145	; 0x54000001
    142c:	72622f73 	rsbvc	r2, r2, #460	; 0x1cc
    1430:	6a6e6169 	bvs	1b999dc <__bss_end__+0x1b8d654>
    1434:	442f6e75 	strtmi	r6, [pc], #-3701	; 143c <_start-0x6bc4>
    1438:	746b7365 	strbtvc	r7, [fp], #-869	; 0x365
    143c:	732f706f 	teqvc	pc, #111	; 0x6f
    1440:	6f6f6863 	svcvs	0x006f6863
    1444:	69572f6c 	ldmdbvs	r7, {r2, r3, r5, r6, r8, r9, sl, fp, sp}^
    1448:	7265746e 	rsbvc	r7, r5, #1845493760	; 0x6e000000
    144c:	30323931 	eorscc	r3, r2, r1, lsr r9
    1450:	3153432f 	cmpcc	r3, pc, lsr #6
    1454:	2f453034 	svccs	0x00453034
    1458:	34317363 	ldrtcc	r7, [r1], #-867	; 0x363
    145c:	322d6530 	eorcc	r6, sp, #48, 10	; 0xc000000
    1460:	6e697730 	mcrvs	7, 3, r7, cr9, cr0, {1}
    1464:	62696c2f 	rsbvs	r6, r9, #12032	; 0x2f00
    1468:	00006970 	andeq	r6, r0, r0, ror r9
    146c:	65746e69 	ldrbvs	r6, [r4, #-3689]!	; 0xe69
    1470:	70757272 	rsbsvc	r7, r5, r2, ror r2
    1474:	632d7374 	teqvs	sp, #116, 6	; 0xd0000001
    1478:	0100632e 	tsteq	r0, lr, lsr #6
    147c:	70720000 	rsbsvc	r0, r2, r0
    1480:	00682e69 	rsbeq	r2, r8, r9, ror #28
    1484:	72000002 	andvc	r0, r0, #2
    1488:	692d6970 	pushvs	{r4, r5, r6, r8, fp, sp, lr}
    148c:	7265746e 	rsbvc	r7, r5, #1845493760	; 0x6e000000
    1490:	74707572 	ldrbtvc	r7, [r0], #-1394	; 0x572
    1494:	00682e73 	rsbeq	r2, r8, r3, ror lr
    1498:	00000001 	andeq	r0, r0, r1
    149c:	88020500 	stmdahi	r2, {r8, sl}
    14a0:	030000a6 	movweq	r0, #166	; 0xa6
    14a4:	6731011a 			; <UNDEFINED> instruction: 0x6731011a
    14a8:	2e090367 	cdpcs	3, 0, cr0, cr9, cr7, {3}
    14ac:	002d2f83 	eoreq	r2, sp, r3, lsl #31
    14b0:	2f020402 	svccs	0x00020402
    14b4:	02040200 	andeq	r0, r4, #0, 4
    14b8:	04020065 	streq	r0, [r2], #-101	; 0x65
    14bc:	062e0601 	strteq	r0, [lr], -r1, lsl #12
    14c0:	0267a04c 	rsbeq	sl, r7, #76	; 0x4c
    14c4:	0101001c 	tsteq	r1, ip, lsl r0
    14c8:	00000178 	andeq	r0, r0, r8, ror r1
    14cc:	00ca0002 	sbceq	r0, sl, r2
    14d0:	01020000 	mrseq	r0, (UNDEF: 2)
    14d4:	000d0efb 	strdeq	r0, [sp], -fp
    14d8:	01010101 	tsteq	r1, r1, lsl #2
    14dc:	01000000 	mrseq	r0, (UNDEF: 0)
    14e0:	6d010000 	stcvs	0, cr0, [r1, #-0]
    14e4:	72732d79 	rsbsvc	r2, r3, #7744	; 0x1e40
    14e8:	552f0063 	strpl	r0, [pc, #-99]!	; 148d <_start-0x6b73>
    14ec:	73726573 	cmnvc	r2, #482344960	; 0x1cc00000
    14f0:	6972622f 	ldmdbvs	r2!, {r0, r1, r2, r3, r5, r9, sp, lr}^
    14f4:	756a6e61 	strbvc	r6, [sl, #-3681]!	; 0xe61
    14f8:	65442f6e 	strbvs	r2, [r4, #-3950]	; 0xf6e
    14fc:	6f746b73 	svcvs	0x00746b73
    1500:	63732f70 	cmnvs	r3, #112, 30	; 0x1c0
    1504:	6c6f6f68 	stclvs	15, cr6, [pc], #-416	; 136c <_start-0x6c94>
    1508:	6e69572f 	cdpvs	7, 6, cr5, cr9, cr15, {1}
    150c:	31726574 	cmncc	r2, r4, ror r5
    1510:	2f303239 	svccs	0x00303239
    1514:	34315343 	ldrtcc	r5, [r1], #-835	; 0x343
    1518:	632f4530 	teqvs	pc, #48, 10	; 0xc000000
    151c:	30343173 	eorscc	r3, r4, r3, ror r1
    1520:	30322d65 	eorscc	r2, r2, r5, ror #26
    1524:	2f6e6977 	svccs	0x006e6977
    1528:	7062696c 	rsbvc	r6, r2, ip, ror #18
    152c:	73632f69 	cmnvc	r3, #420	; 0x1a4
    1530:	65303431 	ldrvs	r3, [r0, #-1073]!	; 0x431
    1534:	6372732d 	cmnvs	r2, #-1275068416	; 0xb4000000
    1538:	73552f00 	cmpvc	r5, #0, 30
    153c:	2f737265 	svccs	0x00737265
    1540:	61697262 	cmnvs	r9, r2, ror #4
    1544:	6e756a6e 	vsubvs.f32	s13, s10, s29
    1548:	7365442f 	cmnvc	r5, #788529152	; 0x2f000000
    154c:	706f746b 	rsbvc	r7, pc, fp, ror #8
    1550:	6863732f 	stmdavs	r3!, {r0, r1, r2, r3, r5, r8, r9, ip, sp, lr}^
    1554:	2f6c6f6f 	svccs	0x006c6f6f
    1558:	746e6957 	strbtvc	r6, [lr], #-2391	; 0x957
    155c:	39317265 	ldmdbcc	r1!, {r0, r2, r5, r6, r9, ip, sp, lr}
    1560:	432f3032 	teqmi	pc, #50	; 0x32
    1564:	30343153 	eorscc	r3, r4, r3, asr r1
    1568:	73632f45 	cmnvc	r3, #276	; 0x114
    156c:	65303431 	ldrvs	r3, [r0, #-1073]!	; 0x431
    1570:	7730322d 	ldrvc	r3, [r0, -sp, lsr #4]!
    1574:	6c2f6e69 	stcvs	14, cr6, [pc], #-420	; 13d8 <_start-0x6c28>
    1578:	69706269 	ldmdbvs	r0!, {r0, r3, r5, r6, r9, sp, lr}^
    157c:	70670000 	rsbvc	r0, r7, r0
    1580:	632e6f69 	teqvs	lr, #420	; 0x1a4
    1584:	00000100 	andeq	r0, r0, r0, lsl #2
    1588:	6f697067 	svcvs	0x00697067
    158c:	0200682e 	andeq	r6, r0, #3014656	; 0x2e0000
    1590:	70720000 	rsbsvc	r0, r2, r0
    1594:	00682e69 	rsbeq	r2, r8, r9, ror #28
    1598:	00000003 	andeq	r0, r0, r3
    159c:	84020500 	strhi	r0, [r2], #-1280	; 0x500
    15a0:	030000a8 	movweq	r0, #168	; 0xa8
    15a4:	504e013e 	subpl	r0, lr, lr, lsr r1
    15a8:	67210869 	strvs	r0, [r1, -r9, ror #16]!
    15ac:	67676767 	strbvs	r6, [r7, -r7, ror #14]!
    15b0:	084b3267 	stmdaeq	fp, {r0, r1, r2, r5, r6, r9, ip, sp}^
    15b4:	5131dc22 	teqpl	r1, r2, lsr #24
    15b8:	30504e13 	subscc	r4, r0, r3, lsl lr
    15bc:	135031be 	cmpne	r0, #-2147483601	; 0x8000002f
    15c0:	c0304f4d 	eorsgt	r4, r0, sp, asr #30
    15c4:	0869504c 	stmdaeq	r9!, {r2, r3, r6, ip, lr}^
    15c8:	67676721 	strbvs	r6, [r7, -r1, lsr #14]!
    15cc:	32676767 	rsbcc	r6, r7, #27000832	; 0x19c0000
    15d0:	a421084b 	strtge	r0, [r1], #-2123	; 0x84b
    15d4:	842f504c 	strthi	r5, [pc], #-76	; 15dc <_start-0x6a24>
    15d8:	82750369 	rsbshi	r0, r5, #-1543503871	; 0xa4000001
    15dc:	4d2e0c03 	stcmi	12, cr0, [lr, #-12]!
    15e0:	4c4b4e30 	mcrrmi	14, 3, r4, fp, cr0
    15e4:	696b6a4d 	stmdbvs	fp!, {r0, r2, r3, r6, r9, fp, sp, lr}^
    15e8:	67672108 	strbvs	r2, [r7, -r8, lsl #2]!
    15ec:	67676767 	strbvs	r6, [r7, -r7, ror #14]!
    15f0:	22084b32 	andcs	r4, r8, #51200	; 0xc800
    15f4:	31ba1a03 			; <UNDEFINED> instruction: 0x31ba1a03
    15f8:	522f4c9f 	eorpl	r4, pc, #40704	; 0x9f00
    15fc:	4b2f4e4d 	blmi	bd4f38 <__bss_end__+0xbc8bb0>
    1600:	67684b67 	strbvs	r4, [r8, -r7, ror #22]!
    1604:	672f4c67 	strvs	r4, [pc, -r7, ror #24]!
    1608:	4c6e4b2f 	stclmi	11, cr4, [lr], #-188	; 0xffffff44
    160c:	674b2f4e 	strbvs	r2, [fp, -lr, asr #30]
    1610:	6767684b 	strbvs	r6, [r7, -fp, asr #16]!
    1614:	2f672f4c 	svccs	0x00672f4c
    1618:	4e4b6d4b 	cdpmi	13, 4, cr6, cr11, cr11, {2}
    161c:	00674b2f 	rsbeq	r4, r7, pc, lsr #22
    1620:	06010402 	streq	r0, [r1], -r2, lsl #8
    1624:	9f680666 	svcls	0x00680666
    1628:	0402002f 	streq	r0, [r2], #-47	; 0x2f
    162c:	064a0601 	strbeq	r0, [sl], -r1, lsl #12
    1630:	73032f68 	movwvc	r2, #16232	; 0x3f68
    1634:	2e0e034a 	cdpcs	3, 0, cr0, cr14, cr10, {2}
    1638:	2f4e4c4d 	svccs	0x004e4c4d
    163c:	02bcbc4b 	adcseq	fp, ip, #19200	; 0x4b00
    1640:	01010006 	tsteq	r1, r6
    1644:	00000128 	andeq	r0, r0, r8, lsr #2
    1648:	010d0002 	tsteq	sp, r2
    164c:	01020000 	mrseq	r0, (UNDEF: 2)
    1650:	000d0efb 	strdeq	r0, [sp], -fp
    1654:	01010101 	tsteq	r1, r1, lsl #2
    1658:	01000000 	mrseq	r0, (UNDEF: 0)
    165c:	63010000 	movwvs	r0, #4096	; 0x1000
    1660:	30343173 	eorscc	r3, r4, r3, ror r1
    1664:	72732d65 	rsbsvc	r2, r3, #6464	; 0x1940
    1668:	752f0063 	strvc	r0, [pc, #-99]!	; 160d <_start-0x69f3>
    166c:	6c2f7273 	sfmvs	f7, 4, [pc], #-460	; 14a8 <_start-0x6b58>
    1670:	6c61636f 	stclvs	3, cr6, [r1], #-444	; 0xfffffe44
    1674:	6c65432f 	stclvs	3, cr4, [r5], #-188	; 0xffffff44
    1678:	2f72616c 	svccs	0x0072616c
    167c:	2d6d7261 	sfmcs	f7, 2, [sp, #-388]!	; 0xfffffe7c
    1680:	656e6f6e 	strbvs	r6, [lr, #-3950]!	; 0xf6e
    1684:	6261652d 	rsbvs	r6, r1, #188743680	; 0xb400000
    1688:	2e342f69 	cdpcs	15, 3, cr2, cr4, cr9, {3}
    168c:	2d332e38 	ldccs	14, cr2, [r3, #-224]!	; 0xffffff20
    1690:	37317363 	ldrcc	r7, [r1, -r3, ror #6]!
    1694:	6c2f6530 	cfstr32vs	mvfx6, [pc], #-192	; 15dc <_start-0x6a24>
    1698:	672f6269 	strvs	r6, [pc, -r9, ror #4]!
    169c:	612f6363 	teqvs	pc, r3, ror #6
    16a0:	6e2d6d72 	mcrvs	13, 1, r6, cr13, cr2, {3}
    16a4:	2d656e6f 	stclcs	14, cr6, [r5, #-444]!	; 0xfffffe44
    16a8:	69626165 	stmdbvs	r2!, {r0, r2, r5, r6, r8, sp, lr}^
    16ac:	382e342f 	stmdacc	lr!, {r0, r1, r2, r3, r5, sl, ip, sp}
    16b0:	692f332e 	stmdbvs	pc!, {r1, r2, r3, r5, r8, r9, ip, sp}	; <UNPREDICTABLE>
    16b4:	756c636e 	strbvc	r6, [ip, #-878]!	; 0x36e
    16b8:	2f006564 	svccs	0x00006564
    16bc:	2f727375 	svccs	0x00727375
    16c0:	61636f6c 	cmnvs	r3, ip, ror #30
    16c4:	65432f6c 	strbvs	r2, [r3, #-3948]	; 0xf6c
    16c8:	72616c6c 	rsbvc	r6, r1, #108, 24	; 0x6c00
    16cc:	6d72612f 	ldfvse	f6, [r2, #-188]!	; 0xffffff44
    16d0:	6e6f6e2d 	cdpvs	14, 6, cr6, cr15, cr13, {1}
    16d4:	61652d65 	cmnvs	r5, r5, ror #26
    16d8:	342f6962 	strtcc	r6, [pc], #-2402	; 16e0 <_start-0x6920>
    16dc:	332e382e 	teqcc	lr, #3014656	; 0x2e0000
    16e0:	3173632d 	cmncc	r3, sp, lsr #6
    16e4:	2f653037 	svccs	0x00653037
    16e8:	2d6d7261 	sfmcs	f7, 2, [sp, #-388]!	; 0xfffffe7c
    16ec:	656e6f6e 	strbvs	r6, [lr, #-3950]!	; 0xf6e
    16f0:	6261652d 	rsbvs	r6, r1, #188743680	; 0xb400000
    16f4:	6e692f69 	cdpvs	15, 6, cr2, cr9, cr9, {3}
    16f8:	64756c63 	ldrbtvs	r6, [r5], #-3171	; 0xc63
    16fc:	63000065 	movwvs	r0, #101	; 0x65
    1700:	72746e6f 	rsbsvc	r6, r4, #1776	; 0x6f0
    1704:	622d6c6f 	eorvs	r6, sp, #28416	; 0x6f00
    1708:	6b636f6c 	blvs	18dd4c0 <__bss_end__+0x18d1138>
    170c:	0100632e 	tsteq	r0, lr, lsr #6
    1710:	74730000 	ldrbtvc	r0, [r3], #-0
    1714:	66656464 	strbtvs	r6, [r5], -r4, ror #8
    1718:	0200682e 	andeq	r6, r0, #3014656	; 0x2e0000
    171c:	74730000 	ldrbtvc	r0, [r3], #-0
    1720:	746e6964 	strbtvc	r6, [lr], #-2404	; 0x964
    1724:	6363672d 	cmnvs	r3, #11796480	; 0xb40000
    1728:	0200682e 	andeq	r6, r0, #3014656	; 0x2e0000
    172c:	77730000 	ldrbvc	r0, [r3, -r0]!
    1730:	7261752d 	rsbvc	r7, r1, #188743680	; 0xb400000
    1734:	00682e74 	rsbeq	r2, r8, r4, ror lr
    1738:	63000001 	movwvs	r0, #1
    173c:	72746e6f 	rsbsvc	r6, r4, #1776	; 0x6f0
    1740:	622d6c6f 	eorvs	r6, sp, #28416	; 0x6f00
    1744:	6b636f6c 	blvs	18dd4fc <__bss_end__+0x18d1174>
    1748:	0100682e 	tsteq	r0, lr, lsr #16
    174c:	74730000 	ldrbtvc	r0, [r3], #-0
    1750:	676e6972 			; <UNDEFINED> instruction: 0x676e6972
    1754:	0300682e 	movweq	r6, #2094	; 0x82e
    1758:	00000000 	andeq	r0, r0, r0
    175c:	adec0205 	sfmge	f0, 2, [ip, #20]!
    1760:	30160000 	andscc	r0, r6, r0
    1764:	144c6883 	strbne	r6, [ip], #-2179	; 0x883
    1768:	022f4b9f 	eoreq	r4, pc, #162816	; 0x27c00
    176c:	01010004 	tsteq	r1, r4
    1770:	000000a0 	andeq	r0, r0, r0, lsr #1
    1774:	008c0002 	addeq	r0, ip, r2
    1778:	01020000 	mrseq	r0, (UNDEF: 2)
    177c:	000d0efb 	strdeq	r0, [sp], -fp
    1780:	01010101 	tsteq	r1, r1, lsl #2
    1784:	01000000 	mrseq	r0, (UNDEF: 0)
    1788:	63010000 	movwvs	r0, #4096	; 0x1000
    178c:	30343173 	eorscc	r3, r4, r3, ror r1
    1790:	6e692d65 	cdpvs	13, 6, cr2, cr9, cr5, {3}
    1794:	72726574 	rsbsvc	r6, r2, #116, 10	; 0x1d000000
    1798:	00747075 	rsbseq	r7, r4, r5, ror r0
    179c:	6573552f 	ldrbvs	r5, [r3, #-1327]!	; 0x52f
    17a0:	622f7372 	eorvs	r7, pc, #-939524095	; 0xc8000001
    17a4:	6e616972 	mcrvs	9, 3, r6, cr1, cr2, {3}
    17a8:	2f6e756a 	svccs	0x006e756a
    17ac:	6b736544 	blvs	1cdacc4 <__bss_end__+0x1cce93c>
    17b0:	2f706f74 	svccs	0x00706f74
    17b4:	6f686373 	svcvs	0x00686373
    17b8:	572f6c6f 	strpl	r6, [pc, -pc, ror #24]!
    17bc:	65746e69 	ldrbvs	r6, [r4, #-3689]!	; 0xe69
    17c0:	32393172 	eorscc	r3, r9, #-2147483620	; 0x8000001c
    17c4:	53432f30 	movtpl	r2, #16176	; 0x3f30
    17c8:	45303431 	ldrmi	r3, [r0, #-1073]!	; 0x431
    17cc:	3173632f 	cmncc	r3, pc, lsr #6
    17d0:	2d653034 	stclcs	0, cr3, [r5, #-208]!	; 0xffffff30
    17d4:	69773032 	ldmdbvs	r7!, {r1, r4, r5, ip, sp}^
    17d8:	696c2f6e 	stmdbvs	ip!, {r1, r2, r3, r5, r6, r8, r9, sl, fp, sp}^
    17dc:	00697062 	rsbeq	r7, r9, r2, rrx
    17e0:	66656400 	strbtvs	r6, [r5], -r0, lsl #8
    17e4:	746c7561 	strbtvc	r7, [ip], #-1377	; 0x561
    17e8:	6e61682d 	cdpvs	8, 6, cr6, cr1, cr13, {1}
    17ec:	72656c64 	rsbvc	r6, r5, #100, 24	; 0x6400
    17f0:	7365722d 	cmnvc	r5, #-805306366	; 0xd0000002
    17f4:	632e7465 	teqvs	lr, #1694498816	; 0x65000000
    17f8:	00000100 	andeq	r0, r0, r0, lsl #2
    17fc:	2e697072 	mcrcs	0, 3, r7, cr9, cr2, {3}
    1800:	00020068 	andeq	r0, r2, r8, rrx
    1804:	05000000 	streq	r0, [r0, #-0]
    1808:	00ae3c02 	adceq	r3, lr, r2, lsl #24
    180c:	02661300 	rsbeq	r1, r6, #0, 6
    1810:	0101001c 	tsteq	r1, ip, lsl r0
    1814:	000000a9 	andeq	r0, r0, r9, lsr #1
    1818:	00950002 	addseq	r0, r5, r2
    181c:	01020000 	mrseq	r0, (UNDEF: 2)
    1820:	000d0efb 	strdeq	r0, [sp], -fp
    1824:	01010101 	tsteq	r1, r1, lsl #2
    1828:	01000000 	mrseq	r0, (UNDEF: 0)
    182c:	63010000 	movwvs	r0, #4096	; 0x1000
    1830:	30343173 	eorscc	r3, r4, r3, ror r1
    1834:	6e692d65 	cdpvs	13, 6, cr2, cr9, cr5, {3}
    1838:	72726574 	rsbsvc	r6, r2, #116, 10	; 0x1d000000
    183c:	00747075 	rsbseq	r7, r4, r5, ror r0
    1840:	6573552f 	ldrbvs	r5, [r3, #-1327]!	; 0x52f
    1844:	622f7372 	eorvs	r7, pc, #-939524095	; 0xc8000001
    1848:	6e616972 	mcrvs	9, 3, r6, cr1, cr2, {3}
    184c:	2f6e756a 	svccs	0x006e756a
    1850:	6b736544 	blvs	1cdad68 <__bss_end__+0x1cce9e0>
    1854:	2f706f74 	svccs	0x00706f74
    1858:	6f686373 	svcvs	0x00686373
    185c:	572f6c6f 	strpl	r6, [pc, -pc, ror #24]!
    1860:	65746e69 	ldrbvs	r6, [r4, #-3689]!	; 0xe69
    1864:	32393172 	eorscc	r3, r9, #-2147483620	; 0x8000001c
    1868:	53432f30 	movtpl	r2, #16176	; 0x3f30
    186c:	45303431 	ldrmi	r3, [r0, #-1073]!	; 0x431
    1870:	3173632f 	cmncc	r3, pc, lsr #6
    1874:	2d653034 	stclcs	0, cr3, [r5, #-208]!	; 0xffffff30
    1878:	69773032 	ldmdbvs	r7!, {r1, r4, r5, ip, sp}^
    187c:	696c2f6e 	stmdbvs	ip!, {r1, r2, r3, r5, r6, r8, r9, sl, fp, sp}^
    1880:	00697062 	rsbeq	r7, r9, r2, rrx
    1884:	66656400 	strbtvs	r6, [r5], -r0, lsl #8
    1888:	746c7561 	strbtvc	r7, [ip], #-1377	; 0x561
    188c:	6e61682d 	cdpvs	8, 6, cr6, cr1, cr13, {1}
    1890:	72656c64 	rsbvc	r6, r5, #100, 24	; 0x6400
    1894:	646e752d 	strbtvs	r7, [lr], #-1325	; 0x52d
    1898:	6e696665 	cdpvs	6, 6, cr6, cr9, cr5, {3}
    189c:	692d6465 	pushvs	{r0, r2, r5, r6, sl, sp, lr}
    18a0:	2e74736e 	cdpcs	3, 7, cr7, cr4, cr14, {3}
    18a4:	00010063 	andeq	r0, r1, r3, rrx
    18a8:	69707200 	ldmdbvs	r0!, {r9, ip, sp, lr}^
    18ac:	0200682e 	andeq	r6, r0, #3014656	; 0x2e0000
    18b0:	00000000 	andeq	r0, r0, r0
    18b4:	ae800205 	cdpge	2, 8, cr0, cr0, cr5, {0}
    18b8:	66130000 	ldrvs	r0, [r3], -r0
    18bc:	01001c02 	tsteq	r0, r2, lsl #24
    18c0:	Address 0x00000000000018c0 is out of bounds.


Disassembly of section .debug_str:

00000000 <.debug_str>:
       0:	72625f5a 	rsbvc	r5, r2, #360	; 0x168
       4:	68636e61 	stmdavs	r3!, {r0, r5, r6, r9, sl, fp, sp, lr}^
       8:	6572705f 	ldrbvs	r7, [r2, #-95]!	; 0x5f
       c:	61640064 	cmnvs	r4, r4, rrx
      10:	615f6174 	cmpvs	pc, r4, ror r1	; <UNPREDICTABLE>
      14:	74726f62 	ldrbtvc	r6, [r2], #-3938	; 0xf62
      18:	6365765f 	cmnvs	r5, #99614720	; 0x5f00000
      1c:	00726f74 	rsbseq	r6, r2, r4, ror pc
      20:	5f756d6d 	svcpl	0x00756d6d
      24:	6b72616d 	blvs	1c985e0 <__bss_end__+0x1c8c258>
      28:	6365735f 	cmnvs	r5, #2080374785	; 0x7c000001
      2c:	6165725f 	cmnvs	r5, pc, asr r2
      30:	6c6e6f64 	stclvs	15, cr6, [lr], #-400	; 0xfffffe70
      34:	69730079 	ldmdbvs	r3!, {r0, r3, r4, r5, r6}^
      38:	745f657a 	ldrbvc	r6, [pc], #-1402	; 40 <_start-0x7fc0>
      3c:	685f5600 	ldmdavs	pc, {r9, sl, ip, lr}^	; <UNPREDICTABLE>
      40:	5f686769 	svcpl	0x00686769
      44:	65637865 	strbvs	r7, [r3, #-2149]!	; 0x865
      48:	765f7470 			; <UNDEFINED> instruction: 0x765f7470
      4c:	655f4200 	ldrbvs	r4, [pc, #-512]	; fffffe54 <__bss_end__+0xffff3acc>
      50:	6169646e 	cmnvs	r9, lr, ror #8
      54:	7366006e 	cmnvc	r6, #110	; 0x6e
      58:	6e00345f 	cfmvsrvs	mvf0, r3
      5c:	00636573 	rsbeq	r6, r3, r3, ror r5
      60:	63695f49 	cmnvs	r9, #292	; 0x124
      64:	65686361 	strbvs	r6, [r8, #-865]!	; 0x361
      68:	616e655f 	cmnvs	lr, pc, asr r5
      6c:	00656c62 	rsbeq	r6, r5, r2, ror #24
      70:	6d746f6e 	ldclvs	15, cr6, [r4, #-440]!	; 0xfffffe48
      74:	006e6961 	rsbeq	r6, lr, r1, ror #18
      78:	74726175 	ldrbtvc	r6, [r2], #-373	; 0x175
      7c:	696e695f 	stmdbvs	lr!, {r0, r1, r2, r3, r4, r6, r8, fp, sp, lr}^
      80:	6e650074 	mcrvs	0, 3, r0, cr5, cr4, {3}
      84:	00797274 	rsbseq	r7, r9, r4, ror r2
      88:	676e6f6c 	strbvs	r6, [lr, -ip, ror #30]!
      8c:	6e6f6c20 	cdpvs	12, 6, cr6, cr15, cr0, {1}
      90:	6e752067 	cdpvs	0, 7, cr2, cr5, cr7, {3}
      94:	6e676973 	mcrvs	9, 3, r6, cr7, cr3, {3}
      98:	69206465 	stmdbvs	r0!, {r0, r2, r5, r6, sl, sp, lr}
      9c:	7400746e 	strvc	r7, [r0], #-1134	; 0x46e
      a0:	725f626c 	subsvc	r6, pc, #108, 4	; 0xc0000006
      a4:	41006765 	tstmi	r0, r5, ror #14
      a8:	696c615f 	stmdbvs	ip!, {r0, r1, r2, r3, r4, r6, r8, sp, lr}^
      ac:	656d6e67 	strbvs	r6, [sp, #-3687]!	; 0xe67
      b0:	6c00746e 	cfstrsvs	mvf7, [r0], {110}	; 0x6e
      b4:	20676e6f 	rsbcs	r6, r7, pc, ror #28
      b8:	676e6f6c 	strbvs	r6, [lr, -ip, ror #30]!
      bc:	746e6920 	strbtvc	r6, [lr], #-2336	; 0x920
      c0:	5f504100 	svcpl	0x00504100
      c4:	6f5f6472 	svcvs	0x005f6472
      c8:	00796c6e 	rsbseq	r6, r9, lr, ror #24
      cc:	6b73616d 	blvs	1cd8688 <__bss_end__+0x1ccc300>
      d0:	66666f5f 	uqsaxvs	r6, r6, pc	; <UNPREDICTABLE>
      d4:	00746573 	rsbseq	r6, r4, r3, ror r5
      d8:	5f636573 	svcpl	0x00636573
      dc:	65736162 	ldrbvs	r6, [r3, #-354]!	; 0x162
      e0:	6464615f 	strbtvs	r6, [r4], #-351	; 0x15f
      e4:	4c410072 	mcrrmi	0, 7, r0, r1, cr2
      e8:	4d4e4749 	stclmi	7, cr4, [lr, #-292]	; 0xfffffedc
      ec:	00544e45 	subseq	r4, r4, r5, asr #28
      f0:	72736664 	rsbsvc	r6, r3, #100, 12	; 0x6400000
      f4:	7000745f 	andvc	r7, r0, pc, asr r4
      f8:	65666572 	strbvs	r6, [r6, #-1394]!	; 0x572
      fc:	5f686374 	svcpl	0x00686374
     100:	726f6261 	rsbvc	r6, pc, #268435462	; 0x10000006
     104:	65765f74 	ldrbvs	r5, [r6, #-3956]!	; 0xf74
     108:	726f7463 	rsbvc	r7, pc, #1660944384	; 0x63000000
     10c:	756d6d00 	strbvc	r6, [sp, #-3328]!	; 0xd00
     110:	6e79735f 	mrcvs	3, 3, r7, cr9, cr15, {2}
     114:	74705f63 	ldrbtvc	r5, [r0], #-3939	; 0xf63
     118:	6f6d5f65 	svcvs	0x006d5f65
     11c:	552f0064 	strpl	r0, [pc, #-100]!	; c0 <_start-0x7f40>
     120:	73726573 	cmnvc	r2, #482344960	; 0x1cc00000
     124:	6972622f 	ldmdbvs	r2!, {r0, r1, r2, r3, r5, r9, sp, lr}^
     128:	756a6e61 	strbvc	r6, [sl, #-3681]!	; 0xe61
     12c:	65442f6e 	strbvs	r2, [r4, #-3950]	; 0xf6e
     130:	6f746b73 	svcvs	0x00746b73
     134:	63732f70 	cmnvs	r3, #112, 30	; 0x1c0
     138:	6c6f6f68 	stclvs	15, cr6, [pc], #-416	; ffffffa0 <__bss_end__+0xffff3c18>
     13c:	6e69572f 	cdpvs	7, 6, cr5, cr9, cr15, {1}
     140:	31726574 	cmncc	r2, r4, ror r5
     144:	2f303239 	svccs	0x00303239
     148:	34315343 	ldrtcc	r5, [r1], #-835	; 0x343
     14c:	632f4530 	teqvs	pc, #48, 10	; 0xc000000
     150:	30343173 	eorscc	r3, r4, r3, ror r1
     154:	30322d65 	eorscc	r2, r2, r5, ror #26
     158:	2f6e6977 	svccs	0x006e6977
     15c:	7362616c 	cmnvc	r2, #108, 2
     160:	2d34312f 	ldfcss	f3, [r4, #-188]!	; 0xffffff44
     164:	632f6d76 	teqvs	pc, #7552	; 0x1d80
     168:	0065646f 	rsbeq	r6, r5, pc, ror #8
     16c:	745f6d76 	ldrbvc	r6, [pc], #-3446	; 174 <_start-0x7e8c>
     170:	00747365 	rsbseq	r7, r4, r5, ror #6
     174:	5f72756f 	svcpl	0x0072756f
     178:	74697277 	strbtvc	r7, [r9], #-631	; 0x277
     17c:	6f645f65 	svcvs	0x00645f65
     180:	6e69616d 	powvsez	f6, f1, #5.0
     184:	6363615f 	cmnvs	r3, #-1073741801	; 0xc0000017
     188:	5f737365 	svcpl	0x00737365
     18c:	6c727463 	cfldrdvs	mvd7, [r2], #-396	; 0xfffffe74
     190:	72657a00 	rsbvc	r7, r5, #0, 20
     194:	6c66006f 	stclvs	0, cr0, [r6], #-444	; 0xfffffe44
     198:	00745f64 	rsbseq	r5, r4, r4, ror #30
     19c:	5f697072 	svcpl	0x00697072
     1a0:	65736572 	ldrbvs	r6, [r3, #-1394]!	; 0x572
     1a4:	75705f74 	ldrbvc	r5, [r0, #-3956]!	; 0xf74
     1a8:	54006374 	strpl	r6, [r0], #-884	; 0x374
     1ac:	534e4152 	movtpl	r4, #57682	; 0xe152
     1b0:	4954414c 	ldmdbmi	r4, {r2, r3, r6, r8, lr}^
     1b4:	535f4e4f 	cmppl	pc, #1264	; 0x4f0
     1b8:	49544345 	ldmdbmi	r4, {r0, r2, r6, r8, r9, lr}^
     1bc:	5f004e4f 	svcpl	0x00004e4f
     1c0:	4e55465f 	mrcmi	6, 2, r4, cr5, cr15, {2}
     1c4:	4f495443 	svcmi	0x00495443
     1c8:	005f5f4e 	subseq	r5, pc, lr, asr #30
     1cc:	68736168 	ldmdavs	r3!, {r3, r5, r6, r8, sp, lr}^
     1d0:	6972705f 	ldmdbvs	r2!, {r0, r1, r2, r3, r4, r6, ip, sp, lr}^
     1d4:	6700746e 	strvs	r7, [r0, -lr, ror #8]
     1d8:	32337465 	eorscc	r7, r3, #1694498816	; 0x65000000
     1dc:	73666400 	cmnvc	r6, #0, 8
     1e0:	68730072 	ldmdavs	r3!, {r1, r4, r5, r6}^
     1e4:	2074726f 	rsbscs	r7, r4, pc, ror #4
     1e8:	69736e75 	ldmdbvs	r3!, {r0, r2, r4, r5, r6, r9, sl, fp, sp, lr}^
     1ec:	64656e67 	strbtvs	r6, [r5], #-3687	; 0xe67
     1f0:	746e6920 	strbtvc	r6, [lr], #-2336	; 0x920
     1f4:	646c6600 	strbtvs	r6, [ip], #-1536	; 0x600
     1f8:	6972705f 	ldmdbvs	r2!, {r0, r1, r2, r3, r4, r6, ip, sp, lr}^
     1fc:	4100746e 	tstmi	r0, lr, ror #8
     200:	77725f50 			; <UNDEFINED> instruction: 0x77725f50
     204:	5f525200 	svcpl	0x00525200
     208:	68636163 	stmdavs	r3!, {r0, r1, r5, r6, r8, sp, lr}^
     20c:	65725f65 	ldrbvs	r5, [r2, #-3941]!	; 0xf65
     210:	75730070 	ldrbvc	r0, [r3, #-112]!	; 0x70
     214:	00726570 	rsbseq	r6, r2, r0, ror r5
     218:	35317063 	ldrcc	r7, [r1, #-99]!	; 0x63
     21c:	7274635f 	rsbsvc	r6, r4, #2080374785	; 0x7c000001
     220:	65725f6c 	ldrbvs	r5, [r2, #-3948]!	; 0xf6c
     224:	775f3167 	ldrbvc	r3, [pc, -r7, ror #2]
     228:	6d6d0072 	stclvs	0, cr0, [sp, #-456]!	; 0xfffffe38
     22c:	616d5f75 	smcvs	54773	; 0xd5f5
     230:	735f6b72 	cmpvc	pc, #116736	; 0x1c800
     234:	725f6365 	subsvc	r6, pc, #-1811939327	; 0x94000001
     238:	68630077 	stmdavs	r3!, {r0, r1, r2, r4, r5, r6}^
     23c:	5f6b6365 	svcpl	0x006b6365
     240:	735f6d76 	cmpvc	pc, #7552	; 0x1d80
     244:	63757274 	cmnvs	r5, #116, 4	; 0x40000007
     248:	78007374 	stmdavc	r0, {r2, r4, r5, r6, r8, r9, ip, sp, lr}
     24c:	756d6d5f 	strbvc	r6, [sp, #-3423]!	; 0xd5f
     250:	7369645f 	cmnvc	r9, #1593835520	; 0x5f000000
     254:	656c6261 	strbvs	r6, [ip, #-609]!	; 0x261
     258:	65725f00 	ldrbvs	r5, [r2, #-3840]!	; 0xf00
     25c:	76726573 			; <UNDEFINED> instruction: 0x76726573
     260:	00306465 	eorseq	r6, r0, r5, ror #8
     264:	7365725f 	cmnvc	r5, #-268435451	; 0xf0000005
     268:	65767265 	ldrbvs	r7, [r6, #-613]!	; 0x265
     26c:	66003164 	strvs	r3, [r0], -r4, ror #2
     270:	74737269 	ldrbtvc	r7, [r3], #-617	; 0x269
     274:	76656c5f 			; <UNDEFINED> instruction: 0x76656c5f
     278:	645f6c65 	ldrbvs	r6, [pc], #-3173	; 280 <_start-0x7d80>
     27c:	72637365 	rsbvc	r7, r3, #-1811939327	; 0x94000001
     280:	6f747069 	svcvs	0x00747069
     284:	69730072 	ldmdbvs	r3!, {r1, r4, r5, r6}^
     288:	7974657a 	ldmdbvc	r4!, {r1, r3, r4, r5, r6, r8, sl, sp, lr}^
     28c:	54006570 	strpl	r6, [r0], #-1392	; 0x570
     290:	4d5f424c 	lfmmi	f4, 2, [pc, #-304]	; 168 <_start-0x7e98>
     294:	00535349 	subseq	r5, r3, r9, asr #6
     298:	35317063 	ldrcc	r7, [r1, #-99]!	; 0x63
     29c:	7274635f 	rsbsvc	r6, r4, #2080374785	; 0x7c000001
     2a0:	65725f6c 	ldrbvs	r5, [r2, #-3948]!	; 0xf6c
     2a4:	725f3167 	subsvc	r3, pc, #-1073741799	; 0xc0000019
     2a8:	45560064 	ldrbmi	r0, [r6, #-100]	; 0x64
     2ac:	6365765f 	cmnvs	r5, #99614720	; 0x5f00000
     2b0:	6e695f74 	mcrvs	15, 3, r5, cr9, cr4, {3}
     2b4:	5f520074 	svcpl	0x00520074
     2b8:	5f6d6f72 	svcpl	0x006d6f72
     2bc:	746f7270 	strbtvc	r7, [pc], #-624	; 2c4 <_start-0x7d3c>
     2c0:	72756f00 	rsbsvc	r6, r5, #0, 30
     2c4:	7465735f 	strbtvc	r7, [r5], #-863	; 0x35f
     2c8:	6f72705f 	svcvs	0x0072705f
     2cc:	5f646963 	svcpl	0x00646963
     2d0:	72627474 	rsbvc	r7, r2, #116, 8	; 0x74000000
     2d4:	74700030 	ldrbtvc	r0, [r0], #-48	; 0x30
     2d8:	0074735f 	rsbseq	r7, r4, pc, asr r3
     2dc:	72627474 	rsbvc	r7, r2, #116, 8	; 0x74000000
     2e0:	65675f31 	strbvs	r5, [r7, #-3889]!	; 0xf31
     2e4:	41460074 	hvcmi	24580	; 0x6004
     2e8:	726f665f 	rsbvc	r6, pc, #99614720	; 0x5f00000
     2ec:	615f6563 	cmpvs	pc, r3, ror #10
     2f0:	4c410070 	mcrrmi	0, 7, r0, r1, cr0
     2f4:	4d4e4749 	stclmi	7, cr4, [lr, #-292]	; 0xfffffedc
     2f8:	5f544e45 	svcpl	0x00544e45
     2fc:	00504544 	subseq	r4, r0, r4, asr #10
     300:	69736e75 	ldmdbvs	r3!, {r0, r2, r4, r5, r6, r9, sl, fp, sp, lr}^
     304:	64656e67 	strbtvs	r6, [r5], #-3687	; 0xe67
     308:	61686320 	cmnvs	r8, r0, lsr #6
     30c:	52540072 	subspl	r0, r4, #114	; 0x72
     310:	7865745f 	stmdavc	r5!, {r0, r1, r2, r3, r4, r6, sl, ip, sp, lr}^
     314:	6d65725f 	sfmvs	f7, 2, [r5, #-380]!	; 0xfffffe84
     318:	72007061 	andvc	r7, r0, #97	; 0x61
     31c:	6f736165 	svcvs	0x00736165
     320:	5f57006e 	svcpl	0x0057006e
     324:	74697277 	strbtvc	r7, [r9], #-631	; 0x277
     328:	75625f65 	strbvc	r5, [r2, #-3941]!	; 0xf65
     32c:	68730066 	ldmdavs	r3!, {r1, r2, r5, r6}^
     330:	2074726f 	rsbscs	r7, r4, pc, ror #4
     334:	00746e69 	rsbseq	r6, r4, r9, ror #28
     338:	72705f53 	rsbsvc	r5, r0, #332	; 0x14c
     33c:	6400746f 	strvs	r7, [r0], #-1135	; 0x46f
     340:	69616d6f 	stmdbvs	r1!, {r0, r1, r2, r3, r5, r6, r8, sl, fp, sp, lr}^
     344:	63615f6e 	cmnvs	r1, #440	; 0x1b8
     348:	72705f6c 	rsbsvc	r5, r0, #108, 30	; 0x1b0
     34c:	00746e69 	rsbseq	r6, r4, r9, ror #28
     350:	5f554d4d 	svcpl	0x00554d4d
     354:	62616e65 	rsbvs	r6, r1, #1616	; 0x650
     358:	0064656c 	rsbeq	r6, r4, ip, ror #10
     35c:	64616572 	strbtvs	r6, [r1], #-1394	; 0x572
     360:	6274745f 	rsbsvs	r7, r4, #1593835520	; 0x5f000000
     364:	72003072 	andvc	r3, r0, #114	; 0x72
     368:	5f646165 	svcpl	0x00646165
     36c:	72627474 	rsbvc	r7, r2, #116, 8	; 0x74000000
     370:	6c630031 	stclvs	0, cr0, [r3], #-196	; 0xffffff3c
     374:	5f6e6165 	svcpl	0x006e6165
     378:	6f626572 	svcvs	0x00626572
     37c:	5500746f 	strpl	r7, [r0, #-1135]	; 0x46f
     380:	616e755f 	cmnvs	lr, pc, asr r5
     384:	6e67696c 	cdpvs	9, 6, cr6, cr7, cr12, {3}
     388:	75006465 	strvc	r6, [r0, #-1125]	; 0x465
     38c:	33746e69 	cmncc	r4, #1680	; 0x690
     390:	00745f32 	rsbseq	r5, r4, r2, lsr pc
     394:	5f72756f 	svcpl	0x0072756f
     398:	5f756d6d 	svcpl	0x00756d6d
     39c:	61736964 	cmnvs	r3, r4, ror #18
     3a0:	00656c62 	rsbeq	r6, r5, r2, ror #24
     3a4:	705f5058 	subsvc	r5, pc, r8, asr r0	; <UNPREDICTABLE>
     3a8:	4e470074 	mcrmi	0, 2, r0, cr7, cr4, {3}
     3ac:	20432055 	subcs	r2, r3, r5, asr r0
     3b0:	2e382e34 	mrccs	14, 1, r2, cr8, cr4, {1}
     3b4:	6d2d2033 	stcvs	0, cr2, [sp, #-204]!	; 0xffffff34
     3b8:	3d757063 	ldclcc	0, cr7, [r5, #-396]!	; 0xfffffe74
     3bc:	316d7261 	cmncc	sp, r1, ror #4
     3c0:	6a363731 	bvs	d8e08c <__bss_end__+0xd81d04>
     3c4:	732d667a 	teqvc	sp, #127926272	; 0x7a00000
     3c8:	746d2d20 	strbtvc	r2, [sp], #-3360	; 0xd20
     3cc:	3d656e75 	stclcc	14, cr6, [r5, #-468]!	; 0xfffffe2c
     3d0:	316d7261 	cmncc	sp, r1, ror #4
     3d4:	6a363731 	bvs	d8e0a0 <__bss_end__+0xd81d18>
     3d8:	732d667a 	teqvc	sp, #127926272	; 0x7a00000
     3dc:	67672d20 	strbvs	r2, [r7, -r0, lsr #26]!
     3e0:	2d206264 	sfmcs	f6, 4, [r0, #-400]!	; 0xfffffe70
     3e4:	2d20674f 	stccs	7, cr6, [r0, #-316]!	; 0xfffffec4
     3e8:	3d647473 	cfstrdcc	mvd7, [r4, #-460]!	; 0xfffffe34
     3ec:	39756e67 	ldmdbcc	r5!, {r0, r1, r2, r5, r6, r9, sl, fp, sp, lr}^
     3f0:	662d2039 			; <UNDEFINED> instruction: 0x662d2039
     3f4:	65657266 	strbvs	r7, [r5, #-614]!	; 0x266
     3f8:	6e617473 	mcrvs	4, 3, r7, cr1, cr3, {3}
     3fc:	676e6964 	strbvs	r6, [lr, -r4, ror #18]!
     400:	6e6f6300 	cdpvs	3, 6, cr6, cr15, cr0, {0}
     404:	6c6f7274 	sfmvs	f7, 2, [pc], #-464	; 23c <_start-0x7dc4>
     408:	6765725f 			; <UNDEFINED> instruction: 0x6765725f
     40c:	62730031 	rsbsvs	r0, r3, #49	; 0x31
     410:	00315f7a 	eorseq	r5, r1, sl, ror pc
     414:	5f7a6273 	svcpl	0x007a6273
     418:	70630032 	rsbvc	r0, r3, r2, lsr r0
     41c:	635f3531 	cmpvs	pc, #205520896	; 0xc400000
     420:	5f6c7274 	svcpl	0x006c7274
     424:	31676572 	smccc	30290	; 0x7652
     428:	5f00745f 	svcpl	0x0000745f
     42c:	73756e75 	cmnvc	r5, #1872	; 0x750
     430:	00316465 	eorseq	r6, r1, r5, ror #8
     434:	736d656d 	cmnvc	sp, #457179136	; 0x1b400000
     438:	73007465 	movwvc	r7, #1125	; 0x465
     43c:	75746174 	ldrbvc	r6, [r4, #-372]!	; 0x174
     440:	45500073 	ldrbmi	r0, [r0, #-115]	; 0x73
     444:	53494d52 	movtpl	r4, #40274	; 0x9d52
     448:	4e4f4953 	mcrmi	9, 2, r4, cr15, cr3, {2}
     44c:	4345535f 	movtmi	r5, #21343	; 0x535f
     450:	4e4f4954 	mcrmi	9, 2, r4, cr15, cr4, {2}
     454:	61657200 	cmnvs	r5, r0, lsl #4
     458:	6f645f64 	svcvs	0x00645f64
     45c:	6e69616d 	powvsez	f6, f1, #5.0
     460:	6363615f 	cmnvs	r3, #-1073741801	; 0xc0000017
     464:	5f737365 	svcpl	0x00737365
     468:	6c727463 	cfldrdvs	mvd7, [r2], #-396	; 0xfffffe74
     46c:	6e697500 	cdpvs	5, 6, cr7, cr9, cr0, {0}
     470:	745f3874 	ldrbvc	r3, [pc], #-2164	; 478 <_start-0x7b88>
     474:	756d6d00 	strbvc	r6, [sp, #-3328]!	; 0xd00
     478:	736e695f 	cmnvc	lr, #1556480	; 0x17c000
     47c:	6c6c6174 	stfvse	f6, [ip], #-464	; 0xfffffe30
     480:	6e61685f 	mcrvs	8, 3, r6, cr1, cr15, {2}
     484:	72656c64 	rsbvc	r6, r5, #100, 24	; 0x6400
     488:	50410073 	subpl	r0, r1, r3, ror r0
     48c:	5f6f6e5f 	svcpl	0x006f6e5f
     490:	65636361 	strbvs	r6, [r3, #-865]!	; 0x361
     494:	64007373 	strvs	r7, [r0], #-883	; 0x373
     498:	69616d6f 	stmdbvs	r1!, {r0, r1, r2, r3, r5, r6, r8, sl, fp, sp, lr}^
     49c:	735f006e 	cmpvc	pc, #110	; 0x6e
     4a0:	00307a62 	eorseq	r7, r0, r2, ror #20
     4a4:	7a62735f 	bvc	189d228 <__bss_end__+0x1890ea0>
     4a8:	6d6d0031 	stclvs	0, cr0, [sp, #-196]!	; 0xffffff3c
     4ac:	616d5f75 	smcvs	54773	; 0xd5f5
     4b0:	65735f70 	ldrbvs	r5, [r3, #-3952]!	; 0xf70
     4b4:	6f697463 	svcvs	0x00697463
     4b8:	4c00736e 	stcmi	3, cr7, [r0], {110}	; 0x6e
     4bc:	6e655f32 	mcrvs	15, 3, r5, cr5, cr2, {1}
     4c0:	656c6261 	strbvs	r6, [ip, #-609]!	; 0x261
     4c4:	5f430064 	svcpl	0x00430064
     4c8:	66696e75 			; <UNDEFINED> instruction: 0x66696e75
     4cc:	5f646569 	svcpl	0x00646569
     4d0:	62616e65 	rsbvs	r6, r1, #1616	; 0x650
     4d4:	6f00656c 	svcvs	0x0000656c
     4d8:	6d5f7275 	lfmvs	f7, 2, [pc, #-468]	; 30c <_start-0x7cf4>
     4dc:	655f756d 	ldrbvs	r7, [pc, #-1389]	; ffffff77 <__bss_end__+0xffff3bef>
     4e0:	6c62616e 	stfvse	f6, [r2], #-440	; 0xfffffe48
     4e4:	74740065 	ldrbtvc	r0, [r4], #-101	; 0x65
     4e8:	5f307262 	svcpl	0x00307262
     4ec:	00746567 	rsbseq	r6, r4, r7, ror #10
     4f0:	4d656e4f 	stclmi	14, cr6, [r5, #-316]!	; 0xfffffec4
     4f4:	6d6d0042 	stclvs	0, cr0, [sp, #-264]!	; 0xfffffef8
     4f8:	616d5f75 	smcvs	54773	; 0xd5f5
     4fc:	735f6b72 	cmpvc	pc, #116736	; 0x1c800
     500:	6e5f6365 	cdpvs	3, 5, cr6, cr15, cr5, {3}
     504:	63615f6f 	cmnvs	r1, #444	; 0x1bc
     508:	73736563 	cmnvc	r3, #415236096	; 0x18c00000
     50c:	746e6900 	strbtvc	r6, [lr], #-2304	; 0x900
     510:	696e695f 	stmdbvs	lr!, {r0, r1, r2, r3, r4, r6, r8, fp, sp, lr}^
     514:	6c660074 	stclvs	0, cr0, [r6], #-464	; 0xfffffe30
     518:	68635f64 	stmdavs	r3!, {r2, r5, r6, r8, r9, sl, fp, ip, lr}^
     51c:	5f6b6365 	svcpl	0x006b6365
     520:	7366666f 	cmnvc	r6, #116391936	; 0x6f00000
     524:	00737465 	rsbseq	r7, r3, r5, ror #8
     528:	74736166 	ldrbtvc	r6, [r3], #-358	; 0x166
     52c:	7361685f 	cmnvc	r1, #6225920	; 0x5f0000
     530:	6f630068 	svcvs	0x00630068
     534:	6f72746e 	svcvs	0x0072746e
     538:	65725f6c 	ldrbvs	r5, [r2, #-3948]!	; 0xf6c
     53c:	735f3167 	cmpvc	pc, #-1073741799	; 0xc0000019
     540:	74696e61 	strbtvc	r6, [r9], #-3681	; 0xe61
     544:	68635f79 	stmdavs	r3!, {r0, r3, r4, r5, r6, r8, r9, sl, fp, ip, lr}^
     548:	006b6365 	rsbeq	r6, fp, r5, ror #6
     54c:	5f646c66 	svcpl	0x00646c66
     550:	63656863 	cmnvs	r5, #6488064	; 0x630000
     554:	61765f6b 	cmnvs	r6, fp, ror #30
     558:	0064696c 	rsbeq	r6, r4, ip, ror #18
     55c:	66696873 			; <UNDEFINED> instruction: 0x66696873
     560:	6c740074 	ldclvs	0, cr0, [r4], #-464	; 0xfffffe30
     564:	6f635f62 	svcvs	0x00635f62
     568:	6769666e 	strbvs	r6, [r9, -lr, ror #12]!
     56c:	74657300 	strbtvc	r7, [r5], #-768	; 0x300
     570:	6c6c615f 	stfvse	f6, [ip], #-380	; 0xfffffe84
     574:	646c6600 	strbtvs	r6, [ip], #-1536	; 0x600
     578:	006b6d5f 	rsbeq	r6, fp, pc, asr sp
     57c:	746e6f63 	strbtvc	r6, [lr], #-3939	; 0xf63
     580:	5f6c6f72 	svcpl	0x006c6f72
     584:	31676572 	smccc	30290	; 0x7652
     588:	6972705f 	ldmdbvs	r2!, {r0, r1, r2, r3, r4, r6, ip, sp, lr}^
     58c:	7400746e 	strvc	r7, [r0], #-1134	; 0x46e
     590:	635f626c 	cmpvs	pc, #108, 4	; 0xc0000006
     594:	69666e6f 	stmdbvs	r6!, {r0, r1, r2, r3, r5, r6, r9, sl, fp, sp, lr}^
     598:	68635f67 	stmdavs	r3!, {r0, r1, r2, r5, r6, r8, r9, sl, fp, ip, lr}^
     59c:	5f6b6365 	svcpl	0x006b6365
     5a0:	7366666f 	cmnvc	r6, #116391936	; 0x6f00000
     5a4:	00737465 	rsbseq	r7, r3, r5, ror #8
     5a8:	746e6f63 	strbtvc	r6, [lr], #-3939	; 0xf63
     5ac:	5f6c6f72 	svcpl	0x006c6f72
     5b0:	31676572 	smccc	30290	; 0x7652
     5b4:	6568635f 	strbvs	r6, [r8, #-863]!	; 0x35f
     5b8:	6f5f6b63 	svcvs	0x005f6b63
     5bc:	65736666 	ldrbvs	r6, [r3, #-1638]!	; 0x666
     5c0:	74007374 	strvc	r7, [r0], #-884	; 0x374
     5c4:	635f626c 	cmpvs	pc, #108, 4	; 0xc0000006
     5c8:	69666e6f 	stmdbvs	r6!, {r0, r1, r2, r3, r5, r6, r9, sl, fp, sp, lr}^
     5cc:	72705f67 	rsbsvc	r5, r0, #412	; 0x19c
     5d0:	00746e69 	rsbseq	r6, r4, r9, ror #28
     5d4:	682d6d76 	stmdavs	sp!, {r1, r2, r4, r5, r6, r8, sl, fp, sp, lr}
     5d8:	65706c65 	ldrbvs	r6, [r0, #-3173]!	; 0xc65
     5dc:	632e7372 	teqvs	lr, #-939524095	; 0xc8000001
     5e0:	696e7500 	stmdbvs	lr!, {r8, sl, ip, sp, lr}^
     5e4:	64656966 	strbtvs	r6, [r5], #-2406	; 0x966
     5e8:	6e00705f 	mcrvs	0, 0, r7, cr0, cr15, {2}
     5ec:	6c5f695f 	mrrcvs	9, 5, r6, pc, cr15	; <UNPREDICTABLE>
     5f0:	006b636f 	rsbeq	r6, fp, pc, ror #6
     5f4:	5f645f6e 	svcpl	0x00645f6e
     5f8:	6b636f6c 	blvs	18dc3b0 <__bss_end__+0x18d0028>
     5fc:	73645f00 	cmnvc	r4, #0, 30
     600:	61685f6f 	cmnvs	r8, pc, ror #30
     604:	656c646e 	strbvs	r6, [ip, #-1134]!	; 0x46e
     608:	69735f00 	ldmdbvs	r3!, {r8, r9, sl, fp, ip, lr}^
     60c:	5f00657a 	svcpl	0x0000657a
     610:	646e6172 	strbtvs	r6, [lr], #-370	; 0x172
     614:	5f003834 	svcpl	0x00003834
     618:	72656d65 	rsbvc	r6, r5, #6464	; 0x1940
     61c:	636e6567 	cmnvs	lr, #432013312	; 0x19c00000
     620:	775f0079 			; <UNDEFINED> instruction: 0x775f0079
     624:	6f747263 	svcvs	0x00747263
     628:	735f626d 	cmpvc	pc, #-805306362	; 0xd0000006
     62c:	65746174 	ldrbvs	r6, [r4, #-372]!	; 0x174
     630:	63775f00 	cmnvs	r7, #0, 30
     634:	6f747273 	svcvs	0x00747273
     638:	5f73626d 	svcpl	0x0073626d
     63c:	74617473 	strbtvc	r7, [r1], #-1139	; 0x473
     640:	6c5f0065 	mrrcvs	0, 6, r0, pc, cr5	; <UNPREDICTABLE>
     644:	69736662 	ldmdbvs	r3!, {r1, r5, r6, r9, sl, sp, lr}^
     648:	6f00657a 	svcvs	0x0000657a
     64c:	6d5f7275 	lfmvs	f7, 2, [pc, #-468]	; 480 <_start-0x7b80>
     650:	6d5f756d 	cfldr64vs	mvdx7, [pc, #-436]	; 4a4 <_start-0x7b5c>
     654:	5f6b7261 	svcpl	0x006b7261
     658:	5f636573 	svcpl	0x00636573
     65c:	705f7061 	subsvc	r7, pc, r1, rrx
     660:	006d7265 	rsbeq	r7, sp, r5, ror #4
     664:	6f6c5f5f 	svcvs	0x006c5f5f
     668:	656c6163 	strbvs	r6, [ip, #-355]!	; 0x163
     66c:	5f00745f 	svcpl	0x0000745f
     670:	7472626d 	ldrbtvc	r6, [r2], #-621	; 0x26d
     674:	5f63776f 	svcpl	0x0063776f
     678:	74617473 	strbtvc	r7, [r1], #-1139	; 0x473
     67c:	5f5f0065 	svcpl	0x005f0065
     680:	735f6d74 	cmpvc	pc, #116, 26	; 0x1d00
     684:	5f006365 	svcpl	0x00006365
     688:	66756275 			; <UNDEFINED> instruction: 0x66756275
     68c:	61625f00 	cmnvs	r2, r0, lsl #30
     690:	5f006573 	svcpl	0x00006573
     694:	5f6d745f 	svcpl	0x006d745f
     698:	72756f68 	rsbsvc	r6, r5, #104, 30	; 0x1a0
     69c:	735f5f00 	cmpvc	pc, #0, 30
     6a0:	6f5f0066 	svcvs	0x005f0066
     6a4:	78655f6e 	stmdavc	r5!, {r1, r2, r3, r5, r6, r8, r9, sl, fp, ip, lr}^
     6a8:	615f7469 	cmpvs	pc, r9, ror #8
     6ac:	00736772 	rsbseq	r6, r3, r2, ror r7
     6b0:	6f6f635f 	svcvs	0x006f635f
     6b4:	0065696b 	rsbeq	r6, r5, fp, ror #18
     6b8:	67735f5f 			; <UNDEFINED> instruction: 0x67735f5f
     6bc:	0065756c 	rsbeq	r7, r5, ip, ror #10
     6c0:	616c665f 	cmnvs	ip, pc, asr r6
     6c4:	5f007367 	svcpl	0x00007367
     6c8:	635f7369 	cmpvs	pc, #-1543503871	; 0xa4000001
     6cc:	5f006178 	svcpl	0x00006178
     6d0:	69647473 	stmdbvs	r4!, {r0, r1, r4, r5, r6, sl, ip, sp, lr}^
     6d4:	6c66006e 	stclvs	0, cr0, [r6], #-440	; 0xfffffe48
     6d8:	65735f64 	ldrbvs	r5, [r3, #-3940]!	; 0xf64
     6dc:	61625f74 	smcvs	9716	; 0x25f4
     6e0:	615f6573 	cmpvs	pc, r3, ror r5	; <UNPREDICTABLE>
     6e4:	00726464 	rsbseq	r6, r2, r4, ror #8
     6e8:	6b6c625f 	blvs	1b1906c <__bss_end__+0x1b0cce4>
     6ec:	657a6973 	ldrbvs	r6, [sl, #-2419]!	; 0x973
     6f0:	76635f00 	strbtvc	r5, [r3], -r0, lsl #30
     6f4:	66756274 			; <UNDEFINED> instruction: 0x66756274
     6f8:	626d5f00 	rsbvs	r5, sp, #0, 30
     6fc:	6f747273 	svcvs	0x00747273
     700:	5f736377 	svcpl	0x00736377
     704:	74617473 	strbtvc	r7, [r1], #-1139	; 0x473
     708:	6d5f0065 	ldclvs	0, cr0, [pc, #-404]	; 57c <_start-0x7a84>
     70c:	656c7262 	strbvs	r7, [ip, #-610]!	; 0x262
     710:	74735f6e 	ldrbtvc	r5, [r3], #-3950	; 0xf6e
     714:	00657461 	rsbeq	r7, r5, r1, ror #8
     718:	616e665f 	cmnvs	lr, pc, asr r6
     71c:	00736772 	rsbseq	r6, r3, r2, ror r7
     720:	736e665f 	cmnvc	lr, #99614720	; 0x5f00000
     724:	69735f00 	ldmdbvs	r3!, {r8, r9, sl, fp, ip, lr}^
     728:	6f006e67 	svcvs	0x00006e67
     72c:	6d5f7275 	lfmvs	f7, 2, [pc, #-468]	; 560 <_start-0x7aa0>
     730:	6d5f756d 	cfldr64vs	mvdx7, [pc, #-436]	; 584 <_start-0x7a7c>
     734:	735f7061 	cmpvc	pc, #97	; 0x61
     738:	69746365 	ldmdbvs	r4!, {r0, r2, r5, r6, r8, r9, sp, lr}^
     73c:	5f006e6f 	svcpl	0x00006e6f
     740:	636f6c66 	cmnvs	pc, #26112	; 0x6600
     744:	00745f6b 	rsbseq	r5, r4, fp, ror #30
     748:	6474735f 	ldrbtvs	r7, [r4], #-863	; 0x35f
     74c:	00727265 	rsbseq	r7, r2, r5, ror #4
     750:	6769425f 			; <UNDEFINED> instruction: 0x6769425f
     754:	00746e69 	rsbseq	r6, r4, r9, ror #28
     758:	6d61675f 	stclvs	7, cr6, [r1, #-380]!	; 0xfffffe84
     75c:	735f616d 	cmpvc	pc, #1073741851	; 0x4000001b
     760:	676e6769 	strbvs	r6, [lr, -r9, ror #14]!
     764:	5f006d61 	svcpl	0x00006d61
     768:	75736572 	ldrbvc	r6, [r3, #-1394]!	; 0x572
     76c:	6b5f746c 	blvs	17dd924 <__bss_end__+0x17d159c>
     770:	69707200 	ldmdbvs	r0!, {r9, ip, sp, lr}^
     774:	7475705f 	ldrbtvc	r7, [r5], #-95	; 0x5f
     778:	72616863 	rsbvc	r6, r1, #6488064	; 0x630000
     77c:	745f5f00 	ldrbvc	r5, [pc], #-3840	; 784 <_start-0x787c>
     780:	5f5f006d 	svcpl	0x005f006d
     784:	62686377 	rsbvs	r6, r8, #-603979775	; 0xdc000001
     788:	74735f00 	ldrbtvc	r5, [r3], #-3840	; 0xf00
     78c:	74756f64 	ldrbtvc	r6, [r5], #-3940	; 0xf64
     790:	76635f00 	strbtvc	r5, [r3], -r0, lsl #30
     794:	6e656c74 	mcrvs	12, 3, r6, cr5, cr4, {3}
     798:	69665f00 	stmdbvs	r6!, {r8, r9, sl, fp, ip, lr}^
     79c:	6f00656c 	svcvs	0x0000656c
     7a0:	762d7275 			; <UNDEFINED> instruction: 0x762d7275
     7a4:	00632e6d 	rsbeq	r2, r3, sp, ror #28
     7a8:	5f72756f 	svcpl	0x0072756f
     7ac:	5f756d6d 	svcpl	0x00756d6d
     7b0:	6b6f6f6c 	blvs	1bdc568 <__bss_end__+0x1bd01e0>
     7b4:	735f7075 	cmpvc	pc, #117	; 0x75
     7b8:	69746365 	ldmdbvs	r4!, {r0, r2, r5, r6, r8, r9, sp, lr}^
     7bc:	5f006e6f 	svcpl	0x00006e6f
     7c0:	626f696e 	rsbvs	r6, pc, #1802240	; 0x1b8000
     7c4:	615f0073 	cmpvs	pc, r3, ror r0	; <UNPREDICTABLE>
     7c8:	69786574 	ldmdbvs	r8!, {r2, r4, r5, r6, r8, sl, sp, lr}^
     7cc:	5f003074 	svcpl	0x00003074
     7d0:	6e676973 	mcrvs	9, 3, r6, cr7, cr3, {3}
     7d4:	625f6c61 	subsvs	r6, pc, #24832	; 0x6100
     7d8:	5f006675 	svcpl	0x00006675
     7dc:	74637361 	strbtvc	r7, [r3], #-865	; 0x361
     7e0:	5f656d69 	svcpl	0x00656d69
     7e4:	00667562 	rsbeq	r7, r6, r2, ror #10
     7e8:	5f72756f 	svcpl	0x0072756f
     7ec:	5f756d6d 	svcpl	0x00756d6d
     7f0:	74696e69 	strbtvc	r6, [r9], #-3689	; 0xe69
     7f4:	65725f00 	ldrbvs	r5, [r2, #-3840]!	; 0xf00
     7f8:	746c7573 	strbtvc	r7, [ip], #-1395	; 0x573
     7fc:	775f5f00 	ldrbvc	r5, [pc, -r0, lsl #30]
     800:	5f006863 	svcpl	0x00006863
     804:	4b434f4c 	blmi	10d453c <__bss_end__+0x10c81b4>
     808:	7700545f 	smlsdvc	r0, pc, r4, r5	; <UNPREDICTABLE>
     80c:	5f746e69 	svcpl	0x00746e69
     810:	665f0074 			; <UNDEFINED> instruction: 0x665f0074
     814:	7367616c 	cmnvc	r7, #108, 2
     818:	5f5f0032 	svcpl	0x005f0032
     81c:	795f6d74 	ldmdbvc	pc, {r2, r4, r5, r6, r8, sl, fp, sp, lr}^	; <UNPREDICTABLE>
     820:	00726165 	rsbseq	r6, r2, r5, ror #2
     824:	6d6f682f 	stclvs	8, cr6, [pc, #-188]!	; 770 <_start-0x7890>
     828:	6e652f65 	cdpvs	15, 6, cr2, cr5, cr5, {3}
     82c:	72656c67 	rsbvc	r6, r5, #26368	; 0x6700
     830:	616c632f 	cmnvs	ip, pc, lsr #6
     834:	632f7373 	teqvs	pc, #-872415231	; 0xcc000001
     838:	30343173 	eorscc	r3, r4, r3, ror r1
     83c:	30322d65 	eorscc	r2, r2, r5, ror #26
     840:	2f6e6977 	svccs	0x006e6977
     844:	7362616c 	cmnvc	r2, #108, 2
     848:	2d34312f 	ldfcss	f3, [r4, #-188]!	; 0xffffff44
     84c:	632f6d76 	teqvs	pc, #7552	; 0x1d80
     850:	0065646f 	rsbeq	r6, r5, pc, ror #8
     854:	78656e5f 	stmdavc	r5!, {r0, r1, r2, r3, r4, r6, r9, sl, fp, sp, lr}^
     858:	73006674 	movwvc	r6, #1652	; 0x674
     85c:	625f6365 	subsvs	r6, pc, #-1811939327	; 0x94000001
     860:	5f737469 	svcpl	0x00737469
     864:	796c6e6f 	stmdbvc	ip!, {r0, r1, r2, r3, r5, r6, r9, sl, fp, sp, lr}^
     868:	745f5f00 	ldrbvc	r5, [pc], #-3840	; 870 <_start-0x7790>
     86c:	6f6d5f6d 	svcvs	0x006d5f6d
     870:	615f006e 	cmpvs	pc, lr, rrx
     874:	69786574 	ldmdbvs	r8!, {r2, r4, r5, r6, r8, sl, sp, lr}^
     878:	4e470074 	mcrmi	0, 2, r0, cr7, cr4, {3}
     87c:	39432055 	stmdbcc	r3, {r0, r2, r4, r6, sp}^
     880:	2e372039 	mrccs	0, 1, r2, cr7, cr9, {1}
     884:	20312e33 	eorscs	r2, r1, r3, lsr lr
     888:	38313032 	ldmdacc	r1!, {r1, r4, r5, ip, sp}
     88c:	32323630 	eorscc	r3, r2, #48, 12	; 0x3000000
     890:	65722820 	ldrbvs	r2, [r2, #-2080]!	; 0x820
     894:	7361656c 	cmnvc	r1, #108, 10	; 0x1b000000
     898:	5b202965 	blpl	80ae34 <__bss_end__+0x7feaac>
     89c:	2f4d5241 	svccs	0x004d5241
     8a0:	65626d65 	strbvs	r6, [r2, #-3429]!	; 0xd65
     8a4:	64656464 	strbtvs	r6, [r5], #-1124	; 0x464
     8a8:	622d372d 	eorvs	r3, sp, #11796480	; 0xb40000
     8ac:	636e6172 	cmnvs	lr, #-2147483620	; 0x8000001c
     8b0:	65722068 	ldrbvs	r2, [r2, #-104]!	; 0x68
     8b4:	69736976 	ldmdbvs	r3!, {r1, r2, r4, r5, r6, r8, fp, sp, lr}^
     8b8:	32206e6f 	eorcc	r6, r0, #1776	; 0x6f0
     8bc:	30393136 	eorscc	r3, r9, r6, lsr r1
     8c0:	2d205d37 	stccs	13, cr5, [r0, #-220]!	; 0xffffff24
     8c4:	7570636d 	ldrbvc	r6, [r0, #-877]!	; 0x36d
     8c8:	6d72613d 	ldfvse	f6, [r2, #-244]!	; 0xffffff0c
     8cc:	36373131 			; <UNDEFINED> instruction: 0x36373131
     8d0:	2d667a6a 	vstmdbcs	r6!, {s15-s120}
     8d4:	6d2d2073 	stcvs	0, cr2, [sp, #-460]!	; 0xfffffe34
     8d8:	656e7574 	strbvs	r7, [lr, #-1396]!	; 0x574
     8dc:	6d72613d 	ldfvse	f6, [r2, #-244]!	; 0xffffff0c
     8e0:	36373131 			; <UNDEFINED> instruction: 0x36373131
     8e4:	2d667a6a 	vstmdbcs	r6!, {s15-s120}
     8e8:	672d2073 			; <UNDEFINED> instruction: 0x672d2073
     8ec:	20626467 	rsbcs	r6, r2, r7, ror #8
     8f0:	20674f2d 	rsbcs	r4, r7, sp, lsr #30
     8f4:	6474732d 	ldrbtvs	r7, [r4], #-813	; 0x32d
     8f8:	756e673d 	strbvc	r6, [lr, #-1853]!	; 0x73d
     8fc:	2d203939 	stccs	9, cr3, [r0, #-228]!	; 0xffffff1c
     900:	65726666 	ldrbvs	r6, [r2, #-1638]!	; 0x666
     904:	61747365 	cmnvs	r4, r5, ror #6
     908:	6e69646e 	cdpvs	4, 6, cr6, cr9, cr14, {3}
     90c:	5f5f0067 	svcpl	0x005f0067
     910:	64696473 	strbtvs	r6, [r9], #-1139	; 0x473
     914:	74696e69 	strbtvc	r6, [r9], #-3689	; 0xe69
     918:	666f5f00 	strbtvs	r5, [pc], -r0, lsl #30
     91c:	00745f66 	rsbseq	r5, r4, r6, ror #30
     920:	6572665f 	ldrbvs	r6, [r2, #-1631]!	; 0x65f
     924:	73696c65 	cmnvc	r9, #25856	; 0x6500
     928:	775f0074 			; <UNDEFINED> instruction: 0x775f0074
     92c:	6d6f7463 	cfstrdvs	mvd7, [pc, #-396]!	; 7a8 <_start-0x7858>
     930:	74735f62 	ldrbtvc	r5, [r3], #-3938	; 0xf62
     934:	00657461 	rsbeq	r7, r5, r1, ror #8
     938:	655f685f 	ldrbvs	r6, [pc, #-2143]	; e1 <_start-0x7f1f>
     93c:	6f6e7272 	svcvs	0x006e7272
     940:	745f5f00 	ldrbvc	r5, [pc], #-3840	; 948 <_start-0x76b8>
     944:	64795f6d 	ldrbtvs	r5, [r9], #-3949	; 0xf6d
     948:	5f007961 	svcpl	0x00007961
     94c:	7562735f 	strbvc	r7, [r2, #-863]!	; 0x35f
     950:	695f0066 	ldmdbvs	pc, {r1, r2, r5, r6}^	; <UNPREDICTABLE>
     954:	0073626f 	rsbseq	r6, r3, pc, ror #4
     958:	49465f5f 	stmdbmi	r6, {r0, r1, r2, r3, r4, r6, r8, r9, sl, fp, ip, lr}^
     95c:	5f00454c 	svcpl	0x0000454c
     960:	7473626d 	ldrbtvc	r6, [r3], #-621	; 0x26d
     964:	5f657461 	svcpl	0x00657461
     968:	5f5f0074 	svcpl	0x005f0074
     96c:	4c494673 	mcrrmi	6, 7, r4, r9, cr3
     970:	6d5f0045 	ldclvs	0, cr0, [pc, #-276]	; 864 <_start-0x779c>
     974:	61747362 	cmnvs	r4, r2, ror #6
     978:	5f006574 	svcpl	0x00006574
     97c:	646e6172 	strbtvs	r6, [lr], #-370	; 0x172
     980:	78656e5f 	stmdavc	r5!, {r0, r1, r2, r3, r4, r6, r9, sl, fp, sp, lr}^
     984:	6d5f0074 	ldclvs	0, cr0, [pc, #-464]	; 7bc <_start-0x7844>
     988:	6e656c62 	cdpvs	12, 6, cr6, cr5, cr2, {3}
     98c:	6174735f 	cmnvs	r4, pc, asr r3
     990:	5f006574 	svcpl	0x00006574
     994:	00636e69 	rsbeq	r6, r3, r9, ror #28
     998:	646e695f 	strbtvs	r6, [lr], #-2399	; 0x95f
     99c:	6f6c5f00 	svcvs	0x006c5f00
     9a0:	656c6163 	strbvs	r6, [ip, #-355]!	; 0x163
     9a4:	635f5f00 	cmpvs	pc, #0, 30
     9a8:	6e61656c 	cdpvs	5, 6, cr6, cr1, cr12, {3}
     9ac:	5f007075 	svcpl	0x00007075
     9b0:	70736e75 	rsbsvc	r6, r3, r5, ror lr
     9b4:	66696365 	strbtvs	r6, [r9], -r5, ror #6
     9b8:	5f646569 	svcpl	0x00646569
     9bc:	61636f6c 	cmnvs	r3, ip, ror #30
     9c0:	695f656c 	ldmdbvs	pc, {r2, r3, r5, r6, r8, sl, sp, lr}^	; <UNPREDICTABLE>
     9c4:	006f666e 	rsbeq	r6, pc, lr, ror #12
     9c8:	78616d5f 	stmdavc	r1!, {r0, r1, r2, r3, r4, r6, r8, sl, fp, sp, lr}^
     9cc:	00736477 	rsbseq	r6, r3, r7, ror r4
     9d0:	6565725f 	strbvs	r7, [r5, #-607]!	; 0x25f
     9d4:	5f00746e 	svcpl	0x0000746e
     9d8:	64656573 	strbtvs	r6, [r5], #-1395	; 0x573
     9dc:	635f5f00 	cmpvs	pc, #0, 30
     9e0:	746e756f 	strbtvc	r7, [lr], #-1391	; 0x56f
     9e4:	6c5f5f00 	mrrcvs	15, 0, r5, pc, cr0	; <UNPREDICTABLE>
     9e8:	006b636f 	rsbeq	r6, fp, pc, ror #6
     9ec:	61765f5f 	cmnvs	r6, pc, asr pc
     9f0:	0065756c 	rsbeq	r7, r5, ip, ror #10
     9f4:	6565735f 	strbvs	r7, [r5, #-863]!	; 0x35f
     9f8:	665f006b 	ldrbvs	r0, [pc], -fp, rrx
     9fc:	5f736f70 	svcpl	0x00736f70
     a00:	5f5f0074 	svcpl	0x005f0074
     a04:	6d5f6d74 	ldclvs	13, cr6, [pc, #-464]	; 83c <_start-0x77c4>
     a08:	69006e69 	stmdbvs	r0, {r0, r3, r5, r6, r9, sl, fp, sp, lr}
     a0c:	7865646e 	stmdavc	r5!, {r1, r2, r3, r5, r6, sl, sp, lr}^
     a10:	756d5f00 	strbvc	r5, [sp, #-3840]!	; 0xf00
     a14:	5f00746c 	svcpl	0x0000746c
     a18:	74727473 	ldrbtvc	r7, [r2], #-1139	; 0x473
     a1c:	6c5f6b6f 	mrrcvs	11, 6, r6, pc, cr15	; <UNPREDICTABLE>
     a20:	00747361 	rsbseq	r7, r4, r1, ror #6
     a24:	746e665f 	strbtvc	r6, [lr], #-1631	; 0x65f
     a28:	73657079 	cmnvc	r5, #121	; 0x79
     a2c:	64615f00 	strbtvs	r5, [r1], #-3840	; 0xf00
     a30:	5f5f0064 	svcpl	0x005f0064
     a34:	6e6f4c55 	mcrvs	12, 3, r4, cr15, cr5, {2}
     a38:	675f0067 	ldrbvs	r0, [pc, -r7, rrx]
     a3c:	61647465 	cmnvs	r4, r5, ror #8
     a40:	655f6574 	ldrbvs	r6, [pc, #-1396]	; 4d4 <_start-0x7b2c>
     a44:	5f007272 	svcpl	0x00007272
     a48:	626f6c67 	rsbvs	r6, pc, #26368	; 0x6700
     a4c:	695f6c61 	ldmdbvs	pc, {r0, r5, r6, sl, fp, sp, lr}^	; <UNPREDICTABLE>
     a50:	7275706d 	rsbsvc	r7, r5, #109	; 0x6d
     a54:	74705f65 	ldrbtvc	r5, [r0], #-3941	; 0xf65
     a58:	755f0072 	ldrbvc	r0, [pc, #-114]	; 9ee <_start-0x7612>
     a5c:	6573756e 	ldrbvs	r7, [r3, #-1390]!	; 0x56e
     a60:	61725f64 	cmnvs	r2, r4, ror #30
     a64:	5f00646e 	svcpl	0x0000646e
     a68:	00736477 	rsbseq	r6, r3, r7, ror r4
     a6c:	6d745f5f 	ldclvs	15, cr5, [r4, #-380]!	; 0xfffffe84
     a70:	6164775f 	cmnvs	r4, pc, asr r7
     a74:	675f0079 			; <UNDEFINED> instruction: 0x675f0079
     a78:	0065756c 	rsbeq	r7, r5, ip, ror #10
     a7c:	616d6e5f 	cmnvs	sp, pc, asr lr
     a80:	636f6c6c 	cmnvs	pc, #108, 24	; 0x6c00
     a84:	366c5f00 	strbtcc	r5, [ip], -r0, lsl #30
     a88:	625f6134 	subsvs	r6, pc, #52, 2
     a8c:	5f006675 	svcpl	0x00006675
     a90:	5f676973 	svcpl	0x00676973
     a94:	636e7566 	cmnvs	lr, #427819008	; 0x19800000
     a98:	626e5f00 	rsbvs	r5, lr, #0, 30
     a9c:	5f006675 	svcpl	0x00006675
     aa0:	73756e75 	cmnvc	r5, #1872	; 0x750
     aa4:	5f006465 	svcpl	0x00006465
     aa8:	5f6d745f 	svcpl	0x006d745f
     aac:	73647369 	cmnvc	r4, #-1543503871	; 0xa4000001
     ab0:	6c5f0074 	mrrcvs	0, 7, r0, pc, cr4	; <UNPREDICTABLE>
     ab4:	6c61636f 	stclvs	3, cr6, [r1], #-444	; 0xfffffe44
     ab8:	656d6974 	strbvs	r6, [sp, #-2420]!	; 0x974
     abc:	6675625f 			; <UNDEFINED> instruction: 0x6675625f
     ac0:	6c635f00 	stclvs	15, cr5, [r3], #-0
     ac4:	0065736f 	rsbeq	r7, r5, pc, ror #6
     ac8:	3834725f 	ldmdacc	r4!, {r0, r1, r2, r3, r4, r6, r9, ip, sp, lr}
     acc:	626d5f00 	rsbvs	r5, sp, #0, 30
     ad0:	63776f74 	cmnvs	r7, #116, 30	; 0x1d0
     ad4:	6174735f 	cmnvs	r4, pc, asr r3
     ad8:	5f006574 	svcpl	0x00006574
     adc:	00733570 	rsbseq	r3, r3, r0, ror r5
     ae0:	6d745f5f 	ldclvs	15, cr5, [r4, #-380]!	; 0xfffffe84
     ae4:	61646d5f 	cmnvs	r4, pc, asr sp
     ae8:	696c0079 	stmdbvs	ip!, {r0, r3, r4, r5, r6}^
     aec:	682f6362 	stmdavs	pc!, {r1, r5, r6, r8, r9, sp, lr}	; <UNPREDICTABLE>
     af0:	2e687361 	cdpcs	3, 6, cr7, cr8, cr1, {3}
     af4:	552f0063 	strpl	r0, [pc, #-99]!	; a99 <_start-0x7567>
     af8:	73726573 	cmnvc	r2, #482344960	; 0x1cc00000
     afc:	6972622f 	ldmdbvs	r2!, {r0, r1, r2, r3, r5, r9, sp, lr}^
     b00:	756a6e61 	strbvc	r6, [sl, #-3681]!	; 0xe61
     b04:	65442f6e 	strbvs	r2, [r4, #-3950]	; 0xf6e
     b08:	6f746b73 	svcvs	0x00746b73
     b0c:	63732f70 	cmnvs	r3, #112, 30	; 0x1c0
     b10:	6c6f6f68 	stclvs	15, cr6, [pc], #-416	; 978 <_start-0x7688>
     b14:	6e69572f 	cdpvs	7, 6, cr5, cr9, cr15, {1}
     b18:	31726574 	cmncc	r2, r4, ror r5
     b1c:	2f303239 	svccs	0x00303239
     b20:	34315343 	ldrtcc	r5, [r1], #-835	; 0x343
     b24:	632f4530 	teqvs	pc, #48, 10	; 0xc000000
     b28:	30343173 	eorscc	r3, r4, r3, ror r1
     b2c:	30322d65 	eorscc	r2, r2, r5, ror #26
     b30:	2f6e6977 	svccs	0x006e6977
     b34:	7062696c 	rsbvc	r6, r2, ip, ror #18
     b38:	696c0069 	stmdbvs	ip!, {r0, r3, r5, r6}^
     b3c:	6d2f6362 	stcvs	3, cr6, [pc, #-392]!	; 9bc <_start-0x7644>
     b40:	65736d65 	ldrbvs	r6, [r3, #-3429]!	; 0xd65
     b44:	00632e74 	rsbeq	r2, r3, r4, ror lr
     b48:	6e675f5f 	mcrvs	15, 3, r5, cr7, cr15, {2}
     b4c:	765f6375 			; <UNDEFINED> instruction: 0x765f6375
     b50:	696c5f61 	stmdbvs	ip!, {r0, r5, r6, r8, r9, sl, fp, ip, lr}^
     b54:	6c007473 	cfstrsvs	mvf7, [r0], {115}	; 0x73
     b58:	2f636269 	svccs	0x00636269
     b5c:	6e697270 	mcrvs	2, 3, r7, cr9, cr0, {3}
     b60:	632e6b74 	teqvs	lr, #116, 22	; 0x1d000
     b64:	5f617600 	svcpl	0x00617600
     b68:	6e697270 	mcrvs	2, 3, r7, cr9, cr0, {3}
     b6c:	5f006b74 	svcpl	0x00006b74
     b70:	5f61765f 	svcpl	0x0061765f
     b74:	7473696c 	ldrbtvc	r6, [r3], #-2412	; 0x96c
     b78:	615f5f00 	cmpvs	pc, r0, lsl #30
     b7c:	6e690070 	mcrvs	0, 3, r0, cr9, cr0, {3}
     b80:	6e726574 	mrcvs	5, 3, r6, cr2, cr4, {3}
     b84:	705f6c61 	subsvc	r6, pc, r1, ror #24
     b88:	68637475 	stmdavs	r3!, {r0, r2, r4, r5, r6, sl, ip, sp, lr}^
     b8c:	6c007261 	sfmvs	f7, 4, [r0], {97}	; 0x61
     b90:	2f636269 	svccs	0x00636269
     b94:	63747570 	cmnvs	r4, #112, 10	; 0x1c000000
     b98:	2e726168 	rpwcssz	f6, f2, #0.0
     b9c:	70720063 	rsbsvc	r0, r2, r3, rrx
     ba0:	65735f69 	ldrbvs	r5, [r3, #-3945]!	; 0xf69
     ba4:	75705f74 	ldrbvc	r5, [r0, #-3956]!	; 0xf74
     ba8:	6c006374 	stcvs	3, cr6, [r0], {116}	; 0x74
     bac:	2f636269 	svccs	0x00636269
     bb0:	6b747570 	blvs	1d1e178 <__bss_end__+0x1d11df0>
     bb4:	6900632e 	stmdbvs	r0, {r1, r2, r3, r5, r8, r9, sp, lr}
     bb8:	7265746e 	rsbvc	r7, r5, #1845493760	; 0x6e000000
     bbc:	5f6c616e 	svcpl	0x006c616e
     bc0:	6b747570 	blvs	1d1e188 <__bss_end__+0x1d11e00>
     bc4:	67656e00 	strbvs	r6, [r5, -r0, lsl #28]!
     bc8:	7200705f 	andvc	r7, r0, #95	; 0x5f
     bcc:	72657665 	rsbvc	r7, r5, #105906176	; 0x6500000
     bd0:	69006573 	stmdbvs	r0, {r0, r1, r4, r5, r6, r8, sl, sp, lr}
     bd4:	67696473 			; <UNDEFINED> instruction: 0x67696473
     bd8:	70007469 	andvc	r7, r0, r9, ror #8
     bdc:	5f737475 	svcpl	0x00737475
     be0:	73007066 	movwvc	r7, #102	; 0x66
     be4:	656e6769 	strbvs	r6, [lr, #-1897]!	; 0x769
     be8:	00705f64 	rsbseq	r5, r0, r4, ror #30
     bec:	6362696c 	cmnvs	r2, #108, 18	; 0x1b0000
     bf0:	2d61762f 	stclcs	6, cr7, [r1, #-188]!	; 0xffffff44
     bf4:	6e697270 	mcrvs	2, 3, r7, cr9, cr0, {3}
     bf8:	632e6b74 	teqvs	lr, #116, 22	; 0x1d000
     bfc:	69707200 	ldmdbvs	r0!, {r9, ip, sp, lr}^
     c00:	7465735f 	strbtvc	r7, [r5], #-863	; 0x35f
     c04:	74756f5f 	ldrbtvc	r6, [r5], #-3935	; 0xf5f
     c08:	00747570 	rsbseq	r7, r4, r0, ror r5
     c0c:	74646977 	strbtvc	r6, [r4], #-2423	; 0x977
     c10:	75700068 	ldrbvc	r0, [r0, #-104]!	; 0x68
     c14:	665f6374 			; <UNDEFINED> instruction: 0x665f6374
     c18:	6d650070 	stclvs	0, cr0, [r5, #-448]!	; 0xfffffe40
     c1c:	72007469 	andvc	r7, r0, #1761607680	; 0x69000000
     c20:	725f6970 	subsvc	r6, pc, #112, 18	; 0x1c0000
     c24:	6f6f6265 	svcvs	0x006f6265
     c28:	73630074 	cmnvc	r3, #116	; 0x74
     c2c:	65303431 	ldrvs	r3, [r0, #-1073]!	; 0x431
     c30:	6372732d 	cmnvs	r2, #-1275068416	; 0xb4000000
     c34:	656c632f 	strbvs	r6, [ip, #-815]!	; 0x32f
     c38:	722d6e61 	eorvc	r6, sp, #1552	; 0x610
     c3c:	6f6f6265 	svcvs	0x006f6265
     c40:	00632e74 	rsbeq	r2, r3, r4, ror lr
     c44:	616c6564 	cmnvs	ip, r4, ror #10
     c48:	736d5f79 	cmnvc	sp, #484	; 0x1e4
     c4c:	746e6900 	strbtvc	r6, [lr], #-2304	; 0x900
     c50:	616e7265 	cmnvs	lr, r5, ror #4
     c54:	77735f6c 	ldrbvc	r5, [r3, -ip, ror #30]!
     c58:	7475705f 	ldrbtvc	r7, [r5], #-95	; 0x5f
     c5c:	72616863 	rsbvc	r6, r1, #6488064	; 0x630000
     c60:	625f5f00 	subsvs	r5, pc, #0, 30
     c64:	735f7373 	cmpvc	pc, #-872415231	; 0xcc000001
     c68:	74726174 	ldrbtvc	r6, [r2], #-372	; 0x174
     c6c:	62005f5f 	andvs	r5, r0, #380	; 0x17c
     c70:	655f7373 	ldrbvs	r7, [pc, #-883]	; 905 <_start-0x76fb>
     c74:	6300646e 	movwvs	r6, #1134	; 0x46e
     c78:	656c6379 	strbvs	r6, [ip, #-889]!	; 0x379
     c7c:	7265705f 	rsbvc	r7, r5, #95	; 0x5f
     c80:	7469625f 	strbtvc	r6, [r9], #-607	; 0x25f
     c84:	6e6f6300 	cdpvs	3, 6, cr6, cr15, cr0, {0}
     c88:	656c6f73 	strbvs	r6, [ip, #-3955]!	; 0xf73
     c8c:	7261755f 	rsbvc	r7, r1, #398458880	; 0x17c00000
     c90:	77730074 			; <UNDEFINED> instruction: 0x77730074
     c94:	7261755f 	rsbvc	r7, r1, #398458880	; 0x17c00000
     c98:	72705f74 	rsbsvc	r5, r0, #116, 30	; 0x1d0
     c9c:	6b746e69 	blvs	1d1c648 <__bss_end__+0x1d102c0>
     ca0:	54555000 	ldrbpl	r5, [r5], #-0
     ca4:	53455f43 	movtpl	r5, #24387	; 0x5f43
     ca8:	41555f50 	cmpmi	r5, r0, asr pc
     cac:	73005452 	movwvc	r5, #1106	; 0x452
     cb0:	61755f77 	cmnvs	r5, r7, ror pc
     cb4:	745f7472 	ldrbvc	r7, [pc], #-1138	; cbc <_start-0x7344>
     cb8:	54555000 	ldrbpl	r5, [r5], #-0
     cbc:	57535f43 	ldrbpl	r5, [r3, -r3, asr #30]
     cc0:	5241555f 	subpl	r5, r1, #398458880	; 0x17c00000
     cc4:	61620054 	qdsubvs	r0, r4, r2
     cc8:	50006475 	andpl	r6, r0, r5, ror r4
     ccc:	5f435455 	svcpl	0x00435455
     cd0:	555f5748 	ldrbpl	r5, [pc, #-1864]	; 590 <_start-0x7a70>
     cd4:	00545241 	subseq	r5, r4, r1, asr #4
     cd8:	7473635f 	ldrbtvc	r6, [r3], #-863	; 0x35f
     cdc:	00747261 	rsbseq	r7, r4, r1, ror #4
     ce0:	74726175 	ldrbtvc	r6, [r2], #-373	; 0x175
     ce4:	7665645f 			; <UNDEFINED> instruction: 0x7665645f
     ce8:	7300745f 	movwvc	r7, #1119	; 0x45f
     cec:	61755f77 	cmnvs	r5, r7, ror pc
     cf0:	705f7472 	subsvc	r7, pc, r2, ror r4	; <UNPREDICTABLE>
     cf4:	00637475 	rsbeq	r7, r3, r5, ror r4
     cf8:	746e6f63 	strbtvc	r6, [lr], #-3939	; 0xf63
     cfc:	5f6c6f72 	svcpl	0x006c6f72
     d00:	5f6b6c62 	svcpl	0x006b6c62
     d04:	77730074 			; <UNDEFINED> instruction: 0x77730074
     d08:	7261755f 	rsbvc	r7, r1, #398458880	; 0x17c00000
     d0c:	62630074 	rsbvs	r0, r3, #116	; 0x74
     d10:	7465675f 	strbtvc	r6, [r5], #-1887	; 0x75f
     d14:	6f6c625f 	svcvs	0x006c625f
     d18:	5f006b63 	svcpl	0x00006b63
     d1c:	7373625f 	cmnvc	r3, #-268435451	; 0xf0000005
     d20:	646e655f 	strbtvs	r6, [lr], #-1375	; 0x55f
     d24:	63005f5f 	movwvs	r5, #3935	; 0xf5f
     d28:	30343173 	eorscc	r3, r4, r3, ror r1
     d2c:	72732d65 	rsbsvc	r2, r3, #6464	; 0x1940
     d30:	73632f63 	cmnvc	r3, #396	; 0x18c
     d34:	74726174 	ldrbtvc	r6, [r2], #-372	; 0x174
     d38:	6300632e 	movwvs	r6, #814	; 0x32e
     d3c:	6f736e6f 	svcvs	0x00736e6f
     d40:	645f656c 	ldrbvs	r6, [pc], #-1388	; d48 <_start-0x72b8>
     d44:	6d007665 	stcvs	6, cr7, [r0, #-404]	; 0xfffffe6c
     d48:	63696761 	cmnvs	r9, #25427968	; 0x1840000
     d4c:	5f746100 	svcpl	0x00746100
     d50:	72657375 	rsbvc	r7, r5, #-738197503	; 0xd4000001
     d54:	76656c5f 			; <UNDEFINED> instruction: 0x76656c5f
     d58:	50006c65 	andpl	r6, r0, r5, ror #24
     d5c:	41505f4d 	cmpmi	r0, sp, asr #30
     d60:	4f575353 	svcmi	0x00575353
     d64:	63004452 	movwvs	r4, #1106	; 0x452
     d68:	30343173 	eorscc	r3, r4, r3, ror r1
     d6c:	72732d65 	rsbsvc	r2, r3, #6464	; 0x1940
     d70:	65722f63 	ldrbvs	r2, [r2, #-3939]!	; 0xf63
     d74:	746f6f62 	strbtvc	r6, [pc], #-3938	; d7c <_start-0x7284>
     d78:	5000632e 	andpl	r6, r0, lr, lsr #6
     d7c:	53525f4d 	cmppl	r2, #308	; 0x134
     d80:	575f4354 			; <UNDEFINED> instruction: 0x575f4354
     d84:	47464352 	smlsldmi	r4, r6, r2, r3
     d88:	4c55465f 	mrrcmi	6, 5, r4, r5, cr15
     d8c:	45525f4c 	ldrbmi	r5, [r2, #-3916]	; 0xf4c
     d90:	00544553 	subseq	r4, r4, r3, asr r5
     d94:	575f4d50 			; <UNDEFINED> instruction: 0x575f4d50
     d98:	00474f44 	subeq	r4, r7, r4, asr #30
     d9c:	5f746573 	svcpl	0x00746573
     da0:	72657375 	rsbvc	r7, r5, #-738197503	; 0xd4000001
     da4:	76656c5f 			; <UNDEFINED> instruction: 0x76656c5f
     da8:	50006c65 	andpl	r6, r0, r5, ror #24
     dac:	32335455 	eorscc	r5, r3, #1426063360	; 0x55000000
     db0:	5f4d5000 	svcpl	0x004d5000
     db4:	43545352 	cmpmi	r4, #1207959553	; 0x48000001
     db8:	73706300 	cmnvc	r0, #0, 6
     dbc:	69740072 	ldmdbvs	r4!, {r1, r4, r5, r6}^
     dc0:	5f72656d 	svcpl	0x0072656d
     dc4:	5f746567 	svcpl	0x00746567
     dc8:	63657375 	cmnvs	r5, #-738197503	; 0xd4000001
     dcc:	7761725f 			; <UNDEFINED> instruction: 0x7761725f
     dd0:	6c656400 	cfstrdvs	mvd6, [r5], #-0
     dd4:	735f7961 	cmpvc	pc, #1589248	; 0x184000
     dd8:	63006365 	movwvs	r6, #869	; 0x365
     ddc:	30343173 	eorscc	r3, r4, r3, ror r1
     de0:	72732d65 	rsbsvc	r2, r3, #6464	; 0x1940
     de4:	69742f63 	ldmdbvs	r4!, {r0, r1, r5, r6, r8, r9, sl, fp, sp}^
     de8:	2e72656d 	cdpcs	5, 7, cr6, cr2, cr13, {3}
     dec:	45470063 	strbmi	r0, [r7, #-99]	; 0x63
     df0:	00323354 	eorseq	r3, r2, r4, asr r3
     df4:	6b636974 	blvs	18db3cc <__bss_end__+0x18cf044>
     df8:	65640073 	strbvs	r0, [r4, #-115]!	; 0x73
     dfc:	5f79616c 	svcpl	0x0079616c
     e00:	6c637963 	stclvs	9, cr7, [r3], #-396	; 0xfffffe74
     e04:	64007365 	strvs	r7, [r0], #-869	; 0x365
     e08:	79616c65 	stmdbvc	r1!, {r0, r2, r5, r6, sl, fp, sp, lr}^
     e0c:	0073755f 	rsbseq	r7, r3, pc, asr r5
     e10:	656d6974 	strbvs	r6, [sp, #-2420]!	; 0x974
     e14:	65675f72 	strbvs	r5, [r7, #-3954]!	; 0xf72
     e18:	73755f74 	cmnvc	r5, #116, 30	; 0x1d0
     e1c:	63006365 	movwvs	r6, #869	; 0x365
     e20:	705f6379 	subsvc	r6, pc, r9, ror r3	; <UNPREDICTABLE>
     e24:	625f7265 	subsvs	r7, pc, #1342177286	; 0x50000006
     e28:	77007469 	strvc	r7, [r0, -r9, ror #8]
     e2c:	65746972 	ldrbvs	r6, [r4, #-2418]!	; 0x972
     e30:	6379635f 	cmnvs	r9, #2080374785	; 0x7c000001
     e34:	746e755f 	strbtvc	r7, [lr], #-1375	; 0x55f
     e38:	73006c69 	movwvc	r6, #3177	; 0xc69
     e3c:	61755f77 	cmnvs	r5, r7, ror pc
     e40:	675f7472 			; <UNDEFINED> instruction: 0x675f7472
     e44:	5f637465 	svcpl	0x00637465
     e48:	656d6974 	strbvs	r6, [sp, #-2420]!	; 0x974
     e4c:	0074756f 	rsbseq	r7, r4, pc, ror #10
     e50:	755f7773 	ldrbvc	r7, [pc, #-1907]	; 6e5 <_start-0x791b>
     e54:	5f747261 	svcpl	0x00747261
     e58:	73746567 	cmnvc	r4, #432013312	; 0x19c00000
     e5c:	746e755f 	strbtvc	r7, [lr], #-1375	; 0x55f
     e60:	73006c69 	movwvc	r6, #3177	; 0xc69
     e64:	61755f77 	cmnvs	r5, r7, ror pc
     e68:	675f7472 			; <UNDEFINED> instruction: 0x675f7472
     e6c:	00637465 	rsbeq	r7, r3, r5, ror #8
     e70:	69726564 	ldmdbvs	r2!, {r2, r5, r6, r8, sl, sp, lr}^
     e74:	00646576 	rsbeq	r6, r4, r6, ror r5
     e78:	616c6564 	cmnvs	ip, r4, ror #10
     e7c:	636e5f79 	cmnvs	lr, #484	; 0x1e4
     e80:	656c6379 	strbvs	r6, [ip, #-889]!	; 0x379
     e84:	77730073 			; <UNDEFINED> instruction: 0x77730073
     e88:	7261755f 	rsbvc	r7, r1, #398458880	; 0x17c00000
     e8c:	6e695f74 	mcrvs	15, 3, r5, cr9, cr4, {3}
     e90:	685f7469 	ldmdavs	pc, {r0, r3, r5, r6, sl, ip, sp, lr}^	; <UNPREDICTABLE>
     e94:	65706c65 	ldrbvs	r6, [r0, #-3173]!	; 0xc65
     e98:	69740072 	ldmdbvs	r4!, {r1, r4, r5, r6}^
     e9c:	756f656d 	strbvc	r6, [pc, #-1389]!	; 937 <_start-0x76c9>
     ea0:	73755f74 	cmnvc	r5, #116, 30	; 0x1d0
     ea4:	73006365 	movwvc	r6, #869	; 0x365
     ea8:	61755f77 	cmnvs	r5, r7, ror pc
     eac:	705f7472 	subsvc	r7, pc, r2, ror r4	; <UNPREDICTABLE>
     eb0:	006b7475 	rsbeq	r7, fp, r5, ror r4
     eb4:	6f697067 	svcvs	0x00697067
     eb8:	6165725f 	cmnvs	r5, pc, asr r2
     ebc:	796d0064 	stmdbvc	sp!, {r2, r5, r6}^
     ec0:	6372732d 	cmnvs	r2, #-1275068416	; 0xb4000000
     ec4:	2d77732f 	ldclcs	3, cr7, [r7, #-188]!	; 0xffffff44
     ec8:	74726175 	ldrbtvc	r6, [r2], #-373	; 0x175
     ecc:	6300632e 	movwvs	r6, #814	; 0x32e
     ed0:	5f726168 	svcpl	0x00726168
     ed4:	73006e69 	movwvc	r6, #3689	; 0xe69
     ed8:	61755f77 	cmnvs	r5, r7, ror pc
     edc:	675f7472 			; <UNDEFINED> instruction: 0x675f7472
     ee0:	5f737465 	svcpl	0x00737465
     ee4:	656d6974 	strbvs	r6, [sp, #-2420]!	; 0x974
     ee8:	0074756f 	rsbseq	r7, r4, pc, ror #10
     eec:	74756f5f 	ldrbtvc	r6, [r5], #-3935	; 0xf5f
     ef0:	79626e00 	stmdbvc	r2!, {r9, sl, fp, sp, lr}^
     ef4:	00736574 	rsbseq	r6, r3, r4, ror r5
     ef8:	6f697067 	svcvs	0x00697067
     efc:	6972775f 	ldmdbvs	r2!, {r0, r1, r2, r3, r4, r6, r8, r9, sl, ip, sp, lr}^
     f00:	75006574 	strvc	r6, [r0, #-1396]	; 0x574
     f04:	5f636573 	svcpl	0x00636573
     f08:	656d6974 	strbvs	r6, [sp, #-2420]!	; 0x974
     f0c:	0074756f 	rsbseq	r7, r4, pc, ror #10
     f10:	6f697067 	svcvs	0x00697067
     f14:	7465735f 	strbtvc	r7, [r5], #-863	; 0x35f
     f18:	706e695f 	rsbvc	r6, lr, pc, asr r9
     f1c:	73007475 	movwvc	r7, #1141	; 0x475
     f20:	61755f77 	cmnvs	r5, r7, ror pc
     f24:	675f7472 			; <UNDEFINED> instruction: 0x675f7472
     f28:	5f737465 	svcpl	0x00737465
     f2c:	69746e75 	ldmdbvs	r4!, {r0, r2, r4, r5, r6, r9, sl, fp, sp, lr}^
     f30:	6c625f6c 	stclvs	15, cr5, [r2], #-432	; 0xfffffe50
     f34:	7067006b 	rsbvc	r0, r7, fp, rrx
     f38:	735f6f69 	cmpvc	pc, #420	; 0x1a4
     f3c:	6f5f7465 	svcvs	0x005f7465
     f40:	75707475 	ldrbvc	r7, [r0, #-1141]!	; 0x475
     f44:	61770074 	cmnvs	r7, r4, ror r0
     f48:	755f7469 	ldrbvc	r7, [pc, #-1129]	; ae7 <_start-0x7519>
     f4c:	6c69746e 	cfstrdvs	mvd7, [r9], #-440	; 0xfffffe48
     f50:	6573755f 	ldrbvs	r7, [r3, #-1375]!	; 0x55f
     f54:	55410063 	strbpl	r0, [r1, #-99]	; 0x63
     f58:	554d5f58 	strbpl	r5, [sp, #-3928]	; 0xf58
     f5c:	52434d5f 	subpl	r4, r3, #6080	; 0x17c0
     f60:	4745525f 	smlsldmi	r5, r5, pc, r2	; <UNPREDICTABLE>
     f64:	58554100 	ldmdapl	r5, {r8, lr}^
     f68:	5f554d5f 	svcpl	0x00554d5f
     f6c:	525f4f49 	subspl	r4, pc, #292	; 0x124
     f70:	41004745 	tstmi	r0, r5, asr #14
     f74:	4d5f5855 	ldclmi	8, cr5, [pc, #-340]	; e28 <_start-0x71d8>
     f78:	534d5f55 	movtpl	r5, #57173	; 0xdf55
     f7c:	45525f52 	ldrbmi	r5, [r2, #-3922]	; 0xf52
     f80:	50470047 	subpl	r0, r7, r7, asr #32
     f84:	465f4f49 	ldrbmi	r4, [pc], -r9, asr #30
     f88:	5f434e55 	svcpl	0x00434e55
     f8c:	30544c41 	subscc	r4, r4, r1, asr #24
     f90:	72617500 	rsbvc	r7, r1, #0, 10
     f94:	61635f74 	smcvs	13812	; 0x35f4
     f98:	65675f6e 	strbvs	r5, [r7, #-3950]!	; 0xf6e
     f9c:	41006374 	tstmi	r0, r4, ror r3
     fa0:	4d5f5855 	ldclmi	8, cr5, [pc, #-340]	; e54 <_start-0x71ac>
     fa4:	4e435f55 	mcrmi	15, 2, r5, cr3, cr5, {2}
     fa8:	525f4c54 	subspl	r4, pc, #84, 24	; 0x5400
     fac:	75004745 	strvc	r4, [r0, #-1861]	; 0x745
     fb0:	5f747261 	svcpl	0x00747261
     fb4:	5f736168 	svcpl	0x00736168
     fb8:	61746164 	cmnvs	r4, r4, ror #2
     fbc:	76656400 	strbtvc	r6, [r5], -r0, lsl #8
     fc0:	7261625f 	rsbvc	r6, r1, #-268435451	; 0xf0000005
     fc4:	72656972 	rsbvc	r6, r5, #1867776	; 0x1c8000
     fc8:	49504700 	ldmdbmi	r0, {r8, r9, sl, lr}^
     fcc:	55465f4f 	strbpl	r5, [r6, #-3919]	; 0xf4f
     fd0:	4f5f434e 	svcmi	0x005f434e
     fd4:	55505455 	ldrbpl	r5, [r0, #-1109]	; 0x455
     fd8:	50470054 	subpl	r0, r7, r4, asr r0
     fdc:	465f4f49 	ldrbmi	r4, [pc], -r9, asr #30
     fe0:	5f434e55 	svcpl	0x00434e55
     fe4:	31544c41 	cmpcc	r4, r1, asr #24
     fe8:	49504700 	ldmdbmi	r0, {r8, r9, sl, lr}^
     fec:	55465f4f 	strbpl	r5, [r6, #-3919]	; 0xf4f
     ff0:	415f434e 	cmpmi	pc, lr, asr #6
     ff4:	0032544c 	eorseq	r5, r2, ip, asr #8
     ff8:	4f495047 	svcmi	0x00495047
     ffc:	4e55465f 	mrcmi	6, 2, r4, cr5, cr15, {2}
    1000:	4c415f43 	mcrrmi	15, 4, r5, r1, cr3
    1004:	47003354 	smlsdmi	r0, r4, r3, r3
    1008:	5f4f4950 	svcpl	0x004f4950
    100c:	434e5546 	movtmi	r5, #58694	; 0xe546
    1010:	544c415f 	strbpl	r4, [ip], #-351	; 0x15f
    1014:	55410035 	strbpl	r0, [r1, #-53]	; 0x35
    1018:	554d5f58 	strbpl	r5, [sp, #-3928]	; 0xf58
    101c:	5245495f 	subpl	r4, r5, #1556480	; 0x17c000
    1020:	4745525f 	smlsldmi	r5, r5, pc, r2	; <UNPREDICTABLE>
    1024:	74757000 	ldrbtvc	r7, [r5], #-0
    1028:	41003233 	tstmi	r0, r3, lsr r2
    102c:	4d5f5855 	ldclmi	8, cr5, [pc, #-340]	; ee0 <_start-0x7120>
    1030:	49495f55 	stmdbmi	r9, {r0, r2, r4, r6, r8, r9, sl, fp, ip, lr}^
    1034:	45525f52 	ldrbmi	r5, [r2, #-3922]	; 0xf52
    1038:	70670047 	rsbvc	r0, r7, r7, asr #32
    103c:	665f6f69 	ldrbvs	r6, [pc], -r9, ror #30
    1040:	5f636e75 	svcpl	0x00636e75
    1044:	61750074 	cmnvs	r5, r4, ror r0
    1048:	635f7472 	cmpvs	pc, #1912602624	; 0x72000000
    104c:	705f6e61 	subsvc	r6, pc, r1, ror #28
    1050:	00637475 	rsbeq	r7, r3, r5, ror r4
    1054:	5f585541 	svcpl	0x00585541
    1058:	42414e45 	submi	r4, r1, #1104	; 0x450
    105c:	0053454c 	subseq	r4, r3, ip, asr #10
    1060:	5f585541 	svcpl	0x00585541
    1064:	00515249 	subseq	r5, r1, r9, asr #4
    1068:	5f585541 	svcpl	0x00585541
    106c:	425f554d 	subsmi	r5, pc, #322961408	; 0x13400000
    1070:	5f445541 	svcpl	0x00445541
    1074:	00474552 	subeq	r4, r7, r2, asr r5
    1078:	5f585541 	svcpl	0x00585541
    107c:	535f554d 	cmppl	pc, #322961408	; 0x13400000
    1080:	5f544154 	svcpl	0x00544154
    1084:	00474552 	subeq	r4, r7, r2, asr r5
    1088:	4f495047 	svcmi	0x00495047
    108c:	4e55465f 	mrcmi	6, 2, r4, cr5, cr15, {2}
    1090:	4c415f43 	mcrrmi	15, 4, r5, r1, cr3
    1094:	67003454 	smlsdvs	r0, r4, r4, r3
    1098:	5f6f6970 	svcpl	0x006f6970
    109c:	5f746573 	svcpl	0x00746573
    10a0:	636e7566 	cmnvs	lr, #427819008	; 0x19800000
    10a4:	6e6f6974 	mcrvs	9, 3, r6, cr15, cr4, {3}
    10a8:	58554100 	ldmdapl	r5, {r8, lr}^
    10ac:	5f554d5f 	svcpl	0x00554d5f
    10b0:	41524353 	cmpmi	r2, r3, asr r3
    10b4:	00484354 	subeq	r4, r8, r4, asr r3
    10b8:	732d796d 	teqvc	sp, #1785856	; 0x1b4000
    10bc:	752f6372 	strvc	r6, [pc, #-882]!	; d52 <_start-0x72ae>
    10c0:	2e747261 	cdpcs	2, 7, cr7, cr4, cr1, {3}
    10c4:	55410063 	strbpl	r0, [r1, #-99]	; 0x63
    10c8:	554d5f58 	strbpl	r5, [sp, #-3928]	; 0xf58
    10cc:	52434c5f 	subpl	r4, r3, #24320	; 0x5f00
    10d0:	4745525f 	smlsldmi	r5, r5, pc, r2	; <UNPREDICTABLE>
    10d4:	49504700 	ldmdbmi	r0, {r8, r9, sl, lr}^
    10d8:	55465f4f 	strbpl	r5, [r6, #-3919]	; 0xf4f
    10dc:	495f434e 	ldmdbmi	pc, {r1, r2, r3, r6, r8, r9, lr}^	; <UNPREDICTABLE>
    10e0:	5455504e 	ldrbpl	r5, [r5], #-78	; 0x4e
    10e4:	58554100 	ldmdapl	r5, {r8, lr}^
    10e8:	5f554d5f 	svcpl	0x00554d5f
    10ec:	5f52534c 	svcpl	0x0052534c
    10f0:	00474552 	subeq	r4, r7, r2, asr r5
    10f4:	74726175 	ldrbtvc	r6, [r2], #-373	; 0x175
    10f8:	7465675f 	strbtvc	r6, [r5], #-1887	; 0x75f
    10fc:	73615f63 	cmnvc	r1, #396	; 0x18c
    1100:	00636e79 	rsbeq	r6, r3, r9, ror lr
    1104:	5f515249 	svcpl	0x00515249
    1108:	646e6570 	strbtvs	r6, [lr], #-1392	; 0x570
    110c:	5f676e69 	svcpl	0x00676e69
    1110:	69440032 	stmdbvs	r4, {r1, r4, r5}^
    1114:	6c626173 	stfvse	f6, [r2], #-460	; 0xfffffe34
    1118:	61425f65 	cmpvs	r2, r5, ror #30
    111c:	5f636973 	svcpl	0x00636973
    1120:	73515249 	cmpvc	r1, #-1879048188	; 0x90000004
    1124:	51494600 	cmppl	r9, r0, lsl #12
    1128:	6e6f635f 	mcrvs	3, 3, r6, cr15, cr15, {2}
    112c:	6c6f7274 	sfmvs	f7, 2, [pc], #-464	; f64 <_start-0x709c>
    1130:	6e695f00 	cdpvs	15, 6, cr5, cr9, cr0, {0}
    1134:	72726574 	rsbsvc	r6, r2, #116, 10	; 0x1d000000
    1138:	5f747075 	svcpl	0x00747075
    113c:	6c626174 	stfvse	f6, [r2], #-464	; 0xfffffe30
    1140:	52490065 	subpl	r0, r9, #101	; 0x65
    1144:	61625f51 	cmnvs	r2, r1, asr pc
    1148:	5f636973 	svcpl	0x00636973
    114c:	646e6570 	strbtvs	r6, [lr], #-1392	; 0x570
    1150:	00676e69 	rsbeq	r6, r7, r9, ror #28
    1154:	62616e45 	rsbvs	r6, r1, #1104	; 0x450
    1158:	425f656c 	subsmi	r6, pc, #108, 10	; 0x1b000000
    115c:	63697361 	cmnvs	r9, #-2080374783	; 0x84000001
    1160:	5152495f 	cmppl	r2, pc, asr r9
    1164:	6e450073 	mcrvs	0, 2, r0, cr5, cr3, {3}
    1168:	656c6261 	strbvs	r6, [ip, #-609]!	; 0x261
    116c:	5152495f 	cmppl	r2, pc, asr r9
    1170:	00315f73 	eorseq	r5, r1, r3, ror pc
    1174:	62616e45 	rsbvs	r6, r1, #1104	; 0x450
    1178:	495f656c 	ldmdbmi	pc, {r2, r3, r5, r6, r8, sl, sp, lr}^	; <UNPREDICTABLE>
    117c:	5f735152 	svcpl	0x00735152
    1180:	695f0032 	ldmdbvs	pc, {r1, r4, r5}^	; <UNPREDICTABLE>
    1184:	7265746e 	rsbvc	r7, r5, #1845493760	; 0x6e000000
    1188:	74707572 	ldrbtvc	r7, [r0], #-1394	; 0x572
    118c:	6261745f 	rsbvs	r7, r1, #1593835520	; 0x5f000000
    1190:	655f656c 	ldrbvs	r6, [pc, #-1388]	; c2c <_start-0x73d4>
    1194:	6300646e 	movwvs	r6, #1134	; 0x46e
    1198:	30343173 	eorscc	r3, r4, r3, ror r1
    119c:	6e692d65 	cdpvs	13, 6, cr2, cr9, cr5, {3}
    11a0:	72726574 	rsbsvc	r6, r2, #116, 10	; 0x1d000000
    11a4:	2f747075 	svccs	0x00747075
    11a8:	65746e69 	ldrbvs	r6, [r4, #-3689]!	; 0xe69
    11ac:	70757272 	rsbsvc	r7, r5, r2, ror r2
    11b0:	632d7374 	teqvs	sp, #116, 6	; 0xd0000001
    11b4:	4900632e 	stmdbmi	r0, {r1, r2, r3, r5, r8, r9, sp, lr}
    11b8:	425f5152 	subsmi	r5, pc, #-2147483628	; 0x80000014
    11bc:	00657361 	rsbeq	r7, r5, r1, ror #6
    11c0:	61736944 	cmnvs	r3, r4, asr #18
    11c4:	5f656c62 	svcpl	0x00656c62
    11c8:	73515249 	cmpvc	r1, #-1879048188	; 0x90000004
    11cc:	4400315f 	strmi	r3, [r0], #-351	; 0x15f
    11d0:	62617369 	rsbvs	r7, r1, #-1543503871	; 0xa4000001
    11d4:	495f656c 	ldmdbmi	pc, {r2, r3, r5, r6, r8, sl, sp, lr}^	; <UNPREDICTABLE>
    11d8:	5f735152 	svcpl	0x00735152
    11dc:	61660032 	cmnvs	r6, r2, lsr r0
    11e0:	695f7473 	ldmdbvs	pc, {r0, r1, r4, r5, r6, sl, ip, sp, lr}^	; <UNPREDICTABLE>
    11e4:	7265746e 	rsbvc	r7, r5, #1845493760	; 0x6e000000
    11e8:	74707572 	ldrbtvc	r7, [r0], #-1394	; 0x572
    11ec:	6365765f 	cmnvs	r5, #99614720	; 0x5f00000
    11f0:	00726f74 	rsbseq	r6, r2, r4, ror pc
    11f4:	5f515249 	svcpl	0x00515249
    11f8:	646e6570 	strbtvs	r6, [lr], #-1392	; 0x570
    11fc:	5f676e69 	svcpl	0x00676e69
    1200:	70670031 	rsbvc	r0, r7, r1, lsr r0
    1204:	655f6f69 	ldrbvs	r6, [pc, #-3945]	; 2a3 <_start-0x7d5d>
    1208:	746e6576 	strbtvc	r6, [lr], #-1398	; 0x576
    120c:	7465645f 	strbtvc	r6, [r5], #-1119	; 0x45f
    1210:	65746365 	ldrbvs	r6, [r4, #-869]!	; 0x365
    1214:	50470064 	subpl	r0, r7, r4, rrx
    1218:	4c455346 	mcrrmi	3, 4, r5, r5, cr6
    121c:	50470032 	subpl	r0, r7, r2, lsr r0
    1220:	30524c43 	subscc	r4, r2, r3, asr #24
    1224:	414e4500 	cmpmi	lr, r0, lsl #10
    1228:	5f454c42 	svcpl	0x00454c42
    122c:	53515249 	cmppl	r1, #-1879048188	; 0x90000004
    1230:	6900325f 	stmdbvs	r0, {r0, r1, r2, r3, r4, r6, r9, ip, sp}
    1234:	70675f73 	rsbvc	r5, r7, r3, ror pc
    1238:	695f6f69 	ldmdbvs	pc, {r0, r3, r5, r6, r8, r9, sl, fp, sp, lr}^	; <UNPREDICTABLE>
    123c:	6700746e 	strvs	r7, [r0, -lr, ror #8]
    1240:	5f6f6970 	svcpl	0x006f6970
    1244:	5f746573 	svcpl	0x00746573
    1248:	0066666f 	rsbeq	r6, r6, pc, ror #12
    124c:	732d796d 	teqvc	sp, #1785856	; 0x1b4000
    1250:	672f6372 			; <UNDEFINED> instruction: 0x672f6372
    1254:	2e6f6970 	mcrcs	9, 3, r6, cr15, cr0, {3}
    1258:	6e690063 	cdpvs	0, 6, cr0, cr9, cr3, {3}
    125c:	616d5f74 	smcvs	54772	; 0xd5f4
    1260:	47006b73 	smlsdxmi	r0, r3, fp, r6
    1264:	54455350 	strbpl	r5, [r5], #-848	; 0x350
    1268:	50470030 	subpl	r0, r7, r0, lsr r0
    126c:	31544553 	cmpcc	r4, r3, asr r5
    1270:	67657200 	strbvs	r7, [r5, -r0, lsl #4]!
    1274:	6174735f 	cmnvs	r4, pc, asr r3
    1278:	50470074 	subpl	r0, r7, r4, ror r0
    127c:	3056454c 	subscc	r4, r6, ip, asr #10
    1280:	4c504700 	mrrcmi	7, 0, r4, r0, cr0
    1284:	00315645 	eorseq	r5, r1, r5, asr #12
    1288:	6f697067 	svcvs	0x00697067
    128c:	6765725f 			; <UNDEFINED> instruction: 0x6765725f
    1290:	46504700 	ldrbmi	r4, [r0], -r0, lsl #14
    1294:	304c4553 	subcc	r4, ip, r3, asr r5
    1298:	46504700 	ldrbmi	r4, [r0], -r0, lsl #14
    129c:	314c4553 	cmpcc	ip, r3, asr r5
    12a0:	46504700 	ldrbmi	r4, [r0], -r0, lsl #14
    12a4:	334c4553 	movtcc	r4, #50515	; 0xc553
    12a8:	46504700 	ldrbmi	r4, [r0], -r0, lsl #14
    12ac:	344c4553 	strbcc	r4, [ip], #-1363	; 0x553
    12b0:	46504700 	ldrbmi	r4, [r0], -r0, lsl #14
    12b4:	354c4553 	strbcc	r4, [ip, #-1363]	; 0x553
    12b8:	69706700 	ldmdbvs	r0!, {r8, r9, sl, sp, lr}^
    12bc:	73665f6f 	cmnvc	r6, #444	; 0x1bc
    12c0:	00306c65 	eorseq	r6, r0, r5, ror #24
    12c4:	4c435047 	mcrrmi	0, 4, r5, r3, cr7
    12c8:	67003152 	smlsdvs	r0, r2, r1, r3
    12cc:	5f6f6970 	svcpl	0x006f6970
    12d0:	5f746e69 	svcpl	0x00746e69
    12d4:	69736972 	ldmdbvs	r3!, {r1, r4, r5, r6, r8, fp, sp, lr}^
    12d8:	655f676e 	ldrbvs	r6, [pc, #-1902]	; b72 <_start-0x748e>
    12dc:	00656764 	rsbeq	r6, r5, r4, ror #14
    12e0:	45525047 	ldrbmi	r5, [r2, #-71]	; 0x47
    12e4:	4700304e 	strmi	r3, [r0, -lr, asr #32]
    12e8:	4e455250 	mcrmi	2, 2, r5, cr5, cr0, {2}
    12ec:	70670031 	rsbvc	r0, r7, r1, lsr r0
    12f0:	655f6f69 	ldrbvs	r6, [pc, #-3945]	; 38f <_start-0x7c71>
    12f4:	746e6576 	strbtvc	r6, [lr], #-1398	; 0x576
    12f8:	656c635f 	strbvs	r6, [ip, #-863]!	; 0x35f
    12fc:	49007261 	stmdbmi	r0, {r0, r5, r6, r9, ip, sp, lr}
    1300:	505f5152 	subspl	r5, pc, r2, asr r1	; <UNPREDICTABLE>
    1304:	49444e45 	stmdbmi	r4, {r0, r2, r6, r9, sl, fp, lr}^
    1308:	315f474e 	cmpcc	pc, lr, asr #14
    130c:	51524900 	cmppl	r2, r0, lsl #18
    1310:	4e45505f 	mcrmi	0, 2, r5, cr5, cr15, {2}
    1314:	474e4944 	strbmi	r4, [lr, -r4, asr #18]
    1318:	6200325f 	andvs	r3, r0, #-268435451	; 0xf0000005
    131c:	616d7469 	cmnvs	sp, r9, ror #8
    1320:	67006b73 	smlsdxvs	r0, r3, fp, r6
    1324:	5f6f6970 	svcpl	0x006f6970
    1328:	30746573 	rsbscc	r6, r4, r3, ror r5
    132c:	45504700 	ldrbmi	r4, [r0, #-1792]	; 0x700
    1330:	00305344 	eorseq	r5, r0, r4, asr #6
    1334:	44455047 	strbmi	r5, [r5], #-71	; 0x47
    1338:	67003153 	smlsdvs	r0, r3, r1, r3
    133c:	5f6f6970 	svcpl	0x006f6970
    1340:	5f746573 	svcpl	0x00746573
    1344:	47006e6f 	strmi	r6, [r0, -pc, ror #28]
    1348:	4e454650 	mcrmi	6, 2, r4, cr5, cr0, {2}
    134c:	50470030 	subpl	r0, r7, r0, lsr r0
    1350:	314e4546 	cmpcc	lr, r6, asr #10
    1354:	69706700 	ldmdbvs	r0!, {r8, r9, sl, sp, lr}^
    1358:	6e695f6f 	cdpvs	15, 6, cr5, cr9, cr15, {3}
    135c:	61665f74 	smcvs	26100	; 0x65f4
    1360:	6e696c6c 	cdpvs	12, 6, cr6, cr9, cr12, {3}
    1364:	64655f67 	strbtvs	r5, [r5], #-3943	; 0xf67
    1368:	72006567 	andvc	r6, r0, #432013312	; 0x19c00000
    136c:	735f6765 	cmpvc	pc, #26476544	; 0x1940000
    1370:	63656c65 	cmnvs	r5, #25856	; 0x6500
    1374:	70670074 	rsbvc	r0, r7, r4, ror r0
    1378:	635f6f69 	cmpvs	pc, #420	; 0x1a4
    137c:	0030726c 	eorseq	r7, r0, ip, ror #4
    1380:	6e5f6263 	cdpvs	2, 5, cr6, cr15, cr3, {3}
    1384:	63007765 	movwvs	r7, #1893	; 0x765
    1388:	30343173 	eorscc	r3, r4, r3, ror r1
    138c:	72732d65 	rsbsvc	r2, r3, #6464	; 0x1940
    1390:	6f632f63 	svcvs	0x00632f63
    1394:	6f72746e 	svcvs	0x0072746e
    1398:	6c622d6c 	stclvs	13, cr2, [r2], #-432	; 0xfffffe50
    139c:	2e6b636f 	cdpcs	3, 6, cr6, cr11, cr15, {3}
    13a0:	65720063 	ldrbvs	r0, [r2, #-99]!	; 0x63
    13a4:	5f746573 	svcpl	0x00746573
    13a8:	74636576 	strbtvc	r6, [r3], #-1398	; 0x576
    13ac:	6300726f 	movwvs	r7, #623	; 0x26f
    13b0:	30343173 	eorscc	r3, r4, r3, ror r1
    13b4:	6e692d65 	cdpvs	13, 6, cr2, cr9, cr5, {3}
    13b8:	72726574 	rsbsvc	r6, r2, #116, 10	; 0x1d000000
    13bc:	2f747075 	svccs	0x00747075
    13c0:	61666564 	cmnvs	r6, r4, ror #10
    13c4:	2d746c75 	ldclcs	12, cr6, [r4, #-468]!	; 0xfffffe2c
    13c8:	646e6168 	strbtvs	r6, [lr], #-360	; 0x168
    13cc:	2d72656c 	cfldr64cs	mvdx6, [r2, #-432]!	; 0xfffffe50
    13d0:	65736572 	ldrbvs	r6, [r3, #-1394]!	; 0x572
    13d4:	00632e74 	rsbeq	r2, r3, r4, ror lr
    13d8:	34317363 	ldrtcc	r7, [r1], #-867	; 0x363
    13dc:	692d6530 	pushvs	{r4, r5, r8, sl, sp, lr}
    13e0:	7265746e 	rsbvc	r7, r5, #1845493760	; 0x6e000000
    13e4:	74707572 	ldrbtvc	r7, [r0], #-1394	; 0x572
    13e8:	6665642f 	strbtvs	r6, [r5], -pc, lsr #8
    13ec:	746c7561 	strbtvc	r7, [ip], #-1377	; 0x561
    13f0:	6e61682d 	cdpvs	8, 6, cr6, cr1, cr13, {1}
    13f4:	72656c64 	rsbvc	r6, r5, #100, 24	; 0x6400
    13f8:	646e752d 	strbtvs	r7, [lr], #-1325	; 0x52d
    13fc:	6e696665 	cdpvs	6, 6, cr6, cr9, cr5, {3}
    1400:	692d6465 	pushvs	{r0, r2, r5, r6, sl, sp, lr}
    1404:	2e74736e 	cdpcs	3, 7, cr7, cr4, cr14, {3}
    1408:	6e750063 	cdpvs	0, 7, cr0, cr5, cr3, {3}
    140c:	69666564 	stmdbvs	r6!, {r2, r5, r6, r8, sl, sp, lr}^
    1410:	5f64656e 	svcpl	0x0064656e
    1414:	74736e69 	ldrbtvc	r6, [r3], #-3689	; 0xe69
    1418:	74637572 	strbtvc	r7, [r3], #-1394	; 0x572
    141c:	5f6e6f69 	svcpl	0x006e6f69
    1420:	74636576 	strbtvc	r6, [r3], #-1398	; 0x576
    1424:	Address 0x0000000000001424 is out of bounds.


Disassembly of section .debug_frame:

00000000 <.debug_frame>:
   0:	0000000c 	andeq	r0, r0, ip
   4:	ffffffff 			; <UNDEFINED> instruction: 0xffffffff
   8:	7c020001 	stcvc	0, cr0, [r2], {1}
   c:	000d0c0e 	andeq	r0, sp, lr, lsl #24
  10:	00000018 	andeq	r0, r0, r8, lsl r0
  14:	00000000 	andeq	r0, r0, r0
  18:	00008010 	andeq	r8, r0, r0, lsl r0
  1c:	0000005c 	andeq	r0, r0, ip, asr r0
  20:	83100e42 	tsthi	r0, #1056	; 0x420
  24:	85038404 	strhi	r8, [r3, #-1028]	; 0x404
  28:	00018e02 	andeq	r8, r1, r2, lsl #28
  2c:	00000018 	andeq	r0, r0, r8, lsl r0
  30:	00000000 	andeq	r0, r0, r0
  34:	0000806c 	andeq	r8, r0, ip, rrx
  38:	0000005c 	andeq	r0, r0, ip, asr r0
  3c:	83100e42 	tsthi	r0, #1056	; 0x420
  40:	85038404 	strhi	r8, [r3, #-1028]	; 0x404
  44:	00018e02 	andeq	r8, r1, r2, lsl #28
  48:	00000014 	andeq	r0, r0, r4, lsl r0
  4c:	00000000 	andeq	r0, r0, r0
  50:	000080c8 	andeq	r8, r0, r8, asr #1
  54:	00000028 	andeq	r0, r0, r8, lsr #32
  58:	83080e42 	movwhi	r0, #36418	; 0x8e42
  5c:	00018e02 	andeq	r8, r1, r2, lsl #28
  60:	00000014 	andeq	r0, r0, r4, lsl r0
  64:	00000000 	andeq	r0, r0, r0
  68:	000080f0 	strdeq	r8, [r0], -r0
  6c:	0000002c 	andeq	r0, r0, ip, lsr #32
  70:	83080e42 	movwhi	r0, #36418	; 0x8e42
  74:	00018e02 	andeq	r8, r1, r2, lsl #28
  78:	00000014 	andeq	r0, r0, r4, lsl r0
  7c:	00000000 	andeq	r0, r0, r0
  80:	0000811c 	andeq	r8, r0, ip, lsl r1
  84:	00000044 	andeq	r0, r0, r4, asr #32
  88:	83080e42 	movwhi	r0, #36418	; 0x8e42
  8c:	00018e02 	andeq	r8, r1, r2, lsl #28
  90:	00000014 	andeq	r0, r0, r4, lsl r0
  94:	00000000 	andeq	r0, r0, r0
  98:	00008160 	andeq	r8, r0, r0, ror #2
  9c:	00000010 	andeq	r0, r0, r0, lsl r0
  a0:	83080e42 	movwhi	r0, #36418	; 0x8e42
  a4:	00018e02 	andeq	r8, r1, r2, lsl #28
  a8:	00000014 	andeq	r0, r0, r4, lsl r0
  ac:	00000000 	andeq	r0, r0, r0
  b0:	00008170 	andeq	r8, r0, r0, ror r1
  b4:	00000010 	andeq	r0, r0, r0, lsl r0
  b8:	83080e42 	movwhi	r0, #36418	; 0x8e42
  bc:	00018e02 	andeq	r8, r1, r2, lsl #28
  c0:	00000014 	andeq	r0, r0, r4, lsl r0
  c4:	00000000 	andeq	r0, r0, r0
  c8:	00008180 	andeq	r8, r0, r0, lsl #3
  cc:	00000010 	andeq	r0, r0, r0, lsl r0
  d0:	83080e42 	movwhi	r0, #36418	; 0x8e42
  d4:	00018e02 	andeq	r8, r1, r2, lsl #28
  d8:	00000018 	andeq	r0, r0, r8, lsl r0
  dc:	00000000 	andeq	r0, r0, r0
  e0:	00008190 	muleq	r0, r0, r1
  e4:	000000d0 	ldrdeq	r0, [r0], -r0	; <UNPREDICTABLE>
  e8:	84100e42 	ldrhi	r0, [r0], #-3650	; 0xe42
  ec:	86038504 	strhi	r8, [r3], -r4, lsl #10
  f0:	00018e02 	andeq	r8, r1, r2, lsl #28
  f4:	0000001c 	andeq	r0, r0, ip, lsl r0
  f8:	00000000 	andeq	r0, r0, r0
  fc:	00008260 	andeq	r8, r0, r0, ror #4
 100:	0000009c 	muleq	r0, ip, r0
 104:	84180e42 	ldrhi	r0, [r8], #-3650	; 0xe42
 108:	86058506 	strhi	r8, [r5], -r6, lsl #10
 10c:	88038704 	stmdahi	r3, {r2, r8, r9, sl, pc}
 110:	00018e02 	andeq	r8, r1, r2, lsl #28
 114:	00000014 	andeq	r0, r0, r4, lsl r0
 118:	00000000 	andeq	r0, r0, r0
 11c:	000082fc 	strdeq	r8, [r0], -ip
 120:	00000058 	andeq	r0, r0, r8, asr r0
 124:	84080e42 	strhi	r0, [r8], #-3650	; 0xe42
 128:	00018e02 	andeq	r8, r1, r2, lsl #28
 12c:	00000014 	andeq	r0, r0, r4, lsl r0
 130:	00000000 	andeq	r0, r0, r0
 134:	00008354 	andeq	r8, r0, r4, asr r3
 138:	00000014 	andeq	r0, r0, r4, lsl r0
 13c:	83080e42 	movwhi	r0, #36418	; 0x8e42
 140:	00018e02 	andeq	r8, r1, r2, lsl #28
 144:	00000014 	andeq	r0, r0, r4, lsl r0
 148:	00000000 	andeq	r0, r0, r0
 14c:	00008368 	andeq	r8, r0, r8, ror #6
 150:	00000030 	andeq	r0, r0, r0, lsr r0
 154:	83080e42 	movwhi	r0, #36418	; 0x8e42
 158:	00018e02 	andeq	r8, r1, r2, lsl #28
 15c:	00000018 	andeq	r0, r0, r8, lsl r0
 160:	00000000 	andeq	r0, r0, r0
 164:	00008398 	muleq	r0, r8, r3
 168:	00000168 	andeq	r0, r0, r8, ror #2
 16c:	83100e42 	tsthi	r0, #1056	; 0x420
 170:	85038404 	strhi	r8, [r3, #-1028]	; 0x404
 174:	00018e02 	andeq	r8, r1, r2, lsl #28
 178:	00000014 	andeq	r0, r0, r4, lsl r0
 17c:	00000000 	andeq	r0, r0, r0
 180:	00008500 	andeq	r8, r0, r0, lsl #10
 184:	00000034 	andeq	r0, r0, r4, lsr r0
 188:	83080e42 	movwhi	r0, #36418	; 0x8e42
 18c:	00018e02 	andeq	r8, r1, r2, lsl #28
 190:	00000014 	andeq	r0, r0, r4, lsl r0
 194:	00000000 	andeq	r0, r0, r0
 198:	00008534 	andeq	r8, r0, r4, lsr r5
 19c:	0000000c 	andeq	r0, r0, ip
 1a0:	83080e42 	movwhi	r0, #36418	; 0x8e42
 1a4:	00018e02 	andeq	r8, r1, r2, lsl #28
 1a8:	00000020 	andeq	r0, r0, r0, lsr #32
 1ac:	00000000 	andeq	r0, r0, r0
 1b0:	00008540 	andeq	r8, r0, r0, asr #10
 1b4:	00000398 	muleq	r0, r8, r3
 1b8:	84180e42 	ldrhi	r0, [r8], #-3650	; 0xe42
 1bc:	86058506 	strhi	r8, [r5], -r6, lsl #10
 1c0:	88038704 	stmdahi	r3, {r2, r8, r9, sl, pc}
 1c4:	42018e02 	andmi	r8, r1, #2, 28
 1c8:	0000200e 	andeq	r2, r0, lr
 1cc:	00000014 	andeq	r0, r0, r4, lsl r0
 1d0:	00000000 	andeq	r0, r0, r0
 1d4:	000088d8 	ldrdeq	r8, [r0], -r8	; <UNPREDICTABLE>
 1d8:	00000044 	andeq	r0, r0, r4, asr #32
 1dc:	83080e42 	movwhi	r0, #36418	; 0x8e42
 1e0:	00018e02 	andeq	r8, r1, r2, lsl #28
 1e4:	0000000c 	andeq	r0, r0, ip
 1e8:	ffffffff 			; <UNDEFINED> instruction: 0xffffffff
 1ec:	7c020001 	stcvc	0, cr0, [r2], {1}
 1f0:	000d0c0e 	andeq	r0, sp, lr, lsl #24
 1f4:	00000014 	andeq	r0, r0, r4, lsl r0
 1f8:	000001e4 	andeq	r0, r0, r4, ror #3
 1fc:	00008920 	andeq	r8, r0, r0, lsr #18
 200:	000001a0 	andeq	r0, r0, r0, lsr #3
 204:	83080e42 	movwhi	r0, #36418	; 0x8e42
 208:	00018e02 	andeq	r8, r1, r2, lsl #28
 20c:	00000014 	andeq	r0, r0, r4, lsl r0
 210:	000001e4 	andeq	r0, r0, r4, ror #3
 214:	00008ac0 	andeq	r8, r0, r0, asr #21
 218:	00000170 	andeq	r0, r0, r0, ror r1
 21c:	83080e42 	movwhi	r0, #36418	; 0x8e42
 220:	00018e02 	andeq	r8, r1, r2, lsl #28
 224:	00000014 	andeq	r0, r0, r4, lsl r0
 228:	000001e4 	andeq	r0, r0, r4, ror #3
 22c:	00008c30 	andeq	r8, r0, r0, lsr ip
 230:	00000008 	andeq	r0, r0, r8
 234:	8e040e42 	cdphi	14, 0, cr0, cr4, cr2, {2}
 238:	00000001 	andeq	r0, r0, r1
 23c:	00000014 	andeq	r0, r0, r4, lsl r0
 240:	000001e4 	andeq	r0, r0, r4, ror #3
 244:	00008c38 	andeq	r8, r0, r8, lsr ip
 248:	00000008 	andeq	r0, r0, r8
 24c:	8e040e42 	cdphi	14, 0, cr0, cr4, cr2, {2}
 250:	00000001 	andeq	r0, r0, r1
 254:	00000018 	andeq	r0, r0, r8, lsl r0
 258:	000001e4 	andeq	r0, r0, r4, ror #3
 25c:	00008c40 	andeq	r8, r0, r0, asr #24
 260:	00000034 	andeq	r0, r0, r4, lsr r0
 264:	83100e42 	tsthi	r0, #1056	; 0x420
 268:	85038404 	strhi	r8, [r3, #-1028]	; 0x404
 26c:	00018e02 	andeq	r8, r1, r2, lsl #28
 270:	00000014 	andeq	r0, r0, r4, lsl r0
 274:	000001e4 	andeq	r0, r0, r4, ror #3
 278:	00008c74 	andeq	r8, r0, r4, ror ip
 27c:	00000204 	andeq	r0, r0, r4, lsl #4
 280:	84080e42 	strhi	r0, [r8], #-3650	; 0xe42
 284:	00018e02 	andeq	r8, r1, r2, lsl #28
 288:	00000014 	andeq	r0, r0, r4, lsl r0
 28c:	000001e4 	andeq	r0, r0, r4, ror #3
 290:	00008e78 	andeq	r8, r0, r8, ror lr
 294:	0000004c 	andeq	r0, r0, ip, asr #32
 298:	84080e42 	strhi	r0, [r8], #-3650	; 0xe42
 29c:	00018e02 	andeq	r8, r1, r2, lsl #28
 2a0:	0000000c 	andeq	r0, r0, ip
 2a4:	000001e4 	andeq	r0, r0, r4, ror #3
 2a8:	00008ec4 	andeq	r8, r0, r4, asr #29
 2ac:	00000008 	andeq	r0, r0, r8
 2b0:	00000018 	andeq	r0, r0, r8, lsl r0
 2b4:	000001e4 	andeq	r0, r0, r4, ror #3
 2b8:	00008ecc 	andeq	r8, r0, ip, asr #29
 2bc:	000000a8 	andeq	r0, r0, r8, lsr #1
 2c0:	84080e42 	strhi	r0, [r8], #-3650	; 0xe42
 2c4:	42018e02 	andmi	r8, r1, #2, 28
 2c8:	0000280e 	andeq	r2, r0, lr, lsl #16
 2cc:	00000014 	andeq	r0, r0, r4, lsl r0
 2d0:	000001e4 	andeq	r0, r0, r4, ror #3
 2d4:	00008f74 	andeq	r8, r0, r4, ror pc
 2d8:	000001d0 	ldrdeq	r0, [r0], -r0	; <UNPREDICTABLE>
 2dc:	84080e42 	strhi	r0, [r8], #-3650	; 0xe42
 2e0:	00018e02 	andeq	r8, r1, r2, lsl #28
 2e4:	00000014 	andeq	r0, r0, r4, lsl r0
 2e8:	000001e4 	andeq	r0, r0, r4, ror #3
 2ec:	00009144 	andeq	r9, r0, r4, asr #2
 2f0:	00000014 	andeq	r0, r0, r4, lsl r0
 2f4:	83080e42 	movwhi	r0, #36418	; 0x8e42
 2f8:	00018e02 	andeq	r8, r1, r2, lsl #28
 2fc:	0000000c 	andeq	r0, r0, ip
 300:	ffffffff 			; <UNDEFINED> instruction: 0xffffffff
 304:	7c020001 	stcvc	0, cr0, [r2], {1}
 308:	000d0c0e 	andeq	r0, sp, lr, lsl #24
 30c:	0000000c 	andeq	r0, r0, ip
 310:	000002fc 	strdeq	r0, [r0], -ip
 314:	00009394 	muleq	r0, r4, r3
 318:	0000000c 	andeq	r0, r0, ip
 31c:	00000014 	andeq	r0, r0, r4, lsl r0
 320:	000002fc 	strdeq	r0, [r0], -ip
 324:	000093a0 	andeq	r9, r0, r0, lsr #7
 328:	00000070 	andeq	r0, r0, r0, ror r0
 32c:	84080e42 	strhi	r0, [r8], #-3650	; 0xe42
 330:	00018e02 	andeq	r8, r1, r2, lsl #28
 334:	00000014 	andeq	r0, r0, r4, lsl r0
 338:	000002fc 	strdeq	r0, [r0], -ip
 33c:	00009410 	andeq	r9, r0, r0, lsl r4
 340:	00000070 	andeq	r0, r0, r0, ror r0
 344:	84080e42 	strhi	r0, [r8], #-3650	; 0xe42
 348:	00018e02 	andeq	r8, r1, r2, lsl #28
 34c:	0000001c 	andeq	r0, r0, ip, lsl r0
 350:	000002fc 	strdeq	r0, [r0], -ip
 354:	00009480 	andeq	r9, r0, r0, lsl #9
 358:	00000120 	andeq	r0, r0, r0, lsr #2
 35c:	84180e42 	ldrhi	r0, [r8], #-3650	; 0xe42
 360:	86058506 	strhi	r8, [r5], -r6, lsl #10
 364:	88038704 	stmdahi	r3, {r2, r8, r9, sl, pc}
 368:	00018e02 	andeq	r8, r1, r2, lsl #28
 36c:	00000014 	andeq	r0, r0, r4, lsl r0
 370:	000002fc 	strdeq	r0, [r0], -ip
 374:	000095a0 	andeq	r9, r0, r0, lsr #11
 378:	0000004c 	andeq	r0, r0, ip, asr #32
 37c:	84080e42 	strhi	r0, [r8], #-3650	; 0xe42
 380:	00018e02 	andeq	r8, r1, r2, lsl #28
 384:	0000001c 	andeq	r0, r0, ip, lsl r0
 388:	000002fc 	strdeq	r0, [r0], -ip
 38c:	000095ec 	andeq	r9, r0, ip, ror #11
 390:	00000084 	andeq	r0, r0, r4, lsl #1
 394:	84180e42 	ldrhi	r0, [r8], #-3650	; 0xe42
 398:	86058506 	strhi	r8, [r5], -r6, lsl #10
 39c:	88038704 	stmdahi	r3, {r2, r8, r9, sl, pc}
 3a0:	00018e02 	andeq	r8, r1, r2, lsl #28
 3a4:	0000000c 	andeq	r0, r0, ip
 3a8:	ffffffff 			; <UNDEFINED> instruction: 0xffffffff
 3ac:	7c020001 	stcvc	0, cr0, [r2], {1}
 3b0:	000d0c0e 	andeq	r0, sp, lr, lsl #24
 3b4:	00000014 	andeq	r0, r0, r4, lsl r0
 3b8:	000003a4 	andeq	r0, r0, r4, lsr #7
 3bc:	00009670 	andeq	r9, r0, r0, ror r6
 3c0:	000000f0 	strdeq	r0, [r0], -r0	; <UNPREDICTABLE>
 3c4:	84040e42 	strhi	r0, [r4], #-3650	; 0xe42
 3c8:	00000001 	andeq	r0, r0, r1
 3cc:	0000000c 	andeq	r0, r0, ip
 3d0:	ffffffff 			; <UNDEFINED> instruction: 0xffffffff
 3d4:	7c020001 	stcvc	0, cr0, [r2], {1}
 3d8:	000d0c0e 	andeq	r0, sp, lr, lsl #24
 3dc:	0000000c 	andeq	r0, r0, ip
 3e0:	000003cc 	andeq	r0, r0, ip, asr #7
 3e4:	00009760 	andeq	r9, r0, r0, ror #14
 3e8:	00000020 	andeq	r0, r0, r0, lsr #32
 3ec:	0000000c 	andeq	r0, r0, ip
 3f0:	ffffffff 			; <UNDEFINED> instruction: 0xffffffff
 3f4:	7c020001 	stcvc	0, cr0, [r2], {1}
 3f8:	000d0c0e 	andeq	r0, sp, lr, lsl #24
 3fc:	00000024 	andeq	r0, r0, r4, lsr #32
 400:	000003ec 	andeq	r0, r0, ip, ror #7
 404:	00009780 	andeq	r9, r0, r0, lsl #15
 408:	00000058 	andeq	r0, r0, r8, asr r0
 40c:	80100e42 	andshi	r0, r0, r2, asr #28
 410:	82038104 	andhi	r8, r3, #4, 2
 414:	42018302 	andmi	r8, r1, #134217728	; 0x8000000
 418:	07841c0e 	streq	r1, [r4, lr, lsl #24]
 41c:	058e0685 	streq	r0, [lr, #1669]	; 0x685
 420:	00280e42 	eoreq	r0, r8, r2, asr #28
 424:	0000000c 	andeq	r0, r0, ip
 428:	ffffffff 			; <UNDEFINED> instruction: 0xffffffff
 42c:	7c020001 	stcvc	0, cr0, [r2], {1}
 430:	000d0c0e 	andeq	r0, sp, lr, lsl #24
 434:	00000014 	andeq	r0, r0, r4, lsl r0
 438:	00000424 	andeq	r0, r0, r4, lsr #8
 43c:	000097d8 	ldrdeq	r9, [r0], -r8
 440:	00000014 	andeq	r0, r0, r4, lsl r0
 444:	84080e42 	strhi	r0, [r8], #-3650	; 0xe42
 448:	00018e02 	andeq	r8, r1, r2, lsl #28
 44c:	0000000c 	andeq	r0, r0, ip
 450:	00000424 	andeq	r0, r0, r4, lsr #8
 454:	000097ec 	andeq	r9, r0, ip, ror #15
 458:	00000018 	andeq	r0, r0, r8, lsl r0
 45c:	0000000c 	andeq	r0, r0, ip
 460:	00000424 	andeq	r0, r0, r4, lsr #8
 464:	00009804 	andeq	r9, r0, r4, lsl #16
 468:	00000010 	andeq	r0, r0, r0, lsl r0
 46c:	0000000c 	andeq	r0, r0, ip
 470:	ffffffff 			; <UNDEFINED> instruction: 0xffffffff
 474:	7c020001 	stcvc	0, cr0, [r2], {1}
 478:	000d0c0e 	andeq	r0, sp, lr, lsl #24
 47c:	00000018 	andeq	r0, r0, r8, lsl r0
 480:	0000046c 	andeq	r0, r0, ip, ror #8
 484:	00009814 	andeq	r9, r0, r4, lsl r8
 488:	00000034 	andeq	r0, r0, r4, lsr r0
 48c:	83100e42 	tsthi	r0, #1056	; 0x420
 490:	85038404 	strhi	r8, [r3, #-1028]	; 0x404
 494:	00018e02 	andeq	r8, r1, r2, lsl #28
 498:	0000000c 	andeq	r0, r0, ip
 49c:	ffffffff 			; <UNDEFINED> instruction: 0xffffffff
 4a0:	7c020001 	stcvc	0, cr0, [r2], {1}
 4a4:	000d0c0e 	andeq	r0, sp, lr, lsl #24
 4a8:	0000000c 	andeq	r0, r0, ip
 4ac:	00000498 	muleq	r0, r8, r4
 4b0:	00009848 	andeq	r9, r0, r8, asr #16
 4b4:	00000014 	andeq	r0, r0, r4, lsl r0
 4b8:	0000000c 	andeq	r0, r0, ip
 4bc:	00000498 	muleq	r0, r8, r4
 4c0:	0000985c 	andeq	r9, r0, ip, asr r8
 4c4:	0000002c 	andeq	r0, r0, ip, lsr #32
 4c8:	0000000c 	andeq	r0, r0, ip
 4cc:	00000498 	muleq	r0, r8, r4
 4d0:	00009888 	andeq	r9, r0, r8, lsl #17
 4d4:	00000040 	andeq	r0, r0, r0, asr #32
 4d8:	00000020 	andeq	r0, r0, r0, lsr #32
 4dc:	00000498 	muleq	r0, r8, r4
 4e0:	000098c8 	andeq	r9, r0, r8, asr #17
 4e4:	0000019c 	muleq	r0, ip, r1
 4e8:	84180e42 	ldrhi	r0, [r8], #-3650	; 0xe42
 4ec:	86058506 	strhi	r8, [r5], -r6, lsl #10
 4f0:	88038704 	stmdahi	r3, {r2, r8, r9, sl, pc}
 4f4:	42018e02 	andmi	r8, r1, #2, 28
 4f8:	0000580e 	andeq	r5, r0, lr, lsl #16
 4fc:	00000014 	andeq	r0, r0, r4, lsl r0
 500:	00000498 	muleq	r0, r8, r4
 504:	00009a64 	andeq	r9, r0, r4, ror #20
 508:	00000054 	andeq	r0, r0, r4, asr r0
 50c:	83080e42 	movwhi	r0, #36418	; 0x8e42
 510:	00018e02 	andeq	r8, r1, r2, lsl #28
 514:	00000028 	andeq	r0, r0, r8, lsr #32
 518:	00000498 	muleq	r0, r8, r4
 51c:	00009ab8 			; <UNDEFINED> instruction: 0x00009ab8
 520:	00000288 	andeq	r0, r0, r8, lsl #5
 524:	84240e42 	strthi	r0, [r4], #-3650	; 0xe42
 528:	86088509 	strhi	r8, [r8], -r9, lsl #10
 52c:	88068707 	stmdahi	r6, {r0, r1, r2, r8, r9, sl, pc}
 530:	8a048905 	bhi	12294c <__bss_end__+0x1165c4>
 534:	8e028b03 	vmlahi.f64	d8, d2, d3
 538:	b00e4201 	andlt	r4, lr, r1, lsl #4
 53c:	00000001 	andeq	r0, r0, r1
 540:	0000000c 	andeq	r0, r0, ip
 544:	ffffffff 			; <UNDEFINED> instruction: 0xffffffff
 548:	7c020001 	stcvc	0, cr0, [r2], {1}
 54c:	000d0c0e 	andeq	r0, sp, lr, lsl #24
 550:	00000014 	andeq	r0, r0, r4, lsl r0
 554:	00000540 	andeq	r0, r0, r0, asr #10
 558:	00009d40 	andeq	r9, r0, r0, asr #26
 55c:	00000028 	andeq	r0, r0, r8, lsr #32
 560:	83080e42 	movwhi	r0, #36418	; 0x8e42
 564:	00018e02 	andeq	r8, r1, r2, lsl #28
 568:	0000000c 	andeq	r0, r0, ip
 56c:	ffffffff 			; <UNDEFINED> instruction: 0xffffffff
 570:	7c020001 	stcvc	0, cr0, [r2], {1}
 574:	000d0c0e 	andeq	r0, sp, lr, lsl #24
 578:	00000014 	andeq	r0, r0, r4, lsl r0
 57c:	00000568 	andeq	r0, r0, r8, ror #10
 580:	00009d68 	andeq	r9, r0, r8, ror #26
 584:	00000020 	andeq	r0, r0, r0, lsr #32
 588:	84080e42 	strhi	r0, [r8], #-3650	; 0xe42
 58c:	00018e02 	andeq	r8, r1, r2, lsl #28
 590:	00000014 	andeq	r0, r0, r4, lsl r0
 594:	00000568 	andeq	r0, r0, r8, ror #10
 598:	00009d88 	andeq	r9, r0, r8, lsl #27
 59c:	00000090 	muleq	r0, r0, r0
 5a0:	83080e42 	movwhi	r0, #36418	; 0x8e42
 5a4:	00018e02 	andeq	r8, r1, r2, lsl #28
 5a8:	0000000c 	andeq	r0, r0, ip
 5ac:	ffffffff 			; <UNDEFINED> instruction: 0xffffffff
 5b0:	7c020001 	stcvc	0, cr0, [r2], {1}
 5b4:	000d0c0e 	andeq	r0, sp, lr, lsl #24
 5b8:	0000000c 	andeq	r0, r0, ip
 5bc:	000005a8 	andeq	r0, r0, r8, lsr #11
 5c0:	00009e18 	andeq	r9, r0, r8, lsl lr
 5c4:	00000018 	andeq	r0, r0, r8, lsl r0
 5c8:	0000000c 	andeq	r0, r0, ip
 5cc:	000005a8 	andeq	r0, r0, r8, lsr #11
 5d0:	00009e30 	andeq	r9, r0, r0, lsr lr
 5d4:	00000014 	andeq	r0, r0, r4, lsl r0
 5d8:	00000014 	andeq	r0, r0, r4, lsl r0
 5dc:	000005a8 	andeq	r0, r0, r8, lsr #11
 5e0:	00009e44 	andeq	r9, r0, r4, asr #28
 5e4:	00000048 	andeq	r0, r0, r8, asr #32
 5e8:	83080e42 	movwhi	r0, #36418	; 0x8e42
 5ec:	00018e02 	andeq	r8, r1, r2, lsl #28
 5f0:	0000000c 	andeq	r0, r0, ip
 5f4:	ffffffff 			; <UNDEFINED> instruction: 0xffffffff
 5f8:	7c020001 	stcvc	0, cr0, [r2], {1}
 5fc:	000d0c0e 	andeq	r0, sp, lr, lsl #24
 600:	0000000c 	andeq	r0, r0, ip
 604:	000005f0 	strdeq	r0, [r0], -r0	; <UNPREDICTABLE>
 608:	00009e8c 	andeq	r9, r0, ip, lsl #29
 60c:	0000001c 	andeq	r0, r0, ip, lsl r0
 610:	00000014 	andeq	r0, r0, r4, lsl r0
 614:	000005f0 	strdeq	r0, [r0], -r0	; <UNPREDICTABLE>
 618:	00009ea8 	andeq	r9, r0, r8, lsr #29
 61c:	00000014 	andeq	r0, r0, r4, lsl r0
 620:	83080e42 	movwhi	r0, #36418	; 0x8e42
 624:	00018e02 	andeq	r8, r1, r2, lsl #28
 628:	00000014 	andeq	r0, r0, r4, lsl r0
 62c:	000005f0 	strdeq	r0, [r0], -r0	; <UNPREDICTABLE>
 630:	00009ebc 			; <UNDEFINED> instruction: 0x00009ebc
 634:	0000000c 	andeq	r0, r0, ip
 638:	83080e42 	movwhi	r0, #36418	; 0x8e42
 63c:	00018e02 	andeq	r8, r1, r2, lsl #28
 640:	00000018 	andeq	r0, r0, r8, lsl r0
 644:	000005f0 	strdeq	r0, [r0], -r0	; <UNPREDICTABLE>
 648:	00009ec8 	andeq	r9, r0, r8, asr #29
 64c:	00000024 	andeq	r0, r0, r4, lsr #32
 650:	83100e42 	tsthi	r0, #1056	; 0x420
 654:	85038404 	strhi	r8, [r3, #-1028]	; 0x404
 658:	00018e02 	andeq	r8, r1, r2, lsl #28
 65c:	00000014 	andeq	r0, r0, r4, lsl r0
 660:	000005f0 	strdeq	r0, [r0], -r0	; <UNPREDICTABLE>
 664:	00009eec 	andeq	r9, r0, ip, ror #29
 668:	00000014 	andeq	r0, r0, r4, lsl r0
 66c:	83080e42 	movwhi	r0, #36418	; 0x8e42
 670:	00018e02 	andeq	r8, r1, r2, lsl #28
 674:	00000014 	andeq	r0, r0, r4, lsl r0
 678:	000005f0 	strdeq	r0, [r0], -r0	; <UNPREDICTABLE>
 67c:	00009f00 	andeq	r9, r0, r0, lsl #30
 680:	00000014 	andeq	r0, r0, r4, lsl r0
 684:	83080e42 	movwhi	r0, #36418	; 0x8e42
 688:	00018e02 	andeq	r8, r1, r2, lsl #28
 68c:	0000000c 	andeq	r0, r0, ip
 690:	ffffffff 			; <UNDEFINED> instruction: 0xffffffff
 694:	7c020001 	stcvc	0, cr0, [r2], {1}
 698:	000d0c0e 	andeq	r0, sp, lr, lsl #24
 69c:	0000001c 	andeq	r0, r0, ip, lsl r0
 6a0:	0000068c 	andeq	r0, r0, ip, lsl #13
 6a4:	00009f14 	andeq	r9, r0, r4, lsl pc
 6a8:	00000154 	andeq	r0, r0, r4, asr r1
 6ac:	84180e42 	ldrhi	r0, [r8], #-3650	; 0xe42
 6b0:	86058506 	strhi	r8, [r5], -r6, lsl #10
 6b4:	88038704 	stmdahi	r3, {r2, r8, r9, sl, pc}
 6b8:	00018e02 	andeq	r8, r1, r2, lsl #28
 6bc:	00000020 	andeq	r0, r0, r0, lsr #32
 6c0:	0000068c 	andeq	r0, r0, ip, lsl #13
 6c4:	0000a068 	andeq	sl, r0, r8, rrx
 6c8:	000001c8 	andeq	r0, r0, r8, asr #3
 6cc:	83200e42 	teqhi	r0, #1056	; 0x420
 6d0:	85078408 	strhi	r8, [r7, #-1032]	; 0x408
 6d4:	87058606 	strhi	r8, [r5, -r6, lsl #12]
 6d8:	89038804 	stmdbhi	r3, {r2, fp, pc}
 6dc:	00018e02 	andeq	r8, r1, r2, lsl #28
 6e0:	00000020 	andeq	r0, r0, r0, lsr #32
 6e4:	0000068c 	andeq	r0, r0, ip, lsl #13
 6e8:	0000a230 	andeq	sl, r0, r0, lsr r2
 6ec:	00000090 	muleq	r0, r0, r0
 6f0:	84200e42 	strthi	r0, [r0], #-3650	; 0xe42
 6f4:	86078508 	strhi	r8, [r7], -r8, lsl #10
 6f8:	88058706 	stmdahi	r5, {r1, r2, r8, r9, sl, pc}
 6fc:	8a038904 	bhi	e2b14 <__bss_end__+0xd678c>
 700:	00018e02 	andeq	r8, r1, r2, lsl #28
 704:	0000001c 	andeq	r0, r0, ip, lsl r0
 708:	0000068c 	andeq	r0, r0, ip, lsl #13
 70c:	0000a2c0 	andeq	sl, r0, r0, asr #5
 710:	0000007c 	andeq	r0, r0, ip, ror r0
 714:	84180e42 	ldrhi	r0, [r8], #-3650	; 0xe42
 718:	86058506 	strhi	r8, [r5], -r6, lsl #10
 71c:	88038704 	stmdahi	r3, {r2, r8, r9, sl, pc}
 720:	00018e02 	andeq	r8, r1, r2, lsl #28
 724:	0000001c 	andeq	r0, r0, ip, lsl r0
 728:	0000068c 	andeq	r0, r0, ip, lsl #13
 72c:	0000a33c 	andeq	sl, r0, ip, lsr r3
 730:	000000c0 	andeq	r0, r0, r0, asr #1
 734:	84180e42 	ldrhi	r0, [r8], #-3650	; 0xe42
 738:	86058506 	strhi	r8, [r5], -r6, lsl #10
 73c:	88038704 	stmdahi	r3, {r2, r8, r9, sl, pc}
 740:	00018e02 	andeq	r8, r1, r2, lsl #28
 744:	00000014 	andeq	r0, r0, r4, lsl r0
 748:	0000068c 	andeq	r0, r0, ip, lsl #13
 74c:	0000a3fc 	strdeq	sl, [r0], -ip
 750:	0000003c 	andeq	r0, r0, ip, lsr r0
 754:	83080e42 	movwhi	r0, #36418	; 0x8e42
 758:	00018e02 	andeq	r8, r1, r2, lsl #28
 75c:	00000018 	andeq	r0, r0, r8, lsl r0
 760:	0000068c 	andeq	r0, r0, ip, lsl #13
 764:	0000a438 	andeq	sl, r0, r8, lsr r4
 768:	0000002c 	andeq	r0, r0, ip, lsr #32
 76c:	83100e42 	tsthi	r0, #1056	; 0x420
 770:	85038404 	strhi	r8, [r3, #-1028]	; 0x404
 774:	00018e02 	andeq	r8, r1, r2, lsl #28
 778:	00000024 	andeq	r0, r0, r4, lsr #32
 77c:	0000068c 	andeq	r0, r0, ip, lsl #13
 780:	0000a464 	andeq	sl, r0, r4, ror #8
 784:	00000084 	andeq	r0, r0, r4, lsl #1
 788:	810c0e42 	tsthi	ip, r2, asr #28
 78c:	83028203 	movwhi	r8, #8707	; 0x2203
 790:	180e4201 	stmdane	lr, {r0, r9, lr}
 794:	05850684 	streq	r0, [r5, #1668]	; 0x684
 798:	0e42048e 	cdpeq	4, 4, cr0, cr2, cr14, {4}
 79c:	000003e8 	andeq	r0, r0, r8, ror #7
 7a0:	00000014 	andeq	r0, r0, r4, lsl r0
 7a4:	0000068c 	andeq	r0, r0, ip, lsl #13
 7a8:	0000a4e8 	andeq	sl, r0, r8, ror #9
 7ac:	0000004c 	andeq	r0, r0, ip, asr #32
 7b0:	8e040e42 	cdphi	14, 0, cr0, cr4, cr2, {2}
 7b4:	100e4201 	andne	r4, lr, r1, lsl #4
 7b8:	0000000c 	andeq	r0, r0, ip
 7bc:	ffffffff 			; <UNDEFINED> instruction: 0xffffffff
 7c0:	7c020001 	stcvc	0, cr0, [r2], {1}
 7c4:	000d0c0e 	andeq	r0, sp, lr, lsl #24
 7c8:	00000018 	andeq	r0, r0, r8, lsl r0
 7cc:	000007b8 			; <UNDEFINED> instruction: 0x000007b8
 7d0:	0000a534 	andeq	sl, r0, r4, lsr r5
 7d4:	0000009c 	muleq	r0, ip, r0
 7d8:	83100e42 	tsthi	r0, #1056	; 0x420
 7dc:	85038404 	strhi	r8, [r3, #-1028]	; 0x404
 7e0:	00018e02 	andeq	r8, r1, r2, lsl #28
 7e4:	00000014 	andeq	r0, r0, r4, lsl r0
 7e8:	000007b8 			; <UNDEFINED> instruction: 0x000007b8
 7ec:	0000a5d0 	ldrdeq	sl, [r0], -r0
 7f0:	0000001c 	andeq	r0, r0, ip, lsl r0
 7f4:	83080e42 	movwhi	r0, #36418	; 0x8e42
 7f8:	00018e02 	andeq	r8, r1, r2, lsl #28
 7fc:	00000014 	andeq	r0, r0, r4, lsl r0
 800:	000007b8 			; <UNDEFINED> instruction: 0x000007b8
 804:	0000a5ec 	andeq	sl, r0, ip, ror #11
 808:	00000028 	andeq	r0, r0, r8, lsr #32
 80c:	83080e42 	movwhi	r0, #36418	; 0x8e42
 810:	00018e02 	andeq	r8, r1, r2, lsl #28
 814:	00000014 	andeq	r0, r0, r4, lsl r0
 818:	000007b8 			; <UNDEFINED> instruction: 0x000007b8
 81c:	0000a614 	andeq	sl, r0, r4, lsl r6
 820:	0000001c 	andeq	r0, r0, ip, lsl r0
 824:	83080e42 	movwhi	r0, #36418	; 0x8e42
 828:	00018e02 	andeq	r8, r1, r2, lsl #28
 82c:	00000014 	andeq	r0, r0, r4, lsl r0
 830:	000007b8 			; <UNDEFINED> instruction: 0x000007b8
 834:	0000a630 	andeq	sl, r0, r0, lsr r6
 838:	0000002c 	andeq	r0, r0, ip, lsr #32
 83c:	84080e42 	strhi	r0, [r8], #-3650	; 0xe42
 840:	00018e02 	andeq	r8, r1, r2, lsl #28
 844:	00000014 	andeq	r0, r0, r4, lsl r0
 848:	000007b8 			; <UNDEFINED> instruction: 0x000007b8
 84c:	0000a65c 	andeq	sl, r0, ip, asr r6
 850:	0000000c 	andeq	r0, r0, ip
 854:	83080e42 	movwhi	r0, #36418	; 0x8e42
 858:	00018e02 	andeq	r8, r1, r2, lsl #28
 85c:	00000014 	andeq	r0, r0, r4, lsl r0
 860:	000007b8 			; <UNDEFINED> instruction: 0x000007b8
 864:	0000a668 	andeq	sl, r0, r8, ror #12
 868:	00000020 	andeq	r0, r0, r0, lsr #32
 86c:	83080e42 	movwhi	r0, #36418	; 0x8e42
 870:	00018e02 	andeq	r8, r1, r2, lsl #28
 874:	0000000c 	andeq	r0, r0, ip
 878:	ffffffff 			; <UNDEFINED> instruction: 0xffffffff
 87c:	7c020001 	stcvc	0, cr0, [r2], {1}
 880:	000d0c0e 	andeq	r0, sp, lr, lsl #24
 884:	00000014 	andeq	r0, r0, r4, lsl r0
 888:	00000874 	andeq	r0, r0, r4, ror r8
 88c:	0000a688 	andeq	sl, r0, r8, lsl #13
 890:	00000068 	andeq	r0, r0, r8, rrx
 894:	83080e42 	movwhi	r0, #36418	; 0x8e42
 898:	00018e02 	andeq	r8, r1, r2, lsl #28
 89c:	00000014 	andeq	r0, r0, r4, lsl r0
 8a0:	00000874 	andeq	r0, r0, r4, ror r8
 8a4:	0000a6f0 	strdeq	sl, [r0], -r0
 8a8:	00000044 	andeq	r0, r0, r4, asr #32
 8ac:	8e040e42 	cdphi	14, 0, cr0, cr4, cr2, {2}
 8b0:	100e4201 	andne	r4, lr, r1, lsl #4
 8b4:	0000000c 	andeq	r0, r0, ip
 8b8:	ffffffff 			; <UNDEFINED> instruction: 0xffffffff
 8bc:	7c020001 	stcvc	0, cr0, [r2], {1}
 8c0:	000d0c0e 	andeq	r0, sp, lr, lsl #24
 8c4:	00000018 	andeq	r0, r0, r8, lsl r0
 8c8:	000008b4 			; <UNDEFINED> instruction: 0x000008b4
 8cc:	0000a884 	andeq	sl, r0, r4, lsl #17
 8d0:	000000d4 	ldrdeq	r0, [r0], -r4
 8d4:	83100e42 	tsthi	r0, #1056	; 0x420
 8d8:	85038404 	strhi	r8, [r3, #-1028]	; 0x404
 8dc:	00018e02 	andeq	r8, r1, r2, lsl #28
 8e0:	00000014 	andeq	r0, r0, r4, lsl r0
 8e4:	000008b4 			; <UNDEFINED> instruction: 0x000008b4
 8e8:	0000a958 	andeq	sl, r0, r8, asr r9
 8ec:	00000038 	andeq	r0, r0, r8, lsr r0
 8f0:	83080e42 	movwhi	r0, #36418	; 0x8e42
 8f4:	00018e02 	andeq	r8, r1, r2, lsl #28
 8f8:	00000014 	andeq	r0, r0, r4, lsl r0
 8fc:	000008b4 			; <UNDEFINED> instruction: 0x000008b4
 900:	0000a990 	muleq	r0, r0, r9
 904:	00000038 	andeq	r0, r0, r8, lsr r0
 908:	83080e42 	movwhi	r0, #36418	; 0x8e42
 90c:	00018e02 	andeq	r8, r1, r2, lsl #28
 910:	00000018 	andeq	r0, r0, r8, lsl r0
 914:	000008b4 			; <UNDEFINED> instruction: 0x000008b4
 918:	0000a9c8 	andeq	sl, r0, r8, asr #19
 91c:	000000cc 	andeq	r0, r0, ip, asr #1
 920:	83100e42 	tsthi	r0, #1056	; 0x420
 924:	85038404 	strhi	r8, [r3, #-1028]	; 0x404
 928:	00018e02 	andeq	r8, r1, r2, lsl #28
 92c:	00000014 	andeq	r0, r0, r4, lsl r0
 930:	000008b4 			; <UNDEFINED> instruction: 0x000008b4
 934:	0000aa94 	muleq	r0, r4, sl
 938:	0000004c 	andeq	r0, r0, ip, asr #32
 93c:	84080e42 	strhi	r0, [r8], #-3650	; 0xe42
 940:	00018e02 	andeq	r8, r1, r2, lsl #28
 944:	00000014 	andeq	r0, r0, r4, lsl r0
 948:	000008b4 			; <UNDEFINED> instruction: 0x000008b4
 94c:	0000aae0 	andeq	sl, r0, r0, ror #21
 950:	00000024 	andeq	r0, r0, r4, lsr #32
 954:	83080e42 	movwhi	r0, #36418	; 0x8e42
 958:	00018e02 	andeq	r8, r1, r2, lsl #28
 95c:	00000018 	andeq	r0, r0, r8, lsl r0
 960:	000008b4 			; <UNDEFINED> instruction: 0x000008b4
 964:	0000ab04 	andeq	sl, r0, r4, lsl #22
 968:	000000d8 	ldrdeq	r0, [r0], -r8
 96c:	84100e42 	ldrhi	r0, [r0], #-3650	; 0xe42
 970:	86038504 	strhi	r8, [r3], -r4, lsl #10
 974:	00018e02 	andeq	r8, r1, r2, lsl #28
 978:	00000014 	andeq	r0, r0, r4, lsl r0
 97c:	000008b4 			; <UNDEFINED> instruction: 0x000008b4
 980:	0000abdc 	ldrdeq	sl, [r0], -ip
 984:	0000002c 	andeq	r0, r0, ip, lsr #32
 988:	83080e42 	movwhi	r0, #36418	; 0x8e42
 98c:	00018e02 	andeq	r8, r1, r2, lsl #28
 990:	00000018 	andeq	r0, r0, r8, lsl r0
 994:	000008b4 			; <UNDEFINED> instruction: 0x000008b4
 998:	0000ac08 	andeq	sl, r0, r8, lsl #24
 99c:	00000084 	andeq	r0, r0, r4, lsl #1
 9a0:	83100e42 	tsthi	r0, #1056	; 0x420
 9a4:	85038404 	strhi	r8, [r3, #-1028]	; 0x404
 9a8:	00018e02 	andeq	r8, r1, r2, lsl #28
 9ac:	00000018 	andeq	r0, r0, r8, lsl r0
 9b0:	000008b4 			; <UNDEFINED> instruction: 0x000008b4
 9b4:	0000ac8c 	andeq	sl, r0, ip, lsl #25
 9b8:	00000084 	andeq	r0, r0, r4, lsl #1
 9bc:	83100e42 	tsthi	r0, #1056	; 0x420
 9c0:	85038404 	strhi	r8, [r3, #-1028]	; 0x404
 9c4:	00018e02 	andeq	r8, r1, r2, lsl #28
 9c8:	00000014 	andeq	r0, r0, r4, lsl r0
 9cc:	000008b4 			; <UNDEFINED> instruction: 0x000008b4
 9d0:	0000ad10 	andeq	sl, r0, r0, lsl sp
 9d4:	00000084 	andeq	r0, r0, r4, lsl #1
 9d8:	84080e42 	strhi	r0, [r8], #-3650	; 0xe42
 9dc:	00018e02 	andeq	r8, r1, r2, lsl #28
 9e0:	00000014 	andeq	r0, r0, r4, lsl r0
 9e4:	000008b4 			; <UNDEFINED> instruction: 0x000008b4
 9e8:	0000ad94 	muleq	r0, r4, sp
 9ec:	00000058 	andeq	r0, r0, r8, asr r0
 9f0:	84080e42 	strhi	r0, [r8], #-3650	; 0xe42
 9f4:	00018e02 	andeq	r8, r1, r2, lsl #28
 9f8:	0000000c 	andeq	r0, r0, ip
 9fc:	ffffffff 			; <UNDEFINED> instruction: 0xffffffff
 a00:	7c020001 	stcvc	0, cr0, [r2], {1}
 a04:	000d0c0e 	andeq	r0, sp, lr, lsl #24
 a08:	00000014 	andeq	r0, r0, r4, lsl r0
 a0c:	000009f8 	strdeq	r0, [r0], -r8
 a10:	0000adec 	andeq	sl, r0, ip, ror #27
 a14:	00000028 	andeq	r0, r0, r8, lsr #32
 a18:	83080e42 	movwhi	r0, #36418	; 0x8e42
 a1c:	00018e02 	andeq	r8, r1, r2, lsl #28
 a20:	0000000c 	andeq	r0, r0, ip
 a24:	000009f8 	strdeq	r0, [r0], -r8
 a28:	0000ae14 	andeq	sl, r0, r4, lsl lr
 a2c:	00000028 	andeq	r0, r0, r8, lsr #32
 a30:	0000000c 	andeq	r0, r0, ip
 a34:	ffffffff 			; <UNDEFINED> instruction: 0xffffffff
 a38:	7c020001 	stcvc	0, cr0, [r2], {1}
 a3c:	000d0c0e 	andeq	r0, sp, lr, lsl #24
 a40:	00000014 	andeq	r0, r0, r4, lsl r0
 a44:	00000a30 	andeq	r0, r0, r0, lsr sl
 a48:	0000ae3c 	andeq	sl, r0, ip, lsr lr
 a4c:	00000044 	andeq	r0, r0, r4, asr #32
 a50:	8e040e42 	cdphi	14, 0, cr0, cr4, cr2, {2}
 a54:	100e4201 	andne	r4, lr, r1, lsl #4
 a58:	0000000c 	andeq	r0, r0, ip
 a5c:	ffffffff 			; <UNDEFINED> instruction: 0xffffffff
 a60:	7c020001 	stcvc	0, cr0, [r2], {1}
 a64:	000d0c0e 	andeq	r0, sp, lr, lsl #24
 a68:	00000014 	andeq	r0, r0, r4, lsl r0
 a6c:	00000a58 	andeq	r0, r0, r8, asr sl
 a70:	0000ae80 	andeq	sl, r0, r0, lsl #29
 a74:	00000044 	andeq	r0, r0, r4, asr #32
 a78:	8e040e42 	cdphi	14, 0, cr0, cr4, cr2, {2}
 a7c:	100e4201 	andne	r4, lr, r1, lsl #4
