
pi-vmm.elf:     file format elf32-littlearm


Disassembly of section .text:

00008000 <_start>:
    8000:	e3a0d302 	mov	sp, #134217728	; 0x8000000
    8004:	e3a0b000 	mov	fp, #0
    8008:	eb000222 	bl	8898 <_cstart>
    800c:	eb000250 	bl	8954 <rpi_reboot>

00008010 <read_exact>:
    8010:	e92d4070 	push	{r4, r5, r6, lr}
    8014:	e1a06000 	mov	r6, r0
    8018:	e1a05001 	mov	r5, r1
    801c:	e3a04000 	mov	r4, #0
    8020:	ea000002 	b	8030 <read_exact+0x20>
    8024:	eb000854 	bl	a17c <uart_getc_int>
    8028:	e7c60004 	strb	r0, [r6, r4]
    802c:	e2844001 	add	r4, r4, #1
    8030:	e1540005 	cmp	r4, r5
    8034:	3afffffa 	bcc	8024 <read_exact+0x14>
    8038:	e8bd8070 	pop	{r4, r5, r6, pc}

0000803c <get_uint32>:
    803c:	e52de004 	push	{lr}		; (str lr, [sp, #-4]!)
    8040:	e24dd00c 	sub	sp, sp, #12
    8044:	e28d0004 	add	r0, sp, #4
    8048:	e3a01004 	mov	r1, #4
    804c:	ebffffef 	bl	8010 <read_exact>
    8050:	e59d0004 	ldr	r0, [sp, #4]
    8054:	e28dd00c 	add	sp, sp, #12
    8058:	e49df004 	pop	{pc}		; (ldr pc, [sp], #4)

0000805c <net_putchar>:
    805c:	e92d4010 	push	{r4, lr}
    8060:	e1a04000 	mov	r4, r0
    8064:	e3a00003 	mov	r0, #3
    8068:	eb000860 	bl	a1f0 <uart_putc_int>
    806c:	e6ef0074 	uxtb	r0, r4
    8070:	eb00085e 	bl	a1f0 <uart_putc_int>
    8074:	e1a00004 	mov	r0, r4
    8078:	e8bd8010 	pop	{r4, pc}

0000807c <write_exact>:
    807c:	e92d4070 	push	{r4, r5, r6, lr}
    8080:	e1a06000 	mov	r6, r0
    8084:	e1a05001 	mov	r5, r1
    8088:	e3a04000 	mov	r4, #0
    808c:	ea000002 	b	809c <write_exact+0x20>
    8090:	e7d60004 	ldrb	r0, [r6, r4]
    8094:	eb000855 	bl	a1f0 <uart_putc_int>
    8098:	e2844001 	add	r4, r4, #1
    809c:	e1540005 	cmp	r4, r5
    80a0:	3afffffa 	bcc	8090 <write_exact+0x14>
    80a4:	e8bd8070 	pop	{r4, r5, r6, pc}

000080a8 <put_uint32>:
    80a8:	e52de004 	push	{lr}		; (str lr, [sp, #-4]!)
    80ac:	e24dd00c 	sub	sp, sp, #12
    80b0:	e28d3008 	add	r3, sp, #8
    80b4:	e5230004 	str	r0, [r3, #-4]!
    80b8:	e1a00003 	mov	r0, r3
    80bc:	e3a01004 	mov	r1, #4
    80c0:	ebffffed 	bl	807c <write_exact>
    80c4:	e28dd00c 	add	sp, sp, #12
    80c8:	e49df004 	pop	{pc}		; (ldr pc, [sp], #4)

000080cc <interrupt_vector>:
    80cc:	e92d4008 	push	{r3, lr}
    80d0:	eb0007ef 	bl	a094 <uart_interrupt_handler>
    80d4:	e8bd8008 	pop	{r3, pc}

000080d8 <notmain>:
    80d8:	e92d4070 	push	{r4, r5, r6, lr}
    80dc:	e24dd008 	sub	sp, sp, #8
    80e0:	eb00059b 	bl	9754 <int_init>
    80e4:	eb0006ee 	bl	9ca4 <uart_init_with_interrupts>
    80e8:	eb000632 	bl	99b8 <system_enable_interrupts>
    80ec:	e59f0180 	ldr	r0, [pc, #384]	; 8274 <notmain+0x19c>
    80f0:	eb000087 	bl	8314 <rpi_set_putc>
    80f4:	eb000820 	bl	a17c <uart_getc_int>
    80f8:	e3500001 	cmp	r0, #1
    80fc:	0a000006 	beq	811c <notmain+0x44>
    8100:	eb00007d 	bl	82fc <rpi_reset_putc>
    8104:	e59f016c 	ldr	r0, [pc, #364]	; 8278 <notmain+0x1a0>
    8108:	e59f116c 	ldr	r1, [pc, #364]	; 827c <notmain+0x1a4>
    810c:	e59f216c 	ldr	r2, [pc, #364]	; 8280 <notmain+0x1a8>
    8110:	e3a0304d 	mov	r3, #77	; 0x4d
    8114:	eb00005d 	bl	8290 <printk>
    8118:	eb0001cc 	bl	8850 <clean_reboot>
    811c:	e3a00001 	mov	r0, #1
    8120:	eb000832 	bl	a1f0 <uart_putc_int>
    8124:	e59f0158 	ldr	r0, [pc, #344]	; 8284 <notmain+0x1ac>
    8128:	eb000058 	bl	8290 <printk>
    812c:	e3a06012 	mov	r6, #18
    8130:	e3a0500a 	mov	r5, #10
    8134:	eb000810 	bl	a17c <uart_getc_int>
    8138:	e6ef4070 	uxtb	r4, r0
    813c:	e2443004 	sub	r3, r4, #4
    8140:	e353000d 	cmp	r3, #13
    8144:	979ff103 	ldrls	pc, [pc, r3, lsl #2]
    8148:	ea000041 	b	8254 <notmain+0x17c>
    814c:	00008184 	andeq	r8, r0, r4, lsl #3
    8150:	00008254 	andeq	r8, r0, r4, asr r2
    8154:	00008254 	andeq	r8, r0, r4, asr r2
    8158:	00008254 	andeq	r8, r0, r4, asr r2
    815c:	00008254 	andeq	r8, r0, r4, asr r2
    8160:	000081e4 	andeq	r8, r0, r4, ror #3
    8164:	00008254 	andeq	r8, r0, r4, asr r2
    8168:	00008218 	andeq	r8, r0, r8, lsl r2
    816c:	000081d4 	ldrdeq	r8, [r0], -r4
    8170:	00008208 	andeq	r8, r0, r8, lsl #4
    8174:	00008234 	andeq	r8, r0, r4, lsr r2
    8178:	00008244 	andeq	r8, r0, r4, asr #4
    817c:	000081b8 			; <UNDEFINED> instruction: 0x000081b8
    8180:	00008198 	muleq	r0, r8, r1
    8184:	e59f00fc 	ldr	r0, [pc, #252]	; 8288 <notmain+0x1b0>
    8188:	eb000040 	bl	8290 <printk>
    818c:	e3a0000a 	mov	r0, #10
    8190:	eb000219 	bl	89fc <delay_ms>
    8194:	eb0001ad 	bl	8850 <clean_reboot>
    8198:	ebffffa7 	bl	803c <get_uint32>
    819c:	eb000600 	bl	99a4 <GET32>
    81a0:	e1a04000 	mov	r4, r0
    81a4:	e1a00006 	mov	r0, r6
    81a8:	eb000810 	bl	a1f0 <uart_putc_int>
    81ac:	e1a00004 	mov	r0, r4
    81b0:	ebffffbc 	bl	80a8 <put_uint32>
    81b4:	eaffffde 	b	8134 <notmain+0x5c>
    81b8:	ebffff9f 	bl	803c <get_uint32>
    81bc:	e1a04000 	mov	r4, r0
    81c0:	ebffff9d 	bl	803c <get_uint32>
    81c4:	e1a01000 	mov	r1, r0
    81c8:	e1a00004 	mov	r0, r4
    81cc:	eb0005e8 	bl	9974 <PUT32>
    81d0:	eaffffd7 	b	8134 <notmain+0x5c>
    81d4:	eb0007e8 	bl	a17c <uart_getc_int>
    81d8:	e6ef0070 	uxtb	r0, r0
    81dc:	eb000261 	bl	8b68 <gpio_set_input>
    81e0:	eaffffd3 	b	8134 <notmain+0x5c>
    81e4:	eb0007e4 	bl	a17c <uart_getc_int>
    81e8:	e6ef0070 	uxtb	r0, r0
    81ec:	eb000290 	bl	8c34 <gpio_read>
    81f0:	e1a04000 	mov	r4, r0
    81f4:	e1a00005 	mov	r0, r5
    81f8:	eb0007fc 	bl	a1f0 <uart_putc_int>
    81fc:	e1a00004 	mov	r0, r4
    8200:	ebffffa8 	bl	80a8 <put_uint32>
    8204:	eaffffca 	b	8134 <notmain+0x5c>
    8208:	eb0007db 	bl	a17c <uart_getc_int>
    820c:	e6ef0070 	uxtb	r0, r0
    8210:	eb000203 	bl	8a24 <gpio_set_output>
    8214:	eaffffc6 	b	8134 <notmain+0x5c>
    8218:	eb0007d7 	bl	a17c <uart_getc_int>
    821c:	e1a04000 	mov	r4, r0
    8220:	ebffff85 	bl	803c <get_uint32>
    8224:	e1a01000 	mov	r1, r0
    8228:	e6ef0074 	uxtb	r0, r4
    822c:	eb000293 	bl	8c80 <gpio_write>
    8230:	eaffffbf 	b	8134 <notmain+0x5c>
    8234:	eb0007d0 	bl	a17c <uart_getc_int>
    8238:	e6ef0070 	uxtb	r0, r0
    823c:	eb00022d 	bl	8af8 <gpio_set_on>
    8240:	eaffffbb 	b	8134 <notmain+0x5c>
    8244:	eb0007cc 	bl	a17c <uart_getc_int>
    8248:	e6ef0070 	uxtb	r0, r0
    824c:	eb000237 	bl	8b30 <gpio_set_off>
    8250:	eaffffb7 	b	8134 <notmain+0x5c>
    8254:	eb000028 	bl	82fc <rpi_reset_putc>
    8258:	e58d4000 	str	r4, [sp]
    825c:	e59f0028 	ldr	r0, [pc, #40]	; 828c <notmain+0x1b4>
    8260:	e59f1014 	ldr	r1, [pc, #20]	; 827c <notmain+0x1a4>
    8264:	e59f2014 	ldr	r2, [pc, #20]	; 8280 <notmain+0x1a8>
    8268:	e3a03093 	mov	r3, #147	; 0x93
    826c:	eb000007 	bl	8290 <printk>
    8270:	eb000176 	bl	8850 <clean_reboot>
    8274:	0000805c 	andeq	r8, r0, ip, asr r0
    8278:	0000a3c4 	andeq	sl, r0, r4, asr #7
    827c:	0000a3e8 	andeq	sl, r0, r8, ror #7
    8280:	0000a3bc 			; <UNDEFINED> instruction: 0x0000a3bc
    8284:	0000a3f4 	strdeq	sl, [r0], -r4
    8288:	0000a414 	andeq	sl, r0, r4, lsl r4
    828c:	0000a420 	andeq	sl, r0, r0, lsr #8

00008290 <printk>:
    8290:	e92d000f 	push	{r0, r1, r2, r3}
    8294:	e92d4030 	push	{r4, r5, lr}
    8298:	e24dd00c 	sub	sp, sp, #12
    829c:	e28d301c 	add	r3, sp, #28
    82a0:	e58d3004 	str	r3, [sp, #4]
    82a4:	e59f4034 	ldr	r4, [pc, #52]	; 82e0 <printk+0x50>
    82a8:	e1a00004 	mov	r0, r4
    82ac:	e3a01b01 	mov	r1, #1024	; 0x400
    82b0:	e59d2018 	ldr	r2, [sp, #24]
    82b4:	eb0000c3 	bl	85c8 <va_printk>
    82b8:	e1a05000 	mov	r5, r0
    82bc:	e59f3020 	ldr	r3, [pc, #32]	; 82e4 <printk+0x54>
    82c0:	e5933000 	ldr	r3, [r3]
    82c4:	e1a00004 	mov	r0, r4
    82c8:	e12fff33 	blx	r3
    82cc:	e1a00005 	mov	r0, r5
    82d0:	e28dd00c 	add	sp, sp, #12
    82d4:	e8bd4030 	pop	{r4, r5, lr}
    82d8:	e28dd010 	add	sp, sp, #16
    82dc:	e12fff1e 	bx	lr
    82e0:	0000aa80 	andeq	sl, r0, r0, lsl #21
    82e4:	0000a324 	andeq	sl, r0, r4, lsr #6

000082e8 <internal_putchar>:
    82e8:	e92d4010 	push	{r4, lr}
    82ec:	e1a04000 	mov	r4, r0
    82f0:	eb000501 	bl	96fc <uart_putc>
    82f4:	e1a00004 	mov	r0, r4
    82f8:	e8bd8010 	pop	{r4, pc}

000082fc <rpi_reset_putc>:
    82fc:	e59f2008 	ldr	r2, [pc, #8]	; 830c <rpi_reset_putc+0x10>
    8300:	e59f3008 	ldr	r3, [pc, #8]	; 8310 <rpi_reset_putc+0x14>
    8304:	e5832000 	str	r2, [r3]
    8308:	e12fff1e 	bx	lr
    830c:	000082e8 	andeq	r8, r0, r8, ror #5
    8310:	0000a320 	andeq	sl, r0, r0, lsr #6

00008314 <rpi_set_putc>:
    8314:	e59f3004 	ldr	r3, [pc, #4]	; 8320 <rpi_set_putc+0xc>
    8318:	e5830000 	str	r0, [r3]
    831c:	e12fff1e 	bx	lr
    8320:	0000a320 	andeq	sl, r0, r0, lsr #6

00008324 <internal_putk>:
    8324:	e92d4038 	push	{r3, r4, r5, lr}
    8328:	e1a04000 	mov	r4, r0
    832c:	e59f5020 	ldr	r5, [pc, #32]	; 8354 <internal_putk+0x30>
    8330:	ea000002 	b	8340 <internal_putk+0x1c>
    8334:	e5953000 	ldr	r3, [r5]
    8338:	e12fff33 	blx	r3
    833c:	e2844001 	add	r4, r4, #1
    8340:	e5d40000 	ldrb	r0, [r4]
    8344:	e3500000 	cmp	r0, #0
    8348:	1afffff9 	bne	8334 <internal_putk+0x10>
    834c:	e3a00001 	mov	r0, #1
    8350:	e8bd8038 	pop	{r3, r4, r5, pc}
    8354:	0000a320 	andeq	sl, r0, r0, lsr #6

00008358 <isdigit>:
    8358:	e2400030 	sub	r0, r0, #48	; 0x30
    835c:	e3500009 	cmp	r0, #9
    8360:	83a00000 	movhi	r0, #0
    8364:	93a00001 	movls	r0, #1
    8368:	e12fff1e 	bx	lr

0000836c <pad>:
    836c:	e0611000 	rsb	r1, r1, r0
    8370:	e3a03020 	mov	r3, #32
    8374:	ea000002 	b	8384 <pad+0x18>
    8378:	e5c03000 	strb	r3, [r0]
    837c:	e2811001 	add	r1, r1, #1
    8380:	e2800001 	add	r0, r0, #1
    8384:	e1510002 	cmp	r1, r2
    8388:	bafffffa 	blt	8378 <pad+0xc>
    838c:	e3a03000 	mov	r3, #0
    8390:	e5c03000 	strb	r3, [r0]
    8394:	e12fff1e 	bx	lr

00008398 <reverse>:
    8398:	e063c002 	rsb	ip, r3, r2
    839c:	e28cc001 	add	ip, ip, #1
    83a0:	e15c0001 	cmp	ip, r1
    83a4:	c061100c 	rsbgt	r1, r1, ip
    83a8:	c0833001 	addgt	r3, r3, r1
    83ac:	e2422001 	sub	r2, r2, #1
    83b0:	e1a01000 	mov	r1, r0
    83b4:	ea000002 	b	83c4 <reverse+0x2c>
    83b8:	e452c001 	ldrb	ip, [r2], #-1
    83bc:	e5c1c000 	strb	ip, [r1]
    83c0:	e2811001 	add	r1, r1, #1
    83c4:	e1520003 	cmp	r2, r3
    83c8:	2afffffa 	bcs	83b8 <reverse+0x20>
    83cc:	e3a03000 	mov	r3, #0
    83d0:	e5c13000 	strb	r3, [r1]
    83d4:	e12fff1e 	bx	lr

000083d8 <emit>:
    83d8:	e92d41f0 	push	{r4, r5, r6, r7, r8, lr}
    83dc:	e24dd040 	sub	sp, sp, #64	; 0x40
    83e0:	e1a05001 	mov	r5, r1
    83e4:	e1a04002 	mov	r4, r2
    83e8:	e59d2058 	ldr	r2, [sp, #88]	; 0x58
    83ec:	e1520004 	cmp	r2, r4
    83f0:	c2442001 	subgt	r2, r4, #1
    83f4:	e1a0c003 	mov	ip, r3
    83f8:	e2400002 	sub	r0, r0, #2
    83fc:	e350000e 	cmp	r0, #14
    8400:	979ff100 	ldrls	pc, [pc, r0, lsl #2]
    8404:	ea000042 	b	8514 <emit+0x13c>
    8408:	000084ec 	andeq	r8, r0, ip, ror #9
    840c:	00008514 	andeq	r8, r0, r4, lsl r5
    8410:	00008514 	andeq	r8, r0, r4, lsl r5
    8414:	00008514 	andeq	r8, r0, r4, lsl r5
    8418:	00008514 	andeq	r8, r0, r4, lsl r5
    841c:	00008514 	andeq	r8, r0, r4, lsl r5
    8420:	000084e0 	andeq	r8, r0, r0, ror #9
    8424:	00008514 	andeq	r8, r0, r4, lsl r5
    8428:	00008444 	andeq	r8, r0, r4, asr #8
    842c:	00008514 	andeq	r8, r0, r4, lsl r5
    8430:	00008514 	andeq	r8, r0, r4, lsl r5
    8434:	00008514 	andeq	r8, r0, r4, lsl r5
    8438:	00008514 	andeq	r8, r0, r4, lsl r5
    843c:	00008514 	andeq	r8, r0, r4, lsl r5
    8440:	000084b8 			; <UNDEFINED> instruction: 0x000084b8
    8444:	e59d105c 	ldr	r1, [sp, #92]	; 0x5c
    8448:	e2911000 	adds	r1, r1, #0
    844c:	13a01001 	movne	r1, #1
    8450:	e0111fa3 	ands	r1, r1, r3, lsr #31
    8454:	1263c000 	rsbne	ip, r3, #0
    8458:	13a08001 	movne	r8, #1
    845c:	03a08000 	moveq	r8, #0
    8460:	e1a0100d 	mov	r1, sp
    8464:	e59f70ec 	ldr	r7, [pc, #236]	; 8558 <emit+0x180>
    8468:	e59f60ec 	ldr	r6, [pc, #236]	; 855c <emit+0x184>
    846c:	ea000000 	b	8474 <emit+0x9c>
    8470:	e1a01003 	mov	r1, r3
    8474:	e2813001 	add	r3, r1, #1
    8478:	e08e0c97 	umull	r0, lr, r7, ip
    847c:	e1a0e1ae 	lsr	lr, lr, #3
    8480:	e1a0000e 	mov	r0, lr
    8484:	e08ee10e 	add	lr, lr, lr, lsl #2
    8488:	e1a0e08e 	lsl	lr, lr, #1
    848c:	e06ee00c 	rsb	lr, lr, ip
    8490:	e7d6c00e 	ldrb	ip, [r6, lr]
    8494:	e5c1c000 	strb	ip, [r1]
    8498:	e1a0c000 	mov	ip, r0
    849c:	e3500000 	cmp	r0, #0
    84a0:	1afffff2 	bne	8470 <emit+0x98>
    84a4:	e3580000 	cmp	r8, #0
    84a8:	12813002 	addne	r3, r1, #2
    84ac:	13a0002d 	movne	r0, #45	; 0x2d
    84b0:	15c10001 	strbne	r0, [r1, #1]
    84b4:	ea00001d 	b	8530 <emit+0x158>
    84b8:	e1a0e00d 	mov	lr, sp
    84bc:	e59f009c 	ldr	r0, [pc, #156]	; 8560 <emit+0x188>
    84c0:	e28e3001 	add	r3, lr, #1
    84c4:	e20c100f 	and	r1, ip, #15
    84c8:	e7d01001 	ldrb	r1, [r0, r1]
    84cc:	e5ce1000 	strb	r1, [lr]
    84d0:	e1a0e003 	mov	lr, r3
    84d4:	e1b0c22c 	lsrs	ip, ip, #4
    84d8:	1afffff8 	bne	84c0 <emit+0xe8>
    84dc:	ea000013 	b	8530 <emit+0x158>
    84e0:	e5cd3000 	strb	r3, [sp]
    84e4:	e28d3001 	add	r3, sp, #1
    84e8:	ea000010 	b	8530 <emit+0x158>
    84ec:	e1a0e00d 	mov	lr, sp
    84f0:	e59f006c 	ldr	r0, [pc, #108]	; 8564 <emit+0x18c>
    84f4:	e28e3001 	add	r3, lr, #1
    84f8:	e20c1001 	and	r1, ip, #1
    84fc:	e7d01001 	ldrb	r1, [r0, r1]
    8500:	e5ce1000 	strb	r1, [lr]
    8504:	e1a0e003 	mov	lr, r3
    8508:	e1b0c0ac 	lsrs	ip, ip, #1
    850c:	1afffff8 	bne	84f4 <emit+0x11c>
    8510:	ea000006 	b	8530 <emit+0x158>
    8514:	ebffff78 	bl	82fc <rpi_reset_putc>
    8518:	e59f0048 	ldr	r0, [pc, #72]	; 8568 <emit+0x190>
    851c:	e59f1048 	ldr	r1, [pc, #72]	; 856c <emit+0x194>
    8520:	e59f2048 	ldr	r2, [pc, #72]	; 8570 <emit+0x198>
    8524:	e3a03075 	mov	r3, #117	; 0x75
    8528:	ebffff58 	bl	8290 <printk>
    852c:	eb0000c7 	bl	8850 <clean_reboot>
    8530:	e1a00003 	mov	r0, r3
    8534:	e1a0100d 	mov	r1, sp
    8538:	ebffff8b 	bl	836c <pad>
    853c:	e1a02000 	mov	r2, r0
    8540:	e1a00005 	mov	r0, r5
    8544:	e1a01004 	mov	r1, r4
    8548:	e1a0300d 	mov	r3, sp
    854c:	ebffff91 	bl	8398 <reverse>
    8550:	e28dd040 	add	sp, sp, #64	; 0x40
    8554:	e8bd81f0 	pop	{r4, r5, r6, r7, r8, pc}
    8558:	cccccccd 	stclgt	12, cr12, [ip], {205}	; 0xcd
    855c:	0000a490 	muleq	r0, r0, r4
    8560:	0000a49c 	muleq	r0, ip, r4
    8564:	0000a4b0 			; <UNDEFINED> instruction: 0x0000a4b0
    8568:	0000a468 	andeq	sl, r0, r8, ror #8
    856c:	0000a47c 	andeq	sl, r0, ip, ror r4
    8570:	0000a444 	andeq	sl, r0, r4, asr #8

00008574 <rpi_set_output>:
    8574:	e92d4008 	push	{r3, lr}
    8578:	e3500000 	cmp	r0, #0
    857c:	1a000006 	bne	859c <rpi_set_output+0x28>
    8580:	ebffff5d 	bl	82fc <rpi_reset_putc>
    8584:	e59f0028 	ldr	r0, [pc, #40]	; 85b4 <rpi_set_output+0x40>
    8588:	e59f1028 	ldr	r1, [pc, #40]	; 85b8 <rpi_set_output+0x44>
    858c:	e59f2028 	ldr	r2, [pc, #40]	; 85bc <rpi_set_output+0x48>
    8590:	e3a03020 	mov	r3, #32
    8594:	ebffff3d 	bl	8290 <printk>
    8598:	eb0000ac 	bl	8850 <clean_reboot>
    859c:	e59f301c 	ldr	r3, [pc, #28]	; 85c0 <rpi_set_output+0x4c>
    85a0:	e5830000 	str	r0, [r3]
    85a4:	e3510000 	cmp	r1, #0
    85a8:	159f3014 	ldrne	r3, [pc, #20]	; 85c4 <rpi_set_output+0x50>
    85ac:	15831000 	strne	r1, [r3]
    85b0:	e8bd8008 	pop	{r3, pc}
    85b4:	0000a4b4 			; <UNDEFINED> instruction: 0x0000a4b4
    85b8:	0000a47c 	andeq	sl, r0, ip, ror r4
    85bc:	0000a44c 	andeq	sl, r0, ip, asr #8
    85c0:	0000a320 	andeq	sl, r0, r0, lsr #6
    85c4:	0000a324 	andeq	sl, r0, r4, lsr #6

000085c8 <va_printk>:
    85c8:	e92d4ff0 	push	{r4, r5, r6, r7, r8, r9, sl, fp, lr}
    85cc:	e24dd08c 	sub	sp, sp, #140	; 0x8c
    85d0:	e1a0a000 	mov	sl, r0
    85d4:	e1a09003 	mov	r9, r3
    85d8:	e2411001 	sub	r1, r1, #1
    85dc:	e0808001 	add	r8, r0, r1
    85e0:	e3a03000 	mov	r3, #0
    85e4:	e5c03000 	strb	r3, [r0]
    85e8:	e1a04000 	mov	r4, r0
    85ec:	e1a0b003 	mov	fp, r3
    85f0:	ea000086 	b	8810 <va_printk+0x248>
    85f4:	e3530025 	cmp	r3, #37	; 0x25
    85f8:	12822001 	addne	r2, r2, #1
    85fc:	15c43000 	strbne	r3, [r4]
    8600:	12844001 	addne	r4, r4, #1
    8604:	1a000081 	bne	8810 <va_printk+0x248>
    8608:	e5d21001 	ldrb	r1, [r2, #1]
    860c:	e3510025 	cmp	r1, #37	; 0x25
    8610:	05c43000 	strbeq	r3, [r4]
    8614:	02822002 	addeq	r2, r2, #2
    8618:	02844001 	addeq	r4, r4, #1
    861c:	0a00007b 	beq	8810 <va_printk+0x248>
    8620:	e2826001 	add	r6, r2, #1
    8624:	e1a0700b 	mov	r7, fp
    8628:	ea000004 	b	8640 <va_printk+0x78>
    862c:	e0877107 	add	r7, r7, r7, lsl #2
    8630:	e1a07087 	lsl	r7, r7, #1
    8634:	e0877005 	add	r7, r7, r5
    8638:	e2477030 	sub	r7, r7, #48	; 0x30
    863c:	e2866001 	add	r6, r6, #1
    8640:	e5d65000 	ldrb	r5, [r6]
    8644:	e1a00005 	mov	r0, r5
    8648:	ebffff42 	bl	8358 <isdigit>
    864c:	e3500000 	cmp	r0, #0
    8650:	1afffff5 	bne	862c <va_printk+0x64>
    8654:	e357001f 	cmp	r7, #31
    8658:	9a000006 	bls	8678 <va_printk+0xb0>
    865c:	ebffff26 	bl	82fc <rpi_reset_putc>
    8660:	e59f01d4 	ldr	r0, [pc, #468]	; 883c <va_printk+0x274>
    8664:	e59f11d4 	ldr	r1, [pc, #468]	; 8840 <va_printk+0x278>
    8668:	e59f21d4 	ldr	r2, [pc, #468]	; 8844 <va_printk+0x27c>
    866c:	e3a03092 	mov	r3, #146	; 0x92
    8670:	ebffff06 	bl	8290 <printk>
    8674:	eb000075 	bl	8850 <clean_reboot>
    8678:	e2455062 	sub	r5, r5, #98	; 0x62
    867c:	e3550016 	cmp	r5, #22
    8680:	979ff105 	ldrls	pc, [pc, r5, lsl #2]
    8684:	ea00004e 	b	87c4 <va_printk+0x1fc>
    8688:	00008770 	andeq	r8, r0, r0, ror r7
    868c:	000087a0 	andeq	r8, r0, r0, lsr #15
    8690:	00008700 	andeq	r8, r0, r0, lsl #14
    8694:	000087c4 	andeq	r8, r0, r4, asr #15
    8698:	000086e4 	andeq	r8, r0, r4, ror #13
    869c:	000087c4 	andeq	r8, r0, r4, asr #15
    86a0:	000087c4 	andeq	r8, r0, r4, asr #15
    86a4:	000087c4 	andeq	r8, r0, r4, asr #15
    86a8:	000087c4 	andeq	r8, r0, r4, asr #15
    86ac:	000087c4 	andeq	r8, r0, r4, asr #15
    86b0:	000087c4 	andeq	r8, r0, r4, asr #15
    86b4:	000087c4 	andeq	r8, r0, r4, asr #15
    86b8:	000087c4 	andeq	r8, r0, r4, asr #15
    86bc:	000087c4 	andeq	r8, r0, r4, asr #15
    86c0:	0000874c 	andeq	r8, r0, ip, asr #14
    86c4:	000087c4 	andeq	r8, r0, r4, asr #15
    86c8:	000087c4 	andeq	r8, r0, r4, asr #15
    86cc:	00008794 	muleq	r0, r4, r7
    86d0:	000087c4 	andeq	r8, r0, r4, asr #15
    86d4:	00008728 	andeq	r8, r0, r8, lsr #14
    86d8:	000087c4 	andeq	r8, r0, r4, asr #15
    86dc:	000087c4 	andeq	r8, r0, r4, asr #15
    86e0:	0000874c 	andeq	r8, r0, ip, asr #14
    86e4:	ebffff04 	bl	82fc <rpi_reset_putc>
    86e8:	e59f0158 	ldr	r0, [pc, #344]	; 8848 <va_printk+0x280>
    86ec:	e59f114c 	ldr	r1, [pc, #332]	; 8840 <va_printk+0x278>
    86f0:	e59f214c 	ldr	r2, [pc, #332]	; 8844 <va_printk+0x27c>
    86f4:	e3a03098 	mov	r3, #152	; 0x98
    86f8:	ebfffee4 	bl	8290 <printk>
    86fc:	eb000053 	bl	8850 <clean_reboot>
    8700:	e5993000 	ldr	r3, [r9]
    8704:	e2899004 	add	r9, r9, #4
    8708:	e58d7000 	str	r7, [sp]
    870c:	e3a02001 	mov	r2, #1
    8710:	e58d2004 	str	r2, [sp, #4]
    8714:	e3a0000a 	mov	r0, #10
    8718:	e28d1008 	add	r1, sp, #8
    871c:	e3a02080 	mov	r2, #128	; 0x80
    8720:	ebffff2c 	bl	83d8 <emit>
    8724:	ea00002f 	b	87e8 <va_printk+0x220>
    8728:	e5993000 	ldr	r3, [r9]
    872c:	e2899004 	add	r9, r9, #4
    8730:	e58d7000 	str	r7, [sp]
    8734:	e58db004 	str	fp, [sp, #4]
    8738:	e3a0000a 	mov	r0, #10
    873c:	e28d1008 	add	r1, sp, #8
    8740:	e3a02080 	mov	r2, #128	; 0x80
    8744:	ebffff23 	bl	83d8 <emit>
    8748:	ea000026 	b	87e8 <va_printk+0x220>
    874c:	e5993000 	ldr	r3, [r9]
    8750:	e2899004 	add	r9, r9, #4
    8754:	e58d7000 	str	r7, [sp]
    8758:	e58db004 	str	fp, [sp, #4]
    875c:	e3a00010 	mov	r0, #16
    8760:	e28d1008 	add	r1, sp, #8
    8764:	e3a02080 	mov	r2, #128	; 0x80
    8768:	ebffff1a 	bl	83d8 <emit>
    876c:	ea00001d 	b	87e8 <va_printk+0x220>
    8770:	e5993000 	ldr	r3, [r9]
    8774:	e2899004 	add	r9, r9, #4
    8778:	e58d7000 	str	r7, [sp]
    877c:	e58db004 	str	fp, [sp, #4]
    8780:	e3a00002 	mov	r0, #2
    8784:	e28d1008 	add	r1, sp, #8
    8788:	e3a02080 	mov	r2, #128	; 0x80
    878c:	ebffff11 	bl	83d8 <emit>
    8790:	ea000014 	b	87e8 <va_printk+0x220>
    8794:	e5990000 	ldr	r0, [r9]
    8798:	e2899004 	add	r9, r9, #4
    879c:	ea000011 	b	87e8 <va_printk+0x220>
    87a0:	e5993000 	ldr	r3, [r9]
    87a4:	e2899004 	add	r9, r9, #4
    87a8:	e58d7000 	str	r7, [sp]
    87ac:	e58db004 	str	fp, [sp, #4]
    87b0:	e3a00008 	mov	r0, #8
    87b4:	e08d1000 	add	r1, sp, r0
    87b8:	e3a02080 	mov	r2, #128	; 0x80
    87bc:	ebffff05 	bl	83d8 <emit>
    87c0:	ea000008 	b	87e8 <va_printk+0x220>
    87c4:	ebfffecc 	bl	82fc <rpi_reset_putc>
    87c8:	e5d63000 	ldrb	r3, [r6]
    87cc:	e58d3000 	str	r3, [sp]
    87d0:	e59f0074 	ldr	r0, [pc, #116]	; 884c <va_printk+0x284>
    87d4:	e59f1064 	ldr	r1, [pc, #100]	; 8840 <va_printk+0x278>
    87d8:	e59f2064 	ldr	r2, [pc, #100]	; 8844 <va_printk+0x27c>
    87dc:	e3a030b9 	mov	r3, #185	; 0xb9
    87e0:	ebfffeaa 	bl	8290 <printk>
    87e4:	eb000019 	bl	8850 <clean_reboot>
    87e8:	e2862001 	add	r2, r6, #1
    87ec:	ea000002 	b	87fc <va_printk+0x234>
    87f0:	e2800001 	add	r0, r0, #1
    87f4:	e5c43000 	strb	r3, [r4]
    87f8:	e2844001 	add	r4, r4, #1
    87fc:	e1540008 	cmp	r4, r8
    8800:	2a000002 	bcs	8810 <va_printk+0x248>
    8804:	e5d03000 	ldrb	r3, [r0]
    8808:	e3530000 	cmp	r3, #0
    880c:	1afffff7 	bne	87f0 <va_printk+0x228>
    8810:	e5d23000 	ldrb	r3, [r2]
    8814:	e3530000 	cmp	r3, #0
    8818:	0a000001 	beq	8824 <va_printk+0x25c>
    881c:	e1540008 	cmp	r4, r8
    8820:	3affff73 	bcc	85f4 <va_printk+0x2c>
    8824:	e2840001 	add	r0, r4, #1
    8828:	e3a03000 	mov	r3, #0
    882c:	e5c43000 	strb	r3, [r4]
    8830:	e06a0000 	rsb	r0, sl, r0
    8834:	e28dd08c 	add	sp, sp, #140	; 0x8c
    8838:	e8bd8ff0 	pop	{r4, r5, r6, r7, r8, r9, sl, fp, pc}
    883c:	0000a4cc 	andeq	sl, r0, ip, asr #9
    8840:	0000a47c 	andeq	sl, r0, ip, ror r4
    8844:	0000a45c 	andeq	sl, r0, ip, asr r4
    8848:	0000a4e8 	andeq	sl, r0, r8, ror #9
    884c:	0000a510 	andeq	sl, r0, r0, lsl r5

00008850 <clean_reboot>:
    8850:	e92d4008 	push	{r3, lr}
    8854:	e59f3014 	ldr	r3, [pc, #20]	; 8870 <clean_reboot+0x20>
    8858:	e5933000 	ldr	r3, [r3]
    885c:	e59f0010 	ldr	r0, [pc, #16]	; 8874 <clean_reboot+0x24>
    8860:	e12fff33 	blx	r3
    8864:	e3a00064 	mov	r0, #100	; 0x64
    8868:	eb000063 	bl	89fc <delay_ms>
    886c:	eb000038 	bl	8954 <rpi_reboot>
    8870:	0000a324 	andeq	sl, r0, r4, lsr #6
    8874:	0000a548 	andeq	sl, r0, r8, asr #10

00008878 <internal_sw_putchar>:
    8878:	e92d4010 	push	{r4, lr}
    887c:	e1a04000 	mov	r4, r0
    8880:	e59f000c 	ldr	r0, [pc, #12]	; 8894 <internal_sw_putchar+0x1c>
    8884:	e6ef1074 	uxtb	r1, r4
    8888:	eb0001d4 	bl	8fe0 <sw_uart_putc>
    888c:	e1a00004 	mov	r0, r4
    8890:	e8bd8010 	pop	{r4, pc}
    8894:	0000ae80 	andeq	sl, r0, r0, lsl #29

00008898 <_cstart>:
    8898:	e92d4008 	push	{r3, lr}
    889c:	e59f3068 	ldr	r3, [pc, #104]	; 890c <_cstart+0x74>
    88a0:	e59f2068 	ldr	r2, [pc, #104]	; 8910 <_cstart+0x78>
    88a4:	e3a01000 	mov	r1, #0
    88a8:	ea000001 	b	88b4 <_cstart+0x1c>
    88ac:	e5831000 	str	r1, [r3]
    88b0:	e2833004 	add	r3, r3, #4
    88b4:	e1530002 	cmp	r3, r2
    88b8:	3afffffb 	bcc	88ac <_cstart+0x14>
    88bc:	eb00068d 	bl	a2f8 <cb_get_block>
    88c0:	e3500000 	cmp	r0, #0
    88c4:	0a00000e 	beq	8904 <_cstart+0x6c>
    88c8:	e5d02004 	ldrb	r2, [r0, #4]
    88cc:	e3520002 	cmp	r2, #2
    88d0:	1a00000b 	bne	8904 <_cstart+0x6c>
    88d4:	e59f1038 	ldr	r1, [pc, #56]	; 8914 <_cstart+0x7c>
    88d8:	e59f2038 	ldr	r2, [pc, #56]	; 8918 <_cstart+0x80>
    88dc:	e5821000 	str	r1, [r2]
    88e0:	e59fc034 	ldr	ip, [pc, #52]	; 891c <_cstart+0x84>
    88e4:	e2803008 	add	r3, r0, #8
    88e8:	e8930007 	ldm	r3, {r0, r1, r2}
    88ec:	e88c0007 	stm	ip, {r0, r1, r2}
    88f0:	e1a0000c 	mov	r0, ip
    88f4:	e59f1024 	ldr	r1, [pc, #36]	; 8920 <_cstart+0x88>
    88f8:	eb00030c 	bl	9530 <sw_uart_printk>
    88fc:	e59f0020 	ldr	r0, [pc, #32]	; 8924 <_cstart+0x8c>
    8900:	ebfffe62 	bl	8290 <printk>
    8904:	ebfffdf3 	bl	80d8 <notmain>
    8908:	eb000011 	bl	8954 <rpi_reboot>
    890c:	0000aa80 	andeq	sl, r0, r0, lsl #21
    8910:	0000bec0 	andeq	fp, r0, r0, asr #29
    8914:	00008878 	andeq	r8, r0, r8, ror r8
    8918:	0000a320 	andeq	sl, r0, r0, lsr #6
    891c:	0000ae80 	andeq	sl, r0, r0, lsl #29
    8920:	0000a554 	andeq	sl, r0, r4, asr r5
    8924:	0000a578 	andeq	sl, r0, r8, ror r5

00008928 <at_user_level>:
    8928:	e10f0000 	mrs	r0, CPSR
    892c:	e200001f 	and	r0, r0, #31
    8930:	e3500010 	cmp	r0, #16
    8934:	13a00000 	movne	r0, #0
    8938:	03a00001 	moveq	r0, #1
    893c:	e12fff1e 	bx	lr

00008940 <set_user_level>:
    8940:	e10f3000 	mrs	r3, CPSR
    8944:	e3c3301f 	bic	r3, r3, #31
    8948:	e3833010 	orr	r3, r3, #16
    894c:	e129f003 	msr	CPSR_fc, r3
    8950:	e12fff1e 	bx	lr

00008954 <rpi_reboot>:
    8954:	e92d4008 	push	{r3, lr}
    8958:	ebfffff2 	bl	8928 <at_user_level>
    895c:	e3500000 	cmp	r0, #0
    8960:	0a000000 	beq	8968 <rpi_reboot+0x14>
    8964:	ebfffff5 	bl	8940 <set_user_level>
    8968:	e3a0001e 	mov	r0, #30
    896c:	eb000022 	bl	89fc <delay_ms>
    8970:	e59f0014 	ldr	r0, [pc, #20]	; 898c <rpi_reboot+0x38>
    8974:	e59f1014 	ldr	r1, [pc, #20]	; 8990 <rpi_reboot+0x3c>
    8978:	eb0003fd 	bl	9974 <PUT32>
    897c:	e59f0010 	ldr	r0, [pc, #16]	; 8994 <rpi_reboot+0x40>
    8980:	e59f1010 	ldr	r1, [pc, #16]	; 8998 <rpi_reboot+0x44>
    8984:	eb0003fa 	bl	9974 <PUT32>
    8988:	eafffffe 	b	8988 <rpi_reboot+0x34>
    898c:	20100024 	andscs	r0, r0, r4, lsr #32
    8990:	5a000001 	bpl	899c <delay_cycles>
    8994:	2010001c 	andscs	r0, r0, ip, lsl r0
    8998:	5a000020 	bpl	8a20 <delay_sec+0x10>

0000899c <delay_cycles>:
    899c:	ea000001 	b	89a8 <delay_cycles+0xc>
    89a0:	e2811000 	add	r1, r1, #0
    89a4:	e1a00003 	mov	r0, r3
    89a8:	e2403001 	sub	r3, r0, #1
    89ac:	e3500000 	cmp	r0, #0
    89b0:	1afffffa 	bne	89a0 <delay_cycles+0x4>
    89b4:	e12fff1e 	bx	lr

000089b8 <timer_get_usec_raw>:
    89b8:	e92d4008 	push	{r3, lr}
    89bc:	e59f0004 	ldr	r0, [pc, #4]	; 89c8 <timer_get_usec_raw+0x10>
    89c0:	eb0003f7 	bl	99a4 <GET32>
    89c4:	e8bd8008 	pop	{r3, pc}
    89c8:	20003004 	andcs	r3, r0, r4

000089cc <timer_get_usec>:
    89cc:	e92d4008 	push	{r3, lr}
    89d0:	ebfffff8 	bl	89b8 <timer_get_usec_raw>
    89d4:	e8bd8008 	pop	{r3, pc}

000089d8 <delay_us>:
    89d8:	e92d4038 	push	{r3, r4, r5, lr}
    89dc:	e1a05000 	mov	r5, r0
    89e0:	ebfffff9 	bl	89cc <timer_get_usec>
    89e4:	e1a04000 	mov	r4, r0
    89e8:	ebfffff7 	bl	89cc <timer_get_usec>
    89ec:	e0640000 	rsb	r0, r4, r0
    89f0:	e1500005 	cmp	r0, r5
    89f4:	3afffffb 	bcc	89e8 <delay_us+0x10>
    89f8:	e8bd8038 	pop	{r3, r4, r5, pc}

000089fc <delay_ms>:
    89fc:	e92d4008 	push	{r3, lr}
    8a00:	e3a03ffa 	mov	r3, #1000	; 0x3e8
    8a04:	e0000093 	mul	r0, r3, r0
    8a08:	ebfffff2 	bl	89d8 <delay_us>
    8a0c:	e8bd8008 	pop	{r3, pc}

00008a10 <delay_sec>:
    8a10:	e92d4008 	push	{r3, lr}
    8a14:	e3a03ffa 	mov	r3, #1000	; 0x3e8
    8a18:	e0000093 	mul	r0, r3, r0
    8a1c:	ebfffff6 	bl	89fc <delay_ms>
    8a20:	e8bd8008 	pop	{r3, pc}

00008a24 <gpio_set_output>:
    8a24:	e92d4038 	push	{r3, r4, r5, lr}
    8a28:	e1a04000 	mov	r4, r0
    8a2c:	e350001f 	cmp	r0, #31
    8a30:	88bd8038 	pophi	{r3, r4, r5, pc}
    8a34:	e59f30b4 	ldr	r3, [pc, #180]	; 8af0 <gpio_set_output+0xcc>
    8a38:	e0832093 	umull	r2, r3, r3, r0
    8a3c:	e1a031a3 	lsr	r3, r3, #3
    8a40:	e3530005 	cmp	r3, #5
    8a44:	979ff103 	ldrls	pc, [pc, r3, lsl #2]
    8a48:	ea000017 	b	8aac <gpio_set_output+0x88>
    8a4c:	00008a64 	andeq	r8, r0, r4, ror #20
    8a50:	00008a70 	andeq	r8, r0, r0, ror sl
    8a54:	00008a7c 	andeq	r8, r0, ip, ror sl
    8a58:	00008a88 	andeq	r8, r0, r8, lsl #21
    8a5c:	00008a94 	muleq	r0, r4, sl
    8a60:	00008aa0 	andeq	r8, r0, r0, lsr #21
    8a64:	e59f3088 	ldr	r3, [pc, #136]	; 8af4 <gpio_set_output+0xd0>
    8a68:	e5935000 	ldr	r5, [r3]
    8a6c:	ea00000f 	b	8ab0 <gpio_set_output+0x8c>
    8a70:	e59f307c 	ldr	r3, [pc, #124]	; 8af4 <gpio_set_output+0xd0>
    8a74:	e5935004 	ldr	r5, [r3, #4]
    8a78:	ea00000c 	b	8ab0 <gpio_set_output+0x8c>
    8a7c:	e59f3070 	ldr	r3, [pc, #112]	; 8af4 <gpio_set_output+0xd0>
    8a80:	e5935008 	ldr	r5, [r3, #8]
    8a84:	ea000009 	b	8ab0 <gpio_set_output+0x8c>
    8a88:	e59f3064 	ldr	r3, [pc, #100]	; 8af4 <gpio_set_output+0xd0>
    8a8c:	e593500c 	ldr	r5, [r3, #12]
    8a90:	ea000006 	b	8ab0 <gpio_set_output+0x8c>
    8a94:	e59f3058 	ldr	r3, [pc, #88]	; 8af4 <gpio_set_output+0xd0>
    8a98:	e5935010 	ldr	r5, [r3, #16]
    8a9c:	ea000003 	b	8ab0 <gpio_set_output+0x8c>
    8aa0:	e59f304c 	ldr	r3, [pc, #76]	; 8af4 <gpio_set_output+0xd0>
    8aa4:	e5935014 	ldr	r5, [r3, #20]
    8aa8:	ea000000 	b	8ab0 <gpio_set_output+0x8c>
    8aac:	e3a05000 	mov	r5, #0
    8ab0:	e1a00005 	mov	r0, r5
    8ab4:	eb0003b8 	bl	999c <get32>
    8ab8:	e59f1030 	ldr	r1, [pc, #48]	; 8af0 <gpio_set_output+0xcc>
    8abc:	e0813491 	umull	r3, r1, r1, r4
    8ac0:	e1a011a1 	lsr	r1, r1, #3
    8ac4:	e0811101 	add	r1, r1, r1, lsl #2
    8ac8:	e1a01081 	lsl	r1, r1, #1
    8acc:	e0611004 	rsb	r1, r1, r4
    8ad0:	e0811081 	add	r1, r1, r1, lsl #1
    8ad4:	e3a03007 	mov	r3, #7
    8ad8:	e1c03113 	bic	r3, r0, r3, lsl r1
    8adc:	e1a00005 	mov	r0, r5
    8ae0:	e3a02001 	mov	r2, #1
    8ae4:	e1831112 	orr	r1, r3, r2, lsl r1
    8ae8:	eb00039f 	bl	996c <put32>
    8aec:	e8bd8038 	pop	{r3, r4, r5, pc}
    8af0:	cccccccd 	stclgt	12, cr12, [ip], {205}	; 0xcd
    8af4:	0000a328 	andeq	sl, r0, r8, lsr #6

00008af8 <gpio_set_on>:
    8af8:	e92d4008 	push	{r3, lr}
    8afc:	e350001f 	cmp	r0, #31
    8b00:	88bd8008 	pophi	{r3, pc}
    8b04:	959f3020 	ldrls	r3, [pc, #32]	; 8b2c <gpio_set_on+0x34>
    8b08:	95932018 	ldrls	r2, [r3, #24]
    8b0c:	859f3018 	ldrhi	r3, [pc, #24]	; 8b2c <gpio_set_on+0x34>
    8b10:	8593201c 	ldrhi	r2, [r3, #28]
    8b14:	e200301f 	and	r3, r0, #31
    8b18:	e1a00002 	mov	r0, r2
    8b1c:	e3a01001 	mov	r1, #1
    8b20:	e1a01311 	lsl	r1, r1, r3
    8b24:	eb000390 	bl	996c <put32>
    8b28:	e8bd8008 	pop	{r3, pc}
    8b2c:	0000a328 	andeq	sl, r0, r8, lsr #6

00008b30 <gpio_set_off>:
    8b30:	e92d4008 	push	{r3, lr}
    8b34:	e350001f 	cmp	r0, #31
    8b38:	88bd8008 	pophi	{r3, pc}
    8b3c:	959f3020 	ldrls	r3, [pc, #32]	; 8b64 <gpio_set_off+0x34>
    8b40:	95932020 	ldrls	r2, [r3, #32]
    8b44:	859f3018 	ldrhi	r3, [pc, #24]	; 8b64 <gpio_set_off+0x34>
    8b48:	85932024 	ldrhi	r2, [r3, #36]	; 0x24
    8b4c:	e200301f 	and	r3, r0, #31
    8b50:	e1a00002 	mov	r0, r2
    8b54:	e3a01001 	mov	r1, #1
    8b58:	e1a01311 	lsl	r1, r1, r3
    8b5c:	eb000382 	bl	996c <put32>
    8b60:	e8bd8008 	pop	{r3, pc}
    8b64:	0000a328 	andeq	sl, r0, r8, lsr #6

00008b68 <gpio_set_input>:
    8b68:	e92d4038 	push	{r3, r4, r5, lr}
    8b6c:	e1a04000 	mov	r4, r0
    8b70:	e350001f 	cmp	r0, #31
    8b74:	88bd8038 	pophi	{r3, r4, r5, pc}
    8b78:	e59f30ac 	ldr	r3, [pc, #172]	; 8c2c <gpio_set_input+0xc4>
    8b7c:	e0832093 	umull	r2, r3, r3, r0
    8b80:	e1a031a3 	lsr	r3, r3, #3
    8b84:	e3530005 	cmp	r3, #5
    8b88:	979ff103 	ldrls	pc, [pc, r3, lsl #2]
    8b8c:	ea000017 	b	8bf0 <gpio_set_input+0x88>
    8b90:	00008ba8 	andeq	r8, r0, r8, lsr #23
    8b94:	00008bb4 			; <UNDEFINED> instruction: 0x00008bb4
    8b98:	00008bc0 	andeq	r8, r0, r0, asr #23
    8b9c:	00008bcc 	andeq	r8, r0, ip, asr #23
    8ba0:	00008bd8 	ldrdeq	r8, [r0], -r8	; <UNPREDICTABLE>
    8ba4:	00008be4 	andeq	r8, r0, r4, ror #23
    8ba8:	e59f3080 	ldr	r3, [pc, #128]	; 8c30 <gpio_set_input+0xc8>
    8bac:	e5935000 	ldr	r5, [r3]
    8bb0:	ea00000f 	b	8bf4 <gpio_set_input+0x8c>
    8bb4:	e59f3074 	ldr	r3, [pc, #116]	; 8c30 <gpio_set_input+0xc8>
    8bb8:	e5935004 	ldr	r5, [r3, #4]
    8bbc:	ea00000c 	b	8bf4 <gpio_set_input+0x8c>
    8bc0:	e59f3068 	ldr	r3, [pc, #104]	; 8c30 <gpio_set_input+0xc8>
    8bc4:	e5935008 	ldr	r5, [r3, #8]
    8bc8:	ea000009 	b	8bf4 <gpio_set_input+0x8c>
    8bcc:	e59f305c 	ldr	r3, [pc, #92]	; 8c30 <gpio_set_input+0xc8>
    8bd0:	e593500c 	ldr	r5, [r3, #12]
    8bd4:	ea000006 	b	8bf4 <gpio_set_input+0x8c>
    8bd8:	e59f3050 	ldr	r3, [pc, #80]	; 8c30 <gpio_set_input+0xc8>
    8bdc:	e5935010 	ldr	r5, [r3, #16]
    8be0:	ea000003 	b	8bf4 <gpio_set_input+0x8c>
    8be4:	e59f3044 	ldr	r3, [pc, #68]	; 8c30 <gpio_set_input+0xc8>
    8be8:	e5935014 	ldr	r5, [r3, #20]
    8bec:	ea000000 	b	8bf4 <gpio_set_input+0x8c>
    8bf0:	e3a05000 	mov	r5, #0
    8bf4:	e1a00005 	mov	r0, r5
    8bf8:	eb000367 	bl	999c <get32>
    8bfc:	e59f1028 	ldr	r1, [pc, #40]	; 8c2c <gpio_set_input+0xc4>
    8c00:	e0813491 	umull	r3, r1, r1, r4
    8c04:	e1a011a1 	lsr	r1, r1, #3
    8c08:	e0811101 	add	r1, r1, r1, lsl #2
    8c0c:	e1a01081 	lsl	r1, r1, #1
    8c10:	e0611004 	rsb	r1, r1, r4
    8c14:	e0811081 	add	r1, r1, r1, lsl #1
    8c18:	e3a03007 	mov	r3, #7
    8c1c:	e1c01113 	bic	r1, r0, r3, lsl r1
    8c20:	e1a00005 	mov	r0, r5
    8c24:	eb000350 	bl	996c <put32>
    8c28:	e8bd8038 	pop	{r3, r4, r5, pc}
    8c2c:	cccccccd 	stclgt	12, cr12, [ip], {205}	; 0xcd
    8c30:	0000a328 	andeq	sl, r0, r8, lsr #6

00008c34 <gpio_read>:
    8c34:	e92d4010 	push	{r4, lr}
    8c38:	e1a04000 	mov	r4, r0
    8c3c:	e350001f 	cmp	r0, #31
    8c40:	8a00000b 	bhi	8c74 <gpio_read+0x40>
    8c44:	8a000003 	bhi	8c58 <gpio_read+0x24>
    8c48:	e59f302c 	ldr	r3, [pc, #44]	; 8c7c <gpio_read+0x48>
    8c4c:	e5930028 	ldr	r0, [r3, #40]	; 0x28
    8c50:	eb000351 	bl	999c <get32>
    8c54:	ea000002 	b	8c64 <gpio_read+0x30>
    8c58:	e59f301c 	ldr	r3, [pc, #28]	; 8c7c <gpio_read+0x48>
    8c5c:	e593002c 	ldr	r0, [r3, #44]	; 0x2c
    8c60:	eb00034d 	bl	999c <get32>
    8c64:	e204401f 	and	r4, r4, #31
    8c68:	e3a03001 	mov	r3, #1
    8c6c:	e0000413 	and	r0, r0, r3, lsl r4
    8c70:	e8bd8010 	pop	{r4, pc}
    8c74:	e3e00000 	mvn	r0, #0
    8c78:	e8bd8010 	pop	{r4, pc}
    8c7c:	0000a328 	andeq	sl, r0, r8, lsr #6

00008c80 <gpio_write>:
    8c80:	e92d4008 	push	{r3, lr}
    8c84:	e350001f 	cmp	r0, #31
    8c88:	88bd8008 	pophi	{r3, pc}
    8c8c:	e3510000 	cmp	r1, #0
    8c90:	0a00000b 	beq	8cc4 <gpio_write+0x44>
    8c94:	e350001f 	cmp	r0, #31
    8c98:	88bd8008 	pophi	{r3, pc}
    8c9c:	959f3050 	ldrls	r3, [pc, #80]	; 8cf4 <gpio_write+0x74>
    8ca0:	95932018 	ldrls	r2, [r3, #24]
    8ca4:	859f3048 	ldrhi	r3, [pc, #72]	; 8cf4 <gpio_write+0x74>
    8ca8:	8593201c 	ldrhi	r2, [r3, #28]
    8cac:	e200301f 	and	r3, r0, #31
    8cb0:	e1a00002 	mov	r0, r2
    8cb4:	e3a01001 	mov	r1, #1
    8cb8:	e1a01311 	lsl	r1, r1, r3
    8cbc:	eb00032a 	bl	996c <put32>
    8cc0:	e8bd8008 	pop	{r3, pc}
    8cc4:	e350001f 	cmp	r0, #31
    8cc8:	88bd8008 	pophi	{r3, pc}
    8ccc:	959f3020 	ldrls	r3, [pc, #32]	; 8cf4 <gpio_write+0x74>
    8cd0:	95932020 	ldrls	r2, [r3, #32]
    8cd4:	859f3018 	ldrhi	r3, [pc, #24]	; 8cf4 <gpio_write+0x74>
    8cd8:	85932024 	ldrhi	r2, [r3, #36]	; 0x24
    8cdc:	e200301f 	and	r3, r0, #31
    8ce0:	e1a00002 	mov	r0, r2
    8ce4:	e3a01001 	mov	r1, #1
    8ce8:	e1a01311 	lsl	r1, r1, r3
    8cec:	eb00031e 	bl	996c <put32>
    8cf0:	e8bd8008 	pop	{r3, pc}
    8cf4:	0000a328 	andeq	sl, r0, r8, lsr #6

00008cf8 <gpio_set_function>:
    8cf8:	e92d4070 	push	{r4, r5, r6, lr}
    8cfc:	e1a04000 	mov	r4, r0
    8d00:	e1a05001 	mov	r5, r1
    8d04:	e3510007 	cmp	r1, #7
    8d08:	9350001f 	cmpls	r0, #31
    8d0c:	88bd8070 	pophi	{r4, r5, r6, pc}
    8d10:	e59f30b0 	ldr	r3, [pc, #176]	; 8dc8 <gpio_set_function+0xd0>
    8d14:	e0832093 	umull	r2, r3, r3, r0
    8d18:	e1a031a3 	lsr	r3, r3, #3
    8d1c:	e3530005 	cmp	r3, #5
    8d20:	979ff103 	ldrls	pc, [pc, r3, lsl #2]
    8d24:	ea000017 	b	8d88 <gpio_set_function+0x90>
    8d28:	00008d40 	andeq	r8, r0, r0, asr #26
    8d2c:	00008d4c 	andeq	r8, r0, ip, asr #26
    8d30:	00008d58 	andeq	r8, r0, r8, asr sp
    8d34:	00008d64 	andeq	r8, r0, r4, ror #26
    8d38:	00008d70 	andeq	r8, r0, r0, ror sp
    8d3c:	00008d7c 	andeq	r8, r0, ip, ror sp
    8d40:	e59f3084 	ldr	r3, [pc, #132]	; 8dcc <gpio_set_function+0xd4>
    8d44:	e5936000 	ldr	r6, [r3]
    8d48:	ea00000f 	b	8d8c <gpio_set_function+0x94>
    8d4c:	e59f3078 	ldr	r3, [pc, #120]	; 8dcc <gpio_set_function+0xd4>
    8d50:	e5936004 	ldr	r6, [r3, #4]
    8d54:	ea00000c 	b	8d8c <gpio_set_function+0x94>
    8d58:	e59f306c 	ldr	r3, [pc, #108]	; 8dcc <gpio_set_function+0xd4>
    8d5c:	e5936008 	ldr	r6, [r3, #8]
    8d60:	ea000009 	b	8d8c <gpio_set_function+0x94>
    8d64:	e59f3060 	ldr	r3, [pc, #96]	; 8dcc <gpio_set_function+0xd4>
    8d68:	e593600c 	ldr	r6, [r3, #12]
    8d6c:	ea000006 	b	8d8c <gpio_set_function+0x94>
    8d70:	e59f3054 	ldr	r3, [pc, #84]	; 8dcc <gpio_set_function+0xd4>
    8d74:	e5936010 	ldr	r6, [r3, #16]
    8d78:	ea000003 	b	8d8c <gpio_set_function+0x94>
    8d7c:	e59f3048 	ldr	r3, [pc, #72]	; 8dcc <gpio_set_function+0xd4>
    8d80:	e5936014 	ldr	r6, [r3, #20]
    8d84:	ea000000 	b	8d8c <gpio_set_function+0x94>
    8d88:	e3a06000 	mov	r6, #0
    8d8c:	e1a00006 	mov	r0, r6
    8d90:	eb000301 	bl	999c <get32>
    8d94:	e59f302c 	ldr	r3, [pc, #44]	; 8dc8 <gpio_set_function+0xd0>
    8d98:	e0832493 	umull	r2, r3, r3, r4
    8d9c:	e1a031a3 	lsr	r3, r3, #3
    8da0:	e0833103 	add	r3, r3, r3, lsl #2
    8da4:	e1a03083 	lsl	r3, r3, #1
    8da8:	e0633004 	rsb	r3, r3, r4
    8dac:	e0833083 	add	r3, r3, r3, lsl #1
    8db0:	e3a01007 	mov	r1, #7
    8db4:	e1c01311 	bic	r1, r0, r1, lsl r3
    8db8:	e1a00006 	mov	r0, r6
    8dbc:	e1811315 	orr	r1, r1, r5, lsl r3
    8dc0:	eb0002e9 	bl	996c <put32>
    8dc4:	e8bd8070 	pop	{r4, r5, r6, pc}
    8dc8:	cccccccd 	stclgt	12, cr12, [ip], {205}	; 0xcd
    8dcc:	0000a328 	andeq	sl, r0, r8, lsr #6

00008dd0 <is_gpio_int>:
    8dd0:	e92d4008 	push	{r3, lr}
    8dd4:	e59f301c 	ldr	r3, [pc, #28]	; 8df8 <is_gpio_int+0x28>
    8dd8:	e5930030 	ldr	r0, [r3, #48]	; 0x30
    8ddc:	eb0002ee 	bl	999c <get32>
    8de0:	e3500000 	cmp	r0, #0
    8de4:	0a000001 	beq	8df0 <is_gpio_int+0x20>
    8de8:	e3a00001 	mov	r0, #1
    8dec:	e8bd8008 	pop	{r3, pc}
    8df0:	e3a00000 	mov	r0, #0
    8df4:	e8bd8008 	pop	{r3, pc}
    8df8:	0000a328 	andeq	sl, r0, r8, lsr #6

00008dfc <gpio_int_rising_edge>:
    8dfc:	e92d4038 	push	{r3, r4, r5, lr}
    8e00:	e1a04000 	mov	r4, r0
    8e04:	e350001f 	cmp	r0, #31
    8e08:	88bd8038 	pophi	{r3, r4, r5, pc}
    8e0c:	eb0002d0 	bl	9954 <dev_barrier>
    8e10:	e354001f 	cmp	r4, #31
    8e14:	8a000007 	bhi	8e38 <gpio_int_rising_edge+0x3c>
    8e18:	e59f505c 	ldr	r5, [pc, #92]	; 8e7c <gpio_int_rising_edge+0x80>
    8e1c:	e5950034 	ldr	r0, [r5, #52]	; 0x34
    8e20:	eb0002dd 	bl	999c <get32>
    8e24:	e3a01001 	mov	r1, #1
    8e28:	e1801411 	orr	r1, r0, r1, lsl r4
    8e2c:	e5950034 	ldr	r0, [r5, #52]	; 0x34
    8e30:	eb0002cd 	bl	996c <put32>
    8e34:	ea000007 	b	8e58 <gpio_int_rising_edge+0x5c>
    8e38:	e59f503c 	ldr	r5, [pc, #60]	; 8e7c <gpio_int_rising_edge+0x80>
    8e3c:	e5950038 	ldr	r0, [r5, #56]	; 0x38
    8e40:	eb0002d5 	bl	999c <get32>
    8e44:	e204401f 	and	r4, r4, #31
    8e48:	e3a01001 	mov	r1, #1
    8e4c:	e1801411 	orr	r1, r0, r1, lsl r4
    8e50:	e5950038 	ldr	r0, [r5, #56]	; 0x38
    8e54:	eb0002c4 	bl	996c <put32>
    8e58:	eb0002bd 	bl	9954 <dev_barrier>
    8e5c:	e59f4018 	ldr	r4, [pc, #24]	; 8e7c <gpio_int_rising_edge+0x80>
    8e60:	e594003c 	ldr	r0, [r4, #60]	; 0x3c
    8e64:	eb0002cc 	bl	999c <get32>
    8e68:	e3801802 	orr	r1, r0, #131072	; 0x20000
    8e6c:	e594003c 	ldr	r0, [r4, #60]	; 0x3c
    8e70:	eb0002bd 	bl	996c <put32>
    8e74:	eb0002b6 	bl	9954 <dev_barrier>
    8e78:	e8bd8038 	pop	{r3, r4, r5, pc}
    8e7c:	0000a328 	andeq	sl, r0, r8, lsr #6

00008e80 <gpio_int_falling_edge>:
    8e80:	e92d4038 	push	{r3, r4, r5, lr}
    8e84:	e1a04000 	mov	r4, r0
    8e88:	e350001f 	cmp	r0, #31
    8e8c:	88bd8038 	pophi	{r3, r4, r5, pc}
    8e90:	eb0002af 	bl	9954 <dev_barrier>
    8e94:	e354001f 	cmp	r4, #31
    8e98:	8a000007 	bhi	8ebc <gpio_int_falling_edge+0x3c>
    8e9c:	e59f505c 	ldr	r5, [pc, #92]	; 8f00 <gpio_int_falling_edge+0x80>
    8ea0:	e5950040 	ldr	r0, [r5, #64]	; 0x40
    8ea4:	eb0002bc 	bl	999c <get32>
    8ea8:	e3a01001 	mov	r1, #1
    8eac:	e1801411 	orr	r1, r0, r1, lsl r4
    8eb0:	e5950040 	ldr	r0, [r5, #64]	; 0x40
    8eb4:	eb0002ac 	bl	996c <put32>
    8eb8:	ea000007 	b	8edc <gpio_int_falling_edge+0x5c>
    8ebc:	e59f503c 	ldr	r5, [pc, #60]	; 8f00 <gpio_int_falling_edge+0x80>
    8ec0:	e5950044 	ldr	r0, [r5, #68]	; 0x44
    8ec4:	eb0002b4 	bl	999c <get32>
    8ec8:	e204401f 	and	r4, r4, #31
    8ecc:	e3a01001 	mov	r1, #1
    8ed0:	e1801411 	orr	r1, r0, r1, lsl r4
    8ed4:	e5950044 	ldr	r0, [r5, #68]	; 0x44
    8ed8:	eb0002a3 	bl	996c <put32>
    8edc:	eb00029c 	bl	9954 <dev_barrier>
    8ee0:	e59f4018 	ldr	r4, [pc, #24]	; 8f00 <gpio_int_falling_edge+0x80>
    8ee4:	e594003c 	ldr	r0, [r4, #60]	; 0x3c
    8ee8:	eb0002ab 	bl	999c <get32>
    8eec:	e3801601 	orr	r1, r0, #1048576	; 0x100000
    8ef0:	e594003c 	ldr	r0, [r4, #60]	; 0x3c
    8ef4:	eb00029c 	bl	996c <put32>
    8ef8:	eb000295 	bl	9954 <dev_barrier>
    8efc:	e8bd8038 	pop	{r3, r4, r5, pc}
    8f00:	0000a328 	andeq	sl, r0, r8, lsr #6

00008f04 <gpio_event_detected>:
    8f04:	e92d4010 	push	{r4, lr}
    8f08:	e1a04000 	mov	r4, r0
    8f0c:	e350001f 	cmp	r0, #31
    8f10:	8a000019 	bhi	8f7c <gpio_event_detected+0x78>
    8f14:	eb00028e 	bl	9954 <dev_barrier>
    8f18:	e354001f 	cmp	r4, #31
    8f1c:	8a000008 	bhi	8f44 <gpio_event_detected+0x40>
    8f20:	e59f305c 	ldr	r3, [pc, #92]	; 8f84 <gpio_event_detected+0x80>
    8f24:	e5930048 	ldr	r0, [r3, #72]	; 0x48
    8f28:	eb00029b 	bl	999c <get32>
    8f2c:	e3a03001 	mov	r3, #1
    8f30:	e0103413 	ands	r3, r0, r3, lsl r4
    8f34:	0a00000d 	beq	8f70 <gpio_event_detected+0x6c>
    8f38:	eb000285 	bl	9954 <dev_barrier>
    8f3c:	e3a00001 	mov	r0, #1
    8f40:	e8bd8010 	pop	{r4, pc}
    8f44:	e59f3038 	ldr	r3, [pc, #56]	; 8f84 <gpio_event_detected+0x80>
    8f48:	e593004c 	ldr	r0, [r3, #76]	; 0x4c
    8f4c:	eb000292 	bl	999c <get32>
    8f50:	e3a03001 	mov	r3, #1
    8f54:	e0004413 	and	r4, r0, r3, lsl r4
    8f58:	eb00027d 	bl	9954 <dev_barrier>
    8f5c:	e3540000 	cmp	r4, #0
    8f60:	0a000002 	beq	8f70 <gpio_event_detected+0x6c>
    8f64:	eb00027a 	bl	9954 <dev_barrier>
    8f68:	e3a00001 	mov	r0, #1
    8f6c:	e8bd8010 	pop	{r4, pc}
    8f70:	eb000277 	bl	9954 <dev_barrier>
    8f74:	e3a00000 	mov	r0, #0
    8f78:	e8bd8010 	pop	{r4, pc}
    8f7c:	e3e00000 	mvn	r0, #0
    8f80:	e8bd8010 	pop	{r4, pc}
    8f84:	0000a328 	andeq	sl, r0, r8, lsr #6

00008f88 <gpio_event_clear>:
    8f88:	e92d4010 	push	{r4, lr}
    8f8c:	e1a04000 	mov	r4, r0
    8f90:	e350001f 	cmp	r0, #31
    8f94:	88bd8010 	pophi	{r4, pc}
    8f98:	eb00026d 	bl	9954 <dev_barrier>
    8f9c:	e354001f 	cmp	r4, #31
    8fa0:	8a000005 	bhi	8fbc <gpio_event_clear+0x34>
    8fa4:	e59f3030 	ldr	r3, [pc, #48]	; 8fdc <gpio_event_clear+0x54>
    8fa8:	e5930048 	ldr	r0, [r3, #72]	; 0x48
    8fac:	e3a01001 	mov	r1, #1
    8fb0:	e1a01411 	lsl	r1, r1, r4
    8fb4:	eb00026c 	bl	996c <put32>
    8fb8:	ea000005 	b	8fd4 <gpio_event_clear+0x4c>
    8fbc:	e204401f 	and	r4, r4, #31
    8fc0:	e59f3014 	ldr	r3, [pc, #20]	; 8fdc <gpio_event_clear+0x54>
    8fc4:	e593004c 	ldr	r0, [r3, #76]	; 0x4c
    8fc8:	e3a01001 	mov	r1, #1
    8fcc:	e1a01411 	lsl	r1, r1, r4
    8fd0:	eb000265 	bl	996c <put32>
    8fd4:	eb00025e 	bl	9954 <dev_barrier>
    8fd8:	e8bd8010 	pop	{r4, pc}
    8fdc:	0000a328 	andeq	sl, r0, r8, lsr #6

00008fe0 <sw_uart_putc>:
    8fe0:	e92d41f0 	push	{r4, r5, r6, r7, r8, lr}
    8fe4:	e1a07001 	mov	r7, r1
    8fe8:	e5d06000 	ldrb	r6, [r0]
    8fec:	e5905008 	ldr	r5, [r0, #8]
    8ff0:	ee1f4f3c 	mrc	15, 0, r4, cr15, cr12, {1}
    8ff4:	e1a00006 	mov	r0, r6
    8ff8:	e3a01000 	mov	r1, #0
    8ffc:	ebffff1f 	bl	8c80 <gpio_write>
    9000:	ee1f3f3c 	mrc	15, 0, r3, cr15, cr12, {1}
    9004:	e0643003 	rsb	r3, r4, r3
    9008:	e1550003 	cmp	r5, r3
    900c:	8afffffb 	bhi	9000 <sw_uart_putc+0x20>
    9010:	e1a08085 	lsl	r8, r5, #1
    9014:	e1a00006 	mov	r0, r6
    9018:	e2071001 	and	r1, r7, #1
    901c:	ebffff17 	bl	8c80 <gpio_write>
    9020:	ee1f3f3c 	mrc	15, 0, r3, cr15, cr12, {1}
    9024:	e0643003 	rsb	r3, r4, r3
    9028:	e1580003 	cmp	r8, r3
    902c:	8afffffb 	bhi	9020 <sw_uart_putc+0x40>
    9030:	e0888005 	add	r8, r8, r5
    9034:	e1a00006 	mov	r0, r6
    9038:	e2071002 	and	r1, r7, #2
    903c:	ebffff0f 	bl	8c80 <gpio_write>
    9040:	ee1f3f3c 	mrc	15, 0, r3, cr15, cr12, {1}
    9044:	e0643003 	rsb	r3, r4, r3
    9048:	e1580003 	cmp	r8, r3
    904c:	8afffffb 	bhi	9040 <sw_uart_putc+0x60>
    9050:	e0888005 	add	r8, r8, r5
    9054:	e1a00006 	mov	r0, r6
    9058:	e2071004 	and	r1, r7, #4
    905c:	ebffff07 	bl	8c80 <gpio_write>
    9060:	ee1f3f3c 	mrc	15, 0, r3, cr15, cr12, {1}
    9064:	e0643003 	rsb	r3, r4, r3
    9068:	e1580003 	cmp	r8, r3
    906c:	8afffffb 	bhi	9060 <sw_uart_putc+0x80>
    9070:	e0888005 	add	r8, r8, r5
    9074:	e1a00006 	mov	r0, r6
    9078:	e2071008 	and	r1, r7, #8
    907c:	ebfffeff 	bl	8c80 <gpio_write>
    9080:	ee1f3f3c 	mrc	15, 0, r3, cr15, cr12, {1}
    9084:	e0643003 	rsb	r3, r4, r3
    9088:	e1580003 	cmp	r8, r3
    908c:	8afffffb 	bhi	9080 <sw_uart_putc+0xa0>
    9090:	e0888005 	add	r8, r8, r5
    9094:	e1a00006 	mov	r0, r6
    9098:	e2071010 	and	r1, r7, #16
    909c:	ebfffef7 	bl	8c80 <gpio_write>
    90a0:	ee1f3f3c 	mrc	15, 0, r3, cr15, cr12, {1}
    90a4:	e0643003 	rsb	r3, r4, r3
    90a8:	e1580003 	cmp	r8, r3
    90ac:	8afffffb 	bhi	90a0 <sw_uart_putc+0xc0>
    90b0:	e0888005 	add	r8, r8, r5
    90b4:	e1a00006 	mov	r0, r6
    90b8:	e2071020 	and	r1, r7, #32
    90bc:	ebfffeef 	bl	8c80 <gpio_write>
    90c0:	ee1f3f3c 	mrc	15, 0, r3, cr15, cr12, {1}
    90c4:	e0643003 	rsb	r3, r4, r3
    90c8:	e1580003 	cmp	r8, r3
    90cc:	8afffffb 	bhi	90c0 <sw_uart_putc+0xe0>
    90d0:	e0888005 	add	r8, r8, r5
    90d4:	e1a00006 	mov	r0, r6
    90d8:	e2071040 	and	r1, r7, #64	; 0x40
    90dc:	ebfffee7 	bl	8c80 <gpio_write>
    90e0:	ee1f3f3c 	mrc	15, 0, r3, cr15, cr12, {1}
    90e4:	e0643003 	rsb	r3, r4, r3
    90e8:	e1580003 	cmp	r8, r3
    90ec:	8afffffb 	bhi	90e0 <sw_uart_putc+0x100>
    90f0:	e0888005 	add	r8, r8, r5
    90f4:	e1a00006 	mov	r0, r6
    90f8:	e2071080 	and	r1, r7, #128	; 0x80
    90fc:	ebfffedf 	bl	8c80 <gpio_write>
    9100:	ee1f3f3c 	mrc	15, 0, r3, cr15, cr12, {1}
    9104:	e0643003 	rsb	r3, r4, r3
    9108:	e1580003 	cmp	r8, r3
    910c:	8afffffb 	bhi	9100 <sw_uart_putc+0x120>
    9110:	e0885005 	add	r5, r8, r5
    9114:	e1a00006 	mov	r0, r6
    9118:	e3a01001 	mov	r1, #1
    911c:	ebfffed7 	bl	8c80 <gpio_write>
    9120:	ee1f3f3c 	mrc	15, 0, r3, cr15, cr12, {1}
    9124:	e0643003 	rsb	r3, r4, r3
    9128:	e1550003 	cmp	r5, r3
    912c:	8afffffb 	bhi	9120 <sw_uart_putc+0x140>
    9130:	e8bd81f0 	pop	{r4, r5, r6, r7, r8, pc}

00009134 <sw_uart_getc_timeout>:
    9134:	e92d43f8 	push	{r3, r4, r5, r6, r7, r8, r9, lr}
    9138:	e1a09000 	mov	r9, r0
    913c:	e5d07001 	ldrb	r7, [r0, #1]
    9140:	e1a05007 	mov	r5, r7
    9144:	e1a06001 	mov	r6, r1
    9148:	ebfffe1a 	bl	89b8 <timer_get_usec_raw>
    914c:	e1a04000 	mov	r4, r0
    9150:	e1a00005 	mov	r0, r5
    9154:	ebfffeb6 	bl	8c34 <gpio_read>
    9158:	e3500000 	cmp	r0, #0
    915c:	0a000005 	beq	9178 <sw_uart_getc_timeout+0x44>
    9160:	ebfffe14 	bl	89b8 <timer_get_usec_raw>
    9164:	e0640000 	rsb	r0, r4, r0
    9168:	e1560000 	cmp	r6, r0
    916c:	2afffff7 	bcs	9150 <sw_uart_getc_timeout+0x1c>
    9170:	e3a03000 	mov	r3, #0
    9174:	ea000000 	b	917c <sw_uart_getc_timeout+0x48>
    9178:	e3a03001 	mov	r3, #1
    917c:	e3530000 	cmp	r3, #0
    9180:	0a000059 	beq	92ec <sw_uart_getc_timeout+0x1b8>
    9184:	ee1f8f3c 	mrc	15, 0, r8, cr15, cr12, {1}
    9188:	e5994008 	ldr	r4, [r9, #8]
    918c:	e08420a4 	add	r2, r4, r4, lsr #1
    9190:	ee1f3f3c 	mrc	15, 0, r3, cr15, cr12, {1}
    9194:	e0683003 	rsb	r3, r8, r3
    9198:	e1520003 	cmp	r2, r3
    919c:	8afffffb 	bhi	9190 <sw_uart_getc_timeout+0x5c>
    91a0:	e0888004 	add	r8, r8, r4
    91a4:	e1a00007 	mov	r0, r7
    91a8:	ebfffea1 	bl	8c34 <gpio_read>
    91ac:	e1a09750 	asr	r9, r0, r7
    91b0:	ee1f3f3c 	mrc	15, 0, r3, cr15, cr12, {1}
    91b4:	e0683003 	rsb	r3, r8, r3
    91b8:	e1540003 	cmp	r4, r3
    91bc:	8afffffb 	bhi	91b0 <sw_uart_getc_timeout+0x7c>
    91c0:	e0888004 	add	r8, r8, r4
    91c4:	e1a00007 	mov	r0, r7
    91c8:	ebfffe99 	bl	8c34 <gpio_read>
    91cc:	e1a00750 	asr	r0, r0, r7
    91d0:	e1899080 	orr	r9, r9, r0, lsl #1
    91d4:	ee1f3f3c 	mrc	15, 0, r3, cr15, cr12, {1}
    91d8:	e0683003 	rsb	r3, r8, r3
    91dc:	e1540003 	cmp	r4, r3
    91e0:	8afffffb 	bhi	91d4 <sw_uart_getc_timeout+0xa0>
    91e4:	e0888004 	add	r8, r8, r4
    91e8:	e1a00007 	mov	r0, r7
    91ec:	ebfffe90 	bl	8c34 <gpio_read>
    91f0:	e1a00750 	asr	r0, r0, r7
    91f4:	e1899100 	orr	r9, r9, r0, lsl #2
    91f8:	ee1f3f3c 	mrc	15, 0, r3, cr15, cr12, {1}
    91fc:	e0683003 	rsb	r3, r8, r3
    9200:	e1540003 	cmp	r4, r3
    9204:	8afffffb 	bhi	91f8 <sw_uart_getc_timeout+0xc4>
    9208:	e0888004 	add	r8, r8, r4
    920c:	e1a00007 	mov	r0, r7
    9210:	ebfffe87 	bl	8c34 <gpio_read>
    9214:	e1a00750 	asr	r0, r0, r7
    9218:	e1899180 	orr	r9, r9, r0, lsl #3
    921c:	ee1f3f3c 	mrc	15, 0, r3, cr15, cr12, {1}
    9220:	e0683003 	rsb	r3, r8, r3
    9224:	e1540003 	cmp	r4, r3
    9228:	8afffffb 	bhi	921c <sw_uart_getc_timeout+0xe8>
    922c:	e0888004 	add	r8, r8, r4
    9230:	e1a00007 	mov	r0, r7
    9234:	ebfffe7e 	bl	8c34 <gpio_read>
    9238:	e1a00750 	asr	r0, r0, r7
    923c:	e1899200 	orr	r9, r9, r0, lsl #4
    9240:	ee1f3f3c 	mrc	15, 0, r3, cr15, cr12, {1}
    9244:	e0683003 	rsb	r3, r8, r3
    9248:	e1540003 	cmp	r4, r3
    924c:	8afffffb 	bhi	9240 <sw_uart_getc_timeout+0x10c>
    9250:	e0888004 	add	r8, r8, r4
    9254:	e1a00007 	mov	r0, r7
    9258:	ebfffe75 	bl	8c34 <gpio_read>
    925c:	e1a00750 	asr	r0, r0, r7
    9260:	e1899280 	orr	r9, r9, r0, lsl #5
    9264:	ee1f3f3c 	mrc	15, 0, r3, cr15, cr12, {1}
    9268:	e0683003 	rsb	r3, r8, r3
    926c:	e1540003 	cmp	r4, r3
    9270:	8afffffb 	bhi	9264 <sw_uart_getc_timeout+0x130>
    9274:	e0888004 	add	r8, r8, r4
    9278:	e1a00007 	mov	r0, r7
    927c:	ebfffe6c 	bl	8c34 <gpio_read>
    9280:	e1a00750 	asr	r0, r0, r7
    9284:	e1899300 	orr	r9, r9, r0, lsl #6
    9288:	ee1f3f3c 	mrc	15, 0, r3, cr15, cr12, {1}
    928c:	e0683003 	rsb	r3, r8, r3
    9290:	e1540003 	cmp	r4, r3
    9294:	8afffffb 	bhi	9288 <sw_uart_getc_timeout+0x154>
    9298:	e1a00007 	mov	r0, r7
    929c:	ebfffe64 	bl	8c34 <gpio_read>
    92a0:	e1a00750 	asr	r0, r0, r7
    92a4:	e1899380 	orr	r9, r9, r0, lsl #7
    92a8:	ebfffdc2 	bl	89b8 <timer_get_usec_raw>
    92ac:	e1a04000 	mov	r4, r0
    92b0:	e1a00005 	mov	r0, r5
    92b4:	ebfffe5e 	bl	8c34 <gpio_read>
    92b8:	e3500000 	cmp	r0, #0
    92bc:	0a000005 	beq	92d8 <sw_uart_getc_timeout+0x1a4>
    92c0:	ebfffdbc 	bl	89b8 <timer_get_usec_raw>
    92c4:	e0640000 	rsb	r0, r4, r0
    92c8:	e1560000 	cmp	r6, r0
    92cc:	2afffff7 	bcs	92b0 <sw_uart_getc_timeout+0x17c>
    92d0:	e3a03000 	mov	r3, #0
    92d4:	ea000000 	b	92dc <sw_uart_getc_timeout+0x1a8>
    92d8:	e3a03001 	mov	r3, #1
    92dc:	e3530000 	cmp	r3, #0
    92e0:	0a000003 	beq	92f4 <sw_uart_getc_timeout+0x1c0>
    92e4:	e1a00009 	mov	r0, r9
    92e8:	e8bd83f8 	pop	{r3, r4, r5, r6, r7, r8, r9, pc}
    92ec:	e3e00000 	mvn	r0, #0
    92f0:	e8bd83f8 	pop	{r3, r4, r5, r6, r7, r8, r9, pc}
    92f4:	e3e00000 	mvn	r0, #0
    92f8:	e8bd83f8 	pop	{r3, r4, r5, r6, r7, r8, r9, pc}

000092fc <sw_uart_gets_until>:
    92fc:	e92d47f0 	push	{r4, r5, r6, r7, r8, r9, sl, lr}
    9300:	e1a08000 	mov	r8, r0
    9304:	e1a06001 	mov	r6, r1
    9308:	e1a09003 	mov	r9, r3
    930c:	e59da020 	ldr	sl, [sp, #32]
    9310:	e3520000 	cmp	r2, #0
    9314:	1a000006 	bne	9334 <sw_uart_gets_until+0x38>
    9318:	ebfffbf7 	bl	82fc <rpi_reset_putc>
    931c:	e59f005c 	ldr	r0, [pc, #92]	; 9380 <sw_uart_gets_until+0x84>
    9320:	e59f105c 	ldr	r1, [pc, #92]	; 9384 <sw_uart_gets_until+0x88>
    9324:	e59f205c 	ldr	r2, [pc, #92]	; 9388 <sw_uart_gets_until+0x8c>
    9328:	e3a0306d 	mov	r3, #109	; 0x6d
    932c:	ebfffbd7 	bl	8290 <printk>
    9330:	ebfffd46 	bl	8850 <clean_reboot>
    9334:	e3a04000 	mov	r4, #0
    9338:	e5c14000 	strb	r4, [r1]
    933c:	e2427001 	sub	r7, r2, #1
    9340:	ea000007 	b	9364 <sw_uart_gets_until+0x68>
    9344:	e1a00008 	mov	r0, r8
    9348:	e1a0100a 	mov	r1, sl
    934c:	ebffff78 	bl	9134 <sw_uart_getc_timeout>
    9350:	e6ef0070 	uxtb	r0, r0
    9354:	e1500009 	cmp	r0, r9
    9358:	0a000004 	beq	9370 <sw_uart_gets_until+0x74>
    935c:	e7c60005 	strb	r0, [r6, r5]
    9360:	e2844001 	add	r4, r4, #1
    9364:	e1a05004 	mov	r5, r4
    9368:	e1540007 	cmp	r4, r7
    936c:	3afffff4 	bcc	9344 <sw_uart_gets_until+0x48>
    9370:	e3a03000 	mov	r3, #0
    9374:	e7c63005 	strb	r3, [r6, r5]
    9378:	e1a00004 	mov	r0, r4
    937c:	e8bd87f0 	pop	{r4, r5, r6, r7, r8, r9, sl, pc}
    9380:	0000a5fc 	strdeq	sl, [r0], -ip
    9384:	0000a618 	andeq	sl, r0, r8, lsl r6
    9388:	0000a584 	andeq	sl, r0, r4, lsl #11

0000938c <sw_uart_gets_timeout>:
    938c:	e92d41f0 	push	{r4, r5, r6, r7, r8, lr}
    9390:	e1a07000 	mov	r7, r0
    9394:	e1a05001 	mov	r5, r1
    9398:	e1a08003 	mov	r8, r3
    939c:	e3520000 	cmp	r2, #0
    93a0:	1a000006 	bne	93c0 <sw_uart_gets_timeout+0x34>
    93a4:	ebfffbd4 	bl	82fc <rpi_reset_putc>
    93a8:	e59f004c 	ldr	r0, [pc, #76]	; 93fc <sw_uart_gets_timeout+0x70>
    93ac:	e59f104c 	ldr	r1, [pc, #76]	; 9400 <sw_uart_gets_timeout+0x74>
    93b0:	e59f204c 	ldr	r2, [pc, #76]	; 9404 <sw_uart_gets_timeout+0x78>
    93b4:	e3a03083 	mov	r3, #131	; 0x83
    93b8:	ebfffbb4 	bl	8290 <printk>
    93bc:	ebfffd23 	bl	8850 <clean_reboot>
    93c0:	e3a04000 	mov	r4, #0
    93c4:	e5c14000 	strb	r4, [r1]
    93c8:	e2426001 	sub	r6, r2, #1
    93cc:	ea000004 	b	93e4 <sw_uart_gets_timeout+0x58>
    93d0:	e1a00007 	mov	r0, r7
    93d4:	e1a01008 	mov	r1, r8
    93d8:	ebffff55 	bl	9134 <sw_uart_getc_timeout>
    93dc:	e7c50004 	strb	r0, [r5, r4]
    93e0:	e2844001 	add	r4, r4, #1
    93e4:	e1540006 	cmp	r4, r6
    93e8:	3afffff8 	bcc	93d0 <sw_uart_gets_timeout+0x44>
    93ec:	e3a03000 	mov	r3, #0
    93f0:	e7c53004 	strb	r3, [r5, r4]
    93f4:	e1a00004 	mov	r0, r4
    93f8:	e8bd81f0 	pop	{r4, r5, r6, r7, r8, pc}
    93fc:	0000a5fc 	strdeq	sl, [r0], -ip
    9400:	0000a618 	andeq	sl, r0, r8, lsl r6
    9404:	0000a598 	muleq	r0, r8, r5

00009408 <sw_uart_init_helper>:
    9408:	e92d41f0 	push	{r4, r5, r6, r7, r8, lr}
    940c:	e1a04000 	mov	r4, r0
    9410:	e1a06001 	mov	r6, r1
    9414:	e1a08002 	mov	r8, r2
    9418:	e1a05003 	mov	r5, r3
    941c:	e59d7018 	ldr	r7, [sp, #24]
    9420:	e1a00001 	mov	r0, r1
    9424:	ebfffd7e 	bl	8a24 <gpio_set_output>
    9428:	e1a00008 	mov	r0, r8
    942c:	ebfffdcd 	bl	8b68 <gpio_set_input>
    9430:	e3a03001 	mov	r3, #1
    9434:	ee0f3f1c 	mcr	15, 0, r3, cr15, cr12, {0}
    9438:	e1a00006 	mov	r0, r6
    943c:	e3a01001 	mov	r1, #1
    9440:	ebfffe0e 	bl	8c80 <gpio_write>
    9444:	e0020795 	mul	r2, r5, r7
    9448:	e59f3068 	ldr	r3, [pc, #104]	; 94b8 <sw_uart_init_helper+0xb0>
    944c:	e0653003 	rsb	r3, r5, r3
    9450:	e1530002 	cmp	r3, r2
    9454:	8a000005 	bhi	9470 <sw_uart_init_helper+0x68>
    9458:	e59f3058 	ldr	r3, [pc, #88]	; 94b8 <sw_uart_init_helper+0xb0>
    945c:	e0853003 	add	r3, r5, r3
    9460:	e1530002 	cmp	r3, r2
    9464:	2a000003 	bcs	9478 <sw_uart_init_helper+0x70>
    9468:	e3a03000 	mov	r3, #0
    946c:	ea000002 	b	947c <sw_uart_init_helper+0x74>
    9470:	e3a03000 	mov	r3, #0
    9474:	ea000000 	b	947c <sw_uart_init_helper+0x74>
    9478:	e3a03001 	mov	r3, #1
    947c:	e3530000 	cmp	r3, #0
    9480:	1a000006 	bne	94a0 <sw_uart_init_helper+0x98>
    9484:	ebfffb9c 	bl	82fc <rpi_reset_putc>
    9488:	e59f002c 	ldr	r0, [pc, #44]	; 94bc <sw_uart_init_helper+0xb4>
    948c:	e59f102c 	ldr	r1, [pc, #44]	; 94c0 <sw_uart_init_helper+0xb8>
    9490:	e59f202c 	ldr	r2, [pc, #44]	; 94c4 <sw_uart_init_helper+0xbc>
    9494:	e3a0309d 	mov	r3, #157	; 0x9d
    9498:	ebfffb7c 	bl	8290 <printk>
    949c:	ebfffceb 	bl	8850 <clean_reboot>
    94a0:	e5c46000 	strb	r6, [r4]
    94a4:	e5c48001 	strb	r8, [r4, #1]
    94a8:	e5845004 	str	r5, [r4, #4]
    94ac:	e5847008 	str	r7, [r4, #8]
    94b0:	e1a00004 	mov	r0, r4
    94b4:	e8bd81f0 	pop	{r4, r5, r6, r7, r8, pc}
    94b8:	29b92700 	ldmibcs	r9!, {r8, r9, sl, sp}
    94bc:	0000a62c 	andeq	sl, r0, ip, lsr #12
    94c0:	0000a618 	andeq	sl, r0, r8, lsl r6
    94c4:	0000a5b0 			; <UNDEFINED> instruction: 0x0000a5b0

000094c8 <sw_uart_getc>:
    94c8:	e92d4008 	push	{r3, lr}
    94cc:	e3e01000 	mvn	r1, #0
    94d0:	ebffff17 	bl	9134 <sw_uart_getc_timeout>
    94d4:	e3500000 	cmp	r0, #0
    94d8:	a8bd8008 	popge	{r3, pc}
    94dc:	ebfffb86 	bl	82fc <rpi_reset_putc>
    94e0:	e59f0010 	ldr	r0, [pc, #16]	; 94f8 <sw_uart_getc+0x30>
    94e4:	e59f1010 	ldr	r1, [pc, #16]	; 94fc <sw_uart_getc+0x34>
    94e8:	e59f2010 	ldr	r2, [pc, #16]	; 9500 <sw_uart_getc+0x38>
    94ec:	e3a030ac 	mov	r3, #172	; 0xac
    94f0:	ebfffb66 	bl	8290 <printk>
    94f4:	ebfffcd5 	bl	8850 <clean_reboot>
    94f8:	0000a670 	andeq	sl, r0, r0, ror r6
    94fc:	0000a618 	andeq	sl, r0, r8, lsl r6
    9500:	0000a5c4 	andeq	sl, r0, r4, asr #11

00009504 <sw_uart_putk>:
    9504:	e92d4038 	push	{r3, r4, r5, lr}
    9508:	e1a05000 	mov	r5, r0
    950c:	e1a04001 	mov	r4, r1
    9510:	ea000002 	b	9520 <sw_uart_putk+0x1c>
    9514:	e1a00005 	mov	r0, r5
    9518:	ebfffeb0 	bl	8fe0 <sw_uart_putc>
    951c:	e2844001 	add	r4, r4, #1
    9520:	e5d41000 	ldrb	r1, [r4]
    9524:	e3510000 	cmp	r1, #0
    9528:	1afffff9 	bne	9514 <sw_uart_putk+0x10>
    952c:	e8bd8038 	pop	{r3, r4, r5, pc}

00009530 <sw_uart_printk>:
    9530:	e92d000e 	push	{r1, r2, r3}
    9534:	e92d4030 	push	{r4, r5, lr}
    9538:	e24dde1d 	sub	sp, sp, #464	; 0x1d0
    953c:	e1a05000 	mov	r5, r0
    9540:	e28d3e1e 	add	r3, sp, #480	; 0x1e0
    9544:	e58d3000 	str	r3, [sp]
    9548:	e28d0004 	add	r0, sp, #4
    954c:	e3a01f73 	mov	r1, #460	; 0x1cc
    9550:	e59d21dc 	ldr	r2, [sp, #476]	; 0x1dc
    9554:	ebfffc1b 	bl	85c8 <va_printk>
    9558:	e1a04000 	mov	r4, r0
    955c:	e59f3040 	ldr	r3, [pc, #64]	; 95a4 <sw_uart_printk+0x74>
    9560:	e1500003 	cmp	r0, r3
    9564:	9a000006 	bls	9584 <sw_uart_printk+0x54>
    9568:	ebfffb63 	bl	82fc <rpi_reset_putc>
    956c:	e59f0034 	ldr	r0, [pc, #52]	; 95a8 <sw_uart_printk+0x78>
    9570:	e59f1034 	ldr	r1, [pc, #52]	; 95ac <sw_uart_printk+0x7c>
    9574:	e59f2034 	ldr	r2, [pc, #52]	; 95b0 <sw_uart_printk+0x80>
    9578:	e3a030c0 	mov	r3, #192	; 0xc0
    957c:	ebfffb43 	bl	8290 <printk>
    9580:	ebfffcb2 	bl	8850 <clean_reboot>
    9584:	e1a00005 	mov	r0, r5
    9588:	e28d1004 	add	r1, sp, #4
    958c:	ebffffdc 	bl	9504 <sw_uart_putk>
    9590:	e1a00004 	mov	r0, r4
    9594:	e28dde1d 	add	sp, sp, #464	; 0x1d0
    9598:	e8bd4030 	pop	{r4, r5, lr}
    959c:	e28dd00c 	add	sp, sp, #12
    95a0:	e12fff1e 	bx	lr
    95a4:	000001ca 	andeq	r0, r0, sl, asr #3
    95a8:	0000a6a8 	andeq	sl, r0, r8, lsr #13
    95ac:	0000a618 	andeq	sl, r0, r8, lsl r6
    95b0:	0000a5d4 	ldrdeq	sl, [r0], -r4

000095b4 <sw_uart_gets_until_blk>:
    95b4:	e52de004 	push	{lr}		; (str lr, [sp, #-4]!)
    95b8:	e24dd00c 	sub	sp, sp, #12
    95bc:	e3e0c000 	mvn	ip, #0
    95c0:	e58dc000 	str	ip, [sp]
    95c4:	ebffff4c 	bl	92fc <sw_uart_gets_until>
    95c8:	e3500000 	cmp	r0, #0
    95cc:	aa000006 	bge	95ec <sw_uart_gets_until_blk+0x38>
    95d0:	ebfffb49 	bl	82fc <rpi_reset_putc>
    95d4:	e59f0018 	ldr	r0, [pc, #24]	; 95f4 <sw_uart_gets_until_blk+0x40>
    95d8:	e59f1018 	ldr	r1, [pc, #24]	; 95f8 <sw_uart_gets_until_blk+0x44>
    95dc:	e59f2018 	ldr	r2, [pc, #24]	; 95fc <sw_uart_gets_until_blk+0x48>
    95e0:	e3a030c8 	mov	r3, #200	; 0xc8
    95e4:	ebfffb29 	bl	8290 <printk>
    95e8:	ebfffc98 	bl	8850 <clean_reboot>
    95ec:	e28dd00c 	add	sp, sp, #12
    95f0:	e49df004 	pop	{pc}		; (ldr pc, [sp], #4)
    95f4:	0000a670 	andeq	sl, r0, r0, ror r6
    95f8:	0000a618 	andeq	sl, r0, r8, lsl r6
    95fc:	0000a5e4 	andeq	sl, r0, r4, ror #11

00009600 <uart_init>:
    9600:	e92d4038 	push	{r3, r4, r5, lr}
    9604:	eb0000d2 	bl	9954 <dev_barrier>
    9608:	e3a0000e 	mov	r0, #14
    960c:	e3a01002 	mov	r1, #2
    9610:	ebfffdb8 	bl	8cf8 <gpio_set_function>
    9614:	e3a0000f 	mov	r0, #15
    9618:	e3a01002 	mov	r1, #2
    961c:	ebfffdb5 	bl	8cf8 <gpio_set_function>
    9620:	eb0000cb 	bl	9954 <dev_barrier>
    9624:	e59f4068 	ldr	r4, [pc, #104]	; 9694 <uart_init+0x94>
    9628:	e5945000 	ldr	r5, [r4]
    962c:	e1a00005 	mov	r0, r5
    9630:	eb0000d9 	bl	999c <get32>
    9634:	e3801001 	orr	r1, r0, #1
    9638:	e1a00005 	mov	r0, r5
    963c:	eb0000ca 	bl	996c <put32>
    9640:	eb0000c3 	bl	9954 <dev_barrier>
    9644:	e5940004 	ldr	r0, [r4, #4]
    9648:	e3a01000 	mov	r1, #0
    964c:	eb0000c6 	bl	996c <put32>
    9650:	e5940008 	ldr	r0, [r4, #8]
    9654:	e3a01000 	mov	r1, #0
    9658:	eb0000c3 	bl	996c <put32>
    965c:	e594000c 	ldr	r0, [r4, #12]
    9660:	e3a01006 	mov	r1, #6
    9664:	eb0000c0 	bl	996c <put32>
    9668:	e5940010 	ldr	r0, [r4, #16]
    966c:	e3a01003 	mov	r1, #3
    9670:	eb0000bd 	bl	996c <put32>
    9674:	e5940014 	ldr	r0, [r4, #20]
    9678:	e59f1018 	ldr	r1, [pc, #24]	; 9698 <uart_init+0x98>
    967c:	eb0000ba 	bl	996c <put32>
    9680:	e5940004 	ldr	r0, [r4, #4]
    9684:	e3a01003 	mov	r1, #3
    9688:	eb0000b7 	bl	996c <put32>
    968c:	eb0000b0 	bl	9954 <dev_barrier>
    9690:	e8bd8038 	pop	{r3, r4, r5, pc}
    9694:	0000a388 	andeq	sl, r0, r8, lsl #7
    9698:	0000010e 	andeq	r0, r0, lr, lsl #2

0000969c <uart_can_getc>:
    969c:	e92d4008 	push	{r3, lr}
    96a0:	e59f300c 	ldr	r3, [pc, #12]	; 96b4 <uart_can_getc+0x18>
    96a4:	e5930018 	ldr	r0, [r3, #24]
    96a8:	eb0000bb 	bl	999c <get32>
    96ac:	e2000001 	and	r0, r0, #1
    96b0:	e8bd8008 	pop	{r3, pc}
    96b4:	0000a388 	andeq	sl, r0, r8, lsl #7

000096b8 <uart_getc>:
    96b8:	e92d4008 	push	{r3, lr}
    96bc:	ebfffff6 	bl	969c <uart_can_getc>
    96c0:	e3500000 	cmp	r0, #0
    96c4:	0afffffc 	beq	96bc <uart_getc+0x4>
    96c8:	e59f300c 	ldr	r3, [pc, #12]	; 96dc <uart_getc+0x24>
    96cc:	e593001c 	ldr	r0, [r3, #28]
    96d0:	eb0000b1 	bl	999c <get32>
    96d4:	e6ef0070 	uxtb	r0, r0
    96d8:	e8bd8008 	pop	{r3, pc}
    96dc:	0000a388 	andeq	sl, r0, r8, lsl #7

000096e0 <uart_can_putc>:
    96e0:	e92d4008 	push	{r3, lr}
    96e4:	e59f300c 	ldr	r3, [pc, #12]	; 96f8 <uart_can_putc+0x18>
    96e8:	e5930018 	ldr	r0, [r3, #24]
    96ec:	eb0000aa 	bl	999c <get32>
    96f0:	e2000020 	and	r0, r0, #32
    96f4:	e8bd8008 	pop	{r3, pc}
    96f8:	0000a388 	andeq	sl, r0, r8, lsl #7

000096fc <uart_putc>:
    96fc:	e92d4010 	push	{r4, lr}
    9700:	e1a04000 	mov	r4, r0
    9704:	ebfffff5 	bl	96e0 <uart_can_putc>
    9708:	e3500000 	cmp	r0, #0
    970c:	0afffffc 	beq	9704 <uart_putc+0x8>
    9710:	e59f300c 	ldr	r3, [pc, #12]	; 9724 <uart_putc+0x28>
    9714:	e593001c 	ldr	r0, [r3, #28]
    9718:	e1a01004 	mov	r1, r4
    971c:	eb000092 	bl	996c <put32>
    9720:	e8bd8010 	pop	{r4, pc}
    9724:	0000a388 	andeq	sl, r0, r8, lsl #7

00009728 <uart_has_data>:
    9728:	e92d4008 	push	{r3, lr}
    972c:	ebffffda 	bl	969c <uart_can_getc>
    9730:	e8bd8008 	pop	{r3, pc}

00009734 <uart_getc_async>:
    9734:	e92d4008 	push	{r3, lr}
    9738:	ebfffffa 	bl	9728 <uart_has_data>
    973c:	e3500000 	cmp	r0, #0
    9740:	0a000001 	beq	974c <uart_getc_async+0x18>
    9744:	ebffffdb 	bl	96b8 <uart_getc>
    9748:	e8bd8008 	pop	{r3, pc}
    974c:	e3e00000 	mvn	r0, #0
    9750:	e8bd8008 	pop	{r3, pc}

00009754 <int_init>:
    9754:	e92d4008 	push	{r3, lr}
    9758:	e59f004c 	ldr	r0, [pc, #76]	; 97ac <int_init+0x58>
    975c:	e3e01000 	mvn	r1, #0
    9760:	eb000083 	bl	9974 <PUT32>
    9764:	e59f0044 	ldr	r0, [pc, #68]	; 97b0 <int_init+0x5c>
    9768:	e3e01000 	mvn	r1, #0
    976c:	eb000080 	bl	9974 <PUT32>
    9770:	eb000077 	bl	9954 <dev_barrier>
    9774:	e59f3038 	ldr	r3, [pc, #56]	; 97b4 <int_init+0x60>
    9778:	e59f0038 	ldr	r0, [pc, #56]	; 97b8 <int_init+0x64>
    977c:	e0630000 	rsb	r0, r3, r0
    9780:	e1a00140 	asr	r0, r0, #2
    9784:	e3a03000 	mov	r3, #0
    9788:	e59fc024 	ldr	ip, [pc, #36]	; 97b4 <int_init+0x60>
    978c:	ea000003 	b	97a0 <int_init+0x4c>
    9790:	e1a02103 	lsl	r2, r3, #2
    9794:	e79c1103 	ldr	r1, [ip, r3, lsl #2]
    9798:	e5821000 	str	r1, [r2]
    979c:	e2833001 	add	r3, r3, #1
    97a0:	e1530000 	cmp	r3, r0
    97a4:	3afffff9 	bcc	9790 <int_init+0x3c>
    97a8:	e8bd8008 	pop	{r3, pc}
    97ac:	2000b21c 	andcs	fp, r0, ip, lsl r2
    97b0:	2000b220 	andcs	fp, r0, r0, lsr #4
    97b4:	000099d8 	ldrdeq	r9, [r0], -r8
    97b8:	00009a28 	andeq	r9, r0, r8, lsr #20

000097bc <fast_interrupt_vector>:
    97bc:	e52de004 	push	{lr}		; (str lr, [sp, #-4]!)
    97c0:	e24dd00c 	sub	sp, sp, #12
    97c4:	e1a04000 	mov	r4, r0
    97c8:	ebfffacb 	bl	82fc <rpi_reset_putc>
    97cc:	e59f301c 	ldr	r3, [pc, #28]	; 97f0 <fast_interrupt_vector+0x34>
    97d0:	e58d3000 	str	r3, [sp]
    97d4:	e58d4004 	str	r4, [sp, #4]
    97d8:	e59f0014 	ldr	r0, [pc, #20]	; 97f4 <fast_interrupt_vector+0x38>
    97dc:	e59f1014 	ldr	r1, [pc, #20]	; 97f8 <fast_interrupt_vector+0x3c>
    97e0:	e59f2014 	ldr	r2, [pc, #20]	; 97fc <fast_interrupt_vector+0x40>
    97e4:	e3a03020 	mov	r3, #32
    97e8:	ebfffaa8 	bl	8290 <printk>
    97ec:	ebfffc17 	bl	8850 <clean_reboot>
    97f0:	0000a7b8 			; <UNDEFINED> instruction: 0x0000a7b8
    97f4:	0000a75c 	andeq	sl, r0, ip, asr r7
    97f8:	0000a798 	muleq	r0, r8, r7
    97fc:	0000a6cc 	andeq	sl, r0, ip, asr #13

00009800 <software_interrupt_vector>:
    9800:	e52de004 	push	{lr}		; (str lr, [sp, #-4]!)
    9804:	e24dd00c 	sub	sp, sp, #12
    9808:	e1a04000 	mov	r4, r0
    980c:	ebfffaba 	bl	82fc <rpi_reset_putc>
    9810:	e59f301c 	ldr	r3, [pc, #28]	; 9834 <software_interrupt_vector+0x34>
    9814:	e58d3000 	str	r3, [sp]
    9818:	e58d4004 	str	r4, [sp, #4]
    981c:	e59f0014 	ldr	r0, [pc, #20]	; 9838 <software_interrupt_vector+0x38>
    9820:	e59f1014 	ldr	r1, [pc, #20]	; 983c <software_interrupt_vector+0x3c>
    9824:	e59f2014 	ldr	r2, [pc, #20]	; 9840 <software_interrupt_vector+0x40>
    9828:	e3a03025 	mov	r3, #37	; 0x25
    982c:	ebfffa97 	bl	8290 <printk>
    9830:	ebfffc06 	bl	8850 <clean_reboot>
    9834:	0000a7c0 	andeq	sl, r0, r0, asr #15
    9838:	0000a75c 	andeq	sl, r0, ip, asr r7
    983c:	0000a798 	muleq	r0, r8, r7
    9840:	0000a6e4 	andeq	sl, r0, r4, ror #13

00009844 <reset_vector>:
    9844:	e52de004 	push	{lr}		; (str lr, [sp, #-4]!)
    9848:	e24dd00c 	sub	sp, sp, #12
    984c:	e1a04000 	mov	r4, r0
    9850:	ebfffaa9 	bl	82fc <rpi_reset_putc>
    9854:	e59f301c 	ldr	r3, [pc, #28]	; 9878 <reset_vector+0x34>
    9858:	e58d3000 	str	r3, [sp]
    985c:	e58d4004 	str	r4, [sp, #4]
    9860:	e59f0014 	ldr	r0, [pc, #20]	; 987c <reset_vector+0x38>
    9864:	e59f1014 	ldr	r1, [pc, #20]	; 9880 <reset_vector+0x3c>
    9868:	e59f2014 	ldr	r2, [pc, #20]	; 9884 <reset_vector+0x40>
    986c:	e3a03028 	mov	r3, #40	; 0x28
    9870:	ebfffa86 	bl	8290 <printk>
    9874:	ebfffbf5 	bl	8850 <clean_reboot>
    9878:	0000a7d0 	ldrdeq	sl, [r0], -r0
    987c:	0000a75c 	andeq	sl, r0, ip, asr r7
    9880:	0000a798 	muleq	r0, r8, r7
    9884:	0000a700 	andeq	sl, r0, r0, lsl #14

00009888 <undefined_instruction_vector>:
    9888:	e52de004 	push	{lr}		; (str lr, [sp, #-4]!)
    988c:	e24dd00c 	sub	sp, sp, #12
    9890:	e1a04000 	mov	r4, r0
    9894:	ebfffa98 	bl	82fc <rpi_reset_putc>
    9898:	e59f301c 	ldr	r3, [pc, #28]	; 98bc <undefined_instruction_vector+0x34>
    989c:	e58d3000 	str	r3, [sp]
    98a0:	e58d4004 	str	r4, [sp, #4]
    98a4:	e59f0014 	ldr	r0, [pc, #20]	; 98c0 <undefined_instruction_vector+0x38>
    98a8:	e59f1014 	ldr	r1, [pc, #20]	; 98c4 <undefined_instruction_vector+0x3c>
    98ac:	e59f2014 	ldr	r2, [pc, #20]	; 98c8 <undefined_instruction_vector+0x40>
    98b0:	e3a0302b 	mov	r3, #43	; 0x2b
    98b4:	ebfffa75 	bl	8290 <printk>
    98b8:	ebfffbe4 	bl	8850 <clean_reboot>
    98bc:	0000a7e0 	andeq	sl, r0, r0, ror #15
    98c0:	0000a75c 	andeq	sl, r0, ip, asr r7
    98c4:	0000a798 	muleq	r0, r8, r7
    98c8:	0000a710 	andeq	sl, r0, r0, lsl r7

000098cc <prefetch_abort_vector>:
    98cc:	e52de004 	push	{lr}		; (str lr, [sp, #-4]!)
    98d0:	e24dd00c 	sub	sp, sp, #12
    98d4:	e1a04000 	mov	r4, r0
    98d8:	ebfffa87 	bl	82fc <rpi_reset_putc>
    98dc:	e59f301c 	ldr	r3, [pc, #28]	; 9900 <prefetch_abort_vector+0x34>
    98e0:	e58d3000 	str	r3, [sp]
    98e4:	e58d4004 	str	r4, [sp, #4]
    98e8:	e59f0014 	ldr	r0, [pc, #20]	; 9904 <prefetch_abort_vector+0x38>
    98ec:	e59f1014 	ldr	r1, [pc, #20]	; 9908 <prefetch_abort_vector+0x3c>
    98f0:	e59f2014 	ldr	r2, [pc, #20]	; 990c <prefetch_abort_vector+0x40>
    98f4:	e3a0302e 	mov	r3, #46	; 0x2e
    98f8:	ebfffa64 	bl	8290 <printk>
    98fc:	ebfffbd3 	bl	8850 <clean_reboot>
    9900:	0000a7f8 	strdeq	sl, [r0], -r8
    9904:	0000a75c 	andeq	sl, r0, ip, asr r7
    9908:	0000a798 	muleq	r0, r8, r7
    990c:	0000a730 	andeq	sl, r0, r0, lsr r7

00009910 <data_abort_vector>:
    9910:	e52de004 	push	{lr}		; (str lr, [sp, #-4]!)
    9914:	e24dd00c 	sub	sp, sp, #12
    9918:	e1a04000 	mov	r4, r0
    991c:	ebfffa76 	bl	82fc <rpi_reset_putc>
    9920:	e59f301c 	ldr	r3, [pc, #28]	; 9944 <data_abort_vector+0x34>
    9924:	e58d3000 	str	r3, [sp]
    9928:	e58d4004 	str	r4, [sp, #4]
    992c:	e59f0014 	ldr	r0, [pc, #20]	; 9948 <data_abort_vector+0x38>
    9930:	e59f1014 	ldr	r1, [pc, #20]	; 994c <data_abort_vector+0x3c>
    9934:	e59f2014 	ldr	r2, [pc, #20]	; 9950 <data_abort_vector+0x40>
    9938:	e3a03031 	mov	r3, #49	; 0x31
    993c:	ebfffa53 	bl	8290 <printk>
    9940:	ebfffbc2 	bl	8850 <clean_reboot>
    9944:	0000a808 	andeq	sl, r0, r8, lsl #16
    9948:	0000a75c 	andeq	sl, r0, ip, asr r7
    994c:	0000a798 	muleq	r0, r8, r7
    9950:	0000a748 	andeq	sl, r0, r8, asr #14

00009954 <dev_barrier>:
    9954:	ea000002 	b	9964 <dsb>

00009958 <dmb>:
    9958:	e3a00000 	mov	r0, #0
    995c:	ee070fba 	mcr	15, 0, r0, cr7, cr10, {5}
    9960:	e12fff1e 	bx	lr

00009964 <dsb>:
    9964:	ee070f9a 	mcr	15, 0, r0, cr7, cr10, {4}
    9968:	e12fff1e 	bx	lr

0000996c <put32>:
    996c:	e5801000 	str	r1, [r0]
    9970:	e12fff1e 	bx	lr

00009974 <PUT32>:
    9974:	e5801000 	str	r1, [r0]
    9978:	e12fff1e 	bx	lr

0000997c <put16>:
    997c:	e1c010b0 	strh	r1, [r0]
    9980:	e12fff1e 	bx	lr

00009984 <PUT16>:
    9984:	e1c010b0 	strh	r1, [r0]
    9988:	e12fff1e 	bx	lr

0000998c <put8>:
    998c:	e5c01000 	strb	r1, [r0]
    9990:	e12fff1e 	bx	lr

00009994 <PUT8>:
    9994:	e5c01000 	strb	r1, [r0]
    9998:	e12fff1e 	bx	lr

0000999c <get32>:
    999c:	e5900000 	ldr	r0, [r0]
    99a0:	e12fff1e 	bx	lr

000099a4 <GET32>:
    99a4:	e5900000 	ldr	r0, [r0]
    99a8:	e12fff1e 	bx	lr

000099ac <GETPC>:
    99ac:	e1a0000e 	mov	r0, lr
    99b0:	e12fff1e 	bx	lr

000099b4 <dummy>:
    99b4:	e12fff1e 	bx	lr

000099b8 <system_enable_interrupts>:
    99b8:	e10f0000 	mrs	r0, CPSR
    99bc:	e3c00080 	bic	r0, r0, #128	; 0x80
    99c0:	e121f000 	msr	CPSR_c, r0
    99c4:	e12fff1e 	bx	lr

000099c8 <system_disable_interrupts>:
    99c8:	e10f0000 	mrs	r0, CPSR
    99cc:	e3800080 	orr	r0, r0, #128	; 0x80
    99d0:	e121f000 	msr	CPSR_c, r0
    99d4:	e12fff1e 	bx	lr

000099d8 <_interrupt_table>:
    99d8:	e59ff030 	ldr	pc, [pc, #48]	; 9a10 <_reset_asm>
    99dc:	e59ff030 	ldr	pc, [pc, #48]	; 9a14 <_undefined_instruction_asm>
    99e0:	e59ff030 	ldr	pc, [pc, #48]	; 9a18 <_software_interrupt_asm>
    99e4:	e59ff030 	ldr	pc, [pc, #48]	; 9a1c <_prefetch_abort_asm>
    99e8:	e59ff030 	ldr	pc, [pc, #48]	; 9a20 <_data_abort_asm>
    99ec:	e59ff01c 	ldr	pc, [pc, #28]	; 9a10 <_reset_asm>
    99f0:	e59ff02c 	ldr	pc, [pc, #44]	; 9a24 <_interrupt_asm>

000099f4 <fast_interrupt_asm>:
    99f4:	e24ee004 	sub	lr, lr, #4
    99f8:	e52de004 	push	{lr}		; (str lr, [sp, #-4]!)
    99fc:	e92d1fff 	push	{r0, r1, r2, r3, r4, r5, r6, r7, r8, r9, sl, fp, ip}
    9a00:	e1a0000e 	mov	r0, lr
    9a04:	ebffff6c 	bl	97bc <fast_interrupt_vector>
    9a08:	e8bd1fff 	pop	{r0, r1, r2, r3, r4, r5, r6, r7, r8, r9, sl, fp, ip}
    9a0c:	e8fd8000 	ldm	sp!, {pc}^

00009a10 <_reset_asm>:
    9a10:	00009a70 	andeq	r9, r0, r0, ror sl

00009a14 <_undefined_instruction_asm>:
    9a14:	00009a78 	andeq	r9, r0, r8, ror sl

00009a18 <_software_interrupt_asm>:
    9a18:	00009a44 	andeq	r9, r0, r4, asr #20

00009a1c <_prefetch_abort_asm>:
    9a1c:	00009a80 	andeq	r9, r0, r0, lsl #21

00009a20 <_data_abort_asm>:
    9a20:	00009a88 	andeq	r9, r0, r8, lsl #21

00009a24 <_interrupt_asm>:
    9a24:	00009a28 	andeq	r9, r0, r8, lsr #20

00009a28 <_interrupt_table_end>:
    9a28:	e3a0d409 	mov	sp, #150994944	; 0x9000000
    9a2c:	e24ee004 	sub	lr, lr, #4
    9a30:	e92d5fff 	push	{r0, r1, r2, r3, r4, r5, r6, r7, r8, r9, sl, fp, ip, lr}
    9a34:	e1a0000e 	mov	r0, lr
    9a38:	ebfff9a3 	bl	80cc <interrupt_vector>
    9a3c:	e8bd5fff 	pop	{r0, r1, r2, r3, r4, r5, r6, r7, r8, r9, sl, fp, ip, lr}
    9a40:	e1b0f00e 	movs	pc, lr

00009a44 <software_interrupt_asm>:
    9a44:	e52de004 	push	{lr}		; (str lr, [sp, #-4]!)
    9a48:	e92d1ffe 	push	{r1, r2, r3, r4, r5, r6, r7, r8, r9, sl, fp, ip}
    9a4c:	e24ee004 	sub	lr, lr, #4
    9a50:	e1a0200e 	mov	r2, lr
    9a54:	e1a01000 	mov	r1, r0
    9a58:	e1a0000e 	mov	r0, lr
    9a5c:	eb000003 	bl	9a70 <reset_asm>
    9a60:	e8bd1ffe 	pop	{r1, r2, r3, r4, r5, r6, r7, r8, r9, sl, fp, ip}
    9a64:	e49de004 	pop	{lr}		; (ldr lr, [sp], #4)
    9a68:	e8fd8000 	ldm	sp!, {pc}^
    9a6c:	e1b0f00e 	movs	pc, lr

00009a70 <reset_asm>:
    9a70:	e24ee004 	sub	lr, lr, #4
    9a74:	ebffff72 	bl	9844 <reset_vector>

00009a78 <undefined_instruction_asm>:
    9a78:	e24ee004 	sub	lr, lr, #4
    9a7c:	ebffff81 	bl	9888 <undefined_instruction_vector>

00009a80 <prefetch_abort_asm>:
    9a80:	e24ee004 	sub	lr, lr, #4
    9a84:	ebffff90 	bl	98cc <prefetch_abort_vector>

00009a88 <data_abort_asm>:
    9a88:	e24ee004 	sub	lr, lr, #4
    9a8c:	ebffff9f 	bl	9910 <data_abort_vector>

00009a90 <or32>:
    9a90:	e92d4070 	push	{r4, r5, r6, lr}
    9a94:	e1a04000 	mov	r4, r0
    9a98:	e1a05001 	mov	r5, r1
    9a9c:	ebffffac 	bl	9954 <dev_barrier>
    9aa0:	e1a00004 	mov	r0, r4
    9aa4:	ebffffbc 	bl	999c <get32>
    9aa8:	e1801005 	orr	r1, r0, r5
    9aac:	e1a00004 	mov	r0, r4
    9ab0:	ebffffad 	bl	996c <put32>
    9ab4:	ebffffa6 	bl	9954 <dev_barrier>
    9ab8:	e8bd8070 	pop	{r4, r5, r6, pc}

00009abc <OR32>:
    9abc:	e92d4010 	push	{r4, lr}
    9ac0:	ebfffff2 	bl	9a90 <or32>
    9ac4:	e8bd8010 	pop	{r4, pc}

00009ac8 <uart_enable_gpu_int>:
    9ac8:	e92d4010 	push	{r4, lr}
    9acc:	e3a01202 	mov	r1, #536870912	; 0x20000000
    9ad0:	e59f0004 	ldr	r0, [pc, #4]	; 9adc <uart_enable_gpu_int+0x14>
    9ad4:	ebfffff8 	bl	9abc <OR32>
    9ad8:	e8bd8010 	pop	{r4, pc}
    9adc:	2000b210 	andcs	fp, r0, r0, lsl r2

00009ae0 <uart_get_aux_irq>:
    9ae0:	e59f0000 	ldr	r0, [pc]	; 9ae8 <uart_get_aux_irq+0x8>
    9ae4:	e12fff1e 	bx	lr
    9ae8:	20215000 	eorcs	r5, r1, r0

00009aec <uart_disable_rx_int>:
    9aec:	e92d4010 	push	{r4, lr}
    9af0:	e2804004 	add	r4, r0, #4
    9af4:	e1a00004 	mov	r0, r4
    9af8:	ebffffa7 	bl	999c <get32>
    9afc:	e3c01001 	bic	r1, r0, #1
    9b00:	e1a00004 	mov	r0, r4
    9b04:	ebffffe1 	bl	9a90 <or32>
    9b08:	e8bd8010 	pop	{r4, pc}

00009b0c <uart_enable_rx_int>:
    9b0c:	e92d4010 	push	{r4, lr}
    9b10:	e3a01001 	mov	r1, #1
    9b14:	e2800004 	add	r0, r0, #4
    9b18:	ebffffdc 	bl	9a90 <or32>
    9b1c:	e8bd8010 	pop	{r4, pc}

00009b20 <uart_disable_tx_int>:
    9b20:	e92d4010 	push	{r4, lr}
    9b24:	e2804004 	add	r4, r0, #4
    9b28:	e1a00004 	mov	r0, r4
    9b2c:	ebffff9a 	bl	999c <get32>
    9b30:	e3c01002 	bic	r1, r0, #2
    9b34:	e1a00004 	mov	r0, r4
    9b38:	ebffff8b 	bl	996c <put32>
    9b3c:	e8bd8010 	pop	{r4, pc}

00009b40 <uart_enable_tx_int>:
    9b40:	e92d4010 	push	{r4, lr}
    9b44:	e3a01002 	mov	r1, #2
    9b48:	e2800004 	add	r0, r0, #4
    9b4c:	ebffffcf 	bl	9a90 <or32>
    9b50:	e8bd8010 	pop	{r4, pc}

00009b54 <uart_enable_ints>:
    9b54:	e92d4010 	push	{r4, lr}
    9b58:	e1a04000 	mov	r4, r0
    9b5c:	ebfffff7 	bl	9b40 <uart_enable_tx_int>
    9b60:	e1a00004 	mov	r0, r4
    9b64:	ebffffe8 	bl	9b0c <uart_enable_rx_int>
    9b68:	e8bd8010 	pop	{r4, pc}

00009b6c <uart_tx_int_enabled>:
    9b6c:	e92d4010 	push	{r4, lr}
    9b70:	e2800004 	add	r0, r0, #4
    9b74:	ebffff88 	bl	999c <get32>
    9b78:	e3100002 	tst	r0, #2
    9b7c:	13a00001 	movne	r0, #1
    9b80:	03a00000 	moveq	r0, #0
    9b84:	e8bd8010 	pop	{r4, pc}

00009b88 <uart_has_int>:
    9b88:	e92d4010 	push	{r4, lr}
    9b8c:	e24dd008 	sub	sp, sp, #8
    9b90:	e1a04000 	mov	r4, r0
    9b94:	ebffff6e 	bl	9954 <dev_barrier>
    9b98:	e2840008 	add	r0, r4, #8
    9b9c:	ebffff7e 	bl	999c <get32>
    9ba0:	e3100001 	tst	r0, #1
    9ba4:	1a000022 	bne	9c34 <uart_has_int+0xac>
    9ba8:	e1a04000 	mov	r4, r0
    9bac:	e1a030a0 	lsr	r3, r0, #1
    9bb0:	e2033003 	and	r3, r3, #3
    9bb4:	e3530003 	cmp	r3, #3
    9bb8:	0a000007 	beq	9bdc <uart_has_int+0x54>
    9bbc:	e3530000 	cmp	r3, #0
    9bc0:	0a00000c 	beq	9bf8 <uart_has_int+0x70>
    9bc4:	e3530002 	cmp	r3, #2
    9bc8:	0a00001c 	beq	9c40 <uart_has_int+0xb8>
    9bcc:	e3530001 	cmp	r3, #1
    9bd0:	1a00000f 	bne	9c14 <uart_has_int+0x8c>
    9bd4:	e59f006c 	ldr	r0, [pc, #108]	; 9c48 <uart_has_int+0xc0>
    9bd8:	ea000016 	b	9c38 <uart_has_int+0xb0>
    9bdc:	ebfff9c6 	bl	82fc <rpi_reset_putc>
    9be0:	e3a03051 	mov	r3, #81	; 0x51
    9be4:	e59f2060 	ldr	r2, [pc, #96]	; 9c4c <uart_has_int+0xc4>
    9be8:	e59f1060 	ldr	r1, [pc, #96]	; 9c50 <uart_has_int+0xc8>
    9bec:	e59f0060 	ldr	r0, [pc, #96]	; 9c54 <uart_has_int+0xcc>
    9bf0:	ebfff9a6 	bl	8290 <printk>
    9bf4:	ebfffb15 	bl	8850 <clean_reboot>
    9bf8:	ebfff9bf 	bl	82fc <rpi_reset_putc>
    9bfc:	e3a03052 	mov	r3, #82	; 0x52
    9c00:	e59f2044 	ldr	r2, [pc, #68]	; 9c4c <uart_has_int+0xc4>
    9c04:	e59f1044 	ldr	r1, [pc, #68]	; 9c50 <uart_has_int+0xc8>
    9c08:	e59f0048 	ldr	r0, [pc, #72]	; 9c58 <uart_has_int+0xd0>
    9c0c:	ebfff99f 	bl	8290 <printk>
    9c10:	ebfffb0e 	bl	8850 <clean_reboot>
    9c14:	ebfff9b8 	bl	82fc <rpi_reset_putc>
    9c18:	e58d4000 	str	r4, [sp]
    9c1c:	e3a03059 	mov	r3, #89	; 0x59
    9c20:	e59f2024 	ldr	r2, [pc, #36]	; 9c4c <uart_has_int+0xc4>
    9c24:	e59f1024 	ldr	r1, [pc, #36]	; 9c50 <uart_has_int+0xc8>
    9c28:	e59f002c 	ldr	r0, [pc, #44]	; 9c5c <uart_has_int+0xd4>
    9c2c:	ebfff997 	bl	8290 <printk>
    9c30:	ebfffb06 	bl	8850 <clean_reboot>
    9c34:	e3a00000 	mov	r0, #0
    9c38:	e28dd008 	add	sp, sp, #8
    9c3c:	e8bd8010 	pop	{r4, pc}
    9c40:	e59f0018 	ldr	r0, [pc, #24]	; 9c60 <uart_has_int+0xd8>
    9c44:	eafffffb 	b	9c38 <uart_has_int+0xb0>
    9c48:	00000457 	andeq	r0, r0, r7, asr r4
    9c4c:	0000a814 	andeq	sl, r0, r4, lsl r8
    9c50:	0000a868 	andeq	sl, r0, r8, ror #16
    9c54:	0000a874 	andeq	sl, r0, r4, ror r8
    9c58:	0000a8bc 			; <UNDEFINED> instruction: 0x0000a8bc
    9c5c:	0000a904 	andeq	sl, r0, r4, lsl #18
    9c60:	000008ae 	andeq	r0, r0, lr, lsr #17

00009c64 <uart_clear_int>:
    9c64:	e92d4010 	push	{r4, lr}
    9c68:	e1a04000 	mov	r4, r0
    9c6c:	ebffff38 	bl	9954 <dev_barrier>
    9c70:	e3a01007 	mov	r1, #7
    9c74:	e2840008 	add	r0, r4, #8
    9c78:	ebffff84 	bl	9a90 <or32>
    9c7c:	ebffff34 	bl	9954 <dev_barrier>
    9c80:	e59f4018 	ldr	r4, [pc, #24]	; 9ca0 <uart_clear_int+0x3c>
    9c84:	e1a00004 	mov	r0, r4
    9c88:	ebffff43 	bl	999c <get32>
    9c8c:	e3c01001 	bic	r1, r0, #1
    9c90:	e1a00004 	mov	r0, r4
    9c94:	ebffff34 	bl	996c <put32>
    9c98:	ebffff2d 	bl	9954 <dev_barrier>
    9c9c:	e8bd8010 	pop	{r4, pc}
    9ca0:	20215000 	eorcs	r5, r1, r0

00009ca4 <uart_init_with_interrupts>:
    9ca4:	e92d4010 	push	{r4, lr}
    9ca8:	e59f4280 	ldr	r4, [pc, #640]	; 9f30 <uart_init_with_interrupts+0x28c>
    9cac:	e59f2280 	ldr	r2, [pc, #640]	; 9f34 <uart_init_with_interrupts+0x290>
    9cb0:	e3a01000 	mov	r1, #0
    9cb4:	e1a00004 	mov	r0, r4
    9cb8:	eb00017c 	bl	a2b0 <memset>
    9cbc:	e59f3274 	ldr	r3, [pc, #628]	; 9f38 <uart_init_with_interrupts+0x294>
    9cc0:	e5843800 	str	r3, [r4, #2048]	; 0x800
    9cc4:	e3a03000 	mov	r3, #0
    9cc8:	e5843808 	str	r3, [r4, #2056]	; 0x808
    9ccc:	e5843804 	str	r3, [r4, #2052]	; 0x804
    9cd0:	e584380c 	str	r3, [r4, #2060]	; 0x80c
    9cd4:	e5d43810 	ldrb	r3, [r4, #2064]	; 0x810
    9cd8:	e3833001 	orr	r3, r3, #1
    9cdc:	e5c43810 	strb	r3, [r4, #2064]	; 0x810
    9ce0:	e5942804 	ldr	r2, [r4, #2052]	; 0x804
    9ce4:	e5943808 	ldr	r3, [r4, #2056]	; 0x808
    9ce8:	e1520003 	cmp	r2, r3
    9cec:	1a000047 	bne	9e10 <uart_init_with_interrupts+0x16c>
    9cf0:	e59f2238 	ldr	r2, [pc, #568]	; 9f30 <uart_init_with_interrupts+0x28c>
    9cf4:	e5923804 	ldr	r3, [r2, #2052]	; 0x804
    9cf8:	e2833001 	add	r3, r3, #1
    9cfc:	e1a03a83 	lsl	r3, r3, #21
    9d00:	e1a03aa3 	lsr	r3, r3, #21
    9d04:	e5922808 	ldr	r2, [r2, #2056]	; 0x808
    9d08:	e1530002 	cmp	r3, r2
    9d0c:	0a000046 	beq	9e2c <uart_init_with_interrupts+0x188>
    9d10:	e59f2218 	ldr	r2, [pc, #536]	; 9f30 <uart_init_with_interrupts+0x28c>
    9d14:	e5923804 	ldr	r3, [r2, #2052]	; 0x804
    9d18:	e5922808 	ldr	r2, [r2, #2056]	; 0x808
    9d1c:	e0433002 	sub	r3, r3, r2
    9d20:	e1a03a83 	lsl	r3, r3, #21
    9d24:	e1a03aa3 	lsr	r3, r3, #21
    9d28:	e3530000 	cmp	r3, #0
    9d2c:	1a000045 	bne	9e48 <uart_init_with_interrupts+0x1a4>
    9d30:	e59f31f8 	ldr	r3, [pc, #504]	; 9f30 <uart_init_with_interrupts+0x28c>
    9d34:	e5932804 	ldr	r2, [r3, #2052]	; 0x804
    9d38:	e5933808 	ldr	r3, [r3, #2056]	; 0x808
    9d3c:	e1520003 	cmp	r2, r3
    9d40:	1a000047 	bne	9e64 <uart_init_with_interrupts+0x1c0>
    9d44:	e59f41e4 	ldr	r4, [pc, #484]	; 9f30 <uart_init_with_interrupts+0x28c>
    9d48:	e59f21e4 	ldr	r2, [pc, #484]	; 9f34 <uart_init_with_interrupts+0x290>
    9d4c:	e3a01000 	mov	r1, #0
    9d50:	e2840e81 	add	r0, r4, #2064	; 0x810
    9d54:	e2800004 	add	r0, r0, #4
    9d58:	eb000154 	bl	a2b0 <memset>
    9d5c:	e2843a01 	add	r3, r4, #4096	; 0x1000
    9d60:	e59f21d0 	ldr	r2, [pc, #464]	; 9f38 <uart_init_with_interrupts+0x294>
    9d64:	e5832014 	str	r2, [r3, #20]
    9d68:	e3a02000 	mov	r2, #0
    9d6c:	e583201c 	str	r2, [r3, #28]
    9d70:	e5832018 	str	r2, [r3, #24]
    9d74:	e5832020 	str	r2, [r3, #32]
    9d78:	e5d32024 	ldrb	r2, [r3, #36]	; 0x24
    9d7c:	e3822001 	orr	r2, r2, #1
    9d80:	e5c32024 	strb	r2, [r3, #36]	; 0x24
    9d84:	e5932018 	ldr	r2, [r3, #24]
    9d88:	e593301c 	ldr	r3, [r3, #28]
    9d8c:	e1520003 	cmp	r2, r3
    9d90:	1a000041 	bne	9e9c <uart_init_with_interrupts+0x1f8>
    9d94:	e59f21a0 	ldr	r2, [pc, #416]	; 9f3c <uart_init_with_interrupts+0x298>
    9d98:	e5923018 	ldr	r3, [r2, #24]
    9d9c:	e2833001 	add	r3, r3, #1
    9da0:	e1a03a83 	lsl	r3, r3, #21
    9da4:	e1a03aa3 	lsr	r3, r3, #21
    9da8:	e592201c 	ldr	r2, [r2, #28]
    9dac:	e1530002 	cmp	r3, r2
    9db0:	0a000040 	beq	9eb8 <uart_init_with_interrupts+0x214>
    9db4:	e59f2180 	ldr	r2, [pc, #384]	; 9f3c <uart_init_with_interrupts+0x298>
    9db8:	e5923018 	ldr	r3, [r2, #24]
    9dbc:	e592201c 	ldr	r2, [r2, #28]
    9dc0:	e0433002 	sub	r3, r3, r2
    9dc4:	e1a03a83 	lsl	r3, r3, #21
    9dc8:	e1a03aa3 	lsr	r3, r3, #21
    9dcc:	e3530000 	cmp	r3, #0
    9dd0:	1a00003f 	bne	9ed4 <uart_init_with_interrupts+0x230>
    9dd4:	e59f3160 	ldr	r3, [pc, #352]	; 9f3c <uart_init_with_interrupts+0x298>
    9dd8:	e5932018 	ldr	r2, [r3, #24]
    9ddc:	e593301c 	ldr	r3, [r3, #28]
    9de0:	e1520003 	cmp	r2, r3
    9de4:	1a000041 	bne	9ef0 <uart_init_with_interrupts+0x24c>
    9de8:	ebfffe04 	bl	9600 <uart_init>
    9dec:	e59f414c 	ldr	r4, [pc, #332]	; 9f40 <uart_init_with_interrupts+0x29c>
    9df0:	e1a00004 	mov	r0, r4
    9df4:	ebffff9a 	bl	9c64 <uart_clear_int>
    9df8:	e1a00004 	mov	r0, r4
    9dfc:	ebffff54 	bl	9b54 <uart_enable_ints>
    9e00:	ebfffed3 	bl	9954 <dev_barrier>
    9e04:	ebffff2f 	bl	9ac8 <uart_enable_gpu_int>
    9e08:	ebfffed1 	bl	9954 <dev_barrier>
    9e0c:	e8bd8010 	pop	{r4, pc}
    9e10:	ebfff939 	bl	82fc <rpi_reset_putc>
    9e14:	e3a0309f 	mov	r3, #159	; 0x9f
    9e18:	e59f2124 	ldr	r2, [pc, #292]	; 9f44 <uart_init_with_interrupts+0x2a0>
    9e1c:	e59f1124 	ldr	r1, [pc, #292]	; 9f48 <uart_init_with_interrupts+0x2a4>
    9e20:	e59f0124 	ldr	r0, [pc, #292]	; 9f4c <uart_init_with_interrupts+0x2a8>
    9e24:	ebfff919 	bl	8290 <printk>
    9e28:	ebfffa88 	bl	8850 <clean_reboot>
    9e2c:	ebfff932 	bl	82fc <rpi_reset_putc>
    9e30:	e3a030a0 	mov	r3, #160	; 0xa0
    9e34:	e59f2108 	ldr	r2, [pc, #264]	; 9f44 <uart_init_with_interrupts+0x2a0>
    9e38:	e59f1108 	ldr	r1, [pc, #264]	; 9f48 <uart_init_with_interrupts+0x2a4>
    9e3c:	e59f010c 	ldr	r0, [pc, #268]	; 9f50 <uart_init_with_interrupts+0x2ac>
    9e40:	ebfff912 	bl	8290 <printk>
    9e44:	ebfffa81 	bl	8850 <clean_reboot>
    9e48:	ebfff92b 	bl	82fc <rpi_reset_putc>
    9e4c:	e3a030a1 	mov	r3, #161	; 0xa1
    9e50:	e59f20ec 	ldr	r2, [pc, #236]	; 9f44 <uart_init_with_interrupts+0x2a0>
    9e54:	e59f10ec 	ldr	r1, [pc, #236]	; 9f48 <uart_init_with_interrupts+0x2a4>
    9e58:	e59f00f4 	ldr	r0, [pc, #244]	; 9f54 <uart_init_with_interrupts+0x2b0>
    9e5c:	ebfff90b 	bl	8290 <printk>
    9e60:	ebfffa7a 	bl	8850 <clean_reboot>
    9e64:	e59f20c4 	ldr	r2, [pc, #196]	; 9f30 <uart_init_with_interrupts+0x28c>
    9e68:	e5923808 	ldr	r3, [r2, #2056]	; 0x808
    9e6c:	e7d21003 	ldrb	r1, [r2, r3]
    9e70:	e2833001 	add	r3, r3, #1
    9e74:	e1a03a83 	lsl	r3, r3, #21
    9e78:	e1a03aa3 	lsr	r3, r3, #21
    9e7c:	e5823808 	str	r3, [r2, #2056]	; 0x808
    9e80:	ebfff91d 	bl	82fc <rpi_reset_putc>
    9e84:	e3a030a3 	mov	r3, #163	; 0xa3
    9e88:	e59f20b4 	ldr	r2, [pc, #180]	; 9f44 <uart_init_with_interrupts+0x2a0>
    9e8c:	e59f10b4 	ldr	r1, [pc, #180]	; 9f48 <uart_init_with_interrupts+0x2a4>
    9e90:	e59f00c0 	ldr	r0, [pc, #192]	; 9f58 <uart_init_with_interrupts+0x2b4>
    9e94:	ebfff8fd 	bl	8290 <printk>
    9e98:	ebfffa6c 	bl	8850 <clean_reboot>
    9e9c:	ebfff916 	bl	82fc <rpi_reset_putc>
    9ea0:	e3a0309f 	mov	r3, #159	; 0x9f
    9ea4:	e59f2098 	ldr	r2, [pc, #152]	; 9f44 <uart_init_with_interrupts+0x2a0>
    9ea8:	e59f1098 	ldr	r1, [pc, #152]	; 9f48 <uart_init_with_interrupts+0x2a4>
    9eac:	e59f0098 	ldr	r0, [pc, #152]	; 9f4c <uart_init_with_interrupts+0x2a8>
    9eb0:	ebfff8f6 	bl	8290 <printk>
    9eb4:	ebfffa65 	bl	8850 <clean_reboot>
    9eb8:	ebfff90f 	bl	82fc <rpi_reset_putc>
    9ebc:	e3a030a0 	mov	r3, #160	; 0xa0
    9ec0:	e59f207c 	ldr	r2, [pc, #124]	; 9f44 <uart_init_with_interrupts+0x2a0>
    9ec4:	e59f107c 	ldr	r1, [pc, #124]	; 9f48 <uart_init_with_interrupts+0x2a4>
    9ec8:	e59f0080 	ldr	r0, [pc, #128]	; 9f50 <uart_init_with_interrupts+0x2ac>
    9ecc:	ebfff8ef 	bl	8290 <printk>
    9ed0:	ebfffa5e 	bl	8850 <clean_reboot>
    9ed4:	ebfff908 	bl	82fc <rpi_reset_putc>
    9ed8:	e3a030a1 	mov	r3, #161	; 0xa1
    9edc:	e59f2060 	ldr	r2, [pc, #96]	; 9f44 <uart_init_with_interrupts+0x2a0>
    9ee0:	e59f1060 	ldr	r1, [pc, #96]	; 9f48 <uart_init_with_interrupts+0x2a4>
    9ee4:	e59f0068 	ldr	r0, [pc, #104]	; 9f54 <uart_init_with_interrupts+0x2b0>
    9ee8:	ebfff8e8 	bl	8290 <printk>
    9eec:	ebfffa57 	bl	8850 <clean_reboot>
    9ef0:	e59f2038 	ldr	r2, [pc, #56]	; 9f30 <uart_init_with_interrupts+0x28c>
    9ef4:	e2821a01 	add	r1, r2, #4096	; 0x1000
    9ef8:	e591301c 	ldr	r3, [r1, #28]
    9efc:	e0822003 	add	r2, r2, r3
    9f00:	e5d22814 	ldrb	r2, [r2, #2068]	; 0x814
    9f04:	e2833001 	add	r3, r3, #1
    9f08:	e1a03a83 	lsl	r3, r3, #21
    9f0c:	e1a03aa3 	lsr	r3, r3, #21
    9f10:	e581301c 	str	r3, [r1, #28]
    9f14:	ebfff8f8 	bl	82fc <rpi_reset_putc>
    9f18:	e3a030a3 	mov	r3, #163	; 0xa3
    9f1c:	e59f2020 	ldr	r2, [pc, #32]	; 9f44 <uart_init_with_interrupts+0x2a0>
    9f20:	e59f1020 	ldr	r1, [pc, #32]	; 9f48 <uart_init_with_interrupts+0x2a4>
    9f24:	e59f002c 	ldr	r0, [pc, #44]	; 9f58 <uart_init_with_interrupts+0x2b4>
    9f28:	ebfff8d8 	bl	8290 <printk>
    9f2c:	ebfffa47 	bl	8850 <clean_reboot>
    9f30:	0000ae8c 	andeq	sl, r0, ip, lsl #29
    9f34:	00000814 	andeq	r0, r0, r4, lsl r8
    9f38:	12345678 	eorsne	r5, r4, #120, 12	; 0x7800000
    9f3c:	0000be8c 	andeq	fp, r0, ip, lsl #29
    9f40:	20215040 	eorcs	r5, r1, r0, asr #32
    9f44:	0000a824 	andeq	sl, r0, r4, lsr #16
    9f48:	0000a92c 	andeq	sl, r0, ip, lsr #18
    9f4c:	0000a964 	andeq	sl, r0, r4, ror #18
    9f50:	0000a980 	andeq	sl, r0, r0, lsl #19
    9f54:	0000a99c 	muleq	r0, ip, r9
    9f58:	0000a9c0 	andeq	sl, r0, r0, asr #19

00009f5c <uart_int_flush>:
    9f5c:	e92d4010 	push	{r4, lr}
    9f60:	e10f3000 	mrs	r3, CPSR
    9f64:	e3130080 	tst	r3, #128	; 0x80
    9f68:	0a00001a 	beq	9fd8 <uart_int_flush+0x7c>
    9f6c:	e59f209c 	ldr	r2, [pc, #156]	; a010 <uart_int_flush+0xb4>
    9f70:	e5923018 	ldr	r3, [r2, #24]
    9f74:	e592201c 	ldr	r2, [r2, #28]
    9f78:	e0433002 	sub	r3, r3, r2
    9f7c:	e1a03a83 	lsl	r3, r3, #21
    9f80:	e1a03aa3 	lsr	r3, r3, #21
    9f84:	e3530000 	cmp	r3, #0
    9f88:	08bd8010 	popeq	{r4, pc}
    9f8c:	ebfffdd3 	bl	96e0 <uart_can_putc>
    9f90:	e3500000 	cmp	r0, #0
    9f94:	08bd8010 	popeq	{r4, pc}
    9f98:	e59f3070 	ldr	r3, [pc, #112]	; a010 <uart_int_flush+0xb4>
    9f9c:	e5932018 	ldr	r2, [r3, #24]
    9fa0:	e593301c 	ldr	r3, [r3, #28]
    9fa4:	e1520003 	cmp	r2, r3
    9fa8:	0a000011 	beq	9ff4 <uart_int_flush+0x98>
    9fac:	e59f2060 	ldr	r2, [pc, #96]	; a014 <uart_int_flush+0xb8>
    9fb0:	e2821a01 	add	r1, r2, #4096	; 0x1000
    9fb4:	e591301c 	ldr	r3, [r1, #28]
    9fb8:	e0822003 	add	r2, r2, r3
    9fbc:	e5d20814 	ldrb	r0, [r2, #2068]	; 0x814
    9fc0:	e2833001 	add	r3, r3, #1
    9fc4:	e1a03a83 	lsl	r3, r3, #21
    9fc8:	e1a03aa3 	lsr	r3, r3, #21
    9fcc:	e581301c 	str	r3, [r1, #28]
    9fd0:	ebfffdc9 	bl	96fc <uart_putc>
    9fd4:	eaffffe4 	b	9f6c <uart_int_flush+0x10>
    9fd8:	ebfff8c7 	bl	82fc <rpi_reset_putc>
    9fdc:	e3a03080 	mov	r3, #128	; 0x80
    9fe0:	e59f2030 	ldr	r2, [pc, #48]	; a018 <uart_int_flush+0xbc>
    9fe4:	e59f1030 	ldr	r1, [pc, #48]	; a01c <uart_int_flush+0xc0>
    9fe8:	e59f0030 	ldr	r0, [pc, #48]	; a020 <uart_int_flush+0xc4>
    9fec:	ebfff8a7 	bl	8290 <printk>
    9ff0:	ebfffa16 	bl	8850 <clean_reboot>
    9ff4:	ebfff8c0 	bl	82fc <rpi_reset_putc>
    9ff8:	e3a03051 	mov	r3, #81	; 0x51
    9ffc:	e59f2020 	ldr	r2, [pc, #32]	; a024 <uart_int_flush+0xc8>
    a000:	e59f1020 	ldr	r1, [pc, #32]	; a028 <uart_int_flush+0xcc>
    a004:	e59f0020 	ldr	r0, [pc, #32]	; a02c <uart_int_flush+0xd0>
    a008:	ebfff8a0 	bl	8290 <printk>
    a00c:	ebfffa0f 	bl	8850 <clean_reboot>
    a010:	0000be8c 	andeq	fp, r0, ip, lsl #29
    a014:	0000ae8c 	andeq	sl, r0, ip, lsl #29
    a018:	0000a82c 	andeq	sl, r0, ip, lsr #16
    a01c:	0000a868 	andeq	sl, r0, r8, ror #16
    a020:	0000a9f8 	strdeq	sl, [r0], -r8
    a024:	0000a83c 	andeq	sl, r0, ip, lsr r8
    a028:	0000a92c 	andeq	sl, r0, ip, lsr #18
    a02c:	0000aa1c 	andeq	sl, r0, ip, lsl sl

0000a030 <uart_int_flush_all>:
    a030:	e92d4010 	push	{r4, lr}
    a034:	e10f3000 	mrs	r3, CPSR
    a038:	e3130080 	tst	r3, #128	; 0x80
    a03c:	1a000007 	bne	a060 <uart_int_flush_all+0x30>
    a040:	ebfff8ad 	bl	82fc <rpi_reset_putc>
    a044:	e3a03087 	mov	r3, #135	; 0x87
    a048:	e59f2034 	ldr	r2, [pc, #52]	; a084 <uart_int_flush_all+0x54>
    a04c:	e59f1034 	ldr	r1, [pc, #52]	; a088 <uart_int_flush_all+0x58>
    a050:	e59f0034 	ldr	r0, [pc, #52]	; a08c <uart_int_flush_all+0x5c>
    a054:	ebfff88d 	bl	8290 <printk>
    a058:	ebfff9fc 	bl	8850 <clean_reboot>
    a05c:	ebffffbe 	bl	9f5c <uart_int_flush>
    a060:	e59f2028 	ldr	r2, [pc, #40]	; a090 <uart_int_flush_all+0x60>
    a064:	e5923018 	ldr	r3, [r2, #24]
    a068:	e592201c 	ldr	r2, [r2, #28]
    a06c:	e0433002 	sub	r3, r3, r2
    a070:	e1a03a83 	lsl	r3, r3, #21
    a074:	e1a03aa3 	lsr	r3, r3, #21
    a078:	e3530000 	cmp	r3, #0
    a07c:	1afffff6 	bne	a05c <uart_int_flush_all+0x2c>
    a080:	e8bd8010 	pop	{r4, pc}
    a084:	0000a844 	andeq	sl, r0, r4, asr #16
    a088:	0000a868 	andeq	sl, r0, r8, ror #16
    a08c:	0000a9f8 	strdeq	sl, [r0], -r8
    a090:	0000be8c 	andeq	fp, r0, ip, lsl #29

0000a094 <uart_interrupt_handler>:
    a094:	e92d4010 	push	{r4, lr}
    a098:	ebfffe2d 	bl	9954 <dev_barrier>
    a09c:	e59f00a8 	ldr	r0, [pc, #168]	; a14c <uart_interrupt_handler+0xb8>
    a0a0:	ebfffeb8 	bl	9b88 <uart_has_int>
    a0a4:	e3500000 	cmp	r0, #0
    a0a8:	0a000023 	beq	a13c <uart_interrupt_handler+0xa8>
    a0ac:	e59f209c 	ldr	r2, [pc, #156]	; a150 <uart_interrupt_handler+0xbc>
    a0b0:	e5123fd0 	ldr	r3, [r2, #-4048]	; 0xfd0
    a0b4:	e2833001 	add	r3, r3, #1
    a0b8:	e5023fd0 	str	r3, [r2, #-4048]	; 0xfd0
    a0bc:	ebfffd99 	bl	9728 <uart_has_data>
    a0c0:	e3500000 	cmp	r0, #0
    a0c4:	0a000011 	beq	a110 <uart_interrupt_handler+0x7c>
    a0c8:	ebfffd7a 	bl	96b8 <uart_getc>
    a0cc:	e6ef0070 	uxtb	r0, r0
    a0d0:	e59f207c 	ldr	r2, [pc, #124]	; a154 <uart_interrupt_handler+0xc0>
    a0d4:	e5921804 	ldr	r1, [r2, #2052]	; 0x804
    a0d8:	e5923804 	ldr	r3, [r2, #2052]	; 0x804
    a0dc:	e2833001 	add	r3, r3, #1
    a0e0:	e1a03a83 	lsl	r3, r3, #21
    a0e4:	e1a03aa3 	lsr	r3, r3, #21
    a0e8:	e5922808 	ldr	r2, [r2, #2056]	; 0x808
    a0ec:	e1530002 	cmp	r3, r2
    a0f0:	0afffff1 	beq	a0bc <uart_interrupt_handler+0x28>
    a0f4:	e59f3058 	ldr	r3, [pc, #88]	; a154 <uart_interrupt_handler+0xc0>
    a0f8:	e7c30001 	strb	r0, [r3, r1]
    a0fc:	e2811001 	add	r1, r1, #1
    a100:	e1a01a81 	lsl	r1, r1, #21
    a104:	e1a01aa1 	lsr	r1, r1, #21
    a108:	e5831804 	str	r1, [r3, #2052]	; 0x804
    a10c:	eaffffea 	b	a0bc <uart_interrupt_handler+0x28>
    a110:	e59f2040 	ldr	r2, [pc, #64]	; a158 <uart_interrupt_handler+0xc4>
    a114:	e5923018 	ldr	r3, [r2, #24]
    a118:	e592201c 	ldr	r2, [r2, #28]
    a11c:	e0433002 	sub	r3, r3, r2
    a120:	e1a03a83 	lsl	r3, r3, #21
    a124:	e1a03aa3 	lsr	r3, r3, #21
    a128:	e3530000 	cmp	r3, #0
    a12c:	1a000004 	bne	a144 <uart_interrupt_handler+0xb0>
    a130:	e59f0014 	ldr	r0, [pc, #20]	; a14c <uart_interrupt_handler+0xb8>
    a134:	ebfffe79 	bl	9b20 <uart_disable_tx_int>
    a138:	ebfffe05 	bl	9954 <dev_barrier>
    a13c:	e3a00000 	mov	r0, #0
    a140:	e8bd8010 	pop	{r4, pc}
    a144:	ebffff84 	bl	9f5c <uart_int_flush>
    a148:	eafffffa 	b	a138 <uart_interrupt_handler+0xa4>
    a14c:	20215040 	eorcs	r5, r1, r0, asr #32
    a150:	0000ce84 	andeq	ip, r0, r4, lsl #29
    a154:	0000ae8c 	andeq	sl, r0, ip, lsl #29
    a158:	0000be8c 	andeq	fp, r0, ip, lsl #29

0000a15c <uart_has_data_int>:
    a15c:	e59f3014 	ldr	r3, [pc, #20]	; a178 <uart_has_data_int+0x1c>
    a160:	e5930804 	ldr	r0, [r3, #2052]	; 0x804
    a164:	e5933808 	ldr	r3, [r3, #2056]	; 0x808
    a168:	e0400003 	sub	r0, r0, r3
    a16c:	e1b00a80 	lsls	r0, r0, #21
    a170:	13a00001 	movne	r0, #1
    a174:	e12fff1e 	bx	lr
    a178:	0000ae8c 	andeq	sl, r0, ip, lsl #29

0000a17c <uart_getc_int>:
    a17c:	e92d4010 	push	{r4, lr}
    a180:	ebfffdf3 	bl	9954 <dev_barrier>
    a184:	ebfffff4 	bl	a15c <uart_has_data_int>
    a188:	e3500000 	cmp	r0, #0
    a18c:	0afffffc 	beq	a184 <uart_getc_int+0x8>
    a190:	e59f3048 	ldr	r3, [pc, #72]	; a1e0 <uart_getc_int+0x64>
    a194:	e5932804 	ldr	r2, [r3, #2052]	; 0x804
    a198:	e5933808 	ldr	r3, [r3, #2056]	; 0x808
    a19c:	e1520003 	cmp	r2, r3
    a1a0:	0a000007 	beq	a1c4 <uart_getc_int+0x48>
    a1a4:	e59f2034 	ldr	r2, [pc, #52]	; a1e0 <uart_getc_int+0x64>
    a1a8:	e5923808 	ldr	r3, [r2, #2056]	; 0x808
    a1ac:	e7d20003 	ldrb	r0, [r2, r3]
    a1b0:	e2833001 	add	r3, r3, #1
    a1b4:	e1a03a83 	lsl	r3, r3, #21
    a1b8:	e1a03aa3 	lsr	r3, r3, #21
    a1bc:	e5823808 	str	r3, [r2, #2056]	; 0x808
    a1c0:	e8bd8010 	pop	{r4, pc}
    a1c4:	ebfff84c 	bl	82fc <rpi_reset_putc>
    a1c8:	e3a03051 	mov	r3, #81	; 0x51
    a1cc:	e59f2010 	ldr	r2, [pc, #16]	; a1e4 <uart_getc_int+0x68>
    a1d0:	e59f1010 	ldr	r1, [pc, #16]	; a1e8 <uart_getc_int+0x6c>
    a1d4:	e59f0010 	ldr	r0, [pc, #16]	; a1ec <uart_getc_int+0x70>
    a1d8:	ebfff82c 	bl	8290 <printk>
    a1dc:	ebfff99b 	bl	8850 <clean_reboot>
    a1e0:	0000ae8c 	andeq	sl, r0, ip, lsl #29
    a1e4:	0000a83c 	andeq	sl, r0, ip, lsr r8
    a1e8:	0000a92c 	andeq	sl, r0, ip, lsr #18
    a1ec:	0000aa1c 	andeq	sl, r0, ip, lsl sl

0000a1f0 <uart_putc_int>:
    a1f0:	e92d4010 	push	{r4, lr}
    a1f4:	e59f109c 	ldr	r1, [pc, #156]	; a298 <uart_putc_int+0xa8>
    a1f8:	e5912018 	ldr	r2, [r1, #24]
    a1fc:	e5913018 	ldr	r3, [r1, #24]
    a200:	e2833001 	add	r3, r3, #1
    a204:	e1a03a83 	lsl	r3, r3, #21
    a208:	e1a03aa3 	lsr	r3, r3, #21
    a20c:	e591101c 	ldr	r1, [r1, #28]
    a210:	e1530001 	cmp	r3, r1
    a214:	0a000008 	beq	a23c <uart_putc_int+0x4c>
    a218:	e6ef0070 	uxtb	r0, r0
    a21c:	e59f1078 	ldr	r1, [pc, #120]	; a29c <uart_putc_int+0xac>
    a220:	e0813002 	add	r3, r1, r2
    a224:	e5c30814 	strb	r0, [r3, #2068]	; 0x814
    a228:	e2823001 	add	r3, r2, #1
    a22c:	e1a03a83 	lsl	r3, r3, #21
    a230:	e1a03aa3 	lsr	r3, r3, #21
    a234:	e2811a01 	add	r1, r1, #4096	; 0x1000
    a238:	e5813018 	str	r3, [r1, #24]
    a23c:	e10f3000 	mrs	r3, CPSR
    a240:	e3130080 	tst	r3, #128	; 0x80
    a244:	1a000008 	bne	a26c <uart_putc_int+0x7c>
    a248:	ebfffdc1 	bl	9954 <dev_barrier>
    a24c:	ebfffddd 	bl	99c8 <system_disable_interrupts>
    a250:	e59f0048 	ldr	r0, [pc, #72]	; a2a0 <uart_putc_int+0xb0>
    a254:	ebfffe44 	bl	9b6c <uart_tx_int_enabled>
    a258:	e3500000 	cmp	r0, #0
    a25c:	0a000009 	beq	a288 <uart_putc_int+0x98>
    a260:	ebfffdd4 	bl	99b8 <system_enable_interrupts>
    a264:	e3a00001 	mov	r0, #1
    a268:	e8bd8010 	pop	{r4, pc}
    a26c:	ebfff822 	bl	82fc <rpi_reset_putc>
    a270:	e3a030cb 	mov	r3, #203	; 0xcb
    a274:	e59f2028 	ldr	r2, [pc, #40]	; a2a4 <uart_putc_int+0xb4>
    a278:	e59f1028 	ldr	r1, [pc, #40]	; a2a8 <uart_putc_int+0xb8>
    a27c:	e59f0028 	ldr	r0, [pc, #40]	; a2ac <uart_putc_int+0xbc>
    a280:	ebfff802 	bl	8290 <printk>
    a284:	ebfff971 	bl	8850 <clean_reboot>
    a288:	e59f0010 	ldr	r0, [pc, #16]	; a2a0 <uart_putc_int+0xb0>
    a28c:	ebfffe2b 	bl	9b40 <uart_enable_tx_int>
    a290:	ebfffdaf 	bl	9954 <dev_barrier>
    a294:	eafffff1 	b	a260 <uart_putc_int+0x70>
    a298:	0000be8c 	andeq	fp, r0, ip, lsl #29
    a29c:	0000ae8c 	andeq	sl, r0, ip, lsl #29
    a2a0:	20215040 	eorcs	r5, r1, r0, asr #32
    a2a4:	0000a858 	andeq	sl, r0, r8, asr r8
    a2a8:	0000a868 	andeq	sl, r0, r8, ror #16
    a2ac:	0000aa5c 	andeq	sl, r0, ip, asr sl

0000a2b0 <memset>:
    a2b0:	e0802002 	add	r2, r0, r2
    a2b4:	e1a03000 	mov	r3, r0
    a2b8:	ea000001 	b	a2c4 <memset+0x14>
    a2bc:	e5c31000 	strb	r1, [r3]
    a2c0:	e2833001 	add	r3, r3, #1
    a2c4:	e1530002 	cmp	r3, r2
    a2c8:	3afffffb 	bcc	a2bc <memset+0xc>
    a2cc:	e12fff1e 	bx	lr

0000a2d0 <cb_new>:
    a2d0:	e92d4008 	push	{r3, lr}
    a2d4:	e3a00409 	mov	r0, #150994944	; 0x9000000
    a2d8:	e3a01000 	mov	r1, #0
    a2dc:	e3a02004 	mov	r2, #4
    a2e0:	ebfffff2 	bl	a2b0 <memset>
    a2e4:	e3a00409 	mov	r0, #150994944	; 0x9000000
    a2e8:	e59f3004 	ldr	r3, [pc, #4]	; a2f4 <cb_new+0x24>
    a2ec:	e5803000 	str	r3, [r0]
    a2f0:	e8bd8008 	pop	{r3, pc}
    a2f4:	12345678 	eorsne	r5, r4, #120, 12	; 0x7800000

0000a2f8 <cb_get_block>:
    a2f8:	e3a03409 	mov	r3, #150994944	; 0x9000000
    a2fc:	e5932000 	ldr	r2, [r3]
    a300:	e59f3014 	ldr	r3, [pc, #20]	; a31c <cb_get_block+0x24>
    a304:	e1520003 	cmp	r2, r3
    a308:	0a000001 	beq	a314 <cb_get_block+0x1c>
    a30c:	e3a00000 	mov	r0, #0
    a310:	e12fff1e 	bx	lr
    a314:	e3a00409 	mov	r0, #150994944	; 0x9000000
    a318:	e12fff1e 	bx	lr
    a31c:	12345678 	eorsne	r5, r4, #120, 12	; 0x7800000

Disassembly of section .data:

0000a320 <rpi_putchar>:
    a320:	000082e8 	andeq	r8, r0, r8, ror #5

0000a324 <putk>:
    a324:	00008324 	andeq	r8, r0, r4, lsr #6

0000a328 <GPFSEL0>:
    a328:	20200000 	eorcs	r0, r0, r0

0000a32c <GPFSEL1>:
    a32c:	20200004 	eorcs	r0, r0, r4

0000a330 <GPFSEL2>:
    a330:	20200008 	eorcs	r0, r0, r8

0000a334 <GPFSEL3>:
    a334:	2020000c 	eorcs	r0, r0, ip

0000a338 <GPFSEL4>:
    a338:	20200010 	eorcs	r0, r0, r0, lsl r0

0000a33c <GPFSEL5>:
    a33c:	20200014 	eorcs	r0, r0, r4, lsl r0

0000a340 <GPSET0>:
    a340:	2020001c 	eorcs	r0, r0, ip, lsl r0

0000a344 <GPSET1>:
    a344:	20200020 	eorcs	r0, r0, r0, lsr #32

0000a348 <GPCLR0>:
    a348:	20200028 	eorcs	r0, r0, r8, lsr #32

0000a34c <GPCLR1>:
    a34c:	2020002c 	eorcs	r0, r0, ip, lsr #32

0000a350 <GPLEV0>:
    a350:	20200034 	eorcs	r0, r0, r4, lsr r0

0000a354 <GPLEV1>:
    a354:	20200038 	eorcs	r0, r0, r8, lsr r0

0000a358 <IRQ_PENDING_2>:
    a358:	2000b208 	andcs	fp, r0, r8, lsl #4

0000a35c <GPREN0>:
    a35c:	2020004c 	eorcs	r0, r0, ip, asr #32

0000a360 <GPREN1>:
    a360:	20200050 	eorcs	r0, r0, r0, asr r0

0000a364 <ENABLE_IRQS_2>:
    a364:	2000b214 	andcs	fp, r0, r4, lsl r2

0000a368 <GPFEN0>:
    a368:	20200058 	eorcs	r0, r0, r8, asr r0

0000a36c <GPFEN1>:
    a36c:	2020005c 	eorcs	r0, r0, ip, asr r0

0000a370 <GPEDS0>:
    a370:	20200040 	eorcs	r0, r0, r0, asr #32

0000a374 <GPEDS1>:
    a374:	20200044 	eorcs	r0, r0, r4, asr #32

0000a378 <IRQ_PENDING_1>:
    a378:	2000b204 	andcs	fp, r0, r4, lsl #4

0000a37c <gpio_clr0>:
    a37c:	20200028 	eorcs	r0, r0, r8, lsr #32

0000a380 <gpio_set0>:
    a380:	2020001c 	eorcs	r0, r0, ip, lsl r0

0000a384 <gpio_fsel0>:
    a384:	20200000 	eorcs	r0, r0, r0

0000a388 <AUX_ENABLES>:
    a388:	20215004 	eorcs	r5, r1, r4

0000a38c <AUX_MU_CNTL_REG>:
    a38c:	20215060 	eorcs	r5, r1, r0, rrx

0000a390 <AUX_MU_IER_REG>:
    a390:	20215044 	eorcs	r5, r1, r4, asr #32

0000a394 <AUX_MU_IIR_REG>:
    a394:	20215048 	eorcs	r5, r1, r8, asr #32

0000a398 <AUX_MU_LCR_REG>:
    a398:	2021504c 	eorcs	r5, r1, ip, asr #32

0000a39c <AUX_MU_BAUD_REG>:
    a39c:	20215068 	eorcs	r5, r1, r8, rrx

0000a3a0 <AUX_MU_LSR_REG>:
    a3a0:	20215054 	eorcs	r5, r1, r4, asr r0

0000a3a4 <AUX_MU_IO_REG>:
    a3a4:	20215040 	eorcs	r5, r1, r0, asr #32

0000a3a8 <AUX_MU_STAT_REG>:
    a3a8:	20215064 	eorcs	r5, r1, r4, rrx

0000a3ac <AUX_MU_SCRATCH>:
    a3ac:	2021505c 	eorcs	r5, r1, ip, asr r0

0000a3b0 <AUX_MU_MSR_REG>:
    a3b0:	20215058 	eorcs	r5, r1, r8, asr r0

0000a3b4 <AUX_MU_MCR_REG>:
    a3b4:	20215050 	eorcs	r5, r1, r0, asr r0

0000a3b8 <AUX_IRQ>:
    a3b8:	20215000 	eorcs	r5, r1, r0

Disassembly of section .rodata:

0000a3bc <__FUNCTION__.4314>:
    a3bc:	6d746f6e 	ldclvs	15, cr6, [r4, #-440]!	; 0xfffffe48
    a3c0:	006e6961 	rsbeq	r6, lr, r1, ror #18
    a3c4:	494e4150 	stmdbmi	lr, {r4, r6, r8, lr}^
    a3c8:	73253a43 	teqvc	r5, #274432	; 0x43000
    a3cc:	3a73253a 	bcc	1cd38bc <__bss_end__+0x1cc79fc>
    a3d0:	773a6425 	ldrvc	r6, [sl, -r5, lsr #8]!
    a3d4:	20746168 	rsbscs	r6, r4, r8, ror #2
    a3d8:	67207369 	strvs	r7, [r0, -r9, ror #6]!
    a3dc:	676e696f 	strbvs	r6, [lr, -pc, ror #18]!
    a3e0:	3f6e6f20 	svccc	0x006e6f20
    a3e4:	00000a0a 	andeq	r0, r0, sl, lsl #20
    a3e8:	762d6970 			; <UNDEFINED> instruction: 0x762d6970
    a3ec:	632e6d6d 	teqvs	lr, #6976	; 0x1b40
    a3f0:	00000000 	andeq	r0, r0, r0
    a3f4:	56204950 			; <UNDEFINED> instruction: 0x56204950
    a3f8:	203a4d4d 	eorscs	r4, sl, sp, asr #26
    a3fc:	756f6261 	strbvc	r6, [pc, #-609]!	; a1a3 <uart_getc_int+0x27>
    a400:	6f742074 	svcvs	0x00742074
    a404:	61747320 	cmnvs	r4, r0, lsr #6
    a408:	70207472 	eorvc	r7, r0, r2, ror r4
    a40c:	6d762069 	ldclvs	0, cr2, [r6, #-420]!	; 0xfffffe5c
    a410:	00000a6d 	andeq	r0, r0, sp, ror #20
    a414:	203a4950 	eorscs	r4, sl, r0, asr r9
    a418:	6f626572 	svcvs	0x00626572
    a41c:	000a746f 	andeq	r7, sl, pc, ror #8
    a420:	494e4150 	stmdbmi	lr, {r4, r6, r8, lr}^
    a424:	73253a43 	teqvc	r5, #274432	; 0x43000
    a428:	3a73253a 	bcc	1cd3918 <__bss_end__+0x1cc7a58>
    a42c:	753a6425 	ldrvc	r6, [sl, #-1061]!	; 0x425
    a430:	7078656e 	rsbsvc	r6, r8, lr, ror #10
    a434:	65746365 	ldrbvs	r6, [r4, #-869]!	; 0x365
    a438:	706f2064 	rsbvc	r2, pc, r4, rrx
    a43c:	6425203a 	strtvs	r2, [r5], #-58	; 0x3a
    a440:	00000a0a 	andeq	r0, r0, sl, lsl #20

0000a444 <__FUNCTION__.4216>:
    a444:	74696d65 	strbtvc	r6, [r9], #-3429	; 0xd65
    a448:	00000000 	andeq	r0, r0, r0

0000a44c <__FUNCTION__.4164>:
    a44c:	5f697072 	svcpl	0x00697072
    a450:	5f746573 	svcpl	0x00746573
    a454:	7074756f 	rsbsvc	r7, r4, pc, ror #10
    a458:	00007475 	andeq	r7, r0, r5, ror r4

0000a45c <__FUNCTION__.4238>:
    a45c:	705f6176 	subsvc	r6, pc, r6, ror r1	; <UNPREDICTABLE>
    a460:	746e6972 	strbtvc	r6, [lr], #-2418	; 0x972
    a464:	0000006b 	andeq	r0, r0, fp, rrx
    a468:	494e4150 	stmdbmi	lr, {r4, r6, r8, lr}^
    a46c:	73253a43 	teqvc	r5, #274432	; 0x43000
    a470:	3a73253a 	bcc	1cd3960 <__bss_end__+0x1cc7aa0>
    a474:	303a6425 	eorscc	r6, sl, r5, lsr #8
    a478:	0000000a 	andeq	r0, r0, sl
    a47c:	6362696c 	cmnvs	r2, #108, 18	; 0x1b0000
    a480:	2d61762f 	stclcs	6, cr7, [r1, #-188]!	; 0xffffff44
    a484:	6e697270 	mcrvs	2, 3, r7, cr9, cr0, {3}
    a488:	632e6b74 	teqvs	lr, #116, 22	; 0x1d000
    a48c:	00000000 	andeq	r0, r0, r0
    a490:	33323130 	teqcc	r2, #48, 2
    a494:	37363534 			; <UNDEFINED> instruction: 0x37363534
    a498:	00003938 	andeq	r3, r0, r8, lsr r9
    a49c:	33323130 	teqcc	r2, #48, 2
    a4a0:	37363534 			; <UNDEFINED> instruction: 0x37363534
    a4a4:	62613938 	rsbvs	r3, r1, #56, 18	; 0xe0000
    a4a8:	66656463 	strbtvs	r6, [r5], -r3, ror #8
    a4ac:	00000000 	andeq	r0, r0, r0
    a4b0:	00003130 	andeq	r3, r0, r0, lsr r1
    a4b4:	494e4150 	stmdbmi	lr, {r4, r6, r8, lr}^
    a4b8:	73253a43 	teqvc	r5, #274432	; 0x43000
    a4bc:	3a73253a 	bcc	1cd39ac <__bss_end__+0x1cc7aec>
    a4c0:	703a6425 	eorsvc	r6, sl, r5, lsr #8
    a4c4:	5f637475 	svcpl	0x00637475
    a4c8:	000a7066 	andeq	r7, sl, r6, rrx
    a4cc:	494e4150 	stmdbmi	lr, {r4, r6, r8, lr}^
    a4d0:	73253a43 	teqvc	r5, #274432	; 0x43000
    a4d4:	3a73253a 	bcc	1cd39c4 <__bss_end__+0x1cc7b04>
    a4d8:	773a6425 	ldrvc	r6, [sl, -r5, lsr #8]!
    a4dc:	68746469 	ldmdavs	r4!, {r0, r3, r5, r6, sl, sp, lr}^
    a4e0:	33203c20 	teqcc	r0, #32, 24	; 0x2000
    a4e4:	00000a32 	andeq	r0, r0, r2, lsr sl
    a4e8:	494e4150 	stmdbmi	lr, {r4, r6, r8, lr}^
    a4ec:	73253a43 	teqvc	r5, #274432	; 0x43000
    a4f0:	3a73253a 	bcc	1cd39e0 <__bss_end__+0x1cc7b20>
    a4f4:	663a6425 	ldrtvs	r6, [sl], -r5, lsr #8
    a4f8:	74616f6c 	strbtvc	r6, [r1], #-3948	; 0xf6c
    a4fc:	746f6e20 	strbtvc	r6, [pc], #-3616	; a504 <__FUNCTION__.4238+0xa8>
    a500:	616e6520 	cmnvs	lr, r0, lsr #10
    a504:	64656c62 	strbtvs	r6, [r5], #-3170	; 0xc62
    a508:	0a212121 	beq	852994 <__bss_end__+0x846ad4>
    a50c:	00000000 	andeq	r0, r0, r0
    a510:	494e4150 	stmdbmi	lr, {r4, r6, r8, lr}^
    a514:	73253a43 	teqvc	r5, #274432	; 0x43000
    a518:	3a73253a 	bcc	1cd3a08 <__bss_end__+0x1cc7b48>
    a51c:	703a6425 	eorsvc	r6, sl, r5, lsr #8
    a520:	746e6972 	strbtvc	r6, [lr], #-2418	; 0x972
    a524:	6e203a6b 	vnmulvs.f32	s6, s0, s23
    a528:	6820746f 	stmdavs	r0!, {r0, r1, r2, r3, r5, r6, sl, ip, sp, lr}
    a52c:	6c646e61 	stclvs	14, cr6, [r4], #-388	; 0xfffffe7c
    a530:	20676e69 	rsbcs	r6, r7, r9, ror #28
    a534:	63657073 	cmnvs	r5, #115	; 0x73
    a538:	65696669 	strbvs	r6, [r9, #-1641]!	; 0x669
    a53c:	25272072 	strcs	r2, [r7, #-114]!	; 0x72
    a540:	0a0a2763 	beq	2942d4 <__bss_end__+0x288414>
    a544:	00000000 	andeq	r0, r0, r0
    a548:	454e4f44 	strbmi	r4, [lr, #-3908]	; 0xf44
    a54c:	0a212121 	beq	8529d8 <__bss_end__+0x846b18>
    a550:	00000000 	andeq	r0, r0, r0
    a554:	756f6261 	strbvc	r6, [pc, #-609]!	; a2fb <cb_get_block+0x3>
    a558:	6f742074 	svcvs	0x00742074
    a55c:	69727020 	ldmdbvs	r2!, {r5, ip, sp, lr}^
    a560:	6f20746e 	svcvs	0x0020746e
    a564:	6572206e 	ldrbvs	r2, [r2, #-110]!	; 0x6e
    a568:	616c7567 	cmnvs	ip, r7, ror #10
    a56c:	72702072 	rsbsvc	r2, r0, #114	; 0x72
    a570:	66746e69 	ldrbtvs	r6, [r4], -r9, ror #28
    a574:	0000000a 	andeq	r0, r0, sl
    a578:	63637573 	cmnvs	r3, #482344960	; 0x1cc00000
    a57c:	21737365 	cmncs	r3, r5, ror #6
    a580:	0000000a 	andeq	r0, r0, sl

0000a584 <__FUNCTION__.4265>:
    a584:	755f7773 	ldrbvc	r7, [pc, #-1907]	; 9e19 <uart_init_with_interrupts+0x175>
    a588:	5f747261 	svcpl	0x00747261
    a58c:	73746567 	cmnvc	r4, #432013312	; 0x19c00000
    a590:	746e755f 	strbtvc	r7, [lr], #-1375	; 0x55f
    a594:	00006c69 	andeq	r6, r0, r9, ror #24

0000a598 <__FUNCTION__.4277>:
    a598:	755f7773 	ldrbvc	r7, [pc, #-1907]	; 9e2d <uart_init_with_interrupts+0x189>
    a59c:	5f747261 	svcpl	0x00747261
    a5a0:	73746567 	cmnvc	r4, #432013312	; 0x19c00000
    a5a4:	6d69745f 	cfstrdvs	mvd7, [r9, #-380]!	; 0xfffffe84
    a5a8:	74756f65 	ldrbtvc	r6, [r5], #-3941	; 0xf65
    a5ac:	00000000 	andeq	r0, r0, r0

0000a5b0 <__FUNCTION__.4291>:
    a5b0:	755f7773 	ldrbvc	r7, [pc, #-1907]	; 9e45 <uart_init_with_interrupts+0x1a1>
    a5b4:	5f747261 	svcpl	0x00747261
    a5b8:	74696e69 	strbtvc	r6, [r9], #-3689	; 0xe69
    a5bc:	6c65685f 	stclvs	8, cr6, [r5], #-380	; 0xfffffe84
    a5c0:	00726570 	rsbseq	r6, r2, r0, ror r5

0000a5c4 <__FUNCTION__.4297>:
    a5c4:	755f7773 	ldrbvc	r7, [pc, #-1907]	; 9e59 <uart_init_with_interrupts+0x1b5>
    a5c8:	5f747261 	svcpl	0x00747261
    a5cc:	63746567 	cmnvs	r4, #432013312	; 0x19c00000
    a5d0:	00000000 	andeq	r0, r0, r0

0000a5d4 <__FUNCTION__.4319>:
    a5d4:	755f7773 	ldrbvc	r7, [pc, #-1907]	; 9e69 <uart_init_with_interrupts+0x1c5>
    a5d8:	5f747261 	svcpl	0x00747261
    a5dc:	6e697270 	mcrvs	2, 3, r7, cr9, cr0, {3}
    a5e0:	00006b74 	andeq	r6, r0, r4, ror fp

0000a5e4 <__FUNCTION__.4327>:
    a5e4:	755f7773 	ldrbvc	r7, [pc, #-1907]	; 9e79 <uart_init_with_interrupts+0x1d5>
    a5e8:	5f747261 	svcpl	0x00747261
    a5ec:	73746567 	cmnvc	r4, #432013312	; 0x19c00000
    a5f0:	746e755f 	strbtvc	r7, [lr], #-1375	; 0x55f
    a5f4:	625f6c69 	subsvs	r6, pc, #26880	; 0x6900
    a5f8:	00006b6c 	andeq	r6, r0, ip, ror #22
    a5fc:	494e4150 	stmdbmi	lr, {r4, r6, r8, lr}^
    a600:	73253a43 	teqvc	r5, #274432	; 0x43000
    a604:	3a73253a 	bcc	1cd3af4 <__bss_end__+0x1cc7c34>
    a608:	6e3a6425 	cdpvs	4, 3, cr6, cr10, cr5, {1}
    a60c:	65747962 	ldrbvs	r7, [r4, #-2402]!	; 0x962
    a610:	0a303e73 	beq	c19fe4 <__bss_end__+0xc0e124>
    a614:	00000000 	andeq	r0, r0, r0
    a618:	732d796d 	teqvc	sp, #1785856	; 0x1b4000
    a61c:	732f6372 	teqvc	pc, #-939524095	; 0xc8000001
    a620:	61752d77 	cmnvs	r5, r7, ror sp
    a624:	632e7472 	teqvs	lr, #1912602624	; 0x72000000
    a628:	00000000 	andeq	r0, r0, r0
    a62c:	494e4150 	stmdbmi	lr, {r4, r6, r8, lr}^
    a630:	73253a43 	teqvc	r5, #274432	; 0x43000
    a634:	3a73253a 	bcc	1cd3b24 <__bss_end__+0x1cc7c64>
    a638:	283a6425 	ldmdacs	sl!, {r0, r2, r5, sl, sp, lr}
    a63c:	207a686d 	rsbscs	r6, sl, sp, ror #16
    a640:	6162202d 	cmnvs	r2, sp, lsr #32
    a644:	20296475 	eorcs	r6, r9, r5, ror r4
    a648:	64203d3c 	strtvs	r3, [r0], #-3388	; 0xd3c
    a64c:	76697265 	strbtvc	r7, [r9], -r5, ror #4
    a650:	26206465 	strtcs	r6, [r0], -r5, ror #8
    a654:	65642026 	strbvs	r2, [r4, #-38]!	; 0x26
    a658:	65766972 	ldrbvs	r6, [r6, #-2418]!	; 0x972
    a65c:	3d3c2064 	ldccc	0, cr2, [ip, #-400]!	; 0xfffffe70
    a660:	686d2820 	stmdavs	sp!, {r5, fp, sp}^
    a664:	202b207a 	eorcs	r2, fp, sl, ror r0
    a668:	64756162 	ldrbtvs	r6, [r5], #-354	; 0x162
    a66c:	00000a29 	andeq	r0, r0, r9, lsr #20
    a670:	494e4150 	stmdbmi	lr, {r4, r6, r8, lr}^
    a674:	73253a43 	teqvc	r5, #274432	; 0x43000
    a678:	3a73253a 	bcc	1cd3b68 <__bss_end__+0x1cc7ca8>
    a67c:	693a6425 	ldmdbvs	sl!, {r0, r2, r5, sl, sp, lr}
    a680:	736f706d 	cmnvc	pc, #109	; 0x6d
    a684:	6c626973 	stclvs	9, cr6, [r2], #-460	; 0xfffffe34
    a688:	68203a65 	stmdavs	r0!, {r0, r2, r5, r6, r9, fp, ip, sp}
    a68c:	20657661 	rsbcs	r7, r5, r1, ror #12
    a690:	69206e61 	stmdbvs	r0!, {r0, r5, r6, r9, sl, fp, sp, lr}
    a694:	6e69666e 	cdpvs	6, 6, cr6, cr9, cr14, {3}
    a698:	20657469 	rsbcs	r7, r5, r9, ror #8
    a69c:	656d6974 	strbvs	r6, [sp, #-2420]!	; 0x974
    a6a0:	2174756f 	cmncs	r4, pc, ror #10
    a6a4:	00000a0a 	andeq	r0, r0, sl, lsl #20
    a6a8:	494e4150 	stmdbmi	lr, {r4, r6, r8, lr}^
    a6ac:	73253a43 	teqvc	r5, #274432	; 0x43000
    a6b0:	3a73253a 	bcc	1cd3ba0 <__bss_end__+0x1cc7ce0>
    a6b4:	733a6425 	teqvc	sl, #620756992	; 0x25000000
    a6b8:	203c207a 	eorscs	r2, ip, sl, ror r0
    a6bc:	657a6973 	ldrbvs	r6, [sl, #-2419]!	; 0x973
    a6c0:	6220666f 	eorvs	r6, r0, #116391936	; 0x6f00000
    a6c4:	312d6675 	teqcc	sp, r5, ror r6
    a6c8:	0000000a 	andeq	r0, r0, sl

0000a6cc <__FUNCTION__.4196>:
    a6cc:	74736166 	ldrbtvc	r6, [r3], #-358	; 0x166
    a6d0:	746e695f 	strbtvc	r6, [lr], #-2399	; 0x95f
    a6d4:	75727265 	ldrbvc	r7, [r2, #-613]!	; 0x265
    a6d8:	765f7470 			; <UNDEFINED> instruction: 0x765f7470
    a6dc:	6f746365 	svcvs	0x00746365
    a6e0:	00000072 	andeq	r0, r0, r2, ror r0

0000a6e4 <__FUNCTION__.4200>:
    a6e4:	74666f73 	strbtvc	r6, [r6], #-3955	; 0xf73
    a6e8:	65726177 	ldrbvs	r6, [r2, #-375]!	; 0x177
    a6ec:	746e695f 	strbtvc	r6, [lr], #-2399	; 0x95f
    a6f0:	75727265 	ldrbvc	r7, [r2, #-613]!	; 0x265
    a6f4:	765f7470 			; <UNDEFINED> instruction: 0x765f7470
    a6f8:	6f746365 	svcvs	0x00746365
    a6fc:	00000072 	andeq	r0, r0, r2, ror r0

0000a700 <__FUNCTION__.4204>:
    a700:	65736572 	ldrbvs	r6, [r3, #-1394]!	; 0x572
    a704:	65765f74 	ldrbvs	r5, [r6, #-3956]!	; 0xf74
    a708:	726f7463 	rsbvc	r7, pc, #1660944384	; 0x63000000
    a70c:	00000000 	andeq	r0, r0, r0

0000a710 <__FUNCTION__.4208>:
    a710:	65646e75 	strbvs	r6, [r4, #-3701]!	; 0xe75
    a714:	656e6966 	strbvs	r6, [lr, #-2406]!	; 0x966
    a718:	6e695f64 	cdpvs	15, 6, cr5, cr9, cr4, {3}
    a71c:	75727473 	ldrbvc	r7, [r2, #-1139]!	; 0x473
    a720:	6f697463 	svcvs	0x00697463
    a724:	65765f6e 	ldrbvs	r5, [r6, #-3950]!	; 0xf6e
    a728:	726f7463 	rsbvc	r7, pc, #1660944384	; 0x63000000
    a72c:	00000000 	andeq	r0, r0, r0

0000a730 <__FUNCTION__.4212>:
    a730:	66657270 			; <UNDEFINED> instruction: 0x66657270
    a734:	68637465 	stmdavs	r3!, {r0, r2, r5, r6, sl, ip, sp, lr}^
    a738:	6f62615f 	svcvs	0x0062615f
    a73c:	765f7472 			; <UNDEFINED> instruction: 0x765f7472
    a740:	6f746365 	svcvs	0x00746365
    a744:	00000072 	andeq	r0, r0, r2, ror r0

0000a748 <__FUNCTION__.4216>:
    a748:	61746164 	cmnvs	r4, r4, ror #2
    a74c:	6f62615f 	svcvs	0x0062615f
    a750:	765f7472 			; <UNDEFINED> instruction: 0x765f7472
    a754:	6f746365 	svcvs	0x00746365
    a758:	00000072 	andeq	r0, r0, r2, ror r0
    a75c:	494e4150 	stmdbmi	lr, {r4, r6, r8, lr}^
    a760:	73253a43 	teqvc	r5, #274432	; 0x43000
    a764:	3a73253a 	bcc	1cd3c54 <__bss_end__+0x1cc7d94>
    a768:	453a6425 	ldrmi	r6, [sl, #-1061]!	; 0x425
    a76c:	524f5252 	subpl	r5, pc, #536870917	; 0x20000005
    a770:	6e75203a 	mrcvs	0, 3, r2, cr5, cr10, {1}
    a774:	646e6168 	strbtvs	r6, [lr], #-360	; 0x168
    a778:	2064656c 	rsbcs	r6, r4, ip, ror #10
    a77c:	65637865 	strbvs	r7, [r3, #-2149]!	; 0x865
    a780:	6f697470 	svcvs	0x00697470
    a784:	253c206e 	ldrcs	r2, [ip, #-110]!	; 0x6e
    a788:	61203e73 	teqvs	r0, r3, ror lr
    a78c:	43502074 	cmpmi	r0, #116	; 0x74
    a790:	0a78253d 	beq	1e13c8c <__bss_end__+0x1e07dcc>
    a794:	0000000a 	andeq	r0, r0, sl
    a798:	34317363 	ldrtcc	r7, [r1], #-867	; 0x363
    a79c:	692d6530 	pushvs	{r4, r5, r8, sl, sp, lr}
    a7a0:	7265746e 	rsbvc	r7, r5, #1845493760	; 0x6e000000
    a7a4:	74707572 	ldrbtvc	r7, [r0], #-1394	; 0x572
    a7a8:	746e692f 	strbtvc	r6, [lr], #-2351	; 0x92f
    a7ac:	75727265 	ldrbvc	r7, [r2, #-613]!	; 0x265
    a7b0:	2d737470 	cfldrdcs	mvd7, [r3, #-448]!	; 0xfffffe40
    a7b4:	00632e63 	rsbeq	r2, r3, r3, ror #28
    a7b8:	74736166 	ldrbtvc	r6, [r3], #-358	; 0x166
    a7bc:	00000000 	andeq	r0, r0, r0
    a7c0:	74666f73 	strbtvc	r6, [r6], #-3955	; 0xf73
    a7c4:	746e6920 	strbtvc	r6, [lr], #-2336	; 0x920
    a7c8:	75727265 	ldrbvc	r7, [r2, #-613]!	; 0x265
    a7cc:	00007470 	andeq	r7, r0, r0, ror r4
    a7d0:	65736572 	ldrbvs	r6, [r3, #-1394]!	; 0x572
    a7d4:	65762074 	ldrbvs	r2, [r6, #-116]!	; 0x74
    a7d8:	726f7463 	rsbvc	r7, pc, #1660944384	; 0x63000000
    a7dc:	00000000 	andeq	r0, r0, r0
    a7e0:	65646e75 	strbvs	r6, [r4, #-3701]!	; 0xe75
    a7e4:	656e6966 	strbvs	r6, [lr, #-2406]!	; 0x966
    a7e8:	6e692064 	cdpvs	0, 6, cr2, cr9, cr4, {3}
    a7ec:	75727473 	ldrbvc	r7, [r2, #-1139]!	; 0x473
    a7f0:	6f697463 	svcvs	0x00697463
    a7f4:	0000006e 	andeq	r0, r0, lr, rrx
    a7f8:	66657270 			; <UNDEFINED> instruction: 0x66657270
    a7fc:	68637465 	stmdavs	r3!, {r0, r2, r5, r6, sl, ip, sp, lr}^
    a800:	6f626120 	svcvs	0x00626120
    a804:	00007472 	andeq	r7, r0, r2, ror r4
    a808:	61746164 	cmnvs	r4, r4, ror #2
    a80c:	6f626120 	svcvs	0x00626120
    a810:	00007472 	andeq	r7, r0, r2, ror r4

0000a814 <__FUNCTION__.4439>:
    a814:	74726175 	ldrbtvc	r6, [r2], #-373	; 0x175
    a818:	7361685f 	cmnvc	r1, #6225920	; 0x5f0000
    a81c:	746e695f 	strbtvc	r6, [lr], #-2399	; 0x95f
    a820:	00000000 	andeq	r0, r0, r0

0000a824 <__FUNCTION__.4400>:
    a824:	695f7163 	ldmdbvs	pc, {r0, r1, r5, r6, r8, ip, sp, lr}^	; <UNPREDICTABLE>
    a828:	0074696e 	rsbseq	r6, r4, lr, ror #18

0000a82c <__FUNCTION__.4450>:
    a82c:	74726175 	ldrbtvc	r6, [r2], #-373	; 0x175
    a830:	746e695f 	strbtvc	r6, [lr], #-2399	; 0x95f
    a834:	756c665f 	strbvc	r6, [ip, #-1631]!	; 0x65f
    a838:	00006873 	andeq	r6, r0, r3, ror r8

0000a83c <__FUNCTION__.4341>:
    a83c:	705f7163 	subsvc	r7, pc, r3, ror #2
    a840:	0000706f 	andeq	r7, r0, pc, rrx

0000a844 <__FUNCTION__.4457>:
    a844:	74726175 	ldrbtvc	r6, [r2], #-373	; 0x175
    a848:	746e695f 	strbtvc	r6, [lr], #-2399	; 0x95f
    a84c:	756c665f 	strbvc	r6, [ip, #-1631]!	; 0x65f
    a850:	615f6873 	cmpvs	pc, r3, ror r8	; <UNPREDICTABLE>
    a854:	00006c6c 	andeq	r6, r0, ip, ror #24

0000a858 <__FUNCTION__.4480>:
    a858:	74726175 	ldrbtvc	r6, [r2], #-373	; 0x175
    a85c:	7475705f 	ldrbtvc	r7, [r5], #-95	; 0x5f
    a860:	6e695f63 	cdpvs	15, 6, cr5, cr9, cr3, {3}
    a864:	00000074 	andeq	r0, r0, r4, ror r0
    a868:	74726175 	ldrbtvc	r6, [r2], #-373	; 0x175
    a86c:	746e692d 	strbtvc	r6, [lr], #-2349	; 0x92d
    a870:	0000632e 	andeq	r6, r0, lr, lsr #6
    a874:	4f525245 	svcmi	0x00525245
    a878:	73253a52 	teqvc	r5, #335872	; 0x52000
    a87c:	3a73253a 	bcc	1cd3d6c <__bss_end__+0x1cc7eac>
    a880:	203a6425 	eorscs	r6, sl, r5, lsr #8
    a884:	534c4146 	movtpl	r4, #49478	; 0xc146
    a888:	763c2845 	ldrtvc	r2, [ip], -r5, asr #16
    a88c:	203d2120 	eorscs	r2, sp, r0, lsr #2
    a890:	31316230 	teqcc	r1, r0, lsr r2
    a894:	203a293e 	eorscs	r2, sl, lr, lsr r9
    a898:	6f706d69 	svcvs	0x00706d69
    a89c:	62697373 	rsbvs	r7, r9, #-872415231	; 0xcc000001
    a8a0:	6620656c 	strtvs	r6, [r0], -ip, ror #10
    a8a4:	206d6f72 	rsbcs	r6, sp, r2, ror pc
    a8a8:	616f7262 	cmnvs	pc, r2, ror #4
    a8ac:	6d6f6364 	stclvs	3, cr6, [pc, #-400]!	; a724 <__FUNCTION__.4208+0x14>
    a8b0:	67617020 	strbvs	r7, [r1, -r0, lsr #32]!
    a8b4:	33312065 	teqcc	r1, #101	; 0x65
    a8b8:	0000000a 	andeq	r0, r0, sl
    a8bc:	4f525245 	svcmi	0x00525245
    a8c0:	73253a52 	teqvc	r5, #335872	; 0x52000
    a8c4:	3a73253a 	bcc	1cd3db4 <__bss_end__+0x1cc7ef4>
    a8c8:	203a6425 	eorscs	r6, sl, r5, lsr #8
    a8cc:	534c4146 	movtpl	r4, #49478	; 0xc146
    a8d0:	763c2845 	ldrtvc	r2, [ip], -r5, asr #16
    a8d4:	203d2120 	eorscs	r2, sp, r0, lsr #2
    a8d8:	30306230 	eorscc	r6, r0, r0, lsr r2
    a8dc:	203a293e 	eorscs	r2, sl, lr, lsr r9
    a8e0:	6f706d69 	svcvs	0x00706d69
    a8e4:	62697373 	rsbvs	r7, r9, #-872415231	; 0xcc000001
    a8e8:	6620656c 	strtvs	r6, [r0], -ip, ror #10
    a8ec:	206d6f72 	rsbcs	r6, sp, r2, ror pc
    a8f0:	616f7262 	cmnvs	pc, r2, ror #4
    a8f4:	6d6f6364 	stclvs	3, cr6, [pc, #-400]!	; a76c <__FUNCTION__.4216+0x24>
    a8f8:	67617020 	strbvs	r7, [r1, -r0, lsr #32]!
    a8fc:	33312065 	teqcc	r1, #101	; 0x65
    a900:	0000000a 	andeq	r0, r0, sl
    a904:	494e4150 	stmdbmi	lr, {r4, r6, r8, lr}^
    a908:	73253a43 	teqvc	r5, #274432	; 0x43000
    a90c:	3a73253a 	bcc	1cd3dfc <__bss_end__+0x1cc7f3c>
    a910:	693a6425 	ldmdbvs	sl!, {r0, r2, r5, sl, sp, lr}
    a914:	736f706d 	cmnvc	pc, #109	; 0x6d
    a918:	6c626973 	stclvs	9, cr6, [r2], #-460	; 0xfffffe34
    a91c:	61762065 	cmnvs	r6, r5, rrx
    a920:	3a65756c 	bcc	1967ed8 <__bss_end__+0x195c018>
    a924:	0a622520 	beq	1893dac <__bss_end__+0x1887eec>
    a928:	0000000a 	andeq	r0, r0, sl
    a92c:	6d6f682f 	stclvs	8, cr6, [pc, #-188]!	; a878 <__FUNCTION__.4480+0x20>
    a930:	6e652f65 	cdpvs	15, 6, cr2, cr5, cr5, {3}
    a934:	72656c67 	rsbvc	r6, r5, #26368	; 0x6700
    a938:	616c632f 	cmnvs	ip, pc, lsr #6
    a93c:	632f7373 	teqvs	pc, #-872415231	; 0xcc000001
    a940:	30343173 	eorscc	r3, r4, r3, ror r1
    a944:	30322d65 	eorscc	r2, r2, r5, ror #26
    a948:	2f6e6977 	svccs	0x006e6977
    a94c:	7062696c 	rsbvc	r6, r2, ip, ror #18
    a950:	696c2f69 	stmdbvs	ip!, {r0, r3, r5, r6, r8, r9, sl, fp, sp}^
    a954:	632f6362 	teqvs	pc, #-2013265919	; 0x88000001
    a958:	75637269 	strbvc	r7, [r3, #-617]!	; 0x269
    a95c:	2e72616c 	rpwcssz	f6, f2, #4.0
    a960:	00000068 	andeq	r0, r0, r8, rrx
    a964:	494e4150 	stmdbmi	lr, {r4, r6, r8, lr}^
    a968:	73253a43 	teqvc	r5, #274432	; 0x43000
    a96c:	3a73253a 	bcc	1cd3e5c <__bss_end__+0x1cc7f9c>
    a970:	633a6425 	teqvs	sl, #620756992	; 0x25000000
    a974:	6d655f71 	stclvs	15, cr5, [r5, #-452]!	; 0xfffffe3c
    a978:	28797470 	ldmdacs	r9!, {r4, r5, r6, sl, ip, sp, lr}^
    a97c:	000a2963 	andeq	r2, sl, r3, ror #18
    a980:	494e4150 	stmdbmi	lr, {r4, r6, r8, lr}^
    a984:	73253a43 	teqvc	r5, #274432	; 0x43000
    a988:	3a73253a 	bcc	1cd3e78 <__bss_end__+0x1cc7fb8>
    a98c:	213a6425 	teqcs	sl, r5, lsr #8
    a990:	665f7163 	ldrbvs	r7, [pc], -r3, ror #2
    a994:	286c6c75 	stmdacs	ip!, {r0, r2, r4, r5, r6, sl, fp, sp, lr}^
    a998:	000a2963 	andeq	r2, sl, r3, ror #18
    a99c:	494e4150 	stmdbmi	lr, {r4, r6, r8, lr}^
    a9a0:	73253a43 	teqvc	r5, #274432	; 0x43000
    a9a4:	3a73253a 	bcc	1cd3e94 <__bss_end__+0x1cc7fd4>
    a9a8:	633a6425 	teqvs	sl, #620756992	; 0x25000000
    a9ac:	656e5f71 	strbvs	r5, [lr, #-3953]!	; 0xf71
    a9b0:	286d656c 	stmdacs	sp!, {r2, r3, r5, r6, r8, sl, sp, lr}^
    a9b4:	3d202963 	stccc	9, cr2, [r0, #-396]!	; 0xfffffe74
    a9b8:	0a30203d 	beq	c12ab4 <__bss_end__+0xc06bf4>
    a9bc:	00000000 	andeq	r0, r0, r0
    a9c0:	494e4150 	stmdbmi	lr, {r4, r6, r8, lr}^
    a9c4:	73253a43 	teqvc	r5, #274432	; 0x43000
    a9c8:	3a73253a 	bcc	1cd3eb8 <__bss_end__+0x1cc7ff8>
    a9cc:	633a6425 	teqvs	sl, #620756992	; 0x25000000
    a9d0:	6f705f71 	svcvs	0x00705f71
    a9d4:	6f6e5f70 	svcvs	0x006e5f70
    a9d8:	6f6c626e 	svcvs	0x006c626e
    a9dc:	63286b63 	teqvs	r8, #101376	; 0x18c00
    a9e0:	2965262c 	stmdbcs	r5!, {r2, r3, r5, r9, sl, sp}^
    a9e4:	203d3d20 	eorscs	r3, sp, r0, lsr #26
    a9e8:	26262030 			; <UNDEFINED> instruction: 0x26262030
    a9ec:	3d206520 	cfstr32cc	mvfx6, [r0, #-128]!	; 0xffffff80
    a9f0:	7830203d 	ldmdavc	r0!, {r0, r2, r3, r4, r5, sp}
    a9f4:	000a3231 	andeq	r3, sl, r1, lsr r2
    a9f8:	494e4150 	stmdbmi	lr, {r4, r6, r8, lr}^
    a9fc:	73253a43 	teqvc	r5, #274432	; 0x43000
    aa00:	3a73253a 	bcc	1cd3ef0 <__bss_end__+0x1cc8030>
    aa04:	213a6425 	teqcs	sl, r5, lsr #8
    aa08:	5f746e69 	svcpl	0x00746e69
    aa0c:	655f7369 	ldrbvs	r7, [pc, #-873]	; a6ab <__FUNCTION__.4327+0xc7>
    aa10:	6c62616e 	stfvse	f6, [r2], #-440	; 0xfffffe48
    aa14:	29286465 	stmdbcs	r8!, {r0, r2, r5, r6, sl, sp, lr}
    aa18:	0000000a 	andeq	r0, r0, sl
    aa1c:	494e4150 	stmdbmi	lr, {r4, r6, r8, lr}^
    aa20:	73253a43 	teqvc	r5, #274432	; 0x43000
    aa24:	3a73253a 	bcc	1cd3f14 <__bss_end__+0x1cc8054>
    aa28:	773a6425 	ldrvc	r6, [sl, -r5, lsr #8]!
    aa2c:	206c6c69 	rsbcs	r6, ip, r9, ror #24
    aa30:	64616564 	strbtvs	r6, [r1], #-1380	; 0x564
    aa34:	6b636f6c 	blvs	18e67ec <__bss_end__+0x18da92c>
    aa38:	6e69203a 	mcrvs	0, 3, r2, cr9, cr10, {1}
    aa3c:	72726574 	rsbsvc	r6, r2, #116, 10	; 0x1d000000
    aa40:	73747075 	cmnvc	r4, #117	; 0x75
    aa44:	746f6e20 	strbtvc	r6, [pc], #-3616	; aa4c <__FUNCTION__.4480+0x1f4>
    aa48:	616e6520 	cmnvs	lr, r0, lsr #10
    aa4c:	64656c62 	strbtvs	r6, [r5], #-3170	; 0xc62
    aa50:	49465b20 	stmdbmi	r6, {r5, r8, r9, fp, ip, lr}^
    aa54:	5d454d58 	stclpl	13, cr4, [r5, #-352]	; 0xfffffea0
    aa58:	00000a0a 	andeq	r0, r0, sl, lsl #20
    aa5c:	494e4150 	stmdbmi	lr, {r4, r6, r8, lr}^
    aa60:	73253a43 	teqvc	r5, #274432	; 0x43000
    aa64:	3a73253a 	bcc	1cd3f54 <__bss_end__+0x1cc8094>
    aa68:	693a6425 	ldmdbvs	sl!, {r0, r2, r5, sl, sp, lr}
    aa6c:	695f746e 	ldmdbvs	pc, {r1, r2, r3, r5, r6, sl, ip, sp, lr}^	; <UNPREDICTABLE>
    aa70:	6e655f73 	mcrvs	15, 3, r5, cr5, cr3, {3}
    aa74:	656c6261 	strbvs	r6, [ip, #-609]!	; 0x261
    aa78:	0a292864 	beq	a54c10 <__bss_end__+0xa48d50>
    aa7c:	00000000 	andeq	r0, r0, r0

Disassembly of section .bss:

0000aa80 <__bss_start__>:
	...

0000ae80 <console_uart>:
	...

0000ae8c <getQ>:
	...

0000b6a0 <putQ>:
	...

0000beb4 <n_uart_interrupts>:
    beb4:	00000000 	andeq	r0, r0, r0

0000beb8 <rpi_arm_timer_t>:
	...

Disassembly of section .ARM.attributes:

00000000 <.ARM.attributes>:
   0:	00002a41 	andeq	r2, r0, r1, asr #20
   4:	61656100 	cmnvs	r5, r0, lsl #2
   8:	01006962 	tsteq	r0, r2, ror #18
   c:	00000020 	andeq	r0, r0, r0, lsr #32
  10:	4b5a3605 	blmi	168d82c <__bss_end__+0x168196c>
  14:	08070600 	stmdaeq	r7, {r9, sl}
  18:	12010901 	andne	r0, r1, #16384	; 0x4000
  1c:	15011404 	strne	r1, [r1, #-1028]	; 0x404
  20:	18031701 	stmdane	r3, {r0, r8, r9, sl, ip}
  24:	22011a01 	andcs	r1, r1, #4096	; 0x1000
  28:	Address 0x0000000000000028 is out of bounds.


Disassembly of section .comment:

00000000 <.comment>:
   0:	3a434347 	bcc	10d0d24 <__bss_end__+0x10c4e64>
   4:	4e472820 	cdpmi	8, 4, cr2, cr7, cr0, {1}
   8:	34202955 	strtcc	r2, [r0], #-2389	; 0x955
   c:	332e382e 	teqcc	lr, #3014656	; 0x2e0000
  10:	43434700 	movtmi	r4, #14080	; 0x3700
  14:	4728203a 			; <UNDEFINED> instruction: 0x4728203a
  18:	5420554e 	strtpl	r5, [r0], #-1358	; 0x54e
  1c:	736c6f6f 	cmnvc	ip, #444	; 0x1bc
  20:	726f6620 	rsbvc	r6, pc, #32, 12	; 0x2000000
  24:	6d724120 	ldfvse	f4, [r2, #-128]!	; 0xffffff80
  28:	626d4520 	rsbvs	r4, sp, #32, 10	; 0x8000000
  2c:	65646465 	strbvs	r6, [r4, #-1125]!	; 0x465
  30:	72502064 	subsvc	r2, r0, #100	; 0x64
  34:	7365636f 	cmnvc	r5, #-1140850687	; 0xbc000001
  38:	73726f73 	cmnvc	r2, #460	; 0x1cc
  3c:	322d3720 	eorcc	r3, sp, #32, 14	; 0x800000
  40:	2d383130 	ldfcss	f3, [r8, #-192]!	; 0xffffff40
  44:	752d3371 	strvc	r3, [sp, #-881]!	; 0x371
  48:	74616470 	strbtvc	r6, [r1], #-1136	; 0x470
  4c:	37202965 	strcc	r2, [r0, -r5, ror #18]!
  50:	312e332e 	teqcc	lr, lr, lsr #6
  54:	31303220 	teqcc	r0, r0, lsr #4
  58:	32363038 	eorscc	r3, r6, #56	; 0x38
  5c:	72282032 	eorvc	r2, r8, #50	; 0x32
  60:	61656c65 	cmnvs	r5, r5, ror #24
  64:	20296573 	eorcs	r6, r9, r3, ror r5
  68:	4d52415b 	ldfmie	f4, [r2, #-364]	; 0xfffffe94
  6c:	626d652f 	rsbvs	r6, sp, #197132288	; 0xbc00000
  70:	65646465 	strbvs	r6, [r4, #-1125]!	; 0x465
  74:	2d372d64 	ldccs	13, cr2, [r7, #-400]!	; 0xfffffe70
  78:	6e617262 	cdpvs	2, 6, cr7, cr1, cr2, {3}
  7c:	72206863 	eorvc	r6, r0, #6488064	; 0x630000
  80:	73697665 	cmnvc	r9, #105906176	; 0x6500000
  84:	206e6f69 	rsbcs	r6, lr, r9, ror #30
  88:	39313632 	ldmdbcc	r1!, {r1, r4, r5, r9, sl, ip, sp}
  8c:	005d3730 	subseq	r3, sp, r0, lsr r7

Disassembly of section .debug_info:

00000000 <.debug_info>:
       0:	00000755 	andeq	r0, r0, r5, asr r7
       4:	00000004 	andeq	r0, r0, r4
       8:	01040000 	mrseq	r0, (UNDEF: 4)
       c:	000002e3 	andeq	r0, r0, r3, ror #5
      10:	00029501 	andeq	r9, r2, r1, lsl #10
      14:	00035500 	andeq	r5, r3, r0, lsl #10
      18:	00801000 	addeq	r1, r0, r0
      1c:	00028000 	andeq	r8, r2, r0
      20:	00000000 	andeq	r0, r0, r0
      24:	05040200 	streq	r0, [r4, #-512]	; 0x200
      28:	00746e69 	rsbseq	r6, r4, r9, ror #28
      2c:	3d070403 	cfstrscc	mvf0, [r7, #-12]
      30:	03000000 	movweq	r0, #0
      34:	02520601 	subseq	r0, r2, #1048576	; 0x100000
      38:	02030000 	andeq	r0, r3, #0
      3c:	00027705 	andeq	r7, r2, r5, lsl #14
      40:	05040300 	streq	r0, [r4, #-768]	; 0x300
      44:	0000007b 	andeq	r0, r0, fp, ror r0
      48:	76050803 	strvc	r0, [r5], -r3, lsl #16
      4c:	04000000 	streq	r0, [r0], #-0
      50:	0000040a 	andeq	r0, r0, sl, lsl #8
      54:	005a2e02 	subseq	r2, sl, r2, lsl #28
      58:	01030000 	mrseq	r0, (UNDEF: 3)
      5c:	00025008 	andeq	r5, r2, r8
      60:	07020300 	streq	r0, [r2, -r0, lsl #6]
      64:	00000163 	andeq	r0, r0, r3, ror #2
      68:	0002b304 	andeq	fp, r2, r4, lsl #6
      6c:	73340200 	teqvc	r4, #0, 4
      70:	03000000 	movweq	r0, #0
      74:	00380704 	eorseq	r0, r8, r4, lsl #14
      78:	08030000 	stmdaeq	r3, {}	; <UNPREDICTABLE>
      7c:	00003307 	andeq	r3, r0, r7, lsl #6
      80:	07040300 	streq	r0, [r4, -r0, lsl #6]
      84:	000001eb 	andeq	r0, r0, fp, ror #3
      88:	01030405 	tsteq	r3, r5, lsl #8
      8c:	00025908 	andeq	r5, r2, r8, lsl #18
      90:	97040600 	strls	r0, [r4, -r0, lsl #12]
      94:	07000000 	streq	r0, [r0, -r0]
      98:	0000008a 	andeq	r0, r0, sl, lsl #1
      9c:	00008a08 	andeq	r8, r0, r8, lsl #20
      a0:	0000ac00 	andeq	sl, r0, r0, lsl #24
      a4:	00810900 	addeq	r0, r1, r0, lsl #18
      a8:	00070000 	andeq	r0, r7, r0
      ac:	3303040a 	movwcc	r0, #13322	; 0x340a
      b0:	00000119 	andeq	r0, r0, r9, lsl r1
      b4:	0000d00b 	andeq	sp, r0, fp
      b8:	82e88000 	rschi	r8, r8, #0
      bc:	c10b0280 	smlabbgt	fp, r0, r2, r0
      c0:	80000000 	andhi	r0, r0, r0
      c4:	028082e8 	addeq	r8, r0, #232, 4	; 0x8000000e
      c8:	0003c70b 	andeq	ip, r3, fp, lsl #14
      cc:	82e88400 	rschi	r8, r8, #0, 8
      d0:	a20b0280 	andge	r0, fp, #128, 4
      d4:	88000000 	stmdahi	r0, {}	; <UNPREDICTABLE>
      d8:	028082e8 	addeq	r8, r0, #232, 4	; 0x8000000e
      dc:	0003d70b 	andeq	sp, r3, fp, lsl #14
      e0:	82e88c00 	rschi	r8, r8, #0, 24
      e4:	080b0280 	stmdaeq	fp, {r7, r9}
      e8:	90000000 	andls	r0, r0, r0
      ec:	028082e8 	addeq	r8, r0, #232, 4	; 0x8000000e
      f0:	0001170b 	andeq	r1, r1, fp, lsl #14
      f4:	82e89400 	rschi	r9, r8, #0, 8
      f8:	000b0280 	andeq	r0, fp, r0, lsl #5
      fc:	98000002 	stmdals	r0, {r1}
     100:	028082e8 	addeq	r8, r0, #232, 4	; 0x8000000e
     104:	0003b20b 	andeq	fp, r3, fp, lsl #4
     108:	82e89c00 	rschi	r9, r8, #0, 24
     10c:	2f0b0280 	svccs	0x000b0280
     110:	a0000004 	andge	r0, r0, r4
     114:	028082e8 	addeq	r8, r0, #232, 4	; 0x8000000e
     118:	04010a00 	streq	r0, [r1], #-2560	; 0xa00
     11c:	0001a00e 	andeq	sl, r1, lr
     120:	00df0b00 	sbcseq	r0, pc, r0, lsl #22
     124:	0b000000 	bleq	12c <_start-0x7ed4>
     128:	00000184 	andeq	r0, r0, r4, lsl #3
     12c:	025e0b01 	subseq	r0, lr, #1024	; 0x400
     130:	0b020000 	bleq	80138 <__bss_end__+0x74278>
     134:	000002c3 	andeq	r0, r0, r3, asr #5
     138:	018d0b03 	orreq	r0, sp, r3, lsl #22
     13c:	0b040000 	bleq	100144 <__bss_end__+0xf4284>
     140:	00000147 	andeq	r0, r0, r7, asr #2
     144:	02330b05 	eorseq	r0, r3, #5120	; 0x1400
     148:	0b060000 	bleq	180150 <__bss_end__+0x174290>
     14c:	00000244 	andeq	r0, r0, r4, asr #4
     150:	01f40b07 	mvnseq	r0, r7, lsl #22
     154:	0b080000 	bleq	20015c <__bss_end__+0x1f429c>
     158:	00000412 	andeq	r0, r0, r2, lsl r4
     15c:	008f0b09 	addeq	r0, pc, r9, lsl #22
     160:	0b0a0000 	bleq	280168 <__bss_end__+0x2742a8>
     164:	0000004f 	andeq	r0, r0, pc, asr #32
     168:	02d10b0b 	sbcseq	r0, r1, #11264	; 0x2c00
     16c:	0b0c0000 	bleq	300174 <__bss_end__+0x2f42b4>
     170:	000001d8 	ldrdeq	r0, [r0], -r8
     174:	01c90b0d 	biceq	r0, r9, sp, lsl #22
     178:	0b0e0000 	bleq	380180 <__bss_end__+0x3742c0>
     17c:	0000041f 	andeq	r0, r0, pc, lsl r4
     180:	02110b0f 	andseq	r0, r1, #15360	; 0x3c00
     184:	0b100000 	bleq	40018c <__bss_end__+0x3f42cc>
     188:	0000026e 	andeq	r0, r0, lr, ror #4
     18c:	01970b11 	orrseq	r0, r7, r1, lsl fp
     190:	0b120000 	bleq	480198 <__bss_end__+0x4742d8>
     194:	000002bc 			; <UNDEFINED> instruction: 0x000002bc
     198:	029e0b13 	addseq	r0, lr, #19456	; 0x4c00
     19c:	00140000 	andseq	r0, r4, r0
     1a0:	0000840c 	andeq	r8, r0, ip, lsl #8
     1a4:	101e0100 	andsne	r0, lr, r0, lsl #2
     1a8:	2c000080 	stccs	0, cr0, [r0], {128}	; 0x80
     1ac:	01000000 	mrseq	r0, (UNDEF: 0)
     1b0:	0001ff9c 	muleq	r1, ip, pc	; <UNPREDICTABLE>
     1b4:	0abd0d00 	beq	fef435bc <__bss_end__+0xfef376fc>
     1b8:	1e010000 	cdpne	0, 0, cr0, cr1, cr0, {0}
     1bc:	00000088 	andeq	r0, r0, r8, lsl #1
     1c0:	00000000 	andeq	r0, r0, r0
     1c4:	01006e0e 	tsteq	r0, lr, lsl #28
     1c8:	00002c1e 	andeq	r2, r0, lr, lsl ip
     1cc:	00001e00 	andeq	r1, r0, r0, lsl #28
     1d0:	00700f00 	rsbseq	r0, r0, r0, lsl #30
     1d4:	01ff1f01 	mvnseq	r1, r1, lsl #30
     1d8:	003c0000 	eorseq	r0, ip, r0
     1dc:	1c100000 	ldcne	0, cr0, [r0], {-0}
     1e0:	1c000080 	stcne	0, cr0, [r0], {128}	; 0x80
     1e4:	0f000000 	svceq	0x00000000
     1e8:	20010069 	andcs	r0, r1, r9, rrx
     1ec:	00000025 	andeq	r0, r0, r5, lsr #32
     1f0:	0000005a 	andeq	r0, r0, sl, asr r0
     1f4:	00802811 	addeq	r2, r0, r1, lsl r8
     1f8:	00062700 	andeq	r2, r6, r0, lsl #14
     1fc:	06000000 	streq	r0, [r0], -r0
     200:	00004f04 	andeq	r4, r0, r4, lsl #30
     204:	00e71200 	rsceq	r1, r7, r0, lsl #4
     208:	28010000 	stmdacs	r1, {}	; <UNPREDICTABLE>
     20c:	0000002c 	andeq	r0, r0, ip, lsr #32
     210:	0000803c 	andeq	r8, r0, ip, lsr r0
     214:	00000020 	andeq	r0, r0, r0, lsr #32
     218:	02409c01 	subeq	r9, r0, #256	; 0x100
     21c:	75130000 	ldrvc	r0, [r3, #-0]
     220:	2c290100 	stfcss	f0, [r9], #-0
     224:	02000000 	andeq	r0, r0, #0
     228:	50147491 	mulspl	r4, r1, r4
     22c:	a0000080 	andge	r0, r0, r0, lsl #1
     230:	15000001 	strne	r0, [r0, #-1]
     234:	34015101 	strcc	r5, [r1], #-257	; 0x101
     238:	02500115 	subseq	r0, r0, #1073741829	; 0x40000005
     23c:	00006c91 	muleq	r0, r1, ip
     240:	00005d12 	andeq	r5, r0, r2, lsl sp
     244:	25380100 	ldrcs	r0, [r8, #-256]!	; 0x100
     248:	5c000000 	stcpl	0, cr0, [r0], {-0}
     24c:	20000080 	andcs	r0, r0, r0, lsl #1
     250:	01000000 	mrseq	r0, (UNDEF: 0)
     254:	00029b9c 	muleq	r2, ip, fp
     258:	68630e00 	stmdavs	r3!, {r9, sl, fp}^
     25c:	25380100 	ldrcs	r0, [r8, #-256]!	; 0x100
     260:	79000000 	stmdbvc	r0, {}	; <UNPREDICTABLE>
     264:	0f000000 	svceq	0x00000000
     268:	39010063 	stmdbcc	r1, {r0, r1, r5, r6}
     26c:	0000004f 	andeq	r0, r0, pc, asr #32
     270:	00000097 	muleq	r0, r7, r0
     274:	00806c16 	addeq	r6, r0, r6, lsl ip
     278:	00063200 	andeq	r3, r6, r0, lsl #4
     27c:	00028700 	andeq	r8, r2, r0, lsl #14
     280:	50011500 	andpl	r1, r1, r0, lsl #10
     284:	14003301 	strne	r3, [r0], #-769	; 0x301
     288:	00008074 	andeq	r8, r0, r4, ror r0
     28c:	00000632 	andeq	r0, r0, r2, lsr r6
     290:	05500115 	ldrbeq	r0, [r0, #-277]	; 0x115
     294:	ff080074 			; <UNDEFINED> instruction: 0xff080074
     298:	0c00001a 	stceq	0, cr0, [r0], {26}
     29c:	000001a6 	andeq	r0, r0, r6, lsr #3
     2a0:	807c2301 	rsbshi	r2, ip, r1, lsl #6
     2a4:	002c0000 	eoreq	r0, ip, r0
     2a8:	9c010000 	stcls	0, cr0, [r1], {-0}
     2ac:	000002fa 	strdeq	r0, [r0], -sl
     2b0:	000abd0d 	andeq	fp, sl, sp, lsl #26
     2b4:	fa230100 	blx	8c06bc <__bss_end__+0x8b47fc>
     2b8:	b5000002 	strlt	r0, [r0, #-2]
     2bc:	0e000000 	cdpeq	0, 0, cr0, cr0, cr0, {0}
     2c0:	2301006e 	movwcs	r0, #4206	; 0x106e
     2c4:	0000002c 	andeq	r0, r0, ip, lsr #32
     2c8:	000000d3 	ldrdeq	r0, [r0], -r3
     2cc:	0100700f 	tsteq	r0, pc
     2d0:	00030124 	andeq	r0, r3, r4, lsr #2
     2d4:	0000f100 	andeq	pc, r0, r0, lsl #2
     2d8:	80881000 	addhi	r1, r8, r0
     2dc:	001c0000 	andseq	r0, ip, r0
     2e0:	690f0000 	stmdbvs	pc, {}	; <UNPREDICTABLE>
     2e4:	25250100 	strcs	r0, [r5, #-256]!	; 0x100
     2e8:	0f000000 	svceq	0x00000000
     2ec:	11000001 	tstne	r0, r1
     2f0:	00008098 	muleq	r0, r8, r0
     2f4:	00000632 	andeq	r0, r0, r2, lsr r6
     2f8:	04060000 	streq	r0, [r6], #-0
     2fc:	00000300 	andeq	r0, r0, r0, lsl #6
     300:	07040617 	smladeq	r4, r7, r6, r0
     304:	07000003 	streq	r0, [r0, -r3]
     308:	0000004f 	andeq	r0, r0, pc, asr #32
     30c:	0001580c 	andeq	r5, r1, ip, lsl #16
     310:	a82d0100 	stmdage	sp!, {r8}
     314:	24000080 	strcs	r0, [r0], #-128	; 0x80
     318:	01000000 	mrseq	r0, (UNDEF: 0)
     31c:	0003449c 	muleq	r3, ip, r4
     320:	00750e00 	rsbseq	r0, r5, r0, lsl #28
     324:	002c2d01 	eoreq	r2, ip, r1, lsl #26
     328:	012e0000 	teqeq	lr, r0
     32c:	c4140000 	ldrgt	r0, [r4], #-0
     330:	9b000080 	blls	538 <_start-0x7ac8>
     334:	15000002 	strne	r0, [r0, #-2]
     338:	34015101 	strcc	r5, [r1], #-257	; 0x101
     33c:	02500115 	subseq	r0, r0, #1073741829	; 0x40000005
     340:	00006c91 	muleq	r0, r1, ip
     344:	000c9318 	andeq	r9, ip, r8, lsl r3
     348:	cc150100 	ldfgts	f0, [r5], {-0}
     34c:	0c000080 	stceq	0, cr0, [r0], {128}	; 0x80
     350:	01000000 	mrseq	r0, (UNDEF: 0)
     354:	0003719c 	muleq	r3, ip, r1
     358:	63700e00 	cmnvs	r0, #0, 28
     35c:	2c150100 	ldfcss	f0, [r5], {-0}
     360:	59000000 	stmdbpl	r0, {}	; <UNPREDICTABLE>
     364:	11000001 	tstne	r0, r1
     368:	000080d4 	ldrdeq	r8, [r0], -r4
     36c:	00000647 	andeq	r0, r0, r7, asr #12
     370:	00001800 	andeq	r1, r0, r0, lsl #16
     374:	3f010000 	svccc	0x00010000
     378:	000080d8 	ldrdeq	r8, [r0], -r8	; <UNPREDICTABLE>
     37c:	000001b8 			; <UNDEFINED> instruction: 0x000001b8
     380:	06119c01 	ldreq	r9, [r1], -r1, lsl #24
     384:	3a190000 	bcc	64038c <__bss_end__+0x6344cc>
     388:	11000001 	tstne	r0, r1
     38c:	05000006 	streq	r0, [r0, #-6]
     390:	00a3bc03 	adceq	fp, r3, r3, lsl #24
     394:	812c1a00 	teqhi	ip, r0, lsl #20
     398:	01640000 	cmneq	r4, r0
     39c:	056e0000 	strbeq	r0, [lr, #-0]!
     3a0:	6f0f0000 	svcvs	0x000f0000
     3a4:	55010070 	strpl	r0, [r1, #-112]	; 0x70
     3a8:	0000004f 	andeq	r0, r0, pc, asr #32
     3ac:	0000017a 	andeq	r0, r0, sl, ror r1
     3b0:	6e69700f 	cdpvs	0, 6, cr7, cr9, cr15, {0}
     3b4:	4f550100 	svcmi	0x00550100
     3b8:	5e000000 	cdppl	0, 0, cr0, cr0, cr0, {0}
     3bc:	1b000002 	blne	3cc <_start-0x7c34>
     3c0:	0000004a 	andeq	r0, r0, sl, asr #32
     3c4:	00685601 	rsbeq	r5, r8, r1, lsl #12
     3c8:	02b30000 	adcseq	r0, r3, #0
     3cc:	760f0000 	strvc	r0, [pc], -r0
     3d0:	01006c61 	tsteq	r0, r1, ror #24
     3d4:	00006856 	andeq	r6, r0, r6, asr r8
     3d8:	0002dc00 	andeq	sp, r2, r0, lsl #24
     3dc:	81381100 	teqhi	r8, r0, lsl #2
     3e0:	06270000 	strteq	r0, [r7], -r0
     3e4:	8c160000 	ldchi	0, cr0, [r6], {-0}
     3e8:	52000081 	andpl	r0, r0, #129	; 0x81
     3ec:	fd000006 	stc2	0, cr0, [r0, #-24]	; 0xffffffe8
     3f0:	15000003 	strne	r0, [r0, #-3]
     3f4:	03055001 	movweq	r5, #20481	; 0x5001
     3f8:	0000a414 	andeq	sl, r0, r4, lsl r4
     3fc:	81941600 	orrshi	r1, r4, r0, lsl #12
     400:	06680000 	strbteq	r0, [r8], -r0
     404:	04110000 	ldreq	r0, [r1], #-0
     408:	01150000 	tsteq	r5, r0
     40c:	00750250 	rsbseq	r0, r5, r0, asr r2
     410:	81981100 	orrshi	r1, r8, r0, lsl #2
     414:	06790000 	ldrbteq	r0, [r9], -r0
     418:	9c110000 	ldcls	0, cr0, [r1], {-0}
     41c:	05000081 	streq	r0, [r0, #-129]	; 0x81
     420:	11000002 	tstne	r0, r2
     424:	000081a0 	andeq	r8, r0, r0, lsr #3
     428:	00000680 	andeq	r0, r0, r0, lsl #13
     42c:	0081ac16 	addeq	sl, r1, r6, lsl ip
     430:	00063200 	andeq	r3, r6, r0, lsl #4
     434:	00044000 	andeq	r4, r4, r0
     438:	50011500 	andpl	r1, r1, r0, lsl #10
     43c:	00007602 	andeq	r7, r0, r2, lsl #12
     440:	0081b416 	addeq	fp, r1, r6, lsl r4
     444:	00030c00 	andeq	r0, r3, r0, lsl #24
     448:	00045400 	andeq	r5, r4, r0, lsl #8
     44c:	50011500 	andpl	r1, r1, r0, lsl #10
     450:	00007402 	andeq	r7, r0, r2, lsl #8
     454:	0081bc11 	addeq	fp, r1, r1, lsl ip
     458:	00020500 	andeq	r0, r2, r0, lsl #10
     45c:	81c41100 	bichi	r1, r4, r0, lsl #2
     460:	02050000 	andeq	r0, r5, #0
     464:	d0160000 	andsle	r0, r6, r0
     468:	95000081 	strls	r0, [r0, #-129]	; 0x81
     46c:	7a000006 	bvc	48c <_start-0x7b74>
     470:	15000004 	strne	r0, [r0, #-4]
     474:	74025001 	strvc	r5, [r2], #-1
     478:	d8110000 	ldmdale	r1, {}	; <UNPREDICTABLE>
     47c:	27000081 	strcs	r0, [r0, -r1, lsl #1]
     480:	11000006 	tstne	r0, r6
     484:	000081e0 	andeq	r8, r0, r0, ror #3
     488:	000006ab 	andeq	r0, r0, fp, lsr #13
     48c:	0081e811 	addeq	lr, r1, r1, lsl r8
     490:	00062700 	andeq	r2, r6, r0, lsl #14
     494:	81f01100 	mvnshi	r1, r0, lsl #2
     498:	06bc0000 	ldrteq	r0, [ip], r0
     49c:	fc160000 	ldc2	0, cr0, [r6], {-0}
     4a0:	32000081 	andcc	r0, r0, #129	; 0x81
     4a4:	b2000006 	andlt	r0, r0, #6
     4a8:	15000004 	strne	r0, [r0, #-4]
     4ac:	75025001 	strvc	r5, [r2, #-1]
     4b0:	04160000 	ldreq	r0, [r6], #-0
     4b4:	0c000082 	stceq	0, cr0, [r0], {130}	; 0x82
     4b8:	c6000003 	strgt	r0, [r0], -r3
     4bc:	15000004 	strne	r0, [r0, #-4]
     4c0:	74025001 	strvc	r5, [r2], #-1
     4c4:	0c110000 	ldceq	0, cr0, [r1], {-0}
     4c8:	27000082 	strcs	r0, [r0, -r2, lsl #1]
     4cc:	11000006 	tstne	r0, r6
     4d0:	00008214 	andeq	r8, r0, r4, lsl r2
     4d4:	000006d1 	ldrdeq	r0, [r0], -r1
     4d8:	00821c11 	addeq	r1, r2, r1, lsl ip
     4dc:	00062700 	andeq	r2, r6, r0, lsl #14
     4e0:	82241100 	eorhi	r1, r4, #0, 2
     4e4:	02050000 	andeq	r0, r5, #0
     4e8:	30160000 	andscc	r0, r6, r0
     4ec:	e2000082 	and	r0, r0, #130	; 0x82
     4f0:	01000006 	tsteq	r0, r6
     4f4:	15000005 	strne	r0, [r0, #-5]
     4f8:	74055001 	strvc	r5, [r5], #-1
     4fc:	1aff0800 	bne	fffc2504 <__bss_end__+0xfffb6644>
     500:	82381100 	eorshi	r1, r8, #0, 2
     504:	06270000 	strteq	r0, [r7], -r0
     508:	40110000 	andsmi	r0, r1, r0
     50c:	f8000082 			; <UNDEFINED> instruction: 0xf8000082
     510:	11000006 	tstne	r0, r6
     514:	00008248 	andeq	r8, r0, r8, asr #4
     518:	00000627 	andeq	r0, r0, r7, lsr #12
     51c:	00825011 	addeq	r5, r2, r1, lsl r0
     520:	00070900 	andeq	r0, r7, r0, lsl #18
     524:	82581100 	subshi	r1, r8, #0, 2
     528:	071a0000 	ldreq	r0, [sl, -r0]
     52c:	70160000 	andsvc	r0, r6, r0
     530:	52000082 	andpl	r0, r0, #130	; 0x82
     534:	64000006 	strvs	r0, [r0], #-6
     538:	15000005 	strne	r0, [r0, #-5]
     53c:	08025301 	stmdaeq	r2, {r0, r8, r9, ip, lr}
     540:	52011593 	andpl	r1, r1, #616562688	; 0x24c00000
     544:	a3bc0305 			; <UNDEFINED> instruction: 0xa3bc0305
     548:	01150000 	tsteq	r5, r0
     54c:	e8030551 	stmda	r3, {r0, r4, r6, r8, sl}
     550:	150000a3 	strne	r0, [r0, #-163]	; 0xa3
     554:	03055001 	movweq	r5, #20481	; 0x5001
     558:	0000a420 	andeq	sl, r0, r0, lsr #8
     55c:	007d0215 	rsbseq	r0, sp, r5, lsl r2
     560:	00007402 	andeq	r7, r0, r2, lsl #8
     564:	00827411 	addeq	r7, r2, r1, lsl r4
     568:	00067900 	andeq	r7, r6, r0, lsl #18
     56c:	e4110000 	ldr	r0, [r1], #-0
     570:	21000080 	smlabbcs	r0, r0, r0, r0
     574:	11000007 	tstne	r0, r7
     578:	000080e8 	andeq	r8, r0, r8, ror #1
     57c:	00000728 	andeq	r0, r0, r8, lsr #14
     580:	0080ec11 	addeq	lr, r0, r1, lsl ip
     584:	00072f00 	andeq	r2, r7, r0, lsl #30
     588:	80f41600 	rscshi	r1, r4, r0, lsl #12
     58c:	07360000 	ldreq	r0, [r6, -r0]!
     590:	05a00000 	streq	r0, [r0, #0]!
     594:	01150000 	tsteq	r5, r0
     598:	5c030550 	cfstr32pl	mvfx0, [r3], {80}	; 0x50
     59c:	00000080 	andeq	r0, r0, r0, lsl #1
     5a0:	0080f811 	addeq	pc, r0, r1, lsl r8	; <UNPREDICTABLE>
     5a4:	00062700 	andeq	r2, r6, r0, lsl #14
     5a8:	81041100 	mrshi	r1, (UNDEF: 20)
     5ac:	071a0000 	ldreq	r0, [sl, -r0]
     5b0:	18160000 	ldmdane	r6, {}	; <UNPREDICTABLE>
     5b4:	52000081 	andpl	r0, r0, #129	; 0x81
     5b8:	e1000006 	tst	r0, r6
     5bc:	15000005 	strne	r0, [r0, #-5]
     5c0:	08025301 	stmdaeq	r2, {r0, r8, r9, ip, lr}
     5c4:	5201154d 	andpl	r1, r1, #322961408	; 0x13400000
     5c8:	a3bc0305 			; <UNDEFINED> instruction: 0xa3bc0305
     5cc:	01150000 	tsteq	r5, r0
     5d0:	e8030551 	stmda	r3, {r0, r4, r6, r8, sl}
     5d4:	150000a3 	strne	r0, [r0, #-163]	; 0xa3
     5d8:	03055001 	movweq	r5, #20481	; 0x5001
     5dc:	0000a3c4 	andeq	sl, r0, r4, asr #7
     5e0:	811c1100 	tsthi	ip, r0, lsl #2
     5e4:	06790000 	ldrbteq	r0, [r9], -r0
     5e8:	24160000 	ldrcs	r0, [r6], #-0
     5ec:	32000081 	andcc	r0, r0, #129	; 0x81
     5f0:	fd000006 	stc2	0, cr0, [r0, #-24]	; 0xffffffe8
     5f4:	15000005 	strne	r0, [r0, #-5]
     5f8:	31015001 	tstcc	r1, r1
     5fc:	812c1400 	teqhi	ip, r0, lsl #8
     600:	06520000 	ldrbeq	r0, [r2], -r0
     604:	01150000 	tsteq	r5, r0
     608:	f4030550 	vst3.16	{d0,d2,d4}, [r3 :64], r0
     60c:	000000a3 	andeq	r0, r0, r3, lsr #1
     610:	009c0700 	addseq	r0, ip, r0, lsl #14
     614:	fa1c0000 	blx	70061c <__bss_end__+0x6f475c>
     618:	03000003 	movweq	r0, #3
     61c:	0000ac80 	andeq	sl, r0, r0, lsl #25
     620:	b8030500 	stmdalt	r3, {r8, sl}
     624:	1d0000be 	stcne	0, cr0, [r0, #-760]	; 0xfffffd08
     628:	000000f2 	strdeq	r0, [r0], -r2
     62c:	00251105 	eoreq	r1, r5, r5, lsl #2
     630:	761e0000 	ldrvc	r0, [lr], -r0
     634:	05000001 	streq	r0, [r0, #-1]
     638:	00002512 	andeq	r2, r0, r2, lsl r5
     63c:	00064700 	andeq	r4, r6, r0, lsl #14
     640:	00251f00 	eoreq	r1, r5, r0, lsl #30
     644:	1d000000 	stcne	0, cr0, [r0, #-0]
     648:	00000100 	andeq	r0, r0, r0, lsl #2
     64c:	00251405 	eoreq	r1, r5, r5, lsl #8
     650:	6c1e0000 	ldcvs	0, cr0, [lr], {-0}
     654:	06000004 	streq	r0, [r0], -r4
     658:	00002529 	andeq	r2, r0, r9, lsr #10
     65c:	00066800 	andeq	r6, r6, r0, lsl #16
     660:	00911f00 	addseq	r1, r1, r0, lsl #30
     664:	00200000 	eoreq	r0, r0, r0
     668:	0002aa21 	andeq	sl, r2, r1, lsr #20
     66c:	79500600 	ldmdbvc	r0, {r9, sl}^
     670:	1f000006 	svcne	0x00000006
     674:	0000002c 	andeq	r0, r0, ip, lsr #32
     678:	01bc2200 			; <UNDEFINED> instruction: 0x01bc2200
     67c:	66060000 	strvs	r0, [r6], -r0
     680:	0002711e 	andeq	r7, r2, lr, lsl r1
     684:	2ca50600 	stccs	6, cr0, [r5]
     688:	95000000 	strls	r0, [r0, #-0]
     68c:	1f000006 	svcne	0x00000006
     690:	0000002c 	andeq	r0, r0, ip, lsr #32
     694:	02142100 	andseq	r2, r4, #0, 2
     698:	99060000 	stmdbls	r6, {}	; <UNPREDICTABLE>
     69c:	000006ab 	andeq	r0, r0, fp, lsr #13
     6a0:	00002c1f 	andeq	r2, r0, pc, lsl ip
     6a4:	002c1f00 	eoreq	r1, ip, r0, lsl #30
     6a8:	21000000 	mrscs	r0, (UNDEF: 0)
     6ac:	0000033a 	andeq	r0, r0, sl, lsr r3
     6b0:	06bc1c07 	ldrteq	r1, [ip], r7, lsl #24
     6b4:	2c1f0000 	ldccs	0, cr0, [pc], {-0}
     6b8:	00000000 	andeq	r0, r0, r0
     6bc:	0001b21e 	andeq	fp, r1, lr, lsl r2
     6c0:	25240700 	strcs	r0, [r4, #-1792]!	; 0x700
     6c4:	d1000000 	mrsle	r0, (UNDEF: 0)
     6c8:	1f000006 	svcne	0x00000006
     6cc:	0000002c 	andeq	r0, r0, ip, lsr #32
     6d0:	03ea2100 	mvneq	r2, #0, 2
     6d4:	1d070000 	stcne	0, cr0, [r7, #-0]
     6d8:	000006e2 	andeq	r0, r0, r2, ror #13
     6dc:	00002c1f 	andeq	r2, r0, pc, lsl ip
     6e0:	81210000 	teqhi	r1, r0
     6e4:	07000002 	streq	r0, [r0, -r2]
     6e8:	0006f821 	andeq	pc, r6, r1, lsr #16
     6ec:	002c1f00 	eoreq	r1, ip, r0, lsl #30
     6f0:	2c1f0000 	ldccs	0, cr0, [pc], {-0}
     6f4:	00000000 	andeq	r0, r0, r0
     6f8:	00034921 	andeq	r4, r3, r1, lsr #18
     6fc:	09270700 	stmdbeq	r7!, {r8, r9, sl}
     700:	1f000007 	svcne	0x00000007
     704:	0000002c 	andeq	r0, r0, ip, lsr #32
     708:	00692100 	rsbeq	r2, r9, r0, lsl #2
     70c:	2a070000 	bcs	1c0714 <__bss_end__+0x1b4854>
     710:	0000071a 	andeq	r0, r0, sl, lsl r7
     714:	00002c1f 	andeq	r2, r0, pc, lsl ip
     718:	2b220000 	blcs	880720 <__bss_end__+0x874860>
     71c:	06000001 	streq	r0, [r0], -r1
     720:	028c221e 	addeq	r2, ip, #-536870911	; 0xe0000001
     724:	33080000 	movwcc	r0, #32768	; 0x8000
     728:	00001922 	andeq	r1, r0, r2, lsr #18
     72c:	220a0500 	andcs	r0, sl, #0, 10
     730:	0000021a 	andeq	r0, r0, sl, lsl r2
     734:	b4213108 	strtlt	r3, [r1], #-264	; 0x108
     738:	06000000 	streq	r0, [r0], -r0
     73c:	0007471f 	andeq	r4, r7, pc, lsl r7
     740:	07471f00 	strbeq	r1, [r7, -r0, lsl #30]
     744:	06000000 	streq	r0, [r0], -r0
     748:	00074d04 	andeq	r4, r7, r4, lsl #26
     74c:	00252300 	eoreq	r2, r5, r0, lsl #6
     750:	251f0000 	ldrcs	r0, [pc, #-0]	; 758 <_start-0x78a8>
     754:	00000000 	andeq	r0, r0, r0
     758:	00019100 	andeq	r9, r1, r0, lsl #2
     75c:	d4000400 	strle	r0, [r0], #-1024	; 0x400
     760:	04000001 	streq	r0, [r0], #-1
     764:	0002e301 	andeq	lr, r2, r1, lsl #6
     768:	045b0100 	ldrbeq	r0, [fp], #-256	; 0x100
     76c:	047d0000 	ldrbteq	r0, [sp], #-0
     770:	82900000 	addshi	r0, r0, #0
     774:	00580000 	subseq	r0, r8, r0
     778:	024c0000 	subeq	r0, ip, #0
     77c:	4c020000 	stcmi	0, cr0, [r2], {-0}
     780:	02000004 	andeq	r0, r0, #4
     784:	00003028 	andeq	r3, r0, r8, lsr #32
     788:	04730300 	ldrbteq	r0, [r3], #-768	; 0x300
     78c:	03040000 	movweq	r0, #16384	; 0x4000
     790:	00004700 	andeq	r4, r0, r0, lsl #14
     794:	04c10400 	strbeq	r0, [r1], #1024	; 0x400
     798:	00470000 	subeq	r0, r7, r0
     79c:	00000000 	andeq	r0, r0, r0
     7a0:	75020405 	strvc	r0, [r2, #-1029]	; 0x405
     7a4:	02000004 	andeq	r0, r0, #4
     7a8:	00002562 	andeq	r2, r0, r2, ror #10
     7ac:	05040600 	streq	r0, [r4, #-1536]	; 0x600
     7b0:	00746e69 	rsbseq	r6, r4, r9, ror #28
     7b4:	3d070407 	cfstrscc	mvf0, [r7, #-28]	; 0xffffffe4
     7b8:	07000000 	streq	r0, [r0, -r0]
     7bc:	02520601 	subseq	r0, r2, #1048576	; 0x100000
     7c0:	02070000 	andeq	r0, r7, #0
     7c4:	00027705 	andeq	r7, r2, r5, lsl #14
     7c8:	05040700 	streq	r0, [r4, #-1792]	; 0x700
     7cc:	0000007b 	andeq	r0, r0, fp, ror r0
     7d0:	76050807 	strvc	r0, [r5], -r7, lsl #16
     7d4:	07000000 	streq	r0, [r0, -r0]
     7d8:	02500801 	subseq	r0, r0, #65536	; 0x10000
     7dc:	02070000 	andeq	r0, r7, #0
     7e0:	00016307 	andeq	r6, r1, r7, lsl #6
     7e4:	07040700 	streq	r0, [r4, -r0, lsl #14]
     7e8:	00000038 	andeq	r0, r0, r8, lsr r0
     7ec:	33070807 	movwcc	r0, #30727	; 0x7807
     7f0:	07000000 	streq	r0, [r0, -r0]
     7f4:	01eb0704 	mvneq	r0, r4, lsl #14
     7f8:	04080000 	streq	r0, [r8], #-0
     7fc:	000000a7 	andeq	r0, r0, r7, lsr #1
     800:	59080107 	stmdbpl	r8, {r0, r1, r2, r8}
     804:	08000002 	stmdaeq	r0, {r1}
     808:	0000b404 	andeq	fp, r0, r4, lsl #8
     80c:	00a70900 	adceq	r0, r7, r0, lsl #18
     810:	6c0a0000 	stcvs	0, cr0, [sl], {-0}
     814:	01000004 	tsteq	r0, r4
     818:	00005406 	andeq	r5, r0, r6, lsl #8
     81c:	00829000 	addeq	r9, r2, r0
     820:	00005800 	andeq	r5, r0, r0, lsl #16
     824:	439c0100 	orrsmi	r0, ip, #0, 2
     828:	0b000001 	bleq	834 <_start-0x77cc>
     82c:	00746d66 	rsbseq	r6, r4, r6, ror #26
     830:	00ae0601 	adceq	r0, lr, r1, lsl #12
     834:	91020000 	mrsls	r0, (UNDEF: 2)
     838:	620d0c70 	andvs	r0, sp, #112, 24	; 0x7000
     83c:	01006675 	tsteq	r0, r5, ror r6
     840:	00014308 	andeq	r4, r1, r8, lsl #6
     844:	80030500 	andhi	r0, r3, r0, lsl #10
     848:	0e0000aa 	cdpeq	0, 0, cr0, cr0, cr10, {5}
     84c:	00000dda 	ldrdeq	r0, [r0], -sl
     850:	00490901 	subeq	r0, r9, r1, lsl #18
     854:	91020000 	mrsls	r0, (UNDEF: 2)
     858:	7a730f5c 	bvc	1cc45d0 <__bss_end__+0x1cb8710>
     85c:	540c0100 	strpl	r0, [ip], #-256	; 0x100
     860:	3c000000 	stccc	0, cr0, [r0], {-0}
     864:	10000003 	andne	r0, r0, r3
     868:	000082b8 			; <UNDEFINED> instruction: 0x000082b8
     86c:	00000174 	andeq	r0, r0, r4, ror r1
     870:	00000136 	andeq	r0, r0, r6, lsr r1
     874:	02530111 	subseq	r0, r3, #1073741828	; 0x40000004
     878:	01114c91 			; <UNDEFINED> instruction: 0x01114c91
     87c:	48910352 	ldmmi	r1, {r1, r4, r6, r8, r9}
     880:	51011106 	tstpl	r1, r6, lsl #2
     884:	04000a03 	streq	r0, [r0], #-2563	; 0xa03
     888:	02500111 	subseq	r0, r0, #1073741828	; 0x40000004
     88c:	12000074 	andne	r0, r0, #116	; 0x74
     890:	000082cc 	andeq	r8, r0, ip, asr #5
     894:	02500111 	subseq	r0, r0, #1073741828	; 0x40000004
     898:	00000074 	andeq	r0, r0, r4, ror r0
     89c:	0000a713 	andeq	sl, r0, r3, lsl r7
     8a0:	00015400 	andeq	r5, r1, r0, lsl #8
     8a4:	009a1400 	addseq	r1, sl, r0, lsl #8
     8a8:	03ff0000 	mvnseq	r0, #0
     8ac:	00541500 	subseq	r1, r4, r0, lsl #10
     8b0:	01630000 	cmneq	r3, r0
     8b4:	ae160000 	cdpge	0, 1, cr0, cr6, cr0, {0}
     8b8:	00000000 	andeq	r0, r0, r0
     8bc:	00050717 	andeq	r0, r5, r7, lsl r7
     8c0:	6e220400 	cdpvs	4, 2, cr0, cr2, cr0, {0}
     8c4:	08000001 	stmdaeq	r0, {r0}
     8c8:	00015404 	andeq	r5, r1, r4, lsl #8
     8cc:	04691800 	strbteq	r1, [r9], #-2048	; 0x800
     8d0:	02050000 	andeq	r0, r5, #0
     8d4:	00000054 	andeq	r0, r0, r4, asr r0
     8d8:	0000a116 	andeq	sl, r0, r6, lsl r1
     8dc:	00541600 	subseq	r1, r4, r0, lsl #12
     8e0:	ae160000 	cdpge	0, 1, cr0, cr6, cr0, {0}
     8e4:	16000000 	strne	r0, [r0], -r0
     8e8:	00000049 	andeq	r0, r0, r9, asr #32
     8ec:	01130000 	tsteq	r3, r0
     8f0:	00040000 	andeq	r0, r4, r0
     8f4:	00000305 	andeq	r0, r0, r5, lsl #6
     8f8:	02e30104 	rsceq	r0, r3, #4, 2
     8fc:	e3010000 	movw	r0, #4096	; 0x1000
     900:	7d000004 	stcvc	0, cr0, [r0, #-16]
     904:	e8000004 	stmda	r0, {r2}
     908:	3c000082 	stccc	0, cr0, [r0], {130}	; 0x82
     90c:	52000000 	andpl	r0, r0, #0
     910:	02000003 	andeq	r0, r0, #3
     914:	6e690504 	cdpvs	5, 6, cr0, cr9, cr4, {0}
     918:	04030074 	streq	r0, [r3], #-116	; 0x74
     91c:	00003d07 	andeq	r3, r0, r7, lsl #26
     920:	06010300 	streq	r0, [r1], -r0, lsl #6
     924:	00000252 	andeq	r0, r0, r2, asr r2
     928:	77050203 	strvc	r0, [r5, -r3, lsl #4]
     92c:	03000002 	movweq	r0, #2
     930:	007b0504 	rsbseq	r0, fp, r4, lsl #10
     934:	08030000 	stmdaeq	r3, {}	; <UNPREDICTABLE>
     938:	00007605 	andeq	r7, r0, r5, lsl #12
     93c:	08010300 	stmdaeq	r1, {r8, r9}
     940:	00000250 	andeq	r0, r0, r0, asr r2
     944:	63070203 	movwvs	r0, #29187	; 0x7203
     948:	03000001 	movweq	r0, #1
     94c:	00380704 	eorseq	r0, r8, r4, lsl #14
     950:	08030000 	stmdaeq	r3, {}	; <UNPREDICTABLE>
     954:	00003307 	andeq	r3, r0, r7, lsl #6
     958:	07040300 	streq	r0, [r4, -r0, lsl #6]
     95c:	000001eb 	andeq	r0, r0, fp, ror #3
     960:	59080103 	stmdbpl	r8, {r0, r1, r8}
     964:	04000002 	streq	r0, [r0], #-2
     968:	000004c6 	andeq	r0, r0, r6, asr #9
     96c:	00250301 	eoreq	r0, r5, r1, lsl #6
     970:	82e80000 	rschi	r0, r8, #0
     974:	00140000 	andseq	r0, r4, r0
     978:	9c010000 	stcls	0, cr0, [r1], {-0}
     97c:	000000b0 	strheq	r0, [r0], -r0	; <UNPREDICTABLE>
     980:	01006305 	tsteq	r0, r5, lsl #6
     984:	00002503 	andeq	r2, r0, r3, lsl #10
     988:	00036500 	andeq	r6, r3, r0, lsl #10
     98c:	82f40600 	rscshi	r0, r4, #0, 12
     990:	01090000 	mrseq	r0, (UNDEF: 9)
     994:	01070000 	mrseq	r0, (UNDEF: 7)
     998:	00740250 	rsbseq	r0, r4, r0, asr r2
     99c:	2b080000 	blcs	2009a4 <__bss_end__+0x1f4ae4>
     9a0:	01000001 	tsteq	r0, r1
     9a4:	0082fc08 	addeq	pc, r2, r8, lsl #24
     9a8:	00001800 	andeq	r1, r0, r0, lsl #16
     9ac:	099c0100 	ldmibeq	ip, {r8}
     9b0:	000000b4 	strheq	r0, [r0], -r4
     9b4:	83140b01 	tsthi	r4, #1024	; 0x400
     9b8:	00100000 	andseq	r0, r0, r0
     9bc:	9c010000 	stcls	0, cr0, [r1], {-0}
     9c0:	000000e3 	andeq	r0, r0, r3, ror #1
     9c4:	0070660a 	rsbseq	r6, r0, sl, lsl #12
     9c8:	00f20b01 	rscseq	r0, r2, r1, lsl #22
     9cc:	50010000 	andpl	r0, r1, r0
     9d0:	00250b00 	eoreq	r0, r5, r0, lsl #22
     9d4:	00f20000 	rscseq	r0, r2, r0
     9d8:	250c0000 	strcs	r0, [ip, #-0]
     9dc:	00000000 	andeq	r0, r0, r0
     9e0:	00e3040d 	rsceq	r0, r3, sp, lsl #8
     9e4:	d70e0000 	strle	r0, [lr, -r0]
     9e8:	01000004 	tsteq	r0, r4
     9ec:	0000f206 	andeq	pc, r0, r6, lsl #4
     9f0:	20030500 	andcs	r0, r3, r0, lsl #10
     9f4:	0f0000a3 	svceq	0x000000a3
     9f8:	0000062c 	andeq	r0, r0, ip, lsr #12
     9fc:	2c0c3c02 	stccs	12, cr3, [ip], {2}
     a00:	00000000 	andeq	r0, r0, r0
     a04:	0000ee00 	andeq	lr, r0, r0, lsl #28
     a08:	ed000400 	cfstrs	mvf0, [r0, #-0]
     a0c:	04000003 	streq	r0, [r0], #-3
     a10:	0002e301 	andeq	lr, r2, r1, lsl #6
     a14:	04f20100 	ldrbteq	r0, [r2], #256	; 0x100
     a18:	047d0000 	ldrbteq	r0, [sp], #-0
     a1c:	83240000 	teqhi	r4, #0
     a20:	00340000 	eorseq	r0, r4, r0
     a24:	03e00000 	mvneq	r0, #0
     a28:	04020000 	streq	r0, [r2], #-0
     a2c:	746e6905 	strbtvc	r6, [lr], #-2309	; 0x905
     a30:	07040300 	streq	r0, [r4, -r0, lsl #6]
     a34:	0000003d 	andeq	r0, r0, sp, lsr r0
     a38:	52060103 	andpl	r0, r6, #-1073741824	; 0xc0000000
     a3c:	03000002 	movweq	r0, #2
     a40:	02770502 	rsbseq	r0, r7, #8388608	; 0x800000
     a44:	04030000 	streq	r0, [r3], #-0
     a48:	00007b05 	andeq	r7, r0, r5, lsl #22
     a4c:	05080300 	streq	r0, [r8, #-768]	; 0x300
     a50:	00000076 	andeq	r0, r0, r6, ror r0
     a54:	50080103 	andpl	r0, r8, r3, lsl #2
     a58:	03000002 	movweq	r0, #2
     a5c:	01630702 	cmneq	r3, r2, lsl #14
     a60:	04030000 	streq	r0, [r3], #-0
     a64:	00003807 	andeq	r3, r0, r7, lsl #16
     a68:	07080300 	streq	r0, [r8, -r0, lsl #6]
     a6c:	00000033 	andeq	r0, r0, r3, lsr r0
     a70:	eb070403 	bl	1c1a84 <__bss_end__+0x1b5bc4>
     a74:	03000001 	movweq	r0, #1
     a78:	02590801 	subseq	r0, r9, #65536	; 0x10000
     a7c:	04040000 	streq	r0, [r4], #-0
     a80:	0000007f 	andeq	r0, r0, pc, ror r0
     a84:	00007205 	andeq	r7, r0, r5, lsl #4
     a88:	04fe0600 	ldrbteq	r0, [lr], #1536	; 0x600
     a8c:	04010000 	streq	r0, [r1], #-0
     a90:	00000025 	andeq	r0, r0, r5, lsr #32
     a94:	00008324 	andeq	r8, r0, r4, lsr #6
     a98:	00000034 	andeq	r0, r0, r4, lsr r0
     a9c:	00ab9c01 	adceq	r9, fp, r1, lsl #24
     aa0:	70070000 	andvc	r0, r7, r0
     aa4:	79040100 	stmdbvc	r4, {r8}
     aa8:	83000000 	movwhi	r0, #0
     aac:	00000003 	andeq	r0, r0, r3
     ab0:	00002508 	andeq	r2, r0, r8, lsl #10
     ab4:	0000ba00 	andeq	fp, r0, r0, lsl #20
     ab8:	00250900 	eoreq	r0, r5, r0, lsl #18
     abc:	0a000000 	beq	ac4 <_start-0x753c>
     ac0:	000004d7 	ldrdeq	r0, [r0], -r7
     ac4:	00c51d02 	sbceq	r1, r5, r2, lsl #26
     ac8:	04040000 	streq	r0, [r4], #-0
     acc:	000000ab 	andeq	r0, r0, fp, lsr #1
     ad0:	00002508 	andeq	r2, r0, r8, lsl #10
     ad4:	0000da00 	andeq	sp, r0, r0, lsl #20
     ad8:	00790900 	rsbseq	r0, r9, r0, lsl #18
     adc:	0b000000 	bleq	ae4 <_start-0x751c>
     ae0:	00000507 	andeq	r0, r0, r7, lsl #10
     ae4:	00eb0c01 	rsceq	r0, fp, r1, lsl #24
     ae8:	03050000 	movweq	r0, #20480	; 0x5000
     aec:	0000a324 	andeq	sl, r0, r4, lsr #6
     af0:	00cb0404 	sbceq	r0, fp, r4, lsl #8
     af4:	81000000 	mrshi	r0, (UNDEF: 0)
     af8:	04000006 	streq	r0, [r0], #-6
     afc:	00048600 	andeq	r8, r4, r0, lsl #12
     b00:	e3010400 	movw	r0, #5120	; 0x1400
     b04:	01000002 	tsteq	r0, r2
     b08:	00000533 	andeq	r0, r0, r3, lsr r5
     b0c:	0000047d 	andeq	r0, r0, sp, ror r4
     b10:	00008358 	andeq	r8, r0, r8, asr r3
     b14:	000004f8 	strdeq	r0, [r0], -r8
     b18:	0000047a 	andeq	r0, r0, sl, ror r4
     b1c:	69050402 	stmdbvs	r5, {r1, sl}
     b20:	0300746e 	movweq	r7, #1134	; 0x46e
     b24:	003d0704 	eorseq	r0, sp, r4, lsl #14
     b28:	01030000 	mrseq	r0, (UNDEF: 3)
     b2c:	00025206 	andeq	r5, r2, r6, lsl #4
     b30:	05020300 	streq	r0, [r2, #-768]	; 0x300
     b34:	00000277 	andeq	r0, r0, r7, ror r2
     b38:	7b050403 	blvc	141b4c <__bss_end__+0x135c8c>
     b3c:	03000000 	movweq	r0, #0
     b40:	00760508 	rsbseq	r0, r6, r8, lsl #10
     b44:	01030000 	mrseq	r0, (UNDEF: 3)
     b48:	00025008 	andeq	r5, r2, r8
     b4c:	07020300 	streq	r0, [r2, -r0, lsl #6]
     b50:	00000163 	andeq	r0, r0, r3, ror #2
     b54:	38070403 	stmdacc	r7, {r0, r1, sl}
     b58:	03000000 	movweq	r0, #0
     b5c:	00330708 	eorseq	r0, r3, r8, lsl #14
     b60:	04030000 	streq	r0, [r3], #-0
     b64:	0001eb07 	andeq	lr, r1, r7, lsl #22
     b68:	05040400 	streq	r0, [r4, #-1024]	; 0x400
     b6c:	00007a04 	andeq	r7, r0, r4, lsl #20
     b70:	08010300 	stmdaeq	r1, {r8, r9}
     b74:	00000259 	andeq	r0, r0, r9, asr r2
     b78:	00870405 	addeq	r0, r7, r5, lsl #8
     b7c:	7a060000 	bvc	180b84 <__bss_end__+0x174cc4>
     b80:	07000000 	streq	r0, [r0, -r0]
     b84:	0000044c 	andeq	r0, r0, ip, asr #8
     b88:	00972802 	addseq	r2, r7, r2, lsl #16
     b8c:	73080000 	movwvc	r0, #32768	; 0x8000
     b90:	04000004 	streq	r0, [r0], #-4
     b94:	00ae0004 	adceq	r0, lr, r4
     b98:	c1090000 	mrsgt	r0, (UNDEF: 9)
     b9c:	72000004 	andvc	r0, r0, #4
     ba0:	00000000 	andeq	r0, r0, r0
     ba4:	04750700 	ldrbteq	r0, [r5], #-1792	; 0x700
     ba8:	62020000 	andvs	r0, r2, #0
     bac:	0000008c 	andeq	r0, r0, ip, lsl #1
     bb0:	00051a0a 	andeq	r1, r5, sl, lsl #20
     bb4:	25270100 	strcs	r0, [r7, #-256]!	; 0x100
     bb8:	58000000 	stmdapl	r0, {}	; <UNPREDICTABLE>
     bbc:	14000083 	strne	r0, [r0], #-131	; 0x83
     bc0:	01000000 	mrseq	r0, (UNDEF: 0)
     bc4:	0000e09c 	muleq	r0, ip, r0
     bc8:	00630b00 	rsbeq	r0, r3, r0, lsl #22
     bcc:	00252701 	eoreq	r2, r5, r1, lsl #14
     bd0:	03a10000 			; <UNDEFINED> instruction: 0x03a10000
     bd4:	0c000000 	stceq	0, cr0, [r0], {-0}
     bd8:	00646170 	rsbeq	r6, r4, r0, ror r1
     bdc:	00742e01 	rsbseq	r2, r4, r1, lsl #28
     be0:	836c0000 	cmnhi	ip, #0
     be4:	002c0000 	eoreq	r0, ip, r0
     be8:	9c010000 	stcls	0, cr0, [r1], {-0}
     bec:	00000130 	andeq	r0, r0, r0, lsr r1
     bf0:	0100700b 	tsteq	r0, fp
     bf4:	0000742e 	andeq	r7, r0, lr, lsr #8
     bf8:	0003cf00 	andeq	ip, r3, r0, lsl #30
     bfc:	0db80d00 	ldceq	13, cr0, [r8]
     c00:	2e010000 	cdpcs	0, 0, cr0, cr1, cr0, {0}
     c04:	00000074 	andeq	r0, r0, r4, ror r0
     c08:	000003fa 	strdeq	r0, [r0], -sl
     c0c:	0005530e 	andeq	r5, r5, lr, lsl #6
     c10:	252e0100 	strcs	r0, [lr, #-256]!	; 0x100
     c14:	01000000 	mrseq	r0, (UNDEF: 0)
     c18:	656c0f52 	strbvs	r0, [ip, #-3922]!	; 0xf52
     c1c:	2f01006e 	svccs	0x0001006e
     c20:	00000025 	andeq	r0, r0, r5, lsr #32
     c24:	0a005101 	beq	15030 <__bss_end__+0x9170>
     c28:	00000512 	andeq	r0, r0, r2, lsl r5
     c2c:	00743701 	rsbseq	r3, r4, r1, lsl #14
     c30:	83980000 	orrshi	r0, r8, #0
     c34:	00400000 	subeq	r0, r0, r0
     c38:	9c010000 	stcls	0, cr0, [r1], {-0}
     c3c:	0000019c 	muleq	r0, ip, r1
     c40:	7473640b 	ldrbtvc	r6, [r3], #-1035	; 0x40b
     c44:	74370100 	ldrtvc	r0, [r7], #-256	; 0x100
     c48:	1b000000 	blne	c50 <_start-0x73b0>
     c4c:	0b000004 	bleq	c64 <_start-0x739c>
     c50:	3701006e 	strcc	r0, [r1, -lr, rrx]
     c54:	00000025 	andeq	r0, r0, r5, lsr #32
     c58:	00000453 	andeq	r0, r0, r3, asr r4
     c5c:	0100700b 	tsteq	r0, fp
     c60:	00007437 	andeq	r7, r0, r7, lsr r4
     c64:	00047400 	andeq	r7, r4, r0, lsl #8
     c68:	06180d00 	ldreq	r0, [r8], -r0, lsl #26
     c6c:	37010000 	strcc	r0, [r1, -r0]
     c70:	00000074 	andeq	r0, r0, r4, ror r0
     c74:	000004aa 	andeq	r0, r0, sl, lsr #9
     c78:	6e656c10 	mcrvs	12, 3, r6, cr5, cr0, {0}
     c7c:	25390100 	ldrcs	r0, [r9, #-256]!	; 0x100
     c80:	c8000000 	stmdagt	r0, {}	; <UNPREDICTABLE>
     c84:	0f000004 	svceq	0x00000004
     c88:	3d010073 	stccc	0, cr0, [r1, #-460]	; 0xfffffe34
     c8c:	00000074 	andeq	r0, r0, r4, ror r0
     c90:	0a005001 	beq	14c9c <__bss_end__+0x8ddc>
     c94:	00000561 	andeq	r0, r0, r1, ror #10
     c98:	00744701 	rsbseq	r4, r4, r1, lsl #14
     c9c:	83d80000 	bicshi	r0, r8, #0
     ca0:	019c0000 	orrseq	r0, ip, r0
     ca4:	9c010000 	stcls	0, cr0, [r1], {-0}
     ca8:	000002d3 	ldrdeq	r0, [r0], -r3
     cac:	000db80d 	andeq	fp, sp, sp, lsl #16
     cb0:	2c470100 	stfcse	f0, [r7], {-0}
     cb4:	ef000000 	svc	0x00000000
     cb8:	0b000004 	bleq	cd0 <_start-0x7330>
     cbc:	00747364 	rsbseq	r7, r4, r4, ror #6
     cc0:	00744701 	rsbseq	r4, r4, r1, lsl #14
     cc4:	051d0000 	ldreq	r0, [sp, #-0]
     cc8:	6e0b0000 	cdpvs	0, 0, cr0, cr11, cr0, {0}
     ccc:	25470100 	strbcs	r0, [r7, #-256]	; 0x100
     cd0:	8b000000 	blhi	cd8 <_start-0x7328>
     cd4:	0b000005 	bleq	cf0 <_start-0x7310>
     cd8:	006c6176 	rsbeq	r6, ip, r6, ror r1
     cdc:	00254701 	eoreq	r4, r5, r1, lsl #14
     ce0:	05b70000 	ldreq	r0, [r7, #0]!
     ce4:	530d0000 	movwpl	r0, #53248	; 0xd000
     ce8:	01000005 	tsteq	r0, r5
     cec:	00002547 	andeq	r2, r0, r7, asr #10
     cf0:	00063600 	andeq	r3, r6, r0, lsl #12
     cf4:	052a0e00 	streq	r0, [sl, #-3584]!	; 0xe00
     cf8:	47010000 	strmi	r0, [r1, -r0]
     cfc:	00000025 	andeq	r0, r0, r5, lsr #32
     d00:	0f049102 	svceq	0x00049102
     d04:	00667562 	rsbeq	r7, r6, r2, ror #10
     d08:	02d34c01 	sbcseq	r4, r3, #256	; 0x100
     d0c:	91030000 	mrsls	r0, (UNDEF: 3)
     d10:	70107fa8 	andsvc	r7, r0, r8, lsr #31
     d14:	744c0100 	strbvc	r0, [ip], #-256	; 0x100
     d18:	60000000 	andvs	r0, r0, r0
     d1c:	10000006 	andne	r0, r0, r6
     d20:	4d010075 	stcmi	0, cr0, [r1, #-468]	; 0xfffffe2c
     d24:	0000002c 	andeq	r0, r0, ip, lsr #32
     d28:	00000705 	andeq	r0, r0, r5, lsl #14
     d2c:	00013a11 	andeq	r3, r1, r1, lsl sl
     d30:	0002f300 	andeq	pc, r2, r0, lsl #6
     d34:	44030500 	strmi	r0, [r3], #-1280	; 0x500
     d38:	120000a4 	andne	r0, r0, #164	; 0xa4
     d3c:	00008444 	andeq	r8, r0, r4, asr #8
     d40:	00000074 	andeq	r0, r0, r4, ror r0
     d44:	00000261 	andeq	r0, r0, r1, ror #4
     d48:	00050c13 	andeq	r0, r5, r3, lsl ip
     d4c:	2c520100 	ldfcse	f0, [r2], {-0}
     d50:	0a000000 	beq	d58 <_start-0x72a8>
     d54:	00000008 	andeq	r0, r0, r8
     d58:	00851814 	addeq	r1, r5, r4, lsl r8
     d5c:	00066000 	andeq	r6, r6, r0
     d60:	852c1500 	strhi	r1, [ip, #-1280]!	; 0x500
     d64:	06670000 	strbteq	r0, [r7], -r0
     d68:	02990000 	addseq	r0, r9, #0
     d6c:	01160000 	tsteq	r6, r0
     d70:	75080253 	strvc	r0, [r8, #-595]	; 0x253
     d74:	05520116 	ldrbeq	r0, [r2, #-278]	; 0x116
     d78:	00a44403 	adceq	r4, r4, r3, lsl #8
     d7c:	51011600 	tstpl	r1, r0, lsl #12
     d80:	a47c0305 	ldrbtge	r0, [ip], #-773	; 0x305
     d84:	01160000 	tsteq	r6, r0
     d88:	68030550 	stmdavs	r3, {r4, r6, r8, sl}
     d8c:	000000a4 	andeq	r0, r0, r4, lsr #1
     d90:	00853014 	addeq	r3, r5, r4, lsl r0
     d94:	00067d00 	andeq	r7, r6, r0, lsl #26
     d98:	853c1500 	ldrhi	r1, [ip, #-1280]!	; 0x500
     d9c:	00e00000 	rsceq	r0, r0, r0
     da0:	02b60000 	adcseq	r0, r6, #0
     da4:	01160000 	tsteq	r6, r0
     da8:	007d0251 	rsbseq	r0, sp, r1, asr r2
     dac:	85501700 	ldrbhi	r1, [r0, #-1792]	; 0x700
     db0:	01300000 	teqeq	r0, r0
     db4:	01160000 	tsteq	r6, r0
     db8:	007d0253 	rsbseq	r0, sp, r3, asr r2
     dbc:	02510116 	subseq	r0, r1, #-2147483643	; 0x80000005
     dc0:	01160074 	tsteq	r6, r4, ror r0
     dc4:	00750250 	rsbseq	r0, r5, r0, asr r2
     dc8:	7a180000 	bvc	600dd0 <__bss_end__+0x5f4f10>
     dcc:	e3000000 	movw	r0, #0
     dd0:	19000002 	stmdbne	r0, {r1}
     dd4:	0000006b 	andeq	r0, r0, fp, rrx
     dd8:	7a18003f 	bvc	600edc <__bss_end__+0x5f501c>
     ddc:	f3000000 	vhadd.u8	d0, d0, d0
     de0:	19000002 	stmdbne	r0, {r1}
     de4:	0000006b 	andeq	r0, r0, fp, rrx
     de8:	e3060004 	movw	r0, #24580	; 0x6004
     dec:	1a000002 	bne	dfc <_start-0x7204>
     df0:	00000544 	andeq	r0, r0, r4, asr #10
     df4:	85741f01 	ldrbhi	r1, [r4, #-3841]!	; 0xf01
     df8:	00540000 	subseq	r0, r4, r0
     dfc:	9c010000 	stcls	0, cr0, [r1], {-0}
     e00:	0000037c 	andeq	r0, r0, ip, ror r3
     e04:	0005590d 	andeq	r5, r5, sp, lsl #18
     e08:	8b1f0100 	blhi	7c1210 <__bss_end__+0x7b5350>
     e0c:	36000003 	strcc	r0, [r0], -r3
     e10:	0d000008 	stceq	0, cr0, [r0, #-32]	; 0xffffffe0
     e14:	00000522 	andeq	r0, r0, r2, lsr #10
     e18:	03a01f01 	moveq	r1, #1, 30
     e1c:	08620000 	stmdaeq	r2!, {}^	; <UNPREDICTABLE>
     e20:	3a110000 	bcc	440e28 <__bss_end__+0x434f68>
     e24:	b6000001 	strlt	r0, [r0], -r1
     e28:	05000003 	streq	r0, [r0, #-3]
     e2c:	00a44c03 	adceq	r4, r4, r3, lsl #24
     e30:	85841400 	strhi	r1, [r4, #1024]	; 0x400
     e34:	06600000 	strbteq	r0, [r0], -r0
     e38:	98150000 	ldmdals	r5, {}	; <UNPREDICTABLE>
     e3c:	67000085 	strvs	r0, [r0, -r5, lsl #1]
     e40:	72000006 	andvc	r0, r0, #6
     e44:	16000003 	strne	r0, [r0], -r3
     e48:	08025301 	stmdaeq	r2, {r0, r8, r9, ip, lr}
     e4c:	52011620 	andpl	r1, r1, #32, 12	; 0x2000000
     e50:	a44c0305 	strbge	r0, [ip], #-773	; 0x305
     e54:	01160000 	tsteq	r6, r0
     e58:	7c030551 	cfstr32vc	mvfx0, [r3], {81}	; 0x51
     e5c:	160000a4 	strne	r0, [r0], -r4, lsr #1
     e60:	03055001 	movweq	r5, #20481	; 0x5001
     e64:	0000a4b4 			; <UNDEFINED> instruction: 0x0000a4b4
     e68:	859c1400 	ldrhi	r1, [ip, #1024]	; 0x400
     e6c:	067d0000 	ldrbteq	r0, [sp], -r0
     e70:	1b000000 	blne	e78 <_start-0x7188>
     e74:	00000025 	andeq	r0, r0, r5, lsr #32
     e78:	0000038b 	andeq	r0, r0, fp, lsl #7
     e7c:	0000251c 	andeq	r2, r0, ip, lsl r5
     e80:	04050000 	streq	r0, [r5], #-0
     e84:	0000037c 	andeq	r0, r0, ip, ror r3
     e88:	0000251b 	andeq	r2, r0, fp, lsl r5
     e8c:	0003a000 	andeq	sl, r3, r0
     e90:	00811c00 	addeq	r1, r1, r0, lsl #24
     e94:	05000000 	streq	r0, [r0, #-0]
     e98:	00039104 	andeq	r9, r3, r4, lsl #2
     e9c:	007a1800 	rsbseq	r1, sl, r0, lsl #16
     ea0:	03b60000 			; <UNDEFINED> instruction: 0x03b60000
     ea4:	6b190000 	blvs	640eac <__bss_end__+0x634fec>
     ea8:	0e000000 	cdpeq	0, 0, cr0, cr0, cr0, {0}
     eac:	03a60600 			; <UNDEFINED> instruction: 0x03a60600
     eb0:	691d0000 	ldmdbvs	sp, {}	; <UNPREDICTABLE>
     eb4:	01000004 	tsteq	r0, r4
     eb8:	0000257d 	andeq	r2, r0, sp, ror r5
     ebc:	0085c800 	addeq	ip, r5, r0, lsl #16
     ec0:	00028800 	andeq	r8, r2, r0, lsl #16
     ec4:	259c0100 	ldrcs	r0, [ip, #256]	; 0x100
     ec8:	0b000006 	bleq	ee8 <_start-0x7118>
     ecc:	00667562 	rsbeq	r7, r6, r2, ror #10
     ed0:	00747d01 	rsbseq	r7, r4, r1, lsl #26
     ed4:	088e0000 	stmeq	lr, {}	; <UNPREDICTABLE>
     ed8:	6e0b0000 	cdpvs	0, 0, cr0, cr11, cr0, {0}
     edc:	257d0100 	ldrbcs	r0, [sp, #-256]!	; 0x100
     ee0:	ba000000 	blt	ee8 <_start-0x7118>
     ee4:	0b000008 	bleq	f0c <_start-0x70f4>
     ee8:	00746d66 	rsbseq	r6, r4, r6, ror #26
     eec:	00817d01 	addeq	r7, r1, r1, lsl #26
     ef0:	08e80000 	stmiaeq	r8!, {}^	; <UNPREDICTABLE>
     ef4:	da0d0000 	ble	340efc <__bss_end__+0x33503c>
     ef8:	0100000d 	tsteq	r0, sp
     efc:	0000ae7d 	andeq	sl, r0, sp, ror lr
     f00:	00091c00 	andeq	r1, r9, r0, lsl #24
     f04:	00701000 	rsbseq	r1, r0, r0
     f08:	00747e01 	rsbseq	r7, r4, r1, lsl #28
     f0c:	092f0000 	stmdbeq	pc!, {}	; <UNPREDICTABLE>
     f10:	65100000 	ldrvs	r0, [r0, #-0]
     f14:	747e0100 	ldrbtvc	r0, [lr], #-256	; 0x100
     f18:	ad000000 	stcge	0, cr0, [r0, #-0]
     f1c:	11000009 	tstne	r0, r9
     f20:	0000013a 	andeq	r0, r0, sl, lsr r1
     f24:	00000635 	andeq	r0, r0, r5, lsr r6
     f28:	a45c0305 	ldrbge	r0, [ip], #-773	; 0x305
     f2c:	001e0000 	andseq	r0, lr, r0
     f30:	10000000 	andne	r0, r0, r0
     f34:	8b010073 	blhi	41108 <__bss_end__+0x35248>
     f38:	00000074 	andeq	r0, r0, r4, ror r0
     f3c:	000009d4 	ldrdeq	r0, [r0], -r4
     f40:	6d756e0f 	ldclvs	14, cr6, [r5, #-60]!	; 0xffffffc4
     f44:	3a8b0100 	bcc	fe2c134c <__bss_end__+0xfe2b548c>
     f48:	03000006 	movweq	r0, #6
     f4c:	137ed891 	cmnne	lr, #9502720	; 0x910000
     f50:	00000553 	andeq	r0, r0, r3, asr r5
     f54:	002c8c01 	eoreq	r8, ip, r1, lsl #24
     f58:	0a290000 	beq	a40f60 <__bss_end__+0xa350a0>
     f5c:	4c150000 	ldcmi	0, cr0, [r5], {-0}
     f60:	b9000086 	stmdblt	r0, {r1, r2, r7}
     f64:	7b000000 	blvc	f6c <_start-0x7094>
     f68:	16000004 	strne	r0, [r0], -r4
     f6c:	75025001 	strvc	r5, [r2, #-1]
     f70:	60140000 	andsvs	r0, r4, r0
     f74:	60000086 	andvs	r0, r0, r6, lsl #1
     f78:	15000006 	strne	r0, [r0, #-6]
     f7c:	00008674 	andeq	r8, r0, r4, ror r6
     f80:	00000667 	andeq	r0, r0, r7, ror #12
     f84:	000004b3 			; <UNDEFINED> instruction: 0x000004b3
     f88:	02530116 	subseq	r0, r3, #-2147483643	; 0x80000005
     f8c:	01169208 	tsteq	r6, r8, lsl #4
     f90:	5c030552 	cfstr32pl	mvfx0, [r3], {82}	; 0x52
     f94:	160000a4 	strne	r0, [r0], -r4, lsr #1
     f98:	03055101 	movweq	r5, #20737	; 0x5101
     f9c:	0000a47c 	andeq	sl, r0, ip, ror r4
     fa0:	05500116 	ldrbeq	r0, [r0, #-278]	; 0x116
     fa4:	00a4cc03 	adceq	ip, r4, r3, lsl #24
     fa8:	78140000 	ldmdavc	r4, {}	; <UNPREDICTABLE>
     fac:	7d000086 	stcvc	0, cr0, [r0, #-536]	; 0xfffffde8
     fb0:	14000006 	strne	r0, [r0], #-6
     fb4:	000086e8 	andeq	r8, r0, r8, ror #13
     fb8:	00000660 	andeq	r0, r0, r0, ror #12
     fbc:	0086fc15 	addeq	pc, r6, r5, lsl ip	; <UNPREDICTABLE>
     fc0:	00066700 	andeq	r6, r6, r0, lsl #14
     fc4:	0004f400 	andeq	pc, r4, r0, lsl #8
     fc8:	53011600 	movwpl	r1, #5632	; 0x1600
     fcc:	16980802 	ldrne	r0, [r8], r2, lsl #16
     fd0:	03055201 	movweq	r5, #20993	; 0x5201
     fd4:	0000a45c 	andeq	sl, r0, ip, asr r4
     fd8:	05510116 	ldrbeq	r0, [r1, #-278]	; 0x116
     fdc:	00a47c03 	adceq	r7, r4, r3, lsl #24
     fe0:	50011600 	andpl	r1, r1, r0, lsl #12
     fe4:	a4e80305 	strbtge	r0, [r8], #773	; 0x305
     fe8:	14000000 	strne	r0, [r0], #-0
     fec:	00008700 	andeq	r8, r0, r0, lsl #14
     ff0:	0000067d 	andeq	r0, r0, sp, ror r6
     ff4:	00872415 	addeq	r2, r7, r5, lsl r4
     ff8:	00019c00 	andeq	r9, r1, r0, lsl #24
     ffc:	00052a00 	andeq	r2, r5, r0, lsl #20
    1000:	52011600 	andpl	r1, r1, #0, 12
    1004:	16800802 	strne	r0, [r0], r2, lsl #16
    1008:	91035101 	tstls	r3, r1, lsl #2
    100c:	01167ed0 			; <UNDEFINED> instruction: 0x01167ed0
    1010:	163a0150 			; <UNDEFINED> instruction: 0x163a0150
    1014:	01047d02 	tsteq	r4, r2, lsl #26
    1018:	7d021631 	stcvc	6, cr1, [r2, #-196]	; 0xffffff3c
    101c:	00770200 	rsbseq	r0, r7, r0, lsl #4
    1020:	87481500 	strbhi	r1, [r8, -r0, lsl #10]
    1024:	019c0000 	orrseq	r0, ip, r0
    1028:	05580000 	ldrbeq	r0, [r8, #-0]
    102c:	01160000 	tsteq	r6, r0
    1030:	80080252 	andhi	r0, r8, r2, asr r2
    1034:	03510116 	cmpeq	r1, #-2147483643	; 0x80000005
    1038:	167ed091 			; <UNDEFINED> instruction: 0x167ed091
    103c:	3a015001 	bcc	55048 <__bss_end__+0x49188>
    1040:	047d0216 	ldrbteq	r0, [sp], #-534	; 0x216
    1044:	16007b02 	strne	r7, [r0], -r2, lsl #22
    1048:	02007d02 	andeq	r7, r0, #2, 26	; 0x80
    104c:	15000077 	strne	r0, [r0, #-119]	; 0x77
    1050:	0000876c 	andeq	r8, r0, ip, ror #14
    1054:	0000019c 	muleq	r0, ip, r1
    1058:	00000586 	andeq	r0, r0, r6, lsl #11
    105c:	02520116 	subseq	r0, r2, #-2147483643	; 0x80000005
    1060:	01168008 	tsteq	r6, r8
    1064:	d0910351 	addsle	r0, r1, r1, asr r3
    1068:	5001167e 	andpl	r1, r1, lr, ror r6
    106c:	02164001 	andseq	r4, r6, #1
    1070:	7b02047d 	blvc	8226c <__bss_end__+0x763ac>
    1074:	7d021600 	stcvc	6, cr1, [r2, #-0]
    1078:	00770200 	rsbseq	r0, r7, r0, lsl #4
    107c:	87901500 	ldrhi	r1, [r0, r0, lsl #10]
    1080:	019c0000 	orrseq	r0, ip, r0
    1084:	05b40000 	ldreq	r0, [r4, #0]!
    1088:	01160000 	tsteq	r6, r0
    108c:	80080252 	andhi	r0, r8, r2, asr r2
    1090:	03510116 	cmpeq	r1, #-2147483643	; 0x80000005
    1094:	167ed091 			; <UNDEFINED> instruction: 0x167ed091
    1098:	32015001 	andcc	r5, r1, #1
    109c:	047d0216 	ldrbteq	r0, [sp], #-534	; 0x216
    10a0:	16007b02 	strne	r7, [r0], -r2, lsl #22
    10a4:	02007d02 	andeq	r7, r0, #2, 26	; 0x80
    10a8:	15000077 	strne	r0, [r0, #-119]	; 0x77
    10ac:	000087c0 	andeq	r8, r0, r0, asr #15
    10b0:	0000019c 	muleq	r0, ip, r1
    10b4:	000005e2 	andeq	r0, r0, r2, ror #11
    10b8:	02520116 	subseq	r0, r2, #-2147483643	; 0x80000005
    10bc:	01168008 	tsteq	r6, r8
    10c0:	d0910351 	addsle	r0, r1, r1, asr r3
    10c4:	5001167e 	andpl	r1, r1, lr, ror r6
    10c8:	02163801 	andseq	r3, r6, #65536	; 0x10000
    10cc:	7b02047d 	blvc	822c8 <__bss_end__+0x76408>
    10d0:	7d021600 	stcvc	6, cr1, [r2, #-0]
    10d4:	00770200 	rsbseq	r0, r7, r0, lsl #4
    10d8:	87c81400 	strbhi	r1, [r8, r0, lsl #8]
    10dc:	06600000 	strbteq	r0, [r0], -r0
    10e0:	e4150000 	ldr	r0, [r5], #-0
    10e4:	67000087 	strvs	r0, [r0, -r7, lsl #1]
    10e8:	1a000006 	bne	1108 <_start-0x6ef8>
    10ec:	16000006 	strne	r0, [r0], -r6
    10f0:	08025301 	stmdaeq	r2, {r0, r8, r9, ip, lr}
    10f4:	520116b9 	andpl	r1, r1, #193986560	; 0xb900000
    10f8:	a45c0305 	ldrbge	r0, [ip], #-773	; 0x305
    10fc:	01160000 	tsteq	r6, r0
    1100:	7c030551 	cfstr32vc	mvfx0, [r3], {81}	; 0x51
    1104:	160000a4 	strne	r0, [r0], -r4, lsr #1
    1108:	03055001 	movweq	r5, #20481	; 0x5001
    110c:	0000a510 	andeq	sl, r0, r0, lsl r5
    1110:	87e81400 	strbhi	r1, [r8, r0, lsl #8]!
    1114:	067d0000 	ldrbteq	r0, [sp], -r0
    1118:	00000000 	andeq	r0, r0, r0
    111c:	00007a18 	andeq	r7, r0, r8, lsl sl
    1120:	00063500 	andeq	r3, r6, r0, lsl #10
    1124:	006b1900 	rsbeq	r1, fp, r0, lsl #18
    1128:	00090000 	andeq	r0, r9, r0
    112c:	00062506 	andeq	r2, r6, r6, lsl #10
    1130:	007a1800 	rsbseq	r1, sl, r0, lsl #16
    1134:	064a0000 	strbeq	r0, [sl], -r0
    1138:	6b190000 	blvs	641140 <__bss_end__+0x635280>
    113c:	7f000000 	svcvc	0x00000000
    1140:	04d71f00 	ldrbeq	r1, [r7], #3840	; 0xf00
    1144:	1d030000 	stcne	0, cr0, [r3, #-0]
    1148:	0000038b 	andeq	r0, r0, fp, lsl #7
    114c:	0005071f 	andeq	r0, r5, pc, lsl r7
    1150:	a0220300 	eorge	r0, r2, r0, lsl #6
    1154:	20000003 	andcs	r0, r0, r3
    1158:	0000012b 	andeq	r0, r0, fp, lsr #2
    115c:	6c211e03 	stcvs	14, cr1, [r1], #-12
    1160:	03000004 	movweq	r0, #4
    1164:	00002529 	andeq	r2, r0, r9, lsr #10
    1168:	00067d00 	andeq	r7, r6, r0, lsl #26
    116c:	00811c00 	addeq	r1, r1, r0, lsl #24
    1170:	00220000 	eoreq	r0, r2, r0
    1174:	0001bc20 	andeq	fp, r1, r0, lsr #24
    1178:	00660300 	rsbeq	r0, r6, r0, lsl #6
    117c:	000000ff 	strdeq	r0, [r0], -pc	; <UNPREDICTABLE>
    1180:	06620004 	strbteq	r0, [r2], -r4
    1184:	01040000 	mrseq	r0, (UNDEF: 4)
    1188:	000002e3 	andeq	r0, r0, r3, ror #5
    118c:	00057101 	andeq	r7, r5, r1, lsl #2
    1190:	00047d00 	andeq	r7, r4, r0, lsl #26
    1194:	00885000 	addeq	r5, r8, r0
    1198:	00002800 	andeq	r2, r0, r0, lsl #16
    119c:	00065c00 	andeq	r5, r6, r0, lsl #24
    11a0:	05040200 	streq	r0, [r4, #-512]	; 0x200
    11a4:	00746e69 	rsbseq	r6, r4, r9, ror #28
    11a8:	3d070403 	cfstrscc	mvf0, [r7, #-12]
    11ac:	03000000 	movweq	r0, #0
    11b0:	02520601 	subseq	r0, r2, #1048576	; 0x100000
    11b4:	02030000 	andeq	r0, r3, #0
    11b8:	00027705 	andeq	r7, r2, r5, lsl #14
    11bc:	05040300 	streq	r0, [r4, #-768]	; 0x300
    11c0:	0000007b 	andeq	r0, r0, fp, ror r0
    11c4:	76050803 	strvc	r0, [r5], -r3, lsl #16
    11c8:	03000000 	movweq	r0, #0
    11cc:	02500801 	subseq	r0, r0, #65536	; 0x10000
    11d0:	02030000 	andeq	r0, r3, #0
    11d4:	00016307 	andeq	r6, r1, r7, lsl #6
    11d8:	07040300 	streq	r0, [r4, -r0, lsl #6]
    11dc:	00000038 	andeq	r0, r0, r8, lsr r0
    11e0:	33070803 	movwcc	r0, #30723	; 0x7803
    11e4:	03000000 	movweq	r0, #0
    11e8:	01eb0704 	mvneq	r0, r4, lsl #14
    11ec:	01030000 	mrseq	r0, (UNDEF: 3)
    11f0:	00025908 	andeq	r5, r2, r8, lsl #18
    11f4:	7f040400 	svcvc	0x00040400
    11f8:	05000000 	streq	r0, [r0, #-0]
    11fc:	00000072 	andeq	r0, r0, r2, ror r0
    1200:	0001bc06 	andeq	fp, r1, r6, lsl #24
    1204:	50040100 	andpl	r0, r4, r0, lsl #2
    1208:	28000088 	stmdacs	r0, {r3, r7}
    120c:	01000000 	mrseq	r0, (UNDEF: 0)
    1210:	0000ca9c 	muleq	r0, ip, sl
    1214:	88640700 	stmdahi	r4!, {r8, r9, sl}^
    1218:	00ac0000 	adceq	r0, ip, r0
    121c:	01080000 	mrseq	r0, (UNDEF: 8)
    1220:	48030550 	stmdami	r3, {r4, r6, r8, sl}
    1224:	000000a5 	andeq	r0, r0, r5, lsr #1
    1228:	00886c09 	addeq	r6, r8, r9, lsl #24
    122c:	0000ea00 	andeq	lr, r0, r0, lsl #20
    1230:	0000c000 	andeq	ip, r0, r0
    1234:	50010800 	andpl	r0, r1, r0, lsl #16
    1238:	00640802 	rsbeq	r0, r4, r2, lsl #16
    123c:	0088700a 	addeq	r7, r8, sl
    1240:	0000fb00 	andeq	pc, r0, r0, lsl #22
    1244:	250b0000 	strcs	r0, [fp, #-0]
    1248:	d9000000 	stmdble	r0, {}	; <UNPREDICTABLE>
    124c:	0c000000 	stceq	0, cr0, [r0], {-0}
    1250:	00000079 	andeq	r0, r0, r9, ror r0
    1254:	05070d00 	streq	r0, [r7, #-3328]	; 0xd00
    1258:	22020000 	andcs	r0, r2, #0
    125c:	000000e4 	andeq	r0, r0, r4, ror #1
    1260:	00ca0404 	sbceq	r0, sl, r4, lsl #8
    1264:	aa0e0000 	bge	38126c <__bss_end__+0x3753ac>
    1268:	02000002 	andeq	r0, r0, #2
    126c:	0000fb50 	andeq	pc, r0, r0, asr fp	; <UNPREDICTABLE>
    1270:	002c0c00 	eoreq	r0, ip, r0, lsl #24
    1274:	0f000000 	svceq	0x00000000
    1278:	00000566 	andeq	r0, r0, r6, ror #10
    127c:	dd006302 	stcle	3, cr6, [r0, #-8]
    1280:	04000002 	streq	r0, [r0], #-2
    1284:	00072c00 	andeq	r2, r7, r0, lsl #24
    1288:	e3010400 	movw	r0, #5120	; 0x1400
    128c:	01000002 	tsteq	r0, r2
    1290:	00000665 	andeq	r0, r0, r5, ror #12
    1294:	0000047d 	andeq	r0, r0, sp, ror r4
    1298:	00008878 	andeq	r8, r0, r8, ror r8
    129c:	000000b0 	strheq	r0, [r0], -r0	; <UNPREDICTABLE>
    12a0:	000006f3 	strdeq	r0, [r0], -r3
    12a4:	69050402 	stmdbvs	r5, {r1, sl}
    12a8:	0300746e 	movweq	r7, #1134	; 0x46e
    12ac:	003d0704 	eorseq	r0, sp, r4, lsl #14
    12b0:	01030000 	mrseq	r0, (UNDEF: 3)
    12b4:	00025206 	andeq	r5, r2, r6, lsl #4
    12b8:	05020300 	streq	r0, [r2, #-768]	; 0x300
    12bc:	00000277 	andeq	r0, r0, r7, ror r2
    12c0:	7b050403 	blvc	1422d4 <__bss_end__+0x136414>
    12c4:	03000000 	movweq	r0, #0
    12c8:	00760508 	rsbseq	r0, r6, r8, lsl #10
    12cc:	0a040000 	beq	1012d4 <__bss_end__+0xf5414>
    12d0:	02000004 	andeq	r0, r0, #4
    12d4:	00005a2e 	andeq	r5, r0, lr, lsr #20
    12d8:	08010300 	stmdaeq	r1, {r8, r9}
    12dc:	00000250 	andeq	r0, r0, r0, asr r2
    12e0:	63070203 	movwvs	r0, #29187	; 0x7203
    12e4:	04000001 	streq	r0, [r0], #-1
    12e8:	000002b3 			; <UNDEFINED> instruction: 0x000002b3
    12ec:	00733402 	rsbseq	r3, r3, r2, lsl #8
    12f0:	04030000 	streq	r0, [r3], #-0
    12f4:	00003807 	andeq	r3, r0, r7, lsl #16
    12f8:	07080300 	streq	r0, [r8, -r0, lsl #6]
    12fc:	00000033 	andeq	r0, r0, r3, lsr r0
    1300:	eb070403 	bl	1c2314 <__bss_end__+0x1b6454>
    1304:	03000001 	movweq	r0, #1
    1308:	02590801 	subseq	r0, r9, #65536	; 0x10000
    130c:	04050000 	streq	r0, [r5], #-0
    1310:	00000095 	muleq	r0, r5, r0
    1314:	00008806 	andeq	r8, r0, r6, lsl #16
    1318:	030c0700 	movweq	r0, #50944	; 0xc700
    131c:	0000d10e 	andeq	sp, r0, lr, lsl #2
    1320:	78740800 	ldmdavc	r4!, {fp}^
    1324:	4f0f0300 	svcmi	0x000f0300
    1328:	00000000 	andeq	r0, r0, r0
    132c:	00787208 	rsbseq	r7, r8, r8, lsl #4
    1330:	004f0f03 	subeq	r0, pc, r3, lsl #30
    1334:	09010000 	stmdbeq	r1, {}	; <UNPREDICTABLE>
    1338:	00000604 	andeq	r0, r0, r4, lsl #12
    133c:	00681003 	rsbeq	r1, r8, r3
    1340:	09040000 	stmdbeq	r4, {}	; <UNPREDICTABLE>
    1344:	000005b5 			; <UNDEFINED> instruction: 0x000005b5
    1348:	00681103 	rsbeq	r1, r8, r3, lsl #2
    134c:	00080000 	andeq	r0, r8, r0
    1350:	0005ed04 	andeq	lr, r5, r4, lsl #26
    1354:	9a120300 	bls	481f5c <__bss_end__+0x47609c>
    1358:	0a000000 	beq	1360 <_start-0x6ca0>
    135c:	f7100401 			; <UNDEFINED> instruction: 0xf7100401
    1360:	0b000000 	bleq	1368 <_start-0x6c98>
    1364:	00000609 	andeq	r0, r0, r9, lsl #12
    1368:	05f70b01 	ldrbeq	r0, [r7, #2817]!	; 0xb01
    136c:	0b020000 	bleq	81374 <__bss_end__+0x754b4>
    1370:	000005df 	ldrdeq	r0, [r0], -pc	; <UNPREDICTABLE>
    1374:	1e040003 	cdpne	0, 0, cr0, cr4, cr3, {0}
    1378:	04000006 	streq	r0, [r0], #-6
    137c:	0000dc10 	andeq	sp, r0, r0, lsl ip
    1380:	04140700 	ldreq	r0, [r4], #-1792	; 0x700
    1384:	00012f14 	andeq	r2, r1, r4, lsl pc
    1388:	06850900 	streq	r0, [r5], r0, lsl #18
    138c:	15040000 	strne	r0, [r4, #-0]
    1390:	0000002c 	andeq	r0, r0, ip, lsr #32
    1394:	06790900 	ldrbteq	r0, [r9], -r0, lsl #18
    1398:	18040000 	stmdane	r4, {}	; <UNPREDICTABLE>
    139c:	000000f7 	strdeq	r0, [r0], -r7
    13a0:	06440904 	strbeq	r0, [r4], -r4, lsl #18
    13a4:	1b040000 	blne	1013ac <__bss_end__+0xf54ec>
    13a8:	000000d1 	ldrdeq	r0, [r0], -r1
    13ac:	36040008 	strcc	r0, [r4], -r8
    13b0:	04000006 	streq	r0, [r0], #-6
    13b4:	00010220 	andeq	r0, r1, r0, lsr #4
    13b8:	058b0c00 	streq	r0, [fp, #3072]	; 0xc00
    13bc:	06010000 	streq	r0, [r1], -r0
    13c0:	00000025 	andeq	r0, r0, r5, lsr #32
    13c4:	00008878 	andeq	r8, r0, r8, ror r8
    13c8:	00000020 	andeq	r0, r0, r0, lsr #32
    13cc:	017a9c01 	cmneq	sl, r1, lsl #24
    13d0:	630d0000 	movwvs	r0, #53248	; 0xd000
    13d4:	25060100 	strcs	r0, [r6, #-256]	; 0x100
    13d8:	53000000 	movwpl	r0, #0
    13dc:	0e00000a 	cdpeq	0, 0, cr0, cr0, cr10, {0}
    13e0:	0000888c 	andeq	r8, r0, ip, lsl #17
    13e4:	0000027a 	andeq	r0, r0, sl, ror r2
    13e8:	0251010f 	subseq	r0, r1, #-1073741821	; 0xc0000003
    13ec:	010f0074 	tsteq	pc, r4, ror r0	; <UNPREDICTABLE>
    13f0:	80030550 	andhi	r0, r3, r0, asr r5
    13f4:	000000ae 	andeq	r0, r0, lr, lsr #1
    13f8:	06161000 	ldreq	r1, [r6], -r0
    13fc:	0b010000 	bleq	41404 <__bss_end__+0x35544>
    1400:	00008898 	muleq	r0, r8, r8
    1404:	00000090 	muleq	r0, r0, r0
    1408:	02279c01 	eoreq	r9, r7, #256	; 0x100
    140c:	9f110000 	svcls	0x00110000
    1410:	01000005 	tsteq	r0, r5
    1414:	0000250c 	andeq	r2, r0, ip, lsl #10
    1418:	06591100 	ldrbeq	r1, [r9], -r0, lsl #2
    141c:	0c010000 	stceq	0, cr0, [r1], {-0}
    1420:	00000025 	andeq	r0, r0, r5, lsr #32
    1424:	00000012 	andeq	r0, r0, r2, lsl r0
    1428:	130d0100 	movwne	r0, #53504	; 0xd100
    142c:	00737362 	rsbseq	r7, r3, r2, ror #6
    1430:	02270f01 	eoreq	r0, r7, #1, 30
    1434:	0a710000 	beq	1c4143c <__bss_end__+0x1c3557c>
    1438:	ad140000 	ldcge	0, cr0, [r4, #-0]
    143c:	01000005 	tsteq	r0, r5
    1440:	00022710 	andeq	r2, r2, r0, lsl r7
    1444:	62631300 	rsbvs	r1, r3, #0, 6
    1448:	2d170100 	ldfcss	f0, [r7, #-0]
    144c:	91000002 	tstls	r0, r2
    1450:	1500000a 	strne	r0, [r0, #-10]
    1454:	000088c0 	andeq	r8, r0, r0, asr #17
    1458:	00000296 	muleq	r0, r6, r2
    145c:	0088fc16 	addeq	pc, r8, r6, lsl ip	; <UNPREDICTABLE>
    1460:	0002a100 	andeq	sl, r2, r0, lsl #2
    1464:	0001fd00 	andeq	pc, r1, r0, lsl #26
    1468:	51010f00 	tstpl	r1, r0, lsl #30
    146c:	a5540305 	ldrbge	r0, [r4, #-773]	; 0x305
    1470:	010f0000 	mrseq	r0, CPSR
    1474:	80030550 	andhi	r0, r3, r0, asr r5
    1478:	000000ae 	andeq	r0, r0, lr, lsr #1
    147c:	00890416 	addeq	r0, r9, r6, lsl r4
    1480:	0002bc00 	andeq	fp, r2, r0, lsl #24
    1484:	00021400 	andeq	r1, r2, r0, lsl #8
    1488:	50010f00 	andpl	r0, r1, r0, lsl #30
    148c:	a5780305 	ldrbge	r0, [r8, #-773]!	; 0x305
    1490:	15000000 	strne	r0, [r0, #-0]
    1494:	00008908 	andeq	r8, r0, r8, lsl #18
    1498:	000002d2 	ldrdeq	r0, [r0], -r2
    149c:	00890c15 	addeq	r0, r9, r5, lsl ip
    14a0:	0002d900 	andeq	sp, r2, r0, lsl #18
    14a4:	04050000 	streq	r0, [r5], #-0
    14a8:	00000025 	andeq	r0, r0, r5, lsr #32
    14ac:	012f0405 	teqeq	pc, r5, lsl #8
    14b0:	c3170000 	tstgt	r7, #0
    14b4:	01000005 	tsteq	r0, r5
    14b8:	0000d105 	andeq	sp, r0, r5, lsl #2
    14bc:	80030500 	andhi	r0, r3, r0, lsl #10
    14c0:	180000ae 	stmdane	r0, {r1, r2, r3, r5, r7}
    14c4:	00000025 	andeq	r0, r0, r5, lsr #32
    14c8:	00000253 	andeq	r0, r0, r3, asr r2
    14cc:	00002519 	andeq	r2, r0, r9, lsl r5
    14d0:	d7110000 	ldrle	r0, [r1, -r0]
    14d4:	05000004 	streq	r0, [r0, #-4]
    14d8:	00025e1d 	andeq	r5, r2, sp, lsl lr
    14dc:	44040500 	strmi	r0, [r4], #-1280	; 0x500
    14e0:	11000002 	tstne	r0, r2
    14e4:	0000059f 	muleq	r0, pc, r5	; <UNPREDICTABLE>
    14e8:	00250c01 	eoreq	r0, r5, r1, lsl #24
    14ec:	59110000 	ldmdbpl	r1, {}	; <UNPREDICTABLE>
    14f0:	01000006 	tsteq	r0, r6
    14f4:	0000250c 	andeq	r2, r0, ip, lsl #10
    14f8:	06291a00 	strteq	r1, [r9], -r0, lsl #20
    14fc:	44030000 	strmi	r0, [r3], #-0
    1500:	00000290 	muleq	r0, r0, r2
    1504:	00029019 	andeq	r9, r2, r9, lsl r0
    1508:	005a1900 	subseq	r1, sl, r0, lsl #18
    150c:	05000000 	streq	r0, [r0, #-0]
    1510:	0000d104 	andeq	sp, r0, r4, lsl #2
    1514:	064c1b00 	strbeq	r1, [ip], -r0, lsl #22
    1518:	2a040000 	bcs	101520 <__bss_end__+0xf5660>
    151c:	0000022d 	andeq	r0, r0, sp, lsr #4
    1520:	0005d01c 	andeq	sp, r5, ip, lsl r0
    1524:	25150300 	ldrcs	r0, [r5, #-768]	; 0x300
    1528:	bc000000 	stclt	0, cr0, [r0], {-0}
    152c:	19000002 	stmdbne	r0, {r1}
    1530:	00000290 	muleq	r0, r0, r2
    1534:	00008f19 	andeq	r8, r0, r9, lsl pc
    1538:	1c001d00 	stcne	13, cr1, [r0], {-0}
    153c:	0000046c 	andeq	r0, r0, ip, ror #8
    1540:	00252905 	eoreq	r2, r5, r5, lsl #18
    1544:	02d20000 	sbcseq	r0, r2, #0
    1548:	8f190000 	svchi	0x00190000
    154c:	1d000000 	stcne	0, cr0, [r0, #-0]
    1550:	00001200 	andeq	r1, r0, r0, lsl #4
    1554:	ce050000 	cdpgt	0, 0, cr0, cr5, cr0, {0}
    1558:	00056612 	andeq	r6, r5, r2, lsl r6
    155c:	00630500 	rsbeq	r0, r3, r0, lsl #10
    1560:	000001ad 	andeq	r0, r0, sp, lsr #3
    1564:	08c30004 	stmiaeq	r3, {r2}^
    1568:	01040000 	mrseq	r0, (UNDEF: 4)
    156c:	000002e3 	andeq	r0, r0, r3, ror #5
    1570:	0006a501 	andeq	sl, r6, r1, lsl #10
    1574:	00047d00 	andeq	r7, r4, r0, lsl #26
    1578:	00001800 	andeq	r1, r0, r0, lsl #16
    157c:	00000000 	andeq	r0, r0, r0
    1580:	00081800 	andeq	r1, r8, r0, lsl #16
    1584:	05040200 	streq	r0, [r4, #-512]	; 0x200
    1588:	00746e69 	rsbseq	r6, r4, r9, ror #28
    158c:	3d070403 	cfstrscc	mvf0, [r7, #-12]
    1590:	03000000 	movweq	r0, #0
    1594:	02520601 	subseq	r0, r2, #1048576	; 0x100000
    1598:	02030000 	andeq	r0, r3, #0
    159c:	00027705 	andeq	r7, r2, r5, lsl #14
    15a0:	05040300 	streq	r0, [r4, #-768]	; 0x300
    15a4:	0000007b 	andeq	r0, r0, fp, ror r0
    15a8:	76050803 	strvc	r0, [r5], -r3, lsl #16
    15ac:	03000000 	movweq	r0, #0
    15b0:	02500801 	subseq	r0, r0, #65536	; 0x10000
    15b4:	02030000 	andeq	r0, r3, #0
    15b8:	00016307 	andeq	r6, r1, r7, lsl #6
    15bc:	07040300 	streq	r0, [r4, -r0, lsl #6]
    15c0:	00000038 	andeq	r0, r0, r8, lsr r0
    15c4:	33070803 	movwcc	r0, #30723	; 0x7803
    15c8:	03000000 	movweq	r0, #0
    15cc:	01eb0704 	mvneq	r0, r4, lsl #14
    15d0:	01030000 	mrseq	r0, (UNDEF: 3)
    15d4:	00025908 	andeq	r5, r2, r8, lsl #18
    15d8:	068b0400 	streq	r0, [fp], r0, lsl #8
    15dc:	0e010000 	cdpeq	0, 0, cr0, cr1, cr0, {0}
    15e0:	00000025 	andeq	r0, r0, r5, lsr #32
    15e4:	00008928 	andeq	r8, r0, r8, lsr #18
    15e8:	00000018 	andeq	r0, r0, r8, lsl r0
    15ec:	00a29c01 	adceq	r9, r2, r1, lsl #24
    15f0:	f1050000 			; <UNDEFINED> instruction: 0xf1050000
    15f4:	01000006 	tsteq	r0, r6
    15f8:	00002c0f 	andeq	r2, r0, pc, lsl #24
    15fc:	000ab100 	andeq	fp, sl, r0, lsl #2
    1600:	da060000 	ble	181608 <__bss_end__+0x175748>
    1604:	01000006 	tsteq	r0, r6
    1608:	00894017 	addeq	r4, r9, r7, lsl r0
    160c:	00001400 	andeq	r1, r0, r0, lsl #8
    1610:	c79c0100 	ldrgt	r0, [ip, r0, lsl #2]
    1614:	05000000 	streq	r0, [r0, #-0]
    1618:	000006f1 	strdeq	r0, [r0], -r1
    161c:	002c1801 	eoreq	r1, ip, r1, lsl #16
    1620:	0ad00000 	beq	ff401628 <__bss_end__+0xff3f5768>
    1624:	06000000 	streq	r0, [r0], -r0
    1628:	00000566 	andeq	r0, r0, r6, ror #10
    162c:	89541f01 	ldmdbhi	r4, {r0, r8, r9, sl, fp, ip}^
    1630:	00480000 	subeq	r0, r8, r0
    1634:	9c010000 	stcls	0, cr0, [r1], {-0}
    1638:	00000177 	andeq	r0, r0, r7, ror r1
    163c:	0006e907 	andeq	lr, r6, r7, lsl #18
    1640:	772a0100 	strvc	r0, [sl, -r0, lsl #2]!
    1644:	1c000001 	stcne	0, cr0, [r0], {1}
    1648:	07201000 	streq	r1, [r0, -r0]!
    164c:	000006d2 	ldrdeq	r0, [r0], -r2
    1650:	01772b01 	cmneq	r7, r1, lsl #22
    1654:	00240000 	eoreq	r0, r4, r0
    1658:	99072010 	stmdbls	r7, {r4, sp}
    165c:	01000006 	tsteq	r0, r6
    1660:	0001772c 	andeq	r7, r1, ip, lsr #14
    1664:	00000000 	andeq	r0, r0, r0
    1668:	06b9085a 	ssateq	r0, #26, sl, asr #16
    166c:	2d010000 	stccs	0, cr0, [r1, #-0]
    1670:	00000177 	andeq	r0, r0, r7, ror r1
    1674:	895c0920 	ldmdbhi	ip, {r5, r8, fp}^
    1678:	00790000 	rsbseq	r0, r9, r0
    167c:	68090000 	stmdavs	r9, {}	; <UNPREDICTABLE>
    1680:	a2000089 	andge	r0, r0, #137	; 0x89
    1684:	0a000000 	beq	168c <_start-0x6974>
    1688:	00008970 	andeq	r8, r0, r0, ror r9
    168c:	0000018d 	andeq	r0, r0, sp, lsl #3
    1690:	0000013a 	andeq	r0, r0, sl, lsr r1
    1694:	0150010b 	cmpeq	r0, fp, lsl #2
    1698:	7c0a004e 	stcvc	0, cr0, [sl], {78}	; 0x4e
    169c:	9e000089 	cdpls	0, 0, cr0, cr0, cr9, {4}
    16a0:	5a000001 	bpl	16ac <_start-0x6954>
    16a4:	0b000001 	bleq	16b0 <_start-0x6950>
    16a8:	0c055101 	stfeqs	f5, [r5], {1}
    16ac:	5a000001 	bpl	16b8 <_start-0x6948>
    16b0:	0550010b 	ldrbeq	r0, [r0, #-267]	; 0x10b
    16b4:	1000240c 	andne	r2, r0, ip, lsl #8
    16b8:	880c0020 	stmdahi	ip, {r5}
    16bc:	9e000089 	cdpls	0, 0, cr0, cr0, cr9, {4}
    16c0:	0b000001 	bleq	16cc <_start-0x6934>
    16c4:	0c055101 	stfeqs	f5, [r5], {1}
    16c8:	5a000020 	bpl	1750 <_start-0x68b0>
    16cc:	0550010b 	ldrbeq	r0, [r0, #-267]	; 0x10b
    16d0:	10001c0c 	andne	r1, r0, ip, lsl #24
    16d4:	0d000020 	stceq	0, cr0, [r0, #-128]	; 0xffffff80
    16d8:	00000025 	andeq	r0, r0, r5, lsr #32
    16dc:	00068e08 	andeq	r8, r6, r8, lsl #28
    16e0:	880d0100 	stmdahi	sp, {r8}
    16e4:	10000001 	andne	r0, r0, r1
    16e8:	00002c0d 	andeq	r2, r0, sp, lsl #24
    16ec:	02aa0e00 	adceq	r0, sl, #0, 28
    16f0:	50020000 	andpl	r0, r2, r0
    16f4:	0000019e 	muleq	r0, lr, r1
    16f8:	00002c0f 	andeq	r2, r0, pc, lsl #24
    16fc:	14100000 	ldrne	r0, [r0], #-0
    1700:	02000002 	andeq	r0, r0, #2
    1704:	002c0f99 	mlaeq	ip, r9, pc, r0	; <UNPREDICTABLE>
    1708:	2c0f0000 	stccs	0, cr0, [pc], {-0}
    170c:	00000000 	andeq	r0, r0, r0
    1710:	0001d800 	andeq	sp, r1, r0, lsl #16
    1714:	b1000400 	tstlt	r0, r0, lsl #8
    1718:	04000009 	streq	r0, [r0], #-9
    171c:	0002e301 	andeq	lr, r2, r1, lsl #6
    1720:	07130100 	ldreq	r0, [r3, -r0, lsl #2]
    1724:	047d0000 	ldrbteq	r0, [sp], #-0
    1728:	899c0000 	ldmibhi	ip, {}	; <UNPREDICTABLE>
    172c:	00880000 	addeq	r0, r8, r0
    1730:	08b50000 	ldmeq	r5!, {}	; <UNPREDICTABLE>
    1734:	04020000 	streq	r0, [r2], #-0
    1738:	746e6905 	strbtvc	r6, [lr], #-2309	; 0x905
    173c:	07040300 	streq	r0, [r4, -r0, lsl #6]
    1740:	0000003d 	andeq	r0, r0, sp, lsr r0
    1744:	52060103 	andpl	r0, r6, #-1073741824	; 0xc0000000
    1748:	03000002 	movweq	r0, #2
    174c:	02770502 	rsbseq	r0, r7, #8388608	; 0x800000
    1750:	04030000 	streq	r0, [r3], #-0
    1754:	00007b05 	andeq	r7, r0, r5, lsl #22
    1758:	05080300 	streq	r0, [r8, #-768]	; 0x300
    175c:	00000076 	andeq	r0, r0, r6, ror r0
    1760:	50080103 	andpl	r0, r8, r3, lsl #2
    1764:	03000002 	movweq	r0, #2
    1768:	01630702 	cmneq	r3, r2, lsl #14
    176c:	04030000 	streq	r0, [r3], #-0
    1770:	00003807 	andeq	r3, r0, r7, lsl #16
    1774:	07080300 	streq	r0, [r8, -r0, lsl #6]
    1778:	00000033 	andeq	r0, r0, r3, lsr r0
    177c:	eb070403 	bl	1c2790 <__bss_end__+0x1b68d0>
    1780:	03000001 	movweq	r0, #1
    1784:	02590801 	subseq	r0, r9, #65536	; 0x10000
    1788:	2c040000 	stccs	0, cr0, [r4], {-0}
    178c:	01000007 	tsteq	r0, r7
    1790:	00899c05 	addeq	r9, r9, r5, lsl #24
    1794:	00001c00 	andeq	r1, r0, r0, lsl #24
    1798:	9e9c0100 	fmllse	f0, f4, f0
    179c:	05000000 	streq	r0, [r0, #-0]
    17a0:	00000726 	andeq	r0, r0, r6, lsr #14
    17a4:	002c0501 	eoreq	r0, ip, r1, lsl #10
    17a8:	0afa0000 	beq	ffe817b0 <__bss_end__+0xffe758f0>
    17ac:	06000000 	streq	r0, [r0], -r0
    17b0:	000006f6 	strdeq	r0, [r0], -r6
    17b4:	002c0b01 	eoreq	r0, ip, r1, lsl #22
    17b8:	89b80000 	ldmibhi	r8!, {}	; <UNPREDICTABLE>
    17bc:	00140000 	andseq	r0, r4, r0
    17c0:	9c010000 	stcls	0, cr0, [r1], {-0}
    17c4:	000000cb 	andeq	r0, r0, fp, asr #1
    17c8:	0089c407 	addeq	ip, r9, r7, lsl #8
    17cc:	0001ca00 	andeq	ip, r1, r0, lsl #20
    17d0:	50010800 	andpl	r0, r1, r0, lsl #16
    17d4:	30040c05 	andcc	r0, r4, r5, lsl #24
    17d8:	00002000 	andeq	r2, r0, r0
    17dc:	00074206 	andeq	r4, r7, r6, lsl #4
    17e0:	2c100100 	ldfcss	f0, [r0], {-0}
    17e4:	cc000000 	stcgt	0, cr0, [r0], {-0}
    17e8:	0c000089 	stceq	0, cr0, [r0], {137}	; 0x89
    17ec:	01000000 	mrseq	r0, (UNDEF: 0)
    17f0:	0000f99c 	muleq	r0, ip, r9
    17f4:	00750900 	rsbseq	r0, r5, r0, lsl #18
    17f8:	002c1401 	eoreq	r1, ip, r1, lsl #8
    17fc:	50010000 	andpl	r0, r1, r0
    1800:	0089d40a 	addeq	sp, r9, sl, lsl #8
    1804:	00009e00 	andeq	r9, r0, r0, lsl #28
    1808:	39040000 	stmdbcc	r4, {}	; <UNPREDICTABLE>
    180c:	01000007 	tsteq	r0, r7
    1810:	0089d819 	addeq	sp, r9, r9, lsl r8
    1814:	00002400 	andeq	r2, r0, r0, lsl #8
    1818:	579c0100 	ldrpl	r0, [ip, r0, lsl #2]
    181c:	0b000001 	bleq	1828 <_start-0x67d8>
    1820:	01007375 	tsteq	r0, r5, ror r3
    1824:	00002c19 	andeq	r2, r0, r9, lsl ip
    1828:	000b2e00 	andeq	r2, fp, r0, lsl #28
    182c:	62720900 	rsbsvs	r0, r2, #0, 18
    1830:	2c1a0100 	ldfcss	f0, [sl], {-0}
    1834:	01000000 	mrseq	r0, (UNDEF: 0)
    1838:	89e80c54 	stmibhi	r8!, {r2, r4, r6, sl, fp}^
    183c:	00100000 	andseq	r0, r0, r0
    1840:	014d0000 	mrseq	r0, (UNDEF: 77)
    1844:	720d0000 	andvc	r0, sp, #0
    1848:	1c010061 	stcne	0, cr0, [r1], {97}	; 0x61
    184c:	0000002c 	andeq	r0, r0, ip, lsr #32
    1850:	00000b4c 	andeq	r0, r0, ip, asr #22
    1854:	0089ec0a 	addeq	lr, r9, sl, lsl #24
    1858:	0000cb00 	andeq	ip, r0, r0, lsl #22
    185c:	e40a0000 	str	r0, [sl], #-0
    1860:	cb000089 	blgt	1a8c <_start-0x6574>
    1864:	00000000 	andeq	r0, r0, r0
    1868:	0002aa04 	andeq	sl, r2, r4, lsl #20
    186c:	fc220100 	stc2	1, cr0, [r2], #-0
    1870:	14000089 	strne	r0, [r0], #-137	; 0x89
    1874:	01000000 	mrseq	r0, (UNDEF: 0)
    1878:	0001909c 	muleq	r1, ip, r0
    187c:	736d0b00 	cmnvc	sp, #0, 22
    1880:	2c220100 	stfcss	f0, [r2], #-0
    1884:	5f000000 	svcpl	0x00000000
    1888:	0700000b 	streq	r0, [r0, -fp]
    188c:	00008a0c 	andeq	r8, r0, ip, lsl #20
    1890:	000000f9 	strdeq	r0, [r0], -r9
    1894:	07500108 	ldrbeq	r0, [r0, -r8, lsl #2]
    1898:	0a5001f3 	beq	140206c <__bss_end__+0x13f61ac>
    189c:	001e03e8 	andseq	r0, lr, r8, ror #7
    18a0:	07090400 	streq	r0, [r9, -r0, lsl #8]
    18a4:	25010000 	strcs	r0, [r1, #-0]
    18a8:	00008a10 	andeq	r8, r0, r0, lsl sl
    18ac:	00000014 	andeq	r0, r0, r4, lsl r0
    18b0:	01ca9c01 	biceq	r9, sl, r1, lsl #24
    18b4:	730b0000 	movwvc	r0, #45056	; 0xb000
    18b8:	01006365 	tsteq	r0, r5, ror #6
    18bc:	00002c25 	andeq	r2, r0, r5, lsr #24
    18c0:	000b8000 	andeq	r8, fp, r0
    18c4:	8a200700 	bhi	8034cc <__bss_end__+0x7f760c>
    18c8:	01570000 	cmpeq	r7, r0
    18cc:	01080000 	mrseq	r0, (UNDEF: 8)
    18d0:	01f30750 	mvnseq	r0, r0, asr r7
    18d4:	03e80a50 	mvneq	r0, #80, 20	; 0x50000
    18d8:	0e00001e 	mcreq	0, 0, r0, cr0, cr14, {0}
    18dc:	00000271 	andeq	r0, r0, r1, ror r2
    18e0:	002ca502 	eoreq	sl, ip, r2, lsl #10
    18e4:	2c0f0000 	stccs	0, cr0, [pc], {-0}
    18e8:	00000000 	andeq	r0, r0, r0
    18ec:	0008cf00 	andeq	ip, r8, r0, lsl #30
    18f0:	94000400 	strls	r0, [r0], #-1024	; 0x400
    18f4:	0400000a 	streq	r0, [r0], #-10
    18f8:	0002e301 	andeq	lr, r2, r1, lsl #6
    18fc:	07a40100 	streq	r0, [r4, r0, lsl #2]!
    1900:	047d0000 	ldrbteq	r0, [sp], #-0
    1904:	8a240000 	bhi	90190c <__bss_end__+0x8f5a4c>
    1908:	05bc0000 	ldreq	r0, [ip, #0]!
    190c:	095c0000 	ldmdbeq	ip, {}^	; <UNPREDICTABLE>
    1910:	08020000 	stmdaeq	r2, {}	; <UNPREDICTABLE>
    1914:	00003307 	andeq	r3, r0, r7, lsl #6
    1918:	07040200 	streq	r0, [r4, -r0, lsl #4]
    191c:	0000003d 	andeq	r0, r0, sp, lsr r0
    1920:	52060102 	andpl	r0, r6, #-2147483648	; 0x80000000
    1924:	02000002 	andeq	r0, r0, #2
    1928:	02770502 	rsbseq	r0, r7, #8388608	; 0x800000
    192c:	04020000 	streq	r0, [r2], #-0
    1930:	00007b05 	andeq	r7, r0, r5, lsl #22
    1934:	05080200 	streq	r0, [r8, #-512]	; 0x200
    1938:	00000076 	andeq	r0, r0, r6, ror r0
    193c:	50080102 	andpl	r0, r8, r2, lsl #2
    1940:	02000002 	andeq	r0, r0, #2
    1944:	01630702 	cmneq	r3, r2, lsl #14
    1948:	04020000 	streq	r0, [r2], #-0
    194c:	00003807 	andeq	r3, r0, r7, lsl #16
    1950:	05040300 	streq	r0, [r4, #-768]	; 0x300
    1954:	00746e69 	rsbseq	r6, r4, r9, ror #28
    1958:	eb070402 	bl	1c2968 <__bss_end__+0x1b6aa8>
    195c:	02000001 	andeq	r0, r0, #1
    1960:	02590801 	subseq	r0, r9, #65536	; 0x10000
    1964:	01040000 	mrseq	r0, (UNDEF: 4)
    1968:	00b20c02 	adcseq	r0, r2, r2, lsl #24
    196c:	94050000 	strls	r0, [r5], #-0
    1970:	00000007 	andeq	r0, r0, r7
    1974:	0008bf05 	andeq	fp, r8, r5, lsl #30
    1978:	f8050100 			; <UNDEFINED> instruction: 0xf8050100
    197c:	04000008 	streq	r0, [r0], #-8
    1980:	00090705 	andeq	r0, r9, r5, lsl #14
    1984:	16050500 	strne	r0, [r5], -r0, lsl #10
    1988:	06000009 	streq	r0, [r0], -r9
    198c:	00092505 	andeq	r2, r9, r5, lsl #10
    1990:	34050700 	strcc	r0, [r5], #-1792	; 0x700
    1994:	03000009 	movweq	r0, #9
    1998:	00094305 	andeq	r4, r9, r5, lsl #6
    199c:	06000200 	streq	r0, [r0], -r0, lsl #4
    19a0:	000008ec 	andeq	r0, r0, ip, ror #17
    19a4:	00791502 	rsbseq	r1, r9, r2, lsl #10
    19a8:	ea070000 	b	1c19b0 <__bss_end__+0x1b5af0>
    19ac:	01000003 	tsteq	r0, r3
    19b0:	008a243f 	addeq	r2, sl, pc, lsr r4
    19b4:	0000d400 	andeq	sp, r0, r0, lsl #8
    19b8:	339c0100 	orrscc	r0, ip, #0, 2
    19bc:	08000001 	stmdaeq	r0, {r0}
    19c0:	006e6970 	rsbeq	r6, lr, r0, ror r9
    19c4:	002c3f01 	eoreq	r3, ip, r1, lsl #30
    19c8:	0ba10000 	bleq	fe8419d0 <__bss_end__+0xfe835b10>
    19cc:	e0090000 	and	r0, r9, r0
    19d0:	01000007 	tsteq	r0, r7
    19d4:	00013347 	andeq	r3, r1, r7, asr #6
    19d8:	000bbf00 	andeq	fp, fp, r0, lsl #30
    19dc:	09520900 	ldmdbeq	r2, {r8, fp}^
    19e0:	49010000 	stmdbmi	r1, {}	; <UNPREDICTABLE>
    19e4:	0000002c 	andeq	r0, r0, ip, lsr #32
    19e8:	00000c14 	andeq	r0, r0, r4, lsl ip
    19ec:	00089109 	andeq	r9, r8, r9, lsl #2
    19f0:	2c570100 	ldfcse	f0, [r7], {-0}
    19f4:	e0000000 	and	r0, r0, r0
    19f8:	0a00000d 	beq	1a34 <_start-0x65cc>
    19fc:	00008ab8 			; <UNDEFINED> instruction: 0x00008ab8
    1a00:	0000088e 	andeq	r0, r0, lr, lsl #17
    1a04:	00000122 	andeq	r0, r0, r2, lsr #2
    1a08:	0250010b 	subseq	r0, r0, #-1073741822	; 0xc0000002
    1a0c:	0c000075 	stceq	0, cr0, [r0], {117}	; 0x75
    1a10:	00008aec 	andeq	r8, r0, ip, ror #21
    1a14:	000008af 	andeq	r0, r0, pc, lsr #17
    1a18:	0250010b 	subseq	r0, r0, #-1073741822	; 0xc0000002
    1a1c:	00000075 	andeq	r0, r0, r5, ror r0
    1a20:	0139040d 	teqeq	r9, sp, lsl #8
    1a24:	2c0e0000 	stccs	0, cr0, [lr], {-0}
    1a28:	0f000000 	svceq	0x00000000
    1a2c:	00000349 	andeq	r0, r0, r9, asr #6
    1a30:	6c036001 	stcvs	0, cr6, [r3], {1}
    1a34:	10000001 	andne	r0, r0, r1
    1a38:	006e6970 	rsbeq	r6, lr, r0, ror r9
    1a3c:	002c6001 	eoreq	r6, ip, r1
    1a40:	e0110000 	ands	r0, r1, r0
    1a44:	01000007 	tsteq	r0, r7
    1a48:	00013367 	andeq	r3, r1, r7, ror #6
    1a4c:	08911100 	ldmeq	r1, {r8, ip}
    1a50:	68010000 	stmdavs	r1, {}	; <UNPREDICTABLE>
    1a54:	0000002c 	andeq	r0, r0, ip, lsr #32
    1a58:	013e1200 	teqeq	lr, r0, lsl #4
    1a5c:	8af80000 	bhi	ffe01a64 <__bss_end__+0xffdf5ba4>
    1a60:	00380000 	eorseq	r0, r8, r0
    1a64:	9c010000 	stcls	0, cr0, [r1], {-0}
    1a68:	000001b0 			; <UNDEFINED> instruction: 0x000001b0
    1a6c:	00014a13 	andeq	r4, r1, r3, lsl sl
    1a70:	000e1000 	andeq	r1, lr, r0
    1a74:	01551400 	cmpeq	r5, r0, lsl #8
    1a78:	0e310000 	cdpeq	0, 3, cr0, cr1, cr0, {0}
    1a7c:	60140000 	andsvs	r0, r4, r0
    1a80:	67000001 	strvs	r0, [r0, -r1]
    1a84:	0c00000e 	stceq	0, cr0, [r0], {14}
    1a88:	00008b28 	andeq	r8, r0, r8, lsr #22
    1a8c:	000008af 	andeq	r0, r0, pc, lsr #17
    1a90:	0751010b 	ldrbeq	r0, [r1, -fp, lsl #2]
    1a94:	5001f331 	andpl	pc, r1, r1, lsr r3	; <UNPREDICTABLE>
    1a98:	00241a4f 	eoreq	r1, r4, pc, asr #20
    1a9c:	00690f00 	rsbeq	r0, r9, r0, lsl #30
    1aa0:	7b010000 	blvc	41aa8 <__bss_end__+0x35be8>
    1aa4:	0001de03 	andeq	sp, r1, r3, lsl #28
    1aa8:	69701000 	ldmdbvs	r0!, {ip}^
    1aac:	7b01006e 	blvc	41c6c <__bss_end__+0x35dac>
    1ab0:	0000002c 	andeq	r0, r0, ip, lsr #32
    1ab4:	0007e011 	andeq	lr, r7, r1, lsl r0
    1ab8:	33810100 	orrcc	r0, r1, #0, 2
    1abc:	11000001 	tstne	r0, r1
    1ac0:	00000891 	muleq	r0, r1, r8
    1ac4:	002c8201 	eoreq	r8, ip, r1, lsl #4
    1ac8:	12000000 	andne	r0, r0, #0
    1acc:	000001b0 			; <UNDEFINED> instruction: 0x000001b0
    1ad0:	00008b30 	andeq	r8, r0, r0, lsr fp
    1ad4:	00000038 	andeq	r0, r0, r8, lsr r0
    1ad8:	02229c01 	eoreq	r9, r2, #256	; 0x100
    1adc:	bc130000 	ldclt	0, cr0, [r3], {-0}
    1ae0:	a7000001 	strge	r0, [r0, -r1]
    1ae4:	1400000e 	strne	r0, [r0], #-14
    1ae8:	000001c7 	andeq	r0, r0, r7, asr #3
    1aec:	00000ec8 	andeq	r0, r0, r8, asr #29
    1af0:	0001d214 	andeq	sp, r1, r4, lsl r2
    1af4:	000efe00 	andeq	pc, lr, r0, lsl #28
    1af8:	8b600c00 	blhi	1804b00 <__bss_end__+0x17f8c40>
    1afc:	08af0000 	stmiaeq	pc!, {}	; <UNPREDICTABLE>
    1b00:	010b0000 	mrseq	r0, (UNDEF: 11)
    1b04:	f3310751 	vaba.u<illegal width 64>	q0, <illegal reg q0.5>, <illegal reg q0.5>
    1b08:	1a4f5001 	bne	13d5b14 <__bss_end__+0x13c9c54>
    1b0c:	07000024 	streq	r0, [r0, -r4, lsr #32]
    1b10:	0000033a 	andeq	r0, r0, sl, lsr r3
    1b14:	8b689501 	blhi	1a26f20 <__bss_end__+0x1a1b060>
    1b18:	00cc0000 	sbceq	r0, ip, r0
    1b1c:	9c010000 	stcls	0, cr0, [r1], {-0}
    1b20:	00000298 	muleq	r0, r8, r2
    1b24:	6e697008 	cdpvs	0, 6, cr7, cr9, cr8, {0}
    1b28:	2c950100 	ldfcss	f0, [r5], {0}
    1b2c:	3e000000 	cdpcc	0, 0, cr0, cr0, cr0, {0}
    1b30:	0900000f 	stmdbeq	r0, {r0, r1, r2, r3}
    1b34:	000007e0 	andeq	r0, r0, r0, ror #15
    1b38:	01339b01 	teqeq	r3, r1, lsl #22
    1b3c:	0f5c0000 	svceq	0x005c0000
    1b40:	52090000 	andpl	r0, r9, #0
    1b44:	01000009 	tsteq	r0, r9
    1b48:	00002c9d 	muleq	r0, sp, ip
    1b4c:	000fb100 	andeq	fp, pc, r0, lsl #2
    1b50:	08910900 	ldmeq	r1, {r8, fp}
    1b54:	ab010000 	blge	41b5c <__bss_end__+0x35c9c>
    1b58:	0000002c 	andeq	r0, r0, ip, lsr #32
    1b5c:	0000117d 	andeq	r1, r0, sp, ror r1
    1b60:	008bfc0a 	addeq	pc, fp, sl, lsl #24
    1b64:	00088e00 	andeq	r8, r8, r0, lsl #28
    1b68:	00028700 	andeq	r8, r2, r0, lsl #14
    1b6c:	50010b00 	andpl	r0, r1, r0, lsl #22
    1b70:	00007502 	andeq	r7, r0, r2, lsl #10
    1b74:	008c280c 	addeq	r2, ip, ip, lsl #16
    1b78:	0008af00 	andeq	sl, r8, r0, lsl #30
    1b7c:	50010b00 	andpl	r0, r1, r0, lsl #22
    1b80:	00007502 	andeq	r7, r0, r2, lsl #10
    1b84:	01b21500 			; <UNDEFINED> instruction: 0x01b21500
    1b88:	b3010000 	movwlt	r0, #4096	; 0x1000
    1b8c:	00000064 	andeq	r0, r0, r4, rrx
    1b90:	00008c34 	andeq	r8, r0, r4, lsr ip
    1b94:	0000004c 	andeq	r0, r0, ip, asr #32
    1b98:	02e09c01 	rsceq	r9, r0, #256	; 0x100
    1b9c:	70080000 	andvc	r0, r8, r0
    1ba0:	01006e69 	tsteq	r0, r9, ror #28
    1ba4:	00002cb3 			; <UNDEFINED> instruction: 0x00002cb3
    1ba8:	00119b00 	andseq	r9, r1, r0, lsl #22
    1bac:	00761600 	rsbseq	r1, r6, r0, lsl #12
    1bb0:	002cb901 	eoreq	fp, ip, r1, lsl #18
    1bb4:	11f30000 	mvnsne	r0, r0
    1bb8:	54170000 	ldrpl	r0, [r7], #-0
    1bbc:	8e00008c 	cdphi	0, 0, cr0, cr0, cr12, {4}
    1bc0:	17000008 	strne	r0, [r0, -r8]
    1bc4:	00008c64 	andeq	r8, r0, r4, ror #24
    1bc8:	0000088e 	andeq	r0, r0, lr, lsl #17
    1bcc:	02810700 	addeq	r0, r1, #0, 14
    1bd0:	c5010000 	strgt	r0, [r1, #-0]
    1bd4:	00008c80 	andeq	r8, r0, r0, lsl #25
    1bd8:	00000078 	andeq	r0, r0, r8, ror r0
    1bdc:	03aa9c01 			; <UNDEFINED> instruction: 0x03aa9c01
    1be0:	70080000 	andvc	r0, r8, r0
    1be4:	01006e69 	tsteq	r0, r9, ror #28
    1be8:	00002cc5 	andeq	r2, r0, r5, asr #25
    1bec:	00122900 	andseq	r2, r2, r0, lsl #18
    1bf0:	00760800 	rsbseq	r0, r6, r0, lsl #16
    1bf4:	002cc501 	eoreq	ip, ip, r1, lsl #10
    1bf8:	12630000 	rsbne	r0, r3, #0
    1bfc:	3e180000 	cdpcc	0, 1, cr0, cr8, cr0, {0}
    1c00:	94000001 	strls	r0, [r0], #-1
    1c04:	3000008c 	andcc	r0, r0, ip, lsl #1
    1c08:	01000000 	mrseq	r0, (UNDEF: 0)
    1c0c:	00035fcc 	andeq	r5, r3, ip, asr #31
    1c10:	014a1300 	mrseq	r1, (UNDEF: 122)
    1c14:	129d0000 	addsne	r0, sp, #0
    1c18:	94190000 	ldrls	r0, [r9], #-0
    1c1c:	3000008c 	andcc	r0, r0, ip, lsl #1
    1c20:	14000000 	strne	r0, [r0], #-0
    1c24:	00000155 	andeq	r0, r0, r5, asr r1
    1c28:	000012be 			; <UNDEFINED> instruction: 0x000012be
    1c2c:	00016014 	andeq	r6, r1, r4, lsl r0
    1c30:	0012f400 	andseq	pc, r2, r0, lsl #8
    1c34:	8cc00c00 	stclhi	12, cr0, [r0], {0}
    1c38:	08af0000 	stmiaeq	pc!, {}	; <UNPREDICTABLE>
    1c3c:	010b0000 	mrseq	r0, (UNDEF: 11)
    1c40:	f3310751 	vaba.u<illegal width 64>	q0, <illegal reg q0.5>, <illegal reg q0.5>
    1c44:	1a4f5001 	bne	13d5c50 <__bss_end__+0x13c9d90>
    1c48:	00000024 	andeq	r0, r0, r4, lsr #32
    1c4c:	0001b01a 	andeq	fp, r1, sl, lsl r0
    1c50:	008cc400 	addeq	ip, ip, r0, lsl #8
    1c54:	00003400 	andeq	r3, r0, r0, lsl #8
    1c58:	13ce0100 	bicne	r0, lr, #0, 2
    1c5c:	000001bc 			; <UNDEFINED> instruction: 0x000001bc
    1c60:	00001334 	andeq	r1, r0, r4, lsr r3
    1c64:	008cc419 	addeq	ip, ip, r9, lsl r4
    1c68:	00003400 	andeq	r3, r0, r0, lsl #8
    1c6c:	01c71400 	biceq	r1, r7, r0, lsl #8
    1c70:	13550000 	cmpne	r5, #0
    1c74:	d2140000 	andsle	r0, r4, #0
    1c78:	8b000001 	blhi	1c84 <_start-0x637c>
    1c7c:	0c000013 	stceq	0, cr0, [r0], {19}
    1c80:	00008cf0 	strdeq	r8, [r0], -r0
    1c84:	000008af 	andeq	r0, r0, pc, lsr #17
    1c88:	0751010b 	ldrbeq	r0, [r1, -fp, lsl #2]
    1c8c:	5001f331 	andpl	pc, r1, r1, lsr r3	; <UNPREDICTABLE>
    1c90:	00241a4f 	eoreq	r1, r4, pc, asr #20
    1c94:	07000000 	streq	r0, [r0, -r0]
    1c98:	00000844 	andeq	r0, r0, r4, asr #16
    1c9c:	8cf8d101 	ldfhip	f5, [r8], #4
    1ca0:	00d80000 	sbcseq	r0, r8, r0
    1ca4:	9c010000 	stcls	0, cr0, [r1], {-0}
    1ca8:	0000042f 	andeq	r0, r0, pc, lsr #8
    1cac:	6e697008 	cdpvs	0, 6, cr7, cr9, cr8, {0}
    1cb0:	2cd10100 	ldfcse	f0, [r1], {0}
    1cb4:	cb000000 	blgt	1cbc <_start-0x6344>
    1cb8:	1b000013 	blne	1d0c <_start-0x62f4>
    1cbc:	000012bd 			; <UNDEFINED> instruction: 0x000012bd
    1cc0:	00b2d101 	adcseq	sp, r2, r1, lsl #2
    1cc4:	13e90000 	mvnne	r0, #0
    1cc8:	e0090000 	and	r0, r9, r0
    1ccc:	01000007 	tsteq	r0, r7
    1cd0:	000133d9 	ldrdeq	r3, [r1], -r9
    1cd4:	00140a00 	andseq	r0, r4, r0, lsl #20
    1cd8:	09520900 	ldmdbeq	r2, {r8, fp}^
    1cdc:	da010000 	ble	41ce4 <__bss_end__+0x35e24>
    1ce0:	0000002c 	andeq	r0, r0, ip, lsr #32
    1ce4:	0000145f 	andeq	r1, r0, pc, asr r4
    1ce8:	00089109 	andeq	r9, r8, r9, lsl #2
    1cec:	2ce80100 	stfcse	f0, [r8]
    1cf0:	2b000000 	blcs	1cf8 <_start-0x6308>
    1cf4:	0a000016 	beq	1d54 <_start-0x62ac>
    1cf8:	00008d94 	muleq	r0, r4, sp
    1cfc:	0000088e 	andeq	r0, r0, lr, lsl #17
    1d00:	0000041e 	andeq	r0, r0, lr, lsl r4
    1d04:	0250010b 	subseq	r0, r0, #-1073741822	; 0xc0000002
    1d08:	0c000076 	stceq	0, cr0, [r0], {118}	; 0x76
    1d0c:	00008dc4 	andeq	r8, r0, r4, asr #27
    1d10:	000008af 	andeq	r0, r0, pc, lsr #17
    1d14:	0250010b 	subseq	r0, r0, #-1073741822	; 0xc0000002
    1d18:	00000076 	andeq	r0, r0, r6, ror r0
    1d1c:	0007881c 	andeq	r8, r7, ip, lsl r8
    1d20:	01050100 	mrseq	r0, (UNDEF: 21)
    1d24:	00000064 	andeq	r0, r0, r4, rrx
    1d28:	00008dd0 	ldrdeq	r8, [r0], -r0
    1d2c:	0000002c 	andeq	r0, r0, ip, lsr #32
    1d30:	04639c01 	strbteq	r9, [r3], #-3073	; 0xc01
    1d34:	8b1d0000 	blhi	741d3c <__bss_end__+0x735e7c>
    1d38:	01000007 	tsteq	r0, r7
    1d3c:	002c0105 	eoreq	r0, ip, r5, lsl #2
    1d40:	165c0000 	ldrbne	r0, [ip], -r0
    1d44:	e0170000 	ands	r0, r7, r0
    1d48:	8e00008d 	cdphi	0, 0, cr0, cr0, cr13, {4}
    1d4c:	00000008 	andeq	r0, r0, r8
    1d50:	00082f1e 	andeq	r2, r8, lr, lsl pc
    1d54:	01140100 	tsteq	r4, r0, lsl #2
    1d58:	00008dfc 	strdeq	r8, [r0], -ip
    1d5c:	00000084 	andeq	r0, r0, r4, lsl #1
    1d60:	05279c01 	streq	r9, [r7, #-3073]!	; 0xc01
    1d64:	701f0000 	andsvc	r0, pc, r0
    1d68:	01006e69 	tsteq	r0, r9, ror #28
    1d6c:	002c0114 	eoreq	r0, ip, r4, lsl r1
    1d70:	167d0000 	ldrbtne	r0, [sp], -r0
    1d74:	b2200000 	eorlt	r0, r0, #0
    1d78:	01000007 	tsteq	r0, r7
    1d7c:	002c0126 	eoreq	r0, ip, r6, lsr #2
    1d80:	16a90000 	strtne	r0, [r9], r0
    1d84:	18210000 	stmdane	r1!, {}	; <UNPREDICTABLE>
    1d88:	1c00008e 	stcne	0, cr0, [r0], {142}	; 0x8e
    1d8c:	c9000000 	stmdbgt	r0, {}	; <UNPREDICTABLE>
    1d90:	20000004 	andcs	r0, r0, r4
    1d94:	00000891 	muleq	r0, r1, r8
    1d98:	2c011d01 	stccs	13, cr1, [r1], {1}
    1d9c:	c7000000 	strgt	r0, [r0, -r0]
    1da0:	17000016 	smladne	r0, r6, r0, r0
    1da4:	00008e24 	andeq	r8, r0, r4, lsr #28
    1da8:	0000088e 	andeq	r0, r0, lr, lsl #17
    1dac:	008e3417 	addeq	r3, lr, r7, lsl r4
    1db0:	0008af00 	andeq	sl, r8, r0, lsl #30
    1db4:	38210000 	stmdacc	r1!, {}	; <UNPREDICTABLE>
    1db8:	2000008e 	andcs	r0, r0, lr, lsl #1
    1dbc:	f9000000 			; <UNDEFINED> instruction: 0xf9000000
    1dc0:	20000004 	andcs	r0, r0, r4
    1dc4:	00000891 	muleq	r0, r1, r8
    1dc8:	2c012101 	stfcss	f2, [r1], {1}
    1dcc:	e5000000 	str	r0, [r0, #-0]
    1dd0:	17000016 	smladne	r0, r6, r0, r0
    1dd4:	00008e44 	andeq	r8, r0, r4, asr #28
    1dd8:	0000088e 	andeq	r0, r0, lr, lsl #17
    1ddc:	008e5817 	addeq	r5, lr, r7, lsl r8
    1de0:	0008af00 	andeq	sl, r8, r0, lsl #30
    1de4:	10170000 	andsne	r0, r7, r0
    1de8:	cb00008e 	blgt	2028 <_start-0x5fd8>
    1dec:	17000008 	strne	r0, [r0, -r8]
    1df0:	00008e5c 	andeq	r8, r0, ip, asr lr
    1df4:	000008cb 	andeq	r0, r0, fp, asr #17
    1df8:	008e6817 	addeq	r6, lr, r7, lsl r8
    1dfc:	00088e00 	andeq	r8, r8, r0, lsl #28
    1e00:	8e741700 	cdphi	7, 7, cr1, cr4, cr0, {0}
    1e04:	08af0000 	stmiaeq	pc!, {}	; <UNPREDICTABLE>
    1e08:	78170000 	ldmdavc	r7, {}	; <UNPREDICTABLE>
    1e0c:	cb00008e 	blgt	204c <_start-0x5fb4>
    1e10:	00000008 	andeq	r0, r0, r8
    1e14:	0008d61e 	andeq	sp, r8, lr, lsl r6
    1e18:	01310100 	teqeq	r1, r0, lsl #2
    1e1c:	00008e80 	andeq	r8, r0, r0, lsl #29
    1e20:	00000084 	andeq	r0, r0, r4, lsl #1
    1e24:	05eb9c01 	strbeq	r9, [fp, #3073]!	; 0xc01
    1e28:	701f0000 	andsvc	r0, pc, r0
    1e2c:	01006e69 	tsteq	r0, r9, ror #28
    1e30:	002c0131 	eoreq	r0, ip, r1, lsr r1
    1e34:	17030000 	strne	r0, [r3, -r0]
    1e38:	b2200000 	eorlt	r0, r0, #0
    1e3c:	01000007 	tsteq	r0, r7
    1e40:	002c0142 	eoreq	r0, ip, r2, asr #2
    1e44:	172f0000 	strne	r0, [pc, -r0]!
    1e48:	9c210000 	stcls	0, cr0, [r1], #-0
    1e4c:	1c00008e 	stcne	0, cr0, [r0], {142}	; 0x8e
    1e50:	8d000000 	stchi	0, cr0, [r0, #-0]
    1e54:	20000005 	andcs	r0, r0, r5
    1e58:	00000891 	muleq	r0, r1, r8
    1e5c:	2c013901 	stccs	9, cr3, [r1], {1}
    1e60:	4d000000 	stcmi	0, cr0, [r0, #-0]
    1e64:	17000017 	smladne	r0, r7, r0, r0
    1e68:	00008ea8 	andeq	r8, r0, r8, lsr #29
    1e6c:	0000088e 	andeq	r0, r0, lr, lsl #17
    1e70:	008eb817 	addeq	fp, lr, r7, lsl r8
    1e74:	0008af00 	andeq	sl, r8, r0, lsl #30
    1e78:	bc210000 	stclt	0, cr0, [r1], #-0
    1e7c:	2000008e 	andcs	r0, r0, lr, lsl #1
    1e80:	bd000000 	stclt	0, cr0, [r0, #-0]
    1e84:	20000005 	andcs	r0, r0, r5
    1e88:	00000891 	muleq	r0, r1, r8
    1e8c:	2c013d01 	stccs	13, cr3, [r1], {1}
    1e90:	6b000000 	blvs	1e98 <_start-0x6168>
    1e94:	17000017 	smladne	r0, r7, r0, r0
    1e98:	00008ec8 	andeq	r8, r0, r8, asr #29
    1e9c:	0000088e 	andeq	r0, r0, lr, lsl #17
    1ea0:	008edc17 	addeq	sp, lr, r7, lsl ip
    1ea4:	0008af00 	andeq	sl, r8, r0, lsl #30
    1ea8:	94170000 	ldrls	r0, [r7], #-0
    1eac:	cb00008e 	blgt	20ec <_start-0x5f14>
    1eb0:	17000008 	strne	r0, [r0, -r8]
    1eb4:	00008ee0 	andeq	r8, r0, r0, ror #29
    1eb8:	000008cb 	andeq	r0, r0, fp, asr #17
    1ebc:	008eec17 	addeq	lr, lr, r7, lsl ip
    1ec0:	00088e00 	andeq	r8, r8, r0, lsl #28
    1ec4:	8ef81700 	cdphi	7, 15, cr1, cr8, cr0, {0}
    1ec8:	08af0000 	stmiaeq	pc!, {}	; <UNPREDICTABLE>
    1ecc:	fc170000 	ldc2	0, cr0, [r7], {-0}
    1ed0:	cb00008e 	blgt	2110 <_start-0x5ef0>
    1ed4:	00000008 	andeq	r0, r0, r8
    1ed8:	0007511c 	andeq	r5, r7, ip, lsl r1
    1edc:	014c0100 	mrseq	r0, (UNDEF: 92)
    1ee0:	00000064 	andeq	r0, r0, r4, rrx
    1ee4:	00008f04 	andeq	r8, r0, r4, lsl #30
    1ee8:	00000084 	andeq	r0, r0, r4, lsl #1
    1eec:	06919c01 	ldreq	r9, [r1], r1, lsl #24
    1ef0:	701f0000 	andsvc	r0, pc, r0
    1ef4:	01006e69 	tsteq	r0, r9, ror #28
    1ef8:	002c014c 	eoreq	r0, ip, ip, asr #2
    1efc:	17890000 	strne	r0, [r9, r0]
    1f00:	20210000 	eorcs	r0, r1, r0
    1f04:	2400008f 	strcs	r0, [r0], #-143	; 0x8f
    1f08:	45000000 	strmi	r0, [r0, #-0]
    1f0c:	20000006 	andcs	r0, r0, r6
    1f10:	000007c9 	andeq	r0, r0, r9, asr #15
    1f14:	2c015301 	stccs	3, cr5, [r1], {1}
    1f18:	cb000000 	blgt	1f20 <_start-0x60e0>
    1f1c:	17000017 	smladne	r0, r7, r0, r0
    1f20:	00008f2c 	andeq	r8, r0, ip, lsr #30
    1f24:	0000088e 	andeq	r0, r0, lr, lsl #17
    1f28:	008f3c17 	addeq	r3, pc, r7, lsl ip	; <UNPREDICTABLE>
    1f2c:	0008cb00 	andeq	ip, r8, r0, lsl #22
    1f30:	44210000 	strtmi	r0, [r1], #-0
    1f34:	2c00008f 	stccs	0, cr0, [r0], {143}	; 0x8f
    1f38:	7e000000 	cdpvc	0, 0, cr0, cr0, cr0, {0}
    1f3c:	20000006 	andcs	r0, r0, r6
    1f40:	000007c9 	andeq	r0, r0, r9, asr #15
    1f44:	2c015601 	stccs	6, cr5, [r1], {1}
    1f48:	e5000000 	str	r0, [r0, #-0]
    1f4c:	17000017 	smladne	r0, r7, r0, r0
    1f50:	00008f50 	andeq	r8, r0, r0, asr pc
    1f54:	0000088e 	andeq	r0, r0, lr, lsl #17
    1f58:	008f5c17 	addeq	r5, pc, r7, lsl ip	; <UNPREDICTABLE>
    1f5c:	0008cb00 	andeq	ip, r8, r0, lsl #22
    1f60:	8f681700 	svchi	0x00681700
    1f64:	08cb0000 	stmiaeq	fp, {}^	; <UNPREDICTABLE>
    1f68:	17000000 	strne	r0, [r0, -r0]
    1f6c:	00008f18 	andeq	r8, r0, r8, lsl pc
    1f70:	000008cb 	andeq	r0, r0, fp, asr #17
    1f74:	008f7417 	addeq	r7, pc, r7, lsl r4	; <UNPREDICTABLE>
    1f78:	0008cb00 	andeq	ip, r8, r0, lsl #22
    1f7c:	641e0000 	ldrvs	r0, [lr], #-0
    1f80:	01000008 	tsteq	r0, r8
    1f84:	8f88015f 	svchi	0x0088015f
    1f88:	00580000 	subseq	r0, r8, r0
    1f8c:	9c010000 	stcls	0, cr0, [r1], {-0}
    1f90:	000006f6 	strdeq	r0, [r0], -r6
    1f94:	6e69701f 	mcrvs	0, 3, r7, cr9, cr15, {0}
    1f98:	015f0100 	cmpeq	pc, r0, lsl #2
    1f9c:	0000002c 	andeq	r0, r0, ip, lsr #32
    1fa0:	000017f8 	strdeq	r1, [r0], -r8
    1fa4:	008f9c17 	addeq	r9, pc, r7, lsl ip	; <UNPREDICTABLE>
    1fa8:	0008cb00 	andeq	ip, r8, r0, lsl #22
    1fac:	8fb80a00 	svchi	0x00b80a00
    1fb0:	08af0000 	stmiaeq	pc!, {}	; <UNPREDICTABLE>
    1fb4:	06d60000 	ldrbeq	r0, [r6], r0
    1fb8:	010b0000 	mrseq	r0, (UNDEF: 11)
    1fbc:	74310451 	ldrtvc	r0, [r1], #-1105	; 0x451
    1fc0:	0a002400 	beq	afc8 <getQ+0x13c>
    1fc4:	00008fd4 	ldrdeq	r8, [r0], -r4
    1fc8:	000008af 	andeq	r0, r0, pc, lsr #17
    1fcc:	000006ec 	andeq	r0, r0, ip, ror #13
    1fd0:	0451010b 	ldrbeq	r0, [r1], #-267	; 0x10b
    1fd4:	24007431 	strcs	r7, [r0], #-1073	; 0x431
    1fd8:	8fd81700 	svchi	0x00d81700
    1fdc:	08cb0000 	stmiaeq	fp, {}^	; <UNPREDICTABLE>
    1fe0:	22000000 	andcs	r0, r0, #0
    1fe4:	0000081d 	andeq	r0, r0, sp, lsl r8
    1fe8:	01332801 	teqeq	r3, r1, lsl #16
    1fec:	03050000 	movweq	r0, #20480	; 0x5000
    1ff0:	0000a384 	andeq	sl, r0, r4, lsl #7
    1ff4:	00089922 	andeq	r9, r8, r2, lsr #18
    1ff8:	33290100 	teqcc	r9, #0, 2
    1ffc:	05000001 	streq	r0, [r0, #-1]
    2000:	00a38003 	adceq	r8, r3, r3
    2004:	095d2200 	ldmdbeq	sp, {r9, sp}^
    2008:	2a010000 	bcs	42010 <__bss_end__+0x36150>
    200c:	00000133 	andeq	r0, r0, r3, lsr r1
    2010:	a37c0305 	cmnge	ip, #335544320	; 0x14000000
    2014:	e9220000 	stmdb	r2!, {}	; <UNPREDICTABLE>
    2018:	01000007 	tsteq	r0, r7
    201c:	0001332c 	andeq	r3, r1, ip, lsr #6
    2020:	28030500 	stmdacs	r3, {r8, sl}
    2024:	220000a3 	andcs	r0, r0, #163	; 0xa3
    2028:	000007f1 	strdeq	r0, [r0], -r1
    202c:	01332d01 	teqeq	r3, r1, lsl #26
    2030:	03050000 	movweq	r0, #20480	; 0x5000
    2034:	0000a32c 	andeq	sl, r0, ip, lsr #6
    2038:	00076b22 	andeq	r6, r7, r2, lsr #22
    203c:	332e0100 	teqcc	lr, #0, 2
    2040:	05000001 	streq	r0, [r0, #-1]
    2044:	00a33003 	adceq	r3, r3, r3
    2048:	07f92200 	ldrbeq	r2, [r9, r0, lsl #4]!
    204c:	2f010000 	svccs	0x00010000
    2050:	00000133 	andeq	r0, r0, r3, lsr r1
    2054:	a3340305 	teqge	r4, #335544320	; 0x14000000
    2058:	01220000 	teqeq	r2, r0
    205c:	01000008 	tsteq	r0, r8
    2060:	00013330 	andeq	r3, r1, r0, lsr r3
    2064:	38030500 	stmdacc	r3, {r8, sl}
    2068:	220000a3 	andcs	r0, r0, #163	; 0xa3
    206c:	00000809 	andeq	r0, r0, r9, lsl #16
    2070:	01333101 	teqeq	r3, r1, lsl #2
    2074:	03050000 	movweq	r0, #20480	; 0x5000
    2078:	0000a33c 	andeq	sl, r0, ip, lsr r3
    207c:	0007bb22 	andeq	fp, r7, r2, lsr #22
    2080:	33330100 	teqcc	r3, #0, 2
    2084:	05000001 	streq	r0, [r0, #-1]
    2088:	00a34003 	adceq	r4, r3, r3
    208c:	07c22200 	strbeq	r2, [r2, r0, lsl #4]
    2090:	34010000 	strcc	r0, [r1], #-0
    2094:	00000133 	andeq	r0, r0, r3, lsr r1
    2098:	a3440305 	movtge	r0, #17157	; 0x4305
    209c:	73220000 	teqvc	r2, #0
    20a0:	01000007 	tsteq	r0, r7
    20a4:	00013336 	andeq	r3, r1, r6, lsr r3
    20a8:	48030500 	stmdami	r3, {r8, sl}
    20ac:	220000a3 	andcs	r0, r0, #163	; 0xa3
    20b0:	00000828 	andeq	r0, r0, r8, lsr #16
    20b4:	01333701 	teqeq	r3, r1, lsl #14
    20b8:	03050000 	movweq	r0, #20480	; 0x5000
    20bc:	0000a34c 	andeq	sl, r0, ip, asr #6
    20c0:	0007d222 	andeq	sp, r7, r2, lsr #4
    20c4:	33390100 	teqcc	r9, #0, 2
    20c8:	05000001 	streq	r0, [r0, #-1]
    20cc:	00a35003 	adceq	r5, r3, r3
    20d0:	07d92200 	ldrbeq	r2, [r9, r0, lsl #4]
    20d4:	3a010000 	bcc	420dc <__bss_end__+0x3621c>
    20d8:	00000133 	andeq	r0, r0, r3, lsr r1
    20dc:	a3540305 	cmpge	r4, #335544320	; 0x14000000
    20e0:	75220000 	strvc	r0, [r2, #-0]!
    20e4:	01000008 	tsteq	r0, r8
    20e8:	000133f0 	strdeq	r3, [r1], -r0
    20ec:	78030500 	stmdavc	r3, {r8, sl}
    20f0:	220000a3 	andcs	r0, r0, #163	; 0xa3
    20f4:	00000883 	andeq	r0, r0, r3, lsl #17
    20f8:	0133f101 	teqeq	r3, r1, lsl #2
    20fc:	03050000 	movweq	r0, #20480	; 0x5000
    2100:	0000a358 	andeq	sl, r0, r8, asr r3
    2104:	0008a322 	andeq	sl, r8, r2, lsr #6
    2108:	33f30100 	mvnscc	r0, #0, 2
    210c:	05000001 	streq	r0, [r0, #-1]
    2110:	00a37003 	adceq	r7, r3, r3
    2114:	08aa2200 	stmiaeq	sl!, {r9, sp}
    2118:	f4010000 	vst4.8	{d0-d3}, [r1], r0
    211c:	00000133 	andeq	r0, r0, r3, lsr r1
    2120:	a3740305 	cmnge	r4, #335544320	; 0x14000000
    2124:	56220000 	strtpl	r0, [r2], -r0
    2128:	01000008 	tsteq	r0, r8
    212c:	000133f6 	strdeq	r3, [r1], -r6
    2130:	5c030500 	cfstr32pl	mvfx0, [r3], {-0}
    2134:	220000a3 	andcs	r0, r0, #163	; 0xa3
    2138:	0000085d 	andeq	r0, r0, sp, asr r8
    213c:	0133f701 	teqeq	r3, r1, lsl #14
    2140:	03050000 	movweq	r0, #20480	; 0x5000
    2144:	0000a360 	andeq	sl, r0, r0, ror #6
    2148:	0008b122 	andeq	fp, r8, r2, lsr #2
    214c:	33f90100 	mvnscc	r0, #0, 2
    2150:	05000001 	streq	r0, [r0, #-1]
    2154:	00a36803 	adceq	r6, r3, r3, lsl #16
    2158:	08b82200 	ldmeq	r8!, {r9, sp}
    215c:	fa010000 	blx	42164 <__bss_end__+0x362a4>
    2160:	00000133 	andeq	r0, r0, r3, lsr r1
    2164:	a36c0305 	cmnge	ip, #335544320	; 0x14000000
    2168:	7a220000 	bvc	882170 <__bss_end__+0x8762b0>
    216c:	01000007 	tsteq	r0, r7
    2170:	000133fc 	strdeq	r3, [r1], -ip
    2174:	64030500 	strvs	r0, [r3], #-1280	; 0x500
    2178:	230000a3 	movwcs	r0, #163	; 0xa3
    217c:	000008d0 	ldrdeq	r0, [r0], -r0	; <UNPREDICTABLE>
    2180:	002c2001 	eoreq	r2, ip, r1
    2184:	08a30000 	stmiaeq	r3!, {}	; <UNPREDICTABLE>
    2188:	a3240000 	teqge	r4, #0
    218c:	00000008 	andeq	r0, r0, r8
    2190:	08a9040d 	stmiaeq	r9!, {r0, r2, r3, sl}
    2194:	ae250000 	cdpge	0, 2, cr0, cr5, cr0, {0}
    2198:	26000008 	strcs	r0, [r0], -r8
    219c:	00076527 	andeq	r6, r7, r7, lsr #10
    21a0:	c51e0100 	ldrgt	r0, [lr, #-256]	; 0x100
    21a4:	24000008 	strcs	r0, [r0], #-8
    21a8:	000008c5 	andeq	r0, r0, r5, asr #17
    21ac:	00002c24 	andeq	r2, r0, r4, lsr #24
    21b0:	040d0000 	streq	r0, [sp], #-0
    21b4:	000008ae 	andeq	r0, r0, lr, lsr #17
    21b8:	00081128 	andeq	r1, r8, r8, lsr #2
    21bc:	00870300 	addeq	r0, r7, r0, lsl #6
    21c0:	000011ca 	andeq	r1, r0, sl, asr #3
    21c4:	0cd70004 	ldcleq	0, cr0, [r7], {4}
    21c8:	01040000 	mrseq	r0, (UNDEF: 4)
    21cc:	000002e3 	andeq	r0, r0, r3, ror #5
    21d0:	0009fc01 	andeq	pc, r9, r1, lsl #24
    21d4:	00047d00 	andeq	r7, r4, r0, lsl #26
    21d8:	008fe000 	addeq	lr, pc, r0
    21dc:	00062000 	andeq	r2, r6, r0
    21e0:	000ae800 	andeq	lr, sl, r0, lsl #16
    21e4:	05040200 	streq	r0, [r4, #-512]	; 0x200
    21e8:	00746e69 	rsbseq	r6, r4, r9, ror #28
    21ec:	3d070403 	cfstrscc	mvf0, [r7, #-12]
    21f0:	03000000 	movweq	r0, #0
    21f4:	02520601 	subseq	r0, r2, #1048576	; 0x100000
    21f8:	02030000 	andeq	r0, r3, #0
    21fc:	00027705 	andeq	r7, r2, r5, lsl #14
    2200:	05040300 	streq	r0, [r4, #-768]	; 0x300
    2204:	0000007b 	andeq	r0, r0, fp, ror r0
    2208:	76050803 	strvc	r0, [r5], -r3, lsl #16
    220c:	04000000 	streq	r0, [r0], #-0
    2210:	0000040a 	andeq	r0, r0, sl, lsl #8
    2214:	005a2e03 	subseq	r2, sl, r3, lsl #28
    2218:	01030000 	mrseq	r0, (UNDEF: 3)
    221c:	00025008 	andeq	r5, r2, r8
    2220:	07020300 	streq	r0, [r2, -r0, lsl #6]
    2224:	00000163 	andeq	r0, r0, r3, ror #2
    2228:	0002b304 	andeq	fp, r2, r4, lsl #6
    222c:	73340300 	teqvc	r4, #0, 6
    2230:	03000000 	movweq	r0, #0
    2234:	00380704 	eorseq	r0, r8, r4, lsl #14
    2238:	08030000 	stmdaeq	r3, {}	; <UNPREDICTABLE>
    223c:	00003307 	andeq	r3, r0, r7, lsl #6
    2240:	07040300 	streq	r0, [r4, -r0, lsl #6]
    2244:	000001eb 	andeq	r0, r0, fp, ror #3
    2248:	04060405 	streq	r0, [r6], #-1029	; 0x405
    224c:	00000090 	muleq	r0, r0, r0
    2250:	59080103 	stmdbpl	r8, {r0, r1, r8}
    2254:	06000002 	streq	r0, [r0], -r2
    2258:	00009d04 	andeq	r9, r0, r4, lsl #26
    225c:	00900700 	addseq	r0, r0, r0, lsl #14
    2260:	0c080000 	stceq	0, cr0, [r8], {-0}
    2264:	00d90e04 	sbcseq	r0, r9, r4, lsl #28
    2268:	74090000 	strvc	r0, [r9], #-0
    226c:	0f040078 	svceq	0x00040078
    2270:	0000004f 	andeq	r0, r0, pc, asr #32
    2274:	78720900 	ldmdavc	r2!, {r8, fp}^
    2278:	4f0f0400 	svcmi	0x000f0400
    227c:	01000000 	mrseq	r0, (UNDEF: 0)
    2280:	0006040a 	andeq	r0, r6, sl, lsl #8
    2284:	68100400 	ldmdavs	r0, {sl}
    2288:	04000000 	streq	r0, [r0], #-0
    228c:	0005b50a 	andeq	fp, r5, sl, lsl #10
    2290:	68110400 	ldmdavs	r1, {sl}
    2294:	08000000 	stmdaeq	r0, {}	; <UNPREDICTABLE>
    2298:	05ed0400 	strbeq	r0, [sp, #1024]!	; 0x400
    229c:	12040000 	andne	r0, r4, #0
    22a0:	000000a2 	andeq	r0, r0, r2, lsr #1
    22a4:	00044c04 	andeq	r4, r4, r4, lsl #24
    22a8:	ef280500 	svc	0x00280500
    22ac:	0b000000 	bleq	22b4 <_start-0x5d4c>
    22b0:	00000473 	andeq	r0, r0, r3, ror r4
    22b4:	06000904 	streq	r0, [r0], -r4, lsl #18
    22b8:	0c000001 	stceq	0, cr0, [r0], {1}
    22bc:	000004c1 	andeq	r0, r0, r1, asr #9
    22c0:	00000088 	andeq	r0, r0, r8, lsl #1
    22c4:	75040000 	strvc	r0, [r4, #-0]
    22c8:	05000004 	streq	r0, [r0, #-4]
    22cc:	0000e462 	andeq	lr, r0, r2, ror #8
    22d0:	09c00d00 	stmibeq	r0, {r8, sl, fp}^
    22d4:	09020000 	stmdbeq	r2, {}	; <UNPREDICTABLE>
    22d8:	00013f03 	andeq	r3, r1, r3, lsl #30
    22dc:	06180e00 	ldreq	r0, [r8], -r0, lsl #28
    22e0:	09020000 	stmdbeq	r2, {}	; <UNPREDICTABLE>
    22e4:	0000002c 	andeq	r0, r0, ip, lsr #32
    22e8:	02006e0f 	andeq	r6, r0, #15, 28	; 0xf0
    22ec:	00002c09 	andeq	r2, r0, r9, lsl #24
    22f0:	2a111000 	bcs	4462f8 <__bss_end__+0x43a438>
    22f4:	0200000a 	andeq	r0, r0, #10
    22f8:	00002c0c 	andeq	r2, r0, ip, lsl #24
    22fc:	0d000000 	stceq	0, cr0, [r0, #-0]
    2300:	00000973 	andeq	r0, r0, r3, ror r9
    2304:	76031702 	strvc	r1, [r3], -r2, lsl #14
    2308:	0f000001 	svceq	0x00000001
    230c:	006e6970 	rsbeq	r6, lr, r0, ror r9
    2310:	002c1702 	eoreq	r1, ip, r2, lsl #14
    2314:	760f0000 	strvc	r0, [pc], -r0
    2318:	2c170200 	lfmcs	f0, 4, [r7], {-0}
    231c:	0e000000 	cdpeq	0, 0, cr0, cr0, cr0, {0}
    2320:	00000618 	andeq	r0, r0, r8, lsl r6
    2324:	002c1702 	eoreq	r1, ip, r2, lsl #14
    2328:	c60e0000 	strgt	r0, [lr], -r0
    232c:	02000009 	andeq	r0, r0, #9
    2330:	00002c17 	andeq	r2, r0, r7, lsl ip
    2334:	29120000 	ldmdbcs	r2, {}	; <UNPREDICTABLE>
    2338:	01000006 	tsteq	r0, r6
    233c:	008fe009 	addeq	lr, pc, r9
    2340:	00015400 	andeq	r5, r1, r0, lsl #8
    2344:	229c0100 	addscs	r0, ip, #0, 2
    2348:	13000007 	movwne	r0, #7
    234c:	000005cb 	andeq	r0, r0, fp, asr #11
    2350:	07220901 	streq	r0, [r2, -r1, lsl #18]!
    2354:	18240000 	stmdane	r4!, {}	; <UNPREDICTABLE>
    2358:	63140000 	tstvs	r4, #0
    235c:	5a090100 	bpl	242764 <__bss_end__+0x2368a4>
    2360:	45000000 	strmi	r0, [r0, #-0]
    2364:	15000018 	strne	r0, [r0, #-24]
    2368:	01007874 	tsteq	r0, r4, ror r8
    236c:	0000250b 	andeq	r2, r0, fp, lsl #10
    2370:	00760600 	rsbseq	r0, r6, r0, lsl #12
    2374:	9f1aff08 	svcls	0x001aff08
    2378:	01006e16 	tsteq	r0, r6, lsl lr
    237c:	0000680c 	andeq	r6, r0, ip, lsl #16
    2380:	00186600 	andseq	r6, r8, r0, lsl #12
    2384:	00751600 	rsbseq	r1, r5, r0, lsl #12
    2388:	00680d01 	rsbeq	r0, r8, r1, lsl #26
    238c:	18790000 	ldmdane	r9!, {}^	; <UNPREDICTABLE>
    2390:	73150000 	tstvc	r5, #0
    2394:	680e0100 	stmdavs	lr, {r8}
    2398:	01000000 	mrseq	r0, (UNDEF: 0)
    239c:	8ff01754 	svchi	0x00f01754
    23a0:	00040000 	andeq	r0, r4, r0
    23a4:	01f80000 	mvnseq	r0, r0
    23a8:	2a180000 	bcs	6023b0 <__bss_end__+0x5f64f0>
    23ac:	0100000a 	tsteq	r0, sl
    23b0:	00002c0e 	andeq	r2, r0, lr, lsl #24
    23b4:	00540100 	subseq	r0, r4, r0, lsl #2
    23b8:	00013f19 	andeq	r3, r1, r9, lsl pc
    23bc:	008ff400 	addeq	pc, pc, r0, lsl #8
    23c0:	00001c00 	andeq	r1, r0, r0, lsl #24
    23c4:	75110100 	ldrvc	r0, [r1, #-256]	; 0x100
    23c8:	1a000002 	bne	23d8 <_start-0x5c28>
    23cc:	0000016a 	andeq	r0, r0, sl, ror #2
    23d0:	000018a2 	andeq	r1, r0, r2, lsr #17
    23d4:	00015f1b 	andeq	r5, r1, fp, lsl pc
    23d8:	1c540100 	ldfnee	f0, [r4], {-0}
    23dc:	00000156 	andeq	r0, r0, r6, asr r1
    23e0:	014b1b00 	cmpeq	fp, r0, lsl #22
    23e4:	56010000 	strpl	r0, [r1], -r0
    23e8:	00011119 	andeq	r1, r1, r9, lsl r1
    23ec:	00900000 	addseq	r0, r0, r0
    23f0:	00001000 	andeq	r1, r0, r0
    23f4:	5f1a0200 	svcpl	0x001a0200
    23f8:	1a000002 	bne	2408 <_start-0x5bf8>
    23fc:	00000128 	andeq	r0, r0, r8, lsr #2
    2400:	000018b5 			; <UNDEFINED> instruction: 0x000018b5
    2404:	00011d1b 	andeq	r1, r1, fp, lsl sp
    2408:	1d540100 	ldfnee	f0, [r4, #-0]
    240c:	00009000 	andeq	r9, r0, r0
    2410:	00000004 	andeq	r0, r0, r4
    2414:	0001321e 	andeq	r3, r1, lr, lsl r2
    2418:	0018c800 	andseq	ip, r8, r0, lsl #16
    241c:	1f000000 	svcne	0x00000000
    2420:	00009000 	andeq	r9, r0, r0
    2424:	00001131 	andeq	r1, r0, r1, lsr r1
    2428:	01510120 	cmpeq	r1, r0, lsr #2
    242c:	50012030 	andpl	r2, r1, r0, lsr r0
    2430:	00007602 	andeq	r7, r0, r2, lsl #12
    2434:	013f1900 	teqeq	pc, r0, lsl #18
    2438:	90140000 	andsls	r0, r4, r0
    243c:	001c0000 	andseq	r0, ip, r0
    2440:	13010000 	movwne	r0, #4096	; 0x1000
    2444:	000002f8 	strdeq	r0, [r0], -r8
    2448:	00016a1a 	andeq	r6, r1, sl, lsl sl
    244c:	0018db00 	andseq	sp, r8, r0, lsl #22
    2450:	015f1b00 	cmpeq	pc, r0, lsl #22
    2454:	54010000 	strpl	r0, [r1], #-0
    2458:	0001561a 	andeq	r5, r1, sl, lsl r6
    245c:	0018fd00 	andseq	pc, r8, r0, lsl #26
    2460:	014b1b00 	cmpeq	fp, r0, lsl #22
    2464:	56010000 	strpl	r0, [r1], -r0
    2468:	00011119 	andeq	r1, r1, r9, lsl r1
    246c:	00902000 	addseq	r2, r0, r0
    2470:	00001000 	andeq	r1, r0, r0
    2474:	df1a0200 	svcle	0x001a0200
    2478:	1a000002 	bne	2488 <_start-0x5b78>
    247c:	00000128 	andeq	r0, r0, r8, lsr #2
    2480:	0000192e 	andeq	r1, r0, lr, lsr #18
    2484:	00011d1b 	andeq	r1, r1, fp, lsl sp
    2488:	1d540100 	ldfnee	f0, [r4, #-0]
    248c:	00009020 	andeq	r9, r0, r0, lsr #32
    2490:	00000004 	andeq	r0, r0, r4
    2494:	0001321e 	andeq	r3, r1, lr, lsl r2
    2498:	00195000 	andseq	r5, r9, r0
    249c:	1f000000 	svcne	0x00000000
    24a0:	00009020 	andeq	r9, r0, r0, lsr #32
    24a4:	00001131 	andeq	r1, r0, r1, lsr r1
    24a8:	04510120 	ldrbeq	r0, [r1], #-288	; 0x120
    24ac:	1a310077 	bne	c42690 <__bss_end__+0xc367d0>
    24b0:	02500120 	subseq	r0, r0, #32, 2
    24b4:	00000076 	andeq	r0, r0, r6, ror r0
    24b8:	00013f19 	andeq	r3, r1, r9, lsl pc
    24bc:	00903400 	addseq	r3, r0, r0, lsl #8
    24c0:	00001c00 	andeq	r1, r0, r0, lsl #24
    24c4:	80150100 	andshi	r0, r5, r0, lsl #2
    24c8:	1a000003 	bne	24dc <_start-0x5b24>
    24cc:	0000016a 	andeq	r0, r0, sl, ror #2
    24d0:	00001963 	andeq	r1, r0, r3, ror #18
    24d4:	00015f1b 	andeq	r5, r1, fp, lsl pc
    24d8:	1b540100 	blne	15028e0 <__bss_end__+0x14f6a20>
    24dc:	00000156 	andeq	r0, r0, r6, asr r1
    24e0:	32007708 	andcc	r7, r0, #8, 14	; 0x200000
    24e4:	1aff081a 	bne	fffc4554 <__bss_end__+0xfffb8694>
    24e8:	014b1b9f 			; <UNDEFINED> instruction: 0x014b1b9f
    24ec:	56010000 	strpl	r0, [r1], -r0
    24f0:	00011119 	andeq	r1, r1, r9, lsl r1
    24f4:	00904000 	addseq	r4, r0, r0
    24f8:	00001000 	andeq	r1, r0, r0
    24fc:	671a0200 	ldrvs	r0, [sl, -r0, lsl #4]
    2500:	1a000003 	bne	2514 <_start-0x5aec>
    2504:	00000128 	andeq	r0, r0, r8, lsr #2
    2508:	00001988 	andeq	r1, r0, r8, lsl #19
    250c:	00011d1b 	andeq	r1, r1, fp, lsl sp
    2510:	1d540100 	ldfnee	f0, [r4, #-0]
    2514:	00009040 	andeq	r9, r0, r0, asr #32
    2518:	00000004 	andeq	r0, r0, r4
    251c:	0001321e 	andeq	r3, r1, lr, lsl r2
    2520:	0019ad00 	andseq	sl, r9, r0, lsl #26
    2524:	1f000000 	svcne	0x00000000
    2528:	00009040 	andeq	r9, r0, r0, asr #32
    252c:	00001131 	andeq	r1, r0, r1, lsr r1
    2530:	04510120 	ldrbeq	r0, [r1], #-288	; 0x120
    2534:	1a320077 	bne	c82718 <__bss_end__+0xc76858>
    2538:	02500120 	subseq	r0, r0, #32, 2
    253c:	00000076 	andeq	r0, r0, r6, ror r0
    2540:	00013f19 	andeq	r3, r1, r9, lsl pc
    2544:	00905400 	addseq	r5, r0, r0, lsl #8
    2548:	00001c00 	andeq	r1, r0, r0, lsl #24
    254c:	08170100 	ldmdaeq	r7, {r8}
    2550:	1a000004 	bne	2568 <_start-0x5a98>
    2554:	0000016a 	andeq	r0, r0, sl, ror #2
    2558:	000019c0 	andeq	r1, r0, r0, asr #19
    255c:	00015f1b 	andeq	r5, r1, fp, lsl pc
    2560:	1b540100 	blne	1502968 <__bss_end__+0x14f6aa8>
    2564:	00000156 	andeq	r0, r0, r6, asr r1
    2568:	34007708 	strcc	r7, [r0], #-1800	; 0x708
    256c:	1aff081a 	bne	fffc45dc <__bss_end__+0xfffb871c>
    2570:	014b1b9f 			; <UNDEFINED> instruction: 0x014b1b9f
    2574:	56010000 	strpl	r0, [r1], -r0
    2578:	00011119 	andeq	r1, r1, r9, lsl r1
    257c:	00906000 	addseq	r6, r0, r0
    2580:	00001000 	andeq	r1, r0, r0
    2584:	ef1a0200 	svc	0x001a0200
    2588:	1a000003 	bne	259c <_start-0x5a64>
    258c:	00000128 	andeq	r0, r0, r8, lsr #2
    2590:	000019e2 	andeq	r1, r0, r2, ror #19
    2594:	00011d1b 	andeq	r1, r1, fp, lsl sp
    2598:	1d540100 	ldfnee	f0, [r4, #-0]
    259c:	00009060 	andeq	r9, r0, r0, rrx
    25a0:	00000004 	andeq	r0, r0, r4
    25a4:	0001321e 	andeq	r3, r1, lr, lsl r2
    25a8:	001a0400 	andseq	r0, sl, r0, lsl #8
    25ac:	1f000000 	svcne	0x00000000
    25b0:	00009060 	andeq	r9, r0, r0, rrx
    25b4:	00001131 	andeq	r1, r0, r1, lsr r1
    25b8:	04510120 	ldrbeq	r0, [r1], #-288	; 0x120
    25bc:	1a340077 	bne	d027a0 <__bss_end__+0xcf68e0>
    25c0:	02500120 	subseq	r0, r0, #32, 2
    25c4:	00000076 	andeq	r0, r0, r6, ror r0
    25c8:	00013f19 	andeq	r3, r1, r9, lsl pc
    25cc:	00907400 	addseq	r7, r0, r0, lsl #8
    25d0:	00001c00 	andeq	r1, r0, r0, lsl #24
    25d4:	90190100 	andsls	r0, r9, r0, lsl #2
    25d8:	1a000004 	bne	25f0 <_start-0x5a10>
    25dc:	0000016a 	andeq	r0, r0, sl, ror #2
    25e0:	00001a17 	andeq	r1, r0, r7, lsl sl
    25e4:	00015f1b 	andeq	r5, r1, fp, lsl pc
    25e8:	1b540100 	blne	15029f0 <__bss_end__+0x14f6b30>
    25ec:	00000156 	andeq	r0, r0, r6, asr r1
    25f0:	38007708 	stmdacc	r0, {r3, r8, r9, sl, ip, sp, lr}
    25f4:	1aff081a 	bne	fffc4664 <__bss_end__+0xfffb87a4>
    25f8:	014b1b9f 			; <UNDEFINED> instruction: 0x014b1b9f
    25fc:	56010000 	strpl	r0, [r1], -r0
    2600:	00011119 	andeq	r1, r1, r9, lsl r1
    2604:	00908000 	addseq	r8, r0, r0
    2608:	00001000 	andeq	r1, r0, r0
    260c:	771a0200 	ldrvc	r0, [sl, -r0, lsl #4]
    2610:	1a000004 	bne	2628 <_start-0x59d8>
    2614:	00000128 	andeq	r0, r0, r8, lsr #2
    2618:	00001a3c 	andeq	r1, r0, ip, lsr sl
    261c:	00011d1b 	andeq	r1, r1, fp, lsl sp
    2620:	1d540100 	ldfnee	f0, [r4, #-0]
    2624:	00009080 	andeq	r9, r0, r0, lsl #1
    2628:	00000004 	andeq	r0, r0, r4
    262c:	0001321e 	andeq	r3, r1, lr, lsl r2
    2630:	001a6100 	andseq	r6, sl, r0, lsl #2
    2634:	1f000000 	svcne	0x00000000
    2638:	00009080 	andeq	r9, r0, r0, lsl #1
    263c:	00001131 	andeq	r1, r0, r1, lsr r1
    2640:	04510120 	ldrbeq	r0, [r1], #-288	; 0x120
    2644:	1a380077 	bne	e02828 <__bss_end__+0xdf6968>
    2648:	02500120 	subseq	r0, r0, #32, 2
    264c:	00000076 	andeq	r0, r0, r6, ror r0
    2650:	00013f19 	andeq	r3, r1, r9, lsl pc
    2654:	00909400 	addseq	r9, r0, r0, lsl #8
    2658:	00001c00 	andeq	r1, r0, r0, lsl #24
    265c:	181b0100 	ldmdane	fp, {r8}
    2660:	1a000005 	bne	267c <_start-0x5984>
    2664:	0000016a 	andeq	r0, r0, sl, ror #2
    2668:	00001a74 	andeq	r1, r0, r4, ror sl
    266c:	00015f1b 	andeq	r5, r1, fp, lsl pc
    2670:	1b540100 	blne	1502a78 <__bss_end__+0x14f6bb8>
    2674:	00000156 	andeq	r0, r0, r6, asr r1
    2678:	40007708 	andmi	r7, r0, r8, lsl #14
    267c:	1aff081a 	bne	fffc46ec <__bss_end__+0xfffb882c>
    2680:	014b1b9f 			; <UNDEFINED> instruction: 0x014b1b9f
    2684:	56010000 	strpl	r0, [r1], -r0
    2688:	00011119 	andeq	r1, r1, r9, lsl r1
    268c:	0090a000 	addseq	sl, r0, r0
    2690:	00001000 	andeq	r1, r0, r0
    2694:	ff1a0200 			; <UNDEFINED> instruction: 0xff1a0200
    2698:	1a000004 	bne	26b0 <_start-0x5950>
    269c:	00000128 	andeq	r0, r0, r8, lsr #2
    26a0:	00001a9b 	muleq	r0, fp, sl
    26a4:	00011d1b 	andeq	r1, r1, fp, lsl sp
    26a8:	1d540100 	ldfnee	f0, [r4, #-0]
    26ac:	000090a0 	andeq	r9, r0, r0, lsr #1
    26b0:	00000004 	andeq	r0, r0, r4
    26b4:	0001321e 	andeq	r3, r1, lr, lsl r2
    26b8:	001ac200 	andseq	ip, sl, r0, lsl #4
    26bc:	1f000000 	svcne	0x00000000
    26c0:	000090a0 	andeq	r9, r0, r0, lsr #1
    26c4:	00001131 	andeq	r1, r0, r1, lsr r1
    26c8:	04510120 	ldrbeq	r0, [r1], #-288	; 0x120
    26cc:	1a400077 	bne	10028b0 <__bss_end__+0xff69f0>
    26d0:	02500120 	subseq	r0, r0, #32, 2
    26d4:	00000076 	andeq	r0, r0, r6, ror r0
    26d8:	00013f19 	andeq	r3, r1, r9, lsl pc
    26dc:	0090b400 	addseq	fp, r0, r0, lsl #8
    26e0:	00001c00 	andeq	r1, r0, r0, lsl #24
    26e4:	a21d0100 	andsge	r0, sp, #0, 2
    26e8:	1a000005 	bne	2704 <_start-0x58fc>
    26ec:	0000016a 	andeq	r0, r0, sl, ror #2
    26f0:	00001ad5 	ldrdeq	r1, [r0], -r5
    26f4:	00015f1b 	andeq	r5, r1, fp, lsl pc
    26f8:	1b540100 	blne	1502b00 <__bss_end__+0x14f6c40>
    26fc:	00000156 	andeq	r0, r0, r6, asr r1
    2700:	08007709 	stmdaeq	r0, {r0, r3, r8, r9, sl, ip, sp, lr}
    2704:	ff081a20 			; <UNDEFINED> instruction: 0xff081a20
    2708:	4b1b9f1a 	blmi	6ea378 <__bss_end__+0x6de4b8>
    270c:	01000001 	tsteq	r0, r1
    2710:	01111956 	tsteq	r1, r6, asr r9
    2714:	90c00000 	sbcls	r0, r0, r0
    2718:	00100000 	andseq	r0, r0, r0
    271c:	1a020000 	bne	82724 <__bss_end__+0x76864>
    2720:	00000588 	andeq	r0, r0, r8, lsl #11
    2724:	0001281a 	andeq	r2, r1, sl, lsl r8
    2728:	001aff00 	andseq	pc, sl, r0, lsl #30
    272c:	011d1b00 	tsteq	sp, r0, lsl #22
    2730:	54010000 	strpl	r0, [r1], #-0
    2734:	0090c01d 	addseq	ip, r0, sp, lsl r0
    2738:	00000400 	andeq	r0, r0, r0, lsl #8
    273c:	01321e00 	teqeq	r2, r0, lsl #28
    2740:	1b290000 	blne	a42748 <__bss_end__+0xa36888>
    2744:	00000000 	andeq	r0, r0, r0
    2748:	0090c01f 	addseq	ip, r0, pc, lsl r0
    274c:	00113100 	andseq	r3, r1, r0, lsl #2
    2750:	51012000 	mrspl	r2, (UNDEF: 1)
    2754:	08007705 	stmdaeq	r0, {r0, r2, r8, r9, sl, ip, sp, lr}
    2758:	01201a20 	teqeq	r0, r0, lsr #20
    275c:	00760250 	rsbseq	r0, r6, r0, asr r2
    2760:	3f190000 	svccc	0x00190000
    2764:	d4000001 	strle	r0, [r0], #-1
    2768:	1c000090 	stcne	0, cr0, [r0], {144}	; 0x90
    276c:	01000000 	mrseq	r0, (UNDEF: 0)
    2770:	00062c1f 	andeq	r2, r6, pc, lsl ip
    2774:	016a1a00 	cmneq	sl, r0, lsl #20
    2778:	1b3c0000 	blne	f02780 <__bss_end__+0xef68c0>
    277c:	5f1b0000 	svcpl	0x001b0000
    2780:	01000001 	tsteq	r0, r1
    2784:	01561b54 	cmpeq	r6, r4, asr fp
    2788:	77090000 	strvc	r0, [r9, -r0]
    278c:	1a400800 	bne	1004794 <__bss_end__+0xff88d4>
    2790:	9f1aff08 	svcls	0x001aff08
    2794:	00014b1b 	andeq	r4, r1, fp, lsl fp
    2798:	19560100 	ldmdbne	r6, {r8}^
    279c:	00000111 	andeq	r0, r0, r1, lsl r1
    27a0:	000090e0 	andeq	r9, r0, r0, ror #1
    27a4:	00000010 	andeq	r0, r0, r0, lsl r0
    27a8:	06121a02 	ldreq	r1, [r2], -r2, lsl #20
    27ac:	281a0000 	ldmdacs	sl, {}	; <UNPREDICTABLE>
    27b0:	5e000001 	cdppl	0, 0, cr0, cr0, cr1, {0}
    27b4:	1b00001b 	blne	2828 <_start-0x57d8>
    27b8:	0000011d 	andeq	r0, r0, sp, lsl r1
    27bc:	e01d5401 	ands	r5, sp, r1, lsl #8
    27c0:	04000090 	streq	r0, [r0], #-144	; 0x90
    27c4:	1e000000 	cdpne	0, 0, cr0, cr0, cr0, {0}
    27c8:	00000132 	andeq	r0, r0, r2, lsr r1
    27cc:	00001b80 	andeq	r1, r0, r0, lsl #23
    27d0:	e01f0000 	ands	r0, pc, r0
    27d4:	31000090 	swpcc	r0, r0, [r0]	; <UNPREDICTABLE>
    27d8:	20000011 	andcs	r0, r0, r1, lsl r0
    27dc:	77055101 	strvc	r5, [r5, -r1, lsl #2]
    27e0:	1a400800 	bne	10047e8 <__bss_end__+0xff8928>
    27e4:	02500120 	subseq	r0, r0, #32, 2
    27e8:	00000076 	andeq	r0, r0, r6, ror r0
    27ec:	00013f19 	andeq	r3, r1, r9, lsl pc
    27f0:	0090f400 	addseq	pc, r0, r0, lsl #8
    27f4:	00001c00 	andeq	r1, r0, r0, lsl #24
    27f8:	ac210100 	stfges	f0, [r1], #-0
    27fc:	1b000006 	blne	281c <_start-0x57e4>
    2800:	0000016a 	andeq	r0, r0, sl, ror #2
    2804:	5f1b5801 	svcpl	0x001b5801
    2808:	01000001 	tsteq	r0, r1
    280c:	01561a54 	cmpeq	r6, r4, asr sl
    2810:	1b930000 	blne	fe4c2818 <__bss_end__+0xfe4b6958>
    2814:	4b1b0000 	blmi	6c281c <__bss_end__+0x6b695c>
    2818:	01000001 	tsteq	r0, r1
    281c:	01111956 	tsteq	r1, r6, asr r9
    2820:	91000000 	mrsls	r0, (UNDEF: 0)
    2824:	00100000 	andseq	r0, r0, r0
    2828:	1a020000 	bne	82830 <__bss_end__+0x76970>
    282c:	00000692 	muleq	r0, r2, r6
    2830:	0001281b 	andeq	r2, r1, fp, lsl r8
    2834:	1b580100 	blne	1602c3c <__bss_end__+0x15f6d7c>
    2838:	0000011d 	andeq	r0, r0, sp, lsl r1
    283c:	001d5401 	andseq	r5, sp, r1, lsl #8
    2840:	04000091 	streq	r0, [r0], #-145	; 0x91
    2844:	1e000000 	cdpne	0, 0, cr0, cr0, cr0, {0}
    2848:	00000132 	andeq	r0, r0, r2, lsr r1
    284c:	00001bc6 	andeq	r1, r0, r6, asr #23
    2850:	001f0000 	andseq	r0, pc, r0
    2854:	31000091 	swpcc	r0, r1, [r0]	; <UNPREDICTABLE>
    2858:	20000011 	andcs	r0, r0, r1, lsl r0
    285c:	77055101 	strvc	r5, [r5, -r1, lsl #2]
    2860:	1a800800 	bne	fe004868 <__bss_end__+0xfdff89a8>
    2864:	02500120 	subseq	r0, r0, #32, 2
    2868:	00000076 	andeq	r0, r0, r6, ror r0
    286c:	00013f21 	andeq	r3, r1, r1, lsr #30
    2870:	00911400 	addseq	r1, r1, r0, lsl #8
    2874:	00001c00 	andeq	r1, r0, r0, lsl #24
    2878:	1b230100 	blne	8c2c80 <__bss_end__+0x8b6dc0>
    287c:	0000016a 	andeq	r0, r0, sl, ror #2
    2880:	5f1b5501 	svcpl	0x001b5501
    2884:	01000001 	tsteq	r0, r1
    2888:	01561c54 	cmpeq	r6, r4, asr ip
    288c:	1b010000 	blne	42894 <__bss_end__+0x369d4>
    2890:	0000014b 	andeq	r0, r0, fp, asr #2
    2894:	11195601 	tstne	r9, r1, lsl #12
    2898:	20000001 	andcs	r0, r0, r1
    289c:	10000091 	mulne	r0, r1, r0
    28a0:	02000000 	andeq	r0, r0, #0
    28a4:	00070b1a 	andeq	r0, r7, sl, lsl fp
    28a8:	01281b00 	teqeq	r8, r0, lsl #22
    28ac:	55010000 	strpl	r0, [r1, #-0]
    28b0:	00011d1b 	andeq	r1, r1, fp, lsl sp
    28b4:	1d540100 	ldfnee	f0, [r4, #-0]
    28b8:	00009120 	andeq	r9, r0, r0, lsr #2
    28bc:	00000004 	andeq	r0, r0, r4
    28c0:	0001321e 	andeq	r3, r1, lr, lsl r2
    28c4:	001bd900 	andseq	sp, fp, r0, lsl #18
    28c8:	1f000000 	svcne	0x00000000
    28cc:	00009120 	andeq	r9, r0, r0, lsr #2
    28d0:	00001131 	andeq	r1, r0, r1, lsr r1
    28d4:	01510120 	cmpeq	r1, r0, lsr #2
    28d8:	50012031 	andpl	r2, r1, r1, lsr r0
    28dc:	00007602 	andeq	r7, r0, r2, lsl #12
    28e0:	04060000 	streq	r0, [r6], #-0
    28e4:	000000d9 	ldrdeq	r0, [r0], -r9
    28e8:	000a5a22 	andeq	r5, sl, r2, lsr #20
    28ec:	25270100 	strcs	r0, [r7, #-256]!	; 0x100
    28f0:	03000000 	movweq	r0, #0
    28f4:	00000762 	andeq	r0, r0, r2, ror #14
    28f8:	0078720f 	rsbseq	r7, r8, pc, lsl #4
    28fc:	00252701 	eoreq	r2, r5, r1, lsl #14
    2900:	760f0000 	strvc	r0, [pc], -r0
    2904:	25270100 	strcs	r0, [r7, #-256]!	; 0x100
    2908:	0e000000 	cdpeq	0, 0, cr0, cr0, cr0, {0}
    290c:	000009e2 	andeq	r0, r0, r2, ror #19
    2910:	002c2701 	eoreq	r2, ip, r1, lsl #14
    2914:	18110000 	ldmdane	r1, {}	; <UNPREDICTABLE>
    2918:	01000006 	tsteq	r0, r6
    291c:	00002c28 	andeq	r2, r0, r8, lsr #24
    2920:	83230000 	teqhi	r3, #0
    2924:	01000009 	tsteq	r0, r9
    2928:	00002534 	andeq	r2, r0, r4, lsr r5
    292c:	00913400 	addseq	r3, r1, r0, lsl #8
    2930:	0001c800 	andeq	ip, r1, r0, lsl #16
    2934:	1e9c0100 	fmlnee	f0, f4, f0
    2938:	1300000b 	movwne	r0, #11
    293c:	000005cb 	andeq	r0, r0, fp, asr #11
    2940:	07223401 	streq	r3, [r2, -r1, lsl #8]!
    2944:	1bec0000 	blne	ffb0294c <__bss_end__+0xffaf6a8c>
    2948:	e2130000 	ands	r0, r3, #0
    294c:	01000009 	tsteq	r0, r9
    2950:	00002534 	andeq	r2, r0, r4, lsr r5
    2954:	001c3100 	andseq	r3, ip, r0, lsl #2
    2958:	78721500 	ldmdavc	r2!, {r8, sl, ip}^
    295c:	25350100 	ldrcs	r0, [r5, #-256]!	; 0x100
    2960:	01000000 	mrseq	r0, (UNDEF: 0)
    2964:	00731655 	rsbseq	r1, r3, r5, asr r6
    2968:	002c3c01 	eoreq	r3, ip, r1, lsl #24
    296c:	1c4f0000 	marne	acc0, r0, pc
    2970:	75160000 	ldrvc	r0, [r6, #-0]
    2974:	683f0100 	ldmdavs	pc!, {r8}	; <UNPREDICTABLE>
    2978:	62000000 	andvs	r0, r0, #0
    297c:	1600001c 			; <UNDEFINED> instruction: 0x1600001c
    2980:	4001006e 	andmi	r0, r1, lr, rrx
    2984:	0000002c 	andeq	r0, r0, ip, lsr #32
    2988:	00001c75 	andeq	r1, r0, r5, ror ip
    298c:	01006316 	tsteq	r0, r6, lsl r3
    2990:	00002c41 	andeq	r2, r0, r1, asr #24
    2994:	001c8c00 	andseq	r8, ip, r0, lsl #24
    2998:	07281900 	streq	r1, [r8, -r0, lsl #18]!
    299c:	91480000 	mrsls	r0, (UNDEF: 72)
    29a0:	00340000 	eorseq	r0, r4, r0
    29a4:	38010000 	stmdacc	r1, {}	; <UNPREDICTABLE>
    29a8:	0000083c 	andeq	r0, r0, ip, lsr r8
    29ac:	00074b1a 	andeq	r4, r7, sl, lsl fp
    29b0:	001cb600 	andseq	fp, ip, r0, lsl #12
    29b4:	07421c00 	strbeq	r1, [r2, -r0, lsl #24]
    29b8:	1b000000 	blne	29c0 <_start-0x5640>
    29bc:	00000738 	andeq	r0, r0, r8, lsr r7
    29c0:	481d5501 	ldmdami	sp, {r0, r8, sl, ip, lr}
    29c4:	34000091 	strcc	r0, [r0], #-145	; 0x91
    29c8:	1e000000 	cdpne	0, 0, cr0, cr0, cr0, {0}
    29cc:	00000756 	andeq	r0, r0, r6, asr r7
    29d0:	00001cd4 	ldrdeq	r1, [r0], -r4
    29d4:	00914c24 	addseq	r4, r1, r4, lsr #24
    29d8:	00114700 	andseq	r4, r1, r0, lsl #14
    29dc:	91582500 	cmpls	r8, r0, lsl #10
    29e0:	11520000 	cmpne	r2, r0
    29e4:	08310000 	ldmdaeq	r1!, {}	; <UNPREDICTABLE>
    29e8:	01200000 	teqeq	r0, r0
    29ec:	00750250 	rsbseq	r0, r5, r0, asr r2
    29f0:	91642400 	cmnls	r4, r0, lsl #8
    29f4:	11470000 	mrsne	r0, (UNDEF: 71)
    29f8:	00000000 	andeq	r0, r0, r0
    29fc:	00918417 	addseq	r8, r1, r7, lsl r4
    2a00:	00000400 	andeq	r0, r0, r0, lsl #8
    2a04:	00085900 	andeq	r5, r8, r0, lsl #18
    2a08:	0a2a2600 	beq	a8c210 <__bss_end__+0xa80350>
    2a0c:	3c010000 	stccc	0, cr0, [r1], {-0}
    2a10:	0000002c 	andeq	r0, r0, ip, lsr #32
    2a14:	00001cf2 	strdeq	r1, [r0], -r2
    2a18:	01111900 	tsteq	r1, r0, lsl #18
    2a1c:	91900000 	orrsls	r0, r0, r0
    2a20:	00100000 	andseq	r0, r0, r0
    2a24:	44010000 	strmi	r0, [r1], #-0
    2a28:	00000892 	muleq	r0, r2, r8
    2a2c:	0001281a 	andeq	r2, r1, sl, lsl r8
    2a30:	001d0500 	andseq	r0, sp, r0, lsl #10
    2a34:	011d1a00 	tsteq	sp, r0, lsl #20
    2a38:	1d2a0000 	stcne	0, cr0, [sl, #-0]
    2a3c:	901d0000 	andsls	r0, sp, r0
    2a40:	04000091 	streq	r0, [r0], #-145	; 0x91
    2a44:	1e000000 	cdpne	0, 0, cr0, cr0, cr0, {0}
    2a48:	00000132 	andeq	r0, r0, r2, lsr r1
    2a4c:	00001d3d 	andeq	r1, r0, sp, lsr sp
    2a50:	11190000 	tstne	r9, r0
    2a54:	b0000001 	andlt	r0, r0, r1
    2a58:	10000091 	mulne	r0, r1, r0
    2a5c:	01000000 	mrseq	r0, (UNDEF: 0)
    2a60:	0008cb48 	andeq	ip, r8, r8, asr #22
    2a64:	01281a00 	teqeq	r8, r0, lsl #20
    2a68:	1d500000 	ldclne	0, cr0, [r0, #-0]
    2a6c:	1d1a0000 	ldcne	0, cr0, [sl, #-0]
    2a70:	63000001 	movwvs	r0, #1
    2a74:	1d00001d 	stcne	0, cr0, [r0, #-116]	; 0xffffff8c
    2a78:	000091b0 			; <UNDEFINED> instruction: 0x000091b0
    2a7c:	00000004 	andeq	r0, r0, r4
    2a80:	0001321e 	andeq	r3, r1, lr, lsl r2
    2a84:	001d7600 	andseq	r7, sp, r0, lsl #12
    2a88:	19000000 	stmdbne	r0, {}	; <UNPREDICTABLE>
    2a8c:	00000111 	andeq	r0, r0, r1, lsl r1
    2a90:	000091d4 	ldrdeq	r9, [r0], -r4
    2a94:	00000010 	andeq	r0, r0, r0, lsl r0
    2a98:	09044b01 	stmdbeq	r4, {r0, r8, r9, fp, lr}
    2a9c:	281a0000 	ldmdacs	sl, {}	; <UNPREDICTABLE>
    2aa0:	89000001 	stmdbhi	r0, {r0}
    2aa4:	1a00001d 	bne	2b20 <_start-0x54e0>
    2aa8:	0000011d 	andeq	r0, r0, sp, lsl r1
    2aac:	00001d9c 	muleq	r0, ip, sp
    2ab0:	0091d41d 	addseq	sp, r1, sp, lsl r4
    2ab4:	00000400 	andeq	r0, r0, r0, lsl #8
    2ab8:	01321e00 	teqeq	r2, r0, lsl #28
    2abc:	1daf0000 	stcne	0, cr0, [pc]	; 2ac4 <_start-0x553c>
    2ac0:	00000000 	andeq	r0, r0, r0
    2ac4:	00011119 	andeq	r1, r1, r9, lsl r1
    2ac8:	0091f800 	addseq	pc, r1, r0, lsl #16
    2acc:	00001000 	andeq	r1, r0, r0
    2ad0:	3d4e0100 	stfcce	f0, [lr, #-0]
    2ad4:	1a000009 	bne	2b00 <_start-0x5500>
    2ad8:	00000128 	andeq	r0, r0, r8, lsr #2
    2adc:	00001dc2 	andeq	r1, r0, r2, asr #27
    2ae0:	00011d1a 	andeq	r1, r1, sl, lsl sp
    2ae4:	001dd500 	andseq	sp, sp, r0, lsl #10
    2ae8:	91f81d00 	mvnsls	r1, r0, lsl #26
    2aec:	00040000 	andeq	r0, r4, r0
    2af0:	321e0000 	andscc	r0, lr, #0
    2af4:	e8000001 	stmda	r0, {r0}
    2af8:	0000001d 	andeq	r0, r0, sp, lsl r0
    2afc:	01111900 	tsteq	r1, r0, lsl #18
    2b00:	921c0000 	andsls	r0, ip, #0
    2b04:	00100000 	andseq	r0, r0, r0
    2b08:	51010000 	mrspl	r0, (UNDEF: 1)
    2b0c:	00000976 	andeq	r0, r0, r6, ror r9
    2b10:	0001281a 	andeq	r2, r1, sl, lsl r8
    2b14:	001dfb00 	andseq	pc, sp, r0, lsl #22
    2b18:	011d1a00 	tsteq	sp, r0, lsl #20
    2b1c:	1e0e0000 	cdpne	0, 0, cr0, cr14, cr0, {0}
    2b20:	1c1d0000 	ldcne	0, cr0, [sp], {-0}
    2b24:	04000092 	streq	r0, [r0], #-146	; 0x92
    2b28:	1e000000 	cdpne	0, 0, cr0, cr0, cr0, {0}
    2b2c:	00000132 	andeq	r0, r0, r2, lsr r1
    2b30:	00001e21 	andeq	r1, r0, r1, lsr #28
    2b34:	11190000 	tstne	r9, r0
    2b38:	40000001 	andmi	r0, r0, r1
    2b3c:	10000092 	mulne	r0, r2, r0
    2b40:	01000000 	mrseq	r0, (UNDEF: 0)
    2b44:	0009af54 	andeq	sl, r9, r4, asr pc
    2b48:	01281a00 	teqeq	r8, r0, lsl #20
    2b4c:	1e340000 	cdpne	0, 3, cr0, cr4, cr0, {0}
    2b50:	1d1a0000 	ldcne	0, cr0, [sl, #-0]
    2b54:	47000001 	strmi	r0, [r0, -r1]
    2b58:	1d00001e 	stcne	0, cr0, [r0, #-120]	; 0xffffff88
    2b5c:	00009240 	andeq	r9, r0, r0, asr #4
    2b60:	00000004 	andeq	r0, r0, r4
    2b64:	0001321e 	andeq	r3, r1, lr, lsl r2
    2b68:	001e5a00 	andseq	r5, lr, r0, lsl #20
    2b6c:	19000000 	stmdbne	r0, {}	; <UNPREDICTABLE>
    2b70:	00000111 	andeq	r0, r0, r1, lsl r1
    2b74:	00009264 	andeq	r9, r0, r4, ror #4
    2b78:	00000010 	andeq	r0, r0, r0, lsl r0
    2b7c:	09e85701 	stmibeq	r8!, {r0, r8, r9, sl, ip, lr}^
    2b80:	281a0000 	ldmdacs	sl, {}	; <UNPREDICTABLE>
    2b84:	6d000001 	stcvs	0, cr0, [r0, #-4]
    2b88:	1a00001e 	bne	2c08 <_start-0x53f8>
    2b8c:	0000011d 	andeq	r0, r0, sp, lsl r1
    2b90:	00001e80 	andeq	r1, r0, r0, lsl #29
    2b94:	0092641d 	addseq	r6, r2, sp, lsl r4
    2b98:	00000400 	andeq	r0, r0, r0, lsl #8
    2b9c:	01321e00 	teqeq	r2, r0, lsl #28
    2ba0:	1e930000 	cdpne	0, 9, cr0, cr3, cr0, {0}
    2ba4:	00000000 	andeq	r0, r0, r0
    2ba8:	00011119 	andeq	r1, r1, r9, lsl r1
    2bac:	00928800 	addseq	r8, r2, r0, lsl #16
    2bb0:	00001000 	andeq	r1, r0, r0
    2bb4:	1d5a0100 	ldfnee	f0, [sl, #-0]
    2bb8:	1a00000a 	bne	2be8 <_start-0x5418>
    2bbc:	00000128 	andeq	r0, r0, r8, lsr #2
    2bc0:	00001ea6 	andeq	r1, r0, r6, lsr #29
    2bc4:	00011d27 	andeq	r1, r1, r7, lsr #26
    2bc8:	92881d00 	addls	r1, r8, #0, 26
    2bcc:	00040000 	andeq	r0, r4, r0
    2bd0:	321e0000 	andscc	r0, lr, #0
    2bd4:	b9000001 	stmdblt	r0, {r0}
    2bd8:	0000001e 	andeq	r0, r0, lr, lsl r0
    2bdc:	07281900 	streq	r1, [r8, -r0, lsl #18]!
    2be0:	92a80000 	adcls	r0, r8, #0
    2be4:	00340000 	eorseq	r0, r4, r0
    2be8:	61010000 	mrsvs	r0, (UNDEF: 1)
    2bec:	00000a81 	andeq	r0, r0, r1, lsl #21
    2bf0:	00074b27 	andeq	r4, r7, r7, lsr #22
    2bf4:	07421a00 	strbeq	r1, [r2, -r0, lsl #20]
    2bf8:	1ecc0000 	cdpne	0, 12, cr0, cr12, cr0, {0}
    2bfc:	381a0000 	ldmdacc	sl, {}	; <UNPREDICTABLE>
    2c00:	ec000007 	stc	0, cr0, [r0], {7}
    2c04:	1d00001e 	stcne	0, cr0, [r0, #-120]	; 0xffffff88
    2c08:	000092a8 	andeq	r9, r0, r8, lsr #5
    2c0c:	00000034 	andeq	r0, r0, r4, lsr r0
    2c10:	0007561e 	andeq	r5, r7, lr, lsl r6
    2c14:	001f0a00 	andseq	r0, pc, r0, lsl #20
    2c18:	92ac2400 	adcls	r2, ip, #0, 8
    2c1c:	11470000 	mrsne	r0, (UNDEF: 71)
    2c20:	b8250000 	stmdalt	r5!, {}	; <UNPREDICTABLE>
    2c24:	52000092 	andpl	r0, r0, #146	; 0x92
    2c28:	76000011 			; <UNDEFINED> instruction: 0x76000011
    2c2c:	2000000a 	andcs	r0, r0, sl
    2c30:	75025001 	strvc	r5, [r2, #-1]
    2c34:	c4240000 	strtgt	r0, [r4], #-0
    2c38:	47000092 			; <UNDEFINED> instruction: 0x47000092
    2c3c:	00000011 	andeq	r0, r0, r1, lsl r0
    2c40:	91ac2500 			; <UNDEFINED> instruction: 0x91ac2500
    2c44:	11520000 	cmpne	r2, r0
    2c48:	0a950000 	beq	fe542c50 <__bss_end__+0xfe536d90>
    2c4c:	01200000 	teqeq	r0, r0
    2c50:	00750250 	rsbseq	r0, r5, r0, asr r2
    2c54:	91cc2500 	bicls	r2, ip, r0, lsl #10
    2c58:	11520000 	cmpne	r2, r0
    2c5c:	0aa90000 	beq	fea42c64 <__bss_end__+0xfea36da4>
    2c60:	01200000 	teqeq	r0, r0
    2c64:	00750250 	rsbseq	r0, r5, r0, asr r2
    2c68:	91f02500 	mvnsls	r2, r0, lsl #10
    2c6c:	11520000 	cmpne	r2, r0
    2c70:	0abd0000 	beq	fef42c78 <__bss_end__+0xfef36db8>
    2c74:	01200000 	teqeq	r0, r0
    2c78:	00750250 	rsbseq	r0, r5, r0, asr r2
    2c7c:	92142500 	andsls	r2, r4, #0, 10
    2c80:	11520000 	cmpne	r2, r0
    2c84:	0ad10000 	beq	ff442c8c <__bss_end__+0xff436dcc>
    2c88:	01200000 	teqeq	r0, r0
    2c8c:	00750250 	rsbseq	r0, r5, r0, asr r2
    2c90:	92382500 	eorsls	r2, r8, #0, 10
    2c94:	11520000 	cmpne	r2, r0
    2c98:	0ae50000 	beq	ff942ca0 <__bss_end__+0xff936de0>
    2c9c:	01200000 	teqeq	r0, r0
    2ca0:	00750250 	rsbseq	r0, r5, r0, asr r2
    2ca4:	925c2500 	subsls	r2, ip, #0, 10
    2ca8:	11520000 	cmpne	r2, r0
    2cac:	0af90000 	beq	ffe42cb4 <__bss_end__+0xffe36df4>
    2cb0:	01200000 	teqeq	r0, r0
    2cb4:	00750250 	rsbseq	r0, r5, r0, asr r2
    2cb8:	92802500 	addls	r2, r0, #0, 10
    2cbc:	11520000 	cmpne	r2, r0
    2cc0:	0b0d0000 	bleq	342cc8 <__bss_end__+0x336e08>
    2cc4:	01200000 	teqeq	r0, r0
    2cc8:	00750250 	rsbseq	r0, r5, r0, asr r2
    2ccc:	92a01f00 	adcls	r1, r0, #0, 30
    2cd0:	11520000 	cmpne	r2, r0
    2cd4:	01200000 	teqeq	r0, r0
    2cd8:	00750250 	rsbseq	r0, r5, r0, asr r2
    2cdc:	98230000 	stmdals	r3!, {}	; <UNPREDICTABLE>
    2ce0:	01000009 	tsteq	r0, r9
    2ce4:	0000256c 	andeq	r2, r0, ip, ror #10
    2ce8:	0092fc00 	addseq	pc, r2, r0, lsl #24
    2cec:	00009000 	andeq	r9, r0, r0
    2cf0:	029c0100 	addseq	r0, ip, #0, 2
    2cf4:	1400000c 	strne	r0, [r0], #-12
    2cf8:	6c010075 	stcvs	0, cr0, [r1], {117}	; 0x75
    2cfc:	00000722 	andeq	r0, r0, r2, lsr #14
    2d00:	00001f28 	andeq	r1, r0, r8, lsr #30
    2d04:	66756214 			; <UNDEFINED> instruction: 0x66756214
    2d08:	026c0100 	rsbeq	r0, ip, #0, 2
    2d0c:	5c00000c 	stcpl	0, cr0, [r0], {12}
    2d10:	1300001f 	movwne	r0, #31
    2d14:	00000a2f 	andeq	r0, r0, pc, lsr #20
    2d18:	00686c01 	rsbeq	r6, r8, r1, lsl #24
    2d1c:	1f900000 	svcne	0x00900000
    2d20:	65140000 	ldrvs	r0, [r4, #-0]
    2d24:	0100646e 	tsteq	r0, lr, ror #8
    2d28:	00004f6c 	andeq	r4, r0, ip, ror #30
    2d2c:	001fc900 	andseq	ip, pc, r0, lsl #18
    2d30:	0a362800 	beq	d8cd38 <__bss_end__+0xd80e78>
    2d34:	6c010000 	stcvs	0, cr0, [r1], {-0}
    2d38:	00000068 	andeq	r0, r0, r8, rrx
    2d3c:	29009102 	stmdbcs	r0, {r1, r8, ip, pc}
    2d40:	0000013a 	andeq	r0, r0, sl, lsr r1
    2d44:	00000c18 	andeq	r0, r0, r8, lsl ip
    2d48:	a5840305 	strge	r0, [r4, #773]	; 0x305
    2d4c:	69160000 	ldmdbvs	r6, {}	; <UNPREDICTABLE>
    2d50:	25700100 	ldrbcs	r0, [r0, #-256]!	; 0x100
    2d54:	03000000 	movweq	r0, #0
    2d58:	26000020 	strcs	r0, [r0], -r0, lsr #32
    2d5c:	00000a0d 	andeq	r0, r0, sp, lsl #20
    2d60:	004f7101 	subeq	r7, pc, r1, lsl #2
    2d64:	20220000 	eorcs	r0, r2, r0
    2d68:	1c240000 	stcne	0, cr0, [r4], #-0
    2d6c:	67000093 			; <UNDEFINED> instruction: 0x67000093
    2d70:	25000011 	strcs	r0, [r0, #-17]
    2d74:	00009330 	andeq	r9, r0, r0, lsr r3
    2d78:	0000116e 	andeq	r1, r0, lr, ror #2
    2d7c:	00000be2 	andeq	r0, r0, r2, ror #23
    2d80:	02530120 	subseq	r0, r3, #32, 2
    2d84:	01206d08 	teqeq	r0, r8, lsl #26
    2d88:	84030552 	strhi	r0, [r3], #-1362	; 0x552
    2d8c:	200000a5 	andcs	r0, r0, r5, lsr #1
    2d90:	03055101 	movweq	r5, #20737	; 0x5101
    2d94:	0000a618 	andeq	sl, r0, r8, lsl r6
    2d98:	05500120 	ldrbeq	r0, [r0, #-288]	; 0x120
    2d9c:	00a5fc03 	adceq	pc, r5, r3, lsl #24
    2da0:	34240000 	strtcc	r0, [r4], #-0
    2da4:	84000093 	strhi	r0, [r0], #-147	; 0x93
    2da8:	1f000011 	svcne	0x00000011
    2dac:	00009350 	andeq	r9, r0, r0, asr r3
    2db0:	00000762 	andeq	r0, r0, r2, ror #14
    2db4:	02510120 	subseq	r0, r1, #32, 2
    2db8:	0120007a 	teqeq	r0, sl, ror r0
    2dbc:	00780250 	rsbseq	r0, r8, r0, asr r2
    2dc0:	04060000 	streq	r0, [r6], #-0
    2dc4:	0000004f 	andeq	r0, r0, pc, asr #32
    2dc8:	0000902a 	andeq	r9, r0, sl, lsr #32
    2dcc:	000c1800 	andeq	r1, ip, r0, lsl #16
    2dd0:	00812b00 	addeq	r2, r1, r0, lsl #22
    2dd4:	00120000 	andseq	r0, r2, r0
    2dd8:	000c0807 	andeq	r0, ip, r7, lsl #16
    2ddc:	0a152300 	beq	54b9e4 <__bss_end__+0x53fb24>
    2de0:	80010000 	andhi	r0, r1, r0
    2de4:	00000025 	andeq	r0, r0, r5, lsr #32
    2de8:	0000938c 	andeq	r9, r0, ip, lsl #7
    2dec:	0000007c 	andeq	r0, r0, ip, ror r0
    2df0:	0ce49c01 	stcleq	12, cr9, [r4], #4
    2df4:	75140000 	ldrvc	r0, [r4, #-0]
    2df8:	22800100 	addcs	r0, r0, #0, 2
    2dfc:	35000007 	strcc	r0, [r0, #-7]
    2e00:	14000020 	strne	r0, [r0], #-32
    2e04:	00667562 	rsbeq	r7, r6, r2, ror #10
    2e08:	0c028001 	stceq	0, cr8, [r2], {1}
    2e0c:	20690000 	rsbcs	r0, r9, r0
    2e10:	2f130000 	svccs	0x00130000
    2e14:	0100000a 	tsteq	r0, sl
    2e18:	00006881 	andeq	r6, r0, r1, lsl #17
    2e1c:	00209d00 	eoreq	r9, r0, r0, lsl #26
    2e20:	0a361300 	beq	d87a28 <__bss_end__+0xd7bb68>
    2e24:	81010000 	mrshi	r0, (UNDEF: 1)
    2e28:	00000068 	andeq	r0, r0, r8, rrx
    2e2c:	000020d6 	ldrdeq	r2, [r0], -r6
    2e30:	00013a29 	andeq	r3, r1, r9, lsr #20
    2e34:	000cf400 	andeq	pc, ip, r0, lsl #8
    2e38:	98030500 	stmdals	r3, {r8, sl}
    2e3c:	160000a5 	strne	r0, [r0], -r5, lsr #1
    2e40:	86010069 	strhi	r0, [r1], -r9, rrx
    2e44:	00000025 	andeq	r0, r0, r5, lsr #32
    2e48:	0000210a 	andeq	r2, r0, sl, lsl #2
    2e4c:	0093a824 	addseq	sl, r3, r4, lsr #16
    2e50:	00116700 	andseq	r6, r1, r0, lsl #14
    2e54:	93bc2500 			; <UNDEFINED> instruction: 0x93bc2500
    2e58:	116e0000 	cmnne	lr, r0
    2e5c:	0cc40000 	stcleq	0, cr0, [r4], {0}
    2e60:	01200000 	teqeq	r0, r0
    2e64:	83080253 	movwhi	r0, #33363	; 0x8253
    2e68:	05520120 	ldrbeq	r0, [r2, #-288]	; 0x120
    2e6c:	00a59803 	adceq	r9, r5, r3, lsl #16
    2e70:	51012000 	mrspl	r2, (UNDEF: 1)
    2e74:	a6180305 	ldrge	r0, [r8], -r5, lsl #6
    2e78:	01200000 	teqeq	r0, r0
    2e7c:	fc030550 	stc2	5, cr0, [r3], {80}	; 0x50
    2e80:	000000a5 	andeq	r0, r0, r5, lsr #1
    2e84:	0093c024 	addseq	ip, r3, r4, lsr #32
    2e88:	00118400 	andseq	r8, r1, r0, lsl #8
    2e8c:	93dc1f00 	bicsls	r1, ip, #0, 30
    2e90:	07620000 	strbeq	r0, [r2, -r0]!
    2e94:	01200000 	teqeq	r0, r0
    2e98:	00780251 	rsbseq	r0, r8, r1, asr r2
    2e9c:	02500120 	subseq	r0, r0, #32, 2
    2ea0:	00000077 	andeq	r0, r0, r7, ror r0
    2ea4:	0000902a 	andeq	r9, r0, sl, lsr #32
    2ea8:	000cf400 	andeq	pc, ip, r0, lsl #8
    2eac:	00812b00 	addeq	r2, r1, r0, lsl #22
    2eb0:	00140000 	andseq	r0, r4, r0
    2eb4:	000ce407 	andeq	lr, ip, r7, lsl #8
    2eb8:	09ce2300 	stmibeq	lr, {r8, r9, sp}^
    2ebc:	93010000 	movwls	r0, #4096	; 0x1000
    2ec0:	000000d9 	ldrdeq	r0, [r0], -r9
    2ec4:	00009408 	andeq	r9, r0, r8, lsl #8
    2ec8:	000000c0 	andeq	r0, r0, r0, asr #1
    2ecc:	0e149c01 	cdpeq	12, 1, cr9, cr4, cr1, {0}
    2ed0:	74140000 	ldrvc	r0, [r4], #-0
    2ed4:	93010078 	movwls	r0, #4216	; 0x1078
    2ed8:	0000004f 	andeq	r0, r0, pc, asr #32
    2edc:	00002129 	andeq	r2, r0, r9, lsr #2
    2ee0:	00787214 	rsbseq	r7, r8, r4, lsl r2
    2ee4:	004f9301 	subeq	r9, pc, r1, lsl #6
    2ee8:	214a0000 	mrscs	r0, (UNDEF: 74)
    2eec:	04130000 	ldreq	r0, [r3], #-0
    2ef0:	01000006 	tsteq	r0, r6
    2ef4:	00006893 	muleq	r0, r3, r8
    2ef8:	00216b00 	eoreq	r6, r1, r0, lsl #22
    2efc:	09672800 	stmdbeq	r7!, {fp, sp}^
    2f00:	93010000 	movwls	r0, #4096	; 0x1000
    2f04:	00000068 	andeq	r0, r0, r8, rrx
    2f08:	2c009102 	stfcsd	f1, [r0], {2}
    2f0c:	007a686d 	rsbseq	r6, sl, sp, ror #16
    2f10:	002c9b01 	eoreq	r9, ip, r1, lsl #22
    2f14:	27000000 	strcs	r0, [r0, -r0]
    2f18:	b82629b9 	stmdalt	r6!, {r0, r3, r4, r5, r7, r8, fp, sp}
    2f1c:	01000009 	tsteq	r0, r9
    2f20:	00002c9c 	muleq	r0, ip, ip
    2f24:	00218900 	eoreq	r8, r1, r0, lsl #18
    2f28:	013a2900 	teqeq	sl, r0, lsl #18
    2f2c:	0e240000 	cdpeq	0, 2, cr0, cr4, cr0, {0}
    2f30:	03050000 	movweq	r0, #20480	; 0x5000
    2f34:	0000a5b0 			; <UNDEFINED> instruction: 0x0000a5b0
    2f38:	00943017 	addseq	r3, r4, r7, lsl r0
    2f3c:	00000800 	andeq	r0, r0, r0, lsl #16
    2f40:	000d9100 	andeq	r9, sp, r0, lsl #2
    2f44:	6e692d00 	cdpvs	13, 6, cr2, cr9, cr0, {0}
    2f48:	2c970100 	ldfcss	f0, [r7], {0}
    2f4c:	01000000 	mrseq	r0, (UNDEF: 0)
    2f50:	94282500 	strtls	r2, [r8], #-1280	; 0x500
    2f54:	118b0000 	orrne	r0, fp, r0
    2f58:	0da50000 	stceq	0, cr0, [r5]
    2f5c:	01200000 	teqeq	r0, r0
    2f60:	00760250 	rsbseq	r0, r6, r0, asr r2
    2f64:	94302500 	ldrtls	r2, [r0], #-1280	; 0x500
    2f68:	119c0000 	orrsne	r0, ip, r0
    2f6c:	0db90000 	ldceq	0, cr0, [r9]
    2f70:	01200000 	teqeq	r0, r0
    2f74:	00780250 	rsbseq	r0, r8, r0, asr r2
    2f78:	94442500 	strbls	r2, [r4], #-1280	; 0x500
    2f7c:	11310000 	teqne	r1, r0
    2f80:	0dd20000 	ldcleq	0, cr0, [r2]
    2f84:	01200000 	teqeq	r0, r0
    2f88:	20310151 	eorscs	r0, r1, r1, asr r1
    2f8c:	76025001 	strvc	r5, [r2], -r1
    2f90:	88240000 	stmdahi	r4!, {}	; <UNPREDICTABLE>
    2f94:	67000094 			; <UNDEFINED> instruction: 0x67000094
    2f98:	25000011 	strcs	r0, [r0, #-17]
    2f9c:	0000949c 	muleq	r0, ip, r4
    2fa0:	0000116e 	andeq	r1, r0, lr, ror #2
    2fa4:	00000e0a 	andeq	r0, r0, sl, lsl #28
    2fa8:	02530120 	subseq	r0, r3, #32, 2
    2fac:	01209d08 	teqeq	r0, r8, lsl #26
    2fb0:	b0030552 	andlt	r0, r3, r2, asr r5
    2fb4:	200000a5 	andcs	r0, r0, r5, lsr #1
    2fb8:	03055101 	movweq	r5, #20737	; 0x5101
    2fbc:	0000a618 	andeq	sl, r0, r8, lsl r6
    2fc0:	05500120 	ldrbeq	r0, [r0, #-288]	; 0x120
    2fc4:	00a62c03 	adceq	r2, r6, r3, lsl #24
    2fc8:	a0240000 	eorge	r0, r4, r0
    2fcc:	84000094 	strhi	r0, [r0], #-148	; 0x94
    2fd0:	00000011 	andeq	r0, r0, r1, lsl r0
    2fd4:	0000902a 	andeq	r9, r0, sl, lsr #32
    2fd8:	000e2400 	andeq	r2, lr, r0, lsl #8
    2fdc:	00812b00 	addeq	r2, r1, r0, lsl #22
    2fe0:	00130000 	andseq	r0, r3, r0
    2fe4:	000e1407 	andeq	r1, lr, r7, lsl #8
    2fe8:	09ab2300 	stmibeq	fp!, {r8, r9, sp}
    2fec:	a9010000 	stmdbge	r1, {}	; <UNPREDICTABLE>
    2ff0:	00000025 	andeq	r0, r0, r5, lsr #32
    2ff4:	000094c8 	andeq	r9, r0, r8, asr #9
    2ff8:	0000003c 	andeq	r0, r0, ip, lsr r0
    2ffc:	0ecc9c01 	cdpeq	12, 12, cr9, cr12, cr1, {0}
    3000:	cb130000 	blgt	4c3008 <__bss_end__+0x4b7148>
    3004:	01000005 	tsteq	r0, r5
    3008:	000722a9 	andeq	r2, r7, r9, lsr #5
    300c:	0021b700 	eoreq	fp, r1, r0, lsl #14
    3010:	65721600 	ldrbvs	r1, [r2, #-1536]!	; 0x600
    3014:	aa010073 	bge	431e8 <__bss_end__+0x37328>
    3018:	00000025 	andeq	r0, r0, r5, lsr #32
    301c:	000021d8 	ldrdeq	r2, [r0], -r8
    3020:	00013a29 	andeq	r3, r1, r9, lsr #20
    3024:	000edc00 	andeq	sp, lr, r0, lsl #24
    3028:	c4030500 	strgt	r0, [r3], #-1280	; 0x500
    302c:	250000a5 	strcs	r0, [r0, #-165]	; 0xa5
    3030:	000094d4 	ldrdeq	r9, [r0], -r4
    3034:	00000762 	andeq	r0, r0, r2, ror #14
    3038:	00000e8a 	andeq	r0, r0, sl, lsl #29
    303c:	02510120 	subseq	r0, r1, #32, 2
    3040:	0120ff09 	msreq	LR_irq, r9
    3044:	01f30350 	mvnseq	r0, r0, asr r3
    3048:	e0240050 	eor	r0, r4, r0, asr r0
    304c:	67000094 			; <UNDEFINED> instruction: 0x67000094
    3050:	25000011 	strcs	r0, [r0, #-17]
    3054:	000094f4 	strdeq	r9, [r0], -r4
    3058:	0000116e 	andeq	r1, r0, lr, ror #2
    305c:	00000ec2 	andeq	r0, r0, r2, asr #29
    3060:	02530120 	subseq	r0, r3, #32, 2
    3064:	0120ac08 	teqeq	r0, r8, lsl #24
    3068:	c4030552 	strgt	r0, [r3], #-1362	; 0x552
    306c:	200000a5 	andcs	r0, r0, r5, lsr #1
    3070:	03055101 	movweq	r5, #20737	; 0x5101
    3074:	0000a618 	andeq	sl, r0, r8, lsl r6
    3078:	05500120 	ldrbeq	r0, [r0, #-288]	; 0x120
    307c:	00a67003 	adceq	r7, r6, r3
    3080:	f8240000 			; <UNDEFINED> instruction: 0xf8240000
    3084:	84000094 	strhi	r0, [r0], #-148	; 0x94
    3088:	00000011 	andeq	r0, r0, r1, lsl r0
    308c:	0000902a 	andeq	r9, r0, sl, lsr #32
    3090:	000edc00 	andeq	sp, lr, r0, lsl #24
    3094:	00812b00 	addeq	r2, r1, r0, lsl #22
    3098:	000c0000 	andeq	r0, ip, r0
    309c:	000ecc07 	andeq	ip, lr, r7, lsl #24
    30a0:	09ef1200 	stmibeq	pc!, {r9, ip}^	; <UNPREDICTABLE>
    30a4:	b0010000 	andlt	r0, r1, r0
    30a8:	00009504 	andeq	r9, r0, r4, lsl #10
    30ac:	0000002c 	andeq	r0, r0, ip, lsr #32
    30b0:	0f259c01 	svceq	0x00259c01
    30b4:	cb130000 	blgt	4c30bc <__bss_end__+0x4b71fc>
    30b8:	01000005 	tsteq	r0, r5
    30bc:	000722b0 			; <UNDEFINED> instruction: 0x000722b0
    30c0:	0021eb00 	eoreq	lr, r1, r0, lsl #22
    30c4:	736d1400 	cmnvc	sp, #0, 8
    30c8:	b0010067 	andlt	r0, r1, r7, rrx
    30cc:	00000097 	muleq	r0, r7, r0
    30d0:	00002209 	andeq	r2, r0, r9, lsl #4
    30d4:	00951c1f 	addseq	r1, r5, pc, lsl ip
    30d8:	00017600 	andeq	r7, r1, r0, lsl #12
    30dc:	50012000 	andpl	r2, r1, r0
    30e0:	00007502 	andeq	r7, r0, r2, lsl #10
    30e4:	05d02300 	ldrbeq	r2, [r0, #768]	; 0x300
    30e8:	b9010000 	stmdblt	r1, {}	; <UNPREDICTABLE>
    30ec:	00000025 	andeq	r0, r0, r5, lsr #32
    30f0:	00009530 	andeq	r9, r0, r0, lsr r5
    30f4:	00000084 	andeq	r0, r0, r4, lsl #1
    30f8:	10199c01 	andsne	r9, r9, r1, lsl #24
    30fc:	cb130000 	blgt	4c3104 <__bss_end__+0x4b7244>
    3100:	01000005 	tsteq	r0, r5
    3104:	000722b9 			; <UNDEFINED> instruction: 0x000722b9
    3108:	00222700 	eoreq	r2, r2, r0, lsl #14
    310c:	6d662e00 	stclvs	14, cr2, [r6, #-0]
    3110:	b9010074 	stmdblt	r1, {r2, r4, r5, r6}
    3114:	00000097 	muleq	r0, r7, r0
    3118:	2f749102 	svccs	0x00749102
    311c:	66756215 			; <UNDEFINED> instruction: 0x66756215
    3120:	19ba0100 	ldmibne	sl!, {r8}
    3124:	03000010 	movweq	r0, #16
    3128:	187c9c91 	ldmdane	ip!, {r0, r4, r7, sl, fp, ip, pc}^
    312c:	00000dda 	ldrdeq	r0, [r0], -sl
    3130:	0106bc01 	tsteq	r6, r1, lsl #24
    3134:	91030000 	mrsls	r0, (UNDEF: 3)
    3138:	73167c98 	tstvc	r6, #152, 24	; 0x9800
    313c:	be01007a 	mcrlt	0, 0, r0, cr1, cr10, {3}
    3140:	00000025 	andeq	r0, r0, r5, lsr #32
    3144:	00002253 	andeq	r2, r0, r3, asr r2
    3148:	00013a29 	andeq	r3, r1, r9, lsr #20
    314c:	00103a00 	andseq	r3, r0, r0, lsl #20
    3150:	d4030500 	strle	r0, [r3], #-1280	; 0x500
    3154:	250000a5 	strcs	r0, [r0, #-165]	; 0xa5
    3158:	00009558 	andeq	r9, r0, r8, asr r5
    315c:	000011ad 	andeq	r1, r0, sp, lsr #3
    3160:	00000fc0 	andeq	r0, r0, r0, asr #31
    3164:	02530120 	subseq	r0, r3, #32, 2
    3168:	01205891 			; <UNDEFINED> instruction: 0x01205891
    316c:	54910352 	ldrpl	r0, [r1], #850	; 0x352
    3170:	51012006 	tstpl	r1, r6
    3174:	01cc0a03 	biceq	r0, ip, r3, lsl #20
    3178:	03500120 	cmpeq	r0, #32, 2
    317c:	007bfc91 			; <UNDEFINED> instruction: 0x007bfc91
    3180:	00956c24 	addseq	r6, r5, r4, lsr #24
    3184:	00116700 	andseq	r6, r1, r0, lsl #14
    3188:	95802500 	strls	r2, [r0, #1280]	; 0x500
    318c:	116e0000 	cmnne	lr, r0
    3190:	0ff80000 	svceq	0x00f80000
    3194:	01200000 	teqeq	r0, r0
    3198:	c0080253 	andgt	r0, r8, r3, asr r2
    319c:	05520120 	ldrbeq	r0, [r2, #-288]	; 0x120
    31a0:	00a5d403 	adceq	sp, r5, r3, lsl #8
    31a4:	51012000 	mrspl	r2, (UNDEF: 1)
    31a8:	a6180305 	ldrge	r0, [r8], -r5, lsl #6
    31ac:	01200000 	teqeq	r0, r0
    31b0:	a8030550 	stmdage	r3, {r4, r6, r8, sl}
    31b4:	000000a6 	andeq	r0, r0, r6, lsr #1
    31b8:	00958424 	addseq	r8, r5, r4, lsr #8
    31bc:	00118400 	andseq	r8, r1, r0, lsl #8
    31c0:	95901f00 	ldrls	r1, [r0, #3840]	; 0xf00
    31c4:	0ee10000 	cdpeq	0, 14, cr0, cr1, cr0, {0}
    31c8:	01200000 	teqeq	r0, r0
    31cc:	fc910351 	ldc2	3, cr0, [r1], {81}	; 0x51
    31d0:	5001207b 	andpl	r2, r1, fp, ror r0
    31d4:	00007502 	andeq	r7, r0, r2, lsl #10
    31d8:	00902a00 	addseq	r2, r0, r0, lsl #20
    31dc:	102a0000 	eorne	r0, sl, r0
    31e0:	81300000 	teqhi	r0, r0
    31e4:	cb000000 	blgt	31ec <_start-0x4e14>
    31e8:	902a0001 	eorls	r0, sl, r1
    31ec:	3a000000 	bcc	31f4 <_start-0x4e0c>
    31f0:	2b000010 	blcs	3238 <_start-0x4dc8>
    31f4:	00000081 	andeq	r0, r0, r1, lsl #1
    31f8:	2a07000e 	bcs	1c3238 <__bss_end__+0x1b7378>
    31fc:	23000010 	movwcs	r0, #16
    3200:	00000a43 	andeq	r0, r0, r3, asr #20
    3204:	0025c501 	eoreq	ip, r5, r1, lsl #10
    3208:	95b40000 	ldrls	r0, [r4, #0]!
    320c:	004c0000 	subeq	r0, ip, r0
    3210:	9c010000 	stcls	0, cr0, [r1], {-0}
    3214:	0000111c 	andeq	r1, r0, ip, lsl r1
    3218:	01007514 	tsteq	r0, r4, lsl r5
    321c:	000722c5 	andeq	r2, r7, r5, asr #5
    3220:	00229200 	eoreq	r9, r2, r0, lsl #4
    3224:	75621400 	strbvc	r1, [r2, #-1024]!	; 0x400
    3228:	c5010066 	strgt	r0, [r1, #-102]	; 0x66
    322c:	00000c02 	andeq	r0, r0, r2, lsl #24
    3230:	000022b3 			; <UNDEFINED> instruction: 0x000022b3
    3234:	000a2f13 	andeq	r2, sl, r3, lsl pc
    3238:	68c50100 	stmiavs	r5, {r8}^
    323c:	d4000000 	strle	r0, [r0], #-0
    3240:	14000022 	strne	r0, [r0], #-34	; 0x22
    3244:	00646e65 	rsbeq	r6, r4, r5, ror #28
    3248:	004fc501 	subeq	ip, pc, r1, lsl #10
    324c:	22f50000 	rscscs	r0, r5, #0
    3250:	72160000 	andsvc	r0, r6, #0
    3254:	01007365 	tsteq	r0, r5, ror #6
    3258:	000025c6 	andeq	r2, r0, r6, asr #11
    325c:	00231600 	eoreq	r1, r3, r0, lsl #12
    3260:	013a2900 	teqeq	sl, r0, lsl #18
    3264:	112c0000 	teqne	ip, r0
    3268:	03050000 	movweq	r0, #20480	; 0x5000
    326c:	0000a5e4 	andeq	sl, r0, r4, ror #11
    3270:	0095c825 	addseq	ip, r5, r5, lsr #16
    3274:	000b1e00 	andeq	r1, fp, r0, lsl #28
    3278:	0010da00 	andseq	sp, r0, r0, lsl #20
    327c:	52012000 	andpl	r2, r1, #0
    3280:	5201f303 	andpl	pc, r1, #201326592	; 0xc000000
    3284:	03510120 	cmpeq	r1, #32, 2
    3288:	205101f3 	ldrshcs	r0, [r1], #-19	; 0xffffffed
    328c:	f3035001 	vhadd.u8	d5, d3, d1
    3290:	02205001 	eoreq	r5, r0, #1
    3294:	0902007d 	stmdbeq	r2, {r0, r2, r3, r4, r5, r6}
    3298:	d42400ff 	strtle	r0, [r4], #-255	; 0xff
    329c:	67000095 			; <UNDEFINED> instruction: 0x67000095
    32a0:	25000011 	strcs	r0, [r0, #-17]
    32a4:	000095e8 	andeq	r9, r0, r8, ror #11
    32a8:	0000116e 	andeq	r1, r0, lr, ror #2
    32ac:	00001112 	andeq	r1, r0, r2, lsl r1
    32b0:	02530120 	subseq	r0, r3, #32, 2
    32b4:	0120c808 	teqeq	r0, r8, lsl #16
    32b8:	e4030552 	str	r0, [r3], #-1362	; 0x552
    32bc:	200000a5 	andcs	r0, r0, r5, lsr #1
    32c0:	03055101 	movweq	r5, #20737	; 0x5101
    32c4:	0000a618 	andeq	sl, r0, r8, lsl r6
    32c8:	05500120 	ldrbeq	r0, [r0, #-288]	; 0x120
    32cc:	00a67003 	adceq	r7, r6, r3
    32d0:	ec240000 	stc	0, cr0, [r4], #-0
    32d4:	84000095 	strhi	r0, [r0], #-149	; 0x95
    32d8:	00000011 	andeq	r0, r0, r1, lsl r0
    32dc:	0000902a 	andeq	r9, r0, sl, lsr #32
    32e0:	00112c00 	andseq	r2, r1, r0, lsl #24
    32e4:	00812b00 	addeq	r2, r1, r0, lsl #22
    32e8:	00160000 	andseq	r0, r6, r0
    32ec:	00111c07 	andseq	r1, r1, r7, lsl #24
    32f0:	02813100 	addeq	r3, r1, #0, 2
    32f4:	21060000 	mrscs	r0, (UNDEF: 6)
    32f8:	00001147 	andeq	r1, r0, r7, asr #2
    32fc:	00002c32 	andeq	r2, r0, r2, lsr ip
    3300:	002c3200 	eoreq	r3, ip, r0, lsl #4
    3304:	33000000 	movwcc	r0, #0
    3308:	000006f6 	strdeq	r0, [r0], -r6
    330c:	002c5707 	eoreq	r5, ip, r7, lsl #14
    3310:	b2340000 	eorslt	r0, r4, #0
    3314:	06000001 	streq	r0, [r0], -r1
    3318:	00002524 	andeq	r2, r0, r4, lsr #10
    331c:	00116700 	andseq	r6, r1, r0, lsl #14
    3320:	002c3200 	eoreq	r3, ip, r0, lsl #4
    3324:	35000000 	strcc	r0, [r0, #-0]
    3328:	0000012b 	andeq	r0, r0, fp, lsr #2
    332c:	6c341e07 	ldcvs	14, cr1, [r4], #-28	; 0xffffffe4
    3330:	07000004 	streq	r0, [r0, -r4]
    3334:	00002529 	andeq	r2, r0, r9, lsr #10
    3338:	00118400 	andseq	r8, r1, r0, lsl #8
    333c:	00973200 	addseq	r3, r7, r0, lsl #4
    3340:	002f0000 	eoreq	r0, pc, r0
    3344:	0001bc35 	andeq	fp, r1, r5, lsr ip
    3348:	31660700 	cmncc	r6, r0, lsl #14
    334c:	000003ea 	andeq	r0, r0, sl, ror #7
    3350:	119c1d06 	orrsne	r1, ip, r6, lsl #26
    3354:	2c320000 	ldccs	0, cr0, [r2], #-0
    3358:	00000000 	andeq	r0, r0, r0
    335c:	00033a31 	andeq	r3, r3, r1, lsr sl
    3360:	ad1c0600 	ldcge	6, cr0, [ip, #-0]
    3364:	32000011 	andcc	r0, r0, #17
    3368:	0000002c 	andeq	r0, r0, ip, lsr #32
    336c:	04693600 	strbteq	r3, [r9], #-1536	; 0x600
    3370:	02080000 	andeq	r0, r8, #0
    3374:	00000025 	andeq	r0, r0, r5, lsr #32
    3378:	00008a32 	andeq	r8, r0, r2, lsr sl
    337c:	00253200 	eoreq	r3, r5, r0, lsl #4
    3380:	97320000 	ldrls	r0, [r2, -r0]!
    3384:	32000000 	andcc	r0, r0, #0
    3388:	00000106 	andeq	r0, r0, r6, lsl #2
    338c:	03ff0000 	mvnseq	r0, #0
    3390:	00040000 	andeq	r0, r4, r0
    3394:	00000fa9 	andeq	r0, r0, r9, lsr #31
    3398:	02e30104 	rsceq	r0, r3, #4, 2
    339c:	3b010000 	blcc	433a4 <__bss_end__+0x374e4>
    33a0:	7d00000b 	stcvc	0, cr0, [r0, #-44]	; 0xffffffd4
    33a4:	00000004 	andeq	r0, r0, r4
    33a8:	54000096 	strpl	r0, [r0], #-150	; 0x96
    33ac:	31000001 	tstcc	r0, r1
    33b0:	0200000e 	andeq	r0, r0, #14
    33b4:	6e690504 	cdpvs	5, 6, cr0, cr9, cr4, {0}
    33b8:	04030074 	streq	r0, [r3], #-116	; 0x74
    33bc:	00003d07 	andeq	r3, r0, r7, lsl #26
    33c0:	06010300 	streq	r0, [r1], -r0, lsl #6
    33c4:	00000252 	andeq	r0, r0, r2, asr r2
    33c8:	77050203 	strvc	r0, [r5, -r3, lsl #4]
    33cc:	03000002 	movweq	r0, #2
    33d0:	007b0504 	rsbseq	r0, fp, r4, lsl #10
    33d4:	08030000 	stmdaeq	r3, {}	; <UNPREDICTABLE>
    33d8:	00007605 	andeq	r7, r0, r5, lsl #12
    33dc:	08010300 	stmdaeq	r1, {r8, r9}
    33e0:	00000250 	andeq	r0, r0, r0, asr r2
    33e4:	63070203 	movwvs	r0, #29187	; 0x7203
    33e8:	03000001 	movweq	r0, #1
    33ec:	00380704 	eorseq	r0, r8, r4, lsl #14
    33f0:	08030000 	stmdaeq	r3, {}	; <UNPREDICTABLE>
    33f4:	00003307 	andeq	r3, r0, r7, lsl #6
    33f8:	07040300 	streq	r0, [r4, -r0, lsl #6]
    33fc:	000001eb 	andeq	r0, r0, fp, ror #3
    3400:	59080103 	stmdbpl	r8, {r0, r1, r8}
    3404:	04000002 	streq	r0, [r0], #-2
    3408:	b20c0201 	andlt	r0, ip, #268435456	; 0x10000000
    340c:	05000000 	streq	r0, [r0, #-0]
    3410:	00000794 	muleq	r0, r4, r7
    3414:	08bf0500 	ldmeq	pc!, {r8, sl}	; <UNPREDICTABLE>
    3418:	05010000 	streq	r0, [r1, #-0]
    341c:	000008f8 	strdeq	r0, [r0], -r8
    3420:	09070504 	stmdbeq	r7, {r2, r8, sl}
    3424:	05050000 	streq	r0, [r5, #-0]
    3428:	00000916 	andeq	r0, r0, r6, lsl r9
    342c:	09250506 	stmdbeq	r5!, {r1, r2, r8, sl}
    3430:	05070000 	streq	r0, [r7, #-0]
    3434:	00000934 	andeq	r0, r0, r4, lsr r9
    3438:	09430503 	stmdbeq	r3, {r0, r1, r8, sl}^
    343c:	00020000 	andeq	r0, r2, r0
    3440:	0008ec06 	andeq	lr, r8, r6, lsl #24
    3444:	79150200 	ldmdbvc	r5, {r9}
    3448:	07000000 	streq	r0, [r0, -r0]
    344c:	00000ac2 	andeq	r0, r0, r2, asr #21
    3450:	96003701 	strls	r3, [r0], -r1, lsl #14
    3454:	009c0000 	addseq	r0, ip, r0
    3458:	9c010000 	stcls	0, cr0, [r1], {-0}
    345c:	000001c3 	andeq	r0, r0, r3, asr #3
    3460:	00960808 	addseq	r0, r6, r8, lsl #16
    3464:	0003a800 	andeq	sl, r3, r0, lsl #16
    3468:	96140900 	ldrls	r0, [r4], -r0, lsl #18
    346c:	03af0000 			; <UNDEFINED> instruction: 0x03af0000
    3470:	00f30000 	rscseq	r0, r3, r0
    3474:	010a0000 	mrseq	r0, (UNDEF: 10)
    3478:	0a320151 	beq	c839c4 <__bss_end__+0xc77b04>
    347c:	3e015001 	cdpcc	0, 0, cr5, cr1, cr1, {0}
    3480:	96200900 	strtls	r0, [r0], -r0, lsl #18
    3484:	03af0000 			; <UNDEFINED> instruction: 0x03af0000
    3488:	010b0000 	mrseq	r0, (UNDEF: 11)
    348c:	010a0000 	mrseq	r0, (UNDEF: 10)
    3490:	0a320151 	beq	c839dc <__bss_end__+0xc77b1c>
    3494:	3f015001 	svccc	0x00015001
    3498:	96240800 	strtls	r0, [r4], -r0, lsl #16
    349c:	03a80000 			; <UNDEFINED> instruction: 0x03a80000
    34a0:	34090000 	strcc	r0, [r9], #-0
    34a4:	c5000096 	strgt	r0, [r0, #-150]	; 0x96
    34a8:	28000003 	stmdacs	r0, {r0, r1}
    34ac:	0a000001 	beq	34b8 <_start-0x4b48>
    34b0:	75025001 	strvc	r5, [r2, #-1]
    34b4:	40090000 	andmi	r0, r9, r0
    34b8:	e6000096 			; <UNDEFINED> instruction: 0xe6000096
    34bc:	3c000003 	stccc	0, cr0, [r0], {3}
    34c0:	0a000001 	beq	34cc <_start-0x4b34>
    34c4:	75025001 	strvc	r5, [r2, #-1]
    34c8:	44080000 	strmi	r0, [r8], #-0
    34cc:	a8000096 	stmdage	r0, {r1, r2, r4, r7}
    34d0:	09000003 	stmdbeq	r0, {r0, r1}
    34d4:	00009650 	andeq	r9, r0, r0, asr r6
    34d8:	000003e6 	andeq	r0, r0, r6, ror #7
    34dc:	00000158 	andeq	r0, r0, r8, asr r1
    34e0:	0151010a 	cmpeq	r1, sl, lsl #2
    34e4:	5c090030 	stcpl	0, cr0, [r9], {48}	; 0x30
    34e8:	e6000096 			; <UNDEFINED> instruction: 0xe6000096
    34ec:	6b000003 	blvs	3500 <_start-0x4b00>
    34f0:	0a000001 	beq	34fc <_start-0x4b04>
    34f4:	30015101 	andcc	r5, r1, r1, lsl #2
    34f8:	96680900 	strbtls	r0, [r8], -r0, lsl #18
    34fc:	03e60000 	mvneq	r0, #0
    3500:	017e0000 	cmneq	lr, r0
    3504:	010a0000 	mrseq	r0, (UNDEF: 10)
    3508:	00360151 	eorseq	r0, r6, r1, asr r1
    350c:	00967409 	addseq	r7, r6, r9, lsl #8
    3510:	0003e600 	andeq	lr, r3, r0, lsl #12
    3514:	00019100 	andeq	r9, r1, r0, lsl #2
    3518:	51010a00 	tstpl	r1, r0, lsl #20
    351c:	09003301 	stmdbeq	r0, {r0, r8, r9, ip, sp}
    3520:	00009680 	andeq	r9, r0, r0, lsl #13
    3524:	000003e6 	andeq	r0, r0, r6, ror #7
    3528:	000001a6 	andeq	r0, r0, r6, lsr #3
    352c:	0351010a 	cmpeq	r1, #-2147483646	; 0x80000002
    3530:	00010e0a 	andeq	r0, r1, sl, lsl #28
    3534:	00968c09 	addseq	r8, r6, r9, lsl #24
    3538:	0003e600 	andeq	lr, r3, r0, lsl #12
    353c:	0001b900 	andeq	fp, r1, r0, lsl #18
    3540:	51010a00 	tstpl	r1, r0, lsl #20
    3544:	08003301 	stmdaeq	r0, {r0, r8, r9, ip, sp}
    3548:	00009690 	muleq	r0, r0, r6
    354c:	000003a8 	andeq	r0, r0, r8, lsr #7
    3550:	0a960b00 	beq	fe586158 <__bss_end__+0xfe57a298>
    3554:	57010000 	strpl	r0, [r1, -r0]
    3558:	00000025 	andeq	r0, r0, r5, lsr #32
    355c:	0000969c 	muleq	r0, ip, r6
    3560:	0000001c 	andeq	r0, r0, ip, lsl r0
    3564:	01e69c01 	mvneq	r9, r1, lsl #24
    3568:	ac080000 	stcge	0, cr0, [r8], {-0}
    356c:	c5000096 	strgt	r0, [r0, #-150]	; 0x96
    3570:	00000003 	andeq	r0, r0, r3
    3574:	0009ae0b 	andeq	sl, r9, fp, lsl #28
    3578:	255d0100 	ldrbcs	r0, [sp, #-256]	; 0x100
    357c:	b8000000 	stmdalt	r0, {}	; <UNPREDICTABLE>
    3580:	28000096 	stmdacs	r0, {r1, r2, r4, r7}
    3584:	01000000 	mrseq	r0, (UNDEF: 0)
    3588:	0002129c 	muleq	r2, ip, r2
    358c:	96c00800 	strbls	r0, [r0], r0, lsl #16
    3590:	01c30000 	biceq	r0, r3, r0
    3594:	d4080000 	strle	r0, [r8], #-0
    3598:	c5000096 	strgt	r0, [r0, #-150]	; 0x96
    359c:	00000003 	andeq	r0, r0, r3
    35a0:	000aea0b 	andeq	lr, sl, fp, lsl #20
    35a4:	25640100 	strbcs	r0, [r4, #-256]!	; 0x100
    35a8:	e0000000 	and	r0, r0, r0
    35ac:	1c000096 	stcne	0, cr0, [r0], {150}	; 0x96
    35b0:	01000000 	mrseq	r0, (UNDEF: 0)
    35b4:	0002359c 	muleq	r2, ip, r5
    35b8:	96f00800 	ldrbtls	r0, [r0], r0, lsl #16
    35bc:	03c50000 	biceq	r0, r5, #0
    35c0:	07000000 	streq	r0, [r0, -r0]
    35c4:	0000062c 	andeq	r0, r0, ip, lsr #12
    35c8:	96fc6a01 	ldrbtls	r6, [ip], r1, lsl #20
    35cc:	002c0000 	eoreq	r0, ip, r0
    35d0:	9c010000 	stcls	0, cr0, [r1], {-0}
    35d4:	00000271 	andeq	r0, r0, r1, ror r2
    35d8:	0100630c 	tsteq	r0, ip, lsl #6
    35dc:	00002c6a 	andeq	r2, r0, sl, ror #24
    35e0:	00233400 	eoreq	r3, r3, r0, lsl #8
    35e4:	97080800 	strls	r0, [r8, -r0, lsl #16]
    35e8:	02120000 	andseq	r0, r2, #0
    35ec:	200d0000 	andcs	r0, sp, r0
    35f0:	e6000097 			; <UNDEFINED> instruction: 0xe6000097
    35f4:	0a000003 	beq	3608 <_start-0x49f8>
    35f8:	74025101 	strvc	r5, [r2], #-257	; 0x101
    35fc:	0b000000 	bleq	3604 <_start-0x49fc>
    3600:	00000ab4 			; <UNDEFINED> instruction: 0x00000ab4
    3604:	00257401 	eoreq	r7, r5, r1, lsl #8
    3608:	97280000 	strls	r0, [r8, -r0]!
    360c:	000c0000 	andeq	r0, ip, r0
    3610:	9c010000 	stcls	0, cr0, [r1], {-0}
    3614:	00000294 	muleq	r0, r4, r2
    3618:	00973008 	addseq	r3, r7, r8
    361c:	0001c300 	andeq	ip, r1, r0, lsl #6
    3620:	670b0000 	strvs	r0, [fp, -r0]
    3624:	0100000b 	tsteq	r0, fp
    3628:	00002578 	andeq	r2, r0, r8, ror r5
    362c:	00973400 	addseq	r3, r7, r0, lsl #8
    3630:	00002000 	andeq	r2, r0, r0
    3634:	c09c0100 	addsgt	r0, ip, r0, lsl #2
    3638:	08000002 	stmdaeq	r0, {r1}
    363c:	0000973c 	andeq	r9, r0, ip, lsr r7
    3640:	00000271 	andeq	r0, r0, r1, ror r2
    3644:	00974808 	addseq	r4, r7, r8, lsl #16
    3648:	0001e600 	andeq	lr, r1, r0, lsl #12
    364c:	040e0000 	streq	r0, [lr], #-0
    3650:	0100000b 	tsteq	r0, fp
    3654:	0002d116 	andeq	sp, r2, r6, lsl r1
    3658:	b8030500 	stmdalt	r3, {r8, sl}
    365c:	0f0000a3 	svceq	0x000000a3
    3660:	0002d704 	andeq	sp, r2, r4, lsl #14
    3664:	002c1000 	eoreq	r1, ip, r0
    3668:	f80e0000 			; <UNDEFINED> instruction: 0xf80e0000
    366c:	0100000a 	tsteq	r0, sl
    3670:	0002d117 	andeq	sp, r2, r7, lsl r1
    3674:	88030500 	stmdahi	r3, {r8, sl}
    3678:	0e0000a3 	cdpeq	0, 0, cr0, cr0, cr3, {5}
    367c:	00000a79 	andeq	r0, r0, r9, ror sl
    3680:	02d11a01 	sbcseq	r1, r1, #4096	; 0x1000
    3684:	03050000 	movweq	r0, #20480	; 0x5000
    3688:	0000a3a4 	andeq	sl, r0, r4, lsr #7
    368c:	000acc0e 	andeq	ip, sl, lr, lsl #24
    3690:	d11b0100 	tstle	fp, r0, lsl #2
    3694:	05000002 	streq	r0, [r0, #-2]
    3698:	00a39003 	adceq	r9, r3, r3
    369c:	0adb0e00 	beq	ff6c6ea4 <__bss_end__+0xff6bafe4>
    36a0:	1c010000 	stcne	0, cr0, [r1], {-0}
    36a4:	000002d1 	ldrdeq	r0, [r0], -r1
    36a8:	a3940305 	orrsge	r0, r4, #335544320	; 0x14000000
    36ac:	490e0000 	stmdbmi	lr, {}	; <UNPREDICTABLE>
    36b0:	0100000b 	tsteq	r0, fp
    36b4:	0002d11d 	andeq	sp, r2, sp, lsl r1
    36b8:	98030500 	stmdals	r3, {r8, sl}
    36bc:	0e0000a3 	cdpeq	0, 0, cr0, cr0, cr3, {5}
    36c0:	00000a6a 	andeq	r0, r0, sl, ror #20
    36c4:	02d11e01 	sbcseq	r1, r1, #1, 28
    36c8:	03050000 	movweq	r0, #20480	; 0x5000
    36cc:	0000a3b4 			; <UNDEFINED> instruction: 0x0000a3b4
    36d0:	000b580e 	andeq	r5, fp, lr, lsl #16
    36d4:	d11f0100 	tstle	pc, r0, lsl #2
    36d8:	05000002 	streq	r0, [r0, #-2]
    36dc:	00a3a003 	adceq	sl, r3, r3
    36e0:	0a870e00 	beq	fe1c6ee8 <__bss_end__+0xfe1bb028>
    36e4:	20010000 	andcs	r0, r1, r0
    36e8:	000002d1 	ldrdeq	r0, [r0], -r1
    36ec:	a3b00305 	movsge	r0, #335544320	; 0x14000000
    36f0:	2c0e0000 	stccs	0, cr0, [lr], {-0}
    36f4:	0100000b 	tsteq	r0, fp
    36f8:	0002d121 	andeq	sp, r2, r1, lsr #2
    36fc:	ac030500 	cfstr32ge	mvfx0, [r3], {-0}
    3700:	0e0000a3 	cdpeq	0, 0, cr0, cr0, cr3, {5}
    3704:	00000aa4 	andeq	r0, r0, r4, lsr #21
    3708:	02d12201 	sbcseq	r2, r1, #268435456	; 0x10000000
    370c:	03050000 	movweq	r0, #20480	; 0x5000
    3710:	0000a38c 	andeq	sl, r0, ip, lsl #7
    3714:	000b1c0e 	andeq	r1, fp, lr, lsl #24
    3718:	d1230100 	teqle	r3, r0, lsl #2
    371c:	05000002 	streq	r0, [r0, #-2]
    3720:	00a3a803 	adceq	sl, r3, r3, lsl #16
    3724:	0b0c0e00 	bleq	306f2c <__bss_end__+0x2fb06c>
    3728:	24010000 	strcs	r0, [r1], #-0
    372c:	000002d1 	ldrdeq	r0, [r0], -r1
    3730:	a39c0305 	orrsge	r0, ip, #335544320	; 0x14000000
    3734:	11110000 	tstne	r1, r0
    3738:	03000008 	movweq	r0, #8
    373c:	08441287 	stmdaeq	r4, {r0, r1, r2, r7, r9, ip}^
    3740:	19020000 	stmdbne	r2, {}	; <UNPREDICTABLE>
    3744:	000003c5 	andeq	r0, r0, r5, asr #7
    3748:	00002c13 	andeq	r2, r0, r3, lsl ip
    374c:	00b21300 	adcseq	r1, r2, r0, lsl #6
    3750:	14000000 	strne	r0, [r0], #-0
    3754:	000008d0 	ldrdeq	r0, [r0], -r0	; <UNPREDICTABLE>
    3758:	002ca603 	eoreq	sl, ip, r3, lsl #12
    375c:	03da0000 	bicseq	r0, sl, #0
    3760:	da130000 	ble	4c3768 <__bss_end__+0x4b78a8>
    3764:	00000003 	andeq	r0, r0, r3
    3768:	03e0040f 	mvneq	r0, #251658240	; 0xf000000
    376c:	e5150000 	ldr	r0, [r5, #-0]
    3770:	16000003 	strne	r0, [r0], -r3
    3774:	00076512 	andeq	r6, r7, r2, lsl r5
    3778:	fc9a0300 	ldc2	3, cr0, [sl], {0}
    377c:	13000003 	movwne	r0, #3
    3780:	000003fc 	strdeq	r0, [r0], -ip
    3784:	00002c13 	andeq	r2, r0, r3, lsl ip
    3788:	040f0000 	streq	r0, [pc], #-0	; 3790 <_start-0x4870>
    378c:	000003e5 	andeq	r0, r0, r5, ror #7
    3790:	00058d00 	andeq	r8, r5, r0, lsl #26
    3794:	d7000400 	strle	r0, [r0, -r0, lsl #8]
    3798:	04000010 	streq	r0, [r0], #-16
    379c:	0002e301 	andeq	lr, r2, r1, lsl #6
    37a0:	0c320100 	ldfeqs	f0, [r2], #-0
    37a4:	047d0000 	ldrbteq	r0, [sp], #-0
    37a8:	97540000 	ldrbls	r0, [r4, -r0]
    37ac:	02000000 	andeq	r0, r0, #0
    37b0:	0f360000 	svceq	0x00360000
    37b4:	04020000 	streq	r0, [r2], #-0
    37b8:	746e6905 	strbtvc	r6, [lr], #-2309	; 0x905
    37bc:	07040300 	streq	r0, [r4, -r0, lsl #6]
    37c0:	0000003d 	andeq	r0, r0, sp, lsr r0
    37c4:	52060103 	andpl	r0, r6, #-1073741824	; 0xc0000000
    37c8:	03000002 	movweq	r0, #2
    37cc:	02770502 	rsbseq	r0, r7, #8388608	; 0x800000
    37d0:	04030000 	streq	r0, [r3], #-0
    37d4:	00007b05 	andeq	r7, r0, r5, lsl #22
    37d8:	05080300 	streq	r0, [r8, #-768]	; 0x300
    37dc:	00000076 	andeq	r0, r0, r6, ror r0
    37e0:	50080103 	andpl	r0, r8, r3, lsl #2
    37e4:	03000002 	movweq	r0, #2
    37e8:	01630702 	cmneq	r3, r2, lsl #14
    37ec:	04030000 	streq	r0, [r3], #-0
    37f0:	00003807 	andeq	r3, r0, r7, lsl #16
    37f4:	07080300 	streq	r0, [r8, -r0, lsl #6]
    37f8:	00000033 	andeq	r0, r0, r3, lsr r0
    37fc:	eb070403 	bl	1c4810 <__bss_end__+0x1b8950>
    3800:	03000001 	movweq	r0, #1
    3804:	02590801 	subseq	r0, r9, #65536	; 0x10000
    3808:	04040000 	streq	r0, [r4], #-0
    380c:	0000007f 	andeq	r0, r0, pc, ror r0
    3810:	00007205 	andeq	r7, r0, r5, lsl #4
    3814:	00720600 	rsbseq	r0, r2, r0, lsl #12
    3818:	00940000 	addseq	r0, r4, r0
    381c:	6b070000 	blvs	1c3824 <__bss_end__+0x1b7964>
    3820:	19000000 	stmdbne	r0, {}	; <UNPREDICTABLE>
    3824:	03040800 	movweq	r0, #18432	; 0x4800
    3828:	00010b14 	andeq	r0, r1, r4, lsl fp
    382c:	0cd80900 	ldcleq	9, cr0, [r8], {0}
    3830:	e4800000 	str	r0, [r0], #0
    3834:	09028082 	stmdbeq	r2, {r1, r7, pc}
    3838:	00000bbd 			; <UNDEFINED> instruction: 0x00000bbd
    383c:	8082e480 	addhi	lr, r2, r0, lsl #9
    3840:	0c520902 	mrrceq	9, 0, r0, r2, cr2
    3844:	e4840000 	str	r0, [r4], #0
    3848:	09028082 	stmdbeq	r2, {r1, r7, pc}
    384c:	00000c24 	andeq	r0, r0, r4, lsr #24
    3850:	8082e488 	addhi	lr, r2, r8, lsl #9
    3854:	0ba00902 	bleq	fe805c64 <__bss_end__+0xfe7f9da4>
    3858:	e48c0000 	str	r0, [ip], #0
    385c:	09028082 	stmdbeq	r2, {r1, r7, pc}
    3860:	00000be1 	andeq	r0, r0, r1, ror #23
    3864:	8082e490 	umullhi	lr, r2, r0, r4
    3868:	0bef0902 	bleq	ffbc5c78 <__bss_end__+0xffbb9db8>
    386c:	e4940000 	ldr	r0, [r4], #0
    3870:	09028082 	stmdbeq	r2, {r1, r7, pc}
    3874:	00000bcf 	andeq	r0, r0, pc, asr #23
    3878:	8082e498 	umullhi	lr, r2, r8, r4
    387c:	0ca40902 	stceq	9, cr0, [r4], #8
    3880:	e49c0000 	ldr	r0, [ip], #0
    3884:	09028082 	stmdbeq	r2, {r1, r7, pc}
    3888:	00000cb3 			; <UNDEFINED> instruction: 0x00000cb3
    388c:	8082e4a0 	addhi	lr, r2, r0, lsr #9
    3890:	0b8d0902 	bleq	fe345ca0 <__bss_end__+0xfe339de0>
    3894:	e4a40000 	strt	r0, [r4], #0
    3898:	00028082 	andeq	r8, r2, r2, lsl #1
    389c:	00028c0a 	andeq	r8, r2, sl, lsl #24
    38a0:	54050100 	strpl	r0, [r5], #-256	; 0x100
    38a4:	68000097 	stmdavs	r0, {r0, r1, r2, r4, r7}
    38a8:	01000000 	mrseq	r0, (UNDEF: 0)
    38ac:	0001b79c 	muleq	r1, ip, r7
    38b0:	0bac0b00 	bleq	feb064b8 <__bss_end__+0xfeafa5f8>
    38b4:	11010000 	mrsne	r0, (UNDEF: 1)
    38b8:	0000002c 	andeq	r0, r0, ip, lsr #32
    38bc:	000bfd0b 	andeq	pc, fp, fp, lsl #26
    38c0:	2c120100 	ldfcss	f0, [r2], {-0}
    38c4:	0c000000 	stceq	0, cr0, [r0], {-0}
    38c8:	00747364 	rsbseq	r7, r4, r4, ror #6
    38cc:	01b71601 			; <UNDEFINED> instruction: 0x01b71601
    38d0:	0d000000 	stceq	0, cr0, [r0, #-0]
    38d4:	00637273 	rsbeq	r7, r3, r3, ror r2
    38d8:	01b71701 			; <UNDEFINED> instruction: 0x01b71701
    38dc:	6e0e0000 	cdpvs	0, 0, cr0, cr14, cr0, {0}
    38e0:	2c180100 	ldfcss	f0, [r8], {-0}
    38e4:	01000000 	mrseq	r0, (UNDEF: 0)
    38e8:	97840f50 			; <UNDEFINED> instruction: 0x97840f50
    38ec:	00240000 	eoreq	r0, r4, r0
    38f0:	01730000 	cmneq	r3, r0
    38f4:	69100000 	ldmdbvs	r0, {}	; <UNPREDICTABLE>
    38f8:	25190100 	ldrcs	r0, [r9, #-256]	; 0x100
    38fc:	52000000 	andpl	r0, r0, #0
    3900:	00000023 	andeq	r0, r0, r3, lsr #32
    3904:	00976411 	addseq	r6, r7, r1, lsl r4
    3908:	00054f00 	andeq	r4, r5, r0, lsl #30
    390c:	00019000 	andeq	r9, r1, r0
    3910:	51011200 	mrspl	r1, R9_usr
    3914:	12ff0902 	rscsne	r0, pc, #32768	; 0x8000
    3918:	0c055001 	stceq	0, cr5, [r5], {1}
    391c:	2000b21c 	andcs	fp, r0, ip, lsl r2
    3920:	97701100 	ldrbls	r1, [r0, -r0, lsl #2]!
    3924:	054f0000 	strbeq	r0, [pc, #-0]	; 392c <_start-0x46d4>
    3928:	01ad0000 			; <UNDEFINED> instruction: 0x01ad0000
    392c:	01120000 	tsteq	r2, r0
    3930:	ff090251 			; <UNDEFINED> instruction: 0xff090251
    3934:	05500112 	ldrbeq	r0, [r0, #-274]	; 0x112
    3938:	00b2200c 	adcseq	r2, r2, ip
    393c:	74130020 	ldrvc	r0, [r3], #-32
    3940:	65000097 	strvs	r0, [r0, #-151]	; 0x97
    3944:	00000005 	andeq	r0, r0, r5
    3948:	002c0404 	eoreq	r0, ip, r4, lsl #8
    394c:	c20a0000 	andgt	r0, sl, #0
    3950:	0100000c 	tsteq	r0, ip
    3954:	0097bc1f 	addseq	fp, r7, pc, lsl ip
    3958:	00004400 	andeq	r4, r0, r0, lsl #8
    395c:	429c0100 	addsmi	r0, ip, #0, 2
    3960:	14000002 	strne	r0, [r0], #-2
    3964:	01006370 	tsteq	r0, r0, ror r3
    3968:	00002c1f 	andeq	r2, r0, pc, lsl ip
    396c:	00237100 	eoreq	r7, r3, r0, lsl #2
    3970:	013a1500 	teqeq	sl, r0, lsl #10
    3974:	02520000 	subseq	r0, r2, #0
    3978:	03050000 	movweq	r0, #20480	; 0x5000
    397c:	0000a6cc 	andeq	sl, r0, ip, asr #13
    3980:	0097cc13 	addseq	ip, r7, r3, lsl ip
    3984:	00056c00 	andeq	r6, r5, r0, lsl #24
    3988:	97ec1100 	strbls	r1, [ip, r0, lsl #2]!
    398c:	05730000 	ldrbeq	r0, [r3, #-0]!
    3990:	02380000 	eorseq	r0, r8, #0
    3994:	01120000 	tsteq	r2, r0
    3998:	20080253 	andcs	r0, r8, r3, asr r2
    399c:	05520112 	ldrbeq	r0, [r2, #-274]	; 0x112
    39a0:	00a6cc03 	adceq	ip, r6, r3, lsl #24
    39a4:	51011200 	mrspl	r1, R9_usr
    39a8:	a7980305 	ldrge	r0, [r8, r5, lsl #6]
    39ac:	01120000 	tsteq	r2, r0
    39b0:	5c030550 	cfstr32pl	mvfx0, [r3], {80}	; 0x50
    39b4:	120000a7 	andne	r0, r0, #167	; 0xa7
    39b8:	02047d02 	andeq	r7, r4, #2, 26	; 0x80
    39bc:	02120074 	andseq	r0, r2, #116	; 0x74
    39c0:	0305007d 	movweq	r0, #20605	; 0x507d
    39c4:	0000a7b8 			; <UNDEFINED> instruction: 0x0000a7b8
    39c8:	97f01300 	ldrbls	r1, [r0, r0, lsl #6]!
    39cc:	05890000 	streq	r0, [r9]
    39d0:	06000000 	streq	r0, [r0], -r0
    39d4:	00000072 	andeq	r0, r0, r2, ror r0
    39d8:	00000252 	andeq	r0, r0, r2, asr r2
    39dc:	00006b07 	andeq	r6, r0, r7, lsl #22
    39e0:	05001500 	streq	r1, [r0, #-1280]	; 0x500
    39e4:	00000242 	andeq	r0, r0, r2, asr #4
    39e8:	000c8a0a 	andeq	r8, ip, sl, lsl #20
    39ec:	00240100 	eoreq	r0, r4, r0, lsl #2
    39f0:	44000098 	strmi	r0, [r0], #-152	; 0x98
    39f4:	01000000 	mrseq	r0, (UNDEF: 0)
    39f8:	0002dc9c 	muleq	r2, ip, ip
    39fc:	63701400 	cmnvs	r0, #0, 8
    3a00:	2c240100 	stfcss	f0, [r4], #-0
    3a04:	8f000000 	svchi	0x00000000
    3a08:	15000023 	strne	r0, [r0, #-35]	; 0x23
    3a0c:	0000013a 	andeq	r0, r0, sl, lsr r1
    3a10:	000002dc 	ldrdeq	r0, [r0], -ip
    3a14:	a6e40305 	strbtge	r0, [r4], r5, lsl #6
    3a18:	10130000 	andsne	r0, r3, r0
    3a1c:	6c000098 	stcvs	0, cr0, [r0], {152}	; 0x98
    3a20:	11000005 	tstne	r0, r5
    3a24:	00009830 	andeq	r9, r0, r0, lsr r8
    3a28:	00000573 	andeq	r0, r0, r3, ror r5
    3a2c:	000002d2 	ldrdeq	r0, [r0], -r2
    3a30:	02530112 	subseq	r0, r3, #-2147483644	; 0x80000004
    3a34:	01122508 	tsteq	r2, r8, lsl #10
    3a38:	e4030552 	str	r0, [r3], #-1362	; 0x552
    3a3c:	120000a6 	andne	r0, r0, #166	; 0xa6
    3a40:	03055101 	movweq	r5, #20737	; 0x5101
    3a44:	0000a798 	muleq	r0, r8, r7
    3a48:	05500112 	ldrbeq	r0, [r0, #-274]	; 0x112
    3a4c:	00a75c03 	adceq	r5, r7, r3, lsl #24
    3a50:	7d021200 	sfmvc	f1, 4, [r2, #-0]
    3a54:	00740204 	rsbseq	r0, r4, r4, lsl #4
    3a58:	007d0212 	rsbseq	r0, sp, r2, lsl r2
    3a5c:	a7c00305 	strbge	r0, [r0, r5, lsl #6]
    3a60:	13000000 	movwne	r0, #0
    3a64:	00009834 	andeq	r9, r0, r4, lsr r8
    3a68:	00000589 	andeq	r0, r0, r9, lsl #11
    3a6c:	00840500 	addeq	r0, r4, r0, lsl #10
    3a70:	7d0a0000 	stcvc	0, cr0, [sl, #-0]
    3a74:	0100000c 	tsteq	r0, ip
    3a78:	00984427 	addseq	r4, r8, r7, lsr #8
    3a7c:	00004400 	andeq	r4, r0, r0, lsl #8
    3a80:	669c0100 	ldrvs	r0, [ip], r0, lsl #2
    3a84:	14000003 	strne	r0, [r0], #-3
    3a88:	01006370 	tsteq	r0, r0, ror r3
    3a8c:	00002c27 	andeq	r2, r0, r7, lsr #24
    3a90:	0023ad00 	eoreq	sl, r3, r0, lsl #26
    3a94:	013a1500 	teqeq	sl, r0, lsl #10
    3a98:	03760000 	cmneq	r6, #0
    3a9c:	03050000 	movweq	r0, #20480	; 0x5000
    3aa0:	0000a700 	andeq	sl, r0, r0, lsl #14
    3aa4:	00985413 	addseq	r5, r8, r3, lsl r4
    3aa8:	00056c00 	andeq	r6, r5, r0, lsl #24
    3aac:	98741100 	ldmdals	r4!, {r8, ip}^
    3ab0:	05730000 	ldrbeq	r0, [r3, #-0]!
    3ab4:	035c0000 	cmpeq	ip, #0
    3ab8:	01120000 	tsteq	r2, r0
    3abc:	28080253 	stmdacs	r8, {r0, r1, r4, r6, r9}
    3ac0:	05520112 	ldrbeq	r0, [r2, #-274]	; 0x112
    3ac4:	00a70003 	adceq	r0, r7, r3
    3ac8:	51011200 	mrspl	r1, R9_usr
    3acc:	a7980305 	ldrge	r0, [r8, r5, lsl #6]
    3ad0:	01120000 	tsteq	r2, r0
    3ad4:	5c030550 	cfstr32pl	mvfx0, [r3], {80}	; 0x50
    3ad8:	120000a7 	andne	r0, r0, #167	; 0xa7
    3adc:	02047d02 	andeq	r7, r4, #2, 26	; 0x80
    3ae0:	02120074 	andseq	r0, r2, #116	; 0x74
    3ae4:	0305007d 	movweq	r0, #20605	; 0x507d
    3ae8:	0000a7d0 	ldrdeq	sl, [r0], -r0
    3aec:	98781300 	ldmdals	r8!, {r8, r9, ip}^
    3af0:	05890000 	streq	r0, [r9]
    3af4:	06000000 	streq	r0, [r0], -r0
    3af8:	00000072 	andeq	r0, r0, r2, ror r0
    3afc:	00000376 	andeq	r0, r0, r6, ror r3
    3b00:	00006b07 	andeq	r6, r0, r7, lsl #22
    3b04:	05000c00 	streq	r0, [r0, #-3072]	; 0xc00
    3b08:	00000366 	andeq	r0, r0, r6, ror #6
    3b0c:	000c600a 	andeq	r6, ip, sl
    3b10:	882a0100 	stmdahi	sl!, {r8}
    3b14:	44000098 	strmi	r0, [r0], #-152	; 0x98
    3b18:	01000000 	mrseq	r0, (UNDEF: 0)
    3b1c:	0004009c 	muleq	r4, ip, r0
    3b20:	63701400 	cmnvs	r0, #0, 8
    3b24:	2c2a0100 	stfcss	f0, [sl], #-0
    3b28:	cb000000 	blgt	3b30 <_start-0x44d0>
    3b2c:	15000023 	strne	r0, [r0, #-35]	; 0x23
    3b30:	0000013a 	andeq	r0, r0, sl, lsr r1
    3b34:	00000410 	andeq	r0, r0, r0, lsl r4
    3b38:	a7100305 	ldrge	r0, [r0, -r5, lsl #6]
    3b3c:	98130000 	ldmdals	r3, {}	; <UNPREDICTABLE>
    3b40:	6c000098 	stcvs	0, cr0, [r0], {152}	; 0x98
    3b44:	11000005 	tstne	r0, r5
    3b48:	000098b8 			; <UNDEFINED> instruction: 0x000098b8
    3b4c:	00000573 	andeq	r0, r0, r3, ror r5
    3b50:	000003f6 	strdeq	r0, [r0], -r6
    3b54:	02530112 	subseq	r0, r3, #-2147483644	; 0x80000004
    3b58:	01122b08 	tsteq	r2, r8, lsl #22
    3b5c:	10030552 	andne	r0, r3, r2, asr r5
    3b60:	120000a7 	andne	r0, r0, #167	; 0xa7
    3b64:	03055101 	movweq	r5, #20737	; 0x5101
    3b68:	0000a798 	muleq	r0, r8, r7
    3b6c:	05500112 	ldrbeq	r0, [r0, #-274]	; 0x112
    3b70:	00a75c03 	adceq	r5, r7, r3, lsl #24
    3b74:	7d021200 	sfmvc	f1, 4, [r2, #-0]
    3b78:	00740204 	rsbseq	r0, r4, r4, lsl #4
    3b7c:	007d0212 	rsbseq	r0, sp, r2, lsl r2
    3b80:	a7e00305 	strbge	r0, [r0, r5, lsl #6]!
    3b84:	13000000 	movwne	r0, #0
    3b88:	000098bc 			; <UNDEFINED> instruction: 0x000098bc
    3b8c:	00000589 	andeq	r0, r0, r9, lsl #11
    3b90:	00720600 	rsbseq	r0, r2, r0, lsl #12
    3b94:	04100000 	ldreq	r0, [r0], #-0
    3b98:	6b070000 	blvs	1c3ba0 <__bss_end__+0x1b7ce0>
    3b9c:	1c000000 	stcne	0, cr0, [r0], {-0}
    3ba0:	04000500 	streq	r0, [r0], #-1280	; 0x500
    3ba4:	770a0000 	strvc	r0, [sl, -r0]
    3ba8:	0100000b 	tsteq	r0, fp
    3bac:	0098cc2d 	addseq	ip, r8, sp, lsr #24
    3bb0:	00004400 	andeq	r4, r0, r0, lsl #8
    3bb4:	9a9c0100 	bls	fe703fbc <__bss_end__+0xfe6f80fc>
    3bb8:	14000004 	strne	r0, [r0], #-4
    3bbc:	01006370 	tsteq	r0, r0, ror r3
    3bc0:	00002c2d 	andeq	r2, r0, sp, lsr #24
    3bc4:	0023e900 	eoreq	lr, r3, r0, lsl #18
    3bc8:	013a1500 	teqeq	sl, r0, lsl #10
    3bcc:	049a0000 	ldreq	r0, [sl], #0
    3bd0:	03050000 	movweq	r0, #20480	; 0x5000
    3bd4:	0000a730 	andeq	sl, r0, r0, lsr r7
    3bd8:	0098dc13 	addseq	sp, r8, r3, lsl ip
    3bdc:	00056c00 	andeq	r6, r5, r0, lsl #24
    3be0:	98fc1100 	ldmls	ip!, {r8, ip}^
    3be4:	05730000 	ldrbeq	r0, [r3, #-0]!
    3be8:	04900000 	ldreq	r0, [r0], #0
    3bec:	01120000 	tsteq	r2, r0
    3bf0:	2e080253 	mcrcs	2, 0, r0, cr8, cr3, {2}
    3bf4:	05520112 	ldrbeq	r0, [r2, #-274]	; 0x112
    3bf8:	00a73003 	adceq	r3, r7, r3
    3bfc:	51011200 	mrspl	r1, R9_usr
    3c00:	a7980305 	ldrge	r0, [r8, r5, lsl #6]
    3c04:	01120000 	tsteq	r2, r0
    3c08:	5c030550 	cfstr32pl	mvfx0, [r3], {80}	; 0x50
    3c0c:	120000a7 	andne	r0, r0, #167	; 0xa7
    3c10:	02047d02 	andeq	r7, r4, #2, 26	; 0x80
    3c14:	02120074 	andseq	r0, r2, #116	; 0x74
    3c18:	0305007d 	movweq	r0, #20605	; 0x507d
    3c1c:	0000a7f8 	strdeq	sl, [r0], -r8
    3c20:	99001300 	stmdbls	r0, {r8, r9, ip}
    3c24:	05890000 	streq	r0, [r9]
    3c28:	05000000 	streq	r0, [r0, #-0]
    3c2c:	00000242 	andeq	r0, r0, r2, asr #4
    3c30:	000c120a 	andeq	r1, ip, sl, lsl #4
    3c34:	10300100 	eorsne	r0, r0, r0, lsl #2
    3c38:	44000099 	strmi	r0, [r0], #-153	; 0x99
    3c3c:	01000000 	mrseq	r0, (UNDEF: 0)
    3c40:	0005249c 	muleq	r5, ip, r4
    3c44:	63701400 	cmnvs	r0, #0, 8
    3c48:	2c300100 	ldfcss	f0, [r0], #-0
    3c4c:	07000000 	streq	r0, [r0, -r0]
    3c50:	15000024 	strne	r0, [r0, #-36]	; 0x24
    3c54:	0000013a 	andeq	r0, r0, sl, lsr r1
    3c58:	00000534 	andeq	r0, r0, r4, lsr r5
    3c5c:	a7480305 	strbge	r0, [r8, -r5, lsl #6]
    3c60:	20130000 	andscs	r0, r3, r0
    3c64:	6c000099 	stcvs	0, cr0, [r0], {153}	; 0x99
    3c68:	11000005 	tstne	r0, r5
    3c6c:	00009940 	andeq	r9, r0, r0, asr #18
    3c70:	00000573 	andeq	r0, r0, r3, ror r5
    3c74:	0000051a 	andeq	r0, r0, sl, lsl r5
    3c78:	02530112 	subseq	r0, r3, #-2147483644	; 0x80000004
    3c7c:	01123108 	tsteq	r2, r8, lsl #2
    3c80:	48030552 	stmdami	r3, {r1, r4, r6, r8, sl}
    3c84:	120000a7 	andne	r0, r0, #167	; 0xa7
    3c88:	03055101 	movweq	r5, #20737	; 0x5101
    3c8c:	0000a798 	muleq	r0, r8, r7
    3c90:	05500112 	ldrbeq	r0, [r0, #-274]	; 0x112
    3c94:	00a75c03 	adceq	r5, r7, r3, lsl #24
    3c98:	7d021200 	sfmvc	f1, 4, [r2, #-0]
    3c9c:	00740204 	rsbseq	r0, r4, r4, lsl #4
    3ca0:	007d0212 	rsbseq	r0, sp, r2, lsl r2
    3ca4:	a8080305 	stmdage	r8, {r0, r2, r8, r9}
    3ca8:	13000000 	movwne	r0, #0
    3cac:	00009944 	andeq	r9, r0, r4, asr #18
    3cb0:	00000589 	andeq	r0, r0, r9, lsl #11
    3cb4:	00720600 	rsbseq	r0, r2, r0, lsl #12
    3cb8:	05340000 	ldreq	r0, [r4, #-0]!
    3cbc:	6b070000 	blvs	1c3cc4 <__bss_end__+0x1b7e04>
    3cc0:	11000000 	mrsne	r0, (UNDEF: 0)
    3cc4:	05240500 	streq	r0, [r4, #-1280]!	; 0x500
    3cc8:	ac0b0000 	stcge	0, cr0, [fp], {-0}
    3ccc:	0100000b 	tsteq	r0, fp
    3cd0:	00002c11 	andeq	r2, r0, r1, lsl ip
    3cd4:	0bfd0b00 	bleq	fff468dc <__bss_end__+0xfff3aa1c>
    3cd8:	12010000 	andne	r0, r1, #0
    3cdc:	0000002c 	andeq	r0, r0, ip, lsr #32
    3ce0:	00021416 	andeq	r1, r2, r6, lsl r4
    3ce4:	65990200 	ldrvs	r0, [r9, #512]	; 0x200
    3ce8:	17000005 	strne	r0, [r0, -r5]
    3cec:	0000002c 	andeq	r0, r0, ip, lsr #32
    3cf0:	00002c17 	andeq	r2, r0, r7, lsl ip
    3cf4:	11180000 	tstne	r8, r0
    3cf8:	02000008 	andeq	r0, r0, #8
    3cfc:	012b1887 	smlawbeq	fp, r7, r8, r1
    3d00:	1e020000 	cdpne	0, 0, cr0, cr2, cr0, {0}
    3d04:	00046c19 	andeq	r6, r4, r9, lsl ip
    3d08:	25290200 	strcs	r0, [r9, #-512]!	; 0x200
    3d0c:	89000000 	stmdbhi	r0, {}	; <UNPREDICTABLE>
    3d10:	17000005 	strne	r0, [r0, -r5]
    3d14:	00000079 	andeq	r0, r0, r9, ror r0
    3d18:	bc18001a 	ldclt	0, cr0, [r8], {26}
    3d1c:	02000001 	andeq	r0, r0, #1
    3d20:	1bbd0066 	blne	fef43ec0 <__bss_end__+0xfef38000>
    3d24:	00040000 	andeq	r0, r4, r0
    3d28:	0000122e 	andeq	r1, r0, lr, lsr #4
    3d2c:	0fbe0104 	svceq	0x00be0104
    3d30:	280c0000 	stmdacs	ip, {}	; <UNPREDICTABLE>
    3d34:	a7000012 	smladge	r0, r2, r0, r0
    3d38:	90000010 	andls	r0, r0, r0, lsl r0
    3d3c:	2000009a 	mulcs	r0, sl, r0
    3d40:	10000008 	andne	r0, r0, r8
    3d44:	02000010 	andeq	r0, r0, #16
    3d48:	6e690504 	cdpvs	5, 6, cr0, cr9, cr4, {0}
    3d4c:	04030074 	streq	r0, [r3], #-116	; 0x74
    3d50:	00003d07 	andeq	r3, r0, r7, lsl #26
    3d54:	002c0400 	eoreq	r0, ip, r0, lsl #8
    3d58:	01030000 	mrseq	r0, (UNDEF: 3)
    3d5c:	00025206 	andeq	r5, r2, r6, lsl #4
    3d60:	05020300 	streq	r0, [r2, #-768]	; 0x300
    3d64:	00000277 	andeq	r0, r0, r7, ror r2
    3d68:	7b050403 	blvc	144d7c <__bss_end__+0x138ebc>
    3d6c:	03000000 	movweq	r0, #0
    3d70:	00760508 	rsbseq	r0, r6, r8, lsl #10
    3d74:	01030000 	mrseq	r0, (UNDEF: 3)
    3d78:	00025008 	andeq	r5, r2, r8
    3d7c:	07020300 	streq	r0, [r2, -r0, lsl #6]
    3d80:	00000163 	andeq	r0, r0, r3, ror #2
    3d84:	38070403 	stmdacc	r7, {r0, r1, sl}
    3d88:	03000000 	movweq	r0, #0
    3d8c:	00330708 	eorseq	r0, r3, r8, lsl #14
    3d90:	1d050000 	stcne	0, cr0, [r5, #-0]
    3d94:	0400000f 	streq	r0, [r0], #-15
    3d98:	00007b22 	andeq	r7, r0, r2, lsr #22
    3d9c:	81040600 	tsthi	r4, r0, lsl #12
    3da0:	07000000 	streq	r0, [r0, -r0]
    3da4:	000011a8 	andeq	r1, r0, r8, lsr #3
    3da8:	00105d05 	andseq	r5, r0, r5, lsl #26
    3dac:	462c0500 	strtmi	r0, [ip], -r0, lsl #10
    3db0:	05000000 	streq	r0, [r0, #-0]
    3db4:	000011c8 	andeq	r1, r0, r8, asr #3
    3db8:	00467205 	subeq	r7, r6, r5, lsl #4
    3dbc:	25080000 	strcs	r0, [r8, #-0]
    3dc0:	0600000f 	streq	r0, [r0], -pc
    3dc4:	002c0165 	eoreq	r0, ip, r5, ror #2
    3dc8:	04090000 	streq	r0, [r9], #-0
    3dcc:	00c7a605 	sbceq	sl, r7, r5, lsl #12
    3dd0:	170a0000 	strne	r0, [sl, -r0]
    3dd4:	0500000f 	streq	r0, [r0, #-15]
    3dd8:	00009ca8 	andeq	r9, r0, r8, lsr #25
    3ddc:	0eb50a00 	vmoveq.f32	s0, #80	; 0x50
    3de0:	a9050000 	stmdbge	r5, {}	; <UNPREDICTABLE>
    3de4:	000000c7 	andeq	r0, r0, r7, asr #1
    3de8:	00540b00 	subseq	r0, r4, r0, lsl #22
    3dec:	00d70000 	sbcseq	r0, r7, r0
    3df0:	2c0c0000 	stccs	0, cr0, [ip], {-0}
    3df4:	03000000 	movweq	r0, #0
    3df8:	05080d00 	streq	r0, [r8, #-3328]	; 0xd00
    3dfc:	0000f8a3 	andeq	pc, r0, r3, lsr #17
    3e00:	11a00e00 	lslne	r0, r0, #28
    3e04:	a5050000 	strge	r0, [r5, #-0]
    3e08:	00000025 	andeq	r0, r0, r5, lsr #32
    3e0c:	11af0e00 			; <UNDEFINED> instruction: 0x11af0e00
    3e10:	aa050000 	bge	143e18 <__bss_end__+0x137f58>
    3e14:	000000a8 	andeq	r0, r0, r8, lsr #1
    3e18:	16050004 	strne	r0, [r5], -r4
    3e1c:	05000011 	streq	r0, [r0, #-17]
    3e20:	0000d7ab 	andeq	sp, r0, fp, lsr #15
    3e24:	0e7e0500 	cdpeq	5, 7, cr0, cr14, cr0, {0}
    3e28:	af050000 	svcge	0x00050000
    3e2c:	00000070 	andeq	r0, r0, r0, ror r0
    3e30:	0406040f 	streq	r0, [r6], #-1039	; 0x40f
    3e34:	00000116 	andeq	r0, r0, r6, lsl r1
    3e38:	59080103 	stmdbpl	r8, {r0, r1, r8}
    3e3c:	10000002 	andne	r0, r0, r2
    3e40:	00000116 	andeq	r0, r0, r6, lsl r1
    3e44:	00122005 	andseq	r2, r2, r5
    3e48:	62160700 	andsvs	r0, r6, #0, 14
    3e4c:	11000000 	mrsne	r0, (UNDEF: 0)
    3e50:	00000e8f 	andeq	r0, r0, pc, lsl #29
    3e54:	802f0718 	eorhi	r0, pc, r8, lsl r7	; <UNPREDICTABLE>
    3e58:	0e000001 	cdpeq	0, 0, cr0, cr0, cr1, {0}
    3e5c:	00001137 	andeq	r1, r0, r7, lsr r1
    3e60:	01803107 	orreq	r3, r0, r7, lsl #2
    3e64:	12000000 	andne	r0, r0, #0
    3e68:	07006b5f 	smlsdeq	r0, pc, fp, r6	; <UNPREDICTABLE>
    3e6c:	00002532 	andeq	r2, r0, r2, lsr r5
    3e70:	8b0e0400 	blhi	384e78 <__bss_end__+0x378fb8>
    3e74:	07000011 	smladeq	r0, r1, r0, r0
    3e78:	00002532 	andeq	r2, r0, r2, lsr r5
    3e7c:	780e0800 	stmdavc	lr, {fp}
    3e80:	0700000e 	streq	r0, [r0, -lr]
    3e84:	00002532 	andeq	r2, r0, r2, lsr r5
    3e88:	900e0c00 	andls	r0, lr, r0, lsl #24
    3e8c:	07000012 	smladeq	r0, r2, r0, r0
    3e90:	00002532 	andeq	r2, r0, r2, lsr r5
    3e94:	5f121000 	svcpl	0x00121000
    3e98:	33070078 	movwcc	r0, #28792	; 0x7078
    3e9c:	00000186 	andeq	r0, r0, r6, lsl #3
    3ea0:	04060014 	streq	r0, [r6], #-20
    3ea4:	0000012d 	andeq	r0, r0, sp, lsr #2
    3ea8:	0001220b 	andeq	r2, r1, fp, lsl #4
    3eac:	00019600 	andeq	r9, r1, r0, lsl #12
    3eb0:	002c0c00 	eoreq	r0, ip, r0, lsl #24
    3eb4:	00000000 	andeq	r0, r0, r0
    3eb8:	000eb011 	andeq	fp, lr, r1, lsl r0
    3ebc:	37072400 	strcc	r2, [r7, -r0, lsl #8]
    3ec0:	0000020f 	andeq	r0, r0, pc, lsl #4
    3ec4:	000d9c0e 	andeq	r9, sp, lr, lsl #24
    3ec8:	25390700 	ldrcs	r0, [r9, #-1792]!	; 0x700
    3ecc:	00000000 	andeq	r0, r0, r0
    3ed0:	0011d50e 	andseq	sp, r1, lr, lsl #10
    3ed4:	253a0700 	ldrcs	r0, [sl, #-1792]!	; 0x700
    3ed8:	04000000 	streq	r0, [r0], #-0
    3edc:	000dc20e 	andeq	ip, sp, lr, lsl #4
    3ee0:	253b0700 	ldrcs	r0, [fp, #-1792]!	; 0x700
    3ee4:	08000000 	stmdaeq	r0, {}	; <UNPREDICTABLE>
    3ee8:	00135b0e 	andseq	r5, r3, lr, lsl #22
    3eec:	253c0700 	ldrcs	r0, [ip, #-1792]!	; 0x700
    3ef0:	0c000000 	stceq	0, cr0, [r0], {-0}
    3ef4:	000fad0e 	andeq	sl, pc, lr, lsl #26
    3ef8:	253d0700 	ldrcs	r0, [sp, #-1792]!	; 0x700
    3efc:	10000000 	andne	r0, r0, r0
    3f00:	000f390e 	andeq	r3, pc, lr, lsl #18
    3f04:	253e0700 	ldrcs	r0, [lr, #-1792]!	; 0x700
    3f08:	14000000 	strne	r0, [r0], #-0
    3f0c:	0012950e 	andseq	r9, r2, lr, lsl #10
    3f10:	253f0700 	ldrcs	r0, [pc, #-1792]!	; 3818 <_start-0x47e8>
    3f14:	18000000 	stmdane	r0, {}	; <UNPREDICTABLE>
    3f18:	0010e50e 	andseq	lr, r0, lr, lsl #10
    3f1c:	25400700 	strbcs	r0, [r0, #-1792]	; 0x700
    3f20:	1c000000 	stcne	0, cr0, [r0], {-0}
    3f24:	0012ec0e 	andseq	lr, r2, lr, lsl #24
    3f28:	25410700 	strbcs	r0, [r1, #-1792]	; 0x700
    3f2c:	20000000 	andcs	r0, r0, r0
    3f30:	0dd11300 	ldcleq	3, cr1, [r1]
    3f34:	01080000 	mrseq	r0, (UNDEF: 8)
    3f38:	024f4a07 	subeq	r4, pc, #28672	; 0x7000
    3f3c:	620e0000 	andvs	r0, lr, #0
    3f40:	0700000e 	streq	r0, [r0, -lr]
    3f44:	00024f4b 	andeq	r4, r2, fp, asr #30
    3f48:	e10e0000 	mrs	r0, (UNDEF: 14)
    3f4c:	0700000c 	streq	r0, [r0, -ip]
    3f50:	00024f4c 	andeq	r4, r2, ip, asr #30
    3f54:	12148000 	andsne	r8, r4, #0
    3f58:	07000012 	smladeq	r0, r2, r0, r0
    3f5c:	0001224e 	andeq	r2, r1, lr, asr #4
    3f60:	14010000 	strne	r0, [r1], #-0
    3f64:	00000dff 	strdeq	r0, [r0], -pc	; <UNPREDICTABLE>
    3f68:	01225107 	teqeq	r2, r7, lsl #2
    3f6c:	01040000 	mrseq	r0, (UNDEF: 4)
    3f70:	010e0b00 	tsteq	lr, r0, lsl #22
    3f74:	025f0000 	subseq	r0, pc, #0
    3f78:	2c0c0000 	stccs	0, cr0, [ip], {-0}
    3f7c:	1f000000 	svcne	0x00000000
    3f80:	0fb61300 	svceq	0x00b61300
    3f84:	01900000 	orrseq	r0, r0, r0
    3f88:	029d5d07 	addseq	r5, sp, #448	; 0x1c0
    3f8c:	370e0000 	strcc	r0, [lr, -r0]
    3f90:	07000011 	smladeq	r0, r1, r0, r0
    3f94:	00029d5e 	andeq	r9, r2, lr, asr sp
    3f98:	5b0e0000 	blpl	383fa0 <__bss_end__+0x3780e0>
    3f9c:	07000011 	smladeq	r0, r1, r0, r0
    3fa0:	0000255f 	andeq	r2, r0, pc, asr r5
    3fa4:	6a0e0400 	bvs	384fac <__bss_end__+0x3790ec>
    3fa8:	0700000e 	streq	r0, [r0, -lr]
    3fac:	0002a361 	andeq	sl, r2, r1, ror #6
    3fb0:	d10e0800 	tstle	lr, r0, lsl #16
    3fb4:	0700000d 	streq	r0, [r0, -sp]
    3fb8:	00020f62 	andeq	r0, r2, r2, ror #30
    3fbc:	06008800 	streq	r8, [r0], -r0, lsl #16
    3fc0:	00025f04 	andeq	r5, r2, r4, lsl #30
    3fc4:	02b30b00 	adcseq	r0, r3, #0, 22
    3fc8:	02b30000 	adcseq	r0, r3, #0
    3fcc:	2c0c0000 	stccs	0, cr0, [ip], {-0}
    3fd0:	1f000000 	svcne	0x00000000
    3fd4:	b9040600 	stmdblt	r4, {r9, sl}
    3fd8:	15000002 	strne	r0, [r0, #-2]
    3fdc:	0010ef11 	andseq	lr, r0, r1, lsl pc
    3fe0:	75070800 	strvc	r0, [r7, #-2048]	; 0x800
    3fe4:	000002df 	ldrdeq	r0, [r0], -pc	; <UNPREDICTABLE>
    3fe8:	000db70e 	andeq	fp, sp, lr, lsl #14
    3fec:	df760700 	svcle	0x00760700
    3ff0:	00000002 	andeq	r0, r0, r2
    3ff4:	000cfe0e 	andeq	pc, ip, lr, lsl #28
    3ff8:	25770700 	ldrbcs	r0, [r7, #-1792]!	; 0x700
    3ffc:	04000000 	streq	r0, [r0], #-0
    4000:	54040600 	strpl	r0, [r4], #-1536	; 0x600
    4004:	11000000 	mrsne	r0, (UNDEF: 0)
    4008:	00001121 	andeq	r1, r0, r1, lsr #2
    400c:	0fb50768 	svceq	0x00b50768
    4010:	12000004 	andne	r0, r0, #4
    4014:	0700705f 	smlsdeq	r0, pc, r0, r7	; <UNPREDICTABLE>
    4018:	0002dfb6 			; <UNDEFINED> instruction: 0x0002dfb6
    401c:	5f120000 	svcpl	0x00120000
    4020:	b7070072 	smlsdxlt	r7, r2, r0, r0
    4024:	00000025 	andeq	r0, r0, r5, lsr #32
    4028:	775f1204 	ldrbvc	r1, [pc, -r4, lsl #4]
    402c:	25b80700 	ldrcs	r0, [r8, #1792]!	; 0x700
    4030:	08000000 	stmdaeq	r0, {}	; <UNPREDICTABLE>
    4034:	000df80e 	andeq	pc, sp, lr, lsl #16
    4038:	3fb90700 	svccc	0x00b90700
    403c:	0c000000 	stceq	0, cr0, [r0], {-0}
    4040:	000ecc0e 	andeq	ip, lr, lr, lsl #24
    4044:	3fba0700 	svccc	0x00ba0700
    4048:	0e000000 	cdpeq	0, 0, cr0, cr0, cr0, {0}
    404c:	66625f12 	uqadd16vs	r5, r2, r2
    4050:	babb0700 	blt	feec5c58 <__bss_end__+0xfeeb9d98>
    4054:	10000002 	andne	r0, r0, r2
    4058:	000d690e 	andeq	r6, sp, lr, lsl #18
    405c:	25bc0700 	ldrcs	r0, [ip, #1792]!	; 0x700
    4060:	18000000 	stmdane	r0, {}	; <UNPREDICTABLE>
    4064:	000ddf0e 	andeq	sp, sp, lr, lsl #30
    4068:	0ec30700 	cdpeq	7, 12, cr0, cr3, cr0, {0}
    406c:	1c000001 	stcne	0, cr0, [r0], {1}
    4070:	0001b60e 	andeq	fp, r1, lr, lsl #12
    4074:	6ac50700 	bvs	ff145c7c <__bss_end__+0xff139dbc>
    4078:	20000005 	andcs	r0, r0, r5
    407c:	0002850e 	andeq	r8, r2, lr, lsl #10
    4080:	94c70700 	strbls	r0, [r7], #1792	; 0x700
    4084:	24000005 	strcs	r0, [r0], #-5
    4088:	0011b70e 	andseq	fp, r1, lr, lsl #14
    408c:	b8ca0700 	stmialt	sl, {r8, r9, sl}^
    4090:	28000005 	stmdacs	r0, {r0, r2}
    4094:	0013060e 	andseq	r0, r3, lr, lsl #12
    4098:	d2cb0700 	sbcle	r0, fp, #0, 14
    409c:	2c000005 	stccs	0, cr0, [r0], {5}
    40a0:	62755f12 	rsbsvs	r5, r5, #18, 30	; 0x48
    40a4:	bace0700 	blt	ff385cac <__bss_end__+0xff379dec>
    40a8:	30000002 	andcc	r0, r0, r2
    40ac:	70755f12 	rsbsvc	r5, r5, r2, lsl pc
    40b0:	dfcf0700 	svcle	0x00cf0700
    40b4:	38000002 	stmdacc	r0, {r1}
    40b8:	72755f12 	rsbsvc	r5, r5, #18, 30	; 0x48
    40bc:	25d00700 	ldrbcs	r0, [r0, #1792]	; 0x700
    40c0:	3c000000 	stccc	0, cr0, [r0], {-0}
    40c4:	000db10e 	andeq	fp, sp, lr, lsl #2
    40c8:	d8d30700 	ldmle	r3, {r8, r9, sl}^
    40cc:	40000005 	andmi	r0, r0, r5
    40d0:	0012c20e 	andseq	ip, r2, lr, lsl #4
    40d4:	e8d40700 	ldm	r4, {r8, r9, sl}^
    40d8:	43000005 	movwmi	r0, #5
    40dc:	626c5f12 	rsbvs	r5, ip, #18, 30	; 0x48
    40e0:	bad70700 	blt	ff5c5ce8 <__bss_end__+0xff5b9e28>
    40e4:	44000002 	strmi	r0, [r0], #-2
    40e8:	000e0e0e 	andeq	r0, lr, lr, lsl #28
    40ec:	25da0700 	ldrbcs	r0, [sl, #1792]	; 0x700
    40f0:	4c000000 	stcmi	0, cr0, [r0], {-0}
    40f4:	000e360e 	andeq	r3, lr, lr, lsl #12
    40f8:	86db0700 	ldrbhi	r0, [fp], r0, lsl #14
    40fc:	50000000 	andpl	r0, r0, r0
    4100:	000abc0e 	andeq	fp, sl, lr, lsl #24
    4104:	2dde0700 	ldclcs	7, cr0, [lr]
    4108:	54000004 	strpl	r0, [r0], #-4
    410c:	0011a90e 	andseq	sl, r1, lr, lsl #18
    4110:	03e20700 	mvneq	r0, #0, 14
    4114:	58000001 	stmdapl	r0, {r0}
    4118:	0011290e 	andseq	r2, r1, lr, lsl #18
    411c:	f8e40700 			; <UNDEFINED> instruction: 0xf8e40700
    4120:	5c000000 	stcpl	0, cr0, [r0], {-0}
    4124:	000f2c0e 	andeq	r2, pc, lr, lsl #24
    4128:	25e50700 	strbcs	r0, [r5, #1792]!	; 0x700
    412c:	64000000 	strvs	r0, [r0], #-0
    4130:	00251600 	eoreq	r1, r5, r0, lsl #12
    4134:	042d0000 	strteq	r0, [sp], #-0
    4138:	2d170000 	ldccs	0, cr0, [r7, #-0]
    413c:	17000004 	strne	r0, [r0, -r4]
    4140:	0000010e 	andeq	r0, r0, lr, lsl #2
    4144:	00011017 	andeq	r1, r1, r7, lsl r0
    4148:	00251700 	eoreq	r1, r5, r0, lsl #14
    414c:	06000000 	streq	r0, [r0], -r0
    4150:	00043804 	andeq	r3, r4, r4, lsl #16
    4154:	042d1000 	strteq	r1, [sp], #-0
    4158:	93180000 	tstls	r8, #0
    415c:	28000011 	stmdacs	r0, {r0, r4}
    4160:	02600704 	rsbeq	r0, r0, #4, 14	; 0x100000
    4164:	0000056a 	andeq	r0, r0, sl, ror #10
    4168:	0010de19 	andseq	sp, r0, r9, lsl lr
    416c:	02620700 	rsbeq	r0, r2, #0, 14
    4170:	00000025 	andeq	r0, r0, r5, lsr #32
    4174:	0e071900 	cdpeq	9, 0, cr1, cr7, cr0, {0}
    4178:	67070000 	strvs	r0, [r7, -r0]
    417c:	00063f02 	andeq	r3, r6, r2, lsl #30
    4180:	bc190400 	cfldrslt	mvf0, [r9], {-0}
    4184:	0700000e 	streq	r0, [r0, -lr]
    4188:	063f0267 	ldrteq	r0, [pc], -r7, ror #4
    418c:	19080000 	stmdbne	r8, {}	; <UNPREDICTABLE>
    4190:	00000e87 	andeq	r0, r0, r7, lsl #29
    4194:	3f026707 	svccc	0x00026707
    4198:	0c000006 	stceq	0, cr0, [r0], {6}
    419c:	00115619 	andseq	r5, r1, r9, lsl r6
    41a0:	02690700 	rsbeq	r0, r9, #0, 14
    41a4:	00000025 	andeq	r0, r0, r5, lsr #32
    41a8:	0d201910 	stceq	9, cr1, [r0, #-64]!	; 0xffffffc0
    41ac:	6a070000 	bvs	1c41b4 <__bss_end__+0x1b82f4>
    41b0:	00082102 	andeq	r2, r8, r2, lsl #2
    41b4:	72191400 	andsvc	r1, r9, #0, 8
    41b8:	07000011 	smladeq	r0, r1, r0, r0
    41bc:	0025026d 	eoreq	r0, r5, sp, ror #4
    41c0:	19300000 	ldmdbne	r0!, {}	; <UNPREDICTABLE>
    41c4:	00001160 	andeq	r1, r0, r0, ror #2
    41c8:	36026e07 	strcc	r6, [r2], -r7, lsl #28
    41cc:	34000008 	strcc	r0, [r0], #-8
    41d0:	00105219 	andseq	r5, r0, r9, lsl r2
    41d4:	02700700 	rsbseq	r0, r0, #0, 14
    41d8:	00000025 	andeq	r0, r0, r5, lsr #32
    41dc:	11681938 	cmnne	r8, r8, lsr r9
    41e0:	72070000 	andvc	r0, r7, #0
    41e4:	00084702 	andeq	r4, r8, r2, lsl #14
    41e8:	0f193c00 	svceq	0x00193c00
    41ec:	0700000f 	streq	r0, [r0, -pc]
    41f0:	01800275 	orreq	r0, r0, r5, ror r2
    41f4:	19400000 	stmdbne	r0, {}^	; <UNPREDICTABLE>
    41f8:	00000ea6 	andeq	r0, r0, r6, lsr #29
    41fc:	25027607 	strcs	r7, [r2, #-1543]	; 0x607
    4200:	44000000 	strmi	r0, [r0], #-0
    4204:	00132f19 	andseq	r2, r3, r9, lsl pc
    4208:	02770700 	rsbseq	r0, r7, #0, 14
    420c:	00000180 	andeq	r0, r0, r0, lsl #3
    4210:	10641948 	rsbne	r1, r4, r8, asr #18
    4214:	78070000 	stmdavc	r7, {}	; <UNPREDICTABLE>
    4218:	00084d02 	andeq	r4, r8, r2, lsl #26
    421c:	c4194c00 	ldrgt	r4, [r9], #-3072	; 0xc00
    4220:	0700000e 	streq	r0, [r0, -lr]
    4224:	0025027b 	eoreq	r0, r5, fp, ror r2
    4228:	19500000 	ldmdbne	r0, {}^	; <UNPREDICTABLE>
    422c:	00000e2e 	andeq	r0, r0, lr, lsr #28
    4230:	10027c07 	andne	r7, r2, r7, lsl #24
    4234:	54000001 	strpl	r0, [r0], #-1
    4238:	00138d19 	andseq	r8, r3, r9, lsl sp
    423c:	029f0700 	addseq	r0, pc, #0, 14
    4240:	000007ff 	strdeq	r0, [r0], -pc	; <UNPREDICTABLE>
    4244:	0fb61a58 	svceq	0x00b61a58
    4248:	a3070000 	movwge	r0, #28672	; 0x7000
    424c:	00029d02 	andeq	r9, r2, r2, lsl #26
    4250:	1a014800 	bne	56258 <__bss_end__+0x4a398>
    4254:	00000ed9 	ldrdeq	r0, [r0], -r9
    4258:	5f02a407 	svcpl	0x0002a407
    425c:	4c000002 	stcmi	0, cr0, [r0], {2}
    4260:	12b81a01 	adcsne	r1, r8, #4096	; 0x1000
    4264:	a8070000 	stmdage	r7, {}	; <UNPREDICTABLE>
    4268:	00085e02 	andeq	r5, r8, r2, lsl #28
    426c:	1a02dc00 	bne	bb274 <__bss_end__+0xaf3b4>
    4270:	00000de7 	andeq	r0, r0, r7, ror #27
    4274:	0402ad07 	streq	sl, [r2], #-3335	; 0xd07
    4278:	e0000006 	and	r0, r0, r6
    427c:	0dcc1a02 	vstreq	s3, [ip, #8]
    4280:	af070000 	svcge	0x00070000
    4284:	00086a02 	andeq	r6, r8, r2, lsl #20
    4288:	0002ec00 	andeq	lr, r2, r0, lsl #24
    428c:	040f0406 	streq	r0, [pc], #-1030	; 4294 <_start-0x3d6c>
    4290:	25160000 	ldrcs	r0, [r6, #-0]
    4294:	8e000000 	cdphi	0, 0, cr0, cr0, cr0, {0}
    4298:	17000005 	strne	r0, [r0, -r5]
    429c:	0000042d 	andeq	r0, r0, sp, lsr #8
    42a0:	00010e17 	andeq	r0, r1, r7, lsl lr
    42a4:	058e1700 	streq	r1, [lr, #1792]	; 0x700
    42a8:	25170000 	ldrcs	r0, [r7, #-0]
    42ac:	00000000 	andeq	r0, r0, r0
    42b0:	011d0406 	tsteq	sp, r6, lsl #8
    42b4:	04060000 	streq	r0, [r6], #-0
    42b8:	00000570 	andeq	r0, r0, r0, ror r5
    42bc:	00009116 	andeq	r9, r0, r6, lsl r1
    42c0:	0005b800 	andeq	fp, r5, r0, lsl #16
    42c4:	042d1700 	strteq	r1, [sp], #-1792	; 0x700
    42c8:	0e170000 	cdpeq	0, 1, cr0, cr7, cr0, {0}
    42cc:	17000001 	strne	r0, [r0, -r1]
    42d0:	00000091 	muleq	r0, r1, r0
    42d4:	00002517 	andeq	r2, r0, r7, lsl r5
    42d8:	04060000 	streq	r0, [r6], #-0
    42dc:	0000059a 	muleq	r0, sl, r5
    42e0:	00002516 	andeq	r2, r0, r6, lsl r5
    42e4:	0005d200 	andeq	sp, r5, r0, lsl #4
    42e8:	042d1700 	strteq	r1, [sp], #-1792	; 0x700
    42ec:	0e170000 	cdpeq	0, 1, cr0, cr7, cr0, {0}
    42f0:	00000001 	andeq	r0, r0, r1
    42f4:	05be0406 	ldreq	r0, [lr, #1030]!	; 0x406
    42f8:	540b0000 	strpl	r0, [fp], #-0
    42fc:	e8000000 	stmda	r0, {}	; <UNPREDICTABLE>
    4300:	0c000005 	stceq	0, cr0, [r0], {5}
    4304:	0000002c 	andeq	r0, r0, ip, lsr #32
    4308:	540b0002 	strpl	r0, [fp], #-2
    430c:	f8000000 			; <UNDEFINED> instruction: 0xf8000000
    4310:	0c000005 	stceq	0, cr0, [r0], {5}
    4314:	0000002c 	andeq	r0, r0, ip, lsr #32
    4318:	0f080000 	svceq	0x00080000
    431c:	07000011 	smladeq	r0, r1, r0, r0
    4320:	02e5011f 	rsceq	r0, r5, #-1073741817	; 0xc0000007
    4324:	9f1b0000 	svcls	0x001b0000
    4328:	0c000012 	stceq	0, cr0, [r0], {18}
    432c:	39012307 	stmdbcc	r1, {r0, r1, r2, r8, r9, sp}
    4330:	19000006 	stmdbne	r0, {r1, r2}
    4334:	00001137 	andeq	r1, r0, r7, lsr r1
    4338:	39012507 	stmdbcc	r1, {r0, r1, r2, r8, sl, sp}
    433c:	00000006 	andeq	r0, r0, r6
    4340:	000ed219 	andeq	sp, lr, r9, lsl r2
    4344:	01260700 	teqeq	r6, r0, lsl #14
    4348:	00000025 	andeq	r0, r0, r5, lsr #32
    434c:	10f61904 	rscsne	r1, r6, r4, lsl #18
    4350:	27070000 	strcs	r0, [r7, -r0]
    4354:	00063f01 	andeq	r3, r6, r1, lsl #30
    4358:	06000800 	streq	r0, [r0], -r0, lsl #16
    435c:	00060404 	andeq	r0, r6, r4, lsl #8
    4360:	f8040600 			; <UNDEFINED> instruction: 0xf8040600
    4364:	1b000005 	blne	4380 <_start-0x3c80>
    4368:	00000d18 	andeq	r0, r0, r8, lsl sp
    436c:	013f070e 	teqeq	pc, lr, lsl #14
    4370:	0000067a 	andeq	r0, r0, sl, ror r6
    4374:	00119a19 	andseq	r9, r1, r9, lsl sl
    4378:	01400700 	cmpeq	r0, r0, lsl #14
    437c:	0000067a 	andeq	r0, r0, sl, ror r6
    4380:	11ff1900 	mvnsne	r1, r0, lsl #18
    4384:	41070000 	mrsmi	r0, (UNDEF: 7)
    4388:	00067a01 	andeq	r7, r6, r1, lsl #20
    438c:	1b190600 	blne	645b94 <__bss_end__+0x639cd4>
    4390:	07000012 	smladeq	r0, r2, r0, r0
    4394:	005b0142 	subseq	r0, fp, r2, asr #2
    4398:	000c0000 	andeq	r0, ip, r0
    439c:	00005b0b 	andeq	r5, r0, fp, lsl #22
    43a0:	00068a00 	andeq	r8, r6, r0, lsl #20
    43a4:	002c0c00 	eoreq	r0, ip, r0, lsl #24
    43a8:	00020000 	andeq	r0, r2, r0
    43ac:	8007d01c 	andhi	sp, r7, ip, lsl r0
    43b0:	00078b02 	andeq	r8, r7, r2, lsl #22
    43b4:	12691900 	rsbne	r1, r9, #0, 18
    43b8:	82070000 	andhi	r0, r7, #0
    43bc:	00002c02 	andeq	r2, r0, r2, lsl #24
    43c0:	05190000 	ldreq	r0, [r9, #-0]
    43c4:	07000012 	smladeq	r0, r2, r0, r0
    43c8:	01100283 	tsteq	r0, r3, lsl #5
    43cc:	19040000 	stmdbne	r4, {}	; <UNPREDICTABLE>
    43d0:	00000f02 	andeq	r0, r0, r2, lsl #30
    43d4:	8b028407 	blhi	a53f8 <__bss_end__+0x99538>
    43d8:	08000007 	stmdaeq	r0, {r0, r1, r2}
    43dc:	0012f719 	andseq	pc, r2, r9, lsl r7	; <UNPREDICTABLE>
    43e0:	02850700 	addeq	r0, r5, #0, 14
    43e4:	00000196 	muleq	r0, r6, r1
    43e8:	0e971924 	cdpeq	9, 9, cr1, cr7, cr4, {1}
    43ec:	86070000 	strhi	r0, [r7], -r0
    43f0:	00002502 	andeq	r2, r0, r2, lsl #10
    43f4:	32194800 	andscc	r4, r9, #0, 16
    43f8:	07000011 	smladeq	r0, r1, r0, r0
    43fc:	00690287 	rsbeq	r0, r9, r7, lsl #5
    4400:	19500000 	ldmdbne	r0, {}^	; <UNPREDICTABLE>
    4404:	0000130d 	andeq	r1, r0, sp, lsl #6
    4408:	45028807 	strmi	r8, [r2, #-2055]	; 0x807
    440c:	58000006 	stmdapl	r0, {r1, r2}
    4410:	00114919 	andseq	r4, r1, r9, lsl r9
    4414:	02890700 	addeq	r0, r9, #0, 14
    4418:	000000f8 	strdeq	r0, [r0], -r8
    441c:	13211968 	teqne	r1, #104, 18	; 0x1a0000
    4420:	8a070000 	bhi	1c4428 <__bss_end__+0x1b8568>
    4424:	0000f802 	andeq	pc, r0, r2, lsl #16
    4428:	6e197000 	cdpvs	0, 1, cr7, cr9, cr0, {0}
    442c:	07000010 	smladeq	r0, r0, r0, r0
    4430:	00f8028b 	rscseq	r0, r8, fp, lsl #5
    4434:	19780000 	ldmdbne	r8!, {}^	; <UNPREDICTABLE>
    4438:	000012ae 	andeq	r1, r0, lr, lsr #5
    443c:	9b028c07 	blls	a7460 <__bss_end__+0x9b5a0>
    4440:	80000007 	andhi	r0, r0, r7
    4444:	000ef619 	andeq	pc, lr, r9, lsl r6	; <UNPREDICTABLE>
    4448:	028d0700 	addeq	r0, sp, #0, 14
    444c:	000007ab 	andeq	r0, r0, fp, lsr #15
    4450:	12331988 	eorsne	r1, r3, #136, 18	; 0x220000
    4454:	8e070000 	cdphi	0, 0, cr0, cr7, cr0, {0}
    4458:	00002502 	andeq	r2, r0, r2, lsl #10
    445c:	5419a000 	ldrpl	sl, [r9], #-0
    4460:	0700000e 	streq	r0, [r0, -lr]
    4464:	00f8028f 	rscseq	r0, r8, pc, lsl #5
    4468:	19a40000 	stmibne	r4!, {}	; <UNPREDICTABLE>
    446c:	00000d8d 	andeq	r0, r0, sp, lsl #27
    4470:	f8029007 			; <UNDEFINED> instruction: 0xf8029007
    4474:	ac000000 	stcge	0, cr0, [r0], {-0}
    4478:	000e4319 	andeq	r4, lr, r9, lsl r3
    447c:	02910700 	addseq	r0, r1, #0, 14
    4480:	000000f8 	strdeq	r0, [r0], -r8
    4484:	0d4919b4 	stcleq	9, cr1, [r9, #-720]	; 0xfffffd30
    4488:	92070000 	andls	r0, r7, #0
    448c:	0000f802 	andeq	pc, r0, r2, lsl #16
    4490:	5819bc00 	ldmdapl	r9, {sl, fp, ip, sp, pc}
    4494:	0700000d 	streq	r0, [r0, -sp]
    4498:	00f80293 	smlalseq	r0, r8, r3, r2
    449c:	19c40000 	stmibne	r4, {}^	; <UNPREDICTABLE>
    44a0:	000010dc 	ldrdeq	r1, [r0], -ip
    44a4:	25029407 	strcs	r9, [r2, #-1031]	; 0x407
    44a8:	cc000000 	stcgt	0, cr0, [r0], {-0}
    44ac:	01160b00 	tsteq	r6, r0, lsl #22
    44b0:	079b0000 	ldreq	r0, [fp, r0]
    44b4:	2c0c0000 	stccs	0, cr0, [ip], {-0}
    44b8:	19000000 	stmdbne	r0, {}	; <UNPREDICTABLE>
    44bc:	01160b00 	tsteq	r6, r0, lsl #22
    44c0:	07ab0000 	streq	r0, [fp, r0]!
    44c4:	2c0c0000 	stccs	0, cr0, [ip], {-0}
    44c8:	07000000 	streq	r0, [r0, -r0]
    44cc:	01160b00 	tsteq	r6, r0, lsl #22
    44d0:	07bb0000 	ldreq	r0, [fp, r0]!
    44d4:	2c0c0000 	stccs	0, cr0, [ip], {-0}
    44d8:	17000000 	strne	r0, [r0, -r0]
    44dc:	07f01c00 	ldrbeq	r1, [r0, r0, lsl #24]!
    44e0:	07df0299 	bfieq	r0, r9, #5, #27
    44e4:	8e190000 	cdphi	0, 1, cr0, cr9, cr0, {0}
    44e8:	0700000f 	streq	r0, [r0, -pc]
    44ec:	07df029c 	bfieq	r0, ip, #5, #27
    44f0:	19000000 	stmdbne	r0, {}	; <UNPREDICTABLE>
    44f4:	000012a5 	andeq	r1, r0, r5, lsr #5
    44f8:	ef029d07 	svc	0x00029d07
    44fc:	78000007 	stmdavc	r0, {r0, r1, r2}
    4500:	02df0b00 	sbcseq	r0, pc, #0, 22
    4504:	07ef0000 	strbeq	r0, [pc, r0]!
    4508:	2c0c0000 	stccs	0, cr0, [ip], {-0}
    450c:	1d000000 	stcne	0, cr0, [r0, #-0]
    4510:	002c0b00 	eoreq	r0, ip, r0, lsl #22
    4514:	07ff0000 	ldrbeq	r0, [pc, r0]!
    4518:	2c0c0000 	stccs	0, cr0, [ip], {-0}
    451c:	1d000000 	stcne	0, cr0, [r0, #-0]
    4520:	07f01d00 	ldrbeq	r1, [r0, r0, lsl #26]!
    4524:	0821027e 	stmdaeq	r1!, {r1, r2, r3, r4, r5, r6, r9}
    4528:	931e0000 	tstls	lr, #0
    452c:	07000011 	smladeq	r0, r1, r0, r0
    4530:	068a0295 	pkhbteq	r0, sl, r5, lsl #5
    4534:	c81e0000 	ldmdagt	lr, {}	; <UNPREDICTABLE>
    4538:	07000012 	smladeq	r0, r2, r0, r0
    453c:	07bb029e 			; <UNDEFINED> instruction: 0x07bb029e
    4540:	0b000000 	bleq	4548 <_start-0x3ab8>
    4544:	00000116 	andeq	r0, r0, r6, lsl r1
    4548:	00000831 	andeq	r0, r0, r1, lsr r8
    454c:	00002c0c 	andeq	r2, r0, ip, lsl #24
    4550:	07001800 	streq	r1, [r0, -r0, lsl #16]
    4554:	00000d79 	andeq	r0, r0, r9, ror sp
    4558:	08310406 	ldmdaeq	r1!, {r1, r2, sl}
    455c:	471f0000 	ldrmi	r0, [pc, -r0]
    4560:	17000008 	strne	r0, [r0, -r8]
    4564:	0000042d 	andeq	r0, r0, sp, lsr #8
    4568:	3c040600 	stccc	6, cr0, [r4], {-0}
    456c:	06000008 	streq	r0, [r0], -r8
    4570:	00018004 	andeq	r8, r1, r4
    4574:	085e1f00 	ldmdaeq	lr, {r8, r9, sl, fp, ip}^
    4578:	25170000 	ldrcs	r0, [r7, #-0]
    457c:	00000000 	andeq	r0, r0, r0
    4580:	08640406 	stmdaeq	r4!, {r1, r2, sl}^
    4584:	04060000 	streq	r0, [r6], #-0
    4588:	00000853 	andeq	r0, r0, r3, asr r8
    458c:	0005f80b 	andeq	pc, r5, fp, lsl #16
    4590:	00087a00 	andeq	r7, r8, r0, lsl #20
    4594:	002c0c00 	eoreq	r0, ip, r0, lsl #24
    4598:	00020000 	andeq	r0, r2, r0
    459c:	00125620 	andseq	r5, r2, r0, lsr #12
    45a0:	032e0700 	teqeq	lr, #0, 14
    45a4:	0000042d 	andeq	r0, r0, sp, lsr #8
    45a8:	00124f20 	andseq	r4, r2, r0, lsr #30
    45ac:	032f0700 	teqeq	pc, #0, 14
    45b0:	00000433 	andeq	r0, r0, r3, lsr r4
    45b4:	00002516 	andeq	r2, r0, r6, lsl r5
    45b8:	0008a100 	andeq	sl, r8, r0, lsl #2
    45bc:	00251700 	eoreq	r1, r5, r0, lsl #14
    45c0:	21000000 	mrscs	r0, (UNDEF: 0)
    45c4:	000004d7 	ldrdeq	r0, [r0], -r7
    45c8:	08ac1d08 	stmiaeq	ip!, {r3, r8, sl, fp, ip}
    45cc:	04060000 	streq	r0, [r6], #-0
    45d0:	00000892 	muleq	r0, r2, r8
    45d4:	00002516 	andeq	r2, r0, r6, lsl r5
    45d8:	0008c100 	andeq	ip, r8, r0, lsl #2
    45dc:	058e1700 	streq	r1, [lr, #1792]	; 0x700
    45e0:	21000000 	mrscs	r0, (UNDEF: 0)
    45e4:	00000507 	andeq	r0, r0, r7, lsl #10
    45e8:	08cc2208 	stmiaeq	ip, {r3, r9, sp}^
    45ec:	04060000 	streq	r0, [r6], #-0
    45f0:	000008b2 			; <UNDEFINED> instruction: 0x000008b2
    45f4:	2c040722 	stccs	7, cr0, [r4], {34}	; 0x22
    45f8:	03000000 	movweq	r0, #0
    45fc:	00094314 	andeq	r4, r9, r4, lsl r3
    4600:	0cd82300 	ldcleq	3, cr2, [r8], {0}
    4604:	b2000000 	andlt	r0, r0, #0
    4608:	bd232000 	stclt	0, cr2, [r3, #-0]
    460c:	0000000b 	andeq	r0, r0, fp
    4610:	232000b2 	teqcs	r0, #178	; 0xb2
    4614:	00000c52 	andeq	r0, r0, r2, asr ip
    4618:	2000b204 	andcs	fp, r0, r4, lsl #4
    461c:	000c2423 	andeq	r2, ip, r3, lsr #8
    4620:	00b20800 	adcseq	r0, r2, r0, lsl #16
    4624:	0ba02320 	bleq	fe80d2ac <__bss_end__+0xfe8013ec>
    4628:	b20c0000 	andlt	r0, ip, #0
    462c:	e1232000 	teq	r3, r0
    4630:	1000000b 	andne	r0, r0, fp
    4634:	232000b2 	teqcs	r0, #178	; 0xb2
    4638:	00000bef 	andeq	r0, r0, pc, ror #23
    463c:	2000b214 	andcs	fp, r0, r4, lsl r2
    4640:	000bcf23 	andeq	ip, fp, r3, lsr #30
    4644:	00b21800 	adcseq	r1, r2, r0, lsl #16
    4648:	0ca42320 	stceq	3, cr2, [r4], #128	; 0x80
    464c:	b21c0000 	andslt	r0, ip, #0
    4650:	b3232000 	teqlt	r3, #0
    4654:	2000000c 	andcs	r0, r0, ip
    4658:	232000b2 	teqcs	r0, #178	; 0xb2
    465c:	00000b8d 	andeq	r0, r0, sp, lsl #23
    4660:	2000b224 	andcs	fp, r0, r4, lsr #4
    4664:	108f1100 	addne	r1, pc, r0, lsl #2
    4668:	092c0000 	stmdbeq	ip!, {}	; <UNPREDICTABLE>
    466c:	0009d306 	andeq	sp, r9, r6, lsl #6
    4670:	6f691200 	svcvs	0x00691200
    4674:	33090900 	movwcc	r0, #39168	; 0x9900
    4678:	00000000 	andeq	r0, r0, r0
    467c:	72656912 	rsbvc	r6, r5, #294912	; 0x48000
    4680:	330a0900 	movwcc	r0, #43264	; 0xa900
    4684:	04000000 	streq	r0, [r0], #-0
    4688:	72696912 	rsbvc	r6, r9, #294912	; 0x48000
    468c:	33110900 	tstcc	r1, #0, 18
    4690:	08000000 	stmdaeq	r0, {}	; <UNPREDICTABLE>
    4694:	72636c12 	rsbvc	r6, r3, #4608	; 0x1200
    4698:	33130900 	tstcc	r3, #0, 18
    469c:	0c000000 	stceq	0, cr0, [r0], {-0}
    46a0:	72636d12 	rsbvc	r6, r3, #1152	; 0x480
    46a4:	33140900 	tstcc	r4, #0, 18
    46a8:	10000000 	andne	r0, r0, r0
    46ac:	72736c12 	rsbsvc	r6, r3, #4608	; 0x1200
    46b0:	33150900 	tstcc	r5, #0, 18
    46b4:	14000000 	strne	r0, [r0], #-0
    46b8:	72736d12 	rsbsvc	r6, r3, #1152	; 0x480
    46bc:	33160900 	tstcc	r6, #0, 18
    46c0:	18000000 	stmdane	r0, {}	; <UNPREDICTABLE>
    46c4:	0011f70e 	andseq	pc, r1, lr, lsl #14
    46c8:	33170900 	tstcc	r7, #0, 18
    46cc:	1c000000 	stcne	0, cr0, [r0], {-0}
    46d0:	000dbd0e 	andeq	fp, sp, lr, lsl #26
    46d4:	331b0900 	tstcc	fp, #0, 18
    46d8:	20000000 	andcs	r0, r0, r0
    46dc:	0007cd0e 	andeq	ip, r7, lr, lsl #26
    46e0:	331d0900 	tstcc	sp, #0, 18
    46e4:	24000000 	strcs	r0, [r0], #-0
    46e8:	0006040e 	andeq	r0, r6, lr, lsl #8
    46ec:	331e0900 	tstcc	lr, #0, 18
    46f0:	28000000 	stmdacs	r0, {}	; <UNPREDICTABLE>
    46f4:	02072200 	andeq	r2, r7, #0, 4
    46f8:	0000005b 	andeq	r0, r0, fp, asr r0
    46fc:	09f5050a 	ldmibeq	r5!, {r1, r3, r8, sl}^
    4700:	9b240000 	blls	904708 <__bss_end__+0x8f8848>
    4704:	00000010 	andeq	r0, r0, r0, lsl r0
    4708:	00113d25 	andseq	r3, r1, r5, lsr #26
    470c:	25045700 	strcs	r5, [r4, #-1792]	; 0x700
    4710:	00000da5 	andeq	r0, r0, r5, lsr #27
    4714:	050008ae 	streq	r0, [r0, #-2222]	; 0x8ae
    4718:	000011bd 			; <UNDEFINED> instruction: 0x000011bd
    471c:	09d3050a 	ldmibeq	r3, {r1, r3, r8, sl}^
    4720:	3f050000 	svccc	0x00050000
    4724:	0a00000d 	beq	4760 <_start-0x38a0>
    4728:	00094307 	andeq	r4, r9, r7, lsl #6
    472c:	0e172100 	mufeqs	f2, f7, f0
    4730:	160a0000 	strne	r0, [sl], -r0
    4734:	00000033 	andeq	r0, r0, r3, lsr r0
    4738:	000f7d26 	andeq	r7, pc, r6, lsr #26
    473c:	2b070100 	blcs	1c4b44 <__bss_end__+0x1b8c84>
    4740:	0000000a 	andeq	r0, r0, sl
    4744:	06202150 			; <UNDEFINED> instruction: 0x06202150
    4748:	00002c04 	andeq	r2, r0, r4, lsl #24
    474c:	0a251000 	beq	948754 <__bss_end__+0x93c894>
    4750:	7b050000 	blvc	144758 <__bss_end__+0x138898>
    4754:	02000012 	andeq	r0, r0, #18
    4758:	0000541c 	andeq	r5, r0, ip, lsl r4
    475c:	0a300400 	beq	c05764 <__bss_end__+0xbf98a4>
    4760:	14270000 	strtne	r0, [r7], #-0
    4764:	9a280208 	bls	a04f8c <__bss_end__+0x9f90cc>
    4768:	0e00000a 	cdpeq	0, 0, cr0, cr0, cr10, {0}
    476c:	00000f69 	andeq	r0, r0, r9, ror #30
    4770:	0aab2a02 	beq	feacef80 <__bss_end__+0xfeac30c0>
    4774:	14000000 	strne	r0, [r0], #-0
    4778:	000011f1 	strdeq	r1, [r0], -r1	; <UNPREDICTABLE>
    477c:	002c2b02 	eoreq	r2, ip, r2, lsl #22
    4780:	08000000 	stmdaeq	r0, {}	; <UNPREDICTABLE>
    4784:	000e2914 	andeq	r2, lr, r4, lsl r9
    4788:	332c0200 	teqcc	ip, #0, 4
    478c:	04000000 	streq	r0, [r0], #-0
    4790:	0f6f1408 	svceq	0x006f1408
    4794:	2c020000 	stccs	0, cr0, [r2], {-0}
    4798:	00000033 	andeq	r0, r0, r3, lsr r0
    479c:	6d140808 	ldcvs	8, cr0, [r4, #-32]	; 0xffffffe0
    47a0:	02000013 	andeq	r0, r0, #19
    47a4:	0000332f 	andeq	r3, r0, pc, lsr #6
    47a8:	28080c00 	stmdacs	r8, {sl, fp}
    47ac:	00000d2b 	andeq	r0, r0, fp, lsr #26
    47b0:	002c3102 	eoreq	r3, ip, r2, lsl #2
    47b4:	01040000 	mrseq	r0, (UNDEF: 4)
    47b8:	0008101f 	andeq	r1, r8, pc, lsl r0
    47bc:	000a3b0b 	andeq	r3, sl, fp, lsl #22
    47c0:	000aab00 	andeq	sl, sl, r0, lsl #22
    47c4:	002c2900 	eoreq	r2, ip, r0, lsl #18
    47c8:	07ff0000 	ldrbeq	r0, [pc, r0]!
    47cc:	0a9a0400 	beq	fe6857d4 <__bss_end__+0xfe679914>
    47d0:	76050000 	strvc	r0, [r5], -r0
    47d4:	02000012 	andeq	r0, r0, #18
    47d8:	000a4032 	andeq	r4, sl, r2, lsr r0
    47dc:	0d3a2a00 	vldmdbeq	sl!, {s4-s3}
    47e0:	0f010000 	svceq	0x00010000
    47e4:	00000ab0 			; <UNDEFINED> instruction: 0x00000ab0
    47e8:	ae8c0305 	cdpge	3, 8, cr0, cr12, cr5, {0}
    47ec:	3e2a0000 	cdpcc	0, 2, cr0, cr10, cr0, {0}
    47f0:	0100000e 	tsteq	r0, lr
    47f4:	000ab010 	andeq	fp, sl, r0, lsl r0
    47f8:	a0030500 	andge	r0, r3, r0, lsl #10
    47fc:	2b0000b6 	blcs	4adc <_start-0x3524>
    4800:	00000a0b 	andeq	r0, r0, fp, lsl #20
    4804:	03051101 	movweq	r1, #20737	; 0x5101
    4808:	0000beb4 			; <UNDEFINED> instruction: 0x0000beb4
    480c:	0001762c 	andeq	r7, r1, ip, lsr #12
    4810:	25c40100 	strbcs	r0, [r4, #256]	; 0x100
    4814:	f0000000 			; <UNDEFINED> instruction: 0xf0000000
    4818:	c00000a1 	andgt	r0, r0, r1, lsr #1
    481c:	01000000 	mrseq	r0, (UNDEF: 0)
    4820:	000c419c 	muleq	ip, ip, r1
    4824:	00632d00 	rsbeq	r2, r3, r0, lsl #26
    4828:	0025c401 	eoreq	ip, r5, r1, lsl #8
    482c:	24250000 	strtcs	r0, [r5], #-0
    4830:	3a2e0000 	bcc	b84838 <__bss_end__+0xb78978>
    4834:	51000001 	tstpl	r0, r1
    4838:	0500000c 	streq	r0, [r0, #-12]
    483c:	00a85803 	adceq	r5, r8, r3, lsl #16
    4840:	00752f00 	rsbseq	r2, r5, r0, lsl #30
    4844:	0c56cd01 	mrrceq	13, 0, ip, r6, cr1
    4848:	e8300000 	ldmda	r0!, {}	; <UNPREDICTABLE>
    484c:	f4000019 	vst4.8	{d0-d3}, [r0 :64], r9
    4850:	480000a1 	stmdami	r0, {r0, r5, r7}
    4854:	01000000 	mrseq	r0, (UNDEF: 0)
    4858:	000b7ac6 	andeq	r7, fp, r6, asr #21
    485c:	1a013100 	bne	50c64 <__bss_end__+0x44da4>
    4860:	24460000 	strbcs	r0, [r6], #-0
    4864:	f8310000 			; <UNDEFINED> instruction: 0xf8310000
    4868:	59000019 	stmdbpl	r0, {r0, r3, r4}
    486c:	32000024 	andcc	r0, r0, #36	; 0x24
    4870:	0000a1f4 	strdeq	sl, [r0], -r4
    4874:	00000048 	andeq	r0, r0, r8, asr #32
    4878:	001a0a33 	andseq	r0, sl, r3, lsr sl
    487c:	00247100 	eoreq	r7, r4, r0, lsl #2
    4880:	1aa93400 	bne	fea51888 <__bss_end__+0xfea459c8>
    4884:	a1fc0000 	mvnsge	r0, r0
    4888:	00140000 	andseq	r0, r4, r0
    488c:	58020000 	stmdapl	r2, {}	; <UNPREDICTABLE>
    4890:	001ab931 	andseq	fp, sl, r1, lsr r9
    4894:	00248400 	eoreq	r8, r4, r0, lsl #8
    4898:	00000000 	andeq	r0, r0, r0
    489c:	001afe30 	andseq	pc, sl, r0, lsr lr	; <UNPREDICTABLE>
    48a0:	00a23c00 	adceq	r3, r2, r0, lsl #24
    48a4:	00000400 	andeq	r0, r0, r0, lsl #8
    48a8:	adcb0100 	stfgee	f0, [fp]
    48ac:	3400000b 	strcc	r0, [r0], #-11
    48b0:	00001b0a 	andeq	r1, r0, sl, lsl #22
    48b4:	0000a23c 	andeq	sl, r0, ip, lsr r2
    48b8:	00000004 	andeq	r0, r0, r4
    48bc:	3c322e03 	ldccc	14, cr2, [r2], #-12
    48c0:	040000a2 	streq	r0, [r0], #-162	; 0xa2
    48c4:	35000000 	strcc	r0, [r0, #-0]
    48c8:	00001b1a 	andeq	r1, r0, sl, lsl fp
    48cc:	36000000 	strcc	r0, [r0], -r0
    48d0:	0000a24c 	andeq	sl, r0, ip, asr #4
    48d4:	00001b26 	andeq	r1, r0, r6, lsr #22
    48d8:	00a25036 	adceq	r5, r2, r6, lsr r0
    48dc:	001b3100 	andseq	r3, fp, r0, lsl #2
    48e0:	a2583700 	subsge	r3, r8, #0, 14
    48e4:	17610000 	strbne	r0, [r1, -r0]!
    48e8:	0bd60000 	bleq	ff5848f0 <__bss_end__+0xff578a30>
    48ec:	01380000 	teqeq	r8, r0
    48f0:	400c0550 	andmi	r0, ip, r0, asr r5
    48f4:	00202150 	eoreq	r2, r0, r0, asr r1
    48f8:	00a26436 	adceq	r6, r2, r6, lsr r4
    48fc:	001b3c00 	andseq	r3, fp, r0, lsl #24
    4900:	a2703600 	rsbsge	r3, r0, #0, 12
    4904:	1b470000 	blne	11c490c <__bss_end__+0x11b8a4c>
    4908:	84370000 	ldrthi	r0, [r7], #-0
    490c:	520000a2 	andpl	r0, r0, #162	; 0xa2
    4910:	1700001b 	smladne	r0, fp, r0, r0
    4914:	3800000c 	stmdacc	r0, {r2, r3}
    4918:	03055001 	movweq	r5, #20481	; 0x5001
    491c:	0000aa5c 	andeq	sl, r0, ip, asr sl
    4920:	05510138 	ldrbeq	r0, [r1, #-312]	; 0x138
    4924:	00a86803 	adceq	r6, r8, r3, lsl #16
    4928:	52013800 	andpl	r3, r1, #0, 16
    492c:	a8580305 	ldmdage	r8, {r0, r2, r8, r9}^
    4930:	01380000 	teqeq	r8, r0
    4934:	cb080253 	blgt	205288 <__bss_end__+0x1f93c8>
    4938:	a2883600 	addge	r3, r8, #0, 12
    493c:	1b5d0000 	blne	1744944 <__bss_end__+0x1738a84>
    4940:	90370000 	eorsls	r0, r7, r0
    4944:	9d0000a2 	stcls	0, cr0, [r0, #-648]	; 0xfffffd78
    4948:	37000017 	smladcc	r0, r7, r0, r0
    494c:	3800000c 	stmdacc	r0, {r2, r3}
    4950:	0c055001 	stceq	0, cr5, [r5], {1}
    4954:	20215040 	eorcs	r5, r1, r0, asr #32
    4958:	a2943600 	addsge	r3, r4, #0, 12
    495c:	1b260000 	blne	984964 <__bss_end__+0x978aa4>
    4960:	0b000000 	bleq	4968 <_start-0x3698>
    4964:	0000011d 	andeq	r0, r0, sp, lsl r1
    4968:	00000c51 	andeq	r0, r0, r1, asr ip
    496c:	00002c0c 	andeq	r2, r0, ip, lsl #24
    4970:	10000d00 	andne	r0, r0, r0, lsl #26
    4974:	00000c41 	andeq	r0, r0, r1, asr #24
    4978:	0a000406 	beq	5998 <_start-0x2668>
    497c:	f22c0000 	vhadd.s32	d0, d12, d0
    4980:	01000000 	mrseq	r0, (UNDEF: 0)
    4984:	000025b4 			; <UNDEFINED> instruction: 0x000025b4
    4988:	00a17c00 	adceq	r7, r1, r0, lsl #24
    498c:	00007400 	andeq	r7, r0, r0, lsl #8
    4990:	479c0100 	ldrmi	r0, [ip, r0, lsl #2]
    4994:	3900000d 	stmdbcc	r0, {r0, r2, r3}
    4998:	00001a16 	andeq	r1, r0, r6, lsl sl
    499c:	0000a190 	muleq	r0, r0, r1
    49a0:	000000a0 	andeq	r0, r0, r0, lsr #1
    49a4:	0d34b801 	ldceq	8, cr11, [r4, #-4]!
    49a8:	26310000 	ldrtcs	r0, [r1], -r0
    49ac:	9c00001a 	stcls	0, cr0, [r0], {26}
    49b0:	3a000024 	bcc	4a48 <_start-0x35b8>
    49b4:	000000a0 	andeq	r0, r0, r0, lsr #1
    49b8:	001a2f33 	andseq	r2, sl, r3, lsr pc
    49bc:	0024c400 	eoreq	ip, r4, r0, lsl #8
    49c0:	1a5b3000 	bne	16d09c8 <__bss_end__+0x16c4b08>
    49c4:	a1900000 	orrsge	r0, r0, r0
    49c8:	00300000 	eorseq	r0, r0, r0
    49cc:	50020000 	andpl	r0, r2, r0
    49d0:	00000cf1 	strdeq	r0, [r0], -r1
    49d4:	001a7431 	andseq	r7, sl, r1, lsr r4
    49d8:	0024ef00 	eoreq	lr, r4, r0, lsl #30
    49dc:	1a6b3100 	bne	1ad0de4 <__bss_end__+0x1ac4f24>
    49e0:	25070000 	strcs	r0, [r7, #-0]
    49e4:	90320000 	eorsls	r0, r2, r0
    49e8:	300000a1 	andcc	r0, r0, r1, lsr #1
    49ec:	33000000 	movwcc	r0, #0
    49f0:	00001a7d 	andeq	r1, r0, sp, ror sl
    49f4:	0000251f 	andeq	r2, r0, pc, lsl r5
    49f8:	001ac334 	andseq	ip, sl, r4, lsr r3
    49fc:	00a19000 	adceq	r9, r1, r0
    4a00:	00000c00 	andeq	r0, r0, r0, lsl #24
    4a04:	31430200 	mrscc	r0, (UNDEF: 99)
    4a08:	00001ad3 	ldrdeq	r1, [r0], -r3
    4a0c:	00002541 	andeq	r2, r0, r1, asr #10
    4a10:	36000000 	strcc	r0, [r0], -r0
    4a14:	0000a1c8 	andeq	sl, r0, r8, asr #3
    4a18:	00001b47 	andeq	r1, r0, r7, asr #22
    4a1c:	00a1dc37 	adceq	sp, r1, r7, lsr ip
    4a20:	001b5200 	andseq	r5, fp, r0, lsl #4
    4a24:	000d2900 	andeq	r2, sp, r0, lsl #18
    4a28:	50013800 	andpl	r3, r1, r0, lsl #16
    4a2c:	aa1c0305 	bge	705648 <__bss_end__+0x6f9788>
    4a30:	01380000 	teqeq	r8, r0
    4a34:	2c030551 	cfstr32cs	mvfx0, [r3], {81}	; 0x51
    4a38:	380000a9 	stmdacc	r0, {r0, r3, r5, r7}
    4a3c:	03055201 	movweq	r5, #20993	; 0x5201
    4a40:	0000a83c 	andeq	sl, r0, ip, lsr r8
    4a44:	02530138 	subseq	r0, r3, #56, 2
    4a48:	36005108 	strcc	r5, [r0], -r8, lsl #2
    4a4c:	0000a1e0 	andeq	sl, r0, r0, ror #3
    4a50:	00001b5d 	andeq	r1, r0, sp, asr fp
    4a54:	84360000 	ldrthi	r0, [r6], #-0
    4a58:	260000a1 	strcs	r0, [r0], -r1, lsr #1
    4a5c:	3600001b 			; <UNDEFINED> instruction: 0x3600001b
    4a60:	0000a188 	andeq	sl, r0, r8, lsl #3
    4a64:	00000d47 	andeq	r0, r0, r7, asr #26
    4a68:	0f432c00 	svceq	0x00432c00
    4a6c:	b0010000 	andlt	r0, r1, r0
    4a70:	00000025 	andeq	r0, r0, r5, lsr #32
    4a74:	0000a15c 	andeq	sl, r0, ip, asr r1
    4a78:	00000020 	andeq	r0, r0, r0, lsr #32
    4a7c:	0d7a9c01 	ldcleq	12, cr9, [sl, #-4]!
    4a80:	8f340000 	svchi	0x00340000
    4a84:	5c00001a 	stcpl	0, cr0, [r0], {26}
    4a88:	100000a1 	andne	r0, r0, r1, lsr #1
    4a8c:	01000000 	mrseq	r0, (UNDEF: 0)
    4a90:	1a9f31b1 	bne	fe7d115c <__bss_end__+0xfe7c529c>
    4a94:	25590000 	ldrbcs	r0, [r9, #-0]
    4a98:	00000000 	andeq	r0, r0, r0
    4a9c:	0001002c 	andeq	r0, r1, ip, lsr #32
    4aa0:	25940100 	ldrcs	r0, [r4, #256]	; 0x100
    4aa4:	94000000 	strls	r0, [r0], #-0
    4aa8:	c80000a0 	stmdagt	r0, {r5, r7}
    4aac:	01000000 	mrseq	r0, (UNDEF: 0)
    4ab0:	000e699c 	muleq	lr, ip, r9
    4ab4:	05cb3b00 	strbeq	r3, [fp, #2816]	; 0xb00
    4ab8:	96010000 	strls	r0, [r1], -r0
    4abc:	00000c56 	andeq	r0, r0, r6, asr ip
    4ac0:	0019e830 	andseq	lr, r9, r0, lsr r8
    4ac4:	00a0d000 	adceq	sp, r0, r0
    4ac8:	00004000 	andeq	r4, r0, r0
    4acc:	f0a40100 			; <UNDEFINED> instruction: 0xf0a40100
    4ad0:	3100000d 	tstcc	r0, sp
    4ad4:	00001a01 	andeq	r1, r0, r1, lsl #20
    4ad8:	00002571 	andeq	r2, r0, r1, ror r5
    4adc:	0019f831 	andseq	pc, r9, r1, lsr r8	; <UNPREDICTABLE>
    4ae0:	00258400 	eoreq	r8, r5, r0, lsl #8
    4ae4:	a0d03200 	sbcsge	r3, r0, r0, lsl #4
    4ae8:	00400000 	subeq	r0, r0, r0
    4aec:	0a330000 	beq	cc4af4 <__bss_end__+0xcb8c34>
    4af0:	9c00001a 	stcls	0, cr0, [r0], {26}
    4af4:	34000025 	strcc	r0, [r0], #-37	; 0x25
    4af8:	00001aa9 	andeq	r1, r0, r9, lsr #21
    4afc:	0000a0d8 	ldrdeq	sl, [r0], -r8
    4b00:	00000014 	andeq	r0, r0, r4, lsl r0
    4b04:	b9315802 	ldmdblt	r1!, {r1, fp, ip, lr}
    4b08:	be00001a 	mcrlt	0, 0, r0, cr0, cr10, {0}
    4b0c:	00000025 	andeq	r0, r0, r5, lsr #32
    4b10:	8f300000 	svchi	0x00300000
    4b14:	1000001a 	andne	r0, r0, sl, lsl r0
    4b18:	180000a1 	stmdane	r0, {r0, r5, r7}
    4b1c:	01000000 	mrseq	r0, (UNDEF: 0)
    4b20:	000e0da8 	andeq	r0, lr, r8, lsr #27
    4b24:	1a9f3100 	bne	fe7d0f2c <__bss_end__+0xfe7c506c>
    4b28:	25d60000 	ldrbcs	r0, [r6]
    4b2c:	36000000 	strcc	r0, [r0], -r0
    4b30:	0000a09c 	muleq	r0, ip, r0
    4b34:	00001b26 	andeq	r1, r0, r6, lsr #22
    4b38:	00a0a437 	adceq	sl, r0, r7, lsr r4
    4b3c:	0015c400 	andseq	ip, r5, r0, lsl #8
    4b40:	000e2d00 	andeq	r2, lr, r0, lsl #26
    4b44:	50013800 	andpl	r3, r1, r0, lsl #16
    4b48:	50400c05 	subpl	r0, r0, r5, lsl #24
    4b4c:	36002021 	strcc	r2, [r0], -r1, lsr #32
    4b50:	0000a0c0 	andeq	sl, r0, r0, asr #1
    4b54:	00001b68 	andeq	r1, r0, r8, ror #22
    4b58:	00a0cc36 	adceq	ip, r0, r6, lsr ip
    4b5c:	001b7300 	andseq	r7, fp, r0, lsl #6
    4b60:	a1383700 	teqge	r8, r0, lsl #14
    4b64:	17da0000 	ldrbne	r0, [sl, r0]
    4b68:	0e560000 	cdpeq	0, 5, cr0, cr6, cr0, {0}
    4b6c:	01380000 	teqeq	r8, r0
    4b70:	400c0550 	andmi	r0, ip, r0, asr r5
    4b74:	00202150 	eoreq	r2, r0, r0, asr r1
    4b78:	00a13c36 	adceq	r3, r1, r6, lsr ip
    4b7c:	001b2600 	andseq	r2, fp, r0, lsl #12
    4b80:	a1483600 	cmpge	r8, r0, lsl #12
    4b84:	0f3d0000 	svceq	0x003d0000
    4b88:	3c000000 	stccc	0, cr0, [r0], {-0}
    4b8c:	000010fc 	strdeq	r1, [r0], -ip
    4b90:	a0308601 	eorsge	r8, r0, r1, lsl #12
    4b94:	00640000 	rsbeq	r0, r4, r0
    4b98:	9c010000 	stcls	0, cr0, [r1], {-0}
    4b9c:	00000f28 	andeq	r0, r0, r8, lsr #30
    4ba0:	00013a2e 	andeq	r3, r1, lr, lsr #20
    4ba4:	000f3800 	andeq	r3, pc, r0, lsl #16
    4ba8:	44030500 	strmi	r0, [r3], #-1280	; 0x500
    4bac:	300000a8 	andcc	r0, r0, r8, lsr #1
    4bb0:	00001afe 	strdeq	r1, [r0], -lr
    4bb4:	0000a034 	andeq	sl, r0, r4, lsr r0
    4bb8:	00000004 	andeq	r0, r0, r4
    4bbc:	0ec08701 	cdpeq	7, 12, cr8, cr0, cr1, {0}
    4bc0:	0a340000 	beq	d04bc8 <__bss_end__+0xcf8d08>
    4bc4:	3400001b 	strcc	r0, [r0], #-27
    4bc8:	040000a0 	streq	r0, [r0], #-160	; 0xa0
    4bcc:	03000000 	movweq	r0, #0
    4bd0:	a034322e 	eorsge	r3, r4, lr, lsr #4
    4bd4:	00040000 	andeq	r0, r4, r0
    4bd8:	1a350000 	bne	d44be0 <__bss_end__+0xd38d20>
    4bdc:	0000001b 	andeq	r0, r0, fp, lsl r0
    4be0:	8f300000 	svchi	0x00300000
    4be4:	6000001a 	andvs	r0, r0, sl, lsl r0
    4be8:	180000a0 	stmdane	r0, {r5, r7}
    4bec:	01000000 	mrseq	r0, (UNDEF: 0)
    4bf0:	000edd8a 	andeq	sp, lr, sl, lsl #27
    4bf4:	1a9f3100 	bne	fe7d0ffc <__bss_end__+0xfe7c513c>
    4bf8:	25ee0000 	strbcs	r0, [lr, #0]!
    4bfc:	36000000 	strcc	r0, [r0], -r0
    4c00:	0000a044 	andeq	sl, r0, r4, asr #32
    4c04:	00001b47 	andeq	r1, r0, r7, asr #22
    4c08:	00a05837 	adceq	r5, r0, r7, lsr r8
    4c0c:	001b5200 	andseq	r5, fp, r0, lsl #4
    4c10:	000f1500 	andeq	r1, pc, r0, lsl #10
    4c14:	50013800 	andpl	r3, r1, r0, lsl #16
    4c18:	a9f80305 	ldmibge	r8!, {r0, r2, r8, r9}^
    4c1c:	01380000 	teqeq	r8, r0
    4c20:	68030551 	stmdavs	r3, {r0, r4, r6, r8, sl}
    4c24:	380000a8 	stmdacc	r0, {r3, r5, r7}
    4c28:	03055201 	movweq	r5, #20993	; 0x5201
    4c2c:	0000a844 	andeq	sl, r0, r4, asr #16
    4c30:	02530138 	subseq	r0, r3, #56, 2
    4c34:	36008708 	strcc	r8, [r0], -r8, lsl #14
    4c38:	0000a05c 	andeq	sl, r0, ip, asr r0
    4c3c:	00001b5d 	andeq	r1, r0, sp, asr fp
    4c40:	00a06036 	adceq	r6, r0, r6, lsr r0
    4c44:	000f3d00 	andeq	r3, pc, r0, lsl #26
    4c48:	1d0b0000 	stcne	0, cr0, [fp, #-0]
    4c4c:	38000001 	stmdacc	r0, {r0}
    4c50:	0c00000f 	stceq	0, cr0, [r0], {15}
    4c54:	0000002c 	andeq	r0, r0, ip, lsr #32
    4c58:	28100012 	ldmdacs	r0, {r1, r4}
    4c5c:	3c00000f 	stccc	0, cr0, [r0], {15}
    4c60:	00001312 	andeq	r1, r0, r2, lsl r3
    4c64:	9f5c7e01 	svcls	0x005c7e01
    4c68:	00d40000 	sbcseq	r0, r4, r0
    4c6c:	9c010000 	stcls	0, cr0, [r1], {-0}
    4c70:	000010c4 	andeq	r1, r0, r4, asr #1
    4c74:	00013a2e 	andeq	r3, r1, lr, lsr #20
    4c78:	0010d400 	andseq	sp, r0, r0, lsl #8
    4c7c:	2c030500 	cfstr32cs	mvfx0, [r3], {-0}
    4c80:	300000a8 	andcc	r0, r0, r8, lsr #1
    4c84:	00001afe 	strdeq	r1, [r0], -lr
    4c88:	00009f60 	andeq	r9, r0, r0, ror #30
    4c8c:	00000004 	andeq	r0, r0, r4
    4c90:	0f948001 	svceq	0x00948001
    4c94:	0a340000 	beq	d04c9c <__bss_end__+0xcf8ddc>
    4c98:	6000001b 	andvs	r0, r0, fp, lsl r0
    4c9c:	0400009f 	streq	r0, [r0], #-159	; 0x9f
    4ca0:	03000000 	movweq	r0, #0
    4ca4:	9f60322e 	svcls	0x0060322e
    4ca8:	00040000 	andeq	r0, r4, r0
    4cac:	1a350000 	bne	d44cb4 <__bss_end__+0xd38df4>
    4cb0:	0000001b 	andeq	r0, r0, fp, lsl r0
    4cb4:	8f300000 	svchi	0x00300000
    4cb8:	6c00001a 	stcvs	0, cr0, [r0], {26}
    4cbc:	1800009f 	stmdane	r0, {r0, r1, r2, r3, r4, r7}
    4cc0:	01000000 	mrseq	r0, (UNDEF: 0)
    4cc4:	000fb181 	andeq	fp, pc, r1, lsl #3
    4cc8:	1a9f3100 	bne	fe7d10d0 <__bss_end__+0xfe7c5210>
    4ccc:	26060000 	strcs	r0, [r6], -r0
    4cd0:	39000000 	stmdbcc	r0, {}	; <UNPREDICTABLE>
    4cd4:	00001a16 	andeq	r1, r0, r6, lsl sl
    4cd8:	00009f98 	muleq	r0, r8, pc	; <UNPREDICTABLE>
    4cdc:	00000088 	andeq	r0, r0, r8, lsl #1
    4ce0:	10708201 	rsbsne	r8, r0, r1, lsl #4
    4ce4:	26310000 	ldrtcs	r0, [r1], -r0
    4ce8:	1e00001a 	mcrne	0, 0, r0, cr0, cr10, {0}
    4cec:	3a000026 	bcc	4d8c <_start-0x3274>
    4cf0:	00000088 	andeq	r0, r0, r8, lsl #1
    4cf4:	001a2f33 	andseq	r2, sl, r3, lsr pc
    4cf8:	00264600 	eoreq	r4, r6, r0, lsl #12
    4cfc:	1a5b3000 	bne	16d0d04 <__bss_end__+0x16c4e44>
    4d00:	9f980000 	svcls	0x00980000
    4d04:	00380000 	eorseq	r0, r8, r0
    4d08:	50020000 	andpl	r0, r2, r0
    4d0c:	0000102d 	andeq	r1, r0, sp, lsr #32
    4d10:	001a7431 	andseq	r7, sl, r1, lsr r4
    4d14:	00267100 	eoreq	r7, r6, r0, lsl #2
    4d18:	1a6b3100 	bne	1ad1120 <__bss_end__+0x1ac5260>
    4d1c:	26890000 	strcs	r0, [r9], r0
    4d20:	98320000 	ldmdals	r2!, {}	; <UNPREDICTABLE>
    4d24:	3800009f 	stmdacc	r0, {r0, r1, r2, r3, r4, r7}
    4d28:	33000000 	movwcc	r0, #0
    4d2c:	00001a7d 	andeq	r1, r0, sp, ror sl
    4d30:	000026a1 	andeq	r2, r0, r1, lsr #13
    4d34:	001ac334 	andseq	ip, sl, r4, lsr r3
    4d38:	009f9800 	addseq	r9, pc, r0, lsl #16
    4d3c:	00000c00 	andeq	r0, r0, r0, lsl #24
    4d40:	31430200 	mrscc	r0, (UNDEF: 99)
    4d44:	00001ad3 	ldrdeq	r1, [r0], -r3
    4d48:	000026c3 	andeq	r2, r0, r3, asr #13
    4d4c:	36000000 	strcc	r0, [r0], -r0
    4d50:	00009ff8 	strdeq	r9, [r0], -r8
    4d54:	00001b47 	andeq	r1, r0, r7, asr #22
    4d58:	00a00c37 	adceq	r0, r0, r7, lsr ip
    4d5c:	001b5200 	andseq	r5, fp, r0, lsl #4
    4d60:	00106500 	andseq	r6, r0, r0, lsl #10
    4d64:	50013800 	andpl	r3, r1, r0, lsl #16
    4d68:	aa1c0305 	bge	705984 <__bss_end__+0x6f9ac4>
    4d6c:	01380000 	teqeq	r8, r0
    4d70:	2c030551 	cfstr32cs	mvfx0, [r3], {81}	; 0x51
    4d74:	380000a9 	stmdacc	r0, {r0, r3, r5, r7}
    4d78:	03055201 	movweq	r5, #20993	; 0x5201
    4d7c:	0000a83c 	andeq	sl, r0, ip, lsr r8
    4d80:	02530138 	subseq	r0, r3, #56, 2
    4d84:	36005108 	strcc	r5, [r0], -r8, lsl #2
    4d88:	0000a010 	andeq	sl, r0, r0, lsl r0
    4d8c:	00001b5d 	andeq	r1, r0, sp, asr fp
    4d90:	90360000 	eorsls	r0, r6, r0
    4d94:	7e00009f 	mcrvc	0, 0, r0, cr0, cr15, {4}
    4d98:	3600001b 			; <UNDEFINED> instruction: 0x3600001b
    4d9c:	00009fd4 	ldrdeq	r9, [r0], -r4
    4da0:	00001b89 	andeq	r1, r0, r9, lsl #23
    4da4:	009fdc36 	addseq	sp, pc, r6, lsr ip	; <UNPREDICTABLE>
    4da8:	001b4700 	andseq	r4, fp, r0, lsl #14
    4dac:	9ff03700 	svcls	0x00f03700
    4db0:	1b520000 	blne	1484db8 <__bss_end__+0x1478ef8>
    4db4:	10ba0000 	adcsne	r0, sl, r0
    4db8:	01380000 	teqeq	r8, r0
    4dbc:	f8030550 			; <UNDEFINED> instruction: 0xf8030550
    4dc0:	380000a9 	stmdacc	r0, {r0, r3, r5, r7}
    4dc4:	03055101 	movweq	r5, #20737	; 0x5101
    4dc8:	0000a868 	andeq	sl, r0, r8, ror #16
    4dcc:	05520138 	ldrbeq	r0, [r2, #-312]	; 0x138
    4dd0:	00a82c03 	adceq	r2, r8, r3, lsl #24
    4dd4:	53013800 	movwpl	r3, #6144	; 0x1800
    4dd8:	00800802 	addeq	r0, r0, r2, lsl #16
    4ddc:	009ff436 	addseq	pc, pc, r6, lsr r4	; <UNPREDICTABLE>
    4de0:	001b5d00 	andseq	r5, fp, r0, lsl #26
    4de4:	1d0b0000 	stcne	0, cr0, [fp, #-0]
    4de8:	d4000001 	strle	r0, [r0], #-1
    4dec:	0c000010 	stceq	0, cr0, [r0], {16}
    4df0:	0000002c 	andeq	r0, r0, ip, lsr #32
    4df4:	c410000e 	ldrgt	r0, [r0], #-14
    4df8:	3c000010 	stccc	0, cr0, [r0], {16}
    4dfc:	00000019 	andeq	r0, r0, r9, lsl r0
    4e00:	9ca46e01 	stcls	14, cr6, [r4], #4
    4e04:	02b80000 	adcseq	r0, r8, #0
    4e08:	9c010000 	stcls	0, cr0, [r1], {-0}
    4e0c:	00001543 	andeq	r1, r0, r3, asr #10
    4e10:	0005cb3b 	andeq	ip, r5, fp, lsr fp
    4e14:	56720100 	ldrbtpl	r0, [r2], -r0, lsl #2
    4e18:	3900000c 	stmdbcc	r0, {r2, r3}
    4e1c:	00001996 	muleq	r0, r6, r9
    4e20:	00009ca8 	andeq	r9, r0, r8, lsr #25
    4e24:	00000028 	andeq	r0, r0, r8, lsr #32
    4e28:	12f76f01 	rscsne	r6, r7, #1, 30
    4e2c:	ab310000 	blge	c44e34 <__bss_end__+0xc38f74>
    4e30:	db000019 	blle	4e9c <_start-0x3164>
    4e34:	31000026 	tstcc	r0, r6, lsr #32
    4e38:	000019a2 	andeq	r1, r0, r2, lsr #19
    4e3c:	000026fb 	strdeq	r2, [r0], -fp
    4e40:	0000283a 	andeq	r2, r0, sl, lsr r8
    4e44:	19c33300 	stmibne	r3, {r8, r9, ip, sp}^
    4e48:	27230000 	strcs	r0, [r3, -r0]!
    4e4c:	c3300000 	teqgt	r0, #0
    4e50:	e000001a 	and	r0, r0, sl, lsl r0
    4e54:	0800009c 	stmdaeq	r0, {r2, r3, r4, r7}
    4e58:	02000000 	andeq	r0, r0, #0
    4e5c:	0011499f 	mulseq	r1, pc, r9	; <UNPREDICTABLE>
    4e60:	1ad33100 	bne	ff4d1268 <__bss_end__+0xff4c53a8>
    4e64:	27430000 	strbcs	r0, [r3, -r0]
    4e68:	30000000 	andcc	r0, r0, r0
    4e6c:	00001aa9 	andeq	r1, r0, r9, lsr #21
    4e70:	00009cf0 	strdeq	r9, [r0], -r0
    4e74:	00000018 	andeq	r0, r0, r8, lsl r0
    4e78:	1166a002 	cmnne	r6, r2
    4e7c:	b9310000 	ldmdblt	r1!, {}	; <UNPREDICTABLE>
    4e80:	5b00001a 	blpl	4ef0 <_start-0x3110>
    4e84:	00000027 	andeq	r0, r0, r7, lsr #32
    4e88:	001a8f30 	andseq	r8, sl, r0, lsr pc
    4e8c:	009d1000 	addseq	r1, sp, r0
    4e90:	00001800 	andeq	r1, r0, r0, lsl #16
    4e94:	83a10200 			; <UNDEFINED> instruction: 0x83a10200
    4e98:	31000011 	tstcc	r0, r1, lsl r0
    4e9c:	00001a9f 	muleq	r0, pc, sl	; <UNPREDICTABLE>
    4ea0:	00002773 	andeq	r2, r0, r3, ror r7
    4ea4:	1a5b3900 	bne	16d32ac <__bss_end__+0x16c73ec>
    4ea8:	9d300000 	ldcls	0, cr0, [r0, #-0]
    4eac:	00400000 	subeq	r0, r0, r0
    4eb0:	a3020000 	movwge	r0, #8192	; 0x2000
    4eb4:	000011d1 	ldrdeq	r1, [r0], -r1	; <UNPREDICTABLE>
    4eb8:	001a7431 	andseq	r7, sl, r1, lsr r4
    4ebc:	00278b00 	eoreq	r8, r7, r0, lsl #22
    4ec0:	1a6b3100 	bne	1ad12c8 <__bss_end__+0x1ac5408>
    4ec4:	27b30000 	ldrcs	r0, [r3, r0]!
    4ec8:	403a0000 	eorsmi	r0, sl, r0
    4ecc:	33000000 	movwcc	r0, #0
    4ed0:	00001a7d 	andeq	r1, r0, sp, ror sl
    4ed4:	000027db 	ldrdeq	r2, [r0], -fp
    4ed8:	001ac334 	andseq	ip, sl, r4, lsr r3
    4edc:	009d3000 	addseq	r3, sp, r0
    4ee0:	00000c00 	andeq	r0, r0, r0, lsl #24
    4ee4:	31430200 	mrscc	r0, (UNDEF: 99)
    4ee8:	00001ad3 	ldrdeq	r1, [r0], -r3
    4eec:	000027fd 	strdeq	r2, [r0], -sp
    4ef0:	37000000 	strcc	r0, [r0, -r0]
    4ef4:	00009cbc 			; <UNDEFINED> instruction: 0x00009cbc
    4ef8:	00001b94 	muleq	r0, r4, fp
    4efc:	000011f1 	strdeq	r1, [r0], -r1	; <UNPREDICTABLE>
    4f00:	02500138 	subseq	r0, r0, #56, 2
    4f04:	01380074 	teqeq	r8, r4, ror r0
    4f08:	38300151 	ldmdacc	r0!, {r0, r4, r6, r8}
    4f0c:	0a035201 	beq	d9718 <__bss_end__+0xcd858>
    4f10:	36000814 			; <UNDEFINED> instruction: 0x36000814
    4f14:	00009e14 	andeq	r9, r0, r4, lsl lr
    4f18:	00001b47 	andeq	r1, r0, r7, asr #22
    4f1c:	009e2837 	addseq	r2, lr, r7, lsr r8
    4f20:	001b5200 	andseq	r5, fp, r0, lsl #4
    4f24:	00122900 	andseq	r2, r2, r0, lsl #18
    4f28:	50013800 	andpl	r3, r1, r0, lsl #16
    4f2c:	a9640305 	stmdbge	r4!, {r0, r2, r8, r9}^
    4f30:	01380000 	teqeq	r8, r0
    4f34:	2c030551 	cfstr32cs	mvfx0, [r3], {81}	; 0x51
    4f38:	380000a9 	stmdacc	r0, {r0, r3, r5, r7}
    4f3c:	03055201 	movweq	r5, #20993	; 0x5201
    4f40:	0000a824 	andeq	sl, r0, r4, lsr #16
    4f44:	02530138 	subseq	r0, r3, #56, 2
    4f48:	36009f08 	strcc	r9, [r0], -r8, lsl #30
    4f4c:	00009e2c 	andeq	r9, r0, ip, lsr #28
    4f50:	00001b5d 	andeq	r1, r0, sp, asr fp
    4f54:	009e3036 	addseq	r3, lr, r6, lsr r0
    4f58:	001b4700 	andseq	r4, fp, r0, lsl #14
    4f5c:	9e443700 	cdpls	7, 4, cr3, cr4, cr0, {0}
    4f60:	1b520000 	blne	1484f68 <__bss_end__+0x14790a8>
    4f64:	126a0000 	rsbne	r0, sl, #0
    4f68:	01380000 	teqeq	r8, r0
    4f6c:	80030550 	andhi	r0, r3, r0, asr r5
    4f70:	380000a9 	stmdacc	r0, {r0, r3, r5, r7}
    4f74:	03055101 	movweq	r5, #20737	; 0x5101
    4f78:	0000a92c 	andeq	sl, r0, ip, lsr #18
    4f7c:	05520138 	ldrbeq	r0, [r2, #-312]	; 0x138
    4f80:	00a82403 	adceq	r2, r8, r3, lsl #8
    4f84:	53013800 	movwpl	r3, #6144	; 0x1800
    4f88:	00a00802 	adceq	r0, r0, r2, lsl #16
    4f8c:	009e4836 	addseq	r4, lr, r6, lsr r8
    4f90:	001b5d00 	andseq	r5, fp, r0, lsl #26
    4f94:	9e4c3600 	cdpls	6, 4, cr3, cr12, cr0, {0}
    4f98:	1b470000 	blne	11c4fa0 <__bss_end__+0x11b90e0>
    4f9c:	60370000 	eorsvs	r0, r7, r0
    4fa0:	5200009e 	andpl	r0, r0, #158	; 0x9e
    4fa4:	ab00001b 	blge	5018 <_start-0x2fe8>
    4fa8:	38000012 	stmdacc	r0, {r1, r4}
    4fac:	03055001 	movweq	r5, #20481	; 0x5001
    4fb0:	0000a99c 	muleq	r0, ip, r9
    4fb4:	05510138 	ldrbeq	r0, [r1, #-312]	; 0x138
    4fb8:	00a92c03 	adceq	r2, r9, r3, lsl #24
    4fbc:	52013800 	andpl	r3, r1, #0, 16
    4fc0:	a8240305 	stmdage	r4!, {r0, r2, r8, r9}
    4fc4:	01380000 	teqeq	r8, r0
    4fc8:	a1080253 	tstge	r8, r3, asr r2
    4fcc:	9e643600 	cdpls	6, 6, cr3, cr4, cr0, {0}
    4fd0:	1b5d0000 	blne	1744fd8 <__bss_end__+0x1739118>
    4fd4:	84360000 	ldrthi	r0, [r6], #-0
    4fd8:	4700009e 			; <UNDEFINED> instruction: 0x4700009e
    4fdc:	3700001b 	smladcc	r0, fp, r0, r0
    4fe0:	00009e98 	muleq	r0, r8, lr
    4fe4:	00001b52 	andeq	r1, r0, r2, asr fp
    4fe8:	000012ec 	andeq	r1, r0, ip, ror #5
    4fec:	05500138 	ldrbeq	r0, [r0, #-312]	; 0x138
    4ff0:	00a9c003 	adceq	ip, r9, r3
    4ff4:	51013800 	tstpl	r1, r0, lsl #16
    4ff8:	a92c0305 	stmdbge	ip!, {r0, r2, r8, r9}
    4ffc:	01380000 	teqeq	r8, r0
    5000:	24030552 	strcs	r0, [r3], #-1362	; 0x552
    5004:	380000a8 	stmdacc	r0, {r3, r5, r7}
    5008:	08025301 	stmdaeq	r2, {r0, r8, r9, ip, lr}
    500c:	9c3600a3 	ldcls	0, cr0, [r6], #-652	; 0xfffffd74
    5010:	5d00009e 	stcpl	0, cr0, [r0, #-632]	; 0xfffffd88
    5014:	0000001b 	andeq	r0, r0, fp, lsl r0
    5018:	19963900 	ldmibne	r6, {r8, fp, ip, sp}
    501c:	9d440000 	stclls	0, cr0, [r4, #-0]
    5020:	00580000 	subseq	r0, r8, r0
    5024:	70010000 	andvc	r0, r1, r0
    5028:	000014f6 	strdeq	r1, [r0], -r6
    502c:	0019ab31 	andseq	sl, r9, r1, lsr fp
    5030:	00281500 	eoreq	r1, r8, r0, lsl #10
    5034:	19a23100 	stmibne	r2!, {r8, ip, sp}
    5038:	28350000 	ldmdacs	r5!, {}	; <UNPREDICTABLE>
    503c:	583a0000 	ldmdapl	sl!, {}	; <UNPREDICTABLE>
    5040:	33000000 	movwcc	r0, #0
    5044:	000019c3 	andeq	r1, r0, r3, asr #19
    5048:	0000285d 	andeq	r2, r0, sp, asr r8
    504c:	001ac330 	andseq	ip, sl, r0, lsr r3
    5050:	009d8400 	addseq	r8, sp, r0, lsl #8
    5054:	00000800 	andeq	r0, r0, r0, lsl #16
    5058:	479f0200 	ldrmi	r0, [pc, r0, lsl #4]
    505c:	31000013 	tstcc	r0, r3, lsl r0
    5060:	00001ad3 	ldrdeq	r1, [r0], -r3
    5064:	0000287d 	andeq	r2, r0, sp, ror r8
    5068:	1aa93000 	bne	fea51070 <__bss_end__+0xfea451b0>
    506c:	9d940000 	ldcls	0, cr0, [r4]
    5070:	00180000 	andseq	r0, r8, r0
    5074:	a0020000 	andge	r0, r2, r0
    5078:	00001364 	andeq	r1, r0, r4, ror #6
    507c:	001ab931 	andseq	fp, sl, r1, lsr r9
    5080:	00289500 	eoreq	r9, r8, r0, lsl #10
    5084:	8f300000 	svchi	0x00300000
    5088:	b400001a 	strlt	r0, [r0], #-26
    508c:	1800009d 	stmdane	r0, {r0, r2, r3, r4, r7}
    5090:	02000000 	andeq	r0, r0, #0
    5094:	001381a1 	andseq	r8, r3, r1, lsr #3
    5098:	1a9f3100 	bne	fe7d14a0 <__bss_end__+0xfe7c55e0>
    509c:	28ad0000 	stmiacs	sp!, {}	; <UNPREDICTABLE>
    50a0:	39000000 	stmdbcc	r0, {}	; <UNPREDICTABLE>
    50a4:	00001a5b 	andeq	r1, r0, fp, asr sl
    50a8:	00009dd4 	ldrdeq	r9, [r0], -r4
    50ac:	00000070 	andeq	r0, r0, r0, ror r0
    50b0:	13cfa302 	bicne	sl, pc, #134217728	; 0x8000000
    50b4:	74310000 	ldrtvc	r0, [r1], #-0
    50b8:	c500001a 	strgt	r0, [r0, #-26]
    50bc:	31000028 	tstcc	r0, r8, lsr #32
    50c0:	00001a6b 	andeq	r1, r0, fp, ror #20
    50c4:	000028ed 	andeq	r2, r0, sp, ror #17
    50c8:	0000703a 	andeq	r7, r0, sl, lsr r0
    50cc:	1a7d3300 	bne	1f51cd4 <__bss_end__+0x1f45e14>
    50d0:	29150000 	ldmdbcs	r5, {}	; <UNPREDICTABLE>
    50d4:	c3340000 	teqgt	r4, #0
    50d8:	d400001a 	strle	r0, [r0], #-26
    50dc:	0c00009d 	stceq	0, cr0, [r0], {157}	; 0x9d
    50e0:	02000000 	andeq	r0, r0, #0
    50e4:	1ad33143 	bne	ff4d15f8 <__bss_end__+0xff4c5738>
    50e8:	29370000 	ldmdbcs	r7!, {}	; <UNPREDICTABLE>
    50ec:	00000000 	andeq	r0, r0, r0
    50f0:	9d5c3700 	ldclls	7, cr3, [ip, #-0]
    50f4:	1b940000 	blne	fe5050fc <__bss_end__+0xfe4f923c>
    50f8:	13f00000 	mvnsne	r0, #0
    50fc:	01380000 	teqeq	r8, r0
    5100:	94740350 	ldrbtls	r0, [r4], #-848	; 0x350
    5104:	51013810 	tstpl	r1, r0, lsl r8
    5108:	01383001 	teqeq	r8, r1
    510c:	140a0352 	strne	r0, [sl], #-850	; 0x352
    5110:	a0360008 	eorsge	r0, r6, r8
    5114:	4700009e 			; <UNDEFINED> instruction: 0x4700009e
    5118:	3700001b 	smladcc	r0, fp, r0, r0
    511c:	00009eb4 			; <UNDEFINED> instruction: 0x00009eb4
    5120:	00001b52 	andeq	r1, r0, r2, asr fp
    5124:	00001428 	andeq	r1, r0, r8, lsr #8
    5128:	05500138 	ldrbeq	r0, [r0, #-312]	; 0x138
    512c:	00a96403 	adceq	r6, r9, r3, lsl #8
    5130:	51013800 	tstpl	r1, r0, lsl #16
    5134:	a92c0305 	stmdbge	ip!, {r0, r2, r8, r9}
    5138:	01380000 	teqeq	r8, r0
    513c:	24030552 	strcs	r0, [r3], #-1362	; 0x552
    5140:	380000a8 	stmdacc	r0, {r3, r5, r7}
    5144:	08025301 	stmdaeq	r2, {r0, r8, r9, ip, lr}
    5148:	b836009f 	ldmdalt	r6!, {r0, r1, r2, r3, r4, r7}
    514c:	5d00009e 	stcpl	0, cr0, [r0, #-632]	; 0xfffffd88
    5150:	3600001b 			; <UNDEFINED> instruction: 0x3600001b
    5154:	00009ebc 			; <UNDEFINED> instruction: 0x00009ebc
    5158:	00001b47 	andeq	r1, r0, r7, asr #22
    515c:	009ed037 	addseq	sp, lr, r7, lsr r0
    5160:	001b5200 	andseq	r5, fp, r0, lsl #4
    5164:	00146900 	andseq	r6, r4, r0, lsl #18
    5168:	50013800 	andpl	r3, r1, r0, lsl #16
    516c:	a9800305 	stmibge	r0, {r0, r2, r8, r9}
    5170:	01380000 	teqeq	r8, r0
    5174:	2c030551 	cfstr32cs	mvfx0, [r3], {81}	; 0x51
    5178:	380000a9 	stmdacc	r0, {r0, r3, r5, r7}
    517c:	03055201 	movweq	r5, #20993	; 0x5201
    5180:	0000a824 	andeq	sl, r0, r4, lsr #16
    5184:	02530138 	subseq	r0, r3, #56, 2
    5188:	3600a008 	strcc	sl, [r0], -r8
    518c:	00009ed4 	ldrdeq	r9, [r0], -r4
    5190:	00001b5d 	andeq	r1, r0, sp, asr fp
    5194:	009ed836 	addseq	sp, lr, r6, lsr r8
    5198:	001b4700 	andseq	r4, fp, r0, lsl #14
    519c:	9eec3700 	cdpls	7, 14, cr3, cr12, cr0, {0}
    51a0:	1b520000 	blne	14851a8 <__bss_end__+0x14792e8>
    51a4:	14aa0000 	strtne	r0, [sl], #0
    51a8:	01380000 	teqeq	r8, r0
    51ac:	9c030550 	cfstr32ls	mvfx0, [r3], {80}	; 0x50
    51b0:	380000a9 	stmdacc	r0, {r0, r3, r5, r7}
    51b4:	03055101 	movweq	r5, #20737	; 0x5101
    51b8:	0000a92c 	andeq	sl, r0, ip, lsr #18
    51bc:	05520138 	ldrbeq	r0, [r2, #-312]	; 0x138
    51c0:	00a82403 	adceq	r2, r8, r3, lsl #8
    51c4:	53013800 	movwpl	r3, #6144	; 0x1800
    51c8:	00a10802 	adceq	r0, r1, r2, lsl #16
    51cc:	009ef036 	addseq	pc, lr, r6, lsr r0	; <UNPREDICTABLE>
    51d0:	001b5d00 	andseq	r5, fp, r0, lsl #26
    51d4:	9f183600 	svcls	0x00183600
    51d8:	1b470000 	blne	11c51e0 <__bss_end__+0x11b9320>
    51dc:	2c370000 	ldccs	0, cr0, [r7], #-0
    51e0:	5200009f 	andpl	r0, r0, #159	; 0x9f
    51e4:	eb00001b 	bl	5258 <_start-0x2da8>
    51e8:	38000014 	stmdacc	r0, {r2, r4}
    51ec:	03055001 	movweq	r5, #20481	; 0x5001
    51f0:	0000a9c0 	andeq	sl, r0, r0, asr #19
    51f4:	05510138 	ldrbeq	r0, [r1, #-312]	; 0x138
    51f8:	00a92c03 	adceq	r2, r9, r3, lsl #24
    51fc:	52013800 	andpl	r3, r1, #0, 16
    5200:	a8240305 	stmdage	r4!, {r0, r2, r8, r9}
    5204:	01380000 	teqeq	r8, r0
    5208:	a3080253 	movwge	r0, #33363	; 0x8253
    520c:	9f303600 	svcls	0x00303600
    5210:	1b5d0000 	blne	1745218 <__bss_end__+0x1739358>
    5214:	00000000 	andeq	r0, r0, r0
    5218:	009dec36 	addseq	lr, sp, r6, lsr ip
    521c:	001b9f00 	andseq	r9, fp, r0, lsl #30
    5220:	9df83700 	ldclls	7, cr3, [r8]
    5224:	15430000 	strbne	r0, [r3, #-0]
    5228:	15130000 	ldrne	r0, [r3, #-0]
    522c:	01380000 	teqeq	r8, r0
    5230:	00740250 	rsbseq	r0, r4, r0, asr r2
    5234:	9e003700 	cdpls	7, 0, cr3, cr0, cr0, {0}
    5238:	17180000 	ldrne	r0, [r8, -r0]
    523c:	15270000 	strne	r0, [r7, #-0]!
    5240:	01380000 	teqeq	r8, r0
    5244:	00740250 	rsbseq	r0, r4, r0, asr r2
    5248:	9e043600 	cfmadd32ls	mvax0, mvfx3, mvfx4, mvfx0
    524c:	1b260000 	blne	985254 <__bss_end__+0x979394>
    5250:	08360000 	ldmdaeq	r6!, {}	; <UNPREDICTABLE>
    5254:	a900009e 	stmdbge	r0, {r1, r2, r3, r4, r7}
    5258:	36000018 			; <UNDEFINED> instruction: 0x36000018
    525c:	00009e0c 	andeq	r9, r0, ip, lsl #28
    5260:	00001b26 	andeq	r1, r0, r6, lsr #22
    5264:	12813c00 	addne	r3, r1, #0, 24
    5268:	5f010000 	svcpl	0x00010000
    526c:	00009c64 	andeq	r9, r0, r4, ror #24
    5270:	00000040 	andeq	r0, r0, r0, asr #32
    5274:	15c49c01 	strbne	r9, [r4, #3073]	; 0xc01
    5278:	cb3d0000 	blgt	f45280 <__bss_end__+0xf393c0>
    527c:	01000005 	tsteq	r0, r5
    5280:	000c565f 	andeq	r5, ip, pc, asr r6
    5284:	00294f00 	eoreq	r4, r9, r0, lsl #30
    5288:	9c703600 	ldclls	6, cr3, [r0], #-0
    528c:	1b260000 	blne	985294 <__bss_end__+0x9793d4>
    5290:	7c370000 	ldcvc	0, cr0, [r7], #-0
    5294:	2300009c 	movwcs	r0, #156	; 0x9c
    5298:	89000019 	stmdbhi	r0, {r0, r3, r4}
    529c:	38000015 	stmdacc	r0, {r0, r2, r4}
    52a0:	74025001 	strvc	r5, [r2], #-1
    52a4:	51013808 	tstpl	r1, r8, lsl #16
    52a8:	36003701 	strcc	r3, [r0], -r1, lsl #14
    52ac:	00009c80 	andeq	r9, r0, r0, lsl #25
    52b0:	00001b26 	andeq	r1, r0, r6, lsr #22
    52b4:	009c8c37 	addseq	r8, ip, r7, lsr ip
    52b8:	001baa00 	andseq	sl, fp, r0, lsl #20
    52bc:	0015a600 	andseq	sl, r5, r0, lsl #12
    52c0:	50013800 	andpl	r3, r1, r0, lsl #16
    52c4:	00007402 	andeq	r7, r0, r2, lsl #8
    52c8:	009c9837 	addseq	r9, ip, r7, lsr r8
    52cc:	001bb500 	andseq	fp, fp, r0, lsl #10
    52d0:	0015ba00 	andseq	fp, r5, r0, lsl #20
    52d4:	50013800 	andpl	r3, r1, r0, lsl #16
    52d8:	00007402 	andeq	r7, r0, r2, lsl #8
    52dc:	009c9c36 	addseq	r9, ip, r6, lsr ip
    52e0:	001b2600 	andseq	r2, fp, r0, lsl #12
    52e4:	342c0000 	strtcc	r0, [ip], #-0
    52e8:	01000013 	tsteq	r0, r3, lsl r0
    52ec:	0009f548 	andeq	pc, r9, r8, asr #10
    52f0:	009b8800 	addseq	r8, fp, r0, lsl #16
    52f4:	0000dc00 	andeq	sp, r0, r0, lsl #24
    52f8:	fd9c0100 	ldc2	1, cr0, [ip]
    52fc:	3d000016 	stccc	0, cr0, [r0, #-88]	; 0xffffffa8
    5300:	000005cb 	andeq	r0, r0, fp, asr #11
    5304:	16fd4801 	ldrbtne	r4, [sp], r1, lsl #16
    5308:	297b0000 	ldmdbcs	fp!, {}^	; <UNPREDICTABLE>
    530c:	783e0000 	ldmdavc	lr!, {}	; <UNPREDICTABLE>
    5310:	2c4a0100 	stfcse	f0, [sl], {-0}
    5314:	c0000000 	andgt	r0, r0, r0
    5318:	3e000029 	cdpcc	0, 0, cr0, cr0, cr9, {1}
    531c:	50010076 	andpl	r0, r1, r6, ror r0
    5320:	0000002c 	andeq	r0, r0, ip, lsr #32
    5324:	00002a41 	andeq	r2, r0, r1, asr #20
    5328:	00013a2e 	andeq	r3, r1, lr, lsr #20
    532c:	00171300 	andseq	r1, r7, r0, lsl #6
    5330:	14030500 	strne	r0, [r3], #-1280	; 0x500
    5334:	360000a8 	strcc	r0, [r0], -r8, lsr #1
    5338:	00009b98 	muleq	r0, r8, fp
    533c:	00001b26 	andeq	r1, r0, r6, lsr #22
    5340:	009ba037 	addseq	sl, fp, r7, lsr r0
    5344:	001baa00 	andseq	sl, fp, r0, lsl #20
    5348:	00163200 	andseq	r3, r6, r0, lsl #4
    534c:	50013800 	andpl	r3, r1, r0, lsl #16
    5350:	00087402 	andeq	r7, r8, r2, lsl #8
    5354:	009be036 	addseq	lr, fp, r6, lsr r0
    5358:	001b4700 	andseq	r4, fp, r0, lsl #14
    535c:	9bf43700 	blls	ffd12f64 <__bss_end__+0xffd070a4>
    5360:	1b520000 	blne	1485368 <__bss_end__+0x14794a8>
    5364:	166a0000 	strbtne	r0, [sl], -r0
    5368:	01380000 	teqeq	r8, r0
    536c:	74030550 	strvc	r0, [r3], #-1360	; 0x550
    5370:	380000a8 	stmdacc	r0, {r3, r5, r7}
    5374:	03055101 	movweq	r5, #20737	; 0x5101
    5378:	0000a868 	andeq	sl, r0, r8, ror #16
    537c:	05520138 	ldrbeq	r0, [r2, #-312]	; 0x138
    5380:	00a81403 	adceq	r1, r8, r3, lsl #8
    5384:	53013800 	movwpl	r3, #6144	; 0x1800
    5388:	00510802 	subseq	r0, r1, r2, lsl #16
    538c:	009bf836 	addseq	pc, fp, r6, lsr r8	; <UNPREDICTABLE>
    5390:	001b5d00 	andseq	r5, fp, r0, lsl #26
    5394:	9bfc3600 	blls	fff12b9c <__bss_end__+0xfff06cdc>
    5398:	1b470000 	blne	11c53a0 <__bss_end__+0x11b94e0>
    539c:	10370000 	eorsne	r0, r7, r0
    53a0:	5200009c 	andpl	r0, r0, #156	; 0x9c
    53a4:	ab00001b 	blge	5418 <_start-0x2be8>
    53a8:	38000016 	stmdacc	r0, {r1, r2, r4}
    53ac:	03055001 	movweq	r5, #20481	; 0x5001
    53b0:	0000a8bc 			; <UNDEFINED> instruction: 0x0000a8bc
    53b4:	05510138 	ldrbeq	r0, [r1, #-312]	; 0x138
    53b8:	00a86803 	adceq	r6, r8, r3, lsl #16
    53bc:	52013800 	andpl	r3, r1, #0, 16
    53c0:	a8140305 	ldmdage	r4, {r0, r2, r8, r9}
    53c4:	01380000 	teqeq	r8, r0
    53c8:	52080253 	andpl	r0, r8, #805306373	; 0x30000005
    53cc:	9c143600 	ldcls	6, cr3, [r4], {-0}
    53d0:	1b5d0000 	blne	17453d8 <__bss_end__+0x1739518>
    53d4:	18360000 	ldmdane	r6!, {}	; <UNPREDICTABLE>
    53d8:	4700009c 			; <UNDEFINED> instruction: 0x4700009c
    53dc:	3700001b 	smladcc	r0, fp, r0, r0
    53e0:	00009c30 	andeq	r9, r0, r0, lsr ip
    53e4:	00001b52 	andeq	r1, r0, r2, asr fp
    53e8:	000016f3 	strdeq	r1, [r0], -r3
    53ec:	05500138 	ldrbeq	r0, [r0, #-312]	; 0x138
    53f0:	00a90403 	adceq	r0, r9, r3, lsl #8
    53f4:	51013800 	tstpl	r1, r0, lsl #16
    53f8:	a8680305 	stmdage	r8!, {r0, r2, r8, r9}^
    53fc:	01380000 	teqeq	r8, r0
    5400:	14030552 	strne	r0, [r3], #-1362	; 0x552
    5404:	380000a8 	stmdacc	r0, {r3, r5, r7}
    5408:	08025301 	stmdaeq	r2, {r0, r8, r9, ip, lr}
    540c:	7d023859 	stcvc	8, cr3, [r2, #-356]	; 0xfffffe9c
    5410:	00740200 	rsbseq	r0, r4, r0, lsl #4
    5414:	9c343600 	ldcls	6, cr3, [r4], #-0
    5418:	1b5d0000 	blne	1745420 <__bss_end__+0x1739560>
    541c:	06000000 	streq	r0, [r0], -r0
    5420:	00094304 	andeq	r4, r9, r4, lsl #6
    5424:	011d0b00 	tsteq	sp, r0, lsl #22
    5428:	17130000 	ldrne	r0, [r3, -r0]
    542c:	2c0c0000 	stccs	0, cr0, [ip], {-0}
    5430:	0c000000 	stceq	0, cr0, [r0], {-0}
    5434:	17031000 	strne	r1, [r3, -r0]
    5438:	ed3f0000 	ldc	0, cr0, [pc, #-0]	; 5440 <_start-0x2bc0>
    543c:	0100000c 	tsteq	r0, ip
    5440:	009b543b 	addseq	r5, fp, fp, lsr r4
    5444:	00001800 	andeq	r1, r0, r0, lsl #16
    5448:	619c0100 	orrsvs	r0, ip, r0, lsl #2
    544c:	3d000017 	stccc	0, cr0, [r0, #-92]	; 0xffffffa4
    5450:	000005cb 	andeq	r0, r0, fp, asr #11
    5454:	16fd3b01 	ldrbtne	r3, [sp], r1, lsl #22
    5458:	2aa80000 	bcs	fea05460 <__bss_end__+0xfe9f95a0>
    545c:	60370000 	eorsvs	r0, r7, r0
    5460:	9d00009b 	stcls	0, cr0, [r0, #-620]	; 0xfffffd94
    5464:	50000017 	andpl	r0, r0, r7, lsl r0
    5468:	38000017 	stmdacc	r0, {r0, r1, r2, r4}
    546c:	74025001 	strvc	r5, [r2], #-1
    5470:	68400000 	stmdavs	r0, {}^	; <UNPREDICTABLE>
    5474:	2300009b 	movwcs	r0, #155	; 0x9b
    5478:	38000018 	stmdacc	r0, {r3, r4}
    547c:	74025001 	strvc	r5, [r2], #-1
    5480:	2c000000 	stccs	0, cr0, [r0], {-0}
    5484:	00000ee2 	andeq	r0, r0, r2, ror #29
    5488:	00253601 	eoreq	r3, r5, r1, lsl #12
    548c:	9b6c0000 	blls	1b05494 <__bss_end__+0x1af95d4>
    5490:	001c0000 	andseq	r0, ip, r0
    5494:	9c010000 	stcls	0, cr0, [r1], {-0}
    5498:	0000179d 	muleq	r0, sp, r7
    549c:	0005cb3d 	andeq	ip, r5, sp, lsr fp
    54a0:	56360100 	ldrtpl	r0, [r6], -r0, lsl #2
    54a4:	c600000c 	strgt	r0, [r0], -ip
    54a8:	4000002a 	andmi	r0, r0, sl, lsr #32
    54ac:	00009b78 	andeq	r9, r0, r8, ror fp
    54b0:	00001baa 	andeq	r1, r0, sl, lsr #23
    54b4:	05500138 	ldrbeq	r0, [r0, #-312]	; 0x138
    54b8:	235001f3 	cmpcs	r0, #-1073741764	; 0xc000003c
    54bc:	3c000004 	stccc	0, cr0, [r0], {4}
    54c0:	000011de 	ldrdeq	r1, [r0], -lr
    54c4:	9b403201 	blls	1011cd0 <__bss_end__+0x1005e10>
    54c8:	00140000 	andseq	r0, r4, r0
    54cc:	9c010000 	stcls	0, cr0, [r1], {-0}
    54d0:	000017da 	ldrdeq	r1, [r0], -sl
    54d4:	0005cb3d 	andeq	ip, r5, sp, lsr fp
    54d8:	56320100 	ldrtpl	r0, [r2], -r0, lsl #2
    54dc:	f400000c 	vst4.8	{d0-d3}, [r0], ip
    54e0:	4000002a 	andmi	r0, r0, sl, lsr #32
    54e4:	00009b50 	andeq	r9, r0, r0, asr fp
    54e8:	00001923 	andeq	r1, r0, r3, lsr #18
    54ec:	05500138 	ldrbeq	r0, [r0, #-312]	; 0x138
    54f0:	235001f3 	cmpcs	r0, #-1073741764	; 0xc000003c
    54f4:	51013804 	tstpl	r1, r4, lsl #16
    54f8:	00003201 	andeq	r3, r0, r1, lsl #4
    54fc:	000f553c 	andeq	r5, pc, ip, lsr r5	; <UNPREDICTABLE>
    5500:	202f0100 	eorcs	r0, pc, r0, lsl #2
    5504:	2000009b 	mulcs	r0, fp, r0
    5508:	01000000 	mrseq	r0, (UNDEF: 0)
    550c:	0018239c 	mulseq	r8, ip, r3
    5510:	05cb3d00 	strbeq	r3, [fp, #3328]	; 0xd00
    5514:	2f010000 	svccs	0x00010000
    5518:	00000c56 	andeq	r0, r0, r6, asr ip
    551c:	00002b22 	andeq	r2, r0, r2, lsr #22
    5520:	009b3037 	addseq	r3, fp, r7, lsr r0
    5524:	001baa00 	andseq	sl, fp, r0, lsl #20
    5528:	00181200 	andseq	r1, r8, r0, lsl #4
    552c:	50013800 	andpl	r3, r1, r0, lsl #16
    5530:	00007402 	andeq	r7, r0, r2, lsl #8
    5534:	009b3c40 	addseq	r3, fp, r0, asr #24
    5538:	001bb500 	andseq	fp, fp, r0, lsl #10
    553c:	50013800 	andpl	r3, r1, r0, lsl #16
    5540:	00007402 	andeq	r7, r0, r2, lsl #8
    5544:	107c3c00 	rsbsne	r3, ip, r0, lsl #24
    5548:	2c010000 	stccs	0, cr0, [r1], {-0}
    554c:	00009b0c 	andeq	r9, r0, ip, lsl #22
    5550:	00000014 	andeq	r0, r0, r4, lsl r0
    5554:	18609c01 	stmdane	r0!, {r0, sl, fp, ip, pc}^
    5558:	cb3d0000 	blgt	f45560 <__bss_end__+0xf396a0>
    555c:	01000005 	tsteq	r0, r5
    5560:	000c562c 	andeq	r5, ip, ip, lsr #12
    5564:	002b4f00 	eoreq	r4, fp, r0, lsl #30
    5568:	9b1c4000 	blls	715570 <__bss_end__+0x7096b0>
    556c:	19230000 	stmdbne	r3!, {}	; <UNPREDICTABLE>
    5570:	01380000 	teqeq	r8, r0
    5574:	01f30550 	mvnseq	r0, r0, asr r5
    5578:	38042350 	stmdacc	r4, {r4, r6, r8, r9, sp}
    557c:	31015101 	tstcc	r1, r1, lsl #2
    5580:	d83c0000 	ldmdale	ip!, {}	; <UNPREDICTABLE>
    5584:	01000012 	tsteq	r0, r2, lsl r0
    5588:	009aec29 	addseq	lr, sl, r9, lsr #24
    558c:	00002000 	andeq	r2, r0, r0
    5590:	a99c0100 	ldmibge	ip, {r8}
    5594:	3d000018 	stccc	0, cr0, [r0, #-96]	; 0xffffffa0
    5598:	000005cb 	andeq	r0, r0, fp, asr #11
    559c:	0c562901 	mrrceq	9, 0, r2, r6, cr1
    55a0:	2b7d0000 	blcs	1f455a8 <__bss_end__+0x1f396e8>
    55a4:	fc370000 	ldc2	0, cr0, [r7], #-0
    55a8:	aa00009a 	bge	5818 <_start-0x27e8>
    55ac:	9800001b 	stmdals	r0, {r0, r1, r3, r4}
    55b0:	38000018 	stmdacc	r0, {r3, r4}
    55b4:	74025001 	strvc	r5, [r2], #-1
    55b8:	08400000 	stmdaeq	r0, {}^	; <UNPREDICTABLE>
    55bc:	2300009b 	movwcs	r0, #155	; 0x9b
    55c0:	38000019 	stmdacc	r0, {r0, r3, r4}
    55c4:	74025001 	strvc	r5, [r2], #-1
    55c8:	3f000000 	svccc	0x00000000
    55cc:	00000d04 	andeq	r0, r0, r4, lsl #26
    55d0:	9ac82501 	bls	ff20e9dc <__bss_end__+0xff202b1c>
    55d4:	00180000 	andseq	r0, r8, r0
    55d8:	9c010000 	stcls	0, cr0, [r1], {-0}
    55dc:	000018d9 	ldrdeq	r1, [r0], -r9
    55e0:	009ad840 	addseq	sp, sl, r0, asr #16
    55e4:	0018d900 	andseq	sp, r8, r0, lsl #18
    55e8:	50013800 	andpl	r3, r1, r0, lsl #16
    55ec:	b2100c05 	andslt	r0, r0, #1280	; 0x500
    55f0:	01382000 	teqeq	r8, r0
    55f4:	49400351 	stmdbmi	r0, {r0, r4, r6, r8, r9}^
    55f8:	3f000024 	svccc	0x00000024
    55fc:	000011d0 	ldrdeq	r1, [r0], -r0
    5600:	9abc1901 	bls	fef0ba0c <__bss_end__+0xfeeffb4c>
    5604:	000c0000 	andeq	r0, ip, r0
    5608:	9c010000 	stcls	0, cr0, [r1], {-0}
    560c:	00001923 	andeq	r1, r0, r3, lsr #18
    5610:	00004a3d 	andeq	r4, r0, sp, lsr sl
    5614:	2c190100 	ldfcss	f0, [r9], {-0}
    5618:	aa000000 	bge	5620 <_start-0x29e0>
    561c:	2d00002b 	stccs	0, cr0, [r0, #-172]	; 0xffffff54
    5620:	19010076 	stmdbne	r1, {r1, r2, r4, r5, r6}
    5624:	0000002c 	andeq	r0, r0, ip, lsr #32
    5628:	00002bcb 	andeq	r2, r0, fp, asr #23
    562c:	009ac440 	addseq	ip, sl, r0, asr #8
    5630:	00192300 	andseq	r2, r9, r0, lsl #6
    5634:	50013800 	andpl	r3, r1, r0, lsl #16
    5638:	5001f303 	andpl	pc, r1, r3, lsl #6
    563c:	03510138 	cmpeq	r1, #56, 2
    5640:	005101f3 	ldrsheq	r0, [r1], #-19	; 0xffffffed
    5644:	0f343f00 	svceq	0x00343f00
    5648:	13010000 	movwne	r0, #4096	; 0x1000
    564c:	00009a90 	muleq	r0, r0, sl
    5650:	0000002c 	andeq	r0, r0, ip, lsr #32
    5654:	198f9c01 	stmibne	pc, {r0, sl, fp, ip, pc}	; <UNPREDICTABLE>
    5658:	4a3d0000 	bmi	f45660 <__bss_end__+0xf397a0>
    565c:	01000000 	mrseq	r0, (UNDEF: 0)
    5660:	00198f13 	andseq	r8, r9, r3, lsl pc
    5664:	002bec00 	eoreq	lr, fp, r0, lsl #24
    5668:	00762d00 	rsbseq	r2, r6, r0, lsl #26
    566c:	002c1301 	eoreq	r1, ip, r1, lsl #6
    5670:	2c0a0000 	stccs	0, cr0, [sl], {-0}
    5674:	a0360000 	eorsge	r0, r6, r0
    5678:	2600009a 			; <UNDEFINED> instruction: 0x2600009a
    567c:	3700001b 	smladcc	r0, fp, r0, r0
    5680:	00009aa8 	andeq	r9, r0, r8, lsr #21
    5684:	00001baa 	andeq	r1, r0, sl, lsr #23
    5688:	00001971 	andeq	r1, r0, r1, ror r9
    568c:	02500138 	subseq	r0, r0, #56, 2
    5690:	37000074 	smlsdxcc	r0, r4, r0, r0
    5694:	00009ab4 			; <UNDEFINED> instruction: 0x00009ab4
    5698:	00001bb5 			; <UNDEFINED> instruction: 0x00001bb5
    569c:	00001985 	andeq	r1, r0, r5, lsl #19
    56a0:	02500138 	subseq	r0, r0, #56, 2
    56a4:	36000074 			; <UNDEFINED> instruction: 0x36000074
    56a8:	00009ab8 			; <UNDEFINED> instruction: 0x00009ab8
    56ac:	00001b26 	andeq	r1, r0, r6, lsr #22
    56b0:	95040600 	strls	r0, [r4, #-1536]	; 0x600
    56b4:	41000019 	tstmi	r0, r9, lsl r0
    56b8:	000fa542 	andeq	sl, pc, r2, asr #10
    56bc:	03990200 	orrseq	r0, r9, #0, 4
    56c0:	000019cd 	andeq	r1, r0, sp, asr #19
    56c4:	02006343 	andeq	r6, r0, #201326593	; 0xc000001
    56c8:	0019cd99 	mulseq	r9, r9, sp
    56cc:	0d2b4400 	cfstrseq	mvf4, [fp, #-0]
    56d0:	99020000 	stmdbls	r2, {}	; <UNPREDICTABLE>
    56d4:	0000002c 	andeq	r0, r0, ip, lsr #32
    56d8:	00013a45 	andeq	r3, r1, r5, asr #20
    56dc:	0019e300 	andseq	lr, r9, r0, lsl #6
    56e0:	000fa500 	andeq	sl, pc, r0, lsl #10
    56e4:	00652f00 	rsbeq	r2, r5, r0, lsl #30
    56e8:	0a30a202 	beq	c2def8 <__bss_end__+0xc22038>
    56ec:	06000000 	streq	r0, [r0], -r0
    56f0:	000ab004 	andeq	fp, sl, r4
    56f4:	011d0b00 	tsteq	sp, r0, lsl #22
    56f8:	19e30000 	stmibne	r3!, {}^	; <UNPREDICTABLE>
    56fc:	2c0c0000 	stccs	0, cr0, [ip], {-0}
    5700:	07000000 	streq	r0, [r0, -r0]
    5704:	19d31000 	ldmibne	r3, {ip}^
    5708:	d0460000 	suble	r0, r6, r0
    570c:	02000012 	andeq	r0, r0, #18
    5710:	00002556 	andeq	r2, r0, r6, asr r5
    5714:	1a160300 	bne	58631c <__bss_end__+0x57a45c>
    5718:	63430000 	movtvs	r0, #12288	; 0x3000
    571c:	cd560200 	lfmgt	f0, 2, [r6, #-0]
    5720:	43000019 	movwmi	r0, #25
    5724:	56020078 			; <UNDEFINED> instruction: 0x56020078
    5728:	00000a30 	andeq	r0, r0, r0, lsr sl
    572c:	000e293b 	andeq	r2, lr, fp, lsr r9
    5730:	2c570200 	lfmcs	f0, 2, [r7], {-0}
    5734:	00000000 	andeq	r0, r0, r0
    5738:	000d7246 	andeq	r7, sp, r6, asr #4
    573c:	304b0200 	subcc	r0, fp, r0, lsl #4
    5740:	0300000a 	movweq	r0, #10
    5744:	00001a46 	andeq	r1, r0, r6, asr #20
    5748:	02006343 	andeq	r6, r0, #201326593	; 0xc000001
    574c:	0019cd4b 	andseq	ip, r9, fp, asr #26
    5750:	00652f00 	rsbeq	r2, r5, r0, lsl #30
    5754:	0a304c02 	beq	c18764 <__bss_end__+0xc0c8a4>
    5758:	3a450000 	bcc	1145760 <__bss_end__+0x11398a0>
    575c:	56000001 	strpl	r0, [r0], -r1
    5760:	7200001a 	andvc	r0, r0, #26
    5764:	0000000d 	andeq	r0, r0, sp
    5768:	00011d0b 	andeq	r1, r1, fp, lsl #26
    576c:	001a5600 	andseq	r5, sl, r0, lsl #12
    5770:	002c0c00 	eoreq	r0, ip, r0, lsl #24
    5774:	00060000 	andeq	r0, r6, r0
    5778:	001a4610 	andseq	r4, sl, r0, lsl r6
    577c:	0f954600 	svceq	0x00954600
    5780:	42020000 	andmi	r0, r2, #0
    5784:	00000025 	andeq	r0, r0, r5, lsr #32
    5788:	001a8903 	andseq	r8, sl, r3, lsl #18
    578c:	00634300 	rsbeq	r4, r3, r0, lsl #6
    5790:	19cd4202 	stmibne	sp, {r1, r9, lr}^
    5794:	65430000 	strbvs	r0, [r3, #-0]
    5798:	89420200 	stmdbhi	r2, {r9}^
    579c:	3b00001a 	blcc	580c <_start-0x27f4>
    57a0:	00000f6f 	andeq	r0, r0, pc, ror #30
    57a4:	002c4502 	eoreq	r4, ip, r2, lsl #10
    57a8:	06000000 	streq	r0, [r0], -r0
    57ac:	000a3004 	andeq	r3, sl, r4
    57b0:	0e6f4600 	cdpeq	6, 6, cr4, cr15, cr0, {0}
    57b4:	3e020000 	cdpcc	0, 0, cr0, cr2, cr0, {0}
    57b8:	0000002c 	andeq	r0, r0, ip, lsr #32
    57bc:	001aa903 	andseq	sl, sl, r3, lsl #18
    57c0:	00714300 	rsbseq	r4, r1, r0, lsl #6
    57c4:	19cd3e02 	stmibne	sp, {r1, r9, sl, fp, ip, sp}^
    57c8:	46000000 	strmi	r0, [r0], -r0
    57cc:	00001365 	andeq	r1, r0, r5, ror #6
    57d0:	00253c02 	eoreq	r3, r5, r2, lsl #24
    57d4:	c3030000 	movwgt	r0, #12288	; 0x3000
    57d8:	4300001a 	movwmi	r0, #26
    57dc:	3c020071 	stccc	0, cr0, [r2], {113}	; 0x71
    57e0:	000019cd 	andeq	r1, r0, sp, asr #19
    57e4:	0d844600 	stceq	6, cr4, [r4]
    57e8:	39020000 	stmdbcc	r2, {}	; <UNPREDICTABLE>
    57ec:	00000025 	andeq	r0, r0, r5, lsr #32
    57f0:	001add03 	andseq	sp, sl, r3, lsl #26
    57f4:	00714300 	rsbseq	r4, r1, r0, lsl #6
    57f8:	19cd3902 	stmibne	sp, {r1, r8, fp, ip, sp}^
    57fc:	47000000 	strmi	r0, [r0, -r0]
    5800:	00000f74 	andeq	r0, r0, r4, ror pc
    5804:	0a2b0901 	beq	ac7c10 <__bss_end__+0xabbd50>
    5808:	9ae00000 	bls	ff805810 <__bss_end__+0xff7f9950>
    580c:	000c0000 	andeq	r0, ip, r0
    5810:	9c010000 	stcls	0, cr0, [r1], {-0}
    5814:	000f8548 	andeq	r8, pc, r8, asr #10
    5818:	fd220900 	stc2	9, cr0, [r2, #-0]
    581c:	03000016 	movweq	r0, #22
    5820:	00124048 	andseq	r4, r2, r8, asr #32
    5824:	252c0300 	strcs	r0, [ip, #-768]!	; 0x300
    5828:	03000000 	movweq	r0, #0
    582c:	000def46 	andeq	lr, sp, r6, asr #30
    5830:	2c260300 	stccs	3, cr0, [r6], #-0
    5834:	03000000 	movweq	r0, #0
    5838:	00001b26 	andeq	r1, r0, r6, lsr #22
    583c:	0006f13b 	andeq	pc, r6, fp, lsr r1	; <UNPREDICTABLE>
    5840:	2c270300 	stccs	3, cr0, [r7], #-0
    5844:	00000000 	andeq	r0, r0, r0
    5848:	00081149 	andeq	r1, r8, r9, asr #2
    584c:	00081100 	andeq	r1, r8, r0, lsl #2
    5850:	49860800 	stmibmi	r6, {fp}
    5854:	00001341 	andeq	r1, r0, r1, asr #6
    5858:	00001341 	andeq	r1, r0, r1, asr #6
    585c:	1a493203 	bne	1252070 <__bss_end__+0x12461b0>
    5860:	1a000002 	bne	5870 <_start-0x2790>
    5864:	03000002 	movweq	r0, #2
    5868:	012b4931 	teqeq	fp, r1, lsr r9
    586c:	012b0000 	teqeq	fp, r0
    5870:	1e080000 	cdpne	0, 0, cr0, cr8, cr0, {0}
    5874:	00046c49 	andeq	r6, r4, r9, asr #24
    5878:	00046c00 	andeq	r6, r4, r0, lsl #24
    587c:	49290800 	stmdbmi	r9!, {fp}
    5880:	000001bc 			; <UNDEFINED> instruction: 0x000001bc
    5884:	000001bc 			; <UNDEFINED> instruction: 0x000001bc
    5888:	b4496508 	strblt	r6, [r9], #-1288	; 0x508
    588c:	b400000a 	strlt	r0, [r0], #-10
    5890:	0800000a 	stmdaeq	r0, {r1, r3}
    5894:	09ae4942 	stmibeq	lr!, {r1, r6, r8, fp, lr}
    5898:	09ae0000 	stmibeq	lr!, {}	; <UNPREDICTABLE>
    589c:	3b080000 	blcc	2058a4 <__bss_end__+0x1f99e4>
    58a0:	000aea49 	andeq	lr, sl, r9, asr #20
    58a4:	000aea00 	andeq	lr, sl, r0, lsl #20
    58a8:	49440800 	stmdbmi	r4, {fp}^
    58ac:	0000062c 	andeq	r0, r0, ip, lsr #12
    58b0:	0000062c 	andeq	r0, r0, ip, lsr #12
    58b4:	62493c08 	subvs	r3, r9, #8, 24	; 0x800
    58b8:	62000012 	andvs	r0, r0, #18
    58bc:	0b000012 	bleq	590c <_start-0x26f4>
    58c0:	0ac24921 	beq	ff097d4c <__bss_end__+0xff08be8c>
    58c4:	0ac20000 	beq	ff0858cc <__bss_end__+0xff079a0c>
    58c8:	3a080000 	bcc	2058d0 <__bss_end__+0x1f9a10>
    58cc:	0008d049 	andeq	sp, r8, r9, asr #32
    58d0:	0008d000 	andeq	sp, r8, r0
    58d4:	49a50800 	stmibmi	r5!, {fp}
    58d8:	00000765 	andeq	r0, r0, r5, ror #14
    58dc:	00000765 	andeq	r0, r0, r5, ror #14
    58e0:	db009908 	blle	2bd08 <__bss_end__+0x1fe48>
    58e4:	04000000 	streq	r0, [r0], #-0
    58e8:	0015fd00 	andseq	pc, r5, r0, lsl #26
    58ec:	e3010400 	movw	r0, #5120	; 0x1400
    58f0:	01000002 	tsteq	r0, r2
    58f4:	0000137d 	andeq	r1, r0, sp, ror r3
    58f8:	0000047d 	andeq	r0, r0, sp, ror r4
    58fc:	0000a2b0 			; <UNDEFINED> instruction: 0x0000a2b0
    5900:	00000020 	andeq	r0, r0, r0, lsr #32
    5904:	00001398 	muleq	r0, r8, r3
    5908:	52060102 	andpl	r0, r6, #-2147483648	; 0x80000000
    590c:	02000002 	andeq	r0, r0, #2
    5910:	02500801 	subseq	r0, r0, #65536	; 0x10000
    5914:	02020000 	andeq	r0, r2, #0
    5918:	00027705 	andeq	r7, r2, r5, lsl #14
    591c:	07020200 	streq	r0, [r2, -r0, lsl #4]
    5920:	00000163 	andeq	r0, r0, r3, ror #2
    5924:	69050403 	stmdbvs	r5, {r0, r1, sl}
    5928:	0200746e 	andeq	r7, r0, #1845493760	; 0x6e000000
    592c:	003d0704 	eorseq	r0, sp, r4, lsl #14
    5930:	08020000 	stmdaeq	r2, {}	; <UNPREDICTABLE>
    5934:	00007605 	andeq	r7, r0, r5, lsl #12
    5938:	07080200 	streq	r0, [r8, -r0, lsl #4]
    593c:	00000033 	andeq	r0, r0, r3, lsr r0
    5940:	7b050402 	blvc	146950 <__bss_end__+0x13aa90>
    5944:	02000000 	andeq	r0, r0, #0
    5948:	01eb0704 	mvneq	r0, r4, lsl #14
    594c:	04040000 	streq	r0, [r4], #-0
    5950:	38070402 	stmdacc	r7, {r1, sl}
    5954:	05000000 	streq	r0, [r0, #-0]
    5958:	00007a04 	andeq	r7, r0, r4, lsl #20
    595c:	08010200 	stmdaeq	r1, {r9}
    5960:	00000259 	andeq	r0, r0, r9, asr r2
    5964:	00137606 	andseq	r7, r3, r6, lsl #12
    5968:	48d40200 	ldmmi	r4, {r9}^
    596c:	07000000 	streq	r0, [r0, -r0]
    5970:	00001262 	andeq	r1, r0, r2, ror #4
    5974:	006b1b03 	rsbeq	r1, fp, r3, lsl #22
    5978:	a2b00000 	adcsge	r0, r0, #0
    597c:	00200000 	eoreq	r0, r0, r0
    5980:	9c010000 	stcls	0, cr0, [r1], {-0}
    5984:	00705f08 	rsbseq	r5, r0, r8, lsl #30
    5988:	006b0301 	rsbeq	r0, fp, r1, lsl #6
    598c:	50010000 	andpl	r0, r1, r0
    5990:	01006308 	tsteq	r0, r8, lsl #6
    5994:	00004103 	andeq	r4, r0, r3, lsl #2
    5998:	09510100 	ldmdbeq	r1, {r8}^
    599c:	0301006e 	movweq	r0, #4206	; 0x106e
    59a0:	00000081 	andeq	r0, r0, r1, lsl #1
    59a4:	00002c28 	andeq	r2, r0, r8, lsr #24
    59a8:	0100700a 	tsteq	r0, sl
    59ac:	00007404 	andeq	r7, r0, r4, lsl #8
    59b0:	002c4900 	eoreq	r4, ip, r0, lsl #18
    59b4:	00650b00 	rsbeq	r0, r5, r0, lsl #22
    59b8:	00740401 	rsbseq	r0, r4, r1, lsl #8
    59bc:	52010000 	andpl	r0, r1, #0
    59c0:	01c30000 	biceq	r0, r3, r0
    59c4:	00040000 	andeq	r0, r4, r0
    59c8:	0000169a 	muleq	r0, sl, r6
    59cc:	02e30104 	rsceq	r0, r3, #4, 2
    59d0:	92010000 	andls	r0, r1, #0
    59d4:	7d000013 	stcvc	0, cr0, [r0, #-76]	; 0xffffffb4
    59d8:	d0000004 	andle	r0, r0, r4
    59dc:	500000a2 	andpl	r0, r0, r2, lsr #1
    59e0:	88000000 	stmdahi	r0, {}	; <UNPREDICTABLE>
    59e4:	02000014 	andeq	r0, r0, #20
    59e8:	6e690504 	cdpvs	5, 6, cr0, cr9, cr4, {0}
    59ec:	76030074 			; <UNDEFINED> instruction: 0x76030074
    59f0:	02000013 	andeq	r0, r0, #19
    59f4:	000037d4 	ldrdeq	r3, [r0], -r4
    59f8:	07040400 	streq	r0, [r4, -r0, lsl #8]
    59fc:	0000003d 	andeq	r0, r0, sp, lsr r0
    5a00:	52060104 	andpl	r0, r6, #4, 2
    5a04:	04000002 	streq	r0, [r0], #-2
    5a08:	02770502 	rsbseq	r0, r7, #8388608	; 0x800000
    5a0c:	04040000 	streq	r0, [r4], #-0
    5a10:	00007b05 	andeq	r7, r0, r5, lsl #22
    5a14:	05080400 	streq	r0, [r8, #-1024]	; 0x400
    5a18:	00000076 	andeq	r0, r0, r6, ror r0
    5a1c:	00040a03 	andeq	r0, r4, r3, lsl #20
    5a20:	652e0300 	strvs	r0, [lr, #-768]!	; 0x300
    5a24:	04000000 	streq	r0, [r0], #-0
    5a28:	02500801 	subseq	r0, r0, #65536	; 0x10000
    5a2c:	02040000 	andeq	r0, r4, #0
    5a30:	00016307 	andeq	r6, r1, r7, lsl #6
    5a34:	02b30300 	adcseq	r0, r3, #0, 6
    5a38:	34030000 	strcc	r0, [r3], #-0
    5a3c:	0000007e 	andeq	r0, r0, lr, ror r0
    5a40:	38070404 	stmdacc	r7, {r2, sl}
    5a44:	04000000 	streq	r0, [r0], #-0
    5a48:	00330708 	eorseq	r0, r3, r8, lsl #14
    5a4c:	04040000 	streq	r0, [r4], #-0
    5a50:	0001eb07 	andeq	lr, r1, r7, lsl #22
    5a54:	04040500 	streq	r0, [r4], #-1280	; 0x500
    5a58:	02590801 	subseq	r0, r9, #65536	; 0x10000
    5a5c:	0c060000 	stceq	0, cr0, [r6], {-0}
    5a60:	00d30e04 	sbcseq	r0, r3, r4, lsl #28
    5a64:	74070000 	strvc	r0, [r7], #-0
    5a68:	0f040078 	svceq	0x00040078
    5a6c:	0000005a 	andeq	r0, r0, sl, asr r0
    5a70:	78720700 	ldmdavc	r2!, {r8, r9, sl}^
    5a74:	5a0f0400 	bpl	3c6a7c <__bss_end__+0x3babbc>
    5a78:	01000000 	mrseq	r0, (UNDEF: 0)
    5a7c:	00060408 	andeq	r0, r6, r8, lsl #8
    5a80:	73100400 	tstvc	r0, #0, 8
    5a84:	04000000 	streq	r0, [r0], #-0
    5a88:	0005b508 	andeq	fp, r5, r8, lsl #10
    5a8c:	73110400 	tstvc	r1, #0, 8
    5a90:	08000000 	stmdaeq	r0, {}	; <UNPREDICTABLE>
    5a94:	05ed0300 	strbeq	r0, [sp, #768]!	; 0x300
    5a98:	12040000 	andne	r0, r4, #0
    5a9c:	0000009c 	muleq	r0, ip, r0
    5aa0:	10050109 	andne	r0, r5, r9, lsl #2
    5aa4:	000000f9 	strdeq	r0, [r0], -r9
    5aa8:	0006090a 	andeq	r0, r6, sl, lsl #18
    5aac:	f70a0100 			; <UNDEFINED> instruction: 0xf70a0100
    5ab0:	02000005 	andeq	r0, r0, #5
    5ab4:	0005df0a 	andeq	sp, r5, sl, lsl #30
    5ab8:	03000300 	movweq	r0, #768	; 0x300
    5abc:	0000061e 	andeq	r0, r0, lr, lsl r6
    5ac0:	00de1005 	sbcseq	r1, lr, r5
    5ac4:	14060000 	strne	r0, [r6], #-0
    5ac8:	01311405 	teqeq	r1, r5, lsl #8
    5acc:	85080000 	strhi	r0, [r8, #-0]
    5ad0:	05000006 	streq	r0, [r0, #-6]
    5ad4:	00003715 	andeq	r3, r0, r5, lsl r7
    5ad8:	79080000 	stmdbvc	r8, {}	; <UNPREDICTABLE>
    5adc:	05000006 	streq	r0, [r0, #-6]
    5ae0:	0000f918 	andeq	pc, r0, r8, lsl r9	; <UNPREDICTABLE>
    5ae4:	44080400 	strmi	r0, [r8], #-1024	; 0x400
    5ae8:	05000006 	streq	r0, [r0, #-6]
    5aec:	0000d31b 	andeq	sp, r0, fp, lsl r3
    5af0:	03000800 	movweq	r0, #2048	; 0x800
    5af4:	00000636 	andeq	r0, r0, r6, lsr r6
    5af8:	01042005 	tsteq	r4, r5
    5afc:	8b0b0000 	blhi	2c5b04 <__bss_end__+0x2b9c44>
    5b00:	01000013 	tsteq	r0, r3, lsl r0
    5b04:	00017e05 	andeq	r7, r1, r5, lsl #28
    5b08:	00a2d000 	adceq	sp, r2, r0
    5b0c:	00002800 	andeq	r2, r0, r0, lsl #16
    5b10:	7e9c0100 	fmlvce	f0, f4, f0
    5b14:	0c000001 	stceq	0, cr0, [r0], {1}
    5b18:	06010063 	streq	r0, [r1], -r3, rrx
    5b1c:	0000017e 	andeq	r0, r0, lr, ror r1
    5b20:	09000000 	stmdbeq	r0, {}	; <UNPREDICTABLE>
    5b24:	00a2e40d 	adceq	lr, r2, sp, lsl #8
    5b28:	0001ab00 	andeq	sl, r1, r0, lsl #22
    5b2c:	52010e00 	andpl	r0, r1, #0, 28
    5b30:	010e3401 	tsteq	lr, r1, lsl #8
    5b34:	0e300151 	mrceq	1, 1, r0, cr0, cr1, {2}
    5b38:	42035001 	andmi	r5, r3, #1
    5b3c:	00002447 	andeq	r2, r0, r7, asr #8
    5b40:	0131040f 	teqeq	r1, pc, lsl #8
    5b44:	4c0b0000 	stcmi	0, cr0, [fp], {-0}
    5b48:	01000006 	tsteq	r0, r6
    5b4c:	00017e0c 	andeq	r7, r1, ip, lsl #28
    5b50:	00a2f800 	adceq	pc, r2, r0, lsl #16
    5b54:	00002800 	andeq	r2, r0, r0, lsl #16
    5b58:	ab9c0100 	blge	fe705f60 <__bss_end__+0xfe6fa0a0>
    5b5c:	0c000001 	stceq	0, cr0, [r0], {1}
    5b60:	0d010063 	stceq	0, cr0, [r1, #-396]	; 0xfffffe74
    5b64:	0000017e 	andeq	r0, r0, lr, ror r1
    5b68:	09000000 	stmdbeq	r0, {}	; <UNPREDICTABLE>
    5b6c:	12621000 	rsbne	r1, r2, #0
    5b70:	1b060000 	blne	185b78 <__bss_end__+0x179cb8>
    5b74:	00000093 	muleq	r0, r3, r0
    5b78:	00009311 	andeq	r9, r0, r1, lsl r3
    5b7c:	00251100 	eoreq	r1, r5, r0, lsl #2
    5b80:	2c110000 	ldccs	0, cr0, [r1], {-0}
    5b84:	00000000 	andeq	r0, r0, r0
	...

Disassembly of section .debug_abbrev:

00000000 <.debug_abbrev>:
       0:	25011101 	strcs	r1, [r1, #-257]	; 0x101
       4:	030b130e 	movweq	r1, #45838	; 0xb30e
       8:	110e1b0e 	tstne	lr, lr, lsl #22
       c:	10061201 	andne	r1, r6, r1, lsl #4
      10:	02000017 	andeq	r0, r0, #23
      14:	0b0b0024 	bleq	2c00ac <__bss_end__+0x2b41ec>
      18:	08030b3e 	stmdaeq	r3, {r1, r2, r3, r4, r5, r8, r9, fp}
      1c:	24030000 	strcs	r0, [r3], #-0
      20:	3e0b0b00 	vmlacc.f64	d0, d11, d0
      24:	000e030b 	andeq	r0, lr, fp, lsl #6
      28:	00160400 	andseq	r0, r6, r0, lsl #8
      2c:	0b3a0e03 	bleq	e83840 <__bss_end__+0xe77980>
      30:	13490b3b 	movtne	r0, #39739	; 0x9b3b
      34:	0f050000 	svceq	0x00050000
      38:	000b0b00 	andeq	r0, fp, r0, lsl #22
      3c:	000f0600 	andeq	r0, pc, r0, lsl #12
      40:	13490b0b 	movtne	r0, #39691	; 0x9b0b
      44:	26070000 	strcs	r0, [r7], -r0
      48:	00134900 	andseq	r4, r3, r0, lsl #18
      4c:	01010800 	tsteq	r1, r0, lsl #16
      50:	13011349 	movwne	r1, #4937	; 0x1349
      54:	21090000 	mrscs	r0, (UNDEF: 9)
      58:	2f134900 	svccs	0x00134900
      5c:	0a00000b 	beq	90 <_start-0x7f70>
      60:	0b0b0104 	bleq	2c0478 <__bss_end__+0x2b45b8>
      64:	0b3b0b3a 	bleq	ec2d54 <__bss_end__+0xeb6e94>
      68:	00001301 	andeq	r1, r0, r1, lsl #6
      6c:	0300280b 	movweq	r2, #2059	; 0x80b
      70:	000d1c0e 	andeq	r1, sp, lr, lsl #24
      74:	012e0c00 	teqeq	lr, r0, lsl #24
      78:	0b3a0e03 	bleq	e8388c <__bss_end__+0xe779cc>
      7c:	19270b3b 	stmdbne	r7!, {r0, r1, r3, r4, r5, r8, r9, fp}
      80:	06120111 			; <UNDEFINED> instruction: 0x06120111
      84:	42971840 	addsmi	r1, r7, #64, 16	; 0x400000
      88:	00130119 	andseq	r0, r3, r9, lsl r1
      8c:	00050d00 	andeq	r0, r5, r0, lsl #26
      90:	0b3a0e03 	bleq	e838a4 <__bss_end__+0xe779e4>
      94:	13490b3b 	movtne	r0, #39739	; 0x9b3b
      98:	00001702 	andeq	r1, r0, r2, lsl #14
      9c:	0300050e 	movweq	r0, #1294	; 0x50e
      a0:	3b0b3a08 	blcc	2ce8c8 <__bss_end__+0x2c2a08>
      a4:	0213490b 	andseq	r4, r3, #180224	; 0x2c000
      a8:	0f000017 	svceq	0x00000017
      ac:	08030034 	stmdaeq	r3, {r2, r4, r5}
      b0:	0b3b0b3a 	bleq	ec2da0 <__bss_end__+0xeb6ee0>
      b4:	17021349 	strne	r1, [r2, -r9, asr #6]
      b8:	0b100000 	bleq	4000c0 <__bss_end__+0x3f4200>
      bc:	12011101 	andne	r1, r1, #1073741824	; 0x40000000
      c0:	11000006 	tstne	r0, r6
      c4:	00018289 	andeq	r8, r1, r9, lsl #5
      c8:	13310111 	teqne	r1, #1073741828	; 0x40000004
      cc:	2e120000 	cdpcs	0, 1, cr0, cr2, cr0, {0}
      d0:	3a0e0301 	bcc	380cdc <__bss_end__+0x374e1c>
      d4:	270b3b0b 	strcs	r3, [fp, -fp, lsl #22]
      d8:	11134919 	tstne	r3, r9, lsl r9
      dc:	40061201 	andmi	r1, r6, r1, lsl #4
      e0:	19429718 	stmdbne	r2, {r3, r4, r8, r9, sl, ip, pc}^
      e4:	00001301 	andeq	r1, r0, r1, lsl #6
      e8:	03003413 	movweq	r3, #1043	; 0x413
      ec:	3b0b3a08 	blcc	2ce914 <__bss_end__+0x2c2a54>
      f0:	0213490b 	andseq	r4, r3, #180224	; 0x2c000
      f4:	14000018 	strne	r0, [r0], #-24
      f8:	01018289 	smlabbeq	r1, r9, r2, r8
      fc:	13310111 	teqne	r1, #1073741828	; 0x40000004
     100:	8a150000 	bhi	540108 <__bss_end__+0x534248>
     104:	02000182 	andeq	r0, r0, #-2147483616	; 0x80000020
     108:	18429118 	stmdane	r2, {r3, r4, r8, ip, pc}^
     10c:	89160000 	ldmdbhi	r6, {}	; <UNPREDICTABLE>
     110:	11010182 	smlabbne	r1, r2, r1, r0
     114:	01133101 	tsteq	r3, r1, lsl #2
     118:	17000013 	smladne	r0, r3, r0, r0
     11c:	00000026 	andeq	r0, r0, r6, lsr #32
     120:	3f012e18 	svccc	0x00012e18
     124:	3a0e0319 	bcc	380d90 <__bss_end__+0x374ed0>
     128:	270b3b0b 	strcs	r3, [fp, -fp, lsl #22]
     12c:	12011119 	andne	r1, r1, #1073741830	; 0x40000006
     130:	97184006 	ldrls	r4, [r8, -r6]
     134:	13011942 	movwne	r1, #6466	; 0x1942
     138:	34190000 	ldrcc	r0, [r9], #-0
     13c:	490e0300 	stmdbmi	lr, {r8, r9}
     140:	02193413 	andseq	r3, r9, #318767104	; 0x13000000
     144:	1a000018 	bne	1ac <_start-0x7e54>
     148:	0111010b 	tsteq	r1, fp, lsl #2
     14c:	13010612 	movwne	r0, #5650	; 0x1612
     150:	341b0000 	ldrcc	r0, [fp], #-0
     154:	3a0e0300 	bcc	380d5c <__bss_end__+0x374e9c>
     158:	490b3b0b 	stmdbmi	fp, {r0, r1, r3, r8, r9, fp, ip, sp}
     15c:	00170213 	andseq	r0, r7, r3, lsl r2
     160:	00341c00 	eorseq	r1, r4, r0, lsl #24
     164:	0b3a0e03 	bleq	e83978 <__bss_end__+0xe77ab8>
     168:	13490b3b 	movtne	r0, #39739	; 0x9b3b
     16c:	1802193f 	stmdane	r2, {r0, r1, r2, r3, r4, r5, r8, fp, ip}
     170:	2e1d0000 	cdpcs	0, 1, cr0, cr13, cr0, {0}
     174:	03193f00 	tsteq	r9, #0, 30
     178:	3b0b3a0e 	blcc	2ce9b8 <__bss_end__+0x2c2af8>
     17c:	4919270b 	ldmdbmi	r9, {r0, r1, r3, r8, r9, sl, sp}
     180:	00193c13 	andseq	r3, r9, r3, lsl ip
     184:	012e1e00 	teqeq	lr, r0, lsl #28
     188:	0e03193f 	mcreq	9, 0, r1, cr3, cr15, {1}
     18c:	0b3b0b3a 	bleq	ec2e7c <__bss_end__+0xeb6fbc>
     190:	13491927 	movtne	r1, #39207	; 0x9927
     194:	1301193c 	movwne	r1, #6460	; 0x193c
     198:	051f0000 	ldreq	r0, [pc, #-0]	; 1a0 <_start-0x7e60>
     19c:	00134900 	andseq	r4, r3, r0, lsl #18
     1a0:	00182000 	andseq	r2, r8, r0
     1a4:	2e210000 	cdpcs	0, 2, cr0, cr1, cr0, {0}
     1a8:	03193f01 	tsteq	r9, #1, 30
     1ac:	3b0b3a0e 	blcc	2ce9ec <__bss_end__+0x2c2b2c>
     1b0:	3c19270b 	ldccc	7, cr2, [r9], {11}
     1b4:	00130119 	andseq	r0, r3, r9, lsl r1
     1b8:	002e2200 	eoreq	r2, lr, r0, lsl #4
     1bc:	0e03193f 	mcreq	9, 0, r1, cr3, cr15, {1}
     1c0:	0b3b0b3a 	bleq	ec2eb0 <__bss_end__+0xeb6ff0>
     1c4:	193c1927 	ldmdbne	ip!, {r0, r1, r2, r5, r8, fp, ip}
     1c8:	15230000 	strne	r0, [r3, #-0]!
     1cc:	49192701 	ldmdbmi	r9, {r0, r8, r9, sl, sp}
     1d0:	00000013 	andeq	r0, r0, r3, lsl r0
     1d4:	25011101 	strcs	r1, [r1, #-257]	; 0x101
     1d8:	030b130e 	movweq	r1, #45838	; 0xb30e
     1dc:	110e1b0e 	tstne	lr, lr, lsl #22
     1e0:	10061201 	andne	r1, r6, r1, lsl #4
     1e4:	02000017 	andeq	r0, r0, #23
     1e8:	0e030016 	mcreq	0, 0, r0, cr3, cr6, {0}
     1ec:	0b3b0b3a 	bleq	ec2edc <__bss_end__+0xeb701c>
     1f0:	00001349 	andeq	r1, r0, r9, asr #6
     1f4:	03011303 	movweq	r1, #4867	; 0x1303
     1f8:	3a0b0b0e 	bcc	2c2e38 <__bss_end__+0x2b6f78>
     1fc:	010b3b0b 	tsteq	fp, fp, lsl #22
     200:	04000013 	streq	r0, [r0], #-19
     204:	0e03000d 	cdpeq	0, 0, cr0, cr3, cr13, {0}
     208:	0b381349 	bleq	e04f34 <__bss_end__+0xdf9074>
     20c:	00001934 	andeq	r1, r0, r4, lsr r9
     210:	0b000f05 	bleq	3e2c <_start-0x41d4>
     214:	0600000b 	streq	r0, [r0], -fp
     218:	0b0b0024 	bleq	2c02b0 <__bss_end__+0x2b43f0>
     21c:	08030b3e 	stmdaeq	r3, {r1, r2, r3, r4, r5, r8, r9, fp}
     220:	24070000 	strcs	r0, [r7], #-0
     224:	3e0b0b00 	vmlacc.f64	d0, d11, d0
     228:	000e030b 	andeq	r0, lr, fp, lsl #6
     22c:	000f0800 	andeq	r0, pc, r0, lsl #16
     230:	13490b0b 	movtne	r0, #39691	; 0x9b0b
     234:	26090000 	strcs	r0, [r9], -r0
     238:	00134900 	andseq	r4, r3, r0, lsl #18
     23c:	012e0a00 	teqeq	lr, r0, lsl #20
     240:	0e03193f 	mcreq	9, 0, r1, cr3, cr15, {1}
     244:	0b3b0b3a 	bleq	ec2f34 <__bss_end__+0xeb7074>
     248:	13491927 	movtne	r1, #39207	; 0x9927
     24c:	06120111 			; <UNDEFINED> instruction: 0x06120111
     250:	42971840 	addsmi	r1, r7, #64, 16	; 0x400000
     254:	00130119 	andseq	r0, r3, r9, lsl r1
     258:	00050b00 	andeq	r0, r5, r0, lsl #22
     25c:	0b3a0803 	bleq	e82270 <__bss_end__+0xe763b0>
     260:	13490b3b 	movtne	r0, #39739	; 0x9b3b
     264:	00001802 	andeq	r1, r0, r2, lsl #16
     268:	0000180c 	andeq	r1, r0, ip, lsl #16
     26c:	00340d00 	eorseq	r0, r4, r0, lsl #26
     270:	0b3a0803 	bleq	e82284 <__bss_end__+0xe763c4>
     274:	13490b3b 	movtne	r0, #39739	; 0x9b3b
     278:	00001802 	andeq	r1, r0, r2, lsl #16
     27c:	0300340e 	movweq	r3, #1038	; 0x40e
     280:	3b0b3a0e 	blcc	2ceac0 <__bss_end__+0x2c2c00>
     284:	0213490b 	andseq	r4, r3, #180224	; 0x2c000
     288:	0f000018 	svceq	0x00000018
     28c:	08030034 	stmdaeq	r3, {r2, r4, r5}
     290:	0b3b0b3a 	bleq	ec2f80 <__bss_end__+0xeb70c0>
     294:	17021349 	strne	r1, [r2, -r9, asr #6]
     298:	89100000 	ldmdbhi	r0, {}	; <UNPREDICTABLE>
     29c:	11010182 	smlabbne	r1, r2, r1, r0
     2a0:	01133101 	tsteq	r3, r1, lsl #2
     2a4:	11000013 	tstne	r0, r3, lsl r0
     2a8:	0001828a 	andeq	r8, r1, sl, lsl #5
     2ac:	42911802 	addsmi	r1, r1, #131072	; 0x20000
     2b0:	12000018 	andne	r0, r0, #24
     2b4:	01018289 	smlabbeq	r1, r9, r2, r8
     2b8:	00000111 	andeq	r0, r0, r1, lsl r1
     2bc:	49010113 	stmdbmi	r1, {r0, r1, r4, r8}
     2c0:	00130113 	andseq	r0, r3, r3, lsl r1
     2c4:	00211400 	eoreq	r1, r1, r0, lsl #8
     2c8:	052f1349 	streq	r1, [pc, #-841]!	; ffffff87 <__bss_end__+0xffff40c7>
     2cc:	15150000 	ldrne	r0, [r5, #-0]
     2d0:	49192701 	ldmdbmi	r9, {r0, r8, r9, sl, sp}
     2d4:	00130113 	andseq	r0, r3, r3, lsl r1
     2d8:	00051600 	andeq	r1, r5, r0, lsl #12
     2dc:	00001349 	andeq	r1, r0, r9, asr #6
     2e0:	03003417 	movweq	r3, #1047	; 0x417
     2e4:	3b0b3a0e 	blcc	2ceb24 <__bss_end__+0x2c2c64>
     2e8:	3f13490b 	svccc	0x0013490b
     2ec:	00193c19 	andseq	r3, r9, r9, lsl ip
     2f0:	012e1800 	teqeq	lr, r0, lsl #16
     2f4:	0e03193f 	mcreq	9, 0, r1, cr3, cr15, {1}
     2f8:	0b3b0b3a 	bleq	ec2fe8 <__bss_end__+0xeb7128>
     2fc:	13491927 	movtne	r1, #39207	; 0x9927
     300:	0000193c 	andeq	r1, r0, ip, lsr r9
     304:	01110100 	tsteq	r1, r0, lsl #2
     308:	0b130e25 	bleq	4c3ba4 <__bss_end__+0x4b7ce4>
     30c:	0e1b0e03 	cdpeq	14, 1, cr0, cr11, cr3, {0}
     310:	06120111 			; <UNDEFINED> instruction: 0x06120111
     314:	00001710 	andeq	r1, r0, r0, lsl r7
     318:	0b002402 	bleq	9328 <sw_uart_gets_until+0x2c>
     31c:	030b3e0b 	movweq	r3, #48651	; 0xbe0b
     320:	03000008 	movweq	r0, #8
     324:	0b0b0024 	bleq	2c03bc <__bss_end__+0x2b44fc>
     328:	0e030b3e 	vmoveq.16	d3[0], r0
     32c:	2e040000 	cdpcs	0, 0, cr0, cr4, cr0, {0}
     330:	3a0e0301 	bcc	380f3c <__bss_end__+0x37507c>
     334:	270b3b0b 	strcs	r3, [fp, -fp, lsl #22]
     338:	11134919 	tstne	r3, r9, lsl r9
     33c:	40061201 	andmi	r1, r6, r1, lsl #4
     340:	19429718 	stmdbne	r2, {r3, r4, r8, r9, sl, ip, pc}^
     344:	00001301 	andeq	r1, r0, r1, lsl #6
     348:	03000505 	movweq	r0, #1285	; 0x505
     34c:	3b0b3a08 	blcc	2ceb74 <__bss_end__+0x2c2cb4>
     350:	0213490b 	andseq	r4, r3, #180224	; 0x2c000
     354:	06000017 			; <UNDEFINED> instruction: 0x06000017
     358:	01018289 	smlabbeq	r1, r9, r2, r8
     35c:	13310111 	teqne	r1, #1073741828	; 0x40000004
     360:	8a070000 	bhi	1c0368 <__bss_end__+0x1b44a8>
     364:	02000182 	andeq	r0, r0, #-2147483616	; 0x80000020
     368:	18429118 	stmdane	r2, {r3, r4, r8, ip, pc}^
     36c:	2e080000 	cdpcs	0, 0, cr0, cr8, cr0, {0}
     370:	03193f00 	tsteq	r9, #0, 30
     374:	3b0b3a0e 	blcc	2cebb4 <__bss_end__+0x2c2cf4>
     378:	1119270b 	tstne	r9, fp, lsl #14
     37c:	40061201 	andmi	r1, r6, r1, lsl #4
     380:	19429718 	stmdbne	r2, {r3, r4, r8, r9, sl, ip, pc}^
     384:	2e090000 	cdpcs	0, 0, cr0, cr9, cr0, {0}
     388:	03193f01 	tsteq	r9, #1, 30
     38c:	3b0b3a0e 	blcc	2cebcc <__bss_end__+0x2c2d0c>
     390:	1119270b 	tstne	r9, fp, lsl #14
     394:	40061201 	andmi	r1, r6, r1, lsl #4
     398:	19429718 	stmdbne	r2, {r3, r4, r8, r9, sl, ip, pc}^
     39c:	00001301 	andeq	r1, r0, r1, lsl #6
     3a0:	0300050a 	movweq	r0, #1290	; 0x50a
     3a4:	3b0b3a08 	blcc	2cebcc <__bss_end__+0x2c2d0c>
     3a8:	0213490b 	andseq	r4, r3, #180224	; 0x2c000
     3ac:	0b000018 	bleq	414 <_start-0x7bec>
     3b0:	19270115 	stmdbne	r7!, {r0, r2, r4, r8}
     3b4:	13011349 	movwne	r1, #4937	; 0x1349
     3b8:	050c0000 	streq	r0, [ip, #-0]
     3bc:	00134900 	andseq	r4, r3, r0, lsl #18
     3c0:	000f0d00 	andeq	r0, pc, r0, lsl #26
     3c4:	13490b0b 	movtne	r0, #39691	; 0x9b0b
     3c8:	340e0000 	strcc	r0, [lr], #-0
     3cc:	3a0e0300 	bcc	380fd4 <__bss_end__+0x375114>
     3d0:	490b3b0b 	stmdbmi	fp, {r0, r1, r3, r8, r9, fp, ip, sp}
     3d4:	02193f13 	andseq	r3, r9, #19, 30	; 0x4c
     3d8:	0f000018 	svceq	0x00000018
     3dc:	193f012e 	ldmdbne	pc!, {r1, r2, r3, r5, r8}	; <UNPREDICTABLE>
     3e0:	0b3a0e03 	bleq	e83bf4 <__bss_end__+0xe77d34>
     3e4:	19270b3b 	stmdbne	r7!, {r0, r1, r3, r4, r5, r8, r9, fp}
     3e8:	0000193c 	andeq	r1, r0, ip, lsr r9
     3ec:	01110100 	tsteq	r1, r0, lsl #2
     3f0:	0b130e25 	bleq	4c3c8c <__bss_end__+0x4b7dcc>
     3f4:	0e1b0e03 	cdpeq	14, 1, cr0, cr11, cr3, {0}
     3f8:	06120111 			; <UNDEFINED> instruction: 0x06120111
     3fc:	00001710 	andeq	r1, r0, r0, lsl r7
     400:	0b002402 	bleq	9410 <sw_uart_init_helper+0x8>
     404:	030b3e0b 	movweq	r3, #48651	; 0xbe0b
     408:	03000008 	movweq	r0, #8
     40c:	0b0b0024 	bleq	2c04a4 <__bss_end__+0x2b45e4>
     410:	0e030b3e 	vmoveq.16	d3[0], r0
     414:	0f040000 	svceq	0x00040000
     418:	490b0b00 	stmdbmi	fp, {r8, r9, fp}
     41c:	05000013 	streq	r0, [r0, #-19]
     420:	13490026 	movtne	r0, #36902	; 0x9026
     424:	2e060000 	cdpcs	0, 0, cr0, cr6, cr0, {0}
     428:	03193f01 	tsteq	r9, #1, 30
     42c:	3b0b3a0e 	blcc	2cec6c <__bss_end__+0x2c2dac>
     430:	4919270b 	ldmdbmi	r9, {r0, r1, r3, r8, r9, sl, sp}
     434:	12011113 	andne	r1, r1, #-1073741820	; 0xc0000004
     438:	96184006 	ldrls	r4, [r8], -r6
     43c:	13011942 	movwne	r1, #6466	; 0x1942
     440:	05070000 	streq	r0, [r7, #-0]
     444:	3a080300 	bcc	20104c <__bss_end__+0x1f518c>
     448:	490b3b0b 	stmdbmi	fp, {r0, r1, r3, r8, r9, fp, ip, sp}
     44c:	00170213 	andseq	r0, r7, r3, lsl r2
     450:	01150800 	tsteq	r5, r0, lsl #16
     454:	13491927 	movtne	r1, #39207	; 0x9927
     458:	00001301 	andeq	r1, r0, r1, lsl #6
     45c:	49000509 	stmdbmi	r0, {r0, r3, r8, sl}
     460:	0a000013 	beq	4b4 <_start-0x7b4c>
     464:	0e030034 	mcreq	0, 0, r0, cr3, cr4, {1}
     468:	0b3b0b3a 	bleq	ec3158 <__bss_end__+0xeb7298>
     46c:	193f1349 	ldmdbne	pc!, {r0, r3, r6, r8, r9, ip}	; <UNPREDICTABLE>
     470:	0000193c 	andeq	r1, r0, ip, lsr r9
     474:	0300340b 	movweq	r3, #1035	; 0x40b
     478:	3b0b3a0e 	blcc	2cecb8 <__bss_end__+0x2c2df8>
     47c:	3f13490b 	svccc	0x0013490b
     480:	00180219 	andseq	r0, r8, r9, lsl r2
     484:	11010000 	mrsne	r0, (UNDEF: 1)
     488:	130e2501 	movwne	r2, #58625	; 0xe501
     48c:	1b0e030b 	blne	3810c0 <__bss_end__+0x375200>
     490:	1201110e 	andne	r1, r1, #-2147483645	; 0x80000003
     494:	00171006 	andseq	r1, r7, r6
     498:	00240200 	eoreq	r0, r4, r0, lsl #4
     49c:	0b3e0b0b 	bleq	f830d0 <__bss_end__+0xf77210>
     4a0:	00000803 	andeq	r0, r0, r3, lsl #16
     4a4:	0b002403 	bleq	94b8 <sw_uart_init_helper+0xb0>
     4a8:	030b3e0b 	movweq	r3, #48651	; 0xbe0b
     4ac:	0400000e 	streq	r0, [r0], #-14
     4b0:	0b0b000f 	bleq	2c04f4 <__bss_end__+0x2b4634>
     4b4:	0f050000 	svceq	0x00050000
     4b8:	490b0b00 	stmdbmi	fp, {r8, r9, fp}
     4bc:	06000013 			; <UNDEFINED> instruction: 0x06000013
     4c0:	13490026 	movtne	r0, #36902	; 0x9026
     4c4:	16070000 	strne	r0, [r7], -r0
     4c8:	3a0e0300 	bcc	3810d0 <__bss_end__+0x375210>
     4cc:	490b3b0b 	stmdbmi	fp, {r0, r1, r3, r8, r9, fp, ip, sp}
     4d0:	08000013 	stmdaeq	r0, {r0, r1, r4}
     4d4:	0e030113 	mcreq	1, 0, r0, cr3, cr3, {0}
     4d8:	0b3a0b0b 	bleq	e8310c <__bss_end__+0xe7724c>
     4dc:	13010b3b 	movwne	r0, #6971	; 0x1b3b
     4e0:	0d090000 	stceq	0, cr0, [r9, #-0]
     4e4:	490e0300 	stmdbmi	lr, {r8, r9}
     4e8:	340b3813 	strcc	r3, [fp], #-2067	; 0x813
     4ec:	0a000019 	beq	558 <_start-0x7aa8>
     4f0:	0e03012e 	adfeqsp	f0, f3, #0.5
     4f4:	0b3b0b3a 	bleq	ec31e4 <__bss_end__+0xeb7324>
     4f8:	13491927 	movtne	r1, #39207	; 0x9927
     4fc:	06120111 			; <UNDEFINED> instruction: 0x06120111
     500:	42971840 	addsmi	r1, r7, #64, 16	; 0x400000
     504:	00130119 	andseq	r0, r3, r9, lsl r1
     508:	00050b00 	andeq	r0, r5, r0, lsl #22
     50c:	0b3a0803 	bleq	e82520 <__bss_end__+0xe76660>
     510:	13490b3b 	movtne	r0, #39739	; 0x9b3b
     514:	00001702 	andeq	r1, r0, r2, lsl #14
     518:	03012e0c 	movweq	r2, #7692	; 0x1e0c
     51c:	3b0b3a08 	blcc	2ced44 <__bss_end__+0x2c2e84>
     520:	4919270b 	ldmdbmi	r9, {r0, r1, r3, r8, r9, sl, sp}
     524:	12011113 	andne	r1, r1, #-1073741820	; 0xc0000004
     528:	97184006 	ldrls	r4, [r8, -r6]
     52c:	13011942 	movwne	r1, #6466	; 0x1942
     530:	050d0000 	streq	r0, [sp, #-0]
     534:	3a0e0300 	bcc	38113c <__bss_end__+0x37527c>
     538:	490b3b0b 	stmdbmi	fp, {r0, r1, r3, r8, r9, fp, ip, sp}
     53c:	00170213 	andseq	r0, r7, r3, lsl r2
     540:	00050e00 	andeq	r0, r5, r0, lsl #28
     544:	0b3a0e03 	bleq	e83d58 <__bss_end__+0xe77e98>
     548:	13490b3b 	movtne	r0, #39739	; 0x9b3b
     54c:	00001802 	andeq	r1, r0, r2, lsl #16
     550:	0300340f 	movweq	r3, #1039	; 0x40f
     554:	3b0b3a08 	blcc	2ced7c <__bss_end__+0x2c2ebc>
     558:	0213490b 	andseq	r4, r3, #180224	; 0x2c000
     55c:	10000018 	andne	r0, r0, r8, lsl r0
     560:	08030034 	stmdaeq	r3, {r2, r4, r5}
     564:	0b3b0b3a 	bleq	ec3254 <__bss_end__+0xeb7394>
     568:	17021349 	strne	r1, [r2, -r9, asr #6]
     56c:	34110000 	ldrcc	r0, [r1], #-0
     570:	490e0300 	stmdbmi	lr, {r8, r9}
     574:	02193413 	andseq	r3, r9, #318767104	; 0x13000000
     578:	12000018 	andne	r0, r0, #24
     57c:	0111010b 	tsteq	r1, fp, lsl #2
     580:	13010612 	movwne	r0, #5650	; 0x1612
     584:	34130000 	ldrcc	r0, [r3], #-0
     588:	3a0e0300 	bcc	381190 <__bss_end__+0x3752d0>
     58c:	490b3b0b 	stmdbmi	fp, {r0, r1, r3, r8, r9, fp, ip, sp}
     590:	00170213 	andseq	r0, r7, r3, lsl r2
     594:	82891400 	addhi	r1, r9, #0, 8
     598:	01110001 	tsteq	r1, r1
     59c:	00001331 	andeq	r1, r0, r1, lsr r3
     5a0:	01828915 	orreq	r8, r2, r5, lsl r9
     5a4:	31011101 	tstcc	r1, r1, lsl #2
     5a8:	00130113 	andseq	r0, r3, r3, lsl r1
     5ac:	828a1600 	addhi	r1, sl, #0, 12
     5b0:	18020001 	stmdane	r2, {r0}
     5b4:	00184291 	mulseq	r8, r1, r2
     5b8:	82891700 	addhi	r1, r9, #0, 14
     5bc:	01110101 	tsteq	r1, r1, lsl #2
     5c0:	00001331 	andeq	r1, r0, r1, lsr r3
     5c4:	49010118 	stmdbmi	r1, {r3, r4, r8}
     5c8:	00130113 	andseq	r0, r3, r3, lsl r1
     5cc:	00211900 	eoreq	r1, r1, r0, lsl #18
     5d0:	0b2f1349 	bleq	bc52fc <__bss_end__+0xbb943c>
     5d4:	2e1a0000 	cdpcs	0, 1, cr0, cr10, cr0, {0}
     5d8:	03193f01 	tsteq	r9, #1, 30
     5dc:	3b0b3a0e 	blcc	2cee1c <__bss_end__+0x2c2f5c>
     5e0:	1119270b 	tstne	r9, fp, lsl #14
     5e4:	40061201 	andmi	r1, r6, r1, lsl #4
     5e8:	19429718 	stmdbne	r2, {r3, r4, r8, r9, sl, ip, pc}^
     5ec:	00001301 	andeq	r1, r0, r1, lsl #6
     5f0:	2701151b 	smladcs	r1, fp, r5, r1
     5f4:	01134919 	tsteq	r3, r9, lsl r9
     5f8:	1c000013 	stcne	0, cr0, [r0], {19}
     5fc:	13490005 	movtne	r0, #36869	; 0x9005
     600:	2e1d0000 	cdpcs	0, 1, cr0, cr13, cr0, {0}
     604:	03193f01 	tsteq	r9, #1, 30
     608:	3b0b3a0e 	blcc	2cee48 <__bss_end__+0x2c2f88>
     60c:	4919270b 	ldmdbmi	r9, {r0, r1, r3, r8, r9, sl, sp}
     610:	12011113 	andne	r1, r1, #-1073741820	; 0xc0000004
     614:	97184006 	ldrls	r4, [r8, -r6]
     618:	13011942 	movwne	r1, #6466	; 0x1942
     61c:	0b1e0000 	bleq	780624 <__bss_end__+0x774764>
     620:	00175501 	andseq	r5, r7, r1, lsl #10
     624:	00341f00 	eorseq	r1, r4, r0, lsl #30
     628:	0b3a0e03 	bleq	e83e3c <__bss_end__+0xe77f7c>
     62c:	13490b3b 	movtne	r0, #39739	; 0x9b3b
     630:	193c193f 	ldmdbne	ip!, {r0, r1, r2, r3, r4, r5, r8, fp, ip}
     634:	2e200000 	cdpcs	0, 2, cr0, cr0, cr0, {0}
     638:	03193f00 	tsteq	r9, #0, 30
     63c:	3b0b3a0e 	blcc	2cee7c <__bss_end__+0x2c2fbc>
     640:	3c19270b 	ldccc	7, cr2, [r9], {11}
     644:	21000019 	tstcs	r0, r9, lsl r0
     648:	193f012e 	ldmdbne	pc!, {r1, r2, r3, r5, r8}	; <UNPREDICTABLE>
     64c:	0b3a0e03 	bleq	e83e60 <__bss_end__+0xe77fa0>
     650:	19270b3b 	stmdbne	r7!, {r0, r1, r3, r4, r5, r8, r9, fp}
     654:	193c1349 	ldmdbne	ip!, {r0, r3, r6, r8, r9, ip}
     658:	00001301 	andeq	r1, r0, r1, lsl #6
     65c:	00001822 	andeq	r1, r0, r2, lsr #16
     660:	11010000 	mrsne	r0, (UNDEF: 1)
     664:	130e2501 	movwne	r2, #58625	; 0xe501
     668:	1b0e030b 	blne	38129c <__bss_end__+0x3753dc>
     66c:	1201110e 	andne	r1, r1, #-2147483645	; 0x80000003
     670:	00171006 	andseq	r1, r7, r6
     674:	00240200 	eoreq	r0, r4, r0, lsl #4
     678:	0b3e0b0b 	bleq	f832ac <__bss_end__+0xf773ec>
     67c:	00000803 	andeq	r0, r0, r3, lsl #16
     680:	0b002403 	bleq	9694 <uart_init+0x94>
     684:	030b3e0b 	movweq	r3, #48651	; 0xbe0b
     688:	0400000e 	streq	r0, [r0], #-14
     68c:	0b0b000f 	bleq	2c06d0 <__bss_end__+0x2b4810>
     690:	00001349 	andeq	r1, r0, r9, asr #6
     694:	49002605 	stmdbmi	r0, {r0, r2, r9, sl, sp}
     698:	06000013 			; <UNDEFINED> instruction: 0x06000013
     69c:	193f012e 	ldmdbne	pc!, {r1, r2, r3, r5, r8}	; <UNPREDICTABLE>
     6a0:	0b3a0e03 	bleq	e83eb4 <__bss_end__+0xe77ff4>
     6a4:	19270b3b 	stmdbne	r7!, {r0, r1, r3, r4, r5, r8, r9, fp}
     6a8:	06120111 			; <UNDEFINED> instruction: 0x06120111
     6ac:	42971840 	addsmi	r1, r7, #64, 16	; 0x400000
     6b0:	00130119 	andseq	r0, r3, r9, lsl r1
     6b4:	82890700 	addhi	r0, r9, #0, 14
     6b8:	01110101 	tsteq	r1, r1, lsl #2
     6bc:	00001301 	andeq	r1, r0, r1, lsl #6
     6c0:	01828a08 	orreq	r8, r2, r8, lsl #20
     6c4:	91180200 	tstls	r8, r0, lsl #4
     6c8:	00001842 	andeq	r1, r0, r2, asr #16
     6cc:	01828909 	orreq	r8, r2, r9, lsl #18
     6d0:	31011101 	tstcc	r1, r1, lsl #2
     6d4:	00130113 	andseq	r0, r3, r3, lsl r1
     6d8:	82890a00 	addhi	r0, r9, #0, 20
     6dc:	01110001 	tsteq	r1, r1
     6e0:	00001331 	andeq	r1, r0, r1, lsr r3
     6e4:	2701150b 	strcs	r1, [r1, -fp, lsl #10]
     6e8:	01134919 	tsteq	r3, r9, lsl r9
     6ec:	0c000013 	stceq	0, cr0, [r0], {19}
     6f0:	13490005 	movtne	r0, #36869	; 0x9005
     6f4:	340d0000 	strcc	r0, [sp], #-0
     6f8:	3a0e0300 	bcc	381300 <__bss_end__+0x375440>
     6fc:	490b3b0b 	stmdbmi	fp, {r0, r1, r3, r8, r9, fp, ip, sp}
     700:	3c193f13 	ldccc	15, cr3, [r9], {19}
     704:	0e000019 	mcreq	0, 0, r0, cr0, cr9, {0}
     708:	193f012e 	ldmdbne	pc!, {r1, r2, r3, r5, r8}	; <UNPREDICTABLE>
     70c:	0b3a0e03 	bleq	e83f20 <__bss_end__+0xe78060>
     710:	19270b3b 	stmdbne	r7!, {r0, r1, r3, r4, r5, r8, r9, fp}
     714:	1301193c 	movwne	r1, #6460	; 0x193c
     718:	2e0f0000 	cdpcs	0, 0, cr0, cr15, cr0, {0}
     71c:	03193f00 	tsteq	r9, #0, 30
     720:	3b0b3a0e 	blcc	2cef60 <__bss_end__+0x2c30a0>
     724:	3c19270b 	ldccc	7, cr2, [r9], {11}
     728:	00000019 	andeq	r0, r0, r9, lsl r0
     72c:	25011101 	strcs	r1, [r1, #-257]	; 0x101
     730:	030b130e 	movweq	r1, #45838	; 0xb30e
     734:	110e1b0e 	tstne	lr, lr, lsl #22
     738:	10061201 	andne	r1, r6, r1, lsl #4
     73c:	02000017 	andeq	r0, r0, #23
     740:	0b0b0024 	bleq	2c07d8 <__bss_end__+0x2b4918>
     744:	08030b3e 	stmdaeq	r3, {r1, r2, r3, r4, r5, r8, r9, fp}
     748:	24030000 	strcs	r0, [r3], #-0
     74c:	3e0b0b00 	vmlacc.f64	d0, d11, d0
     750:	000e030b 	andeq	r0, lr, fp, lsl #6
     754:	00160400 	andseq	r0, r6, r0, lsl #8
     758:	0b3a0e03 	bleq	e83f6c <__bss_end__+0xe780ac>
     75c:	13490b3b 	movtne	r0, #39739	; 0x9b3b
     760:	0f050000 	svceq	0x00050000
     764:	490b0b00 	stmdbmi	fp, {r8, r9, fp}
     768:	06000013 			; <UNDEFINED> instruction: 0x06000013
     76c:	13490026 	movtne	r0, #36902	; 0x9026
     770:	13070000 	movwne	r0, #28672	; 0x7000
     774:	3a0b0b01 	bcc	2c3380 <__bss_end__+0x2b74c0>
     778:	010b3b0b 	tsteq	fp, fp, lsl #22
     77c:	08000013 	stmdaeq	r0, {r0, r1, r4}
     780:	0803000d 	stmdaeq	r3, {r0, r2, r3}
     784:	0b3b0b3a 	bleq	ec3474 <__bss_end__+0xeb75b4>
     788:	0b381349 	bleq	e054b4 <__bss_end__+0xdf95f4>
     78c:	0d090000 	stceq	0, cr0, [r9, #-0]
     790:	3a0e0300 	bcc	381398 <__bss_end__+0x3754d8>
     794:	490b3b0b 	stmdbmi	fp, {r0, r1, r3, r8, r9, fp, ip, sp}
     798:	000b3813 	andeq	r3, fp, r3, lsl r8
     79c:	01040a00 	tsteq	r4, r0, lsl #20
     7a0:	0b3a0b0b 	bleq	e833d4 <__bss_end__+0xe77514>
     7a4:	13010b3b 	movwne	r0, #6971	; 0x1b3b
     7a8:	280b0000 	stmdacs	fp, {}	; <UNPREDICTABLE>
     7ac:	1c0e0300 	stcne	3, cr0, [lr], {-0}
     7b0:	0c00000d 	stceq	0, cr0, [r0], {13}
     7b4:	0e03012e 	adfeqsp	f0, f3, #0.5
     7b8:	0b3b0b3a 	bleq	ec34a8 <__bss_end__+0xeb75e8>
     7bc:	13491927 	movtne	r1, #39207	; 0x9927
     7c0:	06120111 			; <UNDEFINED> instruction: 0x06120111
     7c4:	42971840 	addsmi	r1, r7, #64, 16	; 0x400000
     7c8:	00130119 	andseq	r0, r3, r9, lsl r1
     7cc:	00050d00 	andeq	r0, r5, r0, lsl #26
     7d0:	0b3a0803 	bleq	e827e4 <__bss_end__+0xe76924>
     7d4:	13490b3b 	movtne	r0, #39739	; 0x9b3b
     7d8:	00001702 	andeq	r1, r0, r2, lsl #14
     7dc:	0182890e 	orreq	r8, r2, lr, lsl #18
     7e0:	31011101 	tstcc	r1, r1, lsl #2
     7e4:	0f000013 	svceq	0x00000013
     7e8:	0001828a 	andeq	r8, r1, sl, lsl #5
     7ec:	42911802 	addsmi	r1, r1, #131072	; 0x20000
     7f0:	10000018 	andne	r0, r0, r8, lsl r0
     7f4:	193f012e 	ldmdbne	pc!, {r1, r2, r3, r5, r8}	; <UNPREDICTABLE>
     7f8:	0b3a0e03 	bleq	e8400c <__bss_end__+0xe7814c>
     7fc:	01110b3b 	tsteq	r1, fp, lsr fp
     800:	18400612 	stmdane	r0, {r1, r4, r9, sl}^
     804:	01194297 			; <UNDEFINED> instruction: 0x01194297
     808:	11000013 	tstne	r0, r3, lsl r0
     80c:	0e030034 	mcreq	0, 0, r0, cr3, cr4, {1}
     810:	0b3b0b3a 	bleq	ec3500 <__bss_end__+0xeb7640>
     814:	193f1349 	ldmdbne	pc!, {r0, r3, r6, r8, r9, ip}	; <UNPREDICTABLE>
     818:	0000193c 	andeq	r1, r0, ip, lsr r9
     81c:	3f002e12 	svccc	0x00002e12
     820:	3a0e0319 	bcc	38148c <__bss_end__+0x3755cc>
     824:	270b3b0b 	strcs	r3, [fp, -fp, lsl #22]
     828:	00193c19 	andseq	r3, r9, r9, lsl ip
     82c:	00341300 	eorseq	r1, r4, r0, lsl #6
     830:	0b3a0803 	bleq	e82844 <__bss_end__+0xe76984>
     834:	13490b3b 	movtne	r0, #39739	; 0x9b3b
     838:	00001702 	andeq	r1, r0, r2, lsl #14
     83c:	03003414 	movweq	r3, #1044	; 0x414
     840:	3b0b3a0e 	blcc	2cf080 <__bss_end__+0x2c31c0>
     844:	0013490b 	andseq	r4, r3, fp, lsl #18
     848:	82891500 	addhi	r1, r9, #0, 10
     84c:	01110001 	tsteq	r1, r1
     850:	00001331 	andeq	r1, r0, r1, lsr r3
     854:	01828916 	orreq	r8, r2, r6, lsl r9
     858:	31011101 	tstcc	r1, r1, lsl #2
     85c:	00130113 	andseq	r0, r3, r3, lsl r1
     860:	00341700 	eorseq	r1, r4, r0, lsl #14
     864:	0b3a0e03 	bleq	e84078 <__bss_end__+0xe781b8>
     868:	13490b3b 	movtne	r0, #39739	; 0x9b3b
     86c:	00001802 	andeq	r1, r0, r2, lsl #16
     870:	27011518 	smladcs	r1, r8, r5, r1
     874:	01134919 	tsteq	r3, r9, lsl r9
     878:	19000013 	stmdbne	r0, {r0, r1, r4}
     87c:	13490005 	movtne	r0, #36869	; 0x9005
     880:	2e1a0000 	cdpcs	0, 1, cr0, cr10, cr0, {0}
     884:	03193f01 	tsteq	r9, #1, 30
     888:	3b0b3a0e 	blcc	2cf0c8 <__bss_end__+0x2c3208>
     88c:	3c19270b 	ldccc	7, cr2, [r9], {11}
     890:	00130119 	andseq	r0, r3, r9, lsl r1
     894:	002e1b00 	eoreq	r1, lr, r0, lsl #22
     898:	0e03193f 	mcreq	9, 0, r1, cr3, cr15, {1}
     89c:	0b3b0b3a 	bleq	ec358c <__bss_end__+0xeb76cc>
     8a0:	13491927 	movtne	r1, #39207	; 0x9927
     8a4:	0000193c 	andeq	r1, r0, ip, lsr r9
     8a8:	3f012e1c 	svccc	0x00012e1c
     8ac:	3a0e0319 	bcc	381518 <__bss_end__+0x375658>
     8b0:	270b3b0b 	strcs	r3, [fp, -fp, lsl #22]
     8b4:	3c134919 	ldccc	9, cr4, [r3], {25}
     8b8:	00130119 	andseq	r0, r3, r9, lsl r1
     8bc:	00181d00 	andseq	r1, r8, r0, lsl #26
     8c0:	01000000 	mrseq	r0, (UNDEF: 0)
     8c4:	0e250111 	mcreq	1, 1, r0, cr5, cr1, {0}
     8c8:	0e030b13 	vmoveq.32	d3[0], r0
     8cc:	17550e1b 	smmlane	r5, fp, lr, r0
     8d0:	17100111 			; <UNDEFINED> instruction: 0x17100111
     8d4:	24020000 	strcs	r0, [r2], #-0
     8d8:	3e0b0b00 	vmlacc.f64	d0, d11, d0
     8dc:	0008030b 	andeq	r0, r8, fp, lsl #6
     8e0:	00240300 	eoreq	r0, r4, r0, lsl #6
     8e4:	0b3e0b0b 	bleq	f83518 <__bss_end__+0xf77658>
     8e8:	00000e03 	andeq	r0, r0, r3, lsl #28
     8ec:	3f012e04 	svccc	0x00012e04
     8f0:	3a0e0319 	bcc	38155c <__bss_end__+0x37569c>
     8f4:	270b3b0b 	strcs	r3, [fp, -fp, lsl #22]
     8f8:	11134919 	tstne	r3, r9, lsl r9
     8fc:	40061201 	andmi	r1, r6, r1, lsl #4
     900:	19429718 	stmdbne	r2, {r3, r4, r8, r9, sl, ip, pc}^
     904:	00001301 	andeq	r1, r0, r1, lsl #6
     908:	03003405 	movweq	r3, #1029	; 0x405
     90c:	3b0b3a0e 	blcc	2cf14c <__bss_end__+0x2c328c>
     910:	0213490b 	andseq	r4, r3, #180224	; 0x2c000
     914:	06000017 			; <UNDEFINED> instruction: 0x06000017
     918:	193f012e 	ldmdbne	pc!, {r1, r2, r3, r5, r8}	; <UNPREDICTABLE>
     91c:	0b3a0e03 	bleq	e84130 <__bss_end__+0xe78270>
     920:	19270b3b 	stmdbne	r7!, {r0, r1, r3, r4, r5, r8, r9, fp}
     924:	06120111 			; <UNDEFINED> instruction: 0x06120111
     928:	42971840 	addsmi	r1, r7, #64, 16	; 0x400000
     92c:	00130119 	andseq	r0, r3, r9, lsl r1
     930:	00340700 	eorseq	r0, r4, r0, lsl #14
     934:	0b3a0e03 	bleq	e84148 <__bss_end__+0xe78288>
     938:	13490b3b 	movtne	r0, #39739	; 0x9b3b
     93c:	0000061c 	andeq	r0, r0, ip, lsl r6
     940:	03003408 	movweq	r3, #1032	; 0x408
     944:	3b0b3a0e 	blcc	2cf184 <__bss_end__+0x2c32c4>
     948:	1c13490b 	ldcne	9, cr4, [r3], {11}
     94c:	0900000b 	stmdbeq	r0, {r0, r1, r3}
     950:	00018289 	andeq	r8, r1, r9, lsl #5
     954:	13310111 	teqne	r1, #1073741828	; 0x40000004
     958:	890a0000 	stmdbhi	sl, {}	; <UNPREDICTABLE>
     95c:	11010182 	smlabbne	r1, r2, r1, r0
     960:	01133101 	tsteq	r3, r1, lsl #2
     964:	0b000013 	bleq	9b8 <_start-0x7648>
     968:	0001828a 	andeq	r8, r1, sl, lsl #5
     96c:	42911802 	addsmi	r1, r1, #131072	; 0x20000
     970:	0c000018 	stceq	0, cr0, [r0], {24}
     974:	01018289 	smlabbeq	r1, r9, r2, r8
     978:	13310111 	teqne	r1, #1073741828	; 0x40000004
     97c:	260d0000 	strcs	r0, [sp], -r0
     980:	00134900 	andseq	r4, r3, r0, lsl #18
     984:	012e0e00 	teqeq	lr, r0, lsl #28
     988:	0e03193f 	mcreq	9, 0, r1, cr3, cr15, {1}
     98c:	0b3b0b3a 	bleq	ec367c <__bss_end__+0xeb77bc>
     990:	193c1927 	ldmdbne	ip!, {r0, r1, r2, r5, r8, fp, ip}
     994:	00001301 	andeq	r1, r0, r1, lsl #6
     998:	4900050f 	stmdbmi	r0, {r0, r1, r2, r3, r8, sl}
     99c:	10000013 	andne	r0, r0, r3, lsl r0
     9a0:	193f012e 	ldmdbne	pc!, {r1, r2, r3, r5, r8}	; <UNPREDICTABLE>
     9a4:	0b3a0e03 	bleq	e841b8 <__bss_end__+0xe782f8>
     9a8:	19270b3b 	stmdbne	r7!, {r0, r1, r3, r4, r5, r8, r9, fp}
     9ac:	0000193c 	andeq	r1, r0, ip, lsr r9
     9b0:	01110100 	tsteq	r1, r0, lsl #2
     9b4:	0b130e25 	bleq	4c4250 <__bss_end__+0x4b8390>
     9b8:	0e1b0e03 	cdpeq	14, 1, cr0, cr11, cr3, {0}
     9bc:	06120111 			; <UNDEFINED> instruction: 0x06120111
     9c0:	00001710 	andeq	r1, r0, r0, lsl r7
     9c4:	0b002402 	bleq	99d4 <system_disable_interrupts+0xc>
     9c8:	030b3e0b 	movweq	r3, #48651	; 0xbe0b
     9cc:	03000008 	movweq	r0, #8
     9d0:	0b0b0024 	bleq	2c0a68 <__bss_end__+0x2b4ba8>
     9d4:	0e030b3e 	vmoveq.16	d3[0], r0
     9d8:	2e040000 	cdpcs	0, 0, cr0, cr4, cr0, {0}
     9dc:	03193f01 	tsteq	r9, #1, 30
     9e0:	3b0b3a0e 	blcc	2cf220 <__bss_end__+0x2c3360>
     9e4:	1119270b 	tstne	r9, fp, lsl #14
     9e8:	40061201 	andmi	r1, r6, r1, lsl #4
     9ec:	19429718 	stmdbne	r2, {r3, r4, r8, r9, sl, ip, pc}^
     9f0:	00001301 	andeq	r1, r0, r1, lsl #6
     9f4:	03000505 	movweq	r0, #1285	; 0x505
     9f8:	3b0b3a0e 	blcc	2cf238 <__bss_end__+0x2c3378>
     9fc:	0213490b 	andseq	r4, r3, #180224	; 0x2c000
     a00:	06000017 			; <UNDEFINED> instruction: 0x06000017
     a04:	193f012e 	ldmdbne	pc!, {r1, r2, r3, r5, r8}	; <UNPREDICTABLE>
     a08:	0b3a0e03 	bleq	e8421c <__bss_end__+0xe7835c>
     a0c:	19270b3b 	stmdbne	r7!, {r0, r1, r3, r4, r5, r8, r9, fp}
     a10:	01111349 	tsteq	r1, r9, asr #6
     a14:	18400612 	stmdane	r0, {r1, r4, r9, sl}^
     a18:	01194297 			; <UNDEFINED> instruction: 0x01194297
     a1c:	07000013 	smladeq	r0, r3, r0, r0
     a20:	01018289 	smlabbeq	r1, r9, r2, r8
     a24:	13310111 	teqne	r1, #1073741828	; 0x40000004
     a28:	8a080000 	bhi	200a30 <__bss_end__+0x1f4b70>
     a2c:	02000182 	andeq	r0, r0, #-2147483616	; 0x80000020
     a30:	18429118 	stmdane	r2, {r3, r4, r8, ip, pc}^
     a34:	34090000 	strcc	r0, [r9], #-0
     a38:	3a080300 	bcc	201640 <__bss_end__+0x1f5780>
     a3c:	490b3b0b 	stmdbmi	fp, {r0, r1, r3, r8, r9, fp, ip, sp}
     a40:	00180213 	andseq	r0, r8, r3, lsl r2
     a44:	82890a00 	addhi	r0, r9, #0, 20
     a48:	01110001 	tsteq	r1, r1
     a4c:	00001331 	andeq	r1, r0, r1, lsr r3
     a50:	0300050b 	movweq	r0, #1291	; 0x50b
     a54:	3b0b3a08 	blcc	2cf27c <__bss_end__+0x2c33bc>
     a58:	0213490b 	andseq	r4, r3, #180224	; 0x2c000
     a5c:	0c000017 	stceq	0, cr0, [r0], {23}
     a60:	0111010b 	tsteq	r1, fp, lsl #2
     a64:	13010612 	movwne	r0, #5650	; 0x1612
     a68:	340d0000 	strcc	r0, [sp], #-0
     a6c:	3a080300 	bcc	201674 <__bss_end__+0x1f57b4>
     a70:	490b3b0b 	stmdbmi	fp, {r0, r1, r3, r8, r9, fp, ip, sp}
     a74:	00170213 	andseq	r0, r7, r3, lsl r2
     a78:	012e0e00 	teqeq	lr, r0, lsl #28
     a7c:	0e03193f 	mcreq	9, 0, r1, cr3, cr15, {1}
     a80:	0b3b0b3a 	bleq	ec3770 <__bss_end__+0xeb78b0>
     a84:	13491927 	movtne	r1, #39207	; 0x9927
     a88:	0000193c 	andeq	r1, r0, ip, lsr r9
     a8c:	4900050f 	stmdbmi	r0, {r0, r1, r2, r3, r8, sl}
     a90:	00000013 	andeq	r0, r0, r3, lsl r0
     a94:	25011101 	strcs	r1, [r1, #-257]	; 0x101
     a98:	030b130e 	movweq	r1, #45838	; 0xb30e
     a9c:	110e1b0e 	tstne	lr, lr, lsl #22
     aa0:	10061201 	andne	r1, r6, r1, lsl #4
     aa4:	02000017 	andeq	r0, r0, #23
     aa8:	0b0b0024 	bleq	2c0b40 <__bss_end__+0x2b4c80>
     aac:	0e030b3e 	vmoveq.16	d3[0], r0
     ab0:	24030000 	strcs	r0, [r3], #-0
     ab4:	3e0b0b00 	vmlacc.f64	d0, d11, d0
     ab8:	0008030b 	andeq	r0, r8, fp, lsl #6
     abc:	01040400 	tsteq	r4, r0, lsl #8
     ac0:	0b3a0b0b 	bleq	e836f4 <__bss_end__+0xe77834>
     ac4:	13010b3b 	movwne	r0, #6971	; 0x1b3b
     ac8:	28050000 	stmdacs	r5, {}	; <UNPREDICTABLE>
     acc:	1c0e0300 	stcne	3, cr0, [lr], {-0}
     ad0:	0600000d 	streq	r0, [r0], -sp
     ad4:	0e030016 	mcreq	0, 0, r0, cr3, cr6, {0}
     ad8:	0b3b0b3a 	bleq	ec37c8 <__bss_end__+0xeb7908>
     adc:	00001349 	andeq	r1, r0, r9, asr #6
     ae0:	3f012e07 	svccc	0x00012e07
     ae4:	3a0e0319 	bcc	381750 <__bss_end__+0x375890>
     ae8:	270b3b0b 	strcs	r3, [fp, -fp, lsl #22]
     aec:	12011119 	andne	r1, r1, #1073741830	; 0x40000006
     af0:	97184006 	ldrls	r4, [r8, -r6]
     af4:	13011942 	movwne	r1, #6466	; 0x1942
     af8:	05080000 	streq	r0, [r8, #-0]
     afc:	3a080300 	bcc	201704 <__bss_end__+0x1f5844>
     b00:	490b3b0b 	stmdbmi	fp, {r0, r1, r3, r8, r9, fp, ip, sp}
     b04:	00170213 	andseq	r0, r7, r3, lsl r2
     b08:	00340900 	eorseq	r0, r4, r0, lsl #18
     b0c:	0b3a0e03 	bleq	e84320 <__bss_end__+0xe78460>
     b10:	13490b3b 	movtne	r0, #39739	; 0x9b3b
     b14:	00001702 	andeq	r1, r0, r2, lsl #14
     b18:	0182890a 	orreq	r8, r2, sl, lsl #18
     b1c:	31011101 	tstcc	r1, r1, lsl #2
     b20:	00130113 	andseq	r0, r3, r3, lsl r1
     b24:	828a0b00 	addhi	r0, sl, #0, 22
     b28:	18020001 	stmdane	r2, {r0}
     b2c:	00184291 	mulseq	r8, r1, r2
     b30:	82890c00 	addhi	r0, r9, #0, 24
     b34:	01110101 	tsteq	r1, r1, lsl #2
     b38:	00001331 	andeq	r1, r0, r1, lsr r3
     b3c:	0b000f0d 	bleq	4778 <_start-0x3888>
     b40:	0013490b 	andseq	r4, r3, fp, lsl #18
     b44:	00350e00 	eorseq	r0, r5, r0, lsl #28
     b48:	00001349 	andeq	r1, r0, r9, asr #6
     b4c:	3f012e0f 	svccc	0x00012e0f
     b50:	3a0e0319 	bcc	3817bc <__bss_end__+0x3758fc>
     b54:	270b3b0b 	strcs	r3, [fp, -fp, lsl #22]
     b58:	010b2019 	tsteq	fp, r9, lsl r0
     b5c:	10000013 	andne	r0, r0, r3, lsl r0
     b60:	08030005 	stmdaeq	r3, {r0, r2}
     b64:	0b3b0b3a 	bleq	ec3854 <__bss_end__+0xeb7994>
     b68:	00001349 	andeq	r1, r0, r9, asr #6
     b6c:	03003411 	movweq	r3, #1041	; 0x411
     b70:	3b0b3a0e 	blcc	2cf3b0 <__bss_end__+0x2c34f0>
     b74:	0013490b 	andseq	r4, r3, fp, lsl #18
     b78:	012e1200 	teqeq	lr, r0, lsl #4
     b7c:	01111331 	tsteq	r1, r1, lsr r3
     b80:	18400612 	stmdane	r0, {r1, r4, r9, sl}^
     b84:	01194297 			; <UNDEFINED> instruction: 0x01194297
     b88:	13000013 	movwne	r0, #19
     b8c:	13310005 	teqne	r1, #5
     b90:	00001702 	andeq	r1, r0, r2, lsl #14
     b94:	31003414 	tstcc	r0, r4, lsl r4
     b98:	00170213 	andseq	r0, r7, r3, lsl r2
     b9c:	012e1500 	teqeq	lr, r0, lsl #10
     ba0:	0e03193f 	mcreq	9, 0, r1, cr3, cr15, {1}
     ba4:	0b3b0b3a 	bleq	ec3894 <__bss_end__+0xeb79d4>
     ba8:	13491927 	movtne	r1, #39207	; 0x9927
     bac:	06120111 			; <UNDEFINED> instruction: 0x06120111
     bb0:	42971840 	addsmi	r1, r7, #64, 16	; 0x400000
     bb4:	00130119 	andseq	r0, r3, r9, lsl r1
     bb8:	00341600 	eorseq	r1, r4, r0, lsl #12
     bbc:	0b3a0803 	bleq	e82bd0 <__bss_end__+0xe76d10>
     bc0:	13490b3b 	movtne	r0, #39739	; 0x9b3b
     bc4:	00001702 	andeq	r1, r0, r2, lsl #14
     bc8:	01828917 	orreq	r8, r2, r7, lsl r9
     bcc:	31011100 	mrscc	r1, (UNDEF: 17)
     bd0:	18000013 	stmdane	r0, {r0, r1, r4}
     bd4:	1331011d 	teqne	r1, #1073741831	; 0x40000007
     bd8:	06120111 			; <UNDEFINED> instruction: 0x06120111
     bdc:	0b590b58 	bleq	1643944 <__bss_end__+0x1637a84>
     be0:	00001301 	andeq	r1, r0, r1, lsl #6
     be4:	11010b19 	tstne	r1, r9, lsl fp
     be8:	00061201 	andeq	r1, r6, r1, lsl #4
     bec:	011d1a00 	tsteq	sp, r0, lsl #20
     bf0:	01111331 	tsteq	r1, r1, lsr r3
     bf4:	0b580612 	bleq	1602444 <__bss_end__+0x15f6584>
     bf8:	00000b59 	andeq	r0, r0, r9, asr fp
     bfc:	0300051b 	movweq	r0, #1307	; 0x51b
     c00:	3b0b3a0e 	blcc	2cf440 <__bss_end__+0x2c3580>
     c04:	0213490b 	andseq	r4, r3, #180224	; 0x2c000
     c08:	1c000017 	stcne	0, cr0, [r0], {23}
     c0c:	193f012e 	ldmdbne	pc!, {r1, r2, r3, r5, r8}	; <UNPREDICTABLE>
     c10:	0b3a0e03 	bleq	e84424 <__bss_end__+0xe78564>
     c14:	1927053b 	stmdbne	r7!, {r0, r1, r3, r4, r5, r8, sl}
     c18:	01111349 	tsteq	r1, r9, asr #6
     c1c:	18400612 	stmdane	r0, {r1, r4, r9, sl}^
     c20:	01194297 			; <UNDEFINED> instruction: 0x01194297
     c24:	1d000013 	stcne	0, cr0, [r0, #-76]	; 0xffffffb4
     c28:	0e030005 	cdpeq	0, 0, cr0, cr3, cr5, {0}
     c2c:	053b0b3a 	ldreq	r0, [fp, #-2874]!	; 0xb3a
     c30:	17021349 	strne	r1, [r2, -r9, asr #6]
     c34:	2e1e0000 	cdpcs	0, 1, cr0, cr14, cr0, {0}
     c38:	03193f01 	tsteq	r9, #1, 30
     c3c:	3b0b3a0e 	blcc	2cf47c <__bss_end__+0x2c35bc>
     c40:	11192705 	tstne	r9, r5, lsl #14
     c44:	40061201 	andmi	r1, r6, r1, lsl #4
     c48:	19429718 	stmdbne	r2, {r3, r4, r8, r9, sl, ip, pc}^
     c4c:	00001301 	andeq	r1, r0, r1, lsl #6
     c50:	0300051f 	movweq	r0, #1311	; 0x51f
     c54:	3b0b3a08 	blcc	2cf47c <__bss_end__+0x2c35bc>
     c58:	02134905 	andseq	r4, r3, #81920	; 0x14000
     c5c:	20000017 	andcs	r0, r0, r7, lsl r0
     c60:	0e030034 	mcreq	0, 0, r0, cr3, cr4, {1}
     c64:	053b0b3a 	ldreq	r0, [fp, #-2874]!	; 0xb3a
     c68:	17021349 	strne	r1, [r2, -r9, asr #6]
     c6c:	0b210000 	bleq	840c74 <__bss_end__+0x834db4>
     c70:	12011101 	andne	r1, r1, #1073741824	; 0x40000000
     c74:	00130106 	andseq	r0, r3, r6, lsl #2
     c78:	00342200 	eorseq	r2, r4, r0, lsl #4
     c7c:	0b3a0e03 	bleq	e84490 <__bss_end__+0xe785d0>
     c80:	13490b3b 	movtne	r0, #39739	; 0x9b3b
     c84:	1802193f 	stmdane	r2, {r0, r1, r2, r3, r4, r5, r8, fp, ip}
     c88:	2e230000 	cdpcs	0, 2, cr0, cr3, cr0, {0}
     c8c:	03193f01 	tsteq	r9, #1, 30
     c90:	3b0b3a0e 	blcc	2cf4d0 <__bss_end__+0x2c3610>
     c94:	4919270b 	ldmdbmi	r9, {r0, r1, r3, r8, r9, sl, sp}
     c98:	01193c13 	tsteq	r9, r3, lsl ip
     c9c:	24000013 	strcs	r0, [r0], #-19
     ca0:	13490005 	movtne	r0, #36869	; 0x9005
     ca4:	26250000 	strtcs	r0, [r5], -r0
     ca8:	00134900 	andseq	r4, r3, r0, lsl #18
     cac:	00352600 	eorseq	r2, r5, r0, lsl #12
     cb0:	2e270000 	cdpcs	0, 2, cr0, cr7, cr0, {0}
     cb4:	03193f01 	tsteq	r9, #1, 30
     cb8:	3b0b3a0e 	blcc	2cf4f8 <__bss_end__+0x2c3638>
     cbc:	3c19270b 	ldccc	7, cr2, [r9], {11}
     cc0:	00130119 	andseq	r0, r3, r9, lsl r1
     cc4:	002e2800 	eoreq	r2, lr, r0, lsl #16
     cc8:	0e03193f 	mcreq	9, 0, r1, cr3, cr15, {1}
     ccc:	0b3b0b3a 	bleq	ec39bc <__bss_end__+0xeb7afc>
     cd0:	193c1927 	ldmdbne	ip!, {r0, r1, r2, r5, r8, fp, ip}
     cd4:	01000000 	mrseq	r0, (UNDEF: 0)
     cd8:	0e250111 	mcreq	1, 1, r0, cr5, cr1, {0}
     cdc:	0e030b13 	vmoveq.32	d3[0], r0
     ce0:	01110e1b 	tsteq	r1, fp, lsl lr
     ce4:	17100612 			; <UNDEFINED> instruction: 0x17100612
     ce8:	24020000 	strcs	r0, [r2], #-0
     cec:	3e0b0b00 	vmlacc.f64	d0, d11, d0
     cf0:	0008030b 	andeq	r0, r8, fp, lsl #6
     cf4:	00240300 	eoreq	r0, r4, r0, lsl #6
     cf8:	0b3e0b0b 	bleq	f8392c <__bss_end__+0xf77a6c>
     cfc:	00000e03 	andeq	r0, r0, r3, lsl #28
     d00:	03001604 	movweq	r1, #1540	; 0x604
     d04:	3b0b3a0e 	blcc	2cf544 <__bss_end__+0x2c3684>
     d08:	0013490b 	andseq	r4, r3, fp, lsl #18
     d0c:	000f0500 	andeq	r0, pc, r0, lsl #10
     d10:	00000b0b 	andeq	r0, r0, fp, lsl #22
     d14:	0b000f06 	bleq	4934 <_start-0x36cc>
     d18:	0013490b 	andseq	r4, r3, fp, lsl #18
     d1c:	00260700 	eoreq	r0, r6, r0, lsl #14
     d20:	00001349 	andeq	r1, r0, r9, asr #6
     d24:	0b011308 	bleq	4594c <__bss_end__+0x39a8c>
     d28:	3b0b3a0b 	blcc	2cf55c <__bss_end__+0x2c369c>
     d2c:	0013010b 	andseq	r0, r3, fp, lsl #2
     d30:	000d0900 	andeq	r0, sp, r0, lsl #18
     d34:	0b3a0803 	bleq	e82d48 <__bss_end__+0xe76e88>
     d38:	13490b3b 	movtne	r0, #39739	; 0x9b3b
     d3c:	00000b38 	andeq	r0, r0, r8, lsr fp
     d40:	03000d0a 	movweq	r0, #3338	; 0xd0a
     d44:	3b0b3a0e 	blcc	2cf584 <__bss_end__+0x2c36c4>
     d48:	3813490b 	ldmdacc	r3, {r0, r1, r3, r8, fp, lr}
     d4c:	0b00000b 	bleq	d80 <_start-0x7280>
     d50:	0e030113 	mcreq	1, 0, r0, cr3, cr3, {0}
     d54:	0b3a0b0b 	bleq	e83988 <__bss_end__+0xe77ac8>
     d58:	13010b3b 	movwne	r0, #6971	; 0x1b3b
     d5c:	0d0c0000 	stceq	0, cr0, [ip, #-0]
     d60:	490e0300 	stmdbmi	lr, {r8, r9}
     d64:	340b3813 	strcc	r3, [fp], #-2067	; 0x813
     d68:	0d000019 	stceq	0, cr0, [r0, #-100]	; 0xffffff9c
     d6c:	0e03012e 	adfeqsp	f0, f3, #0.5
     d70:	0b3b0b3a 	bleq	ec3a60 <__bss_end__+0xeb7ba0>
     d74:	0b201927 	bleq	807218 <__bss_end__+0x7fb358>
     d78:	00001301 	andeq	r1, r0, r1, lsl #6
     d7c:	0300050e 	movweq	r0, #1294	; 0x50e
     d80:	3b0b3a0e 	blcc	2cf5c0 <__bss_end__+0x2c3700>
     d84:	0013490b 	andseq	r4, r3, fp, lsl #18
     d88:	00050f00 	andeq	r0, r5, r0, lsl #30
     d8c:	0b3a0803 	bleq	e82da0 <__bss_end__+0xe76ee0>
     d90:	13490b3b 	movtne	r0, #39739	; 0x9b3b
     d94:	0b100000 	bleq	400d9c <__bss_end__+0x3f4edc>
     d98:	11000001 	tstne	r0, r1
     d9c:	0e030034 	mcreq	0, 0, r0, cr3, cr4, {1}
     da0:	0b3b0b3a 	bleq	ec3a90 <__bss_end__+0xeb7bd0>
     da4:	00001349 	andeq	r1, r0, r9, asr #6
     da8:	3f012e12 	svccc	0x00012e12
     dac:	3a0e0319 	bcc	381a18 <__bss_end__+0x375b58>
     db0:	270b3b0b 	strcs	r3, [fp, -fp, lsl #22]
     db4:	12011119 	andne	r1, r1, #1073741830	; 0x40000006
     db8:	97184006 	ldrls	r4, [r8, -r6]
     dbc:	13011942 	movwne	r1, #6466	; 0x1942
     dc0:	05130000 	ldreq	r0, [r3, #-0]
     dc4:	3a0e0300 	bcc	3819cc <__bss_end__+0x375b0c>
     dc8:	490b3b0b 	stmdbmi	fp, {r0, r1, r3, r8, r9, fp, ip, sp}
     dcc:	00170213 	andseq	r0, r7, r3, lsl r2
     dd0:	00051400 	andeq	r1, r5, r0, lsl #8
     dd4:	0b3a0803 	bleq	e82de8 <__bss_end__+0xe76f28>
     dd8:	13490b3b 	movtne	r0, #39739	; 0x9b3b
     ddc:	00001702 	andeq	r1, r0, r2, lsl #14
     de0:	03003415 	movweq	r3, #1045	; 0x415
     de4:	3b0b3a08 	blcc	2cf60c <__bss_end__+0x2c374c>
     de8:	0213490b 	andseq	r4, r3, #180224	; 0x2c000
     dec:	16000018 			; <UNDEFINED> instruction: 0x16000018
     df0:	08030034 	stmdaeq	r3, {r2, r4, r5}
     df4:	0b3b0b3a 	bleq	ec3ae4 <__bss_end__+0xeb7c24>
     df8:	17021349 	strne	r1, [r2, -r9, asr #6]
     dfc:	0b170000 	bleq	5c0e04 <__bss_end__+0x5b4f44>
     e00:	12011101 	andne	r1, r1, #1073741824	; 0x40000000
     e04:	00130106 	andseq	r0, r3, r6, lsl #2
     e08:	00341800 	eorseq	r1, r4, r0, lsl #16
     e0c:	0b3a0e03 	bleq	e84620 <__bss_end__+0xe78760>
     e10:	13490b3b 	movtne	r0, #39739	; 0x9b3b
     e14:	00001802 	andeq	r1, r0, r2, lsl #16
     e18:	31011d19 	tstcc	r1, r9, lsl sp
     e1c:	12011113 	andne	r1, r1, #-1073741820	; 0xc0000004
     e20:	590b5806 	stmdbpl	fp, {r1, r2, fp, ip, lr}
     e24:	0013010b 	andseq	r0, r3, fp, lsl #2
     e28:	00051a00 	andeq	r1, r5, r0, lsl #20
     e2c:	17021331 	smladxne	r2, r1, r3, r1
     e30:	051b0000 	ldreq	r0, [fp, #-0]
     e34:	02133100 	andseq	r3, r3, #0, 2
     e38:	1c000018 	stcne	0, cr0, [r0], {24}
     e3c:	13310005 	teqne	r1, #5
     e40:	00000b1c 	andeq	r0, r0, ip, lsl fp
     e44:	11010b1d 	tstne	r1, sp, lsl fp
     e48:	00061201 	andeq	r1, r6, r1, lsl #4
     e4c:	00341e00 	eorseq	r1, r4, r0, lsl #28
     e50:	17021331 	smladxne	r2, r1, r3, r1
     e54:	891f0000 	ldmdbhi	pc, {}	; <UNPREDICTABLE>
     e58:	11010182 	smlabbne	r1, r2, r1, r0
     e5c:	00133101 	andseq	r3, r3, r1, lsl #2
     e60:	828a2000 	addhi	r2, sl, #0
     e64:	18020001 	stmdane	r2, {r0}
     e68:	00184291 	mulseq	r8, r1, r2
     e6c:	011d2100 	tsteq	sp, r0, lsl #2
     e70:	01111331 	tsteq	r1, r1, lsr r3
     e74:	0b580612 	bleq	16026c4 <__bss_end__+0x15f6804>
     e78:	00000b59 	andeq	r0, r0, r9, asr fp
     e7c:	03012e22 	movweq	r2, #7714	; 0x1e22
     e80:	3b0b3a0e 	blcc	2cf6c0 <__bss_end__+0x2c3800>
     e84:	4919270b 	ldmdbmi	r9, {r0, r1, r3, r8, r9, sl, sp}
     e88:	010b2013 	tsteq	fp, r3, lsl r0
     e8c:	23000013 	movwcs	r0, #19
     e90:	193f012e 	ldmdbne	pc!, {r1, r2, r3, r5, r8}	; <UNPREDICTABLE>
     e94:	0b3a0e03 	bleq	e846a8 <__bss_end__+0xe787e8>
     e98:	19270b3b 	stmdbne	r7!, {r0, r1, r3, r4, r5, r8, r9, fp}
     e9c:	01111349 	tsteq	r1, r9, asr #6
     ea0:	18400612 	stmdane	r0, {r1, r4, r9, sl}^
     ea4:	01194297 			; <UNDEFINED> instruction: 0x01194297
     ea8:	24000013 	strcs	r0, [r0], #-19
     eac:	00018289 	andeq	r8, r1, r9, lsl #5
     eb0:	13310111 	teqne	r1, #1073741828	; 0x40000004
     eb4:	89250000 	stmdbhi	r5!, {}	; <UNPREDICTABLE>
     eb8:	11010182 	smlabbne	r1, r2, r1, r0
     ebc:	01133101 	tsteq	r3, r1, lsl #2
     ec0:	26000013 			; <UNDEFINED> instruction: 0x26000013
     ec4:	0e030034 	mcreq	0, 0, r0, cr3, cr4, {1}
     ec8:	0b3b0b3a 	bleq	ec3bb8 <__bss_end__+0xeb7cf8>
     ecc:	17021349 	strne	r1, [r2, -r9, asr #6]
     ed0:	05270000 	streq	r0, [r7, #-0]!
     ed4:	00133100 	andseq	r3, r3, r0, lsl #2
     ed8:	00052800 	andeq	r2, r5, r0, lsl #16
     edc:	0b3a0e03 	bleq	e846f0 <__bss_end__+0xe78830>
     ee0:	13490b3b 	movtne	r0, #39739	; 0x9b3b
     ee4:	00001802 	andeq	r1, r0, r2, lsl #16
     ee8:	03003429 	movweq	r3, #1065	; 0x429
     eec:	3413490e 	ldrcc	r4, [r3], #-2318	; 0x90e
     ef0:	00180219 	andseq	r0, r8, r9, lsl r2
     ef4:	01012a00 	tsteq	r1, r0, lsl #20
     ef8:	13011349 	movwne	r1, #4937	; 0x1349
     efc:	212b0000 	teqcs	fp, r0
     f00:	2f134900 	svccs	0x00134900
     f04:	2c00000b 	stccs	0, cr0, [r0], {11}
     f08:	08030034 	stmdaeq	r3, {r2, r4, r5}
     f0c:	0b3b0b3a 	bleq	ec3bfc <__bss_end__+0xeb7d3c>
     f10:	061c1349 	ldreq	r1, [ip], -r9, asr #6
     f14:	342d0000 	strtcc	r0, [sp], #-0
     f18:	3a080300 	bcc	201b20 <__bss_end__+0x1f5c60>
     f1c:	490b3b0b 	stmdbmi	fp, {r0, r1, r3, r8, r9, fp, ip, sp}
     f20:	000b1c13 	andeq	r1, fp, r3, lsl ip
     f24:	00052e00 	andeq	r2, r5, r0, lsl #28
     f28:	0b3a0803 	bleq	e82f3c <__bss_end__+0xe7707c>
     f2c:	13490b3b 	movtne	r0, #39739	; 0x9b3b
     f30:	00001802 	andeq	r1, r0, r2, lsl #16
     f34:	0000182f 	andeq	r1, r0, pc, lsr #16
     f38:	00213000 	eoreq	r3, r1, r0
     f3c:	052f1349 	streq	r1, [pc, #-841]!	; bfb <_start-0x7405>
     f40:	2e310000 	cdpcs	0, 3, cr0, cr1, cr0, {0}
     f44:	03193f01 	tsteq	r9, #1, 30
     f48:	3b0b3a0e 	blcc	2cf788 <__bss_end__+0x2c38c8>
     f4c:	3c19270b 	ldccc	7, cr2, [r9], {11}
     f50:	00130119 	andseq	r0, r3, r9, lsl r1
     f54:	00053200 	andeq	r3, r5, r0, lsl #4
     f58:	00001349 	andeq	r1, r0, r9, asr #6
     f5c:	3f002e33 	svccc	0x00002e33
     f60:	3a0e0319 	bcc	381bcc <__bss_end__+0x375d0c>
     f64:	270b3b0b 	strcs	r3, [fp, -fp, lsl #22]
     f68:	3c134919 	ldccc	9, cr4, [r3], {25}
     f6c:	34000019 	strcc	r0, [r0], #-25
     f70:	193f012e 	ldmdbne	pc!, {r1, r2, r3, r5, r8}	; <UNPREDICTABLE>
     f74:	0b3a0e03 	bleq	e84788 <__bss_end__+0xe788c8>
     f78:	19270b3b 	stmdbne	r7!, {r0, r1, r3, r4, r5, r8, r9, fp}
     f7c:	193c1349 	ldmdbne	ip!, {r0, r3, r6, r8, r9, ip}
     f80:	00001301 	andeq	r1, r0, r1, lsl #6
     f84:	3f002e35 	svccc	0x00002e35
     f88:	3a0e0319 	bcc	381bf4 <__bss_end__+0x375d34>
     f8c:	270b3b0b 	strcs	r3, [fp, -fp, lsl #22]
     f90:	00193c19 	andseq	r3, r9, r9, lsl ip
     f94:	012e3600 	teqeq	lr, r0, lsl #12
     f98:	0e03193f 	mcreq	9, 0, r1, cr3, cr15, {1}
     f9c:	0b3b0b3a 	bleq	ec3c8c <__bss_end__+0xeb7dcc>
     fa0:	13491927 	movtne	r1, #39207	; 0x9927
     fa4:	0000193c 	andeq	r1, r0, ip, lsr r9
     fa8:	01110100 	tsteq	r1, r0, lsl #2
     fac:	0b130e25 	bleq	4c4848 <__bss_end__+0x4b8988>
     fb0:	0e1b0e03 	cdpeq	14, 1, cr0, cr11, cr3, {0}
     fb4:	06120111 			; <UNDEFINED> instruction: 0x06120111
     fb8:	00001710 	andeq	r1, r0, r0, lsl r7
     fbc:	0b002402 	bleq	9fcc <uart_int_flush+0x70>
     fc0:	030b3e0b 	movweq	r3, #48651	; 0xbe0b
     fc4:	03000008 	movweq	r0, #8
     fc8:	0b0b0024 	bleq	2c1060 <__bss_end__+0x2b51a0>
     fcc:	0e030b3e 	vmoveq.16	d3[0], r0
     fd0:	04040000 	streq	r0, [r4], #-0
     fd4:	3a0b0b01 	bcc	2c3be0 <__bss_end__+0x2b7d20>
     fd8:	010b3b0b 	tsteq	fp, fp, lsl #22
     fdc:	05000013 	streq	r0, [r0, #-19]
     fe0:	0e030028 	cdpeq	0, 0, cr0, cr3, cr8, {1}
     fe4:	00000d1c 	andeq	r0, r0, ip, lsl sp
     fe8:	03001606 	movweq	r1, #1542	; 0x606
     fec:	3b0b3a0e 	blcc	2cf82c <__bss_end__+0x2c396c>
     ff0:	0013490b 	andseq	r4, r3, fp, lsl #18
     ff4:	012e0700 	teqeq	lr, r0, lsl #14
     ff8:	0e03193f 	mcreq	9, 0, r1, cr3, cr15, {1}
     ffc:	0b3b0b3a 	bleq	ec3cec <__bss_end__+0xeb7e2c>
    1000:	01111927 	tsteq	r1, r7, lsr #18
    1004:	18400612 	stmdane	r0, {r1, r4, r9, sl}^
    1008:	01194297 			; <UNDEFINED> instruction: 0x01194297
    100c:	08000013 	stmdaeq	r0, {r0, r1, r4}
    1010:	00018289 	andeq	r8, r1, r9, lsl #5
    1014:	13310111 	teqne	r1, #1073741828	; 0x40000004
    1018:	89090000 	stmdbhi	r9, {}	; <UNPREDICTABLE>
    101c:	11010182 	smlabbne	r1, r2, r1, r0
    1020:	01133101 	tsteq	r3, r1, lsl #2
    1024:	0a000013 	beq	1078 <_start-0x6f88>
    1028:	0001828a 	andeq	r8, r1, sl, lsl #5
    102c:	42911802 	addsmi	r1, r1, #131072	; 0x20000
    1030:	0b000018 	bleq	1098 <_start-0x6f68>
    1034:	193f012e 	ldmdbne	pc!, {r1, r2, r3, r5, r8}	; <UNPREDICTABLE>
    1038:	0b3a0e03 	bleq	e8484c <__bss_end__+0xe7898c>
    103c:	19270b3b 	stmdbne	r7!, {r0, r1, r3, r4, r5, r8, r9, fp}
    1040:	01111349 	tsteq	r1, r9, asr #6
    1044:	18400612 	stmdane	r0, {r1, r4, r9, sl}^
    1048:	01194297 			; <UNDEFINED> instruction: 0x01194297
    104c:	0c000013 	stceq	0, cr0, [r0], {19}
    1050:	08030005 	stmdaeq	r3, {r0, r2}
    1054:	0b3b0b3a 	bleq	ec3d44 <__bss_end__+0xeb7e84>
    1058:	17021349 	strne	r1, [r2, -r9, asr #6]
    105c:	890d0000 	stmdbhi	sp, {}	; <UNPREDICTABLE>
    1060:	11010182 	smlabbne	r1, r2, r1, r0
    1064:	00133101 	andseq	r3, r3, r1, lsl #2
    1068:	00340e00 	eorseq	r0, r4, r0, lsl #28
    106c:	0b3a0e03 	bleq	e84880 <__bss_end__+0xe789c0>
    1070:	13490b3b 	movtne	r0, #39739	; 0x9b3b
    1074:	1802193f 	stmdane	r2, {r0, r1, r2, r3, r4, r5, r8, fp, ip}
    1078:	0f0f0000 	svceq	0x000f0000
    107c:	490b0b00 	stmdbmi	fp, {r8, r9, fp}
    1080:	10000013 	andne	r0, r0, r3, lsl r0
    1084:	13490035 	movtne	r0, #36917	; 0x9035
    1088:	2e110000 	cdpcs	0, 1, cr0, cr1, cr0, {0}
    108c:	03193f00 	tsteq	r9, #0, 30
    1090:	3b0b3a0e 	blcc	2cf8d0 <__bss_end__+0x2c3a10>
    1094:	3c19270b 	ldccc	7, cr2, [r9], {11}
    1098:	12000019 	andne	r0, r0, #25
    109c:	193f012e 	ldmdbne	pc!, {r1, r2, r3, r5, r8}	; <UNPREDICTABLE>
    10a0:	0b3a0e03 	bleq	e848b4 <__bss_end__+0xe789f4>
    10a4:	19270b3b 	stmdbne	r7!, {r0, r1, r3, r4, r5, r8, r9, fp}
    10a8:	1301193c 	movwne	r1, #6460	; 0x193c
    10ac:	05130000 	ldreq	r0, [r3, #-0]
    10b0:	00134900 	andseq	r4, r3, r0, lsl #18
    10b4:	012e1400 	teqeq	lr, r0, lsl #8
    10b8:	0e03193f 	mcreq	9, 0, r1, cr3, cr15, {1}
    10bc:	0b3b0b3a 	bleq	ec3dac <__bss_end__+0xeb7eec>
    10c0:	13491927 	movtne	r1, #39207	; 0x9927
    10c4:	1301193c 	movwne	r1, #6460	; 0x193c
    10c8:	26150000 	ldrcs	r0, [r5], -r0
    10cc:	00134900 	andseq	r4, r3, r0, lsl #18
    10d0:	00351600 	eorseq	r1, r5, r0, lsl #12
    10d4:	01000000 	mrseq	r0, (UNDEF: 0)
    10d8:	0e250111 	mcreq	1, 1, r0, cr5, cr1, {0}
    10dc:	0e030b13 	vmoveq.32	d3[0], r0
    10e0:	01110e1b 	tsteq	r1, fp, lsl lr
    10e4:	17100612 			; <UNDEFINED> instruction: 0x17100612
    10e8:	24020000 	strcs	r0, [r2], #-0
    10ec:	3e0b0b00 	vmlacc.f64	d0, d11, d0
    10f0:	0008030b 	andeq	r0, r8, fp, lsl #6
    10f4:	00240300 	eoreq	r0, r4, r0, lsl #6
    10f8:	0b3e0b0b 	bleq	f83d2c <__bss_end__+0xf77e6c>
    10fc:	00000e03 	andeq	r0, r0, r3, lsl #28
    1100:	0b000f04 	bleq	4d18 <_start-0x32e8>
    1104:	0013490b 	andseq	r4, r3, fp, lsl #18
    1108:	00260500 	eoreq	r0, r6, r0, lsl #10
    110c:	00001349 	andeq	r1, r0, r9, asr #6
    1110:	49010106 	stmdbmi	r1, {r1, r2, r8}
    1114:	00130113 	andseq	r0, r3, r3, lsl r1
    1118:	00210700 	eoreq	r0, r1, r0, lsl #14
    111c:	0b2f1349 	bleq	bc5e48 <__bss_end__+0xbb9f88>
    1120:	04080000 	streq	r0, [r8], #-0
    1124:	3a0b0b01 	bcc	2c3d30 <__bss_end__+0x2b7e70>
    1128:	010b3b0b 	tsteq	fp, fp, lsl #22
    112c:	09000013 	stmdbeq	r0, {r0, r1, r4}
    1130:	0e030028 	cdpeq	0, 0, cr0, cr3, cr8, {1}
    1134:	00000d1c 	andeq	r0, r0, ip, lsl sp
    1138:	3f012e0a 	svccc	0x00012e0a
    113c:	3a0e0319 	bcc	381da8 <__bss_end__+0x375ee8>
    1140:	270b3b0b 	strcs	r3, [fp, -fp, lsl #22]
    1144:	12011119 	andne	r1, r1, #1073741830	; 0x40000006
    1148:	97184006 	ldrls	r4, [r8, -r6]
    114c:	13011942 	movwne	r1, #6466	; 0x1942
    1150:	340b0000 	strcc	r0, [fp], #-0
    1154:	3a0e0300 	bcc	381d5c <__bss_end__+0x375e9c>
    1158:	490b3b0b 	stmdbmi	fp, {r0, r1, r3, r8, r9, fp, ip, sp}
    115c:	3c193f13 	ldccc	15, cr3, [r9], {19}
    1160:	0c000019 	stceq	0, cr0, [r0], {25}
    1164:	08030034 	stmdaeq	r3, {r2, r4, r5}
    1168:	0b3b0b3a 	bleq	ec3e58 <__bss_end__+0xeb7f98>
    116c:	0b1c1349 	bleq	705e98 <__bss_end__+0x6f9fd8>
    1170:	340d0000 	strcc	r0, [sp], #-0
    1174:	3a080300 	bcc	201d7c <__bss_end__+0x1f5ebc>
    1178:	490b3b0b 	stmdbmi	fp, {r0, r1, r3, r8, r9, fp, ip, sp}
    117c:	0e000013 	mcreq	0, 0, r0, cr0, cr3, {0}
    1180:	08030034 	stmdaeq	r3, {r2, r4, r5}
    1184:	0b3b0b3a 	bleq	ec3e74 <__bss_end__+0xeb7fb4>
    1188:	18021349 	stmdane	r2, {r0, r3, r6, r8, r9, ip}
    118c:	0b0f0000 	bleq	3c1194 <__bss_end__+0x3b52d4>
    1190:	12011101 	andne	r1, r1, #1073741824	; 0x40000000
    1194:	00130106 	andseq	r0, r3, r6, lsl #2
    1198:	00341000 	eorseq	r1, r4, r0
    119c:	0b3a0803 	bleq	e831b0 <__bss_end__+0xe772f0>
    11a0:	13490b3b 	movtne	r0, #39739	; 0x9b3b
    11a4:	00001702 	andeq	r1, r0, r2, lsl #14
    11a8:	01828911 	orreq	r8, r2, r1, lsl r9
    11ac:	31011101 	tstcc	r1, r1, lsl #2
    11b0:	00130113 	andseq	r0, r3, r3, lsl r1
    11b4:	828a1200 	addhi	r1, sl, #0, 4
    11b8:	18020001 	stmdane	r2, {r0}
    11bc:	00184291 	mulseq	r8, r1, r2
    11c0:	82891300 	addhi	r1, r9, #0, 6
    11c4:	01110001 	tsteq	r1, r1
    11c8:	00001331 	andeq	r1, r0, r1, lsr r3
    11cc:	03000514 	movweq	r0, #1300	; 0x514
    11d0:	3b0b3a08 	blcc	2cf9f8 <__bss_end__+0x2c3b38>
    11d4:	0213490b 	andseq	r4, r3, #180224	; 0x2c000
    11d8:	15000017 	strne	r0, [r0, #-23]
    11dc:	0e030034 	mcreq	0, 0, r0, cr3, cr4, {1}
    11e0:	19341349 	ldmdbne	r4!, {r0, r3, r6, r8, r9, ip}
    11e4:	00001802 	andeq	r1, r0, r2, lsl #16
    11e8:	3f012e16 	svccc	0x00012e16
    11ec:	3a0e0319 	bcc	381e58 <__bss_end__+0x375f98>
    11f0:	270b3b0b 	strcs	r3, [fp, -fp, lsl #22]
    11f4:	01193c19 	tsteq	r9, r9, lsl ip
    11f8:	17000013 	smladne	r0, r3, r0, r0
    11fc:	13490005 	movtne	r0, #36869	; 0x9005
    1200:	2e180000 	cdpcs	0, 1, cr0, cr8, cr0, {0}
    1204:	03193f00 	tsteq	r9, #0, 30
    1208:	3b0b3a0e 	blcc	2cfa48 <__bss_end__+0x2c3b88>
    120c:	3c19270b 	ldccc	7, cr2, [r9], {11}
    1210:	19000019 	stmdbne	r0, {r0, r3, r4}
    1214:	193f012e 	ldmdbne	pc!, {r1, r2, r3, r5, r8}	; <UNPREDICTABLE>
    1218:	0b3a0e03 	bleq	e84a2c <__bss_end__+0xe78b6c>
    121c:	19270b3b 	stmdbne	r7!, {r0, r1, r3, r4, r5, r8, r9, fp}
    1220:	193c1349 	ldmdbne	ip!, {r0, r3, r6, r8, r9, ip}
    1224:	00001301 	andeq	r1, r0, r1, lsl #6
    1228:	0000181a 	andeq	r1, r0, sl, lsl r8
    122c:	11010000 	mrsne	r0, (UNDEF: 1)
    1230:	130e2501 	movwne	r2, #58625	; 0xe501
    1234:	1b0e030b 	blne	381e68 <__bss_end__+0x375fa8>
    1238:	1201110e 	andne	r1, r1, #-2147483645	; 0x80000003
    123c:	00171006 	andseq	r1, r7, r6
    1240:	00240200 	eoreq	r0, r4, r0, lsl #4
    1244:	0b3e0b0b 	bleq	f83e78 <__bss_end__+0xf77fb8>
    1248:	00000803 	andeq	r0, r0, r3, lsl #16
    124c:	0b002403 	bleq	a260 <uart_putc_int+0x70>
    1250:	030b3e0b 	movweq	r3, #48651	; 0xbe0b
    1254:	0400000e 	streq	r0, [r0], #-14
    1258:	13490035 	movtne	r0, #36917	; 0x9035
    125c:	16050000 	strne	r0, [r5], -r0
    1260:	3a0e0300 	bcc	381e68 <__bss_end__+0x375fa8>
    1264:	490b3b0b 	stmdbmi	fp, {r0, r1, r3, r8, r9, fp, ip, sp}
    1268:	06000013 			; <UNDEFINED> instruction: 0x06000013
    126c:	0b0b000f 	bleq	2c12b0 <__bss_end__+0x2b53f0>
    1270:	00001349 	andeq	r1, r0, r9, asr #6
    1274:	03001307 	movweq	r1, #775	; 0x307
    1278:	00193c0e 	andseq	r3, r9, lr, lsl #24
    127c:	00160800 	andseq	r0, r6, r0, lsl #16
    1280:	0b3a0e03 	bleq	e84a94 <__bss_end__+0xe78bd4>
    1284:	1349053b 	movtne	r0, #38203	; 0x953b
    1288:	17090000 	strne	r0, [r9, -r0]
    128c:	3a0b0b01 	bcc	2c3e98 <__bss_end__+0x2b7fd8>
    1290:	010b3b0b 	tsteq	fp, fp, lsl #22
    1294:	0a000013 	beq	12e8 <_start-0x6d18>
    1298:	0e03000d 	cdpeq	0, 0, cr0, cr3, cr13, {0}
    129c:	0b3b0b3a 	bleq	ec3f8c <__bss_end__+0xeb80cc>
    12a0:	00001349 	andeq	r1, r0, r9, asr #6
    12a4:	4901010b 	stmdbmi	r1, {r0, r1, r3, r8}
    12a8:	00130113 	andseq	r0, r3, r3, lsl r1
    12ac:	00210c00 	eoreq	r0, r1, r0, lsl #24
    12b0:	0b2f1349 	bleq	bc5fdc <__bss_end__+0xbba11c>
    12b4:	130d0000 	movwne	r0, #53248	; 0xd000
    12b8:	3a0b0b01 	bcc	2c3ec4 <__bss_end__+0x2b8004>
    12bc:	010b3b0b 	tsteq	fp, fp, lsl #22
    12c0:	0e000013 	mcreq	0, 0, r0, cr0, cr3, {0}
    12c4:	0e03000d 	cdpeq	0, 0, cr0, cr3, cr13, {0}
    12c8:	0b3b0b3a 	bleq	ec3fb8 <__bss_end__+0xeb80f8>
    12cc:	0b381349 	bleq	e05ff8 <__bss_end__+0xdfa138>
    12d0:	0f0f0000 	svceq	0x000f0000
    12d4:	000b0b00 	andeq	r0, fp, r0, lsl #22
    12d8:	00261000 	eoreq	r1, r6, r0
    12dc:	00001349 	andeq	r1, r0, r9, asr #6
    12e0:	03011311 	movweq	r1, #4881	; 0x1311
    12e4:	3a0b0b0e 	bcc	2c3f24 <__bss_end__+0x2b8064>
    12e8:	010b3b0b 	tsteq	fp, fp, lsl #22
    12ec:	12000013 	andne	r0, r0, #19
    12f0:	0803000d 	stmdaeq	r3, {r0, r2, r3}
    12f4:	0b3b0b3a 	bleq	ec3fe4 <__bss_end__+0xeb8124>
    12f8:	0b381349 	bleq	e06024 <__bss_end__+0xdfa164>
    12fc:	13130000 	tstne	r3, #0
    1300:	0b0e0301 	bleq	381f0c <__bss_end__+0x37604c>
    1304:	3b0b3a05 	blcc	2cfb20 <__bss_end__+0x2c3c60>
    1308:	0013010b 	andseq	r0, r3, fp, lsl #2
    130c:	000d1400 	andeq	r1, sp, r0, lsl #8
    1310:	0b3a0e03 	bleq	e84b24 <__bss_end__+0xe78c64>
    1314:	13490b3b 	movtne	r0, #39739	; 0x9b3b
    1318:	00000538 	andeq	r0, r0, r8, lsr r5
    131c:	27001515 	smladcs	r0, r5, r5, r1
    1320:	16000019 			; <UNDEFINED> instruction: 0x16000019
    1324:	19270115 	stmdbne	r7!, {r0, r2, r4, r8}
    1328:	13011349 	movwne	r1, #4937	; 0x1349
    132c:	05170000 	ldreq	r0, [r7, #-0]
    1330:	00134900 	andseq	r4, r3, r0, lsl #18
    1334:	01131800 	tsteq	r3, r0, lsl #16
    1338:	050b0e03 	streq	r0, [fp, #-3587]	; 0xe03
    133c:	053b0b3a 	ldreq	r0, [fp, #-2874]!	; 0xb3a
    1340:	00001301 	andeq	r1, r0, r1, lsl #6
    1344:	03000d19 	movweq	r0, #3353	; 0xd19
    1348:	3b0b3a0e 	blcc	2cfb88 <__bss_end__+0x2c3cc8>
    134c:	38134905 	ldmdacc	r3, {r0, r2, r8, fp, lr}
    1350:	1a00000b 	bne	1384 <_start-0x6c7c>
    1354:	0e03000d 	cdpeq	0, 0, cr0, cr3, cr13, {0}
    1358:	053b0b3a 	ldreq	r0, [fp, #-2874]!	; 0xb3a
    135c:	05381349 	ldreq	r1, [r8, #-841]!	; 0x349
    1360:	131b0000 	tstne	fp, #0
    1364:	0b0e0301 	bleq	381f70 <__bss_end__+0x3760b0>
    1368:	3b0b3a0b 	blcc	2cfb9c <__bss_end__+0x2c3cdc>
    136c:	00130105 	andseq	r0, r3, r5, lsl #2
    1370:	01131c00 	tsteq	r3, r0, lsl #24
    1374:	0b3a0b0b 	bleq	e83fa8 <__bss_end__+0xe780e8>
    1378:	1301053b 	movwne	r0, #5435	; 0x153b
    137c:	171d0000 	ldrne	r0, [sp, -r0]
    1380:	3a0b0b01 	bcc	2c3f8c <__bss_end__+0x2b80cc>
    1384:	01053b0b 	tsteq	r5, fp, lsl #22
    1388:	1e000013 	mcrne	0, 0, r0, cr0, cr3, {0}
    138c:	0e03000d 	cdpeq	0, 0, cr0, cr3, cr13, {0}
    1390:	053b0b3a 	ldreq	r0, [fp, #-2874]!	; 0xb3a
    1394:	00001349 	andeq	r1, r0, r9, asr #6
    1398:	2701151f 	smladcs	r1, pc, r5, r1	; <UNPREDICTABLE>
    139c:	00130119 	andseq	r0, r3, r9, lsl r1
    13a0:	00342000 	eorseq	r2, r4, r0
    13a4:	0b3a0e03 	bleq	e84bb8 <__bss_end__+0xe78cf8>
    13a8:	1349053b 	movtne	r0, #38203	; 0x953b
    13ac:	193c193f 	ldmdbne	ip!, {r0, r1, r2, r3, r4, r5, r8, fp, ip}
    13b0:	34210000 	strtcc	r0, [r1], #-0
    13b4:	3a0e0300 	bcc	381fbc <__bss_end__+0x3760fc>
    13b8:	490b3b0b 	stmdbmi	fp, {r0, r1, r3, r8, r9, fp, ip, sp}
    13bc:	3c193f13 	ldccc	15, cr3, [r9], {19}
    13c0:	22000019 	andcs	r0, r0, #25
    13c4:	0b3e0104 	bleq	f817dc <__bss_end__+0xf7591c>
    13c8:	13490b0b 	movtne	r0, #39691	; 0x9b0b
    13cc:	0b3b0b3a 	bleq	ec40bc <__bss_end__+0xeb81fc>
    13d0:	00001301 	andeq	r1, r0, r1, lsl #6
    13d4:	03002823 	movweq	r2, #2083	; 0x823
    13d8:	00061c0e 	andeq	r1, r6, lr, lsl #24
    13dc:	00282400 	eoreq	r2, r8, r0, lsl #8
    13e0:	0b1c0e03 	bleq	704bf4 <__bss_end__+0x6f8d34>
    13e4:	28250000 	stmdacs	r5!, {}	; <UNPREDICTABLE>
    13e8:	1c0e0300 	stcne	3, cr0, [lr], {-0}
    13ec:	26000005 	strcs	r0, [r0], -r5
    13f0:	0e030034 	mcreq	0, 0, r0, cr3, cr4, {1}
    13f4:	0b3b0b3a 	bleq	ec40e4 <__bss_end__+0xeb8224>
    13f8:	061c1349 	ldreq	r1, [ip], -r9, asr #6
    13fc:	13270000 	teqne	r7, #0
    1400:	3a050b01 	bcc	14400c <__bss_end__+0x13814c>
    1404:	010b3b0b 	tsteq	fp, fp, lsl #22
    1408:	28000013 	stmdacs	r0, {r0, r1, r4}
    140c:	0e03000d 	cdpeq	0, 0, cr0, cr3, cr13, {0}
    1410:	0b3b0b3a 	bleq	ec4100 <__bss_end__+0xeb8240>
    1414:	0b0b1349 	bleq	2c6140 <__bss_end__+0x2ba280>
    1418:	0b0c0b0d 	bleq	304054 <__bss_end__+0x2f8194>
    141c:	00000538 	andeq	r0, r0, r8, lsr r5
    1420:	49002129 	stmdbmi	r0, {r0, r3, r5, r8, sp}
    1424:	00052f13 	andeq	r2, r5, r3, lsl pc
    1428:	00342a00 	eorseq	r2, r4, r0, lsl #20
    142c:	0b3a0e03 	bleq	e84c40 <__bss_end__+0xe78d80>
    1430:	13490b3b 	movtne	r0, #39739	; 0x9b3b
    1434:	00001802 	andeq	r1, r0, r2, lsl #16
    1438:	4700342b 	strmi	r3, [r0, -fp, lsr #8]
    143c:	3b0b3a13 	blcc	2cfc90 <__bss_end__+0x2c3dd0>
    1440:	0018020b 	andseq	r0, r8, fp, lsl #4
    1444:	012e2c00 	teqeq	lr, r0, lsl #24
    1448:	0e03193f 	mcreq	9, 0, r1, cr3, cr15, {1}
    144c:	0b3b0b3a 	bleq	ec413c <__bss_end__+0xeb827c>
    1450:	13491927 	movtne	r1, #39207	; 0x9927
    1454:	06120111 			; <UNDEFINED> instruction: 0x06120111
    1458:	42971840 	addsmi	r1, r7, #64, 16	; 0x400000
    145c:	00130119 	andseq	r0, r3, r9, lsl r1
    1460:	00052d00 	andeq	r2, r5, r0, lsl #26
    1464:	0b3a0803 	bleq	e83478 <__bss_end__+0xe775b8>
    1468:	13490b3b 	movtne	r0, #39739	; 0x9b3b
    146c:	00001702 	andeq	r1, r0, r2, lsl #14
    1470:	0300342e 	movweq	r3, #1070	; 0x42e
    1474:	3413490e 	ldrcc	r4, [r3], #-2318	; 0x90e
    1478:	00180219 	andseq	r0, r8, r9, lsl r2
    147c:	00342f00 	eorseq	r2, r4, r0, lsl #30
    1480:	0b3a0803 	bleq	e83494 <__bss_end__+0xe775d4>
    1484:	13490b3b 	movtne	r0, #39739	; 0x9b3b
    1488:	1d300000 	ldcne	0, cr0, [r0, #-0]
    148c:	11133101 	tstne	r3, r1, lsl #2
    1490:	58061201 	stmdapl	r6, {r0, r9, ip}
    1494:	010b590b 	tsteq	fp, fp, lsl #18
    1498:	31000013 	tstcc	r0, r3, lsl r0
    149c:	13310005 	teqne	r1, #5
    14a0:	00001702 	andeq	r1, r0, r2, lsl #14
    14a4:	11010b32 	tstne	r1, r2, lsr fp
    14a8:	00061201 	andeq	r1, r6, r1, lsl #4
    14ac:	00343300 	eorseq	r3, r4, r0, lsl #6
    14b0:	17021331 	smladxne	r2, r1, r3, r1
    14b4:	1d340000 	ldcne	0, cr0, [r4, #-0]
    14b8:	11133101 	tstne	r3, r1, lsl #2
    14bc:	58061201 	stmdapl	r6, {r0, r9, ip}
    14c0:	000b590b 	andeq	r5, fp, fp, lsl #18
    14c4:	00343500 	eorseq	r3, r4, r0, lsl #10
    14c8:	00001331 	andeq	r1, r0, r1, lsr r3
    14cc:	01828936 	orreq	r8, r2, r6, lsr r9
    14d0:	31011100 	mrscc	r1, (UNDEF: 17)
    14d4:	37000013 	smladcc	r0, r3, r0, r0
    14d8:	01018289 	smlabbeq	r1, r9, r2, r8
    14dc:	13310111 	teqne	r1, #1073741828	; 0x40000004
    14e0:	00001301 	andeq	r1, r0, r1, lsl #6
    14e4:	01828a38 	orreq	r8, r2, r8, lsr sl
    14e8:	91180200 	tstls	r8, r0, lsl #4
    14ec:	00001842 	andeq	r1, r0, r2, asr #16
    14f0:	31011d39 	tstcc	r1, r9, lsr sp
    14f4:	55015213 	strpl	r5, [r1, #-531]	; 0x213
    14f8:	590b5817 	stmdbpl	fp, {r0, r1, r2, r4, fp, ip, lr}
    14fc:	0013010b 	andseq	r0, r3, fp, lsl #2
    1500:	010b3a00 	tsteq	fp, r0, lsl #20
    1504:	00001755 	andeq	r1, r0, r5, asr r7
    1508:	0300343b 	movweq	r3, #1083	; 0x43b
    150c:	3b0b3a0e 	blcc	2cfd4c <__bss_end__+0x2c3e8c>
    1510:	0013490b 	andseq	r4, r3, fp, lsl #18
    1514:	012e3c00 	teqeq	lr, r0, lsl #24
    1518:	0e03193f 	mcreq	9, 0, r1, cr3, cr15, {1}
    151c:	0b3b0b3a 	bleq	ec420c <__bss_end__+0xeb834c>
    1520:	01111927 	tsteq	r1, r7, lsr #18
    1524:	18400612 	stmdane	r0, {r1, r4, r9, sl}^
    1528:	01194297 			; <UNDEFINED> instruction: 0x01194297
    152c:	3d000013 	stccc	0, cr0, [r0, #-76]	; 0xffffffb4
    1530:	0e030005 	cdpeq	0, 0, cr0, cr3, cr5, {0}
    1534:	0b3b0b3a 	bleq	ec4224 <__bss_end__+0xeb8364>
    1538:	17021349 	strne	r1, [r2, -r9, asr #6]
    153c:	343e0000 	ldrtcc	r0, [lr], #-0
    1540:	3a080300 	bcc	202148 <__bss_end__+0x1f6288>
    1544:	490b3b0b 	stmdbmi	fp, {r0, r1, r3, r8, r9, fp, ip, sp}
    1548:	00170213 	andseq	r0, r7, r3, lsl r2
    154c:	012e3f00 	teqeq	lr, r0, lsl #30
    1550:	0b3a0e03 	bleq	e84d64 <__bss_end__+0xe78ea4>
    1554:	19270b3b 	stmdbne	r7!, {r0, r1, r3, r4, r5, r8, r9, fp}
    1558:	06120111 			; <UNDEFINED> instruction: 0x06120111
    155c:	42971840 	addsmi	r1, r7, #64, 16	; 0x400000
    1560:	00130119 	andseq	r0, r3, r9, lsl r1
    1564:	82894000 	addhi	r4, r9, #0
    1568:	01110101 	tsteq	r1, r1, lsl #2
    156c:	00001331 	andeq	r1, r0, r1, lsr r3
    1570:	00003541 	andeq	r3, r0, r1, asr #10
    1574:	012e4200 	teqeq	lr, r0, lsl #4
    1578:	0b3a0e03 	bleq	e84d8c <__bss_end__+0xe78ecc>
    157c:	19270b3b 	stmdbne	r7!, {r0, r1, r3, r4, r5, r8, r9, fp}
    1580:	13010b20 	movwne	r0, #6944	; 0x1b20
    1584:	05430000 	strbeq	r0, [r3, #-0]
    1588:	3a080300 	bcc	202190 <__bss_end__+0x1f62d0>
    158c:	490b3b0b 	stmdbmi	fp, {r0, r1, r3, r8, r9, fp, ip, sp}
    1590:	44000013 	strmi	r0, [r0], #-19
    1594:	0e030005 	cdpeq	0, 0, cr0, cr3, cr5, {0}
    1598:	0b3b0b3a 	bleq	ec4288 <__bss_end__+0xeb83c8>
    159c:	00001349 	andeq	r1, r0, r9, asr #6
    15a0:	03003445 	movweq	r3, #1093	; 0x445
    15a4:	3413490e 	ldrcc	r4, [r3], #-2318	; 0x90e
    15a8:	000e1c19 	andeq	r1, lr, r9, lsl ip
    15ac:	012e4600 	teqeq	lr, r0, lsl #12
    15b0:	0b3a0e03 	bleq	e84dc4 <__bss_end__+0xe78f04>
    15b4:	19270b3b 	stmdbne	r7!, {r0, r1, r3, r4, r5, r8, r9, fp}
    15b8:	0b201349 	bleq	8062e4 <__bss_end__+0x7fa424>
    15bc:	00001301 	andeq	r1, r0, r1, lsl #6
    15c0:	3f002e47 	svccc	0x00002e47
    15c4:	3a0e0319 	bcc	382230 <__bss_end__+0x376370>
    15c8:	270b3b0b 	strcs	r3, [fp, -fp, lsl #22]
    15cc:	11134919 	tstne	r3, r9, lsl r9
    15d0:	40061201 	andmi	r1, r6, r1, lsl #4
    15d4:	19429718 	stmdbne	r2, {r3, r4, r8, r9, sl, ip, pc}^
    15d8:	2e480000 	cdpcs	0, 4, cr0, cr8, cr0, {0}
    15dc:	3a0e0300 	bcc	3821e4 <__bss_end__+0x376324>
    15e0:	270b3b0b 	strcs	r3, [fp, -fp, lsl #22]
    15e4:	20134919 	andscs	r4, r3, r9, lsl r9
    15e8:	4900000b 	stmdbmi	r0, {r0, r1, r3}
    15ec:	193f002e 	ldmdbne	pc!, {r1, r2, r3, r5}	; <UNPREDICTABLE>
    15f0:	0e6e193c 	mcreq	9, 3, r1, cr14, cr12, {1}
    15f4:	0b3a0e03 	bleq	e84e08 <__bss_end__+0xe78f48>
    15f8:	00000b3b 	andeq	r0, r0, fp, lsr fp
    15fc:	01110100 	tsteq	r1, r0, lsl #2
    1600:	0b130e25 	bleq	4c4e9c <__bss_end__+0x4b8fdc>
    1604:	0e1b0e03 	cdpeq	14, 1, cr0, cr11, cr3, {0}
    1608:	06120111 			; <UNDEFINED> instruction: 0x06120111
    160c:	00001710 	andeq	r1, r0, r0, lsl r7
    1610:	0b002402 	bleq	a620 <__FUNCTION__.4327+0x3c>
    1614:	030b3e0b 	movweq	r3, #48651	; 0xbe0b
    1618:	0300000e 	movweq	r0, #14
    161c:	0b0b0024 	bleq	2c16b4 <__bss_end__+0x2b57f4>
    1620:	08030b3e 	stmdaeq	r3, {r1, r2, r3, r4, r5, r8, r9, fp}
    1624:	0f040000 	svceq	0x00040000
    1628:	000b0b00 	andeq	r0, fp, r0, lsl #22
    162c:	000f0500 	andeq	r0, pc, r0, lsl #10
    1630:	13490b0b 	movtne	r0, #39691	; 0x9b0b
    1634:	16060000 	strne	r0, [r6], -r0
    1638:	3a0e0300 	bcc	382240 <__bss_end__+0x376380>
    163c:	490b3b0b 	stmdbmi	fp, {r0, r1, r3, r8, r9, fp, ip, sp}
    1640:	07000013 	smladeq	r0, r3, r0, r0
    1644:	193f012e 	ldmdbne	pc!, {r1, r2, r3, r5, r8}	; <UNPREDICTABLE>
    1648:	0b3a0e03 	bleq	e84e5c <__bss_end__+0xe78f9c>
    164c:	19270b3b 	stmdbne	r7!, {r0, r1, r3, r4, r5, r8, r9, fp}
    1650:	01111349 	tsteq	r1, r9, asr #6
    1654:	18400612 	stmdane	r0, {r1, r4, r9, sl}^
    1658:	00194297 	mulseq	r9, r7, r2
    165c:	00050800 	andeq	r0, r5, r0, lsl #16
    1660:	0b3a0803 	bleq	e83674 <__bss_end__+0xe777b4>
    1664:	13490b3b 	movtne	r0, #39739	; 0x9b3b
    1668:	00001802 	andeq	r1, r0, r2, lsl #16
    166c:	03000509 	movweq	r0, #1289	; 0x509
    1670:	3b0b3a08 	blcc	2cfe98 <__bss_end__+0x2c3fd8>
    1674:	0213490b 	andseq	r4, r3, #180224	; 0x2c000
    1678:	0a000017 	beq	16dc <_start-0x6924>
    167c:	08030034 	stmdaeq	r3, {r2, r4, r5}
    1680:	0b3b0b3a 	bleq	ec4370 <__bss_end__+0xeb84b0>
    1684:	17021349 	strne	r1, [r2, -r9, asr #6]
    1688:	340b0000 	strcc	r0, [fp], #-0
    168c:	3a080300 	bcc	202294 <__bss_end__+0x1f63d4>
    1690:	490b3b0b 	stmdbmi	fp, {r0, r1, r3, r8, r9, fp, ip, sp}
    1694:	00180213 	andseq	r0, r8, r3, lsl r2
    1698:	11010000 	mrsne	r0, (UNDEF: 1)
    169c:	130e2501 	movwne	r2, #58625	; 0xe501
    16a0:	1b0e030b 	blne	3822d4 <__bss_end__+0x376414>
    16a4:	1201110e 	andne	r1, r1, #-2147483645	; 0x80000003
    16a8:	00171006 	andseq	r1, r7, r6
    16ac:	00240200 	eoreq	r0, r4, r0, lsl #4
    16b0:	0b3e0b0b 	bleq	f842e4 <__bss_end__+0xf78424>
    16b4:	00000803 	andeq	r0, r0, r3, lsl #16
    16b8:	03001603 	movweq	r1, #1539	; 0x603
    16bc:	3b0b3a0e 	blcc	2cfefc <__bss_end__+0x2c403c>
    16c0:	0013490b 	andseq	r4, r3, fp, lsl #18
    16c4:	00240400 	eoreq	r0, r4, r0, lsl #8
    16c8:	0b3e0b0b 	bleq	f842fc <__bss_end__+0xf7843c>
    16cc:	00000e03 	andeq	r0, r0, r3, lsl #28
    16d0:	0b000f05 	bleq	52ec <_start-0x2d14>
    16d4:	0600000b 	streq	r0, [r0], -fp
    16d8:	0b0b0113 	bleq	2c1b2c <__bss_end__+0x2b5c6c>
    16dc:	0b3b0b3a 	bleq	ec43cc <__bss_end__+0xeb850c>
    16e0:	00001301 	andeq	r1, r0, r1, lsl #6
    16e4:	03000d07 	movweq	r0, #3335	; 0xd07
    16e8:	3b0b3a08 	blcc	2cff10 <__bss_end__+0x2c4050>
    16ec:	3813490b 	ldmdacc	r3, {r0, r1, r3, r8, fp, lr}
    16f0:	0800000b 	stmdaeq	r0, {r0, r1, r3}
    16f4:	0e03000d 	cdpeq	0, 0, cr0, cr3, cr13, {0}
    16f8:	0b3b0b3a 	bleq	ec43e8 <__bss_end__+0xeb8528>
    16fc:	0b381349 	bleq	e06428 <__bss_end__+0xdfa568>
    1700:	04090000 	streq	r0, [r9], #-0
    1704:	3a0b0b01 	bcc	2c4310 <__bss_end__+0x2b8450>
    1708:	010b3b0b 	tsteq	fp, fp, lsl #22
    170c:	0a000013 	beq	1760 <_start-0x68a0>
    1710:	0e030028 	cdpeq	0, 0, cr0, cr3, cr8, {1}
    1714:	00000d1c 	andeq	r0, r0, ip, lsl sp
    1718:	3f012e0b 	svccc	0x00012e0b
    171c:	3a0e0319 	bcc	382388 <__bss_end__+0x3764c8>
    1720:	270b3b0b 	strcs	r3, [fp, -fp, lsl #22]
    1724:	11134919 	tstne	r3, r9, lsl r9
    1728:	40061201 	andmi	r1, r6, r1, lsl #4
    172c:	19429718 	stmdbne	r2, {r3, r4, r8, r9, sl, ip, pc}^
    1730:	00001301 	andeq	r1, r0, r1, lsl #6
    1734:	0300340c 	movweq	r3, #1036	; 0x40c
    1738:	3b0b3a08 	blcc	2cff60 <__bss_end__+0x2c40a0>
    173c:	1c13490b 	ldcne	9, cr4, [r3], {11}
    1740:	0d000006 	stceq	0, cr0, [r0, #-24]	; 0xffffffe8
    1744:	01018289 	smlabbeq	r1, r9, r2, r8
    1748:	13310111 	teqne	r1, #1073741828	; 0x40000004
    174c:	8a0e0000 	bhi	381754 <__bss_end__+0x375894>
    1750:	02000182 	andeq	r0, r0, #-2147483616	; 0x80000020
    1754:	18429118 	stmdane	r2, {r3, r4, r8, ip, pc}^
    1758:	0f0f0000 	svceq	0x000f0000
    175c:	490b0b00 	stmdbmi	fp, {r8, r9, fp}
    1760:	10000013 	andne	r0, r0, r3, lsl r0
    1764:	193f012e 	ldmdbne	pc!, {r1, r2, r3, r5, r8}	; <UNPREDICTABLE>
    1768:	0b3a0e03 	bleq	e84f7c <__bss_end__+0xe790bc>
    176c:	19270b3b 	stmdbne	r7!, {r0, r1, r3, r4, r5, r8, r9, fp}
    1770:	193c1349 	ldmdbne	ip!, {r0, r3, r6, r8, r9, ip}
    1774:	05110000 	ldreq	r0, [r1, #-0]
    1778:	00134900 	andseq	r4, r3, r0, lsl #18
	...

Disassembly of section .debug_loc:

00000000 <.debug_loc>:
       0:	00000000 	andeq	r0, r0, r0
       4:	00000014 	andeq	r0, r0, r4, lsl r0
       8:	14500001 	ldrbne	r0, [r0], #-1
       c:	2c000000 	stccs	0, cr0, [r0], {-0}
      10:	01000000 	mrseq	r0, (UNDEF: 0)
      14:	00005600 	andeq	r5, r0, r0, lsl #12
	...
      20:	00140000 	andseq	r0, r4, r0
      24:	00010000 	andeq	r0, r1, r0
      28:	00001451 	andeq	r1, r0, r1, asr r4
      2c:	00002c00 	andeq	r2, r0, r0, lsl #24
      30:	55000100 	strpl	r0, [r0, #-256]	; 0x100
	...
      3c:	0000000c 	andeq	r0, r0, ip
      40:	00000014 	andeq	r0, r0, r4, lsl r0
      44:	14500001 	ldrbne	r0, [r0], #-1
      48:	2c000000 	stccs	0, cr0, [r0], {-0}
      4c:	01000000 	mrseq	r0, (UNDEF: 0)
      50:	00005600 	andeq	r5, r0, r0, lsl #12
      54:	00000000 	andeq	r0, r0, r0
      58:	000c0000 	andeq	r0, ip, r0
      5c:	00140000 	andseq	r0, r4, r0
      60:	00020000 	andeq	r0, r2, r0
      64:	00149f30 	andseq	r9, r4, r0, lsr pc
      68:	002c0000 	eoreq	r0, ip, r0
      6c:	00010000 	andeq	r0, r1, r0
      70:	00000054 	andeq	r0, r0, r4, asr r0
      74:	00000000 	andeq	r0, r0, r0
      78:	00004c00 	andeq	r4, r0, r0, lsl #24
      7c:	00005800 	andeq	r5, r0, r0, lsl #16
      80:	50000100 	andpl	r0, r0, r0, lsl #2
      84:	00000058 	andeq	r0, r0, r8, asr r0
      88:	0000006c 	andeq	r0, r0, ip, rrx
      8c:	00540001 	subseq	r0, r4, r1
      90:	00000000 	andeq	r0, r0, r0
      94:	54000000 	strpl	r0, [r0], #-0
      98:	58000000 	stmdapl	r0, {}	; <UNPREDICTABLE>
      9c:	01000000 	mrseq	r0, (UNDEF: 0)
      a0:	00585000 	subseq	r5, r8, r0
      a4:	006c0000 	rsbeq	r0, ip, r0
      a8:	00010000 	andeq	r0, r1, r0
      ac:	00000054 	andeq	r0, r0, r4, asr r0
      b0:	00000000 	andeq	r0, r0, r0
      b4:	00006c00 	andeq	r6, r0, r0, lsl #24
      b8:	00008000 	andeq	r8, r0, r0
      bc:	50000100 	andpl	r0, r0, r0, lsl #2
      c0:	00000080 	andeq	r0, r0, r0, lsl #1
      c4:	00000098 	muleq	r0, r8, r0
      c8:	00560001 	subseq	r0, r6, r1
      cc:	00000000 	andeq	r0, r0, r0
      d0:	6c000000 	stcvs	0, cr0, [r0], {-0}
      d4:	80000000 	andhi	r0, r0, r0
      d8:	01000000 	mrseq	r0, (UNDEF: 0)
      dc:	00805100 	addeq	r5, r0, r0, lsl #2
      e0:	00980000 	addseq	r0, r8, r0
      e4:	00010000 	andeq	r0, r1, r0
      e8:	00000055 	andeq	r0, r0, r5, asr r0
      ec:	00000000 	andeq	r0, r0, r0
      f0:	00007800 	andeq	r7, r0, r0, lsl #16
      f4:	00008000 	andeq	r8, r0, r0
      f8:	50000100 	andpl	r0, r0, r0, lsl #2
      fc:	00000080 	andeq	r0, r0, r0, lsl #1
     100:	00000098 	muleq	r0, r8, r0
     104:	00560001 	subseq	r0, r6, r1
     108:	00000000 	andeq	r0, r0, r0
     10c:	78000000 	stmdavc	r0, {}	; <UNPREDICTABLE>
     110:	80000000 	andhi	r0, r0, r0
     114:	02000000 	andeq	r0, r0, #0
     118:	809f3000 	addshi	r3, pc, r0
     11c:	98000000 	stmdals	r0, {}	; <UNPREDICTABLE>
     120:	01000000 	mrseq	r0, (UNDEF: 0)
     124:	00005400 	andeq	r5, r0, r0, lsl #8
     128:	00000000 	andeq	r0, r0, r0
     12c:	00980000 	addseq	r0, r8, r0
     130:	00ac0000 	adceq	r0, ip, r0
     134:	00010000 	andeq	r0, r1, r0
     138:	0000ac50 	andeq	sl, r0, r0, asr ip
     13c:	0000b300 	andeq	fp, r0, r0, lsl #6
     140:	70000200 	andvc	r0, r0, r0, lsl #4
     144:	0000b300 	andeq	fp, r0, r0, lsl #6
     148:	0000bc00 	andeq	fp, r0, r0, lsl #24
     14c:	91000200 	mrsls	r0, R8_usr
     150:	0000006c 	andeq	r0, r0, ip, rrx
     154:	00000000 	andeq	r0, r0, r0
     158:	0000bc00 	andeq	fp, r0, r0, lsl #24
     15c:	0000c300 	andeq	ip, r0, r0, lsl #6
     160:	50000100 	andpl	r0, r0, r0, lsl #2
     164:	000000c3 	andeq	r0, r0, r3, asr #1
     168:	000000c8 	andeq	r0, r0, r8, asr #1
     16c:	01f30004 	mvnseq	r0, r4
     170:	00009f50 	andeq	r9, r0, r0, asr pc
     174:	00000000 	andeq	r0, r0, r0
     178:	01280000 	teqeq	r8, r0
     17c:	01780000 	cmneq	r8, r0
     180:	00010000 	andeq	r0, r1, r0
     184:	00017850 	andeq	r7, r1, r0, asr r8
     188:	00018800 	andeq	r8, r1, r0, lsl #16
     18c:	54000100 	strpl	r0, [r0], #-256	; 0x100
     190:	00000188 	andeq	r0, r0, r8, lsl #3
     194:	0000018b 	andeq	r0, r0, fp, lsl #3
     198:	8b500001 	blhi	14001a4 <__bss_end__+0x13f42e4>
     19c:	94000001 	strls	r0, [r0], #-1
     1a0:	01000001 	tsteq	r0, r1
     1a4:	01a85400 			; <UNDEFINED> instruction: 0x01a85400
     1a8:	01ab0000 			; <UNDEFINED> instruction: 0x01ab0000
     1ac:	00010000 	andeq	r0, r1, r0
     1b0:	0001ab50 	andeq	sl, r1, r0, asr fp
     1b4:	0001b000 	andeq	fp, r1, r0
     1b8:	54000100 	strpl	r0, [r0], #-256	; 0x100
     1bc:	000001c4 	andeq	r0, r0, r4, asr #3
     1c0:	000001c7 	andeq	r0, r0, r7, asr #3
     1c4:	c7500001 	ldrbgt	r0, [r0, -r1]
     1c8:	d4000001 	strle	r0, [r0], #-1
     1cc:	01000001 	tsteq	r0, r1
     1d0:	01d45400 	bicseq	r5, r4, r0, lsl #8
     1d4:	01d70000 	bicseq	r0, r7, r0
     1d8:	00010000 	andeq	r0, r1, r0
     1dc:	0001d750 	andeq	sp, r1, r0, asr r7
     1e0:	0001e400 	andeq	lr, r1, r0, lsl #8
     1e4:	54000100 	strpl	r0, [r0], #-256	; 0x100
     1e8:	000001f8 	strdeq	r0, [r0], -r8
     1ec:	000001fb 	strdeq	r0, [r0], -fp
     1f0:	fb500001 	blx	14001fe <__bss_end__+0x13f433e>
     1f4:	08000001 	stmdaeq	r0, {r0}
     1f8:	01000002 	tsteq	r0, r2
     1fc:	02085400 	andeq	r5, r8, #0, 8
     200:	020b0000 	andeq	r0, fp, #0
     204:	00010000 	andeq	r0, r1, r0
     208:	00020b50 	andeq	r0, r2, r0, asr fp
     20c:	00021000 	andeq	r1, r2, r0
     210:	54000100 	strpl	r0, [r0], #-256	; 0x100
     214:	00000224 	andeq	r0, r0, r4, lsr #4
     218:	00000227 	andeq	r0, r0, r7, lsr #4
     21c:	27500001 	ldrbcs	r0, [r0, -r1]
     220:	34000002 	strcc	r0, [r0], #-2
     224:	01000002 	tsteq	r0, r2
     228:	02345400 	eorseq	r5, r4, #0, 8
     22c:	02370000 	eorseq	r0, r7, #0
     230:	00010000 	andeq	r0, r1, r0
     234:	00023750 	andeq	r3, r2, r0, asr r7
     238:	00024400 	andeq	r4, r2, r0, lsl #8
     23c:	54000100 	strpl	r0, [r0], #-256	; 0x100
     240:	00000244 	andeq	r0, r0, r4, asr #4
     244:	00000247 	andeq	r0, r0, r7, asr #4
     248:	47500001 	ldrbmi	r0, [r0, -r1]
     24c:	80000002 	andhi	r0, r0, r2
     250:	01000002 	tsteq	r0, r2
     254:	00005400 	andeq	r5, r0, r0, lsl #8
     258:	00000000 	andeq	r0, r0, r0
     25c:	01c80000 	biceq	r0, r8, r0
     260:	01cf0000 	biceq	r0, pc, r0
     264:	00010000 	andeq	r0, r1, r0
     268:	0001d850 	andeq	sp, r1, r0, asr r8
     26c:	0001df00 	andeq	sp, r1, r0, lsl #30
     270:	50000100 	andpl	r0, r0, r0, lsl #2
     274:	000001fc 	strdeq	r0, [r0], -ip
     278:	00000203 	andeq	r0, r0, r3, lsl #4
     27c:	10500001 	subsne	r0, r0, r1
     280:	13000002 	movwne	r0, #2
     284:	01000002 	tsteq	r0, r2
     288:	02135000 	andseq	r5, r3, #0
     28c:	02240000 	eoreq	r0, r4, #0
     290:	00010000 	andeq	r0, r1, r0
     294:	00022854 	andeq	r2, r2, r4, asr r8
     298:	00022f00 	andeq	r2, r2, r0, lsl #30
     29c:	50000100 	andpl	r0, r0, r0, lsl #2
     2a0:	00000238 	andeq	r0, r0, r8, lsr r2
     2a4:	0000023f 	andeq	r0, r0, pc, lsr r2
     2a8:	00500001 	subseq	r0, r0, r1
     2ac:	00000000 	andeq	r0, r0, r0
     2b0:	8c000000 	stchi	0, cr0, [r0], {-0}
     2b4:	8f000001 	svchi	0x00000001
     2b8:	01000001 	tsteq	r0, r1
     2bc:	01b05000 	movseq	r5, r0
     2c0:	01b30000 			; <UNDEFINED> instruction: 0x01b30000
     2c4:	00010000 	andeq	r0, r1, r0
     2c8:	0001b350 	andeq	fp, r1, r0, asr r3
     2cc:	0001c400 	andeq	ip, r1, r0, lsl #8
     2d0:	54000100 	strpl	r0, [r0], #-256	; 0x100
	...
     2dc:	00000194 	muleq	r0, r4, r1
     2e0:	00000198 	muleq	r0, r8, r1
     2e4:	98500001 	ldmdals	r0, {r0}^
     2e8:	a8000001 	stmdage	r0, {r0}
     2ec:	01000001 	tsteq	r0, r1
     2f0:	01b85400 			; <UNDEFINED> instruction: 0x01b85400
     2f4:	01bc0000 			; <UNDEFINED> instruction: 0x01bc0000
     2f8:	00010000 	andeq	r0, r1, r0
     2fc:	0001bc50 	andeq	fp, r1, r0, asr ip
     300:	0001bf00 	andeq	fp, r1, r0, lsl #30
     304:	51000100 	mrspl	r0, (UNDEF: 16)
     308:	000001e4 	andeq	r0, r0, r4, ror #3
     30c:	000001e8 	andeq	r0, r0, r8, ror #3
     310:	e8500001 	ldmda	r0, {r0}^
     314:	f8000001 			; <UNDEFINED> instruction: 0xf8000001
     318:	01000001 	tsteq	r0, r1
     31c:	02185400 	andseq	r5, r8, #0, 8
     320:	021c0000 	andseq	r0, ip, #0
     324:	00010000 	andeq	r0, r1, r0
     328:	00021c50 	andeq	r1, r2, r0, asr ip
     32c:	00021f00 	andeq	r1, r2, r0, lsl #30
     330:	51000100 	mrspl	r0, (UNDEF: 16)
	...
     33c:	0000002c 	andeq	r0, r0, ip, lsr #32
     340:	00000038 	andeq	r0, r0, r8, lsr r0
     344:	38500001 	ldmdacc	r0, {r0}^
     348:	48000000 	stmdami	r0, {}	; <UNPREDICTABLE>
     34c:	01000000 	mrseq	r0, (UNDEF: 0)
     350:	00485500 	subeq	r5, r8, r0, lsl #10
     354:	00580000 	subseq	r0, r8, r0
     358:	00010000 	andeq	r0, r1, r0
     35c:	00000050 	andeq	r0, r0, r0, asr r0
	...
     368:	00000b00 	andeq	r0, r0, r0, lsl #22
     36c:	50000100 	andpl	r0, r0, r0, lsl #2
     370:	0000000b 	andeq	r0, r0, fp
     374:	00000014 	andeq	r0, r0, r4, lsl r0
     378:	00540001 	subseq	r0, r4, r1
	...
     384:	10000000 	andne	r0, r0, r0
     388:	01000000 	mrseq	r0, (UNDEF: 0)
     38c:	00105000 	andseq	r5, r0, r0
     390:	00340000 	eorseq	r0, r4, r0
     394:	00010000 	andeq	r0, r1, r0
     398:	00000054 	andeq	r0, r0, r4, asr r0
	...
     3a4:	00000400 	andeq	r0, r0, r0, lsl #8
     3a8:	50000100 	andpl	r0, r0, r0, lsl #2
     3ac:	00000004 	andeq	r0, r0, r4
     3b0:	0000000c 	andeq	r0, r0, ip
     3b4:	30700003 	rsbscc	r0, r0, r3
     3b8:	00000c9f 	muleq	r0, pc, ip	; <UNPREDICTABLE>
     3bc:	00001400 	andeq	r1, r0, r0, lsl #8
     3c0:	f3000400 	vshl.u8	d0, d0, d0
     3c4:	009f5001 	addseq	r5, pc, r1
     3c8:	00000000 	andeq	r0, r0, r0
     3cc:	14000000 	strne	r0, [r0], #-0
     3d0:	20000000 	andcs	r0, r0, r0
     3d4:	01000000 	mrseq	r0, (UNDEF: 0)
     3d8:	00205000 	eoreq	r5, r0, r0
     3dc:	002c0000 	eoreq	r0, ip, r0
     3e0:	00030000 	andeq	r0, r3, r0
     3e4:	2c9f0170 	ldfcss	f0, [pc], {112}	; 0x70
     3e8:	40000000 	andmi	r0, r0, r0
     3ec:	01000000 	mrseq	r0, (UNDEF: 0)
     3f0:	00005000 	andeq	r5, r0, r0
     3f4:	00000000 	andeq	r0, r0, r0
     3f8:	00140000 	andseq	r0, r4, r0
     3fc:	00180000 	andseq	r0, r8, r0
     400:	00010000 	andeq	r0, r1, r0
     404:	00001851 	andeq	r1, r0, r1, asr r8
     408:	00004000 	andeq	r4, r0, r0
     40c:	f3000400 	vshl.u8	d0, d0, d0
     410:	009f5101 	addseq	r5, pc, r1, lsl #2
     414:	00000000 	andeq	r0, r0, r0
     418:	40000000 	andmi	r0, r0, r0
     41c:	60000000 	andvs	r0, r0, r0
     420:	01000000 	mrseq	r0, (UNDEF: 0)
     424:	00605000 	rsbeq	r5, r0, r0
     428:	006c0000 	rsbeq	r0, ip, r0
     42c:	00030000 	andeq	r0, r3, r0
     430:	6c9f0171 	ldfvss	f0, [pc], {113}	; 0x71
     434:	74000000 	strvc	r0, [r0], #-0
     438:	01000000 	mrseq	r0, (UNDEF: 0)
     43c:	00745100 	rsbseq	r5, r4, r0, lsl #2
     440:	00800000 	addeq	r0, r0, r0
     444:	00030000 	andeq	r0, r3, r0
     448:	009f0171 	addseq	r0, pc, r1, ror r1	; <UNPREDICTABLE>
     44c:	00000000 	andeq	r0, r0, r0
     450:	40000000 	andmi	r0, r0, r0
     454:	50000000 	andpl	r0, r0, r0
     458:	01000000 	mrseq	r0, (UNDEF: 0)
     45c:	00505100 	subseq	r5, r0, r0, lsl #2
     460:	00800000 	addeq	r0, r0, r0
     464:	00040000 	andeq	r0, r4, r0
     468:	9f5101f3 	svcls	0x005101f3
	...
     474:	00000040 	andeq	r0, r0, r0, asr #32
     478:	00000058 	andeq	r0, r0, r8, asr r0
     47c:	58520001 	ldmdapl	r2, {r0}^
     480:	64000000 	strvs	r0, [r0], #-0
     484:	01000000 	mrseq	r0, (UNDEF: 0)
     488:	00645200 	rsbeq	r5, r4, r0, lsl #4
     48c:	00680000 	rsbeq	r0, r8, r0
     490:	00030000 	andeq	r0, r3, r0
     494:	689f0172 	ldmvs	pc, {r1, r4, r5, r6, r8}	; <UNPREDICTABLE>
     498:	80000000 	andhi	r0, r0, r0
     49c:	01000000 	mrseq	r0, (UNDEF: 0)
     4a0:	00005200 	andeq	r5, r0, r0, lsl #4
     4a4:	00000000 	andeq	r0, r0, r0
     4a8:	00400000 	subeq	r0, r0, r0
     4ac:	00540000 	subseq	r0, r4, r0
     4b0:	00010000 	andeq	r0, r1, r0
     4b4:	00005453 	andeq	r5, r0, r3, asr r4
     4b8:	00007800 	andeq	r7, r0, r0, lsl #16
     4bc:	53000100 	movwpl	r0, #256	; 0x100
	...
     4c8:	00000048 	andeq	r0, r0, r8, asr #32
     4cc:	00000060 	andeq	r0, r0, r0, rrx
     4d0:	605c0001 	subsvs	r0, ip, r1
     4d4:	80000000 	andhi	r0, r0, r0
     4d8:	0a000000 	beq	4e0 <_start-0x7b20>
     4dc:	5201f300 	andpl	pc, r1, #0, 6
     4e0:	1c5301f3 	ldfnee	f0, [r3], {243}	; 0xf3
     4e4:	009f0123 	addseq	r0, pc, r3, lsr #2
     4e8:	00000000 	andeq	r0, r0, r0
     4ec:	80000000 	andhi	r0, r0, r0
     4f0:	a4000000 	strge	r0, [r0], #-0
     4f4:	01000000 	mrseq	r0, (UNDEF: 0)
     4f8:	00a45000 	adceq	r5, r4, r0
     4fc:	01180000 	tsteq	r8, r0
     500:	00030000 	andeq	r0, r3, r0
     504:	189f0270 	ldmne	pc, {r4, r5, r6, r9}	; <UNPREDICTABLE>
     508:	1c000001 	stcne	0, cr0, [r0], {1}
     50c:	04000002 	streq	r0, [r0], #-2
     510:	5001f300 	andpl	pc, r1, r0, lsl #6
     514:	0000009f 	muleq	r0, pc, r0	; <UNPREDICTABLE>
     518:	00000000 	andeq	r0, r0, r0
     51c:	00008000 	andeq	r8, r0, r0
     520:	0000f000 	andeq	pc, r0, r0
     524:	51000100 	mrspl	r0, (UNDEF: 16)
     528:	000000f0 	strdeq	r0, [r0], -r0	; <UNPREDICTABLE>
     52c:	00000160 	andeq	r0, r0, r0, ror #2
     530:	60550001 	subsvs	r0, r5, r1
     534:	68000001 	stmdavs	r0, {r0}
     538:	01000001 	tsteq	r0, r1
     53c:	01685100 	cmneq	r8, r0, lsl #2
     540:	01880000 	orreq	r0, r8, r0
     544:	00010000 	andeq	r0, r1, r0
     548:	00018855 	andeq	r8, r1, r5, asr r8
     54c:	00019c00 	andeq	r9, r1, r0, lsl #24
     550:	51000100 	mrspl	r0, (UNDEF: 16)
     554:	0000019c 	muleq	r0, ip, r1
     558:	000001bc 			; <UNDEFINED> instruction: 0x000001bc
     55c:	bc550001 	mrrclt	0, 0, r0, r5, cr1
     560:	bf000001 	svclt	0x00000001
     564:	01000001 	tsteq	r0, r1
     568:	01bf5100 			; <UNDEFINED> instruction: 0x01bf5100
     56c:	02000000 	andeq	r0, r0, #0
     570:	00010000 	andeq	r0, r1, r0
     574:	00020055 	andeq	r0, r2, r5, asr r0
     578:	00021c00 	andeq	r1, r2, r0, lsl #24
     57c:	f3000400 	vshl.u8	d0, d0, d0
     580:	009f5101 	addseq	r5, pc, r1, lsl #2
     584:	00000000 	andeq	r0, r0, r0
     588:	80000000 	andhi	r0, r0, r0
     58c:	94000000 	strls	r0, [r0], #-0
     590:	01000000 	mrseq	r0, (UNDEF: 0)
     594:	00945200 	addseq	r5, r4, r0, lsl #4
     598:	02000000 	andeq	r0, r0, #0
     59c:	00010000 	andeq	r0, r1, r0
     5a0:	00020054 	andeq	r0, r2, r4, asr r0
     5a4:	00021c00 	andeq	r1, r2, r0, lsl #24
     5a8:	f3000400 	vshl.u8	d0, d0, d0
     5ac:	009f5201 	addseq	r5, pc, r1, lsl #4
     5b0:	00000000 	andeq	r0, r0, r0
     5b4:	80000000 	andhi	r0, r0, r0
     5b8:	00000000 	andeq	r0, r0, r0
     5bc:	01000001 	tsteq	r0, r1
     5c0:	01045300 	mrseq	r5, LR_abt
     5c4:	01080000 	mrseq	r0, (UNDEF: 8)
     5c8:	00010000 	andeq	r0, r1, r0
     5cc:	00016053 	andeq	r6, r1, r3, asr r0
     5d0:	00016800 	andeq	r6, r1, r0, lsl #16
     5d4:	53000100 	movwpl	r0, #256	; 0x100
     5d8:	00000168 	andeq	r0, r0, r8, ror #2
     5dc:	00000188 	andeq	r0, r0, r8, lsl #3
     5e0:	01f30004 	mvnseq	r0, r4
     5e4:	01889f53 	orreq	r9, r8, r3, asr pc
     5e8:	01900000 	orrseq	r0, r0, r0
     5ec:	00010000 	andeq	r0, r1, r0
     5f0:	00019053 	andeq	r9, r1, r3, asr r0
     5f4:	00019400 	andeq	r9, r1, r0, lsl #8
     5f8:	5c000100 	stfpls	f0, [r0], {-0}
     5fc:	00000194 	muleq	r0, r4, r1
     600:	0000019c 	muleq	r0, ip, r1
     604:	9c530001 	mrrcls	0, 0, r0, r3, cr1
     608:	bc000001 	stclt	0, cr0, [r0], {1}
     60c:	04000001 	streq	r0, [r0], #-1
     610:	5301f300 	movwpl	pc, #4864	; 0x1300	; <UNPREDICTABLE>
     614:	0001bc9f 	muleq	r1, pc, ip	; <UNPREDICTABLE>
     618:	0001bf00 	andeq	fp, r1, r0, lsl #30
     61c:	53000100 	movwpl	r0, #256	; 0x100
     620:	000001bf 			; <UNDEFINED> instruction: 0x000001bf
     624:	000001d8 	ldrdeq	r0, [r0], -r8
     628:	01f30004 	mvnseq	r0, r4
     62c:	00009f53 	andeq	r9, r0, r3, asr pc
     630:	00000000 	andeq	r0, r0, r0
     634:	00800000 	addeq	r0, r0, r0
     638:	009c0000 	addseq	r0, ip, r0
     63c:	00020000 	andeq	r0, r2, r0
     640:	009c0091 	umullseq	r0, ip, r1, r0
     644:	01bf0000 			; <UNDEFINED> instruction: 0x01bf0000
     648:	00010000 	andeq	r0, r1, r0
     64c:	0001d852 	andeq	sp, r1, r2, asr r8
     650:	0001e300 	andeq	lr, r1, r0, lsl #6
     654:	52000100 	andpl	r0, r0, #0, 2
	...
     660:	0000009c 	muleq	r0, ip, r0
     664:	00000118 	andeq	r0, r0, r8, lsl r1
     668:	185d0001 	ldmdane	sp, {r0}^
     66c:	1c000001 	stcne	0, cr0, [r0], {1}
     670:	01000001 	tsteq	r0, r1
     674:	011c5300 	tsteq	ip, r0, lsl #6
     678:	01200000 	teqeq	r0, r0
     67c:	00010000 	andeq	r0, r1, r0
     680:	00012051 	andeq	r2, r1, r1, asr r0
     684:	00016000 	andeq	r6, r1, r0
     688:	53000100 	movwpl	r0, #256	; 0x100
     68c:	00000160 	andeq	r0, r0, r0, ror #2
     690:	00000168 	andeq	r0, r0, r8, ror #2
     694:	685d0001 	ldmdavs	sp, {r0}^
     698:	6c000001 	stcvs	0, cr0, [r0], {1}
     69c:	01000001 	tsteq	r0, r1
     6a0:	016c5e00 	cmneq	ip, r0, lsl #28
     6a4:	01880000 	orreq	r0, r8, r0
     6a8:	00010000 	andeq	r0, r1, r0
     6ac:	00018853 	andeq	r8, r1, r3, asr r8
     6b0:	00019000 	andeq	r9, r1, r0
     6b4:	91000400 	tstls	r0, r0, lsl #8
     6b8:	909f7fa1 	addsls	r7, pc, r1, lsr #31
     6bc:	94000001 	strls	r0, [r0], #-1
     6c0:	01000001 	tsteq	r0, r1
     6c4:	01945300 	orrseq	r5, r4, r0, lsl #6
     6c8:	019c0000 	orrseq	r0, ip, r0
     6cc:	00010000 	andeq	r0, r1, r0
     6d0:	00019c5d 	andeq	r9, r1, sp, asr ip
     6d4:	0001a000 	andeq	sl, r1, r0
     6d8:	5e000100 	adfpls	f0, f0, f0
     6dc:	000001a0 	andeq	r0, r0, r0, lsr #3
     6e0:	000001bc 			; <UNDEFINED> instruction: 0x000001bc
     6e4:	bc530001 	mrrclt	0, 0, r0, r3, cr1
     6e8:	d8000001 	stmdale	r0, {r0}
     6ec:	01000001 	tsteq	r0, r1
     6f0:	01d85d00 	bicseq	r5, r8, r0, lsl #26
     6f4:	01e30000 	mvneq	r0, r0
     6f8:	00010000 	andeq	r0, r1, r0
     6fc:	00000053 	andeq	r0, r0, r3, asr r0
     700:	00000000 	andeq	r0, r0, r0
     704:	0000a000 	andeq	sl, r0, r0
     708:	0000ec00 	andeq	lr, r0, r0, lsl #24
     70c:	5c000100 	stfpls	f0, [r0], {-0}
     710:	000000ec 	andeq	r0, r0, ip, ror #1
     714:	00000100 	andeq	r0, r0, r0, lsl #2
     718:	00530001 	subseq	r0, r3, r1
     71c:	04000001 	streq	r0, [r0], #-1
     720:	01000001 	tsteq	r0, r1
     724:	01045c00 	tsteq	r4, r0, lsl #24
     728:	01080000 	mrseq	r0, (UNDEF: 8)
     72c:	00010000 	andeq	r0, r1, r0
     730:	00010853 	andeq	r0, r1, r3, asr r8
     734:	00011800 	andeq	r1, r1, r0, lsl #16
     738:	5c000100 	stfpls	f0, [r0], {-0}
     73c:	00000118 	andeq	r0, r0, r8, lsl r1
     740:	0000011c 	andeq	r0, r0, ip, lsl r1
     744:	1c500001 	mrrcne	0, 0, r0, r0, cr1	; <UNPREDICTABLE>
     748:	3c000001 	stccc	0, cr0, [r0], {1}
     74c:	01000001 	tsteq	r0, r1
     750:	01445c00 	cmpeq	r4, r0, lsl #24
     754:	01580000 	cmpeq	r8, r0
     758:	00010000 	andeq	r0, r1, r0
     75c:	00015850 	andeq	r5, r1, r0, asr r8
     760:	00016000 	andeq	r6, r1, r0
     764:	5c000100 	stfpls	f0, [r0], {-0}
     768:	00000160 	andeq	r0, r0, r0, ror #2
     76c:	00000168 	andeq	r0, r0, r8, ror #2
     770:	68530001 	ldmdavs	r3, {r0}^
     774:	78000001 	stmdavc	r0, {r0}
     778:	01000001 	tsteq	r0, r1
     77c:	01785c00 	cmneq	r8, r0, lsl #24
     780:	01800000 	orreq	r0, r0, r0
     784:	00050000 	andeq	r0, r5, r0
     788:	2534007c 	ldrcs	r0, [r4, #-124]!	; 0x7c
     78c:	0001809f 	muleq	r1, pc, r0	; <UNPREDICTABLE>
     790:	00018800 	andeq	r8, r1, r0, lsl #16
     794:	5c000100 	stfpls	f0, [r0], {-0}
     798:	00000188 	andeq	r0, r0, r8, lsl #3
     79c:	00000190 	muleq	r0, r0, r1
     7a0:	90530001 	subsls	r0, r3, r1
     7a4:	94000001 	strls	r0, [r0], #-1
     7a8:	01000001 	tsteq	r0, r1
     7ac:	01945c00 	orrseq	r5, r4, r0, lsl #24
     7b0:	019c0000 	orrseq	r0, ip, r0
     7b4:	00010000 	andeq	r0, r1, r0
     7b8:	00019c53 	andeq	r9, r1, r3, asr ip
     7bc:	0001ac00 	andeq	sl, r1, r0, lsl #24
     7c0:	5c000100 	stfpls	f0, [r0], {-0}
     7c4:	000001ac 	andeq	r0, r0, ip, lsr #3
     7c8:	000001b4 			; <UNDEFINED> instruction: 0x000001b4
     7cc:	007c0005 	rsbseq	r0, ip, r5
     7d0:	b49f2531 	ldrlt	r2, [pc], #1329	; 7d8 <_start-0x7828>
     7d4:	bc000001 	stclt	0, cr0, [r0], {1}
     7d8:	01000001 	tsteq	r0, r1
     7dc:	01bc5c00 			; <UNDEFINED> instruction: 0x01bc5c00
     7e0:	01bf0000 			; <UNDEFINED> instruction: 0x01bf0000
     7e4:	00010000 	andeq	r0, r1, r0
     7e8:	0001bf53 	andeq	fp, r1, r3, asr pc
     7ec:	0001d800 	andeq	sp, r1, r0, lsl #16
     7f0:	f3000400 	vshl.u8	d0, d0, d0
     7f4:	d89f5301 	ldmle	pc, {r0, r8, r9, ip, lr}	; <UNPREDICTABLE>
     7f8:	e3000001 	movw	r0, #1
     7fc:	01000001 	tsteq	r0, r1
     800:	00005c00 	andeq	r5, r0, r0, lsl #24
     804:	00000000 	andeq	r0, r0, r0
     808:	00ec0000 	rsceq	r0, ip, r0
     80c:	00fc0000 	rscseq	r0, ip, r0
     810:	00020000 	andeq	r0, r2, r0
     814:	00fc9f30 	rscseq	r9, ip, r0, lsr pc
     818:	01040000 	mrseq	r0, (UNDEF: 4)
     81c:	00020000 	andeq	r0, r2, r0
     820:	01049f31 	tsteq	r4, r1, lsr pc
     824:	01080000 	mrseq	r0, (UNDEF: 8)
     828:	00020000 	andeq	r0, r2, r0
     82c:	00009f30 	andeq	r9, r0, r0, lsr pc
     830:	00000000 	andeq	r0, r0, r0
     834:	021c0000 	andseq	r0, ip, #0
     838:	022b0000 	eoreq	r0, fp, #0
     83c:	00010000 	andeq	r0, r1, r0
     840:	00022b50 	andeq	r2, r2, r0, asr fp
     844:	00024400 	andeq	r4, r2, r0, lsl #8
     848:	f3000400 	vshl.u8	d0, d0, d0
     84c:	449f5001 	ldrmi	r5, [pc], #1	; 854 <_start-0x77ac>
     850:	70000002 	andvc	r0, r0, r2
     854:	01000002 	tsteq	r0, r2
     858:	00005000 	andeq	r5, r0, r0
     85c:	00000000 	andeq	r0, r0, r0
     860:	021c0000 	andseq	r0, ip, #0
     864:	022b0000 	eoreq	r0, fp, #0
     868:	00010000 	andeq	r0, r1, r0
     86c:	00022b51 	andeq	r2, r2, r1, asr fp
     870:	00024400 	andeq	r4, r2, r0, lsl #8
     874:	f3000400 	vshl.u8	d0, d0, d0
     878:	449f5101 	ldrmi	r5, [pc], #257	; 880 <_start-0x7780>
     87c:	70000002 	andvc	r0, r0, r2
     880:	01000002 	tsteq	r0, r2
     884:	00005100 	andeq	r5, r0, r0, lsl #2
     888:	00000000 	andeq	r0, r0, r0
     88c:	02700000 	rsbseq	r0, r0, #0
     890:	029c0000 	addseq	r0, ip, #0
     894:	00010000 	andeq	r0, r1, r0
     898:	00029c50 	andeq	r9, r2, r0, asr ip
     89c:	0004e400 	andeq	lr, r4, r0, lsl #8
     8a0:	5a000100 	bpl	ca8 <_start-0x7358>
     8a4:	000004e4 	andeq	r0, r0, r4, ror #9
     8a8:	000004f8 	strdeq	r0, [r0], -r8
     8ac:	01f30004 	mvnseq	r0, r4
     8b0:	00009f50 	andeq	r9, r0, r0, asr pc
     8b4:	00000000 	andeq	r0, r0, r0
     8b8:	02700000 	rsbseq	r0, r0, #0
     8bc:	02840000 	addeq	r0, r4, #0
     8c0:	00010000 	andeq	r0, r1, r0
     8c4:	00028451 	andeq	r8, r2, r1, asr r4
     8c8:	00029c00 	andeq	r9, r2, r0, lsl #24
     8cc:	71000300 	mrsvc	r0, LR_irq
     8d0:	029c9f01 	addseq	r9, ip, #1, 30
     8d4:	04f80000 	ldrbteq	r0, [r8], #0
     8d8:	00040000 	andeq	r0, r4, r0
     8dc:	9f5101f3 	svcls	0x005101f3
	...
     8e8:	00000270 	andeq	r0, r0, r0, ror r2
     8ec:	000002a4 	andeq	r0, r0, r4, lsr #5
     8f0:	a4520001 	ldrbge	r0, [r2], #-1
     8f4:	cc000002 	stcgt	0, cr0, [r0], {2}
     8f8:	01000002 	tsteq	r0, r2
     8fc:	02cc5200 	sbceq	r5, ip, #0, 4
     900:	04940000 	ldreq	r0, [r4], #0
     904:	00010000 	andeq	r0, r1, r0
     908:	00049456 	andeq	r9, r4, r6, asr r4
     90c:	0004f800 	andeq	pc, r4, r0, lsl #16
     910:	52000100 	andpl	r0, r0, #0, 2
	...
     91c:	00000270 	andeq	r0, r0, r0, ror r2
     920:	0000028c 	andeq	r0, r0, ip, lsl #5
     924:	00530001 	subseq	r0, r3, r1
     928:	00000000 	andeq	r0, r0, r0
     92c:	80000000 	andhi	r0, r0, r0
     930:	9c000002 	stcls	0, cr0, [r0], {2}
     934:	01000002 	tsteq	r0, r2
     938:	029c5000 	addseq	r5, ip, #0
     93c:	02a00000 	adceq	r0, r0, #0
     940:	00010000 	andeq	r0, r1, r0
     944:	0002a054 	andeq	sl, r2, r4, asr r0
     948:	0002ac00 	andeq	sl, r2, r0, lsl #24
     94c:	74000300 	strvc	r0, [r0], #-768	; 0x300
     950:	02ac9f01 	adceq	r9, ip, #1, 30
     954:	02b80000 	adcseq	r0, r8, #0
     958:	00010000 	andeq	r0, r1, r0
     95c:	0002b854 	andeq	fp, r2, r4, asr r8
     960:	0002c400 	andeq	ip, r2, r0, lsl #8
     964:	74000300 	strvc	r0, [r0], #-768	; 0x300
     968:	02c49f01 	sbceq	r9, r4, #1, 30
     96c:	04980000 	ldreq	r0, [r8], #0
     970:	00010000 	andeq	r0, r1, r0
     974:	00049854 	andeq	r9, r4, r4, asr r8
     978:	0004a400 	andeq	sl, r4, r0, lsl #8
     97c:	74000300 	strvc	r0, [r0], #-768	; 0x300
     980:	04a49f01 	strteq	r9, [r4], #3841	; 0xf01
     984:	04d00000 	ldrbeq	r0, [r0], #0
     988:	00010000 	andeq	r0, r1, r0
     98c:	0004d054 	andeq	sp, r4, r4, asr r0
     990:	0004dc00 	andeq	sp, r4, r0, lsl #24
     994:	50000100 	andpl	r0, r0, r0, lsl #2
     998:	000004dc 	ldrdeq	r0, [r0], -ip
     99c:	000004e4 	andeq	r0, r0, r4, ror #9
     9a0:	01740003 	cmneq	r4, r3
     9a4:	0000009f 	muleq	r0, pc, r0	; <UNPREDICTABLE>
     9a8:	00000000 	andeq	r0, r0, r0
     9ac:	00028800 	andeq	r8, r2, r0, lsl #16
     9b0:	0004e400 	andeq	lr, r4, r0, lsl #8
     9b4:	58000100 	stmdapl	r0, {r8}
     9b8:	000004e4 	andeq	r0, r0, r4, ror #9
     9bc:	000004f8 	strdeq	r0, [r0], -r8
     9c0:	01f3000a 	mvnseq	r0, sl
     9c4:	5001f351 	andpl	pc, r1, r1, asr r3	; <UNPREDICTABLE>
     9c8:	9f1c3122 	svcls	0x001c3122
	...
     9d4:	000003cc 	andeq	r0, r0, ip, asr #7
     9d8:	000003d0 	ldrdeq	r0, [r0], -r0	; <UNPREDICTABLE>
     9dc:	f0500001 			; <UNDEFINED> instruction: 0xf0500001
     9e0:	f4000003 	vst4.8	{d0-d3}, [r0], r3
     9e4:	01000003 	tsteq	r0, r3
     9e8:	04145000 	ldreq	r5, [r4], #-0
     9ec:	04180000 	ldreq	r0, [r8], #-0
     9f0:	00010000 	andeq	r0, r1, r0
     9f4:	00043850 	andeq	r3, r4, r0, asr r8
     9f8:	00043c00 	andeq	r3, r4, r0, lsl #24
     9fc:	50000100 	andpl	r0, r0, r0, lsl #2
     a00:	00000444 	andeq	r0, r0, r4, asr #8
     a04:	00000448 	andeq	r0, r0, r8, asr #8
     a08:	68500001 	ldmdavs	r0, {r0}^
     a0c:	6c000004 	stcvs	0, cr0, [r0], {4}
     a10:	01000004 	tsteq	r0, r4
     a14:	04905000 	ldreq	r5, [r0], #0
     a18:	04b80000 	ldrteq	r0, [r8], #0
     a1c:	00010000 	andeq	r0, r1, r0
     a20:	00000050 	andeq	r0, r0, r0, asr r0
     a24:	00000000 	andeq	r0, r0, r0
     a28:	0002cc00 	andeq	ip, r2, r0, lsl #24
     a2c:	0002d400 	andeq	sp, r2, r0, lsl #8
     a30:	30000200 	andcc	r0, r0, r0, lsl #4
     a34:	0002d49f 	muleq	r2, pc, r4	; <UNPREDICTABLE>
     a38:	0002d800 	andeq	sp, r2, r0, lsl #16
     a3c:	57000100 	strpl	r0, [r0, -r0, lsl #2]
     a40:	000002e4 	andeq	r0, r0, r4, ror #5
     a44:	000004b8 			; <UNDEFINED> instruction: 0x000004b8
     a48:	00570001 	subseq	r0, r7, r1
	...
     a54:	0c000000 	stceq	0, cr0, [r0], {-0}
     a58:	01000000 	mrseq	r0, (UNDEF: 0)
     a5c:	000c5000 	andeq	r5, ip, r0
     a60:	00200000 	eoreq	r0, r0, r0
     a64:	00010000 	andeq	r0, r1, r0
     a68:	00000054 	andeq	r0, r0, r4, asr r0
     a6c:	00000000 	andeq	r0, r0, r0
     a70:	00003400 	andeq	r3, r0, r0, lsl #8
     a74:	00003c00 	andeq	r3, r0, r0, lsl #24
     a78:	73000300 	movwvc	r0, #768	; 0x300
     a7c:	003c9f04 	eorseq	r9, ip, r4, lsl #30
     a80:	00470000 	subeq	r0, r7, r0
     a84:	00010000 	andeq	r0, r1, r0
     a88:	00000053 	andeq	r0, r0, r3, asr r0
     a8c:	00000000 	andeq	r0, r0, r0
     a90:	00004800 	andeq	r4, r0, r0, lsl #16
     a94:	00007400 	andeq	r7, r0, r0, lsl #8
     a98:	50000100 	andpl	r0, r0, r0, lsl #2
     a9c:	00000074 	andeq	r0, r0, r4, ror r0
     aa0:	00000083 	andeq	r0, r0, r3, lsl #1
     aa4:	78730003 	ldmdavc	r3!, {r0, r1}^
     aa8:	0000009f 	muleq	r0, pc, r0	; <UNPREDICTABLE>
     aac:	00000000 	andeq	r0, r0, r0
     ab0:	00892800 	addeq	r2, r9, r0, lsl #16
     ab4:	00892c00 	addeq	r2, r9, r0, lsl #24
     ab8:	30000200 	andcc	r0, r0, r0, lsl #4
     abc:	00892c9f 	umulleq	r2, r9, pc, ip	; <UNPREDICTABLE>
     ac0:	00893000 	addeq	r3, r9, r0
     ac4:	50000100 	andpl	r0, r0, r0, lsl #2
	...
     ad0:	00008940 	andeq	r8, r0, r0, asr #18
     ad4:	00008944 	andeq	r8, r0, r4, asr #18
     ad8:	9f300002 	svcls	0x00300002
     adc:	00008944 	andeq	r8, r0, r4, asr #18
     ae0:	00008948 	andeq	r8, r0, r8, asr #18
     ae4:	4c530001 	mrrcmi	0, 0, r0, r3, cr1
     ae8:	54000089 	strpl	r0, [r0], #-137	; 0x89
     aec:	01000089 	smlabbeq	r0, r9, r0, r0
     af0:	00005300 	andeq	r5, r0, r0, lsl #6
	...
     afc:	00040000 	andeq	r0, r4, r0
     b00:	00010000 	andeq	r0, r1, r0
     b04:	00000450 	andeq	r0, r0, r0, asr r4
     b08:	00000c00 	andeq	r0, r0, r0, lsl #24
     b0c:	53000100 	movwpl	r0, #256	; 0x100
     b10:	0000000c 	andeq	r0, r0, ip
     b14:	00000010 	andeq	r0, r0, r0, lsl r0
     b18:	10500001 	subsne	r0, r0, r1
     b1c:	1c000000 	stcne	0, cr0, [r0], {-0}
     b20:	01000000 	mrseq	r0, (UNDEF: 0)
     b24:	00005300 	andeq	r5, r0, r0, lsl #6
     b28:	00000000 	andeq	r0, r0, r0
     b2c:	003c0000 	eorseq	r0, ip, r0
     b30:	00470000 	subeq	r0, r7, r0
     b34:	00010000 	andeq	r0, r1, r0
     b38:	00004750 	andeq	r4, r0, r0, asr r7
     b3c:	00006000 	andeq	r6, r0, r0
     b40:	55000100 	strpl	r0, [r0, #-256]	; 0x100
	...
     b4c:	00000050 	andeq	r0, r0, r0, asr r0
     b50:	00000054 	andeq	r0, r0, r4, asr r0
     b54:	00500001 	subseq	r0, r0, r1
     b58:	00000000 	andeq	r0, r0, r0
     b5c:	60000000 	andvs	r0, r0, r0
     b60:	6c000000 	stcvs	0, cr0, [r0], {-0}
     b64:	01000000 	mrseq	r0, (UNDEF: 0)
     b68:	006c5000 	rsbeq	r5, ip, r0
     b6c:	00740000 	rsbseq	r0, r4, r0
     b70:	00040000 	andeq	r0, r4, r0
     b74:	9f5001f3 	svcls	0x005001f3
	...
     b80:	00000074 	andeq	r0, r0, r4, ror r0
     b84:	00000080 	andeq	r0, r0, r0, lsl #1
     b88:	80500001 	subshi	r0, r0, r1
     b8c:	88000000 	stmdahi	r0, {}	; <UNPREDICTABLE>
     b90:	04000000 	streq	r0, [r0], #-0
     b94:	5001f300 	andpl	pc, r1, r0, lsl #6
     b98:	0000009f 	muleq	r0, pc, r0	; <UNPREDICTABLE>
	...
     ba4:	00009000 	andeq	r9, r0, r0
     ba8:	50000100 	andpl	r0, r0, r0, lsl #2
     bac:	00000090 	muleq	r0, r0, r0
     bb0:	000000d4 	ldrdeq	r0, [r0], -r4
     bb4:	00540001 	subseq	r0, r4, r1
     bb8:	00000000 	andeq	r0, r0, r0
     bbc:	48000000 	stmdami	r0, {}	; <UNPREDICTABLE>
     bc0:	4c000000 	stcmi	0, cr0, [r0], {-0}
     bc4:	01000000 	mrseq	r0, (UNDEF: 0)
     bc8:	00545500 	subseq	r5, r4, r0, lsl #10
     bcc:	00580000 	subseq	r0, r8, r0
     bd0:	00010000 	andeq	r0, r1, r0
     bd4:	00006055 	andeq	r6, r0, r5, asr r0
     bd8:	00006400 	andeq	r6, r0, r0, lsl #8
     bdc:	55000100 	strpl	r0, [r0, #-256]	; 0x100
     be0:	0000006c 	andeq	r0, r0, ip, rrx
     be4:	00000070 	andeq	r0, r0, r0, ror r0
     be8:	78550001 	ldmdavc	r5, {r0}^
     bec:	7c000000 	stcvc	0, cr0, [r0], {-0}
     bf0:	01000000 	mrseq	r0, (UNDEF: 0)
     bf4:	00845500 	addeq	r5, r4, r0, lsl #10
     bf8:	00880000 	addeq	r0, r8, r0
     bfc:	00010000 	andeq	r0, r1, r0
     c00:	00008c55 	andeq	r8, r0, r5, asr ip
     c04:	0000d400 	andeq	sp, r0, r0, lsl #8
     c08:	55000100 	strpl	r0, [r0, #-256]	; 0x100
	...
     c14:	0000001c 	andeq	r0, r0, ip, lsl r0
     c18:	00000044 	andeq	r0, r0, r4, asr #32
     c1c:	44530001 	ldrbmi	r0, [r3], #-1
     c20:	4c000000 	stcmi	0, cr0, [r0], {-0}
     c24:	1c000000 	stcne	0, cr0, [r0], {-0}
     c28:	f7007000 			; <UNDEFINED> instruction: 0xf7007000
     c2c:	f425f72c 	vld1.8	{d15}, [r5 :128], ip
     c30:	cccd0825 	stclgt	8, cr0, [sp], {37}	; 0x25
     c34:	0000cccc 	andeq	ip, r0, ip, asr #25
     c38:	081e0000 	ldmdaeq	lr, {}	; <UNPREDICTABLE>
     c3c:	2525f720 	strcs	pc, [r5, #-1824]!	; 0x720
     c40:	25332cf7 	ldrcs	r2, [r3, #-3319]!	; 0xcf7
     c44:	00004c9f 	muleq	r0, pc, ip	; <UNPREDICTABLE>
     c48:	00005000 	andeq	r5, r0, r0
     c4c:	53000100 	movwpl	r0, #256	; 0x100
     c50:	00000050 	andeq	r0, r0, r0, asr r0
     c54:	00000058 	andeq	r0, r0, r8, asr r0
     c58:	0070001c 	rsbseq	r0, r0, ip, lsl r0
     c5c:	25f72cf7 	ldrbcs	r2, [r7, #3319]!	; 0xcf7
     c60:	cd0825f4 	cfstr32gt	mvfx2, [r8, #-976]	; 0xfffffc30
     c64:	00cccccc 	sbceq	ip, ip, ip, asr #25
     c68:	1e000000 	cdpne	0, 0, cr0, cr0, cr0, {0}
     c6c:	25f72008 	ldrbcs	r2, [r7, #8]!
     c70:	332cf725 	msrcc	CPSR_fs, #9699328	; 0x940000
     c74:	00589f25 	subseq	r9, r8, r5, lsr #30
     c78:	005c0000 	subseq	r0, ip, r0
     c7c:	00010000 	andeq	r0, r1, r0
     c80:	00005c53 	andeq	r5, r0, r3, asr ip
     c84:	00006400 	andeq	r6, r0, r0, lsl #8
     c88:	70001c00 	andvc	r1, r0, r0, lsl #24
     c8c:	f72cf700 			; <UNDEFINED> instruction: 0xf72cf700
     c90:	0825f425 	stmdaeq	r5!, {r0, r2, r5, sl, ip, sp, lr, pc}
     c94:	cccccccd 	stclgt	12, cr12, [ip], {205}	; 0xcd
     c98:	00000000 	andeq	r0, r0, r0
     c9c:	f720081e 			; <UNDEFINED> instruction: 0xf720081e
     ca0:	2cf72525 	cfldr64cs	mvdx2, [r7], #148	; 0x94
     ca4:	649f2533 	ldrvs	r2, [pc], #1331	; cac <_start-0x7354>
     ca8:	68000000 	stmdavs	r0, {}	; <UNPREDICTABLE>
     cac:	01000000 	mrseq	r0, (UNDEF: 0)
     cb0:	00685300 	rsbeq	r5, r8, r0, lsl #6
     cb4:	00700000 	rsbseq	r0, r0, r0
     cb8:	001c0000 	andseq	r0, ip, r0
     cbc:	2cf70070 	ldclcs	0, cr0, [r7], #448	; 0x1c0
     cc0:	25f425f7 	ldrbcs	r2, [r4, #1527]!	; 0x5f7
     cc4:	cccccd08 	stclgt	13, cr12, [ip], {8}
     cc8:	000000cc 	andeq	r0, r0, ip, asr #1
     ccc:	20081e00 	andcs	r1, r8, r0, lsl #28
     cd0:	f72525f7 			; <UNDEFINED> instruction: 0xf72525f7
     cd4:	9f25332c 	svcls	0x0025332c
     cd8:	00000070 	andeq	r0, r0, r0, ror r0
     cdc:	00000074 	andeq	r0, r0, r4, ror r0
     ce0:	74530001 	ldrbvc	r0, [r3], #-1
     ce4:	7c000000 	stcvc	0, cr0, [r0], {-0}
     ce8:	1c000000 	stcne	0, cr0, [r0], {-0}
     cec:	f7007000 			; <UNDEFINED> instruction: 0xf7007000
     cf0:	f425f72c 	vld1.8	{d15}, [r5 :128], ip
     cf4:	cccd0825 	stclgt	8, cr0, [sp], {37}	; 0x25
     cf8:	0000cccc 	andeq	ip, r0, ip, asr #25
     cfc:	081e0000 	ldmdaeq	lr, {}	; <UNPREDICTABLE>
     d00:	2525f720 	strcs	pc, [r5, #-1824]!	; 0x720
     d04:	25332cf7 	ldrcs	r2, [r3, #-3319]!	; 0xcf7
     d08:	00007c9f 	muleq	r0, pc, ip	; <UNPREDICTABLE>
     d0c:	00008000 	andeq	r8, r0, r0
     d10:	53000100 	movwpl	r0, #256	; 0x100
     d14:	00000080 	andeq	r0, r0, r0, lsl #1
     d18:	00000088 	andeq	r0, r0, r8, lsl #1
     d1c:	0070001c 	rsbseq	r0, r0, ip, lsl r0
     d20:	25f72cf7 	ldrbcs	r2, [r7, #3319]!	; 0xcf7
     d24:	cd0825f4 	cfstr32gt	mvfx2, [r8, #-976]	; 0xfffffc30
     d28:	00cccccc 	sbceq	ip, ip, ip, asr #25
     d2c:	1e000000 	cdpne	0, 0, cr0, cr0, cr0, {0}
     d30:	25f72008 	ldrbcs	r2, [r7, #8]!
     d34:	332cf725 	msrcc	CPSR_fs, #9699328	; 0x940000
     d38:	00889f25 	addeq	r9, r8, r5, lsr #30
     d3c:	008c0000 	addeq	r0, ip, r0
     d40:	00010000 	andeq	r0, r1, r0
     d44:	00008c53 	andeq	r8, r0, r3, asr ip
     d48:	00009000 	andeq	r9, r0, r0
     d4c:	70001c00 	andvc	r1, r0, r0, lsl #24
     d50:	f72cf700 			; <UNDEFINED> instruction: 0xf72cf700
     d54:	0825f425 	stmdaeq	r5!, {r0, r2, r5, sl, ip, sp, lr, pc}
     d58:	cccccccd 	stclgt	12, cr12, [ip], {205}	; 0xcd
     d5c:	00000000 	andeq	r0, r0, r0
     d60:	f720081e 			; <UNDEFINED> instruction: 0xf720081e
     d64:	2cf72525 	cfldr64cs	mvdx2, [r7], #148	; 0x94
     d68:	909f2533 	addsls	r2, pc, r3, lsr r5	; <UNPREDICTABLE>
     d6c:	98000000 	stmdals	r0, {}	; <UNPREDICTABLE>
     d70:	1c000000 	stcne	0, cr0, [r0], {-0}
     d74:	f7007400 			; <UNDEFINED> instruction: 0xf7007400
     d78:	f425f72c 	vld1.8	{d15}, [r5 :128], ip
     d7c:	cccd0825 	stclgt	8, cr0, [sp], {37}	; 0x25
     d80:	0000cccc 	andeq	ip, r0, ip, asr #25
     d84:	081e0000 	ldmdaeq	lr, {}	; <UNPREDICTABLE>
     d88:	2525f720 	strcs	pc, [r5, #-1824]!	; 0x720
     d8c:	25332cf7 	ldrcs	r2, [r3, #-3319]!	; 0xcf7
     d90:	0000989f 	muleq	r0, pc, r8	; <UNPREDICTABLE>
     d94:	00009c00 	andeq	r9, r0, r0, lsl #24
     d98:	74001700 	strvc	r1, [r0], #-1792	; 0x700
     d9c:	f72cf700 			; <UNDEFINED> instruction: 0xf72cf700
     da0:	f7007125 			; <UNDEFINED> instruction: 0xf7007125
     da4:	1e25f72c 	cdpne	7, 2, cr15, cr5, cr12, {1}
     da8:	25f72008 	ldrbcs	r2, [r7, #8]!
     dac:	332cf725 	msrcc	CPSR_fs, #9699328	; 0x940000
     db0:	009c9f25 	addseq	r9, ip, r5, lsr #30
     db4:	00d40000 	sbcseq	r0, r4, r0
     db8:	001c0000 	andseq	r0, ip, r0
     dbc:	2cf70074 	ldclcs	0, cr0, [r7], #464	; 0x1d0
     dc0:	25f425f7 	ldrbcs	r2, [r4, #1527]!	; 0x5f7
     dc4:	cccccd08 	stclgt	13, cr12, [ip], {8}
     dc8:	000000cc 	andeq	r0, r0, ip, asr #1
     dcc:	20081e00 	andcs	r1, r8, r0, lsl #28
     dd0:	f72525f7 			; <UNDEFINED> instruction: 0xf72525f7
     dd4:	9f25332c 	svcls	0x0025332c
	...
     de0:	00000094 	muleq	r0, r4, r0
     de4:	000000b8 	strheq	r0, [r0], -r8
     de8:	b8500001 	ldmdalt	r0, {r0}^
     dec:	c4000000 	strgt	r0, [r0], #-0
     df0:	08000000 	stmdaeq	r0, {}	; <UNPREDICTABLE>
     df4:	00713100 	rsbseq	r3, r1, r0, lsl #2
     df8:	21007324 	tstcs	r0, r4, lsr #6
     dfc:	0000c49f 	muleq	r0, pc, r4	; <UNPREDICTABLE>
     e00:	0000c700 	andeq	ip, r0, r0, lsl #14
     e04:	51000100 	mrspl	r0, (UNDEF: 16)
	...
     e10:	000000d4 	ldrdeq	r0, [r0], -r4
     e14:	000000f8 	strdeq	r0, [r0], -r8
     e18:	f8500001 			; <UNDEFINED> instruction: 0xf8500001
     e1c:	0c000000 	stceq	0, cr0, [r0], {-0}
     e20:	04000001 	streq	r0, [r0], #-1
     e24:	5001f300 	andpl	pc, r1, r0, lsl #6
     e28:	0000009f 	muleq	r0, pc, r0	; <UNPREDICTABLE>
     e2c:	00000000 	andeq	r0, r0, r0
     e30:	0000e000 	andeq	lr, r0, r0
     e34:	0000e800 	andeq	lr, r0, r0, lsl #16
     e38:	30000200 	andcc	r0, r0, r0, lsl #4
     e3c:	0000e89f 	muleq	r0, pc, r8	; <UNPREDICTABLE>
     e40:	0000e800 	andeq	lr, r0, r0, lsl #16
     e44:	52000100 	andpl	r0, r0, #0, 2
     e48:	000000e8 	andeq	r0, r0, r8, ror #1
     e4c:	000000f0 	strdeq	r0, [r0], -r0	; <UNPREDICTABLE>
     e50:	9f300002 	svcls	0x00300002
     e54:	000000f0 	strdeq	r0, [r0], -r0	; <UNPREDICTABLE>
     e58:	00000103 	andeq	r0, r0, r3, lsl #2
     e5c:	00520001 	subseq	r0, r2, r1
     e60:	00000000 	andeq	r0, r0, r0
     e64:	e0000000 	and	r0, r0, r0
     e68:	f4000000 	vst4.8	{d0-d3}, [r0], r0
     e6c:	02000000 	andeq	r0, r0, #0
     e70:	f49f3000 			; <UNDEFINED> instruction: 0xf49f3000
     e74:	00000000 	andeq	r0, r0, r0
     e78:	05000001 	streq	r0, [r0, #-1]
     e7c:	00733100 	rsbseq	r3, r3, r0, lsl #2
     e80:	01009f24 	tsteq	r0, r4, lsr #30
     e84:	01030000 	mrseq	r0, (UNDEF: 3)
     e88:	00010000 	andeq	r0, r1, r0
     e8c:	00010351 	andeq	r0, r1, r1, asr r3
     e90:	00010c00 	andeq	r0, r1, r0, lsl #24
     e94:	31000800 	tstcc	r0, r0, lsl #16
     e98:	4f5001f3 	svcmi	0x005001f3
     e9c:	009f241a 	addseq	r2, pc, sl, lsl r4	; <UNPREDICTABLE>
     ea0:	00000000 	andeq	r0, r0, r0
     ea4:	0c000000 	stceq	0, cr0, [r0], {-0}
     ea8:	30000001 	andcc	r0, r0, r1
     eac:	01000001 	tsteq	r0, r1
     eb0:	01305000 	teqeq	r0, r0
     eb4:	01440000 	mrseq	r0, (UNDEF: 68)
     eb8:	00040000 	andeq	r0, r4, r0
     ebc:	9f5001f3 	svcls	0x005001f3
	...
     ec8:	00000118 	andeq	r0, r0, r8, lsl r1
     ecc:	00000120 	andeq	r0, r0, r0, lsr #2
     ed0:	9f300002 	svcls	0x00300002
     ed4:	00000120 	andeq	r0, r0, r0, lsr #2
     ed8:	00000120 	andeq	r0, r0, r0, lsr #2
     edc:	20520001 	subscs	r0, r2, r1
     ee0:	28000001 	stmdacs	r0, {r0}
     ee4:	02000001 	andeq	r0, r0, #1
     ee8:	289f3000 	ldmcs	pc, {ip, sp}	; <UNPREDICTABLE>
     eec:	3b000001 	blcc	ef8 <_start-0x7108>
     ef0:	01000001 	tsteq	r0, r1
     ef4:	00005200 	andeq	r5, r0, r0, lsl #4
     ef8:	00000000 	andeq	r0, r0, r0
     efc:	01180000 	tsteq	r8, r0
     f00:	012c0000 	teqeq	ip, r0
     f04:	00020000 	andeq	r0, r2, r0
     f08:	012c9f30 	teqeq	ip, r0, lsr pc
     f0c:	01380000 	teqeq	r8, r0
     f10:	00050000 	andeq	r0, r5, r0
     f14:	24007331 	strcs	r7, [r0], #-817	; 0x331
     f18:	0001389f 	muleq	r1, pc, r8	; <UNPREDICTABLE>
     f1c:	00013b00 	andeq	r3, r1, r0, lsl #22
     f20:	51000100 	mrspl	r0, (UNDEF: 16)
     f24:	0000013b 	andeq	r0, r0, fp, lsr r1
     f28:	00000144 	andeq	r0, r0, r4, asr #2
     f2c:	f3310008 	vhadd.u<illegal width 64>	d0, d1, d8
     f30:	1a4f5001 	bne	13d4f3c <__bss_end__+0x13c907c>
     f34:	00009f24 	andeq	r9, r0, r4, lsr #30
     f38:	00000000 	andeq	r0, r0, r0
     f3c:	01440000 	mrseq	r0, (UNDEF: 68)
     f40:	01d40000 	bicseq	r0, r4, r0
     f44:	00010000 	andeq	r0, r1, r0
     f48:	0001d450 	andeq	sp, r1, r0, asr r4
     f4c:	00021000 	andeq	r1, r2, r0
     f50:	54000100 	strpl	r0, [r0], #-256	; 0x100
	...
     f5c:	0000018c 	andeq	r0, r0, ip, lsl #3
     f60:	00000190 	muleq	r0, r0, r1
     f64:	98550001 	ldmdals	r5, {r0}^
     f68:	9c000001 	stcls	0, cr0, [r0], {1}
     f6c:	01000001 	tsteq	r0, r1
     f70:	01a45500 			; <UNDEFINED> instruction: 0x01a45500
     f74:	01a80000 			; <UNDEFINED> instruction: 0x01a80000
     f78:	00010000 	andeq	r0, r1, r0
     f7c:	0001b055 	andeq	fp, r1, r5, asr r0
     f80:	0001b400 	andeq	fp, r1, r0, lsl #8
     f84:	55000100 	strpl	r0, [r0, #-256]	; 0x100
     f88:	000001bc 			; <UNDEFINED> instruction: 0x000001bc
     f8c:	000001c0 	andeq	r0, r0, r0, asr #3
     f90:	c8550001 	ldmdagt	r5, {r0}^
     f94:	cc000001 	stcgt	0, cr0, [r0], {1}
     f98:	01000001 	tsteq	r0, r1
     f9c:	01d05500 	bicseq	r5, r0, r0, lsl #10
     fa0:	02100000 	andseq	r0, r0, #0
     fa4:	00010000 	andeq	r0, r1, r0
     fa8:	00000055 	andeq	r0, r0, r5, asr r0
     fac:	00000000 	andeq	r0, r0, r0
     fb0:	00016000 	andeq	r6, r1, r0
     fb4:	00018800 	andeq	r8, r1, r0, lsl #16
     fb8:	53000100 	movwpl	r0, #256	; 0x100
     fbc:	00000188 	andeq	r0, r0, r8, lsl #3
     fc0:	00000190 	muleq	r0, r0, r1
     fc4:	0070001c 	rsbseq	r0, r0, ip, lsl r0
     fc8:	25f72cf7 	ldrbcs	r2, [r7, #3319]!	; 0xcf7
     fcc:	cd0825f4 	cfstr32gt	mvfx2, [r8, #-976]	; 0xfffffc30
     fd0:	00cccccc 	sbceq	ip, ip, ip, asr #25
     fd4:	1e000000 	cdpne	0, 0, cr0, cr0, cr0, {0}
     fd8:	25f72008 	ldrbcs	r2, [r7, #8]!
     fdc:	332cf725 	msrcc	CPSR_fs, #9699328	; 0x940000
     fe0:	01909f25 	orrseq	r9, r0, r5, lsr #30
     fe4:	01940000 	orrseq	r0, r4, r0
     fe8:	00010000 	andeq	r0, r1, r0
     fec:	00019453 	andeq	r9, r1, r3, asr r4
     ff0:	00019c00 	andeq	r9, r1, r0, lsl #24
     ff4:	70001c00 	andvc	r1, r0, r0, lsl #24
     ff8:	f72cf700 			; <UNDEFINED> instruction: 0xf72cf700
     ffc:	0825f425 	stmdaeq	r5!, {r0, r2, r5, sl, ip, sp, lr, pc}
    1000:	cccccccd 	stclgt	12, cr12, [ip], {205}	; 0xcd
    1004:	00000000 	andeq	r0, r0, r0
    1008:	f720081e 			; <UNDEFINED> instruction: 0xf720081e
    100c:	2cf72525 	cfldr64cs	mvdx2, [r7], #148	; 0x94
    1010:	9c9f2533 	cfldr32ls	mvfx2, [pc], {51}	; 0x33
    1014:	a0000001 	andge	r0, r0, r1
    1018:	01000001 	tsteq	r0, r1
    101c:	01a05300 	lsleq	r5, r0, #6
    1020:	01a80000 			; <UNDEFINED> instruction: 0x01a80000
    1024:	001c0000 	andseq	r0, ip, r0
    1028:	2cf70070 	ldclcs	0, cr0, [r7], #448	; 0x1c0
    102c:	25f425f7 	ldrbcs	r2, [r4, #1527]!	; 0x5f7
    1030:	cccccd08 	stclgt	13, cr12, [ip], {8}
    1034:	000000cc 	andeq	r0, r0, ip, asr #1
    1038:	20081e00 	andcs	r1, r8, r0, lsl #28
    103c:	f72525f7 			; <UNDEFINED> instruction: 0xf72525f7
    1040:	9f25332c 	svcls	0x0025332c
    1044:	000001a8 	andeq	r0, r0, r8, lsr #3
    1048:	000001ac 	andeq	r0, r0, ip, lsr #3
    104c:	ac530001 	mrrcge	0, 0, r0, r3, cr1
    1050:	b4000001 	strlt	r0, [r0], #-1
    1054:	1c000001 	stcne	0, cr0, [r0], {1}
    1058:	f7007000 			; <UNDEFINED> instruction: 0xf7007000
    105c:	f425f72c 	vld1.8	{d15}, [r5 :128], ip
    1060:	cccd0825 	stclgt	8, cr0, [sp], {37}	; 0x25
    1064:	0000cccc 	andeq	ip, r0, ip, asr #25
    1068:	081e0000 	ldmdaeq	lr, {}	; <UNPREDICTABLE>
    106c:	2525f720 	strcs	pc, [r5, #-1824]!	; 0x720
    1070:	25332cf7 	ldrcs	r2, [r3, #-3319]!	; 0xcf7
    1074:	0001b49f 	muleq	r1, pc, r4	; <UNPREDICTABLE>
    1078:	0001b800 	andeq	fp, r1, r0, lsl #16
    107c:	53000100 	movwpl	r0, #256	; 0x100
    1080:	000001b8 			; <UNDEFINED> instruction: 0x000001b8
    1084:	000001c0 	andeq	r0, r0, r0, asr #3
    1088:	0070001c 	rsbseq	r0, r0, ip, lsl r0
    108c:	25f72cf7 	ldrbcs	r2, [r7, #3319]!	; 0xcf7
    1090:	cd0825f4 	cfstr32gt	mvfx2, [r8, #-976]	; 0xfffffc30
    1094:	00cccccc 	sbceq	ip, ip, ip, asr #25
    1098:	1e000000 	cdpne	0, 0, cr0, cr0, cr0, {0}
    109c:	25f72008 	ldrbcs	r2, [r7, #8]!
    10a0:	332cf725 	msrcc	CPSR_fs, #9699328	; 0x940000
    10a4:	01c09f25 	biceq	r9, r0, r5, lsr #30
    10a8:	01c40000 	biceq	r0, r4, r0
    10ac:	00010000 	andeq	r0, r1, r0
    10b0:	0001c453 	andeq	ip, r1, r3, asr r4
    10b4:	0001cc00 	andeq	ip, r1, r0, lsl #24
    10b8:	70001c00 	andvc	r1, r0, r0, lsl #24
    10bc:	f72cf700 			; <UNDEFINED> instruction: 0xf72cf700
    10c0:	0825f425 	stmdaeq	r5!, {r0, r2, r5, sl, ip, sp, lr, pc}
    10c4:	cccccccd 	stclgt	12, cr12, [ip], {205}	; 0xcd
    10c8:	00000000 	andeq	r0, r0, r0
    10cc:	f720081e 			; <UNDEFINED> instruction: 0xf720081e
    10d0:	2cf72525 	cfldr64cs	mvdx2, [r7], #148	; 0x94
    10d4:	cc9f2533 	cfldr32gt	mvfx2, [pc], {51}	; 0x33
    10d8:	d0000001 	andle	r0, r0, r1
    10dc:	01000001 	tsteq	r0, r1
    10e0:	01d05300 	bicseq	r5, r0, r0, lsl #6
    10e4:	01d40000 	bicseq	r0, r4, r0
    10e8:	001c0000 	andseq	r0, ip, r0
    10ec:	2cf70070 	ldclcs	0, cr0, [r7], #448	; 0x1c0
    10f0:	25f425f7 	ldrbcs	r2, [r4, #1527]!	; 0x5f7
    10f4:	cccccd08 	stclgt	13, cr12, [ip], {8}
    10f8:	000000cc 	andeq	r0, r0, ip, asr #1
    10fc:	20081e00 	andcs	r1, r8, r0, lsl #28
    1100:	f72525f7 			; <UNDEFINED> instruction: 0xf72525f7
    1104:	9f25332c 	svcls	0x0025332c
    1108:	000001d4 	ldrdeq	r0, [r0], -r4
    110c:	000001dc 	ldrdeq	r0, [r0], -ip
    1110:	0074001c 	rsbseq	r0, r4, ip, lsl r0
    1114:	25f72cf7 	ldrbcs	r2, [r7, #3319]!	; 0xcf7
    1118:	cd0825f4 	cfstr32gt	mvfx2, [r8, #-976]	; 0xfffffc30
    111c:	00cccccc 	sbceq	ip, ip, ip, asr #25
    1120:	1e000000 	cdpne	0, 0, cr0, cr0, cr0, {0}
    1124:	25f72008 	ldrbcs	r2, [r7, #8]!
    1128:	332cf725 	msrcc	CPSR_fs, #9699328	; 0x940000
    112c:	01dc9f25 	bicseq	r9, ip, r5, lsr #30
    1130:	01e00000 	mvneq	r0, r0
    1134:	00170000 	andseq	r0, r7, r0
    1138:	2cf70074 	ldclcs	0, cr0, [r7], #464	; 0x1d0
    113c:	007125f7 	ldrshteq	r2, [r1], #-87	; 0xffffffa9
    1140:	25f72cf7 	ldrbcs	r2, [r7, #3319]!	; 0xcf7
    1144:	f720081e 			; <UNDEFINED> instruction: 0xf720081e
    1148:	2cf72525 	cfldr64cs	mvdx2, [r7], #148	; 0x94
    114c:	e09f2533 	adds	r2, pc, r3, lsr r5	; <UNPREDICTABLE>
    1150:	10000001 	andne	r0, r0, r1
    1154:	1c000002 	stcne	0, cr0, [r0], {2}
    1158:	f7007400 			; <UNDEFINED> instruction: 0xf7007400
    115c:	f425f72c 	vld1.8	{d15}, [r5 :128], ip
    1160:	cccd0825 	stclgt	8, cr0, [sp], {37}	; 0x25
    1164:	0000cccc 	andeq	ip, r0, ip, asr #25
    1168:	081e0000 	ldmdaeq	lr, {}	; <UNPREDICTABLE>
    116c:	2525f720 	strcs	pc, [r5, #-1824]!	; 0x720
    1170:	25332cf7 	ldrcs	r2, [r3, #-3319]!	; 0xcf7
    1174:	0000009f 	muleq	r0, pc, r0	; <UNPREDICTABLE>
    1178:	00000000 	andeq	r0, r0, r0
    117c:	0001d800 	andeq	sp, r1, r0, lsl #16
    1180:	0001fc00 	andeq	pc, r1, r0, lsl #24
    1184:	50000100 	andpl	r0, r0, r0, lsl #2
    1188:	000001fc 	strdeq	r0, [r0], -ip
    118c:	00000203 	andeq	r0, r0, r3, lsl #4
    1190:	00510001 	subseq	r0, r1, r1
    1194:	00000000 	andeq	r0, r0, r0
    1198:	10000000 	andne	r0, r0, r0
    119c:	2c000002 	stccs	0, cr0, [r0], {2}
    11a0:	01000002 	tsteq	r0, r2
    11a4:	022c5000 	eoreq	r5, ip, #0
    11a8:	02340000 	eorseq	r0, r4, #0
    11ac:	00010000 	andeq	r0, r1, r0
    11b0:	00023454 	andeq	r3, r2, r4, asr r4
    11b4:	00023c00 	andeq	r3, r2, r0, lsl #24
    11b8:	50000100 	andpl	r0, r0, r0, lsl #2
    11bc:	0000023c 	andeq	r0, r0, ip, lsr r2
    11c0:	00000244 	andeq	r0, r0, r4, asr #4
    11c4:	44540001 	ldrbmi	r0, [r4], #-1
    11c8:	50000002 	andpl	r0, r0, r2
    11cc:	04000002 	streq	r0, [r0], #-2
    11d0:	5001f300 	andpl	pc, r1, r0, lsl #6
    11d4:	0002509f 	muleq	r2, pc, r0	; <UNPREDICTABLE>
    11d8:	00025400 	andeq	r5, r2, r0, lsl #8
    11dc:	50000100 	andpl	r0, r0, r0, lsl #2
    11e0:	00000254 	andeq	r0, r0, r4, asr r2
    11e4:	0000025c 	andeq	r0, r0, ip, asr r2
    11e8:	00540001 	subseq	r0, r4, r1
    11ec:	00000000 	andeq	r0, r0, r0
    11f0:	20000000 	andcs	r0, r0, r0
    11f4:	30000002 	andcc	r0, r0, r2
    11f8:	02000002 	andeq	r0, r0, #2
    11fc:	309f3000 	addscc	r3, pc, r0
    1200:	34000002 	strcc	r0, [r0], #-2
    1204:	01000002 	tsteq	r0, r2
    1208:	02345000 	eorseq	r5, r4, #0
    120c:	02400000 	subeq	r0, r0, #0
    1210:	00020000 	andeq	r0, r2, r0
    1214:	02409f30 	subeq	r9, r0, #48, 30	; 0xc0
    1218:	024c0000 	subeq	r0, ip, #0
    121c:	00010000 	andeq	r0, r1, r0
    1220:	00000050 	andeq	r0, r0, r0, asr r0
    1224:	00000000 	andeq	r0, r0, r0
    1228:	00025c00 	andeq	r5, r2, r0, lsl #24
    122c:	00029000 	andeq	r9, r2, r0
    1230:	50000100 	andpl	r0, r0, r0, lsl #2
    1234:	00000290 	muleq	r0, r0, r2
    1238:	000002a0 	andeq	r0, r0, r0, lsr #5
    123c:	01f30004 	mvnseq	r0, r4
    1240:	02a09f50 	adceq	r9, r0, #80, 30	; 0x140
    1244:	02c00000 	sbceq	r0, r0, #0
    1248:	00010000 	andeq	r0, r1, r0
    124c:	0002c050 	andeq	ip, r2, r0, asr r0
    1250:	0002d400 	andeq	sp, r2, r0, lsl #8
    1254:	f3000400 	vshl.u8	d0, d0, d0
    1258:	009f5001 	addseq	r5, pc, r1
    125c:	00000000 	andeq	r0, r0, r0
    1260:	5c000000 	stcpl	0, cr0, [r0], {-0}
    1264:	94000002 	strls	r0, [r0], #-2
    1268:	01000002 	tsteq	r0, r2
    126c:	02945100 	addseq	r5, r4, #0, 2
    1270:	02a00000 	adceq	r0, r0, #0
    1274:	00040000 	andeq	r0, r4, r0
    1278:	9f5101f3 	svcls	0x005101f3
    127c:	000002a0 	andeq	r0, r0, r0, lsr #5
    1280:	000002c4 	andeq	r0, r0, r4, asr #5
    1284:	c4510001 	ldrbgt	r0, [r1], #-1
    1288:	d4000002 	strle	r0, [r0], #-2
    128c:	04000002 	streq	r0, [r0], #-2
    1290:	5101f300 	mrspl	pc, SP_irq	; <UNPREDICTABLE>
    1294:	0000009f 	muleq	r0, pc, r0	; <UNPREDICTABLE>
    1298:	00000000 	andeq	r0, r0, r0
    129c:	00027000 	andeq	r7, r2, r0
    12a0:	00029000 	andeq	r9, r2, r0
    12a4:	50000100 	andpl	r0, r0, r0, lsl #2
    12a8:	00000290 	muleq	r0, r0, r2
    12ac:	000002a0 	andeq	r0, r0, r0, lsr #5
    12b0:	01f30004 	mvnseq	r0, r4
    12b4:	00009f50 	andeq	r9, r0, r0, asr pc
    12b8:	00000000 	andeq	r0, r0, r0
    12bc:	02780000 	rsbseq	r0, r8, #0
    12c0:	02800000 	addeq	r0, r0, #0
    12c4:	00020000 	andeq	r0, r2, r0
    12c8:	02809f30 	addeq	r9, r0, #48, 30	; 0xc0
    12cc:	02800000 	addeq	r0, r0, #0
    12d0:	00010000 	andeq	r0, r1, r0
    12d4:	00028052 	andeq	r8, r2, r2, asr r0
    12d8:	00028800 	andeq	r8, r2, r0, lsl #16
    12dc:	30000200 	andcc	r0, r0, r0, lsl #4
    12e0:	0002889f 	muleq	r2, pc, r8	; <UNPREDICTABLE>
    12e4:	00029b00 	andeq	r9, r2, r0, lsl #22
    12e8:	52000100 	andpl	r0, r0, #0, 2
	...
    12f4:	00000278 	andeq	r0, r0, r8, ror r2
    12f8:	0000028c 	andeq	r0, r0, ip, lsl #5
    12fc:	9f300002 	svcls	0x00300002
    1300:	0000028c 	andeq	r0, r0, ip, lsl #5
    1304:	00000298 	muleq	r0, r8, r2
    1308:	73310005 	teqvc	r1, #5
    130c:	989f2400 	ldmls	pc, {sl, sp}	; <UNPREDICTABLE>
    1310:	9b000002 	blls	1320 <_start-0x6ce0>
    1314:	01000002 	tsteq	r0, r2
    1318:	029b5100 	addseq	r5, fp, #0, 2
    131c:	02a00000 	adceq	r0, r0, #0
    1320:	00080000 	andeq	r0, r8, r0
    1324:	5001f331 	andpl	pc, r1, r1, lsr r3	; <UNPREDICTABLE>
    1328:	9f241a4f 	svcls	0x00241a4f
	...
    1334:	000002a0 	andeq	r0, r0, r0, lsr #5
    1338:	000002c0 	andeq	r0, r0, r0, asr #5
    133c:	c0500001 	subsgt	r0, r0, r1
    1340:	d4000002 	strle	r0, [r0], #-2
    1344:	04000002 	streq	r0, [r0], #-2
    1348:	5001f300 	andpl	pc, r1, r0, lsl #6
    134c:	0000009f 	muleq	r0, pc, r0	; <UNPREDICTABLE>
    1350:	00000000 	andeq	r0, r0, r0
    1354:	0002a800 	andeq	sl, r2, r0, lsl #16
    1358:	0002b000 	andeq	fp, r2, r0
    135c:	30000200 	andcc	r0, r0, r0, lsl #4
    1360:	0002b09f 	muleq	r2, pc, r0	; <UNPREDICTABLE>
    1364:	0002b000 	andeq	fp, r2, r0
    1368:	52000100 	andpl	r0, r0, #0, 2
    136c:	000002b0 			; <UNDEFINED> instruction: 0x000002b0
    1370:	000002b8 			; <UNDEFINED> instruction: 0x000002b8
    1374:	9f300002 	svcls	0x00300002
    1378:	000002b8 			; <UNDEFINED> instruction: 0x000002b8
    137c:	000002cb 	andeq	r0, r0, fp, asr #5
    1380:	00520001 	subseq	r0, r2, r1
    1384:	00000000 	andeq	r0, r0, r0
    1388:	a8000000 	stmdage	r0, {}	; <UNPREDICTABLE>
    138c:	bc000002 	stclt	0, cr0, [r0], {2}
    1390:	02000002 	andeq	r0, r0, #2
    1394:	bc9f3000 	ldclt	0, cr3, [pc], {0}
    1398:	c8000002 	stmdagt	r0, {r1}
    139c:	05000002 	streq	r0, [r0, #-2]
    13a0:	00733100 	rsbseq	r3, r3, r0, lsl #2
    13a4:	02c89f24 	sbceq	r9, r8, #36, 30	; 0x90
    13a8:	02cb0000 	sbceq	r0, fp, #0
    13ac:	00010000 	andeq	r0, r1, r0
    13b0:	0002cb51 	andeq	ip, r2, r1, asr fp
    13b4:	0002d400 	andeq	sp, r2, r0, lsl #8
    13b8:	31000800 	tstcc	r0, r0, lsl #16
    13bc:	4f5001f3 	svcmi	0x005001f3
    13c0:	009f241a 	addseq	r2, pc, sl, lsl r4	; <UNPREDICTABLE>
    13c4:	00000000 	andeq	r0, r0, r0
    13c8:	d4000000 	strle	r0, [r0], #-0
    13cc:	6c000002 	stcvs	0, cr0, [r0], {2}
    13d0:	01000003 	tsteq	r0, r3
    13d4:	036c5000 	cmneq	ip, #0
    13d8:	03ac0000 			; <UNDEFINED> instruction: 0x03ac0000
    13dc:	00010000 	andeq	r0, r1, r0
    13e0:	00000054 	andeq	r0, r0, r4, asr r0
    13e4:	00000000 	andeq	r0, r0, r0
    13e8:	0002d400 	andeq	sp, r2, r0, lsl #8
    13ec:	00036f00 	andeq	r6, r3, r0, lsl #30
    13f0:	51000100 	mrspl	r0, (UNDEF: 16)
    13f4:	0000036f 	andeq	r0, r0, pc, ror #6
    13f8:	000003ac 	andeq	r0, r0, ip, lsr #7
    13fc:	01f30004 	mvnseq	r0, r4
    1400:	00009f51 	andeq	r9, r0, r1, asr pc
    1404:	00000000 	andeq	r0, r0, r0
    1408:	03240000 	teqeq	r4, #0
    140c:	03280000 	teqeq	r8, #0
    1410:	00010000 	andeq	r0, r1, r0
    1414:	00033056 	andeq	r3, r3, r6, asr r0
    1418:	00033400 	andeq	r3, r3, r0, lsl #8
    141c:	56000100 	strpl	r0, [r0], -r0, lsl #2
    1420:	0000033c 	andeq	r0, r0, ip, lsr r3
    1424:	00000340 	andeq	r0, r0, r0, asr #6
    1428:	48560001 	ldmdami	r6, {r0}^
    142c:	4c000003 	stcmi	0, cr0, [r0], {3}
    1430:	01000003 	tsteq	r0, r3
    1434:	03545600 	cmpeq	r4, #0, 12
    1438:	03580000 	cmpeq	r8, #0
    143c:	00010000 	andeq	r0, r1, r0
    1440:	00036056 	andeq	r6, r3, r6, asr r0
    1444:	00036400 	andeq	r6, r3, r0, lsl #8
    1448:	56000100 	strpl	r0, [r0], -r0, lsl #2
    144c:	00000368 	andeq	r0, r0, r8, ror #6
    1450:	000003ac 	andeq	r0, r0, ip, lsr #7
    1454:	00560001 	subseq	r0, r6, r1
    1458:	00000000 	andeq	r0, r0, r0
    145c:	f8000000 			; <UNDEFINED> instruction: 0xf8000000
    1460:	20000002 	andcs	r0, r0, r2
    1464:	01000003 	tsteq	r0, r3
    1468:	03205300 	teqeq	r0, #0, 6
    146c:	03280000 	teqeq	r8, #0
    1470:	001c0000 	andseq	r0, ip, r0
    1474:	2cf70070 	ldclcs	0, cr0, [r7], #448	; 0x1c0
    1478:	25f425f7 	ldrbcs	r2, [r4, #1527]!	; 0x5f7
    147c:	cccccd08 	stclgt	13, cr12, [ip], {8}
    1480:	000000cc 	andeq	r0, r0, ip, asr #1
    1484:	20081e00 	andcs	r1, r8, r0, lsl #28
    1488:	f72525f7 			; <UNDEFINED> instruction: 0xf72525f7
    148c:	9f25332c 	svcls	0x0025332c
    1490:	00000328 	andeq	r0, r0, r8, lsr #6
    1494:	0000032c 	andeq	r0, r0, ip, lsr #6
    1498:	2c530001 	mrrccs	0, 0, r0, r3, cr1
    149c:	34000003 	strcc	r0, [r0], #-3
    14a0:	1c000003 	stcne	0, cr0, [r0], {3}
    14a4:	f7007000 			; <UNDEFINED> instruction: 0xf7007000
    14a8:	f425f72c 	vld1.8	{d15}, [r5 :128], ip
    14ac:	cccd0825 	stclgt	8, cr0, [sp], {37}	; 0x25
    14b0:	0000cccc 	andeq	ip, r0, ip, asr #25
    14b4:	081e0000 	ldmdaeq	lr, {}	; <UNPREDICTABLE>
    14b8:	2525f720 	strcs	pc, [r5, #-1824]!	; 0x720
    14bc:	25332cf7 	ldrcs	r2, [r3, #-3319]!	; 0xcf7
    14c0:	0003349f 	muleq	r3, pc, r4	; <UNPREDICTABLE>
    14c4:	00033800 	andeq	r3, r3, r0, lsl #16
    14c8:	53000100 	movwpl	r0, #256	; 0x100
    14cc:	00000338 	andeq	r0, r0, r8, lsr r3
    14d0:	00000340 	andeq	r0, r0, r0, asr #6
    14d4:	0070001c 	rsbseq	r0, r0, ip, lsl r0
    14d8:	25f72cf7 	ldrbcs	r2, [r7, #3319]!	; 0xcf7
    14dc:	cd0825f4 	cfstr32gt	mvfx2, [r8, #-976]	; 0xfffffc30
    14e0:	00cccccc 	sbceq	ip, ip, ip, asr #25
    14e4:	1e000000 	cdpne	0, 0, cr0, cr0, cr0, {0}
    14e8:	25f72008 	ldrbcs	r2, [r7, #8]!
    14ec:	332cf725 	msrcc	CPSR_fs, #9699328	; 0x940000
    14f0:	03409f25 	movteq	r9, #3877	; 0xf25
    14f4:	03440000 	movteq	r0, #16384	; 0x4000
    14f8:	00010000 	andeq	r0, r1, r0
    14fc:	00034453 	andeq	r4, r3, r3, asr r4
    1500:	00034c00 	andeq	r4, r3, r0, lsl #24
    1504:	70001c00 	andvc	r1, r0, r0, lsl #24
    1508:	f72cf700 			; <UNDEFINED> instruction: 0xf72cf700
    150c:	0825f425 	stmdaeq	r5!, {r0, r2, r5, sl, ip, sp, lr, pc}
    1510:	cccccccd 	stclgt	12, cr12, [ip], {205}	; 0xcd
    1514:	00000000 	andeq	r0, r0, r0
    1518:	f720081e 			; <UNDEFINED> instruction: 0xf720081e
    151c:	2cf72525 	cfldr64cs	mvdx2, [r7], #148	; 0x94
    1520:	4c9f2533 	cfldr32mi	mvfx2, [pc], {51}	; 0x33
    1524:	50000003 	andpl	r0, r0, r3
    1528:	01000003 	tsteq	r0, r3
    152c:	03505300 	cmpeq	r0, #0, 6
    1530:	03580000 	cmpeq	r8, #0
    1534:	001c0000 	andseq	r0, ip, r0
    1538:	2cf70070 	ldclcs	0, cr0, [r7], #448	; 0x1c0
    153c:	25f425f7 	ldrbcs	r2, [r4, #1527]!	; 0x5f7
    1540:	cccccd08 	stclgt	13, cr12, [ip], {8}
    1544:	000000cc 	andeq	r0, r0, ip, asr #1
    1548:	20081e00 	andcs	r1, r8, r0, lsl #28
    154c:	f72525f7 			; <UNDEFINED> instruction: 0xf72525f7
    1550:	9f25332c 	svcls	0x0025332c
    1554:	00000358 	andeq	r0, r0, r8, asr r3
    1558:	0000035c 	andeq	r0, r0, ip, asr r3
    155c:	5c530001 	mrrcpl	0, 0, r0, r3, cr1
    1560:	64000003 	strvs	r0, [r0], #-3
    1564:	1c000003 	stcne	0, cr0, [r0], {3}
    1568:	f7007000 			; <UNDEFINED> instruction: 0xf7007000
    156c:	f425f72c 	vld1.8	{d15}, [r5 :128], ip
    1570:	cccd0825 	stclgt	8, cr0, [sp], {37}	; 0x25
    1574:	0000cccc 	andeq	ip, r0, ip, asr #25
    1578:	081e0000 	ldmdaeq	lr, {}	; <UNPREDICTABLE>
    157c:	2525f720 	strcs	pc, [r5, #-1824]!	; 0x720
    1580:	25332cf7 	ldrcs	r2, [r3, #-3319]!	; 0xcf7
    1584:	0003649f 	muleq	r3, pc, r4	; <UNPREDICTABLE>
    1588:	00036800 	andeq	r6, r3, r0, lsl #16
    158c:	53000100 	movwpl	r0, #256	; 0x100
    1590:	00000368 	andeq	r0, r0, r8, ror #6
    1594:	0000036c 	andeq	r0, r0, ip, ror #6
    1598:	0070001c 	rsbseq	r0, r0, ip, lsl r0
    159c:	25f72cf7 	ldrbcs	r2, [r7, #3319]!	; 0xcf7
    15a0:	cd0825f4 	cfstr32gt	mvfx2, [r8, #-976]	; 0xfffffc30
    15a4:	00cccccc 	sbceq	ip, ip, ip, asr #25
    15a8:	1e000000 	cdpne	0, 0, cr0, cr0, cr0, {0}
    15ac:	25f72008 	ldrbcs	r2, [r7, #8]!
    15b0:	332cf725 	msrcc	CPSR_fs, #9699328	; 0x940000
    15b4:	036c9f25 	cmneq	ip, #37, 30	; 0x94
    15b8:	03740000 	cmneq	r4, #0
    15bc:	001c0000 	andseq	r0, ip, r0
    15c0:	2cf70074 	ldclcs	0, cr0, [r7], #464	; 0x1d0
    15c4:	25f425f7 	ldrbcs	r2, [r4, #1527]!	; 0x5f7
    15c8:	cccccd08 	stclgt	13, cr12, [ip], {8}
    15cc:	000000cc 	andeq	r0, r0, ip, asr #1
    15d0:	20081e00 	andcs	r1, r8, r0, lsl #28
    15d4:	f72525f7 			; <UNDEFINED> instruction: 0xf72525f7
    15d8:	9f25332c 	svcls	0x0025332c
    15dc:	00000374 	andeq	r0, r0, r4, ror r3
    15e0:	00000378 	andeq	r0, r0, r8, ror r3
    15e4:	00740017 	rsbseq	r0, r4, r7, lsl r0
    15e8:	25f72cf7 	ldrbcs	r2, [r7, #3319]!	; 0xcf7
    15ec:	2cf70073 	ldclcs	0, cr0, [r7], #460	; 0x1cc
    15f0:	081e25f7 	ldmdaeq	lr, {r0, r1, r2, r4, r5, r6, r7, r8, sl, sp}
    15f4:	2525f720 	strcs	pc, [r5, #-1824]!	; 0x720
    15f8:	25332cf7 	ldrcs	r2, [r3, #-3319]!	; 0xcf7
    15fc:	0003789f 	muleq	r3, pc, r8	; <UNPREDICTABLE>
    1600:	0003ac00 	andeq	sl, r3, r0, lsl #24
    1604:	74001c00 	strvc	r1, [r0], #-3072	; 0xc00
    1608:	f72cf700 			; <UNDEFINED> instruction: 0xf72cf700
    160c:	0825f425 	stmdaeq	r5!, {r0, r2, r5, sl, ip, sp, lr, pc}
    1610:	cccccccd 	stclgt	12, cr12, [ip], {205}	; 0xcd
    1614:	00000000 	andeq	r0, r0, r0
    1618:	f720081e 			; <UNDEFINED> instruction: 0xf720081e
    161c:	2cf72525 	cfldr64cs	mvdx2, [r7], #148	; 0x94
    1620:	009f2533 	addseq	r2, pc, r3, lsr r5	; <UNPREDICTABLE>
    1624:	00000000 	andeq	r0, r0, r0
    1628:	70000000 	andvc	r0, r0, r0
    162c:	94000003 	strls	r0, [r0], #-3
    1630:	01000003 	tsteq	r0, r3
    1634:	03945000 	orrseq	r5, r4, #0
    1638:	039c0000 	orrseq	r0, ip, #0
    163c:	00090000 	andeq	r0, r9, r0
    1640:	00730075 	rsbseq	r0, r3, r5, ror r0
    1644:	21007124 	tstcs	r0, r4, lsr #2
    1648:	00039c9f 	muleq	r3, pc, ip	; <UNPREDICTABLE>
    164c:	00039f00 	andeq	r9, r3, r0, lsl #30
    1650:	51000100 	mrspl	r0, (UNDEF: 16)
	...
    165c:	000003ac 	andeq	r0, r0, ip, lsr #7
    1660:	000003b8 			; <UNDEFINED> instruction: 0x000003b8
    1664:	b8500001 	ldmdalt	r0, {r0}^
    1668:	d8000003 	stmdale	r0, {r0, r1}
    166c:	04000003 	streq	r0, [r0], #-3
    1670:	5001f300 	andpl	pc, r1, r0, lsl #6
    1674:	0000009f 	muleq	r0, pc, r0	; <UNPREDICTABLE>
    1678:	00000000 	andeq	r0, r0, r0
    167c:	0003d800 	andeq	sp, r3, r0, lsl #16
    1680:	0003eb00 	andeq	lr, r3, r0, lsl #22
    1684:	50000100 	andpl	r0, r0, r0, lsl #2
    1688:	000003eb 	andeq	r0, r0, fp, ror #7
    168c:	00000424 	andeq	r0, r0, r4, lsr #8
    1690:	24540001 	ldrbcs	r0, [r4], #-1
    1694:	5c000004 	stcpl	0, cr0, [r0], {4}
    1698:	04000004 	streq	r0, [r0], #-4
    169c:	5001f300 	andpl	pc, r1, r0, lsl #6
    16a0:	0000009f 	muleq	r0, pc, r0	; <UNPREDICTABLE>
    16a4:	00000000 	andeq	r0, r0, r0
    16a8:	00044400 	andeq	r4, r4, r0, lsl #8
    16ac:	00044800 	andeq	r4, r4, r0, lsl #16
    16b0:	50000100 	andpl	r0, r0, r0, lsl #2
    16b4:	00000448 	andeq	r0, r0, r8, asr #8
    16b8:	0000044f 	andeq	r0, r0, pc, asr #8
    16bc:	00510001 	subseq	r0, r1, r1
	...
    16c8:	08000004 	stmdaeq	r0, {r2}
    16cc:	01000004 	tsteq	r0, r4
    16d0:	04085000 	streq	r5, [r8], #-0
    16d4:	040f0000 	streq	r0, [pc], #-0	; 16dc <_start-0x6924>
    16d8:	00010000 	andeq	r0, r1, r0
    16dc:	00000051 	andeq	r0, r0, r1, asr r0
    16e0:	00000000 	andeq	r0, r0, r0
    16e4:	00042000 	andeq	r2, r4, r0
    16e8:	00042c00 	andeq	r2, r4, r0, lsl #24
    16ec:	50000100 	andpl	r0, r0, r0, lsl #2
    16f0:	0000042c 	andeq	r0, r0, ip, lsr #8
    16f4:	00000433 	andeq	r0, r0, r3, lsr r4
    16f8:	00510001 	subseq	r0, r1, r1
    16fc:	00000000 	andeq	r0, r0, r0
    1700:	5c000000 	stcpl	0, cr0, [r0], {-0}
    1704:	6f000004 	svcvs	0x00000004
    1708:	01000004 	tsteq	r0, r4
    170c:	046f5000 	strbteq	r5, [pc], #-0	; 1714 <_start-0x68ec>
    1710:	04a80000 	strteq	r0, [r8], #0
    1714:	00010000 	andeq	r0, r1, r0
    1718:	0004a854 	andeq	sl, r4, r4, asr r8
    171c:	0004e000 	andeq	lr, r4, r0
    1720:	f3000400 	vshl.u8	d0, d0, d0
    1724:	009f5001 	addseq	r5, pc, r1
    1728:	00000000 	andeq	r0, r0, r0
    172c:	c8000000 	stmdagt	r0, {}	; <UNPREDICTABLE>
    1730:	cc000004 	stcgt	0, cr0, [r0], {4}
    1734:	01000004 	tsteq	r0, r4
    1738:	04cc5000 	strbeq	r5, [ip], #0
    173c:	04d30000 	ldrbeq	r0, [r3], #0
    1740:	00010000 	andeq	r0, r1, r0
    1744:	00000051 	andeq	r0, r0, r1, asr r0
    1748:	00000000 	andeq	r0, r0, r0
    174c:	00048400 	andeq	r8, r4, r0, lsl #8
    1750:	00048c00 	andeq	r8, r4, r0, lsl #24
    1754:	50000100 	andpl	r0, r0, r0, lsl #2
    1758:	0000048c 	andeq	r0, r0, ip, lsl #9
    175c:	00000493 	muleq	r0, r3, r4
    1760:	00510001 	subseq	r0, r1, r1
    1764:	00000000 	andeq	r0, r0, r0
    1768:	a4000000 	strge	r0, [r0], #-0
    176c:	b0000004 	andlt	r0, r0, r4
    1770:	01000004 	tsteq	r0, r4
    1774:	04b05000 	ldrteq	r5, [r0], #0
    1778:	04b70000 	ldrteq	r0, [r7], #0
    177c:	00010000 	andeq	r0, r1, r0
    1780:	00000051 	andeq	r0, r0, r1, asr r0
    1784:	00000000 	andeq	r0, r0, r0
    1788:	0004e000 	andeq	lr, r4, r0
    178c:	0004f300 	andeq	pc, r4, r0, lsl #6
    1790:	50000100 	andpl	r0, r0, r0, lsl #2
    1794:	000004f3 	strdeq	r0, [r0], -r3
    1798:	00000534 	andeq	r0, r0, r4, lsr r5
    179c:	34540001 	ldrbcc	r0, [r4], #-1
    17a0:	58000005 	stmdapl	r0, {r0, r2}
    17a4:	04000005 	streq	r0, [r0], #-5
    17a8:	5001f300 	andpl	pc, r1, r0, lsl #6
    17ac:	0005589f 	muleq	r5, pc, r8	; <UNPREDICTABLE>
    17b0:	00055c00 	andeq	r5, r5, r0, lsl #24
    17b4:	50000100 	andpl	r0, r0, r0, lsl #2
    17b8:	0000055c 	andeq	r0, r0, ip, asr r5
    17bc:	00000564 	andeq	r0, r0, r4, ror #10
    17c0:	00540001 	subseq	r0, r4, r1
    17c4:	00000000 	andeq	r0, r0, r0
    17c8:	08000000 	stmdaeq	r0, {}	; <UNPREDICTABLE>
    17cc:	17000005 	strne	r0, [r0, -r5]
    17d0:	08000005 	stmdaeq	r0, {r0, r2}
    17d4:	00743100 	rsbseq	r3, r4, r0, lsl #2
    17d8:	1a007024 	bne	1d870 <__bss_end__+0x119b0>
    17dc:	0000009f 	muleq	r0, pc, r0	; <UNPREDICTABLE>
    17e0:	00000000 	andeq	r0, r0, r0
    17e4:	00053400 	andeq	r3, r5, r0, lsl #8
    17e8:	00054c00 	andeq	r4, r5, r0, lsl #24
    17ec:	54000100 	strpl	r0, [r0], #-256	; 0x100
	...
    17f8:	00000564 	andeq	r0, r0, r4, ror #10
    17fc:	00000577 	andeq	r0, r0, r7, ror r5
    1800:	77500001 	ldrbvc	r0, [r0, -r1]
    1804:	9c000005 	stcls	0, cr0, [r0], {5}
    1808:	01000005 	tsteq	r0, r5
    180c:	059c5400 	ldreq	r5, [ip, #1024]	; 0x400
    1810:	05bc0000 	ldreq	r0, [ip, #0]!
    1814:	00040000 	andeq	r0, r4, r0
    1818:	9f5001f3 	svcls	0x005001f3
	...
    1828:	00000018 	andeq	r0, r0, r8, lsl r0
    182c:	18500001 	ldmdane	r0, {r0}^
    1830:	54000000 	strpl	r0, [r0], #-0
    1834:	04000001 	streq	r0, [r0], #-1
    1838:	5001f300 	andpl	pc, r1, r0, lsl #6
    183c:	0000009f 	muleq	r0, pc, r0	; <UNPREDICTABLE>
	...
    1848:	00001c00 	andeq	r1, r0, r0, lsl #24
    184c:	51000100 	mrspl	r0, (UNDEF: 16)
    1850:	0000001c 	andeq	r0, r0, ip, lsl r0
    1854:	00000154 	andeq	r0, r0, r4, asr r1
    1858:	01f30004 	mvnseq	r0, r4
    185c:	00009f51 	andeq	r9, r0, r1, asr pc
    1860:	00000000 	andeq	r0, r0, r0
    1864:	00100000 	andseq	r0, r0, r0
    1868:	01340000 	teqeq	r4, r0
    186c:	00010000 	andeq	r0, r1, r0
    1870:	00000055 	andeq	r0, r0, r5, asr r0
    1874:	00000000 	andeq	r0, r0, r0
    1878:	00001000 	andeq	r1, r0, r0
    187c:	00003400 	andeq	r3, r0, r0, lsl #8
    1880:	55000100 	strpl	r0, [r0, #-256]	; 0x100
    1884:	00000034 	andeq	r0, r0, r4, lsr r0
    1888:	00000134 	andeq	r0, r0, r4, lsr r1
    188c:	34580001 	ldrbcc	r0, [r8], #-1
    1890:	54000001 	strpl	r0, [r0], #-1
    1894:	01000001 	tsteq	r0, r1
    1898:	00005500 	andeq	r5, r0, r0, lsl #10
    189c:	00000000 	andeq	r0, r0, r0
    18a0:	00140000 	andseq	r0, r4, r0
    18a4:	01340000 	teqeq	r4, r0
    18a8:	00010000 	andeq	r0, r1, r0
    18ac:	00000055 	andeq	r0, r0, r5, asr r0
    18b0:	00000000 	andeq	r0, r0, r0
    18b4:	00002000 	andeq	r2, r0, r0
    18b8:	00013400 	andeq	r3, r1, r0, lsl #8
    18bc:	55000100 	strpl	r0, [r0, #-256]	; 0x100
	...
    18c8:	00000024 	andeq	r0, r0, r4, lsr #32
    18cc:	00000028 	andeq	r0, r0, r8, lsr #32
    18d0:	00530001 	subseq	r0, r3, r1
    18d4:	00000000 	andeq	r0, r0, r0
    18d8:	34000000 	strcc	r0, [r0], #-0
    18dc:	54000000 	strpl	r0, [r0], #-0
    18e0:	01000000 	mrseq	r0, (UNDEF: 0)
    18e4:	00545800 	subseq	r5, r4, r0, lsl #16
    18e8:	01340000 	teqeq	r4, r0
    18ec:	00050000 	andeq	r0, r5, r0
    18f0:	24310075 	ldrtcs	r0, [r1], #-117	; 0x75
    18f4:	0000009f 	muleq	r0, pc, r0	; <UNPREDICTABLE>
    18f8:	00000000 	andeq	r0, r0, r0
    18fc:	00003400 	andeq	r3, r0, r0, lsl #8
    1900:	00003c00 	andeq	r3, r0, r0, lsl #24
    1904:	77000500 	strvc	r0, [r0, -r0, lsl #10]
    1908:	9f1a3100 	svcls	0x001a3100
    190c:	0000003c 	andeq	r0, r0, ip, lsr r0
    1910:	0000003f 	andeq	r0, r0, pc, lsr r0
    1914:	3f510001 	svccc	0x00510001
    1918:	54000000 	strpl	r0, [r0], #-0
    191c:	05000001 	streq	r0, [r0, #-1]
    1920:	31007700 	tstcc	r0, r0, lsl #14
    1924:	00009f1a 	andeq	r9, r0, sl, lsl pc
    1928:	00000000 	andeq	r0, r0, r0
    192c:	00400000 	subeq	r0, r0, r0
    1930:	00540000 	subseq	r0, r4, r0
    1934:	00010000 	andeq	r0, r1, r0
    1938:	00005458 	andeq	r5, r0, r8, asr r4
    193c:	00013400 	andeq	r3, r1, r0, lsl #8
    1940:	75000500 	strvc	r0, [r0, #-1280]	; 0x500
    1944:	9f243100 	svcls	0x00243100
	...
    1950:	00000044 	andeq	r0, r0, r4, asr #32
    1954:	00000048 	andeq	r0, r0, r8, asr #32
    1958:	00530001 	subseq	r0, r3, r1
    195c:	00000000 	andeq	r0, r0, r0
    1960:	54000000 	strpl	r0, [r0], #-0
    1964:	74000000 	strvc	r0, [r0], #-0
    1968:	01000000 	mrseq	r0, (UNDEF: 0)
    196c:	00745800 	rsbseq	r5, r4, r0, lsl #16
    1970:	01340000 	teqeq	r4, r0
    1974:	00080000 	andeq	r0, r8, r0
    1978:	24310075 	ldrtcs	r0, [r1], #-117	; 0x75
    197c:	9f220075 	svcls	0x00220075
	...
    1988:	00000060 	andeq	r0, r0, r0, rrx
    198c:	00000074 	andeq	r0, r0, r4, ror r0
    1990:	74580001 	ldrbvc	r0, [r8], #-1
    1994:	34000000 	strcc	r0, [r0], #-0
    1998:	08000001 	stmdaeq	r0, {r0}
    199c:	31007500 	tstcc	r0, r0, lsl #10
    19a0:	22007524 	andcs	r7, r0, #36, 10	; 0x9000000
    19a4:	0000009f 	muleq	r0, pc, r0	; <UNPREDICTABLE>
    19a8:	00000000 	andeq	r0, r0, r0
    19ac:	00006400 	andeq	r6, r0, r0, lsl #8
    19b0:	00006800 	andeq	r6, r0, r0, lsl #16
    19b4:	53000100 	movwpl	r0, #256	; 0x100
	...
    19c0:	00000074 	andeq	r0, r0, r4, ror r0
    19c4:	00000094 	muleq	r0, r4, r0
    19c8:	94580001 	ldrbls	r0, [r8], #-1
    19cc:	34000000 	strcc	r0, [r0], #-0
    19d0:	05000001 	streq	r0, [r0, #-1]
    19d4:	32007500 	andcc	r7, r0, #0, 10
    19d8:	00009f24 	andeq	r9, r0, r4, lsr #30
    19dc:	00000000 	andeq	r0, r0, r0
    19e0:	00800000 	addeq	r0, r0, r0
    19e4:	00940000 	addseq	r0, r4, r0
    19e8:	00010000 	andeq	r0, r1, r0
    19ec:	00009458 	andeq	r9, r0, r8, asr r4
    19f0:	00013400 	andeq	r3, r1, r0, lsl #8
    19f4:	75000500 	strvc	r0, [r0, #-1280]	; 0x500
    19f8:	9f243200 	svcls	0x00243200
	...
    1a04:	00000084 	andeq	r0, r0, r4, lsl #1
    1a08:	00000088 	andeq	r0, r0, r8, lsl #1
    1a0c:	00530001 	subseq	r0, r3, r1
    1a10:	00000000 	andeq	r0, r0, r0
    1a14:	94000000 	strls	r0, [r0], #-0
    1a18:	b4000000 	strlt	r0, [r0], #-0
    1a1c:	01000000 	mrseq	r0, (UNDEF: 0)
    1a20:	00b45800 	adcseq	r5, r4, r0, lsl #16
    1a24:	01340000 	teqeq	r4, r0
    1a28:	00080000 	andeq	r0, r8, r0
    1a2c:	24320075 	ldrtcs	r0, [r2], #-117	; 0x75
    1a30:	9f220075 	svcls	0x00220075
	...
    1a3c:	000000a0 	andeq	r0, r0, r0, lsr #1
    1a40:	000000b4 	strheq	r0, [r0], -r4
    1a44:	b4580001 	ldrblt	r0, [r8], #-1
    1a48:	34000000 	strcc	r0, [r0], #-0
    1a4c:	08000001 	stmdaeq	r0, {r0}
    1a50:	32007500 	andcc	r7, r0, #0, 10
    1a54:	22007524 	andcs	r7, r0, #36, 10	; 0x9000000
    1a58:	0000009f 	muleq	r0, pc, r0	; <UNPREDICTABLE>
    1a5c:	00000000 	andeq	r0, r0, r0
    1a60:	0000a400 	andeq	sl, r0, r0, lsl #8
    1a64:	0000a800 	andeq	sl, r0, r0, lsl #16
    1a68:	53000100 	movwpl	r0, #256	; 0x100
	...
    1a74:	000000b4 	strheq	r0, [r0], -r4
    1a78:	000000d4 	ldrdeq	r0, [r0], -r4
    1a7c:	d4580001 	ldrble	r0, [r8], #-1
    1a80:	34000000 	strcc	r0, [r0], #-0
    1a84:	0a000001 	beq	1a90 <_start-0x6570>
    1a88:	32007500 	andcc	r7, r0, #0, 10
    1a8c:	31007524 	tstcc	r0, r4, lsr #10
    1a90:	009f2224 	addseq	r2, pc, r4, lsr #4
    1a94:	00000000 	andeq	r0, r0, r0
    1a98:	c0000000 	andgt	r0, r0, r0
    1a9c:	d4000000 	strle	r0, [r0], #-0
    1aa0:	01000000 	mrseq	r0, (UNDEF: 0)
    1aa4:	00d45800 	sbcseq	r5, r4, r0, lsl #16
    1aa8:	01340000 	teqeq	r4, r0
    1aac:	000a0000 	andeq	r0, sl, r0
    1ab0:	24320075 	ldrtcs	r0, [r2], #-117	; 0x75
    1ab4:	24310075 	ldrtcs	r0, [r1], #-117	; 0x75
    1ab8:	00009f22 	andeq	r9, r0, r2, lsr #30
    1abc:	00000000 	andeq	r0, r0, r0
    1ac0:	00c40000 	sbceq	r0, r4, r0
    1ac4:	00c80000 	sbceq	r0, r8, r0
    1ac8:	00010000 	andeq	r0, r1, r0
    1acc:	00000053 	andeq	r0, r0, r3, asr r0
    1ad0:	00000000 	andeq	r0, r0, r0
    1ad4:	0000d400 	andeq	sp, r0, r0, lsl #8
    1ad8:	0000f400 	andeq	pc, r0, r0, lsl #8
    1adc:	58000100 	stmdapl	r0, {r8}
    1ae0:	000000f4 	strdeq	r0, [r0], -r4
    1ae4:	00000134 	andeq	r0, r0, r4, lsr r1
    1ae8:	0075000d 	rsbseq	r0, r5, sp
    1aec:	00752432 	rsbseq	r2, r5, r2, lsr r4
    1af0:	75222431 	strvc	r2, [r2, #-1073]!	; 0x431
    1af4:	009f2200 	addseq	r2, pc, r0, lsl #4
    1af8:	00000000 	andeq	r0, r0, r0
    1afc:	e0000000 	and	r0, r0, r0
    1b00:	f4000000 	vst4.8	{d0-d3}, [r0], r0
    1b04:	01000000 	mrseq	r0, (UNDEF: 0)
    1b08:	00f45800 	rscseq	r5, r4, r0, lsl #16
    1b0c:	01340000 	teqeq	r4, r0
    1b10:	000d0000 	andeq	r0, sp, r0
    1b14:	24320075 	ldrtcs	r0, [r2], #-117	; 0x75
    1b18:	24310075 	ldrtcs	r0, [r1], #-117	; 0x75
    1b1c:	22007522 	andcs	r7, r0, #142606336	; 0x8800000
    1b20:	0000009f 	muleq	r0, pc, r0	; <UNPREDICTABLE>
    1b24:	00000000 	andeq	r0, r0, r0
    1b28:	0000e400 	andeq	lr, r0, r0, lsl #8
    1b2c:	0000e800 	andeq	lr, r0, r0, lsl #16
    1b30:	53000100 	movwpl	r0, #256	; 0x100
	...
    1b3c:	000000f4 	strdeq	r0, [r0], -r4
    1b40:	00000114 	andeq	r0, r0, r4, lsl r1
    1b44:	14580001 	ldrbne	r0, [r8], #-1
    1b48:	34000001 	strcc	r0, [r0], #-1
    1b4c:	05000001 	streq	r0, [r0, #-1]
    1b50:	33007500 	movwcc	r7, #1280	; 0x500
    1b54:	00009f24 	andeq	r9, r0, r4, lsr #30
    1b58:	00000000 	andeq	r0, r0, r0
    1b5c:	01000000 	mrseq	r0, (UNDEF: 0)
    1b60:	01140000 	tsteq	r4, r0
    1b64:	00010000 	andeq	r0, r1, r0
    1b68:	00011458 	andeq	r1, r1, r8, asr r4
    1b6c:	00013400 	andeq	r3, r1, r0, lsl #8
    1b70:	75000500 	strvc	r0, [r0, #-1280]	; 0x500
    1b74:	9f243300 	svcls	0x00243300
	...
    1b80:	00000104 	andeq	r0, r0, r4, lsl #2
    1b84:	00000108 	andeq	r0, r0, r8, lsl #2
    1b88:	00530001 	subseq	r0, r3, r1
    1b8c:	00000000 	andeq	r0, r0, r0
    1b90:	14000000 	strne	r0, [r0], #-0
    1b94:	1c000001 	stcne	0, cr0, [r0], {1}
    1b98:	06000001 	streq	r0, [r0], -r1
    1b9c:	08007700 	stmdaeq	r0, {r8, r9, sl, ip, sp, lr}
    1ba0:	1c9f1a80 	vldmiane	pc, {s2-s129}
    1ba4:	1f000001 	svcne	0x00000001
    1ba8:	01000001 	tsteq	r0, r1
    1bac:	011f5100 	tsteq	pc, r0, lsl #2
    1bb0:	01540000 	cmpeq	r4, r0
    1bb4:	00060000 	andeq	r0, r6, r0
    1bb8:	80080077 	andhi	r0, r8, r7, ror r0
    1bbc:	00009f1a 	andeq	r9, r0, sl, lsl pc
    1bc0:	00000000 	andeq	r0, r0, r0
    1bc4:	01240000 	teqeq	r4, r0
    1bc8:	01280000 	teqeq	r8, r0
    1bcc:	00010000 	andeq	r0, r1, r0
    1bd0:	00000053 	andeq	r0, r0, r3, asr r0
    1bd4:	00000000 	andeq	r0, r0, r0
    1bd8:	00014400 	andeq	r4, r1, r0, lsl #8
    1bdc:	00014800 	andeq	r4, r1, r0, lsl #16
    1be0:	53000100 	movwpl	r0, #256	; 0x100
	...
    1bec:	00000154 	andeq	r0, r0, r4, asr r1
    1bf0:	0000016b 	andeq	r0, r0, fp, ror #2
    1bf4:	6b500001 	blvs	1401c00 <__bss_end__+0x13f5d40>
    1bf8:	d0000001 	andle	r0, r0, r1
    1bfc:	01000001 	tsteq	r0, r1
    1c00:	01d05900 	bicseq	r5, r0, r0, lsl #18
    1c04:	030c0000 	movweq	r0, #49152	; 0xc000
    1c08:	00040000 	andeq	r0, r4, r0
    1c0c:	9f5001f3 	svcls	0x005001f3
    1c10:	0000030c 	andeq	r0, r0, ip, lsl #6
    1c14:	00000314 	andeq	r0, r0, r4, lsl r3
    1c18:	14590001 	ldrbne	r0, [r9], #-1
    1c1c:	1c000003 	stcne	0, cr0, [r0], {3}
    1c20:	04000003 	streq	r0, [r0], #-3
    1c24:	5001f300 	andpl	pc, r1, r0, lsl #6
    1c28:	0000009f 	muleq	r0, pc, r0	; <UNPREDICTABLE>
    1c2c:	00000000 	andeq	r0, r0, r0
    1c30:	00015400 	andeq	r5, r1, r0, lsl #8
    1c34:	00016b00 	andeq	r6, r1, r0, lsl #22
    1c38:	51000100 	mrspl	r0, (UNDEF: 16)
    1c3c:	0000016b 	andeq	r0, r0, fp, ror #2
    1c40:	0000031c 	andeq	r0, r0, ip, lsl r3
    1c44:	00560001 	subseq	r0, r6, r1
    1c48:	00000000 	andeq	r0, r0, r0
    1c4c:	a8000000 	stmdage	r0, {}	; <UNPREDICTABLE>
    1c50:	98000001 	stmdals	r0, {r0}
    1c54:	01000002 	tsteq	r0, r2
    1c58:	00005800 	andeq	r5, r0, r0, lsl #16
    1c5c:	00000000 	andeq	r0, r0, r0
    1c60:	01ac0000 			; <UNDEFINED> instruction: 0x01ac0000
    1c64:	02d00000 	sbcseq	r0, r0, #0
    1c68:	00010000 	andeq	r0, r1, r0
    1c6c:	00000054 	andeq	r0, r0, r4, asr r0
    1c70:	00000000 	andeq	r0, r0, r0
    1c74:	0001ac00 	andeq	sl, r1, r0, lsl #24
    1c78:	0002d000 	andeq	sp, r2, r0
    1c7c:	74000500 	strvc	r0, [r0], #-1280	; 0x500
    1c80:	9f253100 	svcls	0x00253100
	...
    1c8c:	000001ac 	andeq	r0, r0, ip, lsr #3
    1c90:	000001d0 	ldrdeq	r0, [r0], -r0	; <UNPREDICTABLE>
    1c94:	9f300002 	svcls	0x00300002
    1c98:	000001d0 	ldrdeq	r0, [r0], -r0	; <UNPREDICTABLE>
    1c9c:	0000030c 	andeq	r0, r0, ip, lsl #6
    1ca0:	14590001 	ldrbne	r0, [r9], #-1
    1ca4:	1c000003 	stcne	0, cr0, [r0], {3}
    1ca8:	01000003 	tsteq	r0, r3
    1cac:	00005900 	andeq	r5, r0, r0, lsl #18
    1cb0:	00000000 	andeq	r0, r0, r0
    1cb4:	01680000 	cmneq	r8, r0
    1cb8:	016b0000 	cmneq	fp, r0
    1cbc:	00010000 	andeq	r0, r1, r0
    1cc0:	00016b51 	andeq	r6, r1, r1, asr fp
    1cc4:	00031c00 	andeq	r1, r3, r0, lsl #24
    1cc8:	56000100 	strpl	r0, [r0], -r0, lsl #2
	...
    1cd4:	00000170 	andeq	r0, r0, r0, ror r1
    1cd8:	000001ac 	andeq	r0, r0, ip, lsr #3
    1cdc:	0c540001 	mrrceq	0, 0, r0, r4, cr1
    1ce0:	14000003 	strne	r0, [r0], #-3
    1ce4:	01000003 	tsteq	r0, r3
    1ce8:	00005400 	andeq	r5, r0, r0, lsl #8
    1cec:	00000000 	andeq	r0, r0, r0
    1cf0:	01a80000 			; <UNDEFINED> instruction: 0x01a80000
    1cf4:	01c40000 	biceq	r0, r4, r0
    1cf8:	00010000 	andeq	r0, r1, r0
    1cfc:	00000058 	andeq	r0, r0, r8, asr r0
    1d00:	00000000 	andeq	r0, r0, r0
    1d04:	0001b000 	andeq	fp, r1, r0
    1d08:	0001cb00 	andeq	ip, r1, r0, lsl #22
    1d0c:	52000100 	andpl	r0, r0, #0, 2
    1d10:	000001cb 	andeq	r0, r0, fp, asr #3
    1d14:	000002d0 	ldrdeq	r0, [r0], -r0	; <UNPREDICTABLE>
    1d18:	00740008 	rsbseq	r0, r4, r8
    1d1c:	00742531 	rsbseq	r2, r4, r1, lsr r5
    1d20:	00009f22 	andeq	r9, r0, r2, lsr #30
    1d24:	00000000 	andeq	r0, r0, r0
    1d28:	01b00000 	movseq	r0, r0
    1d2c:	01c40000 	biceq	r0, r4, r0
    1d30:	00010000 	andeq	r0, r1, r0
    1d34:	00000058 	andeq	r0, r0, r8, asr r0
    1d38:	00000000 	andeq	r0, r0, r0
    1d3c:	0001b400 	andeq	fp, r1, r0, lsl #8
    1d40:	0001b800 	andeq	fp, r1, r0, lsl #16
    1d44:	53000100 	movwpl	r0, #256	; 0x100
	...
    1d50:	000001d0 	ldrdeq	r0, [r0], -r0	; <UNPREDICTABLE>
    1d54:	000002d0 	ldrdeq	r0, [r0], -r0	; <UNPREDICTABLE>
    1d58:	00540001 	subseq	r0, r4, r1
    1d5c:	00000000 	andeq	r0, r0, r0
    1d60:	d0000000 	andle	r0, r0, r0
    1d64:	e4000001 	str	r0, [r0], #-1
    1d68:	01000001 	tsteq	r0, r1
    1d6c:	00005800 	andeq	r5, r0, r0, lsl #16
    1d70:	00000000 	andeq	r0, r0, r0
    1d74:	01d40000 	bicseq	r0, r4, r0
    1d78:	01d80000 	bicseq	r0, r8, r0
    1d7c:	00010000 	andeq	r0, r1, r0
    1d80:	00000053 	andeq	r0, r0, r3, asr r0
    1d84:	00000000 	andeq	r0, r0, r0
    1d88:	0001f400 	andeq	pc, r1, r0, lsl #8
    1d8c:	0002d000 	andeq	sp, r2, r0
    1d90:	54000100 	strpl	r0, [r0], #-256	; 0x100
	...
    1d9c:	000001f4 	strdeq	r0, [r0], -r4
    1da0:	00000208 	andeq	r0, r0, r8, lsl #4
    1da4:	00580001 	subseq	r0, r8, r1
    1da8:	00000000 	andeq	r0, r0, r0
    1dac:	f8000000 			; <UNDEFINED> instruction: 0xf8000000
    1db0:	fc000001 	stc2	0, cr0, [r0], {1}
    1db4:	01000001 	tsteq	r0, r1
    1db8:	00005300 	andeq	r5, r0, r0, lsl #6
    1dbc:	00000000 	andeq	r0, r0, r0
    1dc0:	02180000 	andseq	r0, r8, #0
    1dc4:	02d00000 	sbcseq	r0, r0, #0
    1dc8:	00010000 	andeq	r0, r1, r0
    1dcc:	00000054 	andeq	r0, r0, r4, asr r0
    1dd0:	00000000 	andeq	r0, r0, r0
    1dd4:	00021800 	andeq	r1, r2, r0, lsl #16
    1dd8:	00022c00 	andeq	r2, r2, r0, lsl #24
    1ddc:	58000100 	stmdapl	r0, {r8}
	...
    1de8:	0000021c 	andeq	r0, r0, ip, lsl r2
    1dec:	00000220 	andeq	r0, r0, r0, lsr #4
    1df0:	00530001 	subseq	r0, r3, r1
    1df4:	00000000 	andeq	r0, r0, r0
    1df8:	3c000000 	stccc	0, cr0, [r0], {-0}
    1dfc:	d0000002 	andle	r0, r0, r2
    1e00:	01000002 	tsteq	r0, r2
    1e04:	00005400 	andeq	r5, r0, r0, lsl #8
    1e08:	00000000 	andeq	r0, r0, r0
    1e0c:	023c0000 	eorseq	r0, ip, #0
    1e10:	02500000 	subseq	r0, r0, #0
    1e14:	00010000 	andeq	r0, r1, r0
    1e18:	00000058 	andeq	r0, r0, r8, asr r0
    1e1c:	00000000 	andeq	r0, r0, r0
    1e20:	00024000 	andeq	r4, r2, r0
    1e24:	00024400 	andeq	r4, r2, r0, lsl #8
    1e28:	53000100 	movwpl	r0, #256	; 0x100
	...
    1e34:	00000260 	andeq	r0, r0, r0, ror #4
    1e38:	000002d0 	ldrdeq	r0, [r0], -r0	; <UNPREDICTABLE>
    1e3c:	00540001 	subseq	r0, r4, r1
    1e40:	00000000 	andeq	r0, r0, r0
    1e44:	60000000 	andvs	r0, r0, r0
    1e48:	74000002 	strvc	r0, [r0], #-2
    1e4c:	01000002 	tsteq	r0, r2
    1e50:	00005800 	andeq	r5, r0, r0, lsl #16
    1e54:	00000000 	andeq	r0, r0, r0
    1e58:	02640000 	rsbeq	r0, r4, #0
    1e5c:	02680000 	rsbeq	r0, r8, #0
    1e60:	00010000 	andeq	r0, r1, r0
    1e64:	00000053 	andeq	r0, r0, r3, asr r0
    1e68:	00000000 	andeq	r0, r0, r0
    1e6c:	00028400 	andeq	r8, r2, r0, lsl #8
    1e70:	0002d000 	andeq	sp, r2, r0
    1e74:	54000100 	strpl	r0, [r0], #-256	; 0x100
	...
    1e80:	00000284 	andeq	r0, r0, r4, lsl #5
    1e84:	00000298 	muleq	r0, r8, r2
    1e88:	00580001 	subseq	r0, r8, r1
    1e8c:	00000000 	andeq	r0, r0, r0
    1e90:	88000000 	stmdahi	r0, {}	; <UNPREDICTABLE>
    1e94:	8c000002 	stchi	0, cr0, [r0], {2}
    1e98:	01000002 	tsteq	r0, r2
    1e9c:	00005300 	andeq	r5, r0, r0, lsl #6
    1ea0:	00000000 	andeq	r0, r0, r0
    1ea4:	02a80000 	adceq	r0, r8, #0
    1ea8:	02d00000 	sbcseq	r0, r0, #0
    1eac:	00010000 	andeq	r0, r1, r0
    1eb0:	00000054 	andeq	r0, r0, r4, asr r0
    1eb4:	00000000 	andeq	r0, r0, r0
    1eb8:	0002ac00 	andeq	sl, r2, r0, lsl #24
    1ebc:	0002b000 	andeq	fp, r2, r0
    1ec0:	53000100 	movwpl	r0, #256	; 0x100
	...
    1ecc:	000002c8 	andeq	r0, r0, r8, asr #5
    1ed0:	0000030c 	andeq	r0, r0, ip, lsl #6
    1ed4:	9f300002 	svcls	0x00300002
    1ed8:	00000314 	andeq	r0, r0, r4, lsl r3
    1edc:	0000031c 	andeq	r0, r0, ip, lsl r3
    1ee0:	9f300002 	svcls	0x00300002
	...
    1eec:	000002c8 	andeq	r0, r0, r8, asr #5
    1ef0:	0000030c 	andeq	r0, r0, ip, lsl #6
    1ef4:	14550001 	ldrbne	r0, [r5], #-1
    1ef8:	1c000003 	stcne	0, cr0, [r0], {3}
    1efc:	01000003 	tsteq	r0, r3
    1f00:	00005500 	andeq	r5, r0, r0, lsl #10
    1f04:	00000000 	andeq	r0, r0, r0
    1f08:	02d00000 	sbcseq	r0, r0, #0
    1f0c:	030c0000 	movweq	r0, #49152	; 0xc000
    1f10:	00010000 	andeq	r0, r1, r0
    1f14:	00031454 	andeq	r1, r3, r4, asr r4
    1f18:	00031c00 	andeq	r1, r3, r0, lsl #24
    1f1c:	54000100 	strpl	r0, [r0], #-256	; 0x100
	...
    1f28:	0000031c 	andeq	r0, r0, ip, lsl r3
    1f2c:	0000033b 	andeq	r0, r0, fp, lsr r3
    1f30:	3b500001 	blcc	1401f3c <__bss_end__+0x13f607c>
    1f34:	54000003 	strpl	r0, [r0], #-3
    1f38:	01000003 	tsteq	r0, r3
    1f3c:	03545800 	cmpeq	r4, #0, 16
    1f40:	03640000 	cmneq	r4, #0
    1f44:	00010000 	andeq	r0, r1, r0
    1f48:	00036450 	andeq	r6, r3, r0, asr r4
    1f4c:	0003ac00 	andeq	sl, r3, r0, lsl #24
    1f50:	58000100 	stmdapl	r0, {r8}
	...
    1f5c:	0000031c 	andeq	r0, r0, ip, lsl r3
    1f60:	0000033b 	andeq	r0, r0, fp, lsr r3
    1f64:	3b510001 	blcc	1441f70 <__bss_end__+0x14360b0>
    1f68:	54000003 	strpl	r0, [r0], #-3
    1f6c:	01000003 	tsteq	r0, r3
    1f70:	03545600 	cmpeq	r4, #0, 12
    1f74:	03640000 	cmneq	r4, #0
    1f78:	00010000 	andeq	r0, r1, r0
    1f7c:	00036451 	andeq	r6, r3, r1, asr r4
    1f80:	0003ac00 	andeq	sl, r3, r0, lsl #24
    1f84:	56000100 	strpl	r0, [r0], -r0, lsl #2
	...
    1f90:	0000031c 	andeq	r0, r0, ip, lsl r3
    1f94:	0000033b 	andeq	r0, r0, fp, lsr r3
    1f98:	3b520001 	blcc	1481fa4 <__bss_end__+0x14760e4>
    1f9c:	54000003 	strpl	r0, [r0], #-3
    1fa0:	04000003 	streq	r0, [r0], #-3
    1fa4:	5201f300 	andpl	pc, r1, #0, 6
    1fa8:	0003549f 	muleq	r3, pc, r4	; <UNPREDICTABLE>
    1fac:	00036400 	andeq	r6, r3, r0, lsl #8
    1fb0:	52000100 	andpl	r0, r0, #0, 2
    1fb4:	00000364 	andeq	r0, r0, r4, ror #6
    1fb8:	000003ac 	andeq	r0, r0, ip, lsr #7
    1fbc:	01770003 	cmneq	r7, r3
    1fc0:	0000009f 	muleq	r0, pc, r0	; <UNPREDICTABLE>
    1fc4:	00000000 	andeq	r0, r0, r0
    1fc8:	00031c00 	andeq	r1, r3, r0, lsl #24
    1fcc:	00033b00 	andeq	r3, r3, r0, lsl #22
    1fd0:	53000100 	movwpl	r0, #256	; 0x100
    1fd4:	0000033b 	andeq	r0, r0, fp, lsr r3
    1fd8:	00000354 	andeq	r0, r0, r4, asr r3
    1fdc:	01f30004 	mvnseq	r0, r4
    1fe0:	03549f53 	cmpeq	r4, #332	; 0x14c
    1fe4:	03640000 	cmneq	r4, #0
    1fe8:	00010000 	andeq	r0, r1, r0
    1fec:	00036453 	andeq	r6, r3, r3, asr r4
    1ff0:	0003ac00 	andeq	sl, r3, r0, lsl #24
    1ff4:	f3000400 	vshl.u8	d0, d0, d0
    1ff8:	009f5301 	addseq	r5, pc, r1, lsl #6
    1ffc:	00000000 	andeq	r0, r0, r0
    2000:	5c000000 	stcpl	0, cr0, [r0], {-0}
    2004:	64000003 	strvs	r0, [r0], #-3
    2008:	02000003 	andeq	r0, r0, #3
    200c:	649f3000 	ldrvs	r3, [pc], #0	; 2014 <_start-0x5fec>
    2010:	ac000003 	stcge	0, cr0, [r0], {3}
    2014:	01000003 	tsteq	r0, r3
    2018:	00005400 	andeq	r5, r0, r0, lsl #8
    201c:	00000000 	andeq	r0, r0, r0
    2020:	03740000 	cmneq	r4, #0
    2024:	03840000 	orreq	r0, r4, #0
    2028:	00010000 	andeq	r0, r1, r0
    202c:	00000050 	andeq	r0, r0, r0, asr r0
    2030:	00000000 	andeq	r0, r0, r0
    2034:	0003ac00 	andeq	sl, r3, r0, lsl #24
    2038:	0003c700 	andeq	ip, r3, r0, lsl #14
    203c:	50000100 	andpl	r0, r0, r0, lsl #2
    2040:	000003c7 	andeq	r0, r0, r7, asr #7
    2044:	000003e0 	andeq	r0, r0, r0, ror #7
    2048:	e0570001 	subs	r0, r7, r1
    204c:	f0000003 			; <UNDEFINED> instruction: 0xf0000003
    2050:	01000003 	tsteq	r0, r3
    2054:	03f05000 	mvnseq	r5, #0
    2058:	04280000 	strteq	r0, [r8], #-0
    205c:	00010000 	andeq	r0, r1, r0
    2060:	00000057 	andeq	r0, r0, r7, asr r0
    2064:	00000000 	andeq	r0, r0, r0
    2068:	0003ac00 	andeq	sl, r3, r0, lsl #24
    206c:	0003c700 	andeq	ip, r3, r0, lsl #14
    2070:	51000100 	mrspl	r0, (UNDEF: 16)
    2074:	000003c7 	andeq	r0, r0, r7, asr #7
    2078:	000003e0 	andeq	r0, r0, r0, ror #7
    207c:	e0550001 	subs	r0, r5, r1
    2080:	f0000003 			; <UNDEFINED> instruction: 0xf0000003
    2084:	01000003 	tsteq	r0, r3
    2088:	03f05100 	mvnseq	r5, #0, 2
    208c:	04280000 	strteq	r0, [r8], #-0
    2090:	00010000 	andeq	r0, r1, r0
    2094:	00000055 	andeq	r0, r0, r5, asr r0
    2098:	00000000 	andeq	r0, r0, r0
    209c:	0003ac00 	andeq	sl, r3, r0, lsl #24
    20a0:	0003c700 	andeq	ip, r3, r0, lsl #14
    20a4:	52000100 	andpl	r0, r0, #0, 2
    20a8:	000003c7 	andeq	r0, r0, r7, asr #7
    20ac:	000003e0 	andeq	r0, r0, r0, ror #7
    20b0:	01f30004 	mvnseq	r0, r4
    20b4:	03e09f52 	mvneq	r9, #328	; 0x148
    20b8:	03f00000 	mvnseq	r0, #0
    20bc:	00010000 	andeq	r0, r1, r0
    20c0:	0003f052 	andeq	pc, r3, r2, asr r0	; <UNPREDICTABLE>
    20c4:	00042800 	andeq	r2, r4, r0, lsl #16
    20c8:	76000300 	strvc	r0, [r0], -r0, lsl #6
    20cc:	00009f01 	andeq	r9, r0, r1, lsl #30
    20d0:	00000000 	andeq	r0, r0, r0
    20d4:	03ac0000 			; <UNDEFINED> instruction: 0x03ac0000
    20d8:	03c70000 	biceq	r0, r7, #0
    20dc:	00010000 	andeq	r0, r1, r0
    20e0:	0003c753 	andeq	ip, r3, r3, asr r7
    20e4:	0003e000 	andeq	lr, r3, r0
    20e8:	58000100 	stmdapl	r0, {r8}
    20ec:	000003e0 	andeq	r0, r0, r0, ror #7
    20f0:	000003f0 	strdeq	r0, [r0], -r0	; <UNPREDICTABLE>
    20f4:	f0530001 			; <UNDEFINED> instruction: 0xf0530001
    20f8:	28000003 	stmdacs	r0, {r0, r1}
    20fc:	01000004 	tsteq	r0, r4
    2100:	00005800 	andeq	r5, r0, r0, lsl #16
    2104:	00000000 	andeq	r0, r0, r0
    2108:	03e80000 	mvneq	r0, #0
    210c:	03f00000 	mvnseq	r0, #0
    2110:	00020000 	andeq	r0, r2, r0
    2114:	03f09f30 	mvnseq	r9, #48, 30	; 0xc0
    2118:	04280000 	strteq	r0, [r8], #-0
    211c:	00010000 	andeq	r0, r1, r0
    2120:	00000054 	andeq	r0, r0, r4, asr r0
    2124:	00000000 	andeq	r0, r0, r0
    2128:	00042800 	andeq	r2, r4, r0, lsl #16
    212c:	00044700 	andeq	r4, r4, r0, lsl #14
    2130:	51000100 	mrspl	r0, (UNDEF: 16)
    2134:	00000447 	andeq	r0, r0, r7, asr #8
    2138:	000004e8 	andeq	r0, r0, r8, ror #9
    213c:	01f30004 	mvnseq	r0, r4
    2140:	00009f51 	andeq	r9, r0, r1, asr pc
    2144:	00000000 	andeq	r0, r0, r0
    2148:	04280000 	strteq	r0, [r8], #-0
    214c:	04470000 	strbeq	r0, [r7], #-0
    2150:	00010000 	andeq	r0, r1, r0
    2154:	00044752 	andeq	r4, r4, r2, asr r7
    2158:	0004e800 	andeq	lr, r4, r0, lsl #16
    215c:	f3000400 	vshl.u8	d0, d0, d0
    2160:	009f5201 	addseq	r5, pc, r1, lsl #4
    2164:	00000000 	andeq	r0, r0, r0
    2168:	28000000 	stmdacs	r0, {}	; <UNPREDICTABLE>
    216c:	47000004 	strmi	r0, [r0, -r4]
    2170:	01000004 	tsteq	r0, r4
    2174:	04475300 	strbeq	r5, [r7], #-768	; 0x300
    2178:	04e80000 	strbteq	r0, [r8], #0
    217c:	00010000 	andeq	r0, r1, r0
    2180:	00000055 	andeq	r0, r0, r5, asr r0
    2184:	00000000 	andeq	r0, r0, r0
    2188:	00046800 	andeq	r6, r4, r0, lsl #16
    218c:	0004a700 	andeq	sl, r4, r0, lsl #14
    2190:	52000100 	andpl	r0, r0, #0, 2
    2194:	000004a7 	andeq	r0, r0, r7, lsr #9
    2198:	000004c0 	andeq	r0, r0, r0, asr #9
    219c:	00750006 	rsbseq	r0, r5, r6
    21a0:	9f1e0077 	svcls	0x001e0077
    21a4:	000004c0 	andeq	r0, r0, r0, asr #9
    21a8:	000004e8 	andeq	r0, r0, r8, ror #9
    21ac:	00520001 	subseq	r0, r2, r1
    21b0:	00000000 	andeq	r0, r0, r0
    21b4:	e8000000 	stmda	r0, {}	; <UNPREDICTABLE>
    21b8:	f3000004 	vhadd.u8	d0, d0, d4
    21bc:	01000004 	tsteq	r0, r4
    21c0:	04f35000 	ldrbteq	r5, [r3], #0
    21c4:	05240000 	streq	r0, [r4, #-0]!
    21c8:	00040000 	andeq	r0, r4, r0
    21cc:	9f5001f3 	svcls	0x005001f3
	...
    21d8:	000004f4 	strdeq	r0, [r0], -r4
    21dc:	000004ff 	strdeq	r0, [r0], -pc	; <UNPREDICTABLE>
    21e0:	00500001 	subseq	r0, r0, r1
    21e4:	00000000 	andeq	r0, r0, r0
    21e8:	24000000 	strcs	r0, [r0], #-0
    21ec:	34000005 	strcc	r0, [r0], #-5
    21f0:	01000005 	tsteq	r0, r5
    21f4:	05345000 	ldreq	r5, [r4, #-0]!
    21f8:	05500000 	ldrbeq	r0, [r0, #-0]
    21fc:	00010000 	andeq	r0, r1, r0
    2200:	00000055 	andeq	r0, r0, r5, asr r0
    2204:	00000000 	andeq	r0, r0, r0
    2208:	00052400 	andeq	r2, r5, r0, lsl #8
    220c:	00053400 	andeq	r3, r5, r0, lsl #8
    2210:	51000100 	mrspl	r0, (UNDEF: 16)
    2214:	00000534 	andeq	r0, r0, r4, lsr r5
    2218:	00000550 	andeq	r0, r0, r0, asr r5
    221c:	00540001 	subseq	r0, r4, r1
    2220:	00000000 	andeq	r0, r0, r0
    2224:	50000000 	andpl	r0, r0, r0
    2228:	6c000005 	stcvs	0, cr0, [r0], {5}
    222c:	01000005 	tsteq	r0, r5
    2230:	056c5000 	strbeq	r5, [ip, #-0]!
    2234:	05bc0000 	ldreq	r0, [ip, #0]!
    2238:	00010000 	andeq	r0, r1, r0
    223c:	0005bc55 	andeq	fp, r5, r5, asr ip
    2240:	0005d400 	andeq	sp, r5, r0, lsl #8
    2244:	f3000400 	vshl.u8	d0, d0, d0
    2248:	009f5001 	addseq	r5, pc, r1
    224c:	00000000 	andeq	r0, r0, r0
    2250:	7c000000 	stcvc	0, cr0, [r0], {-0}
    2254:	8b000005 	blhi	2270 <_start-0x5d90>
    2258:	01000005 	tsteq	r0, r5
    225c:	058b5000 	streq	r5, [fp]
    2260:	05a40000 	streq	r0, [r4, #0]!
    2264:	00010000 	andeq	r0, r1, r0
    2268:	0005a454 	andeq	sl, r5, r4, asr r4
    226c:	0005a800 	andeq	sl, r5, r0, lsl #16
    2270:	50000100 	andpl	r0, r0, r0, lsl #2
    2274:	000005a8 	andeq	r0, r0, r8, lsr #11
    2278:	000005bc 			; <UNDEFINED> instruction: 0x000005bc
    227c:	bc540001 	mrrclt	0, 0, r0, r4, cr1
    2280:	d4000005 	strle	r0, [r0], #-5
    2284:	01000005 	tsteq	r0, r5
    2288:	00005000 	andeq	r5, r0, r0
    228c:	00000000 	andeq	r0, r0, r0
    2290:	05d40000 	ldrbeq	r0, [r4]
    2294:	05e70000 	strbeq	r0, [r7, #0]!
    2298:	00010000 	andeq	r0, r1, r0
    229c:	0005e750 	andeq	lr, r5, r0, asr r7
    22a0:	00062000 	andeq	r2, r6, r0
    22a4:	f3000400 	vshl.u8	d0, d0, d0
    22a8:	009f5001 	addseq	r5, pc, r1
    22ac:	00000000 	andeq	r0, r0, r0
    22b0:	d4000000 	strle	r0, [r0], #-0
    22b4:	e7000005 	str	r0, [r0, -r5]
    22b8:	01000005 	tsteq	r0, r5
    22bc:	05e75100 	strbeq	r5, [r7, #256]!	; 0x100
    22c0:	06200000 	strteq	r0, [r0], -r0
    22c4:	00040000 	andeq	r0, r4, r0
    22c8:	9f5101f3 	svcls	0x005101f3
	...
    22d4:	000005d4 	ldrdeq	r0, [r0], -r4
    22d8:	000005e7 	andeq	r0, r0, r7, ror #11
    22dc:	e7520001 	ldrb	r0, [r2, -r1]
    22e0:	20000005 	andcs	r0, r0, r5
    22e4:	04000006 	streq	r0, [r0], #-6
    22e8:	5201f300 	andpl	pc, r1, #0, 6
    22ec:	0000009f 	muleq	r0, pc, r0	; <UNPREDICTABLE>
    22f0:	00000000 	andeq	r0, r0, r0
    22f4:	0005d400 	andeq	sp, r5, r0, lsl #8
    22f8:	0005e700 	andeq	lr, r5, r0, lsl #14
    22fc:	53000100 	movwpl	r0, #256	; 0x100
    2300:	000005e7 	andeq	r0, r0, r7, ror #11
    2304:	00000620 	andeq	r0, r0, r0, lsr #12
    2308:	01f30004 	mvnseq	r0, r4
    230c:	00009f53 	andeq	r9, r0, r3, asr pc
    2310:	00000000 	andeq	r0, r0, r0
    2314:	05e80000 	strbeq	r0, [r8, #0]!
    2318:	05f30000 	ldrbeq	r0, [r3, #0]!
    231c:	00010000 	andeq	r0, r1, r0
    2320:	00060c50 	andeq	r0, r6, r0, asr ip
    2324:	00062000 	andeq	r2, r6, r0
    2328:	50000100 	andpl	r0, r0, r0, lsl #2
	...
    2334:	000000fc 	strdeq	r0, [r0], -ip
    2338:	00000104 	andeq	r0, r0, r4, lsl #2
    233c:	04500001 	ldrbeq	r0, [r0], #-1
    2340:	28000001 	stmdacs	r0, {r0}
    2344:	01000001 	tsteq	r0, r1
    2348:	00005400 	andeq	r5, r0, r0, lsl #8
    234c:	00000000 	andeq	r0, r0, r0
    2350:	00300000 	eorseq	r0, r0, r0
    2354:	003c0000 	eorseq	r0, ip, r0
    2358:	00020000 	andeq	r0, r2, r0
    235c:	003c9f30 	eorseq	r9, ip, r0, lsr pc
    2360:	00680000 	rsbeq	r0, r8, r0
    2364:	00010000 	andeq	r0, r1, r0
    2368:	00000053 	andeq	r0, r0, r3, asr r0
    236c:	00000000 	andeq	r0, r0, r0
    2370:	00006800 	andeq	r6, r0, r0, lsl #16
    2374:	00007700 	andeq	r7, r0, r0, lsl #14
    2378:	50000100 	andpl	r0, r0, r0, lsl #2
    237c:	00000077 	andeq	r0, r0, r7, ror r0
    2380:	000000ac 	andeq	r0, r0, ip, lsr #1
    2384:	00540001 	subseq	r0, r4, r1
    2388:	00000000 	andeq	r0, r0, r0
    238c:	ac000000 	stcge	0, cr0, [r0], {-0}
    2390:	bb000000 	bllt	2398 <_start-0x5c68>
    2394:	01000000 	mrseq	r0, (UNDEF: 0)
    2398:	00bb5000 	adcseq	r5, fp, r0
    239c:	00f00000 	rscseq	r0, r0, r0
    23a0:	00010000 	andeq	r0, r1, r0
    23a4:	00000054 	andeq	r0, r0, r4, asr r0
    23a8:	00000000 	andeq	r0, r0, r0
    23ac:	0000f000 	andeq	pc, r0, r0
    23b0:	0000ff00 	andeq	pc, r0, r0, lsl #30
    23b4:	50000100 	andpl	r0, r0, r0, lsl #2
    23b8:	000000ff 	strdeq	r0, [r0], -pc	; <UNPREDICTABLE>
    23bc:	00000134 	andeq	r0, r0, r4, lsr r1
    23c0:	00540001 	subseq	r0, r4, r1
    23c4:	00000000 	andeq	r0, r0, r0
    23c8:	34000000 	strcc	r0, [r0], #-0
    23cc:	43000001 	movwmi	r0, #1
    23d0:	01000001 	tsteq	r0, r1
    23d4:	01435000 	mrseq	r5, (UNDEF: 67)
    23d8:	01780000 	cmneq	r8, r0
    23dc:	00010000 	andeq	r0, r1, r0
    23e0:	00000054 	andeq	r0, r0, r4, asr r0
    23e4:	00000000 	andeq	r0, r0, r0
    23e8:	00017800 	andeq	r7, r1, r0, lsl #16
    23ec:	00018700 	andeq	r8, r1, r0, lsl #14
    23f0:	50000100 	andpl	r0, r0, r0, lsl #2
    23f4:	00000187 	andeq	r0, r0, r7, lsl #3
    23f8:	000001bc 			; <UNDEFINED> instruction: 0x000001bc
    23fc:	00540001 	subseq	r0, r4, r1
    2400:	00000000 	andeq	r0, r0, r0
    2404:	bc000000 	stclt	0, cr0, [r0], {-0}
    2408:	cb000001 	blgt	2414 <_start-0x5bec>
    240c:	01000001 	tsteq	r0, r1
    2410:	01cb5000 	biceq	r5, fp, r0
    2414:	02000000 	andeq	r0, r0, #0
    2418:	00010000 	andeq	r0, r1, r0
    241c:	00000054 	andeq	r0, r0, r4, asr r0
    2420:	00000000 	andeq	r0, r0, r0
    2424:	00076000 	andeq	r6, r7, r0
    2428:	00078c00 	andeq	r8, r7, r0, lsl #24
    242c:	50000100 	andpl	r0, r0, r0, lsl #2
    2430:	0000078c 	andeq	r0, r0, ip, lsl #15
    2434:	00000820 	andeq	r0, r0, r0, lsr #16
    2438:	01f30004 	mvnseq	r0, r4
    243c:	00009f50 	andeq	r9, r0, r0, asr pc
    2440:	00000000 	andeq	r0, r0, r0
    2444:	07640000 	strbeq	r0, [r4, -r0]!
    2448:	07ac0000 	streq	r0, [ip, r0]!
    244c:	00010000 	andeq	r0, r1, r0
    2450:	00000050 	andeq	r0, r0, r0, asr r0
    2454:	00000000 	andeq	r0, r0, r0
    2458:	00076400 	andeq	r6, r7, r0, lsl #8
    245c:	0007ac00 	andeq	sl, r7, r0, lsl #24
    2460:	03000600 	movweq	r0, #1536	; 0x600
    2464:	0000b6a0 	andeq	fp, r0, r0, lsr #13
    2468:	0000009f 	muleq	r0, pc, r0	; <UNPREDICTABLE>
    246c:	00000000 	andeq	r0, r0, r0
    2470:	00076c00 	andeq	r6, r7, r0, lsl #24
    2474:	0007ac00 	andeq	sl, r7, r0, lsl #24
    2478:	52000100 	andpl	r0, r0, #0, 2
	...
    2484:	0000076c 	andeq	r0, r0, ip, ror #14
    2488:	00000780 	andeq	r0, r0, r0, lsl #15
    248c:	a0030006 	andge	r0, r3, r6
    2490:	9f0000b6 	svcls	0x000000b6
	...
    249c:	00000700 	andeq	r0, r0, r0, lsl #14
    24a0:	00000730 	andeq	r0, r0, r0, lsr r7
    24a4:	8c030006 	stchi	0, cr0, [r3], {6}
    24a8:	9f0000ae 	svcls	0x000000ae
    24ac:	00000734 	andeq	r0, r0, r4, lsr r7
    24b0:	00000760 	andeq	r0, r0, r0, ror #14
    24b4:	8c030006 	stchi	0, cr0, [r3], {6}
    24b8:	9f0000ae 	svcls	0x000000ae
	...
    24c4:	00000700 	andeq	r0, r0, r0, lsl #14
    24c8:	00000720 	andeq	r0, r0, r0, lsr #14
    24cc:	9f300002 	svcls	0x00300002
    24d0:	00000720 	andeq	r0, r0, r0, lsr #14
    24d4:	00000730 	andeq	r0, r0, r0, lsr r7
    24d8:	34500001 	ldrbcc	r0, [r0], #-1
    24dc:	60000007 	andvs	r0, r0, r7
    24e0:	02000007 	andeq	r0, r0, #7
    24e4:	009f3000 	addseq	r3, pc, r0
	...
    24f0:	30000007 	andcc	r0, r0, r7
    24f4:	06000007 	streq	r0, [r0], -r7
    24f8:	49b8f200 	ldmibmi	r8!, {r9, ip, sp, lr, pc}
	...
    2508:	30000007 	andcc	r0, r0, r7
    250c:	06000007 	streq	r0, [r0], -r7
    2510:	ae8c0300 	cdpge	3, 8, cr0, cr12, cr0, {0}
    2514:	009f0000 	addseq	r0, pc, r0
    2518:	00000000 	andeq	r0, r0, r0
    251c:	1c000000 	stcne	0, cr0, [r0], {-0}
    2520:	24000007 	strcs	r0, [r0], #-7
    2524:	01000007 	tsteq	r0, r7
    2528:	07245300 	streq	r5, [r4, -r0, lsl #6]!
    252c:	07300000 	ldreq	r0, [r0, -r0]!
    2530:	00050000 	andeq	r0, r5, r0
    2534:	00b69403 	adcseq	r9, r6, r3, lsl #8
	...
    2540:	00070000 	andeq	r0, r7, r0
    2544:	00070c00 	andeq	r0, r7, r0, lsl #24
    2548:	03000600 	movweq	r0, #1536	; 0x600
    254c:	0000ae8c 	andeq	sl, r0, ip, lsl #29
    2550:	0000009f 	muleq	r0, pc, r0	; <UNPREDICTABLE>
    2554:	00000000 	andeq	r0, r0, r0
    2558:	0006cc00 	andeq	ip, r6, r0, lsl #24
    255c:	0006dc00 	andeq	sp, r6, r0, lsl #24
    2560:	03000600 	movweq	r0, #1536	; 0x600
    2564:	0000ae8c 	andeq	sl, r0, ip, lsl #29
    2568:	0000009f 	muleq	r0, pc, r0	; <UNPREDICTABLE>
    256c:	00000000 	andeq	r0, r0, r0
    2570:	00064000 	andeq	r4, r6, r0
    2574:	00068000 	andeq	r8, r6, r0
    2578:	50000100 	andpl	r0, r0, r0, lsl #2
	...
    2584:	00000640 	andeq	r0, r0, r0, asr #12
    2588:	00000680 	andeq	r0, r0, r0, lsl #13
    258c:	8c030006 	stchi	0, cr0, [r3], {6}
    2590:	9f0000ae 	svcls	0x000000ae
	...
    259c:	00000648 	andeq	r0, r0, r8, asr #12
    25a0:	00000670 	andeq	r0, r0, r0, ror r6
    25a4:	70510001 	subsvc	r0, r1, r1
    25a8:	7c000006 	stcvc	0, cr0, [r0], {6}
    25ac:	05000006 	streq	r0, [r0, #-6]
    25b0:	b6900300 	ldrlt	r0, [r0], r0, lsl #6
	...
    25bc:	06480000 	strbeq	r0, [r8], -r0
    25c0:	065c0000 	ldrbeq	r0, [ip], -r0
    25c4:	00060000 	andeq	r0, r6, r0
    25c8:	00ae8c03 	adceq	r8, lr, r3, lsl #24
    25cc:	00009f00 	andeq	r9, r0, r0, lsl #30
    25d0:	00000000 	andeq	r0, r0, r0
    25d4:	06800000 	streq	r0, [r0], r0
    25d8:	06980000 	ldreq	r0, [r8], r0
    25dc:	00060000 	andeq	r0, r6, r0
    25e0:	00b6a003 	adcseq	sl, r6, r3
    25e4:	00009f00 	andeq	r9, r0, r0, lsl #30
    25e8:	00000000 	andeq	r0, r0, r0
    25ec:	05d00000 	ldrbeq	r0, [r0]
    25f0:	05e80000 	strbeq	r0, [r8, #0]!
    25f4:	00060000 	andeq	r0, r6, r0
    25f8:	00b6a003 	adcseq	sl, r6, r3
    25fc:	00009f00 	andeq	r9, r0, r0, lsl #30
    2600:	00000000 	andeq	r0, r0, r0
    2604:	04dc0000 	ldrbeq	r0, [ip], #0
    2608:	04f40000 	ldrbteq	r0, [r4], #0
    260c:	00060000 	andeq	r0, r6, r0
    2610:	00b6a003 	adcseq	sl, r6, r3
    2614:	00009f00 	andeq	r9, r0, r0, lsl #30
    2618:	00000000 	andeq	r0, r0, r0
    261c:	05080000 	streq	r0, [r8, #-0]
    2620:	05400000 	strbeq	r0, [r0, #-0]
    2624:	00060000 	andeq	r0, r6, r0
    2628:	00b6a003 	adcseq	sl, r6, r3
    262c:	05649f00 	strbeq	r9, [r4, #-3840]!	; 0xf00
    2630:	05a00000 	streq	r0, [r0, #0]!
    2634:	00060000 	andeq	r0, r6, r0
    2638:	00b6a003 	adcseq	sl, r6, r3
    263c:	00009f00 	andeq	r9, r0, r0, lsl #30
    2640:	00000000 	andeq	r0, r0, r0
    2644:	05080000 	streq	r0, [r8, #-0]
    2648:	05300000 	ldreq	r0, [r0, #-0]!
    264c:	00020000 	andeq	r0, r2, r0
    2650:	05309f30 	ldreq	r9, [r0, #-3888]!	; 0xf30
    2654:	05400000 	strbeq	r0, [r0, #-0]
    2658:	00010000 	andeq	r0, r1, r0
    265c:	00056450 	andeq	r6, r5, r0, asr r4
    2660:	0005a000 	andeq	sl, r5, r0
    2664:	30000200 	andcc	r0, r0, r0, lsl #4
    2668:	0000009f 	muleq	r0, pc, r0	; <UNPREDICTABLE>
    266c:	00000000 	andeq	r0, r0, r0
    2670:	00050800 	andeq	r0, r5, r0, lsl #16
    2674:	00054000 	andeq	r4, r5, r0
    2678:	f2000600 	vmax.s8	d0, d0, d0
    267c:	00004cf4 	strdeq	r4, [r0], -r4	; <UNPREDICTABLE>
	...
    2688:	00050800 	andeq	r0, r5, r0, lsl #16
    268c:	00054000 	andeq	r4, r5, r0
    2690:	03000600 	movweq	r0, #1536	; 0x600
    2694:	0000b6a0 	andeq	fp, r0, r0, lsr #13
    2698:	0000009f 	muleq	r0, pc, r0	; <UNPREDICTABLE>
    269c:	00000000 	andeq	r0, r0, r0
    26a0:	00052800 	andeq	r2, r5, r0, lsl #16
    26a4:	00053400 	andeq	r3, r5, r0, lsl #8
    26a8:	53000100 	movwpl	r0, #256	; 0x100
    26ac:	00000534 	andeq	r0, r0, r4, lsr r5
    26b0:	00000540 	andeq	r0, r0, r0, asr #10
    26b4:	a8030005 	stmdage	r3, {r0, r2}
    26b8:	000000be 	strheq	r0, [r0], -lr
    26bc:	00000000 	andeq	r0, r0, r0
    26c0:	08000000 	stmdaeq	r0, {}	; <UNPREDICTABLE>
    26c4:	14000005 	strne	r0, [r0], #-5
    26c8:	06000005 	streq	r0, [r0], -r5
    26cc:	b6a00300 	strtlt	r0, [r0], r0, lsl #6
    26d0:	009f0000 	addseq	r0, pc, r0
    26d4:	00000000 	andeq	r0, r0, r0
    26d8:	18000000 	stmdane	r0, {}	; <UNPREDICTABLE>
    26dc:	b4000002 	strlt	r0, [r0], #-2
    26e0:	02000002 	andeq	r0, r0, #2
    26e4:	809f3100 	addshi	r3, pc, r0, lsl #2
    26e8:	0c000003 	stceq	0, cr0, [r0], {3}
    26ec:	02000004 	andeq	r0, r0, #4
    26f0:	009f3100 	addseq	r3, pc, r0, lsl #2
    26f4:	00000000 	andeq	r0, r0, r0
    26f8:	18000000 	stmdane	r0, {}	; <UNPREDICTABLE>
    26fc:	b4000002 	strlt	r0, [r0], #-2
    2700:	06000002 	streq	r0, [r0], -r2
    2704:	ae8c0300 	cdpge	3, 8, cr0, cr12, cr0, {0}
    2708:	809f0000 	addshi	r0, pc, r0
    270c:	0c000003 	stceq	0, cr0, [r0], {3}
    2710:	06000004 	streq	r0, [r0], -r4
    2714:	ae8c0300 	cdpge	3, 8, cr0, cr12, cr0, {0}
    2718:	009f0000 	addseq	r0, pc, r0
    271c:	00000000 	andeq	r0, r0, r0
    2720:	a0000000 	andge	r0, r0, r0
    2724:	b4000002 	strlt	r0, [r0], #-2
    2728:	02000002 	andeq	r0, r0, #2
    272c:	d49f4200 	ldrle	r4, [pc], #512	; 2734 <_start-0x58cc>
    2730:	e0000003 	and	r0, r0, r3
    2734:	02000003 	andeq	r0, r0, #3
    2738:	009f4200 	addseq	r4, pc, r0, lsl #4
    273c:	00000000 	andeq	r0, r0, r0
    2740:	50000000 	andpl	r0, r0, r0
    2744:	58000002 	stmdapl	r0, {r1}
    2748:	06000002 	streq	r0, [r0], -r2
    274c:	ae8c0300 	cdpge	3, 8, cr0, cr12, cr0, {0}
    2750:	009f0000 	addseq	r0, pc, r0
    2754:	00000000 	andeq	r0, r0, r0
    2758:	60000000 	andvs	r0, r0, r0
    275c:	78000002 	stmdavc	r0, {r1}
    2760:	06000002 	streq	r0, [r0], -r2
    2764:	ae8c0300 	cdpge	3, 8, cr0, cr12, cr0, {0}
    2768:	009f0000 	addseq	r0, pc, r0
    276c:	00000000 	andeq	r0, r0, r0
    2770:	80000000 	andhi	r0, r0, r0
    2774:	98000002 	stmdals	r0, {r1}
    2778:	06000002 	streq	r0, [r0], -r2
    277c:	ae8c0300 	cdpge	3, 8, cr0, cr12, cr0, {0}
    2780:	009f0000 	addseq	r0, pc, r0
    2784:	00000000 	andeq	r0, r0, r0
    2788:	a0000000 	andge	r0, r0, r0
    278c:	b4000002 	strlt	r0, [r0], #-2
    2790:	06000002 	streq	r0, [r0], -r2
    2794:	4e45f200 	cdpmi	2, 4, cr15, cr5, cr0, {0}
    2798:	d4000000 	strle	r0, [r0], #-0
    279c:	f0000003 			; <UNDEFINED> instruction: 0xf0000003
    27a0:	06000003 	streq	r0, [r0], -r3
    27a4:	4e45f200 	cdpmi	2, 4, cr15, cr5, cr0, {0}
	...
    27b0:	a0000000 	andge	r0, r0, r0
    27b4:	b4000002 	strlt	r0, [r0], #-2
    27b8:	06000002 	streq	r0, [r0], -r2
    27bc:	ae8c0300 	cdpge	3, 8, cr0, cr12, cr0, {0}
    27c0:	d49f0000 	ldrle	r0, [pc], #0	; 27c8 <_start-0x5838>
    27c4:	f0000003 			; <UNDEFINED> instruction: 0xf0000003
    27c8:	06000003 	streq	r0, [r0], -r3
    27cc:	ae8c0300 	cdpge	3, 8, cr0, cr12, cr0, {0}
    27d0:	009f0000 	addseq	r0, pc, r0
    27d4:	00000000 	andeq	r0, r0, r0
    27d8:	dc000000 	stcle	0, cr0, [r0], {-0}
    27dc:	e4000003 	str	r0, [r0], #-3
    27e0:	01000003 	tsteq	r0, r3
    27e4:	03e45300 	mvneq	r5, #0, 6
    27e8:	03f00000 	mvnseq	r0, #0
    27ec:	00050000 	andeq	r0, r5, r0
    27f0:	00b69403 	adcseq	r9, r6, r3, lsl #8
	...
    27fc:	0002a000 	andeq	sl, r2, r0
    2800:	0002ac00 	andeq	sl, r2, r0, lsl #24
    2804:	03000600 	movweq	r0, #1536	; 0x600
    2808:	0000ae8c 	andeq	sl, r0, ip, lsl #29
    280c:	0000009f 	muleq	r0, pc, r0	; <UNPREDICTABLE>
    2810:	00000000 	andeq	r0, r0, r0
    2814:	0002b400 	andeq	fp, r2, r0, lsl #8
    2818:	00035800 	andeq	r5, r3, r0, lsl #16
    281c:	31000200 	mrscc	r0, R8_usr
    2820:	00040c9f 	muleq	r4, pc, ip	; <UNPREDICTABLE>
    2824:	0004cc00 	andeq	ip, r4, r0, lsl #24
    2828:	31000200 	mrscc	r0, R8_usr
    282c:	0000009f 	muleq	r0, pc, r0	; <UNPREDICTABLE>
    2830:	00000000 	andeq	r0, r0, r0
    2834:	0002b400 	andeq	fp, r2, r0, lsl #8
    2838:	00035800 	andeq	r5, r3, r0, lsl #16
    283c:	03000600 	movweq	r0, #1536	; 0x600
    2840:	0000b6a0 	andeq	fp, r0, r0, lsr #13
    2844:	00040c9f 	muleq	r4, pc, ip	; <UNPREDICTABLE>
    2848:	0004cc00 	andeq	ip, r4, r0, lsl #24
    284c:	03000600 	movweq	r0, #1536	; 0x600
    2850:	0000b6a0 	andeq	fp, r0, r0, lsr #13
    2854:	0000009f 	muleq	r0, pc, r0	; <UNPREDICTABLE>
    2858:	00000000 	andeq	r0, r0, r0
    285c:	00034400 	andeq	r4, r3, r0, lsl #8
    2860:	00035800 	andeq	r5, r3, r0, lsl #16
    2864:	42000200 	andmi	r0, r0, #0, 4
    2868:	0004609f 	muleq	r4, pc, r0	; <UNPREDICTABLE>
    286c:	00047400 	andeq	r7, r4, r0, lsl #8
    2870:	42000200 	andmi	r0, r0, #0, 4
    2874:	0000009f 	muleq	r0, pc, r0	; <UNPREDICTABLE>
    2878:	00000000 	andeq	r0, r0, r0
    287c:	0002f400 	andeq	pc, r2, r0, lsl #8
    2880:	0002fc00 	andeq	pc, r2, r0, lsl #24
    2884:	03000600 	movweq	r0, #1536	; 0x600
    2888:	0000b6a0 	andeq	fp, r0, r0, lsr #13
    288c:	0000009f 	muleq	r0, pc, r0	; <UNPREDICTABLE>
    2890:	00000000 	andeq	r0, r0, r0
    2894:	00030400 	andeq	r0, r3, r0, lsl #8
    2898:	00031c00 	andeq	r1, r3, r0, lsl #24
    289c:	03000600 	movweq	r0, #1536	; 0x600
    28a0:	0000b6a0 	andeq	fp, r0, r0, lsr #13
    28a4:	0000009f 	muleq	r0, pc, r0	; <UNPREDICTABLE>
    28a8:	00000000 	andeq	r0, r0, r0
    28ac:	00032400 	andeq	r2, r3, r0, lsl #8
    28b0:	00033c00 	andeq	r3, r3, r0, lsl #24
    28b4:	03000600 	movweq	r0, #1536	; 0x600
    28b8:	0000b6a0 	andeq	fp, r0, r0, lsr #13
    28bc:	0000009f 	muleq	r0, pc, r0	; <UNPREDICTABLE>
    28c0:	00000000 	andeq	r0, r0, r0
    28c4:	00034400 	andeq	r4, r3, r0, lsl #8
    28c8:	00035800 	andeq	r5, r3, r0, lsl #16
    28cc:	f2000600 	vmax.s8	d0, d0, d0
    28d0:	00005043 	andeq	r5, r0, r3, asr #32
    28d4:	00046000 	andeq	r6, r4, r0
    28d8:	00048400 	andeq	r8, r4, r0, lsl #8
    28dc:	f2000600 	vmax.s8	d0, d0, d0
    28e0:	00005043 	andeq	r5, r0, r3, asr #32
	...
    28ec:	00034400 	andeq	r4, r3, r0, lsl #8
    28f0:	00035800 	andeq	r5, r3, r0, lsl #16
    28f4:	03000600 	movweq	r0, #1536	; 0x600
    28f8:	0000b6a0 	andeq	fp, r0, r0, lsr #13
    28fc:	0004609f 	muleq	r4, pc, r0	; <UNPREDICTABLE>
    2900:	00048400 	andeq	r8, r4, r0, lsl #8
    2904:	03000600 	movweq	r0, #1536	; 0x600
    2908:	0000b6a0 	andeq	fp, r0, r0, lsr #13
    290c:	0000009f 	muleq	r0, pc, r0	; <UNPREDICTABLE>
    2910:	00000000 	andeq	r0, r0, r0
    2914:	00046c00 	andeq	r6, r4, r0, lsl #24
    2918:	00047800 	andeq	r7, r4, r0, lsl #16
    291c:	53000100 	movwpl	r0, #256	; 0x100
    2920:	00000478 	andeq	r0, r0, r8, ror r4
    2924:	00000484 	andeq	r0, r0, r4, lsl #9
    2928:	a8030005 	stmdage	r3, {r0, r2}
    292c:	000000be 	strheq	r0, [r0], -lr
    2930:	00000000 	andeq	r0, r0, r0
    2934:	44000000 	strmi	r0, [r0], #-0
    2938:	50000003 	andpl	r0, r0, r3
    293c:	06000003 	streq	r0, [r0], -r3
    2940:	b6a00300 	strtlt	r0, [r0], r0, lsl #6
    2944:	009f0000 	addseq	r0, pc, r0
    2948:	00000000 	andeq	r0, r0, r0
    294c:	d4000000 	strle	r0, [r0], #-0
    2950:	df000001 	svcle	0x00000001
    2954:	01000001 	tsteq	r0, r1
    2958:	01df5000 	bicseq	r5, pc, r0
    295c:	01f40000 	mvnseq	r0, r0
    2960:	00010000 	andeq	r0, r1, r0
    2964:	0001f454 	andeq	pc, r1, r4, asr r4	; <UNPREDICTABLE>
    2968:	00021400 	andeq	r1, r2, r0, lsl #8
    296c:	f3000400 	vshl.u8	d0, d0, d0
    2970:	009f5001 	addseq	r5, pc, r1
    2974:	00000000 	andeq	r0, r0, r0
    2978:	f8000000 			; <UNDEFINED> instruction: 0xf8000000
    297c:	07000000 	streq	r0, [r0, -r0]
    2980:	01000001 	tsteq	r0, r1
    2984:	01075000 	mrseq	r5, (UNDEF: 7)
    2988:	011c0000 	tsteq	ip, r0
    298c:	00010000 	andeq	r0, r1, r0
    2990:	00011c54 	andeq	r1, r1, r4, asr ip
    2994:	0001a400 	andeq	sl, r1, r0, lsl #8
    2998:	f3000400 	vshl.u8	d0, d0, d0
    299c:	a49f5001 	ldrge	r5, [pc], #1	; 29a4 <_start-0x565c>
    29a0:	a8000001 	stmdage	r0, {r0}
    29a4:	01000001 	tsteq	r0, r1
    29a8:	01a85400 			; <UNDEFINED> instruction: 0x01a85400
    29ac:	01d40000 	bicseq	r0, r4, r0
    29b0:	00040000 	andeq	r0, r4, r0
    29b4:	9f5001f3 	svcls	0x005001f3
	...
    29c0:	00000110 	andeq	r0, r0, r0, lsl r1
    29c4:	00000148 	andeq	r0, r0, r8, asr #2
    29c8:	48500001 	ldmdami	r0, {r0}^
    29cc:	4c000001 	stcmi	0, cr0, [r0], {1}
    29d0:	01000001 	tsteq	r0, r1
    29d4:	014c5400 	cmpeq	ip, r0, lsl #8
    29d8:	014f0000 	mrseq	r0, SPSR
    29dc:	00010000 	andeq	r0, r1, r0
    29e0:	00014f50 	andeq	r4, r1, r0, asr pc
    29e4:	00016800 	andeq	r6, r1, r0, lsl #16
    29e8:	54000100 	strpl	r0, [r0], #-256	; 0x100
    29ec:	00000168 	andeq	r0, r0, r8, ror #2
    29f0:	0000016b 	andeq	r0, r0, fp, ror #2
    29f4:	6b500001 	blvs	1402a00 <__bss_end__+0x13f6b40>
    29f8:	84000001 	strhi	r0, [r0], #-1
    29fc:	01000001 	tsteq	r0, r1
    2a00:	01845400 	orreq	r5, r4, r0, lsl #8
    2a04:	01870000 	orreq	r0, r7, r0
    2a08:	00010000 	andeq	r0, r1, r0
    2a0c:	00018750 	andeq	r8, r1, r0, asr r7
    2a10:	0001a400 	andeq	sl, r1, r0, lsl #8
    2a14:	54000100 	strpl	r0, [r0], #-256	; 0x100
    2a18:	000001a4 	andeq	r0, r0, r4, lsr #3
    2a1c:	000001a8 	andeq	r0, r0, r8, lsr #3
    2a20:	b0500001 	subslt	r0, r0, r1
    2a24:	b4000001 	strlt	r0, [r0], #-1
    2a28:	01000001 	tsteq	r0, r1
    2a2c:	01b45000 			; <UNDEFINED> instruction: 0x01b45000
    2a30:	01d40000 	bicseq	r0, r4, r0
    2a34:	00010000 	andeq	r0, r1, r0
    2a38:	00000054 	andeq	r0, r0, r4, asr r0
    2a3c:	00000000 	andeq	r0, r0, r0
    2a40:	00012400 	andeq	r2, r1, r0, lsl #8
    2a44:	00014f00 	andeq	r4, r1, r0, lsl #30
    2a48:	53000100 	movwpl	r0, #256	; 0x100
    2a4c:	0000014f 	andeq	r0, r0, pc, asr #2
    2a50:	00000168 	andeq	r0, r0, r8, ror #2
    2a54:	00740007 	rsbseq	r0, r4, r7
    2a58:	1a332531 	bne	ccbf24 <__bss_end__+0xcc0064>
    2a5c:	0001689f 	muleq	r1, pc, r8	; <UNPREDICTABLE>
    2a60:	00016b00 	andeq	r6, r1, r0, lsl #22
    2a64:	53000100 	movwpl	r0, #256	; 0x100
    2a68:	0000016b 	andeq	r0, r0, fp, ror #2
    2a6c:	00000184 	andeq	r0, r0, r4, lsl #3
    2a70:	00740007 	rsbseq	r0, r4, r7
    2a74:	1a332531 	bne	ccbf40 <__bss_end__+0xcc0080>
    2a78:	0001849f 	muleq	r1, pc, r4	; <UNPREDICTABLE>
    2a7c:	00018700 	andeq	r8, r1, r0, lsl #14
    2a80:	53000100 	movwpl	r0, #256	; 0x100
    2a84:	00000187 	andeq	r0, r0, r7, lsl #3
    2a88:	000001a4 	andeq	r0, r0, r4, lsr #3
    2a8c:	00740007 	rsbseq	r0, r4, r7
    2a90:	1a332531 	bne	ccbf5c <__bss_end__+0xcc009c>
    2a94:	0001b09f 	muleq	r1, pc, r0	; <UNPREDICTABLE>
    2a98:	0001d400 	andeq	sp, r1, r0, lsl #8
    2a9c:	53000100 	movwpl	r0, #256	; 0x100
	...
    2aa8:	000000c4 	andeq	r0, r0, r4, asr #1
    2aac:	000000cf 	andeq	r0, r0, pc, asr #1
    2ab0:	cf500001 	svcgt	0x00500001
    2ab4:	dc000000 	stcle	0, cr0, [r0], {-0}
    2ab8:	01000000 	mrseq	r0, (UNDEF: 0)
    2abc:	00005400 	andeq	r5, r0, r0, lsl #8
    2ac0:	00000000 	andeq	r0, r0, r0
    2ac4:	00dc0000 	sbcseq	r0, ip, r0
    2ac8:	00e40000 	rsceq	r0, r4, r0
    2acc:	00010000 	andeq	r0, r1, r0
    2ad0:	0000e450 	andeq	lr, r0, r0, asr r4
    2ad4:	0000e700 	andeq	lr, r0, r0, lsl #14
    2ad8:	70000300 	andvc	r0, r0, r0, lsl #6
    2adc:	00e79f7c 	rsceq	r9, r7, ip, ror pc
    2ae0:	00f80000 	rscseq	r0, r8, r0
    2ae4:	00040000 	andeq	r0, r4, r0
    2ae8:	9f5001f3 	svcls	0x005001f3
	...
    2af4:	000000b0 	strheq	r0, [r0], -r0	; <UNPREDICTABLE>
    2af8:	000000bc 	strheq	r0, [r0], -ip
    2afc:	bc500001 	mrrclt	0, 0, r0, r0, cr1	; <UNPREDICTABLE>
    2b00:	bf000000 	svclt	0x00000000
    2b04:	03000000 	movweq	r0, #0
    2b08:	9f7c7000 	svcls	0x007c7000
    2b0c:	000000bf 	strheq	r0, [r0], -pc	; <UNPREDICTABLE>
    2b10:	000000c4 	andeq	r0, r0, r4, asr #1
    2b14:	01f30004 	mvnseq	r0, r4
    2b18:	00009f50 	andeq	r9, r0, r0, asr pc
    2b1c:	00000000 	andeq	r0, r0, r0
    2b20:	00900000 	addseq	r0, r0, r0
    2b24:	009c0000 	addseq	r0, ip, r0
    2b28:	00010000 	andeq	r0, r1, r0
    2b2c:	00009c50 	andeq	r9, r0, r0, asr ip
    2b30:	00009f00 	andeq	r9, r0, r0, lsl #30
    2b34:	70000300 	andvc	r0, r0, r0, lsl #6
    2b38:	009f9f7c 	addseq	r9, pc, ip, ror pc	; <UNPREDICTABLE>
    2b3c:	00b00000 	adcseq	r0, r0, r0
    2b40:	00030000 	andeq	r0, r3, r0
    2b44:	009f7c74 	addseq	r7, pc, r4, ror ip	; <UNPREDICTABLE>
    2b48:	00000000 	andeq	r0, r0, r0
    2b4c:	7c000000 	stcvc	0, cr0, [r0], {-0}
    2b50:	88000000 	stmdahi	r0, {}	; <UNPREDICTABLE>
    2b54:	01000000 	mrseq	r0, (UNDEF: 0)
    2b58:	00885000 	addeq	r5, r8, r0
    2b5c:	008b0000 	addeq	r0, fp, r0
    2b60:	00030000 	andeq	r0, r3, r0
    2b64:	8b9f7c70 	blhi	fe7e1d2c <__bss_end__+0xfe7d5e6c>
    2b68:	90000000 	andls	r0, r0, r0
    2b6c:	04000000 	streq	r0, [r0], #-0
    2b70:	5001f300 	andpl	pc, r1, r0, lsl #6
    2b74:	0000009f 	muleq	r0, pc, r0	; <UNPREDICTABLE>
    2b78:	00000000 	andeq	r0, r0, r0
    2b7c:	00005c00 	andeq	r5, r0, r0, lsl #24
    2b80:	00006800 	andeq	r6, r0, r0, lsl #16
    2b84:	50000100 	andpl	r0, r0, r0, lsl #2
    2b88:	00000068 	andeq	r0, r0, r8, rrx
    2b8c:	0000006b 	andeq	r0, r0, fp, rrx
    2b90:	7c700003 	ldclvc	0, cr0, [r0], #-12
    2b94:	00006b9f 	muleq	r0, pc, fp	; <UNPREDICTABLE>
    2b98:	00007c00 	andeq	r7, r0, r0, lsl #24
    2b9c:	74000300 	strvc	r0, [r0], #-768	; 0x300
    2ba0:	00009f7c 	andeq	r9, r0, ip, ror pc
    2ba4:	00000000 	andeq	r0, r0, r0
    2ba8:	002c0000 	eoreq	r0, ip, r0
    2bac:	00330000 	eorseq	r0, r3, r0
    2bb0:	00010000 	andeq	r0, r1, r0
    2bb4:	00003350 	andeq	r3, r0, r0, asr r3
    2bb8:	00003800 	andeq	r3, r0, r0, lsl #16
    2bbc:	f3000400 	vshl.u8	d0, d0, d0
    2bc0:	009f5001 	addseq	r5, pc, r1
    2bc4:	00000000 	andeq	r0, r0, r0
    2bc8:	2c000000 	stccs	0, cr0, [r0], {-0}
    2bcc:	33000000 	movwcc	r0, #0
    2bd0:	01000000 	mrseq	r0, (UNDEF: 0)
    2bd4:	00335100 	eorseq	r5, r3, r0, lsl #2
    2bd8:	00380000 	eorseq	r0, r8, r0
    2bdc:	00040000 	andeq	r0, r4, r0
    2be0:	9f5101f3 	svcls	0x005101f3
	...
    2bf0:	0000000f 	andeq	r0, r0, pc
    2bf4:	0f500001 	svceq	0x00500001
    2bf8:	2c000000 	stccs	0, cr0, [r0], {-0}
    2bfc:	01000000 	mrseq	r0, (UNDEF: 0)
    2c00:	00005400 	andeq	r5, r0, r0, lsl #8
	...
    2c0c:	000f0000 	andeq	r0, pc, r0
    2c10:	00010000 	andeq	r0, r1, r0
    2c14:	00000f51 	andeq	r0, r0, r1, asr pc
    2c18:	00002c00 	andeq	r2, r0, r0, lsl #24
    2c1c:	55000100 	strpl	r0, [r0, #-256]	; 0x100
	...
    2c2c:	00000004 	andeq	r0, r0, r4
    2c30:	04520001 	ldrbeq	r0, [r2], #-1
    2c34:	20000000 	andcs	r0, r0, r0
    2c38:	04000000 	streq	r0, [r0], #-0
    2c3c:	5201f300 	andpl	pc, r1, #0, 6
    2c40:	0000009f 	muleq	r0, pc, r0	; <UNPREDICTABLE>
	...
    2c4c:	00000c00 	andeq	r0, r0, r0, lsl #24
    2c50:	50000100 	andpl	r0, r0, r0, lsl #2
    2c54:	0000000c 	andeq	r0, r0, ip
    2c58:	00000014 	andeq	r0, r0, r4, lsl r0
    2c5c:	01730003 	cmneq	r3, r3
    2c60:	0000149f 	muleq	r0, pc, r4	; <UNPREDICTABLE>
    2c64:	00002000 	andeq	r2, r0, r0
    2c68:	53000100 	movwpl	r0, #256	; 0x100
	...

Disassembly of section .debug_aranges:

00000000 <.debug_aranges>:
   0:	0000001c 	andeq	r0, r0, ip, lsl r0
   4:	00000002 	andeq	r0, r0, r2
   8:	00040000 	andeq	r0, r4, r0
   c:	00000000 	andeq	r0, r0, r0
  10:	00008010 	andeq	r8, r0, r0, lsl r0
  14:	00000280 	andeq	r0, r0, r0, lsl #5
	...
  20:	0000001c 	andeq	r0, r0, ip, lsl r0
  24:	07590002 	ldrbeq	r0, [r9, -r2]
  28:	00040000 	andeq	r0, r4, r0
  2c:	00000000 	andeq	r0, r0, r0
  30:	00008290 	muleq	r0, r0, r2
  34:	00000058 	andeq	r0, r0, r8, asr r0
	...
  40:	0000001c 	andeq	r0, r0, ip, lsl r0
  44:	08ee0002 	stmiaeq	lr!, {r1}^
  48:	00040000 	andeq	r0, r4, r0
  4c:	00000000 	andeq	r0, r0, r0
  50:	000082e8 	andeq	r8, r0, r8, ror #5
  54:	0000003c 	andeq	r0, r0, ip, lsr r0
	...
  60:	0000001c 	andeq	r0, r0, ip, lsl r0
  64:	0a050002 	beq	140074 <__bss_end__+0x1341b4>
  68:	00040000 	andeq	r0, r4, r0
  6c:	00000000 	andeq	r0, r0, r0
  70:	00008324 	andeq	r8, r0, r4, lsr #6
  74:	00000034 	andeq	r0, r0, r4, lsr r0
	...
  80:	0000001c 	andeq	r0, r0, ip, lsl r0
  84:	0af70002 	beq	ffdc0094 <__bss_end__+0xffdb41d4>
  88:	00040000 	andeq	r0, r4, r0
  8c:	00000000 	andeq	r0, r0, r0
  90:	00008358 	andeq	r8, r0, r8, asr r3
  94:	000004f8 	strdeq	r0, [r0], -r8
	...
  a0:	0000001c 	andeq	r0, r0, ip, lsl r0
  a4:	117c0002 	cmnne	ip, r2
  a8:	00040000 	andeq	r0, r4, r0
  ac:	00000000 	andeq	r0, r0, r0
  b0:	00008850 	andeq	r8, r0, r0, asr r8
  b4:	00000028 	andeq	r0, r0, r8, lsr #32
	...
  c0:	0000001c 	andeq	r0, r0, ip, lsl r0
  c4:	127f0002 	rsbsne	r0, pc, #2
  c8:	00040000 	andeq	r0, r4, r0
  cc:	00000000 	andeq	r0, r0, r0
  d0:	00008878 	andeq	r8, r0, r8, ror r8
  d4:	000000b0 	strheq	r0, [r0], -r0	; <UNPREDICTABLE>
	...
  e0:	0000001c 	andeq	r0, r0, ip, lsl r0
  e4:	15600002 	strbne	r0, [r0, #-2]!
  e8:	00040000 	andeq	r0, r4, r0
  ec:	00000000 	andeq	r0, r0, r0
  f0:	00008928 	andeq	r8, r0, r8, lsr #18
  f4:	00000074 	andeq	r0, r0, r4, ror r0
	...
 100:	0000001c 	andeq	r0, r0, ip, lsl r0
 104:	17110002 	ldrne	r0, [r1, -r2]
 108:	00040000 	andeq	r0, r4, r0
 10c:	00000000 	andeq	r0, r0, r0
 110:	0000899c 	muleq	r0, ip, r9
 114:	00000088 	andeq	r0, r0, r8, lsl #1
	...
 120:	0000001c 	andeq	r0, r0, ip, lsl r0
 124:	18ed0002 	stmiane	sp!, {r1}^
 128:	00040000 	andeq	r0, r4, r0
 12c:	00000000 	andeq	r0, r0, r0
 130:	00008a24 	andeq	r8, r0, r4, lsr #20
 134:	000005bc 			; <UNDEFINED> instruction: 0x000005bc
	...
 140:	0000001c 	andeq	r0, r0, ip, lsl r0
 144:	21c00002 	biccs	r0, r0, r2
 148:	00040000 	andeq	r0, r4, r0
 14c:	00000000 	andeq	r0, r0, r0
 150:	00008fe0 	andeq	r8, r0, r0, ror #31
 154:	00000620 	andeq	r0, r0, r0, lsr #12
	...
 160:	0000001c 	andeq	r0, r0, ip, lsl r0
 164:	338e0002 	orrcc	r0, lr, #2
 168:	00040000 	andeq	r0, r4, r0
 16c:	00000000 	andeq	r0, r0, r0
 170:	00009600 	andeq	r9, r0, r0, lsl #12
 174:	00000154 	andeq	r0, r0, r4, asr r1
	...
 180:	0000001c 	andeq	r0, r0, ip, lsl r0
 184:	37910002 	ldrcc	r0, [r1, r2]
 188:	00040000 	andeq	r0, r4, r0
 18c:	00000000 	andeq	r0, r0, r0
 190:	00009754 	andeq	r9, r0, r4, asr r7
 194:	00000200 	andeq	r0, r0, r0, lsl #4
	...
 1a0:	0000001c 	andeq	r0, r0, ip, lsl r0
 1a4:	3d220002 	stccc	0, cr0, [r2, #-8]!
 1a8:	00040000 	andeq	r0, r4, r0
 1ac:	00000000 	andeq	r0, r0, r0
 1b0:	00009a90 	muleq	r0, r0, sl
 1b4:	00000820 	andeq	r0, r0, r0, lsr #16
	...
 1c0:	0000001c 	andeq	r0, r0, ip, lsl r0
 1c4:	58e30002 	stmiapl	r3!, {r1}^
 1c8:	00040000 	andeq	r0, r4, r0
 1cc:	00000000 	andeq	r0, r0, r0
 1d0:	0000a2b0 			; <UNDEFINED> instruction: 0x0000a2b0
 1d4:	00000020 	andeq	r0, r0, r0, lsr #32
	...
 1e0:	0000001c 	andeq	r0, r0, ip, lsl r0
 1e4:	59c20002 	stmibpl	r2, {r1}^
 1e8:	00040000 	andeq	r0, r4, r0
 1ec:	00000000 	andeq	r0, r0, r0
 1f0:	0000a2d0 	ldrdeq	sl, [r0], -r0
 1f4:	00000050 	andeq	r0, r0, r0, asr r0
	...

Disassembly of section .debug_line:

00000000 <.debug_line>:
       0:	00000248 	andeq	r0, r0, r8, asr #4
       4:	01bf0002 			; <UNDEFINED> instruction: 0x01bf0002
       8:	01020000 	mrseq	r0, (UNDEF: 2)
       c:	000d0efb 	strdeq	r0, [sp], -fp
      10:	01010101 	tsteq	r1, r1, lsl #2
      14:	01000000 	mrseq	r0, (UNDEF: 0)
      18:	2f010000 	svccs	0x00010000
      1c:	2f727375 	svccs	0x00727375
      20:	61636f6c 	cmnvs	r3, ip, ror #30
      24:	65432f6c 	strbvs	r2, [r3, #-3948]	; 0xf6c
      28:	72616c6c 	rsbvc	r6, r1, #108, 24	; 0x6c00
      2c:	6d72612f 	ldfvse	f6, [r2, #-188]!	; 0xffffff44
      30:	6e6f6e2d 	cdpvs	14, 6, cr6, cr15, cr13, {1}
      34:	61652d65 	cmnvs	r5, r5, ror #26
      38:	342f6962 	strtcc	r6, [pc], #-2402	; 40 <_start-0x7fc0>
      3c:	332e382e 	teqcc	lr, #3014656	; 0x2e0000
      40:	3173632d 	cmncc	r3, sp, lsr #6
      44:	2f653037 	svccs	0x00653037
      48:	2f62696c 	svccs	0x0062696c
      4c:	2f636367 	svccs	0x00636367
      50:	2d6d7261 	sfmcs	f7, 2, [sp, #-388]!	; 0xfffffe7c
      54:	656e6f6e 	strbvs	r6, [lr, #-3950]!	; 0xf6e
      58:	6261652d 	rsbvs	r6, r1, #188743680	; 0xb400000
      5c:	2e342f69 	cdpcs	15, 3, cr2, cr4, cr9, {3}
      60:	2f332e38 	svccs	0x00332e38
      64:	6c636e69 	stclvs	14, cr6, [r3], #-420	; 0xfffffe5c
      68:	00656475 	rsbeq	r6, r5, r5, ror r4
      6c:	6573552f 	ldrbvs	r5, [r3, #-1327]!	; 0x52f
      70:	622f7372 	eorvs	r7, pc, #-939524095	; 0xc8000001
      74:	6e616972 	mcrvs	9, 3, r6, cr1, cr2, {3}
      78:	2f6e756a 	svccs	0x006e756a
      7c:	6b736544 	blvs	1cd9594 <__bss_end__+0x1ccd6d4>
      80:	2f706f74 	svccs	0x00706f74
      84:	6f686373 	svcvs	0x00686373
      88:	572f6c6f 	strpl	r6, [pc, -pc, ror #24]!
      8c:	65746e69 	ldrbvs	r6, [r4, #-3689]!	; 0xe69
      90:	32393172 	eorscc	r3, r9, #-2147483620	; 0x8000001c
      94:	53432f30 	movtpl	r2, #16176	; 0x3f30
      98:	45303431 	ldrmi	r3, [r0, #-1073]!	; 0x431
      9c:	3173632f 	cmncc	r3, pc, lsr #6
      a0:	2d653034 	stclcs	0, cr3, [r5, #-208]!	; 0xffffff30
      a4:	69773032 	ldmdbvs	r7!, {r1, r4, r5, ip, sp}^
      a8:	696c2f6e 	stmdbvs	ip!, {r1, r2, r3, r5, r6, r8, r9, sl, fp, sp}^
      ac:	2f697062 	svccs	0x00697062
      b0:	34317363 	ldrtcc	r7, [r1], #-867	; 0x363
      b4:	692d6530 	pushvs	{r4, r5, r8, sl, sp, lr}
      b8:	7265746e 	rsbvc	r7, r5, #1845493760	; 0x6e000000
      bc:	74707572 	ldrbtvc	r7, [r0], #-1394	; 0x572
      c0:	73552f00 	cmpvc	r5, #0, 30
      c4:	2f737265 	svccs	0x00737265
      c8:	61697262 	cmnvs	r9, r2, ror #4
      cc:	6e756a6e 	vsubvs.f32	s13, s10, s29
      d0:	7365442f 	cmnvc	r5, #788529152	; 0x2f000000
      d4:	706f746b 	rsbvc	r7, pc, fp, ror #8
      d8:	6863732f 	stmdavs	r3!, {r0, r1, r2, r3, r5, r8, r9, ip, sp, lr}^
      dc:	2f6c6f6f 	svccs	0x006c6f6f
      e0:	746e6957 	strbtvc	r6, [lr], #-2391	; 0x957
      e4:	39317265 	ldmdbcc	r1!, {r0, r2, r5, r6, r9, ip, sp, lr}
      e8:	432f3032 	teqmi	pc, #50	; 0x32
      ec:	30343153 	eorscc	r3, r4, r3, asr r1
      f0:	73632f45 	cmnvc	r3, #276	; 0x114
      f4:	65303431 	ldrvs	r3, [r0, #-1073]!	; 0x431
      f8:	7730322d 	ldrvc	r3, [r0, -sp, lsr #4]!
      fc:	6c2f6e69 	stcvs	14, cr6, [pc], #-420	; ffffff60 <__bss_end__+0xffff40a0>
     100:	69706269 	ldmdbvs	r0!, {r0, r3, r5, r6, r9, sp, lr}^
     104:	73552f00 	cmpvc	r5, #0, 30
     108:	2f737265 	svccs	0x00737265
     10c:	61697262 	cmnvs	r9, r2, ror #4
     110:	6e756a6e 	vsubvs.f32	s13, s10, s29
     114:	7365442f 	cmnvc	r5, #788529152	; 0x2f000000
     118:	706f746b 	rsbvc	r7, pc, fp, ror #8
     11c:	6863732f 	stmdavs	r3!, {r0, r1, r2, r3, r5, r8, r9, ip, sp, lr}^
     120:	2f6c6f6f 	svccs	0x006c6f6f
     124:	746e6957 	strbtvc	r6, [lr], #-2391	; 0x957
     128:	39317265 	ldmdbcc	r1!, {r0, r2, r5, r6, r9, ip, sp, lr}
     12c:	432f3032 	teqmi	pc, #50	; 0x32
     130:	30343153 	eorscc	r3, r4, r3, asr r1
     134:	73632f45 	cmnvc	r3, #276	; 0x114
     138:	65303431 	ldrvs	r3, [r0, #-1073]!	; 0x431
     13c:	7730322d 	ldrvc	r3, [r0, -sp, lsr #4]!
     140:	6c2f6e69 	stcvs	14, cr6, [pc], #-420	; ffffffa4 <__bss_end__+0xffff40e4>
     144:	69706269 	ldmdbvs	r0!, {r0, r3, r5, r6, r9, sp, lr}^
     148:	3173632f 	cmncc	r3, pc, lsr #6
     14c:	2d653034 	stclcs	0, cr3, [r5, #-208]!	; 0xffffff30
     150:	00637273 	rsbeq	r7, r3, r3, ror r2
     154:	2d697000 	stclcs	0, cr7, [r9, #-0]
     158:	2e6d6d76 	mcrcs	13, 3, r6, cr13, cr6, {3}
     15c:	00000063 	andeq	r0, r0, r3, rrx
     160:	64747300 	ldrbtvs	r7, [r4], #-768	; 0x300
     164:	2d746e69 	ldclcs	14, cr6, [r4, #-420]!	; 0xfffffe5c
     168:	2e636367 	cdpcs	3, 6, cr6, cr3, cr7, {3}
     16c:	00010068 	andeq	r0, r1, r8, rrx
     170:	69707200 	ldmdbvs	r0!, {r9, ip, sp, lr}^
     174:	6d72612d 	ldfvse	f6, [r2, #-180]!	; 0xffffff4c
     178:	656d6974 	strbvs	r6, [sp, #-2420]!	; 0x974
     17c:	00682e72 	rsbeq	r2, r8, r2, ror lr
     180:	70000002 	andvc	r0, r0, r2
     184:	656d2d69 	strbvs	r2, [sp, #-3433]!	; 0xd69
     188:	67617373 			; <UNDEFINED> instruction: 0x67617373
     18c:	00682e65 	rsbeq	r2, r8, r5, ror #28
     190:	75000003 	strvc	r0, [r0, #-3]
     194:	2d747261 	lfmcs	f7, 2, [r4, #-388]!	; 0xfffffe7c
     198:	2e746e69 	cdpcs	14, 7, cr6, cr4, cr9, {3}
     19c:	00020068 	andeq	r0, r2, r8, rrx
     1a0:	69707200 	ldmdbvs	r0!, {r9, ip, sp, lr}^
     1a4:	0300682e 	movweq	r6, #2094	; 0x82e
     1a8:	70670000 	rsbvc	r0, r7, r0
     1ac:	682e6f69 	stmdavs	lr!, {r0, r3, r5, r6, r8, r9, sl, fp, sp, lr}
     1b0:	00000400 	andeq	r0, r0, r0, lsl #8
     1b4:	2d697072 	stclcs	0, cr7, [r9, #-456]!	; 0xfffffe38
     1b8:	65746e69 	ldrbvs	r6, [r4, #-3689]!	; 0xe69
     1bc:	70757272 	rsbsvc	r7, r5, r2, ror r2
     1c0:	682e7374 	stmdavs	lr!, {r2, r4, r5, r6, r8, r9, ip, sp, lr}
     1c4:	00000200 	andeq	r0, r0, r0, lsl #4
     1c8:	02050000 	andeq	r0, r5, #0
     1cc:	00008010 	andeq	r8, r0, r0, lsl r0
     1d0:	68011d03 	stmdavs	r1, {r0, r1, r8, sl, fp, ip}
     1d4:	02040200 	andeq	r0, r4, #0, 4
     1d8:	0402004b 	streq	r0, [r2], #-75	; 0x4b
     1dc:	02004902 	andeq	r4, r0, #32768	; 0x8000
     1e0:	2e060104 	adfcss	f0, f6, f4
     1e4:	4c344c06 	ldcmi	12, cr4, [r4], #-24	; 0xffffffe8
     1e8:	660c0368 	strvs	r0, [ip], -r8, ror #6
     1ec:	034c4b4c 	movteq	r4, #52044	; 0xcb4c
     1f0:	00684a66 	rsbeq	r4, r8, r6, ror #20
     1f4:	4b020402 	blmi	81204 <__bss_end__+0x75344>
     1f8:	02040200 	andeq	r0, r4, #0, 4
     1fc:	04020049 	streq	r0, [r2], #-73	; 0x49
     200:	062e0601 	strteq	r0, [lr], -r1, lsl #12
     204:	6783344c 	strvs	r3, [r3, ip, asr #8]
     208:	2f4a6603 	svccs	0x004a6603
     20c:	4b4a2903 	blmi	128a620 <__bss_end__+0x127e760>
     210:	51312f2f 	teqpl	r1, pc, lsr #30
     214:	034dd767 	movteq	sp, #55143	; 0xd767
     218:	13034a1a 	movwne	r4, #14874	; 0x3a1a
     21c:	2e5b032e 	cdpcs	3, 5, cr0, cr11, cr14, {1}
     220:	1426022f 	strtne	r0, [r6], #-559	; 0x22f
     224:	0b034b4b 	bleq	d2f58 <__bss_end__+0xc7098>
     228:	4b4b2f2e 	blmi	12cbee8 <__bss_end__+0x12c0028>
     22c:	4b4b304b 	blmi	12cc360 <__bss_end__+0x12c04a0>
     230:	4b2f344b 	blmi	bcd364 <__bss_end__+0xbc14a4>
     234:	4b672f30 	blmi	19cbefc <__bss_end__+0x19c003c>
     238:	4b2f304b 	blmi	bcc36c <__bss_end__+0xbc04ac>
     23c:	4b4b4b30 	blmi	12d2f04 <__bss_end__+0x12c7044>
     240:	304b2f30 	subcc	r2, fp, r0, lsr pc
     244:	02304b2f 	eorseq	r4, r0, #48128	; 0xbc00
     248:	0101001e 	tsteq	r1, lr, lsl r0
     24c:	00000102 	andeq	r0, r0, r2, lsl #2
     250:	00eb0002 	rsceq	r0, fp, r2
     254:	01020000 	mrseq	r0, (UNDEF: 2)
     258:	000d0efb 	strdeq	r0, [sp], -fp
     25c:	01010101 	tsteq	r1, r1, lsl #2
     260:	01000000 	mrseq	r0, (UNDEF: 0)
     264:	6c010000 	stcvs	0, cr0, [r1], {-0}
     268:	00636269 	rsbeq	r6, r3, r9, ror #4
     26c:	7273752f 	rsbsvc	r7, r3, #197132288	; 0xbc00000
     270:	636f6c2f 	cmnvs	pc, #12032	; 0x2f00
     274:	432f6c61 	teqmi	pc, #24832	; 0x6100
     278:	616c6c65 	cmnvs	ip, r5, ror #24
     27c:	72612f72 	rsbvc	r2, r1, #456	; 0x1c8
     280:	6f6e2d6d 	svcvs	0x006e2d6d
     284:	652d656e 	strvs	r6, [sp, #-1390]!	; 0x56e
     288:	2f696261 	svccs	0x00696261
     28c:	2e382e34 	mrccs	14, 1, r2, cr8, cr4, {1}
     290:	73632d33 	cmnvc	r3, #3264	; 0xcc0
     294:	65303731 	ldrvs	r3, [r0, #-1841]!	; 0x731
     298:	62696c2f 	rsbvs	r6, r9, #12032	; 0x2f00
     29c:	6363672f 	cmnvs	r3, #12320768	; 0xbc0000
     2a0:	6d72612f 	ldfvse	f6, [r2, #-188]!	; 0xffffff44
     2a4:	6e6f6e2d 	cdpvs	14, 6, cr6, cr15, cr13, {1}
     2a8:	61652d65 	cmnvs	r5, r5, ror #26
     2ac:	342f6962 	strtcc	r6, [pc], #-2402	; 2b4 <_start-0x7d4c>
     2b0:	332e382e 	teqcc	lr, #3014656	; 0x2e0000
     2b4:	636e692f 	cmnvs	lr, #770048	; 0xbc000
     2b8:	6564756c 	strbvs	r7, [r4, #-1388]!	; 0x56c
     2bc:	73552f00 	cmpvc	r5, #0, 30
     2c0:	2f737265 	svccs	0x00737265
     2c4:	61697262 	cmnvs	r9, r2, ror #4
     2c8:	6e756a6e 	vsubvs.f32	s13, s10, s29
     2cc:	7365442f 	cmnvc	r5, #788529152	; 0x2f000000
     2d0:	706f746b 	rsbvc	r7, pc, fp, ror #8
     2d4:	6863732f 	stmdavs	r3!, {r0, r1, r2, r3, r5, r8, r9, ip, sp, lr}^
     2d8:	2f6c6f6f 	svccs	0x006c6f6f
     2dc:	746e6957 	strbtvc	r6, [lr], #-2391	; 0x957
     2e0:	39317265 	ldmdbcc	r1!, {r0, r2, r5, r6, r9, ip, sp, lr}
     2e4:	432f3032 	teqmi	pc, #50	; 0x32
     2e8:	30343153 	eorscc	r3, r4, r3, asr r1
     2ec:	73632f45 	cmnvc	r3, #276	; 0x114
     2f0:	65303431 	ldrvs	r3, [r0, #-1073]!	; 0x431
     2f4:	7730322d 	ldrvc	r3, [r0, -sp, lsr #4]!
     2f8:	6c2f6e69 	stcvs	14, cr6, [pc], #-420	; 15c <_start-0x7ea4>
     2fc:	69706269 	ldmdbvs	r0!, {r0, r3, r5, r6, r9, sp, lr}^
     300:	72700000 	rsbsvc	r0, r0, #0
     304:	6b746e69 	blvs	1d1bcb0 <__bss_end__+0x1d0fdf0>
     308:	0100632e 	tsteq	r0, lr, lsr #6
     30c:	74730000 	ldrbtvc	r0, [r3], #-0
     310:	67726164 	ldrbvs	r6, [r2, -r4, ror #2]!
     314:	0200682e 	andeq	r6, r0, #3014656	; 0x2e0000
     318:	623c0000 	eorsvs	r0, ip, #0
     31c:	746c6975 	strbtvc	r6, [ip], #-2421	; 0x975
     320:	3e6e692d 	cdpcc	9, 6, cr6, cr14, cr13, {1}
     324:	00000000 	andeq	r0, r0, r0
     328:	2e697072 	mcrcs	0, 3, r7, cr9, cr2, {3}
     32c:	00030068 	andeq	r0, r3, r8, rrx
     330:	2d617600 	stclcs	6, cr7, [r1, #-0]
     334:	6e697270 	mcrvs	2, 3, r7, cr9, cr0, {3}
     338:	682e6b74 	stmdavs	lr!, {r2, r4, r5, r6, r8, r9, fp, sp, lr}
     33c:	00000100 	andeq	r0, r0, r0, lsl #2
     340:	02050000 	andeq	r0, r5, #0
     344:	00008290 	muleq	r0, r0, r2
     348:	bf4b6b17 	svclt	0x004b6b17
     34c:	000e0289 	andeq	r0, lr, r9, lsl #5
     350:	008a0101 	addeq	r0, sl, r1, lsl #2
     354:	00020000 	andeq	r0, r2, r0
     358:	00000072 	andeq	r0, r0, r2, ror r0
     35c:	0efb0102 	cdpeq	1, 15, cr0, cr11, cr2, {0}
     360:	0101000d 	tsteq	r1, sp
     364:	00000101 	andeq	r0, r0, r1, lsl #2
     368:	00000100 	andeq	r0, r0, r0, lsl #2
     36c:	62696c01 	rsbvs	r6, r9, #256	; 0x100
     370:	552f0063 	strpl	r0, [pc, #-99]!	; 315 <_start-0x7ceb>
     374:	73726573 	cmnvc	r2, #482344960	; 0x1cc00000
     378:	6972622f 	ldmdbvs	r2!, {r0, r1, r2, r3, r5, r9, sp, lr}^
     37c:	756a6e61 	strbvc	r6, [sl, #-3681]!	; 0xe61
     380:	65442f6e 	strbvs	r2, [r4, #-3950]	; 0xf6e
     384:	6f746b73 	svcvs	0x00746b73
     388:	63732f70 	cmnvs	r3, #112, 30	; 0x1c0
     38c:	6c6f6f68 	stclvs	15, cr6, [pc], #-416	; 1f4 <_start-0x7e0c>
     390:	6e69572f 	cdpvs	7, 6, cr5, cr9, cr15, {1}
     394:	31726574 	cmncc	r2, r4, ror r5
     398:	2f303239 	svccs	0x00303239
     39c:	34315343 	ldrtcc	r5, [r1], #-835	; 0x343
     3a0:	632f4530 	teqvs	pc, #48, 10	; 0xc000000
     3a4:	30343173 	eorscc	r3, r4, r3, ror r1
     3a8:	30322d65 	eorscc	r2, r2, r5, ror #26
     3ac:	2f6e6977 	svccs	0x006e6977
     3b0:	7062696c 	rsbvc	r6, r2, ip, ror #18
     3b4:	70000069 	andvc	r0, r0, r9, rrx
     3b8:	68637475 	stmdavs	r3!, {r0, r2, r4, r5, r6, sl, ip, sp, lr}^
     3bc:	632e7261 	teqvs	lr, #268435462	; 0x10000006
     3c0:	00000100 	andeq	r0, r0, r0, lsl #2
     3c4:	2e697072 	mcrcs	0, 3, r7, cr9, cr2, {3}
     3c8:	00020068 	andeq	r0, r2, r8, rrx
     3cc:	05000000 	streq	r0, [r0, #-0]
     3d0:	0082e802 	addeq	lr, r2, r2, lsl #16
     3d4:	6b4a1400 	blvs	12853dc <__bss_end__+0x127951c>
     3d8:	0213bc13 	andseq	fp, r3, #4864	; 0x1300
     3dc:	01010008 	tsteq	r1, r8
     3e0:	00000096 	muleq	r0, r6, r0
     3e4:	006f0002 	rsbeq	r0, pc, r2
     3e8:	01020000 	mrseq	r0, (UNDEF: 2)
     3ec:	000d0efb 	strdeq	r0, [sp], -fp
     3f0:	01010101 	tsteq	r1, r1, lsl #2
     3f4:	01000000 	mrseq	r0, (UNDEF: 0)
     3f8:	6c010000 	stcvs	0, cr0, [r1], {-0}
     3fc:	00636269 	rsbeq	r6, r3, r9, ror #4
     400:	6573552f 	ldrbvs	r5, [r3, #-1327]!	; 0x52f
     404:	622f7372 	eorvs	r7, pc, #-939524095	; 0xc8000001
     408:	6e616972 	mcrvs	9, 3, r6, cr1, cr2, {3}
     40c:	2f6e756a 	svccs	0x006e756a
     410:	6b736544 	blvs	1cd9928 <__bss_end__+0x1ccda68>
     414:	2f706f74 	svccs	0x00706f74
     418:	6f686373 	svcvs	0x00686373
     41c:	572f6c6f 	strpl	r6, [pc, -pc, ror #24]!
     420:	65746e69 	ldrbvs	r6, [r4, #-3689]!	; 0xe69
     424:	32393172 	eorscc	r3, r9, #-2147483620	; 0x8000001c
     428:	53432f30 	movtpl	r2, #16176	; 0x3f30
     42c:	45303431 	ldrmi	r3, [r0, #-1073]!	; 0x431
     430:	3173632f 	cmncc	r3, pc, lsr #6
     434:	2d653034 	stclcs	0, cr3, [r5, #-208]!	; 0xffffff30
     438:	69773032 	ldmdbvs	r7!, {r1, r4, r5, ip, sp}^
     43c:	696c2f6e 	stmdbvs	ip!, {r1, r2, r3, r5, r6, r8, r9, sl, fp, sp}^
     440:	00697062 	rsbeq	r7, r9, r2, rrx
     444:	74757000 	ldrbtvc	r7, [r5], #-0
     448:	00632e6b 	rsbeq	r2, r3, fp, ror #28
     44c:	72000001 	andvc	r0, r0, #1
     450:	682e6970 	stmdavs	lr!, {r4, r5, r6, r8, fp, sp, lr}
     454:	00000200 	andeq	r0, r0, r0, lsl #4
     458:	02050000 	andeq	r0, r5, #0
     45c:	00008324 	andeq	r8, r0, r4, lsr #6
     460:	002d4c15 	eoreq	r4, sp, r5, lsl ip
     464:	2f020402 	svccs	0x00020402
     468:	02040200 	andeq	r0, r4, #0, 4
     46c:	04020049 	streq	r0, [r2], #-73	; 0x49
     470:	062e0601 	strteq	r0, [lr], -r1, lsl #12
     474:	0006026b 	andeq	r0, r6, fp, ror #4
     478:	01de0101 	bicseq	r0, lr, r1, lsl #2
     47c:	00020000 	andeq	r0, r2, r0
     480:	000000df 	ldrdeq	r0, [r0], -pc	; <UNPREDICTABLE>
     484:	0efb0102 	cdpeq	1, 15, cr0, cr11, cr2, {0}
     488:	0101000d 	tsteq	r1, sp
     48c:	00000101 	andeq	r0, r0, r1, lsl #2
     490:	00000100 	andeq	r0, r0, r0, lsl #2
     494:	62696c01 	rsbvs	r6, r9, #256	; 0x100
     498:	752f0063 	strvc	r0, [pc, #-99]!	; 43d <_start-0x7bc3>
     49c:	6c2f7273 	sfmvs	f7, 4, [pc], #-460	; 2d8 <_start-0x7d28>
     4a0:	6c61636f 	stclvs	3, cr6, [r1], #-444	; 0xfffffe44
     4a4:	6c65432f 	stclvs	3, cr4, [r5], #-188	; 0xffffff44
     4a8:	2f72616c 	svccs	0x0072616c
     4ac:	2d6d7261 	sfmcs	f7, 2, [sp, #-388]!	; 0xfffffe7c
     4b0:	656e6f6e 	strbvs	r6, [lr, #-3950]!	; 0xf6e
     4b4:	6261652d 	rsbvs	r6, r1, #188743680	; 0xb400000
     4b8:	2e342f69 	cdpcs	15, 3, cr2, cr4, cr9, {3}
     4bc:	2d332e38 	ldccs	14, cr2, [r3, #-224]!	; 0xffffff20
     4c0:	37317363 	ldrcc	r7, [r1, -r3, ror #6]!
     4c4:	6c2f6530 	cfstr32vs	mvfx6, [pc], #-192	; 40c <_start-0x7bf4>
     4c8:	672f6269 	strvs	r6, [pc, -r9, ror #4]!
     4cc:	612f6363 	teqvs	pc, r3, ror #6
     4d0:	6e2d6d72 	mcrvs	13, 1, r6, cr13, cr2, {3}
     4d4:	2d656e6f 	stclcs	14, cr6, [r5, #-444]!	; 0xfffffe44
     4d8:	69626165 	stmdbvs	r2!, {r0, r2, r5, r6, r8, sp, lr}^
     4dc:	382e342f 	stmdacc	lr!, {r0, r1, r2, r3, r5, sl, ip, sp}
     4e0:	692f332e 	stmdbvs	pc!, {r1, r2, r3, r5, r8, r9, ip, sp}	; <UNPREDICTABLE>
     4e4:	756c636e 	strbvc	r6, [ip, #-878]!	; 0x36e
     4e8:	2f006564 	svccs	0x00006564
     4ec:	72657355 	rsbvc	r7, r5, #1409286145	; 0x54000001
     4f0:	72622f73 	rsbvc	r2, r2, #460	; 0x1cc
     4f4:	6a6e6169 	bvs	1b98aa0 <__bss_end__+0x1b8cbe0>
     4f8:	442f6e75 	strtmi	r6, [pc], #-3701	; 500 <_start-0x7b00>
     4fc:	746b7365 	strbtvc	r7, [fp], #-869	; 0x365
     500:	732f706f 	teqvc	pc, #111	; 0x6f
     504:	6f6f6863 	svcvs	0x006f6863
     508:	69572f6c 	ldmdbvs	r7, {r2, r3, r5, r6, r8, r9, sl, fp, sp}^
     50c:	7265746e 	rsbvc	r7, r5, #1845493760	; 0x6e000000
     510:	30323931 	eorscc	r3, r2, r1, lsr r9
     514:	3153432f 	cmpcc	r3, pc, lsr #6
     518:	2f453034 	svccs	0x00453034
     51c:	34317363 	ldrtcc	r7, [r1], #-867	; 0x363
     520:	322d6530 	eorcc	r6, sp, #48, 10	; 0xc000000
     524:	6e697730 	mcrvs	7, 3, r7, cr9, cr0, {1}
     528:	62696c2f 	rsbvs	r6, r9, #12032	; 0x2f00
     52c:	00006970 	andeq	r6, r0, r0, ror r9
     530:	702d6176 	eorvc	r6, sp, r6, ror r1
     534:	746e6972 	strbtvc	r6, [lr], #-2418	; 0x972
     538:	00632e6b 	rsbeq	r2, r3, fp, ror #28
     53c:	73000001 	movwvc	r0, #1
     540:	72616474 	rsbvc	r6, r1, #116, 8	; 0x74000000
     544:	00682e67 	rsbeq	r2, r8, r7, ror #28
     548:	72000002 	andvc	r0, r0, #2
     54c:	682e6970 	stmdavs	lr!, {r4, r5, r6, r8, fp, sp, lr}
     550:	00000300 	andeq	r0, r0, r0, lsl #6
     554:	6975623c 	ldmdbvs	r5!, {r2, r3, r4, r5, r9, sp, lr}^
     558:	692d746c 	pushvs	{r2, r3, r5, r6, sl, ip, sp, lr}
     55c:	00003e6e 	andeq	r3, r0, lr, ror #28
     560:	00000000 	andeq	r0, r0, r0
     564:	83580205 	cmphi	r8, #1342177280	; 0x50000000
     568:	26030000 	strcs	r0, [r3], -r0
     56c:	13a50101 			; <UNDEFINED> instruction: 0x13a50101
     570:	02002d31 	andeq	r2, r0, #3136	; 0xc40
     574:	002f0204 	eoreq	r0, pc, r4, lsl #4
     578:	2d020402 	cfstrscs	mvf0, [r2, #-8]
     57c:	02040200 	andeq	r0, r4, #0, 4
     580:	0402002f 	streq	r0, [r2], #-47	; 0x2f
     584:	4c4c2d01 	mcrrmi	13, 0, r2, ip, cr1
     588:	2f4b1430 	svccs	0x004b1430
     58c:	0402004f 	streq	r0, [r2], #-79	; 0x4f
     590:	02006702 	andeq	r6, r0, #524288	; 0x80000
     594:	4c650104 	stfmie	f0, [r5], #-16
     598:	2fa0304d 	svccs	0x00a0304d
     59c:	26023031 			; <UNDEFINED> instruction: 0x26023031
     5a0:	2c2d8416 	cfstrscs	mvf8, [sp], #-88	; 0xffffffa8
     5a4:	01040200 	mrseq	r0, R12_usr
     5a8:	04020030 	streq	r0, [r2], #-48	; 0x30
     5ac:	66063301 	strvs	r3, [r6], -r1, lsl #6
     5b0:	01040200 	mrseq	r0, R12_usr
     5b4:	0402002e 	streq	r0, [r2], #-46	; 0x2e
     5b8:	21080601 	tstcs	r8, r1, lsl #12
     5bc:	73032f67 	movwvc	r2, #16231	; 0x3f67
     5c0:	2e130382 	cdpcs	3, 1, cr0, cr3, cr2, {4}
     5c4:	01040200 	mrseq	r0, R12_usr
     5c8:	02002e06 	andeq	r2, r0, #6, 28	; 0x60
     5cc:	9f060104 	svcls	0x00060104
     5d0:	67034b6a 	strvs	r4, [r3, -sl, ror #22]
     5d4:	2e21032e 	cdpcs	3, 2, cr0, cr1, cr14, {1}
     5d8:	01040200 	mrseq	r0, R12_usr
     5dc:	02002e06 	andeq	r2, r0, #6, 28	; 0x60
     5e0:	9f060104 	svcls	0x00060104
     5e4:	01040200 	mrseq	r0, R12_usr
     5e8:	03f3d96a 	mvnseq	sp, #1736704	; 0x1a8000
     5ec:	20087fa6 	andcs	r7, r8, r6, lsr #31
     5f0:	0402002f 	streq	r0, [r2], #-47	; 0x2f
     5f4:	064a0601 	strbeq	r0, [sl], -r1, lsl #12
     5f8:	032f4bd7 	teqeq	pc, #220160	; 0x35c00
     5fc:	83f200da 	mvnshi	r0, #218	; 0xda
     600:	0e03484c 	cdpeq	8, 0, cr4, cr3, cr12, {2}
     604:	2e75032e 	cdpcs	3, 7, cr0, cr5, cr14, {1}
     608:	4b842f2f 	blmi	fe10c2cc <__bss_end__+0xfe10040c>
     60c:	314d2d2f 	cmpcc	sp, pc, lsr #26
     610:	00832f30 	addeq	r2, r3, r0, lsr pc
     614:	2c010402 	cfstrscs	mvf0, [r1], {2}
     618:	040200a2 	streq	r0, [r2], #-162	; 0xa2
     61c:	064a0601 	strbeq	r0, [sl], -r1, lsl #12
     620:	163602d8 			; <UNDEFINED> instruction: 0x163602d8
     624:	08d60e03 	ldmeq	r6, {r0, r1, r9, sl, fp}^
     628:	31f33021 	mvnscc	r3, r1, lsr #32
     62c:	30f330f3 	ldrshtcc	r3, [r3], #3
     630:	30f3304b 	rscscc	r3, r3, fp, asr #32
     634:	2f312308 	svccs	0x00312308
     638:	01040200 	mrseq	r0, R12_usr
     63c:	04020065 	streq	r0, [r2], #-101	; 0x65
     640:	004a0602 	subeq	r0, sl, r2, lsl #12
     644:	06010402 	streq	r0, [r1], -r2, lsl #8
     648:	00664203 	rsbeq	r4, r6, r3, lsl #4
     64c:	06020402 	streq	r0, [r2], -r2, lsl #8
     650:	c2030666 	andgt	r0, r3, #106954752	; 0x6600000
     654:	02684a00 	rsbeq	r4, r8, #0, 20
     658:	01010010 	tsteq	r1, r0, lsl r0
     65c:	00000093 	muleq	r0, r3, r0
     660:	007d0002 	rsbseq	r0, sp, r2
     664:	01020000 	mrseq	r0, (UNDEF: 2)
     668:	000d0efb 	strdeq	r0, [sp], -fp
     66c:	01010101 	tsteq	r1, r1, lsl #2
     670:	01000000 	mrseq	r0, (UNDEF: 0)
     674:	63010000 	movwvs	r0, #4096	; 0x1000
     678:	30343173 	eorscc	r3, r4, r3, ror r1
     67c:	72732d65 	rsbsvc	r2, r3, #6464	; 0x1940
     680:	552f0063 	strpl	r0, [pc, #-99]!	; 625 <_start-0x79db>
     684:	73726573 	cmnvc	r2, #482344960	; 0x1cc00000
     688:	6972622f 	ldmdbvs	r2!, {r0, r1, r2, r3, r5, r9, sp, lr}^
     68c:	756a6e61 	strbvc	r6, [sl, #-3681]!	; 0xe61
     690:	65442f6e 	strbvs	r2, [r4, #-3950]	; 0xf6e
     694:	6f746b73 	svcvs	0x00746b73
     698:	63732f70 	cmnvs	r3, #112, 30	; 0x1c0
     69c:	6c6f6f68 	stclvs	15, cr6, [pc], #-416	; 504 <_start-0x7afc>
     6a0:	6e69572f 	cdpvs	7, 6, cr5, cr9, cr15, {1}
     6a4:	31726574 	cmncc	r2, r4, ror r5
     6a8:	2f303239 	svccs	0x00303239
     6ac:	34315343 	ldrtcc	r5, [r1], #-835	; 0x343
     6b0:	632f4530 	teqvs	pc, #48, 10	; 0xc000000
     6b4:	30343173 	eorscc	r3, r4, r3, ror r1
     6b8:	30322d65 	eorscc	r2, r2, r5, ror #26
     6bc:	2f6e6977 	svccs	0x006e6977
     6c0:	7062696c 	rsbvc	r6, r2, ip, ror #18
     6c4:	63000069 	movwvs	r0, #105	; 0x69
     6c8:	6e61656c 	cdpvs	5, 6, cr6, cr1, cr12, {3}
     6cc:	6265722d 	rsbvs	r7, r5, #-805306366	; 0xd0000002
     6d0:	2e746f6f 	cdpcs	15, 7, cr6, cr4, cr15, {3}
     6d4:	00010063 	andeq	r0, r1, r3, rrx
     6d8:	69707200 	ldmdbvs	r0!, {r9, ip, sp, lr}^
     6dc:	0200682e 	andeq	r6, r0, #3014656	; 0x2e0000
     6e0:	00000000 	andeq	r0, r0, r0
     6e4:	88500205 	ldmdahi	r0, {r0, r2, r9}^
     6e8:	2f150000 	svccs	0x00150000
     6ec:	06024b83 	streq	r4, [r2], -r3, lsl #23
     6f0:	21010100 	mrscs	r0, (UNDEF: 17)
     6f4:	02000001 	andeq	r0, r0, #1
     6f8:	0000f800 	andeq	pc, r0, r0, lsl #16
     6fc:	fb010200 	blx	40f06 <__bss_end__+0x35046>
     700:	01000d0e 	tsteq	r0, lr, lsl #26
     704:	00010101 	andeq	r0, r1, r1, lsl #2
     708:	00010000 	andeq	r0, r1, r0
     70c:	73630100 	cmnvc	r3, #0, 2
     710:	65303431 	ldrvs	r3, [r0, #-1073]!	; 0x431
     714:	6372732d 	cmnvs	r2, #-1275068416	; 0xb4000000
     718:	73752f00 	cmnvc	r5, #0, 30
     71c:	6f6c2f72 	svcvs	0x006c2f72
     720:	2f6c6163 	svccs	0x006c6163
     724:	6c6c6543 	cfstr64vs	mvdx6, [ip], #-268	; 0xfffffef4
     728:	612f7261 	teqvs	pc, r1, ror #4
     72c:	6e2d6d72 	mcrvs	13, 1, r6, cr13, cr2, {3}
     730:	2d656e6f 	stclcs	14, cr6, [r5, #-444]!	; 0xfffffe44
     734:	69626165 	stmdbvs	r2!, {r0, r2, r5, r6, r8, sp, lr}^
     738:	382e342f 	stmdacc	lr!, {r0, r1, r2, r3, r5, sl, ip, sp}
     73c:	632d332e 	teqvs	sp, #-1207959552	; 0xb8000000
     740:	30373173 	eorscc	r3, r7, r3, ror r1
     744:	696c2f65 	stmdbvs	ip!, {r0, r2, r5, r6, r8, r9, sl, fp, sp}^
     748:	63672f62 	cmnvs	r7, #392	; 0x188
     74c:	72612f63 	rsbvc	r2, r1, #396	; 0x18c
     750:	6f6e2d6d 	svcvs	0x006e2d6d
     754:	652d656e 	strvs	r6, [sp, #-1390]!	; 0x56e
     758:	2f696261 	svccs	0x00696261
     75c:	2e382e34 	mrccs	14, 1, r2, cr8, cr4, {1}
     760:	6e692f33 	mcrvs	15, 3, r2, cr9, cr3, {1}
     764:	64756c63 	ldrbtvs	r6, [r5], #-3171	; 0xc63
     768:	552f0065 	strpl	r0, [pc, #-101]!	; 70b <_start-0x78f5>
     76c:	73726573 	cmnvc	r2, #482344960	; 0x1cc00000
     770:	6972622f 	ldmdbvs	r2!, {r0, r1, r2, r3, r5, r9, sp, lr}^
     774:	756a6e61 	strbvc	r6, [sl, #-3681]!	; 0xe61
     778:	65442f6e 	strbvs	r2, [r4, #-3950]	; 0xf6e
     77c:	6f746b73 	svcvs	0x00746b73
     780:	63732f70 	cmnvs	r3, #112, 30	; 0x1c0
     784:	6c6f6f68 	stclvs	15, cr6, [pc], #-416	; 5ec <_start-0x7a14>
     788:	6e69572f 	cdpvs	7, 6, cr5, cr9, cr15, {1}
     78c:	31726574 	cmncc	r2, r4, ror r5
     790:	2f303239 	svccs	0x00303239
     794:	34315343 	ldrtcc	r5, [r1], #-835	; 0x343
     798:	632f4530 	teqvs	pc, #48, 10	; 0xc000000
     79c:	30343173 	eorscc	r3, r4, r3, ror r1
     7a0:	30322d65 	eorscc	r2, r2, r5, ror #26
     7a4:	2f6e6977 	svccs	0x006e6977
     7a8:	7062696c 	rsbvc	r6, r2, ip, ror #18
     7ac:	63000069 	movwvs	r0, #105	; 0x69
     7b0:	72617473 	rsbvc	r7, r1, #1929379840	; 0x73000000
     7b4:	00632e74 	rsbeq	r2, r3, r4, ror lr
     7b8:	73000001 	movwvc	r0, #1
     7bc:	6e696474 	mcrvs	4, 3, r6, cr9, cr4, {3}
     7c0:	63672d74 	cmnvs	r7, #116, 26	; 0x1d00
     7c4:	00682e63 	rsbeq	r2, r8, r3, ror #28
     7c8:	73000002 	movwvc	r0, #2
     7cc:	61752d77 	cmnvs	r5, r7, ror sp
     7d0:	682e7472 	stmdavs	lr!, {r1, r4, r5, r6, sl, ip, sp, lr}
     7d4:	00000100 	andeq	r0, r0, r0, lsl #2
     7d8:	746e6f63 	strbtvc	r6, [lr], #-3939	; 0xf63
     7dc:	2d6c6f72 	stclcs	15, cr6, [ip, #-456]!	; 0xfffffe38
     7e0:	636f6c62 	cmnvs	pc, #25088	; 0x6200
     7e4:	00682e6b 	rsbeq	r2, r8, fp, ror #28
     7e8:	72000001 	andvc	r0, r0, #1
     7ec:	682e6970 	stmdavs	lr!, {r4, r5, r6, r8, fp, sp, lr}
     7f0:	00000300 	andeq	r0, r0, r0, lsl #6
     7f4:	02050000 	andeq	r0, r5, #0
     7f8:	00008878 	andeq	r8, r0, r8, ror r8
     7fc:	68684b17 	stmdavs	r8!, {r0, r1, r2, r4, r8, r9, fp, lr}^
     800:	2d2f3132 	stfcss	f3, [pc, #-200]!	; 740 <_start-0x78c0>
     804:	0402002f 	streq	r0, [r2], #-47	; 0x2f
     808:	2f4f4901 	svccs	0x004f4901
     80c:	8367674b 	cmnhi	r7, #19660800	; 0x12c0000
     810:	022f4e67 	eoreq	r4, pc, #1648	; 0x670
     814:	01010010 	tsteq	r1, r0, lsl r0
     818:	00000099 	muleq	r0, r9, r0
     81c:	00770002 	rsbseq	r0, r7, r2
     820:	01020000 	mrseq	r0, (UNDEF: 2)
     824:	000d0efb 	strdeq	r0, [sp], -fp
     828:	01010101 	tsteq	r1, r1, lsl #2
     82c:	01000000 	mrseq	r0, (UNDEF: 0)
     830:	63010000 	movwvs	r0, #4096	; 0x1000
     834:	30343173 	eorscc	r3, r4, r3, ror r1
     838:	72732d65 	rsbsvc	r2, r3, #6464	; 0x1940
     83c:	552f0063 	strpl	r0, [pc, #-99]!	; 7e1 <_start-0x781f>
     840:	73726573 	cmnvc	r2, #482344960	; 0x1cc00000
     844:	6972622f 	ldmdbvs	r2!, {r0, r1, r2, r3, r5, r9, sp, lr}^
     848:	756a6e61 	strbvc	r6, [sl, #-3681]!	; 0xe61
     84c:	65442f6e 	strbvs	r2, [r4, #-3950]	; 0xf6e
     850:	6f746b73 	svcvs	0x00746b73
     854:	63732f70 	cmnvs	r3, #112, 30	; 0x1c0
     858:	6c6f6f68 	stclvs	15, cr6, [pc], #-416	; 6c0 <_start-0x7940>
     85c:	6e69572f 	cdpvs	7, 6, cr5, cr9, cr15, {1}
     860:	31726574 	cmncc	r2, r4, ror r5
     864:	2f303239 	svccs	0x00303239
     868:	34315343 	ldrtcc	r5, [r1], #-835	; 0x343
     86c:	632f4530 	teqvs	pc, #48, 10	; 0xc000000
     870:	30343173 	eorscc	r3, r4, r3, ror r1
     874:	30322d65 	eorscc	r2, r2, r5, ror #26
     878:	2f6e6977 	svccs	0x006e6977
     87c:	7062696c 	rsbvc	r6, r2, ip, ror #18
     880:	72000069 	andvc	r0, r0, #105	; 0x69
     884:	6f6f6265 	svcvs	0x006f6265
     888:	00632e74 	rsbeq	r2, r3, r4, ror lr
     88c:	72000001 	andvc	r0, r0, #1
     890:	682e6970 	stmdavs	lr!, {r4, r5, r6, r8, fp, sp, lr}
     894:	00000200 	andeq	r0, r0, r0, lsl #4
     898:	02050000 	andeq	r0, r5, #0
     89c:	00008928 	andeq	r8, r0, r8, lsr #18
     8a0:	14010d03 	strne	r0, [r1], #-3331	; 0xd03
     8a4:	15852f31 	strne	r2, [r5, #3889]	; 0xf31
     8a8:	2f4d4b2f 	svccs	0x004d4b2f
     8ac:	67523567 	ldrbvs	r3, [r2, -r7, ror #10]
     8b0:	01001002 	tsteq	r0, r2
     8b4:	0000a301 	andeq	sl, r0, r1, lsl #6
     8b8:	76000200 	strvc	r0, [r0], -r0, lsl #4
     8bc:	02000000 	andeq	r0, r0, #0
     8c0:	0d0efb01 	vstreq	d15, [lr, #-4]
     8c4:	01010100 	mrseq	r0, (UNDEF: 17)
     8c8:	00000001 	andeq	r0, r0, r1
     8cc:	01000001 	tsteq	r0, r1
     8d0:	34317363 	ldrtcc	r7, [r1], #-867	; 0x363
     8d4:	732d6530 	teqvc	sp, #48, 10	; 0xc000000
     8d8:	2f006372 	svccs	0x00006372
     8dc:	72657355 	rsbvc	r7, r5, #1409286145	; 0x54000001
     8e0:	72622f73 	rsbvc	r2, r2, #460	; 0x1cc
     8e4:	6a6e6169 	bvs	1b98e90 <__bss_end__+0x1b8cfd0>
     8e8:	442f6e75 	strtmi	r6, [pc], #-3701	; 8f0 <_start-0x7710>
     8ec:	746b7365 	strbtvc	r7, [fp], #-869	; 0x365
     8f0:	732f706f 	teqvc	pc, #111	; 0x6f
     8f4:	6f6f6863 	svcvs	0x006f6863
     8f8:	69572f6c 	ldmdbvs	r7, {r2, r3, r5, r6, r8, r9, sl, fp, sp}^
     8fc:	7265746e 	rsbvc	r7, r5, #1845493760	; 0x6e000000
     900:	30323931 	eorscc	r3, r2, r1, lsr r9
     904:	3153432f 	cmpcc	r3, pc, lsr #6
     908:	2f453034 	svccs	0x00453034
     90c:	34317363 	ldrtcc	r7, [r1], #-867	; 0x363
     910:	322d6530 	eorcc	r6, sp, #48, 10	; 0xc000000
     914:	6e697730 	mcrvs	7, 3, r7, cr9, cr0, {1}
     918:	62696c2f 	rsbvs	r6, r9, #12032	; 0x2f00
     91c:	00006970 	andeq	r6, r0, r0, ror r9
     920:	656d6974 	strbvs	r6, [sp, #-2420]!	; 0x974
     924:	00632e72 	rsbeq	r2, r3, r2, ror lr
     928:	72000001 	andvc	r0, r0, #1
     92c:	682e6970 	stmdavs	lr!, {r4, r5, r6, r8, fp, sp, lr}
     930:	00000200 	andeq	r0, r0, r0, lsl #4
     934:	02050000 	andeq	r0, r5, #0
     938:	0000899c 	muleq	r0, ip, r9
     93c:	2d2f1316 	stccs	3, cr1, [pc, #-88]!	; 8ec <_start-0x7714>
     940:	01040200 	mrseq	r0, R12_usr
     944:	68062e06 	stmdavs	r6, {r1, r2, r9, sl, fp, sp}
     948:	4d4b2f31 	stclmi	15, cr2, [fp, #-196]	; 0xffffff3c
     94c:	4b303132 	blmi	c0ce1c <__bss_end__+0xc00f5c>
     950:	2f6a2f4c 	svccs	0x006a2f4c
     954:	022f842f 	eoreq	r8, pc, #788529152	; 0x2f000000
     958:	01010008 	tsteq	r1, r8
     95c:	00000188 	andeq	r0, r0, r8, lsl #3
     960:	00ca0002 	sbceq	r0, sl, r2
     964:	01020000 	mrseq	r0, (UNDEF: 2)
     968:	000d0efb 	strdeq	r0, [sp], -fp
     96c:	01010101 	tsteq	r1, r1, lsl #2
     970:	01000000 	mrseq	r0, (UNDEF: 0)
     974:	6d010000 	stcvs	0, cr0, [r1, #-0]
     978:	72732d79 	rsbsvc	r2, r3, #7744	; 0x1e40
     97c:	552f0063 	strpl	r0, [pc, #-99]!	; 921 <_start-0x76df>
     980:	73726573 	cmnvc	r2, #482344960	; 0x1cc00000
     984:	6972622f 	ldmdbvs	r2!, {r0, r1, r2, r3, r5, r9, sp, lr}^
     988:	756a6e61 	strbvc	r6, [sl, #-3681]!	; 0xe61
     98c:	65442f6e 	strbvs	r2, [r4, #-3950]	; 0xf6e
     990:	6f746b73 	svcvs	0x00746b73
     994:	63732f70 	cmnvs	r3, #112, 30	; 0x1c0
     998:	6c6f6f68 	stclvs	15, cr6, [pc], #-416	; 800 <_start-0x7800>
     99c:	6e69572f 	cdpvs	7, 6, cr5, cr9, cr15, {1}
     9a0:	31726574 	cmncc	r2, r4, ror r5
     9a4:	2f303239 	svccs	0x00303239
     9a8:	34315343 	ldrtcc	r5, [r1], #-835	; 0x343
     9ac:	632f4530 	teqvs	pc, #48, 10	; 0xc000000
     9b0:	30343173 	eorscc	r3, r4, r3, ror r1
     9b4:	30322d65 	eorscc	r2, r2, r5, ror #26
     9b8:	2f6e6977 	svccs	0x006e6977
     9bc:	7062696c 	rsbvc	r6, r2, ip, ror #18
     9c0:	73632f69 	cmnvc	r3, #420	; 0x1a4
     9c4:	65303431 	ldrvs	r3, [r0, #-1073]!	; 0x431
     9c8:	6372732d 	cmnvs	r2, #-1275068416	; 0xb4000000
     9cc:	73552f00 	cmpvc	r5, #0, 30
     9d0:	2f737265 	svccs	0x00737265
     9d4:	61697262 	cmnvs	r9, r2, ror #4
     9d8:	6e756a6e 	vsubvs.f32	s13, s10, s29
     9dc:	7365442f 	cmnvc	r5, #788529152	; 0x2f000000
     9e0:	706f746b 	rsbvc	r7, pc, fp, ror #8
     9e4:	6863732f 	stmdavs	r3!, {r0, r1, r2, r3, r5, r8, r9, ip, sp, lr}^
     9e8:	2f6c6f6f 	svccs	0x006c6f6f
     9ec:	746e6957 	strbtvc	r6, [lr], #-2391	; 0x957
     9f0:	39317265 	ldmdbcc	r1!, {r0, r2, r5, r6, r9, ip, sp, lr}
     9f4:	432f3032 	teqmi	pc, #50	; 0x32
     9f8:	30343153 	eorscc	r3, r4, r3, asr r1
     9fc:	73632f45 	cmnvc	r3, #276	; 0x114
     a00:	65303431 	ldrvs	r3, [r0, #-1073]!	; 0x431
     a04:	7730322d 	ldrvc	r3, [r0, -sp, lsr #4]!
     a08:	6c2f6e69 	stcvs	14, cr6, [pc], #-420	; 86c <_start-0x7794>
     a0c:	69706269 	ldmdbvs	r0!, {r0, r3, r5, r6, r9, sp, lr}^
     a10:	70670000 	rsbvc	r0, r7, r0
     a14:	632e6f69 	teqvs	lr, #420	; 0x1a4
     a18:	00000100 	andeq	r0, r0, r0, lsl #2
     a1c:	6f697067 	svcvs	0x00697067
     a20:	0200682e 	andeq	r6, r0, #3014656	; 0x2e0000
     a24:	70720000 	rsbsvc	r0, r2, r0
     a28:	00682e69 	rsbeq	r2, r8, r9, ror #28
     a2c:	00000003 	andeq	r0, r0, r3
     a30:	24020500 	strcs	r0, [r2], #-1280	; 0x500
     a34:	0300008a 	movweq	r0, #138	; 0x8a
     a38:	504e013e 	subpl	r0, lr, lr, lsr r1
     a3c:	67210869 	strvs	r0, [r1, -r9, ror #16]!
     a40:	67676767 	strbvs	r6, [r7, -r7, ror #14]!
     a44:	084b3267 	stmdaeq	fp, {r0, r1, r2, r5, r6, r9, ip, sp}^
     a48:	5131dc22 	teqpl	r1, r2, lsr #24
     a4c:	30504e13 	subscc	r4, r0, r3, lsl lr
     a50:	135031be 	cmpne	r0, #-2147483601	; 0x8000002f
     a54:	c0304f4d 	eorsgt	r4, r0, sp, asr #30
     a58:	0869504c 	stmdaeq	r9!, {r2, r3, r6, ip, lr}^
     a5c:	67676721 	strbvs	r6, [r7, -r1, lsr #14]!
     a60:	32676767 	rsbcc	r6, r7, #27000832	; 0x19c0000
     a64:	a421084b 	strtge	r0, [r1], #-2123	; 0x84b
     a68:	842f504c 	strthi	r5, [pc], #-76	; a70 <_start-0x7590>
     a6c:	82750369 	rsbshi	r0, r5, #-1543503871	; 0xa4000001
     a70:	4d2e0c03 	stcmi	12, cr0, [lr, #-12]!
     a74:	98034e30 	stmdals	r3, {r4, r5, r9, sl, fp, lr}
     a78:	13514a7f 	cmpne	r1, #520192	; 0x7f000
     a7c:	a530504e 	ldrge	r5, [r0, #-78]!	; 0x4e
     a80:	4f4d1350 	svcmi	0x004d1350
     a84:	00c20330 	sbceq	r0, r2, r0, lsr r3
     a88:	696b6aba 	stmdbvs	fp!, {r1, r3, r4, r5, r7, r9, fp, sp, lr}^
     a8c:	67672108 	strbvs	r2, [r7, -r8, lsl #2]!
     a90:	67676767 	strbvs	r6, [r7, -r7, ror #14]!
     a94:	22084b32 	andcs	r4, r8, #51200	; 0xc800
     a98:	31ba1a03 			; <UNDEFINED> instruction: 0x31ba1a03
     a9c:	522f4c9f 	eorpl	r4, pc, #40704	; 0x9f00
     aa0:	4b2f4e4d 	blmi	bd43dc <__bss_end__+0xbc851c>
     aa4:	67684b67 	strbvs	r4, [r8, -r7, ror #22]!
     aa8:	672f4c67 	strvs	r4, [pc, -r7, ror #24]!
     aac:	4c6e4b2f 	stclmi	11, cr4, [lr], #-188	; 0xffffff44
     ab0:	674b2f4e 	strbvs	r2, [fp, -lr, asr #30]
     ab4:	6767684b 	strbvs	r6, [r7, -fp, asr #16]!
     ab8:	2f672f4c 	svccs	0x00672f4c
     abc:	4e4b6d4b 	cdpmi	13, 4, cr6, cr11, cr11, {2}
     ac0:	00674b2f 	rsbeq	r4, r7, pc, lsr #22
     ac4:	06010402 	streq	r0, [r1], -r2, lsl #8
     ac8:	9f680666 	svcls	0x00680666
     acc:	0402002f 	streq	r0, [r2], #-47	; 0x2f
     ad0:	064a0601 	strbeq	r0, [sl], -r1, lsl #12
     ad4:	73032f68 	movwvc	r2, #16232	; 0x3f68
     ad8:	2e0e034a 	cdpcs	3, 0, cr0, cr14, cr10, {2}
     adc:	2f4e4c4d 	svccs	0x004e4c4d
     ae0:	02bcbc4b 	adcseq	fp, ip, #19200	; 0x4b00
     ae4:	01010006 	tsteq	r1, r6
     ae8:	00000345 	andeq	r0, r0, r5, asr #6
     aec:	01bd0002 			; <UNDEFINED> instruction: 0x01bd0002
     af0:	01020000 	mrseq	r0, (UNDEF: 2)
     af4:	000d0efb 	strdeq	r0, [sp], -fp
     af8:	01010101 	tsteq	r1, r1, lsl #2
     afc:	01000000 	mrseq	r0, (UNDEF: 0)
     b00:	6d010000 	stcvs	0, cr0, [r1, #-0]
     b04:	72732d79 	rsbsvc	r2, r3, #7744	; 0x1e40
     b08:	552f0063 	strpl	r0, [pc, #-99]!	; aad <_start-0x7553>
     b0c:	73726573 	cmnvc	r2, #482344960	; 0x1cc00000
     b10:	6972622f 	ldmdbvs	r2!, {r0, r1, r2, r3, r5, r9, sp, lr}^
     b14:	756a6e61 	strbvc	r6, [sl, #-3681]!	; 0xe61
     b18:	65442f6e 	strbvs	r2, [r4, #-3950]	; 0xf6e
     b1c:	6f746b73 	svcvs	0x00746b73
     b20:	63732f70 	cmnvs	r3, #112, 30	; 0x1c0
     b24:	6c6f6f68 	stclvs	15, cr6, [pc], #-416	; 98c <_start-0x7674>
     b28:	6e69572f 	cdpvs	7, 6, cr5, cr9, cr15, {1}
     b2c:	31726574 	cmncc	r2, r4, ror r5
     b30:	2f303239 	svccs	0x00303239
     b34:	34315343 	ldrtcc	r5, [r1], #-835	; 0x343
     b38:	632f4530 	teqvs	pc, #48, 10	; 0xc000000
     b3c:	30343173 	eorscc	r3, r4, r3, ror r1
     b40:	30322d65 	eorscc	r2, r2, r5, ror #26
     b44:	2f6e6977 	svccs	0x006e6977
     b48:	7062696c 	rsbvc	r6, r2, ip, ror #18
     b4c:	73632f69 	cmnvc	r3, #420	; 0x1a4
     b50:	65303431 	ldrvs	r3, [r0, #-1073]!	; 0x431
     b54:	6372732d 	cmnvs	r2, #-1275068416	; 0xb4000000
     b58:	73752f00 	cmnvc	r5, #0, 30
     b5c:	6f6c2f72 	svcvs	0x006c2f72
     b60:	2f6c6163 	svccs	0x006c6163
     b64:	6c6c6543 	cfstr64vs	mvdx6, [ip], #-268	; 0xfffffef4
     b68:	612f7261 	teqvs	pc, r1, ror #4
     b6c:	6e2d6d72 	mcrvs	13, 1, r6, cr13, cr2, {3}
     b70:	2d656e6f 	stclcs	14, cr6, [r5, #-444]!	; 0xfffffe44
     b74:	69626165 	stmdbvs	r2!, {r0, r2, r5, r6, r8, sp, lr}^
     b78:	382e342f 	stmdacc	lr!, {r0, r1, r2, r3, r5, sl, ip, sp}
     b7c:	632d332e 	teqvs	sp, #-1207959552	; 0xb8000000
     b80:	30373173 	eorscc	r3, r7, r3, ror r1
     b84:	696c2f65 	stmdbvs	ip!, {r0, r2, r5, r6, r8, r9, sl, fp, sp}^
     b88:	63672f62 	cmnvs	r7, #392	; 0x188
     b8c:	72612f63 	rsbvc	r2, r1, #396	; 0x18c
     b90:	6f6e2d6d 	svcvs	0x006e2d6d
     b94:	652d656e 	strvs	r6, [sp, #-1390]!	; 0x56e
     b98:	2f696261 	svccs	0x00696261
     b9c:	2e382e34 	mrccs	14, 1, r2, cr8, cr4, {1}
     ba0:	6e692f33 	mcrvs	15, 3, r2, cr9, cr3, {1}
     ba4:	64756c63 	ldrbtvs	r6, [r5], #-3171	; 0xc63
     ba8:	552f0065 	strpl	r0, [pc, #-101]!	; b4b <_start-0x74b5>
     bac:	73726573 	cmnvc	r2, #482344960	; 0x1cc00000
     bb0:	6972622f 	ldmdbvs	r2!, {r0, r1, r2, r3, r5, r9, sp, lr}^
     bb4:	756a6e61 	strbvc	r6, [sl, #-3681]!	; 0xe61
     bb8:	65442f6e 	strbvs	r2, [r4, #-3950]	; 0xf6e
     bbc:	6f746b73 	svcvs	0x00746b73
     bc0:	63732f70 	cmnvs	r3, #112, 30	; 0x1c0
     bc4:	6c6f6f68 	stclvs	15, cr6, [pc], #-416	; a2c <_start-0x75d4>
     bc8:	6e69572f 	cdpvs	7, 6, cr5, cr9, cr15, {1}
     bcc:	31726574 	cmncc	r2, r4, ror r5
     bd0:	2f303239 	svccs	0x00303239
     bd4:	34315343 	ldrtcc	r5, [r1], #-835	; 0x343
     bd8:	632f4530 	teqvs	pc, #48, 10	; 0xc000000
     bdc:	30343173 	eorscc	r3, r4, r3, ror r1
     be0:	30322d65 	eorscc	r2, r2, r5, ror #26
     be4:	2f6e6977 	svccs	0x006e6977
     be8:	7062696c 	rsbvc	r6, r2, ip, ror #18
     bec:	552f0069 	strpl	r0, [pc, #-105]!	; b8b <_start-0x7475>
     bf0:	73726573 	cmnvc	r2, #482344960	; 0x1cc00000
     bf4:	6972622f 	ldmdbvs	r2!, {r0, r1, r2, r3, r5, r9, sp, lr}^
     bf8:	756a6e61 	strbvc	r6, [sl, #-3681]!	; 0xe61
     bfc:	65442f6e 	strbvs	r2, [r4, #-3950]	; 0xf6e
     c00:	6f746b73 	svcvs	0x00746b73
     c04:	63732f70 	cmnvs	r3, #112, 30	; 0x1c0
     c08:	6c6f6f68 	stclvs	15, cr6, [pc], #-416	; a70 <_start-0x7590>
     c0c:	6e69572f 	cdpvs	7, 6, cr5, cr9, cr15, {1}
     c10:	31726574 	cmncc	r2, r4, ror r5
     c14:	2f303239 	svccs	0x00303239
     c18:	34315343 	ldrtcc	r5, [r1], #-835	; 0x343
     c1c:	632f4530 	teqvs	pc, #48, 10	; 0xc000000
     c20:	30343173 	eorscc	r3, r4, r3, ror r1
     c24:	30322d65 	eorscc	r2, r2, r5, ror #26
     c28:	2f6e6977 	svccs	0x006e6977
     c2c:	7062696c 	rsbvc	r6, r2, ip, ror #18
     c30:	696c2f69 	stmdbvs	ip!, {r0, r3, r5, r6, r8, r9, sl, fp, sp}^
     c34:	00006362 	andeq	r6, r0, r2, ror #6
     c38:	752d7773 	strvc	r7, [sp, #-1907]!	; 0x773
     c3c:	2e747261 	cdpcs	2, 7, cr7, cr4, cr1, {3}
     c40:	00010063 	andeq	r0, r1, r3, rrx
     c44:	63796300 	cmnvs	r9, #0, 6
     c48:	752d656c 	strvc	r6, [sp, #-1388]!	; 0x56c
     c4c:	2e6c6974 	mcrcs	9, 3, r6, cr12, cr4, {3}
     c50:	00020068 	andeq	r0, r2, r8, rrx
     c54:	64747300 	ldrbtvs	r7, [r4], #-768	; 0x300
     c58:	2d746e69 	ldclcs	14, cr6, [r4, #-420]!	; 0xfffffe5c
     c5c:	2e636367 	cdpcs	3, 6, cr6, cr3, cr7, {3}
     c60:	00030068 	andeq	r0, r3, r8, rrx
     c64:	2d777300 	ldclcs	3, cr7, [r7, #-0]
     c68:	74726175 	ldrbtvc	r6, [r2], #-373	; 0x175
     c6c:	0200682e 	andeq	r6, r0, #3014656	; 0x2e0000
     c70:	74730000 	ldrbtvc	r0, [r3], #-0
     c74:	67726164 	ldrbvs	r6, [r2, -r4, ror #2]!
     c78:	0300682e 	movweq	r6, #2094	; 0x82e
     c7c:	70670000 	rsbvc	r0, r7, r0
     c80:	682e6f69 	stmdavs	lr!, {r0, r3, r5, r6, r8, r9, sl, fp, sp, lr}
     c84:	00000200 	andeq	r0, r0, r0, lsl #4
     c88:	2e697072 	mcrcs	0, 3, r7, cr9, cr2, {3}
     c8c:	00040068 	andeq	r0, r4, r8, rrx
     c90:	2d617600 	stclcs	6, cr7, [r1, #-0]
     c94:	6e697270 	mcrvs	2, 3, r7, cr9, cr0, {3}
     c98:	682e6b74 	stmdavs	lr!, {r2, r4, r5, r6, r8, r9, fp, sp, lr}
     c9c:	00000500 	andeq	r0, r0, r0, lsl #10
     ca0:	6975623c 	ldmdbvs	r5!, {r2, r3, r4, r5, r9, sp, lr}^
     ca4:	692d746c 	pushvs	{r2, r3, r5, r6, sl, ip, sp, lr}
     ca8:	00003e6e 	andeq	r3, r0, lr, ror #28
     cac:	00000000 	andeq	r0, r0, r0
     cb0:	8fe00205 	svchi	0x00e00205
     cb4:	4c1a0000 	ldcmi	0, cr0, [sl], {-0}
     cb8:	0204302f 	andeq	r3, r4, #47	; 0x2f
     cbc:	032e0b03 	teqeq	lr, #3072	; 0xc00
     cc0:	01046673 	tsteq	r4, r3, ror r6
     cc4:	35020488 	strcc	r0, [r2, #-1160]	; 0x488
     cc8:	04667303 	strbteq	r7, [r6], #-771	; 0x303
     ccc:	02048a01 	andeq	r8, r4, #4096	; 0x1000
     cd0:	66730333 			; <UNDEFINED> instruction: 0x66730333
     cd4:	0a030104 	beq	c10ec <__bss_end__+0xb522c>
     cd8:	31020482 	smlabbcc	r2, r2, r4, r0
     cdc:	04667303 	strbteq	r7, [r6], #-771	; 0x303
     ce0:	820c0301 	andhi	r0, ip, #67108864	; 0x4000000
     ce4:	032f0204 	teqeq	pc, #4, 4	; 0x40000000
     ce8:	01046673 	tsteq	r4, r3, ror r6
     cec:	04820e03 	streq	r0, [r2], #3587	; 0xe03
     cf0:	73032d02 	movwvc	r2, #15618	; 0x3d02
     cf4:	03010466 	movweq	r0, #5222	; 0x1466
     cf8:	02048210 	andeq	r8, r4, #16, 4
     cfc:	6673032b 	ldrbtvs	r0, [r3], -fp, lsr #6
     d00:	12030104 	andne	r0, r3, #4, 2
     d04:	29020482 	stmdbcs	r2, {r1, r7, sl}
     d08:	04667303 	strbteq	r7, [r6], #-771	; 0x303
     d0c:	82140301 	andshi	r0, r4, #67108864	; 0x4000000
     d10:	79030204 	stmdbvc	r3, {r2, r9}
     d14:	6673032e 	ldrbtvs	r0, [r3], -lr, lsr #6
     d18:	16030104 	strne	r0, [r3], -r4, lsl #2
     d1c:	03020482 	movweq	r0, #9346	; 0x2482
     d20:	73032e77 	movwvc	r2, #15991	; 0x3e77
     d24:	03010466 	movweq	r0, #5222	; 0x1466
     d28:	10038218 	andne	r8, r3, r8, lsl r2
     d2c:	034d4b2e 	movteq	r4, #56110	; 0xdb2e
     d30:	844c2e70 	strbhi	r2, [ip], #-3696	; 0xe70
     d34:	0d034883 	stceq	8, cr4, [r3, #-524]	; 0xfffffdf4
     d38:	33314e2e 	teqcc	r1, #736	; 0x2e0
     d3c:	48030204 	stmdami	r3, {r2, r9}
     d40:	0301042e 	movweq	r0, #5166	; 0x142e
     d44:	042f823a 	strteq	r8, [pc], #-570	; d4c <_start-0x72b4>
     d48:	66450302 	strbvs	r0, [r5], -r2, lsl #6
     d4c:	3d030104 	stfccs	f0, [r3, #-16]
     d50:	02042f82 	andeq	r2, r4, #520	; 0x208
     d54:	04824203 	streq	r4, [r2], #515	; 0x203
     d58:	00c00301 	sbceq	r0, r0, r1, lsl #6
     d5c:	02042f82 	andeq	r2, r4, #520	; 0x208
     d60:	827fbf03 	rsbshi	fp, pc, #3, 30
     d64:	c3030104 	movwgt	r0, #12548	; 0x3104
     d68:	042f8200 	strteq	r8, [pc], #-512	; d70 <_start-0x7290>
     d6c:	7fbc0302 	svcvc	0x00bc0302
     d70:	03010482 	movweq	r0, #5250	; 0x1482
     d74:	2f8200c6 	svccs	0x008200c6
     d78:	b9030204 	stmdblt	r3, {r2, r9}
     d7c:	0104827f 	tsteq	r4, pc, ror r2
     d80:	8200c903 	andhi	ip, r0, #49152	; 0xc000
     d84:	0302042f 	movweq	r0, #9263	; 0x242f
     d88:	04827fb6 	streq	r7, [r2], #4022	; 0xfb6
     d8c:	00cc0301 	sbceq	r0, ip, r1, lsl #6
     d90:	02042f82 	andeq	r2, r4, #520	; 0x208
     d94:	827fb303 	rsbshi	fp, pc, #201326592	; 0xc000000
     d98:	d0030104 	andle	r0, r3, r4, lsl #2
     d9c:	4c038200 	sfmmi	f0, 1, [r3], {-0}
     da0:	83844c82 	orrhi	r4, r4, #33280	; 0x8200
     da4:	2e360348 	cdpcs	3, 3, cr0, cr6, cr8, {2}
     da8:	4a54034e 	bmi	1501ae8 <__bss_end__+0x14f5c28>
     dac:	324a2903 	subcc	r2, sl, #49152	; 0xc000
     db0:	02009f34 	andeq	r9, r0, #52, 30	; 0xd0
     db4:	4a060104 	bmi	1811cc <__bss_end__+0x17530c>
     db8:	4b4ed706 	blmi	13b69d8 <__bss_end__+0x13aab18>
     dbc:	02002cbb 	andeq	r2, r0, #47872	; 0xbb00
     dc0:	2e060104 	adfcss	f0, f6, f4
     dc4:	a44c6d06 	strbge	r6, [ip], #-3334	; 0xd06
     dc8:	04020084 	streq	r0, [r2], #-132	; 0x84
     dcc:	064a0601 	strbeq	r0, [sl], -r1, lsl #12
     dd0:	02004dd7 	andeq	r4, r0, #13760	; 0x35c0
     dd4:	004b0204 	subeq	r0, fp, r4, lsl #4
     dd8:	81020402 	tsthi	r2, r2, lsl #8
     ddc:	01040200 	mrseq	r0, R12_usr
     de0:	4d062e06 	stcmi	14, cr2, [r6, #-24]	; 0xffffffe8
     de4:	4bbca54c 	blmi	fef2a31c <__bss_end__+0xfef1e45c>
     de8:	2f6a4b4b 	svccs	0x006a4b4b
     dec:	01040200 	mrseq	r0, R12_usr
     df0:	00828206 	addeq	r8, r2, r6, lsl #4
     df4:	9e040402 	cdpls	4, 0, cr0, cr4, cr2, {0}
     df8:	01040200 	mrseq	r0, R12_usr
     dfc:	88d9064a 	ldmhi	r9, {r1, r3, r6, r9, sl}^
     e00:	4b4b2fbd 	blmi	12cccfc <__bss_end__+0x12c0e3c>
     e04:	00674008 	rsbeq	r4, r7, r8
     e08:	2f020402 	svccs	0x00020402
     e0c:	02040200 	andeq	r0, r4, #0, 4
     e10:	04020049 	streq	r0, [r2], #-73	; 0x49
     e14:	062e0601 	strteq	r0, [lr], -r1, lsl #12
     e18:	4b863468 	blmi	fe18dfc0 <__bss_end__+0xfe182100>
     e1c:	040200a0 	streq	r0, [r2], #-160	; 0xa0
     e20:	06660601 	strbteq	r0, [r6], -r1, lsl #12
     e24:	220868d7 	andcs	r6, r8, #14090240	; 0xd70000
     e28:	d84b674b 	stmdale	fp, {r0, r1, r3, r6, r8, r9, sl, sp, lr}^
     e2c:	01000a02 	tsteq	r0, r2, lsl #20
     e30:	00010101 	andeq	r0, r1, r1, lsl #2
     e34:	ca000200 	bgt	163c <_start-0x69c4>
     e38:	02000000 	andeq	r0, r0, #0
     e3c:	0d0efb01 	vstreq	d15, [lr, #-4]
     e40:	01010100 	mrseq	r0, (UNDEF: 17)
     e44:	00000001 	andeq	r0, r0, r1
     e48:	01000001 	tsteq	r0, r1
     e4c:	732d796d 	teqvc	sp, #1785856	; 0x1b4000
     e50:	2f006372 	svccs	0x00006372
     e54:	72657355 	rsbvc	r7, r5, #1409286145	; 0x54000001
     e58:	72622f73 	rsbvc	r2, r2, #460	; 0x1cc
     e5c:	6a6e6169 	bvs	1b99408 <__bss_end__+0x1b8d548>
     e60:	442f6e75 	strtmi	r6, [pc], #-3701	; e68 <_start-0x7198>
     e64:	746b7365 	strbtvc	r7, [fp], #-869	; 0x365
     e68:	732f706f 	teqvc	pc, #111	; 0x6f
     e6c:	6f6f6863 	svcvs	0x006f6863
     e70:	69572f6c 	ldmdbvs	r7, {r2, r3, r5, r6, r8, r9, sl, fp, sp}^
     e74:	7265746e 	rsbvc	r7, r5, #1845493760	; 0x6e000000
     e78:	30323931 	eorscc	r3, r2, r1, lsr r9
     e7c:	3153432f 	cmpcc	r3, pc, lsr #6
     e80:	2f453034 	svccs	0x00453034
     e84:	34317363 	ldrtcc	r7, [r1], #-867	; 0x363
     e88:	322d6530 	eorcc	r6, sp, #48, 10	; 0xc000000
     e8c:	6e697730 	mcrvs	7, 3, r7, cr9, cr0, {1}
     e90:	62696c2f 	rsbvs	r6, r9, #12032	; 0x2f00
     e94:	632f6970 	teqvs	pc, #112, 18	; 0x1c0000
     e98:	30343173 	eorscc	r3, r4, r3, ror r1
     e9c:	72732d65 	rsbsvc	r2, r3, #6464	; 0x1940
     ea0:	552f0063 	strpl	r0, [pc, #-99]!	; e45 <_start-0x71bb>
     ea4:	73726573 	cmnvc	r2, #482344960	; 0x1cc00000
     ea8:	6972622f 	ldmdbvs	r2!, {r0, r1, r2, r3, r5, r9, sp, lr}^
     eac:	756a6e61 	strbvc	r6, [sl, #-3681]!	; 0xe61
     eb0:	65442f6e 	strbvs	r2, [r4, #-3950]	; 0xf6e
     eb4:	6f746b73 	svcvs	0x00746b73
     eb8:	63732f70 	cmnvs	r3, #112, 30	; 0x1c0
     ebc:	6c6f6f68 	stclvs	15, cr6, [pc], #-416	; d24 <_start-0x72dc>
     ec0:	6e69572f 	cdpvs	7, 6, cr5, cr9, cr15, {1}
     ec4:	31726574 	cmncc	r2, r4, ror r5
     ec8:	2f303239 	svccs	0x00303239
     ecc:	34315343 	ldrtcc	r5, [r1], #-835	; 0x343
     ed0:	632f4530 	teqvs	pc, #48, 10	; 0xc000000
     ed4:	30343173 	eorscc	r3, r4, r3, ror r1
     ed8:	30322d65 	eorscc	r2, r2, r5, ror #26
     edc:	2f6e6977 	svccs	0x006e6977
     ee0:	7062696c 	rsbvc	r6, r2, ip, ror #18
     ee4:	75000069 	strvc	r0, [r0, #-105]	; 0x69
     ee8:	2e747261 	cdpcs	2, 7, cr7, cr4, cr1, {3}
     eec:	00010063 	andeq	r0, r1, r3, rrx
     ef0:	69706700 	ldmdbvs	r0!, {r8, r9, sl, sp, lr}^
     ef4:	00682e6f 	rsbeq	r2, r8, pc, ror #28
     ef8:	72000002 	andvc	r0, r0, #2
     efc:	682e6970 	stmdavs	lr!, {r4, r5, r6, r8, fp, sp, lr}
     f00:	00000300 	andeq	r0, r0, r0, lsl #6
     f04:	02050000 	andeq	r0, r5, #0
     f08:	00009600 	andeq	r9, r0, r0, lsl #12
     f0c:	30013603 	andcc	r3, r1, r3, lsl #12
     f10:	306d6733 	rsbcc	r6, sp, r3, lsr r7
     f14:	676730d8 			; <UNDEFINED> instruction: 0x676730d8
     f18:	68676767 	stmdavs	r7!, {r0, r1, r2, r5, r6, r8, r9, sl, sp, lr}^
     f1c:	6a672f86 	bvs	19ccd3c <__bss_end__+0x19c0e7c>
     f20:	69676730 	stmdbvs	r7!, {r4, r5, r8, r9, sl, sp, lr}^
     f24:	4c6a672f 	stclmi	7, cr6, [sl], #-188	; 0xffffff44
     f28:	2f2fc167 	svccs	0x002fc167
     f2c:	49682f30 	stmdbmi	r8!, {r4, r5, r8, r9, sl, fp, sp}^
     f30:	00020230 	andeq	r0, r2, r0, lsr r2
     f34:	00d60101 	sbcseq	r0, r6, r1, lsl #2
     f38:	00020000 	andeq	r0, r2, r0
     f3c:	00000097 	muleq	r0, r7, r0
     f40:	0efb0102 	cdpeq	1, 15, cr0, cr11, cr2, {0}
     f44:	0101000d 	tsteq	r1, sp
     f48:	00000101 	andeq	r0, r0, r1, lsl #2
     f4c:	00000100 	andeq	r0, r0, r0, lsl #2
     f50:	31736301 	cmncc	r3, r1, lsl #6
     f54:	2d653034 	stclcs	0, cr3, [r5, #-208]!	; 0xffffff30
     f58:	65746e69 	ldrbvs	r6, [r4, #-3689]!	; 0xe69
     f5c:	70757272 	rsbsvc	r7, r5, r2, ror r2
     f60:	552f0074 	strpl	r0, [pc, #-116]!	; ef4 <_start-0x710c>
     f64:	73726573 	cmnvc	r2, #482344960	; 0x1cc00000
     f68:	6972622f 	ldmdbvs	r2!, {r0, r1, r2, r3, r5, r9, sp, lr}^
     f6c:	756a6e61 	strbvc	r6, [sl, #-3681]!	; 0xe61
     f70:	65442f6e 	strbvs	r2, [r4, #-3950]	; 0xf6e
     f74:	6f746b73 	svcvs	0x00746b73
     f78:	63732f70 	cmnvs	r3, #112, 30	; 0x1c0
     f7c:	6c6f6f68 	stclvs	15, cr6, [pc], #-416	; de4 <_start-0x721c>
     f80:	6e69572f 	cdpvs	7, 6, cr5, cr9, cr15, {1}
     f84:	31726574 	cmncc	r2, r4, ror r5
     f88:	2f303239 	svccs	0x00303239
     f8c:	34315343 	ldrtcc	r5, [r1], #-835	; 0x343
     f90:	632f4530 	teqvs	pc, #48, 10	; 0xc000000
     f94:	30343173 	eorscc	r3, r4, r3, ror r1
     f98:	30322d65 	eorscc	r2, r2, r5, ror #26
     f9c:	2f6e6977 	svccs	0x006e6977
     fa0:	7062696c 	rsbvc	r6, r2, ip, ror #18
     fa4:	69000069 	stmdbvs	r0, {r0, r3, r5, r6}
     fa8:	7265746e 	rsbvc	r7, r5, #1845493760	; 0x6e000000
     fac:	74707572 	ldrbtvc	r7, [r0], #-1394	; 0x572
     fb0:	2e632d73 	mcrcs	13, 3, r2, cr3, cr3, {3}
     fb4:	00010063 	andeq	r0, r1, r3, rrx
     fb8:	69707200 	ldmdbvs	r0!, {r9, ip, sp, lr}^
     fbc:	0200682e 	andeq	r6, r0, #3014656	; 0x2e0000
     fc0:	70720000 	rsbsvc	r0, r2, r0
     fc4:	6e692d69 	cdpvs	13, 6, cr2, cr9, cr9, {3}
     fc8:	72726574 	rsbsvc	r6, r2, #116, 10	; 0x1d000000
     fcc:	73747075 	cmnvc	r4, #117	; 0x75
     fd0:	0100682e 	tsteq	r0, lr, lsr #16
     fd4:	00000000 	andeq	r0, r0, r0
     fd8:	97540205 	ldrbls	r0, [r4, -r5, lsl #4]
     fdc:	31160000 	tstcc	r6, r0
     fe0:	0e036767 	cdpeq	7, 0, cr6, cr3, cr7, {3}
     fe4:	2d2f832e 	stccs	3, cr8, [pc, #-184]!	; f34 <_start-0x70cc>
     fe8:	02040200 	andeq	r0, r4, #0, 4
     fec:	0402002f 	streq	r0, [r2], #-47	; 0x2f
     ff0:	02006502 	andeq	r6, r0, #8388608	; 0x800000
     ff4:	2e060104 	adfcss	f0, f6, f4
     ff8:	67a24c06 	strvs	r4, [r2, r6, lsl #24]!
     ffc:	0867b008 	stmdaeq	r7!, {r3, ip, sp, pc}^
    1000:	ae0867ae 	cdpge	7, 0, cr6, cr8, cr14, {5}
    1004:	67ae0867 	strvs	r0, [lr, r7, ror #16]!
    1008:	0267ae08 	rsbeq	sl, r7, #8, 28	; 0x80
    100c:	0101001c 	tsteq	r1, ip, lsl r0
    1010:	00000384 	andeq	r0, r0, r4, lsl #7
    1014:	01b90002 			; <UNDEFINED> instruction: 0x01b90002
    1018:	01020000 	mrseq	r0, (UNDEF: 2)
    101c:	000d0efb 	strdeq	r0, [sp], -fp
    1020:	01010101 	tsteq	r1, r1, lsl #2
    1024:	01000000 	mrseq	r0, (UNDEF: 0)
    1028:	2f010000 	svccs	0x00010000
    102c:	656d6f68 	strbvs	r6, [sp, #-3944]!	; 0xf68
    1030:	676e652f 	strbvs	r6, [lr, -pc, lsr #10]!
    1034:	2f72656c 	svccs	0x0072656c
    1038:	73616c63 	cmnvc	r1, #25344	; 0x6300
    103c:	73632f73 	cmnvc	r3, #460	; 0x1cc
    1040:	65303431 	ldrvs	r3, [r0, #-1073]!	; 0x431
    1044:	7730322d 	ldrvc	r3, [r0, -sp, lsr #4]!
    1048:	6c2f6e69 	stcvs	14, cr6, [pc], #-420	; eac <_start-0x7154>
    104c:	69706269 	ldmdbvs	r0!, {r0, r3, r5, r6, r9, sp, lr}^
    1050:	62696c2f 	rsbvs	r6, r9, #12032	; 0x2f00
    1054:	682f0063 	stmdavs	pc!, {r0, r1, r5, r6}	; <UNPREDICTABLE>
    1058:	2f656d6f 	svccs	0x00656d6f
    105c:	6c676e65 	stclvs	14, cr6, [r7], #-404	; 0xfffffe6c
    1060:	632f7265 	teqvs	pc, #1342177286	; 0x50000006
    1064:	7373616c 	cmnvc	r3, #108, 2
    1068:	3173632f 	cmncc	r3, pc, lsr #6
    106c:	2d653034 	stclcs	0, cr3, [r5, #-208]!	; 0xffffff30
    1070:	69773032 	ldmdbvs	r7!, {r1, r4, r5, ip, sp}^
    1074:	696c2f6e 	stmdbvs	ip!, {r1, r2, r3, r5, r6, r8, r9, sl, fp, sp}^
    1078:	2f697062 	svccs	0x00697062
    107c:	34317363 	ldrtcc	r7, [r1], #-867	; 0x363
    1080:	692d6530 	pushvs	{r4, r5, r8, sl, sp, lr}
    1084:	7265746e 	rsbvc	r7, r5, #1845493760	; 0x6e000000
    1088:	74707572 	ldrbtvc	r7, [r0], #-1394	; 0x572
    108c:	73752f00 	cmnvc	r5, #0, 30
    1090:	72612f72 	rsbvc	r2, r1, #456	; 0x1c8
    1094:	6f6e2d6d 	svcvs	0x006e2d6d
    1098:	652d656e 	strvs	r6, [sp, #-1390]!	; 0x56e
    109c:	2f696261 	svccs	0x00696261
    10a0:	6c636e69 	stclvs	14, cr6, [r3], #-420	; 0xfffffe5c
    10a4:	2f656475 	svccs	0x00656475
    10a8:	00737973 	rsbseq	r7, r3, r3, ror r9
    10ac:	7273752f 	rsbsvc	r7, r3, #197132288	; 0xbc00000
    10b0:	62696c2f 	rsbvs	r6, r9, #12032	; 0x2f00
    10b4:	6363672f 	cmnvs	r3, #12320768	; 0xbc0000
    10b8:	6d72612f 	ldfvse	f6, [r2, #-188]!	; 0xffffff44
    10bc:	6e6f6e2d 	cdpvs	14, 6, cr6, cr15, cr13, {1}
    10c0:	61652d65 	cmnvs	r5, r5, ror #26
    10c4:	372f6962 	strcc	r6, [pc, -r2, ror #18]!
    10c8:	312e332e 	teqcc	lr, lr, lsr #6
    10cc:	636e692f 	cmnvs	lr, #770048	; 0xbc000
    10d0:	6564756c 	strbvs	r7, [r4, #-1388]!	; 0x56c
    10d4:	6f682f00 	svcvs	0x00682f00
    10d8:	652f656d 	strvs	r6, [pc, #-1389]!	; b73 <_start-0x748d>
    10dc:	656c676e 	strbvs	r6, [ip, #-1902]!	; 0x76e
    10e0:	6c632f72 	stclvs	15, cr2, [r3], #-456	; 0xfffffe38
    10e4:	2f737361 	svccs	0x00737361
    10e8:	34317363 	ldrtcc	r7, [r1], #-867	; 0x363
    10ec:	322d6530 	eorcc	r6, sp, #48, 10	; 0xc000000
    10f0:	6e697730 	mcrvs	7, 3, r7, cr9, cr0, {1}
    10f4:	62696c2f 	rsbvs	r6, r9, #12032	; 0x2f00
    10f8:	2f006970 	svccs	0x00006970
    10fc:	656d6f68 	strbvs	r6, [sp, #-3944]!	; 0xf68
    1100:	676e652f 	strbvs	r6, [lr, -pc, lsr #10]!
    1104:	2f72656c 	svccs	0x0072656c
    1108:	73616c63 	cmnvc	r1, #25344	; 0x6300
    110c:	73632f73 	cmnvc	r3, #460	; 0x1cc
    1110:	65303431 	ldrvs	r3, [r0, #-1073]!	; 0x431
    1114:	7730322d 	ldrvc	r3, [r0, -sp, lsr #4]!
    1118:	6c2f6e69 	stcvs	14, cr6, [pc], #-420	; f7c <_start-0x7084>
    111c:	69706269 	ldmdbvs	r0!, {r0, r3, r5, r6, r9, sp, lr}^
    1120:	3173632f 	cmncc	r3, pc, lsr #6
    1124:	2d653034 	stclcs	0, cr3, [r5, #-208]!	; 0xffffff30
    1128:	00637273 	rsbeq	r7, r3, r3, ror r2
    112c:	7273752f 	rsbsvc	r7, r3, #197132288	; 0xbc00000
    1130:	6d72612f 	ldfvse	f6, [r2, #-188]!	; 0xffffff44
    1134:	6e6f6e2d 	cdpvs	14, 6, cr6, cr15, cr13, {1}
    1138:	61652d65 	cmnvs	r5, r5, ror #26
    113c:	692f6962 	stmdbvs	pc!, {r1, r5, r6, r8, fp, sp, lr}	; <UNPREDICTABLE>
    1140:	756c636e 	strbvc	r6, [ip, #-878]!	; 0x36e
    1144:	00006564 	andeq	r6, r0, r4, ror #10
    1148:	74726175 	ldrbtvc	r6, [r2], #-373	; 0x175
    114c:	746e692d 	strbtvc	r6, [lr], #-2349	; 0x92d
    1150:	0000632e 	andeq	r6, r0, lr, lsr #6
    1154:	69630000 	stmdbvs	r3!, {}^	; <UNPREDICTABLE>
    1158:	6c756372 	ldclvs	3, cr6, [r5], #-456	; 0xfffffe38
    115c:	682e7261 	stmdavs	lr!, {r0, r5, r6, r9, ip, sp, lr}
    1160:	00000100 	andeq	r0, r0, r0, lsl #2
    1164:	2d697072 	stclcs	0, cr7, [r9, #-456]!	; 0xfffffe38
    1168:	65746e69 	ldrbvs	r6, [r4, #-3689]!	; 0xe69
    116c:	70757272 	rsbsvc	r7, r5, r2, ror r2
    1170:	682e7374 	stmdavs	lr!, {r2, r4, r5, r6, r8, r9, ip, sp, lr}
    1174:	00000200 	andeq	r0, r0, r0, lsl #4
    1178:	6b636f6c 	blvs	18dcf30 <__bss_end__+0x18d1070>
    117c:	0300682e 	movweq	r6, #2094	; 0x82e
    1180:	745f0000 	ldrbvc	r0, [pc], #-0	; 1188 <_start-0x6e78>
    1184:	73657079 	cmnvc	r5, #121	; 0x79
    1188:	0300682e 	movweq	r6, #2094	; 0x82e
    118c:	74730000 	ldrbtvc	r0, [r3], #-0
    1190:	66656464 	strbtvs	r6, [r5], -r4, ror #8
    1194:	0400682e 	streq	r6, [r0], #-2094	; 0x82e
    1198:	65720000 	ldrbvs	r0, [r2, #-0]!
    119c:	2e746e65 	cdpcs	14, 7, cr6, cr4, cr5, {3}
    11a0:	00030068 	andeq	r0, r3, r8, rrx
    11a4:	69707200 	ldmdbvs	r0!, {r9, ip, sp, lr}^
    11a8:	0500682e 	streq	r6, [r0, #-2094]	; 0x82e
    11ac:	61750000 	cmnvs	r5, r0
    11b0:	682e7472 	stmdavs	lr!, {r1, r4, r5, r6, sl, ip, sp, lr}
    11b4:	00000600 	andeq	r0, r0, r0, lsl #12
    11b8:	74726175 	ldrbtvc	r6, [r2], #-373	; 0x175
    11bc:	746e692d 	strbtvc	r6, [lr], #-2349	; 0x92d
    11c0:	0200682e 	andeq	r6, r0, #3014656	; 0x2e0000
    11c4:	74730000 	ldrbtvc	r0, [r3], #-0
    11c8:	676e6972 			; <UNDEFINED> instruction: 0x676e6972
    11cc:	0700682e 	streq	r6, [r0, -lr, lsr #16]
    11d0:	00000000 	andeq	r0, r0, r0
    11d4:	9a900205 	bls	fe4019f0 <__bss_end__+0xfe3f5b30>
    11d8:	12030000 	andne	r0, r3, #0
    11dc:	9f2f6701 	svcls	0x002f6701
    11e0:	2f2f302f 	svccs	0x002f302f
    11e4:	2f2e0a03 	svccs	0x002e0a03
    11e8:	4a620367 	bmi	1881f8c <__bss_end__+0x18760cc>
    11ec:	66200301 	strtvs	r0, [r0], -r1, lsl #6
    11f0:	2f2fbb2f 	svccs	0x002fbb2f
    11f4:	bb2f2f67 	bllt	bccf98 <__bss_end__+0xbc10d8>
    11f8:	35672f2f 	strbcc	r2, [r7, #-3887]!	; 0xf2f
    11fc:	034b2f4e 	movteq	r2, #48974	; 0xbf4e
    1200:	672f2e75 			; <UNDEFINED> instruction: 0x672f2e75
    1204:	67661003 	strbvs	r1, [r6, -r3]!
    1208:	4b6a4c2f 	blmi	1a942cc <__bss_end__+0x1a8840c>
    120c:	4b4c4c4b 	blmi	1314340 <__bss_end__+0x1308480>
    1210:	01040200 	mrseq	r0, R12_usr
    1214:	004a7a03 	subeq	r7, sl, r3, lsl #20
    1218:	d7010402 	strle	r0, [r1, -r2, lsl #8]
    121c:	f27403dd 	vcge.s<illegal width 64>	q8, q10, <illegal reg q6.5>
    1220:	032e0e03 	teqeq	lr, #3, 28	; 0x30
    1224:	0a034a7a 	beq	d3c14 <__bss_end__+0xc7d54>
    1228:	334b2008 	movtcc	r2, #45064	; 0xb008
    122c:	2fbb3069 	svccs	0x00bb3069
    1230:	0302044c 	movweq	r0, #9292	; 0x244c
    1234:	4b9f2e2c 	blmi	fe7ccaec <__bss_end__+0xfe7c0c2c>
    1238:	9b032f67 	blls	ccfdc <__bss_end__+0xc111c>
    123c:	e603667f 			; <UNDEFINED> instruction: 0xe603667f
    1240:	9d034a00 	vstrls	s8, [r3, #-0]
    1244:	e4034a7f 	str	r4, [r3], #-2687	; 0xa7f
    1248:	9e03ba00 	vmlals.f32	s22, s6, s0
    124c:	e3034a7f 	movw	r4, #14975	; 0x3a7f
    1250:	9803ba00 	stmdals	r3, {r9, fp, ip, sp, pc}
    1254:	0a034a7f 	beq	d3c58 <__bss_end__+0xc7d98>
    1258:	00d70366 	sbcseq	r0, r7, r6, ror #6
    125c:	6767bb4a 	strbvs	fp, [r7, -sl, asr #22]!
    1260:	7f9b032f 	svcvc	0x009b032f
    1264:	00e60366 	rsceq	r0, r6, r6, ror #6
    1268:	7f9d034a 	svcvc	0x009d034a
    126c:	00e4034a 	rsceq	r0, r4, sl, asr #6
    1270:	7f9e03ba 	svcvc	0x009e03ba
    1274:	00e3034a 	rsceq	r0, r3, sl, asr #6
    1278:	7f9803ba 	svcvc	0x009803ba
    127c:	660a034a 	strvs	r0, [sl], -sl, asr #6
    1280:	32030104 	andcc	r0, r3, #4, 2
    1284:	4b672f4a 	blmi	19ccfb4 <__bss_end__+0x19c10f4>
    1288:	042f2f2f 	strteq	r2, [pc], #-3887	; 1290 <_start-0x6d70>
    128c:	2e240302 	cdpcs	3, 2, cr0, cr4, cr2, {0}
    1290:	a403d7d7 	strge	sp, [r3], #-2007	; 0x7d7
    1294:	2f4bd67f 	svccs	0x004bd67f
    1298:	8200dc03 	andhi	sp, r0, #768	; 0x300
    129c:	03d7d7d2 	bicseq	sp, r7, #55050240	; 0x3480000
    12a0:	67d67fa4 	ldrbvs	r7, [r6, r4, lsr #31]
    12a4:	00dc034b 	sbcseq	r0, ip, fp, asr #6
    12a8:	03010482 	movweq	r0, #5250	; 0x1482
    12ac:	0124025b 	teqeq	r4, fp, asr r2
    12b0:	aa030304 	bge	c1ec8 <__bss_end__+0xb6008>
    12b4:	01042e7f 	tsteq	r4, pc, ror lr
    12b8:	2e00d803 	cdpcs	8, 0, cr13, cr0, cr3, {0}
    12bc:	be030204 	cdplt	2, 0, cr0, cr3, cr4, {0}
    12c0:	01044a7f 	tsteq	r4, pc, ror sl
    12c4:	ba00c303 	blt	31ed8 <__bss_end__+0x26018>
    12c8:	01040200 	mrseq	r0, R12_usr
    12cc:	02044a06 	andeq	r4, r4, #24576	; 0x6000
    12d0:	7fb80306 	svcvc	0x00b80306
    12d4:	660a0366 	strvs	r0, [sl], -r6, ror #6
    12d8:	044b674c 	strbeq	r6, [fp], #-1868	; 0x74c
    12dc:	823b0301 	eorshi	r0, fp, #67108864	; 0x4000000
    12e0:	01040200 	mrseq	r0, R12_usr
    12e4:	03020448 	movweq	r0, #9288	; 0x2448
    12e8:	0104d651 	tsteq	r4, r1, asr r6
    12ec:	c8083503 	stmdagt	r8, {r0, r1, r8, sl, ip, sp}
    12f0:	a2030304 	andge	r0, r3, #4, 6	; 0x10000000
    12f4:	01042e7f 	tsteq	r4, pc, ror lr
    12f8:	2e00df03 	cdpcs	15, 0, cr13, cr0, cr3, {0}
    12fc:	01040200 	mrseq	r0, R12_usr
    1300:	da064a06 	ble	193b20 <__bss_end__+0x187c60>
    1304:	b3030204 	movwlt	r0, #12804	; 0x3204
    1308:	01042e7f 	tsteq	r4, pc, ror lr
    130c:	ba00cc03 	blt	34320 <__bss_end__+0x28460>
    1310:	2fd60a03 	svccs	0x00d60a03
    1314:	67898532 			; <UNDEFINED> instruction: 0x67898532
    1318:	b3030204 	movwlt	r0, #12804	; 0x3204
    131c:	65034a7f 	strvs	r4, [r3, #-2687]	; 0xa7f
    1320:	9e1c034a 	cdpls	3, 1, cr0, cr12, cr10, {2}
    1324:	63034b4c 	movwvs	r4, #15180	; 0x3b4c
    1328:	0301049e 	movweq	r0, #5278	; 0x149e
    132c:	4bba00ea 	blmi	fee816dc <__bss_end__+0xfee7581c>
    1330:	bf47304d 	svclt	0x0047304d
    1334:	8e030204 	cdphi	2, 0, cr0, cr3, cr4, {0}
    1338:	0104017f 	tsteq	r4, pc, ror r1
    133c:	8200f403 	andhi	pc, r0, #50331648	; 0x3000000
    1340:	02002f84 	andeq	r2, r0, #132, 30	; 0x210
    1344:	042f0104 	strteq	r0, [pc], #-260	; 134c <_start-0x6cb4>
    1348:	7f830302 	svcvc	0x00830302
    134c:	660a0366 	strvs	r0, [sl], -r6, ror #6
    1350:	042f4b4c 	strteq	r4, [pc], #-2892	; 1358 <_start-0x6ca8>
    1354:	00f20301 	rscseq	r0, r2, r1, lsl #6
    1358:	03020482 	movweq	r0, #9346	; 0x2482
    135c:	042e7f98 	strteq	r7, [lr], #-3992	; 0xf98
    1360:	00f30301 	rscseq	r0, r3, r1, lsl #6
    1364:	02045808 	andeq	r5, r4, #8, 16	; 0x80000
    1368:	2e7f9303 	cdpcs	3, 7, cr9, cr15, cr3, {0}
    136c:	034a6503 	movteq	r6, #42243	; 0xa503
    1370:	67689e1c 			; <UNDEFINED> instruction: 0x67689e1c
    1374:	4d030304 	stcmi	3, cr0, [r3, #-16]
    1378:	0301049e 	movweq	r0, #5278	; 0x149e
    137c:	4f2e01a3 	svcmi	0x002e01a3
    1380:	2f2e0d03 	svccs	0x002e0d03
    1384:	2e0f0389 	cdpcs	3, 0, cr0, cr15, cr9, {4}
    1388:	01040200 	mrseq	r0, R12_usr
    138c:	034a5703 	movteq	r5, #42755	; 0xa703
    1390:	024bd617 	subeq	sp, fp, #24117248	; 0x1700000
    1394:	01010010 	tsteq	r1, r0, lsl r0
    1398:	000000ec 	andeq	r0, r0, ip, ror #1
    139c:	00d00002 	sbcseq	r0, r0, r2
    13a0:	01020000 	mrseq	r0, (UNDEF: 2)
    13a4:	000d0efb 	strdeq	r0, [sp], -fp
    13a8:	01010101 	tsteq	r1, r1, lsl #2
    13ac:	01000000 	mrseq	r0, (UNDEF: 0)
    13b0:	6c010000 	stcvs	0, cr0, [r1], {-0}
    13b4:	00636269 	rsbeq	r6, r3, r9, ror #4
    13b8:	7273752f 	rsbsvc	r7, r3, #197132288	; 0xbc00000
    13bc:	636f6c2f 	cmnvs	pc, #12032	; 0x2f00
    13c0:	432f6c61 	teqmi	pc, #24832	; 0x6100
    13c4:	616c6c65 	cmnvs	ip, r5, ror #24
    13c8:	72612f72 	rsbvc	r2, r1, #456	; 0x1c8
    13cc:	6f6e2d6d 	svcvs	0x006e2d6d
    13d0:	652d656e 	strvs	r6, [sp, #-1390]!	; 0x56e
    13d4:	2f696261 	svccs	0x00696261
    13d8:	2e382e34 	mrccs	14, 1, r2, cr8, cr4, {1}
    13dc:	73632d33 	cmnvc	r3, #3264	; 0xcc0
    13e0:	65303731 	ldrvs	r3, [r0, #-1841]!	; 0x731
    13e4:	62696c2f 	rsbvs	r6, r9, #12032	; 0x2f00
    13e8:	6363672f 	cmnvs	r3, #12320768	; 0xbc0000
    13ec:	6d72612f 	ldfvse	f6, [r2, #-188]!	; 0xffffff44
    13f0:	6e6f6e2d 	cdpvs	14, 6, cr6, cr15, cr13, {1}
    13f4:	61652d65 	cmnvs	r5, r5, ror #26
    13f8:	342f6962 	strtcc	r6, [pc], #-2402	; 1400 <_start-0x6c00>
    13fc:	332e382e 	teqcc	lr, #3014656	; 0x2e0000
    1400:	636e692f 	cmnvs	lr, #770048	; 0xbc000
    1404:	6564756c 	strbvs	r7, [r4, #-1388]!	; 0x56c
    1408:	73752f00 	cmnvc	r5, #0, 30
    140c:	6f6c2f72 	svcvs	0x006c2f72
    1410:	2f6c6163 	svccs	0x006c6163
    1414:	6c6c6543 	cfstr64vs	mvdx6, [ip], #-268	; 0xfffffef4
    1418:	612f7261 	teqvs	pc, r1, ror #4
    141c:	6e2d6d72 	mcrvs	13, 1, r6, cr13, cr2, {3}
    1420:	2d656e6f 	stclcs	14, cr6, [r5, #-444]!	; 0xfffffe44
    1424:	69626165 	stmdbvs	r2!, {r0, r2, r5, r6, r8, sp, lr}^
    1428:	382e342f 	stmdacc	lr!, {r0, r1, r2, r3, r5, sl, ip, sp}
    142c:	632d332e 	teqvs	sp, #-1207959552	; 0xb8000000
    1430:	30373173 	eorscc	r3, r7, r3, ror r1
    1434:	72612f65 	rsbvc	r2, r1, #404	; 0x194
    1438:	6f6e2d6d 	svcvs	0x006e2d6d
    143c:	652d656e 	strvs	r6, [sp, #-1390]!	; 0x56e
    1440:	2f696261 	svccs	0x00696261
    1444:	6c636e69 	stclvs	14, cr6, [r3], #-420	; 0xfffffe5c
    1448:	00656475 	rsbeq	r6, r5, r5, ror r4
    144c:	6d656d00 	stclvs	13, cr6, [r5, #-0]
    1450:	2e746573 	mrccs	5, 3, r6, cr4, cr3, {3}
    1454:	00010063 	andeq	r0, r1, r3, rrx
    1458:	64747300 	ldrbtvs	r7, [r4], #-768	; 0x300
    145c:	2e666564 	cdpcs	5, 6, cr6, cr6, cr4, {3}
    1460:	00020068 	andeq	r0, r2, r8, rrx
    1464:	72747300 	rsbsvc	r7, r4, #0, 6
    1468:	2e676e69 	cdpcs	14, 6, cr6, cr7, cr9, {3}
    146c:	00030068 	andeq	r0, r3, r8, rrx
    1470:	05000000 	streq	r0, [r0, #-0]
    1474:	00a2b002 	adceq	fp, r2, r2
    1478:	4c131400 	cfldrsmi	mvf1, [r3], {-0}
    147c:	0402002f 	streq	r0, [r2], #-47	; 0x2f
    1480:	024d4901 	subeq	r4, sp, #16384	; 0x4000
    1484:	01010002 	tsteq	r1, r2
    1488:	00000128 	andeq	r0, r0, r8, lsr #2
    148c:	010d0002 	tsteq	sp, r2
    1490:	01020000 	mrseq	r0, (UNDEF: 2)
    1494:	000d0efb 	strdeq	r0, [sp], -fp
    1498:	01010101 	tsteq	r1, r1, lsl #2
    149c:	01000000 	mrseq	r0, (UNDEF: 0)
    14a0:	63010000 	movwvs	r0, #4096	; 0x1000
    14a4:	30343173 	eorscc	r3, r4, r3, ror r1
    14a8:	72732d65 	rsbsvc	r2, r3, #6464	; 0x1940
    14ac:	752f0063 	strvc	r0, [pc, #-99]!	; 1451 <_start-0x6baf>
    14b0:	6c2f7273 	sfmvs	f7, 4, [pc], #-460	; 12ec <_start-0x6d14>
    14b4:	6c61636f 	stclvs	3, cr6, [r1], #-444	; 0xfffffe44
    14b8:	6c65432f 	stclvs	3, cr4, [r5], #-188	; 0xffffff44
    14bc:	2f72616c 	svccs	0x0072616c
    14c0:	2d6d7261 	sfmcs	f7, 2, [sp, #-388]!	; 0xfffffe7c
    14c4:	656e6f6e 	strbvs	r6, [lr, #-3950]!	; 0xf6e
    14c8:	6261652d 	rsbvs	r6, r1, #188743680	; 0xb400000
    14cc:	2e342f69 	cdpcs	15, 3, cr2, cr4, cr9, {3}
    14d0:	2d332e38 	ldccs	14, cr2, [r3, #-224]!	; 0xffffff20
    14d4:	37317363 	ldrcc	r7, [r1, -r3, ror #6]!
    14d8:	6c2f6530 	cfstr32vs	mvfx6, [pc], #-192	; 1420 <_start-0x6be0>
    14dc:	672f6269 	strvs	r6, [pc, -r9, ror #4]!
    14e0:	612f6363 	teqvs	pc, r3, ror #6
    14e4:	6e2d6d72 	mcrvs	13, 1, r6, cr13, cr2, {3}
    14e8:	2d656e6f 	stclcs	14, cr6, [r5, #-444]!	; 0xfffffe44
    14ec:	69626165 	stmdbvs	r2!, {r0, r2, r5, r6, r8, sp, lr}^
    14f0:	382e342f 	stmdacc	lr!, {r0, r1, r2, r3, r5, sl, ip, sp}
    14f4:	692f332e 	stmdbvs	pc!, {r1, r2, r3, r5, r8, r9, ip, sp}	; <UNPREDICTABLE>
    14f8:	756c636e 	strbvc	r6, [ip, #-878]!	; 0x36e
    14fc:	2f006564 	svccs	0x00006564
    1500:	2f727375 	svccs	0x00727375
    1504:	61636f6c 	cmnvs	r3, ip, ror #30
    1508:	65432f6c 	strbvs	r2, [r3, #-3948]	; 0xf6c
    150c:	72616c6c 	rsbvc	r6, r1, #108, 24	; 0x6c00
    1510:	6d72612f 	ldfvse	f6, [r2, #-188]!	; 0xffffff44
    1514:	6e6f6e2d 	cdpvs	14, 6, cr6, cr15, cr13, {1}
    1518:	61652d65 	cmnvs	r5, r5, ror #26
    151c:	342f6962 	strtcc	r6, [pc], #-2402	; 1524 <_start-0x6adc>
    1520:	332e382e 	teqcc	lr, #3014656	; 0x2e0000
    1524:	3173632d 	cmncc	r3, sp, lsr #6
    1528:	2f653037 	svccs	0x00653037
    152c:	2d6d7261 	sfmcs	f7, 2, [sp, #-388]!	; 0xfffffe7c
    1530:	656e6f6e 	strbvs	r6, [lr, #-3950]!	; 0xf6e
    1534:	6261652d 	rsbvs	r6, r1, #188743680	; 0xb400000
    1538:	6e692f69 	cdpvs	15, 6, cr2, cr9, cr9, {3}
    153c:	64756c63 	ldrbtvs	r6, [r5], #-3171	; 0xc63
    1540:	63000065 	movwvs	r0, #101	; 0x65
    1544:	72746e6f 	rsbsvc	r6, r4, #1776	; 0x6f0
    1548:	622d6c6f 	eorvs	r6, sp, #28416	; 0x6f00
    154c:	6b636f6c 	blvs	18dd304 <__bss_end__+0x18d1444>
    1550:	0100632e 	tsteq	r0, lr, lsr #6
    1554:	74730000 	ldrbtvc	r0, [r3], #-0
    1558:	66656464 	strbtvs	r6, [r5], -r4, ror #8
    155c:	0200682e 	andeq	r6, r0, #3014656	; 0x2e0000
    1560:	74730000 	ldrbtvc	r0, [r3], #-0
    1564:	746e6964 	strbtvc	r6, [lr], #-2404	; 0x964
    1568:	6363672d 	cmnvs	r3, #11796480	; 0xb40000
    156c:	0200682e 	andeq	r6, r0, #3014656	; 0x2e0000
    1570:	77730000 	ldrbvc	r0, [r3, -r0]!
    1574:	7261752d 	rsbvc	r7, r1, #188743680	; 0xb400000
    1578:	00682e74 	rsbeq	r2, r8, r4, ror lr
    157c:	63000001 	movwvs	r0, #1
    1580:	72746e6f 	rsbsvc	r6, r4, #1776	; 0x6f0
    1584:	622d6c6f 	eorvs	r6, sp, #28416	; 0x6f00
    1588:	6b636f6c 	blvs	18dd340 <__bss_end__+0x18d1480>
    158c:	0100682e 	tsteq	r0, lr, lsr #16
    1590:	74730000 	ldrbtvc	r0, [r3], #-0
    1594:	676e6972 			; <UNDEFINED> instruction: 0x676e6972
    1598:	0300682e 	movweq	r6, #2094	; 0x82e
    159c:	00000000 	andeq	r0, r0, r0
    15a0:	a2d00205 	sbcsge	r0, r0, #1342177280	; 0x50000000
    15a4:	30160000 	andscc	r0, r6, r0
    15a8:	144c6883 	strbne	r6, [ip], #-2179	; 0x883
    15ac:	022f4b9f 	eoreq	r4, pc, #162816	; 0x27c00
    15b0:	01010004 	tsteq	r1, r4

Disassembly of section .debug_str:

00000000 <.debug_str>:
       0:	6d746f6e 	ldclvs	15, cr6, [r4, #-440]!	; 0xfffffe48
       4:	006e6961 	rsbeq	r6, lr, r1, ror #18
       8:	5f6d7261 	svcpl	0x006d7261
       c:	656d6974 	strbvs	r6, [sp, #-2420]!	; 0x974
      10:	41525f72 	cmpmi	r2, r2, ror pc
      14:	51524957 	cmppl	r2, r7, asr r9
      18:	72617500 	rsbvc	r7, r1, #0, 10
      1c:	6e695f74 	mcrvs	15, 3, r5, cr9, cr4, {3}
      20:	775f7469 	ldrbvc	r7, [pc, -r9, ror #8]
      24:	5f687469 	svcpl	0x00687469
      28:	65746e69 	ldrbvs	r6, [r4, #-3689]!	; 0xe69
      2c:	70757272 	rsbsvc	r7, r5, r2, ror r2
      30:	6c007374 	stcvs	3, cr7, [r0], {116}	; 0x74
      34:	20676e6f 	rsbcs	r6, r7, pc, ror #28
      38:	676e6f6c 	strbvs	r6, [lr, -ip, ror #30]!
      3c:	736e7520 	cmnvc	lr, #32, 10	; 0x8000000
      40:	656e6769 	strbvs	r6, [lr, #-1897]!	; 0x769
      44:	6e692064 	cdpvs	0, 6, cr2, cr9, cr4, {3}
      48:	64610074 	strbtvs	r0, [r1], #-116	; 0x74
      4c:	50007264 	andpl	r7, r0, r4, ror #4
      50:	50475f49 	subpl	r5, r7, r9, asr #30
      54:	575f4f49 	ldrbpl	r4, [pc, -r9, asr #30]
      58:	45544952 	ldrbmi	r4, [r4, #-2386]	; 0x952
      5c:	74656e00 	strbtvc	r6, [r5], #-3584	; 0xe00
      60:	7475705f 	ldrbtvc	r7, [r5], #-95	; 0x5f
      64:	72616863 	rsbvc	r6, r1, #6488064	; 0x630000
      68:	69706700 	ldmdbvs	r0!, {r8, r9, sl, sp, lr}^
      6c:	65735f6f 	ldrbvs	r5, [r3, #-3951]!	; 0xf6f
      70:	666f5f74 	uqsub16vs	r5, pc, r4	; <UNPREDICTABLE>
      74:	6f6c0066 	svcvs	0x006c0066
      78:	6c20676e 	stcvs	7, cr6, [r0], #-440	; 0xfffffe48
      7c:	20676e6f 	rsbcs	r6, r7, pc, ror #28
      80:	00746e69 	rsbseq	r6, r4, r9, ror #28
      84:	64616572 	strbtvs	r6, [r1], #-1394	; 0x572
      88:	6178655f 	cmnvs	r8, pc, asr r5
      8c:	50007463 	andpl	r7, r0, r3, ror #8
      90:	50475f49 	subpl	r5, r7, r9, asr #30
      94:	525f4f49 	subspl	r4, pc, #292	; 0x124
      98:	5f444145 	svcpl	0x00444145
      9c:	4c504552 	cfldr64mi	mvdx4, [r0], {82}	; 0x52
      a0:	72610059 	rsbvc	r0, r1, #89	; 0x59
      a4:	69745f6d 	ldmdbvs	r4!, {r0, r2, r3, r5, r6, r8, r9, sl, fp, ip, lr}^
      a8:	5f72656d 	svcpl	0x0072656d
      ac:	746e6f43 	strbtvc	r6, [lr], #-3907	; 0xf43
      b0:	006c6f72 	rsbeq	r6, ip, r2, ror pc
      b4:	5f697072 	svcpl	0x00697072
      b8:	5f746573 	svcpl	0x00746573
      bc:	63747570 	cmnvs	r4, #112, 10	; 0x1c000000
      c0:	6d726100 	ldfvse	f6, [r2, #-0]
      c4:	6d69745f 	cfstrdvs	mvd7, [r9, #-380]!	; 0xfffffe84
      c8:	4c5f7265 	lfmmi	f7, 2, [pc], {101}	; 0x65
      cc:	0064616f 	rsbeq	r6, r4, pc, ror #2
      d0:	5f6d7261 	svcpl	0x006d7261
      d4:	656d6974 	strbvs	r6, [sp, #-2420]!	; 0x974
      d8:	61425f72 	hvcvs	9714	; 0x25f2
      dc:	50006573 	andpl	r6, r0, r3, ror r5
      e0:	554e5f49 	strbpl	r5, [lr, #-3913]	; 0xf49
      e4:	67004c4c 	strvs	r4, [r0, -ip, asr #24]
      e8:	755f7465 	ldrbvc	r7, [pc, #-1125]	; fffffc8b <__bss_end__+0xffff3dcb>
      ec:	33746e69 	cmncc	r4, #1680	; 0x690
      f0:	61750032 	cmnvs	r5, r2, lsr r0
      f4:	675f7472 			; <UNDEFINED> instruction: 0x675f7472
      f8:	5f637465 	svcpl	0x00637465
      fc:	00746e69 	rsbseq	r6, r4, r9, ror #28
     100:	74726175 	ldrbtvc	r6, [r2], #-373	; 0x175
     104:	746e695f 	strbtvc	r6, [lr], #-2399	; 0x95f
     108:	75727265 	ldrbvc	r7, [r2, #-613]!	; 0x265
     10c:	685f7470 	ldmdavs	pc, {r4, r5, r6, sl, ip, sp, lr}^	; <UNPREDICTABLE>
     110:	6c646e61 	stclvs	14, cr6, [r4], #-388	; 0xfffffe7c
     114:	61007265 	tstvs	r0, r5, ror #4
     118:	745f6d72 	ldrbvc	r6, [pc], #-3442	; 120 <_start-0x7ee0>
     11c:	72656d69 	rsbvc	r6, r5, #6720	; 0x1a40
     120:	73614d5f 	cmnvc	r1, #6080	; 0x17c0
     124:	4964656b 	stmdbmi	r4!, {r0, r1, r3, r5, r6, r8, sl, sp, lr}^
     128:	72005152 	andvc	r5, r0, #-2147483628	; 0x80000014
     12c:	725f6970 	subsvc	r6, pc, #112, 18	; 0x1c0000
     130:	74657365 	strbtvc	r7, [r5], #-869	; 0x365
     134:	7475705f 	ldrbtvc	r7, [r5], #-95	; 0x5f
     138:	5f5f0063 	svcpl	0x005f0063
     13c:	434e5546 	movtmi	r5, #58694	; 0xe546
     140:	4e4f4954 	mcrmi	9, 2, r4, cr15, cr4, {2}
     144:	50005f5f 	andpl	r5, r0, pc, asr pc
     148:	55505f49 	ldrbpl	r5, [r0, #-3913]	; 0xf49
     14c:	4f435f54 	svcmi	0x00435f54
     150:	495f4544 	ldmdbmi	pc, {r2, r6, r8, sl, lr}^	; <UNPREDICTABLE>
     154:	004f464e 	subeq	r4, pc, lr, asr #12
     158:	5f747570 	svcpl	0x00747570
     15c:	746e6975 	strbtvc	r6, [lr], #-2421	; 0x975
     160:	73003233 	movwvc	r3, #563	; 0x233
     164:	74726f68 	ldrbtvc	r6, [r2], #-3944	; 0xf68
     168:	736e7520 	cmnvc	lr, #32, 10	; 0x8000000
     16c:	656e6769 	strbvs	r6, [lr, #-1897]!	; 0x769
     170:	6e692064 	cdpvs	0, 6, cr2, cr9, cr4, {3}
     174:	61750074 	cmnvs	r5, r4, ror r0
     178:	705f7472 	subsvc	r7, pc, r2, ror r4	; <UNPREDICTABLE>
     17c:	5f637475 	svcpl	0x00637475
     180:	00746e69 	rsbseq	r6, r4, r9, ror #28
     184:	525f4950 	subspl	r4, pc, #80, 18	; 0x140000
     188:	59444145 	stmdbpl	r4, {r0, r2, r6, r8, lr}^
     18c:	5f495000 	svcpl	0x00495000
     190:	4f424552 	svcmi	0x00424552
     194:	5000544f 	andpl	r5, r0, pc, asr #8
     198:	45475f49 	strbmi	r5, [r7, #-3913]	; 0xf49
     19c:	5f323354 	svcpl	0x00323354
     1a0:	4c504552 	cfldr64mi	mvdx4, [r0], {82}	; 0x52
     1a4:	72770059 	rsbsvc	r0, r7, #89	; 0x59
     1a8:	5f657469 	svcpl	0x00657469
     1ac:	63617865 	cmnvs	r1, #6619136	; 0x650000
     1b0:	70670074 	rsbvc	r0, r7, r4, ror r0
     1b4:	725f6f69 	subsvc	r6, pc, #420	; 0x1a4
     1b8:	00646165 	rsbeq	r6, r4, r5, ror #2
     1bc:	61656c63 	cmnvs	r5, r3, ror #24
     1c0:	65725f6e 	ldrbvs	r5, [r2, #-3950]!	; 0xf6e
     1c4:	746f6f62 	strbtvc	r6, [pc], #-3938	; 1cc <_start-0x7e34>
     1c8:	5f495000 	svcpl	0x00495000
     1cc:	4f495047 	svcmi	0x00495047
     1d0:	5445535f 	strbpl	r5, [r5], #-863	; 0x35f
     1d4:	004e4f5f 	subeq	r4, lr, pc, asr pc
     1d8:	475f4950 			; <UNDEFINED> instruction: 0x475f4950
     1dc:	5f4f4950 	svcpl	0x004f4950
     1e0:	5f544553 	svcpl	0x00544553
     1e4:	5054554f 	subspl	r5, r4, pc, asr #10
     1e8:	73005455 	movwvc	r5, #1109	; 0x455
     1ec:	74657a69 	strbtvc	r7, [r5], #-2665	; 0xa69
     1f0:	00657079 	rsbeq	r7, r5, r9, ror r0
     1f4:	475f4950 			; <UNDEFINED> instruction: 0x475f4950
     1f8:	435f5445 	cmpmi	pc, #1157627904	; 0x45000000
     1fc:	0045444f 	subeq	r4, r5, pc, asr #8
     200:	5f6d7261 	svcpl	0x006d7261
     204:	656d6974 	strbvs	r6, [sp, #-2420]!	; 0x974
     208:	65525f72 	ldrbvs	r5, [r2, #-3954]	; 0xf72
     20c:	64616f6c 	strbtvs	r6, [r1], #-3948	; 0xf6c
     210:	5f495000 	svcpl	0x00495000
     214:	33545550 	cmpcc	r4, #80, 10	; 0x14000000
     218:	79730032 	ldmdbvc	r3!, {r1, r4, r5}^
     21c:	6d657473 	cfstrdvs	mvd7, [r5, #-460]!	; 0xfffffe34
     220:	616e655f 	cmnvs	lr, pc, asr r5
     224:	5f656c62 	svcpl	0x00656c62
     228:	65746e69 	ldrbvs	r6, [r4, #-3689]!	; 0xe69
     22c:	70757272 	rsbsvc	r7, r5, r2, ror r2
     230:	50007374 	andpl	r7, r0, r4, ror r3
     234:	45475f49 	strbmi	r5, [r7, #-3913]	; 0xf49
     238:	4f435f54 	svcmi	0x00435f54
     23c:	495f4544 	ldmdbmi	pc, {r2, r6, r8, sl, lr}^	; <UNPREDICTABLE>
     240:	004f464e 	subeq	r4, pc, lr, asr #12
     244:	505f4950 	subspl	r4, pc, r0, asr r9	; <UNPREDICTABLE>
     248:	435f5455 	cmpmi	pc, #1426063360	; 0x55000000
     24c:	0045444f 	subeq	r4, r5, pc, asr #8
     250:	69736e75 	ldmdbvs	r3!, {r0, r2, r4, r5, r6, r9, sl, fp, sp, lr}^
     254:	64656e67 	strbtvs	r6, [r5], #-3687	; 0xe67
     258:	61686320 	cmnvs	r8, r0, lsr #6
     25c:	49500072 	ldmdbmi	r0, {r1, r4, r5, r6}^
     260:	4952505f 	ldmdbmi	r2, {r0, r1, r2, r3, r4, r6, ip, lr}^
     264:	535f544e 	cmppl	pc, #1308622848	; 0x4e000000
     268:	4e495254 	mcrmi	2, 2, r5, cr9, cr4, {2}
     26c:	49500047 	ldmdbmi	r0, {r0, r1, r2, r6}^
     270:	5445475f 	strbpl	r4, [r5], #-1887	; 0x75f
     274:	73003233 	movwvc	r3, #563	; 0x233
     278:	74726f68 	ldrbtvc	r6, [r2], #-3944	; 0xf68
     27c:	746e6920 	strbtvc	r6, [lr], #-2336	; 0x920
     280:	69706700 	ldmdbvs	r0!, {r8, r9, sl, sp, lr}^
     284:	72775f6f 	rsbsvc	r5, r7, #444	; 0x1bc
     288:	00657469 	rsbeq	r7, r5, r9, ror #8
     28c:	5f746e69 	svcpl	0x00746e69
     290:	74696e69 	strbtvc	r6, [r9], #-3689	; 0xe69
     294:	2d697000 	stclcs	0, cr7, [r9, #-0]
     298:	2e6d6d76 	mcrcs	13, 3, r6, cr13, cr6, {3}
     29c:	49500063 	ldmdbmi	r0, {r0, r1, r5, r6}^
     2a0:	45454e5f 	strbmi	r4, [r5, #-3679]	; 0xe5f
     2a4:	43415f44 	movtmi	r5, #8004	; 0x1f44
     2a8:	6564004b 	strbvs	r0, [r4, #-75]!	; 0x4b
     2ac:	5f79616c 	svcpl	0x0079616c
     2b0:	7500736d 	strvc	r7, [r0, #-877]	; 0x36d
     2b4:	33746e69 	cmncc	r4, #1680	; 0x690
     2b8:	00745f32 	rsbseq	r5, r4, r2, lsr pc
     2bc:	455f4950 	ldrbmi	r4, [pc, #-2384]	; fffff974 <__bss_end__+0xffff3ab4>
     2c0:	5000444e 	andpl	r4, r0, lr, asr #8
     2c4:	52505f49 	subspl	r5, r0, #292	; 0x124
     2c8:	5f544e49 	svcpl	0x00544e49
     2cc:	52414843 	subpl	r4, r1, #4390912	; 0x430000
     2d0:	5f495000 	svcpl	0x00495000
     2d4:	4f495047 	svcmi	0x00495047
     2d8:	5445535f 	strbpl	r5, [r5], #-863	; 0x35f
     2dc:	504e495f 	subpl	r4, lr, pc, asr r9
     2e0:	47005455 	smlsdmi	r0, r5, r4, r5
     2e4:	4320554e 	teqmi	r0, #327155712	; 0x13800000
     2e8:	382e3420 	stmdacc	lr!, {r5, sl, ip, sp}
     2ec:	2d20332e 	stccs	3, cr3, [r0, #-184]!	; 0xffffff48
     2f0:	7570636d 	ldrbvc	r6, [r0, #-877]!	; 0x36d
     2f4:	6d72613d 	ldfvse	f6, [r2, #-244]!	; 0xffffff0c
     2f8:	36373131 			; <UNDEFINED> instruction: 0x36373131
     2fc:	2d667a6a 	vstmdbcs	r6!, {s15-s120}
     300:	6d2d2073 	stcvs	0, cr2, [sp, #-460]!	; 0xfffffe34
     304:	656e7574 	strbvs	r7, [lr, #-1396]!	; 0x574
     308:	6d72613d 	ldfvse	f6, [r2, #-244]!	; 0xffffff0c
     30c:	36373131 			; <UNDEFINED> instruction: 0x36373131
     310:	2d667a6a 	vstmdbcs	r6!, {s15-s120}
     314:	672d2073 			; <UNDEFINED> instruction: 0x672d2073
     318:	20626467 	rsbcs	r6, r2, r7, ror #8
     31c:	20674f2d 	rsbcs	r4, r7, sp, lsr #30
     320:	6474732d 	ldrbtvs	r7, [r4], #-813	; 0x32d
     324:	756e673d 	strbvc	r6, [lr, #-1853]!	; 0x73d
     328:	2d203939 	stccs	9, cr3, [r0, #-228]!	; 0xffffff1c
     32c:	65726666 	ldrbvs	r6, [r2, #-1638]!	; 0x666
     330:	61747365 	cmnvs	r4, r5, ror #6
     334:	6e69646e 	cdpvs	4, 6, cr6, cr9, cr14, {3}
     338:	70670067 	rsbvc	r0, r7, r7, rrx
     33c:	735f6f69 	cmpvc	pc, #420	; 0x1a4
     340:	695f7465 	ldmdbvs	pc, {r0, r2, r5, r6, sl, ip, sp, lr}^	; <UNPREDICTABLE>
     344:	7475706e 	ldrbtvc	r7, [r5], #-110	; 0x6e
     348:	69706700 	ldmdbvs	r0!, {r8, r9, sl, sp, lr}^
     34c:	65735f6f 	ldrbvs	r5, [r3, #-3951]!	; 0xf6f
     350:	6e6f5f74 	mcrvs	15, 3, r5, cr15, cr4, {3}
     354:	73552f00 	cmpvc	r5, #0, 30
     358:	2f737265 	svccs	0x00737265
     35c:	61697262 	cmnvs	r9, r2, ror #4
     360:	6e756a6e 	vsubvs.f32	s13, s10, s29
     364:	7365442f 	cmnvc	r5, #788529152	; 0x2f000000
     368:	706f746b 	rsbvc	r7, pc, fp, ror #8
     36c:	6863732f 	stmdavs	r3!, {r0, r1, r2, r3, r5, r8, r9, ip, sp, lr}^
     370:	2f6c6f6f 	svccs	0x006c6f6f
     374:	746e6957 	strbtvc	r6, [lr], #-2391	; 0x957
     378:	39317265 	ldmdbcc	r1!, {r0, r2, r5, r6, r9, ip, sp, lr}
     37c:	432f3032 	teqmi	pc, #50	; 0x32
     380:	30343153 	eorscc	r3, r4, r3, asr r1
     384:	73632f45 	cmnvc	r3, #276	; 0x114
     388:	65303431 	ldrvs	r3, [r0, #-1073]!	; 0x431
     38c:	7730322d 	ldrvc	r3, [r0, -sp, lsr #4]!
     390:	6c2f6e69 	stcvs	14, cr6, [pc], #-420	; 1f4 <_start-0x7e0c>
     394:	2f736261 	svccs	0x00736261
     398:	662d3131 			; <UNDEFINED> instruction: 0x662d3131
     39c:	2f657375 	svccs	0x00657375
     3a0:	61662d32 	cmnvs	r6, r2, lsr sp
     3a4:	702d656b 	eorvc	r6, sp, fp, ror #10
     3a8:	69702f69 	ldmdbvs	r0!, {r0, r3, r5, r6, r8, r9, sl, fp, sp}^
     3ac:	6469732d 	strbtvs	r7, [r9], #-813	; 0x32d
     3b0:	72610065 	rsbvc	r0, r1, #101	; 0x65
     3b4:	69745f6d 	ldmdbvs	r4!, {r0, r2, r3, r5, r6, r8, r9, sl, fp, ip, lr}^
     3b8:	5f72656d 	svcpl	0x0072656d
     3bc:	44657250 	strbtmi	r7, [r5], #-592	; 0x250
     3c0:	64697669 	strbtvs	r7, [r9], #-1641	; 0x669
     3c4:	61007265 	tstvs	r0, r5, ror #4
     3c8:	745f6d72 	ldrbvc	r6, [pc], #-3442	; 3d0 <_start-0x7c30>
     3cc:	72656d69 	rsbvc	r6, r5, #6720	; 0x1a40
     3d0:	6c61565f 	stclvs	6, cr5, [r1], #-380	; 0xfffffe84
     3d4:	61006575 	tstvs	r0, r5, ror r5
     3d8:	745f6d72 	ldrbvc	r6, [pc], #-3442	; 3e0 <_start-0x7c20>
     3dc:	72656d69 	rsbvc	r6, r5, #6720	; 0x1a40
     3e0:	5152495f 	cmppl	r2, pc, asr r9
     3e4:	61656c43 	cmnvs	r5, r3, asr #24
     3e8:	70670072 	rsbvc	r0, r7, r2, ror r0
     3ec:	735f6f69 	cmpvc	pc, #420	; 0x1a4
     3f0:	6f5f7465 	svcvs	0x005f7465
     3f4:	75707475 	ldrbvc	r7, [r0, #-1141]!	; 0x475
     3f8:	70720074 	rsbsvc	r0, r2, r4, ror r0
     3fc:	72615f69 	rsbvc	r5, r1, #420	; 0x1a4
     400:	69745f6d 	ldmdbvs	r4!, {r0, r2, r3, r5, r6, r8, r9, sl, fp, ip, lr}^
     404:	5f72656d 	svcpl	0x0072656d
     408:	69750074 	ldmdbvs	r5!, {r2, r4, r5, r6}^
     40c:	5f38746e 	svcpl	0x0038746e
     410:	49500074 	ldmdbmi	r0, {r2, r4, r5, r6}^
     414:	4950475f 	ldmdbmi	r0, {r0, r1, r2, r3, r4, r6, r8, r9, sl, lr}^
     418:	45525f4f 	ldrbmi	r5, [r2, #-3919]	; 0xf4f
     41c:	50004441 	andpl	r4, r0, r1, asr #8
     420:	50475f49 	subpl	r5, r7, r9, asr #30
     424:	535f4f49 	cmppl	pc, #292	; 0x124
     428:	4f5f5445 	svcmi	0x005f5445
     42c:	61004646 	tstvs	r0, r6, asr #12
     430:	745f6d72 	ldrbvc	r6, [pc], #-3442	; 438 <_start-0x7bc8>
     434:	72656d69 	rsbvc	r6, r5, #6720	; 0x1a40
     438:	6572465f 	ldrbvs	r4, [r2, #-1631]!	; 0x65f
     43c:	6e755265 	cdpvs	2, 7, cr5, cr5, cr5, {3}
     440:	676e696e 	strbvs	r6, [lr, -lr, ror #18]!
     444:	6e756f43 	cdpvs	15, 7, cr6, cr5, cr3, {2}
     448:	00726574 	rsbseq	r6, r2, r4, ror r5
     44c:	6e675f5f 	mcrvs	15, 3, r5, cr7, cr15, {2}
     450:	765f6375 			; <UNDEFINED> instruction: 0x765f6375
     454:	696c5f61 	stmdbvs	ip!, {r0, r5, r6, r8, r9, sl, fp, ip, lr}^
     458:	6c007473 	cfstrsvs	mvf7, [r0], {115}	; 0x73
     45c:	2f636269 	svccs	0x00636269
     460:	6e697270 	mcrvs	2, 3, r7, cr9, cr0, {3}
     464:	632e6b74 	teqvs	lr, #116, 22	; 0x1d000
     468:	5f617600 	svcpl	0x00617600
     46c:	6e697270 	mcrvs	2, 3, r7, cr9, cr0, {3}
     470:	5f006b74 	svcpl	0x00006b74
     474:	5f61765f 	svcpl	0x0061765f
     478:	7473696c 	ldrbtvc	r6, [r3], #-2412	; 0x96c
     47c:	73552f00 	cmpvc	r5, #0, 30
     480:	2f737265 	svccs	0x00737265
     484:	61697262 	cmnvs	r9, r2, ror #4
     488:	6e756a6e 	vsubvs.f32	s13, s10, s29
     48c:	7365442f 	cmnvc	r5, #788529152	; 0x2f000000
     490:	706f746b 	rsbvc	r7, pc, fp, ror #8
     494:	6863732f 	stmdavs	r3!, {r0, r1, r2, r3, r5, r8, r9, ip, sp, lr}^
     498:	2f6c6f6f 	svccs	0x006c6f6f
     49c:	746e6957 	strbtvc	r6, [lr], #-2391	; 0x957
     4a0:	39317265 	ldmdbcc	r1!, {r0, r2, r5, r6, r9, ip, sp, lr}
     4a4:	432f3032 	teqmi	pc, #50	; 0x32
     4a8:	30343153 	eorscc	r3, r4, r3, asr r1
     4ac:	73632f45 	cmnvc	r3, #276	; 0x114
     4b0:	65303431 	ldrvs	r3, [r0, #-1073]!	; 0x431
     4b4:	7730322d 	ldrvc	r3, [r0, -sp, lsr #4]!
     4b8:	6c2f6e69 	stcvs	14, cr6, [pc], #-420	; 31c <_start-0x7ce4>
     4bc:	69706269 	ldmdbvs	r0!, {r0, r3, r5, r6, r9, sp, lr}^
     4c0:	615f5f00 	cmpvs	pc, r0, lsl #30
     4c4:	6e690070 	mcrvs	0, 3, r0, cr9, cr0, {3}
     4c8:	6e726574 	mrcvs	5, 3, r6, cr2, cr4, {3}
     4cc:	705f6c61 	subsvc	r6, pc, r1, ror #24
     4d0:	68637475 	stmdavs	r3!, {r0, r2, r4, r5, r6, sl, ip, sp, lr}^
     4d4:	72007261 	andvc	r7, r0, #268435462	; 0x10000006
     4d8:	705f6970 	subsvc	r6, pc, r0, ror r9	; <UNPREDICTABLE>
     4dc:	68637475 	stmdavs	r3!, {r0, r2, r4, r5, r6, sl, ip, sp, lr}^
     4e0:	6c007261 	sfmvs	f7, 4, [r0], {97}	; 0x61
     4e4:	2f636269 	svccs	0x00636269
     4e8:	63747570 	cmnvs	r4, #112, 10	; 0x1c000000
     4ec:	2e726168 	rpwcssz	f6, f2, #0.0
     4f0:	696c0063 	stmdbvs	ip!, {r0, r1, r5, r6}^
     4f4:	702f6362 	eorvc	r6, pc, r2, ror #6
     4f8:	2e6b7475 	mcrcs	4, 3, r7, cr11, cr5, {3}
     4fc:	6e690063 	cdpvs	0, 6, cr0, cr9, cr3, {3}
     500:	6e726574 	mrcvs	5, 3, r6, cr2, cr4, {3}
     504:	705f6c61 	subsvc	r6, pc, r1, ror #24
     508:	006b7475 	rsbeq	r7, fp, r5, ror r4
     50c:	5f67656e 	svcpl	0x0067656e
     510:	65720070 	ldrbvs	r0, [r2, #-112]!	; 0x70
     514:	73726576 	cmnvc	r2, #494927872	; 0x1d800000
     518:	73690065 	cmnvc	r9, #101	; 0x65
     51c:	69676964 	stmdbvs	r7!, {r2, r5, r6, r8, fp, sp, lr}^
     520:	75700074 	ldrbvc	r0, [r0, #-116]!	; 0x74
     524:	665f7374 			; <UNDEFINED> instruction: 0x665f7374
     528:	69730070 	ldmdbvs	r3!, {r4, r5, r6}^
     52c:	64656e67 	strbtvs	r6, [r5], #-3687	; 0xe67
     530:	6c00705f 	stcvs	0, cr7, [r0], {95}	; 0x5f
     534:	2f636269 	svccs	0x00636269
     538:	702d6176 	eorvc	r6, sp, r6, ror r1
     53c:	746e6972 	strbtvc	r6, [lr], #-2418	; 0x972
     540:	00632e6b 	rsbeq	r2, r3, fp, ror #28
     544:	5f697072 	svcpl	0x00697072
     548:	5f746573 	svcpl	0x00746573
     54c:	7074756f 	rsbsvc	r7, r4, pc, ror #10
     550:	77007475 	smlsdxvc	r0, r5, r4, r7
     554:	68746469 	ldmdavs	r4!, {r0, r3, r5, r6, sl, sp, lr}^
     558:	74757000 	ldrbtvc	r7, [r5], #-0
     55c:	70665f63 	rsbvc	r5, r6, r3, ror #30
     560:	696d6500 	stmdbvs	sp!, {r8, sl, sp, lr}^
     564:	70720074 	rsbsvc	r0, r2, r4, ror r0
     568:	65725f69 	ldrbvs	r5, [r2, #-3945]!	; 0xf69
     56c:	746f6f62 	strbtvc	r6, [pc], #-3938	; 574 <_start-0x7a8c>
     570:	31736300 	cmncc	r3, r0, lsl #6
     574:	2d653034 	stclcs	0, cr3, [r5, #-208]!	; 0xffffff30
     578:	2f637273 	svccs	0x00637273
     57c:	61656c63 	cmnvs	r5, r3, ror #24
     580:	65722d6e 	ldrbvs	r2, [r2, #-3438]!	; 0xd6e
     584:	746f6f62 	strbtvc	r6, [pc], #-3938	; 58c <_start-0x7a74>
     588:	6900632e 	stmdbvs	r0, {r1, r2, r3, r5, r8, r9, sp, lr}
     58c:	7265746e 	rsbvc	r7, r5, #1845493760	; 0x6e000000
     590:	5f6c616e 	svcpl	0x006c616e
     594:	705f7773 	subsvc	r7, pc, r3, ror r7	; <UNPREDICTABLE>
     598:	68637475 	stmdavs	r3!, {r0, r2, r4, r5, r6, sl, ip, sp, lr}^
     59c:	5f007261 	svcpl	0x00007261
     5a0:	7373625f 	cmnvc	r3, #-268435451	; 0xf0000005
     5a4:	6174735f 	cmnvs	r4, pc, asr r3
     5a8:	5f5f7472 	svcpl	0x005f7472
     5ac:	73736200 	cmnvc	r3, #0, 4
     5b0:	646e655f 	strbtvs	r6, [lr], #-1375	; 0x55f
     5b4:	63796300 	cmnvs	r9, #0, 6
     5b8:	705f656c 	subsvc	r6, pc, ip, ror #10
     5bc:	625f7265 	subsvs	r7, pc, #1342177286	; 0x50000006
     5c0:	63007469 	movwvs	r7, #1129	; 0x469
     5c4:	6f736e6f 	svcvs	0x00736e6f
     5c8:	755f656c 	ldrbvc	r6, [pc, #-1388]	; 64 <_start-0x7f9c>
     5cc:	00747261 	rsbseq	r7, r4, r1, ror #4
     5d0:	755f7773 	ldrbvc	r7, [pc, #-1907]	; fffffe65 <__bss_end__+0xffff3fa5>
     5d4:	5f747261 	svcpl	0x00747261
     5d8:	6e697270 	mcrvs	2, 3, r7, cr9, cr0, {3}
     5dc:	50006b74 	andpl	r6, r0, r4, ror fp
     5e0:	5f435455 	svcpl	0x00435455
     5e4:	5f505345 	svcpl	0x00505345
     5e8:	54524155 	ldrbpl	r4, [r2], #-341	; 0x155
     5ec:	5f777300 	svcpl	0x00777300
     5f0:	74726175 	ldrbtvc	r6, [r2], #-373	; 0x175
     5f4:	5000745f 	andpl	r7, r0, pc, asr r4
     5f8:	5f435455 	svcpl	0x00435455
     5fc:	555f5753 	ldrbpl	r5, [pc, #-1875]	; fffffeb1 <__bss_end__+0xffff3ff1>
     600:	00545241 	subseq	r5, r4, r1, asr #4
     604:	64756162 	ldrbtvs	r6, [r5], #-354	; 0x162
     608:	54555000 	ldrbpl	r5, [r5], #-0
     60c:	57485f43 	strbpl	r5, [r8, -r3, asr #30]
     610:	5241555f 	subpl	r5, r1, #398458880	; 0x17c00000
     614:	635f0054 	cmpvs	pc, #84	; 0x54
     618:	72617473 	rsbvc	r7, r1, #1929379840	; 0x73000000
     61c:	61750074 	cmnvs	r5, r4, ror r0
     620:	645f7472 	ldrbvs	r7, [pc], #-1138	; 628 <_start-0x79d8>
     624:	745f7665 	ldrbvc	r7, [pc], #-1637	; 62c <_start-0x79d4>
     628:	5f777300 	svcpl	0x00777300
     62c:	74726175 	ldrbtvc	r6, [r2], #-373	; 0x175
     630:	7475705f 	ldrbtvc	r7, [r5], #-95	; 0x5f
     634:	6f630063 	svcvs	0x00630063
     638:	6f72746e 	svcvs	0x0072746e
     63c:	6c625f6c 	stclvs	15, cr5, [r2], #-432	; 0xfffffe50
     640:	00745f6b 	rsbseq	r5, r4, fp, ror #30
     644:	755f7773 	ldrbvc	r7, [pc, #-1907]	; fffffed9 <__bss_end__+0xffff4019>
     648:	00747261 	rsbseq	r7, r4, r1, ror #4
     64c:	675f6263 	ldrbvs	r6, [pc, -r3, ror #4]
     650:	625f7465 	subsvs	r7, pc, #1694498816	; 0x65000000
     654:	6b636f6c 	blvs	18dc40c <__bss_end__+0x18d054c>
     658:	625f5f00 	subsvs	r5, pc, #0, 30
     65c:	655f7373 	ldrbvs	r7, [pc, #-883]	; 2f1 <_start-0x7d0f>
     660:	5f5f646e 	svcpl	0x005f646e
     664:	31736300 	cmncc	r3, r0, lsl #6
     668:	2d653034 	stclcs	0, cr3, [r5, #-208]!	; 0xffffff30
     66c:	2f637273 	svccs	0x00637273
     670:	61747363 	cmnvs	r4, r3, ror #6
     674:	632e7472 	teqvs	lr, #1912602624	; 0x72000000
     678:	6e6f6300 	cdpvs	3, 6, cr6, cr15, cr0, {0}
     67c:	656c6f73 	strbvs	r6, [ip, #-3955]!	; 0xf73
     680:	7665645f 			; <UNDEFINED> instruction: 0x7665645f
     684:	67616d00 	strbvs	r6, [r1, -r0, lsl #26]!
     688:	61006369 	tstvs	r0, r9, ror #6
     68c:	73755f74 	cmnvc	r5, #116, 30	; 0x1d0
     690:	6c5f7265 	lfmvs	f7, 2, [pc], {101}	; 0x65
     694:	6c657665 	stclvs	6, cr7, [r5], #-404	; 0xfffffe6c
     698:	5f4d5000 	svcpl	0x004d5000
     69c:	53534150 	cmppl	r3, #80, 2
     6a0:	44524f57 	ldrbmi	r4, [r2], #-3927	; 0xf57
     6a4:	31736300 	cmncc	r3, r0, lsl #6
     6a8:	2d653034 	stclcs	0, cr3, [r5, #-208]!	; 0xffffff30
     6ac:	2f637273 	svccs	0x00637273
     6b0:	6f626572 	svcvs	0x00626572
     6b4:	632e746f 	teqvs	lr, #1862270976	; 0x6f000000
     6b8:	5f4d5000 	svcpl	0x004d5000
     6bc:	43545352 	cmpmi	r4, #1207959553	; 0x48000001
     6c0:	4352575f 	cmpmi	r2, #24903680	; 0x17c0000
     6c4:	465f4746 	ldrbmi	r4, [pc], -r6, asr #14
     6c8:	5f4c4c55 	svcpl	0x004c4c55
     6cc:	45534552 	ldrbmi	r4, [r3, #-1362]	; 0x552
     6d0:	4d500054 	ldclmi	0, cr0, [r0, #-336]	; 0xfffffeb0
     6d4:	4f44575f 	svcmi	0x0044575f
     6d8:	65730047 	ldrbvs	r0, [r3, #-71]!	; 0x47
     6dc:	73755f74 	cmnvc	r5, #116, 30	; 0x1d0
     6e0:	6c5f7265 	lfmvs	f7, 2, [pc], {101}	; 0x65
     6e4:	6c657665 	stclvs	6, cr7, [r5], #-404	; 0xfffffe6c
     6e8:	5f4d5000 	svcpl	0x004d5000
     6ec:	43545352 	cmpmi	r4, #1207959553	; 0x48000001
     6f0:	73706300 	cmnvc	r0, #0, 6
     6f4:	69740072 	ldmdbvs	r4!, {r1, r4, r5, r6}^
     6f8:	5f72656d 	svcpl	0x0072656d
     6fc:	5f746567 	svcpl	0x00746567
     700:	63657375 	cmnvs	r5, #-738197503	; 0xd4000001
     704:	7761725f 			; <UNDEFINED> instruction: 0x7761725f
     708:	6c656400 	cfstrdvs	mvd6, [r5], #-0
     70c:	735f7961 	cmpvc	pc, #1589248	; 0x184000
     710:	63006365 	movwvs	r6, #869	; 0x365
     714:	30343173 	eorscc	r3, r4, r3, ror r1
     718:	72732d65 	rsbsvc	r2, r3, #6464	; 0x1940
     71c:	69742f63 	ldmdbvs	r4!, {r0, r1, r5, r6, r8, r9, sl, fp, sp}^
     720:	2e72656d 	cdpcs	5, 7, cr6, cr2, cr13, {3}
     724:	69740063 	ldmdbvs	r4!, {r0, r1, r5, r6}^
     728:	00736b63 	rsbseq	r6, r3, r3, ror #22
     72c:	616c6564 	cmnvs	ip, r4, ror #10
     730:	79635f79 	stmdbvc	r3!, {r0, r3, r4, r5, r6, r8, r9, sl, fp, ip, lr}^
     734:	73656c63 	cmnvc	r5, #25344	; 0x6300
     738:	6c656400 	cfstrdvs	mvd6, [r5], #-0
     73c:	755f7961 	ldrbvc	r7, [pc, #-2401]	; fffffde3 <__bss_end__+0xffff3f23>
     740:	69740073 	ldmdbvs	r4!, {r0, r1, r4, r5, r6}^
     744:	5f72656d 	svcpl	0x0072656d
     748:	5f746567 	svcpl	0x00746567
     74c:	63657375 	cmnvs	r5, #-738197503	; 0xd4000001
     750:	69706700 	ldmdbvs	r0!, {r8, r9, sl, sp, lr}^
     754:	76655f6f 	strbtvc	r5, [r5], -pc, ror #30
     758:	5f746e65 	svcpl	0x00746e65
     75c:	65746564 	ldrbvs	r6, [r4, #-1380]!	; 0x564
     760:	64657463 	strbtvs	r7, [r5], #-1123	; 0x463
     764:	74757000 	ldrbtvc	r7, [r5], #-0
     768:	47003233 	smladxmi	r0, r3, r2, r3
     76c:	45534650 	ldrbmi	r4, [r3, #-1616]	; 0x650
     770:	4700324c 	strmi	r3, [r0, -ip, asr #4]
     774:	524c4350 	subpl	r4, ip, #80, 6	; 0x40000001
     778:	4e450030 	mcrmi	0, 2, r0, cr5, cr0, {1}
     77c:	454c4241 	strbmi	r4, [ip, #-577]	; 0x241
     780:	5152495f 	cmppl	r2, pc, asr r9
     784:	00325f53 	eorseq	r5, r2, r3, asr pc
     788:	675f7369 	ldrbvs	r7, [pc, -r9, ror #6]
     78c:	5f6f6970 	svcpl	0x006f6970
     790:	00746e69 	rsbseq	r6, r4, r9, ror #28
     794:	4f495047 	svcmi	0x00495047
     798:	4e55465f 	mrcmi	6, 2, r4, cr5, cr15, {2}
     79c:	4e495f43 	cdpmi	15, 4, cr5, cr9, cr3, {2}
     7a0:	00545550 	subseq	r5, r4, r0, asr r5
     7a4:	732d796d 	teqvc	sp, #1785856	; 0x1b4000
     7a8:	672f6372 			; <UNDEFINED> instruction: 0x672f6372
     7ac:	2e6f6970 	mcrcs	9, 3, r6, cr15, cr0, {3}
     7b0:	6e690063 	cdpvs	0, 6, cr0, cr9, cr3, {3}
     7b4:	616d5f74 	smcvs	54772	; 0xd5f4
     7b8:	47006b73 	smlsdxmi	r0, r3, fp, r6
     7bc:	54455350 	strbpl	r5, [r5], #-848	; 0x350
     7c0:	50470030 	subpl	r0, r7, r0, lsr r0
     7c4:	31544553 	cmpcc	r4, r3, asr r5
     7c8:	67657200 	strbvs	r7, [r5, -r0, lsl #4]!
     7cc:	6174735f 	cmnvs	r4, pc, asr r3
     7d0:	50470074 	subpl	r0, r7, r4, ror r0
     7d4:	3056454c 	subscc	r4, r6, ip, asr #10
     7d8:	4c504700 	mrrcmi	7, 0, r4, r0, cr0
     7dc:	00315645 	eorseq	r5, r1, r5, asr #12
     7e0:	6f697067 	svcvs	0x00697067
     7e4:	6765725f 			; <UNDEFINED> instruction: 0x6765725f
     7e8:	46504700 	ldrbmi	r4, [r0], -r0, lsl #14
     7ec:	304c4553 	subcc	r4, ip, r3, asr r5
     7f0:	46504700 	ldrbmi	r4, [r0], -r0, lsl #14
     7f4:	314c4553 	cmpcc	ip, r3, asr r5
     7f8:	46504700 	ldrbmi	r4, [r0], -r0, lsl #14
     7fc:	334c4553 	movtcc	r4, #50515	; 0xc553
     800:	46504700 	ldrbmi	r4, [r0], -r0, lsl #14
     804:	344c4553 	strbcc	r4, [ip], #-1363	; 0x553
     808:	46504700 	ldrbmi	r4, [r0], -r0, lsl #14
     80c:	354c4553 	strbcc	r4, [ip, #-1363]	; 0x553
     810:	76656400 	strbtvc	r6, [r5], -r0, lsl #8
     814:	7261625f 	rsbvc	r6, r1, #-268435451	; 0xf0000005
     818:	72656972 	rsbvc	r6, r5, #1867776	; 0x1c8000
     81c:	69706700 	ldmdbvs	r0!, {r8, r9, sl, sp, lr}^
     820:	73665f6f 	cmnvc	r6, #444	; 0x1bc
     824:	00306c65 	eorseq	r6, r0, r5, ror #24
     828:	4c435047 	mcrrmi	0, 4, r5, r3, cr7
     82c:	67003152 	smlsdvs	r0, r2, r1, r3
     830:	5f6f6970 	svcpl	0x006f6970
     834:	5f746e69 	svcpl	0x00746e69
     838:	69736972 	ldmdbvs	r3!, {r1, r4, r5, r6, r8, fp, sp, lr}^
     83c:	655f676e 	ldrbvs	r6, [pc, #-1902]	; d6 <_start-0x7f2a>
     840:	00656764 	rsbeq	r6, r5, r4, ror #14
     844:	6f697067 	svcvs	0x00697067
     848:	7465735f 	strbtvc	r7, [r5], #-863	; 0x35f
     84c:	6e75665f 	mrcvs	6, 3, r6, cr5, cr15, {2}
     850:	6f697463 	svcvs	0x00697463
     854:	5047006e 	subpl	r0, r7, lr, rrx
     858:	304e4552 	subcc	r4, lr, r2, asr r5
     85c:	52504700 	subspl	r4, r0, #0, 14
     860:	00314e45 	eorseq	r4, r1, r5, asr #28
     864:	6f697067 	svcvs	0x00697067
     868:	6576655f 	ldrbvs	r6, [r6, #-1375]!	; 0x55f
     86c:	635f746e 	cmpvs	pc, #1845493760	; 0x6e000000
     870:	7261656c 	rsbvc	r6, r1, #108, 10	; 0x1b000000
     874:	51524900 	cmppl	r2, r0, lsl #18
     878:	4e45505f 	mcrmi	0, 2, r5, cr5, cr15, {2}
     87c:	474e4944 	strbmi	r4, [lr, -r4, asr #18]
     880:	4900315f 	stmdbmi	r0, {r0, r1, r2, r3, r4, r6, r8, ip, sp}
     884:	505f5152 	subspl	r5, pc, r2, asr r1	; <UNPREDICTABLE>
     888:	49444e45 	stmdbmi	r4, {r0, r2, r6, r9, sl, fp, lr}^
     88c:	325f474e 	subscc	r4, pc, #20447232	; 0x1380000
     890:	74696200 	strbtvc	r6, [r9], #-512	; 0x200
     894:	6b73616d 	blvs	1cd8e50 <__bss_end__+0x1cccf90>
     898:	69706700 	ldmdbvs	r0!, {r8, r9, sl, sp, lr}^
     89c:	65735f6f 	ldrbvs	r5, [r3, #-3951]!	; 0xf6f
     8a0:	47003074 	smlsdxmi	r0, r4, r0, r3
     8a4:	53444550 	movtpl	r4, #17744	; 0x4550
     8a8:	50470030 	subpl	r0, r7, r0, lsr r0
     8ac:	31534445 	cmpcc	r3, r5, asr #8
     8b0:	46504700 	ldrbmi	r4, [r0], -r0, lsl #14
     8b4:	00304e45 	eorseq	r4, r0, r5, asr #28
     8b8:	45465047 	strbmi	r5, [r6, #-71]	; 0x47
     8bc:	4700314e 	strmi	r3, [r0, -lr, asr #2]
     8c0:	5f4f4950 	svcpl	0x004f4950
     8c4:	434e5546 	movtmi	r5, #58694	; 0xe546
     8c8:	54554f5f 	ldrbpl	r4, [r5], #-3935	; 0xf5f
     8cc:	00545550 	subseq	r5, r4, r0, asr r5
     8d0:	33746567 	cmncc	r4, #432013312	; 0x19c00000
     8d4:	70670032 	rsbvc	r0, r7, r2, lsr r0
     8d8:	695f6f69 	ldmdbvs	pc, {r0, r3, r5, r6, r8, r9, sl, fp, sp, lr}^	; <UNPREDICTABLE>
     8dc:	665f746e 	ldrbvs	r7, [pc], -lr, ror #8
     8e0:	696c6c61 	stmdbvs	ip!, {r0, r5, r6, sl, fp, sp, lr}^
     8e4:	655f676e 	ldrbvs	r6, [pc, #-1902]	; 17e <_start-0x7e82>
     8e8:	00656764 	rsbeq	r6, r5, r4, ror #14
     8ec:	6f697067 	svcvs	0x00697067
     8f0:	6e75665f 	mrcvs	6, 3, r6, cr5, cr15, {2}
     8f4:	00745f63 	rsbseq	r5, r4, r3, ror #30
     8f8:	4f495047 	svcmi	0x00495047
     8fc:	4e55465f 	mrcmi	6, 2, r4, cr5, cr15, {2}
     900:	4c415f43 	mcrrmi	15, 4, r5, r1, cr3
     904:	47003054 	smlsdmi	r0, r4, r0, r3
     908:	5f4f4950 	svcpl	0x004f4950
     90c:	434e5546 	movtmi	r5, #58694	; 0xe546
     910:	544c415f 	strbpl	r4, [ip], #-351	; 0x15f
     914:	50470031 	subpl	r0, r7, r1, lsr r0
     918:	465f4f49 	ldrbmi	r4, [pc], -r9, asr #30
     91c:	5f434e55 	svcpl	0x00434e55
     920:	32544c41 	subscc	r4, r4, #16640	; 0x4100
     924:	49504700 	ldmdbmi	r0, {r8, r9, sl, lr}^
     928:	55465f4f 	strbpl	r5, [r6, #-3919]	; 0xf4f
     92c:	415f434e 	cmpmi	pc, lr, asr #6
     930:	0033544c 	eorseq	r5, r3, ip, asr #8
     934:	4f495047 	svcmi	0x00495047
     938:	4e55465f 	mrcmi	6, 2, r4, cr5, cr15, {2}
     93c:	4c415f43 	mcrrmi	15, 4, r5, r1, cr3
     940:	47003454 	smlsdmi	r0, r4, r4, r3
     944:	5f4f4950 	svcpl	0x004f4950
     948:	434e5546 	movtmi	r5, #58694	; 0xe546
     94c:	544c415f 	strbpl	r4, [ip], #-351	; 0x15f
     950:	65720035 	ldrbvs	r0, [r2, #-53]!	; 0x35
     954:	65735f67 	ldrbvs	r5, [r3, #-3943]!	; 0xf67
     958:	7463656c 	strbtvc	r6, [r3], #-1388	; 0x56c
     95c:	69706700 	ldmdbvs	r0!, {r8, r9, sl, sp, lr}^
     960:	6c635f6f 	stclvs	15, cr5, [r3], #-444	; 0xfffffe44
     964:	63003072 	movwvs	r3, #114	; 0x72
     968:	705f6379 	subsvc	r6, pc, r9, ror r3	; <UNPREDICTABLE>
     96c:	625f7265 	subsvs	r7, pc, #1342177286	; 0x50000006
     970:	77007469 	strvc	r7, [r0, -r9, ror #8]
     974:	65746972 	ldrbvs	r6, [r4, #-2418]!	; 0x972
     978:	6379635f 	cmnvs	r9, #2080374785	; 0x7c000001
     97c:	746e755f 	strbtvc	r7, [lr], #-1375	; 0x55f
     980:	73006c69 	movwvc	r6, #3177	; 0xc69
     984:	61755f77 	cmnvs	r5, r7, ror pc
     988:	675f7472 			; <UNDEFINED> instruction: 0x675f7472
     98c:	5f637465 	svcpl	0x00637465
     990:	656d6974 	strbvs	r6, [sp, #-2420]!	; 0x974
     994:	0074756f 	rsbseq	r7, r4, pc, ror #10
     998:	755f7773 	ldrbvc	r7, [pc, #-1907]	; 22d <_start-0x7dd3>
     99c:	5f747261 	svcpl	0x00747261
     9a0:	73746567 	cmnvc	r4, #432013312	; 0x19c00000
     9a4:	746e755f 	strbtvc	r7, [lr], #-1375	; 0x55f
     9a8:	73006c69 	movwvc	r6, #3177	; 0xc69
     9ac:	61755f77 	cmnvs	r5, r7, ror pc
     9b0:	675f7472 			; <UNDEFINED> instruction: 0x675f7472
     9b4:	00637465 	rsbeq	r7, r3, r5, ror #8
     9b8:	69726564 	ldmdbvs	r2!, {r2, r5, r6, r8, sl, sp, lr}^
     9bc:	00646576 	rsbeq	r6, r4, r6, ror r5
     9c0:	616c6564 	cmnvs	ip, r4, ror #10
     9c4:	636e5f79 	cmnvs	lr, #484	; 0x1e4
     9c8:	656c6379 	strbvs	r6, [ip, #-889]!	; 0x379
     9cc:	77730073 			; <UNDEFINED> instruction: 0x77730073
     9d0:	7261755f 	rsbvc	r7, r1, #398458880	; 0x17c00000
     9d4:	6e695f74 	mcrvs	15, 3, r5, cr9, cr4, {3}
     9d8:	685f7469 	ldmdavs	pc, {r0, r3, r5, r6, sl, ip, sp, lr}^	; <UNPREDICTABLE>
     9dc:	65706c65 	ldrbvs	r6, [r0, #-3173]!	; 0xc65
     9e0:	69740072 	ldmdbvs	r4!, {r1, r4, r5, r6}^
     9e4:	756f656d 	strbvc	r6, [pc, #-1389]!	; 47f <_start-0x7b81>
     9e8:	73755f74 	cmnvc	r5, #116, 30	; 0x1d0
     9ec:	73006365 	movwvc	r6, #869	; 0x365
     9f0:	61755f77 	cmnvs	r5, r7, ror pc
     9f4:	705f7472 	subsvc	r7, pc, r2, ror r4	; <UNPREDICTABLE>
     9f8:	006b7475 	rsbeq	r7, fp, r5, ror r4
     9fc:	732d796d 	teqvc	sp, #1785856	; 0x1b4000
     a00:	732f6372 	teqvc	pc, #-939524095	; 0xc8000001
     a04:	61752d77 	cmnvs	r5, r7, ror sp
     a08:	632e7472 	teqvs	lr, #1912602624	; 0x72000000
     a0c:	61686300 	cmnvs	r8, r0, lsl #6
     a10:	6e695f72 	mcrvs	15, 3, r5, cr9, cr2, {3}
     a14:	5f777300 	svcpl	0x00777300
     a18:	74726175 	ldrbtvc	r6, [r2], #-373	; 0x175
     a1c:	7465675f 	strbtvc	r6, [r5], #-1887	; 0x75f
     a20:	69745f73 	ldmdbvs	r4!, {r0, r1, r4, r5, r6, r8, r9, sl, fp, ip, lr}^
     a24:	756f656d 	strbvc	r6, [pc, #-1389]!	; 4bf <_start-0x7b41>
     a28:	6f5f0074 	svcvs	0x005f0074
     a2c:	6e007475 	mcrvs	4, 0, r7, cr0, cr5, {3}
     a30:	65747962 	ldrbvs	r7, [r4, #-2402]!	; 0x962
     a34:	73750073 	cmnvc	r5, #115	; 0x73
     a38:	745f6365 	ldrbvc	r6, [pc], #-869	; a40 <_start-0x75c0>
     a3c:	6f656d69 	svcvs	0x00656d69
     a40:	73007475 	movwvc	r7, #1141	; 0x475
     a44:	61755f77 	cmnvs	r5, r7, ror pc
     a48:	675f7472 			; <UNDEFINED> instruction: 0x675f7472
     a4c:	5f737465 	svcpl	0x00737465
     a50:	69746e75 	ldmdbvs	r4!, {r0, r2, r4, r5, r6, r9, sl, fp, sp, lr}^
     a54:	6c625f6c 	stclvs	15, cr5, [r2], #-432	; 0xfffffe50
     a58:	6177006b 	cmnvs	r7, fp, rrx
     a5c:	755f7469 	ldrbvc	r7, [pc, #-1129]	; 5fb <_start-0x7a05>
     a60:	6c69746e 	cfstrdvs	mvd7, [r9], #-440	; 0xfffffe48
     a64:	6573755f 	ldrbvs	r7, [r3, #-1375]!	; 0x55f
     a68:	55410063 	strbpl	r0, [r1, #-99]	; 0x63
     a6c:	554d5f58 	strbpl	r5, [sp, #-3928]	; 0xf58
     a70:	52434d5f 	subpl	r4, r3, #6080	; 0x17c0
     a74:	4745525f 	smlsldmi	r5, r5, pc, r2	; <UNPREDICTABLE>
     a78:	58554100 	ldmdapl	r5, {r8, lr}^
     a7c:	5f554d5f 	svcpl	0x00554d5f
     a80:	525f4f49 	subspl	r4, pc, #292	; 0x124
     a84:	41004745 	tstmi	r0, r5, asr #14
     a88:	4d5f5855 	ldclmi	8, cr5, [pc, #-340]	; 93c <_start-0x76c4>
     a8c:	534d5f55 	movtpl	r5, #57173	; 0xdf55
     a90:	45525f52 	ldrbmi	r5, [r2, #-3922]	; 0xf52
     a94:	61750047 	cmnvs	r5, r7, asr #32
     a98:	635f7472 	cmpvs	pc, #1912602624	; 0x72000000
     a9c:	675f6e61 	ldrbvs	r6, [pc, -r1, ror #28]
     aa0:	00637465 	rsbeq	r7, r3, r5, ror #8
     aa4:	5f585541 	svcpl	0x00585541
     aa8:	435f554d 	cmpmi	pc, #322961408	; 0x13400000
     aac:	5f4c544e 	svcpl	0x004c544e
     ab0:	00474552 	subeq	r4, r7, r2, asr r5
     ab4:	74726175 	ldrbtvc	r6, [r2], #-373	; 0x175
     ab8:	7361685f 	cmnvc	r1, #6225920	; 0x5f0000
     abc:	7461645f 	strbtvc	r6, [r1], #-1119	; 0x45f
     ac0:	61750061 	cmnvs	r5, r1, rrx
     ac4:	695f7472 	ldmdbvs	pc, {r1, r4, r5, r6, sl, ip, sp, lr}^	; <UNPREDICTABLE>
     ac8:	0074696e 	rsbseq	r6, r4, lr, ror #18
     acc:	5f585541 	svcpl	0x00585541
     ad0:	495f554d 	ldmdbmi	pc, {r0, r2, r3, r6, r8, sl, ip, lr}^	; <UNPREDICTABLE>
     ad4:	525f5245 	subspl	r5, pc, #1342177284	; 0x50000004
     ad8:	41004745 	tstmi	r0, r5, asr #14
     adc:	4d5f5855 	ldclmi	8, cr5, [pc, #-340]	; 990 <_start-0x7670>
     ae0:	49495f55 	stmdbmi	r9, {r0, r2, r4, r6, r8, r9, sl, fp, ip, lr}^
     ae4:	45525f52 	ldrbmi	r5, [r2, #-3922]	; 0xf52
     ae8:	61750047 	cmnvs	r5, r7, asr #32
     aec:	635f7472 	cmpvs	pc, #1912602624	; 0x72000000
     af0:	705f6e61 	subsvc	r6, pc, r1, ror #28
     af4:	00637475 	rsbeq	r7, r3, r5, ror r4
     af8:	5f585541 	svcpl	0x00585541
     afc:	42414e45 	submi	r4, r1, #1104	; 0x450
     b00:	0053454c 	subseq	r4, r3, ip, asr #10
     b04:	5f585541 	svcpl	0x00585541
     b08:	00515249 	subseq	r5, r1, r9, asr #4
     b0c:	5f585541 	svcpl	0x00585541
     b10:	425f554d 	subsmi	r5, pc, #322961408	; 0x13400000
     b14:	5f445541 	svcpl	0x00445541
     b18:	00474552 	subeq	r4, r7, r2, asr r5
     b1c:	5f585541 	svcpl	0x00585541
     b20:	535f554d 	cmppl	pc, #322961408	; 0x13400000
     b24:	5f544154 	svcpl	0x00544154
     b28:	00474552 	subeq	r4, r7, r2, asr r5
     b2c:	5f585541 	svcpl	0x00585541
     b30:	535f554d 	cmppl	pc, #322961408	; 0x13400000
     b34:	54415243 	strbpl	r5, [r1], #-579	; 0x243
     b38:	6d004843 	stcvs	8, cr4, [r0, #-268]	; 0xfffffef4
     b3c:	72732d79 	rsbsvc	r2, r3, #7744	; 0x1e40
     b40:	61752f63 	cmnvs	r5, r3, ror #30
     b44:	632e7472 	teqvs	lr, #1912602624	; 0x72000000
     b48:	58554100 	ldmdapl	r5, {r8, lr}^
     b4c:	5f554d5f 	svcpl	0x00554d5f
     b50:	5f52434c 	svcpl	0x0052434c
     b54:	00474552 	subeq	r4, r7, r2, asr r5
     b58:	5f585541 	svcpl	0x00585541
     b5c:	4c5f554d 	cfldr64mi	mvdx5, [pc], {77}	; 0x4d
     b60:	525f5253 	subspl	r5, pc, #805306373	; 0x30000005
     b64:	75004745 	strvc	r4, [r0, #-1861]	; 0x745
     b68:	5f747261 	svcpl	0x00747261
     b6c:	63746567 	cmnvs	r4, #432013312	; 0x19c00000
     b70:	7973615f 	ldmdbvc	r3!, {r0, r1, r2, r3, r4, r6, r8, sp, lr}^
     b74:	7000636e 	andvc	r6, r0, lr, ror #6
     b78:	65666572 	strbvs	r6, [r6, #-1394]!	; 0x572
     b7c:	5f686374 	svcpl	0x00686374
     b80:	726f6261 	rsbvc	r6, pc, #268435462	; 0x10000006
     b84:	65765f74 	ldrbvs	r5, [r6, #-3956]!	; 0xf74
     b88:	726f7463 	rsbvc	r7, pc, #1660944384	; 0x63000000
     b8c:	73694400 	cmnvc	r9, #0, 8
     b90:	656c6261 	strbvs	r6, [ip, #-609]!	; 0x261
     b94:	7361425f 	cmnvc	r1, #-268435451	; 0xf0000005
     b98:	495f6369 	ldmdbmi	pc, {r0, r3, r5, r6, r8, r9, sp, lr}^	; <UNPREDICTABLE>
     b9c:	00735152 	rsbseq	r5, r3, r2, asr r1
     ba0:	5f514946 	svcpl	0x00514946
     ba4:	746e6f63 	strbtvc	r6, [lr], #-3939	; 0xf63
     ba8:	006c6f72 	rsbeq	r6, ip, r2, ror pc
     bac:	746e695f 	strbtvc	r6, [lr], #-2399	; 0x95f
     bb0:	75727265 	ldrbvc	r7, [r2, #-613]!	; 0x265
     bb4:	745f7470 	ldrbvc	r7, [pc], #-1136	; bbc <_start-0x7444>
     bb8:	656c6261 	strbvs	r6, [ip, #-609]!	; 0x261
     bbc:	51524900 	cmppl	r2, r0, lsl #18
     bc0:	7361625f 	cmnvc	r1, #-268435451	; 0xf0000005
     bc4:	705f6369 	subsvc	r6, pc, r9, ror #6
     bc8:	69646e65 	stmdbvs	r4!, {r0, r2, r5, r6, r9, sl, fp, sp, lr}^
     bcc:	4500676e 	strmi	r6, [r0, #-1902]	; 0x76e
     bd0:	6c62616e 	stfvse	f6, [r2], #-440	; 0xfffffe48
     bd4:	61425f65 	cmpvs	r2, r5, ror #30
     bd8:	5f636973 	svcpl	0x00636973
     bdc:	73515249 	cmpvc	r1, #-1879048188	; 0x90000004
     be0:	616e4500 	cmnvs	lr, r0, lsl #10
     be4:	5f656c62 	svcpl	0x00656c62
     be8:	73515249 	cmpvc	r1, #-1879048188	; 0x90000004
     bec:	4500315f 	strmi	r3, [r0, #-351]	; 0x15f
     bf0:	6c62616e 	stfvse	f6, [r2], #-440	; 0xfffffe48
     bf4:	52495f65 	subpl	r5, r9, #404	; 0x194
     bf8:	325f7351 	subscc	r7, pc, #1140850689	; 0x44000001
     bfc:	6e695f00 	cdpvs	15, 6, cr5, cr9, cr0, {0}
     c00:	72726574 	rsbsvc	r6, r2, #116, 10	; 0x1d000000
     c04:	5f747075 	svcpl	0x00747075
     c08:	6c626174 	stfvse	f6, [r2], #-464	; 0xfffffe30
     c0c:	6e655f65 	cdpvs	15, 6, cr5, cr5, cr5, {3}
     c10:	61640064 	cmnvs	r4, r4, rrx
     c14:	615f6174 	cmpvs	pc, r4, ror r1	; <UNPREDICTABLE>
     c18:	74726f62 	ldrbtvc	r6, [r2], #-3938	; 0xf62
     c1c:	6365765f 	cmnvs	r5, #99614720	; 0x5f00000
     c20:	00726f74 	rsbseq	r6, r2, r4, ror pc
     c24:	5f515249 	svcpl	0x00515249
     c28:	646e6570 	strbtvs	r6, [lr], #-1392	; 0x570
     c2c:	5f676e69 	svcpl	0x00676e69
     c30:	73630032 	cmnvc	r3, #50	; 0x32
     c34:	65303431 	ldrvs	r3, [r0, #-1073]!	; 0x431
     c38:	746e692d 	strbtvc	r6, [lr], #-2349	; 0x92d
     c3c:	75727265 	ldrbvc	r7, [r2, #-613]!	; 0x265
     c40:	692f7470 	stmdbvs	pc!, {r4, r5, r6, sl, ip, sp, lr}	; <UNPREDICTABLE>
     c44:	7265746e 	rsbvc	r7, r5, #1845493760	; 0x6e000000
     c48:	74707572 	ldrbtvc	r7, [r0], #-1394	; 0x572
     c4c:	2e632d73 	mcrcs	13, 3, r2, cr3, cr3, {3}
     c50:	52490063 	subpl	r0, r9, #99	; 0x63
     c54:	65705f51 	ldrbvs	r5, [r0, #-3921]!	; 0xf51
     c58:	6e69646e 	cdpvs	4, 6, cr6, cr9, cr14, {3}
     c5c:	00315f67 	eorseq	r5, r1, r7, ror #30
     c60:	65646e75 	strbvs	r6, [r4, #-3701]!	; 0xe75
     c64:	656e6966 	strbvs	r6, [lr, #-2406]!	; 0x966
     c68:	6e695f64 	cdpvs	15, 6, cr5, cr9, cr4, {3}
     c6c:	75727473 	ldrbvc	r7, [r2, #-1139]!	; 0x473
     c70:	6f697463 	svcvs	0x00697463
     c74:	65765f6e 	ldrbvs	r5, [r6, #-3950]!	; 0xf6e
     c78:	726f7463 	rsbvc	r7, pc, #1660944384	; 0x63000000
     c7c:	73657200 	cmnvc	r5, #0, 4
     c80:	765f7465 	ldrbvc	r7, [pc], -r5, ror #8
     c84:	6f746365 	svcvs	0x00746365
     c88:	6f730072 	svcvs	0x00730072
     c8c:	61777466 	cmnvs	r7, r6, ror #8
     c90:	695f6572 	ldmdbvs	pc, {r1, r4, r5, r6, r8, sl, sp, lr}^	; <UNPREDICTABLE>
     c94:	7265746e 	rsbvc	r7, r5, #1845493760	; 0x6e000000
     c98:	74707572 	ldrbtvc	r7, [r0], #-1394	; 0x572
     c9c:	6365765f 	cmnvs	r5, #99614720	; 0x5f00000
     ca0:	00726f74 	rsbseq	r6, r2, r4, ror pc
     ca4:	61736944 	cmnvs	r3, r4, asr #18
     ca8:	5f656c62 	svcpl	0x00656c62
     cac:	73515249 	cmpvc	r1, #-1879048188	; 0x90000004
     cb0:	4400315f 	strmi	r3, [r0], #-351	; 0x15f
     cb4:	62617369 	rsbvs	r7, r1, #-1543503871	; 0xa4000001
     cb8:	495f656c 	ldmdbmi	pc, {r2, r3, r5, r6, r8, sl, sp, lr}^	; <UNPREDICTABLE>
     cbc:	5f735152 	svcpl	0x00735152
     cc0:	61660032 	cmnvs	r6, r2, lsr r0
     cc4:	695f7473 	ldmdbvs	pc, {r0, r1, r4, r5, r6, sl, ip, sp, lr}^	; <UNPREDICTABLE>
     cc8:	7265746e 	rsbvc	r7, r5, #1845493760	; 0x6e000000
     ccc:	74707572 	ldrbtvc	r7, [r0], #-1394	; 0x572
     cd0:	6365765f 	cmnvs	r5, #99614720	; 0x5f00000
     cd4:	00726f74 	rsbseq	r6, r2, r4, ror pc
     cd8:	5f515249 	svcpl	0x00515249
     cdc:	65736142 	ldrbvs	r6, [r3, #-322]!	; 0x142
     ce0:	73645f00 	cmnvc	r4, #0, 30
     ce4:	61685f6f 	cmnvs	r8, pc, ror #30
     ce8:	656c646e 	strbvs	r6, [ip, #-1134]!	; 0x46e
     cec:	72617500 	rsbvc	r7, r1, #0, 10
     cf0:	6e655f74 	mcrvs	15, 3, r5, cr5, cr4, {3}
     cf4:	656c6261 	strbvs	r6, [ip, #-609]!	; 0x261
     cf8:	746e695f 	strbtvc	r6, [lr], #-2399	; 0x95f
     cfc:	735f0073 	cmpvc	pc, #115	; 0x73
     d00:	00657a69 	rsbeq	r7, r5, r9, ror #20
     d04:	74726175 	ldrbtvc	r6, [r2], #-373	; 0x175
     d08:	616e655f 	cmnvs	lr, pc, asr r5
     d0c:	5f656c62 	svcpl	0x00656c62
     d10:	5f757067 	svcpl	0x00757067
     d14:	00746e69 	rsbseq	r6, r4, r9, ror #28
     d18:	6e61725f 	mcrvs	2, 3, r7, cr1, cr15, {2}
     d1c:	00383464 	eorseq	r3, r8, r4, ror #8
     d20:	656d655f 	strbvs	r6, [sp, #-1375]!	; 0x55f
     d24:	6e656772 	mcrvs	7, 3, r6, cr5, cr2, {3}
     d28:	65007963 	strvs	r7, [r0, #-2403]	; 0x963
     d2c:	726f7272 	rsbvc	r7, pc, #536870919	; 0x20000007
     d30:	61665f73 	smcvs	26099	; 0x65f3
     d34:	5f6c6174 	svcpl	0x006c6174
     d38:	65670070 	strbvs	r0, [r7, #-112]!	; 0x70
     d3c:	68005174 	stmdavs	r0, {r2, r4, r5, r6, r8, ip, lr}
     d40:	61755f77 	cmnvs	r5, r7, ror pc
     d44:	745f7472 	ldrbvc	r7, [pc], #-1138	; d4c <_start-0x72b4>
     d48:	63775f00 	cmnvs	r7, #0, 30
     d4c:	6d6f7472 	cfstrdvs	mvd7, [pc, #-456]!	; b8c <_start-0x7474>
     d50:	74735f62 	ldrbtvc	r5, [r3], #-3938	; 0xf62
     d54:	00657461 	rsbeq	r7, r5, r1, ror #8
     d58:	7363775f 	cmnvc	r3, #24903680	; 0x17c0000
     d5c:	6d6f7472 	cfstrdvs	mvd7, [pc, #-456]!	; b9c <_start-0x7464>
     d60:	735f7362 	cmpvc	pc, #-2013265919	; 0x88000001
     d64:	65746174 	ldrbvs	r6, [r4, #-372]!	; 0x174
     d68:	626c5f00 	rsbvs	r5, ip, #0, 30
     d6c:	7a697366 	bvc	1a5db0c <__bss_end__+0x1a51c4c>
     d70:	71630065 	cmnvc	r3, r5, rrx
     d74:	706f705f 	rsbvc	r7, pc, pc, asr r0	; <UNPREDICTABLE>
     d78:	6c5f5f00 	mrrcvs	15, 0, r5, pc, cr0	; <UNPREDICTABLE>
     d7c:	6c61636f 	stclvs	3, cr6, [r1], #-444	; 0xfffffe44
     d80:	00745f65 	rsbseq	r5, r4, r5, ror #30
     d84:	655f7163 	ldrbvs	r7, [pc, #-355]	; c29 <_start-0x73d7>
     d88:	7974706d 	ldmdbvc	r4!, {r0, r2, r3, r5, r6, ip, sp, lr}^
     d8c:	626d5f00 	rsbvs	r5, sp, #0, 30
     d90:	776f7472 			; <UNDEFINED> instruction: 0x776f7472
     d94:	74735f63 	ldrbtvc	r5, [r3], #-3939	; 0xf63
     d98:	00657461 	rsbeq	r7, r5, r1, ror #8
     d9c:	6d745f5f 	ldclvs	15, cr5, [r4, #-380]!	; 0xfffffe84
     da0:	6365735f 	cmnvs	r5, #2080374785	; 0x7c000001
     da4:	52415500 	subpl	r5, r1, #0, 10
     da8:	58525f54 	ldmdapl	r2, {r2, r4, r6, r8, r9, sl, fp, ip, lr}^
     dac:	544e495f 	strbpl	r4, [lr], #-2399	; 0x95f
     db0:	62755f00 	rsbsvs	r5, r5, #0, 30
     db4:	5f006675 	svcpl	0x00006675
     db8:	65736162 	ldrbvs	r6, [r3, #-354]!	; 0x162
     dbc:	746e6300 	strbtvc	r6, [lr], #-768	; 0x300
     dc0:	5f5f006c 	svcpl	0x005f006c
     dc4:	685f6d74 	ldmdavs	pc, {r2, r4, r5, r6, r8, sl, fp, sp, lr}^	; <UNPREDICTABLE>
     dc8:	0072756f 	rsbseq	r7, r2, pc, ror #10
     dcc:	66735f5f 	uhsaxvs	r5, r3, pc	; <UNPREDICTABLE>
     dd0:	6e6f5f00 	cdpvs	15, 6, cr5, cr15, cr0, {0}
     dd4:	6978655f 	ldmdbvs	r8!, {r0, r1, r2, r3, r4, r6, r8, sl, sp, lr}^
     dd8:	72615f74 	rsbvc	r5, r1, #116, 30	; 0x1d0
     ddc:	5f007367 	svcpl	0x00007367
     de0:	6b6f6f63 	blvs	1bdcb74 <__bss_end__+0x1bd0cb4>
     de4:	5f006569 	svcpl	0x00006569
     de8:	6c67735f 	stclvs	3, cr7, [r7], #-380	; 0xfffffe84
     dec:	63006575 	movwvs	r6, #1397	; 0x575
     df0:	5f727370 	svcpl	0x00727370
     df4:	00746567 	rsbseq	r6, r4, r7, ror #10
     df8:	616c665f 	cmnvs	ip, pc, asr r6
     dfc:	5f007367 	svcpl	0x00007367
     e00:	635f7369 	cmpvs	pc, #-1543503871	; 0xa4000001
     e04:	5f006178 	svcpl	0x00006178
     e08:	69647473 	stmdbvs	r4!, {r0, r1, r4, r5, r6, sl, ip, sp, lr}^
     e0c:	625f006e 	subsvs	r0, pc, #110	; 0x6e
     e10:	69736b6c 	ldmdbvs	r3!, {r2, r3, r5, r6, r8, r9, fp, sp, lr}^
     e14:	6e00657a 	cfrshl64vs	mvdx0, mvdx10, r6
     e18:	7261755f 	rsbvc	r7, r1, #398458880	; 0x17c00000
     e1c:	6e695f74 	mcrvs	15, 3, r5, cr9, cr4, {3}
     e20:	72726574 	rsbsvc	r6, r2, #116, 10	; 0x1d000000
     e24:	73747075 	cmnvc	r4, #117	; 0x75
     e28:	61656800 	cmnvs	r5, r0, lsl #16
     e2c:	635f0064 	cmpvs	pc, #100	; 0x64
     e30:	75627476 	strbvc	r7, [r2, #-1142]!	; 0x476
     e34:	6f5f0066 	svcvs	0x005f0066
     e38:	65736666 	ldrbvs	r6, [r3, #-1638]!	; 0x666
     e3c:	75700074 	ldrbvc	r0, [r0, #-116]!	; 0x74
     e40:	5f005174 	svcpl	0x00005174
     e44:	7273626d 	rsbsvc	r6, r3, #-805306362	; 0xd0000006
     e48:	63776f74 	cmnvs	r7, #116, 30	; 0x1d0
     e4c:	74735f73 	ldrbtvc	r5, [r3], #-3955	; 0xf73
     e50:	00657461 	rsbeq	r7, r5, r1, ror #8
     e54:	72626d5f 	rsbvc	r6, r2, #6080	; 0x17c0
     e58:	5f6e656c 	svcpl	0x006e656c
     e5c:	74617473 	strbtvc	r7, [r1], #-1139	; 0x473
     e60:	665f0065 	ldrbvs	r0, [pc], -r5, rrx
     e64:	6772616e 	ldrbvs	r6, [r2, -lr, ror #2]!
     e68:	665f0073 			; <UNDEFINED> instruction: 0x665f0073
     e6c:	6300736e 	movwvs	r7, #878	; 0x36e
     e70:	656e5f71 	strbvs	r5, [lr, #-3953]!	; 0xf71
     e74:	006d656c 	rsbeq	r6, sp, ip, ror #10
     e78:	6769735f 			; <UNDEFINED> instruction: 0x6769735f
     e7c:	665f006e 	ldrbvs	r0, [pc], -lr, rrx
     e80:	6b636f6c 	blvs	18dcc38 <__bss_end__+0x18d0d78>
     e84:	5f00745f 	svcpl	0x0000745f
     e88:	65647473 	strbvs	r7, [r4, #-1139]!	; 0x473
     e8c:	5f007272 	svcpl	0x00007272
     e90:	69676942 	stmdbvs	r7!, {r1, r6, r8, fp, sp, lr}^
     e94:	5f00746e 	svcpl	0x0000746e
     e98:	6d6d6167 	stfvse	f6, [sp, #-412]!	; 0xfffffe64
     e9c:	69735f61 	ldmdbvs	r3!, {r0, r5, r6, r8, r9, sl, fp, ip, lr}^
     ea0:	61676e67 	cmnvs	r7, r7, ror #28
     ea4:	725f006d 	subsvc	r0, pc, #109	; 0x6d
     ea8:	6c757365 	ldclvs	3, cr7, [r5], #-404	; 0xfffffe6c
     eac:	006b5f74 	rsbeq	r5, fp, r4, ror pc
     eb0:	6d745f5f 	ldclvs	15, cr5, [r4, #-380]!	; 0xfffffe84
     eb4:	775f5f00 	ldrbvc	r5, [pc, -r0, lsl #30]
     eb8:	00626863 	rsbeq	r6, r2, r3, ror #16
     ebc:	6474735f 	ldrbtvs	r7, [r4], #-863	; 0x35f
     ec0:	0074756f 	rsbseq	r7, r4, pc, ror #10
     ec4:	7476635f 	ldrbtvc	r6, [r6], #-863	; 0x35f
     ec8:	006e656c 	rsbeq	r6, lr, ip, ror #10
     ecc:	6c69665f 	stclvs	6, cr6, [r9], #-380	; 0xfffffe84
     ed0:	6e5f0065 	cdpvs	0, 5, cr0, cr15, cr5, {3}
     ed4:	73626f69 	cmnvc	r2, #420	; 0x1a4
     ed8:	74615f00 	strbtvc	r5, [r1], #-3840	; 0xf00
     edc:	74697865 	strbtvc	r7, [r9], #-2149	; 0x865
     ee0:	61750030 	cmnvs	r5, r0, lsr r0
     ee4:	745f7472 	ldrbvc	r7, [pc], #-1138	; eec <_start-0x7114>
     ee8:	6e695f78 	mcrvs	15, 3, r5, cr9, cr8, {3}
     eec:	6e655f74 	mcrvs	15, 3, r5, cr5, cr4, {3}
     ef0:	656c6261 	strbvs	r6, [ip, #-609]!	; 0x261
     ef4:	735f0064 	cmpvc	pc, #100	; 0x64
     ef8:	616e6769 	cmnvs	lr, r9, ror #14
     efc:	75625f6c 	strbvc	r5, [r2, #-3948]!	; 0xf6c
     f00:	615f0066 	cmpvs	pc, r6, rrx
     f04:	69746373 	ldmdbvs	r4!, {r0, r1, r4, r5, r6, r8, r9, sp, lr}^
     f08:	625f656d 	subsvs	r6, pc, #457179136	; 0x1b400000
     f0c:	5f006675 	svcpl	0x00006675
     f10:	75736572 	ldrbvc	r6, [r3, #-1394]!	; 0x572
     f14:	5f00746c 	svcpl	0x0000746c
     f18:	6863775f 	stmdavs	r3!, {r0, r1, r2, r3, r4, r6, r8, r9, sl, ip, sp, lr}^
     f1c:	4f4c5f00 	svcmi	0x004c5f00
     f20:	545f4b43 	ldrbpl	r4, [pc], #-2883	; f28 <_start-0x70d8>
     f24:	6e697700 	cdpvs	7, 6, cr7, cr9, cr0, {0}
     f28:	00745f74 	rsbseq	r5, r4, r4, ror pc
     f2c:	616c665f 	cmnvs	ip, pc, asr r6
     f30:	00327367 	eorseq	r7, r2, r7, ror #6
     f34:	3233726f 	eorscc	r7, r3, #-268435450	; 0xf0000006
     f38:	745f5f00 	ldrbvc	r5, [pc], #-3840	; f40 <_start-0x70c0>
     f3c:	65795f6d 	ldrbvs	r5, [r9, #-3949]!	; 0xf6d
     f40:	75007261 	strvc	r7, [r0, #-609]	; 0x261
     f44:	5f747261 	svcpl	0x00747261
     f48:	5f736168 	svcpl	0x00736168
     f4c:	61746164 	cmnvs	r4, r4, ror #2
     f50:	746e695f 	strbtvc	r6, [lr], #-2399	; 0x95f
     f54:	72617500 	rsbvc	r7, r1, #0, 10
     f58:	69645f74 	stmdbvs	r4!, {r2, r4, r5, r6, r8, r9, sl, fp, ip, lr}^
     f5c:	6c626173 	stfvse	f6, [r2], #-460	; 0xfffffe34
     f60:	78745f65 	ldmdavc	r4!, {r0, r2, r5, r6, r8, r9, sl, fp, ip, lr}^
     f64:	746e695f 	strbtvc	r6, [lr], #-2399	; 0x95f
     f68:	625f6300 	subsvs	r6, pc, #0, 6
     f6c:	74006675 	strvc	r6, [r0], #-1653	; 0x675
     f70:	006c6961 	rsbeq	r6, ip, r1, ror #18
     f74:	74726175 	ldrbtvc	r6, [r2], #-373	; 0x175
     f78:	7465675f 	strbtvc	r6, [r5], #-1887	; 0x75f
     f7c:	7875615f 	ldmdavc	r5!, {r0, r1, r2, r3, r4, r6, r8, sp, lr}^
     f80:	7172695f 	cmnvc	r2, pc, asr r9
     f84:	72617500 	rsbvc	r7, r1, #0, 10
     f88:	65675f74 	strbvs	r5, [r7, #-3956]!	; 0xf74
     f8c:	6e5f0074 	mrcvs	0, 2, r0, cr15, cr4, {3}
     f90:	66747865 	ldrbtvs	r7, [r4], -r5, ror #16
     f94:	5f716300 	svcpl	0x00716300
     f98:	5f706f70 	svcpl	0x00706f70
     f9c:	626e6f6e 	rsbvs	r6, lr, #440	; 0x1b8
     fa0:	6b636f6c 	blvs	18dcd58 <__bss_end__+0x18d0e98>
     fa4:	5f716300 	svcpl	0x00716300
     fa8:	74696e69 	strbtvc	r6, [r9], #-3689	; 0xe69
     fac:	745f5f00 	ldrbvc	r5, [pc], #-3840	; fb4 <_start-0x704c>
     fb0:	6f6d5f6d 	svcvs	0x006d5f6d
     fb4:	615f006e 	cmpvs	pc, lr, rrx
     fb8:	69786574 	ldmdbvs	r8!, {r2, r4, r5, r6, r8, sl, sp, lr}^
     fbc:	4e470074 	mcrmi	0, 2, r0, cr7, cr4, {3}
     fc0:	39432055 	stmdbcc	r3, {r0, r2, r4, r6, sp}^
     fc4:	2e372039 	mrccs	0, 1, r2, cr7, cr9, {1}
     fc8:	20312e33 	eorscs	r2, r1, r3, lsr lr
     fcc:	38313032 	ldmdacc	r1!, {r1, r4, r5, ip, sp}
     fd0:	32323630 	eorscc	r3, r2, #48, 12	; 0x3000000
     fd4:	65722820 	ldrbvs	r2, [r2, #-2080]!	; 0x820
     fd8:	7361656c 	cmnvc	r1, #108, 10	; 0x1b000000
     fdc:	5b202965 	blpl	80b578 <__bss_end__+0x7ff6b8>
     fe0:	2f4d5241 	svccs	0x004d5241
     fe4:	65626d65 	strbvs	r6, [r2, #-3429]!	; 0xd65
     fe8:	64656464 	strbtvs	r6, [r5], #-1124	; 0x464
     fec:	622d372d 	eorvs	r3, sp, #11796480	; 0xb40000
     ff0:	636e6172 	cmnvs	lr, #-2147483620	; 0x8000001c
     ff4:	65722068 	ldrbvs	r2, [r2, #-104]!	; 0x68
     ff8:	69736976 	ldmdbvs	r3!, {r1, r2, r4, r5, r6, r8, fp, sp, lr}^
     ffc:	32206e6f 	eorcc	r6, r0, #1776	; 0x6f0
    1000:	30393136 	eorscc	r3, r9, r6, lsr r1
    1004:	2d205d37 	stccs	13, cr5, [r0, #-220]!	; 0xffffff24
    1008:	7570636d 	ldrbvc	r6, [r0, #-877]!	; 0x36d
    100c:	6d72613d 	ldfvse	f6, [r2, #-244]!	; 0xffffff0c
    1010:	36373131 			; <UNDEFINED> instruction: 0x36373131
    1014:	2d667a6a 	vstmdbcs	r6!, {s15-s120}
    1018:	6d2d2073 	stcvs	0, cr2, [sp, #-460]!	; 0xfffffe34
    101c:	656e7574 	strbvs	r7, [lr, #-1396]!	; 0x574
    1020:	6d72613d 	ldfvse	f6, [r2, #-244]!	; 0xffffff0c
    1024:	36373131 			; <UNDEFINED> instruction: 0x36373131
    1028:	2d667a6a 	vstmdbcs	r6!, {s15-s120}
    102c:	672d2073 			; <UNDEFINED> instruction: 0x672d2073
    1030:	20626467 	rsbcs	r6, r2, r7, ror #8
    1034:	20674f2d 	rsbcs	r4, r7, sp, lsr #30
    1038:	6474732d 	ldrbtvs	r7, [r4], #-813	; 0x32d
    103c:	756e673d 	strbvc	r6, [lr, #-1853]!	; 0x73d
    1040:	2d203939 	stccs	9, cr3, [r0, #-228]!	; 0xffffff1c
    1044:	65726666 	ldrbvs	r6, [r2, #-1638]!	; 0x666
    1048:	61747365 	cmnvs	r4, r5, ror #6
    104c:	6e69646e 	cdpvs	4, 6, cr6, cr9, cr14, {3}
    1050:	5f5f0067 	svcpl	0x005f0067
    1054:	64696473 	strbtvs	r6, [r9], #-1139	; 0x473
    1058:	74696e69 	strbtvc	r6, [r9], #-3689	; 0xe69
    105c:	666f5f00 	strbtvs	r5, [pc], -r0, lsl #30
    1060:	00745f66 	rsbseq	r5, r4, r6, ror #30
    1064:	6572665f 	ldrbvs	r6, [r2, #-1631]!	; 0x65f
    1068:	73696c65 	cmnvc	r9, #25856	; 0x6500
    106c:	775f0074 			; <UNDEFINED> instruction: 0x775f0074
    1070:	6d6f7463 	cfstrdvs	mvd7, [pc, #-396]!	; eec <_start-0x7114>
    1074:	74735f62 	ldrbtvc	r5, [r3], #-3938	; 0xf62
    1078:	00657461 	rsbeq	r7, r5, r1, ror #8
    107c:	74726175 	ldrbtvc	r6, [r2], #-373	; 0x175
    1080:	616e655f 	cmnvs	lr, pc, asr r5
    1084:	5f656c62 	svcpl	0x00656c62
    1088:	695f7872 	ldmdbvs	pc, {r1, r4, r5, r6, fp, ip, sp, lr}^	; <UNPREDICTABLE>
    108c:	6100746e 	tstvs	r0, lr, ror #8
    1090:	705f7875 	subsvc	r7, pc, r5, ror r8	; <UNPREDICTABLE>
    1094:	70697265 	rsbvc	r7, r9, r5, ror #4
    1098:	55007368 	strpl	r7, [r0, #-872]	; 0x368
    109c:	5f545241 	svcpl	0x00545241
    10a0:	495f4f4e 	ldmdbmi	pc, {r1, r2, r3, r6, r8, r9, sl, fp, lr}^	; <UNPREDICTABLE>
    10a4:	2f00544e 	svccs	0x0000544e
    10a8:	656d6f68 	strbvs	r6, [sp, #-3944]!	; 0xf68
    10ac:	676e652f 	strbvs	r6, [lr, -pc, lsr #10]!
    10b0:	2f72656c 	svccs	0x0072656c
    10b4:	73616c63 	cmnvc	r1, #25344	; 0x6300
    10b8:	73632f73 	cmnvc	r3, #460	; 0x1cc
    10bc:	65303431 	ldrvs	r3, [r0, #-1073]!	; 0x431
    10c0:	7730322d 	ldrvc	r3, [r0, -sp, lsr #4]!
    10c4:	6c2f6e69 	stcvs	14, cr6, [pc], #-420	; f28 <_start-0x70d8>
    10c8:	69706269 	ldmdbvs	r0!, {r0, r3, r5, r6, r9, sp, lr}^
    10cc:	3173632f 	cmncc	r3, pc, lsr #6
    10d0:	2d653034 	stclcs	0, cr3, [r5, #-208]!	; 0xffffff30
    10d4:	76697270 			; <UNDEFINED> instruction: 0x76697270
    10d8:	00657461 	rsbeq	r7, r5, r1, ror #8
    10dc:	655f685f 	ldrbvs	r6, [pc, #-2143]	; 885 <_start-0x777b>
    10e0:	6f6e7272 	svcvs	0x006e7272
    10e4:	745f5f00 	ldrbvc	r5, [pc], #-3840	; 10ec <_start-0x6f14>
    10e8:	64795f6d 	ldrbtvs	r5, [r9], #-3949	; 0xf6d
    10ec:	5f007961 	svcpl	0x00007961
    10f0:	7562735f 	strbvc	r7, [r2, #-863]!	; 0x35f
    10f4:	695f0066 	ldmdbvs	pc, {r1, r2, r5, r6}^	; <UNPREDICTABLE>
    10f8:	0073626f 	rsbseq	r6, r3, pc, ror #4
    10fc:	74726175 	ldrbtvc	r6, [r2], #-373	; 0x175
    1100:	746e695f 	strbtvc	r6, [lr], #-2399	; 0x95f
    1104:	756c665f 	strbvc	r6, [ip, #-1631]!	; 0x65f
    1108:	615f6873 	cmpvs	pc, r3, ror r8	; <UNPREDICTABLE>
    110c:	5f006c6c 	svcpl	0x00006c6c
    1110:	4c49465f 	mcrrmi	6, 5, r4, r9, cr15
    1114:	6d5f0045 	ldclvs	0, cr0, [pc, #-276]	; 1008 <_start-0x6ff8>
    1118:	61747362 	cmnvs	r4, r2, ror #6
    111c:	745f6574 	ldrbvc	r6, [pc], #-1396	; 1124 <_start-0x6edc>
    1120:	735f5f00 	cmpvc	pc, #0, 30
    1124:	454c4946 	strbmi	r4, [ip, #-2374]	; 0x946
    1128:	626d5f00 	rsbvs	r5, sp, #0, 30
    112c:	74617473 	strbtvc	r7, [r1], #-1139	; 0x473
    1130:	725f0065 	subsvc	r0, pc, #101	; 0x65
    1134:	5f646e61 	svcpl	0x00646e61
    1138:	7478656e 	ldrbtvc	r6, [r8], #-1390	; 0x56e
    113c:	52415500 	subpl	r5, r1, #0, 10
    1140:	58545f54 	ldmdapl	r4, {r2, r4, r6, r8, r9, sl, fp, ip, lr}^
    1144:	544e495f 	strbpl	r4, [lr], #-2399	; 0x95f
    1148:	626d5f00 	rsbvs	r5, sp, #0, 30
    114c:	5f6e656c 	svcpl	0x006e656c
    1150:	74617473 	strbtvc	r7, [r1], #-1139	; 0x473
    1154:	695f0065 	ldmdbvs	pc, {r0, r2, r5, r6}^	; <UNPREDICTABLE>
    1158:	5f00636e 	svcpl	0x0000636e
    115c:	00646e69 	rsbeq	r6, r4, r9, ror #28
    1160:	636f6c5f 	cmnvs	pc, #24320	; 0x5f00
    1164:	00656c61 	rsbeq	r6, r5, r1, ror #24
    1168:	6c635f5f 	stclvs	15, cr5, [r3], #-380	; 0xfffffe84
    116c:	756e6165 	strbvc	r6, [lr, #-357]!	; 0x165
    1170:	755f0070 	ldrbvc	r0, [pc, #-112]	; 1108 <_start-0x6ef8>
    1174:	6570736e 	ldrbvs	r7, [r0, #-878]!	; 0x36e
    1178:	69666963 	stmdbvs	r6!, {r0, r1, r5, r6, r8, fp, sp, lr}^
    117c:	6c5f6465 	cfldrdvs	mvd6, [pc], {101}	; 0x65
    1180:	6c61636f 	stclvs	3, cr6, [r1], #-444	; 0xfffffe44
    1184:	6e695f65 	cdpvs	15, 6, cr5, cr9, cr5, {3}
    1188:	5f006f66 	svcpl	0x00006f66
    118c:	7778616d 	ldrbvc	r6, [r8, -sp, ror #2]!
    1190:	5f007364 	svcpl	0x00007364
    1194:	6e656572 	mcrvs	5, 3, r6, cr5, cr2, {3}
    1198:	735f0074 	cmpvc	pc, #116	; 0x74
    119c:	00646565 	rsbeq	r6, r4, r5, ror #10
    11a0:	6f635f5f 	svcvs	0x00635f5f
    11a4:	00746e75 	rsbseq	r6, r4, r5, ror lr
    11a8:	6f6c5f5f 	svcvs	0x006c5f5f
    11ac:	5f006b63 	svcpl	0x00006b63
    11b0:	6c61765f 	stclvs	6, cr7, [r1], #-380	; 0xfffffe84
    11b4:	5f006575 	svcpl	0x00006575
    11b8:	6b656573 	blvs	195a78c <__bss_end__+0x194e8cc>
    11bc:	72617500 	rsbvc	r7, r1, #0, 10
    11c0:	6e695f74 	mcrvs	15, 3, r5, cr9, cr4, {3}
    11c4:	00745f74 	rsbseq	r5, r4, r4, ror pc
    11c8:	6f70665f 	svcvs	0x0070665f
    11cc:	00745f73 	rsbseq	r5, r4, r3, ror pc
    11d0:	3233524f 	eorscc	r5, r3, #-268435452	; 0xf0000004
    11d4:	745f5f00 	ldrbvc	r5, [pc], #-3840	; 11dc <_start-0x6e24>
    11d8:	696d5f6d 	stmdbvs	sp!, {r0, r2, r3, r5, r6, r8, r9, sl, fp, ip, lr}^
    11dc:	6175006e 	cmnvs	r5, lr, rrx
    11e0:	655f7472 	ldrbvs	r7, [pc, #-1138]	; d76 <_start-0x728a>
    11e4:	6c62616e 	stfvse	f6, [r2], #-440	; 0xfffffe48
    11e8:	78745f65 	ldmdavc	r4!, {r0, r2, r5, r6, r8, r9, sl, fp, ip, lr}^
    11ec:	746e695f 	strbtvc	r6, [lr], #-2399	; 0x95f
    11f0:	6e656600 	cdpvs	6, 6, cr6, cr5, cr0, {0}
    11f4:	73006563 	movwvc	r6, #1379	; 0x563
    11f8:	74617263 	strbtvc	r7, [r1], #-611	; 0x263
    11fc:	5f006863 	svcpl	0x00006863
    1200:	746c756d 	strbtvc	r7, [ip], #-1389	; 0x56d
    1204:	74735f00 	ldrbtvc	r5, [r3], #-3840	; 0xf00
    1208:	6b6f7472 	blvs	1bde3d8 <__bss_end__+0x1bd2518>
    120c:	73616c5f 	cmnvc	r1, #24320	; 0x5f00
    1210:	665f0074 			; <UNDEFINED> instruction: 0x665f0074
    1214:	7079746e 	rsbsvc	r7, r9, lr, ror #8
    1218:	5f007365 	svcpl	0x00007365
    121c:	00646461 	rsbeq	r6, r4, r1, ror #8
    1220:	4c555f5f 	mrrcmi	15, 5, r5, r5, cr15	; <UNPREDICTABLE>
    1224:	00676e6f 	rsbeq	r6, r7, pc, ror #28
    1228:	74726175 	ldrbtvc	r6, [r2], #-373	; 0x175
    122c:	746e692d 	strbtvc	r6, [lr], #-2349	; 0x92d
    1230:	5f00632e 	svcpl	0x0000632e
    1234:	64746567 	ldrbtvs	r6, [r4], #-1383	; 0x567
    1238:	5f657461 	svcpl	0x00657461
    123c:	00727265 	rsbseq	r7, r2, r5, ror #4
    1240:	5f746e69 	svcpl	0x00746e69
    1244:	655f7369 	ldrbvs	r7, [pc, #-873]	; ee3 <_start-0x711d>
    1248:	6c62616e 	stfvse	f6, [r2], #-440	; 0xfffffe48
    124c:	5f006465 	svcpl	0x00006465
    1250:	626f6c67 	rsbvs	r6, pc, #26368	; 0x6700
    1254:	695f6c61 	ldmdbvs	pc, {r0, r5, r6, sl, fp, sp, lr}^	; <UNPREDICTABLE>
    1258:	7275706d 	rsbsvc	r7, r5, #109	; 0x6d
    125c:	74705f65 	ldrbtvc	r5, [r0], #-3941	; 0xf65
    1260:	656d0072 	strbvs	r0, [sp, #-114]!	; 0x72
    1264:	7465736d 	strbtvc	r7, [r5], #-877	; 0x36d
    1268:	6e755f00 	cdpvs	15, 7, cr5, cr5, cr0, {0}
    126c:	64657375 	strbtvs	r7, [r5], #-885	; 0x375
    1270:	6e61725f 	mcrvs	2, 3, r7, cr1, cr15, {2}
    1274:	71630064 	cmnvc	r3, r4, rrx
    1278:	6300745f 	movwvs	r7, #1119	; 0x45f
    127c:	745f6571 	ldrbvc	r6, [pc], #-1393	; 1284 <_start-0x6d7c>
    1280:	72617500 	rsbvc	r7, r1, #0, 10
    1284:	6c635f74 	stclvs	15, cr5, [r3], #-464	; 0xfffffe30
    1288:	5f726165 	svcpl	0x00726165
    128c:	00746e69 	rsbseq	r6, r4, r9, ror #28
    1290:	7364775f 	cmnvc	r4, #24903680	; 0x17c0000
    1294:	745f5f00 	ldrbvc	r5, [pc], #-3840	; 129c <_start-0x6d64>
    1298:	64775f6d 	ldrbtvs	r5, [r7], #-3949	; 0xf6d
    129c:	5f007961 	svcpl	0x00007961
    12a0:	65756c67 	ldrbvs	r6, [r5, #-3175]!	; 0xc67
    12a4:	6d6e5f00 	stclvs	15, cr5, [lr, #-0]
    12a8:	6f6c6c61 	svcvs	0x006c6c61
    12ac:	6c5f0063 	mrrcvs	0, 6, r0, pc, cr3	; <UNPREDICTABLE>
    12b0:	5f613436 	svcpl	0x00613436
    12b4:	00667562 	rsbeq	r7, r6, r2, ror #10
    12b8:	6769735f 			; <UNDEFINED> instruction: 0x6769735f
    12bc:	6e75665f 	mrcvs	6, 3, r6, cr5, cr15, {2}
    12c0:	6e5f0063 	cdpvs	0, 5, cr0, cr15, cr3, {3}
    12c4:	00667562 	rsbeq	r7, r6, r2, ror #10
    12c8:	756e755f 	strbvc	r7, [lr, #-1375]!	; 0x55f
    12cc:	00646573 	rsbeq	r6, r4, r3, ror r5
    12d0:	705f7163 	subsvc	r7, pc, r3, ror #2
    12d4:	00687375 	rsbeq	r7, r8, r5, ror r3
    12d8:	74726175 	ldrbtvc	r6, [r2], #-373	; 0x175
    12dc:	7369645f 	cmnvc	r9, #1593835520	; 0x5f000000
    12e0:	656c6261 	strbvs	r6, [ip, #-609]!	; 0x261
    12e4:	5f78725f 	svcpl	0x0078725f
    12e8:	00746e69 	rsbseq	r6, r4, r9, ror #28
    12ec:	6d745f5f 	ldclvs	15, cr5, [r4, #-380]!	; 0xfffffe84
    12f0:	6473695f 	ldrbtvs	r6, [r3], #-2399	; 0x95f
    12f4:	5f007473 	svcpl	0x00007473
    12f8:	61636f6c 	cmnvs	r3, ip, ror #30
    12fc:	6d69746c 	cfstrdvs	mvd7, [r9, #-432]!	; 0xfffffe50
    1300:	75625f65 	strbvc	r5, [r2, #-3941]!	; 0xf65
    1304:	635f0066 	cmpvs	pc, #102	; 0x66
    1308:	65736f6c 	ldrbvs	r6, [r3, #-3948]!	; 0xf6c
    130c:	34725f00 	ldrbtcc	r5, [r2], #-3840	; 0xf00
    1310:	61750038 	cmnvs	r5, r8, lsr r0
    1314:	695f7472 	ldmdbvs	pc, {r1, r4, r5, r6, sl, ip, sp, lr}^	; <UNPREDICTABLE>
    1318:	665f746e 	ldrbvs	r7, [pc], -lr, ror #8
    131c:	6873756c 	ldmdavs	r3!, {r2, r3, r5, r6, r8, sl, ip, sp, lr}^
    1320:	626d5f00 	rsbvs	r5, sp, #0, 30
    1324:	63776f74 	cmnvs	r7, #116, 30	; 0x1d0
    1328:	6174735f 	cmnvs	r4, pc, asr r3
    132c:	5f006574 	svcpl	0x00006574
    1330:	00733570 	rsbseq	r3, r3, r0, ror r5
    1334:	74726175 	ldrbtvc	r6, [r2], #-373	; 0x175
    1338:	7361685f 	cmnvc	r1, #6225920	; 0x5f0000
    133c:	746e695f 	strbtvc	r6, [lr], #-2399	; 0x95f
    1340:	73797300 	cmnvc	r9, #0, 6
    1344:	5f6d6574 	svcpl	0x006d6574
    1348:	61736964 	cmnvs	r3, r4, ror #18
    134c:	5f656c62 	svcpl	0x00656c62
    1350:	65746e69 	ldrbvs	r6, [r4, #-3689]!	; 0xe69
    1354:	70757272 	rsbsvc	r7, r5, r2, ror r2
    1358:	5f007374 	svcpl	0x00007374
    135c:	5f6d745f 	svcpl	0x006d745f
    1360:	7961646d 	stmdbvc	r1!, {r0, r2, r3, r5, r6, sl, sp, lr}^
    1364:	5f716300 	svcpl	0x00716300
    1368:	6c6c7566 	cfstr64vs	mvdx7, [ip], #-408	; 0xfffffe68
    136c:	65766f00 	ldrbvs	r6, [r6, #-3840]!	; 0xf00
    1370:	6f6c6672 	svcvs	0x006c6672
    1374:	69730077 	ldmdbvs	r3!, {r0, r1, r2, r4, r5, r6}^
    1378:	745f657a 	ldrbvc	r6, [pc], #-1402	; 1380 <_start-0x6c80>
    137c:	62696c00 	rsbvs	r6, r9, #0, 24
    1380:	656d2f63 	strbvs	r2, [sp, #-3939]!	; 0xf63
    1384:	7465736d 	strbtvc	r7, [r5], #-877	; 0x36d
    1388:	6300632e 	movwvs	r6, #814	; 0x32e
    138c:	656e5f62 	strbvs	r5, [lr, #-3938]!	; 0xf62
    1390:	73630077 	cmnvc	r3, #119	; 0x77
    1394:	65303431 	ldrvs	r3, [r0, #-1073]!	; 0x431
    1398:	6372732d 	cmnvs	r2, #-1275068416	; 0xb4000000
    139c:	6e6f632f 	cdpvs	3, 6, cr6, cr15, cr15, {1}
    13a0:	6c6f7274 	sfmvs	f7, 2, [pc], #-464	; 11d8 <_start-0x6e28>
    13a4:	6f6c622d 	svcvs	0x006c622d
    13a8:	632e6b63 	teqvs	lr, #101376	; 0x18c00
	...

Disassembly of section .debug_frame:

00000000 <.debug_frame>:
   0:	0000000c 	andeq	r0, r0, ip
   4:	ffffffff 			; <UNDEFINED> instruction: 0xffffffff
   8:	7c020001 	stcvc	0, cr0, [r2], {1}
   c:	000d0c0e 	andeq	r0, sp, lr, lsl #24
  10:	00000018 	andeq	r0, r0, r8, lsl r0
  14:	00000000 	andeq	r0, r0, r0
  18:	00008010 	andeq	r8, r0, r0, lsl r0
  1c:	0000002c 	andeq	r0, r0, ip, lsr #32
  20:	84100e42 	ldrhi	r0, [r0], #-3650	; 0xe42
  24:	86038504 	strhi	r8, [r3], -r4, lsl #10
  28:	00018e02 	andeq	r8, r1, r2, lsl #28
  2c:	00000014 	andeq	r0, r0, r4, lsl r0
  30:	00000000 	andeq	r0, r0, r0
  34:	0000803c 	andeq	r8, r0, ip, lsr r0
  38:	00000020 	andeq	r0, r0, r0, lsr #32
  3c:	8e040e42 	cdphi	14, 0, cr0, cr4, cr2, {2}
  40:	100e4201 	andne	r4, lr, r1, lsl #4
  44:	00000014 	andeq	r0, r0, r4, lsl r0
  48:	00000000 	andeq	r0, r0, r0
  4c:	0000805c 	andeq	r8, r0, ip, asr r0
  50:	00000020 	andeq	r0, r0, r0, lsr #32
  54:	84080e42 	strhi	r0, [r8], #-3650	; 0xe42
  58:	00018e02 	andeq	r8, r1, r2, lsl #28
  5c:	00000018 	andeq	r0, r0, r8, lsl r0
  60:	00000000 	andeq	r0, r0, r0
  64:	0000807c 	andeq	r8, r0, ip, ror r0
  68:	0000002c 	andeq	r0, r0, ip, lsr #32
  6c:	84100e42 	ldrhi	r0, [r0], #-3650	; 0xe42
  70:	86038504 	strhi	r8, [r3], -r4, lsl #10
  74:	00018e02 	andeq	r8, r1, r2, lsl #28
  78:	00000014 	andeq	r0, r0, r4, lsl r0
  7c:	00000000 	andeq	r0, r0, r0
  80:	000080a8 	andeq	r8, r0, r8, lsr #1
  84:	00000024 	andeq	r0, r0, r4, lsr #32
  88:	8e040e42 	cdphi	14, 0, cr0, cr4, cr2, {2}
  8c:	100e4201 	andne	r4, lr, r1, lsl #4
  90:	00000014 	andeq	r0, r0, r4, lsl r0
  94:	00000000 	andeq	r0, r0, r0
  98:	000080cc 	andeq	r8, r0, ip, asr #1
  9c:	0000000c 	andeq	r0, r0, ip
  a0:	83080e42 	movwhi	r0, #36418	; 0x8e42
  a4:	00018e02 	andeq	r8, r1, r2, lsl #28
  a8:	0000001c 	andeq	r0, r0, ip, lsl r0
  ac:	00000000 	andeq	r0, r0, r0
  b0:	000080d8 	ldrdeq	r8, [r0], -r8	; <UNPREDICTABLE>
  b4:	000001b8 			; <UNDEFINED> instruction: 0x000001b8
  b8:	84100e42 	ldrhi	r0, [r0], #-3650	; 0xe42
  bc:	86038504 	strhi	r8, [r3], -r4, lsl #10
  c0:	42018e02 	andmi	r8, r1, #2, 28
  c4:	0000180e 	andeq	r1, r0, lr, lsl #16
  c8:	0000000c 	andeq	r0, r0, ip
  cc:	ffffffff 			; <UNDEFINED> instruction: 0xffffffff
  d0:	7c020001 	stcvc	0, cr0, [r2], {1}
  d4:	000d0c0e 	andeq	r0, sp, lr, lsl #24
  d8:	00000024 	andeq	r0, r0, r4, lsr #32
  dc:	000000c8 	andeq	r0, r0, r8, asr #1
  e0:	00008290 	muleq	r0, r0, r2
  e4:	00000058 	andeq	r0, r0, r8, asr r0
  e8:	80100e42 	andshi	r0, r0, r2, asr #28
  ec:	82038104 	andhi	r8, r3, #4, 2
  f0:	42018302 	andmi	r8, r1, #134217728	; 0x8000000
  f4:	07841c0e 	streq	r1, [r4, lr, lsl #24]
  f8:	058e0685 	streq	r0, [lr, #1669]	; 0x685
  fc:	00280e42 	eoreq	r0, r8, r2, asr #28
 100:	0000000c 	andeq	r0, r0, ip
 104:	ffffffff 			; <UNDEFINED> instruction: 0xffffffff
 108:	7c020001 	stcvc	0, cr0, [r2], {1}
 10c:	000d0c0e 	andeq	r0, sp, lr, lsl #24
 110:	00000014 	andeq	r0, r0, r4, lsl r0
 114:	00000100 	andeq	r0, r0, r0, lsl #2
 118:	000082e8 	andeq	r8, r0, r8, ror #5
 11c:	00000014 	andeq	r0, r0, r4, lsl r0
 120:	84080e42 	strhi	r0, [r8], #-3650	; 0xe42
 124:	00018e02 	andeq	r8, r1, r2, lsl #28
 128:	0000000c 	andeq	r0, r0, ip
 12c:	00000100 	andeq	r0, r0, r0, lsl #2
 130:	000082fc 	strdeq	r8, [r0], -ip
 134:	00000018 	andeq	r0, r0, r8, lsl r0
 138:	0000000c 	andeq	r0, r0, ip
 13c:	00000100 	andeq	r0, r0, r0, lsl #2
 140:	00008314 	andeq	r8, r0, r4, lsl r3
 144:	00000010 	andeq	r0, r0, r0, lsl r0
 148:	0000000c 	andeq	r0, r0, ip
 14c:	ffffffff 			; <UNDEFINED> instruction: 0xffffffff
 150:	7c020001 	stcvc	0, cr0, [r2], {1}
 154:	000d0c0e 	andeq	r0, sp, lr, lsl #24
 158:	00000018 	andeq	r0, r0, r8, lsl r0
 15c:	00000148 	andeq	r0, r0, r8, asr #2
 160:	00008324 	andeq	r8, r0, r4, lsr #6
 164:	00000034 	andeq	r0, r0, r4, lsr r0
 168:	83100e42 	tsthi	r0, #1056	; 0x420
 16c:	85038404 	strhi	r8, [r3, #-1028]	; 0x404
 170:	00018e02 	andeq	r8, r1, r2, lsl #28
 174:	0000000c 	andeq	r0, r0, ip
 178:	ffffffff 			; <UNDEFINED> instruction: 0xffffffff
 17c:	7c020001 	stcvc	0, cr0, [r2], {1}
 180:	000d0c0e 	andeq	r0, sp, lr, lsl #24
 184:	0000000c 	andeq	r0, r0, ip
 188:	00000174 	andeq	r0, r0, r4, ror r1
 18c:	00008358 	andeq	r8, r0, r8, asr r3
 190:	00000014 	andeq	r0, r0, r4, lsl r0
 194:	0000000c 	andeq	r0, r0, ip
 198:	00000174 	andeq	r0, r0, r4, ror r1
 19c:	0000836c 	andeq	r8, r0, ip, ror #6
 1a0:	0000002c 	andeq	r0, r0, ip, lsr #32
 1a4:	0000000c 	andeq	r0, r0, ip
 1a8:	00000174 	andeq	r0, r0, r4, ror r1
 1ac:	00008398 	muleq	r0, r8, r3
 1b0:	00000040 	andeq	r0, r0, r0, asr #32
 1b4:	00000020 	andeq	r0, r0, r0, lsr #32
 1b8:	00000174 	andeq	r0, r0, r4, ror r1
 1bc:	000083d8 	ldrdeq	r8, [r0], -r8	; <UNPREDICTABLE>
 1c0:	0000019c 	muleq	r0, ip, r1
 1c4:	84180e42 	ldrhi	r0, [r8], #-3650	; 0xe42
 1c8:	86058506 	strhi	r8, [r5], -r6, lsl #10
 1cc:	88038704 	stmdahi	r3, {r2, r8, r9, sl, pc}
 1d0:	42018e02 	andmi	r8, r1, #2, 28
 1d4:	0000580e 	andeq	r5, r0, lr, lsl #16
 1d8:	00000014 	andeq	r0, r0, r4, lsl r0
 1dc:	00000174 	andeq	r0, r0, r4, ror r1
 1e0:	00008574 	andeq	r8, r0, r4, ror r5
 1e4:	00000054 	andeq	r0, r0, r4, asr r0
 1e8:	83080e42 	movwhi	r0, #36418	; 0x8e42
 1ec:	00018e02 	andeq	r8, r1, r2, lsl #28
 1f0:	00000028 	andeq	r0, r0, r8, lsr #32
 1f4:	00000174 	andeq	r0, r0, r4, ror r1
 1f8:	000085c8 	andeq	r8, r0, r8, asr #11
 1fc:	00000288 	andeq	r0, r0, r8, lsl #5
 200:	84240e42 	strthi	r0, [r4], #-3650	; 0xe42
 204:	86088509 	strhi	r8, [r8], -r9, lsl #10
 208:	88068707 	stmdahi	r6, {r0, r1, r2, r8, r9, sl, pc}
 20c:	8a048905 	bhi	122628 <__bss_end__+0x116768>
 210:	8e028b03 	vmlahi.f64	d8, d2, d3
 214:	b00e4201 	andlt	r4, lr, r1, lsl #4
 218:	00000001 	andeq	r0, r0, r1
 21c:	0000000c 	andeq	r0, r0, ip
 220:	ffffffff 			; <UNDEFINED> instruction: 0xffffffff
 224:	7c020001 	stcvc	0, cr0, [r2], {1}
 228:	000d0c0e 	andeq	r0, sp, lr, lsl #24
 22c:	00000014 	andeq	r0, r0, r4, lsl r0
 230:	0000021c 	andeq	r0, r0, ip, lsl r2
 234:	00008850 	andeq	r8, r0, r0, asr r8
 238:	00000028 	andeq	r0, r0, r8, lsr #32
 23c:	83080e42 	movwhi	r0, #36418	; 0x8e42
 240:	00018e02 	andeq	r8, r1, r2, lsl #28
 244:	0000000c 	andeq	r0, r0, ip
 248:	ffffffff 			; <UNDEFINED> instruction: 0xffffffff
 24c:	7c020001 	stcvc	0, cr0, [r2], {1}
 250:	000d0c0e 	andeq	r0, sp, lr, lsl #24
 254:	00000014 	andeq	r0, r0, r4, lsl r0
 258:	00000244 	andeq	r0, r0, r4, asr #4
 25c:	00008878 	andeq	r8, r0, r8, ror r8
 260:	00000020 	andeq	r0, r0, r0, lsr #32
 264:	84080e42 	strhi	r0, [r8], #-3650	; 0xe42
 268:	00018e02 	andeq	r8, r1, r2, lsl #28
 26c:	00000014 	andeq	r0, r0, r4, lsl r0
 270:	00000244 	andeq	r0, r0, r4, asr #4
 274:	00008898 	muleq	r0, r8, r8
 278:	00000090 	muleq	r0, r0, r0
 27c:	83080e42 	movwhi	r0, #36418	; 0x8e42
 280:	00018e02 	andeq	r8, r1, r2, lsl #28
 284:	0000000c 	andeq	r0, r0, ip
 288:	ffffffff 			; <UNDEFINED> instruction: 0xffffffff
 28c:	7c020001 	stcvc	0, cr0, [r2], {1}
 290:	000d0c0e 	andeq	r0, sp, lr, lsl #24
 294:	0000000c 	andeq	r0, r0, ip
 298:	00000284 	andeq	r0, r0, r4, lsl #5
 29c:	00008928 	andeq	r8, r0, r8, lsr #18
 2a0:	00000018 	andeq	r0, r0, r8, lsl r0
 2a4:	0000000c 	andeq	r0, r0, ip
 2a8:	00000284 	andeq	r0, r0, r4, lsl #5
 2ac:	00008940 	andeq	r8, r0, r0, asr #18
 2b0:	00000014 	andeq	r0, r0, r4, lsl r0
 2b4:	00000014 	andeq	r0, r0, r4, lsl r0
 2b8:	00000284 	andeq	r0, r0, r4, lsl #5
 2bc:	00008954 	andeq	r8, r0, r4, asr r9
 2c0:	00000048 	andeq	r0, r0, r8, asr #32
 2c4:	83080e42 	movwhi	r0, #36418	; 0x8e42
 2c8:	00018e02 	andeq	r8, r1, r2, lsl #28
 2cc:	0000000c 	andeq	r0, r0, ip
 2d0:	ffffffff 			; <UNDEFINED> instruction: 0xffffffff
 2d4:	7c020001 	stcvc	0, cr0, [r2], {1}
 2d8:	000d0c0e 	andeq	r0, sp, lr, lsl #24
 2dc:	0000000c 	andeq	r0, r0, ip
 2e0:	000002cc 	andeq	r0, r0, ip, asr #5
 2e4:	0000899c 	muleq	r0, ip, r9
 2e8:	0000001c 	andeq	r0, r0, ip, lsl r0
 2ec:	00000014 	andeq	r0, r0, r4, lsl r0
 2f0:	000002cc 	andeq	r0, r0, ip, asr #5
 2f4:	000089b8 			; <UNDEFINED> instruction: 0x000089b8
 2f8:	00000014 	andeq	r0, r0, r4, lsl r0
 2fc:	83080e42 	movwhi	r0, #36418	; 0x8e42
 300:	00018e02 	andeq	r8, r1, r2, lsl #28
 304:	00000014 	andeq	r0, r0, r4, lsl r0
 308:	000002cc 	andeq	r0, r0, ip, asr #5
 30c:	000089cc 	andeq	r8, r0, ip, asr #19
 310:	0000000c 	andeq	r0, r0, ip
 314:	83080e42 	movwhi	r0, #36418	; 0x8e42
 318:	00018e02 	andeq	r8, r1, r2, lsl #28
 31c:	00000018 	andeq	r0, r0, r8, lsl r0
 320:	000002cc 	andeq	r0, r0, ip, asr #5
 324:	000089d8 	ldrdeq	r8, [r0], -r8	; <UNPREDICTABLE>
 328:	00000024 	andeq	r0, r0, r4, lsr #32
 32c:	83100e42 	tsthi	r0, #1056	; 0x420
 330:	85038404 	strhi	r8, [r3, #-1028]	; 0x404
 334:	00018e02 	andeq	r8, r1, r2, lsl #28
 338:	00000014 	andeq	r0, r0, r4, lsl r0
 33c:	000002cc 	andeq	r0, r0, ip, asr #5
 340:	000089fc 	strdeq	r8, [r0], -ip
 344:	00000014 	andeq	r0, r0, r4, lsl r0
 348:	83080e42 	movwhi	r0, #36418	; 0x8e42
 34c:	00018e02 	andeq	r8, r1, r2, lsl #28
 350:	00000014 	andeq	r0, r0, r4, lsl r0
 354:	000002cc 	andeq	r0, r0, ip, asr #5
 358:	00008a10 	andeq	r8, r0, r0, lsl sl
 35c:	00000014 	andeq	r0, r0, r4, lsl r0
 360:	83080e42 	movwhi	r0, #36418	; 0x8e42
 364:	00018e02 	andeq	r8, r1, r2, lsl #28
 368:	0000000c 	andeq	r0, r0, ip
 36c:	ffffffff 			; <UNDEFINED> instruction: 0xffffffff
 370:	7c020001 	stcvc	0, cr0, [r2], {1}
 374:	000d0c0e 	andeq	r0, sp, lr, lsl #24
 378:	00000018 	andeq	r0, r0, r8, lsl r0
 37c:	00000368 	andeq	r0, r0, r8, ror #6
 380:	00008a24 	andeq	r8, r0, r4, lsr #20
 384:	000000d4 	ldrdeq	r0, [r0], -r4
 388:	83100e42 	tsthi	r0, #1056	; 0x420
 38c:	85038404 	strhi	r8, [r3, #-1028]	; 0x404
 390:	00018e02 	andeq	r8, r1, r2, lsl #28
 394:	00000014 	andeq	r0, r0, r4, lsl r0
 398:	00000368 	andeq	r0, r0, r8, ror #6
 39c:	00008af8 	strdeq	r8, [r0], -r8	; <UNPREDICTABLE>
 3a0:	00000038 	andeq	r0, r0, r8, lsr r0
 3a4:	83080e42 	movwhi	r0, #36418	; 0x8e42
 3a8:	00018e02 	andeq	r8, r1, r2, lsl #28
 3ac:	00000014 	andeq	r0, r0, r4, lsl r0
 3b0:	00000368 	andeq	r0, r0, r8, ror #6
 3b4:	00008b30 	andeq	r8, r0, r0, lsr fp
 3b8:	00000038 	andeq	r0, r0, r8, lsr r0
 3bc:	83080e42 	movwhi	r0, #36418	; 0x8e42
 3c0:	00018e02 	andeq	r8, r1, r2, lsl #28
 3c4:	00000018 	andeq	r0, r0, r8, lsl r0
 3c8:	00000368 	andeq	r0, r0, r8, ror #6
 3cc:	00008b68 	andeq	r8, r0, r8, ror #22
 3d0:	000000cc 	andeq	r0, r0, ip, asr #1
 3d4:	83100e42 	tsthi	r0, #1056	; 0x420
 3d8:	85038404 	strhi	r8, [r3, #-1028]	; 0x404
 3dc:	00018e02 	andeq	r8, r1, r2, lsl #28
 3e0:	00000014 	andeq	r0, r0, r4, lsl r0
 3e4:	00000368 	andeq	r0, r0, r8, ror #6
 3e8:	00008c34 	andeq	r8, r0, r4, lsr ip
 3ec:	0000004c 	andeq	r0, r0, ip, asr #32
 3f0:	84080e42 	strhi	r0, [r8], #-3650	; 0xe42
 3f4:	00018e02 	andeq	r8, r1, r2, lsl #28
 3f8:	00000014 	andeq	r0, r0, r4, lsl r0
 3fc:	00000368 	andeq	r0, r0, r8, ror #6
 400:	00008c80 	andeq	r8, r0, r0, lsl #25
 404:	00000078 	andeq	r0, r0, r8, ror r0
 408:	83080e42 	movwhi	r0, #36418	; 0x8e42
 40c:	00018e02 	andeq	r8, r1, r2, lsl #28
 410:	00000018 	andeq	r0, r0, r8, lsl r0
 414:	00000368 	andeq	r0, r0, r8, ror #6
 418:	00008cf8 	strdeq	r8, [r0], -r8	; <UNPREDICTABLE>
 41c:	000000d8 	ldrdeq	r0, [r0], -r8
 420:	84100e42 	ldrhi	r0, [r0], #-3650	; 0xe42
 424:	86038504 	strhi	r8, [r3], -r4, lsl #10
 428:	00018e02 	andeq	r8, r1, r2, lsl #28
 42c:	00000014 	andeq	r0, r0, r4, lsl r0
 430:	00000368 	andeq	r0, r0, r8, ror #6
 434:	00008dd0 	ldrdeq	r8, [r0], -r0
 438:	0000002c 	andeq	r0, r0, ip, lsr #32
 43c:	83080e42 	movwhi	r0, #36418	; 0x8e42
 440:	00018e02 	andeq	r8, r1, r2, lsl #28
 444:	00000018 	andeq	r0, r0, r8, lsl r0
 448:	00000368 	andeq	r0, r0, r8, ror #6
 44c:	00008dfc 	strdeq	r8, [r0], -ip
 450:	00000084 	andeq	r0, r0, r4, lsl #1
 454:	83100e42 	tsthi	r0, #1056	; 0x420
 458:	85038404 	strhi	r8, [r3, #-1028]	; 0x404
 45c:	00018e02 	andeq	r8, r1, r2, lsl #28
 460:	00000018 	andeq	r0, r0, r8, lsl r0
 464:	00000368 	andeq	r0, r0, r8, ror #6
 468:	00008e80 	andeq	r8, r0, r0, lsl #29
 46c:	00000084 	andeq	r0, r0, r4, lsl #1
 470:	83100e42 	tsthi	r0, #1056	; 0x420
 474:	85038404 	strhi	r8, [r3, #-1028]	; 0x404
 478:	00018e02 	andeq	r8, r1, r2, lsl #28
 47c:	00000014 	andeq	r0, r0, r4, lsl r0
 480:	00000368 	andeq	r0, r0, r8, ror #6
 484:	00008f04 	andeq	r8, r0, r4, lsl #30
 488:	00000084 	andeq	r0, r0, r4, lsl #1
 48c:	84080e42 	strhi	r0, [r8], #-3650	; 0xe42
 490:	00018e02 	andeq	r8, r1, r2, lsl #28
 494:	00000014 	andeq	r0, r0, r4, lsl r0
 498:	00000368 	andeq	r0, r0, r8, ror #6
 49c:	00008f88 	andeq	r8, r0, r8, lsl #31
 4a0:	00000058 	andeq	r0, r0, r8, asr r0
 4a4:	84080e42 	strhi	r0, [r8], #-3650	; 0xe42
 4a8:	00018e02 	andeq	r8, r1, r2, lsl #28
 4ac:	0000000c 	andeq	r0, r0, ip
 4b0:	ffffffff 			; <UNDEFINED> instruction: 0xffffffff
 4b4:	7c020001 	stcvc	0, cr0, [r2], {1}
 4b8:	000d0c0e 	andeq	r0, sp, lr, lsl #24
 4bc:	0000001c 	andeq	r0, r0, ip, lsl r0
 4c0:	000004ac 	andeq	r0, r0, ip, lsr #9
 4c4:	00008fe0 	andeq	r8, r0, r0, ror #31
 4c8:	00000154 	andeq	r0, r0, r4, asr r1
 4cc:	84180e42 	ldrhi	r0, [r8], #-3650	; 0xe42
 4d0:	86058506 	strhi	r8, [r5], -r6, lsl #10
 4d4:	88038704 	stmdahi	r3, {r2, r8, r9, sl, pc}
 4d8:	00018e02 	andeq	r8, r1, r2, lsl #28
 4dc:	00000020 	andeq	r0, r0, r0, lsr #32
 4e0:	000004ac 	andeq	r0, r0, ip, lsr #9
 4e4:	00009134 	andeq	r9, r0, r4, lsr r1
 4e8:	000001c8 	andeq	r0, r0, r8, asr #3
 4ec:	83200e42 	teqhi	r0, #1056	; 0x420
 4f0:	85078408 	strhi	r8, [r7, #-1032]	; 0x408
 4f4:	87058606 	strhi	r8, [r5, -r6, lsl #12]
 4f8:	89038804 	stmdbhi	r3, {r2, fp, pc}
 4fc:	00018e02 	andeq	r8, r1, r2, lsl #28
 500:	00000020 	andeq	r0, r0, r0, lsr #32
 504:	000004ac 	andeq	r0, r0, ip, lsr #9
 508:	000092fc 	strdeq	r9, [r0], -ip
 50c:	00000090 	muleq	r0, r0, r0
 510:	84200e42 	strthi	r0, [r0], #-3650	; 0xe42
 514:	86078508 	strhi	r8, [r7], -r8, lsl #10
 518:	88058706 	stmdahi	r5, {r1, r2, r8, r9, sl, pc}
 51c:	8a038904 	bhi	e2934 <__bss_end__+0xd6a74>
 520:	00018e02 	andeq	r8, r1, r2, lsl #28
 524:	0000001c 	andeq	r0, r0, ip, lsl r0
 528:	000004ac 	andeq	r0, r0, ip, lsr #9
 52c:	0000938c 	andeq	r9, r0, ip, lsl #7
 530:	0000007c 	andeq	r0, r0, ip, ror r0
 534:	84180e42 	ldrhi	r0, [r8], #-3650	; 0xe42
 538:	86058506 	strhi	r8, [r5], -r6, lsl #10
 53c:	88038704 	stmdahi	r3, {r2, r8, r9, sl, pc}
 540:	00018e02 	andeq	r8, r1, r2, lsl #28
 544:	0000001c 	andeq	r0, r0, ip, lsl r0
 548:	000004ac 	andeq	r0, r0, ip, lsr #9
 54c:	00009408 	andeq	r9, r0, r8, lsl #8
 550:	000000c0 	andeq	r0, r0, r0, asr #1
 554:	84180e42 	ldrhi	r0, [r8], #-3650	; 0xe42
 558:	86058506 	strhi	r8, [r5], -r6, lsl #10
 55c:	88038704 	stmdahi	r3, {r2, r8, r9, sl, pc}
 560:	00018e02 	andeq	r8, r1, r2, lsl #28
 564:	00000014 	andeq	r0, r0, r4, lsl r0
 568:	000004ac 	andeq	r0, r0, ip, lsr #9
 56c:	000094c8 	andeq	r9, r0, r8, asr #9
 570:	0000003c 	andeq	r0, r0, ip, lsr r0
 574:	83080e42 	movwhi	r0, #36418	; 0x8e42
 578:	00018e02 	andeq	r8, r1, r2, lsl #28
 57c:	00000018 	andeq	r0, r0, r8, lsl r0
 580:	000004ac 	andeq	r0, r0, ip, lsr #9
 584:	00009504 	andeq	r9, r0, r4, lsl #10
 588:	0000002c 	andeq	r0, r0, ip, lsr #32
 58c:	83100e42 	tsthi	r0, #1056	; 0x420
 590:	85038404 	strhi	r8, [r3, #-1028]	; 0x404
 594:	00018e02 	andeq	r8, r1, r2, lsl #28
 598:	00000024 	andeq	r0, r0, r4, lsr #32
 59c:	000004ac 	andeq	r0, r0, ip, lsr #9
 5a0:	00009530 	andeq	r9, r0, r0, lsr r5
 5a4:	00000084 	andeq	r0, r0, r4, lsl #1
 5a8:	810c0e42 	tsthi	ip, r2, asr #28
 5ac:	83028203 	movwhi	r8, #8707	; 0x2203
 5b0:	180e4201 	stmdane	lr, {r0, r9, lr}
 5b4:	05850684 	streq	r0, [r5, #1668]	; 0x684
 5b8:	0e42048e 	cdpeq	4, 4, cr0, cr2, cr14, {4}
 5bc:	000003e8 	andeq	r0, r0, r8, ror #7
 5c0:	00000014 	andeq	r0, r0, r4, lsl r0
 5c4:	000004ac 	andeq	r0, r0, ip, lsr #9
 5c8:	000095b4 			; <UNDEFINED> instruction: 0x000095b4
 5cc:	0000004c 	andeq	r0, r0, ip, asr #32
 5d0:	8e040e42 	cdphi	14, 0, cr0, cr4, cr2, {2}
 5d4:	100e4201 	andne	r4, lr, r1, lsl #4
 5d8:	0000000c 	andeq	r0, r0, ip
 5dc:	ffffffff 			; <UNDEFINED> instruction: 0xffffffff
 5e0:	7c020001 	stcvc	0, cr0, [r2], {1}
 5e4:	000d0c0e 	andeq	r0, sp, lr, lsl #24
 5e8:	00000018 	andeq	r0, r0, r8, lsl r0
 5ec:	000005d8 	ldrdeq	r0, [r0], -r8
 5f0:	00009600 	andeq	r9, r0, r0, lsl #12
 5f4:	0000009c 	muleq	r0, ip, r0
 5f8:	83100e42 	tsthi	r0, #1056	; 0x420
 5fc:	85038404 	strhi	r8, [r3, #-1028]	; 0x404
 600:	00018e02 	andeq	r8, r1, r2, lsl #28
 604:	00000014 	andeq	r0, r0, r4, lsl r0
 608:	000005d8 	ldrdeq	r0, [r0], -r8
 60c:	0000969c 	muleq	r0, ip, r6
 610:	0000001c 	andeq	r0, r0, ip, lsl r0
 614:	83080e42 	movwhi	r0, #36418	; 0x8e42
 618:	00018e02 	andeq	r8, r1, r2, lsl #28
 61c:	00000014 	andeq	r0, r0, r4, lsl r0
 620:	000005d8 	ldrdeq	r0, [r0], -r8
 624:	000096b8 			; <UNDEFINED> instruction: 0x000096b8
 628:	00000028 	andeq	r0, r0, r8, lsr #32
 62c:	83080e42 	movwhi	r0, #36418	; 0x8e42
 630:	00018e02 	andeq	r8, r1, r2, lsl #28
 634:	00000014 	andeq	r0, r0, r4, lsl r0
 638:	000005d8 	ldrdeq	r0, [r0], -r8
 63c:	000096e0 	andeq	r9, r0, r0, ror #13
 640:	0000001c 	andeq	r0, r0, ip, lsl r0
 644:	83080e42 	movwhi	r0, #36418	; 0x8e42
 648:	00018e02 	andeq	r8, r1, r2, lsl #28
 64c:	00000014 	andeq	r0, r0, r4, lsl r0
 650:	000005d8 	ldrdeq	r0, [r0], -r8
 654:	000096fc 	strdeq	r9, [r0], -ip
 658:	0000002c 	andeq	r0, r0, ip, lsr #32
 65c:	84080e42 	strhi	r0, [r8], #-3650	; 0xe42
 660:	00018e02 	andeq	r8, r1, r2, lsl #28
 664:	00000014 	andeq	r0, r0, r4, lsl r0
 668:	000005d8 	ldrdeq	r0, [r0], -r8
 66c:	00009728 	andeq	r9, r0, r8, lsr #14
 670:	0000000c 	andeq	r0, r0, ip
 674:	83080e42 	movwhi	r0, #36418	; 0x8e42
 678:	00018e02 	andeq	r8, r1, r2, lsl #28
 67c:	00000014 	andeq	r0, r0, r4, lsl r0
 680:	000005d8 	ldrdeq	r0, [r0], -r8
 684:	00009734 	andeq	r9, r0, r4, lsr r7
 688:	00000020 	andeq	r0, r0, r0, lsr #32
 68c:	83080e42 	movwhi	r0, #36418	; 0x8e42
 690:	00018e02 	andeq	r8, r1, r2, lsl #28
 694:	0000000c 	andeq	r0, r0, ip
 698:	ffffffff 			; <UNDEFINED> instruction: 0xffffffff
 69c:	7c020001 	stcvc	0, cr0, [r2], {1}
 6a0:	000d0c0e 	andeq	r0, sp, lr, lsl #24
 6a4:	00000014 	andeq	r0, r0, r4, lsl r0
 6a8:	00000694 	muleq	r0, r4, r6
 6ac:	00009754 	andeq	r9, r0, r4, asr r7
 6b0:	00000068 	andeq	r0, r0, r8, rrx
 6b4:	83080e42 	movwhi	r0, #36418	; 0x8e42
 6b8:	00018e02 	andeq	r8, r1, r2, lsl #28
 6bc:	00000014 	andeq	r0, r0, r4, lsl r0
 6c0:	00000694 	muleq	r0, r4, r6
 6c4:	000097bc 			; <UNDEFINED> instruction: 0x000097bc
 6c8:	00000044 	andeq	r0, r0, r4, asr #32
 6cc:	8e040e42 	cdphi	14, 0, cr0, cr4, cr2, {2}
 6d0:	100e4201 	andne	r4, lr, r1, lsl #4
 6d4:	00000014 	andeq	r0, r0, r4, lsl r0
 6d8:	00000694 	muleq	r0, r4, r6
 6dc:	00009800 	andeq	r9, r0, r0, lsl #16
 6e0:	00000044 	andeq	r0, r0, r4, asr #32
 6e4:	8e040e42 	cdphi	14, 0, cr0, cr4, cr2, {2}
 6e8:	100e4201 	andne	r4, lr, r1, lsl #4
 6ec:	00000014 	andeq	r0, r0, r4, lsl r0
 6f0:	00000694 	muleq	r0, r4, r6
 6f4:	00009844 	andeq	r9, r0, r4, asr #16
 6f8:	00000044 	andeq	r0, r0, r4, asr #32
 6fc:	8e040e42 	cdphi	14, 0, cr0, cr4, cr2, {2}
 700:	100e4201 	andne	r4, lr, r1, lsl #4
 704:	00000014 	andeq	r0, r0, r4, lsl r0
 708:	00000694 	muleq	r0, r4, r6
 70c:	00009888 	andeq	r9, r0, r8, lsl #17
 710:	00000044 	andeq	r0, r0, r4, asr #32
 714:	8e040e42 	cdphi	14, 0, cr0, cr4, cr2, {2}
 718:	100e4201 	andne	r4, lr, r1, lsl #4
 71c:	00000014 	andeq	r0, r0, r4, lsl r0
 720:	00000694 	muleq	r0, r4, r6
 724:	000098cc 	andeq	r9, r0, ip, asr #17
 728:	00000044 	andeq	r0, r0, r4, asr #32
 72c:	8e040e42 	cdphi	14, 0, cr0, cr4, cr2, {2}
 730:	100e4201 	andne	r4, lr, r1, lsl #4
 734:	00000014 	andeq	r0, r0, r4, lsl r0
 738:	00000694 	muleq	r0, r4, r6
 73c:	00009910 	andeq	r9, r0, r0, lsl r9
 740:	00000044 	andeq	r0, r0, r4, asr #32
 744:	8e040e42 	cdphi	14, 0, cr0, cr4, cr2, {2}
 748:	100e4201 	andne	r4, lr, r1, lsl #4
 74c:	0000000c 	andeq	r0, r0, ip
 750:	ffffffff 			; <UNDEFINED> instruction: 0xffffffff
 754:	7c020001 	stcvc	0, cr0, [r2], {1}
 758:	000d0c0e 	andeq	r0, sp, lr, lsl #24
 75c:	00000018 	andeq	r0, r0, r8, lsl r0
 760:	0000074c 	andeq	r0, r0, ip, asr #14
 764:	00009a90 	muleq	r0, r0, sl
 768:	0000002c 	andeq	r0, r0, ip, lsr #32
 76c:	84100e42 	ldrhi	r0, [r0], #-3650	; 0xe42
 770:	86038504 	strhi	r8, [r3], -r4, lsl #10
 774:	00018e02 	andeq	r8, r1, r2, lsl #28
 778:	00000014 	andeq	r0, r0, r4, lsl r0
 77c:	0000074c 	andeq	r0, r0, ip, asr #14
 780:	00009abc 			; <UNDEFINED> instruction: 0x00009abc
 784:	0000000c 	andeq	r0, r0, ip
 788:	84080e42 	strhi	r0, [r8], #-3650	; 0xe42
 78c:	00018e02 	andeq	r8, r1, r2, lsl #28
 790:	00000014 	andeq	r0, r0, r4, lsl r0
 794:	0000074c 	andeq	r0, r0, ip, asr #14
 798:	00009ac8 	andeq	r9, r0, r8, asr #21
 79c:	00000018 	andeq	r0, r0, r8, lsl r0
 7a0:	84080e42 	strhi	r0, [r8], #-3650	; 0xe42
 7a4:	00018e02 	andeq	r8, r1, r2, lsl #28
 7a8:	0000000c 	andeq	r0, r0, ip
 7ac:	0000074c 	andeq	r0, r0, ip, asr #14
 7b0:	00009ae0 	andeq	r9, r0, r0, ror #21
 7b4:	0000000c 	andeq	r0, r0, ip
 7b8:	00000014 	andeq	r0, r0, r4, lsl r0
 7bc:	0000074c 	andeq	r0, r0, ip, asr #14
 7c0:	00009aec 	andeq	r9, r0, ip, ror #21
 7c4:	00000020 	andeq	r0, r0, r0, lsr #32
 7c8:	84080e42 	strhi	r0, [r8], #-3650	; 0xe42
 7cc:	00018e02 	andeq	r8, r1, r2, lsl #28
 7d0:	00000014 	andeq	r0, r0, r4, lsl r0
 7d4:	0000074c 	andeq	r0, r0, ip, asr #14
 7d8:	00009b0c 	andeq	r9, r0, ip, lsl #22
 7dc:	00000014 	andeq	r0, r0, r4, lsl r0
 7e0:	84080e42 	strhi	r0, [r8], #-3650	; 0xe42
 7e4:	00018e02 	andeq	r8, r1, r2, lsl #28
 7e8:	00000014 	andeq	r0, r0, r4, lsl r0
 7ec:	0000074c 	andeq	r0, r0, ip, asr #14
 7f0:	00009b20 	andeq	r9, r0, r0, lsr #22
 7f4:	00000020 	andeq	r0, r0, r0, lsr #32
 7f8:	84080e42 	strhi	r0, [r8], #-3650	; 0xe42
 7fc:	00018e02 	andeq	r8, r1, r2, lsl #28
 800:	00000014 	andeq	r0, r0, r4, lsl r0
 804:	0000074c 	andeq	r0, r0, ip, asr #14
 808:	00009b40 	andeq	r9, r0, r0, asr #22
 80c:	00000014 	andeq	r0, r0, r4, lsl r0
 810:	84080e42 	strhi	r0, [r8], #-3650	; 0xe42
 814:	00018e02 	andeq	r8, r1, r2, lsl #28
 818:	00000014 	andeq	r0, r0, r4, lsl r0
 81c:	0000074c 	andeq	r0, r0, ip, asr #14
 820:	00009b54 	andeq	r9, r0, r4, asr fp
 824:	00000018 	andeq	r0, r0, r8, lsl r0
 828:	84080e42 	strhi	r0, [r8], #-3650	; 0xe42
 82c:	00018e02 	andeq	r8, r1, r2, lsl #28
 830:	00000014 	andeq	r0, r0, r4, lsl r0
 834:	0000074c 	andeq	r0, r0, ip, asr #14
 838:	00009b6c 	andeq	r9, r0, ip, ror #22
 83c:	0000001c 	andeq	r0, r0, ip, lsl r0
 840:	84080e42 	strhi	r0, [r8], #-3650	; 0xe42
 844:	00018e02 	andeq	r8, r1, r2, lsl #28
 848:	00000020 	andeq	r0, r0, r0, lsr #32
 84c:	0000074c 	andeq	r0, r0, ip, asr #14
 850:	00009b88 	andeq	r9, r0, r8, lsl #23
 854:	000000dc 	ldrdeq	r0, [r0], -ip
 858:	84080e42 	strhi	r0, [r8], #-3650	; 0xe42
 85c:	42018e02 	andmi	r8, r1, #2, 28
 860:	5602100e 	strpl	r1, [r2], -lr
 864:	42080e0a 	andmi	r0, r8, #10, 28	; 0xa0
 868:	0000000b 	andeq	r0, r0, fp
 86c:	00000014 	andeq	r0, r0, r4, lsl r0
 870:	0000074c 	andeq	r0, r0, ip, asr #14
 874:	00009c64 	andeq	r9, r0, r4, ror #24
 878:	00000040 	andeq	r0, r0, r0, asr #32
 87c:	84080e42 	strhi	r0, [r8], #-3650	; 0xe42
 880:	00018e02 	andeq	r8, r1, r2, lsl #28
 884:	00000014 	andeq	r0, r0, r4, lsl r0
 888:	0000074c 	andeq	r0, r0, ip, asr #14
 88c:	00009ca4 	andeq	r9, r0, r4, lsr #25
 890:	000002b8 			; <UNDEFINED> instruction: 0x000002b8
 894:	84080e42 	strhi	r0, [r8], #-3650	; 0xe42
 898:	00018e02 	andeq	r8, r1, r2, lsl #28
 89c:	00000014 	andeq	r0, r0, r4, lsl r0
 8a0:	0000074c 	andeq	r0, r0, ip, asr #14
 8a4:	00009f5c 	andeq	r9, r0, ip, asr pc
 8a8:	000000d4 	ldrdeq	r0, [r0], -r4
 8ac:	84080e42 	strhi	r0, [r8], #-3650	; 0xe42
 8b0:	00018e02 	andeq	r8, r1, r2, lsl #28
 8b4:	00000014 	andeq	r0, r0, r4, lsl r0
 8b8:	0000074c 	andeq	r0, r0, ip, asr #14
 8bc:	0000a030 	andeq	sl, r0, r0, lsr r0
 8c0:	00000064 	andeq	r0, r0, r4, rrx
 8c4:	84080e42 	strhi	r0, [r8], #-3650	; 0xe42
 8c8:	00018e02 	andeq	r8, r1, r2, lsl #28
 8cc:	00000014 	andeq	r0, r0, r4, lsl r0
 8d0:	0000074c 	andeq	r0, r0, ip, asr #14
 8d4:	0000a094 	muleq	r0, r4, r0
 8d8:	000000c8 	andeq	r0, r0, r8, asr #1
 8dc:	84080e42 	strhi	r0, [r8], #-3650	; 0xe42
 8e0:	00018e02 	andeq	r8, r1, r2, lsl #28
 8e4:	0000000c 	andeq	r0, r0, ip
 8e8:	0000074c 	andeq	r0, r0, ip, asr #14
 8ec:	0000a15c 	andeq	sl, r0, ip, asr r1
 8f0:	00000020 	andeq	r0, r0, r0, lsr #32
 8f4:	00000014 	andeq	r0, r0, r4, lsl r0
 8f8:	0000074c 	andeq	r0, r0, ip, asr #14
 8fc:	0000a17c 	andeq	sl, r0, ip, ror r1
 900:	00000074 	andeq	r0, r0, r4, ror r0
 904:	84080e42 	strhi	r0, [r8], #-3650	; 0xe42
 908:	00018e02 	andeq	r8, r1, r2, lsl #28
 90c:	00000014 	andeq	r0, r0, r4, lsl r0
 910:	0000074c 	andeq	r0, r0, ip, asr #14
 914:	0000a1f0 	strdeq	sl, [r0], -r0
 918:	000000c0 	andeq	r0, r0, r0, asr #1
 91c:	84080e42 	strhi	r0, [r8], #-3650	; 0xe42
 920:	00018e02 	andeq	r8, r1, r2, lsl #28
 924:	0000000c 	andeq	r0, r0, ip
 928:	ffffffff 			; <UNDEFINED> instruction: 0xffffffff
 92c:	7c020001 	stcvc	0, cr0, [r2], {1}
 930:	000d0c0e 	andeq	r0, sp, lr, lsl #24
 934:	0000000c 	andeq	r0, r0, ip
 938:	00000924 	andeq	r0, r0, r4, lsr #18
 93c:	0000a2b0 			; <UNDEFINED> instruction: 0x0000a2b0
 940:	00000020 	andeq	r0, r0, r0, lsr #32
 944:	0000000c 	andeq	r0, r0, ip
 948:	ffffffff 			; <UNDEFINED> instruction: 0xffffffff
 94c:	7c020001 	stcvc	0, cr0, [r2], {1}
 950:	000d0c0e 	andeq	r0, sp, lr, lsl #24
 954:	00000014 	andeq	r0, r0, r4, lsl r0
 958:	00000944 	andeq	r0, r0, r4, asr #18
 95c:	0000a2d0 	ldrdeq	sl, [r0], -r0
 960:	00000028 	andeq	r0, r0, r8, lsr #32
 964:	83080e42 	movwhi	r0, #36418	; 0x8e42
 968:	00018e02 	andeq	r8, r1, r2, lsl #28
 96c:	0000000c 	andeq	r0, r0, ip
 970:	00000944 	andeq	r0, r0, r4, asr #18
 974:	0000a2f8 	strdeq	sl, [r0], -r8
 978:	00000028 	andeq	r0, r0, r8, lsr #32

Disassembly of section .debug_ranges:

00000000 <.debug_ranges>:
   0:	00000294 	muleq	r0, r4, r2
   4:	00000298 	muleq	r0, r8, r2
   8:	000002c8 	andeq	r0, r0, r8, asr #5
   c:	000004b8 			; <UNDEFINED> instruction: 0x000004b8
	...
  18:	00008928 	andeq	r8, r0, r8, lsr #18
  1c:	0000899c 	muleq	r0, ip, r9
	...
  28:	00000218 	andeq	r0, r0, r8, lsl r2
  2c:	000002b4 			; <UNDEFINED> instruction: 0x000002b4
  30:	00000380 	andeq	r0, r0, r0, lsl #7
  34:	0000040c 	andeq	r0, r0, ip, lsl #8
	...
  40:	000002a0 	andeq	r0, r0, r0, lsr #5
  44:	000002b4 			; <UNDEFINED> instruction: 0x000002b4
  48:	000003d4 	ldrdeq	r0, [r0], -r4
  4c:	000003f0 	strdeq	r0, [r0], -r0	; <UNPREDICTABLE>
	...
  58:	000002b4 			; <UNDEFINED> instruction: 0x000002b4
  5c:	00000358 	andeq	r0, r0, r8, asr r3
  60:	0000040c 	andeq	r0, r0, ip, lsl #8
  64:	000004cc 	andeq	r0, r0, ip, asr #9
	...
  70:	00000344 	andeq	r0, r0, r4, asr #6
  74:	00000358 	andeq	r0, r0, r8, asr r3
  78:	00000460 	andeq	r0, r0, r0, ror #8
  7c:	00000484 	andeq	r0, r0, r4, lsl #9
	...
  88:	00000508 	andeq	r0, r0, r8, lsl #10
  8c:	00000540 	andeq	r0, r0, r0, asr #10
  90:	00000564 	andeq	r0, r0, r4, ror #10
  94:	000005a0 	andeq	r0, r0, r0, lsr #11
	...
  a0:	00000700 	andeq	r0, r0, r0, lsl #14
  a4:	00000730 	andeq	r0, r0, r0, lsr r7
  a8:	00000734 	andeq	r0, r0, r4, lsr r7
  ac:	00000760 	andeq	r0, r0, r0, ror #14
	...
