
3-gets-timeout-test.elf:     file format elf32-littlearm


Disassembly of section .text:

00008000 <_start>:
    8000:	e3a0d302 	mov	sp, #134217728	; 0x8000000
    8004:	e3a0b000 	mov	fp, #0
    8008:	eb00033f 	bl	8d0c <_cstart>
    800c:	eb000356 	bl	8d6c <rpi_reboot>

00008010 <notmain>:
// test of gets_timeout.   enter a bunch of text and hit return (so pi-cat sends back)
// or timeout.
#include "rpi.h"
#include "sw-uart.h"

void notmain(void) {
    8010:	e92d47f0 	push	{r4, r5, r6, r7, r8, r9, sl, lr}
    8014:	e24dde41 	sub	sp, sp, #1040	; 0x410
    8018:	e24dd008 	sub	sp, sp, #8
    uart_init();
    801c:	eb0003a0 	bl	8ea4 <uart_init>
    enable_cache();
    8020:	eb000327 	bl	8cc4 <enable_cache>

    // use pin 20 for tx, 21 for rx
    sw_uart_t u = sw_uart_init(20,21, 115200);
    8024:	e59f30d8 	ldr	r3, [pc, #216]	; 8104 <notmain+0xf4>
    8028:	e58d3000 	str	r3, [sp]
    802c:	e28d0b01 	add	r0, sp, #1024	; 0x400
    8030:	e280000c 	add	r0, r0, #12
    8034:	e3a01014 	mov	r1, #20
    8038:	e3a02015 	mov	r2, #21
    803c:	e59f30c4 	ldr	r3, [pc, #196]	; 8108 <notmain+0xf8>
    8040:	eb000141 	bl	854c <sw_uart_init_helper>

    for(int i = 0; i < 4; i++) {
    8044:	e3a04000 	mov	r4, #0
        unsigned timeout = 3;
        printk("%d: enter multiple lines, will stop reading when idle for=%dsec):\n", 
    8048:	e59f80bc 	ldr	r8, [pc, #188]	; 810c <notmain+0xfc>
                        i,timeout);

        char buf[1024];
        // will read until the line is idle for a timeout period.
        int res = sw_uart_gets_timeout(&u, buf, sizeof buf, timeout*1000*1000);
    804c:	e28d600c 	add	r6, sp, #12
    8050:	e59f70b8 	ldr	r7, [pc, #184]	; 8110 <notmain+0x100>
            printk("timeout: res=%d\n", res);
        else {
            assert(strlen(buf) == res);
            // kill newline.
            buf[res] = 0;
            printk("SW-UART: got nbytes=%d, string <%s>\n", res, buf);
    8054:	e59fa0b8 	ldr	sl, [pc, #184]	; 8114 <notmain+0x104>
        char buf[1024];
        // will read until the line is idle for a timeout period.
        int res = sw_uart_gets_timeout(&u, buf, sizeof buf, timeout*1000*1000);

        if(!res)
            printk("timeout: res=%d\n", res);
    8058:	e59f90b8 	ldr	r9, [pc, #184]	; 8118 <notmain+0x108>
    enable_cache();

    // use pin 20 for tx, 21 for rx
    sw_uart_t u = sw_uart_init(20,21, 115200);

    for(int i = 0; i < 4; i++) {
    805c:	ea000025 	b	80f8 <notmain+0xe8>
        unsigned timeout = 3;
        printk("%d: enter multiple lines, will stop reading when idle for=%dsec):\n", 
    8060:	e1a00008 	mov	r0, r8
    8064:	e1a01004 	mov	r1, r4
    8068:	e3a02003 	mov	r2, #3
    806c:	eb0001ad 	bl	8728 <printk>
                        i,timeout);

        char buf[1024];
        // will read until the line is idle for a timeout period.
        int res = sw_uart_gets_timeout(&u, buf, sizeof buf, timeout*1000*1000);
    8070:	e28d0b01 	add	r0, sp, #1024	; 0x400
    8074:	e280000c 	add	r0, r0, #12
    8078:	e1a01006 	mov	r1, r6
    807c:	e3a02b01 	mov	r2, #1024	; 0x400
    8080:	e1a03007 	mov	r3, r7
    8084:	eb000112 	bl	84d4 <sw_uart_gets_timeout>

        if(!res)
    8088:	e2505000 	subs	r5, r0, #0
    808c:	1a000003 	bne	80a0 <notmain+0x90>
            printk("timeout: res=%d\n", res);
    8090:	e1a00009 	mov	r0, r9
    8094:	e1a01005 	mov	r1, r5
    8098:	eb0001a2 	bl	8728 <printk>
    809c:	ea000012 	b	80ec <notmain+0xdc>
        else {
            assert(strlen(buf) == res);
    80a0:	e1a00006 	mov	r0, r6
    80a4:	eb0001c2 	bl	87b4 <strlen>
    80a8:	e1500005 	cmp	r0, r5
    80ac:	0a000005 	beq	80c8 <notmain+0xb8>
    80b0:	e59f0064 	ldr	r0, [pc, #100]	; 811c <notmain+0x10c>
    80b4:	e59f1064 	ldr	r1, [pc, #100]	; 8120 <notmain+0x110>
    80b8:	e59f2064 	ldr	r2, [pc, #100]	; 8124 <notmain+0x114>
    80bc:	e3a03019 	mov	r3, #25
    80c0:	eb000198 	bl	8728 <printk>
    80c4:	eb000306 	bl	8ce4 <clean_reboot>
            // kill newline.
            buf[res] = 0;
    80c8:	e28d2e41 	add	r2, sp, #1040	; 0x410
    80cc:	e2822008 	add	r2, r2, #8
    80d0:	e0823005 	add	r3, r2, r5
    80d4:	e3a02000 	mov	r2, #0
    80d8:	e543240c 	strb	r2, [r3, #-1036]	; 0x40c
            printk("SW-UART: got nbytes=%d, string <%s>\n", res, buf);
    80dc:	e1a0000a 	mov	r0, sl
    80e0:	e1a01005 	mov	r1, r5
    80e4:	e1a02006 	mov	r2, r6
    80e8:	eb00018e 	bl	8728 <printk>
        }
        delay_ms(2000);
    80ec:	e3a00e7d 	mov	r0, #2000	; 0x7d0
    80f0:	eb000347 	bl	8e14 <delay_ms>
    enable_cache();

    // use pin 20 for tx, 21 for rx
    sw_uart_t u = sw_uart_init(20,21, 115200);

    for(int i = 0; i < 4; i++) {
    80f4:	e2844001 	add	r4, r4, #1
    80f8:	e3540003 	cmp	r4, #3
    80fc:	daffffd7 	ble	8060 <notmain+0x50>
            buf[res] = 0;
            printk("SW-UART: got nbytes=%d, string <%s>\n", res, buf);
        }
        delay_ms(2000);
    }
    clean_reboot();
    8100:	eb0002f7 	bl	8ce4 <clean_reboot>
    8104:	000017bc 			; <UNDEFINED> instruction: 0x000017bc
    8108:	0001c200 	andeq	ip, r1, r0, lsl #4
    810c:	00009434 	andeq	r9, r0, r4, lsr r4
    8110:	002dc6c0 	eoreq	ip, sp, r0, asr #13
    8114:	000094c8 	andeq	r9, r0, r8, asr #9
    8118:	00009478 	andeq	r9, r0, r8, ror r4
    811c:	0000948c 	andeq	r9, r0, ip, lsl #9
    8120:	000094b0 			; <UNDEFINED> instruction: 0x000094b0
    8124:	0000942c 	andeq	r9, r0, ip, lsr #8

00008128 <sw_uart_putc>:
 */ 
#include "rpi.h"
#include "sw-uart.h"
#include "cycle-util.h"

void sw_uart_putc(sw_uart_t *uart, unsigned char c) {
    8128:	e92d41f0 	push	{r4, r5, r6, r7, r8, lr}
    812c:	e1a07001 	mov	r7, r1
    // use local variables to minimize any loads or stores
    int tx = uart->tx;
    8130:	e5d06000 	ldrb	r6, [r0]
    uint32_t n = uart->cycle_per_bit,
    8134:	e5905008 	ldr	r5, [r0, #8]
             u = n,
             s = cycle_cnt_read();
    8138:	ee1f3f3c 	mrc	15, 0, r3, cr15, cr12, {1}
	
	// get start conditions
	unsigned end = n;
	unsigned start = cycle_cnt_read();
    813c:	ee1f4f3c 	mrc	15, 0, r4, cr15, cr12, {1}
// after you do: if you look at the generated assembly, there's some
// room for tricks.  also, remove the pin check.
static inline void
write_cyc_until(unsigned pin, unsigned v, unsigned start, unsigned ncycles) {
    // GPIO_WRITE_RAW(pin,v);
    gpio_write(pin,v);
    8140:	e1a00006 	mov	r0, r6
    8144:	e3a01000 	mov	r1, #0
    8148:	eb00043a 	bl	9238 <gpio_write>
// delay <n> cycles assuming we started counting cycles at time
// <start>.
static inline void delay_ncycles(unsigned start, unsigned n) {
    // this handles wrap-around, but doing so adds two instructions,
    // which makes the delay not as tight.
    while((cycle_cnt_read() - start) < n)
    814c:	ee1f3f3c 	mrc	15, 0, r3, cr15, cr12, {1}
    8150:	e0643003 	rsb	r3, r4, r3
    8154:	e1550003 	cmp	r5, r3
    8158:	8afffffb 	bhi	814c <sw_uart_putc+0x24>

	// lower line (line idling)
	write_cyc_until(tx, 0, start, end);
	end += n; 
    815c:	e1a08085 	lsl	r8, r5, #1
// after you do: if you look at the generated assembly, there's some
// room for tricks.  also, remove the pin check.
static inline void
write_cyc_until(unsigned pin, unsigned v, unsigned start, unsigned ncycles) {
    // GPIO_WRITE_RAW(pin,v);
    gpio_write(pin,v);
    8160:	e1a00006 	mov	r0, r6
    8164:	e2071001 	and	r1, r7, #1
    8168:	eb000432 	bl	9238 <gpio_write>
// delay <n> cycles assuming we started counting cycles at time
// <start>.
static inline void delay_ncycles(unsigned start, unsigned n) {
    // this handles wrap-around, but doing so adds two instructions,
    // which makes the delay not as tight.
    while((cycle_cnt_read() - start) < n)
    816c:	ee1f3f3c 	mrc	15, 0, r3, cr15, cr12, {1}
    8170:	e0643003 	rsb	r3, r4, r3
    8174:	e1580003 	cmp	r8, r3
    8178:	8afffffb 	bhi	816c <sw_uart_putc+0x44>
	write_cyc_until(tx, c & 1, start, end);
	end += n; 
    817c:	e0888005 	add	r8, r8, r5
// after you do: if you look at the generated assembly, there's some
// room for tricks.  also, remove the pin check.
static inline void
write_cyc_until(unsigned pin, unsigned v, unsigned start, unsigned ncycles) {
    // GPIO_WRITE_RAW(pin,v);
    gpio_write(pin,v);
    8180:	e1a00006 	mov	r0, r6
    8184:	e2071002 	and	r1, r7, #2
    8188:	eb00042a 	bl	9238 <gpio_write>
// delay <n> cycles assuming we started counting cycles at time
// <start>.
static inline void delay_ncycles(unsigned start, unsigned n) {
    // this handles wrap-around, but doing so adds two instructions,
    // which makes the delay not as tight.
    while((cycle_cnt_read() - start) < n)
    818c:	ee1f3f3c 	mrc	15, 0, r3, cr15, cr12, {1}
    8190:	e0643003 	rsb	r3, r4, r3
    8194:	e1580003 	cmp	r8, r3
    8198:	8afffffb 	bhi	818c <sw_uart_putc+0x64>
	write_cyc_until(tx, c & 2, start, end);
	end += n; 
    819c:	e0888005 	add	r8, r8, r5
// after you do: if you look at the generated assembly, there's some
// room for tricks.  also, remove the pin check.
static inline void
write_cyc_until(unsigned pin, unsigned v, unsigned start, unsigned ncycles) {
    // GPIO_WRITE_RAW(pin,v);
    gpio_write(pin,v);
    81a0:	e1a00006 	mov	r0, r6
    81a4:	e2071004 	and	r1, r7, #4
    81a8:	eb000422 	bl	9238 <gpio_write>
// delay <n> cycles assuming we started counting cycles at time
// <start>.
static inline void delay_ncycles(unsigned start, unsigned n) {
    // this handles wrap-around, but doing so adds two instructions,
    // which makes the delay not as tight.
    while((cycle_cnt_read() - start) < n)
    81ac:	ee1f3f3c 	mrc	15, 0, r3, cr15, cr12, {1}
    81b0:	e0643003 	rsb	r3, r4, r3
    81b4:	e1580003 	cmp	r8, r3
    81b8:	8afffffb 	bhi	81ac <sw_uart_putc+0x84>
	write_cyc_until(tx, c & 4, start, end);
	end += n; 
    81bc:	e0888005 	add	r8, r8, r5
// after you do: if you look at the generated assembly, there's some
// room for tricks.  also, remove the pin check.
static inline void
write_cyc_until(unsigned pin, unsigned v, unsigned start, unsigned ncycles) {
    // GPIO_WRITE_RAW(pin,v);
    gpio_write(pin,v);
    81c0:	e1a00006 	mov	r0, r6
    81c4:	e2071008 	and	r1, r7, #8
    81c8:	eb00041a 	bl	9238 <gpio_write>
// delay <n> cycles assuming we started counting cycles at time
// <start>.
static inline void delay_ncycles(unsigned start, unsigned n) {
    // this handles wrap-around, but doing so adds two instructions,
    // which makes the delay not as tight.
    while((cycle_cnt_read() - start) < n)
    81cc:	ee1f3f3c 	mrc	15, 0, r3, cr15, cr12, {1}
    81d0:	e0643003 	rsb	r3, r4, r3
    81d4:	e1580003 	cmp	r8, r3
    81d8:	8afffffb 	bhi	81cc <sw_uart_putc+0xa4>
	write_cyc_until(tx, c & 8, start, end);
	end += n; 
    81dc:	e0888005 	add	r8, r8, r5
// after you do: if you look at the generated assembly, there's some
// room for tricks.  also, remove the pin check.
static inline void
write_cyc_until(unsigned pin, unsigned v, unsigned start, unsigned ncycles) {
    // GPIO_WRITE_RAW(pin,v);
    gpio_write(pin,v);
    81e0:	e1a00006 	mov	r0, r6
    81e4:	e2071010 	and	r1, r7, #16
    81e8:	eb000412 	bl	9238 <gpio_write>
// delay <n> cycles assuming we started counting cycles at time
// <start>.
static inline void delay_ncycles(unsigned start, unsigned n) {
    // this handles wrap-around, but doing so adds two instructions,
    // which makes the delay not as tight.
    while((cycle_cnt_read() - start) < n)
    81ec:	ee1f3f3c 	mrc	15, 0, r3, cr15, cr12, {1}
    81f0:	e0643003 	rsb	r3, r4, r3
    81f4:	e1580003 	cmp	r8, r3
    81f8:	8afffffb 	bhi	81ec <sw_uart_putc+0xc4>
	write_cyc_until(tx, c & 16, start, end);
	end += n; 
    81fc:	e0888005 	add	r8, r8, r5
// after you do: if you look at the generated assembly, there's some
// room for tricks.  also, remove the pin check.
static inline void
write_cyc_until(unsigned pin, unsigned v, unsigned start, unsigned ncycles) {
    // GPIO_WRITE_RAW(pin,v);
    gpio_write(pin,v);
    8200:	e1a00006 	mov	r0, r6
    8204:	e2071020 	and	r1, r7, #32
    8208:	eb00040a 	bl	9238 <gpio_write>
// delay <n> cycles assuming we started counting cycles at time
// <start>.
static inline void delay_ncycles(unsigned start, unsigned n) {
    // this handles wrap-around, but doing so adds two instructions,
    // which makes the delay not as tight.
    while((cycle_cnt_read() - start) < n)
    820c:	ee1f3f3c 	mrc	15, 0, r3, cr15, cr12, {1}
    8210:	e0643003 	rsb	r3, r4, r3
    8214:	e1580003 	cmp	r8, r3
    8218:	8afffffb 	bhi	820c <sw_uart_putc+0xe4>
	write_cyc_until(tx, c & 32, start, end);
	end += n; 
    821c:	e0888005 	add	r8, r8, r5
// after you do: if you look at the generated assembly, there's some
// room for tricks.  also, remove the pin check.
static inline void
write_cyc_until(unsigned pin, unsigned v, unsigned start, unsigned ncycles) {
    // GPIO_WRITE_RAW(pin,v);
    gpio_write(pin,v);
    8220:	e1a00006 	mov	r0, r6
    8224:	e2071040 	and	r1, r7, #64	; 0x40
    8228:	eb000402 	bl	9238 <gpio_write>
// delay <n> cycles assuming we started counting cycles at time
// <start>.
static inline void delay_ncycles(unsigned start, unsigned n) {
    // this handles wrap-around, but doing so adds two instructions,
    // which makes the delay not as tight.
    while((cycle_cnt_read() - start) < n)
    822c:	ee1f3f3c 	mrc	15, 0, r3, cr15, cr12, {1}
    8230:	e0643003 	rsb	r3, r4, r3
    8234:	e1580003 	cmp	r8, r3
    8238:	8afffffb 	bhi	822c <sw_uart_putc+0x104>
	write_cyc_until(tx, c & 64, start, end);
	end += n; 
    823c:	e0888005 	add	r8, r8, r5
// after you do: if you look at the generated assembly, there's some
// room for tricks.  also, remove the pin check.
static inline void
write_cyc_until(unsigned pin, unsigned v, unsigned start, unsigned ncycles) {
    // GPIO_WRITE_RAW(pin,v);
    gpio_write(pin,v);
    8240:	e1a00006 	mov	r0, r6
    8244:	e2071080 	and	r1, r7, #128	; 0x80
    8248:	eb0003fa 	bl	9238 <gpio_write>
// delay <n> cycles assuming we started counting cycles at time
// <start>.
static inline void delay_ncycles(unsigned start, unsigned n) {
    // this handles wrap-around, but doing so adds two instructions,
    // which makes the delay not as tight.
    while((cycle_cnt_read() - start) < n)
    824c:	ee1f3f3c 	mrc	15, 0, r3, cr15, cr12, {1}
    8250:	e0643003 	rsb	r3, r4, r3
    8254:	e1580003 	cmp	r8, r3
    8258:	8afffffb 	bhi	824c <sw_uart_putc+0x124>
	write_cyc_until(tx, c & 128, start, end);
	end += n; 
    825c:	e0885005 	add	r5, r8, r5
// after you do: if you look at the generated assembly, there's some
// room for tricks.  also, remove the pin check.
static inline void
write_cyc_until(unsigned pin, unsigned v, unsigned start, unsigned ncycles) {
    // GPIO_WRITE_RAW(pin,v);
    gpio_write(pin,v);
    8260:	e1a00006 	mov	r0, r6
    8264:	e3a01001 	mov	r1, #1
    8268:	eb0003f2 	bl	9238 <gpio_write>
// delay <n> cycles assuming we started counting cycles at time
// <start>.
static inline void delay_ncycles(unsigned start, unsigned n) {
    // this handles wrap-around, but doing so adds two instructions,
    // which makes the delay not as tight.
    while((cycle_cnt_read() - start) < n)
    826c:	ee1f3f3c 	mrc	15, 0, r3, cr15, cr12, {1}
    8270:	e0643003 	rsb	r3, r4, r3
    8274:	e1550003 	cmp	r5, r3
    8278:	8afffffb 	bhi	826c <sw_uart_putc+0x144>
	write_cyc_until(tx, 1, start, end);
}
    827c:	e8bd81f0 	pop	{r4, r5, r6, r7, r8, pc}

00008280 <sw_uart_getc_timeout>:
}

// do this second: you can type in pi-cat to send stuff.
//      EASY BUG: if you are reading input, but you do not get here in 
//      time it will disappear.
int sw_uart_getc_timeout(sw_uart_t *uart, int timeout_usec) {
    8280:	e92d43f8 	push	{r3, r4, r5, r6, r7, r8, r9, lr}
    8284:	e1a09000 	mov	r9, r0
   int rx = uart->rx;
    8288:	e5d07001 	ldrb	r7, [r0, #1]
    828c:	e1a05007 	mov	r5, r7

    // get start bit: timeout_usec=0 implies you return right away.
    while(!wait_until_usec(rx, 0, timeout_usec))
    8290:	e1a06001 	mov	r6, r1
	write_cyc_until(tx, 1, start, end);
}

// usec: does not have to be that accurate since the time is just for timeout.
static inline int wait_until_usec(int rx, int v, unsigned timeout_usec) {
    unsigned start = timer_get_usec_raw();
    8294:	eb0002cd 	bl	8dd0 <timer_get_usec_raw>
    8298:	e1a04000 	mov	r4, r0
    while(1) {
        if(gpio_read(rx) == v)
    829c:	e1a00005 	mov	r0, r5
    82a0:	eb0003d1 	bl	91ec <gpio_read>
    82a4:	e3500000 	cmp	r0, #0
    82a8:	0a000005 	beq	82c4 <sw_uart_getc_timeout+0x44>
            return 1;
        if(timer_get_usec_raw() - start > timeout_usec)
    82ac:	eb0002c7 	bl	8dd0 <timer_get_usec_raw>
    82b0:	e0640000 	rsb	r0, r4, r0
    82b4:	e1560000 	cmp	r6, r0
    82b8:	2afffff7 	bcs	829c <sw_uart_getc_timeout+0x1c>
            return 0;
    82bc:	e3a03000 	mov	r3, #0
    82c0:	ea000000 	b	82c8 <sw_uart_getc_timeout+0x48>
// usec: does not have to be that accurate since the time is just for timeout.
static inline int wait_until_usec(int rx, int v, unsigned timeout_usec) {
    unsigned start = timer_get_usec_raw();
    while(1) {
        if(gpio_read(rx) == v)
            return 1;
    82c4:	e3a03001 	mov	r3, #1
//      time it will disappear.
int sw_uart_getc_timeout(sw_uart_t *uart, int timeout_usec) {
   int rx = uart->rx;

    // get start bit: timeout_usec=0 implies you return right away.
    while(!wait_until_usec(rx, 0, timeout_usec))
    82c8:	e3530000 	cmp	r3, #0
    82cc:	0a000059 	beq	8438 <sw_uart_getc_timeout+0x1b8>
        return -1;

    // do this first so we have a tighter bound (maybe)
    unsigned s = cycle_cnt_read();  // subtract off slop?
    82d0:	ee1f8f3c 	mrc	15, 0, r8, cr15, cr12, {1}

    // store these in locals to minimize load stores later.
    uint32_t u = uart->cycle_per_bit;
    82d4:	e5994008 	ldr	r4, [r9, #8]
    unsigned n = u/2;
    unsigned c = 0;

    // wait one period + 1/2 to get in the middle of the next read.
    delay_ncycles(s, n + 1*u);
    82d8:	e08420a4 	add	r2, r4, r4, lsr #1
    82dc:	ee1f3f3c 	mrc	15, 0, r3, cr15, cr12, {1}
    82e0:	e0683003 	rsb	r3, r8, r3
    82e4:	e1520003 	cmp	r2, r3
    82e8:	8afffffb 	bhi	82dc <sw_uart_getc_timeout+0x5c>
	
	s += u;
    82ec:	e0888004 	add	r8, r8, r4
    c |= (gpio_read(rx) >> rx);
    82f0:	e1a00007 	mov	r0, r7
    82f4:	eb0003bc 	bl	91ec <gpio_read>
    82f8:	e1a09750 	asr	r9, r0, r7
    82fc:	ee1f3f3c 	mrc	15, 0, r3, cr15, cr12, {1}
    8300:	e0683003 	rsb	r3, r8, r3
    8304:	e1540003 	cmp	r4, r3
    8308:	8afffffb 	bhi	82fc <sw_uart_getc_timeout+0x7c>
    delay_ncycles(s, u);
	s += u; 
    830c:	e0888004 	add	r8, r8, r4
    c |= (gpio_read(rx) >> rx) << 1;
    8310:	e1a00007 	mov	r0, r7
    8314:	eb0003b4 	bl	91ec <gpio_read>
    8318:	e1a00750 	asr	r0, r0, r7
    831c:	e1899080 	orr	r9, r9, r0, lsl #1
    8320:	ee1f3f3c 	mrc	15, 0, r3, cr15, cr12, {1}
    8324:	e0683003 	rsb	r3, r8, r3
    8328:	e1540003 	cmp	r4, r3
    832c:	8afffffb 	bhi	8320 <sw_uart_getc_timeout+0xa0>
    delay_ncycles(s, u);
	s += u;
    8330:	e0888004 	add	r8, r8, r4
    c |= (gpio_read(rx) >> rx) << 2;
    8334:	e1a00007 	mov	r0, r7
    8338:	eb0003ab 	bl	91ec <gpio_read>
    833c:	e1a00750 	asr	r0, r0, r7
    8340:	e1899100 	orr	r9, r9, r0, lsl #2
    8344:	ee1f3f3c 	mrc	15, 0, r3, cr15, cr12, {1}
    8348:	e0683003 	rsb	r3, r8, r3
    834c:	e1540003 	cmp	r4, r3
    8350:	8afffffb 	bhi	8344 <sw_uart_getc_timeout+0xc4>
    delay_ncycles(s, u);
	s += u;
    8354:	e0888004 	add	r8, r8, r4
    c |= (gpio_read(rx) >> rx) << 3;
    8358:	e1a00007 	mov	r0, r7
    835c:	eb0003a2 	bl	91ec <gpio_read>
    8360:	e1a00750 	asr	r0, r0, r7
    8364:	e1899180 	orr	r9, r9, r0, lsl #3
    8368:	ee1f3f3c 	mrc	15, 0, r3, cr15, cr12, {1}
    836c:	e0683003 	rsb	r3, r8, r3
    8370:	e1540003 	cmp	r4, r3
    8374:	8afffffb 	bhi	8368 <sw_uart_getc_timeout+0xe8>
    delay_ncycles(s, u);
	s += u;
    8378:	e0888004 	add	r8, r8, r4
    c |= (gpio_read(rx) >> rx) << 4;
    837c:	e1a00007 	mov	r0, r7
    8380:	eb000399 	bl	91ec <gpio_read>
    8384:	e1a00750 	asr	r0, r0, r7
    8388:	e1899200 	orr	r9, r9, r0, lsl #4
    838c:	ee1f3f3c 	mrc	15, 0, r3, cr15, cr12, {1}
    8390:	e0683003 	rsb	r3, r8, r3
    8394:	e1540003 	cmp	r4, r3
    8398:	8afffffb 	bhi	838c <sw_uart_getc_timeout+0x10c>
    delay_ncycles(s, u);
	s += u;
    839c:	e0888004 	add	r8, r8, r4
    c |= (gpio_read(rx) >> rx) << 5;
    83a0:	e1a00007 	mov	r0, r7
    83a4:	eb000390 	bl	91ec <gpio_read>
    83a8:	e1a00750 	asr	r0, r0, r7
    83ac:	e1899280 	orr	r9, r9, r0, lsl #5
    83b0:	ee1f3f3c 	mrc	15, 0, r3, cr15, cr12, {1}
    83b4:	e0683003 	rsb	r3, r8, r3
    83b8:	e1540003 	cmp	r4, r3
    83bc:	8afffffb 	bhi	83b0 <sw_uart_getc_timeout+0x130>
    delay_ncycles(s, u);
	s += u;
    83c0:	e0888004 	add	r8, r8, r4
    c |= (gpio_read(rx) >> rx) << 6;
    83c4:	e1a00007 	mov	r0, r7
    83c8:	eb000387 	bl	91ec <gpio_read>
    83cc:	e1a00750 	asr	r0, r0, r7
    83d0:	e1899300 	orr	r9, r9, r0, lsl #6
    83d4:	ee1f3f3c 	mrc	15, 0, r3, cr15, cr12, {1}
    83d8:	e0683003 	rsb	r3, r8, r3
    83dc:	e1540003 	cmp	r4, r3
    83e0:	8afffffb 	bhi	83d4 <sw_uart_getc_timeout+0x154>
    delay_ncycles(s, u);
	s += u;
    c |= (gpio_read(rx) >> rx) << 7;
    83e4:	e1a00007 	mov	r0, r7
    83e8:	eb00037f 	bl	91ec <gpio_read>
    83ec:	e1a00750 	asr	r0, r0, r7
    83f0:	e1899380 	orr	r9, r9, r0, lsl #7
	write_cyc_until(tx, 1, start, end);
}

// usec: does not have to be that accurate since the time is just for timeout.
static inline int wait_until_usec(int rx, int v, unsigned timeout_usec) {
    unsigned start = timer_get_usec_raw();
    83f4:	eb000275 	bl	8dd0 <timer_get_usec_raw>
    83f8:	e1a04000 	mov	r4, r0
    while(1) {
        if(gpio_read(rx) == v)
    83fc:	e1a00005 	mov	r0, r5
    8400:	eb000379 	bl	91ec <gpio_read>
    8404:	e3500000 	cmp	r0, #0
    8408:	0a000005 	beq	8424 <sw_uart_getc_timeout+0x1a4>
            return 1;
        if(timer_get_usec_raw() - start > timeout_usec)
    840c:	eb00026f 	bl	8dd0 <timer_get_usec_raw>
    8410:	e0640000 	rsb	r0, r4, r0
    8414:	e1560000 	cmp	r6, r0
    8418:	2afffff7 	bcs	83fc <sw_uart_getc_timeout+0x17c>
            return 0;
    841c:	e3a03000 	mov	r3, #0
    8420:	ea000000 	b	8428 <sw_uart_getc_timeout+0x1a8>
// usec: does not have to be that accurate since the time is just for timeout.
static inline int wait_until_usec(int rx, int v, unsigned timeout_usec) {
    unsigned start = timer_get_usec_raw();
    while(1) {
        if(gpio_read(rx) == v)
            return 1;
    8424:	e3a03001 	mov	r3, #1
    c |= (gpio_read(rx) >> rx) << 7;
    //delay_ncycles(s, u);
	//s += u;
    
	// make sure you wait for a stop bit: otherwise the next read may fail.
    while(!wait_until_usec(rx, 0, timeout_usec))
    8428:	e3530000 	cmp	r3, #0
    842c:	0a000003 	beq	8440 <sw_uart_getc_timeout+0x1c0>
        return -1;
	// delay_ncycles(s, n);

    return (int)c;
    8430:	e1a00009 	mov	r0, r9
    8434:	e8bd83f8 	pop	{r3, r4, r5, r6, r7, r8, r9, pc}
int sw_uart_getc_timeout(sw_uart_t *uart, int timeout_usec) {
   int rx = uart->rx;

    // get start bit: timeout_usec=0 implies you return right away.
    while(!wait_until_usec(rx, 0, timeout_usec))
        return -1;
    8438:	e3e00000 	mvn	r0, #0
    843c:	e8bd83f8 	pop	{r3, r4, r5, r6, r7, r8, r9, pc}
    //delay_ncycles(s, u);
	//s += u;
    
	// make sure you wait for a stop bit: otherwise the next read may fail.
    while(!wait_until_usec(rx, 0, timeout_usec))
        return -1;
    8440:	e3e00000 	mvn	r0, #0
	// delay_ncycles(s, n);

    return (int)c;
}
    8444:	e8bd83f8 	pop	{r3, r4, r5, r6, r7, r8, r9, pc}

00008448 <sw_uart_gets_until>:


// read characters using <sw_uart_getc()> until:
//       <sw_uart_getc() == <end>>
// returns -nbytes read if timeout (could be 0).
int sw_uart_gets_until(sw_uart_t *u, uint8_t *buf, uint32_t nbytes, uint8_t end, uint32_t usec_timeout) {
    8448:	e92d47f0 	push	{r4, r5, r6, r7, r8, r9, sl, lr}
    844c:	e1a08000 	mov	r8, r0
    8450:	e1a06001 	mov	r6, r1
    8454:	e1a09003 	mov	r9, r3
    8458:	e59da020 	ldr	sl, [sp, #32]
    assert(nbytes>0);
    845c:	e3520000 	cmp	r2, #0
    8460:	1a000005 	bne	847c <sw_uart_gets_until+0x34>
    8464:	e59f005c 	ldr	r0, [pc, #92]	; 84c8 <sw_uart_gets_until+0x80>
    8468:	e59f105c 	ldr	r1, [pc, #92]	; 84cc <sw_uart_gets_until+0x84>
    846c:	e59f205c 	ldr	r2, [pc, #92]	; 84d0 <sw_uart_gets_until+0x88>
    8470:	e3a03071 	mov	r3, #113	; 0x71
    8474:	eb0000ab 	bl	8728 <printk>
    8478:	eb000219 	bl	8ce4 <clean_reboot>
    buf[0] = 0;
    847c:	e3a04000 	mov	r4, #0
    8480:	e5c14000 	strb	r4, [r1]

    int i;
	uint8_t char_in;
    for(i = 0; i < nbytes-1; i++) {
    8484:	e2427001 	sub	r7, r2, #1
    8488:	ea000007 	b	84ac <sw_uart_gets_until+0x64>
        if((char_in = (uint8_t)sw_uart_getc_timeout(u, usec_timeout)) != end) {
    848c:	e1a00008 	mov	r0, r8
    8490:	e1a0100a 	mov	r1, sl
    8494:	ebffff79 	bl	8280 <sw_uart_getc_timeout>
    8498:	e6ef0070 	uxtb	r0, r0
    849c:	e1500009 	cmp	r0, r9
    84a0:	0a000004 	beq	84b8 <sw_uart_gets_until+0x70>
			buf[i] = char_in;
    84a4:	e7c60005 	strb	r0, [r6, r5]
    assert(nbytes>0);
    buf[0] = 0;

    int i;
	uint8_t char_in;
    for(i = 0; i < nbytes-1; i++) {
    84a8:	e2844001 	add	r4, r4, #1
    84ac:	e1a05004 	mov	r5, r4
    84b0:	e1540007 	cmp	r4, r7
    84b4:	3afffff4 	bcc	848c <sw_uart_gets_until+0x44>
			buf[i] = char_in;
		} else {
			break;
		}
    }
    buf[i] = 0;
    84b8:	e3a03000 	mov	r3, #0
    84bc:	e7c63005 	strb	r3, [r6, r5]
    return i;
}
    84c0:	e1a00004 	mov	r0, r4
    84c4:	e8bd87f0 	pop	{r4, r5, r6, r7, r8, r9, sl, pc}
    84c8:	00009568 	andeq	r9, r0, r8, ror #10
    84cc:	00009584 	andeq	r9, r0, r4, lsl #11
    84d0:	000094f0 	strdeq	r9, [r0], -r0

000084d4 <sw_uart_gets_timeout>:

// read characters using <sw_uart_getc()> until:
//      we do not receive any characters for <timeout> usec.
// make sure to 0 terminate!
int sw_uart_gets_timeout(sw_uart_t *u, uint8_t *buf, 
                    uint32_t nbytes, uint32_t usec_timeout) {
    84d4:	e92d41f0 	push	{r4, r5, r6, r7, r8, lr}
    84d8:	e1a07000 	mov	r7, r0
    84dc:	e1a05001 	mov	r5, r1
    84e0:	e1a08003 	mov	r8, r3

    assert(nbytes>0);
    84e4:	e3520000 	cmp	r2, #0
    84e8:	1a000005 	bne	8504 <sw_uart_gets_timeout+0x30>
    84ec:	e59f004c 	ldr	r0, [pc, #76]	; 8540 <sw_uart_gets_timeout+0x6c>
    84f0:	e59f104c 	ldr	r1, [pc, #76]	; 8544 <sw_uart_gets_timeout+0x70>
    84f4:	e59f204c 	ldr	r2, [pc, #76]	; 8548 <sw_uart_gets_timeout+0x74>
    84f8:	e3a03087 	mov	r3, #135	; 0x87
    84fc:	eb000089 	bl	8728 <printk>
    8500:	eb0001f7 	bl	8ce4 <clean_reboot>
    buf[0] = 0;
    8504:	e3a04000 	mov	r4, #0
    8508:	e5c14000 	strb	r4, [r1]

    int i;
    for(i = 0; i < nbytes-1; i++) {
    850c:	e2426001 	sub	r6, r2, #1
    8510:	ea000004 	b	8528 <sw_uart_gets_timeout+0x54>
        buf[i] = (uint8_t) sw_uart_getc_timeout(u, usec_timeout);
    8514:	e1a00007 	mov	r0, r7
    8518:	e1a01008 	mov	r1, r8
    851c:	ebffff57 	bl	8280 <sw_uart_getc_timeout>
    8520:	e7c50004 	strb	r0, [r5, r4]

    assert(nbytes>0);
    buf[0] = 0;

    int i;
    for(i = 0; i < nbytes-1; i++) {
    8524:	e2844001 	add	r4, r4, #1
    8528:	e1540006 	cmp	r4, r6
    852c:	3afffff8 	bcc	8514 <sw_uart_gets_timeout+0x40>
        buf[i] = (uint8_t) sw_uart_getc_timeout(u, usec_timeout);
    }
    buf[i] = 0;
    8530:	e3a03000 	mov	r3, #0
    8534:	e7c53004 	strb	r3, [r5, r4]
    return i;
}
    8538:	e1a00004 	mov	r0, r4
    853c:	e8bd81f0 	pop	{r4, r5, r6, r7, r8, pc}
    8540:	00009568 	andeq	r9, r0, r8, ror #10
    8544:	00009584 	andeq	r9, r0, r4, lsl #11
    8548:	00009504 	andeq	r9, r0, r4, lsl #10

0000854c <sw_uart_init_helper>:
/**************************************************************************
 * this code is implemented for you
 */

sw_uart_t 
sw_uart_init_helper(uint8_t tx, uint8_t rx, uint32_t baud, uint32_t cyc_per_bit) {
    854c:	e92d41f0 	push	{r4, r5, r6, r7, r8, lr}
    8550:	e1a04000 	mov	r4, r0
    8554:	e1a08001 	mov	r8, r1
    8558:	e1a07002 	mov	r7, r2
    855c:	e1a05003 	mov	r5, r3
    8560:	e59d6018 	ldr	r6, [sp, #24]
    // maybe enable the cache?  don't think will work otherwise.
    gpio_set_output(tx);
    8564:	e1a00001 	mov	r0, r1
    8568:	eb00029b 	bl	8fdc <gpio_set_output>
    gpio_set_input(rx);
    856c:	e1a00007 	mov	r0, r7
    8570:	eb0002ea 	bl	9120 <gpio_set_input>
    cycle_cnt_init();       
    8574:	e3a03001 	mov	r3, #1
    8578:	ee0f3f1c 	mcr	15, 0, r3, cr15, cr12, {0}


    // make sure it makes sense.
    unsigned mhz = 700 * 1000 * 1000;
    unsigned derived = cyc_per_bit * baud;
    857c:	e0020695 	mul	r2, r5, r6
    assert((mhz - baud) <= derived && derived <= (mhz + baud));
    8580:	e59f3064 	ldr	r3, [pc, #100]	; 85ec <sw_uart_init_helper+0xa0>
    8584:	e0653003 	rsb	r3, r5, r3
    8588:	e1530002 	cmp	r3, r2
    858c:	8a000005 	bhi	85a8 <sw_uart_init_helper+0x5c>
    8590:	e59f3054 	ldr	r3, [pc, #84]	; 85ec <sw_uart_init_helper+0xa0>
    8594:	e0853003 	add	r3, r5, r3
    8598:	e1530002 	cmp	r3, r2
    859c:	2a000003 	bcs	85b0 <sw_uart_init_helper+0x64>
    85a0:	e3a03000 	mov	r3, #0
    85a4:	ea000002 	b	85b4 <sw_uart_init_helper+0x68>
    85a8:	e3a03000 	mov	r3, #0
    85ac:	ea000000 	b	85b4 <sw_uart_init_helper+0x68>
    85b0:	e3a03001 	mov	r3, #1
    85b4:	e3530000 	cmp	r3, #0
    85b8:	1a000005 	bne	85d4 <sw_uart_init_helper+0x88>
    85bc:	e59f002c 	ldr	r0, [pc, #44]	; 85f0 <sw_uart_init_helper+0xa4>
    85c0:	e59f102c 	ldr	r1, [pc, #44]	; 85f4 <sw_uart_init_helper+0xa8>
    85c4:	e59f202c 	ldr	r2, [pc, #44]	; 85f8 <sw_uart_init_helper+0xac>
    85c8:	e3a030a1 	mov	r3, #161	; 0xa1
    85cc:	eb000055 	bl	8728 <printk>
    85d0:	eb0001c3 	bl	8ce4 <clean_reboot>
    // panic("cyc_per_bit = %d * baud = %d\n", cyc_per_bit, cyc_per_bit * baud);

    return (sw_uart_t) { 
    85d4:	e5c48000 	strb	r8, [r4]
    85d8:	e5c47001 	strb	r7, [r4, #1]
    85dc:	e5845004 	str	r5, [r4, #4]
    85e0:	e5846008 	str	r6, [r4, #8]
            .tx = tx, 
            .rx = rx, 
            .baud = baud, 
            .cycle_per_bit = cyc_per_bit 
    };
}
    85e4:	e1a00004 	mov	r0, r4
    85e8:	e8bd81f0 	pop	{r4, r5, r6, r7, r8, pc}
    85ec:	29b92700 	ldmibcs	r9!, {r8, r9, sl, sp}
    85f0:	00009590 	muleq	r0, r0, r5
    85f4:	00009584 	andeq	r9, r0, r4, lsl #11
    85f8:	0000951c 	andeq	r9, r0, ip, lsl r5

000085fc <sw_uart_getc>:

// blocking read.
int sw_uart_getc(sw_uart_t *uart) {
    85fc:	e92d4008 	push	{r3, lr}
    int res = sw_uart_getc_timeout(uart, ~0);
    8600:	e3e01000 	mvn	r1, #0
    8604:	ebffff1d 	bl	8280 <sw_uart_getc_timeout>
    if(res < 0)
    8608:	e3500000 	cmp	r0, #0
    860c:	a8bd8008 	popge	{r3, pc}
        panic("impossible: have an infinite timeout!\n");
    8610:	e59f0010 	ldr	r0, [pc, #16]	; 8628 <sw_uart_getc+0x2c>
    8614:	e59f1010 	ldr	r1, [pc, #16]	; 862c <sw_uart_getc+0x30>
    8618:	e59f2010 	ldr	r2, [pc, #16]	; 8630 <sw_uart_getc+0x34>
    861c:	e3a030b0 	mov	r3, #176	; 0xb0
    8620:	eb000040 	bl	8728 <printk>
    8624:	eb0001ae 	bl	8ce4 <clean_reboot>
    8628:	000095d4 	ldrdeq	r9, [r0], -r4
    862c:	00009584 	andeq	r9, r0, r4, lsl #11
    8630:	00009530 	andeq	r9, r0, r0, lsr r5

00008634 <sw_uart_putk>:
    return res;
}

void sw_uart_putk(sw_uart_t *uart, const char *msg) {
    8634:	e92d4038 	push	{r3, r4, r5, lr}
    8638:	e1a05000 	mov	r5, r0
    863c:	e1a04001 	mov	r4, r1
    for(; *msg; msg++)
    8640:	ea000002 	b	8650 <sw_uart_putk+0x1c>
        sw_uart_putc(uart, *msg);
    8644:	e1a00005 	mov	r0, r5
    8648:	ebfffeb6 	bl	8128 <sw_uart_putc>
        panic("impossible: have an infinite timeout!\n");
    return res;
}

void sw_uart_putk(sw_uart_t *uart, const char *msg) {
    for(; *msg; msg++)
    864c:	e2844001 	add	r4, r4, #1
    8650:	e5d41000 	ldrb	r1, [r4]
    8654:	e3510000 	cmp	r1, #0
    8658:	1afffff9 	bne	8644 <sw_uart_putk+0x10>
        sw_uart_putc(uart, *msg);
}
    865c:	e8bd8038 	pop	{r3, r4, r5, pc}

00008660 <sw_uart_printk>:

// don't pollute the rest of the code with all the stuff in the 
// <stdarg.h> header.
#include <stdarg.h>
#include "libc/va-printk.h"
int sw_uart_printk(sw_uart_t *uart, const char *fmt, ...) {
    8660:	e92d000e 	push	{r1, r2, r3}
    8664:	e92d4030 	push	{r4, r5, lr}
    8668:	e24dde1d 	sub	sp, sp, #464	; 0x1d0
    866c:	e1a05000 	mov	r5, r0
    char buf[460];

    va_list args;
    va_start(args, fmt);
    8670:	e28d3e1e 	add	r3, sp, #480	; 0x1e0
    8674:	e58d3000 	str	r3, [sp]
        int sz = va_printk(buf, sizeof buf, fmt, args);
    8678:	e28d0004 	add	r0, sp, #4
    867c:	e3a01f73 	mov	r1, #460	; 0x1cc
    8680:	e59d21dc 	ldr	r2, [sp, #476]	; 0x1dc
    8684:	eb0000ec 	bl	8a3c <va_printk>
    8688:	e1a04000 	mov	r4, r0
    va_end(args);
    assert(sz < sizeof buf-1);
    868c:	e59f303c 	ldr	r3, [pc, #60]	; 86d0 <sw_uart_printk+0x70>
    8690:	e1500003 	cmp	r0, r3
    8694:	9a000005 	bls	86b0 <sw_uart_printk+0x50>
    8698:	e59f0034 	ldr	r0, [pc, #52]	; 86d4 <sw_uart_printk+0x74>
    869c:	e59f1034 	ldr	r1, [pc, #52]	; 86d8 <sw_uart_printk+0x78>
    86a0:	e59f2034 	ldr	r2, [pc, #52]	; 86dc <sw_uart_printk+0x7c>
    86a4:	e3a030c4 	mov	r3, #196	; 0xc4
    86a8:	eb00001e 	bl	8728 <printk>
    86ac:	eb00018c 	bl	8ce4 <clean_reboot>
    sw_uart_putk(uart,buf);
    86b0:	e1a00005 	mov	r0, r5
    86b4:	e28d1004 	add	r1, sp, #4
    86b8:	ebffffdd 	bl	8634 <sw_uart_putk>
    return sz;
}
    86bc:	e1a00004 	mov	r0, r4
    86c0:	e28dde1d 	add	sp, sp, #464	; 0x1d0
    86c4:	e8bd4030 	pop	{r4, r5, lr}
    86c8:	e28dd00c 	add	sp, sp, #12
    86cc:	e12fff1e 	bx	lr
    86d0:	000001ca 	andeq	r0, r0, sl, asr #3
    86d4:	0000960c 	andeq	r9, r0, ip, lsl #12
    86d8:	00009584 	andeq	r9, r0, r4, lsl #11
    86dc:	00009540 	andeq	r9, r0, r0, asr #10

000086e0 <sw_uart_gets_until_blk>:

int sw_uart_gets_until_blk(sw_uart_t *u, uint8_t *buf, uint32_t nbytes, uint8_t end) {
    86e0:	e52de004 	push	{lr}		; (str lr, [sp, #-4]!)
    86e4:	e24dd00c 	sub	sp, sp, #12
    int res = sw_uart_gets_until(u, buf, nbytes, end, ~0);
    86e8:	e3e0c000 	mvn	ip, #0
    86ec:	e58dc000 	str	ip, [sp]
    86f0:	ebffff54 	bl	8448 <sw_uart_gets_until>
    if(res < 0)
    86f4:	e3500000 	cmp	r0, #0
    86f8:	aa000005 	bge	8714 <sw_uart_gets_until_blk+0x34>
        panic("impossible: have an infinite timeout!\n");
    86fc:	e59f0018 	ldr	r0, [pc, #24]	; 871c <sw_uart_gets_until_blk+0x3c>
    8700:	e59f1018 	ldr	r1, [pc, #24]	; 8720 <sw_uart_gets_until_blk+0x40>
    8704:	e59f2018 	ldr	r2, [pc, #24]	; 8724 <sw_uart_gets_until_blk+0x44>
    8708:	e3a030cc 	mov	r3, #204	; 0xcc
    870c:	eb000005 	bl	8728 <printk>
    8710:	eb000173 	bl	8ce4 <clean_reboot>
    return res;
}
    8714:	e28dd00c 	add	sp, sp, #12
    8718:	e49df004 	pop	{pc}		; (ldr pc, [sp], #4)
    871c:	000095d4 	ldrdeq	r9, [r0], -r4
    8720:	00009584 	andeq	r9, r0, r4, lsl #11
    8724:	00009550 	andeq	r9, r0, r0, asr r5

00008728 <printk>:
#include <stdarg.h>

#include "rpi.h"
#include "va-printk.h"

int printk(const char *fmt, ...) {
    8728:	e92d000f 	push	{r0, r1, r2, r3}
    872c:	e92d4030 	push	{r4, r5, lr}
    8730:	e24dd00c 	sub	sp, sp, #12
    // this is a really huge buffer for a pi.   could do this better.
    static char buf[1024];
    va_list args;

    va_start(args, fmt);
    8734:	e28d301c 	add	r3, sp, #28
    8738:	e58d3004 	str	r3, [sp, #4]
        int sz = va_printk(buf, sizeof buf, fmt, args);
    873c:	e59f4034 	ldr	r4, [pc, #52]	; 8778 <printk+0x50>
    8740:	e1a00004 	mov	r0, r4
    8744:	e3a01b01 	mov	r1, #1024	; 0x400
    8748:	e59d2018 	ldr	r2, [sp, #24]
    874c:	eb0000ba 	bl	8a3c <va_printk>
    8750:	e1a05000 	mov	r5, r0
    va_end(args);


#if 1
    putk(buf);
    8754:	e59f3020 	ldr	r3, [pc, #32]	; 877c <printk+0x54>
    8758:	e5933000 	ldr	r3, [r3]
    875c:	e1a00004 	mov	r0, r4
    8760:	e12fff33 	blx	r3
    int i;
    for(i = 0; buf[i]; i++)
        rpi_putchar(buf[i]);
#endif
    return sz;
}
    8764:	e1a00005 	mov	r0, r5
    8768:	e28dd00c 	add	sp, sp, #12
    876c:	e8bd4030 	pop	{r4, r5, lr}
    8770:	e28dd010 	add	sp, sp, #16
    8774:	e12fff1e 	bx	lr
    8778:	00009740 	andeq	r9, r0, r0, asr #14
    877c:	000093b4 			; <UNDEFINED> instruction: 0x000093b4

00008780 <internal_putk>:
#include "rpi.h"

// much faster to send this as an entire string using the esp.
int internal_putk(const char *p) {
    8780:	e92d4038 	push	{r3, r4, r5, lr}
    8784:	e1a04000 	mov	r4, r0
    for(; *p; p++)
        rpi_putchar(*p);
    8788:	e59f5020 	ldr	r5, [pc, #32]	; 87b0 <internal_putk+0x30>
#include "rpi.h"

// much faster to send this as an entire string using the esp.
int internal_putk(const char *p) {
    for(; *p; p++)
    878c:	ea000002 	b	879c <internal_putk+0x1c>
        rpi_putchar(*p);
    8790:	e5953000 	ldr	r3, [r5]
    8794:	e12fff33 	blx	r3
#include "rpi.h"

// much faster to send this as an entire string using the esp.
int internal_putk(const char *p) {
    for(; *p; p++)
    8798:	e2844001 	add	r4, r4, #1
    879c:	e5d40000 	ldrb	r0, [r4]
    87a0:	e3500000 	cmp	r0, #0
    87a4:	1afffff9 	bne	8790 <internal_putk+0x10>
        rpi_putchar(*p);
//  we were adding this.
//  rpi_putchar('\n');
    return 1;
}
    87a8:	e3a00001 	mov	r0, #1
    87ac:	e8bd8038 	pop	{r3, r4, r5, pc}
    87b0:	00009428 	andeq	r9, r0, r8, lsr #8

000087b4 <strlen>:
#include <string.h>

size_t strlen(const char *p) {
    size_t ret;
    for (ret = 0; p[ret]; ++ret)
    87b4:	e3a03000 	mov	r3, #0
    87b8:	ea000000 	b	87c0 <strlen+0xc>
    87bc:	e2833001 	add	r3, r3, #1
    87c0:	e7d02003 	ldrb	r2, [r0, r3]
    87c4:	e3520000 	cmp	r2, #0
    87c8:	1afffffb 	bne	87bc <strlen+0x8>
        ;
    return ret;
}
    87cc:	e1a00003 	mov	r0, r3
    87d0:	e12fff1e 	bx	lr

000087d4 <isdigit>:
    if(puts_fp)
        putk = puts_fp;
}

// XXX: check sign promotion.
static int isdigit(int c) { return c >= '0' && c <= '9'; }
    87d4:	e2400030 	sub	r0, r0, #48	; 0x30
    87d8:	e3500009 	cmp	r0, #9
    87dc:	83a00000 	movhi	r0, #0
    87e0:	93a00001 	movls	r0, #1
    87e4:	e12fff1e 	bx	lr

000087e8 <pad>:

// don't move: can't be inlined, gcc seems to have a bug.
char * __emit_float(char *num, double d, unsigned wdith);

static char* pad(char *p,  char *base, int width) {
	int len = p - base;
    87e8:	e0611000 	rsb	r1, r1, r0
	// pad with leading spaces
	for(; len < width; len++)
		*p++ = ' ';
    87ec:	e3a03020 	mov	r3, #32
char * __emit_float(char *num, double d, unsigned wdith);

static char* pad(char *p,  char *base, int width) {
	int len = p - base;
	// pad with leading spaces
	for(; len < width; len++)
    87f0:	ea000002 	b	8800 <pad+0x18>
		*p++ = ' ';
    87f4:	e5c03000 	strb	r3, [r0]
char * __emit_float(char *num, double d, unsigned wdith);

static char* pad(char *p,  char *base, int width) {
	int len = p - base;
	// pad with leading spaces
	for(; len < width; len++)
    87f8:	e2811001 	add	r1, r1, #1
		*p++ = ' ';
    87fc:	e2800001 	add	r0, r0, #1
char * __emit_float(char *num, double d, unsigned wdith);

static char* pad(char *p,  char *base, int width) {
	int len = p - base;
	// pad with leading spaces
	for(; len < width; len++)
    8800:	e1510002 	cmp	r1, r2
    8804:	bafffffa 	blt	87f4 <pad+0xc>
		*p++ = ' ';
	*p = 0;
    8808:	e3a03000 	mov	r3, #0
    880c:	e5c03000 	strb	r3, [r0]
	return p;
}
    8810:	e12fff1e 	bx	lr

00008814 <reverse>:

static char* reverse(char *dst, int n, char *p, char *start) {
	// drop the lower chars if the string is too big.
	int len = p - start + 1; // include \0
    8814:	e063c002 	rsb	ip, r3, r2
    8818:	e28cc001 	add	ip, ip, #1
	if(len > n)
    881c:	e15c0001 	cmp	ip, r1
		start += (len - n);
    8820:	c061100c 	rsbgt	r1, r1, ip
    8824:	c0833001 	addgt	r3, r3, r1

	char *s = dst;
	
	// p starts at end.
	for(p--; p >= start; p--)
    8828:	e2422001 	sub	r2, r2, #1
    882c:	e1a01000 	mov	r1, r0
    8830:	ea000002 	b	8840 <reverse+0x2c>
		*dst++ = *p;
    8834:	e452c001 	ldrb	ip, [r2], #-1
    8838:	e5c1c000 	strb	ip, [r1]
    883c:	e2811001 	add	r1, r1, #1
		start += (len - n);

	char *s = dst;
	
	// p starts at end.
	for(p--; p >= start; p--)
    8840:	e1520003 	cmp	r2, r3
    8844:	2afffffa 	bcs	8834 <reverse+0x20>
		*dst++ = *p;
	*dst++ = 0;
    8848:	e3a03000 	mov	r3, #0
    884c:	e5c13000 	strb	r3, [r1]

	return s;
}
    8850:	e12fff1e 	bx	lr

00008854 <emit>:

static char* emit(unsigned base, char *dst, int n, int val, int width, int signed_p) {
    8854:	e92d41f0 	push	{r4, r5, r6, r7, r8, lr}
    8858:	e24dd040 	sub	sp, sp, #64	; 0x40
    885c:	e1a05001 	mov	r5, r1
    8860:	e1a04002 	mov	r4, r2
    8864:	e59d2058 	ldr	r2, [sp, #88]	; 0x58
	// XXX: constrain width to be >= bit size: can change this.
	if(width > n)
    8868:	e1520004 	cmp	r2, r4
		width = n - 1;
    886c:	c2442001 	subgt	r2, r4, #1

	char buf[64], *p = buf; 
	unsigned u = val;
    8870:	e1a0c003 	mov	ip, r3

	switch(base) { 
    8874:	e2400002 	sub	r0, r0, #2
    8878:	e350000e 	cmp	r0, #14
    887c:	979ff100 	ldrls	pc, [pc, r0, lsl #2]
    8880:	ea000042 	b	8990 <emit+0x13c>
    8884:	00008968 	andeq	r8, r0, r8, ror #18
    8888:	00008990 	muleq	r0, r0, r9
    888c:	00008990 	muleq	r0, r0, r9
    8890:	00008990 	muleq	r0, r0, r9
    8894:	00008990 	muleq	r0, r0, r9
    8898:	00008990 	muleq	r0, r0, r9
    889c:	0000895c 	andeq	r8, r0, ip, asr r9
    88a0:	00008990 	muleq	r0, r0, r9
    88a4:	000088c0 	andeq	r8, r0, r0, asr #17
    88a8:	00008990 	muleq	r0, r0, r9
    88ac:	00008990 	muleq	r0, r0, r9
    88b0:	00008990 	muleq	r0, r0, r9
    88b4:	00008990 	muleq	r0, r0, r9
    88b8:	00008990 	muleq	r0, r0, r9
    88bc:	00008934 	andeq	r8, r0, r4, lsr r9
		case 10: 
		{
			unsigned neg_p = 0;
			if(val < 0 && signed_p) {
    88c0:	e59d105c 	ldr	r1, [sp, #92]	; 0x5c
    88c4:	e2911000 	adds	r1, r1, #0
    88c8:	13a01001 	movne	r1, #1
    88cc:	e0111fa3 	ands	r1, r1, r3, lsr #31
				neg_p = 1;
				val = -val;
    88d0:	1263c000 	rsbne	ip, r3, #0
	switch(base) { 
		case 10: 
		{
			unsigned neg_p = 0;
			if(val < 0 && signed_p) {
				neg_p = 1;
    88d4:	13a08001 	movne	r8, #1
	unsigned u = val;

	switch(base) { 
		case 10: 
		{
			unsigned neg_p = 0;
    88d8:	03a08000 	moveq	r8, #0
			if(val < 0 && signed_p) {
				neg_p = 1;
    88dc:	e1a0100d 	mov	r1, sp
				val = -val;
				u = val;
			}
			do { 
				*p++ = "0123456789"[u % 10];
    88e0:	e59f70e8 	ldr	r7, [pc, #232]	; 89d0 <emit+0x17c>
    88e4:	e59f60e8 	ldr	r6, [pc, #232]	; 89d4 <emit+0x180>
    88e8:	ea000000 	b	88f0 <emit+0x9c>
    88ec:	e1a01003 	mov	r1, r3
    88f0:	e2813001 	add	r3, r1, #1
    88f4:	e08e0c97 	umull	r0, lr, r7, ip
    88f8:	e1a0e1ae 	lsr	lr, lr, #3
    88fc:	e1a0000e 	mov	r0, lr
    8900:	e08ee10e 	add	lr, lr, lr, lsl #2
    8904:	e1a0e08e 	lsl	lr, lr, #1
    8908:	e06ee00c 	rsb	lr, lr, ip
    890c:	e7d6c00e 	ldrb	ip, [r6, lr]
    8910:	e5c1c000 	strb	ip, [r1]
			} while(u /= 10); 
    8914:	e1a0c000 	mov	ip, r0
    8918:	e3500000 	cmp	r0, #0
    891c:	1afffff2 	bne	88ec <emit+0x98>
			if(neg_p)
    8920:	e3580000 	cmp	r8, #0
				*p++ = '-';
    8924:	12813002 	addne	r3, r1, #2
    8928:	13a0002d 	movne	r0, #45	; 0x2d
    892c:	15c10001 	strbne	r0, [r1, #1]
    8930:	ea00001c 	b	89a8 <emit+0x154>
		width = n - 1;

	char buf[64], *p = buf; 
	unsigned u = val;

	switch(base) { 
    8934:	e1a0e00d 	mov	lr, sp
			break;
		}
		case 16:
			u = val;
                        do {
                                *p++ = "0123456789abcdef"[u % 16];
    8938:	e59f0098 	ldr	r0, [pc, #152]	; 89d8 <emit+0x184>
    893c:	e28e3001 	add	r3, lr, #1
    8940:	e20c100f 	and	r1, ip, #15
    8944:	e7d01001 	ldrb	r1, [r0, r1]
    8948:	e5ce1000 	strb	r1, [lr]
    894c:	e1a0e003 	mov	lr, r3
                        } while(u /= 16);
    8950:	e1b0c22c 	lsrs	ip, ip, #4
    8954:	1afffff8 	bne	893c <emit+0xe8>
    8958:	ea000012 	b	89a8 <emit+0x154>
                        break;
		// just a single char
		case 8:
			*p++ = val;
    895c:	e5cd3000 	strb	r3, [sp]
    8960:	e28d3001 	add	r3, sp, #1
			break;
    8964:	ea00000f 	b	89a8 <emit+0x154>
		width = n - 1;

	char buf[64], *p = buf; 
	unsigned u = val;

	switch(base) { 
    8968:	e1a0e00d 	mov	lr, sp
#if 0
			for(int i = 0; i < 32; i++)
				*p++ = "01"[(u & (1<<i)) != 0];
#else
                        do {
                        	*p++ = "01"[u % 2];
    896c:	e59f0068 	ldr	r0, [pc, #104]	; 89dc <emit+0x188>
    8970:	e28e3001 	add	r3, lr, #1
    8974:	e20c1001 	and	r1, ip, #1
    8978:	e7d01001 	ldrb	r1, [r0, r1]
    897c:	e5ce1000 	strb	r1, [lr]
    8980:	e1a0e003 	mov	lr, r3
			} while(u /= 2);
    8984:	e1b0c0ac 	lsrs	ip, ip, #1
    8988:	1afffff8 	bne	8970 <emit+0x11c>
    898c:	ea000005 	b	89a8 <emit+0x154>
#endif
			break;
		default:
			assert(0);
    8990:	e59f0048 	ldr	r0, [pc, #72]	; 89e0 <emit+0x18c>
    8994:	e59f1048 	ldr	r1, [pc, #72]	; 89e4 <emit+0x190>
    8998:	e59f2048 	ldr	r2, [pc, #72]	; 89e8 <emit+0x194>
    899c:	e3a03075 	mov	r3, #117	; 0x75
    89a0:	ebffff60 	bl	8728 <printk>
    89a4:	eb0000ce 	bl	8ce4 <clean_reboot>
	}
	// number string is reversed, so re-reverse it.
	return reverse(dst, n, pad(p, buf, width), buf);
    89a8:	e1a00003 	mov	r0, r3
    89ac:	e1a0100d 	mov	r1, sp
    89b0:	ebffff8c 	bl	87e8 <pad>
    89b4:	e1a02000 	mov	r2, r0
    89b8:	e1a00005 	mov	r0, r5
    89bc:	e1a01004 	mov	r1, r4
    89c0:	e1a0300d 	mov	r3, sp
    89c4:	ebffff92 	bl	8814 <reverse>
}
    89c8:	e28dd040 	add	sp, sp, #64	; 0x40
    89cc:	e8bd81f0 	pop	{r4, r5, r6, r7, r8, pc}
    89d0:	cccccccd 	stclgt	12, cr12, [ip], {205}	; 0xcd
    89d4:	0000967c 	andeq	r9, r0, ip, ror r6
    89d8:	00009688 	andeq	r9, r0, r8, lsl #13
    89dc:	0000969c 	muleq	r0, ip, r6
    89e0:	00009654 	andeq	r9, r0, r4, asr r6
    89e4:	00009668 	andeq	r9, r0, r8, ror #12
    89e8:	00009630 	andeq	r9, r0, r0, lsr r6

000089ec <rpi_set_output>:
// override this is going through the network.
int (*rpi_putchar)(int c) = internal_putchar;
#endif


void rpi_set_output(int (*putc_fp)(int), int (*puts_fp)(const char *)) {
    89ec:	e92d4008 	push	{r3, lr}
    assert(putc_fp);
    89f0:	e3500000 	cmp	r0, #0
    89f4:	1a000005 	bne	8a10 <rpi_set_output+0x24>
    89f8:	e59f0028 	ldr	r0, [pc, #40]	; 8a28 <rpi_set_output+0x3c>
    89fc:	e59f1028 	ldr	r1, [pc, #40]	; 8a2c <rpi_set_output+0x40>
    8a00:	e59f2028 	ldr	r2, [pc, #40]	; 8a30 <rpi_set_output+0x44>
    8a04:	e3a03020 	mov	r3, #32
    8a08:	ebffff46 	bl	8728 <printk>
    8a0c:	eb0000b4 	bl	8ce4 <clean_reboot>
    rpi_putchar = putc_fp;
    8a10:	e59f301c 	ldr	r3, [pc, #28]	; 8a34 <rpi_set_output+0x48>
    8a14:	e5830000 	str	r0, [r3]
    if(puts_fp)
    8a18:	e3510000 	cmp	r1, #0
        putk = puts_fp;
    8a1c:	159f3014 	ldrne	r3, [pc, #20]	; 8a38 <rpi_set_output+0x4c>
    8a20:	15831000 	strne	r1, [r3]
    8a24:	e8bd8008 	pop	{r3, pc}
    8a28:	000096a0 	andeq	r9, r0, r0, lsr #13
    8a2c:	00009668 	andeq	r9, r0, r8, ror #12
    8a30:	00009638 	andeq	r9, r0, r8, lsr r6
    8a34:	00009428 	andeq	r9, r0, r8, lsr #8
    8a38:	000093b4 			; <UNDEFINED> instruction: 0x000093b4

00008a3c <va_printk>:
	return reverse(dst, n, pad(p, buf, width), buf);
}

#include "va-printk.h"

int va_printk(char *buf, int n, const char *fmt, va_list args) {
    8a3c:	e92d4ff0 	push	{r4, r5, r6, r7, r8, r9, sl, fp, lr}
    8a40:	e24dd08c 	sub	sp, sp, #140	; 0x8c
    8a44:	e1a0b000 	mov	fp, r0
    8a48:	e1a0a003 	mov	sl, r3
	char *p = buf, *e = buf + n - 1;
    8a4c:	e2411001 	sub	r1, r1, #1
    8a50:	e0808001 	add	r8, r0, r1

	buf[0] = 0;
    8a54:	e3a03000 	mov	r3, #0
    8a58:	e5c03000 	strb	r3, [r0]
}

#include "va-printk.h"

int va_printk(char *buf, int n, const char *fmt, va_list args) {
	char *p = buf, *e = buf + n - 1;
    8a5c:	e1a04000 	mov	r4, r0

	buf[0] = 0;
	for(; *fmt && p < e; ) {
    8a60:	ea000087 	b	8c84 <va_printk+0x248>
		if(*fmt != '%')
    8a64:	e3530025 	cmp	r3, #37	; 0x25
			*p++ = *fmt++;
    8a68:	12822001 	addne	r2, r2, #1
    8a6c:	15c43000 	strbne	r3, [r4]
    8a70:	12844001 	addne	r4, r4, #1
    8a74:	1a000082 	bne	8c84 <va_printk+0x248>
		
		else if(fmt[1] == '%') {
    8a78:	e5d21001 	ldrb	r1, [r2, #1]
    8a7c:	e3510025 	cmp	r1, #37	; 0x25
			*p++ = *fmt;
    8a80:	05c43000 	strbeq	r3, [r4]
			fmt+=2;
    8a84:	02822002 	addeq	r2, r2, #2
	for(; *fmt && p < e; ) {
		if(*fmt != '%')
			*p++ = *fmt++;
		
		else if(fmt[1] == '%') {
			*p++ = *fmt;
    8a88:	02844001 	addeq	r4, r4, #1
    8a8c:	0a00007c 	beq	8c84 <va_printk+0x248>
			fmt+=2;
		} else {	
			fmt++;
    8a90:	e2826001 	add	r6, r2, #1

			char *s, num[128];
			unsigned width = 0;
    8a94:	e3a07000 	mov	r7, #0

			while(isdigit(*fmt)) {
    8a98:	ea000004 	b	8ab0 <va_printk+0x74>
				width = width*10 + *fmt - '0';
    8a9c:	e0877107 	add	r7, r7, r7, lsl #2
    8aa0:	e1a07087 	lsl	r7, r7, #1
    8aa4:	e0877005 	add	r7, r7, r5
    8aa8:	e2477030 	sub	r7, r7, #48	; 0x30
				fmt++;
    8aac:	e2866001 	add	r6, r6, #1
			fmt++;

			char *s, num[128];
			unsigned width = 0;

			while(isdigit(*fmt)) {
    8ab0:	e5d65000 	ldrb	r5, [r6]
    8ab4:	e1a09005 	mov	r9, r5
    8ab8:	e1a00005 	mov	r0, r5
    8abc:	ebffff44 	bl	87d4 <isdigit>
    8ac0:	e3500000 	cmp	r0, #0
    8ac4:	1afffff4 	bne	8a9c <va_printk+0x60>
				width = width*10 + *fmt - '0';
				fmt++;
			}
			assert(width < 32);
    8ac8:	e357001f 	cmp	r7, #31
    8acc:	9a000005 	bls	8ae8 <va_printk+0xac>
    8ad0:	e59f01d8 	ldr	r0, [pc, #472]	; 8cb0 <va_printk+0x274>
    8ad4:	e59f11d8 	ldr	r1, [pc, #472]	; 8cb4 <va_printk+0x278>
    8ad8:	e59f21d8 	ldr	r2, [pc, #472]	; 8cb8 <va_printk+0x27c>
    8adc:	e3a03092 	mov	r3, #146	; 0x92
    8ae0:	ebffff10 	bl	8728 <printk>
    8ae4:	eb00007e 	bl	8ce4 <clean_reboot>
			
			switch(*fmt) {
    8ae8:	e2455062 	sub	r5, r5, #98	; 0x62
    8aec:	e3550016 	cmp	r5, #22
    8af0:	979ff105 	ldrls	pc, [pc, r5, lsl #2]
    8af4:	ea000051 	b	8c40 <va_printk+0x204>
    8af8:	00008be4 	andeq	r8, r0, r4, ror #23
    8afc:	00008c18 	andeq	r8, r0, r8, lsl ip
    8b00:	00008b6c 	andeq	r8, r0, ip, ror #22
    8b04:	00008c40 	andeq	r8, r0, r0, asr #24
    8b08:	00008b54 	andeq	r8, r0, r4, asr fp
    8b0c:	00008c40 	andeq	r8, r0, r0, asr #24
    8b10:	00008c40 	andeq	r8, r0, r0, asr #24
    8b14:	00008c40 	andeq	r8, r0, r0, asr #24
    8b18:	00008c40 	andeq	r8, r0, r0, asr #24
    8b1c:	00008c40 	andeq	r8, r0, r0, asr #24
    8b20:	00008c40 	andeq	r8, r0, r0, asr #24
    8b24:	00008c40 	andeq	r8, r0, r0, asr #24
    8b28:	00008c40 	andeq	r8, r0, r0, asr #24
    8b2c:	00008c40 	andeq	r8, r0, r0, asr #24
    8b30:	00008bbc 			; <UNDEFINED> instruction: 0x00008bbc
    8b34:	00008c40 	andeq	r8, r0, r0, asr #24
    8b38:	00008c40 	andeq	r8, r0, r0, asr #24
    8b3c:	00008c0c 	andeq	r8, r0, ip, lsl #24
    8b40:	00008c40 	andeq	r8, r0, r0, asr #24
    8b44:	00008b94 	muleq	r0, r4, fp
    8b48:	00008c40 	andeq	r8, r0, r0, asr #24
    8b4c:	00008c40 	andeq	r8, r0, r0, asr #24
    8b50:	00008bbc 			; <UNDEFINED> instruction: 0x00008bbc
			case 'f':
			{
#ifndef RPI_FP_ENABLED
				panic("float not enabled!!!");
    8b54:	e59f0160 	ldr	r0, [pc, #352]	; 8cbc <va_printk+0x280>
    8b58:	e59f1154 	ldr	r1, [pc, #340]	; 8cb4 <va_printk+0x278>
    8b5c:	e59f2154 	ldr	r2, [pc, #340]	; 8cb8 <va_printk+0x27c>
    8b60:	e3a03098 	mov	r3, #152	; 0x98
    8b64:	ebfffeef 	bl	8728 <printk>
    8b68:	eb00005d 	bl	8ce4 <clean_reboot>

				break;
#endif
			}
			case 'd':
				s = emit(10, num, 128, va_arg(args, int), width, 1);
    8b6c:	e59a3000 	ldr	r3, [sl]
    8b70:	e28aa004 	add	sl, sl, #4
    8b74:	e58d7000 	str	r7, [sp]
    8b78:	e3a02001 	mov	r2, #1
    8b7c:	e58d2004 	str	r2, [sp, #4]
    8b80:	e3a0000a 	mov	r0, #10
    8b84:	e28d1008 	add	r1, sp, #8
    8b88:	e3a02080 	mov	r2, #128	; 0x80
    8b8c:	ebffff30 	bl	8854 <emit>
				break;
    8b90:	ea000031 	b	8c5c <va_printk+0x220>
			case 'u':
				s = emit(10, num, 128, va_arg(args, unsigned), width, 0);
    8b94:	e59a3000 	ldr	r3, [sl]
    8b98:	e28aa004 	add	sl, sl, #4
    8b9c:	e58d7000 	str	r7, [sp]
    8ba0:	e3a02000 	mov	r2, #0
    8ba4:	e58d2004 	str	r2, [sp, #4]
    8ba8:	e3a0000a 	mov	r0, #10
    8bac:	e28d1008 	add	r1, sp, #8
    8bb0:	e3a02080 	mov	r2, #128	; 0x80
    8bb4:	ebffff26 	bl	8854 <emit>
				break;
    8bb8:	ea000027 	b	8c5c <va_printk+0x220>
			case 'p':
			case 'x':
				s = emit(16, num, 128, va_arg(args, unsigned), width, 0);
    8bbc:	e59a3000 	ldr	r3, [sl]
    8bc0:	e28aa004 	add	sl, sl, #4
    8bc4:	e58d7000 	str	r7, [sp]
    8bc8:	e3a02000 	mov	r2, #0
    8bcc:	e58d2004 	str	r2, [sp, #4]
    8bd0:	e3a00010 	mov	r0, #16
    8bd4:	e28d1008 	add	r1, sp, #8
    8bd8:	e3a02080 	mov	r2, #128	; 0x80
    8bdc:	ebffff1c 	bl	8854 <emit>
				break;
    8be0:	ea00001d 	b	8c5c <va_printk+0x220>
			case 'b':
				s = emit(2, num, 128, va_arg(args, unsigned), width, 0);
    8be4:	e59a3000 	ldr	r3, [sl]
    8be8:	e28aa004 	add	sl, sl, #4
    8bec:	e58d7000 	str	r7, [sp]
    8bf0:	e3a02000 	mov	r2, #0
    8bf4:	e58d2004 	str	r2, [sp, #4]
    8bf8:	e3a00002 	mov	r0, #2
    8bfc:	e28d1008 	add	r1, sp, #8
    8c00:	e3a02080 	mov	r2, #128	; 0x80
    8c04:	ebffff12 	bl	8854 <emit>
				break;
    8c08:	ea000013 	b	8c5c <va_printk+0x220>
			case 's':
				s = va_arg(args, char *);
    8c0c:	e59a0000 	ldr	r0, [sl]
    8c10:	e28aa004 	add	sl, sl, #4
				break;
    8c14:	ea000010 	b	8c5c <va_printk+0x220>
			case 'c':
				s = emit(8, num, 128, va_arg(args, int),width,0);
    8c18:	e59a3000 	ldr	r3, [sl]
    8c1c:	e28aa004 	add	sl, sl, #4
    8c20:	e58d7000 	str	r7, [sp]
    8c24:	e3a02000 	mov	r2, #0
    8c28:	e58d2004 	str	r2, [sp, #4]
    8c2c:	e3a00008 	mov	r0, #8
    8c30:	e08d1000 	add	r1, sp, r0
    8c34:	e3a02080 	mov	r2, #128	; 0x80
    8c38:	ebffff05 	bl	8854 <emit>
				break;
    8c3c:	ea000006 	b	8c5c <va_printk+0x220>
			default: 
				panic("printk: not handling specifier '%c'\n", *fmt);
    8c40:	e58d9000 	str	r9, [sp]
    8c44:	e59f0074 	ldr	r0, [pc, #116]	; 8cc0 <va_printk+0x284>
    8c48:	e59f1064 	ldr	r1, [pc, #100]	; 8cb4 <va_printk+0x278>
    8c4c:	e59f2064 	ldr	r2, [pc, #100]	; 8cb8 <va_printk+0x27c>
    8c50:	e3a030b9 	mov	r3, #185	; 0xb9
    8c54:	ebfffeb3 	bl	8728 <printk>
    8c58:	eb000021 	bl	8ce4 <clean_reboot>
				return 0;   // ugh
			}
			fmt++;
    8c5c:	e2862001 	add	r2, r6, #1

			// safe string copy
			for(; p < e && *s; )
    8c60:	ea000002 	b	8c70 <va_printk+0x234>
				*p++ = *s++;
    8c64:	e2800001 	add	r0, r0, #1
    8c68:	e5c43000 	strb	r3, [r4]
    8c6c:	e2844001 	add	r4, r4, #1
				return 0;   // ugh
			}
			fmt++;

			// safe string copy
			for(; p < e && *s; )
    8c70:	e1540008 	cmp	r4, r8
    8c74:	2a000002 	bcs	8c84 <va_printk+0x248>
    8c78:	e5d03000 	ldrb	r3, [r0]
    8c7c:	e3530000 	cmp	r3, #0
    8c80:	1afffff7 	bne	8c64 <va_printk+0x228>

int va_printk(char *buf, int n, const char *fmt, va_list args) {
	char *p = buf, *e = buf + n - 1;

	buf[0] = 0;
	for(; *fmt && p < e; ) {
    8c84:	e5d23000 	ldrb	r3, [r2]
    8c88:	e3530000 	cmp	r3, #0
    8c8c:	0a000001 	beq	8c98 <va_printk+0x25c>
    8c90:	e1540008 	cmp	r4, r8
    8c94:	3affff72 	bcc	8a64 <va_printk+0x28>
			// safe string copy
			for(; p < e && *s; )
				*p++ = *s++;
		}
	}
	*p++ = 0;
    8c98:	e2840001 	add	r0, r4, #1
    8c9c:	e3a03000 	mov	r3, #0
    8ca0:	e5c43000 	strb	r3, [r4]
	return p - buf;
}
    8ca4:	e06b0000 	rsb	r0, fp, r0
    8ca8:	e28dd08c 	add	sp, sp, #140	; 0x8c
    8cac:	e8bd8ff0 	pop	{r4, r5, r6, r7, r8, r9, sl, fp, pc}
    8cb0:	000096b8 			; <UNDEFINED> instruction: 0x000096b8
    8cb4:	00009668 	andeq	r9, r0, r8, ror #12
    8cb8:	00009648 	andeq	r9, r0, r8, asr #12
    8cbc:	000096d4 	ldrdeq	r9, [r0], -r4
    8cc0:	000096fc 	strdeq	r9, [r0], -ip

00008cc4 <enable_cache>:
#include "rpi.h"

void enable_cache(void) {
    unsigned r;
    asm volatile ("MRC p15, 0, %0, c1, c0, 0" : "=r" (r));
    8cc4:	ee113f10 	mrc	15, 0, r3, cr1, cr0, {0}
	r |= (1 << 12); // l1 instruction cache
	r |= (1 << 11); // branch prediction
    8cc8:	e3833b06 	orr	r3, r3, #6144	; 0x1800
    asm volatile ("MCR p15, 0, %0, c1, c0, 0" :: "r" (r));
    8ccc:	ee013f10 	mcr	15, 0, r3, cr1, cr0, {0}
    8cd0:	e12fff1e 	bx	lr

00008cd4 <disable_cache>:
}

// should we flush icache?
void disable_cache(void) {
    unsigned r;
    asm volatile ("MRC p15, 0, %0, c1, c0, 0" : "=r" (r));
    8cd4:	ee113f10 	mrc	15, 0, r3, cr1, cr0, {0}
    //r |= 0x1800;
	r &= ~(1 << 12); // l1 instruction cache
	r &= ~(1 << 11); // branch prediction
    8cd8:	e3c33b06 	bic	r3, r3, #6144	; 0x1800
    asm volatile ("MCR p15, 0, %0, c1, c0, 0" :: "r" (r));
    8cdc:	ee013f10 	mcr	15, 0, r3, cr1, cr0, {0}
    8ce0:	e12fff1e 	bx	lr

00008ce4 <clean_reboot>:
#include "rpi.h"

// print out a special message so bootloader exits
void clean_reboot(void) {
    8ce4:	e92d4008 	push	{r3, lr}
    putk("DONE!!!\n");
    8ce8:	e59f3014 	ldr	r3, [pc, #20]	; 8d04 <clean_reboot+0x20>
    8cec:	e5933000 	ldr	r3, [r3]
    8cf0:	e59f0010 	ldr	r0, [pc, #16]	; 8d08 <clean_reboot+0x24>
    8cf4:	e12fff33 	blx	r3
    delay_ms(100);       // (hopefully) enough time for message to get flushed.
    8cf8:	e3a00064 	mov	r0, #100	; 0x64
    8cfc:	eb000044 	bl	8e14 <delay_ms>
    rpi_reboot();
    8d00:	eb000019 	bl	8d6c <rpi_reboot>
    8d04:	000093b4 			; <UNDEFINED> instruction: 0x000093b4
    8d08:	00009734 	andeq	r9, r0, r4, lsr r7

00008d0c <_cstart>:
#include "rpi.h"

void _cstart() {
    8d0c:	e92d4008 	push	{r3, lr}
    extern int __bss_start__, __bss_end__;
	void notmain();

    int* bss = &__bss_start__;
    8d10:	e59f3020 	ldr	r3, [pc, #32]	; 8d38 <_cstart+0x2c>
    int* bss_end = &__bss_end__;
 
    while( bss < bss_end )
    8d14:	e59f2020 	ldr	r2, [pc, #32]	; 8d3c <_cstart+0x30>
        *bss++ = 0;
    8d18:	e3a01000 	mov	r1, #0
	void notmain();

    int* bss = &__bss_start__;
    int* bss_end = &__bss_end__;
 
    while( bss < bss_end )
    8d1c:	ea000001 	b	8d28 <_cstart+0x1c>
        *bss++ = 0;
    8d20:	e5831000 	str	r1, [r3]
    8d24:	e2833004 	add	r3, r3, #4
	void notmain();

    int* bss = &__bss_start__;
    int* bss_end = &__bss_end__;
 
    while( bss < bss_end )
    8d28:	e1530002 	cmp	r3, r2
    8d2c:	3afffffb 	bcc	8d20 <_cstart+0x14>
        *bss++ = 0;

    notmain(); 
    8d30:	ebfffcb6 	bl	8010 <notmain>
	rpi_reboot();
    8d34:	eb00000c 	bl	8d6c <rpi_reboot>
    8d38:	00009740 	andeq	r9, r0, r0, asr #14
    8d3c:	00009b40 	andeq	r9, r0, r0, asr #22

00008d40 <at_user_level>:
 * works if we have a trashed stack pointer?
 */
static unsigned user_level = 0b10000;
int at_user_level(void) {
    unsigned cpsr = 0;
    asm volatile("mrs %0,cpsr" : "=r"(cpsr));
    8d40:	e10f0000 	mrs	r0, CPSR

    // user level = lower 5 bits = 0b10000);
    return (cpsr  & 0b11111)  == user_level;
    8d44:	e200001f 	and	r0, r0, #31
}
    8d48:	e3500010 	cmp	r0, #16
    8d4c:	13a00000 	movne	r0, #0
    8d50:	03a00001 	moveq	r0, #1
    8d54:	e12fff1e 	bx	lr

00008d58 <set_user_level>:

// this is just used by the reboot code.
void set_user_level(void) {
    unsigned cpsr = 0;
    // XXX: shouldn't we just set the one bit?
    asm volatile("mrs %0,cpsr" : "=r"(cpsr));
    8d58:	e10f3000 	mrs	r3, CPSR
        cpsr = (cpsr & ~0b11111) | user_level;
    8d5c:	e3c3301f 	bic	r3, r3, #31
    8d60:	e3833010 	orr	r3, r3, #16
    asm volatile("msr cpsr, %0" :: "r"(cpsr));
    8d64:	e129f003 	msr	CPSR_fc, r3
    8d68:	e12fff1e 	bx	lr

00008d6c <rpi_reboot>:
}

void rpi_reboot(void) {
    8d6c:	e92d4008 	push	{r3, lr}
    if(at_user_level()) {
    8d70:	ebfffff2 	bl	8d40 <at_user_level>
    8d74:	e3500000 	cmp	r0, #0
    8d78:	0a000000 	beq	8d80 <rpi_reboot+0x14>
        set_user_level();
    8d7c:	ebfffff5 	bl	8d58 <set_user_level>
        // of stuff.
        // assert(!at_user_level());
    }

    // gives uart time to flush: should just call flush directly.
    delay_ms(30);
    8d80:	e3a0001e 	mov	r0, #30
    8d84:	eb000022 	bl	8e14 <delay_ms>
    const int PM_WDOG = 0x20100024;
    const int PM_PASSWORD = 0x5a000000;
    const int PM_RSTC_WRCFG_FULL_RESET = 0x00000020;

    // timeout = 1/16th of a second? (whatever)
    PUT32(PM_WDOG, PM_PASSWORD | 1);
    8d88:	e59f0014 	ldr	r0, [pc, #20]	; 8da4 <rpi_reboot+0x38>
    8d8c:	e59f1014 	ldr	r1, [pc, #20]	; 8da8 <rpi_reboot+0x3c>
    8d90:	eb00002b 	bl	8e44 <PUT32>
    PUT32(PM_RSTC, PM_PASSWORD | PM_RSTC_WRCFG_FULL_RESET);
    8d94:	e59f0010 	ldr	r0, [pc, #16]	; 8dac <rpi_reboot+0x40>
    8d98:	e59f1010 	ldr	r1, [pc, #16]	; 8db0 <rpi_reboot+0x44>
    8d9c:	eb000028 	bl	8e44 <PUT32>
    8da0:	eafffffe 	b	8da0 <rpi_reboot+0x34>
    8da4:	20100024 	andscs	r0, r0, r4, lsr #32
    8da8:	5a000001 	bpl	8db4 <delay_cycles>
    8dac:	2010001c 	andscs	r0, r0, ip, lsl r0
    8db0:	5a000020 	bpl	8e38 <delay_sec+0x10>

00008db4 <delay_cycles>:
#include "rpi.h"

// roughly 2-3x the number of cyles.  dunno if we care.  can read cycle count from
// cp15 iirc.
void delay_cycles(unsigned ticks) {
    while(ticks-- > 0)
    8db4:	ea000001 	b	8dc0 <delay_cycles+0xc>
        asm("add r1, r1, #0");
    8db8:	e2811000 	add	r1, r1, #0
#include "rpi.h"

// roughly 2-3x the number of cyles.  dunno if we care.  can read cycle count from
// cp15 iirc.
void delay_cycles(unsigned ticks) {
    while(ticks-- > 0)
    8dbc:	e1a00003 	mov	r0, r3
    8dc0:	e2403001 	sub	r3, r0, #1
    8dc4:	e3500000 	cmp	r0, #0
    8dc8:	1afffffa 	bne	8db8 <delay_cycles+0x4>
        asm("add r1, r1, #0");
}
    8dcc:	e12fff1e 	bx	lr

00008dd0 <timer_get_usec_raw>:

// no dev barrier.
unsigned timer_get_usec_raw(void) {
    8dd0:	e92d4008 	push	{r3, lr}
    return GET32(0x20003004);
    8dd4:	e59f0004 	ldr	r0, [pc, #4]	; 8de0 <timer_get_usec_raw+0x10>
    8dd8:	eb000025 	bl	8e74 <GET32>
}
    8ddc:	e8bd8008 	pop	{r3, pc}
    8de0:	20003004 	andcs	r3, r0, r4

00008de4 <timer_get_usec>:

// in usec
unsigned timer_get_usec(void) {
    8de4:	e92d4008 	push	{r3, lr}
// comment these out for this lab (8) so student
// code does not get hit by weird timing issues.
//    dev_barrier();
    unsigned u = timer_get_usec_raw();
    8de8:	ebfffff8 	bl	8dd0 <timer_get_usec_raw>
//    dev_barrier();
    return u;
}
    8dec:	e8bd8008 	pop	{r3, pc}

00008df0 <delay_us>:

void delay_us(unsigned us) {
    8df0:	e92d4038 	push	{r3, r4, r5, lr}
    8df4:	e1a05000 	mov	r5, r0
    unsigned rb = timer_get_usec();
    8df8:	ebfffff9 	bl	8de4 <timer_get_usec>
    8dfc:	e1a04000 	mov	r4, r0
    while (1) {
        unsigned ra = timer_get_usec();
    8e00:	ebfffff7 	bl	8de4 <timer_get_usec>
        if ((ra - rb) >= us) {
    8e04:	e0640000 	rsb	r0, r4, r0
    8e08:	e1500005 	cmp	r0, r5
    8e0c:	3afffffb 	bcc	8e00 <delay_us+0x10>
            break;
        }
    }
}
    8e10:	e8bd8038 	pop	{r3, r4, r5, pc}

00008e14 <delay_ms>:
void delay_ms(unsigned ms) {
    8e14:	e92d4008 	push	{r3, lr}
    delay_us(ms*1000);
    8e18:	e3a03ffa 	mov	r3, #1000	; 0x3e8
    8e1c:	e0000093 	mul	r0, r3, r0
    8e20:	ebfffff2 	bl	8df0 <delay_us>
    8e24:	e8bd8008 	pop	{r3, pc}

00008e28 <delay_sec>:
}
void delay_sec(unsigned sec) {
    8e28:	e92d4008 	push	{r3, lr}
    delay_ms(sec*1000);
    8e2c:	e3a03ffa 	mov	r3, #1000	; 0x3e8
    8e30:	e0000093 	mul	r0, r3, r0
    8e34:	ebfffff6 	bl	8e14 <delay_ms>
    8e38:	e8bd8008 	pop	{r3, pc}

00008e3c <put32>:
    8e3c:	e5801000 	str	r1, [r0]
    8e40:	e12fff1e 	bx	lr

00008e44 <PUT32>:
    8e44:	e5801000 	str	r1, [r0]
    8e48:	e12fff1e 	bx	lr

00008e4c <put16>:
    8e4c:	e1c010b0 	strh	r1, [r0]
    8e50:	e12fff1e 	bx	lr

00008e54 <PUT16>:
    8e54:	e1c010b0 	strh	r1, [r0]
    8e58:	e12fff1e 	bx	lr

00008e5c <put8>:
    8e5c:	e5c01000 	strb	r1, [r0]
    8e60:	e12fff1e 	bx	lr

00008e64 <PUT8>:
    8e64:	e5c01000 	strb	r1, [r0]
    8e68:	e12fff1e 	bx	lr

00008e6c <get32>:
    8e6c:	e5900000 	ldr	r0, [r0]
    8e70:	e12fff1e 	bx	lr

00008e74 <GET32>:
    8e74:	e5900000 	ldr	r0, [r0]
    8e78:	e12fff1e 	bx	lr

00008e7c <GETPC>:
    8e7c:	e1a0000e 	mov	r0, lr
    8e80:	e12fff1e 	bx	lr

00008e84 <dummy>:
    8e84:	e12fff1e 	bx	lr

00008e88 <uart_can_getc>:

	dev_barrier();
}

// 1 = at least one byte on rx queue, 0 otherwise
static int uart_can_getc(void) {
    8e88:	e92d4008 	push	{r3, lr}
    return get32(AUX_MU_LSR_REG) & RX_READY;
    8e8c:	e59f300c 	ldr	r3, [pc, #12]	; 8ea0 <uart_can_getc+0x18>
    8e90:	e5930000 	ldr	r0, [r3]
    8e94:	ebfffff4 	bl	8e6c <get32>
}
    8e98:	e2000001 	and	r0, r0, #1
    8e9c:	e8bd8008 	pop	{r3, pc}
    8ea0:	000093b8 			; <UNDEFINED> instruction: 0x000093b8

00008ea4 <uart_init>:
#define RX_READY 0x1
#define TX_READY 0x10
#define TX_EMPTY 0x20

// note: if you need memory barriers, use <dev_barrier()>
void uart_init(void) {
    8ea4:	e92d4038 	push	{r3, r4, r5, lr}
    
	dev_barrier();
    8ea8:	eb00013b 	bl	939c <dev_barrier>

	// set GPIO 14 and 15 to alternate function 0
    //volatile unsigned* gpio_reg = (void*) 0x20200004;
    //unsigned bitmask = get32(gpio_reg);
    gpio_set_function(14, GPIO_FUNC_ALT5);
    8eac:	e3a0000e 	mov	r0, #14
    8eb0:	e3a01002 	mov	r1, #2
    8eb4:	eb0000fd 	bl	92b0 <gpio_set_function>
	gpio_set_function(15, GPIO_FUNC_ALT5);
    8eb8:	e3a0000f 	mov	r0, #15
    8ebc:	e3a01002 	mov	r1, #2
    8ec0:	eb0000fa 	bl	92b0 <gpio_set_function>
    //bitmask &= ~(0b111 << ((UART0_RX % 10) * 3));
    //bitmask |= (0b010 << ((UART0_TX % 10) * 3));
    //bitmask |= (0b010 << ((UART0_RX % 10) * 3));
    //put32(gpio_reg, bitmask);

	dev_barrier();
    8ec4:	eb000134 	bl	939c <dev_barrier>

    put32(AUX_ENABLES, get32(AUX_ENABLES) | (ENABLE_UART));
    8ec8:	e59f4068 	ldr	r4, [pc, #104]	; 8f38 <uart_init+0x94>
    8ecc:	e5945004 	ldr	r5, [r4, #4]
    8ed0:	e1a00005 	mov	r0, r5
    8ed4:	ebffffe4 	bl	8e6c <get32>
    8ed8:	e3801001 	orr	r1, r0, #1
    8edc:	e1a00005 	mov	r0, r5
    8ee0:	ebffffd5 	bl	8e3c <put32>
	
	dev_barrier();
    8ee4:	eb00012c 	bl	939c <dev_barrier>
	
    put32(AUX_MU_CNTL_REG, 0x0);
    8ee8:	e5940008 	ldr	r0, [r4, #8]
    8eec:	e3a01000 	mov	r1, #0
    8ef0:	ebffffd1 	bl	8e3c <put32>
    put32(AUX_MU_IER_REG, 0x0);
    8ef4:	e594000c 	ldr	r0, [r4, #12]
    8ef8:	e3a01000 	mov	r1, #0
    8efc:	ebffffce 	bl	8e3c <put32>
    put32(AUX_MU_IIR_REG, CLEAR_RX_FIFO | CLEAR_TX_FIFO);
    8f00:	e5940010 	ldr	r0, [r4, #16]
    8f04:	e3a01006 	mov	r1, #6
    8f08:	ebffffcb 	bl	8e3c <put32>
	put32(AUX_MU_LCR_REG, ENABLE_8BIT_MODE);
    8f0c:	e5940014 	ldr	r0, [r4, #20]
    8f10:	e3a01003 	mov	r1, #3
    8f14:	ebffffc8 	bl	8e3c <put32>
    put32(AUX_MU_BAUD_REG, BAUD_115200);
    8f18:	e5940018 	ldr	r0, [r4, #24]
    8f1c:	e59f1018 	ldr	r1, [pc, #24]	; 8f3c <uart_init+0x98>
    8f20:	ebffffc5 	bl	8e3c <put32>
    put32(AUX_MU_CNTL_REG, ENABLE_TXER | ENABLE_RXER);
    8f24:	e5940008 	ldr	r0, [r4, #8]
    8f28:	e3a01003 	mov	r1, #3
    8f2c:	ebffffc2 	bl	8e3c <put32>

	dev_barrier();
    8f30:	eb000119 	bl	939c <dev_barrier>
    8f34:	e8bd8038 	pop	{r3, r4, r5, pc}
    8f38:	000093b8 			; <UNDEFINED> instruction: 0x000093b8
    8f3c:	0000010e 	andeq	r0, r0, lr, lsl #2

00008f40 <uart_getc>:
    return get32(AUX_MU_LSR_REG) & RX_READY;
}

// returns one byte from the rx queue, if needed
// blocks until there is one.
int uart_getc(void) {
    8f40:	e92d4008 	push	{r3, lr}
    while(1)
        if(uart_can_getc())  break;
    8f44:	ebffffcf 	bl	8e88 <uart_can_getc>
    8f48:	e3500000 	cmp	r0, #0
    8f4c:	0afffffc 	beq	8f44 <uart_getc+0x4>
    return get32(AUX_MU_IO_REG) & 0xFF;
    8f50:	e59f300c 	ldr	r3, [pc, #12]	; 8f64 <uart_getc+0x24>
    8f54:	e593001c 	ldr	r0, [r3, #28]
    8f58:	ebffffc3 	bl	8e6c <get32>
}
    8f5c:	e6ef0070 	uxtb	r0, r0
    8f60:	e8bd8008 	pop	{r3, pc}
    8f64:	000093b8 			; <UNDEFINED> instruction: 0x000093b8

00008f68 <uart_can_putc>:

// 1 = space to put at least one byte, 0 otherwise.
int uart_can_putc(void) {
    8f68:	e92d4008 	push	{r3, lr}
    return get32(AUX_MU_LSR_REG) & TX_EMPTY;
    8f6c:	e59f300c 	ldr	r3, [pc, #12]	; 8f80 <uart_can_putc+0x18>
    8f70:	e5930000 	ldr	r0, [r3]
    8f74:	ebffffbc 	bl	8e6c <get32>
}
    8f78:	e2000020 	and	r0, r0, #32
    8f7c:	e8bd8008 	pop	{r3, pc}
    8f80:	000093b8 			; <UNDEFINED> instruction: 0x000093b8

00008f84 <uart_putc>:

// put one byte on the tx qqueue, if needed, blocks
// until TX has space.
void uart_putc(unsigned c) {
    8f84:	e92d4010 	push	{r4, lr}
    8f88:	e1a04000 	mov	r4, r0
    while(1)
            if(uart_can_putc())  break;
    8f8c:	ebfffff5 	bl	8f68 <uart_can_putc>
    8f90:	e3500000 	cmp	r0, #0
    8f94:	0afffffc 	beq	8f8c <uart_putc+0x8>
    put32(AUX_MU_IO_REG, c);
    8f98:	e59f300c 	ldr	r3, [pc, #12]	; 8fac <uart_putc+0x28>
    8f9c:	e593001c 	ldr	r0, [r3, #28]
    8fa0:	e1a01004 	mov	r1, r4
    8fa4:	ebffffa4 	bl	8e3c <put32>
    8fa8:	e8bd8010 	pop	{r4, pc}
    8fac:	000093b8 			; <UNDEFINED> instruction: 0x000093b8

00008fb0 <uart_has_data>:


// simple wrapper routines useful later.

// a maybe-more intuitive name for clients.
int uart_has_data(void) {
    8fb0:	e92d4008 	push	{r3, lr}
    return uart_can_getc();
    8fb4:	ebffffb3 	bl	8e88 <uart_can_getc>
}
    8fb8:	e8bd8008 	pop	{r3, pc}

00008fbc <uart_getc_async>:

int uart_getc_async(void) { 
    8fbc:	e92d4008 	push	{r3, lr}
    if(!uart_has_data())
    8fc0:	ebfffffa 	bl	8fb0 <uart_has_data>
    8fc4:	e3500000 	cmp	r0, #0
    8fc8:	0a000001 	beq	8fd4 <uart_getc_async+0x18>
        return -1;
    return uart_getc();
    8fcc:	ebffffdb 	bl	8f40 <uart_getc>
    8fd0:	e8bd8008 	pop	{r3, pc}
    return uart_can_getc();
}

int uart_getc_async(void) { 
    if(!uart_has_data())
        return -1;
    8fd4:	e3e00000 	mvn	r0, #0
    return uart_getc();
}
    8fd8:	e8bd8008 	pop	{r3, pc}

00008fdc <gpio_set_output>:
volatile unsigned *GPLEV1 = (void*) 0x20200038;
// Part 1 implement gpio_set_on, gpio_set_off, gpio_set_output

// set <pin> to be an output pin.  note: fsel0, fsel1, fsel2 are contiguous in memory,
// so you can use array calculations!
void gpio_set_output(unsigned pin) {
    8fdc:	e92d4038 	push	{r3, r4, r5, lr}
    8fe0:	e1a04000 	mov	r4, r0
    // implement this
    // use gpio_fsel0
    
    if (pin >= 32) {
    8fe4:	e350001f 	cmp	r0, #31
    8fe8:	88bd8038 	pophi	{r3, r4, r5, pc}
        return;
    }
    
    volatile unsigned* gpio_reg;
    
    unsigned reg_select = pin / 10;
    8fec:	e59f30b4 	ldr	r3, [pc, #180]	; 90a8 <gpio_set_output+0xcc>
    8ff0:	e0832093 	umull	r2, r3, r3, r0
    8ff4:	e1a031a3 	lsr	r3, r3, #3
    
    // Calculate register bank for selected GPIO pin
    switch (reg_select) {
    8ff8:	e3530005 	cmp	r3, #5
    8ffc:	979ff103 	ldrls	pc, [pc, r3, lsl #2]
    9000:	ea000017 	b	9064 <gpio_set_output+0x88>
    9004:	0000901c 	andeq	r9, r0, ip, lsl r0
    9008:	00009028 	andeq	r9, r0, r8, lsr #32
    900c:	00009034 	andeq	r9, r0, r4, lsr r0
    9010:	00009040 	andeq	r9, r0, r0, asr #32
    9014:	0000904c 	andeq	r9, r0, ip, asr #32
    9018:	00009058 	andeq	r9, r0, r8, asr r0
        case 0: {gpio_reg = GPFSEL0; break;}
    901c:	e59f3088 	ldr	r3, [pc, #136]	; 90ac <gpio_set_output+0xd0>
    9020:	e5935000 	ldr	r5, [r3]
    9024:	ea00000f 	b	9068 <gpio_set_output+0x8c>
        case 1: {gpio_reg = GPFSEL1; break;}
    9028:	e59f307c 	ldr	r3, [pc, #124]	; 90ac <gpio_set_output+0xd0>
    902c:	e5935004 	ldr	r5, [r3, #4]
    9030:	ea00000c 	b	9068 <gpio_set_output+0x8c>
        case 2: {gpio_reg = GPFSEL2; break;}
    9034:	e59f3070 	ldr	r3, [pc, #112]	; 90ac <gpio_set_output+0xd0>
    9038:	e5935008 	ldr	r5, [r3, #8]
    903c:	ea000009 	b	9068 <gpio_set_output+0x8c>
        case 3: {gpio_reg = GPFSEL3; break;}
    9040:	e59f3064 	ldr	r3, [pc, #100]	; 90ac <gpio_set_output+0xd0>
    9044:	e593500c 	ldr	r5, [r3, #12]
    9048:	ea000006 	b	9068 <gpio_set_output+0x8c>
        case 4: {gpio_reg = GPFSEL4; break;}
    904c:	e59f3058 	ldr	r3, [pc, #88]	; 90ac <gpio_set_output+0xd0>
    9050:	e5935010 	ldr	r5, [r3, #16]
    9054:	ea000003 	b	9068 <gpio_set_output+0x8c>
        case 5: {gpio_reg = GPFSEL5; break;}
    9058:	e59f304c 	ldr	r3, [pc, #76]	; 90ac <gpio_set_output+0xd0>
    905c:	e5935014 	ldr	r5, [r3, #20]
    9060:	ea000000 	b	9068 <gpio_set_output+0x8c>
        default: gpio_reg = 0x0;
    9064:	e3a05000 	mov	r5, #0
    }
    
    // Calculate bitmask for selected GPIO pin
    unsigned bitmask = get32(gpio_reg);
    9068:	e1a00005 	mov	r0, r5
    906c:	ebffff7e 	bl	8e6c <get32>
    bitmask &= ~(0b111 << ((pin % 10) * 3));
    9070:	e59f1030 	ldr	r1, [pc, #48]	; 90a8 <gpio_set_output+0xcc>
    9074:	e0813491 	umull	r3, r1, r1, r4
    9078:	e1a011a1 	lsr	r1, r1, #3
    907c:	e0811101 	add	r1, r1, r1, lsl #2
    9080:	e1a01081 	lsl	r1, r1, #1
    9084:	e0611004 	rsb	r1, r1, r4
    9088:	e0811081 	add	r1, r1, r1, lsl #1
    908c:	e3a03007 	mov	r3, #7
    9090:	e1c03113 	bic	r3, r0, r3, lsl r1
    bitmask |= (1 << ((pin % 10) * 3));
    put32(gpio_reg, bitmask);
    9094:	e1a00005 	mov	r0, r5
    9098:	e3a02001 	mov	r2, #1
    909c:	e1831112 	orr	r1, r3, r2, lsl r1
    90a0:	ebffff65 	bl	8e3c <put32>
    90a4:	e8bd8038 	pop	{r3, r4, r5, pc}
    90a8:	cccccccd 	stclgt	12, cr12, [ip], {205}	; 0xcd
    90ac:	000093ec 	andeq	r9, r0, ip, ror #7

000090b0 <gpio_set_on>:
    
}


// set GPIO <pin> on.
inline void gpio_set_on(unsigned pin) {
    90b0:	e92d4008 	push	{r3, lr}
    // implement this
    // use gpio_set0
    if (pin >= 32) {
    90b4:	e350001f 	cmp	r0, #31
    90b8:	88bd8008 	pophi	{r3, pc}
    // Get current register value
    volatile unsigned* gpio_reg = 0x0;
    unsigned bitmask = 0x0;
    
    if (pin <= 31){
        gpio_reg = GPSET0;
    90bc:	959f3020 	ldrls	r3, [pc, #32]	; 90e4 <gpio_set_on+0x34>
    90c0:	95932018 	ldrls	r2, [r3, #24]
        // TODO: why do we not want this statement?
        //bitmask = get32(GPSET0);
    } else {
        gpio_reg = GPSET1;
    90c4:	859f3018 	ldrhi	r3, [pc, #24]	; 90e4 <gpio_set_on+0x34>
    90c8:	8593201c 	ldrhi	r2, [r3, #28]
        //bitmask = get32(GPSET1);
        // TODO: why do we not want this statement?
    }
    
    // Calculate bitmask to preserve values
    bitmask |= 1 << (pin % 32);
    90cc:	e200301f 	and	r3, r0, #31
    
    put32(gpio_reg, bitmask);
    90d0:	e1a00002 	mov	r0, r2
    90d4:	e3a01001 	mov	r1, #1
    90d8:	e1a01311 	lsl	r1, r1, r3
    90dc:	ebffff56 	bl	8e3c <put32>
    90e0:	e8bd8008 	pop	{r3, pc}
    90e4:	000093ec 	andeq	r9, r0, ip, ror #7

000090e8 <gpio_set_off>:
}

// set GPIO <pin> off
inline void gpio_set_off(unsigned pin) {
    90e8:	e92d4008 	push	{r3, lr}
    // implement this
    // use gpio_clr0
    if(pin >= 32) {
    90ec:	e350001f 	cmp	r0, #31
    90f0:	88bd8008 	pophi	{r3, pc}
    }
    volatile unsigned* gpio_reg = 0x0;
    unsigned bitmask = 0x0;
    
    if (pin <= 31){
        gpio_reg = GPCLR0;
    90f4:	959f3020 	ldrls	r3, [pc, #32]	; 911c <gpio_set_off+0x34>
    90f8:	95932020 	ldrls	r2, [r3, #32]
        //bitmask = get32(GPCLR0);
    } else {
        gpio_reg = GPCLR1;
    90fc:	859f3018 	ldrhi	r3, [pc, #24]	; 911c <gpio_set_off+0x34>
    9100:	85932024 	ldrhi	r2, [r3, #36]	; 0x24
        //bitmask = get32(GPCLR1);
    }
    
    // Calculate bitmask to preserve values
    bitmask |= 1 << (pin % 32);
    9104:	e200301f 	and	r3, r0, #31
    
    put32(gpio_reg, bitmask);
    9108:	e1a00002 	mov	r0, r2
    910c:	e3a01001 	mov	r1, #1
    9110:	e1a01311 	lsl	r1, r1, r3
    9114:	ebffff48 	bl	8e3c <put32>
    9118:	e8bd8008 	pop	{r3, pc}
    911c:	000093ec 	andeq	r9, r0, ip, ror #7

00009120 <gpio_set_input>:
}

// Part 2: implement gpio_set_input and gpio_read

// set <pin> to input.
void gpio_set_input(unsigned pin) {
    9120:	e92d4038 	push	{r3, r4, r5, lr}
    9124:	e1a04000 	mov	r4, r0
    // implement.
    if(pin >= 32) {
    9128:	e350001f 	cmp	r0, #31
    912c:	88bd8038 	pophi	{r3, r4, r5, pc}
        return;
    }
    
    volatile unsigned* gpio_reg;
    
    unsigned reg_select = pin / 10;
    9130:	e59f30ac 	ldr	r3, [pc, #172]	; 91e4 <gpio_set_input+0xc4>
    9134:	e0832093 	umull	r2, r3, r3, r0
    9138:	e1a031a3 	lsr	r3, r3, #3
    
    // Calculate register bank for selected GPIO pin
    switch (reg_select) {
    913c:	e3530005 	cmp	r3, #5
    9140:	979ff103 	ldrls	pc, [pc, r3, lsl #2]
    9144:	ea000017 	b	91a8 <gpio_set_input+0x88>
    9148:	00009160 	andeq	r9, r0, r0, ror #2
    914c:	0000916c 	andeq	r9, r0, ip, ror #2
    9150:	00009178 	andeq	r9, r0, r8, ror r1
    9154:	00009184 	andeq	r9, r0, r4, lsl #3
    9158:	00009190 	muleq	r0, r0, r1
    915c:	0000919c 	muleq	r0, ip, r1
        case 0: {gpio_reg = GPFSEL0; break;}
    9160:	e59f3080 	ldr	r3, [pc, #128]	; 91e8 <gpio_set_input+0xc8>
    9164:	e5935000 	ldr	r5, [r3]
    9168:	ea00000f 	b	91ac <gpio_set_input+0x8c>
        case 1: {gpio_reg = GPFSEL1; break;}
    916c:	e59f3074 	ldr	r3, [pc, #116]	; 91e8 <gpio_set_input+0xc8>
    9170:	e5935004 	ldr	r5, [r3, #4]
    9174:	ea00000c 	b	91ac <gpio_set_input+0x8c>
        case 2: {gpio_reg = GPFSEL2; break;}
    9178:	e59f3068 	ldr	r3, [pc, #104]	; 91e8 <gpio_set_input+0xc8>
    917c:	e5935008 	ldr	r5, [r3, #8]
    9180:	ea000009 	b	91ac <gpio_set_input+0x8c>
        case 3: {gpio_reg = GPFSEL3; break;}
    9184:	e59f305c 	ldr	r3, [pc, #92]	; 91e8 <gpio_set_input+0xc8>
    9188:	e593500c 	ldr	r5, [r3, #12]
    918c:	ea000006 	b	91ac <gpio_set_input+0x8c>
        case 4: {gpio_reg = GPFSEL4; break;}
    9190:	e59f3050 	ldr	r3, [pc, #80]	; 91e8 <gpio_set_input+0xc8>
    9194:	e5935010 	ldr	r5, [r3, #16]
    9198:	ea000003 	b	91ac <gpio_set_input+0x8c>
        case 5: {gpio_reg = GPFSEL5; break;}
    919c:	e59f3044 	ldr	r3, [pc, #68]	; 91e8 <gpio_set_input+0xc8>
    91a0:	e5935014 	ldr	r5, [r3, #20]
    91a4:	ea000000 	b	91ac <gpio_set_input+0x8c>
        default: gpio_reg = 0x0;
    91a8:	e3a05000 	mov	r5, #0
    }
    
    // Calculate bitmask for selected GPIO pin
    unsigned bitmask = get32(gpio_reg);
    91ac:	e1a00005 	mov	r0, r5
    91b0:	ebffff2d 	bl	8e6c <get32>
    bitmask &= ~(0b111 << ((pin % 10) * 3));
    91b4:	e59f1028 	ldr	r1, [pc, #40]	; 91e4 <gpio_set_input+0xc4>
    91b8:	e0813491 	umull	r3, r1, r1, r4
    91bc:	e1a011a1 	lsr	r1, r1, #3
    91c0:	e0811101 	add	r1, r1, r1, lsl #2
    91c4:	e1a01081 	lsl	r1, r1, #1
    91c8:	e0611004 	rsb	r1, r1, r4
    91cc:	e0811081 	add	r1, r1, r1, lsl #1
    91d0:	e3a03007 	mov	r3, #7
    91d4:	e1c01113 	bic	r1, r0, r3, lsl r1
    put32(gpio_reg, bitmask);
    91d8:	e1a00005 	mov	r0, r5
    91dc:	ebffff16 	bl	8e3c <put32>
    91e0:	e8bd8038 	pop	{r3, r4, r5, pc}
    91e4:	cccccccd 	stclgt	12, cr12, [ip], {205}	; 0xcd
    91e8:	000093ec 	andeq	r9, r0, ip, ror #7

000091ec <gpio_read>:
    
    
}

// return the value of <pin>
inline int gpio_read(unsigned pin) {
    91ec:	e92d4010 	push	{r4, lr}
    91f0:	e1a04000 	mov	r4, r0
    
    if(pin >= 32) {
    91f4:	e350001f 	cmp	r0, #31
    91f8:	8a00000b 	bhi	922c <gpio_read+0x40>
        return -1;
    }
    
    unsigned v = 0;
    
    if (pin <= 31){
    91fc:	8a000003 	bhi	9210 <gpio_read+0x24>
        v = get32(GPLEV0);
    9200:	e59f302c 	ldr	r3, [pc, #44]	; 9234 <gpio_read+0x48>
    9204:	e5930028 	ldr	r0, [r3, #40]	; 0x28
    9208:	ebffff17 	bl	8e6c <get32>
    920c:	ea000002 	b	921c <gpio_read+0x30>
    } else {
        v = get32(GPLEV1);
    9210:	e59f301c 	ldr	r3, [pc, #28]	; 9234 <gpio_read+0x48>
    9214:	e593002c 	ldr	r0, [r3, #44]	; 0x2c
    9218:	ebffff13 	bl	8e6c <get32>
    }
    
    return (v & (1 << (pin % 32)));
    921c:	e204401f 	and	r4, r4, #31
    9220:	e3a03001 	mov	r3, #1
    9224:	e0000413 	and	r0, r0, r3, lsl r4
    9228:	e8bd8010 	pop	{r4, pc}

// return the value of <pin>
inline int gpio_read(unsigned pin) {
    
    if(pin >= 32) {
        return -1;
    922c:	e3e00000 	mvn	r0, #0
    } else {
        v = get32(GPLEV1);
    }
    
    return (v & (1 << (pin % 32)));
}
    9230:	e8bd8010 	pop	{r4, pc}
    9234:	000093ec 	andeq	r9, r0, ip, ror #7

00009238 <gpio_write>:

// set <pin> to <v> (v \in {0,1})
inline void gpio_write(unsigned pin, unsigned v) {
    9238:	e92d4008 	push	{r3, lr}
    
    if(pin >= 32) {
    923c:	e350001f 	cmp	r0, #31
    9240:	88bd8008 	pophi	{r3, pc}
        return;
    }
    
    if(v)
    9244:	e3510000 	cmp	r1, #0
    9248:	0a00000b 	beq	927c <gpio_write+0x44>

// set GPIO <pin> on.
inline void gpio_set_on(unsigned pin) {
    // implement this
    // use gpio_set0
    if (pin >= 32) {
    924c:	e350001f 	cmp	r0, #31
    9250:	88bd8008 	pophi	{r3, pc}
    // Get current register value
    volatile unsigned* gpio_reg = 0x0;
    unsigned bitmask = 0x0;
    
    if (pin <= 31){
        gpio_reg = GPSET0;
    9254:	959f3050 	ldrls	r3, [pc, #80]	; 92ac <gpio_write+0x74>
    9258:	95932018 	ldrls	r2, [r3, #24]
        // TODO: why do we not want this statement?
        //bitmask = get32(GPSET0);
    } else {
        gpio_reg = GPSET1;
    925c:	859f3048 	ldrhi	r3, [pc, #72]	; 92ac <gpio_write+0x74>
    9260:	8593201c 	ldrhi	r2, [r3, #28]
        //bitmask = get32(GPSET1);
        // TODO: why do we not want this statement?
    }
    
    // Calculate bitmask to preserve values
    bitmask |= 1 << (pin % 32);
    9264:	e200301f 	and	r3, r0, #31
    
    put32(gpio_reg, bitmask);
    9268:	e1a00002 	mov	r0, r2
    926c:	e3a01001 	mov	r1, #1
    9270:	e1a01311 	lsl	r1, r1, r3
    9274:	ebfffef0 	bl	8e3c <put32>
    9278:	e8bd8008 	pop	{r3, pc}

// set GPIO <pin> off
inline void gpio_set_off(unsigned pin) {
    // implement this
    // use gpio_clr0
    if(pin >= 32) {
    927c:	e350001f 	cmp	r0, #31
    9280:	88bd8008 	pophi	{r3, pc}
    }
    volatile unsigned* gpio_reg = 0x0;
    unsigned bitmask = 0x0;
    
    if (pin <= 31){
        gpio_reg = GPCLR0;
    9284:	959f3020 	ldrls	r3, [pc, #32]	; 92ac <gpio_write+0x74>
    9288:	95932020 	ldrls	r2, [r3, #32]
        //bitmask = get32(GPCLR0);
    } else {
        gpio_reg = GPCLR1;
    928c:	859f3018 	ldrhi	r3, [pc, #24]	; 92ac <gpio_write+0x74>
    9290:	85932024 	ldrhi	r2, [r3, #36]	; 0x24
        //bitmask = get32(GPCLR1);
    }
    
    // Calculate bitmask to preserve values
    bitmask |= 1 << (pin % 32);
    9294:	e200301f 	and	r3, r0, #31
    
    put32(gpio_reg, bitmask);
    9298:	e1a00002 	mov	r0, r2
    929c:	e3a01001 	mov	r1, #1
    92a0:	e1a01311 	lsl	r1, r1, r3
    92a4:	ebfffee4 	bl	8e3c <put32>
    92a8:	e8bd8008 	pop	{r3, pc}
    92ac:	000093ec 	andeq	r9, r0, ip, ror #7

000092b0 <gpio_set_function>:
        gpio_set_on(pin);
    else
        gpio_set_off(pin);
}

void gpio_set_function(unsigned pin, gpio_func_t func) {
    92b0:	e92d4070 	push	{r4, r5, r6, lr}
    92b4:	e1a04000 	mov	r4, r0
    92b8:	e1a05001 	mov	r5, r1
    // implement this
    // use gpio_fsel0
    
    if (pin >= 32 || func >= 8) {
    92bc:	e3510007 	cmp	r1, #7
    92c0:	9350001f 	cmpls	r0, #31
    92c4:	88bd8070 	pophi	{r4, r5, r6, pc}
        return;
    }

    volatile unsigned* gpio_reg;
    unsigned reg_select = pin / 10;
    92c8:	e59f30b0 	ldr	r3, [pc, #176]	; 9380 <gpio_set_function+0xd0>
    92cc:	e0832093 	umull	r2, r3, r3, r0
    92d0:	e1a031a3 	lsr	r3, r3, #3
    
    // Calculate register bank for selected GPIO pin
    switch (reg_select) {
    92d4:	e3530005 	cmp	r3, #5
    92d8:	979ff103 	ldrls	pc, [pc, r3, lsl #2]
    92dc:	ea000017 	b	9340 <gpio_set_function+0x90>
    92e0:	000092f8 	strdeq	r9, [r0], -r8
    92e4:	00009304 	andeq	r9, r0, r4, lsl #6
    92e8:	00009310 	andeq	r9, r0, r0, lsl r3
    92ec:	0000931c 	andeq	r9, r0, ip, lsl r3
    92f0:	00009328 	andeq	r9, r0, r8, lsr #6
    92f4:	00009334 	andeq	r9, r0, r4, lsr r3
        case 0: {gpio_reg = GPFSEL0; break;}
    92f8:	e59f3084 	ldr	r3, [pc, #132]	; 9384 <gpio_set_function+0xd4>
    92fc:	e5936000 	ldr	r6, [r3]
    9300:	ea00000f 	b	9344 <gpio_set_function+0x94>
        case 1: {gpio_reg = GPFSEL1; break;}
    9304:	e59f3078 	ldr	r3, [pc, #120]	; 9384 <gpio_set_function+0xd4>
    9308:	e5936004 	ldr	r6, [r3, #4]
    930c:	ea00000c 	b	9344 <gpio_set_function+0x94>
        case 2: {gpio_reg = GPFSEL2; break;}
    9310:	e59f306c 	ldr	r3, [pc, #108]	; 9384 <gpio_set_function+0xd4>
    9314:	e5936008 	ldr	r6, [r3, #8]
    9318:	ea000009 	b	9344 <gpio_set_function+0x94>
        case 3: {gpio_reg = GPFSEL3; break;}
    931c:	e59f3060 	ldr	r3, [pc, #96]	; 9384 <gpio_set_function+0xd4>
    9320:	e593600c 	ldr	r6, [r3, #12]
    9324:	ea000006 	b	9344 <gpio_set_function+0x94>
        case 4: {gpio_reg = GPFSEL4; break;}
    9328:	e59f3054 	ldr	r3, [pc, #84]	; 9384 <gpio_set_function+0xd4>
    932c:	e5936010 	ldr	r6, [r3, #16]
    9330:	ea000003 	b	9344 <gpio_set_function+0x94>
        case 5: {gpio_reg = GPFSEL5; break;}
    9334:	e59f3048 	ldr	r3, [pc, #72]	; 9384 <gpio_set_function+0xd4>
    9338:	e5936014 	ldr	r6, [r3, #20]
    933c:	ea000000 	b	9344 <gpio_set_function+0x94>
        default: gpio_reg = 0x0;
    9340:	e3a06000 	mov	r6, #0
    }
    
    // Calculate bitmask for selected GPIO pin
    unsigned bitmask = get32(gpio_reg);
    9344:	e1a00006 	mov	r0, r6
    9348:	ebfffec7 	bl	8e6c <get32>
    bitmask &= ~(0b111 << ((pin % 10) * 3));
    934c:	e59f302c 	ldr	r3, [pc, #44]	; 9380 <gpio_set_function+0xd0>
    9350:	e0832493 	umull	r2, r3, r3, r4
    9354:	e1a031a3 	lsr	r3, r3, #3
    9358:	e0833103 	add	r3, r3, r3, lsl #2
    935c:	e1a03083 	lsl	r3, r3, #1
    9360:	e0633004 	rsb	r3, r3, r4
    9364:	e0833083 	add	r3, r3, r3, lsl #1
    9368:	e3a01007 	mov	r1, #7
    936c:	e1c01311 	bic	r1, r0, r1, lsl r3
    bitmask |= (func << ((pin % 10) * 3));
    put32(gpio_reg, bitmask);
    9370:	e1a00006 	mov	r0, r6
    9374:	e1811315 	orr	r1, r1, r5, lsl r3
    9378:	ebfffeaf 	bl	8e3c <put32>
    937c:	e8bd8070 	pop	{r4, r5, r6, pc}
    9380:	cccccccd 	stclgt	12, cr12, [ip], {205}	; 0xcd
    9384:	000093ec 	andeq	r9, r0, ip, ror #7

00009388 <internal_putchar>:
#include "rpi.h"

static int internal_putchar(int c) { uart_putc(c); return c; }
    9388:	e92d4010 	push	{r4, lr}
    938c:	e1a04000 	mov	r4, r0
    9390:	ebfffefb 	bl	8f84 <uart_putc>
    9394:	e1a00004 	mov	r0, r4
    9398:	e8bd8010 	pop	{r4, pc}

0000939c <dev_barrier>:
    939c:	ea000002 	b	93ac <dsb>

000093a0 <dmb>:
    93a0:	e3a00000 	mov	r0, #0
    93a4:	ee070fba 	mcr	15, 0, r0, cr7, cr10, {5}
    93a8:	e12fff1e 	bx	lr

000093ac <dsb>:
    93ac:	ee070f9a 	mcr	15, 0, r0, cr7, cr10, {4}
    93b0:	e12fff1e 	bx	lr

Disassembly of section .data:

000093b4 <putk>:
    93b4:	00008780 	andeq	r8, r0, r0, lsl #15

000093b8 <AUX_MU_LSR_REG>:
    93b8:	20215054 	eorcs	r5, r1, r4, asr r0

000093bc <AUX_ENABLES>:
    93bc:	20215004 	eorcs	r5, r1, r4

000093c0 <AUX_MU_CNTL_REG>:
    93c0:	20215060 	eorcs	r5, r1, r0, rrx

000093c4 <AUX_MU_IER_REG>:
    93c4:	20215044 	eorcs	r5, r1, r4, asr #32

000093c8 <AUX_MU_IIR_REG>:
    93c8:	20215048 	eorcs	r5, r1, r8, asr #32

000093cc <AUX_MU_LCR_REG>:
    93cc:	2021504c 	eorcs	r5, r1, ip, asr #32

000093d0 <AUX_MU_BAUD_REG>:
    93d0:	20215068 	eorcs	r5, r1, r8, rrx

000093d4 <AUX_MU_IO_REG>:
    93d4:	20215040 	eorcs	r5, r1, r0, asr #32

000093d8 <AUX_MU_STAT_REG>:
    93d8:	20215064 	eorcs	r5, r1, r4, rrx

000093dc <AUX_MU_SCRATCH>:
    93dc:	2021505c 	eorcs	r5, r1, ip, asr r0

000093e0 <AUX_MU_MSR_REG>:
    93e0:	20215058 	eorcs	r5, r1, r8, asr r0

000093e4 <AUX_MU_MCR_REG>:
    93e4:	20215050 	eorcs	r5, r1, r0, asr r0

000093e8 <AUX_IRQ>:
    93e8:	20215000 	eorcs	r5, r1, r0

000093ec <GPFSEL0>:
    93ec:	20200000 	eorcs	r0, r0, r0

000093f0 <GPFSEL1>:
    93f0:	20200004 	eorcs	r0, r0, r4

000093f4 <GPFSEL2>:
    93f4:	20200008 	eorcs	r0, r0, r8

000093f8 <GPFSEL3>:
    93f8:	2020000c 	eorcs	r0, r0, ip

000093fc <GPFSEL4>:
    93fc:	20200010 	eorcs	r0, r0, r0, lsl r0

00009400 <GPFSEL5>:
    9400:	20200014 	eorcs	r0, r0, r4, lsl r0

00009404 <GPSET0>:
    9404:	2020001c 	eorcs	r0, r0, ip, lsl r0

00009408 <GPSET1>:
    9408:	20200020 	eorcs	r0, r0, r0, lsr #32

0000940c <GPCLR0>:
    940c:	20200028 	eorcs	r0, r0, r8, lsr #32

00009410 <GPCLR1>:
    9410:	2020002c 	eorcs	r0, r0, ip, lsr #32

00009414 <GPLEV0>:
    9414:	20200034 	eorcs	r0, r0, r4, lsr r0

00009418 <GPLEV1>:
    9418:	20200038 	eorcs	r0, r0, r8, lsr r0

0000941c <gpio_clr0>:
    941c:	20200028 	eorcs	r0, r0, r8, lsr #32

00009420 <gpio_set0>:
    9420:	2020001c 	eorcs	r0, r0, ip, lsl r0

00009424 <gpio_fsel0>:
    9424:	20200000 	eorcs	r0, r0, r0

00009428 <rpi_putchar>:
    9428:	00009388 	andeq	r9, r0, r8, lsl #7

Disassembly of section .rodata:

0000942c <__FUNCTION__.4184>:
    942c:	6d746f6e 	ldclvs	15, cr6, [r4, #-440]!	; 0xfffffe48
    9430:	006e6961 	rsbeq	r6, lr, r1, ror #18
    9434:	203a6425 	eorscs	r6, sl, r5, lsr #8
    9438:	65746e65 	ldrbvs	r6, [r4, #-3685]!	; 0xe65
    943c:	756d2072 	strbvc	r2, [sp, #-114]!	; 0x72
    9440:	7069746c 	rsbvc	r7, r9, ip, ror #8
    9444:	6c20656c 	cfstr32vs	mvfx6, [r0], #-432	; 0xfffffe50
    9448:	73656e69 	cmnvc	r5, #1680	; 0x690
    944c:	6977202c 	ldmdbvs	r7!, {r2, r3, r5, sp}^
    9450:	73206c6c 	teqvc	r0, #108, 24	; 0x6c00
    9454:	20706f74 	rsbscs	r6, r0, r4, ror pc
    9458:	64616572 	strbtvs	r6, [r1], #-1394	; 0x572
    945c:	20676e69 	rsbcs	r6, r7, r9, ror #28
    9460:	6e656877 	mcrvs	8, 3, r6, cr5, cr7, {3}
    9464:	6c646920 	stclvs	9, cr6, [r4], #-128	; 0xffffff80
    9468:	6f662065 	svcvs	0x00662065
    946c:	64253d72 	strtvs	r3, [r5], #-3442	; 0xd72
    9470:	29636573 	stmdbcs	r3!, {r0, r1, r4, r5, r6, r8, sl, sp, lr}^
    9474:	00000a3a 	andeq	r0, r0, sl, lsr sl
    9478:	656d6974 	strbvs	r6, [sp, #-2420]!	; 0x974
    947c:	3a74756f 	bcc	1d26a40 <__bss_end__+0x1d1cf00>
    9480:	73657220 	cmnvc	r5, #32, 4
    9484:	0a64253d 	beq	1912980 <__bss_end__+0x1908e40>
    9488:	00000000 	andeq	r0, r0, r0
    948c:	494e4150 	stmdbmi	lr, {r4, r6, r8, lr}^
    9490:	73253a43 	teqvc	r5, #274432	; 0x43000
    9494:	3a73253a 	bcc	1cd2984 <__bss_end__+0x1cc8e44>
    9498:	733a6425 	teqvc	sl, #620756992	; 0x25000000
    949c:	656c7274 	strbvs	r7, [ip, #-628]!	; 0x274
    94a0:	7562286e 	strbvc	r2, [r2, #-2158]!	; 0x86e
    94a4:	3d202966 	stccc	9, cr2, [r0, #-408]!	; 0xfffffe68
    94a8:	6572203d 	ldrbvs	r2, [r2, #-61]!	; 0x3d
    94ac:	00000a73 	andeq	r0, r0, r3, ror sl
    94b0:	65672d33 	strbvs	r2, [r7, #-3379]!	; 0xd33
    94b4:	742d7374 	strtvc	r7, [sp], #-884	; 0x374
    94b8:	6f656d69 	svcvs	0x00656d69
    94bc:	742d7475 	strtvc	r7, [sp], #-1141	; 0x475
    94c0:	2e747365 	cdpcs	3, 7, cr7, cr4, cr5, {3}
    94c4:	00000063 	andeq	r0, r0, r3, rrx
    94c8:	552d5753 	strpl	r5, [sp, #-1875]!	; 0x753
    94cc:	3a545241 	bcc	151ddd8 <__bss_end__+0x1514298>
    94d0:	746f6720 	strbtvc	r6, [pc], #-1824	; 94d8 <__FUNCTION__.4184+0xac>
    94d4:	79626e20 	stmdbvc	r2!, {r5, r9, sl, fp, sp, lr}^
    94d8:	3d736574 	cfldr64cc	mvdx6, [r3, #-464]!	; 0xfffffe30
    94dc:	202c6425 	eorcs	r6, ip, r5, lsr #8
    94e0:	69727473 	ldmdbvs	r2!, {r0, r1, r4, r5, r6, sl, ip, sp, lr}^
    94e4:	3c20676e 	stccc	7, cr6, [r0], #-440	; 0xfffffe48
    94e8:	0a3e7325 	beq	fa6184 <__bss_end__+0xf9c644>
    94ec:	00000000 	andeq	r0, r0, r0

000094f0 <__FUNCTION__.4245>:
    94f0:	755f7773 	ldrbvc	r7, [pc, #-1907]	; 8d85 <rpi_reboot+0x19>
    94f4:	5f747261 	svcpl	0x00747261
    94f8:	73746567 	cmnvc	r4, #432013312	; 0x19c00000
    94fc:	746e755f 	strbtvc	r7, [lr], #-1375	; 0x55f
    9500:	00006c69 	andeq	r6, r0, r9, ror #24

00009504 <__FUNCTION__.4257>:
    9504:	755f7773 	ldrbvc	r7, [pc, #-1907]	; 8d99 <rpi_reboot+0x2d>
    9508:	5f747261 	svcpl	0x00747261
    950c:	73746567 	cmnvc	r4, #432013312	; 0x19c00000
    9510:	6d69745f 	cfstrdvs	mvd7, [r9, #-380]!	; 0xfffffe84
    9514:	74756f65 	ldrbtvc	r6, [r5], #-3941	; 0xf65
    9518:	00000000 	andeq	r0, r0, r0

0000951c <__FUNCTION__.4271>:
    951c:	755f7773 	ldrbvc	r7, [pc, #-1907]	; 8db1 <rpi_reboot+0x45>
    9520:	5f747261 	svcpl	0x00747261
    9524:	74696e69 	strbtvc	r6, [r9], #-3689	; 0xe69
    9528:	6c65685f 	stclvs	8, cr6, [r5], #-380	; 0xfffffe84
    952c:	00726570 	rsbseq	r6, r2, r0, ror r5

00009530 <__FUNCTION__.4277>:
    9530:	755f7773 	ldrbvc	r7, [pc, #-1907]	; 8dc5 <delay_cycles+0x11>
    9534:	5f747261 	svcpl	0x00747261
    9538:	63746567 	cmnvs	r4, #432013312	; 0x19c00000
    953c:	00000000 	andeq	r0, r0, r0

00009540 <__FUNCTION__.4299>:
    9540:	755f7773 	ldrbvc	r7, [pc, #-1907]	; 8dd5 <timer_get_usec_raw+0x5>
    9544:	5f747261 	svcpl	0x00747261
    9548:	6e697270 	mcrvs	2, 3, r7, cr9, cr0, {3}
    954c:	00006b74 	andeq	r6, r0, r4, ror fp

00009550 <__FUNCTION__.4307>:
    9550:	755f7773 	ldrbvc	r7, [pc, #-1907]	; 8de5 <timer_get_usec+0x1>
    9554:	5f747261 	svcpl	0x00747261
    9558:	73746567 	cmnvc	r4, #432013312	; 0x19c00000
    955c:	746e755f 	strbtvc	r7, [lr], #-1375	; 0x55f
    9560:	625f6c69 	subsvs	r6, pc, #26880	; 0x6900
    9564:	00006b6c 	andeq	r6, r0, ip, ror #22
    9568:	494e4150 	stmdbmi	lr, {r4, r6, r8, lr}^
    956c:	73253a43 	teqvc	r5, #274432	; 0x43000
    9570:	3a73253a 	bcc	1cd2a60 <__bss_end__+0x1cc8f20>
    9574:	6e3a6425 	cdpvs	4, 3, cr6, cr10, cr5, {1}
    9578:	65747962 	ldrbvs	r7, [r4, #-2402]!	; 0x962
    957c:	0a303e73 	beq	c18f50 <__bss_end__+0xc0f410>
    9580:	00000000 	andeq	r0, r0, r0
    9584:	752d7773 	strvc	r7, [sp, #-1907]!	; 0x773
    9588:	2e747261 	cdpcs	2, 7, cr7, cr4, cr1, {3}
    958c:	00000063 	andeq	r0, r0, r3, rrx
    9590:	494e4150 	stmdbmi	lr, {r4, r6, r8, lr}^
    9594:	73253a43 	teqvc	r5, #274432	; 0x43000
    9598:	3a73253a 	bcc	1cd2a88 <__bss_end__+0x1cc8f48>
    959c:	283a6425 	ldmdacs	sl!, {r0, r2, r5, sl, sp, lr}
    95a0:	207a686d 	rsbscs	r6, sl, sp, ror #16
    95a4:	6162202d 	cmnvs	r2, sp, lsr #32
    95a8:	20296475 	eorcs	r6, r9, r5, ror r4
    95ac:	64203d3c 	strtvs	r3, [r0], #-3388	; 0xd3c
    95b0:	76697265 	strbtvc	r7, [r9], -r5, ror #4
    95b4:	26206465 	strtcs	r6, [r0], -r5, ror #8
    95b8:	65642026 	strbvs	r2, [r4, #-38]!	; 0x26
    95bc:	65766972 	ldrbvs	r6, [r6, #-2418]!	; 0x972
    95c0:	3d3c2064 	ldccc	0, cr2, [ip, #-400]!	; 0xfffffe70
    95c4:	686d2820 	stmdavs	sp!, {r5, fp, sp}^
    95c8:	202b207a 	eorcs	r2, fp, sl, ror r0
    95cc:	64756162 	ldrbtvs	r6, [r5], #-354	; 0x162
    95d0:	00000a29 	andeq	r0, r0, r9, lsr #20
    95d4:	494e4150 	stmdbmi	lr, {r4, r6, r8, lr}^
    95d8:	73253a43 	teqvc	r5, #274432	; 0x43000
    95dc:	3a73253a 	bcc	1cd2acc <__bss_end__+0x1cc8f8c>
    95e0:	693a6425 	ldmdbvs	sl!, {r0, r2, r5, sl, sp, lr}
    95e4:	736f706d 	cmnvc	pc, #109	; 0x6d
    95e8:	6c626973 	stclvs	9, cr6, [r2], #-460	; 0xfffffe34
    95ec:	68203a65 	stmdavs	r0!, {r0, r2, r5, r6, r9, fp, ip, sp}
    95f0:	20657661 	rsbcs	r7, r5, r1, ror #12
    95f4:	69206e61 	stmdbvs	r0!, {r0, r5, r6, r9, sl, fp, sp, lr}
    95f8:	6e69666e 	cdpvs	6, 6, cr6, cr9, cr14, {3}
    95fc:	20657469 	rsbcs	r7, r5, r9, ror #8
    9600:	656d6974 	strbvs	r6, [sp, #-2420]!	; 0x974
    9604:	2174756f 	cmncs	r4, pc, ror #10
    9608:	00000a0a 	andeq	r0, r0, sl, lsl #20
    960c:	494e4150 	stmdbmi	lr, {r4, r6, r8, lr}^
    9610:	73253a43 	teqvc	r5, #274432	; 0x43000
    9614:	3a73253a 	bcc	1cd2b04 <__bss_end__+0x1cc8fc4>
    9618:	733a6425 	teqvc	sl, #620756992	; 0x25000000
    961c:	203c207a 	eorscs	r2, ip, sl, ror r0
    9620:	657a6973 	ldrbvs	r6, [sl, #-2419]!	; 0x973
    9624:	6220666f 	eorvs	r6, r0, #116391936	; 0x6f00000
    9628:	312d6675 	teqcc	sp, r5, ror r6
    962c:	0000000a 	andeq	r0, r0, sl

00009630 <__FUNCTION__.4197>:
    9630:	74696d65 	strbtvc	r6, [r9], #-3429	; 0xd65
    9634:	00000000 	andeq	r0, r0, r0

00009638 <__FUNCTION__.4145>:
    9638:	5f697072 	svcpl	0x00697072
    963c:	5f746573 	svcpl	0x00746573
    9640:	7074756f 	rsbsvc	r7, r4, pc, ror #10
    9644:	00007475 	andeq	r7, r0, r5, ror r4

00009648 <__FUNCTION__.4219>:
    9648:	705f6176 	subsvc	r6, pc, r6, ror r1	; <UNPREDICTABLE>
    964c:	746e6972 	strbtvc	r6, [lr], #-2418	; 0x972
    9650:	0000006b 	andeq	r0, r0, fp, rrx
    9654:	494e4150 	stmdbmi	lr, {r4, r6, r8, lr}^
    9658:	73253a43 	teqvc	r5, #274432	; 0x43000
    965c:	3a73253a 	bcc	1cd2b4c <__bss_end__+0x1cc900c>
    9660:	303a6425 	eorscc	r6, sl, r5, lsr #8
    9664:	0000000a 	andeq	r0, r0, sl
    9668:	6362696c 	cmnvs	r2, #108, 18	; 0x1b0000
    966c:	2d61762f 	stclcs	6, cr7, [r1, #-188]!	; 0xffffff44
    9670:	6e697270 	mcrvs	2, 3, r7, cr9, cr0, {3}
    9674:	632e6b74 	teqvs	lr, #116, 22	; 0x1d000
    9678:	00000000 	andeq	r0, r0, r0
    967c:	33323130 	teqcc	r2, #48, 2
    9680:	37363534 			; <UNDEFINED> instruction: 0x37363534
    9684:	00003938 	andeq	r3, r0, r8, lsr r9
    9688:	33323130 	teqcc	r2, #48, 2
    968c:	37363534 			; <UNDEFINED> instruction: 0x37363534
    9690:	62613938 	rsbvs	r3, r1, #56, 18	; 0xe0000
    9694:	66656463 	strbtvs	r6, [r5], -r3, ror #8
    9698:	00000000 	andeq	r0, r0, r0
    969c:	00003130 	andeq	r3, r0, r0, lsr r1
    96a0:	494e4150 	stmdbmi	lr, {r4, r6, r8, lr}^
    96a4:	73253a43 	teqvc	r5, #274432	; 0x43000
    96a8:	3a73253a 	bcc	1cd2b98 <__bss_end__+0x1cc9058>
    96ac:	703a6425 	eorsvc	r6, sl, r5, lsr #8
    96b0:	5f637475 	svcpl	0x00637475
    96b4:	000a7066 	andeq	r7, sl, r6, rrx
    96b8:	494e4150 	stmdbmi	lr, {r4, r6, r8, lr}^
    96bc:	73253a43 	teqvc	r5, #274432	; 0x43000
    96c0:	3a73253a 	bcc	1cd2bb0 <__bss_end__+0x1cc9070>
    96c4:	773a6425 	ldrvc	r6, [sl, -r5, lsr #8]!
    96c8:	68746469 	ldmdavs	r4!, {r0, r3, r5, r6, sl, sp, lr}^
    96cc:	33203c20 	teqcc	r0, #32, 24	; 0x2000
    96d0:	00000a32 	andeq	r0, r0, r2, lsr sl
    96d4:	494e4150 	stmdbmi	lr, {r4, r6, r8, lr}^
    96d8:	73253a43 	teqvc	r5, #274432	; 0x43000
    96dc:	3a73253a 	bcc	1cd2bcc <__bss_end__+0x1cc908c>
    96e0:	663a6425 	ldrtvs	r6, [sl], -r5, lsr #8
    96e4:	74616f6c 	strbtvc	r6, [r1], #-3948	; 0xf6c
    96e8:	746f6e20 	strbtvc	r6, [pc], #-3616	; 96f0 <__FUNCTION__.4219+0xa8>
    96ec:	616e6520 	cmnvs	lr, r0, lsr #10
    96f0:	64656c62 	strbtvs	r6, [r5], #-3170	; 0xc62
    96f4:	0a212121 	beq	851b80 <__bss_end__+0x848040>
    96f8:	00000000 	andeq	r0, r0, r0
    96fc:	494e4150 	stmdbmi	lr, {r4, r6, r8, lr}^
    9700:	73253a43 	teqvc	r5, #274432	; 0x43000
    9704:	3a73253a 	bcc	1cd2bf4 <__bss_end__+0x1cc90b4>
    9708:	703a6425 	eorsvc	r6, sl, r5, lsr #8
    970c:	746e6972 	strbtvc	r6, [lr], #-2418	; 0x972
    9710:	6e203a6b 	vnmulvs.f32	s6, s0, s23
    9714:	6820746f 	stmdavs	r0!, {r0, r1, r2, r3, r5, r6, sl, ip, sp, lr}
    9718:	6c646e61 	stclvs	14, cr6, [r4], #-388	; 0xfffffe7c
    971c:	20676e69 	rsbcs	r6, r7, r9, ror #28
    9720:	63657073 	cmnvs	r5, #115	; 0x73
    9724:	65696669 	strbvs	r6, [r9, #-1641]!	; 0x669
    9728:	25272072 	strcs	r2, [r7, #-114]!	; 0x72
    972c:	0a0a2763 	beq	2934c0 <__bss_end__+0x289980>
    9730:	00000000 	andeq	r0, r0, r0
    9734:	454e4f44 	strbmi	r4, [lr, #-3908]	; 0xf44
    9738:	0a212121 	beq	851bc4 <__bss_end__+0x848084>
    973c:	00000000 	andeq	r0, r0, r0

Disassembly of section .bss:

00009740 <__bss_start__>:
	...

Disassembly of section .ARM.attributes:

00000000 <.ARM.attributes>:
   0:	00002a41 	andeq	r2, r0, r1, asr #20
   4:	61656100 	cmnvs	r5, r0, lsl #2
   8:	01006962 	tsteq	r0, r2, ror #18
   c:	00000020 	andeq	r0, r0, r0, lsr #32
  10:	4b5a3605 	blmi	168d82c <__bss_end__+0x1683cec>
  14:	08070600 	stmdaeq	r7, {r9, sl}
  18:	12010901 	andne	r0, r1, #16384	; 0x4000
  1c:	15011404 	strne	r1, [r1, #-1028]	; 0x404
  20:	18031701 	stmdane	r3, {r0, r8, r9, sl, ip}
  24:	22011a01 	andcs	r1, r1, #4096	; 0x1000
  28:	Address 0x0000000000000028 is out of bounds.


Disassembly of section .comment:

00000000 <.comment>:
   0:	3a434347 	bcc	10d0d24 <__bss_end__+0x10c71e4>
   4:	4e472820 	cdpmi	8, 4, cr2, cr7, cr0, {1}
   8:	34202955 	strtcc	r2, [r0], #-2389	; 0x955
   c:	332e382e 	teqcc	lr, #3014656	; 0x2e0000
	...

Disassembly of section .debug_info:

00000000 <.debug_info>:
       0:	0000034f 	andeq	r0, r0, pc, asr #6
       4:	00000004 	andeq	r0, r0, r4
       8:	01040000 	mrseq	r0, (UNDEF: 4)
       c:	00000029 	andeq	r0, r0, r9, lsr #32
      10:	00008801 	andeq	r8, r0, r1, lsl #16
      14:	00016d00 	andeq	r6, r1, r0, lsl #26
      18:	00801000 	addeq	r1, r0, r0
      1c:	00011800 	andeq	r1, r1, r0, lsl #16
      20:	00000000 	andeq	r0, r0, r0
      24:	05040200 	streq	r0, [r4, #-512]	; 0x200
      28:	00746e69 	rsbseq	r6, r4, r9, ror #28
      2c:	00000e03 	andeq	r0, r0, r3, lsl #28
      30:	37d40200 	ldrbcc	r0, [r4, r0, lsl #4]
      34:	04000000 	streq	r0, [r0], #-0
      38:	01000704 	tsteq	r0, r4, lsl #14
      3c:	01040000 	mrseq	r0, (UNDEF: 4)
      40:	0000aa06 	andeq	sl, r0, r6, lsl #20
      44:	05020400 	streq	r0, [r2, #-1024]	; 0x400
      48:	00000131 	andeq	r0, r0, r1, lsr r1
      4c:	28050404 	stmdacs	r5, {r2, sl}
      50:	04000001 	streq	r0, [r0], #-1
      54:	01230508 	teqeq	r3, r8, lsl #10
      58:	0d030000 	stceq	0, cr0, [r3, #-0]
      5c:	03000001 	movweq	r0, #1
      60:	0000652e 	andeq	r6, r0, lr, lsr #10
      64:	08010400 	stmdaeq	r1, {sl}
      68:	000000a8 	andeq	r0, r0, r8, lsr #1
      6c:	cc070204 	sfmgt	f0, 4, [r7], {4}
      70:	03000000 	movweq	r0, #0
      74:	0000015d 	andeq	r0, r0, sp, asr r1
      78:	007e3403 	rsbseq	r3, lr, r3, lsl #8
      7c:	04040000 	streq	r0, [r4], #-0
      80:	0000fb07 	andeq	pc, r0, r7, lsl #22
      84:	07080400 	streq	r0, [r8, -r0, lsl #8]
      88:	000000f6 	strdeq	r0, [r0], -r6
      8c:	1a070404 	bne	1c10a4 <__bss_end__+0x1b7564>
      90:	04000001 	streq	r0, [r0], #-1
      94:	00b10801 	adcseq	r0, r1, r1, lsl #16
      98:	04050000 	streq	r0, [r5], #-0
      9c:	000000a0 	andeq	r0, r0, r0, lsr #1
      a0:	00009306 	andeq	r9, r0, r6, lsl #6
      a4:	00930700 	addseq	r0, r3, r0, lsl #14
      a8:	00b50000 	adcseq	r0, r5, r0
      ac:	8c080000 	stchi	0, cr0, [r8], {-0}
      b0:	07000000 	streq	r0, [r0, -r0]
      b4:	040c0900 	streq	r0, [ip], #-2304	; 0x900
      b8:	0000ec0e 	andeq	lr, r0, lr, lsl #24
      bc:	78740a00 	ldmdavc	r4!, {r9, fp}^
      c0:	5a0f0400 	bpl	3c10c8 <__bss_end__+0x3b7588>
      c4:	00000000 	andeq	r0, r0, r0
      c8:	0078720a 	rsbseq	r7, r8, sl, lsl #4
      cc:	005a0f04 	subseq	r0, sl, r4, lsl #30
      d0:	0b010000 	bleq	400d8 <__bss_end__+0x36598>
      d4:	00000115 	andeq	r0, r0, r5, lsl r1
      d8:	00731004 	rsbseq	r1, r3, r4
      dc:	0b040000 	bleq	1000e4 <__bss_end__+0xf65a4>
      e0:	00000000 	andeq	r0, r0, r0
      e4:	00731104 	rsbseq	r1, r3, r4, lsl #2
      e8:	00080000 	andeq	r0, r8, r0
      ec:	0000df03 	andeq	sp, r0, r3, lsl #30
      f0:	b5120400 	ldrlt	r0, [r2, #-1024]	; 0x400
      f4:	0c000000 	stceq	0, cr0, [r0], {-0}
      f8:	00000080 	andeq	r0, r0, r0, lsl #1
      fc:	80100601 	andshi	r0, r0, r1, lsl #12
     100:	01180000 	tsteq	r8, r0
     104:	9c010000 	stcls	0, cr0, [r1], {-0}
     108:	0000029b 	muleq	r0, fp, r2
     10c:	0100750d 	tsteq	r0, sp, lsl #10
     110:	0000ec0b 	andeq	lr, r0, fp, lsl #24
     114:	54910200 	ldrpl	r0, [r1], #512	; 0x200
     118:	0000e90e 	andeq	lr, r0, lr, lsl #18
     11c:	00029b00 	andeq	r9, r2, r0, lsl #22
     120:	2c030500 	cfstr32cs	mvfx0, [r3], {-0}
     124:	0f000094 	svceq	0x00000094
     128:	00008044 	andeq	r8, r0, r4, asr #32
     12c:	000000bc 	strheq	r0, [r0], -ip
     130:	00000251 	andeq	r0, r0, r1, asr r2
     134:	01006910 	tsteq	r0, r0, lsl r9
     138:	0000250d 	andeq	r2, r0, sp, lsl #10
     13c:	00000000 	andeq	r0, r0, r0
     140:	00001100 	andeq	r1, r0, r0, lsl #2
     144:	df120000 	svcle	0x00120000
     148:	01000002 	tsteq	r0, r2
     14c:	0000370e 	andeq	r3, r0, lr, lsl #14
     150:	00001f00 	andeq	r1, r0, r0, lsl #30
     154:	75620d00 	strbvc	r0, [r2, #-3328]!	; 0xd00
     158:	12010066 	andne	r0, r1, #102	; 0x66
     15c:	000002a0 	andeq	r0, r0, r0, lsr #5
     160:	77d49103 	ldrbvc	r9, [r4, r3, lsl #2]
     164:	73657210 	cmnvc	r5, #16, 4
     168:	25140100 	ldrcs	r0, [r4, #-256]	; 0x100
     16c:	33000000 	movwcc	r0, #0
     170:	13000000 	movwne	r0, #0
     174:	00008070 	andeq	r8, r0, r0, ror r0
     178:	000002b1 			; <UNDEFINED> instruction: 0x000002b1
     17c:	00000192 	muleq	r0, r2, r1
     180:	01520114 	cmpeq	r2, r4, lsl r1
     184:	51011433 	tstpl	r1, r3, lsr r4
     188:	14007402 	strne	r7, [r0], #-1026	; 0x402
     18c:	78025001 	stmdavc	r2, {r0, ip, lr}
     190:	88130000 	ldmdahi	r3, {}	; <UNPREDICTABLE>
     194:	c7000080 	strgt	r0, [r0, -r0, lsl #1]
     198:	b9000002 	stmdblt	r0, {r1}
     19c:	14000001 	strne	r0, [r0], #-1
     1a0:	77025301 	strvc	r5, [r2, -r1, lsl #6]
     1a4:	52011400 	andpl	r1, r1, #0, 8
     1a8:	04000a03 	streq	r0, [r0], #-2563	; 0xa03
     1ac:	02510114 	subseq	r0, r1, #20, 2
     1b0:	01140076 	tsteq	r4, r6, ror r0
     1b4:	4c910250 	lfmmi	f0, 4, [r1], {80}	; 0x50
     1b8:	809c1300 	addshi	r1, ip, r0, lsl #6
     1bc:	02b10000 	adcseq	r0, r1, #0
     1c0:	01d30000 	bicseq	r0, r3, r0
     1c4:	01140000 	tsteq	r4, r0
     1c8:	00750251 	rsbseq	r0, r5, r1, asr r2
     1cc:	02500114 	subseq	r0, r0, #20, 2
     1d0:	13000079 	movwne	r0, #121	; 0x79
     1d4:	000080a8 	andeq	r8, r0, r8, lsr #1
     1d8:	000002f7 	strdeq	r0, [r0], -r7
     1dc:	000001e7 	andeq	r0, r0, r7, ror #3
     1e0:	02500114 	subseq	r0, r0, #20, 2
     1e4:	13000076 	movwne	r0, #118	; 0x76
     1e8:	000080c4 	andeq	r8, r0, r4, asr #1
     1ec:	000002b1 			; <UNDEFINED> instruction: 0x000002b1
     1f0:	00000215 	andeq	r0, r0, r5, lsl r2
     1f4:	01530114 	cmpeq	r3, r4, lsl r1
     1f8:	52011449 	andpl	r1, r1, #1224736768	; 0x49000000
     1fc:	942c0305 	strtls	r0, [ip], #-773	; 0x305
     200:	01140000 	tsteq	r4, r0
     204:	b0030551 	andlt	r0, r3, r1, asr r5
     208:	14000094 	strne	r0, [r0], #-148	; 0x94
     20c:	03055001 	movweq	r5, #20481	; 0x5001
     210:	0000948c 	andeq	r9, r0, ip, lsl #9
     214:	80c81500 	sbchi	r1, r8, r0, lsl #10
     218:	030c0000 	movweq	r0, #49152	; 0xc000
     21c:	ec130000 	ldc	0, cr0, [r3], {-0}
     220:	b1000080 	smlabblt	r0, r0, r0, r0
     224:	3e000002 	cdpcc	0, 0, cr0, cr0, cr2, {0}
     228:	14000002 	strne	r0, [r0], #-2
     22c:	76025201 	strvc	r5, [r2], -r1, lsl #4
     230:	51011400 	tstpl	r1, r0, lsl #8
     234:	14007502 	strne	r7, [r0], #-1282	; 0x502
     238:	7a025001 	bvc	94244 <__bss_end__+0x8a704>
     23c:	f4160000 			; <UNDEFINED> instruction: 0xf4160000
     240:	13000080 	movwne	r0, #128	; 0x80
     244:	14000003 	strne	r0, [r0], #-3
     248:	0a035001 	beq	d4254 <__bss_end__+0xca714>
     24c:	000007d0 	ldrdeq	r0, [r0], -r0	; <UNPREDICTABLE>
     250:	80201500 	eorhi	r1, r0, r0, lsl #10
     254:	03240000 	teqeq	r4, #0
     258:	24150000 	ldrcs	r0, [r5], #-0
     25c:	2b000080 	blcs	464 <_start-0x7b9c>
     260:	13000003 	movwne	r0, #3
     264:	00008044 	andeq	r8, r0, r4, asr #32
     268:	00000332 	andeq	r0, r0, r2, lsr r3
     26c:	00000291 	muleq	r0, r1, r2
     270:	04530114 	ldrbeq	r0, [r3], #-276	; 0x114
     274:	2439e108 	ldrtcs	lr, [r9], #-264	; 0x108
     278:	01520114 	cmpeq	r2, r4, lsl r1
     27c:	51011445 	tstpl	r1, r5, asr #8
     280:	01144401 	tsteq	r4, r1, lsl #8
     284:	4c910250 	lfmmi	f0, 4, [r1], {80}	; 0x50
     288:	007d0214 	rsbseq	r0, sp, r4, lsl r2
     28c:	17bc0a03 	ldrne	r0, [ip, r3, lsl #20]!
     290:	81041500 	tsthi	r4, r0, lsl #10
     294:	030c0000 	movweq	r0, #49152	; 0xc000
     298:	06000000 	streq	r0, [r0], -r0
     29c:	000000a5 	andeq	r0, r0, r5, lsr #1
     2a0:	00009307 	andeq	r9, r0, r7, lsl #6
     2a4:	0002b100 	andeq	fp, r2, r0, lsl #2
     2a8:	008c1700 	addeq	r1, ip, r0, lsl #14
     2ac:	03ff0000 	mvnseq	r0, #0
     2b0:	026f1800 	rsbeq	r1, pc, #0, 16
     2b4:	27050000 	strcs	r0, [r5, -r0]
     2b8:	00000025 	andeq	r0, r0, r5, lsr #32
     2bc:	000002c7 	andeq	r0, r0, r7, asr #5
     2c0:	00009a19 	andeq	r9, r0, r9, lsl sl
     2c4:	18001a00 	stmdane	r0, {r9, fp, ip}
     2c8:	00000148 	andeq	r0, r0, r8, asr #2
     2cc:	00253c04 	eoreq	r3, r5, r4, lsl #24
     2d0:	02eb0000 	rsceq	r0, fp, #0
     2d4:	eb190000 	bl	6402dc <__bss_end__+0x63679c>
     2d8:	19000002 	stmdbne	r0, {r1}
     2dc:	000002f1 	strdeq	r0, [r0], -r1
     2e0:	00007319 	andeq	r7, r0, r9, lsl r3
     2e4:	00731900 	rsbseq	r1, r3, r0, lsl #18
     2e8:	05000000 	streq	r0, [r0, #-0]
     2ec:	0000ec04 	andeq	lr, r0, r4, lsl #24
     2f0:	5a040500 	bpl	1016f8 <__bss_end__+0xf7bb8>
     2f4:	18000000 	stmdane	r0, {}	; <UNPREDICTABLE>
     2f8:	00000166 	andeq	r0, r0, r6, ror #2
     2fc:	002c2306 	eoreq	r2, ip, r6, lsl #6
     300:	030c0000 	movweq	r0, #49152	; 0xc000
     304:	9a190000 	bls	64030c <__bss_end__+0x6367cc>
     308:	00000000 	andeq	r0, r0, r0
     30c:	0000bf1b 	andeq	fp, r0, fp, lsl pc
     310:	1c630500 	cfstr64ne	mvdx0, [r3], #-0
     314:	000000b6 	strheq	r0, [r0], -r6
     318:	03244d05 	teqeq	r4, #320	; 0x140
     31c:	37190000 	ldrcc	r0, [r9, -r0]
     320:	00000000 	andeq	r0, r0, r0
     324:	00009e1b 	andeq	r9, r0, fp, lsl lr
     328:	1b380500 	blne	e01730 <__bss_end__+0xdf7bf0>
     32c:	0000013b 	andeq	r0, r0, fp, lsr r1
     330:	151d8805 	ldrne	r8, [sp, #-2053]	; 0x805
     334:	04000000 	streq	r0, [r0], #-0
     338:	0000ec1d 	andeq	lr, r0, sp, lsl ip
     33c:	005a1900 	subseq	r1, sl, r0, lsl #18
     340:	5a190000 	bpl	640348 <__bss_end__+0x636808>
     344:	19000000 	stmdbne	r0, {}	; <UNPREDICTABLE>
     348:	00000073 	andeq	r0, r0, r3, ror r0
     34c:	00007319 	andeq	r7, r0, r9, lsl r3
     350:	a7000000 	strge	r0, [r0, -r0]
     354:	04000011 	streq	r0, [r0], #-17
     358:	00017a00 	andeq	r7, r1, r0, lsl #20
     35c:	29010400 	stmdbcs	r1, {sl}
     360:	01000000 	mrseq	r0, (UNDEF: 0)
     364:	0000028f 	andeq	r0, r0, pc, lsl #5
     368:	0000016d 	andeq	r0, r0, sp, ror #2
     36c:	00008128 	andeq	r8, r0, r8, lsr #2
     370:	00000600 	andeq	r0, r0, r0, lsl #12
     374:	00000180 	andeq	r0, r0, r0, lsl #3
     378:	69050402 	stmdbvs	r5, {r1, sl}
     37c:	0300746e 	movweq	r7, #1134	; 0x46e
     380:	01000704 	tsteq	r0, r4, lsl #14
     384:	01030000 	mrseq	r0, (UNDEF: 3)
     388:	0000aa06 	andeq	sl, r0, r6, lsl #20
     38c:	05020300 	streq	r0, [r2, #-768]	; 0x300
     390:	00000131 	andeq	r0, r0, r1, lsr r1
     394:	28050403 	stmdacs	r5, {r0, r1, sl}
     398:	03000001 	movweq	r0, #1
     39c:	01230508 	teqeq	r3, r8, lsl #10
     3a0:	0d040000 	stceq	0, cr0, [r4, #-0]
     3a4:	03000001 	movweq	r0, #1
     3a8:	00005a2e 	andeq	r5, r0, lr, lsr #20
     3ac:	08010300 	stmdaeq	r1, {r8, r9}
     3b0:	000000a8 	andeq	r0, r0, r8, lsr #1
     3b4:	cc070203 	sfmgt	f0, 4, [r7], {3}
     3b8:	04000000 	streq	r0, [r0], #-0
     3bc:	0000015d 	andeq	r0, r0, sp, asr r1
     3c0:	00733403 	rsbseq	r3, r3, r3, lsl #8
     3c4:	04030000 	streq	r0, [r3], #-0
     3c8:	0000fb07 	andeq	pc, r0, r7, lsl #22
     3cc:	07080300 	streq	r0, [r8, -r0, lsl #6]
     3d0:	000000f6 	strdeq	r0, [r0], -r6
     3d4:	1a070403 	bne	1c13e8 <__bss_end__+0x1b78a8>
     3d8:	05000001 	streq	r0, [r0, #-1]
     3dc:	90040604 	andls	r0, r4, r4, lsl #12
     3e0:	03000000 	movweq	r0, #0
     3e4:	00b10801 	adcseq	r0, r1, r1, lsl #16
     3e8:	04060000 	streq	r0, [r6], #-0
     3ec:	0000009d 	muleq	r0, sp, r0
     3f0:	00009007 	andeq	r9, r0, r7
     3f4:	040c0800 	streq	r0, [ip], #-2048	; 0x800
     3f8:	0000d90e 	andeq	sp, r0, lr, lsl #18
     3fc:	78740900 	ldmdavc	r4!, {r8, fp}^
     400:	4f0f0400 	svcmi	0x000f0400
     404:	00000000 	andeq	r0, r0, r0
     408:	00787209 	rsbseq	r7, r8, r9, lsl #4
     40c:	004f0f04 	subeq	r0, pc, r4, lsl #30
     410:	0a010000 	beq	40418 <__bss_end__+0x368d8>
     414:	00000115 	andeq	r0, r0, r5, lsl r1
     418:	00681004 	rsbeq	r1, r8, r4
     41c:	0a040000 	beq	100424 <__bss_end__+0xf68e4>
     420:	00000000 	andeq	r0, r0, r0
     424:	00681104 	rsbeq	r1, r8, r4, lsl #2
     428:	00080000 	andeq	r0, r8, r0
     42c:	0000df04 	andeq	sp, r0, r4, lsl #30
     430:	a2120400 	andsge	r0, r2, #0, 8
     434:	04000000 	streq	r0, [r0], #-0
     438:	000002a1 	andeq	r0, r0, r1, lsr #5
     43c:	00ef2805 	rsceq	r2, pc, r5, lsl #16
     440:	180b0000 	stmdane	fp, {}	; <UNPREDICTABLE>
     444:	04000002 	streq	r0, [r0], #-2
     448:	01060009 	tsteq	r6, r9
     44c:	0d0c0000 	stceq	0, cr0, [ip, #-0]
     450:	88000003 	stmdahi	r0, {r0, r1}
     454:	00000000 	andeq	r0, r0, r0
     458:	021a0400 	andseq	r0, sl, #0, 8
     45c:	62050000 	andvs	r0, r5, #0
     460:	000000e4 	andeq	r0, r0, r4, ror #1
     464:	0002370d 	andeq	r3, r2, sp, lsl #14
     468:	03090200 	movweq	r0, #37376	; 0x9200
     46c:	0000013f 	andeq	r0, r0, pc, lsr r1
     470:	00049a0e 	andeq	r9, r4, lr, lsl #20
     474:	2c090200 	sfmcs	f0, 4, [r9], {-0}
     478:	0f000000 	svceq	0x00000000
     47c:	0902006e 	stmdbeq	r2, {r1, r2, r3, r5, r6}
     480:	0000002c 	andeq	r0, r0, ip, lsr #32
     484:	02b01110 	adcseq	r1, r0, #16, 2
     488:	0c020000 	stceq	0, cr0, [r2], {-0}
     48c:	0000002c 	andeq	r0, r0, ip, lsr #32
     490:	e00d0000 	and	r0, sp, r0
     494:	02000001 	andeq	r0, r0, #1
     498:	01760317 	cmneq	r6, r7, lsl r3
     49c:	700f0000 	andvc	r0, pc, r0
     4a0:	02006e69 	andeq	r6, r0, #1680	; 0x690
     4a4:	00002c17 	andeq	r2, r0, r7, lsl ip
     4a8:	00760f00 	rsbseq	r0, r6, r0, lsl #30
     4ac:	002c1702 	eoreq	r1, ip, r2, lsl #14
     4b0:	9a0e0000 	bls	3804b8 <__bss_end__+0x376978>
     4b4:	02000004 	andeq	r0, r0, #4
     4b8:	00002c17 	andeq	r2, r0, r7, lsl ip
     4bc:	023d0e00 	eorseq	r0, sp, #0, 28
     4c0:	17020000 	strne	r0, [r2, -r0]
     4c4:	0000002c 	andeq	r0, r0, ip, lsr #32
     4c8:	02521200 	subseq	r1, r2, #0, 4
     4cc:	09010000 	stmdbeq	r1, {}	; <UNPREDICTABLE>
     4d0:	00008128 	andeq	r8, r0, r8, lsr #2
     4d4:	00000158 	andeq	r0, r0, r8, asr r1
     4d8:	07559c01 	ldrbeq	r9, [r5, -r1, lsl #24]
     4dc:	cf130000 	svcgt	0x00130000
     4e0:	01000001 	tsteq	r0, r1
     4e4:	00075509 	andeq	r5, r7, r9, lsl #10
     4e8:	00006700 	andeq	r6, r0, r0, lsl #14
     4ec:	00631400 	rsbeq	r1, r3, r0, lsl #8
     4f0:	005a0901 	subseq	r0, sl, r1, lsl #18
     4f4:	00880000 	addeq	r0, r8, r0
     4f8:	74150000 	ldrvc	r0, [r5], #-0
     4fc:	0b010078 	bleq	406e4 <__bss_end__+0x36ba4>
     500:	00000025 	andeq	r0, r0, r5, lsr #32
     504:	08007606 	stmdaeq	r0, {r1, r2, r9, sl, ip, sp, lr}
     508:	169f1aff 			; <UNDEFINED> instruction: 0x169f1aff
     50c:	0c01006e 	stceq	0, cr0, [r1], {110}	; 0x6e
     510:	00000068 	andeq	r0, r0, r8, rrx
     514:	000000a9 	andeq	r0, r0, r9, lsr #1
     518:	01007516 	tsteq	r0, r6, lsl r5
     51c:	0000680d 	andeq	r6, r0, sp, lsl #16
     520:	0000a900 	andeq	sl, r0, r0, lsl #18
     524:	00731700 	rsbseq	r1, r3, r0, lsl #14
     528:	00680e01 	rsbeq	r0, r8, r1, lsl #28
     52c:	65160000 	ldrvs	r0, [r6, #-0]
     530:	0100646e 	tsteq	r0, lr, ror #8
     534:	00002c11 	andeq	r2, r0, r1, lsl ip
     538:	0000bc00 	andeq	fp, r0, r0, lsl #24
     53c:	049a1800 	ldreq	r1, [sl], #2048	; 0x800
     540:	12010000 	andne	r0, r1, #0
     544:	0000002c 	andeq	r0, r0, ip, lsr #32
     548:	38195401 	ldmdacc	r9, {r0, sl, ip, lr}
     54c:	04000081 	streq	r0, [r0], #-129	; 0x81
     550:	10000000 	andne	r0, r0, r0
     554:	11000002 	tstne	r0, r2
     558:	000002b0 			; <UNDEFINED> instruction: 0x000002b0
     55c:	002c0e01 	eoreq	r0, ip, r1, lsl #28
     560:	19000000 	stmdbne	r0, {}	; <UNPREDICTABLE>
     564:	0000813c 	andeq	r8, r0, ip, lsr r1
     568:	00000004 	andeq	r0, r0, r4
     56c:	0000022b 	andeq	r0, r0, fp, lsr #4
     570:	0002b018 	andeq	fp, r2, r8, lsl r0
     574:	2c120100 	ldfcss	f0, [r2], {-0}
     578:	01000000 	mrseq	r0, (UNDEF: 0)
     57c:	3f1a0054 	svccc	0x001a0054
     580:	40000001 	andmi	r0, r0, r1
     584:	1c000081 	stcne	0, cr0, [r0], {129}	; 0x81
     588:	01000000 	mrseq	r0, (UNDEF: 0)
     58c:	0002a815 	andeq	sl, r2, r5, lsl r8
     590:	016a1b00 	cmneq	sl, r0, lsl #22
     594:	00e50000 	rsceq	r0, r5, r0
     598:	5f1c0000 	svcpl	0x001c0000
     59c:	01000001 	tsteq	r0, r1
     5a0:	01561d54 	cmpeq	r6, r4, asr sp
     5a4:	1c000000 	stcne	0, cr0, [r0], {-0}
     5a8:	0000014b 	andeq	r0, r0, fp, asr #2
     5ac:	111a5601 	tstne	sl, r1, lsl #12
     5b0:	4c000001 	stcmi	0, cr0, [r0], {1}
     5b4:	10000081 	andne	r0, r0, r1, lsl #1
     5b8:	02000000 	andeq	r0, r0, #0
     5bc:	0002921a 	andeq	r9, r2, sl, lsl r2
     5c0:	01281b00 	teqeq	r8, r0, lsl #22
     5c4:	00f80000 	rscseq	r0, r8, r0
     5c8:	1d1c0000 	ldcne	0, cr0, [ip, #-0]
     5cc:	01000001 	tsteq	r0, r1
     5d0:	814c1e54 	cmphi	ip, r4, asr lr
     5d4:	00040000 	andeq	r0, r4, r0
     5d8:	321f0000 	andscc	r0, pc, #0
     5dc:	0b000001 	bleq	5e8 <_start-0x7a18>
     5e0:	00000001 	andeq	r0, r0, r1
     5e4:	814c2000 	mrshi	r2, (UNDEF: 76)
     5e8:	11150000 	tstne	r5, r0
     5ec:	01210000 	teqeq	r1, r0
     5f0:	21300151 	teqcs	r0, r1, asr r1
     5f4:	76025001 	strvc	r5, [r2], -r1
     5f8:	1a000000 	bne	600 <_start-0x7a00>
     5fc:	0000013f 	andeq	r0, r0, pc, lsr r1
     600:	00008160 	andeq	r8, r0, r0, ror #2
     604:	0000001c 	andeq	r0, r0, ip, lsl r0
     608:	032b1701 	teqeq	fp, #262144	; 0x40000
     60c:	6a1b0000 	bvs	6c0614 <__bss_end__+0x6b6ad4>
     610:	1e000001 	cdpne	0, 0, cr0, cr0, cr1, {0}
     614:	1c000001 	stcne	0, cr0, [r0], {1}
     618:	0000015f 	andeq	r0, r0, pc, asr r1
     61c:	561b5401 	ldrpl	r5, [fp], -r1, lsl #8
     620:	40000001 	andmi	r0, r0, r1
     624:	1c000001 	stcne	0, cr0, [r0], {1}
     628:	0000014b 	andeq	r0, r0, fp, asr #2
     62c:	111a5601 	tstne	sl, r1, lsl #12
     630:	6c000001 	stcvs	0, cr0, [r0], {1}
     634:	10000081 	andne	r0, r0, r1, lsl #1
     638:	02000000 	andeq	r0, r0, #0
     63c:	0003121a 	andeq	r1, r3, sl, lsl r2
     640:	01281b00 	teqeq	r8, r0, lsl #22
     644:	01710000 	cmneq	r1, r0
     648:	1d1c0000 	ldcne	0, cr0, [ip, #-0]
     64c:	01000001 	tsteq	r0, r1
     650:	816c1e54 	cmnhi	ip, r4, asr lr
     654:	00040000 	andeq	r0, r4, r0
     658:	321f0000 	andscc	r0, pc, #0
     65c:	93000001 	movwls	r0, #1
     660:	00000001 	andeq	r0, r0, r1
     664:	816c2000 	cmnhi	ip, r0
     668:	11150000 	tstne	r5, r0
     66c:	01210000 	teqeq	r1, r0
     670:	00770451 	rsbseq	r0, r7, r1, asr r4
     674:	01211a31 	teqeq	r1, r1, lsr sl
     678:	00760250 	rsbseq	r0, r6, r0, asr r2
     67c:	3f1a0000 	svccc	0x001a0000
     680:	80000001 	andhi	r0, r0, r1
     684:	1c000081 	stcne	0, cr0, [r0], {129}	; 0x81
     688:	01000000 	mrseq	r0, (UNDEF: 0)
     68c:	0003b319 	andeq	fp, r3, r9, lsl r3
     690:	016a1b00 	cmneq	sl, r0, lsl #22
     694:	01a60000 			; <UNDEFINED> instruction: 0x01a60000
     698:	5f1c0000 	svcpl	0x001c0000
     69c:	01000001 	tsteq	r0, r1
     6a0:	01561c54 	cmpeq	r6, r4, asr ip
     6a4:	77080000 	strvc	r0, [r8, -r0]
     6a8:	081a3200 	ldmdaeq	sl, {r9, ip, sp}
     6ac:	1c9f1aff 	vldmiane	pc, {s2-s256}
     6b0:	0000014b 	andeq	r0, r0, fp, asr #2
     6b4:	111a5601 	tstne	sl, r1, lsl #12
     6b8:	8c000001 	stchi	0, cr0, [r0], {1}
     6bc:	10000081 	andne	r0, r0, r1, lsl #1
     6c0:	02000000 	andeq	r0, r0, #0
     6c4:	00039a1a 	andeq	r9, r3, sl, lsl sl
     6c8:	01281b00 	teqeq	r8, r0, lsl #22
     6cc:	01cb0000 	biceq	r0, fp, r0
     6d0:	1d1c0000 	ldcne	0, cr0, [ip, #-0]
     6d4:	01000001 	tsteq	r0, r1
     6d8:	818c1e54 	orrhi	r1, ip, r4, asr lr
     6dc:	00040000 	andeq	r0, r4, r0
     6e0:	321f0000 	andscc	r0, pc, #0
     6e4:	f0000001 			; <UNDEFINED> instruction: 0xf0000001
     6e8:	00000001 	andeq	r0, r0, r1
     6ec:	818c2000 	orrhi	r2, ip, r0
     6f0:	11150000 	tstne	r5, r0
     6f4:	01210000 	teqeq	r1, r0
     6f8:	00770451 	rsbseq	r0, r7, r1, asr r4
     6fc:	01211a32 	teqeq	r1, r2, lsr sl
     700:	00760250 	rsbseq	r0, r6, r0, asr r2
     704:	3f1a0000 	svccc	0x001a0000
     708:	a0000001 	andge	r0, r0, r1
     70c:	1c000081 	stcne	0, cr0, [r0], {129}	; 0x81
     710:	01000000 	mrseq	r0, (UNDEF: 0)
     714:	00043b1b 	andeq	r3, r4, fp, lsl fp
     718:	016a1b00 	cmneq	sl, r0, lsl #22
     71c:	02030000 	andeq	r0, r3, #0
     720:	5f1c0000 	svcpl	0x001c0000
     724:	01000001 	tsteq	r0, r1
     728:	01561c54 	cmpeq	r6, r4, asr ip
     72c:	77080000 	strvc	r0, [r8, -r0]
     730:	081a3400 	ldmdaeq	sl, {sl, ip, sp}
     734:	1c9f1aff 	vldmiane	pc, {s2-s256}
     738:	0000014b 	andeq	r0, r0, fp, asr #2
     73c:	111a5601 	tstne	sl, r1, lsl #12
     740:	ac000001 	stcge	0, cr0, [r0], {1}
     744:	10000081 	andne	r0, r0, r1, lsl #1
     748:	02000000 	andeq	r0, r0, #0
     74c:	0004221a 	andeq	r2, r4, sl, lsl r2
     750:	01281b00 	teqeq	r8, r0, lsl #22
     754:	02250000 	eoreq	r0, r5, #0
     758:	1d1c0000 	ldcne	0, cr0, [ip, #-0]
     75c:	01000001 	tsteq	r0, r1
     760:	81ac1e54 			; <UNDEFINED> instruction: 0x81ac1e54
     764:	00040000 	andeq	r0, r4, r0
     768:	321f0000 	andscc	r0, pc, #0
     76c:	47000001 	strmi	r0, [r0, -r1]
     770:	00000002 	andeq	r0, r0, r2
     774:	81ac2000 			; <UNDEFINED> instruction: 0x81ac2000
     778:	11150000 	tstne	r5, r0
     77c:	01210000 	teqeq	r1, r0
     780:	00770451 	rsbseq	r0, r7, r1, asr r4
     784:	01211a34 	teqeq	r1, r4, lsr sl
     788:	00760250 	rsbseq	r0, r6, r0, asr r2
     78c:	3f1a0000 	svccc	0x001a0000
     790:	c0000001 	andgt	r0, r0, r1
     794:	1c000081 	stcne	0, cr0, [r0], {129}	; 0x81
     798:	01000000 	mrseq	r0, (UNDEF: 0)
     79c:	0004c31d 	andeq	ip, r4, sp, lsl r3
     7a0:	016a1b00 	cmneq	sl, r0, lsl #22
     7a4:	025a0000 	subseq	r0, sl, #0
     7a8:	5f1c0000 	svcpl	0x001c0000
     7ac:	01000001 	tsteq	r0, r1
     7b0:	01561c54 	cmpeq	r6, r4, asr ip
     7b4:	77080000 	strvc	r0, [r8, -r0]
     7b8:	081a3800 	ldmdaeq	sl, {fp, ip, sp}
     7bc:	1c9f1aff 	vldmiane	pc, {s2-s256}
     7c0:	0000014b 	andeq	r0, r0, fp, asr #2
     7c4:	111a5601 	tstne	sl, r1, lsl #12
     7c8:	cc000001 	stcgt	0, cr0, [r0], {1}
     7cc:	10000081 	andne	r0, r0, r1, lsl #1
     7d0:	02000000 	andeq	r0, r0, #0
     7d4:	0004aa1a 	andeq	sl, r4, sl, lsl sl
     7d8:	01281b00 	teqeq	r8, r0, lsl #22
     7dc:	027f0000 	rsbseq	r0, pc, #0
     7e0:	1d1c0000 	ldcne	0, cr0, [ip, #-0]
     7e4:	01000001 	tsteq	r0, r1
     7e8:	81cc1e54 	bichi	r1, ip, r4, asr lr
     7ec:	00040000 	andeq	r0, r4, r0
     7f0:	321f0000 	andscc	r0, pc, #0
     7f4:	a4000001 	strge	r0, [r0], #-1
     7f8:	00000002 	andeq	r0, r0, r2
     7fc:	81cc2000 	bichi	r2, ip, r0
     800:	11150000 	tstne	r5, r0
     804:	01210000 	teqeq	r1, r0
     808:	00770451 	rsbseq	r0, r7, r1, asr r4
     80c:	01211a38 	teqeq	r1, r8, lsr sl
     810:	00760250 	rsbseq	r0, r6, r0, asr r2
     814:	3f1a0000 	svccc	0x001a0000
     818:	e0000001 	and	r0, r0, r1
     81c:	1c000081 	stcne	0, cr0, [r0], {129}	; 0x81
     820:	01000000 	mrseq	r0, (UNDEF: 0)
     824:	00054b1f 	andeq	r4, r5, pc, lsl fp
     828:	016a1b00 	cmneq	sl, r0, lsl #22
     82c:	02b70000 	adcseq	r0, r7, #0
     830:	5f1c0000 	svcpl	0x001c0000
     834:	01000001 	tsteq	r0, r1
     838:	01561c54 	cmpeq	r6, r4, asr ip
     83c:	77080000 	strvc	r0, [r8, -r0]
     840:	081a4000 	ldmdaeq	sl, {lr}
     844:	1c9f1aff 	vldmiane	pc, {s2-s256}
     848:	0000014b 	andeq	r0, r0, fp, asr #2
     84c:	111a5601 	tstne	sl, r1, lsl #12
     850:	ec000001 	stc	0, cr0, [r0], {1}
     854:	10000081 	andne	r0, r0, r1, lsl #1
     858:	02000000 	andeq	r0, r0, #0
     85c:	0005321a 	andeq	r3, r5, sl, lsl r2
     860:	01281b00 	teqeq	r8, r0, lsl #22
     864:	02de0000 	sbcseq	r0, lr, #0
     868:	1d1c0000 	ldcne	0, cr0, [ip, #-0]
     86c:	01000001 	tsteq	r0, r1
     870:	81ec1e54 	mvnhi	r1, r4, asr lr
     874:	00040000 	andeq	r0, r4, r0
     878:	321f0000 	andscc	r0, pc, #0
     87c:	05000001 	streq	r0, [r0, #-1]
     880:	00000003 	andeq	r0, r0, r3
     884:	81ec2000 	mvnhi	r2, r0
     888:	11150000 	tstne	r5, r0
     88c:	01210000 	teqeq	r1, r0
     890:	00770451 	rsbseq	r0, r7, r1, asr r4
     894:	01211a40 	teqeq	r1, r0, asr #20
     898:	00760250 	rsbseq	r0, r6, r0, asr r2
     89c:	3f1a0000 	svccc	0x001a0000
     8a0:	00000001 	andeq	r0, r0, r1
     8a4:	1c000082 	stcne	0, cr0, [r0], {130}	; 0x82
     8a8:	01000000 	mrseq	r0, (UNDEF: 0)
     8ac:	0005d521 	andeq	sp, r5, r1, lsr #10
     8b0:	016a1b00 	cmneq	sl, r0, lsl #22
     8b4:	03180000 	tsteq	r8, #0
     8b8:	5f1c0000 	svcpl	0x001c0000
     8bc:	01000001 	tsteq	r0, r1
     8c0:	01561c54 	cmpeq	r6, r4, asr ip
     8c4:	77090000 	strvc	r0, [r9, -r0]
     8c8:	1a200800 	bne	8028d0 <__bss_end__+0x7f8d90>
     8cc:	9f1aff08 	svcls	0x001aff08
     8d0:	00014b1c 	andeq	r4, r1, ip, lsl fp
     8d4:	1a560100 	bne	1580cdc <__bss_end__+0x157719c>
     8d8:	00000111 	andeq	r0, r0, r1, lsl r1
     8dc:	0000820c 	andeq	r8, r0, ip, lsl #4
     8e0:	00000010 	andeq	r0, r0, r0, lsl r0
     8e4:	05bb1a02 	ldreq	r1, [fp, #2562]!	; 0xa02
     8e8:	281b0000 	ldmdacs	fp, {}	; <UNPREDICTABLE>
     8ec:	42000001 	andmi	r0, r0, #1
     8f0:	1c000003 	stcne	0, cr0, [r0], {3}
     8f4:	0000011d 	andeq	r0, r0, sp, lsl r1
     8f8:	0c1e5401 	cfldrseq	mvf5, [lr], {1}
     8fc:	04000082 	streq	r0, [r0], #-130	; 0x82
     900:	1f000000 	svcne	0x00000000
     904:	00000132 	andeq	r0, r0, r2, lsr r1
     908:	0000036c 	andeq	r0, r0, ip, ror #6
     90c:	0c200000 	stceq	0, cr0, [r0], #-0
     910:	15000082 	strne	r0, [r0, #-130]	; 0x82
     914:	21000011 	tstcs	r0, r1, lsl r0
     918:	77055101 	strvc	r5, [r5, -r1, lsl #2]
     91c:	1a200800 	bne	802924 <__bss_end__+0x7f8de4>
     920:	02500121 	subseq	r0, r0, #1073741832	; 0x40000008
     924:	00000076 	andeq	r0, r0, r6, ror r0
     928:	00013f1a 	andeq	r3, r1, sl, lsl pc
     92c:	00822000 	addeq	r2, r2, r0
     930:	00001c00 	andeq	r1, r0, r0, lsl #24
     934:	5f230100 	svcpl	0x00230100
     938:	1b000006 	blne	958 <_start-0x76a8>
     93c:	0000016a 	andeq	r0, r0, sl, ror #2
     940:	0000037f 	andeq	r0, r0, pc, ror r3
     944:	00015f1c 	andeq	r5, r1, ip, lsl pc
     948:	1c540100 	ldfnee	f0, [r4], {-0}
     94c:	00000156 	andeq	r0, r0, r6, asr r1
     950:	08007709 	stmdaeq	r0, {r0, r3, r8, r9, sl, ip, sp, lr}
     954:	ff081a40 			; <UNDEFINED> instruction: 0xff081a40
     958:	4b1c9f1a 	blmi	7285c8 <__bss_end__+0x71ea88>
     95c:	01000001 	tsteq	r0, r1
     960:	01111a56 	tsteq	r1, r6, asr sl
     964:	822c0000 	eorhi	r0, ip, #0
     968:	00100000 	andseq	r0, r0, r0
     96c:	1a020000 	bne	80974 <__bss_end__+0x76e34>
     970:	00000645 	andeq	r0, r0, r5, asr #12
     974:	0001281b 	andeq	r2, r1, fp, lsl r8
     978:	0003a100 	andeq	sl, r3, r0, lsl #2
     97c:	011d1c00 	tsteq	sp, r0, lsl #24
     980:	54010000 	strpl	r0, [r1], #-0
     984:	00822c1e 	addeq	r2, r2, lr, lsl ip
     988:	00000400 	andeq	r0, r0, r0, lsl #8
     98c:	01321f00 	teqeq	r2, r0, lsl #30
     990:	03c30000 	biceq	r0, r3, #0
     994:	00000000 	andeq	r0, r0, r0
     998:	00822c20 	addeq	r2, r2, r0, lsr #24
     99c:	00111500 	andseq	r1, r1, r0, lsl #10
     9a0:	51012100 	mrspl	r2, (UNDEF: 17)
     9a4:	08007705 	stmdaeq	r0, {r0, r2, r8, r9, sl, ip, sp, lr}
     9a8:	01211a40 	teqeq	r1, r0, asr #20
     9ac:	00760250 	rsbseq	r0, r6, r0, asr r2
     9b0:	3f1a0000 	svccc	0x001a0000
     9b4:	40000001 	andmi	r0, r0, r1
     9b8:	1c000082 	stcne	0, cr0, [r0], {130}	; 0x82
     9bc:	01000000 	mrseq	r0, (UNDEF: 0)
     9c0:	0006df25 	andeq	sp, r6, r5, lsr #30
     9c4:	016a1c00 	cmneq	sl, r0, lsl #24
     9c8:	58010000 	stmdapl	r1, {}	; <UNPREDICTABLE>
     9cc:	00015f1c 	andeq	r5, r1, ip, lsl pc
     9d0:	1b540100 	blne	1500dd8 <__bss_end__+0x14f7298>
     9d4:	00000156 	andeq	r0, r0, r6, asr r1
     9d8:	000003d6 	ldrdeq	r0, [r0], -r6
     9dc:	00014b1c 	andeq	r4, r1, ip, lsl fp
     9e0:	1a560100 	bne	1580de8 <__bss_end__+0x15772a8>
     9e4:	00000111 	andeq	r0, r0, r1, lsl r1
     9e8:	0000824c 	andeq	r8, r0, ip, asr #4
     9ec:	00000010 	andeq	r0, r0, r0, lsl r0
     9f0:	06c51a02 	strbeq	r1, [r5], r2, lsl #20
     9f4:	281c0000 	ldmdacs	ip, {}	; <UNPREDICTABLE>
     9f8:	01000001 	tsteq	r0, r1
     9fc:	011d1c58 	tsteq	sp, r8, asr ip
     a00:	54010000 	strpl	r0, [r1], #-0
     a04:	00824c1e 	addeq	r4, r2, lr, lsl ip
     a08:	00000400 	andeq	r0, r0, r0, lsl #8
     a0c:	01321f00 	teqeq	r2, r0, lsl #30
     a10:	04090000 	streq	r0, [r9], #-0
     a14:	00000000 	andeq	r0, r0, r0
     a18:	00824c20 	addeq	r4, r2, r0, lsr #24
     a1c:	00111500 	andseq	r1, r1, r0, lsl #10
     a20:	51012100 	mrspl	r2, (UNDEF: 17)
     a24:	08007705 	stmdaeq	r0, {r0, r2, r8, r9, sl, ip, sp, lr}
     a28:	01211a80 	smlawbeq	r1, r0, sl, r1
     a2c:	00760250 	rsbseq	r0, r6, r0, asr r2
     a30:	3f220000 	svccc	0x00220000
     a34:	60000001 	andvs	r0, r0, r1
     a38:	1c000082 	stcne	0, cr0, [r0], {130}	; 0x82
     a3c:	01000000 	mrseq	r0, (UNDEF: 0)
     a40:	016a1c27 	cmneq	sl, r7, lsr #24
     a44:	55010000 	strpl	r0, [r1, #-0]
     a48:	00015f1c 	andeq	r5, r1, ip, lsl pc
     a4c:	1d540100 	ldfnee	f0, [r4, #-0]
     a50:	00000156 	andeq	r0, r0, r6, asr r1
     a54:	014b1c01 	cmpeq	fp, r1, lsl #24
     a58:	56010000 	strpl	r0, [r1], -r0
     a5c:	0001111a 	andeq	r1, r1, sl, lsl r1
     a60:	00826c00 	addeq	r6, r2, r0, lsl #24
     a64:	00001000 	andeq	r1, r0, r0
     a68:	3e1a0200 	cdpcc	2, 1, cr0, cr10, cr0, {0}
     a6c:	1c000007 	stcne	0, cr0, [r0], {7}
     a70:	00000128 	andeq	r0, r0, r8, lsr #2
     a74:	1d1c5501 	cfldr32ne	mvfx5, [ip, #-4]
     a78:	01000001 	tsteq	r0, r1
     a7c:	826c1e54 	rsbhi	r1, ip, #84, 28	; 0x540
     a80:	00040000 	andeq	r0, r4, r0
     a84:	321f0000 	andscc	r0, pc, #0
     a88:	1c000001 	stcne	0, cr0, [r0], {1}
     a8c:	00000004 	andeq	r0, r0, r4
     a90:	826c2000 	rsbhi	r2, ip, #0
     a94:	11150000 	tstne	r5, r0
     a98:	01210000 	teqeq	r1, r0
     a9c:	21310151 	teqcs	r1, r1, asr r1
     aa0:	76025001 	strvc	r5, [r2], -r1
     aa4:	00000000 	andeq	r0, r0, r0
     aa8:	00d90406 	sbcseq	r0, r9, r6, lsl #8
     aac:	22230000 	eorcs	r0, r3, #0
     ab0:	01000003 	tsteq	r0, r3
     ab4:	0000252b 	andeq	r2, r0, fp, lsr #10
     ab8:	07950300 	ldreq	r0, [r5, r0, lsl #6]
     abc:	720f0000 	andvc	r0, pc, #0
     ac0:	2b010078 	blcs	40ca8 <__bss_end__+0x37168>
     ac4:	00000025 	andeq	r0, r0, r5, lsr #32
     ac8:	0100760f 	tsteq	r0, pc, lsl #12
     acc:	0000252b 	andeq	r2, r0, fp, lsr #10
     ad0:	02450e00 	subeq	r0, r5, #0, 28
     ad4:	2b010000 	blcs	40adc <__bss_end__+0x36f9c>
     ad8:	0000002c 	andeq	r0, r0, ip, lsr #32
     adc:	00049a11 	andeq	r9, r4, r1, lsl sl
     ae0:	2c2c0100 	stfcss	f0, [ip], #-0
     ae4:	00000000 	andeq	r0, r0, r0
     ae8:	0001f024 	andeq	pc, r1, r4, lsr #32
     aec:	25380100 	ldrcs	r0, [r8, #-256]!	; 0x100
     af0:	80000000 	andhi	r0, r0, r0
     af4:	c8000082 	stmdagt	r0, {r1, r7}
     af8:	01000001 	tsteq	r0, r1
     afc:	000b519c 	muleq	fp, ip, r1
     b00:	01cf1300 	biceq	r1, pc, r0, lsl #6
     b04:	38010000 	stmdacc	r1, {}	; <UNPREDICTABLE>
     b08:	00000755 	andeq	r0, r0, r5, asr r7
     b0c:	0000042f 	andeq	r0, r0, pc, lsr #8
     b10:	00024513 	andeq	r4, r2, r3, lsl r5
     b14:	25380100 	ldrcs	r0, [r8, #-256]!	; 0x100
     b18:	74000000 	strvc	r0, [r0], #-0
     b1c:	15000004 	strne	r0, [r0, #-4]
     b20:	01007872 	tsteq	r0, r2, ror r8
     b24:	00002539 	andeq	r2, r0, r9, lsr r5
     b28:	16550100 	ldrbne	r0, [r5], -r0, lsl #2
     b2c:	40010073 	andmi	r0, r1, r3, ror r0
     b30:	0000002c 	andeq	r0, r0, ip, lsr #32
     b34:	00000492 	muleq	r0, r2, r4
     b38:	01007516 	tsteq	r0, r6, lsl r5
     b3c:	00006843 	andeq	r6, r0, r3, asr #16
     b40:	0004a500 	andeq	sl, r4, r0, lsl #10
     b44:	006e1600 	rsbeq	r1, lr, r0, lsl #12
     b48:	002c4401 	eoreq	r4, ip, r1, lsl #8
     b4c:	04b80000 	ldrteq	r0, [r8], #0
     b50:	63160000 	tstvs	r6, #0
     b54:	2c450100 	stfcse	f0, [r5], {-0}
     b58:	cf000000 	svcgt	0x00000000
     b5c:	1a000004 	bne	b74 <_start-0x748c>
     b60:	0000075b 	andeq	r0, r0, fp, asr r7
     b64:	00008294 	muleq	r0, r4, r2
     b68:	00000034 	andeq	r0, r0, r4, lsr r0
     b6c:	086f3c01 	stmdaeq	pc!, {r0, sl, fp, ip, sp}^	; <UNPREDICTABLE>
     b70:	7e1b0000 	cdpvc	0, 1, cr0, cr11, cr0, {0}
     b74:	f9000007 			; <UNDEFINED> instruction: 0xf9000007
     b78:	1d000004 	stcne	0, cr0, [r0, #-16]
     b7c:	00000775 	andeq	r0, r0, r5, ror r7
     b80:	076b1c00 	strbeq	r1, [fp, -r0, lsl #24]!
     b84:	55010000 	strpl	r0, [r1, #-0]
     b88:	0082941e 	addeq	r9, r2, lr, lsl r4
     b8c:	00003400 	andeq	r3, r0, r0, lsl #8
     b90:	07891f00 	streq	r1, [r9, r0, lsl #30]
     b94:	05170000 	ldreq	r0, [r7, #-0]
     b98:	98250000 	stmdals	r5!, {}	; <UNPREDICTABLE>
     b9c:	2b000082 	blcs	dac <_start-0x7254>
     ba0:	26000011 			; <UNDEFINED> instruction: 0x26000011
     ba4:	000082a4 	andeq	r8, r0, r4, lsr #5
     ba8:	00001136 	andeq	r1, r0, r6, lsr r1
     bac:	00000864 	andeq	r0, r0, r4, ror #16
     bb0:	02500121 	subseq	r0, r0, #1073741832	; 0x40000008
     bb4:	25000075 	strcs	r0, [r0, #-117]	; 0x75
     bb8:	000082b0 			; <UNDEFINED> instruction: 0x000082b0
     bbc:	0000112b 	andeq	r1, r0, fp, lsr #2
     bc0:	d0190000 	andsle	r0, r9, r0
     bc4:	04000082 	streq	r0, [r0], #-130	; 0x82
     bc8:	8c000000 	stchi	0, cr0, [r0], {-0}
     bcc:	27000008 	strcs	r0, [r0, -r8]
     bd0:	000002b0 			; <UNDEFINED> instruction: 0x000002b0
     bd4:	002c4001 	eoreq	r4, ip, r1
     bd8:	05350000 	ldreq	r0, [r5, #-0]!
     bdc:	1a000000 	bne	be4 <_start-0x741c>
     be0:	00000111 	andeq	r0, r0, r1, lsl r1
     be4:	000082dc 	ldrdeq	r8, [r0], -ip
     be8:	00000010 	andeq	r0, r0, r0, lsl r0
     bec:	08c54801 	stmiaeq	r5, {r0, fp, lr}^
     bf0:	281b0000 	ldmdacs	fp, {}	; <UNPREDICTABLE>
     bf4:	48000001 	stmdami	r0, {r0}
     bf8:	1b000005 	blne	c14 <_start-0x73ec>
     bfc:	0000011d 	andeq	r0, r0, sp, lsl r1
     c00:	0000056d 	andeq	r0, r0, sp, ror #10
     c04:	0082dc1e 	addeq	sp, r2, lr, lsl ip
     c08:	00000400 	andeq	r0, r0, r0, lsl #8
     c0c:	01321f00 	teqeq	r2, r0, lsl #30
     c10:	05800000 	streq	r0, [r0]
     c14:	00000000 	andeq	r0, r0, r0
     c18:	0001111a 	andeq	r1, r1, sl, lsl r1
     c1c:	0082fc00 	addeq	pc, r2, r0, lsl #24
     c20:	00001000 	andeq	r1, r0, r0
     c24:	fe4c0100 	cdp2	1, 4, cr0, cr12, cr0, {0}
     c28:	1b000008 	blne	c50 <_start-0x73b0>
     c2c:	00000128 	andeq	r0, r0, r8, lsr #2
     c30:	00000593 	muleq	r0, r3, r5
     c34:	00011d1b 	andeq	r1, r1, fp, lsl sp
     c38:	0005a600 	andeq	sl, r5, r0, lsl #12
     c3c:	82fc1e00 	rscshi	r1, ip, #0, 28
     c40:	00040000 	andeq	r0, r4, r0
     c44:	321f0000 	andscc	r0, pc, #0
     c48:	b9000001 	stmdblt	r0, {r0}
     c4c:	00000005 	andeq	r0, r0, r5
     c50:	01111a00 	tsteq	r1, r0, lsl #20
     c54:	83200000 	teqhi	r0, #0
     c58:	00100000 	andseq	r0, r0, r0
     c5c:	4f010000 	svcmi	0x00010000
     c60:	00000937 	andeq	r0, r0, r7, lsr r9
     c64:	0001281b 	andeq	r2, r1, fp, lsl r8
     c68:	0005cc00 	andeq	ip, r5, r0, lsl #24
     c6c:	011d1b00 	tsteq	sp, r0, lsl #22
     c70:	05df0000 	ldrbeq	r0, [pc]	; c78 <_start-0x7388>
     c74:	201e0000 	andscs	r0, lr, r0
     c78:	04000083 	streq	r0, [r0], #-131	; 0x83
     c7c:	1f000000 	svcne	0x00000000
     c80:	00000132 	andeq	r0, r0, r2, lsr r1
     c84:	000005f2 	strdeq	r0, [r0], -r2
     c88:	111a0000 	tstne	sl, r0
     c8c:	44000001 	strmi	r0, [r0], #-1
     c90:	10000083 	andne	r0, r0, r3, lsl #1
     c94:	01000000 	mrseq	r0, (UNDEF: 0)
     c98:	00097052 	andeq	r7, r9, r2, asr r0
     c9c:	01281b00 	teqeq	r8, r0, lsl #22
     ca0:	06050000 	streq	r0, [r5], -r0
     ca4:	1d1b0000 	ldcne	0, cr0, [fp, #-0]
     ca8:	18000001 	stmdane	r0, {r0}
     cac:	1e000006 	cdpne	0, 0, cr0, cr0, cr6, {0}
     cb0:	00008344 	andeq	r8, r0, r4, asr #6
     cb4:	00000004 	andeq	r0, r0, r4
     cb8:	0001321f 	andeq	r3, r1, pc, lsl r2
     cbc:	00062b00 	andeq	r2, r6, r0, lsl #22
     cc0:	1a000000 	bne	cc8 <_start-0x7338>
     cc4:	00000111 	andeq	r0, r0, r1, lsl r1
     cc8:	00008368 	andeq	r8, r0, r8, ror #6
     ccc:	00000010 	andeq	r0, r0, r0, lsl r0
     cd0:	09a95501 	stmibeq	r9!, {r0, r8, sl, ip, lr}
     cd4:	281b0000 	ldmdacs	fp, {}	; <UNPREDICTABLE>
     cd8:	3e000001 	cdpcc	0, 0, cr0, cr0, cr1, {0}
     cdc:	1b000006 	blne	cfc <_start-0x7304>
     ce0:	0000011d 	andeq	r0, r0, sp, lsl r1
     ce4:	00000651 	andeq	r0, r0, r1, asr r6
     ce8:	0083681e 	addeq	r6, r3, lr, lsl r8
     cec:	00000400 	andeq	r0, r0, r0, lsl #8
     cf0:	01321f00 	teqeq	r2, r0, lsl #30
     cf4:	06640000 	strbteq	r0, [r4], -r0
     cf8:	00000000 	andeq	r0, r0, r0
     cfc:	0001111a 	andeq	r1, r1, sl, lsl r1
     d00:	00838c00 	addeq	r8, r3, r0, lsl #24
     d04:	00001000 	andeq	r1, r0, r0
     d08:	e2580100 	subs	r0, r8, #0, 2
     d0c:	1b000009 	blne	d38 <_start-0x72c8>
     d10:	00000128 	andeq	r0, r0, r8, lsr #2
     d14:	00000677 	andeq	r0, r0, r7, ror r6
     d18:	00011d1b 	andeq	r1, r1, fp, lsl sp
     d1c:	00068a00 	andeq	r8, r6, r0, lsl #20
     d20:	838c1e00 	orrhi	r1, ip, #0, 28
     d24:	00040000 	andeq	r0, r4, r0
     d28:	321f0000 	andscc	r0, pc, #0
     d2c:	9d000001 	stcls	0, cr0, [r0, #-4]
     d30:	00000006 	andeq	r0, r0, r6
     d34:	01111a00 	tsteq	r1, r0, lsl #20
     d38:	83b00000 	movshi	r0, #0
     d3c:	00100000 	andseq	r0, r0, r0
     d40:	5b010000 	blpl	40d48 <__bss_end__+0x37208>
     d44:	00000a1b 	andeq	r0, r0, fp, lsl sl
     d48:	0001281b 	andeq	r2, r1, fp, lsl r8
     d4c:	0006b000 	andeq	fp, r6, r0
     d50:	011d1b00 	tsteq	sp, r0, lsl #22
     d54:	06c30000 	strbeq	r0, [r3], r0
     d58:	b01e0000 	andslt	r0, lr, r0
     d5c:	04000083 	streq	r0, [r0], #-131	; 0x83
     d60:	1f000000 	svcne	0x00000000
     d64:	00000132 	andeq	r0, r0, r2, lsr r1
     d68:	000006d6 	ldrdeq	r0, [r0], -r6
     d6c:	111a0000 	tstne	sl, r0
     d70:	d4000001 	strle	r0, [r0], #-1
     d74:	10000083 	andne	r0, r0, r3, lsl #1
     d78:	01000000 	mrseq	r0, (UNDEF: 0)
     d7c:	000a505e 	andeq	r5, sl, lr, asr r0
     d80:	01281b00 	teqeq	r8, r0, lsl #22
     d84:	06e90000 	strbteq	r0, [r9], r0
     d88:	1d280000 	stcne	0, cr0, [r8, #-0]
     d8c:	1e000001 	cdpne	0, 0, cr0, cr0, cr1, {0}
     d90:	000083d4 	ldrdeq	r8, [r0], -r4
     d94:	00000004 	andeq	r0, r0, r4
     d98:	0001321f 	andeq	r3, r1, pc, lsl r2
     d9c:	0006fc00 	andeq	pc, r6, r0, lsl #24
     da0:	1a000000 	bne	da8 <_start-0x7258>
     da4:	0000075b 	andeq	r0, r0, fp, asr r7
     da8:	000083f4 	strdeq	r8, [r0], -r4
     dac:	00000034 	andeq	r0, r0, r4, lsr r0
     db0:	0ab46501 	beq	fed1a1bc <__bss_end__+0xfed1067c>
     db4:	7e280000 	cdpvc	0, 2, cr0, cr8, cr0, {0}
     db8:	1b000007 	blne	ddc <_start-0x7224>
     dbc:	00000775 	andeq	r0, r0, r5, ror r7
     dc0:	0000070f 	andeq	r0, r0, pc, lsl #14
     dc4:	00076b1b 	andeq	r6, r7, fp, lsl fp
     dc8:	00072f00 	andeq	r2, r7, r0, lsl #30
     dcc:	83f41e00 	mvnshi	r1, #0, 28
     dd0:	00340000 	eorseq	r0, r4, r0
     dd4:	891f0000 	ldmdbhi	pc, {}	; <UNPREDICTABLE>
     dd8:	4d000007 	stcmi	0, cr0, [r0, #-28]	; 0xffffffe4
     ddc:	25000007 	strcs	r0, [r0, #-7]
     de0:	000083f8 	strdeq	r8, [r0], -r8	; <UNPREDICTABLE>
     de4:	0000112b 	andeq	r1, r0, fp, lsr #2
     de8:	00840426 	addeq	r0, r4, r6, lsr #8
     dec:	00113600 	andseq	r3, r1, r0, lsl #12
     df0:	000aa900 	andeq	sl, sl, r0, lsl #18
     df4:	50012100 	andpl	r2, r1, r0, lsl #2
     df8:	00007502 	andeq	r7, r0, r2, lsl #10
     dfc:	00841025 	addeq	r1, r4, r5, lsr #32
     e00:	00112b00 	andseq	r2, r1, r0, lsl #22
     e04:	26000000 	strcs	r0, [r0], -r0
     e08:	000082f8 	strdeq	r8, [r0], -r8	; <UNPREDICTABLE>
     e0c:	00001136 	andeq	r1, r0, r6, lsr r1
     e10:	00000ac8 	andeq	r0, r0, r8, asr #21
     e14:	02500121 	subseq	r0, r0, #1073741832	; 0x40000008
     e18:	26000075 			; <UNDEFINED> instruction: 0x26000075
     e1c:	00008318 	andeq	r8, r0, r8, lsl r3
     e20:	00001136 	andeq	r1, r0, r6, lsr r1
     e24:	00000adc 	ldrdeq	r0, [r0], -ip
     e28:	02500121 	subseq	r0, r0, #1073741832	; 0x40000008
     e2c:	26000075 			; <UNDEFINED> instruction: 0x26000075
     e30:	0000833c 	andeq	r8, r0, ip, lsr r3
     e34:	00001136 	andeq	r1, r0, r6, lsr r1
     e38:	00000af0 	strdeq	r0, [r0], -r0	; <UNPREDICTABLE>
     e3c:	02500121 	subseq	r0, r0, #1073741832	; 0x40000008
     e40:	26000075 			; <UNDEFINED> instruction: 0x26000075
     e44:	00008360 	andeq	r8, r0, r0, ror #6
     e48:	00001136 	andeq	r1, r0, r6, lsr r1
     e4c:	00000b04 	andeq	r0, r0, r4, lsl #22
     e50:	02500121 	subseq	r0, r0, #1073741832	; 0x40000008
     e54:	26000075 			; <UNDEFINED> instruction: 0x26000075
     e58:	00008384 	andeq	r8, r0, r4, lsl #7
     e5c:	00001136 	andeq	r1, r0, r6, lsr r1
     e60:	00000b18 	andeq	r0, r0, r8, lsl fp
     e64:	02500121 	subseq	r0, r0, #1073741832	; 0x40000008
     e68:	26000075 			; <UNDEFINED> instruction: 0x26000075
     e6c:	000083a8 	andeq	r8, r0, r8, lsr #7
     e70:	00001136 	andeq	r1, r0, r6, lsr r1
     e74:	00000b2c 	andeq	r0, r0, ip, lsr #22
     e78:	02500121 	subseq	r0, r0, #1073741832	; 0x40000008
     e7c:	26000075 			; <UNDEFINED> instruction: 0x26000075
     e80:	000083cc 	andeq	r8, r0, ip, asr #7
     e84:	00001136 	andeq	r1, r0, r6, lsr r1
     e88:	00000b40 	andeq	r0, r0, r0, asr #22
     e8c:	02500121 	subseq	r0, r0, #1073741832	; 0x40000008
     e90:	20000075 	andcs	r0, r0, r5, ror r0
     e94:	000083ec 	andeq	r8, r0, ip, ror #7
     e98:	00001136 	andeq	r1, r0, r6, lsr r1
     e9c:	02500121 	subseq	r0, r0, #1073741832	; 0x40000008
     ea0:	00000075 	andeq	r0, r0, r5, ror r0
     ea4:	00020524 	andeq	r0, r2, r4, lsr #10
     ea8:	25700100 	ldrbcs	r0, [r0, #-256]!	; 0x100
     eac:	48000000 	stmdami	r0, {}	; <UNPREDICTABLE>
     eb0:	8c000084 	stchi	0, cr0, [r0], {132}	; 0x84
     eb4:	01000000 	mrseq	r0, (UNDEF: 0)
     eb8:	000c2c9c 	muleq	ip, ip, ip
     ebc:	00751400 	rsbseq	r1, r5, r0, lsl #8
     ec0:	07557001 	ldrbeq	r7, [r5, -r1]
     ec4:	076b0000 	strbeq	r0, [fp, -r0]!
     ec8:	62140000 	andsvs	r0, r4, #0
     ecc:	01006675 	tsteq	r0, r5, ror r6
     ed0:	000c2c70 	andeq	r2, ip, r0, ror ip
     ed4:	00079f00 	andeq	r9, r7, r0, lsl #30
     ed8:	02c81300 	sbceq	r1, r8, #0, 6
     edc:	70010000 	andvc	r0, r1, r0
     ee0:	00000068 	andeq	r0, r0, r8, rrx
     ee4:	000007d3 	ldrdeq	r0, [r0], -r3
     ee8:	646e6514 	strbtvs	r6, [lr], #-1300	; 0x514
     eec:	4f700100 	svcmi	0x00700100
     ef0:	0c000000 	stceq	0, cr0, [r0], {-0}
     ef4:	29000008 	stmdbcs	r0, {r3}
     ef8:	000002da 	ldrdeq	r0, [r0], -sl
     efc:	00687001 	rsbeq	r7, r8, r1
     f00:	91020000 	mrsls	r0, (UNDEF: 2)
     f04:	00e92a00 	rsceq	r2, r9, r0, lsl #20
     f08:	0c420000 	mareq	acc0, r0, r2
     f0c:	03050000 	movweq	r0, #20480	; 0x5000
     f10:	000094f0 	strdeq	r9, [r0], -r0
     f14:	01006916 	tsteq	r0, r6, lsl r9
     f18:	00002574 	andeq	r2, r0, r4, ror r5
     f1c:	00084600 	andeq	r4, r8, r0, lsl #12
     f20:	02992700 	addseq	r2, r9, #0, 14
     f24:	75010000 	strvc	r0, [r1, #-0]
     f28:	0000004f 	andeq	r0, r0, pc, asr #32
     f2c:	00000865 	andeq	r0, r0, r5, ror #16
     f30:	00847826 	addeq	r7, r4, r6, lsr #16
     f34:	00114b00 	andseq	r4, r1, r0, lsl #22
     f38:	000c0c00 	andeq	r0, ip, r0, lsl #24
     f3c:	53012100 	movwpl	r2, #4352	; 0x1100
     f40:	21710802 	cmncs	r1, r2, lsl #16
     f44:	03055201 	movweq	r5, #20993	; 0x5201
     f48:	000094f0 	strdeq	r9, [r0], -r0
     f4c:	05510121 	ldrbeq	r0, [r1, #-289]	; 0x121
     f50:	00958403 	addseq	r8, r5, r3, lsl #8
     f54:	50012100 	andpl	r2, r1, r0, lsl #2
     f58:	95680305 	strbls	r0, [r8, #-773]!	; 0x305
     f5c:	25000000 	strcs	r0, [r0, #-0]
     f60:	0000847c 	andeq	r8, r0, ip, ror r4
     f64:	00001161 	andeq	r1, r0, r1, ror #2
     f68:	00849820 	addeq	r9, r4, r0, lsr #16
     f6c:	00079500 	andeq	r9, r7, r0, lsl #10
     f70:	51012100 	mrspl	r2, (UNDEF: 17)
     f74:	21007a02 	tstcs	r0, r2, lsl #20
     f78:	78025001 	stmdavc	r2, {r0, ip, lr}
     f7c:	06000000 	streq	r0, [r0], -r0
     f80:	00004f04 	andeq	r4, r0, r4, lsl #30
     f84:	00902b00 	addseq	r2, r0, r0, lsl #22
     f88:	0c420000 	mareq	acc0, r0, r2
     f8c:	812c0000 	teqhi	ip, r0
     f90:	12000000 	andne	r0, r0, #0
     f94:	0c320700 	ldceq	7, cr0, [r2], #-0
     f98:	48240000 	stmdami	r4!, {}	; <UNPREDICTABLE>
     f9c:	01000001 	tsteq	r0, r1
     fa0:	00002584 	andeq	r2, r0, r4, lsl #11
     fa4:	0084d400 	addeq	sp, r4, r0, lsl #8
     fa8:	00007800 	andeq	r7, r0, r0, lsl #16
     fac:	059c0100 	ldreq	r0, [ip, #256]	; 0x100
     fb0:	1400000d 	strne	r0, [r0], #-13
     fb4:	84010075 	strhi	r0, [r1], #-117	; 0x75
     fb8:	00000755 	andeq	r0, r0, r5, asr r7
     fbc:	00000878 	andeq	r0, r0, r8, ror r8
     fc0:	66756214 			; <UNDEFINED> instruction: 0x66756214
     fc4:	2c840100 	stfcss	f0, [r4], {0}
     fc8:	ac00000c 	stcge	0, cr0, [r0], {12}
     fcc:	13000008 	movwne	r0, #8
     fd0:	000002c8 	andeq	r0, r0, r8, asr #5
     fd4:	00688501 	rsbeq	r8, r8, r1, lsl #10
     fd8:	08e00000 	stmiaeq	r0!, {}^	; <UNPREDICTABLE>
     fdc:	da130000 	ble	4c0fe4 <__bss_end__+0x4b74a4>
     fe0:	01000002 	tsteq	r0, r2
     fe4:	00006885 	andeq	r6, r0, r5, lsl #17
     fe8:	00091900 	andeq	r1, r9, r0, lsl #18
     fec:	00e92a00 	rsceq	r2, r9, r0, lsl #20
     ff0:	0d150000 	ldceq	0, cr0, [r5, #-0]
     ff4:	03050000 	movweq	r0, #20480	; 0x5000
     ff8:	00009504 	andeq	r9, r0, r4, lsl #10
     ffc:	01006916 	tsteq	r0, r6, lsl r9
    1000:	0000258a 	andeq	r2, r0, sl, lsl #11
    1004:	00094d00 	andeq	r4, r9, r0, lsl #26
    1008:	85002600 	strhi	r2, [r0, #-1536]	; 0x600
    100c:	114b0000 	mrsne	r0, (UNDEF: 75)
    1010:	0ce50000 	stcleq	0, cr0, [r5]
    1014:	01210000 	teqeq	r1, r0
    1018:	87080253 	smlsdhi	r8, r3, r2, r0
    101c:	05520121 	ldrbeq	r0, [r2, #-289]	; 0x121
    1020:	00950403 	addseq	r0, r5, r3, lsl #8
    1024:	51012100 	mrspl	r2, (UNDEF: 17)
    1028:	95840305 	strls	r0, [r4, #773]	; 0x305
    102c:	01210000 	teqeq	r1, r0
    1030:	68030550 	stmdavs	r3, {r4, r6, r8, sl}
    1034:	00000095 	muleq	r0, r5, r0
    1038:	00850425 	addeq	r0, r5, r5, lsr #8
    103c:	00116100 	andseq	r6, r1, r0, lsl #2
    1040:	85202000 	strhi	r2, [r0, #-0]!
    1044:	07950000 	ldreq	r0, [r5, r0]
    1048:	01210000 	teqeq	r1, r0
    104c:	00780251 	rsbseq	r0, r8, r1, asr r2
    1050:	02500121 	subseq	r0, r0, #1073741832	; 0x40000008
    1054:	00000077 	andeq	r0, r0, r7, ror r0
    1058:	0000902b 	andeq	r9, r0, fp, lsr #32
    105c:	000d1500 	andeq	r1, sp, r0, lsl #10
    1060:	00812c00 	addeq	r2, r1, r0, lsl #24
    1064:	00140000 	andseq	r0, r4, r0
    1068:	000d0507 	andeq	r0, sp, r7, lsl #10
    106c:	00152400 	andseq	r2, r5, r0, lsl #8
    1070:	97010000 	strls	r0, [r1, -r0]
    1074:	000000d9 	ldrdeq	r0, [r0], -r9
    1078:	0000854c 	andeq	r8, r0, ip, asr #10
    107c:	000000b0 	strheq	r0, [r0], -r0	; <UNPREDICTABLE>
    1080:	0e139c01 	cdpeq	12, 1, cr9, cr3, cr1, {0}
    1084:	74140000 	ldrvc	r0, [r4], #-0
    1088:	97010078 	smlsdxls	r1, r8, r0, r0
    108c:	0000004f 	andeq	r0, r0, pc, asr #32
    1090:	0000096c 	andeq	r0, r0, ip, ror #18
    1094:	00787214 	rsbseq	r7, r8, r4, lsl r2
    1098:	004f9701 	subeq	r9, pc, r1, lsl #14
    109c:	098d0000 	stmibeq	sp, {}	; <UNPREDICTABLE>
    10a0:	15130000 	ldrne	r0, [r3, #-0]
    10a4:	01000001 	tsteq	r0, r1
    10a8:	00006897 	muleq	r0, r7, r8
    10ac:	0009ae00 	andeq	sl, r9, r0, lsl #28
    10b0:	01d42900 	bicseq	r2, r4, r0, lsl #18
    10b4:	97010000 	strls	r0, [r1, -r0]
    10b8:	00000068 	andeq	r0, r0, r8, rrx
    10bc:	2d009102 	stfcsd	f1, [r0, #-8]
    10c0:	007a686d 	rsbseq	r6, sl, sp, ror #16
    10c4:	002c9f01 	eoreq	r9, ip, r1, lsl #30
    10c8:	27000000 	strcs	r0, [r0, -r0]
    10cc:	2f2729b9 	svccs	0x002729b9
    10d0:	01000002 	tsteq	r0, r2
    10d4:	00002ca0 	andeq	r2, r0, r0, lsr #25
    10d8:	0009cc00 	andeq	ip, r9, r0, lsl #24
    10dc:	00e92a00 	rsceq	r2, r9, r0, lsl #20
    10e0:	0e230000 	cdpeq	0, 2, cr0, cr3, cr0, {0}
    10e4:	03050000 	movweq	r0, #20480	; 0x5000
    10e8:	0000951c 	andeq	r9, r0, ip, lsl r5
    10ec:	00857419 	addeq	r7, r5, r9, lsl r4
    10f0:	00000800 	andeq	r0, r0, r0, lsl #16
    10f4:	000db200 	andeq	fp, sp, r0, lsl #4
    10f8:	6e692e00 	cdpvs	14, 6, cr2, cr9, cr0, {0}
    10fc:	2c9b0100 	ldfcss	f0, [fp], {0}
    1100:	01000000 	mrseq	r0, (UNDEF: 0)
    1104:	856c2600 	strbhi	r2, [ip, #-1536]!	; 0x600
    1108:	11680000 	cmnne	r8, r0
    110c:	0dc60000 	stcleq	0, cr0, [r6]
    1110:	01210000 	teqeq	r1, r0
    1114:	00780250 	rsbseq	r0, r8, r0, asr r2
    1118:	85742600 	ldrbhi	r2, [r4, #-1536]!	; 0x600
    111c:	11790000 	cmnne	r9, r0
    1120:	0dda0000 	ldcleq	0, cr0, [sl]
    1124:	01210000 	teqeq	r1, r0
    1128:	00770250 	rsbseq	r0, r7, r0, asr r2
    112c:	85d02600 	ldrbhi	r2, [r0, #1536]	; 0x600
    1130:	114b0000 	mrsne	r0, (UNDEF: 75)
    1134:	0e090000 	cdpeq	0, 0, cr0, cr9, cr0, {0}
    1138:	01210000 	teqeq	r1, r0
    113c:	a1080253 	tstge	r8, r3, asr r2
    1140:	05520121 	ldrbeq	r0, [r2, #-289]	; 0x121
    1144:	00951c03 	addseq	r1, r5, r3, lsl #24
    1148:	51012100 	mrspl	r2, (UNDEF: 17)
    114c:	95840305 	strls	r0, [r4, #773]	; 0x305
    1150:	01210000 	teqeq	r1, r0
    1154:	90030550 	andls	r0, r3, r0, asr r5
    1158:	00000095 	muleq	r0, r5, r0
    115c:	0085d425 	addeq	sp, r5, r5, lsr #8
    1160:	00116100 	andseq	r6, r1, r0, lsl #2
    1164:	902b0000 	eorls	r0, fp, r0
    1168:	23000000 	movwcs	r0, #0
    116c:	2c00000e 	stccs	0, cr0, [r0], {14}
    1170:	00000081 	andeq	r0, r0, r1, lsl #1
    1174:	13070013 	movwne	r0, #28691	; 0x7013
    1178:	2400000e 	strcs	r0, [r0], #-14
    117c:	00000222 	andeq	r0, r0, r2, lsr #4
    1180:	0025ad01 	eoreq	sl, r5, r1, lsl #26
    1184:	85fc0000 	ldrbhi	r0, [ip, #0]!
    1188:	00380000 	eorseq	r0, r8, r0
    118c:	9c010000 	stcls	0, cr0, [r1], {-0}
    1190:	00000ec2 	andeq	r0, r0, r2, asr #29
    1194:	0001cf13 	andeq	ip, r1, r3, lsl pc
    1198:	55ad0100 	strpl	r0, [sp, #256]!	; 0x100
    119c:	fa000007 	blx	11c0 <_start-0x6e40>
    11a0:	16000009 	strne	r0, [r0], -r9
    11a4:	00736572 	rsbseq	r6, r3, r2, ror r5
    11a8:	0025ae01 	eoreq	sl, r5, r1, lsl #28
    11ac:	0a1b0000 	beq	6c11b4 <__bss_end__+0x6b7674>
    11b0:	e92a0000 	stmdb	sl!, {}	; <UNPREDICTABLE>
    11b4:	d2000000 	andle	r0, r0, #0
    11b8:	0500000e 	streq	r0, [r0, #-14]
    11bc:	00953003 	addseq	r3, r5, r3
    11c0:	86082600 	strhi	r2, [r8], -r0, lsl #12
    11c4:	07950000 	ldreq	r0, [r5, r0]
    11c8:	0e890000 	cdpeq	0, 8, cr0, cr9, cr0, {0}
    11cc:	01210000 	teqeq	r1, r0
    11d0:	ff090251 			; <UNDEFINED> instruction: 0xff090251
    11d4:	03500121 	cmpeq	r0, #1073741832	; 0x40000008
    11d8:	005001f3 	ldrsheq	r0, [r0], #-19	; 0xffffffed
    11dc:	00862426 	addeq	r2, r6, r6, lsr #8
    11e0:	00114b00 	andseq	r4, r1, r0, lsl #22
    11e4:	000eb800 	andeq	fp, lr, r0, lsl #16
    11e8:	53012100 	movwpl	r2, #4352	; 0x1100
    11ec:	21b00802 	lslscs	r0, r2, #16
    11f0:	03055201 	movweq	r5, #20993	; 0x5201
    11f4:	00009530 	andeq	r9, r0, r0, lsr r5
    11f8:	05510121 	ldrbeq	r0, [r1, #-289]	; 0x121
    11fc:	00958403 	addseq	r8, r5, r3, lsl #8
    1200:	50012100 	andpl	r2, r1, r0, lsl #2
    1204:	95d40305 	ldrbls	r0, [r4, #773]	; 0x305
    1208:	25000000 	strcs	r0, [r0, #-0]
    120c:	00008628 	andeq	r8, r0, r8, lsr #12
    1210:	00001161 	andeq	r1, r0, r1, ror #2
    1214:	00902b00 	addseq	r2, r0, r0, lsl #22
    1218:	0ed20000 	cdpeq	0, 13, cr0, cr2, cr0, {0}
    121c:	812c0000 	teqhi	ip, r0
    1220:	0c000000 	stceq	0, cr0, [r0], {-0}
    1224:	0ec20700 	cdpeq	7, 12, cr0, cr2, cr0, {0}
    1228:	5f120000 	svcpl	0x00120000
    122c:	01000002 	tsteq	r0, r2
    1230:	008634b4 			; <UNDEFINED> instruction: 0x008634b4
    1234:	00002c00 	andeq	r2, r0, r0, lsl #24
    1238:	1b9c0100 	blne	fe701640 <__bss_end__+0xfe6f7b00>
    123c:	1300000f 	movwne	r0, #15
    1240:	000001cf 	andeq	r0, r0, pc, asr #3
    1244:	0755b401 	ldrbeq	fp, [r5, -r1, lsl #8]
    1248:	0a2e0000 	beq	b81250 <__bss_end__+0xb77710>
    124c:	6d140000 	ldcvs	0, cr0, [r4, #-0]
    1250:	01006773 	tsteq	r0, r3, ror r7
    1254:	000097b4 			; <UNDEFINED> instruction: 0x000097b4
    1258:	000a4c00 	andeq	r4, sl, r0, lsl #24
    125c:	864c2000 	strbhi	r2, [ip], -r0
    1260:	01760000 	cmneq	r6, r0
    1264:	01210000 	teqeq	r1, r0
    1268:	00750250 	rsbseq	r0, r5, r0, asr r2
    126c:	76240000 	strtvc	r0, [r4], -r0
    1270:	01000002 	tsteq	r0, r2
    1274:	000025bd 			; <UNDEFINED> instruction: 0x000025bd
    1278:	00866000 	addeq	r6, r6, r0
    127c:	00008000 	andeq	r8, r0, r0
    1280:	069c0100 	ldreq	r0, [ip], r0, lsl #2
    1284:	13000010 	movwne	r0, #16
    1288:	000001cf 	andeq	r0, r0, pc, asr #3
    128c:	0755bd01 	ldrbeq	fp, [r5, -r1, lsl #26]
    1290:	0a6a0000 	beq	1a81298 <__bss_end__+0x1a77758>
    1294:	662f0000 	strtvs	r0, [pc], -r0
    1298:	0100746d 	tsteq	r0, sp, ror #8
    129c:	000097bd 			; <UNDEFINED> instruction: 0x000097bd
    12a0:	74910200 	ldrvc	r0, [r1], #512	; 0x200
    12a4:	75621530 	strbvc	r1, [r2, #-1328]!	; 0x530
    12a8:	be010066 	cdplt	0, 0, cr0, cr1, cr6, {3}
    12ac:	00001006 	andeq	r1, r0, r6
    12b0:	7c9c9103 	ldfvcd	f1, [ip], {3}
    12b4:	00033218 	andeq	r3, r3, r8, lsl r2
    12b8:	06c00100 	strbeq	r0, [r0], r0, lsl #2
    12bc:	03000001 	movweq	r0, #1
    12c0:	167c9891 			; <UNDEFINED> instruction: 0x167c9891
    12c4:	01007a73 	tsteq	r0, r3, ror sl
    12c8:	000025c2 	andeq	r2, r0, r2, asr #11
    12cc:	000a9600 	andeq	r9, sl, r0, lsl #12
    12d0:	00e92a00 	rsceq	r2, r9, r0, lsl #20
    12d4:	10270000 	eorne	r0, r7, r0
    12d8:	03050000 	movweq	r0, #20480	; 0x5000
    12dc:	00009540 	andeq	r9, r0, r0, asr #10
    12e0:	00868826 	addeq	r8, r6, r6, lsr #16
    12e4:	00118a00 	andseq	r8, r1, r0, lsl #20
    12e8:	000fb600 	andeq	fp, pc, r0, lsl #12
    12ec:	53012100 	movwpl	r2, #4352	; 0x1100
    12f0:	21589102 	cmpcs	r8, r2, lsl #2
    12f4:	91035201 	tstls	r3, r1, lsl #4
    12f8:	01210654 	teqeq	r1, r4, asr r6
    12fc:	cc0a0351 	stcgt	3, cr0, [sl], {81}	; 0x51
    1300:	50012101 	andpl	r2, r1, r1, lsl #2
    1304:	7bfc9103 	blvc	fff25718 <__bss_end__+0xfff1bbd8>
    1308:	86ac2600 	strthi	r2, [ip], r0, lsl #12
    130c:	114b0000 	mrsne	r0, (UNDEF: 75)
    1310:	0fe50000 	svceq	0x00e50000
    1314:	01210000 	teqeq	r1, r0
    1318:	c4080253 	strgt	r0, [r8], #-595	; 0x253
    131c:	05520121 	ldrbeq	r0, [r2, #-289]	; 0x121
    1320:	00954003 	addseq	r4, r5, r3
    1324:	51012100 	mrspl	r2, (UNDEF: 17)
    1328:	95840305 	strls	r0, [r4, #773]	; 0x305
    132c:	01210000 	teqeq	r1, r0
    1330:	0c030550 	cfstr32eq	mvfx0, [r3], {80}	; 0x50
    1334:	00000096 	muleq	r0, r6, r0
    1338:	0086b025 	addeq	fp, r6, r5, lsr #32
    133c:	00116100 	andseq	r6, r1, r0, lsl #2
    1340:	86bc2000 	ldrthi	r2, [ip], r0
    1344:	0ed70000 	cdpeq	0, 13, cr0, cr7, cr0, {0}
    1348:	01210000 	teqeq	r1, r0
    134c:	fc910351 	ldc2	3, cr0, [r1], {81}	; 0x51
    1350:	5001217b 	andpl	r2, r1, fp, ror r1
    1354:	00007502 	andeq	r7, r0, r2, lsl #10
    1358:	00902b00 	addseq	r2, r0, r0, lsl #22
    135c:	10170000 	andsne	r0, r7, r0
    1360:	81310000 	teqhi	r1, r0
    1364:	cb000000 	blgt	136c <_start-0x6c94>
    1368:	902b0001 	eorls	r0, fp, r1
    136c:	27000000 	strcs	r0, [r0, -r0]
    1370:	2c000010 	stccs	0, cr0, [r0], {16}
    1374:	00000081 	andeq	r0, r0, r1, lsl #1
    1378:	1707000e 	strne	r0, [r7, -lr]
    137c:	24000010 	strcs	r0, [r0], #-16
    1380:	000002f6 	strdeq	r0, [r0], -r6
    1384:	0025c901 	eoreq	ip, r5, r1, lsl #18
    1388:	86e00000 	strbthi	r0, [r0], r0
    138c:	00480000 	subeq	r0, r8, r0
    1390:	9c010000 	stcls	0, cr0, [r1], {-0}
    1394:	00001100 	andeq	r1, r0, r0, lsl #2
    1398:	01007514 	tsteq	r0, r4, lsl r5
    139c:	000755c9 	andeq	r5, r7, r9, asr #11
    13a0:	000ad500 	andeq	sp, sl, r0, lsl #10
    13a4:	75621400 	strbvc	r1, [r2, #-1024]!	; 0x400
    13a8:	c9010066 	stmdbgt	r1, {r1, r2, r5, r6}
    13ac:	00000c2c 	andeq	r0, r0, ip, lsr #24
    13b0:	00000af6 	strdeq	r0, [r0], -r6
    13b4:	0002c813 	andeq	ip, r2, r3, lsl r8
    13b8:	68c90100 	stmiavs	r9, {r8}^
    13bc:	17000000 	strne	r0, [r0, -r0]
    13c0:	1400000b 	strne	r0, [r0], #-11
    13c4:	00646e65 	rsbeq	r6, r4, r5, ror #28
    13c8:	004fc901 	subeq	ip, pc, r1, lsl #18
    13cc:	0b380000 	bleq	e013d4 <__bss_end__+0xdf7894>
    13d0:	72160000 	andsvc	r0, r6, #0
    13d4:	01007365 	tsteq	r0, r5, ror #6
    13d8:	000025ca 	andeq	r2, r0, sl, asr #11
    13dc:	000b5900 	andeq	r5, fp, r0, lsl #18
    13e0:	00e92a00 	rsceq	r2, r9, r0, lsl #20
    13e4:	11100000 	tstne	r0, r0
    13e8:	03050000 	movweq	r0, #20480	; 0x5000
    13ec:	00009550 	andeq	r9, r0, r0, asr r5
    13f0:	0086f426 	addeq	pc, r6, r6, lsr #8
    13f4:	000b5100 	andeq	r5, fp, r0, lsl #2
    13f8:	0010c700 	andseq	ip, r0, r0, lsl #14
    13fc:	52012100 	andpl	r2, r1, #0, 2
    1400:	5201f303 	andpl	pc, r1, #201326592	; 0xc000000
    1404:	03510121 	cmpeq	r1, #1073741832	; 0x40000008
    1408:	215101f3 	ldrshcs	r0, [r1, #-19]	; 0xffffffed
    140c:	f3035001 	vhadd.u8	d5, d3, d1
    1410:	02215001 	eoreq	r5, r1, #1
    1414:	0902007d 	stmdbeq	r2, {r0, r2, r3, r4, r5, r6}
    1418:	102600ff 	strdne	r0, [r6], -pc	; <UNPREDICTABLE>
    141c:	4b000087 	blmi	1640 <_start-0x69c0>
    1420:	f6000011 			; <UNDEFINED> instruction: 0xf6000011
    1424:	21000010 	tstcs	r0, r0, lsl r0
    1428:	08025301 	stmdaeq	r2, {r0, r8, r9, ip, lr}
    142c:	520121cc 	andpl	r2, r1, #204, 2	; 0x33
    1430:	95500305 	ldrbls	r0, [r0, #-773]	; 0x305
    1434:	01210000 	teqeq	r1, r0
    1438:	84030551 	strhi	r0, [r3], #-1361	; 0x551
    143c:	21000095 	swpcs	r0, r5, [r0]	; <UNPREDICTABLE>
    1440:	03055001 	movweq	r5, #20481	; 0x5001
    1444:	000095d4 	ldrdeq	r9, [r0], -r4
    1448:	87142500 	ldrhi	r2, [r4, -r0, lsl #10]
    144c:	11610000 	cmnne	r1, r0
    1450:	2b000000 	blcs	1458 <_start-0x6ba8>
    1454:	00000090 	muleq	r0, r0, r0
    1458:	00001110 	andeq	r1, r0, r0, lsl r1
    145c:	0000812c 	andeq	r8, r0, ip, lsr #2
    1460:	07001600 	streq	r1, [r0, -r0, lsl #12]
    1464:	00001100 	andeq	r1, r0, r0, lsl #2
    1468:	0002cf32 	andeq	ip, r2, r2, lsr pc
    146c:	2b210600 	blcs	842c74 <__bss_end__+0x839134>
    1470:	33000011 	movwcc	r0, #17
    1474:	0000002c 	andeq	r0, r0, ip, lsr #32
    1478:	00002c33 	andeq	r2, r0, r3, lsr ip
    147c:	b5340000 	ldrlt	r0, [r4, #-0]!
    1480:	07000002 	streq	r0, [r0, -r2]
    1484:	00002c54 	andeq	r2, r0, r4, asr ip
    1488:	02853500 	addeq	r3, r5, #0, 10
    148c:	24060000 	strcs	r0, [r6], #-0
    1490:	00000025 	andeq	r0, r0, r5, lsr #32
    1494:	0000114b 	andeq	r1, r0, fp, asr #2
    1498:	00002c33 	andeq	r2, r0, r3, lsr ip
    149c:	6f350000 	svcvs	0x00350000
    14a0:	07000002 	streq	r0, [r0, -r2]
    14a4:	00002527 	andeq	r2, r0, r7, lsr #10
    14a8:	00116100 	andseq	r6, r1, r0, lsl #2
    14ac:	00973300 	addseq	r3, r7, r0, lsl #6
    14b0:	00300000 	eorseq	r0, r0, r0
    14b4:	0000bf36 	andeq	fp, r0, r6, lsr pc
    14b8:	32630700 	rsbcc	r0, r3, #0, 14
    14bc:	00000312 	andeq	r0, r0, r2, lsl r3
    14c0:	11791d06 	cmnne	r9, r6, lsl #26
    14c4:	2c330000 	ldccs	0, cr0, [r3], #-0
    14c8:	00000000 	andeq	r0, r0, r0
    14cc:	0002e732 	andeq	lr, r2, r2, lsr r7
    14d0:	8a1c0600 	bhi	702cd8 <__bss_end__+0x6f9198>
    14d4:	33000011 	movwcc	r0, #17
    14d8:	0000002c 	andeq	r0, r0, ip, lsr #32
    14dc:	026c3700 	rsbeq	r3, ip, #0, 14
    14e0:	02080000 	andeq	r0, r8, #0
    14e4:	00000025 	andeq	r0, r0, r5, lsr #32
    14e8:	00008a33 	andeq	r8, r0, r3, lsr sl
    14ec:	00253300 	eoreq	r3, r5, r0, lsl #6
    14f0:	97330000 	ldrls	r0, [r3, -r0]!
    14f4:	33000000 	movwcc	r0, #0
    14f8:	00000106 	andeq	r0, r0, r6, lsl #2
    14fc:	01910000 	orrseq	r0, r1, r0
    1500:	00040000 	andeq	r0, r4, r0
    1504:	00000459 	andeq	r0, r0, r9, asr r4
    1508:	00290104 	eoreq	r0, r9, r4, lsl #2
    150c:	37010000 	strcc	r0, [r1, -r0]
    1510:	45000003 	strmi	r0, [r0, #-3]
    1514:	28000003 	stmdacs	r0, {r0, r1}
    1518:	58000087 	stmdapl	r0, {r0, r1, r2, r7}
    151c:	ca000000 	bgt	1524 <_start-0x6adc>
    1520:	02000004 	andeq	r0, r0, #4
    1524:	000002a1 	andeq	r0, r0, r1, lsr #5
    1528:	00302802 	eorseq	r2, r0, r2, lsl #16
    152c:	18030000 	stmdane	r3, {}	; <UNPREDICTABLE>
    1530:	04000002 	streq	r0, [r0], #-2
    1534:	00470003 	subeq	r0, r7, r3
    1538:	0d040000 	stceq	0, cr0, [r4, #-0]
    153c:	47000003 	strmi	r0, [r0, -r3]
    1540:	00000000 	andeq	r0, r0, r0
    1544:	02040500 	andeq	r0, r4, #0, 10
    1548:	0000021a 	andeq	r0, r0, sl, lsl r2
    154c:	00256202 	eoreq	r6, r5, r2, lsl #4
    1550:	04060000 	streq	r0, [r6], #-0
    1554:	746e6905 	strbtvc	r6, [lr], #-2309	; 0x905
    1558:	07040700 	streq	r0, [r4, -r0, lsl #14]
    155c:	00000100 	andeq	r0, r0, r0, lsl #2
    1560:	aa060107 	bge	181984 <__bss_end__+0x177e44>
    1564:	07000000 	streq	r0, [r0, -r0]
    1568:	01310502 	teqeq	r1, r2, lsl #10
    156c:	04070000 	streq	r0, [r7], #-0
    1570:	00012805 	andeq	r2, r1, r5, lsl #16
    1574:	05080700 	streq	r0, [r8, #-1792]	; 0x700
    1578:	00000123 	andeq	r0, r0, r3, lsr #2
    157c:	a8080107 	stmdage	r8, {r0, r1, r2, r8}
    1580:	07000000 	streq	r0, [r0, -r0]
    1584:	00cc0702 	sbceq	r0, ip, r2, lsl #14
    1588:	04070000 	streq	r0, [r7], #-0
    158c:	0000fb07 	andeq	pc, r0, r7, lsl #22
    1590:	07080700 	streq	r0, [r8, -r0, lsl #14]
    1594:	000000f6 	strdeq	r0, [r0], -r6
    1598:	1a070407 	bne	1c25bc <__bss_end__+0x1b8a7c>
    159c:	08000001 	stmdaeq	r0, {r0}
    15a0:	0000a704 	andeq	sl, r0, r4, lsl #14
    15a4:	08010700 	stmdaeq	r1, {r8, r9, sl}
    15a8:	000000b1 	strheq	r0, [r0], -r1
    15ac:	00b40408 	adcseq	r0, r4, r8, lsl #8
    15b0:	a7090000 	strge	r0, [r9, -r0]
    15b4:	0a000000 	beq	15bc <_start-0x6a44>
    15b8:	0000026f 	andeq	r0, r0, pc, ror #4
    15bc:	00540601 	subseq	r0, r4, r1, lsl #12
    15c0:	87280000 	strhi	r0, [r8, -r0]!
    15c4:	00580000 	subseq	r0, r8, r0
    15c8:	9c010000 	stcls	0, cr0, [r1], {-0}
    15cc:	00000143 	andeq	r0, r0, r3, asr #2
    15d0:	746d660b 	strbtvc	r6, [sp], #-1547	; 0x60b
    15d4:	ae060100 	adfges	f0, f6, f0
    15d8:	02000000 	andeq	r0, r0, #0
    15dc:	0d0c7091 	stceq	0, cr7, [ip, #-580]	; 0xfffffdbc
    15e0:	00667562 	rsbeq	r7, r6, r2, ror #10
    15e4:	01430801 	cmpeq	r3, r1, lsl #16
    15e8:	03050000 	movweq	r0, #20480	; 0x5000
    15ec:	00009740 	andeq	r9, r0, r0, asr #14
    15f0:	0003320e 	andeq	r3, r3, lr, lsl #4
    15f4:	49090100 	stmdbmi	r9, {r8}
    15f8:	02000000 	andeq	r0, r0, #0
    15fc:	730f5c91 	movwvc	r5, #64657	; 0xfc91
    1600:	0c01007a 	stceq	0, cr0, [r1], {122}	; 0x7a
    1604:	00000054 	andeq	r0, r0, r4, asr r0
    1608:	00000b77 	andeq	r0, r0, r7, ror fp
    160c:	00875010 	addeq	r5, r7, r0, lsl r0
    1610:	00017400 	andeq	r7, r1, r0, lsl #8
    1614:	00013600 	andeq	r3, r1, r0, lsl #12
    1618:	53011100 	movwpl	r1, #4352	; 0x1100
    161c:	114c9102 	cmpne	ip, r2, lsl #2
    1620:	91035201 	tstls	r3, r1, lsl #4
    1624:	01110648 	tsteq	r1, r8, asr #12
    1628:	000a0351 	andeq	r0, sl, r1, asr r3
    162c:	50011104 	andpl	r1, r1, r4, lsl #2
    1630:	00007402 	andeq	r7, r0, r2, lsl #8
    1634:	00876412 	addeq	r6, r7, r2, lsl r4
    1638:	50011100 	andpl	r1, r1, r0, lsl #2
    163c:	00007402 	andeq	r7, r0, r2, lsl #8
    1640:	00a71300 	adceq	r1, r7, r0, lsl #6
    1644:	01540000 	cmpeq	r4, r0
    1648:	9a140000 	bls	501650 <__bss_end__+0x4f7b10>
    164c:	ff000000 			; <UNDEFINED> instruction: 0xff000000
    1650:	54150003 	ldrpl	r0, [r5], #-3
    1654:	63000000 	movwvs	r0, #0
    1658:	16000001 	strne	r0, [r0], -r1
    165c:	000000ae 	andeq	r0, r0, lr, lsr #1
    1660:	039e1700 	orrseq	r1, lr, #0, 14
    1664:	20040000 	andcs	r0, r4, r0
    1668:	0000016e 	andeq	r0, r0, lr, ror #2
    166c:	01540408 	cmpeq	r4, r8, lsl #8
    1670:	6c180000 	ldcvs	0, cr0, [r8], {-0}
    1674:	05000002 	streq	r0, [r0, #-2]
    1678:	00005402 	andeq	r5, r0, r2, lsl #8
    167c:	00a11600 	adceq	r1, r1, r0, lsl #12
    1680:	54160000 	ldrpl	r0, [r6], #-0
    1684:	16000000 	strne	r0, [r0], -r0
    1688:	000000ae 	andeq	r0, r0, lr, lsr #1
    168c:	00004916 	andeq	r4, r0, r6, lsl r9
    1690:	ee000000 	cdp	0, 0, cr0, cr0, cr0, {0}
    1694:	04000000 	streq	r0, [r0], #-0
    1698:	00058a00 	andeq	r8, r5, r0, lsl #20
    169c:	29010400 	stmdbcs	r1, {sl}
    16a0:	01000000 	mrseq	r0, (UNDEF: 0)
    16a4:	00000389 	andeq	r0, r0, r9, lsl #7
    16a8:	00000345 	andeq	r0, r0, r5, asr #6
    16ac:	00008780 	andeq	r8, r0, r0, lsl #15
    16b0:	00000034 	andeq	r0, r0, r4, lsr r0
    16b4:	000005d0 	ldrdeq	r0, [r0], -r0	; <UNPREDICTABLE>
    16b8:	69050402 	stmdbvs	r5, {r1, sl}
    16bc:	0300746e 	movweq	r7, #1134	; 0x46e
    16c0:	01000704 	tsteq	r0, r4, lsl #14
    16c4:	01030000 	mrseq	r0, (UNDEF: 3)
    16c8:	0000aa06 	andeq	sl, r0, r6, lsl #20
    16cc:	05020300 	streq	r0, [r2, #-768]	; 0x300
    16d0:	00000131 	andeq	r0, r0, r1, lsr r1
    16d4:	28050403 	stmdacs	r5, {r0, r1, sl}
    16d8:	03000001 	movweq	r0, #1
    16dc:	01230508 	teqeq	r3, r8, lsl #10
    16e0:	01030000 	mrseq	r0, (UNDEF: 3)
    16e4:	0000a808 	andeq	sl, r0, r8, lsl #16
    16e8:	07020300 	streq	r0, [r2, -r0, lsl #6]
    16ec:	000000cc 	andeq	r0, r0, ip, asr #1
    16f0:	fb070403 	blx	1c2706 <__bss_end__+0x1b8bc6>
    16f4:	03000000 	movweq	r0, #0
    16f8:	00f60708 	rscseq	r0, r6, r8, lsl #14
    16fc:	04030000 	streq	r0, [r3], #-0
    1700:	00011a07 	andeq	r1, r1, r7, lsl #20
    1704:	08010300 	stmdaeq	r1, {r8, r9}
    1708:	000000b1 	strheq	r0, [r0], -r1
    170c:	007f0404 	rsbseq	r0, pc, r4, lsl #8
    1710:	72050000 	andvc	r0, r5, #0
    1714:	06000000 	streq	r0, [r0], -r0
    1718:	00000395 	muleq	r0, r5, r3
    171c:	00250401 	eoreq	r0, r5, r1, lsl #8
    1720:	87800000 	strhi	r0, [r0, r0]
    1724:	00340000 	eorseq	r0, r4, r0
    1728:	9c010000 	stcls	0, cr0, [r1], {-0}
    172c:	000000ab 	andeq	r0, r0, fp, lsr #1
    1730:	01007007 	tsteq	r0, r7
    1734:	00007904 	andeq	r7, r0, r4, lsl #18
    1738:	000ba000 	andeq	sl, fp, r0
    173c:	25080000 	strcs	r0, [r8, #-0]
    1740:	ba000000 	blt	1748 <_start-0x68b8>
    1744:	09000000 	stmdbeq	r0, {}	; <UNPREDICTABLE>
    1748:	00000025 	andeq	r0, r0, r5, lsr #32
    174c:	03a30a00 			; <UNDEFINED> instruction: 0x03a30a00
    1750:	1d020000 	stcne	0, cr0, [r2, #-0]
    1754:	000000c5 	andeq	r0, r0, r5, asr #1
    1758:	00ab0404 	adceq	r0, fp, r4, lsl #8
    175c:	25080000 	strcs	r0, [r8, #-0]
    1760:	da000000 	ble	1768 <_start-0x6898>
    1764:	09000000 	stmdbeq	r0, {}	; <UNPREDICTABLE>
    1768:	00000079 	andeq	r0, r0, r9, ror r0
    176c:	039e0b00 	orrseq	r0, lr, #0, 22
    1770:	0c010000 	stceq	0, cr0, [r1], {-0}
    1774:	000000eb 	andeq	r0, r0, fp, ror #1
    1778:	93b40305 			; <UNDEFINED> instruction: 0x93b40305
    177c:	04040000 	streq	r0, [r4], #-0
    1780:	000000cb 	andeq	r0, r0, fp, asr #1
    1784:	0000be00 	andeq	fp, r0, r0, lsl #28
    1788:	23000400 	movwcs	r0, #1024	; 0x400
    178c:	04000006 	streq	r0, [r0], #-6
    1790:	00002901 	andeq	r2, r0, r1, lsl #18
    1794:	03af0100 			; <UNDEFINED> instruction: 0x03af0100
    1798:	03450000 	movteq	r0, #20480	; 0x5000
    179c:	87b40000 	ldrhi	r0, [r4, r0]!
    17a0:	00200000 	eoreq	r0, r0, r0
    17a4:	066a0000 	strbteq	r0, [sl], -r0
    17a8:	01020000 	mrseq	r0, (UNDEF: 2)
    17ac:	0000aa06 	andeq	sl, r0, r6, lsl #20
    17b0:	08010200 	stmdaeq	r1, {r9}
    17b4:	000000a8 	andeq	r0, r0, r8, lsr #1
    17b8:	31050202 	tstcc	r5, r2, lsl #4
    17bc:	02000001 	andeq	r0, r0, #1
    17c0:	00cc0702 	sbceq	r0, ip, r2, lsl #14
    17c4:	04030000 	streq	r0, [r3], #-0
    17c8:	746e6905 	strbtvc	r6, [lr], #-2309	; 0x905
    17cc:	07040200 	streq	r0, [r4, -r0, lsl #4]
    17d0:	00000100 	andeq	r0, r0, r0, lsl #2
    17d4:	23050802 	movwcs	r0, #22530	; 0x5802
    17d8:	02000001 	andeq	r0, r0, #1
    17dc:	00f60708 	rscseq	r0, r6, r8, lsl #14
    17e0:	04020000 	streq	r0, [r2], #-0
    17e4:	00012805 	andeq	r2, r1, r5, lsl #16
    17e8:	07040200 	streq	r0, [r4, -r0, lsl #4]
    17ec:	0000011a 	andeq	r0, r0, sl, lsl r1
    17f0:	fb070402 	blx	1c2802 <__bss_end__+0x1b8cc2>
    17f4:	02000000 	andeq	r0, r0, #0
    17f8:	00b10801 	adcseq	r0, r1, r1, lsl #16
    17fc:	04040000 	streq	r0, [r4], #-0
    1800:	0000007f 	andeq	r0, r0, pc, ror r0
    1804:	00007205 	andeq	r7, r0, r5, lsl #4
    1808:	000e0600 	andeq	r0, lr, r0, lsl #12
    180c:	d4020000 	strle	r0, [r2], #-0
    1810:	00000048 	andeq	r0, r0, r8, asr #32
    1814:	00016607 	andeq	r6, r1, r7, lsl #12
    1818:	84230300 	strthi	r0, [r3], #-768	; 0x300
    181c:	b4000000 	strlt	r0, [r0], #-0
    1820:	20000087 	andcs	r0, r0, r7, lsl #1
    1824:	01000000 	mrseq	r0, (UNDEF: 0)
    1828:	0070089c 			; <UNDEFINED> instruction: 0x0070089c
    182c:	00790301 	rsbseq	r0, r9, r1, lsl #6
    1830:	0bbe0000 	bleq	fef81838 <__bss_end__+0xfef77cf8>
    1834:	72090000 	andvc	r0, r9, #0
    1838:	01007465 	tsteq	r0, r5, ror #8
    183c:	00008404 	andeq	r8, r0, r4, lsl #8
    1840:	000bdf00 	andeq	sp, fp, r0, lsl #30
    1844:	54000000 	strpl	r0, [r0], #-0
    1848:	04000006 	streq	r0, [r0], #-6
    184c:	0006a200 	andeq	sl, r6, r0, lsl #4
    1850:	29010400 	stmdbcs	r1, {sl}
    1854:	01000000 	mrseq	r0, (UNDEF: 0)
    1858:	000003e9 	andeq	r0, r0, r9, ror #7
    185c:	00000345 	andeq	r0, r0, r5, asr #6
    1860:	000087d4 	ldrdeq	r8, [r0], -r4
    1864:	000004f0 	strdeq	r0, [r0], -r0	; <UNPREDICTABLE>
    1868:	0000075f 	andeq	r0, r0, pc, asr r7
    186c:	69050402 	stmdbvs	r5, {r1, sl}
    1870:	0300746e 	movweq	r7, #1134	; 0x46e
    1874:	01000704 	tsteq	r0, r4, lsl #14
    1878:	01030000 	mrseq	r0, (UNDEF: 3)
    187c:	0000aa06 	andeq	sl, r0, r6, lsl #20
    1880:	05020300 	streq	r0, [r2, #-768]	; 0x300
    1884:	00000131 	andeq	r0, r0, r1, lsr r1
    1888:	28050403 	stmdacs	r5, {r0, r1, sl}
    188c:	03000001 	movweq	r0, #1
    1890:	01230508 	teqeq	r3, r8, lsl #10
    1894:	01030000 	mrseq	r0, (UNDEF: 3)
    1898:	0000a808 	andeq	sl, r0, r8, lsl #16
    189c:	07020300 	streq	r0, [r2, -r0, lsl #6]
    18a0:	000000cc 	andeq	r0, r0, ip, asr #1
    18a4:	fb070403 	blx	1c28ba <__bss_end__+0x1b8d7a>
    18a8:	03000000 	movweq	r0, #0
    18ac:	00f60708 	rscseq	r0, r6, r8, lsl #14
    18b0:	04030000 	streq	r0, [r3], #-0
    18b4:	00011a07 	andeq	r1, r1, r7, lsl #20
    18b8:	05040400 	streq	r0, [r4, #-1024]	; 0x400
    18bc:	00007a04 	andeq	r7, r0, r4, lsl #20
    18c0:	08010300 	stmdaeq	r1, {r8, r9}
    18c4:	000000b1 	strheq	r0, [r0], -r1
    18c8:	00870405 	addeq	r0, r7, r5, lsl #8
    18cc:	7a060000 	bvc	1818d4 <__bss_end__+0x177d94>
    18d0:	07000000 	streq	r0, [r0, -r0]
    18d4:	000002a1 	andeq	r0, r0, r1, lsr #5
    18d8:	00972802 	addseq	r2, r7, r2, lsl #16
    18dc:	18080000 	stmdane	r8, {}	; <UNPREDICTABLE>
    18e0:	04000002 	streq	r0, [r0], #-2
    18e4:	00ae0004 	adceq	r0, lr, r4
    18e8:	0d090000 	stceq	0, cr0, [r9, #-0]
    18ec:	72000003 	andvc	r0, r0, #3
    18f0:	00000000 	andeq	r0, r0, r0
    18f4:	021a0700 	andseq	r0, sl, #0, 14
    18f8:	62020000 	andvs	r0, r2, #0
    18fc:	0000008c 	andeq	r0, r0, ip, lsl #1
    1900:	0003cb0a 	andeq	ip, r3, sl, lsl #22
    1904:	25270100 	strcs	r0, [r7, #-256]!	; 0x100
    1908:	d4000000 	strle	r0, [r0], #-0
    190c:	14000087 	strne	r0, [r0], #-135	; 0x87
    1910:	01000000 	mrseq	r0, (UNDEF: 0)
    1914:	0000e09c 	muleq	r0, ip, r0
    1918:	00630b00 	rsbeq	r0, r3, r0, lsl #22
    191c:	00252701 	eoreq	r2, r5, r1, lsl #14
    1920:	0bfe0000 	bleq	fff81928 <__bss_end__+0xfff77de8>
    1924:	0c000000 	stceq	0, cr0, [r0], {-0}
    1928:	00646170 	rsbeq	r6, r4, r0, ror r1
    192c:	00742e01 	rsbseq	r2, r4, r1, lsl #28
    1930:	87e80000 	strbhi	r0, [r8, r0]!
    1934:	002c0000 	eoreq	r0, ip, r0
    1938:	9c010000 	stcls	0, cr0, [r1], {-0}
    193c:	00000130 	andeq	r0, r0, r0, lsr r1
    1940:	0100700b 	tsteq	r0, fp
    1944:	0000742e 	andeq	r7, r0, lr, lsr #8
    1948:	000c2c00 	andeq	r2, ip, r0, lsl #24
    194c:	03db0d00 	bicseq	r0, fp, #0, 26
    1950:	2e010000 	cdpcs	0, 0, cr0, cr1, cr0, {0}
    1954:	00000074 	andeq	r0, r0, r4, ror r0
    1958:	00000c57 	andeq	r0, r0, r7, asr ip
    195c:	0004090e 	andeq	r0, r4, lr, lsl #18
    1960:	252e0100 	strcs	r0, [lr, #-256]!	; 0x100
    1964:	01000000 	mrseq	r0, (UNDEF: 0)
    1968:	656c0f52 	strbvs	r0, [ip, #-3922]!	; 0xf52
    196c:	2f01006e 	svccs	0x0001006e
    1970:	00000025 	andeq	r0, r0, r5, lsr #32
    1974:	0a005101 	beq	15d80 <__bss_end__+0xc240>
    1978:	000003c3 	andeq	r0, r0, r3, asr #7
    197c:	00743701 	rsbseq	r3, r4, r1, lsl #14
    1980:	88140000 	ldmdahi	r4, {}	; <UNPREDICTABLE>
    1984:	00400000 	subeq	r0, r0, r0
    1988:	9c010000 	stcls	0, cr0, [r1], {-0}
    198c:	0000019c 	muleq	r0, ip, r1
    1990:	7473640b 	ldrbtvc	r6, [r3], #-1035	; 0x40b
    1994:	74370100 	ldrtvc	r0, [r7], #-256	; 0x100
    1998:	78000000 	stmdavc	r0, {}	; <UNPREDICTABLE>
    199c:	0b00000c 	bleq	19d4 <_start-0x662c>
    19a0:	3701006e 	strcc	r0, [r1, -lr, rrx]
    19a4:	00000025 	andeq	r0, r0, r5, lsr #32
    19a8:	00000cb0 			; <UNDEFINED> instruction: 0x00000cb0
    19ac:	0100700b 	tsteq	r0, fp
    19b0:	00007437 	andeq	r7, r0, r7, lsr r4
    19b4:	000cd100 	andeq	sp, ip, r0, lsl #2
    19b8:	049a0d00 	ldreq	r0, [sl], #3328	; 0xd00
    19bc:	37010000 	strcc	r0, [r1, -r0]
    19c0:	00000074 	andeq	r0, r0, r4, ror r0
    19c4:	00000d07 	andeq	r0, r0, r7, lsl #26
    19c8:	6e656c10 	mcrvs	12, 3, r6, cr5, cr0, {0}
    19cc:	25390100 	ldrcs	r0, [r9, #-256]!	; 0x100
    19d0:	25000000 	strcs	r0, [r0, #-0]
    19d4:	0f00000d 	svceq	0x0000000d
    19d8:	3d010073 	stccc	0, cr0, [r1, #-460]	; 0xfffffe34
    19dc:	00000074 	andeq	r0, r0, r4, ror r0
    19e0:	0a005001 	beq	159ec <__bss_end__+0xbeac>
    19e4:	00000417 	andeq	r0, r0, r7, lsl r4
    19e8:	00744701 	rsbseq	r4, r4, r1, lsl #14
    19ec:	88540000 	ldmdahi	r4, {}^	; <UNPREDICTABLE>
    19f0:	01980000 	orrseq	r0, r8, r0
    19f4:	9c010000 	stcls	0, cr0, [r1], {-0}
    19f8:	000002ca 	andeq	r0, r0, sl, asr #5
    19fc:	0003db0d 	andeq	sp, r3, sp, lsl #22
    1a00:	2c470100 	stfcse	f0, [r7], {-0}
    1a04:	4c000000 	stcmi	0, cr0, [r0], {-0}
    1a08:	0b00000d 	bleq	1a44 <_start-0x65bc>
    1a0c:	00747364 	rsbseq	r7, r4, r4, ror #6
    1a10:	00744701 	rsbseq	r4, r4, r1, lsl #14
    1a14:	0d7a0000 	ldcleq	0, cr0, [sl, #-0]
    1a18:	6e0b0000 	cdpvs	0, 0, cr0, cr11, cr0, {0}
    1a1c:	25470100 	strbcs	r0, [r7, #-256]	; 0x100
    1a20:	e8000000 	stmda	r0, {}	; <UNPREDICTABLE>
    1a24:	0b00000d 	bleq	1a60 <_start-0x65a0>
    1a28:	006c6176 	rsbeq	r6, ip, r6, ror r1
    1a2c:	00254701 	eoreq	r4, r5, r1, lsl #14
    1a30:	0e140000 	cdpeq	0, 1, cr0, cr4, cr0, {0}
    1a34:	090d0000 	stmdbeq	sp, {}	; <UNPREDICTABLE>
    1a38:	01000004 	tsteq	r0, r4
    1a3c:	00002547 	andeq	r2, r0, r7, asr #10
    1a40:	000e9e00 	andeq	r9, lr, r0, lsl #28
    1a44:	03e00e00 	mvneq	r0, #0, 28
    1a48:	47010000 	strmi	r0, [r1, -r0]
    1a4c:	00000025 	andeq	r0, r0, r5, lsr #32
    1a50:	0f049102 	svceq	0x00049102
    1a54:	00667562 	rsbeq	r7, r6, r2, ror #10
    1a58:	02ca4c01 	sbceq	r4, sl, #256	; 0x100
    1a5c:	91030000 	mrsls	r0, (UNDEF: 3)
    1a60:	70107fa8 	andsvc	r7, r0, r8, lsr #31
    1a64:	744c0100 	strbvc	r0, [ip], #-256	; 0x100
    1a68:	c8000000 	stmdagt	r0, {}	; <UNPREDICTABLE>
    1a6c:	1000000e 	andne	r0, r0, lr
    1a70:	4d010075 	stcmi	0, cr0, [r1, #-468]	; 0xfffffe2c
    1a74:	0000002c 	andeq	r0, r0, ip, lsr #32
    1a78:	00000f6d 	andeq	r0, r0, sp, ror #30
    1a7c:	0000e911 	andeq	lr, r0, r1, lsl r9
    1a80:	0002ea00 	andeq	lr, r2, r0, lsl #20
    1a84:	30030500 	andcc	r0, r3, r0, lsl #10
    1a88:	12000096 	andne	r0, r0, #150	; 0x96
    1a8c:	000088c0 	andeq	r8, r0, r0, asr #17
    1a90:	00000074 	andeq	r0, r0, r4, ror r0
    1a94:	00000261 	andeq	r0, r0, r1, ror #4
    1a98:	0003bd13 	andeq	fp, r3, r3, lsl sp
    1a9c:	2c520100 	ldfcse	f0, [r2], {-0}
    1aa0:	7d000000 	stcvc	0, cr0, [r0, #-0]
    1aa4:	00000010 	andeq	r0, r0, r0, lsl r0
    1aa8:	0089a414 	addeq	sl, r9, r4, lsl r4
    1aac:	00063a00 	andeq	r3, r6, r0, lsl #20
    1ab0:	00029000 	andeq	r9, r2, r0
    1ab4:	53011500 	movwpl	r1, #5376	; 0x1500
    1ab8:	15750802 	ldrbne	r0, [r5, #-2050]!	; 0x802
    1abc:	03055201 	movweq	r5, #20993	; 0x5201
    1ac0:	00009630 	andeq	r9, r0, r0, lsr r6
    1ac4:	05510115 	ldrbeq	r0, [r1, #-277]	; 0x115
    1ac8:	00966803 	addseq	r6, r6, r3, lsl #16
    1acc:	50011500 	andpl	r1, r1, r0, lsl #10
    1ad0:	96540305 	ldrbls	r0, [r4], -r5, lsl #6
    1ad4:	16000000 	strne	r0, [r0], -r0
    1ad8:	000089a8 	andeq	r8, r0, r8, lsr #19
    1adc:	00000650 	andeq	r0, r0, r0, asr r6
    1ae0:	0089b414 	addeq	fp, r9, r4, lsl r4
    1ae4:	0000e000 	andeq	lr, r0, r0
    1ae8:	0002ad00 	andeq	sl, r2, r0, lsl #26
    1aec:	51011500 	tstpl	r1, r0, lsl #10
    1af0:	00007d02 	andeq	r7, r0, r2, lsl #26
    1af4:	0089c817 	addeq	ip, r9, r7, lsl r8
    1af8:	00013000 	andeq	r3, r1, r0
    1afc:	53011500 	movwpl	r1, #5376	; 0x1500
    1b00:	15007d02 	strne	r7, [r0, #-3330]	; 0xd02
    1b04:	74025101 	strvc	r5, [r2], #-257	; 0x101
    1b08:	50011500 	andpl	r1, r1, r0, lsl #10
    1b0c:	00007502 	andeq	r7, r0, r2, lsl #10
    1b10:	007a1800 	rsbseq	r1, sl, r0, lsl #16
    1b14:	02da0000 	sbcseq	r0, sl, #0
    1b18:	6b190000 	blvs	641b20 <__bss_end__+0x637fe0>
    1b1c:	3f000000 	svccc	0x00000000
    1b20:	007a1800 	rsbseq	r1, sl, r0, lsl #16
    1b24:	02ea0000 	rsceq	r0, sl, #0
    1b28:	6b190000 	blvs	641b30 <__bss_end__+0x637ff0>
    1b2c:	04000000 	streq	r0, [r0], #-0
    1b30:	02da0600 	sbcseq	r0, sl, #0, 12
    1b34:	fa1a0000 	blx	681b3c <__bss_end__+0x677ffc>
    1b38:	01000003 	tsteq	r0, r3
    1b3c:	0089ec1f 	addeq	lr, r9, pc, lsl ip
    1b40:	00005000 	andeq	r5, r0, r0
    1b44:	6a9c0100 	bvs	fe701f4c <__bss_end__+0xfe6f840c>
    1b48:	0d000003 	stceq	0, cr0, [r0, #-12]
    1b4c:	0000040f 	andeq	r0, r0, pc, lsl #8
    1b50:	03791f01 	cmneq	r9, #1, 30
    1b54:	10a90000 	adcne	r0, r9, r0
    1b58:	d30d0000 	movwle	r0, #53248	; 0xd000
    1b5c:	01000003 	tsteq	r0, r3
    1b60:	00038e1f 	andeq	r8, r3, pc, lsl lr
    1b64:	0010d500 	andseq	sp, r0, r0, lsl #10
    1b68:	00e91100 	rsceq	r1, r9, r0, lsl #2
    1b6c:	03a40000 			; <UNDEFINED> instruction: 0x03a40000
    1b70:	03050000 	movweq	r0, #20480	; 0x5000
    1b74:	00009638 	andeq	r9, r0, r8, lsr r6
    1b78:	008a0c14 	addeq	r0, sl, r4, lsl ip
    1b7c:	00063a00 	andeq	r3, r6, r0, lsl #20
    1b80:	00036000 	andeq	r6, r3, r0
    1b84:	53011500 	movwpl	r1, #5376	; 0x1500
    1b88:	15200802 	strne	r0, [r0, #-2050]!	; 0x802
    1b8c:	03055201 	movweq	r5, #20993	; 0x5201
    1b90:	00009638 	andeq	r9, r0, r8, lsr r6
    1b94:	05510115 	ldrbeq	r0, [r1, #-277]	; 0x115
    1b98:	00966803 	addseq	r6, r6, r3, lsl #16
    1b9c:	50011500 	andpl	r1, r1, r0, lsl #10
    1ba0:	96a00305 	strtls	r0, [r0], r5, lsl #6
    1ba4:	16000000 	strne	r0, [r0], -r0
    1ba8:	00008a10 	andeq	r8, r0, r0, lsl sl
    1bac:	00000650 	andeq	r0, r0, r0, asr r6
    1bb0:	00251b00 	eoreq	r1, r5, r0, lsl #22
    1bb4:	03790000 	cmneq	r9, #0
    1bb8:	251c0000 	ldrcs	r0, [ip, #-0]
    1bbc:	00000000 	andeq	r0, r0, r0
    1bc0:	036a0405 	cmneq	sl, #83886080	; 0x5000000
    1bc4:	251b0000 	ldrcs	r0, [fp, #-0]
    1bc8:	8e000000 	cdphi	0, 0, cr0, cr0, cr0, {0}
    1bcc:	1c000003 	stcne	0, cr0, [r0], {3}
    1bd0:	00000081 	andeq	r0, r0, r1, lsl #1
    1bd4:	7f040500 	svcvc	0x00040500
    1bd8:	18000003 	stmdane	r0, {r0, r1}
    1bdc:	0000007a 	andeq	r0, r0, sl, ror r0
    1be0:	000003a4 	andeq	r0, r0, r4, lsr #7
    1be4:	00006b19 	andeq	r6, r0, r9, lsl fp
    1be8:	06000e00 	streq	r0, [r0], -r0, lsl #28
    1bec:	00000394 	muleq	r0, r4, r3
    1bf0:	00026c1d 	andeq	r6, r2, sp, lsl ip
    1bf4:	257d0100 	ldrbcs	r0, [sp, #-256]!	; 0x100
    1bf8:	3c000000 	stccc	0, cr0, [r0], {-0}
    1bfc:	8800008a 	stmdahi	r0, {r1, r3, r7}
    1c00:	01000002 	tsteq	r0, r2
    1c04:	0005ff9c 	muleq	r5, ip, pc	; <UNPREDICTABLE>
    1c08:	75620b00 	strbvc	r0, [r2, #-2816]!	; 0xb00
    1c0c:	7d010066 	stcvc	0, cr0, [r1, #-408]	; 0xfffffe68
    1c10:	00000074 	andeq	r0, r0, r4, ror r0
    1c14:	00001101 	andeq	r1, r0, r1, lsl #2
    1c18:	01006e0b 	tsteq	r0, fp, lsl #28
    1c1c:	0000257d 	andeq	r2, r0, sp, ror r5
    1c20:	00112d00 	andseq	r2, r1, r0, lsl #26
    1c24:	6d660b00 	vstmdbvs	r6!, {d16-d15}
    1c28:	7d010074 	stcvc	0, cr0, [r1, #-464]	; 0xfffffe30
    1c2c:	00000081 	andeq	r0, r0, r1, lsl #1
    1c30:	0000115b 	andeq	r1, r0, fp, asr r1
    1c34:	0003320d 	andeq	r3, r3, sp, lsl #4
    1c38:	ae7d0100 	rpwgee	f0, f5, f0
    1c3c:	8f000000 	svchi	0x00000000
    1c40:	10000011 	andne	r0, r0, r1, lsl r0
    1c44:	7e010070 	mcrvc	0, 0, r0, cr1, cr0, {3}
    1c48:	00000074 	andeq	r0, r0, r4, ror r0
    1c4c:	000011a2 	andeq	r1, r0, r2, lsr #3
    1c50:	01006510 	tsteq	r0, r0, lsl r5
    1c54:	0000747e 	andeq	r7, r0, lr, ror r4
    1c58:	00122000 	andseq	r2, r2, r0
    1c5c:	00e91100 	rsceq	r1, r9, r0, lsl #2
    1c60:	060f0000 	streq	r0, [pc], -r0
    1c64:	03050000 	movweq	r0, #20480	; 0x5000
    1c68:	00009648 	andeq	r9, r0, r8, asr #12
    1c6c:	008a901e 	addeq	r9, sl, lr, lsl r0
    1c70:	0001f400 	andeq	pc, r1, r0, lsl #8
    1c74:	00731000 	rsbseq	r1, r3, r0
    1c78:	00748b01 	rsbseq	r8, r4, r1, lsl #22
    1c7c:	12470000 	subne	r0, r7, #0
    1c80:	6e0f0000 	cdpvs	0, 0, cr0, cr15, cr0, {0}
    1c84:	01006d75 	tsteq	r0, r5, ror sp
    1c88:	0006148b 	andeq	r1, r6, fp, lsl #9
    1c8c:	d8910300 	ldmle	r1, {r8, r9}
    1c90:	0409137e 	streq	r1, [r9], #-894	; 0x37e
    1c94:	8c010000 	stchi	0, cr0, [r1], {-0}
    1c98:	0000002c 	andeq	r0, r0, ip, lsr #32
    1c9c:	0000129c 	muleq	r0, ip, r2
    1ca0:	008ac014 	addeq	ip, sl, r4, lsl r0
    1ca4:	0000b900 	andeq	fp, r0, r0, lsl #18
    1ca8:	00046d00 	andeq	r6, r4, r0, lsl #26
    1cac:	50011500 	andpl	r1, r1, r0, lsl #10
    1cb0:	00007502 	andeq	r7, r0, r2, lsl #10
    1cb4:	008ae414 	addeq	lr, sl, r4, lsl r4
    1cb8:	00063a00 	andeq	r3, r6, r0, lsl #20
    1cbc:	00049c00 	andeq	r9, r4, r0, lsl #24
    1cc0:	53011500 	movwpl	r1, #5376	; 0x1500
    1cc4:	15920802 	ldrne	r0, [r2, #2050]	; 0x802
    1cc8:	03055201 	movweq	r5, #20993	; 0x5201
    1ccc:	00009648 	andeq	r9, r0, r8, asr #12
    1cd0:	05510115 	ldrbeq	r0, [r1, #-277]	; 0x115
    1cd4:	00966803 	addseq	r6, r6, r3, lsl #16
    1cd8:	50011500 	andpl	r1, r1, r0, lsl #10
    1cdc:	96b80305 	ldrtls	r0, [r8], r5, lsl #6
    1ce0:	16000000 	strne	r0, [r0], -r0
    1ce4:	00008ae8 	andeq	r8, r0, r8, ror #21
    1ce8:	00000650 	andeq	r0, r0, r0, asr r6
    1cec:	008b6814 	addeq	r6, fp, r4, lsl r8
    1cf0:	00063a00 	andeq	r3, r6, r0, lsl #20
    1cf4:	0004d400 	andeq	sp, r4, r0, lsl #8
    1cf8:	53011500 	movwpl	r1, #5376	; 0x1500
    1cfc:	15980802 	ldrne	r0, [r8, #2050]	; 0x802
    1d00:	03055201 	movweq	r5, #20993	; 0x5201
    1d04:	00009648 	andeq	r9, r0, r8, asr #12
    1d08:	05510115 	ldrbeq	r0, [r1, #-277]	; 0x115
    1d0c:	00966803 	addseq	r6, r6, r3, lsl #16
    1d10:	50011500 	andpl	r1, r1, r0, lsl #10
    1d14:	96d40305 	ldrbls	r0, [r4], r5, lsl #6
    1d18:	16000000 	strne	r0, [r0], -r0
    1d1c:	00008b6c 	andeq	r8, r0, ip, ror #22
    1d20:	00000650 	andeq	r0, r0, r0, asr r6
    1d24:	008b9014 	addeq	r9, fp, r4, lsl r0
    1d28:	00019c00 	andeq	r9, r1, r0, lsl #24
    1d2c:	00050a00 	andeq	r0, r5, r0, lsl #20
    1d30:	52011500 	andpl	r1, r1, #0, 10
    1d34:	15800802 	strne	r0, [r0, #2050]	; 0x802
    1d38:	91035101 	tstls	r3, r1, lsl #2
    1d3c:	01157ed0 			; <UNDEFINED> instruction: 0x01157ed0
    1d40:	153a0150 	ldrne	r0, [sl, #-336]!	; 0x150
    1d44:	01047d02 	tsteq	r4, r2, lsl #26
    1d48:	7d021531 	cfstr32vc	mvfx1, [r2, #-196]	; 0xffffff3c
    1d4c:	00770200 	rsbseq	r0, r7, r0, lsl #4
    1d50:	8bb81400 	blhi	fee06d58 <__bss_end__+0xfedfd218>
    1d54:	019c0000 	orrseq	r0, ip, r0
    1d58:	05370000 	ldreq	r0, [r7, #-0]!
    1d5c:	01150000 	tsteq	r5, r0
    1d60:	80080252 	andhi	r0, r8, r2, asr r2
    1d64:	03510115 	cmpeq	r1, #1073741829	; 0x40000005
    1d68:	157ed091 	ldrbne	sp, [lr, #-145]!	; 0x91
    1d6c:	3a015001 	bcc	55d78 <__bss_end__+0x4c238>
    1d70:	047d0215 	ldrbteq	r0, [sp], #-533	; 0x215
    1d74:	02153001 	andseq	r3, r5, #1
    1d78:	7702007d 	smlsdxvc	r2, sp, r0, r0
    1d7c:	e0140000 	ands	r0, r4, r0
    1d80:	9c00008b 	stcls	0, cr0, [r0], {139}	; 0x8b
    1d84:	64000001 	strvs	r0, [r0], #-1
    1d88:	15000005 	strne	r0, [r0, #-5]
    1d8c:	08025201 	stmdaeq	r2, {r0, r9, ip, lr}
    1d90:	51011580 	smlabbpl	r1, r0, r5, r1
    1d94:	7ed09103 	atnvcs	f1, f3
    1d98:	01500115 	cmpeq	r0, r5, lsl r1
    1d9c:	7d021540 	cfstr32vc	mvfx1, [r2, #-256]	; 0xffffff00
    1da0:	15300104 	ldrne	r0, [r0, #-260]!	; 0x104
    1da4:	02007d02 	andeq	r7, r0, #2, 26	; 0x80
    1da8:	14000077 	strne	r0, [r0], #-119	; 0x77
    1dac:	00008c08 	andeq	r8, r0, r8, lsl #24
    1db0:	0000019c 	muleq	r0, ip, r1
    1db4:	00000591 	muleq	r0, r1, r5
    1db8:	02520115 	subseq	r0, r2, #1073741829	; 0x40000005
    1dbc:	01158008 	tsteq	r5, r8
    1dc0:	d0910351 	addsle	r0, r1, r1, asr r3
    1dc4:	5001157e 	andpl	r1, r1, lr, ror r5
    1dc8:	02153201 	andseq	r3, r5, #268435456	; 0x10000000
    1dcc:	3001047d 	andcc	r0, r1, sp, ror r4
    1dd0:	007d0215 	rsbseq	r0, sp, r5, lsl r2
    1dd4:	00007702 	andeq	r7, r0, r2, lsl #14
    1dd8:	008c3c14 	addeq	r3, ip, r4, lsl ip
    1ddc:	00019c00 	andeq	r9, r1, r0, lsl #24
    1de0:	0005be00 	andeq	fp, r5, r0, lsl #28
    1de4:	52011500 	andpl	r1, r1, #0, 10
    1de8:	15800802 	strne	r0, [r0, #2050]	; 0x802
    1dec:	91035101 	tstls	r3, r1, lsl #2
    1df0:	01157ed0 			; <UNDEFINED> instruction: 0x01157ed0
    1df4:	15380150 	ldrne	r0, [r8, #-336]!	; 0x150
    1df8:	01047d02 	tsteq	r4, r2, lsl #26
    1dfc:	7d021530 	cfstr32vc	mvfx1, [r2, #-192]	; 0xffffff40
    1e00:	00770200 	rsbseq	r0, r7, r0, lsl #4
    1e04:	8c581400 	cfldrdhi	mvd1, [r8], {-0}
    1e08:	063a0000 	ldrteq	r0, [sl], -r0
    1e0c:	05f40000 	ldrbeq	r0, [r4, #0]!
    1e10:	01150000 	tsteq	r5, r0
    1e14:	b9080253 	stmdblt	r8, {r0, r1, r4, r6, r9}
    1e18:	05520115 	ldrbeq	r0, [r2, #-277]	; 0x115
    1e1c:	00964803 	addseq	r4, r6, r3, lsl #16
    1e20:	51011500 	tstpl	r1, r0, lsl #10
    1e24:	96680305 	strbtls	r0, [r8], -r5, lsl #6
    1e28:	01150000 	tsteq	r5, r0
    1e2c:	fc030550 	stc2	5, cr0, [r3], {80}	; 0x50
    1e30:	15000096 	strne	r0, [r0, #-150]	; 0x96
    1e34:	02007d02 	andeq	r7, r0, #2, 26	; 0x80
    1e38:	16000079 			; <UNDEFINED> instruction: 0x16000079
    1e3c:	00008c5c 	andeq	r8, r0, ip, asr ip
    1e40:	00000650 	andeq	r0, r0, r0, asr r6
    1e44:	7a180000 	bvc	601e4c <__bss_end__+0x5f830c>
    1e48:	0f000000 	svceq	0x00000000
    1e4c:	19000006 	stmdbne	r0, {r1, r2}
    1e50:	0000006b 	andeq	r0, r0, fp, rrx
    1e54:	ff060009 			; <UNDEFINED> instruction: 0xff060009
    1e58:	18000005 	stmdane	r0, {r0, r2}
    1e5c:	0000007a 	andeq	r0, r0, sl, ror r0
    1e60:	00000624 	andeq	r0, r0, r4, lsr #12
    1e64:	00006b19 	andeq	r6, r0, r9, lsl fp
    1e68:	1f007f00 	svcne	0x00007f00
    1e6c:	000003a3 	andeq	r0, r0, r3, lsr #7
    1e70:	03791d03 	cmneq	r9, #3, 26	; 0xc0
    1e74:	9e1f0000 	cdpls	0, 1, cr0, cr15, cr0, {0}
    1e78:	03000003 	movweq	r0, #3
    1e7c:	00038e20 	andeq	r8, r3, r0, lsr #28
    1e80:	026f2000 	rsbeq	r2, pc, #0
    1e84:	27030000 	strcs	r0, [r3, -r0]
    1e88:	00000025 	andeq	r0, r0, r5, lsr #32
    1e8c:	00000650 	andeq	r0, r0, r0, asr r6
    1e90:	0000811c 	andeq	r8, r0, ip, lsl r1
    1e94:	22002100 	andcs	r2, r0, #0, 2
    1e98:	000000bf 	strheq	r0, [r0], -pc	; <UNPREDICTABLE>
    1e9c:	b8006303 	stmdalt	r0, {r0, r1, r8, r9, sp, lr}
    1ea0:	04000000 	streq	r0, [r0], #-0
    1ea4:	00088000 	andeq	r8, r8, r0
    1ea8:	29010400 	stmdbcs	r1, {sl}
    1eac:	01000000 	mrseq	r0, (UNDEF: 0)
    1eb0:	0000042a 	andeq	r0, r0, sl, lsr #8
    1eb4:	00000345 	andeq	r0, r0, r5, asr #6
    1eb8:	00008cc4 	andeq	r8, r0, r4, asr #25
    1ebc:	00000020 	andeq	r0, r0, r0, lsr #32
    1ec0:	0000093f 	andeq	r0, r0, pc, lsr r9
    1ec4:	69050402 	stmdbvs	r5, {r1, sl}
    1ec8:	0300746e 	movweq	r7, #1134	; 0x46e
    1ecc:	01000704 	tsteq	r0, r4, lsl #14
    1ed0:	01030000 	mrseq	r0, (UNDEF: 3)
    1ed4:	0000aa06 	andeq	sl, r0, r6, lsl #20
    1ed8:	05020300 	streq	r0, [r2, #-768]	; 0x300
    1edc:	00000131 	andeq	r0, r0, r1, lsr r1
    1ee0:	28050403 	stmdacs	r5, {r0, r1, sl}
    1ee4:	03000001 	movweq	r0, #1
    1ee8:	01230508 	teqeq	r3, r8, lsl #10
    1eec:	01030000 	mrseq	r0, (UNDEF: 3)
    1ef0:	0000a808 	andeq	sl, r0, r8, lsl #16
    1ef4:	07020300 	streq	r0, [r2, -r0, lsl #6]
    1ef8:	000000cc 	andeq	r0, r0, ip, asr #1
    1efc:	fb070403 	blx	1c2f12 <__bss_end__+0x1b93d2>
    1f00:	03000000 	movweq	r0, #0
    1f04:	00f60708 	rscseq	r0, r6, r8, lsl #14
    1f08:	04030000 	streq	r0, [r3], #-0
    1f0c:	00011a07 	andeq	r1, r1, r7, lsl #20
    1f10:	08010300 	stmdaeq	r1, {r8, r9}
    1f14:	000000b1 	strheq	r0, [r0], -r1
    1f18:	00013b04 	andeq	r3, r1, r4, lsl #22
    1f1c:	c4030100 	strgt	r0, [r3], #-256	; 0x100
    1f20:	1000008c 	andne	r0, r0, ip, lsl #1
    1f24:	01000000 	mrseq	r0, (UNDEF: 0)
    1f28:	00009c9c 	muleq	r0, ip, ip
    1f2c:	00720500 	rsbseq	r0, r2, r0, lsl #10
    1f30:	002c0401 	eoreq	r0, ip, r1, lsl #8
    1f34:	12c60000 	sbcne	r0, r6, #0
    1f38:	06000000 	streq	r0, [r0], -r0
    1f3c:	0000041c 	andeq	r0, r0, ip, lsl r4
    1f40:	8cd40c01 	ldclhi	12, cr0, [r4], {1}
    1f44:	00100000 	andseq	r0, r0, r0
    1f48:	9c010000 	stcls	0, cr0, [r1], {-0}
    1f4c:	01007205 	tsteq	r0, r5, lsl #4
    1f50:	00002c0d 	andeq	r2, r0, sp, lsl #24
    1f54:	0012ea00 	andseq	lr, r2, r0, lsl #20
    1f58:	ff000000 			; <UNDEFINED> instruction: 0xff000000
    1f5c:	04000000 	streq	r0, [r0], #-0
    1f60:	0008eb00 	andeq	lr, r8, r0, lsl #22
    1f64:	29010400 	stmdbcs	r1, {sl}
    1f68:	01000000 	mrseq	r0, (UNDEF: 0)
    1f6c:	00000448 	andeq	r0, r0, r8, asr #8
    1f70:	00000345 	andeq	r0, r0, r5, asr #6
    1f74:	00008ce4 	andeq	r8, r0, r4, ror #25
    1f78:	00000028 	andeq	r0, r0, r8, lsr #32
    1f7c:	00000986 	andeq	r0, r0, r6, lsl #19
    1f80:	69050402 	stmdbvs	r5, {r1, sl}
    1f84:	0300746e 	movweq	r7, #1134	; 0x46e
    1f88:	01000704 	tsteq	r0, r4, lsl #14
    1f8c:	01030000 	mrseq	r0, (UNDEF: 3)
    1f90:	0000aa06 	andeq	sl, r0, r6, lsl #20
    1f94:	05020300 	streq	r0, [r2, #-768]	; 0x300
    1f98:	00000131 	andeq	r0, r0, r1, lsr r1
    1f9c:	28050403 	stmdacs	r5, {r0, r1, sl}
    1fa0:	03000001 	movweq	r0, #1
    1fa4:	01230508 	teqeq	r3, r8, lsl #10
    1fa8:	01030000 	mrseq	r0, (UNDEF: 3)
    1fac:	0000a808 	andeq	sl, r0, r8, lsl #16
    1fb0:	07020300 	streq	r0, [r2, -r0, lsl #6]
    1fb4:	000000cc 	andeq	r0, r0, ip, asr #1
    1fb8:	fb070403 	blx	1c2fce <__bss_end__+0x1b948e>
    1fbc:	03000000 	movweq	r0, #0
    1fc0:	00f60708 	rscseq	r0, r6, r8, lsl #14
    1fc4:	04030000 	streq	r0, [r3], #-0
    1fc8:	00011a07 	andeq	r1, r1, r7, lsl #20
    1fcc:	08010300 	stmdaeq	r1, {r8, r9}
    1fd0:	000000b1 	strheq	r0, [r0], -r1
    1fd4:	007f0404 	rsbseq	r0, pc, r4, lsl #8
    1fd8:	72050000 	andvc	r0, r5, #0
    1fdc:	06000000 	streq	r0, [r0], -r0
    1fe0:	000000bf 	strheq	r0, [r0], -pc	; <UNPREDICTABLE>
    1fe4:	8ce40401 	cfstrdhi	mvd0, [r4], #4
    1fe8:	00280000 	eoreq	r0, r8, r0
    1fec:	9c010000 	stcls	0, cr0, [r1], {-0}
    1ff0:	000000ca 	andeq	r0, r0, sl, asr #1
    1ff4:	008cf807 	addeq	pc, ip, r7, lsl #16
    1ff8:	0000ac00 	andeq	sl, r0, r0, lsl #24
    1ffc:	50010800 	andpl	r0, r1, r0, lsl #16
    2000:	97340305 	ldrls	r0, [r4, -r5, lsl #6]!
    2004:	09000000 	stmdbeq	r0, {}	; <UNPREDICTABLE>
    2008:	00008d00 	andeq	r8, r0, r0, lsl #26
    200c:	000000ea 	andeq	r0, r0, sl, ror #1
    2010:	000000c0 	andeq	r0, r0, r0, asr #1
    2014:	02500108 	subseq	r0, r0, #8, 2
    2018:	0a006408 	beq	1b040 <__bss_end__+0x11500>
    201c:	00008d04 	andeq	r8, r0, r4, lsl #26
    2020:	000000fb 	strdeq	r0, [r0], -fp
    2024:	00250b00 	eoreq	r0, r5, r0, lsl #22
    2028:	00d90000 	sbcseq	r0, r9, r0
    202c:	790c0000 	stmdbvc	ip, {}	; <UNPREDICTABLE>
    2030:	00000000 	andeq	r0, r0, r0
    2034:	00039e0d 	andeq	r9, r3, sp, lsl #28
    2038:	e4200200 	strt	r0, [r0], #-512	; 0x200
    203c:	04000000 	streq	r0, [r0], #-0
    2040:	0000ca04 	andeq	ip, r0, r4, lsl #20
    2044:	00b60e00 	adcseq	r0, r6, r0, lsl #28
    2048:	4d020000 	stcmi	0, cr0, [r2, #-0]
    204c:	000000fb 	strdeq	r0, [r0], -fp
    2050:	00002c0c 	andeq	r2, r0, ip, lsl #24
    2054:	3d0f0000 	stccc	0, cr0, [pc, #-0]	; 205c <_start-0x5fa4>
    2058:	02000004 	andeq	r0, r0, #4
    205c:	010b0060 	tsteq	fp, r0, rrx
    2060:	00040000 	andeq	r0, r4, r0
    2064:	000009b5 			; <UNDEFINED> instruction: 0x000009b5
    2068:	00290104 	eoreq	r0, r9, r4, lsl #2
    206c:	62010000 	andvs	r0, r1, #0
    2070:	45000004 	strmi	r0, [r0, #-4]
    2074:	0c000003 	stceq	0, cr0, [r0], {3}
    2078:	3400008d 	strcc	r0, [r0], #-141	; 0x8d
    207c:	1d000000 	stcne	0, cr0, [r0, #-0]
    2080:	0200000a 	andeq	r0, r0, #10
    2084:	6e690504 	cdpvs	5, 6, cr0, cr9, cr4, {0}
    2088:	04030074 	streq	r0, [r3], #-116	; 0x74
    208c:	00010007 	andeq	r0, r1, r7
    2090:	06010300 	streq	r0, [r1], -r0, lsl #6
    2094:	000000aa 	andeq	r0, r0, sl, lsr #1
    2098:	31050203 	tstcc	r5, r3, lsl #4
    209c:	03000001 	movweq	r0, #1
    20a0:	01280504 	teqeq	r8, r4, lsl #10
    20a4:	08030000 	stmdaeq	r3, {}	; <UNPREDICTABLE>
    20a8:	00012305 	andeq	r2, r1, r5, lsl #6
    20ac:	08010300 	stmdaeq	r1, {r8, r9}
    20b0:	000000a8 	andeq	r0, r0, r8, lsr #1
    20b4:	cc070203 	sfmgt	f0, 4, [r7], {3}
    20b8:	03000000 	movweq	r0, #0
    20bc:	00fb0704 	rscseq	r0, fp, r4, lsl #14
    20c0:	08030000 	stmdaeq	r3, {}	; <UNPREDICTABLE>
    20c4:	0000f607 	andeq	pc, r0, r7, lsl #12
    20c8:	07040300 	streq	r0, [r4, -r0, lsl #6]
    20cc:	0000011a 	andeq	r0, r0, sl, lsl r1
    20d0:	b1080103 	tstlt	r8, r3, lsl #2
    20d4:	04000000 	streq	r0, [r0], #-0
    20d8:	00000498 	muleq	r0, r8, r4
    20dc:	8d0c0301 	stchi	3, cr0, [ip, #-4]
    20e0:	00340000 	eorseq	r0, r4, r0
    20e4:	9c010000 	stcls	0, cr0, [r1], {-0}
    20e8:	000000de 	ldrdeq	r0, [r0], -lr
    20ec:	00047605 	andeq	r7, r4, r5, lsl #12
    20f0:	25040100 	strcs	r0, [r4, #-256]	; 0x100
    20f4:	05000000 	streq	r0, [r0, #-0]
    20f8:	00000484 	andeq	r0, r0, r4, lsl #9
    20fc:	00250401 	eoreq	r0, r5, r1, lsl #8
    2100:	80060000 	andhi	r0, r6, r0
    2104:	01000000 	mrseq	r0, (UNDEF: 0)
    2108:	0000b105 	andeq	fp, r0, r5, lsl #2
    210c:	08000700 	stmdaeq	r0, {r8, r9, sl}
    2110:	00737362 	rsbseq	r7, r3, r2, ror #6
    2114:	00de0701 	sbcseq	r0, lr, r1, lsl #14
    2118:	130e0000 	movwne	r0, #57344	; 0xe000
    211c:	90090000 	andls	r0, r9, r0
    2120:	01000004 	tsteq	r0, r4
    2124:	0000de08 	andeq	sp, r0, r8, lsl #28
    2128:	8d340a00 	vldmdbhi	r4!, {s0-s-1}
    212c:	00fa0000 	rscseq	r0, sl, r0
    2130:	380a0000 	stmdacc	sl, {}	; <UNPREDICTABLE>
    2134:	0700008d 	streq	r0, [r0, -sp, lsl #1]
    2138:	00000001 	andeq	r0, r0, r1
    213c:	0025040b 	eoreq	r0, r5, fp, lsl #8
    2140:	76050000 	strvc	r0, [r5], -r0
    2144:	01000004 	tsteq	r0, r4
    2148:	00002504 	andeq	r2, r0, r4, lsl #10
    214c:	04840500 	streq	r0, [r4], #1280	; 0x500
    2150:	04010000 	streq	r0, [r1], #-0
    2154:	00000025 	andeq	r0, r0, r5, lsr #32
    2158:	00008006 	andeq	r8, r0, r6
    215c:	07050100 	streq	r0, [r5, -r0, lsl #2]
    2160:	07000001 	streq	r0, [r0, -r1]
    2164:	043d0c00 	ldrteq	r0, [sp], #-3072	; 0xc00
    2168:	60020000 	andvs	r0, r2, r0
    216c:	0001ad00 	andeq	sl, r1, r0, lsl #26
    2170:	5f000400 	svcpl	0x00000400
    2174:	0400000a 	streq	r0, [r0], #-10
    2178:	00002901 	andeq	r2, r0, r1, lsl #18
    217c:	04ba0100 	ldrteq	r0, [sl], #256	; 0x100
    2180:	03450000 	movteq	r0, #20480	; 0x5000
    2184:	00180000 	andseq	r0, r8, r0
    2188:	00000000 	andeq	r0, r0, r0
    218c:	0ab70000 	beq	fedc2194 <__bss_end__+0xfedb8654>
    2190:	04020000 	streq	r0, [r2], #-0
    2194:	746e6905 	strbtvc	r6, [lr], #-2309	; 0x905
    2198:	07040300 	streq	r0, [r4, -r0, lsl #6]
    219c:	00000100 	andeq	r0, r0, r0, lsl #2
    21a0:	aa060103 	bge	1825b4 <__bss_end__+0x178a74>
    21a4:	03000000 	movweq	r0, #0
    21a8:	01310502 	teqeq	r1, r2, lsl #10
    21ac:	04030000 	streq	r0, [r3], #-0
    21b0:	00012805 	andeq	r2, r1, r5, lsl #16
    21b4:	05080300 	streq	r0, [r8, #-768]	; 0x300
    21b8:	00000123 	andeq	r0, r0, r3, lsr #2
    21bc:	a8080103 	stmdage	r8, {r0, r1, r8}
    21c0:	03000000 	movweq	r0, #0
    21c4:	00cc0702 	sbceq	r0, ip, r2, lsl #14
    21c8:	04030000 	streq	r0, [r3], #-0
    21cc:	0000fb07 	andeq	pc, r0, r7, lsl #22
    21d0:	07080300 	streq	r0, [r8, -r0, lsl #6]
    21d4:	000000f6 	strdeq	r0, [r0], -r6
    21d8:	1a070403 	bne	1c31ec <__bss_end__+0x1b96ac>
    21dc:	03000001 	movweq	r0, #1
    21e0:	00b10801 	adcseq	r0, r1, r1, lsl #16
    21e4:	a0040000 	andge	r0, r4, r0
    21e8:	01000004 	tsteq	r0, r4
    21ec:	0000250e 	andeq	r2, r0, lr, lsl #10
    21f0:	008d4000 	addeq	r4, sp, r0
    21f4:	00001800 	andeq	r1, r0, r0, lsl #16
    21f8:	a29c0100 	addsge	r0, ip, #0, 2
    21fc:	05000000 	streq	r0, [r0, #-0]
    2200:	0000050c 	andeq	r0, r0, ip, lsl #10
    2204:	002c0f01 	eoreq	r0, ip, r1, lsl #30
    2208:	132e0000 	teqne	lr, #0
    220c:	06000000 	streq	r0, [r0], -r0
    2210:	000004ef 	andeq	r0, r0, pc, ror #9
    2214:	8d581701 	ldclhi	7, cr1, [r8, #-4]
    2218:	00140000 	andseq	r0, r4, r0
    221c:	9c010000 	stcls	0, cr0, [r1], {-0}
    2220:	000000c7 	andeq	r0, r0, r7, asr #1
    2224:	00050c05 	andeq	r0, r5, r5, lsl #24
    2228:	2c180100 	ldfcss	f0, [r8], {-0}
    222c:	4d000000 	stcmi	0, cr0, [r0, #-0]
    2230:	00000013 	andeq	r0, r0, r3, lsl r0
    2234:	00043d06 	andeq	r3, r4, r6, lsl #26
    2238:	6c1f0100 	ldfvss	f0, [pc], {-0}
    223c:	4800008d 	stmdami	r0, {r0, r2, r3, r7}
    2240:	01000000 	mrseq	r0, (UNDEF: 0)
    2244:	0001779c 	muleq	r1, ip, r7
    2248:	05040700 	streq	r0, [r4, #-1792]	; 0x700
    224c:	2a010000 	bcs	42254 <__bss_end__+0x38714>
    2250:	00000177 	andeq	r0, r0, r7, ror r1
    2254:	2010001c 	andscs	r0, r0, ip, lsl r0
    2258:	0004e707 	andeq	lr, r4, r7, lsl #14
    225c:	772b0100 	strvc	r0, [fp, -r0, lsl #2]!
    2260:	24000001 	strcs	r0, [r0], #-1
    2264:	07201000 	streq	r1, [r0, -r0]!
    2268:	000004ae 	andeq	r0, r0, lr, lsr #9
    226c:	01772c01 	cmneq	r7, r1, lsl #24
    2270:	00000000 	andeq	r0, r0, r0
    2274:	ce085a00 	vmlagt.f32	s10, s16, s0
    2278:	01000004 	tsteq	r0, r4
    227c:	0001772d 	andeq	r7, r1, sp, lsr #14
    2280:	74092000 	strvc	r2, [r9], #-0
    2284:	7900008d 	stmdbvc	r0, {r0, r2, r3, r7}
    2288:	09000000 	stmdbeq	r0, {}	; <UNPREDICTABLE>
    228c:	00008d80 	andeq	r8, r0, r0, lsl #27
    2290:	000000a2 	andeq	r0, r0, r2, lsr #1
    2294:	008d880a 	addeq	r8, sp, sl, lsl #16
    2298:	00018d00 	andeq	r8, r1, r0, lsl #26
    229c:	00013a00 	andeq	r3, r1, r0, lsl #20
    22a0:	50010b00 	andpl	r0, r1, r0, lsl #22
    22a4:	0a004e01 	beq	15ab0 <__bss_end__+0xbf70>
    22a8:	00008d94 	muleq	r0, r4, sp
    22ac:	0000019e 	muleq	r0, lr, r1
    22b0:	0000015a 	andeq	r0, r0, sl, asr r1
    22b4:	0551010b 	ldrbeq	r0, [r1, #-267]	; 0x10b
    22b8:	0000010c 	andeq	r0, r0, ip, lsl #2
    22bc:	50010b5a 	andpl	r0, r1, sl, asr fp
    22c0:	00240c05 	eoreq	r0, r4, r5, lsl #24
    22c4:	0c002010 	stceq	0, cr2, [r0], {16}
    22c8:	00008da0 	andeq	r8, r0, r0, lsr #27
    22cc:	0000019e 	muleq	r0, lr, r1
    22d0:	0551010b 	ldrbeq	r0, [r1, #-267]	; 0x10b
    22d4:	0000200c 	andeq	r2, r0, ip
    22d8:	50010b5a 	andpl	r0, r1, sl, asr fp
    22dc:	001c0c05 	andseq	r0, ip, r5, lsl #24
    22e0:	00002010 	andeq	r2, r0, r0, lsl r0
    22e4:	0000250d 	andeq	r2, r0, sp, lsl #10
    22e8:	04a30800 	strteq	r0, [r3], #2048	; 0x800
    22ec:	0d010000 	stceq	0, cr0, [r1, #-0]
    22f0:	00000188 	andeq	r0, r0, r8, lsl #3
    22f4:	002c0d10 	eoreq	r0, ip, r0, lsl sp
    22f8:	b60e0000 	strlt	r0, [lr], -r0
    22fc:	02000000 	andeq	r0, r0, #0
    2300:	00019e4d 	andeq	r9, r1, sp, asr #28
    2304:	002c0f00 	eoreq	r0, ip, r0, lsl #30
    2308:	10000000 	andne	r0, r0, r0
    230c:	000004fe 	strdeq	r0, [r0], -lr
    2310:	2c0f9402 	cfstrscs	mvf9, [pc], {2}
    2314:	0f000000 	svceq	0x00000000
    2318:	0000002c 	andeq	r0, r0, ip, lsr #32
    231c:	01d80000 	bicseq	r0, r8, r0
    2320:	00040000 	andeq	r0, r4, r0
    2324:	00000b4d 	andeq	r0, r0, sp, asr #22
    2328:	00290104 	eoreq	r0, r9, r4, lsl #2
    232c:	1b010000 	blne	42334 <__bss_end__+0x387f4>
    2330:	45000005 	strmi	r0, [r0, #-5]
    2334:	b4000003 	strlt	r0, [r0], #-3
    2338:	8800008d 	stmdahi	r0, {r0, r2, r3, r7}
    233c:	54000000 	strpl	r0, [r0], #-0
    2340:	0200000b 	andeq	r0, r0, #11
    2344:	6e690504 	cdpvs	5, 6, cr0, cr9, cr4, {0}
    2348:	04030074 	streq	r0, [r3], #-116	; 0x74
    234c:	00010007 	andeq	r0, r1, r7
    2350:	06010300 	streq	r0, [r1], -r0, lsl #6
    2354:	000000aa 	andeq	r0, r0, sl, lsr #1
    2358:	31050203 	tstcc	r5, r3, lsl #4
    235c:	03000001 	movweq	r0, #1
    2360:	01280504 	teqeq	r8, r4, lsl #10
    2364:	08030000 	stmdaeq	r3, {}	; <UNPREDICTABLE>
    2368:	00012305 	andeq	r2, r1, r5, lsl #6
    236c:	08010300 	stmdaeq	r1, {r8, r9}
    2370:	000000a8 	andeq	r0, r0, r8, lsr #1
    2374:	cc070203 	sfmgt	f0, 4, [r7], {3}
    2378:	03000000 	movweq	r0, #0
    237c:	00fb0704 	rscseq	r0, fp, r4, lsl #14
    2380:	08030000 	stmdaeq	r3, {}	; <UNPREDICTABLE>
    2384:	0000f607 	andeq	pc, r0, r7, lsl #12
    2388:	07040300 	streq	r0, [r4, -r0, lsl #6]
    238c:	0000011a 	andeq	r0, r0, sl, lsl r1
    2390:	b1080103 	tstlt	r8, r3, lsl #2
    2394:	04000000 	streq	r0, [r0], #-0
    2398:	0000053a 	andeq	r0, r0, sl, lsr r5
    239c:	8db40501 	cfldr32hi	mvfx0, [r4, #4]!
    23a0:	001c0000 	andseq	r0, ip, r0
    23a4:	9c010000 	stcls	0, cr0, [r1], {-0}
    23a8:	0000009e 	muleq	r0, lr, r0
    23ac:	00053405 	andeq	r3, r5, r5, lsl #8
    23b0:	2c050100 	stfcss	f0, [r5], {-0}
    23b4:	77000000 	strvc	r0, [r0, -r0]
    23b8:	00000013 	andeq	r0, r0, r3, lsl r0
    23bc:	0002b506 	andeq	fp, r2, r6, lsl #10
    23c0:	2c0b0100 	stfcss	f0, [fp], {-0}
    23c4:	d0000000 	andle	r0, r0, r0
    23c8:	1400008d 	strne	r0, [r0], #-141	; 0x8d
    23cc:	01000000 	mrseq	r0, (UNDEF: 0)
    23d0:	0000cb9c 	muleq	r0, ip, fp
    23d4:	8ddc0700 	ldclhi	7, cr0, [ip]
    23d8:	01ca0000 	biceq	r0, sl, r0
    23dc:	01080000 	mrseq	r0, (UNDEF: 8)
    23e0:	040c0550 	streq	r0, [ip], #-1360	; 0x550
    23e4:	00200030 	eoreq	r0, r0, r0, lsr r0
    23e8:	05500600 	ldrbeq	r0, [r0, #-1536]	; 0x600
    23ec:	10010000 	andne	r0, r1, r0
    23f0:	0000002c 	andeq	r0, r0, ip, lsr #32
    23f4:	00008de4 	andeq	r8, r0, r4, ror #27
    23f8:	0000000c 	andeq	r0, r0, ip
    23fc:	00f99c01 	rscseq	r9, r9, r1, lsl #24
    2400:	75090000 	strvc	r0, [r9, #-0]
    2404:	2c140100 	ldfcss	f0, [r4], {-0}
    2408:	01000000 	mrseq	r0, (UNDEF: 0)
    240c:	8dec0a50 	stclhi	10, cr0, [ip, #320]!	; 0x140
    2410:	009e0000 	addseq	r0, lr, r0
    2414:	04000000 	streq	r0, [r0], #-0
    2418:	00000547 	andeq	r0, r0, r7, asr #10
    241c:	8df01901 	ldclhi	9, cr1, [r0, #4]!
    2420:	00240000 	eoreq	r0, r4, r0
    2424:	9c010000 	stcls	0, cr0, [r1], {-0}
    2428:	00000157 	andeq	r0, r0, r7, asr r1
    242c:	0073750b 	rsbseq	r7, r3, fp, lsl #10
    2430:	002c1901 	eoreq	r1, ip, r1, lsl #18
    2434:	13ab0000 			; <UNDEFINED> instruction: 0x13ab0000
    2438:	72090000 	andvc	r0, r9, #0
    243c:	1a010062 	bne	425cc <__bss_end__+0x38a8c>
    2440:	0000002c 	andeq	r0, r0, ip, lsr #32
    2444:	000c5401 	andeq	r5, ip, r1, lsl #8
    2448:	1000008e 	andne	r0, r0, lr, lsl #1
    244c:	4d000000 	stcmi	0, cr0, [r0, #-0]
    2450:	0d000001 	stceq	0, cr0, [r0, #-4]
    2454:	01006172 	tsteq	r0, r2, ror r1
    2458:	00002c1c 	andeq	r2, r0, ip, lsl ip
    245c:	0013c900 	andseq	ip, r3, r0, lsl #18
    2460:	8e040a00 	vmlahi.f32	s0, s8, s0
    2464:	00cb0000 	sbceq	r0, fp, r0
    2468:	0a000000 	beq	2470 <_start-0x5b90>
    246c:	00008dfc 	strdeq	r8, [r0], -ip
    2470:	000000cb 	andeq	r0, r0, fp, asr #1
    2474:	00b60400 	adcseq	r0, r6, r0, lsl #8
    2478:	22010000 	andcs	r0, r1, #0
    247c:	00008e14 	andeq	r8, r0, r4, lsl lr
    2480:	00000014 	andeq	r0, r0, r4, lsl r0
    2484:	01909c01 	orrseq	r9, r0, r1, lsl #24
    2488:	6d0b0000 	stcvs	0, cr0, [fp, #-0]
    248c:	22010073 	andcs	r0, r1, #115	; 0x73
    2490:	0000002c 	andeq	r0, r0, ip, lsr #32
    2494:	000013dc 	ldrdeq	r1, [r0], -ip
    2498:	008e2407 	addeq	r2, lr, r7, lsl #8
    249c:	0000f900 	andeq	pc, r0, r0, lsl #18
    24a0:	50010800 	andpl	r0, r1, r0, lsl #16
    24a4:	5001f307 	andpl	pc, r1, r7, lsl #6
    24a8:	1e03e80a 	cdpne	8, 0, cr14, cr3, cr10, {0}
    24ac:	11040000 	mrsne	r0, (UNDEF: 4)
    24b0:	01000005 	tsteq	r0, r5
    24b4:	008e2825 	addeq	r2, lr, r5, lsr #16
    24b8:	00001400 	andeq	r1, r0, r0, lsl #8
    24bc:	ca9c0100 	bgt	fe7028c4 <__bss_end__+0xfe6f8d84>
    24c0:	0b000001 	bleq	24cc <_start-0x5b34>
    24c4:	00636573 	rsbeq	r6, r3, r3, ror r5
    24c8:	002c2501 	eoreq	r2, ip, r1, lsl #10
    24cc:	13fd0000 	mvnsne	r0, #0
    24d0:	38070000 	stmdacc	r7, {}	; <UNPREDICTABLE>
    24d4:	5700008e 	strpl	r0, [r0, -lr, lsl #1]
    24d8:	08000001 	stmdaeq	r0, {r0}
    24dc:	f3075001 	vhadd.u8	d5, d7, d1
    24e0:	e80a5001 	stmda	sl, {r0, ip, lr}
    24e4:	00001e03 	andeq	r1, r0, r3, lsl #28
    24e8:	00052e0e 	andeq	r2, r5, lr, lsl #28
    24ec:	2ca00200 	sfmcs	f0, 4, [r0]
    24f0:	0f000000 	svceq	0x00000000
    24f4:	0000002c 	andeq	r0, r0, ip, lsr #32
    24f8:	03ff0000 	mvnseq	r0, #0
    24fc:	00040000 	andeq	r0, r4, r0
    2500:	00000c30 	andeq	r0, r0, r0, lsr ip
    2504:	00290104 	eoreq	r0, r9, r4, lsl #2
    2508:	92010000 	andls	r0, r1, #0
    250c:	45000002 	strmi	r0, [r0, #-2]
    2510:	88000003 	stmdahi	r0, {r0, r1}
    2514:	5400008e 	strpl	r0, [r0], #-142	; 0x8e
    2518:	fb000001 	blx	2526 <_start-0x5ada>
    251c:	0200000b 	andeq	r0, r0, #11
    2520:	6e690504 	cdpvs	5, 6, cr0, cr9, cr4, {0}
    2524:	04030074 	streq	r0, [r3], #-116	; 0x74
    2528:	00010007 	andeq	r0, r1, r7
    252c:	06010300 	streq	r0, [r1], -r0, lsl #6
    2530:	000000aa 	andeq	r0, r0, sl, lsr #1
    2534:	31050203 	tstcc	r5, r3, lsl #4
    2538:	03000001 	movweq	r0, #1
    253c:	01280504 	teqeq	r8, r4, lsl #10
    2540:	08030000 	stmdaeq	r3, {}	; <UNPREDICTABLE>
    2544:	00012305 	andeq	r2, r1, r5, lsl #6
    2548:	08010300 	stmdaeq	r1, {r8, r9}
    254c:	000000a8 	andeq	r0, r0, r8, lsr #1
    2550:	cc070203 	sfmgt	f0, 4, [r7], {3}
    2554:	03000000 	movweq	r0, #0
    2558:	00fb0704 	rscseq	r0, fp, r4, lsl #14
    255c:	08030000 	stmdaeq	r3, {}	; <UNPREDICTABLE>
    2560:	0000f607 	andeq	pc, r0, r7, lsl #12
    2564:	07040300 	streq	r0, [r4, -r0, lsl #6]
    2568:	0000011a 	andeq	r0, r0, sl, lsl r1
    256c:	b1080103 	tstlt	r8, r3, lsl #2
    2570:	04000000 	streq	r0, [r0], #-0
    2574:	b20c0201 	andlt	r0, ip, #268435456	; 0x10000000
    2578:	05000000 	streq	r0, [r0, #-0]
    257c:	000006d0 	ldrdeq	r0, [r0], -r0	; <UNPREDICTABLE>
    2580:	05d20500 	ldrbeq	r0, [r2, #1280]	; 0x500
    2584:	05010000 	streq	r0, [r1, #-0]
    2588:	0000058b 	andeq	r0, r0, fp, lsl #11
    258c:	05e30504 	strbeq	r0, [r3, #1284]!	; 0x504
    2590:	05050000 	streq	r0, [r5, #-0]
    2594:	000005f2 	strdeq	r0, [r0], -r2
    2598:	06010506 	streq	r0, [r1], -r6, lsl #10
    259c:	05070000 	streq	r0, [r7, #-0]
    25a0:	00000691 	muleq	r0, r1, r6
    25a4:	06100503 	ldreq	r0, [r0], -r3, lsl #10
    25a8:	00020000 	andeq	r0, r2, r0
    25ac:	00064306 	andeq	r4, r6, r6, lsl #6
    25b0:	79150200 	ldmdbvc	r5, {r9}
    25b4:	07000000 	streq	r0, [r0, -r0]
    25b8:	0000059a 	muleq	r0, sl, r5
    25bc:	00255701 	eoreq	r5, r5, r1, lsl #14
    25c0:	8e880000 	cdphi	0, 8, cr0, cr8, cr0, {0}
    25c4:	001c0000 	andseq	r0, ip, r0
    25c8:	9c010000 	stcls	0, cr0, [r1], {-0}
    25cc:	000000e0 	andeq	r0, r0, r0, ror #1
    25d0:	008e9808 	addeq	r9, lr, r8, lsl #16
    25d4:	0003a800 	andeq	sl, r3, r0, lsl #16
    25d8:	9e090000 	cdpls	0, 0, cr0, cr9, cr0, {0}
    25dc:	01000000 	mrseq	r0, (UNDEF: 0)
    25e0:	008ea437 	addeq	sl, lr, r7, lsr r4
    25e4:	00009c00 	andeq	r9, r0, r0, lsl #24
    25e8:	e69c0100 	ldr	r0, [ip], r0, lsl #2
    25ec:	08000001 	stmdaeq	r0, {r0}
    25f0:	00008eac 	andeq	r8, r0, ip, lsr #29
    25f4:	000003c9 	andeq	r0, r0, r9, asr #7
    25f8:	008eb80a 	addeq	fp, lr, sl, lsl #16
    25fc:	0003d000 	andeq	sp, r3, r0
    2600:	00011600 	andeq	r1, r1, r0, lsl #12
    2604:	51010b00 	tstpl	r1, r0, lsl #22
    2608:	010b3201 	tsteq	fp, r1, lsl #4
    260c:	003e0150 	eorseq	r0, lr, r0, asr r1
    2610:	008ec40a 	addeq	ip, lr, sl, lsl #8
    2614:	0003d000 	andeq	sp, r3, r0
    2618:	00012e00 	andeq	r2, r1, r0, lsl #28
    261c:	51010b00 	tstpl	r1, r0, lsl #22
    2620:	010b3201 	tsteq	fp, r1, lsl #4
    2624:	003f0150 	eorseq	r0, pc, r0, asr r1	; <UNPREDICTABLE>
    2628:	008ec808 	addeq	ip, lr, r8, lsl #16
    262c:	0003c900 	andeq	ip, r3, r0, lsl #18
    2630:	8ed80a00 	vfnmshi.f32	s1, s16, s0
    2634:	03a80000 			; <UNDEFINED> instruction: 0x03a80000
    2638:	014b0000 	mrseq	r0, (UNDEF: 75)
    263c:	010b0000 	mrseq	r0, (UNDEF: 11)
    2640:	00750250 	rsbseq	r0, r5, r0, asr r2
    2644:	8ee40a00 	vfmahi.f32	s1, s8, s0
    2648:	03e60000 	mvneq	r0, #0
    264c:	015f0000 	cmpeq	pc, r0
    2650:	010b0000 	mrseq	r0, (UNDEF: 11)
    2654:	00750250 	rsbseq	r0, r5, r0, asr r2
    2658:	8ee80800 	cdphi	8, 14, cr0, cr8, cr0, {0}
    265c:	03c90000 	biceq	r0, r9, #0
    2660:	f40a0000 	vst4.8	{d0-d3}, [sl], r0
    2664:	e600008e 	str	r0, [r0], -lr, lsl #1
    2668:	7b000003 	blvc	267c <_start-0x5984>
    266c:	0b000001 	bleq	2678 <_start-0x5988>
    2670:	30015101 	andcc	r5, r1, r1, lsl #2
    2674:	8f000a00 	svchi	0x00000a00
    2678:	03e60000 	mvneq	r0, #0
    267c:	018e0000 	orreq	r0, lr, r0
    2680:	010b0000 	mrseq	r0, (UNDEF: 11)
    2684:	00300151 	eorseq	r0, r0, r1, asr r1
    2688:	008f0c0a 	addeq	r0, pc, sl, lsl #24
    268c:	0003e600 	andeq	lr, r3, r0, lsl #12
    2690:	0001a100 	andeq	sl, r1, r0, lsl #2
    2694:	51010b00 	tstpl	r1, r0, lsl #22
    2698:	0a003601 	beq	fea4 <__bss_end__+0x6364>
    269c:	00008f18 	andeq	r8, r0, r8, lsl pc
    26a0:	000003e6 	andeq	r0, r0, r6, ror #7
    26a4:	000001b4 			; <UNDEFINED> instruction: 0x000001b4
    26a8:	0151010b 	cmpeq	r1, fp, lsl #2
    26ac:	240a0033 	strcs	r0, [sl], #-51	; 0x33
    26b0:	e600008f 	str	r0, [r0], -pc, lsl #1
    26b4:	c9000003 	stmdbgt	r0, {r0, r1}
    26b8:	0b000001 	bleq	26c4 <_start-0x593c>
    26bc:	0a035101 	beq	d6ac8 <__bss_end__+0xccf88>
    26c0:	0a00010e 	beq	2b00 <_start-0x5500>
    26c4:	00008f30 	andeq	r8, r0, r0, lsr pc
    26c8:	000003e6 	andeq	r0, r0, r6, ror #7
    26cc:	000001dc 	ldrdeq	r0, [r0], -ip
    26d0:	0151010b 	cmpeq	r1, fp, lsl #2
    26d4:	34080033 	strcc	r0, [r8], #-51	; 0x33
    26d8:	c900008f 	stmdbgt	r0, {r0, r1, r2, r3, r7}
    26dc:	00000003 	andeq	r0, r0, r3
    26e0:	0002250c 	andeq	r2, r2, ip, lsl #10
    26e4:	255d0100 	ldrbcs	r0, [sp, #-256]	; 0x100
    26e8:	40000000 	andmi	r0, r0, r0
    26ec:	2800008f 	stmdacs	r0, {r0, r1, r2, r3, r7}
    26f0:	01000000 	mrseq	r0, (UNDEF: 0)
    26f4:	0002129c 	muleq	r2, ip, r2
    26f8:	8f480800 	svchi	0x00480800
    26fc:	00bd0000 	adcseq	r0, sp, r0
    2700:	5c080000 	stcpl	0, cr0, [r8], {-0}
    2704:	a800008f 	stmdage	r0, {r0, r1, r2, r3, r7}
    2708:	00000003 	andeq	r0, r0, r3
    270c:	00064f0c 	andeq	r4, r6, ip, lsl #30
    2710:	25640100 	strbcs	r0, [r4, #-256]!	; 0x100
    2714:	68000000 	stmdavs	r0, {}	; <UNPREDICTABLE>
    2718:	1c00008f 	stcne	0, cr0, [r0], {143}	; 0x8f
    271c:	01000000 	mrseq	r0, (UNDEF: 0)
    2720:	0002359c 	muleq	r2, ip, r5
    2724:	8f780800 	svchi	0x00780800
    2728:	03a80000 			; <UNDEFINED> instruction: 0x03a80000
    272c:	09000000 	stmdbeq	r0, {}	; <UNPREDICTABLE>
    2730:	00000255 	andeq	r0, r0, r5, asr r2
    2734:	8f846a01 	svchi	0x00846a01
    2738:	002c0000 	eoreq	r0, ip, r0
    273c:	9c010000 	stcls	0, cr0, [r1], {-0}
    2740:	00000271 	andeq	r0, r0, r1, ror r2
    2744:	0100630d 	tsteq	r0, sp, lsl #6
    2748:	00002c6a 	andeq	r2, r0, sl, ror #24
    274c:	00141e00 	andseq	r1, r4, r0, lsl #28
    2750:	8f900800 	svchi	0x00900800
    2754:	02120000 	andseq	r0, r2, #0
    2758:	a80e0000 	stmdage	lr, {}	; <UNPREDICTABLE>
    275c:	e600008f 	str	r0, [r0], -pc, lsl #1
    2760:	0b000003 	bleq	2774 <_start-0x588c>
    2764:	74025101 	strvc	r5, [r2], #-257	; 0x101
    2768:	0c000000 	stceq	0, cr0, [r0], {-0}
    276c:	000005b8 			; <UNDEFINED> instruction: 0x000005b8
    2770:	00257401 	eoreq	r7, r5, r1, lsl #8
    2774:	8fb00000 	svchi	0x00b00000
    2778:	000c0000 	andeq	r0, ip, r0
    277c:	9c010000 	stcls	0, cr0, [r1], {-0}
    2780:	00000294 	muleq	r0, r4, r2
    2784:	008fb808 	addeq	fp, pc, r8, lsl #16
    2788:	0000bd00 	andeq	fp, r0, r0, lsl #26
    278c:	ef0c0000 	svc	0x000c0000
    2790:	01000006 	tsteq	r0, r6
    2794:	00002578 	andeq	r2, r0, r8, ror r5
    2798:	008fbc00 	addeq	fp, pc, r0, lsl #24
    279c:	00002000 	andeq	r2, r0, r0
    27a0:	c09c0100 	addsgt	r0, ip, r0, lsl #2
    27a4:	08000002 	stmdaeq	r0, {r1}
    27a8:	00008fc4 	andeq	r8, r0, r4, asr #31
    27ac:	00000271 	andeq	r0, r0, r1, ror r2
    27b0:	008fd008 	addeq	sp, pc, r8
    27b4:	0001e600 	andeq	lr, r1, r0, lsl #12
    27b8:	690f0000 	stmdbvs	pc, {}	; <UNPREDICTABLE>
    27bc:	01000006 	tsteq	r0, r6
    27c0:	0002d116 	andeq	sp, r2, r6, lsl r1
    27c4:	e8030500 	stmda	r3, {r8, sl}
    27c8:	10000093 	mulne	r0, r3, r0
    27cc:	0002d704 	andeq	sp, r2, r4, lsl #14
    27d0:	002c1100 	eoreq	r1, ip, r0, lsl #2
    27d4:	5d0f0000 	stcpl	0, cr0, [pc, #-0]	; 27dc <_start-0x5824>
    27d8:	01000006 	tsteq	r0, r6
    27dc:	0002d117 	andeq	sp, r2, r7, lsl r1
    27e0:	bc030500 	cfstr32lt	mvfx0, [r3], {-0}
    27e4:	0f000093 	svceq	0x00000093
    27e8:	0000056e 	andeq	r0, r0, lr, ror #10
    27ec:	02d11a01 	sbcseq	r1, r1, #4096	; 0x1000
    27f0:	03050000 	movweq	r0, #20480	; 0x5000
    27f4:	000093d4 	ldrdeq	r9, [r0], -r4
    27f8:	00061f0f 	andeq	r1, r6, pc, lsl #30
    27fc:	d11b0100 	tstle	fp, r0, lsl #2
    2800:	05000002 	streq	r0, [r0, #-2]
    2804:	0093c403 	addseq	ip, r3, r3, lsl #8
    2808:	06340f00 	ldrteq	r0, [r4], -r0, lsl #30
    280c:	1c010000 	stcne	0, cr0, [r1], {-0}
    2810:	000002d1 	ldrdeq	r0, [r0], -r1
    2814:	93c80305 	bicls	r0, r8, #335544320	; 0x14000000
    2818:	c10f0000 	mrsgt	r0, CPSR
    281c:	01000006 	tsteq	r0, r6
    2820:	0002d11d 	andeq	sp, r2, sp, lsl r1
    2824:	cc030500 	cfstr32gt	mvfx0, [r3], {-0}
    2828:	0f000093 	svceq	0x00000093
    282c:	0000055f 	andeq	r0, r0, pc, asr r5
    2830:	02d11e01 	sbcseq	r1, r1, #1, 28
    2834:	03050000 	movweq	r0, #20480	; 0x5000
    2838:	000093e4 	andeq	r9, r0, r4, ror #7
    283c:	0006e00f 	andeq	lr, r6, pc
    2840:	d11f0100 	tstle	pc, r0, lsl #2
    2844:	05000002 	streq	r0, [r0, #-2]
    2848:	0093b803 	addseq	fp, r3, r3, lsl #16
    284c:	057c0f00 	ldrbeq	r0, [ip, #-3840]!	; 0xf00
    2850:	20010000 	andcs	r0, r1, r0
    2854:	000002d1 	ldrdeq	r0, [r0], -r1
    2858:	93e00305 	mvnls	r0, #335544320	; 0x14000000
    285c:	b20f0000 	andlt	r0, pc, #0
    2860:	01000006 	tsteq	r0, r6
    2864:	0002d121 	andeq	sp, r2, r1, lsr #2
    2868:	dc030500 	cfstr32le	mvfx0, [r3], {-0}
    286c:	0f000093 	svceq	0x00000093
    2870:	000005a8 	andeq	r0, r0, r8, lsr #11
    2874:	02d12201 	sbcseq	r2, r1, #268435456	; 0x10000000
    2878:	03050000 	movweq	r0, #20480	; 0x5000
    287c:	000093c0 	andeq	r9, r0, r0, asr #7
    2880:	0006810f 	andeq	r8, r6, pc, lsl #2
    2884:	d1230100 	teqle	r3, r0, lsl #2
    2888:	05000002 	streq	r0, [r0, #-2]
    288c:	0093d803 	addseq	sp, r3, r3, lsl #16
    2890:	06710f00 	ldrbteq	r0, [r1], -r0, lsl #30
    2894:	24010000 	strcs	r0, [r1], #-0
    2898:	000002d1 	ldrdeq	r0, [r0], -r1
    289c:	93d00305 	bicsls	r0, r0, #335544320	; 0x14000000
    28a0:	ff120000 			; <UNDEFINED> instruction: 0xff120000
    28a4:	03000006 	movweq	r0, #6
    28a8:	00002ca1 	andeq	r2, r0, r1, lsr #25
    28ac:	0003bd00 	andeq	fp, r3, r0, lsl #26
    28b0:	03bd1300 			; <UNDEFINED> instruction: 0x03bd1300
    28b4:	10000000 	andne	r0, r0, r0
    28b8:	0003c304 	andeq	ip, r3, r4, lsl #6
    28bc:	03c81400 	biceq	r1, r8, #0, 8
    28c0:	16150000 	ldrne	r0, [r5], -r0
    28c4:	000005c6 	andeq	r0, r0, r6, asr #11
    28c8:	a0178403 	andsge	r8, r7, r3, lsl #8
    28cc:	02000006 	andeq	r0, r0, #6
    28d0:	0003e619 	andeq	lr, r3, r9, lsl r6
    28d4:	002c1300 	eoreq	r1, ip, r0, lsl #6
    28d8:	b2130000 	andslt	r0, r3, #0
    28dc:	00000000 	andeq	r0, r0, r0
    28e0:	00062e17 	andeq	r2, r6, r7, lsl lr
    28e4:	fc950300 	ldc2	3, cr0, [r5], {0}
    28e8:	13000003 	movwne	r0, #3
    28ec:	000003fc 	strdeq	r0, [r0], -ip
    28f0:	00002c13 	andeq	r2, r0, r3, lsl ip
    28f4:	04100000 	ldreq	r0, [r0], #-0
    28f8:	000003c8 	andeq	r0, r0, r8, asr #7
    28fc:	00056800 	andeq	r6, r5, r0, lsl #16
    2900:	78000400 	stmdavc	r0, {sl}
    2904:	0400000d 	streq	r0, [r0], #-13
    2908:	00002901 	andeq	r2, r0, r1, lsl #18
    290c:	07800100 	streq	r0, [r0, r0, lsl #2]
    2910:	03450000 	movteq	r0, #20480	; 0x5000
    2914:	8fdc0000 	svchi	0x00dc0000
    2918:	03ac0000 			; <UNDEFINED> instruction: 0x03ac0000
    291c:	0c760000 	ldcleq	0, cr0, [r6], #-0
    2920:	08020000 	stmdaeq	r2, {}	; <UNPREDICTABLE>
    2924:	0000f607 	andeq	pc, r0, r7, lsl #12
    2928:	07040200 	streq	r0, [r4, -r0, lsl #4]
    292c:	00000100 	andeq	r0, r0, r0, lsl #2
    2930:	aa060102 	bge	182d40 <__bss_end__+0x179200>
    2934:	02000000 	andeq	r0, r0, #0
    2938:	01310502 	teqeq	r1, r2, lsl #10
    293c:	04020000 	streq	r0, [r2], #-0
    2940:	00012805 	andeq	r2, r1, r5, lsl #16
    2944:	05080200 	streq	r0, [r8, #-512]	; 0x200
    2948:	00000123 	andeq	r0, r0, r3, lsr #2
    294c:	a8080102 	stmdage	r8, {r1, r8}
    2950:	02000000 	andeq	r0, r0, #0
    2954:	00cc0702 	sbceq	r0, ip, r2, lsl #14
    2958:	04020000 	streq	r0, [r2], #-0
    295c:	0000fb07 	andeq	pc, r0, r7, lsl #22
    2960:	05040300 	streq	r0, [r4, #-768]	; 0x300
    2964:	00746e69 	rsbseq	r6, r4, r9, ror #28
    2968:	1a070402 	bne	1c3978 <__bss_end__+0x1b9e38>
    296c:	02000001 	andeq	r0, r0, #1
    2970:	00b10801 	adcseq	r0, r1, r1, lsl #16
    2974:	01040000 	mrseq	r0, (UNDEF: 4)
    2978:	00b20c02 	adcseq	r0, r2, r2, lsl #24
    297c:	d0050000 	andle	r0, r5, r0
    2980:	00000006 	andeq	r0, r0, r6
    2984:	0005d205 	andeq	sp, r5, r5, lsl #4
    2988:	8b050100 	blhi	142d90 <__bss_end__+0x139250>
    298c:	04000005 	streq	r0, [r0], #-5
    2990:	0005e305 	andeq	lr, r5, r5, lsl #6
    2994:	f2050500 	vrshl.s8	d0, d0, d5
    2998:	06000005 	streq	r0, [r0], -r5
    299c:	00060105 	andeq	r0, r6, r5, lsl #2
    29a0:	91050700 	tstls	r5, r0, lsl #14
    29a4:	03000006 	movweq	r0, #6
    29a8:	00061005 	andeq	r1, r6, r5
    29ac:	06000200 	streq	r0, [r0], -r0, lsl #4
    29b0:	00000643 	andeq	r0, r0, r3, asr #12
    29b4:	00791502 	rsbseq	r1, r9, r2, lsl #10
    29b8:	12070000 	andne	r0, r7, #0
    29bc:	01000003 	tsteq	r0, r3
    29c0:	008fdc3f 	addeq	sp, pc, pc, lsr ip	; <UNPREDICTABLE>
    29c4:	0000d400 	andeq	sp, r0, r0, lsl #8
    29c8:	339c0100 	orrscc	r0, ip, #0, 2
    29cc:	08000001 	stmdaeq	r0, {r0}
    29d0:	006e6970 	rsbeq	r6, lr, r0, ror r9
    29d4:	002c3f01 	eoreq	r3, ip, r1, lsl #30
    29d8:	143c0000 	ldrtne	r0, [ip], #-0
    29dc:	87090000 	strhi	r0, [r9, -r0]
    29e0:	01000007 	tsteq	r0, r7
    29e4:	00013347 	andeq	r3, r1, r7, asr #6
    29e8:	00145a00 	andseq	r5, r4, r0, lsl #20
    29ec:	076d0900 	strbeq	r0, [sp, -r0, lsl #18]!
    29f0:	49010000 	stmdbmi	r1, {}	; <UNPREDICTABLE>
    29f4:	0000002c 	andeq	r0, r0, ip, lsr #32
    29f8:	000014af 	andeq	r1, r0, pc, lsr #9
    29fc:	00077809 	andeq	r7, r7, r9, lsl #16
    2a00:	2c570100 	ldfcse	f0, [r7], {-0}
    2a04:	7b000000 	blvc	2a0c <_start-0x55f4>
    2a08:	0a000016 	beq	2a68 <_start-0x5598>
    2a0c:	00009070 	andeq	r9, r0, r0, ror r0
    2a10:	0000052e 	andeq	r0, r0, lr, lsr #10
    2a14:	00000122 	andeq	r0, r0, r2, lsr #2
    2a18:	0250010b 	subseq	r0, r0, #-1073741822	; 0xc0000002
    2a1c:	0c000075 	stceq	0, cr0, [r0], {117}	; 0x75
    2a20:	000090a4 	andeq	r9, r0, r4, lsr #1
    2a24:	0000054f 	andeq	r0, r0, pc, asr #10
    2a28:	0250010b 	subseq	r0, r0, #-1073741822	; 0xc0000002
    2a2c:	00000075 	andeq	r0, r0, r5, ror r0
    2a30:	0139040d 	teqeq	r9, sp, lsl #8
    2a34:	2c0e0000 	stccs	0, cr0, [lr], {-0}
    2a38:	0f000000 	svceq	0x00000000
    2a3c:	0000072b 	andeq	r0, r0, fp, lsr #14
    2a40:	6c036001 	stcvs	0, cr6, [r3], {1}
    2a44:	10000001 	andne	r0, r0, r1
    2a48:	006e6970 	rsbeq	r6, lr, r0, ror r9
    2a4c:	002c6001 	eoreq	r6, ip, r1
    2a50:	87110000 	ldrhi	r0, [r1, -r0]
    2a54:	01000007 	tsteq	r0, r7
    2a58:	00013367 	andeq	r3, r1, r7, ror #6
    2a5c:	07781100 	ldrbeq	r1, [r8, -r0, lsl #2]!
    2a60:	68010000 	stmdavs	r1, {}	; <UNPREDICTABLE>
    2a64:	0000002c 	andeq	r0, r0, ip, lsr #32
    2a68:	013e1200 	teqeq	lr, r0, lsl #4
    2a6c:	90b00000 	adcsls	r0, r0, r0
    2a70:	00380000 	eorseq	r0, r8, r0
    2a74:	9c010000 	stcls	0, cr0, [r1], {-0}
    2a78:	000001b0 			; <UNDEFINED> instruction: 0x000001b0
    2a7c:	00014a13 	andeq	r4, r1, r3, lsl sl
    2a80:	0016ab00 	andseq	sl, r6, r0, lsl #22
    2a84:	01551400 	cmpeq	r5, r0, lsl #8
    2a88:	16cc0000 	strbne	r0, [ip], r0
    2a8c:	60140000 	andsvs	r0, r4, r0
    2a90:	02000001 	andeq	r0, r0, #1
    2a94:	0c000017 	stceq	0, cr0, [r0], {23}
    2a98:	000090e0 	andeq	r9, r0, r0, ror #1
    2a9c:	0000054f 	andeq	r0, r0, pc, asr #10
    2aa0:	0751010b 	ldrbeq	r0, [r1, -fp, lsl #2]
    2aa4:	5001f331 	andpl	pc, r1, r1, lsr r3	; <UNPREDICTABLE>
    2aa8:	00241a4f 	eoreq	r1, r4, pc, asr #20
    2aac:	07530f00 	ldrbeq	r0, [r3, -r0, lsl #30]
    2ab0:	7b010000 	blvc	42ab8 <__bss_end__+0x38f78>
    2ab4:	0001de03 	andeq	sp, r1, r3, lsl #28
    2ab8:	69701000 	ldmdbvs	r0!, {ip}^
    2abc:	7b01006e 	blvc	42c7c <__bss_end__+0x3913c>
    2ac0:	0000002c 	andeq	r0, r0, ip, lsr #32
    2ac4:	00078711 	andeq	r8, r7, r1, lsl r7
    2ac8:	33810100 	orrcc	r0, r1, #0, 2
    2acc:	11000001 	tstne	r0, r1
    2ad0:	00000778 	andeq	r0, r0, r8, ror r7
    2ad4:	002c8201 	eoreq	r8, ip, r1, lsl #4
    2ad8:	12000000 	andne	r0, r0, #0
    2adc:	000001b0 			; <UNDEFINED> instruction: 0x000001b0
    2ae0:	000090e8 	andeq	r9, r0, r8, ror #1
    2ae4:	00000038 	andeq	r0, r0, r8, lsr r0
    2ae8:	02229c01 	eoreq	r9, r2, #256	; 0x100
    2aec:	bc130000 	ldclt	0, cr0, [r3], {-0}
    2af0:	42000001 	andmi	r0, r0, #1
    2af4:	14000017 	strne	r0, [r0], #-23
    2af8:	000001c7 	andeq	r0, r0, r7, asr #3
    2afc:	00001763 	andeq	r1, r0, r3, ror #14
    2b00:	0001d214 	andeq	sp, r1, r4, lsl r2
    2b04:	00179900 	andseq	r9, r7, r0, lsl #18
    2b08:	91180c00 	tstls	r8, r0, lsl #24
    2b0c:	054f0000 	strbeq	r0, [pc, #-0]	; 2b14 <_start-0x54ec>
    2b10:	010b0000 	mrseq	r0, (UNDEF: 11)
    2b14:	f3310751 	vaba.u<illegal width 64>	q0, <illegal reg q0.5>, <illegal reg q0.5>
    2b18:	1a4f5001 	bne	13d6b24 <__bss_end__+0x13ccfe4>
    2b1c:	07000024 	streq	r0, [r0, -r4, lsr #32]
    2b20:	000002e7 	andeq	r0, r0, r7, ror #5
    2b24:	91209501 	teqls	r0, r1, lsl #10
    2b28:	00cc0000 	sbceq	r0, ip, r0
    2b2c:	9c010000 	stcls	0, cr0, [r1], {-0}
    2b30:	00000298 	muleq	r0, r8, r2
    2b34:	6e697008 	cdpvs	0, 6, cr7, cr9, cr8, {0}
    2b38:	2c950100 	ldfcss	f0, [r5], {0}
    2b3c:	d9000000 	stmdble	r0, {}	; <UNPREDICTABLE>
    2b40:	09000017 	stmdbeq	r0, {r0, r1, r2, r4}
    2b44:	00000787 	andeq	r0, r0, r7, lsl #15
    2b48:	01339b01 	teqeq	r3, r1, lsl #22
    2b4c:	17f70000 	ldrbne	r0, [r7, r0]!
    2b50:	6d090000 	stcvs	0, cr0, [r9, #-0]
    2b54:	01000007 	tsteq	r0, r7
    2b58:	00002c9d 	muleq	r0, sp, ip
    2b5c:	00184c00 	andseq	r4, r8, r0, lsl #24
    2b60:	07780900 	ldrbeq	r0, [r8, -r0, lsl #18]!
    2b64:	ab010000 	blge	42b6c <__bss_end__+0x3902c>
    2b68:	0000002c 	andeq	r0, r0, ip, lsr #32
    2b6c:	00001a18 	andeq	r1, r0, r8, lsl sl
    2b70:	0091b40a 	addseq	fp, r1, sl, lsl #8
    2b74:	00052e00 	andeq	r2, r5, r0, lsl #28
    2b78:	00028700 	andeq	r8, r2, r0, lsl #14
    2b7c:	50010b00 	andpl	r0, r1, r0, lsl #22
    2b80:	00007502 	andeq	r7, r0, r2, lsl #10
    2b84:	0091e00c 	addseq	lr, r1, ip
    2b88:	00054f00 	andeq	r4, r5, r0, lsl #30
    2b8c:	50010b00 	andpl	r0, r1, r0, lsl #22
    2b90:	00007502 	andeq	r7, r0, r2, lsl #10
    2b94:	02851500 	addeq	r1, r5, #0, 10
    2b98:	b3010000 	movwlt	r0, #4096	; 0x1000
    2b9c:	00000064 	andeq	r0, r0, r4, rrx
    2ba0:	000091ec 	andeq	r9, r0, ip, ror #3
    2ba4:	0000004c 	andeq	r0, r0, ip, asr #32
    2ba8:	02e09c01 	rsceq	r9, r0, #256	; 0x100
    2bac:	70080000 	andvc	r0, r8, r0
    2bb0:	01006e69 	tsteq	r0, r9, ror #28
    2bb4:	00002cb3 			; <UNDEFINED> instruction: 0x00002cb3
    2bb8:	001a3600 	andseq	r3, sl, r0, lsl #12
    2bbc:	00761600 	rsbseq	r1, r6, r0, lsl #12
    2bc0:	002cb901 	eoreq	fp, ip, r1, lsl #18
    2bc4:	1a8e0000 	bne	fe382bcc <__bss_end__+0xfe37908c>
    2bc8:	0c170000 	ldceq	0, cr0, [r7], {-0}
    2bcc:	2e000092 	mcrcs	0, 0, r0, cr0, cr2, {4}
    2bd0:	17000005 	strne	r0, [r0, -r5]
    2bd4:	0000921c 	andeq	r9, r0, ip, lsl r2
    2bd8:	0000052e 	andeq	r0, r0, lr, lsr #10
    2bdc:	02cf0700 	sbceq	r0, pc, #0, 14
    2be0:	c5010000 	strgt	r0, [r1, #-0]
    2be4:	00009238 	andeq	r9, r0, r8, lsr r2
    2be8:	00000078 	andeq	r0, r0, r8, ror r0
    2bec:	03aa9c01 			; <UNDEFINED> instruction: 0x03aa9c01
    2bf0:	70080000 	andvc	r0, r8, r0
    2bf4:	01006e69 	tsteq	r0, r9, ror #28
    2bf8:	00002cc5 	andeq	r2, r0, r5, asr #25
    2bfc:	001ac400 	andseq	ip, sl, r0, lsl #8
    2c00:	00760800 	rsbseq	r0, r6, r0, lsl #16
    2c04:	002cc501 	eoreq	ip, ip, r1, lsl #10
    2c08:	1afe0000 	bne	fff82c10 <__bss_end__+0xfff790d0>
    2c0c:	3e180000 	cdpcc	0, 1, cr0, cr8, cr0, {0}
    2c10:	4c000001 	stcmi	0, cr0, [r0], {1}
    2c14:	30000092 	mulcc	r0, r2, r0
    2c18:	01000000 	mrseq	r0, (UNDEF: 0)
    2c1c:	00035fcc 	andeq	r5, r3, ip, asr #31
    2c20:	014a1300 	mrseq	r1, (UNDEF: 122)
    2c24:	1b380000 	blne	e02c2c <__bss_end__+0xdf90ec>
    2c28:	4c190000 	ldcmi	0, cr0, [r9], {-0}
    2c2c:	30000092 	mulcc	r0, r2, r0
    2c30:	14000000 	strne	r0, [r0], #-0
    2c34:	00000155 	andeq	r0, r0, r5, asr r1
    2c38:	00001b59 	andeq	r1, r0, r9, asr fp
    2c3c:	00016014 	andeq	r6, r1, r4, lsl r0
    2c40:	001b8f00 	andseq	r8, fp, r0, lsl #30
    2c44:	92780c00 	rsbsls	r0, r8, #0, 24
    2c48:	054f0000 	strbeq	r0, [pc, #-0]	; 2c50 <_start-0x53b0>
    2c4c:	010b0000 	mrseq	r0, (UNDEF: 11)
    2c50:	f3310751 	vaba.u<illegal width 64>	q0, <illegal reg q0.5>, <illegal reg q0.5>
    2c54:	1a4f5001 	bne	13d6c60 <__bss_end__+0x13cd120>
    2c58:	00000024 	andeq	r0, r0, r4, lsr #32
    2c5c:	0001b01a 	andeq	fp, r1, sl, lsl r0
    2c60:	00927c00 	addseq	r7, r2, r0, lsl #24
    2c64:	00003400 	andeq	r3, r0, r0, lsl #8
    2c68:	13ce0100 	bicne	r0, lr, #0, 2
    2c6c:	000001bc 			; <UNDEFINED> instruction: 0x000001bc
    2c70:	00001bcf 	andeq	r1, r0, pc, asr #23
    2c74:	00927c19 	addseq	r7, r2, r9, lsl ip
    2c78:	00003400 	andeq	r3, r0, r0, lsl #8
    2c7c:	01c71400 	biceq	r1, r7, r0, lsl #8
    2c80:	1bf00000 	blne	ffc02c88 <__bss_end__+0xffbf9148>
    2c84:	d2140000 	andsle	r0, r4, #0
    2c88:	26000001 	strcs	r0, [r0], -r1
    2c8c:	0c00001c 	stceq	0, cr0, [r0], {28}
    2c90:	000092a8 	andeq	r9, r0, r8, lsr #5
    2c94:	0000054f 	andeq	r0, r0, pc, asr #10
    2c98:	0751010b 	ldrbeq	r0, [r1, -fp, lsl #2]
    2c9c:	5001f331 	andpl	pc, r1, r1, lsr r3	; <UNPREDICTABLE>
    2ca0:	00241a4f 	eoreq	r1, r4, pc, asr #20
    2ca4:	07000000 	streq	r0, [r0, -r0]
    2ca8:	000006a0 	andeq	r0, r0, r0, lsr #13
    2cac:	92b0d101 	adcsls	sp, r0, #1073741824	; 0x40000000
    2cb0:	00d80000 	sbcseq	r0, r8, r0
    2cb4:	9c010000 	stcls	0, cr0, [r1], {-0}
    2cb8:	0000042f 	andeq	r0, r0, pc, lsr #8
    2cbc:	6e697008 	cdpvs	0, 6, cr7, cr9, cr8, {0}
    2cc0:	2cd10100 	ldfcse	f0, [r1], {0}
    2cc4:	66000000 	strvs	r0, [r0], -r0
    2cc8:	1b00001c 	blne	2d40 <_start-0x52c0>
    2ccc:	00000768 	andeq	r0, r0, r8, ror #14
    2cd0:	00b2d101 	adcseq	sp, r2, r1, lsl #2
    2cd4:	1c840000 	stcne	0, cr0, [r4], {0}
    2cd8:	87090000 	strhi	r0, [r9, -r0]
    2cdc:	01000007 	tsteq	r0, r7
    2ce0:	000133d9 	ldrdeq	r3, [r1], -r9
    2ce4:	001ca500 	andseq	sl, ip, r0, lsl #10
    2ce8:	076d0900 	strbeq	r0, [sp, -r0, lsl #18]!
    2cec:	da010000 	ble	42cf4 <__bss_end__+0x391b4>
    2cf0:	0000002c 	andeq	r0, r0, ip, lsr #32
    2cf4:	00001cfa 	strdeq	r1, [r0], -sl
    2cf8:	00077809 	andeq	r7, r7, r9, lsl #16
    2cfc:	2ce80100 	stfcse	f0, [r8]
    2d00:	c6000000 	strgt	r0, [r0], -r0
    2d04:	0a00001e 	beq	2d84 <_start-0x527c>
    2d08:	0000934c 	andeq	r9, r0, ip, asr #6
    2d0c:	0000052e 	andeq	r0, r0, lr, lsr #10
    2d10:	0000041e 	andeq	r0, r0, lr, lsl r4
    2d14:	0250010b 	subseq	r0, r0, #-1073741822	; 0xc0000002
    2d18:	0c000076 	stceq	0, cr0, [r0], {118}	; 0x76
    2d1c:	0000937c 	andeq	r9, r0, ip, ror r3
    2d20:	0000054f 	andeq	r0, r0, pc, asr #10
    2d24:	0250010b 	subseq	r0, r0, #-1073741822	; 0xc0000002
    2d28:	00000076 	andeq	r0, r0, r6, ror r0
    2d2c:	0007191c 	andeq	r1, r7, ip, lsl r9
    2d30:	33280100 	teqcc	r8, #0, 2
    2d34:	05000001 	streq	r0, [r0, #-1]
    2d38:	00942403 	addseq	r2, r4, r3, lsl #8
    2d3c:	070f1c00 	streq	r1, [pc, -r0, lsl #24]
    2d40:	29010000 	stmdbcs	r1, {}	; <UNPREDICTABLE>
    2d44:	00000133 	andeq	r0, r0, r3, lsr r1
    2d48:	94200305 	strtls	r0, [r0], #-773	; 0x305
    2d4c:	051c0000 	ldreq	r0, [ip, #-0]
    2d50:	01000007 	tsteq	r0, r7
    2d54:	0001332a 	andeq	r3, r1, sl, lsr #6
    2d58:	1c030500 	cfstr32ne	mvfx0, [r3], {-0}
    2d5c:	1c000094 	stcne	0, cr0, [r0], {148}	; 0x94
    2d60:	00000790 	muleq	r0, r0, r7
    2d64:	01332c01 	teqeq	r3, r1, lsl #24
    2d68:	03050000 	movweq	r0, #20480	; 0x5000
    2d6c:	000093ec 	andeq	r9, r0, ip, ror #7
    2d70:	0007601c 	andeq	r6, r7, ip, lsl r0
    2d74:	332d0100 	teqcc	sp, #0, 2
    2d78:	05000001 	streq	r0, [r0, #-1]
    2d7c:	0093f003 	addseq	pc, r3, r3
    2d80:	079f1c00 	ldreq	r1, [pc, r0, lsl #24]
    2d84:	2e010000 	cdpcs	0, 0, cr0, cr1, cr0, {0}
    2d88:	00000133 	andeq	r0, r0, r3, lsr r1
    2d8c:	93f40305 	mvnsls	r0, #335544320	; 0x14000000
    2d90:	a71c0000 	ldrge	r0, [ip, -r0]
    2d94:	01000007 	tsteq	r0, r7
    2d98:	0001332f 	andeq	r3, r1, pc, lsr #6
    2d9c:	f8030500 			; <UNDEFINED> instruction: 0xf8030500
    2da0:	1c000093 	stcne	0, cr0, [r0], {147}	; 0x93
    2da4:	000007af 	andeq	r0, r0, pc, lsr #15
    2da8:	01333001 	teqeq	r3, r1
    2dac:	03050000 	movweq	r0, #20480	; 0x5000
    2db0:	000093fc 	strdeq	r9, [r0], -ip
    2db4:	0007b71c 	andeq	fp, r7, ip, lsl r7
    2db8:	33310100 	teqcc	r1, #0, 2
    2dbc:	05000001 	streq	r0, [r0, #-1]
    2dc0:	00940003 	addseq	r0, r4, r3
    2dc4:	074c1c00 	strbeq	r1, [ip, -r0, lsl #24]
    2dc8:	33010000 	movwcc	r0, #4096	; 0x1000
    2dcc:	00000133 	andeq	r0, r0, r3, lsr r1
    2dd0:	94040305 	strls	r0, [r4], #-773	; 0x305
    2dd4:	3e1c0000 	cdpcc	0, 1, cr0, cr12, cr0, {0}
    2dd8:	01000007 	tsteq	r0, r7
    2ddc:	00013334 	andeq	r3, r1, r4, lsr r3
    2de0:	08030500 	stmdaeq	r3, {r8, sl}
    2de4:	1c000094 	stcne	0, cr0, [r0], {148}	; 0x94
    2de8:	00000745 	andeq	r0, r0, r5, asr #14
    2dec:	01333601 	teqeq	r3, r1, lsl #12
    2df0:	03050000 	movweq	r0, #20480	; 0x5000
    2df4:	0000940c 	andeq	r9, r0, ip, lsl #8
    2df8:	0007241c 	andeq	r2, r7, ip, lsl r4
    2dfc:	33370100 	teqcc	r7, #0, 2
    2e00:	05000001 	streq	r0, [r0, #-1]
    2e04:	00941003 	addseq	r1, r4, r3
    2e08:	07981c00 	ldreq	r1, [r8, r0, lsl #24]
    2e0c:	39010000 	stmdbcc	r1, {}	; <UNPREDICTABLE>
    2e10:	00000133 	andeq	r0, r0, r3, lsr r1
    2e14:	94140305 	ldrls	r0, [r4], #-773	; 0x305
    2e18:	371c0000 	ldrcc	r0, [ip, -r0]
    2e1c:	01000007 	tsteq	r0, r7
    2e20:	0001333a 	andeq	r3, r1, sl, lsr r3
    2e24:	18030500 	stmdane	r3, {r8, sl}
    2e28:	1d000094 	stcne	0, cr0, [r0, #-592]	; 0xfffffdb0
    2e2c:	000006ff 	strdeq	r0, [r0], -pc	; <UNPREDICTABLE>
    2e30:	002c2001 	eoreq	r2, ip, r1
    2e34:	05430000 	strbeq	r0, [r3, #-0]
    2e38:	431e0000 	tstmi	lr, #0
    2e3c:	00000005 	andeq	r0, r0, r5
    2e40:	0549040d 	strbeq	r0, [r9, #-1037]	; 0x40d
    2e44:	4e1f0000 	cdpmi	0, 1, cr0, cr15, cr0, {0}
    2e48:	20000005 	andcs	r0, r0, r5
    2e4c:	00062e21 	andeq	r2, r6, r1, lsr #28
    2e50:	651e0100 	ldrvs	r0, [lr, #-256]	; 0x100
    2e54:	1e000005 	cdpne	0, 0, cr0, cr0, cr5, {0}
    2e58:	00000565 	andeq	r0, r0, r5, ror #10
    2e5c:	00002c1e 	andeq	r2, r0, lr, lsl ip
    2e60:	040d0000 	streq	r0, [sp], #-0
    2e64:	0000054e 	andeq	r0, r0, lr, asr #10
    2e68:	0000e000 	andeq	lr, r0, r0
    2e6c:	3c000400 	cfstrscc	mvf0, [r0], {-0}
    2e70:	0400000f 	streq	r0, [r0], #-15
    2e74:	00002901 	andeq	r2, r0, r1, lsl #18
    2e78:	07d00100 	ldrbeq	r0, [r0, r0, lsl #2]
    2e7c:	03450000 	movteq	r0, #20480	; 0x5000
    2e80:	93880000 	orrls	r0, r8, #0
    2e84:	00140000 	andseq	r0, r4, r0
    2e88:	0d1f0000 	ldceq	0, cr0, [pc, #-0]	; 2e90 <_start-0x5170>
    2e8c:	04020000 	streq	r0, [r2], #-0
    2e90:	746e6905 	strbtvc	r6, [lr], #-2309	; 0x905
    2e94:	07040300 	streq	r0, [r4, -r0, lsl #6]
    2e98:	00000100 	andeq	r0, r0, r0, lsl #2
    2e9c:	aa060103 	bge	1832b0 <__bss_end__+0x179770>
    2ea0:	03000000 	movweq	r0, #0
    2ea4:	01310502 	teqeq	r1, r2, lsl #10
    2ea8:	04030000 	streq	r0, [r3], #-0
    2eac:	00012805 	andeq	r2, r1, r5, lsl #16
    2eb0:	05080300 	streq	r0, [r8, #-768]	; 0x300
    2eb4:	00000123 	andeq	r0, r0, r3, lsr #2
    2eb8:	a8080103 	stmdage	r8, {r0, r1, r8}
    2ebc:	03000000 	movweq	r0, #0
    2ec0:	00cc0702 	sbceq	r0, ip, r2, lsl #14
    2ec4:	04030000 	streq	r0, [r3], #-0
    2ec8:	0000fb07 	andeq	pc, r0, r7, lsl #22
    2ecc:	07080300 	streq	r0, [r8, -r0, lsl #6]
    2ed0:	000000f6 	strdeq	r0, [r0], -r6
    2ed4:	1a070403 	bne	1c3ee8 <__bss_end__+0x1ba3a8>
    2ed8:	03000001 	movweq	r0, #1
    2edc:	00b10801 	adcseq	r0, r1, r1, lsl #16
    2ee0:	bf040000 	svclt	0x00040000
    2ee4:	01000007 	tsteq	r0, r7
    2ee8:	00002503 	andeq	r2, r0, r3, lsl #10
    2eec:	00938800 	addseq	r8, r3, r0, lsl #16
    2ef0:	00001400 	andeq	r1, r0, r0, lsl #8
    2ef4:	b09c0100 	addslt	r0, ip, r0, lsl #2
    2ef8:	05000000 	streq	r0, [r0, #-0]
    2efc:	03010063 	movweq	r0, #4195	; 0x1063
    2f00:	00000025 	andeq	r0, r0, r5, lsr #32
    2f04:	00001ef7 	strdeq	r1, [r0], -r7
    2f08:	00939406 	addseq	r9, r3, r6, lsl #8
    2f0c:	0000d600 	andeq	sp, r0, r0, lsl #12
    2f10:	50010700 	andpl	r0, r1, r0, lsl #14
    2f14:	00007402 	andeq	r7, r0, r2, lsl #8
    2f18:	00250800 	eoreq	r0, r5, r0, lsl #16
    2f1c:	00bf0000 	adcseq	r0, pc, r0
    2f20:	25090000 	strcs	r0, [r9, #-0]
    2f24:	00000000 	andeq	r0, r0, r0
    2f28:	0003a30a 	andeq	sl, r3, sl, lsl #6
    2f2c:	d0060100 	andle	r0, r6, r0, lsl #2
    2f30:	05000000 	streq	r0, [r0, #-0]
    2f34:	00942803 	addseq	r2, r4, r3, lsl #16
    2f38:	b0040b00 	andlt	r0, r4, r0, lsl #22
    2f3c:	0c000000 	stceq	0, cr0, [r0], {-0}
    2f40:	00000255 	andeq	r0, r0, r5, asr r2
    2f44:	2c093a02 	stccs	10, cr3, [r9], {2}
    2f48:	00000000 	andeq	r0, r0, r0
	...

Disassembly of section .debug_abbrev:

00000000 <.debug_abbrev>:
   0:	25011101 	strcs	r1, [r1, #-257]	; 0x101
   4:	030b130e 	movweq	r1, #45838	; 0xb30e
   8:	110e1b0e 	tstne	lr, lr, lsl #22
   c:	10061201 	andne	r1, r6, r1, lsl #4
  10:	02000017 	andeq	r0, r0, #23
  14:	0b0b0024 	bleq	2c00ac <__bss_end__+0x2b656c>
  18:	08030b3e 	stmdaeq	r3, {r1, r2, r3, r4, r5, r8, r9, fp}
  1c:	16030000 	strne	r0, [r3], -r0
  20:	3a0e0300 	bcc	380c28 <__bss_end__+0x3770e8>
  24:	490b3b0b 	stmdbmi	fp, {r0, r1, r3, r8, r9, fp, ip, sp}
  28:	04000013 	streq	r0, [r0], #-19
  2c:	0b0b0024 	bleq	2c00c4 <__bss_end__+0x2b6584>
  30:	0e030b3e 	vmoveq.16	d3[0], r0
  34:	0f050000 	svceq	0x00050000
  38:	490b0b00 	stmdbmi	fp, {r8, r9, fp}
  3c:	06000013 			; <UNDEFINED> instruction: 0x06000013
  40:	13490026 	movtne	r0, #36902	; 0x9026
  44:	01070000 	mrseq	r0, (UNDEF: 7)
  48:	01134901 	tsteq	r3, r1, lsl #18
  4c:	08000013 	stmdaeq	r0, {r0, r1, r4}
  50:	13490021 	movtne	r0, #36897	; 0x9021
  54:	00000b2f 	andeq	r0, r0, pc, lsr #22
  58:	0b011309 	bleq	44c84 <__bss_end__+0x3b144>
  5c:	3b0b3a0b 	blcc	2ce890 <__bss_end__+0x2c4d50>
  60:	0013010b 	andseq	r0, r3, fp, lsl #2
  64:	000d0a00 	andeq	r0, sp, r0, lsl #20
  68:	0b3a0803 	bleq	e8207c <__bss_end__+0xe7853c>
  6c:	13490b3b 	movtne	r0, #39739	; 0x9b3b
  70:	00000b38 	andeq	r0, r0, r8, lsr fp
  74:	03000d0b 	movweq	r0, #3339	; 0xd0b
  78:	3b0b3a0e 	blcc	2ce8b8 <__bss_end__+0x2c4d78>
  7c:	3813490b 	ldmdacc	r3, {r0, r1, r3, r8, fp, lr}
  80:	0c00000b 	stceq	0, cr0, [r0], {11}
  84:	193f012e 	ldmdbne	pc!, {r1, r2, r3, r5, r8}	; <UNPREDICTABLE>
  88:	0b3a0e03 	bleq	e8389c <__bss_end__+0xe79d5c>
  8c:	19270b3b 	stmdbne	r7!, {r0, r1, r3, r4, r5, r8, r9, fp}
  90:	06120111 			; <UNDEFINED> instruction: 0x06120111
  94:	42971840 	addsmi	r1, r7, #64, 16	; 0x400000
  98:	00130119 	andseq	r0, r3, r9, lsl r1
  9c:	00340d00 	eorseq	r0, r4, r0, lsl #26
  a0:	0b3a0803 	bleq	e820b4 <__bss_end__+0xe78574>
  a4:	13490b3b 	movtne	r0, #39739	; 0x9b3b
  a8:	00001802 	andeq	r1, r0, r2, lsl #16
  ac:	0300340e 	movweq	r3, #1038	; 0x40e
  b0:	3413490e 	ldrcc	r4, [r3], #-2318	; 0x90e
  b4:	00180219 	andseq	r0, r8, r9, lsl r2
  b8:	010b0f00 	tsteq	fp, r0, lsl #30
  bc:	06120111 			; <UNDEFINED> instruction: 0x06120111
  c0:	00001301 	andeq	r1, r0, r1, lsl #6
  c4:	03003410 	movweq	r3, #1040	; 0x410
  c8:	3b0b3a08 	blcc	2ce8f0 <__bss_end__+0x2c4db0>
  cc:	0213490b 	andseq	r4, r3, #180224	; 0x2c000
  d0:	11000017 	tstne	r0, r7, lsl r0
  d4:	1755010b 	ldrbne	r0, [r5, -fp, lsl #2]
  d8:	34120000 	ldrcc	r0, [r2], #-0
  dc:	3a0e0300 	bcc	380ce4 <__bss_end__+0x3771a4>
  e0:	490b3b0b 	stmdbmi	fp, {r0, r1, r3, r8, r9, fp, ip, sp}
  e4:	00170213 	andseq	r0, r7, r3, lsl r2
  e8:	82891300 	addhi	r1, r9, #0, 6
  ec:	01110101 	tsteq	r1, r1, lsl #2
  f0:	13011331 	movwne	r1, #4913	; 0x1331
  f4:	8a140000 	bhi	5000fc <__bss_end__+0x4f65bc>
  f8:	02000182 	andeq	r0, r0, #-2147483616	; 0x80000020
  fc:	18429118 	stmdane	r2, {r3, r4, r8, ip, pc}^
 100:	89150000 	ldmdbhi	r5, {}	; <UNPREDICTABLE>
 104:	11000182 	smlabbne	r0, r2, r1, r0
 108:	00133101 	andseq	r3, r3, r1, lsl #2
 10c:	82891600 	addhi	r1, r9, #0, 12
 110:	01110101 	tsteq	r1, r1, lsl #2
 114:	00001331 	andeq	r1, r0, r1, lsr r3
 118:	49002117 	stmdbmi	r0, {r0, r1, r2, r4, r8, sp}
 11c:	00052f13 	andeq	r2, r5, r3, lsl pc
 120:	012e1800 	teqeq	lr, r0, lsl #16
 124:	0e03193f 	mcreq	9, 0, r1, cr3, cr15, {1}
 128:	0b3b0b3a 	bleq	ec2e18 <__bss_end__+0xeb92d8>
 12c:	13491927 	movtne	r1, #39207	; 0x9927
 130:	1301193c 	movwne	r1, #6460	; 0x193c
 134:	05190000 	ldreq	r0, [r9, #-0]
 138:	00134900 	andseq	r4, r3, r0, lsl #18
 13c:	00181a00 	andseq	r1, r8, r0, lsl #20
 140:	2e1b0000 	cdpcs	0, 1, cr0, cr11, cr0, {0}
 144:	03193f00 	tsteq	r9, #0, 30
 148:	3b0b3a0e 	blcc	2ce988 <__bss_end__+0x2c4e48>
 14c:	3c19270b 	ldccc	7, cr2, [r9], {11}
 150:	1c000019 	stcne	0, cr0, [r0], {25}
 154:	193f012e 	ldmdbne	pc!, {r1, r2, r3, r5, r8}	; <UNPREDICTABLE>
 158:	0b3a0e03 	bleq	e8396c <__bss_end__+0xe79e2c>
 15c:	19270b3b 	stmdbne	r7!, {r0, r1, r3, r4, r5, r8, r9, fp}
 160:	1301193c 	movwne	r1, #6460	; 0x193c
 164:	2e1d0000 	cdpcs	0, 1, cr0, cr13, cr0, {0}
 168:	03193f01 	tsteq	r9, #1, 30
 16c:	3b0b3a0e 	blcc	2ce9ac <__bss_end__+0x2c4e6c>
 170:	4919270b 	ldmdbmi	r9, {r0, r1, r3, r8, r9, sl, sp}
 174:	00193c13 	andseq	r3, r9, r3, lsl ip
 178:	11010000 	mrsne	r0, (UNDEF: 1)
 17c:	130e2501 	movwne	r2, #58625	; 0xe501
 180:	1b0e030b 	blne	380db4 <__bss_end__+0x377274>
 184:	1201110e 	andne	r1, r1, #-2147483645	; 0x80000003
 188:	00171006 	andseq	r1, r7, r6
 18c:	00240200 	eoreq	r0, r4, r0, lsl #4
 190:	0b3e0b0b 	bleq	f82dc4 <__bss_end__+0xf79284>
 194:	00000803 	andeq	r0, r0, r3, lsl #16
 198:	0b002403 	bleq	91ac <gpio_set_input+0x8c>
 19c:	030b3e0b 	movweq	r3, #48651	; 0xbe0b
 1a0:	0400000e 	streq	r0, [r0], #-14
 1a4:	0e030016 	mcreq	0, 0, r0, cr3, cr6, {0}
 1a8:	0b3b0b3a 	bleq	ec2e98 <__bss_end__+0xeb9358>
 1ac:	00001349 	andeq	r1, r0, r9, asr #6
 1b0:	0b000f05 	bleq	3dcc <_start-0x4234>
 1b4:	0600000b 	streq	r0, [r0], -fp
 1b8:	0b0b000f 	bleq	2c01fc <__bss_end__+0x2b66bc>
 1bc:	00001349 	andeq	r1, r0, r9, asr #6
 1c0:	49002607 	stmdbmi	r0, {r0, r1, r2, r9, sl, sp}
 1c4:	08000013 	stmdaeq	r0, {r0, r1, r4}
 1c8:	0b0b0113 	bleq	2c061c <__bss_end__+0x2b6adc>
 1cc:	0b3b0b3a 	bleq	ec2ebc <__bss_end__+0xeb937c>
 1d0:	00001301 	andeq	r1, r0, r1, lsl #6
 1d4:	03000d09 	movweq	r0, #3337	; 0xd09
 1d8:	3b0b3a08 	blcc	2cea00 <__bss_end__+0x2c4ec0>
 1dc:	3813490b 	ldmdacc	r3, {r0, r1, r3, r8, fp, lr}
 1e0:	0a00000b 	beq	214 <_start-0x7dec>
 1e4:	0e03000d 	cdpeq	0, 0, cr0, cr3, cr13, {0}
 1e8:	0b3b0b3a 	bleq	ec2ed8 <__bss_end__+0xeb9398>
 1ec:	0b381349 	bleq	e04f18 <__bss_end__+0xdfb3d8>
 1f0:	130b0000 	movwne	r0, #45056	; 0xb000
 1f4:	0b0e0301 	bleq	380e00 <__bss_end__+0x3772c0>
 1f8:	3b0b3a0b 	blcc	2cea2c <__bss_end__+0x2c4eec>
 1fc:	0013010b 	andseq	r0, r3, fp, lsl #2
 200:	000d0c00 	andeq	r0, sp, r0, lsl #24
 204:	13490e03 	movtne	r0, #40451	; 0x9e03
 208:	19340b38 	ldmdbne	r4!, {r3, r4, r5, r8, r9, fp}
 20c:	2e0d0000 	cdpcs	0, 0, cr0, cr13, cr0, {0}
 210:	3a0e0301 	bcc	380e1c <__bss_end__+0x3772dc>
 214:	270b3b0b 	strcs	r3, [fp, -fp, lsl #22]
 218:	010b2019 	tsteq	fp, r9, lsl r0
 21c:	0e000013 	mcreq	0, 0, r0, cr0, cr3, {0}
 220:	0e030005 	cdpeq	0, 0, cr0, cr3, cr5, {0}
 224:	0b3b0b3a 	bleq	ec2f14 <__bss_end__+0xeb93d4>
 228:	00001349 	andeq	r1, r0, r9, asr #6
 22c:	0300050f 	movweq	r0, #1295	; 0x50f
 230:	3b0b3a08 	blcc	2cea58 <__bss_end__+0x2c4f18>
 234:	0013490b 	andseq	r4, r3, fp, lsl #18
 238:	010b1000 	mrseq	r1, (UNDEF: 11)
 23c:	34110000 	ldrcc	r0, [r1], #-0
 240:	3a0e0300 	bcc	380e48 <__bss_end__+0x377308>
 244:	490b3b0b 	stmdbmi	fp, {r0, r1, r3, r8, r9, fp, ip, sp}
 248:	12000013 	andne	r0, r0, #19
 24c:	193f012e 	ldmdbne	pc!, {r1, r2, r3, r5, r8}	; <UNPREDICTABLE>
 250:	0b3a0e03 	bleq	e83a64 <__bss_end__+0xe79f24>
 254:	19270b3b 	stmdbne	r7!, {r0, r1, r3, r4, r5, r8, r9, fp}
 258:	06120111 			; <UNDEFINED> instruction: 0x06120111
 25c:	42971840 	addsmi	r1, r7, #64, 16	; 0x400000
 260:	00130119 	andseq	r0, r3, r9, lsl r1
 264:	00051300 	andeq	r1, r5, r0, lsl #6
 268:	0b3a0e03 	bleq	e83a7c <__bss_end__+0xe79f3c>
 26c:	13490b3b 	movtne	r0, #39739	; 0x9b3b
 270:	00001702 	andeq	r1, r0, r2, lsl #14
 274:	03000514 	movweq	r0, #1300	; 0x514
 278:	3b0b3a08 	blcc	2ceaa0 <__bss_end__+0x2c4f60>
 27c:	0213490b 	andseq	r4, r3, #180224	; 0x2c000
 280:	15000017 	strne	r0, [r0, #-23]
 284:	08030034 	stmdaeq	r3, {r2, r4, r5}
 288:	0b3b0b3a 	bleq	ec2f78 <__bss_end__+0xeb9438>
 28c:	18021349 	stmdane	r2, {r0, r3, r6, r8, r9, ip}
 290:	34160000 	ldrcc	r0, [r6], #-0
 294:	3a080300 	bcc	200e9c <__bss_end__+0x1f735c>
 298:	490b3b0b 	stmdbmi	fp, {r0, r1, r3, r8, r9, fp, ip, sp}
 29c:	00170213 	andseq	r0, r7, r3, lsl r2
 2a0:	00341700 	eorseq	r1, r4, r0, lsl #14
 2a4:	0b3a0803 	bleq	e822b8 <__bss_end__+0xe78778>
 2a8:	13490b3b 	movtne	r0, #39739	; 0x9b3b
 2ac:	34180000 	ldrcc	r0, [r8], #-0
 2b0:	3a0e0300 	bcc	380eb8 <__bss_end__+0x377378>
 2b4:	490b3b0b 	stmdbmi	fp, {r0, r1, r3, r8, r9, fp, ip, sp}
 2b8:	00180213 	andseq	r0, r8, r3, lsl r2
 2bc:	010b1900 	tsteq	fp, r0, lsl #18
 2c0:	06120111 			; <UNDEFINED> instruction: 0x06120111
 2c4:	00001301 	andeq	r1, r0, r1, lsl #6
 2c8:	31011d1a 	tstcc	r1, sl, lsl sp
 2cc:	12011113 	andne	r1, r1, #-1073741820	; 0xc0000004
 2d0:	590b5806 	stmdbpl	fp, {r1, r2, fp, ip, lr}
 2d4:	0013010b 	andseq	r0, r3, fp, lsl #2
 2d8:	00051b00 	andeq	r1, r5, r0, lsl #22
 2dc:	17021331 	smladxne	r2, r1, r3, r1
 2e0:	051c0000 	ldreq	r0, [ip, #-0]
 2e4:	02133100 	andseq	r3, r3, #0, 2
 2e8:	1d000018 	stcne	0, cr0, [r0, #-96]	; 0xffffffa0
 2ec:	13310005 	teqne	r1, #5
 2f0:	00000b1c 	andeq	r0, r0, ip, lsl fp
 2f4:	11010b1e 	tstne	r1, lr, lsl fp
 2f8:	00061201 	andeq	r1, r6, r1, lsl #4
 2fc:	00341f00 	eorseq	r1, r4, r0, lsl #30
 300:	17021331 	smladxne	r2, r1, r3, r1
 304:	89200000 	stmdbhi	r0!, {}	; <UNPREDICTABLE>
 308:	11010182 	smlabbne	r1, r2, r1, r0
 30c:	00133101 	andseq	r3, r3, r1, lsl #2
 310:	828a2100 	addhi	r2, sl, #0, 2
 314:	18020001 	stmdane	r2, {r0}
 318:	00184291 	mulseq	r8, r1, r2
 31c:	011d2200 	tsteq	sp, r0, lsl #4
 320:	01111331 	tsteq	r1, r1, lsr r3
 324:	0b580612 	bleq	1601b74 <__bss_end__+0x15f8034>
 328:	00000b59 	andeq	r0, r0, r9, asr fp
 32c:	03012e23 	movweq	r2, #7715	; 0x1e23
 330:	3b0b3a0e 	blcc	2ceb70 <__bss_end__+0x2c5030>
 334:	4919270b 	ldmdbmi	r9, {r0, r1, r3, r8, r9, sl, sp}
 338:	010b2013 	tsteq	fp, r3, lsl r0
 33c:	24000013 	strcs	r0, [r0], #-19
 340:	193f012e 	ldmdbne	pc!, {r1, r2, r3, r5, r8}	; <UNPREDICTABLE>
 344:	0b3a0e03 	bleq	e83b58 <__bss_end__+0xe7a018>
 348:	19270b3b 	stmdbne	r7!, {r0, r1, r3, r4, r5, r8, r9, fp}
 34c:	01111349 	tsteq	r1, r9, asr #6
 350:	18400612 	stmdane	r0, {r1, r4, r9, sl}^
 354:	01194297 			; <UNDEFINED> instruction: 0x01194297
 358:	25000013 	strcs	r0, [r0, #-19]
 35c:	00018289 	andeq	r8, r1, r9, lsl #5
 360:	13310111 	teqne	r1, #1073741828	; 0x40000004
 364:	89260000 	stmdbhi	r6!, {}	; <UNPREDICTABLE>
 368:	11010182 	smlabbne	r1, r2, r1, r0
 36c:	01133101 	tsteq	r3, r1, lsl #2
 370:	27000013 	smladcs	r0, r3, r0, r0
 374:	0e030034 	mcreq	0, 0, r0, cr3, cr4, {1}
 378:	0b3b0b3a 	bleq	ec3068 <__bss_end__+0xeb9528>
 37c:	17021349 	strne	r1, [r2, -r9, asr #6]
 380:	05280000 	streq	r0, [r8, #-0]!
 384:	00133100 	andseq	r3, r3, r0, lsl #2
 388:	00052900 	andeq	r2, r5, r0, lsl #18
 38c:	0b3a0e03 	bleq	e83ba0 <__bss_end__+0xe7a060>
 390:	13490b3b 	movtne	r0, #39739	; 0x9b3b
 394:	00001802 	andeq	r1, r0, r2, lsl #16
 398:	0300342a 	movweq	r3, #1066	; 0x42a
 39c:	3413490e 	ldrcc	r4, [r3], #-2318	; 0x90e
 3a0:	00180219 	andseq	r0, r8, r9, lsl r2
 3a4:	01012b00 	tsteq	r1, r0, lsl #22
 3a8:	13011349 	movwne	r1, #4937	; 0x1349
 3ac:	212c0000 	teqcs	ip, r0
 3b0:	2f134900 	svccs	0x00134900
 3b4:	2d00000b 	stccs	0, cr0, [r0, #-44]	; 0xffffffd4
 3b8:	08030034 	stmdaeq	r3, {r2, r4, r5}
 3bc:	0b3b0b3a 	bleq	ec30ac <__bss_end__+0xeb956c>
 3c0:	061c1349 	ldreq	r1, [ip], -r9, asr #6
 3c4:	342e0000 	strtcc	r0, [lr], #-0
 3c8:	3a080300 	bcc	200fd0 <__bss_end__+0x1f7490>
 3cc:	490b3b0b 	stmdbmi	fp, {r0, r1, r3, r8, r9, fp, ip, sp}
 3d0:	000b1c13 	andeq	r1, fp, r3, lsl ip
 3d4:	00052f00 	andeq	r2, r5, r0, lsl #30
 3d8:	0b3a0803 	bleq	e823ec <__bss_end__+0xe788ac>
 3dc:	13490b3b 	movtne	r0, #39739	; 0x9b3b
 3e0:	00001802 	andeq	r1, r0, r2, lsl #16
 3e4:	00001830 	andeq	r1, r0, r0, lsr r8
 3e8:	00213100 	eoreq	r3, r1, r0, lsl #2
 3ec:	052f1349 	streq	r1, [pc, #-841]!	; ab <_start-0x7f55>
 3f0:	2e320000 	cdpcs	0, 3, cr0, cr2, cr0, {0}
 3f4:	03193f01 	tsteq	r9, #1, 30
 3f8:	3b0b3a0e 	blcc	2cec38 <__bss_end__+0x2c50f8>
 3fc:	3c19270b 	ldccc	7, cr2, [r9], {11}
 400:	00130119 	andseq	r0, r3, r9, lsl r1
 404:	00053300 	andeq	r3, r5, r0, lsl #6
 408:	00001349 	andeq	r1, r0, r9, asr #6
 40c:	3f002e34 	svccc	0x00002e34
 410:	3a0e0319 	bcc	38107c <__bss_end__+0x37753c>
 414:	270b3b0b 	strcs	r3, [fp, -fp, lsl #22]
 418:	3c134919 	ldccc	9, cr4, [r3], {25}
 41c:	35000019 	strcc	r0, [r0, #-25]
 420:	193f012e 	ldmdbne	pc!, {r1, r2, r3, r5, r8}	; <UNPREDICTABLE>
 424:	0b3a0e03 	bleq	e83c38 <__bss_end__+0xe7a0f8>
 428:	19270b3b 	stmdbne	r7!, {r0, r1, r3, r4, r5, r8, r9, fp}
 42c:	193c1349 	ldmdbne	ip!, {r0, r3, r6, r8, r9, ip}
 430:	00001301 	andeq	r1, r0, r1, lsl #6
 434:	3f002e36 	svccc	0x00002e36
 438:	3a0e0319 	bcc	3810a4 <__bss_end__+0x377564>
 43c:	270b3b0b 	strcs	r3, [fp, -fp, lsl #22]
 440:	00193c19 	andseq	r3, r9, r9, lsl ip
 444:	012e3700 	teqeq	lr, r0, lsl #14
 448:	0e03193f 	mcreq	9, 0, r1, cr3, cr15, {1}
 44c:	0b3b0b3a 	bleq	ec313c <__bss_end__+0xeb95fc>
 450:	13491927 	movtne	r1, #39207	; 0x9927
 454:	0000193c 	andeq	r1, r0, ip, lsr r9
 458:	01110100 	tsteq	r1, r0, lsl #2
 45c:	0b130e25 	bleq	4c3cf8 <__bss_end__+0x4ba1b8>
 460:	0e1b0e03 	cdpeq	14, 1, cr0, cr11, cr3, {0}
 464:	06120111 			; <UNDEFINED> instruction: 0x06120111
 468:	00001710 	andeq	r1, r0, r0, lsl r7
 46c:	03001602 	movweq	r1, #1538	; 0x602
 470:	3b0b3a0e 	blcc	2cecb0 <__bss_end__+0x2c5170>
 474:	0013490b 	andseq	r4, r3, fp, lsl #18
 478:	01130300 	tsteq	r3, r0, lsl #6
 47c:	0b0b0e03 	bleq	2c3c90 <__bss_end__+0x2ba150>
 480:	0b3b0b3a 	bleq	ec3170 <__bss_end__+0xeb9630>
 484:	00001301 	andeq	r1, r0, r1, lsl #6
 488:	03000d04 	movweq	r0, #3332	; 0xd04
 48c:	3813490e 	ldmdacc	r3, {r1, r2, r3, r8, fp, lr}
 490:	0019340b 	andseq	r3, r9, fp, lsl #8
 494:	000f0500 	andeq	r0, pc, r0, lsl #10
 498:	00000b0b 	andeq	r0, r0, fp, lsl #22
 49c:	0b002406 	bleq	94bc <__FUNCTION__.4184+0x90>
 4a0:	030b3e0b 	movweq	r3, #48651	; 0xbe0b
 4a4:	07000008 	streq	r0, [r0, -r8]
 4a8:	0b0b0024 	bleq	2c0540 <__bss_end__+0x2b6a00>
 4ac:	0e030b3e 	vmoveq.16	d3[0], r0
 4b0:	0f080000 	svceq	0x00080000
 4b4:	490b0b00 	stmdbmi	fp, {r8, r9, fp}
 4b8:	09000013 	stmdbeq	r0, {r0, r1, r4}
 4bc:	13490026 	movtne	r0, #36902	; 0x9026
 4c0:	2e0a0000 	cdpcs	0, 0, cr0, cr10, cr0, {0}
 4c4:	03193f01 	tsteq	r9, #1, 30
 4c8:	3b0b3a0e 	blcc	2ced08 <__bss_end__+0x2c51c8>
 4cc:	4919270b 	ldmdbmi	r9, {r0, r1, r3, r8, r9, sl, sp}
 4d0:	12011113 	andne	r1, r1, #-1073741820	; 0xc0000004
 4d4:	97184006 	ldrls	r4, [r8, -r6]
 4d8:	13011942 	movwne	r1, #6466	; 0x1942
 4dc:	050b0000 	streq	r0, [fp, #-0]
 4e0:	3a080300 	bcc	2010e8 <__bss_end__+0x1f75a8>
 4e4:	490b3b0b 	stmdbmi	fp, {r0, r1, r3, r8, r9, fp, ip, sp}
 4e8:	00180213 	andseq	r0, r8, r3, lsl r2
 4ec:	00180c00 	andseq	r0, r8, r0, lsl #24
 4f0:	340d0000 	strcc	r0, [sp], #-0
 4f4:	3a080300 	bcc	2010fc <__bss_end__+0x1f75bc>
 4f8:	490b3b0b 	stmdbmi	fp, {r0, r1, r3, r8, r9, fp, ip, sp}
 4fc:	00180213 	andseq	r0, r8, r3, lsl r2
 500:	00340e00 	eorseq	r0, r4, r0, lsl #28
 504:	0b3a0e03 	bleq	e83d18 <__bss_end__+0xe7a1d8>
 508:	13490b3b 	movtne	r0, #39739	; 0x9b3b
 50c:	00001802 	andeq	r1, r0, r2, lsl #16
 510:	0300340f 	movweq	r3, #1039	; 0x40f
 514:	3b0b3a08 	blcc	2ced3c <__bss_end__+0x2c51fc>
 518:	0213490b 	andseq	r4, r3, #180224	; 0x2c000
 51c:	10000017 	andne	r0, r0, r7, lsl r0
 520:	01018289 	smlabbeq	r1, r9, r2, r8
 524:	13310111 	teqne	r1, #1073741828	; 0x40000004
 528:	00001301 	andeq	r1, r0, r1, lsl #6
 52c:	01828a11 	orreq	r8, r2, r1, lsl sl
 530:	91180200 	tstls	r8, r0, lsl #4
 534:	00001842 	andeq	r1, r0, r2, asr #16
 538:	01828912 	orreq	r8, r2, r2, lsl r9
 53c:	00011101 	andeq	r1, r1, r1, lsl #2
 540:	01011300 	mrseq	r1, SP_irq
 544:	13011349 	movwne	r1, #4937	; 0x1349
 548:	21140000 	tstcs	r4, r0
 54c:	2f134900 	svccs	0x00134900
 550:	15000005 	strne	r0, [r0, #-5]
 554:	19270115 	stmdbne	r7!, {r0, r2, r4, r8}
 558:	13011349 	movwne	r1, #4937	; 0x1349
 55c:	05160000 	ldreq	r0, [r6, #-0]
 560:	00134900 	andseq	r4, r3, r0, lsl #18
 564:	00341700 	eorseq	r1, r4, r0, lsl #14
 568:	0b3a0e03 	bleq	e83d7c <__bss_end__+0xe7a23c>
 56c:	13490b3b 	movtne	r0, #39739	; 0x9b3b
 570:	193c193f 	ldmdbne	ip!, {r0, r1, r2, r3, r4, r5, r8, fp, ip}
 574:	2e180000 	cdpcs	0, 1, cr0, cr8, cr0, {0}
 578:	03193f01 	tsteq	r9, #1, 30
 57c:	3b0b3a0e 	blcc	2cedbc <__bss_end__+0x2c527c>
 580:	4919270b 	ldmdbmi	r9, {r0, r1, r3, r8, r9, sl, sp}
 584:	00193c13 	andseq	r3, r9, r3, lsl ip
 588:	11010000 	mrsne	r0, (UNDEF: 1)
 58c:	130e2501 	movwne	r2, #58625	; 0xe501
 590:	1b0e030b 	blne	3811c4 <__bss_end__+0x377684>
 594:	1201110e 	andne	r1, r1, #-2147483645	; 0x80000003
 598:	00171006 	andseq	r1, r7, r6
 59c:	00240200 	eoreq	r0, r4, r0, lsl #4
 5a0:	0b3e0b0b 	bleq	f831d4 <__bss_end__+0xf79694>
 5a4:	00000803 	andeq	r0, r0, r3, lsl #16
 5a8:	0b002403 	bleq	95bc <__FUNCTION__.4307+0x6c>
 5ac:	030b3e0b 	movweq	r3, #48651	; 0xbe0b
 5b0:	0400000e 	streq	r0, [r0], #-14
 5b4:	0b0b000f 	bleq	2c05f8 <__bss_end__+0x2b6ab8>
 5b8:	00001349 	andeq	r1, r0, r9, asr #6
 5bc:	49002605 	stmdbmi	r0, {r0, r2, r9, sl, sp}
 5c0:	06000013 			; <UNDEFINED> instruction: 0x06000013
 5c4:	193f012e 	ldmdbne	pc!, {r1, r2, r3, r5, r8}	; <UNPREDICTABLE>
 5c8:	0b3a0e03 	bleq	e83ddc <__bss_end__+0xe7a29c>
 5cc:	19270b3b 	stmdbne	r7!, {r0, r1, r3, r4, r5, r8, r9, fp}
 5d0:	01111349 	tsteq	r1, r9, asr #6
 5d4:	18400612 	stmdane	r0, {r1, r4, r9, sl}^
 5d8:	01194296 			; <UNDEFINED> instruction: 0x01194296
 5dc:	07000013 	smladeq	r0, r3, r0, r0
 5e0:	08030005 	stmdaeq	r3, {r0, r2}
 5e4:	0b3b0b3a 	bleq	ec32d4 <__bss_end__+0xeb9794>
 5e8:	17021349 	strne	r1, [r2, -r9, asr #6]
 5ec:	15080000 	strne	r0, [r8, #-0]
 5f0:	49192701 	ldmdbmi	r9, {r0, r8, r9, sl, sp}
 5f4:	00130113 	andseq	r0, r3, r3, lsl r1
 5f8:	00050900 	andeq	r0, r5, r0, lsl #18
 5fc:	00001349 	andeq	r1, r0, r9, asr #6
 600:	0300340a 	movweq	r3, #1034	; 0x40a
 604:	3b0b3a0e 	blcc	2cee44 <__bss_end__+0x2c5304>
 608:	3f13490b 	svccc	0x0013490b
 60c:	00193c19 	andseq	r3, r9, r9, lsl ip
 610:	00340b00 	eorseq	r0, r4, r0, lsl #22
 614:	0b3a0e03 	bleq	e83e28 <__bss_end__+0xe7a2e8>
 618:	13490b3b 	movtne	r0, #39739	; 0x9b3b
 61c:	1802193f 	stmdane	r2, {r0, r1, r2, r3, r4, r5, r8, fp, ip}
 620:	01000000 	mrseq	r0, (UNDEF: 0)
 624:	0e250111 	mcreq	1, 1, r0, cr5, cr1, {0}
 628:	0e030b13 	vmoveq.32	d3[0], r0
 62c:	01110e1b 	tsteq	r1, fp, lsl lr
 630:	17100612 			; <UNDEFINED> instruction: 0x17100612
 634:	24020000 	strcs	r0, [r2], #-0
 638:	3e0b0b00 	vmlacc.f64	d0, d11, d0
 63c:	000e030b 	andeq	r0, lr, fp, lsl #6
 640:	00240300 	eoreq	r0, r4, r0, lsl #6
 644:	0b3e0b0b 	bleq	f83278 <__bss_end__+0xf79738>
 648:	00000803 	andeq	r0, r0, r3, lsl #16
 64c:	0b000f04 	bleq	4264 <_start-0x3d9c>
 650:	0013490b 	andseq	r4, r3, fp, lsl #18
 654:	00260500 	eoreq	r0, r6, r0, lsl #10
 658:	00001349 	andeq	r1, r0, r9, asr #6
 65c:	03001606 	movweq	r1, #1542	; 0x606
 660:	3b0b3a0e 	blcc	2ceea0 <__bss_end__+0x2c5360>
 664:	0013490b 	andseq	r4, r3, fp, lsl #18
 668:	012e0700 	teqeq	lr, r0, lsl #14
 66c:	0e03193f 	mcreq	9, 0, r1, cr3, cr15, {1}
 670:	0b3b0b3a 	bleq	ec3360 <__bss_end__+0xeb9820>
 674:	13491927 	movtne	r1, #39207	; 0x9927
 678:	06120111 			; <UNDEFINED> instruction: 0x06120111
 67c:	42971840 	addsmi	r1, r7, #64, 16	; 0x400000
 680:	08000019 	stmdaeq	r0, {r0, r3, r4}
 684:	08030005 	stmdaeq	r3, {r0, r2}
 688:	0b3b0b3a 	bleq	ec3378 <__bss_end__+0xeb9838>
 68c:	17021349 	strne	r1, [r2, -r9, asr #6]
 690:	34090000 	strcc	r0, [r9], #-0
 694:	3a080300 	bcc	20129c <__bss_end__+0x1f775c>
 698:	490b3b0b 	stmdbmi	fp, {r0, r1, r3, r8, r9, fp, ip, sp}
 69c:	00170213 	andseq	r0, r7, r3, lsl r2
 6a0:	11010000 	mrsne	r0, (UNDEF: 1)
 6a4:	130e2501 	movwne	r2, #58625	; 0xe501
 6a8:	1b0e030b 	blne	3812dc <__bss_end__+0x37779c>
 6ac:	1201110e 	andne	r1, r1, #-2147483645	; 0x80000003
 6b0:	00171006 	andseq	r1, r7, r6
 6b4:	00240200 	eoreq	r0, r4, r0, lsl #4
 6b8:	0b3e0b0b 	bleq	f832ec <__bss_end__+0xf797ac>
 6bc:	00000803 	andeq	r0, r0, r3, lsl #16
 6c0:	0b002403 	bleq	96d4 <__FUNCTION__.4219+0x8c>
 6c4:	030b3e0b 	movweq	r3, #48651	; 0xbe0b
 6c8:	0400000e 	streq	r0, [r0], #-14
 6cc:	0b0b000f 	bleq	2c0710 <__bss_end__+0x2b6bd0>
 6d0:	0f050000 	svceq	0x00050000
 6d4:	490b0b00 	stmdbmi	fp, {r8, r9, fp}
 6d8:	06000013 			; <UNDEFINED> instruction: 0x06000013
 6dc:	13490026 	movtne	r0, #36902	; 0x9026
 6e0:	16070000 	strne	r0, [r7], -r0
 6e4:	3a0e0300 	bcc	3812ec <__bss_end__+0x3777ac>
 6e8:	490b3b0b 	stmdbmi	fp, {r0, r1, r3, r8, r9, fp, ip, sp}
 6ec:	08000013 	stmdaeq	r0, {r0, r1, r4}
 6f0:	0e030113 	mcreq	1, 0, r0, cr3, cr3, {0}
 6f4:	0b3a0b0b 	bleq	e83328 <__bss_end__+0xe797e8>
 6f8:	13010b3b 	movwne	r0, #6971	; 0x1b3b
 6fc:	0d090000 	stceq	0, cr0, [r9, #-0]
 700:	490e0300 	stmdbmi	lr, {r8, r9}
 704:	340b3813 	strcc	r3, [fp], #-2067	; 0x813
 708:	0a000019 	beq	774 <_start-0x788c>
 70c:	0e03012e 	adfeqsp	f0, f3, #0.5
 710:	0b3b0b3a 	bleq	ec3400 <__bss_end__+0xeb98c0>
 714:	13491927 	movtne	r1, #39207	; 0x9927
 718:	06120111 			; <UNDEFINED> instruction: 0x06120111
 71c:	42971840 	addsmi	r1, r7, #64, 16	; 0x400000
 720:	00130119 	andseq	r0, r3, r9, lsl r1
 724:	00050b00 	andeq	r0, r5, r0, lsl #22
 728:	0b3a0803 	bleq	e8273c <__bss_end__+0xe78bfc>
 72c:	13490b3b 	movtne	r0, #39739	; 0x9b3b
 730:	00001702 	andeq	r1, r0, r2, lsl #14
 734:	03012e0c 	movweq	r2, #7692	; 0x1e0c
 738:	3b0b3a08 	blcc	2cef60 <__bss_end__+0x2c5420>
 73c:	4919270b 	ldmdbmi	r9, {r0, r1, r3, r8, r9, sl, sp}
 740:	12011113 	andne	r1, r1, #-1073741820	; 0xc0000004
 744:	97184006 	ldrls	r4, [r8, -r6]
 748:	13011942 	movwne	r1, #6466	; 0x1942
 74c:	050d0000 	streq	r0, [sp, #-0]
 750:	3a0e0300 	bcc	381358 <__bss_end__+0x377818>
 754:	490b3b0b 	stmdbmi	fp, {r0, r1, r3, r8, r9, fp, ip, sp}
 758:	00170213 	andseq	r0, r7, r3, lsl r2
 75c:	00050e00 	andeq	r0, r5, r0, lsl #28
 760:	0b3a0e03 	bleq	e83f74 <__bss_end__+0xe7a434>
 764:	13490b3b 	movtne	r0, #39739	; 0x9b3b
 768:	00001802 	andeq	r1, r0, r2, lsl #16
 76c:	0300340f 	movweq	r3, #1039	; 0x40f
 770:	3b0b3a08 	blcc	2cef98 <__bss_end__+0x2c5458>
 774:	0213490b 	andseq	r4, r3, #180224	; 0x2c000
 778:	10000018 	andne	r0, r0, r8, lsl r0
 77c:	08030034 	stmdaeq	r3, {r2, r4, r5}
 780:	0b3b0b3a 	bleq	ec3470 <__bss_end__+0xeb9930>
 784:	17021349 	strne	r1, [r2, -r9, asr #6]
 788:	34110000 	ldrcc	r0, [r1], #-0
 78c:	490e0300 	stmdbmi	lr, {r8, r9}
 790:	02193413 	andseq	r3, r9, #318767104	; 0x13000000
 794:	12000018 	andne	r0, r0, #24
 798:	0111010b 	tsteq	r1, fp, lsl #2
 79c:	13010612 	movwne	r0, #5650	; 0x1612
 7a0:	34130000 	ldrcc	r0, [r3], #-0
 7a4:	3a0e0300 	bcc	3813ac <__bss_end__+0x37786c>
 7a8:	490b3b0b 	stmdbmi	fp, {r0, r1, r3, r8, r9, fp, ip, sp}
 7ac:	00170213 	andseq	r0, r7, r3, lsl r2
 7b0:	82891400 	addhi	r1, r9, #0, 8
 7b4:	01110101 	tsteq	r1, r1, lsl #2
 7b8:	13011331 	movwne	r1, #4913	; 0x1331
 7bc:	8a150000 	bhi	5407c4 <__bss_end__+0x536c84>
 7c0:	02000182 	andeq	r0, r0, #-2147483616	; 0x80000020
 7c4:	18429118 	stmdane	r2, {r3, r4, r8, ip, pc}^
 7c8:	89160000 	ldmdbhi	r6, {}	; <UNPREDICTABLE>
 7cc:	11000182 	smlabbne	r0, r2, r1, r0
 7d0:	00133101 	andseq	r3, r3, r1, lsl #2
 7d4:	82891700 	addhi	r1, r9, #0, 14
 7d8:	01110101 	tsteq	r1, r1, lsl #2
 7dc:	00001331 	andeq	r1, r0, r1, lsr r3
 7e0:	49010118 	stmdbmi	r1, {r3, r4, r8}
 7e4:	00130113 	andseq	r0, r3, r3, lsl r1
 7e8:	00211900 	eoreq	r1, r1, r0, lsl #18
 7ec:	0b2f1349 	bleq	bc5518 <__bss_end__+0xbbb9d8>
 7f0:	2e1a0000 	cdpcs	0, 1, cr0, cr10, cr0, {0}
 7f4:	03193f01 	tsteq	r9, #1, 30
 7f8:	3b0b3a0e 	blcc	2cf038 <__bss_end__+0x2c54f8>
 7fc:	1119270b 	tstne	r9, fp, lsl #14
 800:	40061201 	andmi	r1, r6, r1, lsl #4
 804:	19429718 	stmdbne	r2, {r3, r4, r8, r9, sl, ip, pc}^
 808:	00001301 	andeq	r1, r0, r1, lsl #6
 80c:	2701151b 	smladcs	r1, fp, r5, r1
 810:	01134919 	tsteq	r3, r9, lsl r9
 814:	1c000013 	stcne	0, cr0, [r0], {19}
 818:	13490005 	movtne	r0, #36869	; 0x9005
 81c:	2e1d0000 	cdpcs	0, 1, cr0, cr13, cr0, {0}
 820:	03193f01 	tsteq	r9, #1, 30
 824:	3b0b3a0e 	blcc	2cf064 <__bss_end__+0x2c5524>
 828:	4919270b 	ldmdbmi	r9, {r0, r1, r3, r8, r9, sl, sp}
 82c:	12011113 	andne	r1, r1, #-1073741820	; 0xc0000004
 830:	97184006 	ldrls	r4, [r8, -r6]
 834:	13011942 	movwne	r1, #6466	; 0x1942
 838:	0b1e0000 	bleq	780840 <__bss_end__+0x776d00>
 83c:	12011101 	andne	r1, r1, #1073741824	; 0x40000000
 840:	1f000006 	svcne	0x00000006
 844:	0e030034 	mcreq	0, 0, r0, cr3, cr4, {1}
 848:	0b3b0b3a 	bleq	ec3538 <__bss_end__+0xeb99f8>
 84c:	193f1349 	ldmdbne	pc!, {r0, r3, r6, r8, r9, ip}	; <UNPREDICTABLE>
 850:	0000193c 	andeq	r1, r0, ip, lsr r9
 854:	3f012e20 	svccc	0x00012e20
 858:	3a0e0319 	bcc	3814c4 <__bss_end__+0x377984>
 85c:	270b3b0b 	strcs	r3, [fp, -fp, lsl #22]
 860:	3c134919 	ldccc	9, cr4, [r3], {25}
 864:	00130119 	andseq	r0, r3, r9, lsl r1
 868:	00182100 	andseq	r2, r8, r0, lsl #2
 86c:	2e220000 	cdpcs	0, 2, cr0, cr2, cr0, {0}
 870:	03193f00 	tsteq	r9, #0, 30
 874:	3b0b3a0e 	blcc	2cf0b4 <__bss_end__+0x2c5574>
 878:	3c19270b 	ldccc	7, cr2, [r9], {11}
 87c:	00000019 	andeq	r0, r0, r9, lsl r0
 880:	25011101 	strcs	r1, [r1, #-257]	; 0x101
 884:	030b130e 	movweq	r1, #45838	; 0xb30e
 888:	110e1b0e 	tstne	lr, lr, lsl #22
 88c:	10061201 	andne	r1, r6, r1, lsl #4
 890:	02000017 	andeq	r0, r0, #23
 894:	0b0b0024 	bleq	2c092c <__bss_end__+0x2b6dec>
 898:	08030b3e 	stmdaeq	r3, {r1, r2, r3, r4, r5, r8, r9, fp}
 89c:	24030000 	strcs	r0, [r3], #-0
 8a0:	3e0b0b00 	vmlacc.f64	d0, d11, d0
 8a4:	000e030b 	andeq	r0, lr, fp, lsl #6
 8a8:	012e0400 	teqeq	lr, r0, lsl #8
 8ac:	0e03193f 	mcreq	9, 0, r1, cr3, cr15, {1}
 8b0:	0b3b0b3a 	bleq	ec35a0 <__bss_end__+0xeb9a60>
 8b4:	01111927 	tsteq	r1, r7, lsr #18
 8b8:	18400612 	stmdane	r0, {r1, r4, r9, sl}^
 8bc:	01194297 			; <UNDEFINED> instruction: 0x01194297
 8c0:	05000013 	streq	r0, [r0, #-19]
 8c4:	08030034 	stmdaeq	r3, {r2, r4, r5}
 8c8:	0b3b0b3a 	bleq	ec35b8 <__bss_end__+0xeb9a78>
 8cc:	17021349 	strne	r1, [r2, -r9, asr #6]
 8d0:	2e060000 	cdpcs	0, 0, cr0, cr6, cr0, {0}
 8d4:	03193f01 	tsteq	r9, #1, 30
 8d8:	3b0b3a0e 	blcc	2cf118 <__bss_end__+0x2c55d8>
 8dc:	1119270b 	tstne	r9, fp, lsl #14
 8e0:	40061201 	andmi	r1, r6, r1, lsl #4
 8e4:	19429718 	stmdbne	r2, {r3, r4, r8, r9, sl, ip, pc}^
 8e8:	01000000 	mrseq	r0, (UNDEF: 0)
 8ec:	0e250111 	mcreq	1, 1, r0, cr5, cr1, {0}
 8f0:	0e030b13 	vmoveq.32	d3[0], r0
 8f4:	01110e1b 	tsteq	r1, fp, lsl lr
 8f8:	17100612 			; <UNDEFINED> instruction: 0x17100612
 8fc:	24020000 	strcs	r0, [r2], #-0
 900:	3e0b0b00 	vmlacc.f64	d0, d11, d0
 904:	0008030b 	andeq	r0, r8, fp, lsl #6
 908:	00240300 	eoreq	r0, r4, r0, lsl #6
 90c:	0b3e0b0b 	bleq	f83540 <__bss_end__+0xf79a00>
 910:	00000e03 	andeq	r0, r0, r3, lsl #28
 914:	0b000f04 	bleq	452c <_start-0x3ad4>
 918:	0013490b 	andseq	r4, r3, fp, lsl #18
 91c:	00260500 	eoreq	r0, r6, r0, lsl #10
 920:	00001349 	andeq	r1, r0, r9, asr #6
 924:	3f012e06 	svccc	0x00012e06
 928:	3a0e0319 	bcc	381594 <__bss_end__+0x377a54>
 92c:	270b3b0b 	strcs	r3, [fp, -fp, lsl #22]
 930:	12011119 	andne	r1, r1, #1073741830	; 0x40000006
 934:	97184006 	ldrls	r4, [r8, -r6]
 938:	13011942 	movwne	r1, #6466	; 0x1942
 93c:	89070000 	stmdbhi	r7, {}	; <UNPREDICTABLE>
 940:	11010182 	smlabbne	r1, r2, r1, r0
 944:	00130101 	andseq	r0, r3, r1, lsl #2
 948:	828a0800 	addhi	r0, sl, #0, 16
 94c:	18020001 	stmdane	r2, {r0}
 950:	00184291 	mulseq	r8, r1, r2
 954:	82890900 	addhi	r0, r9, #0, 18
 958:	01110101 	tsteq	r1, r1, lsl #2
 95c:	13011331 	movwne	r1, #4913	; 0x1331
 960:	890a0000 	stmdbhi	sl, {}	; <UNPREDICTABLE>
 964:	11000182 	smlabbne	r0, r2, r1, r0
 968:	00133101 	andseq	r3, r3, r1, lsl #2
 96c:	01150b00 	tsteq	r5, r0, lsl #22
 970:	13491927 	movtne	r1, #39207	; 0x9927
 974:	00001301 	andeq	r1, r0, r1, lsl #6
 978:	4900050c 	stmdbmi	r0, {r2, r3, r8, sl}
 97c:	0d000013 	stceq	0, cr0, [r0, #-76]	; 0xffffffb4
 980:	0e030034 	mcreq	0, 0, r0, cr3, cr4, {1}
 984:	0b3b0b3a 	bleq	ec3674 <__bss_end__+0xeb9b34>
 988:	193f1349 	ldmdbne	pc!, {r0, r3, r6, r8, r9, ip}	; <UNPREDICTABLE>
 98c:	0000193c 	andeq	r1, r0, ip, lsr r9
 990:	3f012e0e 	svccc	0x00012e0e
 994:	3a0e0319 	bcc	381600 <__bss_end__+0x377ac0>
 998:	270b3b0b 	strcs	r3, [fp, -fp, lsl #22]
 99c:	01193c19 	tsteq	r9, r9, lsl ip
 9a0:	0f000013 	svceq	0x00000013
 9a4:	193f002e 	ldmdbne	pc!, {r1, r2, r3, r5}	; <UNPREDICTABLE>
 9a8:	0b3a0e03 	bleq	e841bc <__bss_end__+0xe7a67c>
 9ac:	19270b3b 	stmdbne	r7!, {r0, r1, r3, r4, r5, r8, r9, fp}
 9b0:	0000193c 	andeq	r1, r0, ip, lsr r9
 9b4:	01110100 	tsteq	r1, r0, lsl #2
 9b8:	0b130e25 	bleq	4c4254 <__bss_end__+0x4ba714>
 9bc:	0e1b0e03 	cdpeq	14, 1, cr0, cr11, cr3, {0}
 9c0:	06120111 			; <UNDEFINED> instruction: 0x06120111
 9c4:	00001710 	andeq	r1, r0, r0, lsl r7
 9c8:	0b002402 	bleq	99d8 <__bss_start__+0x298>
 9cc:	030b3e0b 	movweq	r3, #48651	; 0xbe0b
 9d0:	03000008 	movweq	r0, #8
 9d4:	0b0b0024 	bleq	2c0a6c <__bss_end__+0x2b6f2c>
 9d8:	0e030b3e 	vmoveq.16	d3[0], r0
 9dc:	2e040000 	cdpcs	0, 0, cr0, cr4, cr0, {0}
 9e0:	03193f01 	tsteq	r9, #1, 30
 9e4:	3b0b3a0e 	blcc	2cf224 <__bss_end__+0x2c56e4>
 9e8:	1201110b 	andne	r1, r1, #-1073741822	; 0xc0000002
 9ec:	97184006 	ldrls	r4, [r8, -r6]
 9f0:	13011942 	movwne	r1, #6466	; 0x1942
 9f4:	34050000 	strcc	r0, [r5], #-0
 9f8:	3a0e0300 	bcc	381600 <__bss_end__+0x377ac0>
 9fc:	490b3b0b 	stmdbmi	fp, {r0, r1, r3, r8, r9, fp, ip, sp}
 a00:	3c193f13 	ldccc	15, cr3, [r9], {19}
 a04:	06000019 			; <UNDEFINED> instruction: 0x06000019
 a08:	193f012e 	ldmdbne	pc!, {r1, r2, r3, r5, r8}	; <UNPREDICTABLE>
 a0c:	0b3a0e03 	bleq	e84220 <__bss_end__+0xe7a6e0>
 a10:	193c0b3b 	ldmdbne	ip!, {r0, r1, r3, r4, r5, r8, r9, fp}
 a14:	00001301 	andeq	r1, r0, r1, lsl #6
 a18:	00001807 	andeq	r1, r0, r7, lsl #16
 a1c:	00340800 	eorseq	r0, r4, r0, lsl #16
 a20:	0b3a0803 	bleq	e82a34 <__bss_end__+0xe78ef4>
 a24:	13490b3b 	movtne	r0, #39739	; 0x9b3b
 a28:	00001702 	andeq	r1, r0, r2, lsl #14
 a2c:	03003409 	movweq	r3, #1033	; 0x409
 a30:	3b0b3a0e 	blcc	2cf270 <__bss_end__+0x2c5730>
 a34:	0013490b 	andseq	r4, r3, fp, lsl #18
 a38:	82890a00 	addhi	r0, r9, #0, 20
 a3c:	01110001 	tsteq	r1, r1
 a40:	00001331 	andeq	r1, r0, r1, lsr r3
 a44:	0b000f0b 	bleq	4678 <_start-0x3988>
 a48:	0013490b 	andseq	r4, r3, fp, lsl #18
 a4c:	002e0c00 	eoreq	r0, lr, r0, lsl #24
 a50:	0e03193f 	mcreq	9, 0, r1, cr3, cr15, {1}
 a54:	0b3b0b3a 	bleq	ec3744 <__bss_end__+0xeb9c04>
 a58:	193c1927 	ldmdbne	ip!, {r0, r1, r2, r5, r8, fp, ip}
 a5c:	01000000 	mrseq	r0, (UNDEF: 0)
 a60:	0e250111 	mcreq	1, 1, r0, cr5, cr1, {0}
 a64:	0e030b13 	vmoveq.32	d3[0], r0
 a68:	17550e1b 	smmlane	r5, fp, lr, r0
 a6c:	17100111 			; <UNDEFINED> instruction: 0x17100111
 a70:	24020000 	strcs	r0, [r2], #-0
 a74:	3e0b0b00 	vmlacc.f64	d0, d11, d0
 a78:	0008030b 	andeq	r0, r8, fp, lsl #6
 a7c:	00240300 	eoreq	r0, r4, r0, lsl #6
 a80:	0b3e0b0b 	bleq	f836b4 <__bss_end__+0xf79b74>
 a84:	00000e03 	andeq	r0, r0, r3, lsl #28
 a88:	3f012e04 	svccc	0x00012e04
 a8c:	3a0e0319 	bcc	3816f8 <__bss_end__+0x377bb8>
 a90:	270b3b0b 	strcs	r3, [fp, -fp, lsl #22]
 a94:	11134919 	tstne	r3, r9, lsl r9
 a98:	40061201 	andmi	r1, r6, r1, lsl #4
 a9c:	19429718 	stmdbne	r2, {r3, r4, r8, r9, sl, ip, pc}^
 aa0:	00001301 	andeq	r1, r0, r1, lsl #6
 aa4:	03003405 	movweq	r3, #1029	; 0x405
 aa8:	3b0b3a0e 	blcc	2cf2e8 <__bss_end__+0x2c57a8>
 aac:	0213490b 	andseq	r4, r3, #180224	; 0x2c000
 ab0:	06000017 			; <UNDEFINED> instruction: 0x06000017
 ab4:	193f012e 	ldmdbne	pc!, {r1, r2, r3, r5, r8}	; <UNPREDICTABLE>
 ab8:	0b3a0e03 	bleq	e842cc <__bss_end__+0xe7a78c>
 abc:	19270b3b 	stmdbne	r7!, {r0, r1, r3, r4, r5, r8, r9, fp}
 ac0:	06120111 			; <UNDEFINED> instruction: 0x06120111
 ac4:	42971840 	addsmi	r1, r7, #64, 16	; 0x400000
 ac8:	00130119 	andseq	r0, r3, r9, lsl r1
 acc:	00340700 	eorseq	r0, r4, r0, lsl #14
 ad0:	0b3a0e03 	bleq	e842e4 <__bss_end__+0xe7a7a4>
 ad4:	13490b3b 	movtne	r0, #39739	; 0x9b3b
 ad8:	0000061c 	andeq	r0, r0, ip, lsl r6
 adc:	03003408 	movweq	r3, #1032	; 0x408
 ae0:	3b0b3a0e 	blcc	2cf320 <__bss_end__+0x2c57e0>
 ae4:	1c13490b 	ldcne	9, cr4, [r3], {11}
 ae8:	0900000b 	stmdbeq	r0, {r0, r1, r3}
 aec:	00018289 	andeq	r8, r1, r9, lsl #5
 af0:	13310111 	teqne	r1, #1073741828	; 0x40000004
 af4:	890a0000 	stmdbhi	sl, {}	; <UNPREDICTABLE>
 af8:	11010182 	smlabbne	r1, r2, r1, r0
 afc:	01133101 	tsteq	r3, r1, lsl #2
 b00:	0b000013 	bleq	b54 <_start-0x74ac>
 b04:	0001828a 	andeq	r8, r1, sl, lsl #5
 b08:	42911802 	addsmi	r1, r1, #131072	; 0x20000
 b0c:	0c000018 	stceq	0, cr0, [r0], {24}
 b10:	01018289 	smlabbeq	r1, r9, r2, r8
 b14:	13310111 	teqne	r1, #1073741828	; 0x40000004
 b18:	260d0000 	strcs	r0, [sp], -r0
 b1c:	00134900 	andseq	r4, r3, r0, lsl #18
 b20:	012e0e00 	teqeq	lr, r0, lsl #28
 b24:	0e03193f 	mcreq	9, 0, r1, cr3, cr15, {1}
 b28:	0b3b0b3a 	bleq	ec3818 <__bss_end__+0xeb9cd8>
 b2c:	193c1927 	ldmdbne	ip!, {r0, r1, r2, r5, r8, fp, ip}
 b30:	00001301 	andeq	r1, r0, r1, lsl #6
 b34:	4900050f 	stmdbmi	r0, {r0, r1, r2, r3, r8, sl}
 b38:	10000013 	andne	r0, r0, r3, lsl r0
 b3c:	193f012e 	ldmdbne	pc!, {r1, r2, r3, r5, r8}	; <UNPREDICTABLE>
 b40:	0b3a0e03 	bleq	e84354 <__bss_end__+0xe7a814>
 b44:	19270b3b 	stmdbne	r7!, {r0, r1, r3, r4, r5, r8, r9, fp}
 b48:	0000193c 	andeq	r1, r0, ip, lsr r9
 b4c:	01110100 	tsteq	r1, r0, lsl #2
 b50:	0b130e25 	bleq	4c43ec <__bss_end__+0x4ba8ac>
 b54:	0e1b0e03 	cdpeq	14, 1, cr0, cr11, cr3, {0}
 b58:	06120111 			; <UNDEFINED> instruction: 0x06120111
 b5c:	00001710 	andeq	r1, r0, r0, lsl r7
 b60:	0b002402 	bleq	9b70 <__bss_end__+0x30>
 b64:	030b3e0b 	movweq	r3, #48651	; 0xbe0b
 b68:	03000008 	movweq	r0, #8
 b6c:	0b0b0024 	bleq	2c0c04 <__bss_end__+0x2b70c4>
 b70:	0e030b3e 	vmoveq.16	d3[0], r0
 b74:	2e040000 	cdpcs	0, 0, cr0, cr4, cr0, {0}
 b78:	03193f01 	tsteq	r9, #1, 30
 b7c:	3b0b3a0e 	blcc	2cf3bc <__bss_end__+0x2c587c>
 b80:	1119270b 	tstne	r9, fp, lsl #14
 b84:	40061201 	andmi	r1, r6, r1, lsl #4
 b88:	19429718 	stmdbne	r2, {r3, r4, r8, r9, sl, ip, pc}^
 b8c:	00001301 	andeq	r1, r0, r1, lsl #6
 b90:	03000505 	movweq	r0, #1285	; 0x505
 b94:	3b0b3a0e 	blcc	2cf3d4 <__bss_end__+0x2c5894>
 b98:	0213490b 	andseq	r4, r3, #180224	; 0x2c000
 b9c:	06000017 			; <UNDEFINED> instruction: 0x06000017
 ba0:	193f012e 	ldmdbne	pc!, {r1, r2, r3, r5, r8}	; <UNPREDICTABLE>
 ba4:	0b3a0e03 	bleq	e843b8 <__bss_end__+0xe7a878>
 ba8:	19270b3b 	stmdbne	r7!, {r0, r1, r3, r4, r5, r8, r9, fp}
 bac:	01111349 	tsteq	r1, r9, asr #6
 bb0:	18400612 	stmdane	r0, {r1, r4, r9, sl}^
 bb4:	01194297 			; <UNDEFINED> instruction: 0x01194297
 bb8:	07000013 	smladeq	r0, r3, r0, r0
 bbc:	01018289 	smlabbeq	r1, r9, r2, r8
 bc0:	13310111 	teqne	r1, #1073741828	; 0x40000004
 bc4:	8a080000 	bhi	200bcc <__bss_end__+0x1f708c>
 bc8:	02000182 	andeq	r0, r0, #-2147483616	; 0x80000020
 bcc:	18429118 	stmdane	r2, {r3, r4, r8, ip, pc}^
 bd0:	34090000 	strcc	r0, [r9], #-0
 bd4:	3a080300 	bcc	2017dc <__bss_end__+0x1f7c9c>
 bd8:	490b3b0b 	stmdbmi	fp, {r0, r1, r3, r8, r9, fp, ip, sp}
 bdc:	00180213 	andseq	r0, r8, r3, lsl r2
 be0:	82890a00 	addhi	r0, r9, #0, 20
 be4:	01110001 	tsteq	r1, r1
 be8:	00001331 	andeq	r1, r0, r1, lsr r3
 bec:	0300050b 	movweq	r0, #1291	; 0x50b
 bf0:	3b0b3a08 	blcc	2cf418 <__bss_end__+0x2c58d8>
 bf4:	0213490b 	andseq	r4, r3, #180224	; 0x2c000
 bf8:	0c000017 	stceq	0, cr0, [r0], {23}
 bfc:	0111010b 	tsteq	r1, fp, lsl #2
 c00:	13010612 	movwne	r0, #5650	; 0x1612
 c04:	340d0000 	strcc	r0, [sp], #-0
 c08:	3a080300 	bcc	201810 <__bss_end__+0x1f7cd0>
 c0c:	490b3b0b 	stmdbmi	fp, {r0, r1, r3, r8, r9, fp, ip, sp}
 c10:	00170213 	andseq	r0, r7, r3, lsl r2
 c14:	012e0e00 	teqeq	lr, r0, lsl #28
 c18:	0e03193f 	mcreq	9, 0, r1, cr3, cr15, {1}
 c1c:	0b3b0b3a 	bleq	ec390c <__bss_end__+0xeb9dcc>
 c20:	13491927 	movtne	r1, #39207	; 0x9927
 c24:	0000193c 	andeq	r1, r0, ip, lsr r9
 c28:	4900050f 	stmdbmi	r0, {r0, r1, r2, r3, r8, sl}
 c2c:	00000013 	andeq	r0, r0, r3, lsl r0
 c30:	25011101 	strcs	r1, [r1, #-257]	; 0x101
 c34:	030b130e 	movweq	r1, #45838	; 0xb30e
 c38:	110e1b0e 	tstne	lr, lr, lsl #22
 c3c:	10061201 	andne	r1, r6, r1, lsl #4
 c40:	02000017 	andeq	r0, r0, #23
 c44:	0b0b0024 	bleq	2c0cdc <__bss_end__+0x2b719c>
 c48:	08030b3e 	stmdaeq	r3, {r1, r2, r3, r4, r5, r8, r9, fp}
 c4c:	24030000 	strcs	r0, [r3], #-0
 c50:	3e0b0b00 	vmlacc.f64	d0, d11, d0
 c54:	000e030b 	andeq	r0, lr, fp, lsl #6
 c58:	01040400 	tsteq	r4, r0, lsl #8
 c5c:	0b3a0b0b 	bleq	e83890 <__bss_end__+0xe79d50>
 c60:	13010b3b 	movwne	r0, #6971	; 0x1b3b
 c64:	28050000 	stmdacs	r5, {}	; <UNPREDICTABLE>
 c68:	1c0e0300 	stcne	3, cr0, [lr], {-0}
 c6c:	0600000d 	streq	r0, [r0], -sp
 c70:	0e030016 	mcreq	0, 0, r0, cr3, cr6, {0}
 c74:	0b3b0b3a 	bleq	ec3964 <__bss_end__+0xeb9e24>
 c78:	00001349 	andeq	r1, r0, r9, asr #6
 c7c:	03012e07 	movweq	r2, #7687	; 0x1e07
 c80:	3b0b3a0e 	blcc	2cf4c0 <__bss_end__+0x2c5980>
 c84:	4919270b 	ldmdbmi	r9, {r0, r1, r3, r8, r9, sl, sp}
 c88:	12011113 	andne	r1, r1, #-1073741820	; 0xc0000004
 c8c:	97184006 	ldrls	r4, [r8, -r6]
 c90:	13011942 	movwne	r1, #6466	; 0x1942
 c94:	89080000 	stmdbhi	r8, {}	; <UNPREDICTABLE>
 c98:	11000182 	smlabbne	r0, r2, r1, r0
 c9c:	00133101 	andseq	r3, r3, r1, lsl #2
 ca0:	012e0900 	teqeq	lr, r0, lsl #18
 ca4:	0e03193f 	mcreq	9, 0, r1, cr3, cr15, {1}
 ca8:	0b3b0b3a 	bleq	ec3998 <__bss_end__+0xeb9e58>
 cac:	01111927 	tsteq	r1, r7, lsr #18
 cb0:	18400612 	stmdane	r0, {r1, r4, r9, sl}^
 cb4:	01194297 			; <UNDEFINED> instruction: 0x01194297
 cb8:	0a000013 	beq	d0c <_start-0x72f4>
 cbc:	01018289 	smlabbeq	r1, r9, r2, r8
 cc0:	13310111 	teqne	r1, #1073741828	; 0x40000004
 cc4:	00001301 	andeq	r1, r0, r1, lsl #6
 cc8:	01828a0b 	orreq	r8, r2, fp, lsl #20
 ccc:	91180200 	tstls	r8, r0, lsl #4
 cd0:	00001842 	andeq	r1, r0, r2, asr #16
 cd4:	3f012e0c 	svccc	0x00012e0c
 cd8:	3a0e0319 	bcc	381944 <__bss_end__+0x377e04>
 cdc:	270b3b0b 	strcs	r3, [fp, -fp, lsl #22]
 ce0:	11134919 	tstne	r3, r9, lsl r9
 ce4:	40061201 	andmi	r1, r6, r1, lsl #4
 ce8:	19429718 	stmdbne	r2, {r3, r4, r8, r9, sl, ip, pc}^
 cec:	00001301 	andeq	r1, r0, r1, lsl #6
 cf0:	0300050d 	movweq	r0, #1293	; 0x50d
 cf4:	3b0b3a08 	blcc	2cf51c <__bss_end__+0x2c59dc>
 cf8:	0213490b 	andseq	r4, r3, #180224	; 0x2c000
 cfc:	0e000017 	mcreq	0, 0, r0, cr0, cr7, {0}
 d00:	01018289 	smlabbeq	r1, r9, r2, r8
 d04:	13310111 	teqne	r1, #1073741828	; 0x40000004
 d08:	340f0000 	strcc	r0, [pc], #-0	; d10 <_start-0x72f0>
 d0c:	3a0e0300 	bcc	381914 <__bss_end__+0x377dd4>
 d10:	490b3b0b 	stmdbmi	fp, {r0, r1, r3, r8, r9, fp, ip, sp}
 d14:	02193f13 	andseq	r3, r9, #19, 30	; 0x4c
 d18:	10000018 	andne	r0, r0, r8, lsl r0
 d1c:	0b0b000f 	bleq	2c0d60 <__bss_end__+0x2b7220>
 d20:	00001349 	andeq	r1, r0, r9, asr #6
 d24:	49003511 	stmdbmi	r0, {r0, r4, r8, sl, ip, sp}
 d28:	12000013 	andne	r0, r0, #19
 d2c:	193f012e 	ldmdbne	pc!, {r1, r2, r3, r5, r8}	; <UNPREDICTABLE>
 d30:	0b3a0e03 	bleq	e84544 <__bss_end__+0xe7aa04>
 d34:	19270b3b 	stmdbne	r7!, {r0, r1, r3, r4, r5, r8, r9, fp}
 d38:	193c1349 	ldmdbne	ip!, {r0, r3, r6, r8, r9, ip}
 d3c:	00001301 	andeq	r1, r0, r1, lsl #6
 d40:	49000513 	stmdbmi	r0, {r0, r1, r4, r8, sl}
 d44:	14000013 	strne	r0, [r0], #-19
 d48:	13490026 	movtne	r0, #36902	; 0x9026
 d4c:	35150000 	ldrcc	r0, [r5, #-0]
 d50:	16000000 	strne	r0, [r0], -r0
 d54:	193f002e 	ldmdbne	pc!, {r1, r2, r3, r5}	; <UNPREDICTABLE>
 d58:	0b3a0e03 	bleq	e8456c <__bss_end__+0xe7aa2c>
 d5c:	19270b3b 	stmdbne	r7!, {r0, r1, r3, r4, r5, r8, r9, fp}
 d60:	0000193c 	andeq	r1, r0, ip, lsr r9
 d64:	3f012e17 	svccc	0x00012e17
 d68:	3a0e0319 	bcc	3819d4 <__bss_end__+0x377e94>
 d6c:	270b3b0b 	strcs	r3, [fp, -fp, lsl #22]
 d70:	01193c19 	tsteq	r9, r9, lsl ip
 d74:	00000013 	andeq	r0, r0, r3, lsl r0
 d78:	25011101 	strcs	r1, [r1, #-257]	; 0x101
 d7c:	030b130e 	movweq	r1, #45838	; 0xb30e
 d80:	110e1b0e 	tstne	lr, lr, lsl #22
 d84:	10061201 	andne	r1, r6, r1, lsl #4
 d88:	02000017 	andeq	r0, r0, #23
 d8c:	0b0b0024 	bleq	2c0e24 <__bss_end__+0x2b72e4>
 d90:	0e030b3e 	vmoveq.16	d3[0], r0
 d94:	24030000 	strcs	r0, [r3], #-0
 d98:	3e0b0b00 	vmlacc.f64	d0, d11, d0
 d9c:	0008030b 	andeq	r0, r8, fp, lsl #6
 da0:	01040400 	tsteq	r4, r0, lsl #8
 da4:	0b3a0b0b 	bleq	e839d8 <__bss_end__+0xe79e98>
 da8:	13010b3b 	movwne	r0, #6971	; 0x1b3b
 dac:	28050000 	stmdacs	r5, {}	; <UNPREDICTABLE>
 db0:	1c0e0300 	stcne	3, cr0, [lr], {-0}
 db4:	0600000d 	streq	r0, [r0], -sp
 db8:	0e030016 	mcreq	0, 0, r0, cr3, cr6, {0}
 dbc:	0b3b0b3a 	bleq	ec3aac <__bss_end__+0xeb9f6c>
 dc0:	00001349 	andeq	r1, r0, r9, asr #6
 dc4:	3f012e07 	svccc	0x00012e07
 dc8:	3a0e0319 	bcc	381a34 <__bss_end__+0x377ef4>
 dcc:	270b3b0b 	strcs	r3, [fp, -fp, lsl #22]
 dd0:	12011119 	andne	r1, r1, #1073741830	; 0x40000006
 dd4:	97184006 	ldrls	r4, [r8, -r6]
 dd8:	13011942 	movwne	r1, #6466	; 0x1942
 ddc:	05080000 	streq	r0, [r8, #-0]
 de0:	3a080300 	bcc	2019e8 <__bss_end__+0x1f7ea8>
 de4:	490b3b0b 	stmdbmi	fp, {r0, r1, r3, r8, r9, fp, ip, sp}
 de8:	00170213 	andseq	r0, r7, r3, lsl r2
 dec:	00340900 	eorseq	r0, r4, r0, lsl #18
 df0:	0b3a0e03 	bleq	e84604 <__bss_end__+0xe7aac4>
 df4:	13490b3b 	movtne	r0, #39739	; 0x9b3b
 df8:	00001702 	andeq	r1, r0, r2, lsl #14
 dfc:	0182890a 	orreq	r8, r2, sl, lsl #18
 e00:	31011101 	tstcc	r1, r1, lsl #2
 e04:	00130113 	andseq	r0, r3, r3, lsl r1
 e08:	828a0b00 	addhi	r0, sl, #0, 22
 e0c:	18020001 	stmdane	r2, {r0}
 e10:	00184291 	mulseq	r8, r1, r2
 e14:	82890c00 	addhi	r0, r9, #0, 24
 e18:	01110101 	tsteq	r1, r1, lsl #2
 e1c:	00001331 	andeq	r1, r0, r1, lsr r3
 e20:	0b000f0d 	bleq	4a5c <_start-0x35a4>
 e24:	0013490b 	andseq	r4, r3, fp, lsl #18
 e28:	00350e00 	eorseq	r0, r5, r0, lsl #28
 e2c:	00001349 	andeq	r1, r0, r9, asr #6
 e30:	3f012e0f 	svccc	0x00012e0f
 e34:	3a0e0319 	bcc	381aa0 <__bss_end__+0x377f60>
 e38:	270b3b0b 	strcs	r3, [fp, -fp, lsl #22]
 e3c:	010b2019 	tsteq	fp, r9, lsl r0
 e40:	10000013 	andne	r0, r0, r3, lsl r0
 e44:	08030005 	stmdaeq	r3, {r0, r2}
 e48:	0b3b0b3a 	bleq	ec3b38 <__bss_end__+0xeb9ff8>
 e4c:	00001349 	andeq	r1, r0, r9, asr #6
 e50:	03003411 	movweq	r3, #1041	; 0x411
 e54:	3b0b3a0e 	blcc	2cf694 <__bss_end__+0x2c5b54>
 e58:	0013490b 	andseq	r4, r3, fp, lsl #18
 e5c:	012e1200 	teqeq	lr, r0, lsl #4
 e60:	01111331 	tsteq	r1, r1, lsr r3
 e64:	18400612 	stmdane	r0, {r1, r4, r9, sl}^
 e68:	01194297 			; <UNDEFINED> instruction: 0x01194297
 e6c:	13000013 	movwne	r0, #19
 e70:	13310005 	teqne	r1, #5
 e74:	00001702 	andeq	r1, r0, r2, lsl #14
 e78:	31003414 	tstcc	r0, r4, lsl r4
 e7c:	00170213 	andseq	r0, r7, r3, lsl r2
 e80:	012e1500 	teqeq	lr, r0, lsl #10
 e84:	0e03193f 	mcreq	9, 0, r1, cr3, cr15, {1}
 e88:	0b3b0b3a 	bleq	ec3b78 <__bss_end__+0xeba038>
 e8c:	13491927 	movtne	r1, #39207	; 0x9927
 e90:	06120111 			; <UNDEFINED> instruction: 0x06120111
 e94:	42971840 	addsmi	r1, r7, #64, 16	; 0x400000
 e98:	00130119 	andseq	r0, r3, r9, lsl r1
 e9c:	00341600 	eorseq	r1, r4, r0, lsl #12
 ea0:	0b3a0803 	bleq	e82eb4 <__bss_end__+0xe79374>
 ea4:	13490b3b 	movtne	r0, #39739	; 0x9b3b
 ea8:	00001702 	andeq	r1, r0, r2, lsl #14
 eac:	01828917 	orreq	r8, r2, r7, lsl r9
 eb0:	31011100 	mrscc	r1, (UNDEF: 17)
 eb4:	18000013 	stmdane	r0, {r0, r1, r4}
 eb8:	1331011d 	teqne	r1, #1073741831	; 0x40000007
 ebc:	06120111 			; <UNDEFINED> instruction: 0x06120111
 ec0:	0b590b58 	bleq	1643c28 <__bss_end__+0x163a0e8>
 ec4:	00001301 	andeq	r1, r0, r1, lsl #6
 ec8:	11010b19 	tstne	r1, r9, lsl fp
 ecc:	00061201 	andeq	r1, r6, r1, lsl #4
 ed0:	011d1a00 	tsteq	sp, r0, lsl #20
 ed4:	01111331 	tsteq	r1, r1, lsr r3
 ed8:	0b580612 	bleq	1602728 <__bss_end__+0x15f8be8>
 edc:	00000b59 	andeq	r0, r0, r9, asr fp
 ee0:	0300051b 	movweq	r0, #1307	; 0x51b
 ee4:	3b0b3a0e 	blcc	2cf724 <__bss_end__+0x2c5be4>
 ee8:	0213490b 	andseq	r4, r3, #180224	; 0x2c000
 eec:	1c000017 	stcne	0, cr0, [r0], {23}
 ef0:	0e030034 	mcreq	0, 0, r0, cr3, cr4, {1}
 ef4:	0b3b0b3a 	bleq	ec3be4 <__bss_end__+0xeba0a4>
 ef8:	193f1349 	ldmdbne	pc!, {r0, r3, r6, r8, r9, ip}	; <UNPREDICTABLE>
 efc:	00001802 	andeq	r1, r0, r2, lsl #16
 f00:	3f012e1d 	svccc	0x00012e1d
 f04:	3a0e0319 	bcc	381b70 <__bss_end__+0x378030>
 f08:	270b3b0b 	strcs	r3, [fp, -fp, lsl #22]
 f0c:	3c134919 	ldccc	9, cr4, [r3], {25}
 f10:	00130119 	andseq	r0, r3, r9, lsl r1
 f14:	00051e00 	andeq	r1, r5, r0, lsl #28
 f18:	00001349 	andeq	r1, r0, r9, asr #6
 f1c:	4900261f 	stmdbmi	r0, {r0, r1, r2, r3, r4, r9, sl, sp}
 f20:	20000013 	andcs	r0, r0, r3, lsl r0
 f24:	00000035 	andeq	r0, r0, r5, lsr r0
 f28:	3f012e21 	svccc	0x00012e21
 f2c:	3a0e0319 	bcc	381b98 <__bss_end__+0x378058>
 f30:	270b3b0b 	strcs	r3, [fp, -fp, lsl #22]
 f34:	01193c19 	tsteq	r9, r9, lsl ip
 f38:	00000013 	andeq	r0, r0, r3, lsl r0
 f3c:	25011101 	strcs	r1, [r1, #-257]	; 0x101
 f40:	030b130e 	movweq	r1, #45838	; 0xb30e
 f44:	110e1b0e 	tstne	lr, lr, lsl #22
 f48:	10061201 	andne	r1, r6, r1, lsl #4
 f4c:	02000017 	andeq	r0, r0, #23
 f50:	0b0b0024 	bleq	2c0fe8 <__bss_end__+0x2b74a8>
 f54:	08030b3e 	stmdaeq	r3, {r1, r2, r3, r4, r5, r8, r9, fp}
 f58:	24030000 	strcs	r0, [r3], #-0
 f5c:	3e0b0b00 	vmlacc.f64	d0, d11, d0
 f60:	000e030b 	andeq	r0, lr, fp, lsl #6
 f64:	012e0400 	teqeq	lr, r0, lsl #8
 f68:	0b3a0e03 	bleq	e8477c <__bss_end__+0xe7ac3c>
 f6c:	19270b3b 	stmdbne	r7!, {r0, r1, r3, r4, r5, r8, r9, fp}
 f70:	01111349 	tsteq	r1, r9, asr #6
 f74:	18400612 	stmdane	r0, {r1, r4, r9, sl}^
 f78:	01194297 			; <UNDEFINED> instruction: 0x01194297
 f7c:	05000013 	streq	r0, [r0, #-19]
 f80:	08030005 	stmdaeq	r3, {r0, r2}
 f84:	0b3b0b3a 	bleq	ec3c74 <__bss_end__+0xeba134>
 f88:	17021349 	strne	r1, [r2, -r9, asr #6]
 f8c:	89060000 	stmdbhi	r6, {}	; <UNPREDICTABLE>
 f90:	11010182 	smlabbne	r1, r2, r1, r0
 f94:	00133101 	andseq	r3, r3, r1, lsl #2
 f98:	828a0700 	addhi	r0, sl, #0, 14
 f9c:	18020001 	stmdane	r2, {r0}
 fa0:	00184291 	mulseq	r8, r1, r2
 fa4:	01150800 	tsteq	r5, r0, lsl #16
 fa8:	13491927 	movtne	r1, #39207	; 0x9927
 fac:	00001301 	andeq	r1, r0, r1, lsl #6
 fb0:	49000509 	stmdbmi	r0, {r0, r3, r8, sl}
 fb4:	0a000013 	beq	1008 <_start-0x6ff8>
 fb8:	0e030034 	mcreq	0, 0, r0, cr3, cr4, {1}
 fbc:	0b3b0b3a 	bleq	ec3cac <__bss_end__+0xeba16c>
 fc0:	193f1349 	ldmdbne	pc!, {r0, r3, r6, r8, r9, ip}	; <UNPREDICTABLE>
 fc4:	00001802 	andeq	r1, r0, r2, lsl #16
 fc8:	0b000f0b 	bleq	4bfc <_start-0x3404>
 fcc:	0013490b 	andseq	r4, r3, fp, lsl #18
 fd0:	012e0c00 	teqeq	lr, r0, lsl #24
 fd4:	0e03193f 	mcreq	9, 0, r1, cr3, cr15, {1}
 fd8:	0b3b0b3a 	bleq	ec3cc8 <__bss_end__+0xeba188>
 fdc:	193c1927 	ldmdbne	ip!, {r0, r1, r2, r5, r8, fp, ip}
 fe0:	Address 0x0000000000000fe0 is out of bounds.


Disassembly of section .debug_loc:

00000000 <.debug_loc>:
       0:	00000034 	andeq	r0, r0, r4, lsr r0
       4:	00000050 	andeq	r0, r0, r0, asr r0
       8:	9f300002 	svcls	0x00300002
       c:	00000050 	andeq	r0, r0, r0, asr r0
      10:	00000118 	andeq	r0, r0, r8, lsl r1
      14:	00540001 	subseq	r0, r4, r1
      18:	00000000 	andeq	r0, r0, r0
      1c:	50000000 	andpl	r0, r0, r0
      20:	e8000000 	stmda	r0, {}	; <UNPREDICTABLE>
      24:	02000000 	andeq	r0, r0, #0
      28:	009f3300 	addseq	r3, pc, r0, lsl #6
      2c:	00000000 	andeq	r0, r0, r0
      30:	78000000 	stmdavc	r0, {}	; <UNPREDICTABLE>
      34:	84000000 	strhi	r0, [r0], #-0
      38:	01000000 	mrseq	r0, (UNDEF: 0)
      3c:	00845000 	addeq	r5, r4, r0
      40:	00900000 	addseq	r0, r0, r0
      44:	00010000 	andeq	r0, r1, r0
      48:	00009055 	andeq	r9, r0, r5, asr r0
      4c:	00009400 	andeq	r9, r0, r0, lsl #8
      50:	50000100 	andpl	r0, r0, r0, lsl #2
      54:	00000094 	muleq	r0, r4, r0
      58:	000000e8 	andeq	r0, r0, r8, ror #1
      5c:	00550001 	subseq	r0, r5, r1
	...
      68:	1c000000 	stcne	0, cr0, [r0], {-0}
      6c:	01000000 	mrseq	r0, (UNDEF: 0)
      70:	001c5000 	andseq	r5, ip, r0
      74:	01580000 	cmpeq	r8, r0
      78:	00040000 	andeq	r0, r4, r0
      7c:	9f5001f3 	svcls	0x005001f3
	...
      8c:	00000020 	andeq	r0, r0, r0, lsr #32
      90:	20510001 	subscs	r0, r1, r1
      94:	58000000 	stmdapl	r0, {}	; <UNPREDICTABLE>
      98:	04000001 	streq	r0, [r0], #-1
      9c:	5101f300 	mrspl	pc, SP_irq	; <UNPREDICTABLE>
      a0:	0000009f 	muleq	r0, pc, r0	; <UNPREDICTABLE>
      a4:	00000000 	andeq	r0, r0, r0
      a8:	00001000 	andeq	r1, r0, r0
      ac:	00013800 	andeq	r3, r1, r0, lsl #16
      b0:	55000100 	strpl	r0, [r0, #-256]	; 0x100
	...
      bc:	00000014 	andeq	r0, r0, r4, lsl r0
      c0:	00000038 	andeq	r0, r0, r8, lsr r0
      c4:	38550001 	ldmdacc	r5, {r0}^
      c8:	38000000 	stmdacc	r0, {}	; <UNPREDICTABLE>
      cc:	01000001 	tsteq	r0, r1
      d0:	01385800 	teqeq	r8, r0, lsl #16
      d4:	01580000 	cmpeq	r8, r0
      d8:	00010000 	andeq	r0, r1, r0
      dc:	00000055 	andeq	r0, r0, r5, asr r0
      e0:	00000000 	andeq	r0, r0, r0
      e4:	00001800 	andeq	r1, r0, r0, lsl #16
      e8:	00013800 	andeq	r3, r1, r0, lsl #16
      ec:	55000100 	strpl	r0, [r0, #-256]	; 0x100
	...
      f8:	00000024 	andeq	r0, r0, r4, lsr #32
      fc:	00000138 	andeq	r0, r0, r8, lsr r1
     100:	00550001 	subseq	r0, r5, r1
     104:	00000000 	andeq	r0, r0, r0
     108:	28000000 	stmdacs	r0, {}	; <UNPREDICTABLE>
     10c:	2c000000 	stccs	0, cr0, [r0], {-0}
     110:	01000000 	mrseq	r0, (UNDEF: 0)
     114:	00005300 	andeq	r5, r0, r0, lsl #6
     118:	00000000 	andeq	r0, r0, r0
     11c:	00380000 	eorseq	r0, r8, r0
     120:	00580000 	subseq	r0, r8, r0
     124:	00010000 	andeq	r0, r1, r0
     128:	00005858 	andeq	r5, r0, r8, asr r8
     12c:	00013800 	andeq	r3, r1, r0, lsl #16
     130:	75000500 	strvc	r0, [r0, #-1280]	; 0x500
     134:	9f243100 	svcls	0x00243100
	...
     140:	00000038 	andeq	r0, r0, r8, lsr r0
     144:	00000040 	andeq	r0, r0, r0, asr #32
     148:	00770005 	rsbseq	r0, r7, r5
     14c:	409f1a31 	addsmi	r1, pc, r1, lsr sl	; <UNPREDICTABLE>
     150:	43000000 	movwmi	r0, #0
     154:	01000000 	mrseq	r0, (UNDEF: 0)
     158:	00435100 	subeq	r5, r3, r0, lsl #2
     15c:	01580000 	cmpeq	r8, r0
     160:	00050000 	andeq	r0, r5, r0
     164:	1a310077 	bne	c40348 <__bss_end__+0xc36808>
     168:	0000009f 	muleq	r0, pc, r0	; <UNPREDICTABLE>
     16c:	00000000 	andeq	r0, r0, r0
     170:	00004400 	andeq	r4, r0, r0, lsl #8
     174:	00005800 	andeq	r5, r0, r0, lsl #16
     178:	58000100 	stmdapl	r0, {r8}
     17c:	00000058 	andeq	r0, r0, r8, asr r0
     180:	00000138 	andeq	r0, r0, r8, lsr r1
     184:	00750005 	rsbseq	r0, r5, r5
     188:	009f2431 	addseq	r2, pc, r1, lsr r4	; <UNPREDICTABLE>
     18c:	00000000 	andeq	r0, r0, r0
     190:	48000000 	stmdami	r0, {}	; <UNPREDICTABLE>
     194:	4c000000 	stcmi	0, cr0, [r0], {-0}
     198:	01000000 	mrseq	r0, (UNDEF: 0)
     19c:	00005300 	andeq	r5, r0, r0, lsl #6
     1a0:	00000000 	andeq	r0, r0, r0
     1a4:	00580000 	subseq	r0, r8, r0
     1a8:	00780000 	rsbseq	r0, r8, r0
     1ac:	00010000 	andeq	r0, r1, r0
     1b0:	00007858 	andeq	r7, r0, r8, asr r8
     1b4:	00013800 	andeq	r3, r1, r0, lsl #16
     1b8:	75000800 	strvc	r0, [r0, #-2048]	; 0x800
     1bc:	75243100 	strvc	r3, [r4, #-256]!	; 0x100
     1c0:	009f2200 	addseq	r2, pc, r0, lsl #4
     1c4:	00000000 	andeq	r0, r0, r0
     1c8:	64000000 	strvs	r0, [r0], #-0
     1cc:	78000000 	stmdavc	r0, {}	; <UNPREDICTABLE>
     1d0:	01000000 	mrseq	r0, (UNDEF: 0)
     1d4:	00785800 	rsbseq	r5, r8, r0, lsl #16
     1d8:	01380000 	teqeq	r8, r0
     1dc:	00080000 	andeq	r0, r8, r0
     1e0:	24310075 	ldrtcs	r0, [r1], #-117	; 0x75
     1e4:	9f220075 	svcls	0x00220075
	...
     1f0:	00000068 	andeq	r0, r0, r8, rrx
     1f4:	0000006c 	andeq	r0, r0, ip, rrx
     1f8:	00530001 	subseq	r0, r3, r1
     1fc:	00000000 	andeq	r0, r0, r0
     200:	78000000 	stmdavc	r0, {}	; <UNPREDICTABLE>
     204:	98000000 	stmdals	r0, {}	; <UNPREDICTABLE>
     208:	01000000 	mrseq	r0, (UNDEF: 0)
     20c:	00985800 	addseq	r5, r8, r0, lsl #16
     210:	01380000 	teqeq	r8, r0
     214:	00050000 	andeq	r0, r5, r0
     218:	24320075 	ldrtcs	r0, [r2], #-117	; 0x75
     21c:	0000009f 	muleq	r0, pc, r0	; <UNPREDICTABLE>
     220:	00000000 	andeq	r0, r0, r0
     224:	00008400 	andeq	r8, r0, r0, lsl #8
     228:	00009800 	andeq	r9, r0, r0, lsl #16
     22c:	58000100 	stmdapl	r0, {r8}
     230:	00000098 	muleq	r0, r8, r0
     234:	00000138 	andeq	r0, r0, r8, lsr r1
     238:	00750005 	rsbseq	r0, r5, r5
     23c:	009f2432 	addseq	r2, pc, r2, lsr r4	; <UNPREDICTABLE>
     240:	00000000 	andeq	r0, r0, r0
     244:	88000000 	stmdahi	r0, {}	; <UNPREDICTABLE>
     248:	8c000000 	stchi	0, cr0, [r0], {-0}
     24c:	01000000 	mrseq	r0, (UNDEF: 0)
     250:	00005300 	andeq	r5, r0, r0, lsl #6
     254:	00000000 	andeq	r0, r0, r0
     258:	00980000 	addseq	r0, r8, r0
     25c:	00b80000 	adcseq	r0, r8, r0
     260:	00010000 	andeq	r0, r1, r0
     264:	0000b858 	andeq	fp, r0, r8, asr r8
     268:	00013800 	andeq	r3, r1, r0, lsl #16
     26c:	75000800 	strvc	r0, [r0, #-2048]	; 0x800
     270:	75243200 	strvc	r3, [r4, #-512]!	; 0x200
     274:	009f2200 	addseq	r2, pc, r0, lsl #4
     278:	00000000 	andeq	r0, r0, r0
     27c:	a4000000 	strge	r0, [r0], #-0
     280:	b8000000 	stmdalt	r0, {}	; <UNPREDICTABLE>
     284:	01000000 	mrseq	r0, (UNDEF: 0)
     288:	00b85800 	adcseq	r5, r8, r0, lsl #16
     28c:	01380000 	teqeq	r8, r0
     290:	00080000 	andeq	r0, r8, r0
     294:	24320075 	ldrtcs	r0, [r2], #-117	; 0x75
     298:	9f220075 	svcls	0x00220075
	...
     2a4:	000000a8 	andeq	r0, r0, r8, lsr #1
     2a8:	000000ac 	andeq	r0, r0, ip, lsr #1
     2ac:	00530001 	subseq	r0, r3, r1
     2b0:	00000000 	andeq	r0, r0, r0
     2b4:	b8000000 	stmdalt	r0, {}	; <UNPREDICTABLE>
     2b8:	d8000000 	stmdale	r0, {}	; <UNPREDICTABLE>
     2bc:	01000000 	mrseq	r0, (UNDEF: 0)
     2c0:	00d85800 	sbcseq	r5, r8, r0, lsl #16
     2c4:	01380000 	teqeq	r8, r0
     2c8:	000a0000 	andeq	r0, sl, r0
     2cc:	24320075 	ldrtcs	r0, [r2], #-117	; 0x75
     2d0:	24310075 	ldrtcs	r0, [r1], #-117	; 0x75
     2d4:	00009f22 	andeq	r9, r0, r2, lsr #30
     2d8:	00000000 	andeq	r0, r0, r0
     2dc:	00c40000 	sbceq	r0, r4, r0
     2e0:	00d80000 	sbcseq	r0, r8, r0
     2e4:	00010000 	andeq	r0, r1, r0
     2e8:	0000d858 	andeq	sp, r0, r8, asr r8
     2ec:	00013800 	andeq	r3, r1, r0, lsl #16
     2f0:	75000a00 	strvc	r0, [r0, #-2560]	; 0xa00
     2f4:	75243200 	strvc	r3, [r4, #-512]!	; 0x200
     2f8:	22243100 	eorcs	r3, r4, #0, 2
     2fc:	0000009f 	muleq	r0, pc, r0	; <UNPREDICTABLE>
     300:	00000000 	andeq	r0, r0, r0
     304:	0000c800 	andeq	ip, r0, r0, lsl #16
     308:	0000cc00 	andeq	ip, r0, r0, lsl #24
     30c:	53000100 	movwpl	r0, #256	; 0x100
	...
     318:	000000d8 	ldrdeq	r0, [r0], -r8
     31c:	000000f8 	strdeq	r0, [r0], -r8
     320:	f8580001 			; <UNDEFINED> instruction: 0xf8580001
     324:	38000000 	stmdacc	r0, {}	; <UNPREDICTABLE>
     328:	0d000001 	stceq	0, cr0, [r0, #-4]
     32c:	32007500 	andcc	r7, r0, #0, 10
     330:	31007524 	tstcc	r0, r4, lsr #10
     334:	00752224 	rsbseq	r2, r5, r4, lsr #4
     338:	00009f22 	andeq	r9, r0, r2, lsr #30
     33c:	00000000 	andeq	r0, r0, r0
     340:	00e40000 	rsceq	r0, r4, r0
     344:	00f80000 	rscseq	r0, r8, r0
     348:	00010000 	andeq	r0, r1, r0
     34c:	0000f858 	andeq	pc, r0, r8, asr r8	; <UNPREDICTABLE>
     350:	00013800 	andeq	r3, r1, r0, lsl #16
     354:	75000d00 	strvc	r0, [r0, #-3328]	; 0xd00
     358:	75243200 	strvc	r3, [r4, #-512]!	; 0x200
     35c:	22243100 	eorcs	r3, r4, #0, 2
     360:	9f220075 	svcls	0x00220075
	...
     36c:	000000e8 	andeq	r0, r0, r8, ror #1
     370:	000000ec 	andeq	r0, r0, ip, ror #1
     374:	00530001 	subseq	r0, r3, r1
     378:	00000000 	andeq	r0, r0, r0
     37c:	f8000000 			; <UNDEFINED> instruction: 0xf8000000
     380:	18000000 	stmdane	r0, {}	; <UNPREDICTABLE>
     384:	01000001 	tsteq	r0, r1
     388:	01185800 	tsteq	r8, r0, lsl #16
     38c:	01380000 	teqeq	r8, r0
     390:	00050000 	andeq	r0, r5, r0
     394:	24330075 	ldrtcs	r0, [r3], #-117	; 0x75
     398:	0000009f 	muleq	r0, pc, r0	; <UNPREDICTABLE>
     39c:	00000000 	andeq	r0, r0, r0
     3a0:	00010400 	andeq	r0, r1, r0, lsl #8
     3a4:	00011800 	andeq	r1, r1, r0, lsl #16
     3a8:	58000100 	stmdapl	r0, {r8}
     3ac:	00000118 	andeq	r0, r0, r8, lsl r1
     3b0:	00000138 	andeq	r0, r0, r8, lsr r1
     3b4:	00750005 	rsbseq	r0, r5, r5
     3b8:	009f2433 	addseq	r2, pc, r3, lsr r4	; <UNPREDICTABLE>
     3bc:	00000000 	andeq	r0, r0, r0
     3c0:	08000000 	stmdaeq	r0, {}	; <UNPREDICTABLE>
     3c4:	0c000001 	stceq	0, cr0, [r0], {1}
     3c8:	01000001 	tsteq	r0, r1
     3cc:	00005300 	andeq	r5, r0, r0, lsl #6
     3d0:	00000000 	andeq	r0, r0, r0
     3d4:	01180000 	tsteq	r8, r0
     3d8:	01200000 	teqeq	r0, r0
     3dc:	00060000 	andeq	r0, r6, r0
     3e0:	80080077 	andhi	r0, r8, r7, ror r0
     3e4:	01209f1a 	teqeq	r0, sl, lsl pc
     3e8:	01230000 	teqeq	r3, r0
     3ec:	00010000 	andeq	r0, r1, r0
     3f0:	00012351 	andeq	r2, r1, r1, asr r3
     3f4:	00015800 	andeq	r5, r1, r0, lsl #16
     3f8:	77000600 	strvc	r0, [r0, -r0, lsl #12]
     3fc:	1a800800 	bne	fe002404 <__bss_end__+0xfdff88c4>
     400:	0000009f 	muleq	r0, pc, r0	; <UNPREDICTABLE>
     404:	00000000 	andeq	r0, r0, r0
     408:	00012800 	andeq	r2, r1, r0, lsl #16
     40c:	00012c00 	andeq	r2, r1, r0, lsl #24
     410:	53000100 	movwpl	r0, #256	; 0x100
	...
     41c:	00000148 	andeq	r0, r0, r8, asr #2
     420:	0000014c 	andeq	r0, r0, ip, asr #2
     424:	00530001 	subseq	r0, r3, r1
     428:	00000000 	andeq	r0, r0, r0
     42c:	58000000 	stmdapl	r0, {}	; <UNPREDICTABLE>
     430:	6f000001 	svcvs	0x00000001
     434:	01000001 	tsteq	r0, r1
     438:	016f5000 	cmneq	pc, r0
     43c:	01d40000 	bicseq	r0, r4, r0
     440:	00010000 	andeq	r0, r1, r0
     444:	0001d459 	andeq	sp, r1, r9, asr r4
     448:	00031000 	andeq	r1, r3, r0
     44c:	f3000400 	vshl.u8	d0, d0, d0
     450:	109f5001 	addsne	r5, pc, r1
     454:	18000003 	stmdane	r0, {r0, r1}
     458:	01000003 	tsteq	r0, r3
     45c:	03185900 	tsteq	r8, #0, 18
     460:	03200000 	teqeq	r0, #0
     464:	00040000 	andeq	r0, r4, r0
     468:	9f5001f3 	svcls	0x005001f3
	...
     474:	00000158 	andeq	r0, r0, r8, asr r1
     478:	0000016f 	andeq	r0, r0, pc, ror #2
     47c:	6f510001 	svcvs	0x00510001
     480:	20000001 	andcs	r0, r0, r1
     484:	01000003 	tsteq	r0, r3
     488:	00005600 	andeq	r5, r0, r0, lsl #12
     48c:	00000000 	andeq	r0, r0, r0
     490:	01ac0000 			; <UNDEFINED> instruction: 0x01ac0000
     494:	029c0000 	addseq	r0, ip, #0
     498:	00010000 	andeq	r0, r1, r0
     49c:	00000058 	andeq	r0, r0, r8, asr r0
     4a0:	00000000 	andeq	r0, r0, r0
     4a4:	0001b000 	andeq	fp, r1, r0
     4a8:	0002d400 	andeq	sp, r2, r0, lsl #8
     4ac:	54000100 	strpl	r0, [r0], #-256	; 0x100
	...
     4b8:	000001b0 			; <UNDEFINED> instruction: 0x000001b0
     4bc:	000002d4 	ldrdeq	r0, [r0], -r4
     4c0:	00740005 	rsbseq	r0, r4, r5
     4c4:	009f2531 	addseq	r2, pc, r1, lsr r5	; <UNPREDICTABLE>
     4c8:	00000000 	andeq	r0, r0, r0
     4cc:	b0000000 	andlt	r0, r0, r0
     4d0:	d4000001 	strle	r0, [r0], #-1
     4d4:	02000001 	andeq	r0, r0, #1
     4d8:	d49f3000 	ldrle	r3, [pc], #0	; 4e0 <_start-0x7b20>
     4dc:	10000001 	andne	r0, r0, r1
     4e0:	01000003 	tsteq	r0, r3
     4e4:	03185900 	tsteq	r8, #0, 18
     4e8:	03200000 	teqeq	r0, #0
     4ec:	00010000 	andeq	r0, r1, r0
     4f0:	00000059 	andeq	r0, r0, r9, asr r0
     4f4:	00000000 	andeq	r0, r0, r0
     4f8:	00016c00 	andeq	r6, r1, r0, lsl #24
     4fc:	00016f00 	andeq	r6, r1, r0, lsl #30
     500:	51000100 	mrspl	r0, (UNDEF: 16)
     504:	0000016f 	andeq	r0, r0, pc, ror #2
     508:	00000320 	andeq	r0, r0, r0, lsr #6
     50c:	00560001 	subseq	r0, r6, r1
     510:	00000000 	andeq	r0, r0, r0
     514:	74000000 	strvc	r0, [r0], #-0
     518:	b0000001 	andlt	r0, r0, r1
     51c:	01000001 	tsteq	r0, r1
     520:	03105400 	tsteq	r0, #0, 8
     524:	03180000 	tsteq	r8, #0
     528:	00010000 	andeq	r0, r1, r0
     52c:	00000054 	andeq	r0, r0, r4, asr r0
     530:	00000000 	andeq	r0, r0, r0
     534:	0001ac00 	andeq	sl, r1, r0, lsl #24
     538:	0001c800 	andeq	ip, r1, r0, lsl #16
     53c:	58000100 	stmdapl	r0, {r8}
	...
     548:	000001b4 			; <UNDEFINED> instruction: 0x000001b4
     54c:	000001cf 	andeq	r0, r0, pc, asr #3
     550:	cf520001 	svcgt	0x00520001
     554:	d4000001 	strle	r0, [r0], #-1
     558:	08000002 	stmdaeq	r0, {r1}
     55c:	31007400 	tstcc	r0, r0, lsl #8
     560:	22007425 	andcs	r7, r0, #620756992	; 0x25000000
     564:	0000009f 	muleq	r0, pc, r0	; <UNPREDICTABLE>
     568:	00000000 	andeq	r0, r0, r0
     56c:	0001b400 	andeq	fp, r1, r0, lsl #8
     570:	0001c800 	andeq	ip, r1, r0, lsl #16
     574:	58000100 	stmdapl	r0, {r8}
	...
     580:	000001b8 			; <UNDEFINED> instruction: 0x000001b8
     584:	000001bc 			; <UNDEFINED> instruction: 0x000001bc
     588:	00530001 	subseq	r0, r3, r1
     58c:	00000000 	andeq	r0, r0, r0
     590:	d4000000 	strle	r0, [r0], #-0
     594:	d4000001 	strle	r0, [r0], #-1
     598:	01000002 	tsteq	r0, r2
     59c:	00005400 	andeq	r5, r0, r0, lsl #8
     5a0:	00000000 	andeq	r0, r0, r0
     5a4:	01d40000 	bicseq	r0, r4, r0
     5a8:	01e80000 	mvneq	r0, r0
     5ac:	00010000 	andeq	r0, r1, r0
     5b0:	00000058 	andeq	r0, r0, r8, asr r0
     5b4:	00000000 	andeq	r0, r0, r0
     5b8:	0001d800 	andeq	sp, r1, r0, lsl #16
     5bc:	0001dc00 	andeq	sp, r1, r0, lsl #24
     5c0:	53000100 	movwpl	r0, #256	; 0x100
	...
     5cc:	000001f8 	strdeq	r0, [r0], -r8
     5d0:	000002d4 	ldrdeq	r0, [r0], -r4
     5d4:	00540001 	subseq	r0, r4, r1
     5d8:	00000000 	andeq	r0, r0, r0
     5dc:	f8000000 			; <UNDEFINED> instruction: 0xf8000000
     5e0:	0c000001 	stceq	0, cr0, [r0], {1}
     5e4:	01000002 	tsteq	r0, r2
     5e8:	00005800 	andeq	r5, r0, r0, lsl #16
     5ec:	00000000 	andeq	r0, r0, r0
     5f0:	01fc0000 	mvnseq	r0, r0
     5f4:	02000000 	andeq	r0, r0, #0
     5f8:	00010000 	andeq	r0, r1, r0
     5fc:	00000053 	andeq	r0, r0, r3, asr r0
     600:	00000000 	andeq	r0, r0, r0
     604:	00021c00 	andeq	r1, r2, r0, lsl #24
     608:	0002d400 	andeq	sp, r2, r0, lsl #8
     60c:	54000100 	strpl	r0, [r0], #-256	; 0x100
	...
     618:	0000021c 	andeq	r0, r0, ip, lsl r2
     61c:	00000230 	andeq	r0, r0, r0, lsr r2
     620:	00580001 	subseq	r0, r8, r1
     624:	00000000 	andeq	r0, r0, r0
     628:	20000000 	andcs	r0, r0, r0
     62c:	24000002 	strcs	r0, [r0], #-2
     630:	01000002 	tsteq	r0, r2
     634:	00005300 	andeq	r5, r0, r0, lsl #6
     638:	00000000 	andeq	r0, r0, r0
     63c:	02400000 	subeq	r0, r0, #0
     640:	02d40000 	sbcseq	r0, r4, #0
     644:	00010000 	andeq	r0, r1, r0
     648:	00000054 	andeq	r0, r0, r4, asr r0
     64c:	00000000 	andeq	r0, r0, r0
     650:	00024000 	andeq	r4, r2, r0
     654:	00025400 	andeq	r5, r2, r0, lsl #8
     658:	58000100 	stmdapl	r0, {r8}
	...
     664:	00000244 	andeq	r0, r0, r4, asr #4
     668:	00000248 	andeq	r0, r0, r8, asr #4
     66c:	00530001 	subseq	r0, r3, r1
     670:	00000000 	andeq	r0, r0, r0
     674:	64000000 	strvs	r0, [r0], #-0
     678:	d4000002 	strle	r0, [r0], #-2
     67c:	01000002 	tsteq	r0, r2
     680:	00005400 	andeq	r5, r0, r0, lsl #8
     684:	00000000 	andeq	r0, r0, r0
     688:	02640000 	rsbeq	r0, r4, #0
     68c:	02780000 	rsbseq	r0, r8, #0
     690:	00010000 	andeq	r0, r1, r0
     694:	00000058 	andeq	r0, r0, r8, asr r0
     698:	00000000 	andeq	r0, r0, r0
     69c:	00026800 	andeq	r6, r2, r0, lsl #16
     6a0:	00026c00 	andeq	r6, r2, r0, lsl #24
     6a4:	53000100 	movwpl	r0, #256	; 0x100
	...
     6b0:	00000288 	andeq	r0, r0, r8, lsl #5
     6b4:	000002d4 	ldrdeq	r0, [r0], -r4
     6b8:	00540001 	subseq	r0, r4, r1
     6bc:	00000000 	andeq	r0, r0, r0
     6c0:	88000000 	stmdahi	r0, {}	; <UNPREDICTABLE>
     6c4:	9c000002 	stcls	0, cr0, [r0], {2}
     6c8:	01000002 	tsteq	r0, r2
     6cc:	00005800 	andeq	r5, r0, r0, lsl #16
     6d0:	00000000 	andeq	r0, r0, r0
     6d4:	028c0000 	addeq	r0, ip, #0
     6d8:	02900000 	addseq	r0, r0, #0
     6dc:	00010000 	andeq	r0, r1, r0
     6e0:	00000053 	andeq	r0, r0, r3, asr r0
     6e4:	00000000 	andeq	r0, r0, r0
     6e8:	0002ac00 	andeq	sl, r2, r0, lsl #24
     6ec:	0002d400 	andeq	sp, r2, r0, lsl #8
     6f0:	54000100 	strpl	r0, [r0], #-256	; 0x100
	...
     6fc:	000002b0 			; <UNDEFINED> instruction: 0x000002b0
     700:	000002b4 			; <UNDEFINED> instruction: 0x000002b4
     704:	00530001 	subseq	r0, r3, r1
     708:	00000000 	andeq	r0, r0, r0
     70c:	cc000000 	stcgt	0, cr0, [r0], {-0}
     710:	10000002 	andne	r0, r0, r2
     714:	02000003 	andeq	r0, r0, #3
     718:	189f3000 	ldmne	pc, {ip, sp}	; <UNPREDICTABLE>
     71c:	20000003 	andcs	r0, r0, r3
     720:	02000003 	andeq	r0, r0, #3
     724:	009f3000 	addseq	r3, pc, r0
     728:	00000000 	andeq	r0, r0, r0
     72c:	cc000000 	stcgt	0, cr0, [r0], {-0}
     730:	10000002 	andne	r0, r0, r2
     734:	01000003 	tsteq	r0, r3
     738:	03185500 	tsteq	r8, #0, 10
     73c:	03200000 	teqeq	r0, #0
     740:	00010000 	andeq	r0, r1, r0
     744:	00000055 	andeq	r0, r0, r5, asr r0
     748:	00000000 	andeq	r0, r0, r0
     74c:	0002d400 	andeq	sp, r2, r0, lsl #8
     750:	00031000 	andeq	r1, r3, r0
     754:	54000100 	strpl	r0, [r0], #-256	; 0x100
     758:	00000318 	andeq	r0, r0, r8, lsl r3
     75c:	00000320 	andeq	r0, r0, r0, lsr #6
     760:	00540001 	subseq	r0, r4, r1
     764:	00000000 	andeq	r0, r0, r0
     768:	20000000 	andcs	r0, r0, r0
     76c:	40000003 	andmi	r0, r0, r3
     770:	01000003 	tsteq	r0, r3
     774:	03405000 	movteq	r5, #0
     778:	03540000 	cmpeq	r4, #0
     77c:	00010000 	andeq	r0, r1, r0
     780:	00035458 	andeq	r5, r3, r8, asr r4
     784:	00036400 	andeq	r6, r3, r0, lsl #8
     788:	50000100 	andpl	r0, r0, r0, lsl #2
     78c:	00000364 	andeq	r0, r0, r4, ror #6
     790:	000003ac 	andeq	r0, r0, ip, lsr #7
     794:	00580001 	subseq	r0, r8, r1
     798:	00000000 	andeq	r0, r0, r0
     79c:	20000000 	andcs	r0, r0, r0
     7a0:	44000003 	strmi	r0, [r0], #-3
     7a4:	01000003 	tsteq	r0, r3
     7a8:	03445100 	movteq	r5, #16640	; 0x4100
     7ac:	03540000 	cmpeq	r4, #0
     7b0:	00010000 	andeq	r0, r1, r0
     7b4:	00035456 	andeq	r5, r3, r6, asr r4
     7b8:	00036400 	andeq	r6, r3, r0, lsl #8
     7bc:	51000100 	mrspl	r0, (UNDEF: 16)
     7c0:	00000364 	andeq	r0, r0, r4, ror #6
     7c4:	000003ac 	andeq	r0, r0, ip, lsr #7
     7c8:	00560001 	subseq	r0, r6, r1
     7cc:	00000000 	andeq	r0, r0, r0
     7d0:	20000000 	andcs	r0, r0, r0
     7d4:	48000003 	stmdami	r0, {r0, r1}
     7d8:	01000003 	tsteq	r0, r3
     7dc:	03485200 	movteq	r5, #33280	; 0x8200
     7e0:	03540000 	cmpeq	r4, #0
     7e4:	00040000 	andeq	r0, r4, r0
     7e8:	9f5201f3 	svcls	0x005201f3
     7ec:	00000354 	andeq	r0, r0, r4, asr r3
     7f0:	00000364 	andeq	r0, r0, r4, ror #6
     7f4:	64520001 	ldrbvs	r0, [r2], #-1
     7f8:	ac000003 	stcge	0, cr0, [r0], {3}
     7fc:	03000003 	movweq	r0, #3
     800:	9f017700 	svcls	0x00017700
	...
     80c:	00000320 	andeq	r0, r0, r0, lsr #6
     810:	0000034c 	andeq	r0, r0, ip, asr #6
     814:	4c530001 	mrrcmi	0, 0, r0, r3, cr1
     818:	54000003 	strpl	r0, [r0], #-3
     81c:	04000003 	streq	r0, [r0], #-3
     820:	5301f300 	movwpl	pc, #4864	; 0x1300	; <UNPREDICTABLE>
     824:	0003549f 	muleq	r3, pc, r4	; <UNPREDICTABLE>
     828:	00036400 	andeq	r6, r3, r0, lsl #8
     82c:	53000100 	movwpl	r0, #256	; 0x100
     830:	00000364 	andeq	r0, r0, r4, ror #6
     834:	000003ac 	andeq	r0, r0, ip, lsr #7
     838:	01f30004 	mvnseq	r0, r4
     83c:	00009f53 	andeq	r9, r0, r3, asr pc
     840:	00000000 	andeq	r0, r0, r0
     844:	035c0000 	cmpeq	ip, #0
     848:	03640000 	cmneq	r4, #0
     84c:	00020000 	andeq	r0, r2, r0
     850:	03649f30 	cmneq	r4, #48, 30	; 0xc0
     854:	03ac0000 			; <UNDEFINED> instruction: 0x03ac0000
     858:	00010000 	andeq	r0, r1, r0
     85c:	00000054 	andeq	r0, r0, r4, asr r0
     860:	00000000 	andeq	r0, r0, r0
     864:	00037400 	andeq	r7, r3, r0, lsl #8
     868:	00038400 	andeq	r8, r3, r0, lsl #8
     86c:	50000100 	andpl	r0, r0, r0, lsl #2
	...
     878:	000003ac 	andeq	r0, r0, ip, lsr #7
     87c:	000003c8 	andeq	r0, r0, r8, asr #7
     880:	c8500001 	ldmdagt	r0, {r0}^
     884:	dc000003 	stcle	0, cr0, [r0], {3}
     888:	01000003 	tsteq	r0, r3
     88c:	03dc5700 	bicseq	r5, ip, #0, 14
     890:	03ec0000 	mvneq	r0, #0
     894:	00010000 	andeq	r0, r1, r0
     898:	0003ec50 	andeq	lr, r3, r0, asr ip
     89c:	00042400 	andeq	r2, r4, r0, lsl #8
     8a0:	57000100 	strpl	r0, [r0, -r0, lsl #2]
	...
     8ac:	000003ac 	andeq	r0, r0, ip, lsr #7
     8b0:	000003cc 	andeq	r0, r0, ip, asr #7
     8b4:	cc510001 	mrrcgt	0, 0, r0, r1, cr1
     8b8:	dc000003 	stcle	0, cr0, [r0], {3}
     8bc:	01000003 	tsteq	r0, r3
     8c0:	03dc5500 	bicseq	r5, ip, #0, 10
     8c4:	03ec0000 	mvneq	r0, #0
     8c8:	00010000 	andeq	r0, r1, r0
     8cc:	0003ec51 	andeq	lr, r3, r1, asr ip
     8d0:	00042400 	andeq	r2, r4, r0, lsl #8
     8d4:	55000100 	strpl	r0, [r0, #-256]	; 0x100
	...
     8e0:	000003ac 	andeq	r0, r0, ip, lsr #7
     8e4:	000003d0 	ldrdeq	r0, [r0], -r0	; <UNPREDICTABLE>
     8e8:	d0520001 	subsle	r0, r2, r1
     8ec:	dc000003 	stcle	0, cr0, [r0], {3}
     8f0:	04000003 	streq	r0, [r0], #-3
     8f4:	5201f300 	andpl	pc, r1, #0, 6
     8f8:	0003dc9f 	muleq	r3, pc, ip	; <UNPREDICTABLE>
     8fc:	0003ec00 	andeq	lr, r3, r0, lsl #24
     900:	52000100 	andpl	r0, r0, #0, 2
     904:	000003ec 	andeq	r0, r0, ip, ror #7
     908:	00000424 	andeq	r0, r0, r4, lsr #8
     90c:	01760003 	cmneq	r6, r3
     910:	0000009f 	muleq	r0, pc, r0	; <UNPREDICTABLE>
     914:	00000000 	andeq	r0, r0, r0
     918:	0003ac00 	andeq	sl, r3, r0, lsl #24
     91c:	0003d400 	andeq	sp, r3, r0, lsl #8
     920:	53000100 	movwpl	r0, #256	; 0x100
     924:	000003d4 	ldrdeq	r0, [r0], -r4
     928:	000003dc 	ldrdeq	r0, [r0], -ip
     92c:	dc580001 	mrrcle	0, 0, r0, r8, cr1
     930:	ec000003 	stc	0, cr0, [r0], {3}
     934:	01000003 	tsteq	r0, r3
     938:	03ec5300 	mvneq	r5, #0, 6
     93c:	04240000 	strteq	r0, [r4], #-0
     940:	00010000 	andeq	r0, r1, r0
     944:	00000058 	andeq	r0, r0, r8, asr r0
     948:	00000000 	andeq	r0, r0, r0
     94c:	0003e400 	andeq	lr, r3, r0, lsl #8
     950:	0003ec00 	andeq	lr, r3, r0, lsl #24
     954:	30000200 	andcc	r0, r0, r0, lsl #4
     958:	0003ec9f 	muleq	r3, pc, ip	; <UNPREDICTABLE>
     95c:	00042400 	andeq	r2, r4, r0, lsl #8
     960:	54000100 	strpl	r0, [r0], #-256	; 0x100
	...
     96c:	00000424 	andeq	r0, r0, r4, lsr #8
     970:	00000443 	andeq	r0, r0, r3, asr #8
     974:	43510001 	cmpmi	r1, #1
     978:	d4000004 	strle	r0, [r0], #-4
     97c:	04000004 	streq	r0, [r0], #-4
     980:	5101f300 	mrspl	pc, SP_irq	; <UNPREDICTABLE>
     984:	0000009f 	muleq	r0, pc, r0	; <UNPREDICTABLE>
     988:	00000000 	andeq	r0, r0, r0
     98c:	00042400 	andeq	r2, r4, r0, lsl #8
     990:	00044300 	andeq	r4, r4, r0, lsl #6
     994:	52000100 	andpl	r0, r0, #0, 2
     998:	00000443 	andeq	r0, r0, r3, asr #8
     99c:	000004d4 	ldrdeq	r0, [r0], -r4
     9a0:	01f30004 	mvnseq	r0, r4
     9a4:	00009f52 	andeq	r9, r0, r2, asr pc
     9a8:	00000000 	andeq	r0, r0, r0
     9ac:	04240000 	strteq	r0, [r4], #-0
     9b0:	04430000 	strbeq	r0, [r3], #-0
     9b4:	00010000 	andeq	r0, r1, r0
     9b8:	00044353 	andeq	r4, r4, r3, asr r3
     9bc:	0004d400 	andeq	sp, r4, r0, lsl #8
     9c0:	55000100 	strpl	r0, [r0, #-256]	; 0x100
	...
     9cc:	00000458 	andeq	r0, r0, r8, asr r4
     9d0:	000004a0 	andeq	r0, r0, r0, lsr #9
     9d4:	a0520001 	subsge	r0, r2, r1
     9d8:	ac000004 	stcge	0, cr0, [r0], {4}
     9dc:	06000004 	streq	r0, [r0], -r4
     9e0:	76007500 	strvc	r7, [r0], -r0, lsl #10
     9e4:	ac9f1e00 	ldcge	14, cr1, [pc], {0}
     9e8:	d4000004 	strle	r0, [r0], #-4
     9ec:	01000004 	tsteq	r0, r4
     9f0:	00005200 	andeq	r5, r0, r0, lsl #4
     9f4:	00000000 	andeq	r0, r0, r0
     9f8:	04d40000 	ldrbeq	r0, [r4], #0
     9fc:	04df0000 	ldrbeq	r0, [pc], #0	; a04 <_start-0x75fc>
     a00:	00010000 	andeq	r0, r1, r0
     a04:	0004df50 	andeq	sp, r4, r0, asr pc
     a08:	00050c00 	andeq	r0, r5, r0, lsl #24
     a0c:	f3000400 	vshl.u8	d0, d0, d0
     a10:	009f5001 	addseq	r5, pc, r1
     a14:	00000000 	andeq	r0, r0, r0
     a18:	e0000000 	and	r0, r0, r0
     a1c:	ec000004 	stc	0, cr0, [r0], {4}
     a20:	01000004 	tsteq	r0, r4
     a24:	00005000 	andeq	r5, r0, r0
     a28:	00000000 	andeq	r0, r0, r0
     a2c:	050c0000 	streq	r0, [ip, #-0]
     a30:	051c0000 	ldreq	r0, [ip, #-0]
     a34:	00010000 	andeq	r0, r1, r0
     a38:	00051c50 	andeq	r1, r5, r0, asr ip
     a3c:	00053800 	andeq	r3, r5, r0, lsl #16
     a40:	55000100 	strpl	r0, [r0, #-256]	; 0x100
	...
     a4c:	0000050c 	andeq	r0, r0, ip, lsl #10
     a50:	0000051c 	andeq	r0, r0, ip, lsl r5
     a54:	1c510001 	mrrcne	0, 0, r0, r1, cr1
     a58:	38000005 	stmdacc	r0, {r0, r2}
     a5c:	01000005 	tsteq	r0, r5
     a60:	00005400 	andeq	r5, r0, r0, lsl #8
     a64:	00000000 	andeq	r0, r0, r0
     a68:	05380000 	ldreq	r0, [r8, #-0]!
     a6c:	05540000 	ldrbeq	r0, [r4, #-0]
     a70:	00010000 	andeq	r0, r1, r0
     a74:	00055450 	andeq	r5, r5, r0, asr r4
     a78:	0005a000 	andeq	sl, r5, r0
     a7c:	55000100 	strpl	r0, [r0, #-256]	; 0x100
     a80:	000005a0 	andeq	r0, r0, r0, lsr #11
     a84:	000005b8 			; <UNDEFINED> instruction: 0x000005b8
     a88:	01f30004 	mvnseq	r0, r4
     a8c:	00009f50 	andeq	r9, r0, r0, asr pc
     a90:	00000000 	andeq	r0, r0, r0
     a94:	05640000 	strbeq	r0, [r4, #-0]!
     a98:	05740000 	ldrbeq	r0, [r4, #-0]!
     a9c:	00010000 	andeq	r0, r1, r0
     aa0:	00057450 	andeq	r7, r5, r0, asr r4
     aa4:	00058800 	andeq	r8, r5, r0, lsl #16
     aa8:	54000100 	strpl	r0, [r0], #-256	; 0x100
     aac:	00000588 	andeq	r0, r0, r8, lsl #11
     ab0:	0000058c 	andeq	r0, r0, ip, lsl #11
     ab4:	8c500001 	mrrchi	0, 0, r0, r0, cr1	; <UNPREDICTABLE>
     ab8:	a0000005 	andge	r0, r0, r5
     abc:	01000005 	tsteq	r0, r5
     ac0:	05a05400 	streq	r5, [r0, #1024]!	; 0x400
     ac4:	05b80000 	ldreq	r0, [r8, #0]!
     ac8:	00010000 	andeq	r0, r1, r0
     acc:	00000050 	andeq	r0, r0, r0, asr r0
     ad0:	00000000 	andeq	r0, r0, r0
     ad4:	0005b800 	andeq	fp, r5, r0, lsl #16
     ad8:	0005cb00 	andeq	ip, r5, r0, lsl #22
     adc:	50000100 	andpl	r0, r0, r0, lsl #2
     ae0:	000005cb 	andeq	r0, r0, fp, asr #11
     ae4:	00000600 	andeq	r0, r0, r0, lsl #12
     ae8:	01f30004 	mvnseq	r0, r4
     aec:	00009f50 	andeq	r9, r0, r0, asr pc
     af0:	00000000 	andeq	r0, r0, r0
     af4:	05b80000 	ldreq	r0, [r8, #0]!
     af8:	05cb0000 	strbeq	r0, [fp]
     afc:	00010000 	andeq	r0, r1, r0
     b00:	0005cb51 	andeq	ip, r5, r1, asr fp
     b04:	00060000 	andeq	r0, r6, r0
     b08:	f3000400 	vshl.u8	d0, d0, d0
     b0c:	009f5101 	addseq	r5, pc, r1, lsl #2
     b10:	00000000 	andeq	r0, r0, r0
     b14:	b8000000 	stmdalt	r0, {}	; <UNPREDICTABLE>
     b18:	cb000005 	blgt	b34 <_start-0x74cc>
     b1c:	01000005 	tsteq	r0, r5
     b20:	05cb5200 	strbeq	r5, [fp, #512]	; 0x200
     b24:	06000000 	streq	r0, [r0], -r0
     b28:	00040000 	andeq	r0, r4, r0
     b2c:	9f5201f3 	svcls	0x005201f3
	...
     b38:	000005b8 			; <UNDEFINED> instruction: 0x000005b8
     b3c:	000005cb 	andeq	r0, r0, fp, asr #11
     b40:	cb530001 	blgt	14c0b4c <__bss_end__+0x14b700c>
     b44:	00000005 	andeq	r0, r0, r5
     b48:	04000006 	streq	r0, [r0], #-6
     b4c:	5301f300 	movwpl	pc, #4864	; 0x1300	; <UNPREDICTABLE>
     b50:	0000009f 	muleq	r0, pc, r0	; <UNPREDICTABLE>
     b54:	00000000 	andeq	r0, r0, r0
     b58:	0005cc00 	andeq	ip, r5, r0, lsl #24
     b5c:	0005d800 	andeq	sp, r5, r0, lsl #16
     b60:	50000100 	andpl	r0, r0, r0, lsl #2
     b64:	000005ec 	andeq	r0, r0, ip, ror #11
     b68:	00000600 	andeq	r0, r0, r0, lsl #12
     b6c:	00500001 	subseq	r0, r0, r1
     b70:	00000000 	andeq	r0, r0, r0
     b74:	2c000000 	stccs	0, cr0, [r0], {-0}
     b78:	38000000 	stmdacc	r0, {}	; <UNPREDICTABLE>
     b7c:	01000000 	mrseq	r0, (UNDEF: 0)
     b80:	00385000 	eorseq	r5, r8, r0
     b84:	00480000 	subeq	r0, r8, r0
     b88:	00010000 	andeq	r0, r1, r0
     b8c:	00004855 	andeq	r4, r0, r5, asr r8
     b90:	00005800 	andeq	r5, r0, r0, lsl #16
     b94:	50000100 	andpl	r0, r0, r0, lsl #2
	...
     ba4:	00000010 	andeq	r0, r0, r0, lsl r0
     ba8:	10500001 	subsne	r0, r0, r1
     bac:	34000000 	strcc	r0, [r0], #-0
     bb0:	01000000 	mrseq	r0, (UNDEF: 0)
     bb4:	00005400 	andeq	r5, r0, r0, lsl #8
	...
     bc0:	001c0000 	andseq	r0, ip, r0
     bc4:	00010000 	andeq	r0, r1, r0
     bc8:	00001c50 	andeq	r1, r0, r0, asr ip
     bcc:	00002000 	andeq	r2, r0, r0
     bd0:	f3000400 	vshl.u8	d0, d0, d0
     bd4:	009f5001 	addseq	r5, pc, r1
	...
     be0:	08000000 	stmdaeq	r0, {}	; <UNPREDICTABLE>
     be4:	02000000 	andeq	r0, r0, #0
     be8:	089f3000 	ldmeq	pc, {ip, sp}	; <UNPREDICTABLE>
     bec:	20000000 	andcs	r0, r0, r0
     bf0:	01000000 	mrseq	r0, (UNDEF: 0)
     bf4:	00005300 	andeq	r5, r0, r0, lsl #6
	...
     c00:	00040000 	andeq	r0, r4, r0
     c04:	00010000 	andeq	r0, r1, r0
     c08:	00000450 	andeq	r0, r0, r0, asr r4
     c0c:	00000c00 	andeq	r0, r0, r0, lsl #24
     c10:	70000300 	andvc	r0, r0, r0, lsl #6
     c14:	000c9f30 	andeq	r9, ip, r0, lsr pc
     c18:	00140000 	andseq	r0, r4, r0
     c1c:	00040000 	andeq	r0, r4, r0
     c20:	9f5001f3 	svcls	0x005001f3
	...
     c2c:	00000014 	andeq	r0, r0, r4, lsl r0
     c30:	00000020 	andeq	r0, r0, r0, lsr #32
     c34:	20500001 	subscs	r0, r0, r1
     c38:	2c000000 	stccs	0, cr0, [r0], {-0}
     c3c:	03000000 	movweq	r0, #0
     c40:	9f017000 	svcls	0x00017000
     c44:	0000002c 	andeq	r0, r0, ip, lsr #32
     c48:	00000040 	andeq	r0, r0, r0, asr #32
     c4c:	00500001 	subseq	r0, r0, r1
     c50:	00000000 	andeq	r0, r0, r0
     c54:	14000000 	strne	r0, [r0], #-0
     c58:	18000000 	stmdane	r0, {}	; <UNPREDICTABLE>
     c5c:	01000000 	mrseq	r0, (UNDEF: 0)
     c60:	00185100 	andseq	r5, r8, r0, lsl #2
     c64:	00400000 	subeq	r0, r0, r0
     c68:	00040000 	andeq	r0, r4, r0
     c6c:	9f5101f3 	svcls	0x005101f3
	...
     c78:	00000040 	andeq	r0, r0, r0, asr #32
     c7c:	00000060 	andeq	r0, r0, r0, rrx
     c80:	60500001 	subsvs	r0, r0, r1
     c84:	6c000000 	stcvs	0, cr0, [r0], {-0}
     c88:	03000000 	movweq	r0, #0
     c8c:	9f017100 	svcls	0x00017100
     c90:	0000006c 	andeq	r0, r0, ip, rrx
     c94:	00000074 	andeq	r0, r0, r4, ror r0
     c98:	74510001 	ldrbvc	r0, [r1], #-1
     c9c:	80000000 	andhi	r0, r0, r0
     ca0:	03000000 	movweq	r0, #0
     ca4:	9f017100 	svcls	0x00017100
	...
     cb0:	00000040 	andeq	r0, r0, r0, asr #32
     cb4:	00000050 	andeq	r0, r0, r0, asr r0
     cb8:	50510001 	subspl	r0, r1, r1
     cbc:	80000000 	andhi	r0, r0, r0
     cc0:	04000000 	streq	r0, [r0], #-0
     cc4:	5101f300 	mrspl	pc, SP_irq	; <UNPREDICTABLE>
     cc8:	0000009f 	muleq	r0, pc, r0	; <UNPREDICTABLE>
     ccc:	00000000 	andeq	r0, r0, r0
     cd0:	00004000 	andeq	r4, r0, r0
     cd4:	00005800 	andeq	r5, r0, r0, lsl #16
     cd8:	52000100 	andpl	r0, r0, #0, 2
     cdc:	00000058 	andeq	r0, r0, r8, asr r0
     ce0:	00000064 	andeq	r0, r0, r4, rrx
     ce4:	64520001 	ldrbvs	r0, [r2], #-1
     ce8:	68000000 	stmdavs	r0, {}	; <UNPREDICTABLE>
     cec:	03000000 	movweq	r0, #0
     cf0:	9f017200 	svcls	0x00017200
     cf4:	00000068 	andeq	r0, r0, r8, rrx
     cf8:	00000080 	andeq	r0, r0, r0, lsl #1
     cfc:	00520001 	subseq	r0, r2, r1
     d00:	00000000 	andeq	r0, r0, r0
     d04:	40000000 	andmi	r0, r0, r0
     d08:	54000000 	strpl	r0, [r0], #-0
     d0c:	01000000 	mrseq	r0, (UNDEF: 0)
     d10:	00545300 	subseq	r5, r4, r0, lsl #6
     d14:	00780000 	rsbseq	r0, r8, r0
     d18:	00010000 	andeq	r0, r1, r0
     d1c:	00000053 	andeq	r0, r0, r3, asr r0
     d20:	00000000 	andeq	r0, r0, r0
     d24:	00004800 	andeq	r4, r0, r0, lsl #16
     d28:	00006000 	andeq	r6, r0, r0
     d2c:	5c000100 	stfpls	f0, [r0], {-0}
     d30:	00000060 	andeq	r0, r0, r0, rrx
     d34:	00000080 	andeq	r0, r0, r0, lsl #1
     d38:	01f3000a 	mvnseq	r0, sl
     d3c:	5301f352 	movwpl	pc, #4946	; 0x1352	; <UNPREDICTABLE>
     d40:	9f01231c 	svcls	0x0001231c
	...
     d4c:	00000080 	andeq	r0, r0, r0, lsl #1
     d50:	000000a4 	andeq	r0, r0, r4, lsr #1
     d54:	a4500001 	ldrbge	r0, [r0], #-1
     d58:	18000000 	stmdane	r0, {}	; <UNPREDICTABLE>
     d5c:	03000001 	movweq	r0, #1
     d60:	9f027000 	svcls	0x00027000
     d64:	00000118 	andeq	r0, r0, r8, lsl r1
     d68:	00000218 	andeq	r0, r0, r8, lsl r2
     d6c:	01f30004 	mvnseq	r0, r4
     d70:	00009f50 	andeq	r9, r0, r0, asr pc
     d74:	00000000 	andeq	r0, r0, r0
     d78:	00800000 	addeq	r0, r0, r0
     d7c:	00f00000 	rscseq	r0, r0, r0
     d80:	00010000 	andeq	r0, r1, r0
     d84:	0000f051 	andeq	pc, r0, r1, asr r0	; <UNPREDICTABLE>
     d88:	00016000 	andeq	r6, r1, r0
     d8c:	55000100 	strpl	r0, [r0, #-256]	; 0x100
     d90:	00000160 	andeq	r0, r0, r0, ror #2
     d94:	00000168 	andeq	r0, r0, r8, ror #2
     d98:	68510001 	ldmdavs	r1, {r0}^
     d9c:	88000001 	stmdahi	r0, {r0}
     da0:	01000001 	tsteq	r0, r1
     da4:	01885500 	orreq	r5, r8, r0, lsl #10
     da8:	019c0000 	orrseq	r0, ip, r0
     dac:	00010000 	andeq	r0, r1, r0
     db0:	00019c51 	andeq	r9, r1, r1, asr ip
     db4:	0001bc00 	andeq	fp, r1, r0, lsl #24
     db8:	55000100 	strpl	r0, [r0, #-256]	; 0x100
     dbc:	000001bc 			; <UNDEFINED> instruction: 0x000001bc
     dc0:	000001c4 	andeq	r0, r0, r4, asr #3
     dc4:	c4510001 	ldrbgt	r0, [r1], #-1
     dc8:	fc000001 	stc2	0, cr0, [r0], {1}
     dcc:	01000001 	tsteq	r0, r1
     dd0:	01fc5500 	mvnseq	r5, r0, lsl #10
     dd4:	02180000 	andseq	r0, r8, #0
     dd8:	00040000 	andeq	r0, r4, r0
     ddc:	9f5101f3 	svcls	0x005101f3
	...
     de8:	00000080 	andeq	r0, r0, r0, lsl #1
     dec:	00000094 	muleq	r0, r4, r0
     df0:	94520001 	ldrbls	r0, [r2], #-1
     df4:	fc000000 	stc2	0, cr0, [r0], {-0}
     df8:	01000001 	tsteq	r0, r1
     dfc:	01fc5400 	mvnseq	r5, r0, lsl #8
     e00:	02180000 	andseq	r0, r8, #0
     e04:	00040000 	andeq	r0, r4, r0
     e08:	9f5201f3 	svcls	0x005201f3
	...
     e14:	00000080 	andeq	r0, r0, r0, lsl #1
     e18:	00000100 	andeq	r0, r0, r0, lsl #2
     e1c:	04530001 	ldrbeq	r0, [r3], #-1
     e20:	08000001 	stmdaeq	r0, {r0}
     e24:	01000001 	tsteq	r0, r1
     e28:	01605300 	cmneq	r0, r0, lsl #6
     e2c:	01680000 	cmneq	r8, r0
     e30:	00010000 	andeq	r0, r1, r0
     e34:	00016853 	andeq	r6, r1, r3, asr r8
     e38:	00018800 	andeq	r8, r1, r0, lsl #16
     e3c:	f3000400 	vshl.u8	d0, d0, d0
     e40:	889f5301 	ldmhi	pc, {r0, r8, r9, ip, lr}	; <UNPREDICTABLE>
     e44:	90000001 	andls	r0, r0, r1
     e48:	01000001 	tsteq	r0, r1
     e4c:	01905300 	orrseq	r5, r0, r0, lsl #6
     e50:	01940000 	orrseq	r0, r4, r0
     e54:	00010000 	andeq	r0, r1, r0
     e58:	0001945c 	andeq	r9, r1, ip, asr r4
     e5c:	00019c00 	andeq	r9, r1, r0, lsl #24
     e60:	53000100 	movwpl	r0, #256	; 0x100
     e64:	0000019c 	muleq	r0, ip, r1
     e68:	000001bc 			; <UNDEFINED> instruction: 0x000001bc
     e6c:	01f30004 	mvnseq	r0, r4
     e70:	01bc9f53 			; <UNDEFINED> instruction: 0x01bc9f53
     e74:	01cc0000 	biceq	r0, ip, r0
     e78:	00010000 	andeq	r0, r1, r0
     e7c:	0001cc53 	andeq	ip, r1, r3, asr ip
     e80:	0001cf00 	andeq	ip, r1, r0, lsl #30
     e84:	5c000100 	stfpls	f0, [r0], {-0}
     e88:	000001cf 	andeq	r0, r0, pc, asr #3
     e8c:	000001d4 	ldrdeq	r0, [r0], -r4
     e90:	01f30004 	mvnseq	r0, r4
     e94:	00009f53 	andeq	r9, r0, r3, asr pc
     e98:	00000000 	andeq	r0, r0, r0
     e9c:	00800000 	addeq	r0, r0, r0
     ea0:	009c0000 	addseq	r0, ip, r0
     ea4:	00020000 	andeq	r0, r2, r0
     ea8:	009c0091 	umullseq	r0, ip, r1, r0
     eac:	01c80000 	biceq	r0, r8, r0
     eb0:	00010000 	andeq	r0, r1, r0
     eb4:	0001d452 	andeq	sp, r1, r2, asr r4
     eb8:	0001df00 	andeq	sp, r1, r0, lsl #30
     ebc:	52000100 	andpl	r0, r0, #0, 2
	...
     ec8:	0000009c 	muleq	r0, ip, r0
     ecc:	00000118 	andeq	r0, r0, r8, lsl r1
     ed0:	185d0001 	ldmdane	sp, {r0}^
     ed4:	1c000001 	stcne	0, cr0, [r0], {1}
     ed8:	01000001 	tsteq	r0, r1
     edc:	011c5300 	tsteq	ip, r0, lsl #6
     ee0:	01200000 	teqeq	r0, r0
     ee4:	00010000 	andeq	r0, r1, r0
     ee8:	00012051 	andeq	r2, r1, r1, asr r0
     eec:	00016000 	andeq	r6, r1, r0
     ef0:	53000100 	movwpl	r0, #256	; 0x100
     ef4:	00000160 	andeq	r0, r0, r0, ror #2
     ef8:	00000168 	andeq	r0, r0, r8, ror #2
     efc:	685d0001 	ldmdavs	sp, {r0}^
     f00:	6c000001 	stcvs	0, cr0, [r0], {1}
     f04:	01000001 	tsteq	r0, r1
     f08:	016c5e00 	cmneq	ip, r0, lsl #28
     f0c:	01880000 	orreq	r0, r8, r0
     f10:	00010000 	andeq	r0, r1, r0
     f14:	00018853 	andeq	r8, r1, r3, asr r8
     f18:	00019000 	andeq	r9, r1, r0
     f1c:	91000400 	tstls	r0, r0, lsl #8
     f20:	909f7fa1 	addsls	r7, pc, r1, lsr #31
     f24:	94000001 	strls	r0, [r0], #-1
     f28:	01000001 	tsteq	r0, r1
     f2c:	01945300 	orrseq	r5, r4, r0, lsl #6
     f30:	019c0000 	orrseq	r0, ip, r0
     f34:	00010000 	andeq	r0, r1, r0
     f38:	00019c5d 	andeq	r9, r1, sp, asr ip
     f3c:	0001a000 	andeq	sl, r1, r0
     f40:	5e000100 	adfpls	f0, f0, f0
     f44:	000001a0 	andeq	r0, r0, r0, lsr #3
     f48:	000001bc 			; <UNDEFINED> instruction: 0x000001bc
     f4c:	bc530001 	mrrclt	0, 0, r0, r3, cr1
     f50:	d4000001 	strle	r0, [r0], #-1
     f54:	01000001 	tsteq	r0, r1
     f58:	01d45d00 	bicseq	r5, r4, r0, lsl #26
     f5c:	01df0000 	bicseq	r0, pc, r0
     f60:	00010000 	andeq	r0, r1, r0
     f64:	00000053 	andeq	r0, r0, r3, asr r0
     f68:	00000000 	andeq	r0, r0, r0
     f6c:	0000a000 	andeq	sl, r0, r0
     f70:	0000ec00 	andeq	lr, r0, r0, lsl #24
     f74:	5c000100 	stfpls	f0, [r0], {-0}
     f78:	000000ec 	andeq	r0, r0, ip, ror #1
     f7c:	00000100 	andeq	r0, r0, r0, lsl #2
     f80:	00530001 	subseq	r0, r3, r1
     f84:	04000001 	streq	r0, [r0], #-1
     f88:	01000001 	tsteq	r0, r1
     f8c:	01045c00 	tsteq	r4, r0, lsl #24
     f90:	01080000 	mrseq	r0, (UNDEF: 8)
     f94:	00010000 	andeq	r0, r1, r0
     f98:	00010853 	andeq	r0, r1, r3, asr r8
     f9c:	00011800 	andeq	r1, r1, r0, lsl #16
     fa0:	5c000100 	stfpls	f0, [r0], {-0}
     fa4:	00000118 	andeq	r0, r0, r8, lsl r1
     fa8:	0000011c 	andeq	r0, r0, ip, lsl r1
     fac:	1c500001 	mrrcne	0, 0, r0, r0, cr1	; <UNPREDICTABLE>
     fb0:	3c000001 	stccc	0, cr0, [r0], {1}
     fb4:	01000001 	tsteq	r0, r1
     fb8:	01445c00 	cmpeq	r4, r0, lsl #24
     fbc:	01580000 	cmpeq	r8, r0
     fc0:	00010000 	andeq	r0, r1, r0
     fc4:	00015850 	andeq	r5, r1, r0, asr r8
     fc8:	00016000 	andeq	r6, r1, r0
     fcc:	5c000100 	stfpls	f0, [r0], {-0}
     fd0:	00000160 	andeq	r0, r0, r0, ror #2
     fd4:	00000168 	andeq	r0, r0, r8, ror #2
     fd8:	68530001 	ldmdavs	r3, {r0}^
     fdc:	78000001 	stmdavc	r0, {r0}
     fe0:	01000001 	tsteq	r0, r1
     fe4:	01785c00 	cmneq	r8, r0, lsl #24
     fe8:	01800000 	orreq	r0, r0, r0
     fec:	00050000 	andeq	r0, r5, r0
     ff0:	2534007c 	ldrcs	r0, [r4, #-124]!	; 0x7c
     ff4:	0001809f 	muleq	r1, pc, r0	; <UNPREDICTABLE>
     ff8:	00018800 	andeq	r8, r1, r0, lsl #16
     ffc:	5c000100 	stfpls	f0, [r0], {-0}
    1000:	00000188 	andeq	r0, r0, r8, lsl #3
    1004:	00000190 	muleq	r0, r0, r1
    1008:	90530001 	subsls	r0, r3, r1
    100c:	94000001 	strls	r0, [r0], #-1
    1010:	01000001 	tsteq	r0, r1
    1014:	01945c00 	orrseq	r5, r4, r0, lsl #24
    1018:	019c0000 	orrseq	r0, ip, r0
    101c:	00010000 	andeq	r0, r1, r0
    1020:	00019c53 	andeq	r9, r1, r3, asr ip
    1024:	0001ac00 	andeq	sl, r1, r0, lsl #24
    1028:	5c000100 	stfpls	f0, [r0], {-0}
    102c:	000001ac 	andeq	r0, r0, ip, lsr #3
    1030:	000001b4 			; <UNDEFINED> instruction: 0x000001b4
    1034:	007c0005 	rsbseq	r0, ip, r5
    1038:	b49f2531 	ldrlt	r2, [pc], #1329	; 1040 <_start-0x6fc0>
    103c:	bc000001 	stclt	0, cr0, [r0], {1}
    1040:	01000001 	tsteq	r0, r1
    1044:	01bc5c00 			; <UNDEFINED> instruction: 0x01bc5c00
    1048:	01cc0000 	biceq	r0, ip, r0
    104c:	00010000 	andeq	r0, r1, r0
    1050:	0001cc53 	andeq	ip, r1, r3, asr ip
    1054:	0001cf00 	andeq	ip, r1, r0, lsl #30
    1058:	5c000100 	stfpls	f0, [r0], {-0}
    105c:	000001cf 	andeq	r0, r0, pc, asr #3
    1060:	000001d4 	ldrdeq	r0, [r0], -r4
    1064:	01f30004 	mvnseq	r0, r4
    1068:	01d49f53 	bicseq	r9, r4, r3, asr pc
    106c:	01df0000 	bicseq	r0, pc, r0
    1070:	00010000 	andeq	r0, r1, r0
    1074:	0000005c 	andeq	r0, r0, ip, asr r0
    1078:	00000000 	andeq	r0, r0, r0
    107c:	0000ec00 	andeq	lr, r0, r0, lsl #24
    1080:	0000fc00 	andeq	pc, r0, r0, lsl #24
    1084:	30000200 	andcc	r0, r0, r0, lsl #4
    1088:	0000fc9f 	muleq	r0, pc, ip	; <UNPREDICTABLE>
    108c:	00010400 	andeq	r0, r1, r0, lsl #8
    1090:	31000200 	mrscc	r0, R8_usr
    1094:	0001049f 	muleq	r1, pc, r4	; <UNPREDICTABLE>
    1098:	00010800 	andeq	r0, r1, r0, lsl #16
    109c:	30000200 	andcc	r0, r0, r0, lsl #4
    10a0:	0000009f 	muleq	r0, pc, r0	; <UNPREDICTABLE>
    10a4:	00000000 	andeq	r0, r0, r0
    10a8:	00021800 	andeq	r1, r2, r0, lsl #16
    10ac:	00022800 	andeq	r2, r2, r0, lsl #16
    10b0:	50000100 	andpl	r0, r0, r0, lsl #2
    10b4:	00000228 	andeq	r0, r0, r8, lsr #4
    10b8:	0000023c 	andeq	r0, r0, ip, lsr r2
    10bc:	01f30004 	mvnseq	r0, r4
    10c0:	023c9f50 	eorseq	r9, ip, #80, 30	; 0x140
    10c4:	02680000 	rsbeq	r0, r8, #0
    10c8:	00010000 	andeq	r0, r1, r0
    10cc:	00000050 	andeq	r0, r0, r0, asr r0
    10d0:	00000000 	andeq	r0, r0, r0
    10d4:	00021800 	andeq	r1, r2, r0, lsl #16
    10d8:	00022c00 	andeq	r2, r2, r0, lsl #24
    10dc:	51000100 	mrspl	r0, (UNDEF: 16)
    10e0:	0000022c 	andeq	r0, r0, ip, lsr #4
    10e4:	0000023c 	andeq	r0, r0, ip, lsr r2
    10e8:	01f30004 	mvnseq	r0, r4
    10ec:	023c9f51 	eorseq	r9, ip, #324	; 0x144
    10f0:	02680000 	rsbeq	r0, r8, #0
    10f4:	00010000 	andeq	r0, r1, r0
    10f8:	00000051 	andeq	r0, r0, r1, asr r0
    10fc:	00000000 	andeq	r0, r0, r0
    1100:	00026800 	andeq	r6, r2, r0, lsl #16
    1104:	00029000 	andeq	r9, r2, r0
    1108:	50000100 	andpl	r0, r0, r0, lsl #2
    110c:	00000290 	muleq	r0, r0, r2
    1110:	000004dc 	ldrdeq	r0, [r0], -ip
    1114:	dc5b0001 	mrrcle	0, 0, r0, fp, cr1
    1118:	f0000004 			; <UNDEFINED> instruction: 0xf0000004
    111c:	04000004 	streq	r0, [r0], #-4
    1120:	5001f300 	andpl	pc, r1, r0, lsl #6
    1124:	0000009f 	muleq	r0, pc, r0	; <UNPREDICTABLE>
    1128:	00000000 	andeq	r0, r0, r0
    112c:	00026800 	andeq	r6, r2, r0, lsl #16
    1130:	00027c00 	andeq	r7, r2, r0, lsl #24
    1134:	51000100 	mrspl	r0, (UNDEF: 16)
    1138:	0000027c 	andeq	r0, r0, ip, ror r2
    113c:	00000290 	muleq	r0, r0, r2
    1140:	01710003 	cmneq	r1, r3
    1144:	0002909f 	muleq	r2, pc, r0	; <UNPREDICTABLE>
    1148:	0004f000 	andeq	pc, r4, r0
    114c:	f3000400 	vshl.u8	d0, d0, d0
    1150:	009f5101 	addseq	r5, pc, r1, lsl #2
    1154:	00000000 	andeq	r0, r0, r0
    1158:	68000000 	stmdavs	r0, {}	; <UNPREDICTABLE>
    115c:	98000002 	stmdals	r0, {r1}
    1160:	01000002 	tsteq	r0, r2
    1164:	02985200 	addseq	r5, r8, #0, 4
    1168:	02c00000 	sbceq	r0, r0, #0
    116c:	00010000 	andeq	r0, r1, r0
    1170:	0002c052 	andeq	ip, r2, r2, asr r0
    1174:	00048c00 	andeq	r8, r4, r0, lsl #24
    1178:	56000100 	strpl	r0, [r0], -r0, lsl #2
    117c:	0000048c 	andeq	r0, r0, ip, lsl #9
    1180:	000004f0 	strdeq	r0, [r0], -r0	; <UNPREDICTABLE>
    1184:	00520001 	subseq	r0, r2, r1
    1188:	00000000 	andeq	r0, r0, r0
    118c:	68000000 	stmdavs	r0, {}	; <UNPREDICTABLE>
    1190:	84000002 	strhi	r0, [r0], #-2
    1194:	01000002 	tsteq	r0, r2
    1198:	00005300 	andeq	r5, r0, r0, lsl #6
    119c:	00000000 	andeq	r0, r0, r0
    11a0:	02780000 	rsbseq	r0, r8, #0
    11a4:	02900000 	addseq	r0, r0, #0
    11a8:	00010000 	andeq	r0, r1, r0
    11ac:	00029050 	andeq	r9, r2, r0, asr r0
    11b0:	00029400 	andeq	r9, r2, r0, lsl #8
    11b4:	54000100 	strpl	r0, [r0], #-256	; 0x100
    11b8:	00000294 	muleq	r0, r4, r2
    11bc:	000002a0 	andeq	r0, r0, r0, lsr #5
    11c0:	01740003 	cmneq	r4, r3
    11c4:	0002a09f 	muleq	r2, pc, r0	; <UNPREDICTABLE>
    11c8:	0002ac00 	andeq	sl, r2, r0, lsl #24
    11cc:	54000100 	strpl	r0, [r0], #-256	; 0x100
    11d0:	000002ac 	andeq	r0, r0, ip, lsr #5
    11d4:	000002b8 			; <UNDEFINED> instruction: 0x000002b8
    11d8:	01740003 	cmneq	r4, r3
    11dc:	0002b89f 	muleq	r2, pc, r8	; <UNPREDICTABLE>
    11e0:	00049000 	andeq	r9, r4, r0
    11e4:	54000100 	strpl	r0, [r0], #-256	; 0x100
    11e8:	00000490 	muleq	r0, r0, r4
    11ec:	0000049c 	muleq	r0, ip, r4
    11f0:	01740003 	cmneq	r4, r3
    11f4:	00049c9f 	muleq	r4, pc, ip	; <UNPREDICTABLE>
    11f8:	0004c800 	andeq	ip, r4, r0, lsl #16
    11fc:	54000100 	strpl	r0, [r0], #-256	; 0x100
    1200:	000004c8 	andeq	r0, r0, r8, asr #9
    1204:	000004d4 	ldrdeq	r0, [r0], -r4
    1208:	d4500001 	ldrble	r0, [r0], #-1
    120c:	dc000004 	stcle	0, cr0, [r0], {4}
    1210:	03000004 	movweq	r0, #4
    1214:	9f017400 	svcls	0x00017400
	...
    1220:	00000280 	andeq	r0, r0, r0, lsl #5
    1224:	000004dc 	ldrdeq	r0, [r0], -ip
    1228:	dc580001 	mrrcle	0, 0, r0, r8, cr1
    122c:	f0000004 			; <UNDEFINED> instruction: 0xf0000004
    1230:	0a000004 	beq	1248 <_start-0x6db8>
    1234:	5101f300 	mrspl	pc, SP_irq	; <UNPREDICTABLE>
    1238:	225001f3 	subscs	r0, r0, #-1073741764	; 0xc000003c
    123c:	009f1c31 	addseq	r1, pc, r1, lsr ip	; <UNPREDICTABLE>
    1240:	00000000 	andeq	r0, r0, r0
    1244:	bc000000 	stclt	0, cr0, [r0], {-0}
    1248:	c0000003 	andgt	r0, r0, r3
    124c:	01000003 	tsteq	r0, r3
    1250:	03e45000 	mvneq	r5, #0
    1254:	03e80000 	mvneq	r0, #0
    1258:	00010000 	andeq	r0, r1, r0
    125c:	00040c50 	andeq	r0, r4, r0, asr ip
    1260:	00041000 	andeq	r1, r4, r0
    1264:	50000100 	andpl	r0, r0, r0, lsl #2
    1268:	00000434 	andeq	r0, r0, r4, lsr r4
    126c:	00000438 	andeq	r0, r0, r8, lsr r4
    1270:	40500001 	subsmi	r0, r0, r1
    1274:	44000004 	strmi	r0, [r0], #-4
    1278:	01000004 	tsteq	r0, r4
    127c:	04685000 	strbteq	r5, [r8], #-0
    1280:	046c0000 	strbteq	r0, [ip], #-0
    1284:	00010000 	andeq	r0, r1, r0
    1288:	00048850 	andeq	r8, r4, r0, asr r8
    128c:	0004b000 	andeq	fp, r4, r0
    1290:	50000100 	andpl	r0, r0, r0, lsl #2
	...
    129c:	000002c0 	andeq	r0, r0, r0, asr #5
    12a0:	000002c8 	andeq	r0, r0, r8, asr #5
    12a4:	9f300002 	svcls	0x00300002
    12a8:	000002c8 	andeq	r0, r0, r8, asr #5
    12ac:	000002cc 	andeq	r0, r0, ip, asr #5
    12b0:	d8570001 	ldmdale	r7, {r0}^
    12b4:	b0000002 	andlt	r0, r0, r2
    12b8:	01000004 	tsteq	r0, r4
    12bc:	00005700 	andeq	r5, r0, r0, lsl #14
    12c0:	00000000 	andeq	r0, r0, r0
    12c4:	00040000 	andeq	r0, r4, r0
    12c8:	00080000 	andeq	r0, r8, r0
    12cc:	00070000 	andeq	r0, r7, r0
    12d0:	000a0073 	andeq	r0, sl, r3, ror r0
    12d4:	089f2110 	ldmeq	pc, {r4, r8, sp}	; <UNPREDICTABLE>
    12d8:	10000000 	andne	r0, r0, r0
    12dc:	01000000 	mrseq	r0, (UNDEF: 0)
    12e0:	00005300 	andeq	r5, r0, r0, lsl #6
    12e4:	00000000 	andeq	r0, r0, r0
    12e8:	00140000 	andseq	r0, r4, r0
    12ec:	00180000 	andseq	r0, r8, r0
    12f0:	00070000 	andeq	r0, r7, r0
    12f4:	ff0b0073 			; <UNDEFINED> instruction: 0xff0b0073
    12f8:	189f1aef 	ldmne	pc, {r0, r1, r2, r3, r5, r6, r7, r9, fp, ip}	; <UNPREDICTABLE>
    12fc:	20000000 	andcs	r0, r0, r0
    1300:	01000000 	mrseq	r0, (UNDEF: 0)
    1304:	00005300 	andeq	r5, r0, r0, lsl #6
    1308:	00000000 	andeq	r0, r0, r0
    130c:	00140000 	andseq	r0, r4, r0
    1310:	001c0000 	andseq	r0, ip, r0
    1314:	00030000 	andeq	r0, r3, r0
    1318:	1c9f0473 	cfldrsne	mvf0, [pc], {115}	; 0x73
    131c:	27000000 	strcs	r0, [r0, -r0]
    1320:	01000000 	mrseq	r0, (UNDEF: 0)
    1324:	00005300 	andeq	r5, r0, r0, lsl #6
    1328:	00000000 	andeq	r0, r0, r0
    132c:	8d400000 	stclhi	0, cr0, [r0, #-0]
    1330:	8d440000 	stclhi	0, cr0, [r4, #-0]
    1334:	00020000 	andeq	r0, r2, r0
    1338:	8d449f30 	stclhi	15, cr9, [r4, #-192]	; 0xffffff40
    133c:	8d480000 	stclhi	0, cr0, [r8, #-0]
    1340:	00010000 	andeq	r0, r1, r0
    1344:	00000050 	andeq	r0, r0, r0, asr r0
    1348:	00000000 	andeq	r0, r0, r0
    134c:	008d5800 	addeq	r5, sp, r0, lsl #16
    1350:	008d5c00 	addeq	r5, sp, r0, lsl #24
    1354:	30000200 	andcc	r0, r0, r0, lsl #4
    1358:	008d5c9f 	umulleq	r5, sp, pc, ip	; <UNPREDICTABLE>
    135c:	008d6000 	addeq	r6, sp, r0
    1360:	53000100 	movwpl	r0, #256	; 0x100
    1364:	00008d64 	andeq	r8, r0, r4, ror #26
    1368:	00008d6c 	andeq	r8, r0, ip, ror #26
    136c:	00530001 	subseq	r0, r3, r1
	...
    1378:	04000000 	streq	r0, [r0], #-0
    137c:	01000000 	mrseq	r0, (UNDEF: 0)
    1380:	00045000 	andeq	r5, r4, r0
    1384:	000c0000 	andeq	r0, ip, r0
    1388:	00010000 	andeq	r0, r1, r0
    138c:	00000c53 	andeq	r0, r0, r3, asr ip
    1390:	00001000 	andeq	r1, r0, r0
    1394:	50000100 	andpl	r0, r0, r0, lsl #2
    1398:	00000010 	andeq	r0, r0, r0, lsl r0
    139c:	0000001c 	andeq	r0, r0, ip, lsl r0
    13a0:	00530001 	subseq	r0, r3, r1
    13a4:	00000000 	andeq	r0, r0, r0
    13a8:	3c000000 	stccc	0, cr0, [r0], {-0}
    13ac:	47000000 	strmi	r0, [r0, -r0]
    13b0:	01000000 	mrseq	r0, (UNDEF: 0)
    13b4:	00475000 	subeq	r5, r7, r0
    13b8:	00600000 	rsbeq	r0, r0, r0
    13bc:	00010000 	andeq	r0, r1, r0
    13c0:	00000055 	andeq	r0, r0, r5, asr r0
    13c4:	00000000 	andeq	r0, r0, r0
    13c8:	00005000 	andeq	r5, r0, r0
    13cc:	00005400 	andeq	r5, r0, r0, lsl #8
    13d0:	50000100 	andpl	r0, r0, r0, lsl #2
	...
    13dc:	00000060 	andeq	r0, r0, r0, rrx
    13e0:	0000006c 	andeq	r0, r0, ip, rrx
    13e4:	6c500001 	mrrcvs	0, 0, r0, r0, cr1	; <UNPREDICTABLE>
    13e8:	74000000 	strvc	r0, [r0], #-0
    13ec:	04000000 	streq	r0, [r0], #-0
    13f0:	5001f300 	andpl	pc, r1, r0, lsl #6
    13f4:	0000009f 	muleq	r0, pc, r0	; <UNPREDICTABLE>
    13f8:	00000000 	andeq	r0, r0, r0
    13fc:	00007400 	andeq	r7, r0, r0, lsl #8
    1400:	00008000 	andeq	r8, r0, r0
    1404:	50000100 	andpl	r0, r0, r0, lsl #2
    1408:	00000080 	andeq	r0, r0, r0, lsl #1
    140c:	00000088 	andeq	r0, r0, r8, lsl #1
    1410:	01f30004 	mvnseq	r0, r4
    1414:	00009f50 	andeq	r9, r0, r0, asr pc
    1418:	00000000 	andeq	r0, r0, r0
    141c:	00fc0000 	rscseq	r0, ip, r0
    1420:	01040000 	mrseq	r0, (UNDEF: 4)
    1424:	00010000 	andeq	r0, r1, r0
    1428:	00010450 	andeq	r0, r1, r0, asr r4
    142c:	00012800 	andeq	r2, r1, r0, lsl #16
    1430:	54000100 	strpl	r0, [r0], #-256	; 0x100
	...
    1440:	00000090 	muleq	r0, r0, r0
    1444:	90500001 	subsls	r0, r0, r1
    1448:	d4000000 	strle	r0, [r0], #-0
    144c:	01000000 	mrseq	r0, (UNDEF: 0)
    1450:	00005400 	andeq	r5, r0, r0, lsl #8
    1454:	00000000 	andeq	r0, r0, r0
    1458:	00480000 	subeq	r0, r8, r0
    145c:	004c0000 	subeq	r0, ip, r0
    1460:	00010000 	andeq	r0, r1, r0
    1464:	00005455 	andeq	r5, r0, r5, asr r4
    1468:	00005800 	andeq	r5, r0, r0, lsl #16
    146c:	55000100 	strpl	r0, [r0, #-256]	; 0x100
    1470:	00000060 	andeq	r0, r0, r0, rrx
    1474:	00000064 	andeq	r0, r0, r4, rrx
    1478:	6c550001 	mrrcvs	0, 0, r0, r5, cr1
    147c:	70000000 	andvc	r0, r0, r0
    1480:	01000000 	mrseq	r0, (UNDEF: 0)
    1484:	00785500 	rsbseq	r5, r8, r0, lsl #10
    1488:	007c0000 	rsbseq	r0, ip, r0
    148c:	00010000 	andeq	r0, r1, r0
    1490:	00008455 	andeq	r8, r0, r5, asr r4
    1494:	00008800 	andeq	r8, r0, r0, lsl #16
    1498:	55000100 	strpl	r0, [r0, #-256]	; 0x100
    149c:	0000008c 	andeq	r0, r0, ip, lsl #1
    14a0:	000000d4 	ldrdeq	r0, [r0], -r4
    14a4:	00550001 	subseq	r0, r5, r1
    14a8:	00000000 	andeq	r0, r0, r0
    14ac:	1c000000 	stcne	0, cr0, [r0], {-0}
    14b0:	44000000 	strmi	r0, [r0], #-0
    14b4:	01000000 	mrseq	r0, (UNDEF: 0)
    14b8:	00445300 	subeq	r5, r4, r0, lsl #6
    14bc:	004c0000 	subeq	r0, ip, r0
    14c0:	001c0000 	andseq	r0, ip, r0
    14c4:	2cf70070 	ldclcs	0, cr0, [r7], #448	; 0x1c0
    14c8:	25f425f7 	ldrbcs	r2, [r4, #1527]!	; 0x5f7
    14cc:	cccccd08 	stclgt	13, cr12, [ip], {8}
    14d0:	000000cc 	andeq	r0, r0, ip, asr #1
    14d4:	20081e00 	andcs	r1, r8, r0, lsl #28
    14d8:	f72525f7 			; <UNDEFINED> instruction: 0xf72525f7
    14dc:	9f25332c 	svcls	0x0025332c
    14e0:	0000004c 	andeq	r0, r0, ip, asr #32
    14e4:	00000050 	andeq	r0, r0, r0, asr r0
    14e8:	50530001 	subspl	r0, r3, r1
    14ec:	58000000 	stmdapl	r0, {}	; <UNPREDICTABLE>
    14f0:	1c000000 	stcne	0, cr0, [r0], {-0}
    14f4:	f7007000 			; <UNDEFINED> instruction: 0xf7007000
    14f8:	f425f72c 	vld1.8	{d15}, [r5 :128], ip
    14fc:	cccd0825 	stclgt	8, cr0, [sp], {37}	; 0x25
    1500:	0000cccc 	andeq	ip, r0, ip, asr #25
    1504:	081e0000 	ldmdaeq	lr, {}	; <UNPREDICTABLE>
    1508:	2525f720 	strcs	pc, [r5, #-1824]!	; 0x720
    150c:	25332cf7 	ldrcs	r2, [r3, #-3319]!	; 0xcf7
    1510:	0000589f 	muleq	r0, pc, r8	; <UNPREDICTABLE>
    1514:	00005c00 	andeq	r5, r0, r0, lsl #24
    1518:	53000100 	movwpl	r0, #256	; 0x100
    151c:	0000005c 	andeq	r0, r0, ip, asr r0
    1520:	00000064 	andeq	r0, r0, r4, rrx
    1524:	0070001c 	rsbseq	r0, r0, ip, lsl r0
    1528:	25f72cf7 	ldrbcs	r2, [r7, #3319]!	; 0xcf7
    152c:	cd0825f4 	cfstr32gt	mvfx2, [r8, #-976]	; 0xfffffc30
    1530:	00cccccc 	sbceq	ip, ip, ip, asr #25
    1534:	1e000000 	cdpne	0, 0, cr0, cr0, cr0, {0}
    1538:	25f72008 	ldrbcs	r2, [r7, #8]!
    153c:	332cf725 	msrcc	CPSR_fs, #9699328	; 0x940000
    1540:	00649f25 	rsbeq	r9, r4, r5, lsr #30
    1544:	00680000 	rsbeq	r0, r8, r0
    1548:	00010000 	andeq	r0, r1, r0
    154c:	00006853 	andeq	r6, r0, r3, asr r8
    1550:	00007000 	andeq	r7, r0, r0
    1554:	70001c00 	andvc	r1, r0, r0, lsl #24
    1558:	f72cf700 			; <UNDEFINED> instruction: 0xf72cf700
    155c:	0825f425 	stmdaeq	r5!, {r0, r2, r5, sl, ip, sp, lr, pc}
    1560:	cccccccd 	stclgt	12, cr12, [ip], {205}	; 0xcd
    1564:	00000000 	andeq	r0, r0, r0
    1568:	f720081e 			; <UNDEFINED> instruction: 0xf720081e
    156c:	2cf72525 	cfldr64cs	mvdx2, [r7], #148	; 0x94
    1570:	709f2533 	addsvc	r2, pc, r3, lsr r5	; <UNPREDICTABLE>
    1574:	74000000 	strvc	r0, [r0], #-0
    1578:	01000000 	mrseq	r0, (UNDEF: 0)
    157c:	00745300 	rsbseq	r5, r4, r0, lsl #6
    1580:	007c0000 	rsbseq	r0, ip, r0
    1584:	001c0000 	andseq	r0, ip, r0
    1588:	2cf70070 	ldclcs	0, cr0, [r7], #448	; 0x1c0
    158c:	25f425f7 	ldrbcs	r2, [r4, #1527]!	; 0x5f7
    1590:	cccccd08 	stclgt	13, cr12, [ip], {8}
    1594:	000000cc 	andeq	r0, r0, ip, asr #1
    1598:	20081e00 	andcs	r1, r8, r0, lsl #28
    159c:	f72525f7 			; <UNDEFINED> instruction: 0xf72525f7
    15a0:	9f25332c 	svcls	0x0025332c
    15a4:	0000007c 	andeq	r0, r0, ip, ror r0
    15a8:	00000080 	andeq	r0, r0, r0, lsl #1
    15ac:	80530001 	subshi	r0, r3, r1
    15b0:	88000000 	stmdahi	r0, {}	; <UNPREDICTABLE>
    15b4:	1c000000 	stcne	0, cr0, [r0], {-0}
    15b8:	f7007000 			; <UNDEFINED> instruction: 0xf7007000
    15bc:	f425f72c 	vld1.8	{d15}, [r5 :128], ip
    15c0:	cccd0825 	stclgt	8, cr0, [sp], {37}	; 0x25
    15c4:	0000cccc 	andeq	ip, r0, ip, asr #25
    15c8:	081e0000 	ldmdaeq	lr, {}	; <UNPREDICTABLE>
    15cc:	2525f720 	strcs	pc, [r5, #-1824]!	; 0x720
    15d0:	25332cf7 	ldrcs	r2, [r3, #-3319]!	; 0xcf7
    15d4:	0000889f 	muleq	r0, pc, r8	; <UNPREDICTABLE>
    15d8:	00008c00 	andeq	r8, r0, r0, lsl #24
    15dc:	53000100 	movwpl	r0, #256	; 0x100
    15e0:	0000008c 	andeq	r0, r0, ip, lsl #1
    15e4:	00000090 	muleq	r0, r0, r0
    15e8:	0070001c 	rsbseq	r0, r0, ip, lsl r0
    15ec:	25f72cf7 	ldrbcs	r2, [r7, #3319]!	; 0xcf7
    15f0:	cd0825f4 	cfstr32gt	mvfx2, [r8, #-976]	; 0xfffffc30
    15f4:	00cccccc 	sbceq	ip, ip, ip, asr #25
    15f8:	1e000000 	cdpne	0, 0, cr0, cr0, cr0, {0}
    15fc:	25f72008 	ldrbcs	r2, [r7, #8]!
    1600:	332cf725 	msrcc	CPSR_fs, #9699328	; 0x940000
    1604:	00909f25 	addseq	r9, r0, r5, lsr #30
    1608:	00980000 	addseq	r0, r8, r0
    160c:	001c0000 	andseq	r0, ip, r0
    1610:	2cf70074 	ldclcs	0, cr0, [r7], #464	; 0x1d0
    1614:	25f425f7 	ldrbcs	r2, [r4, #1527]!	; 0x5f7
    1618:	cccccd08 	stclgt	13, cr12, [ip], {8}
    161c:	000000cc 	andeq	r0, r0, ip, asr #1
    1620:	20081e00 	andcs	r1, r8, r0, lsl #28
    1624:	f72525f7 			; <UNDEFINED> instruction: 0xf72525f7
    1628:	9f25332c 	svcls	0x0025332c
    162c:	00000098 	muleq	r0, r8, r0
    1630:	0000009c 	muleq	r0, ip, r0
    1634:	00740017 	rsbseq	r0, r4, r7, lsl r0
    1638:	25f72cf7 	ldrbcs	r2, [r7, #3319]!	; 0xcf7
    163c:	2cf70071 	ldclcs	0, cr0, [r7], #452	; 0x1c4
    1640:	081e25f7 	ldmdaeq	lr, {r0, r1, r2, r4, r5, r6, r7, r8, sl, sp}
    1644:	2525f720 	strcs	pc, [r5, #-1824]!	; 0x720
    1648:	25332cf7 	ldrcs	r2, [r3, #-3319]!	; 0xcf7
    164c:	00009c9f 	muleq	r0, pc, ip	; <UNPREDICTABLE>
    1650:	0000d400 	andeq	sp, r0, r0, lsl #8
    1654:	74001c00 	strvc	r1, [r0], #-3072	; 0xc00
    1658:	f72cf700 			; <UNDEFINED> instruction: 0xf72cf700
    165c:	0825f425 	stmdaeq	r5!, {r0, r2, r5, sl, ip, sp, lr, pc}
    1660:	cccccccd 	stclgt	12, cr12, [ip], {205}	; 0xcd
    1664:	00000000 	andeq	r0, r0, r0
    1668:	f720081e 			; <UNDEFINED> instruction: 0xf720081e
    166c:	2cf72525 	cfldr64cs	mvdx2, [r7], #148	; 0x94
    1670:	009f2533 	addseq	r2, pc, r3, lsr r5	; <UNPREDICTABLE>
    1674:	00000000 	andeq	r0, r0, r0
    1678:	94000000 	strls	r0, [r0], #-0
    167c:	b8000000 	stmdalt	r0, {}	; <UNPREDICTABLE>
    1680:	01000000 	mrseq	r0, (UNDEF: 0)
    1684:	00b85000 	adcseq	r5, r8, r0
    1688:	00c40000 	sbceq	r0, r4, r0
    168c:	00080000 	andeq	r0, r8, r0
    1690:	24007131 	strcs	r7, [r0], #-305	; 0x131
    1694:	9f210073 	svcls	0x00210073
    1698:	000000c4 	andeq	r0, r0, r4, asr #1
    169c:	000000c7 	andeq	r0, r0, r7, asr #1
    16a0:	00510001 	subseq	r0, r1, r1
    16a4:	00000000 	andeq	r0, r0, r0
    16a8:	d4000000 	strle	r0, [r0], #-0
    16ac:	f8000000 			; <UNDEFINED> instruction: 0xf8000000
    16b0:	01000000 	mrseq	r0, (UNDEF: 0)
    16b4:	00f85000 	rscseq	r5, r8, r0
    16b8:	010c0000 	mrseq	r0, (UNDEF: 12)
    16bc:	00040000 	andeq	r0, r4, r0
    16c0:	9f5001f3 	svcls	0x005001f3
	...
    16cc:	000000e0 	andeq	r0, r0, r0, ror #1
    16d0:	000000e8 	andeq	r0, r0, r8, ror #1
    16d4:	9f300002 	svcls	0x00300002
    16d8:	000000e8 	andeq	r0, r0, r8, ror #1
    16dc:	000000e8 	andeq	r0, r0, r8, ror #1
    16e0:	e8520001 	ldmda	r2, {r0}^
    16e4:	f0000000 			; <UNDEFINED> instruction: 0xf0000000
    16e8:	02000000 	andeq	r0, r0, #0
    16ec:	f09f3000 			; <UNDEFINED> instruction: 0xf09f3000
    16f0:	03000000 	movweq	r0, #0
    16f4:	01000001 	tsteq	r0, r1
    16f8:	00005200 	andeq	r5, r0, r0, lsl #4
    16fc:	00000000 	andeq	r0, r0, r0
    1700:	00e00000 	rsceq	r0, r0, r0
    1704:	00f40000 	rscseq	r0, r4, r0
    1708:	00020000 	andeq	r0, r2, r0
    170c:	00f49f30 	rscseq	r9, r4, r0, lsr pc
    1710:	01000000 	mrseq	r0, (UNDEF: 0)
    1714:	00050000 	andeq	r0, r5, r0
    1718:	24007331 	strcs	r7, [r0], #-817	; 0x331
    171c:	0001009f 	muleq	r1, pc, r0	; <UNPREDICTABLE>
    1720:	00010300 	andeq	r0, r1, r0, lsl #6
    1724:	51000100 	mrspl	r0, (UNDEF: 16)
    1728:	00000103 	andeq	r0, r0, r3, lsl #2
    172c:	0000010c 	andeq	r0, r0, ip, lsl #2
    1730:	f3310008 	vhadd.u<illegal width 64>	d0, d1, d8
    1734:	1a4f5001 	bne	13d5740 <__bss_end__+0x13cbc00>
    1738:	00009f24 	andeq	r9, r0, r4, lsr #30
    173c:	00000000 	andeq	r0, r0, r0
    1740:	010c0000 	mrseq	r0, (UNDEF: 12)
    1744:	01300000 	teqeq	r0, r0
    1748:	00010000 	andeq	r0, r1, r0
    174c:	00013050 	andeq	r3, r1, r0, asr r0
    1750:	00014400 	andeq	r4, r1, r0, lsl #8
    1754:	f3000400 	vshl.u8	d0, d0, d0
    1758:	009f5001 	addseq	r5, pc, r1
    175c:	00000000 	andeq	r0, r0, r0
    1760:	18000000 	stmdane	r0, {}	; <UNPREDICTABLE>
    1764:	20000001 	andcs	r0, r0, r1
    1768:	02000001 	andeq	r0, r0, #1
    176c:	209f3000 	addscs	r3, pc, r0
    1770:	20000001 	andcs	r0, r0, r1
    1774:	01000001 	tsteq	r0, r1
    1778:	01205200 	teqeq	r0, r0, lsl #4
    177c:	01280000 	teqeq	r8, r0
    1780:	00020000 	andeq	r0, r2, r0
    1784:	01289f30 	teqeq	r8, r0, lsr pc
    1788:	013b0000 	teqeq	fp, r0
    178c:	00010000 	andeq	r0, r1, r0
    1790:	00000052 	andeq	r0, r0, r2, asr r0
    1794:	00000000 	andeq	r0, r0, r0
    1798:	00011800 	andeq	r1, r1, r0, lsl #16
    179c:	00012c00 	andeq	r2, r1, r0, lsl #24
    17a0:	30000200 	andcc	r0, r0, r0, lsl #4
    17a4:	00012c9f 	muleq	r1, pc, ip	; <UNPREDICTABLE>
    17a8:	00013800 	andeq	r3, r1, r0, lsl #16
    17ac:	31000500 	tstcc	r0, r0, lsl #10
    17b0:	9f240073 	svcls	0x00240073
    17b4:	00000138 	andeq	r0, r0, r8, lsr r1
    17b8:	0000013b 	andeq	r0, r0, fp, lsr r1
    17bc:	3b510001 	blcc	14417c8 <__bss_end__+0x1437c88>
    17c0:	44000001 	strmi	r0, [r0], #-1
    17c4:	08000001 	stmdaeq	r0, {r0}
    17c8:	01f33100 	mvnseq	r3, r0, lsl #2
    17cc:	241a4f50 	ldrcs	r4, [sl], #-3920	; 0xf50
    17d0:	0000009f 	muleq	r0, pc, r0	; <UNPREDICTABLE>
    17d4:	00000000 	andeq	r0, r0, r0
    17d8:	00014400 	andeq	r4, r1, r0, lsl #8
    17dc:	0001d400 	andeq	sp, r1, r0, lsl #8
    17e0:	50000100 	andpl	r0, r0, r0, lsl #2
    17e4:	000001d4 	ldrdeq	r0, [r0], -r4
    17e8:	00000210 	andeq	r0, r0, r0, lsl r2
    17ec:	00540001 	subseq	r0, r4, r1
    17f0:	00000000 	andeq	r0, r0, r0
    17f4:	8c000000 	stchi	0, cr0, [r0], {-0}
    17f8:	90000001 	andls	r0, r0, r1
    17fc:	01000001 	tsteq	r0, r1
    1800:	01985500 	orrseq	r5, r8, r0, lsl #10
    1804:	019c0000 	orrseq	r0, ip, r0
    1808:	00010000 	andeq	r0, r1, r0
    180c:	0001a455 	andeq	sl, r1, r5, asr r4
    1810:	0001a800 	andeq	sl, r1, r0, lsl #16
    1814:	55000100 	strpl	r0, [r0, #-256]	; 0x100
    1818:	000001b0 			; <UNDEFINED> instruction: 0x000001b0
    181c:	000001b4 			; <UNDEFINED> instruction: 0x000001b4
    1820:	bc550001 	mrrclt	0, 0, r0, r5, cr1
    1824:	c0000001 	andgt	r0, r0, r1
    1828:	01000001 	tsteq	r0, r1
    182c:	01c85500 	biceq	r5, r8, r0, lsl #10
    1830:	01cc0000 	biceq	r0, ip, r0
    1834:	00010000 	andeq	r0, r1, r0
    1838:	0001d055 	andeq	sp, r1, r5, asr r0
    183c:	00021000 	andeq	r1, r2, r0
    1840:	55000100 	strpl	r0, [r0, #-256]	; 0x100
	...
    184c:	00000160 	andeq	r0, r0, r0, ror #2
    1850:	00000188 	andeq	r0, r0, r8, lsl #3
    1854:	88530001 	ldmdahi	r3, {r0}^
    1858:	90000001 	andls	r0, r0, r1
    185c:	1c000001 	stcne	0, cr0, [r0], {1}
    1860:	f7007000 			; <UNDEFINED> instruction: 0xf7007000
    1864:	f425f72c 	vld1.8	{d15}, [r5 :128], ip
    1868:	cccd0825 	stclgt	8, cr0, [sp], {37}	; 0x25
    186c:	0000cccc 	andeq	ip, r0, ip, asr #25
    1870:	081e0000 	ldmdaeq	lr, {}	; <UNPREDICTABLE>
    1874:	2525f720 	strcs	pc, [r5, #-1824]!	; 0x720
    1878:	25332cf7 	ldrcs	r2, [r3, #-3319]!	; 0xcf7
    187c:	0001909f 	muleq	r1, pc, r0	; <UNPREDICTABLE>
    1880:	00019400 	andeq	r9, r1, r0, lsl #8
    1884:	53000100 	movwpl	r0, #256	; 0x100
    1888:	00000194 	muleq	r0, r4, r1
    188c:	0000019c 	muleq	r0, ip, r1
    1890:	0070001c 	rsbseq	r0, r0, ip, lsl r0
    1894:	25f72cf7 	ldrbcs	r2, [r7, #3319]!	; 0xcf7
    1898:	cd0825f4 	cfstr32gt	mvfx2, [r8, #-976]	; 0xfffffc30
    189c:	00cccccc 	sbceq	ip, ip, ip, asr #25
    18a0:	1e000000 	cdpne	0, 0, cr0, cr0, cr0, {0}
    18a4:	25f72008 	ldrbcs	r2, [r7, #8]!
    18a8:	332cf725 	msrcc	CPSR_fs, #9699328	; 0x940000
    18ac:	019c9f25 	orrseq	r9, ip, r5, lsr #30
    18b0:	01a00000 	moveq	r0, r0
    18b4:	00010000 	andeq	r0, r1, r0
    18b8:	0001a053 	andeq	sl, r1, r3, asr r0
    18bc:	0001a800 	andeq	sl, r1, r0, lsl #16
    18c0:	70001c00 	andvc	r1, r0, r0, lsl #24
    18c4:	f72cf700 			; <UNDEFINED> instruction: 0xf72cf700
    18c8:	0825f425 	stmdaeq	r5!, {r0, r2, r5, sl, ip, sp, lr, pc}
    18cc:	cccccccd 	stclgt	12, cr12, [ip], {205}	; 0xcd
    18d0:	00000000 	andeq	r0, r0, r0
    18d4:	f720081e 			; <UNDEFINED> instruction: 0xf720081e
    18d8:	2cf72525 	cfldr64cs	mvdx2, [r7], #148	; 0x94
    18dc:	a89f2533 	ldmge	pc, {r0, r1, r4, r5, r8, sl, sp}	; <UNPREDICTABLE>
    18e0:	ac000001 	stcge	0, cr0, [r0], {1}
    18e4:	01000001 	tsteq	r0, r1
    18e8:	01ac5300 			; <UNDEFINED> instruction: 0x01ac5300
    18ec:	01b40000 			; <UNDEFINED> instruction: 0x01b40000
    18f0:	001c0000 	andseq	r0, ip, r0
    18f4:	2cf70070 	ldclcs	0, cr0, [r7], #448	; 0x1c0
    18f8:	25f425f7 	ldrbcs	r2, [r4, #1527]!	; 0x5f7
    18fc:	cccccd08 	stclgt	13, cr12, [ip], {8}
    1900:	000000cc 	andeq	r0, r0, ip, asr #1
    1904:	20081e00 	andcs	r1, r8, r0, lsl #28
    1908:	f72525f7 			; <UNDEFINED> instruction: 0xf72525f7
    190c:	9f25332c 	svcls	0x0025332c
    1910:	000001b4 			; <UNDEFINED> instruction: 0x000001b4
    1914:	000001b8 			; <UNDEFINED> instruction: 0x000001b8
    1918:	b8530001 	ldmdalt	r3, {r0}^
    191c:	c0000001 	andgt	r0, r0, r1
    1920:	1c000001 	stcne	0, cr0, [r0], {1}
    1924:	f7007000 			; <UNDEFINED> instruction: 0xf7007000
    1928:	f425f72c 	vld1.8	{d15}, [r5 :128], ip
    192c:	cccd0825 	stclgt	8, cr0, [sp], {37}	; 0x25
    1930:	0000cccc 	andeq	ip, r0, ip, asr #25
    1934:	081e0000 	ldmdaeq	lr, {}	; <UNPREDICTABLE>
    1938:	2525f720 	strcs	pc, [r5, #-1824]!	; 0x720
    193c:	25332cf7 	ldrcs	r2, [r3, #-3319]!	; 0xcf7
    1940:	0001c09f 	muleq	r1, pc, r0	; <UNPREDICTABLE>
    1944:	0001c400 	andeq	ip, r1, r0, lsl #8
    1948:	53000100 	movwpl	r0, #256	; 0x100
    194c:	000001c4 	andeq	r0, r0, r4, asr #3
    1950:	000001cc 	andeq	r0, r0, ip, asr #3
    1954:	0070001c 	rsbseq	r0, r0, ip, lsl r0
    1958:	25f72cf7 	ldrbcs	r2, [r7, #3319]!	; 0xcf7
    195c:	cd0825f4 	cfstr32gt	mvfx2, [r8, #-976]	; 0xfffffc30
    1960:	00cccccc 	sbceq	ip, ip, ip, asr #25
    1964:	1e000000 	cdpne	0, 0, cr0, cr0, cr0, {0}
    1968:	25f72008 	ldrbcs	r2, [r7, #8]!
    196c:	332cf725 	msrcc	CPSR_fs, #9699328	; 0x940000
    1970:	01cc9f25 	biceq	r9, ip, r5, lsr #30
    1974:	01d00000 	bicseq	r0, r0, r0
    1978:	00010000 	andeq	r0, r1, r0
    197c:	0001d053 	andeq	sp, r1, r3, asr r0
    1980:	0001d400 	andeq	sp, r1, r0, lsl #8
    1984:	70001c00 	andvc	r1, r0, r0, lsl #24
    1988:	f72cf700 			; <UNDEFINED> instruction: 0xf72cf700
    198c:	0825f425 	stmdaeq	r5!, {r0, r2, r5, sl, ip, sp, lr, pc}
    1990:	cccccccd 	stclgt	12, cr12, [ip], {205}	; 0xcd
    1994:	00000000 	andeq	r0, r0, r0
    1998:	f720081e 			; <UNDEFINED> instruction: 0xf720081e
    199c:	2cf72525 	cfldr64cs	mvdx2, [r7], #148	; 0x94
    19a0:	d49f2533 	ldrle	r2, [pc], #1331	; 19a8 <_start-0x6658>
    19a4:	dc000001 	stcle	0, cr0, [r0], {1}
    19a8:	1c000001 	stcne	0, cr0, [r0], {1}
    19ac:	f7007400 			; <UNDEFINED> instruction: 0xf7007400
    19b0:	f425f72c 	vld1.8	{d15}, [r5 :128], ip
    19b4:	cccd0825 	stclgt	8, cr0, [sp], {37}	; 0x25
    19b8:	0000cccc 	andeq	ip, r0, ip, asr #25
    19bc:	081e0000 	ldmdaeq	lr, {}	; <UNPREDICTABLE>
    19c0:	2525f720 	strcs	pc, [r5, #-1824]!	; 0x720
    19c4:	25332cf7 	ldrcs	r2, [r3, #-3319]!	; 0xcf7
    19c8:	0001dc9f 	muleq	r1, pc, ip	; <UNPREDICTABLE>
    19cc:	0001e000 	andeq	lr, r1, r0
    19d0:	74001700 	strvc	r1, [r0], #-1792	; 0x700
    19d4:	f72cf700 			; <UNDEFINED> instruction: 0xf72cf700
    19d8:	f7007125 			; <UNDEFINED> instruction: 0xf7007125
    19dc:	1e25f72c 	cdpne	7, 2, cr15, cr5, cr12, {1}
    19e0:	25f72008 	ldrbcs	r2, [r7, #8]!
    19e4:	332cf725 	msrcc	CPSR_fs, #9699328	; 0x940000
    19e8:	01e09f25 	mvneq	r9, r5, lsr #30
    19ec:	02100000 	andseq	r0, r0, #0
    19f0:	001c0000 	andseq	r0, ip, r0
    19f4:	2cf70074 	ldclcs	0, cr0, [r7], #464	; 0x1d0
    19f8:	25f425f7 	ldrbcs	r2, [r4, #1527]!	; 0x5f7
    19fc:	cccccd08 	stclgt	13, cr12, [ip], {8}
    1a00:	000000cc 	andeq	r0, r0, ip, asr #1
    1a04:	20081e00 	andcs	r1, r8, r0, lsl #28
    1a08:	f72525f7 			; <UNDEFINED> instruction: 0xf72525f7
    1a0c:	9f25332c 	svcls	0x0025332c
	...
    1a18:	000001d8 	ldrdeq	r0, [r0], -r8
    1a1c:	000001fc 	strdeq	r0, [r0], -ip
    1a20:	fc500001 	mrrc2	0, 0, r0, r0, cr1	; <UNPREDICTABLE>
    1a24:	03000001 	movweq	r0, #1
    1a28:	01000002 	tsteq	r0, r2
    1a2c:	00005100 	andeq	r5, r0, r0, lsl #2
    1a30:	00000000 	andeq	r0, r0, r0
    1a34:	02100000 	andseq	r0, r0, #0
    1a38:	022c0000 	eoreq	r0, ip, #0
    1a3c:	00010000 	andeq	r0, r1, r0
    1a40:	00022c50 	andeq	r2, r2, r0, asr ip
    1a44:	00023400 	andeq	r3, r2, r0, lsl #8
    1a48:	54000100 	strpl	r0, [r0], #-256	; 0x100
    1a4c:	00000234 	andeq	r0, r0, r4, lsr r2
    1a50:	0000023c 	andeq	r0, r0, ip, lsr r2
    1a54:	3c500001 	mrrccc	0, 0, r0, r0, cr1	; <UNPREDICTABLE>
    1a58:	44000002 	strmi	r0, [r0], #-2
    1a5c:	01000002 	tsteq	r0, r2
    1a60:	02445400 	subeq	r5, r4, #0, 8
    1a64:	02500000 	subseq	r0, r0, #0
    1a68:	00040000 	andeq	r0, r4, r0
    1a6c:	9f5001f3 	svcls	0x005001f3
    1a70:	00000250 	andeq	r0, r0, r0, asr r2
    1a74:	00000254 	andeq	r0, r0, r4, asr r2
    1a78:	54500001 	ldrbpl	r0, [r0], #-1
    1a7c:	5c000002 	stcpl	0, cr0, [r0], {2}
    1a80:	01000002 	tsteq	r0, r2
    1a84:	00005400 	andeq	r5, r0, r0, lsl #8
    1a88:	00000000 	andeq	r0, r0, r0
    1a8c:	02200000 	eoreq	r0, r0, #0
    1a90:	02300000 	eorseq	r0, r0, #0
    1a94:	00020000 	andeq	r0, r2, r0
    1a98:	02309f30 	eorseq	r9, r0, #48, 30	; 0xc0
    1a9c:	02340000 	eorseq	r0, r4, #0
    1aa0:	00010000 	andeq	r0, r1, r0
    1aa4:	00023450 	andeq	r3, r2, r0, asr r4
    1aa8:	00024000 	andeq	r4, r2, r0
    1aac:	30000200 	andcc	r0, r0, r0, lsl #4
    1ab0:	0002409f 	muleq	r2, pc, r0	; <UNPREDICTABLE>
    1ab4:	00024c00 	andeq	r4, r2, r0, lsl #24
    1ab8:	50000100 	andpl	r0, r0, r0, lsl #2
	...
    1ac4:	0000025c 	andeq	r0, r0, ip, asr r2
    1ac8:	00000290 	muleq	r0, r0, r2
    1acc:	90500001 	subsls	r0, r0, r1
    1ad0:	a0000002 	andge	r0, r0, r2
    1ad4:	04000002 	streq	r0, [r0], #-2
    1ad8:	5001f300 	andpl	pc, r1, r0, lsl #6
    1adc:	0002a09f 	muleq	r2, pc, r0	; <UNPREDICTABLE>
    1ae0:	0002c000 	andeq	ip, r2, r0
    1ae4:	50000100 	andpl	r0, r0, r0, lsl #2
    1ae8:	000002c0 	andeq	r0, r0, r0, asr #5
    1aec:	000002d4 	ldrdeq	r0, [r0], -r4
    1af0:	01f30004 	mvnseq	r0, r4
    1af4:	00009f50 	andeq	r9, r0, r0, asr pc
    1af8:	00000000 	andeq	r0, r0, r0
    1afc:	025c0000 	subseq	r0, ip, #0
    1b00:	02940000 	addseq	r0, r4, #0
    1b04:	00010000 	andeq	r0, r1, r0
    1b08:	00029451 	andeq	r9, r2, r1, asr r4
    1b0c:	0002a000 	andeq	sl, r2, r0
    1b10:	f3000400 	vshl.u8	d0, d0, d0
    1b14:	a09f5101 	addsge	r5, pc, r1, lsl #2
    1b18:	c4000002 	strgt	r0, [r0], #-2
    1b1c:	01000002 	tsteq	r0, r2
    1b20:	02c45100 	sbceq	r5, r4, #0, 2
    1b24:	02d40000 	sbcseq	r0, r4, #0
    1b28:	00040000 	andeq	r0, r4, r0
    1b2c:	9f5101f3 	svcls	0x005101f3
	...
    1b38:	00000270 	andeq	r0, r0, r0, ror r2
    1b3c:	00000290 	muleq	r0, r0, r2
    1b40:	90500001 	subsls	r0, r0, r1
    1b44:	a0000002 	andge	r0, r0, r2
    1b48:	04000002 	streq	r0, [r0], #-2
    1b4c:	5001f300 	andpl	pc, r1, r0, lsl #6
    1b50:	0000009f 	muleq	r0, pc, r0	; <UNPREDICTABLE>
    1b54:	00000000 	andeq	r0, r0, r0
    1b58:	00027800 	andeq	r7, r2, r0, lsl #16
    1b5c:	00028000 	andeq	r8, r2, r0
    1b60:	30000200 	andcc	r0, r0, r0, lsl #4
    1b64:	0002809f 	muleq	r2, pc, r0	; <UNPREDICTABLE>
    1b68:	00028000 	andeq	r8, r2, r0
    1b6c:	52000100 	andpl	r0, r0, #0, 2
    1b70:	00000280 	andeq	r0, r0, r0, lsl #5
    1b74:	00000288 	andeq	r0, r0, r8, lsl #5
    1b78:	9f300002 	svcls	0x00300002
    1b7c:	00000288 	andeq	r0, r0, r8, lsl #5
    1b80:	0000029b 	muleq	r0, fp, r2
    1b84:	00520001 	subseq	r0, r2, r1
    1b88:	00000000 	andeq	r0, r0, r0
    1b8c:	78000000 	stmdavc	r0, {}	; <UNPREDICTABLE>
    1b90:	8c000002 	stchi	0, cr0, [r0], {2}
    1b94:	02000002 	andeq	r0, r0, #2
    1b98:	8c9f3000 	ldchi	0, cr3, [pc], {0}
    1b9c:	98000002 	stmdals	r0, {r1}
    1ba0:	05000002 	streq	r0, [r0, #-2]
    1ba4:	00733100 	rsbseq	r3, r3, r0, lsl #2
    1ba8:	02989f24 	addseq	r9, r8, #36, 30	; 0x90
    1bac:	029b0000 	addseq	r0, fp, #0
    1bb0:	00010000 	andeq	r0, r1, r0
    1bb4:	00029b51 	andeq	r9, r2, r1, asr fp
    1bb8:	0002a000 	andeq	sl, r2, r0
    1bbc:	31000800 	tstcc	r0, r0, lsl #16
    1bc0:	4f5001f3 	svcmi	0x005001f3
    1bc4:	009f241a 	addseq	r2, pc, sl, lsl r4	; <UNPREDICTABLE>
    1bc8:	00000000 	andeq	r0, r0, r0
    1bcc:	a0000000 	andge	r0, r0, r0
    1bd0:	c0000002 	andgt	r0, r0, r2
    1bd4:	01000002 	tsteq	r0, r2
    1bd8:	02c05000 	sbceq	r5, r0, #0
    1bdc:	02d40000 	sbcseq	r0, r4, #0
    1be0:	00040000 	andeq	r0, r4, r0
    1be4:	9f5001f3 	svcls	0x005001f3
	...
    1bf0:	000002a8 	andeq	r0, r0, r8, lsr #5
    1bf4:	000002b0 			; <UNDEFINED> instruction: 0x000002b0
    1bf8:	9f300002 	svcls	0x00300002
    1bfc:	000002b0 			; <UNDEFINED> instruction: 0x000002b0
    1c00:	000002b0 			; <UNDEFINED> instruction: 0x000002b0
    1c04:	b0520001 	subslt	r0, r2, r1
    1c08:	b8000002 	stmdalt	r0, {r1}
    1c0c:	02000002 	andeq	r0, r0, #2
    1c10:	b89f3000 	ldmlt	pc, {ip, sp}	; <UNPREDICTABLE>
    1c14:	cb000002 	blgt	1c24 <_start-0x63dc>
    1c18:	01000002 	tsteq	r0, r2
    1c1c:	00005200 	andeq	r5, r0, r0, lsl #4
    1c20:	00000000 	andeq	r0, r0, r0
    1c24:	02a80000 	adceq	r0, r8, #0
    1c28:	02bc0000 	adcseq	r0, ip, #0
    1c2c:	00020000 	andeq	r0, r2, r0
    1c30:	02bc9f30 	adcseq	r9, ip, #48, 30	; 0xc0
    1c34:	02c80000 	sbceq	r0, r8, #0
    1c38:	00050000 	andeq	r0, r5, r0
    1c3c:	24007331 	strcs	r7, [r0], #-817	; 0x331
    1c40:	0002c89f 	muleq	r2, pc, r8	; <UNPREDICTABLE>
    1c44:	0002cb00 	andeq	ip, r2, r0, lsl #22
    1c48:	51000100 	mrspl	r0, (UNDEF: 16)
    1c4c:	000002cb 	andeq	r0, r0, fp, asr #5
    1c50:	000002d4 	ldrdeq	r0, [r0], -r4
    1c54:	f3310008 	vhadd.u<illegal width 64>	d0, d1, d8
    1c58:	1a4f5001 	bne	13d5c64 <__bss_end__+0x13cc124>
    1c5c:	00009f24 	andeq	r9, r0, r4, lsr #30
    1c60:	00000000 	andeq	r0, r0, r0
    1c64:	02d40000 	sbcseq	r0, r4, #0
    1c68:	036c0000 	cmneq	ip, #0
    1c6c:	00010000 	andeq	r0, r1, r0
    1c70:	00036c50 	andeq	r6, r3, r0, asr ip
    1c74:	0003ac00 	andeq	sl, r3, r0, lsl #24
    1c78:	54000100 	strpl	r0, [r0], #-256	; 0x100
	...
    1c84:	000002d4 	ldrdeq	r0, [r0], -r4
    1c88:	0000036f 	andeq	r0, r0, pc, ror #6
    1c8c:	6f510001 	svcvs	0x00510001
    1c90:	ac000003 	stcge	0, cr0, [r0], {3}
    1c94:	04000003 	streq	r0, [r0], #-3
    1c98:	5101f300 	mrspl	pc, SP_irq	; <UNPREDICTABLE>
    1c9c:	0000009f 	muleq	r0, pc, r0	; <UNPREDICTABLE>
    1ca0:	00000000 	andeq	r0, r0, r0
    1ca4:	00032400 	andeq	r2, r3, r0, lsl #8
    1ca8:	00032800 	andeq	r2, r3, r0, lsl #16
    1cac:	56000100 	strpl	r0, [r0], -r0, lsl #2
    1cb0:	00000330 	andeq	r0, r0, r0, lsr r3
    1cb4:	00000334 	andeq	r0, r0, r4, lsr r3
    1cb8:	3c560001 	mrrccc	0, 0, r0, r6, cr1
    1cbc:	40000003 	andmi	r0, r0, r3
    1cc0:	01000003 	tsteq	r0, r3
    1cc4:	03485600 	movteq	r5, #34304	; 0x8600
    1cc8:	034c0000 	movteq	r0, #49152	; 0xc000
    1ccc:	00010000 	andeq	r0, r1, r0
    1cd0:	00035456 	andeq	r5, r3, r6, asr r4
    1cd4:	00035800 	andeq	r5, r3, r0, lsl #16
    1cd8:	56000100 	strpl	r0, [r0], -r0, lsl #2
    1cdc:	00000360 	andeq	r0, r0, r0, ror #6
    1ce0:	00000364 	andeq	r0, r0, r4, ror #6
    1ce4:	68560001 	ldmdavs	r6, {r0}^
    1ce8:	ac000003 	stcge	0, cr0, [r0], {3}
    1cec:	01000003 	tsteq	r0, r3
    1cf0:	00005600 	andeq	r5, r0, r0, lsl #12
    1cf4:	00000000 	andeq	r0, r0, r0
    1cf8:	02f80000 	rscseq	r0, r8, #0
    1cfc:	03200000 	teqeq	r0, #0
    1d00:	00010000 	andeq	r0, r1, r0
    1d04:	00032053 	andeq	r2, r3, r3, asr r0
    1d08:	00032800 	andeq	r2, r3, r0, lsl #16
    1d0c:	70001c00 	andvc	r1, r0, r0, lsl #24
    1d10:	f72cf700 			; <UNDEFINED> instruction: 0xf72cf700
    1d14:	0825f425 	stmdaeq	r5!, {r0, r2, r5, sl, ip, sp, lr, pc}
    1d18:	cccccccd 	stclgt	12, cr12, [ip], {205}	; 0xcd
    1d1c:	00000000 	andeq	r0, r0, r0
    1d20:	f720081e 			; <UNDEFINED> instruction: 0xf720081e
    1d24:	2cf72525 	cfldr64cs	mvdx2, [r7], #148	; 0x94
    1d28:	289f2533 	ldmcs	pc, {r0, r1, r4, r5, r8, sl, sp}	; <UNPREDICTABLE>
    1d2c:	2c000003 	stccs	0, cr0, [r0], {3}
    1d30:	01000003 	tsteq	r0, r3
    1d34:	032c5300 	teqeq	ip, #0, 6
    1d38:	03340000 	teqeq	r4, #0
    1d3c:	001c0000 	andseq	r0, ip, r0
    1d40:	2cf70070 	ldclcs	0, cr0, [r7], #448	; 0x1c0
    1d44:	25f425f7 	ldrbcs	r2, [r4, #1527]!	; 0x5f7
    1d48:	cccccd08 	stclgt	13, cr12, [ip], {8}
    1d4c:	000000cc 	andeq	r0, r0, ip, asr #1
    1d50:	20081e00 	andcs	r1, r8, r0, lsl #28
    1d54:	f72525f7 			; <UNDEFINED> instruction: 0xf72525f7
    1d58:	9f25332c 	svcls	0x0025332c
    1d5c:	00000334 	andeq	r0, r0, r4, lsr r3
    1d60:	00000338 	andeq	r0, r0, r8, lsr r3
    1d64:	38530001 	ldmdacc	r3, {r0}^
    1d68:	40000003 	andmi	r0, r0, r3
    1d6c:	1c000003 	stcne	0, cr0, [r0], {3}
    1d70:	f7007000 			; <UNDEFINED> instruction: 0xf7007000
    1d74:	f425f72c 	vld1.8	{d15}, [r5 :128], ip
    1d78:	cccd0825 	stclgt	8, cr0, [sp], {37}	; 0x25
    1d7c:	0000cccc 	andeq	ip, r0, ip, asr #25
    1d80:	081e0000 	ldmdaeq	lr, {}	; <UNPREDICTABLE>
    1d84:	2525f720 	strcs	pc, [r5, #-1824]!	; 0x720
    1d88:	25332cf7 	ldrcs	r2, [r3, #-3319]!	; 0xcf7
    1d8c:	0003409f 	muleq	r3, pc, r0	; <UNPREDICTABLE>
    1d90:	00034400 	andeq	r4, r3, r0, lsl #8
    1d94:	53000100 	movwpl	r0, #256	; 0x100
    1d98:	00000344 	andeq	r0, r0, r4, asr #6
    1d9c:	0000034c 	andeq	r0, r0, ip, asr #6
    1da0:	0070001c 	rsbseq	r0, r0, ip, lsl r0
    1da4:	25f72cf7 	ldrbcs	r2, [r7, #3319]!	; 0xcf7
    1da8:	cd0825f4 	cfstr32gt	mvfx2, [r8, #-976]	; 0xfffffc30
    1dac:	00cccccc 	sbceq	ip, ip, ip, asr #25
    1db0:	1e000000 	cdpne	0, 0, cr0, cr0, cr0, {0}
    1db4:	25f72008 	ldrbcs	r2, [r7, #8]!
    1db8:	332cf725 	msrcc	CPSR_fs, #9699328	; 0x940000
    1dbc:	034c9f25 	movteq	r9, #53029	; 0xcf25
    1dc0:	03500000 	cmpeq	r0, #0
    1dc4:	00010000 	andeq	r0, r1, r0
    1dc8:	00035053 	andeq	r5, r3, r3, asr r0
    1dcc:	00035800 	andeq	r5, r3, r0, lsl #16
    1dd0:	70001c00 	andvc	r1, r0, r0, lsl #24
    1dd4:	f72cf700 			; <UNDEFINED> instruction: 0xf72cf700
    1dd8:	0825f425 	stmdaeq	r5!, {r0, r2, r5, sl, ip, sp, lr, pc}
    1ddc:	cccccccd 	stclgt	12, cr12, [ip], {205}	; 0xcd
    1de0:	00000000 	andeq	r0, r0, r0
    1de4:	f720081e 			; <UNDEFINED> instruction: 0xf720081e
    1de8:	2cf72525 	cfldr64cs	mvdx2, [r7], #148	; 0x94
    1dec:	589f2533 	ldmpl	pc, {r0, r1, r4, r5, r8, sl, sp}	; <UNPREDICTABLE>
    1df0:	5c000003 	stcpl	0, cr0, [r0], {3}
    1df4:	01000003 	tsteq	r0, r3
    1df8:	035c5300 	cmpeq	ip, #0, 6
    1dfc:	03640000 	cmneq	r4, #0
    1e00:	001c0000 	andseq	r0, ip, r0
    1e04:	2cf70070 	ldclcs	0, cr0, [r7], #448	; 0x1c0
    1e08:	25f425f7 	ldrbcs	r2, [r4, #1527]!	; 0x5f7
    1e0c:	cccccd08 	stclgt	13, cr12, [ip], {8}
    1e10:	000000cc 	andeq	r0, r0, ip, asr #1
    1e14:	20081e00 	andcs	r1, r8, r0, lsl #28
    1e18:	f72525f7 			; <UNDEFINED> instruction: 0xf72525f7
    1e1c:	9f25332c 	svcls	0x0025332c
    1e20:	00000364 	andeq	r0, r0, r4, ror #6
    1e24:	00000368 	andeq	r0, r0, r8, ror #6
    1e28:	68530001 	ldmdavs	r3, {r0}^
    1e2c:	6c000003 	stcvs	0, cr0, [r0], {3}
    1e30:	1c000003 	stcne	0, cr0, [r0], {3}
    1e34:	f7007000 			; <UNDEFINED> instruction: 0xf7007000
    1e38:	f425f72c 	vld1.8	{d15}, [r5 :128], ip
    1e3c:	cccd0825 	stclgt	8, cr0, [sp], {37}	; 0x25
    1e40:	0000cccc 	andeq	ip, r0, ip, asr #25
    1e44:	081e0000 	ldmdaeq	lr, {}	; <UNPREDICTABLE>
    1e48:	2525f720 	strcs	pc, [r5, #-1824]!	; 0x720
    1e4c:	25332cf7 	ldrcs	r2, [r3, #-3319]!	; 0xcf7
    1e50:	00036c9f 	muleq	r3, pc, ip	; <UNPREDICTABLE>
    1e54:	00037400 	andeq	r7, r3, r0, lsl #8
    1e58:	74001c00 	strvc	r1, [r0], #-3072	; 0xc00
    1e5c:	f72cf700 			; <UNDEFINED> instruction: 0xf72cf700
    1e60:	0825f425 	stmdaeq	r5!, {r0, r2, r5, sl, ip, sp, lr, pc}
    1e64:	cccccccd 	stclgt	12, cr12, [ip], {205}	; 0xcd
    1e68:	00000000 	andeq	r0, r0, r0
    1e6c:	f720081e 			; <UNDEFINED> instruction: 0xf720081e
    1e70:	2cf72525 	cfldr64cs	mvdx2, [r7], #148	; 0x94
    1e74:	749f2533 	ldrvc	r2, [pc], #1331	; 1e7c <_start-0x6184>
    1e78:	78000003 	stmdavc	r0, {r0, r1}
    1e7c:	17000003 	strne	r0, [r0, -r3]
    1e80:	f7007400 			; <UNDEFINED> instruction: 0xf7007400
    1e84:	7325f72c 	msrvc	CPSR_sc, #44, 14	; 0xb00000
    1e88:	f72cf700 			; <UNDEFINED> instruction: 0xf72cf700
    1e8c:	20081e25 	andcs	r1, r8, r5, lsr #28
    1e90:	f72525f7 			; <UNDEFINED> instruction: 0xf72525f7
    1e94:	9f25332c 	svcls	0x0025332c
    1e98:	00000378 	andeq	r0, r0, r8, ror r3
    1e9c:	000003ac 	andeq	r0, r0, ip, lsr #7
    1ea0:	0074001c 	rsbseq	r0, r4, ip, lsl r0
    1ea4:	25f72cf7 	ldrbcs	r2, [r7, #3319]!	; 0xcf7
    1ea8:	cd0825f4 	cfstr32gt	mvfx2, [r8, #-976]	; 0xfffffc30
    1eac:	00cccccc 	sbceq	ip, ip, ip, asr #25
    1eb0:	1e000000 	cdpne	0, 0, cr0, cr0, cr0, {0}
    1eb4:	25f72008 	ldrbcs	r2, [r7, #8]!
    1eb8:	332cf725 	msrcc	CPSR_fs, #9699328	; 0x940000
    1ebc:	00009f25 	andeq	r9, r0, r5, lsr #30
    1ec0:	00000000 	andeq	r0, r0, r0
    1ec4:	03700000 	cmneq	r0, #0
    1ec8:	03940000 	orrseq	r0, r4, #0
    1ecc:	00010000 	andeq	r0, r1, r0
    1ed0:	00039450 	andeq	r9, r3, r0, asr r4
    1ed4:	00039c00 	andeq	r9, r3, r0, lsl #24
    1ed8:	75000900 	strvc	r0, [r0, #-2304]	; 0x900
    1edc:	24007300 	strcs	r7, [r0], #-768	; 0x300
    1ee0:	9f210071 	svcls	0x00210071
    1ee4:	0000039c 	muleq	r0, ip, r3
    1ee8:	0000039f 	muleq	r0, pc, r3	; <UNPREDICTABLE>
    1eec:	00510001 	subseq	r0, r1, r1
	...
    1ef8:	0b000000 	bleq	1f00 <_start-0x6100>
    1efc:	01000000 	mrseq	r0, (UNDEF: 0)
    1f00:	000b5000 	andeq	r5, fp, r0
    1f04:	00140000 	andseq	r0, r4, r0
    1f08:	00010000 	andeq	r0, r1, r0
    1f0c:	00000054 	andeq	r0, r0, r4, asr r0
    1f10:	00000000 	andeq	r0, r0, r0
	...

Disassembly of section .debug_aranges:

00000000 <.debug_aranges>:
   0:	0000001c 	andeq	r0, r0, ip, lsl r0
   4:	00000002 	andeq	r0, r0, r2
   8:	00040000 	andeq	r0, r4, r0
   c:	00000000 	andeq	r0, r0, r0
  10:	00008010 	andeq	r8, r0, r0, lsl r0
  14:	00000118 	andeq	r0, r0, r8, lsl r1
	...
  20:	0000001c 	andeq	r0, r0, ip, lsl r0
  24:	03530002 	cmpeq	r3, #2
  28:	00040000 	andeq	r0, r4, r0
  2c:	00000000 	andeq	r0, r0, r0
  30:	00008128 	andeq	r8, r0, r8, lsr #2
  34:	00000600 	andeq	r0, r0, r0, lsl #12
	...
  40:	0000001c 	andeq	r0, r0, ip, lsl r0
  44:	14fe0002 	ldrbtne	r0, [lr], #2
  48:	00040000 	andeq	r0, r4, r0
  4c:	00000000 	andeq	r0, r0, r0
  50:	00008728 	andeq	r8, r0, r8, lsr #14
  54:	00000058 	andeq	r0, r0, r8, asr r0
	...
  60:	0000001c 	andeq	r0, r0, ip, lsl r0
  64:	16930002 	ldrne	r0, [r3], r2
  68:	00040000 	andeq	r0, r4, r0
  6c:	00000000 	andeq	r0, r0, r0
  70:	00008780 	andeq	r8, r0, r0, lsl #15
  74:	00000034 	andeq	r0, r0, r4, lsr r0
	...
  80:	0000001c 	andeq	r0, r0, ip, lsl r0
  84:	17850002 	strne	r0, [r5, r2]
  88:	00040000 	andeq	r0, r4, r0
  8c:	00000000 	andeq	r0, r0, r0
  90:	000087b4 			; <UNDEFINED> instruction: 0x000087b4
  94:	00000020 	andeq	r0, r0, r0, lsr #32
	...
  a0:	0000001c 	andeq	r0, r0, ip, lsl r0
  a4:	18470002 	stmdane	r7, {r1}^
  a8:	00040000 	andeq	r0, r4, r0
  ac:	00000000 	andeq	r0, r0, r0
  b0:	000087d4 	ldrdeq	r8, [r0], -r4
  b4:	000004f0 	strdeq	r0, [r0], -r0	; <UNPREDICTABLE>
	...
  c0:	0000001c 	andeq	r0, r0, ip, lsl r0
  c4:	1e9f0002 	cdpne	0, 9, cr0, cr15, cr2, {0}
  c8:	00040000 	andeq	r0, r4, r0
  cc:	00000000 	andeq	r0, r0, r0
  d0:	00008cc4 	andeq	r8, r0, r4, asr #25
  d4:	00000020 	andeq	r0, r0, r0, lsr #32
	...
  e0:	0000001c 	andeq	r0, r0, ip, lsl r0
  e4:	1f5b0002 	svcne	0x005b0002
  e8:	00040000 	andeq	r0, r4, r0
  ec:	00000000 	andeq	r0, r0, r0
  f0:	00008ce4 	andeq	r8, r0, r4, ror #25
  f4:	00000028 	andeq	r0, r0, r8, lsr #32
	...
 100:	0000001c 	andeq	r0, r0, ip, lsl r0
 104:	205e0002 	subscs	r0, lr, r2
 108:	00040000 	andeq	r0, r4, r0
 10c:	00000000 	andeq	r0, r0, r0
 110:	00008d0c 	andeq	r8, r0, ip, lsl #26
 114:	00000034 	andeq	r0, r0, r4, lsr r0
	...
 120:	0000001c 	andeq	r0, r0, ip, lsl r0
 124:	216d0002 	cmncs	sp, r2
 128:	00040000 	andeq	r0, r4, r0
 12c:	00000000 	andeq	r0, r0, r0
 130:	00008d40 	andeq	r8, r0, r0, asr #26
 134:	00000074 	andeq	r0, r0, r4, ror r0
	...
 140:	0000001c 	andeq	r0, r0, ip, lsl r0
 144:	231e0002 	tstcs	lr, #2
 148:	00040000 	andeq	r0, r4, r0
 14c:	00000000 	andeq	r0, r0, r0
 150:	00008db4 			; <UNDEFINED> instruction: 0x00008db4
 154:	00000088 	andeq	r0, r0, r8, lsl #1
	...
 160:	0000001c 	andeq	r0, r0, ip, lsl r0
 164:	24fa0002 	ldrbtcs	r0, [sl], #2
 168:	00040000 	andeq	r0, r4, r0
 16c:	00000000 	andeq	r0, r0, r0
 170:	00008e88 	andeq	r8, r0, r8, lsl #29
 174:	00000154 	andeq	r0, r0, r4, asr r1
	...
 180:	0000001c 	andeq	r0, r0, ip, lsl r0
 184:	28fd0002 	ldmcs	sp!, {r1}^
 188:	00040000 	andeq	r0, r4, r0
 18c:	00000000 	andeq	r0, r0, r0
 190:	00008fdc 	ldrdeq	r8, [r0], -ip
 194:	000003ac 	andeq	r0, r0, ip, lsr #7
	...
 1a0:	0000001c 	andeq	r0, r0, ip, lsl r0
 1a4:	2e690002 	cdpcs	0, 6, cr0, cr9, cr2, {0}
 1a8:	00040000 	andeq	r0, r4, r0
 1ac:	00000000 	andeq	r0, r0, r0
 1b0:	00009388 	andeq	r9, r0, r8, lsl #7
 1b4:	00000014 	andeq	r0, r0, r4, lsl r0
	...

Disassembly of section .debug_ranges:

00000000 <.debug_ranges>:
   0:	00000038 	andeq	r0, r0, r8, lsr r0
   4:	0000004c 	andeq	r0, r0, ip, asr #32
   8:	00000050 	andeq	r0, r0, r0, asr r0
   c:	000000e4 	andeq	r0, r0, r4, ror #1
	...
  18:	00008d40 	andeq	r8, r0, r0, asr #26
  1c:	00008db4 			; <UNDEFINED> instruction: 0x00008db4
	...

Disassembly of section .debug_line:

00000000 <.debug_line>:
   0:	0000017c 	andeq	r0, r0, ip, ror r1
   4:	01420002 	cmpeq	r2, r2
   8:	01020000 	mrseq	r0, (UNDEF: 2)
   c:	000d0efb 	strdeq	r0, [sp], -fp
  10:	01010101 	tsteq	r1, r1, lsl #2
  14:	01000000 	mrseq	r0, (UNDEF: 0)
  18:	2f010000 	svccs	0x00010000
  1c:	2f727375 	svccs	0x00727375
  20:	61636f6c 	cmnvs	r3, ip, ror #30
  24:	65432f6c 	strbvs	r2, [r3, #-3948]	; 0xf6c
  28:	72616c6c 	rsbvc	r6, r1, #108, 24	; 0x6c00
  2c:	6d72612f 	ldfvse	f6, [r2, #-188]!	; 0xffffff44
  30:	6e6f6e2d 	cdpvs	14, 6, cr6, cr15, cr13, {1}
  34:	61652d65 	cmnvs	r5, r5, ror #26
  38:	342f6962 	strtcc	r6, [pc], #-2402	; 40 <_start-0x7fc0>
  3c:	332e382e 	teqcc	lr, #3014656	; 0x2e0000
  40:	3173632d 	cmncc	r3, sp, lsr #6
  44:	2f653037 	svccs	0x00653037
  48:	2f62696c 	svccs	0x0062696c
  4c:	2f636367 	svccs	0x00636367
  50:	2d6d7261 	sfmcs	f7, 2, [sp, #-388]!	; 0xfffffe7c
  54:	656e6f6e 	strbvs	r6, [lr, #-3950]!	; 0xf6e
  58:	6261652d 	rsbvs	r6, r1, #188743680	; 0xb400000
  5c:	2e342f69 	cdpcs	15, 3, cr2, cr4, cr9, {3}
  60:	2f332e38 	svccs	0x00332e38
  64:	6c636e69 	stclvs	14, cr6, [r3], #-420	; 0xfffffe5c
  68:	00656475 	rsbeq	r6, r5, r5, ror r4
  6c:	6573552f 	ldrbvs	r5, [r3, #-1327]!	; 0x52f
  70:	622f7372 	eorvs	r7, pc, #-939524095	; 0xc8000001
  74:	6e616972 	mcrvs	9, 3, r6, cr1, cr2, {3}
  78:	2f6e756a 	svccs	0x006e756a
  7c:	6b736544 	blvs	1cd9594 <__bss_end__+0x1ccfa54>
  80:	2f706f74 	svccs	0x00706f74
  84:	6f686373 	svcvs	0x00686373
  88:	572f6c6f 	strpl	r6, [pc, -pc, ror #24]!
  8c:	65746e69 	ldrbvs	r6, [r4, #-3689]!	; 0xe69
  90:	32393172 	eorscc	r3, r9, #-2147483620	; 0x8000001c
  94:	53432f30 	movtpl	r2, #16176	; 0x3f30
  98:	45303431 	ldrmi	r3, [r0, #-1073]!	; 0x431
  9c:	3173632f 	cmncc	r3, pc, lsr #6
  a0:	2d653034 	stclcs	0, cr3, [r5, #-208]!	; 0xffffff30
  a4:	69773032 	ldmdbvs	r7!, {r1, r4, r5, ip, sp}^
  a8:	696c2f6e 	stmdbvs	ip!, {r1, r2, r3, r5, r6, r8, r9, sl, fp, sp}^
  ac:	00697062 	rsbeq	r7, r9, r2, rrx
  b0:	7273752f 	rsbsvc	r7, r3, #197132288	; 0xbc00000
  b4:	636f6c2f 	cmnvs	pc, #12032	; 0x2f00
  b8:	432f6c61 	teqmi	pc, #24832	; 0x6100
  bc:	616c6c65 	cmnvs	ip, r5, ror #24
  c0:	72612f72 	rsbvc	r2, r1, #456	; 0x1c8
  c4:	6f6e2d6d 	svcvs	0x006e2d6d
  c8:	652d656e 	strvs	r6, [sp, #-1390]!	; 0x56e
  cc:	2f696261 	svccs	0x00696261
  d0:	2e382e34 	mrccs	14, 1, r2, cr8, cr4, {1}
  d4:	73632d33 	cmnvc	r3, #3264	; 0xcc0
  d8:	65303731 	ldrvs	r3, [r0, #-1841]!	; 0x731
  dc:	6d72612f 	ldfvse	f6, [r2, #-188]!	; 0xffffff44
  e0:	6e6f6e2d 	cdpvs	14, 6, cr6, cr15, cr13, {1}
  e4:	61652d65 	cmnvs	r5, r5, ror #26
  e8:	692f6962 	stmdbvs	pc!, {r1, r5, r6, r8, fp, sp, lr}	; <UNPREDICTABLE>
  ec:	756c636e 	strbvc	r6, [ip, #-878]!	; 0x36e
  f0:	00006564 	andeq	r6, r0, r4, ror #10
  f4:	65672d33 	strbvs	r2, [r7, #-3379]!	; 0xd33
  f8:	742d7374 	strtvc	r7, [sp], #-884	; 0x374
  fc:	6f656d69 	svcvs	0x00656d69
 100:	742d7475 	strtvc	r7, [sp], #-1141	; 0x475
 104:	2e747365 	cdpcs	3, 7, cr7, cr4, cr5, {3}
 108:	00000063 	andeq	r0, r0, r3, rrx
 10c:	64747300 	ldrbtvs	r7, [r4], #-768	; 0x300
 110:	2e666564 	cdpcs	5, 6, cr6, cr6, cr4, {3}
 114:	00010068 	andeq	r0, r1, r8, rrx
 118:	64747300 	ldrbtvs	r7, [r4], #-768	; 0x300
 11c:	2d746e69 	ldclcs	14, cr6, [r4, #-420]!	; 0xfffffe5c
 120:	2e636367 	cdpcs	3, 6, cr6, cr3, cr7, {3}
 124:	00010068 	andeq	r0, r1, r8, rrx
 128:	2d777300 	ldclcs	3, cr7, [r7, #-0]
 12c:	74726175 	ldrbtvc	r6, [r2], #-373	; 0x175
 130:	0000682e 	andeq	r6, r0, lr, lsr #16
 134:	70720000 	rsbsvc	r0, r2, r0
 138:	00682e69 	rsbeq	r2, r8, r9, ror #28
 13c:	73000002 	movwvc	r0, #2
 140:	6e697274 	mcrvs	2, 3, r7, cr9, cr4, {3}
 144:	00682e67 	rsbeq	r2, r8, r7, ror #28
 148:	00000003 	andeq	r0, r0, r3
 14c:	10020500 	andne	r0, r2, r0, lsl #10
 150:	17000080 	strne	r0, [r0, -r0, lsl #1]
 154:	f4312f67 			; <UNDEFINED> instruction: 0xf4312f67
 158:	29523330 	ldmdbcs	r2, {r4, r5, r8, r9, ip, sp}^
 15c:	302e7603 	eorcc	r7, lr, r3, lsl #12
 160:	844bbc87 	strbhi	fp, [fp], #-3207	; 0xc87
 164:	01040200 	mrseq	r0, R12_usr
 168:	bc068206 	sfmlt	f0, 1, [r6], {6}
 16c:	6f03849f 	svcvs	0x0003849f
 170:	0402004a 	streq	r0, [r2], #-74	; 0x4a
 174:	062e0601 	strteq	r0, [lr], -r1, lsl #12
 178:	024a1303 	subeq	r1, sl, #201326592	; 0xc000000
 17c:	01010014 	tsteq	r1, r4, lsl r0
 180:	00000346 	andeq	r0, r0, r6, asr #6
 184:	01b60002 			; <UNDEFINED> instruction: 0x01b60002
 188:	01020000 	mrseq	r0, (UNDEF: 2)
 18c:	000d0efb 	strdeq	r0, [sp], -fp
 190:	01010101 	tsteq	r1, r1, lsl #2
 194:	01000000 	mrseq	r0, (UNDEF: 0)
 198:	2f010000 	svccs	0x00010000
 19c:	2f727375 	svccs	0x00727375
 1a0:	61636f6c 	cmnvs	r3, ip, ror #30
 1a4:	65432f6c 	strbvs	r2, [r3, #-3948]	; 0xf6c
 1a8:	72616c6c 	rsbvc	r6, r1, #108, 24	; 0x6c00
 1ac:	6d72612f 	ldfvse	f6, [r2, #-188]!	; 0xffffff44
 1b0:	6e6f6e2d 	cdpvs	14, 6, cr6, cr15, cr13, {1}
 1b4:	61652d65 	cmnvs	r5, r5, ror #26
 1b8:	342f6962 	strtcc	r6, [pc], #-2402	; 1c0 <_start-0x7e40>
 1bc:	332e382e 	teqcc	lr, #3014656	; 0x2e0000
 1c0:	3173632d 	cmncc	r3, sp, lsr #6
 1c4:	2f653037 	svccs	0x00653037
 1c8:	2f62696c 	svccs	0x0062696c
 1cc:	2f636367 	svccs	0x00636367
 1d0:	2d6d7261 	sfmcs	f7, 2, [sp, #-388]!	; 0xfffffe7c
 1d4:	656e6f6e 	strbvs	r6, [lr, #-3950]!	; 0xf6e
 1d8:	6261652d 	rsbvs	r6, r1, #188743680	; 0xb400000
 1dc:	2e342f69 	cdpcs	15, 3, cr2, cr4, cr9, {3}
 1e0:	2f332e38 	svccs	0x00332e38
 1e4:	6c636e69 	stclvs	14, cr6, [r3], #-420	; 0xfffffe5c
 1e8:	00656475 	rsbeq	r6, r5, r5, ror r4
 1ec:	6573552f 	ldrbvs	r5, [r3, #-1327]!	; 0x52f
 1f0:	622f7372 	eorvs	r7, pc, #-939524095	; 0xc8000001
 1f4:	6e616972 	mcrvs	9, 3, r6, cr1, cr2, {3}
 1f8:	2f6e756a 	svccs	0x006e756a
 1fc:	6b736544 	blvs	1cd9714 <__bss_end__+0x1ccfbd4>
 200:	2f706f74 	svccs	0x00706f74
 204:	6f686373 	svcvs	0x00686373
 208:	572f6c6f 	strpl	r6, [pc, -pc, ror #24]!
 20c:	65746e69 	ldrbvs	r6, [r4, #-3689]!	; 0xe69
 210:	32393172 	eorscc	r3, r9, #-2147483620	; 0x8000001c
 214:	53432f30 	movtpl	r2, #16176	; 0x3f30
 218:	45303431 	ldrmi	r3, [r0, #-1073]!	; 0x431
 21c:	3173632f 	cmncc	r3, pc, lsr #6
 220:	2d653034 	stclcs	0, cr3, [r5, #-208]!	; 0xffffff30
 224:	69773032 	ldmdbvs	r7!, {r1, r4, r5, ip, sp}^
 228:	696c2f6e 	stmdbvs	ip!, {r1, r2, r3, r5, r6, r8, r9, sl, fp, sp}^
 22c:	2f697062 	svccs	0x00697062
 230:	34317363 	ldrtcc	r7, [r1], #-867	; 0x363
 234:	732d6530 	teqvc	sp, #48, 10	; 0xc000000
 238:	2f006372 	svccs	0x00006372
 23c:	72657355 	rsbvc	r7, r5, #1409286145	; 0x54000001
 240:	72622f73 	rsbvc	r2, r2, #460	; 0x1cc
 244:	6a6e6169 	bvs	1b987f0 <__bss_end__+0x1b8ecb0>
 248:	442f6e75 	strtmi	r6, [pc], #-3701	; 250 <_start-0x7db0>
 24c:	746b7365 	strbtvc	r7, [fp], #-869	; 0x365
 250:	732f706f 	teqvc	pc, #111	; 0x6f
 254:	6f6f6863 	svcvs	0x006f6863
 258:	69572f6c 	ldmdbvs	r7, {r2, r3, r5, r6, r8, r9, sl, fp, sp}^
 25c:	7265746e 	rsbvc	r7, r5, #1845493760	; 0x6e000000
 260:	30323931 	eorscc	r3, r2, r1, lsr r9
 264:	3153432f 	cmpcc	r3, pc, lsr #6
 268:	2f453034 	svccs	0x00453034
 26c:	34317363 	ldrtcc	r7, [r1], #-867	; 0x363
 270:	322d6530 	eorcc	r6, sp, #48, 10	; 0xc000000
 274:	6e697730 	mcrvs	7, 3, r7, cr9, cr0, {1}
 278:	62696c2f 	rsbvs	r6, r9, #12032	; 0x2f00
 27c:	2f006970 	svccs	0x00006970
 280:	72657355 	rsbvc	r7, r5, #1409286145	; 0x54000001
 284:	72622f73 	rsbvc	r2, r2, #460	; 0x1cc
 288:	6a6e6169 	bvs	1b98834 <__bss_end__+0x1b8ecf4>
 28c:	442f6e75 	strtmi	r6, [pc], #-3701	; 294 <_start-0x7d6c>
 290:	746b7365 	strbtvc	r7, [fp], #-869	; 0x365
 294:	732f706f 	teqvc	pc, #111	; 0x6f
 298:	6f6f6863 	svcvs	0x006f6863
 29c:	69572f6c 	ldmdbvs	r7, {r2, r3, r5, r6, r8, r9, sl, fp, sp}^
 2a0:	7265746e 	rsbvc	r7, r5, #1845493760	; 0x6e000000
 2a4:	30323931 	eorscc	r3, r2, r1, lsr r9
 2a8:	3153432f 	cmpcc	r3, pc, lsr #6
 2ac:	2f453034 	svccs	0x00453034
 2b0:	34317363 	ldrtcc	r7, [r1], #-867	; 0x363
 2b4:	322d6530 	eorcc	r6, sp, #48, 10	; 0xc000000
 2b8:	6e697730 	mcrvs	7, 3, r7, cr9, cr0, {1}
 2bc:	62696c2f 	rsbvs	r6, r9, #12032	; 0x2f00
 2c0:	6c2f6970 	stcvs	9, cr6, [pc], #-448	; 108 <_start-0x7ef8>
 2c4:	00636269 	rsbeq	r6, r3, r9, ror #4
 2c8:	2d777300 	ldclcs	3, cr7, [r7, #-0]
 2cc:	74726175 	ldrbtvc	r6, [r2], #-373	; 0x175
 2d0:	0000632e 	andeq	r6, r0, lr, lsr #6
 2d4:	79630000 	stmdbvc	r3!, {}^	; <UNPREDICTABLE>
 2d8:	2d656c63 	stclcs	12, cr6, [r5, #-396]!	; 0xfffffe74
 2dc:	6c697475 	cfstrdvs	mvd7, [r9], #-468	; 0xfffffe2c
 2e0:	0000682e 	andeq	r6, r0, lr, lsr #16
 2e4:	74730000 	ldrbtvc	r0, [r3], #-0
 2e8:	746e6964 	strbtvc	r6, [lr], #-2404	; 0x964
 2ec:	6363672d 	cmnvs	r3, #11796480	; 0xb40000
 2f0:	0100682e 	tsteq	r0, lr, lsr #16
 2f4:	77730000 	ldrbvc	r0, [r3, -r0]!
 2f8:	7261752d 	rsbvc	r7, r1, #188743680	; 0xb400000
 2fc:	00682e74 	rsbeq	r2, r8, r4, ror lr
 300:	73000000 	movwvc	r0, #0
 304:	72616474 	rsbvc	r6, r1, #116, 8	; 0x74000000
 308:	00682e67 	rsbeq	r2, r8, r7, ror #28
 30c:	67000001 	strvs	r0, [r0, -r1]
 310:	2e6f6970 	mcrcs	9, 3, r6, cr15, cr0, {3}
 314:	00020068 	andeq	r0, r2, r8, rrx
 318:	69707200 	ldmdbvs	r0!, {r9, ip, sp, lr}^
 31c:	0300682e 	movweq	r6, #2094	; 0x82e
 320:	61760000 	cmnvs	r6, r0
 324:	6972702d 	ldmdbvs	r2!, {r0, r2, r3, r5, ip, sp, lr}^
 328:	2e6b746e 	cdpcs	4, 6, cr7, cr11, cr14, {3}
 32c:	00040068 	andeq	r0, r4, r8, rrx
 330:	75623c00 	strbvc	r3, [r2, #-3072]!	; 0xc00
 334:	2d746c69 	ldclcs	12, cr6, [r4, #-420]!	; 0xfffffe5c
 338:	003e6e69 	eorseq	r6, lr, r9, ror #28
 33c:	00000000 	andeq	r0, r0, r0
 340:	28020500 	stmdacs	r2, {r8, sl}
 344:	1a000081 	bne	550 <_start-0x7ab0>
 348:	32302f4c 	eorscc	r2, r0, #76, 30	; 0x130
 34c:	03350204 	teqeq	r5, #4, 4	; 0x40000000
 350:	01046673 	tsteq	r4, r3, ror r6
 354:	04820a03 	streq	r0, [r2], #2563	; 0xa03
 358:	73033102 	movwvc	r3, #12546	; 0x3102
 35c:	03010466 	movweq	r0, #5222	; 0x1466
 360:	0204820c 	andeq	r8, r4, #12, 4	; 0xc0000000
 364:	6673032f 	ldrbtvs	r0, [r3], -pc, lsr #6
 368:	0e030104 	adfeqs	f0, f3, f4
 36c:	2d020482 	cfstrscs	mvf0, [r2, #-520]	; 0xfffffdf8
 370:	04667303 	strbteq	r7, [r6], #-771	; 0x303
 374:	82100301 	andshi	r0, r0, #67108864	; 0x4000000
 378:	032b0204 	teqeq	fp, #4, 4	; 0x40000000
 37c:	01046673 	tsteq	r4, r3, ror r6
 380:	04821203 	streq	r1, [r2], #515	; 0x203
 384:	73032902 	movwvc	r2, #14594	; 0x3902
 388:	03010466 	movweq	r0, #5222	; 0x1466
 38c:	02048214 	andeq	r8, r4, #20, 4	; 0x40000001
 390:	032e7903 	teqeq	lr, #49152	; 0xc000
 394:	01046673 	tsteq	r4, r3, ror r6
 398:	04821603 	streq	r1, [r2], #1539	; 0x603
 39c:	2e770302 	cdpcs	3, 7, cr0, cr7, cr2, {0}
 3a0:	04667303 	strbteq	r7, [r6], #-771	; 0x303
 3a4:	82180301 	andshi	r0, r8, #67108864	; 0x4000000
 3a8:	75030204 	strvc	r0, [r3, #-516]	; 0x204
 3ac:	6673032e 	ldrbtvs	r0, [r3], -lr, lsr #6
 3b0:	1a030104 	bne	c07c8 <__bss_end__+0xb6c88>
 3b4:	03020482 	movweq	r0, #9346	; 0x2482
 3b8:	73032e73 	movwvc	r2, #15987	; 0x3e73
 3bc:	03010466 	movweq	r0, #5222	; 0x1466
 3c0:	1003821c 	andne	r8, r3, ip, lsl r2
 3c4:	034d4b2e 	movteq	r4, #56110	; 0xdb2e
 3c8:	844c2e70 	strbhi	r2, [ip], #-3696	; 0xe70
 3cc:	0d034883 	stceq	8, cr4, [r3, #-524]	; 0xfffffdf4
 3d0:	33314e2e 	teqcc	r1, #736	; 0x2e0
 3d4:	44030204 	strmi	r0, [r3], #-516	; 0x204
 3d8:	0301042e 	movweq	r0, #5166	; 0x142e
 3dc:	042f823e 	strteq	r8, [pc], #-574	; 3e4 <_start-0x7c1c>
 3e0:	66410302 	strbvs	r0, [r1], -r2, lsl #6
 3e4:	c1030104 	tstgt	r3, r4, lsl #2
 3e8:	042f8200 	strteq	r8, [pc], #-512	; 3f0 <_start-0x7c10>
 3ec:	7fbe0302 	svcvc	0x00be0302
 3f0:	03010482 	movweq	r0, #5250	; 0x1482
 3f4:	2f8200c4 	svccs	0x008200c4
 3f8:	bb030204 	bllt	c0c10 <__bss_end__+0xb70d0>
 3fc:	0104827f 	tsteq	r4, pc, ror r2
 400:	8200c703 	andhi	ip, r0, #786432	; 0xc0000
 404:	0302042f 	movweq	r0, #9263	; 0x242f
 408:	04827fb8 	streq	r7, [r2], #4024	; 0xfb8
 40c:	00ca0301 	sbceq	r0, sl, r1, lsl #6
 410:	02042f82 	andeq	r2, r4, #520	; 0x208
 414:	827fb503 	rsbshi	fp, pc, #12582912	; 0xc00000
 418:	cd030104 	stfgts	f0, [r3, #-16]
 41c:	042f8200 	strteq	r8, [pc], #-512	; 424 <_start-0x7bdc>
 420:	7fb20302 	svcvc	0x00b20302
 424:	03010482 	movweq	r0, #5250	; 0x1482
 428:	2f8200d0 	svccs	0x008200d0
 42c:	af030204 	svcge	0x00030204
 430:	0104827f 	tsteq	r4, pc, ror r2
 434:	8200d403 	andhi	sp, r0, #50331648	; 0x3000000
 438:	4c824c03 	stcmi	12, cr4, [r2], {3}
 43c:	03488384 	movteq	r8, #33668	; 0x8384
 440:	034e2e36 	movteq	r2, #60982	; 0xee36
 444:	29034a54 	stmdbcs	r3, {r2, r4, r6, r9, fp, lr}
 448:	9f34324a 	svcls	0x0034324a
 44c:	01040200 	mrseq	r0, R12_usr
 450:	bb064a06 	bllt	192c70 <__bss_end__+0x189130>
 454:	2cbb4b4e 	vldmiacs	fp!, {d4-<overflow reg d42>}
 458:	01040200 	mrseq	r0, R12_usr
 45c:	6d062e06 	stcvs	14, cr2, [r6, #-24]	; 0xffffffe8
 460:	0084a44c 	addeq	sl, r4, ip, asr #8
 464:	06010402 	streq	r0, [r1], -r2, lsl #8
 468:	4dbb064a 	ldcmi	6, cr0, [fp, #296]!	; 0x128
 46c:	02040200 	andeq	r0, r4, #0, 4
 470:	0402004b 	streq	r0, [r2], #-75	; 0x4b
 474:	02008102 	andeq	r8, r0, #-2147483648	; 0x80000000
 478:	2e060104 	adfcss	f0, f6, f4
 47c:	a54c4d06 	strbge	r4, [ip, #-3334]	; 0xd06
 480:	4f4b4bbc 	svcmi	0x004b4bbc
 484:	0402002f 	streq	r0, [r2], #-47	; 0x2f
 488:	82820601 	addhi	r0, r2, #1048576	; 0x100000
 48c:	04040200 	streq	r0, [r4], #-512	; 0x200
 490:	0402009e 	streq	r0, [r2], #-158	; 0x9e
 494:	bd064a01 	vstrlt	s8, [r6, #-4]
 498:	4b2fbd88 	blmi	befac0 <__bss_end__+0xbe5f80>
 49c:	6724084b 	strvs	r0, [r4, -fp, asr #16]!
 4a0:	02040200 	andeq	r0, r4, #0, 4
 4a4:	0402002f 	streq	r0, [r2], #-47	; 0x2f
 4a8:	02004902 	andeq	r4, r0, #32768	; 0x8000
 4ac:	2e060104 	adfcss	f0, f6, f4
 4b0:	86346806 	ldrthi	r6, [r4], -r6, lsl #16
 4b4:	0200a04b 	andeq	sl, r0, #75	; 0x4b
 4b8:	66060104 	strvs	r0, [r6], -r4, lsl #2
 4bc:	0868bb06 	stmdaeq	r8!, {r1, r2, r8, r9, fp, ip, sp, pc}^
 4c0:	4b674b22 	blmi	19d3150 <__bss_end__+0x19c9610>
 4c4:	000a02bc 			; <UNDEFINED> instruction: 0x000a02bc
 4c8:	01020101 	tsteq	r2, r1, lsl #2
 4cc:	00020000 	andeq	r0, r2, r0
 4d0:	000000eb 	andeq	r0, r0, fp, ror #1
 4d4:	0efb0102 	cdpeq	1, 15, cr0, cr11, cr2, {0}
 4d8:	0101000d 	tsteq	r1, sp
 4dc:	00000101 	andeq	r0, r0, r1, lsl #2
 4e0:	00000100 	andeq	r0, r0, r0, lsl #2
 4e4:	62696c01 	rsbvs	r6, r9, #256	; 0x100
 4e8:	752f0063 	strvc	r0, [pc, #-99]!	; 48d <_start-0x7b73>
 4ec:	6c2f7273 	sfmvs	f7, 4, [pc], #-460	; 328 <_start-0x7cd8>
 4f0:	6c61636f 	stclvs	3, cr6, [r1], #-444	; 0xfffffe44
 4f4:	6c65432f 	stclvs	3, cr4, [r5], #-188	; 0xffffff44
 4f8:	2f72616c 	svccs	0x0072616c
 4fc:	2d6d7261 	sfmcs	f7, 2, [sp, #-388]!	; 0xfffffe7c
 500:	656e6f6e 	strbvs	r6, [lr, #-3950]!	; 0xf6e
 504:	6261652d 	rsbvs	r6, r1, #188743680	; 0xb400000
 508:	2e342f69 	cdpcs	15, 3, cr2, cr4, cr9, {3}
 50c:	2d332e38 	ldccs	14, cr2, [r3, #-224]!	; 0xffffff20
 510:	37317363 	ldrcc	r7, [r1, -r3, ror #6]!
 514:	6c2f6530 	cfstr32vs	mvfx6, [pc], #-192	; 45c <_start-0x7ba4>
 518:	672f6269 	strvs	r6, [pc, -r9, ror #4]!
 51c:	612f6363 	teqvs	pc, r3, ror #6
 520:	6e2d6d72 	mcrvs	13, 1, r6, cr13, cr2, {3}
 524:	2d656e6f 	stclcs	14, cr6, [r5, #-444]!	; 0xfffffe44
 528:	69626165 	stmdbvs	r2!, {r0, r2, r5, r6, r8, sp, lr}^
 52c:	382e342f 	stmdacc	lr!, {r0, r1, r2, r3, r5, sl, ip, sp}
 530:	692f332e 	stmdbvs	pc!, {r1, r2, r3, r5, r8, r9, ip, sp}	; <UNPREDICTABLE>
 534:	756c636e 	strbvc	r6, [ip, #-878]!	; 0x36e
 538:	2f006564 	svccs	0x00006564
 53c:	72657355 	rsbvc	r7, r5, #1409286145	; 0x54000001
 540:	72622f73 	rsbvc	r2, r2, #460	; 0x1cc
 544:	6a6e6169 	bvs	1b98af0 <__bss_end__+0x1b8efb0>
 548:	442f6e75 	strtmi	r6, [pc], #-3701	; 550 <_start-0x7ab0>
 54c:	746b7365 	strbtvc	r7, [fp], #-869	; 0x365
 550:	732f706f 	teqvc	pc, #111	; 0x6f
 554:	6f6f6863 	svcvs	0x006f6863
 558:	69572f6c 	ldmdbvs	r7, {r2, r3, r5, r6, r8, r9, sl, fp, sp}^
 55c:	7265746e 	rsbvc	r7, r5, #1845493760	; 0x6e000000
 560:	30323931 	eorscc	r3, r2, r1, lsr r9
 564:	3153432f 	cmpcc	r3, pc, lsr #6
 568:	2f453034 	svccs	0x00453034
 56c:	34317363 	ldrtcc	r7, [r1], #-867	; 0x363
 570:	322d6530 	eorcc	r6, sp, #48, 10	; 0xc000000
 574:	6e697730 	mcrvs	7, 3, r7, cr9, cr0, {1}
 578:	62696c2f 	rsbvs	r6, r9, #12032	; 0x2f00
 57c:	00006970 	andeq	r6, r0, r0, ror r9
 580:	6e697270 	mcrvs	2, 3, r7, cr9, cr0, {3}
 584:	632e6b74 	teqvs	lr, #116, 22	; 0x1d000
 588:	00000100 	andeq	r0, r0, r0, lsl #2
 58c:	61647473 	smcvs	18243	; 0x4743
 590:	682e6772 	stmdavs	lr!, {r1, r4, r5, r6, r8, r9, sl, sp, lr}
 594:	00000200 	andeq	r0, r0, r0, lsl #4
 598:	6975623c 	ldmdbvs	r5!, {r2, r3, r4, r5, r9, sp, lr}^
 59c:	692d746c 	pushvs	{r2, r3, r5, r6, sl, ip, sp, lr}
 5a0:	00003e6e 	andeq	r3, r0, lr, ror #28
 5a4:	70720000 	rsbsvc	r0, r2, r0
 5a8:	00682e69 	rsbeq	r2, r8, r9, ror #28
 5ac:	76000003 	strvc	r0, [r0], -r3
 5b0:	72702d61 	rsbsvc	r2, r0, #6208	; 0x1840
 5b4:	6b746e69 	blvs	1d1bf60 <__bss_end__+0x1d12420>
 5b8:	0100682e 	tsteq	r0, lr, lsr #16
 5bc:	00000000 	andeq	r0, r0, r0
 5c0:	87280205 	strhi	r0, [r8, -r5, lsl #4]!
 5c4:	6b170000 	blvs	5c05cc <__bss_end__+0x5b6a8c>
 5c8:	0289bf4b 	addeq	fp, r9, #300	; 0x12c
 5cc:	0101000e 	tsteq	r1, lr
 5d0:	00000096 	muleq	r0, r6, r0
 5d4:	006f0002 	rsbeq	r0, pc, r2
 5d8:	01020000 	mrseq	r0, (UNDEF: 2)
 5dc:	000d0efb 	strdeq	r0, [sp], -fp
 5e0:	01010101 	tsteq	r1, r1, lsl #2
 5e4:	01000000 	mrseq	r0, (UNDEF: 0)
 5e8:	6c010000 	stcvs	0, cr0, [r1], {-0}
 5ec:	00636269 	rsbeq	r6, r3, r9, ror #4
 5f0:	6573552f 	ldrbvs	r5, [r3, #-1327]!	; 0x52f
 5f4:	622f7372 	eorvs	r7, pc, #-939524095	; 0xc8000001
 5f8:	6e616972 	mcrvs	9, 3, r6, cr1, cr2, {3}
 5fc:	2f6e756a 	svccs	0x006e756a
 600:	6b736544 	blvs	1cd9b18 <__bss_end__+0x1ccffd8>
 604:	2f706f74 	svccs	0x00706f74
 608:	6f686373 	svcvs	0x00686373
 60c:	572f6c6f 	strpl	r6, [pc, -pc, ror #24]!
 610:	65746e69 	ldrbvs	r6, [r4, #-3689]!	; 0xe69
 614:	32393172 	eorscc	r3, r9, #-2147483620	; 0x8000001c
 618:	53432f30 	movtpl	r2, #16176	; 0x3f30
 61c:	45303431 	ldrmi	r3, [r0, #-1073]!	; 0x431
 620:	3173632f 	cmncc	r3, pc, lsr #6
 624:	2d653034 	stclcs	0, cr3, [r5, #-208]!	; 0xffffff30
 628:	69773032 	ldmdbvs	r7!, {r1, r4, r5, ip, sp}^
 62c:	696c2f6e 	stmdbvs	ip!, {r1, r2, r3, r5, r6, r8, r9, sl, fp, sp}^
 630:	00697062 	rsbeq	r7, r9, r2, rrx
 634:	74757000 	ldrbtvc	r7, [r5], #-0
 638:	00632e6b 	rsbeq	r2, r3, fp, ror #28
 63c:	72000001 	andvc	r0, r0, #1
 640:	682e6970 	stmdavs	lr!, {r4, r5, r6, r8, fp, sp, lr}
 644:	00000200 	andeq	r0, r0, r0, lsl #4
 648:	02050000 	andeq	r0, r5, #0
 64c:	00008780 	andeq	r8, r0, r0, lsl #15
 650:	002d4c15 	eoreq	r4, sp, r5, lsl ip
 654:	2f020402 	svccs	0x00020402
 658:	02040200 	andeq	r0, r4, #0, 4
 65c:	04020049 	streq	r0, [r2], #-73	; 0x49
 660:	062e0601 	strteq	r0, [lr], -r1, lsl #12
 664:	0006026b 	andeq	r0, r6, fp, ror #4
 668:	00f10101 	rscseq	r0, r1, r1, lsl #2
 66c:	00020000 	andeq	r0, r2, r0
 670:	000000d0 	ldrdeq	r0, [r0], -r0	; <UNPREDICTABLE>
 674:	0efb0102 	cdpeq	1, 15, cr0, cr11, cr2, {0}
 678:	0101000d 	tsteq	r1, sp
 67c:	00000101 	andeq	r0, r0, r1, lsl #2
 680:	00000100 	andeq	r0, r0, r0, lsl #2
 684:	62696c01 	rsbvs	r6, r9, #256	; 0x100
 688:	752f0063 	strvc	r0, [pc, #-99]!	; 62d <_start-0x79d3>
 68c:	6c2f7273 	sfmvs	f7, 4, [pc], #-460	; 4c8 <_start-0x7b38>
 690:	6c61636f 	stclvs	3, cr6, [r1], #-444	; 0xfffffe44
 694:	6c65432f 	stclvs	3, cr4, [r5], #-188	; 0xffffff44
 698:	2f72616c 	svccs	0x0072616c
 69c:	2d6d7261 	sfmcs	f7, 2, [sp, #-388]!	; 0xfffffe7c
 6a0:	656e6f6e 	strbvs	r6, [lr, #-3950]!	; 0xf6e
 6a4:	6261652d 	rsbvs	r6, r1, #188743680	; 0xb400000
 6a8:	2e342f69 	cdpcs	15, 3, cr2, cr4, cr9, {3}
 6ac:	2d332e38 	ldccs	14, cr2, [r3, #-224]!	; 0xffffff20
 6b0:	37317363 	ldrcc	r7, [r1, -r3, ror #6]!
 6b4:	6c2f6530 	cfstr32vs	mvfx6, [pc], #-192	; 5fc <_start-0x7a04>
 6b8:	672f6269 	strvs	r6, [pc, -r9, ror #4]!
 6bc:	612f6363 	teqvs	pc, r3, ror #6
 6c0:	6e2d6d72 	mcrvs	13, 1, r6, cr13, cr2, {3}
 6c4:	2d656e6f 	stclcs	14, cr6, [r5, #-444]!	; 0xfffffe44
 6c8:	69626165 	stmdbvs	r2!, {r0, r2, r5, r6, r8, sp, lr}^
 6cc:	382e342f 	stmdacc	lr!, {r0, r1, r2, r3, r5, sl, ip, sp}
 6d0:	692f332e 	stmdbvs	pc!, {r1, r2, r3, r5, r8, r9, ip, sp}	; <UNPREDICTABLE>
 6d4:	756c636e 	strbvc	r6, [ip, #-878]!	; 0x36e
 6d8:	2f006564 	svccs	0x00006564
 6dc:	2f727375 	svccs	0x00727375
 6e0:	61636f6c 	cmnvs	r3, ip, ror #30
 6e4:	65432f6c 	strbvs	r2, [r3, #-3948]	; 0xf6c
 6e8:	72616c6c 	rsbvc	r6, r1, #108, 24	; 0x6c00
 6ec:	6d72612f 	ldfvse	f6, [r2, #-188]!	; 0xffffff44
 6f0:	6e6f6e2d 	cdpvs	14, 6, cr6, cr15, cr13, {1}
 6f4:	61652d65 	cmnvs	r5, r5, ror #26
 6f8:	342f6962 	strtcc	r6, [pc], #-2402	; 700 <_start-0x7900>
 6fc:	332e382e 	teqcc	lr, #3014656	; 0x2e0000
 700:	3173632d 	cmncc	r3, sp, lsr #6
 704:	2f653037 	svccs	0x00653037
 708:	2d6d7261 	sfmcs	f7, 2, [sp, #-388]!	; 0xfffffe7c
 70c:	656e6f6e 	strbvs	r6, [lr, #-3950]!	; 0xf6e
 710:	6261652d 	rsbvs	r6, r1, #188743680	; 0xb400000
 714:	6e692f69 	cdpvs	15, 6, cr2, cr9, cr9, {3}
 718:	64756c63 	ldrbtvs	r6, [r5], #-3171	; 0xc63
 71c:	73000065 	movwvc	r0, #101	; 0x65
 720:	656c7274 	strbvs	r7, [ip, #-628]!	; 0x274
 724:	00632e6e 	rsbeq	r2, r3, lr, ror #28
 728:	73000001 	movwvc	r0, #1
 72c:	65646474 	strbvs	r6, [r4, #-1140]!	; 0x474
 730:	00682e66 	rsbeq	r2, r8, r6, ror #28
 734:	73000002 	movwvc	r0, #2
 738:	6e697274 	mcrvs	2, 3, r7, cr9, cr4, {3}
 73c:	00682e67 	rsbeq	r2, r8, r7, ror #28
 740:	00000003 	andeq	r0, r0, r3
 744:	b4020500 	strlt	r0, [r2], #-1280	; 0x500
 748:	14000087 	strne	r0, [r0], #-135	; 0x87
 74c:	04020014 	streq	r0, [r2], #-20
 750:	004a0602 	subeq	r0, sl, r2, lsl #12
 754:	2e010402 	cdpcs	4, 0, cr0, cr1, cr2, {0}
 758:	04026906 	streq	r6, [r2], #-2310	; 0x906
 75c:	dc010100 	stfles	f0, [r1], {-0}
 760:	02000001 	andeq	r0, r0, #1
 764:	0000df00 	andeq	sp, r0, r0, lsl #30
 768:	fb010200 	blx	40f72 <__bss_end__+0x37432>
 76c:	01000d0e 	tsteq	r0, lr, lsl #26
 770:	00010101 	andeq	r0, r1, r1, lsl #2
 774:	00010000 	andeq	r0, r1, r0
 778:	696c0100 	stmdbvs	ip!, {r8}^
 77c:	2f006362 	svccs	0x00006362
 780:	2f727375 	svccs	0x00727375
 784:	61636f6c 	cmnvs	r3, ip, ror #30
 788:	65432f6c 	strbvs	r2, [r3, #-3948]	; 0xf6c
 78c:	72616c6c 	rsbvc	r6, r1, #108, 24	; 0x6c00
 790:	6d72612f 	ldfvse	f6, [r2, #-188]!	; 0xffffff44
 794:	6e6f6e2d 	cdpvs	14, 6, cr6, cr15, cr13, {1}
 798:	61652d65 	cmnvs	r5, r5, ror #26
 79c:	342f6962 	strtcc	r6, [pc], #-2402	; 7a4 <_start-0x785c>
 7a0:	332e382e 	teqcc	lr, #3014656	; 0x2e0000
 7a4:	3173632d 	cmncc	r3, sp, lsr #6
 7a8:	2f653037 	svccs	0x00653037
 7ac:	2f62696c 	svccs	0x0062696c
 7b0:	2f636367 	svccs	0x00636367
 7b4:	2d6d7261 	sfmcs	f7, 2, [sp, #-388]!	; 0xfffffe7c
 7b8:	656e6f6e 	strbvs	r6, [lr, #-3950]!	; 0xf6e
 7bc:	6261652d 	rsbvs	r6, r1, #188743680	; 0xb400000
 7c0:	2e342f69 	cdpcs	15, 3, cr2, cr4, cr9, {3}
 7c4:	2f332e38 	svccs	0x00332e38
 7c8:	6c636e69 	stclvs	14, cr6, [r3], #-420	; 0xfffffe5c
 7cc:	00656475 	rsbeq	r6, r5, r5, ror r4
 7d0:	6573552f 	ldrbvs	r5, [r3, #-1327]!	; 0x52f
 7d4:	622f7372 	eorvs	r7, pc, #-939524095	; 0xc8000001
 7d8:	6e616972 	mcrvs	9, 3, r6, cr1, cr2, {3}
 7dc:	2f6e756a 	svccs	0x006e756a
 7e0:	6b736544 	blvs	1cd9cf8 <__bss_end__+0x1cd01b8>
 7e4:	2f706f74 	svccs	0x00706f74
 7e8:	6f686373 	svcvs	0x00686373
 7ec:	572f6c6f 	strpl	r6, [pc, -pc, ror #24]!
 7f0:	65746e69 	ldrbvs	r6, [r4, #-3689]!	; 0xe69
 7f4:	32393172 	eorscc	r3, r9, #-2147483620	; 0x8000001c
 7f8:	53432f30 	movtpl	r2, #16176	; 0x3f30
 7fc:	45303431 	ldrmi	r3, [r0, #-1073]!	; 0x431
 800:	3173632f 	cmncc	r3, pc, lsr #6
 804:	2d653034 	stclcs	0, cr3, [r5, #-208]!	; 0xffffff30
 808:	69773032 	ldmdbvs	r7!, {r1, r4, r5, ip, sp}^
 80c:	696c2f6e 	stmdbvs	ip!, {r1, r2, r3, r5, r6, r8, r9, sl, fp, sp}^
 810:	00697062 	rsbeq	r7, r9, r2, rrx
 814:	2d617600 	stclcs	6, cr7, [r1, #-0]
 818:	6e697270 	mcrvs	2, 3, r7, cr9, cr0, {3}
 81c:	632e6b74 	teqvs	lr, #116, 22	; 0x1d000
 820:	00000100 	andeq	r0, r0, r0, lsl #2
 824:	61647473 	smcvs	18243	; 0x4743
 828:	682e6772 	stmdavs	lr!, {r1, r4, r5, r6, r8, r9, sl, sp, lr}
 82c:	00000200 	andeq	r0, r0, r0, lsl #4
 830:	2e697072 	mcrcs	0, 3, r7, cr9, cr2, {3}
 834:	00030068 	andeq	r0, r3, r8, rrx
 838:	75623c00 	strbvc	r3, [r2, #-3072]!	; 0xc00
 83c:	2d746c69 	ldclcs	12, cr6, [r4, #-420]!	; 0xfffffe5c
 840:	003e6e69 	eorseq	r6, lr, r9, ror #28
 844:	00000000 	andeq	r0, r0, r0
 848:	d4020500 	strle	r0, [r2], #-1280	; 0x500
 84c:	03000087 	movweq	r0, #135	; 0x87
 850:	a5010126 	strge	r0, [r1, #-294]	; 0x126
 854:	002d3113 	eoreq	r3, sp, r3, lsl r1
 858:	2f020402 	svccs	0x00020402
 85c:	02040200 	andeq	r0, r4, #0, 4
 860:	0402002d 	streq	r0, [r2], #-45	; 0x2d
 864:	02002f02 	andeq	r2, r0, #2, 30
 868:	4c2d0104 	stfmis	f0, [sp], #-16
 86c:	4b14304c 	blmi	50c9a4 <__bss_end__+0x502e64>
 870:	02004f2f 	andeq	r4, r0, #47, 30	; 0xbc
 874:	00670204 	rsbeq	r0, r7, r4, lsl #4
 878:	65010402 	strvs	r0, [r1, #-1026]	; 0x402
 87c:	a0304d4c 	eorsge	r4, r0, ip, asr #26
 880:	0230312f 	eorseq	r3, r0, #-1073741813	; 0xc000000b
 884:	2d841626 	stccs	6, cr1, [r4, #152]	; 0x98
 888:	0402002c 	streq	r0, [r2], #-44	; 0x2c
 88c:	02003001 	andeq	r3, r0, #1
 890:	06330104 	ldrteq	r0, [r3], -r4, lsl #2
 894:	04020066 	streq	r0, [r2], #-102	; 0x66
 898:	02002e01 	andeq	r2, r0, #1, 28
 89c:	08060104 	stmdaeq	r6, {r2, r8}
 8a0:	032f6721 	teqeq	pc, #8650752	; 0x840000
 8a4:	13038273 	movwne	r8, #12915	; 0x3273
 8a8:	0402002e 	streq	r0, [r2], #-46	; 0x2e
 8ac:	002e0601 	eoreq	r0, lr, r1, lsl #12
 8b0:	06010402 	streq	r0, [r1], -r2, lsl #8
 8b4:	034b6a9f 	movteq	r6, #47775	; 0xba9f
 8b8:	21032e67 	tstcs	r3, r7, ror #28
 8bc:	0402002e 	streq	r0, [r2], #-46	; 0x2e
 8c0:	002e0601 	eoreq	r0, lr, r1, lsl #12
 8c4:	06010402 	streq	r0, [r1], -r2, lsl #8
 8c8:	0402009f 	streq	r0, [r2], #-159	; 0x9f
 8cc:	f3bd6a01 	vtbl.8	d6, {d13-d15}, d1
 8d0:	087fa603 	ldmdaeq	pc!, {r0, r1, r9, sl, sp, pc}^	; <UNPREDICTABLE>
 8d4:	02002f20 	andeq	r2, r0, #32, 30	; 0x80
 8d8:	4a060104 	bmi	180cf0 <__bss_end__+0x1771b0>
 8dc:	2f4bbb06 	svccs	0x004bbb06
 8e0:	f200da03 	vpmax.s8	d13, d0, d3
 8e4:	31484c83 	smlalbbcc	r4, r8, r3, ip
 8e8:	4b842f2f 	blmi	fe10c5ac <__bss_end__+0xfe102a6c>
 8ec:	314d2d2f 	cmpcc	sp, pc, lsr #26
 8f0:	00832f30 	addeq	r2, r3, r0, lsr pc
 8f4:	2c010402 	cfstrscs	mvf0, [r1], {2}
 8f8:	040200be 	streq	r0, [r2], #-190	; 0xbe
 8fc:	064a0601 	strbeq	r0, [sl], -r1, lsl #12
 900:	163602bc 			; <UNDEFINED> instruction: 0x163602bc
 904:	08ba0e03 	ldmeq	sl!, {r0, r1, r9, sl, fp}
 908:	21083021 	tstcs	r8, r1, lsr #32
 90c:	30210831 	eorcc	r0, r1, r1, lsr r8
 910:	4b302108 	blmi	c08d38 <__bss_end__+0xbff1f8>
 914:	30210830 	eorcc	r0, r1, r0, lsr r8
 918:	002f31d9 	ldrdeq	r3, [pc], -r9	; <UNPREDICTABLE>
 91c:	65010402 	strvs	r0, [r1, #-1026]	; 0x402
 920:	02040200 	andeq	r0, r4, #0, 4
 924:	02004a06 	andeq	r4, r0, #24576	; 0x6000
 928:	03060104 	movweq	r0, #24836	; 0x6104
 92c:	02006642 	andeq	r6, r0, #69206016	; 0x4200000
 930:	66060204 	strvs	r0, [r6], -r4, lsl #4
 934:	00c20306 	sbceq	r0, r2, r6, lsl #6
 938:	1002684a 	andne	r6, r2, sl, asr #16
 93c:	43010100 	movwmi	r0, #4352	; 0x1100
 940:	02000000 	andeq	r0, r0, #0
 944:	00002900 	andeq	r2, r0, r0, lsl #18
 948:	fb010200 	blx	41152 <__bss_end__+0x37612>
 94c:	01000d0e 	tsteq	r0, lr, lsl #26
 950:	00010101 	andeq	r0, r1, r1, lsl #2
 954:	00010000 	andeq	r0, r1, r0
 958:	73630100 	cmnvc	r3, #0, 2
 95c:	65303431 	ldrvs	r3, [r0, #-1073]!	; 0x431
 960:	6372732d 	cmnvs	r2, #-1275068416	; 0xb4000000
 964:	61630000 	cmnvs	r3, r0
 968:	2e656863 	cdpcs	8, 6, cr6, cr5, cr3, {3}
 96c:	00010063 	andeq	r0, r1, r3, rrx
 970:	05000000 	streq	r0, [r0, #-0]
 974:	008cc402 	addeq	ip, ip, r2, lsl #8
 978:	30141400 	andscc	r1, r4, r0, lsl #8
 97c:	31144e2f 	tstcc	r4, pc, lsr #28
 980:	0004022f 	andeq	r0, r4, pc, lsr #4
 984:	00930101 	addseq	r0, r3, r1, lsl #2
 988:	00020000 	andeq	r0, r2, r0
 98c:	0000007d 	andeq	r0, r0, sp, ror r0
 990:	0efb0102 	cdpeq	1, 15, cr0, cr11, cr2, {0}
 994:	0101000d 	tsteq	r1, sp
 998:	00000101 	andeq	r0, r0, r1, lsl #2
 99c:	00000100 	andeq	r0, r0, r0, lsl #2
 9a0:	31736301 	cmncc	r3, r1, lsl #6
 9a4:	2d653034 	stclcs	0, cr3, [r5, #-208]!	; 0xffffff30
 9a8:	00637273 	rsbeq	r7, r3, r3, ror r2
 9ac:	6573552f 	ldrbvs	r5, [r3, #-1327]!	; 0x52f
 9b0:	622f7372 	eorvs	r7, pc, #-939524095	; 0xc8000001
 9b4:	6e616972 	mcrvs	9, 3, r6, cr1, cr2, {3}
 9b8:	2f6e756a 	svccs	0x006e756a
 9bc:	6b736544 	blvs	1cd9ed4 <__bss_end__+0x1cd0394>
 9c0:	2f706f74 	svccs	0x00706f74
 9c4:	6f686373 	svcvs	0x00686373
 9c8:	572f6c6f 	strpl	r6, [pc, -pc, ror #24]!
 9cc:	65746e69 	ldrbvs	r6, [r4, #-3689]!	; 0xe69
 9d0:	32393172 	eorscc	r3, r9, #-2147483620	; 0x8000001c
 9d4:	53432f30 	movtpl	r2, #16176	; 0x3f30
 9d8:	45303431 	ldrmi	r3, [r0, #-1073]!	; 0x431
 9dc:	3173632f 	cmncc	r3, pc, lsr #6
 9e0:	2d653034 	stclcs	0, cr3, [r5, #-208]!	; 0xffffff30
 9e4:	69773032 	ldmdbvs	r7!, {r1, r4, r5, ip, sp}^
 9e8:	696c2f6e 	stmdbvs	ip!, {r1, r2, r3, r5, r6, r8, r9, sl, fp, sp}^
 9ec:	00697062 	rsbeq	r7, r9, r2, rrx
 9f0:	656c6300 	strbvs	r6, [ip, #-768]!	; 0x300
 9f4:	722d6e61 	eorvc	r6, sp, #1552	; 0x610
 9f8:	6f6f6265 	svcvs	0x006f6265
 9fc:	00632e74 	rsbeq	r2, r3, r4, ror lr
 a00:	72000001 	andvc	r0, r0, #1
 a04:	682e6970 	stmdavs	lr!, {r4, r5, r6, r8, fp, sp, lr}
 a08:	00000200 	andeq	r0, r0, r0, lsl #4
 a0c:	02050000 	andeq	r0, r5, #0
 a10:	00008ce4 	andeq	r8, r0, r4, ror #25
 a14:	4b832f15 	blmi	fe0cc670 <__bss_end__+0xfe0c2b30>
 a18:	01000602 	tsteq	r0, r2, lsl #12
 a1c:	00009601 	andeq	r9, r0, r1, lsl #12
 a20:	77000200 	strvc	r0, [r0, -r0, lsl #4]
 a24:	02000000 	andeq	r0, r0, #0
 a28:	0d0efb01 	vstreq	d15, [lr, #-4]
 a2c:	01010100 	mrseq	r0, (UNDEF: 17)
 a30:	00000001 	andeq	r0, r0, r1
 a34:	01000001 	tsteq	r0, r1
 a38:	34317363 	ldrtcc	r7, [r1], #-867	; 0x363
 a3c:	732d6530 	teqvc	sp, #48, 10	; 0xc000000
 a40:	2f006372 	svccs	0x00006372
 a44:	72657355 	rsbvc	r7, r5, #1409286145	; 0x54000001
 a48:	72622f73 	rsbvc	r2, r2, #460	; 0x1cc
 a4c:	6a6e6169 	bvs	1b98ff8 <__bss_end__+0x1b8f4b8>
 a50:	442f6e75 	strtmi	r6, [pc], #-3701	; a58 <_start-0x75a8>
 a54:	746b7365 	strbtvc	r7, [fp], #-869	; 0x365
 a58:	732f706f 	teqvc	pc, #111	; 0x6f
 a5c:	6f6f6863 	svcvs	0x006f6863
 a60:	69572f6c 	ldmdbvs	r7, {r2, r3, r5, r6, r8, r9, sl, fp, sp}^
 a64:	7265746e 	rsbvc	r7, r5, #1845493760	; 0x6e000000
 a68:	30323931 	eorscc	r3, r2, r1, lsr r9
 a6c:	3153432f 	cmpcc	r3, pc, lsr #6
 a70:	2f453034 	svccs	0x00453034
 a74:	34317363 	ldrtcc	r7, [r1], #-867	; 0x363
 a78:	322d6530 	eorcc	r6, sp, #48, 10	; 0xc000000
 a7c:	6e697730 	mcrvs	7, 3, r7, cr9, cr0, {1}
 a80:	62696c2f 	rsbvs	r6, r9, #12032	; 0x2f00
 a84:	00006970 	andeq	r6, r0, r0, ror r9
 a88:	61747363 	cmnvs	r4, r3, ror #6
 a8c:	632e7472 	teqvs	lr, #1912602624	; 0x72000000
 a90:	00000100 	andeq	r0, r0, r0, lsl #2
 a94:	2e697072 	mcrcs	0, 3, r7, cr9, cr2, {3}
 a98:	00020068 	andeq	r0, r2, r8, rrx
 a9c:	05000000 	streq	r0, [r0, #-0]
 aa0:	008d0c02 	addeq	r0, sp, r2, lsl #24
 aa4:	31321400 	teqcc	r2, r0, lsl #8
 aa8:	002f2d2f 	eoreq	r2, pc, pc, lsr #26
 aac:	49010402 	stmdbmi	r1, {r1, sl}
 ab0:	06022f4d 	streq	r2, [r2], -sp, asr #30
 ab4:	99010100 	stmdbls	r1, {r8}
 ab8:	02000000 	andeq	r0, r0, #0
 abc:	00007700 	andeq	r7, r0, r0, lsl #14
 ac0:	fb010200 	blx	412ca <__bss_end__+0x3778a>
 ac4:	01000d0e 	tsteq	r0, lr, lsl #26
 ac8:	00010101 	andeq	r0, r1, r1, lsl #2
 acc:	00010000 	andeq	r0, r1, r0
 ad0:	73630100 	cmnvc	r3, #0, 2
 ad4:	65303431 	ldrvs	r3, [r0, #-1073]!	; 0x431
 ad8:	6372732d 	cmnvs	r2, #-1275068416	; 0xb4000000
 adc:	73552f00 	cmpvc	r5, #0, 30
 ae0:	2f737265 	svccs	0x00737265
 ae4:	61697262 	cmnvs	r9, r2, ror #4
 ae8:	6e756a6e 	vsubvs.f32	s13, s10, s29
 aec:	7365442f 	cmnvc	r5, #788529152	; 0x2f000000
 af0:	706f746b 	rsbvc	r7, pc, fp, ror #8
 af4:	6863732f 	stmdavs	r3!, {r0, r1, r2, r3, r5, r8, r9, ip, sp, lr}^
 af8:	2f6c6f6f 	svccs	0x006c6f6f
 afc:	746e6957 	strbtvc	r6, [lr], #-2391	; 0x957
 b00:	39317265 	ldmdbcc	r1!, {r0, r2, r5, r6, r9, ip, sp, lr}
 b04:	432f3032 	teqmi	pc, #50	; 0x32
 b08:	30343153 	eorscc	r3, r4, r3, asr r1
 b0c:	73632f45 	cmnvc	r3, #276	; 0x114
 b10:	65303431 	ldrvs	r3, [r0, #-1073]!	; 0x431
 b14:	7730322d 	ldrvc	r3, [r0, -sp, lsr #4]!
 b18:	6c2f6e69 	stcvs	14, cr6, [pc], #-420	; 97c <_start-0x7684>
 b1c:	69706269 	ldmdbvs	r0!, {r0, r3, r5, r6, r9, sp, lr}^
 b20:	65720000 	ldrbvs	r0, [r2, #-0]!
 b24:	746f6f62 	strbtvc	r6, [pc], #-3938	; b2c <_start-0x74d4>
 b28:	0100632e 	tsteq	r0, lr, lsr #6
 b2c:	70720000 	rsbsvc	r0, r2, r0
 b30:	00682e69 	rsbeq	r2, r8, r9, ror #28
 b34:	00000002 	andeq	r0, r0, r2
 b38:	40020500 	andmi	r0, r2, r0, lsl #10
 b3c:	0300008d 	movweq	r0, #141	; 0x8d
 b40:	3114010d 	tstcc	r4, sp, lsl #2
 b44:	2f15852f 	svccs	0x0015852f
 b48:	672f4d4b 	strvs	r4, [pc, -fp, asr #26]!
 b4c:	02675235 	rsbeq	r5, r7, #1342177283	; 0x50000003
 b50:	01010010 	tsteq	r1, r0, lsl r0
 b54:	000000a3 	andeq	r0, r0, r3, lsr #1
 b58:	00760002 	rsbseq	r0, r6, r2
 b5c:	01020000 	mrseq	r0, (UNDEF: 2)
 b60:	000d0efb 	strdeq	r0, [sp], -fp
 b64:	01010101 	tsteq	r1, r1, lsl #2
 b68:	01000000 	mrseq	r0, (UNDEF: 0)
 b6c:	63010000 	movwvs	r0, #4096	; 0x1000
 b70:	30343173 	eorscc	r3, r4, r3, ror r1
 b74:	72732d65 	rsbsvc	r2, r3, #6464	; 0x1940
 b78:	552f0063 	strpl	r0, [pc, #-99]!	; b1d <_start-0x74e3>
 b7c:	73726573 	cmnvc	r2, #482344960	; 0x1cc00000
 b80:	6972622f 	ldmdbvs	r2!, {r0, r1, r2, r3, r5, r9, sp, lr}^
 b84:	756a6e61 	strbvc	r6, [sl, #-3681]!	; 0xe61
 b88:	65442f6e 	strbvs	r2, [r4, #-3950]	; 0xf6e
 b8c:	6f746b73 	svcvs	0x00746b73
 b90:	63732f70 	cmnvs	r3, #112, 30	; 0x1c0
 b94:	6c6f6f68 	stclvs	15, cr6, [pc], #-416	; 9fc <_start-0x7604>
 b98:	6e69572f 	cdpvs	7, 6, cr5, cr9, cr15, {1}
 b9c:	31726574 	cmncc	r2, r4, ror r5
 ba0:	2f303239 	svccs	0x00303239
 ba4:	34315343 	ldrtcc	r5, [r1], #-835	; 0x343
 ba8:	632f4530 	teqvs	pc, #48, 10	; 0xc000000
 bac:	30343173 	eorscc	r3, r4, r3, ror r1
 bb0:	30322d65 	eorscc	r2, r2, r5, ror #26
 bb4:	2f6e6977 	svccs	0x006e6977
 bb8:	7062696c 	rsbvc	r6, r2, ip, ror #18
 bbc:	74000069 	strvc	r0, [r0], #-105	; 0x69
 bc0:	72656d69 	rsbvc	r6, r5, #6720	; 0x1a40
 bc4:	0100632e 	tsteq	r0, lr, lsr #6
 bc8:	70720000 	rsbsvc	r0, r2, r0
 bcc:	00682e69 	rsbeq	r2, r8, r9, ror #28
 bd0:	00000002 	andeq	r0, r0, r2
 bd4:	b4020500 	strlt	r0, [r2], #-1280	; 0x500
 bd8:	1600008d 	strne	r0, [r0], -sp, lsl #1
 bdc:	002d2f13 	eoreq	r2, sp, r3, lsl pc
 be0:	06010402 	streq	r0, [r1], -r2, lsl #8
 be4:	3168062e 	cmncc	r8, lr, lsr #12
 be8:	324d4b2f 	subcc	r4, sp, #48128	; 0xbc00
 bec:	4c4b3031 	mcrrmi	0, 3, r3, fp, cr1
 bf0:	2f2f6a2f 	svccs	0x002f6a2f
 bf4:	08022f84 	stmdaeq	r2, {r2, r7, r8, r9, sl, fp, sp}
 bf8:	77010100 	strvc	r0, [r1, -r0, lsl #2]
 bfc:	02000000 	andeq	r0, r0, #0
 c00:	00003b00 	andeq	r3, r0, r0, lsl #22
 c04:	fb010200 	blx	4140e <__bss_end__+0x378ce>
 c08:	01000d0e 	tsteq	r0, lr, lsl #26
 c0c:	00010101 	andeq	r0, r1, r1, lsl #2
 c10:	00010000 	andeq	r0, r1, r0
 c14:	73630100 	cmnvc	r3, #0, 2
 c18:	65303431 	ldrvs	r3, [r0, #-1073]!	; 0x431
 c1c:	6372732d 	cmnvs	r2, #-1275068416	; 0xb4000000
 c20:	61750000 	cmnvs	r5, r0
 c24:	632e7472 	teqvs	lr, #1912602624	; 0x72000000
 c28:	00000000 	andeq	r0, r0, r0
 c2c:	6f697067 	svcvs	0x00697067
 c30:	0100682e 	tsteq	r0, lr, lsr #16
 c34:	70720000 	rsbsvc	r0, r2, r0
 c38:	00682e69 	rsbeq	r2, r8, r9, ror #28
 c3c:	00000000 	andeq	r0, r0, r0
 c40:	88020500 	stmdahi	r2, {r8, sl}
 c44:	0300008e 	movweq	r0, #142	; 0x8e
 c48:	2f0100d6 	svccs	0x000100d6
 c4c:	665e0367 	ldrbvs	r0, [lr], -r7, ror #6
 c50:	6d673330 	stclvs	3, cr3, [r7, #-192]!	; 0xffffff40
 c54:	6730d830 			; <UNDEFINED> instruction: 0x6730d830
 c58:	67676767 	strbvs	r6, [r7, -r7, ror #14]!
 c5c:	820a0368 	andhi	r0, sl, #104, 6	; 0xa0000001
 c60:	69676730 	stmdbvs	r7!, {r4, r5, r8, r9, sl, sp, lr}^
 c64:	4c6a672f 	stclmi	7, cr6, [sl], #-188	; 0xffffff44
 c68:	2f2fc167 	svccs	0x002fc167
 c6c:	49682f30 	stmdbmi	r8!, {r4, r5, r8, r9, sl, fp, sp}^
 c70:	00020230 	andeq	r0, r2, r0, lsr r2
 c74:	00a50101 	adceq	r0, r5, r1, lsl #2
 c78:	00020000 	andeq	r0, r2, r0
 c7c:	00000032 	andeq	r0, r0, r2, lsr r0
 c80:	0efb0102 	cdpeq	1, 15, cr0, cr11, cr2, {0}
 c84:	0101000d 	tsteq	r1, sp
 c88:	00000101 	andeq	r0, r0, r1, lsl #2
 c8c:	00000100 	andeq	r0, r0, r0, lsl #2
 c90:	31736301 	cmncc	r3, r1, lsl #6
 c94:	2d653034 	stclcs	0, cr3, [r5, #-208]!	; 0xffffff30
 c98:	00637273 	rsbeq	r7, r3, r3, ror r2
 c9c:	69706700 	ldmdbvs	r0!, {r8, r9, sl, sp, lr}^
 ca0:	00632e6f 	rsbeq	r2, r3, pc, ror #28
 ca4:	67000000 	strvs	r0, [r0, -r0]
 ca8:	2e6f6970 	mcrcs	9, 3, r6, cr15, cr0, {3}
 cac:	00010068 	andeq	r0, r1, r8, rrx
 cb0:	05000000 	streq	r0, [r0, #-0]
 cb4:	008fdc02 	addeq	sp, pc, r2, lsl #24
 cb8:	013e0300 	teqeq	lr, r0, lsl #6
 cbc:	0869504e 	stmdaeq	r9!, {r1, r2, r3, r6, ip, lr}^
 cc0:	67676721 	strbvs	r6, [r7, -r1, lsr #14]!
 cc4:	32676767 	rsbcc	r6, r7, #27000832	; 0x19c0000
 cc8:	dc22084b 	stcle	8, cr0, [r2], #-300	; 0xfffffed4
 ccc:	4e135131 	mrcmi	1, 0, r5, cr3, cr1, {1}
 cd0:	31be3050 			; <UNDEFINED> instruction: 0x31be3050
 cd4:	4f4d1350 	svcmi	0x004d1350
 cd8:	504cc030 	subpl	ip, ip, r0, lsr r0
 cdc:	67210869 	strvs	r0, [r1, -r9, ror #16]!
 ce0:	67676767 	strbvs	r6, [r7, -r7, ror #14]!
 ce4:	084b3267 	stmdaeq	fp, {r0, r1, r2, r5, r6, r9, ip, sp}^
 ce8:	504ca421 	subpl	sl, ip, r1, lsr #8
 cec:	0369842f 	cmneq	r9, #788529152	; 0x2f000000
 cf0:	0c038275 	sfmeq	f0, 1, [r3], {117}	; 0x75
 cf4:	4e304d2e 	cdpmi	13, 3, cr4, cr0, cr14, {1}
 cf8:	4a7f9803 	bmi	1fe6d0c <__bss_end__+0x1fdd1cc>
 cfc:	504e1351 	subpl	r1, lr, r1, asr r3
 d00:	1350a530 	cmpne	r0, #48, 10	; 0xc000000
 d04:	03304f4d 	teqeq	r0, #308	; 0x134
 d08:	6aba00c2 	bvs	fee81018 <__bss_end__+0xfee774d8>
 d0c:	2108696b 	tstcs	r8, fp, ror #18
 d10:	67676767 	strbvs	r6, [r7, -r7, ror #14]!
 d14:	4b326767 	blmi	c9aab8 <__bss_end__+0xc90f78>
 d18:	0c022208 	sfmeq	f2, 4, [r2], {8}
 d1c:	86010100 	strhi	r0, [r1], -r0, lsl #2
 d20:	02000000 	andeq	r0, r0, #0
 d24:	00007200 	andeq	r7, r0, r0, lsl #4
 d28:	fb010200 	blx	41532 <__bss_end__+0x379f2>
 d2c:	01000d0e 	tsteq	r0, lr, lsl #26
 d30:	00010101 	andeq	r0, r1, r1, lsl #2
 d34:	00010000 	andeq	r0, r1, r0
 d38:	696c0100 	stmdbvs	ip!, {r8}^
 d3c:	2f006362 	svccs	0x00006362
 d40:	72657355 	rsbvc	r7, r5, #1409286145	; 0x54000001
 d44:	72622f73 	rsbvc	r2, r2, #460	; 0x1cc
 d48:	6a6e6169 	bvs	1b992f4 <__bss_end__+0x1b8f7b4>
 d4c:	442f6e75 	strtmi	r6, [pc], #-3701	; d54 <_start-0x72ac>
 d50:	746b7365 	strbtvc	r7, [fp], #-869	; 0x365
 d54:	732f706f 	teqvc	pc, #111	; 0x6f
 d58:	6f6f6863 	svcvs	0x006f6863
 d5c:	69572f6c 	ldmdbvs	r7, {r2, r3, r5, r6, r8, r9, sl, fp, sp}^
 d60:	7265746e 	rsbvc	r7, r5, #1845493760	; 0x6e000000
 d64:	30323931 	eorscc	r3, r2, r1, lsr r9
 d68:	3153432f 	cmpcc	r3, pc, lsr #6
 d6c:	2f453034 	svccs	0x00453034
 d70:	34317363 	ldrtcc	r7, [r1], #-867	; 0x363
 d74:	322d6530 	eorcc	r6, sp, #48, 10	; 0xc000000
 d78:	6e697730 	mcrvs	7, 3, r7, cr9, cr0, {1}
 d7c:	62696c2f 	rsbvs	r6, r9, #12032	; 0x2f00
 d80:	00006970 	andeq	r6, r0, r0, ror r9
 d84:	63747570 	cmnvs	r4, #112, 10	; 0x1c000000
 d88:	2e726168 	rpwcssz	f6, f2, #0.0
 d8c:	00010063 	andeq	r0, r1, r3, rrx
 d90:	69707200 	ldmdbvs	r0!, {r9, ip, sp, lr}^
 d94:	0200682e 	andeq	r6, r0, #3014656	; 0x2e0000
 d98:	00000000 	andeq	r0, r0, r0
 d9c:	93880205 	orrls	r0, r8, #1342177280	; 0x50000000
 da0:	4a140000 	bmi	500da8 <__bss_end__+0x4f7268>
 da4:	01000602 	tsteq	r0, r2, lsl #12
 da8:	Address 0x0000000000000da8 is out of bounds.


Disassembly of section .debug_str:

00000000 <.debug_str>:
   0:	6c637963 	stclvs	9, cr7, [r3], #-396	; 0xfffffe74
   4:	65705f65 	ldrbvs	r5, [r0, #-3941]!	; 0xf65
   8:	69625f72 	stmdbvs	r2!, {r1, r4, r5, r6, r8, r9, sl, fp, ip, lr}^
   c:	69730074 	ldmdbvs	r3!, {r2, r4, r5, r6}^
  10:	745f657a 	ldrbvc	r6, [pc], #-1402	; 18 <_start-0x7fe8>
  14:	5f777300 	svcpl	0x00777300
  18:	74726175 	ldrbtvc	r6, [r2], #-373	; 0x175
  1c:	696e695f 	stmdbvs	lr!, {r0, r1, r2, r3, r4, r6, r8, fp, sp, lr}^
  20:	65685f74 	strbvs	r5, [r8, #-3956]!	; 0xf74
  24:	7265706c 	rsbvc	r7, r5, #108	; 0x6c
  28:	554e4700 	strbpl	r4, [lr, #-1792]	; 0x700
  2c:	34204320 	strtcc	r4, [r0], #-800	; 0x320
  30:	332e382e 	teqcc	lr, #3014656	; 0x2e0000
  34:	636d2d20 	cmnvs	sp, #32, 26	; 0x800
  38:	613d7570 	teqvs	sp, r0, ror r5
  3c:	31316d72 	teqcc	r1, r2, ror sp
  40:	7a6a3637 	bvc	1a8d924 <__bss_end__+0x1a83de4>
  44:	20732d66 	rsbscs	r2, r3, r6, ror #26
  48:	75746d2d 	ldrbvc	r6, [r4, #-3373]!	; 0xd2d
  4c:	613d656e 	teqvs	sp, lr, ror #10
  50:	31316d72 	teqcc	r1, r2, ror sp
  54:	7a6a3637 	bvc	1a8d938 <__bss_end__+0x1a83df8>
  58:	20732d66 	rsbscs	r2, r3, r6, ror #26
  5c:	6467672d 	strbtvs	r6, [r7], #-1837	; 0x72d
  60:	4f2d2062 	svcmi	0x002d2062
  64:	732d2067 	teqvc	sp, #103	; 0x67
  68:	673d6474 			; <UNDEFINED> instruction: 0x673d6474
  6c:	3939756e 	ldmdbcc	r9!, {r1, r2, r3, r5, r6, r8, sl, ip, sp, lr}
  70:	66662d20 	strbtvs	r2, [r6], -r0, lsr #26
  74:	73656572 	cmnvc	r5, #478150656	; 0x1c800000
  78:	646e6174 	strbtvs	r6, [lr], #-372	; 0x174
  7c:	00676e69 	rsbeq	r6, r7, r9, ror #28
  80:	6d746f6e 	ldclvs	15, cr6, [r4, #-440]!	; 0xfffffe48
  84:	006e6961 	rsbeq	r6, lr, r1, ror #18
  88:	65672d33 	strbvs	r2, [r7, #-3379]!	; 0xd33
  8c:	742d7374 	strtvc	r7, [sp], #-884	; 0x374
  90:	6f656d69 	svcvs	0x00656d69
  94:	742d7475 	strtvc	r7, [sp], #-1141	; 0x475
  98:	2e747365 	cdpcs	3, 7, cr7, cr4, cr5, {3}
  9c:	61750063 	cmnvs	r5, r3, rrx
  a0:	695f7472 	ldmdbvs	pc, {r1, r4, r5, r6, sl, ip, sp, lr}^	; <UNPREDICTABLE>
  a4:	0074696e 	rsbseq	r6, r4, lr, ror #18
  a8:	69736e75 	ldmdbvs	r3!, {r0, r2, r4, r5, r6, r9, sl, fp, sp, lr}^
  ac:	64656e67 	strbtvs	r6, [r5], #-3687	; 0xe67
  b0:	61686320 	cmnvs	r8, r0, lsr #6
  b4:	65640072 	strbvs	r0, [r4, #-114]!	; 0x72
  b8:	5f79616c 	svcpl	0x0079616c
  bc:	6300736d 	movwvs	r7, #877	; 0x36d
  c0:	6e61656c 	cdpvs	5, 6, cr6, cr1, cr12, {3}
  c4:	6265725f 	rsbvs	r7, r5, #-268435451	; 0xf0000005
  c8:	00746f6f 	rsbseq	r6, r4, pc, ror #30
  cc:	726f6873 	rsbvc	r6, pc, #7536640	; 0x730000
  d0:	6e752074 	mrcvs	0, 3, r2, cr5, cr4, {3}
  d4:	6e676973 	mcrvs	9, 3, r6, cr7, cr3, {3}
  d8:	69206465 	stmdbvs	r0!, {r0, r2, r5, r6, sl, sp, lr}
  dc:	7300746e 	movwvc	r7, #1134	; 0x46e
  e0:	61755f77 	cmnvs	r5, r7, ror pc
  e4:	745f7472 	ldrbvc	r7, [pc], #-1138	; ec <_start-0x7f14>
  e8:	465f5f00 	ldrbmi	r5, [pc], -r0, lsl #30
  ec:	54434e55 	strbpl	r4, [r3], #-3669	; 0xe55
  f0:	5f4e4f49 	svcpl	0x004e4f49
  f4:	6f6c005f 	svcvs	0x006c005f
  f8:	6c20676e 	stcvs	7, cr6, [r0], #-440	; 0xfffffe48
  fc:	20676e6f 	rsbcs	r6, r7, pc, ror #28
 100:	69736e75 	ldmdbvs	r3!, {r0, r2, r4, r5, r6, r9, sl, fp, sp, lr}^
 104:	64656e67 	strbtvs	r6, [r5], #-3687	; 0xe67
 108:	746e6920 	strbtvc	r6, [lr], #-2336	; 0x920
 10c:	6e697500 	cdpvs	5, 6, cr7, cr9, cr0, {0}
 110:	745f3874 	ldrbvc	r3, [pc], #-2164	; 118 <_start-0x7ee8>
 114:	75616200 	strbvc	r6, [r1, #-512]!	; 0x200
 118:	69730064 	ldmdbvs	r3!, {r2, r5, r6}^
 11c:	7974657a 	ldmdbvc	r4!, {r1, r3, r4, r5, r6, r8, sl, sp, lr}^
 120:	6c006570 	cfstr32vs	mvfx6, [r0], {112}	; 0x70
 124:	20676e6f 	rsbcs	r6, r7, pc, ror #28
 128:	676e6f6c 	strbvs	r6, [lr, -ip, ror #30]!
 12c:	746e6920 	strbtvc	r6, [lr], #-2336	; 0x920
 130:	6f687300 	svcvs	0x00687300
 134:	69207472 	stmdbvs	r0!, {r1, r4, r5, r6, sl, ip, sp, lr}
 138:	6500746e 	strvs	r7, [r0, #-1134]	; 0x46e
 13c:	6c62616e 	stfvse	f6, [r2], #-440	; 0xfffffe48
 140:	61635f65 	cmnvs	r3, r5, ror #30
 144:	00656863 	rsbeq	r6, r5, r3, ror #16
 148:	755f7773 	ldrbvc	r7, [pc, #-1907]	; fffff9dd <__bss_end__+0xffff5e9d>
 14c:	5f747261 	svcpl	0x00747261
 150:	73746567 	cmnvc	r4, #432013312	; 0x19c00000
 154:	6d69745f 	cfstrdvs	mvd7, [r9, #-380]!	; 0xfffffe84
 158:	74756f65 	ldrbtvc	r6, [r5], #-3941	; 0xf65
 15c:	6e697500 	cdpvs	5, 6, cr7, cr9, cr0, {0}
 160:	5f323374 	svcpl	0x00323374
 164:	74730074 	ldrbtvc	r0, [r3], #-116	; 0x74
 168:	6e656c72 	mcrvs	12, 3, r6, cr5, cr2, {3}
 16c:	73552f00 	cmpvc	r5, #0, 30
 170:	2f737265 	svccs	0x00737265
 174:	61697262 	cmnvs	r9, r2, ror #4
 178:	6e756a6e 	vsubvs.f32	s13, s10, s29
 17c:	7365442f 	cmnvc	r5, #788529152	; 0x2f000000
 180:	706f746b 	rsbvc	r7, pc, fp, ror #8
 184:	6863732f 	stmdavs	r3!, {r0, r1, r2, r3, r5, r8, r9, ip, sp, lr}^
 188:	2f6c6f6f 	svccs	0x006c6f6f
 18c:	746e6957 	strbtvc	r6, [lr], #-2391	; 0x957
 190:	39317265 	ldmdbcc	r1!, {r0, r2, r5, r6, r9, ip, sp, lr}
 194:	432f3032 	teqmi	pc, #50	; 0x32
 198:	30343153 	eorscc	r3, r4, r3, asr r1
 19c:	73632f45 	cmnvc	r3, #276	; 0x114
 1a0:	65303431 	ldrvs	r3, [r0, #-1073]!	; 0x431
 1a4:	7730322d 	ldrvc	r3, [r0, -sp, lsr #4]!
 1a8:	6c2f6e69 	stcvs	14, cr6, [pc], #-420	; c <_start-0x7ff4>
 1ac:	2f736261 	svccs	0x00736261
 1b0:	65642d38 	strbvs	r2, [r4, #-3384]!	; 0xd38
 1b4:	65636976 	strbvs	r6, [r3, #-2422]!	; 0x976
 1b8:	746e692d 	strbtvc	r6, [lr], #-2349	; 0x92d
 1bc:	75727265 	ldrbvc	r7, [r2, #-613]!	; 0x265
 1c0:	2f737470 	svccs	0x00737470
 1c4:	742d3030 	strtvc	r3, [sp], #-48	; 0x30
 1c8:	2d747365 	ldclcs	3, cr7, [r4, #-404]!	; 0xfffffe6c
 1cc:	752d7773 	strvc	r7, [sp, #-1907]!	; 0x773
 1d0:	00747261 	rsbseq	r7, r4, r1, ror #4
 1d4:	5f637963 	svcpl	0x00637963
 1d8:	5f726570 	svcpl	0x00726570
 1dc:	00746962 	rsbseq	r6, r4, r2, ror #18
 1e0:	74697277 	strbtvc	r7, [r9], #-631	; 0x277
 1e4:	79635f65 	stmdbvc	r3!, {r0, r2, r5, r6, r8, r9, sl, fp, ip, lr}^
 1e8:	6e755f63 	cdpvs	15, 7, cr5, cr5, cr3, {3}
 1ec:	006c6974 	rsbeq	r6, ip, r4, ror r9
 1f0:	755f7773 	ldrbvc	r7, [pc, #-1907]	; fffffa85 <__bss_end__+0xffff5f45>
 1f4:	5f747261 	svcpl	0x00747261
 1f8:	63746567 	cmnvs	r4, #432013312	; 0x19c00000
 1fc:	6d69745f 	cfstrdvs	mvd7, [r9, #-380]!	; 0xfffffe84
 200:	74756f65 	ldrbtvc	r6, [r5], #-3941	; 0xf65
 204:	5f777300 	svcpl	0x00777300
 208:	74726175 	ldrbtvc	r6, [r2], #-373	; 0x175
 20c:	7465675f 	strbtvc	r6, [r5], #-1887	; 0x75f
 210:	6e755f73 	mrcvs	15, 3, r5, cr5, cr3, {3}
 214:	006c6974 	rsbeq	r6, ip, r4, ror r9
 218:	61765f5f 	cmnvs	r6, pc, asr pc
 21c:	73696c5f 	cmnvc	r9, #24320	; 0x5f00
 220:	77730074 			; <UNDEFINED> instruction: 0x77730074
 224:	7261755f 	rsbvc	r7, r1, #398458880	; 0x17c00000
 228:	65675f74 	strbvs	r5, [r7, #-3956]!	; 0xf74
 22c:	64006374 	strvs	r6, [r0], #-884	; 0x374
 230:	76697265 	strbtvc	r7, [r9], -r5, ror #4
 234:	64006465 	strvs	r6, [r0], #-1125	; 0x465
 238:	79616c65 	stmdbvc	r1!, {r0, r2, r5, r6, sl, fp, sp, lr}^
 23c:	79636e5f 	stmdbvc	r3!, {r0, r1, r2, r3, r4, r6, r9, sl, fp, sp, lr}^
 240:	73656c63 	cmnvc	r5, #25344	; 0x6300
 244:	6d697400 	cfstrdvs	mvd7, [r9, #-0]
 248:	74756f65 	ldrbtvc	r6, [r5], #-3941	; 0xf65
 24c:	6573755f 	ldrbvs	r7, [r3, #-1375]!	; 0x55f
 250:	77730063 	ldrbvc	r0, [r3, -r3, rrx]!
 254:	7261755f 	rsbvc	r7, r1, #398458880	; 0x17c00000
 258:	75705f74 	ldrbvc	r5, [r0, #-3956]!	; 0xf74
 25c:	73006374 	movwvc	r6, #884	; 0x374
 260:	61755f77 	cmnvs	r5, r7, ror pc
 264:	705f7472 	subsvc	r7, pc, r2, ror r4	; <UNPREDICTABLE>
 268:	006b7475 	rsbeq	r7, fp, r5, ror r4
 26c:	705f6176 	subsvc	r6, pc, r6, ror r1	; <UNPREDICTABLE>
 270:	746e6972 	strbtvc	r6, [lr], #-2418	; 0x972
 274:	7773006b 	ldrbvc	r0, [r3, -fp, rrx]!
 278:	7261755f 	rsbvc	r7, r1, #398458880	; 0x17c00000
 27c:	72705f74 	rsbsvc	r5, r0, #116, 30	; 0x1d0
 280:	6b746e69 	blvs	1d1bc2c <__bss_end__+0x1d120ec>
 284:	69706700 	ldmdbvs	r0!, {r8, r9, sl, sp, lr}^
 288:	65725f6f 	ldrbvs	r5, [r2, #-3951]!	; 0xf6f
 28c:	73006461 	movwvc	r6, #1121	; 0x461
 290:	61752d77 	cmnvs	r5, r7, ror sp
 294:	632e7472 	teqvs	lr, #1912602624	; 0x72000000
 298:	61686300 	cmnvs	r8, r0, lsl #6
 29c:	6e695f72 	mcrvs	15, 3, r5, cr9, cr2, {3}
 2a0:	675f5f00 	ldrbvs	r5, [pc, -r0, lsl #30]
 2a4:	5f63756e 	svcpl	0x0063756e
 2a8:	6c5f6176 	ldfvse	f6, [pc], {118}	; 0x76
 2ac:	00747369 	rsbseq	r7, r4, r9, ror #6
 2b0:	74756f5f 	ldrbtvc	r6, [r5], #-3935	; 0xf5f
 2b4:	6d697400 	cfstrdvs	mvd7, [r9, #-0]
 2b8:	675f7265 	ldrbvs	r7, [pc, -r5, ror #4]
 2bc:	755f7465 	ldrbvc	r7, [pc, #-1125]	; fffffe5f <__bss_end__+0xffff631f>
 2c0:	5f636573 	svcpl	0x00636573
 2c4:	00776172 	rsbseq	r6, r7, r2, ror r1
 2c8:	7479626e 	ldrbtvc	r6, [r9], #-622	; 0x26e
 2cc:	67007365 	strvs	r7, [r0, -r5, ror #6]
 2d0:	5f6f6970 	svcpl	0x006f6970
 2d4:	74697277 	strbtvc	r7, [r9], #-631	; 0x277
 2d8:	73750065 	cmnvc	r5, #101	; 0x65
 2dc:	745f6365 	ldrbvc	r6, [pc], #-869	; 2e4 <_start-0x7d1c>
 2e0:	6f656d69 	svcvs	0x00656d69
 2e4:	67007475 	smlsdxvs	r0, r5, r4, r7
 2e8:	5f6f6970 	svcpl	0x006f6970
 2ec:	5f746573 	svcpl	0x00746573
 2f0:	75706e69 	ldrbvc	r6, [r0, #-3689]!	; 0xe69
 2f4:	77730074 			; <UNDEFINED> instruction: 0x77730074
 2f8:	7261755f 	rsbvc	r7, r1, #398458880	; 0x17c00000
 2fc:	65675f74 	strbvs	r5, [r7, #-3956]!	; 0xf74
 300:	755f7374 	ldrbvc	r7, [pc, #-884]	; ffffff94 <__bss_end__+0xffff6454>
 304:	6c69746e 	cfstrdvs	mvd7, [r9], #-440	; 0xfffffe48
 308:	6b6c625f 	blvs	1b18c8c <__bss_end__+0x1b0f14c>
 30c:	615f5f00 	cmpvs	pc, r0, lsl #30
 310:	70670070 	rsbvc	r0, r7, r0, ror r0
 314:	735f6f69 	cmpvc	pc, #420	; 0x1a4
 318:	6f5f7465 	svcvs	0x005f7465
 31c:	75707475 	ldrbvc	r7, [r0, #-1141]!	; 0x475
 320:	61770074 	cmnvs	r7, r4, ror r0
 324:	755f7469 	ldrbvc	r7, [pc, #-1129]	; fffffec3 <__bss_end__+0xffff6383>
 328:	6c69746e 	cfstrdvs	mvd7, [r9], #-440	; 0xfffffe48
 32c:	6573755f 	ldrbvs	r7, [r3, #-1375]!	; 0x55f
 330:	72610063 	rsbvc	r0, r1, #99	; 0x63
 334:	6c007367 	stcvs	3, cr7, [r0], {103}	; 0x67
 338:	2f636269 	svccs	0x00636269
 33c:	6e697270 	mcrvs	2, 3, r7, cr9, cr0, {3}
 340:	632e6b74 	teqvs	lr, #116, 22	; 0x1d000
 344:	73552f00 	cmpvc	r5, #0, 30
 348:	2f737265 	svccs	0x00737265
 34c:	61697262 	cmnvs	r9, r2, ror #4
 350:	6e756a6e 	vsubvs.f32	s13, s10, s29
 354:	7365442f 	cmnvc	r5, #788529152	; 0x2f000000
 358:	706f746b 	rsbvc	r7, pc, fp, ror #8
 35c:	6863732f 	stmdavs	r3!, {r0, r1, r2, r3, r5, r8, r9, ip, sp, lr}^
 360:	2f6c6f6f 	svccs	0x006c6f6f
 364:	746e6957 	strbtvc	r6, [lr], #-2391	; 0x957
 368:	39317265 	ldmdbcc	r1!, {r0, r2, r5, r6, r9, ip, sp, lr}
 36c:	432f3032 	teqmi	pc, #50	; 0x32
 370:	30343153 	eorscc	r3, r4, r3, asr r1
 374:	73632f45 	cmnvc	r3, #276	; 0x114
 378:	65303431 	ldrvs	r3, [r0, #-1073]!	; 0x431
 37c:	7730322d 	ldrvc	r3, [r0, -sp, lsr #4]!
 380:	6c2f6e69 	stcvs	14, cr6, [pc], #-420	; 1e4 <_start-0x7e1c>
 384:	69706269 	ldmdbvs	r0!, {r0, r3, r5, r6, r9, sp, lr}^
 388:	62696c00 	rsbvs	r6, r9, #0, 24
 38c:	75702f63 	ldrbvc	r2, [r0, #-3939]!	; 0xf63
 390:	632e6b74 	teqvs	lr, #116, 22	; 0x1d000
 394:	746e6900 	strbtvc	r6, [lr], #-2304	; 0x900
 398:	616e7265 	cmnvs	lr, r5, ror #4
 39c:	75705f6c 	ldrbvc	r5, [r0, #-3948]!	; 0xf6c
 3a0:	72006b74 	andvc	r6, r0, #116, 22	; 0x1d000
 3a4:	705f6970 	subsvc	r6, pc, r0, ror r9	; <UNPREDICTABLE>
 3a8:	68637475 	stmdavs	r3!, {r0, r2, r4, r5, r6, sl, ip, sp, lr}^
 3ac:	6c007261 	sfmvs	f7, 4, [r0], {97}	; 0x61
 3b0:	2f636269 	svccs	0x00636269
 3b4:	6c727473 	cfldrdvs	mvd7, [r2], #-460	; 0xfffffe34
 3b8:	632e6e65 	teqvs	lr, #1616	; 0x650
 3bc:	67656e00 	strbvs	r6, [r5, -r0, lsl #28]!
 3c0:	7200705f 	andvc	r7, r0, #95	; 0x5f
 3c4:	72657665 	rsbvc	r7, r5, #105906176	; 0x6500000
 3c8:	69006573 	stmdbvs	r0, {r0, r1, r4, r5, r6, r8, sl, sp, lr}
 3cc:	67696473 			; <UNDEFINED> instruction: 0x67696473
 3d0:	70007469 	andvc	r7, r0, r9, ror #8
 3d4:	5f737475 	svcpl	0x00737475
 3d8:	62007066 	andvs	r7, r0, #102	; 0x66
 3dc:	00657361 	rsbeq	r7, r5, r1, ror #6
 3e0:	6e676973 	mcrvs	9, 3, r6, cr7, cr3, {3}
 3e4:	705f6465 	subsvc	r6, pc, r5, ror #8
 3e8:	62696c00 	rsbvs	r6, r9, #0, 24
 3ec:	61762f63 	cmnvs	r6, r3, ror #30
 3f0:	6972702d 	ldmdbvs	r2!, {r0, r2, r3, r5, ip, sp, lr}^
 3f4:	2e6b746e 	cdpcs	4, 6, cr7, cr11, cr14, {3}
 3f8:	70720063 	rsbsvc	r0, r2, r3, rrx
 3fc:	65735f69 	ldrbvs	r5, [r3, #-3945]!	; 0xf69
 400:	756f5f74 	strbvc	r5, [pc, #-3956]!	; fffff494 <__bss_end__+0xffff5954>
 404:	74757074 	ldrbtvc	r7, [r5], #-116	; 0x74
 408:	64697700 	strbtvs	r7, [r9], #-1792	; 0x700
 40c:	70006874 	andvc	r6, r0, r4, ror r8
 410:	5f637475 	svcpl	0x00637475
 414:	65007066 	strvs	r7, [r0, #-102]	; 0x66
 418:	0074696d 	rsbseq	r6, r4, sp, ror #18
 41c:	61736964 	cmnvs	r3, r4, ror #18
 420:	5f656c62 	svcpl	0x00656c62
 424:	68636163 	stmdavs	r3!, {r0, r1, r5, r6, r8, sp, lr}^
 428:	73630065 	cmnvc	r3, #101	; 0x65
 42c:	65303431 	ldrvs	r3, [r0, #-1073]!	; 0x431
 430:	6372732d 	cmnvs	r2, #-1275068416	; 0xb4000000
 434:	6361632f 	cmnvs	r1, #-1140850688	; 0xbc000000
 438:	632e6568 	teqvs	lr, #104, 10	; 0x1a000000
 43c:	69707200 	ldmdbvs	r0!, {r9, ip, sp, lr}^
 440:	6265725f 	rsbvs	r7, r5, #-268435451	; 0xf0000005
 444:	00746f6f 	rsbseq	r6, r4, pc, ror #30
 448:	34317363 	ldrtcc	r7, [r1], #-867	; 0x363
 44c:	732d6530 	teqvc	sp, #48, 10	; 0xc000000
 450:	632f6372 	teqvs	pc, #-939524095	; 0xc8000001
 454:	6e61656c 	cdpvs	5, 6, cr6, cr1, cr12, {3}
 458:	6265722d 	rsbvs	r7, r5, #-805306366	; 0xd0000002
 45c:	2e746f6f 	cdpcs	15, 7, cr6, cr4, cr15, {3}
 460:	73630063 	cmnvc	r3, #99	; 0x63
 464:	65303431 	ldrvs	r3, [r0, #-1073]!	; 0x431
 468:	6372732d 	cmnvs	r2, #-1275068416	; 0xb4000000
 46c:	7473632f 	ldrbtvc	r6, [r3], #-815	; 0x32f
 470:	2e747261 	cdpcs	2, 7, cr7, cr4, cr1, {3}
 474:	5f5f0063 	svcpl	0x005f0063
 478:	5f737362 	svcpl	0x00737362
 47c:	72617473 	rsbvc	r7, r1, #1929379840	; 0x73000000
 480:	005f5f74 	subseq	r5, pc, r4, ror pc	; <UNPREDICTABLE>
 484:	73625f5f 	cmnvc	r2, #380	; 0x17c
 488:	6e655f73 	mcrvs	15, 3, r5, cr5, cr3, {3}
 48c:	005f5f64 	subseq	r5, pc, r4, ror #30
 490:	5f737362 	svcpl	0x00737362
 494:	00646e65 	rsbeq	r6, r4, r5, ror #28
 498:	7473635f 	ldrbtvc	r6, [r3], #-863	; 0x35f
 49c:	00747261 	rsbseq	r7, r4, r1, ror #4
 4a0:	755f7461 	ldrbvc	r7, [pc, #-1121]	; 47 <_start-0x7fb9>
 4a4:	5f726573 	svcpl	0x00726573
 4a8:	6576656c 	ldrbvs	r6, [r6, #-1388]!	; 0x56c
 4ac:	4d50006c 	ldclmi	0, cr0, [r0, #-432]	; 0xfffffe50
 4b0:	5341505f 	movtpl	r5, #4191	; 0x105f
 4b4:	524f5753 	subpl	r5, pc, #21757952	; 0x14c0000
 4b8:	73630044 	cmnvc	r3, #68	; 0x44
 4bc:	65303431 	ldrvs	r3, [r0, #-1073]!	; 0x431
 4c0:	6372732d 	cmnvs	r2, #-1275068416	; 0xb4000000
 4c4:	6265722f 	rsbvs	r7, r5, #-268435454	; 0xf0000002
 4c8:	2e746f6f 	cdpcs	15, 7, cr6, cr4, cr15, {3}
 4cc:	4d500063 	ldclmi	0, cr0, [r0, #-396]	; 0xfffffe74
 4d0:	5453525f 	ldrbpl	r5, [r3], #-607	; 0x25f
 4d4:	52575f43 	subspl	r5, r7, #268	; 0x10c
 4d8:	5f474643 	svcpl	0x00474643
 4dc:	4c4c5546 	cfstr64mi	mvdx5, [ip], {70}	; 0x46
 4e0:	5345525f 	movtpl	r5, #21087	; 0x525f
 4e4:	50005445 	andpl	r5, r0, r5, asr #8
 4e8:	44575f4d 	ldrbmi	r5, [r7], #-3917	; 0xf4d
 4ec:	7300474f 	movwvc	r4, #1871	; 0x74f
 4f0:	755f7465 	ldrbvc	r7, [pc, #-1125]	; 93 <_start-0x7f6d>
 4f4:	5f726573 	svcpl	0x00726573
 4f8:	6576656c 	ldrbvs	r6, [r6, #-1388]!	; 0x56c
 4fc:	5550006c 	ldrbpl	r0, [r0, #-108]	; 0x6c
 500:	00323354 	eorseq	r3, r2, r4, asr r3
 504:	525f4d50 	subspl	r4, pc, #80, 26	; 0x1400
 508:	00435453 	subeq	r5, r3, r3, asr r4
 50c:	72737063 	rsbsvc	r7, r3, #99	; 0x63
 510:	6c656400 	cfstrdvs	mvd6, [r5], #-0
 514:	735f7961 	cmpvc	pc, #1589248	; 0x184000
 518:	63006365 	movwvs	r6, #869	; 0x365
 51c:	30343173 	eorscc	r3, r4, r3, ror r1
 520:	72732d65 	rsbsvc	r2, r3, #6464	; 0x1940
 524:	69742f63 	ldmdbvs	r4!, {r0, r1, r5, r6, r8, r9, sl, fp, sp}^
 528:	2e72656d 	cdpcs	5, 7, cr6, cr2, cr13, {3}
 52c:	45470063 	strbmi	r0, [r7, #-99]	; 0x63
 530:	00323354 	eorseq	r3, r2, r4, asr r3
 534:	6b636974 	blvs	18dab0c <__bss_end__+0x18d0fcc>
 538:	65640073 	strbvs	r0, [r4, #-115]!	; 0x73
 53c:	5f79616c 	svcpl	0x0079616c
 540:	6c637963 	stclvs	9, cr7, [r3], #-396	; 0xfffffe74
 544:	64007365 	strvs	r7, [r0], #-869	; 0x365
 548:	79616c65 	stmdbvc	r1!, {r0, r2, r5, r6, sl, fp, sp, lr}^
 54c:	0073755f 	rsbseq	r7, r3, pc, asr r5
 550:	656d6974 	strbvs	r6, [sp, #-2420]!	; 0x974
 554:	65675f72 	strbvs	r5, [r7, #-3954]!	; 0xf72
 558:	73755f74 	cmnvc	r5, #116, 30	; 0x1d0
 55c:	41006365 	tstmi	r0, r5, ror #6
 560:	4d5f5855 	ldclmi	8, cr5, [pc, #-340]	; 414 <_start-0x7bec>
 564:	434d5f55 	movtmi	r5, #57173	; 0xdf55
 568:	45525f52 	ldrbmi	r5, [r2, #-3922]	; 0xf52
 56c:	55410047 	strbpl	r0, [r1, #-71]	; 0x47
 570:	554d5f58 	strbpl	r5, [sp, #-3928]	; 0xf58
 574:	5f4f495f 	svcpl	0x004f495f
 578:	00474552 	subeq	r4, r7, r2, asr r5
 57c:	5f585541 	svcpl	0x00585541
 580:	4d5f554d 	cfldr64mi	mvdx5, [pc, #-308]	; 454 <_start-0x7bac>
 584:	525f5253 	subspl	r5, pc, #805306373	; 0x30000005
 588:	47004745 	strmi	r4, [r0, -r5, asr #14]
 58c:	5f4f4950 	svcpl	0x004f4950
 590:	434e5546 	movtmi	r5, #58694	; 0xe546
 594:	544c415f 	strbpl	r4, [ip], #-351	; 0x15f
 598:	61750030 	cmnvs	r5, r0, lsr r0
 59c:	635f7472 	cmpvs	pc, #1912602624	; 0x72000000
 5a0:	675f6e61 	ldrbvs	r6, [pc, -r1, ror #28]
 5a4:	00637465 	rsbeq	r7, r3, r5, ror #8
 5a8:	5f585541 	svcpl	0x00585541
 5ac:	435f554d 	cmpmi	pc, #322961408	; 0x13400000
 5b0:	5f4c544e 	svcpl	0x004c544e
 5b4:	00474552 	subeq	r4, r7, r2, asr r5
 5b8:	74726175 	ldrbtvc	r6, [r2], #-373	; 0x175
 5bc:	7361685f 	cmnvc	r1, #6225920	; 0x5f0000
 5c0:	7461645f 	strbtvc	r6, [r1], #-1119	; 0x45f
 5c4:	65640061 	strbvs	r0, [r4, #-97]!	; 0x61
 5c8:	61625f76 	smcvs	9718	; 0x25f6
 5cc:	65697272 	strbvs	r7, [r9, #-626]!	; 0x272
 5d0:	50470072 	subpl	r0, r7, r2, ror r0
 5d4:	465f4f49 	ldrbmi	r4, [pc], -r9, asr #30
 5d8:	5f434e55 	svcpl	0x00434e55
 5dc:	5054554f 	subspl	r5, r4, pc, asr #10
 5e0:	47005455 	smlsdmi	r0, r5, r4, r5
 5e4:	5f4f4950 	svcpl	0x004f4950
 5e8:	434e5546 	movtmi	r5, #58694	; 0xe546
 5ec:	544c415f 	strbpl	r4, [ip], #-351	; 0x15f
 5f0:	50470031 	subpl	r0, r7, r1, lsr r0
 5f4:	465f4f49 	ldrbmi	r4, [pc], -r9, asr #30
 5f8:	5f434e55 	svcpl	0x00434e55
 5fc:	32544c41 	subscc	r4, r4, #16640	; 0x4100
 600:	49504700 	ldmdbmi	r0, {r8, r9, sl, lr}^
 604:	55465f4f 	strbpl	r5, [r6, #-3919]	; 0xf4f
 608:	415f434e 	cmpmi	pc, lr, asr #6
 60c:	0033544c 	eorseq	r5, r3, ip, asr #8
 610:	4f495047 	svcmi	0x00495047
 614:	4e55465f 	mrcmi	6, 2, r4, cr5, cr15, {2}
 618:	4c415f43 	mcrrmi	15, 4, r5, r1, cr3
 61c:	41003554 	tstmi	r0, r4, asr r5
 620:	4d5f5855 	ldclmi	8, cr5, [pc, #-340]	; 4d4 <_start-0x7b2c>
 624:	45495f55 	strbmi	r5, [r9, #-3925]	; 0xf55
 628:	45525f52 	ldrbmi	r5, [r2, #-3922]	; 0xf52
 62c:	75700047 	ldrbvc	r0, [r0, #-71]!	; 0x47
 630:	00323374 	eorseq	r3, r2, r4, ror r3
 634:	5f585541 	svcpl	0x00585541
 638:	495f554d 	ldmdbmi	pc, {r0, r2, r3, r6, r8, sl, ip, lr}^	; <UNPREDICTABLE>
 63c:	525f5249 	subspl	r5, pc, #-1879048188	; 0x90000004
 640:	67004745 	strvs	r4, [r0, -r5, asr #14]
 644:	5f6f6970 	svcpl	0x006f6970
 648:	636e7566 	cmnvs	lr, #427819008	; 0x19800000
 64c:	7500745f 	strvc	r7, [r0, #-1119]	; 0x45f
 650:	5f747261 	svcpl	0x00747261
 654:	5f6e6163 	svcpl	0x006e6163
 658:	63747570 	cmnvs	r4, #112, 10	; 0x1c000000
 65c:	58554100 	ldmdapl	r5, {r8, lr}^
 660:	414e455f 	cmpmi	lr, pc, asr r5
 664:	53454c42 	movtpl	r4, #23618	; 0x5c42
 668:	58554100 	ldmdapl	r5, {r8, lr}^
 66c:	5152495f 	cmppl	r2, pc, asr r9
 670:	58554100 	ldmdapl	r5, {r8, lr}^
 674:	5f554d5f 	svcpl	0x00554d5f
 678:	44554142 	ldrbmi	r4, [r5], #-322	; 0x142
 67c:	4745525f 	smlsldmi	r5, r5, pc, r2	; <UNPREDICTABLE>
 680:	58554100 	ldmdapl	r5, {r8, lr}^
 684:	5f554d5f 	svcpl	0x00554d5f
 688:	54415453 	strbpl	r5, [r1], #-1107	; 0x453
 68c:	4745525f 	smlsldmi	r5, r5, pc, r2	; <UNPREDICTABLE>
 690:	49504700 	ldmdbmi	r0, {r8, r9, sl, lr}^
 694:	55465f4f 	strbpl	r5, [r6, #-3919]	; 0xf4f
 698:	415f434e 	cmpmi	pc, lr, asr #6
 69c:	0034544c 	eorseq	r5, r4, ip, asr #8
 6a0:	6f697067 	svcvs	0x00697067
 6a4:	7465735f 	strbtvc	r7, [r5], #-863	; 0x35f
 6a8:	6e75665f 	mrcvs	6, 3, r6, cr5, cr15, {2}
 6ac:	6f697463 	svcvs	0x00697463
 6b0:	5541006e 	strbpl	r0, [r1, #-110]	; 0x6e
 6b4:	554d5f58 	strbpl	r5, [sp, #-3928]	; 0xf58
 6b8:	5243535f 	subpl	r5, r3, #2080374785	; 0x7c000001
 6bc:	48435441 	stmdami	r3, {r0, r6, sl, ip, lr}^
 6c0:	58554100 	ldmdapl	r5, {r8, lr}^
 6c4:	5f554d5f 	svcpl	0x00554d5f
 6c8:	5f52434c 	svcpl	0x0052434c
 6cc:	00474552 	subeq	r4, r7, r2, asr r5
 6d0:	4f495047 	svcmi	0x00495047
 6d4:	4e55465f 	mrcmi	6, 2, r4, cr5, cr15, {2}
 6d8:	4e495f43 	cdpmi	15, 4, cr5, cr9, cr3, {2}
 6dc:	00545550 	subseq	r5, r4, r0, asr r5
 6e0:	5f585541 	svcpl	0x00585541
 6e4:	4c5f554d 	cfldr64mi	mvdx5, [pc], {77}	; 0x4d
 6e8:	525f5253 	subspl	r5, pc, #805306373	; 0x30000005
 6ec:	75004745 	strvc	r4, [r0, #-1861]	; 0x745
 6f0:	5f747261 	svcpl	0x00747261
 6f4:	63746567 	cmnvs	r4, #432013312	; 0x19c00000
 6f8:	7973615f 	ldmdbvc	r3!, {r0, r1, r2, r3, r4, r6, r8, sp, lr}^
 6fc:	6700636e 	strvs	r6, [r0, -lr, ror #6]
 700:	32337465 	eorscc	r7, r3, #1694498816	; 0x65000000
 704:	69706700 	ldmdbvs	r0!, {r8, r9, sl, sp, lr}^
 708:	6c635f6f 	stclvs	15, cr5, [r3], #-444	; 0xfffffe44
 70c:	67003072 	smlsdxvs	r0, r2, r0, r3
 710:	5f6f6970 	svcpl	0x006f6970
 714:	30746573 	rsbscc	r6, r4, r3, ror r5
 718:	69706700 	ldmdbvs	r0!, {r8, r9, sl, sp, lr}^
 71c:	73665f6f 	cmnvc	r6, #444	; 0x1bc
 720:	00306c65 	eorseq	r6, r0, r5, ror #24
 724:	4c435047 	mcrrmi	0, 4, r5, r3, cr7
 728:	67003152 	smlsdvs	r0, r2, r1, r3
 72c:	5f6f6970 	svcpl	0x006f6970
 730:	5f746573 	svcpl	0x00746573
 734:	47006e6f 	strmi	r6, [r0, -pc, ror #28]
 738:	56454c50 			; <UNDEFINED> instruction: 0x56454c50
 73c:	50470031 	subpl	r0, r7, r1, lsr r0
 740:	31544553 	cmpcc	r4, r3, asr r5
 744:	43504700 	cmpmi	r0, #0, 14
 748:	0030524c 	eorseq	r5, r0, ip, asr #4
 74c:	45535047 	ldrbmi	r5, [r3, #-71]	; 0x47
 750:	67003054 	smlsdvs	r0, r4, r0, r3
 754:	5f6f6970 	svcpl	0x006f6970
 758:	5f746573 	svcpl	0x00746573
 75c:	0066666f 	rsbeq	r6, r6, pc, ror #12
 760:	53465047 	movtpl	r5, #24647	; 0x6047
 764:	00314c45 	eorseq	r4, r1, r5, asr #24
 768:	636e7566 	cmnvs	lr, #427819008	; 0x19800000
 76c:	67657200 	strbvs	r7, [r5, -r0, lsl #4]!
 770:	6c65735f 	stclvs	3, cr7, [r5], #-380	; 0xfffffe84
 774:	00746365 	rsbseq	r6, r4, r5, ror #6
 778:	6d746962 	ldclvs	9, cr6, [r4, #-392]!	; 0xfffffe78
 77c:	006b7361 	rsbeq	r7, fp, r1, ror #6
 780:	6f697067 	svcvs	0x00697067
 784:	6700632e 	strvs	r6, [r0, -lr, lsr #6]
 788:	5f6f6970 	svcpl	0x006f6970
 78c:	00676572 	rsbeq	r6, r7, r2, ror r5
 790:	53465047 	movtpl	r5, #24647	; 0x6047
 794:	00304c45 	eorseq	r4, r0, r5, asr #24
 798:	454c5047 	strbmi	r5, [ip, #-71]	; 0x47
 79c:	47003056 	smlsdmi	r0, r6, r0, r3
 7a0:	45534650 	ldrbmi	r4, [r3, #-1616]	; 0x650
 7a4:	4700324c 	strmi	r3, [r0, -ip, asr #4]
 7a8:	45534650 	ldrbmi	r4, [r3, #-1616]	; 0x650
 7ac:	4700334c 	strmi	r3, [r0, -ip, asr #6]
 7b0:	45534650 	ldrbmi	r4, [r3, #-1616]	; 0x650
 7b4:	4700344c 	strmi	r3, [r0, -ip, asr #8]
 7b8:	45534650 	ldrbmi	r4, [r3, #-1616]	; 0x650
 7bc:	6900354c 	stmdbvs	r0, {r2, r3, r6, r8, sl, ip, sp}
 7c0:	7265746e 	rsbvc	r7, r5, #1845493760	; 0x6e000000
 7c4:	5f6c616e 	svcpl	0x006c616e
 7c8:	63747570 	cmnvs	r4, #112, 10	; 0x1c000000
 7cc:	00726168 	rsbseq	r6, r2, r8, ror #2
 7d0:	6362696c 	cmnvs	r2, #108, 18	; 0x1b0000
 7d4:	7475702f 	ldrbtvc	r7, [r5], #-47	; 0x2f
 7d8:	72616863 	rsbvc	r6, r1, #6488064	; 0x630000
 7dc:	Address 0x00000000000007dc is out of bounds.


Disassembly of section .debug_frame:

00000000 <.debug_frame>:
   0:	0000000c 	andeq	r0, r0, ip
   4:	ffffffff 			; <UNDEFINED> instruction: 0xffffffff
   8:	7c020001 	stcvc	0, cr0, [r2], {1}
   c:	000d0c0e 	andeq	r0, sp, lr, lsl #24
  10:	00000028 	andeq	r0, r0, r8, lsr #32
  14:	00000000 	andeq	r0, r0, r0
  18:	00008010 	andeq	r8, r0, r0, lsl r0
  1c:	00000118 	andeq	r0, r0, r8, lsl r1
  20:	84200e42 	strthi	r0, [r0], #-3650	; 0xe42
  24:	86078508 	strhi	r8, [r7], -r8, lsl #10
  28:	88058706 	stmdahi	r5, {r1, r2, r8, r9, sl, pc}
  2c:	8a038904 	bhi	e2444 <__bss_end__+0xd8904>
  30:	42018e02 	andmi	r8, r1, #2, 28
  34:	4208b00e 	andmi	fp, r8, #14
  38:	0008b80e 	andeq	fp, r8, lr, lsl #16
  3c:	0000000c 	andeq	r0, r0, ip
  40:	ffffffff 			; <UNDEFINED> instruction: 0xffffffff
  44:	7c020001 	stcvc	0, cr0, [r2], {1}
  48:	000d0c0e 	andeq	r0, sp, lr, lsl #24
  4c:	0000001c 	andeq	r0, r0, ip, lsl r0
  50:	0000003c 	andeq	r0, r0, ip, lsr r0
  54:	00008128 	andeq	r8, r0, r8, lsr #2
  58:	00000158 	andeq	r0, r0, r8, asr r1
  5c:	84180e42 	ldrhi	r0, [r8], #-3650	; 0xe42
  60:	86058506 	strhi	r8, [r5], -r6, lsl #10
  64:	88038704 	stmdahi	r3, {r2, r8, r9, sl, pc}
  68:	00018e02 	andeq	r8, r1, r2, lsl #28
  6c:	00000020 	andeq	r0, r0, r0, lsr #32
  70:	0000003c 	andeq	r0, r0, ip, lsr r0
  74:	00008280 	andeq	r8, r0, r0, lsl #5
  78:	000001c8 	andeq	r0, r0, r8, asr #3
  7c:	83200e42 	teqhi	r0, #1056	; 0x420
  80:	85078408 	strhi	r8, [r7, #-1032]	; 0x408
  84:	87058606 	strhi	r8, [r5, -r6, lsl #12]
  88:	89038804 	stmdbhi	r3, {r2, fp, pc}
  8c:	00018e02 	andeq	r8, r1, r2, lsl #28
  90:	00000020 	andeq	r0, r0, r0, lsr #32
  94:	0000003c 	andeq	r0, r0, ip, lsr r0
  98:	00008448 	andeq	r8, r0, r8, asr #8
  9c:	0000008c 	andeq	r0, r0, ip, lsl #1
  a0:	84200e42 	strthi	r0, [r0], #-3650	; 0xe42
  a4:	86078508 	strhi	r8, [r7], -r8, lsl #10
  a8:	88058706 	stmdahi	r5, {r1, r2, r8, r9, sl, pc}
  ac:	8a038904 	bhi	e24c4 <__bss_end__+0xd8984>
  b0:	00018e02 	andeq	r8, r1, r2, lsl #28
  b4:	0000001c 	andeq	r0, r0, ip, lsl r0
  b8:	0000003c 	andeq	r0, r0, ip, lsr r0
  bc:	000084d4 	ldrdeq	r8, [r0], -r4
  c0:	00000078 	andeq	r0, r0, r8, ror r0
  c4:	84180e42 	ldrhi	r0, [r8], #-3650	; 0xe42
  c8:	86058506 	strhi	r8, [r5], -r6, lsl #10
  cc:	88038704 	stmdahi	r3, {r2, r8, r9, sl, pc}
  d0:	00018e02 	andeq	r8, r1, r2, lsl #28
  d4:	0000001c 	andeq	r0, r0, ip, lsl r0
  d8:	0000003c 	andeq	r0, r0, ip, lsr r0
  dc:	0000854c 	andeq	r8, r0, ip, asr #10
  e0:	000000b0 	strheq	r0, [r0], -r0	; <UNPREDICTABLE>
  e4:	84180e42 	ldrhi	r0, [r8], #-3650	; 0xe42
  e8:	86058506 	strhi	r8, [r5], -r6, lsl #10
  ec:	88038704 	stmdahi	r3, {r2, r8, r9, sl, pc}
  f0:	00018e02 	andeq	r8, r1, r2, lsl #28
  f4:	00000014 	andeq	r0, r0, r4, lsl r0
  f8:	0000003c 	andeq	r0, r0, ip, lsr r0
  fc:	000085fc 	strdeq	r8, [r0], -ip
 100:	00000038 	andeq	r0, r0, r8, lsr r0
 104:	83080e42 	movwhi	r0, #36418	; 0x8e42
 108:	00018e02 	andeq	r8, r1, r2, lsl #28
 10c:	00000018 	andeq	r0, r0, r8, lsl r0
 110:	0000003c 	andeq	r0, r0, ip, lsr r0
 114:	00008634 	andeq	r8, r0, r4, lsr r6
 118:	0000002c 	andeq	r0, r0, ip, lsr #32
 11c:	83100e42 	tsthi	r0, #1056	; 0x420
 120:	85038404 	strhi	r8, [r3, #-1028]	; 0x404
 124:	00018e02 	andeq	r8, r1, r2, lsl #28
 128:	00000024 	andeq	r0, r0, r4, lsr #32
 12c:	0000003c 	andeq	r0, r0, ip, lsr r0
 130:	00008660 	andeq	r8, r0, r0, ror #12
 134:	00000080 	andeq	r0, r0, r0, lsl #1
 138:	810c0e42 	tsthi	ip, r2, asr #28
 13c:	83028203 	movwhi	r8, #8707	; 0x2203
 140:	180e4201 	stmdane	lr, {r0, r9, lr}
 144:	05850684 	streq	r0, [r5, #1668]	; 0x684
 148:	0e42048e 	cdpeq	4, 4, cr0, cr2, cr14, {4}
 14c:	000003e8 	andeq	r0, r0, r8, ror #7
 150:	00000014 	andeq	r0, r0, r4, lsl r0
 154:	0000003c 	andeq	r0, r0, ip, lsr r0
 158:	000086e0 	andeq	r8, r0, r0, ror #13
 15c:	00000048 	andeq	r0, r0, r8, asr #32
 160:	8e040e42 	cdphi	14, 0, cr0, cr4, cr2, {2}
 164:	100e4201 	andne	r4, lr, r1, lsl #4
 168:	0000000c 	andeq	r0, r0, ip
 16c:	ffffffff 			; <UNDEFINED> instruction: 0xffffffff
 170:	7c020001 	stcvc	0, cr0, [r2], {1}
 174:	000d0c0e 	andeq	r0, sp, lr, lsl #24
 178:	00000024 	andeq	r0, r0, r4, lsr #32
 17c:	00000168 	andeq	r0, r0, r8, ror #2
 180:	00008728 	andeq	r8, r0, r8, lsr #14
 184:	00000058 	andeq	r0, r0, r8, asr r0
 188:	80100e42 	andshi	r0, r0, r2, asr #28
 18c:	82038104 	andhi	r8, r3, #4, 2
 190:	42018302 	andmi	r8, r1, #134217728	; 0x8000000
 194:	07841c0e 	streq	r1, [r4, lr, lsl #24]
 198:	058e0685 	streq	r0, [lr, #1669]	; 0x685
 19c:	00280e42 	eoreq	r0, r8, r2, asr #28
 1a0:	0000000c 	andeq	r0, r0, ip
 1a4:	ffffffff 			; <UNDEFINED> instruction: 0xffffffff
 1a8:	7c020001 	stcvc	0, cr0, [r2], {1}
 1ac:	000d0c0e 	andeq	r0, sp, lr, lsl #24
 1b0:	00000018 	andeq	r0, r0, r8, lsl r0
 1b4:	000001a0 	andeq	r0, r0, r0, lsr #3
 1b8:	00008780 	andeq	r8, r0, r0, lsl #15
 1bc:	00000034 	andeq	r0, r0, r4, lsr r0
 1c0:	83100e42 	tsthi	r0, #1056	; 0x420
 1c4:	85038404 	strhi	r8, [r3, #-1028]	; 0x404
 1c8:	00018e02 	andeq	r8, r1, r2, lsl #28
 1cc:	0000000c 	andeq	r0, r0, ip
 1d0:	ffffffff 			; <UNDEFINED> instruction: 0xffffffff
 1d4:	7c020001 	stcvc	0, cr0, [r2], {1}
 1d8:	000d0c0e 	andeq	r0, sp, lr, lsl #24
 1dc:	0000000c 	andeq	r0, r0, ip
 1e0:	000001cc 	andeq	r0, r0, ip, asr #3
 1e4:	000087b4 			; <UNDEFINED> instruction: 0x000087b4
 1e8:	00000020 	andeq	r0, r0, r0, lsr #32
 1ec:	0000000c 	andeq	r0, r0, ip
 1f0:	ffffffff 			; <UNDEFINED> instruction: 0xffffffff
 1f4:	7c020001 	stcvc	0, cr0, [r2], {1}
 1f8:	000d0c0e 	andeq	r0, sp, lr, lsl #24
 1fc:	0000000c 	andeq	r0, r0, ip
 200:	000001ec 	andeq	r0, r0, ip, ror #3
 204:	000087d4 	ldrdeq	r8, [r0], -r4
 208:	00000014 	andeq	r0, r0, r4, lsl r0
 20c:	0000000c 	andeq	r0, r0, ip
 210:	000001ec 	andeq	r0, r0, ip, ror #3
 214:	000087e8 	andeq	r8, r0, r8, ror #15
 218:	0000002c 	andeq	r0, r0, ip, lsr #32
 21c:	0000000c 	andeq	r0, r0, ip
 220:	000001ec 	andeq	r0, r0, ip, ror #3
 224:	00008814 	andeq	r8, r0, r4, lsl r8
 228:	00000040 	andeq	r0, r0, r0, asr #32
 22c:	00000020 	andeq	r0, r0, r0, lsr #32
 230:	000001ec 	andeq	r0, r0, ip, ror #3
 234:	00008854 	andeq	r8, r0, r4, asr r8
 238:	00000198 	muleq	r0, r8, r1
 23c:	84180e42 	ldrhi	r0, [r8], #-3650	; 0xe42
 240:	86058506 	strhi	r8, [r5], -r6, lsl #10
 244:	88038704 	stmdahi	r3, {r2, r8, r9, sl, pc}
 248:	42018e02 	andmi	r8, r1, #2, 28
 24c:	0000580e 	andeq	r5, r0, lr, lsl #16
 250:	00000014 	andeq	r0, r0, r4, lsl r0
 254:	000001ec 	andeq	r0, r0, ip, ror #3
 258:	000089ec 	andeq	r8, r0, ip, ror #19
 25c:	00000050 	andeq	r0, r0, r0, asr r0
 260:	83080e42 	movwhi	r0, #36418	; 0x8e42
 264:	00018e02 	andeq	r8, r1, r2, lsl #28
 268:	00000028 	andeq	r0, r0, r8, lsr #32
 26c:	000001ec 	andeq	r0, r0, ip, ror #3
 270:	00008a3c 	andeq	r8, r0, ip, lsr sl
 274:	00000288 	andeq	r0, r0, r8, lsl #5
 278:	84240e42 	strthi	r0, [r4], #-3650	; 0xe42
 27c:	86088509 	strhi	r8, [r8], -r9, lsl #10
 280:	88068707 	stmdahi	r6, {r0, r1, r2, r8, r9, sl, pc}
 284:	8a048905 	bhi	1226a0 <__bss_end__+0x118b60>
 288:	8e028b03 	vmlahi.f64	d8, d2, d3
 28c:	b00e4201 	andlt	r4, lr, r1, lsl #4
 290:	00000001 	andeq	r0, r0, r1
 294:	0000000c 	andeq	r0, r0, ip
 298:	ffffffff 			; <UNDEFINED> instruction: 0xffffffff
 29c:	7c020001 	stcvc	0, cr0, [r2], {1}
 2a0:	000d0c0e 	andeq	r0, sp, lr, lsl #24
 2a4:	0000000c 	andeq	r0, r0, ip
 2a8:	00000294 	muleq	r0, r4, r2
 2ac:	00008cc4 	andeq	r8, r0, r4, asr #25
 2b0:	00000010 	andeq	r0, r0, r0, lsl r0
 2b4:	0000000c 	andeq	r0, r0, ip
 2b8:	00000294 	muleq	r0, r4, r2
 2bc:	00008cd4 	ldrdeq	r8, [r0], -r4
 2c0:	00000010 	andeq	r0, r0, r0, lsl r0
 2c4:	0000000c 	andeq	r0, r0, ip
 2c8:	ffffffff 			; <UNDEFINED> instruction: 0xffffffff
 2cc:	7c020001 	stcvc	0, cr0, [r2], {1}
 2d0:	000d0c0e 	andeq	r0, sp, lr, lsl #24
 2d4:	00000014 	andeq	r0, r0, r4, lsl r0
 2d8:	000002c4 	andeq	r0, r0, r4, asr #5
 2dc:	00008ce4 	andeq	r8, r0, r4, ror #25
 2e0:	00000028 	andeq	r0, r0, r8, lsr #32
 2e4:	83080e42 	movwhi	r0, #36418	; 0x8e42
 2e8:	00018e02 	andeq	r8, r1, r2, lsl #28
 2ec:	0000000c 	andeq	r0, r0, ip
 2f0:	ffffffff 			; <UNDEFINED> instruction: 0xffffffff
 2f4:	7c020001 	stcvc	0, cr0, [r2], {1}
 2f8:	000d0c0e 	andeq	r0, sp, lr, lsl #24
 2fc:	00000014 	andeq	r0, r0, r4, lsl r0
 300:	000002ec 	andeq	r0, r0, ip, ror #5
 304:	00008d0c 	andeq	r8, r0, ip, lsl #26
 308:	00000034 	andeq	r0, r0, r4, lsr r0
 30c:	83080e42 	movwhi	r0, #36418	; 0x8e42
 310:	00018e02 	andeq	r8, r1, r2, lsl #28
 314:	0000000c 	andeq	r0, r0, ip
 318:	ffffffff 			; <UNDEFINED> instruction: 0xffffffff
 31c:	7c020001 	stcvc	0, cr0, [r2], {1}
 320:	000d0c0e 	andeq	r0, sp, lr, lsl #24
 324:	0000000c 	andeq	r0, r0, ip
 328:	00000314 	andeq	r0, r0, r4, lsl r3
 32c:	00008d40 	andeq	r8, r0, r0, asr #26
 330:	00000018 	andeq	r0, r0, r8, lsl r0
 334:	0000000c 	andeq	r0, r0, ip
 338:	00000314 	andeq	r0, r0, r4, lsl r3
 33c:	00008d58 	andeq	r8, r0, r8, asr sp
 340:	00000014 	andeq	r0, r0, r4, lsl r0
 344:	00000014 	andeq	r0, r0, r4, lsl r0
 348:	00000314 	andeq	r0, r0, r4, lsl r3
 34c:	00008d6c 	andeq	r8, r0, ip, ror #26
 350:	00000048 	andeq	r0, r0, r8, asr #32
 354:	83080e42 	movwhi	r0, #36418	; 0x8e42
 358:	00018e02 	andeq	r8, r1, r2, lsl #28
 35c:	0000000c 	andeq	r0, r0, ip
 360:	ffffffff 			; <UNDEFINED> instruction: 0xffffffff
 364:	7c020001 	stcvc	0, cr0, [r2], {1}
 368:	000d0c0e 	andeq	r0, sp, lr, lsl #24
 36c:	0000000c 	andeq	r0, r0, ip
 370:	0000035c 	andeq	r0, r0, ip, asr r3
 374:	00008db4 			; <UNDEFINED> instruction: 0x00008db4
 378:	0000001c 	andeq	r0, r0, ip, lsl r0
 37c:	00000014 	andeq	r0, r0, r4, lsl r0
 380:	0000035c 	andeq	r0, r0, ip, asr r3
 384:	00008dd0 	ldrdeq	r8, [r0], -r0
 388:	00000014 	andeq	r0, r0, r4, lsl r0
 38c:	83080e42 	movwhi	r0, #36418	; 0x8e42
 390:	00018e02 	andeq	r8, r1, r2, lsl #28
 394:	00000014 	andeq	r0, r0, r4, lsl r0
 398:	0000035c 	andeq	r0, r0, ip, asr r3
 39c:	00008de4 	andeq	r8, r0, r4, ror #27
 3a0:	0000000c 	andeq	r0, r0, ip
 3a4:	83080e42 	movwhi	r0, #36418	; 0x8e42
 3a8:	00018e02 	andeq	r8, r1, r2, lsl #28
 3ac:	00000018 	andeq	r0, r0, r8, lsl r0
 3b0:	0000035c 	andeq	r0, r0, ip, asr r3
 3b4:	00008df0 	strdeq	r8, [r0], -r0
 3b8:	00000024 	andeq	r0, r0, r4, lsr #32
 3bc:	83100e42 	tsthi	r0, #1056	; 0x420
 3c0:	85038404 	strhi	r8, [r3, #-1028]	; 0x404
 3c4:	00018e02 	andeq	r8, r1, r2, lsl #28
 3c8:	00000014 	andeq	r0, r0, r4, lsl r0
 3cc:	0000035c 	andeq	r0, r0, ip, asr r3
 3d0:	00008e14 	andeq	r8, r0, r4, lsl lr
 3d4:	00000014 	andeq	r0, r0, r4, lsl r0
 3d8:	83080e42 	movwhi	r0, #36418	; 0x8e42
 3dc:	00018e02 	andeq	r8, r1, r2, lsl #28
 3e0:	00000014 	andeq	r0, r0, r4, lsl r0
 3e4:	0000035c 	andeq	r0, r0, ip, asr r3
 3e8:	00008e28 	andeq	r8, r0, r8, lsr #28
 3ec:	00000014 	andeq	r0, r0, r4, lsl r0
 3f0:	83080e42 	movwhi	r0, #36418	; 0x8e42
 3f4:	00018e02 	andeq	r8, r1, r2, lsl #28
 3f8:	0000000c 	andeq	r0, r0, ip
 3fc:	ffffffff 			; <UNDEFINED> instruction: 0xffffffff
 400:	7c020001 	stcvc	0, cr0, [r2], {1}
 404:	000d0c0e 	andeq	r0, sp, lr, lsl #24
 408:	00000014 	andeq	r0, r0, r4, lsl r0
 40c:	000003f8 	strdeq	r0, [r0], -r8
 410:	00008e88 	andeq	r8, r0, r8, lsl #29
 414:	0000001c 	andeq	r0, r0, ip, lsl r0
 418:	83080e42 	movwhi	r0, #36418	; 0x8e42
 41c:	00018e02 	andeq	r8, r1, r2, lsl #28
 420:	00000018 	andeq	r0, r0, r8, lsl r0
 424:	000003f8 	strdeq	r0, [r0], -r8
 428:	00008ea4 	andeq	r8, r0, r4, lsr #29
 42c:	0000009c 	muleq	r0, ip, r0
 430:	83100e42 	tsthi	r0, #1056	; 0x420
 434:	85038404 	strhi	r8, [r3, #-1028]	; 0x404
 438:	00018e02 	andeq	r8, r1, r2, lsl #28
 43c:	00000014 	andeq	r0, r0, r4, lsl r0
 440:	000003f8 	strdeq	r0, [r0], -r8
 444:	00008f40 	andeq	r8, r0, r0, asr #30
 448:	00000028 	andeq	r0, r0, r8, lsr #32
 44c:	83080e42 	movwhi	r0, #36418	; 0x8e42
 450:	00018e02 	andeq	r8, r1, r2, lsl #28
 454:	00000014 	andeq	r0, r0, r4, lsl r0
 458:	000003f8 	strdeq	r0, [r0], -r8
 45c:	00008f68 	andeq	r8, r0, r8, ror #30
 460:	0000001c 	andeq	r0, r0, ip, lsl r0
 464:	83080e42 	movwhi	r0, #36418	; 0x8e42
 468:	00018e02 	andeq	r8, r1, r2, lsl #28
 46c:	00000014 	andeq	r0, r0, r4, lsl r0
 470:	000003f8 	strdeq	r0, [r0], -r8
 474:	00008f84 	andeq	r8, r0, r4, lsl #31
 478:	0000002c 	andeq	r0, r0, ip, lsr #32
 47c:	84080e42 	strhi	r0, [r8], #-3650	; 0xe42
 480:	00018e02 	andeq	r8, r1, r2, lsl #28
 484:	00000014 	andeq	r0, r0, r4, lsl r0
 488:	000003f8 	strdeq	r0, [r0], -r8
 48c:	00008fb0 			; <UNDEFINED> instruction: 0x00008fb0
 490:	0000000c 	andeq	r0, r0, ip
 494:	83080e42 	movwhi	r0, #36418	; 0x8e42
 498:	00018e02 	andeq	r8, r1, r2, lsl #28
 49c:	00000014 	andeq	r0, r0, r4, lsl r0
 4a0:	000003f8 	strdeq	r0, [r0], -r8
 4a4:	00008fbc 			; <UNDEFINED> instruction: 0x00008fbc
 4a8:	00000020 	andeq	r0, r0, r0, lsr #32
 4ac:	83080e42 	movwhi	r0, #36418	; 0x8e42
 4b0:	00018e02 	andeq	r8, r1, r2, lsl #28
 4b4:	0000000c 	andeq	r0, r0, ip
 4b8:	ffffffff 			; <UNDEFINED> instruction: 0xffffffff
 4bc:	7c020001 	stcvc	0, cr0, [r2], {1}
 4c0:	000d0c0e 	andeq	r0, sp, lr, lsl #24
 4c4:	00000018 	andeq	r0, r0, r8, lsl r0
 4c8:	000004b4 			; <UNDEFINED> instruction: 0x000004b4
 4cc:	00008fdc 	ldrdeq	r8, [r0], -ip
 4d0:	000000d4 	ldrdeq	r0, [r0], -r4
 4d4:	83100e42 	tsthi	r0, #1056	; 0x420
 4d8:	85038404 	strhi	r8, [r3, #-1028]	; 0x404
 4dc:	00018e02 	andeq	r8, r1, r2, lsl #28
 4e0:	00000014 	andeq	r0, r0, r4, lsl r0
 4e4:	000004b4 			; <UNDEFINED> instruction: 0x000004b4
 4e8:	000090b0 	strheq	r9, [r0], -r0
 4ec:	00000038 	andeq	r0, r0, r8, lsr r0
 4f0:	83080e42 	movwhi	r0, #36418	; 0x8e42
 4f4:	00018e02 	andeq	r8, r1, r2, lsl #28
 4f8:	00000014 	andeq	r0, r0, r4, lsl r0
 4fc:	000004b4 			; <UNDEFINED> instruction: 0x000004b4
 500:	000090e8 	andeq	r9, r0, r8, ror #1
 504:	00000038 	andeq	r0, r0, r8, lsr r0
 508:	83080e42 	movwhi	r0, #36418	; 0x8e42
 50c:	00018e02 	andeq	r8, r1, r2, lsl #28
 510:	00000018 	andeq	r0, r0, r8, lsl r0
 514:	000004b4 			; <UNDEFINED> instruction: 0x000004b4
 518:	00009120 	andeq	r9, r0, r0, lsr #2
 51c:	000000cc 	andeq	r0, r0, ip, asr #1
 520:	83100e42 	tsthi	r0, #1056	; 0x420
 524:	85038404 	strhi	r8, [r3, #-1028]	; 0x404
 528:	00018e02 	andeq	r8, r1, r2, lsl #28
 52c:	00000014 	andeq	r0, r0, r4, lsl r0
 530:	000004b4 			; <UNDEFINED> instruction: 0x000004b4
 534:	000091ec 	andeq	r9, r0, ip, ror #3
 538:	0000004c 	andeq	r0, r0, ip, asr #32
 53c:	84080e42 	strhi	r0, [r8], #-3650	; 0xe42
 540:	00018e02 	andeq	r8, r1, r2, lsl #28
 544:	00000014 	andeq	r0, r0, r4, lsl r0
 548:	000004b4 			; <UNDEFINED> instruction: 0x000004b4
 54c:	00009238 	andeq	r9, r0, r8, lsr r2
 550:	00000078 	andeq	r0, r0, r8, ror r0
 554:	83080e42 	movwhi	r0, #36418	; 0x8e42
 558:	00018e02 	andeq	r8, r1, r2, lsl #28
 55c:	00000018 	andeq	r0, r0, r8, lsl r0
 560:	000004b4 			; <UNDEFINED> instruction: 0x000004b4
 564:	000092b0 			; <UNDEFINED> instruction: 0x000092b0
 568:	000000d8 	ldrdeq	r0, [r0], -r8
 56c:	84100e42 	ldrhi	r0, [r0], #-3650	; 0xe42
 570:	86038504 	strhi	r8, [r3], -r4, lsl #10
 574:	00018e02 	andeq	r8, r1, r2, lsl #28
 578:	0000000c 	andeq	r0, r0, ip
 57c:	ffffffff 			; <UNDEFINED> instruction: 0xffffffff
 580:	7c020001 	stcvc	0, cr0, [r2], {1}
 584:	000d0c0e 	andeq	r0, sp, lr, lsl #24
 588:	00000014 	andeq	r0, r0, r4, lsl r0
 58c:	00000578 	andeq	r0, r0, r8, ror r5
 590:	00009388 	andeq	r9, r0, r8, lsl #7
 594:	00000014 	andeq	r0, r0, r4, lsl r0
 598:	84080e42 	strhi	r0, [r8], #-3650	; 0xe42
 59c:	00018e02 	andeq	r8, r1, r2, lsl #28
