
uart-int.elf:     file format elf32-littlearm


Disassembly of section .text:

00008000 <_start>:
    8000:	e3a0d302 	mov	sp, #134217728	; 0x8000000
    8004:	e3a0b000 	mov	fp, #0
    8008:	eb0003cd 	bl	8f44 <_cstart>
    800c:	eb0003fb 	bl	9000 <rpi_reboot>

00008010 <uart_has_data_int>:
    8010:	e59f3018 	ldr	r3, [pc, #24]	; 8030 <uart_has_data_int+0x20>
    8014:	e59f2018 	ldr	r2, [pc, #24]	; 8034 <uart_has_data_int+0x24>
    8018:	e7930002 	ldr	r0, [r3, r2]
    801c:	e2822004 	add	r2, r2, #4
    8020:	e7933002 	ldr	r3, [r3, r2]
    8024:	e0500003 	subs	r0, r0, r3
    8028:	13a00001 	movne	r0, #1
    802c:	e12fff1e 	bx	lr
    8030:	0000a730 	andeq	sl, r0, r0, lsr r7
    8034:	00002004 	andeq	r2, r0, r4

00008038 <uart_get_aux_irq>:
    8038:	e92d4008 	push	{r3, lr}
    803c:	e59f0010 	ldr	r0, [pc, #16]	; 8054 <uart_get_aux_irq+0x1c>
    8040:	eb000800 	bl	a048 <get32>
    8044:	e59f300c 	ldr	r3, [pc, #12]	; 8058 <uart_get_aux_irq+0x20>
    8048:	e5a3001c 	str	r0, [r3, #28]!
    804c:	e1a00003 	mov	r0, r3
    8050:	e8bd8008 	pop	{r3, pc}
    8054:	20215000 	eorcs	r5, r1, r0
    8058:	0000c728 	andeq	ip, r0, r8, lsr #14

0000805c <uart_has_int>:
    805c:	e92d4010 	push	{r4, lr}
    8060:	e1a04000 	mov	r4, r0
    8064:	ebfffff3 	bl	8038 <uart_get_aux_irq>
    8068:	e59f3040 	ldr	r3, [pc, #64]	; 80b0 <uart_has_int+0x54>
    806c:	e593301c 	ldr	r3, [r3, #28]
    8070:	e3130001 	tst	r3, #1
    8074:	0a000007 	beq	8098 <uart_has_int+0x3c>
    8078:	e2840008 	add	r0, r4, #8
    807c:	eb0007f1 	bl	a048 <get32>
    8080:	e3100004 	tst	r0, #4
    8084:	1a000005 	bne	80a0 <uart_has_int+0x44>
    8088:	e3100002 	tst	r0, #2
    808c:	0a000005 	beq	80a8 <uart_has_int+0x4c>
    8090:	e59f001c 	ldr	r0, [pc, #28]	; 80b4 <uart_has_int+0x58>
    8094:	e8bd8010 	pop	{r4, pc}
    8098:	e3a00000 	mov	r0, #0
    809c:	e8bd8010 	pop	{r4, pc}
    80a0:	e59f0010 	ldr	r0, [pc, #16]	; 80b8 <uart_has_int+0x5c>
    80a4:	e8bd8010 	pop	{r4, pc}
    80a8:	e3a00000 	mov	r0, #0
    80ac:	e8bd8010 	pop	{r4, pc}
    80b0:	0000c728 	andeq	ip, r0, r8, lsr #14
    80b4:	00000457 	andeq	r0, r0, r7, asr r4
    80b8:	000008ae 	andeq	r0, r0, lr, lsr #17

000080bc <mod_tx_interrupts>:
    80bc:	e92d4010 	push	{r4, lr}
    80c0:	e1a04000 	mov	r4, r0
    80c4:	eb0007cd 	bl	a000 <dev_barrier>
    80c8:	e59f3048 	ldr	r3, [pc, #72]	; 8118 <mod_tx_interrupts+0x5c>
    80cc:	e5930020 	ldr	r0, [r3, #32]
    80d0:	e2800004 	add	r0, r0, #4
    80d4:	eb0007db 	bl	a048 <get32>
    80d8:	e1a01000 	mov	r1, r0
    80dc:	e3540000 	cmp	r4, #0
    80e0:	0a000005 	beq	80fc <mod_tx_interrupts+0x40>
    80e4:	e59f302c 	ldr	r3, [pc, #44]	; 8118 <mod_tx_interrupts+0x5c>
    80e8:	e5930020 	ldr	r0, [r3, #32]
    80ec:	e2800004 	add	r0, r0, #4
    80f0:	e3811002 	orr	r1, r1, #2
    80f4:	eb0007c7 	bl	a018 <put32>
    80f8:	ea000004 	b	8110 <mod_tx_interrupts+0x54>
    80fc:	e59f3014 	ldr	r3, [pc, #20]	; 8118 <mod_tx_interrupts+0x5c>
    8100:	e5930020 	ldr	r0, [r3, #32]
    8104:	e2800004 	add	r0, r0, #4
    8108:	e3c11002 	bic	r1, r1, #2
    810c:	eb0007c1 	bl	a018 <put32>
    8110:	eb0007ba 	bl	a000 <dev_barrier>
    8114:	e8bd8010 	pop	{r4, pc}
    8118:	0000c728 	andeq	ip, r0, r8, lsr #14

0000811c <uart_interrupt_handler>:
    811c:	e92d41f0 	push	{r4, r5, r6, r7, r8, lr}
    8120:	e59f3130 	ldr	r3, [pc, #304]	; 8258 <uart_interrupt_handler+0x13c>
    8124:	e5930020 	ldr	r0, [r3, #32]
    8128:	ebffffcb 	bl	805c <uart_has_int>
    812c:	e59f3128 	ldr	r3, [pc, #296]	; 825c <uart_interrupt_handler+0x140>
    8130:	e1500003 	cmp	r0, r3
    8134:	1a00001c 	bne	81ac <uart_interrupt_handler+0x90>
    8138:	ea00000e 	b	8178 <uart_interrupt_handler+0x5c>
    813c:	eb000708 	bl	9d64 <uart_getc>
    8140:	e6ef0070 	uxtb	r0, r0
    8144:	e7941005 	ldr	r1, [r4, r5]
    8148:	e7942005 	ldr	r2, [r4, r5]
    814c:	e2822001 	add	r2, r2, #1
    8150:	e1a02982 	lsl	r2, r2, #19
    8154:	e7943006 	ldr	r3, [r4, r6]
    8158:	e15309a2 	cmp	r3, r2, lsr #19
    815c:	0a000008 	beq	8184 <uart_interrupt_handler+0x68>
    8160:	e7c40001 	strb	r0, [r4, r1]
    8164:	e2813001 	add	r3, r1, #1
    8168:	e1a03983 	lsl	r3, r3, #19
    816c:	e1a039a3 	lsr	r3, r3, #19
    8170:	e7843005 	str	r3, [r4, r5]
    8174:	ea000002 	b	8184 <uart_interrupt_handler+0x68>
    8178:	e59f40e0 	ldr	r4, [pc, #224]	; 8260 <uart_interrupt_handler+0x144>
    817c:	e59f50e0 	ldr	r5, [pc, #224]	; 8264 <uart_interrupt_handler+0x148>
    8180:	e59f60e0 	ldr	r6, [pc, #224]	; 8268 <uart_interrupt_handler+0x14c>
    8184:	e7942005 	ldr	r2, [r4, r5]
    8188:	e2822001 	add	r2, r2, #1
    818c:	e1a02982 	lsl	r2, r2, #19
    8190:	e7943006 	ldr	r3, [r4, r6]
    8194:	e15309a2 	cmp	r3, r2, lsr #19
    8198:	0a00002c 	beq	8250 <uart_interrupt_handler+0x134>
    819c:	eb0006e9 	bl	9d48 <uart_can_getc>
    81a0:	e3500000 	cmp	r0, #0
    81a4:	1affffe4 	bne	813c <uart_interrupt_handler+0x20>
    81a8:	ea000028 	b	8250 <uart_interrupt_handler+0x134>
    81ac:	e59f30b8 	ldr	r3, [pc, #184]	; 826c <uart_interrupt_handler+0x150>
    81b0:	e1500003 	cmp	r0, r3
    81b4:	1a000025 	bne	8250 <uart_interrupt_handler+0x134>
    81b8:	ea000002 	b	81c8 <uart_interrupt_handler+0xac>
    81bc:	e5d40024 	ldrb	r0, [r4, #36]	; 0x24
    81c0:	eb0006f8 	bl	9da8 <uart_putc>
    81c4:	ea000004 	b	81dc <uart_interrupt_handler+0xc0>
    81c8:	e59f4088 	ldr	r4, [pc, #136]	; 8258 <uart_interrupt_handler+0x13c>
    81cc:	e59f609c 	ldr	r6, [pc, #156]	; 8270 <uart_interrupt_handler+0x154>
    81d0:	e59f509c 	ldr	r5, [pc, #156]	; 8274 <uart_interrupt_handler+0x158>
    81d4:	e3a08000 	mov	r8, #0
    81d8:	e3a07001 	mov	r7, #1
    81dc:	eb0006ea 	bl	9d8c <uart_can_putc>
    81e0:	e3500000 	cmp	r0, #0
    81e4:	0a000010 	beq	822c <uart_interrupt_handler+0x110>
    81e8:	e7942006 	ldr	r2, [r4, r6]
    81ec:	e7943005 	ldr	r3, [r4, r5]
    81f0:	e1520003 	cmp	r2, r3
    81f4:	0a000009 	beq	8220 <uart_interrupt_handler+0x104>
    81f8:	e7943005 	ldr	r3, [r4, r5]
    81fc:	e0842003 	add	r2, r4, r3
    8200:	e5d22028 	ldrb	r2, [r2, #40]	; 0x28
    8204:	e5c42024 	strb	r2, [r4, #36]	; 0x24
    8208:	e2833001 	add	r3, r3, #1
    820c:	e1a03983 	lsl	r3, r3, #19
    8210:	e1a039a3 	lsr	r3, r3, #19
    8214:	e7843005 	str	r3, [r4, r5]
    8218:	e1a03007 	mov	r3, r7
    821c:	ea000000 	b	8224 <uart_interrupt_handler+0x108>
    8220:	e1a03008 	mov	r3, r8
    8224:	e3530000 	cmp	r3, #0
    8228:	1affffe3 	bne	81bc <uart_interrupt_handler+0xa0>
    822c:	e59f3024 	ldr	r3, [pc, #36]	; 8258 <uart_interrupt_handler+0x13c>
    8230:	e59f2038 	ldr	r2, [pc, #56]	; 8270 <uart_interrupt_handler+0x154>
    8234:	e7932002 	ldr	r2, [r3, r2]
    8238:	e59f1034 	ldr	r1, [pc, #52]	; 8274 <uart_interrupt_handler+0x158>
    823c:	e7933001 	ldr	r3, [r3, r1]
    8240:	e1520003 	cmp	r2, r3
    8244:	1a000001 	bne	8250 <uart_interrupt_handler+0x134>
    8248:	e3a00000 	mov	r0, #0
    824c:	ebffff9a 	bl	80bc <mod_tx_interrupts>
    8250:	e3a00001 	mov	r0, #1
    8254:	e8bd81f0 	pop	{r4, r5, r6, r7, r8, pc}
    8258:	0000c728 	andeq	ip, r0, r8, lsr #14
    825c:	000008ae 	andeq	r0, r0, lr, lsr #17
    8260:	0000a730 	andeq	sl, r0, r0, lsr r7
    8264:	00002004 	andeq	r2, r0, r4
    8268:	00002008 	andeq	r2, r0, r8
    826c:	00000457 	andeq	r0, r0, r7, asr r4
    8270:	0000202c 	andeq	r2, r0, ip, lsr #32
    8274:	00002030 	andeq	r2, r0, r0, lsr r0

00008278 <interrupt_vector>:
    8278:	e92d4008 	push	{r3, lr}
    827c:	ebffffa6 	bl	811c <uart_interrupt_handler>
    8280:	e8bd8008 	pop	{r3, pc}

00008284 <uart_int_flush_all>:
    8284:	e92d43f8 	push	{r3, r4, r5, r6, r7, r8, r9, lr}
    8288:	e59f406c 	ldr	r4, [pc, #108]	; 82fc <uart_int_flush_all+0x78>
    828c:	e59f706c 	ldr	r7, [pc, #108]	; 8300 <uart_int_flush_all+0x7c>
    8290:	e59f506c 	ldr	r5, [pc, #108]	; 8304 <uart_int_flush_all+0x80>
    8294:	e3a09000 	mov	r9, #0
    8298:	e3a08001 	mov	r8, #1
    829c:	ea000001 	b	82a8 <uart_int_flush_all+0x24>
    82a0:	e1a00006 	mov	r0, r6
    82a4:	eb0006bf 	bl	9da8 <uart_putc>
    82a8:	eb0006b7 	bl	9d8c <uart_can_putc>
    82ac:	e3500000 	cmp	r0, #0
    82b0:	08bd83f8 	popeq	{r3, r4, r5, r6, r7, r8, r9, pc}
    82b4:	e7942007 	ldr	r2, [r4, r7]
    82b8:	e7943005 	ldr	r3, [r4, r5]
    82bc:	e1520003 	cmp	r2, r3
    82c0:	0a000009 	beq	82ec <uart_int_flush_all+0x68>
    82c4:	e7943005 	ldr	r3, [r4, r5]
    82c8:	e0842003 	add	r2, r4, r3
    82cc:	e5d26028 	ldrb	r6, [r2, #40]	; 0x28
    82d0:	e6ef6076 	uxtb	r6, r6
    82d4:	e2833001 	add	r3, r3, #1
    82d8:	e1a03983 	lsl	r3, r3, #19
    82dc:	e1a039a3 	lsr	r3, r3, #19
    82e0:	e7843005 	str	r3, [r4, r5]
    82e4:	e1a03008 	mov	r3, r8
    82e8:	ea000000 	b	82f0 <uart_int_flush_all+0x6c>
    82ec:	e1a03009 	mov	r3, r9
    82f0:	e3530000 	cmp	r3, #0
    82f4:	1affffe9 	bne	82a0 <uart_int_flush_all+0x1c>
    82f8:	e8bd83f8 	pop	{r3, r4, r5, r6, r7, r8, r9, pc}
    82fc:	0000c728 	andeq	ip, r0, r8, lsr #14
    8300:	0000202c 	andeq	r2, r0, ip, lsr #32
    8304:	00002030 	andeq	r2, r0, r0, lsr r0

00008308 <uart_putc_int>:
    8308:	e92d4010 	push	{r4, lr}
    830c:	e1a04000 	mov	r4, r0
    8310:	eb000757 	bl	a074 <system_disable_interrupts>
    8314:	e6efc074 	uxtb	ip, r4
    8318:	e59f3058 	ldr	r3, [pc, #88]	; 8378 <uart_putc_int+0x70>
    831c:	e59f2058 	ldr	r2, [pc, #88]	; 837c <uart_putc_int+0x74>
    8320:	e7931002 	ldr	r1, [r3, r2]
    8324:	e7932002 	ldr	r2, [r3, r2]
    8328:	e2822001 	add	r2, r2, #1
    832c:	e1a02982 	lsl	r2, r2, #19
    8330:	e59f0048 	ldr	r0, [pc, #72]	; 8380 <uart_putc_int+0x78>
    8334:	e7933000 	ldr	r3, [r3, r0]
    8338:	e15309a2 	cmp	r3, r2, lsr #19
    833c:	0a000007 	beq	8360 <uart_putc_int+0x58>
    8340:	e59f3030 	ldr	r3, [pc, #48]	; 8378 <uart_putc_int+0x70>
    8344:	e0832001 	add	r2, r3, r1
    8348:	e5c2c028 	strb	ip, [r2, #40]	; 0x28
    834c:	e2811001 	add	r1, r1, #1
    8350:	e1a01981 	lsl	r1, r1, #19
    8354:	e1a019a1 	lsr	r1, r1, #19
    8358:	e59f201c 	ldr	r2, [pc, #28]	; 837c <uart_putc_int+0x74>
    835c:	e7831002 	str	r1, [r3, r2]
    8360:	e3a00001 	mov	r0, #1
    8364:	ebffff54 	bl	80bc <mod_tx_interrupts>
    8368:	ebffffc5 	bl	8284 <uart_int_flush_all>
    836c:	eb00073c 	bl	a064 <system_enable_interrupts>
    8370:	e1a00004 	mov	r0, r4
    8374:	e8bd8010 	pop	{r4, pc}
    8378:	0000c728 	andeq	ip, r0, r8, lsr #14
    837c:	0000202c 	andeq	r2, r0, ip, lsr #32
    8380:	00002030 	andeq	r2, r0, r0, lsr r0

00008384 <uart_getc_int>:
    8384:	e92d4010 	push	{r4, lr}
    8388:	eb000739 	bl	a074 <system_disable_interrupts>
    838c:	e59f306c 	ldr	r3, [pc, #108]	; 8400 <uart_getc_int+0x7c>
    8390:	e59f206c 	ldr	r2, [pc, #108]	; 8404 <uart_getc_int+0x80>
    8394:	e7932002 	ldr	r2, [r3, r2]
    8398:	e59f1068 	ldr	r1, [pc, #104]	; 8408 <uart_getc_int+0x84>
    839c:	e7933001 	ldr	r3, [r3, r1]
    83a0:	e1520003 	cmp	r2, r3
    83a4:	0a00000f 	beq	83e8 <uart_getc_int+0x64>
    83a8:	e59f3050 	ldr	r3, [pc, #80]	; 8400 <uart_getc_int+0x7c>
    83ac:	e59f2050 	ldr	r2, [pc, #80]	; 8404 <uart_getc_int+0x80>
    83b0:	e7932002 	ldr	r2, [r3, r2]
    83b4:	e7933001 	ldr	r3, [r3, r1]
    83b8:	e1520003 	cmp	r2, r3
    83bc:	0a00000b 	beq	83f0 <uart_getc_int+0x6c>
    83c0:	e59f3038 	ldr	r3, [pc, #56]	; 8400 <uart_getc_int+0x7c>
    83c4:	e1a02001 	mov	r2, r1
    83c8:	e7931001 	ldr	r1, [r3, r1]
    83cc:	e7d34001 	ldrb	r4, [r3, r1]
    83d0:	e6ef4074 	uxtb	r4, r4
    83d4:	e2811001 	add	r1, r1, #1
    83d8:	e1a01981 	lsl	r1, r1, #19
    83dc:	e1a019a1 	lsr	r1, r1, #19
    83e0:	e7831002 	str	r1, [r3, r2]
    83e4:	ea000002 	b	83f4 <uart_getc_int+0x70>
    83e8:	e3a04082 	mov	r4, #130	; 0x82
    83ec:	ea000000 	b	83f4 <uart_getc_int+0x70>
    83f0:	e3a04082 	mov	r4, #130	; 0x82
    83f4:	eb00071a 	bl	a064 <system_enable_interrupts>
    83f8:	e1a00004 	mov	r0, r4
    83fc:	e8bd8010 	pop	{r4, pc}
    8400:	0000a730 	andeq	sl, r0, r0, lsr r7
    8404:	00002004 	andeq	r2, r0, r4
    8408:	00002008 	andeq	r2, r0, r8

0000840c <my_puts>:
    840c:	e92d4010 	push	{r4, lr}
    8410:	e1a04000 	mov	r4, r0
    8414:	ea000001 	b	8420 <my_puts+0x14>
    8418:	ebffffba 	bl	8308 <uart_putc_int>
    841c:	e2844001 	add	r4, r4, #1
    8420:	e5d40000 	ldrb	r0, [r4]
    8424:	e3500000 	cmp	r0, #0
    8428:	1afffffa 	bne	8418 <my_puts+0xc>
    842c:	e8bd8010 	pop	{r4, pc}

00008430 <uart_init_with_interrupts>:
    8430:	e92d4010 	push	{r4, lr}
    8434:	eb0006f1 	bl	a000 <dev_barrier>
    8438:	e3a0000e 	mov	r0, #14
    843c:	e3a01002 	mov	r1, #2
    8440:	eb0003d7 	bl	93a4 <gpio_set_function>
    8444:	e3a0000f 	mov	r0, #15
    8448:	e3a01002 	mov	r1, #2
    844c:	eb0003d4 	bl	93a4 <gpio_set_function>
    8450:	eb0006ea 	bl	a000 <dev_barrier>
    8454:	e59f43b8 	ldr	r4, [pc, #952]	; 8814 <uart_init_with_interrupts+0x3e4>
    8458:	e1a00004 	mov	r0, r4
    845c:	eb0006f9 	bl	a048 <get32>
    8460:	e3801001 	orr	r1, r0, #1
    8464:	e1a00004 	mov	r0, r4
    8468:	eb0006ea 	bl	a018 <put32>
    846c:	eb0006e3 	bl	a000 <dev_barrier>
    8470:	e59f43a0 	ldr	r4, [pc, #928]	; 8818 <uart_init_with_interrupts+0x3e8>
    8474:	e59f33a0 	ldr	r3, [pc, #928]	; 881c <uart_init_with_interrupts+0x3ec>
    8478:	e5843020 	str	r3, [r4, #32]
    847c:	e59f039c 	ldr	r0, [pc, #924]	; 8820 <uart_init_with_interrupts+0x3f0>
    8480:	e3a01000 	mov	r1, #0
    8484:	eb0006e3 	bl	a018 <put32>
    8488:	e5940020 	ldr	r0, [r4, #32]
    848c:	e2800004 	add	r0, r0, #4
    8490:	e3a01003 	mov	r1, #3
    8494:	eb0006df 	bl	a018 <put32>
    8498:	e5940020 	ldr	r0, [r4, #32]
    849c:	e2800008 	add	r0, r0, #8
    84a0:	e3a01006 	mov	r1, #6
    84a4:	eb0006db 	bl	a018 <put32>
    84a8:	e5940020 	ldr	r0, [r4, #32]
    84ac:	e280000c 	add	r0, r0, #12
    84b0:	e3a01003 	mov	r1, #3
    84b4:	eb0006d7 	bl	a018 <put32>
    84b8:	e5940020 	ldr	r0, [r4, #32]
    84bc:	e2800028 	add	r0, r0, #40	; 0x28
    84c0:	e59f135c 	ldr	r1, [pc, #860]	; 8824 <uart_init_with_interrupts+0x3f4>
    84c4:	eb0006d3 	bl	a018 <put32>
    84c8:	e5940020 	ldr	r0, [r4, #32]
    84cc:	e2800020 	add	r0, r0, #32
    84d0:	e3a01003 	mov	r1, #3
    84d4:	eb0006cf 	bl	a018 <put32>
    84d8:	e59f0348 	ldr	r0, [pc, #840]	; 8828 <uart_init_with_interrupts+0x3f8>
    84dc:	e3a01202 	mov	r1, #536870912	; 0x20000000
    84e0:	eb0006cc 	bl	a018 <put32>
    84e4:	eb0006c5 	bl	a000 <dev_barrier>
    84e8:	e59f433c 	ldr	r4, [pc, #828]	; 882c <uart_init_with_interrupts+0x3fc>
    84ec:	e1a00004 	mov	r0, r4
    84f0:	e3a01000 	mov	r1, #0
    84f4:	e59f2334 	ldr	r2, [pc, #820]	; 8830 <uart_init_with_interrupts+0x400>
    84f8:	eb000107 	bl	891c <memset>
    84fc:	e59f2330 	ldr	r2, [pc, #816]	; 8834 <uart_init_with_interrupts+0x404>
    8500:	e3a03a02 	mov	r3, #8192	; 0x2000
    8504:	e7842003 	str	r2, [r4, r3]
    8508:	e59f2328 	ldr	r2, [pc, #808]	; 8838 <uart_init_with_interrupts+0x408>
    850c:	e3a03000 	mov	r3, #0
    8510:	e7843002 	str	r3, [r4, r2]
    8514:	e59f1320 	ldr	r1, [pc, #800]	; 883c <uart_init_with_interrupts+0x40c>
    8518:	e7843001 	str	r3, [r4, r1]
    851c:	e59f031c 	ldr	r0, [pc, #796]	; 8840 <uart_init_with_interrupts+0x410>
    8520:	e7843000 	str	r3, [r4, r0]
    8524:	e59f3318 	ldr	r3, [pc, #792]	; 8844 <uart_init_with_interrupts+0x414>
    8528:	e7d40003 	ldrb	r0, [r4, r3]
    852c:	e3800001 	orr	r0, r0, #1
    8530:	e7c40003 	strb	r0, [r4, r3]
    8534:	e7941001 	ldr	r1, [r4, r1]
    8538:	e7943002 	ldr	r3, [r4, r2]
    853c:	e1510003 	cmp	r1, r3
    8540:	0a000006 	beq	8560 <uart_init_with_interrupts+0x130>
    8544:	eb000117 	bl	89a8 <rpi_reset_putc>
    8548:	e59f02f8 	ldr	r0, [pc, #760]	; 8848 <uart_init_with_interrupts+0x418>
    854c:	e59f12f8 	ldr	r1, [pc, #760]	; 884c <uart_init_with_interrupts+0x41c>
    8550:	e59f22f8 	ldr	r2, [pc, #760]	; 8850 <uart_init_with_interrupts+0x420>
    8554:	e3a0309f 	mov	r3, #159	; 0x9f
    8558:	eb0000f7 	bl	893c <printk>
    855c:	eb000266 	bl	8efc <clean_reboot>
    8560:	e59f32c4 	ldr	r3, [pc, #708]	; 882c <uart_init_with_interrupts+0x3fc>
    8564:	e59f22d0 	ldr	r2, [pc, #720]	; 883c <uart_init_with_interrupts+0x40c>
    8568:	e7932002 	ldr	r2, [r3, r2]
    856c:	e2822001 	add	r2, r2, #1
    8570:	e1a02982 	lsl	r2, r2, #19
    8574:	e59f12bc 	ldr	r1, [pc, #700]	; 8838 <uart_init_with_interrupts+0x408>
    8578:	e7933001 	ldr	r3, [r3, r1]
    857c:	e15309a2 	cmp	r3, r2, lsr #19
    8580:	1a000006 	bne	85a0 <uart_init_with_interrupts+0x170>
    8584:	eb000107 	bl	89a8 <rpi_reset_putc>
    8588:	e59f02c4 	ldr	r0, [pc, #708]	; 8854 <uart_init_with_interrupts+0x424>
    858c:	e59f12b8 	ldr	r1, [pc, #696]	; 884c <uart_init_with_interrupts+0x41c>
    8590:	e59f22b8 	ldr	r2, [pc, #696]	; 8850 <uart_init_with_interrupts+0x420>
    8594:	e3a030a0 	mov	r3, #160	; 0xa0
    8598:	eb0000e7 	bl	893c <printk>
    859c:	eb000256 	bl	8efc <clean_reboot>
    85a0:	e59f3284 	ldr	r3, [pc, #644]	; 882c <uart_init_with_interrupts+0x3fc>
    85a4:	e59f2290 	ldr	r2, [pc, #656]	; 883c <uart_init_with_interrupts+0x40c>
    85a8:	e7932002 	ldr	r2, [r3, r2]
    85ac:	e59f1284 	ldr	r1, [pc, #644]	; 8838 <uart_init_with_interrupts+0x408>
    85b0:	e7933001 	ldr	r3, [r3, r1]
    85b4:	e0633002 	rsb	r3, r3, r2
    85b8:	e1b03983 	lsls	r3, r3, #19
    85bc:	0a000006 	beq	85dc <uart_init_with_interrupts+0x1ac>
    85c0:	eb0000f8 	bl	89a8 <rpi_reset_putc>
    85c4:	e59f028c 	ldr	r0, [pc, #652]	; 8858 <uart_init_with_interrupts+0x428>
    85c8:	e59f127c 	ldr	r1, [pc, #636]	; 884c <uart_init_with_interrupts+0x41c>
    85cc:	e59f227c 	ldr	r2, [pc, #636]	; 8850 <uart_init_with_interrupts+0x420>
    85d0:	e3a030a1 	mov	r3, #161	; 0xa1
    85d4:	eb0000d8 	bl	893c <printk>
    85d8:	eb000247 	bl	8efc <clean_reboot>
    85dc:	e59f3248 	ldr	r3, [pc, #584]	; 882c <uart_init_with_interrupts+0x3fc>
    85e0:	e59f2254 	ldr	r2, [pc, #596]	; 883c <uart_init_with_interrupts+0x40c>
    85e4:	e7932002 	ldr	r2, [r3, r2]
    85e8:	e59f1248 	ldr	r1, [pc, #584]	; 8838 <uart_init_with_interrupts+0x408>
    85ec:	e7933001 	ldr	r3, [r3, r1]
    85f0:	e1520003 	cmp	r2, r3
    85f4:	0a00000a 	beq	8624 <uart_init_with_interrupts+0x1f4>
    85f8:	e59f322c 	ldr	r3, [pc, #556]	; 882c <uart_init_with_interrupts+0x3fc>
    85fc:	e1a02001 	mov	r2, r1
    8600:	e7931001 	ldr	r1, [r3, r1]
    8604:	e7d30001 	ldrb	r0, [r3, r1]
    8608:	e6ef0070 	uxtb	r0, r0
    860c:	e2811001 	add	r1, r1, #1
    8610:	e1a01981 	lsl	r1, r1, #19
    8614:	e1a019a1 	lsr	r1, r1, #19
    8618:	e7831002 	str	r1, [r3, r2]
    861c:	e3a03001 	mov	r3, #1
    8620:	ea000001 	b	862c <uart_init_with_interrupts+0x1fc>
    8624:	e3a00012 	mov	r0, #18
    8628:	e3a03000 	mov	r3, #0
    862c:	e3530000 	cmp	r3, #0
    8630:	1a000002 	bne	8640 <uart_init_with_interrupts+0x210>
    8634:	e3500012 	cmp	r0, #18
    8638:	0a000002 	beq	8648 <uart_init_with_interrupts+0x218>
    863c:	ea000002 	b	864c <uart_init_with_interrupts+0x21c>
    8640:	e3a03000 	mov	r3, #0
    8644:	ea000000 	b	864c <uart_init_with_interrupts+0x21c>
    8648:	e3a03001 	mov	r3, #1
    864c:	e3530000 	cmp	r3, #0
    8650:	1a000006 	bne	8670 <uart_init_with_interrupts+0x240>
    8654:	eb0000d3 	bl	89a8 <rpi_reset_putc>
    8658:	e59f01fc 	ldr	r0, [pc, #508]	; 885c <uart_init_with_interrupts+0x42c>
    865c:	e59f11e8 	ldr	r1, [pc, #488]	; 884c <uart_init_with_interrupts+0x41c>
    8660:	e59f21e8 	ldr	r2, [pc, #488]	; 8850 <uart_init_with_interrupts+0x420>
    8664:	e3a030a3 	mov	r3, #163	; 0xa3
    8668:	eb0000b3 	bl	893c <printk>
    866c:	eb000222 	bl	8efc <clean_reboot>
    8670:	e59f41a0 	ldr	r4, [pc, #416]	; 8818 <uart_init_with_interrupts+0x3e8>
    8674:	e2840028 	add	r0, r4, #40	; 0x28
    8678:	e3a01000 	mov	r1, #0
    867c:	e59f21ac 	ldr	r2, [pc, #428]	; 8830 <uart_init_with_interrupts+0x400>
    8680:	eb0000a5 	bl	891c <memset>
    8684:	e59f21a8 	ldr	r2, [pc, #424]	; 8834 <uart_init_with_interrupts+0x404>
    8688:	e59f31d0 	ldr	r3, [pc, #464]	; 8860 <uart_init_with_interrupts+0x430>
    868c:	e7842003 	str	r2, [r4, r3]
    8690:	e59f21cc 	ldr	r2, [pc, #460]	; 8864 <uart_init_with_interrupts+0x434>
    8694:	e3a03000 	mov	r3, #0
    8698:	e7843002 	str	r3, [r4, r2]
    869c:	e59f11c4 	ldr	r1, [pc, #452]	; 8868 <uart_init_with_interrupts+0x438>
    86a0:	e7843001 	str	r3, [r4, r1]
    86a4:	e59f01c0 	ldr	r0, [pc, #448]	; 886c <uart_init_with_interrupts+0x43c>
    86a8:	e7843000 	str	r3, [r4, r0]
    86ac:	e59f31bc 	ldr	r3, [pc, #444]	; 8870 <uart_init_with_interrupts+0x440>
    86b0:	e7d40003 	ldrb	r0, [r4, r3]
    86b4:	e3800001 	orr	r0, r0, #1
    86b8:	e7c40003 	strb	r0, [r4, r3]
    86bc:	e7941001 	ldr	r1, [r4, r1]
    86c0:	e7943002 	ldr	r3, [r4, r2]
    86c4:	e1510003 	cmp	r1, r3
    86c8:	0a000006 	beq	86e8 <uart_init_with_interrupts+0x2b8>
    86cc:	eb0000b5 	bl	89a8 <rpi_reset_putc>
    86d0:	e59f0170 	ldr	r0, [pc, #368]	; 8848 <uart_init_with_interrupts+0x418>
    86d4:	e59f1170 	ldr	r1, [pc, #368]	; 884c <uart_init_with_interrupts+0x41c>
    86d8:	e59f2170 	ldr	r2, [pc, #368]	; 8850 <uart_init_with_interrupts+0x420>
    86dc:	e3a0309f 	mov	r3, #159	; 0x9f
    86e0:	eb000095 	bl	893c <printk>
    86e4:	eb000204 	bl	8efc <clean_reboot>
    86e8:	e59f3128 	ldr	r3, [pc, #296]	; 8818 <uart_init_with_interrupts+0x3e8>
    86ec:	e59f2174 	ldr	r2, [pc, #372]	; 8868 <uart_init_with_interrupts+0x438>
    86f0:	e7932002 	ldr	r2, [r3, r2]
    86f4:	e2822001 	add	r2, r2, #1
    86f8:	e1a02982 	lsl	r2, r2, #19
    86fc:	e59f1160 	ldr	r1, [pc, #352]	; 8864 <uart_init_with_interrupts+0x434>
    8700:	e7933001 	ldr	r3, [r3, r1]
    8704:	e15309a2 	cmp	r3, r2, lsr #19
    8708:	1a000006 	bne	8728 <uart_init_with_interrupts+0x2f8>
    870c:	eb0000a5 	bl	89a8 <rpi_reset_putc>
    8710:	e59f013c 	ldr	r0, [pc, #316]	; 8854 <uart_init_with_interrupts+0x424>
    8714:	e59f1130 	ldr	r1, [pc, #304]	; 884c <uart_init_with_interrupts+0x41c>
    8718:	e59f2130 	ldr	r2, [pc, #304]	; 8850 <uart_init_with_interrupts+0x420>
    871c:	e3a030a0 	mov	r3, #160	; 0xa0
    8720:	eb000085 	bl	893c <printk>
    8724:	eb0001f4 	bl	8efc <clean_reboot>
    8728:	e59f30e8 	ldr	r3, [pc, #232]	; 8818 <uart_init_with_interrupts+0x3e8>
    872c:	e59f2134 	ldr	r2, [pc, #308]	; 8868 <uart_init_with_interrupts+0x438>
    8730:	e7932002 	ldr	r2, [r3, r2]
    8734:	e59f1128 	ldr	r1, [pc, #296]	; 8864 <uart_init_with_interrupts+0x434>
    8738:	e7933001 	ldr	r3, [r3, r1]
    873c:	e0633002 	rsb	r3, r3, r2
    8740:	e1b03983 	lsls	r3, r3, #19
    8744:	0a000006 	beq	8764 <uart_init_with_interrupts+0x334>
    8748:	eb000096 	bl	89a8 <rpi_reset_putc>
    874c:	e59f0104 	ldr	r0, [pc, #260]	; 8858 <uart_init_with_interrupts+0x428>
    8750:	e59f10f4 	ldr	r1, [pc, #244]	; 884c <uart_init_with_interrupts+0x41c>
    8754:	e59f20f4 	ldr	r2, [pc, #244]	; 8850 <uart_init_with_interrupts+0x420>
    8758:	e3a030a1 	mov	r3, #161	; 0xa1
    875c:	eb000076 	bl	893c <printk>
    8760:	eb0001e5 	bl	8efc <clean_reboot>
    8764:	e59f30ac 	ldr	r3, [pc, #172]	; 8818 <uart_init_with_interrupts+0x3e8>
    8768:	e59f20f8 	ldr	r2, [pc, #248]	; 8868 <uart_init_with_interrupts+0x438>
    876c:	e7932002 	ldr	r2, [r3, r2]
    8770:	e59f10ec 	ldr	r1, [pc, #236]	; 8864 <uart_init_with_interrupts+0x434>
    8774:	e7933001 	ldr	r3, [r3, r1]
    8778:	e1520003 	cmp	r2, r3
    877c:	0a00000b 	beq	87b0 <uart_init_with_interrupts+0x380>
    8780:	e59f3090 	ldr	r3, [pc, #144]	; 8818 <uart_init_with_interrupts+0x3e8>
    8784:	e1a02001 	mov	r2, r1
    8788:	e7931001 	ldr	r1, [r3, r1]
    878c:	e0830001 	add	r0, r3, r1
    8790:	e5d00028 	ldrb	r0, [r0, #40]	; 0x28
    8794:	e6ef0070 	uxtb	r0, r0
    8798:	e2811001 	add	r1, r1, #1
    879c:	e1a01981 	lsl	r1, r1, #19
    87a0:	e1a019a1 	lsr	r1, r1, #19
    87a4:	e7831002 	str	r1, [r3, r2]
    87a8:	e3a03001 	mov	r3, #1
    87ac:	ea000001 	b	87b8 <uart_init_with_interrupts+0x388>
    87b0:	e3a00012 	mov	r0, #18
    87b4:	e3a03000 	mov	r3, #0
    87b8:	e3530000 	cmp	r3, #0
    87bc:	1a000002 	bne	87cc <uart_init_with_interrupts+0x39c>
    87c0:	e3500012 	cmp	r0, #18
    87c4:	0a000002 	beq	87d4 <uart_init_with_interrupts+0x3a4>
    87c8:	ea000002 	b	87d8 <uart_init_with_interrupts+0x3a8>
    87cc:	e3a03000 	mov	r3, #0
    87d0:	ea000000 	b	87d8 <uart_init_with_interrupts+0x3a8>
    87d4:	e3a03001 	mov	r3, #1
    87d8:	e3530000 	cmp	r3, #0
    87dc:	1a000006 	bne	87fc <uart_init_with_interrupts+0x3cc>
    87e0:	eb000070 	bl	89a8 <rpi_reset_putc>
    87e4:	e59f0070 	ldr	r0, [pc, #112]	; 885c <uart_init_with_interrupts+0x42c>
    87e8:	e59f105c 	ldr	r1, [pc, #92]	; 884c <uart_init_with_interrupts+0x41c>
    87ec:	e59f205c 	ldr	r2, [pc, #92]	; 8850 <uart_init_with_interrupts+0x420>
    87f0:	e3a030a3 	mov	r3, #163	; 0xa3
    87f4:	eb000050 	bl	893c <printk>
    87f8:	eb0001bf 	bl	8efc <clean_reboot>
    87fc:	e59f3014 	ldr	r3, [pc, #20]	; 8818 <uart_init_with_interrupts+0x3e8>
    8800:	e5930020 	ldr	r0, [r3, #32]
    8804:	e3a0100d 	mov	r1, #13
    8808:	eb000602 	bl	a018 <put32>
    880c:	eb0005fb 	bl	a000 <dev_barrier>
    8810:	e8bd8010 	pop	{r4, pc}
    8814:	20215004 	eorcs	r5, r1, r4
    8818:	0000c728 	andeq	ip, r0, r8, lsr #14
    881c:	20215040 	eorcs	r5, r1, r0, asr #32
    8820:	20215060 	eorcs	r5, r1, r0, rrx
    8824:	0000010e 	andeq	r0, r0, lr, lsl #2
    8828:	2000b210 	andcs	fp, r0, r0, lsl r2
    882c:	0000a730 	andeq	sl, r0, r0, lsr r7
    8830:	00002014 	andeq	r2, r0, r4, lsl r0
    8834:	12345678 	eorsne	r5, r4, #120, 12	; 0x7800000
    8838:	00002008 	andeq	r2, r0, r8
    883c:	00002004 	andeq	r2, r0, r4
    8840:	0000200c 	andeq	r2, r0, ip
    8844:	00002010 	andeq	r2, r0, r0, lsl r0
    8848:	0000a230 	andeq	sl, r0, r0, lsr r2
    884c:	0000a24c 	andeq	sl, r0, ip, asr #4
    8850:	0000a228 	andeq	sl, r0, r8, lsr #4
    8854:	0000a2a0 	andeq	sl, r0, r0, lsr #5
    8858:	0000a2bc 			; <UNDEFINED> instruction: 0x0000a2bc
    885c:	0000a2e0 	andeq	sl, r0, r0, ror #5
    8860:	00002028 	andeq	r2, r0, r8, lsr #32
    8864:	00002030 	andeq	r2, r0, r0, lsr r0
    8868:	0000202c 	andeq	r2, r0, ip, lsr #32
    886c:	00002034 	andeq	r2, r0, r4, lsr r0
    8870:	00002038 	andeq	r2, r0, r8, lsr r0

00008874 <notmain>:
    8874:	e92d4030 	push	{r4, r5, lr}
    8878:	e24dd01c 	sub	sp, sp, #28
    887c:	eb00055f 	bl	9e00 <int_init>
    8880:	ebfffeea 	bl	8430 <uart_init_with_interrupts>
    8884:	eb0005f6 	bl	a064 <system_enable_interrupts>
    8888:	e59f3078 	ldr	r3, [pc, #120]	; 8908 <notmain+0x94>
    888c:	e58d3000 	str	r3, [sp]
    8890:	e28d000c 	add	r0, sp, #12
    8894:	e3a01014 	mov	r1, #20
    8898:	e3a02015 	mov	r2, #21
    889c:	e59f3068 	ldr	r3, [pc, #104]	; 890c <notmain+0x98>
    88a0:	eb000483 	bl	9ab4 <sw_uart_init_helper>
    88a4:	e59f0064 	ldr	r0, [pc, #100]	; 8910 <notmain+0x9c>
    88a8:	eb000023 	bl	893c <printk>
    88ac:	e3a05000 	mov	r5, #0
    88b0:	ea00000d 	b	88ec <notmain+0x78>
    88b4:	ebfffeb2 	bl	8384 <uart_getc_int>
    88b8:	e1a04000 	mov	r4, r0
    88bc:	eb0005ec 	bl	a074 <system_disable_interrupts>
    88c0:	e28d000c 	add	r0, sp, #12
    88c4:	e6ef1074 	uxtb	r1, r4
    88c8:	eb00036f 	bl	968c <sw_uart_putc>
    88cc:	eb0005e4 	bl	a064 <system_enable_interrupts>
    88d0:	e1a00004 	mov	r0, r4
    88d4:	ebfffe8b 	bl	8308 <uart_putc_int>
    88d8:	e354000a 	cmp	r4, #10
    88dc:	02855001 	addeq	r5, r5, #1
    88e0:	ebfffdca 	bl	8010 <uart_has_data_int>
    88e4:	e3500000 	cmp	r0, #0
    88e8:	1afffff1 	bne	88b4 <notmain+0x40>
    88ec:	e3550009 	cmp	r5, #9
    88f0:	dafffffa 	ble	88e0 <notmain+0x6c>
    88f4:	e59f0018 	ldr	r0, [pc, #24]	; 8914 <notmain+0xa0>
    88f8:	eb00000f 	bl	893c <printk>
    88fc:	e59f0014 	ldr	r0, [pc, #20]	; 8918 <notmain+0xa4>
    8900:	eb00000d 	bl	893c <printk>
    8904:	eb00017c 	bl	8efc <clean_reboot>
    8908:	000017bc 			; <UNDEFINED> instruction: 0x000017bc
    890c:	0001c200 	andeq	ip, r1, r0, lsl #4
    8910:	0000a318 	andeq	sl, r0, r8, lsl r3
    8914:	0000a33c 	andeq	sl, r0, ip, lsr r3
    8918:	0000a354 	andeq	sl, r0, r4, asr r3

0000891c <memset>:
    891c:	e0802002 	add	r2, r0, r2
    8920:	e1a03000 	mov	r3, r0
    8924:	ea000001 	b	8930 <memset+0x14>
    8928:	e5c31000 	strb	r1, [r3]
    892c:	e2833001 	add	r3, r3, #1
    8930:	e1530002 	cmp	r3, r2
    8934:	3afffffb 	bcc	8928 <memset+0xc>
    8938:	e12fff1e 	bx	lr

0000893c <printk>:
    893c:	e92d000f 	push	{r0, r1, r2, r3}
    8940:	e92d4030 	push	{r4, r5, lr}
    8944:	e24dd00c 	sub	sp, sp, #12
    8948:	e28d301c 	add	r3, sp, #28
    894c:	e58d3004 	str	r3, [sp, #4]
    8950:	e59f4034 	ldr	r4, [pc, #52]	; 898c <printk+0x50>
    8954:	e1a00004 	mov	r0, r4
    8958:	e3a01b01 	mov	r1, #1024	; 0x400
    895c:	e59d2018 	ldr	r2, [sp, #24]
    8960:	eb0000c3 	bl	8c74 <va_printk>
    8964:	e1a05000 	mov	r5, r0
    8968:	e59f3020 	ldr	r3, [pc, #32]	; 8990 <printk+0x54>
    896c:	e5933000 	ldr	r3, [r3]
    8970:	e1a00004 	mov	r0, r4
    8974:	e12fff33 	blx	r3
    8978:	e1a00005 	mov	r0, r5
    897c:	e28dd00c 	add	sp, sp, #12
    8980:	e8bd4030 	pop	{r4, r5, lr}
    8984:	e28dd010 	add	sp, sp, #16
    8988:	e12fff1e 	bx	lr
    898c:	0000e764 	andeq	lr, r0, r4, ror #14
    8990:	0000a190 	muleq	r0, r0, r1

00008994 <internal_putchar>:
    8994:	e92d4010 	push	{r4, lr}
    8998:	e1a04000 	mov	r4, r0
    899c:	eb000501 	bl	9da8 <uart_putc>
    89a0:	e1a00004 	mov	r0, r4
    89a4:	e8bd8010 	pop	{r4, pc}

000089a8 <rpi_reset_putc>:
    89a8:	e59f2008 	ldr	r2, [pc, #8]	; 89b8 <rpi_reset_putc+0x10>
    89ac:	e59f3008 	ldr	r3, [pc, #8]	; 89bc <rpi_reset_putc+0x14>
    89b0:	e5832000 	str	r2, [r3]
    89b4:	e12fff1e 	bx	lr
    89b8:	00008994 	muleq	r0, r4, r9
    89bc:	0000a18c 	andeq	sl, r0, ip, lsl #3

000089c0 <rpi_set_putc>:
    89c0:	e59f3004 	ldr	r3, [pc, #4]	; 89cc <rpi_set_putc+0xc>
    89c4:	e5830000 	str	r0, [r3]
    89c8:	e12fff1e 	bx	lr
    89cc:	0000a18c 	andeq	sl, r0, ip, lsl #3

000089d0 <internal_putk>:
    89d0:	e92d4038 	push	{r3, r4, r5, lr}
    89d4:	e1a04000 	mov	r4, r0
    89d8:	e59f5020 	ldr	r5, [pc, #32]	; 8a00 <internal_putk+0x30>
    89dc:	ea000002 	b	89ec <internal_putk+0x1c>
    89e0:	e5953000 	ldr	r3, [r5]
    89e4:	e12fff33 	blx	r3
    89e8:	e2844001 	add	r4, r4, #1
    89ec:	e5d40000 	ldrb	r0, [r4]
    89f0:	e3500000 	cmp	r0, #0
    89f4:	1afffff9 	bne	89e0 <internal_putk+0x10>
    89f8:	e3a00001 	mov	r0, #1
    89fc:	e8bd8038 	pop	{r3, r4, r5, pc}
    8a00:	0000a18c 	andeq	sl, r0, ip, lsl #3

00008a04 <isdigit>:
    8a04:	e2400030 	sub	r0, r0, #48	; 0x30
    8a08:	e3500009 	cmp	r0, #9
    8a0c:	83a00000 	movhi	r0, #0
    8a10:	93a00001 	movls	r0, #1
    8a14:	e12fff1e 	bx	lr

00008a18 <pad>:
    8a18:	e0611000 	rsb	r1, r1, r0
    8a1c:	e3a03020 	mov	r3, #32
    8a20:	ea000002 	b	8a30 <pad+0x18>
    8a24:	e5c03000 	strb	r3, [r0]
    8a28:	e2811001 	add	r1, r1, #1
    8a2c:	e2800001 	add	r0, r0, #1
    8a30:	e1510002 	cmp	r1, r2
    8a34:	bafffffa 	blt	8a24 <pad+0xc>
    8a38:	e3a03000 	mov	r3, #0
    8a3c:	e5c03000 	strb	r3, [r0]
    8a40:	e12fff1e 	bx	lr

00008a44 <reverse>:
    8a44:	e063c002 	rsb	ip, r3, r2
    8a48:	e28cc001 	add	ip, ip, #1
    8a4c:	e15c0001 	cmp	ip, r1
    8a50:	c061100c 	rsbgt	r1, r1, ip
    8a54:	c0833001 	addgt	r3, r3, r1
    8a58:	e2422001 	sub	r2, r2, #1
    8a5c:	e1a01000 	mov	r1, r0
    8a60:	ea000002 	b	8a70 <reverse+0x2c>
    8a64:	e452c001 	ldrb	ip, [r2], #-1
    8a68:	e5c1c000 	strb	ip, [r1]
    8a6c:	e2811001 	add	r1, r1, #1
    8a70:	e1520003 	cmp	r2, r3
    8a74:	2afffffa 	bcs	8a64 <reverse+0x20>
    8a78:	e3a03000 	mov	r3, #0
    8a7c:	e5c13000 	strb	r3, [r1]
    8a80:	e12fff1e 	bx	lr

00008a84 <emit>:
    8a84:	e92d41f0 	push	{r4, r5, r6, r7, r8, lr}
    8a88:	e24dd040 	sub	sp, sp, #64	; 0x40
    8a8c:	e1a05001 	mov	r5, r1
    8a90:	e1a04002 	mov	r4, r2
    8a94:	e59d2058 	ldr	r2, [sp, #88]	; 0x58
    8a98:	e1520004 	cmp	r2, r4
    8a9c:	c2442001 	subgt	r2, r4, #1
    8aa0:	e1a0c003 	mov	ip, r3
    8aa4:	e2400002 	sub	r0, r0, #2
    8aa8:	e350000e 	cmp	r0, #14
    8aac:	979ff100 	ldrls	pc, [pc, r0, lsl #2]
    8ab0:	ea000042 	b	8bc0 <emit+0x13c>
    8ab4:	00008b98 	muleq	r0, r8, fp
    8ab8:	00008bc0 	andeq	r8, r0, r0, asr #23
    8abc:	00008bc0 	andeq	r8, r0, r0, asr #23
    8ac0:	00008bc0 	andeq	r8, r0, r0, asr #23
    8ac4:	00008bc0 	andeq	r8, r0, r0, asr #23
    8ac8:	00008bc0 	andeq	r8, r0, r0, asr #23
    8acc:	00008b8c 	andeq	r8, r0, ip, lsl #23
    8ad0:	00008bc0 	andeq	r8, r0, r0, asr #23
    8ad4:	00008af0 	strdeq	r8, [r0], -r0
    8ad8:	00008bc0 	andeq	r8, r0, r0, asr #23
    8adc:	00008bc0 	andeq	r8, r0, r0, asr #23
    8ae0:	00008bc0 	andeq	r8, r0, r0, asr #23
    8ae4:	00008bc0 	andeq	r8, r0, r0, asr #23
    8ae8:	00008bc0 	andeq	r8, r0, r0, asr #23
    8aec:	00008b64 	andeq	r8, r0, r4, ror #22
    8af0:	e59d105c 	ldr	r1, [sp, #92]	; 0x5c
    8af4:	e2911000 	adds	r1, r1, #0
    8af8:	13a01001 	movne	r1, #1
    8afc:	e0111fa3 	ands	r1, r1, r3, lsr #31
    8b00:	1263c000 	rsbne	ip, r3, #0
    8b04:	13a08001 	movne	r8, #1
    8b08:	03a08000 	moveq	r8, #0
    8b0c:	e1a0100d 	mov	r1, sp
    8b10:	e59f70ec 	ldr	r7, [pc, #236]	; 8c04 <emit+0x180>
    8b14:	e59f60ec 	ldr	r6, [pc, #236]	; 8c08 <emit+0x184>
    8b18:	ea000000 	b	8b20 <emit+0x9c>
    8b1c:	e1a01003 	mov	r1, r3
    8b20:	e2813001 	add	r3, r1, #1
    8b24:	e08e0c97 	umull	r0, lr, r7, ip
    8b28:	e1a0e1ae 	lsr	lr, lr, #3
    8b2c:	e1a0000e 	mov	r0, lr
    8b30:	e08ee10e 	add	lr, lr, lr, lsl #2
    8b34:	e1a0e08e 	lsl	lr, lr, #1
    8b38:	e06ee00c 	rsb	lr, lr, ip
    8b3c:	e7d6c00e 	ldrb	ip, [r6, lr]
    8b40:	e5c1c000 	strb	ip, [r1]
    8b44:	e1a0c000 	mov	ip, r0
    8b48:	e3500000 	cmp	r0, #0
    8b4c:	1afffff2 	bne	8b1c <emit+0x98>
    8b50:	e3580000 	cmp	r8, #0
    8b54:	12813002 	addne	r3, r1, #2
    8b58:	13a0002d 	movne	r0, #45	; 0x2d
    8b5c:	15c10001 	strbne	r0, [r1, #1]
    8b60:	ea00001d 	b	8bdc <emit+0x158>
    8b64:	e1a0e00d 	mov	lr, sp
    8b68:	e59f009c 	ldr	r0, [pc, #156]	; 8c0c <emit+0x188>
    8b6c:	e28e3001 	add	r3, lr, #1
    8b70:	e20c100f 	and	r1, ip, #15
    8b74:	e7d01001 	ldrb	r1, [r0, r1]
    8b78:	e5ce1000 	strb	r1, [lr]
    8b7c:	e1a0e003 	mov	lr, r3
    8b80:	e1b0c22c 	lsrs	ip, ip, #4
    8b84:	1afffff8 	bne	8b6c <emit+0xe8>
    8b88:	ea000013 	b	8bdc <emit+0x158>
    8b8c:	e5cd3000 	strb	r3, [sp]
    8b90:	e28d3001 	add	r3, sp, #1
    8b94:	ea000010 	b	8bdc <emit+0x158>
    8b98:	e1a0e00d 	mov	lr, sp
    8b9c:	e59f006c 	ldr	r0, [pc, #108]	; 8c10 <emit+0x18c>
    8ba0:	e28e3001 	add	r3, lr, #1
    8ba4:	e20c1001 	and	r1, ip, #1
    8ba8:	e7d01001 	ldrb	r1, [r0, r1]
    8bac:	e5ce1000 	strb	r1, [lr]
    8bb0:	e1a0e003 	mov	lr, r3
    8bb4:	e1b0c0ac 	lsrs	ip, ip, #1
    8bb8:	1afffff8 	bne	8ba0 <emit+0x11c>
    8bbc:	ea000006 	b	8bdc <emit+0x158>
    8bc0:	ebffff78 	bl	89a8 <rpi_reset_putc>
    8bc4:	e59f0048 	ldr	r0, [pc, #72]	; 8c14 <emit+0x190>
    8bc8:	e59f1048 	ldr	r1, [pc, #72]	; 8c18 <emit+0x194>
    8bcc:	e59f2048 	ldr	r2, [pc, #72]	; 8c1c <emit+0x198>
    8bd0:	e3a03075 	mov	r3, #117	; 0x75
    8bd4:	ebffff58 	bl	893c <printk>
    8bd8:	eb0000c7 	bl	8efc <clean_reboot>
    8bdc:	e1a00003 	mov	r0, r3
    8be0:	e1a0100d 	mov	r1, sp
    8be4:	ebffff8b 	bl	8a18 <pad>
    8be8:	e1a02000 	mov	r2, r0
    8bec:	e1a00005 	mov	r0, r5
    8bf0:	e1a01004 	mov	r1, r4
    8bf4:	e1a0300d 	mov	r3, sp
    8bf8:	ebffff91 	bl	8a44 <reverse>
    8bfc:	e28dd040 	add	sp, sp, #64	; 0x40
    8c00:	e8bd81f0 	pop	{r4, r5, r6, r7, r8, pc}
    8c04:	cccccccd 	stclgt	12, cr12, [ip], {205}	; 0xcd
    8c08:	0000a3ac 	andeq	sl, r0, ip, lsr #7
    8c0c:	0000a3b8 			; <UNDEFINED> instruction: 0x0000a3b8
    8c10:	0000a3cc 	andeq	sl, r0, ip, asr #7
    8c14:	0000a384 	andeq	sl, r0, r4, lsl #7
    8c18:	0000a398 	muleq	r0, r8, r3
    8c1c:	0000a360 	andeq	sl, r0, r0, ror #6

00008c20 <rpi_set_output>:
    8c20:	e92d4008 	push	{r3, lr}
    8c24:	e3500000 	cmp	r0, #0
    8c28:	1a000006 	bne	8c48 <rpi_set_output+0x28>
    8c2c:	ebffff5d 	bl	89a8 <rpi_reset_putc>
    8c30:	e59f0028 	ldr	r0, [pc, #40]	; 8c60 <rpi_set_output+0x40>
    8c34:	e59f1028 	ldr	r1, [pc, #40]	; 8c64 <rpi_set_output+0x44>
    8c38:	e59f2028 	ldr	r2, [pc, #40]	; 8c68 <rpi_set_output+0x48>
    8c3c:	e3a03020 	mov	r3, #32
    8c40:	ebffff3d 	bl	893c <printk>
    8c44:	eb0000ac 	bl	8efc <clean_reboot>
    8c48:	e59f301c 	ldr	r3, [pc, #28]	; 8c6c <rpi_set_output+0x4c>
    8c4c:	e5830000 	str	r0, [r3]
    8c50:	e3510000 	cmp	r1, #0
    8c54:	159f3014 	ldrne	r3, [pc, #20]	; 8c70 <rpi_set_output+0x50>
    8c58:	15831000 	strne	r1, [r3]
    8c5c:	e8bd8008 	pop	{r3, pc}
    8c60:	0000a3d0 	ldrdeq	sl, [r0], -r0
    8c64:	0000a398 	muleq	r0, r8, r3
    8c68:	0000a368 	andeq	sl, r0, r8, ror #6
    8c6c:	0000a18c 	andeq	sl, r0, ip, lsl #3
    8c70:	0000a190 	muleq	r0, r0, r1

00008c74 <va_printk>:
    8c74:	e92d4ff0 	push	{r4, r5, r6, r7, r8, r9, sl, fp, lr}
    8c78:	e24dd08c 	sub	sp, sp, #140	; 0x8c
    8c7c:	e1a0a000 	mov	sl, r0
    8c80:	e1a09003 	mov	r9, r3
    8c84:	e2411001 	sub	r1, r1, #1
    8c88:	e0808001 	add	r8, r0, r1
    8c8c:	e3a03000 	mov	r3, #0
    8c90:	e5c03000 	strb	r3, [r0]
    8c94:	e1a04000 	mov	r4, r0
    8c98:	e1a0b003 	mov	fp, r3
    8c9c:	ea000086 	b	8ebc <va_printk+0x248>
    8ca0:	e3530025 	cmp	r3, #37	; 0x25
    8ca4:	12822001 	addne	r2, r2, #1
    8ca8:	15c43000 	strbne	r3, [r4]
    8cac:	12844001 	addne	r4, r4, #1
    8cb0:	1a000081 	bne	8ebc <va_printk+0x248>
    8cb4:	e5d21001 	ldrb	r1, [r2, #1]
    8cb8:	e3510025 	cmp	r1, #37	; 0x25
    8cbc:	05c43000 	strbeq	r3, [r4]
    8cc0:	02822002 	addeq	r2, r2, #2
    8cc4:	02844001 	addeq	r4, r4, #1
    8cc8:	0a00007b 	beq	8ebc <va_printk+0x248>
    8ccc:	e2826001 	add	r6, r2, #1
    8cd0:	e1a0700b 	mov	r7, fp
    8cd4:	ea000004 	b	8cec <va_printk+0x78>
    8cd8:	e0877107 	add	r7, r7, r7, lsl #2
    8cdc:	e1a07087 	lsl	r7, r7, #1
    8ce0:	e0877005 	add	r7, r7, r5
    8ce4:	e2477030 	sub	r7, r7, #48	; 0x30
    8ce8:	e2866001 	add	r6, r6, #1
    8cec:	e5d65000 	ldrb	r5, [r6]
    8cf0:	e1a00005 	mov	r0, r5
    8cf4:	ebffff42 	bl	8a04 <isdigit>
    8cf8:	e3500000 	cmp	r0, #0
    8cfc:	1afffff5 	bne	8cd8 <va_printk+0x64>
    8d00:	e357001f 	cmp	r7, #31
    8d04:	9a000006 	bls	8d24 <va_printk+0xb0>
    8d08:	ebffff26 	bl	89a8 <rpi_reset_putc>
    8d0c:	e59f01d4 	ldr	r0, [pc, #468]	; 8ee8 <va_printk+0x274>
    8d10:	e59f11d4 	ldr	r1, [pc, #468]	; 8eec <va_printk+0x278>
    8d14:	e59f21d4 	ldr	r2, [pc, #468]	; 8ef0 <va_printk+0x27c>
    8d18:	e3a03092 	mov	r3, #146	; 0x92
    8d1c:	ebffff06 	bl	893c <printk>
    8d20:	eb000075 	bl	8efc <clean_reboot>
    8d24:	e2455062 	sub	r5, r5, #98	; 0x62
    8d28:	e3550016 	cmp	r5, #22
    8d2c:	979ff105 	ldrls	pc, [pc, r5, lsl #2]
    8d30:	ea00004e 	b	8e70 <va_printk+0x1fc>
    8d34:	00008e1c 	andeq	r8, r0, ip, lsl lr
    8d38:	00008e4c 	andeq	r8, r0, ip, asr #28
    8d3c:	00008dac 	andeq	r8, r0, ip, lsr #27
    8d40:	00008e70 	andeq	r8, r0, r0, ror lr
    8d44:	00008d90 	muleq	r0, r0, sp
    8d48:	00008e70 	andeq	r8, r0, r0, ror lr
    8d4c:	00008e70 	andeq	r8, r0, r0, ror lr
    8d50:	00008e70 	andeq	r8, r0, r0, ror lr
    8d54:	00008e70 	andeq	r8, r0, r0, ror lr
    8d58:	00008e70 	andeq	r8, r0, r0, ror lr
    8d5c:	00008e70 	andeq	r8, r0, r0, ror lr
    8d60:	00008e70 	andeq	r8, r0, r0, ror lr
    8d64:	00008e70 	andeq	r8, r0, r0, ror lr
    8d68:	00008e70 	andeq	r8, r0, r0, ror lr
    8d6c:	00008df8 	strdeq	r8, [r0], -r8	; <UNPREDICTABLE>
    8d70:	00008e70 	andeq	r8, r0, r0, ror lr
    8d74:	00008e70 	andeq	r8, r0, r0, ror lr
    8d78:	00008e40 	andeq	r8, r0, r0, asr #28
    8d7c:	00008e70 	andeq	r8, r0, r0, ror lr
    8d80:	00008dd4 	ldrdeq	r8, [r0], -r4
    8d84:	00008e70 	andeq	r8, r0, r0, ror lr
    8d88:	00008e70 	andeq	r8, r0, r0, ror lr
    8d8c:	00008df8 	strdeq	r8, [r0], -r8	; <UNPREDICTABLE>
    8d90:	ebffff04 	bl	89a8 <rpi_reset_putc>
    8d94:	e59f0158 	ldr	r0, [pc, #344]	; 8ef4 <va_printk+0x280>
    8d98:	e59f114c 	ldr	r1, [pc, #332]	; 8eec <va_printk+0x278>
    8d9c:	e59f214c 	ldr	r2, [pc, #332]	; 8ef0 <va_printk+0x27c>
    8da0:	e3a03098 	mov	r3, #152	; 0x98
    8da4:	ebfffee4 	bl	893c <printk>
    8da8:	eb000053 	bl	8efc <clean_reboot>
    8dac:	e5993000 	ldr	r3, [r9]
    8db0:	e2899004 	add	r9, r9, #4
    8db4:	e58d7000 	str	r7, [sp]
    8db8:	e3a02001 	mov	r2, #1
    8dbc:	e58d2004 	str	r2, [sp, #4]
    8dc0:	e3a0000a 	mov	r0, #10
    8dc4:	e28d1008 	add	r1, sp, #8
    8dc8:	e3a02080 	mov	r2, #128	; 0x80
    8dcc:	ebffff2c 	bl	8a84 <emit>
    8dd0:	ea00002f 	b	8e94 <va_printk+0x220>
    8dd4:	e5993000 	ldr	r3, [r9]
    8dd8:	e2899004 	add	r9, r9, #4
    8ddc:	e58d7000 	str	r7, [sp]
    8de0:	e58db004 	str	fp, [sp, #4]
    8de4:	e3a0000a 	mov	r0, #10
    8de8:	e28d1008 	add	r1, sp, #8
    8dec:	e3a02080 	mov	r2, #128	; 0x80
    8df0:	ebffff23 	bl	8a84 <emit>
    8df4:	ea000026 	b	8e94 <va_printk+0x220>
    8df8:	e5993000 	ldr	r3, [r9]
    8dfc:	e2899004 	add	r9, r9, #4
    8e00:	e58d7000 	str	r7, [sp]
    8e04:	e58db004 	str	fp, [sp, #4]
    8e08:	e3a00010 	mov	r0, #16
    8e0c:	e28d1008 	add	r1, sp, #8
    8e10:	e3a02080 	mov	r2, #128	; 0x80
    8e14:	ebffff1a 	bl	8a84 <emit>
    8e18:	ea00001d 	b	8e94 <va_printk+0x220>
    8e1c:	e5993000 	ldr	r3, [r9]
    8e20:	e2899004 	add	r9, r9, #4
    8e24:	e58d7000 	str	r7, [sp]
    8e28:	e58db004 	str	fp, [sp, #4]
    8e2c:	e3a00002 	mov	r0, #2
    8e30:	e28d1008 	add	r1, sp, #8
    8e34:	e3a02080 	mov	r2, #128	; 0x80
    8e38:	ebffff11 	bl	8a84 <emit>
    8e3c:	ea000014 	b	8e94 <va_printk+0x220>
    8e40:	e5990000 	ldr	r0, [r9]
    8e44:	e2899004 	add	r9, r9, #4
    8e48:	ea000011 	b	8e94 <va_printk+0x220>
    8e4c:	e5993000 	ldr	r3, [r9]
    8e50:	e2899004 	add	r9, r9, #4
    8e54:	e58d7000 	str	r7, [sp]
    8e58:	e58db004 	str	fp, [sp, #4]
    8e5c:	e3a00008 	mov	r0, #8
    8e60:	e08d1000 	add	r1, sp, r0
    8e64:	e3a02080 	mov	r2, #128	; 0x80
    8e68:	ebffff05 	bl	8a84 <emit>
    8e6c:	ea000008 	b	8e94 <va_printk+0x220>
    8e70:	ebfffecc 	bl	89a8 <rpi_reset_putc>
    8e74:	e5d63000 	ldrb	r3, [r6]
    8e78:	e58d3000 	str	r3, [sp]
    8e7c:	e59f0074 	ldr	r0, [pc, #116]	; 8ef8 <va_printk+0x284>
    8e80:	e59f1064 	ldr	r1, [pc, #100]	; 8eec <va_printk+0x278>
    8e84:	e59f2064 	ldr	r2, [pc, #100]	; 8ef0 <va_printk+0x27c>
    8e88:	e3a030b9 	mov	r3, #185	; 0xb9
    8e8c:	ebfffeaa 	bl	893c <printk>
    8e90:	eb000019 	bl	8efc <clean_reboot>
    8e94:	e2862001 	add	r2, r6, #1
    8e98:	ea000002 	b	8ea8 <va_printk+0x234>
    8e9c:	e2800001 	add	r0, r0, #1
    8ea0:	e5c43000 	strb	r3, [r4]
    8ea4:	e2844001 	add	r4, r4, #1
    8ea8:	e1540008 	cmp	r4, r8
    8eac:	2a000002 	bcs	8ebc <va_printk+0x248>
    8eb0:	e5d03000 	ldrb	r3, [r0]
    8eb4:	e3530000 	cmp	r3, #0
    8eb8:	1afffff7 	bne	8e9c <va_printk+0x228>
    8ebc:	e5d23000 	ldrb	r3, [r2]
    8ec0:	e3530000 	cmp	r3, #0
    8ec4:	0a000001 	beq	8ed0 <va_printk+0x25c>
    8ec8:	e1540008 	cmp	r4, r8
    8ecc:	3affff73 	bcc	8ca0 <va_printk+0x2c>
    8ed0:	e2840001 	add	r0, r4, #1
    8ed4:	e3a03000 	mov	r3, #0
    8ed8:	e5c43000 	strb	r3, [r4]
    8edc:	e06a0000 	rsb	r0, sl, r0
    8ee0:	e28dd08c 	add	sp, sp, #140	; 0x8c
    8ee4:	e8bd8ff0 	pop	{r4, r5, r6, r7, r8, r9, sl, fp, pc}
    8ee8:	0000a3e8 	andeq	sl, r0, r8, ror #7
    8eec:	0000a398 	muleq	r0, r8, r3
    8ef0:	0000a378 	andeq	sl, r0, r8, ror r3
    8ef4:	0000a404 	andeq	sl, r0, r4, lsl #8
    8ef8:	0000a42c 	andeq	sl, r0, ip, lsr #8

00008efc <clean_reboot>:
    8efc:	e92d4008 	push	{r3, lr}
    8f00:	e59f3014 	ldr	r3, [pc, #20]	; 8f1c <clean_reboot+0x20>
    8f04:	e5933000 	ldr	r3, [r3]
    8f08:	e59f0010 	ldr	r0, [pc, #16]	; 8f20 <clean_reboot+0x24>
    8f0c:	e12fff33 	blx	r3
    8f10:	e3a00064 	mov	r0, #100	; 0x64
    8f14:	eb000063 	bl	90a8 <delay_ms>
    8f18:	eb000038 	bl	9000 <rpi_reboot>
    8f1c:	0000a190 	muleq	r0, r0, r1
    8f20:	0000a464 	andeq	sl, r0, r4, ror #8

00008f24 <internal_sw_putchar>:
    8f24:	e92d4010 	push	{r4, lr}
    8f28:	e1a04000 	mov	r4, r0
    8f2c:	e59f000c 	ldr	r0, [pc, #12]	; 8f40 <internal_sw_putchar+0x1c>
    8f30:	e6ef1074 	uxtb	r1, r4
    8f34:	eb0001d4 	bl	968c <sw_uart_putc>
    8f38:	e1a00004 	mov	r0, r4
    8f3c:	e8bd8010 	pop	{r4, pc}
    8f40:	0000eb64 	andeq	lr, r0, r4, ror #22

00008f44 <_cstart>:
    8f44:	e92d4008 	push	{r3, lr}
    8f48:	e59f3068 	ldr	r3, [pc, #104]	; 8fb8 <_cstart+0x74>
    8f4c:	e59f2068 	ldr	r2, [pc, #104]	; 8fbc <_cstart+0x78>
    8f50:	e3a01000 	mov	r1, #0
    8f54:	ea000001 	b	8f60 <_cstart+0x1c>
    8f58:	e5831000 	str	r1, [r3]
    8f5c:	e2833004 	add	r3, r3, #4
    8f60:	e1530002 	cmp	r3, r2
    8f64:	3afffffb 	bcc	8f58 <_cstart+0x14>
    8f68:	eb00047d 	bl	a164 <cb_get_block>
    8f6c:	e3500000 	cmp	r0, #0
    8f70:	0a00000e 	beq	8fb0 <_cstart+0x6c>
    8f74:	e5d02004 	ldrb	r2, [r0, #4]
    8f78:	e3520002 	cmp	r2, #2
    8f7c:	1a00000b 	bne	8fb0 <_cstart+0x6c>
    8f80:	e59f1038 	ldr	r1, [pc, #56]	; 8fc0 <_cstart+0x7c>
    8f84:	e59f2038 	ldr	r2, [pc, #56]	; 8fc4 <_cstart+0x80>
    8f88:	e5821000 	str	r1, [r2]
    8f8c:	e59fc034 	ldr	ip, [pc, #52]	; 8fc8 <_cstart+0x84>
    8f90:	e2803008 	add	r3, r0, #8
    8f94:	e8930007 	ldm	r3, {r0, r1, r2}
    8f98:	e88c0007 	stm	ip, {r0, r1, r2}
    8f9c:	e1a0000c 	mov	r0, ip
    8fa0:	e59f1024 	ldr	r1, [pc, #36]	; 8fcc <_cstart+0x88>
    8fa4:	eb00030c 	bl	9bdc <sw_uart_printk>
    8fa8:	e59f0020 	ldr	r0, [pc, #32]	; 8fd0 <_cstart+0x8c>
    8fac:	ebfffe62 	bl	893c <printk>
    8fb0:	ebfffe2f 	bl	8874 <notmain>
    8fb4:	eb000011 	bl	9000 <rpi_reboot>
    8fb8:	0000a730 	andeq	sl, r0, r0, lsr r7
    8fbc:	0000eb78 	andeq	lr, r0, r8, ror fp
    8fc0:	00008f24 	andeq	r8, r0, r4, lsr #30
    8fc4:	0000a18c 	andeq	sl, r0, ip, lsl #3
    8fc8:	0000eb64 	andeq	lr, r0, r4, ror #22
    8fcc:	0000a470 	andeq	sl, r0, r0, ror r4
    8fd0:	0000a494 	muleq	r0, r4, r4

00008fd4 <at_user_level>:
    8fd4:	e10f0000 	mrs	r0, CPSR
    8fd8:	e200001f 	and	r0, r0, #31
    8fdc:	e3500010 	cmp	r0, #16
    8fe0:	13a00000 	movne	r0, #0
    8fe4:	03a00001 	moveq	r0, #1
    8fe8:	e12fff1e 	bx	lr

00008fec <set_user_level>:
    8fec:	e10f3000 	mrs	r3, CPSR
    8ff0:	e3c3301f 	bic	r3, r3, #31
    8ff4:	e3833010 	orr	r3, r3, #16
    8ff8:	e129f003 	msr	CPSR_fc, r3
    8ffc:	e12fff1e 	bx	lr

00009000 <rpi_reboot>:
    9000:	e92d4008 	push	{r3, lr}
    9004:	ebfffff2 	bl	8fd4 <at_user_level>
    9008:	e3500000 	cmp	r0, #0
    900c:	0a000000 	beq	9014 <rpi_reboot+0x14>
    9010:	ebfffff5 	bl	8fec <set_user_level>
    9014:	e3a0001e 	mov	r0, #30
    9018:	eb000022 	bl	90a8 <delay_ms>
    901c:	e59f0014 	ldr	r0, [pc, #20]	; 9038 <rpi_reboot+0x38>
    9020:	e59f1014 	ldr	r1, [pc, #20]	; 903c <rpi_reboot+0x3c>
    9024:	eb0003fd 	bl	a020 <PUT32>
    9028:	e59f0010 	ldr	r0, [pc, #16]	; 9040 <rpi_reboot+0x40>
    902c:	e59f1010 	ldr	r1, [pc, #16]	; 9044 <rpi_reboot+0x44>
    9030:	eb0003fa 	bl	a020 <PUT32>
    9034:	eafffffe 	b	9034 <rpi_reboot+0x34>
    9038:	20100024 	andscs	r0, r0, r4, lsr #32
    903c:	5a000001 	bpl	9048 <delay_cycles>
    9040:	2010001c 	andscs	r0, r0, ip, lsl r0
    9044:	5a000020 	bpl	90cc <delay_sec+0x10>

00009048 <delay_cycles>:
    9048:	ea000001 	b	9054 <delay_cycles+0xc>
    904c:	e2811000 	add	r1, r1, #0
    9050:	e1a00003 	mov	r0, r3
    9054:	e2403001 	sub	r3, r0, #1
    9058:	e3500000 	cmp	r0, #0
    905c:	1afffffa 	bne	904c <delay_cycles+0x4>
    9060:	e12fff1e 	bx	lr

00009064 <timer_get_usec_raw>:
    9064:	e92d4008 	push	{r3, lr}
    9068:	e59f0004 	ldr	r0, [pc, #4]	; 9074 <timer_get_usec_raw+0x10>
    906c:	eb0003f7 	bl	a050 <GET32>
    9070:	e8bd8008 	pop	{r3, pc}
    9074:	20003004 	andcs	r3, r0, r4

00009078 <timer_get_usec>:
    9078:	e92d4008 	push	{r3, lr}
    907c:	ebfffff8 	bl	9064 <timer_get_usec_raw>
    9080:	e8bd8008 	pop	{r3, pc}

00009084 <delay_us>:
    9084:	e92d4038 	push	{r3, r4, r5, lr}
    9088:	e1a05000 	mov	r5, r0
    908c:	ebfffff9 	bl	9078 <timer_get_usec>
    9090:	e1a04000 	mov	r4, r0
    9094:	ebfffff7 	bl	9078 <timer_get_usec>
    9098:	e0640000 	rsb	r0, r4, r0
    909c:	e1500005 	cmp	r0, r5
    90a0:	3afffffb 	bcc	9094 <delay_us+0x10>
    90a4:	e8bd8038 	pop	{r3, r4, r5, pc}

000090a8 <delay_ms>:
    90a8:	e92d4008 	push	{r3, lr}
    90ac:	e3a03ffa 	mov	r3, #1000	; 0x3e8
    90b0:	e0000093 	mul	r0, r3, r0
    90b4:	ebfffff2 	bl	9084 <delay_us>
    90b8:	e8bd8008 	pop	{r3, pc}

000090bc <delay_sec>:
    90bc:	e92d4008 	push	{r3, lr}
    90c0:	e3a03ffa 	mov	r3, #1000	; 0x3e8
    90c4:	e0000093 	mul	r0, r3, r0
    90c8:	ebfffff6 	bl	90a8 <delay_ms>
    90cc:	e8bd8008 	pop	{r3, pc}

000090d0 <gpio_set_output>:
    90d0:	e92d4038 	push	{r3, r4, r5, lr}
    90d4:	e1a04000 	mov	r4, r0
    90d8:	e350001f 	cmp	r0, #31
    90dc:	88bd8038 	pophi	{r3, r4, r5, pc}
    90e0:	e59f30b4 	ldr	r3, [pc, #180]	; 919c <gpio_set_output+0xcc>
    90e4:	e0832093 	umull	r2, r3, r3, r0
    90e8:	e1a031a3 	lsr	r3, r3, #3
    90ec:	e3530005 	cmp	r3, #5
    90f0:	979ff103 	ldrls	pc, [pc, r3, lsl #2]
    90f4:	ea000017 	b	9158 <gpio_set_output+0x88>
    90f8:	00009110 	andeq	r9, r0, r0, lsl r1
    90fc:	0000911c 	andeq	r9, r0, ip, lsl r1
    9100:	00009128 	andeq	r9, r0, r8, lsr #2
    9104:	00009134 	andeq	r9, r0, r4, lsr r1
    9108:	00009140 	andeq	r9, r0, r0, asr #2
    910c:	0000914c 	andeq	r9, r0, ip, asr #2
    9110:	e59f3088 	ldr	r3, [pc, #136]	; 91a0 <gpio_set_output+0xd0>
    9114:	e5935000 	ldr	r5, [r3]
    9118:	ea00000f 	b	915c <gpio_set_output+0x8c>
    911c:	e59f307c 	ldr	r3, [pc, #124]	; 91a0 <gpio_set_output+0xd0>
    9120:	e5935004 	ldr	r5, [r3, #4]
    9124:	ea00000c 	b	915c <gpio_set_output+0x8c>
    9128:	e59f3070 	ldr	r3, [pc, #112]	; 91a0 <gpio_set_output+0xd0>
    912c:	e5935008 	ldr	r5, [r3, #8]
    9130:	ea000009 	b	915c <gpio_set_output+0x8c>
    9134:	e59f3064 	ldr	r3, [pc, #100]	; 91a0 <gpio_set_output+0xd0>
    9138:	e593500c 	ldr	r5, [r3, #12]
    913c:	ea000006 	b	915c <gpio_set_output+0x8c>
    9140:	e59f3058 	ldr	r3, [pc, #88]	; 91a0 <gpio_set_output+0xd0>
    9144:	e5935010 	ldr	r5, [r3, #16]
    9148:	ea000003 	b	915c <gpio_set_output+0x8c>
    914c:	e59f304c 	ldr	r3, [pc, #76]	; 91a0 <gpio_set_output+0xd0>
    9150:	e5935014 	ldr	r5, [r3, #20]
    9154:	ea000000 	b	915c <gpio_set_output+0x8c>
    9158:	e3a05000 	mov	r5, #0
    915c:	e1a00005 	mov	r0, r5
    9160:	eb0003b8 	bl	a048 <get32>
    9164:	e59f1030 	ldr	r1, [pc, #48]	; 919c <gpio_set_output+0xcc>
    9168:	e0813491 	umull	r3, r1, r1, r4
    916c:	e1a011a1 	lsr	r1, r1, #3
    9170:	e0811101 	add	r1, r1, r1, lsl #2
    9174:	e1a01081 	lsl	r1, r1, #1
    9178:	e0611004 	rsb	r1, r1, r4
    917c:	e0811081 	add	r1, r1, r1, lsl #1
    9180:	e3a03007 	mov	r3, #7
    9184:	e1c03113 	bic	r3, r0, r3, lsl r1
    9188:	e1a00005 	mov	r0, r5
    918c:	e3a02001 	mov	r2, #1
    9190:	e1831112 	orr	r1, r3, r2, lsl r1
    9194:	eb00039f 	bl	a018 <put32>
    9198:	e8bd8038 	pop	{r3, r4, r5, pc}
    919c:	cccccccd 	stclgt	12, cr12, [ip], {205}	; 0xcd
    91a0:	0000a194 	muleq	r0, r4, r1

000091a4 <gpio_set_on>:
    91a4:	e92d4008 	push	{r3, lr}
    91a8:	e350001f 	cmp	r0, #31
    91ac:	88bd8008 	pophi	{r3, pc}
    91b0:	959f3020 	ldrls	r3, [pc, #32]	; 91d8 <gpio_set_on+0x34>
    91b4:	95932018 	ldrls	r2, [r3, #24]
    91b8:	859f3018 	ldrhi	r3, [pc, #24]	; 91d8 <gpio_set_on+0x34>
    91bc:	8593201c 	ldrhi	r2, [r3, #28]
    91c0:	e200301f 	and	r3, r0, #31
    91c4:	e1a00002 	mov	r0, r2
    91c8:	e3a01001 	mov	r1, #1
    91cc:	e1a01311 	lsl	r1, r1, r3
    91d0:	eb000390 	bl	a018 <put32>
    91d4:	e8bd8008 	pop	{r3, pc}
    91d8:	0000a194 	muleq	r0, r4, r1

000091dc <gpio_set_off>:
    91dc:	e92d4008 	push	{r3, lr}
    91e0:	e350001f 	cmp	r0, #31
    91e4:	88bd8008 	pophi	{r3, pc}
    91e8:	959f3020 	ldrls	r3, [pc, #32]	; 9210 <gpio_set_off+0x34>
    91ec:	95932020 	ldrls	r2, [r3, #32]
    91f0:	859f3018 	ldrhi	r3, [pc, #24]	; 9210 <gpio_set_off+0x34>
    91f4:	85932024 	ldrhi	r2, [r3, #36]	; 0x24
    91f8:	e200301f 	and	r3, r0, #31
    91fc:	e1a00002 	mov	r0, r2
    9200:	e3a01001 	mov	r1, #1
    9204:	e1a01311 	lsl	r1, r1, r3
    9208:	eb000382 	bl	a018 <put32>
    920c:	e8bd8008 	pop	{r3, pc}
    9210:	0000a194 	muleq	r0, r4, r1

00009214 <gpio_set_input>:
    9214:	e92d4038 	push	{r3, r4, r5, lr}
    9218:	e1a04000 	mov	r4, r0
    921c:	e350001f 	cmp	r0, #31
    9220:	88bd8038 	pophi	{r3, r4, r5, pc}
    9224:	e59f30ac 	ldr	r3, [pc, #172]	; 92d8 <gpio_set_input+0xc4>
    9228:	e0832093 	umull	r2, r3, r3, r0
    922c:	e1a031a3 	lsr	r3, r3, #3
    9230:	e3530005 	cmp	r3, #5
    9234:	979ff103 	ldrls	pc, [pc, r3, lsl #2]
    9238:	ea000017 	b	929c <gpio_set_input+0x88>
    923c:	00009254 	andeq	r9, r0, r4, asr r2
    9240:	00009260 	andeq	r9, r0, r0, ror #4
    9244:	0000926c 	andeq	r9, r0, ip, ror #4
    9248:	00009278 	andeq	r9, r0, r8, ror r2
    924c:	00009284 	andeq	r9, r0, r4, lsl #5
    9250:	00009290 	muleq	r0, r0, r2
    9254:	e59f3080 	ldr	r3, [pc, #128]	; 92dc <gpio_set_input+0xc8>
    9258:	e5935000 	ldr	r5, [r3]
    925c:	ea00000f 	b	92a0 <gpio_set_input+0x8c>
    9260:	e59f3074 	ldr	r3, [pc, #116]	; 92dc <gpio_set_input+0xc8>
    9264:	e5935004 	ldr	r5, [r3, #4]
    9268:	ea00000c 	b	92a0 <gpio_set_input+0x8c>
    926c:	e59f3068 	ldr	r3, [pc, #104]	; 92dc <gpio_set_input+0xc8>
    9270:	e5935008 	ldr	r5, [r3, #8]
    9274:	ea000009 	b	92a0 <gpio_set_input+0x8c>
    9278:	e59f305c 	ldr	r3, [pc, #92]	; 92dc <gpio_set_input+0xc8>
    927c:	e593500c 	ldr	r5, [r3, #12]
    9280:	ea000006 	b	92a0 <gpio_set_input+0x8c>
    9284:	e59f3050 	ldr	r3, [pc, #80]	; 92dc <gpio_set_input+0xc8>
    9288:	e5935010 	ldr	r5, [r3, #16]
    928c:	ea000003 	b	92a0 <gpio_set_input+0x8c>
    9290:	e59f3044 	ldr	r3, [pc, #68]	; 92dc <gpio_set_input+0xc8>
    9294:	e5935014 	ldr	r5, [r3, #20]
    9298:	ea000000 	b	92a0 <gpio_set_input+0x8c>
    929c:	e3a05000 	mov	r5, #0
    92a0:	e1a00005 	mov	r0, r5
    92a4:	eb000367 	bl	a048 <get32>
    92a8:	e59f1028 	ldr	r1, [pc, #40]	; 92d8 <gpio_set_input+0xc4>
    92ac:	e0813491 	umull	r3, r1, r1, r4
    92b0:	e1a011a1 	lsr	r1, r1, #3
    92b4:	e0811101 	add	r1, r1, r1, lsl #2
    92b8:	e1a01081 	lsl	r1, r1, #1
    92bc:	e0611004 	rsb	r1, r1, r4
    92c0:	e0811081 	add	r1, r1, r1, lsl #1
    92c4:	e3a03007 	mov	r3, #7
    92c8:	e1c01113 	bic	r1, r0, r3, lsl r1
    92cc:	e1a00005 	mov	r0, r5
    92d0:	eb000350 	bl	a018 <put32>
    92d4:	e8bd8038 	pop	{r3, r4, r5, pc}
    92d8:	cccccccd 	stclgt	12, cr12, [ip], {205}	; 0xcd
    92dc:	0000a194 	muleq	r0, r4, r1

000092e0 <gpio_read>:
    92e0:	e92d4010 	push	{r4, lr}
    92e4:	e1a04000 	mov	r4, r0
    92e8:	e350001f 	cmp	r0, #31
    92ec:	8a00000b 	bhi	9320 <gpio_read+0x40>
    92f0:	8a000003 	bhi	9304 <gpio_read+0x24>
    92f4:	e59f302c 	ldr	r3, [pc, #44]	; 9328 <gpio_read+0x48>
    92f8:	e5930028 	ldr	r0, [r3, #40]	; 0x28
    92fc:	eb000351 	bl	a048 <get32>
    9300:	ea000002 	b	9310 <gpio_read+0x30>
    9304:	e59f301c 	ldr	r3, [pc, #28]	; 9328 <gpio_read+0x48>
    9308:	e593002c 	ldr	r0, [r3, #44]	; 0x2c
    930c:	eb00034d 	bl	a048 <get32>
    9310:	e204401f 	and	r4, r4, #31
    9314:	e3a03001 	mov	r3, #1
    9318:	e0000413 	and	r0, r0, r3, lsl r4
    931c:	e8bd8010 	pop	{r4, pc}
    9320:	e3e00000 	mvn	r0, #0
    9324:	e8bd8010 	pop	{r4, pc}
    9328:	0000a194 	muleq	r0, r4, r1

0000932c <gpio_write>:
    932c:	e92d4008 	push	{r3, lr}
    9330:	e350001f 	cmp	r0, #31
    9334:	88bd8008 	pophi	{r3, pc}
    9338:	e3510000 	cmp	r1, #0
    933c:	0a00000b 	beq	9370 <gpio_write+0x44>
    9340:	e350001f 	cmp	r0, #31
    9344:	88bd8008 	pophi	{r3, pc}
    9348:	959f3050 	ldrls	r3, [pc, #80]	; 93a0 <gpio_write+0x74>
    934c:	95932018 	ldrls	r2, [r3, #24]
    9350:	859f3048 	ldrhi	r3, [pc, #72]	; 93a0 <gpio_write+0x74>
    9354:	8593201c 	ldrhi	r2, [r3, #28]
    9358:	e200301f 	and	r3, r0, #31
    935c:	e1a00002 	mov	r0, r2
    9360:	e3a01001 	mov	r1, #1
    9364:	e1a01311 	lsl	r1, r1, r3
    9368:	eb00032a 	bl	a018 <put32>
    936c:	e8bd8008 	pop	{r3, pc}
    9370:	e350001f 	cmp	r0, #31
    9374:	88bd8008 	pophi	{r3, pc}
    9378:	959f3020 	ldrls	r3, [pc, #32]	; 93a0 <gpio_write+0x74>
    937c:	95932020 	ldrls	r2, [r3, #32]
    9380:	859f3018 	ldrhi	r3, [pc, #24]	; 93a0 <gpio_write+0x74>
    9384:	85932024 	ldrhi	r2, [r3, #36]	; 0x24
    9388:	e200301f 	and	r3, r0, #31
    938c:	e1a00002 	mov	r0, r2
    9390:	e3a01001 	mov	r1, #1
    9394:	e1a01311 	lsl	r1, r1, r3
    9398:	eb00031e 	bl	a018 <put32>
    939c:	e8bd8008 	pop	{r3, pc}
    93a0:	0000a194 	muleq	r0, r4, r1

000093a4 <gpio_set_function>:
    93a4:	e92d4070 	push	{r4, r5, r6, lr}
    93a8:	e1a04000 	mov	r4, r0
    93ac:	e1a05001 	mov	r5, r1
    93b0:	e3510007 	cmp	r1, #7
    93b4:	9350001f 	cmpls	r0, #31
    93b8:	88bd8070 	pophi	{r4, r5, r6, pc}
    93bc:	e59f30b0 	ldr	r3, [pc, #176]	; 9474 <gpio_set_function+0xd0>
    93c0:	e0832093 	umull	r2, r3, r3, r0
    93c4:	e1a031a3 	lsr	r3, r3, #3
    93c8:	e3530005 	cmp	r3, #5
    93cc:	979ff103 	ldrls	pc, [pc, r3, lsl #2]
    93d0:	ea000017 	b	9434 <gpio_set_function+0x90>
    93d4:	000093ec 	andeq	r9, r0, ip, ror #7
    93d8:	000093f8 	strdeq	r9, [r0], -r8
    93dc:	00009404 	andeq	r9, r0, r4, lsl #8
    93e0:	00009410 	andeq	r9, r0, r0, lsl r4
    93e4:	0000941c 	andeq	r9, r0, ip, lsl r4
    93e8:	00009428 	andeq	r9, r0, r8, lsr #8
    93ec:	e59f3084 	ldr	r3, [pc, #132]	; 9478 <gpio_set_function+0xd4>
    93f0:	e5936000 	ldr	r6, [r3]
    93f4:	ea00000f 	b	9438 <gpio_set_function+0x94>
    93f8:	e59f3078 	ldr	r3, [pc, #120]	; 9478 <gpio_set_function+0xd4>
    93fc:	e5936004 	ldr	r6, [r3, #4]
    9400:	ea00000c 	b	9438 <gpio_set_function+0x94>
    9404:	e59f306c 	ldr	r3, [pc, #108]	; 9478 <gpio_set_function+0xd4>
    9408:	e5936008 	ldr	r6, [r3, #8]
    940c:	ea000009 	b	9438 <gpio_set_function+0x94>
    9410:	e59f3060 	ldr	r3, [pc, #96]	; 9478 <gpio_set_function+0xd4>
    9414:	e593600c 	ldr	r6, [r3, #12]
    9418:	ea000006 	b	9438 <gpio_set_function+0x94>
    941c:	e59f3054 	ldr	r3, [pc, #84]	; 9478 <gpio_set_function+0xd4>
    9420:	e5936010 	ldr	r6, [r3, #16]
    9424:	ea000003 	b	9438 <gpio_set_function+0x94>
    9428:	e59f3048 	ldr	r3, [pc, #72]	; 9478 <gpio_set_function+0xd4>
    942c:	e5936014 	ldr	r6, [r3, #20]
    9430:	ea000000 	b	9438 <gpio_set_function+0x94>
    9434:	e3a06000 	mov	r6, #0
    9438:	e1a00006 	mov	r0, r6
    943c:	eb000301 	bl	a048 <get32>
    9440:	e59f302c 	ldr	r3, [pc, #44]	; 9474 <gpio_set_function+0xd0>
    9444:	e0832493 	umull	r2, r3, r3, r4
    9448:	e1a031a3 	lsr	r3, r3, #3
    944c:	e0833103 	add	r3, r3, r3, lsl #2
    9450:	e1a03083 	lsl	r3, r3, #1
    9454:	e0633004 	rsb	r3, r3, r4
    9458:	e0833083 	add	r3, r3, r3, lsl #1
    945c:	e3a01007 	mov	r1, #7
    9460:	e1c01311 	bic	r1, r0, r1, lsl r3
    9464:	e1a00006 	mov	r0, r6
    9468:	e1811315 	orr	r1, r1, r5, lsl r3
    946c:	eb0002e9 	bl	a018 <put32>
    9470:	e8bd8070 	pop	{r4, r5, r6, pc}
    9474:	cccccccd 	stclgt	12, cr12, [ip], {205}	; 0xcd
    9478:	0000a194 	muleq	r0, r4, r1

0000947c <is_gpio_int>:
    947c:	e92d4008 	push	{r3, lr}
    9480:	e59f301c 	ldr	r3, [pc, #28]	; 94a4 <is_gpio_int+0x28>
    9484:	e5930030 	ldr	r0, [r3, #48]	; 0x30
    9488:	eb0002ee 	bl	a048 <get32>
    948c:	e3500000 	cmp	r0, #0
    9490:	0a000001 	beq	949c <is_gpio_int+0x20>
    9494:	e3a00001 	mov	r0, #1
    9498:	e8bd8008 	pop	{r3, pc}
    949c:	e3a00000 	mov	r0, #0
    94a0:	e8bd8008 	pop	{r3, pc}
    94a4:	0000a194 	muleq	r0, r4, r1

000094a8 <gpio_int_rising_edge>:
    94a8:	e92d4038 	push	{r3, r4, r5, lr}
    94ac:	e1a04000 	mov	r4, r0
    94b0:	e350001f 	cmp	r0, #31
    94b4:	88bd8038 	pophi	{r3, r4, r5, pc}
    94b8:	eb0002d0 	bl	a000 <dev_barrier>
    94bc:	e354001f 	cmp	r4, #31
    94c0:	8a000007 	bhi	94e4 <gpio_int_rising_edge+0x3c>
    94c4:	e59f505c 	ldr	r5, [pc, #92]	; 9528 <gpio_int_rising_edge+0x80>
    94c8:	e5950034 	ldr	r0, [r5, #52]	; 0x34
    94cc:	eb0002dd 	bl	a048 <get32>
    94d0:	e3a01001 	mov	r1, #1
    94d4:	e1801411 	orr	r1, r0, r1, lsl r4
    94d8:	e5950034 	ldr	r0, [r5, #52]	; 0x34
    94dc:	eb0002cd 	bl	a018 <put32>
    94e0:	ea000007 	b	9504 <gpio_int_rising_edge+0x5c>
    94e4:	e59f503c 	ldr	r5, [pc, #60]	; 9528 <gpio_int_rising_edge+0x80>
    94e8:	e5950038 	ldr	r0, [r5, #56]	; 0x38
    94ec:	eb0002d5 	bl	a048 <get32>
    94f0:	e204401f 	and	r4, r4, #31
    94f4:	e3a01001 	mov	r1, #1
    94f8:	e1801411 	orr	r1, r0, r1, lsl r4
    94fc:	e5950038 	ldr	r0, [r5, #56]	; 0x38
    9500:	eb0002c4 	bl	a018 <put32>
    9504:	eb0002bd 	bl	a000 <dev_barrier>
    9508:	e59f4018 	ldr	r4, [pc, #24]	; 9528 <gpio_int_rising_edge+0x80>
    950c:	e594003c 	ldr	r0, [r4, #60]	; 0x3c
    9510:	eb0002cc 	bl	a048 <get32>
    9514:	e3801802 	orr	r1, r0, #131072	; 0x20000
    9518:	e594003c 	ldr	r0, [r4, #60]	; 0x3c
    951c:	eb0002bd 	bl	a018 <put32>
    9520:	eb0002b6 	bl	a000 <dev_barrier>
    9524:	e8bd8038 	pop	{r3, r4, r5, pc}
    9528:	0000a194 	muleq	r0, r4, r1

0000952c <gpio_int_falling_edge>:
    952c:	e92d4038 	push	{r3, r4, r5, lr}
    9530:	e1a04000 	mov	r4, r0
    9534:	e350001f 	cmp	r0, #31
    9538:	88bd8038 	pophi	{r3, r4, r5, pc}
    953c:	eb0002af 	bl	a000 <dev_barrier>
    9540:	e354001f 	cmp	r4, #31
    9544:	8a000007 	bhi	9568 <gpio_int_falling_edge+0x3c>
    9548:	e59f505c 	ldr	r5, [pc, #92]	; 95ac <gpio_int_falling_edge+0x80>
    954c:	e5950040 	ldr	r0, [r5, #64]	; 0x40
    9550:	eb0002bc 	bl	a048 <get32>
    9554:	e3a01001 	mov	r1, #1
    9558:	e1801411 	orr	r1, r0, r1, lsl r4
    955c:	e5950040 	ldr	r0, [r5, #64]	; 0x40
    9560:	eb0002ac 	bl	a018 <put32>
    9564:	ea000007 	b	9588 <gpio_int_falling_edge+0x5c>
    9568:	e59f503c 	ldr	r5, [pc, #60]	; 95ac <gpio_int_falling_edge+0x80>
    956c:	e5950044 	ldr	r0, [r5, #68]	; 0x44
    9570:	eb0002b4 	bl	a048 <get32>
    9574:	e204401f 	and	r4, r4, #31
    9578:	e3a01001 	mov	r1, #1
    957c:	e1801411 	orr	r1, r0, r1, lsl r4
    9580:	e5950044 	ldr	r0, [r5, #68]	; 0x44
    9584:	eb0002a3 	bl	a018 <put32>
    9588:	eb00029c 	bl	a000 <dev_barrier>
    958c:	e59f4018 	ldr	r4, [pc, #24]	; 95ac <gpio_int_falling_edge+0x80>
    9590:	e594003c 	ldr	r0, [r4, #60]	; 0x3c
    9594:	eb0002ab 	bl	a048 <get32>
    9598:	e3801601 	orr	r1, r0, #1048576	; 0x100000
    959c:	e594003c 	ldr	r0, [r4, #60]	; 0x3c
    95a0:	eb00029c 	bl	a018 <put32>
    95a4:	eb000295 	bl	a000 <dev_barrier>
    95a8:	e8bd8038 	pop	{r3, r4, r5, pc}
    95ac:	0000a194 	muleq	r0, r4, r1

000095b0 <gpio_event_detected>:
    95b0:	e92d4010 	push	{r4, lr}
    95b4:	e1a04000 	mov	r4, r0
    95b8:	e350001f 	cmp	r0, #31
    95bc:	8a000019 	bhi	9628 <gpio_event_detected+0x78>
    95c0:	eb00028e 	bl	a000 <dev_barrier>
    95c4:	e354001f 	cmp	r4, #31
    95c8:	8a000008 	bhi	95f0 <gpio_event_detected+0x40>
    95cc:	e59f305c 	ldr	r3, [pc, #92]	; 9630 <gpio_event_detected+0x80>
    95d0:	e5930048 	ldr	r0, [r3, #72]	; 0x48
    95d4:	eb00029b 	bl	a048 <get32>
    95d8:	e3a03001 	mov	r3, #1
    95dc:	e0103413 	ands	r3, r0, r3, lsl r4
    95e0:	0a00000d 	beq	961c <gpio_event_detected+0x6c>
    95e4:	eb000285 	bl	a000 <dev_barrier>
    95e8:	e3a00001 	mov	r0, #1
    95ec:	e8bd8010 	pop	{r4, pc}
    95f0:	e59f3038 	ldr	r3, [pc, #56]	; 9630 <gpio_event_detected+0x80>
    95f4:	e593004c 	ldr	r0, [r3, #76]	; 0x4c
    95f8:	eb000292 	bl	a048 <get32>
    95fc:	e3a03001 	mov	r3, #1
    9600:	e0004413 	and	r4, r0, r3, lsl r4
    9604:	eb00027d 	bl	a000 <dev_barrier>
    9608:	e3540000 	cmp	r4, #0
    960c:	0a000002 	beq	961c <gpio_event_detected+0x6c>
    9610:	eb00027a 	bl	a000 <dev_barrier>
    9614:	e3a00001 	mov	r0, #1
    9618:	e8bd8010 	pop	{r4, pc}
    961c:	eb000277 	bl	a000 <dev_barrier>
    9620:	e3a00000 	mov	r0, #0
    9624:	e8bd8010 	pop	{r4, pc}
    9628:	e3e00000 	mvn	r0, #0
    962c:	e8bd8010 	pop	{r4, pc}
    9630:	0000a194 	muleq	r0, r4, r1

00009634 <gpio_event_clear>:
    9634:	e92d4010 	push	{r4, lr}
    9638:	e1a04000 	mov	r4, r0
    963c:	e350001f 	cmp	r0, #31
    9640:	88bd8010 	pophi	{r4, pc}
    9644:	eb00026d 	bl	a000 <dev_barrier>
    9648:	e354001f 	cmp	r4, #31
    964c:	8a000005 	bhi	9668 <gpio_event_clear+0x34>
    9650:	e59f3030 	ldr	r3, [pc, #48]	; 9688 <gpio_event_clear+0x54>
    9654:	e5930048 	ldr	r0, [r3, #72]	; 0x48
    9658:	e3a01001 	mov	r1, #1
    965c:	e1a01411 	lsl	r1, r1, r4
    9660:	eb00026c 	bl	a018 <put32>
    9664:	ea000005 	b	9680 <gpio_event_clear+0x4c>
    9668:	e204401f 	and	r4, r4, #31
    966c:	e59f3014 	ldr	r3, [pc, #20]	; 9688 <gpio_event_clear+0x54>
    9670:	e593004c 	ldr	r0, [r3, #76]	; 0x4c
    9674:	e3a01001 	mov	r1, #1
    9678:	e1a01411 	lsl	r1, r1, r4
    967c:	eb000265 	bl	a018 <put32>
    9680:	eb00025e 	bl	a000 <dev_barrier>
    9684:	e8bd8010 	pop	{r4, pc}
    9688:	0000a194 	muleq	r0, r4, r1

0000968c <sw_uart_putc>:
    968c:	e92d41f0 	push	{r4, r5, r6, r7, r8, lr}
    9690:	e1a07001 	mov	r7, r1
    9694:	e5d06000 	ldrb	r6, [r0]
    9698:	e5905008 	ldr	r5, [r0, #8]
    969c:	ee1f4f3c 	mrc	15, 0, r4, cr15, cr12, {1}
    96a0:	e1a00006 	mov	r0, r6
    96a4:	e3a01000 	mov	r1, #0
    96a8:	ebffff1f 	bl	932c <gpio_write>
    96ac:	ee1f3f3c 	mrc	15, 0, r3, cr15, cr12, {1}
    96b0:	e0643003 	rsb	r3, r4, r3
    96b4:	e1550003 	cmp	r5, r3
    96b8:	8afffffb 	bhi	96ac <sw_uart_putc+0x20>
    96bc:	e1a08085 	lsl	r8, r5, #1
    96c0:	e1a00006 	mov	r0, r6
    96c4:	e2071001 	and	r1, r7, #1
    96c8:	ebffff17 	bl	932c <gpio_write>
    96cc:	ee1f3f3c 	mrc	15, 0, r3, cr15, cr12, {1}
    96d0:	e0643003 	rsb	r3, r4, r3
    96d4:	e1580003 	cmp	r8, r3
    96d8:	8afffffb 	bhi	96cc <sw_uart_putc+0x40>
    96dc:	e0888005 	add	r8, r8, r5
    96e0:	e1a00006 	mov	r0, r6
    96e4:	e2071002 	and	r1, r7, #2
    96e8:	ebffff0f 	bl	932c <gpio_write>
    96ec:	ee1f3f3c 	mrc	15, 0, r3, cr15, cr12, {1}
    96f0:	e0643003 	rsb	r3, r4, r3
    96f4:	e1580003 	cmp	r8, r3
    96f8:	8afffffb 	bhi	96ec <sw_uart_putc+0x60>
    96fc:	e0888005 	add	r8, r8, r5
    9700:	e1a00006 	mov	r0, r6
    9704:	e2071004 	and	r1, r7, #4
    9708:	ebffff07 	bl	932c <gpio_write>
    970c:	ee1f3f3c 	mrc	15, 0, r3, cr15, cr12, {1}
    9710:	e0643003 	rsb	r3, r4, r3
    9714:	e1580003 	cmp	r8, r3
    9718:	8afffffb 	bhi	970c <sw_uart_putc+0x80>
    971c:	e0888005 	add	r8, r8, r5
    9720:	e1a00006 	mov	r0, r6
    9724:	e2071008 	and	r1, r7, #8
    9728:	ebfffeff 	bl	932c <gpio_write>
    972c:	ee1f3f3c 	mrc	15, 0, r3, cr15, cr12, {1}
    9730:	e0643003 	rsb	r3, r4, r3
    9734:	e1580003 	cmp	r8, r3
    9738:	8afffffb 	bhi	972c <sw_uart_putc+0xa0>
    973c:	e0888005 	add	r8, r8, r5
    9740:	e1a00006 	mov	r0, r6
    9744:	e2071010 	and	r1, r7, #16
    9748:	ebfffef7 	bl	932c <gpio_write>
    974c:	ee1f3f3c 	mrc	15, 0, r3, cr15, cr12, {1}
    9750:	e0643003 	rsb	r3, r4, r3
    9754:	e1580003 	cmp	r8, r3
    9758:	8afffffb 	bhi	974c <sw_uart_putc+0xc0>
    975c:	e0888005 	add	r8, r8, r5
    9760:	e1a00006 	mov	r0, r6
    9764:	e2071020 	and	r1, r7, #32
    9768:	ebfffeef 	bl	932c <gpio_write>
    976c:	ee1f3f3c 	mrc	15, 0, r3, cr15, cr12, {1}
    9770:	e0643003 	rsb	r3, r4, r3
    9774:	e1580003 	cmp	r8, r3
    9778:	8afffffb 	bhi	976c <sw_uart_putc+0xe0>
    977c:	e0888005 	add	r8, r8, r5
    9780:	e1a00006 	mov	r0, r6
    9784:	e2071040 	and	r1, r7, #64	; 0x40
    9788:	ebfffee7 	bl	932c <gpio_write>
    978c:	ee1f3f3c 	mrc	15, 0, r3, cr15, cr12, {1}
    9790:	e0643003 	rsb	r3, r4, r3
    9794:	e1580003 	cmp	r8, r3
    9798:	8afffffb 	bhi	978c <sw_uart_putc+0x100>
    979c:	e0888005 	add	r8, r8, r5
    97a0:	e1a00006 	mov	r0, r6
    97a4:	e2071080 	and	r1, r7, #128	; 0x80
    97a8:	ebfffedf 	bl	932c <gpio_write>
    97ac:	ee1f3f3c 	mrc	15, 0, r3, cr15, cr12, {1}
    97b0:	e0643003 	rsb	r3, r4, r3
    97b4:	e1580003 	cmp	r8, r3
    97b8:	8afffffb 	bhi	97ac <sw_uart_putc+0x120>
    97bc:	e0885005 	add	r5, r8, r5
    97c0:	e1a00006 	mov	r0, r6
    97c4:	e3a01001 	mov	r1, #1
    97c8:	ebfffed7 	bl	932c <gpio_write>
    97cc:	ee1f3f3c 	mrc	15, 0, r3, cr15, cr12, {1}
    97d0:	e0643003 	rsb	r3, r4, r3
    97d4:	e1550003 	cmp	r5, r3
    97d8:	8afffffb 	bhi	97cc <sw_uart_putc+0x140>
    97dc:	e8bd81f0 	pop	{r4, r5, r6, r7, r8, pc}

000097e0 <sw_uart_getc_timeout>:
    97e0:	e92d43f8 	push	{r3, r4, r5, r6, r7, r8, r9, lr}
    97e4:	e1a09000 	mov	r9, r0
    97e8:	e5d07001 	ldrb	r7, [r0, #1]
    97ec:	e1a05007 	mov	r5, r7
    97f0:	e1a06001 	mov	r6, r1
    97f4:	ebfffe1a 	bl	9064 <timer_get_usec_raw>
    97f8:	e1a04000 	mov	r4, r0
    97fc:	e1a00005 	mov	r0, r5
    9800:	ebfffeb6 	bl	92e0 <gpio_read>
    9804:	e3500000 	cmp	r0, #0
    9808:	0a000005 	beq	9824 <sw_uart_getc_timeout+0x44>
    980c:	ebfffe14 	bl	9064 <timer_get_usec_raw>
    9810:	e0640000 	rsb	r0, r4, r0
    9814:	e1560000 	cmp	r6, r0
    9818:	2afffff7 	bcs	97fc <sw_uart_getc_timeout+0x1c>
    981c:	e3a03000 	mov	r3, #0
    9820:	ea000000 	b	9828 <sw_uart_getc_timeout+0x48>
    9824:	e3a03001 	mov	r3, #1
    9828:	e3530000 	cmp	r3, #0
    982c:	0a000059 	beq	9998 <sw_uart_getc_timeout+0x1b8>
    9830:	ee1f8f3c 	mrc	15, 0, r8, cr15, cr12, {1}
    9834:	e5994008 	ldr	r4, [r9, #8]
    9838:	e08420a4 	add	r2, r4, r4, lsr #1
    983c:	ee1f3f3c 	mrc	15, 0, r3, cr15, cr12, {1}
    9840:	e0683003 	rsb	r3, r8, r3
    9844:	e1520003 	cmp	r2, r3
    9848:	8afffffb 	bhi	983c <sw_uart_getc_timeout+0x5c>
    984c:	e0888004 	add	r8, r8, r4
    9850:	e1a00007 	mov	r0, r7
    9854:	ebfffea1 	bl	92e0 <gpio_read>
    9858:	e1a09750 	asr	r9, r0, r7
    985c:	ee1f3f3c 	mrc	15, 0, r3, cr15, cr12, {1}
    9860:	e0683003 	rsb	r3, r8, r3
    9864:	e1540003 	cmp	r4, r3
    9868:	8afffffb 	bhi	985c <sw_uart_getc_timeout+0x7c>
    986c:	e0888004 	add	r8, r8, r4
    9870:	e1a00007 	mov	r0, r7
    9874:	ebfffe99 	bl	92e0 <gpio_read>
    9878:	e1a00750 	asr	r0, r0, r7
    987c:	e1899080 	orr	r9, r9, r0, lsl #1
    9880:	ee1f3f3c 	mrc	15, 0, r3, cr15, cr12, {1}
    9884:	e0683003 	rsb	r3, r8, r3
    9888:	e1540003 	cmp	r4, r3
    988c:	8afffffb 	bhi	9880 <sw_uart_getc_timeout+0xa0>
    9890:	e0888004 	add	r8, r8, r4
    9894:	e1a00007 	mov	r0, r7
    9898:	ebfffe90 	bl	92e0 <gpio_read>
    989c:	e1a00750 	asr	r0, r0, r7
    98a0:	e1899100 	orr	r9, r9, r0, lsl #2
    98a4:	ee1f3f3c 	mrc	15, 0, r3, cr15, cr12, {1}
    98a8:	e0683003 	rsb	r3, r8, r3
    98ac:	e1540003 	cmp	r4, r3
    98b0:	8afffffb 	bhi	98a4 <sw_uart_getc_timeout+0xc4>
    98b4:	e0888004 	add	r8, r8, r4
    98b8:	e1a00007 	mov	r0, r7
    98bc:	ebfffe87 	bl	92e0 <gpio_read>
    98c0:	e1a00750 	asr	r0, r0, r7
    98c4:	e1899180 	orr	r9, r9, r0, lsl #3
    98c8:	ee1f3f3c 	mrc	15, 0, r3, cr15, cr12, {1}
    98cc:	e0683003 	rsb	r3, r8, r3
    98d0:	e1540003 	cmp	r4, r3
    98d4:	8afffffb 	bhi	98c8 <sw_uart_getc_timeout+0xe8>
    98d8:	e0888004 	add	r8, r8, r4
    98dc:	e1a00007 	mov	r0, r7
    98e0:	ebfffe7e 	bl	92e0 <gpio_read>
    98e4:	e1a00750 	asr	r0, r0, r7
    98e8:	e1899200 	orr	r9, r9, r0, lsl #4
    98ec:	ee1f3f3c 	mrc	15, 0, r3, cr15, cr12, {1}
    98f0:	e0683003 	rsb	r3, r8, r3
    98f4:	e1540003 	cmp	r4, r3
    98f8:	8afffffb 	bhi	98ec <sw_uart_getc_timeout+0x10c>
    98fc:	e0888004 	add	r8, r8, r4
    9900:	e1a00007 	mov	r0, r7
    9904:	ebfffe75 	bl	92e0 <gpio_read>
    9908:	e1a00750 	asr	r0, r0, r7
    990c:	e1899280 	orr	r9, r9, r0, lsl #5
    9910:	ee1f3f3c 	mrc	15, 0, r3, cr15, cr12, {1}
    9914:	e0683003 	rsb	r3, r8, r3
    9918:	e1540003 	cmp	r4, r3
    991c:	8afffffb 	bhi	9910 <sw_uart_getc_timeout+0x130>
    9920:	e0888004 	add	r8, r8, r4
    9924:	e1a00007 	mov	r0, r7
    9928:	ebfffe6c 	bl	92e0 <gpio_read>
    992c:	e1a00750 	asr	r0, r0, r7
    9930:	e1899300 	orr	r9, r9, r0, lsl #6
    9934:	ee1f3f3c 	mrc	15, 0, r3, cr15, cr12, {1}
    9938:	e0683003 	rsb	r3, r8, r3
    993c:	e1540003 	cmp	r4, r3
    9940:	8afffffb 	bhi	9934 <sw_uart_getc_timeout+0x154>
    9944:	e1a00007 	mov	r0, r7
    9948:	ebfffe64 	bl	92e0 <gpio_read>
    994c:	e1a00750 	asr	r0, r0, r7
    9950:	e1899380 	orr	r9, r9, r0, lsl #7
    9954:	ebfffdc2 	bl	9064 <timer_get_usec_raw>
    9958:	e1a04000 	mov	r4, r0
    995c:	e1a00005 	mov	r0, r5
    9960:	ebfffe5e 	bl	92e0 <gpio_read>
    9964:	e3500000 	cmp	r0, #0
    9968:	0a000005 	beq	9984 <sw_uart_getc_timeout+0x1a4>
    996c:	ebfffdbc 	bl	9064 <timer_get_usec_raw>
    9970:	e0640000 	rsb	r0, r4, r0
    9974:	e1560000 	cmp	r6, r0
    9978:	2afffff7 	bcs	995c <sw_uart_getc_timeout+0x17c>
    997c:	e3a03000 	mov	r3, #0
    9980:	ea000000 	b	9988 <sw_uart_getc_timeout+0x1a8>
    9984:	e3a03001 	mov	r3, #1
    9988:	e3530000 	cmp	r3, #0
    998c:	0a000003 	beq	99a0 <sw_uart_getc_timeout+0x1c0>
    9990:	e1a00009 	mov	r0, r9
    9994:	e8bd83f8 	pop	{r3, r4, r5, r6, r7, r8, r9, pc}
    9998:	e3e00000 	mvn	r0, #0
    999c:	e8bd83f8 	pop	{r3, r4, r5, r6, r7, r8, r9, pc}
    99a0:	e3e00000 	mvn	r0, #0
    99a4:	e8bd83f8 	pop	{r3, r4, r5, r6, r7, r8, r9, pc}

000099a8 <sw_uart_gets_until>:
    99a8:	e92d47f0 	push	{r4, r5, r6, r7, r8, r9, sl, lr}
    99ac:	e1a08000 	mov	r8, r0
    99b0:	e1a06001 	mov	r6, r1
    99b4:	e1a09003 	mov	r9, r3
    99b8:	e59da020 	ldr	sl, [sp, #32]
    99bc:	e3520000 	cmp	r2, #0
    99c0:	1a000006 	bne	99e0 <sw_uart_gets_until+0x38>
    99c4:	ebfffbf7 	bl	89a8 <rpi_reset_putc>
    99c8:	e59f005c 	ldr	r0, [pc, #92]	; 9a2c <sw_uart_gets_until+0x84>
    99cc:	e59f105c 	ldr	r1, [pc, #92]	; 9a30 <sw_uart_gets_until+0x88>
    99d0:	e59f205c 	ldr	r2, [pc, #92]	; 9a34 <sw_uart_gets_until+0x8c>
    99d4:	e3a0306d 	mov	r3, #109	; 0x6d
    99d8:	ebfffbd7 	bl	893c <printk>
    99dc:	ebfffd46 	bl	8efc <clean_reboot>
    99e0:	e3a04000 	mov	r4, #0
    99e4:	e5c14000 	strb	r4, [r1]
    99e8:	e2427001 	sub	r7, r2, #1
    99ec:	ea000007 	b	9a10 <sw_uart_gets_until+0x68>
    99f0:	e1a00008 	mov	r0, r8
    99f4:	e1a0100a 	mov	r1, sl
    99f8:	ebffff78 	bl	97e0 <sw_uart_getc_timeout>
    99fc:	e6ef0070 	uxtb	r0, r0
    9a00:	e1500009 	cmp	r0, r9
    9a04:	0a000004 	beq	9a1c <sw_uart_gets_until+0x74>
    9a08:	e7c60005 	strb	r0, [r6, r5]
    9a0c:	e2844001 	add	r4, r4, #1
    9a10:	e1a05004 	mov	r5, r4
    9a14:	e1540007 	cmp	r4, r7
    9a18:	3afffff4 	bcc	99f0 <sw_uart_gets_until+0x48>
    9a1c:	e3a03000 	mov	r3, #0
    9a20:	e7c63005 	strb	r3, [r6, r5]
    9a24:	e1a00004 	mov	r0, r4
    9a28:	e8bd87f0 	pop	{r4, r5, r6, r7, r8, r9, sl, pc}
    9a2c:	0000a518 	andeq	sl, r0, r8, lsl r5
    9a30:	0000a534 	andeq	sl, r0, r4, lsr r5
    9a34:	0000a4a0 	andeq	sl, r0, r0, lsr #9

00009a38 <sw_uart_gets_timeout>:
    9a38:	e92d41f0 	push	{r4, r5, r6, r7, r8, lr}
    9a3c:	e1a07000 	mov	r7, r0
    9a40:	e1a05001 	mov	r5, r1
    9a44:	e1a08003 	mov	r8, r3
    9a48:	e3520000 	cmp	r2, #0
    9a4c:	1a000006 	bne	9a6c <sw_uart_gets_timeout+0x34>
    9a50:	ebfffbd4 	bl	89a8 <rpi_reset_putc>
    9a54:	e59f004c 	ldr	r0, [pc, #76]	; 9aa8 <sw_uart_gets_timeout+0x70>
    9a58:	e59f104c 	ldr	r1, [pc, #76]	; 9aac <sw_uart_gets_timeout+0x74>
    9a5c:	e59f204c 	ldr	r2, [pc, #76]	; 9ab0 <sw_uart_gets_timeout+0x78>
    9a60:	e3a03083 	mov	r3, #131	; 0x83
    9a64:	ebfffbb4 	bl	893c <printk>
    9a68:	ebfffd23 	bl	8efc <clean_reboot>
    9a6c:	e3a04000 	mov	r4, #0
    9a70:	e5c14000 	strb	r4, [r1]
    9a74:	e2426001 	sub	r6, r2, #1
    9a78:	ea000004 	b	9a90 <sw_uart_gets_timeout+0x58>
    9a7c:	e1a00007 	mov	r0, r7
    9a80:	e1a01008 	mov	r1, r8
    9a84:	ebffff55 	bl	97e0 <sw_uart_getc_timeout>
    9a88:	e7c50004 	strb	r0, [r5, r4]
    9a8c:	e2844001 	add	r4, r4, #1
    9a90:	e1540006 	cmp	r4, r6
    9a94:	3afffff8 	bcc	9a7c <sw_uart_gets_timeout+0x44>
    9a98:	e3a03000 	mov	r3, #0
    9a9c:	e7c53004 	strb	r3, [r5, r4]
    9aa0:	e1a00004 	mov	r0, r4
    9aa4:	e8bd81f0 	pop	{r4, r5, r6, r7, r8, pc}
    9aa8:	0000a518 	andeq	sl, r0, r8, lsl r5
    9aac:	0000a534 	andeq	sl, r0, r4, lsr r5
    9ab0:	0000a4b4 			; <UNDEFINED> instruction: 0x0000a4b4

00009ab4 <sw_uart_init_helper>:
    9ab4:	e92d41f0 	push	{r4, r5, r6, r7, r8, lr}
    9ab8:	e1a04000 	mov	r4, r0
    9abc:	e1a06001 	mov	r6, r1
    9ac0:	e1a08002 	mov	r8, r2
    9ac4:	e1a05003 	mov	r5, r3
    9ac8:	e59d7018 	ldr	r7, [sp, #24]
    9acc:	e1a00001 	mov	r0, r1
    9ad0:	ebfffd7e 	bl	90d0 <gpio_set_output>
    9ad4:	e1a00008 	mov	r0, r8
    9ad8:	ebfffdcd 	bl	9214 <gpio_set_input>
    9adc:	e3a03001 	mov	r3, #1
    9ae0:	ee0f3f1c 	mcr	15, 0, r3, cr15, cr12, {0}
    9ae4:	e1a00006 	mov	r0, r6
    9ae8:	e3a01001 	mov	r1, #1
    9aec:	ebfffe0e 	bl	932c <gpio_write>
    9af0:	e0020795 	mul	r2, r5, r7
    9af4:	e59f3068 	ldr	r3, [pc, #104]	; 9b64 <sw_uart_init_helper+0xb0>
    9af8:	e0653003 	rsb	r3, r5, r3
    9afc:	e1530002 	cmp	r3, r2
    9b00:	8a000005 	bhi	9b1c <sw_uart_init_helper+0x68>
    9b04:	e59f3058 	ldr	r3, [pc, #88]	; 9b64 <sw_uart_init_helper+0xb0>
    9b08:	e0853003 	add	r3, r5, r3
    9b0c:	e1530002 	cmp	r3, r2
    9b10:	2a000003 	bcs	9b24 <sw_uart_init_helper+0x70>
    9b14:	e3a03000 	mov	r3, #0
    9b18:	ea000002 	b	9b28 <sw_uart_init_helper+0x74>
    9b1c:	e3a03000 	mov	r3, #0
    9b20:	ea000000 	b	9b28 <sw_uart_init_helper+0x74>
    9b24:	e3a03001 	mov	r3, #1
    9b28:	e3530000 	cmp	r3, #0
    9b2c:	1a000006 	bne	9b4c <sw_uart_init_helper+0x98>
    9b30:	ebfffb9c 	bl	89a8 <rpi_reset_putc>
    9b34:	e59f002c 	ldr	r0, [pc, #44]	; 9b68 <sw_uart_init_helper+0xb4>
    9b38:	e59f102c 	ldr	r1, [pc, #44]	; 9b6c <sw_uart_init_helper+0xb8>
    9b3c:	e59f202c 	ldr	r2, [pc, #44]	; 9b70 <sw_uart_init_helper+0xbc>
    9b40:	e3a0309d 	mov	r3, #157	; 0x9d
    9b44:	ebfffb7c 	bl	893c <printk>
    9b48:	ebfffceb 	bl	8efc <clean_reboot>
    9b4c:	e5c46000 	strb	r6, [r4]
    9b50:	e5c48001 	strb	r8, [r4, #1]
    9b54:	e5845004 	str	r5, [r4, #4]
    9b58:	e5847008 	str	r7, [r4, #8]
    9b5c:	e1a00004 	mov	r0, r4
    9b60:	e8bd81f0 	pop	{r4, r5, r6, r7, r8, pc}
    9b64:	29b92700 	ldmibcs	r9!, {r8, r9, sl, sp}
    9b68:	0000a548 	andeq	sl, r0, r8, asr #10
    9b6c:	0000a534 	andeq	sl, r0, r4, lsr r5
    9b70:	0000a4cc 	andeq	sl, r0, ip, asr #9

00009b74 <sw_uart_getc>:
    9b74:	e92d4008 	push	{r3, lr}
    9b78:	e3e01000 	mvn	r1, #0
    9b7c:	ebffff17 	bl	97e0 <sw_uart_getc_timeout>
    9b80:	e3500000 	cmp	r0, #0
    9b84:	a8bd8008 	popge	{r3, pc}
    9b88:	ebfffb86 	bl	89a8 <rpi_reset_putc>
    9b8c:	e59f0010 	ldr	r0, [pc, #16]	; 9ba4 <sw_uart_getc+0x30>
    9b90:	e59f1010 	ldr	r1, [pc, #16]	; 9ba8 <sw_uart_getc+0x34>
    9b94:	e59f2010 	ldr	r2, [pc, #16]	; 9bac <sw_uart_getc+0x38>
    9b98:	e3a030ac 	mov	r3, #172	; 0xac
    9b9c:	ebfffb66 	bl	893c <printk>
    9ba0:	ebfffcd5 	bl	8efc <clean_reboot>
    9ba4:	0000a58c 	andeq	sl, r0, ip, lsl #11
    9ba8:	0000a534 	andeq	sl, r0, r4, lsr r5
    9bac:	0000a4e0 	andeq	sl, r0, r0, ror #9

00009bb0 <sw_uart_putk>:
    9bb0:	e92d4038 	push	{r3, r4, r5, lr}
    9bb4:	e1a05000 	mov	r5, r0
    9bb8:	e1a04001 	mov	r4, r1
    9bbc:	ea000002 	b	9bcc <sw_uart_putk+0x1c>
    9bc0:	e1a00005 	mov	r0, r5
    9bc4:	ebfffeb0 	bl	968c <sw_uart_putc>
    9bc8:	e2844001 	add	r4, r4, #1
    9bcc:	e5d41000 	ldrb	r1, [r4]
    9bd0:	e3510000 	cmp	r1, #0
    9bd4:	1afffff9 	bne	9bc0 <sw_uart_putk+0x10>
    9bd8:	e8bd8038 	pop	{r3, r4, r5, pc}

00009bdc <sw_uart_printk>:
    9bdc:	e92d000e 	push	{r1, r2, r3}
    9be0:	e92d4030 	push	{r4, r5, lr}
    9be4:	e24dde1d 	sub	sp, sp, #464	; 0x1d0
    9be8:	e1a05000 	mov	r5, r0
    9bec:	e28d3e1e 	add	r3, sp, #480	; 0x1e0
    9bf0:	e58d3000 	str	r3, [sp]
    9bf4:	e28d0004 	add	r0, sp, #4
    9bf8:	e3a01f73 	mov	r1, #460	; 0x1cc
    9bfc:	e59d21dc 	ldr	r2, [sp, #476]	; 0x1dc
    9c00:	ebfffc1b 	bl	8c74 <va_printk>
    9c04:	e1a04000 	mov	r4, r0
    9c08:	e59f3040 	ldr	r3, [pc, #64]	; 9c50 <sw_uart_printk+0x74>
    9c0c:	e1500003 	cmp	r0, r3
    9c10:	9a000006 	bls	9c30 <sw_uart_printk+0x54>
    9c14:	ebfffb63 	bl	89a8 <rpi_reset_putc>
    9c18:	e59f0034 	ldr	r0, [pc, #52]	; 9c54 <sw_uart_printk+0x78>
    9c1c:	e59f1034 	ldr	r1, [pc, #52]	; 9c58 <sw_uart_printk+0x7c>
    9c20:	e59f2034 	ldr	r2, [pc, #52]	; 9c5c <sw_uart_printk+0x80>
    9c24:	e3a030c0 	mov	r3, #192	; 0xc0
    9c28:	ebfffb43 	bl	893c <printk>
    9c2c:	ebfffcb2 	bl	8efc <clean_reboot>
    9c30:	e1a00005 	mov	r0, r5
    9c34:	e28d1004 	add	r1, sp, #4
    9c38:	ebffffdc 	bl	9bb0 <sw_uart_putk>
    9c3c:	e1a00004 	mov	r0, r4
    9c40:	e28dde1d 	add	sp, sp, #464	; 0x1d0
    9c44:	e8bd4030 	pop	{r4, r5, lr}
    9c48:	e28dd00c 	add	sp, sp, #12
    9c4c:	e12fff1e 	bx	lr
    9c50:	000001ca 	andeq	r0, r0, sl, asr #3
    9c54:	0000a5c4 	andeq	sl, r0, r4, asr #11
    9c58:	0000a534 	andeq	sl, r0, r4, lsr r5
    9c5c:	0000a4f0 	strdeq	sl, [r0], -r0

00009c60 <sw_uart_gets_until_blk>:
    9c60:	e52de004 	push	{lr}		; (str lr, [sp, #-4]!)
    9c64:	e24dd00c 	sub	sp, sp, #12
    9c68:	e3e0c000 	mvn	ip, #0
    9c6c:	e58dc000 	str	ip, [sp]
    9c70:	ebffff4c 	bl	99a8 <sw_uart_gets_until>
    9c74:	e3500000 	cmp	r0, #0
    9c78:	aa000006 	bge	9c98 <sw_uart_gets_until_blk+0x38>
    9c7c:	ebfffb49 	bl	89a8 <rpi_reset_putc>
    9c80:	e59f0018 	ldr	r0, [pc, #24]	; 9ca0 <sw_uart_gets_until_blk+0x40>
    9c84:	e59f1018 	ldr	r1, [pc, #24]	; 9ca4 <sw_uart_gets_until_blk+0x44>
    9c88:	e59f2018 	ldr	r2, [pc, #24]	; 9ca8 <sw_uart_gets_until_blk+0x48>
    9c8c:	e3a030c8 	mov	r3, #200	; 0xc8
    9c90:	ebfffb29 	bl	893c <printk>
    9c94:	ebfffc98 	bl	8efc <clean_reboot>
    9c98:	e28dd00c 	add	sp, sp, #12
    9c9c:	e49df004 	pop	{pc}		; (ldr pc, [sp], #4)
    9ca0:	0000a58c 	andeq	sl, r0, ip, lsl #11
    9ca4:	0000a534 	andeq	sl, r0, r4, lsr r5
    9ca8:	0000a500 	andeq	sl, r0, r0, lsl #10

00009cac <uart_init>:
    9cac:	e92d4038 	push	{r3, r4, r5, lr}
    9cb0:	eb0000d2 	bl	a000 <dev_barrier>
    9cb4:	e3a0000e 	mov	r0, #14
    9cb8:	e3a01002 	mov	r1, #2
    9cbc:	ebfffdb8 	bl	93a4 <gpio_set_function>
    9cc0:	e3a0000f 	mov	r0, #15
    9cc4:	e3a01002 	mov	r1, #2
    9cc8:	ebfffdb5 	bl	93a4 <gpio_set_function>
    9ccc:	eb0000cb 	bl	a000 <dev_barrier>
    9cd0:	e59f4068 	ldr	r4, [pc, #104]	; 9d40 <uart_init+0x94>
    9cd4:	e5945000 	ldr	r5, [r4]
    9cd8:	e1a00005 	mov	r0, r5
    9cdc:	eb0000d9 	bl	a048 <get32>
    9ce0:	e3801001 	orr	r1, r0, #1
    9ce4:	e1a00005 	mov	r0, r5
    9ce8:	eb0000ca 	bl	a018 <put32>
    9cec:	eb0000c3 	bl	a000 <dev_barrier>
    9cf0:	e5940004 	ldr	r0, [r4, #4]
    9cf4:	e3a01000 	mov	r1, #0
    9cf8:	eb0000c6 	bl	a018 <put32>
    9cfc:	e5940008 	ldr	r0, [r4, #8]
    9d00:	e3a01000 	mov	r1, #0
    9d04:	eb0000c3 	bl	a018 <put32>
    9d08:	e594000c 	ldr	r0, [r4, #12]
    9d0c:	e3a01006 	mov	r1, #6
    9d10:	eb0000c0 	bl	a018 <put32>
    9d14:	e5940010 	ldr	r0, [r4, #16]
    9d18:	e3a01003 	mov	r1, #3
    9d1c:	eb0000bd 	bl	a018 <put32>
    9d20:	e5940014 	ldr	r0, [r4, #20]
    9d24:	e59f1018 	ldr	r1, [pc, #24]	; 9d44 <uart_init+0x98>
    9d28:	eb0000ba 	bl	a018 <put32>
    9d2c:	e5940004 	ldr	r0, [r4, #4]
    9d30:	e3a01003 	mov	r1, #3
    9d34:	eb0000b7 	bl	a018 <put32>
    9d38:	eb0000b0 	bl	a000 <dev_barrier>
    9d3c:	e8bd8038 	pop	{r3, r4, r5, pc}
    9d40:	0000a1f4 	strdeq	sl, [r0], -r4
    9d44:	0000010e 	andeq	r0, r0, lr, lsl #2

00009d48 <uart_can_getc>:
    9d48:	e92d4008 	push	{r3, lr}
    9d4c:	e59f300c 	ldr	r3, [pc, #12]	; 9d60 <uart_can_getc+0x18>
    9d50:	e5930018 	ldr	r0, [r3, #24]
    9d54:	eb0000bb 	bl	a048 <get32>
    9d58:	e2000001 	and	r0, r0, #1
    9d5c:	e8bd8008 	pop	{r3, pc}
    9d60:	0000a1f4 	strdeq	sl, [r0], -r4

00009d64 <uart_getc>:
    9d64:	e92d4008 	push	{r3, lr}
    9d68:	ebfffff6 	bl	9d48 <uart_can_getc>
    9d6c:	e3500000 	cmp	r0, #0
    9d70:	0afffffc 	beq	9d68 <uart_getc+0x4>
    9d74:	e59f300c 	ldr	r3, [pc, #12]	; 9d88 <uart_getc+0x24>
    9d78:	e593001c 	ldr	r0, [r3, #28]
    9d7c:	eb0000b1 	bl	a048 <get32>
    9d80:	e6ef0070 	uxtb	r0, r0
    9d84:	e8bd8008 	pop	{r3, pc}
    9d88:	0000a1f4 	strdeq	sl, [r0], -r4

00009d8c <uart_can_putc>:
    9d8c:	e92d4008 	push	{r3, lr}
    9d90:	e59f300c 	ldr	r3, [pc, #12]	; 9da4 <uart_can_putc+0x18>
    9d94:	e5930018 	ldr	r0, [r3, #24]
    9d98:	eb0000aa 	bl	a048 <get32>
    9d9c:	e2000020 	and	r0, r0, #32
    9da0:	e8bd8008 	pop	{r3, pc}
    9da4:	0000a1f4 	strdeq	sl, [r0], -r4

00009da8 <uart_putc>:
    9da8:	e92d4010 	push	{r4, lr}
    9dac:	e1a04000 	mov	r4, r0
    9db0:	ebfffff5 	bl	9d8c <uart_can_putc>
    9db4:	e3500000 	cmp	r0, #0
    9db8:	0afffffc 	beq	9db0 <uart_putc+0x8>
    9dbc:	e59f300c 	ldr	r3, [pc, #12]	; 9dd0 <uart_putc+0x28>
    9dc0:	e593001c 	ldr	r0, [r3, #28]
    9dc4:	e1a01004 	mov	r1, r4
    9dc8:	eb000092 	bl	a018 <put32>
    9dcc:	e8bd8010 	pop	{r4, pc}
    9dd0:	0000a1f4 	strdeq	sl, [r0], -r4

00009dd4 <uart_has_data>:
    9dd4:	e92d4008 	push	{r3, lr}
    9dd8:	ebffffda 	bl	9d48 <uart_can_getc>
    9ddc:	e8bd8008 	pop	{r3, pc}

00009de0 <uart_getc_async>:
    9de0:	e92d4008 	push	{r3, lr}
    9de4:	ebfffffa 	bl	9dd4 <uart_has_data>
    9de8:	e3500000 	cmp	r0, #0
    9dec:	0a000001 	beq	9df8 <uart_getc_async+0x18>
    9df0:	ebffffdb 	bl	9d64 <uart_getc>
    9df4:	e8bd8008 	pop	{r3, pc}
    9df8:	e3e00000 	mvn	r0, #0
    9dfc:	e8bd8008 	pop	{r3, pc}

00009e00 <int_init>:
    9e00:	e92d4008 	push	{r3, lr}
    9e04:	e59f004c 	ldr	r0, [pc, #76]	; 9e58 <int_init+0x58>
    9e08:	e3e01000 	mvn	r1, #0
    9e0c:	eb000083 	bl	a020 <PUT32>
    9e10:	e59f0044 	ldr	r0, [pc, #68]	; 9e5c <int_init+0x5c>
    9e14:	e3e01000 	mvn	r1, #0
    9e18:	eb000080 	bl	a020 <PUT32>
    9e1c:	eb000077 	bl	a000 <dev_barrier>
    9e20:	e59f3038 	ldr	r3, [pc, #56]	; 9e60 <int_init+0x60>
    9e24:	e59f0038 	ldr	r0, [pc, #56]	; 9e64 <int_init+0x64>
    9e28:	e0630000 	rsb	r0, r3, r0
    9e2c:	e1a00140 	asr	r0, r0, #2
    9e30:	e3a03000 	mov	r3, #0
    9e34:	e59fc024 	ldr	ip, [pc, #36]	; 9e60 <int_init+0x60>
    9e38:	ea000003 	b	9e4c <int_init+0x4c>
    9e3c:	e1a02103 	lsl	r2, r3, #2
    9e40:	e79c1103 	ldr	r1, [ip, r3, lsl #2]
    9e44:	e5821000 	str	r1, [r2]
    9e48:	e2833001 	add	r3, r3, #1
    9e4c:	e1530000 	cmp	r3, r0
    9e50:	3afffff9 	bcc	9e3c <int_init+0x3c>
    9e54:	e8bd8008 	pop	{r3, pc}
    9e58:	2000b21c 	andcs	fp, r0, ip, lsl r2
    9e5c:	2000b220 	andcs	fp, r0, r0, lsr #4
    9e60:	0000a084 	andeq	sl, r0, r4, lsl #1
    9e64:	0000a0d4 	ldrdeq	sl, [r0], -r4

00009e68 <fast_interrupt_vector>:
    9e68:	e52de004 	push	{lr}		; (str lr, [sp, #-4]!)
    9e6c:	e24dd00c 	sub	sp, sp, #12
    9e70:	e1a04000 	mov	r4, r0
    9e74:	ebfffacb 	bl	89a8 <rpi_reset_putc>
    9e78:	e59f301c 	ldr	r3, [pc, #28]	; 9e9c <fast_interrupt_vector+0x34>
    9e7c:	e58d3000 	str	r3, [sp]
    9e80:	e58d4004 	str	r4, [sp, #4]
    9e84:	e59f0014 	ldr	r0, [pc, #20]	; 9ea0 <fast_interrupt_vector+0x38>
    9e88:	e59f1014 	ldr	r1, [pc, #20]	; 9ea4 <fast_interrupt_vector+0x3c>
    9e8c:	e59f2014 	ldr	r2, [pc, #20]	; 9ea8 <fast_interrupt_vector+0x40>
    9e90:	e3a03020 	mov	r3, #32
    9e94:	ebfffaa8 	bl	893c <printk>
    9e98:	ebfffc17 	bl	8efc <clean_reboot>
    9e9c:	0000a6d4 	ldrdeq	sl, [r0], -r4
    9ea0:	0000a678 	andeq	sl, r0, r8, ror r6
    9ea4:	0000a6b4 			; <UNDEFINED> instruction: 0x0000a6b4
    9ea8:	0000a5e8 	andeq	sl, r0, r8, ror #11

00009eac <software_interrupt_vector>:
    9eac:	e52de004 	push	{lr}		; (str lr, [sp, #-4]!)
    9eb0:	e24dd00c 	sub	sp, sp, #12
    9eb4:	e1a04000 	mov	r4, r0
    9eb8:	ebfffaba 	bl	89a8 <rpi_reset_putc>
    9ebc:	e59f301c 	ldr	r3, [pc, #28]	; 9ee0 <software_interrupt_vector+0x34>
    9ec0:	e58d3000 	str	r3, [sp]
    9ec4:	e58d4004 	str	r4, [sp, #4]
    9ec8:	e59f0014 	ldr	r0, [pc, #20]	; 9ee4 <software_interrupt_vector+0x38>
    9ecc:	e59f1014 	ldr	r1, [pc, #20]	; 9ee8 <software_interrupt_vector+0x3c>
    9ed0:	e59f2014 	ldr	r2, [pc, #20]	; 9eec <software_interrupt_vector+0x40>
    9ed4:	e3a03025 	mov	r3, #37	; 0x25
    9ed8:	ebfffa97 	bl	893c <printk>
    9edc:	ebfffc06 	bl	8efc <clean_reboot>
    9ee0:	0000a6dc 	ldrdeq	sl, [r0], -ip
    9ee4:	0000a678 	andeq	sl, r0, r8, ror r6
    9ee8:	0000a6b4 			; <UNDEFINED> instruction: 0x0000a6b4
    9eec:	0000a600 	andeq	sl, r0, r0, lsl #12

00009ef0 <reset_vector>:
    9ef0:	e52de004 	push	{lr}		; (str lr, [sp, #-4]!)
    9ef4:	e24dd00c 	sub	sp, sp, #12
    9ef8:	e1a04000 	mov	r4, r0
    9efc:	ebfffaa9 	bl	89a8 <rpi_reset_putc>
    9f00:	e59f301c 	ldr	r3, [pc, #28]	; 9f24 <reset_vector+0x34>
    9f04:	e58d3000 	str	r3, [sp]
    9f08:	e58d4004 	str	r4, [sp, #4]
    9f0c:	e59f0014 	ldr	r0, [pc, #20]	; 9f28 <reset_vector+0x38>
    9f10:	e59f1014 	ldr	r1, [pc, #20]	; 9f2c <reset_vector+0x3c>
    9f14:	e59f2014 	ldr	r2, [pc, #20]	; 9f30 <reset_vector+0x40>
    9f18:	e3a03028 	mov	r3, #40	; 0x28
    9f1c:	ebfffa86 	bl	893c <printk>
    9f20:	ebfffbf5 	bl	8efc <clean_reboot>
    9f24:	0000a6ec 	andeq	sl, r0, ip, ror #13
    9f28:	0000a678 	andeq	sl, r0, r8, ror r6
    9f2c:	0000a6b4 			; <UNDEFINED> instruction: 0x0000a6b4
    9f30:	0000a61c 	andeq	sl, r0, ip, lsl r6

00009f34 <undefined_instruction_vector>:
    9f34:	e52de004 	push	{lr}		; (str lr, [sp, #-4]!)
    9f38:	e24dd00c 	sub	sp, sp, #12
    9f3c:	e1a04000 	mov	r4, r0
    9f40:	ebfffa98 	bl	89a8 <rpi_reset_putc>
    9f44:	e59f301c 	ldr	r3, [pc, #28]	; 9f68 <undefined_instruction_vector+0x34>
    9f48:	e58d3000 	str	r3, [sp]
    9f4c:	e58d4004 	str	r4, [sp, #4]
    9f50:	e59f0014 	ldr	r0, [pc, #20]	; 9f6c <undefined_instruction_vector+0x38>
    9f54:	e59f1014 	ldr	r1, [pc, #20]	; 9f70 <undefined_instruction_vector+0x3c>
    9f58:	e59f2014 	ldr	r2, [pc, #20]	; 9f74 <undefined_instruction_vector+0x40>
    9f5c:	e3a0302b 	mov	r3, #43	; 0x2b
    9f60:	ebfffa75 	bl	893c <printk>
    9f64:	ebfffbe4 	bl	8efc <clean_reboot>
    9f68:	0000a6fc 	strdeq	sl, [r0], -ip
    9f6c:	0000a678 	andeq	sl, r0, r8, ror r6
    9f70:	0000a6b4 			; <UNDEFINED> instruction: 0x0000a6b4
    9f74:	0000a62c 	andeq	sl, r0, ip, lsr #12

00009f78 <prefetch_abort_vector>:
    9f78:	e52de004 	push	{lr}		; (str lr, [sp, #-4]!)
    9f7c:	e24dd00c 	sub	sp, sp, #12
    9f80:	e1a04000 	mov	r4, r0
    9f84:	ebfffa87 	bl	89a8 <rpi_reset_putc>
    9f88:	e59f301c 	ldr	r3, [pc, #28]	; 9fac <prefetch_abort_vector+0x34>
    9f8c:	e58d3000 	str	r3, [sp]
    9f90:	e58d4004 	str	r4, [sp, #4]
    9f94:	e59f0014 	ldr	r0, [pc, #20]	; 9fb0 <prefetch_abort_vector+0x38>
    9f98:	e59f1014 	ldr	r1, [pc, #20]	; 9fb4 <prefetch_abort_vector+0x3c>
    9f9c:	e59f2014 	ldr	r2, [pc, #20]	; 9fb8 <prefetch_abort_vector+0x40>
    9fa0:	e3a0302e 	mov	r3, #46	; 0x2e
    9fa4:	ebfffa64 	bl	893c <printk>
    9fa8:	ebfffbd3 	bl	8efc <clean_reboot>
    9fac:	0000a714 	andeq	sl, r0, r4, lsl r7
    9fb0:	0000a678 	andeq	sl, r0, r8, ror r6
    9fb4:	0000a6b4 			; <UNDEFINED> instruction: 0x0000a6b4
    9fb8:	0000a64c 	andeq	sl, r0, ip, asr #12

00009fbc <data_abort_vector>:
    9fbc:	e52de004 	push	{lr}		; (str lr, [sp, #-4]!)
    9fc0:	e24dd00c 	sub	sp, sp, #12
    9fc4:	e1a04000 	mov	r4, r0
    9fc8:	ebfffa76 	bl	89a8 <rpi_reset_putc>
    9fcc:	e59f301c 	ldr	r3, [pc, #28]	; 9ff0 <data_abort_vector+0x34>
    9fd0:	e58d3000 	str	r3, [sp]
    9fd4:	e58d4004 	str	r4, [sp, #4]
    9fd8:	e59f0014 	ldr	r0, [pc, #20]	; 9ff4 <data_abort_vector+0x38>
    9fdc:	e59f1014 	ldr	r1, [pc, #20]	; 9ff8 <data_abort_vector+0x3c>
    9fe0:	e59f2014 	ldr	r2, [pc, #20]	; 9ffc <data_abort_vector+0x40>
    9fe4:	e3a03031 	mov	r3, #49	; 0x31
    9fe8:	ebfffa53 	bl	893c <printk>
    9fec:	ebfffbc2 	bl	8efc <clean_reboot>
    9ff0:	0000a724 	andeq	sl, r0, r4, lsr #14
    9ff4:	0000a678 	andeq	sl, r0, r8, ror r6
    9ff8:	0000a6b4 			; <UNDEFINED> instruction: 0x0000a6b4
    9ffc:	0000a664 	andeq	sl, r0, r4, ror #12

0000a000 <dev_barrier>:
    a000:	ea000002 	b	a010 <dsb>

0000a004 <dmb>:
    a004:	e3a00000 	mov	r0, #0
    a008:	ee070fba 	mcr	15, 0, r0, cr7, cr10, {5}
    a00c:	e12fff1e 	bx	lr

0000a010 <dsb>:
    a010:	ee070f9a 	mcr	15, 0, r0, cr7, cr10, {4}
    a014:	e12fff1e 	bx	lr

0000a018 <put32>:
    a018:	e5801000 	str	r1, [r0]
    a01c:	e12fff1e 	bx	lr

0000a020 <PUT32>:
    a020:	e5801000 	str	r1, [r0]
    a024:	e12fff1e 	bx	lr

0000a028 <put16>:
    a028:	e1c010b0 	strh	r1, [r0]
    a02c:	e12fff1e 	bx	lr

0000a030 <PUT16>:
    a030:	e1c010b0 	strh	r1, [r0]
    a034:	e12fff1e 	bx	lr

0000a038 <put8>:
    a038:	e5c01000 	strb	r1, [r0]
    a03c:	e12fff1e 	bx	lr

0000a040 <PUT8>:
    a040:	e5c01000 	strb	r1, [r0]
    a044:	e12fff1e 	bx	lr

0000a048 <get32>:
    a048:	e5900000 	ldr	r0, [r0]
    a04c:	e12fff1e 	bx	lr

0000a050 <GET32>:
    a050:	e5900000 	ldr	r0, [r0]
    a054:	e12fff1e 	bx	lr

0000a058 <GETPC>:
    a058:	e1a0000e 	mov	r0, lr
    a05c:	e12fff1e 	bx	lr

0000a060 <dummy>:
    a060:	e12fff1e 	bx	lr

0000a064 <system_enable_interrupts>:
    a064:	e10f0000 	mrs	r0, CPSR
    a068:	e3c00080 	bic	r0, r0, #128	; 0x80
    a06c:	e121f000 	msr	CPSR_c, r0
    a070:	e12fff1e 	bx	lr

0000a074 <system_disable_interrupts>:
    a074:	e10f0000 	mrs	r0, CPSR
    a078:	e3800080 	orr	r0, r0, #128	; 0x80
    a07c:	e121f000 	msr	CPSR_c, r0
    a080:	e12fff1e 	bx	lr

0000a084 <_interrupt_table>:
    a084:	e59ff030 	ldr	pc, [pc, #48]	; a0bc <_reset_asm>
    a088:	e59ff030 	ldr	pc, [pc, #48]	; a0c0 <_undefined_instruction_asm>
    a08c:	e59ff030 	ldr	pc, [pc, #48]	; a0c4 <_software_interrupt_asm>
    a090:	e59ff030 	ldr	pc, [pc, #48]	; a0c8 <_prefetch_abort_asm>
    a094:	e59ff030 	ldr	pc, [pc, #48]	; a0cc <_data_abort_asm>
    a098:	e59ff01c 	ldr	pc, [pc, #28]	; a0bc <_reset_asm>
    a09c:	e59ff02c 	ldr	pc, [pc, #44]	; a0d0 <_interrupt_asm>

0000a0a0 <fast_interrupt_asm>:
    a0a0:	e24ee004 	sub	lr, lr, #4
    a0a4:	e52de004 	push	{lr}		; (str lr, [sp, #-4]!)
    a0a8:	e92d1fff 	push	{r0, r1, r2, r3, r4, r5, r6, r7, r8, r9, sl, fp, ip}
    a0ac:	e1a0000e 	mov	r0, lr
    a0b0:	ebffff6c 	bl	9e68 <fast_interrupt_vector>
    a0b4:	e8bd1fff 	pop	{r0, r1, r2, r3, r4, r5, r6, r7, r8, r9, sl, fp, ip}
    a0b8:	e8fd8000 	ldm	sp!, {pc}^

0000a0bc <_reset_asm>:
    a0bc:	0000a11c 	andeq	sl, r0, ip, lsl r1

0000a0c0 <_undefined_instruction_asm>:
    a0c0:	0000a124 	andeq	sl, r0, r4, lsr #2

0000a0c4 <_software_interrupt_asm>:
    a0c4:	0000a0f0 	strdeq	sl, [r0], -r0

0000a0c8 <_prefetch_abort_asm>:
    a0c8:	0000a12c 	andeq	sl, r0, ip, lsr #2

0000a0cc <_data_abort_asm>:
    a0cc:	0000a134 	andeq	sl, r0, r4, lsr r1

0000a0d0 <_interrupt_asm>:
    a0d0:	0000a0d4 	ldrdeq	sl, [r0], -r4

0000a0d4 <_interrupt_table_end>:
    a0d4:	e3a0d409 	mov	sp, #150994944	; 0x9000000
    a0d8:	e24ee004 	sub	lr, lr, #4
    a0dc:	e92d5fff 	push	{r0, r1, r2, r3, r4, r5, r6, r7, r8, r9, sl, fp, ip, lr}
    a0e0:	e1a0000e 	mov	r0, lr
    a0e4:	ebfff863 	bl	8278 <interrupt_vector>
    a0e8:	e8bd5fff 	pop	{r0, r1, r2, r3, r4, r5, r6, r7, r8, r9, sl, fp, ip, lr}
    a0ec:	e1b0f00e 	movs	pc, lr

0000a0f0 <software_interrupt_asm>:
    a0f0:	e52de004 	push	{lr}		; (str lr, [sp, #-4]!)
    a0f4:	e92d1ffe 	push	{r1, r2, r3, r4, r5, r6, r7, r8, r9, sl, fp, ip}
    a0f8:	e24ee004 	sub	lr, lr, #4
    a0fc:	e1a0200e 	mov	r2, lr
    a100:	e1a01000 	mov	r1, r0
    a104:	e1a0000e 	mov	r0, lr
    a108:	eb000003 	bl	a11c <reset_asm>
    a10c:	e8bd1ffe 	pop	{r1, r2, r3, r4, r5, r6, r7, r8, r9, sl, fp, ip}
    a110:	e49de004 	pop	{lr}		; (ldr lr, [sp], #4)
    a114:	e8fd8000 	ldm	sp!, {pc}^
    a118:	e1b0f00e 	movs	pc, lr

0000a11c <reset_asm>:
    a11c:	e24ee004 	sub	lr, lr, #4
    a120:	ebffff72 	bl	9ef0 <reset_vector>

0000a124 <undefined_instruction_asm>:
    a124:	e24ee004 	sub	lr, lr, #4
    a128:	ebffff81 	bl	9f34 <undefined_instruction_vector>

0000a12c <prefetch_abort_asm>:
    a12c:	e24ee004 	sub	lr, lr, #4
    a130:	ebffff90 	bl	9f78 <prefetch_abort_vector>

0000a134 <data_abort_asm>:
    a134:	e24ee004 	sub	lr, lr, #4
    a138:	ebffff9f 	bl	9fbc <data_abort_vector>

0000a13c <cb_new>:
    a13c:	e92d4008 	push	{r3, lr}
    a140:	e3a00409 	mov	r0, #150994944	; 0x9000000
    a144:	e3a01000 	mov	r1, #0
    a148:	e3a02004 	mov	r2, #4
    a14c:	ebfff9f2 	bl	891c <memset>
    a150:	e3a00409 	mov	r0, #150994944	; 0x9000000
    a154:	e59f3004 	ldr	r3, [pc, #4]	; a160 <cb_new+0x24>
    a158:	e5803000 	str	r3, [r0]
    a15c:	e8bd8008 	pop	{r3, pc}
    a160:	12345678 	eorsne	r5, r4, #120, 12	; 0x7800000

0000a164 <cb_get_block>:
    a164:	e3a03409 	mov	r3, #150994944	; 0x9000000
    a168:	e5932000 	ldr	r2, [r3]
    a16c:	e59f3014 	ldr	r3, [pc, #20]	; a188 <cb_get_block+0x24>
    a170:	e1520003 	cmp	r2, r3
    a174:	0a000001 	beq	a180 <cb_get_block+0x1c>
    a178:	e3a00000 	mov	r0, #0
    a17c:	e12fff1e 	bx	lr
    a180:	e3a00409 	mov	r0, #150994944	; 0x9000000
    a184:	e12fff1e 	bx	lr
    a188:	12345678 	eorsne	r5, r4, #120, 12	; 0x7800000

Disassembly of section .data:

0000a18c <rpi_putchar>:
    a18c:	00008994 	muleq	r0, r4, r9

0000a190 <putk>:
    a190:	000089d0 	ldrdeq	r8, [r0], -r0

0000a194 <GPFSEL0>:
    a194:	20200000 	eorcs	r0, r0, r0

0000a198 <GPFSEL1>:
    a198:	20200004 	eorcs	r0, r0, r4

0000a19c <GPFSEL2>:
    a19c:	20200008 	eorcs	r0, r0, r8

0000a1a0 <GPFSEL3>:
    a1a0:	2020000c 	eorcs	r0, r0, ip

0000a1a4 <GPFSEL4>:
    a1a4:	20200010 	eorcs	r0, r0, r0, lsl r0

0000a1a8 <GPFSEL5>:
    a1a8:	20200014 	eorcs	r0, r0, r4, lsl r0

0000a1ac <GPSET0>:
    a1ac:	2020001c 	eorcs	r0, r0, ip, lsl r0

0000a1b0 <GPSET1>:
    a1b0:	20200020 	eorcs	r0, r0, r0, lsr #32

0000a1b4 <GPCLR0>:
    a1b4:	20200028 	eorcs	r0, r0, r8, lsr #32

0000a1b8 <GPCLR1>:
    a1b8:	2020002c 	eorcs	r0, r0, ip, lsr #32

0000a1bc <GPLEV0>:
    a1bc:	20200034 	eorcs	r0, r0, r4, lsr r0

0000a1c0 <GPLEV1>:
    a1c0:	20200038 	eorcs	r0, r0, r8, lsr r0

0000a1c4 <IRQ_PENDING_2>:
    a1c4:	2000b208 	andcs	fp, r0, r8, lsl #4

0000a1c8 <GPREN0>:
    a1c8:	2020004c 	eorcs	r0, r0, ip, asr #32

0000a1cc <GPREN1>:
    a1cc:	20200050 	eorcs	r0, r0, r0, asr r0

0000a1d0 <ENABLE_IRQS_2>:
    a1d0:	2000b214 	andcs	fp, r0, r4, lsl r2

0000a1d4 <GPFEN0>:
    a1d4:	20200058 	eorcs	r0, r0, r8, asr r0

0000a1d8 <GPFEN1>:
    a1d8:	2020005c 	eorcs	r0, r0, ip, asr r0

0000a1dc <GPEDS0>:
    a1dc:	20200040 	eorcs	r0, r0, r0, asr #32

0000a1e0 <GPEDS1>:
    a1e0:	20200044 	eorcs	r0, r0, r4, asr #32

0000a1e4 <IRQ_PENDING_1>:
    a1e4:	2000b204 	andcs	fp, r0, r4, lsl #4

0000a1e8 <gpio_clr0>:
    a1e8:	20200028 	eorcs	r0, r0, r8, lsr #32

0000a1ec <gpio_set0>:
    a1ec:	2020001c 	eorcs	r0, r0, ip, lsl r0

0000a1f0 <gpio_fsel0>:
    a1f0:	20200000 	eorcs	r0, r0, r0

0000a1f4 <AUX_ENABLES>:
    a1f4:	20215004 	eorcs	r5, r1, r4

0000a1f8 <AUX_MU_CNTL_REG>:
    a1f8:	20215060 	eorcs	r5, r1, r0, rrx

0000a1fc <AUX_MU_IER_REG>:
    a1fc:	20215044 	eorcs	r5, r1, r4, asr #32

0000a200 <AUX_MU_IIR_REG>:
    a200:	20215048 	eorcs	r5, r1, r8, asr #32

0000a204 <AUX_MU_LCR_REG>:
    a204:	2021504c 	eorcs	r5, r1, ip, asr #32

0000a208 <AUX_MU_BAUD_REG>:
    a208:	20215068 	eorcs	r5, r1, r8, rrx

0000a20c <AUX_MU_LSR_REG>:
    a20c:	20215054 	eorcs	r5, r1, r4, asr r0

0000a210 <AUX_MU_IO_REG>:
    a210:	20215040 	eorcs	r5, r1, r0, asr #32

0000a214 <AUX_MU_STAT_REG>:
    a214:	20215064 	eorcs	r5, r1, r4, rrx

0000a218 <AUX_MU_SCRATCH>:
    a218:	2021505c 	eorcs	r5, r1, ip, asr r0

0000a21c <AUX_MU_MSR_REG>:
    a21c:	20215058 	eorcs	r5, r1, r8, asr r0

0000a220 <AUX_MU_MCR_REG>:
    a220:	20215050 	eorcs	r5, r1, r0, asr r0

0000a224 <AUX_IRQ>:
    a224:	20215000 	eorcs	r5, r1, r0

Disassembly of section .rodata:

0000a228 <__FUNCTION__.4297>:
    a228:	695f7163 	ldmdbvs	pc, {r0, r1, r5, r6, r8, ip, sp, lr}^	; <UNPREDICTABLE>
    a22c:	0074696e 	rsbseq	r6, r4, lr, ror #18
    a230:	494e4150 	stmdbmi	lr, {r4, r6, r8, lr}^
    a234:	73253a43 	teqvc	r5, #274432	; 0x43000
    a238:	3a73253a 	bcc	1cd3728 <__bss_end__+0x1cc4bb0>
    a23c:	633a6425 	teqvs	sl, #620756992	; 0x25000000
    a240:	6d655f71 	stclvs	15, cr5, [r5, #-452]!	; 0xfffffe3c
    a244:	28797470 	ldmdacs	r9!, {r4, r5, r6, sl, ip, sp, lr}^
    a248:	000a2963 	andeq	r2, sl, r3, ror #18
    a24c:	6573552f 	ldrbvs	r5, [r3, #-1327]!	; 0x52f
    a250:	622f7372 	eorvs	r7, pc, #-939524095	; 0xc8000001
    a254:	6e616972 	mcrvs	9, 3, r6, cr1, cr2, {3}
    a258:	2f6e756a 	svccs	0x006e756a
    a25c:	6b736544 	blvs	1ce3774 <__bss_end__+0x1cd4bfc>
    a260:	2f706f74 	svccs	0x00706f74
    a264:	6f686373 	svcvs	0x00686373
    a268:	572f6c6f 	strpl	r6, [pc, -pc, ror #24]!
    a26c:	65746e69 	ldrbvs	r6, [r4, #-3689]!	; 0xe69
    a270:	32393172 	eorscc	r3, r9, #-2147483620	; 0x8000001c
    a274:	53432f30 	movtpl	r2, #16176	; 0x3f30
    a278:	45303431 	ldrmi	r3, [r0, #-1073]!	; 0x431
    a27c:	3173632f 	cmncc	r3, pc, lsr #6
    a280:	2d653034 	stclcs	0, cr3, [r5, #-208]!	; 0xffffff30
    a284:	69773032 	ldmdbvs	r7!, {r1, r4, r5, ip, sp}^
    a288:	696c2f6e 	stmdbvs	ip!, {r1, r2, r3, r5, r6, r8, r9, sl, fp, sp}^
    a28c:	2f697062 	svccs	0x00697062
    a290:	6362696c 	cmnvs	r2, #108, 18	; 0x1b0000
    a294:	7269632f 	rsbvc	r6, r9, #-1140850688	; 0xbc000000
    a298:	616c7563 	cmnvs	ip, r3, ror #10
    a29c:	00682e72 	rsbeq	r2, r8, r2, ror lr
    a2a0:	494e4150 	stmdbmi	lr, {r4, r6, r8, lr}^
    a2a4:	73253a43 	teqvc	r5, #274432	; 0x43000
    a2a8:	3a73253a 	bcc	1cd3798 <__bss_end__+0x1cc4c20>
    a2ac:	213a6425 	teqcs	sl, r5, lsr #8
    a2b0:	665f7163 	ldrbvs	r7, [pc], -r3, ror #2
    a2b4:	286c6c75 	stmdacs	ip!, {r0, r2, r4, r5, r6, sl, fp, sp, lr}^
    a2b8:	000a2963 	andeq	r2, sl, r3, ror #18
    a2bc:	494e4150 	stmdbmi	lr, {r4, r6, r8, lr}^
    a2c0:	73253a43 	teqvc	r5, #274432	; 0x43000
    a2c4:	3a73253a 	bcc	1cd37b4 <__bss_end__+0x1cc4c3c>
    a2c8:	633a6425 	teqvs	sl, #620756992	; 0x25000000
    a2cc:	656e5f71 	strbvs	r5, [lr, #-3953]!	; 0xf71
    a2d0:	286d656c 	stmdacs	sp!, {r2, r3, r5, r6, r8, sl, sp, lr}^
    a2d4:	3d202963 	stccc	9, cr2, [r0, #-396]!	; 0xfffffe74
    a2d8:	0a30203d 	beq	c123d4 <__bss_end__+0xc0385c>
    a2dc:	00000000 	andeq	r0, r0, r0
    a2e0:	494e4150 	stmdbmi	lr, {r4, r6, r8, lr}^
    a2e4:	73253a43 	teqvc	r5, #274432	; 0x43000
    a2e8:	3a73253a 	bcc	1cd37d8 <__bss_end__+0x1cc4c60>
    a2ec:	633a6425 	teqvs	sl, #620756992	; 0x25000000
    a2f0:	6f705f71 	svcvs	0x00705f71
    a2f4:	6f6e5f70 	svcvs	0x006e5f70
    a2f8:	6f6c626e 	svcvs	0x006c626e
    a2fc:	63286b63 	teqvs	r8, #101376	; 0x18c00
    a300:	2965262c 	stmdbcs	r5!, {r2, r3, r5, r9, sl, sp}^
    a304:	203d3d20 	eorscs	r3, sp, r0, lsr #26
    a308:	26262030 			; <UNDEFINED> instruction: 0x26262030
    a30c:	3d206520 	cfstr32cc	mvfx6, [r0, #-128]!	; 0xffffff80
    a310:	7830203d 	ldmdavc	r0!, {r0, r2, r3, r4, r5, sp}
    a314:	000a3231 	andeq	r3, sl, r1, lsr r2
    a318:	65746e65 	ldrbvs	r6, [r4, #-3685]!	; 0xe65
    a31c:	6e692072 	mcrvs	0, 3, r2, cr9, cr2, {3}
    a320:	20747570 	rsbscs	r7, r4, r0, ror r5
    a324:	68746977 	ldmdavs	r4!, {r0, r1, r2, r4, r5, r6, r8, fp, sp, lr}^
    a328:	63206120 	teqvs	r0, #32, 2
    a32c:	69727261 	ldmdbvs	r2!, {r0, r5, r6, r9, ip, sp, lr}^
    a330:	20656761 	rsbcs	r6, r5, r1, ror #14
    a334:	75746572 	ldrbvc	r6, [r4, #-1394]!	; 0x572
    a338:	000a6e72 	andeq	r6, sl, r2, ror lr
    a33c:	656e6f44 	strbvs	r6, [lr, #-3908]!	; 0xf44
    a340:	6168203a 	cmnvs	r8, sl, lsr r0
    a344:	656c646e 	strbvs	r6, [ip, #-1134]!	; 0x46e
    a348:	64252064 	strtvs	r2, [r5], #-100	; 0x64
    a34c:	6e696c20 	cdpvs	12, 6, cr6, cr9, cr0, {1}
    a350:	000a7365 	andeq	r7, sl, r5, ror #6
    a354:	43435553 	movtmi	r5, #13651	; 0x3553
    a358:	21535345 	cmpcs	r3, r5, asr #6
    a35c:	0000000a 	andeq	r0, r0, sl

0000a360 <__FUNCTION__.4214>:
    a360:	74696d65 	strbtvc	r6, [r9], #-3429	; 0xd65
    a364:	00000000 	andeq	r0, r0, r0

0000a368 <__FUNCTION__.4162>:
    a368:	5f697072 	svcpl	0x00697072
    a36c:	5f746573 	svcpl	0x00746573
    a370:	7074756f 	rsbsvc	r7, r4, pc, ror #10
    a374:	00007475 	andeq	r7, r0, r5, ror r4

0000a378 <__FUNCTION__.4236>:
    a378:	705f6176 	subsvc	r6, pc, r6, ror r1	; <UNPREDICTABLE>
    a37c:	746e6972 	strbtvc	r6, [lr], #-2418	; 0x972
    a380:	0000006b 	andeq	r0, r0, fp, rrx
    a384:	494e4150 	stmdbmi	lr, {r4, r6, r8, lr}^
    a388:	73253a43 	teqvc	r5, #274432	; 0x43000
    a38c:	3a73253a 	bcc	1cd387c <__bss_end__+0x1cc4d04>
    a390:	303a6425 	eorscc	r6, sl, r5, lsr #8
    a394:	0000000a 	andeq	r0, r0, sl
    a398:	6362696c 	cmnvs	r2, #108, 18	; 0x1b0000
    a39c:	2d61762f 	stclcs	6, cr7, [r1, #-188]!	; 0xffffff44
    a3a0:	6e697270 	mcrvs	2, 3, r7, cr9, cr0, {3}
    a3a4:	632e6b74 	teqvs	lr, #116, 22	; 0x1d000
    a3a8:	00000000 	andeq	r0, r0, r0
    a3ac:	33323130 	teqcc	r2, #48, 2
    a3b0:	37363534 			; <UNDEFINED> instruction: 0x37363534
    a3b4:	00003938 	andeq	r3, r0, r8, lsr r9
    a3b8:	33323130 	teqcc	r2, #48, 2
    a3bc:	37363534 			; <UNDEFINED> instruction: 0x37363534
    a3c0:	62613938 	rsbvs	r3, r1, #56, 18	; 0xe0000
    a3c4:	66656463 	strbtvs	r6, [r5], -r3, ror #8
    a3c8:	00000000 	andeq	r0, r0, r0
    a3cc:	00003130 	andeq	r3, r0, r0, lsr r1
    a3d0:	494e4150 	stmdbmi	lr, {r4, r6, r8, lr}^
    a3d4:	73253a43 	teqvc	r5, #274432	; 0x43000
    a3d8:	3a73253a 	bcc	1cd38c8 <__bss_end__+0x1cc4d50>
    a3dc:	703a6425 	eorsvc	r6, sl, r5, lsr #8
    a3e0:	5f637475 	svcpl	0x00637475
    a3e4:	000a7066 	andeq	r7, sl, r6, rrx
    a3e8:	494e4150 	stmdbmi	lr, {r4, r6, r8, lr}^
    a3ec:	73253a43 	teqvc	r5, #274432	; 0x43000
    a3f0:	3a73253a 	bcc	1cd38e0 <__bss_end__+0x1cc4d68>
    a3f4:	773a6425 	ldrvc	r6, [sl, -r5, lsr #8]!
    a3f8:	68746469 	ldmdavs	r4!, {r0, r3, r5, r6, sl, sp, lr}^
    a3fc:	33203c20 	teqcc	r0, #32, 24	; 0x2000
    a400:	00000a32 	andeq	r0, r0, r2, lsr sl
    a404:	494e4150 	stmdbmi	lr, {r4, r6, r8, lr}^
    a408:	73253a43 	teqvc	r5, #274432	; 0x43000
    a40c:	3a73253a 	bcc	1cd38fc <__bss_end__+0x1cc4d84>
    a410:	663a6425 	ldrtvs	r6, [sl], -r5, lsr #8
    a414:	74616f6c 	strbtvc	r6, [r1], #-3948	; 0xf6c
    a418:	746f6e20 	strbtvc	r6, [pc], #-3616	; a420 <__FUNCTION__.4236+0xa8>
    a41c:	616e6520 	cmnvs	lr, r0, lsr #10
    a420:	64656c62 	strbtvs	r6, [r5], #-3170	; 0xc62
    a424:	0a212121 	beq	8528b0 <__bss_end__+0x843d38>
    a428:	00000000 	andeq	r0, r0, r0
    a42c:	494e4150 	stmdbmi	lr, {r4, r6, r8, lr}^
    a430:	73253a43 	teqvc	r5, #274432	; 0x43000
    a434:	3a73253a 	bcc	1cd3924 <__bss_end__+0x1cc4dac>
    a438:	703a6425 	eorsvc	r6, sl, r5, lsr #8
    a43c:	746e6972 	strbtvc	r6, [lr], #-2418	; 0x972
    a440:	6e203a6b 	vnmulvs.f32	s6, s0, s23
    a444:	6820746f 	stmdavs	r0!, {r0, r1, r2, r3, r5, r6, sl, ip, sp, lr}
    a448:	6c646e61 	stclvs	14, cr6, [r4], #-388	; 0xfffffe7c
    a44c:	20676e69 	rsbcs	r6, r7, r9, ror #28
    a450:	63657073 	cmnvs	r5, #115	; 0x73
    a454:	65696669 	strbvs	r6, [r9, #-1641]!	; 0x669
    a458:	25272072 	strcs	r2, [r7, #-114]!	; 0x72
    a45c:	0a0a2763 	beq	2941f0 <__bss_end__+0x285678>
    a460:	00000000 	andeq	r0, r0, r0
    a464:	454e4f44 	strbmi	r4, [lr, #-3908]	; 0xf44
    a468:	0a212121 	beq	8528f4 <__bss_end__+0x843d7c>
    a46c:	00000000 	andeq	r0, r0, r0
    a470:	756f6261 	strbvc	r6, [pc, #-609]!	; a217 <AUX_MU_STAT_REG+0x3>
    a474:	6f742074 	svcvs	0x00742074
    a478:	69727020 	ldmdbvs	r2!, {r5, ip, sp, lr}^
    a47c:	6f20746e 	svcvs	0x0020746e
    a480:	6572206e 	ldrbvs	r2, [r2, #-110]!	; 0x6e
    a484:	616c7567 	cmnvs	ip, r7, ror #10
    a488:	72702072 	rsbsvc	r2, r0, #114	; 0x72
    a48c:	66746e69 	ldrbtvs	r6, [r4], -r9, ror #28
    a490:	0000000a 	andeq	r0, r0, sl
    a494:	63637573 	cmnvs	r3, #482344960	; 0x1cc00000
    a498:	21737365 	cmncs	r3, r5, ror #6
    a49c:	0000000a 	andeq	r0, r0, sl

0000a4a0 <__FUNCTION__.4263>:
    a4a0:	755f7773 	ldrbvc	r7, [pc, #-1907]	; 9d35 <uart_init+0x89>
    a4a4:	5f747261 	svcpl	0x00747261
    a4a8:	73746567 	cmnvc	r4, #432013312	; 0x19c00000
    a4ac:	746e755f 	strbtvc	r7, [lr], #-1375	; 0x55f
    a4b0:	00006c69 	andeq	r6, r0, r9, ror #24

0000a4b4 <__FUNCTION__.4275>:
    a4b4:	755f7773 	ldrbvc	r7, [pc, #-1907]	; 9d49 <uart_can_getc+0x1>
    a4b8:	5f747261 	svcpl	0x00747261
    a4bc:	73746567 	cmnvc	r4, #432013312	; 0x19c00000
    a4c0:	6d69745f 	cfstrdvs	mvd7, [r9, #-380]!	; 0xfffffe84
    a4c4:	74756f65 	ldrbtvc	r6, [r5], #-3941	; 0xf65
    a4c8:	00000000 	andeq	r0, r0, r0

0000a4cc <__FUNCTION__.4289>:
    a4cc:	755f7773 	ldrbvc	r7, [pc, #-1907]	; 9d61 <uart_can_getc+0x19>
    a4d0:	5f747261 	svcpl	0x00747261
    a4d4:	74696e69 	strbtvc	r6, [r9], #-3689	; 0xe69
    a4d8:	6c65685f 	stclvs	8, cr6, [r5], #-380	; 0xfffffe84
    a4dc:	00726570 	rsbseq	r6, r2, r0, ror r5

0000a4e0 <__FUNCTION__.4295>:
    a4e0:	755f7773 	ldrbvc	r7, [pc, #-1907]	; 9d75 <uart_getc+0x11>
    a4e4:	5f747261 	svcpl	0x00747261
    a4e8:	63746567 	cmnvs	r4, #432013312	; 0x19c00000
    a4ec:	00000000 	andeq	r0, r0, r0

0000a4f0 <__FUNCTION__.4317>:
    a4f0:	755f7773 	ldrbvc	r7, [pc, #-1907]	; 9d85 <uart_getc+0x21>
    a4f4:	5f747261 	svcpl	0x00747261
    a4f8:	6e697270 	mcrvs	2, 3, r7, cr9, cr0, {3}
    a4fc:	00006b74 	andeq	r6, r0, r4, ror fp

0000a500 <__FUNCTION__.4325>:
    a500:	755f7773 	ldrbvc	r7, [pc, #-1907]	; 9d95 <uart_can_putc+0x9>
    a504:	5f747261 	svcpl	0x00747261
    a508:	73746567 	cmnvc	r4, #432013312	; 0x19c00000
    a50c:	746e755f 	strbtvc	r7, [lr], #-1375	; 0x55f
    a510:	625f6c69 	subsvs	r6, pc, #26880	; 0x6900
    a514:	00006b6c 	andeq	r6, r0, ip, ror #22
    a518:	494e4150 	stmdbmi	lr, {r4, r6, r8, lr}^
    a51c:	73253a43 	teqvc	r5, #274432	; 0x43000
    a520:	3a73253a 	bcc	1cd3a10 <__bss_end__+0x1cc4e98>
    a524:	6e3a6425 	cdpvs	4, 3, cr6, cr10, cr5, {1}
    a528:	65747962 	ldrbvs	r7, [r4, #-2402]!	; 0x962
    a52c:	0a303e73 	beq	c19f00 <__bss_end__+0xc0b388>
    a530:	00000000 	andeq	r0, r0, r0
    a534:	732d796d 	teqvc	sp, #1785856	; 0x1b4000
    a538:	732f6372 	teqvc	pc, #-939524095	; 0xc8000001
    a53c:	61752d77 	cmnvs	r5, r7, ror sp
    a540:	632e7472 	teqvs	lr, #1912602624	; 0x72000000
    a544:	00000000 	andeq	r0, r0, r0
    a548:	494e4150 	stmdbmi	lr, {r4, r6, r8, lr}^
    a54c:	73253a43 	teqvc	r5, #274432	; 0x43000
    a550:	3a73253a 	bcc	1cd3a40 <__bss_end__+0x1cc4ec8>
    a554:	283a6425 	ldmdacs	sl!, {r0, r2, r5, sl, sp, lr}
    a558:	207a686d 	rsbscs	r6, sl, sp, ror #16
    a55c:	6162202d 	cmnvs	r2, sp, lsr #32
    a560:	20296475 	eorcs	r6, r9, r5, ror r4
    a564:	64203d3c 	strtvs	r3, [r0], #-3388	; 0xd3c
    a568:	76697265 	strbtvc	r7, [r9], -r5, ror #4
    a56c:	26206465 	strtcs	r6, [r0], -r5, ror #8
    a570:	65642026 	strbvs	r2, [r4, #-38]!	; 0x26
    a574:	65766972 	ldrbvs	r6, [r6, #-2418]!	; 0x972
    a578:	3d3c2064 	ldccc	0, cr2, [ip, #-400]!	; 0xfffffe70
    a57c:	686d2820 	stmdavs	sp!, {r5, fp, sp}^
    a580:	202b207a 	eorcs	r2, fp, sl, ror r0
    a584:	64756162 	ldrbtvs	r6, [r5], #-354	; 0x162
    a588:	00000a29 	andeq	r0, r0, r9, lsr #20
    a58c:	494e4150 	stmdbmi	lr, {r4, r6, r8, lr}^
    a590:	73253a43 	teqvc	r5, #274432	; 0x43000
    a594:	3a73253a 	bcc	1cd3a84 <__bss_end__+0x1cc4f0c>
    a598:	693a6425 	ldmdbvs	sl!, {r0, r2, r5, sl, sp, lr}
    a59c:	736f706d 	cmnvc	pc, #109	; 0x6d
    a5a0:	6c626973 	stclvs	9, cr6, [r2], #-460	; 0xfffffe34
    a5a4:	68203a65 	stmdavs	r0!, {r0, r2, r5, r6, r9, fp, ip, sp}
    a5a8:	20657661 	rsbcs	r7, r5, r1, ror #12
    a5ac:	69206e61 	stmdbvs	r0!, {r0, r5, r6, r9, sl, fp, sp, lr}
    a5b0:	6e69666e 	cdpvs	6, 6, cr6, cr9, cr14, {3}
    a5b4:	20657469 	rsbcs	r7, r5, r9, ror #8
    a5b8:	656d6974 	strbvs	r6, [sp, #-2420]!	; 0x974
    a5bc:	2174756f 	cmncs	r4, pc, ror #10
    a5c0:	00000a0a 	andeq	r0, r0, sl, lsl #20
    a5c4:	494e4150 	stmdbmi	lr, {r4, r6, r8, lr}^
    a5c8:	73253a43 	teqvc	r5, #274432	; 0x43000
    a5cc:	3a73253a 	bcc	1cd3abc <__bss_end__+0x1cc4f44>
    a5d0:	733a6425 	teqvc	sl, #620756992	; 0x25000000
    a5d4:	203c207a 	eorscs	r2, ip, sl, ror r0
    a5d8:	657a6973 	ldrbvs	r6, [sl, #-2419]!	; 0x973
    a5dc:	6220666f 	eorvs	r6, r0, #116391936	; 0x6f00000
    a5e0:	312d6675 	teqcc	sp, r5, ror r6
    a5e4:	0000000a 	andeq	r0, r0, sl

0000a5e8 <__FUNCTION__.4194>:
    a5e8:	74736166 	ldrbtvc	r6, [r3], #-358	; 0x166
    a5ec:	746e695f 	strbtvc	r6, [lr], #-2399	; 0x95f
    a5f0:	75727265 	ldrbvc	r7, [r2, #-613]!	; 0x265
    a5f4:	765f7470 			; <UNDEFINED> instruction: 0x765f7470
    a5f8:	6f746365 	svcvs	0x00746365
    a5fc:	00000072 	andeq	r0, r0, r2, ror r0

0000a600 <__FUNCTION__.4198>:
    a600:	74666f73 	strbtvc	r6, [r6], #-3955	; 0xf73
    a604:	65726177 	ldrbvs	r6, [r2, #-375]!	; 0x177
    a608:	746e695f 	strbtvc	r6, [lr], #-2399	; 0x95f
    a60c:	75727265 	ldrbvc	r7, [r2, #-613]!	; 0x265
    a610:	765f7470 			; <UNDEFINED> instruction: 0x765f7470
    a614:	6f746365 	svcvs	0x00746365
    a618:	00000072 	andeq	r0, r0, r2, ror r0

0000a61c <__FUNCTION__.4202>:
    a61c:	65736572 	ldrbvs	r6, [r3, #-1394]!	; 0x572
    a620:	65765f74 	ldrbvs	r5, [r6, #-3956]!	; 0xf74
    a624:	726f7463 	rsbvc	r7, pc, #1660944384	; 0x63000000
    a628:	00000000 	andeq	r0, r0, r0

0000a62c <__FUNCTION__.4206>:
    a62c:	65646e75 	strbvs	r6, [r4, #-3701]!	; 0xe75
    a630:	656e6966 	strbvs	r6, [lr, #-2406]!	; 0x966
    a634:	6e695f64 	cdpvs	15, 6, cr5, cr9, cr4, {3}
    a638:	75727473 	ldrbvc	r7, [r2, #-1139]!	; 0x473
    a63c:	6f697463 	svcvs	0x00697463
    a640:	65765f6e 	ldrbvs	r5, [r6, #-3950]!	; 0xf6e
    a644:	726f7463 	rsbvc	r7, pc, #1660944384	; 0x63000000
    a648:	00000000 	andeq	r0, r0, r0

0000a64c <__FUNCTION__.4210>:
    a64c:	66657270 			; <UNDEFINED> instruction: 0x66657270
    a650:	68637465 	stmdavs	r3!, {r0, r2, r5, r6, sl, ip, sp, lr}^
    a654:	6f62615f 	svcvs	0x0062615f
    a658:	765f7472 			; <UNDEFINED> instruction: 0x765f7472
    a65c:	6f746365 	svcvs	0x00746365
    a660:	00000072 	andeq	r0, r0, r2, ror r0

0000a664 <__FUNCTION__.4214>:
    a664:	61746164 	cmnvs	r4, r4, ror #2
    a668:	6f62615f 	svcvs	0x0062615f
    a66c:	765f7472 			; <UNDEFINED> instruction: 0x765f7472
    a670:	6f746365 	svcvs	0x00746365
    a674:	00000072 	andeq	r0, r0, r2, ror r0
    a678:	494e4150 	stmdbmi	lr, {r4, r6, r8, lr}^
    a67c:	73253a43 	teqvc	r5, #274432	; 0x43000
    a680:	3a73253a 	bcc	1cd3b70 <__bss_end__+0x1cc4ff8>
    a684:	453a6425 	ldrmi	r6, [sl, #-1061]!	; 0x425
    a688:	524f5252 	subpl	r5, pc, #536870917	; 0x20000005
    a68c:	6e75203a 	mrcvs	0, 3, r2, cr5, cr10, {1}
    a690:	646e6168 	strbtvs	r6, [lr], #-360	; 0x168
    a694:	2064656c 	rsbcs	r6, r4, ip, ror #10
    a698:	65637865 	strbvs	r7, [r3, #-2149]!	; 0x865
    a69c:	6f697470 	svcvs	0x00697470
    a6a0:	253c206e 	ldrcs	r2, [ip, #-110]!	; 0x6e
    a6a4:	61203e73 	teqvs	r0, r3, ror lr
    a6a8:	43502074 	cmpmi	r0, #116	; 0x74
    a6ac:	0a78253d 	beq	1e13ba8 <__bss_end__+0x1e05030>
    a6b0:	0000000a 	andeq	r0, r0, sl
    a6b4:	34317363 	ldrtcc	r7, [r1], #-867	; 0x363
    a6b8:	692d6530 	pushvs	{r4, r5, r8, sl, sp, lr}
    a6bc:	7265746e 	rsbvc	r7, r5, #1845493760	; 0x6e000000
    a6c0:	74707572 	ldrbtvc	r7, [r0], #-1394	; 0x572
    a6c4:	746e692f 	strbtvc	r6, [lr], #-2351	; 0x92f
    a6c8:	75727265 	ldrbvc	r7, [r2, #-613]!	; 0x265
    a6cc:	2d737470 	cfldrdcs	mvd7, [r3, #-448]!	; 0xfffffe40
    a6d0:	00632e63 	rsbeq	r2, r3, r3, ror #28
    a6d4:	74736166 	ldrbtvc	r6, [r3], #-358	; 0x166
    a6d8:	00000000 	andeq	r0, r0, r0
    a6dc:	74666f73 	strbtvc	r6, [r6], #-3955	; 0xf73
    a6e0:	746e6920 	strbtvc	r6, [lr], #-2336	; 0x920
    a6e4:	75727265 	ldrbvc	r7, [r2, #-613]!	; 0x265
    a6e8:	00007470 	andeq	r7, r0, r0, ror r4
    a6ec:	65736572 	ldrbvs	r6, [r3, #-1394]!	; 0x572
    a6f0:	65762074 	ldrbvs	r2, [r6, #-116]!	; 0x74
    a6f4:	726f7463 	rsbvc	r7, pc, #1660944384	; 0x63000000
    a6f8:	00000000 	andeq	r0, r0, r0
    a6fc:	65646e75 	strbvs	r6, [r4, #-3701]!	; 0xe75
    a700:	656e6966 	strbvs	r6, [lr, #-2406]!	; 0x966
    a704:	6e692064 	cdpvs	0, 6, cr2, cr9, cr4, {3}
    a708:	75727473 	ldrbvc	r7, [r2, #-1139]!	; 0x473
    a70c:	6f697463 	svcvs	0x00697463
    a710:	0000006e 	andeq	r0, r0, lr, rrx
    a714:	66657270 			; <UNDEFINED> instruction: 0x66657270
    a718:	68637465 	stmdavs	r3!, {r0, r2, r5, r6, sl, ip, sp, lr}^
    a71c:	6f626120 	svcvs	0x00626120
    a720:	00007472 	andeq	r7, r0, r2, ror r4
    a724:	61746164 	cmnvs	r4, r4, ror #2
    a728:	6f626120 	svcvs	0x00626120
    a72c:	00007472 	andeq	r7, r0, r2, ror r4

Disassembly of section .bss:

0000a730 <__bss_start__>:
	...

0000c744 <aux_irq_reg>:
    c744:	00000000 	andeq	r0, r0, r0

0000c748 <hw_uart>:
    c748:	00000000 	andeq	r0, r0, r0

0000c74c <in_data>:
    c74c:	00000000 	andeq	r0, r0, r0

0000c750 <putQ>:
	...

0000e764 <buf.4162>:
	...

0000eb64 <console_uart>:
	...

0000eb70 <rpi_arm_timer_t>:
	...

Disassembly of section .ARM.attributes:

00000000 <.ARM.attributes>:
   0:	00002a41 	andeq	r2, r0, r1, asr #20
   4:	61656100 	cmnvs	r5, r0, lsl #2
   8:	01006962 	tsteq	r0, r2, ror #18
   c:	00000020 	andeq	r0, r0, r0, lsr #32
  10:	4b5a3605 	blmi	168d82c <__bss_end__+0x167ecb4>
  14:	08070600 	stmdaeq	r7, {r9, sl}
  18:	12010901 	andne	r0, r1, #16384	; 0x4000
  1c:	15011404 	strne	r1, [r1, #-1028]	; 0x404
  20:	18031701 	stmdane	r3, {r0, r8, r9, sl, ip}
  24:	22011a01 	andcs	r1, r1, #4096	; 0x1000
  28:	Address 0x0000000000000028 is out of bounds.


Disassembly of section .comment:

00000000 <.comment>:
   0:	3a434347 	bcc	10d0d24 <__bss_end__+0x10c21ac>
   4:	4e472820 	cdpmi	8, 4, cr2, cr7, cr0, {1}
   8:	34202955 	strtcc	r2, [r0], #-2389	; 0x955
   c:	332e382e 	teqcc	lr, #3014656	; 0x2e0000
	...

Disassembly of section .debug_info:

00000000 <.debug_info>:
       0:	00001176 	andeq	r1, r0, r6, ror r1
       4:	00000004 	andeq	r0, r0, r4
       8:	01040000 	mrseq	r0, (UNDEF: 4)
       c:	00000361 	andeq	r0, r0, r1, ror #6
      10:	0003f001 	andeq	pc, r3, r1
      14:	0002e800 	andeq	lr, r2, r0, lsl #16
      18:	00801000 	addeq	r1, r0, r0
      1c:	00090c00 	andeq	r0, r9, r0, lsl #24
      20:	00000000 	andeq	r0, r0, r0
      24:	05040200 	streq	r0, [r4, #-512]	; 0x200
      28:	00746e69 	rsbseq	r6, r4, r9, ror #28
      2c:	00001103 	andeq	r1, r0, r3, lsl #2
      30:	37d40300 	ldrbcc	r0, [r4, r0, lsl #6]
      34:	04000000 	streq	r0, [r0], #-0
      38:	00640704 	rsbeq	r0, r4, r4, lsl #14
      3c:	01040000 	mrseq	r0, (UNDEF: 4)
      40:	0002ab06 	andeq	sl, r2, r6, lsl #22
      44:	05020400 	streq	r0, [r2, #-1024]	; 0x400
      48:	000002bf 			; <UNDEFINED> instruction: 0x000002bf
      4c:	a9050404 	stmdbge	r5, {r2, sl}
      50:	04000000 	streq	r0, [r0], #-0
      54:	00a40508 	adceq	r0, r4, r8, lsl #10
      58:	52030000 	andpl	r0, r3, #0
      5c:	04000004 	streq	r0, [r0], #-4
      60:	0000652e 	andeq	r6, r0, lr, lsr #10
      64:	08010400 	stmdaeq	r1, {sl}
      68:	000002a9 	andeq	r0, r0, r9, lsr #5
      6c:	c5070204 	strgt	r0, [r7, #-516]	; 0x204
      70:	03000001 	movweq	r0, #1
      74:	00000353 	andeq	r0, r0, r3, asr r3
      78:	007e3404 	rsbseq	r3, lr, r4, lsl #8
      7c:	04040000 	streq	r0, [r4], #-0
      80:	00005f07 	andeq	r5, r0, r7, lsl #30
      84:	07080400 	streq	r0, [r8, -r0, lsl #8]
      88:	0000005a 	andeq	r0, r0, sl, asr r0
      8c:	29070404 	stmdbcs	r7, {r2, sl}
      90:	05000002 	streq	r0, [r0, #-2]
      94:	08010404 	stmdaeq	r1, {r2, sl}
      98:	000002b2 			; <UNDEFINED> instruction: 0x000002b2
      9c:	00a20406 	adceq	r0, r2, r6, lsl #8
      a0:	95070000 	strls	r0, [r7, #-0]
      a4:	08000000 	stmdaeq	r0, {}	; <UNPREDICTABLE>
      a8:	00000095 	muleq	r0, r5, r0
      ac:	000000b7 	strheq	r0, [r0], -r7
      b0:	00008c09 	andeq	r8, r0, r9, lsl #24
      b4:	0a000700 	beq	1cbc <_start-0x6344>
      b8:	f00c0501 			; <UNDEFINED> instruction: 0xf00c0501
      bc:	0b000000 	bleq	c4 <_start-0x7f3c>
      c0:	0000007f 	andeq	r0, r0, pc, ror r0
      c4:	04410b00 	strbeq	r0, [r1], #-2816	; 0xb00
      c8:	0b010000 	bleq	400d0 <__bss_end__+0x31558>
      cc:	00000492 	muleq	r0, r2, r4
      d0:	04a10b04 	strteq	r0, [r1], #2820	; 0xb04
      d4:	0b050000 	bleq	1400dc <__bss_end__+0x131564>
      d8:	000004b0 			; <UNDEFINED> instruction: 0x000004b0
      dc:	04bf0b06 	ldrteq	r0, [pc], #2822	; e4 <_start-0x7f1c>
      e0:	0b070000 	bleq	1c00e8 <__bss_end__+0x1b1570>
      e4:	000004ce 	andeq	r0, r0, lr, asr #9
      e8:	04dd0b03 	ldrbeq	r0, [sp], #2819	; 0xb03
      ec:	00020000 	andeq	r0, r2, r0
      f0:	00047403 	andeq	r7, r4, r3, lsl #8
      f4:	b7150500 	ldrlt	r0, [r5, -r0, lsl #10]
      f8:	0a000000 	beq	100 <_start-0x7f00>
      fc:	68330604 	ldmdavs	r3!, {r2, r9, sl}
     100:	0b000001 	bleq	10c <_start-0x7ef4>
     104:	00000100 	andeq	r0, r0, r0, lsl #2
     108:	8082e880 	addhi	lr, r2, r0, lsl #17
     10c:	00f10b02 	rscseq	r0, r1, r2, lsl #22
     110:	e8800000 	stm	r0, {}	; <UNPREDICTABLE>
     114:	0b028082 	bleq	a0324 <__bss_end__+0x917ac>
     118:	000003fb 	strdeq	r0, [r0], -fp
     11c:	8082e884 	addhi	lr, r2, r4, lsl #17
     120:	00df0b02 	sbcseq	r0, pc, r2, lsl #22
     124:	e8880000 	stm	r8, {}	; <UNPREDICTABLE>
     128:	0b028082 	bleq	a0338 <__bss_end__+0x917c0>
     12c:	0000040b 	andeq	r0, r0, fp, lsl #8
     130:	8082e88c 	addhi	lr, r2, ip, lsl #17
     134:	002f0b02 	eoreq	r0, pc, r2, lsl #22
     138:	e8900000 	ldm	r0, {}	; <UNPREDICTABLE>
     13c:	0b028082 	bleq	a034c <__bss_end__+0x917d4>
     140:	0000017e 	andeq	r0, r0, lr, ror r1
     144:	8082e894 	umullhi	lr, r2, r4, r8
     148:	025c0b02 	subseq	r0, ip, #2048	; 0x800
     14c:	e8980000 	ldm	r8, {}	; <UNPREDICTABLE>
     150:	0b028082 	bleq	a0360 <__bss_end__+0x917e8>
     154:	000003db 	ldrdeq	r0, [r0], -fp
     158:	8082e89c 	umullhi	lr, r2, ip, r8
     15c:	053b0b02 	ldreq	r0, [fp, #-2818]!	; 0xb02
     160:	e8a00000 	stmia	r0!, {}	; <UNPREDICTABLE>
     164:	00028082 	andeq	r8, r2, r2, lsl #1
     168:	0003d503 	andeq	sp, r3, r3, lsl #10
     16c:	651c0200 	ldrvs	r0, [ip, #-512]	; 0x200
     170:	0c000000 	stceq	0, cr0, [r0], {-0}
     174:	28022014 	stmdacs	r2, {r2, r4, sp}
     178:	000001cd 	andeq	r0, r0, sp, asr #3
     17c:	0000710d 	andeq	r7, r0, sp, lsl #2
     180:	de2a0200 	cdple	2, 2, cr0, cr10, cr0, {0}
     184:	00000001 	andeq	r0, r0, r1
     188:	0003b80e 	andeq	fp, r3, lr, lsl #16
     18c:	372b0200 	strcc	r0, [fp, -r0, lsl #4]!
     190:	00000000 	andeq	r0, r0, r0
     194:	034e0e20 	movteq	r0, #60960	; 0xee20
     198:	2c020000 	stccs	0, cr0, [r2], {-0}
     19c:	000001e3 	andeq	r0, r0, r3, ror #3
     1a0:	240e2004 	strcs	r2, [lr], #-4
     1a4:	02000002 	andeq	r0, r0, #2
     1a8:	0001e32c 	andeq	lr, r1, ip, lsr #6
     1ac:	0e200800 	cdpeq	8, 2, cr0, cr0, cr0, {0}
     1b0:	000003be 			; <UNDEFINED> instruction: 0x000003be
     1b4:	01e32f02 	mvneq	r2, r2, lsl #30
     1b8:	200c0000 	andcs	r0, ip, r0
     1bc:	0000180f 	andeq	r1, r0, pc, lsl #16
     1c0:	37310200 	ldrcc	r0, [r1, -r0, lsl #4]!
     1c4:	04000000 	streq	r0, [r0], #-0
     1c8:	20101f01 	andscs	r1, r0, r1, lsl #30
     1cc:	01680800 	cmneq	r8, r0, lsl #16
     1d0:	01de0000 	bicseq	r0, lr, r0
     1d4:	8c100000 	ldchi	0, cr0, [r0], {-0}
     1d8:	ff000000 			; <UNDEFINED> instruction: 0xff000000
     1dc:	cd11001f 	ldcgt	0, cr0, [r1, #-124]	; 0xffffff84
     1e0:	11000001 	tstne	r0, r1
     1e4:	00000037 	andeq	r0, r0, r7, lsr r0
     1e8:	00042503 	andeq	r2, r4, r3, lsl #10
     1ec:	73320200 	teqvc	r2, #0, 4
     1f0:	12000001 	andne	r0, r0, #1
     1f4:	2a0e070c 	bcs	381e2c <__bss_end__+0x3732b4>
     1f8:	13000002 	movwne	r0, #2
     1fc:	07007874 	smlsdxeq	r0, r4, r8, r7
     200:	00005a0f 	andeq	r5, r0, pc, lsl #20
     204:	72130000 	andsvc	r0, r3, #0
     208:	0f070078 	svceq	0x00070078
     20c:	0000005a 	andeq	r0, r0, sl, asr r0
     210:	035c0d01 	cmpeq	ip, #1, 26	; 0x40
     214:	10070000 	andne	r0, r7, r0
     218:	00000073 	andeq	r0, r0, r3, ror r0
     21c:	04f90d04 	ldrbteq	r0, [r9], #3332	; 0xd04
     220:	11070000 	mrsne	r0, (UNDEF: 7)
     224:	00000073 	andeq	r0, r0, r3, ror r0
     228:	9f030008 	svcls	0x00030008
     22c:	07000002 	streq	r0, [r0, -r2]
     230:	0001f312 	andeq	pc, r1, r2, lsl r3	; <UNPREDICTABLE>
     234:	011b1400 	tsteq	fp, r0, lsl #8
     238:	082c0000 	stmdaeq	ip!, {}	; <UNPREDICTABLE>
     23c:	0002c506 	andeq	ip, r2, r6, lsl #10
     240:	6f691300 	svcvs	0x00691300
     244:	e3090800 	movw	r0, #38912	; 0x9800
     248:	00000001 	andeq	r0, r0, r1
     24c:	72656913 	rsbvc	r6, r5, #311296	; 0x4c000
     250:	e30a0800 	movw	r0, #43008	; 0xa800
     254:	04000001 	streq	r0, [r0], #-1
     258:	72696913 	rsbvc	r6, r9, #311296	; 0x4c000
     25c:	e3110800 	tst	r1, #0, 16
     260:	08000001 	stmdaeq	r0, {r0}
     264:	72636c13 	rsbvc	r6, r3, #4864	; 0x1300
     268:	e3130800 	tst	r3, #0, 16
     26c:	0c000001 	stceq	0, cr0, [r0], {1}
     270:	72636d13 	rsbvc	r6, r3, #1216	; 0x4c0
     274:	e3140800 	tst	r4, #0, 16
     278:	10000001 	andne	r0, r0, r1
     27c:	72736c13 	rsbsvc	r6, r3, #4864	; 0x1300
     280:	e3150800 	tst	r5, #0, 16
     284:	14000001 	strne	r0, [r0], #-1
     288:	72736d13 	rsbsvc	r6, r3, #1216	; 0x4c0
     28c:	e3160800 	tst	r6, #0, 16
     290:	18000001 	stmdane	r0, {r0}
     294:	0000d10d 	andeq	sp, r0, sp, lsl #2
     298:	e3170800 	tst	r7, #0, 16
     29c:	1c000001 	stcne	0, cr0, [r0], {1}
     2a0:	0000be0d 	andeq	fp, r0, sp, lsl #28
     2a4:	e31b0800 	tst	fp, #0, 16
     2a8:	20000001 	andcs	r0, r0, r1
     2ac:	0008e00d 	andeq	lr, r8, sp
     2b0:	e31d0800 	tst	sp, #0, 16
     2b4:	24000001 	strcs	r0, [r0], #-1
     2b8:	00035c0d 	andeq	r5, r3, sp, lsl #24
     2bc:	e31e0800 	tst	lr, #0, 16
     2c0:	28000001 	stmdacs	r0, {r0}
     2c4:	09020a00 	stmdbeq	r2, {r9, fp}
     2c8:	0002e205 	andeq	lr, r2, r5, lsl #4
     2cc:	033d0b00 	teqeq	sp, #0, 22
     2d0:	0b000000 	bleq	2d8 <_start-0x7d28>
     2d4:	000002dc 	ldrdeq	r0, [r0], -ip
     2d8:	b20b08d7 	andlt	r0, fp, #14090240	; 0xd70000
     2dc:	ae000000 	cdpge	0, 0, cr0, cr0, cr0, {0}
     2e0:	33030011 	movwcc	r0, #12305	; 0x3011
     2e4:	09000001 	stmdbeq	r0, {r0}
     2e8:	0002c505 	andeq	ip, r2, r5, lsl #10
     2ec:	05210300 	streq	r0, [r1, #-768]!	; 0x300
     2f0:	07090000 	streq	r0, [r9, -r0]
     2f4:	00000235 	andeq	r0, r0, r5, lsr r2
     2f8:	00008f15 	andeq	r8, r0, r5, lsl pc
     2fc:	25390200 	ldrcs	r0, [r9, #-512]!	; 0x200
     300:	03000000 	movweq	r0, #0
     304:	00000312 	andeq	r0, r0, r2, lsl r3
     308:	02007116 	andeq	r7, r0, #-2147483643	; 0x80000005
     30c:	00031239 	andeq	r1, r3, r9, lsr r2
     310:	04060000 	streq	r0, [r6], #-0
     314:	000001e8 	andeq	r0, r0, r8, ror #3
     318:	00053315 	andeq	r3, r5, r5, lsl r3
     31c:	253c0200 	ldrcs	r0, [ip, #-512]!	; 0x200
     320:	03000000 	movweq	r0, #0
     324:	00000332 	andeq	r0, r0, r2, lsr r3
     328:	02007116 	andeq	r7, r0, #-2147483643	; 0x80000005
     32c:	0003123c 	andeq	r1, r3, ip, lsr r2
     330:	bc150000 	ldclt	0, cr0, [r5], {-0}
     334:	02000001 	andeq	r0, r0, #1
     338:	0000373e 	andeq	r3, r0, lr, lsr r7
     33c:	034c0300 	movteq	r0, #49920	; 0xc300
     340:	71160000 	tstvc	r6, r0
     344:	123e0200 	eorsne	r0, lr, #0, 4
     348:	00000003 	andeq	r0, r0, r3
     34c:	00024c15 	andeq	r4, r2, r5, lsl ip
     350:	25420200 	strbcs	r0, [r2, #-512]	; 0x200
     354:	03000000 	movweq	r0, #0
     358:	0000037a 	andeq	r0, r0, sl, ror r3
     35c:	02006316 	andeq	r6, r0, #1476395008	; 0x58000000
     360:	00031242 	andeq	r1, r3, r2, asr #4
     364:	00651600 	rsbeq	r1, r5, r0, lsl #12
     368:	037a4202 	cmneq	sl, #536870912	; 0x20000000
     36c:	24170000 	ldrcs	r0, [r7], #-0
     370:	02000002 	andeq	r0, r0, #2
     374:	00003745 	andeq	r3, r0, r5, asr #14
     378:	04060000 	streq	r0, [r6], #-0
     37c:	00000168 	andeq	r0, r0, r8, ror #2
     380:	0003cd15 	andeq	ip, r3, r5, lsl sp
     384:	25560200 	ldrbcs	r0, [r6, #-512]	; 0x200
     388:	03000000 	movweq	r0, #0
     38c:	000003ae 	andeq	r0, r0, lr, lsr #7
     390:	02006316 	andeq	r6, r0, #1476395008	; 0x58000000
     394:	00031256 	andeq	r1, r3, r6, asr r2
     398:	00781600 	rsbseq	r1, r8, r0, lsl #12
     39c:	01685602 	cmneq	r8, r2, lsl #12
     3a0:	4e170000 	cdpmi	0, 1, cr0, cr7, cr0, {0}
     3a4:	02000003 	andeq	r0, r0, #3
     3a8:	00003757 	andeq	r3, r0, r7, asr r7
     3ac:	05180000 	ldreq	r0, [r8, #-0]
     3b0:	01000002 	tsteq	r0, r2
     3b4:	0000253f 	andeq	r2, r0, pc, lsr r5
     3b8:	00801000 	addeq	r1, r0, r0
     3bc:	00002800 	andeq	r2, r0, r0, lsl #16
     3c0:	e49c0100 	ldr	r0, [ip], #256	; 0x100
     3c4:	19000003 	stmdbne	r0, {r0, r1}
     3c8:	000002f8 	strdeq	r0, [r0], -r8
     3cc:	00008010 	andeq	r8, r0, r0, lsl r0
     3d0:	00000014 	andeq	r0, r0, r4, lsl r0
     3d4:	081a4001 	ldmdaeq	sl, {r0, lr}
     3d8:	06000003 	streq	r0, [r0], -r3
     3dc:	00a73003 	adceq	r3, r7, r3
     3e0:	00009f00 	andeq	r9, r0, r0, lsl #30
     3e4:	00000018 	andeq	r0, r0, r8, lsl r0
     3e8:	11480100 	mrsne	r0, (UNDEF: 88)
     3ec:	38000004 	stmdacc	r0, {r2}
     3f0:	24000080 	strcs	r0, [r0], #-128	; 0x80
     3f4:	01000000 	mrseq	r0, (UNDEF: 0)
     3f8:	0004119c 	muleq	r4, ip, r1
     3fc:	80441b00 	subhi	r1, r4, r0, lsl #22
     400:	10590000 	subsne	r0, r9, r0
     404:	011c0000 	tsteq	ip, r0
     408:	000c0550 	andeq	r0, ip, r0, asr r5
     40c:	00202150 	eoreq	r2, r0, r0, asr r1
     410:	04160700 	ldreq	r0, [r6], #-1792	; 0x700
     414:	04060000 	streq	r0, [r6], #-0
     418:	00000037 	andeq	r0, r0, r7, lsr r0
     41c:	0004ec18 	andeq	lr, r4, r8, lsl ip
     420:	e2540100 	subs	r0, r4, #0, 2
     424:	5c000002 	stcpl	0, cr0, [r0], {2}
     428:	60000080 	andvs	r0, r0, r0, lsl #1
     42c:	01000000 	mrseq	r0, (UNDEF: 0)
     430:	00046d9c 	muleq	r4, ip, sp
     434:	00771d00 	rsbseq	r1, r7, r0, lsl #26
     438:	54010000 	strpl	r0, [r1], #-0
     43c:	0000046d 	andeq	r0, r0, sp, ror #8
     440:	00000000 	andeq	r0, r0, r0
     444:	0002441e 	andeq	r4, r2, lr, lsl r4
     448:	37630100 	strbcc	r0, [r3, -r0, lsl #2]!
     44c:	1e000000 	cdpne	0, 0, cr0, cr0, cr0, {0}
     450:	1f000000 	svcne	0x00000000
     454:	00008068 	andeq	r8, r0, r8, rrx
     458:	000003e4 	andeq	r0, r0, r4, ror #7
     45c:	0080801b 	addeq	r8, r0, fp, lsl r0
     460:	00105900 	andseq	r5, r0, r0, lsl #18
     464:	50011c00 	andpl	r1, r1, r0, lsl #24
     468:	00087402 	andeq	r7, r8, r2, lsl #8
     46c:	ed040600 	stc	6, cr0, [r4, #-0]
     470:	20000002 	andcs	r0, r0, r2
     474:	00000480 	andeq	r0, r0, r0, lsl #9
     478:	80bc7201 	adcshi	r7, ip, r1, lsl #4
     47c:	00600000 	rsbeq	r0, r0, r0
     480:	9c010000 	stcls	0, cr0, [r1], {-0}
     484:	000004d4 	ldrdeq	r0, [r0], -r4
     488:	0000d91d 	andeq	sp, r0, sp, lsl r9
     48c:	37720100 	ldrbcc	r0, [r2, -r0, lsl #2]!
     490:	47000000 	strmi	r0, [r0, -r0]
     494:	1e000000 	cdpne	0, 0, cr0, cr0, cr0, {0}
     498:	00000244 	andeq	r0, r0, r4, asr #4
     49c:	00377901 	eorseq	r7, r7, r1, lsl #18
     4a0:	00650000 	rsbeq	r0, r5, r0
     4a4:	c81f0000 	ldmdagt	pc, {}	; <UNPREDICTABLE>
     4a8:	7a000080 	bvc	6b0 <_start-0x7950>
     4ac:	1f000010 	svcne	0x00000010
     4b0:	000080d8 	ldrdeq	r8, [r0], -r8	; <UNPREDICTABLE>
     4b4:	00001059 	andeq	r1, r0, r9, asr r0
     4b8:	0080f81f 	addeq	pc, r0, pc, lsl r8	; <UNPREDICTABLE>
     4bc:	00108100 	andseq	r8, r0, r0, lsl #2
     4c0:	81101f00 	tsthi	r0, r0, lsl #30
     4c4:	10810000 	addne	r0, r1, r0
     4c8:	141f0000 	ldrne	r0, [pc], #-0	; 4d0 <_start-0x7b30>
     4cc:	7a000081 	bvc	6d8 <_start-0x7928>
     4d0:	00000010 	andeq	r0, r0, r0, lsl r0
     4d4:	00016718 	andeq	r6, r1, r8, lsl r7
     4d8:	258a0100 	strcs	r0, [sl, #256]	; 0x100
     4dc:	1c000000 	stcne	0, cr0, [r0], {-0}
     4e0:	5c000081 	stcpl	0, cr0, [r0], {129}	; 0x81
     4e4:	01000001 	tsteq	r0, r1
     4e8:	0006319c 	muleq	r6, ip, r1
     4ec:	042a1e00 	strteq	r1, [sl], #-3584	; 0xe00
     4f0:	8d010000 	stchi	0, cr0, [r1, #-0]
     4f4:	000002e2 	andeq	r0, r0, r2, ror #5
     4f8:	00000099 	muleq	r0, r9, r0
     4fc:	00813c21 	addeq	r3, r1, r1, lsr #24
     500:	00003c00 	andeq	r3, r0, r0, lsl #24
     504:	00057400 	andeq	r7, r5, r0, lsl #8
     508:	02b71e00 	adcseq	r1, r7, #0, 28
     50c:	96010000 	strls	r0, [r1], -r0
     510:	00000037 	andeq	r0, r0, r7, lsr r0
     514:	000000cd 	andeq	r0, r0, sp, asr #1
     518:	00038022 	andeq	r8, r3, r2, lsr #32
     51c:	00814400 	addeq	r4, r1, r0, lsl #8
     520:	00003400 	andeq	r3, r0, r0, lsl #8
     524:	6a970100 	bvs	fe5c092c <__bss_end__+0xfe5b1db4>
     528:	23000005 	movwcs	r0, #5
     52c:	00000399 	muleq	r0, r9, r3
     530:	000000e0 	andeq	r0, r0, r0, ror #1
     534:	00039023 	andeq	r9, r3, r3, lsr #32
     538:	0000f300 	andeq	pc, r0, r0, lsl #6
     53c:	81442400 	cmphi	r4, r0, lsl #8
     540:	00340000 	eorseq	r0, r4, r0
     544:	a2250000 	eorge	r0, r5, #0
     548:	0b000003 	bleq	55c <_start-0x7aa4>
     54c:	19000001 	stmdbne	r0, {r0}
     550:	00000318 	andeq	r0, r0, r8, lsl r3
     554:	00008148 	andeq	r8, r0, r8, asr #2
     558:	00000010 	andeq	r0, r0, r0, lsl r0
     55c:	28235802 	stmdacs	r3!, {r1, fp, ip, lr}
     560:	1e000003 	cdpne	0, 0, cr0, cr0, cr3, {0}
     564:	00000001 	andeq	r0, r0, r1
     568:	401f0000 	andsmi	r0, pc, r0
     56c:	9d000081 	stcls	0, cr0, [r0, #-516]	; 0xfffffdfc
     570:	00000010 	andeq	r0, r0, r0, lsl r0
     574:	00031822 	andeq	r1, r3, r2, lsr #16
     578:	00817800 	addeq	r7, r1, r0, lsl #16
     57c:	00001c00 	andeq	r1, r0, r0, lsl #24
     580:	91950100 	orrsls	r0, r5, r0, lsl #2
     584:	23000005 	movwcs	r0, #5
     588:	00000328 	andeq	r0, r0, r8, lsr #6
     58c:	00000136 	andeq	r0, r0, r6, lsr r1
     590:	034c2600 	movteq	r2, #50688	; 0xc600
     594:	81c80000 	bichi	r0, r8, r0
     598:	00000000 	andeq	r0, r0, r0
     59c:	9e010000 	cdpls	0, 0, cr0, cr1, cr0, {0}
     5a0:	000005df 	ldrdeq	r0, [r0], -pc	; <UNPREDICTABLE>
     5a4:	00036523 	andeq	r6, r3, r3, lsr #10
     5a8:	00015e00 	andeq	r5, r1, r0, lsl #28
     5ac:	035c2300 	cmpeq	ip, #0, 6
     5b0:	01860000 	orreq	r0, r6, r0
     5b4:	00270000 	eoreq	r0, r7, r0
     5b8:	25000000 	strcs	r0, [r0, #-0]
     5bc:	0000036e 	andeq	r0, r0, lr, ror #6
     5c0:	000001ae 	andeq	r0, r0, lr, lsr #3
     5c4:	0002f828 	andeq	pc, r2, r8, lsr #16
     5c8:	0081c800 	addeq	ip, r1, r0, lsl #16
     5cc:	00001800 	andeq	r1, r0, r0, lsl #16
     5d0:	23430200 	movtcs	r0, #12800	; 0x3200
     5d4:	00000308 	andeq	r0, r0, r8, lsl #6
     5d8:	00000186 	andeq	r0, r0, r6, lsl #3
     5dc:	22000000 	andcs	r0, r0, #0
     5e0:	000002f8 	strdeq	r0, [r0], -r8
     5e4:	0000822c 	andeq	r8, r0, ip, lsr #4
     5e8:	00000014 	andeq	r0, r0, r4, lsl r0
     5ec:	05fca401 	ldrbeq	sl, [ip, #1025]!	; 0x401
     5f0:	08230000 	stmdaeq	r3!, {}	; <UNPREDICTABLE>
     5f4:	d0000003 	andle	r0, r0, r3
     5f8:	00000001 	andeq	r0, r0, r1
     5fc:	00812c1f 	addeq	r2, r1, pc, lsl ip
     600:	00041c00 	andeq	r1, r4, r0, lsl #24
     604:	81a01f00 	lslhi	r1, r0, #30
     608:	10a80000 	adcne	r0, r8, r0
     60c:	c41f0000 	ldrgt	r0, [pc], #-0	; 614 <_start-0x79ec>
     610:	b3000081 	movwlt	r0, #129	; 0x81
     614:	1f000010 	svcne	0x00000010
     618:	000081e0 	andeq	r8, r0, r0, ror #3
     61c:	000010c4 	andeq	r1, r0, r4, asr #1
     620:	0082501b 	addeq	r5, r2, fp, lsl r0
     624:	00047300 	andeq	r7, r4, r0, lsl #6
     628:	50011c00 	andpl	r1, r1, r0, lsl #24
     62c:	00007802 	andeq	r7, r0, r2, lsl #16
     630:	0cfe2000 	ldcleq	0, cr2, [lr]
     634:	ae010000 	cdpge	0, 0, cr0, cr1, cr0, {0}
     638:	00008278 	andeq	r8, r0, r8, ror r2
     63c:	0000000c 	andeq	r0, r0, ip
     640:	065e9c01 	ldrbeq	r9, [lr], -r1, lsl #24
     644:	70290000 	eorvc	r0, r9, r0
     648:	ae010063 	cdpge	0, 0, cr0, cr1, cr3, {3}
     64c:	00000037 	andeq	r0, r0, r7, lsr r0
     650:	000001e8 	andeq	r0, r0, r8, ror #3
     654:	0082801f 	addeq	r8, r2, pc, lsl r0
     658:	0004d400 	andeq	sp, r4, r0, lsl #8
     65c:	c9200000 	stmdbgt	r0!, {}	; <UNPREDICTABLE>
     660:	01000002 	tsteq	r0, r2
     664:	008284b7 			; <UNDEFINED> instruction: 0x008284b7
     668:	00008400 	andeq	r8, r0, r0, lsl #8
     66c:	ec9c0100 	ldfs	f0, [ip], {0}
     670:	2a000006 	bcs	690 <_start-0x7970>
     674:	b8010064 	stmdalt	r1, {r2, r5, r6}
     678:	00000065 	andeq	r0, r0, r5, rrx
     67c:	00000209 	andeq	r0, r0, r9, lsl #4
     680:	00034c26 	andeq	r4, r3, r6, lsr #24
     684:	00828800 	addeq	r8, r2, r0, lsl #16
     688:	00003000 	andeq	r3, r0, r0
     68c:	cebc0100 	frdgte	f0, f4, f0
     690:	23000006 	movwcs	r0, #6
     694:	00000365 	andeq	r0, r0, r5, ror #6
     698:	00000227 	andeq	r0, r0, r7, lsr #4
     69c:	00035c23 	andeq	r5, r3, r3, lsr #24
     6a0:	00024f00 	andeq	r4, r2, r0, lsl #30
     6a4:	00302700 	eorseq	r2, r0, r0, lsl #14
     6a8:	6e250000 	cdpvs	0, 2, cr0, cr5, cr0, {0}
     6ac:	77000003 	strvc	r0, [r0, -r3]
     6b0:	28000002 	stmdacs	r0, {r1}
     6b4:	000002f8 	strdeq	r0, [r0], -r8
     6b8:	00008288 	andeq	r8, r0, r8, lsl #5
     6bc:	00000048 	andeq	r0, r0, r8, asr #32
     6c0:	08234302 	stmdaeq	r3!, {r1, r8, r9, lr}
     6c4:	4f000003 	svcmi	0x00000003
     6c8:	00000002 	andeq	r0, r0, r2
     6cc:	a82b0000 	stmdage	fp!, {}	; <UNPREDICTABLE>
     6d0:	b3000082 	movwlt	r0, #130	; 0x82
     6d4:	e2000010 	and	r0, r0, #16
     6d8:	1c000006 	stcne	0, cr0, [r0], {6}
     6dc:	76025001 	strvc	r5, [r2], -r1
     6e0:	ac1f0000 	ldcge	0, cr0, [pc], {-0}
     6e4:	c4000082 	strgt	r0, [r0], #-130	; 0x82
     6e8:	00000010 	andeq	r0, r0, r0, lsl r0
     6ec:	0001d818 	andeq	sp, r1, r8, lsl r8
     6f0:	25c70100 	strbcs	r0, [r7, #256]	; 0x100
     6f4:	08000000 	stmdaeq	r0, {}	; <UNPREDICTABLE>
     6f8:	7c000083 	stcvc	0, cr0, [r0], {131}	; 0x83
     6fc:	01000000 	mrseq	r0, (UNDEF: 0)
     700:	0007979c 	muleq	r7, ip, r7
     704:	00632900 	rsbeq	r2, r3, r0, lsl #18
     708:	0025c701 	eoreq	ip, r5, r1, lsl #14
     70c:	02990000 	addseq	r0, r9, #0
     710:	80220000 	eorhi	r0, r2, r0
     714:	18000003 	stmdane	r0, {r0, r1}
     718:	48000083 	stmdami	r0, {r0, r1, r7}
     71c:	01000000 	mrseq	r0, (UNDEF: 0)
     720:	000768cf 	andeq	r6, r7, pc, asr #17
     724:	03991a00 	orrseq	r1, r9, #0, 20
     728:	54010000 	strpl	r0, [r1], #-0
     72c:	0003901a 	andeq	r9, r3, sl, lsl r0
     730:	50030600 	andpl	r0, r3, r0, lsl #12
     734:	9f0000c7 	svcls	0x000000c7
     738:	00831824 	addeq	r1, r3, r4, lsr #16
     73c:	00004800 	andeq	r4, r0, r0, lsl #16
     740:	03a22500 			; <UNDEFINED> instruction: 0x03a22500
     744:	02b70000 	adcseq	r0, r7, #0
     748:	18190000 	ldmdane	r9, {}	; <UNPREDICTABLE>
     74c:	24000003 	strcs	r0, [r0], #-3
     750:	14000083 	strne	r0, [r0], #-131	; 0x83
     754:	02000000 	andeq	r0, r0, #0
     758:	03281a58 	teqeq	r8, #88, 20	; 0x58000
     75c:	03060000 	movweq	r0, #24576	; 0x6000
     760:	0000c750 	andeq	ip, r0, r0, asr r7
     764:	0000009f 	muleq	r0, pc, r0	; <UNPREDICTABLE>
     768:	0083141f 	addeq	r1, r3, pc, lsl r4
     76c:	0010cf00 	andseq	ip, r0, r0, lsl #30
     770:	83682b00 	cmnhi	r8, #0, 22
     774:	04730000 	ldrbteq	r0, [r3], #-0
     778:	07840000 	streq	r0, [r4, r0]
     77c:	011c0000 	tsteq	ip, r0
     780:	00310150 	eorseq	r0, r1, r0, asr r1
     784:	00836c1f 	addeq	r6, r3, pc, lsl ip
     788:	00065e00 	andeq	r5, r6, r0, lsl #28
     78c:	83701f00 	cmnhi	r0, #0, 30
     790:	10d60000 	sbcsne	r0, r6, r0
     794:	18000000 	stmdane	r0, {}	; <UNPREDICTABLE>
     798:	0000013e 	andeq	r0, r0, lr, lsr r1
     79c:	0025e501 	eoreq	lr, r5, r1, lsl #10
     7a0:	83840000 	orrhi	r0, r4, #0
     7a4:	00880000 	addeq	r0, r8, r0
     7a8:	9c010000 	stcls	0, cr0, [r1], {-0}
     7ac:	00000844 	andeq	r0, r0, r4, asr #16
     7b0:	0003491e 	andeq	r4, r3, lr, lsl r9
     7b4:	65ed0100 	strbvs	r0, [sp, #256]!	; 0x100
     7b8:	d9000000 	stmdble	r0, {}	; <UNPREDICTABLE>
     7bc:	22000002 	andcs	r0, r0, #2
     7c0:	000002f8 	strdeq	r0, [r0], -r8
     7c4:	0000838c 	andeq	r8, r0, ip, lsl #7
     7c8:	00000014 	andeq	r0, r0, r4, lsl r0
     7cc:	07dff001 	ldrbeq	pc, [pc, r1]	; <UNPREDICTABLE>
     7d0:	081a0000 	ldmdaeq	sl, {}	; <UNPREDICTABLE>
     7d4:	06000003 	streq	r0, [r0], -r3
     7d8:	00a73003 	adceq	r3, r7, r3
     7dc:	22009f00 	andcs	r9, r0, #0, 30
     7e0:	0000034c 	andeq	r0, r0, ip, asr #6
     7e4:	000083a8 	andeq	r8, r0, r8, lsr #7
     7e8:	00000040 	andeq	r0, r0, r0, asr #32
     7ec:	0831f101 	ldmdaeq	r1!, {r0, r8, ip, sp, lr, pc}
     7f0:	65230000 	strvs	r0, [r3, #-0]!
     7f4:	11000003 	tstne	r0, r3
     7f8:	23000003 	movwcs	r0, #3
     7fc:	0000035c 	andeq	r0, r0, ip, asr r3
     800:	00000339 	andeq	r0, r0, r9, lsr r3
     804:	0083a824 	addeq	sl, r3, r4, lsr #16
     808:	00004000 	andeq	r4, r0, r0
     80c:	036e2500 	cmneq	lr, #0, 10
     810:	03610000 	cmneq	r1, #0
     814:	f8190000 			; <UNDEFINED> instruction: 0xf8190000
     818:	a8000002 	stmdage	r0, {r1}
     81c:	10000083 	andne	r0, r0, r3, lsl #1
     820:	02000000 	andeq	r0, r0, #0
     824:	03082343 	movweq	r2, #33603	; 0x8343
     828:	03390000 	teqeq	r9, #0
     82c:	00000000 	andeq	r0, r0, r0
     830:	838c1f00 	orrhi	r1, ip, #0, 30
     834:	10cf0000 	sbcne	r0, pc, r0
     838:	f81f0000 			; <UNDEFINED> instruction: 0xf81f0000
     83c:	d6000083 	strle	r0, [r0], -r3, lsl #1
     840:	00000010 	andeq	r0, r0, r0, lsl r0
     844:	00052b20 	andeq	r2, r5, r0, lsr #22
     848:	0cfe0100 	ldfeqe	f0, [lr]
     84c:	24000084 	strcs	r0, [r0], #-132	; 0x84
     850:	01000000 	mrseq	r0, (UNDEF: 0)
     854:	0008729c 	muleq	r8, ip, r2
     858:	74732900 	ldrbtvc	r2, [r3], #-2304	; 0x900
     85c:	fe010072 	mcr2	0, 0, r0, cr1, cr2, {3}
     860:	0000009c 	muleq	r0, ip, r0
     864:	00000383 	andeq	r0, r0, r3, lsl #7
     868:	00841c1f 	addeq	r1, r4, pc, lsl ip
     86c:	0006ec00 	andeq	lr, r6, r0, lsl #24
     870:	6d2c0000 	stcvs	0, cr0, [ip, #-0]
     874:	02000002 	andeq	r0, r0, #2
     878:	08a90399 	stmiaeq	r9!, {r0, r3, r4, r7, r8, r9}
     87c:	63160000 	tstvs	r6, #0
     880:	12990200 	addsne	r0, r9, #0, 4
     884:	2d000003 	stccs	0, cr0, [r0, #-12]
     888:	00000018 	andeq	r0, r0, r8, lsl r0
     88c:	00379902 	eorseq	r9, r7, r2, lsl #18
     890:	af2e0000 	svcge	0x002e0000
     894:	a9000001 	stmdbge	r0, {r0}
     898:	6d000008 	stcvs	0, cr0, [r0, #-32]	; 0xffffffe0
     89c:	2f000002 	svccs	0x00000002
     8a0:	a2020065 	andge	r0, r2, #101	; 0x65
     8a4:	00000168 	andeq	r0, r0, r8, ror #2
     8a8:	00a70700 	adceq	r0, r7, r0, lsl #14
     8ac:	40300000 	eorsmi	r0, r0, r0
     8b0:	01000000 	mrseq	r0, (UNDEF: 0)
     8b4:	84300108 	ldrthi	r0, [r0], #-264	; 0x108
     8b8:	04440000 	strbeq	r0, [r4], #-0
     8bc:	9c010000 	stcls	0, cr0, [r1], {-0}
     8c0:	00000e38 	andeq	r0, r0, r8, lsr lr
     8c4:	00087231 	andeq	r7, r8, r1, lsr r2
     8c8:	0084e800 	addeq	lr, r4, r0, lsl #16
     8cc:	00018800 	andeq	r8, r1, r0, lsl #16
     8d0:	012f0100 	teqeq	pc, r0, lsl #2
     8d4:	00000ae4 	andeq	r0, r0, r4, ror #21
     8d8:	00088732 	andeq	r8, r8, r2, lsr r7
     8dc:	7e1a0100 	mufvce	f0, f2, f0
     8e0:	06000008 	streq	r0, [r0], -r8
     8e4:	00a73003 	adceq	r3, r7, r3
     8e8:	e8249f00 	stmda	r4!, {r8, r9, sl, fp, ip, pc}
     8ec:	88000084 	stmdahi	r0, {r2, r7}
     8f0:	25000001 	strcs	r0, [r0, #-1]
     8f4:	0000089f 	muleq	r0, pc, r8	; <UNPREDICTABLE>
     8f8:	000003a1 	andeq	r0, r0, r1, lsr #7
     8fc:	00089233 	andeq	r9, r8, r3, lsr r2
     900:	28030500 	stmdacs	r3, {r8, sl}
     904:	220000a2 	andcs	r0, r0, #162	; 0xa2
     908:	000002f8 	strdeq	r0, [r0], -r8
     90c:	00008534 	andeq	r8, r0, r4, lsr r5
     910:	00000008 	andeq	r0, r0, r8
     914:	09279f02 	stmdbeq	r7!, {r1, r8, r9, sl, fp, ip, pc}
     918:	081a0000 	ldmdaeq	sl, {}	; <UNPREDICTABLE>
     91c:	06000003 	streq	r0, [r0], -r3
     920:	00a73003 	adceq	r3, r7, r3
     924:	22009f00 	andcs	r9, r0, #0, 30
     928:	00000318 	andeq	r0, r0, r8, lsl r3
     92c:	00008560 	andeq	r8, r0, r0, ror #10
     930:	0000001c 	andeq	r0, r0, ip, lsl r0
     934:	0947a002 	stmdbeq	r7, {r1, sp, pc}^
     938:	281a0000 	ldmdacs	sl, {}	; <UNPREDICTABLE>
     93c:	06000003 	streq	r0, [r0], -r3
     940:	00a73003 	adceq	r3, r7, r3
     944:	22009f00 	andcs	r9, r0, #0, 30
     948:	00000332 	andeq	r0, r0, r2, lsr r3
     94c:	000085a0 	andeq	r8, r0, r0, lsr #11
     950:	00000018 	andeq	r0, r0, r8, lsl r0
     954:	0967a102 	stmdbeq	r7!, {r1, r8, sp, pc}^
     958:	421a0000 	andsmi	r0, sl, #0
     95c:	06000003 	streq	r0, [r0], -r3
     960:	00a73003 	adceq	r3, r7, r3
     964:	26009f00 	strcs	r9, [r0], -r0, lsl #30
     968:	0000034c 	andeq	r0, r0, ip, asr #6
     96c:	000085dc 	ldrdeq	r8, [r0], -ip
     970:	00000060 	andeq	r0, r0, r0, rrx
     974:	09bea302 	ldmibeq	lr!, {r1, r8, r9, sp, pc}
     978:	651a0000 	ldrvs	r0, [sl, #-0]
     97c:	06000003 	streq	r0, [r0], -r3
     980:	0008f3f2 	strdeq	pc, [r8], -r2
     984:	5c1a0000 	ldcpl	0, cr0, [sl], {-0}
     988:	06000003 	streq	r0, [r0], -r3
     98c:	00a73003 	adceq	r3, r7, r3
     990:	60279f00 	eorvs	r9, r7, r0, lsl #30
     994:	25000000 	strcs	r0, [r0, #-0]
     998:	0000036e 	andeq	r0, r0, lr, ror #6
     99c:	000003e2 	andeq	r0, r0, r2, ror #7
     9a0:	0002f819 	andeq	pc, r2, r9, lsl r8	; <UNPREDICTABLE>
     9a4:	0085dc00 	addeq	sp, r5, r0, lsl #24
     9a8:	00001400 	andeq	r1, r0, r0, lsl #8
     9ac:	1a430200 	bne	10c11b4 <__bss_end__+0x10b263c>
     9b0:	00000308 	andeq	r0, r0, r8, lsl #6
     9b4:	a7300306 	ldrge	r0, [r0, -r6, lsl #6]!
     9b8:	009f0000 	addseq	r0, pc, r0
     9bc:	fc2b0000 	stc2	0, cr0, [fp], #-0
     9c0:	dd000084 	stcle	0, cr0, [r0, #-528]	; 0xfffffdf0
     9c4:	de000010 	mcrle	0, 0, r0, cr0, cr0, {0}
     9c8:	1c000009 	stcne	0, cr0, [r0], {9}
     9cc:	0a035201 	beq	d51d8 <__bss_end__+0xc6660>
     9d0:	011c2014 	tsteq	ip, r4, lsl r0
     9d4:	1c300151 	ldfnes	f0, [r0], #-324	; 0xfffffebc
     9d8:	74025001 	strvc	r5, [r2], #-1
     9dc:	481f0000 	ldmdami	pc, {}	; <UNPREDICTABLE>
     9e0:	fc000085 	stc2	0, cr0, [r0], {133}	; 0x85
     9e4:	2b000010 	blcs	a2c <_start-0x75d4>
     9e8:	0000855c 	andeq	r8, r0, ip, asr r5
     9ec:	00001103 	andeq	r1, r0, r3, lsl #2
     9f0:	00000a16 	andeq	r0, r0, r6, lsl sl
     9f4:	0253011c 	subseq	r0, r3, #28, 2
     9f8:	011c9f08 	tsteq	ip, r8, lsl #30
     9fc:	28030552 	stmdacs	r3, {r1, r4, r6, r8, sl}
     a00:	1c0000a2 	stcne	0, cr0, [r0], {162}	; 0xa2
     a04:	03055101 	movweq	r5, #20737	; 0x5101
     a08:	0000a24c 	andeq	sl, r0, ip, asr #4
     a0c:	0550011c 	ldrbeq	r0, [r0, #-284]	; 0x11c
     a10:	00a23003 	adceq	r3, r2, r3
     a14:	601f0000 	andsvs	r0, pc, r0
     a18:	19000085 	stmdbne	r0, {r0, r2, r7}
     a1c:	1f000011 	svcne	0x00000011
     a20:	00008588 	andeq	r8, r0, r8, lsl #11
     a24:	000010fc 	strdeq	r1, [r0], -ip
     a28:	00859c2b 	addeq	r9, r5, fp, lsr #24
     a2c:	00110300 	andseq	r0, r1, r0, lsl #6
     a30:	000a5700 	andeq	r5, sl, r0, lsl #14
     a34:	53011c00 	movwpl	r1, #7168	; 0x1c00
     a38:	1ca00802 	stcne	8, cr0, [r0], #8
     a3c:	03055201 	movweq	r5, #20993	; 0x5201
     a40:	0000a228 	andeq	sl, r0, r8, lsr #4
     a44:	0551011c 	ldrbeq	r0, [r1, #-284]	; 0x11c
     a48:	00a24c03 	adceq	r4, r2, r3, lsl #24
     a4c:	50011c00 	andpl	r1, r1, r0, lsl #24
     a50:	a2a00305 	adcge	r0, r0, #335544320	; 0x14000000
     a54:	1f000000 	svcne	0x00000000
     a58:	000085a0 	andeq	r8, r0, r0, lsr #11
     a5c:	00001119 	andeq	r1, r0, r9, lsl r1
     a60:	0085c41f 	addeq	ip, r5, pc, lsl r4
     a64:	0010fc00 	andseq	pc, r0, r0, lsl #24
     a68:	85d82b00 	ldrbhi	r2, [r8, #2816]	; 0xb00
     a6c:	11030000 	mrsne	r0, (UNDEF: 3)
     a70:	0a980000 	beq	fe600a78 <__bss_end__+0xfe5f1f00>
     a74:	011c0000 	tsteq	ip, r0
     a78:	a1080253 	tstge	r8, r3, asr r2
     a7c:	0552011c 	ldrbeq	r0, [r2, #-284]	; 0x11c
     a80:	00a22803 	adceq	r2, r2, r3, lsl #16
     a84:	51011c00 	tstpl	r1, r0, lsl #24
     a88:	a24c0305 	subge	r0, ip, #335544320	; 0x14000000
     a8c:	011c0000 	tsteq	ip, r0
     a90:	bc030550 	cfstr32lt	mvfx0, [r3], {80}	; 0x50
     a94:	000000a2 	andeq	r0, r0, r2, lsr #1
     a98:	0085dc1f 	addeq	sp, r5, pc, lsl ip
     a9c:	00111900 	andseq	r1, r1, r0, lsl #18
     aa0:	86581f00 	ldrbhi	r1, [r8], -r0, lsl #30
     aa4:	10fc0000 	rscsne	r0, ip, r0
     aa8:	6c2b0000 	stcvs	0, cr0, [fp], #-0
     aac:	03000086 	movweq	r0, #134	; 0x86
     ab0:	d9000011 	stmdble	r0, {r0, r4}
     ab4:	1c00000a 	stcne	0, cr0, [r0], {10}
     ab8:	08025301 	stmdaeq	r2, {r0, r8, r9, ip, lr}
     abc:	52011ca3 	andpl	r1, r1, #41728	; 0xa300
     ac0:	a2280305 	eorge	r0, r8, #335544320	; 0x14000000
     ac4:	011c0000 	tsteq	ip, r0
     ac8:	4c030551 	cfstr32mi	mvfx0, [r3], {81}	; 0x51
     acc:	1c0000a2 	stcne	0, cr0, [r0], {162}	; 0xa2
     ad0:	03055001 	movweq	r5, #20481	; 0x5001
     ad4:	0000a2e0 	andeq	sl, r0, r0, ror #5
     ad8:	86701f00 	ldrbthi	r1, [r0], -r0, lsl #30
     adc:	11190000 	tstne	r9, r0
     ae0:	00000000 	andeq	r0, r0, r0
     ae4:	00087231 	andeq	r7, r8, r1, lsr r2
     ae8:	00867000 	addeq	r7, r6, r0
     aec:	00018c00 	andeq	r8, r1, r0, lsl #24
     af0:	01300100 	teqeq	r0, r0, lsl #2
     af4:	00000d04 	andeq	r0, r0, r4, lsl #26
     af8:	00088732 	andeq	r8, r8, r2, lsr r7
     afc:	7e1a0100 	mufvce	f0, f2, f0
     b00:	06000008 	streq	r0, [r0], -r8
     b04:	00c75003 	sbceq	r5, r7, r3
     b08:	70249f00 	eorvc	r9, r4, r0, lsl #30
     b0c:	8c000086 	stchi	0, cr0, [r0], {134}	; 0x86
     b10:	25000001 	strcs	r0, [r0, #-1]
     b14:	0000089f 	muleq	r0, pc, r8	; <UNPREDICTABLE>
     b18:	00000404 	andeq	r0, r0, r4, lsl #8
     b1c:	00089233 	andeq	r9, r8, r3, lsr r2
     b20:	28030500 	stmdacs	r3, {r8, sl}
     b24:	220000a2 	andcs	r0, r0, #162	; 0xa2
     b28:	000002f8 	strdeq	r0, [r0], -r8
     b2c:	000086bc 			; <UNDEFINED> instruction: 0x000086bc
     b30:	00000008 	andeq	r0, r0, r8
     b34:	0b479f02 	bleq	11e8744 <__bss_end__+0x11d9bcc>
     b38:	081a0000 	ldmdaeq	sl, {}	; <UNPREDICTABLE>
     b3c:	06000003 	streq	r0, [r0], -r3
     b40:	00c75003 	sbceq	r5, r7, r3
     b44:	22009f00 	andcs	r9, r0, #0, 30
     b48:	00000318 	andeq	r0, r0, r8, lsl r3
     b4c:	000086e8 	andeq	r8, r0, r8, ror #13
     b50:	0000001c 	andeq	r0, r0, ip, lsl r0
     b54:	0b67a002 	bleq	19e8b64 <__bss_end__+0x19d9fec>
     b58:	281a0000 	ldmdacs	sl, {}	; <UNPREDICTABLE>
     b5c:	06000003 	streq	r0, [r0], -r3
     b60:	00c75003 	sbceq	r5, r7, r3
     b64:	22009f00 	andcs	r9, r0, #0, 30
     b68:	00000332 	andeq	r0, r0, r2, lsr r3
     b6c:	00008728 	andeq	r8, r0, r8, lsr #14
     b70:	00000018 	andeq	r0, r0, r8, lsl r0
     b74:	0b87a102 	bleq	fe1e8f84 <__bss_end__+0xfe1da40c>
     b78:	421a0000 	andsmi	r0, sl, #0
     b7c:	06000003 	streq	r0, [r0], -r3
     b80:	00c75003 	sbceq	r5, r7, r3
     b84:	26009f00 	strcs	r9, [r0], -r0, lsl #30
     b88:	0000034c 	andeq	r0, r0, ip, asr #6
     b8c:	00008764 	andeq	r8, r0, r4, ror #14
     b90:	00000078 	andeq	r0, r0, r8, ror r0
     b94:	0bdea302 	bleq	ff7a97a4 <__bss_end__+0xff79ac2c>
     b98:	651a0000 	ldrvs	r0, [sl, #-0]
     b9c:	06000003 	streq	r0, [r0], -r3
     ba0:	000b13f2 	strdeq	r1, [fp], -r2
     ba4:	5c1a0000 	ldcpl	0, cr0, [sl], {-0}
     ba8:	06000003 	streq	r0, [r0], -r3
     bac:	00c75003 	sbceq	r5, r7, r3
     bb0:	78279f00 	stmdavc	r7!, {r8, r9, sl, fp, ip, pc}
     bb4:	25000000 	strcs	r0, [r0, #-0]
     bb8:	0000036e 	andeq	r0, r0, lr, ror #6
     bbc:	00000445 	andeq	r0, r0, r5, asr #8
     bc0:	0002f819 	andeq	pc, r2, r9, lsl r8	; <UNPREDICTABLE>
     bc4:	00876400 	addeq	r6, r7, r0, lsl #8
     bc8:	00001400 	andeq	r1, r0, r0, lsl #8
     bcc:	1a430200 	bne	10c13d4 <__bss_end__+0x10b285c>
     bd0:	00000308 	andeq	r0, r0, r8, lsl #6
     bd4:	c7500306 	ldrbgt	r0, [r0, -r6, lsl #6]
     bd8:	009f0000 	addseq	r0, pc, r0
     bdc:	842b0000 	strthi	r0, [fp], #-0
     be0:	dd000086 	stcle	0, cr0, [r0, #-536]	; 0xfffffde8
     be4:	fe000010 	mcr2	0, 0, r0, cr0, cr0, {0}
     be8:	1c00000b 	stcne	0, cr0, [r0], {11}
     bec:	0a035201 	beq	d53f8 <__bss_end__+0xc6880>
     bf0:	011c2014 	tsteq	ip, r4, lsl r0
     bf4:	1c300151 	ldfnes	f0, [r0], #-324	; 0xfffffebc
     bf8:	74025001 	strvc	r5, [r2], #-1
     bfc:	d01f0028 	andsle	r0, pc, r8, lsr #32
     c00:	fc000086 	stc2	0, cr0, [r0], {134}	; 0x86
     c04:	2b000010 	blcs	c4c <_start-0x73b4>
     c08:	000086e4 	andeq	r8, r0, r4, ror #13
     c0c:	00001103 	andeq	r1, r0, r3, lsl #2
     c10:	00000c36 	andeq	r0, r0, r6, lsr ip
     c14:	0253011c 	subseq	r0, r3, #28, 2
     c18:	011c9f08 	tsteq	ip, r8, lsl #30
     c1c:	28030552 	stmdacs	r3, {r1, r4, r6, r8, sl}
     c20:	1c0000a2 	stcne	0, cr0, [r0], {162}	; 0xa2
     c24:	03055101 	movweq	r5, #20737	; 0x5101
     c28:	0000a24c 	andeq	sl, r0, ip, asr #4
     c2c:	0550011c 	ldrbeq	r0, [r0, #-284]	; 0x11c
     c30:	00a23003 	adceq	r3, r2, r3
     c34:	e81f0000 	ldmda	pc, {}	; <UNPREDICTABLE>
     c38:	19000086 	stmdbne	r0, {r1, r2, r7}
     c3c:	1f000011 	svcne	0x00000011
     c40:	00008710 	andeq	r8, r0, r0, lsl r7
     c44:	000010fc 	strdeq	r1, [r0], -ip
     c48:	0087242b 	addeq	r2, r7, fp, lsr #8
     c4c:	00110300 	andseq	r0, r1, r0, lsl #6
     c50:	000c7700 	andeq	r7, ip, r0, lsl #14
     c54:	53011c00 	movwpl	r1, #7168	; 0x1c00
     c58:	1ca00802 	stcne	8, cr0, [r0], #8
     c5c:	03055201 	movweq	r5, #20993	; 0x5201
     c60:	0000a228 	andeq	sl, r0, r8, lsr #4
     c64:	0551011c 	ldrbeq	r0, [r1, #-284]	; 0x11c
     c68:	00a24c03 	adceq	r4, r2, r3, lsl #24
     c6c:	50011c00 	andpl	r1, r1, r0, lsl #24
     c70:	a2a00305 	adcge	r0, r0, #335544320	; 0x14000000
     c74:	1f000000 	svcne	0x00000000
     c78:	00008728 	andeq	r8, r0, r8, lsr #14
     c7c:	00001119 	andeq	r1, r0, r9, lsl r1
     c80:	00874c1f 	addeq	r4, r7, pc, lsl ip
     c84:	0010fc00 	andseq	pc, r0, r0, lsl #24
     c88:	87602b00 	strbhi	r2, [r0, -r0, lsl #22]!
     c8c:	11030000 	mrsne	r0, (UNDEF: 3)
     c90:	0cb80000 	ldceq	0, cr0, [r8]
     c94:	011c0000 	tsteq	ip, r0
     c98:	a1080253 	tstge	r8, r3, asr r2
     c9c:	0552011c 	ldrbeq	r0, [r2, #-284]	; 0x11c
     ca0:	00a22803 	adceq	r2, r2, r3, lsl #16
     ca4:	51011c00 	tstpl	r1, r0, lsl #24
     ca8:	a24c0305 	subge	r0, ip, #335544320	; 0x14000000
     cac:	011c0000 	tsteq	ip, r0
     cb0:	bc030550 	cfstr32lt	mvfx0, [r3], {80}	; 0x50
     cb4:	000000a2 	andeq	r0, r0, r2, lsr #1
     cb8:	0087641f 	addeq	r6, r7, pc, lsl r4
     cbc:	00111900 	andseq	r1, r1, r0, lsl #18
     cc0:	87e41f00 	strbhi	r1, [r4, r0, lsl #30]!
     cc4:	10fc0000 	rscsne	r0, ip, r0
     cc8:	f82b0000 			; <UNDEFINED> instruction: 0xf82b0000
     ccc:	03000087 	movweq	r0, #135	; 0x87
     cd0:	f9000011 			; <UNDEFINED> instruction: 0xf9000011
     cd4:	1c00000c 	stcne	0, cr0, [r0], {12}
     cd8:	08025301 	stmdaeq	r2, {r0, r8, r9, ip, lr}
     cdc:	52011ca3 	andpl	r1, r1, #41728	; 0xa300
     ce0:	a2280305 	eorge	r0, r8, #335544320	; 0x14000000
     ce4:	011c0000 	tsteq	ip, r0
     ce8:	4c030551 	cfstr32mi	mvfx0, [r3], {81}	; 0x51
     cec:	1c0000a2 	stcne	0, cr0, [r0], {162}	; 0xa2
     cf0:	03055001 	movweq	r5, #20481	; 0x5001
     cf4:	0000a2e0 	andeq	sl, r0, r0, ror #5
     cf8:	87fc1f00 	ldrbhi	r1, [ip, r0, lsl #30]!
     cfc:	11190000 	tstne	r9, r0
     d00:	00000000 	andeq	r0, r0, r0
     d04:	0084381f 	addeq	r3, r4, pc, lsl r8
     d08:	00107a00 	andseq	r7, r0, r0, lsl #20
     d0c:	84442b00 	strbhi	r2, [r4], #-2816	; 0xb00
     d10:	11200000 	teqne	r0, r0
     d14:	0d250000 	stceq	0, cr0, [r5, #-0]
     d18:	011c0000 	tsteq	ip, r0
     d1c:	1c320151 	ldfnes	f0, [r2], #-324	; 0xfffffebc
     d20:	3e015001 	cdpcc	0, 0, cr5, cr1, cr1, {0}
     d24:	84502b00 	ldrbhi	r2, [r0], #-2816	; 0xb00
     d28:	11200000 	teqne	r0, r0
     d2c:	0d3d0000 	ldceq	0, cr0, [sp, #-0]
     d30:	011c0000 	tsteq	ip, r0
     d34:	1c320151 	ldfnes	f0, [r2], #-324	; 0xfffffebc
     d38:	3f015001 	svccc	0x00015001
     d3c:	84541f00 	ldrbhi	r1, [r4], #-3840	; 0xf00
     d40:	107a0000 	rsbsne	r0, sl, r0
     d44:	602b0000 	eorvs	r0, fp, r0
     d48:	59000084 	stmdbpl	r0, {r2, r7}
     d4c:	5a000010 	bpl	d94 <_start-0x726c>
     d50:	1c00000d 	stcne	0, cr0, [r0], {13}
     d54:	74025001 	strvc	r5, [r2], #-1
     d58:	6c2b0000 	stcvs	0, cr0, [fp], #-0
     d5c:	81000084 	smlabbhi	r0, r4, r0, r0
     d60:	6e000010 	mcrvs	0, 0, r0, cr0, cr0, {0}
     d64:	1c00000d 	stcne	0, cr0, [r0], {13}
     d68:	74025001 	strvc	r5, [r2], #-1
     d6c:	701f0000 	andsvc	r0, pc, r0
     d70:	7a000084 	bvc	f88 <_start-0x7078>
     d74:	2b000010 	blcs	dbc <_start-0x7244>
     d78:	00008488 	andeq	r8, r0, r8, lsl #9
     d7c:	00001081 	andeq	r1, r0, r1, lsl #1
     d80:	00000d93 	muleq	r0, r3, sp
     d84:	0151011c 	cmpeq	r1, ip, lsl r1
     d88:	50011c30 	andpl	r1, r1, r0, lsr ip
     d8c:	50600c05 	rsbpl	r0, r0, r5, lsl #24
     d90:	2b002021 	blcs	8e1c <va_printk+0x1a8>
     d94:	00008498 	muleq	r0, r8, r4
     d98:	00001081 	andeq	r1, r0, r1, lsl #1
     d9c:	00000da6 	andeq	r0, r0, r6, lsr #27
     da0:	0151011c 	cmpeq	r1, ip, lsl r1
     da4:	a82b0033 	stmdage	fp!, {r0, r1, r4, r5}
     da8:	81000084 	smlabbhi	r0, r4, r0, r0
     dac:	b9000010 	stmdblt	r0, {r4}
     db0:	1c00000d 	stcne	0, cr0, [r0], {13}
     db4:	36015101 	strcc	r5, [r1], -r1, lsl #2
     db8:	84b82b00 	ldrthi	r2, [r8], #2816	; 0xb00
     dbc:	10810000 	addne	r0, r1, r0
     dc0:	0dcc0000 	stcleq	0, cr0, [ip]
     dc4:	011c0000 	tsteq	ip, r0
     dc8:	00330151 	eorseq	r0, r3, r1, asr r1
     dcc:	0084c82b 	addeq	ip, r4, fp, lsr #16
     dd0:	00108100 	andseq	r8, r0, r0, lsl #2
     dd4:	000de100 	andeq	lr, sp, r0, lsl #2
     dd8:	51011c00 	tstpl	r1, r0, lsl #24
     ddc:	010e0a03 	tsteq	lr, r3, lsl #20
     de0:	84d82b00 	ldrbhi	r2, [r8], #2816	; 0xb00
     de4:	10810000 	addne	r0, r1, r0
     de8:	0df40000 	ldcleq	0, cr0, [r4]
     dec:	011c0000 	tsteq	ip, r0
     df0:	00330151 	eorseq	r0, r3, r1, asr r1
     df4:	0084e42b 	addeq	lr, r4, fp, lsr #8
     df8:	00108100 	andseq	r8, r0, r0, lsl #2
     dfc:	000e1200 	andeq	r1, lr, r0, lsl #4
     e00:	51011c00 	tstpl	r1, r0, lsl #24
     e04:	24494003 	strbcs	r4, [r9], #-3
     e08:	0550011c 	ldrbeq	r0, [r0, #-284]	; 0x11c
     e0c:	00b2100c 	adcseq	r1, r2, ip
     e10:	e81f0020 	ldmda	pc, {r5}	; <UNPREDICTABLE>
     e14:	7a000084 	bvc	102c <_start-0x6fd4>
     e18:	2b000010 	blcs	e60 <_start-0x71a0>
     e1c:	0000880c 	andeq	r8, r0, ip, lsl #16
     e20:	00001081 	andeq	r1, r0, r1, lsl #1
     e24:	00000e2e 	andeq	r0, r0, lr, lsr #28
     e28:	0151011c 	cmpeq	r1, ip, lsl r1
     e2c:	101f003d 	andsne	r0, pc, sp, lsr r0	; <UNPREDICTABLE>
     e30:	7a000088 	bvc	1058 <_start-0x6fa8>
     e34:	00000010 	andeq	r0, r0, r0, lsl r0
     e38:	00002734 	andeq	r2, r0, r4, lsr r7
     e3c:	013b0100 	teqeq	fp, r0, lsl #2
     e40:	00008874 	andeq	r8, r0, r4, ror r8
     e44:	000000a8 	andeq	r0, r0, r8, lsr #1
     e48:	0f919c01 	svceq	0x00919c01
     e4c:	74350000 	ldrtvc	r0, [r5], #-0
     e50:	5f010078 	svcpl	0x00010078
     e54:	00003701 	andeq	r3, r0, r1, lsl #14
     e58:	72351400 	eorsvc	r1, r5, #0, 8
     e5c:	5f010078 	svcpl	0x00010078
     e60:	00003701 	andeq	r3, r0, r1, lsl #14
     e64:	73361500 	teqvc	r6, #0, 10
     e68:	01600100 	cmneq	r0, r0, lsl #2
     e6c:	0000022a 	andeq	r0, r0, sl, lsr #4
     e70:	21649102 	cmncs	r4, r2, lsl #2
     e74:	000088ac 	andeq	r8, r0, ip, lsr #17
     e78:	00000048 	andeq	r0, r0, r8, asr #32
     e7c:	00000ef9 	strdeq	r0, [r0], -r9
     e80:	01006937 	tsteq	r0, r7, lsr r9
     e84:	00250164 	eoreq	r0, r5, r4, ror #2
     e88:	04670000 	strbteq	r0, [r7], #-0
     e8c:	b4210000 	strtlt	r0, [r1], #-0
     e90:	2c000088 	stccs	0, cr0, [r0], {136}	; 0x88
     e94:	ef000000 	svc	0x00000000
     e98:	3700000e 	strcc	r0, [r0, -lr]
     e9c:	66010063 	strvs	r0, [r1], -r3, rrx
     ea0:	00002501 	andeq	r2, r0, r1, lsl #10
     ea4:	00048600 	andeq	r8, r4, r0, lsl #12
     ea8:	88b81f00 	ldmhi	r8!, {r8, r9, sl, fp, ip}
     eac:	07970000 	ldreq	r0, [r7, r0]
     eb0:	c01f0000 	andsgt	r0, pc, r0
     eb4:	cf000088 	svcgt	0x00000088
     eb8:	2b000010 	blcs	f00 <_start-0x7100>
     ebc:	000088cc 	andeq	r8, r0, ip, asr #17
     ec0:	00001136 	andeq	r1, r0, r6, lsr r1
     ec4:	00000ed5 	ldrdeq	r0, [r0], -r5
     ec8:	0251011c 	subseq	r0, r1, #28, 2
     ecc:	011c0074 	tsteq	ip, r4, ror r0
     ed0:	5c910250 	lfmpl	f0, 4, [r1], {80}	; 0x50
     ed4:	88d01f00 	ldmhi	r0, {r8, r9, sl, fp, ip}^
     ed8:	10d60000 	sbcsne	r0, r6, r0
     edc:	d81b0000 	ldmdale	fp, {}	; <UNPREDICTABLE>
     ee0:	ec000088 	stc	0, cr0, [r0], {136}	; 0x88
     ee4:	1c000006 	stcne	0, cr0, [r0], {6}
     ee8:	74025001 	strvc	r5, [r2], #-1
     eec:	1f000000 	svcne	0x00000000
     ef0:	000088e4 	andeq	r8, r0, r4, ror #17
     ef4:	000003ae 	andeq	r0, r0, lr, lsr #7
     ef8:	88801f00 	stmhi	r0, {r8, r9, sl, fp, ip}
     efc:	11520000 	cmpne	r2, r0
     f00:	841f0000 	ldrhi	r0, [pc], #-0	; f08 <_start-0x70f8>
     f04:	ae000088 	cdpge	0, 0, cr0, cr0, cr8, {4}
     f08:	1f000008 	svcne	0x00000008
     f0c:	00008888 	andeq	r8, r0, r8, lsl #17
     f10:	000010d6 	ldrdeq	r1, [r0], -r6
     f14:	0088a42b 	addeq	sl, r8, fp, lsr #8
     f18:	00115900 	andseq	r5, r1, r0, lsl #18
     f1c:	000f4200 	andeq	r4, pc, r0, lsl #4
     f20:	53011c00 	movwpl	r1, #7168	; 0x1c00
     f24:	39e10804 	stmibcc	r1!, {r2, fp}^
     f28:	52011c24 	andpl	r1, r1, #36, 24	; 0x2400
     f2c:	011c4501 	tsteq	ip, r1, lsl #10
     f30:	1c440151 	stfnee	f0, [r4], {81}	; 0x51
     f34:	91025001 	tstls	r2, r1
     f38:	7d021c5c 	stcvc	12, cr1, [r2, #-368]	; 0xfffffe90
     f3c:	bc0a0300 	stclt	3, cr0, [sl], {-0}
     f40:	ac2b0017 	stcge	0, cr0, [fp], #-92	; 0xffffffa4
     f44:	03000088 	movweq	r0, #136	; 0x88
     f48:	59000011 	stmdbpl	r0, {r0, r4}
     f4c:	1c00000f 	stcne	0, cr0, [r0], {15}
     f50:	03055001 	movweq	r5, #20481	; 0x5001
     f54:	0000a318 	andeq	sl, r0, r8, lsl r3
     f58:	88fc2b00 	ldmhi	ip!, {r8, r9, fp, sp}^
     f5c:	11030000 	mrsne	r0, (UNDEF: 3)
     f60:	0f700000 	svceq	0x00700000
     f64:	011c0000 	tsteq	ip, r0
     f68:	3c030550 	cfstr32cc	mvfx0, [r3], {80}	; 0x50
     f6c:	000000a3 	andeq	r0, r0, r3, lsr #1
     f70:	0089042b 	addeq	r0, r9, fp, lsr #8
     f74:	00110300 	andseq	r0, r1, r0, lsl #6
     f78:	000f8700 	andeq	r8, pc, r0, lsl #14
     f7c:	50011c00 	andpl	r1, r1, r0, lsl #24
     f80:	a3540305 	cmpge	r4, #335544320	; 0x14000000
     f84:	1f000000 	svcne	0x00000000
     f88:	00008908 	andeq	r8, r0, r8, lsl #18
     f8c:	00001119 	andeq	r1, r0, r9, lsl r1
     f90:	02973800 	addseq	r3, r7, #0, 16
     f94:	11010000 	mrsne	r0, (UNDEF: 1)
     f98:	00000fa0 	andeq	r0, r0, r0, lsr #31
     f9c:	20215000 	eorcs	r5, r1, r0
     fa0:	000fa507 	andeq	sl, pc, r7, lsl #10
     fa4:	e3040600 	movw	r0, #17920	; 0x4600
     fa8:	38000001 	stmdacc	r0, {r0}
     fac:	00000127 	andeq	r0, r0, r7, lsr #2
     fb0:	0fba1201 	svceq	0x00ba1201
     fb4:	50040000 	andpl	r0, r4, r0
     fb8:	a5072021 	strge	r2, [r7, #-33]	; 0x21
     fbc:	3800000f 	stmdacc	r0, {r0, r1, r2, r3}
     fc0:	00000192 	muleq	r0, r2, r1
     fc4:	0fce1501 	svceq	0x00ce1501
     fc8:	50400000 	subpl	r0, r0, r0
     fcc:	a5072021 	strge	r2, [r7, #-33]	; 0x21
     fd0:	3800000f 	stmdacc	r0, {r0, r1, r2, r3}
     fd4:	000001f8 	strdeq	r0, [r0], -r8
     fd8:	0fe21801 	svceq	0x00e21801
     fdc:	b2100000 	andslt	r0, r0, #0
     fe0:	a5072000 	strge	r2, [r7, #-0]
     fe4:	3900000f 	stmdbcc	r0, {r0, r1, r2, r3}
     fe8:	00000077 	andeq	r0, r0, r7, ror r0
     fec:	046d2001 	strbteq	r2, [sp], #-1
     ff0:	03050000 	movweq	r0, #20480	; 0x5000
     ff4:	0000c748 	andeq	ip, r0, r8, asr #14
     ff8:	0001f339 	andeq	pc, r1, r9, lsr r3	; <UNPREDICTABLE>
     ffc:	e8230100 	stmda	r3!, {r8}
    1000:	05000001 	streq	r0, [r0, #-1]
    1004:	00c75003 	sbceq	r5, r7, r3
    1008:	01623900 	cmneq	r2, r0, lsl #18
    100c:	24010000 	strcs	r0, [r1], #-0
    1010:	000001e8 	andeq	r0, r0, r8, ror #3
    1014:	a7300305 	ldrge	r0, [r0, -r5, lsl #6]!
    1018:	98390000 	ldmdals	r9!, {}	; <UNPREDICTABLE>
    101c:	01000000 	mrseq	r0, (UNDEF: 0)
    1020:	00003727 	andeq	r3, r0, r7, lsr #14
    1024:	44030500 	strmi	r0, [r3], #-1280	; 0x500
    1028:	3a0000c7 	bcc	134c <_start-0x6cb4>
    102c:	000002b7 			; <UNDEFINED> instruction: 0x000002b7
    1030:	00658201 	rsbeq	r8, r5, r1, lsl #4
    1034:	39000000 	stmdbcc	r0, {}	; <UNPREDICTABLE>
    1038:	0000014c 	andeq	r0, r0, ip, asr #2
    103c:	00658301 	rsbeq	r8, r5, r1, lsl #6
    1040:	03050000 	movweq	r0, #20480	; 0x5000
    1044:	0000c74c 	andeq	ip, r0, ip, asr #14
    1048:	0004313b 	andeq	r3, r4, fp, lsr r1
    104c:	fb800600 	blx	fe002856 <__bss_end__+0xfdff3cde>
    1050:	05000000 	streq	r0, [r0, #-0]
    1054:	00eb7003 	rsceq	r7, fp, r3
    1058:	045a3c00 	ldrbeq	r3, [sl], #-3072	; 0xc00
    105c:	a60a0000 	strge	r0, [sl], -r0
    1060:	00000037 	andeq	r0, r0, r7, lsr r0
    1064:	0000106e 	andeq	r1, r0, lr, rrx
    1068:	00106e3d 	andseq	r6, r0, sp, lsr lr
    106c:	04060000 	streq	r0, [r6], #-0
    1070:	00001074 	andeq	r1, r0, r4, ror r0
    1074:	00107907 	andseq	r7, r0, r7, lsl #18
    1078:	0f3f3e00 	svceq	0x003f3e00
    107c:	0a000001 	beq	1088 <_start-0x6f78>
    1080:	03c74087 	biceq	r4, r7, #135	; 0x87
    1084:	9a0a0000 	bls	28108c <__bss_end__+0x272514>
    1088:	00001097 	muleq	r0, r7, r0
    108c:	0010973d 	andseq	r9, r0, sp, lsr r7
    1090:	00373d00 	eorseq	r3, r7, r0, lsl #26
    1094:	06000000 	streq	r0, [r0], -r0
    1098:	00107904 	andseq	r7, r0, r4, lsl #18
    109c:	0a6b4100 	beq	1ad14a4 <__bss_end__+0x1ac292c>
    10a0:	3b0a0000 	blcc	2810a8 <__bss_end__+0x272530>
    10a4:	00000025 	andeq	r0, r0, r5, lsr #32
    10a8:	0000c341 	andeq	ip, r0, r1, asr #6
    10ac:	25460a00 	strbcs	r0, [r6, #-2560]	; 0xa00
    10b0:	40000000 	andmi	r0, r0, r0
    10b4:	000001e9 	andeq	r0, r0, r9, ror #3
    10b8:	10c43c0a 	sbcne	r3, r4, sl, lsl #24
    10bc:	373d0000 	ldrcc	r0, [sp, -r0]!
    10c0:	00000000 	andeq	r0, r0, r0
    10c4:	00015441 	andeq	r5, r1, r1, asr #8
    10c8:	25440a00 	strbcs	r0, [r4, #-2560]	; 0xa00
    10cc:	3f000000 	svccc	0x00000000
    10d0:	00000507 	andeq	r0, r0, r7, lsl #10
    10d4:	7e3f320b 	cdpvc	2, 3, cr3, cr15, cr11, {0}
    10d8:	0b000002 	bleq	10e8 <_start-0x6f18>
    10dc:	041e3c31 	ldreq	r3, [lr], #-3121	; 0xc31
    10e0:	1b0c0000 	blne	3010e8 <__bss_end__+0x2f2570>
    10e4:	00000093 	muleq	r0, r3, r0
    10e8:	000010fc 	strdeq	r1, [r0], -ip
    10ec:	0000933d 	andeq	r9, r0, sp, lsr r3
    10f0:	00253d00 	eoreq	r3, r5, r0, lsl #26
    10f4:	2c3d0000 	ldccs	0, cr0, [sp], #-0
    10f8:	00000000 	andeq	r0, r0, r0
    10fc:	0001a03f 	andeq	sl, r1, pc, lsr r0
    1100:	3c1e0a00 	ldccc	10, cr0, [lr], {-0}
    1104:	000005ca 	andeq	r0, r0, sl, asr #11
    1108:	0025290a 	eoreq	r2, r5, sl, lsl #18
    110c:	11190000 	tstne	r9, r0
    1110:	9c3d0000 	ldcls	0, cr0, [sp], #-0
    1114:	42000000 	andmi	r0, r0, #0
    1118:	02173f00 	andseq	r3, r7, #0, 30
    111c:	660a0000 	strvs	r0, [sl], -r0
    1120:	00023240 	andeq	r3, r2, r0, asr #4
    1124:	36190500 	ldrcc	r0, [r9], -r0, lsl #10
    1128:	3d000011 	stccc	0, cr0, [r0, #-68]	; 0xffffffbc
    112c:	00000037 	andeq	r0, r0, r7, lsr r0
    1130:	0000f03d 	andeq	pc, r0, sp, lsr r0	; <UNPREDICTABLE>
    1134:	e6400000 	strb	r0, [r0], -r0
    1138:	07000001 	streq	r0, [r0, -r1]
    113c:	00114c44 	andseq	r4, r1, r4, asr #24
    1140:	114c3d00 	cmpne	ip, r0, lsl #26
    1144:	653d0000 	ldrvs	r0, [sp, #-0]!
    1148:	00000000 	andeq	r0, r0, r0
    114c:	022a0406 	eoreq	r0, sl, #100663296	; 0x6000000
    1150:	753f0000 	ldrvc	r0, [pc, #-0]!	; 1158 <_start-0x6ea8>
    1154:	0b000002 	bleq	1164 <_start-0x6e9c>
    1158:	04604333 	strbteq	r4, [r0], #-819	; 0x333
    115c:	1d070000 	stcne	0, cr0, [r7, #-0]
    1160:	0000022a 	andeq	r0, r0, sl, lsr #4
    1164:	00005a3d 	andeq	r5, r0, sp, lsr sl
    1168:	005a3d00 	subseq	r3, sl, r0, lsl #26
    116c:	733d0000 	teqvc	sp, #0
    1170:	3d000000 	stccc	0, cr0, [r0, #-0]
    1174:	00000073 	andeq	r0, r0, r3, ror r0
    1178:	00db0000 	sbcseq	r0, fp, r0
    117c:	00040000 	andeq	r0, r4, r0
    1180:	0000039d 	muleq	r0, sp, r3
    1184:	03610104 	cmneq	r1, #4, 2
    1188:	58010000 	stmdapl	r1, {}	; <UNPREDICTABLE>
    118c:	66000005 	strvs	r0, [r0], -r5
    1190:	1c000005 	stcne	0, cr0, [r0], {5}
    1194:	20000089 	andcs	r0, r0, r9, lsl #1
    1198:	57000000 	strpl	r0, [r0, -r0]
    119c:	02000004 	andeq	r0, r0, #4
    11a0:	02ab0601 	adceq	r0, fp, #1048576	; 0x100000
    11a4:	01020000 	mrseq	r0, (UNDEF: 2)
    11a8:	0002a908 	andeq	sl, r2, r8, lsl #18
    11ac:	05020200 	streq	r0, [r2, #-512]	; 0x200
    11b0:	000002bf 			; <UNDEFINED> instruction: 0x000002bf
    11b4:	c5070202 	strgt	r0, [r7, #-514]	; 0x202
    11b8:	03000001 	movweq	r0, #1
    11bc:	6e690504 	cdpvs	5, 6, cr0, cr9, cr4, {0}
    11c0:	04020074 	streq	r0, [r2], #-116	; 0x74
    11c4:	00006407 	andeq	r6, r0, r7, lsl #8
    11c8:	05080200 	streq	r0, [r8, #-512]	; 0x200
    11cc:	000000a4 	andeq	r0, r0, r4, lsr #1
    11d0:	5a070802 	bpl	1c31e0 <__bss_end__+0x1b4668>
    11d4:	02000000 	andeq	r0, r0, #0
    11d8:	00a90504 	adceq	r0, r9, r4, lsl #10
    11dc:	04020000 	streq	r0, [r2], #-0
    11e0:	00022907 	andeq	r2, r2, r7, lsl #18
    11e4:	02040400 	andeq	r0, r4, #0, 8
    11e8:	005f0704 	subseq	r0, pc, r4, lsl #14
    11ec:	04050000 	streq	r0, [r5], #-0
    11f0:	0000007a 	andeq	r0, r0, sl, ror r0
    11f4:	b2080102 	andlt	r0, r8, #-2147483648	; 0x80000000
    11f8:	06000002 	streq	r0, [r0], -r2
    11fc:	00000011 	andeq	r0, r0, r1, lsl r0
    1200:	0048d402 	subeq	sp, r8, r2, lsl #8
    1204:	1e070000 	cdpne	0, 0, cr0, cr7, cr0, {0}
    1208:	03000004 	movweq	r0, #4
    120c:	00006b1b 	andeq	r6, r0, fp, lsl fp
    1210:	00891c00 	addeq	r1, r9, r0, lsl #24
    1214:	00002000 	andeq	r2, r0, r0
    1218:	089c0100 	ldmeq	ip, {r8}
    121c:	0100705f 	qaddeq	r7, pc, r0	; <UNPREDICTABLE>
    1220:	00006b03 	andeq	r6, r0, r3, lsl #22
    1224:	08500100 	ldmdaeq	r0, {r8}^
    1228:	03010063 	movweq	r0, #4195	; 0x1063
    122c:	00000041 	andeq	r0, r0, r1, asr #32
    1230:	6e095101 	adfvse	f5, f1, f1
    1234:	81030100 	mrshi	r0, (UNDEF: 19)
    1238:	a4000000 	strge	r0, [r0], #-0
    123c:	0a000004 	beq	1254 <_start-0x6dac>
    1240:	04010070 	streq	r0, [r1], #-112	; 0x70
    1244:	00000074 	andeq	r0, r0, r4, ror r0
    1248:	000004c5 	andeq	r0, r0, r5, asr #9
    124c:	0100650b 	tsteq	r0, fp, lsl #10
    1250:	00007404 	andeq	r7, r0, r4, lsl #8
    1254:	00520100 	subseq	r0, r2, r0, lsl #2
    1258:	00019100 	andeq	r9, r1, r0, lsl #2
    125c:	3a000400 	bcc	2264 <_start-0x5d9c>
    1260:	04000004 	streq	r0, [r0], #-4
    1264:	00036101 	andeq	r6, r3, r1, lsl #2
    1268:	05b90100 	ldreq	r0, [r9, #256]!	; 0x100
    126c:	05660000 	strbeq	r0, [r6, #-0]!
    1270:	893c0000 	ldmdbhi	ip!, {}	; <UNPREDICTABLE>
    1274:	00580000 	subseq	r0, r8, r0
    1278:	05470000 	strbeq	r0, [r7, #-0]
    127c:	aa020000 	bge	81284 <__bss_end__+0x7270c>
    1280:	02000005 	andeq	r0, r0, #5
    1284:	00003028 	andeq	r3, r0, r8, lsr #32
    1288:	05d10300 	ldrbeq	r0, [r1, #768]	; 0x300
    128c:	03040000 	movweq	r0, #16384	; 0x4000
    1290:	00004700 	andeq	r4, r0, r0, lsl #14
    1294:	05e00400 	strbeq	r0, [r0, #1024]!	; 0x400
    1298:	00470000 	subeq	r0, r7, r0
    129c:	00000000 	andeq	r0, r0, r0
    12a0:	d3020405 	movwle	r0, #9221	; 0x2405
    12a4:	02000005 	andeq	r0, r0, #5
    12a8:	00002562 	andeq	r2, r0, r2, ror #10
    12ac:	05040600 	streq	r0, [r4, #-1536]	; 0x600
    12b0:	00746e69 	rsbseq	r6, r4, r9, ror #28
    12b4:	64070407 	strvs	r0, [r7], #-1031	; 0x407
    12b8:	07000000 	streq	r0, [r0, -r0]
    12bc:	02ab0601 	adceq	r0, fp, #1048576	; 0x100000
    12c0:	02070000 	andeq	r0, r7, #0
    12c4:	0002bf05 	andeq	fp, r2, r5, lsl #30
    12c8:	05040700 	streq	r0, [r4, #-1792]	; 0x700
    12cc:	000000a9 	andeq	r0, r0, r9, lsr #1
    12d0:	a4050807 	strge	r0, [r5], #-2055	; 0x807
    12d4:	07000000 	streq	r0, [r0, -r0]
    12d8:	02a90801 	adceq	r0, r9, #65536	; 0x10000
    12dc:	02070000 	andeq	r0, r7, #0
    12e0:	0001c507 	andeq	ip, r1, r7, lsl #10
    12e4:	07040700 	streq	r0, [r4, -r0, lsl #14]
    12e8:	0000005f 	andeq	r0, r0, pc, asr r0
    12ec:	5a070807 	bpl	1c3310 <__bss_end__+0x1b4798>
    12f0:	07000000 	streq	r0, [r0, -r0]
    12f4:	02290704 	eoreq	r0, r9, #4, 14	; 0x100000
    12f8:	04080000 	streq	r0, [r8], #-0
    12fc:	000000a7 	andeq	r0, r0, r7, lsr #1
    1300:	b2080107 	andlt	r0, r8, #-1073741823	; 0xc0000001
    1304:	08000002 	stmdaeq	r0, {r1}
    1308:	0000b404 	andeq	fp, r0, r4, lsl #8
    130c:	00a70900 	adceq	r0, r7, r0, lsl #18
    1310:	ca0a0000 	bgt	281318 <__bss_end__+0x2727a0>
    1314:	01000005 	tsteq	r0, r5
    1318:	00005406 	andeq	r5, r0, r6, lsl #8
    131c:	00893c00 	addeq	r3, r9, r0, lsl #24
    1320:	00005800 	andeq	r5, r0, r0, lsl #16
    1324:	439c0100 	orrsmi	r0, ip, #0, 2
    1328:	0b000001 	bleq	1334 <_start-0x6ccc>
    132c:	00746d66 	rsbseq	r6, r4, r6, ror #26
    1330:	00ae0601 	adceq	r0, lr, r1, lsl #12
    1334:	91020000 	mrsls	r0, (UNDEF: 2)
    1338:	620d0c70 	andvs	r0, sp, #112, 24	; 0x7000
    133c:	01006675 	tsteq	r0, r5, ror r6
    1340:	00014308 	andeq	r4, r1, r8, lsl #6
    1344:	64030500 	strvs	r0, [r3], #-1280	; 0x500
    1348:	0e0000e7 	cdpeq	0, 0, cr0, cr0, cr7, {7}
    134c:	000005db 	ldrdeq	r0, [r0], -fp
    1350:	00490901 	subeq	r0, r9, r1, lsl #18
    1354:	91020000 	mrsls	r0, (UNDEF: 2)
    1358:	7a730f5c 	bvc	1cc50d0 <__bss_end__+0x1cb6558>
    135c:	540c0100 	strpl	r0, [ip], #-256	; 0x100
    1360:	f0000000 			; <UNDEFINED> instruction: 0xf0000000
    1364:	10000004 	andne	r0, r0, r4
    1368:	00008964 	andeq	r8, r0, r4, ror #18
    136c:	00000174 	andeq	r0, r0, r4, ror r1
    1370:	00000136 	andeq	r0, r0, r6, lsr r1
    1374:	02530111 	subseq	r0, r3, #1073741828	; 0x40000004
    1378:	01114c91 			; <UNDEFINED> instruction: 0x01114c91
    137c:	48910352 	ldmmi	r1, {r1, r4, r6, r8, r9}
    1380:	51011106 	tstpl	r1, r6, lsl #2
    1384:	04000a03 	streq	r0, [r0], #-2563	; 0xa03
    1388:	02500111 	subseq	r0, r0, #1073741828	; 0x40000004
    138c:	12000074 	andne	r0, r0, #116	; 0x74
    1390:	00008978 	andeq	r8, r0, r8, ror r9
    1394:	02500111 	subseq	r0, r0, #1073741828	; 0x40000004
    1398:	00000074 	andeq	r0, r0, r4, ror r0
    139c:	0000a713 	andeq	sl, r0, r3, lsl r7
    13a0:	00015400 	andeq	r5, r1, r0, lsl #8
    13a4:	009a1400 	addseq	r1, sl, r0, lsl #8
    13a8:	03ff0000 	mvnseq	r0, #0
    13ac:	00541500 	subseq	r1, r4, r0, lsl #10
    13b0:	01630000 	cmneq	r3, r0
    13b4:	ae160000 	cdpge	0, 1, cr0, cr6, cr0, {0}
    13b8:	00000000 	andeq	r0, r0, r0
    13bc:	00063317 	andeq	r3, r6, r7, lsl r3
    13c0:	6e220400 	cdpvs	4, 2, cr0, cr2, cr0, {0}
    13c4:	08000001 	stmdaeq	r0, {r0}
    13c8:	00015404 	andeq	r5, r1, r4, lsl #8
    13cc:	05c71800 	strbeq	r1, [r7, #2048]	; 0x800
    13d0:	02050000 	andeq	r0, r5, #0
    13d4:	00000054 	andeq	r0, r0, r4, asr r0
    13d8:	0000a116 	andeq	sl, r0, r6, lsl r1
    13dc:	00541600 	subseq	r1, r4, r0, lsl #12
    13e0:	ae160000 	cdpge	0, 1, cr0, cr6, cr0, {0}
    13e4:	16000000 	strne	r0, [r0], -r0
    13e8:	00000049 	andeq	r0, r0, r9, asr #32
    13ec:	01130000 	tsteq	r3, r0
    13f0:	00040000 	andeq	r0, r4, r0
    13f4:	0000056b 	andeq	r0, r0, fp, ror #10
    13f8:	03610104 	cmneq	r1, #4, 2
    13fc:	02010000 	andeq	r0, r1, #0
    1400:	66000006 	strvs	r0, [r0], -r6
    1404:	94000005 	strls	r0, [r0], #-5
    1408:	3c000089 	stccc	0, cr0, [r0], {137}	; 0x89
    140c:	4d000000 	stcmi	0, cr0, [r0, #-0]
    1410:	02000006 	andeq	r0, r0, #6
    1414:	6e690504 	cdpvs	5, 6, cr0, cr9, cr4, {0}
    1418:	04030074 	streq	r0, [r3], #-116	; 0x74
    141c:	00006407 	andeq	r6, r0, r7, lsl #8
    1420:	06010300 	streq	r0, [r1], -r0, lsl #6
    1424:	000002ab 	andeq	r0, r0, fp, lsr #5
    1428:	bf050203 	svclt	0x00050203
    142c:	03000002 	movweq	r0, #2
    1430:	00a90504 	adceq	r0, r9, r4, lsl #10
    1434:	08030000 	stmdaeq	r3, {}	; <UNPREDICTABLE>
    1438:	0000a405 	andeq	sl, r0, r5, lsl #8
    143c:	08010300 	stmdaeq	r1, {r8, r9}
    1440:	000002a9 	andeq	r0, r0, r9, lsr #5
    1444:	c5070203 	strgt	r0, [r7, #-515]	; 0x203
    1448:	03000001 	movweq	r0, #1
    144c:	005f0704 	subseq	r0, pc, r4, lsl #14
    1450:	08030000 	stmdaeq	r3, {}	; <UNPREDICTABLE>
    1454:	00005a07 	andeq	r5, r0, r7, lsl #20
    1458:	07040300 	streq	r0, [r4, -r0, lsl #6]
    145c:	00000229 	andeq	r0, r0, r9, lsr #4
    1460:	b2080103 	andlt	r0, r8, #-1073741824	; 0xc0000000
    1464:	04000002 	streq	r0, [r0], #-2
    1468:	000005e5 	andeq	r0, r0, r5, ror #11
    146c:	00250301 	eoreq	r0, r5, r1, lsl #6
    1470:	89940000 	ldmibhi	r4, {}	; <UNPREDICTABLE>
    1474:	00140000 	andseq	r0, r4, r0
    1478:	9c010000 	stcls	0, cr0, [r1], {-0}
    147c:	000000b0 	strheq	r0, [r0], -r0	; <UNPREDICTABLE>
    1480:	01006305 	tsteq	r0, r5, lsl #6
    1484:	00002503 	andeq	r2, r0, r3, lsl #10
    1488:	00051900 	andeq	r1, r5, r0, lsl #18
    148c:	89a00600 	stmibhi	r0!, {r9, sl}
    1490:	01090000 	mrseq	r0, (UNDEF: 9)
    1494:	01070000 	mrseq	r0, (UNDEF: 7)
    1498:	00740250 	rsbseq	r0, r4, r0, asr r2
    149c:	a0080000 	andge	r0, r8, r0
    14a0:	01000001 	tsteq	r0, r1
    14a4:	0089a808 	addeq	sl, r9, r8, lsl #16
    14a8:	00001800 	andeq	r1, r0, r0, lsl #16
    14ac:	099c0100 	ldmibeq	ip, {r8}
    14b0:	00000611 	andeq	r0, r0, r1, lsl r6
    14b4:	89c00b01 	stmibhi	r0, {r0, r8, r9, fp}^
    14b8:	00100000 	andseq	r0, r0, r0
    14bc:	9c010000 	stcls	0, cr0, [r1], {-0}
    14c0:	000000e3 	andeq	r0, r0, r3, ror #1
    14c4:	0070660a 	rsbseq	r6, r0, sl, lsl #12
    14c8:	00f20b01 	rscseq	r0, r2, r1, lsl #22
    14cc:	50010000 	andpl	r0, r1, r0
    14d0:	00250b00 	eoreq	r0, r5, r0, lsl #22
    14d4:	00f20000 	rscseq	r0, r2, r0
    14d8:	250c0000 	strcs	r0, [ip, #-0]
    14dc:	00000000 	andeq	r0, r0, r0
    14e0:	00e3040d 	rsceq	r0, r3, sp, lsl #8
    14e4:	f60e0000 			; <UNDEFINED> instruction: 0xf60e0000
    14e8:	01000005 	tsteq	r0, r5
    14ec:	0000f206 	andeq	pc, r0, r6, lsl #4
    14f0:	8c030500 	cfstr32hi	mvfx0, [r3], {-0}
    14f4:	0f0000a1 	svceq	0x000000a1
    14f8:	000001e9 	andeq	r0, r0, r9, ror #3
    14fc:	2c0c3c02 	stccs	12, cr3, [ip], {2}
    1500:	00000000 	andeq	r0, r0, r0
    1504:	0000ee00 	andeq	lr, r0, r0, lsl #28
    1508:	53000400 	movwpl	r0, #1024	; 0x400
    150c:	04000006 	streq	r0, [r0], #-6
    1510:	00036101 	andeq	r6, r3, r1, lsl #2
    1514:	061e0100 	ldreq	r0, [lr], -r0, lsl #2
    1518:	05660000 	strbeq	r0, [r6, #-0]!
    151c:	89d00000 	ldmibhi	r0, {}^	; <UNPREDICTABLE>
    1520:	00340000 	eorseq	r0, r4, r0
    1524:	06db0000 	ldrbeq	r0, [fp], r0
    1528:	04020000 	streq	r0, [r2], #-0
    152c:	746e6905 	strbtvc	r6, [lr], #-2309	; 0x905
    1530:	07040300 	streq	r0, [r4, -r0, lsl #6]
    1534:	00000064 	andeq	r0, r0, r4, rrx
    1538:	ab060103 	blge	18194c <__bss_end__+0x172dd4>
    153c:	03000002 	movweq	r0, #2
    1540:	02bf0502 	adcseq	r0, pc, #8388608	; 0x800000
    1544:	04030000 	streq	r0, [r3], #-0
    1548:	0000a905 	andeq	sl, r0, r5, lsl #18
    154c:	05080300 	streq	r0, [r8, #-768]	; 0x300
    1550:	000000a4 	andeq	r0, r0, r4, lsr #1
    1554:	a9080103 	stmdbge	r8, {r0, r1, r8}
    1558:	03000002 	movweq	r0, #2
    155c:	01c50702 	biceq	r0, r5, r2, lsl #14
    1560:	04030000 	streq	r0, [r3], #-0
    1564:	00005f07 	andeq	r5, r0, r7, lsl #30
    1568:	07080300 	streq	r0, [r8, -r0, lsl #6]
    156c:	0000005a 	andeq	r0, r0, sl, asr r0
    1570:	29070403 	stmdbcs	r7, {r0, r1, sl}
    1574:	03000002 	movweq	r0, #2
    1578:	02b20801 	adcseq	r0, r2, #65536	; 0x10000
    157c:	04040000 	streq	r0, [r4], #-0
    1580:	0000007f 	andeq	r0, r0, pc, ror r0
    1584:	00007205 	andeq	r7, r0, r5, lsl #4
    1588:	062a0600 	strteq	r0, [sl], -r0, lsl #12
    158c:	04010000 	streq	r0, [r1], #-0
    1590:	00000025 	andeq	r0, r0, r5, lsr #32
    1594:	000089d0 	ldrdeq	r8, [r0], -r0
    1598:	00000034 	andeq	r0, r0, r4, lsr r0
    159c:	00ab9c01 	adceq	r9, fp, r1, lsl #24
    15a0:	70070000 	andvc	r0, r7, r0
    15a4:	79040100 	stmdbvc	r4, {r8}
    15a8:	37000000 	strcc	r0, [r0, -r0]
    15ac:	00000005 	andeq	r0, r0, r5
    15b0:	00002508 	andeq	r2, r0, r8, lsl #10
    15b4:	0000ba00 	andeq	fp, r0, r0, lsl #20
    15b8:	00250900 	eoreq	r0, r5, r0, lsl #18
    15bc:	0a000000 	beq	15c4 <_start-0x6a3c>
    15c0:	000005f6 	strdeq	r0, [r0], -r6
    15c4:	00c51d02 	sbceq	r1, r5, r2, lsl #26
    15c8:	04040000 	streq	r0, [r4], #-0
    15cc:	000000ab 	andeq	r0, r0, fp, lsr #1
    15d0:	00002508 	andeq	r2, r0, r8, lsl #10
    15d4:	0000da00 	andeq	sp, r0, r0, lsl #20
    15d8:	00790900 	rsbseq	r0, r9, r0, lsl #18
    15dc:	0b000000 	bleq	15e4 <_start-0x6a1c>
    15e0:	00000633 	andeq	r0, r0, r3, lsr r6
    15e4:	00eb0c01 	rsceq	r0, fp, r1, lsl #24
    15e8:	03050000 	movweq	r0, #20480	; 0x5000
    15ec:	0000a190 	muleq	r0, r0, r1
    15f0:	00cb0404 	sbceq	r0, fp, r4, lsl #8
    15f4:	81000000 	mrshi	r0, (UNDEF: 0)
    15f8:	04000006 	streq	r0, [r0], #-6
    15fc:	0006ec00 	andeq	lr, r6, r0, lsl #24
    1600:	61010400 	tstvs	r1, r0, lsl #8
    1604:	01000003 	tsteq	r0, r3
    1608:	00000664 	andeq	r0, r0, r4, ror #12
    160c:	00000566 	andeq	r0, r0, r6, ror #10
    1610:	00008a04 	andeq	r8, r0, r4, lsl #20
    1614:	000004f8 	strdeq	r0, [r0], -r8
    1618:	00000775 	andeq	r0, r0, r5, ror r7
    161c:	69050402 	stmdbvs	r5, {r1, sl}
    1620:	0300746e 	movweq	r7, #1134	; 0x46e
    1624:	00640704 	rsbeq	r0, r4, r4, lsl #14
    1628:	01030000 	mrseq	r0, (UNDEF: 3)
    162c:	0002ab06 	andeq	sl, r2, r6, lsl #22
    1630:	05020300 	streq	r0, [r2, #-768]	; 0x300
    1634:	000002bf 			; <UNDEFINED> instruction: 0x000002bf
    1638:	a9050403 	stmdbge	r5, {r0, r1, sl}
    163c:	03000000 	movweq	r0, #0
    1640:	00a40508 	adceq	r0, r4, r8, lsl #10
    1644:	01030000 	mrseq	r0, (UNDEF: 3)
    1648:	0002a908 	andeq	sl, r2, r8, lsl #18
    164c:	07020300 	streq	r0, [r2, -r0, lsl #6]
    1650:	000001c5 	andeq	r0, r0, r5, asr #3
    1654:	5f070403 	svcpl	0x00070403
    1658:	03000000 	movweq	r0, #0
    165c:	005a0708 	subseq	r0, sl, r8, lsl #14
    1660:	04030000 	streq	r0, [r3], #-0
    1664:	00022907 	andeq	r2, r2, r7, lsl #18
    1668:	05040400 	streq	r0, [r4, #-1024]	; 0x400
    166c:	00007a04 	andeq	r7, r0, r4, lsl #20
    1670:	08010300 	stmdaeq	r1, {r8, r9}
    1674:	000002b2 			; <UNDEFINED> instruction: 0x000002b2
    1678:	00870405 	addeq	r0, r7, r5, lsl #8
    167c:	7a060000 	bvc	181684 <__bss_end__+0x172b0c>
    1680:	07000000 	streq	r0, [r0, -r0]
    1684:	000005aa 	andeq	r0, r0, sl, lsr #11
    1688:	00972802 	addseq	r2, r7, r2, lsl #16
    168c:	d1080000 	mrsle	r0, (UNDEF: 8)
    1690:	04000005 	streq	r0, [r0], #-5
    1694:	00ae0004 	adceq	r0, lr, r4
    1698:	e0090000 	and	r0, r9, r0
    169c:	72000005 	andvc	r0, r0, #5
    16a0:	00000000 	andeq	r0, r0, r0
    16a4:	05d30700 	ldrbeq	r0, [r3, #1792]	; 0x700
    16a8:	62020000 	andvs	r0, r2, #0
    16ac:	0000008c 	andeq	r0, r0, ip, lsl #1
    16b0:	0006460a 	andeq	r4, r6, sl, lsl #12
    16b4:	25270100 	strcs	r0, [r7, #-256]!	; 0x100
    16b8:	04000000 	streq	r0, [r0], #-0
    16bc:	1400008a 	strne	r0, [r0], #-138	; 0x8a
    16c0:	01000000 	mrseq	r0, (UNDEF: 0)
    16c4:	0000e09c 	muleq	r0, ip, r0
    16c8:	00630b00 	rsbeq	r0, r3, r0, lsl #22
    16cc:	00252701 	eoreq	r2, r5, r1, lsl #14
    16d0:	05550000 	ldrbeq	r0, [r5, #-0]
    16d4:	0c000000 	stceq	0, cr0, [r0], {-0}
    16d8:	00646170 	rsbeq	r6, r4, r0, ror r1
    16dc:	00742e01 	rsbseq	r2, r4, r1, lsl #28
    16e0:	8a180000 	bhi	6016e8 <__bss_end__+0x5f2b70>
    16e4:	002c0000 	eoreq	r0, ip, r0
    16e8:	9c010000 	stcls	0, cr0, [r1], {-0}
    16ec:	00000130 	andeq	r0, r0, r0, lsr r1
    16f0:	0100700b 	tsteq	r0, fp
    16f4:	0000742e 	andeq	r7, r0, lr, lsr #8
    16f8:	00058300 	andeq	r8, r5, r0, lsl #6
    16fc:	06560d00 	ldrbeq	r0, [r6], -r0, lsl #26
    1700:	2e010000 	cdpcs	0, 0, cr0, cr1, cr0, {0}
    1704:	00000074 	andeq	r0, r0, r4, ror r0
    1708:	000005ae 	andeq	r0, r0, lr, lsr #11
    170c:	0006840e 	andeq	r8, r6, lr, lsl #8
    1710:	252e0100 	strcs	r0, [lr, #-256]!	; 0x100
    1714:	01000000 	mrseq	r0, (UNDEF: 0)
    1718:	656c0f52 	strbvs	r0, [ip, #-3922]!	; 0xf52
    171c:	2f01006e 	svccs	0x0001006e
    1720:	00000025 	andeq	r0, r0, r5, lsr #32
    1724:	0a005101 	beq	15b30 <__bss_end__+0x6fb8>
    1728:	0000063e 	andeq	r0, r0, lr, lsr r6
    172c:	00743701 	rsbseq	r3, r4, r1, lsl #14
    1730:	8a440000 	bhi	1101738 <__bss_end__+0x10f2bc0>
    1734:	00400000 	subeq	r0, r0, r0
    1738:	9c010000 	stcls	0, cr0, [r1], {-0}
    173c:	0000019c 	muleq	r0, ip, r1
    1740:	7473640b 	ldrbtvc	r6, [r3], #-1035	; 0x40b
    1744:	74370100 	ldrtvc	r0, [r7], #-256	; 0x100
    1748:	cf000000 	svcgt	0x00000000
    174c:	0b000005 	bleq	1768 <_start-0x6898>
    1750:	3701006e 	strcc	r0, [r1, -lr, rrx]
    1754:	00000025 	andeq	r0, r0, r5, lsr #32
    1758:	00000607 	andeq	r0, r0, r7, lsl #12
    175c:	0100700b 	tsteq	r0, fp
    1760:	00007437 	andeq	r7, r0, r7, lsr r4
    1764:	00062800 	andeq	r2, r6, r0, lsl #16
    1768:	07350d00 	ldreq	r0, [r5, -r0, lsl #26]!
    176c:	37010000 	strcc	r0, [r1, -r0]
    1770:	00000074 	andeq	r0, r0, r4, ror r0
    1774:	0000065e 	andeq	r0, r0, lr, asr r6
    1778:	6e656c10 	mcrvs	12, 3, r6, cr5, cr0, {0}
    177c:	25390100 	ldrcs	r0, [r9, #-256]!	; 0x100
    1780:	7c000000 	stcvc	0, cr0, [r0], {-0}
    1784:	0f000006 	svceq	0x00000006
    1788:	3d010073 	stccc	0, cr0, [r1, #-460]	; 0xfffffe34
    178c:	00000074 	andeq	r0, r0, r4, ror r0
    1790:	0a005001 	beq	1579c <__bss_end__+0x6c24>
    1794:	00000692 	muleq	r0, r2, r6
    1798:	00744701 	rsbseq	r4, r4, r1, lsl #14
    179c:	8a840000 	bhi	fe1017a4 <__bss_end__+0xfe0f2c2c>
    17a0:	019c0000 	orrseq	r0, ip, r0
    17a4:	9c010000 	stcls	0, cr0, [r1], {-0}
    17a8:	000002d3 	ldrdeq	r0, [r0], -r3
    17ac:	0006560d 	andeq	r5, r6, sp, lsl #12
    17b0:	2c470100 	stfcse	f0, [r7], {-0}
    17b4:	a3000000 	movwge	r0, #0
    17b8:	0b000006 	bleq	17d8 <_start-0x6828>
    17bc:	00747364 	rsbseq	r7, r4, r4, ror #6
    17c0:	00744701 	rsbseq	r4, r4, r1, lsl #14
    17c4:	06d10000 	ldrbeq	r0, [r1], r0
    17c8:	6e0b0000 	cdpvs	0, 0, cr0, cr11, cr0, {0}
    17cc:	25470100 	strbcs	r0, [r7, #-256]	; 0x100
    17d0:	3f000000 	svccc	0x00000000
    17d4:	0b000007 	bleq	17f8 <_start-0x6808>
    17d8:	006c6176 	rsbeq	r6, ip, r6, ror r1
    17dc:	00254701 	eoreq	r4, r5, r1, lsl #14
    17e0:	076b0000 	strbeq	r0, [fp, -r0]!
    17e4:	840d0000 	strhi	r0, [sp], #-0
    17e8:	01000006 	tsteq	r0, r6
    17ec:	00002547 	andeq	r2, r0, r7, asr #10
    17f0:	0007ea00 	andeq	lr, r7, r0, lsl #20
    17f4:	065b0e00 	ldrbeq	r0, [fp], -r0, lsl #28
    17f8:	47010000 	strmi	r0, [r1, -r0]
    17fc:	00000025 	andeq	r0, r0, r5, lsr #32
    1800:	0f049102 	svceq	0x00049102
    1804:	00667562 	rsbeq	r7, r6, r2, ror #10
    1808:	02d34c01 	sbcseq	r4, r3, #256	; 0x100
    180c:	91030000 	mrsls	r0, (UNDEF: 3)
    1810:	70107fa8 	andsvc	r7, r0, r8, lsr #31
    1814:	744c0100 	strbvc	r0, [ip], #-256	; 0x100
    1818:	14000000 	strne	r0, [r0], #-0
    181c:	10000008 	andne	r0, r0, r8
    1820:	4d010075 	stcmi	0, cr0, [r1, #-468]	; 0xfffffe2c
    1824:	0000002c 	andeq	r0, r0, ip, lsr #32
    1828:	000008b9 			; <UNDEFINED> instruction: 0x000008b9
    182c:	0001af11 	andeq	sl, r1, r1, lsl pc
    1830:	0002f300 	andeq	pc, r2, r0, lsl #6
    1834:	60030500 	andvs	r0, r3, r0, lsl #10
    1838:	120000a3 	andne	r0, r0, #163	; 0xa3
    183c:	00008af0 	strdeq	r8, [r0], -r0
    1840:	00000074 	andeq	r0, r0, r4, ror r0
    1844:	00000261 	andeq	r0, r0, r1, ror #4
    1848:	00063813 	andeq	r3, r6, r3, lsl r8
    184c:	2c520100 	ldfcse	f0, [r2], {-0}
    1850:	be000000 	cdplt	0, 0, cr0, cr0, cr0, {0}
    1854:	00000009 	andeq	r0, r0, r9
    1858:	008bc414 	addeq	ip, fp, r4, lsl r4
    185c:	00066000 	andeq	r6, r6, r0
    1860:	8bd81500 	blhi	ff606c68 <__bss_end__+0xff5f80f0>
    1864:	06670000 	strbteq	r0, [r7], -r0
    1868:	02990000 	addseq	r0, r9, #0
    186c:	01160000 	tsteq	r6, r0
    1870:	75080253 	strvc	r0, [r8, #-595]	; 0x253
    1874:	05520116 	ldrbeq	r0, [r2, #-278]	; 0x116
    1878:	00a36003 	adceq	r6, r3, r3
    187c:	51011600 	tstpl	r1, r0, lsl #12
    1880:	a3980305 	orrsge	r0, r8, #335544320	; 0x14000000
    1884:	01160000 	tsteq	r6, r0
    1888:	84030550 	strhi	r0, [r3], #-1360	; 0x550
    188c:	000000a3 	andeq	r0, r0, r3, lsr #1
    1890:	008bdc14 	addeq	sp, fp, r4, lsl ip
    1894:	00067d00 	andeq	r7, r6, r0, lsl #26
    1898:	8be81500 	blhi	ffa06ca0 <__bss_end__+0xff9f8128>
    189c:	00e00000 	rsceq	r0, r0, r0
    18a0:	02b60000 	adcseq	r0, r6, #0
    18a4:	01160000 	tsteq	r6, r0
    18a8:	007d0251 	rsbseq	r0, sp, r1, asr r2
    18ac:	8bfc1700 	blhi	fff074b4 <__bss_end__+0xffef893c>
    18b0:	01300000 	teqeq	r0, r0
    18b4:	01160000 	tsteq	r6, r0
    18b8:	007d0253 	rsbseq	r0, sp, r3, asr r2
    18bc:	02510116 	subseq	r0, r1, #-2147483643	; 0x80000005
    18c0:	01160074 	tsteq	r6, r4, ror r0
    18c4:	00750250 	rsbseq	r0, r5, r0, asr r2
    18c8:	7a180000 	bvc	6018d0 <__bss_end__+0x5f2d58>
    18cc:	e3000000 	movw	r0, #0
    18d0:	19000002 	stmdbne	r0, {r1}
    18d4:	0000006b 	andeq	r0, r0, fp, rrx
    18d8:	7a18003f 	bvc	6019dc <__bss_end__+0x5f2e64>
    18dc:	f3000000 	vhadd.u8	d0, d0, d0
    18e0:	19000002 	stmdbne	r0, {r1}
    18e4:	0000006b 	andeq	r0, r0, fp, rrx
    18e8:	e3060004 	movw	r0, #24580	; 0x6004
    18ec:	1a000002 	bne	18fc <_start-0x6704>
    18f0:	00000675 	andeq	r0, r0, r5, ror r6
    18f4:	8c201f01 	stchi	15, cr1, [r0], #-4
    18f8:	00540000 	subseq	r0, r4, r0
    18fc:	9c010000 	stcls	0, cr0, [r1], {-0}
    1900:	0000037c 	andeq	r0, r0, ip, ror r3
    1904:	00068a0d 	andeq	r8, r6, sp, lsl #20
    1908:	8b1f0100 	blhi	7c1d10 <__bss_end__+0x7b3198>
    190c:	ea000003 	b	1920 <_start-0x66e0>
    1910:	0d000009 	stceq	0, cr0, [r0, #-36]	; 0xffffffdc
    1914:	0000064e 	andeq	r0, r0, lr, asr #12
    1918:	03a01f01 	moveq	r1, #1, 30
    191c:	0a160000 	beq	581924 <__bss_end__+0x572dac>
    1920:	af110000 	svcge	0x00110000
    1924:	b6000001 	strlt	r0, [r0], -r1
    1928:	05000003 	streq	r0, [r0, #-3]
    192c:	00a36803 	adceq	r6, r3, r3, lsl #16
    1930:	8c301400 	cfldrshi	mvf1, [r0], #-0
    1934:	06600000 	strbteq	r0, [r0], -r0
    1938:	44150000 	ldrmi	r0, [r5], #-0
    193c:	6700008c 	strvs	r0, [r0, -ip, lsl #1]
    1940:	72000006 	andvc	r0, r0, #6
    1944:	16000003 	strne	r0, [r0], -r3
    1948:	08025301 	stmdaeq	r2, {r0, r8, r9, ip, lr}
    194c:	52011620 	andpl	r1, r1, #32, 12	; 0x2000000
    1950:	a3680305 	cmnge	r8, #335544320	; 0x14000000
    1954:	01160000 	tsteq	r6, r0
    1958:	98030551 	stmdals	r3, {r0, r4, r6, r8, sl}
    195c:	160000a3 	strne	r0, [r0], -r3, lsr #1
    1960:	03055001 	movweq	r5, #20481	; 0x5001
    1964:	0000a3d0 	ldrdeq	sl, [r0], -r0
    1968:	8c481400 	cfstrdhi	mvd1, [r8], {-0}
    196c:	067d0000 	ldrbteq	r0, [sp], -r0
    1970:	1b000000 	blne	1978 <_start-0x6688>
    1974:	00000025 	andeq	r0, r0, r5, lsr #32
    1978:	0000038b 	andeq	r0, r0, fp, lsl #7
    197c:	0000251c 	andeq	r2, r0, ip, lsl r5
    1980:	04050000 	streq	r0, [r5], #-0
    1984:	0000037c 	andeq	r0, r0, ip, ror r3
    1988:	0000251b 	andeq	r2, r0, fp, lsl r5
    198c:	0003a000 	andeq	sl, r3, r0
    1990:	00811c00 	addeq	r1, r1, r0, lsl #24
    1994:	05000000 	streq	r0, [r0, #-0]
    1998:	00039104 	andeq	r9, r3, r4, lsl #2
    199c:	007a1800 	rsbseq	r1, sl, r0, lsl #16
    19a0:	03b60000 			; <UNDEFINED> instruction: 0x03b60000
    19a4:	6b190000 	blvs	6419ac <__bss_end__+0x632e34>
    19a8:	0e000000 	cdpeq	0, 0, cr0, cr0, cr0, {0}
    19ac:	03a60600 			; <UNDEFINED> instruction: 0x03a60600
    19b0:	c71d0000 	ldrgt	r0, [sp, -r0]
    19b4:	01000005 	tsteq	r0, r5
    19b8:	0000257d 	andeq	r2, r0, sp, ror r5
    19bc:	008c7400 	addeq	r7, ip, r0, lsl #8
    19c0:	00028800 	andeq	r8, r2, r0, lsl #16
    19c4:	259c0100 	ldrcs	r0, [ip, #256]	; 0x100
    19c8:	0b000006 	bleq	19e8 <_start-0x6618>
    19cc:	00667562 	rsbeq	r7, r6, r2, ror #10
    19d0:	00747d01 	rsbseq	r7, r4, r1, lsl #26
    19d4:	0a420000 	beq	10819dc <__bss_end__+0x1072e64>
    19d8:	6e0b0000 	cdpvs	0, 0, cr0, cr11, cr0, {0}
    19dc:	257d0100 	ldrbcs	r0, [sp, #-256]!	; 0x100
    19e0:	6e000000 	cdpvs	0, 0, cr0, cr0, cr0, {0}
    19e4:	0b00000a 	bleq	1a14 <_start-0x65ec>
    19e8:	00746d66 	rsbseq	r6, r4, r6, ror #26
    19ec:	00817d01 	addeq	r7, r1, r1, lsl #26
    19f0:	0a9c0000 	beq	fe7019f8 <__bss_end__+0xfe6f2e80>
    19f4:	db0d0000 	blle	3419fc <__bss_end__+0x332e84>
    19f8:	01000005 	tsteq	r0, r5
    19fc:	0000ae7d 	andeq	sl, r0, sp, ror lr
    1a00:	000ad000 	andeq	sp, sl, r0
    1a04:	00701000 	rsbseq	r1, r0, r0
    1a08:	00747e01 	rsbseq	r7, r4, r1, lsl #28
    1a0c:	0ae30000 	beq	ff8c1a14 <__bss_end__+0xff8b2e9c>
    1a10:	65100000 	ldrvs	r0, [r0, #-0]
    1a14:	747e0100 	ldrbtvc	r0, [lr], #-256	; 0x100
    1a18:	61000000 	mrsvs	r0, (UNDEF: 0)
    1a1c:	1100000b 	tstne	r0, fp
    1a20:	000001af 	andeq	r0, r0, pc, lsr #3
    1a24:	00000635 	andeq	r0, r0, r5, lsr r6
    1a28:	a3780305 	cmnge	r8, #335544320	; 0x14000000
    1a2c:	901e0000 	andsls	r0, lr, r0
    1a30:	10000000 	andne	r0, r0, r0
    1a34:	8b010073 	blhi	41c08 <__bss_end__+0x33090>
    1a38:	00000074 	andeq	r0, r0, r4, ror r0
    1a3c:	00000b88 	andeq	r0, r0, r8, lsl #23
    1a40:	6d756e0f 	ldclvs	14, cr6, [r5, #-60]!	; 0xffffffc4
    1a44:	3a8b0100 	bcc	fe2c1e4c <__bss_end__+0xfe2b32d4>
    1a48:	03000006 	movweq	r0, #6
    1a4c:	137ed891 	cmnne	lr, #9502720	; 0x910000
    1a50:	00000684 	andeq	r0, r0, r4, lsl #13
    1a54:	002c8c01 	eoreq	r8, ip, r1, lsl #24
    1a58:	0bdd0000 	bleq	ff741a60 <__bss_end__+0xff732ee8>
    1a5c:	f8150000 			; <UNDEFINED> instruction: 0xf8150000
    1a60:	b900008c 	stmdblt	r0, {r2, r3, r7}
    1a64:	7b000000 	blvc	1a6c <_start-0x6594>
    1a68:	16000004 	strne	r0, [r0], -r4
    1a6c:	75025001 	strvc	r5, [r2, #-1]
    1a70:	0c140000 	ldceq	0, cr0, [r4], {-0}
    1a74:	6000008d 	andvs	r0, r0, sp, lsl #1
    1a78:	15000006 	strne	r0, [r0, #-6]
    1a7c:	00008d20 	andeq	r8, r0, r0, lsr #26
    1a80:	00000667 	andeq	r0, r0, r7, ror #12
    1a84:	000004b3 			; <UNDEFINED> instruction: 0x000004b3
    1a88:	02530116 	subseq	r0, r3, #-2147483643	; 0x80000005
    1a8c:	01169208 	tsteq	r6, r8, lsl #4
    1a90:	78030552 	stmdavc	r3, {r1, r4, r6, r8, sl}
    1a94:	160000a3 	strne	r0, [r0], -r3, lsr #1
    1a98:	03055101 	movweq	r5, #20737	; 0x5101
    1a9c:	0000a398 	muleq	r0, r8, r3
    1aa0:	05500116 	ldrbeq	r0, [r0, #-278]	; 0x116
    1aa4:	00a3e803 	adceq	lr, r3, r3, lsl #16
    1aa8:	24140000 	ldrcs	r0, [r4], #-0
    1aac:	7d00008d 	stcvc	0, cr0, [r0, #-564]	; 0xfffffdcc
    1ab0:	14000006 	strne	r0, [r0], #-6
    1ab4:	00008d94 	muleq	r0, r4, sp
    1ab8:	00000660 	andeq	r0, r0, r0, ror #12
    1abc:	008da815 	addeq	sl, sp, r5, lsl r8
    1ac0:	00066700 	andeq	r6, r6, r0, lsl #14
    1ac4:	0004f400 	andeq	pc, r4, r0, lsl #8
    1ac8:	53011600 	movwpl	r1, #5632	; 0x1600
    1acc:	16980802 	ldrne	r0, [r8], r2, lsl #16
    1ad0:	03055201 	movweq	r5, #20993	; 0x5201
    1ad4:	0000a378 	andeq	sl, r0, r8, ror r3
    1ad8:	05510116 	ldrbeq	r0, [r1, #-278]	; 0x116
    1adc:	00a39803 	adceq	r9, r3, r3, lsl #16
    1ae0:	50011600 	andpl	r1, r1, r0, lsl #12
    1ae4:	a4040305 	strge	r0, [r4], #-773	; 0x305
    1ae8:	14000000 	strne	r0, [r0], #-0
    1aec:	00008dac 	andeq	r8, r0, ip, lsr #27
    1af0:	0000067d 	andeq	r0, r0, sp, ror r6
    1af4:	008dd015 	addeq	sp, sp, r5, lsl r0
    1af8:	00019c00 	andeq	r9, r1, r0, lsl #24
    1afc:	00052a00 	andeq	r2, r5, r0, lsl #20
    1b00:	52011600 	andpl	r1, r1, #0, 12
    1b04:	16800802 	strne	r0, [r0], r2, lsl #16
    1b08:	91035101 	tstls	r3, r1, lsl #2
    1b0c:	01167ed0 			; <UNDEFINED> instruction: 0x01167ed0
    1b10:	163a0150 			; <UNDEFINED> instruction: 0x163a0150
    1b14:	01047d02 	tsteq	r4, r2, lsl #26
    1b18:	7d021631 	stcvc	6, cr1, [r2, #-196]	; 0xffffff3c
    1b1c:	00770200 	rsbseq	r0, r7, r0, lsl #4
    1b20:	8df41500 	cfldr64hi	mvdx1, [r4]
    1b24:	019c0000 	orrseq	r0, ip, r0
    1b28:	05580000 	ldrbeq	r0, [r8, #-0]
    1b2c:	01160000 	tsteq	r6, r0
    1b30:	80080252 	andhi	r0, r8, r2, asr r2
    1b34:	03510116 	cmpeq	r1, #-2147483643	; 0x80000005
    1b38:	167ed091 			; <UNDEFINED> instruction: 0x167ed091
    1b3c:	3a015001 	bcc	55b48 <__bss_end__+0x46fd0>
    1b40:	047d0216 	ldrbteq	r0, [sp], #-534	; 0x216
    1b44:	16007b02 	strne	r7, [r0], -r2, lsl #22
    1b48:	02007d02 	andeq	r7, r0, #2, 26	; 0x80
    1b4c:	15000077 	strne	r0, [r0, #-119]	; 0x77
    1b50:	00008e18 	andeq	r8, r0, r8, lsl lr
    1b54:	0000019c 	muleq	r0, ip, r1
    1b58:	00000586 	andeq	r0, r0, r6, lsl #11
    1b5c:	02520116 	subseq	r0, r2, #-2147483643	; 0x80000005
    1b60:	01168008 	tsteq	r6, r8
    1b64:	d0910351 	addsle	r0, r1, r1, asr r3
    1b68:	5001167e 	andpl	r1, r1, lr, ror r6
    1b6c:	02164001 	andseq	r4, r6, #1
    1b70:	7b02047d 	blvc	82d6c <__bss_end__+0x741f4>
    1b74:	7d021600 	stcvc	6, cr1, [r2, #-0]
    1b78:	00770200 	rsbseq	r0, r7, r0, lsl #4
    1b7c:	8e3c1500 	cfabs32hi	mvfx1, mvfx12
    1b80:	019c0000 	orrseq	r0, ip, r0
    1b84:	05b40000 	ldreq	r0, [r4, #0]!
    1b88:	01160000 	tsteq	r6, r0
    1b8c:	80080252 	andhi	r0, r8, r2, asr r2
    1b90:	03510116 	cmpeq	r1, #-2147483643	; 0x80000005
    1b94:	167ed091 			; <UNDEFINED> instruction: 0x167ed091
    1b98:	32015001 	andcc	r5, r1, #1
    1b9c:	047d0216 	ldrbteq	r0, [sp], #-534	; 0x216
    1ba0:	16007b02 	strne	r7, [r0], -r2, lsl #22
    1ba4:	02007d02 	andeq	r7, r0, #2, 26	; 0x80
    1ba8:	15000077 	strne	r0, [r0, #-119]	; 0x77
    1bac:	00008e6c 	andeq	r8, r0, ip, ror #28
    1bb0:	0000019c 	muleq	r0, ip, r1
    1bb4:	000005e2 	andeq	r0, r0, r2, ror #11
    1bb8:	02520116 	subseq	r0, r2, #-2147483643	; 0x80000005
    1bbc:	01168008 	tsteq	r6, r8
    1bc0:	d0910351 	addsle	r0, r1, r1, asr r3
    1bc4:	5001167e 	andpl	r1, r1, lr, ror r6
    1bc8:	02163801 	andseq	r3, r6, #65536	; 0x10000
    1bcc:	7b02047d 	blvc	82dc8 <__bss_end__+0x74250>
    1bd0:	7d021600 	stcvc	6, cr1, [r2, #-0]
    1bd4:	00770200 	rsbseq	r0, r7, r0, lsl #4
    1bd8:	8e741400 	cdphi	4, 7, cr1, cr4, cr0, {0}
    1bdc:	06600000 	strbteq	r0, [r0], -r0
    1be0:	90150000 	andsls	r0, r5, r0
    1be4:	6700008e 	strvs	r0, [r0, -lr, lsl #1]
    1be8:	1a000006 	bne	1c08 <_start-0x63f8>
    1bec:	16000006 	strne	r0, [r0], -r6
    1bf0:	08025301 	stmdaeq	r2, {r0, r8, r9, ip, lr}
    1bf4:	520116b9 	andpl	r1, r1, #193986560	; 0xb900000
    1bf8:	a3780305 	cmnge	r8, #335544320	; 0x14000000
    1bfc:	01160000 	tsteq	r6, r0
    1c00:	98030551 	stmdals	r3, {r0, r4, r6, r8, sl}
    1c04:	160000a3 	strne	r0, [r0], -r3, lsr #1
    1c08:	03055001 	movweq	r5, #20481	; 0x5001
    1c0c:	0000a42c 	andeq	sl, r0, ip, lsr #8
    1c10:	8e941400 	cdphi	4, 9, cr1, cr4, cr0, {0}
    1c14:	067d0000 	ldrbteq	r0, [sp], -r0
    1c18:	00000000 	andeq	r0, r0, r0
    1c1c:	00007a18 	andeq	r7, r0, r8, lsl sl
    1c20:	00063500 	andeq	r3, r6, r0, lsl #10
    1c24:	006b1900 	rsbeq	r1, fp, r0, lsl #18
    1c28:	00090000 	andeq	r0, r9, r0
    1c2c:	00062506 	andeq	r2, r6, r6, lsl #10
    1c30:	007a1800 	rsbseq	r1, sl, r0, lsl #16
    1c34:	064a0000 	strbeq	r0, [sl], -r0
    1c38:	6b190000 	blvs	641c40 <__bss_end__+0x6330c8>
    1c3c:	7f000000 	svcvc	0x00000000
    1c40:	05f61f00 	ldrbeq	r1, [r6, #3840]!	; 0xf00
    1c44:	1d030000 	stcne	0, cr0, [r3, #-0]
    1c48:	0000038b 	andeq	r0, r0, fp, lsl #7
    1c4c:	0006331f 	andeq	r3, r6, pc, lsl r3
    1c50:	a0220300 	eorge	r0, r2, r0, lsl #6
    1c54:	20000003 	andcs	r0, r0, r3
    1c58:	000001a0 	andeq	r0, r0, r0, lsr #3
    1c5c:	ca211e03 	bgt	849470 <__bss_end__+0x83a8f8>
    1c60:	03000005 	movweq	r0, #5
    1c64:	00002529 	andeq	r2, r0, r9, lsr #10
    1c68:	00067d00 	andeq	r7, r6, r0, lsl #26
    1c6c:	00811c00 	addeq	r1, r1, r0, lsl #24
    1c70:	00220000 	eoreq	r0, r2, r0
    1c74:	00021720 	andeq	r1, r2, r0, lsr #14
    1c78:	00660300 	rsbeq	r0, r6, r0, lsl #6
    1c7c:	000000ff 	strdeq	r0, [r0], -pc	; <UNPREDICTABLE>
    1c80:	08c80004 	stmiaeq	r8, {r2}^
    1c84:	01040000 	mrseq	r0, (UNDEF: 4)
    1c88:	00000361 	andeq	r0, r0, r1, ror #6
    1c8c:	0006a201 	andeq	sl, r6, r1, lsl #4
    1c90:	00056600 	andeq	r6, r5, r0, lsl #12
    1c94:	008efc00 	addeq	pc, lr, r0, lsl #24
    1c98:	00002800 	andeq	r2, r0, r0, lsl #16
    1c9c:	00095700 	andeq	r5, r9, r0, lsl #14
    1ca0:	05040200 	streq	r0, [r4, #-512]	; 0x200
    1ca4:	00746e69 	rsbseq	r6, r4, r9, ror #28
    1ca8:	64070403 	strvs	r0, [r7], #-1027	; 0x403
    1cac:	03000000 	movweq	r0, #0
    1cb0:	02ab0601 	adceq	r0, fp, #1048576	; 0x100000
    1cb4:	02030000 	andeq	r0, r3, #0
    1cb8:	0002bf05 	andeq	fp, r2, r5, lsl #30
    1cbc:	05040300 	streq	r0, [r4, #-768]	; 0x300
    1cc0:	000000a9 	andeq	r0, r0, r9, lsr #1
    1cc4:	a4050803 	strge	r0, [r5], #-2051	; 0x803
    1cc8:	03000000 	movweq	r0, #0
    1ccc:	02a90801 	adceq	r0, r9, #65536	; 0x10000
    1cd0:	02030000 	andeq	r0, r3, #0
    1cd4:	0001c507 	andeq	ip, r1, r7, lsl #10
    1cd8:	07040300 	streq	r0, [r4, -r0, lsl #6]
    1cdc:	0000005f 	andeq	r0, r0, pc, asr r0
    1ce0:	5a070803 	bpl	1c3cf4 <__bss_end__+0x1b517c>
    1ce4:	03000000 	movweq	r0, #0
    1ce8:	02290704 	eoreq	r0, r9, #4, 14	; 0x100000
    1cec:	01030000 	mrseq	r0, (UNDEF: 3)
    1cf0:	0002b208 	andeq	fp, r2, r8, lsl #4
    1cf4:	7f040400 	svcvc	0x00040400
    1cf8:	05000000 	streq	r0, [r0, #-0]
    1cfc:	00000072 	andeq	r0, r0, r2, ror r0
    1d00:	00021706 	andeq	r1, r2, r6, lsl #14
    1d04:	fc040100 	stc2	1, cr0, [r4], {-0}
    1d08:	2800008e 	stmdacs	r0, {r1, r2, r3, r7}
    1d0c:	01000000 	mrseq	r0, (UNDEF: 0)
    1d10:	0000ca9c 	muleq	r0, ip, sl
    1d14:	8f100700 	svchi	0x00100700
    1d18:	00ac0000 	adceq	r0, ip, r0
    1d1c:	01080000 	mrseq	r0, (UNDEF: 8)
    1d20:	64030550 	strvs	r0, [r3], #-1360	; 0x550
    1d24:	000000a4 	andeq	r0, r0, r4, lsr #1
    1d28:	008f1809 	addeq	r1, pc, r9, lsl #16
    1d2c:	0000ea00 	andeq	lr, r0, r0, lsl #20
    1d30:	0000c000 	andeq	ip, r0, r0
    1d34:	50010800 	andpl	r0, r1, r0, lsl #16
    1d38:	00640802 	rsbeq	r0, r4, r2, lsl #16
    1d3c:	008f1c0a 	addeq	r1, pc, sl, lsl #24
    1d40:	0000fb00 	andeq	pc, r0, r0, lsl #22
    1d44:	250b0000 	strcs	r0, [fp, #-0]
    1d48:	d9000000 	stmdble	r0, {}	; <UNPREDICTABLE>
    1d4c:	0c000000 	stceq	0, cr0, [r0], {-0}
    1d50:	00000079 	andeq	r0, r0, r9, ror r0
    1d54:	06330d00 	ldrteq	r0, [r3], -r0, lsl #26
    1d58:	22020000 	andcs	r0, r2, #0
    1d5c:	000000e4 	andeq	r0, r0, r4, ror #1
    1d60:	00ca0404 	sbceq	r0, sl, r4, lsl #8
    1d64:	bc0e0000 	stclt	0, cr0, [lr], {-0}
    1d68:	02000006 	andeq	r0, r0, #6
    1d6c:	0000fb50 	andeq	pc, r0, r0, asr fp	; <UNPREDICTABLE>
    1d70:	002c0c00 	eoreq	r0, ip, r0, lsl #24
    1d74:	0f000000 	svceq	0x00000000
    1d78:	00000697 	muleq	r0, r7, r6
    1d7c:	e9006302 	stmdb	r0, {r1, r8, r9, sp, lr}
    1d80:	04000002 	streq	r0, [r0], #-2
    1d84:	00099200 	andeq	r9, r9, r0, lsl #4
    1d88:	61010400 	tstvs	r1, r0, lsl #8
    1d8c:	01000003 	tsteq	r0, r3
    1d90:	00000775 	andeq	r0, r0, r5, ror r7
    1d94:	00000566 	andeq	r0, r0, r6, ror #10
    1d98:	00008f24 	andeq	r8, r0, r4, lsr #30
    1d9c:	000000b0 	strheq	r0, [r0], -r0	; <UNPREDICTABLE>
    1da0:	000009ee 	andeq	r0, r0, lr, ror #19
    1da4:	69050402 	stmdbvs	r5, {r1, sl}
    1da8:	0300746e 	movweq	r7, #1134	; 0x46e
    1dac:	00640704 	rsbeq	r0, r4, r4, lsl #14
    1db0:	01030000 	mrseq	r0, (UNDEF: 3)
    1db4:	0002ab06 	andeq	sl, r2, r6, lsl #22
    1db8:	05020300 	streq	r0, [r2, #-768]	; 0x300
    1dbc:	000002bf 			; <UNDEFINED> instruction: 0x000002bf
    1dc0:	a9050403 	stmdbge	r5, {r0, r1, sl}
    1dc4:	03000000 	movweq	r0, #0
    1dc8:	00a40508 	adceq	r0, r4, r8, lsl #10
    1dcc:	52040000 	andpl	r0, r4, #0
    1dd0:	02000004 	andeq	r0, r0, #4
    1dd4:	00005a2e 	andeq	r5, r0, lr, lsr #20
    1dd8:	08010300 	stmdaeq	r1, {r8, r9}
    1ddc:	000002a9 	andeq	r0, r0, r9, lsr #5
    1de0:	c5070203 	strgt	r0, [r7, #-515]	; 0x203
    1de4:	04000001 	streq	r0, [r0], #-1
    1de8:	00000353 	andeq	r0, r0, r3, asr r3
    1dec:	00733402 	rsbseq	r3, r3, r2, lsl #8
    1df0:	04030000 	streq	r0, [r3], #-0
    1df4:	00005f07 	andeq	r5, r0, r7, lsl #30
    1df8:	07080300 	streq	r0, [r8, -r0, lsl #6]
    1dfc:	0000005a 	andeq	r0, r0, sl, asr r0
    1e00:	29070403 	stmdbcs	r7, {r0, r1, sl}
    1e04:	03000002 	movweq	r0, #2
    1e08:	02b20801 	adcseq	r0, r2, #65536	; 0x10000
    1e0c:	04050000 	streq	r0, [r5], #-0
    1e10:	00000095 	muleq	r0, r5, r0
    1e14:	00008806 	andeq	r8, r0, r6, lsl #16
    1e18:	030c0700 	movweq	r0, #50944	; 0xc700
    1e1c:	0000d10e 	andeq	sp, r0, lr, lsl #2
    1e20:	78740800 	ldmdavc	r4!, {fp}^
    1e24:	4f0f0300 	svcmi	0x000f0300
    1e28:	00000000 	andeq	r0, r0, r0
    1e2c:	00787208 	rsbseq	r7, r8, r8, lsl #4
    1e30:	004f0f03 	subeq	r0, pc, r3, lsl #30
    1e34:	09010000 	stmdbeq	r1, {}	; <UNPREDICTABLE>
    1e38:	0000035c 	andeq	r0, r0, ip, asr r3
    1e3c:	00681003 	rsbeq	r1, r8, r3
    1e40:	09040000 	stmdbeq	r4, {}	; <UNPREDICTABLE>
    1e44:	000004f9 	strdeq	r0, [r0], -r9
    1e48:	00681103 	rsbeq	r1, r8, r3, lsl #2
    1e4c:	00080000 	andeq	r0, r8, r0
    1e50:	00029f04 	andeq	r9, r2, r4, lsl #30
    1e54:	9a120300 	bls	482a5c <__bss_end__+0x473ee4>
    1e58:	0a000000 	beq	1e60 <_start-0x61a0>
    1e5c:	f7100401 			; <UNDEFINED> instruction: 0xf7100401
    1e60:	0b000000 	bleq	1e68 <_start-0x6198>
    1e64:	00000726 	andeq	r0, r0, r6, lsr #14
    1e68:	07190b01 	ldreq	r0, [r9, -r1, lsl #22]
    1e6c:	0b020000 	bleq	81e74 <__bss_end__+0x732fc>
    1e70:	0000070b 	andeq	r0, r0, fp, lsl #14
    1e74:	3b040003 	blcc	101e88 <__bss_end__+0xf3310>
    1e78:	04000007 	streq	r0, [r0], #-7
    1e7c:	0000dc10 	andeq	sp, r0, r0, lsl ip
    1e80:	04140700 	ldreq	r0, [r4], #-1792	; 0x700
    1e84:	00012f14 	andeq	r2, r1, r4, lsl pc
    1e88:	07950900 	ldreq	r0, [r5, r0, lsl #18]
    1e8c:	15040000 	strne	r0, [r4, #-0]
    1e90:	0000002c 	andeq	r0, r0, ip, lsr #32
    1e94:	07890900 	streq	r0, [r9, r0, lsl #18]
    1e98:	18040000 	stmdane	r4, {}	; <UNPREDICTABLE>
    1e9c:	000000f7 	strdeq	r0, [r0], -r7
    1ea0:	07540904 	ldrbeq	r0, [r4, -r4, lsl #18]
    1ea4:	1b040000 	blne	101eac <__bss_end__+0xf3334>
    1ea8:	000000d1 	ldrdeq	r0, [r0], -r1
    1eac:	46040008 	strmi	r0, [r4], -r8
    1eb0:	04000007 	streq	r0, [r0], #-7
    1eb4:	00010220 	andeq	r0, r1, r0, lsr #4
    1eb8:	06c50c00 	strbeq	r0, [r5], r0, lsl #24
    1ebc:	06010000 	streq	r0, [r1], -r0
    1ec0:	00000025 	andeq	r0, r0, r5, lsr #32
    1ec4:	00008f24 	andeq	r8, r0, r4, lsr #30
    1ec8:	00000020 	andeq	r0, r0, r0, lsr #32
    1ecc:	017a9c01 	cmneq	sl, r1, lsl #24
    1ed0:	630d0000 	movwvs	r0, #53248	; 0xd000
    1ed4:	25060100 	strcs	r0, [r6, #-256]	; 0x100
    1ed8:	07000000 	streq	r0, [r0, -r0]
    1edc:	0e00000c 	cdpeq	0, 0, cr0, cr0, cr12, {0}
    1ee0:	00008f38 	andeq	r8, r0, r8, lsr pc
    1ee4:	00000280 	andeq	r0, r0, r0, lsl #5
    1ee8:	0251010f 	subseq	r0, r1, #-1073741821	; 0xc0000003
    1eec:	010f0074 	tsteq	pc, r4, ror r0	; <UNPREDICTABLE>
    1ef0:	64030550 	strvs	r0, [r3], #-1360	; 0x550
    1ef4:	000000eb 	andeq	r0, r0, fp, ror #1
    1ef8:	07331000 	ldreq	r1, [r3, -r0]!
    1efc:	0b010000 	bleq	41f04 <__bss_end__+0x3338c>
    1f00:	00008f44 	andeq	r8, r0, r4, asr #30
    1f04:	00000090 	muleq	r0, r0, r0
    1f08:	022d9c01 	eoreq	r9, sp, #256	; 0x100
    1f0c:	d9110000 	ldmdble	r1, {}	; <UNPREDICTABLE>
    1f10:	01000006 	tsteq	r0, r6
    1f14:	0000250c 	andeq	r2, r0, ip, lsl #10
    1f18:	07691100 	strbeq	r1, [r9, -r0, lsl #2]!
    1f1c:	0c010000 	stceq	0, cr0, [r1], {-0}
    1f20:	00000025 	andeq	r0, r0, r5, lsr #32
    1f24:	00002712 	andeq	r2, r0, r2, lsl r7
    1f28:	b20d0100 	andlt	r0, sp, #0, 2
    1f2c:	13000001 	movwne	r0, #1
    1f30:	73621400 	cmnvc	r2, #0, 8
    1f34:	0f010073 	svceq	0x00010073
    1f38:	0000022d 	andeq	r0, r0, sp, lsr #4
    1f3c:	00000c25 	andeq	r0, r0, r5, lsr #24
    1f40:	0006e715 	andeq	lr, r6, r5, lsl r7
    1f44:	2d100100 	ldfcss	f0, [r0, #-0]
    1f48:	14000002 	strne	r0, [r0], #-2
    1f4c:	01006263 	tsteq	r0, r3, ror #4
    1f50:	00023317 	andeq	r3, r2, r7, lsl r3
    1f54:	000c4500 	andeq	r4, ip, r0, lsl #10
    1f58:	8f6c1600 	svchi	0x006c1600
    1f5c:	029c0000 	addseq	r0, ip, #0
    1f60:	a8170000 	ldmdage	r7, {}	; <UNPREDICTABLE>
    1f64:	a700008f 	strge	r0, [r0, -pc, lsl #1]
    1f68:	03000002 	movweq	r0, #2
    1f6c:	0f000002 	svceq	0x00000002
    1f70:	03055101 	movweq	r5, #20737	; 0x5101
    1f74:	0000a470 	andeq	sl, r0, r0, ror r4
    1f78:	0550010f 	ldrbeq	r0, [r0, #-271]	; 0x10f
    1f7c:	00eb6403 	rsceq	r6, fp, r3, lsl #8
    1f80:	b0170000 	andslt	r0, r7, r0
    1f84:	c200008f 	andgt	r0, r0, #143	; 0x8f
    1f88:	1a000002 	bne	1f98 <_start-0x6068>
    1f8c:	0f000002 	svceq	0x00000002
    1f90:	03055001 	movweq	r5, #20481	; 0x5001
    1f94:	0000a494 	muleq	r0, r4, r4
    1f98:	8fb41600 	svchi	0x00b41600
    1f9c:	02d80000 	sbcseq	r0, r8, #0
    1fa0:	b8160000 	ldmdalt	r6, {}	; <UNPREDICTABLE>
    1fa4:	e500008f 	str	r0, [r0, #-143]	; 0x8f
    1fa8:	00000002 	andeq	r0, r0, r2
    1fac:	00250405 	eoreq	r0, r5, r5, lsl #8
    1fb0:	04050000 	streq	r0, [r5], #-0
    1fb4:	0000012f 	andeq	r0, r0, pc, lsr #2
    1fb8:	0006ef18 	andeq	lr, r6, r8, lsl pc
    1fbc:	d1050100 	mrsle	r0, (UNDEF: 21)
    1fc0:	05000000 	streq	r0, [r0, #-0]
    1fc4:	00eb6403 	rsceq	r6, fp, r3, lsl #8
    1fc8:	00251900 	eoreq	r1, r5, r0, lsl #18
    1fcc:	02590000 	subseq	r0, r9, #0
    1fd0:	251a0000 	ldrcs	r0, [sl, #-0]
    1fd4:	00000000 	andeq	r0, r0, r0
    1fd8:	0005f611 	andeq	pc, r5, r1, lsl r6	; <UNPREDICTABLE>
    1fdc:	641d0500 	ldrvs	r0, [sp], #-1280	; 0x500
    1fe0:	05000002 	streq	r0, [r0, #-2]
    1fe4:	00024a04 	andeq	r4, r2, r4, lsl #20
    1fe8:	06d91100 	ldrbeq	r1, [r9], r0, lsl #2
    1fec:	0c010000 	stceq	0, cr0, [r1], {-0}
    1ff0:	00000025 	andeq	r0, r0, r5, lsr #32
    1ff4:	00076911 	andeq	r6, r7, r1, lsl r9
    1ff8:	250c0100 	strcs	r0, [ip, #-256]	; 0x100
    1ffc:	1b000000 	blne	2004 <_start-0x5ffc>
    2000:	000001e6 	andeq	r0, r0, r6, ror #3
    2004:	02964403 	addseq	r4, r6, #50331648	; 0x3000000
    2008:	961a0000 	ldrls	r0, [sl], -r0
    200c:	1a000002 	bne	201c <_start-0x5fe4>
    2010:	0000005a 	andeq	r0, r0, sl, asr r0
    2014:	d1040500 	tstle	r4, r0, lsl #10
    2018:	1c000000 	stcne	0, cr0, [r0], {-0}
    201c:	0000075c 	andeq	r0, r0, ip, asr r7
    2020:	02332a04 	eorseq	r2, r3, #4, 20	; 0x4000
    2024:	fc1d0000 	ldc2	0, cr0, [sp], {-0}
    2028:	03000006 	movweq	r0, #6
    202c:	00002515 	andeq	r2, r0, r5, lsl r5
    2030:	0002c200 	andeq	ip, r2, r0, lsl #4
    2034:	02961a00 	addseq	r1, r6, #0, 20
    2038:	8f1a0000 	svchi	0x001a0000
    203c:	13000000 	movwne	r0, #0
    2040:	05ca1d00 	strbeq	r1, [sl, #3328]	; 0xd00
    2044:	29050000 	stmdbcs	r5, {}	; <UNPREDICTABLE>
    2048:	00000025 	andeq	r0, r0, r5, lsr #32
    204c:	000002d8 	ldrdeq	r0, [r0], -r8
    2050:	00008f1a 	andeq	r8, r0, sl, lsl pc
    2054:	12001300 	andne	r1, r0, #0, 6
    2058:	00000027 	andeq	r0, r0, r7, lsr #32
    205c:	02e50d01 	rsceq	r0, r5, #1, 26	; 0x40
    2060:	00130000 	andseq	r0, r3, r0
    2064:	0006971e 	andeq	r9, r6, lr, lsl r7
    2068:	00630500 	rsbeq	r0, r3, r0, lsl #10
    206c:	000001ad 	andeq	r0, r0, sp, lsr #3
    2070:	0b3a0004 	bleq	e82088 <__bss_end__+0xe73510>
    2074:	01040000 	mrseq	r0, (UNDEF: 4)
    2078:	00000361 	andeq	r0, r0, r1, ror #6
    207c:	0007b501 	andeq	fp, r7, r1, lsl #10
    2080:	00056600 	andeq	r6, r5, r0, lsl #12
    2084:	0000a800 	andeq	sl, r0, r0, lsl #16
    2088:	00000000 	andeq	r0, r0, r0
    208c:	000b1300 	andeq	r1, fp, r0, lsl #6
    2090:	05040200 	streq	r0, [r4, #-512]	; 0x200
    2094:	00746e69 	rsbseq	r6, r4, r9, ror #28
    2098:	64070403 	strvs	r0, [r7], #-1027	; 0x403
    209c:	03000000 	movweq	r0, #0
    20a0:	02ab0601 	adceq	r0, fp, #1048576	; 0x100000
    20a4:	02030000 	andeq	r0, r3, #0
    20a8:	0002bf05 	andeq	fp, r2, r5, lsl #30
    20ac:	05040300 	streq	r0, [r4, #-768]	; 0x300
    20b0:	000000a9 	andeq	r0, r0, r9, lsr #1
    20b4:	a4050803 	strge	r0, [r5], #-2051	; 0x803
    20b8:	03000000 	movweq	r0, #0
    20bc:	02a90801 	adceq	r0, r9, #65536	; 0x10000
    20c0:	02030000 	andeq	r0, r3, #0
    20c4:	0001c507 	andeq	ip, r1, r7, lsl #10
    20c8:	07040300 	streq	r0, [r4, -r0, lsl #6]
    20cc:	0000005f 	andeq	r0, r0, pc, asr r0
    20d0:	5a070803 	bpl	1c40e4 <__bss_end__+0x1b556c>
    20d4:	03000000 	movweq	r0, #0
    20d8:	02290704 	eoreq	r0, r9, #4, 14	; 0x100000
    20dc:	01030000 	mrseq	r0, (UNDEF: 3)
    20e0:	0002b208 	andeq	fp, r2, r8, lsl #4
    20e4:	079b0400 	ldreq	r0, [fp, r0, lsl #8]
    20e8:	0e010000 	cdpeq	0, 0, cr0, cr1, cr0, {0}
    20ec:	00000025 	andeq	r0, r0, r5, lsr #32
    20f0:	00008fd4 	ldrdeq	r8, [r0], -r4
    20f4:	00000018 	andeq	r0, r0, r8, lsl r0
    20f8:	00a29c01 	adceq	r9, r2, r1, lsl #24
    20fc:	07050000 	streq	r0, [r5, -r0]
    2100:	01000008 	tsteq	r0, r8
    2104:	00002c0f 	andeq	r2, r0, pc, lsl #24
    2108:	000c6500 	andeq	r6, ip, r0, lsl #10
    210c:	ea060000 	b	182114 <__bss_end__+0x17359c>
    2110:	01000007 	tsteq	r0, r7
    2114:	008fec17 	addeq	lr, pc, r7, lsl ip	; <UNPREDICTABLE>
    2118:	00001400 	andeq	r1, r0, r0, lsl #8
    211c:	c79c0100 	ldrgt	r0, [ip, r0, lsl #2]
    2120:	05000000 	streq	r0, [r0, #-0]
    2124:	00000807 	andeq	r0, r0, r7, lsl #16
    2128:	002c1801 	eoreq	r1, ip, r1, lsl #16
    212c:	0c840000 	stceq	0, cr0, [r4], {0}
    2130:	06000000 	streq	r0, [r0], -r0
    2134:	00000697 	muleq	r0, r7, r6
    2138:	90001f01 	andls	r1, r0, r1, lsl #30
    213c:	00480000 	subeq	r0, r8, r0
    2140:	9c010000 	stcls	0, cr0, [r1], {-0}
    2144:	00000177 	andeq	r0, r0, r7, ror r1
    2148:	0007ff07 	andeq	pc, r7, r7, lsl #30
    214c:	772a0100 	strvc	r0, [sl, -r0, lsl #2]!
    2150:	1c000001 	stcne	0, cr0, [r0], {1}
    2154:	07201000 	streq	r1, [r0, -r0]!
    2158:	000007e2 	andeq	r0, r0, r2, ror #15
    215c:	01772b01 	cmneq	r7, r1, lsl #22
    2160:	00240000 	eoreq	r0, r4, r0
    2164:	a9072010 	stmdbge	r7, {r4, sp}
    2168:	01000007 	tsteq	r0, r7
    216c:	0001772c 	andeq	r7, r1, ip, lsr #14
    2170:	00000000 	andeq	r0, r0, r0
    2174:	07c9085a 			; <UNDEFINED> instruction: 0x07c9085a
    2178:	2d010000 	stccs	0, cr0, [r1, #-0]
    217c:	00000177 	andeq	r0, r0, r7, ror r1
    2180:	90080920 	andls	r0, r8, r0, lsr #18
    2184:	00790000 	rsbseq	r0, r9, r0
    2188:	14090000 	strne	r0, [r9], #-0
    218c:	a2000090 	andge	r0, r0, #144	; 0x90
    2190:	0a000000 	beq	2198 <_start-0x5e68>
    2194:	0000901c 	andeq	r9, r0, ip, lsl r0
    2198:	0000018d 	andeq	r0, r0, sp, lsl #3
    219c:	0000013a 	andeq	r0, r0, sl, lsr r1
    21a0:	0150010b 	cmpeq	r0, fp, lsl #2
    21a4:	280a004e 	stmdacs	sl, {r1, r2, r3, r6}
    21a8:	9e000090 	mcrls	0, 0, r0, cr0, cr0, {4}
    21ac:	5a000001 	bpl	21b8 <_start-0x5e48>
    21b0:	0b000001 	bleq	21bc <_start-0x5e44>
    21b4:	0c055101 	stfeqs	f5, [r5], {1}
    21b8:	5a000001 	bpl	21c4 <_start-0x5e3c>
    21bc:	0550010b 	ldrbeq	r0, [r0, #-267]	; 0x10b
    21c0:	1000240c 	andne	r2, r0, ip, lsl #8
    21c4:	340c0020 	strcc	r0, [ip], #-32
    21c8:	9e000090 	mcrls	0, 0, r0, cr0, cr0, {4}
    21cc:	0b000001 	bleq	21d8 <_start-0x5e28>
    21d0:	0c055101 	stfeqs	f5, [r5], {1}
    21d4:	5a000020 	bpl	225c <_start-0x5da4>
    21d8:	0550010b 	ldrbeq	r0, [r0, #-267]	; 0x10b
    21dc:	10001c0c 	andne	r1, r0, ip, lsl #24
    21e0:	0d000020 	stceq	0, cr0, [r0, #-128]	; 0xffffff80
    21e4:	00000025 	andeq	r0, r0, r5, lsr #32
    21e8:	00079e08 	andeq	r9, r7, r8, lsl #28
    21ec:	880d0100 	stmdahi	sp, {r8}
    21f0:	10000001 	andne	r0, r0, r1
    21f4:	00002c0d 	andeq	r2, r0, sp, lsl #24
    21f8:	06bc0e00 	ldrteq	r0, [ip], r0, lsl #28
    21fc:	50020000 	andpl	r0, r2, r0
    2200:	0000019e 	muleq	r0, lr, r1
    2204:	00002c0f 	andeq	r2, r0, pc, lsl #24
    2208:	f9100000 			; <UNDEFINED> instruction: 0xf9100000
    220c:	02000007 	andeq	r0, r0, #7
    2210:	002c0f99 	mlaeq	ip, r9, pc, r0	; <UNPREDICTABLE>
    2214:	2c0f0000 	stccs	0, cr0, [pc], {-0}
    2218:	00000000 	andeq	r0, r0, r0
    221c:	0001d800 	andeq	sp, r1, r0, lsl #16
    2220:	28000400 	stmdacs	r0, {sl}
    2224:	0400000c 	streq	r0, [r0], #-12
    2228:	00036101 	andeq	r6, r3, r1, lsl #2
    222c:	08290100 	stmdaeq	r9!, {r8}
    2230:	05660000 	strbeq	r0, [r6, #-0]!
    2234:	90480000 	subls	r0, r8, r0
    2238:	00880000 	addeq	r0, r8, r0
    223c:	0bb00000 	bleq	fec02244 <__bss_end__+0xfebf36cc>
    2240:	04020000 	streq	r0, [r2], #-0
    2244:	746e6905 	strbtvc	r6, [lr], #-2309	; 0x905
    2248:	07040300 	streq	r0, [r4, -r0, lsl #6]
    224c:	00000064 	andeq	r0, r0, r4, rrx
    2250:	ab060103 	blge	182664 <__bss_end__+0x173aec>
    2254:	03000002 	movweq	r0, #2
    2258:	02bf0502 	adcseq	r0, pc, #8388608	; 0x800000
    225c:	04030000 	streq	r0, [r3], #-0
    2260:	0000a905 	andeq	sl, r0, r5, lsl #18
    2264:	05080300 	streq	r0, [r8, #-768]	; 0x300
    2268:	000000a4 	andeq	r0, r0, r4, lsr #1
    226c:	a9080103 	stmdbge	r8, {r0, r1, r8}
    2270:	03000002 	movweq	r0, #2
    2274:	01c50702 	biceq	r0, r5, r2, lsl #14
    2278:	04030000 	streq	r0, [r3], #-0
    227c:	00005f07 	andeq	r5, r0, r7, lsl #30
    2280:	07080300 	streq	r0, [r8, -r0, lsl #6]
    2284:	0000005a 	andeq	r0, r0, sl, asr r0
    2288:	29070403 	stmdbcs	r7, {r0, r1, sl}
    228c:	03000002 	movweq	r0, #2
    2290:	02b20801 	adcseq	r0, r2, #65536	; 0x10000
    2294:	48040000 	stmdami	r4, {}	; <UNPREDICTABLE>
    2298:	01000008 	tsteq	r0, r8
    229c:	00904805 	addseq	r4, r0, r5, lsl #16
    22a0:	00001c00 	andeq	r1, r0, r0, lsl #24
    22a4:	9e9c0100 	fmllse	f0, f4, f0
    22a8:	05000000 	streq	r0, [r0, #-0]
    22ac:	00000842 	andeq	r0, r0, r2, asr #16
    22b0:	002c0501 	eoreq	r0, ip, r1, lsl #10
    22b4:	0cae0000 	stceq	0, cr0, [lr]
    22b8:	06000000 	streq	r0, [r0], -r0
    22bc:	0000080c 	andeq	r0, r0, ip, lsl #16
    22c0:	002c0b01 	eoreq	r0, ip, r1, lsl #22
    22c4:	90640000 	rsbls	r0, r4, r0
    22c8:	00140000 	andseq	r0, r4, r0
    22cc:	9c010000 	stcls	0, cr0, [r1], {-0}
    22d0:	000000cb 	andeq	r0, r0, fp, asr #1
    22d4:	00907007 	addseq	r7, r0, r7
    22d8:	0001ca00 	andeq	ip, r1, r0, lsl #20
    22dc:	50010800 	andpl	r0, r1, r0, lsl #16
    22e0:	30040c05 	andcc	r0, r4, r5, lsl #24
    22e4:	00002000 	andeq	r2, r0, r0
    22e8:	00085e06 	andeq	r5, r8, r6, lsl #28
    22ec:	2c100100 	ldfcss	f0, [r0], {-0}
    22f0:	78000000 	stmdavc	r0, {}	; <UNPREDICTABLE>
    22f4:	0c000090 	stceq	0, cr0, [r0], {144}	; 0x90
    22f8:	01000000 	mrseq	r0, (UNDEF: 0)
    22fc:	0000f99c 	muleq	r0, ip, r9
    2300:	00750900 	rsbseq	r0, r5, r0, lsl #18
    2304:	002c1401 	eoreq	r1, ip, r1, lsl #8
    2308:	50010000 	andpl	r0, r1, r0
    230c:	0090800a 	addseq	r8, r0, sl
    2310:	00009e00 	andeq	r9, r0, r0, lsl #28
    2314:	55040000 	strpl	r0, [r4, #-0]
    2318:	01000008 	tsteq	r0, r8
    231c:	00908419 	addseq	r8, r0, r9, lsl r4
    2320:	00002400 	andeq	r2, r0, r0, lsl #8
    2324:	579c0100 	ldrpl	r0, [ip, r0, lsl #2]
    2328:	0b000001 	bleq	2334 <_start-0x5ccc>
    232c:	01007375 	tsteq	r0, r5, ror r3
    2330:	00002c19 	andeq	r2, r0, r9, lsl ip
    2334:	000ce200 	andeq	lr, ip, r0, lsl #4
    2338:	62720900 	rsbsvs	r0, r2, #0, 18
    233c:	2c1a0100 	ldfcss	f0, [sl], {-0}
    2340:	01000000 	mrseq	r0, (UNDEF: 0)
    2344:	90940c54 	addsls	r0, r4, r4, asr ip
    2348:	00100000 	andseq	r0, r0, r0
    234c:	014d0000 	mrseq	r0, (UNDEF: 77)
    2350:	720d0000 	andvc	r0, sp, #0
    2354:	1c010061 	stcne	0, cr0, [r1], {97}	; 0x61
    2358:	0000002c 	andeq	r0, r0, ip, lsr #32
    235c:	00000d00 	andeq	r0, r0, r0, lsl #26
    2360:	0090980a 	addseq	r9, r0, sl, lsl #16
    2364:	0000cb00 	andeq	ip, r0, r0, lsl #22
    2368:	900a0000 	andls	r0, sl, r0
    236c:	cb000090 	blgt	25b4 <_start-0x5a4c>
    2370:	00000000 	andeq	r0, r0, r0
    2374:	0006bc04 	andeq	fp, r6, r4, lsl #24
    2378:	a8220100 	stmdage	r2!, {r8}
    237c:	14000090 	strne	r0, [r0], #-144	; 0x90
    2380:	01000000 	mrseq	r0, (UNDEF: 0)
    2384:	0001909c 	muleq	r1, ip, r0
    2388:	736d0b00 	cmnvc	sp, #0, 22
    238c:	2c220100 	stfcss	f0, [r2], #-0
    2390:	13000000 	movwne	r0, #0
    2394:	0700000d 	streq	r0, [r0, -sp]
    2398:	000090b8 	strheq	r9, [r0], -r8
    239c:	000000f9 	strdeq	r0, [r0], -r9
    23a0:	07500108 	ldrbeq	r0, [r0, -r8, lsl #2]
    23a4:	0a5001f3 	beq	1402b78 <__bss_end__+0x13f4000>
    23a8:	001e03e8 	andseq	r0, lr, r8, ror #7
    23ac:	081f0400 	ldmdaeq	pc, {sl}	; <UNPREDICTABLE>
    23b0:	25010000 	strcs	r0, [r1, #-0]
    23b4:	000090bc 	strheq	r9, [r0], -ip
    23b8:	00000014 	andeq	r0, r0, r4, lsl r0
    23bc:	01ca9c01 	biceq	r9, sl, r1, lsl #24
    23c0:	730b0000 	movwvc	r0, #45056	; 0xb000
    23c4:	01006365 	tsteq	r0, r5, ror #6
    23c8:	00002c25 	andeq	r2, r0, r5, lsr #24
    23cc:	000d3400 	andeq	r3, sp, r0, lsl #8
    23d0:	90cc0700 	sbcls	r0, ip, r0, lsl #14
    23d4:	01570000 	cmpeq	r7, r0
    23d8:	01080000 	mrseq	r0, (UNDEF: 8)
    23dc:	01f30750 	mvnseq	r0, r0, asr r7
    23e0:	03e80a50 	mvneq	r0, #80, 20	; 0x50000
    23e4:	0e00001e 	mcreq	0, 0, r0, cr0, cr14, {0}
    23e8:	0000083c 	andeq	r0, r0, ip, lsr r8
    23ec:	002ca502 	eoreq	sl, ip, r2, lsl #10
    23f0:	2c0f0000 	stccs	0, cr0, [pc], {-0}
    23f4:	00000000 	andeq	r0, r0, r0
    23f8:	0008cf00 	andeq	ip, r8, r0, lsl #30
    23fc:	0b000400 	bleq	3404 <_start-0x4bfc>
    2400:	0400000d 	streq	r0, [r0], #-13
    2404:	00036101 	andeq	r6, r3, r1, lsl #2
    2408:	08b70100 	ldmeq	r7!, {r8}
    240c:	05660000 	strbeq	r0, [r6, #-0]!
    2410:	90d00000 	sbcsls	r0, r0, r0
    2414:	05bc0000 	ldreq	r0, [ip, #0]!
    2418:	0c570000 	mraeq	r0, r7, acc0
    241c:	08020000 	stmdaeq	r2, {}	; <UNPREDICTABLE>
    2420:	00005a07 	andeq	r5, r0, r7, lsl #20
    2424:	07040200 	streq	r0, [r4, -r0, lsl #4]
    2428:	00000064 	andeq	r0, r0, r4, rrx
    242c:	ab060102 	blge	18283c <__bss_end__+0x173cc4>
    2430:	02000002 	andeq	r0, r0, #2
    2434:	02bf0502 	adcseq	r0, pc, #8388608	; 0x800000
    2438:	04020000 	streq	r0, [r2], #-0
    243c:	0000a905 	andeq	sl, r0, r5, lsl #18
    2440:	05080200 	streq	r0, [r8, #-512]	; 0x200
    2444:	000000a4 	andeq	r0, r0, r4, lsr #1
    2448:	a9080102 	stmdbge	r8, {r1, r8}
    244c:	02000002 	andeq	r0, r0, #2
    2450:	01c50702 	biceq	r0, r5, r2, lsl #14
    2454:	04020000 	streq	r0, [r2], #-0
    2458:	00005f07 	andeq	r5, r0, r7, lsl #30
    245c:	05040300 	streq	r0, [r4, #-768]	; 0x300
    2460:	00746e69 	rsbseq	r6, r4, r9, ror #28
    2464:	29070402 	stmdbcs	r7, {r1, sl}
    2468:	02000002 	andeq	r0, r0, #2
    246c:	02b20801 	adcseq	r0, r2, #65536	; 0x10000
    2470:	01040000 	mrseq	r0, (UNDEF: 4)
    2474:	00b20c02 	adcseq	r0, r2, r2, lsl #24
    2478:	7f050000 	svcvc	0x00050000
    247c:	00000000 	andeq	r0, r0, r0
    2480:	00044105 	andeq	r4, r4, r5, lsl #2
    2484:	92050100 	andls	r0, r5, #0, 2
    2488:	04000004 	streq	r0, [r0], #-4
    248c:	0004a105 	andeq	sl, r4, r5, lsl #2
    2490:	b0050500 	andlt	r0, r5, r0, lsl #10
    2494:	06000004 	streq	r0, [r0], -r4
    2498:	0004bf05 	andeq	fp, r4, r5, lsl #30
    249c:	ce050700 	cdpgt	7, 0, cr0, cr5, cr0, {0}
    24a0:	03000004 	movweq	r0, #4
    24a4:	0004dd05 	andeq	sp, r4, r5, lsl #26
    24a8:	06000200 	streq	r0, [r0], -r0, lsl #4
    24ac:	00000474 	andeq	r0, r0, r4, ror r4
    24b0:	00791502 	rsbseq	r1, r9, r2, lsl #10
    24b4:	e9070000 	stmdb	r7, {}	; <UNPREDICTABLE>
    24b8:	01000009 	tsteq	r0, r9
    24bc:	0090d03f 	addseq	sp, r0, pc, lsr r0
    24c0:	0000d400 	andeq	sp, r0, r0, lsl #8
    24c4:	339c0100 	orrscc	r0, ip, #0, 2
    24c8:	08000001 	stmdaeq	r0, {r0}
    24cc:	006e6970 	rsbeq	r6, lr, r0, ror r9
    24d0:	002c3f01 	eoreq	r3, ip, r1, lsl #30
    24d4:	0d550000 	ldcleq	0, cr0, [r5, #-0]
    24d8:	f3090000 	vhadd.u8	d0, d9, d0
    24dc:	01000008 	tsteq	r0, r8
    24e0:	00013347 	andeq	r3, r1, r7, asr #6
    24e4:	000d7300 	andeq	r7, sp, r0, lsl #6
    24e8:	0a0f0900 	beq	3c48f0 <__bss_end__+0x3b5d78>
    24ec:	49010000 	stmdbmi	r1, {}	; <UNPREDICTABLE>
    24f0:	0000002c 	andeq	r0, r0, ip, lsr #32
    24f4:	00000dc8 	andeq	r0, r0, r8, asr #27
    24f8:	00099009 	andeq	r9, r9, r9
    24fc:	2c570100 	ldfcse	f0, [r7], {-0}
    2500:	94000000 	strls	r0, [r0], #-0
    2504:	0a00000f 	beq	2548 <_start-0x5ab8>
    2508:	00009164 	andeq	r9, r0, r4, ror #2
    250c:	0000088e 	andeq	r0, r0, lr, lsl #17
    2510:	00000122 	andeq	r0, r0, r2, lsr #2
    2514:	0250010b 	subseq	r0, r0, #-1073741822	; 0xc0000002
    2518:	0c000075 	stceq	0, cr0, [r0], {117}	; 0x75
    251c:	00009198 	muleq	r0, r8, r1
    2520:	000008af 	andeq	r0, r0, pc, lsr #17
    2524:	0250010b 	subseq	r0, r0, #-1073741822	; 0xc0000002
    2528:	00000075 	andeq	r0, r0, r5, ror r0
    252c:	0139040d 	teqeq	r9, sp, lsl #8
    2530:	2c0e0000 	stccs	0, cr0, [lr], {-0}
    2534:	0f000000 	svceq	0x00000000
    2538:	000009cf 	andeq	r0, r0, pc, asr #19
    253c:	6c036001 	stcvs	0, cr6, [r3], {1}
    2540:	10000001 	andne	r0, r0, r1
    2544:	006e6970 	rsbeq	r6, lr, r0, ror r9
    2548:	002c6001 	eoreq	r6, ip, r1
    254c:	f3110000 	vhadd.u16	d0, d1, d0
    2550:	01000008 	tsteq	r0, r8
    2554:	00013367 	andeq	r3, r1, r7, ror #6
    2558:	09901100 	ldmibeq	r0, {r8, ip}
    255c:	68010000 	stmdavs	r1, {}	; <UNPREDICTABLE>
    2560:	0000002c 	andeq	r0, r0, ip, lsr #32
    2564:	013e1200 	teqeq	lr, r0, lsl #4
    2568:	91a40000 			; <UNDEFINED> instruction: 0x91a40000
    256c:	00380000 	eorseq	r0, r8, r0
    2570:	9c010000 	stcls	0, cr0, [r1], {-0}
    2574:	000001b0 			; <UNDEFINED> instruction: 0x000001b0
    2578:	00014a13 	andeq	r4, r1, r3, lsl sl
    257c:	000fc400 	andeq	ip, pc, r0, lsl #8
    2580:	01551400 	cmpeq	r5, r0, lsl #8
    2584:	0fe50000 	svceq	0x00e50000
    2588:	60140000 	andsvs	r0, r4, r0
    258c:	1b000001 	blne	2598 <_start-0x5a68>
    2590:	0c000010 	stceq	0, cr0, [r0], {16}
    2594:	000091d4 	ldrdeq	r9, [r0], -r4
    2598:	000008af 	andeq	r0, r0, pc, lsr #17
    259c:	0751010b 	ldrbeq	r0, [r1, -fp, lsl #2]
    25a0:	5001f331 	andpl	pc, r1, r1, lsr r3	; <UNPREDICTABLE>
    25a4:	00241a4f 	eoreq	r1, r4, pc, asr #20
    25a8:	08aa0f00 	stmiaeq	sl!, {r8, r9, sl, fp}
    25ac:	7b010000 	blvc	425b4 <__bss_end__+0x33a3c>
    25b0:	0001de03 	andeq	sp, r1, r3, lsl #28
    25b4:	69701000 	ldmdbvs	r0!, {ip}^
    25b8:	7b01006e 	blvc	42778 <__bss_end__+0x33c00>
    25bc:	0000002c 	andeq	r0, r0, ip, lsr #32
    25c0:	0008f311 	andeq	pc, r8, r1, lsl r3	; <UNPREDICTABLE>
    25c4:	33810100 	orrcc	r0, r1, #0, 2
    25c8:	11000001 	tstne	r0, r1
    25cc:	00000990 	muleq	r0, r0, r9
    25d0:	002c8201 	eoreq	r8, ip, r1, lsl #4
    25d4:	12000000 	andne	r0, r0, #0
    25d8:	000001b0 			; <UNDEFINED> instruction: 0x000001b0
    25dc:	000091dc 	ldrdeq	r9, [r0], -ip
    25e0:	00000038 	andeq	r0, r0, r8, lsr r0
    25e4:	02229c01 	eoreq	r9, r2, #256	; 0x100
    25e8:	bc130000 	ldclt	0, cr0, [r3], {-0}
    25ec:	5b000001 	blpl	25f8 <_start-0x5a08>
    25f0:	14000010 	strne	r0, [r0], #-16
    25f4:	000001c7 	andeq	r0, r0, r7, asr #3
    25f8:	0000107c 	andeq	r1, r0, ip, ror r0
    25fc:	0001d214 	andeq	sp, r1, r4, lsl r2
    2600:	0010b200 	andseq	fp, r0, r0, lsl #4
    2604:	920c0c00 	andls	r0, ip, #0, 24
    2608:	08af0000 	stmiaeq	pc!, {}	; <UNPREDICTABLE>
    260c:	010b0000 	mrseq	r0, (UNDEF: 11)
    2610:	f3310751 	vaba.u<illegal width 64>	q0, <illegal reg q0.5>, <illegal reg q0.5>
    2614:	1a4f5001 	bne	13d6620 <__bss_end__+0x13c7aa8>
    2618:	07000024 	streq	r0, [r0, -r4, lsr #32]
    261c:	000009b2 			; <UNDEFINED> instruction: 0x000009b2
    2620:	92149501 	andsls	r9, r4, #4194304	; 0x400000
    2624:	00cc0000 	sbceq	r0, ip, r0
    2628:	9c010000 	stcls	0, cr0, [r1], {-0}
    262c:	00000298 	muleq	r0, r8, r2
    2630:	6e697008 	cdpvs	0, 6, cr7, cr9, cr8, {0}
    2634:	2c950100 	ldfcss	f0, [r5], {0}
    2638:	f2000000 	vhadd.s8	d0, d0, d0
    263c:	09000010 	stmdbeq	r0, {r4}
    2640:	000008f3 	strdeq	r0, [r0], -r3
    2644:	01339b01 	teqeq	r3, r1, lsl #22
    2648:	11100000 	tstne	r0, r0
    264c:	0f090000 	svceq	0x00090000
    2650:	0100000a 	tsteq	r0, sl
    2654:	00002c9d 	muleq	r0, sp, ip
    2658:	00116500 	andseq	r6, r1, r0, lsl #10
    265c:	09900900 	ldmibeq	r0, {r8, fp}
    2660:	ab010000 	blge	42668 <__bss_end__+0x33af0>
    2664:	0000002c 	andeq	r0, r0, ip, lsr #32
    2668:	00001331 	andeq	r1, r0, r1, lsr r3
    266c:	0092a80a 	addseq	sl, r2, sl, lsl #16
    2670:	00088e00 	andeq	r8, r8, r0, lsl #28
    2674:	00028700 	andeq	r8, r2, r0, lsl #14
    2678:	50010b00 	andpl	r0, r1, r0, lsl #22
    267c:	00007502 	andeq	r7, r0, r2, lsl #10
    2680:	0092d40c 	addseq	sp, r2, ip, lsl #8
    2684:	0008af00 	andeq	sl, r8, r0, lsl #30
    2688:	50010b00 	andpl	r0, r1, r0, lsl #22
    268c:	00007502 	andeq	r7, r0, r2, lsl #10
    2690:	09361500 	ldmdbeq	r6!, {r8, sl, ip}
    2694:	b3010000 	movwlt	r0, #4096	; 0x1000
    2698:	00000064 	andeq	r0, r0, r4, rrx
    269c:	000092e0 	andeq	r9, r0, r0, ror #5
    26a0:	0000004c 	andeq	r0, r0, ip, asr #32
    26a4:	02e09c01 	rsceq	r9, r0, #256	; 0x100
    26a8:	70080000 	andvc	r0, r8, r0
    26ac:	01006e69 	tsteq	r0, r9, ror #28
    26b0:	00002cb3 			; <UNDEFINED> instruction: 0x00002cb3
    26b4:	00134f00 	andseq	r4, r3, r0, lsl #30
    26b8:	00761600 	rsbseq	r1, r6, r0, lsl #12
    26bc:	002cb901 	eoreq	fp, ip, r1, lsl #18
    26c0:	13a70000 			; <UNDEFINED> instruction: 0x13a70000
    26c4:	00170000 	andseq	r0, r7, r0
    26c8:	8e000093 	mcrhi	0, 0, r0, cr0, cr3, {4}
    26cc:	17000008 	strne	r0, [r0, -r8]
    26d0:	00009310 	andeq	r9, r0, r0, lsl r3
    26d4:	0000088e 	andeq	r0, r0, lr, lsl #17
    26d8:	09980700 	ldmibeq	r8, {r8, r9, sl}
    26dc:	c5010000 	strgt	r0, [r1, #-0]
    26e0:	0000932c 	andeq	r9, r0, ip, lsr #6
    26e4:	00000078 	andeq	r0, r0, r8, ror r0
    26e8:	03aa9c01 			; <UNDEFINED> instruction: 0x03aa9c01
    26ec:	70080000 	andvc	r0, r8, r0
    26f0:	01006e69 	tsteq	r0, r9, ror #28
    26f4:	00002cc5 	andeq	r2, r0, r5, asr #25
    26f8:	0013dd00 	andseq	sp, r3, r0, lsl #26
    26fc:	00760800 	rsbseq	r0, r6, r0, lsl #16
    2700:	002cc501 	eoreq	ip, ip, r1, lsl #10
    2704:	14170000 	ldrne	r0, [r7], #-0
    2708:	3e180000 	cdpcc	0, 1, cr0, cr8, cr0, {0}
    270c:	40000001 	andmi	r0, r0, r1
    2710:	30000093 	mulcc	r0, r3, r0
    2714:	01000000 	mrseq	r0, (UNDEF: 0)
    2718:	00035fcc 	andeq	r5, r3, ip, asr #31
    271c:	014a1300 	mrseq	r1, (UNDEF: 122)
    2720:	14510000 	ldrbne	r0, [r1], #-0
    2724:	40190000 	andsmi	r0, r9, r0
    2728:	30000093 	mulcc	r0, r3, r0
    272c:	14000000 	strne	r0, [r0], #-0
    2730:	00000155 	andeq	r0, r0, r5, asr r1
    2734:	00001472 	andeq	r1, r0, r2, ror r4
    2738:	00016014 	andeq	r6, r1, r4, lsl r0
    273c:	0014a800 	andseq	sl, r4, r0, lsl #16
    2740:	936c0c00 	cmnls	ip, #0, 24
    2744:	08af0000 	stmiaeq	pc!, {}	; <UNPREDICTABLE>
    2748:	010b0000 	mrseq	r0, (UNDEF: 11)
    274c:	f3310751 	vaba.u<illegal width 64>	q0, <illegal reg q0.5>, <illegal reg q0.5>
    2750:	1a4f5001 	bne	13d675c <__bss_end__+0x13c7be4>
    2754:	00000024 	andeq	r0, r0, r4, lsr #32
    2758:	0001b01a 	andeq	fp, r1, sl, lsl r0
    275c:	00937000 	addseq	r7, r3, r0
    2760:	00003400 	andeq	r3, r0, r0, lsl #8
    2764:	13ce0100 	bicne	r0, lr, #0, 2
    2768:	000001bc 			; <UNDEFINED> instruction: 0x000001bc
    276c:	000014e8 	andeq	r1, r0, r8, ror #9
    2770:	00937019 	addseq	r7, r3, r9, lsl r0
    2774:	00003400 	andeq	r3, r0, r0, lsl #8
    2778:	01c71400 	biceq	r1, r7, r0, lsl #8
    277c:	15090000 	strne	r0, [r9, #-0]
    2780:	d2140000 	andsle	r0, r4, #0
    2784:	3f000001 	svccc	0x00000001
    2788:	0c000015 	stceq	0, cr0, [r0], {21}
    278c:	0000939c 	muleq	r0, ip, r3
    2790:	000008af 	andeq	r0, r0, pc, lsr #17
    2794:	0751010b 	ldrbeq	r0, [r1, -fp, lsl #2]
    2798:	5001f331 	andpl	pc, r1, r1, lsr r3	; <UNPREDICTABLE>
    279c:	00241a4f 	eoreq	r1, r4, pc, asr #20
    27a0:	07000000 	streq	r0, [r0, -r0]
    27a4:	00000232 	andeq	r0, r0, r2, lsr r2
    27a8:	93a4d101 			; <UNDEFINED> instruction: 0x93a4d101
    27ac:	00d80000 	sbcseq	r0, r8, r0
    27b0:	9c010000 	stcls	0, cr0, [r1], {-0}
    27b4:	0000042f 	andeq	r0, r0, pc, lsr #8
    27b8:	6e697008 	cdpvs	0, 6, cr7, cr9, cr8, {0}
    27bc:	2cd10100 	ldfcse	f0, [r1], {0}
    27c0:	7f000000 	svcvc	0x00000000
    27c4:	1b000015 	blne	2820 <_start-0x57e0>
    27c8:	000009ad 	andeq	r0, r0, sp, lsr #19
    27cc:	00b2d101 	adcseq	sp, r2, r1, lsl #2
    27d0:	159d0000 	ldrne	r0, [sp]
    27d4:	f3090000 	vhadd.u8	d0, d9, d0
    27d8:	01000008 	tsteq	r0, r8
    27dc:	000133d9 	ldrdeq	r3, [r1], -r9
    27e0:	0015be00 	andseq	fp, r5, r0, lsl #28
    27e4:	0a0f0900 	beq	3c4bec <__bss_end__+0x3b6074>
    27e8:	da010000 	ble	427f0 <__bss_end__+0x33c78>
    27ec:	0000002c 	andeq	r0, r0, ip, lsr #32
    27f0:	00001613 	andeq	r1, r0, r3, lsl r6
    27f4:	00099009 	andeq	r9, r9, r9
    27f8:	2ce80100 	stfcse	f0, [r8]
    27fc:	df000000 	svcle	0x00000000
    2800:	0a000017 	beq	2864 <_start-0x579c>
    2804:	00009440 	andeq	r9, r0, r0, asr #8
    2808:	0000088e 	andeq	r0, r0, lr, lsl #17
    280c:	0000041e 	andeq	r0, r0, lr, lsl r4
    2810:	0250010b 	subseq	r0, r0, #-1073741822	; 0xc0000002
    2814:	0c000076 	stceq	0, cr0, [r0], {118}	; 0x76
    2818:	00009470 	andeq	r9, r0, r0, ror r4
    281c:	000008af 	andeq	r0, r0, pc, lsr #17
    2820:	0250010b 	subseq	r0, r0, #-1073741822	; 0xc0000002
    2824:	00000076 	andeq	r0, r0, r6, ror r0
    2828:	00089e1c 	andeq	r9, r8, ip, lsl lr
    282c:	01050100 	mrseq	r0, (UNDEF: 21)
    2830:	00000064 	andeq	r0, r0, r4, rrx
    2834:	0000947c 	andeq	r9, r0, ip, ror r4
    2838:	0000002c 	andeq	r0, r0, ip, lsr #32
    283c:	04639c01 	strbteq	r9, [r3], #-3073	; 0xc01
    2840:	a11d0000 	tstge	sp, r0
    2844:	01000008 	tsteq	r0, r8
    2848:	002c0105 	eoreq	r0, ip, r5, lsl #2
    284c:	18100000 	ldmdane	r0, {}	; <UNPREDICTABLE>
    2850:	8c170000 	ldchi	0, cr0, [r7], {-0}
    2854:	8e000094 	mcrhi	0, 0, r0, cr0, cr4, {4}
    2858:	00000008 	andeq	r0, r0, r8
    285c:	0009401e 	andeq	r4, r9, lr, lsl r0
    2860:	01140100 	tsteq	r4, r0, lsl #2
    2864:	000094a8 	andeq	r9, r0, r8, lsr #9
    2868:	00000084 	andeq	r0, r0, r4, lsl #1
    286c:	05279c01 	streq	r9, [r7, #-3073]!	; 0xc01
    2870:	701f0000 	andsvc	r0, pc, r0
    2874:	01006e69 	tsteq	r0, r9, ror #28
    2878:	002c0114 	eoreq	r0, ip, r4, lsl r1
    287c:	18310000 	ldmdane	r1!, {}	; <UNPREDICTABLE>
    2880:	c5200000 	strgt	r0, [r0, #-0]!
    2884:	01000008 	tsteq	r0, r8
    2888:	002c0126 	eoreq	r0, ip, r6, lsr #2
    288c:	185d0000 	ldmdane	sp, {}^	; <UNPREDICTABLE>
    2890:	c4210000 	strtgt	r0, [r1], #-0
    2894:	1c000094 	stcne	0, cr0, [r0], {148}	; 0x94
    2898:	c9000000 	stmdbgt	r0, {}	; <UNPREDICTABLE>
    289c:	20000004 	andcs	r0, r0, r4
    28a0:	00000990 	muleq	r0, r0, r9
    28a4:	2c011d01 	stccs	13, cr1, [r1], {1}
    28a8:	7b000000 	blvc	28b0 <_start-0x5750>
    28ac:	17000018 	smladne	r0, r8, r0, r0
    28b0:	000094d0 	ldrdeq	r9, [r0], -r0
    28b4:	0000088e 	andeq	r0, r0, lr, lsl #17
    28b8:	0094e017 	addseq	lr, r4, r7, lsl r0
    28bc:	0008af00 	andeq	sl, r8, r0, lsl #30
    28c0:	e4210000 	strt	r0, [r1], #-0
    28c4:	20000094 	mulcs	r0, r4, r0
    28c8:	f9000000 			; <UNDEFINED> instruction: 0xf9000000
    28cc:	20000004 	andcs	r0, r0, r4
    28d0:	00000990 	muleq	r0, r0, r9
    28d4:	2c012101 	stfcss	f2, [r1], {1}
    28d8:	99000000 	stmdbls	r0, {}	; <UNPREDICTABLE>
    28dc:	17000018 	smladne	r0, r8, r0, r0
    28e0:	000094f0 	strdeq	r9, [r0], -r0
    28e4:	0000088e 	andeq	r0, r0, lr, lsl #17
    28e8:	00950417 	addseq	r0, r5, r7, lsl r4
    28ec:	0008af00 	andeq	sl, r8, r0, lsl #30
    28f0:	bc170000 	ldclt	0, cr0, [r7], {-0}
    28f4:	cb000094 	blgt	2b4c <_start-0x54b4>
    28f8:	17000008 	strne	r0, [r0, -r8]
    28fc:	00009508 	andeq	r9, r0, r8, lsl #10
    2900:	000008cb 	andeq	r0, r0, fp, asr #17
    2904:	00951417 	addseq	r1, r5, r7, lsl r4
    2908:	00088e00 	andeq	r8, r8, r0, lsl #28
    290c:	95201700 	strls	r1, [r0, #-1792]!	; 0x700
    2910:	08af0000 	stmiaeq	pc!, {}	; <UNPREDICTABLE>
    2914:	24170000 	ldrcs	r0, [r7], #-0
    2918:	cb000095 	blgt	2b74 <_start-0x548c>
    291c:	00000008 	andeq	r0, r0, r8
    2920:	0009f91e 	andeq	pc, r9, lr, lsl r9	; <UNPREDICTABLE>
    2924:	01310100 	teqeq	r1, r0, lsl #2
    2928:	0000952c 	andeq	r9, r0, ip, lsr #10
    292c:	00000084 	andeq	r0, r0, r4, lsl #1
    2930:	05eb9c01 	strbeq	r9, [fp, #3073]!	; 0xc01
    2934:	701f0000 	andsvc	r0, pc, r0
    2938:	01006e69 	tsteq	r0, r9, ror #28
    293c:	002c0131 	eoreq	r0, ip, r1, lsr r1
    2940:	18b70000 	ldmne	r7!, {}	; <UNPREDICTABLE>
    2944:	c5200000 	strgt	r0, [r0, #-0]!
    2948:	01000008 	tsteq	r0, r8
    294c:	002c0142 	eoreq	r0, ip, r2, asr #2
    2950:	18e30000 	stmiane	r3!, {}^	; <UNPREDICTABLE>
    2954:	48210000 	stmdami	r1!, {}	; <UNPREDICTABLE>
    2958:	1c000095 	stcne	0, cr0, [r0], {149}	; 0x95
    295c:	8d000000 	stchi	0, cr0, [r0, #-0]
    2960:	20000005 	andcs	r0, r0, r5
    2964:	00000990 	muleq	r0, r0, r9
    2968:	2c013901 	stccs	9, cr3, [r1], {1}
    296c:	01000000 	mrseq	r0, (UNDEF: 0)
    2970:	17000019 	smladne	r0, r9, r0, r0
    2974:	00009554 	andeq	r9, r0, r4, asr r5
    2978:	0000088e 	andeq	r0, r0, lr, lsl #17
    297c:	00956417 	addseq	r6, r5, r7, lsl r4
    2980:	0008af00 	andeq	sl, r8, r0, lsl #30
    2984:	68210000 	stmdavs	r1!, {}	; <UNPREDICTABLE>
    2988:	20000095 	mulcs	r0, r5, r0
    298c:	bd000000 	stclt	0, cr0, [r0, #-0]
    2990:	20000005 	andcs	r0, r0, r5
    2994:	00000990 	muleq	r0, r0, r9
    2998:	2c013d01 	stccs	13, cr3, [r1], {1}
    299c:	1f000000 	svcne	0x00000000
    29a0:	17000019 	smladne	r0, r9, r0, r0
    29a4:	00009574 	andeq	r9, r0, r4, ror r5
    29a8:	0000088e 	andeq	r0, r0, lr, lsl #17
    29ac:	00958817 	addseq	r8, r5, r7, lsl r8
    29b0:	0008af00 	andeq	sl, r8, r0, lsl #30
    29b4:	40170000 	andsmi	r0, r7, r0
    29b8:	cb000095 	blgt	2c14 <_start-0x53ec>
    29bc:	17000008 	strne	r0, [r0, -r8]
    29c0:	0000958c 	andeq	r9, r0, ip, lsl #11
    29c4:	000008cb 	andeq	r0, r0, fp, asr #17
    29c8:	00959817 	addseq	r9, r5, r7, lsl r8
    29cc:	00088e00 	andeq	r8, r8, r0, lsl #28
    29d0:	95a41700 	strls	r1, [r4, #1792]!	; 0x700
    29d4:	08af0000 	stmiaeq	pc!, {}	; <UNPREDICTABLE>
    29d8:	a8170000 	ldmdage	r7, {}	; <UNPREDICTABLE>
    29dc:	cb000095 	blgt	2c38 <_start-0x53c8>
    29e0:	00000008 	andeq	r0, r0, r8
    29e4:	00086d1c 	andeq	r6, r8, ip, lsl sp
    29e8:	014c0100 	mrseq	r0, (UNDEF: 92)
    29ec:	00000064 	andeq	r0, r0, r4, rrx
    29f0:	000095b0 			; <UNDEFINED> instruction: 0x000095b0
    29f4:	00000084 	andeq	r0, r0, r4, lsl #1
    29f8:	06919c01 	ldreq	r9, [r1], r1, lsl #24
    29fc:	701f0000 	andsvc	r0, pc, r0
    2a00:	01006e69 	tsteq	r0, r9, ror #28
    2a04:	002c014c 	eoreq	r0, ip, ip, asr #2
    2a08:	193d0000 	ldmdbne	sp!, {}	; <UNPREDICTABLE>
    2a0c:	cc210000 	stcgt	0, cr0, [r1], #-0
    2a10:	24000095 	strcs	r0, [r0], #-149	; 0x95
    2a14:	45000000 	strmi	r0, [r0, #-0]
    2a18:	20000006 	andcs	r0, r0, r6
    2a1c:	000008dc 	ldrdeq	r0, [r0], -ip
    2a20:	2c015301 	stccs	3, cr5, [r1], {1}
    2a24:	7f000000 	svcvc	0x00000000
    2a28:	17000019 	smladne	r0, r9, r0, r0
    2a2c:	000095d8 	ldrdeq	r9, [r0], -r8
    2a30:	0000088e 	andeq	r0, r0, lr, lsl #17
    2a34:	0095e817 	addseq	lr, r5, r7, lsl r8
    2a38:	0008cb00 	andeq	ip, r8, r0, lsl #22
    2a3c:	f0210000 			; <UNDEFINED> instruction: 0xf0210000
    2a40:	2c000095 	stccs	0, cr0, [r0], {149}	; 0x95
    2a44:	7e000000 	cdpvc	0, 0, cr0, cr0, cr0, {0}
    2a48:	20000006 	andcs	r0, r0, r6
    2a4c:	000008dc 	ldrdeq	r0, [r0], -ip
    2a50:	2c015601 	stccs	6, cr5, [r1], {1}
    2a54:	99000000 	stmdbls	r0, {}	; <UNPREDICTABLE>
    2a58:	17000019 	smladne	r0, r9, r0, r0
    2a5c:	000095fc 	strdeq	r9, [r0], -ip
    2a60:	0000088e 	andeq	r0, r0, lr, lsl #17
    2a64:	00960817 	addseq	r0, r6, r7, lsl r8
    2a68:	0008cb00 	andeq	ip, r8, r0, lsl #22
    2a6c:	96141700 	ldrls	r1, [r4], -r0, lsl #14
    2a70:	08cb0000 	stmiaeq	fp, {}^	; <UNPREDICTABLE>
    2a74:	17000000 	strne	r0, [r0, -r0]
    2a78:	000095c4 	andeq	r9, r0, r4, asr #11
    2a7c:	000008cb 	andeq	r0, r0, fp, asr #17
    2a80:	00962017 	addseq	r2, r6, r7, lsl r0
    2a84:	0008cb00 	andeq	ip, r8, r0, lsl #22
    2a88:	631e0000 	tstvs	lr, #0
    2a8c:	01000009 	tsteq	r0, r9
    2a90:	9634015f 			; <UNDEFINED> instruction: 0x9634015f
    2a94:	00580000 	subseq	r0, r8, r0
    2a98:	9c010000 	stcls	0, cr0, [r1], {-0}
    2a9c:	000006f6 	strdeq	r0, [r0], -r6
    2aa0:	6e69701f 	mcrvs	0, 3, r7, cr9, cr15, {0}
    2aa4:	015f0100 	cmpeq	pc, r0, lsl #2
    2aa8:	0000002c 	andeq	r0, r0, ip, lsr #32
    2aac:	000019ac 	andeq	r1, r0, ip, lsr #19
    2ab0:	00964817 	addseq	r4, r6, r7, lsl r8
    2ab4:	0008cb00 	andeq	ip, r8, r0, lsl #22
    2ab8:	96640a00 	strbtls	r0, [r4], -r0, lsl #20
    2abc:	08af0000 	stmiaeq	pc!, {}	; <UNPREDICTABLE>
    2ac0:	06d60000 	ldrbeq	r0, [r6], r0
    2ac4:	010b0000 	mrseq	r0, (UNDEF: 11)
    2ac8:	74310451 	ldrtvc	r0, [r1], #-1105	; 0x451
    2acc:	0a002400 	beq	bad4 <__bss_start__+0x13a4>
    2ad0:	00009680 	andeq	r9, r0, r0, lsl #13
    2ad4:	000008af 	andeq	r0, r0, pc, lsr #17
    2ad8:	000006ec 	andeq	r0, r0, ip, ror #13
    2adc:	0451010b 	ldrbeq	r0, [r1], #-267	; 0x10b
    2ae0:	24007431 	strcs	r7, [r0], #-1073	; 0x431
    2ae4:	96841700 	strls	r1, [r4], r0, lsl #14
    2ae8:	08cb0000 	stmiaeq	fp, {}^	; <UNPREDICTABLE>
    2aec:	22000000 	andcs	r0, r0, #0
    2af0:	00000924 	andeq	r0, r0, r4, lsr #18
    2af4:	01332801 	teqeq	r3, r1, lsl #16
    2af8:	03050000 	movweq	r0, #20480	; 0x5000
    2afc:	0000a1f0 	strdeq	sl, [r0], -r0
    2b00:	0009a322 	andeq	sl, r9, r2, lsr #6
    2b04:	33290100 	teqcc	r9, #0, 2
    2b08:	05000001 	streq	r0, [r0, #-1]
    2b0c:	00a1ec03 	adceq	lr, r1, r3, lsl #24
    2b10:	0a1a2200 	beq	68b318 <__bss_end__+0x67c7a0>
    2b14:	2a010000 	bcs	42b1c <__bss_end__+0x33fa4>
    2b18:	00000133 	andeq	r0, r0, r3, lsr r1
    2b1c:	a1e80305 	mvnge	r0, r5, lsl #6
    2b20:	fc220000 	stc2	0, cr0, [r2], #-0
    2b24:	01000008 	tsteq	r0, r8
    2b28:	0001332c 	andeq	r3, r1, ip, lsr #6
    2b2c:	94030500 	strls	r0, [r3], #-1280	; 0x500
    2b30:	220000a1 	andcs	r0, r0, #161	; 0xa1
    2b34:	00000904 	andeq	r0, r0, r4, lsl #18
    2b38:	01332d01 	teqeq	r3, r1, lsl #26
    2b3c:	03050000 	movweq	r0, #20480	; 0x5000
    2b40:	0000a198 	muleq	r0, r8, r1
    2b44:	00088122 	andeq	r8, r8, r2, lsr #2
    2b48:	332e0100 	teqcc	lr, #0, 2
    2b4c:	05000001 	streq	r0, [r0, #-1]
    2b50:	00a19c03 	adceq	r9, r1, r3, lsl #24
    2b54:	090c2200 	stmdbeq	ip, {r9, sp}
    2b58:	2f010000 	svccs	0x00010000
    2b5c:	00000133 	andeq	r0, r0, r3, lsr r1
    2b60:	a1a00305 	lslge	r0, r5, #6
    2b64:	14220000 	strtne	r0, [r2], #-0
    2b68:	01000009 	tsteq	r0, r9
    2b6c:	00013330 	andeq	r3, r1, r0, lsr r3
    2b70:	a4030500 	strge	r0, [r3], #-1280	; 0x500
    2b74:	220000a1 	andcs	r0, r0, #161	; 0xa1
    2b78:	0000091c 	andeq	r0, r0, ip, lsl r9
    2b7c:	01333101 	teqeq	r3, r1, lsl #2
    2b80:	03050000 	movweq	r0, #20480	; 0x5000
    2b84:	0000a1a8 	andeq	sl, r0, r8, lsr #3
    2b88:	0008ce22 	andeq	ip, r8, r2, lsr #28
    2b8c:	33330100 	teqcc	r3, #0, 2
    2b90:	05000001 	streq	r0, [r0, #-1]
    2b94:	00a1ac03 	adceq	sl, r1, r3, lsl #24
    2b98:	08d52200 	ldmeq	r5, {r9, sp}^
    2b9c:	34010000 	strcc	r0, [r1], #-0
    2ba0:	00000133 	andeq	r0, r0, r3, lsr r1
    2ba4:	a1b00305 	lslsge	r0, r5, #6
    2ba8:	89220000 	stmdbhi	r2!, {}	; <UNPREDICTABLE>
    2bac:	01000008 	tsteq	r0, r8
    2bb0:	00013336 	andeq	r3, r1, r6, lsr r3
    2bb4:	b4030500 	strlt	r0, [r3], #-1280	; 0x500
    2bb8:	220000a1 	andcs	r0, r0, #161	; 0xa1
    2bbc:	0000092f 	andeq	r0, r0, pc, lsr #18
    2bc0:	01333701 	teqeq	r3, r1, lsl #14
    2bc4:	03050000 	movweq	r0, #20480	; 0x5000
    2bc8:	0000a1b8 			; <UNDEFINED> instruction: 0x0000a1b8
    2bcc:	0008e522 	andeq	lr, r8, r2, lsr #10
    2bd0:	33390100 	teqcc	r9, #0, 2
    2bd4:	05000001 	streq	r0, [r0, #-1]
    2bd8:	00a1bc03 	adceq	fp, r1, r3, lsl #24
    2bdc:	08ec2200 	stmiaeq	ip!, {r9, sp}^
    2be0:	3a010000 	bcc	42be8 <__bss_end__+0x34070>
    2be4:	00000133 	andeq	r0, r0, r3, lsr r1
    2be8:	a1c00305 	bicge	r0, r0, r5, lsl #6
    2bec:	74220000 	strtvc	r0, [r2], #-0
    2bf0:	01000009 	tsteq	r0, r9
    2bf4:	000133f0 	strdeq	r3, [r1], -r0
    2bf8:	e4030500 	str	r0, [r3], #-1280	; 0x500
    2bfc:	220000a1 	andcs	r0, r0, #161	; 0xa1
    2c00:	00000982 	andeq	r0, r0, r2, lsl #19
    2c04:	0133f101 	teqeq	r3, r1, lsl #2
    2c08:	03050000 	movweq	r0, #20480	; 0x5000
    2c0c:	0000a1c4 	andeq	sl, r0, r4, asr #3
    2c10:	0009c122 	andeq	ip, r9, r2, lsr #2
    2c14:	33f30100 	mvnscc	r0, #0, 2
    2c18:	05000001 	streq	r0, [r0, #-1]
    2c1c:	00a1dc03 	adceq	sp, r1, r3, lsl #24
    2c20:	09c82200 	stmibeq	r8, {r9, sp}^
    2c24:	f4010000 	vst4.8	{d0-d3}, [r1], r0
    2c28:	00000133 	andeq	r0, r0, r3, lsr r1
    2c2c:	a1e00305 	mvnge	r0, r5, lsl #6
    2c30:	55220000 	strpl	r0, [r2, #-0]!
    2c34:	01000009 	tsteq	r0, r9
    2c38:	000133f6 	strdeq	r3, [r1], -r6
    2c3c:	c8030500 	stmdagt	r3, {r8, sl}
    2c40:	220000a1 	andcs	r0, r0, #161	; 0xa1
    2c44:	0000095c 	andeq	r0, r0, ip, asr r9
    2c48:	0133f701 	teqeq	r3, r1, lsl #14
    2c4c:	03050000 	movweq	r0, #20480	; 0x5000
    2c50:	0000a1cc 	andeq	sl, r0, ip, asr #3
    2c54:	0009db22 	andeq	sp, r9, r2, lsr #22
    2c58:	33f90100 	mvnscc	r0, #0, 2
    2c5c:	05000001 	streq	r0, [r0, #-1]
    2c60:	00a1d403 	adceq	sp, r1, r3, lsl #8
    2c64:	09e22200 	stmibeq	r2!, {r9, sp}^
    2c68:	fa010000 	blx	42c70 <__bss_end__+0x340f8>
    2c6c:	00000133 	andeq	r0, r0, r3, lsr r1
    2c70:	a1d80305 	bicsge	r0, r8, r5, lsl #6
    2c74:	90220000 	eorls	r0, r2, r0
    2c78:	01000008 	tsteq	r0, r8
    2c7c:	000133fc 	strdeq	r3, [r1], -ip
    2c80:	d0030500 	andle	r0, r3, r0, lsl #10
    2c84:	230000a1 	movwcs	r0, #161	; 0xa1
    2c88:	0000045a 	andeq	r0, r0, sl, asr r4
    2c8c:	002c2001 	eoreq	r2, ip, r1
    2c90:	08a30000 	stmiaeq	r3!, {}	; <UNPREDICTABLE>
    2c94:	a3240000 	teqge	r4, #0
    2c98:	00000008 	andeq	r0, r0, r8
    2c9c:	08a9040d 	stmiaeq	r9!, {r0, r2, r3, sl}
    2ca0:	ae250000 	cdpge	0, 2, cr0, cr5, cr0, {0}
    2ca4:	26000008 	strcs	r0, [r0], -r8
    2ca8:	0003c727 	andeq	ip, r3, r7, lsr #14
    2cac:	c51e0100 	ldrgt	r0, [lr, #-256]	; 0x100
    2cb0:	24000008 	strcs	r0, [r0], #-8
    2cb4:	000008c5 	andeq	r0, r0, r5, asr #17
    2cb8:	00002c24 	andeq	r2, r0, r4, lsr #24
    2cbc:	040d0000 	streq	r0, [sp], #-0
    2cc0:	000008ae 	andeq	r0, r0, lr, lsr #17
    2cc4:	00010f28 	andeq	r0, r1, r8, lsr #30
    2cc8:	00870300 	addeq	r0, r7, r0, lsl #6
    2ccc:	000011ca 	andeq	r1, r0, sl, asr #3
    2cd0:	0f4e0004 	svceq	0x004e0004
    2cd4:	01040000 	mrseq	r0, (UNDEF: 4)
    2cd8:	00000361 	andeq	r0, r0, r1, ror #6
    2cdc:	000aa501 	andeq	sl, sl, r1, lsl #10
    2ce0:	00056600 	andeq	r6, r5, r0, lsl #12
    2ce4:	00968c00 	addseq	r8, r6, r0, lsl #24
    2ce8:	00062000 	andeq	r2, r6, r0
    2cec:	000de300 	andeq	lr, sp, r0, lsl #6
    2cf0:	05040200 	streq	r0, [r4, #-512]	; 0x200
    2cf4:	00746e69 	rsbseq	r6, r4, r9, ror #28
    2cf8:	64070403 	strvs	r0, [r7], #-1027	; 0x403
    2cfc:	03000000 	movweq	r0, #0
    2d00:	02ab0601 	adceq	r0, fp, #1048576	; 0x100000
    2d04:	02030000 	andeq	r0, r3, #0
    2d08:	0002bf05 	andeq	fp, r2, r5, lsl #30
    2d0c:	05040300 	streq	r0, [r4, #-768]	; 0x300
    2d10:	000000a9 	andeq	r0, r0, r9, lsr #1
    2d14:	a4050803 	strge	r0, [r5], #-2051	; 0x803
    2d18:	04000000 	streq	r0, [r0], #-0
    2d1c:	00000452 	andeq	r0, r0, r2, asr r4
    2d20:	005a2e03 	subseq	r2, sl, r3, lsl #28
    2d24:	01030000 	mrseq	r0, (UNDEF: 3)
    2d28:	0002a908 	andeq	sl, r2, r8, lsl #18
    2d2c:	07020300 	streq	r0, [r2, -r0, lsl #6]
    2d30:	000001c5 	andeq	r0, r0, r5, asr #3
    2d34:	00035304 	andeq	r5, r3, r4, lsl #6
    2d38:	73340300 	teqvc	r4, #0, 6
    2d3c:	03000000 	movweq	r0, #0
    2d40:	005f0704 	subseq	r0, pc, r4, lsl #14
    2d44:	08030000 	stmdaeq	r3, {}	; <UNPREDICTABLE>
    2d48:	00005a07 	andeq	r5, r0, r7, lsl #20
    2d4c:	07040300 	streq	r0, [r4, -r0, lsl #6]
    2d50:	00000229 	andeq	r0, r0, r9, lsr #4
    2d54:	04060405 	streq	r0, [r6], #-1029	; 0x405
    2d58:	00000090 	muleq	r0, r0, r0
    2d5c:	b2080103 	andlt	r0, r8, #-1073741824	; 0xc0000000
    2d60:	06000002 	streq	r0, [r0], -r2
    2d64:	00009d04 	andeq	r9, r0, r4, lsl #26
    2d68:	00900700 	addseq	r0, r0, r0, lsl #14
    2d6c:	0c080000 	stceq	0, cr0, [r8], {-0}
    2d70:	00d90e04 	sbcseq	r0, r9, r4, lsl #28
    2d74:	74090000 	strvc	r0, [r9], #-0
    2d78:	0f040078 	svceq	0x00040078
    2d7c:	0000004f 	andeq	r0, r0, pc, asr #32
    2d80:	78720900 	ldmdavc	r2!, {r8, fp}^
    2d84:	4f0f0400 	svcmi	0x000f0400
    2d88:	01000000 	mrseq	r0, (UNDEF: 0)
    2d8c:	00035c0a 	andeq	r5, r3, sl, lsl #24
    2d90:	68100400 	ldmdavs	r0, {sl}
    2d94:	04000000 	streq	r0, [r0], #-0
    2d98:	0004f90a 	andeq	pc, r4, sl, lsl #18
    2d9c:	68110400 	ldmdavs	r1, {sl}
    2da0:	08000000 	stmdaeq	r0, {}	; <UNPREDICTABLE>
    2da4:	029f0400 	addseq	r0, pc, #0, 8
    2da8:	12040000 	andne	r0, r4, #0
    2dac:	000000a2 	andeq	r0, r0, r2, lsr #1
    2db0:	0005aa04 	andeq	sl, r5, r4, lsl #20
    2db4:	ef280500 	svc	0x00280500
    2db8:	0b000000 	bleq	2dc0 <_start-0x5240>
    2dbc:	000005d1 	ldrdeq	r0, [r0], -r1
    2dc0:	06000904 	streq	r0, [r0], -r4, lsl #18
    2dc4:	0c000001 	stceq	0, cr0, [r0], {1}
    2dc8:	000005e0 	andeq	r0, r0, r0, ror #11
    2dcc:	00000088 	andeq	r0, r0, r8, lsl #1
    2dd0:	d3040000 	movwle	r0, #16384	; 0x4000
    2dd4:	05000005 	streq	r0, [r0, #-5]
    2dd8:	0000e462 	andeq	lr, r0, r2, ror #8
    2ddc:	0a7d0d00 	beq	1f461e4 <__bss_end__+0x1f3766c>
    2de0:	09020000 	stmdbeq	r2, {}	; <UNPREDICTABLE>
    2de4:	00013f03 	andeq	r3, r1, r3, lsl #30
    2de8:	07350e00 	ldreq	r0, [r5, -r0, lsl #28]!
    2dec:	09020000 	stmdbeq	r2, {}	; <UNPREDICTABLE>
    2df0:	0000002c 	andeq	r0, r0, ip, lsr #32
    2df4:	02006e0f 	andeq	r6, r0, #15, 28	; 0xf0
    2df8:	00002c09 	andeq	r2, r0, r9, lsl #24
    2dfc:	d3111000 	tstle	r1, #0
    2e00:	0200000a 	andeq	r0, r0, #10
    2e04:	00002c0c 	andeq	r2, r0, ip, lsl #24
    2e08:	0d000000 	stceq	0, cr0, [r0, #-0]
    2e0c:	00000a30 	andeq	r0, r0, r0, lsr sl
    2e10:	76031702 	strvc	r1, [r3], -r2, lsl #14
    2e14:	0f000001 	svceq	0x00000001
    2e18:	006e6970 	rsbeq	r6, lr, r0, ror r9
    2e1c:	002c1702 	eoreq	r1, ip, r2, lsl #14
    2e20:	760f0000 	strvc	r0, [pc], -r0
    2e24:	2c170200 	lfmcs	f0, 4, [r7], {-0}
    2e28:	0e000000 	cdpeq	0, 0, cr0, cr0, cr0, {0}
    2e2c:	00000735 	andeq	r0, r0, r5, lsr r7
    2e30:	002c1702 	eoreq	r1, ip, r2, lsl #14
    2e34:	830e0000 	movwhi	r0, #57344	; 0xe000
    2e38:	0200000a 	andeq	r0, r0, #10
    2e3c:	00002c17 	andeq	r2, r0, r7, lsl ip
    2e40:	e6120000 	ldr	r0, [r2], -r0
    2e44:	01000001 	tsteq	r0, r1
    2e48:	00968c09 	addseq	r8, r6, r9, lsl #24
    2e4c:	00015400 	andeq	r5, r1, r0, lsl #8
    2e50:	229c0100 	addscs	r0, ip, #0, 2
    2e54:	13000007 	movwne	r0, #7
    2e58:	000006f7 	strdeq	r0, [r0], -r7
    2e5c:	07220901 	streq	r0, [r2, -r1, lsl #18]!
    2e60:	19d80000 	ldmibne	r8, {}^	; <UNPREDICTABLE>
    2e64:	63140000 	tstvs	r4, #0
    2e68:	5a090100 	bpl	243270 <__bss_end__+0x2346f8>
    2e6c:	f9000000 			; <UNDEFINED> instruction: 0xf9000000
    2e70:	15000019 	strne	r0, [r0, #-25]
    2e74:	01007874 	tsteq	r0, r4, ror r8
    2e78:	0000250b 	andeq	r2, r0, fp, lsl #10
    2e7c:	00760600 	rsbseq	r0, r6, r0, lsl #12
    2e80:	9f1aff08 	svcls	0x001aff08
    2e84:	01006e16 	tsteq	r0, r6, lsl lr
    2e88:	0000680c 	andeq	r6, r0, ip, lsl #16
    2e8c:	001a1a00 	andseq	r1, sl, r0, lsl #20
    2e90:	00751600 	rsbseq	r1, r5, r0, lsl #12
    2e94:	00680d01 	rsbeq	r0, r8, r1, lsl #26
    2e98:	1a2d0000 	bne	b42ea0 <__bss_end__+0xb34328>
    2e9c:	73150000 	tstvc	r5, #0
    2ea0:	680e0100 	stmdavs	lr, {r8}
    2ea4:	01000000 	mrseq	r0, (UNDEF: 0)
    2ea8:	969c1754 			; <UNDEFINED> instruction: 0x969c1754
    2eac:	00040000 	andeq	r0, r4, r0
    2eb0:	01f80000 	mvnseq	r0, r0
    2eb4:	d3180000 	tstle	r8, #0
    2eb8:	0100000a 	tsteq	r0, sl
    2ebc:	00002c0e 	andeq	r2, r0, lr, lsl #24
    2ec0:	00540100 	subseq	r0, r4, r0, lsl #2
    2ec4:	00013f19 	andeq	r3, r1, r9, lsl pc
    2ec8:	0096a000 	addseq	sl, r6, r0
    2ecc:	00001c00 	andeq	r1, r0, r0, lsl #24
    2ed0:	75110100 	ldrvc	r0, [r1, #-256]	; 0x100
    2ed4:	1a000002 	bne	2ee4 <_start-0x511c>
    2ed8:	0000016a 	andeq	r0, r0, sl, ror #2
    2edc:	00001a56 	andeq	r1, r0, r6, asr sl
    2ee0:	00015f1b 	andeq	r5, r1, fp, lsl pc
    2ee4:	1c540100 	ldfnee	f0, [r4], {-0}
    2ee8:	00000156 	andeq	r0, r0, r6, asr r1
    2eec:	014b1b00 	cmpeq	fp, r0, lsl #22
    2ef0:	56010000 	strpl	r0, [r1], -r0
    2ef4:	00011119 	andeq	r1, r1, r9, lsl r1
    2ef8:	0096ac00 	addseq	sl, r6, r0, lsl #24
    2efc:	00001000 	andeq	r1, r0, r0
    2f00:	5f1a0200 	svcpl	0x001a0200
    2f04:	1a000002 	bne	2f14 <_start-0x50ec>
    2f08:	00000128 	andeq	r0, r0, r8, lsr #2
    2f0c:	00001a69 	andeq	r1, r0, r9, ror #20
    2f10:	00011d1b 	andeq	r1, r1, fp, lsl sp
    2f14:	1d540100 	ldfnee	f0, [r4, #-0]
    2f18:	000096ac 	andeq	r9, r0, ip, lsr #13
    2f1c:	00000004 	andeq	r0, r0, r4
    2f20:	0001321e 	andeq	r3, r1, lr, lsl r2
    2f24:	001a7c00 	andseq	r7, sl, r0, lsl #24
    2f28:	1f000000 	svcne	0x00000000
    2f2c:	000096ac 	andeq	r9, r0, ip, lsr #13
    2f30:	00001131 	andeq	r1, r0, r1, lsr r1
    2f34:	01510120 	cmpeq	r1, r0, lsr #2
    2f38:	50012030 	andpl	r2, r1, r0, lsr r0
    2f3c:	00007602 	andeq	r7, r0, r2, lsl #12
    2f40:	013f1900 	teqeq	pc, r0, lsl #18
    2f44:	96c00000 	strbls	r0, [r0], r0
    2f48:	001c0000 	andseq	r0, ip, r0
    2f4c:	13010000 	movwne	r0, #4096	; 0x1000
    2f50:	000002f8 	strdeq	r0, [r0], -r8
    2f54:	00016a1a 	andeq	r6, r1, sl, lsl sl
    2f58:	001a8f00 	andseq	r8, sl, r0, lsl #30
    2f5c:	015f1b00 	cmpeq	pc, r0, lsl #22
    2f60:	54010000 	strpl	r0, [r1], #-0
    2f64:	0001561a 	andeq	r5, r1, sl, lsl r6
    2f68:	001ab100 	andseq	fp, sl, r0, lsl #2
    2f6c:	014b1b00 	cmpeq	fp, r0, lsl #22
    2f70:	56010000 	strpl	r0, [r1], -r0
    2f74:	00011119 	andeq	r1, r1, r9, lsl r1
    2f78:	0096cc00 	addseq	ip, r6, r0, lsl #24
    2f7c:	00001000 	andeq	r1, r0, r0
    2f80:	df1a0200 	svcle	0x001a0200
    2f84:	1a000002 	bne	2f94 <_start-0x506c>
    2f88:	00000128 	andeq	r0, r0, r8, lsr #2
    2f8c:	00001ae2 	andeq	r1, r0, r2, ror #21
    2f90:	00011d1b 	andeq	r1, r1, fp, lsl sp
    2f94:	1d540100 	ldfnee	f0, [r4, #-0]
    2f98:	000096cc 	andeq	r9, r0, ip, asr #13
    2f9c:	00000004 	andeq	r0, r0, r4
    2fa0:	0001321e 	andeq	r3, r1, lr, lsl r2
    2fa4:	001b0400 	andseq	r0, fp, r0, lsl #8
    2fa8:	1f000000 	svcne	0x00000000
    2fac:	000096cc 	andeq	r9, r0, ip, asr #13
    2fb0:	00001131 	andeq	r1, r0, r1, lsr r1
    2fb4:	04510120 	ldrbeq	r0, [r1], #-288	; 0x120
    2fb8:	1a310077 	bne	c4319c <__bss_end__+0xc34624>
    2fbc:	02500120 	subseq	r0, r0, #32, 2
    2fc0:	00000076 	andeq	r0, r0, r6, ror r0
    2fc4:	00013f19 	andeq	r3, r1, r9, lsl pc
    2fc8:	0096e000 	addseq	lr, r6, r0
    2fcc:	00001c00 	andeq	r1, r0, r0, lsl #24
    2fd0:	80150100 	andshi	r0, r5, r0, lsl #2
    2fd4:	1a000003 	bne	2fe8 <_start-0x5018>
    2fd8:	0000016a 	andeq	r0, r0, sl, ror #2
    2fdc:	00001b17 	andeq	r1, r0, r7, lsl fp
    2fe0:	00015f1b 	andeq	r5, r1, fp, lsl pc
    2fe4:	1b540100 	blne	15033ec <__bss_end__+0x14f4874>
    2fe8:	00000156 	andeq	r0, r0, r6, asr r1
    2fec:	32007708 	andcc	r7, r0, #8, 14	; 0x200000
    2ff0:	1aff081a 	bne	fffc5060 <__bss_end__+0xfffb64e8>
    2ff4:	014b1b9f 			; <UNDEFINED> instruction: 0x014b1b9f
    2ff8:	56010000 	strpl	r0, [r1], -r0
    2ffc:	00011119 	andeq	r1, r1, r9, lsl r1
    3000:	0096ec00 	addseq	lr, r6, r0, lsl #24
    3004:	00001000 	andeq	r1, r0, r0
    3008:	671a0200 	ldrvs	r0, [sl, -r0, lsl #4]
    300c:	1a000003 	bne	3020 <_start-0x4fe0>
    3010:	00000128 	andeq	r0, r0, r8, lsr #2
    3014:	00001b3c 	andeq	r1, r0, ip, lsr fp
    3018:	00011d1b 	andeq	r1, r1, fp, lsl sp
    301c:	1d540100 	ldfnee	f0, [r4, #-0]
    3020:	000096ec 	andeq	r9, r0, ip, ror #13
    3024:	00000004 	andeq	r0, r0, r4
    3028:	0001321e 	andeq	r3, r1, lr, lsl r2
    302c:	001b6100 	andseq	r6, fp, r0, lsl #2
    3030:	1f000000 	svcne	0x00000000
    3034:	000096ec 	andeq	r9, r0, ip, ror #13
    3038:	00001131 	andeq	r1, r0, r1, lsr r1
    303c:	04510120 	ldrbeq	r0, [r1], #-288	; 0x120
    3040:	1a320077 	bne	c83224 <__bss_end__+0xc746ac>
    3044:	02500120 	subseq	r0, r0, #32, 2
    3048:	00000076 	andeq	r0, r0, r6, ror r0
    304c:	00013f19 	andeq	r3, r1, r9, lsl pc
    3050:	00970000 	addseq	r0, r7, r0
    3054:	00001c00 	andeq	r1, r0, r0, lsl #24
    3058:	08170100 	ldmdaeq	r7, {r8}
    305c:	1a000004 	bne	3074 <_start-0x4f8c>
    3060:	0000016a 	andeq	r0, r0, sl, ror #2
    3064:	00001b74 	andeq	r1, r0, r4, ror fp
    3068:	00015f1b 	andeq	r5, r1, fp, lsl pc
    306c:	1b540100 	blne	1503474 <__bss_end__+0x14f48fc>
    3070:	00000156 	andeq	r0, r0, r6, asr r1
    3074:	34007708 	strcc	r7, [r0], #-1800	; 0x708
    3078:	1aff081a 	bne	fffc50e8 <__bss_end__+0xfffb6570>
    307c:	014b1b9f 			; <UNDEFINED> instruction: 0x014b1b9f
    3080:	56010000 	strpl	r0, [r1], -r0
    3084:	00011119 	andeq	r1, r1, r9, lsl r1
    3088:	00970c00 	addseq	r0, r7, r0, lsl #24
    308c:	00001000 	andeq	r1, r0, r0
    3090:	ef1a0200 	svc	0x001a0200
    3094:	1a000003 	bne	30a8 <_start-0x4f58>
    3098:	00000128 	andeq	r0, r0, r8, lsr #2
    309c:	00001b96 	muleq	r0, r6, fp
    30a0:	00011d1b 	andeq	r1, r1, fp, lsl sp
    30a4:	1d540100 	ldfnee	f0, [r4, #-0]
    30a8:	0000970c 	andeq	r9, r0, ip, lsl #14
    30ac:	00000004 	andeq	r0, r0, r4
    30b0:	0001321e 	andeq	r3, r1, lr, lsl r2
    30b4:	001bb800 	andseq	fp, fp, r0, lsl #16
    30b8:	1f000000 	svcne	0x00000000
    30bc:	0000970c 	andeq	r9, r0, ip, lsl #14
    30c0:	00001131 	andeq	r1, r0, r1, lsr r1
    30c4:	04510120 	ldrbeq	r0, [r1], #-288	; 0x120
    30c8:	1a340077 	bne	d032ac <__bss_end__+0xcf4734>
    30cc:	02500120 	subseq	r0, r0, #32, 2
    30d0:	00000076 	andeq	r0, r0, r6, ror r0
    30d4:	00013f19 	andeq	r3, r1, r9, lsl pc
    30d8:	00972000 	addseq	r2, r7, r0
    30dc:	00001c00 	andeq	r1, r0, r0, lsl #24
    30e0:	90190100 	andsls	r0, r9, r0, lsl #2
    30e4:	1a000004 	bne	30fc <_start-0x4f04>
    30e8:	0000016a 	andeq	r0, r0, sl, ror #2
    30ec:	00001bcb 	andeq	r1, r0, fp, asr #23
    30f0:	00015f1b 	andeq	r5, r1, fp, lsl pc
    30f4:	1b540100 	blne	15034fc <__bss_end__+0x14f4984>
    30f8:	00000156 	andeq	r0, r0, r6, asr r1
    30fc:	38007708 	stmdacc	r0, {r3, r8, r9, sl, ip, sp, lr}
    3100:	1aff081a 	bne	fffc5170 <__bss_end__+0xfffb65f8>
    3104:	014b1b9f 			; <UNDEFINED> instruction: 0x014b1b9f
    3108:	56010000 	strpl	r0, [r1], -r0
    310c:	00011119 	andeq	r1, r1, r9, lsl r1
    3110:	00972c00 	addseq	r2, r7, r0, lsl #24
    3114:	00001000 	andeq	r1, r0, r0
    3118:	771a0200 	ldrvc	r0, [sl, -r0, lsl #4]
    311c:	1a000004 	bne	3134 <_start-0x4ecc>
    3120:	00000128 	andeq	r0, r0, r8, lsr #2
    3124:	00001bf0 	strdeq	r1, [r0], -r0
    3128:	00011d1b 	andeq	r1, r1, fp, lsl sp
    312c:	1d540100 	ldfnee	f0, [r4, #-0]
    3130:	0000972c 	andeq	r9, r0, ip, lsr #14
    3134:	00000004 	andeq	r0, r0, r4
    3138:	0001321e 	andeq	r3, r1, lr, lsl r2
    313c:	001c1500 	andseq	r1, ip, r0, lsl #10
    3140:	1f000000 	svcne	0x00000000
    3144:	0000972c 	andeq	r9, r0, ip, lsr #14
    3148:	00001131 	andeq	r1, r0, r1, lsr r1
    314c:	04510120 	ldrbeq	r0, [r1], #-288	; 0x120
    3150:	1a380077 	bne	e03334 <__bss_end__+0xdf47bc>
    3154:	02500120 	subseq	r0, r0, #32, 2
    3158:	00000076 	andeq	r0, r0, r6, ror r0
    315c:	00013f19 	andeq	r3, r1, r9, lsl pc
    3160:	00974000 	addseq	r4, r7, r0
    3164:	00001c00 	andeq	r1, r0, r0, lsl #24
    3168:	181b0100 	ldmdane	fp, {r8}
    316c:	1a000005 	bne	3188 <_start-0x4e78>
    3170:	0000016a 	andeq	r0, r0, sl, ror #2
    3174:	00001c28 	andeq	r1, r0, r8, lsr #24
    3178:	00015f1b 	andeq	r5, r1, fp, lsl pc
    317c:	1b540100 	blne	1503584 <__bss_end__+0x14f4a0c>
    3180:	00000156 	andeq	r0, r0, r6, asr r1
    3184:	40007708 	andmi	r7, r0, r8, lsl #14
    3188:	1aff081a 	bne	fffc51f8 <__bss_end__+0xfffb6680>
    318c:	014b1b9f 			; <UNDEFINED> instruction: 0x014b1b9f
    3190:	56010000 	strpl	r0, [r1], -r0
    3194:	00011119 	andeq	r1, r1, r9, lsl r1
    3198:	00974c00 	addseq	r4, r7, r0, lsl #24
    319c:	00001000 	andeq	r1, r0, r0
    31a0:	ff1a0200 			; <UNDEFINED> instruction: 0xff1a0200
    31a4:	1a000004 	bne	31bc <_start-0x4e44>
    31a8:	00000128 	andeq	r0, r0, r8, lsr #2
    31ac:	00001c4f 	andeq	r1, r0, pc, asr #24
    31b0:	00011d1b 	andeq	r1, r1, fp, lsl sp
    31b4:	1d540100 	ldfnee	f0, [r4, #-0]
    31b8:	0000974c 	andeq	r9, r0, ip, asr #14
    31bc:	00000004 	andeq	r0, r0, r4
    31c0:	0001321e 	andeq	r3, r1, lr, lsl r2
    31c4:	001c7600 	andseq	r7, ip, r0, lsl #12
    31c8:	1f000000 	svcne	0x00000000
    31cc:	0000974c 	andeq	r9, r0, ip, asr #14
    31d0:	00001131 	andeq	r1, r0, r1, lsr r1
    31d4:	04510120 	ldrbeq	r0, [r1], #-288	; 0x120
    31d8:	1a400077 	bne	10033bc <__bss_end__+0xff4844>
    31dc:	02500120 	subseq	r0, r0, #32, 2
    31e0:	00000076 	andeq	r0, r0, r6, ror r0
    31e4:	00013f19 	andeq	r3, r1, r9, lsl pc
    31e8:	00976000 	addseq	r6, r7, r0
    31ec:	00001c00 	andeq	r1, r0, r0, lsl #24
    31f0:	a21d0100 	andsge	r0, sp, #0, 2
    31f4:	1a000005 	bne	3210 <_start-0x4df0>
    31f8:	0000016a 	andeq	r0, r0, sl, ror #2
    31fc:	00001c89 	andeq	r1, r0, r9, lsl #25
    3200:	00015f1b 	andeq	r5, r1, fp, lsl pc
    3204:	1b540100 	blne	150360c <__bss_end__+0x14f4a94>
    3208:	00000156 	andeq	r0, r0, r6, asr r1
    320c:	08007709 	stmdaeq	r0, {r0, r3, r8, r9, sl, ip, sp, lr}
    3210:	ff081a20 			; <UNDEFINED> instruction: 0xff081a20
    3214:	4b1b9f1a 	blmi	6eae84 <__bss_end__+0x6dc30c>
    3218:	01000001 	tsteq	r0, r1
    321c:	01111956 	tsteq	r1, r6, asr r9
    3220:	976c0000 	strbls	r0, [ip, -r0]!
    3224:	00100000 	andseq	r0, r0, r0
    3228:	1a020000 	bne	83230 <__bss_end__+0x746b8>
    322c:	00000588 	andeq	r0, r0, r8, lsl #11
    3230:	0001281a 	andeq	r2, r1, sl, lsl r8
    3234:	001cb300 	andseq	fp, ip, r0, lsl #6
    3238:	011d1b00 	tsteq	sp, r0, lsl #22
    323c:	54010000 	strpl	r0, [r1], #-0
    3240:	00976c1d 	addseq	r6, r7, sp, lsl ip
    3244:	00000400 	andeq	r0, r0, r0, lsl #8
    3248:	01321e00 	teqeq	r2, r0, lsl #28
    324c:	1cdd0000 	ldclne	0, cr0, [sp], {0}
    3250:	00000000 	andeq	r0, r0, r0
    3254:	00976c1f 	addseq	r6, r7, pc, lsl ip
    3258:	00113100 	andseq	r3, r1, r0, lsl #2
    325c:	51012000 	mrspl	r2, (UNDEF: 1)
    3260:	08007705 	stmdaeq	r0, {r0, r2, r8, r9, sl, ip, sp, lr}
    3264:	01201a20 	teqeq	r0, r0, lsr #20
    3268:	00760250 	rsbseq	r0, r6, r0, asr r2
    326c:	3f190000 	svccc	0x00190000
    3270:	80000001 	andhi	r0, r0, r1
    3274:	1c000097 	stcne	0, cr0, [r0], {151}	; 0x97
    3278:	01000000 	mrseq	r0, (UNDEF: 0)
    327c:	00062c1f 	andeq	r2, r6, pc, lsl ip
    3280:	016a1a00 	cmneq	sl, r0, lsl #20
    3284:	1cf00000 	ldclne	0, cr0, [r0]
    3288:	5f1b0000 	svcpl	0x001b0000
    328c:	01000001 	tsteq	r0, r1
    3290:	01561b54 	cmpeq	r6, r4, asr fp
    3294:	77090000 	strvc	r0, [r9, -r0]
    3298:	1a400800 	bne	10052a0 <__bss_end__+0xff6728>
    329c:	9f1aff08 	svcls	0x001aff08
    32a0:	00014b1b 	andeq	r4, r1, fp, lsl fp
    32a4:	19560100 	ldmdbne	r6, {r8}^
    32a8:	00000111 	andeq	r0, r0, r1, lsl r1
    32ac:	0000978c 	andeq	r9, r0, ip, lsl #15
    32b0:	00000010 	andeq	r0, r0, r0, lsl r0
    32b4:	06121a02 	ldreq	r1, [r2], -r2, lsl #20
    32b8:	281a0000 	ldmdacs	sl, {}	; <UNPREDICTABLE>
    32bc:	12000001 	andne	r0, r0, #1
    32c0:	1b00001d 	blne	333c <_start-0x4cc4>
    32c4:	0000011d 	andeq	r0, r0, sp, lsl r1
    32c8:	8c1d5401 	cfldrshi	mvf5, [sp], {1}
    32cc:	04000097 	streq	r0, [r0], #-151	; 0x97
    32d0:	1e000000 	cdpne	0, 0, cr0, cr0, cr0, {0}
    32d4:	00000132 	andeq	r0, r0, r2, lsr r1
    32d8:	00001d34 	andeq	r1, r0, r4, lsr sp
    32dc:	8c1f0000 	ldchi	0, cr0, [pc], {-0}
    32e0:	31000097 	swpcc	r0, r7, [r0]	; <UNPREDICTABLE>
    32e4:	20000011 	andcs	r0, r0, r1, lsl r0
    32e8:	77055101 	strvc	r5, [r5, -r1, lsl #2]
    32ec:	1a400800 	bne	10052f4 <__bss_end__+0xff677c>
    32f0:	02500120 	subseq	r0, r0, #32, 2
    32f4:	00000076 	andeq	r0, r0, r6, ror r0
    32f8:	00013f19 	andeq	r3, r1, r9, lsl pc
    32fc:	0097a000 	addseq	sl, r7, r0
    3300:	00001c00 	andeq	r1, r0, r0, lsl #24
    3304:	ac210100 	stfges	f0, [r1], #-0
    3308:	1b000006 	blne	3328 <_start-0x4cd8>
    330c:	0000016a 	andeq	r0, r0, sl, ror #2
    3310:	5f1b5801 	svcpl	0x001b5801
    3314:	01000001 	tsteq	r0, r1
    3318:	01561a54 	cmpeq	r6, r4, asr sl
    331c:	1d470000 	stclne	0, cr0, [r7, #-0]
    3320:	4b1b0000 	blmi	6c3328 <__bss_end__+0x6b47b0>
    3324:	01000001 	tsteq	r0, r1
    3328:	01111956 	tsteq	r1, r6, asr r9
    332c:	97ac0000 	strls	r0, [ip, r0]!
    3330:	00100000 	andseq	r0, r0, r0
    3334:	1a020000 	bne	8333c <__bss_end__+0x747c4>
    3338:	00000692 	muleq	r0, r2, r6
    333c:	0001281b 	andeq	r2, r1, fp, lsl r8
    3340:	1b580100 	blne	1603748 <__bss_end__+0x15f4bd0>
    3344:	0000011d 	andeq	r0, r0, sp, lsl r1
    3348:	ac1d5401 	cfldrsge	mvf5, [sp], {1}
    334c:	04000097 	streq	r0, [r0], #-151	; 0x97
    3350:	1e000000 	cdpne	0, 0, cr0, cr0, cr0, {0}
    3354:	00000132 	andeq	r0, r0, r2, lsr r1
    3358:	00001d7a 	andeq	r1, r0, sl, ror sp
    335c:	ac1f0000 	ldcge	0, cr0, [pc], {-0}
    3360:	31000097 	swpcc	r0, r7, [r0]	; <UNPREDICTABLE>
    3364:	20000011 	andcs	r0, r0, r1, lsl r0
    3368:	77055101 	strvc	r5, [r5, -r1, lsl #2]
    336c:	1a800800 	bne	fe005374 <__bss_end__+0xfdff67fc>
    3370:	02500120 	subseq	r0, r0, #32, 2
    3374:	00000076 	andeq	r0, r0, r6, ror r0
    3378:	00013f21 	andeq	r3, r1, r1, lsr #30
    337c:	0097c000 	addseq	ip, r7, r0
    3380:	00001c00 	andeq	r1, r0, r0, lsl #24
    3384:	1b230100 	blne	8c378c <__bss_end__+0x8b4c14>
    3388:	0000016a 	andeq	r0, r0, sl, ror #2
    338c:	5f1b5501 	svcpl	0x001b5501
    3390:	01000001 	tsteq	r0, r1
    3394:	01561c54 	cmpeq	r6, r4, asr ip
    3398:	1b010000 	blne	433a0 <__bss_end__+0x34828>
    339c:	0000014b 	andeq	r0, r0, fp, asr #2
    33a0:	11195601 	tstne	r9, r1, lsl #12
    33a4:	cc000001 	stcgt	0, cr0, [r0], {1}
    33a8:	10000097 	mulne	r0, r7, r0
    33ac:	02000000 	andeq	r0, r0, #0
    33b0:	00070b1a 	andeq	r0, r7, sl, lsl fp
    33b4:	01281b00 	teqeq	r8, r0, lsl #22
    33b8:	55010000 	strpl	r0, [r1, #-0]
    33bc:	00011d1b 	andeq	r1, r1, fp, lsl sp
    33c0:	1d540100 	ldfnee	f0, [r4, #-0]
    33c4:	000097cc 	andeq	r9, r0, ip, asr #15
    33c8:	00000004 	andeq	r0, r0, r4
    33cc:	0001321e 	andeq	r3, r1, lr, lsl r2
    33d0:	001d8d00 	andseq	r8, sp, r0, lsl #26
    33d4:	1f000000 	svcne	0x00000000
    33d8:	000097cc 	andeq	r9, r0, ip, asr #15
    33dc:	00001131 	andeq	r1, r0, r1, lsr r1
    33e0:	01510120 	cmpeq	r1, r0, lsr #2
    33e4:	50012031 	andpl	r2, r1, r1, lsr r0
    33e8:	00007602 	andeq	r7, r0, r2, lsl #12
    33ec:	04060000 	streq	r0, [r6], #-0
    33f0:	000000d9 	ldrdeq	r0, [r0], -r9
    33f4:	000b0322 	andeq	r0, fp, r2, lsr #6
    33f8:	25270100 	strcs	r0, [r7, #-256]!	; 0x100
    33fc:	03000000 	movweq	r0, #0
    3400:	00000762 	andeq	r0, r0, r2, ror #14
    3404:	0078720f 	rsbseq	r7, r8, pc, lsl #4
    3408:	00252701 	eoreq	r2, r5, r1, lsl #14
    340c:	760f0000 	strvc	r0, [pc], -r0
    3410:	25270100 	strcs	r0, [r7, #-256]!	; 0x100
    3414:	0e000000 	cdpeq	0, 0, cr0, cr0, cr0, {0}
    3418:	00000a8b 	andeq	r0, r0, fp, lsl #21
    341c:	002c2701 	eoreq	r2, ip, r1, lsl #14
    3420:	35110000 	ldrcc	r0, [r1, #-0]
    3424:	01000007 	tsteq	r0, r7
    3428:	00002c28 	andeq	r2, r0, r8, lsr #24
    342c:	40230000 	eormi	r0, r3, r0
    3430:	0100000a 	tsteq	r0, sl
    3434:	00002534 	andeq	r2, r0, r4, lsr r5
    3438:	0097e000 	addseq	lr, r7, r0
    343c:	0001c800 	andeq	ip, r1, r0, lsl #16
    3440:	1e9c0100 	fmlnee	f0, f4, f0
    3444:	1300000b 	movwne	r0, #11
    3448:	000006f7 	strdeq	r0, [r0], -r7
    344c:	07223401 	streq	r3, [r2, -r1, lsl #8]!
    3450:	1da00000 	stcne	0, cr0, [r0]
    3454:	8b130000 	blhi	4c345c <__bss_end__+0x4b48e4>
    3458:	0100000a 	tsteq	r0, sl
    345c:	00002534 	andeq	r2, r0, r4, lsr r5
    3460:	001de500 	andseq	lr, sp, r0, lsl #10
    3464:	78721500 	ldmdavc	r2!, {r8, sl, ip}^
    3468:	25350100 	ldrcs	r0, [r5, #-256]!	; 0x100
    346c:	01000000 	mrseq	r0, (UNDEF: 0)
    3470:	00731655 	rsbseq	r1, r3, r5, asr r6
    3474:	002c3c01 	eoreq	r3, ip, r1, lsl #24
    3478:	1e030000 	cdpne	0, 0, cr0, cr3, cr0, {0}
    347c:	75160000 	ldrvc	r0, [r6, #-0]
    3480:	683f0100 	ldmdavs	pc!, {r8}	; <UNPREDICTABLE>
    3484:	16000000 	strne	r0, [r0], -r0
    3488:	1600001e 			; <UNDEFINED> instruction: 0x1600001e
    348c:	4001006e 	andmi	r0, r1, lr, rrx
    3490:	0000002c 	andeq	r0, r0, ip, lsr #32
    3494:	00001e29 	andeq	r1, r0, r9, lsr #28
    3498:	01006316 	tsteq	r0, r6, lsl r3
    349c:	00002c41 	andeq	r2, r0, r1, asr #24
    34a0:	001e4000 	andseq	r4, lr, r0
    34a4:	07281900 	streq	r1, [r8, -r0, lsl #18]!
    34a8:	97f40000 	ldrbls	r0, [r4, r0]!
    34ac:	00340000 	eorseq	r0, r4, r0
    34b0:	38010000 	stmdacc	r1, {}	; <UNPREDICTABLE>
    34b4:	0000083c 	andeq	r0, r0, ip, lsr r8
    34b8:	00074b1a 	andeq	r4, r7, sl, lsl fp
    34bc:	001e6a00 	andseq	r6, lr, r0, lsl #20
    34c0:	07421c00 	strbeq	r1, [r2, -r0, lsl #24]
    34c4:	1b000000 	blne	34cc <_start-0x4b34>
    34c8:	00000738 	andeq	r0, r0, r8, lsr r7
    34cc:	f41d5501 			; <UNDEFINED> instruction: 0xf41d5501
    34d0:	34000097 	strcc	r0, [r0], #-151	; 0x97
    34d4:	1e000000 	cdpne	0, 0, cr0, cr0, cr0, {0}
    34d8:	00000756 	andeq	r0, r0, r6, asr r7
    34dc:	00001e88 	andeq	r1, r0, r8, lsl #29
    34e0:	0097f824 	addseq	pc, r7, r4, lsr #16
    34e4:	00114700 	andseq	r4, r1, r0, lsl #14
    34e8:	98042500 	stmdals	r4, {r8, sl, sp}
    34ec:	11520000 	cmpne	r2, r0
    34f0:	08310000 	ldmdaeq	r1!, {}	; <UNPREDICTABLE>
    34f4:	01200000 	teqeq	r0, r0
    34f8:	00750250 	rsbseq	r0, r5, r0, asr r2
    34fc:	98102400 	ldmdals	r0, {sl, sp}
    3500:	11470000 	mrsne	r0, (UNDEF: 71)
    3504:	00000000 	andeq	r0, r0, r0
    3508:	00983017 	addseq	r3, r8, r7, lsl r0
    350c:	00000400 	andeq	r0, r0, r0, lsl #8
    3510:	00085900 	andeq	r5, r8, r0, lsl #18
    3514:	0ad32600 	beq	ff4ccd1c <__bss_end__+0xff4be1a4>
    3518:	3c010000 	stccc	0, cr0, [r1], {-0}
    351c:	0000002c 	andeq	r0, r0, ip, lsr #32
    3520:	00001ea6 	andeq	r1, r0, r6, lsr #29
    3524:	01111900 	tsteq	r1, r0, lsl #18
    3528:	983c0000 	ldmdals	ip!, {}	; <UNPREDICTABLE>
    352c:	00100000 	andseq	r0, r0, r0
    3530:	44010000 	strmi	r0, [r1], #-0
    3534:	00000892 	muleq	r0, r2, r8
    3538:	0001281a 	andeq	r2, r1, sl, lsl r8
    353c:	001eb900 	andseq	fp, lr, r0, lsl #18
    3540:	011d1a00 	tsteq	sp, r0, lsl #20
    3544:	1ede0000 	cdpne	0, 13, cr0, cr14, cr0, {0}
    3548:	3c1d0000 	ldccc	0, cr0, [sp], {-0}
    354c:	04000098 	streq	r0, [r0], #-152	; 0x98
    3550:	1e000000 	cdpne	0, 0, cr0, cr0, cr0, {0}
    3554:	00000132 	andeq	r0, r0, r2, lsr r1
    3558:	00001ef1 	strdeq	r1, [r0], -r1	; <UNPREDICTABLE>
    355c:	11190000 	tstne	r9, r0
    3560:	5c000001 	stcpl	0, cr0, [r0], {1}
    3564:	10000098 	mulne	r0, r8, r0
    3568:	01000000 	mrseq	r0, (UNDEF: 0)
    356c:	0008cb48 	andeq	ip, r8, r8, asr #22
    3570:	01281a00 	teqeq	r8, r0, lsl #20
    3574:	1f040000 	svcne	0x00040000
    3578:	1d1a0000 	ldcne	0, cr0, [sl, #-0]
    357c:	17000001 	strne	r0, [r0, -r1]
    3580:	1d00001f 	stcne	0, cr0, [r0, #-124]	; 0xffffff84
    3584:	0000985c 	andeq	r9, r0, ip, asr r8
    3588:	00000004 	andeq	r0, r0, r4
    358c:	0001321e 	andeq	r3, r1, lr, lsl r2
    3590:	001f2a00 	andseq	r2, pc, r0, lsl #20
    3594:	19000000 	stmdbne	r0, {}	; <UNPREDICTABLE>
    3598:	00000111 	andeq	r0, r0, r1, lsl r1
    359c:	00009880 	andeq	r9, r0, r0, lsl #17
    35a0:	00000010 	andeq	r0, r0, r0, lsl r0
    35a4:	09044b01 	stmdbeq	r4, {r0, r8, r9, fp, lr}
    35a8:	281a0000 	ldmdacs	sl, {}	; <UNPREDICTABLE>
    35ac:	3d000001 	stccc	0, cr0, [r0, #-4]
    35b0:	1a00001f 	bne	3634 <_start-0x49cc>
    35b4:	0000011d 	andeq	r0, r0, sp, lsl r1
    35b8:	00001f50 	andeq	r1, r0, r0, asr pc
    35bc:	0098801d 	addseq	r8, r8, sp, lsl r0
    35c0:	00000400 	andeq	r0, r0, r0, lsl #8
    35c4:	01321e00 	teqeq	r2, r0, lsl #28
    35c8:	1f630000 	svcne	0x00630000
    35cc:	00000000 	andeq	r0, r0, r0
    35d0:	00011119 	andeq	r1, r1, r9, lsl r1
    35d4:	0098a400 	addseq	sl, r8, r0, lsl #8
    35d8:	00001000 	andeq	r1, r0, r0
    35dc:	3d4e0100 	stfcce	f0, [lr, #-0]
    35e0:	1a000009 	bne	360c <_start-0x49f4>
    35e4:	00000128 	andeq	r0, r0, r8, lsr #2
    35e8:	00001f76 	andeq	r1, r0, r6, ror pc
    35ec:	00011d1a 	andeq	r1, r1, sl, lsl sp
    35f0:	001f8900 	andseq	r8, pc, r0, lsl #18
    35f4:	98a41d00 	stmials	r4!, {r8, sl, fp, ip}
    35f8:	00040000 	andeq	r0, r4, r0
    35fc:	321e0000 	andscc	r0, lr, #0
    3600:	9c000001 	stcls	0, cr0, [r0], {1}
    3604:	0000001f 	andeq	r0, r0, pc, lsl r0
    3608:	01111900 	tsteq	r1, r0, lsl #18
    360c:	98c80000 	stmials	r8, {}^	; <UNPREDICTABLE>
    3610:	00100000 	andseq	r0, r0, r0
    3614:	51010000 	mrspl	r0, (UNDEF: 1)
    3618:	00000976 	andeq	r0, r0, r6, ror r9
    361c:	0001281a 	andeq	r2, r1, sl, lsl r8
    3620:	001faf00 	andseq	sl, pc, r0, lsl #30
    3624:	011d1a00 	tsteq	sp, r0, lsl #20
    3628:	1fc20000 	svcne	0x00c20000
    362c:	c81d0000 	ldmdagt	sp, {}	; <UNPREDICTABLE>
    3630:	04000098 	streq	r0, [r0], #-152	; 0x98
    3634:	1e000000 	cdpne	0, 0, cr0, cr0, cr0, {0}
    3638:	00000132 	andeq	r0, r0, r2, lsr r1
    363c:	00001fd5 	ldrdeq	r1, [r0], -r5
    3640:	11190000 	tstne	r9, r0
    3644:	ec000001 	stc	0, cr0, [r0], {1}
    3648:	10000098 	mulne	r0, r8, r0
    364c:	01000000 	mrseq	r0, (UNDEF: 0)
    3650:	0009af54 	andeq	sl, r9, r4, asr pc
    3654:	01281a00 	teqeq	r8, r0, lsl #20
    3658:	1fe80000 	svcne	0x00e80000
    365c:	1d1a0000 	ldcne	0, cr0, [sl, #-0]
    3660:	fb000001 	blx	366e <_start-0x4992>
    3664:	1d00001f 	stcne	0, cr0, [r0, #-124]	; 0xffffff84
    3668:	000098ec 	andeq	r9, r0, ip, ror #17
    366c:	00000004 	andeq	r0, r0, r4
    3670:	0001321e 	andeq	r3, r1, lr, lsl r2
    3674:	00200e00 	eoreq	r0, r0, r0, lsl #28
    3678:	19000000 	stmdbne	r0, {}	; <UNPREDICTABLE>
    367c:	00000111 	andeq	r0, r0, r1, lsl r1
    3680:	00009910 	andeq	r9, r0, r0, lsl r9
    3684:	00000010 	andeq	r0, r0, r0, lsl r0
    3688:	09e85701 	stmibeq	r8!, {r0, r8, r9, sl, ip, lr}^
    368c:	281a0000 	ldmdacs	sl, {}	; <UNPREDICTABLE>
    3690:	21000001 	tstcs	r0, r1
    3694:	1a000020 	bne	371c <_start-0x48e4>
    3698:	0000011d 	andeq	r0, r0, sp, lsl r1
    369c:	00002034 	andeq	r2, r0, r4, lsr r0
    36a0:	0099101d 	addseq	r1, r9, sp, lsl r0
    36a4:	00000400 	andeq	r0, r0, r0, lsl #8
    36a8:	01321e00 	teqeq	r2, r0, lsl #28
    36ac:	20470000 	subcs	r0, r7, r0
    36b0:	00000000 	andeq	r0, r0, r0
    36b4:	00011119 	andeq	r1, r1, r9, lsl r1
    36b8:	00993400 	addseq	r3, r9, r0, lsl #8
    36bc:	00001000 	andeq	r1, r0, r0
    36c0:	1d5a0100 	ldfnee	f0, [sl, #-0]
    36c4:	1a00000a 	bne	36f4 <_start-0x490c>
    36c8:	00000128 	andeq	r0, r0, r8, lsr #2
    36cc:	0000205a 	andeq	r2, r0, sl, asr r0
    36d0:	00011d27 	andeq	r1, r1, r7, lsr #26
    36d4:	99341d00 	ldmdbls	r4!, {r8, sl, fp, ip}
    36d8:	00040000 	andeq	r0, r4, r0
    36dc:	321e0000 	andscc	r0, lr, #0
    36e0:	6d000001 	stcvs	0, cr0, [r0, #-4]
    36e4:	00000020 	andeq	r0, r0, r0, lsr #32
    36e8:	07281900 	streq	r1, [r8, -r0, lsl #18]!
    36ec:	99540000 	ldmdbls	r4, {}^	; <UNPREDICTABLE>
    36f0:	00340000 	eorseq	r0, r4, r0
    36f4:	61010000 	mrsvs	r0, (UNDEF: 1)
    36f8:	00000a81 	andeq	r0, r0, r1, lsl #21
    36fc:	00074b27 	andeq	r4, r7, r7, lsr #22
    3700:	07421a00 	strbeq	r1, [r2, -r0, lsl #20]
    3704:	20800000 	addcs	r0, r0, r0
    3708:	381a0000 	ldmdacc	sl, {}	; <UNPREDICTABLE>
    370c:	a0000007 	andge	r0, r0, r7
    3710:	1d000020 	stcne	0, cr0, [r0, #-128]	; 0xffffff80
    3714:	00009954 	andeq	r9, r0, r4, asr r9
    3718:	00000034 	andeq	r0, r0, r4, lsr r0
    371c:	0007561e 	andeq	r5, r7, lr, lsl r6
    3720:	0020be00 	eoreq	fp, r0, r0, lsl #28
    3724:	99582400 	ldmdbls	r8, {sl, sp}^
    3728:	11470000 	mrsne	r0, (UNDEF: 71)
    372c:	64250000 	strtvs	r0, [r5], #-0
    3730:	52000099 	andpl	r0, r0, #153	; 0x99
    3734:	76000011 			; <UNDEFINED> instruction: 0x76000011
    3738:	2000000a 	andcs	r0, r0, sl
    373c:	75025001 	strvc	r5, [r2, #-1]
    3740:	70240000 	eorvc	r0, r4, r0
    3744:	47000099 			; <UNDEFINED> instruction: 0x47000099
    3748:	00000011 	andeq	r0, r0, r1, lsl r0
    374c:	98582500 	ldmdals	r8, {r8, sl, sp}^
    3750:	11520000 	cmpne	r2, r0
    3754:	0a950000 	beq	fe54375c <__bss_end__+0xfe534be4>
    3758:	01200000 	teqeq	r0, r0
    375c:	00750250 	rsbseq	r0, r5, r0, asr r2
    3760:	98782500 	ldmdals	r8!, {r8, sl, sp}^
    3764:	11520000 	cmpne	r2, r0
    3768:	0aa90000 	beq	fea43770 <__bss_end__+0xfea34bf8>
    376c:	01200000 	teqeq	r0, r0
    3770:	00750250 	rsbseq	r0, r5, r0, asr r2
    3774:	989c2500 	ldmls	ip, {r8, sl, sp}
    3778:	11520000 	cmpne	r2, r0
    377c:	0abd0000 	beq	fef43784 <__bss_end__+0xfef34c0c>
    3780:	01200000 	teqeq	r0, r0
    3784:	00750250 	rsbseq	r0, r5, r0, asr r2
    3788:	98c02500 	stmials	r0, {r8, sl, sp}^
    378c:	11520000 	cmpne	r2, r0
    3790:	0ad10000 	beq	ff443798 <__bss_end__+0xff434c20>
    3794:	01200000 	teqeq	r0, r0
    3798:	00750250 	rsbseq	r0, r5, r0, asr r2
    379c:	98e42500 	stmials	r4!, {r8, sl, sp}^
    37a0:	11520000 	cmpne	r2, r0
    37a4:	0ae50000 	beq	ff9437ac <__bss_end__+0xff934c34>
    37a8:	01200000 	teqeq	r0, r0
    37ac:	00750250 	rsbseq	r0, r5, r0, asr r2
    37b0:	99082500 	stmdbls	r8, {r8, sl, sp}
    37b4:	11520000 	cmpne	r2, r0
    37b8:	0af90000 	beq	ffe437c0 <__bss_end__+0xffe34c48>
    37bc:	01200000 	teqeq	r0, r0
    37c0:	00750250 	rsbseq	r0, r5, r0, asr r2
    37c4:	992c2500 	stmdbls	ip!, {r8, sl, sp}
    37c8:	11520000 	cmpne	r2, r0
    37cc:	0b0d0000 	bleq	3437d4 <__bss_end__+0x334c5c>
    37d0:	01200000 	teqeq	r0, r0
    37d4:	00750250 	rsbseq	r0, r5, r0, asr r2
    37d8:	994c1f00 	stmdbls	ip, {r8, r9, sl, fp, ip}^
    37dc:	11520000 	cmpne	r2, r0
    37e0:	01200000 	teqeq	r0, r0
    37e4:	00750250 	rsbseq	r0, r5, r0, asr r2
    37e8:	55230000 	strpl	r0, [r3, #-0]!
    37ec:	0100000a 	tsteq	r0, sl
    37f0:	0000256c 	andeq	r2, r0, ip, ror #10
    37f4:	0099a800 	addseq	sl, r9, r0, lsl #16
    37f8:	00009000 	andeq	r9, r0, r0
    37fc:	029c0100 	addseq	r0, ip, #0, 2
    3800:	1400000c 	strne	r0, [r0], #-12
    3804:	6c010075 	stcvs	0, cr0, [r1], {117}	; 0x75
    3808:	00000722 	andeq	r0, r0, r2, lsr #14
    380c:	000020dc 	ldrdeq	r2, [r0], -ip
    3810:	66756214 			; <UNDEFINED> instruction: 0x66756214
    3814:	026c0100 	rsbeq	r0, ip, #0, 2
    3818:	1000000c 	andne	r0, r0, ip
    381c:	13000021 	movwne	r0, #33	; 0x21
    3820:	00000ad8 	ldrdeq	r0, [r0], -r8
    3824:	00686c01 	rsbeq	r6, r8, r1, lsl #24
    3828:	21440000 	mrscs	r0, (UNDEF: 68)
    382c:	65140000 	ldrvs	r0, [r4, #-0]
    3830:	0100646e 	tsteq	r0, lr, ror #8
    3834:	00004f6c 	andeq	r4, r0, ip, ror #30
    3838:	00217d00 	eoreq	r7, r1, r0, lsl #26
    383c:	0adf2800 	beq	ff7cd844 <__bss_end__+0xff7beccc>
    3840:	6c010000 	stcvs	0, cr0, [r1], {-0}
    3844:	00000068 	andeq	r0, r0, r8, rrx
    3848:	29009102 	stmdbcs	r0, {r1, r8, ip, pc}
    384c:	000001af 	andeq	r0, r0, pc, lsr #3
    3850:	00000c18 	andeq	r0, r0, r8, lsl ip
    3854:	a4a00305 	strtge	r0, [r0], #773	; 0x305
    3858:	69160000 	ldmdbvs	r6, {}	; <UNPREDICTABLE>
    385c:	25700100 	ldrbcs	r0, [r0, #-256]!	; 0x100
    3860:	b7000000 	strlt	r0, [r0, -r0]
    3864:	26000021 	strcs	r0, [r0], -r1, lsr #32
    3868:	00000ab6 			; <UNDEFINED> instruction: 0x00000ab6
    386c:	004f7101 	subeq	r7, pc, r1, lsl #2
    3870:	21d60000 	bicscs	r0, r6, r0
    3874:	c8240000 	stmdagt	r4!, {}	; <UNPREDICTABLE>
    3878:	67000099 			; <UNDEFINED> instruction: 0x67000099
    387c:	25000011 	strcs	r0, [r0, #-17]
    3880:	000099dc 	ldrdeq	r9, [r0], -ip
    3884:	0000116e 	andeq	r1, r0, lr, ror #2
    3888:	00000be2 	andeq	r0, r0, r2, ror #23
    388c:	02530120 	subseq	r0, r3, #32, 2
    3890:	01206d08 	teqeq	r0, r8, lsl #26
    3894:	a0030552 	andge	r0, r3, r2, asr r5
    3898:	200000a4 	andcs	r0, r0, r4, lsr #1
    389c:	03055101 	movweq	r5, #20737	; 0x5101
    38a0:	0000a534 	andeq	sl, r0, r4, lsr r5
    38a4:	05500120 	ldrbeq	r0, [r0, #-288]	; 0x120
    38a8:	00a51803 	adceq	r1, r5, r3, lsl #16
    38ac:	e0240000 	eor	r0, r4, r0
    38b0:	84000099 	strhi	r0, [r0], #-153	; 0x99
    38b4:	1f000011 	svcne	0x00000011
    38b8:	000099fc 	strdeq	r9, [r0], -ip
    38bc:	00000762 	andeq	r0, r0, r2, ror #14
    38c0:	02510120 	subseq	r0, r1, #32, 2
    38c4:	0120007a 	teqeq	r0, sl, ror r0
    38c8:	00780250 	rsbseq	r0, r8, r0, asr r2
    38cc:	04060000 	streq	r0, [r6], #-0
    38d0:	0000004f 	andeq	r0, r0, pc, asr #32
    38d4:	0000902a 	andeq	r9, r0, sl, lsr #32
    38d8:	000c1800 	andeq	r1, ip, r0, lsl #16
    38dc:	00812b00 	addeq	r2, r1, r0, lsl #22
    38e0:	00120000 	andseq	r0, r2, r0
    38e4:	000c0807 	andeq	r0, ip, r7, lsl #16
    38e8:	0abe2300 	beq	fef8c4f0 <__bss_end__+0xfef7d978>
    38ec:	80010000 	andhi	r0, r1, r0
    38f0:	00000025 	andeq	r0, r0, r5, lsr #32
    38f4:	00009a38 	andeq	r9, r0, r8, lsr sl
    38f8:	0000007c 	andeq	r0, r0, ip, ror r0
    38fc:	0ce49c01 	stcleq	12, cr9, [r4], #4
    3900:	75140000 	ldrvc	r0, [r4, #-0]
    3904:	22800100 	addcs	r0, r0, #0, 2
    3908:	e9000007 	stmdb	r0, {r0, r1, r2}
    390c:	14000021 	strne	r0, [r0], #-33	; 0x21
    3910:	00667562 	rsbeq	r7, r6, r2, ror #10
    3914:	0c028001 	stceq	0, cr8, [r2], {1}
    3918:	221d0000 	andscs	r0, sp, #0
    391c:	d8130000 	ldmdale	r3, {}	; <UNPREDICTABLE>
    3920:	0100000a 	tsteq	r0, sl
    3924:	00006881 	andeq	r6, r0, r1, lsl #17
    3928:	00225100 	eoreq	r5, r2, r0, lsl #2
    392c:	0adf1300 	beq	ff7c8534 <__bss_end__+0xff7b99bc>
    3930:	81010000 	mrshi	r0, (UNDEF: 1)
    3934:	00000068 	andeq	r0, r0, r8, rrx
    3938:	0000228a 	andeq	r2, r0, sl, lsl #5
    393c:	0001af29 	andeq	sl, r1, r9, lsr #30
    3940:	000cf400 	andeq	pc, ip, r0, lsl #8
    3944:	b4030500 	strlt	r0, [r3], #-1280	; 0x500
    3948:	160000a4 	strne	r0, [r0], -r4, lsr #1
    394c:	86010069 	strhi	r0, [r1], -r9, rrx
    3950:	00000025 	andeq	r0, r0, r5, lsr #32
    3954:	000022be 			; <UNDEFINED> instruction: 0x000022be
    3958:	009a5424 	addseq	r5, sl, r4, lsr #8
    395c:	00116700 	andseq	r6, r1, r0, lsl #14
    3960:	9a682500 	bls	1a0cd68 <__bss_end__+0x19fe1f0>
    3964:	116e0000 	cmnne	lr, r0
    3968:	0cc40000 	stcleq	0, cr0, [r4], {0}
    396c:	01200000 	teqeq	r0, r0
    3970:	83080253 	movwhi	r0, #33363	; 0x8253
    3974:	05520120 	ldrbeq	r0, [r2, #-288]	; 0x120
    3978:	00a4b403 	adceq	fp, r4, r3, lsl #8
    397c:	51012000 	mrspl	r2, (UNDEF: 1)
    3980:	a5340305 	ldrge	r0, [r4, #-773]!	; 0x305
    3984:	01200000 	teqeq	r0, r0
    3988:	18030550 	stmdane	r3, {r4, r6, r8, sl}
    398c:	000000a5 	andeq	r0, r0, r5, lsr #1
    3990:	009a6c24 	addseq	r6, sl, r4, lsr #24
    3994:	00118400 	andseq	r8, r1, r0, lsl #8
    3998:	9a881f00 	bls	fe20b5a0 <__bss_end__+0xfe1fca28>
    399c:	07620000 	strbeq	r0, [r2, -r0]!
    39a0:	01200000 	teqeq	r0, r0
    39a4:	00780251 	rsbseq	r0, r8, r1, asr r2
    39a8:	02500120 	subseq	r0, r0, #32, 2
    39ac:	00000077 	andeq	r0, r0, r7, ror r0
    39b0:	0000902a 	andeq	r9, r0, sl, lsr #32
    39b4:	000cf400 	andeq	pc, ip, r0, lsl #8
    39b8:	00812b00 	addeq	r2, r1, r0, lsl #22
    39bc:	00140000 	andseq	r0, r4, r0
    39c0:	000ce407 	andeq	lr, ip, r7, lsl #8
    39c4:	04602300 	strbteq	r2, [r0], #-768	; 0x300
    39c8:	93010000 	movwls	r0, #4096	; 0x1000
    39cc:	000000d9 	ldrdeq	r0, [r0], -r9
    39d0:	00009ab4 			; <UNDEFINED> instruction: 0x00009ab4
    39d4:	000000c0 	andeq	r0, r0, r0, asr #1
    39d8:	0e149c01 	cdpeq	12, 1, cr9, cr4, cr1, {0}
    39dc:	74140000 	ldrvc	r0, [r4], #-0
    39e0:	93010078 	movwls	r0, #4216	; 0x1078
    39e4:	0000004f 	andeq	r0, r0, pc, asr #32
    39e8:	000022dd 	ldrdeq	r2, [r0], -sp
    39ec:	00787214 	rsbseq	r7, r8, r4, lsl r2
    39f0:	004f9301 	subeq	r9, pc, r1, lsl #6
    39f4:	22fe0000 	rscscs	r0, lr, #0
    39f8:	5c130000 	ldcpl	0, cr0, [r3], {-0}
    39fc:	01000003 	tsteq	r0, r3
    3a00:	00006893 	muleq	r0, r3, r8
    3a04:	00231f00 	eoreq	r1, r3, r0, lsl #30
    3a08:	0a242800 	beq	90da10 <__bss_end__+0x8fee98>
    3a0c:	93010000 	movwls	r0, #4096	; 0x1000
    3a10:	00000068 	andeq	r0, r0, r8, rrx
    3a14:	2c009102 	stfcsd	f1, [r0], {2}
    3a18:	007a686d 	rsbseq	r6, sl, sp, ror #16
    3a1c:	002c9b01 	eoreq	r9, ip, r1, lsl #22
    3a20:	27000000 	strcs	r0, [r0, -r0]
    3a24:	752629b9 	strvc	r2, [r6, #-2489]!	; 0x9b9
    3a28:	0100000a 	tsteq	r0, sl
    3a2c:	00002c9c 	muleq	r0, ip, ip
    3a30:	00233d00 	eoreq	r3, r3, r0, lsl #26
    3a34:	01af2900 			; <UNDEFINED> instruction: 0x01af2900
    3a38:	0e240000 	cdpeq	0, 2, cr0, cr4, cr0, {0}
    3a3c:	03050000 	movweq	r0, #20480	; 0x5000
    3a40:	0000a4cc 	andeq	sl, r0, ip, asr #9
    3a44:	009adc17 	addseq	sp, sl, r7, lsl ip
    3a48:	00000800 	andeq	r0, r0, r0, lsl #16
    3a4c:	000d9100 	andeq	r9, sp, r0, lsl #2
    3a50:	6e692d00 	cdpvs	13, 6, cr2, cr9, cr0, {0}
    3a54:	2c970100 	ldfcss	f0, [r7], {0}
    3a58:	01000000 	mrseq	r0, (UNDEF: 0)
    3a5c:	9ad42500 	bls	ff50ce64 <__bss_end__+0xff4fe2ec>
    3a60:	118b0000 	orrne	r0, fp, r0
    3a64:	0da50000 	stceq	0, cr0, [r5]
    3a68:	01200000 	teqeq	r0, r0
    3a6c:	00760250 	rsbseq	r0, r6, r0, asr r2
    3a70:	9adc2500 	bls	ff70ce78 <__bss_end__+0xff6fe300>
    3a74:	119c0000 	orrsne	r0, ip, r0
    3a78:	0db90000 	ldceq	0, cr0, [r9]
    3a7c:	01200000 	teqeq	r0, r0
    3a80:	00780250 	rsbseq	r0, r8, r0, asr r2
    3a84:	9af02500 	bls	ffc0ce8c <__bss_end__+0xffbfe314>
    3a88:	11310000 	teqne	r1, r0
    3a8c:	0dd20000 	ldcleq	0, cr0, [r2]
    3a90:	01200000 	teqeq	r0, r0
    3a94:	20310151 	eorscs	r0, r1, r1, asr r1
    3a98:	76025001 	strvc	r5, [r2], -r1
    3a9c:	34240000 	strtcc	r0, [r4], #-0
    3aa0:	6700009b 			; <UNDEFINED> instruction: 0x6700009b
    3aa4:	25000011 	strcs	r0, [r0, #-17]
    3aa8:	00009b48 	andeq	r9, r0, r8, asr #22
    3aac:	0000116e 	andeq	r1, r0, lr, ror #2
    3ab0:	00000e0a 	andeq	r0, r0, sl, lsl #28
    3ab4:	02530120 	subseq	r0, r3, #32, 2
    3ab8:	01209d08 	teqeq	r0, r8, lsl #26
    3abc:	cc030552 	cfstr32gt	mvfx0, [r3], {82}	; 0x52
    3ac0:	200000a4 	andcs	r0, r0, r4, lsr #1
    3ac4:	03055101 	movweq	r5, #20737	; 0x5101
    3ac8:	0000a534 	andeq	sl, r0, r4, lsr r5
    3acc:	05500120 	ldrbeq	r0, [r0, #-288]	; 0x120
    3ad0:	00a54803 	adceq	r4, r5, r3, lsl #16
    3ad4:	4c240000 	stcmi	0, cr0, [r4], #-0
    3ad8:	8400009b 	strhi	r0, [r0], #-155	; 0x9b
    3adc:	00000011 	andeq	r0, r0, r1, lsl r0
    3ae0:	0000902a 	andeq	r9, r0, sl, lsr #32
    3ae4:	000e2400 	andeq	r2, lr, r0, lsl #8
    3ae8:	00812b00 	addeq	r2, r1, r0, lsl #22
    3aec:	00130000 	andseq	r0, r3, r0
    3af0:	000e1407 	andeq	r1, lr, r7, lsl #8
    3af4:	0a682300 	beq	1a0c6fc <__bss_end__+0x19fdb84>
    3af8:	a9010000 	stmdbge	r1, {}	; <UNPREDICTABLE>
    3afc:	00000025 	andeq	r0, r0, r5, lsr #32
    3b00:	00009b74 	andeq	r9, r0, r4, ror fp
    3b04:	0000003c 	andeq	r0, r0, ip, lsr r0
    3b08:	0ecc9c01 	cdpeq	12, 12, cr9, cr12, cr1, {0}
    3b0c:	f7130000 			; <UNDEFINED> instruction: 0xf7130000
    3b10:	01000006 	tsteq	r0, r6
    3b14:	000722a9 	andeq	r2, r7, r9, lsr #5
    3b18:	00236b00 	eoreq	r6, r3, r0, lsl #22
    3b1c:	65721600 	ldrbvs	r1, [r2, #-1536]!	; 0x600
    3b20:	aa010073 	bge	43cf4 <__bss_end__+0x3517c>
    3b24:	00000025 	andeq	r0, r0, r5, lsr #32
    3b28:	0000238c 	andeq	r2, r0, ip, lsl #7
    3b2c:	0001af29 	andeq	sl, r1, r9, lsr #30
    3b30:	000edc00 	andeq	sp, lr, r0, lsl #24
    3b34:	e0030500 	and	r0, r3, r0, lsl #10
    3b38:	250000a4 	strcs	r0, [r0, #-164]	; 0xa4
    3b3c:	00009b80 	andeq	r9, r0, r0, lsl #23
    3b40:	00000762 	andeq	r0, r0, r2, ror #14
    3b44:	00000e8a 	andeq	r0, r0, sl, lsl #29
    3b48:	02510120 	subseq	r0, r1, #32, 2
    3b4c:	0120ff09 	msreq	LR_irq, r9
    3b50:	01f30350 	mvnseq	r0, r0, asr r3
    3b54:	8c240050 	stchi	0, cr0, [r4], #-320	; 0xfffffec0
    3b58:	6700009b 			; <UNDEFINED> instruction: 0x6700009b
    3b5c:	25000011 	strcs	r0, [r0, #-17]
    3b60:	00009ba0 	andeq	r9, r0, r0, lsr #23
    3b64:	0000116e 	andeq	r1, r0, lr, ror #2
    3b68:	00000ec2 	andeq	r0, r0, r2, asr #29
    3b6c:	02530120 	subseq	r0, r3, #32, 2
    3b70:	0120ac08 	teqeq	r0, r8, lsl #24
    3b74:	e0030552 	and	r0, r3, r2, asr r5
    3b78:	200000a4 	andcs	r0, r0, r4, lsr #1
    3b7c:	03055101 	movweq	r5, #20737	; 0x5101
    3b80:	0000a534 	andeq	sl, r0, r4, lsr r5
    3b84:	05500120 	ldrbeq	r0, [r0, #-288]	; 0x120
    3b88:	00a58c03 	adceq	r8, r5, r3, lsl #24
    3b8c:	a4240000 	strtge	r0, [r4], #-0
    3b90:	8400009b 	strhi	r0, [r0], #-155	; 0x9b
    3b94:	00000011 	andeq	r0, r0, r1, lsl r0
    3b98:	0000902a 	andeq	r9, r0, sl, lsr #32
    3b9c:	000edc00 	andeq	sp, lr, r0, lsl #24
    3ba0:	00812b00 	addeq	r2, r1, r0, lsl #22
    3ba4:	000c0000 	andeq	r0, ip, r0
    3ba8:	000ecc07 	andeq	ip, lr, r7, lsl #24
    3bac:	0a981200 	beq	fe6083b4 <__bss_end__+0xfe5f983c>
    3bb0:	b0010000 	andlt	r0, r1, r0
    3bb4:	00009bb0 			; <UNDEFINED> instruction: 0x00009bb0
    3bb8:	0000002c 	andeq	r0, r0, ip, lsr #32
    3bbc:	0f259c01 	svceq	0x00259c01
    3bc0:	f7130000 			; <UNDEFINED> instruction: 0xf7130000
    3bc4:	01000006 	tsteq	r0, r6
    3bc8:	000722b0 			; <UNDEFINED> instruction: 0x000722b0
    3bcc:	00239f00 	eoreq	r9, r3, r0, lsl #30
    3bd0:	736d1400 	cmnvc	sp, #0, 8
    3bd4:	b0010067 	andlt	r0, r1, r7, rrx
    3bd8:	00000097 	muleq	r0, r7, r0
    3bdc:	000023bd 			; <UNDEFINED> instruction: 0x000023bd
    3be0:	009bc81f 	addseq	ip, fp, pc, lsl r8
    3be4:	00017600 	andeq	r7, r1, r0, lsl #12
    3be8:	50012000 	andpl	r2, r1, r0
    3bec:	00007502 	andeq	r7, r0, r2, lsl #10
    3bf0:	06fc2300 	ldrbteq	r2, [ip], r0, lsl #6
    3bf4:	b9010000 	stmdblt	r1, {}	; <UNPREDICTABLE>
    3bf8:	00000025 	andeq	r0, r0, r5, lsr #32
    3bfc:	00009bdc 	ldrdeq	r9, [r0], -ip
    3c00:	00000084 	andeq	r0, r0, r4, lsl #1
    3c04:	10199c01 	andsne	r9, r9, r1, lsl #24
    3c08:	f7130000 			; <UNDEFINED> instruction: 0xf7130000
    3c0c:	01000006 	tsteq	r0, r6
    3c10:	000722b9 			; <UNDEFINED> instruction: 0x000722b9
    3c14:	0023db00 	eoreq	sp, r3, r0, lsl #22
    3c18:	6d662e00 	stclvs	14, cr2, [r6, #-0]
    3c1c:	b9010074 	stmdblt	r1, {r2, r4, r5, r6}
    3c20:	00000097 	muleq	r0, r7, r0
    3c24:	2f749102 	svccs	0x00749102
    3c28:	66756215 			; <UNDEFINED> instruction: 0x66756215
    3c2c:	19ba0100 	ldmibne	sl!, {r8}
    3c30:	03000010 	movweq	r0, #16
    3c34:	187c9c91 	ldmdane	ip!, {r0, r4, r7, sl, fp, ip, pc}^
    3c38:	000005db 	ldrdeq	r0, [r0], -fp
    3c3c:	0106bc01 	tsteq	r6, r1, lsl #24
    3c40:	91030000 	mrsls	r0, (UNDEF: 3)
    3c44:	73167c98 	tstvc	r6, #152, 24	; 0x9800
    3c48:	be01007a 	mcrlt	0, 0, r0, cr1, cr10, {3}
    3c4c:	00000025 	andeq	r0, r0, r5, lsr #32
    3c50:	00002407 	andeq	r2, r0, r7, lsl #8
    3c54:	0001af29 	andeq	sl, r1, r9, lsr #30
    3c58:	00103a00 	andseq	r3, r0, r0, lsl #20
    3c5c:	f0030500 			; <UNDEFINED> instruction: 0xf0030500
    3c60:	250000a4 	strcs	r0, [r0, #-164]	; 0xa4
    3c64:	00009c04 	andeq	r9, r0, r4, lsl #24
    3c68:	000011ad 	andeq	r1, r0, sp, lsr #3
    3c6c:	00000fc0 	andeq	r0, r0, r0, asr #31
    3c70:	02530120 	subseq	r0, r3, #32, 2
    3c74:	01205891 			; <UNDEFINED> instruction: 0x01205891
    3c78:	54910352 	ldrpl	r0, [r1], #850	; 0x352
    3c7c:	51012006 	tstpl	r1, r6
    3c80:	01cc0a03 	biceq	r0, ip, r3, lsl #20
    3c84:	03500120 	cmpeq	r0, #32, 2
    3c88:	007bfc91 			; <UNDEFINED> instruction: 0x007bfc91
    3c8c:	009c1824 	addseq	r1, ip, r4, lsr #16
    3c90:	00116700 	andseq	r6, r1, r0, lsl #14
    3c94:	9c2c2500 	cfstr32ls	mvfx2, [ip], #-0
    3c98:	116e0000 	cmnne	lr, r0
    3c9c:	0ff80000 	svceq	0x00f80000
    3ca0:	01200000 	teqeq	r0, r0
    3ca4:	c0080253 	andgt	r0, r8, r3, asr r2
    3ca8:	05520120 	ldrbeq	r0, [r2, #-288]	; 0x120
    3cac:	00a4f003 	adceq	pc, r4, r3
    3cb0:	51012000 	mrspl	r2, (UNDEF: 1)
    3cb4:	a5340305 	ldrge	r0, [r4, #-773]!	; 0x305
    3cb8:	01200000 	teqeq	r0, r0
    3cbc:	c4030550 	strgt	r0, [r3], #-1360	; 0x550
    3cc0:	000000a5 	andeq	r0, r0, r5, lsr #1
    3cc4:	009c3024 	addseq	r3, ip, r4, lsr #32
    3cc8:	00118400 	andseq	r8, r1, r0, lsl #8
    3ccc:	9c3c1f00 	ldcls	15, cr1, [ip], #-0
    3cd0:	0ee10000 	cdpeq	0, 14, cr0, cr1, cr0, {0}
    3cd4:	01200000 	teqeq	r0, r0
    3cd8:	fc910351 	ldc2	3, cr0, [r1], {81}	; 0x51
    3cdc:	5001207b 	andpl	r2, r1, fp, ror r0
    3ce0:	00007502 	andeq	r7, r0, r2, lsl #10
    3ce4:	00902a00 	addseq	r2, r0, r0, lsl #20
    3ce8:	102a0000 	eorne	r0, sl, r0
    3cec:	81300000 	teqhi	r0, r0
    3cf0:	cb000000 	blgt	3cf8 <_start-0x4308>
    3cf4:	902a0001 	eorls	r0, sl, r1
    3cf8:	3a000000 	bcc	3d00 <_start-0x4300>
    3cfc:	2b000010 	blcs	3d44 <_start-0x42bc>
    3d00:	00000081 	andeq	r0, r0, r1, lsl #1
    3d04:	2a07000e 	bcs	1c3d44 <__bss_end__+0x1b51cc>
    3d08:	23000010 	movwcs	r0, #16
    3d0c:	00000aec 	andeq	r0, r0, ip, ror #21
    3d10:	0025c501 	eoreq	ip, r5, r1, lsl #10
    3d14:	9c600000 	stclls	0, cr0, [r0], #-0
    3d18:	004c0000 	subeq	r0, ip, r0
    3d1c:	9c010000 	stcls	0, cr0, [r1], {-0}
    3d20:	0000111c 	andeq	r1, r0, ip, lsl r1
    3d24:	01007514 	tsteq	r0, r4, lsl r5
    3d28:	000722c5 	andeq	r2, r7, r5, asr #5
    3d2c:	00244600 	eoreq	r4, r4, r0, lsl #12
    3d30:	75621400 	strbvc	r1, [r2, #-1024]!	; 0x400
    3d34:	c5010066 	strgt	r0, [r1, #-102]	; 0x66
    3d38:	00000c02 	andeq	r0, r0, r2, lsl #24
    3d3c:	00002467 	andeq	r2, r0, r7, ror #8
    3d40:	000ad813 	andeq	sp, sl, r3, lsl r8
    3d44:	68c50100 	stmiavs	r5, {r8}^
    3d48:	88000000 	stmdahi	r0, {}	; <UNPREDICTABLE>
    3d4c:	14000024 	strne	r0, [r0], #-36	; 0x24
    3d50:	00646e65 	rsbeq	r6, r4, r5, ror #28
    3d54:	004fc501 	subeq	ip, pc, r1, lsl #10
    3d58:	24a90000 	strtcs	r0, [r9], #0
    3d5c:	72160000 	andsvc	r0, r6, #0
    3d60:	01007365 	tsteq	r0, r5, ror #6
    3d64:	000025c6 	andeq	r2, r0, r6, asr #11
    3d68:	0024ca00 	eoreq	ip, r4, r0, lsl #20
    3d6c:	01af2900 			; <UNDEFINED> instruction: 0x01af2900
    3d70:	112c0000 	teqne	ip, r0
    3d74:	03050000 	movweq	r0, #20480	; 0x5000
    3d78:	0000a500 	andeq	sl, r0, r0, lsl #10
    3d7c:	009c7425 	addseq	r7, ip, r5, lsr #8
    3d80:	000b1e00 	andeq	r1, fp, r0, lsl #28
    3d84:	0010da00 	andseq	sp, r0, r0, lsl #20
    3d88:	52012000 	andpl	r2, r1, #0
    3d8c:	5201f303 	andpl	pc, r1, #201326592	; 0xc000000
    3d90:	03510120 	cmpeq	r1, #32, 2
    3d94:	205101f3 	ldrshcs	r0, [r1], #-19	; 0xffffffed
    3d98:	f3035001 	vhadd.u8	d5, d3, d1
    3d9c:	02205001 	eoreq	r5, r0, #1
    3da0:	0902007d 	stmdbeq	r2, {r0, r2, r3, r4, r5, r6}
    3da4:	802400ff 	strdhi	r0, [r4], -pc	; <UNPREDICTABLE>
    3da8:	6700009c 			; <UNDEFINED> instruction: 0x6700009c
    3dac:	25000011 	strcs	r0, [r0, #-17]
    3db0:	00009c94 	muleq	r0, r4, ip
    3db4:	0000116e 	andeq	r1, r0, lr, ror #2
    3db8:	00001112 	andeq	r1, r0, r2, lsl r1
    3dbc:	02530120 	subseq	r0, r3, #32, 2
    3dc0:	0120c808 	teqeq	r0, r8, lsl #16
    3dc4:	00030552 	andeq	r0, r3, r2, asr r5
    3dc8:	200000a5 	andcs	r0, r0, r5, lsr #1
    3dcc:	03055101 	movweq	r5, #20737	; 0x5101
    3dd0:	0000a534 	andeq	sl, r0, r4, lsr r5
    3dd4:	05500120 	ldrbeq	r0, [r0, #-288]	; 0x120
    3dd8:	00a58c03 	adceq	r8, r5, r3, lsl #24
    3ddc:	98240000 	stmdals	r4!, {}	; <UNPREDICTABLE>
    3de0:	8400009c 	strhi	r0, [r0], #-156	; 0x9c
    3de4:	00000011 	andeq	r0, r0, r1, lsl r0
    3de8:	0000902a 	andeq	r9, r0, sl, lsr #32
    3dec:	00112c00 	andseq	r2, r1, r0, lsl #24
    3df0:	00812b00 	addeq	r2, r1, r0, lsl #22
    3df4:	00160000 	andseq	r0, r6, r0
    3df8:	00111c07 	andseq	r1, r1, r7, lsl #24
    3dfc:	09983100 	ldmibeq	r8, {r8, ip, sp}
    3e00:	21060000 	mrscs	r0, (UNDEF: 6)
    3e04:	00001147 	andeq	r1, r0, r7, asr #2
    3e08:	00002c32 	andeq	r2, r0, r2, lsr ip
    3e0c:	002c3200 	eoreq	r3, ip, r0, lsl #4
    3e10:	33000000 	movwcc	r0, #0
    3e14:	0000080c 	andeq	r0, r0, ip, lsl #16
    3e18:	002c5707 	eoreq	r5, ip, r7, lsl #14
    3e1c:	36340000 	ldrtcc	r0, [r4], -r0
    3e20:	06000009 	streq	r0, [r0], -r9
    3e24:	00002524 	andeq	r2, r0, r4, lsr #10
    3e28:	00116700 	andseq	r6, r1, r0, lsl #14
    3e2c:	002c3200 	eoreq	r3, ip, r0, lsl #4
    3e30:	35000000 	strcc	r0, [r0, #-0]
    3e34:	000001a0 	andeq	r0, r0, r0, lsr #3
    3e38:	ca341e07 	bgt	d0b65c <__bss_end__+0xcfcae4>
    3e3c:	07000005 	streq	r0, [r0, -r5]
    3e40:	00002529 	andeq	r2, r0, r9, lsr #10
    3e44:	00118400 	andseq	r8, r1, r0, lsl #8
    3e48:	00973200 	addseq	r3, r7, r0, lsl #4
    3e4c:	002f0000 	eoreq	r0, pc, r0
    3e50:	00021735 	andeq	r1, r2, r5, lsr r7
    3e54:	31660700 	cmncc	r6, r0, lsl #14
    3e58:	000009e9 	andeq	r0, r0, r9, ror #19
    3e5c:	119c1d06 	orrsne	r1, ip, r6, lsl #26
    3e60:	2c320000 	ldccs	0, cr0, [r2], #-0
    3e64:	00000000 	andeq	r0, r0, r0
    3e68:	0009b231 	andeq	fp, r9, r1, lsr r2
    3e6c:	ad1c0600 	ldcge	6, cr0, [ip, #-0]
    3e70:	32000011 	andcc	r0, r0, #17
    3e74:	0000002c 	andeq	r0, r0, ip, lsr #32
    3e78:	05c73600 	strbeq	r3, [r7, #1536]	; 0x600
    3e7c:	02080000 	andeq	r0, r8, #0
    3e80:	00000025 	andeq	r0, r0, r5, lsr #32
    3e84:	00008a32 	andeq	r8, r0, r2, lsr sl
    3e88:	00253200 	eoreq	r3, r5, r0, lsl #4
    3e8c:	97320000 	ldrls	r0, [r2, -r0]!
    3e90:	32000000 	andcc	r0, r0, #0
    3e94:	00000106 	andeq	r0, r0, r6, lsl #2
    3e98:	03ff0000 	mvnseq	r0, #0
    3e9c:	00040000 	andeq	r0, r4, r0
    3ea0:	00001220 	andeq	r1, r0, r0, lsr #4
    3ea4:	03610104 	cmneq	r1, #4, 2
    3ea8:	a6010000 	strge	r0, [r1], -r0
    3eac:	6600000b 	strvs	r0, [r0], -fp
    3eb0:	ac000005 	stcge	0, cr0, [r0], {5}
    3eb4:	5400009c 	strpl	r0, [r0], #-156	; 0x9c
    3eb8:	2c000001 	stccs	0, cr0, [r0], {1}
    3ebc:	02000011 	andeq	r0, r0, #17
    3ec0:	6e690504 	cdpvs	5, 6, cr0, cr9, cr4, {0}
    3ec4:	04030074 	streq	r0, [r3], #-116	; 0x74
    3ec8:	00006407 	andeq	r6, r0, r7, lsl #8
    3ecc:	06010300 	streq	r0, [r1], -r0, lsl #6
    3ed0:	000002ab 	andeq	r0, r0, fp, lsr #5
    3ed4:	bf050203 	svclt	0x00050203
    3ed8:	03000002 	movweq	r0, #2
    3edc:	00a90504 	adceq	r0, r9, r4, lsl #10
    3ee0:	08030000 	stmdaeq	r3, {}	; <UNPREDICTABLE>
    3ee4:	0000a405 	andeq	sl, r0, r5, lsl #8
    3ee8:	08010300 	stmdaeq	r1, {r8, r9}
    3eec:	000002a9 	andeq	r0, r0, r9, lsr #5
    3ef0:	c5070203 	strgt	r0, [r7, #-515]	; 0x203
    3ef4:	03000001 	movweq	r0, #1
    3ef8:	005f0704 	subseq	r0, pc, r4, lsl #14
    3efc:	08030000 	stmdaeq	r3, {}	; <UNPREDICTABLE>
    3f00:	00005a07 	andeq	r5, r0, r7, lsl #20
    3f04:	07040300 	streq	r0, [r4, -r0, lsl #6]
    3f08:	00000229 	andeq	r0, r0, r9, lsr #4
    3f0c:	b2080103 	andlt	r0, r8, #-1073741824	; 0xc0000000
    3f10:	04000002 	streq	r0, [r0], #-2
    3f14:	b20c0201 	andlt	r0, ip, #268435456	; 0x10000000
    3f18:	05000000 	streq	r0, [r0, #-0]
    3f1c:	0000007f 	andeq	r0, r0, pc, ror r0
    3f20:	04410500 	strbeq	r0, [r1], #-1280	; 0x500
    3f24:	05010000 	streq	r0, [r1, #-0]
    3f28:	00000492 	muleq	r0, r2, r4
    3f2c:	04a10504 	strteq	r0, [r1], #1284	; 0x504
    3f30:	05050000 	streq	r0, [r5, #-0]
    3f34:	000004b0 			; <UNDEFINED> instruction: 0x000004b0
    3f38:	04bf0506 	ldrteq	r0, [pc], #1286	; 3f40 <_start-0x40c0>
    3f3c:	05070000 	streq	r0, [r7, #-0]
    3f40:	000004ce 	andeq	r0, r0, lr, asr #9
    3f44:	04dd0503 	ldrbeq	r0, [sp], #1283	; 0x503
    3f48:	00020000 	andeq	r0, r2, r0
    3f4c:	00047406 	andeq	r7, r4, r6, lsl #8
    3f50:	79150200 	ldmdbvc	r5, {r9}
    3f54:	07000000 	streq	r0, [r0, -r0]
    3f58:	00000b4f 	andeq	r0, r0, pc, asr #22
    3f5c:	9cac3701 	stcls	7, cr3, [ip], #4
    3f60:	009c0000 	addseq	r0, ip, r0
    3f64:	9c010000 	stcls	0, cr0, [r1], {-0}
    3f68:	000001c3 	andeq	r0, r0, r3, asr #3
    3f6c:	009cb408 	addseq	fp, ip, r8, lsl #8
    3f70:	0003a800 	andeq	sl, r3, r0, lsl #16
    3f74:	9cc00900 	stclls	9, cr0, [r0], {0}
    3f78:	03af0000 			; <UNDEFINED> instruction: 0x03af0000
    3f7c:	00f30000 	rscseq	r0, r3, r0
    3f80:	010a0000 	mrseq	r0, (UNDEF: 10)
    3f84:	0a320151 	beq	c844d0 <__bss_end__+0xc75958>
    3f88:	3e015001 	cdpcc	0, 0, cr5, cr1, cr1, {0}
    3f8c:	9ccc0900 	stclls	9, cr0, [ip], {0}
    3f90:	03af0000 			; <UNDEFINED> instruction: 0x03af0000
    3f94:	010b0000 	mrseq	r0, (UNDEF: 11)
    3f98:	010a0000 	mrseq	r0, (UNDEF: 10)
    3f9c:	0a320151 	beq	c844e8 <__bss_end__+0xc75970>
    3fa0:	3f015001 	svccc	0x00015001
    3fa4:	9cd00800 	ldclls	8, cr0, [r0], {0}
    3fa8:	03a80000 			; <UNDEFINED> instruction: 0x03a80000
    3fac:	e0090000 	and	r0, r9, r0
    3fb0:	c500009c 	strgt	r0, [r0, #-156]	; 0x9c
    3fb4:	28000003 	stmdacs	r0, {r0, r1}
    3fb8:	0a000001 	beq	3fc4 <_start-0x403c>
    3fbc:	75025001 	strvc	r5, [r2, #-1]
    3fc0:	ec090000 	stc	0, cr0, [r9], {-0}
    3fc4:	e600009c 			; <UNDEFINED> instruction: 0xe600009c
    3fc8:	3c000003 	stccc	0, cr0, [r0], {3}
    3fcc:	0a000001 	beq	3fd8 <_start-0x4028>
    3fd0:	75025001 	strvc	r5, [r2, #-1]
    3fd4:	f0080000 			; <UNDEFINED> instruction: 0xf0080000
    3fd8:	a800009c 	stmdage	r0, {r2, r3, r4, r7}
    3fdc:	09000003 	stmdbeq	r0, {r0, r1}
    3fe0:	00009cfc 	strdeq	r9, [r0], -ip
    3fe4:	000003e6 	andeq	r0, r0, r6, ror #7
    3fe8:	00000158 	andeq	r0, r0, r8, asr r1
    3fec:	0151010a 	cmpeq	r1, sl, lsl #2
    3ff0:	08090030 	stmdaeq	r9, {r4, r5}
    3ff4:	e600009d 			; <UNDEFINED> instruction: 0xe600009d
    3ff8:	6b000003 	blvs	400c <_start-0x3ff4>
    3ffc:	0a000001 	beq	4008 <_start-0x3ff8>
    4000:	30015101 	andcc	r5, r1, r1, lsl #2
    4004:	9d140900 	ldcls	9, cr0, [r4, #-0]
    4008:	03e60000 	mvneq	r0, #0
    400c:	017e0000 	cmneq	lr, r0
    4010:	010a0000 	mrseq	r0, (UNDEF: 10)
    4014:	00360151 	eorseq	r0, r6, r1, asr r1
    4018:	009d2009 	addseq	r2, sp, r9
    401c:	0003e600 	andeq	lr, r3, r0, lsl #12
    4020:	00019100 	andeq	r9, r1, r0, lsl #2
    4024:	51010a00 	tstpl	r1, r0, lsl #20
    4028:	09003301 	stmdbeq	r0, {r0, r8, r9, ip, sp}
    402c:	00009d2c 	andeq	r9, r0, ip, lsr #26
    4030:	000003e6 	andeq	r0, r0, r6, ror #7
    4034:	000001a6 	andeq	r0, r0, r6, lsr #3
    4038:	0351010a 	cmpeq	r1, #-2147483646	; 0x80000002
    403c:	00010e0a 	andeq	r0, r1, sl, lsl #28
    4040:	009d3809 	addseq	r3, sp, r9, lsl #16
    4044:	0003e600 	andeq	lr, r3, r0, lsl #12
    4048:	0001b900 	andeq	fp, r1, r0, lsl #18
    404c:	51010a00 	tstpl	r1, r0, lsl #20
    4050:	08003301 	stmdaeq	r0, {r0, r8, r9, ip, sp}
    4054:	00009d3c 	andeq	r9, r0, ip, lsr sp
    4058:	000003a8 	andeq	r0, r0, r8, lsr #7
    405c:	00c30b00 	sbceq	r0, r3, r0, lsl #22
    4060:	57010000 	strpl	r0, [r1, -r0]
    4064:	00000025 	andeq	r0, r0, r5, lsr #32
    4068:	00009d48 	andeq	r9, r0, r8, asr #26
    406c:	0000001c 	andeq	r0, r0, ip, lsl r0
    4070:	01e69c01 	mvneq	r9, r1, lsl #24
    4074:	58080000 	stmdapl	r8, {}	; <UNPREDICTABLE>
    4078:	c500009d 	strgt	r0, [r0, #-157]	; 0x9d
    407c:	00000003 	andeq	r0, r0, r3
    4080:	000a6b0b 	andeq	r6, sl, fp, lsl #22
    4084:	255d0100 	ldrbcs	r0, [sp, #-256]	; 0x100
    4088:	64000000 	strvs	r0, [r0], #-0
    408c:	2800009d 	stmdacs	r0, {r0, r2, r3, r4, r7}
    4090:	01000000 	mrseq	r0, (UNDEF: 0)
    4094:	0002129c 	muleq	r2, ip, r2
    4098:	9d6c0800 	stclls	8, cr0, [ip, #-0]
    409c:	01c30000 	biceq	r0, r3, r0
    40a0:	80080000 	andhi	r0, r8, r0
    40a4:	c500009d 	strgt	r0, [r0, #-157]	; 0x9d
    40a8:	00000003 	andeq	r0, r0, r3
    40ac:	0001540b 	andeq	r5, r1, fp, lsl #8
    40b0:	25640100 	strbcs	r0, [r4, #-256]!	; 0x100
    40b4:	8c000000 	stchi	0, cr0, [r0], {-0}
    40b8:	1c00009d 	stcne	0, cr0, [r0], {157}	; 0x9d
    40bc:	01000000 	mrseq	r0, (UNDEF: 0)
    40c0:	0002359c 	muleq	r2, ip, r5
    40c4:	9d9c0800 	ldcls	8, cr0, [ip]
    40c8:	03c50000 	biceq	r0, r5, #0
    40cc:	07000000 	streq	r0, [r0, -r0]
    40d0:	000001e9 	andeq	r0, r0, r9, ror #3
    40d4:	9da86a01 	stcls	10, cr6, [r8, #4]!
    40d8:	002c0000 	eoreq	r0, ip, r0
    40dc:	9c010000 	stcls	0, cr0, [r1], {-0}
    40e0:	00000271 	andeq	r0, r0, r1, ror r2
    40e4:	0100630c 	tsteq	r0, ip, lsl #6
    40e8:	00002c6a 	andeq	r2, r0, sl, ror #24
    40ec:	0024e800 	eoreq	lr, r4, r0, lsl #16
    40f0:	9db40800 	ldcls	8, cr0, [r4]
    40f4:	02120000 	andseq	r0, r2, #0
    40f8:	cc0d0000 	stcgt	0, cr0, [sp], {-0}
    40fc:	e600009d 			; <UNDEFINED> instruction: 0xe600009d
    4100:	0a000003 	beq	4114 <_start-0x3eec>
    4104:	74025101 	strvc	r5, [r2], #-257	; 0x101
    4108:	0b000000 	bleq	4110 <_start-0x3ef0>
    410c:	00000b41 	andeq	r0, r0, r1, asr #22
    4110:	00257401 	eoreq	r7, r5, r1, lsl #8
    4114:	9dd40000 	ldclls	0, cr0, [r4]
    4118:	000c0000 	andeq	r0, ip, r0
    411c:	9c010000 	stcls	0, cr0, [r1], {-0}
    4120:	00000294 	muleq	r0, r4, r2
    4124:	009ddc08 	addseq	sp, sp, r8, lsl #24
    4128:	0001c300 	andeq	ip, r1, r0, lsl #6
    412c:	d20b0000 	andle	r0, fp, #0
    4130:	0100000b 	tsteq	r0, fp
    4134:	00002578 	andeq	r2, r0, r8, ror r5
    4138:	009de000 	addseq	lr, sp, r0
    413c:	00002000 	andeq	r2, r0, r0
    4140:	c09c0100 	addsgt	r0, ip, r0, lsl #2
    4144:	08000002 	stmdaeq	r0, {r1}
    4148:	00009de8 	andeq	r9, r0, r8, ror #27
    414c:	00000271 	andeq	r0, r0, r1, ror r2
    4150:	009df408 	addseq	pc, sp, r8, lsl #8
    4154:	0001e600 	andeq	lr, r1, r0, lsl #12
    4158:	970e0000 	strls	r0, [lr, -r0]
    415c:	01000002 	tsteq	r0, r2
    4160:	0002d116 	andeq	sp, r2, r6, lsl r1
    4164:	24030500 	strcs	r0, [r3], #-1280	; 0x500
    4168:	0f0000a2 	svceq	0x000000a2
    416c:	0002d704 	andeq	sp, r2, r4, lsl #14
    4170:	002c1000 	eoreq	r1, ip, r0
    4174:	270e0000 	strcs	r0, [lr, -r0]
    4178:	01000001 	tsteq	r0, r1
    417c:	0002d117 	andeq	sp, r2, r7, lsl r1
    4180:	f4030500 	vst3.8	{d0,d2,d4}, [r3], r0
    4184:	0e0000a1 	cdpeq	0, 0, cr0, cr0, cr1, {5}
    4188:	00000192 	muleq	r0, r2, r1
    418c:	02d11a01 	sbcseq	r1, r1, #4096	; 0x1000
    4190:	03050000 	movweq	r0, #20480	; 0x5000
    4194:	0000a210 	andeq	sl, r0, r0, lsl r2
    4198:	000b590e 	andeq	r5, fp, lr, lsl #18
    419c:	d11b0100 	tstle	fp, r0, lsl #2
    41a0:	05000002 	streq	r0, [r0, #-2]
    41a4:	00a1fc03 	adceq	pc, r1, r3, lsl #24
    41a8:	0b680e00 	bleq	1a079b0 <__bss_end__+0x19f8e38>
    41ac:	1c010000 	stcne	0, cr0, [r1], {-0}
    41b0:	000002d1 	ldrdeq	r0, [r0], -r1
    41b4:	a2000305 	andge	r0, r0, #335544320	; 0x14000000
    41b8:	b40e0000 	strlt	r0, [lr], #-0
    41bc:	0100000b 	tsteq	r0, fp
    41c0:	0002d11d 	andeq	sp, r2, sp, lsl r1
    41c4:	04030500 	streq	r0, [r3], #-1280	; 0x500
    41c8:	0e0000a2 	cdpeq	0, 0, cr0, cr0, cr2, {5}
    41cc:	00000b13 	andeq	r0, r0, r3, lsl fp
    41d0:	02d11e01 	sbcseq	r1, r1, #1, 28
    41d4:	03050000 	movweq	r0, #20480	; 0x5000
    41d8:	0000a220 	andeq	sl, r0, r0, lsr #4
    41dc:	000bc30e 	andeq	ip, fp, lr, lsl #6
    41e0:	d11f0100 	tstle	pc, r0, lsl #2
    41e4:	05000002 	streq	r0, [r0, #-2]
    41e8:	00a20c03 	adceq	r0, r2, r3, lsl #24
    41ec:	0b220e00 	bleq	8879f4 <__bss_end__+0x878e7c>
    41f0:	20010000 	andcs	r0, r1, r0
    41f4:	000002d1 	ldrdeq	r0, [r0], -r1
    41f8:	a21c0305 	andsge	r0, ip, #335544320	; 0x14000000
    41fc:	970e0000 	strls	r0, [lr, -r0]
    4200:	0100000b 	tsteq	r0, fp
    4204:	0002d121 	andeq	sp, r2, r1, lsr #2
    4208:	18030500 	stmdane	r3, {r8, sl}
    420c:	0e0000a2 	cdpeq	0, 0, cr0, cr0, cr2, {5}
    4210:	00000b31 	andeq	r0, r0, r1, lsr fp
    4214:	02d12201 	sbcseq	r2, r1, #268435456	; 0x10000000
    4218:	03050000 	movweq	r0, #20480	; 0x5000
    421c:	0000a1f8 	strdeq	sl, [r0], -r8
    4220:	000b870e 	andeq	r8, fp, lr, lsl #14
    4224:	d1230100 	teqle	r3, r0, lsl #2
    4228:	05000002 	streq	r0, [r0, #-2]
    422c:	00a21403 	adceq	r1, r2, r3, lsl #8
    4230:	0b770e00 	bleq	1dc7a38 <__bss_end__+0x1db8ec0>
    4234:	24010000 	strcs	r0, [r1], #-0
    4238:	000002d1 	ldrdeq	r0, [r0], -r1
    423c:	a2080305 	andge	r0, r8, #335544320	; 0x14000000
    4240:	0f110000 	svceq	0x00110000
    4244:	03000001 	movweq	r0, #1
    4248:	02321287 	eorseq	r1, r2, #1879048200	; 0x70000008
    424c:	19020000 	stmdbne	r2, {}	; <UNPREDICTABLE>
    4250:	000003c5 	andeq	r0, r0, r5, asr #7
    4254:	00002c13 	andeq	r2, r0, r3, lsl ip
    4258:	00b21300 	adcseq	r1, r2, r0, lsl #6
    425c:	14000000 	strne	r0, [r0], #-0
    4260:	0000045a 	andeq	r0, r0, sl, asr r4
    4264:	002ca603 	eoreq	sl, ip, r3, lsl #12
    4268:	03da0000 	bicseq	r0, sl, #0
    426c:	da130000 	ble	4c4274 <__bss_end__+0x4b56fc>
    4270:	00000003 	andeq	r0, r0, r3
    4274:	03e0040f 	mvneq	r0, #251658240	; 0xf000000
    4278:	e5150000 	ldr	r0, [r5, #-0]
    427c:	16000003 	strne	r0, [r0], -r3
    4280:	0003c712 	andeq	ip, r3, r2, lsl r7
    4284:	fc9a0300 	ldc2	3, cr0, [sl], {0}
    4288:	13000003 	movwne	r0, #3
    428c:	000003fc 	strdeq	r0, [r0], -ip
    4290:	00002c13 	andeq	r2, r0, r3, lsl ip
    4294:	040f0000 	streq	r0, [pc], #-0	; 429c <_start-0x3d64>
    4298:	000003e5 	andeq	r0, r0, r5, ror #7
    429c:	00058d00 	andeq	r8, r5, r0, lsl #26
    42a0:	4e000400 	cfcpysmi	mvf0, mvf0
    42a4:	04000013 	streq	r0, [r0], #-19
    42a8:	00036101 	andeq	r6, r3, r1, lsl #2
    42ac:	0c9d0100 	ldfeqs	f0, [sp], {0}
    42b0:	05660000 	strbeq	r0, [r6, #-0]!
    42b4:	9e000000 	cdpls	0, 0, cr0, cr0, cr0, {0}
    42b8:	02000000 	andeq	r0, r0, #0
    42bc:	12310000 	eorsne	r0, r1, #0
    42c0:	04020000 	streq	r0, [r2], #-0
    42c4:	746e6905 	strbtvc	r6, [lr], #-2309	; 0x905
    42c8:	07040300 	streq	r0, [r4, -r0, lsl #6]
    42cc:	00000064 	andeq	r0, r0, r4, rrx
    42d0:	ab060103 	blge	1846e4 <__bss_end__+0x175b6c>
    42d4:	03000002 	movweq	r0, #2
    42d8:	02bf0502 	adcseq	r0, pc, #8388608	; 0x800000
    42dc:	04030000 	streq	r0, [r3], #-0
    42e0:	0000a905 	andeq	sl, r0, r5, lsl #18
    42e4:	05080300 	streq	r0, [r8, #-768]	; 0x300
    42e8:	000000a4 	andeq	r0, r0, r4, lsr #1
    42ec:	a9080103 	stmdbge	r8, {r0, r1, r8}
    42f0:	03000002 	movweq	r0, #2
    42f4:	01c50702 	biceq	r0, r5, r2, lsl #14
    42f8:	04030000 	streq	r0, [r3], #-0
    42fc:	00005f07 	andeq	r5, r0, r7, lsl #30
    4300:	07080300 	streq	r0, [r8, -r0, lsl #6]
    4304:	0000005a 	andeq	r0, r0, sl, asr r0
    4308:	29070403 	stmdbcs	r7, {r0, r1, sl}
    430c:	03000002 	movweq	r0, #2
    4310:	02b20801 	adcseq	r0, r2, #65536	; 0x10000
    4314:	04040000 	streq	r0, [r4], #-0
    4318:	0000007f 	andeq	r0, r0, pc, ror r0
    431c:	00007205 	andeq	r7, r0, r5, lsl #4
    4320:	00720600 	rsbseq	r0, r2, r0, lsl #12
    4324:	00940000 	addseq	r0, r4, r0
    4328:	6b070000 	blvs	1c4330 <__bss_end__+0x1b57b8>
    432c:	19000000 	stmdbne	r0, {}	; <UNPREDICTABLE>
    4330:	03040800 	movweq	r0, #18432	; 0x4800
    4334:	00010b14 	andeq	r0, r1, r4, lsl fp
    4338:	0d430900 	stcleq	9, cr0, [r3, #-0]
    433c:	e4800000 	str	r0, [r0], #0
    4340:	09028082 	stmdbeq	r2, {r1, r7, pc}
    4344:	00000c28 	andeq	r0, r0, r8, lsr #24
    4348:	8082e480 	addhi	lr, r2, r0, lsl #9
    434c:	0cbd0902 	ldceq	9, cr0, [sp], #8
    4350:	e4840000 	str	r0, [r4], #0
    4354:	09028082 	stmdbeq	r2, {r1, r7, pc}
    4358:	00000c8f 	andeq	r0, r0, pc, lsl #25
    435c:	8082e488 	addhi	lr, r2, r8, lsl #9
    4360:	0c0b0902 	stceq	9, cr0, [fp], {2}
    4364:	e48c0000 	str	r0, [ip], #0
    4368:	09028082 	stmdbeq	r2, {r1, r7, pc}
    436c:	00000c4c 	andeq	r0, r0, ip, asr #24
    4370:	8082e490 	umullhi	lr, r2, r0, r4
    4374:	0c5a0902 	mrrceq	9, 0, r0, sl, cr2
    4378:	e4940000 	ldr	r0, [r4], #0
    437c:	09028082 	stmdbeq	r2, {r1, r7, pc}
    4380:	00000c3a 	andeq	r0, r0, sl, lsr ip
    4384:	8082e498 	umullhi	lr, r2, r8, r4
    4388:	0d0f0902 	stceq	9, cr0, [pc, #-8]	; 4388 <_start-0x3c78>
    438c:	e49c0000 	ldr	r0, [ip], #0
    4390:	09028082 	stmdbeq	r2, {r1, r7, pc}
    4394:	00000d1e 	andeq	r0, r0, lr, lsl sp
    4398:	8082e4a0 	addhi	lr, r2, r0, lsr #9
    439c:	0bf80902 	bleq	ffe067ac <__bss_end__+0xffdf7c34>
    43a0:	e4a40000 	strt	r0, [r4], #0
    43a4:	00028082 	andeq	r8, r2, r2, lsl #1
    43a8:	0002750a 	andeq	r7, r2, sl, lsl #10
    43ac:	00050100 	andeq	r0, r5, r0, lsl #2
    43b0:	6800009e 	stmdavs	r0, {r1, r2, r3, r4, r7}
    43b4:	01000000 	mrseq	r0, (UNDEF: 0)
    43b8:	0001b79c 	muleq	r1, ip, r7
    43bc:	0c170b00 	ldceq	11, cr0, [r7], {-0}
    43c0:	11010000 	mrsne	r0, (UNDEF: 1)
    43c4:	0000002c 	andeq	r0, r0, ip, lsr #32
    43c8:	000c680b 	andeq	r6, ip, fp, lsl #16
    43cc:	2c120100 	ldfcss	f0, [r2], {-0}
    43d0:	0c000000 	stceq	0, cr0, [r0], {-0}
    43d4:	00747364 	rsbseq	r7, r4, r4, ror #6
    43d8:	01b71601 			; <UNDEFINED> instruction: 0x01b71601
    43dc:	0d000000 	stceq	0, cr0, [r0, #-0]
    43e0:	00637273 	rsbeq	r7, r3, r3, ror r2
    43e4:	01b71701 			; <UNDEFINED> instruction: 0x01b71701
    43e8:	6e0e0000 	cdpvs	0, 0, cr0, cr14, cr0, {0}
    43ec:	2c180100 	ldfcss	f0, [r8], {-0}
    43f0:	01000000 	mrseq	r0, (UNDEF: 0)
    43f4:	9e300f50 	mrcls	15, 1, r0, cr0, cr0, {2}
    43f8:	00240000 	eoreq	r0, r4, r0
    43fc:	01730000 	cmneq	r3, r0
    4400:	69100000 	ldmdbvs	r0, {}	; <UNPREDICTABLE>
    4404:	25190100 	ldrcs	r0, [r9, #-256]	; 0x100
    4408:	06000000 	streq	r0, [r0], -r0
    440c:	00000025 	andeq	r0, r0, r5, lsr #32
    4410:	009e1011 	addseq	r1, lr, r1, lsl r0
    4414:	00054f00 	andeq	r4, r5, r0, lsl #30
    4418:	00019000 	andeq	r9, r1, r0
    441c:	51011200 	mrspl	r1, R9_usr
    4420:	12ff0902 	rscsne	r0, pc, #32768	; 0x8000
    4424:	0c055001 	stceq	0, cr5, [r5], {1}
    4428:	2000b21c 	andcs	fp, r0, ip, lsl r2
    442c:	9e1c1100 	muflse	f1, f4, f0
    4430:	054f0000 	strbeq	r0, [pc, #-0]	; 4438 <_start-0x3bc8>
    4434:	01ad0000 			; <UNDEFINED> instruction: 0x01ad0000
    4438:	01120000 	tsteq	r2, r0
    443c:	ff090251 			; <UNDEFINED> instruction: 0xff090251
    4440:	05500112 	ldrbeq	r0, [r0, #-274]	; 0x112
    4444:	00b2200c 	adcseq	r2, r2, ip
    4448:	20130020 	andscs	r0, r3, r0, lsr #32
    444c:	6500009e 	strvs	r0, [r0, #-158]	; 0x9e
    4450:	00000005 	andeq	r0, r0, r5
    4454:	002c0404 	eoreq	r0, ip, r4, lsl #8
    4458:	2d0a0000 	stccs	0, cr0, [sl, #-0]
    445c:	0100000d 	tsteq	r0, sp
    4460:	009e681f 	addseq	r6, lr, pc, lsl r8
    4464:	00004400 	andeq	r4, r0, r0, lsl #8
    4468:	429c0100 	addsmi	r0, ip, #0, 2
    446c:	14000002 	strne	r0, [r0], #-2
    4470:	01006370 	tsteq	r0, r0, ror r3
    4474:	00002c1f 	andeq	r2, r0, pc, lsl ip
    4478:	00252500 	eoreq	r2, r5, r0, lsl #10
    447c:	01af1500 			; <UNDEFINED> instruction: 0x01af1500
    4480:	02520000 	subseq	r0, r2, #0
    4484:	03050000 	movweq	r0, #20480	; 0x5000
    4488:	0000a5e8 	andeq	sl, r0, r8, ror #11
    448c:	009e7813 	addseq	r7, lr, r3, lsl r8
    4490:	00056c00 	andeq	r6, r5, r0, lsl #24
    4494:	9e981100 	fmllse	f1, f0, f0
    4498:	05730000 	ldrbeq	r0, [r3, #-0]!
    449c:	02380000 	eorseq	r0, r8, #0
    44a0:	01120000 	tsteq	r2, r0
    44a4:	20080253 	andcs	r0, r8, r3, asr r2
    44a8:	05520112 	ldrbeq	r0, [r2, #-274]	; 0x112
    44ac:	00a5e803 	adceq	lr, r5, r3, lsl #16
    44b0:	51011200 	mrspl	r1, R9_usr
    44b4:	a6b40305 	ldrtge	r0, [r4], r5, lsl #6
    44b8:	01120000 	tsteq	r2, r0
    44bc:	78030550 	stmdavc	r3, {r4, r6, r8, sl}
    44c0:	120000a6 	andne	r0, r0, #166	; 0xa6
    44c4:	02047d02 	andeq	r7, r4, #2, 26	; 0x80
    44c8:	02120074 	andseq	r0, r2, #116	; 0x74
    44cc:	0305007d 	movweq	r0, #20605	; 0x507d
    44d0:	0000a6d4 	ldrdeq	sl, [r0], -r4
    44d4:	9e9c1300 	cdpls	3, 9, cr1, cr12, cr0, {0}
    44d8:	05890000 	streq	r0, [r9]
    44dc:	06000000 	streq	r0, [r0], -r0
    44e0:	00000072 	andeq	r0, r0, r2, ror r0
    44e4:	00000252 	andeq	r0, r0, r2, asr r2
    44e8:	00006b07 	andeq	r6, r0, r7, lsl #22
    44ec:	05001500 	streq	r1, [r0, #-1280]	; 0x500
    44f0:	00000242 	andeq	r0, r0, r2, asr #4
    44f4:	000cf50a 	andeq	pc, ip, sl, lsl #10
    44f8:	ac240100 	stfges	f0, [r4], #-0
    44fc:	4400009e 	strmi	r0, [r0], #-158	; 0x9e
    4500:	01000000 	mrseq	r0, (UNDEF: 0)
    4504:	0002dc9c 	muleq	r2, ip, ip
    4508:	63701400 	cmnvs	r0, #0, 8
    450c:	2c240100 	stfcss	f0, [r4], #-0
    4510:	43000000 	movwmi	r0, #0
    4514:	15000025 	strne	r0, [r0, #-37]	; 0x25
    4518:	000001af 	andeq	r0, r0, pc, lsr #3
    451c:	000002dc 	ldrdeq	r0, [r0], -ip
    4520:	a6000305 	strge	r0, [r0], -r5, lsl #6
    4524:	bc130000 	ldclt	0, cr0, [r3], {-0}
    4528:	6c00009e 	stcvs	0, cr0, [r0], {158}	; 0x9e
    452c:	11000005 	tstne	r0, r5
    4530:	00009edc 	ldrdeq	r9, [r0], -ip
    4534:	00000573 	andeq	r0, r0, r3, ror r5
    4538:	000002d2 	ldrdeq	r0, [r0], -r2
    453c:	02530112 	subseq	r0, r3, #-2147483644	; 0x80000004
    4540:	01122508 	tsteq	r2, r8, lsl #10
    4544:	00030552 	andeq	r0, r3, r2, asr r5
    4548:	120000a6 	andne	r0, r0, #166	; 0xa6
    454c:	03055101 	movweq	r5, #20737	; 0x5101
    4550:	0000a6b4 			; <UNDEFINED> instruction: 0x0000a6b4
    4554:	05500112 	ldrbeq	r0, [r0, #-274]	; 0x112
    4558:	00a67803 	adceq	r7, r6, r3, lsl #16
    455c:	7d021200 	sfmvc	f1, 4, [r2, #-0]
    4560:	00740204 	rsbseq	r0, r4, r4, lsl #4
    4564:	007d0212 	rsbseq	r0, sp, r2, lsl r2
    4568:	a6dc0305 	ldrbge	r0, [ip], r5, lsl #6
    456c:	13000000 	movwne	r0, #0
    4570:	00009ee0 	andeq	r9, r0, r0, ror #29
    4574:	00000589 	andeq	r0, r0, r9, lsl #11
    4578:	00840500 	addeq	r0, r4, r0, lsl #10
    457c:	e80a0000 	stmda	sl, {}	; <UNPREDICTABLE>
    4580:	0100000c 	tsteq	r0, ip
    4584:	009ef027 	addseq	pc, lr, r7, lsr #32
    4588:	00004400 	andeq	r4, r0, r0, lsl #8
    458c:	669c0100 	ldrvs	r0, [ip], r0, lsl #2
    4590:	14000003 	strne	r0, [r0], #-3
    4594:	01006370 	tsteq	r0, r0, ror r3
    4598:	00002c27 	andeq	r2, r0, r7, lsr #24
    459c:	00256100 	eoreq	r6, r5, r0, lsl #2
    45a0:	01af1500 			; <UNDEFINED> instruction: 0x01af1500
    45a4:	03760000 	cmneq	r6, #0
    45a8:	03050000 	movweq	r0, #20480	; 0x5000
    45ac:	0000a61c 	andeq	sl, r0, ip, lsl r6
    45b0:	009f0013 	addseq	r0, pc, r3, lsl r0	; <UNPREDICTABLE>
    45b4:	00056c00 	andeq	r6, r5, r0, lsl #24
    45b8:	9f201100 	svcls	0x00201100
    45bc:	05730000 	ldrbeq	r0, [r3, #-0]!
    45c0:	035c0000 	cmpeq	ip, #0
    45c4:	01120000 	tsteq	r2, r0
    45c8:	28080253 	stmdacs	r8, {r0, r1, r4, r6, r9}
    45cc:	05520112 	ldrbeq	r0, [r2, #-274]	; 0x112
    45d0:	00a61c03 	adceq	r1, r6, r3, lsl #24
    45d4:	51011200 	mrspl	r1, R9_usr
    45d8:	a6b40305 	ldrtge	r0, [r4], r5, lsl #6
    45dc:	01120000 	tsteq	r2, r0
    45e0:	78030550 	stmdavc	r3, {r4, r6, r8, sl}
    45e4:	120000a6 	andne	r0, r0, #166	; 0xa6
    45e8:	02047d02 	andeq	r7, r4, #2, 26	; 0x80
    45ec:	02120074 	andseq	r0, r2, #116	; 0x74
    45f0:	0305007d 	movweq	r0, #20605	; 0x507d
    45f4:	0000a6ec 	andeq	sl, r0, ip, ror #13
    45f8:	9f241300 	svcls	0x00241300
    45fc:	05890000 	streq	r0, [r9]
    4600:	06000000 	streq	r0, [r0], -r0
    4604:	00000072 	andeq	r0, r0, r2, ror r0
    4608:	00000376 	andeq	r0, r0, r6, ror r3
    460c:	00006b07 	andeq	r6, r0, r7, lsl #22
    4610:	05000c00 	streq	r0, [r0, #-3072]	; 0xc00
    4614:	00000366 	andeq	r0, r0, r6, ror #6
    4618:	000ccb0a 	andeq	ip, ip, sl, lsl #22
    461c:	342a0100 	strtcc	r0, [sl], #-256	; 0x100
    4620:	4400009f 	strmi	r0, [r0], #-159	; 0x9f
    4624:	01000000 	mrseq	r0, (UNDEF: 0)
    4628:	0004009c 	muleq	r4, ip, r0
    462c:	63701400 	cmnvs	r0, #0, 8
    4630:	2c2a0100 	stfcss	f0, [sl], #-0
    4634:	7f000000 	svcvc	0x00000000
    4638:	15000025 	strne	r0, [r0, #-37]	; 0x25
    463c:	000001af 	andeq	r0, r0, pc, lsr #3
    4640:	00000410 	andeq	r0, r0, r0, lsl r4
    4644:	a62c0305 	strtge	r0, [ip], -r5, lsl #6
    4648:	44130000 	ldrmi	r0, [r3], #-0
    464c:	6c00009f 	stcvs	0, cr0, [r0], {159}	; 0x9f
    4650:	11000005 	tstne	r0, r5
    4654:	00009f64 	andeq	r9, r0, r4, ror #30
    4658:	00000573 	andeq	r0, r0, r3, ror r5
    465c:	000003f6 	strdeq	r0, [r0], -r6
    4660:	02530112 	subseq	r0, r3, #-2147483644	; 0x80000004
    4664:	01122b08 	tsteq	r2, r8, lsl #22
    4668:	2c030552 	cfstr32cs	mvfx0, [r3], {82}	; 0x52
    466c:	120000a6 	andne	r0, r0, #166	; 0xa6
    4670:	03055101 	movweq	r5, #20737	; 0x5101
    4674:	0000a6b4 			; <UNDEFINED> instruction: 0x0000a6b4
    4678:	05500112 	ldrbeq	r0, [r0, #-274]	; 0x112
    467c:	00a67803 	adceq	r7, r6, r3, lsl #16
    4680:	7d021200 	sfmvc	f1, 4, [r2, #-0]
    4684:	00740204 	rsbseq	r0, r4, r4, lsl #4
    4688:	007d0212 	rsbseq	r0, sp, r2, lsl r2
    468c:	a6fc0305 	ldrbtge	r0, [ip], r5, lsl #6
    4690:	13000000 	movwne	r0, #0
    4694:	00009f68 	andeq	r9, r0, r8, ror #30
    4698:	00000589 	andeq	r0, r0, r9, lsl #11
    469c:	00720600 	rsbseq	r0, r2, r0, lsl #12
    46a0:	04100000 	ldreq	r0, [r0], #-0
    46a4:	6b070000 	blvs	1c46ac <__bss_end__+0x1b5b34>
    46a8:	1c000000 	stcne	0, cr0, [r0], {-0}
    46ac:	04000500 	streq	r0, [r0], #-1280	; 0x500
    46b0:	e20a0000 	and	r0, sl, #0
    46b4:	0100000b 	tsteq	r0, fp
    46b8:	009f782d 	addseq	r7, pc, sp, lsr #16
    46bc:	00004400 	andeq	r4, r0, r0, lsl #8
    46c0:	9a9c0100 	bls	fe704ac8 <__bss_end__+0xfe6f5f50>
    46c4:	14000004 	strne	r0, [r0], #-4
    46c8:	01006370 	tsteq	r0, r0, ror r3
    46cc:	00002c2d 	andeq	r2, r0, sp, lsr #24
    46d0:	00259d00 	eoreq	r9, r5, r0, lsl #26
    46d4:	01af1500 			; <UNDEFINED> instruction: 0x01af1500
    46d8:	049a0000 	ldreq	r0, [sl], #0
    46dc:	03050000 	movweq	r0, #20480	; 0x5000
    46e0:	0000a64c 	andeq	sl, r0, ip, asr #12
    46e4:	009f8813 	addseq	r8, pc, r3, lsl r8	; <UNPREDICTABLE>
    46e8:	00056c00 	andeq	r6, r5, r0, lsl #24
    46ec:	9fa81100 	svcls	0x00a81100
    46f0:	05730000 	ldrbeq	r0, [r3, #-0]!
    46f4:	04900000 	ldreq	r0, [r0], #0
    46f8:	01120000 	tsteq	r2, r0
    46fc:	2e080253 	mcrcs	2, 0, r0, cr8, cr3, {2}
    4700:	05520112 	ldrbeq	r0, [r2, #-274]	; 0x112
    4704:	00a64c03 	adceq	r4, r6, r3, lsl #24
    4708:	51011200 	mrspl	r1, R9_usr
    470c:	a6b40305 	ldrtge	r0, [r4], r5, lsl #6
    4710:	01120000 	tsteq	r2, r0
    4714:	78030550 	stmdavc	r3, {r4, r6, r8, sl}
    4718:	120000a6 	andne	r0, r0, #166	; 0xa6
    471c:	02047d02 	andeq	r7, r4, #2, 26	; 0x80
    4720:	02120074 	andseq	r0, r2, #116	; 0x74
    4724:	0305007d 	movweq	r0, #20605	; 0x507d
    4728:	0000a714 	andeq	sl, r0, r4, lsl r7
    472c:	9fac1300 	svcls	0x00ac1300
    4730:	05890000 	streq	r0, [r9]
    4734:	05000000 	streq	r0, [r0, #-0]
    4738:	00000242 	andeq	r0, r0, r2, asr #4
    473c:	000c7d0a 	andeq	r7, ip, sl, lsl #26
    4740:	bc300100 	ldflts	f0, [r0], #-0
    4744:	4400009f 	strmi	r0, [r0], #-159	; 0x9f
    4748:	01000000 	mrseq	r0, (UNDEF: 0)
    474c:	0005249c 	muleq	r5, ip, r4
    4750:	63701400 	cmnvs	r0, #0, 8
    4754:	2c300100 	ldfcss	f0, [r0], #-0
    4758:	bb000000 	bllt	4760 <_start-0x38a0>
    475c:	15000025 	strne	r0, [r0, #-37]	; 0x25
    4760:	000001af 	andeq	r0, r0, pc, lsr #3
    4764:	00000534 	andeq	r0, r0, r4, lsr r5
    4768:	a6640305 	strbtge	r0, [r4], -r5, lsl #6
    476c:	cc130000 	ldcgt	0, cr0, [r3], {-0}
    4770:	6c00009f 	stcvs	0, cr0, [r0], {159}	; 0x9f
    4774:	11000005 	tstne	r0, r5
    4778:	00009fec 	andeq	r9, r0, ip, ror #31
    477c:	00000573 	andeq	r0, r0, r3, ror r5
    4780:	0000051a 	andeq	r0, r0, sl, lsl r5
    4784:	02530112 	subseq	r0, r3, #-2147483644	; 0x80000004
    4788:	01123108 	tsteq	r2, r8, lsl #2
    478c:	64030552 	strvs	r0, [r3], #-1362	; 0x552
    4790:	120000a6 	andne	r0, r0, #166	; 0xa6
    4794:	03055101 	movweq	r5, #20737	; 0x5101
    4798:	0000a6b4 			; <UNDEFINED> instruction: 0x0000a6b4
    479c:	05500112 	ldrbeq	r0, [r0, #-274]	; 0x112
    47a0:	00a67803 	adceq	r7, r6, r3, lsl #16
    47a4:	7d021200 	sfmvc	f1, 4, [r2, #-0]
    47a8:	00740204 	rsbseq	r0, r4, r4, lsl #4
    47ac:	007d0212 	rsbseq	r0, sp, r2, lsl r2
    47b0:	a7240305 	strge	r0, [r4, -r5, lsl #6]!
    47b4:	13000000 	movwne	r0, #0
    47b8:	00009ff0 	strdeq	r9, [r0], -r0
    47bc:	00000589 	andeq	r0, r0, r9, lsl #11
    47c0:	00720600 	rsbseq	r0, r2, r0, lsl #12
    47c4:	05340000 	ldreq	r0, [r4, #-0]!
    47c8:	6b070000 	blvs	1c47d0 <__bss_end__+0x1b5c58>
    47cc:	11000000 	mrsne	r0, (UNDEF: 0)
    47d0:	05240500 	streq	r0, [r4, #-1280]!	; 0x500
    47d4:	170b0000 	strne	r0, [fp, -r0]
    47d8:	0100000c 	tsteq	r0, ip
    47dc:	00002c11 	andeq	r2, r0, r1, lsl ip
    47e0:	0c680b00 	stcleq	11, cr0, [r8], #-0
    47e4:	12010000 	andne	r0, r1, #0
    47e8:	0000002c 	andeq	r0, r0, ip, lsr #32
    47ec:	0007f916 	andeq	pc, r7, r6, lsl r9	; <UNPREDICTABLE>
    47f0:	65990200 	ldrvs	r0, [r9, #512]	; 0x200
    47f4:	17000005 	strne	r0, [r0, -r5]
    47f8:	0000002c 	andeq	r0, r0, ip, lsr #32
    47fc:	00002c17 	andeq	r2, r0, r7, lsl ip
    4800:	0f180000 	svceq	0x00180000
    4804:	02000001 	andeq	r0, r0, #1
    4808:	01a01887 	lsleq	r1, r7, #17
    480c:	1e020000 	cdpne	0, 0, cr0, cr2, cr0, {0}
    4810:	0005ca19 	andeq	ip, r5, r9, lsl sl
    4814:	25290200 	strcs	r0, [r9, #-512]!	; 0x200
    4818:	89000000 	stmdbhi	r0, {}	; <UNPREDICTABLE>
    481c:	17000005 	strne	r0, [r0, -r5]
    4820:	00000079 	andeq	r0, r0, r9, ror r0
    4824:	1718001a 			; <UNDEFINED> instruction: 0x1718001a
    4828:	02000002 	andeq	r0, r0, #2
    482c:	01c30066 	biceq	r0, r3, r6, rrx
    4830:	00040000 	andeq	r0, r4, r0
    4834:	000014a5 	andeq	r1, r0, r5, lsr #9
    4838:	03610104 	cmneq	r1, #4, 2
    483c:	53010000 	movwpl	r0, #4096	; 0x1000
    4840:	6600000d 	strvs	r0, [r0], -sp
    4844:	3c000005 	stccc	0, cr0, [r0], {5}
    4848:	500000a1 	andpl	r0, r0, r1, lsr #1
    484c:	0b000000 	bleq	4854 <_start-0x37ac>
    4850:	02000013 	andeq	r0, r0, #19
    4854:	6e690504 	cdpvs	5, 6, cr0, cr9, cr4, {0}
    4858:	11030074 	tstne	r3, r4, ror r0
    485c:	02000000 	andeq	r0, r0, #0
    4860:	000037d4 	ldrdeq	r3, [r0], -r4
    4864:	07040400 	streq	r0, [r4, -r0, lsl #8]
    4868:	00000064 	andeq	r0, r0, r4, rrx
    486c:	ab060104 	blge	184c84 <__bss_end__+0x17610c>
    4870:	04000002 	streq	r0, [r0], #-2
    4874:	02bf0502 	adcseq	r0, pc, #8388608	; 0x800000
    4878:	04040000 	streq	r0, [r4], #-0
    487c:	0000a905 	andeq	sl, r0, r5, lsl #18
    4880:	05080400 	streq	r0, [r8, #-1024]	; 0x400
    4884:	000000a4 	andeq	r0, r0, r4, lsr #1
    4888:	00045203 	andeq	r5, r4, r3, lsl #4
    488c:	652e0300 	strvs	r0, [lr, #-768]!	; 0x300
    4890:	04000000 	streq	r0, [r0], #-0
    4894:	02a90801 	adceq	r0, r9, #65536	; 0x10000
    4898:	02040000 	andeq	r0, r4, #0
    489c:	0001c507 	andeq	ip, r1, r7, lsl #10
    48a0:	03530300 	cmpeq	r3, #0, 6
    48a4:	34030000 	strcc	r0, [r3], #-0
    48a8:	0000007e 	andeq	r0, r0, lr, ror r0
    48ac:	5f070404 	svcpl	0x00070404
    48b0:	04000000 	streq	r0, [r0], #-0
    48b4:	005a0708 	subseq	r0, sl, r8, lsl #14
    48b8:	04040000 	streq	r0, [r4], #-0
    48bc:	00022907 	andeq	r2, r2, r7, lsl #18
    48c0:	04040500 	streq	r0, [r4], #-1280	; 0x500
    48c4:	02b20801 	adcseq	r0, r2, #65536	; 0x10000
    48c8:	0c060000 	stceq	0, cr0, [r6], {-0}
    48cc:	00d30e04 	sbcseq	r0, r3, r4, lsl #28
    48d0:	74070000 	strvc	r0, [r7], #-0
    48d4:	0f040078 	svceq	0x00040078
    48d8:	0000005a 	andeq	r0, r0, sl, asr r0
    48dc:	78720700 	ldmdavc	r2!, {r8, r9, sl}^
    48e0:	5a0f0400 	bpl	3c58e8 <__bss_end__+0x3b6d70>
    48e4:	01000000 	mrseq	r0, (UNDEF: 0)
    48e8:	00035c08 	andeq	r5, r3, r8, lsl #24
    48ec:	73100400 	tstvc	r0, #0, 8
    48f0:	04000000 	streq	r0, [r0], #-0
    48f4:	0004f908 	andeq	pc, r4, r8, lsl #18
    48f8:	73110400 	tstvc	r1, #0, 8
    48fc:	08000000 	stmdaeq	r0, {}	; <UNPREDICTABLE>
    4900:	029f0300 	addseq	r0, pc, #0, 6
    4904:	12040000 	andne	r0, r4, #0
    4908:	0000009c 	muleq	r0, ip, r0
    490c:	10050109 	andne	r0, r5, r9, lsl #2
    4910:	000000f9 	strdeq	r0, [r0], -r9
    4914:	0007260a 	andeq	r2, r7, sl, lsl #12
    4918:	190a0100 	stmdbne	sl, {r8}
    491c:	02000007 	andeq	r0, r0, #7
    4920:	00070b0a 	andeq	r0, r7, sl, lsl #22
    4924:	03000300 	movweq	r0, #768	; 0x300
    4928:	0000073b 	andeq	r0, r0, fp, lsr r7
    492c:	00de1005 	sbcseq	r1, lr, r5
    4930:	14060000 	strne	r0, [r6], #-0
    4934:	01311405 	teqeq	r1, r5, lsl #8
    4938:	95080000 	strls	r0, [r8, #-0]
    493c:	05000007 	streq	r0, [r0, #-7]
    4940:	00003715 	andeq	r3, r0, r5, lsl r7
    4944:	89080000 	stmdbhi	r8, {}	; <UNPREDICTABLE>
    4948:	05000007 	streq	r0, [r0, #-7]
    494c:	0000f918 	andeq	pc, r0, r8, lsl r9	; <UNPREDICTABLE>
    4950:	54080400 	strpl	r0, [r8], #-1024	; 0x400
    4954:	05000007 	streq	r0, [r0, #-7]
    4958:	0000d31b 	andeq	sp, r0, fp, lsl r3
    495c:	03000800 	movweq	r0, #2048	; 0x800
    4960:	00000746 	andeq	r0, r0, r6, asr #14
    4964:	01042005 	tsteq	r4, r5
    4968:	4c0b0000 	stcmi	0, cr0, [fp], {-0}
    496c:	0100000d 	tsteq	r0, sp
    4970:	00017e05 	andeq	r7, r1, r5, lsl #28
    4974:	00a13c00 	adceq	r3, r1, r0, lsl #24
    4978:	00002800 	andeq	r2, r0, r0, lsl #16
    497c:	7e9c0100 	fmlvce	f0, f4, f0
    4980:	0c000001 	stceq	0, cr0, [r0], {1}
    4984:	06010063 	streq	r0, [r1], -r3, rrx
    4988:	0000017e 	andeq	r0, r0, lr, ror r1
    498c:	09000000 	stmdbeq	r0, {}	; <UNPREDICTABLE>
    4990:	00a1500d 	adceq	r5, r1, sp
    4994:	0001ab00 	andeq	sl, r1, r0, lsl #22
    4998:	52010e00 	andpl	r0, r1, #0, 28
    499c:	010e3401 	tsteq	lr, r1, lsl #8
    49a0:	0e300151 	mrceq	1, 1, r0, cr0, cr1, {2}
    49a4:	42035001 	andmi	r5, r3, #1
    49a8:	00002447 	andeq	r2, r0, r7, asr #8
    49ac:	0131040f 	teqeq	r1, pc, lsl #8
    49b0:	5c0b0000 	stcpl	0, cr0, [fp], {-0}
    49b4:	01000007 	tsteq	r0, r7
    49b8:	00017e0c 	andeq	r7, r1, ip, lsl #28
    49bc:	00a16400 	adceq	r6, r1, r0, lsl #8
    49c0:	00002800 	andeq	r2, r0, r0, lsl #16
    49c4:	ab9c0100 	blge	fe704dcc <__bss_end__+0xfe6f6254>
    49c8:	0c000001 	stceq	0, cr0, [r0], {1}
    49cc:	0d010063 	stceq	0, cr0, [r1, #-396]	; 0xfffffe74
    49d0:	0000017e 	andeq	r0, r0, lr, ror r1
    49d4:	09000000 	stmdbeq	r0, {}	; <UNPREDICTABLE>
    49d8:	041e1000 	ldreq	r1, [lr], #-0
    49dc:	1b060000 	blne	1849e4 <__bss_end__+0x175e6c>
    49e0:	00000093 	muleq	r0, r3, r0
    49e4:	00009311 	andeq	r9, r0, r1, lsl r3
    49e8:	00251100 	eoreq	r1, r5, r0, lsl #2
    49ec:	2c110000 	ldccs	0, cr0, [r1], {-0}
    49f0:	00000000 	andeq	r0, r0, r0
	...

Disassembly of section .debug_abbrev:

00000000 <.debug_abbrev>:
       0:	25011101 	strcs	r1, [r1, #-257]	; 0x101
       4:	030b130e 	movweq	r1, #45838	; 0xb30e
       8:	110e1b0e 	tstne	lr, lr, lsl #22
       c:	10061201 	andne	r1, r6, r1, lsl #4
      10:	02000017 	andeq	r0, r0, #23
      14:	0b0b0024 	bleq	2c00ac <__bss_end__+0x2b1534>
      18:	08030b3e 	stmdaeq	r3, {r1, r2, r3, r4, r5, r8, r9, fp}
      1c:	16030000 	strne	r0, [r3], -r0
      20:	3a0e0300 	bcc	380c28 <__bss_end__+0x3720b0>
      24:	490b3b0b 	stmdbmi	fp, {r0, r1, r3, r8, r9, fp, ip, sp}
      28:	04000013 	streq	r0, [r0], #-19
      2c:	0b0b0024 	bleq	2c00c4 <__bss_end__+0x2b154c>
      30:	0e030b3e 	vmoveq.16	d3[0], r0
      34:	0f050000 	svceq	0x00050000
      38:	000b0b00 	andeq	r0, fp, r0, lsl #22
      3c:	000f0600 	andeq	r0, pc, r0, lsl #12
      40:	13490b0b 	movtne	r0, #39691	; 0x9b0b
      44:	26070000 	strcs	r0, [r7], -r0
      48:	00134900 	andseq	r4, r3, r0, lsl #18
      4c:	01010800 	tsteq	r1, r0, lsl #16
      50:	13011349 	movwne	r1, #4937	; 0x1349
      54:	21090000 	mrscs	r0, (UNDEF: 9)
      58:	2f134900 	svccs	0x00134900
      5c:	0a00000b 	beq	90 <_start-0x7f70>
      60:	0b0b0104 	bleq	2c0478 <__bss_end__+0x2b1900>
      64:	0b3b0b3a 	bleq	ec2d54 <__bss_end__+0xeb41dc>
      68:	00001301 	andeq	r1, r0, r1, lsl #6
      6c:	0300280b 	movweq	r2, #2059	; 0x80b
      70:	000d1c0e 	andeq	r1, sp, lr, lsl #24
      74:	01130c00 	tsteq	r3, r0, lsl #24
      78:	0b3a050b 	bleq	e814ac <__bss_end__+0xe72934>
      7c:	13010b3b 	movwne	r0, #6971	; 0x1b3b
      80:	0d0d0000 	stceq	0, cr0, [sp, #-0]
      84:	3a0e0300 	bcc	380c8c <__bss_end__+0x372114>
      88:	490b3b0b 	stmdbmi	fp, {r0, r1, r3, r8, r9, fp, ip, sp}
      8c:	000b3813 	andeq	r3, fp, r3, lsl r8
      90:	000d0e00 	andeq	r0, sp, r0, lsl #28
      94:	0b3a0e03 	bleq	e838a8 <__bss_end__+0xe74d30>
      98:	13490b3b 	movtne	r0, #39739	; 0x9b3b
      9c:	00000538 	andeq	r0, r0, r8, lsr r5
      a0:	03000d0f 	movweq	r0, #3343	; 0xd0f
      a4:	3b0b3a0e 	blcc	2ce8e4 <__bss_end__+0x2bfd6c>
      a8:	0b13490b 	bleq	4d24dc <__bss_end__+0x4c3964>
      ac:	0c0b0d0b 	stceq	13, cr0, [fp], {11}
      b0:	0005380b 	andeq	r3, r5, fp, lsl #16
      b4:	00211000 	eoreq	r1, r1, r0
      b8:	052f1349 	streq	r1, [pc, #-841]!	; fffffd77 <__bss_end__+0xffff11ff>
      bc:	35110000 	ldrcc	r0, [r1, #-0]
      c0:	00134900 	andseq	r4, r3, r0, lsl #18
      c4:	01131200 	tsteq	r3, r0, lsl #4
      c8:	0b3a0b0b 	bleq	e82cfc <__bss_end__+0xe74184>
      cc:	13010b3b 	movwne	r0, #6971	; 0x1b3b
      d0:	0d130000 	ldceq	0, cr0, [r3, #-0]
      d4:	3a080300 	bcc	200cdc <__bss_end__+0x1f2164>
      d8:	490b3b0b 	stmdbmi	fp, {r0, r1, r3, r8, r9, fp, ip, sp}
      dc:	000b3813 	andeq	r3, fp, r3, lsl r8
      e0:	01131400 	tsteq	r3, r0, lsl #8
      e4:	0b0b0e03 	bleq	2c38f8 <__bss_end__+0x2b4d80>
      e8:	0b3b0b3a 	bleq	ec2dd8 <__bss_end__+0xeb4260>
      ec:	00001301 	andeq	r1, r0, r1, lsl #6
      f0:	03012e15 	movweq	r2, #7701	; 0x1e15
      f4:	3b0b3a0e 	blcc	2ce934 <__bss_end__+0x2bfdbc>
      f8:	4919270b 	ldmdbmi	r9, {r0, r1, r3, r8, r9, sl, sp}
      fc:	010b2013 	tsteq	fp, r3, lsl r0
     100:	16000013 			; <UNDEFINED> instruction: 0x16000013
     104:	08030005 	stmdaeq	r3, {r0, r2}
     108:	0b3b0b3a 	bleq	ec2df8 <__bss_end__+0xeb4280>
     10c:	00001349 	andeq	r1, r0, r9, asr #6
     110:	03003417 	movweq	r3, #1047	; 0x417
     114:	3b0b3a0e 	blcc	2ce954 <__bss_end__+0x2bfddc>
     118:	0013490b 	andseq	r4, r3, fp, lsl #18
     11c:	012e1800 	teqeq	lr, r0, lsl #16
     120:	0e03193f 	mcreq	9, 0, r1, cr3, cr15, {1}
     124:	0b3b0b3a 	bleq	ec2e14 <__bss_end__+0xeb429c>
     128:	13491927 	movtne	r1, #39207	; 0x9927
     12c:	06120111 			; <UNDEFINED> instruction: 0x06120111
     130:	42971840 	addsmi	r1, r7, #64, 16	; 0x400000
     134:	00130119 	andseq	r0, r3, r9, lsl r1
     138:	011d1900 	tsteq	sp, r0, lsl #18
     13c:	01111331 	tsteq	r1, r1, lsr r3
     140:	0b580612 	bleq	1601990 <__bss_end__+0x15f2e18>
     144:	00000b59 	andeq	r0, r0, r9, asr fp
     148:	3100051a 	tstcc	r0, sl, lsl r5
     14c:	00180213 	andseq	r0, r8, r3, lsl r2
     150:	82891b00 	addhi	r1, r9, #0, 22
     154:	01110101 	tsteq	r1, r1, lsl #2
     158:	00001331 	andeq	r1, r0, r1, lsr r3
     15c:	01828a1c 	orreq	r8, r2, ip, lsl sl
     160:	91180200 	tstls	r8, r0, lsl #4
     164:	00001842 	andeq	r1, r0, r2, asr #16
     168:	0300051d 	movweq	r0, #1309	; 0x51d
     16c:	3b0b3a0e 	blcc	2ce9ac <__bss_end__+0x2bfe34>
     170:	0213490b 	andseq	r4, r3, #180224	; 0x2c000
     174:	1e000017 	mcrne	0, 0, r0, cr0, cr7, {0}
     178:	0e030034 	mcreq	0, 0, r0, cr3, cr4, {1}
     17c:	0b3b0b3a 	bleq	ec2e6c <__bss_end__+0xeb42f4>
     180:	17021349 	strne	r1, [r2, -r9, asr #6]
     184:	891f0000 	ldmdbhi	pc, {}	; <UNPREDICTABLE>
     188:	11000182 	smlabbne	r0, r2, r1, r0
     18c:	00133101 	andseq	r3, r3, r1, lsl #2
     190:	012e2000 	teqeq	lr, r0
     194:	0e03193f 	mcreq	9, 0, r1, cr3, cr15, {1}
     198:	0b3b0b3a 	bleq	ec2e88 <__bss_end__+0xeb4310>
     19c:	01111927 	tsteq	r1, r7, lsr #18
     1a0:	18400612 	stmdane	r0, {r1, r4, r9, sl}^
     1a4:	01194297 			; <UNDEFINED> instruction: 0x01194297
     1a8:	21000013 	tstcs	r0, r3, lsl r0
     1ac:	0111010b 	tsteq	r1, fp, lsl #2
     1b0:	13010612 	movwne	r0, #5650	; 0x1612
     1b4:	1d220000 	stcne	0, cr0, [r2, #-0]
     1b8:	11133101 	tstne	r3, r1, lsl #2
     1bc:	58061201 	stmdapl	r6, {r0, r9, ip}
     1c0:	010b590b 	tsteq	fp, fp, lsl #18
     1c4:	23000013 	movwcs	r0, #19
     1c8:	13310005 	teqne	r1, #5
     1cc:	00001702 	andeq	r1, r0, r2, lsl #14
     1d0:	11010b24 	tstne	r1, r4, lsr #22
     1d4:	00061201 	andeq	r1, r6, r1, lsl #4
     1d8:	00342500 	eorseq	r2, r4, r0, lsl #10
     1dc:	17021331 	smladxne	r2, r1, r3, r1
     1e0:	1d260000 	stcne	0, cr0, [r6, #-0]
     1e4:	52133101 	andspl	r3, r3, #1073741824	; 0x40000000
     1e8:	58175501 	ldmdapl	r7, {r0, r8, sl, ip, lr}
     1ec:	010b590b 	tsteq	fp, fp, lsl #18
     1f0:	27000013 	smladcs	r0, r3, r0, r0
     1f4:	1755010b 	ldrbne	r0, [r5, -fp, lsl #2]
     1f8:	1d280000 	stcne	0, cr0, [r8, #-0]
     1fc:	52133101 	andspl	r3, r3, #1073741824	; 0x40000000
     200:	58175501 	ldmdapl	r7, {r0, r8, sl, ip, lr}
     204:	000b590b 	andeq	r5, fp, fp, lsl #18
     208:	00052900 	andeq	r2, r5, r0, lsl #18
     20c:	0b3a0803 	bleq	e82220 <__bss_end__+0xe736a8>
     210:	13490b3b 	movtne	r0, #39739	; 0x9b3b
     214:	00001702 	andeq	r1, r0, r2, lsl #14
     218:	0300342a 	movweq	r3, #1066	; 0x42a
     21c:	3b0b3a08 	blcc	2cea44 <__bss_end__+0x2bfecc>
     220:	0213490b 	andseq	r4, r3, #180224	; 0x2c000
     224:	2b000017 	blcs	288 <_start-0x7d78>
     228:	01018289 	smlabbeq	r1, r9, r2, r8
     22c:	13310111 	teqne	r1, #1073741828	; 0x40000004
     230:	00001301 	andeq	r1, r0, r1, lsl #6
     234:	03012e2c 	movweq	r2, #7724	; 0x1e2c
     238:	3b0b3a0e 	blcc	2cea78 <__bss_end__+0x2bff00>
     23c:	2019270b 	andscs	r2, r9, fp, lsl #14
     240:	0013010b 	andseq	r0, r3, fp, lsl #2
     244:	00052d00 	andeq	r2, r5, r0, lsl #26
     248:	0b3a0e03 	bleq	e83a5c <__bss_end__+0xe74ee4>
     24c:	13490b3b 	movtne	r0, #39739	; 0x9b3b
     250:	342e0000 	strtcc	r0, [lr], #-0
     254:	490e0300 	stmdbmi	lr, {r8, r9}
     258:	1c193413 	cfldrsne	mvf3, [r9], {19}
     25c:	2f00000e 	svccs	0x0000000e
     260:	08030034 	stmdaeq	r3, {r2, r4, r5}
     264:	0b3b0b3a 	bleq	ec2f54 <__bss_end__+0xeb43dc>
     268:	00001349 	andeq	r1, r0, r9, asr #6
     26c:	3f012e30 	svccc	0x00012e30
     270:	3a0e0319 	bcc	380edc <__bss_end__+0x372364>
     274:	27053b0b 	strcs	r3, [r5, -fp, lsl #22]
     278:	12011119 	andne	r1, r1, #1073741830	; 0x40000006
     27c:	97184006 	ldrls	r4, [r8, -r6]
     280:	13011942 	movwne	r1, #6466	; 0x1942
     284:	1d310000 	ldcne	0, cr0, [r1, #-0]
     288:	11133101 	tstne	r3, r1, lsl #2
     28c:	58061201 	stmdapl	r6, {r0, r9, ip}
     290:	0105590b 	tsteq	r5, fp, lsl #18
     294:	32000013 	andcc	r0, r0, #19
     298:	13310005 	teqne	r1, #5
     29c:	00000b1c 	andeq	r0, r0, ip, lsl fp
     2a0:	31003433 	tstcc	r0, r3, lsr r4
     2a4:	00180213 	andseq	r0, r8, r3, lsl r2
     2a8:	012e3400 	teqeq	lr, r0, lsl #8
     2ac:	0e03193f 	mcreq	9, 0, r1, cr3, cr15, {1}
     2b0:	053b0b3a 	ldreq	r0, [fp, #-2874]!	; 0xb3a
     2b4:	06120111 			; <UNDEFINED> instruction: 0x06120111
     2b8:	42971840 	addsmi	r1, r7, #64, 16	; 0x400000
     2bc:	00130119 	andseq	r0, r3, r9, lsl r1
     2c0:	00343500 	eorseq	r3, r4, r0, lsl #10
     2c4:	0b3a0803 	bleq	e822d8 <__bss_end__+0xe73760>
     2c8:	1349053b 	movtne	r0, #38203	; 0x953b
     2cc:	00000b1c 	andeq	r0, r0, ip, lsl fp
     2d0:	03003436 	movweq	r3, #1078	; 0x436
     2d4:	3b0b3a08 	blcc	2ceafc <__bss_end__+0x2bff84>
     2d8:	02134905 	andseq	r4, r3, #81920	; 0x14000
     2dc:	37000018 	smladcc	r0, r8, r0, r0
     2e0:	08030034 	stmdaeq	r3, {r2, r4, r5}
     2e4:	053b0b3a 	ldreq	r0, [fp, #-2874]!	; 0xb3a
     2e8:	17021349 	strne	r1, [r2, -r9, asr #6]
     2ec:	34380000 	ldrtcc	r0, [r8], #-0
     2f0:	3a0e0300 	bcc	380ef8 <__bss_end__+0x372380>
     2f4:	490b3b0b 	stmdbmi	fp, {r0, r1, r3, r8, r9, fp, ip, sp}
     2f8:	00061c13 	andeq	r1, r6, r3, lsl ip
     2fc:	00343900 	eorseq	r3, r4, r0, lsl #18
     300:	0b3a0e03 	bleq	e83b14 <__bss_end__+0xe74f9c>
     304:	13490b3b 	movtne	r0, #39739	; 0x9b3b
     308:	00001802 	andeq	r1, r0, r2, lsl #16
     30c:	0300343a 	movweq	r3, #1082	; 0x43a
     310:	3b0b3a0e 	blcc	2ceb50 <__bss_end__+0x2bffd8>
     314:	1c13490b 	ldcne	9, cr4, [r3], {11}
     318:	3b00000b 	blcc	34c <_start-0x7cb4>
     31c:	0e030034 	mcreq	0, 0, r0, cr3, cr4, {1}
     320:	0b3b0b3a 	bleq	ec3010 <__bss_end__+0xeb4498>
     324:	193f1349 	ldmdbne	pc!, {r0, r3, r6, r8, r9, ip}	; <UNPREDICTABLE>
     328:	00001802 	andeq	r1, r0, r2, lsl #16
     32c:	3f012e3c 	svccc	0x00012e3c
     330:	3a0e0319 	bcc	380f9c <__bss_end__+0x372424>
     334:	270b3b0b 	strcs	r3, [fp, -fp, lsl #22]
     338:	3c134919 	ldccc	9, cr4, [r3], {25}
     33c:	00130119 	andseq	r0, r3, r9, lsl r1
     340:	00053d00 	andeq	r3, r5, r0, lsl #26
     344:	00001349 	andeq	r1, r0, r9, asr #6
     348:	0000353e 	andeq	r3, r0, lr, lsr r5
     34c:	002e3f00 	eoreq	r3, lr, r0, lsl #30
     350:	0e03193f 	mcreq	9, 0, r1, cr3, cr15, {1}
     354:	0b3b0b3a 	bleq	ec3044 <__bss_end__+0xeb44cc>
     358:	193c1927 	ldmdbne	ip!, {r0, r1, r2, r5, r8, fp, ip}
     35c:	2e400000 	cdpcs	0, 4, cr0, cr0, cr0, {0}
     360:	03193f01 	tsteq	r9, #1, 30
     364:	3b0b3a0e 	blcc	2ceba4 <__bss_end__+0x2c002c>
     368:	3c19270b 	ldccc	7, cr2, [r9], {11}
     36c:	00130119 	andseq	r0, r3, r9, lsl r1
     370:	002e4100 	eoreq	r4, lr, r0, lsl #2
     374:	0e03193f 	mcreq	9, 0, r1, cr3, cr15, {1}
     378:	0b3b0b3a 	bleq	ec3068 <__bss_end__+0xeb44f0>
     37c:	13491927 	movtne	r1, #39207	; 0x9927
     380:	0000193c 	andeq	r1, r0, ip, lsr r9
     384:	00001842 	andeq	r1, r0, r2, asr #16
     388:	012e4300 	teqeq	lr, r0, lsl #6
     38c:	0e03193f 	mcreq	9, 0, r1, cr3, cr15, {1}
     390:	0b3b0b3a 	bleq	ec3080 <__bss_end__+0xeb4508>
     394:	13491927 	movtne	r1, #39207	; 0x9927
     398:	0000193c 	andeq	r1, r0, ip, lsr r9
     39c:	01110100 	tsteq	r1, r0, lsl #2
     3a0:	0b130e25 	bleq	4c3c3c <__bss_end__+0x4b50c4>
     3a4:	0e1b0e03 	cdpeq	14, 1, cr0, cr11, cr3, {0}
     3a8:	06120111 			; <UNDEFINED> instruction: 0x06120111
     3ac:	00001710 	andeq	r1, r0, r0, lsl r7
     3b0:	0b002402 	bleq	93c0 <gpio_set_function+0x1c>
     3b4:	030b3e0b 	movweq	r3, #48651	; 0xbe0b
     3b8:	0300000e 	movweq	r0, #14
     3bc:	0b0b0024 	bleq	2c0454 <__bss_end__+0x2b18dc>
     3c0:	08030b3e 	stmdaeq	r3, {r1, r2, r3, r4, r5, r8, r9, fp}
     3c4:	0f040000 	svceq	0x00040000
     3c8:	000b0b00 	andeq	r0, fp, r0, lsl #22
     3cc:	000f0500 	andeq	r0, pc, r0, lsl #10
     3d0:	13490b0b 	movtne	r0, #39691	; 0x9b0b
     3d4:	16060000 	strne	r0, [r6], -r0
     3d8:	3a0e0300 	bcc	380fe0 <__bss_end__+0x372468>
     3dc:	490b3b0b 	stmdbmi	fp, {r0, r1, r3, r8, r9, fp, ip, sp}
     3e0:	07000013 	smladeq	r0, r3, r0, r0
     3e4:	193f012e 	ldmdbne	pc!, {r1, r2, r3, r5, r8}	; <UNPREDICTABLE>
     3e8:	0b3a0e03 	bleq	e83bfc <__bss_end__+0xe75084>
     3ec:	19270b3b 	stmdbne	r7!, {r0, r1, r3, r4, r5, r8, r9, fp}
     3f0:	01111349 	tsteq	r1, r9, asr #6
     3f4:	18400612 	stmdane	r0, {r1, r4, r9, sl}^
     3f8:	00194297 	mulseq	r9, r7, r2
     3fc:	00050800 	andeq	r0, r5, r0, lsl #16
     400:	0b3a0803 	bleq	e82414 <__bss_end__+0xe7389c>
     404:	13490b3b 	movtne	r0, #39739	; 0x9b3b
     408:	00001802 	andeq	r1, r0, r2, lsl #16
     40c:	03000509 	movweq	r0, #1289	; 0x509
     410:	3b0b3a08 	blcc	2cec38 <__bss_end__+0x2c00c0>
     414:	0213490b 	andseq	r4, r3, #180224	; 0x2c000
     418:	0a000017 	beq	47c <_start-0x7b84>
     41c:	08030034 	stmdaeq	r3, {r2, r4, r5}
     420:	0b3b0b3a 	bleq	ec3110 <__bss_end__+0xeb4598>
     424:	17021349 	strne	r1, [r2, -r9, asr #6]
     428:	340b0000 	strcc	r0, [fp], #-0
     42c:	3a080300 	bcc	201034 <__bss_end__+0x1f24bc>
     430:	490b3b0b 	stmdbmi	fp, {r0, r1, r3, r8, r9, fp, ip, sp}
     434:	00180213 	andseq	r0, r8, r3, lsl r2
     438:	11010000 	mrsne	r0, (UNDEF: 1)
     43c:	130e2501 	movwne	r2, #58625	; 0xe501
     440:	1b0e030b 	blne	381074 <__bss_end__+0x3724fc>
     444:	1201110e 	andne	r1, r1, #-2147483645	; 0x80000003
     448:	00171006 	andseq	r1, r7, r6
     44c:	00160200 	andseq	r0, r6, r0, lsl #4
     450:	0b3a0e03 	bleq	e83c64 <__bss_end__+0xe750ec>
     454:	13490b3b 	movtne	r0, #39739	; 0x9b3b
     458:	13030000 	movwne	r0, #12288	; 0x3000
     45c:	0b0e0301 	bleq	381068 <__bss_end__+0x3724f0>
     460:	3b0b3a0b 	blcc	2cec94 <__bss_end__+0x2c011c>
     464:	0013010b 	andseq	r0, r3, fp, lsl #2
     468:	000d0400 	andeq	r0, sp, r0, lsl #8
     46c:	13490e03 	movtne	r0, #40451	; 0x9e03
     470:	19340b38 	ldmdbne	r4!, {r3, r4, r5, r8, r9, fp}
     474:	0f050000 	svceq	0x00050000
     478:	000b0b00 	andeq	r0, fp, r0, lsl #22
     47c:	00240600 	eoreq	r0, r4, r0, lsl #12
     480:	0b3e0b0b 	bleq	f830b4 <__bss_end__+0xf7453c>
     484:	00000803 	andeq	r0, r0, r3, lsl #16
     488:	0b002407 	bleq	94ac <gpio_int_rising_edge+0x4>
     48c:	030b3e0b 	movweq	r3, #48651	; 0xbe0b
     490:	0800000e 	stmdaeq	r0, {r1, r2, r3}
     494:	0b0b000f 	bleq	2c04d8 <__bss_end__+0x2b1960>
     498:	00001349 	andeq	r1, r0, r9, asr #6
     49c:	49002609 	stmdbmi	r0, {r0, r3, r9, sl, sp}
     4a0:	0a000013 	beq	4f4 <_start-0x7b0c>
     4a4:	193f012e 	ldmdbne	pc!, {r1, r2, r3, r5, r8}	; <UNPREDICTABLE>
     4a8:	0b3a0e03 	bleq	e83cbc <__bss_end__+0xe75144>
     4ac:	19270b3b 	stmdbne	r7!, {r0, r1, r3, r4, r5, r8, r9, fp}
     4b0:	01111349 	tsteq	r1, r9, asr #6
     4b4:	18400612 	stmdane	r0, {r1, r4, r9, sl}^
     4b8:	01194297 			; <UNDEFINED> instruction: 0x01194297
     4bc:	0b000013 	bleq	510 <_start-0x7af0>
     4c0:	08030005 	stmdaeq	r3, {r0, r2}
     4c4:	0b3b0b3a 	bleq	ec31b4 <__bss_end__+0xeb463c>
     4c8:	18021349 	stmdane	r2, {r0, r3, r6, r8, r9, ip}
     4cc:	180c0000 	stmdane	ip, {}	; <UNPREDICTABLE>
     4d0:	0d000000 	stceq	0, cr0, [r0, #-0]
     4d4:	08030034 	stmdaeq	r3, {r2, r4, r5}
     4d8:	0b3b0b3a 	bleq	ec31c8 <__bss_end__+0xeb4650>
     4dc:	18021349 	stmdane	r2, {r0, r3, r6, r8, r9, ip}
     4e0:	340e0000 	strcc	r0, [lr], #-0
     4e4:	3a0e0300 	bcc	3810ec <__bss_end__+0x372574>
     4e8:	490b3b0b 	stmdbmi	fp, {r0, r1, r3, r8, r9, fp, ip, sp}
     4ec:	00180213 	andseq	r0, r8, r3, lsl r2
     4f0:	00340f00 	eorseq	r0, r4, r0, lsl #30
     4f4:	0b3a0803 	bleq	e82508 <__bss_end__+0xe73990>
     4f8:	13490b3b 	movtne	r0, #39739	; 0x9b3b
     4fc:	00001702 	andeq	r1, r0, r2, lsl #14
     500:	01828910 	orreq	r8, r2, r0, lsl r9
     504:	31011101 	tstcc	r1, r1, lsl #2
     508:	00130113 	andseq	r0, r3, r3, lsl r1
     50c:	828a1100 	addhi	r1, sl, #0, 2
     510:	18020001 	stmdane	r2, {r0}
     514:	00184291 	mulseq	r8, r1, r2
     518:	82891200 	addhi	r1, r9, #0, 4
     51c:	01110101 	tsteq	r1, r1, lsl #2
     520:	01130000 	tsteq	r3, r0
     524:	01134901 	tsteq	r3, r1, lsl #18
     528:	14000013 	strne	r0, [r0], #-19
     52c:	13490021 	movtne	r0, #36897	; 0x9021
     530:	0000052f 	andeq	r0, r0, pc, lsr #10
     534:	27011515 	smladcs	r1, r5, r5, r1
     538:	01134919 	tsteq	r3, r9, lsl r9
     53c:	16000013 			; <UNDEFINED> instruction: 0x16000013
     540:	13490005 	movtne	r0, #36869	; 0x9005
     544:	34170000 	ldrcc	r0, [r7], #-0
     548:	3a0e0300 	bcc	381150 <__bss_end__+0x3725d8>
     54c:	490b3b0b 	stmdbmi	fp, {r0, r1, r3, r8, r9, fp, ip, sp}
     550:	3c193f13 	ldccc	15, cr3, [r9], {19}
     554:	18000019 	stmdane	r0, {r0, r3, r4}
     558:	193f012e 	ldmdbne	pc!, {r1, r2, r3, r5, r8}	; <UNPREDICTABLE>
     55c:	0b3a0e03 	bleq	e83d70 <__bss_end__+0xe751f8>
     560:	19270b3b 	stmdbne	r7!, {r0, r1, r3, r4, r5, r8, r9, fp}
     564:	193c1349 	ldmdbne	ip!, {r0, r3, r6, r8, r9, ip}
     568:	01000000 	mrseq	r0, (UNDEF: 0)
     56c:	0e250111 	mcreq	1, 1, r0, cr5, cr1, {0}
     570:	0e030b13 	vmoveq.32	d3[0], r0
     574:	01110e1b 	tsteq	r1, fp, lsl lr
     578:	17100612 			; <UNDEFINED> instruction: 0x17100612
     57c:	24020000 	strcs	r0, [r2], #-0
     580:	3e0b0b00 	vmlacc.f64	d0, d11, d0
     584:	0008030b 	andeq	r0, r8, fp, lsl #6
     588:	00240300 	eoreq	r0, r4, r0, lsl #6
     58c:	0b3e0b0b 	bleq	f831c0 <__bss_end__+0xf74648>
     590:	00000e03 	andeq	r0, r0, r3, lsl #28
     594:	03012e04 	movweq	r2, #7684	; 0x1e04
     598:	3b0b3a0e 	blcc	2cedd8 <__bss_end__+0x2c0260>
     59c:	4919270b 	ldmdbmi	r9, {r0, r1, r3, r8, r9, sl, sp}
     5a0:	12011113 	andne	r1, r1, #-1073741820	; 0xc0000004
     5a4:	97184006 	ldrls	r4, [r8, -r6]
     5a8:	13011942 	movwne	r1, #6466	; 0x1942
     5ac:	05050000 	streq	r0, [r5, #-0]
     5b0:	3a080300 	bcc	2011b8 <__bss_end__+0x1f2640>
     5b4:	490b3b0b 	stmdbmi	fp, {r0, r1, r3, r8, r9, fp, ip, sp}
     5b8:	00170213 	andseq	r0, r7, r3, lsl r2
     5bc:	82890600 	addhi	r0, r9, #0, 12
     5c0:	01110101 	tsteq	r1, r1, lsl #2
     5c4:	00001331 	andeq	r1, r0, r1, lsr r3
     5c8:	01828a07 	orreq	r8, r2, r7, lsl #20
     5cc:	91180200 	tstls	r8, r0, lsl #4
     5d0:	00001842 	andeq	r1, r0, r2, asr #16
     5d4:	3f002e08 	svccc	0x00002e08
     5d8:	3a0e0319 	bcc	381244 <__bss_end__+0x3726cc>
     5dc:	270b3b0b 	strcs	r3, [fp, -fp, lsl #22]
     5e0:	12011119 	andne	r1, r1, #1073741830	; 0x40000006
     5e4:	97184006 	ldrls	r4, [r8, -r6]
     5e8:	00001942 	andeq	r1, r0, r2, asr #18
     5ec:	3f012e09 	svccc	0x00012e09
     5f0:	3a0e0319 	bcc	38125c <__bss_end__+0x3726e4>
     5f4:	270b3b0b 	strcs	r3, [fp, -fp, lsl #22]
     5f8:	12011119 	andne	r1, r1, #1073741830	; 0x40000006
     5fc:	97184006 	ldrls	r4, [r8, -r6]
     600:	13011942 	movwne	r1, #6466	; 0x1942
     604:	050a0000 	streq	r0, [sl, #-0]
     608:	3a080300 	bcc	201210 <__bss_end__+0x1f2698>
     60c:	490b3b0b 	stmdbmi	fp, {r0, r1, r3, r8, r9, fp, ip, sp}
     610:	00180213 	andseq	r0, r8, r3, lsl r2
     614:	01150b00 	tsteq	r5, r0, lsl #22
     618:	13491927 	movtne	r1, #39207	; 0x9927
     61c:	00001301 	andeq	r1, r0, r1, lsl #6
     620:	4900050c 	stmdbmi	r0, {r2, r3, r8, sl}
     624:	0d000013 	stceq	0, cr0, [r0, #-76]	; 0xffffffb4
     628:	0b0b000f 	bleq	2c066c <__bss_end__+0x2b1af4>
     62c:	00001349 	andeq	r1, r0, r9, asr #6
     630:	0300340e 	movweq	r3, #1038	; 0x40e
     634:	3b0b3a0e 	blcc	2cee74 <__bss_end__+0x2c02fc>
     638:	3f13490b 	svccc	0x0013490b
     63c:	00180219 	andseq	r0, r8, r9, lsl r2
     640:	012e0f00 	teqeq	lr, r0, lsl #30
     644:	0e03193f 	mcreq	9, 0, r1, cr3, cr15, {1}
     648:	0b3b0b3a 	bleq	ec3338 <__bss_end__+0xeb47c0>
     64c:	193c1927 	ldmdbne	ip!, {r0, r1, r2, r5, r8, fp, ip}
     650:	01000000 	mrseq	r0, (UNDEF: 0)
     654:	0e250111 	mcreq	1, 1, r0, cr5, cr1, {0}
     658:	0e030b13 	vmoveq.32	d3[0], r0
     65c:	01110e1b 	tsteq	r1, fp, lsl lr
     660:	17100612 			; <UNDEFINED> instruction: 0x17100612
     664:	24020000 	strcs	r0, [r2], #-0
     668:	3e0b0b00 	vmlacc.f64	d0, d11, d0
     66c:	0008030b 	andeq	r0, r8, fp, lsl #6
     670:	00240300 	eoreq	r0, r4, r0, lsl #6
     674:	0b3e0b0b 	bleq	f832a8 <__bss_end__+0xf74730>
     678:	00000e03 	andeq	r0, r0, r3, lsl #28
     67c:	0b000f04 	bleq	4294 <_start-0x3d6c>
     680:	0013490b 	andseq	r4, r3, fp, lsl #18
     684:	00260500 	eoreq	r0, r6, r0, lsl #10
     688:	00001349 	andeq	r1, r0, r9, asr #6
     68c:	3f012e06 	svccc	0x00012e06
     690:	3a0e0319 	bcc	3812fc <__bss_end__+0x372784>
     694:	270b3b0b 	strcs	r3, [fp, -fp, lsl #22]
     698:	11134919 	tstne	r3, r9, lsl r9
     69c:	40061201 	andmi	r1, r6, r1, lsl #4
     6a0:	19429618 	stmdbne	r2, {r3, r4, r9, sl, ip, pc}^
     6a4:	00001301 	andeq	r1, r0, r1, lsl #6
     6a8:	03000507 	movweq	r0, #1287	; 0x507
     6ac:	3b0b3a08 	blcc	2ceed4 <__bss_end__+0x2c035c>
     6b0:	0213490b 	andseq	r4, r3, #180224	; 0x2c000
     6b4:	08000017 	stmdaeq	r0, {r0, r1, r2, r4}
     6b8:	19270115 	stmdbne	r7!, {r0, r2, r4, r8}
     6bc:	13011349 	movwne	r1, #4937	; 0x1349
     6c0:	05090000 	streq	r0, [r9, #-0]
     6c4:	00134900 	andseq	r4, r3, r0, lsl #18
     6c8:	00340a00 	eorseq	r0, r4, r0, lsl #20
     6cc:	0b3a0e03 	bleq	e83ee0 <__bss_end__+0xe75368>
     6d0:	13490b3b 	movtne	r0, #39739	; 0x9b3b
     6d4:	193c193f 	ldmdbne	ip!, {r0, r1, r2, r3, r4, r5, r8, fp, ip}
     6d8:	340b0000 	strcc	r0, [fp], #-0
     6dc:	3a0e0300 	bcc	3812e4 <__bss_end__+0x37276c>
     6e0:	490b3b0b 	stmdbmi	fp, {r0, r1, r3, r8, r9, fp, ip, sp}
     6e4:	02193f13 	andseq	r3, r9, #19, 30	; 0x4c
     6e8:	00000018 	andeq	r0, r0, r8, lsl r0
     6ec:	25011101 	strcs	r1, [r1, #-257]	; 0x101
     6f0:	030b130e 	movweq	r1, #45838	; 0xb30e
     6f4:	110e1b0e 	tstne	lr, lr, lsl #22
     6f8:	10061201 	andne	r1, r6, r1, lsl #4
     6fc:	02000017 	andeq	r0, r0, #23
     700:	0b0b0024 	bleq	2c0798 <__bss_end__+0x2b1c20>
     704:	08030b3e 	stmdaeq	r3, {r1, r2, r3, r4, r5, r8, r9, fp}
     708:	24030000 	strcs	r0, [r3], #-0
     70c:	3e0b0b00 	vmlacc.f64	d0, d11, d0
     710:	000e030b 	andeq	r0, lr, fp, lsl #6
     714:	000f0400 	andeq	r0, pc, r0, lsl #8
     718:	00000b0b 	andeq	r0, r0, fp, lsl #22
     71c:	0b000f05 	bleq	4338 <_start-0x3cc8>
     720:	0013490b 	andseq	r4, r3, fp, lsl #18
     724:	00260600 	eoreq	r0, r6, r0, lsl #12
     728:	00001349 	andeq	r1, r0, r9, asr #6
     72c:	03001607 	movweq	r1, #1543	; 0x607
     730:	3b0b3a0e 	blcc	2cef70 <__bss_end__+0x2c03f8>
     734:	0013490b 	andseq	r4, r3, fp, lsl #18
     738:	01130800 	tsteq	r3, r0, lsl #16
     73c:	0b0b0e03 	bleq	2c3f50 <__bss_end__+0x2b53d8>
     740:	0b3b0b3a 	bleq	ec3430 <__bss_end__+0xeb48b8>
     744:	00001301 	andeq	r1, r0, r1, lsl #6
     748:	03000d09 	movweq	r0, #3337	; 0xd09
     74c:	3813490e 	ldmdacc	r3, {r1, r2, r3, r8, fp, lr}
     750:	0019340b 	andseq	r3, r9, fp, lsl #8
     754:	012e0a00 	teqeq	lr, r0, lsl #20
     758:	0b3a0e03 	bleq	e83f6c <__bss_end__+0xe753f4>
     75c:	19270b3b 	stmdbne	r7!, {r0, r1, r3, r4, r5, r8, r9, fp}
     760:	01111349 	tsteq	r1, r9, asr #6
     764:	18400612 	stmdane	r0, {r1, r4, r9, sl}^
     768:	01194297 			; <UNDEFINED> instruction: 0x01194297
     76c:	0b000013 	bleq	7c0 <_start-0x7840>
     770:	08030005 	stmdaeq	r3, {r0, r2}
     774:	0b3b0b3a 	bleq	ec3464 <__bss_end__+0xeb48ec>
     778:	17021349 	strne	r1, [r2, -r9, asr #6]
     77c:	2e0c0000 	cdpcs	0, 0, cr0, cr12, cr0, {0}
     780:	3a080301 	bcc	20138c <__bss_end__+0x1f2814>
     784:	270b3b0b 	strcs	r3, [fp, -fp, lsl #22]
     788:	11134919 	tstne	r3, r9, lsl r9
     78c:	40061201 	andmi	r1, r6, r1, lsl #4
     790:	19429718 	stmdbne	r2, {r3, r4, r8, r9, sl, ip, pc}^
     794:	00001301 	andeq	r1, r0, r1, lsl #6
     798:	0300050d 	movweq	r0, #1293	; 0x50d
     79c:	3b0b3a0e 	blcc	2cefdc <__bss_end__+0x2c0464>
     7a0:	0213490b 	andseq	r4, r3, #180224	; 0x2c000
     7a4:	0e000017 	mcreq	0, 0, r0, cr0, cr7, {0}
     7a8:	0e030005 	cdpeq	0, 0, cr0, cr3, cr5, {0}
     7ac:	0b3b0b3a 	bleq	ec349c <__bss_end__+0xeb4924>
     7b0:	18021349 	stmdane	r2, {r0, r3, r6, r8, r9, ip}
     7b4:	340f0000 	strcc	r0, [pc], #-0	; 7bc <_start-0x7844>
     7b8:	3a080300 	bcc	2013c0 <__bss_end__+0x1f2848>
     7bc:	490b3b0b 	stmdbmi	fp, {r0, r1, r3, r8, r9, fp, ip, sp}
     7c0:	00180213 	andseq	r0, r8, r3, lsl r2
     7c4:	00341000 	eorseq	r1, r4, r0
     7c8:	0b3a0803 	bleq	e827dc <__bss_end__+0xe73c64>
     7cc:	13490b3b 	movtne	r0, #39739	; 0x9b3b
     7d0:	00001702 	andeq	r1, r0, r2, lsl #14
     7d4:	03003411 	movweq	r3, #1041	; 0x411
     7d8:	3413490e 	ldrcc	r4, [r3], #-2318	; 0x90e
     7dc:	00180219 	andseq	r0, r8, r9, lsl r2
     7e0:	010b1200 	mrseq	r1, R11_fiq
     7e4:	06120111 			; <UNDEFINED> instruction: 0x06120111
     7e8:	00001301 	andeq	r1, r0, r1, lsl #6
     7ec:	03003413 	movweq	r3, #1043	; 0x413
     7f0:	3b0b3a0e 	blcc	2cf030 <__bss_end__+0x2c04b8>
     7f4:	0213490b 	andseq	r4, r3, #180224	; 0x2c000
     7f8:	14000017 	strne	r0, [r0], #-23
     7fc:	00018289 	andeq	r8, r1, r9, lsl #5
     800:	13310111 	teqne	r1, #1073741828	; 0x40000004
     804:	89150000 	ldmdbhi	r5, {}	; <UNPREDICTABLE>
     808:	11010182 	smlabbne	r1, r2, r1, r0
     80c:	01133101 	tsteq	r3, r1, lsl #2
     810:	16000013 			; <UNDEFINED> instruction: 0x16000013
     814:	0001828a 	andeq	r8, r1, sl, lsl #5
     818:	42911802 	addsmi	r1, r1, #131072	; 0x20000
     81c:	17000018 	smladne	r0, r8, r0, r0
     820:	01018289 	smlabbeq	r1, r9, r2, r8
     824:	13310111 	teqne	r1, #1073741828	; 0x40000004
     828:	01180000 	tsteq	r8, r0
     82c:	01134901 	tsteq	r3, r1, lsl #18
     830:	19000013 	stmdbne	r0, {r0, r1, r4}
     834:	13490021 	movtne	r0, #36897	; 0x9021
     838:	00000b2f 	andeq	r0, r0, pc, lsr #22
     83c:	3f012e1a 	svccc	0x00012e1a
     840:	3a0e0319 	bcc	3814ac <__bss_end__+0x372934>
     844:	270b3b0b 	strcs	r3, [fp, -fp, lsl #22]
     848:	12011119 	andne	r1, r1, #1073741830	; 0x40000006
     84c:	97184006 	ldrls	r4, [r8, -r6]
     850:	13011942 	movwne	r1, #6466	; 0x1942
     854:	151b0000 	ldrne	r0, [fp, #-0]
     858:	49192701 	ldmdbmi	r9, {r0, r8, r9, sl, sp}
     85c:	00130113 	andseq	r0, r3, r3, lsl r1
     860:	00051c00 	andeq	r1, r5, r0, lsl #24
     864:	00001349 	andeq	r1, r0, r9, asr #6
     868:	3f012e1d 	svccc	0x00012e1d
     86c:	3a0e0319 	bcc	3814d8 <__bss_end__+0x372960>
     870:	270b3b0b 	strcs	r3, [fp, -fp, lsl #22]
     874:	11134919 	tstne	r3, r9, lsl r9
     878:	40061201 	andmi	r1, r6, r1, lsl #4
     87c:	19429718 	stmdbne	r2, {r3, r4, r8, r9, sl, ip, pc}^
     880:	00001301 	andeq	r1, r0, r1, lsl #6
     884:	55010b1e 	strpl	r0, [r1, #-2846]	; 0xb1e
     888:	1f000017 	svcne	0x00000017
     88c:	0e030034 	mcreq	0, 0, r0, cr3, cr4, {1}
     890:	0b3b0b3a 	bleq	ec3580 <__bss_end__+0xeb4a08>
     894:	193f1349 	ldmdbne	pc!, {r0, r3, r6, r8, r9, ip}	; <UNPREDICTABLE>
     898:	0000193c 	andeq	r1, r0, ip, lsr r9
     89c:	3f002e20 	svccc	0x00002e20
     8a0:	3a0e0319 	bcc	38150c <__bss_end__+0x372994>
     8a4:	270b3b0b 	strcs	r3, [fp, -fp, lsl #22]
     8a8:	00193c19 	andseq	r3, r9, r9, lsl ip
     8ac:	012e2100 	teqeq	lr, r0, lsl #2
     8b0:	0e03193f 	mcreq	9, 0, r1, cr3, cr15, {1}
     8b4:	0b3b0b3a 	bleq	ec35a4 <__bss_end__+0xeb4a2c>
     8b8:	13491927 	movtne	r1, #39207	; 0x9927
     8bc:	1301193c 	movwne	r1, #6460	; 0x193c
     8c0:	18220000 	stmdane	r2!, {}	; <UNPREDICTABLE>
     8c4:	00000000 	andeq	r0, r0, r0
     8c8:	25011101 	strcs	r1, [r1, #-257]	; 0x101
     8cc:	030b130e 	movweq	r1, #45838	; 0xb30e
     8d0:	110e1b0e 	tstne	lr, lr, lsl #22
     8d4:	10061201 	andne	r1, r6, r1, lsl #4
     8d8:	02000017 	andeq	r0, r0, #23
     8dc:	0b0b0024 	bleq	2c0974 <__bss_end__+0x2b1dfc>
     8e0:	08030b3e 	stmdaeq	r3, {r1, r2, r3, r4, r5, r8, r9, fp}
     8e4:	24030000 	strcs	r0, [r3], #-0
     8e8:	3e0b0b00 	vmlacc.f64	d0, d11, d0
     8ec:	000e030b 	andeq	r0, lr, fp, lsl #6
     8f0:	000f0400 	andeq	r0, pc, r0, lsl #8
     8f4:	13490b0b 	movtne	r0, #39691	; 0x9b0b
     8f8:	26050000 	strcs	r0, [r5], -r0
     8fc:	00134900 	andseq	r4, r3, r0, lsl #18
     900:	012e0600 	teqeq	lr, r0, lsl #12
     904:	0e03193f 	mcreq	9, 0, r1, cr3, cr15, {1}
     908:	0b3b0b3a 	bleq	ec35f8 <__bss_end__+0xeb4a80>
     90c:	01111927 	tsteq	r1, r7, lsr #18
     910:	18400612 	stmdane	r0, {r1, r4, r9, sl}^
     914:	01194297 			; <UNDEFINED> instruction: 0x01194297
     918:	07000013 	smladeq	r0, r3, r0, r0
     91c:	01018289 	smlabbeq	r1, r9, r2, r8
     920:	13010111 	movwne	r0, #4369	; 0x1111
     924:	8a080000 	bhi	20092c <__bss_end__+0x1f1db4>
     928:	02000182 	andeq	r0, r0, #-2147483616	; 0x80000020
     92c:	18429118 	stmdane	r2, {r3, r4, r8, ip, pc}^
     930:	89090000 	stmdbhi	r9, {}	; <UNPREDICTABLE>
     934:	11010182 	smlabbne	r1, r2, r1, r0
     938:	01133101 	tsteq	r3, r1, lsl #2
     93c:	0a000013 	beq	990 <_start-0x7670>
     940:	00018289 	andeq	r8, r1, r9, lsl #5
     944:	13310111 	teqne	r1, #1073741828	; 0x40000004
     948:	150b0000 	strne	r0, [fp, #-0]
     94c:	49192701 	ldmdbmi	r9, {r0, r8, r9, sl, sp}
     950:	00130113 	andseq	r0, r3, r3, lsl r1
     954:	00050c00 	andeq	r0, r5, r0, lsl #24
     958:	00001349 	andeq	r1, r0, r9, asr #6
     95c:	0300340d 	movweq	r3, #1037	; 0x40d
     960:	3b0b3a0e 	blcc	2cf1a0 <__bss_end__+0x2c0628>
     964:	3f13490b 	svccc	0x0013490b
     968:	00193c19 	andseq	r3, r9, r9, lsl ip
     96c:	012e0e00 	teqeq	lr, r0, lsl #28
     970:	0e03193f 	mcreq	9, 0, r1, cr3, cr15, {1}
     974:	0b3b0b3a 	bleq	ec3664 <__bss_end__+0xeb4aec>
     978:	193c1927 	ldmdbne	ip!, {r0, r1, r2, r5, r8, fp, ip}
     97c:	00001301 	andeq	r1, r0, r1, lsl #6
     980:	3f002e0f 	svccc	0x00002e0f
     984:	3a0e0319 	bcc	3815f0 <__bss_end__+0x372a78>
     988:	270b3b0b 	strcs	r3, [fp, -fp, lsl #22]
     98c:	00193c19 	andseq	r3, r9, r9, lsl ip
     990:	11010000 	mrsne	r0, (UNDEF: 1)
     994:	130e2501 	movwne	r2, #58625	; 0xe501
     998:	1b0e030b 	blne	3815cc <__bss_end__+0x372a54>
     99c:	1201110e 	andne	r1, r1, #-2147483645	; 0x80000003
     9a0:	00171006 	andseq	r1, r7, r6
     9a4:	00240200 	eoreq	r0, r4, r0, lsl #4
     9a8:	0b3e0b0b 	bleq	f835dc <__bss_end__+0xf74a64>
     9ac:	00000803 	andeq	r0, r0, r3, lsl #16
     9b0:	0b002403 	bleq	99c4 <sw_uart_gets_until+0x1c>
     9b4:	030b3e0b 	movweq	r3, #48651	; 0xbe0b
     9b8:	0400000e 	streq	r0, [r0], #-14
     9bc:	0e030016 	mcreq	0, 0, r0, cr3, cr6, {0}
     9c0:	0b3b0b3a 	bleq	ec36b0 <__bss_end__+0xeb4b38>
     9c4:	00001349 	andeq	r1, r0, r9, asr #6
     9c8:	0b000f05 	bleq	45e4 <_start-0x3a1c>
     9cc:	0013490b 	andseq	r4, r3, fp, lsl #18
     9d0:	00260600 	eoreq	r0, r6, r0, lsl #12
     9d4:	00001349 	andeq	r1, r0, r9, asr #6
     9d8:	0b011307 	bleq	455fc <__bss_end__+0x36a84>
     9dc:	3b0b3a0b 	blcc	2cf210 <__bss_end__+0x2c0698>
     9e0:	0013010b 	andseq	r0, r3, fp, lsl #2
     9e4:	000d0800 	andeq	r0, sp, r0, lsl #16
     9e8:	0b3a0803 	bleq	e829fc <__bss_end__+0xe73e84>
     9ec:	13490b3b 	movtne	r0, #39739	; 0x9b3b
     9f0:	00000b38 	andeq	r0, r0, r8, lsr fp
     9f4:	03000d09 	movweq	r0, #3337	; 0xd09
     9f8:	3b0b3a0e 	blcc	2cf238 <__bss_end__+0x2c06c0>
     9fc:	3813490b 	ldmdacc	r3, {r0, r1, r3, r8, fp, lr}
     a00:	0a00000b 	beq	a34 <_start-0x75cc>
     a04:	0b0b0104 	bleq	2c0e1c <__bss_end__+0x2b22a4>
     a08:	0b3b0b3a 	bleq	ec36f8 <__bss_end__+0xeb4b80>
     a0c:	00001301 	andeq	r1, r0, r1, lsl #6
     a10:	0300280b 	movweq	r2, #2059	; 0x80b
     a14:	000d1c0e 	andeq	r1, sp, lr, lsl #24
     a18:	012e0c00 	teqeq	lr, r0, lsl #24
     a1c:	0b3a0e03 	bleq	e84230 <__bss_end__+0xe756b8>
     a20:	19270b3b 	stmdbne	r7!, {r0, r1, r3, r4, r5, r8, r9, fp}
     a24:	01111349 	tsteq	r1, r9, asr #6
     a28:	18400612 	stmdane	r0, {r1, r4, r9, sl}^
     a2c:	01194297 			; <UNDEFINED> instruction: 0x01194297
     a30:	0d000013 	stceq	0, cr0, [r0, #-76]	; 0xffffffb4
     a34:	08030005 	stmdaeq	r3, {r0, r2}
     a38:	0b3b0b3a 	bleq	ec3728 <__bss_end__+0xeb4bb0>
     a3c:	17021349 	strne	r1, [r2, -r9, asr #6]
     a40:	890e0000 	stmdbhi	lr, {}	; <UNPREDICTABLE>
     a44:	11010182 	smlabbne	r1, r2, r1, r0
     a48:	00133101 	andseq	r3, r3, r1, lsl #2
     a4c:	828a0f00 	addhi	r0, sl, #0, 30
     a50:	18020001 	stmdane	r2, {r0}
     a54:	00184291 	mulseq	r8, r1, r2
     a58:	012e1000 	teqeq	lr, r0
     a5c:	0e03193f 	mcreq	9, 0, r1, cr3, cr15, {1}
     a60:	0b3b0b3a 	bleq	ec3750 <__bss_end__+0xeb4bd8>
     a64:	06120111 			; <UNDEFINED> instruction: 0x06120111
     a68:	42971840 	addsmi	r1, r7, #64, 16	; 0x400000
     a6c:	00130119 	andseq	r0, r3, r9, lsl r1
     a70:	00341100 	eorseq	r1, r4, r0, lsl #2
     a74:	0b3a0e03 	bleq	e84288 <__bss_end__+0xe75710>
     a78:	13490b3b 	movtne	r0, #39739	; 0x9b3b
     a7c:	193c193f 	ldmdbne	ip!, {r0, r1, r2, r3, r4, r5, r8, fp, ip}
     a80:	2e120000 	cdpcs	0, 1, cr0, cr2, cr0, {0}
     a84:	03193f01 	tsteq	r9, #1, 30
     a88:	3b0b3a0e 	blcc	2cf2c8 <__bss_end__+0x2c0750>
     a8c:	01193c0b 	tsteq	r9, fp, lsl #24
     a90:	13000013 	movwne	r0, #19
     a94:	00000018 	andeq	r0, r0, r8, lsl r0
     a98:	03003414 	movweq	r3, #1044	; 0x414
     a9c:	3b0b3a08 	blcc	2cf2c4 <__bss_end__+0x2c074c>
     aa0:	0213490b 	andseq	r4, r3, #180224	; 0x2c000
     aa4:	15000017 	strne	r0, [r0, #-23]
     aa8:	0e030034 	mcreq	0, 0, r0, cr3, cr4, {1}
     aac:	0b3b0b3a 	bleq	ec379c <__bss_end__+0xeb4c24>
     ab0:	00001349 	andeq	r1, r0, r9, asr #6
     ab4:	01828916 	orreq	r8, r2, r6, lsl r9
     ab8:	31011100 	mrscc	r1, (UNDEF: 17)
     abc:	17000013 	smladne	r0, r3, r0, r0
     ac0:	01018289 	smlabbeq	r1, r9, r2, r8
     ac4:	13310111 	teqne	r1, #1073741828	; 0x40000004
     ac8:	00001301 	andeq	r1, r0, r1, lsl #6
     acc:	03003418 	movweq	r3, #1048	; 0x418
     ad0:	3b0b3a0e 	blcc	2cf310 <__bss_end__+0x2c0798>
     ad4:	0213490b 	andseq	r4, r3, #180224	; 0x2c000
     ad8:	19000018 	stmdbne	r0, {r3, r4}
     adc:	19270115 	stmdbne	r7!, {r0, r2, r4, r8}
     ae0:	13011349 	movwne	r1, #4937	; 0x1349
     ae4:	051a0000 	ldreq	r0, [sl, #-0]
     ae8:	00134900 	andseq	r4, r3, r0, lsl #18
     aec:	012e1b00 	teqeq	lr, r0, lsl #22
     af0:	0e03193f 	mcreq	9, 0, r1, cr3, cr15, {1}
     af4:	0b3b0b3a 	bleq	ec37e4 <__bss_end__+0xeb4c6c>
     af8:	193c1927 	ldmdbne	ip!, {r0, r1, r2, r5, r8, fp, ip}
     afc:	00001301 	andeq	r1, r0, r1, lsl #6
     b00:	3f002e1c 	svccc	0x00002e1c
     b04:	3a0e0319 	bcc	381770 <__bss_end__+0x372bf8>
     b08:	270b3b0b 	strcs	r3, [fp, -fp, lsl #22]
     b0c:	3c134919 	ldccc	9, cr4, [r3], {25}
     b10:	1d000019 	stcne	0, cr0, [r0, #-100]	; 0xffffff9c
     b14:	193f012e 	ldmdbne	pc!, {r1, r2, r3, r5, r8}	; <UNPREDICTABLE>
     b18:	0b3a0e03 	bleq	e8432c <__bss_end__+0xe757b4>
     b1c:	19270b3b 	stmdbne	r7!, {r0, r1, r3, r4, r5, r8, r9, fp}
     b20:	193c1349 	ldmdbne	ip!, {r0, r3, r6, r8, r9, ip}
     b24:	00001301 	andeq	r1, r0, r1, lsl #6
     b28:	3f002e1e 	svccc	0x00002e1e
     b2c:	3a0e0319 	bcc	381798 <__bss_end__+0x372c20>
     b30:	270b3b0b 	strcs	r3, [fp, -fp, lsl #22]
     b34:	00193c19 	andseq	r3, r9, r9, lsl ip
     b38:	11010000 	mrsne	r0, (UNDEF: 1)
     b3c:	130e2501 	movwne	r2, #58625	; 0xe501
     b40:	1b0e030b 	blne	381774 <__bss_end__+0x372bfc>
     b44:	1117550e 	tstne	r7, lr, lsl #10
     b48:	00171001 	andseq	r1, r7, r1
     b4c:	00240200 	eoreq	r0, r4, r0, lsl #4
     b50:	0b3e0b0b 	bleq	f83784 <__bss_end__+0xf74c0c>
     b54:	00000803 	andeq	r0, r0, r3, lsl #16
     b58:	0b002403 	bleq	9b6c <sw_uart_init_helper+0xb8>
     b5c:	030b3e0b 	movweq	r3, #48651	; 0xbe0b
     b60:	0400000e 	streq	r0, [r0], #-14
     b64:	193f012e 	ldmdbne	pc!, {r1, r2, r3, r5, r8}	; <UNPREDICTABLE>
     b68:	0b3a0e03 	bleq	e8437c <__bss_end__+0xe75804>
     b6c:	19270b3b 	stmdbne	r7!, {r0, r1, r3, r4, r5, r8, r9, fp}
     b70:	01111349 	tsteq	r1, r9, asr #6
     b74:	18400612 	stmdane	r0, {r1, r4, r9, sl}^
     b78:	01194297 			; <UNDEFINED> instruction: 0x01194297
     b7c:	05000013 	streq	r0, [r0, #-19]
     b80:	0e030034 	mcreq	0, 0, r0, cr3, cr4, {1}
     b84:	0b3b0b3a 	bleq	ec3874 <__bss_end__+0xeb4cfc>
     b88:	17021349 	strne	r1, [r2, -r9, asr #6]
     b8c:	2e060000 	cdpcs	0, 0, cr0, cr6, cr0, {0}
     b90:	03193f01 	tsteq	r9, #1, 30
     b94:	3b0b3a0e 	blcc	2cf3d4 <__bss_end__+0x2c085c>
     b98:	1119270b 	tstne	r9, fp, lsl #14
     b9c:	40061201 	andmi	r1, r6, r1, lsl #4
     ba0:	19429718 	stmdbne	r2, {r3, r4, r8, r9, sl, ip, pc}^
     ba4:	00001301 	andeq	r1, r0, r1, lsl #6
     ba8:	03003407 	movweq	r3, #1031	; 0x407
     bac:	3b0b3a0e 	blcc	2cf3ec <__bss_end__+0x2c0874>
     bb0:	1c13490b 	ldcne	9, cr4, [r3], {11}
     bb4:	08000006 	stmdaeq	r0, {r1, r2}
     bb8:	0e030034 	mcreq	0, 0, r0, cr3, cr4, {1}
     bbc:	0b3b0b3a 	bleq	ec38ac <__bss_end__+0xeb4d34>
     bc0:	0b1c1349 	bleq	7058ec <__bss_end__+0x6f6d74>
     bc4:	89090000 	stmdbhi	r9, {}	; <UNPREDICTABLE>
     bc8:	11000182 	smlabbne	r0, r2, r1, r0
     bcc:	00133101 	andseq	r3, r3, r1, lsl #2
     bd0:	82890a00 	addhi	r0, r9, #0, 20
     bd4:	01110101 	tsteq	r1, r1, lsl #2
     bd8:	13011331 	movwne	r1, #4913	; 0x1331
     bdc:	8a0b0000 	bhi	2c0be4 <__bss_end__+0x2b206c>
     be0:	02000182 	andeq	r0, r0, #-2147483616	; 0x80000020
     be4:	18429118 	stmdane	r2, {r3, r4, r8, ip, pc}^
     be8:	890c0000 	stmdbhi	ip, {}	; <UNPREDICTABLE>
     bec:	11010182 	smlabbne	r1, r2, r1, r0
     bf0:	00133101 	andseq	r3, r3, r1, lsl #2
     bf4:	00260d00 	eoreq	r0, r6, r0, lsl #26
     bf8:	00001349 	andeq	r1, r0, r9, asr #6
     bfc:	3f012e0e 	svccc	0x00012e0e
     c00:	3a0e0319 	bcc	38186c <__bss_end__+0x372cf4>
     c04:	270b3b0b 	strcs	r3, [fp, -fp, lsl #22]
     c08:	01193c19 	tsteq	r9, r9, lsl ip
     c0c:	0f000013 	svceq	0x00000013
     c10:	13490005 	movtne	r0, #36869	; 0x9005
     c14:	2e100000 	cdpcs	0, 1, cr0, cr0, cr0, {0}
     c18:	03193f01 	tsteq	r9, #1, 30
     c1c:	3b0b3a0e 	blcc	2cf45c <__bss_end__+0x2c08e4>
     c20:	3c19270b 	ldccc	7, cr2, [r9], {11}
     c24:	00000019 	andeq	r0, r0, r9, lsl r0
     c28:	25011101 	strcs	r1, [r1, #-257]	; 0x101
     c2c:	030b130e 	movweq	r1, #45838	; 0xb30e
     c30:	110e1b0e 	tstne	lr, lr, lsl #22
     c34:	10061201 	andne	r1, r6, r1, lsl #4
     c38:	02000017 	andeq	r0, r0, #23
     c3c:	0b0b0024 	bleq	2c0cd4 <__bss_end__+0x2b215c>
     c40:	08030b3e 	stmdaeq	r3, {r1, r2, r3, r4, r5, r8, r9, fp}
     c44:	24030000 	strcs	r0, [r3], #-0
     c48:	3e0b0b00 	vmlacc.f64	d0, d11, d0
     c4c:	000e030b 	andeq	r0, lr, fp, lsl #6
     c50:	012e0400 	teqeq	lr, r0, lsl #8
     c54:	0e03193f 	mcreq	9, 0, r1, cr3, cr15, {1}
     c58:	0b3b0b3a 	bleq	ec3948 <__bss_end__+0xeb4dd0>
     c5c:	01111927 	tsteq	r1, r7, lsr #18
     c60:	18400612 	stmdane	r0, {r1, r4, r9, sl}^
     c64:	01194297 			; <UNDEFINED> instruction: 0x01194297
     c68:	05000013 	streq	r0, [r0, #-19]
     c6c:	0e030005 	cdpeq	0, 0, cr0, cr3, cr5, {0}
     c70:	0b3b0b3a 	bleq	ec3960 <__bss_end__+0xeb4de8>
     c74:	17021349 	strne	r1, [r2, -r9, asr #6]
     c78:	2e060000 	cdpcs	0, 0, cr0, cr6, cr0, {0}
     c7c:	03193f01 	tsteq	r9, #1, 30
     c80:	3b0b3a0e 	blcc	2cf4c0 <__bss_end__+0x2c0948>
     c84:	4919270b 	ldmdbmi	r9, {r0, r1, r3, r8, r9, sl, sp}
     c88:	12011113 	andne	r1, r1, #-1073741820	; 0xc0000004
     c8c:	97184006 	ldrls	r4, [r8, -r6]
     c90:	13011942 	movwne	r1, #6466	; 0x1942
     c94:	89070000 	stmdbhi	r7, {}	; <UNPREDICTABLE>
     c98:	11010182 	smlabbne	r1, r2, r1, r0
     c9c:	00133101 	andseq	r3, r3, r1, lsl #2
     ca0:	828a0800 	addhi	r0, sl, #0, 16
     ca4:	18020001 	stmdane	r2, {r0}
     ca8:	00184291 	mulseq	r8, r1, r2
     cac:	00340900 	eorseq	r0, r4, r0, lsl #18
     cb0:	0b3a0803 	bleq	e82cc4 <__bss_end__+0xe7414c>
     cb4:	13490b3b 	movtne	r0, #39739	; 0x9b3b
     cb8:	00001802 	andeq	r1, r0, r2, lsl #16
     cbc:	0182890a 	orreq	r8, r2, sl, lsl #18
     cc0:	31011100 	mrscc	r1, (UNDEF: 17)
     cc4:	0b000013 	bleq	d18 <_start-0x72e8>
     cc8:	08030005 	stmdaeq	r3, {r0, r2}
     ccc:	0b3b0b3a 	bleq	ec39bc <__bss_end__+0xeb4e44>
     cd0:	17021349 	strne	r1, [r2, -r9, asr #6]
     cd4:	0b0c0000 	bleq	300cdc <__bss_end__+0x2f2164>
     cd8:	12011101 	andne	r1, r1, #1073741824	; 0x40000000
     cdc:	00130106 	andseq	r0, r3, r6, lsl #2
     ce0:	00340d00 	eorseq	r0, r4, r0, lsl #26
     ce4:	0b3a0803 	bleq	e82cf8 <__bss_end__+0xe74180>
     ce8:	13490b3b 	movtne	r0, #39739	; 0x9b3b
     cec:	00001702 	andeq	r1, r0, r2, lsl #14
     cf0:	3f012e0e 	svccc	0x00012e0e
     cf4:	3a0e0319 	bcc	381960 <__bss_end__+0x372de8>
     cf8:	270b3b0b 	strcs	r3, [fp, -fp, lsl #22]
     cfc:	3c134919 	ldccc	9, cr4, [r3], {25}
     d00:	0f000019 	svceq	0x00000019
     d04:	13490005 	movtne	r0, #36869	; 0x9005
     d08:	01000000 	mrseq	r0, (UNDEF: 0)
     d0c:	0e250111 	mcreq	1, 1, r0, cr5, cr1, {0}
     d10:	0e030b13 	vmoveq.32	d3[0], r0
     d14:	01110e1b 	tsteq	r1, fp, lsl lr
     d18:	17100612 			; <UNDEFINED> instruction: 0x17100612
     d1c:	24020000 	strcs	r0, [r2], #-0
     d20:	3e0b0b00 	vmlacc.f64	d0, d11, d0
     d24:	000e030b 	andeq	r0, lr, fp, lsl #6
     d28:	00240300 	eoreq	r0, r4, r0, lsl #6
     d2c:	0b3e0b0b 	bleq	f83960 <__bss_end__+0xf74de8>
     d30:	00000803 	andeq	r0, r0, r3, lsl #16
     d34:	0b010404 	bleq	41d4c <__bss_end__+0x331d4>
     d38:	3b0b3a0b 	blcc	2cf56c <__bss_end__+0x2c09f4>
     d3c:	0013010b 	andseq	r0, r3, fp, lsl #2
     d40:	00280500 	eoreq	r0, r8, r0, lsl #10
     d44:	0d1c0e03 	ldceq	14, cr0, [ip, #-12]
     d48:	16060000 	strne	r0, [r6], -r0
     d4c:	3a0e0300 	bcc	381954 <__bss_end__+0x372ddc>
     d50:	490b3b0b 	stmdbmi	fp, {r0, r1, r3, r8, r9, fp, ip, sp}
     d54:	07000013 	smladeq	r0, r3, r0, r0
     d58:	193f012e 	ldmdbne	pc!, {r1, r2, r3, r5, r8}	; <UNPREDICTABLE>
     d5c:	0b3a0e03 	bleq	e84570 <__bss_end__+0xe759f8>
     d60:	19270b3b 	stmdbne	r7!, {r0, r1, r3, r4, r5, r8, r9, fp}
     d64:	06120111 			; <UNDEFINED> instruction: 0x06120111
     d68:	42971840 	addsmi	r1, r7, #64, 16	; 0x400000
     d6c:	00130119 	andseq	r0, r3, r9, lsl r1
     d70:	00050800 	andeq	r0, r5, r0, lsl #16
     d74:	0b3a0803 	bleq	e82d88 <__bss_end__+0xe74210>
     d78:	13490b3b 	movtne	r0, #39739	; 0x9b3b
     d7c:	00001702 	andeq	r1, r0, r2, lsl #14
     d80:	03003409 	movweq	r3, #1033	; 0x409
     d84:	3b0b3a0e 	blcc	2cf5c4 <__bss_end__+0x2c0a4c>
     d88:	0213490b 	andseq	r4, r3, #180224	; 0x2c000
     d8c:	0a000017 	beq	df0 <_start-0x7210>
     d90:	01018289 	smlabbeq	r1, r9, r2, r8
     d94:	13310111 	teqne	r1, #1073741828	; 0x40000004
     d98:	00001301 	andeq	r1, r0, r1, lsl #6
     d9c:	01828a0b 	orreq	r8, r2, fp, lsl #20
     da0:	91180200 	tstls	r8, r0, lsl #4
     da4:	00001842 	andeq	r1, r0, r2, asr #16
     da8:	0182890c 	orreq	r8, r2, ip, lsl #18
     dac:	31011101 	tstcc	r1, r1, lsl #2
     db0:	0d000013 	stceq	0, cr0, [r0, #-76]	; 0xffffffb4
     db4:	0b0b000f 	bleq	2c0df8 <__bss_end__+0x2b2280>
     db8:	00001349 	andeq	r1, r0, r9, asr #6
     dbc:	4900350e 	stmdbmi	r0, {r1, r2, r3, r8, sl, ip, sp}
     dc0:	0f000013 	svceq	0x00000013
     dc4:	193f012e 	ldmdbne	pc!, {r1, r2, r3, r5, r8}	; <UNPREDICTABLE>
     dc8:	0b3a0e03 	bleq	e845dc <__bss_end__+0xe75a64>
     dcc:	19270b3b 	stmdbne	r7!, {r0, r1, r3, r4, r5, r8, r9, fp}
     dd0:	13010b20 	movwne	r0, #6944	; 0x1b20
     dd4:	05100000 	ldreq	r0, [r0, #-0]
     dd8:	3a080300 	bcc	2019e0 <__bss_end__+0x1f2e68>
     ddc:	490b3b0b 	stmdbmi	fp, {r0, r1, r3, r8, r9, fp, ip, sp}
     de0:	11000013 	tstne	r0, r3, lsl r0
     de4:	0e030034 	mcreq	0, 0, r0, cr3, cr4, {1}
     de8:	0b3b0b3a 	bleq	ec3ad8 <__bss_end__+0xeb4f60>
     dec:	00001349 	andeq	r1, r0, r9, asr #6
     df0:	31012e12 	tstcc	r1, r2, lsl lr
     df4:	12011113 	andne	r1, r1, #-1073741820	; 0xc0000004
     df8:	97184006 	ldrls	r4, [r8, -r6]
     dfc:	13011942 	movwne	r1, #6466	; 0x1942
     e00:	05130000 	ldreq	r0, [r3, #-0]
     e04:	02133100 	andseq	r3, r3, #0, 2
     e08:	14000017 	strne	r0, [r0], #-23
     e0c:	13310034 	teqne	r1, #52	; 0x34
     e10:	00001702 	andeq	r1, r0, r2, lsl #14
     e14:	3f012e15 	svccc	0x00012e15
     e18:	3a0e0319 	bcc	381a84 <__bss_end__+0x372f0c>
     e1c:	270b3b0b 	strcs	r3, [fp, -fp, lsl #22]
     e20:	11134919 	tstne	r3, r9, lsl r9
     e24:	40061201 	andmi	r1, r6, r1, lsl #4
     e28:	19429718 	stmdbne	r2, {r3, r4, r8, r9, sl, ip, pc}^
     e2c:	00001301 	andeq	r1, r0, r1, lsl #6
     e30:	03003416 	movweq	r3, #1046	; 0x416
     e34:	3b0b3a08 	blcc	2cf65c <__bss_end__+0x2c0ae4>
     e38:	0213490b 	andseq	r4, r3, #180224	; 0x2c000
     e3c:	17000017 	smladne	r0, r7, r0, r0
     e40:	00018289 	andeq	r8, r1, r9, lsl #5
     e44:	13310111 	teqne	r1, #1073741828	; 0x40000004
     e48:	1d180000 	ldcne	0, cr0, [r8, #-0]
     e4c:	11133101 	tstne	r3, r1, lsl #2
     e50:	58061201 	stmdapl	r6, {r0, r9, ip}
     e54:	010b590b 	tsteq	fp, fp, lsl #18
     e58:	19000013 	stmdbne	r0, {r0, r1, r4}
     e5c:	0111010b 	tsteq	r1, fp, lsl #2
     e60:	00000612 	andeq	r0, r0, r2, lsl r6
     e64:	31011d1a 	tstcc	r1, sl, lsl sp
     e68:	12011113 	andne	r1, r1, #-1073741820	; 0xc0000004
     e6c:	590b5806 	stmdbpl	fp, {r1, r2, fp, ip, lr}
     e70:	1b00000b 	blne	ea4 <_start-0x715c>
     e74:	0e030005 	cdpeq	0, 0, cr0, cr3, cr5, {0}
     e78:	0b3b0b3a 	bleq	ec3b68 <__bss_end__+0xeb4ff0>
     e7c:	17021349 	strne	r1, [r2, -r9, asr #6]
     e80:	2e1c0000 	cdpcs	0, 1, cr0, cr12, cr0, {0}
     e84:	03193f01 	tsteq	r9, #1, 30
     e88:	3b0b3a0e 	blcc	2cf6c8 <__bss_end__+0x2c0b50>
     e8c:	49192705 	ldmdbmi	r9, {r0, r2, r8, r9, sl, sp}
     e90:	12011113 	andne	r1, r1, #-1073741820	; 0xc0000004
     e94:	97184006 	ldrls	r4, [r8, -r6]
     e98:	13011942 	movwne	r1, #6466	; 0x1942
     e9c:	051d0000 	ldreq	r0, [sp, #-0]
     ea0:	3a0e0300 	bcc	381aa8 <__bss_end__+0x372f30>
     ea4:	49053b0b 	stmdbmi	r5, {r0, r1, r3, r8, r9, fp, ip, sp}
     ea8:	00170213 	andseq	r0, r7, r3, lsl r2
     eac:	012e1e00 	teqeq	lr, r0, lsl #28
     eb0:	0e03193f 	mcreq	9, 0, r1, cr3, cr15, {1}
     eb4:	053b0b3a 	ldreq	r0, [fp, #-2874]!	; 0xb3a
     eb8:	01111927 	tsteq	r1, r7, lsr #18
     ebc:	18400612 	stmdane	r0, {r1, r4, r9, sl}^
     ec0:	01194297 			; <UNDEFINED> instruction: 0x01194297
     ec4:	1f000013 	svcne	0x00000013
     ec8:	08030005 	stmdaeq	r3, {r0, r2}
     ecc:	053b0b3a 	ldreq	r0, [fp, #-2874]!	; 0xb3a
     ed0:	17021349 	strne	r1, [r2, -r9, asr #6]
     ed4:	34200000 	strtcc	r0, [r0], #-0
     ed8:	3a0e0300 	bcc	381ae0 <__bss_end__+0x372f68>
     edc:	49053b0b 	stmdbmi	r5, {r0, r1, r3, r8, r9, fp, ip, sp}
     ee0:	00170213 	andseq	r0, r7, r3, lsl r2
     ee4:	010b2100 	mrseq	r2, (UNDEF: 27)
     ee8:	06120111 			; <UNDEFINED> instruction: 0x06120111
     eec:	00001301 	andeq	r1, r0, r1, lsl #6
     ef0:	03003422 	movweq	r3, #1058	; 0x422
     ef4:	3b0b3a0e 	blcc	2cf734 <__bss_end__+0x2c0bbc>
     ef8:	3f13490b 	svccc	0x0013490b
     efc:	00180219 	andseq	r0, r8, r9, lsl r2
     f00:	012e2300 	teqeq	lr, r0, lsl #6
     f04:	0e03193f 	mcreq	9, 0, r1, cr3, cr15, {1}
     f08:	0b3b0b3a 	bleq	ec3bf8 <__bss_end__+0xeb5080>
     f0c:	13491927 	movtne	r1, #39207	; 0x9927
     f10:	1301193c 	movwne	r1, #6460	; 0x193c
     f14:	05240000 	streq	r0, [r4, #-0]!
     f18:	00134900 	andseq	r4, r3, r0, lsl #18
     f1c:	00262500 	eoreq	r2, r6, r0, lsl #10
     f20:	00001349 	andeq	r1, r0, r9, asr #6
     f24:	00003526 	andeq	r3, r0, r6, lsr #10
     f28:	012e2700 	teqeq	lr, r0, lsl #14
     f2c:	0e03193f 	mcreq	9, 0, r1, cr3, cr15, {1}
     f30:	0b3b0b3a 	bleq	ec3c20 <__bss_end__+0xeb50a8>
     f34:	193c1927 	ldmdbne	ip!, {r0, r1, r2, r5, r8, fp, ip}
     f38:	00001301 	andeq	r1, r0, r1, lsl #6
     f3c:	3f002e28 	svccc	0x00002e28
     f40:	3a0e0319 	bcc	381bac <__bss_end__+0x373034>
     f44:	270b3b0b 	strcs	r3, [fp, -fp, lsl #22]
     f48:	00193c19 	andseq	r3, r9, r9, lsl ip
     f4c:	11010000 	mrsne	r0, (UNDEF: 1)
     f50:	130e2501 	movwne	r2, #58625	; 0xe501
     f54:	1b0e030b 	blne	381b88 <__bss_end__+0x373010>
     f58:	1201110e 	andne	r1, r1, #-2147483645	; 0x80000003
     f5c:	00171006 	andseq	r1, r7, r6
     f60:	00240200 	eoreq	r0, r4, r0, lsl #4
     f64:	0b3e0b0b 	bleq	f83b98 <__bss_end__+0xf75020>
     f68:	00000803 	andeq	r0, r0, r3, lsl #16
     f6c:	0b002403 	bleq	9f80 <prefetch_abort_vector+0x8>
     f70:	030b3e0b 	movweq	r3, #48651	; 0xbe0b
     f74:	0400000e 	streq	r0, [r0], #-14
     f78:	0e030016 	mcreq	0, 0, r0, cr3, cr6, {0}
     f7c:	0b3b0b3a 	bleq	ec3c6c <__bss_end__+0xeb50f4>
     f80:	00001349 	andeq	r1, r0, r9, asr #6
     f84:	0b000f05 	bleq	4ba0 <_start-0x3460>
     f88:	0600000b 	streq	r0, [r0], -fp
     f8c:	0b0b000f 	bleq	2c0fd0 <__bss_end__+0x2b2458>
     f90:	00001349 	andeq	r1, r0, r9, asr #6
     f94:	49002607 	stmdbmi	r0, {r0, r1, r2, r9, sl, sp}
     f98:	08000013 	stmdaeq	r0, {r0, r1, r4}
     f9c:	0b0b0113 	bleq	2c13f0 <__bss_end__+0x2b2878>
     fa0:	0b3b0b3a 	bleq	ec3c90 <__bss_end__+0xeb5118>
     fa4:	00001301 	andeq	r1, r0, r1, lsl #6
     fa8:	03000d09 	movweq	r0, #3337	; 0xd09
     fac:	3b0b3a08 	blcc	2cf7d4 <__bss_end__+0x2c0c5c>
     fb0:	3813490b 	ldmdacc	r3, {r0, r1, r3, r8, fp, lr}
     fb4:	0a00000b 	beq	fe8 <_start-0x7018>
     fb8:	0e03000d 	cdpeq	0, 0, cr0, cr3, cr13, {0}
     fbc:	0b3b0b3a 	bleq	ec3cac <__bss_end__+0xeb5134>
     fc0:	0b381349 	bleq	e05cec <__bss_end__+0xdf7174>
     fc4:	130b0000 	movwne	r0, #45056	; 0xb000
     fc8:	0b0e0301 	bleq	381bd4 <__bss_end__+0x37305c>
     fcc:	3b0b3a0b 	blcc	2cf800 <__bss_end__+0x2c0c88>
     fd0:	0013010b 	andseq	r0, r3, fp, lsl #2
     fd4:	000d0c00 	andeq	r0, sp, r0, lsl #24
     fd8:	13490e03 	movtne	r0, #40451	; 0x9e03
     fdc:	19340b38 	ldmdbne	r4!, {r3, r4, r5, r8, r9, fp}
     fe0:	2e0d0000 	cdpcs	0, 0, cr0, cr13, cr0, {0}
     fe4:	3a0e0301 	bcc	381bf0 <__bss_end__+0x373078>
     fe8:	270b3b0b 	strcs	r3, [fp, -fp, lsl #22]
     fec:	010b2019 	tsteq	fp, r9, lsl r0
     ff0:	0e000013 	mcreq	0, 0, r0, cr0, cr3, {0}
     ff4:	0e030005 	cdpeq	0, 0, cr0, cr3, cr5, {0}
     ff8:	0b3b0b3a 	bleq	ec3ce8 <__bss_end__+0xeb5170>
     ffc:	00001349 	andeq	r1, r0, r9, asr #6
    1000:	0300050f 	movweq	r0, #1295	; 0x50f
    1004:	3b0b3a08 	blcc	2cf82c <__bss_end__+0x2c0cb4>
    1008:	0013490b 	andseq	r4, r3, fp, lsl #18
    100c:	010b1000 	mrseq	r1, (UNDEF: 11)
    1010:	34110000 	ldrcc	r0, [r1], #-0
    1014:	3a0e0300 	bcc	381c1c <__bss_end__+0x3730a4>
    1018:	490b3b0b 	stmdbmi	fp, {r0, r1, r3, r8, r9, fp, ip, sp}
    101c:	12000013 	andne	r0, r0, #19
    1020:	193f012e 	ldmdbne	pc!, {r1, r2, r3, r5, r8}	; <UNPREDICTABLE>
    1024:	0b3a0e03 	bleq	e84838 <__bss_end__+0xe75cc0>
    1028:	19270b3b 	stmdbne	r7!, {r0, r1, r3, r4, r5, r8, r9, fp}
    102c:	06120111 			; <UNDEFINED> instruction: 0x06120111
    1030:	42971840 	addsmi	r1, r7, #64, 16	; 0x400000
    1034:	00130119 	andseq	r0, r3, r9, lsl r1
    1038:	00051300 	andeq	r1, r5, r0, lsl #6
    103c:	0b3a0e03 	bleq	e84850 <__bss_end__+0xe75cd8>
    1040:	13490b3b 	movtne	r0, #39739	; 0x9b3b
    1044:	00001702 	andeq	r1, r0, r2, lsl #14
    1048:	03000514 	movweq	r0, #1300	; 0x514
    104c:	3b0b3a08 	blcc	2cf874 <__bss_end__+0x2c0cfc>
    1050:	0213490b 	andseq	r4, r3, #180224	; 0x2c000
    1054:	15000017 	strne	r0, [r0, #-23]
    1058:	08030034 	stmdaeq	r3, {r2, r4, r5}
    105c:	0b3b0b3a 	bleq	ec3d4c <__bss_end__+0xeb51d4>
    1060:	18021349 	stmdane	r2, {r0, r3, r6, r8, r9, ip}
    1064:	34160000 	ldrcc	r0, [r6], #-0
    1068:	3a080300 	bcc	201c70 <__bss_end__+0x1f30f8>
    106c:	490b3b0b 	stmdbmi	fp, {r0, r1, r3, r8, r9, fp, ip, sp}
    1070:	00170213 	andseq	r0, r7, r3, lsl r2
    1074:	010b1700 	tsteq	fp, r0, lsl #14
    1078:	06120111 			; <UNDEFINED> instruction: 0x06120111
    107c:	00001301 	andeq	r1, r0, r1, lsl #6
    1080:	03003418 	movweq	r3, #1048	; 0x418
    1084:	3b0b3a0e 	blcc	2cf8c4 <__bss_end__+0x2c0d4c>
    1088:	0213490b 	andseq	r4, r3, #180224	; 0x2c000
    108c:	19000018 	stmdbne	r0, {r3, r4}
    1090:	1331011d 	teqne	r1, #1073741831	; 0x40000007
    1094:	06120111 			; <UNDEFINED> instruction: 0x06120111
    1098:	0b590b58 	bleq	1643e00 <__bss_end__+0x1635288>
    109c:	00001301 	andeq	r1, r0, r1, lsl #6
    10a0:	3100051a 	tstcc	r0, sl, lsl r5
    10a4:	00170213 	andseq	r0, r7, r3, lsl r2
    10a8:	00051b00 	andeq	r1, r5, r0, lsl #22
    10ac:	18021331 	stmdane	r2, {r0, r4, r5, r8, r9, ip}
    10b0:	051c0000 	ldreq	r0, [ip, #-0]
    10b4:	1c133100 	ldfnes	f3, [r3], {-0}
    10b8:	1d00000b 	stcne	0, cr0, [r0, #-44]	; 0xffffffd4
    10bc:	0111010b 	tsteq	r1, fp, lsl #2
    10c0:	00000612 	andeq	r0, r0, r2, lsl r6
    10c4:	3100341e 	tstcc	r0, lr, lsl r4
    10c8:	00170213 	andseq	r0, r7, r3, lsl r2
    10cc:	82891f00 	addhi	r1, r9, #0, 30
    10d0:	01110101 	tsteq	r1, r1, lsl #2
    10d4:	00001331 	andeq	r1, r0, r1, lsr r3
    10d8:	01828a20 	orreq	r8, r2, r0, lsr #20
    10dc:	91180200 	tstls	r8, r0, lsl #4
    10e0:	00001842 	andeq	r1, r0, r2, asr #16
    10e4:	31011d21 	tstcc	r1, r1, lsr #26
    10e8:	12011113 	andne	r1, r1, #-1073741820	; 0xc0000004
    10ec:	590b5806 	stmdbpl	fp, {r1, r2, fp, ip, lr}
    10f0:	2200000b 	andcs	r0, r0, #11
    10f4:	0e03012e 	adfeqsp	f0, f3, #0.5
    10f8:	0b3b0b3a 	bleq	ec3de8 <__bss_end__+0xeb5270>
    10fc:	13491927 	movtne	r1, #39207	; 0x9927
    1100:	13010b20 	movwne	r0, #6944	; 0x1b20
    1104:	2e230000 	cdpcs	0, 2, cr0, cr3, cr0, {0}
    1108:	03193f01 	tsteq	r9, #1, 30
    110c:	3b0b3a0e 	blcc	2cf94c <__bss_end__+0x2c0dd4>
    1110:	4919270b 	ldmdbmi	r9, {r0, r1, r3, r8, r9, sl, sp}
    1114:	12011113 	andne	r1, r1, #-1073741820	; 0xc0000004
    1118:	97184006 	ldrls	r4, [r8, -r6]
    111c:	13011942 	movwne	r1, #6466	; 0x1942
    1120:	89240000 	stmdbhi	r4!, {}	; <UNPREDICTABLE>
    1124:	11000182 	smlabbne	r0, r2, r1, r0
    1128:	00133101 	andseq	r3, r3, r1, lsl #2
    112c:	82892500 	addhi	r2, r9, #0, 10
    1130:	01110101 	tsteq	r1, r1, lsl #2
    1134:	13011331 	movwne	r1, #4913	; 0x1331
    1138:	34260000 	strtcc	r0, [r6], #-0
    113c:	3a0e0300 	bcc	381d44 <__bss_end__+0x3731cc>
    1140:	490b3b0b 	stmdbmi	fp, {r0, r1, r3, r8, r9, fp, ip, sp}
    1144:	00170213 	andseq	r0, r7, r3, lsl r2
    1148:	00052700 	andeq	r2, r5, r0, lsl #14
    114c:	00001331 	andeq	r1, r0, r1, lsr r3
    1150:	03000528 	movweq	r0, #1320	; 0x528
    1154:	3b0b3a0e 	blcc	2cf994 <__bss_end__+0x2c0e1c>
    1158:	0213490b 	andseq	r4, r3, #180224	; 0x2c000
    115c:	29000018 	stmdbcs	r0, {r3, r4}
    1160:	0e030034 	mcreq	0, 0, r0, cr3, cr4, {1}
    1164:	19341349 	ldmdbne	r4!, {r0, r3, r6, r8, r9, ip}
    1168:	00001802 	andeq	r1, r0, r2, lsl #16
    116c:	4901012a 	stmdbmi	r1, {r1, r3, r5, r8}
    1170:	00130113 	andseq	r0, r3, r3, lsl r1
    1174:	00212b00 	eoreq	r2, r1, r0, lsl #22
    1178:	0b2f1349 	bleq	bc5ea4 <__bss_end__+0xbb732c>
    117c:	342c0000 	strtcc	r0, [ip], #-0
    1180:	3a080300 	bcc	201d88 <__bss_end__+0x1f3210>
    1184:	490b3b0b 	stmdbmi	fp, {r0, r1, r3, r8, r9, fp, ip, sp}
    1188:	00061c13 	andeq	r1, r6, r3, lsl ip
    118c:	00342d00 	eorseq	r2, r4, r0, lsl #26
    1190:	0b3a0803 	bleq	e831a4 <__bss_end__+0xe7462c>
    1194:	13490b3b 	movtne	r0, #39739	; 0x9b3b
    1198:	00000b1c 	andeq	r0, r0, ip, lsl fp
    119c:	0300052e 	movweq	r0, #1326	; 0x52e
    11a0:	3b0b3a08 	blcc	2cf9c8 <__bss_end__+0x2c0e50>
    11a4:	0213490b 	andseq	r4, r3, #180224	; 0x2c000
    11a8:	2f000018 	svccs	0x00000018
    11ac:	00000018 	andeq	r0, r0, r8, lsl r0
    11b0:	49002130 	stmdbmi	r0, {r4, r5, r8, sp}
    11b4:	00052f13 	andeq	r2, r5, r3, lsl pc
    11b8:	012e3100 	teqeq	lr, r0, lsl #2
    11bc:	0e03193f 	mcreq	9, 0, r1, cr3, cr15, {1}
    11c0:	0b3b0b3a 	bleq	ec3eb0 <__bss_end__+0xeb5338>
    11c4:	193c1927 	ldmdbne	ip!, {r0, r1, r2, r5, r8, fp, ip}
    11c8:	00001301 	andeq	r1, r0, r1, lsl #6
    11cc:	49000532 	stmdbmi	r0, {r1, r4, r5, r8, sl}
    11d0:	33000013 	movwcc	r0, #19
    11d4:	193f002e 	ldmdbne	pc!, {r1, r2, r3, r5}	; <UNPREDICTABLE>
    11d8:	0b3a0e03 	bleq	e849ec <__bss_end__+0xe75e74>
    11dc:	19270b3b 	stmdbne	r7!, {r0, r1, r3, r4, r5, r8, r9, fp}
    11e0:	193c1349 	ldmdbne	ip!, {r0, r3, r6, r8, r9, ip}
    11e4:	2e340000 	cdpcs	0, 3, cr0, cr4, cr0, {0}
    11e8:	03193f01 	tsteq	r9, #1, 30
    11ec:	3b0b3a0e 	blcc	2cfa2c <__bss_end__+0x2c0eb4>
    11f0:	4919270b 	ldmdbmi	r9, {r0, r1, r3, r8, r9, sl, sp}
    11f4:	01193c13 	tsteq	r9, r3, lsl ip
    11f8:	35000013 	strcc	r0, [r0, #-19]
    11fc:	193f002e 	ldmdbne	pc!, {r1, r2, r3, r5}	; <UNPREDICTABLE>
    1200:	0b3a0e03 	bleq	e84a14 <__bss_end__+0xe75e9c>
    1204:	19270b3b 	stmdbne	r7!, {r0, r1, r3, r4, r5, r8, r9, fp}
    1208:	0000193c 	andeq	r1, r0, ip, lsr r9
    120c:	3f012e36 	svccc	0x00012e36
    1210:	3a0e0319 	bcc	381e7c <__bss_end__+0x373304>
    1214:	270b3b0b 	strcs	r3, [fp, -fp, lsl #22]
    1218:	3c134919 	ldccc	9, cr4, [r3], {25}
    121c:	00000019 	andeq	r0, r0, r9, lsl r0
    1220:	25011101 	strcs	r1, [r1, #-257]	; 0x101
    1224:	030b130e 	movweq	r1, #45838	; 0xb30e
    1228:	110e1b0e 	tstne	lr, lr, lsl #22
    122c:	10061201 	andne	r1, r6, r1, lsl #4
    1230:	02000017 	andeq	r0, r0, #23
    1234:	0b0b0024 	bleq	2c12cc <__bss_end__+0x2b2754>
    1238:	08030b3e 	stmdaeq	r3, {r1, r2, r3, r4, r5, r8, r9, fp}
    123c:	24030000 	strcs	r0, [r3], #-0
    1240:	3e0b0b00 	vmlacc.f64	d0, d11, d0
    1244:	000e030b 	andeq	r0, lr, fp, lsl #6
    1248:	01040400 	tsteq	r4, r0, lsl #8
    124c:	0b3a0b0b 	bleq	e83e80 <__bss_end__+0xe75308>
    1250:	13010b3b 	movwne	r0, #6971	; 0x1b3b
    1254:	28050000 	stmdacs	r5, {}	; <UNPREDICTABLE>
    1258:	1c0e0300 	stcne	3, cr0, [lr], {-0}
    125c:	0600000d 	streq	r0, [r0], -sp
    1260:	0e030016 	mcreq	0, 0, r0, cr3, cr6, {0}
    1264:	0b3b0b3a 	bleq	ec3f54 <__bss_end__+0xeb53dc>
    1268:	00001349 	andeq	r1, r0, r9, asr #6
    126c:	3f012e07 	svccc	0x00012e07
    1270:	3a0e0319 	bcc	381edc <__bss_end__+0x373364>
    1274:	270b3b0b 	strcs	r3, [fp, -fp, lsl #22]
    1278:	12011119 	andne	r1, r1, #1073741830	; 0x40000006
    127c:	97184006 	ldrls	r4, [r8, -r6]
    1280:	13011942 	movwne	r1, #6466	; 0x1942
    1284:	89080000 	stmdbhi	r8, {}	; <UNPREDICTABLE>
    1288:	11000182 	smlabbne	r0, r2, r1, r0
    128c:	00133101 	andseq	r3, r3, r1, lsl #2
    1290:	82890900 	addhi	r0, r9, #0, 18
    1294:	01110101 	tsteq	r1, r1, lsl #2
    1298:	13011331 	movwne	r1, #4913	; 0x1331
    129c:	8a0a0000 	bhi	2812a4 <__bss_end__+0x27272c>
    12a0:	02000182 	andeq	r0, r0, #-2147483616	; 0x80000020
    12a4:	18429118 	stmdane	r2, {r3, r4, r8, ip, pc}^
    12a8:	2e0b0000 	cdpcs	0, 0, cr0, cr11, cr0, {0}
    12ac:	03193f01 	tsteq	r9, #1, 30
    12b0:	3b0b3a0e 	blcc	2cfaf0 <__bss_end__+0x2c0f78>
    12b4:	4919270b 	ldmdbmi	r9, {r0, r1, r3, r8, r9, sl, sp}
    12b8:	12011113 	andne	r1, r1, #-1073741820	; 0xc0000004
    12bc:	97184006 	ldrls	r4, [r8, -r6]
    12c0:	13011942 	movwne	r1, #6466	; 0x1942
    12c4:	050c0000 	streq	r0, [ip, #-0]
    12c8:	3a080300 	bcc	201ed0 <__bss_end__+0x1f3358>
    12cc:	490b3b0b 	stmdbmi	fp, {r0, r1, r3, r8, r9, fp, ip, sp}
    12d0:	00170213 	andseq	r0, r7, r3, lsl r2
    12d4:	82890d00 	addhi	r0, r9, #0, 26
    12d8:	01110101 	tsteq	r1, r1, lsl #2
    12dc:	00001331 	andeq	r1, r0, r1, lsr r3
    12e0:	0300340e 	movweq	r3, #1038	; 0x40e
    12e4:	3b0b3a0e 	blcc	2cfb24 <__bss_end__+0x2c0fac>
    12e8:	3f13490b 	svccc	0x0013490b
    12ec:	00180219 	andseq	r0, r8, r9, lsl r2
    12f0:	000f0f00 	andeq	r0, pc, r0, lsl #30
    12f4:	13490b0b 	movtne	r0, #39691	; 0x9b0b
    12f8:	35100000 	ldrcc	r0, [r0, #-0]
    12fc:	00134900 	andseq	r4, r3, r0, lsl #18
    1300:	002e1100 	eoreq	r1, lr, r0, lsl #2
    1304:	0e03193f 	mcreq	9, 0, r1, cr3, cr15, {1}
    1308:	0b3b0b3a 	bleq	ec3ff8 <__bss_end__+0xeb5480>
    130c:	193c1927 	ldmdbne	ip!, {r0, r1, r2, r5, r8, fp, ip}
    1310:	2e120000 	cdpcs	0, 1, cr0, cr2, cr0, {0}
    1314:	03193f01 	tsteq	r9, #1, 30
    1318:	3b0b3a0e 	blcc	2cfb58 <__bss_end__+0x2c0fe0>
    131c:	3c19270b 	ldccc	7, cr2, [r9], {11}
    1320:	00130119 	andseq	r0, r3, r9, lsl r1
    1324:	00051300 	andeq	r1, r5, r0, lsl #6
    1328:	00001349 	andeq	r1, r0, r9, asr #6
    132c:	3f012e14 	svccc	0x00012e14
    1330:	3a0e0319 	bcc	381f9c <__bss_end__+0x373424>
    1334:	270b3b0b 	strcs	r3, [fp, -fp, lsl #22]
    1338:	3c134919 	ldccc	9, cr4, [r3], {25}
    133c:	00130119 	andseq	r0, r3, r9, lsl r1
    1340:	00261500 	eoreq	r1, r6, r0, lsl #10
    1344:	00001349 	andeq	r1, r0, r9, asr #6
    1348:	00003516 	andeq	r3, r0, r6, lsl r5
    134c:	11010000 	mrsne	r0, (UNDEF: 1)
    1350:	130e2501 	movwne	r2, #58625	; 0xe501
    1354:	1b0e030b 	blne	381f88 <__bss_end__+0x373410>
    1358:	1201110e 	andne	r1, r1, #-2147483645	; 0x80000003
    135c:	00171006 	andseq	r1, r7, r6
    1360:	00240200 	eoreq	r0, r4, r0, lsl #4
    1364:	0b3e0b0b 	bleq	f83f98 <__bss_end__+0xf75420>
    1368:	00000803 	andeq	r0, r0, r3, lsl #16
    136c:	0b002403 	bleq	a380 <__FUNCTION__.4236+0x8>
    1370:	030b3e0b 	movweq	r3, #48651	; 0xbe0b
    1374:	0400000e 	streq	r0, [r0], #-14
    1378:	0b0b000f 	bleq	2c13bc <__bss_end__+0x2b2844>
    137c:	00001349 	andeq	r1, r0, r9, asr #6
    1380:	49002605 	stmdbmi	r0, {r0, r2, r9, sl, sp}
    1384:	06000013 			; <UNDEFINED> instruction: 0x06000013
    1388:	13490101 	movtne	r0, #37121	; 0x9101
    138c:	00001301 	andeq	r1, r0, r1, lsl #6
    1390:	49002107 	stmdbmi	r0, {r0, r1, r2, r8, sp}
    1394:	000b2f13 	andeq	r2, fp, r3, lsl pc
    1398:	01040800 	tsteq	r4, r0, lsl #16
    139c:	0b3a0b0b 	bleq	e83fd0 <__bss_end__+0xe75458>
    13a0:	13010b3b 	movwne	r0, #6971	; 0x1b3b
    13a4:	28090000 	stmdacs	r9, {}	; <UNPREDICTABLE>
    13a8:	1c0e0300 	stcne	3, cr0, [lr], {-0}
    13ac:	0a00000d 	beq	13e8 <_start-0x6c18>
    13b0:	193f012e 	ldmdbne	pc!, {r1, r2, r3, r5, r8}	; <UNPREDICTABLE>
    13b4:	0b3a0e03 	bleq	e84bc8 <__bss_end__+0xe76050>
    13b8:	19270b3b 	stmdbne	r7!, {r0, r1, r3, r4, r5, r8, r9, fp}
    13bc:	06120111 			; <UNDEFINED> instruction: 0x06120111
    13c0:	42971840 	addsmi	r1, r7, #64, 16	; 0x400000
    13c4:	00130119 	andseq	r0, r3, r9, lsl r1
    13c8:	00340b00 	eorseq	r0, r4, r0, lsl #22
    13cc:	0b3a0e03 	bleq	e84be0 <__bss_end__+0xe76068>
    13d0:	13490b3b 	movtne	r0, #39739	; 0x9b3b
    13d4:	193c193f 	ldmdbne	ip!, {r0, r1, r2, r3, r4, r5, r8, fp, ip}
    13d8:	340c0000 	strcc	r0, [ip], #-0
    13dc:	3a080300 	bcc	201fe4 <__bss_end__+0x1f346c>
    13e0:	490b3b0b 	stmdbmi	fp, {r0, r1, r3, r8, r9, fp, ip, sp}
    13e4:	000b1c13 	andeq	r1, fp, r3, lsl ip
    13e8:	00340d00 	eorseq	r0, r4, r0, lsl #26
    13ec:	0b3a0803 	bleq	e83400 <__bss_end__+0xe74888>
    13f0:	13490b3b 	movtne	r0, #39739	; 0x9b3b
    13f4:	340e0000 	strcc	r0, [lr], #-0
    13f8:	3a080300 	bcc	202000 <__bss_end__+0x1f3488>
    13fc:	490b3b0b 	stmdbmi	fp, {r0, r1, r3, r8, r9, fp, ip, sp}
    1400:	00180213 	andseq	r0, r8, r3, lsl r2
    1404:	010b0f00 	tsteq	fp, r0, lsl #30
    1408:	06120111 			; <UNDEFINED> instruction: 0x06120111
    140c:	00001301 	andeq	r1, r0, r1, lsl #6
    1410:	03003410 	movweq	r3, #1040	; 0x410
    1414:	3b0b3a08 	blcc	2cfc3c <__bss_end__+0x2c10c4>
    1418:	0213490b 	andseq	r4, r3, #180224	; 0x2c000
    141c:	11000017 	tstne	r0, r7, lsl r0
    1420:	01018289 	smlabbeq	r1, r9, r2, r8
    1424:	13310111 	teqne	r1, #1073741828	; 0x40000004
    1428:	00001301 	andeq	r1, r0, r1, lsl #6
    142c:	01828a12 	orreq	r8, r2, r2, lsl sl
    1430:	91180200 	tstls	r8, r0, lsl #4
    1434:	00001842 	andeq	r1, r0, r2, asr #16
    1438:	01828913 	orreq	r8, r2, r3, lsl r9
    143c:	31011100 	mrscc	r1, (UNDEF: 17)
    1440:	14000013 	strne	r0, [r0], #-19
    1444:	08030005 	stmdaeq	r3, {r0, r2}
    1448:	0b3b0b3a 	bleq	ec4138 <__bss_end__+0xeb55c0>
    144c:	17021349 	strne	r1, [r2, -r9, asr #6]
    1450:	34150000 	ldrcc	r0, [r5], #-0
    1454:	490e0300 	stmdbmi	lr, {r8, r9}
    1458:	02193413 	andseq	r3, r9, #318767104	; 0x13000000
    145c:	16000018 			; <UNDEFINED> instruction: 0x16000018
    1460:	193f012e 	ldmdbne	pc!, {r1, r2, r3, r5, r8}	; <UNPREDICTABLE>
    1464:	0b3a0e03 	bleq	e84c78 <__bss_end__+0xe76100>
    1468:	19270b3b 	stmdbne	r7!, {r0, r1, r3, r4, r5, r8, r9, fp}
    146c:	1301193c 	movwne	r1, #6460	; 0x193c
    1470:	05170000 	ldreq	r0, [r7, #-0]
    1474:	00134900 	andseq	r4, r3, r0, lsl #18
    1478:	002e1800 	eoreq	r1, lr, r0, lsl #16
    147c:	0e03193f 	mcreq	9, 0, r1, cr3, cr15, {1}
    1480:	0b3b0b3a 	bleq	ec4170 <__bss_end__+0xeb55f8>
    1484:	193c1927 	ldmdbne	ip!, {r0, r1, r2, r5, r8, fp, ip}
    1488:	2e190000 	cdpcs	0, 1, cr0, cr9, cr0, {0}
    148c:	03193f01 	tsteq	r9, #1, 30
    1490:	3b0b3a0e 	blcc	2cfcd0 <__bss_end__+0x2c1158>
    1494:	4919270b 	ldmdbmi	r9, {r0, r1, r3, r8, r9, sl, sp}
    1498:	01193c13 	tsteq	r9, r3, lsl ip
    149c:	1a000013 	bne	14f0 <_start-0x6b10>
    14a0:	00000018 	andeq	r0, r0, r8, lsl r0
    14a4:	01110100 	tsteq	r1, r0, lsl #2
    14a8:	0b130e25 	bleq	4c4d44 <__bss_end__+0x4b61cc>
    14ac:	0e1b0e03 	cdpeq	14, 1, cr0, cr11, cr3, {0}
    14b0:	06120111 			; <UNDEFINED> instruction: 0x06120111
    14b4:	00001710 	andeq	r1, r0, r0, lsl r7
    14b8:	0b002402 	bleq	a4c8 <__FUNCTION__.4275+0x14>
    14bc:	030b3e0b 	movweq	r3, #48651	; 0xbe0b
    14c0:	03000008 	movweq	r0, #8
    14c4:	0e030016 	mcreq	0, 0, r0, cr3, cr6, {0}
    14c8:	0b3b0b3a 	bleq	ec41b8 <__bss_end__+0xeb5640>
    14cc:	00001349 	andeq	r1, r0, r9, asr #6
    14d0:	0b002404 	bleq	a4e8 <__FUNCTION__.4295+0x8>
    14d4:	030b3e0b 	movweq	r3, #48651	; 0xbe0b
    14d8:	0500000e 	streq	r0, [r0, #-14]
    14dc:	0b0b000f 	bleq	2c1520 <__bss_end__+0x2b29a8>
    14e0:	13060000 	movwne	r0, #24576	; 0x6000
    14e4:	3a0b0b01 	bcc	2c40f0 <__bss_end__+0x2b5578>
    14e8:	010b3b0b 	tsteq	fp, fp, lsl #22
    14ec:	07000013 	smladeq	r0, r3, r0, r0
    14f0:	0803000d 	stmdaeq	r3, {r0, r2, r3}
    14f4:	0b3b0b3a 	bleq	ec41e4 <__bss_end__+0xeb566c>
    14f8:	0b381349 	bleq	e06224 <__bss_end__+0xdf76ac>
    14fc:	0d080000 	stceq	0, cr0, [r8, #-0]
    1500:	3a0e0300 	bcc	382108 <__bss_end__+0x373590>
    1504:	490b3b0b 	stmdbmi	fp, {r0, r1, r3, r8, r9, fp, ip, sp}
    1508:	000b3813 	andeq	r3, fp, r3, lsl r8
    150c:	01040900 	tsteq	r4, r0, lsl #18
    1510:	0b3a0b0b 	bleq	e84144 <__bss_end__+0xe755cc>
    1514:	13010b3b 	movwne	r0, #6971	; 0x1b3b
    1518:	280a0000 	stmdacs	sl, {}	; <UNPREDICTABLE>
    151c:	1c0e0300 	stcne	3, cr0, [lr], {-0}
    1520:	0b00000d 	bleq	155c <_start-0x6aa4>
    1524:	193f012e 	ldmdbne	pc!, {r1, r2, r3, r5, r8}	; <UNPREDICTABLE>
    1528:	0b3a0e03 	bleq	e84d3c <__bss_end__+0xe761c4>
    152c:	19270b3b 	stmdbne	r7!, {r0, r1, r3, r4, r5, r8, r9, fp}
    1530:	01111349 	tsteq	r1, r9, asr #6
    1534:	18400612 	stmdane	r0, {r1, r4, r9, sl}^
    1538:	01194297 			; <UNDEFINED> instruction: 0x01194297
    153c:	0c000013 	stceq	0, cr0, [r0], {19}
    1540:	08030034 	stmdaeq	r3, {r2, r4, r5}
    1544:	0b3b0b3a 	bleq	ec4234 <__bss_end__+0xeb56bc>
    1548:	061c1349 	ldreq	r1, [ip], -r9, asr #6
    154c:	890d0000 	stmdbhi	sp, {}	; <UNPREDICTABLE>
    1550:	11010182 	smlabbne	r1, r2, r1, r0
    1554:	00133101 	andseq	r3, r3, r1, lsl #2
    1558:	828a0e00 	addhi	r0, sl, #0, 28
    155c:	18020001 	stmdane	r2, {r0}
    1560:	00184291 	mulseq	r8, r1, r2
    1564:	000f0f00 	andeq	r0, pc, r0, lsl #30
    1568:	13490b0b 	movtne	r0, #39691	; 0x9b0b
    156c:	2e100000 	cdpcs	0, 1, cr0, cr0, cr0, {0}
    1570:	03193f01 	tsteq	r9, #1, 30
    1574:	3b0b3a0e 	blcc	2cfdb4 <__bss_end__+0x2c123c>
    1578:	4919270b 	ldmdbmi	r9, {r0, r1, r3, r8, r9, sl, sp}
    157c:	00193c13 	andseq	r3, r9, r3, lsl ip
    1580:	00051100 	andeq	r1, r5, r0, lsl #2
    1584:	00001349 	andeq	r1, r0, r9, asr #6
	...

Disassembly of section .debug_loc:

00000000 <.debug_loc>:
       0:	0000004c 	andeq	r0, r0, ip, asr #32
       4:	00000057 	andeq	r0, r0, r7, asr r0
       8:	57500001 	ldrbpl	r0, [r0, -r1]
       c:	ac000000 	stcge	0, cr0, [r0], {-0}
      10:	01000000 	mrseq	r0, (UNDEF: 0)
      14:	00005400 	andeq	r5, r0, r0, lsl #8
      18:	00000000 	andeq	r0, r0, r0
      1c:	00700000 	rsbseq	r0, r0, r0
      20:	00840000 	addeq	r0, r4, r0
      24:	00010000 	andeq	r0, r1, r0
      28:	00009050 	andeq	r9, r0, r0, asr r0
      2c:	00009400 	andeq	r9, r0, r0, lsl #8
      30:	50000100 	andpl	r0, r0, r0, lsl #2
      34:	00000098 	muleq	r0, r8, r0
      38:	0000009c 	muleq	r0, ip, r0
      3c:	00500001 	subseq	r0, r0, r1
      40:	00000000 	andeq	r0, r0, r0
      44:	ac000000 	stcge	0, cr0, [r0], {-0}
      48:	b7000000 	strlt	r0, [r0, -r0]
      4c:	01000000 	mrseq	r0, (UNDEF: 0)
      50:	00b75000 	adcseq	r5, r7, r0
      54:	010c0000 	mrseq	r0, (UNDEF: 12)
      58:	00010000 	andeq	r0, r1, r0
      5c:	00000054 	andeq	r0, r0, r4, asr r0
      60:	00000000 	andeq	r0, r0, r0
      64:	0000cc00 	andeq	ip, r0, r0, lsl #24
      68:	0000dc00 	andeq	sp, r0, r0, lsl #24
      6c:	50000100 	andpl	r0, r0, r0, lsl #2
      70:	000000dc 	ldrdeq	r0, [r0], -ip
      74:	000000e4 	andeq	r0, r0, r4, ror #1
      78:	ec510001 	mrrc	0, 0, r0, r1, cr1
      7c:	f4000000 	vst4.8	{d0-d3}, [r0], r0
      80:	01000000 	mrseq	r0, (UNDEF: 0)
      84:	00f45000 	rscseq	r5, r4, r0
      88:	00fc0000 	rscseq	r0, ip, r0
      8c:	00010000 	andeq	r0, r1, r0
      90:	00000051 	andeq	r0, r0, r1, asr r0
      94:	00000000 	andeq	r0, r0, r0
      98:	00011c00 	andeq	r1, r1, r0, lsl #24
      9c:	00012c00 	andeq	r2, r1, r0, lsl #24
      a0:	50000100 	andpl	r0, r0, r0, lsl #2
      a4:	00000168 	andeq	r0, r0, r8, ror #2
      a8:	00000174 	andeq	r0, r0, r4, ror r1
      ac:	9c500001 	mrrcls	0, 0, r0, r0, cr1	; <UNPREDICTABLE>
      b0:	ac000001 	stcge	0, cr0, [r0], {1}
      b4:	01000001 	tsteq	r0, r1
      b8:	01b85000 			; <UNDEFINED> instruction: 0x01b85000
      bc:	01cc0000 	biceq	r0, ip, r0
      c0:	00010000 	andeq	r0, r1, r0
      c4:	00000050 	andeq	r0, r0, r0, asr r0
      c8:	00000000 	andeq	r0, r0, r0
      cc:	00013000 	andeq	r3, r1, r0
      d0:	00013400 	andeq	r3, r1, r0, lsl #8
      d4:	50000100 	andpl	r0, r0, r0, lsl #2
	...
      e0:	00000134 	andeq	r0, r0, r4, lsr r1
      e4:	00000168 	andeq	r0, r0, r8, ror #2
      e8:	00500001 	subseq	r0, r0, r1
      ec:	00000000 	andeq	r0, r0, r0
      f0:	34000000 	strcc	r0, [r0], #-0
      f4:	68000001 	stmdavs	r0, {r0}
      f8:	06000001 	streq	r0, [r0], -r1
      fc:	a7300300 	ldrge	r0, [r0, -r0, lsl #6]!
     100:	009f0000 	addseq	r0, pc, r0
     104:	00000000 	andeq	r0, r0, r0
     108:	38000000 	stmdacc	r0, {}	; <UNPREDICTABLE>
     10c:	68000001 	stmdavs	r0, {r0}
     110:	01000001 	tsteq	r0, r1
     114:	00005100 	andeq	r5, r0, r0, lsl #2
     118:	00000000 	andeq	r0, r0, r0
     11c:	01380000 	teqeq	r8, r0
     120:	01680000 	cmneq	r8, r0
     124:	00060000 	andeq	r0, r6, r0
     128:	00a73003 	adceq	r3, r7, r3
     12c:	00009f00 	andeq	r9, r0, r0, lsl #30
     130:	00000000 	andeq	r0, r0, r0
     134:	012c0000 	teqeq	ip, r0
     138:	01680000 	cmneq	r8, r0
     13c:	00060000 	andeq	r0, r6, r0
     140:	00a73003 	adceq	r3, r7, r3
     144:	01749f00 	cmneq	r4, r0, lsl #30
     148:	019c0000 	orrseq	r0, ip, r0
     14c:	00060000 	andeq	r0, r6, r0
     150:	00a73003 	adceq	r3, r7, r3
     154:	00009f00 	andeq	r9, r0, r0, lsl #30
     158:	00000000 	andeq	r0, r0, r0
     15c:	01ac0000 			; <UNDEFINED> instruction: 0x01ac0000
     160:	01b80000 			; <UNDEFINED> instruction: 0x01b80000
     164:	00060000 	andeq	r0, r6, r0
     168:	00c74c03 	sbceq	r4, r7, r3, lsl #24
     16c:	01d89f00 	bicseq	r9, r8, r0, lsl #30
     170:	021c0000 	andseq	r0, ip, #0
     174:	00060000 	andeq	r0, r6, r0
     178:	00c74c03 	sbceq	r4, r7, r3, lsl #24
     17c:	00009f00 	andeq	r9, r0, r0, lsl #30
     180:	00000000 	andeq	r0, r0, r0
     184:	01ac0000 			; <UNDEFINED> instruction: 0x01ac0000
     188:	01b80000 			; <UNDEFINED> instruction: 0x01b80000
     18c:	00060000 	andeq	r0, r6, r0
     190:	00c75003 	sbceq	r5, r7, r3
     194:	01d89f00 	bicseq	r9, r8, r0, lsl #30
     198:	021c0000 	andseq	r0, ip, #0
     19c:	00060000 	andeq	r0, r6, r0
     1a0:	00c75003 	sbceq	r5, r7, r3
     1a4:	00009f00 	andeq	r9, r0, r0, lsl #30
     1a8:	00000000 	andeq	r0, r0, r0
     1ac:	01ec0000 	mvneq	r0, r0
     1b0:	01fc0000 	mvnseq	r0, r0
     1b4:	00010000 	andeq	r0, r1, r0
     1b8:	0001fc53 	andeq	pc, r1, r3, asr ip	; <UNPREDICTABLE>
     1bc:	00020800 	andeq	r0, r2, r0, lsl #16
     1c0:	03000500 	movweq	r0, #1280	; 0x500
     1c4:	0000e758 	andeq	lr, r0, r8, asr r7
	...
     1d0:	0000021c 	andeq	r0, r0, ip, lsl r2
     1d4:	00000240 	andeq	r0, r0, r0, asr #4
     1d8:	50030006 	andpl	r0, r3, r6
     1dc:	9f0000c7 	svcls	0x000000c7
	...
     1e8:	00000268 	andeq	r0, r0, r8, ror #4
     1ec:	0000026f 	andeq	r0, r0, pc, ror #4
     1f0:	6f500001 	svcvs	0x00500001
     1f4:	74000002 	strvc	r0, [r0], #-2
     1f8:	04000002 	streq	r0, [r0], #-2
     1fc:	5001f300 	andpl	pc, r1, r0, lsl #6
     200:	0000009f 	muleq	r0, pc, r0	; <UNPREDICTABLE>
     204:	00000000 	andeq	r0, r0, r0
     208:	00029000 	andeq	r9, r2, r0
     20c:	0002c000 	andeq	ip, r2, r0
     210:	56000100 	strpl	r0, [r0], -r0, lsl #2
     214:	000002c4 	andeq	r0, r0, r4, asr #5
     218:	000002f8 	strdeq	r0, [r0], -r8
     21c:	00560001 	subseq	r0, r6, r1
     220:	00000000 	andeq	r0, r0, r0
     224:	90000000 	andls	r0, r0, r0
     228:	98000002 	stmdals	r0, {r1}
     22c:	06000002 	streq	r0, [r0], -r2
     230:	0673f200 	ldrbteq	pc, [r3], -r0, lsl #4	; <UNPREDICTABLE>
     234:	a4000000 	strge	r0, [r0], #-0
     238:	f8000002 			; <UNDEFINED> instruction: 0xf8000002
     23c:	06000002 	streq	r0, [r0], -r2
     240:	0673f200 	ldrbteq	pc, [r3], -r0, lsl #4	; <UNPREDICTABLE>
	...
     24c:	90000000 	andls	r0, r0, r0
     250:	98000002 	stmdals	r0, {r1}
     254:	06000002 	streq	r0, [r0], -r2
     258:	c7500300 	ldrbgt	r0, [r0, -r0, lsl #6]
     25c:	a49f0000 	ldrge	r0, [pc], #0	; 264 <_start-0x7d9c>
     260:	f8000002 			; <UNDEFINED> instruction: 0xf8000002
     264:	06000002 	streq	r0, [r0], -r2
     268:	c7500300 	ldrbgt	r0, [r0, -r0, lsl #6]
     26c:	009f0000 	addseq	r0, pc, r0
     270:	00000000 	andeq	r0, r0, r0
     274:	b8000000 	stmdalt	r0, {}	; <UNPREDICTABLE>
     278:	c8000002 	stmdagt	r0, {r1}
     27c:	01000002 	tsteq	r0, r2
     280:	02c85300 	sbceq	r5, r8, #0, 6
     284:	02d40000 	sbcseq	r0, r4, #0
     288:	00050000 	andeq	r0, r5, r0
     28c:	00e75803 	rsceq	r5, r7, r3, lsl #16
	...
     298:	0002f800 	andeq	pc, r2, r0, lsl #16
     29c:	00030300 	andeq	r0, r3, r0, lsl #6
     2a0:	50000100 	andpl	r0, r0, r0, lsl #2
     2a4:	00000303 	andeq	r0, r0, r3, lsl #6
     2a8:	00000374 	andeq	r0, r0, r4, ror r3
     2ac:	00540001 	subseq	r0, r4, r1
     2b0:	00000000 	andeq	r0, r0, r0
     2b4:	14000000 	strne	r0, [r0], #-0
     2b8:	40000003 	andmi	r0, r0, r3
     2bc:	01000003 	tsteq	r0, r3
     2c0:	03405100 	movteq	r5, #256	; 0x100
     2c4:	03570000 	cmpeq	r7, #0
     2c8:	00050000 	andeq	r0, r5, r0
     2cc:	00e75403 	rsceq	r5, r7, r3, lsl #8
	...
     2d8:	00037c00 	andeq	r7, r3, r0, lsl #24
     2dc:	0003c400 	andeq	ip, r3, r0, lsl #8
     2e0:	09000300 	stmdbeq	r0, {r8, r9}
     2e4:	03c49f82 	biceq	r9, r4, #520	; 0x208
     2e8:	03d80000 	bicseq	r0, r8, #0
     2ec:	00010000 	andeq	r0, r1, r0
     2f0:	0003d854 	andeq	sp, r3, r4, asr r8
     2f4:	0003e400 	andeq	lr, r3, r0, lsl #8
     2f8:	09000300 	stmdbeq	r0, {r8, r9}
     2fc:	03e49f82 	mvneq	r9, #520	; 0x208
     300:	03fc0000 	mvnseq	r0, #0
     304:	00010000 	andeq	r0, r1, r0
     308:	00000054 	andeq	r0, r0, r4, asr r0
     30c:	00000000 	andeq	r0, r0, r0
     310:	00039800 	andeq	r9, r3, r0, lsl #16
     314:	0003d800 	andeq	sp, r3, r0, lsl #16
     318:	f2000600 	vmax.s8	d0, d0, d0
     31c:	000007b0 			; <UNDEFINED> instruction: 0x000007b0
     320:	0003e000 	andeq	lr, r3, r0
     324:	0003e400 	andeq	lr, r3, r0, lsl #8
     328:	f2000600 	vmax.s8	d0, d0, d0
     32c:	000007b0 			; <UNDEFINED> instruction: 0x000007b0
	...
     338:	00039800 	andeq	r9, r3, r0, lsl #16
     33c:	0003d800 	andeq	sp, r3, r0, lsl #16
     340:	03000600 	movweq	r0, #1536	; 0x600
     344:	0000a730 	andeq	sl, r0, r0, lsr r7
     348:	0003e09f 	muleq	r3, pc, r0	; <UNPREDICTABLE>
     34c:	0003e400 	andeq	lr, r3, r0, lsl #8
     350:	03000600 	movweq	r0, #1536	; 0x600
     354:	0000a730 	andeq	sl, r0, r0, lsr r7
     358:	0000009f 	muleq	r0, pc, r0	; <UNPREDICTABLE>
     35c:	00000000 	andeq	r0, r0, r0
     360:	0003bc00 	andeq	fp, r3, r0, lsl #24
     364:	0003c800 	andeq	ip, r3, r0, lsl #16
     368:	51000100 	mrspl	r0, (UNDEF: 16)
     36c:	000003c8 	andeq	r0, r0, r8, asr #7
     370:	000003d8 	ldrdeq	r0, [r0], -r8
     374:	38030005 	stmdacc	r3, {r0, r2}
     378:	000000c7 	andeq	r0, r0, r7, asr #1
     37c:	00000000 	andeq	r0, r0, r0
     380:	fc000000 	stc2	0, cr0, [r0], {-0}
     384:	08000003 	stmdaeq	r0, {r0, r1}
     388:	01000004 	tsteq	r0, r4
     38c:	04085000 	streq	r5, [r8], #-0
     390:	04200000 	strteq	r0, [r0], #-0
     394:	00010000 	andeq	r0, r1, r0
     398:	00000054 	andeq	r0, r0, r4, asr r0
     39c:	00000000 	andeq	r0, r0, r0
     3a0:	0005cc00 	andeq	ip, r5, r0, lsl #24
     3a4:	0005fc00 	andeq	pc, r5, r0, lsl #24
     3a8:	42000200 	andmi	r0, r0, #0, 4
     3ac:	0005fc9f 	muleq	r5, pc, ip	; <UNPREDICTABLE>
     3b0:	00061400 	andeq	r1, r6, r0, lsl #8
     3b4:	50000100 	andpl	r0, r0, r0, lsl #2
     3b8:	00000614 	andeq	r0, r0, r4, lsl r6
     3bc:	0000061c 	andeq	r0, r0, ip, lsl r6
     3c0:	9f420002 	svcls	0x00420002
     3c4:	0000061c 	andeq	r0, r0, ip, lsl r6
     3c8:	00000647 	andeq	r0, r0, r7, asr #12
     3cc:	60500001 	subsvs	r0, r0, r1
     3d0:	68000006 	stmdavs	r0, {r1, r2}
     3d4:	01000006 	tsteq	r0, r6
     3d8:	00005000 	andeq	r5, r0, r0
     3dc:	00000000 	andeq	r0, r0, r0
     3e0:	05f40000 	ldrbeq	r0, [r4, #0]!
     3e4:	06000000 	streq	r0, [r0], -r0
     3e8:	00010000 	andeq	r0, r1, r0
     3ec:	00060051 	andeq	r0, r6, r1, asr r0
     3f0:	00061400 	andeq	r1, r6, r0, lsl #8
     3f4:	03000500 	movweq	r0, #1280	; 0x500
     3f8:	0000c738 	andeq	ip, r0, r8, lsr r7
	...
     404:	00000754 	andeq	r0, r0, r4, asr r7
     408:	00000788 	andeq	r0, r0, r8, lsl #15
     40c:	9f420002 	svcls	0x00420002
     410:	00000788 	andeq	r0, r0, r8, lsl #15
     414:	000007a0 	andeq	r0, r0, r0, lsr #15
     418:	a0500001 	subsge	r0, r0, r1
     41c:	a8000007 	stmdage	r0, {r0, r1, r2}
     420:	02000007 	andeq	r0, r0, #7
     424:	a89f4200 	ldmge	pc, {r9, lr}	; <UNPREDICTABLE>
     428:	d3000007 	movwle	r0, #7
     42c:	01000007 	tsteq	r0, r7
     430:	07ec5000 	strbeq	r5, [ip, r0]!
     434:	07f40000 	ldrbeq	r0, [r4, r0]!
     438:	00010000 	andeq	r0, r1, r0
     43c:	00000050 	andeq	r0, r0, r0, asr r0
     440:	00000000 	andeq	r0, r0, r0
     444:	00077c00 	andeq	r7, r7, r0, lsl #24
     448:	00078c00 	andeq	r8, r7, r0, lsl #24
     44c:	51000100 	mrspl	r0, (UNDEF: 16)
     450:	0000078c 	andeq	r0, r0, ip, lsl #15
     454:	000007a0 	andeq	r0, r0, r0, lsr #15
     458:	58030005 	stmdapl	r3, {r0, r2}
     45c:	000000e7 	andeq	r0, r0, r7, ror #1
     460:	00000000 	andeq	r0, r0, r0
     464:	9c000000 	stcls	0, cr0, [r0], {-0}
     468:	a4000008 	strge	r0, [r0], #-8
     46c:	02000008 	andeq	r0, r0, #8
     470:	a49f3000 	ldrge	r3, [pc], #0	; 478 <_start-0x7b88>
     474:	0c000008 	stceq	0, cr0, [r0], {8}
     478:	01000009 	tsteq	r0, r9
     47c:	00005500 	andeq	r5, r0, r0, lsl #10
     480:	00000000 	andeq	r0, r0, r0
     484:	08ac0000 	stmiaeq	ip!, {}	; <UNPREDICTABLE>
     488:	08af0000 	stmiaeq	pc!, {}	; <UNPREDICTABLE>
     48c:	00010000 	andeq	r0, r1, r0
     490:	0008af50 	andeq	sl, r8, r0, asr pc
     494:	0008d000 	andeq	sp, r8, r0
     498:	54000100 	strpl	r0, [r0], #-256	; 0x100
	...
     4a8:	00000004 	andeq	r0, r0, r4
     4ac:	04520001 	ldrbeq	r0, [r2], #-1
     4b0:	20000000 	andcs	r0, r0, r0
     4b4:	04000000 	streq	r0, [r0], #-0
     4b8:	5201f300 	andpl	pc, r1, #0, 6
     4bc:	0000009f 	muleq	r0, pc, r0	; <UNPREDICTABLE>
	...
     4c8:	00000c00 	andeq	r0, r0, r0, lsl #24
     4cc:	50000100 	andpl	r0, r0, r0, lsl #2
     4d0:	0000000c 	andeq	r0, r0, ip
     4d4:	00000014 	andeq	r0, r0, r4, lsl r0
     4d8:	01730003 	cmneq	r3, r3
     4dc:	0000149f 	muleq	r0, pc, r4	; <UNPREDICTABLE>
     4e0:	00002000 	andeq	r2, r0, r0
     4e4:	53000100 	movwpl	r0, #256	; 0x100
	...
     4f0:	0000002c 	andeq	r0, r0, ip, lsr #32
     4f4:	00000038 	andeq	r0, r0, r8, lsr r0
     4f8:	38500001 	ldmdacc	r0, {r0}^
     4fc:	48000000 	stmdami	r0, {}	; <UNPREDICTABLE>
     500:	01000000 	mrseq	r0, (UNDEF: 0)
     504:	00485500 	subeq	r5, r8, r0, lsl #10
     508:	00580000 	subseq	r0, r8, r0
     50c:	00010000 	andeq	r0, r1, r0
     510:	00000050 	andeq	r0, r0, r0, asr r0
	...
     51c:	00000b00 	andeq	r0, r0, r0, lsl #22
     520:	50000100 	andpl	r0, r0, r0, lsl #2
     524:	0000000b 	andeq	r0, r0, fp
     528:	00000014 	andeq	r0, r0, r4, lsl r0
     52c:	00540001 	subseq	r0, r4, r1
	...
     538:	10000000 	andne	r0, r0, r0
     53c:	01000000 	mrseq	r0, (UNDEF: 0)
     540:	00105000 	andseq	r5, r0, r0
     544:	00340000 	eorseq	r0, r4, r0
     548:	00010000 	andeq	r0, r1, r0
     54c:	00000054 	andeq	r0, r0, r4, asr r0
	...
     558:	00000400 	andeq	r0, r0, r0, lsl #8
     55c:	50000100 	andpl	r0, r0, r0, lsl #2
     560:	00000004 	andeq	r0, r0, r4
     564:	0000000c 	andeq	r0, r0, ip
     568:	30700003 	rsbscc	r0, r0, r3
     56c:	00000c9f 	muleq	r0, pc, ip	; <UNPREDICTABLE>
     570:	00001400 	andeq	r1, r0, r0, lsl #8
     574:	f3000400 	vshl.u8	d0, d0, d0
     578:	009f5001 	addseq	r5, pc, r1
     57c:	00000000 	andeq	r0, r0, r0
     580:	14000000 	strne	r0, [r0], #-0
     584:	20000000 	andcs	r0, r0, r0
     588:	01000000 	mrseq	r0, (UNDEF: 0)
     58c:	00205000 	eoreq	r5, r0, r0
     590:	002c0000 	eoreq	r0, ip, r0
     594:	00030000 	andeq	r0, r3, r0
     598:	2c9f0170 	ldfcss	f0, [pc], {112}	; 0x70
     59c:	40000000 	andmi	r0, r0, r0
     5a0:	01000000 	mrseq	r0, (UNDEF: 0)
     5a4:	00005000 	andeq	r5, r0, r0
     5a8:	00000000 	andeq	r0, r0, r0
     5ac:	00140000 	andseq	r0, r4, r0
     5b0:	00180000 	andseq	r0, r8, r0
     5b4:	00010000 	andeq	r0, r1, r0
     5b8:	00001851 	andeq	r1, r0, r1, asr r8
     5bc:	00004000 	andeq	r4, r0, r0
     5c0:	f3000400 	vshl.u8	d0, d0, d0
     5c4:	009f5101 	addseq	r5, pc, r1, lsl #2
     5c8:	00000000 	andeq	r0, r0, r0
     5cc:	40000000 	andmi	r0, r0, r0
     5d0:	60000000 	andvs	r0, r0, r0
     5d4:	01000000 	mrseq	r0, (UNDEF: 0)
     5d8:	00605000 	rsbeq	r5, r0, r0
     5dc:	006c0000 	rsbeq	r0, ip, r0
     5e0:	00030000 	andeq	r0, r3, r0
     5e4:	6c9f0171 	ldfvss	f0, [pc], {113}	; 0x71
     5e8:	74000000 	strvc	r0, [r0], #-0
     5ec:	01000000 	mrseq	r0, (UNDEF: 0)
     5f0:	00745100 	rsbseq	r5, r4, r0, lsl #2
     5f4:	00800000 	addeq	r0, r0, r0
     5f8:	00030000 	andeq	r0, r3, r0
     5fc:	009f0171 	addseq	r0, pc, r1, ror r1	; <UNPREDICTABLE>
     600:	00000000 	andeq	r0, r0, r0
     604:	40000000 	andmi	r0, r0, r0
     608:	50000000 	andpl	r0, r0, r0
     60c:	01000000 	mrseq	r0, (UNDEF: 0)
     610:	00505100 	subseq	r5, r0, r0, lsl #2
     614:	00800000 	addeq	r0, r0, r0
     618:	00040000 	andeq	r0, r4, r0
     61c:	9f5101f3 	svcls	0x005101f3
	...
     628:	00000040 	andeq	r0, r0, r0, asr #32
     62c:	00000058 	andeq	r0, r0, r8, asr r0
     630:	58520001 	ldmdapl	r2, {r0}^
     634:	64000000 	strvs	r0, [r0], #-0
     638:	01000000 	mrseq	r0, (UNDEF: 0)
     63c:	00645200 	rsbeq	r5, r4, r0, lsl #4
     640:	00680000 	rsbeq	r0, r8, r0
     644:	00030000 	andeq	r0, r3, r0
     648:	689f0172 	ldmvs	pc, {r1, r4, r5, r6, r8}	; <UNPREDICTABLE>
     64c:	80000000 	andhi	r0, r0, r0
     650:	01000000 	mrseq	r0, (UNDEF: 0)
     654:	00005200 	andeq	r5, r0, r0, lsl #4
     658:	00000000 	andeq	r0, r0, r0
     65c:	00400000 	subeq	r0, r0, r0
     660:	00540000 	subseq	r0, r4, r0
     664:	00010000 	andeq	r0, r1, r0
     668:	00005453 	andeq	r5, r0, r3, asr r4
     66c:	00007800 	andeq	r7, r0, r0, lsl #16
     670:	53000100 	movwpl	r0, #256	; 0x100
	...
     67c:	00000048 	andeq	r0, r0, r8, asr #32
     680:	00000060 	andeq	r0, r0, r0, rrx
     684:	605c0001 	subsvs	r0, ip, r1
     688:	80000000 	andhi	r0, r0, r0
     68c:	0a000000 	beq	694 <_start-0x796c>
     690:	5201f300 	andpl	pc, r1, #0, 6
     694:	1c5301f3 	ldfnee	f0, [r3], {243}	; 0xf3
     698:	009f0123 	addseq	r0, pc, r3, lsr #2
     69c:	00000000 	andeq	r0, r0, r0
     6a0:	80000000 	andhi	r0, r0, r0
     6a4:	a4000000 	strge	r0, [r0], #-0
     6a8:	01000000 	mrseq	r0, (UNDEF: 0)
     6ac:	00a45000 	adceq	r5, r4, r0
     6b0:	01180000 	tsteq	r8, r0
     6b4:	00030000 	andeq	r0, r3, r0
     6b8:	189f0270 	ldmne	pc, {r4, r5, r6, r9}	; <UNPREDICTABLE>
     6bc:	1c000001 	stcne	0, cr0, [r0], {1}
     6c0:	04000002 	streq	r0, [r0], #-2
     6c4:	5001f300 	andpl	pc, r1, r0, lsl #6
     6c8:	0000009f 	muleq	r0, pc, r0	; <UNPREDICTABLE>
     6cc:	00000000 	andeq	r0, r0, r0
     6d0:	00008000 	andeq	r8, r0, r0
     6d4:	0000f000 	andeq	pc, r0, r0
     6d8:	51000100 	mrspl	r0, (UNDEF: 16)
     6dc:	000000f0 	strdeq	r0, [r0], -r0	; <UNPREDICTABLE>
     6e0:	00000160 	andeq	r0, r0, r0, ror #2
     6e4:	60550001 	subsvs	r0, r5, r1
     6e8:	68000001 	stmdavs	r0, {r0}
     6ec:	01000001 	tsteq	r0, r1
     6f0:	01685100 	cmneq	r8, r0, lsl #2
     6f4:	01880000 	orreq	r0, r8, r0
     6f8:	00010000 	andeq	r0, r1, r0
     6fc:	00018855 	andeq	r8, r1, r5, asr r8
     700:	00019c00 	andeq	r9, r1, r0, lsl #24
     704:	51000100 	mrspl	r0, (UNDEF: 16)
     708:	0000019c 	muleq	r0, ip, r1
     70c:	000001bc 			; <UNDEFINED> instruction: 0x000001bc
     710:	bc550001 	mrrclt	0, 0, r0, r5, cr1
     714:	bf000001 	svclt	0x00000001
     718:	01000001 	tsteq	r0, r1
     71c:	01bf5100 			; <UNDEFINED> instruction: 0x01bf5100
     720:	02000000 	andeq	r0, r0, #0
     724:	00010000 	andeq	r0, r1, r0
     728:	00020055 	andeq	r0, r2, r5, asr r0
     72c:	00021c00 	andeq	r1, r2, r0, lsl #24
     730:	f3000400 	vshl.u8	d0, d0, d0
     734:	009f5101 	addseq	r5, pc, r1, lsl #2
     738:	00000000 	andeq	r0, r0, r0
     73c:	80000000 	andhi	r0, r0, r0
     740:	94000000 	strls	r0, [r0], #-0
     744:	01000000 	mrseq	r0, (UNDEF: 0)
     748:	00945200 	addseq	r5, r4, r0, lsl #4
     74c:	02000000 	andeq	r0, r0, #0
     750:	00010000 	andeq	r0, r1, r0
     754:	00020054 	andeq	r0, r2, r4, asr r0
     758:	00021c00 	andeq	r1, r2, r0, lsl #24
     75c:	f3000400 	vshl.u8	d0, d0, d0
     760:	009f5201 	addseq	r5, pc, r1, lsl #4
     764:	00000000 	andeq	r0, r0, r0
     768:	80000000 	andhi	r0, r0, r0
     76c:	00000000 	andeq	r0, r0, r0
     770:	01000001 	tsteq	r0, r1
     774:	01045300 	mrseq	r5, LR_abt
     778:	01080000 	mrseq	r0, (UNDEF: 8)
     77c:	00010000 	andeq	r0, r1, r0
     780:	00016053 	andeq	r6, r1, r3, asr r0
     784:	00016800 	andeq	r6, r1, r0, lsl #16
     788:	53000100 	movwpl	r0, #256	; 0x100
     78c:	00000168 	andeq	r0, r0, r8, ror #2
     790:	00000188 	andeq	r0, r0, r8, lsl #3
     794:	01f30004 	mvnseq	r0, r4
     798:	01889f53 	orreq	r9, r8, r3, asr pc
     79c:	01900000 	orrseq	r0, r0, r0
     7a0:	00010000 	andeq	r0, r1, r0
     7a4:	00019053 	andeq	r9, r1, r3, asr r0
     7a8:	00019400 	andeq	r9, r1, r0, lsl #8
     7ac:	5c000100 	stfpls	f0, [r0], {-0}
     7b0:	00000194 	muleq	r0, r4, r1
     7b4:	0000019c 	muleq	r0, ip, r1
     7b8:	9c530001 	mrrcls	0, 0, r0, r3, cr1
     7bc:	bc000001 	stclt	0, cr0, [r0], {1}
     7c0:	04000001 	streq	r0, [r0], #-1
     7c4:	5301f300 	movwpl	pc, #4864	; 0x1300	; <UNPREDICTABLE>
     7c8:	0001bc9f 	muleq	r1, pc, ip	; <UNPREDICTABLE>
     7cc:	0001bf00 	andeq	fp, r1, r0, lsl #30
     7d0:	53000100 	movwpl	r0, #256	; 0x100
     7d4:	000001bf 			; <UNDEFINED> instruction: 0x000001bf
     7d8:	000001d8 	ldrdeq	r0, [r0], -r8
     7dc:	01f30004 	mvnseq	r0, r4
     7e0:	00009f53 	andeq	r9, r0, r3, asr pc
     7e4:	00000000 	andeq	r0, r0, r0
     7e8:	00800000 	addeq	r0, r0, r0
     7ec:	009c0000 	addseq	r0, ip, r0
     7f0:	00020000 	andeq	r0, r2, r0
     7f4:	009c0091 	umullseq	r0, ip, r1, r0
     7f8:	01bf0000 			; <UNDEFINED> instruction: 0x01bf0000
     7fc:	00010000 	andeq	r0, r1, r0
     800:	0001d852 	andeq	sp, r1, r2, asr r8
     804:	0001e300 	andeq	lr, r1, r0, lsl #6
     808:	52000100 	andpl	r0, r0, #0, 2
	...
     814:	0000009c 	muleq	r0, ip, r0
     818:	00000118 	andeq	r0, r0, r8, lsl r1
     81c:	185d0001 	ldmdane	sp, {r0}^
     820:	1c000001 	stcne	0, cr0, [r0], {1}
     824:	01000001 	tsteq	r0, r1
     828:	011c5300 	tsteq	ip, r0, lsl #6
     82c:	01200000 	teqeq	r0, r0
     830:	00010000 	andeq	r0, r1, r0
     834:	00012051 	andeq	r2, r1, r1, asr r0
     838:	00016000 	andeq	r6, r1, r0
     83c:	53000100 	movwpl	r0, #256	; 0x100
     840:	00000160 	andeq	r0, r0, r0, ror #2
     844:	00000168 	andeq	r0, r0, r8, ror #2
     848:	685d0001 	ldmdavs	sp, {r0}^
     84c:	6c000001 	stcvs	0, cr0, [r0], {1}
     850:	01000001 	tsteq	r0, r1
     854:	016c5e00 	cmneq	ip, r0, lsl #28
     858:	01880000 	orreq	r0, r8, r0
     85c:	00010000 	andeq	r0, r1, r0
     860:	00018853 	andeq	r8, r1, r3, asr r8
     864:	00019000 	andeq	r9, r1, r0
     868:	91000400 	tstls	r0, r0, lsl #8
     86c:	909f7fa1 	addsls	r7, pc, r1, lsr #31
     870:	94000001 	strls	r0, [r0], #-1
     874:	01000001 	tsteq	r0, r1
     878:	01945300 	orrseq	r5, r4, r0, lsl #6
     87c:	019c0000 	orrseq	r0, ip, r0
     880:	00010000 	andeq	r0, r1, r0
     884:	00019c5d 	andeq	r9, r1, sp, asr ip
     888:	0001a000 	andeq	sl, r1, r0
     88c:	5e000100 	adfpls	f0, f0, f0
     890:	000001a0 	andeq	r0, r0, r0, lsr #3
     894:	000001bc 			; <UNDEFINED> instruction: 0x000001bc
     898:	bc530001 	mrrclt	0, 0, r0, r3, cr1
     89c:	d8000001 	stmdale	r0, {r0}
     8a0:	01000001 	tsteq	r0, r1
     8a4:	01d85d00 	bicseq	r5, r8, r0, lsl #26
     8a8:	01e30000 	mvneq	r0, r0
     8ac:	00010000 	andeq	r0, r1, r0
     8b0:	00000053 	andeq	r0, r0, r3, asr r0
     8b4:	00000000 	andeq	r0, r0, r0
     8b8:	0000a000 	andeq	sl, r0, r0
     8bc:	0000ec00 	andeq	lr, r0, r0, lsl #24
     8c0:	5c000100 	stfpls	f0, [r0], {-0}
     8c4:	000000ec 	andeq	r0, r0, ip, ror #1
     8c8:	00000100 	andeq	r0, r0, r0, lsl #2
     8cc:	00530001 	subseq	r0, r3, r1
     8d0:	04000001 	streq	r0, [r0], #-1
     8d4:	01000001 	tsteq	r0, r1
     8d8:	01045c00 	tsteq	r4, r0, lsl #24
     8dc:	01080000 	mrseq	r0, (UNDEF: 8)
     8e0:	00010000 	andeq	r0, r1, r0
     8e4:	00010853 	andeq	r0, r1, r3, asr r8
     8e8:	00011800 	andeq	r1, r1, r0, lsl #16
     8ec:	5c000100 	stfpls	f0, [r0], {-0}
     8f0:	00000118 	andeq	r0, r0, r8, lsl r1
     8f4:	0000011c 	andeq	r0, r0, ip, lsl r1
     8f8:	1c500001 	mrrcne	0, 0, r0, r0, cr1	; <UNPREDICTABLE>
     8fc:	3c000001 	stccc	0, cr0, [r0], {1}
     900:	01000001 	tsteq	r0, r1
     904:	01445c00 	cmpeq	r4, r0, lsl #24
     908:	01580000 	cmpeq	r8, r0
     90c:	00010000 	andeq	r0, r1, r0
     910:	00015850 	andeq	r5, r1, r0, asr r8
     914:	00016000 	andeq	r6, r1, r0
     918:	5c000100 	stfpls	f0, [r0], {-0}
     91c:	00000160 	andeq	r0, r0, r0, ror #2
     920:	00000168 	andeq	r0, r0, r8, ror #2
     924:	68530001 	ldmdavs	r3, {r0}^
     928:	78000001 	stmdavc	r0, {r0}
     92c:	01000001 	tsteq	r0, r1
     930:	01785c00 	cmneq	r8, r0, lsl #24
     934:	01800000 	orreq	r0, r0, r0
     938:	00050000 	andeq	r0, r5, r0
     93c:	2534007c 	ldrcs	r0, [r4, #-124]!	; 0x7c
     940:	0001809f 	muleq	r1, pc, r0	; <UNPREDICTABLE>
     944:	00018800 	andeq	r8, r1, r0, lsl #16
     948:	5c000100 	stfpls	f0, [r0], {-0}
     94c:	00000188 	andeq	r0, r0, r8, lsl #3
     950:	00000190 	muleq	r0, r0, r1
     954:	90530001 	subsls	r0, r3, r1
     958:	94000001 	strls	r0, [r0], #-1
     95c:	01000001 	tsteq	r0, r1
     960:	01945c00 	orrseq	r5, r4, r0, lsl #24
     964:	019c0000 	orrseq	r0, ip, r0
     968:	00010000 	andeq	r0, r1, r0
     96c:	00019c53 	andeq	r9, r1, r3, asr ip
     970:	0001ac00 	andeq	sl, r1, r0, lsl #24
     974:	5c000100 	stfpls	f0, [r0], {-0}
     978:	000001ac 	andeq	r0, r0, ip, lsr #3
     97c:	000001b4 			; <UNDEFINED> instruction: 0x000001b4
     980:	007c0005 	rsbseq	r0, ip, r5
     984:	b49f2531 	ldrlt	r2, [pc], #1329	; 98c <_start-0x7674>
     988:	bc000001 	stclt	0, cr0, [r0], {1}
     98c:	01000001 	tsteq	r0, r1
     990:	01bc5c00 			; <UNDEFINED> instruction: 0x01bc5c00
     994:	01bf0000 			; <UNDEFINED> instruction: 0x01bf0000
     998:	00010000 	andeq	r0, r1, r0
     99c:	0001bf53 	andeq	fp, r1, r3, asr pc
     9a0:	0001d800 	andeq	sp, r1, r0, lsl #16
     9a4:	f3000400 	vshl.u8	d0, d0, d0
     9a8:	d89f5301 	ldmle	pc, {r0, r8, r9, ip, lr}	; <UNPREDICTABLE>
     9ac:	e3000001 	movw	r0, #1
     9b0:	01000001 	tsteq	r0, r1
     9b4:	00005c00 	andeq	r5, r0, r0, lsl #24
     9b8:	00000000 	andeq	r0, r0, r0
     9bc:	00ec0000 	rsceq	r0, ip, r0
     9c0:	00fc0000 	rscseq	r0, ip, r0
     9c4:	00020000 	andeq	r0, r2, r0
     9c8:	00fc9f30 	rscseq	r9, ip, r0, lsr pc
     9cc:	01040000 	mrseq	r0, (UNDEF: 4)
     9d0:	00020000 	andeq	r0, r2, r0
     9d4:	01049f31 	tsteq	r4, r1, lsr pc
     9d8:	01080000 	mrseq	r0, (UNDEF: 8)
     9dc:	00020000 	andeq	r0, r2, r0
     9e0:	00009f30 	andeq	r9, r0, r0, lsr pc
     9e4:	00000000 	andeq	r0, r0, r0
     9e8:	021c0000 	andseq	r0, ip, #0
     9ec:	022b0000 	eoreq	r0, fp, #0
     9f0:	00010000 	andeq	r0, r1, r0
     9f4:	00022b50 	andeq	r2, r2, r0, asr fp
     9f8:	00024400 	andeq	r4, r2, r0, lsl #8
     9fc:	f3000400 	vshl.u8	d0, d0, d0
     a00:	449f5001 	ldrmi	r5, [pc], #1	; a08 <_start-0x75f8>
     a04:	70000002 	andvc	r0, r0, r2
     a08:	01000002 	tsteq	r0, r2
     a0c:	00005000 	andeq	r5, r0, r0
     a10:	00000000 	andeq	r0, r0, r0
     a14:	021c0000 	andseq	r0, ip, #0
     a18:	022b0000 	eoreq	r0, fp, #0
     a1c:	00010000 	andeq	r0, r1, r0
     a20:	00022b51 	andeq	r2, r2, r1, asr fp
     a24:	00024400 	andeq	r4, r2, r0, lsl #8
     a28:	f3000400 	vshl.u8	d0, d0, d0
     a2c:	449f5101 	ldrmi	r5, [pc], #257	; a34 <_start-0x75cc>
     a30:	70000002 	andvc	r0, r0, r2
     a34:	01000002 	tsteq	r0, r2
     a38:	00005100 	andeq	r5, r0, r0, lsl #2
     a3c:	00000000 	andeq	r0, r0, r0
     a40:	02700000 	rsbseq	r0, r0, #0
     a44:	029c0000 	addseq	r0, ip, #0
     a48:	00010000 	andeq	r0, r1, r0
     a4c:	00029c50 	andeq	r9, r2, r0, asr ip
     a50:	0004e400 	andeq	lr, r4, r0, lsl #8
     a54:	5a000100 	bpl	e5c <_start-0x71a4>
     a58:	000004e4 	andeq	r0, r0, r4, ror #9
     a5c:	000004f8 	strdeq	r0, [r0], -r8
     a60:	01f30004 	mvnseq	r0, r4
     a64:	00009f50 	andeq	r9, r0, r0, asr pc
     a68:	00000000 	andeq	r0, r0, r0
     a6c:	02700000 	rsbseq	r0, r0, #0
     a70:	02840000 	addeq	r0, r4, #0
     a74:	00010000 	andeq	r0, r1, r0
     a78:	00028451 	andeq	r8, r2, r1, asr r4
     a7c:	00029c00 	andeq	r9, r2, r0, lsl #24
     a80:	71000300 	mrsvc	r0, LR_irq
     a84:	029c9f01 	addseq	r9, ip, #1, 30
     a88:	04f80000 	ldrbteq	r0, [r8], #0
     a8c:	00040000 	andeq	r0, r4, r0
     a90:	9f5101f3 	svcls	0x005101f3
	...
     a9c:	00000270 	andeq	r0, r0, r0, ror r2
     aa0:	000002a4 	andeq	r0, r0, r4, lsr #5
     aa4:	a4520001 	ldrbge	r0, [r2], #-1
     aa8:	cc000002 	stcgt	0, cr0, [r0], {2}
     aac:	01000002 	tsteq	r0, r2
     ab0:	02cc5200 	sbceq	r5, ip, #0, 4
     ab4:	04940000 	ldreq	r0, [r4], #0
     ab8:	00010000 	andeq	r0, r1, r0
     abc:	00049456 	andeq	r9, r4, r6, asr r4
     ac0:	0004f800 	andeq	pc, r4, r0, lsl #16
     ac4:	52000100 	andpl	r0, r0, #0, 2
	...
     ad0:	00000270 	andeq	r0, r0, r0, ror r2
     ad4:	0000028c 	andeq	r0, r0, ip, lsl #5
     ad8:	00530001 	subseq	r0, r3, r1
     adc:	00000000 	andeq	r0, r0, r0
     ae0:	80000000 	andhi	r0, r0, r0
     ae4:	9c000002 	stcls	0, cr0, [r0], {2}
     ae8:	01000002 	tsteq	r0, r2
     aec:	029c5000 	addseq	r5, ip, #0
     af0:	02a00000 	adceq	r0, r0, #0
     af4:	00010000 	andeq	r0, r1, r0
     af8:	0002a054 	andeq	sl, r2, r4, asr r0
     afc:	0002ac00 	andeq	sl, r2, r0, lsl #24
     b00:	74000300 	strvc	r0, [r0], #-768	; 0x300
     b04:	02ac9f01 	adceq	r9, ip, #1, 30
     b08:	02b80000 	adcseq	r0, r8, #0
     b0c:	00010000 	andeq	r0, r1, r0
     b10:	0002b854 	andeq	fp, r2, r4, asr r8
     b14:	0002c400 	andeq	ip, r2, r0, lsl #8
     b18:	74000300 	strvc	r0, [r0], #-768	; 0x300
     b1c:	02c49f01 	sbceq	r9, r4, #1, 30
     b20:	04980000 	ldreq	r0, [r8], #0
     b24:	00010000 	andeq	r0, r1, r0
     b28:	00049854 	andeq	r9, r4, r4, asr r8
     b2c:	0004a400 	andeq	sl, r4, r0, lsl #8
     b30:	74000300 	strvc	r0, [r0], #-768	; 0x300
     b34:	04a49f01 	strteq	r9, [r4], #3841	; 0xf01
     b38:	04d00000 	ldrbeq	r0, [r0], #0
     b3c:	00010000 	andeq	r0, r1, r0
     b40:	0004d054 	andeq	sp, r4, r4, asr r0
     b44:	0004dc00 	andeq	sp, r4, r0, lsl #24
     b48:	50000100 	andpl	r0, r0, r0, lsl #2
     b4c:	000004dc 	ldrdeq	r0, [r0], -ip
     b50:	000004e4 	andeq	r0, r0, r4, ror #9
     b54:	01740003 	cmneq	r4, r3
     b58:	0000009f 	muleq	r0, pc, r0	; <UNPREDICTABLE>
     b5c:	00000000 	andeq	r0, r0, r0
     b60:	00028800 	andeq	r8, r2, r0, lsl #16
     b64:	0004e400 	andeq	lr, r4, r0, lsl #8
     b68:	58000100 	stmdapl	r0, {r8}
     b6c:	000004e4 	andeq	r0, r0, r4, ror #9
     b70:	000004f8 	strdeq	r0, [r0], -r8
     b74:	01f3000a 	mvnseq	r0, sl
     b78:	5001f351 	andpl	pc, r1, r1, asr r3	; <UNPREDICTABLE>
     b7c:	9f1c3122 	svcls	0x001c3122
	...
     b88:	000003cc 	andeq	r0, r0, ip, asr #7
     b8c:	000003d0 	ldrdeq	r0, [r0], -r0	; <UNPREDICTABLE>
     b90:	f0500001 			; <UNDEFINED> instruction: 0xf0500001
     b94:	f4000003 	vst4.8	{d0-d3}, [r0], r3
     b98:	01000003 	tsteq	r0, r3
     b9c:	04145000 	ldreq	r5, [r4], #-0
     ba0:	04180000 	ldreq	r0, [r8], #-0
     ba4:	00010000 	andeq	r0, r1, r0
     ba8:	00043850 	andeq	r3, r4, r0, asr r8
     bac:	00043c00 	andeq	r3, r4, r0, lsl #24
     bb0:	50000100 	andpl	r0, r0, r0, lsl #2
     bb4:	00000444 	andeq	r0, r0, r4, asr #8
     bb8:	00000448 	andeq	r0, r0, r8, asr #8
     bbc:	68500001 	ldmdavs	r0, {r0}^
     bc0:	6c000004 	stcvs	0, cr0, [r0], {4}
     bc4:	01000004 	tsteq	r0, r4
     bc8:	04905000 	ldreq	r5, [r0], #0
     bcc:	04b80000 	ldrteq	r0, [r8], #0
     bd0:	00010000 	andeq	r0, r1, r0
     bd4:	00000050 	andeq	r0, r0, r0, asr r0
     bd8:	00000000 	andeq	r0, r0, r0
     bdc:	0002cc00 	andeq	ip, r2, r0, lsl #24
     be0:	0002d400 	andeq	sp, r2, r0, lsl #8
     be4:	30000200 	andcc	r0, r0, r0, lsl #4
     be8:	0002d49f 	muleq	r2, pc, r4	; <UNPREDICTABLE>
     bec:	0002d800 	andeq	sp, r2, r0, lsl #16
     bf0:	57000100 	strpl	r0, [r0, -r0, lsl #2]
     bf4:	000002e4 	andeq	r0, r0, r4, ror #5
     bf8:	000004b8 			; <UNDEFINED> instruction: 0x000004b8
     bfc:	00570001 	subseq	r0, r7, r1
	...
     c08:	0c000000 	stceq	0, cr0, [r0], {-0}
     c0c:	01000000 	mrseq	r0, (UNDEF: 0)
     c10:	000c5000 	andeq	r5, ip, r0
     c14:	00200000 	eoreq	r0, r0, r0
     c18:	00010000 	andeq	r0, r1, r0
     c1c:	00000054 	andeq	r0, r0, r4, asr r0
     c20:	00000000 	andeq	r0, r0, r0
     c24:	00003400 	andeq	r3, r0, r0, lsl #8
     c28:	00003c00 	andeq	r3, r0, r0, lsl #24
     c2c:	73000300 	movwvc	r0, #768	; 0x300
     c30:	003c9f04 	eorseq	r9, ip, r4, lsl #30
     c34:	00470000 	subeq	r0, r7, r0
     c38:	00010000 	andeq	r0, r1, r0
     c3c:	00000053 	andeq	r0, r0, r3, asr r0
     c40:	00000000 	andeq	r0, r0, r0
     c44:	00004800 	andeq	r4, r0, r0, lsl #16
     c48:	00007400 	andeq	r7, r0, r0, lsl #8
     c4c:	50000100 	andpl	r0, r0, r0, lsl #2
     c50:	00000074 	andeq	r0, r0, r4, ror r0
     c54:	00000083 	andeq	r0, r0, r3, lsl #1
     c58:	78730003 	ldmdavc	r3!, {r0, r1}^
     c5c:	0000009f 	muleq	r0, pc, r0	; <UNPREDICTABLE>
     c60:	00000000 	andeq	r0, r0, r0
     c64:	008fd400 	addeq	sp, pc, r0, lsl #8
     c68:	008fd800 	addeq	sp, pc, r0, lsl #16
     c6c:	30000200 	andcc	r0, r0, r0, lsl #4
     c70:	008fd89f 	umulleq	sp, pc, pc, r8	; <UNPREDICTABLE>
     c74:	008fdc00 	addeq	sp, pc, r0, lsl #24
     c78:	50000100 	andpl	r0, r0, r0, lsl #2
	...
     c84:	00008fec 	andeq	r8, r0, ip, ror #31
     c88:	00008ff0 	strdeq	r8, [r0], -r0
     c8c:	9f300002 	svcls	0x00300002
     c90:	00008ff0 	strdeq	r8, [r0], -r0
     c94:	00008ff4 	strdeq	r8, [r0], -r4
     c98:	f8530001 			; <UNDEFINED> instruction: 0xf8530001
     c9c:	0000008f 	andeq	r0, r0, pc, lsl #1
     ca0:	01000090 	swpeq	r0, r0, [r0]	; <UNPREDICTABLE>
     ca4:	00005300 	andeq	r5, r0, r0, lsl #6
	...
     cb0:	00040000 	andeq	r0, r4, r0
     cb4:	00010000 	andeq	r0, r1, r0
     cb8:	00000450 	andeq	r0, r0, r0, asr r4
     cbc:	00000c00 	andeq	r0, r0, r0, lsl #24
     cc0:	53000100 	movwpl	r0, #256	; 0x100
     cc4:	0000000c 	andeq	r0, r0, ip
     cc8:	00000010 	andeq	r0, r0, r0, lsl r0
     ccc:	10500001 	subsne	r0, r0, r1
     cd0:	1c000000 	stcne	0, cr0, [r0], {-0}
     cd4:	01000000 	mrseq	r0, (UNDEF: 0)
     cd8:	00005300 	andeq	r5, r0, r0, lsl #6
     cdc:	00000000 	andeq	r0, r0, r0
     ce0:	003c0000 	eorseq	r0, ip, r0
     ce4:	00470000 	subeq	r0, r7, r0
     ce8:	00010000 	andeq	r0, r1, r0
     cec:	00004750 	andeq	r4, r0, r0, asr r7
     cf0:	00006000 	andeq	r6, r0, r0
     cf4:	55000100 	strpl	r0, [r0, #-256]	; 0x100
	...
     d00:	00000050 	andeq	r0, r0, r0, asr r0
     d04:	00000054 	andeq	r0, r0, r4, asr r0
     d08:	00500001 	subseq	r0, r0, r1
     d0c:	00000000 	andeq	r0, r0, r0
     d10:	60000000 	andvs	r0, r0, r0
     d14:	6c000000 	stcvs	0, cr0, [r0], {-0}
     d18:	01000000 	mrseq	r0, (UNDEF: 0)
     d1c:	006c5000 	rsbeq	r5, ip, r0
     d20:	00740000 	rsbseq	r0, r4, r0
     d24:	00040000 	andeq	r0, r4, r0
     d28:	9f5001f3 	svcls	0x005001f3
	...
     d34:	00000074 	andeq	r0, r0, r4, ror r0
     d38:	00000080 	andeq	r0, r0, r0, lsl #1
     d3c:	80500001 	subshi	r0, r0, r1
     d40:	88000000 	stmdahi	r0, {}	; <UNPREDICTABLE>
     d44:	04000000 	streq	r0, [r0], #-0
     d48:	5001f300 	andpl	pc, r1, r0, lsl #6
     d4c:	0000009f 	muleq	r0, pc, r0	; <UNPREDICTABLE>
	...
     d58:	00009000 	andeq	r9, r0, r0
     d5c:	50000100 	andpl	r0, r0, r0, lsl #2
     d60:	00000090 	muleq	r0, r0, r0
     d64:	000000d4 	ldrdeq	r0, [r0], -r4
     d68:	00540001 	subseq	r0, r4, r1
     d6c:	00000000 	andeq	r0, r0, r0
     d70:	48000000 	stmdami	r0, {}	; <UNPREDICTABLE>
     d74:	4c000000 	stcmi	0, cr0, [r0], {-0}
     d78:	01000000 	mrseq	r0, (UNDEF: 0)
     d7c:	00545500 	subseq	r5, r4, r0, lsl #10
     d80:	00580000 	subseq	r0, r8, r0
     d84:	00010000 	andeq	r0, r1, r0
     d88:	00006055 	andeq	r6, r0, r5, asr r0
     d8c:	00006400 	andeq	r6, r0, r0, lsl #8
     d90:	55000100 	strpl	r0, [r0, #-256]	; 0x100
     d94:	0000006c 	andeq	r0, r0, ip, rrx
     d98:	00000070 	andeq	r0, r0, r0, ror r0
     d9c:	78550001 	ldmdavc	r5, {r0}^
     da0:	7c000000 	stcvc	0, cr0, [r0], {-0}
     da4:	01000000 	mrseq	r0, (UNDEF: 0)
     da8:	00845500 	addeq	r5, r4, r0, lsl #10
     dac:	00880000 	addeq	r0, r8, r0
     db0:	00010000 	andeq	r0, r1, r0
     db4:	00008c55 	andeq	r8, r0, r5, asr ip
     db8:	0000d400 	andeq	sp, r0, r0, lsl #8
     dbc:	55000100 	strpl	r0, [r0, #-256]	; 0x100
	...
     dc8:	0000001c 	andeq	r0, r0, ip, lsl r0
     dcc:	00000044 	andeq	r0, r0, r4, asr #32
     dd0:	44530001 	ldrbmi	r0, [r3], #-1
     dd4:	4c000000 	stcmi	0, cr0, [r0], {-0}
     dd8:	1c000000 	stcne	0, cr0, [r0], {-0}
     ddc:	f7007000 			; <UNDEFINED> instruction: 0xf7007000
     de0:	f425f72c 	vld1.8	{d15}, [r5 :128], ip
     de4:	cccd0825 	stclgt	8, cr0, [sp], {37}	; 0x25
     de8:	0000cccc 	andeq	ip, r0, ip, asr #25
     dec:	081e0000 	ldmdaeq	lr, {}	; <UNPREDICTABLE>
     df0:	2525f720 	strcs	pc, [r5, #-1824]!	; 0x720
     df4:	25332cf7 	ldrcs	r2, [r3, #-3319]!	; 0xcf7
     df8:	00004c9f 	muleq	r0, pc, ip	; <UNPREDICTABLE>
     dfc:	00005000 	andeq	r5, r0, r0
     e00:	53000100 	movwpl	r0, #256	; 0x100
     e04:	00000050 	andeq	r0, r0, r0, asr r0
     e08:	00000058 	andeq	r0, r0, r8, asr r0
     e0c:	0070001c 	rsbseq	r0, r0, ip, lsl r0
     e10:	25f72cf7 	ldrbcs	r2, [r7, #3319]!	; 0xcf7
     e14:	cd0825f4 	cfstr32gt	mvfx2, [r8, #-976]	; 0xfffffc30
     e18:	00cccccc 	sbceq	ip, ip, ip, asr #25
     e1c:	1e000000 	cdpne	0, 0, cr0, cr0, cr0, {0}
     e20:	25f72008 	ldrbcs	r2, [r7, #8]!
     e24:	332cf725 	msrcc	CPSR_fs, #9699328	; 0x940000
     e28:	00589f25 	subseq	r9, r8, r5, lsr #30
     e2c:	005c0000 	subseq	r0, ip, r0
     e30:	00010000 	andeq	r0, r1, r0
     e34:	00005c53 	andeq	r5, r0, r3, asr ip
     e38:	00006400 	andeq	r6, r0, r0, lsl #8
     e3c:	70001c00 	andvc	r1, r0, r0, lsl #24
     e40:	f72cf700 			; <UNDEFINED> instruction: 0xf72cf700
     e44:	0825f425 	stmdaeq	r5!, {r0, r2, r5, sl, ip, sp, lr, pc}
     e48:	cccccccd 	stclgt	12, cr12, [ip], {205}	; 0xcd
     e4c:	00000000 	andeq	r0, r0, r0
     e50:	f720081e 			; <UNDEFINED> instruction: 0xf720081e
     e54:	2cf72525 	cfldr64cs	mvdx2, [r7], #148	; 0x94
     e58:	649f2533 	ldrvs	r2, [pc], #1331	; e60 <_start-0x71a0>
     e5c:	68000000 	stmdavs	r0, {}	; <UNPREDICTABLE>
     e60:	01000000 	mrseq	r0, (UNDEF: 0)
     e64:	00685300 	rsbeq	r5, r8, r0, lsl #6
     e68:	00700000 	rsbseq	r0, r0, r0
     e6c:	001c0000 	andseq	r0, ip, r0
     e70:	2cf70070 	ldclcs	0, cr0, [r7], #448	; 0x1c0
     e74:	25f425f7 	ldrbcs	r2, [r4, #1527]!	; 0x5f7
     e78:	cccccd08 	stclgt	13, cr12, [ip], {8}
     e7c:	000000cc 	andeq	r0, r0, ip, asr #1
     e80:	20081e00 	andcs	r1, r8, r0, lsl #28
     e84:	f72525f7 			; <UNDEFINED> instruction: 0xf72525f7
     e88:	9f25332c 	svcls	0x0025332c
     e8c:	00000070 	andeq	r0, r0, r0, ror r0
     e90:	00000074 	andeq	r0, r0, r4, ror r0
     e94:	74530001 	ldrbvc	r0, [r3], #-1
     e98:	7c000000 	stcvc	0, cr0, [r0], {-0}
     e9c:	1c000000 	stcne	0, cr0, [r0], {-0}
     ea0:	f7007000 			; <UNDEFINED> instruction: 0xf7007000
     ea4:	f425f72c 	vld1.8	{d15}, [r5 :128], ip
     ea8:	cccd0825 	stclgt	8, cr0, [sp], {37}	; 0x25
     eac:	0000cccc 	andeq	ip, r0, ip, asr #25
     eb0:	081e0000 	ldmdaeq	lr, {}	; <UNPREDICTABLE>
     eb4:	2525f720 	strcs	pc, [r5, #-1824]!	; 0x720
     eb8:	25332cf7 	ldrcs	r2, [r3, #-3319]!	; 0xcf7
     ebc:	00007c9f 	muleq	r0, pc, ip	; <UNPREDICTABLE>
     ec0:	00008000 	andeq	r8, r0, r0
     ec4:	53000100 	movwpl	r0, #256	; 0x100
     ec8:	00000080 	andeq	r0, r0, r0, lsl #1
     ecc:	00000088 	andeq	r0, r0, r8, lsl #1
     ed0:	0070001c 	rsbseq	r0, r0, ip, lsl r0
     ed4:	25f72cf7 	ldrbcs	r2, [r7, #3319]!	; 0xcf7
     ed8:	cd0825f4 	cfstr32gt	mvfx2, [r8, #-976]	; 0xfffffc30
     edc:	00cccccc 	sbceq	ip, ip, ip, asr #25
     ee0:	1e000000 	cdpne	0, 0, cr0, cr0, cr0, {0}
     ee4:	25f72008 	ldrbcs	r2, [r7, #8]!
     ee8:	332cf725 	msrcc	CPSR_fs, #9699328	; 0x940000
     eec:	00889f25 	addeq	r9, r8, r5, lsr #30
     ef0:	008c0000 	addeq	r0, ip, r0
     ef4:	00010000 	andeq	r0, r1, r0
     ef8:	00008c53 	andeq	r8, r0, r3, asr ip
     efc:	00009000 	andeq	r9, r0, r0
     f00:	70001c00 	andvc	r1, r0, r0, lsl #24
     f04:	f72cf700 			; <UNDEFINED> instruction: 0xf72cf700
     f08:	0825f425 	stmdaeq	r5!, {r0, r2, r5, sl, ip, sp, lr, pc}
     f0c:	cccccccd 	stclgt	12, cr12, [ip], {205}	; 0xcd
     f10:	00000000 	andeq	r0, r0, r0
     f14:	f720081e 			; <UNDEFINED> instruction: 0xf720081e
     f18:	2cf72525 	cfldr64cs	mvdx2, [r7], #148	; 0x94
     f1c:	909f2533 	addsls	r2, pc, r3, lsr r5	; <UNPREDICTABLE>
     f20:	98000000 	stmdals	r0, {}	; <UNPREDICTABLE>
     f24:	1c000000 	stcne	0, cr0, [r0], {-0}
     f28:	f7007400 			; <UNDEFINED> instruction: 0xf7007400
     f2c:	f425f72c 	vld1.8	{d15}, [r5 :128], ip
     f30:	cccd0825 	stclgt	8, cr0, [sp], {37}	; 0x25
     f34:	0000cccc 	andeq	ip, r0, ip, asr #25
     f38:	081e0000 	ldmdaeq	lr, {}	; <UNPREDICTABLE>
     f3c:	2525f720 	strcs	pc, [r5, #-1824]!	; 0x720
     f40:	25332cf7 	ldrcs	r2, [r3, #-3319]!	; 0xcf7
     f44:	0000989f 	muleq	r0, pc, r8	; <UNPREDICTABLE>
     f48:	00009c00 	andeq	r9, r0, r0, lsl #24
     f4c:	74001700 	strvc	r1, [r0], #-1792	; 0x700
     f50:	f72cf700 			; <UNDEFINED> instruction: 0xf72cf700
     f54:	f7007125 			; <UNDEFINED> instruction: 0xf7007125
     f58:	1e25f72c 	cdpne	7, 2, cr15, cr5, cr12, {1}
     f5c:	25f72008 	ldrbcs	r2, [r7, #8]!
     f60:	332cf725 	msrcc	CPSR_fs, #9699328	; 0x940000
     f64:	009c9f25 	addseq	r9, ip, r5, lsr #30
     f68:	00d40000 	sbcseq	r0, r4, r0
     f6c:	001c0000 	andseq	r0, ip, r0
     f70:	2cf70074 	ldclcs	0, cr0, [r7], #464	; 0x1d0
     f74:	25f425f7 	ldrbcs	r2, [r4, #1527]!	; 0x5f7
     f78:	cccccd08 	stclgt	13, cr12, [ip], {8}
     f7c:	000000cc 	andeq	r0, r0, ip, asr #1
     f80:	20081e00 	andcs	r1, r8, r0, lsl #28
     f84:	f72525f7 			; <UNDEFINED> instruction: 0xf72525f7
     f88:	9f25332c 	svcls	0x0025332c
	...
     f94:	00000094 	muleq	r0, r4, r0
     f98:	000000b8 	strheq	r0, [r0], -r8
     f9c:	b8500001 	ldmdalt	r0, {r0}^
     fa0:	c4000000 	strgt	r0, [r0], #-0
     fa4:	08000000 	stmdaeq	r0, {}	; <UNPREDICTABLE>
     fa8:	00713100 	rsbseq	r3, r1, r0, lsl #2
     fac:	21007324 	tstcs	r0, r4, lsr #6
     fb0:	0000c49f 	muleq	r0, pc, r4	; <UNPREDICTABLE>
     fb4:	0000c700 	andeq	ip, r0, r0, lsl #14
     fb8:	51000100 	mrspl	r0, (UNDEF: 16)
	...
     fc4:	000000d4 	ldrdeq	r0, [r0], -r4
     fc8:	000000f8 	strdeq	r0, [r0], -r8
     fcc:	f8500001 			; <UNDEFINED> instruction: 0xf8500001
     fd0:	0c000000 	stceq	0, cr0, [r0], {-0}
     fd4:	04000001 	streq	r0, [r0], #-1
     fd8:	5001f300 	andpl	pc, r1, r0, lsl #6
     fdc:	0000009f 	muleq	r0, pc, r0	; <UNPREDICTABLE>
     fe0:	00000000 	andeq	r0, r0, r0
     fe4:	0000e000 	andeq	lr, r0, r0
     fe8:	0000e800 	andeq	lr, r0, r0, lsl #16
     fec:	30000200 	andcc	r0, r0, r0, lsl #4
     ff0:	0000e89f 	muleq	r0, pc, r8	; <UNPREDICTABLE>
     ff4:	0000e800 	andeq	lr, r0, r0, lsl #16
     ff8:	52000100 	andpl	r0, r0, #0, 2
     ffc:	000000e8 	andeq	r0, r0, r8, ror #1
    1000:	000000f0 	strdeq	r0, [r0], -r0	; <UNPREDICTABLE>
    1004:	9f300002 	svcls	0x00300002
    1008:	000000f0 	strdeq	r0, [r0], -r0	; <UNPREDICTABLE>
    100c:	00000103 	andeq	r0, r0, r3, lsl #2
    1010:	00520001 	subseq	r0, r2, r1
    1014:	00000000 	andeq	r0, r0, r0
    1018:	e0000000 	and	r0, r0, r0
    101c:	f4000000 	vst4.8	{d0-d3}, [r0], r0
    1020:	02000000 	andeq	r0, r0, #0
    1024:	f49f3000 			; <UNDEFINED> instruction: 0xf49f3000
    1028:	00000000 	andeq	r0, r0, r0
    102c:	05000001 	streq	r0, [r0, #-1]
    1030:	00733100 	rsbseq	r3, r3, r0, lsl #2
    1034:	01009f24 	tsteq	r0, r4, lsr #30
    1038:	01030000 	mrseq	r0, (UNDEF: 3)
    103c:	00010000 	andeq	r0, r1, r0
    1040:	00010351 	andeq	r0, r1, r1, asr r3
    1044:	00010c00 	andeq	r0, r1, r0, lsl #24
    1048:	31000800 	tstcc	r0, r0, lsl #16
    104c:	4f5001f3 	svcmi	0x005001f3
    1050:	009f241a 	addseq	r2, pc, sl, lsl r4	; <UNPREDICTABLE>
    1054:	00000000 	andeq	r0, r0, r0
    1058:	0c000000 	stceq	0, cr0, [r0], {-0}
    105c:	30000001 	andcc	r0, r0, r1
    1060:	01000001 	tsteq	r0, r1
    1064:	01305000 	teqeq	r0, r0
    1068:	01440000 	mrseq	r0, (UNDEF: 68)
    106c:	00040000 	andeq	r0, r4, r0
    1070:	9f5001f3 	svcls	0x005001f3
	...
    107c:	00000118 	andeq	r0, r0, r8, lsl r1
    1080:	00000120 	andeq	r0, r0, r0, lsr #2
    1084:	9f300002 	svcls	0x00300002
    1088:	00000120 	andeq	r0, r0, r0, lsr #2
    108c:	00000120 	andeq	r0, r0, r0, lsr #2
    1090:	20520001 	subscs	r0, r2, r1
    1094:	28000001 	stmdacs	r0, {r0}
    1098:	02000001 	andeq	r0, r0, #1
    109c:	289f3000 	ldmcs	pc, {ip, sp}	; <UNPREDICTABLE>
    10a0:	3b000001 	blcc	10ac <_start-0x6f54>
    10a4:	01000001 	tsteq	r0, r1
    10a8:	00005200 	andeq	r5, r0, r0, lsl #4
    10ac:	00000000 	andeq	r0, r0, r0
    10b0:	01180000 	tsteq	r8, r0
    10b4:	012c0000 	teqeq	ip, r0
    10b8:	00020000 	andeq	r0, r2, r0
    10bc:	012c9f30 	teqeq	ip, r0, lsr pc
    10c0:	01380000 	teqeq	r8, r0
    10c4:	00050000 	andeq	r0, r5, r0
    10c8:	24007331 	strcs	r7, [r0], #-817	; 0x331
    10cc:	0001389f 	muleq	r1, pc, r8	; <UNPREDICTABLE>
    10d0:	00013b00 	andeq	r3, r1, r0, lsl #22
    10d4:	51000100 	mrspl	r0, (UNDEF: 16)
    10d8:	0000013b 	andeq	r0, r0, fp, lsr r1
    10dc:	00000144 	andeq	r0, r0, r4, asr #2
    10e0:	f3310008 	vhadd.u<illegal width 64>	d0, d1, d8
    10e4:	1a4f5001 	bne	13d50f0 <__bss_end__+0x13c6578>
    10e8:	00009f24 	andeq	r9, r0, r4, lsr #30
    10ec:	00000000 	andeq	r0, r0, r0
    10f0:	01440000 	mrseq	r0, (UNDEF: 68)
    10f4:	01d40000 	bicseq	r0, r4, r0
    10f8:	00010000 	andeq	r0, r1, r0
    10fc:	0001d450 	andeq	sp, r1, r0, asr r4
    1100:	00021000 	andeq	r1, r2, r0
    1104:	54000100 	strpl	r0, [r0], #-256	; 0x100
	...
    1110:	0000018c 	andeq	r0, r0, ip, lsl #3
    1114:	00000190 	muleq	r0, r0, r1
    1118:	98550001 	ldmdals	r5, {r0}^
    111c:	9c000001 	stcls	0, cr0, [r0], {1}
    1120:	01000001 	tsteq	r0, r1
    1124:	01a45500 			; <UNDEFINED> instruction: 0x01a45500
    1128:	01a80000 			; <UNDEFINED> instruction: 0x01a80000
    112c:	00010000 	andeq	r0, r1, r0
    1130:	0001b055 	andeq	fp, r1, r5, asr r0
    1134:	0001b400 	andeq	fp, r1, r0, lsl #8
    1138:	55000100 	strpl	r0, [r0, #-256]	; 0x100
    113c:	000001bc 			; <UNDEFINED> instruction: 0x000001bc
    1140:	000001c0 	andeq	r0, r0, r0, asr #3
    1144:	c8550001 	ldmdagt	r5, {r0}^
    1148:	cc000001 	stcgt	0, cr0, [r0], {1}
    114c:	01000001 	tsteq	r0, r1
    1150:	01d05500 	bicseq	r5, r0, r0, lsl #10
    1154:	02100000 	andseq	r0, r0, #0
    1158:	00010000 	andeq	r0, r1, r0
    115c:	00000055 	andeq	r0, r0, r5, asr r0
    1160:	00000000 	andeq	r0, r0, r0
    1164:	00016000 	andeq	r6, r1, r0
    1168:	00018800 	andeq	r8, r1, r0, lsl #16
    116c:	53000100 	movwpl	r0, #256	; 0x100
    1170:	00000188 	andeq	r0, r0, r8, lsl #3
    1174:	00000190 	muleq	r0, r0, r1
    1178:	0070001c 	rsbseq	r0, r0, ip, lsl r0
    117c:	25f72cf7 	ldrbcs	r2, [r7, #3319]!	; 0xcf7
    1180:	cd0825f4 	cfstr32gt	mvfx2, [r8, #-976]	; 0xfffffc30
    1184:	00cccccc 	sbceq	ip, ip, ip, asr #25
    1188:	1e000000 	cdpne	0, 0, cr0, cr0, cr0, {0}
    118c:	25f72008 	ldrbcs	r2, [r7, #8]!
    1190:	332cf725 	msrcc	CPSR_fs, #9699328	; 0x940000
    1194:	01909f25 	orrseq	r9, r0, r5, lsr #30
    1198:	01940000 	orrseq	r0, r4, r0
    119c:	00010000 	andeq	r0, r1, r0
    11a0:	00019453 	andeq	r9, r1, r3, asr r4
    11a4:	00019c00 	andeq	r9, r1, r0, lsl #24
    11a8:	70001c00 	andvc	r1, r0, r0, lsl #24
    11ac:	f72cf700 			; <UNDEFINED> instruction: 0xf72cf700
    11b0:	0825f425 	stmdaeq	r5!, {r0, r2, r5, sl, ip, sp, lr, pc}
    11b4:	cccccccd 	stclgt	12, cr12, [ip], {205}	; 0xcd
    11b8:	00000000 	andeq	r0, r0, r0
    11bc:	f720081e 			; <UNDEFINED> instruction: 0xf720081e
    11c0:	2cf72525 	cfldr64cs	mvdx2, [r7], #148	; 0x94
    11c4:	9c9f2533 	cfldr32ls	mvfx2, [pc], {51}	; 0x33
    11c8:	a0000001 	andge	r0, r0, r1
    11cc:	01000001 	tsteq	r0, r1
    11d0:	01a05300 	lsleq	r5, r0, #6
    11d4:	01a80000 			; <UNDEFINED> instruction: 0x01a80000
    11d8:	001c0000 	andseq	r0, ip, r0
    11dc:	2cf70070 	ldclcs	0, cr0, [r7], #448	; 0x1c0
    11e0:	25f425f7 	ldrbcs	r2, [r4, #1527]!	; 0x5f7
    11e4:	cccccd08 	stclgt	13, cr12, [ip], {8}
    11e8:	000000cc 	andeq	r0, r0, ip, asr #1
    11ec:	20081e00 	andcs	r1, r8, r0, lsl #28
    11f0:	f72525f7 			; <UNDEFINED> instruction: 0xf72525f7
    11f4:	9f25332c 	svcls	0x0025332c
    11f8:	000001a8 	andeq	r0, r0, r8, lsr #3
    11fc:	000001ac 	andeq	r0, r0, ip, lsr #3
    1200:	ac530001 	mrrcge	0, 0, r0, r3, cr1
    1204:	b4000001 	strlt	r0, [r0], #-1
    1208:	1c000001 	stcne	0, cr0, [r0], {1}
    120c:	f7007000 			; <UNDEFINED> instruction: 0xf7007000
    1210:	f425f72c 	vld1.8	{d15}, [r5 :128], ip
    1214:	cccd0825 	stclgt	8, cr0, [sp], {37}	; 0x25
    1218:	0000cccc 	andeq	ip, r0, ip, asr #25
    121c:	081e0000 	ldmdaeq	lr, {}	; <UNPREDICTABLE>
    1220:	2525f720 	strcs	pc, [r5, #-1824]!	; 0x720
    1224:	25332cf7 	ldrcs	r2, [r3, #-3319]!	; 0xcf7
    1228:	0001b49f 	muleq	r1, pc, r4	; <UNPREDICTABLE>
    122c:	0001b800 	andeq	fp, r1, r0, lsl #16
    1230:	53000100 	movwpl	r0, #256	; 0x100
    1234:	000001b8 			; <UNDEFINED> instruction: 0x000001b8
    1238:	000001c0 	andeq	r0, r0, r0, asr #3
    123c:	0070001c 	rsbseq	r0, r0, ip, lsl r0
    1240:	25f72cf7 	ldrbcs	r2, [r7, #3319]!	; 0xcf7
    1244:	cd0825f4 	cfstr32gt	mvfx2, [r8, #-976]	; 0xfffffc30
    1248:	00cccccc 	sbceq	ip, ip, ip, asr #25
    124c:	1e000000 	cdpne	0, 0, cr0, cr0, cr0, {0}
    1250:	25f72008 	ldrbcs	r2, [r7, #8]!
    1254:	332cf725 	msrcc	CPSR_fs, #9699328	; 0x940000
    1258:	01c09f25 	biceq	r9, r0, r5, lsr #30
    125c:	01c40000 	biceq	r0, r4, r0
    1260:	00010000 	andeq	r0, r1, r0
    1264:	0001c453 	andeq	ip, r1, r3, asr r4
    1268:	0001cc00 	andeq	ip, r1, r0, lsl #24
    126c:	70001c00 	andvc	r1, r0, r0, lsl #24
    1270:	f72cf700 			; <UNDEFINED> instruction: 0xf72cf700
    1274:	0825f425 	stmdaeq	r5!, {r0, r2, r5, sl, ip, sp, lr, pc}
    1278:	cccccccd 	stclgt	12, cr12, [ip], {205}	; 0xcd
    127c:	00000000 	andeq	r0, r0, r0
    1280:	f720081e 			; <UNDEFINED> instruction: 0xf720081e
    1284:	2cf72525 	cfldr64cs	mvdx2, [r7], #148	; 0x94
    1288:	cc9f2533 	cfldr32gt	mvfx2, [pc], {51}	; 0x33
    128c:	d0000001 	andle	r0, r0, r1
    1290:	01000001 	tsteq	r0, r1
    1294:	01d05300 	bicseq	r5, r0, r0, lsl #6
    1298:	01d40000 	bicseq	r0, r4, r0
    129c:	001c0000 	andseq	r0, ip, r0
    12a0:	2cf70070 	ldclcs	0, cr0, [r7], #448	; 0x1c0
    12a4:	25f425f7 	ldrbcs	r2, [r4, #1527]!	; 0x5f7
    12a8:	cccccd08 	stclgt	13, cr12, [ip], {8}
    12ac:	000000cc 	andeq	r0, r0, ip, asr #1
    12b0:	20081e00 	andcs	r1, r8, r0, lsl #28
    12b4:	f72525f7 			; <UNDEFINED> instruction: 0xf72525f7
    12b8:	9f25332c 	svcls	0x0025332c
    12bc:	000001d4 	ldrdeq	r0, [r0], -r4
    12c0:	000001dc 	ldrdeq	r0, [r0], -ip
    12c4:	0074001c 	rsbseq	r0, r4, ip, lsl r0
    12c8:	25f72cf7 	ldrbcs	r2, [r7, #3319]!	; 0xcf7
    12cc:	cd0825f4 	cfstr32gt	mvfx2, [r8, #-976]	; 0xfffffc30
    12d0:	00cccccc 	sbceq	ip, ip, ip, asr #25
    12d4:	1e000000 	cdpne	0, 0, cr0, cr0, cr0, {0}
    12d8:	25f72008 	ldrbcs	r2, [r7, #8]!
    12dc:	332cf725 	msrcc	CPSR_fs, #9699328	; 0x940000
    12e0:	01dc9f25 	bicseq	r9, ip, r5, lsr #30
    12e4:	01e00000 	mvneq	r0, r0
    12e8:	00170000 	andseq	r0, r7, r0
    12ec:	2cf70074 	ldclcs	0, cr0, [r7], #464	; 0x1d0
    12f0:	007125f7 	ldrshteq	r2, [r1], #-87	; 0xffffffa9
    12f4:	25f72cf7 	ldrbcs	r2, [r7, #3319]!	; 0xcf7
    12f8:	f720081e 			; <UNDEFINED> instruction: 0xf720081e
    12fc:	2cf72525 	cfldr64cs	mvdx2, [r7], #148	; 0x94
    1300:	e09f2533 	adds	r2, pc, r3, lsr r5	; <UNPREDICTABLE>
    1304:	10000001 	andne	r0, r0, r1
    1308:	1c000002 	stcne	0, cr0, [r0], {2}
    130c:	f7007400 			; <UNDEFINED> instruction: 0xf7007400
    1310:	f425f72c 	vld1.8	{d15}, [r5 :128], ip
    1314:	cccd0825 	stclgt	8, cr0, [sp], {37}	; 0x25
    1318:	0000cccc 	andeq	ip, r0, ip, asr #25
    131c:	081e0000 	ldmdaeq	lr, {}	; <UNPREDICTABLE>
    1320:	2525f720 	strcs	pc, [r5, #-1824]!	; 0x720
    1324:	25332cf7 	ldrcs	r2, [r3, #-3319]!	; 0xcf7
    1328:	0000009f 	muleq	r0, pc, r0	; <UNPREDICTABLE>
    132c:	00000000 	andeq	r0, r0, r0
    1330:	0001d800 	andeq	sp, r1, r0, lsl #16
    1334:	0001fc00 	andeq	pc, r1, r0, lsl #24
    1338:	50000100 	andpl	r0, r0, r0, lsl #2
    133c:	000001fc 	strdeq	r0, [r0], -ip
    1340:	00000203 	andeq	r0, r0, r3, lsl #4
    1344:	00510001 	subseq	r0, r1, r1
    1348:	00000000 	andeq	r0, r0, r0
    134c:	10000000 	andne	r0, r0, r0
    1350:	2c000002 	stccs	0, cr0, [r0], {2}
    1354:	01000002 	tsteq	r0, r2
    1358:	022c5000 	eoreq	r5, ip, #0
    135c:	02340000 	eorseq	r0, r4, #0
    1360:	00010000 	andeq	r0, r1, r0
    1364:	00023454 	andeq	r3, r2, r4, asr r4
    1368:	00023c00 	andeq	r3, r2, r0, lsl #24
    136c:	50000100 	andpl	r0, r0, r0, lsl #2
    1370:	0000023c 	andeq	r0, r0, ip, lsr r2
    1374:	00000244 	andeq	r0, r0, r4, asr #4
    1378:	44540001 	ldrbmi	r0, [r4], #-1
    137c:	50000002 	andpl	r0, r0, r2
    1380:	04000002 	streq	r0, [r0], #-2
    1384:	5001f300 	andpl	pc, r1, r0, lsl #6
    1388:	0002509f 	muleq	r2, pc, r0	; <UNPREDICTABLE>
    138c:	00025400 	andeq	r5, r2, r0, lsl #8
    1390:	50000100 	andpl	r0, r0, r0, lsl #2
    1394:	00000254 	andeq	r0, r0, r4, asr r2
    1398:	0000025c 	andeq	r0, r0, ip, asr r2
    139c:	00540001 	subseq	r0, r4, r1
    13a0:	00000000 	andeq	r0, r0, r0
    13a4:	20000000 	andcs	r0, r0, r0
    13a8:	30000002 	andcc	r0, r0, r2
    13ac:	02000002 	andeq	r0, r0, #2
    13b0:	309f3000 	addscc	r3, pc, r0
    13b4:	34000002 	strcc	r0, [r0], #-2
    13b8:	01000002 	tsteq	r0, r2
    13bc:	02345000 	eorseq	r5, r4, #0
    13c0:	02400000 	subeq	r0, r0, #0
    13c4:	00020000 	andeq	r0, r2, r0
    13c8:	02409f30 	subeq	r9, r0, #48, 30	; 0xc0
    13cc:	024c0000 	subeq	r0, ip, #0
    13d0:	00010000 	andeq	r0, r1, r0
    13d4:	00000050 	andeq	r0, r0, r0, asr r0
    13d8:	00000000 	andeq	r0, r0, r0
    13dc:	00025c00 	andeq	r5, r2, r0, lsl #24
    13e0:	00029000 	andeq	r9, r2, r0
    13e4:	50000100 	andpl	r0, r0, r0, lsl #2
    13e8:	00000290 	muleq	r0, r0, r2
    13ec:	000002a0 	andeq	r0, r0, r0, lsr #5
    13f0:	01f30004 	mvnseq	r0, r4
    13f4:	02a09f50 	adceq	r9, r0, #80, 30	; 0x140
    13f8:	02c00000 	sbceq	r0, r0, #0
    13fc:	00010000 	andeq	r0, r1, r0
    1400:	0002c050 	andeq	ip, r2, r0, asr r0
    1404:	0002d400 	andeq	sp, r2, r0, lsl #8
    1408:	f3000400 	vshl.u8	d0, d0, d0
    140c:	009f5001 	addseq	r5, pc, r1
    1410:	00000000 	andeq	r0, r0, r0
    1414:	5c000000 	stcpl	0, cr0, [r0], {-0}
    1418:	94000002 	strls	r0, [r0], #-2
    141c:	01000002 	tsteq	r0, r2
    1420:	02945100 	addseq	r5, r4, #0, 2
    1424:	02a00000 	adceq	r0, r0, #0
    1428:	00040000 	andeq	r0, r4, r0
    142c:	9f5101f3 	svcls	0x005101f3
    1430:	000002a0 	andeq	r0, r0, r0, lsr #5
    1434:	000002c4 	andeq	r0, r0, r4, asr #5
    1438:	c4510001 	ldrbgt	r0, [r1], #-1
    143c:	d4000002 	strle	r0, [r0], #-2
    1440:	04000002 	streq	r0, [r0], #-2
    1444:	5101f300 	mrspl	pc, SP_irq	; <UNPREDICTABLE>
    1448:	0000009f 	muleq	r0, pc, r0	; <UNPREDICTABLE>
    144c:	00000000 	andeq	r0, r0, r0
    1450:	00027000 	andeq	r7, r2, r0
    1454:	00029000 	andeq	r9, r2, r0
    1458:	50000100 	andpl	r0, r0, r0, lsl #2
    145c:	00000290 	muleq	r0, r0, r2
    1460:	000002a0 	andeq	r0, r0, r0, lsr #5
    1464:	01f30004 	mvnseq	r0, r4
    1468:	00009f50 	andeq	r9, r0, r0, asr pc
    146c:	00000000 	andeq	r0, r0, r0
    1470:	02780000 	rsbseq	r0, r8, #0
    1474:	02800000 	addeq	r0, r0, #0
    1478:	00020000 	andeq	r0, r2, r0
    147c:	02809f30 	addeq	r9, r0, #48, 30	; 0xc0
    1480:	02800000 	addeq	r0, r0, #0
    1484:	00010000 	andeq	r0, r1, r0
    1488:	00028052 	andeq	r8, r2, r2, asr r0
    148c:	00028800 	andeq	r8, r2, r0, lsl #16
    1490:	30000200 	andcc	r0, r0, r0, lsl #4
    1494:	0002889f 	muleq	r2, pc, r8	; <UNPREDICTABLE>
    1498:	00029b00 	andeq	r9, r2, r0, lsl #22
    149c:	52000100 	andpl	r0, r0, #0, 2
	...
    14a8:	00000278 	andeq	r0, r0, r8, ror r2
    14ac:	0000028c 	andeq	r0, r0, ip, lsl #5
    14b0:	9f300002 	svcls	0x00300002
    14b4:	0000028c 	andeq	r0, r0, ip, lsl #5
    14b8:	00000298 	muleq	r0, r8, r2
    14bc:	73310005 	teqvc	r1, #5
    14c0:	989f2400 	ldmls	pc, {sl, sp}	; <UNPREDICTABLE>
    14c4:	9b000002 	blls	14d4 <_start-0x6b2c>
    14c8:	01000002 	tsteq	r0, r2
    14cc:	029b5100 	addseq	r5, fp, #0, 2
    14d0:	02a00000 	adceq	r0, r0, #0
    14d4:	00080000 	andeq	r0, r8, r0
    14d8:	5001f331 	andpl	pc, r1, r1, lsr r3	; <UNPREDICTABLE>
    14dc:	9f241a4f 	svcls	0x00241a4f
	...
    14e8:	000002a0 	andeq	r0, r0, r0, lsr #5
    14ec:	000002c0 	andeq	r0, r0, r0, asr #5
    14f0:	c0500001 	subsgt	r0, r0, r1
    14f4:	d4000002 	strle	r0, [r0], #-2
    14f8:	04000002 	streq	r0, [r0], #-2
    14fc:	5001f300 	andpl	pc, r1, r0, lsl #6
    1500:	0000009f 	muleq	r0, pc, r0	; <UNPREDICTABLE>
    1504:	00000000 	andeq	r0, r0, r0
    1508:	0002a800 	andeq	sl, r2, r0, lsl #16
    150c:	0002b000 	andeq	fp, r2, r0
    1510:	30000200 	andcc	r0, r0, r0, lsl #4
    1514:	0002b09f 	muleq	r2, pc, r0	; <UNPREDICTABLE>
    1518:	0002b000 	andeq	fp, r2, r0
    151c:	52000100 	andpl	r0, r0, #0, 2
    1520:	000002b0 			; <UNDEFINED> instruction: 0x000002b0
    1524:	000002b8 			; <UNDEFINED> instruction: 0x000002b8
    1528:	9f300002 	svcls	0x00300002
    152c:	000002b8 			; <UNDEFINED> instruction: 0x000002b8
    1530:	000002cb 	andeq	r0, r0, fp, asr #5
    1534:	00520001 	subseq	r0, r2, r1
    1538:	00000000 	andeq	r0, r0, r0
    153c:	a8000000 	stmdage	r0, {}	; <UNPREDICTABLE>
    1540:	bc000002 	stclt	0, cr0, [r0], {2}
    1544:	02000002 	andeq	r0, r0, #2
    1548:	bc9f3000 	ldclt	0, cr3, [pc], {0}
    154c:	c8000002 	stmdagt	r0, {r1}
    1550:	05000002 	streq	r0, [r0, #-2]
    1554:	00733100 	rsbseq	r3, r3, r0, lsl #2
    1558:	02c89f24 	sbceq	r9, r8, #36, 30	; 0x90
    155c:	02cb0000 	sbceq	r0, fp, #0
    1560:	00010000 	andeq	r0, r1, r0
    1564:	0002cb51 	andeq	ip, r2, r1, asr fp
    1568:	0002d400 	andeq	sp, r2, r0, lsl #8
    156c:	31000800 	tstcc	r0, r0, lsl #16
    1570:	4f5001f3 	svcmi	0x005001f3
    1574:	009f241a 	addseq	r2, pc, sl, lsl r4	; <UNPREDICTABLE>
    1578:	00000000 	andeq	r0, r0, r0
    157c:	d4000000 	strle	r0, [r0], #-0
    1580:	6c000002 	stcvs	0, cr0, [r0], {2}
    1584:	01000003 	tsteq	r0, r3
    1588:	036c5000 	cmneq	ip, #0
    158c:	03ac0000 			; <UNDEFINED> instruction: 0x03ac0000
    1590:	00010000 	andeq	r0, r1, r0
    1594:	00000054 	andeq	r0, r0, r4, asr r0
    1598:	00000000 	andeq	r0, r0, r0
    159c:	0002d400 	andeq	sp, r2, r0, lsl #8
    15a0:	00036f00 	andeq	r6, r3, r0, lsl #30
    15a4:	51000100 	mrspl	r0, (UNDEF: 16)
    15a8:	0000036f 	andeq	r0, r0, pc, ror #6
    15ac:	000003ac 	andeq	r0, r0, ip, lsr #7
    15b0:	01f30004 	mvnseq	r0, r4
    15b4:	00009f51 	andeq	r9, r0, r1, asr pc
    15b8:	00000000 	andeq	r0, r0, r0
    15bc:	03240000 	teqeq	r4, #0
    15c0:	03280000 	teqeq	r8, #0
    15c4:	00010000 	andeq	r0, r1, r0
    15c8:	00033056 	andeq	r3, r3, r6, asr r0
    15cc:	00033400 	andeq	r3, r3, r0, lsl #8
    15d0:	56000100 	strpl	r0, [r0], -r0, lsl #2
    15d4:	0000033c 	andeq	r0, r0, ip, lsr r3
    15d8:	00000340 	andeq	r0, r0, r0, asr #6
    15dc:	48560001 	ldmdami	r6, {r0}^
    15e0:	4c000003 	stcmi	0, cr0, [r0], {3}
    15e4:	01000003 	tsteq	r0, r3
    15e8:	03545600 	cmpeq	r4, #0, 12
    15ec:	03580000 	cmpeq	r8, #0
    15f0:	00010000 	andeq	r0, r1, r0
    15f4:	00036056 	andeq	r6, r3, r6, asr r0
    15f8:	00036400 	andeq	r6, r3, r0, lsl #8
    15fc:	56000100 	strpl	r0, [r0], -r0, lsl #2
    1600:	00000368 	andeq	r0, r0, r8, ror #6
    1604:	000003ac 	andeq	r0, r0, ip, lsr #7
    1608:	00560001 	subseq	r0, r6, r1
    160c:	00000000 	andeq	r0, r0, r0
    1610:	f8000000 			; <UNDEFINED> instruction: 0xf8000000
    1614:	20000002 	andcs	r0, r0, r2
    1618:	01000003 	tsteq	r0, r3
    161c:	03205300 	teqeq	r0, #0, 6
    1620:	03280000 	teqeq	r8, #0
    1624:	001c0000 	andseq	r0, ip, r0
    1628:	2cf70070 	ldclcs	0, cr0, [r7], #448	; 0x1c0
    162c:	25f425f7 	ldrbcs	r2, [r4, #1527]!	; 0x5f7
    1630:	cccccd08 	stclgt	13, cr12, [ip], {8}
    1634:	000000cc 	andeq	r0, r0, ip, asr #1
    1638:	20081e00 	andcs	r1, r8, r0, lsl #28
    163c:	f72525f7 			; <UNDEFINED> instruction: 0xf72525f7
    1640:	9f25332c 	svcls	0x0025332c
    1644:	00000328 	andeq	r0, r0, r8, lsr #6
    1648:	0000032c 	andeq	r0, r0, ip, lsr #6
    164c:	2c530001 	mrrccs	0, 0, r0, r3, cr1
    1650:	34000003 	strcc	r0, [r0], #-3
    1654:	1c000003 	stcne	0, cr0, [r0], {3}
    1658:	f7007000 			; <UNDEFINED> instruction: 0xf7007000
    165c:	f425f72c 	vld1.8	{d15}, [r5 :128], ip
    1660:	cccd0825 	stclgt	8, cr0, [sp], {37}	; 0x25
    1664:	0000cccc 	andeq	ip, r0, ip, asr #25
    1668:	081e0000 	ldmdaeq	lr, {}	; <UNPREDICTABLE>
    166c:	2525f720 	strcs	pc, [r5, #-1824]!	; 0x720
    1670:	25332cf7 	ldrcs	r2, [r3, #-3319]!	; 0xcf7
    1674:	0003349f 	muleq	r3, pc, r4	; <UNPREDICTABLE>
    1678:	00033800 	andeq	r3, r3, r0, lsl #16
    167c:	53000100 	movwpl	r0, #256	; 0x100
    1680:	00000338 	andeq	r0, r0, r8, lsr r3
    1684:	00000340 	andeq	r0, r0, r0, asr #6
    1688:	0070001c 	rsbseq	r0, r0, ip, lsl r0
    168c:	25f72cf7 	ldrbcs	r2, [r7, #3319]!	; 0xcf7
    1690:	cd0825f4 	cfstr32gt	mvfx2, [r8, #-976]	; 0xfffffc30
    1694:	00cccccc 	sbceq	ip, ip, ip, asr #25
    1698:	1e000000 	cdpne	0, 0, cr0, cr0, cr0, {0}
    169c:	25f72008 	ldrbcs	r2, [r7, #8]!
    16a0:	332cf725 	msrcc	CPSR_fs, #9699328	; 0x940000
    16a4:	03409f25 	movteq	r9, #3877	; 0xf25
    16a8:	03440000 	movteq	r0, #16384	; 0x4000
    16ac:	00010000 	andeq	r0, r1, r0
    16b0:	00034453 	andeq	r4, r3, r3, asr r4
    16b4:	00034c00 	andeq	r4, r3, r0, lsl #24
    16b8:	70001c00 	andvc	r1, r0, r0, lsl #24
    16bc:	f72cf700 			; <UNDEFINED> instruction: 0xf72cf700
    16c0:	0825f425 	stmdaeq	r5!, {r0, r2, r5, sl, ip, sp, lr, pc}
    16c4:	cccccccd 	stclgt	12, cr12, [ip], {205}	; 0xcd
    16c8:	00000000 	andeq	r0, r0, r0
    16cc:	f720081e 			; <UNDEFINED> instruction: 0xf720081e
    16d0:	2cf72525 	cfldr64cs	mvdx2, [r7], #148	; 0x94
    16d4:	4c9f2533 	cfldr32mi	mvfx2, [pc], {51}	; 0x33
    16d8:	50000003 	andpl	r0, r0, r3
    16dc:	01000003 	tsteq	r0, r3
    16e0:	03505300 	cmpeq	r0, #0, 6
    16e4:	03580000 	cmpeq	r8, #0
    16e8:	001c0000 	andseq	r0, ip, r0
    16ec:	2cf70070 	ldclcs	0, cr0, [r7], #448	; 0x1c0
    16f0:	25f425f7 	ldrbcs	r2, [r4, #1527]!	; 0x5f7
    16f4:	cccccd08 	stclgt	13, cr12, [ip], {8}
    16f8:	000000cc 	andeq	r0, r0, ip, asr #1
    16fc:	20081e00 	andcs	r1, r8, r0, lsl #28
    1700:	f72525f7 			; <UNDEFINED> instruction: 0xf72525f7
    1704:	9f25332c 	svcls	0x0025332c
    1708:	00000358 	andeq	r0, r0, r8, asr r3
    170c:	0000035c 	andeq	r0, r0, ip, asr r3
    1710:	5c530001 	mrrcpl	0, 0, r0, r3, cr1
    1714:	64000003 	strvs	r0, [r0], #-3
    1718:	1c000003 	stcne	0, cr0, [r0], {3}
    171c:	f7007000 			; <UNDEFINED> instruction: 0xf7007000
    1720:	f425f72c 	vld1.8	{d15}, [r5 :128], ip
    1724:	cccd0825 	stclgt	8, cr0, [sp], {37}	; 0x25
    1728:	0000cccc 	andeq	ip, r0, ip, asr #25
    172c:	081e0000 	ldmdaeq	lr, {}	; <UNPREDICTABLE>
    1730:	2525f720 	strcs	pc, [r5, #-1824]!	; 0x720
    1734:	25332cf7 	ldrcs	r2, [r3, #-3319]!	; 0xcf7
    1738:	0003649f 	muleq	r3, pc, r4	; <UNPREDICTABLE>
    173c:	00036800 	andeq	r6, r3, r0, lsl #16
    1740:	53000100 	movwpl	r0, #256	; 0x100
    1744:	00000368 	andeq	r0, r0, r8, ror #6
    1748:	0000036c 	andeq	r0, r0, ip, ror #6
    174c:	0070001c 	rsbseq	r0, r0, ip, lsl r0
    1750:	25f72cf7 	ldrbcs	r2, [r7, #3319]!	; 0xcf7
    1754:	cd0825f4 	cfstr32gt	mvfx2, [r8, #-976]	; 0xfffffc30
    1758:	00cccccc 	sbceq	ip, ip, ip, asr #25
    175c:	1e000000 	cdpne	0, 0, cr0, cr0, cr0, {0}
    1760:	25f72008 	ldrbcs	r2, [r7, #8]!
    1764:	332cf725 	msrcc	CPSR_fs, #9699328	; 0x940000
    1768:	036c9f25 	cmneq	ip, #37, 30	; 0x94
    176c:	03740000 	cmneq	r4, #0
    1770:	001c0000 	andseq	r0, ip, r0
    1774:	2cf70074 	ldclcs	0, cr0, [r7], #464	; 0x1d0
    1778:	25f425f7 	ldrbcs	r2, [r4, #1527]!	; 0x5f7
    177c:	cccccd08 	stclgt	13, cr12, [ip], {8}
    1780:	000000cc 	andeq	r0, r0, ip, asr #1
    1784:	20081e00 	andcs	r1, r8, r0, lsl #28
    1788:	f72525f7 			; <UNDEFINED> instruction: 0xf72525f7
    178c:	9f25332c 	svcls	0x0025332c
    1790:	00000374 	andeq	r0, r0, r4, ror r3
    1794:	00000378 	andeq	r0, r0, r8, ror r3
    1798:	00740017 	rsbseq	r0, r4, r7, lsl r0
    179c:	25f72cf7 	ldrbcs	r2, [r7, #3319]!	; 0xcf7
    17a0:	2cf70073 	ldclcs	0, cr0, [r7], #460	; 0x1cc
    17a4:	081e25f7 	ldmdaeq	lr, {r0, r1, r2, r4, r5, r6, r7, r8, sl, sp}
    17a8:	2525f720 	strcs	pc, [r5, #-1824]!	; 0x720
    17ac:	25332cf7 	ldrcs	r2, [r3, #-3319]!	; 0xcf7
    17b0:	0003789f 	muleq	r3, pc, r8	; <UNPREDICTABLE>
    17b4:	0003ac00 	andeq	sl, r3, r0, lsl #24
    17b8:	74001c00 	strvc	r1, [r0], #-3072	; 0xc00
    17bc:	f72cf700 			; <UNDEFINED> instruction: 0xf72cf700
    17c0:	0825f425 	stmdaeq	r5!, {r0, r2, r5, sl, ip, sp, lr, pc}
    17c4:	cccccccd 	stclgt	12, cr12, [ip], {205}	; 0xcd
    17c8:	00000000 	andeq	r0, r0, r0
    17cc:	f720081e 			; <UNDEFINED> instruction: 0xf720081e
    17d0:	2cf72525 	cfldr64cs	mvdx2, [r7], #148	; 0x94
    17d4:	009f2533 	addseq	r2, pc, r3, lsr r5	; <UNPREDICTABLE>
    17d8:	00000000 	andeq	r0, r0, r0
    17dc:	70000000 	andvc	r0, r0, r0
    17e0:	94000003 	strls	r0, [r0], #-3
    17e4:	01000003 	tsteq	r0, r3
    17e8:	03945000 	orrseq	r5, r4, #0
    17ec:	039c0000 	orrseq	r0, ip, #0
    17f0:	00090000 	andeq	r0, r9, r0
    17f4:	00730075 	rsbseq	r0, r3, r5, ror r0
    17f8:	21007124 	tstcs	r0, r4, lsr #2
    17fc:	00039c9f 	muleq	r3, pc, ip	; <UNPREDICTABLE>
    1800:	00039f00 	andeq	r9, r3, r0, lsl #30
    1804:	51000100 	mrspl	r0, (UNDEF: 16)
	...
    1810:	000003ac 	andeq	r0, r0, ip, lsr #7
    1814:	000003b8 			; <UNDEFINED> instruction: 0x000003b8
    1818:	b8500001 	ldmdalt	r0, {r0}^
    181c:	d8000003 	stmdale	r0, {r0, r1}
    1820:	04000003 	streq	r0, [r0], #-3
    1824:	5001f300 	andpl	pc, r1, r0, lsl #6
    1828:	0000009f 	muleq	r0, pc, r0	; <UNPREDICTABLE>
    182c:	00000000 	andeq	r0, r0, r0
    1830:	0003d800 	andeq	sp, r3, r0, lsl #16
    1834:	0003eb00 	andeq	lr, r3, r0, lsl #22
    1838:	50000100 	andpl	r0, r0, r0, lsl #2
    183c:	000003eb 	andeq	r0, r0, fp, ror #7
    1840:	00000424 	andeq	r0, r0, r4, lsr #8
    1844:	24540001 	ldrbcs	r0, [r4], #-1
    1848:	5c000004 	stcpl	0, cr0, [r0], {4}
    184c:	04000004 	streq	r0, [r0], #-4
    1850:	5001f300 	andpl	pc, r1, r0, lsl #6
    1854:	0000009f 	muleq	r0, pc, r0	; <UNPREDICTABLE>
    1858:	00000000 	andeq	r0, r0, r0
    185c:	00044400 	andeq	r4, r4, r0, lsl #8
    1860:	00044800 	andeq	r4, r4, r0, lsl #16
    1864:	50000100 	andpl	r0, r0, r0, lsl #2
    1868:	00000448 	andeq	r0, r0, r8, asr #8
    186c:	0000044f 	andeq	r0, r0, pc, asr #8
    1870:	00510001 	subseq	r0, r1, r1
	...
    187c:	08000004 	stmdaeq	r0, {r2}
    1880:	01000004 	tsteq	r0, r4
    1884:	04085000 	streq	r5, [r8], #-0
    1888:	040f0000 	streq	r0, [pc], #-0	; 1890 <_start-0x6770>
    188c:	00010000 	andeq	r0, r1, r0
    1890:	00000051 	andeq	r0, r0, r1, asr r0
    1894:	00000000 	andeq	r0, r0, r0
    1898:	00042000 	andeq	r2, r4, r0
    189c:	00042c00 	andeq	r2, r4, r0, lsl #24
    18a0:	50000100 	andpl	r0, r0, r0, lsl #2
    18a4:	0000042c 	andeq	r0, r0, ip, lsr #8
    18a8:	00000433 	andeq	r0, r0, r3, lsr r4
    18ac:	00510001 	subseq	r0, r1, r1
    18b0:	00000000 	andeq	r0, r0, r0
    18b4:	5c000000 	stcpl	0, cr0, [r0], {-0}
    18b8:	6f000004 	svcvs	0x00000004
    18bc:	01000004 	tsteq	r0, r4
    18c0:	046f5000 	strbteq	r5, [pc], #-0	; 18c8 <_start-0x6738>
    18c4:	04a80000 	strteq	r0, [r8], #0
    18c8:	00010000 	andeq	r0, r1, r0
    18cc:	0004a854 	andeq	sl, r4, r4, asr r8
    18d0:	0004e000 	andeq	lr, r4, r0
    18d4:	f3000400 	vshl.u8	d0, d0, d0
    18d8:	009f5001 	addseq	r5, pc, r1
    18dc:	00000000 	andeq	r0, r0, r0
    18e0:	c8000000 	stmdagt	r0, {}	; <UNPREDICTABLE>
    18e4:	cc000004 	stcgt	0, cr0, [r0], {4}
    18e8:	01000004 	tsteq	r0, r4
    18ec:	04cc5000 	strbeq	r5, [ip], #0
    18f0:	04d30000 	ldrbeq	r0, [r3], #0
    18f4:	00010000 	andeq	r0, r1, r0
    18f8:	00000051 	andeq	r0, r0, r1, asr r0
    18fc:	00000000 	andeq	r0, r0, r0
    1900:	00048400 	andeq	r8, r4, r0, lsl #8
    1904:	00048c00 	andeq	r8, r4, r0, lsl #24
    1908:	50000100 	andpl	r0, r0, r0, lsl #2
    190c:	0000048c 	andeq	r0, r0, ip, lsl #9
    1910:	00000493 	muleq	r0, r3, r4
    1914:	00510001 	subseq	r0, r1, r1
    1918:	00000000 	andeq	r0, r0, r0
    191c:	a4000000 	strge	r0, [r0], #-0
    1920:	b0000004 	andlt	r0, r0, r4
    1924:	01000004 	tsteq	r0, r4
    1928:	04b05000 	ldrteq	r5, [r0], #0
    192c:	04b70000 	ldrteq	r0, [r7], #0
    1930:	00010000 	andeq	r0, r1, r0
    1934:	00000051 	andeq	r0, r0, r1, asr r0
    1938:	00000000 	andeq	r0, r0, r0
    193c:	0004e000 	andeq	lr, r4, r0
    1940:	0004f300 	andeq	pc, r4, r0, lsl #6
    1944:	50000100 	andpl	r0, r0, r0, lsl #2
    1948:	000004f3 	strdeq	r0, [r0], -r3
    194c:	00000534 	andeq	r0, r0, r4, lsr r5
    1950:	34540001 	ldrbcc	r0, [r4], #-1
    1954:	58000005 	stmdapl	r0, {r0, r2}
    1958:	04000005 	streq	r0, [r0], #-5
    195c:	5001f300 	andpl	pc, r1, r0, lsl #6
    1960:	0005589f 	muleq	r5, pc, r8	; <UNPREDICTABLE>
    1964:	00055c00 	andeq	r5, r5, r0, lsl #24
    1968:	50000100 	andpl	r0, r0, r0, lsl #2
    196c:	0000055c 	andeq	r0, r0, ip, asr r5
    1970:	00000564 	andeq	r0, r0, r4, ror #10
    1974:	00540001 	subseq	r0, r4, r1
    1978:	00000000 	andeq	r0, r0, r0
    197c:	08000000 	stmdaeq	r0, {}	; <UNPREDICTABLE>
    1980:	17000005 	strne	r0, [r0, -r5]
    1984:	08000005 	stmdaeq	r0, {r0, r2}
    1988:	00743100 	rsbseq	r3, r4, r0, lsl #2
    198c:	1a007024 	bne	1da24 <__bss_end__+0xeeac>
    1990:	0000009f 	muleq	r0, pc, r0	; <UNPREDICTABLE>
    1994:	00000000 	andeq	r0, r0, r0
    1998:	00053400 	andeq	r3, r5, r0, lsl #8
    199c:	00054c00 	andeq	r4, r5, r0, lsl #24
    19a0:	54000100 	strpl	r0, [r0], #-256	; 0x100
	...
    19ac:	00000564 	andeq	r0, r0, r4, ror #10
    19b0:	00000577 	andeq	r0, r0, r7, ror r5
    19b4:	77500001 	ldrbvc	r0, [r0, -r1]
    19b8:	9c000005 	stcls	0, cr0, [r0], {5}
    19bc:	01000005 	tsteq	r0, r5
    19c0:	059c5400 	ldreq	r5, [ip, #1024]	; 0x400
    19c4:	05bc0000 	ldreq	r0, [ip, #0]!
    19c8:	00040000 	andeq	r0, r4, r0
    19cc:	9f5001f3 	svcls	0x005001f3
	...
    19dc:	00000018 	andeq	r0, r0, r8, lsl r0
    19e0:	18500001 	ldmdane	r0, {r0}^
    19e4:	54000000 	strpl	r0, [r0], #-0
    19e8:	04000001 	streq	r0, [r0], #-1
    19ec:	5001f300 	andpl	pc, r1, r0, lsl #6
    19f0:	0000009f 	muleq	r0, pc, r0	; <UNPREDICTABLE>
	...
    19fc:	00001c00 	andeq	r1, r0, r0, lsl #24
    1a00:	51000100 	mrspl	r0, (UNDEF: 16)
    1a04:	0000001c 	andeq	r0, r0, ip, lsl r0
    1a08:	00000154 	andeq	r0, r0, r4, asr r1
    1a0c:	01f30004 	mvnseq	r0, r4
    1a10:	00009f51 	andeq	r9, r0, r1, asr pc
    1a14:	00000000 	andeq	r0, r0, r0
    1a18:	00100000 	andseq	r0, r0, r0
    1a1c:	01340000 	teqeq	r4, r0
    1a20:	00010000 	andeq	r0, r1, r0
    1a24:	00000055 	andeq	r0, r0, r5, asr r0
    1a28:	00000000 	andeq	r0, r0, r0
    1a2c:	00001000 	andeq	r1, r0, r0
    1a30:	00003400 	andeq	r3, r0, r0, lsl #8
    1a34:	55000100 	strpl	r0, [r0, #-256]	; 0x100
    1a38:	00000034 	andeq	r0, r0, r4, lsr r0
    1a3c:	00000134 	andeq	r0, r0, r4, lsr r1
    1a40:	34580001 	ldrbcc	r0, [r8], #-1
    1a44:	54000001 	strpl	r0, [r0], #-1
    1a48:	01000001 	tsteq	r0, r1
    1a4c:	00005500 	andeq	r5, r0, r0, lsl #10
    1a50:	00000000 	andeq	r0, r0, r0
    1a54:	00140000 	andseq	r0, r4, r0
    1a58:	01340000 	teqeq	r4, r0
    1a5c:	00010000 	andeq	r0, r1, r0
    1a60:	00000055 	andeq	r0, r0, r5, asr r0
    1a64:	00000000 	andeq	r0, r0, r0
    1a68:	00002000 	andeq	r2, r0, r0
    1a6c:	00013400 	andeq	r3, r1, r0, lsl #8
    1a70:	55000100 	strpl	r0, [r0, #-256]	; 0x100
	...
    1a7c:	00000024 	andeq	r0, r0, r4, lsr #32
    1a80:	00000028 	andeq	r0, r0, r8, lsr #32
    1a84:	00530001 	subseq	r0, r3, r1
    1a88:	00000000 	andeq	r0, r0, r0
    1a8c:	34000000 	strcc	r0, [r0], #-0
    1a90:	54000000 	strpl	r0, [r0], #-0
    1a94:	01000000 	mrseq	r0, (UNDEF: 0)
    1a98:	00545800 	subseq	r5, r4, r0, lsl #16
    1a9c:	01340000 	teqeq	r4, r0
    1aa0:	00050000 	andeq	r0, r5, r0
    1aa4:	24310075 	ldrtcs	r0, [r1], #-117	; 0x75
    1aa8:	0000009f 	muleq	r0, pc, r0	; <UNPREDICTABLE>
    1aac:	00000000 	andeq	r0, r0, r0
    1ab0:	00003400 	andeq	r3, r0, r0, lsl #8
    1ab4:	00003c00 	andeq	r3, r0, r0, lsl #24
    1ab8:	77000500 	strvc	r0, [r0, -r0, lsl #10]
    1abc:	9f1a3100 	svcls	0x001a3100
    1ac0:	0000003c 	andeq	r0, r0, ip, lsr r0
    1ac4:	0000003f 	andeq	r0, r0, pc, lsr r0
    1ac8:	3f510001 	svccc	0x00510001
    1acc:	54000000 	strpl	r0, [r0], #-0
    1ad0:	05000001 	streq	r0, [r0, #-1]
    1ad4:	31007700 	tstcc	r0, r0, lsl #14
    1ad8:	00009f1a 	andeq	r9, r0, sl, lsl pc
    1adc:	00000000 	andeq	r0, r0, r0
    1ae0:	00400000 	subeq	r0, r0, r0
    1ae4:	00540000 	subseq	r0, r4, r0
    1ae8:	00010000 	andeq	r0, r1, r0
    1aec:	00005458 	andeq	r5, r0, r8, asr r4
    1af0:	00013400 	andeq	r3, r1, r0, lsl #8
    1af4:	75000500 	strvc	r0, [r0, #-1280]	; 0x500
    1af8:	9f243100 	svcls	0x00243100
	...
    1b04:	00000044 	andeq	r0, r0, r4, asr #32
    1b08:	00000048 	andeq	r0, r0, r8, asr #32
    1b0c:	00530001 	subseq	r0, r3, r1
    1b10:	00000000 	andeq	r0, r0, r0
    1b14:	54000000 	strpl	r0, [r0], #-0
    1b18:	74000000 	strvc	r0, [r0], #-0
    1b1c:	01000000 	mrseq	r0, (UNDEF: 0)
    1b20:	00745800 	rsbseq	r5, r4, r0, lsl #16
    1b24:	01340000 	teqeq	r4, r0
    1b28:	00080000 	andeq	r0, r8, r0
    1b2c:	24310075 	ldrtcs	r0, [r1], #-117	; 0x75
    1b30:	9f220075 	svcls	0x00220075
	...
    1b3c:	00000060 	andeq	r0, r0, r0, rrx
    1b40:	00000074 	andeq	r0, r0, r4, ror r0
    1b44:	74580001 	ldrbvc	r0, [r8], #-1
    1b48:	34000000 	strcc	r0, [r0], #-0
    1b4c:	08000001 	stmdaeq	r0, {r0}
    1b50:	31007500 	tstcc	r0, r0, lsl #10
    1b54:	22007524 	andcs	r7, r0, #36, 10	; 0x9000000
    1b58:	0000009f 	muleq	r0, pc, r0	; <UNPREDICTABLE>
    1b5c:	00000000 	andeq	r0, r0, r0
    1b60:	00006400 	andeq	r6, r0, r0, lsl #8
    1b64:	00006800 	andeq	r6, r0, r0, lsl #16
    1b68:	53000100 	movwpl	r0, #256	; 0x100
	...
    1b74:	00000074 	andeq	r0, r0, r4, ror r0
    1b78:	00000094 	muleq	r0, r4, r0
    1b7c:	94580001 	ldrbls	r0, [r8], #-1
    1b80:	34000000 	strcc	r0, [r0], #-0
    1b84:	05000001 	streq	r0, [r0, #-1]
    1b88:	32007500 	andcc	r7, r0, #0, 10
    1b8c:	00009f24 	andeq	r9, r0, r4, lsr #30
    1b90:	00000000 	andeq	r0, r0, r0
    1b94:	00800000 	addeq	r0, r0, r0
    1b98:	00940000 	addseq	r0, r4, r0
    1b9c:	00010000 	andeq	r0, r1, r0
    1ba0:	00009458 	andeq	r9, r0, r8, asr r4
    1ba4:	00013400 	andeq	r3, r1, r0, lsl #8
    1ba8:	75000500 	strvc	r0, [r0, #-1280]	; 0x500
    1bac:	9f243200 	svcls	0x00243200
	...
    1bb8:	00000084 	andeq	r0, r0, r4, lsl #1
    1bbc:	00000088 	andeq	r0, r0, r8, lsl #1
    1bc0:	00530001 	subseq	r0, r3, r1
    1bc4:	00000000 	andeq	r0, r0, r0
    1bc8:	94000000 	strls	r0, [r0], #-0
    1bcc:	b4000000 	strlt	r0, [r0], #-0
    1bd0:	01000000 	mrseq	r0, (UNDEF: 0)
    1bd4:	00b45800 	adcseq	r5, r4, r0, lsl #16
    1bd8:	01340000 	teqeq	r4, r0
    1bdc:	00080000 	andeq	r0, r8, r0
    1be0:	24320075 	ldrtcs	r0, [r2], #-117	; 0x75
    1be4:	9f220075 	svcls	0x00220075
	...
    1bf0:	000000a0 	andeq	r0, r0, r0, lsr #1
    1bf4:	000000b4 	strheq	r0, [r0], -r4
    1bf8:	b4580001 	ldrblt	r0, [r8], #-1
    1bfc:	34000000 	strcc	r0, [r0], #-0
    1c00:	08000001 	stmdaeq	r0, {r0}
    1c04:	32007500 	andcc	r7, r0, #0, 10
    1c08:	22007524 	andcs	r7, r0, #36, 10	; 0x9000000
    1c0c:	0000009f 	muleq	r0, pc, r0	; <UNPREDICTABLE>
    1c10:	00000000 	andeq	r0, r0, r0
    1c14:	0000a400 	andeq	sl, r0, r0, lsl #8
    1c18:	0000a800 	andeq	sl, r0, r0, lsl #16
    1c1c:	53000100 	movwpl	r0, #256	; 0x100
	...
    1c28:	000000b4 	strheq	r0, [r0], -r4
    1c2c:	000000d4 	ldrdeq	r0, [r0], -r4
    1c30:	d4580001 	ldrble	r0, [r8], #-1
    1c34:	34000000 	strcc	r0, [r0], #-0
    1c38:	0a000001 	beq	1c44 <_start-0x63bc>
    1c3c:	32007500 	andcc	r7, r0, #0, 10
    1c40:	31007524 	tstcc	r0, r4, lsr #10
    1c44:	009f2224 	addseq	r2, pc, r4, lsr #4
    1c48:	00000000 	andeq	r0, r0, r0
    1c4c:	c0000000 	andgt	r0, r0, r0
    1c50:	d4000000 	strle	r0, [r0], #-0
    1c54:	01000000 	mrseq	r0, (UNDEF: 0)
    1c58:	00d45800 	sbcseq	r5, r4, r0, lsl #16
    1c5c:	01340000 	teqeq	r4, r0
    1c60:	000a0000 	andeq	r0, sl, r0
    1c64:	24320075 	ldrtcs	r0, [r2], #-117	; 0x75
    1c68:	24310075 	ldrtcs	r0, [r1], #-117	; 0x75
    1c6c:	00009f22 	andeq	r9, r0, r2, lsr #30
    1c70:	00000000 	andeq	r0, r0, r0
    1c74:	00c40000 	sbceq	r0, r4, r0
    1c78:	00c80000 	sbceq	r0, r8, r0
    1c7c:	00010000 	andeq	r0, r1, r0
    1c80:	00000053 	andeq	r0, r0, r3, asr r0
    1c84:	00000000 	andeq	r0, r0, r0
    1c88:	0000d400 	andeq	sp, r0, r0, lsl #8
    1c8c:	0000f400 	andeq	pc, r0, r0, lsl #8
    1c90:	58000100 	stmdapl	r0, {r8}
    1c94:	000000f4 	strdeq	r0, [r0], -r4
    1c98:	00000134 	andeq	r0, r0, r4, lsr r1
    1c9c:	0075000d 	rsbseq	r0, r5, sp
    1ca0:	00752432 	rsbseq	r2, r5, r2, lsr r4
    1ca4:	75222431 	strvc	r2, [r2, #-1073]!	; 0x431
    1ca8:	009f2200 	addseq	r2, pc, r0, lsl #4
    1cac:	00000000 	andeq	r0, r0, r0
    1cb0:	e0000000 	and	r0, r0, r0
    1cb4:	f4000000 	vst4.8	{d0-d3}, [r0], r0
    1cb8:	01000000 	mrseq	r0, (UNDEF: 0)
    1cbc:	00f45800 	rscseq	r5, r4, r0, lsl #16
    1cc0:	01340000 	teqeq	r4, r0
    1cc4:	000d0000 	andeq	r0, sp, r0
    1cc8:	24320075 	ldrtcs	r0, [r2], #-117	; 0x75
    1ccc:	24310075 	ldrtcs	r0, [r1], #-117	; 0x75
    1cd0:	22007522 	andcs	r7, r0, #142606336	; 0x8800000
    1cd4:	0000009f 	muleq	r0, pc, r0	; <UNPREDICTABLE>
    1cd8:	00000000 	andeq	r0, r0, r0
    1cdc:	0000e400 	andeq	lr, r0, r0, lsl #8
    1ce0:	0000e800 	andeq	lr, r0, r0, lsl #16
    1ce4:	53000100 	movwpl	r0, #256	; 0x100
	...
    1cf0:	000000f4 	strdeq	r0, [r0], -r4
    1cf4:	00000114 	andeq	r0, r0, r4, lsl r1
    1cf8:	14580001 	ldrbne	r0, [r8], #-1
    1cfc:	34000001 	strcc	r0, [r0], #-1
    1d00:	05000001 	streq	r0, [r0, #-1]
    1d04:	33007500 	movwcc	r7, #1280	; 0x500
    1d08:	00009f24 	andeq	r9, r0, r4, lsr #30
    1d0c:	00000000 	andeq	r0, r0, r0
    1d10:	01000000 	mrseq	r0, (UNDEF: 0)
    1d14:	01140000 	tsteq	r4, r0
    1d18:	00010000 	andeq	r0, r1, r0
    1d1c:	00011458 	andeq	r1, r1, r8, asr r4
    1d20:	00013400 	andeq	r3, r1, r0, lsl #8
    1d24:	75000500 	strvc	r0, [r0, #-1280]	; 0x500
    1d28:	9f243300 	svcls	0x00243300
	...
    1d34:	00000104 	andeq	r0, r0, r4, lsl #2
    1d38:	00000108 	andeq	r0, r0, r8, lsl #2
    1d3c:	00530001 	subseq	r0, r3, r1
    1d40:	00000000 	andeq	r0, r0, r0
    1d44:	14000000 	strne	r0, [r0], #-0
    1d48:	1c000001 	stcne	0, cr0, [r0], {1}
    1d4c:	06000001 	streq	r0, [r0], -r1
    1d50:	08007700 	stmdaeq	r0, {r8, r9, sl, ip, sp, lr}
    1d54:	1c9f1a80 	vldmiane	pc, {s2-s129}
    1d58:	1f000001 	svcne	0x00000001
    1d5c:	01000001 	tsteq	r0, r1
    1d60:	011f5100 	tsteq	pc, r0, lsl #2
    1d64:	01540000 	cmpeq	r4, r0
    1d68:	00060000 	andeq	r0, r6, r0
    1d6c:	80080077 	andhi	r0, r8, r7, ror r0
    1d70:	00009f1a 	andeq	r9, r0, sl, lsl pc
    1d74:	00000000 	andeq	r0, r0, r0
    1d78:	01240000 	teqeq	r4, r0
    1d7c:	01280000 	teqeq	r8, r0
    1d80:	00010000 	andeq	r0, r1, r0
    1d84:	00000053 	andeq	r0, r0, r3, asr r0
    1d88:	00000000 	andeq	r0, r0, r0
    1d8c:	00014400 	andeq	r4, r1, r0, lsl #8
    1d90:	00014800 	andeq	r4, r1, r0, lsl #16
    1d94:	53000100 	movwpl	r0, #256	; 0x100
	...
    1da0:	00000154 	andeq	r0, r0, r4, asr r1
    1da4:	0000016b 	andeq	r0, r0, fp, ror #2
    1da8:	6b500001 	blvs	1401db4 <__bss_end__+0x13f323c>
    1dac:	d0000001 	andle	r0, r0, r1
    1db0:	01000001 	tsteq	r0, r1
    1db4:	01d05900 	bicseq	r5, r0, r0, lsl #18
    1db8:	030c0000 	movweq	r0, #49152	; 0xc000
    1dbc:	00040000 	andeq	r0, r4, r0
    1dc0:	9f5001f3 	svcls	0x005001f3
    1dc4:	0000030c 	andeq	r0, r0, ip, lsl #6
    1dc8:	00000314 	andeq	r0, r0, r4, lsl r3
    1dcc:	14590001 	ldrbne	r0, [r9], #-1
    1dd0:	1c000003 	stcne	0, cr0, [r0], {3}
    1dd4:	04000003 	streq	r0, [r0], #-3
    1dd8:	5001f300 	andpl	pc, r1, r0, lsl #6
    1ddc:	0000009f 	muleq	r0, pc, r0	; <UNPREDICTABLE>
    1de0:	00000000 	andeq	r0, r0, r0
    1de4:	00015400 	andeq	r5, r1, r0, lsl #8
    1de8:	00016b00 	andeq	r6, r1, r0, lsl #22
    1dec:	51000100 	mrspl	r0, (UNDEF: 16)
    1df0:	0000016b 	andeq	r0, r0, fp, ror #2
    1df4:	0000031c 	andeq	r0, r0, ip, lsl r3
    1df8:	00560001 	subseq	r0, r6, r1
    1dfc:	00000000 	andeq	r0, r0, r0
    1e00:	a8000000 	stmdage	r0, {}	; <UNPREDICTABLE>
    1e04:	98000001 	stmdals	r0, {r0}
    1e08:	01000002 	tsteq	r0, r2
    1e0c:	00005800 	andeq	r5, r0, r0, lsl #16
    1e10:	00000000 	andeq	r0, r0, r0
    1e14:	01ac0000 			; <UNDEFINED> instruction: 0x01ac0000
    1e18:	02d00000 	sbcseq	r0, r0, #0
    1e1c:	00010000 	andeq	r0, r1, r0
    1e20:	00000054 	andeq	r0, r0, r4, asr r0
    1e24:	00000000 	andeq	r0, r0, r0
    1e28:	0001ac00 	andeq	sl, r1, r0, lsl #24
    1e2c:	0002d000 	andeq	sp, r2, r0
    1e30:	74000500 	strvc	r0, [r0], #-1280	; 0x500
    1e34:	9f253100 	svcls	0x00253100
	...
    1e40:	000001ac 	andeq	r0, r0, ip, lsr #3
    1e44:	000001d0 	ldrdeq	r0, [r0], -r0	; <UNPREDICTABLE>
    1e48:	9f300002 	svcls	0x00300002
    1e4c:	000001d0 	ldrdeq	r0, [r0], -r0	; <UNPREDICTABLE>
    1e50:	0000030c 	andeq	r0, r0, ip, lsl #6
    1e54:	14590001 	ldrbne	r0, [r9], #-1
    1e58:	1c000003 	stcne	0, cr0, [r0], {3}
    1e5c:	01000003 	tsteq	r0, r3
    1e60:	00005900 	andeq	r5, r0, r0, lsl #18
    1e64:	00000000 	andeq	r0, r0, r0
    1e68:	01680000 	cmneq	r8, r0
    1e6c:	016b0000 	cmneq	fp, r0
    1e70:	00010000 	andeq	r0, r1, r0
    1e74:	00016b51 	andeq	r6, r1, r1, asr fp
    1e78:	00031c00 	andeq	r1, r3, r0, lsl #24
    1e7c:	56000100 	strpl	r0, [r0], -r0, lsl #2
	...
    1e88:	00000170 	andeq	r0, r0, r0, ror r1
    1e8c:	000001ac 	andeq	r0, r0, ip, lsr #3
    1e90:	0c540001 	mrrceq	0, 0, r0, r4, cr1
    1e94:	14000003 	strne	r0, [r0], #-3
    1e98:	01000003 	tsteq	r0, r3
    1e9c:	00005400 	andeq	r5, r0, r0, lsl #8
    1ea0:	00000000 	andeq	r0, r0, r0
    1ea4:	01a80000 			; <UNDEFINED> instruction: 0x01a80000
    1ea8:	01c40000 	biceq	r0, r4, r0
    1eac:	00010000 	andeq	r0, r1, r0
    1eb0:	00000058 	andeq	r0, r0, r8, asr r0
    1eb4:	00000000 	andeq	r0, r0, r0
    1eb8:	0001b000 	andeq	fp, r1, r0
    1ebc:	0001cb00 	andeq	ip, r1, r0, lsl #22
    1ec0:	52000100 	andpl	r0, r0, #0, 2
    1ec4:	000001cb 	andeq	r0, r0, fp, asr #3
    1ec8:	000002d0 	ldrdeq	r0, [r0], -r0	; <UNPREDICTABLE>
    1ecc:	00740008 	rsbseq	r0, r4, r8
    1ed0:	00742531 	rsbseq	r2, r4, r1, lsr r5
    1ed4:	00009f22 	andeq	r9, r0, r2, lsr #30
    1ed8:	00000000 	andeq	r0, r0, r0
    1edc:	01b00000 	movseq	r0, r0
    1ee0:	01c40000 	biceq	r0, r4, r0
    1ee4:	00010000 	andeq	r0, r1, r0
    1ee8:	00000058 	andeq	r0, r0, r8, asr r0
    1eec:	00000000 	andeq	r0, r0, r0
    1ef0:	0001b400 	andeq	fp, r1, r0, lsl #8
    1ef4:	0001b800 	andeq	fp, r1, r0, lsl #16
    1ef8:	53000100 	movwpl	r0, #256	; 0x100
	...
    1f04:	000001d0 	ldrdeq	r0, [r0], -r0	; <UNPREDICTABLE>
    1f08:	000002d0 	ldrdeq	r0, [r0], -r0	; <UNPREDICTABLE>
    1f0c:	00540001 	subseq	r0, r4, r1
    1f10:	00000000 	andeq	r0, r0, r0
    1f14:	d0000000 	andle	r0, r0, r0
    1f18:	e4000001 	str	r0, [r0], #-1
    1f1c:	01000001 	tsteq	r0, r1
    1f20:	00005800 	andeq	r5, r0, r0, lsl #16
    1f24:	00000000 	andeq	r0, r0, r0
    1f28:	01d40000 	bicseq	r0, r4, r0
    1f2c:	01d80000 	bicseq	r0, r8, r0
    1f30:	00010000 	andeq	r0, r1, r0
    1f34:	00000053 	andeq	r0, r0, r3, asr r0
    1f38:	00000000 	andeq	r0, r0, r0
    1f3c:	0001f400 	andeq	pc, r1, r0, lsl #8
    1f40:	0002d000 	andeq	sp, r2, r0
    1f44:	54000100 	strpl	r0, [r0], #-256	; 0x100
	...
    1f50:	000001f4 	strdeq	r0, [r0], -r4
    1f54:	00000208 	andeq	r0, r0, r8, lsl #4
    1f58:	00580001 	subseq	r0, r8, r1
    1f5c:	00000000 	andeq	r0, r0, r0
    1f60:	f8000000 			; <UNDEFINED> instruction: 0xf8000000
    1f64:	fc000001 	stc2	0, cr0, [r0], {1}
    1f68:	01000001 	tsteq	r0, r1
    1f6c:	00005300 	andeq	r5, r0, r0, lsl #6
    1f70:	00000000 	andeq	r0, r0, r0
    1f74:	02180000 	andseq	r0, r8, #0
    1f78:	02d00000 	sbcseq	r0, r0, #0
    1f7c:	00010000 	andeq	r0, r1, r0
    1f80:	00000054 	andeq	r0, r0, r4, asr r0
    1f84:	00000000 	andeq	r0, r0, r0
    1f88:	00021800 	andeq	r1, r2, r0, lsl #16
    1f8c:	00022c00 	andeq	r2, r2, r0, lsl #24
    1f90:	58000100 	stmdapl	r0, {r8}
	...
    1f9c:	0000021c 	andeq	r0, r0, ip, lsl r2
    1fa0:	00000220 	andeq	r0, r0, r0, lsr #4
    1fa4:	00530001 	subseq	r0, r3, r1
    1fa8:	00000000 	andeq	r0, r0, r0
    1fac:	3c000000 	stccc	0, cr0, [r0], {-0}
    1fb0:	d0000002 	andle	r0, r0, r2
    1fb4:	01000002 	tsteq	r0, r2
    1fb8:	00005400 	andeq	r5, r0, r0, lsl #8
    1fbc:	00000000 	andeq	r0, r0, r0
    1fc0:	023c0000 	eorseq	r0, ip, #0
    1fc4:	02500000 	subseq	r0, r0, #0
    1fc8:	00010000 	andeq	r0, r1, r0
    1fcc:	00000058 	andeq	r0, r0, r8, asr r0
    1fd0:	00000000 	andeq	r0, r0, r0
    1fd4:	00024000 	andeq	r4, r2, r0
    1fd8:	00024400 	andeq	r4, r2, r0, lsl #8
    1fdc:	53000100 	movwpl	r0, #256	; 0x100
	...
    1fe8:	00000260 	andeq	r0, r0, r0, ror #4
    1fec:	000002d0 	ldrdeq	r0, [r0], -r0	; <UNPREDICTABLE>
    1ff0:	00540001 	subseq	r0, r4, r1
    1ff4:	00000000 	andeq	r0, r0, r0
    1ff8:	60000000 	andvs	r0, r0, r0
    1ffc:	74000002 	strvc	r0, [r0], #-2
    2000:	01000002 	tsteq	r0, r2
    2004:	00005800 	andeq	r5, r0, r0, lsl #16
    2008:	00000000 	andeq	r0, r0, r0
    200c:	02640000 	rsbeq	r0, r4, #0
    2010:	02680000 	rsbeq	r0, r8, #0
    2014:	00010000 	andeq	r0, r1, r0
    2018:	00000053 	andeq	r0, r0, r3, asr r0
    201c:	00000000 	andeq	r0, r0, r0
    2020:	00028400 	andeq	r8, r2, r0, lsl #8
    2024:	0002d000 	andeq	sp, r2, r0
    2028:	54000100 	strpl	r0, [r0], #-256	; 0x100
	...
    2034:	00000284 	andeq	r0, r0, r4, lsl #5
    2038:	00000298 	muleq	r0, r8, r2
    203c:	00580001 	subseq	r0, r8, r1
    2040:	00000000 	andeq	r0, r0, r0
    2044:	88000000 	stmdahi	r0, {}	; <UNPREDICTABLE>
    2048:	8c000002 	stchi	0, cr0, [r0], {2}
    204c:	01000002 	tsteq	r0, r2
    2050:	00005300 	andeq	r5, r0, r0, lsl #6
    2054:	00000000 	andeq	r0, r0, r0
    2058:	02a80000 	adceq	r0, r8, #0
    205c:	02d00000 	sbcseq	r0, r0, #0
    2060:	00010000 	andeq	r0, r1, r0
    2064:	00000054 	andeq	r0, r0, r4, asr r0
    2068:	00000000 	andeq	r0, r0, r0
    206c:	0002ac00 	andeq	sl, r2, r0, lsl #24
    2070:	0002b000 	andeq	fp, r2, r0
    2074:	53000100 	movwpl	r0, #256	; 0x100
	...
    2080:	000002c8 	andeq	r0, r0, r8, asr #5
    2084:	0000030c 	andeq	r0, r0, ip, lsl #6
    2088:	9f300002 	svcls	0x00300002
    208c:	00000314 	andeq	r0, r0, r4, lsl r3
    2090:	0000031c 	andeq	r0, r0, ip, lsl r3
    2094:	9f300002 	svcls	0x00300002
	...
    20a0:	000002c8 	andeq	r0, r0, r8, asr #5
    20a4:	0000030c 	andeq	r0, r0, ip, lsl #6
    20a8:	14550001 	ldrbne	r0, [r5], #-1
    20ac:	1c000003 	stcne	0, cr0, [r0], {3}
    20b0:	01000003 	tsteq	r0, r3
    20b4:	00005500 	andeq	r5, r0, r0, lsl #10
    20b8:	00000000 	andeq	r0, r0, r0
    20bc:	02d00000 	sbcseq	r0, r0, #0
    20c0:	030c0000 	movweq	r0, #49152	; 0xc000
    20c4:	00010000 	andeq	r0, r1, r0
    20c8:	00031454 	andeq	r1, r3, r4, asr r4
    20cc:	00031c00 	andeq	r1, r3, r0, lsl #24
    20d0:	54000100 	strpl	r0, [r0], #-256	; 0x100
	...
    20dc:	0000031c 	andeq	r0, r0, ip, lsl r3
    20e0:	0000033b 	andeq	r0, r0, fp, lsr r3
    20e4:	3b500001 	blcc	14020f0 <__bss_end__+0x13f3578>
    20e8:	54000003 	strpl	r0, [r0], #-3
    20ec:	01000003 	tsteq	r0, r3
    20f0:	03545800 	cmpeq	r4, #0, 16
    20f4:	03640000 	cmneq	r4, #0
    20f8:	00010000 	andeq	r0, r1, r0
    20fc:	00036450 	andeq	r6, r3, r0, asr r4
    2100:	0003ac00 	andeq	sl, r3, r0, lsl #24
    2104:	58000100 	stmdapl	r0, {r8}
	...
    2110:	0000031c 	andeq	r0, r0, ip, lsl r3
    2114:	0000033b 	andeq	r0, r0, fp, lsr r3
    2118:	3b510001 	blcc	1442124 <__bss_end__+0x14335ac>
    211c:	54000003 	strpl	r0, [r0], #-3
    2120:	01000003 	tsteq	r0, r3
    2124:	03545600 	cmpeq	r4, #0, 12
    2128:	03640000 	cmneq	r4, #0
    212c:	00010000 	andeq	r0, r1, r0
    2130:	00036451 	andeq	r6, r3, r1, asr r4
    2134:	0003ac00 	andeq	sl, r3, r0, lsl #24
    2138:	56000100 	strpl	r0, [r0], -r0, lsl #2
	...
    2144:	0000031c 	andeq	r0, r0, ip, lsl r3
    2148:	0000033b 	andeq	r0, r0, fp, lsr r3
    214c:	3b520001 	blcc	1482158 <__bss_end__+0x14735e0>
    2150:	54000003 	strpl	r0, [r0], #-3
    2154:	04000003 	streq	r0, [r0], #-3
    2158:	5201f300 	andpl	pc, r1, #0, 6
    215c:	0003549f 	muleq	r3, pc, r4	; <UNPREDICTABLE>
    2160:	00036400 	andeq	r6, r3, r0, lsl #8
    2164:	52000100 	andpl	r0, r0, #0, 2
    2168:	00000364 	andeq	r0, r0, r4, ror #6
    216c:	000003ac 	andeq	r0, r0, ip, lsr #7
    2170:	01770003 	cmneq	r7, r3
    2174:	0000009f 	muleq	r0, pc, r0	; <UNPREDICTABLE>
    2178:	00000000 	andeq	r0, r0, r0
    217c:	00031c00 	andeq	r1, r3, r0, lsl #24
    2180:	00033b00 	andeq	r3, r3, r0, lsl #22
    2184:	53000100 	movwpl	r0, #256	; 0x100
    2188:	0000033b 	andeq	r0, r0, fp, lsr r3
    218c:	00000354 	andeq	r0, r0, r4, asr r3
    2190:	01f30004 	mvnseq	r0, r4
    2194:	03549f53 	cmpeq	r4, #332	; 0x14c
    2198:	03640000 	cmneq	r4, #0
    219c:	00010000 	andeq	r0, r1, r0
    21a0:	00036453 	andeq	r6, r3, r3, asr r4
    21a4:	0003ac00 	andeq	sl, r3, r0, lsl #24
    21a8:	f3000400 	vshl.u8	d0, d0, d0
    21ac:	009f5301 	addseq	r5, pc, r1, lsl #6
    21b0:	00000000 	andeq	r0, r0, r0
    21b4:	5c000000 	stcpl	0, cr0, [r0], {-0}
    21b8:	64000003 	strvs	r0, [r0], #-3
    21bc:	02000003 	andeq	r0, r0, #3
    21c0:	649f3000 	ldrvs	r3, [pc], #0	; 21c8 <_start-0x5e38>
    21c4:	ac000003 	stcge	0, cr0, [r0], {3}
    21c8:	01000003 	tsteq	r0, r3
    21cc:	00005400 	andeq	r5, r0, r0, lsl #8
    21d0:	00000000 	andeq	r0, r0, r0
    21d4:	03740000 	cmneq	r4, #0
    21d8:	03840000 	orreq	r0, r4, #0
    21dc:	00010000 	andeq	r0, r1, r0
    21e0:	00000050 	andeq	r0, r0, r0, asr r0
    21e4:	00000000 	andeq	r0, r0, r0
    21e8:	0003ac00 	andeq	sl, r3, r0, lsl #24
    21ec:	0003c700 	andeq	ip, r3, r0, lsl #14
    21f0:	50000100 	andpl	r0, r0, r0, lsl #2
    21f4:	000003c7 	andeq	r0, r0, r7, asr #7
    21f8:	000003e0 	andeq	r0, r0, r0, ror #7
    21fc:	e0570001 	subs	r0, r7, r1
    2200:	f0000003 			; <UNDEFINED> instruction: 0xf0000003
    2204:	01000003 	tsteq	r0, r3
    2208:	03f05000 	mvnseq	r5, #0
    220c:	04280000 	strteq	r0, [r8], #-0
    2210:	00010000 	andeq	r0, r1, r0
    2214:	00000057 	andeq	r0, r0, r7, asr r0
    2218:	00000000 	andeq	r0, r0, r0
    221c:	0003ac00 	andeq	sl, r3, r0, lsl #24
    2220:	0003c700 	andeq	ip, r3, r0, lsl #14
    2224:	51000100 	mrspl	r0, (UNDEF: 16)
    2228:	000003c7 	andeq	r0, r0, r7, asr #7
    222c:	000003e0 	andeq	r0, r0, r0, ror #7
    2230:	e0550001 	subs	r0, r5, r1
    2234:	f0000003 			; <UNDEFINED> instruction: 0xf0000003
    2238:	01000003 	tsteq	r0, r3
    223c:	03f05100 	mvnseq	r5, #0, 2
    2240:	04280000 	strteq	r0, [r8], #-0
    2244:	00010000 	andeq	r0, r1, r0
    2248:	00000055 	andeq	r0, r0, r5, asr r0
    224c:	00000000 	andeq	r0, r0, r0
    2250:	0003ac00 	andeq	sl, r3, r0, lsl #24
    2254:	0003c700 	andeq	ip, r3, r0, lsl #14
    2258:	52000100 	andpl	r0, r0, #0, 2
    225c:	000003c7 	andeq	r0, r0, r7, asr #7
    2260:	000003e0 	andeq	r0, r0, r0, ror #7
    2264:	01f30004 	mvnseq	r0, r4
    2268:	03e09f52 	mvneq	r9, #328	; 0x148
    226c:	03f00000 	mvnseq	r0, #0
    2270:	00010000 	andeq	r0, r1, r0
    2274:	0003f052 	andeq	pc, r3, r2, asr r0	; <UNPREDICTABLE>
    2278:	00042800 	andeq	r2, r4, r0, lsl #16
    227c:	76000300 	strvc	r0, [r0], -r0, lsl #6
    2280:	00009f01 	andeq	r9, r0, r1, lsl #30
    2284:	00000000 	andeq	r0, r0, r0
    2288:	03ac0000 			; <UNDEFINED> instruction: 0x03ac0000
    228c:	03c70000 	biceq	r0, r7, #0
    2290:	00010000 	andeq	r0, r1, r0
    2294:	0003c753 	andeq	ip, r3, r3, asr r7
    2298:	0003e000 	andeq	lr, r3, r0
    229c:	58000100 	stmdapl	r0, {r8}
    22a0:	000003e0 	andeq	r0, r0, r0, ror #7
    22a4:	000003f0 	strdeq	r0, [r0], -r0	; <UNPREDICTABLE>
    22a8:	f0530001 			; <UNDEFINED> instruction: 0xf0530001
    22ac:	28000003 	stmdacs	r0, {r0, r1}
    22b0:	01000004 	tsteq	r0, r4
    22b4:	00005800 	andeq	r5, r0, r0, lsl #16
    22b8:	00000000 	andeq	r0, r0, r0
    22bc:	03e80000 	mvneq	r0, #0
    22c0:	03f00000 	mvnseq	r0, #0
    22c4:	00020000 	andeq	r0, r2, r0
    22c8:	03f09f30 	mvnseq	r9, #48, 30	; 0xc0
    22cc:	04280000 	strteq	r0, [r8], #-0
    22d0:	00010000 	andeq	r0, r1, r0
    22d4:	00000054 	andeq	r0, r0, r4, asr r0
    22d8:	00000000 	andeq	r0, r0, r0
    22dc:	00042800 	andeq	r2, r4, r0, lsl #16
    22e0:	00044700 	andeq	r4, r4, r0, lsl #14
    22e4:	51000100 	mrspl	r0, (UNDEF: 16)
    22e8:	00000447 	andeq	r0, r0, r7, asr #8
    22ec:	000004e8 	andeq	r0, r0, r8, ror #9
    22f0:	01f30004 	mvnseq	r0, r4
    22f4:	00009f51 	andeq	r9, r0, r1, asr pc
    22f8:	00000000 	andeq	r0, r0, r0
    22fc:	04280000 	strteq	r0, [r8], #-0
    2300:	04470000 	strbeq	r0, [r7], #-0
    2304:	00010000 	andeq	r0, r1, r0
    2308:	00044752 	andeq	r4, r4, r2, asr r7
    230c:	0004e800 	andeq	lr, r4, r0, lsl #16
    2310:	f3000400 	vshl.u8	d0, d0, d0
    2314:	009f5201 	addseq	r5, pc, r1, lsl #4
    2318:	00000000 	andeq	r0, r0, r0
    231c:	28000000 	stmdacs	r0, {}	; <UNPREDICTABLE>
    2320:	47000004 	strmi	r0, [r0, -r4]
    2324:	01000004 	tsteq	r0, r4
    2328:	04475300 	strbeq	r5, [r7], #-768	; 0x300
    232c:	04e80000 	strbteq	r0, [r8], #0
    2330:	00010000 	andeq	r0, r1, r0
    2334:	00000055 	andeq	r0, r0, r5, asr r0
    2338:	00000000 	andeq	r0, r0, r0
    233c:	00046800 	andeq	r6, r4, r0, lsl #16
    2340:	0004a700 	andeq	sl, r4, r0, lsl #14
    2344:	52000100 	andpl	r0, r0, #0, 2
    2348:	000004a7 	andeq	r0, r0, r7, lsr #9
    234c:	000004c0 	andeq	r0, r0, r0, asr #9
    2350:	00750006 	rsbseq	r0, r5, r6
    2354:	9f1e0077 	svcls	0x001e0077
    2358:	000004c0 	andeq	r0, r0, r0, asr #9
    235c:	000004e8 	andeq	r0, r0, r8, ror #9
    2360:	00520001 	subseq	r0, r2, r1
    2364:	00000000 	andeq	r0, r0, r0
    2368:	e8000000 	stmda	r0, {}	; <UNPREDICTABLE>
    236c:	f3000004 	vhadd.u8	d0, d0, d4
    2370:	01000004 	tsteq	r0, r4
    2374:	04f35000 	ldrbteq	r5, [r3], #0
    2378:	05240000 	streq	r0, [r4, #-0]!
    237c:	00040000 	andeq	r0, r4, r0
    2380:	9f5001f3 	svcls	0x005001f3
	...
    238c:	000004f4 	strdeq	r0, [r0], -r4
    2390:	000004ff 	strdeq	r0, [r0], -pc	; <UNPREDICTABLE>
    2394:	00500001 	subseq	r0, r0, r1
    2398:	00000000 	andeq	r0, r0, r0
    239c:	24000000 	strcs	r0, [r0], #-0
    23a0:	34000005 	strcc	r0, [r0], #-5
    23a4:	01000005 	tsteq	r0, r5
    23a8:	05345000 	ldreq	r5, [r4, #-0]!
    23ac:	05500000 	ldrbeq	r0, [r0, #-0]
    23b0:	00010000 	andeq	r0, r1, r0
    23b4:	00000055 	andeq	r0, r0, r5, asr r0
    23b8:	00000000 	andeq	r0, r0, r0
    23bc:	00052400 	andeq	r2, r5, r0, lsl #8
    23c0:	00053400 	andeq	r3, r5, r0, lsl #8
    23c4:	51000100 	mrspl	r0, (UNDEF: 16)
    23c8:	00000534 	andeq	r0, r0, r4, lsr r5
    23cc:	00000550 	andeq	r0, r0, r0, asr r5
    23d0:	00540001 	subseq	r0, r4, r1
    23d4:	00000000 	andeq	r0, r0, r0
    23d8:	50000000 	andpl	r0, r0, r0
    23dc:	6c000005 	stcvs	0, cr0, [r0], {5}
    23e0:	01000005 	tsteq	r0, r5
    23e4:	056c5000 	strbeq	r5, [ip, #-0]!
    23e8:	05bc0000 	ldreq	r0, [ip, #0]!
    23ec:	00010000 	andeq	r0, r1, r0
    23f0:	0005bc55 	andeq	fp, r5, r5, asr ip
    23f4:	0005d400 	andeq	sp, r5, r0, lsl #8
    23f8:	f3000400 	vshl.u8	d0, d0, d0
    23fc:	009f5001 	addseq	r5, pc, r1
    2400:	00000000 	andeq	r0, r0, r0
    2404:	7c000000 	stcvc	0, cr0, [r0], {-0}
    2408:	8b000005 	blhi	2424 <_start-0x5bdc>
    240c:	01000005 	tsteq	r0, r5
    2410:	058b5000 	streq	r5, [fp]
    2414:	05a40000 	streq	r0, [r4, #0]!
    2418:	00010000 	andeq	r0, r1, r0
    241c:	0005a454 	andeq	sl, r5, r4, asr r4
    2420:	0005a800 	andeq	sl, r5, r0, lsl #16
    2424:	50000100 	andpl	r0, r0, r0, lsl #2
    2428:	000005a8 	andeq	r0, r0, r8, lsr #11
    242c:	000005bc 			; <UNDEFINED> instruction: 0x000005bc
    2430:	bc540001 	mrrclt	0, 0, r0, r4, cr1
    2434:	d4000005 	strle	r0, [r0], #-5
    2438:	01000005 	tsteq	r0, r5
    243c:	00005000 	andeq	r5, r0, r0
    2440:	00000000 	andeq	r0, r0, r0
    2444:	05d40000 	ldrbeq	r0, [r4]
    2448:	05e70000 	strbeq	r0, [r7, #0]!
    244c:	00010000 	andeq	r0, r1, r0
    2450:	0005e750 	andeq	lr, r5, r0, asr r7
    2454:	00062000 	andeq	r2, r6, r0
    2458:	f3000400 	vshl.u8	d0, d0, d0
    245c:	009f5001 	addseq	r5, pc, r1
    2460:	00000000 	andeq	r0, r0, r0
    2464:	d4000000 	strle	r0, [r0], #-0
    2468:	e7000005 	str	r0, [r0, -r5]
    246c:	01000005 	tsteq	r0, r5
    2470:	05e75100 	strbeq	r5, [r7, #256]!	; 0x100
    2474:	06200000 	strteq	r0, [r0], -r0
    2478:	00040000 	andeq	r0, r4, r0
    247c:	9f5101f3 	svcls	0x005101f3
	...
    2488:	000005d4 	ldrdeq	r0, [r0], -r4
    248c:	000005e7 	andeq	r0, r0, r7, ror #11
    2490:	e7520001 	ldrb	r0, [r2, -r1]
    2494:	20000005 	andcs	r0, r0, r5
    2498:	04000006 	streq	r0, [r0], #-6
    249c:	5201f300 	andpl	pc, r1, #0, 6
    24a0:	0000009f 	muleq	r0, pc, r0	; <UNPREDICTABLE>
    24a4:	00000000 	andeq	r0, r0, r0
    24a8:	0005d400 	andeq	sp, r5, r0, lsl #8
    24ac:	0005e700 	andeq	lr, r5, r0, lsl #14
    24b0:	53000100 	movwpl	r0, #256	; 0x100
    24b4:	000005e7 	andeq	r0, r0, r7, ror #11
    24b8:	00000620 	andeq	r0, r0, r0, lsr #12
    24bc:	01f30004 	mvnseq	r0, r4
    24c0:	00009f53 	andeq	r9, r0, r3, asr pc
    24c4:	00000000 	andeq	r0, r0, r0
    24c8:	05e80000 	strbeq	r0, [r8, #0]!
    24cc:	05f30000 	ldrbeq	r0, [r3, #0]!
    24d0:	00010000 	andeq	r0, r1, r0
    24d4:	00060c50 	andeq	r0, r6, r0, asr ip
    24d8:	00062000 	andeq	r2, r6, r0
    24dc:	50000100 	andpl	r0, r0, r0, lsl #2
	...
    24e8:	000000fc 	strdeq	r0, [r0], -ip
    24ec:	00000104 	andeq	r0, r0, r4, lsl #2
    24f0:	04500001 	ldrbeq	r0, [r0], #-1
    24f4:	28000001 	stmdacs	r0, {r0}
    24f8:	01000001 	tsteq	r0, r1
    24fc:	00005400 	andeq	r5, r0, r0, lsl #8
    2500:	00000000 	andeq	r0, r0, r0
    2504:	00300000 	eorseq	r0, r0, r0
    2508:	003c0000 	eorseq	r0, ip, r0
    250c:	00020000 	andeq	r0, r2, r0
    2510:	003c9f30 	eorseq	r9, ip, r0, lsr pc
    2514:	00680000 	rsbeq	r0, r8, r0
    2518:	00010000 	andeq	r0, r1, r0
    251c:	00000053 	andeq	r0, r0, r3, asr r0
    2520:	00000000 	andeq	r0, r0, r0
    2524:	00006800 	andeq	r6, r0, r0, lsl #16
    2528:	00007700 	andeq	r7, r0, r0, lsl #14
    252c:	50000100 	andpl	r0, r0, r0, lsl #2
    2530:	00000077 	andeq	r0, r0, r7, ror r0
    2534:	000000ac 	andeq	r0, r0, ip, lsr #1
    2538:	00540001 	subseq	r0, r4, r1
    253c:	00000000 	andeq	r0, r0, r0
    2540:	ac000000 	stcge	0, cr0, [r0], {-0}
    2544:	bb000000 	bllt	254c <_start-0x5ab4>
    2548:	01000000 	mrseq	r0, (UNDEF: 0)
    254c:	00bb5000 	adcseq	r5, fp, r0
    2550:	00f00000 	rscseq	r0, r0, r0
    2554:	00010000 	andeq	r0, r1, r0
    2558:	00000054 	andeq	r0, r0, r4, asr r0
    255c:	00000000 	andeq	r0, r0, r0
    2560:	0000f000 	andeq	pc, r0, r0
    2564:	0000ff00 	andeq	pc, r0, r0, lsl #30
    2568:	50000100 	andpl	r0, r0, r0, lsl #2
    256c:	000000ff 	strdeq	r0, [r0], -pc	; <UNPREDICTABLE>
    2570:	00000134 	andeq	r0, r0, r4, lsr r1
    2574:	00540001 	subseq	r0, r4, r1
    2578:	00000000 	andeq	r0, r0, r0
    257c:	34000000 	strcc	r0, [r0], #-0
    2580:	43000001 	movwmi	r0, #1
    2584:	01000001 	tsteq	r0, r1
    2588:	01435000 	mrseq	r5, (UNDEF: 67)
    258c:	01780000 	cmneq	r8, r0
    2590:	00010000 	andeq	r0, r1, r0
    2594:	00000054 	andeq	r0, r0, r4, asr r0
    2598:	00000000 	andeq	r0, r0, r0
    259c:	00017800 	andeq	r7, r1, r0, lsl #16
    25a0:	00018700 	andeq	r8, r1, r0, lsl #14
    25a4:	50000100 	andpl	r0, r0, r0, lsl #2
    25a8:	00000187 	andeq	r0, r0, r7, lsl #3
    25ac:	000001bc 			; <UNDEFINED> instruction: 0x000001bc
    25b0:	00540001 	subseq	r0, r4, r1
    25b4:	00000000 	andeq	r0, r0, r0
    25b8:	bc000000 	stclt	0, cr0, [r0], {-0}
    25bc:	cb000001 	blgt	25c8 <_start-0x5a38>
    25c0:	01000001 	tsteq	r0, r1
    25c4:	01cb5000 	biceq	r5, fp, r0
    25c8:	02000000 	andeq	r0, r0, #0
    25cc:	00010000 	andeq	r0, r1, r0
    25d0:	00000054 	andeq	r0, r0, r4, asr r0
    25d4:	00000000 	andeq	r0, r0, r0
	...

Disassembly of section .debug_aranges:

00000000 <.debug_aranges>:
   0:	0000001c 	andeq	r0, r0, ip, lsl r0
   4:	00000002 	andeq	r0, r0, r2
   8:	00040000 	andeq	r0, r4, r0
   c:	00000000 	andeq	r0, r0, r0
  10:	00008010 	andeq	r8, r0, r0, lsl r0
  14:	0000090c 	andeq	r0, r0, ip, lsl #18
	...
  20:	0000001c 	andeq	r0, r0, ip, lsl r0
  24:	117a0002 	cmnne	sl, r2
  28:	00040000 	andeq	r0, r4, r0
  2c:	00000000 	andeq	r0, r0, r0
  30:	0000891c 	andeq	r8, r0, ip, lsl r9
  34:	00000020 	andeq	r0, r0, r0, lsr #32
	...
  40:	0000001c 	andeq	r0, r0, ip, lsl r0
  44:	12590002 	subsne	r0, r9, #2
  48:	00040000 	andeq	r0, r4, r0
  4c:	00000000 	andeq	r0, r0, r0
  50:	0000893c 	andeq	r8, r0, ip, lsr r9
  54:	00000058 	andeq	r0, r0, r8, asr r0
	...
  60:	0000001c 	andeq	r0, r0, ip, lsl r0
  64:	13ee0002 	mvnne	r0, #2
  68:	00040000 	andeq	r0, r4, r0
  6c:	00000000 	andeq	r0, r0, r0
  70:	00008994 	muleq	r0, r4, r9
  74:	0000003c 	andeq	r0, r0, ip, lsr r0
	...
  80:	0000001c 	andeq	r0, r0, ip, lsl r0
  84:	15050002 	strne	r0, [r5, #-2]
  88:	00040000 	andeq	r0, r4, r0
  8c:	00000000 	andeq	r0, r0, r0
  90:	000089d0 	ldrdeq	r8, [r0], -r0
  94:	00000034 	andeq	r0, r0, r4, lsr r0
	...
  a0:	0000001c 	andeq	r0, r0, ip, lsl r0
  a4:	15f70002 	ldrbne	r0, [r7, #2]!
  a8:	00040000 	andeq	r0, r4, r0
  ac:	00000000 	andeq	r0, r0, r0
  b0:	00008a04 	andeq	r8, r0, r4, lsl #20
  b4:	000004f8 	strdeq	r0, [r0], -r8
	...
  c0:	0000001c 	andeq	r0, r0, ip, lsl r0
  c4:	1c7c0002 	ldclne	0, cr0, [ip], #-8
  c8:	00040000 	andeq	r0, r4, r0
  cc:	00000000 	andeq	r0, r0, r0
  d0:	00008efc 	strdeq	r8, [r0], -ip
  d4:	00000028 	andeq	r0, r0, r8, lsr #32
	...
  e0:	0000001c 	andeq	r0, r0, ip, lsl r0
  e4:	1d7f0002 	ldclne	0, cr0, [pc, #-8]!	; e4 <_start-0x7f1c>
  e8:	00040000 	andeq	r0, r4, r0
  ec:	00000000 	andeq	r0, r0, r0
  f0:	00008f24 	andeq	r8, r0, r4, lsr #30
  f4:	000000b0 	strheq	r0, [r0], -r0	; <UNPREDICTABLE>
	...
 100:	0000001c 	andeq	r0, r0, ip, lsl r0
 104:	206c0002 	rsbcs	r0, ip, r2
 108:	00040000 	andeq	r0, r4, r0
 10c:	00000000 	andeq	r0, r0, r0
 110:	00008fd4 	ldrdeq	r8, [r0], -r4
 114:	00000074 	andeq	r0, r0, r4, ror r0
	...
 120:	0000001c 	andeq	r0, r0, ip, lsl r0
 124:	221d0002 	andscs	r0, sp, #2
 128:	00040000 	andeq	r0, r4, r0
 12c:	00000000 	andeq	r0, r0, r0
 130:	00009048 	andeq	r9, r0, r8, asr #32
 134:	00000088 	andeq	r0, r0, r8, lsl #1
	...
 140:	0000001c 	andeq	r0, r0, ip, lsl r0
 144:	23f90002 	mvnscs	r0, #2
 148:	00040000 	andeq	r0, r4, r0
 14c:	00000000 	andeq	r0, r0, r0
 150:	000090d0 	ldrdeq	r9, [r0], -r0
 154:	000005bc 			; <UNDEFINED> instruction: 0x000005bc
	...
 160:	0000001c 	andeq	r0, r0, ip, lsl r0
 164:	2ccc0002 	stclcs	0, cr0, [ip], {2}
 168:	00040000 	andeq	r0, r4, r0
 16c:	00000000 	andeq	r0, r0, r0
 170:	0000968c 	andeq	r9, r0, ip, lsl #13
 174:	00000620 	andeq	r0, r0, r0, lsr #12
	...
 180:	0000001c 	andeq	r0, r0, ip, lsl r0
 184:	3e9a0002 	cdpcc	0, 9, cr0, cr10, cr2, {0}
 188:	00040000 	andeq	r0, r4, r0
 18c:	00000000 	andeq	r0, r0, r0
 190:	00009cac 	andeq	r9, r0, ip, lsr #25
 194:	00000154 	andeq	r0, r0, r4, asr r1
	...
 1a0:	0000001c 	andeq	r0, r0, ip, lsl r0
 1a4:	429d0002 	addsmi	r0, sp, #2
 1a8:	00040000 	andeq	r0, r4, r0
 1ac:	00000000 	andeq	r0, r0, r0
 1b0:	00009e00 	andeq	r9, r0, r0, lsl #28
 1b4:	00000200 	andeq	r0, r0, r0, lsl #4
	...
 1c0:	0000001c 	andeq	r0, r0, ip, lsl r0
 1c4:	482e0002 	stmdami	lr!, {r1}
 1c8:	00040000 	andeq	r0, r4, r0
 1cc:	00000000 	andeq	r0, r0, r0
 1d0:	0000a13c 	andeq	sl, r0, ip, lsr r1
 1d4:	00000050 	andeq	r0, r0, r0, asr r0
	...

Disassembly of section .debug_ranges:

00000000 <.debug_ranges>:
   0:	000001b8 			; <UNDEFINED> instruction: 0x000001b8
   4:	000001cc 	andeq	r0, r0, ip, asr #3
   8:	000001d8 	ldrdeq	r0, [r0], -r8
   c:	00000214 	andeq	r0, r0, r4, lsl r2
	...
  18:	000001b8 			; <UNDEFINED> instruction: 0x000001b8
  1c:	000001c4 	andeq	r0, r0, r4, asr #3
  20:	000001d8 	ldrdeq	r0, [r0], -r8
  24:	000001e0 	andeq	r0, r0, r0, ror #3
	...
  30:	00000278 	andeq	r0, r0, r8, ror r2
  34:	0000028c 	andeq	r0, r0, ip, lsl #5
  38:	000002a4 	andeq	r0, r0, r4, lsr #5
  3c:	000002e0 	andeq	r0, r0, r0, ror #5
	...
  48:	00000278 	andeq	r0, r0, r8, ror r2
  4c:	00000284 	andeq	r0, r0, r4, lsl #5
  50:	000002a4 	andeq	r0, r0, r4, lsr #5
  54:	000002ac 	andeq	r0, r0, ip, lsr #5
	...
  60:	000005cc 	andeq	r0, r0, ip, asr #11
  64:	00000614 	andeq	r0, r0, r4, lsl r6
  68:	00000618 	andeq	r0, r0, r8, lsl r6
  6c:	0000061c 	andeq	r0, r0, ip, lsl r6
	...
  78:	00000754 	andeq	r0, r0, r4, asr r7
  7c:	000007a0 	andeq	r0, r0, r0, lsr #15
  80:	000007a4 	andeq	r0, r0, r4, lsr #15
  84:	000007a8 	andeq	r0, r0, r8, lsr #15
	...
  90:	00000294 	muleq	r0, r4, r2
  94:	00000298 	muleq	r0, r8, r2
  98:	000002c8 	andeq	r0, r0, r8, asr #5
  9c:	000004b8 			; <UNDEFINED> instruction: 0x000004b8
	...
  a8:	00008fd4 	ldrdeq	r8, [r0], -r4
  ac:	00009048 	andeq	r9, r0, r8, asr #32
	...

Disassembly of section .debug_line:

00000000 <.debug_line>:
       0:	00000453 	andeq	r0, r0, r3, asr r4
       4:	027a0002 	rsbseq	r0, sl, #2
       8:	01020000 	mrseq	r0, (UNDEF: 2)
       c:	000d0efb 	strdeq	r0, [sp], -fp
      10:	01010101 	tsteq	r1, r1, lsl #2
      14:	01000000 	mrseq	r0, (UNDEF: 0)
      18:	2f010000 	svccs	0x00010000
      1c:	72657355 	rsbvc	r7, r5, #1409286145	; 0x54000001
      20:	72622f73 	rsbvc	r2, r2, #460	; 0x1cc
      24:	6a6e6169 	bvs	1b985d0 <__bss_end__+0x1b89a58>
      28:	442f6e75 	strtmi	r6, [pc], #-3701	; 30 <_start-0x7fd0>
      2c:	746b7365 	strbtvc	r7, [fp], #-869	; 0x365
      30:	732f706f 	teqvc	pc, #111	; 0x6f
      34:	6f6f6863 	svcvs	0x006f6863
      38:	69572f6c 	ldmdbvs	r7, {r2, r3, r5, r6, r8, r9, sl, fp, sp}^
      3c:	7265746e 	rsbvc	r7, r5, #1845493760	; 0x6e000000
      40:	30323931 	eorscc	r3, r2, r1, lsr r9
      44:	3153432f 	cmpcc	r3, pc, lsr #6
      48:	2f453034 	svccs	0x00453034
      4c:	34317363 	ldrtcc	r7, [r1], #-867	; 0x363
      50:	322d6530 	eorcc	r6, sp, #48, 10	; 0xc000000
      54:	6e697730 	mcrvs	7, 3, r7, cr9, cr0, {1}
      58:	62696c2f 	rsbvs	r6, r9, #12032	; 0x2f00
      5c:	6c2f6970 	stcvs	9, cr6, [pc], #-448	; fffffea4 <__bss_end__+0xffff132c>
      60:	00636269 	rsbeq	r6, r3, r9, ror #4
      64:	7273752f 	rsbsvc	r7, r3, #197132288	; 0xbc00000
      68:	636f6c2f 	cmnvs	pc, #12032	; 0x2f00
      6c:	432f6c61 	teqmi	pc, #24832	; 0x6100
      70:	616c6c65 	cmnvs	ip, r5, ror #24
      74:	72612f72 	rsbvc	r2, r1, #456	; 0x1c8
      78:	6f6e2d6d 	svcvs	0x006e2d6d
      7c:	652d656e 	strvs	r6, [sp, #-1390]!	; 0x56e
      80:	2f696261 	svccs	0x00696261
      84:	2e382e34 	mrccs	14, 1, r2, cr8, cr4, {1}
      88:	73632d33 	cmnvc	r3, #3264	; 0xcc0
      8c:	65303731 	ldrvs	r3, [r0, #-1841]!	; 0x731
      90:	62696c2f 	rsbvs	r6, r9, #12032	; 0x2f00
      94:	6363672f 	cmnvs	r3, #12320768	; 0xbc0000
      98:	6d72612f 	ldfvse	f6, [r2, #-188]!	; 0xffffff44
      9c:	6e6f6e2d 	cdpvs	14, 6, cr6, cr15, cr13, {1}
      a0:	61652d65 	cmnvs	r5, r5, ror #26
      a4:	342f6962 	strtcc	r6, [pc], #-2402	; ac <_start-0x7f54>
      a8:	332e382e 	teqcc	lr, #3014656	; 0x2e0000
      ac:	636e692f 	cmnvs	lr, #770048	; 0xbc000
      b0:	6564756c 	strbvs	r7, [r4, #-1388]!	; 0x56c
      b4:	73552f00 	cmpvc	r5, #0, 30
      b8:	2f737265 	svccs	0x00737265
      bc:	61697262 	cmnvs	r9, r2, ror #4
      c0:	6e756a6e 	vsubvs.f32	s13, s10, s29
      c4:	7365442f 	cmnvc	r5, #788529152	; 0x2f000000
      c8:	706f746b 	rsbvc	r7, pc, fp, ror #8
      cc:	6863732f 	stmdavs	r3!, {r0, r1, r2, r3, r5, r8, r9, ip, sp, lr}^
      d0:	2f6c6f6f 	svccs	0x006c6f6f
      d4:	746e6957 	strbtvc	r6, [lr], #-2391	; 0x957
      d8:	39317265 	ldmdbcc	r1!, {r0, r2, r5, r6, r9, ip, sp, lr}
      dc:	432f3032 	teqmi	pc, #50	; 0x32
      e0:	30343153 	eorscc	r3, r4, r3, asr r1
      e4:	73632f45 	cmnvc	r3, #276	; 0x114
      e8:	65303431 	ldrvs	r3, [r0, #-1073]!	; 0x431
      ec:	7730322d 	ldrvc	r3, [r0, -sp, lsr #4]!
      f0:	6c2f6e69 	stcvs	14, cr6, [pc], #-420	; ffffff54 <__bss_end__+0xffff13dc>
      f4:	69706269 	ldmdbvs	r0!, {r0, r3, r5, r6, r9, sp, lr}^
      f8:	3173632f 	cmncc	r3, pc, lsr #6
      fc:	2d653034 	stclcs	0, cr3, [r5, #-208]!	; 0xffffff30
     100:	00637273 	rsbeq	r7, r3, r3, ror r2
     104:	6573552f 	ldrbvs	r5, [r3, #-1327]!	; 0x52f
     108:	622f7372 	eorvs	r7, pc, #-939524095	; 0xc8000001
     10c:	6e616972 	mcrvs	9, 3, r6, cr1, cr2, {3}
     110:	2f6e756a 	svccs	0x006e756a
     114:	6b736544 	blvs	1cd962c <__bss_end__+0x1ccaab4>
     118:	2f706f74 	svccs	0x00706f74
     11c:	6f686373 	svcvs	0x00686373
     120:	572f6c6f 	strpl	r6, [pc, -pc, ror #24]!
     124:	65746e69 	ldrbvs	r6, [r4, #-3689]!	; 0xe69
     128:	32393172 	eorscc	r3, r9, #-2147483620	; 0x8000001c
     12c:	53432f30 	movtpl	r2, #16176	; 0x3f30
     130:	45303431 	ldrmi	r3, [r0, #-1073]!	; 0x431
     134:	3173632f 	cmncc	r3, pc, lsr #6
     138:	2d653034 	stclcs	0, cr3, [r5, #-208]!	; 0xffffff30
     13c:	69773032 	ldmdbvs	r7!, {r1, r4, r5, ip, sp}^
     140:	696c2f6e 	stmdbvs	ip!, {r1, r2, r3, r5, r6, r8, r9, sl, fp, sp}^
     144:	2f697062 	svccs	0x00697062
     148:	34317363 	ldrtcc	r7, [r1], #-867	; 0x363
     14c:	692d6530 	pushvs	{r4, r5, r8, sl, sp, lr}
     150:	7265746e 	rsbvc	r7, r5, #1845493760	; 0x6e000000
     154:	74707572 	ldrbtvc	r7, [r0], #-1394	; 0x572
     158:	73552f00 	cmpvc	r5, #0, 30
     15c:	2f737265 	svccs	0x00737265
     160:	61697262 	cmnvs	r9, r2, ror #4
     164:	6e756a6e 	vsubvs.f32	s13, s10, s29
     168:	7365442f 	cmnvc	r5, #788529152	; 0x2f000000
     16c:	706f746b 	rsbvc	r7, pc, fp, ror #8
     170:	6863732f 	stmdavs	r3!, {r0, r1, r2, r3, r5, r8, r9, ip, sp, lr}^
     174:	2f6c6f6f 	svccs	0x006c6f6f
     178:	746e6957 	strbtvc	r6, [lr], #-2391	; 0x957
     17c:	39317265 	ldmdbcc	r1!, {r0, r2, r5, r6, r9, ip, sp, lr}
     180:	432f3032 	teqmi	pc, #50	; 0x32
     184:	30343153 	eorscc	r3, r4, r3, asr r1
     188:	73632f45 	cmnvc	r3, #276	; 0x114
     18c:	65303431 	ldrvs	r3, [r0, #-1073]!	; 0x431
     190:	7730322d 	ldrvc	r3, [r0, -sp, lsr #4]!
     194:	6c2f6e69 	stcvs	14, cr6, [pc], #-420	; fffffff8 <__bss_end__+0xffff1480>
     198:	69706269 	ldmdbvs	r0!, {r0, r3, r5, r6, r9, sp, lr}^
     19c:	73752f00 	cmnvc	r5, #0, 30
     1a0:	6f6c2f72 	svcvs	0x006c2f72
     1a4:	2f6c6163 	svccs	0x006c6163
     1a8:	6c6c6543 	cfstr64vs	mvdx6, [ip], #-268	; 0xfffffef4
     1ac:	612f7261 	teqvs	pc, r1, ror #4
     1b0:	6e2d6d72 	mcrvs	13, 1, r6, cr13, cr2, {3}
     1b4:	2d656e6f 	stclcs	14, cr6, [r5, #-444]!	; 0xfffffe44
     1b8:	69626165 	stmdbvs	r2!, {r0, r2, r5, r6, r8, sp, lr}^
     1bc:	382e342f 	stmdacc	lr!, {r0, r1, r2, r3, r5, sl, ip, sp}
     1c0:	632d332e 	teqvs	sp, #-1207959552	; 0xb8000000
     1c4:	30373173 	eorscc	r3, r7, r3, ror r1
     1c8:	72612f65 	rsbvc	r2, r1, #404	; 0x194
     1cc:	6f6e2d6d 	svcvs	0x006e2d6d
     1d0:	652d656e 	strvs	r6, [sp, #-1390]!	; 0x56e
     1d4:	2f696261 	svccs	0x00696261
     1d8:	6c636e69 	stclvs	14, cr6, [r3], #-420	; 0xfffffe5c
     1dc:	00656475 	rsbeq	r6, r5, r5, ror r4
     1e0:	72617500 	rsbvc	r7, r1, #0, 10
     1e4:	6e692d74 	mcrvs	13, 3, r2, cr9, cr4, {3}
     1e8:	00632e74 	rsbeq	r2, r3, r4, ror lr
     1ec:	63000000 	movwvs	r0, #0
     1f0:	75637269 	strbvc	r7, [r3, #-617]!	; 0x269
     1f4:	2e72616c 	rpwcssz	f6, f2, #4.0
     1f8:	00010068 	andeq	r0, r1, r8, rrx
     1fc:	64747300 	ldrbtvs	r7, [r4], #-768	; 0x300
     200:	2e666564 	cdpcs	5, 6, cr6, cr6, cr4, {3}
     204:	00020068 	andeq	r0, r2, r8, rrx
     208:	64747300 	ldrbtvs	r7, [r4], #-768	; 0x300
     20c:	2d746e69 	ldclcs	14, cr6, [r4, #-420]!	; 0xfffffe5c
     210:	2e636367 	cdpcs	3, 6, cr6, cr3, cr7, {3}
     214:	00020068 	andeq	r0, r2, r8, rrx
     218:	69706700 	ldmdbvs	r0!, {r8, r9, sl, sp, lr}^
     21c:	00682e6f 	rsbeq	r2, r8, pc, ror #28
     220:	72000003 	andvc	r0, r0, #3
     224:	612d6970 	teqvs	sp, r0, ror r9
     228:	69746d72 	ldmdbvs	r4!, {r1, r4, r5, r6, r8, sl, fp, sp, lr}^
     22c:	2e72656d 	cdpcs	5, 7, cr6, cr2, cr13, {3}
     230:	00040068 	andeq	r0, r4, r8, rrx
     234:	2d777300 	ldclcs	3, cr7, [r7, #-0]
     238:	74726175 	ldrbtvc	r6, [r2], #-373	; 0x175
     23c:	0300682e 	movweq	r6, #2094	; 0x82e
     240:	61750000 	cmnvs	r5, r0
     244:	682e7472 	stmdavs	lr!, {r1, r4, r5, r6, sl, ip, sp, lr}
     248:	00000300 	andeq	r0, r0, r0, lsl #6
     24c:	74726175 	ldrbtvc	r6, [r2], #-373	; 0x175
     250:	746e692d 	strbtvc	r6, [lr], #-2349	; 0x92d
     254:	0400682e 	streq	r6, [r0], #-2094	; 0x82e
     258:	70720000 	rsbsvc	r0, r2, r0
     25c:	00682e69 	rsbeq	r2, r8, r9, ror #28
     260:	72000005 	andvc	r0, r0, #5
     264:	692d6970 	pushvs	{r4, r5, r6, r8, fp, sp, lr}
     268:	7265746e 	rsbvc	r7, r5, #1845493760	; 0x6e000000
     26c:	74707572 	ldrbtvc	r7, [r0], #-1394	; 0x572
     270:	00682e73 	rsbeq	r2, r8, r3, ror lr
     274:	73000004 	movwvc	r0, #4
     278:	6e697274 	mcrvs	2, 3, r7, cr9, cr4, {3}
     27c:	00682e67 	rsbeq	r2, r8, r7, ror #28
     280:	00000006 	andeq	r0, r0, r6
     284:	10020500 	andne	r0, r2, r0, lsl #10
     288:	03000080 	movweq	r0, #128	; 0x80
     28c:	0204013e 	andeq	r0, r4, #-2147483633	; 0x8000000f
     290:	04017a03 	streq	r7, [r1], #-2563	; 0xa03
     294:	31a5a601 			; <UNDEFINED> instruction: 0x31a5a601
     298:	344b8984 	strbcc	r8, [fp], #-2436	; 0x984
     29c:	4b4c4b8a 	blmi	13130cc <__bss_end__+0x1304554>
     2a0:	034a7503 	movteq	r7, #42243	; 0xa503
     2a4:	304e4a09 	subcc	r4, lr, r9, lsl #20
     2a8:	9f344b89 	svcls	0x00344b89
     2ac:	03a0bc4b 	moveq	fp, #19200	; 0x4b00
     2b0:	6931660b 	ldmdbvs	r1!, {r0, r1, r3, r9, sl, sp, lr}
     2b4:	02042f88 	andeq	r2, r4, #136, 30	; 0x220
     2b8:	032e4003 	teqeq	lr, #3
     2bc:	1c032e65 	stcne	14, cr2, [r3], {101}	; 0x65
     2c0:	002f4c82 	eoreq	r4, pc, r2, lsl #25
     2c4:	03010402 	movweq	r0, #5122	; 0x1402
     2c8:	01049e61 	tsteq	r4, r1, ror #28
     2cc:	01040200 	mrseq	r0, R12_usr
     2d0:	d600d903 	strle	sp, [r0], -r3, lsl #18
     2d4:	02040200 	andeq	r0, r4, #0, 4
     2d8:	86064a06 	strhi	r4, [r6], -r6, lsl #20
     2dc:	00020488 	andeq	r0, r2, r8, lsl #9
     2e0:	03010402 	movweq	r0, #5122	; 0x1402
     2e4:	00667f9a 	mlseq	r6, sl, pc, r7	; <UNPREDICTABLE>
     2e8:	03010402 	movweq	r0, #5122	; 0x1402
     2ec:	0200660b 	andeq	r6, r0, #11534336	; 0xb00000
     2f0:	04320104 	ldrteq	r0, [r2], #-260	; 0x104
     2f4:	04020001 	streq	r0, [r2], #-1
     2f8:	00d60301 	sbcseq	r0, r6, r1, lsl #6
     2fc:	0302042e 	movweq	r0, #9262	; 0x242e
     300:	03667f9b 	cmneq	r6, #620	; 0x26c
     304:	2f4c4a0a 	svccs	0x004c4a0a
     308:	04468367 	strbeq	r8, [r6], #-871	; 0x367
     30c:	00da0301 	sbcseq	r0, sl, r1, lsl #6
     310:	0302042e 	movweq	r0, #9262	; 0x242e
     314:	044a7f9b 	strbeq	r7, [sl], #-3995	; 0xf9b
     318:	00eb0301 	rsceq	r0, fp, r1, lsl #6
     31c:	08504b9e 	ldmdaeq	r0, {r1, r2, r3, r4, r7, r8, r9, fp, lr}^
     320:	04522f3f 	ldrbeq	r2, [r2], #-3903	; 0xf3f
     324:	7f820302 	svcvc	0x00820302
     328:	660b032e 	strvs	r0, [fp], -lr, lsr #6
     32c:	03010432 	movweq	r0, #5170	; 0x1432
     330:	2f2e00f4 	svccs	0x002e00f4
     334:	01040200 	mrseq	r0, R12_usr
     338:	03020449 	movweq	r0, #9289	; 0x2449
     33c:	03667efd 	cmneq	r6, #4048	; 0xfd0
     340:	2f4c4a0a 	svccs	0x004c4a0a
     344:	04468367 	strbeq	r8, [r6], #-871	; 0x367
     348:	00f80301 	rscseq	r0, r8, r1, lsl #6
     34c:	ba0b032e 	blt	2c100c <__bss_end__+0x2b2494>
     350:	0204314f 	andeq	r3, r4, #-1073741805	; 0xc0000013
     354:	2e7f8803 	cdpcs	8, 7, cr8, cr15, cr3, {0}
     358:	03666503 	cmneq	r6, #12582912	; 0xc00000
     35c:	674c9e1c 	smlaldvs	r9, ip, ip, lr
     360:	fa030104 	blx	c0778 <__bss_end__+0xb1c00>
     364:	314e9e00 	cmpcc	lr, r0, lsl #28
     368:	0432a530 	ldrteq	sl, [r2], #-1328	; 0x530
     36c:	7ed00302 	cdpvc	3, 13, cr0, cr0, cr2, {0}
     370:	0301042e 	movweq	r0, #5166	; 0x142e
     374:	049e01b7 	ldreq	r0, [lr], #439	; 0x1b7
     378:	7ec90302 	cdpvc	3, 12, cr0, cr9, cr2, {0}
     37c:	820a034a 	andhi	r0, sl, #671088641	; 0x28000001
     380:	044b674c 	strbeq	r6, [fp], #-1868	; 0x74c
     384:	01a60301 			; <UNDEFINED> instruction: 0x01a60301
     388:	a5306e9e 	ldrge	r6, [r0, #-3742]!	; 0xe9e
     38c:	0402004b 	streq	r0, [r2], #-75	; 0x4b
     390:	02002f02 	andeq	r2, r0, #2, 30
     394:	002d0204 	eoreq	r0, sp, r4, lsl #4
     398:	06010402 	streq	r0, [r1], -r2, lsl #8
     39c:	3568062e 	strbcc	r0, [r8, #-1582]!	; 0x62e
     3a0:	6b67332f 	blvs	19cd064 <__bss_end__+0x19be4ec>
     3a4:	6733bc33 			; <UNDEFINED> instruction: 0x6733bc33
     3a8:	83838367 	orrhi	r8, r3, #-1677721599	; 0x9c000001
     3ac:	04688683 	strbteq	r8, [r8], #-1667	; 0x683
     3b0:	7eee0302 	cdpvc	3, 14, cr0, cr14, cr2, {0}
     3b4:	9f679f2e 	svcls	0x00679f2e
     3b8:	7f9b034b 	svcvc	0x009b034b
     3bc:	00e60382 	rsceq	r0, r6, r2, lsl #7
     3c0:	7f9d034a 	svcvc	0x009d034a
     3c4:	e4032008 	str	r2, [r3], #-8
     3c8:	9e03d600 	cfmadd32ls	mvax0, mvfx13, mvfx3, mvfx0
     3cc:	0320087f 	teqeq	r0, #8323072	; 0x7f0000
     3d0:	03ba00e3 			; <UNDEFINED> instruction: 0x03ba00e3
     3d4:	20087f98 	mulcs	r8, r8, pc	; <UNPREDICTABLE>
     3d8:	4c9e0a03 	vldmiami	lr, {s0-s2}
     3dc:	03834b67 	orreq	r4, r3, #105472	; 0x19c00
     3e0:	034a00da 	movteq	r0, #41178	; 0xa0da
     3e4:	032e7fa2 	teqeq	lr, #648	; 0x288
     3e8:	032e00df 	teqeq	lr, #223	; 0xdf
     3ec:	01220277 	teqeq	r2, r7, ror r2
     3f0:	4b9f679f 	blmi	fe7da274 <__bss_end__+0xfe7cb6fc>
     3f4:	827f9b03 	rsbshi	r9, pc, #3072	; 0xc00
     3f8:	4a00e603 	bmi	39c0c <__bss_end__+0x2b094>
     3fc:	087f9d03 	ldmdaeq	pc!, {r0, r1, r8, sl, fp, ip, pc}^	; <UNPREDICTABLE>
     400:	00e40320 	rsceq	r0, r4, r0, lsr #6
     404:	7f9e03d6 	svcvc	0x009e03d6
     408:	e3032008 	movw	r2, #12296	; 0x3008
     40c:	9803ba00 	stmdals	r3, {r9, fp, ip, sp, pc}
     410:	0320087f 	teqeq	r0, #8323072	; 0x7f0000
     414:	674c9e0a 	strbvs	r9, [ip, -sl, lsl #28]
     418:	da038367 	ble	e11bc <__bss_end__+0xd2644>
     41c:	a2034a00 	andge	r4, r3, #0, 20
     420:	df032e7f 	svcle	0x00032e7f
     424:	01042e00 	tsteq	r4, r0, lsl #28
     428:	02019203 	andeq	r9, r1, #805306368	; 0x30000000
     42c:	02840122 	addeq	r0, r4, #-2147483640	; 0x80000008
     430:	2f4b1634 	svccs	0x004b1634
     434:	2e22032f 	cdpcs	3, 2, cr0, cr2, cr15, {1}
     438:	4b4c4cd8 	blmi	13137a0 <__bss_end__+0x1304c28>
     43c:	4b2f672f 	blmi	bda100 <__bss_end__+0xbcb588>
     440:	0402002f 	streq	r0, [r2], #-47	; 0x2f
     444:	2e790301 	cdpcs	3, 7, cr0, cr9, cr1, {0}
     448:	01040200 	mrseq	r0, R12_usr
     44c:	4a0b0365 	bmi	2c11e8 <__bss_end__+0x2b2670>
     450:	0c024b4c 	stceq	11, cr4, [r2], {76}	; 0x4c
     454:	ec010100 	stfs	f0, [r1], {-0}
     458:	02000000 	andeq	r0, r0, #0
     45c:	0000d000 	andeq	sp, r0, r0
     460:	fb010200 	blx	40c6a <__bss_end__+0x320f2>
     464:	01000d0e 	tsteq	r0, lr, lsl #26
     468:	00010101 	andeq	r0, r1, r1, lsl #2
     46c:	00010000 	andeq	r0, r1, r0
     470:	696c0100 	stmdbvs	ip!, {r8}^
     474:	2f006362 	svccs	0x00006362
     478:	2f727375 	svccs	0x00727375
     47c:	61636f6c 	cmnvs	r3, ip, ror #30
     480:	65432f6c 	strbvs	r2, [r3, #-3948]	; 0xf6c
     484:	72616c6c 	rsbvc	r6, r1, #108, 24	; 0x6c00
     488:	6d72612f 	ldfvse	f6, [r2, #-188]!	; 0xffffff44
     48c:	6e6f6e2d 	cdpvs	14, 6, cr6, cr15, cr13, {1}
     490:	61652d65 	cmnvs	r5, r5, ror #26
     494:	342f6962 	strtcc	r6, [pc], #-2402	; 49c <_start-0x7b64>
     498:	332e382e 	teqcc	lr, #3014656	; 0x2e0000
     49c:	3173632d 	cmncc	r3, sp, lsr #6
     4a0:	2f653037 	svccs	0x00653037
     4a4:	2f62696c 	svccs	0x0062696c
     4a8:	2f636367 	svccs	0x00636367
     4ac:	2d6d7261 	sfmcs	f7, 2, [sp, #-388]!	; 0xfffffe7c
     4b0:	656e6f6e 	strbvs	r6, [lr, #-3950]!	; 0xf6e
     4b4:	6261652d 	rsbvs	r6, r1, #188743680	; 0xb400000
     4b8:	2e342f69 	cdpcs	15, 3, cr2, cr4, cr9, {3}
     4bc:	2f332e38 	svccs	0x00332e38
     4c0:	6c636e69 	stclvs	14, cr6, [r3], #-420	; 0xfffffe5c
     4c4:	00656475 	rsbeq	r6, r5, r5, ror r4
     4c8:	7273752f 	rsbsvc	r7, r3, #197132288	; 0xbc00000
     4cc:	636f6c2f 	cmnvs	pc, #12032	; 0x2f00
     4d0:	432f6c61 	teqmi	pc, #24832	; 0x6100
     4d4:	616c6c65 	cmnvs	ip, r5, ror #24
     4d8:	72612f72 	rsbvc	r2, r1, #456	; 0x1c8
     4dc:	6f6e2d6d 	svcvs	0x006e2d6d
     4e0:	652d656e 	strvs	r6, [sp, #-1390]!	; 0x56e
     4e4:	2f696261 	svccs	0x00696261
     4e8:	2e382e34 	mrccs	14, 1, r2, cr8, cr4, {1}
     4ec:	73632d33 	cmnvc	r3, #3264	; 0xcc0
     4f0:	65303731 	ldrvs	r3, [r0, #-1841]!	; 0x731
     4f4:	6d72612f 	ldfvse	f6, [r2, #-188]!	; 0xffffff44
     4f8:	6e6f6e2d 	cdpvs	14, 6, cr6, cr15, cr13, {1}
     4fc:	61652d65 	cmnvs	r5, r5, ror #26
     500:	692f6962 	stmdbvs	pc!, {r1, r5, r6, r8, fp, sp, lr}	; <UNPREDICTABLE>
     504:	756c636e 	strbvc	r6, [ip, #-878]!	; 0x36e
     508:	00006564 	andeq	r6, r0, r4, ror #10
     50c:	736d656d 	cmnvc	sp, #457179136	; 0x1b400000
     510:	632e7465 	teqvs	lr, #1694498816	; 0x65000000
     514:	00000100 	andeq	r0, r0, r0, lsl #2
     518:	64647473 	strbtvs	r7, [r4], #-1139	; 0x473
     51c:	682e6665 	stmdavs	lr!, {r0, r2, r5, r6, r9, sl, sp, lr}
     520:	00000200 	andeq	r0, r0, r0, lsl #4
     524:	69727473 	ldmdbvs	r2!, {r0, r1, r4, r5, r6, sl, ip, sp, lr}^
     528:	682e676e 	stmdavs	lr!, {r1, r2, r3, r5, r6, r8, r9, sl, sp, lr}
     52c:	00000300 	andeq	r0, r0, r0, lsl #6
     530:	02050000 	andeq	r0, r5, #0
     534:	0000891c 	andeq	r8, r0, ip, lsl r9
     538:	2f4c1314 	svccs	0x004c1314
     53c:	01040200 	mrseq	r0, R12_usr
     540:	02024d49 	andeq	r4, r2, #4672	; 0x1240
     544:	02010100 	andeq	r0, r1, #0, 2
     548:	02000001 	andeq	r0, r0, #1
     54c:	0000eb00 	andeq	lr, r0, r0, lsl #22
     550:	fb010200 	blx	40d5a <__bss_end__+0x321e2>
     554:	01000d0e 	tsteq	r0, lr, lsl #26
     558:	00010101 	andeq	r0, r1, r1, lsl #2
     55c:	00010000 	andeq	r0, r1, r0
     560:	696c0100 	stmdbvs	ip!, {r8}^
     564:	2f006362 	svccs	0x00006362
     568:	2f727375 	svccs	0x00727375
     56c:	61636f6c 	cmnvs	r3, ip, ror #30
     570:	65432f6c 	strbvs	r2, [r3, #-3948]	; 0xf6c
     574:	72616c6c 	rsbvc	r6, r1, #108, 24	; 0x6c00
     578:	6d72612f 	ldfvse	f6, [r2, #-188]!	; 0xffffff44
     57c:	6e6f6e2d 	cdpvs	14, 6, cr6, cr15, cr13, {1}
     580:	61652d65 	cmnvs	r5, r5, ror #26
     584:	342f6962 	strtcc	r6, [pc], #-2402	; 58c <_start-0x7a74>
     588:	332e382e 	teqcc	lr, #3014656	; 0x2e0000
     58c:	3173632d 	cmncc	r3, sp, lsr #6
     590:	2f653037 	svccs	0x00653037
     594:	2f62696c 	svccs	0x0062696c
     598:	2f636367 	svccs	0x00636367
     59c:	2d6d7261 	sfmcs	f7, 2, [sp, #-388]!	; 0xfffffe7c
     5a0:	656e6f6e 	strbvs	r6, [lr, #-3950]!	; 0xf6e
     5a4:	6261652d 	rsbvs	r6, r1, #188743680	; 0xb400000
     5a8:	2e342f69 	cdpcs	15, 3, cr2, cr4, cr9, {3}
     5ac:	2f332e38 	svccs	0x00332e38
     5b0:	6c636e69 	stclvs	14, cr6, [r3], #-420	; 0xfffffe5c
     5b4:	00656475 	rsbeq	r6, r5, r5, ror r4
     5b8:	6573552f 	ldrbvs	r5, [r3, #-1327]!	; 0x52f
     5bc:	622f7372 	eorvs	r7, pc, #-939524095	; 0xc8000001
     5c0:	6e616972 	mcrvs	9, 3, r6, cr1, cr2, {3}
     5c4:	2f6e756a 	svccs	0x006e756a
     5c8:	6b736544 	blvs	1cd9ae0 <__bss_end__+0x1ccaf68>
     5cc:	2f706f74 	svccs	0x00706f74
     5d0:	6f686373 	svcvs	0x00686373
     5d4:	572f6c6f 	strpl	r6, [pc, -pc, ror #24]!
     5d8:	65746e69 	ldrbvs	r6, [r4, #-3689]!	; 0xe69
     5dc:	32393172 	eorscc	r3, r9, #-2147483620	; 0x8000001c
     5e0:	53432f30 	movtpl	r2, #16176	; 0x3f30
     5e4:	45303431 	ldrmi	r3, [r0, #-1073]!	; 0x431
     5e8:	3173632f 	cmncc	r3, pc, lsr #6
     5ec:	2d653034 	stclcs	0, cr3, [r5, #-208]!	; 0xffffff30
     5f0:	69773032 	ldmdbvs	r7!, {r1, r4, r5, ip, sp}^
     5f4:	696c2f6e 	stmdbvs	ip!, {r1, r2, r3, r5, r6, r8, r9, sl, fp, sp}^
     5f8:	00697062 	rsbeq	r7, r9, r2, rrx
     5fc:	69727000 	ldmdbvs	r2!, {ip, sp, lr}^
     600:	2e6b746e 	cdpcs	4, 6, cr7, cr11, cr14, {3}
     604:	00010063 	andeq	r0, r1, r3, rrx
     608:	64747300 	ldrbtvs	r7, [r4], #-768	; 0x300
     60c:	2e677261 	cdpcs	2, 6, cr7, cr7, cr1, {3}
     610:	00020068 	andeq	r0, r2, r8, rrx
     614:	75623c00 	strbvc	r3, [r2, #-3072]!	; 0xc00
     618:	2d746c69 	ldclcs	12, cr6, [r4, #-420]!	; 0xfffffe5c
     61c:	003e6e69 	eorseq	r6, lr, r9, ror #28
     620:	72000000 	andvc	r0, r0, #0
     624:	682e6970 	stmdavs	lr!, {r4, r5, r6, r8, fp, sp, lr}
     628:	00000300 	andeq	r0, r0, r0, lsl #6
     62c:	702d6176 	eorvc	r6, sp, r6, ror r1
     630:	746e6972 	strbtvc	r6, [lr], #-2418	; 0x972
     634:	00682e6b 	rsbeq	r2, r8, fp, ror #28
     638:	00000001 	andeq	r0, r0, r1
     63c:	3c020500 	cfstr32cc	mvfx0, [r2], {-0}
     640:	17000089 	strne	r0, [r0, -r9, lsl #1]
     644:	89bf4b6b 	ldmibhi	pc!, {r0, r1, r3, r5, r6, r8, r9, fp, lr}	; <UNPREDICTABLE>
     648:	01000e02 	tsteq	r0, r2, lsl #28
     64c:	00008a01 	andeq	r8, r0, r1, lsl #20
     650:	72000200 	andvc	r0, r0, #0, 4
     654:	02000000 	andeq	r0, r0, #0
     658:	0d0efb01 	vstreq	d15, [lr, #-4]
     65c:	01010100 	mrseq	r0, (UNDEF: 17)
     660:	00000001 	andeq	r0, r0, r1
     664:	01000001 	tsteq	r0, r1
     668:	6362696c 	cmnvs	r2, #108, 18	; 0x1b0000
     66c:	73552f00 	cmpvc	r5, #0, 30
     670:	2f737265 	svccs	0x00737265
     674:	61697262 	cmnvs	r9, r2, ror #4
     678:	6e756a6e 	vsubvs.f32	s13, s10, s29
     67c:	7365442f 	cmnvc	r5, #788529152	; 0x2f000000
     680:	706f746b 	rsbvc	r7, pc, fp, ror #8
     684:	6863732f 	stmdavs	r3!, {r0, r1, r2, r3, r5, r8, r9, ip, sp, lr}^
     688:	2f6c6f6f 	svccs	0x006c6f6f
     68c:	746e6957 	strbtvc	r6, [lr], #-2391	; 0x957
     690:	39317265 	ldmdbcc	r1!, {r0, r2, r5, r6, r9, ip, sp, lr}
     694:	432f3032 	teqmi	pc, #50	; 0x32
     698:	30343153 	eorscc	r3, r4, r3, asr r1
     69c:	73632f45 	cmnvc	r3, #276	; 0x114
     6a0:	65303431 	ldrvs	r3, [r0, #-1073]!	; 0x431
     6a4:	7730322d 	ldrvc	r3, [r0, -sp, lsr #4]!
     6a8:	6c2f6e69 	stcvs	14, cr6, [pc], #-420	; 50c <_start-0x7af4>
     6ac:	69706269 	ldmdbvs	r0!, {r0, r3, r5, r6, r9, sp, lr}^
     6b0:	75700000 	ldrbvc	r0, [r0, #-0]!
     6b4:	61686374 	smcvs	34356	; 0x8634
     6b8:	00632e72 	rsbeq	r2, r3, r2, ror lr
     6bc:	72000001 	andvc	r0, r0, #1
     6c0:	682e6970 	stmdavs	lr!, {r4, r5, r6, r8, fp, sp, lr}
     6c4:	00000200 	andeq	r0, r0, r0, lsl #4
     6c8:	02050000 	andeq	r0, r5, #0
     6cc:	00008994 	muleq	r0, r4, r9
     6d0:	136b4a14 	cmnne	fp, #20, 20	; 0x14000
     6d4:	080213bc 	stmdaeq	r2, {r2, r3, r4, r5, r7, r8, r9, ip}
     6d8:	96010100 	strls	r0, [r1], -r0, lsl #2
     6dc:	02000000 	andeq	r0, r0, #0
     6e0:	00006f00 	andeq	r6, r0, r0, lsl #30
     6e4:	fb010200 	blx	40eee <__bss_end__+0x32376>
     6e8:	01000d0e 	tsteq	r0, lr, lsl #26
     6ec:	00010101 	andeq	r0, r1, r1, lsl #2
     6f0:	00010000 	andeq	r0, r1, r0
     6f4:	696c0100 	stmdbvs	ip!, {r8}^
     6f8:	2f006362 	svccs	0x00006362
     6fc:	72657355 	rsbvc	r7, r5, #1409286145	; 0x54000001
     700:	72622f73 	rsbvc	r2, r2, #460	; 0x1cc
     704:	6a6e6169 	bvs	1b98cb0 <__bss_end__+0x1b8a138>
     708:	442f6e75 	strtmi	r6, [pc], #-3701	; 710 <_start-0x78f0>
     70c:	746b7365 	strbtvc	r7, [fp], #-869	; 0x365
     710:	732f706f 	teqvc	pc, #111	; 0x6f
     714:	6f6f6863 	svcvs	0x006f6863
     718:	69572f6c 	ldmdbvs	r7, {r2, r3, r5, r6, r8, r9, sl, fp, sp}^
     71c:	7265746e 	rsbvc	r7, r5, #1845493760	; 0x6e000000
     720:	30323931 	eorscc	r3, r2, r1, lsr r9
     724:	3153432f 	cmpcc	r3, pc, lsr #6
     728:	2f453034 	svccs	0x00453034
     72c:	34317363 	ldrtcc	r7, [r1], #-867	; 0x363
     730:	322d6530 	eorcc	r6, sp, #48, 10	; 0xc000000
     734:	6e697730 	mcrvs	7, 3, r7, cr9, cr0, {1}
     738:	62696c2f 	rsbvs	r6, r9, #12032	; 0x2f00
     73c:	00006970 	andeq	r6, r0, r0, ror r9
     740:	6b747570 	blvs	1d1dd08 <__bss_end__+0x1d0f190>
     744:	0100632e 	tsteq	r0, lr, lsr #6
     748:	70720000 	rsbsvc	r0, r2, r0
     74c:	00682e69 	rsbeq	r2, r8, r9, ror #28
     750:	00000002 	andeq	r0, r0, r2
     754:	d0020500 	andle	r0, r2, r0, lsl #10
     758:	15000089 	strne	r0, [r0, #-137]	; 0x89
     75c:	02002d4c 	andeq	r2, r0, #76, 26	; 0x1300
     760:	002f0204 	eoreq	r0, pc, r4, lsl #4
     764:	49020402 	stmdbmi	r2, {r1, sl}
     768:	01040200 	mrseq	r0, R12_usr
     76c:	6b062e06 	blvs	18bf8c <__bss_end__+0x17d414>
     770:	01000602 	tsteq	r0, r2, lsl #12
     774:	0001de01 	andeq	sp, r1, r1, lsl #28
     778:	df000200 	svcle	0x00000200
     77c:	02000000 	andeq	r0, r0, #0
     780:	0d0efb01 	vstreq	d15, [lr, #-4]
     784:	01010100 	mrseq	r0, (UNDEF: 17)
     788:	00000001 	andeq	r0, r0, r1
     78c:	01000001 	tsteq	r0, r1
     790:	6362696c 	cmnvs	r2, #108, 18	; 0x1b0000
     794:	73752f00 	cmnvc	r5, #0, 30
     798:	6f6c2f72 	svcvs	0x006c2f72
     79c:	2f6c6163 	svccs	0x006c6163
     7a0:	6c6c6543 	cfstr64vs	mvdx6, [ip], #-268	; 0xfffffef4
     7a4:	612f7261 	teqvs	pc, r1, ror #4
     7a8:	6e2d6d72 	mcrvs	13, 1, r6, cr13, cr2, {3}
     7ac:	2d656e6f 	stclcs	14, cr6, [r5, #-444]!	; 0xfffffe44
     7b0:	69626165 	stmdbvs	r2!, {r0, r2, r5, r6, r8, sp, lr}^
     7b4:	382e342f 	stmdacc	lr!, {r0, r1, r2, r3, r5, sl, ip, sp}
     7b8:	632d332e 	teqvs	sp, #-1207959552	; 0xb8000000
     7bc:	30373173 	eorscc	r3, r7, r3, ror r1
     7c0:	696c2f65 	stmdbvs	ip!, {r0, r2, r5, r6, r8, r9, sl, fp, sp}^
     7c4:	63672f62 	cmnvs	r7, #392	; 0x188
     7c8:	72612f63 	rsbvc	r2, r1, #396	; 0x18c
     7cc:	6f6e2d6d 	svcvs	0x006e2d6d
     7d0:	652d656e 	strvs	r6, [sp, #-1390]!	; 0x56e
     7d4:	2f696261 	svccs	0x00696261
     7d8:	2e382e34 	mrccs	14, 1, r2, cr8, cr4, {1}
     7dc:	6e692f33 	mcrvs	15, 3, r2, cr9, cr3, {1}
     7e0:	64756c63 	ldrbtvs	r6, [r5], #-3171	; 0xc63
     7e4:	552f0065 	strpl	r0, [pc, #-101]!	; 787 <_start-0x7879>
     7e8:	73726573 	cmnvc	r2, #482344960	; 0x1cc00000
     7ec:	6972622f 	ldmdbvs	r2!, {r0, r1, r2, r3, r5, r9, sp, lr}^
     7f0:	756a6e61 	strbvc	r6, [sl, #-3681]!	; 0xe61
     7f4:	65442f6e 	strbvs	r2, [r4, #-3950]	; 0xf6e
     7f8:	6f746b73 	svcvs	0x00746b73
     7fc:	63732f70 	cmnvs	r3, #112, 30	; 0x1c0
     800:	6c6f6f68 	stclvs	15, cr6, [pc], #-416	; 668 <_start-0x7998>
     804:	6e69572f 	cdpvs	7, 6, cr5, cr9, cr15, {1}
     808:	31726574 	cmncc	r2, r4, ror r5
     80c:	2f303239 	svccs	0x00303239
     810:	34315343 	ldrtcc	r5, [r1], #-835	; 0x343
     814:	632f4530 	teqvs	pc, #48, 10	; 0xc000000
     818:	30343173 	eorscc	r3, r4, r3, ror r1
     81c:	30322d65 	eorscc	r2, r2, r5, ror #26
     820:	2f6e6977 	svccs	0x006e6977
     824:	7062696c 	rsbvc	r6, r2, ip, ror #18
     828:	76000069 	strvc	r0, [r0], -r9, rrx
     82c:	72702d61 	rsbsvc	r2, r0, #6208	; 0x1840
     830:	6b746e69 	blvs	1d1c1dc <__bss_end__+0x1d0d664>
     834:	0100632e 	tsteq	r0, lr, lsr #6
     838:	74730000 	ldrbtvc	r0, [r3], #-0
     83c:	67726164 	ldrbvs	r6, [r2, -r4, ror #2]!
     840:	0200682e 	andeq	r6, r0, #3014656	; 0x2e0000
     844:	70720000 	rsbsvc	r0, r2, r0
     848:	00682e69 	rsbeq	r2, r8, r9, ror #28
     84c:	3c000003 	stccc	0, cr0, [r0], {3}
     850:	6c697562 	cfstr64vs	mvdx7, [r9], #-392	; 0xfffffe78
     854:	6e692d74 	mcrvs	13, 3, r2, cr9, cr4, {3}
     858:	0000003e 	andeq	r0, r0, lr, lsr r0
     85c:	05000000 	streq	r0, [r0, #-0]
     860:	008a0402 	addeq	r0, sl, r2, lsl #8
     864:	01260300 	teqeq	r6, r0, lsl #6
     868:	3113a501 	tstcc	r3, r1, lsl #10
     86c:	0402002d 	streq	r0, [r2], #-45	; 0x2d
     870:	02002f02 	andeq	r2, r0, #2, 30
     874:	002d0204 	eoreq	r0, sp, r4, lsl #4
     878:	2f020402 	svccs	0x00020402
     87c:	01040200 	mrseq	r0, R12_usr
     880:	304c4c2d 	subcc	r4, ip, sp, lsr #24
     884:	4f2f4b14 	svcmi	0x002f4b14
     888:	02040200 	andeq	r0, r4, #0, 4
     88c:	04020067 	streq	r0, [r2], #-103	; 0x67
     890:	4d4c6501 	cfstr64mi	mvdx6, [ip, #-4]
     894:	312fa030 	teqcc	pc, r0, lsr r0	; <UNPREDICTABLE>
     898:	16260230 			; <UNDEFINED> instruction: 0x16260230
     89c:	002c2d84 	eoreq	r2, ip, r4, lsl #27
     8a0:	30010402 	andcc	r0, r1, r2, lsl #8
     8a4:	01040200 	mrseq	r0, R12_usr
     8a8:	00660633 	rsbeq	r0, r6, r3, lsr r6
     8ac:	2e010402 	cdpcs	4, 0, cr0, cr1, cr2, {0}
     8b0:	01040200 	mrseq	r0, R12_usr
     8b4:	67210806 	strvs	r0, [r1, -r6, lsl #16]!
     8b8:	8273032f 	rsbshi	r0, r3, #-1140850688	; 0xbc000000
     8bc:	002e1303 	eoreq	r1, lr, r3, lsl #6
     8c0:	06010402 	streq	r0, [r1], -r2, lsl #8
     8c4:	0402002e 	streq	r0, [r2], #-46	; 0x2e
     8c8:	6a9f0601 	bvs	fe7c20d4 <__bss_end__+0xfe7b355c>
     8cc:	2e67034b 	cdpcs	3, 6, cr0, cr7, cr11, {2}
     8d0:	002e2103 	eoreq	r2, lr, r3, lsl #2
     8d4:	06010402 	streq	r0, [r1], -r2, lsl #8
     8d8:	0402002e 	streq	r0, [r2], #-46	; 0x2e
     8dc:	009f0601 	addseq	r0, pc, r1, lsl #12
     8e0:	6a010402 	bvs	418f0 <__bss_end__+0x32d78>
     8e4:	a603f3d9 			; <UNDEFINED> instruction: 0xa603f3d9
     8e8:	2f20087f 	svccs	0x0020087f
     8ec:	01040200 	mrseq	r0, R12_usr
     8f0:	d7064a06 	strle	r4, [r6, -r6, lsl #20]
     8f4:	da032f4b 	ble	cc628 <__bss_end__+0xbdab0>
     8f8:	4c83f200 	sfmmi	f7, 1, [r3], {0}
     8fc:	2e0e0348 	cdpcs	3, 0, cr0, cr14, cr8, {2}
     900:	2f2e7503 	svccs	0x002e7503
     904:	2f4b842f 	svccs	0x004b842f
     908:	30314d2d 	eorscc	r4, r1, sp, lsr #26
     90c:	0200832f 	andeq	r8, r0, #-1140850688	; 0xbc000000
     910:	a22c0104 	eorge	r0, ip, #4, 2
     914:	01040200 	mrseq	r0, R12_usr
     918:	d8064a06 	stmdale	r6, {r1, r2, r9, fp, lr}
     91c:	03163602 	tsteq	r6, #2097152	; 0x200000
     920:	2108d60e 	tstcs	r8, lr, lsl #12
     924:	f331f330 	vcge.u<illegal width 64>	d15, d1, d16
     928:	4b30f330 	blmi	c3d5f0 <__bss_end__+0xc2ea78>
     92c:	0830f330 	ldmdaeq	r0!, {r4, r5, r8, r9, ip, sp, lr, pc}
     930:	002f3123 	eoreq	r3, pc, r3, lsr #2
     934:	65010402 	strvs	r0, [r1, #-1026]	; 0x402
     938:	02040200 	andeq	r0, r4, #0, 4
     93c:	02004a06 	andeq	r4, r0, #24576	; 0x6000
     940:	03060104 	movweq	r0, #24836	; 0x6104
     944:	02006642 	andeq	r6, r0, #69206016	; 0x4200000
     948:	66060204 	strvs	r0, [r6], -r4, lsl #4
     94c:	00c20306 	sbceq	r0, r2, r6, lsl #6
     950:	1002684a 	andne	r6, r2, sl, asr #16
     954:	93010100 	movwls	r0, #4352	; 0x1100
     958:	02000000 	andeq	r0, r0, #0
     95c:	00007d00 	andeq	r7, r0, r0, lsl #26
     960:	fb010200 	blx	4116a <__bss_end__+0x325f2>
     964:	01000d0e 	tsteq	r0, lr, lsl #26
     968:	00010101 	andeq	r0, r1, r1, lsl #2
     96c:	00010000 	andeq	r0, r1, r0
     970:	73630100 	cmnvc	r3, #0, 2
     974:	65303431 	ldrvs	r3, [r0, #-1073]!	; 0x431
     978:	6372732d 	cmnvs	r2, #-1275068416	; 0xb4000000
     97c:	73552f00 	cmpvc	r5, #0, 30
     980:	2f737265 	svccs	0x00737265
     984:	61697262 	cmnvs	r9, r2, ror #4
     988:	6e756a6e 	vsubvs.f32	s13, s10, s29
     98c:	7365442f 	cmnvc	r5, #788529152	; 0x2f000000
     990:	706f746b 	rsbvc	r7, pc, fp, ror #8
     994:	6863732f 	stmdavs	r3!, {r0, r1, r2, r3, r5, r8, r9, ip, sp, lr}^
     998:	2f6c6f6f 	svccs	0x006c6f6f
     99c:	746e6957 	strbtvc	r6, [lr], #-2391	; 0x957
     9a0:	39317265 	ldmdbcc	r1!, {r0, r2, r5, r6, r9, ip, sp, lr}
     9a4:	432f3032 	teqmi	pc, #50	; 0x32
     9a8:	30343153 	eorscc	r3, r4, r3, asr r1
     9ac:	73632f45 	cmnvc	r3, #276	; 0x114
     9b0:	65303431 	ldrvs	r3, [r0, #-1073]!	; 0x431
     9b4:	7730322d 	ldrvc	r3, [r0, -sp, lsr #4]!
     9b8:	6c2f6e69 	stcvs	14, cr6, [pc], #-420	; 81c <_start-0x77e4>
     9bc:	69706269 	ldmdbvs	r0!, {r0, r3, r5, r6, r9, sp, lr}^
     9c0:	6c630000 	stclvs	0, cr0, [r3], #-0
     9c4:	2d6e6165 	stfcse	f6, [lr, #-404]!	; 0xfffffe6c
     9c8:	6f626572 	svcvs	0x00626572
     9cc:	632e746f 	teqvs	lr, #1862270976	; 0x6f000000
     9d0:	00000100 	andeq	r0, r0, r0, lsl #2
     9d4:	2e697072 	mcrcs	0, 3, r7, cr9, cr2, {3}
     9d8:	00020068 	andeq	r0, r2, r8, rrx
     9dc:	05000000 	streq	r0, [r0, #-0]
     9e0:	008efc02 	addeq	pc, lr, r2, lsl #24
     9e4:	832f1500 	teqhi	pc, #0, 10
     9e8:	0006024b 	andeq	r0, r6, fp, asr #4
     9ec:	01210101 	teqeq	r1, r1, lsl #2
     9f0:	00020000 	andeq	r0, r2, r0
     9f4:	000000f8 	strdeq	r0, [r0], -r8
     9f8:	0efb0102 	cdpeq	1, 15, cr0, cr11, cr2, {0}
     9fc:	0101000d 	tsteq	r1, sp
     a00:	00000101 	andeq	r0, r0, r1, lsl #2
     a04:	00000100 	andeq	r0, r0, r0, lsl #2
     a08:	31736301 	cmncc	r3, r1, lsl #6
     a0c:	2d653034 	stclcs	0, cr3, [r5, #-208]!	; 0xffffff30
     a10:	00637273 	rsbeq	r7, r3, r3, ror r2
     a14:	7273752f 	rsbsvc	r7, r3, #197132288	; 0xbc00000
     a18:	636f6c2f 	cmnvs	pc, #12032	; 0x2f00
     a1c:	432f6c61 	teqmi	pc, #24832	; 0x6100
     a20:	616c6c65 	cmnvs	ip, r5, ror #24
     a24:	72612f72 	rsbvc	r2, r1, #456	; 0x1c8
     a28:	6f6e2d6d 	svcvs	0x006e2d6d
     a2c:	652d656e 	strvs	r6, [sp, #-1390]!	; 0x56e
     a30:	2f696261 	svccs	0x00696261
     a34:	2e382e34 	mrccs	14, 1, r2, cr8, cr4, {1}
     a38:	73632d33 	cmnvc	r3, #3264	; 0xcc0
     a3c:	65303731 	ldrvs	r3, [r0, #-1841]!	; 0x731
     a40:	62696c2f 	rsbvs	r6, r9, #12032	; 0x2f00
     a44:	6363672f 	cmnvs	r3, #12320768	; 0xbc0000
     a48:	6d72612f 	ldfvse	f6, [r2, #-188]!	; 0xffffff44
     a4c:	6e6f6e2d 	cdpvs	14, 6, cr6, cr15, cr13, {1}
     a50:	61652d65 	cmnvs	r5, r5, ror #26
     a54:	342f6962 	strtcc	r6, [pc], #-2402	; a5c <_start-0x75a4>
     a58:	332e382e 	teqcc	lr, #3014656	; 0x2e0000
     a5c:	636e692f 	cmnvs	lr, #770048	; 0xbc000
     a60:	6564756c 	strbvs	r7, [r4, #-1388]!	; 0x56c
     a64:	73552f00 	cmpvc	r5, #0, 30
     a68:	2f737265 	svccs	0x00737265
     a6c:	61697262 	cmnvs	r9, r2, ror #4
     a70:	6e756a6e 	vsubvs.f32	s13, s10, s29
     a74:	7365442f 	cmnvc	r5, #788529152	; 0x2f000000
     a78:	706f746b 	rsbvc	r7, pc, fp, ror #8
     a7c:	6863732f 	stmdavs	r3!, {r0, r1, r2, r3, r5, r8, r9, ip, sp, lr}^
     a80:	2f6c6f6f 	svccs	0x006c6f6f
     a84:	746e6957 	strbtvc	r6, [lr], #-2391	; 0x957
     a88:	39317265 	ldmdbcc	r1!, {r0, r2, r5, r6, r9, ip, sp, lr}
     a8c:	432f3032 	teqmi	pc, #50	; 0x32
     a90:	30343153 	eorscc	r3, r4, r3, asr r1
     a94:	73632f45 	cmnvc	r3, #276	; 0x114
     a98:	65303431 	ldrvs	r3, [r0, #-1073]!	; 0x431
     a9c:	7730322d 	ldrvc	r3, [r0, -sp, lsr #4]!
     aa0:	6c2f6e69 	stcvs	14, cr6, [pc], #-420	; 904 <_start-0x76fc>
     aa4:	69706269 	ldmdbvs	r0!, {r0, r3, r5, r6, r9, sp, lr}^
     aa8:	73630000 	cmnvc	r3, #0
     aac:	74726174 	ldrbtvc	r6, [r2], #-372	; 0x174
     ab0:	0100632e 	tsteq	r0, lr, lsr #6
     ab4:	74730000 	ldrbtvc	r0, [r3], #-0
     ab8:	746e6964 	strbtvc	r6, [lr], #-2404	; 0x964
     abc:	6363672d 	cmnvs	r3, #11796480	; 0xb40000
     ac0:	0200682e 	andeq	r6, r0, #3014656	; 0x2e0000
     ac4:	77730000 	ldrbvc	r0, [r3, -r0]!
     ac8:	7261752d 	rsbvc	r7, r1, #188743680	; 0xb400000
     acc:	00682e74 	rsbeq	r2, r8, r4, ror lr
     ad0:	63000001 	movwvs	r0, #1
     ad4:	72746e6f 	rsbsvc	r6, r4, #1776	; 0x6f0
     ad8:	622d6c6f 	eorvs	r6, sp, #28416	; 0x6f00
     adc:	6b636f6c 	blvs	18dc894 <__bss_end__+0x18cdd1c>
     ae0:	0100682e 	tsteq	r0, lr, lsr #16
     ae4:	70720000 	rsbsvc	r0, r2, r0
     ae8:	00682e69 	rsbeq	r2, r8, r9, ror #28
     aec:	00000003 	andeq	r0, r0, r3
     af0:	24020500 	strcs	r0, [r2], #-1280	; 0x500
     af4:	1700008f 	strne	r0, [r0, -pc, lsl #1]
     af8:	3268684b 	rsbcc	r6, r8, #4915200	; 0x4b0000
     afc:	2f2d2f31 	svccs	0x002d2f31
     b00:	01040200 	mrseq	r0, R12_usr
     b04:	4b2f4f49 	blmi	bd4830 <__bss_end__+0xbc5cb8>
     b08:	67836767 	strvs	r6, [r3, r7, ror #14]
     b0c:	10022f4e 	andne	r2, r2, lr, asr #30
     b10:	99010100 	stmdbls	r1, {r8}
     b14:	02000000 	andeq	r0, r0, #0
     b18:	00007700 	andeq	r7, r0, r0, lsl #14
     b1c:	fb010200 	blx	41326 <__bss_end__+0x327ae>
     b20:	01000d0e 	tsteq	r0, lr, lsl #26
     b24:	00010101 	andeq	r0, r1, r1, lsl #2
     b28:	00010000 	andeq	r0, r1, r0
     b2c:	73630100 	cmnvc	r3, #0, 2
     b30:	65303431 	ldrvs	r3, [r0, #-1073]!	; 0x431
     b34:	6372732d 	cmnvs	r2, #-1275068416	; 0xb4000000
     b38:	73552f00 	cmpvc	r5, #0, 30
     b3c:	2f737265 	svccs	0x00737265
     b40:	61697262 	cmnvs	r9, r2, ror #4
     b44:	6e756a6e 	vsubvs.f32	s13, s10, s29
     b48:	7365442f 	cmnvc	r5, #788529152	; 0x2f000000
     b4c:	706f746b 	rsbvc	r7, pc, fp, ror #8
     b50:	6863732f 	stmdavs	r3!, {r0, r1, r2, r3, r5, r8, r9, ip, sp, lr}^
     b54:	2f6c6f6f 	svccs	0x006c6f6f
     b58:	746e6957 	strbtvc	r6, [lr], #-2391	; 0x957
     b5c:	39317265 	ldmdbcc	r1!, {r0, r2, r5, r6, r9, ip, sp, lr}
     b60:	432f3032 	teqmi	pc, #50	; 0x32
     b64:	30343153 	eorscc	r3, r4, r3, asr r1
     b68:	73632f45 	cmnvc	r3, #276	; 0x114
     b6c:	65303431 	ldrvs	r3, [r0, #-1073]!	; 0x431
     b70:	7730322d 	ldrvc	r3, [r0, -sp, lsr #4]!
     b74:	6c2f6e69 	stcvs	14, cr6, [pc], #-420	; 9d8 <_start-0x7628>
     b78:	69706269 	ldmdbvs	r0!, {r0, r3, r5, r6, r9, sp, lr}^
     b7c:	65720000 	ldrbvs	r0, [r2, #-0]!
     b80:	746f6f62 	strbtvc	r6, [pc], #-3938	; b88 <_start-0x7478>
     b84:	0100632e 	tsteq	r0, lr, lsr #6
     b88:	70720000 	rsbsvc	r0, r2, r0
     b8c:	00682e69 	rsbeq	r2, r8, r9, ror #28
     b90:	00000002 	andeq	r0, r0, r2
     b94:	d4020500 	strle	r0, [r2], #-1280	; 0x500
     b98:	0300008f 	movweq	r0, #143	; 0x8f
     b9c:	3114010d 	tstcc	r4, sp, lsl #2
     ba0:	2f15852f 	svccs	0x0015852f
     ba4:	672f4d4b 	strvs	r4, [pc, -fp, asr #26]!
     ba8:	02675235 	rsbeq	r5, r7, #1342177283	; 0x50000003
     bac:	01010010 	tsteq	r1, r0, lsl r0
     bb0:	000000a3 	andeq	r0, r0, r3, lsr #1
     bb4:	00760002 	rsbseq	r0, r6, r2
     bb8:	01020000 	mrseq	r0, (UNDEF: 2)
     bbc:	000d0efb 	strdeq	r0, [sp], -fp
     bc0:	01010101 	tsteq	r1, r1, lsl #2
     bc4:	01000000 	mrseq	r0, (UNDEF: 0)
     bc8:	63010000 	movwvs	r0, #4096	; 0x1000
     bcc:	30343173 	eorscc	r3, r4, r3, ror r1
     bd0:	72732d65 	rsbsvc	r2, r3, #6464	; 0x1940
     bd4:	552f0063 	strpl	r0, [pc, #-99]!	; b79 <_start-0x7487>
     bd8:	73726573 	cmnvc	r2, #482344960	; 0x1cc00000
     bdc:	6972622f 	ldmdbvs	r2!, {r0, r1, r2, r3, r5, r9, sp, lr}^
     be0:	756a6e61 	strbvc	r6, [sl, #-3681]!	; 0xe61
     be4:	65442f6e 	strbvs	r2, [r4, #-3950]	; 0xf6e
     be8:	6f746b73 	svcvs	0x00746b73
     bec:	63732f70 	cmnvs	r3, #112, 30	; 0x1c0
     bf0:	6c6f6f68 	stclvs	15, cr6, [pc], #-416	; a58 <_start-0x75a8>
     bf4:	6e69572f 	cdpvs	7, 6, cr5, cr9, cr15, {1}
     bf8:	31726574 	cmncc	r2, r4, ror r5
     bfc:	2f303239 	svccs	0x00303239
     c00:	34315343 	ldrtcc	r5, [r1], #-835	; 0x343
     c04:	632f4530 	teqvs	pc, #48, 10	; 0xc000000
     c08:	30343173 	eorscc	r3, r4, r3, ror r1
     c0c:	30322d65 	eorscc	r2, r2, r5, ror #26
     c10:	2f6e6977 	svccs	0x006e6977
     c14:	7062696c 	rsbvc	r6, r2, ip, ror #18
     c18:	74000069 	strvc	r0, [r0], #-105	; 0x69
     c1c:	72656d69 	rsbvc	r6, r5, #6720	; 0x1a40
     c20:	0100632e 	tsteq	r0, lr, lsr #6
     c24:	70720000 	rsbsvc	r0, r2, r0
     c28:	00682e69 	rsbeq	r2, r8, r9, ror #28
     c2c:	00000002 	andeq	r0, r0, r2
     c30:	48020500 	stmdami	r2, {r8, sl}
     c34:	16000090 			; <UNDEFINED> instruction: 0x16000090
     c38:	002d2f13 	eoreq	r2, sp, r3, lsl pc
     c3c:	06010402 	streq	r0, [r1], -r2, lsl #8
     c40:	3168062e 	cmncc	r8, lr, lsr #12
     c44:	324d4b2f 	subcc	r4, sp, #48128	; 0xbc00
     c48:	4c4b3031 	mcrrmi	0, 3, r3, fp, cr1
     c4c:	2f2f6a2f 	svccs	0x002f6a2f
     c50:	08022f84 	stmdaeq	r2, {r2, r7, r8, r9, sl, fp, sp}
     c54:	88010100 	stmdahi	r1, {r8}
     c58:	02000001 	andeq	r0, r0, #1
     c5c:	0000ca00 	andeq	ip, r0, r0, lsl #20
     c60:	fb010200 	blx	4146a <__bss_end__+0x328f2>
     c64:	01000d0e 	tsteq	r0, lr, lsl #26
     c68:	00010101 	andeq	r0, r1, r1, lsl #2
     c6c:	00010000 	andeq	r0, r1, r0
     c70:	796d0100 	stmdbvc	sp!, {r8}^
     c74:	6372732d 	cmnvs	r2, #-1275068416	; 0xb4000000
     c78:	73552f00 	cmpvc	r5, #0, 30
     c7c:	2f737265 	svccs	0x00737265
     c80:	61697262 	cmnvs	r9, r2, ror #4
     c84:	6e756a6e 	vsubvs.f32	s13, s10, s29
     c88:	7365442f 	cmnvc	r5, #788529152	; 0x2f000000
     c8c:	706f746b 	rsbvc	r7, pc, fp, ror #8
     c90:	6863732f 	stmdavs	r3!, {r0, r1, r2, r3, r5, r8, r9, ip, sp, lr}^
     c94:	2f6c6f6f 	svccs	0x006c6f6f
     c98:	746e6957 	strbtvc	r6, [lr], #-2391	; 0x957
     c9c:	39317265 	ldmdbcc	r1!, {r0, r2, r5, r6, r9, ip, sp, lr}
     ca0:	432f3032 	teqmi	pc, #50	; 0x32
     ca4:	30343153 	eorscc	r3, r4, r3, asr r1
     ca8:	73632f45 	cmnvc	r3, #276	; 0x114
     cac:	65303431 	ldrvs	r3, [r0, #-1073]!	; 0x431
     cb0:	7730322d 	ldrvc	r3, [r0, -sp, lsr #4]!
     cb4:	6c2f6e69 	stcvs	14, cr6, [pc], #-420	; b18 <_start-0x74e8>
     cb8:	69706269 	ldmdbvs	r0!, {r0, r3, r5, r6, r9, sp, lr}^
     cbc:	3173632f 	cmncc	r3, pc, lsr #6
     cc0:	2d653034 	stclcs	0, cr3, [r5, #-208]!	; 0xffffff30
     cc4:	00637273 	rsbeq	r7, r3, r3, ror r2
     cc8:	6573552f 	ldrbvs	r5, [r3, #-1327]!	; 0x52f
     ccc:	622f7372 	eorvs	r7, pc, #-939524095	; 0xc8000001
     cd0:	6e616972 	mcrvs	9, 3, r6, cr1, cr2, {3}
     cd4:	2f6e756a 	svccs	0x006e756a
     cd8:	6b736544 	blvs	1cda1f0 <__bss_end__+0x1ccb678>
     cdc:	2f706f74 	svccs	0x00706f74
     ce0:	6f686373 	svcvs	0x00686373
     ce4:	572f6c6f 	strpl	r6, [pc, -pc, ror #24]!
     ce8:	65746e69 	ldrbvs	r6, [r4, #-3689]!	; 0xe69
     cec:	32393172 	eorscc	r3, r9, #-2147483620	; 0x8000001c
     cf0:	53432f30 	movtpl	r2, #16176	; 0x3f30
     cf4:	45303431 	ldrmi	r3, [r0, #-1073]!	; 0x431
     cf8:	3173632f 	cmncc	r3, pc, lsr #6
     cfc:	2d653034 	stclcs	0, cr3, [r5, #-208]!	; 0xffffff30
     d00:	69773032 	ldmdbvs	r7!, {r1, r4, r5, ip, sp}^
     d04:	696c2f6e 	stmdbvs	ip!, {r1, r2, r3, r5, r6, r8, r9, sl, fp, sp}^
     d08:	00697062 	rsbeq	r7, r9, r2, rrx
     d0c:	69706700 	ldmdbvs	r0!, {r8, r9, sl, sp, lr}^
     d10:	00632e6f 	rsbeq	r2, r3, pc, ror #28
     d14:	67000001 	strvs	r0, [r0, -r1]
     d18:	2e6f6970 	mcrcs	9, 3, r6, cr15, cr0, {3}
     d1c:	00020068 	andeq	r0, r2, r8, rrx
     d20:	69707200 	ldmdbvs	r0!, {r9, ip, sp, lr}^
     d24:	0300682e 	movweq	r6, #2094	; 0x82e
     d28:	00000000 	andeq	r0, r0, r0
     d2c:	90d00205 	sbcsls	r0, r0, r5, lsl #4
     d30:	3e030000 	cdpcc	0, 0, cr0, cr3, cr0, {0}
     d34:	69504e01 	ldmdbvs	r0, {r0, r9, sl, fp, lr}^
     d38:	67672108 	strbvs	r2, [r7, -r8, lsl #2]!
     d3c:	67676767 	strbvs	r6, [r7, -r7, ror #14]!
     d40:	22084b32 	andcs	r4, r8, #51200	; 0xc800
     d44:	135131dc 	cmpne	r1, #220, 2	; 0x37
     d48:	be30504e 	cdplt	0, 3, cr5, cr0, cr14, {2}
     d4c:	4d135031 	ldcmi	0, cr5, [r3, #-196]	; 0xffffff3c
     d50:	4cc0304f 	stclmi	0, cr3, [r0], {79}	; 0x4f
     d54:	21086950 	tstcs	r8, r0, asr r9
     d58:	67676767 	strbvs	r6, [r7, -r7, ror #14]!
     d5c:	4b326767 	blmi	c9ab00 <__bss_end__+0xc8bf88>
     d60:	4ca42108 	stfmis	f2, [r4], #32
     d64:	69842f50 	stmibvs	r4, {r4, r6, r8, r9, sl, fp, sp}
     d68:	03827503 	orreq	r7, r2, #12582912	; 0xc00000
     d6c:	304d2e0c 	subcc	r2, sp, ip, lsl #28
     d70:	7f98034e 	svcvc	0x0098034e
     d74:	4e13514a 	mufmism	f5, f3, #2.0
     d78:	50a53050 	adcpl	r3, r5, r0, asr r0
     d7c:	304f4d13 	subcc	r4, pc, r3, lsl sp	; <UNPREDICTABLE>
     d80:	ba00c203 	blt	31594 <__bss_end__+0x22a1c>
     d84:	08696b6a 	stmdaeq	r9!, {r1, r3, r5, r6, r8, r9, fp, sp, lr}^
     d88:	67676721 	strbvs	r6, [r7, -r1, lsr #14]!
     d8c:	32676767 	rsbcc	r6, r7, #27000832	; 0x19c0000
     d90:	0322084b 	teqeq	r2, #4915200	; 0x4b0000
     d94:	9f31ba1a 	svcls	0x0031ba1a
     d98:	4d522f4c 	ldclmi	15, cr2, [r2, #-304]	; 0xfffffed0
     d9c:	674b2f4e 	strbvs	r2, [fp, -lr, asr #30]
     da0:	6767684b 	strbvs	r6, [r7, -fp, asr #16]!
     da4:	2f672f4c 	svccs	0x00672f4c
     da8:	4e4c6e4b 	cdpmi	14, 4, cr6, cr12, cr11, {2}
     dac:	4b674b2f 	blmi	19d3a70 <__bss_end__+0x19c4ef8>
     db0:	4c676768 	stclmi	7, cr6, [r7], #-416	; 0xfffffe60
     db4:	4b2f672f 	blmi	bdaa78 <__bss_end__+0xbcbf00>
     db8:	2f4e4b6d 	svccs	0x004e4b6d
     dbc:	0200674b 	andeq	r6, r0, #19660800	; 0x12c0000
     dc0:	66060104 	strvs	r0, [r6], -r4, lsl #2
     dc4:	2f9f6806 	svccs	0x009f6806
     dc8:	01040200 	mrseq	r0, R12_usr
     dcc:	68064a06 	stmdavs	r6, {r1, r2, r9, fp, lr}
     dd0:	4a73032f 	bmi	1cc1a94 <__bss_end__+0x1cb2f1c>
     dd4:	4d2e0e03 	stcmi	14, cr0, [lr, #-12]!
     dd8:	4b2f4e4c 	blmi	bd4710 <__bss_end__+0xbc5b98>
     ddc:	0602bcbc 			; <UNDEFINED> instruction: 0x0602bcbc
     de0:	45010100 	strmi	r0, [r1, #-256]	; 0x100
     de4:	02000003 	andeq	r0, r0, #3
     de8:	0001bd00 	andeq	fp, r1, r0, lsl #26
     dec:	fb010200 	blx	415f6 <__bss_end__+0x32a7e>
     df0:	01000d0e 	tsteq	r0, lr, lsl #26
     df4:	00010101 	andeq	r0, r1, r1, lsl #2
     df8:	00010000 	andeq	r0, r1, r0
     dfc:	796d0100 	stmdbvc	sp!, {r8}^
     e00:	6372732d 	cmnvs	r2, #-1275068416	; 0xb4000000
     e04:	73552f00 	cmpvc	r5, #0, 30
     e08:	2f737265 	svccs	0x00737265
     e0c:	61697262 	cmnvs	r9, r2, ror #4
     e10:	6e756a6e 	vsubvs.f32	s13, s10, s29
     e14:	7365442f 	cmnvc	r5, #788529152	; 0x2f000000
     e18:	706f746b 	rsbvc	r7, pc, fp, ror #8
     e1c:	6863732f 	stmdavs	r3!, {r0, r1, r2, r3, r5, r8, r9, ip, sp, lr}^
     e20:	2f6c6f6f 	svccs	0x006c6f6f
     e24:	746e6957 	strbtvc	r6, [lr], #-2391	; 0x957
     e28:	39317265 	ldmdbcc	r1!, {r0, r2, r5, r6, r9, ip, sp, lr}
     e2c:	432f3032 	teqmi	pc, #50	; 0x32
     e30:	30343153 	eorscc	r3, r4, r3, asr r1
     e34:	73632f45 	cmnvc	r3, #276	; 0x114
     e38:	65303431 	ldrvs	r3, [r0, #-1073]!	; 0x431
     e3c:	7730322d 	ldrvc	r3, [r0, -sp, lsr #4]!
     e40:	6c2f6e69 	stcvs	14, cr6, [pc], #-420	; ca4 <_start-0x735c>
     e44:	69706269 	ldmdbvs	r0!, {r0, r3, r5, r6, r9, sp, lr}^
     e48:	3173632f 	cmncc	r3, pc, lsr #6
     e4c:	2d653034 	stclcs	0, cr3, [r5, #-208]!	; 0xffffff30
     e50:	00637273 	rsbeq	r7, r3, r3, ror r2
     e54:	7273752f 	rsbsvc	r7, r3, #197132288	; 0xbc00000
     e58:	636f6c2f 	cmnvs	pc, #12032	; 0x2f00
     e5c:	432f6c61 	teqmi	pc, #24832	; 0x6100
     e60:	616c6c65 	cmnvs	ip, r5, ror #24
     e64:	72612f72 	rsbvc	r2, r1, #456	; 0x1c8
     e68:	6f6e2d6d 	svcvs	0x006e2d6d
     e6c:	652d656e 	strvs	r6, [sp, #-1390]!	; 0x56e
     e70:	2f696261 	svccs	0x00696261
     e74:	2e382e34 	mrccs	14, 1, r2, cr8, cr4, {1}
     e78:	73632d33 	cmnvc	r3, #3264	; 0xcc0
     e7c:	65303731 	ldrvs	r3, [r0, #-1841]!	; 0x731
     e80:	62696c2f 	rsbvs	r6, r9, #12032	; 0x2f00
     e84:	6363672f 	cmnvs	r3, #12320768	; 0xbc0000
     e88:	6d72612f 	ldfvse	f6, [r2, #-188]!	; 0xffffff44
     e8c:	6e6f6e2d 	cdpvs	14, 6, cr6, cr15, cr13, {1}
     e90:	61652d65 	cmnvs	r5, r5, ror #26
     e94:	342f6962 	strtcc	r6, [pc], #-2402	; e9c <_start-0x7164>
     e98:	332e382e 	teqcc	lr, #3014656	; 0x2e0000
     e9c:	636e692f 	cmnvs	lr, #770048	; 0xbc000
     ea0:	6564756c 	strbvs	r7, [r4, #-1388]!	; 0x56c
     ea4:	73552f00 	cmpvc	r5, #0, 30
     ea8:	2f737265 	svccs	0x00737265
     eac:	61697262 	cmnvs	r9, r2, ror #4
     eb0:	6e756a6e 	vsubvs.f32	s13, s10, s29
     eb4:	7365442f 	cmnvc	r5, #788529152	; 0x2f000000
     eb8:	706f746b 	rsbvc	r7, pc, fp, ror #8
     ebc:	6863732f 	stmdavs	r3!, {r0, r1, r2, r3, r5, r8, r9, ip, sp, lr}^
     ec0:	2f6c6f6f 	svccs	0x006c6f6f
     ec4:	746e6957 	strbtvc	r6, [lr], #-2391	; 0x957
     ec8:	39317265 	ldmdbcc	r1!, {r0, r2, r5, r6, r9, ip, sp, lr}
     ecc:	432f3032 	teqmi	pc, #50	; 0x32
     ed0:	30343153 	eorscc	r3, r4, r3, asr r1
     ed4:	73632f45 	cmnvc	r3, #276	; 0x114
     ed8:	65303431 	ldrvs	r3, [r0, #-1073]!	; 0x431
     edc:	7730322d 	ldrvc	r3, [r0, -sp, lsr #4]!
     ee0:	6c2f6e69 	stcvs	14, cr6, [pc], #-420	; d44 <_start-0x72bc>
     ee4:	69706269 	ldmdbvs	r0!, {r0, r3, r5, r6, r9, sp, lr}^
     ee8:	73552f00 	cmpvc	r5, #0, 30
     eec:	2f737265 	svccs	0x00737265
     ef0:	61697262 	cmnvs	r9, r2, ror #4
     ef4:	6e756a6e 	vsubvs.f32	s13, s10, s29
     ef8:	7365442f 	cmnvc	r5, #788529152	; 0x2f000000
     efc:	706f746b 	rsbvc	r7, pc, fp, ror #8
     f00:	6863732f 	stmdavs	r3!, {r0, r1, r2, r3, r5, r8, r9, ip, sp, lr}^
     f04:	2f6c6f6f 	svccs	0x006c6f6f
     f08:	746e6957 	strbtvc	r6, [lr], #-2391	; 0x957
     f0c:	39317265 	ldmdbcc	r1!, {r0, r2, r5, r6, r9, ip, sp, lr}
     f10:	432f3032 	teqmi	pc, #50	; 0x32
     f14:	30343153 	eorscc	r3, r4, r3, asr r1
     f18:	73632f45 	cmnvc	r3, #276	; 0x114
     f1c:	65303431 	ldrvs	r3, [r0, #-1073]!	; 0x431
     f20:	7730322d 	ldrvc	r3, [r0, -sp, lsr #4]!
     f24:	6c2f6e69 	stcvs	14, cr6, [pc], #-420	; d88 <_start-0x7278>
     f28:	69706269 	ldmdbvs	r0!, {r0, r3, r5, r6, r9, sp, lr}^
     f2c:	62696c2f 	rsbvs	r6, r9, #12032	; 0x2f00
     f30:	73000063 	movwvc	r0, #99	; 0x63
     f34:	61752d77 	cmnvs	r5, r7, ror sp
     f38:	632e7472 	teqvs	lr, #1912602624	; 0x72000000
     f3c:	00000100 	andeq	r0, r0, r0, lsl #2
     f40:	6c637963 	stclvs	9, cr7, [r3], #-396	; 0xfffffe74
     f44:	74752d65 	ldrbtvc	r2, [r5], #-3429	; 0xd65
     f48:	682e6c69 	stmdavs	lr!, {r0, r3, r5, r6, sl, fp, sp, lr}
     f4c:	00000200 	andeq	r0, r0, r0, lsl #4
     f50:	69647473 	stmdbvs	r4!, {r0, r1, r4, r5, r6, sl, ip, sp, lr}^
     f54:	672d746e 	strvs	r7, [sp, -lr, ror #8]!
     f58:	682e6363 	stmdavs	lr!, {r0, r1, r5, r6, r8, r9, sp, lr}
     f5c:	00000300 	andeq	r0, r0, r0, lsl #6
     f60:	752d7773 	strvc	r7, [sp, #-1907]!	; 0x773
     f64:	2e747261 	cdpcs	2, 7, cr7, cr4, cr1, {3}
     f68:	00020068 	andeq	r0, r2, r8, rrx
     f6c:	64747300 	ldrbtvs	r7, [r4], #-768	; 0x300
     f70:	2e677261 	cdpcs	2, 6, cr7, cr7, cr1, {3}
     f74:	00030068 	andeq	r0, r3, r8, rrx
     f78:	69706700 	ldmdbvs	r0!, {r8, r9, sl, sp, lr}^
     f7c:	00682e6f 	rsbeq	r2, r8, pc, ror #28
     f80:	72000002 	andvc	r0, r0, #2
     f84:	682e6970 	stmdavs	lr!, {r4, r5, r6, r8, fp, sp, lr}
     f88:	00000400 	andeq	r0, r0, r0, lsl #8
     f8c:	702d6176 	eorvc	r6, sp, r6, ror r1
     f90:	746e6972 	strbtvc	r6, [lr], #-2418	; 0x972
     f94:	00682e6b 	rsbeq	r2, r8, fp, ror #28
     f98:	3c000005 	stccc	0, cr0, [r0], {5}
     f9c:	6c697562 	cfstr64vs	mvdx7, [r9], #-392	; 0xfffffe78
     fa0:	6e692d74 	mcrvs	13, 3, r2, cr9, cr4, {3}
     fa4:	0000003e 	andeq	r0, r0, lr, lsr r0
     fa8:	05000000 	streq	r0, [r0, #-0]
     fac:	00968c02 	addseq	r8, r6, r2, lsl #24
     fb0:	2f4c1a00 	svccs	0x004c1a00
     fb4:	03020430 	movweq	r0, #9264	; 0x2430
     fb8:	73032e0b 	movwvc	r2, #15883	; 0x3e0b
     fbc:	88010466 	stmdahi	r1, {r1, r2, r5, r6, sl}
     fc0:	03350204 	teqeq	r5, #4, 4	; 0x40000000
     fc4:	01046673 	tsteq	r4, r3, ror r6
     fc8:	3302048a 	movwcc	r0, #9354	; 0x248a
     fcc:	04667303 	strbteq	r7, [r6], #-771	; 0x303
     fd0:	820a0301 	andhi	r0, sl, #67108864	; 0x4000000
     fd4:	03310204 	teqeq	r1, #4, 4	; 0x40000000
     fd8:	01046673 	tsteq	r4, r3, ror r6
     fdc:	04820c03 	streq	r0, [r2], #3075	; 0xc03
     fe0:	73032f02 	movwvc	r2, #16130	; 0x3f02
     fe4:	03010466 	movweq	r0, #5222	; 0x1466
     fe8:	0204820e 	andeq	r8, r4, #-536870912	; 0xe0000000
     fec:	6673032d 	ldrbtvs	r0, [r3], -sp, lsr #6
     ff0:	10030104 	andne	r0, r3, r4, lsl #2
     ff4:	2b020482 	blcs	82204 <__bss_end__+0x7368c>
     ff8:	04667303 	strbteq	r7, [r6], #-771	; 0x303
     ffc:	82120301 	andshi	r0, r2, #67108864	; 0x4000000
    1000:	03290204 	teqeq	r9, #4, 4	; 0x40000000
    1004:	01046673 	tsteq	r4, r3, ror r6
    1008:	04821403 	streq	r1, [r2], #1027	; 0x403
    100c:	2e790302 	cdpcs	3, 7, cr0, cr9, cr2, {0}
    1010:	04667303 	strbteq	r7, [r6], #-771	; 0x303
    1014:	82160301 	andshi	r0, r6, #67108864	; 0x4000000
    1018:	77030204 	strvc	r0, [r3, -r4, lsl #4]
    101c:	6673032e 	ldrbtvs	r0, [r3], -lr, lsr #6
    1020:	18030104 	stmdane	r3, {r2, r8}
    1024:	2e100382 	cdpcs	3, 1, cr0, cr0, cr2, {4}
    1028:	70034d4b 	andvc	r4, r3, fp, asr #26
    102c:	83844c2e 	orrhi	r4, r4, #11776	; 0x2e00
    1030:	2e0d0348 	cdpcs	3, 0, cr0, cr13, cr8, {2}
    1034:	0433314e 	ldrteq	r3, [r3], #-334	; 0x14e
    1038:	2e480302 	cdpcs	3, 4, cr0, cr8, cr2, {0}
    103c:	3a030104 	bcc	c1454 <__bss_end__+0xb28dc>
    1040:	02042f82 	andeq	r2, r4, #520	; 0x208
    1044:	04664503 	strbteq	r4, [r6], #-1283	; 0x503
    1048:	823d0301 	eorshi	r0, sp, #67108864	; 0x4000000
    104c:	0302042f 	movweq	r0, #9263	; 0x242f
    1050:	01048242 	tsteq	r4, r2, asr #4
    1054:	8200c003 	andhi	ip, r0, #3
    1058:	0302042f 	movweq	r0, #9263	; 0x242f
    105c:	04827fbf 	streq	r7, [r2], #4031	; 0xfbf
    1060:	00c30301 	sbceq	r0, r3, r1, lsl #6
    1064:	02042f82 	andeq	r2, r4, #520	; 0x208
    1068:	827fbc03 	rsbshi	fp, pc, #768	; 0x300
    106c:	c6030104 	strgt	r0, [r3], -r4, lsl #2
    1070:	042f8200 	strteq	r8, [pc], #-512	; 1078 <_start-0x6f88>
    1074:	7fb90302 	svcvc	0x00b90302
    1078:	03010482 	movweq	r0, #5250	; 0x1482
    107c:	2f8200c9 	svccs	0x008200c9
    1080:	b6030204 	strlt	r0, [r3], -r4, lsl #4
    1084:	0104827f 	tsteq	r4, pc, ror r2
    1088:	8200cc03 	andhi	ip, r0, #768	; 0x300
    108c:	0302042f 	movweq	r0, #9263	; 0x242f
    1090:	04827fb3 	streq	r7, [r2], #4019	; 0xfb3
    1094:	00d00301 	sbcseq	r0, r0, r1, lsl #6
    1098:	824c0382 	subhi	r0, ip, #134217730	; 0x8000002
    109c:	4883844c 	stmmi	r3, {r2, r3, r6, sl, pc}
    10a0:	4e2e3603 	cfmadda32mi	mvax0, mvax3, mvfx14, mvfx3
    10a4:	034a5403 	movteq	r5, #41987	; 0xa403
    10a8:	34324a29 	ldrtcc	r4, [r2], #-2601	; 0xa29
    10ac:	0402009f 	streq	r0, [r2], #-159	; 0x9f
    10b0:	064a0601 	strbeq	r0, [sl], -r1, lsl #12
    10b4:	bb4b4ed7 	bllt	12d4c18 <__bss_end__+0x12c60a0>
    10b8:	0402002c 	streq	r0, [r2], #-44	; 0x2c
    10bc:	062e0601 	strteq	r0, [lr], -r1, lsl #12
    10c0:	84a44c6d 	strthi	r4, [r4], #3181	; 0xc6d
    10c4:	01040200 	mrseq	r0, R12_usr
    10c8:	d7064a06 	strle	r4, [r6, -r6, lsl #20]
    10cc:	0402004d 	streq	r0, [r2], #-77	; 0x4d
    10d0:	02004b02 	andeq	r4, r0, #2048	; 0x800
    10d4:	00810204 	addeq	r0, r1, r4, lsl #4
    10d8:	06010402 	streq	r0, [r1], -r2, lsl #8
    10dc:	4c4d062e 	mcrrmi	6, 2, r0, sp, cr14
    10e0:	4b4bbca5 	blmi	12f037c <__bss_end__+0x12e1804>
    10e4:	002f6a4b 	eoreq	r6, pc, fp, asr #20
    10e8:	06010402 	streq	r0, [r1], -r2, lsl #8
    10ec:	02008282 	andeq	r8, r0, #536870920	; 0x20000008
    10f0:	009e0404 	addseq	r0, lr, r4, lsl #8
    10f4:	4a010402 	bmi	42104 <__bss_end__+0x3358c>
    10f8:	bd88d906 	stclt	9, cr13, [r8, #24]
    10fc:	084b4b2f 	stmdaeq	fp, {r0, r1, r2, r3, r5, r8, r9, fp, lr}^
    1100:	02006740 	andeq	r6, r0, #64, 14	; 0x1000000
    1104:	002f0204 	eoreq	r0, pc, r4, lsl #4
    1108:	49020402 	stmdbmi	r2, {r1, sl}
    110c:	01040200 	mrseq	r0, R12_usr
    1110:	68062e06 	stmdavs	r6, {r1, r2, r9, sl, fp, sp}
    1114:	a04b8634 	subge	r8, fp, r4, lsr r6
    1118:	01040200 	mrseq	r0, R12_usr
    111c:	d7066606 	strle	r6, [r6, -r6, lsl #12]
    1120:	4b220868 	blmi	8832c8 <__bss_end__+0x874750>
    1124:	02d84b67 	sbcseq	r4, r8, #105472	; 0x19c00
    1128:	0101000a 	tsteq	r1, sl
    112c:	00000101 	andeq	r0, r0, r1, lsl #2
    1130:	00ca0002 	sbceq	r0, sl, r2
    1134:	01020000 	mrseq	r0, (UNDEF: 2)
    1138:	000d0efb 	strdeq	r0, [sp], -fp
    113c:	01010101 	tsteq	r1, r1, lsl #2
    1140:	01000000 	mrseq	r0, (UNDEF: 0)
    1144:	6d010000 	stcvs	0, cr0, [r1, #-0]
    1148:	72732d79 	rsbsvc	r2, r3, #7744	; 0x1e40
    114c:	552f0063 	strpl	r0, [pc, #-99]!	; 10f1 <_start-0x6f0f>
    1150:	73726573 	cmnvc	r2, #482344960	; 0x1cc00000
    1154:	6972622f 	ldmdbvs	r2!, {r0, r1, r2, r3, r5, r9, sp, lr}^
    1158:	756a6e61 	strbvc	r6, [sl, #-3681]!	; 0xe61
    115c:	65442f6e 	strbvs	r2, [r4, #-3950]	; 0xf6e
    1160:	6f746b73 	svcvs	0x00746b73
    1164:	63732f70 	cmnvs	r3, #112, 30	; 0x1c0
    1168:	6c6f6f68 	stclvs	15, cr6, [pc], #-416	; fd0 <_start-0x7030>
    116c:	6e69572f 	cdpvs	7, 6, cr5, cr9, cr15, {1}
    1170:	31726574 	cmncc	r2, r4, ror r5
    1174:	2f303239 	svccs	0x00303239
    1178:	34315343 	ldrtcc	r5, [r1], #-835	; 0x343
    117c:	632f4530 	teqvs	pc, #48, 10	; 0xc000000
    1180:	30343173 	eorscc	r3, r4, r3, ror r1
    1184:	30322d65 	eorscc	r2, r2, r5, ror #26
    1188:	2f6e6977 	svccs	0x006e6977
    118c:	7062696c 	rsbvc	r6, r2, ip, ror #18
    1190:	73632f69 	cmnvc	r3, #420	; 0x1a4
    1194:	65303431 	ldrvs	r3, [r0, #-1073]!	; 0x431
    1198:	6372732d 	cmnvs	r2, #-1275068416	; 0xb4000000
    119c:	73552f00 	cmpvc	r5, #0, 30
    11a0:	2f737265 	svccs	0x00737265
    11a4:	61697262 	cmnvs	r9, r2, ror #4
    11a8:	6e756a6e 	vsubvs.f32	s13, s10, s29
    11ac:	7365442f 	cmnvc	r5, #788529152	; 0x2f000000
    11b0:	706f746b 	rsbvc	r7, pc, fp, ror #8
    11b4:	6863732f 	stmdavs	r3!, {r0, r1, r2, r3, r5, r8, r9, ip, sp, lr}^
    11b8:	2f6c6f6f 	svccs	0x006c6f6f
    11bc:	746e6957 	strbtvc	r6, [lr], #-2391	; 0x957
    11c0:	39317265 	ldmdbcc	r1!, {r0, r2, r5, r6, r9, ip, sp, lr}
    11c4:	432f3032 	teqmi	pc, #50	; 0x32
    11c8:	30343153 	eorscc	r3, r4, r3, asr r1
    11cc:	73632f45 	cmnvc	r3, #276	; 0x114
    11d0:	65303431 	ldrvs	r3, [r0, #-1073]!	; 0x431
    11d4:	7730322d 	ldrvc	r3, [r0, -sp, lsr #4]!
    11d8:	6c2f6e69 	stcvs	14, cr6, [pc], #-420	; 103c <_start-0x6fc4>
    11dc:	69706269 	ldmdbvs	r0!, {r0, r3, r5, r6, r9, sp, lr}^
    11e0:	61750000 	cmnvs	r5, r0
    11e4:	632e7472 	teqvs	lr, #1912602624	; 0x72000000
    11e8:	00000100 	andeq	r0, r0, r0, lsl #2
    11ec:	6f697067 	svcvs	0x00697067
    11f0:	0200682e 	andeq	r6, r0, #3014656	; 0x2e0000
    11f4:	70720000 	rsbsvc	r0, r2, r0
    11f8:	00682e69 	rsbeq	r2, r8, r9, ror #28
    11fc:	00000003 	andeq	r0, r0, r3
    1200:	ac020500 	cfstr32ge	mvfx0, [r2], {-0}
    1204:	0300009c 	movweq	r0, #156	; 0x9c
    1208:	33300136 	teqcc	r0, #-2147483635	; 0x8000000d
    120c:	d8306d67 	ldmdale	r0!, {r0, r1, r2, r5, r6, r8, sl, fp, sp, lr}
    1210:	67676730 			; <UNDEFINED> instruction: 0x67676730
    1214:	86686767 	strbthi	r6, [r8], -r7, ror #14
    1218:	306a672f 	rsbcc	r6, sl, pc, lsr #14
    121c:	2f696767 	svccs	0x00696767
    1220:	674c6a67 	strbvs	r6, [ip, -r7, ror #20]
    1224:	302f2fc1 	eorcc	r2, pc, r1, asr #31
    1228:	3049682f 	subcc	r6, r9, pc, lsr #16
    122c:	01000202 	tsteq	r0, r2, lsl #4
    1230:	0000d601 	andeq	sp, r0, r1, lsl #12
    1234:	97000200 	strls	r0, [r0, -r0, lsl #4]
    1238:	02000000 	andeq	r0, r0, #0
    123c:	0d0efb01 	vstreq	d15, [lr, #-4]
    1240:	01010100 	mrseq	r0, (UNDEF: 17)
    1244:	00000001 	andeq	r0, r0, r1
    1248:	01000001 	tsteq	r0, r1
    124c:	34317363 	ldrtcc	r7, [r1], #-867	; 0x363
    1250:	692d6530 	pushvs	{r4, r5, r8, sl, sp, lr}
    1254:	7265746e 	rsbvc	r7, r5, #1845493760	; 0x6e000000
    1258:	74707572 	ldrbtvc	r7, [r0], #-1394	; 0x572
    125c:	73552f00 	cmpvc	r5, #0, 30
    1260:	2f737265 	svccs	0x00737265
    1264:	61697262 	cmnvs	r9, r2, ror #4
    1268:	6e756a6e 	vsubvs.f32	s13, s10, s29
    126c:	7365442f 	cmnvc	r5, #788529152	; 0x2f000000
    1270:	706f746b 	rsbvc	r7, pc, fp, ror #8
    1274:	6863732f 	stmdavs	r3!, {r0, r1, r2, r3, r5, r8, r9, ip, sp, lr}^
    1278:	2f6c6f6f 	svccs	0x006c6f6f
    127c:	746e6957 	strbtvc	r6, [lr], #-2391	; 0x957
    1280:	39317265 	ldmdbcc	r1!, {r0, r2, r5, r6, r9, ip, sp, lr}
    1284:	432f3032 	teqmi	pc, #50	; 0x32
    1288:	30343153 	eorscc	r3, r4, r3, asr r1
    128c:	73632f45 	cmnvc	r3, #276	; 0x114
    1290:	65303431 	ldrvs	r3, [r0, #-1073]!	; 0x431
    1294:	7730322d 	ldrvc	r3, [r0, -sp, lsr #4]!
    1298:	6c2f6e69 	stcvs	14, cr6, [pc], #-420	; 10fc <_start-0x6f04>
    129c:	69706269 	ldmdbvs	r0!, {r0, r3, r5, r6, r9, sp, lr}^
    12a0:	6e690000 	cdpvs	0, 6, cr0, cr9, cr0, {0}
    12a4:	72726574 	rsbsvc	r6, r2, #116, 10	; 0x1d000000
    12a8:	73747075 	cmnvc	r4, #117	; 0x75
    12ac:	632e632d 	teqvs	lr, #-1275068416	; 0xb4000000
    12b0:	00000100 	andeq	r0, r0, r0, lsl #2
    12b4:	2e697072 	mcrcs	0, 3, r7, cr9, cr2, {3}
    12b8:	00020068 	andeq	r0, r2, r8, rrx
    12bc:	69707200 	ldmdbvs	r0!, {r9, ip, sp, lr}^
    12c0:	746e692d 	strbtvc	r6, [lr], #-2349	; 0x92d
    12c4:	75727265 	ldrbvc	r7, [r2, #-613]!	; 0x265
    12c8:	2e737470 	mrccs	4, 3, r7, cr3, cr0, {3}
    12cc:	00010068 	andeq	r0, r1, r8, rrx
    12d0:	05000000 	streq	r0, [r0, #-0]
    12d4:	009e0002 	addseq	r0, lr, r2
    12d8:	67311600 	ldrvs	r1, [r1, -r0, lsl #12]!
    12dc:	2e0e0367 	cdpcs	3, 0, cr0, cr14, cr7, {3}
    12e0:	002d2f83 	eoreq	r2, sp, r3, lsl #31
    12e4:	2f020402 	svccs	0x00020402
    12e8:	02040200 	andeq	r0, r4, #0, 4
    12ec:	04020065 	streq	r0, [r2], #-101	; 0x65
    12f0:	062e0601 	strteq	r0, [lr], -r1, lsl #12
    12f4:	0867a24c 	stmdaeq	r7!, {r2, r3, r6, r9, sp, pc}^
    12f8:	ae0867b0 	mcrge	7, 0, r6, cr8, cr0, {5}
    12fc:	67ae0867 	strvs	r0, [lr, r7, ror #16]!
    1300:	0867ae08 	stmdaeq	r7!, {r3, r9, sl, fp, sp, pc}^
    1304:	1c0267ae 	stcne	7, cr6, [r2], {174}	; 0xae
    1308:	28010100 	stmdacs	r1, {r8}
    130c:	02000001 	andeq	r0, r0, #1
    1310:	00010d00 	andeq	r0, r1, r0, lsl #26
    1314:	fb010200 	blx	41b1e <__bss_end__+0x32fa6>
    1318:	01000d0e 	tsteq	r0, lr, lsl #26
    131c:	00010101 	andeq	r0, r1, r1, lsl #2
    1320:	00010000 	andeq	r0, r1, r0
    1324:	73630100 	cmnvc	r3, #0, 2
    1328:	65303431 	ldrvs	r3, [r0, #-1073]!	; 0x431
    132c:	6372732d 	cmnvs	r2, #-1275068416	; 0xb4000000
    1330:	73752f00 	cmnvc	r5, #0, 30
    1334:	6f6c2f72 	svcvs	0x006c2f72
    1338:	2f6c6163 	svccs	0x006c6163
    133c:	6c6c6543 	cfstr64vs	mvdx6, [ip], #-268	; 0xfffffef4
    1340:	612f7261 	teqvs	pc, r1, ror #4
    1344:	6e2d6d72 	mcrvs	13, 1, r6, cr13, cr2, {3}
    1348:	2d656e6f 	stclcs	14, cr6, [r5, #-444]!	; 0xfffffe44
    134c:	69626165 	stmdbvs	r2!, {r0, r2, r5, r6, r8, sp, lr}^
    1350:	382e342f 	stmdacc	lr!, {r0, r1, r2, r3, r5, sl, ip, sp}
    1354:	632d332e 	teqvs	sp, #-1207959552	; 0xb8000000
    1358:	30373173 	eorscc	r3, r7, r3, ror r1
    135c:	696c2f65 	stmdbvs	ip!, {r0, r2, r5, r6, r8, r9, sl, fp, sp}^
    1360:	63672f62 	cmnvs	r7, #392	; 0x188
    1364:	72612f63 	rsbvc	r2, r1, #396	; 0x18c
    1368:	6f6e2d6d 	svcvs	0x006e2d6d
    136c:	652d656e 	strvs	r6, [sp, #-1390]!	; 0x56e
    1370:	2f696261 	svccs	0x00696261
    1374:	2e382e34 	mrccs	14, 1, r2, cr8, cr4, {1}
    1378:	6e692f33 	mcrvs	15, 3, r2, cr9, cr3, {1}
    137c:	64756c63 	ldrbtvs	r6, [r5], #-3171	; 0xc63
    1380:	752f0065 	strvc	r0, [pc, #-101]!	; 1323 <_start-0x6cdd>
    1384:	6c2f7273 	sfmvs	f7, 4, [pc], #-460	; 11c0 <_start-0x6e40>
    1388:	6c61636f 	stclvs	3, cr6, [r1], #-444	; 0xfffffe44
    138c:	6c65432f 	stclvs	3, cr4, [r5], #-188	; 0xffffff44
    1390:	2f72616c 	svccs	0x0072616c
    1394:	2d6d7261 	sfmcs	f7, 2, [sp, #-388]!	; 0xfffffe7c
    1398:	656e6f6e 	strbvs	r6, [lr, #-3950]!	; 0xf6e
    139c:	6261652d 	rsbvs	r6, r1, #188743680	; 0xb400000
    13a0:	2e342f69 	cdpcs	15, 3, cr2, cr4, cr9, {3}
    13a4:	2d332e38 	ldccs	14, cr2, [r3, #-224]!	; 0xffffff20
    13a8:	37317363 	ldrcc	r7, [r1, -r3, ror #6]!
    13ac:	612f6530 	teqvs	pc, r0, lsr r5	; <UNPREDICTABLE>
    13b0:	6e2d6d72 	mcrvs	13, 1, r6, cr13, cr2, {3}
    13b4:	2d656e6f 	stclcs	14, cr6, [r5, #-444]!	; 0xfffffe44
    13b8:	69626165 	stmdbvs	r2!, {r0, r2, r5, r6, r8, sp, lr}^
    13bc:	636e692f 	cmnvs	lr, #770048	; 0xbc000
    13c0:	6564756c 	strbvs	r7, [r4, #-1388]!	; 0x56c
    13c4:	6f630000 	svcvs	0x00630000
    13c8:	6f72746e 	svcvs	0x0072746e
    13cc:	6c622d6c 	stclvs	13, cr2, [r2], #-432	; 0xfffffe50
    13d0:	2e6b636f 	cdpcs	3, 6, cr6, cr11, cr15, {3}
    13d4:	00010063 	andeq	r0, r1, r3, rrx
    13d8:	64747300 	ldrbtvs	r7, [r4], #-768	; 0x300
    13dc:	2e666564 	cdpcs	5, 6, cr6, cr6, cr4, {3}
    13e0:	00020068 	andeq	r0, r2, r8, rrx
    13e4:	64747300 	ldrbtvs	r7, [r4], #-768	; 0x300
    13e8:	2d746e69 	ldclcs	14, cr6, [r4, #-420]!	; 0xfffffe5c
    13ec:	2e636367 	cdpcs	3, 6, cr6, cr3, cr7, {3}
    13f0:	00020068 	andeq	r0, r2, r8, rrx
    13f4:	2d777300 	ldclcs	3, cr7, [r7, #-0]
    13f8:	74726175 	ldrbtvc	r6, [r2], #-373	; 0x175
    13fc:	0100682e 	tsteq	r0, lr, lsr #16
    1400:	6f630000 	svcvs	0x00630000
    1404:	6f72746e 	svcvs	0x0072746e
    1408:	6c622d6c 	stclvs	13, cr2, [r2], #-432	; 0xfffffe50
    140c:	2e6b636f 	cdpcs	3, 6, cr6, cr11, cr15, {3}
    1410:	00010068 	andeq	r0, r1, r8, rrx
    1414:	72747300 	rsbsvc	r7, r4, #0, 6
    1418:	2e676e69 	cdpcs	14, 6, cr6, cr7, cr9, {3}
    141c:	00030068 	andeq	r0, r3, r8, rrx
    1420:	05000000 	streq	r0, [r0, #-0]
    1424:	00a13c02 	adceq	r3, r1, r2, lsl #24
    1428:	83301600 	teqhi	r0, #0, 12
    142c:	9f144c68 	svcls	0x00144c68
    1430:	04022f4b 	streq	r2, [r2], #-3915	; 0xf4b
    1434:	Address 0x0000000000001434 is out of bounds.


Disassembly of section .debug_str:

00000000 <.debug_str>:
   0:	74726175 	ldrbtvc	r6, [r2], #-373	; 0x175
   4:	7465675f 	strbtvc	r6, [r5], #-1887	; 0x75f
   8:	7875615f 	ldmdavc	r5!, {r0, r1, r2, r3, r4, r6, r8, sp, lr}^
   c:	7172695f 	cmnvc	r2, pc, asr r9
  10:	7a697300 	bvc	1a5cc18 <__bss_end__+0x1a4e0a0>
  14:	00745f65 	rsbseq	r5, r4, r5, ror #30
  18:	6f727265 	svcvs	0x00727265
  1c:	665f7372 			; <UNDEFINED> instruction: 0x665f7372
  20:	6c617461 	cfstrdvs	mvd7, [r1], #-388	; 0xfffffe7c
  24:	6e00705f 	mcrvs	0, 0, r7, cr0, cr15, {2}
  28:	616d746f 	cmnvs	sp, pc, ror #8
  2c:	61006e69 	tstvs	r0, r9, ror #28
  30:	745f6d72 	ldrbvc	r6, [pc], #-3442	; 38 <_start-0x7fc8>
  34:	72656d69 	rsbvc	r6, r5, #6720	; 0x1a40
  38:	5741525f 	smlsldpl	r5, r1, pc, r2	; <UNPREDICTABLE>
  3c:	00515249 	subseq	r5, r1, r9, asr #4
  40:	74726175 	ldrbtvc	r6, [r2], #-373	; 0x175
  44:	696e695f 	stmdbvs	lr!, {r0, r1, r2, r3, r4, r6, r8, fp, sp, lr}^
  48:	69775f74 	ldmdbvs	r7!, {r2, r4, r5, r6, r8, r9, sl, fp, ip, lr}^
  4c:	695f6874 	ldmdbvs	pc, {r2, r4, r5, r6, fp, sp, lr}^	; <UNPREDICTABLE>
  50:	7265746e 	rsbvc	r7, r5, #1845493760	; 0x6e000000
  54:	74707572 	ldrbtvc	r7, [r0], #-1394	; 0x572
  58:	6f6c0073 	svcvs	0x006c0073
  5c:	6c20676e 	stcvs	7, cr6, [r0], #-440	; 0xfffffe48
  60:	20676e6f 	rsbcs	r6, r7, pc, ror #28
  64:	69736e75 	ldmdbvs	r3!, {r0, r2, r4, r5, r6, r9, sl, fp, sp, lr}^
  68:	64656e67 	strbtvs	r6, [r5], #-3687	; 0xe67
  6c:	746e6920 	strbtvc	r6, [lr], #-2336	; 0x920
  70:	625f6300 	subsvs	r6, pc, #0, 6
  74:	68006675 	stmdavs	r0, {r0, r2, r4, r5, r6, r9, sl, sp, lr}
  78:	61755f77 	cmnvs	r5, r7, ror pc
  7c:	47007472 	smlsdxmi	r0, r2, r4, r7
  80:	5f4f4950 	svcpl	0x004f4950
  84:	434e5546 	movtmi	r5, #58694	; 0xe546
  88:	504e495f 	subpl	r4, lr, pc, asr r9
  8c:	63005455 	movwvs	r5, #1109	; 0x455
  90:	6d655f71 	stclvs	15, cr5, [r5, #-452]!	; 0xfffffe3c
  94:	00797470 	rsbseq	r7, r9, r0, ror r4
  98:	5f787561 	svcpl	0x00787561
  9c:	5f717269 	svcpl	0x00717269
  a0:	00676572 	rsbeq	r6, r7, r2, ror r5
  a4:	676e6f6c 	strbvs	r6, [lr, -ip, ror #30]!
  a8:	6e6f6c20 	cdpvs	12, 6, cr6, cr15, cr0, {1}
  ac:	6e692067 	cdpvs	0, 6, cr2, cr9, cr7, {3}
  b0:	41550074 	cmpmi	r5, r4, ror r0
  b4:	525f5452 	subspl	r5, pc, #1375731712	; 0x52000000
  b8:	4e495f58 	mcrmi	15, 2, r5, cr9, cr8, {2}
  bc:	6e630054 	mcrvs	0, 3, r0, cr3, cr4, {2}
  c0:	75006c74 	strvc	r6, [r0, #-3188]	; 0xc74
  c4:	5f747261 	svcpl	0x00747261
  c8:	5f6e6163 	svcpl	0x006e6163
  cc:	63746567 	cmnvs	r4, #432013312	; 0x19c00000
  d0:	72637300 	rsbvc	r7, r3, #0, 6
  d4:	68637461 	stmdavs	r3!, {r0, r5, r6, sl, ip, sp, lr}^
  d8:	61747300 	cmnvs	r4, r0, lsl #6
  dc:	61006574 	tstvs	r0, r4, ror r5
  e0:	745f6d72 	ldrbvc	r6, [pc], #-3442	; e8 <_start-0x7f18>
  e4:	72656d69 	rsbvc	r6, r5, #6720	; 0x1a40
  e8:	6e6f435f 	mcrvs	3, 3, r4, cr15, cr15, {2}
  ec:	6c6f7274 	sfmvs	f7, 2, [pc], #-464	; ffffff24 <__bss_end__+0xffff13ac>
  f0:	6d726100 	ldfvse	f6, [r2, #-0]
  f4:	6d69745f 	cfstrdvs	mvd7, [r9, #-380]!	; 0xfffffe84
  f8:	4c5f7265 	lfmmi	f7, 2, [pc], {101}	; 0x65
  fc:	0064616f 	rsbeq	r6, r4, pc, ror #2
 100:	5f6d7261 	svcpl	0x006d7261
 104:	656d6974 	strbvs	r6, [sp, #-2420]!	; 0x974
 108:	61425f72 	hvcvs	9714	; 0x25f2
 10c:	64006573 	strvs	r6, [r0], #-1395	; 0x573
 110:	625f7665 	subsvs	r7, pc, #105906176	; 0x6500000
 114:	69727261 	ldmdbvs	r2!, {r0, r5, r6, r9, ip, sp, lr}^
 118:	61007265 	tstvs	r0, r5, ror #4
 11c:	705f7875 	subsvc	r7, pc, r5, ror r8	; <UNPREDICTABLE>
 120:	70697265 	rsbvc	r7, r9, r5, ror #4
 124:	41007368 	tstmi	r0, r8, ror #6
 128:	455f5855 	ldrbmi	r5, [pc, #-2133]	; fffff8db <__bss_end__+0xffff0d63>
 12c:	4c42414e 	stfmie	f4, [r2], {78}	; 0x4e
 130:	75005345 	strvc	r5, [r0, #-837]	; 0x345
 134:	5f747261 	svcpl	0x00747261
 138:	5f746e69 	svcpl	0x00746e69
 13c:	61750074 	cmnvs	r5, r4, ror r0
 140:	675f7472 			; <UNDEFINED> instruction: 0x675f7472
 144:	5f637465 	svcpl	0x00637465
 148:	00746e69 	rsbseq	r6, r4, r9, ror #28
 14c:	645f6e69 	ldrbvs	r6, [pc], #-3689	; 154 <_start-0x7eac>
 150:	00617461 	rsbeq	r7, r1, r1, ror #8
 154:	74726175 	ldrbtvc	r6, [r2], #-373	; 0x175
 158:	6e61635f 	mcrvs	3, 3, r6, cr1, cr15, {2}
 15c:	7475705f 	ldrbtvc	r7, [r5], #-95	; 0x5f
 160:	65670063 	strbvs	r0, [r7, #-99]!	; 0x63
 164:	75005174 	strvc	r5, [r0, #-372]	; 0x174
 168:	5f747261 	svcpl	0x00747261
 16c:	65746e69 	ldrbvs	r6, [r4, #-3689]!	; 0xe69
 170:	70757272 	rsbsvc	r7, r5, r2, ror r2
 174:	61685f74 	smcvs	34292	; 0x85f4
 178:	656c646e 	strbvs	r6, [ip, #-1134]!	; 0x46e
 17c:	72610072 	rsbvc	r0, r1, #114	; 0x72
 180:	69745f6d 	ldmdbvs	r4!, {r0, r2, r3, r5, r6, r8, r9, sl, fp, ip, lr}^
 184:	5f72656d 	svcpl	0x0072656d
 188:	6b73614d 	blvs	1cd86c4 <__bss_end__+0x1cc9b4c>
 18c:	52496465 	subpl	r6, r9, #1694498816	; 0x65000000
 190:	55410051 	strbpl	r0, [r1, #-81]	; 0x51
 194:	554d5f58 	strbpl	r5, [sp, #-3928]	; 0xf58
 198:	5f4f495f 	svcpl	0x004f495f
 19c:	00474552 	subeq	r4, r7, r2, asr r5
 1a0:	5f697072 	svcpl	0x00697072
 1a4:	65736572 	ldrbvs	r6, [r3, #-1394]!	; 0x572
 1a8:	75705f74 	ldrbvc	r5, [r0, #-3956]!	; 0xf74
 1ac:	5f006374 	svcpl	0x00006374
 1b0:	4e55465f 	mrcmi	6, 2, r4, cr5, cr15, {2}
 1b4:	4f495443 	svcmi	0x00495443
 1b8:	005f5f4e 	subseq	r5, pc, lr, asr #30
 1bc:	6e5f7163 	rdfvsez	f7, f7, f3
 1c0:	6d656c65 	stclvs	12, cr6, [r5, #-404]!	; 0xfffffe6c
 1c4:	6f687300 	svcvs	0x00687300
 1c8:	75207472 	strvc	r7, [r0, #-1138]!	; 0x472
 1cc:	6769736e 	strbvs	r7, [r9, -lr, ror #6]!
 1d0:	2064656e 	rsbcs	r6, r4, lr, ror #10
 1d4:	00746e69 	rsbseq	r6, r4, r9, ror #28
 1d8:	74726175 	ldrbtvc	r6, [r2], #-373	; 0x175
 1dc:	7475705f 	ldrbtvc	r7, [r5], #-95	; 0x5f
 1e0:	6e695f63 	cdpvs	15, 6, cr5, cr9, cr3, {3}
 1e4:	77730074 			; <UNDEFINED> instruction: 0x77730074
 1e8:	7261755f 	rsbvc	r7, r1, #398458880	; 0x17c00000
 1ec:	75705f74 	ldrbvc	r5, [r0, #-3956]!	; 0xf74
 1f0:	70006374 	andvc	r6, r0, r4, ror r3
 1f4:	00517475 	subseq	r7, r1, r5, ror r4
 1f8:	5f515249 	svcpl	0x00515249
 1fc:	42414e45 	submi	r4, r1, #1104	; 0x450
 200:	315f454c 	cmpcc	pc, ip, asr #10
 204:	72617500 	rsbvc	r7, r1, #0, 10
 208:	61685f74 	smcvs	34292	; 0x85f4
 20c:	61645f73 	smcvs	17907	; 0x45f3
 210:	695f6174 	ldmdbvs	pc, {r2, r4, r5, r6, r8, sp, lr}^	; <UNPREDICTABLE>
 214:	6300746e 	movwvs	r7, #1134	; 0x46e
 218:	6e61656c 	cdpvs	5, 6, cr6, cr1, cr12, {3}
 21c:	6265725f 	rsbvs	r7, r5, #-268435451	; 0xf0000005
 220:	00746f6f 	rsbseq	r6, r4, pc, ror #30
 224:	6c696174 	stfvse	f6, [r9], #-464	; 0xfffffe30
 228:	7a697300 	bvc	1a5ce30 <__bss_end__+0x1a4e2b8>
 22c:	70797465 	rsbsvc	r7, r9, r5, ror #8
 230:	70670065 	rsbvc	r0, r7, r5, rrx
 234:	735f6f69 	cmpvc	pc, #420	; 0x1a4
 238:	665f7465 	ldrbvs	r7, [pc], -r5, ror #8
 23c:	74636e75 	strbtvc	r6, [r3], #-3701	; 0xe75
 240:	006e6f69 	rsbeq	r6, lr, r9, ror #30
 244:	5f676572 	svcpl	0x00676572
 248:	006c6176 	rsbeq	r6, ip, r6, ror r1
 24c:	705f7163 	subsvc	r7, pc, r3, ror #2
 250:	6e5f706f 	cdpvs	0, 5, cr7, cr15, cr15, {3}
 254:	6c626e6f 	stclvs	14, cr6, [r2], #-444	; 0xfffffe44
 258:	006b636f 	rsbeq	r6, fp, pc, ror #6
 25c:	5f6d7261 	svcpl	0x006d7261
 260:	656d6974 	strbvs	r6, [sp, #-2420]!	; 0x974
 264:	65525f72 	ldrbvs	r5, [r2, #-3954]	; 0xf72
 268:	64616f6c 	strbtvs	r6, [r1], #-3948	; 0xf6c
 26c:	5f716300 	svcpl	0x00716300
 270:	74696e69 	strbtvc	r6, [r9], #-3689	; 0xe69
 274:	746e6900 	strbtvc	r6, [lr], #-2304	; 0x900
 278:	696e695f 	stmdbvs	lr!, {r0, r1, r2, r3, r4, r6, r8, fp, sp, lr}^
 27c:	79730074 	ldmdbvc	r3!, {r2, r4, r5, r6}^
 280:	6d657473 	cfstrdvs	mvd7, [r5, #-460]!	; 0xfffffe34
 284:	616e655f 	cmnvs	lr, pc, asr r5
 288:	5f656c62 	svcpl	0x00656c62
 28c:	65746e69 	ldrbvs	r6, [r4, #-3689]!	; 0xe69
 290:	70757272 	rsbsvc	r7, r5, r2, ror r2
 294:	41007374 	tstmi	r0, r4, ror r3
 298:	495f5855 	ldmdbmi	pc, {r0, r2, r4, r6, fp, ip, lr}^	; <UNPREDICTABLE>
 29c:	73005152 	movwvc	r5, #338	; 0x152
 2a0:	61755f77 	cmnvs	r5, r7, ror pc
 2a4:	745f7472 	ldrbvc	r7, [pc], #-1138	; 2ac <_start-0x7d54>
 2a8:	736e7500 	cmnvc	lr, #0, 10
 2ac:	656e6769 	strbvs	r6, [lr, #-1897]!	; 0x769
 2b0:	68632064 	stmdavs	r3!, {r2, r5, r6, sp}^
 2b4:	69007261 	stmdbvs	r0, {r0, r5, r6, r9, ip, sp, lr}
 2b8:	68635f6e 	stmdavs	r3!, {r1, r2, r3, r5, r6, r8, r9, sl, fp, ip, lr}^
 2bc:	73007261 	movwvc	r7, #609	; 0x261
 2c0:	74726f68 	ldrbtvc	r6, [r2], #-3944	; 0xf68
 2c4:	746e6920 	strbtvc	r6, [lr], #-2336	; 0x920
 2c8:	72617500 	rsbvc	r7, r1, #0, 10
 2cc:	6e695f74 	mcrvs	15, 3, r5, cr9, cr4, {3}
 2d0:	6c665f74 	stclvs	15, cr5, [r6], #-464	; 0xfffffe30
 2d4:	5f687375 	svcpl	0x00687375
 2d8:	006c6c61 	rsbeq	r6, ip, r1, ror #24
 2dc:	54524155 	ldrbpl	r4, [r2], #-341	; 0x155
 2e0:	5f58545f 	svcpl	0x0058545f
 2e4:	00544e49 	subseq	r4, r4, r9, asr #28
 2e8:	6573552f 	ldrbvs	r5, [r3, #-1327]!	; 0x52f
 2ec:	622f7372 	eorvs	r7, pc, #-939524095	; 0xc8000001
 2f0:	6e616972 	mcrvs	9, 3, r6, cr1, cr2, {3}
 2f4:	2f6e756a 	svccs	0x006e756a
 2f8:	6b736544 	blvs	1cd9810 <__bss_end__+0x1ccac98>
 2fc:	2f706f74 	svccs	0x00706f74
 300:	6f686373 	svcvs	0x00686373
 304:	572f6c6f 	strpl	r6, [pc, -pc, ror #24]!
 308:	65746e69 	ldrbvs	r6, [r4, #-3689]!	; 0xe69
 30c:	32393172 	eorscc	r3, r9, #-2147483620	; 0x8000001c
 310:	53432f30 	movtpl	r2, #16176	; 0x3f30
 314:	45303431 	ldrmi	r3, [r0, #-1073]!	; 0x431
 318:	3173632f 	cmncc	r3, pc, lsr #6
 31c:	2d653034 	stclcs	0, cr3, [r5, #-208]!	; 0xffffff30
 320:	69773032 	ldmdbvs	r7!, {r1, r4, r5, ip, sp}^
 324:	6f682f6e 	svcvs	0x00682f6e
 328:	6f77656d 	svcvs	0x0077656d
 32c:	312f6b72 	teqcc	pc, r2, ror fp	; <UNPREDICTABLE>
 330:	2d77682d 	ldclcs	8, cr6, [r7, #-180]!	; 0xffffff4c
 334:	74726175 	ldrbtvc	r6, [r2], #-373	; 0x175
 338:	746e692d 	strbtvc	r6, [lr], #-2349	; 0x92d
 33c:	52415500 	subpl	r5, r1, #0, 10
 340:	4f4e5f54 	svcmi	0x004e5f54
 344:	544e495f 	strbpl	r4, [lr], #-2399	; 0x95f
 348:	5f6e6900 	svcpl	0x006e6900
 34c:	65680063 	strbvs	r0, [r8, #-99]!	; 0x63
 350:	75006461 	strvc	r6, [r0, #-1121]	; 0x461
 354:	33746e69 	cmncc	r4, #1680	; 0x690
 358:	00745f32 	rsbseq	r5, r4, r2, lsr pc
 35c:	64756162 	ldrbtvs	r6, [r5], #-354	; 0x162
 360:	554e4700 	strbpl	r4, [lr, #-1792]	; 0x700
 364:	34204320 	strtcc	r4, [r0], #-800	; 0x320
 368:	332e382e 	teqcc	lr, #3014656	; 0x2e0000
 36c:	636d2d20 	cmnvs	sp, #32, 26	; 0x800
 370:	613d7570 	teqvs	sp, r0, ror r5
 374:	31316d72 	teqcc	r1, r2, ror sp
 378:	7a6a3637 	bvc	1a8dc5c <__bss_end__+0x1a7f0e4>
 37c:	20732d66 	rsbscs	r2, r3, r6, ror #26
 380:	75746d2d 	ldrbvc	r6, [r4, #-3373]!	; 0xd2d
 384:	613d656e 	teqvs	sp, lr, ror #10
 388:	31316d72 	teqcc	r1, r2, ror sp
 38c:	7a6a3637 	bvc	1a8dc70 <__bss_end__+0x1a7f0f8>
 390:	20732d66 	rsbscs	r2, r3, r6, ror #26
 394:	6467672d 	strbtvs	r6, [r7], #-1837	; 0x72d
 398:	4f2d2062 	svcmi	0x002d2062
 39c:	732d2067 	teqvc	sp, #103	; 0x67
 3a0:	673d6474 			; <UNDEFINED> instruction: 0x673d6474
 3a4:	3939756e 	ldmdbcc	r9!, {r1, r2, r3, r5, r6, r8, sl, ip, sp, lr}
 3a8:	66662d20 	strbtvs	r2, [r6], -r0, lsr #26
 3ac:	73656572 	cmnvc	r5, #478150656	; 0x1c800000
 3b0:	646e6174 	strbtvs	r6, [lr], #-372	; 0x174
 3b4:	00676e69 	rsbeq	r6, r7, r9, ror #28
 3b8:	636e6566 	cmnvs	lr, #427819008	; 0x19800000
 3bc:	766f0065 	strbtvc	r0, [pc], -r5, rrx
 3c0:	6c667265 	sfmvs	f7, 2, [r6], #-404	; 0xfffffe6c
 3c4:	7000776f 	andvc	r7, r0, pc, ror #14
 3c8:	32337475 	eorscc	r7, r3, #1962934272	; 0x75000000
 3cc:	5f716300 	svcpl	0x00716300
 3d0:	68737570 	ldmdavs	r3!, {r4, r5, r6, r8, sl, ip, sp, lr}^
 3d4:	65716300 	ldrbvs	r6, [r1, #-768]!	; 0x300
 3d8:	6100745f 	tstvs	r0, pc, asr r4
 3dc:	745f6d72 	ldrbvc	r6, [pc], #-3442	; 3e4 <_start-0x7c1c>
 3e0:	72656d69 	rsbvc	r6, r5, #6720	; 0x1a40
 3e4:	6572505f 	ldrbvs	r5, [r2, #-95]!	; 0x5f
 3e8:	69766944 	ldmdbvs	r6!, {r2, r6, r8, fp, sp, lr}^
 3ec:	00726564 	rsbseq	r6, r2, r4, ror #10
 3f0:	74726175 	ldrbtvc	r6, [r2], #-373	; 0x175
 3f4:	746e692d 	strbtvc	r6, [lr], #-2349	; 0x92d
 3f8:	6100632e 	tstvs	r0, lr, lsr #6
 3fc:	745f6d72 	ldrbvc	r6, [pc], #-3442	; 404 <_start-0x7bfc>
 400:	72656d69 	rsbvc	r6, r5, #6720	; 0x1a40
 404:	6c61565f 	stclvs	6, cr5, [r1], #-380	; 0xfffffe84
 408:	61006575 	tstvs	r0, r5, ror r5
 40c:	745f6d72 	ldrbvc	r6, [pc], #-3442	; 414 <_start-0x7bec>
 410:	72656d69 	rsbvc	r6, r5, #6720	; 0x1a40
 414:	5152495f 	cmppl	r2, pc, asr r9
 418:	61656c43 	cmnvs	r5, r3, asr #24
 41c:	656d0072 	strbvs	r0, [sp, #-114]!	; 0x72
 420:	7465736d 	strbtvc	r7, [r5], #-877	; 0x36d
 424:	5f716300 	svcpl	0x00716300
 428:	74730074 	ldrbtvc	r0, [r3], #-116	; 0x74
 42c:	73757461 	cmnvc	r5, #1627389952	; 0x61000000
 430:	69707200 	ldmdbvs	r0!, {r9, ip, sp, lr}^
 434:	6d72615f 	ldfvse	f6, [r2, #-380]!	; 0xfffffe84
 438:	6d69745f 	cfstrdvs	mvd7, [r9, #-380]!	; 0xfffffe84
 43c:	745f7265 	ldrbvc	r7, [pc], #-613	; 444 <_start-0x7bbc>
 440:	49504700 	ldmdbmi	r0, {r8, r9, sl, lr}^
 444:	55465f4f 	strbpl	r5, [r6, #-3919]	; 0xf4f
 448:	4f5f434e 	svcmi	0x005f434e
 44c:	55505455 	ldrbpl	r5, [r0, #-1109]	; 0x455
 450:	69750054 	ldmdbvs	r5!, {r2, r4, r6}^
 454:	5f38746e 	svcpl	0x0038746e
 458:	65670074 	strbvs	r0, [r7, #-116]!	; 0x74
 45c:	00323374 	eorseq	r3, r2, r4, ror r3
 460:	755f7773 	ldrbvc	r7, [pc, #-1907]	; fffffcf5 <__bss_end__+0xffff117d>
 464:	5f747261 	svcpl	0x00747261
 468:	74696e69 	strbtvc	r6, [r9], #-3689	; 0xe69
 46c:	6c65685f 	stclvs	8, cr6, [r5], #-380	; 0xfffffe84
 470:	00726570 	rsbseq	r6, r2, r0, ror r5
 474:	6f697067 	svcvs	0x00697067
 478:	6e75665f 	mrcvs	6, 3, r6, cr5, cr15, {2}
 47c:	00745f63 	rsbseq	r5, r4, r3, ror #30
 480:	5f646f6d 	svcpl	0x00646f6d
 484:	695f7874 	ldmdbvs	pc, {r2, r4, r5, r6, fp, ip, sp, lr}^	; <UNPREDICTABLE>
 488:	7265746e 	rsbvc	r7, r5, #1845493760	; 0x6e000000
 48c:	74707572 	ldrbtvc	r7, [r0], #-1394	; 0x572
 490:	50470073 	subpl	r0, r7, r3, ror r0
 494:	465f4f49 	ldrbmi	r4, [pc], -r9, asr #30
 498:	5f434e55 	svcpl	0x00434e55
 49c:	30544c41 	subscc	r4, r4, r1, asr #24
 4a0:	49504700 	ldmdbmi	r0, {r8, r9, sl, lr}^
 4a4:	55465f4f 	strbpl	r5, [r6, #-3919]	; 0xf4f
 4a8:	415f434e 	cmpmi	pc, lr, asr #6
 4ac:	0031544c 	eorseq	r5, r1, ip, asr #8
 4b0:	4f495047 	svcmi	0x00495047
 4b4:	4e55465f 	mrcmi	6, 2, r4, cr5, cr15, {2}
 4b8:	4c415f43 	mcrrmi	15, 4, r5, r1, cr3
 4bc:	47003254 	smlsdmi	r0, r4, r2, r3
 4c0:	5f4f4950 	svcpl	0x004f4950
 4c4:	434e5546 	movtmi	r5, #58694	; 0xe546
 4c8:	544c415f 	strbpl	r4, [ip], #-351	; 0x15f
 4cc:	50470033 	subpl	r0, r7, r3, lsr r0
 4d0:	465f4f49 	ldrbmi	r4, [pc], -r9, asr #30
 4d4:	5f434e55 	svcpl	0x00434e55
 4d8:	34544c41 	ldrbcc	r4, [r4], #-3137	; 0xc41
 4dc:	49504700 	ldmdbmi	r0, {r8, r9, sl, lr}^
 4e0:	55465f4f 	strbpl	r5, [r6, #-3919]	; 0xf4f
 4e4:	415f434e 	cmpmi	pc, lr, asr #6
 4e8:	0035544c 	eorseq	r5, r5, ip, asr #8
 4ec:	74726175 	ldrbtvc	r6, [r2], #-373	; 0x175
 4f0:	7361685f 	cmnvc	r1, #6225920	; 0x5f0000
 4f4:	746e695f 	strbtvc	r6, [lr], #-2399	; 0x95f
 4f8:	63796300 	cmnvs	r9, #0, 6
 4fc:	705f656c 	subsvc	r6, pc, ip, ror #10
 500:	625f7265 	subsvs	r7, pc, #1342177286	; 0x50000006
 504:	73007469 	movwvc	r7, #1129	; 0x469
 508:	65747379 	ldrbvs	r7, [r4, #-889]!	; 0x379
 50c:	69645f6d 	stmdbvs	r4!, {r0, r2, r3, r5, r6, r8, r9, sl, fp, ip, lr}^
 510:	6c626173 	stfvse	f6, [r2], #-460	; 0xfffffe34
 514:	6e695f65 	cdpvs	15, 6, cr5, cr9, cr5, {3}
 518:	72726574 	rsbsvc	r6, r2, #116, 10	; 0x1d000000
 51c:	73747075 	cmnvc	r4, #117	; 0x75
 520:	5f776800 	svcpl	0x00776800
 524:	74726175 	ldrbtvc	r6, [r2], #-373	; 0x175
 528:	6d00745f 	cfstrsvs	mvf7, [r0, #-380]	; 0xfffffe84
 52c:	75705f79 	ldrbvc	r5, [r0, #-3961]!	; 0xf79
 530:	63007374 	movwvs	r7, #884	; 0x374
 534:	75665f71 	strbvc	r5, [r6, #-3953]!	; 0xf71
 538:	61006c6c 	tstvs	r0, ip, ror #24
 53c:	745f6d72 	ldrbvc	r6, [pc], #-3442	; 544 <_start-0x7abc>
 540:	72656d69 	rsbvc	r6, r5, #6720	; 0x1a40
 544:	6572465f 	ldrbvs	r4, [r2, #-1631]!	; 0x65f
 548:	6e755265 	cdpvs	2, 7, cr5, cr5, cr5, {3}
 54c:	676e696e 	strbvs	r6, [lr, -lr, ror #18]!
 550:	6e756f43 	cdpvs	15, 7, cr6, cr5, cr3, {2}
 554:	00726574 	rsbseq	r6, r2, r4, ror r5
 558:	6362696c 	cmnvs	r2, #108, 18	; 0x1b0000
 55c:	6d656d2f 	stclvs	13, cr6, [r5, #-188]!	; 0xffffff44
 560:	2e746573 	mrccs	5, 3, r6, cr4, cr3, {3}
 564:	552f0063 	strpl	r0, [pc, #-99]!	; 509 <_start-0x7af7>
 568:	73726573 	cmnvc	r2, #482344960	; 0x1cc00000
 56c:	6972622f 	ldmdbvs	r2!, {r0, r1, r2, r3, r5, r9, sp, lr}^
 570:	756a6e61 	strbvc	r6, [sl, #-3681]!	; 0xe61
 574:	65442f6e 	strbvs	r2, [r4, #-3950]	; 0xf6e
 578:	6f746b73 	svcvs	0x00746b73
 57c:	63732f70 	cmnvs	r3, #112, 30	; 0x1c0
 580:	6c6f6f68 	stclvs	15, cr6, [pc], #-416	; 3e8 <_start-0x7c18>
 584:	6e69572f 	cdpvs	7, 6, cr5, cr9, cr15, {1}
 588:	31726574 	cmncc	r2, r4, ror r5
 58c:	2f303239 	svccs	0x00303239
 590:	34315343 	ldrtcc	r5, [r1], #-835	; 0x343
 594:	632f4530 	teqvs	pc, #48, 10	; 0xc000000
 598:	30343173 	eorscc	r3, r4, r3, ror r1
 59c:	30322d65 	eorscc	r2, r2, r5, ror #26
 5a0:	2f6e6977 	svccs	0x006e6977
 5a4:	7062696c 	rsbvc	r6, r2, ip, ror #18
 5a8:	5f5f0069 	svcpl	0x005f0069
 5ac:	63756e67 	cmnvs	r5, #1648	; 0x670
 5b0:	5f61765f 	svcpl	0x0061765f
 5b4:	7473696c 	ldrbtvc	r6, [r3], #-2412	; 0x96c
 5b8:	62696c00 	rsbvs	r6, r9, #0, 24
 5bc:	72702f63 	rsbsvc	r2, r0, #396	; 0x18c
 5c0:	6b746e69 	blvs	1d1bf6c <__bss_end__+0x1d0d3f4>
 5c4:	7600632e 	strvc	r6, [r0], -lr, lsr #6
 5c8:	72705f61 	rsbsvc	r5, r0, #388	; 0x184
 5cc:	6b746e69 	blvs	1d1bf78 <__bss_end__+0x1d0d400>
 5d0:	765f5f00 	ldrbvc	r5, [pc], -r0, lsl #30
 5d4:	696c5f61 	stmdbvs	ip!, {r0, r5, r6, r8, r9, sl, fp, ip, lr}^
 5d8:	61007473 	tstvs	r0, r3, ror r4
 5dc:	00736772 	rsbseq	r6, r3, r2, ror r7
 5e0:	70615f5f 	rsbvc	r5, r1, pc, asr pc
 5e4:	746e6900 	strbtvc	r6, [lr], #-2304	; 0x900
 5e8:	616e7265 	cmnvs	lr, r5, ror #4
 5ec:	75705f6c 	ldrbvc	r5, [r0, #-3948]!	; 0xf6c
 5f0:	61686374 	smcvs	34356	; 0x8634
 5f4:	70720072 	rsbsvc	r0, r2, r2, ror r0
 5f8:	75705f69 	ldrbvc	r5, [r0, #-3945]!	; 0xf69
 5fc:	61686374 	smcvs	34356	; 0x8634
 600:	696c0072 	stmdbvs	ip!, {r1, r4, r5, r6}^
 604:	702f6362 	eorvc	r6, pc, r2, ror #6
 608:	68637475 	stmdavs	r3!, {r0, r2, r4, r5, r6, sl, ip, sp, lr}^
 60c:	632e7261 	teqvs	lr, #268435462	; 0x10000006
 610:	69707200 	ldmdbvs	r0!, {r9, ip, sp, lr}^
 614:	7465735f 	strbtvc	r7, [r5], #-863	; 0x35f
 618:	7475705f 	ldrbtvc	r7, [r5], #-95	; 0x5f
 61c:	696c0063 	stmdbvs	ip!, {r0, r1, r5, r6}^
 620:	702f6362 	eorvc	r6, pc, r2, ror #6
 624:	2e6b7475 	mcrcs	4, 3, r7, cr11, cr5, {3}
 628:	6e690063 	cdpvs	0, 6, cr0, cr9, cr3, {3}
 62c:	6e726574 	mrcvs	5, 3, r6, cr2, cr4, {3}
 630:	705f6c61 	subsvc	r6, pc, r1, ror #24
 634:	006b7475 	rsbeq	r7, fp, r5, ror r4
 638:	5f67656e 	svcpl	0x0067656e
 63c:	65720070 	ldrbvs	r0, [r2, #-112]!	; 0x70
 640:	73726576 	cmnvc	r2, #494927872	; 0x1d800000
 644:	73690065 	cmnvc	r9, #101	; 0x65
 648:	69676964 	stmdbvs	r7!, {r2, r5, r6, r8, fp, sp, lr}^
 64c:	75700074 	ldrbvc	r0, [r0, #-116]!	; 0x74
 650:	665f7374 			; <UNDEFINED> instruction: 0x665f7374
 654:	61620070 	smcvs	8192	; 0x2000
 658:	73006573 	movwvc	r6, #1395	; 0x573
 65c:	656e6769 	strbvs	r6, [lr, #-1897]!	; 0x769
 660:	00705f64 	rsbseq	r5, r0, r4, ror #30
 664:	6362696c 	cmnvs	r2, #108, 18	; 0x1b0000
 668:	2d61762f 	stclcs	6, cr7, [r1, #-188]!	; 0xffffff44
 66c:	6e697270 	mcrvs	2, 3, r7, cr9, cr0, {3}
 670:	632e6b74 	teqvs	lr, #116, 22	; 0x1d000
 674:	69707200 	ldmdbvs	r0!, {r9, ip, sp, lr}^
 678:	7465735f 	strbtvc	r7, [r5], #-863	; 0x35f
 67c:	74756f5f 	ldrbtvc	r6, [r5], #-3935	; 0xf5f
 680:	00747570 	rsbseq	r7, r4, r0, ror r5
 684:	74646977 	strbtvc	r6, [r4], #-2423	; 0x977
 688:	75700068 	ldrbvc	r0, [r0, #-104]!	; 0x68
 68c:	665f6374 			; <UNDEFINED> instruction: 0x665f6374
 690:	6d650070 	stclvs	0, cr0, [r5, #-448]!	; 0xfffffe40
 694:	72007469 	andvc	r7, r0, #1761607680	; 0x69000000
 698:	725f6970 	subsvc	r6, pc, #112, 18	; 0x1c0000
 69c:	6f6f6265 	svcvs	0x006f6265
 6a0:	73630074 	cmnvc	r3, #116	; 0x74
 6a4:	65303431 	ldrvs	r3, [r0, #-1073]!	; 0x431
 6a8:	6372732d 	cmnvs	r2, #-1275068416	; 0xb4000000
 6ac:	656c632f 	strbvs	r6, [ip, #-815]!	; 0x32f
 6b0:	722d6e61 	eorvc	r6, sp, #1552	; 0x610
 6b4:	6f6f6265 	svcvs	0x006f6265
 6b8:	00632e74 	rsbeq	r2, r3, r4, ror lr
 6bc:	616c6564 	cmnvs	ip, r4, ror #10
 6c0:	736d5f79 	cmnvc	sp, #484	; 0x1e4
 6c4:	746e6900 	strbtvc	r6, [lr], #-2304	; 0x900
 6c8:	616e7265 	cmnvs	lr, r5, ror #4
 6cc:	77735f6c 	ldrbvc	r5, [r3, -ip, ror #30]!
 6d0:	7475705f 	ldrbtvc	r7, [r5], #-95	; 0x5f
 6d4:	72616863 	rsbvc	r6, r1, #6488064	; 0x630000
 6d8:	625f5f00 	subsvs	r5, pc, #0, 30
 6dc:	735f7373 	cmpvc	pc, #-872415231	; 0xcc000001
 6e0:	74726174 	ldrbtvc	r6, [r2], #-372	; 0x174
 6e4:	62005f5f 	andvs	r5, r0, #380	; 0x17c
 6e8:	655f7373 	ldrbvs	r7, [pc, #-883]	; 37d <_start-0x7c83>
 6ec:	6300646e 	movwvs	r6, #1134	; 0x46e
 6f0:	6f736e6f 	svcvs	0x00736e6f
 6f4:	755f656c 	ldrbvc	r6, [pc, #-1388]	; 190 <_start-0x7e70>
 6f8:	00747261 	rsbseq	r7, r4, r1, ror #4
 6fc:	755f7773 	ldrbvc	r7, [pc, #-1907]	; ffffff91 <__bss_end__+0xffff1419>
 700:	5f747261 	svcpl	0x00747261
 704:	6e697270 	mcrvs	2, 3, r7, cr9, cr0, {3}
 708:	50006b74 	andpl	r6, r0, r4, ror fp
 70c:	5f435455 	svcpl	0x00435455
 710:	5f505345 	svcpl	0x00505345
 714:	54524155 	ldrbpl	r4, [r2], #-341	; 0x155
 718:	54555000 	ldrbpl	r5, [r5], #-0
 71c:	57535f43 	ldrbpl	r5, [r3, -r3, asr #30]
 720:	5241555f 	subpl	r5, r1, #398458880	; 0x17c00000
 724:	55500054 	ldrbpl	r0, [r0, #-84]	; 0x54
 728:	485f4354 	ldmdami	pc, {r2, r4, r6, r8, r9, lr}^	; <UNPREDICTABLE>
 72c:	41555f57 	cmpmi	r5, r7, asr pc
 730:	5f005452 	svcpl	0x00005452
 734:	61747363 	cmnvs	r4, r3, ror #6
 738:	75007472 	strvc	r7, [r0, #-1138]	; 0x472
 73c:	5f747261 	svcpl	0x00747261
 740:	5f766564 	svcpl	0x00766564
 744:	6f630074 	svcvs	0x00630074
 748:	6f72746e 	svcvs	0x0072746e
 74c:	6c625f6c 	stclvs	15, cr5, [r2], #-432	; 0xfffffe50
 750:	00745f6b 	rsbseq	r5, r4, fp, ror #30
 754:	755f7773 	ldrbvc	r7, [pc, #-1907]	; ffffffe9 <__bss_end__+0xffff1471>
 758:	00747261 	rsbseq	r7, r4, r1, ror #4
 75c:	675f6263 	ldrbvs	r6, [pc, -r3, ror #4]
 760:	625f7465 	subsvs	r7, pc, #1694498816	; 0x65000000
 764:	6b636f6c 	blvs	18dc51c <__bss_end__+0x18cd9a4>
 768:	625f5f00 	subsvs	r5, pc, #0, 30
 76c:	655f7373 	ldrbvs	r7, [pc, #-883]	; 401 <_start-0x7bff>
 770:	5f5f646e 	svcpl	0x005f646e
 774:	31736300 	cmncc	r3, r0, lsl #6
 778:	2d653034 	stclcs	0, cr3, [r5, #-208]!	; 0xffffff30
 77c:	2f637273 	svccs	0x00637273
 780:	61747363 	cmnvs	r4, r3, ror #6
 784:	632e7472 	teqvs	lr, #1912602624	; 0x72000000
 788:	6e6f6300 	cdpvs	3, 6, cr6, cr15, cr0, {0}
 78c:	656c6f73 	strbvs	r6, [ip, #-3955]!	; 0xf73
 790:	7665645f 			; <UNDEFINED> instruction: 0x7665645f
 794:	67616d00 	strbvs	r6, [r1, -r0, lsl #26]!
 798:	61006369 	tstvs	r0, r9, ror #6
 79c:	73755f74 	cmnvc	r5, #116, 30	; 0x1d0
 7a0:	6c5f7265 	lfmvs	f7, 2, [pc], {101}	; 0x65
 7a4:	6c657665 	stclvs	6, cr7, [r5], #-404	; 0xfffffe6c
 7a8:	5f4d5000 	svcpl	0x004d5000
 7ac:	53534150 	cmppl	r3, #80, 2
 7b0:	44524f57 	ldrbmi	r4, [r2], #-3927	; 0xf57
 7b4:	31736300 	cmncc	r3, r0, lsl #6
 7b8:	2d653034 	stclcs	0, cr3, [r5, #-208]!	; 0xffffff30
 7bc:	2f637273 	svccs	0x00637273
 7c0:	6f626572 	svcvs	0x00626572
 7c4:	632e746f 	teqvs	lr, #1862270976	; 0x6f000000
 7c8:	5f4d5000 	svcpl	0x004d5000
 7cc:	43545352 	cmpmi	r4, #1207959553	; 0x48000001
 7d0:	4352575f 	cmpmi	r2, #24903680	; 0x17c0000
 7d4:	465f4746 	ldrbmi	r4, [pc], -r6, asr #14
 7d8:	5f4c4c55 	svcpl	0x004c4c55
 7dc:	45534552 	ldrbmi	r4, [r3, #-1362]	; 0x552
 7e0:	4d500054 	ldclmi	0, cr0, [r0, #-336]	; 0xfffffeb0
 7e4:	4f44575f 	svcmi	0x0044575f
 7e8:	65730047 	ldrbvs	r0, [r3, #-71]!	; 0x47
 7ec:	73755f74 	cmnvc	r5, #116, 30	; 0x1d0
 7f0:	6c5f7265 	lfmvs	f7, 2, [pc], {101}	; 0x65
 7f4:	6c657665 	stclvs	6, cr7, [r5], #-404	; 0xfffffe6c
 7f8:	54555000 	ldrbpl	r5, [r5], #-0
 7fc:	50003233 	andpl	r3, r0, r3, lsr r2
 800:	53525f4d 	cmppl	r2, #308	; 0x134
 804:	63004354 	movwvs	r4, #852	; 0x354
 808:	00727370 	rsbseq	r7, r2, r0, ror r3
 80c:	656d6974 	strbvs	r6, [sp, #-2420]!	; 0x974
 810:	65675f72 	strbvs	r5, [r7, #-3954]!	; 0xf72
 814:	73755f74 	cmnvc	r5, #116, 30	; 0x1d0
 818:	725f6365 	subsvc	r6, pc, #-1811939327	; 0x94000001
 81c:	64007761 	strvs	r7, [r0], #-1889	; 0x761
 820:	79616c65 	stmdbvc	r1!, {r0, r2, r5, r6, sl, fp, sp, lr}^
 824:	6365735f 	cmnvs	r5, #2080374785	; 0x7c000001
 828:	31736300 	cmncc	r3, r0, lsl #6
 82c:	2d653034 	stclcs	0, cr3, [r5, #-208]!	; 0xffffff30
 830:	2f637273 	svccs	0x00637273
 834:	656d6974 	strbvs	r6, [sp, #-2420]!	; 0x974
 838:	00632e72 	rsbeq	r2, r3, r2, ror lr
 83c:	33544547 	cmpcc	r4, #297795584	; 0x11c00000
 840:	69740032 	ldmdbvs	r4!, {r1, r4, r5}^
 844:	00736b63 	rsbseq	r6, r3, r3, ror #22
 848:	616c6564 	cmnvs	ip, r4, ror #10
 84c:	79635f79 	stmdbvc	r3!, {r0, r3, r4, r5, r6, r8, r9, sl, fp, ip, lr}^
 850:	73656c63 	cmnvc	r5, #25344	; 0x6300
 854:	6c656400 	cfstrdvs	mvd6, [r5], #-0
 858:	755f7961 	ldrbvc	r7, [pc, #-2401]	; fffffeff <__bss_end__+0xffff1387>
 85c:	69740073 	ldmdbvs	r4!, {r0, r1, r4, r5, r6}^
 860:	5f72656d 	svcpl	0x0072656d
 864:	5f746567 	svcpl	0x00746567
 868:	63657375 	cmnvs	r5, #-738197503	; 0xd4000001
 86c:	69706700 	ldmdbvs	r0!, {r8, r9, sl, sp, lr}^
 870:	76655f6f 	strbtvc	r5, [r5], -pc, ror #30
 874:	5f746e65 	svcpl	0x00746e65
 878:	65746564 	ldrbvs	r6, [r4, #-1380]!	; 0x564
 87c:	64657463 	strbtvs	r7, [r5], #-1123	; 0x463
 880:	46504700 	ldrbmi	r4, [r0], -r0, lsl #14
 884:	324c4553 	subcc	r4, ip, #348127232	; 0x14c00000
 888:	43504700 	cmpmi	r0, #0, 14
 88c:	0030524c 	eorseq	r5, r0, ip, asr #4
 890:	42414e45 	submi	r4, r1, #1104	; 0x450
 894:	495f454c 	ldmdbmi	pc, {r2, r3, r6, r8, sl, lr}^	; <UNPREDICTABLE>
 898:	5f535152 	svcpl	0x00535152
 89c:	73690032 	cmnvc	r9, #50	; 0x32
 8a0:	6970675f 	ldmdbvs	r0!, {r0, r1, r2, r3, r4, r6, r8, r9, sl, sp, lr}^
 8a4:	6e695f6f 	cdpvs	15, 6, cr5, cr9, cr15, {3}
 8a8:	70670074 	rsbvc	r0, r7, r4, ror r0
 8ac:	735f6f69 	cmpvc	pc, #420	; 0x1a4
 8b0:	6f5f7465 	svcvs	0x005f7465
 8b4:	6d006666 	stcvs	6, cr6, [r0, #-408]	; 0xfffffe68
 8b8:	72732d79 	rsbsvc	r2, r3, #7744	; 0x1e40
 8bc:	70672f63 	rsbvc	r2, r7, r3, ror #30
 8c0:	632e6f69 	teqvs	lr, #420	; 0x1a4
 8c4:	746e6900 	strbtvc	r6, [lr], #-2304	; 0x900
 8c8:	73616d5f 	cmnvc	r1, #6080	; 0x17c0
 8cc:	5047006b 	subpl	r0, r7, fp, rrx
 8d0:	30544553 	subscc	r4, r4, r3, asr r5
 8d4:	53504700 	cmppl	r0, #0, 14
 8d8:	00315445 	eorseq	r5, r1, r5, asr #8
 8dc:	5f676572 	svcpl	0x00676572
 8e0:	74617473 	strbtvc	r7, [r1], #-1139	; 0x473
 8e4:	4c504700 	mrrcmi	7, 0, r4, r0, cr0
 8e8:	00305645 	eorseq	r5, r0, r5, asr #12
 8ec:	454c5047 	strbmi	r5, [ip, #-71]	; 0x47
 8f0:	67003156 	smlsdvs	r0, r6, r1, r3
 8f4:	5f6f6970 	svcpl	0x006f6970
 8f8:	00676572 	rsbeq	r6, r7, r2, ror r5
 8fc:	53465047 	movtpl	r5, #24647	; 0x6047
 900:	00304c45 	eorseq	r4, r0, r5, asr #24
 904:	53465047 	movtpl	r5, #24647	; 0x6047
 908:	00314c45 	eorseq	r4, r1, r5, asr #24
 90c:	53465047 	movtpl	r5, #24647	; 0x6047
 910:	00334c45 	eorseq	r4, r3, r5, asr #24
 914:	53465047 	movtpl	r5, #24647	; 0x6047
 918:	00344c45 	eorseq	r4, r4, r5, asr #24
 91c:	53465047 	movtpl	r5, #24647	; 0x6047
 920:	00354c45 	eorseq	r4, r5, r5, asr #24
 924:	6f697067 	svcvs	0x00697067
 928:	6573665f 	ldrbvs	r6, [r3, #-1631]!	; 0x65f
 92c:	4700306c 	strmi	r3, [r0, -ip, rrx]
 930:	524c4350 	subpl	r4, ip, #80, 6	; 0x40000001
 934:	70670031 	rsbvc	r0, r7, r1, lsr r0
 938:	725f6f69 	subsvc	r6, pc, #420	; 0x1a4
 93c:	00646165 	rsbeq	r6, r4, r5, ror #2
 940:	6f697067 	svcvs	0x00697067
 944:	746e695f 	strbtvc	r6, [lr], #-2399	; 0x95f
 948:	7369725f 	cmnvc	r9, #-268435451	; 0xf0000005
 94c:	5f676e69 	svcpl	0x00676e69
 950:	65676465 	strbvs	r6, [r7, #-1125]!	; 0x465
 954:	52504700 	subspl	r4, r0, #0, 14
 958:	00304e45 	eorseq	r4, r0, r5, asr #28
 95c:	45525047 	ldrbmi	r5, [r2, #-71]	; 0x47
 960:	6700314e 	strvs	r3, [r0, -lr, asr #2]
 964:	5f6f6970 	svcpl	0x006f6970
 968:	6e657665 	cdpvs	6, 6, cr7, cr5, cr5, {3}
 96c:	6c635f74 	stclvs	15, cr5, [r3], #-464	; 0xfffffe30
 970:	00726165 	rsbseq	r6, r2, r5, ror #2
 974:	5f515249 	svcpl	0x00515249
 978:	444e4550 	strbmi	r4, [lr], #-1360	; 0x550
 97c:	5f474e49 	svcpl	0x00474e49
 980:	52490031 	subpl	r0, r9, #49	; 0x31
 984:	45505f51 	ldrbmi	r5, [r0, #-3921]	; 0xf51
 988:	4e49444e 	cdpmi	4, 4, cr4, cr9, cr14, {2}
 98c:	00325f47 	eorseq	r5, r2, r7, asr #30
 990:	6d746962 	ldclvs	9, cr6, [r4, #-392]!	; 0xfffffe78
 994:	006b7361 	rsbeq	r7, fp, r1, ror #6
 998:	6f697067 	svcvs	0x00697067
 99c:	6972775f 	ldmdbvs	r2!, {r0, r1, r2, r3, r4, r6, r8, r9, sl, ip, sp, lr}^
 9a0:	67006574 	smlsdxvs	r0, r4, r5, r6
 9a4:	5f6f6970 	svcpl	0x006f6970
 9a8:	30746573 	rsbscc	r6, r4, r3, ror r5
 9ac:	6e756600 	cdpvs	6, 7, cr6, cr5, cr0, {0}
 9b0:	70670063 	rsbvc	r0, r7, r3, rrx
 9b4:	735f6f69 	cmpvc	pc, #420	; 0x1a4
 9b8:	695f7465 	ldmdbvs	pc, {r0, r2, r5, r6, sl, ip, sp, lr}^	; <UNPREDICTABLE>
 9bc:	7475706e 	ldrbtvc	r7, [r5], #-110	; 0x6e
 9c0:	45504700 	ldrbmi	r4, [r0, #-1792]	; 0x700
 9c4:	00305344 	eorseq	r5, r0, r4, asr #6
 9c8:	44455047 	strbmi	r5, [r5], #-71	; 0x47
 9cc:	67003153 	smlsdvs	r0, r3, r1, r3
 9d0:	5f6f6970 	svcpl	0x006f6970
 9d4:	5f746573 	svcpl	0x00746573
 9d8:	47006e6f 	strmi	r6, [r0, -pc, ror #28]
 9dc:	4e454650 	mcrmi	6, 2, r4, cr5, cr0, {2}
 9e0:	50470030 	subpl	r0, r7, r0, lsr r0
 9e4:	314e4546 	cmpcc	lr, r6, asr #10
 9e8:	69706700 	ldmdbvs	r0!, {r8, r9, sl, sp, lr}^
 9ec:	65735f6f 	ldrbvs	r5, [r3, #-3951]!	; 0xf6f
 9f0:	756f5f74 	strbvc	r5, [pc, #-3956]!	; fffffa84 <__bss_end__+0xffff0f0c>
 9f4:	74757074 	ldrbtvc	r7, [r5], #-116	; 0x74
 9f8:	69706700 	ldmdbvs	r0!, {r8, r9, sl, sp, lr}^
 9fc:	6e695f6f 	cdpvs	15, 6, cr5, cr9, cr15, {3}
 a00:	61665f74 	smcvs	26100	; 0x65f4
 a04:	6e696c6c 	cdpvs	12, 6, cr6, cr9, cr12, {3}
 a08:	64655f67 	strbtvs	r5, [r5], #-3943	; 0xf67
 a0c:	72006567 	andvc	r6, r0, #432013312	; 0x19c00000
 a10:	735f6765 	cmpvc	pc, #26476544	; 0x1940000
 a14:	63656c65 	cmnvs	r5, #25856	; 0x6500
 a18:	70670074 	rsbvc	r0, r7, r4, ror r0
 a1c:	635f6f69 	cmpvs	pc, #420	; 0x1a4
 a20:	0030726c 	eorseq	r7, r0, ip, ror #4
 a24:	5f637963 	svcpl	0x00637963
 a28:	5f726570 	svcpl	0x00726570
 a2c:	00746962 	rsbseq	r6, r4, r2, ror #18
 a30:	74697277 	strbtvc	r7, [r9], #-631	; 0x277
 a34:	79635f65 	stmdbvc	r3!, {r0, r2, r5, r6, r8, r9, sl, fp, ip, lr}^
 a38:	6e755f63 	cdpvs	15, 7, cr5, cr5, cr3, {3}
 a3c:	006c6974 	rsbeq	r6, ip, r4, ror r9
 a40:	755f7773 	ldrbvc	r7, [pc, #-1907]	; 2d5 <_start-0x7d2b>
 a44:	5f747261 	svcpl	0x00747261
 a48:	63746567 	cmnvs	r4, #432013312	; 0x19c00000
 a4c:	6d69745f 	cfstrdvs	mvd7, [r9, #-380]!	; 0xfffffe84
 a50:	74756f65 	ldrbtvc	r6, [r5], #-3941	; 0xf65
 a54:	5f777300 	svcpl	0x00777300
 a58:	74726175 	ldrbtvc	r6, [r2], #-373	; 0x175
 a5c:	7465675f 	strbtvc	r6, [r5], #-1887	; 0x75f
 a60:	6e755f73 	mrcvs	15, 3, r5, cr5, cr3, {3}
 a64:	006c6974 	rsbeq	r6, ip, r4, ror r9
 a68:	755f7773 	ldrbvc	r7, [pc, #-1907]	; 2fd <_start-0x7d03>
 a6c:	5f747261 	svcpl	0x00747261
 a70:	63746567 	cmnvs	r4, #432013312	; 0x19c00000
 a74:	72656400 	rsbvc	r6, r5, #0, 8
 a78:	64657669 	strbtvs	r7, [r5], #-1641	; 0x669
 a7c:	6c656400 	cfstrdvs	mvd6, [r5], #-0
 a80:	6e5f7961 	cdpvs	9, 5, cr7, cr15, cr1, {3}
 a84:	6c637963 	stclvs	9, cr7, [r3], #-396	; 0xfffffe74
 a88:	74007365 	strvc	r7, [r0], #-869	; 0x365
 a8c:	6f656d69 	svcvs	0x00656d69
 a90:	755f7475 	ldrbvc	r7, [pc, #-1141]	; 623 <_start-0x79dd>
 a94:	00636573 	rsbeq	r6, r3, r3, ror r5
 a98:	755f7773 	ldrbvc	r7, [pc, #-1907]	; 32d <_start-0x7cd3>
 a9c:	5f747261 	svcpl	0x00747261
 aa0:	6b747570 	blvs	1d1e068 <__bss_end__+0x1d0f4f0>
 aa4:	2d796d00 	ldclcs	13, cr6, [r9, #-0]
 aa8:	2f637273 	svccs	0x00637273
 aac:	752d7773 	strvc	r7, [sp, #-1907]!	; 0x773
 ab0:	2e747261 	cdpcs	2, 7, cr7, cr4, cr1, {3}
 ab4:	68630063 	stmdavs	r3!, {r0, r1, r5, r6}^
 ab8:	695f7261 	ldmdbvs	pc, {r0, r5, r6, r9, ip, sp, lr}^	; <UNPREDICTABLE>
 abc:	7773006e 	ldrbvc	r0, [r3, -lr, rrx]!
 ac0:	7261755f 	rsbvc	r7, r1, #398458880	; 0x17c00000
 ac4:	65675f74 	strbvs	r5, [r7, #-3956]!	; 0xf74
 ac8:	745f7374 	ldrbvc	r7, [pc], #-884	; ad0 <_start-0x7530>
 acc:	6f656d69 	svcvs	0x00656d69
 ad0:	5f007475 	svcpl	0x00007475
 ad4:	0074756f 	rsbseq	r7, r4, pc, ror #10
 ad8:	7479626e 	ldrbtvc	r6, [r9], #-622	; 0x26e
 adc:	75007365 	strvc	r7, [r0, #-869]	; 0x365
 ae0:	5f636573 	svcpl	0x00636573
 ae4:	656d6974 	strbvs	r6, [sp, #-2420]!	; 0x974
 ae8:	0074756f 	rsbseq	r7, r4, pc, ror #10
 aec:	755f7773 	ldrbvc	r7, [pc, #-1907]	; 381 <_start-0x7c7f>
 af0:	5f747261 	svcpl	0x00747261
 af4:	73746567 	cmnvc	r4, #432013312	; 0x19c00000
 af8:	746e755f 	strbtvc	r7, [lr], #-1375	; 0x55f
 afc:	625f6c69 	subsvs	r6, pc, #26880	; 0x6900
 b00:	77006b6c 	strvc	r6, [r0, -ip, ror #22]
 b04:	5f746961 	svcpl	0x00746961
 b08:	69746e75 	ldmdbvs	r4!, {r0, r2, r4, r5, r6, r9, sl, fp, sp, lr}^
 b0c:	73755f6c 	cmnvc	r5, #108, 30	; 0x1b0
 b10:	41006365 	tstmi	r0, r5, ror #6
 b14:	4d5f5855 	ldclmi	8, cr5, [pc, #-340]	; 9c8 <_start-0x7638>
 b18:	434d5f55 	movtmi	r5, #57173	; 0xdf55
 b1c:	45525f52 	ldrbmi	r5, [r2, #-3922]	; 0xf52
 b20:	55410047 	strbpl	r0, [r1, #-71]	; 0x47
 b24:	554d5f58 	strbpl	r5, [sp, #-3928]	; 0xf58
 b28:	52534d5f 	subspl	r4, r3, #6080	; 0x17c0
 b2c:	4745525f 	smlsldmi	r5, r5, pc, r2	; <UNPREDICTABLE>
 b30:	58554100 	ldmdapl	r5, {r8, lr}^
 b34:	5f554d5f 	svcpl	0x00554d5f
 b38:	4c544e43 	mrrcmi	14, 4, r4, r4, cr3	; <UNPREDICTABLE>
 b3c:	4745525f 	smlsldmi	r5, r5, pc, r2	; <UNPREDICTABLE>
 b40:	72617500 	rsbvc	r7, r1, #0, 10
 b44:	61685f74 	smcvs	34292	; 0x85f4
 b48:	61645f73 	smcvs	17907	; 0x45f3
 b4c:	75006174 	strvc	r6, [r0, #-372]	; 0x174
 b50:	5f747261 	svcpl	0x00747261
 b54:	74696e69 	strbtvc	r6, [r9], #-3689	; 0xe69
 b58:	58554100 	ldmdapl	r5, {r8, lr}^
 b5c:	5f554d5f 	svcpl	0x00554d5f
 b60:	5f524549 	svcpl	0x00524549
 b64:	00474552 	subeq	r4, r7, r2, asr r5
 b68:	5f585541 	svcpl	0x00585541
 b6c:	495f554d 	ldmdbmi	pc, {r0, r2, r3, r6, r8, sl, ip, lr}^	; <UNPREDICTABLE>
 b70:	525f5249 	subspl	r5, pc, #-1879048188	; 0x90000004
 b74:	41004745 	tstmi	r0, r5, asr #14
 b78:	4d5f5855 	ldclmi	8, cr5, [pc, #-340]	; a2c <_start-0x75d4>
 b7c:	41425f55 	cmpmi	r2, r5, asr pc
 b80:	525f4455 	subspl	r4, pc, #1426063360	; 0x55000000
 b84:	41004745 	tstmi	r0, r5, asr #14
 b88:	4d5f5855 	ldclmi	8, cr5, [pc, #-340]	; a3c <_start-0x75c4>
 b8c:	54535f55 	ldrbpl	r5, [r3], #-3925	; 0xf55
 b90:	525f5441 	subspl	r5, pc, #1090519040	; 0x41000000
 b94:	41004745 	tstmi	r0, r5, asr #14
 b98:	4d5f5855 	ldclmi	8, cr5, [pc, #-340]	; a4c <_start-0x75b4>
 b9c:	43535f55 	cmpmi	r3, #340	; 0x154
 ba0:	43544152 	cmpmi	r4, #-2147483628	; 0x80000014
 ba4:	796d0048 	stmdbvc	sp!, {r3, r6}^
 ba8:	6372732d 	cmnvs	r2, #-1275068416	; 0xb4000000
 bac:	7261752f 	rsbvc	r7, r1, #197132288	; 0xbc00000
 bb0:	00632e74 	rsbeq	r2, r3, r4, ror lr
 bb4:	5f585541 	svcpl	0x00585541
 bb8:	4c5f554d 	cfldr64mi	mvdx5, [pc], {77}	; 0x4d
 bbc:	525f5243 	subspl	r5, pc, #805306372	; 0x30000004
 bc0:	41004745 	tstmi	r0, r5, asr #14
 bc4:	4d5f5855 	ldclmi	8, cr5, [pc, #-340]	; a78 <_start-0x7588>
 bc8:	534c5f55 	movtpl	r5, #53077	; 0xcf55
 bcc:	45525f52 	ldrbmi	r5, [r2, #-3922]	; 0xf52
 bd0:	61750047 	cmnvs	r5, r7, asr #32
 bd4:	675f7472 			; <UNDEFINED> instruction: 0x675f7472
 bd8:	5f637465 	svcpl	0x00637465
 bdc:	6e797361 	cdpvs	3, 7, cr7, cr9, cr1, {3}
 be0:	72700063 	rsbsvc	r0, r0, #99	; 0x63
 be4:	74656665 	strbtvc	r6, [r5], #-1637	; 0x665
 be8:	615f6863 	cmpvs	pc, r3, ror #16
 bec:	74726f62 	ldrbtvc	r6, [r2], #-3938	; 0xf62
 bf0:	6365765f 	cmnvs	r5, #99614720	; 0x5f00000
 bf4:	00726f74 	rsbseq	r6, r2, r4, ror pc
 bf8:	61736944 	cmnvs	r3, r4, asr #18
 bfc:	5f656c62 	svcpl	0x00656c62
 c00:	69736142 	ldmdbvs	r3!, {r1, r6, r8, sp, lr}^
 c04:	52495f63 	subpl	r5, r9, #396	; 0x18c
 c08:	46007351 			; <UNDEFINED> instruction: 0x46007351
 c0c:	635f5149 	cmpvs	pc, #1073741842	; 0x40000012
 c10:	72746e6f 	rsbsvc	r6, r4, #1776	; 0x6f0
 c14:	5f006c6f 	svcpl	0x00006c6f
 c18:	65746e69 	ldrbvs	r6, [r4, #-3689]!	; 0xe69
 c1c:	70757272 	rsbsvc	r7, r5, r2, ror r2
 c20:	61745f74 	cmnvs	r4, r4, ror pc
 c24:	00656c62 	rsbeq	r6, r5, r2, ror #24
 c28:	5f515249 	svcpl	0x00515249
 c2c:	69736162 	ldmdbvs	r3!, {r1, r5, r6, r8, sp, lr}^
 c30:	65705f63 	ldrbvs	r5, [r0, #-3939]!	; 0xf63
 c34:	6e69646e 	cdpvs	4, 6, cr6, cr9, cr14, {3}
 c38:	6e450067 	cdpvs	0, 4, cr0, cr5, cr7, {3}
 c3c:	656c6261 	strbvs	r6, [ip, #-609]!	; 0x261
 c40:	7361425f 	cmnvc	r1, #-268435451	; 0xf0000005
 c44:	495f6369 	ldmdbmi	pc, {r0, r3, r5, r6, r8, r9, sp, lr}^	; <UNPREDICTABLE>
 c48:	00735152 	rsbseq	r5, r3, r2, asr r1
 c4c:	62616e45 	rsbvs	r6, r1, #1104	; 0x450
 c50:	495f656c 	ldmdbmi	pc, {r2, r3, r5, r6, r8, sl, sp, lr}^	; <UNPREDICTABLE>
 c54:	5f735152 	svcpl	0x00735152
 c58:	6e450031 	mcrvs	0, 2, r0, cr5, cr1, {1}
 c5c:	656c6261 	strbvs	r6, [ip, #-609]!	; 0x261
 c60:	5152495f 	cmppl	r2, pc, asr r9
 c64:	00325f73 	eorseq	r5, r2, r3, ror pc
 c68:	746e695f 	strbtvc	r6, [lr], #-2399	; 0x95f
 c6c:	75727265 	ldrbvc	r7, [r2, #-613]!	; 0x265
 c70:	745f7470 	ldrbvc	r7, [pc], #-1136	; c78 <_start-0x7388>
 c74:	656c6261 	strbvs	r6, [ip, #-609]!	; 0x261
 c78:	646e655f 	strbtvs	r6, [lr], #-1375	; 0x55f
 c7c:	74616400 	strbtvc	r6, [r1], #-1024	; 0x400
 c80:	62615f61 	rsbvs	r5, r1, #388	; 0x184
 c84:	5f74726f 	svcpl	0x0074726f
 c88:	74636576 	strbtvc	r6, [r3], #-1398	; 0x576
 c8c:	4900726f 	stmdbmi	r0, {r0, r1, r2, r3, r5, r6, r9, ip, sp, lr}
 c90:	705f5152 	subsvc	r5, pc, r2, asr r1	; <UNPREDICTABLE>
 c94:	69646e65 	stmdbvs	r4!, {r0, r2, r5, r6, r9, sl, fp, sp, lr}^
 c98:	325f676e 	subscc	r6, pc, #28835840	; 0x1b80000
 c9c:	31736300 	cmncc	r3, r0, lsl #6
 ca0:	2d653034 	stclcs	0, cr3, [r5, #-208]!	; 0xffffff30
 ca4:	65746e69 	ldrbvs	r6, [r4, #-3689]!	; 0xe69
 ca8:	70757272 	rsbsvc	r7, r5, r2, ror r2
 cac:	6e692f74 	mcrvs	15, 3, r2, cr9, cr4, {3}
 cb0:	72726574 	rsbsvc	r6, r2, #116, 10	; 0x1d000000
 cb4:	73747075 	cmnvc	r4, #117	; 0x75
 cb8:	632e632d 	teqvs	lr, #-1275068416	; 0xb4000000
 cbc:	51524900 	cmppl	r2, r0, lsl #18
 cc0:	6e65705f 	mcrvs	0, 3, r7, cr5, cr15, {2}
 cc4:	676e6964 	strbvs	r6, [lr, -r4, ror #18]!
 cc8:	7500315f 	strvc	r3, [r0, #-351]	; 0x15f
 ccc:	6665646e 	strbtvs	r6, [r5], -lr, ror #8
 cd0:	64656e69 	strbtvs	r6, [r5], #-3689	; 0xe69
 cd4:	736e695f 	cmnvc	lr, #1556480	; 0x17c000
 cd8:	63757274 	cmnvs	r5, #116, 4	; 0x40000007
 cdc:	6e6f6974 	mcrvs	9, 3, r6, cr15, cr4, {3}
 ce0:	6365765f 	cmnvs	r5, #99614720	; 0x5f00000
 ce4:	00726f74 	rsbseq	r6, r2, r4, ror pc
 ce8:	65736572 	ldrbvs	r6, [r3, #-1394]!	; 0x572
 cec:	65765f74 	ldrbvs	r5, [r6, #-3956]!	; 0xf74
 cf0:	726f7463 	rsbvc	r7, pc, #1660944384	; 0x63000000
 cf4:	666f7300 	strbtvs	r7, [pc], -r0, lsl #6
 cf8:	72617774 	rsbvc	r7, r1, #116, 14	; 0x1d00000
 cfc:	6e695f65 	cdpvs	15, 6, cr5, cr9, cr5, {3}
 d00:	72726574 	rsbsvc	r6, r2, #116, 10	; 0x1d000000
 d04:	5f747075 	svcpl	0x00747075
 d08:	74636576 	strbtvc	r6, [r3], #-1398	; 0x576
 d0c:	4400726f 	strmi	r7, [r0], #-623	; 0x26f
 d10:	62617369 	rsbvs	r7, r1, #-1543503871	; 0xa4000001
 d14:	495f656c 	ldmdbmi	pc, {r2, r3, r5, r6, r8, sl, sp, lr}^	; <UNPREDICTABLE>
 d18:	5f735152 	svcpl	0x00735152
 d1c:	69440031 	stmdbvs	r4, {r0, r4, r5}^
 d20:	6c626173 	stfvse	f6, [r2], #-460	; 0xfffffe34
 d24:	52495f65 	subpl	r5, r9, #404	; 0x194
 d28:	325f7351 	subscc	r7, pc, #1140850689	; 0x44000001
 d2c:	73616600 	cmnvc	r1, #0, 12
 d30:	6e695f74 	mcrvs	15, 3, r5, cr9, cr4, {3}
 d34:	72726574 	rsbsvc	r6, r2, #116, 10	; 0x1d000000
 d38:	5f747075 	svcpl	0x00747075
 d3c:	74636576 	strbtvc	r6, [r3], #-1398	; 0x576
 d40:	4900726f 	stmdbmi	r0, {r0, r1, r2, r3, r5, r6, r9, ip, sp, lr}
 d44:	425f5152 	subsmi	r5, pc, #-2147483628	; 0x80000014
 d48:	00657361 	rsbeq	r7, r5, r1, ror #6
 d4c:	6e5f6263 	cdpvs	2, 5, cr6, cr15, cr3, {3}
 d50:	63007765 	movwvs	r7, #1893	; 0x765
 d54:	30343173 	eorscc	r3, r4, r3, ror r1
 d58:	72732d65 	rsbsvc	r2, r3, #6464	; 0x1940
 d5c:	6f632f63 	svcvs	0x00632f63
 d60:	6f72746e 	svcvs	0x0072746e
 d64:	6c622d6c 	stclvs	13, cr2, [r2], #-432	; 0xfffffe50
 d68:	2e6b636f 	cdpcs	3, 6, cr6, cr11, cr15, {3}
 d6c:	Address 0x0000000000000d6c is out of bounds.


Disassembly of section .debug_frame:

00000000 <.debug_frame>:
   0:	0000000c 	andeq	r0, r0, ip
   4:	ffffffff 			; <UNDEFINED> instruction: 0xffffffff
   8:	7c020001 	stcvc	0, cr0, [r2], {1}
   c:	000d0c0e 	andeq	r0, sp, lr, lsl #24
  10:	0000000c 	andeq	r0, r0, ip
  14:	00000000 	andeq	r0, r0, r0
  18:	00008010 	andeq	r8, r0, r0, lsl r0
  1c:	00000028 	andeq	r0, r0, r8, lsr #32
  20:	00000014 	andeq	r0, r0, r4, lsl r0
  24:	00000000 	andeq	r0, r0, r0
  28:	00008038 	andeq	r8, r0, r8, lsr r0
  2c:	00000024 	andeq	r0, r0, r4, lsr #32
  30:	83080e42 	movwhi	r0, #36418	; 0x8e42
  34:	00018e02 	andeq	r8, r1, r2, lsl #28
  38:	00000014 	andeq	r0, r0, r4, lsl r0
  3c:	00000000 	andeq	r0, r0, r0
  40:	0000805c 	andeq	r8, r0, ip, asr r0
  44:	00000060 	andeq	r0, r0, r0, rrx
  48:	84080e42 	strhi	r0, [r8], #-3650	; 0xe42
  4c:	00018e02 	andeq	r8, r1, r2, lsl #28
  50:	00000014 	andeq	r0, r0, r4, lsl r0
  54:	00000000 	andeq	r0, r0, r0
  58:	000080bc 	strheq	r8, [r0], -ip
  5c:	00000060 	andeq	r0, r0, r0, rrx
  60:	84080e42 	strhi	r0, [r8], #-3650	; 0xe42
  64:	00018e02 	andeq	r8, r1, r2, lsl #28
  68:	0000001c 	andeq	r0, r0, ip, lsl r0
  6c:	00000000 	andeq	r0, r0, r0
  70:	0000811c 	andeq	r8, r0, ip, lsl r1
  74:	0000015c 	andeq	r0, r0, ip, asr r1
  78:	84180e42 	ldrhi	r0, [r8], #-3650	; 0xe42
  7c:	86058506 	strhi	r8, [r5], -r6, lsl #10
  80:	88038704 	stmdahi	r3, {r2, r8, r9, sl, pc}
  84:	00018e02 	andeq	r8, r1, r2, lsl #28
  88:	00000014 	andeq	r0, r0, r4, lsl r0
  8c:	00000000 	andeq	r0, r0, r0
  90:	00008278 	andeq	r8, r0, r8, ror r2
  94:	0000000c 	andeq	r0, r0, ip
  98:	83080e42 	movwhi	r0, #36418	; 0x8e42
  9c:	00018e02 	andeq	r8, r1, r2, lsl #28
  a0:	00000020 	andeq	r0, r0, r0, lsr #32
  a4:	00000000 	andeq	r0, r0, r0
  a8:	00008284 	andeq	r8, r0, r4, lsl #5
  ac:	00000084 	andeq	r0, r0, r4, lsl #1
  b0:	83200e42 	teqhi	r0, #1056	; 0x420
  b4:	85078408 	strhi	r8, [r7, #-1032]	; 0x408
  b8:	87058606 	strhi	r8, [r5, -r6, lsl #12]
  bc:	89038804 	stmdbhi	r3, {r2, fp, pc}
  c0:	00018e02 	andeq	r8, r1, r2, lsl #28
  c4:	00000014 	andeq	r0, r0, r4, lsl r0
  c8:	00000000 	andeq	r0, r0, r0
  cc:	00008308 	andeq	r8, r0, r8, lsl #6
  d0:	0000007c 	andeq	r0, r0, ip, ror r0
  d4:	84080e42 	strhi	r0, [r8], #-3650	; 0xe42
  d8:	00018e02 	andeq	r8, r1, r2, lsl #28
  dc:	00000014 	andeq	r0, r0, r4, lsl r0
  e0:	00000000 	andeq	r0, r0, r0
  e4:	00008384 	andeq	r8, r0, r4, lsl #7
  e8:	00000088 	andeq	r0, r0, r8, lsl #1
  ec:	84080e42 	strhi	r0, [r8], #-3650	; 0xe42
  f0:	00018e02 	andeq	r8, r1, r2, lsl #28
  f4:	00000014 	andeq	r0, r0, r4, lsl r0
  f8:	00000000 	andeq	r0, r0, r0
  fc:	0000840c 	andeq	r8, r0, ip, lsl #8
 100:	00000024 	andeq	r0, r0, r4, lsr #32
 104:	84080e42 	strhi	r0, [r8], #-3650	; 0xe42
 108:	00018e02 	andeq	r8, r1, r2, lsl #28
 10c:	00000014 	andeq	r0, r0, r4, lsl r0
 110:	00000000 	andeq	r0, r0, r0
 114:	00008430 	andeq	r8, r0, r0, lsr r4
 118:	00000444 	andeq	r0, r0, r4, asr #8
 11c:	84080e42 	strhi	r0, [r8], #-3650	; 0xe42
 120:	00018e02 	andeq	r8, r1, r2, lsl #28
 124:	00000018 	andeq	r0, r0, r8, lsl r0
 128:	00000000 	andeq	r0, r0, r0
 12c:	00008874 	andeq	r8, r0, r4, ror r8
 130:	000000a8 	andeq	r0, r0, r8, lsr #1
 134:	840c0e42 	strhi	r0, [ip], #-3650	; 0xe42
 138:	8e028503 	cfsh32hi	mvfx8, mvfx2, #3
 13c:	280e4201 	stmdacs	lr, {r0, r9, lr}
 140:	0000000c 	andeq	r0, r0, ip
 144:	ffffffff 			; <UNDEFINED> instruction: 0xffffffff
 148:	7c020001 	stcvc	0, cr0, [r2], {1}
 14c:	000d0c0e 	andeq	r0, sp, lr, lsl #24
 150:	0000000c 	andeq	r0, r0, ip
 154:	00000140 	andeq	r0, r0, r0, asr #2
 158:	0000891c 	andeq	r8, r0, ip, lsl r9
 15c:	00000020 	andeq	r0, r0, r0, lsr #32
 160:	0000000c 	andeq	r0, r0, ip
 164:	ffffffff 			; <UNDEFINED> instruction: 0xffffffff
 168:	7c020001 	stcvc	0, cr0, [r2], {1}
 16c:	000d0c0e 	andeq	r0, sp, lr, lsl #24
 170:	00000024 	andeq	r0, r0, r4, lsr #32
 174:	00000160 	andeq	r0, r0, r0, ror #2
 178:	0000893c 	andeq	r8, r0, ip, lsr r9
 17c:	00000058 	andeq	r0, r0, r8, asr r0
 180:	80100e42 	andshi	r0, r0, r2, asr #28
 184:	82038104 	andhi	r8, r3, #4, 2
 188:	42018302 	andmi	r8, r1, #134217728	; 0x8000000
 18c:	07841c0e 	streq	r1, [r4, lr, lsl #24]
 190:	058e0685 	streq	r0, [lr, #1669]	; 0x685
 194:	00280e42 	eoreq	r0, r8, r2, asr #28
 198:	0000000c 	andeq	r0, r0, ip
 19c:	ffffffff 			; <UNDEFINED> instruction: 0xffffffff
 1a0:	7c020001 	stcvc	0, cr0, [r2], {1}
 1a4:	000d0c0e 	andeq	r0, sp, lr, lsl #24
 1a8:	00000014 	andeq	r0, r0, r4, lsl r0
 1ac:	00000198 	muleq	r0, r8, r1
 1b0:	00008994 	muleq	r0, r4, r9
 1b4:	00000014 	andeq	r0, r0, r4, lsl r0
 1b8:	84080e42 	strhi	r0, [r8], #-3650	; 0xe42
 1bc:	00018e02 	andeq	r8, r1, r2, lsl #28
 1c0:	0000000c 	andeq	r0, r0, ip
 1c4:	00000198 	muleq	r0, r8, r1
 1c8:	000089a8 	andeq	r8, r0, r8, lsr #19
 1cc:	00000018 	andeq	r0, r0, r8, lsl r0
 1d0:	0000000c 	andeq	r0, r0, ip
 1d4:	00000198 	muleq	r0, r8, r1
 1d8:	000089c0 	andeq	r8, r0, r0, asr #19
 1dc:	00000010 	andeq	r0, r0, r0, lsl r0
 1e0:	0000000c 	andeq	r0, r0, ip
 1e4:	ffffffff 			; <UNDEFINED> instruction: 0xffffffff
 1e8:	7c020001 	stcvc	0, cr0, [r2], {1}
 1ec:	000d0c0e 	andeq	r0, sp, lr, lsl #24
 1f0:	00000018 	andeq	r0, r0, r8, lsl r0
 1f4:	000001e0 	andeq	r0, r0, r0, ror #3
 1f8:	000089d0 	ldrdeq	r8, [r0], -r0
 1fc:	00000034 	andeq	r0, r0, r4, lsr r0
 200:	83100e42 	tsthi	r0, #1056	; 0x420
 204:	85038404 	strhi	r8, [r3, #-1028]	; 0x404
 208:	00018e02 	andeq	r8, r1, r2, lsl #28
 20c:	0000000c 	andeq	r0, r0, ip
 210:	ffffffff 			; <UNDEFINED> instruction: 0xffffffff
 214:	7c020001 	stcvc	0, cr0, [r2], {1}
 218:	000d0c0e 	andeq	r0, sp, lr, lsl #24
 21c:	0000000c 	andeq	r0, r0, ip
 220:	0000020c 	andeq	r0, r0, ip, lsl #4
 224:	00008a04 	andeq	r8, r0, r4, lsl #20
 228:	00000014 	andeq	r0, r0, r4, lsl r0
 22c:	0000000c 	andeq	r0, r0, ip
 230:	0000020c 	andeq	r0, r0, ip, lsl #4
 234:	00008a18 	andeq	r8, r0, r8, lsl sl
 238:	0000002c 	andeq	r0, r0, ip, lsr #32
 23c:	0000000c 	andeq	r0, r0, ip
 240:	0000020c 	andeq	r0, r0, ip, lsl #4
 244:	00008a44 	andeq	r8, r0, r4, asr #20
 248:	00000040 	andeq	r0, r0, r0, asr #32
 24c:	00000020 	andeq	r0, r0, r0, lsr #32
 250:	0000020c 	andeq	r0, r0, ip, lsl #4
 254:	00008a84 	andeq	r8, r0, r4, lsl #21
 258:	0000019c 	muleq	r0, ip, r1
 25c:	84180e42 	ldrhi	r0, [r8], #-3650	; 0xe42
 260:	86058506 	strhi	r8, [r5], -r6, lsl #10
 264:	88038704 	stmdahi	r3, {r2, r8, r9, sl, pc}
 268:	42018e02 	andmi	r8, r1, #2, 28
 26c:	0000580e 	andeq	r5, r0, lr, lsl #16
 270:	00000014 	andeq	r0, r0, r4, lsl r0
 274:	0000020c 	andeq	r0, r0, ip, lsl #4
 278:	00008c20 	andeq	r8, r0, r0, lsr #24
 27c:	00000054 	andeq	r0, r0, r4, asr r0
 280:	83080e42 	movwhi	r0, #36418	; 0x8e42
 284:	00018e02 	andeq	r8, r1, r2, lsl #28
 288:	00000028 	andeq	r0, r0, r8, lsr #32
 28c:	0000020c 	andeq	r0, r0, ip, lsl #4
 290:	00008c74 	andeq	r8, r0, r4, ror ip
 294:	00000288 	andeq	r0, r0, r8, lsl #5
 298:	84240e42 	strthi	r0, [r4], #-3650	; 0xe42
 29c:	86088509 	strhi	r8, [r8], -r9, lsl #10
 2a0:	88068707 	stmdahi	r6, {r0, r1, r2, r8, r9, sl, pc}
 2a4:	8a048905 	bhi	1226c0 <__bss_end__+0x113b48>
 2a8:	8e028b03 	vmlahi.f64	d8, d2, d3
 2ac:	b00e4201 	andlt	r4, lr, r1, lsl #4
 2b0:	00000001 	andeq	r0, r0, r1
 2b4:	0000000c 	andeq	r0, r0, ip
 2b8:	ffffffff 			; <UNDEFINED> instruction: 0xffffffff
 2bc:	7c020001 	stcvc	0, cr0, [r2], {1}
 2c0:	000d0c0e 	andeq	r0, sp, lr, lsl #24
 2c4:	00000014 	andeq	r0, r0, r4, lsl r0
 2c8:	000002b4 			; <UNDEFINED> instruction: 0x000002b4
 2cc:	00008efc 	strdeq	r8, [r0], -ip
 2d0:	00000028 	andeq	r0, r0, r8, lsr #32
 2d4:	83080e42 	movwhi	r0, #36418	; 0x8e42
 2d8:	00018e02 	andeq	r8, r1, r2, lsl #28
 2dc:	0000000c 	andeq	r0, r0, ip
 2e0:	ffffffff 			; <UNDEFINED> instruction: 0xffffffff
 2e4:	7c020001 	stcvc	0, cr0, [r2], {1}
 2e8:	000d0c0e 	andeq	r0, sp, lr, lsl #24
 2ec:	00000014 	andeq	r0, r0, r4, lsl r0
 2f0:	000002dc 	ldrdeq	r0, [r0], -ip
 2f4:	00008f24 	andeq	r8, r0, r4, lsr #30
 2f8:	00000020 	andeq	r0, r0, r0, lsr #32
 2fc:	84080e42 	strhi	r0, [r8], #-3650	; 0xe42
 300:	00018e02 	andeq	r8, r1, r2, lsl #28
 304:	00000014 	andeq	r0, r0, r4, lsl r0
 308:	000002dc 	ldrdeq	r0, [r0], -ip
 30c:	00008f44 	andeq	r8, r0, r4, asr #30
 310:	00000090 	muleq	r0, r0, r0
 314:	83080e42 	movwhi	r0, #36418	; 0x8e42
 318:	00018e02 	andeq	r8, r1, r2, lsl #28
 31c:	0000000c 	andeq	r0, r0, ip
 320:	ffffffff 			; <UNDEFINED> instruction: 0xffffffff
 324:	7c020001 	stcvc	0, cr0, [r2], {1}
 328:	000d0c0e 	andeq	r0, sp, lr, lsl #24
 32c:	0000000c 	andeq	r0, r0, ip
 330:	0000031c 	andeq	r0, r0, ip, lsl r3
 334:	00008fd4 	ldrdeq	r8, [r0], -r4
 338:	00000018 	andeq	r0, r0, r8, lsl r0
 33c:	0000000c 	andeq	r0, r0, ip
 340:	0000031c 	andeq	r0, r0, ip, lsl r3
 344:	00008fec 	andeq	r8, r0, ip, ror #31
 348:	00000014 	andeq	r0, r0, r4, lsl r0
 34c:	00000014 	andeq	r0, r0, r4, lsl r0
 350:	0000031c 	andeq	r0, r0, ip, lsl r3
 354:	00009000 	andeq	r9, r0, r0
 358:	00000048 	andeq	r0, r0, r8, asr #32
 35c:	83080e42 	movwhi	r0, #36418	; 0x8e42
 360:	00018e02 	andeq	r8, r1, r2, lsl #28
 364:	0000000c 	andeq	r0, r0, ip
 368:	ffffffff 			; <UNDEFINED> instruction: 0xffffffff
 36c:	7c020001 	stcvc	0, cr0, [r2], {1}
 370:	000d0c0e 	andeq	r0, sp, lr, lsl #24
 374:	0000000c 	andeq	r0, r0, ip
 378:	00000364 	andeq	r0, r0, r4, ror #6
 37c:	00009048 	andeq	r9, r0, r8, asr #32
 380:	0000001c 	andeq	r0, r0, ip, lsl r0
 384:	00000014 	andeq	r0, r0, r4, lsl r0
 388:	00000364 	andeq	r0, r0, r4, ror #6
 38c:	00009064 	andeq	r9, r0, r4, rrx
 390:	00000014 	andeq	r0, r0, r4, lsl r0
 394:	83080e42 	movwhi	r0, #36418	; 0x8e42
 398:	00018e02 	andeq	r8, r1, r2, lsl #28
 39c:	00000014 	andeq	r0, r0, r4, lsl r0
 3a0:	00000364 	andeq	r0, r0, r4, ror #6
 3a4:	00009078 	andeq	r9, r0, r8, ror r0
 3a8:	0000000c 	andeq	r0, r0, ip
 3ac:	83080e42 	movwhi	r0, #36418	; 0x8e42
 3b0:	00018e02 	andeq	r8, r1, r2, lsl #28
 3b4:	00000018 	andeq	r0, r0, r8, lsl r0
 3b8:	00000364 	andeq	r0, r0, r4, ror #6
 3bc:	00009084 	andeq	r9, r0, r4, lsl #1
 3c0:	00000024 	andeq	r0, r0, r4, lsr #32
 3c4:	83100e42 	tsthi	r0, #1056	; 0x420
 3c8:	85038404 	strhi	r8, [r3, #-1028]	; 0x404
 3cc:	00018e02 	andeq	r8, r1, r2, lsl #28
 3d0:	00000014 	andeq	r0, r0, r4, lsl r0
 3d4:	00000364 	andeq	r0, r0, r4, ror #6
 3d8:	000090a8 	andeq	r9, r0, r8, lsr #1
 3dc:	00000014 	andeq	r0, r0, r4, lsl r0
 3e0:	83080e42 	movwhi	r0, #36418	; 0x8e42
 3e4:	00018e02 	andeq	r8, r1, r2, lsl #28
 3e8:	00000014 	andeq	r0, r0, r4, lsl r0
 3ec:	00000364 	andeq	r0, r0, r4, ror #6
 3f0:	000090bc 	strheq	r9, [r0], -ip
 3f4:	00000014 	andeq	r0, r0, r4, lsl r0
 3f8:	83080e42 	movwhi	r0, #36418	; 0x8e42
 3fc:	00018e02 	andeq	r8, r1, r2, lsl #28
 400:	0000000c 	andeq	r0, r0, ip
 404:	ffffffff 			; <UNDEFINED> instruction: 0xffffffff
 408:	7c020001 	stcvc	0, cr0, [r2], {1}
 40c:	000d0c0e 	andeq	r0, sp, lr, lsl #24
 410:	00000018 	andeq	r0, r0, r8, lsl r0
 414:	00000400 	andeq	r0, r0, r0, lsl #8
 418:	000090d0 	ldrdeq	r9, [r0], -r0
 41c:	000000d4 	ldrdeq	r0, [r0], -r4
 420:	83100e42 	tsthi	r0, #1056	; 0x420
 424:	85038404 	strhi	r8, [r3, #-1028]	; 0x404
 428:	00018e02 	andeq	r8, r1, r2, lsl #28
 42c:	00000014 	andeq	r0, r0, r4, lsl r0
 430:	00000400 	andeq	r0, r0, r0, lsl #8
 434:	000091a4 	andeq	r9, r0, r4, lsr #3
 438:	00000038 	andeq	r0, r0, r8, lsr r0
 43c:	83080e42 	movwhi	r0, #36418	; 0x8e42
 440:	00018e02 	andeq	r8, r1, r2, lsl #28
 444:	00000014 	andeq	r0, r0, r4, lsl r0
 448:	00000400 	andeq	r0, r0, r0, lsl #8
 44c:	000091dc 	ldrdeq	r9, [r0], -ip
 450:	00000038 	andeq	r0, r0, r8, lsr r0
 454:	83080e42 	movwhi	r0, #36418	; 0x8e42
 458:	00018e02 	andeq	r8, r1, r2, lsl #28
 45c:	00000018 	andeq	r0, r0, r8, lsl r0
 460:	00000400 	andeq	r0, r0, r0, lsl #8
 464:	00009214 	andeq	r9, r0, r4, lsl r2
 468:	000000cc 	andeq	r0, r0, ip, asr #1
 46c:	83100e42 	tsthi	r0, #1056	; 0x420
 470:	85038404 	strhi	r8, [r3, #-1028]	; 0x404
 474:	00018e02 	andeq	r8, r1, r2, lsl #28
 478:	00000014 	andeq	r0, r0, r4, lsl r0
 47c:	00000400 	andeq	r0, r0, r0, lsl #8
 480:	000092e0 	andeq	r9, r0, r0, ror #5
 484:	0000004c 	andeq	r0, r0, ip, asr #32
 488:	84080e42 	strhi	r0, [r8], #-3650	; 0xe42
 48c:	00018e02 	andeq	r8, r1, r2, lsl #28
 490:	00000014 	andeq	r0, r0, r4, lsl r0
 494:	00000400 	andeq	r0, r0, r0, lsl #8
 498:	0000932c 	andeq	r9, r0, ip, lsr #6
 49c:	00000078 	andeq	r0, r0, r8, ror r0
 4a0:	83080e42 	movwhi	r0, #36418	; 0x8e42
 4a4:	00018e02 	andeq	r8, r1, r2, lsl #28
 4a8:	00000018 	andeq	r0, r0, r8, lsl r0
 4ac:	00000400 	andeq	r0, r0, r0, lsl #8
 4b0:	000093a4 	andeq	r9, r0, r4, lsr #7
 4b4:	000000d8 	ldrdeq	r0, [r0], -r8
 4b8:	84100e42 	ldrhi	r0, [r0], #-3650	; 0xe42
 4bc:	86038504 	strhi	r8, [r3], -r4, lsl #10
 4c0:	00018e02 	andeq	r8, r1, r2, lsl #28
 4c4:	00000014 	andeq	r0, r0, r4, lsl r0
 4c8:	00000400 	andeq	r0, r0, r0, lsl #8
 4cc:	0000947c 	andeq	r9, r0, ip, ror r4
 4d0:	0000002c 	andeq	r0, r0, ip, lsr #32
 4d4:	83080e42 	movwhi	r0, #36418	; 0x8e42
 4d8:	00018e02 	andeq	r8, r1, r2, lsl #28
 4dc:	00000018 	andeq	r0, r0, r8, lsl r0
 4e0:	00000400 	andeq	r0, r0, r0, lsl #8
 4e4:	000094a8 	andeq	r9, r0, r8, lsr #9
 4e8:	00000084 	andeq	r0, r0, r4, lsl #1
 4ec:	83100e42 	tsthi	r0, #1056	; 0x420
 4f0:	85038404 	strhi	r8, [r3, #-1028]	; 0x404
 4f4:	00018e02 	andeq	r8, r1, r2, lsl #28
 4f8:	00000018 	andeq	r0, r0, r8, lsl r0
 4fc:	00000400 	andeq	r0, r0, r0, lsl #8
 500:	0000952c 	andeq	r9, r0, ip, lsr #10
 504:	00000084 	andeq	r0, r0, r4, lsl #1
 508:	83100e42 	tsthi	r0, #1056	; 0x420
 50c:	85038404 	strhi	r8, [r3, #-1028]	; 0x404
 510:	00018e02 	andeq	r8, r1, r2, lsl #28
 514:	00000014 	andeq	r0, r0, r4, lsl r0
 518:	00000400 	andeq	r0, r0, r0, lsl #8
 51c:	000095b0 			; <UNDEFINED> instruction: 0x000095b0
 520:	00000084 	andeq	r0, r0, r4, lsl #1
 524:	84080e42 	strhi	r0, [r8], #-3650	; 0xe42
 528:	00018e02 	andeq	r8, r1, r2, lsl #28
 52c:	00000014 	andeq	r0, r0, r4, lsl r0
 530:	00000400 	andeq	r0, r0, r0, lsl #8
 534:	00009634 	andeq	r9, r0, r4, lsr r6
 538:	00000058 	andeq	r0, r0, r8, asr r0
 53c:	84080e42 	strhi	r0, [r8], #-3650	; 0xe42
 540:	00018e02 	andeq	r8, r1, r2, lsl #28
 544:	0000000c 	andeq	r0, r0, ip
 548:	ffffffff 			; <UNDEFINED> instruction: 0xffffffff
 54c:	7c020001 	stcvc	0, cr0, [r2], {1}
 550:	000d0c0e 	andeq	r0, sp, lr, lsl #24
 554:	0000001c 	andeq	r0, r0, ip, lsl r0
 558:	00000544 	andeq	r0, r0, r4, asr #10
 55c:	0000968c 	andeq	r9, r0, ip, lsl #13
 560:	00000154 	andeq	r0, r0, r4, asr r1
 564:	84180e42 	ldrhi	r0, [r8], #-3650	; 0xe42
 568:	86058506 	strhi	r8, [r5], -r6, lsl #10
 56c:	88038704 	stmdahi	r3, {r2, r8, r9, sl, pc}
 570:	00018e02 	andeq	r8, r1, r2, lsl #28
 574:	00000020 	andeq	r0, r0, r0, lsr #32
 578:	00000544 	andeq	r0, r0, r4, asr #10
 57c:	000097e0 	andeq	r9, r0, r0, ror #15
 580:	000001c8 	andeq	r0, r0, r8, asr #3
 584:	83200e42 	teqhi	r0, #1056	; 0x420
 588:	85078408 	strhi	r8, [r7, #-1032]	; 0x408
 58c:	87058606 	strhi	r8, [r5, -r6, lsl #12]
 590:	89038804 	stmdbhi	r3, {r2, fp, pc}
 594:	00018e02 	andeq	r8, r1, r2, lsl #28
 598:	00000020 	andeq	r0, r0, r0, lsr #32
 59c:	00000544 	andeq	r0, r0, r4, asr #10
 5a0:	000099a8 	andeq	r9, r0, r8, lsr #19
 5a4:	00000090 	muleq	r0, r0, r0
 5a8:	84200e42 	strthi	r0, [r0], #-3650	; 0xe42
 5ac:	86078508 	strhi	r8, [r7], -r8, lsl #10
 5b0:	88058706 	stmdahi	r5, {r1, r2, r8, r9, sl, pc}
 5b4:	8a038904 	bhi	e29cc <__bss_end__+0xd3e54>
 5b8:	00018e02 	andeq	r8, r1, r2, lsl #28
 5bc:	0000001c 	andeq	r0, r0, ip, lsl r0
 5c0:	00000544 	andeq	r0, r0, r4, asr #10
 5c4:	00009a38 	andeq	r9, r0, r8, lsr sl
 5c8:	0000007c 	andeq	r0, r0, ip, ror r0
 5cc:	84180e42 	ldrhi	r0, [r8], #-3650	; 0xe42
 5d0:	86058506 	strhi	r8, [r5], -r6, lsl #10
 5d4:	88038704 	stmdahi	r3, {r2, r8, r9, sl, pc}
 5d8:	00018e02 	andeq	r8, r1, r2, lsl #28
 5dc:	0000001c 	andeq	r0, r0, ip, lsl r0
 5e0:	00000544 	andeq	r0, r0, r4, asr #10
 5e4:	00009ab4 			; <UNDEFINED> instruction: 0x00009ab4
 5e8:	000000c0 	andeq	r0, r0, r0, asr #1
 5ec:	84180e42 	ldrhi	r0, [r8], #-3650	; 0xe42
 5f0:	86058506 	strhi	r8, [r5], -r6, lsl #10
 5f4:	88038704 	stmdahi	r3, {r2, r8, r9, sl, pc}
 5f8:	00018e02 	andeq	r8, r1, r2, lsl #28
 5fc:	00000014 	andeq	r0, r0, r4, lsl r0
 600:	00000544 	andeq	r0, r0, r4, asr #10
 604:	00009b74 	andeq	r9, r0, r4, ror fp
 608:	0000003c 	andeq	r0, r0, ip, lsr r0
 60c:	83080e42 	movwhi	r0, #36418	; 0x8e42
 610:	00018e02 	andeq	r8, r1, r2, lsl #28
 614:	00000018 	andeq	r0, r0, r8, lsl r0
 618:	00000544 	andeq	r0, r0, r4, asr #10
 61c:	00009bb0 			; <UNDEFINED> instruction: 0x00009bb0
 620:	0000002c 	andeq	r0, r0, ip, lsr #32
 624:	83100e42 	tsthi	r0, #1056	; 0x420
 628:	85038404 	strhi	r8, [r3, #-1028]	; 0x404
 62c:	00018e02 	andeq	r8, r1, r2, lsl #28
 630:	00000024 	andeq	r0, r0, r4, lsr #32
 634:	00000544 	andeq	r0, r0, r4, asr #10
 638:	00009bdc 	ldrdeq	r9, [r0], -ip
 63c:	00000084 	andeq	r0, r0, r4, lsl #1
 640:	810c0e42 	tsthi	ip, r2, asr #28
 644:	83028203 	movwhi	r8, #8707	; 0x2203
 648:	180e4201 	stmdane	lr, {r0, r9, lr}
 64c:	05850684 	streq	r0, [r5, #1668]	; 0x684
 650:	0e42048e 	cdpeq	4, 4, cr0, cr2, cr14, {4}
 654:	000003e8 	andeq	r0, r0, r8, ror #7
 658:	00000014 	andeq	r0, r0, r4, lsl r0
 65c:	00000544 	andeq	r0, r0, r4, asr #10
 660:	00009c60 	andeq	r9, r0, r0, ror #24
 664:	0000004c 	andeq	r0, r0, ip, asr #32
 668:	8e040e42 	cdphi	14, 0, cr0, cr4, cr2, {2}
 66c:	100e4201 	andne	r4, lr, r1, lsl #4
 670:	0000000c 	andeq	r0, r0, ip
 674:	ffffffff 			; <UNDEFINED> instruction: 0xffffffff
 678:	7c020001 	stcvc	0, cr0, [r2], {1}
 67c:	000d0c0e 	andeq	r0, sp, lr, lsl #24
 680:	00000018 	andeq	r0, r0, r8, lsl r0
 684:	00000670 	andeq	r0, r0, r0, ror r6
 688:	00009cac 	andeq	r9, r0, ip, lsr #25
 68c:	0000009c 	muleq	r0, ip, r0
 690:	83100e42 	tsthi	r0, #1056	; 0x420
 694:	85038404 	strhi	r8, [r3, #-1028]	; 0x404
 698:	00018e02 	andeq	r8, r1, r2, lsl #28
 69c:	00000014 	andeq	r0, r0, r4, lsl r0
 6a0:	00000670 	andeq	r0, r0, r0, ror r6
 6a4:	00009d48 	andeq	r9, r0, r8, asr #26
 6a8:	0000001c 	andeq	r0, r0, ip, lsl r0
 6ac:	83080e42 	movwhi	r0, #36418	; 0x8e42
 6b0:	00018e02 	andeq	r8, r1, r2, lsl #28
 6b4:	00000014 	andeq	r0, r0, r4, lsl r0
 6b8:	00000670 	andeq	r0, r0, r0, ror r6
 6bc:	00009d64 	andeq	r9, r0, r4, ror #26
 6c0:	00000028 	andeq	r0, r0, r8, lsr #32
 6c4:	83080e42 	movwhi	r0, #36418	; 0x8e42
 6c8:	00018e02 	andeq	r8, r1, r2, lsl #28
 6cc:	00000014 	andeq	r0, r0, r4, lsl r0
 6d0:	00000670 	andeq	r0, r0, r0, ror r6
 6d4:	00009d8c 	andeq	r9, r0, ip, lsl #27
 6d8:	0000001c 	andeq	r0, r0, ip, lsl r0
 6dc:	83080e42 	movwhi	r0, #36418	; 0x8e42
 6e0:	00018e02 	andeq	r8, r1, r2, lsl #28
 6e4:	00000014 	andeq	r0, r0, r4, lsl r0
 6e8:	00000670 	andeq	r0, r0, r0, ror r6
 6ec:	00009da8 	andeq	r9, r0, r8, lsr #27
 6f0:	0000002c 	andeq	r0, r0, ip, lsr #32
 6f4:	84080e42 	strhi	r0, [r8], #-3650	; 0xe42
 6f8:	00018e02 	andeq	r8, r1, r2, lsl #28
 6fc:	00000014 	andeq	r0, r0, r4, lsl r0
 700:	00000670 	andeq	r0, r0, r0, ror r6
 704:	00009dd4 	ldrdeq	r9, [r0], -r4
 708:	0000000c 	andeq	r0, r0, ip
 70c:	83080e42 	movwhi	r0, #36418	; 0x8e42
 710:	00018e02 	andeq	r8, r1, r2, lsl #28
 714:	00000014 	andeq	r0, r0, r4, lsl r0
 718:	00000670 	andeq	r0, r0, r0, ror r6
 71c:	00009de0 	andeq	r9, r0, r0, ror #27
 720:	00000020 	andeq	r0, r0, r0, lsr #32
 724:	83080e42 	movwhi	r0, #36418	; 0x8e42
 728:	00018e02 	andeq	r8, r1, r2, lsl #28
 72c:	0000000c 	andeq	r0, r0, ip
 730:	ffffffff 			; <UNDEFINED> instruction: 0xffffffff
 734:	7c020001 	stcvc	0, cr0, [r2], {1}
 738:	000d0c0e 	andeq	r0, sp, lr, lsl #24
 73c:	00000014 	andeq	r0, r0, r4, lsl r0
 740:	0000072c 	andeq	r0, r0, ip, lsr #14
 744:	00009e00 	andeq	r9, r0, r0, lsl #28
 748:	00000068 	andeq	r0, r0, r8, rrx
 74c:	83080e42 	movwhi	r0, #36418	; 0x8e42
 750:	00018e02 	andeq	r8, r1, r2, lsl #28
 754:	00000014 	andeq	r0, r0, r4, lsl r0
 758:	0000072c 	andeq	r0, r0, ip, lsr #14
 75c:	00009e68 	andeq	r9, r0, r8, ror #28
 760:	00000044 	andeq	r0, r0, r4, asr #32
 764:	8e040e42 	cdphi	14, 0, cr0, cr4, cr2, {2}
 768:	100e4201 	andne	r4, lr, r1, lsl #4
 76c:	00000014 	andeq	r0, r0, r4, lsl r0
 770:	0000072c 	andeq	r0, r0, ip, lsr #14
 774:	00009eac 	andeq	r9, r0, ip, lsr #29
 778:	00000044 	andeq	r0, r0, r4, asr #32
 77c:	8e040e42 	cdphi	14, 0, cr0, cr4, cr2, {2}
 780:	100e4201 	andne	r4, lr, r1, lsl #4
 784:	00000014 	andeq	r0, r0, r4, lsl r0
 788:	0000072c 	andeq	r0, r0, ip, lsr #14
 78c:	00009ef0 	strdeq	r9, [r0], -r0
 790:	00000044 	andeq	r0, r0, r4, asr #32
 794:	8e040e42 	cdphi	14, 0, cr0, cr4, cr2, {2}
 798:	100e4201 	andne	r4, lr, r1, lsl #4
 79c:	00000014 	andeq	r0, r0, r4, lsl r0
 7a0:	0000072c 	andeq	r0, r0, ip, lsr #14
 7a4:	00009f34 	andeq	r9, r0, r4, lsr pc
 7a8:	00000044 	andeq	r0, r0, r4, asr #32
 7ac:	8e040e42 	cdphi	14, 0, cr0, cr4, cr2, {2}
 7b0:	100e4201 	andne	r4, lr, r1, lsl #4
 7b4:	00000014 	andeq	r0, r0, r4, lsl r0
 7b8:	0000072c 	andeq	r0, r0, ip, lsr #14
 7bc:	00009f78 	andeq	r9, r0, r8, ror pc
 7c0:	00000044 	andeq	r0, r0, r4, asr #32
 7c4:	8e040e42 	cdphi	14, 0, cr0, cr4, cr2, {2}
 7c8:	100e4201 	andne	r4, lr, r1, lsl #4
 7cc:	00000014 	andeq	r0, r0, r4, lsl r0
 7d0:	0000072c 	andeq	r0, r0, ip, lsr #14
 7d4:	00009fbc 			; <UNDEFINED> instruction: 0x00009fbc
 7d8:	00000044 	andeq	r0, r0, r4, asr #32
 7dc:	8e040e42 	cdphi	14, 0, cr0, cr4, cr2, {2}
 7e0:	100e4201 	andne	r4, lr, r1, lsl #4
 7e4:	0000000c 	andeq	r0, r0, ip
 7e8:	ffffffff 			; <UNDEFINED> instruction: 0xffffffff
 7ec:	7c020001 	stcvc	0, cr0, [r2], {1}
 7f0:	000d0c0e 	andeq	r0, sp, lr, lsl #24
 7f4:	00000014 	andeq	r0, r0, r4, lsl r0
 7f8:	000007e4 	andeq	r0, r0, r4, ror #15
 7fc:	0000a13c 	andeq	sl, r0, ip, lsr r1
 800:	00000028 	andeq	r0, r0, r8, lsr #32
 804:	83080e42 	movwhi	r0, #36418	; 0x8e42
 808:	00018e02 	andeq	r8, r1, r2, lsl #28
 80c:	0000000c 	andeq	r0, r0, ip
 810:	000007e4 	andeq	r0, r0, r4, ror #15
 814:	0000a164 	andeq	sl, r0, r4, ror #2
 818:	00000028 	andeq	r0, r0, r8, lsr #32
