
uart-int.elf:     file format elf32-littlearm


Disassembly of section .text:

00008000 <_start>:
    8000:	e3a0d302 	mov	sp, #134217728	; 0x8000000
    8004:	e3a0b000 	mov	fp, #0
    8008:	eb000314 	bl	8c60 <_cstart>
    800c:	eb000342 	bl	8d1c <rpi_reboot>

00008010 <cq_init>:
    8010:	e92d4038 	push	{r3, r4, r5, lr}
    8014:	e1a04000 	mov	r4, r0
    8018:	e1a05001 	mov	r5, r1
    801c:	e3a01000 	mov	r1, #0
    8020:	e59f216c 	ldr	r2, [pc, #364]	; 8194 <cq_init+0x184>
    8024:	eb000183 	bl	8638 <memset>
    8028:	e59f2168 	ldr	r2, [pc, #360]	; 8198 <cq_init+0x188>
    802c:	e3a03a02 	mov	r3, #8192	; 0x2000
    8030:	e7842003 	str	r2, [r4, r3]
    8034:	e59f2160 	ldr	r2, [pc, #352]	; 819c <cq_init+0x18c>
    8038:	e3a03000 	mov	r3, #0
    803c:	e7843002 	str	r3, [r4, r2]
    8040:	e59f0158 	ldr	r0, [pc, #344]	; 81a0 <cq_init+0x190>
    8044:	e7843000 	str	r3, [r4, r0]
    8048:	e59f1154 	ldr	r1, [pc, #340]	; 81a4 <cq_init+0x194>
    804c:	e7843001 	str	r3, [r4, r1]
    8050:	e59f3150 	ldr	r3, [pc, #336]	; 81a8 <cq_init+0x198>
    8054:	e7d41003 	ldrb	r1, [r4, r3]
    8058:	e2055001 	and	r5, r5, #1
    805c:	e3c11001 	bic	r1, r1, #1
    8060:	e1855001 	orr	r5, r5, r1
    8064:	e7c45003 	strb	r5, [r4, r3]
    8068:	e7941000 	ldr	r1, [r4, r0]
    806c:	e7943002 	ldr	r3, [r4, r2]
    8070:	e1510003 	cmp	r1, r3
    8074:	0a000006 	beq	8094 <cq_init+0x84>
    8078:	eb000191 	bl	86c4 <rpi_reset_putc>
    807c:	e59f0128 	ldr	r0, [pc, #296]	; 81ac <cq_init+0x19c>
    8080:	e59f1128 	ldr	r1, [pc, #296]	; 81b0 <cq_init+0x1a0>
    8084:	e59f2128 	ldr	r2, [pc, #296]	; 81b4 <cq_init+0x1a4>
    8088:	e3a0309f 	mov	r3, #159	; 0x9f
    808c:	eb000171 	bl	8658 <printk>
    8090:	eb0002e0 	bl	8c18 <clean_reboot>
    8094:	e59f3104 	ldr	r3, [pc, #260]	; 81a0 <cq_init+0x190>
    8098:	e7942003 	ldr	r2, [r4, r3]
    809c:	e2822001 	add	r2, r2, #1
    80a0:	e1a02982 	lsl	r2, r2, #19
    80a4:	e2833004 	add	r3, r3, #4
    80a8:	e7943003 	ldr	r3, [r4, r3]
    80ac:	e15309a2 	cmp	r3, r2, lsr #19
    80b0:	1a000006 	bne	80d0 <cq_init+0xc0>
    80b4:	eb000182 	bl	86c4 <rpi_reset_putc>
    80b8:	e59f00f8 	ldr	r0, [pc, #248]	; 81b8 <cq_init+0x1a8>
    80bc:	e59f10ec 	ldr	r1, [pc, #236]	; 81b0 <cq_init+0x1a0>
    80c0:	e59f20ec 	ldr	r2, [pc, #236]	; 81b4 <cq_init+0x1a4>
    80c4:	e3a030a0 	mov	r3, #160	; 0xa0
    80c8:	eb000162 	bl	8658 <printk>
    80cc:	eb0002d1 	bl	8c18 <clean_reboot>
    80d0:	e59f30c8 	ldr	r3, [pc, #200]	; 81a0 <cq_init+0x190>
    80d4:	e7942003 	ldr	r2, [r4, r3]
    80d8:	e2833004 	add	r3, r3, #4
    80dc:	e7943003 	ldr	r3, [r4, r3]
    80e0:	e0633002 	rsb	r3, r3, r2
    80e4:	e1b03983 	lsls	r3, r3, #19
    80e8:	0a000006 	beq	8108 <cq_init+0xf8>
    80ec:	eb000174 	bl	86c4 <rpi_reset_putc>
    80f0:	e59f00c4 	ldr	r0, [pc, #196]	; 81bc <cq_init+0x1ac>
    80f4:	e59f10b4 	ldr	r1, [pc, #180]	; 81b0 <cq_init+0x1a0>
    80f8:	e59f20b4 	ldr	r2, [pc, #180]	; 81b4 <cq_init+0x1a4>
    80fc:	e3a030a1 	mov	r3, #161	; 0xa1
    8100:	eb000154 	bl	8658 <printk>
    8104:	eb0002c3 	bl	8c18 <clean_reboot>
    8108:	e59f3090 	ldr	r3, [pc, #144]	; 81a0 <cq_init+0x190>
    810c:	e7942003 	ldr	r2, [r4, r3]
    8110:	e2833004 	add	r3, r3, #4
    8114:	e7943003 	ldr	r3, [r4, r3]
    8118:	e1520003 	cmp	r2, r3
    811c:	0a000009 	beq	8148 <cq_init+0x138>
    8120:	e59f3074 	ldr	r3, [pc, #116]	; 819c <cq_init+0x18c>
    8124:	e7942003 	ldr	r2, [r4, r3]
    8128:	e7d41002 	ldrb	r1, [r4, r2]
    812c:	e6ef1071 	uxtb	r1, r1
    8130:	e2822001 	add	r2, r2, #1
    8134:	e1a02982 	lsl	r2, r2, #19
    8138:	e1a029a2 	lsr	r2, r2, #19
    813c:	e7842003 	str	r2, [r4, r3]
    8140:	e3a03001 	mov	r3, #1
    8144:	ea000001 	b	8150 <cq_init+0x140>
    8148:	e3a01012 	mov	r1, #18
    814c:	e3a03000 	mov	r3, #0
    8150:	e3530000 	cmp	r3, #0
    8154:	1a000002 	bne	8164 <cq_init+0x154>
    8158:	e3510012 	cmp	r1, #18
    815c:	0a000002 	beq	816c <cq_init+0x15c>
    8160:	ea000002 	b	8170 <cq_init+0x160>
    8164:	e3a03000 	mov	r3, #0
    8168:	ea000000 	b	8170 <cq_init+0x160>
    816c:	e3a03001 	mov	r3, #1
    8170:	e3530000 	cmp	r3, #0
    8174:	18bd8038 	popne	{r3, r4, r5, pc}
    8178:	eb000151 	bl	86c4 <rpi_reset_putc>
    817c:	e59f003c 	ldr	r0, [pc, #60]	; 81c0 <cq_init+0x1b0>
    8180:	e59f1028 	ldr	r1, [pc, #40]	; 81b0 <cq_init+0x1a0>
    8184:	e59f2028 	ldr	r2, [pc, #40]	; 81b4 <cq_init+0x1a4>
    8188:	e3a030a3 	mov	r3, #163	; 0xa3
    818c:	eb000131 	bl	8658 <printk>
    8190:	eb0002a0 	bl	8c18 <clean_reboot>
    8194:	00002014 	andeq	r2, r0, r4, lsl r0
    8198:	12345678 	eorsne	r5, r4, #120, 12	; 0x7800000
    819c:	00002008 	andeq	r2, r0, r8
    81a0:	00002004 	andeq	r2, r0, r4
    81a4:	0000200c 	andeq	r2, r0, ip
    81a8:	00002010 	andeq	r2, r0, r0, lsl r0
    81ac:	00009f4c 	andeq	r9, r0, ip, asr #30
    81b0:	00009f68 	andeq	r9, r0, r8, ror #30
    81b4:	00009f44 	andeq	r9, r0, r4, asr #30
    81b8:	00009fbc 			; <UNDEFINED> instruction: 0x00009fbc
    81bc:	00009fd8 	ldrdeq	r9, [r0], -r8
    81c0:	00009ffc 	strdeq	r9, [r0], -ip

000081c4 <uart_has_data_int>:
    81c4:	e59f3018 	ldr	r3, [pc, #24]	; 81e4 <uart_has_data_int+0x20>
    81c8:	e59f2018 	ldr	r2, [pc, #24]	; 81e8 <uart_has_data_int+0x24>
    81cc:	e7930002 	ldr	r0, [r3, r2]
    81d0:	e2822004 	add	r2, r2, #4
    81d4:	e7933002 	ldr	r3, [r3, r2]
    81d8:	e0500003 	subs	r0, r0, r3
    81dc:	13a00001 	movne	r0, #1
    81e0:	e12fff1e 	bx	lr
    81e4:	0000a42c 	andeq	sl, r0, ip, lsr #8
    81e8:	00002004 	andeq	r2, r0, r4

000081ec <mod_tx_interrupts>:
    81ec:	e92d4010 	push	{r4, lr}
    81f0:	e1a04000 	mov	r4, r0
    81f4:	eb0006c8 	bl	9d1c <dev_barrier>
    81f8:	e59f0030 	ldr	r0, [pc, #48]	; 8230 <mod_tx_interrupts+0x44>
    81fc:	eb0006d8 	bl	9d64 <get32>
    8200:	e1a01000 	mov	r1, r0
    8204:	e3540000 	cmp	r4, #0
    8208:	0a000003 	beq	821c <mod_tx_interrupts+0x30>
    820c:	e59f001c 	ldr	r0, [pc, #28]	; 8230 <mod_tx_interrupts+0x44>
    8210:	e3811002 	orr	r1, r1, #2
    8214:	eb0006c6 	bl	9d34 <put32>
    8218:	ea000002 	b	8228 <mod_tx_interrupts+0x3c>
    821c:	e59f000c 	ldr	r0, [pc, #12]	; 8230 <mod_tx_interrupts+0x44>
    8220:	e3c11002 	bic	r1, r1, #2
    8224:	eb0006c2 	bl	9d34 <put32>
    8228:	eb0006bb 	bl	9d1c <dev_barrier>
    822c:	e8bd8010 	pop	{r4, pc}
    8230:	20215044 	eorcs	r5, r1, r4, asr #32

00008234 <interrupt_vector>:
    8234:	e92d41f0 	push	{r4, r5, r6, r7, r8, lr}
    8238:	e59f0120 	ldr	r0, [pc, #288]	; 8360 <interrupt_vector+0x12c>
    823c:	eb0006c8 	bl	9d64 <get32>
    8240:	e3100004 	tst	r0, #4
    8244:	1a00000f 	bne	8288 <interrupt_vector+0x54>
    8248:	ea00001b 	b	82bc <interrupt_vector+0x88>
    824c:	eb00060b 	bl	9a80 <uart_getc>
    8250:	e6ef0070 	uxtb	r0, r0
    8254:	e7941005 	ldr	r1, [r4, r5]
    8258:	e7942005 	ldr	r2, [r4, r5]
    825c:	e2822001 	add	r2, r2, #1
    8260:	e1a02982 	lsl	r2, r2, #19
    8264:	e7943006 	ldr	r3, [r4, r6]
    8268:	e15309a2 	cmp	r3, r2, lsr #19
    826c:	0a000008 	beq	8294 <interrupt_vector+0x60>
    8270:	e7c40001 	strb	r0, [r4, r1]
    8274:	e2813001 	add	r3, r1, #1
    8278:	e1a03983 	lsl	r3, r3, #19
    827c:	e1a039a3 	lsr	r3, r3, #19
    8280:	e7843005 	str	r3, [r4, r5]
    8284:	ea000002 	b	8294 <interrupt_vector+0x60>
    8288:	e59f40d4 	ldr	r4, [pc, #212]	; 8364 <interrupt_vector+0x130>
    828c:	e59f50d4 	ldr	r5, [pc, #212]	; 8368 <interrupt_vector+0x134>
    8290:	e59f60d4 	ldr	r6, [pc, #212]	; 836c <interrupt_vector+0x138>
    8294:	e7942005 	ldr	r2, [r4, r5]
    8298:	e2822001 	add	r2, r2, #1
    829c:	e1a02982 	lsl	r2, r2, #19
    82a0:	e7943006 	ldr	r3, [r4, r6]
    82a4:	e15309a2 	cmp	r3, r2, lsr #19
    82a8:	08bd81f0 	popeq	{r4, r5, r6, r7, r8, pc}
    82ac:	eb0005ec 	bl	9a64 <uart_can_getc>
    82b0:	e3500000 	cmp	r0, #0
    82b4:	1affffe4 	bne	824c <interrupt_vector+0x18>
    82b8:	e8bd81f0 	pop	{r4, r5, r6, r7, r8, pc}
    82bc:	e3100002 	tst	r0, #2
    82c0:	1a000003 	bne	82d4 <interrupt_vector+0xa0>
    82c4:	e8bd81f0 	pop	{r4, r5, r6, r7, r8, pc}
    82c8:	e5d4001c 	ldrb	r0, [r4, #28]
    82cc:	eb0005fc 	bl	9ac4 <uart_putc>
    82d0:	ea000004 	b	82e8 <interrupt_vector+0xb4>
    82d4:	e59f4094 	ldr	r4, [pc, #148]	; 8370 <interrupt_vector+0x13c>
    82d8:	e59f6094 	ldr	r6, [pc, #148]	; 8374 <interrupt_vector+0x140>
    82dc:	e59f5094 	ldr	r5, [pc, #148]	; 8378 <interrupt_vector+0x144>
    82e0:	e3a08000 	mov	r8, #0
    82e4:	e3a07001 	mov	r7, #1
    82e8:	eb0005ee 	bl	9aa8 <uart_can_putc>
    82ec:	e3500000 	cmp	r0, #0
    82f0:	0a000010 	beq	8338 <interrupt_vector+0x104>
    82f4:	e7942006 	ldr	r2, [r4, r6]
    82f8:	e7943005 	ldr	r3, [r4, r5]
    82fc:	e1520003 	cmp	r2, r3
    8300:	0a000009 	beq	832c <interrupt_vector+0xf8>
    8304:	e7943005 	ldr	r3, [r4, r5]
    8308:	e0842003 	add	r2, r4, r3
    830c:	e5d22020 	ldrb	r2, [r2, #32]
    8310:	e5c4201c 	strb	r2, [r4, #28]
    8314:	e2833001 	add	r3, r3, #1
    8318:	e1a03983 	lsl	r3, r3, #19
    831c:	e1a039a3 	lsr	r3, r3, #19
    8320:	e7843005 	str	r3, [r4, r5]
    8324:	e1a03007 	mov	r3, r7
    8328:	ea000000 	b	8330 <interrupt_vector+0xfc>
    832c:	e1a03008 	mov	r3, r8
    8330:	e3530000 	cmp	r3, #0
    8334:	1affffe3 	bne	82c8 <interrupt_vector+0x94>
    8338:	e59f3030 	ldr	r3, [pc, #48]	; 8370 <interrupt_vector+0x13c>
    833c:	e59f2030 	ldr	r2, [pc, #48]	; 8374 <interrupt_vector+0x140>
    8340:	e7932002 	ldr	r2, [r3, r2]
    8344:	e59f102c 	ldr	r1, [pc, #44]	; 8378 <interrupt_vector+0x144>
    8348:	e7933001 	ldr	r3, [r3, r1]
    834c:	e1520003 	cmp	r2, r3
    8350:	18bd81f0 	popne	{r4, r5, r6, r7, r8, pc}
    8354:	e3a00000 	mov	r0, #0
    8358:	ebffffa3 	bl	81ec <mod_tx_interrupts>
    835c:	e8bd81f0 	pop	{r4, r5, r6, r7, r8, pc}
    8360:	20215048 	eorcs	r5, r1, r8, asr #32
    8364:	0000a42c 	andeq	sl, r0, ip, lsr #8
    8368:	00002004 	andeq	r2, r0, r4
    836c:	00002008 	andeq	r2, r0, r8
    8370:	0000c424 	andeq	ip, r0, r4, lsr #8
    8374:	00002024 	andeq	r2, r0, r4, lsr #32
    8378:	00002028 	andeq	r2, r0, r8, lsr #32

0000837c <uart_putc_int>:
    837c:	e92d43f8 	push	{r3, r4, r5, r6, r7, r8, r9, lr}
    8380:	e1a04000 	mov	r4, r0
    8384:	eb000681 	bl	9d90 <system_disable_interrupts>
    8388:	e59f30c0 	ldr	r3, [pc, #192]	; 8450 <uart_putc_int+0xd4>
    838c:	e59f20c0 	ldr	r2, [pc, #192]	; 8454 <uart_putc_int+0xd8>
    8390:	e7931002 	ldr	r1, [r3, r2]
    8394:	e7932002 	ldr	r2, [r3, r2]
    8398:	e2822001 	add	r2, r2, #1
    839c:	e1a02982 	lsl	r2, r2, #19
    83a0:	e59f00b0 	ldr	r0, [pc, #176]	; 8458 <uart_putc_int+0xdc>
    83a4:	e7933000 	ldr	r3, [r3, r0]
    83a8:	e15309a2 	cmp	r3, r2, lsr #19
    83ac:	0a000007 	beq	83d0 <uart_putc_int+0x54>
    83b0:	e59f3098 	ldr	r3, [pc, #152]	; 8450 <uart_putc_int+0xd4>
    83b4:	e0832001 	add	r2, r3, r1
    83b8:	e5c24020 	strb	r4, [r2, #32]
    83bc:	e2811001 	add	r1, r1, #1
    83c0:	e1a01981 	lsl	r1, r1, #19
    83c4:	e1a019a1 	lsr	r1, r1, #19
    83c8:	e59f2084 	ldr	r2, [pc, #132]	; 8454 <uart_putc_int+0xd8>
    83cc:	e7831002 	str	r1, [r3, r2]
    83d0:	e3a00001 	mov	r0, #1
    83d4:	ebffff84 	bl	81ec <mod_tx_interrupts>
    83d8:	e59f4070 	ldr	r4, [pc, #112]	; 8450 <uart_putc_int+0xd4>
    83dc:	e59f7070 	ldr	r7, [pc, #112]	; 8454 <uart_putc_int+0xd8>
    83e0:	e59f5070 	ldr	r5, [pc, #112]	; 8458 <uart_putc_int+0xdc>
    83e4:	e3a09000 	mov	r9, #0
    83e8:	e3a08001 	mov	r8, #1
    83ec:	ea000001 	b	83f8 <uart_putc_int+0x7c>
    83f0:	e1a00006 	mov	r0, r6
    83f4:	eb0005b2 	bl	9ac4 <uart_putc>
    83f8:	eb0005aa 	bl	9aa8 <uart_can_putc>
    83fc:	e3500000 	cmp	r0, #0
    8400:	0a000010 	beq	8448 <uart_putc_int+0xcc>
    8404:	e7942007 	ldr	r2, [r4, r7]
    8408:	e7943005 	ldr	r3, [r4, r5]
    840c:	e1520003 	cmp	r2, r3
    8410:	0a000009 	beq	843c <uart_putc_int+0xc0>
    8414:	e7943005 	ldr	r3, [r4, r5]
    8418:	e0842003 	add	r2, r4, r3
    841c:	e5d26020 	ldrb	r6, [r2, #32]
    8420:	e6ef6076 	uxtb	r6, r6
    8424:	e2833001 	add	r3, r3, #1
    8428:	e1a03983 	lsl	r3, r3, #19
    842c:	e1a039a3 	lsr	r3, r3, #19
    8430:	e7843005 	str	r3, [r4, r5]
    8434:	e1a03008 	mov	r3, r8
    8438:	ea000000 	b	8440 <uart_putc_int+0xc4>
    843c:	e1a03009 	mov	r3, r9
    8440:	e3530000 	cmp	r3, #0
    8444:	1affffe9 	bne	83f0 <uart_putc_int+0x74>
    8448:	eb00064c 	bl	9d80 <system_enable_interrupts>
    844c:	e8bd83f8 	pop	{r3, r4, r5, r6, r7, r8, r9, pc}
    8450:	0000c424 	andeq	ip, r0, r4, lsr #8
    8454:	00002024 	andeq	r2, r0, r4, lsr #32
    8458:	00002028 	andeq	r2, r0, r8, lsr #32

0000845c <uart_getc_int>:
    845c:	e92d4010 	push	{r4, lr}
    8460:	eb00064a 	bl	9d90 <system_disable_interrupts>
    8464:	e59f306c 	ldr	r3, [pc, #108]	; 84d8 <uart_getc_int+0x7c>
    8468:	e59f206c 	ldr	r2, [pc, #108]	; 84dc <uart_getc_int+0x80>
    846c:	e7932002 	ldr	r2, [r3, r2]
    8470:	e59f1068 	ldr	r1, [pc, #104]	; 84e0 <uart_getc_int+0x84>
    8474:	e7933001 	ldr	r3, [r3, r1]
    8478:	e1520003 	cmp	r2, r3
    847c:	0a00000f 	beq	84c0 <uart_getc_int+0x64>
    8480:	e59f3050 	ldr	r3, [pc, #80]	; 84d8 <uart_getc_int+0x7c>
    8484:	e59f2050 	ldr	r2, [pc, #80]	; 84dc <uart_getc_int+0x80>
    8488:	e7932002 	ldr	r2, [r3, r2]
    848c:	e7933001 	ldr	r3, [r3, r1]
    8490:	e1520003 	cmp	r2, r3
    8494:	0a00000b 	beq	84c8 <uart_getc_int+0x6c>
    8498:	e59f3038 	ldr	r3, [pc, #56]	; 84d8 <uart_getc_int+0x7c>
    849c:	e1a02001 	mov	r2, r1
    84a0:	e7931001 	ldr	r1, [r3, r1]
    84a4:	e7d34001 	ldrb	r4, [r3, r1]
    84a8:	e6ef4074 	uxtb	r4, r4
    84ac:	e2811001 	add	r1, r1, #1
    84b0:	e1a01981 	lsl	r1, r1, #19
    84b4:	e1a019a1 	lsr	r1, r1, #19
    84b8:	e7831002 	str	r1, [r3, r2]
    84bc:	ea000002 	b	84cc <uart_getc_int+0x70>
    84c0:	e3a04082 	mov	r4, #130	; 0x82
    84c4:	ea000000 	b	84cc <uart_getc_int+0x70>
    84c8:	e3a04082 	mov	r4, #130	; 0x82
    84cc:	eb00062b 	bl	9d80 <system_enable_interrupts>
    84d0:	e1a00004 	mov	r0, r4
    84d4:	e8bd8010 	pop	{r4, pc}
    84d8:	0000a42c 	andeq	sl, r0, ip, lsr #8
    84dc:	00002004 	andeq	r2, r0, r4
    84e0:	00002008 	andeq	r2, r0, r8

000084e4 <my_puts>:
    84e4:	e92d4010 	push	{r4, lr}
    84e8:	e1a04000 	mov	r4, r0
    84ec:	ea000001 	b	84f8 <my_puts+0x14>
    84f0:	ebffffa1 	bl	837c <uart_putc_int>
    84f4:	e2844001 	add	r4, r4, #1
    84f8:	e5d40000 	ldrb	r0, [r4]
    84fc:	e3500000 	cmp	r0, #0
    8500:	1afffffa 	bne	84f0 <my_puts+0xc>
    8504:	e8bd8010 	pop	{r4, pc}

00008508 <uart_init_with_interrupts>:
    8508:	e92d4010 	push	{r4, lr}
    850c:	eb000602 	bl	9d1c <dev_barrier>
    8510:	e3a0000e 	mov	r0, #14
    8514:	e3a01002 	mov	r1, #2
    8518:	eb0002e8 	bl	90c0 <gpio_set_function>
    851c:	e3a0000f 	mov	r0, #15
    8520:	e3a01002 	mov	r1, #2
    8524:	eb0002e5 	bl	90c0 <gpio_set_function>
    8528:	eb0005fb 	bl	9d1c <dev_barrier>
    852c:	e59f4074 	ldr	r4, [pc, #116]	; 85a8 <uart_init_with_interrupts+0xa0>
    8530:	e1a00004 	mov	r0, r4
    8534:	eb00060a 	bl	9d64 <get32>
    8538:	e3801001 	orr	r1, r0, #1
    853c:	e1a00004 	mov	r0, r4
    8540:	eb0005fb 	bl	9d34 <put32>
    8544:	eb0005f4 	bl	9d1c <dev_barrier>
    8548:	e284405c 	add	r4, r4, #92	; 0x5c
    854c:	e1a00004 	mov	r0, r4
    8550:	e3a01000 	mov	r1, #0
    8554:	eb0005f6 	bl	9d34 <put32>
    8558:	e59f004c 	ldr	r0, [pc, #76]	; 85ac <uart_init_with_interrupts+0xa4>
    855c:	e3a01003 	mov	r1, #3
    8560:	eb0005f3 	bl	9d34 <put32>
    8564:	e59f0044 	ldr	r0, [pc, #68]	; 85b0 <uart_init_with_interrupts+0xa8>
    8568:	e3a01006 	mov	r1, #6
    856c:	eb0005f0 	bl	9d34 <put32>
    8570:	e59f003c 	ldr	r0, [pc, #60]	; 85b4 <uart_init_with_interrupts+0xac>
    8574:	e3a01003 	mov	r1, #3
    8578:	eb0005ed 	bl	9d34 <put32>
    857c:	e59f0034 	ldr	r0, [pc, #52]	; 85b8 <uart_init_with_interrupts+0xb0>
    8580:	e59f1034 	ldr	r1, [pc, #52]	; 85bc <uart_init_with_interrupts+0xb4>
    8584:	eb0005ea 	bl	9d34 <put32>
    8588:	e1a00004 	mov	r0, r4
    858c:	e3a01003 	mov	r1, #3
    8590:	eb0005e7 	bl	9d34 <put32>
    8594:	e59f0024 	ldr	r0, [pc, #36]	; 85c0 <uart_init_with_interrupts+0xb8>
    8598:	e3a01202 	mov	r1, #536870912	; 0x20000000
    859c:	eb0005e4 	bl	9d34 <put32>
    85a0:	eb0005dd 	bl	9d1c <dev_barrier>
    85a4:	e8bd8010 	pop	{r4, pc}
    85a8:	20215004 	eorcs	r5, r1, r4
    85ac:	20215044 	eorcs	r5, r1, r4, asr #32
    85b0:	20215048 	eorcs	r5, r1, r8, asr #32
    85b4:	2021504c 	eorcs	r5, r1, ip, asr #32
    85b8:	20215068 	eorcs	r5, r1, r8, rrx
    85bc:	0000010e 	andeq	r0, r0, lr, lsl #2
    85c0:	2000b210 	andcs	fp, r0, r0, lsl r2

000085c4 <notmain>:
    85c4:	e92d4008 	push	{r3, lr}
    85c8:	eb000553 	bl	9b1c <int_init>
    85cc:	ebffffcd 	bl	8508 <uart_init_with_interrupts>
    85d0:	e59f0050 	ldr	r0, [pc, #80]	; 8628 <notmain+0x64>
    85d4:	e3a01001 	mov	r1, #1
    85d8:	ebfffe8c 	bl	8010 <cq_init>
    85dc:	e59f0048 	ldr	r0, [pc, #72]	; 862c <notmain+0x68>
    85e0:	e3a01001 	mov	r1, #1
    85e4:	ebfffe89 	bl	8010 <cq_init>
    85e8:	e59f0040 	ldr	r0, [pc, #64]	; 8630 <notmain+0x6c>
    85ec:	e3a0100d 	mov	r1, #13
    85f0:	eb0005cf 	bl	9d34 <put32>
    85f4:	eb0005c8 	bl	9d1c <dev_barrier>
    85f8:	eb0005e0 	bl	9d80 <system_enable_interrupts>
    85fc:	eb0005c6 	bl	9d1c <dev_barrier>
    8600:	e59f002c 	ldr	r0, [pc, #44]	; 8634 <notmain+0x70>
    8604:	ebffffb6 	bl	84e4 <my_puts>
    8608:	ea000002 	b	8618 <notmain+0x54>
    860c:	ebffff92 	bl	845c <uart_getc_int>
    8610:	e6ef0070 	uxtb	r0, r0
    8614:	ebffff58 	bl	837c <uart_putc_int>
    8618:	ebfffee9 	bl	81c4 <uart_has_data_int>
    861c:	e3500000 	cmp	r0, #0
    8620:	1afffff9 	bne	860c <notmain+0x48>
    8624:	eafffffb 	b	8618 <notmain+0x54>
    8628:	0000a42c 	andeq	sl, r0, ip, lsr #8
    862c:	0000c444 	andeq	ip, r0, r4, asr #8
    8630:	20215040 	eorcs	r5, r1, r0, asr #32
    8634:	0000a034 	andeq	sl, r0, r4, lsr r0

00008638 <memset>:
    8638:	e0802002 	add	r2, r0, r2
    863c:	e1a03000 	mov	r3, r0
    8640:	ea000001 	b	864c <memset+0x14>
    8644:	e5c31000 	strb	r1, [r3]
    8648:	e2833001 	add	r3, r3, #1
    864c:	e1530002 	cmp	r3, r2
    8650:	3afffffb 	bcc	8644 <memset+0xc>
    8654:	e12fff1e 	bx	lr

00008658 <printk>:
    8658:	e92d000f 	push	{r0, r1, r2, r3}
    865c:	e92d4030 	push	{r4, r5, lr}
    8660:	e24dd00c 	sub	sp, sp, #12
    8664:	e28d301c 	add	r3, sp, #28
    8668:	e58d3004 	str	r3, [sp, #4]
    866c:	e59f4034 	ldr	r4, [pc, #52]	; 86a8 <printk+0x50>
    8670:	e1a00004 	mov	r0, r4
    8674:	e3a01b01 	mov	r1, #1024	; 0x400
    8678:	e59d2018 	ldr	r2, [sp, #24]
    867c:	eb0000c3 	bl	8990 <va_printk>
    8680:	e1a05000 	mov	r5, r0
    8684:	e59f3020 	ldr	r3, [pc, #32]	; 86ac <printk+0x54>
    8688:	e5933000 	ldr	r3, [r3]
    868c:	e1a00004 	mov	r0, r4
    8690:	e12fff33 	blx	r3
    8694:	e1a00005 	mov	r0, r5
    8698:	e28dd00c 	add	sp, sp, #12
    869c:	e8bd4030 	pop	{r4, r5, lr}
    86a0:	e28dd010 	add	sp, sp, #16
    86a4:	e12fff1e 	bx	lr
    86a8:	0000e45c 	andeq	lr, r0, ip, asr r4
    86ac:	00009eac 	andeq	r9, r0, ip, lsr #29

000086b0 <internal_putchar>:
    86b0:	e92d4010 	push	{r4, lr}
    86b4:	e1a04000 	mov	r4, r0
    86b8:	eb000501 	bl	9ac4 <uart_putc>
    86bc:	e1a00004 	mov	r0, r4
    86c0:	e8bd8010 	pop	{r4, pc}

000086c4 <rpi_reset_putc>:
    86c4:	e59f2008 	ldr	r2, [pc, #8]	; 86d4 <rpi_reset_putc+0x10>
    86c8:	e59f3008 	ldr	r3, [pc, #8]	; 86d8 <rpi_reset_putc+0x14>
    86cc:	e5832000 	str	r2, [r3]
    86d0:	e12fff1e 	bx	lr
    86d4:	000086b0 			; <UNDEFINED> instruction: 0x000086b0
    86d8:	00009ea8 	andeq	r9, r0, r8, lsr #29

000086dc <rpi_set_putc>:
    86dc:	e59f3004 	ldr	r3, [pc, #4]	; 86e8 <rpi_set_putc+0xc>
    86e0:	e5830000 	str	r0, [r3]
    86e4:	e12fff1e 	bx	lr
    86e8:	00009ea8 	andeq	r9, r0, r8, lsr #29

000086ec <internal_putk>:
    86ec:	e92d4038 	push	{r3, r4, r5, lr}
    86f0:	e1a04000 	mov	r4, r0
    86f4:	e59f5020 	ldr	r5, [pc, #32]	; 871c <internal_putk+0x30>
    86f8:	ea000002 	b	8708 <internal_putk+0x1c>
    86fc:	e5953000 	ldr	r3, [r5]
    8700:	e12fff33 	blx	r3
    8704:	e2844001 	add	r4, r4, #1
    8708:	e5d40000 	ldrb	r0, [r4]
    870c:	e3500000 	cmp	r0, #0
    8710:	1afffff9 	bne	86fc <internal_putk+0x10>
    8714:	e3a00001 	mov	r0, #1
    8718:	e8bd8038 	pop	{r3, r4, r5, pc}
    871c:	00009ea8 	andeq	r9, r0, r8, lsr #29

00008720 <isdigit>:
    8720:	e2400030 	sub	r0, r0, #48	; 0x30
    8724:	e3500009 	cmp	r0, #9
    8728:	83a00000 	movhi	r0, #0
    872c:	93a00001 	movls	r0, #1
    8730:	e12fff1e 	bx	lr

00008734 <pad>:
    8734:	e0611000 	rsb	r1, r1, r0
    8738:	e3a03020 	mov	r3, #32
    873c:	ea000002 	b	874c <pad+0x18>
    8740:	e5c03000 	strb	r3, [r0]
    8744:	e2811001 	add	r1, r1, #1
    8748:	e2800001 	add	r0, r0, #1
    874c:	e1510002 	cmp	r1, r2
    8750:	bafffffa 	blt	8740 <pad+0xc>
    8754:	e3a03000 	mov	r3, #0
    8758:	e5c03000 	strb	r3, [r0]
    875c:	e12fff1e 	bx	lr

00008760 <reverse>:
    8760:	e063c002 	rsb	ip, r3, r2
    8764:	e28cc001 	add	ip, ip, #1
    8768:	e15c0001 	cmp	ip, r1
    876c:	c061100c 	rsbgt	r1, r1, ip
    8770:	c0833001 	addgt	r3, r3, r1
    8774:	e2422001 	sub	r2, r2, #1
    8778:	e1a01000 	mov	r1, r0
    877c:	ea000002 	b	878c <reverse+0x2c>
    8780:	e452c001 	ldrb	ip, [r2], #-1
    8784:	e5c1c000 	strb	ip, [r1]
    8788:	e2811001 	add	r1, r1, #1
    878c:	e1520003 	cmp	r2, r3
    8790:	2afffffa 	bcs	8780 <reverse+0x20>
    8794:	e3a03000 	mov	r3, #0
    8798:	e5c13000 	strb	r3, [r1]
    879c:	e12fff1e 	bx	lr

000087a0 <emit>:
    87a0:	e92d41f0 	push	{r4, r5, r6, r7, r8, lr}
    87a4:	e24dd040 	sub	sp, sp, #64	; 0x40
    87a8:	e1a05001 	mov	r5, r1
    87ac:	e1a04002 	mov	r4, r2
    87b0:	e59d2058 	ldr	r2, [sp, #88]	; 0x58
    87b4:	e1520004 	cmp	r2, r4
    87b8:	c2442001 	subgt	r2, r4, #1
    87bc:	e1a0c003 	mov	ip, r3
    87c0:	e2400002 	sub	r0, r0, #2
    87c4:	e350000e 	cmp	r0, #14
    87c8:	979ff100 	ldrls	pc, [pc, r0, lsl #2]
    87cc:	ea000042 	b	88dc <emit+0x13c>
    87d0:	000088b4 			; <UNDEFINED> instruction: 0x000088b4
    87d4:	000088dc 	ldrdeq	r8, [r0], -ip
    87d8:	000088dc 	ldrdeq	r8, [r0], -ip
    87dc:	000088dc 	ldrdeq	r8, [r0], -ip
    87e0:	000088dc 	ldrdeq	r8, [r0], -ip
    87e4:	000088dc 	ldrdeq	r8, [r0], -ip
    87e8:	000088a8 	andeq	r8, r0, r8, lsr #17
    87ec:	000088dc 	ldrdeq	r8, [r0], -ip
    87f0:	0000880c 	andeq	r8, r0, ip, lsl #16
    87f4:	000088dc 	ldrdeq	r8, [r0], -ip
    87f8:	000088dc 	ldrdeq	r8, [r0], -ip
    87fc:	000088dc 	ldrdeq	r8, [r0], -ip
    8800:	000088dc 	ldrdeq	r8, [r0], -ip
    8804:	000088dc 	ldrdeq	r8, [r0], -ip
    8808:	00008880 	andeq	r8, r0, r0, lsl #17
    880c:	e59d105c 	ldr	r1, [sp, #92]	; 0x5c
    8810:	e2911000 	adds	r1, r1, #0
    8814:	13a01001 	movne	r1, #1
    8818:	e0111fa3 	ands	r1, r1, r3, lsr #31
    881c:	1263c000 	rsbne	ip, r3, #0
    8820:	13a08001 	movne	r8, #1
    8824:	03a08000 	moveq	r8, #0
    8828:	e1a0100d 	mov	r1, sp
    882c:	e59f70ec 	ldr	r7, [pc, #236]	; 8920 <emit+0x180>
    8830:	e59f60ec 	ldr	r6, [pc, #236]	; 8924 <emit+0x184>
    8834:	ea000000 	b	883c <emit+0x9c>
    8838:	e1a01003 	mov	r1, r3
    883c:	e2813001 	add	r3, r1, #1
    8840:	e08e0c97 	umull	r0, lr, r7, ip
    8844:	e1a0e1ae 	lsr	lr, lr, #3
    8848:	e1a0000e 	mov	r0, lr
    884c:	e08ee10e 	add	lr, lr, lr, lsl #2
    8850:	e1a0e08e 	lsl	lr, lr, #1
    8854:	e06ee00c 	rsb	lr, lr, ip
    8858:	e7d6c00e 	ldrb	ip, [r6, lr]
    885c:	e5c1c000 	strb	ip, [r1]
    8860:	e1a0c000 	mov	ip, r0
    8864:	e3500000 	cmp	r0, #0
    8868:	1afffff2 	bne	8838 <emit+0x98>
    886c:	e3580000 	cmp	r8, #0
    8870:	12813002 	addne	r3, r1, #2
    8874:	13a0002d 	movne	r0, #45	; 0x2d
    8878:	15c10001 	strbne	r0, [r1, #1]
    887c:	ea00001d 	b	88f8 <emit+0x158>
    8880:	e1a0e00d 	mov	lr, sp
    8884:	e59f009c 	ldr	r0, [pc, #156]	; 8928 <emit+0x188>
    8888:	e28e3001 	add	r3, lr, #1
    888c:	e20c100f 	and	r1, ip, #15
    8890:	e7d01001 	ldrb	r1, [r0, r1]
    8894:	e5ce1000 	strb	r1, [lr]
    8898:	e1a0e003 	mov	lr, r3
    889c:	e1b0c22c 	lsrs	ip, ip, #4
    88a0:	1afffff8 	bne	8888 <emit+0xe8>
    88a4:	ea000013 	b	88f8 <emit+0x158>
    88a8:	e5cd3000 	strb	r3, [sp]
    88ac:	e28d3001 	add	r3, sp, #1
    88b0:	ea000010 	b	88f8 <emit+0x158>
    88b4:	e1a0e00d 	mov	lr, sp
    88b8:	e59f006c 	ldr	r0, [pc, #108]	; 892c <emit+0x18c>
    88bc:	e28e3001 	add	r3, lr, #1
    88c0:	e20c1001 	and	r1, ip, #1
    88c4:	e7d01001 	ldrb	r1, [r0, r1]
    88c8:	e5ce1000 	strb	r1, [lr]
    88cc:	e1a0e003 	mov	lr, r3
    88d0:	e1b0c0ac 	lsrs	ip, ip, #1
    88d4:	1afffff8 	bne	88bc <emit+0x11c>
    88d8:	ea000006 	b	88f8 <emit+0x158>
    88dc:	ebffff78 	bl	86c4 <rpi_reset_putc>
    88e0:	e59f0048 	ldr	r0, [pc, #72]	; 8930 <emit+0x190>
    88e4:	e59f1048 	ldr	r1, [pc, #72]	; 8934 <emit+0x194>
    88e8:	e59f2048 	ldr	r2, [pc, #72]	; 8938 <emit+0x198>
    88ec:	e3a03075 	mov	r3, #117	; 0x75
    88f0:	ebffff58 	bl	8658 <printk>
    88f4:	eb0000c7 	bl	8c18 <clean_reboot>
    88f8:	e1a00003 	mov	r0, r3
    88fc:	e1a0100d 	mov	r1, sp
    8900:	ebffff8b 	bl	8734 <pad>
    8904:	e1a02000 	mov	r2, r0
    8908:	e1a00005 	mov	r0, r5
    890c:	e1a01004 	mov	r1, r4
    8910:	e1a0300d 	mov	r3, sp
    8914:	ebffff91 	bl	8760 <reverse>
    8918:	e28dd040 	add	sp, sp, #64	; 0x40
    891c:	e8bd81f0 	pop	{r4, r5, r6, r7, r8, pc}
    8920:	cccccccd 	stclgt	12, cr12, [ip], {205}	; 0xcd
    8924:	0000a0a8 	andeq	sl, r0, r8, lsr #1
    8928:	0000a0b4 	strheq	sl, [r0], -r4
    892c:	0000a0c8 	andeq	sl, r0, r8, asr #1
    8930:	0000a080 	andeq	sl, r0, r0, lsl #1
    8934:	0000a094 	muleq	r0, r4, r0
    8938:	0000a05c 	andeq	sl, r0, ip, asr r0

0000893c <rpi_set_output>:
    893c:	e92d4008 	push	{r3, lr}
    8940:	e3500000 	cmp	r0, #0
    8944:	1a000006 	bne	8964 <rpi_set_output+0x28>
    8948:	ebffff5d 	bl	86c4 <rpi_reset_putc>
    894c:	e59f0028 	ldr	r0, [pc, #40]	; 897c <rpi_set_output+0x40>
    8950:	e59f1028 	ldr	r1, [pc, #40]	; 8980 <rpi_set_output+0x44>
    8954:	e59f2028 	ldr	r2, [pc, #40]	; 8984 <rpi_set_output+0x48>
    8958:	e3a03020 	mov	r3, #32
    895c:	ebffff3d 	bl	8658 <printk>
    8960:	eb0000ac 	bl	8c18 <clean_reboot>
    8964:	e59f301c 	ldr	r3, [pc, #28]	; 8988 <rpi_set_output+0x4c>
    8968:	e5830000 	str	r0, [r3]
    896c:	e3510000 	cmp	r1, #0
    8970:	159f3014 	ldrne	r3, [pc, #20]	; 898c <rpi_set_output+0x50>
    8974:	15831000 	strne	r1, [r3]
    8978:	e8bd8008 	pop	{r3, pc}
    897c:	0000a0cc 	andeq	sl, r0, ip, asr #1
    8980:	0000a094 	muleq	r0, r4, r0
    8984:	0000a064 	andeq	sl, r0, r4, rrx
    8988:	00009ea8 	andeq	r9, r0, r8, lsr #29
    898c:	00009eac 	andeq	r9, r0, ip, lsr #29

00008990 <va_printk>:
    8990:	e92d4ff0 	push	{r4, r5, r6, r7, r8, r9, sl, fp, lr}
    8994:	e24dd08c 	sub	sp, sp, #140	; 0x8c
    8998:	e1a0a000 	mov	sl, r0
    899c:	e1a09003 	mov	r9, r3
    89a0:	e2411001 	sub	r1, r1, #1
    89a4:	e0808001 	add	r8, r0, r1
    89a8:	e3a03000 	mov	r3, #0
    89ac:	e5c03000 	strb	r3, [r0]
    89b0:	e1a04000 	mov	r4, r0
    89b4:	e1a0b003 	mov	fp, r3
    89b8:	ea000086 	b	8bd8 <va_printk+0x248>
    89bc:	e3530025 	cmp	r3, #37	; 0x25
    89c0:	12822001 	addne	r2, r2, #1
    89c4:	15c43000 	strbne	r3, [r4]
    89c8:	12844001 	addne	r4, r4, #1
    89cc:	1a000081 	bne	8bd8 <va_printk+0x248>
    89d0:	e5d21001 	ldrb	r1, [r2, #1]
    89d4:	e3510025 	cmp	r1, #37	; 0x25
    89d8:	05c43000 	strbeq	r3, [r4]
    89dc:	02822002 	addeq	r2, r2, #2
    89e0:	02844001 	addeq	r4, r4, #1
    89e4:	0a00007b 	beq	8bd8 <va_printk+0x248>
    89e8:	e2826001 	add	r6, r2, #1
    89ec:	e1a0700b 	mov	r7, fp
    89f0:	ea000004 	b	8a08 <va_printk+0x78>
    89f4:	e0877107 	add	r7, r7, r7, lsl #2
    89f8:	e1a07087 	lsl	r7, r7, #1
    89fc:	e0877005 	add	r7, r7, r5
    8a00:	e2477030 	sub	r7, r7, #48	; 0x30
    8a04:	e2866001 	add	r6, r6, #1
    8a08:	e5d65000 	ldrb	r5, [r6]
    8a0c:	e1a00005 	mov	r0, r5
    8a10:	ebffff42 	bl	8720 <isdigit>
    8a14:	e3500000 	cmp	r0, #0
    8a18:	1afffff5 	bne	89f4 <va_printk+0x64>
    8a1c:	e357001f 	cmp	r7, #31
    8a20:	9a000006 	bls	8a40 <va_printk+0xb0>
    8a24:	ebffff26 	bl	86c4 <rpi_reset_putc>
    8a28:	e59f01d4 	ldr	r0, [pc, #468]	; 8c04 <va_printk+0x274>
    8a2c:	e59f11d4 	ldr	r1, [pc, #468]	; 8c08 <va_printk+0x278>
    8a30:	e59f21d4 	ldr	r2, [pc, #468]	; 8c0c <va_printk+0x27c>
    8a34:	e3a03092 	mov	r3, #146	; 0x92
    8a38:	ebffff06 	bl	8658 <printk>
    8a3c:	eb000075 	bl	8c18 <clean_reboot>
    8a40:	e2455062 	sub	r5, r5, #98	; 0x62
    8a44:	e3550016 	cmp	r5, #22
    8a48:	979ff105 	ldrls	pc, [pc, r5, lsl #2]
    8a4c:	ea00004e 	b	8b8c <va_printk+0x1fc>
    8a50:	00008b38 	andeq	r8, r0, r8, lsr fp
    8a54:	00008b68 	andeq	r8, r0, r8, ror #22
    8a58:	00008ac8 	andeq	r8, r0, r8, asr #21
    8a5c:	00008b8c 	andeq	r8, r0, ip, lsl #23
    8a60:	00008aac 	andeq	r8, r0, ip, lsr #21
    8a64:	00008b8c 	andeq	r8, r0, ip, lsl #23
    8a68:	00008b8c 	andeq	r8, r0, ip, lsl #23
    8a6c:	00008b8c 	andeq	r8, r0, ip, lsl #23
    8a70:	00008b8c 	andeq	r8, r0, ip, lsl #23
    8a74:	00008b8c 	andeq	r8, r0, ip, lsl #23
    8a78:	00008b8c 	andeq	r8, r0, ip, lsl #23
    8a7c:	00008b8c 	andeq	r8, r0, ip, lsl #23
    8a80:	00008b8c 	andeq	r8, r0, ip, lsl #23
    8a84:	00008b8c 	andeq	r8, r0, ip, lsl #23
    8a88:	00008b14 	andeq	r8, r0, r4, lsl fp
    8a8c:	00008b8c 	andeq	r8, r0, ip, lsl #23
    8a90:	00008b8c 	andeq	r8, r0, ip, lsl #23
    8a94:	00008b5c 	andeq	r8, r0, ip, asr fp
    8a98:	00008b8c 	andeq	r8, r0, ip, lsl #23
    8a9c:	00008af0 	strdeq	r8, [r0], -r0
    8aa0:	00008b8c 	andeq	r8, r0, ip, lsl #23
    8aa4:	00008b8c 	andeq	r8, r0, ip, lsl #23
    8aa8:	00008b14 	andeq	r8, r0, r4, lsl fp
    8aac:	ebffff04 	bl	86c4 <rpi_reset_putc>
    8ab0:	e59f0158 	ldr	r0, [pc, #344]	; 8c10 <va_printk+0x280>
    8ab4:	e59f114c 	ldr	r1, [pc, #332]	; 8c08 <va_printk+0x278>
    8ab8:	e59f214c 	ldr	r2, [pc, #332]	; 8c0c <va_printk+0x27c>
    8abc:	e3a03098 	mov	r3, #152	; 0x98
    8ac0:	ebfffee4 	bl	8658 <printk>
    8ac4:	eb000053 	bl	8c18 <clean_reboot>
    8ac8:	e5993000 	ldr	r3, [r9]
    8acc:	e2899004 	add	r9, r9, #4
    8ad0:	e58d7000 	str	r7, [sp]
    8ad4:	e3a02001 	mov	r2, #1
    8ad8:	e58d2004 	str	r2, [sp, #4]
    8adc:	e3a0000a 	mov	r0, #10
    8ae0:	e28d1008 	add	r1, sp, #8
    8ae4:	e3a02080 	mov	r2, #128	; 0x80
    8ae8:	ebffff2c 	bl	87a0 <emit>
    8aec:	ea00002f 	b	8bb0 <va_printk+0x220>
    8af0:	e5993000 	ldr	r3, [r9]
    8af4:	e2899004 	add	r9, r9, #4
    8af8:	e58d7000 	str	r7, [sp]
    8afc:	e58db004 	str	fp, [sp, #4]
    8b00:	e3a0000a 	mov	r0, #10
    8b04:	e28d1008 	add	r1, sp, #8
    8b08:	e3a02080 	mov	r2, #128	; 0x80
    8b0c:	ebffff23 	bl	87a0 <emit>
    8b10:	ea000026 	b	8bb0 <va_printk+0x220>
    8b14:	e5993000 	ldr	r3, [r9]
    8b18:	e2899004 	add	r9, r9, #4
    8b1c:	e58d7000 	str	r7, [sp]
    8b20:	e58db004 	str	fp, [sp, #4]
    8b24:	e3a00010 	mov	r0, #16
    8b28:	e28d1008 	add	r1, sp, #8
    8b2c:	e3a02080 	mov	r2, #128	; 0x80
    8b30:	ebffff1a 	bl	87a0 <emit>
    8b34:	ea00001d 	b	8bb0 <va_printk+0x220>
    8b38:	e5993000 	ldr	r3, [r9]
    8b3c:	e2899004 	add	r9, r9, #4
    8b40:	e58d7000 	str	r7, [sp]
    8b44:	e58db004 	str	fp, [sp, #4]
    8b48:	e3a00002 	mov	r0, #2
    8b4c:	e28d1008 	add	r1, sp, #8
    8b50:	e3a02080 	mov	r2, #128	; 0x80
    8b54:	ebffff11 	bl	87a0 <emit>
    8b58:	ea000014 	b	8bb0 <va_printk+0x220>
    8b5c:	e5990000 	ldr	r0, [r9]
    8b60:	e2899004 	add	r9, r9, #4
    8b64:	ea000011 	b	8bb0 <va_printk+0x220>
    8b68:	e5993000 	ldr	r3, [r9]
    8b6c:	e2899004 	add	r9, r9, #4
    8b70:	e58d7000 	str	r7, [sp]
    8b74:	e58db004 	str	fp, [sp, #4]
    8b78:	e3a00008 	mov	r0, #8
    8b7c:	e08d1000 	add	r1, sp, r0
    8b80:	e3a02080 	mov	r2, #128	; 0x80
    8b84:	ebffff05 	bl	87a0 <emit>
    8b88:	ea000008 	b	8bb0 <va_printk+0x220>
    8b8c:	ebfffecc 	bl	86c4 <rpi_reset_putc>
    8b90:	e5d63000 	ldrb	r3, [r6]
    8b94:	e58d3000 	str	r3, [sp]
    8b98:	e59f0074 	ldr	r0, [pc, #116]	; 8c14 <va_printk+0x284>
    8b9c:	e59f1064 	ldr	r1, [pc, #100]	; 8c08 <va_printk+0x278>
    8ba0:	e59f2064 	ldr	r2, [pc, #100]	; 8c0c <va_printk+0x27c>
    8ba4:	e3a030b9 	mov	r3, #185	; 0xb9
    8ba8:	ebfffeaa 	bl	8658 <printk>
    8bac:	eb000019 	bl	8c18 <clean_reboot>
    8bb0:	e2862001 	add	r2, r6, #1
    8bb4:	ea000002 	b	8bc4 <va_printk+0x234>
    8bb8:	e2800001 	add	r0, r0, #1
    8bbc:	e5c43000 	strb	r3, [r4]
    8bc0:	e2844001 	add	r4, r4, #1
    8bc4:	e1540008 	cmp	r4, r8
    8bc8:	2a000002 	bcs	8bd8 <va_printk+0x248>
    8bcc:	e5d03000 	ldrb	r3, [r0]
    8bd0:	e3530000 	cmp	r3, #0
    8bd4:	1afffff7 	bne	8bb8 <va_printk+0x228>
    8bd8:	e5d23000 	ldrb	r3, [r2]
    8bdc:	e3530000 	cmp	r3, #0
    8be0:	0a000001 	beq	8bec <va_printk+0x25c>
    8be4:	e1540008 	cmp	r4, r8
    8be8:	3affff73 	bcc	89bc <va_printk+0x2c>
    8bec:	e2840001 	add	r0, r4, #1
    8bf0:	e3a03000 	mov	r3, #0
    8bf4:	e5c43000 	strb	r3, [r4]
    8bf8:	e06a0000 	rsb	r0, sl, r0
    8bfc:	e28dd08c 	add	sp, sp, #140	; 0x8c
    8c00:	e8bd8ff0 	pop	{r4, r5, r6, r7, r8, r9, sl, fp, pc}
    8c04:	0000a0e4 	andeq	sl, r0, r4, ror #1
    8c08:	0000a094 	muleq	r0, r4, r0
    8c0c:	0000a074 	andeq	sl, r0, r4, ror r0
    8c10:	0000a100 	andeq	sl, r0, r0, lsl #2
    8c14:	0000a128 	andeq	sl, r0, r8, lsr #2

00008c18 <clean_reboot>:
    8c18:	e92d4008 	push	{r3, lr}
    8c1c:	e59f3014 	ldr	r3, [pc, #20]	; 8c38 <clean_reboot+0x20>
    8c20:	e5933000 	ldr	r3, [r3]
    8c24:	e59f0010 	ldr	r0, [pc, #16]	; 8c3c <clean_reboot+0x24>
    8c28:	e12fff33 	blx	r3
    8c2c:	e3a00064 	mov	r0, #100	; 0x64
    8c30:	eb000063 	bl	8dc4 <delay_ms>
    8c34:	eb000038 	bl	8d1c <rpi_reboot>
    8c38:	00009eac 	andeq	r9, r0, ip, lsr #29
    8c3c:	0000a160 	andeq	sl, r0, r0, ror #2

00008c40 <internal_sw_putchar>:
    8c40:	e92d4010 	push	{r4, lr}
    8c44:	e1a04000 	mov	r4, r0
    8c48:	e59f000c 	ldr	r0, [pc, #12]	; 8c5c <internal_sw_putchar+0x1c>
    8c4c:	e6ef1074 	uxtb	r1, r4
    8c50:	eb0001d4 	bl	93a8 <sw_uart_putc>
    8c54:	e1a00004 	mov	r0, r4
    8c58:	e8bd8010 	pop	{r4, pc}
    8c5c:	0000e85c 	andeq	lr, r0, ip, asr r8

00008c60 <_cstart>:
    8c60:	e92d4008 	push	{r3, lr}
    8c64:	e59f3068 	ldr	r3, [pc, #104]	; 8cd4 <_cstart+0x74>
    8c68:	e59f2068 	ldr	r2, [pc, #104]	; 8cd8 <_cstart+0x78>
    8c6c:	e3a01000 	mov	r1, #0
    8c70:	ea000001 	b	8c7c <_cstart+0x1c>
    8c74:	e5831000 	str	r1, [r3]
    8c78:	e2833004 	add	r3, r3, #4
    8c7c:	e1530002 	cmp	r3, r2
    8c80:	3afffffb 	bcc	8c74 <_cstart+0x14>
    8c84:	eb00047d 	bl	9e80 <cb_get_block>
    8c88:	e3500000 	cmp	r0, #0
    8c8c:	0a00000e 	beq	8ccc <_cstart+0x6c>
    8c90:	e5d02004 	ldrb	r2, [r0, #4]
    8c94:	e3520002 	cmp	r2, #2
    8c98:	1a00000b 	bne	8ccc <_cstart+0x6c>
    8c9c:	e59f1038 	ldr	r1, [pc, #56]	; 8cdc <_cstart+0x7c>
    8ca0:	e59f2038 	ldr	r2, [pc, #56]	; 8ce0 <_cstart+0x80>
    8ca4:	e5821000 	str	r1, [r2]
    8ca8:	e59fc034 	ldr	ip, [pc, #52]	; 8ce4 <_cstart+0x84>
    8cac:	e2803008 	add	r3, r0, #8
    8cb0:	e8930007 	ldm	r3, {r0, r1, r2}
    8cb4:	e88c0007 	stm	ip, {r0, r1, r2}
    8cb8:	e1a0000c 	mov	r0, ip
    8cbc:	e59f1024 	ldr	r1, [pc, #36]	; 8ce8 <_cstart+0x88>
    8cc0:	eb00030c 	bl	98f8 <sw_uart_printk>
    8cc4:	e59f0020 	ldr	r0, [pc, #32]	; 8cec <_cstart+0x8c>
    8cc8:	ebfffe62 	bl	8658 <printk>
    8ccc:	ebfffe3c 	bl	85c4 <notmain>
    8cd0:	eb000011 	bl	8d1c <rpi_reboot>
    8cd4:	0000a42c 	andeq	sl, r0, ip, lsr #8
    8cd8:	0000e870 	andeq	lr, r0, r0, ror r8
    8cdc:	00008c40 	andeq	r8, r0, r0, asr #24
    8ce0:	00009ea8 	andeq	r9, r0, r8, lsr #29
    8ce4:	0000e85c 	andeq	lr, r0, ip, asr r8
    8ce8:	0000a16c 	andeq	sl, r0, ip, ror #2
    8cec:	0000a190 	muleq	r0, r0, r1

00008cf0 <at_user_level>:
    8cf0:	e10f0000 	mrs	r0, CPSR
    8cf4:	e200001f 	and	r0, r0, #31
    8cf8:	e3500010 	cmp	r0, #16
    8cfc:	13a00000 	movne	r0, #0
    8d00:	03a00001 	moveq	r0, #1
    8d04:	e12fff1e 	bx	lr

00008d08 <set_user_level>:
    8d08:	e10f3000 	mrs	r3, CPSR
    8d0c:	e3c3301f 	bic	r3, r3, #31
    8d10:	e3833010 	orr	r3, r3, #16
    8d14:	e129f003 	msr	CPSR_fc, r3
    8d18:	e12fff1e 	bx	lr

00008d1c <rpi_reboot>:
    8d1c:	e92d4008 	push	{r3, lr}
    8d20:	ebfffff2 	bl	8cf0 <at_user_level>
    8d24:	e3500000 	cmp	r0, #0
    8d28:	0a000000 	beq	8d30 <rpi_reboot+0x14>
    8d2c:	ebfffff5 	bl	8d08 <set_user_level>
    8d30:	e3a0001e 	mov	r0, #30
    8d34:	eb000022 	bl	8dc4 <delay_ms>
    8d38:	e59f0014 	ldr	r0, [pc, #20]	; 8d54 <rpi_reboot+0x38>
    8d3c:	e59f1014 	ldr	r1, [pc, #20]	; 8d58 <rpi_reboot+0x3c>
    8d40:	eb0003fd 	bl	9d3c <PUT32>
    8d44:	e59f0010 	ldr	r0, [pc, #16]	; 8d5c <rpi_reboot+0x40>
    8d48:	e59f1010 	ldr	r1, [pc, #16]	; 8d60 <rpi_reboot+0x44>
    8d4c:	eb0003fa 	bl	9d3c <PUT32>
    8d50:	eafffffe 	b	8d50 <rpi_reboot+0x34>
    8d54:	20100024 	andscs	r0, r0, r4, lsr #32
    8d58:	5a000001 	bpl	8d64 <delay_cycles>
    8d5c:	2010001c 	andscs	r0, r0, ip, lsl r0
    8d60:	5a000020 	bpl	8de8 <delay_sec+0x10>

00008d64 <delay_cycles>:
    8d64:	ea000001 	b	8d70 <delay_cycles+0xc>
    8d68:	e2811000 	add	r1, r1, #0
    8d6c:	e1a00003 	mov	r0, r3
    8d70:	e2403001 	sub	r3, r0, #1
    8d74:	e3500000 	cmp	r0, #0
    8d78:	1afffffa 	bne	8d68 <delay_cycles+0x4>
    8d7c:	e12fff1e 	bx	lr

00008d80 <timer_get_usec_raw>:
    8d80:	e92d4008 	push	{r3, lr}
    8d84:	e59f0004 	ldr	r0, [pc, #4]	; 8d90 <timer_get_usec_raw+0x10>
    8d88:	eb0003f7 	bl	9d6c <GET32>
    8d8c:	e8bd8008 	pop	{r3, pc}
    8d90:	20003004 	andcs	r3, r0, r4

00008d94 <timer_get_usec>:
    8d94:	e92d4008 	push	{r3, lr}
    8d98:	ebfffff8 	bl	8d80 <timer_get_usec_raw>
    8d9c:	e8bd8008 	pop	{r3, pc}

00008da0 <delay_us>:
    8da0:	e92d4038 	push	{r3, r4, r5, lr}
    8da4:	e1a05000 	mov	r5, r0
    8da8:	ebfffff9 	bl	8d94 <timer_get_usec>
    8dac:	e1a04000 	mov	r4, r0
    8db0:	ebfffff7 	bl	8d94 <timer_get_usec>
    8db4:	e0640000 	rsb	r0, r4, r0
    8db8:	e1500005 	cmp	r0, r5
    8dbc:	3afffffb 	bcc	8db0 <delay_us+0x10>
    8dc0:	e8bd8038 	pop	{r3, r4, r5, pc}

00008dc4 <delay_ms>:
    8dc4:	e92d4008 	push	{r3, lr}
    8dc8:	e3a03ffa 	mov	r3, #1000	; 0x3e8
    8dcc:	e0000093 	mul	r0, r3, r0
    8dd0:	ebfffff2 	bl	8da0 <delay_us>
    8dd4:	e8bd8008 	pop	{r3, pc}

00008dd8 <delay_sec>:
    8dd8:	e92d4008 	push	{r3, lr}
    8ddc:	e3a03ffa 	mov	r3, #1000	; 0x3e8
    8de0:	e0000093 	mul	r0, r3, r0
    8de4:	ebfffff6 	bl	8dc4 <delay_ms>
    8de8:	e8bd8008 	pop	{r3, pc}

00008dec <gpio_set_output>:
    8dec:	e92d4038 	push	{r3, r4, r5, lr}
    8df0:	e1a04000 	mov	r4, r0
    8df4:	e350001f 	cmp	r0, #31
    8df8:	88bd8038 	pophi	{r3, r4, r5, pc}
    8dfc:	e59f30b4 	ldr	r3, [pc, #180]	; 8eb8 <gpio_set_output+0xcc>
    8e00:	e0832093 	umull	r2, r3, r3, r0
    8e04:	e1a031a3 	lsr	r3, r3, #3
    8e08:	e3530005 	cmp	r3, #5
    8e0c:	979ff103 	ldrls	pc, [pc, r3, lsl #2]
    8e10:	ea000017 	b	8e74 <gpio_set_output+0x88>
    8e14:	00008e2c 	andeq	r8, r0, ip, lsr #28
    8e18:	00008e38 	andeq	r8, r0, r8, lsr lr
    8e1c:	00008e44 	andeq	r8, r0, r4, asr #28
    8e20:	00008e50 	andeq	r8, r0, r0, asr lr
    8e24:	00008e5c 	andeq	r8, r0, ip, asr lr
    8e28:	00008e68 	andeq	r8, r0, r8, ror #28
    8e2c:	e59f3088 	ldr	r3, [pc, #136]	; 8ebc <gpio_set_output+0xd0>
    8e30:	e5935000 	ldr	r5, [r3]
    8e34:	ea00000f 	b	8e78 <gpio_set_output+0x8c>
    8e38:	e59f307c 	ldr	r3, [pc, #124]	; 8ebc <gpio_set_output+0xd0>
    8e3c:	e5935004 	ldr	r5, [r3, #4]
    8e40:	ea00000c 	b	8e78 <gpio_set_output+0x8c>
    8e44:	e59f3070 	ldr	r3, [pc, #112]	; 8ebc <gpio_set_output+0xd0>
    8e48:	e5935008 	ldr	r5, [r3, #8]
    8e4c:	ea000009 	b	8e78 <gpio_set_output+0x8c>
    8e50:	e59f3064 	ldr	r3, [pc, #100]	; 8ebc <gpio_set_output+0xd0>
    8e54:	e593500c 	ldr	r5, [r3, #12]
    8e58:	ea000006 	b	8e78 <gpio_set_output+0x8c>
    8e5c:	e59f3058 	ldr	r3, [pc, #88]	; 8ebc <gpio_set_output+0xd0>
    8e60:	e5935010 	ldr	r5, [r3, #16]
    8e64:	ea000003 	b	8e78 <gpio_set_output+0x8c>
    8e68:	e59f304c 	ldr	r3, [pc, #76]	; 8ebc <gpio_set_output+0xd0>
    8e6c:	e5935014 	ldr	r5, [r3, #20]
    8e70:	ea000000 	b	8e78 <gpio_set_output+0x8c>
    8e74:	e3a05000 	mov	r5, #0
    8e78:	e1a00005 	mov	r0, r5
    8e7c:	eb0003b8 	bl	9d64 <get32>
    8e80:	e59f1030 	ldr	r1, [pc, #48]	; 8eb8 <gpio_set_output+0xcc>
    8e84:	e0813491 	umull	r3, r1, r1, r4
    8e88:	e1a011a1 	lsr	r1, r1, #3
    8e8c:	e0811101 	add	r1, r1, r1, lsl #2
    8e90:	e1a01081 	lsl	r1, r1, #1
    8e94:	e0611004 	rsb	r1, r1, r4
    8e98:	e0811081 	add	r1, r1, r1, lsl #1
    8e9c:	e3a03007 	mov	r3, #7
    8ea0:	e1c03113 	bic	r3, r0, r3, lsl r1
    8ea4:	e1a00005 	mov	r0, r5
    8ea8:	e3a02001 	mov	r2, #1
    8eac:	e1831112 	orr	r1, r3, r2, lsl r1
    8eb0:	eb00039f 	bl	9d34 <put32>
    8eb4:	e8bd8038 	pop	{r3, r4, r5, pc}
    8eb8:	cccccccd 	stclgt	12, cr12, [ip], {205}	; 0xcd
    8ebc:	00009eb0 			; <UNDEFINED> instruction: 0x00009eb0

00008ec0 <gpio_set_on>:
    8ec0:	e92d4008 	push	{r3, lr}
    8ec4:	e350001f 	cmp	r0, #31
    8ec8:	88bd8008 	pophi	{r3, pc}
    8ecc:	959f3020 	ldrls	r3, [pc, #32]	; 8ef4 <gpio_set_on+0x34>
    8ed0:	95932018 	ldrls	r2, [r3, #24]
    8ed4:	859f3018 	ldrhi	r3, [pc, #24]	; 8ef4 <gpio_set_on+0x34>
    8ed8:	8593201c 	ldrhi	r2, [r3, #28]
    8edc:	e200301f 	and	r3, r0, #31
    8ee0:	e1a00002 	mov	r0, r2
    8ee4:	e3a01001 	mov	r1, #1
    8ee8:	e1a01311 	lsl	r1, r1, r3
    8eec:	eb000390 	bl	9d34 <put32>
    8ef0:	e8bd8008 	pop	{r3, pc}
    8ef4:	00009eb0 			; <UNDEFINED> instruction: 0x00009eb0

00008ef8 <gpio_set_off>:
    8ef8:	e92d4008 	push	{r3, lr}
    8efc:	e350001f 	cmp	r0, #31
    8f00:	88bd8008 	pophi	{r3, pc}
    8f04:	959f3020 	ldrls	r3, [pc, #32]	; 8f2c <gpio_set_off+0x34>
    8f08:	95932020 	ldrls	r2, [r3, #32]
    8f0c:	859f3018 	ldrhi	r3, [pc, #24]	; 8f2c <gpio_set_off+0x34>
    8f10:	85932024 	ldrhi	r2, [r3, #36]	; 0x24
    8f14:	e200301f 	and	r3, r0, #31
    8f18:	e1a00002 	mov	r0, r2
    8f1c:	e3a01001 	mov	r1, #1
    8f20:	e1a01311 	lsl	r1, r1, r3
    8f24:	eb000382 	bl	9d34 <put32>
    8f28:	e8bd8008 	pop	{r3, pc}
    8f2c:	00009eb0 			; <UNDEFINED> instruction: 0x00009eb0

00008f30 <gpio_set_input>:
    8f30:	e92d4038 	push	{r3, r4, r5, lr}
    8f34:	e1a04000 	mov	r4, r0
    8f38:	e350001f 	cmp	r0, #31
    8f3c:	88bd8038 	pophi	{r3, r4, r5, pc}
    8f40:	e59f30ac 	ldr	r3, [pc, #172]	; 8ff4 <gpio_set_input+0xc4>
    8f44:	e0832093 	umull	r2, r3, r3, r0
    8f48:	e1a031a3 	lsr	r3, r3, #3
    8f4c:	e3530005 	cmp	r3, #5
    8f50:	979ff103 	ldrls	pc, [pc, r3, lsl #2]
    8f54:	ea000017 	b	8fb8 <gpio_set_input+0x88>
    8f58:	00008f70 	andeq	r8, r0, r0, ror pc
    8f5c:	00008f7c 	andeq	r8, r0, ip, ror pc
    8f60:	00008f88 	andeq	r8, r0, r8, lsl #31
    8f64:	00008f94 	muleq	r0, r4, pc	; <UNPREDICTABLE>
    8f68:	00008fa0 	andeq	r8, r0, r0, lsr #31
    8f6c:	00008fac 	andeq	r8, r0, ip, lsr #31
    8f70:	e59f3080 	ldr	r3, [pc, #128]	; 8ff8 <gpio_set_input+0xc8>
    8f74:	e5935000 	ldr	r5, [r3]
    8f78:	ea00000f 	b	8fbc <gpio_set_input+0x8c>
    8f7c:	e59f3074 	ldr	r3, [pc, #116]	; 8ff8 <gpio_set_input+0xc8>
    8f80:	e5935004 	ldr	r5, [r3, #4]
    8f84:	ea00000c 	b	8fbc <gpio_set_input+0x8c>
    8f88:	e59f3068 	ldr	r3, [pc, #104]	; 8ff8 <gpio_set_input+0xc8>
    8f8c:	e5935008 	ldr	r5, [r3, #8]
    8f90:	ea000009 	b	8fbc <gpio_set_input+0x8c>
    8f94:	e59f305c 	ldr	r3, [pc, #92]	; 8ff8 <gpio_set_input+0xc8>
    8f98:	e593500c 	ldr	r5, [r3, #12]
    8f9c:	ea000006 	b	8fbc <gpio_set_input+0x8c>
    8fa0:	e59f3050 	ldr	r3, [pc, #80]	; 8ff8 <gpio_set_input+0xc8>
    8fa4:	e5935010 	ldr	r5, [r3, #16]
    8fa8:	ea000003 	b	8fbc <gpio_set_input+0x8c>
    8fac:	e59f3044 	ldr	r3, [pc, #68]	; 8ff8 <gpio_set_input+0xc8>
    8fb0:	e5935014 	ldr	r5, [r3, #20]
    8fb4:	ea000000 	b	8fbc <gpio_set_input+0x8c>
    8fb8:	e3a05000 	mov	r5, #0
    8fbc:	e1a00005 	mov	r0, r5
    8fc0:	eb000367 	bl	9d64 <get32>
    8fc4:	e59f1028 	ldr	r1, [pc, #40]	; 8ff4 <gpio_set_input+0xc4>
    8fc8:	e0813491 	umull	r3, r1, r1, r4
    8fcc:	e1a011a1 	lsr	r1, r1, #3
    8fd0:	e0811101 	add	r1, r1, r1, lsl #2
    8fd4:	e1a01081 	lsl	r1, r1, #1
    8fd8:	e0611004 	rsb	r1, r1, r4
    8fdc:	e0811081 	add	r1, r1, r1, lsl #1
    8fe0:	e3a03007 	mov	r3, #7
    8fe4:	e1c01113 	bic	r1, r0, r3, lsl r1
    8fe8:	e1a00005 	mov	r0, r5
    8fec:	eb000350 	bl	9d34 <put32>
    8ff0:	e8bd8038 	pop	{r3, r4, r5, pc}
    8ff4:	cccccccd 	stclgt	12, cr12, [ip], {205}	; 0xcd
    8ff8:	00009eb0 			; <UNDEFINED> instruction: 0x00009eb0

00008ffc <gpio_read>:
    8ffc:	e92d4010 	push	{r4, lr}
    9000:	e1a04000 	mov	r4, r0
    9004:	e350001f 	cmp	r0, #31
    9008:	8a00000b 	bhi	903c <gpio_read+0x40>
    900c:	8a000003 	bhi	9020 <gpio_read+0x24>
    9010:	e59f302c 	ldr	r3, [pc, #44]	; 9044 <gpio_read+0x48>
    9014:	e5930028 	ldr	r0, [r3, #40]	; 0x28
    9018:	eb000351 	bl	9d64 <get32>
    901c:	ea000002 	b	902c <gpio_read+0x30>
    9020:	e59f301c 	ldr	r3, [pc, #28]	; 9044 <gpio_read+0x48>
    9024:	e593002c 	ldr	r0, [r3, #44]	; 0x2c
    9028:	eb00034d 	bl	9d64 <get32>
    902c:	e204401f 	and	r4, r4, #31
    9030:	e3a03001 	mov	r3, #1
    9034:	e0000413 	and	r0, r0, r3, lsl r4
    9038:	e8bd8010 	pop	{r4, pc}
    903c:	e3e00000 	mvn	r0, #0
    9040:	e8bd8010 	pop	{r4, pc}
    9044:	00009eb0 			; <UNDEFINED> instruction: 0x00009eb0

00009048 <gpio_write>:
    9048:	e92d4008 	push	{r3, lr}
    904c:	e350001f 	cmp	r0, #31
    9050:	88bd8008 	pophi	{r3, pc}
    9054:	e3510000 	cmp	r1, #0
    9058:	0a00000b 	beq	908c <gpio_write+0x44>
    905c:	e350001f 	cmp	r0, #31
    9060:	88bd8008 	pophi	{r3, pc}
    9064:	959f3050 	ldrls	r3, [pc, #80]	; 90bc <gpio_write+0x74>
    9068:	95932018 	ldrls	r2, [r3, #24]
    906c:	859f3048 	ldrhi	r3, [pc, #72]	; 90bc <gpio_write+0x74>
    9070:	8593201c 	ldrhi	r2, [r3, #28]
    9074:	e200301f 	and	r3, r0, #31
    9078:	e1a00002 	mov	r0, r2
    907c:	e3a01001 	mov	r1, #1
    9080:	e1a01311 	lsl	r1, r1, r3
    9084:	eb00032a 	bl	9d34 <put32>
    9088:	e8bd8008 	pop	{r3, pc}
    908c:	e350001f 	cmp	r0, #31
    9090:	88bd8008 	pophi	{r3, pc}
    9094:	959f3020 	ldrls	r3, [pc, #32]	; 90bc <gpio_write+0x74>
    9098:	95932020 	ldrls	r2, [r3, #32]
    909c:	859f3018 	ldrhi	r3, [pc, #24]	; 90bc <gpio_write+0x74>
    90a0:	85932024 	ldrhi	r2, [r3, #36]	; 0x24
    90a4:	e200301f 	and	r3, r0, #31
    90a8:	e1a00002 	mov	r0, r2
    90ac:	e3a01001 	mov	r1, #1
    90b0:	e1a01311 	lsl	r1, r1, r3
    90b4:	eb00031e 	bl	9d34 <put32>
    90b8:	e8bd8008 	pop	{r3, pc}
    90bc:	00009eb0 			; <UNDEFINED> instruction: 0x00009eb0

000090c0 <gpio_set_function>:
    90c0:	e92d4070 	push	{r4, r5, r6, lr}
    90c4:	e1a04000 	mov	r4, r0
    90c8:	e1a05001 	mov	r5, r1
    90cc:	e3510007 	cmp	r1, #7
    90d0:	9350001f 	cmpls	r0, #31
    90d4:	88bd8070 	pophi	{r4, r5, r6, pc}
    90d8:	e59f30b0 	ldr	r3, [pc, #176]	; 9190 <gpio_set_function+0xd0>
    90dc:	e0832093 	umull	r2, r3, r3, r0
    90e0:	e1a031a3 	lsr	r3, r3, #3
    90e4:	e3530005 	cmp	r3, #5
    90e8:	979ff103 	ldrls	pc, [pc, r3, lsl #2]
    90ec:	ea000017 	b	9150 <gpio_set_function+0x90>
    90f0:	00009108 	andeq	r9, r0, r8, lsl #2
    90f4:	00009114 	andeq	r9, r0, r4, lsl r1
    90f8:	00009120 	andeq	r9, r0, r0, lsr #2
    90fc:	0000912c 	andeq	r9, r0, ip, lsr #2
    9100:	00009138 	andeq	r9, r0, r8, lsr r1
    9104:	00009144 	andeq	r9, r0, r4, asr #2
    9108:	e59f3084 	ldr	r3, [pc, #132]	; 9194 <gpio_set_function+0xd4>
    910c:	e5936000 	ldr	r6, [r3]
    9110:	ea00000f 	b	9154 <gpio_set_function+0x94>
    9114:	e59f3078 	ldr	r3, [pc, #120]	; 9194 <gpio_set_function+0xd4>
    9118:	e5936004 	ldr	r6, [r3, #4]
    911c:	ea00000c 	b	9154 <gpio_set_function+0x94>
    9120:	e59f306c 	ldr	r3, [pc, #108]	; 9194 <gpio_set_function+0xd4>
    9124:	e5936008 	ldr	r6, [r3, #8]
    9128:	ea000009 	b	9154 <gpio_set_function+0x94>
    912c:	e59f3060 	ldr	r3, [pc, #96]	; 9194 <gpio_set_function+0xd4>
    9130:	e593600c 	ldr	r6, [r3, #12]
    9134:	ea000006 	b	9154 <gpio_set_function+0x94>
    9138:	e59f3054 	ldr	r3, [pc, #84]	; 9194 <gpio_set_function+0xd4>
    913c:	e5936010 	ldr	r6, [r3, #16]
    9140:	ea000003 	b	9154 <gpio_set_function+0x94>
    9144:	e59f3048 	ldr	r3, [pc, #72]	; 9194 <gpio_set_function+0xd4>
    9148:	e5936014 	ldr	r6, [r3, #20]
    914c:	ea000000 	b	9154 <gpio_set_function+0x94>
    9150:	e3a06000 	mov	r6, #0
    9154:	e1a00006 	mov	r0, r6
    9158:	eb000301 	bl	9d64 <get32>
    915c:	e59f302c 	ldr	r3, [pc, #44]	; 9190 <gpio_set_function+0xd0>
    9160:	e0832493 	umull	r2, r3, r3, r4
    9164:	e1a031a3 	lsr	r3, r3, #3
    9168:	e0833103 	add	r3, r3, r3, lsl #2
    916c:	e1a03083 	lsl	r3, r3, #1
    9170:	e0633004 	rsb	r3, r3, r4
    9174:	e0833083 	add	r3, r3, r3, lsl #1
    9178:	e3a01007 	mov	r1, #7
    917c:	e1c01311 	bic	r1, r0, r1, lsl r3
    9180:	e1a00006 	mov	r0, r6
    9184:	e1811315 	orr	r1, r1, r5, lsl r3
    9188:	eb0002e9 	bl	9d34 <put32>
    918c:	e8bd8070 	pop	{r4, r5, r6, pc}
    9190:	cccccccd 	stclgt	12, cr12, [ip], {205}	; 0xcd
    9194:	00009eb0 			; <UNDEFINED> instruction: 0x00009eb0

00009198 <is_gpio_int>:
    9198:	e92d4008 	push	{r3, lr}
    919c:	e59f301c 	ldr	r3, [pc, #28]	; 91c0 <is_gpio_int+0x28>
    91a0:	e5930030 	ldr	r0, [r3, #48]	; 0x30
    91a4:	eb0002ee 	bl	9d64 <get32>
    91a8:	e3500000 	cmp	r0, #0
    91ac:	0a000001 	beq	91b8 <is_gpio_int+0x20>
    91b0:	e3a00001 	mov	r0, #1
    91b4:	e8bd8008 	pop	{r3, pc}
    91b8:	e3a00000 	mov	r0, #0
    91bc:	e8bd8008 	pop	{r3, pc}
    91c0:	00009eb0 			; <UNDEFINED> instruction: 0x00009eb0

000091c4 <gpio_int_rising_edge>:
    91c4:	e92d4038 	push	{r3, r4, r5, lr}
    91c8:	e1a04000 	mov	r4, r0
    91cc:	e350001f 	cmp	r0, #31
    91d0:	88bd8038 	pophi	{r3, r4, r5, pc}
    91d4:	eb0002d0 	bl	9d1c <dev_barrier>
    91d8:	e354001f 	cmp	r4, #31
    91dc:	8a000007 	bhi	9200 <gpio_int_rising_edge+0x3c>
    91e0:	e59f505c 	ldr	r5, [pc, #92]	; 9244 <gpio_int_rising_edge+0x80>
    91e4:	e5950034 	ldr	r0, [r5, #52]	; 0x34
    91e8:	eb0002dd 	bl	9d64 <get32>
    91ec:	e3a01001 	mov	r1, #1
    91f0:	e1801411 	orr	r1, r0, r1, lsl r4
    91f4:	e5950034 	ldr	r0, [r5, #52]	; 0x34
    91f8:	eb0002cd 	bl	9d34 <put32>
    91fc:	ea000007 	b	9220 <gpio_int_rising_edge+0x5c>
    9200:	e59f503c 	ldr	r5, [pc, #60]	; 9244 <gpio_int_rising_edge+0x80>
    9204:	e5950038 	ldr	r0, [r5, #56]	; 0x38
    9208:	eb0002d5 	bl	9d64 <get32>
    920c:	e204401f 	and	r4, r4, #31
    9210:	e3a01001 	mov	r1, #1
    9214:	e1801411 	orr	r1, r0, r1, lsl r4
    9218:	e5950038 	ldr	r0, [r5, #56]	; 0x38
    921c:	eb0002c4 	bl	9d34 <put32>
    9220:	eb0002bd 	bl	9d1c <dev_barrier>
    9224:	e59f4018 	ldr	r4, [pc, #24]	; 9244 <gpio_int_rising_edge+0x80>
    9228:	e594003c 	ldr	r0, [r4, #60]	; 0x3c
    922c:	eb0002cc 	bl	9d64 <get32>
    9230:	e3801802 	orr	r1, r0, #131072	; 0x20000
    9234:	e594003c 	ldr	r0, [r4, #60]	; 0x3c
    9238:	eb0002bd 	bl	9d34 <put32>
    923c:	eb0002b6 	bl	9d1c <dev_barrier>
    9240:	e8bd8038 	pop	{r3, r4, r5, pc}
    9244:	00009eb0 			; <UNDEFINED> instruction: 0x00009eb0

00009248 <gpio_int_falling_edge>:
    9248:	e92d4038 	push	{r3, r4, r5, lr}
    924c:	e1a04000 	mov	r4, r0
    9250:	e350001f 	cmp	r0, #31
    9254:	88bd8038 	pophi	{r3, r4, r5, pc}
    9258:	eb0002af 	bl	9d1c <dev_barrier>
    925c:	e354001f 	cmp	r4, #31
    9260:	8a000007 	bhi	9284 <gpio_int_falling_edge+0x3c>
    9264:	e59f505c 	ldr	r5, [pc, #92]	; 92c8 <gpio_int_falling_edge+0x80>
    9268:	e5950040 	ldr	r0, [r5, #64]	; 0x40
    926c:	eb0002bc 	bl	9d64 <get32>
    9270:	e3a01001 	mov	r1, #1
    9274:	e1801411 	orr	r1, r0, r1, lsl r4
    9278:	e5950040 	ldr	r0, [r5, #64]	; 0x40
    927c:	eb0002ac 	bl	9d34 <put32>
    9280:	ea000007 	b	92a4 <gpio_int_falling_edge+0x5c>
    9284:	e59f503c 	ldr	r5, [pc, #60]	; 92c8 <gpio_int_falling_edge+0x80>
    9288:	e5950044 	ldr	r0, [r5, #68]	; 0x44
    928c:	eb0002b4 	bl	9d64 <get32>
    9290:	e204401f 	and	r4, r4, #31
    9294:	e3a01001 	mov	r1, #1
    9298:	e1801411 	orr	r1, r0, r1, lsl r4
    929c:	e5950044 	ldr	r0, [r5, #68]	; 0x44
    92a0:	eb0002a3 	bl	9d34 <put32>
    92a4:	eb00029c 	bl	9d1c <dev_barrier>
    92a8:	e59f4018 	ldr	r4, [pc, #24]	; 92c8 <gpio_int_falling_edge+0x80>
    92ac:	e594003c 	ldr	r0, [r4, #60]	; 0x3c
    92b0:	eb0002ab 	bl	9d64 <get32>
    92b4:	e3801601 	orr	r1, r0, #1048576	; 0x100000
    92b8:	e594003c 	ldr	r0, [r4, #60]	; 0x3c
    92bc:	eb00029c 	bl	9d34 <put32>
    92c0:	eb000295 	bl	9d1c <dev_barrier>
    92c4:	e8bd8038 	pop	{r3, r4, r5, pc}
    92c8:	00009eb0 			; <UNDEFINED> instruction: 0x00009eb0

000092cc <gpio_event_detected>:
    92cc:	e92d4010 	push	{r4, lr}
    92d0:	e1a04000 	mov	r4, r0
    92d4:	e350001f 	cmp	r0, #31
    92d8:	8a000019 	bhi	9344 <gpio_event_detected+0x78>
    92dc:	eb00028e 	bl	9d1c <dev_barrier>
    92e0:	e354001f 	cmp	r4, #31
    92e4:	8a000008 	bhi	930c <gpio_event_detected+0x40>
    92e8:	e59f305c 	ldr	r3, [pc, #92]	; 934c <gpio_event_detected+0x80>
    92ec:	e5930048 	ldr	r0, [r3, #72]	; 0x48
    92f0:	eb00029b 	bl	9d64 <get32>
    92f4:	e3a03001 	mov	r3, #1
    92f8:	e0103413 	ands	r3, r0, r3, lsl r4
    92fc:	0a00000d 	beq	9338 <gpio_event_detected+0x6c>
    9300:	eb000285 	bl	9d1c <dev_barrier>
    9304:	e3a00001 	mov	r0, #1
    9308:	e8bd8010 	pop	{r4, pc}
    930c:	e59f3038 	ldr	r3, [pc, #56]	; 934c <gpio_event_detected+0x80>
    9310:	e593004c 	ldr	r0, [r3, #76]	; 0x4c
    9314:	eb000292 	bl	9d64 <get32>
    9318:	e3a03001 	mov	r3, #1
    931c:	e0004413 	and	r4, r0, r3, lsl r4
    9320:	eb00027d 	bl	9d1c <dev_barrier>
    9324:	e3540000 	cmp	r4, #0
    9328:	0a000002 	beq	9338 <gpio_event_detected+0x6c>
    932c:	eb00027a 	bl	9d1c <dev_barrier>
    9330:	e3a00001 	mov	r0, #1
    9334:	e8bd8010 	pop	{r4, pc}
    9338:	eb000277 	bl	9d1c <dev_barrier>
    933c:	e3a00000 	mov	r0, #0
    9340:	e8bd8010 	pop	{r4, pc}
    9344:	e3e00000 	mvn	r0, #0
    9348:	e8bd8010 	pop	{r4, pc}
    934c:	00009eb0 			; <UNDEFINED> instruction: 0x00009eb0

00009350 <gpio_event_clear>:
    9350:	e92d4010 	push	{r4, lr}
    9354:	e1a04000 	mov	r4, r0
    9358:	e350001f 	cmp	r0, #31
    935c:	88bd8010 	pophi	{r4, pc}
    9360:	eb00026d 	bl	9d1c <dev_barrier>
    9364:	e354001f 	cmp	r4, #31
    9368:	8a000005 	bhi	9384 <gpio_event_clear+0x34>
    936c:	e59f3030 	ldr	r3, [pc, #48]	; 93a4 <gpio_event_clear+0x54>
    9370:	e5930048 	ldr	r0, [r3, #72]	; 0x48
    9374:	e3a01001 	mov	r1, #1
    9378:	e1a01411 	lsl	r1, r1, r4
    937c:	eb00026c 	bl	9d34 <put32>
    9380:	ea000005 	b	939c <gpio_event_clear+0x4c>
    9384:	e204401f 	and	r4, r4, #31
    9388:	e59f3014 	ldr	r3, [pc, #20]	; 93a4 <gpio_event_clear+0x54>
    938c:	e593004c 	ldr	r0, [r3, #76]	; 0x4c
    9390:	e3a01001 	mov	r1, #1
    9394:	e1a01411 	lsl	r1, r1, r4
    9398:	eb000265 	bl	9d34 <put32>
    939c:	eb00025e 	bl	9d1c <dev_barrier>
    93a0:	e8bd8010 	pop	{r4, pc}
    93a4:	00009eb0 			; <UNDEFINED> instruction: 0x00009eb0

000093a8 <sw_uart_putc>:
    93a8:	e92d41f0 	push	{r4, r5, r6, r7, r8, lr}
    93ac:	e1a07001 	mov	r7, r1
    93b0:	e5d06000 	ldrb	r6, [r0]
    93b4:	e5905008 	ldr	r5, [r0, #8]
    93b8:	ee1f4f3c 	mrc	15, 0, r4, cr15, cr12, {1}
    93bc:	e1a00006 	mov	r0, r6
    93c0:	e3a01000 	mov	r1, #0
    93c4:	ebffff1f 	bl	9048 <gpio_write>
    93c8:	ee1f3f3c 	mrc	15, 0, r3, cr15, cr12, {1}
    93cc:	e0643003 	rsb	r3, r4, r3
    93d0:	e1550003 	cmp	r5, r3
    93d4:	8afffffb 	bhi	93c8 <sw_uart_putc+0x20>
    93d8:	e1a08085 	lsl	r8, r5, #1
    93dc:	e1a00006 	mov	r0, r6
    93e0:	e2071001 	and	r1, r7, #1
    93e4:	ebffff17 	bl	9048 <gpio_write>
    93e8:	ee1f3f3c 	mrc	15, 0, r3, cr15, cr12, {1}
    93ec:	e0643003 	rsb	r3, r4, r3
    93f0:	e1580003 	cmp	r8, r3
    93f4:	8afffffb 	bhi	93e8 <sw_uart_putc+0x40>
    93f8:	e0888005 	add	r8, r8, r5
    93fc:	e1a00006 	mov	r0, r6
    9400:	e2071002 	and	r1, r7, #2
    9404:	ebffff0f 	bl	9048 <gpio_write>
    9408:	ee1f3f3c 	mrc	15, 0, r3, cr15, cr12, {1}
    940c:	e0643003 	rsb	r3, r4, r3
    9410:	e1580003 	cmp	r8, r3
    9414:	8afffffb 	bhi	9408 <sw_uart_putc+0x60>
    9418:	e0888005 	add	r8, r8, r5
    941c:	e1a00006 	mov	r0, r6
    9420:	e2071004 	and	r1, r7, #4
    9424:	ebffff07 	bl	9048 <gpio_write>
    9428:	ee1f3f3c 	mrc	15, 0, r3, cr15, cr12, {1}
    942c:	e0643003 	rsb	r3, r4, r3
    9430:	e1580003 	cmp	r8, r3
    9434:	8afffffb 	bhi	9428 <sw_uart_putc+0x80>
    9438:	e0888005 	add	r8, r8, r5
    943c:	e1a00006 	mov	r0, r6
    9440:	e2071008 	and	r1, r7, #8
    9444:	ebfffeff 	bl	9048 <gpio_write>
    9448:	ee1f3f3c 	mrc	15, 0, r3, cr15, cr12, {1}
    944c:	e0643003 	rsb	r3, r4, r3
    9450:	e1580003 	cmp	r8, r3
    9454:	8afffffb 	bhi	9448 <sw_uart_putc+0xa0>
    9458:	e0888005 	add	r8, r8, r5
    945c:	e1a00006 	mov	r0, r6
    9460:	e2071010 	and	r1, r7, #16
    9464:	ebfffef7 	bl	9048 <gpio_write>
    9468:	ee1f3f3c 	mrc	15, 0, r3, cr15, cr12, {1}
    946c:	e0643003 	rsb	r3, r4, r3
    9470:	e1580003 	cmp	r8, r3
    9474:	8afffffb 	bhi	9468 <sw_uart_putc+0xc0>
    9478:	e0888005 	add	r8, r8, r5
    947c:	e1a00006 	mov	r0, r6
    9480:	e2071020 	and	r1, r7, #32
    9484:	ebfffeef 	bl	9048 <gpio_write>
    9488:	ee1f3f3c 	mrc	15, 0, r3, cr15, cr12, {1}
    948c:	e0643003 	rsb	r3, r4, r3
    9490:	e1580003 	cmp	r8, r3
    9494:	8afffffb 	bhi	9488 <sw_uart_putc+0xe0>
    9498:	e0888005 	add	r8, r8, r5
    949c:	e1a00006 	mov	r0, r6
    94a0:	e2071040 	and	r1, r7, #64	; 0x40
    94a4:	ebfffee7 	bl	9048 <gpio_write>
    94a8:	ee1f3f3c 	mrc	15, 0, r3, cr15, cr12, {1}
    94ac:	e0643003 	rsb	r3, r4, r3
    94b0:	e1580003 	cmp	r8, r3
    94b4:	8afffffb 	bhi	94a8 <sw_uart_putc+0x100>
    94b8:	e0888005 	add	r8, r8, r5
    94bc:	e1a00006 	mov	r0, r6
    94c0:	e2071080 	and	r1, r7, #128	; 0x80
    94c4:	ebfffedf 	bl	9048 <gpio_write>
    94c8:	ee1f3f3c 	mrc	15, 0, r3, cr15, cr12, {1}
    94cc:	e0643003 	rsb	r3, r4, r3
    94d0:	e1580003 	cmp	r8, r3
    94d4:	8afffffb 	bhi	94c8 <sw_uart_putc+0x120>
    94d8:	e0885005 	add	r5, r8, r5
    94dc:	e1a00006 	mov	r0, r6
    94e0:	e3a01001 	mov	r1, #1
    94e4:	ebfffed7 	bl	9048 <gpio_write>
    94e8:	ee1f3f3c 	mrc	15, 0, r3, cr15, cr12, {1}
    94ec:	e0643003 	rsb	r3, r4, r3
    94f0:	e1550003 	cmp	r5, r3
    94f4:	8afffffb 	bhi	94e8 <sw_uart_putc+0x140>
    94f8:	e8bd81f0 	pop	{r4, r5, r6, r7, r8, pc}

000094fc <sw_uart_getc_timeout>:
    94fc:	e92d43f8 	push	{r3, r4, r5, r6, r7, r8, r9, lr}
    9500:	e1a09000 	mov	r9, r0
    9504:	e5d07001 	ldrb	r7, [r0, #1]
    9508:	e1a05007 	mov	r5, r7
    950c:	e1a06001 	mov	r6, r1
    9510:	ebfffe1a 	bl	8d80 <timer_get_usec_raw>
    9514:	e1a04000 	mov	r4, r0
    9518:	e1a00005 	mov	r0, r5
    951c:	ebfffeb6 	bl	8ffc <gpio_read>
    9520:	e3500000 	cmp	r0, #0
    9524:	0a000005 	beq	9540 <sw_uart_getc_timeout+0x44>
    9528:	ebfffe14 	bl	8d80 <timer_get_usec_raw>
    952c:	e0640000 	rsb	r0, r4, r0
    9530:	e1560000 	cmp	r6, r0
    9534:	2afffff7 	bcs	9518 <sw_uart_getc_timeout+0x1c>
    9538:	e3a03000 	mov	r3, #0
    953c:	ea000000 	b	9544 <sw_uart_getc_timeout+0x48>
    9540:	e3a03001 	mov	r3, #1
    9544:	e3530000 	cmp	r3, #0
    9548:	0a000059 	beq	96b4 <sw_uart_getc_timeout+0x1b8>
    954c:	ee1f8f3c 	mrc	15, 0, r8, cr15, cr12, {1}
    9550:	e5994008 	ldr	r4, [r9, #8]
    9554:	e08420a4 	add	r2, r4, r4, lsr #1
    9558:	ee1f3f3c 	mrc	15, 0, r3, cr15, cr12, {1}
    955c:	e0683003 	rsb	r3, r8, r3
    9560:	e1520003 	cmp	r2, r3
    9564:	8afffffb 	bhi	9558 <sw_uart_getc_timeout+0x5c>
    9568:	e0888004 	add	r8, r8, r4
    956c:	e1a00007 	mov	r0, r7
    9570:	ebfffea1 	bl	8ffc <gpio_read>
    9574:	e1a09750 	asr	r9, r0, r7
    9578:	ee1f3f3c 	mrc	15, 0, r3, cr15, cr12, {1}
    957c:	e0683003 	rsb	r3, r8, r3
    9580:	e1540003 	cmp	r4, r3
    9584:	8afffffb 	bhi	9578 <sw_uart_getc_timeout+0x7c>
    9588:	e0888004 	add	r8, r8, r4
    958c:	e1a00007 	mov	r0, r7
    9590:	ebfffe99 	bl	8ffc <gpio_read>
    9594:	e1a00750 	asr	r0, r0, r7
    9598:	e1899080 	orr	r9, r9, r0, lsl #1
    959c:	ee1f3f3c 	mrc	15, 0, r3, cr15, cr12, {1}
    95a0:	e0683003 	rsb	r3, r8, r3
    95a4:	e1540003 	cmp	r4, r3
    95a8:	8afffffb 	bhi	959c <sw_uart_getc_timeout+0xa0>
    95ac:	e0888004 	add	r8, r8, r4
    95b0:	e1a00007 	mov	r0, r7
    95b4:	ebfffe90 	bl	8ffc <gpio_read>
    95b8:	e1a00750 	asr	r0, r0, r7
    95bc:	e1899100 	orr	r9, r9, r0, lsl #2
    95c0:	ee1f3f3c 	mrc	15, 0, r3, cr15, cr12, {1}
    95c4:	e0683003 	rsb	r3, r8, r3
    95c8:	e1540003 	cmp	r4, r3
    95cc:	8afffffb 	bhi	95c0 <sw_uart_getc_timeout+0xc4>
    95d0:	e0888004 	add	r8, r8, r4
    95d4:	e1a00007 	mov	r0, r7
    95d8:	ebfffe87 	bl	8ffc <gpio_read>
    95dc:	e1a00750 	asr	r0, r0, r7
    95e0:	e1899180 	orr	r9, r9, r0, lsl #3
    95e4:	ee1f3f3c 	mrc	15, 0, r3, cr15, cr12, {1}
    95e8:	e0683003 	rsb	r3, r8, r3
    95ec:	e1540003 	cmp	r4, r3
    95f0:	8afffffb 	bhi	95e4 <sw_uart_getc_timeout+0xe8>
    95f4:	e0888004 	add	r8, r8, r4
    95f8:	e1a00007 	mov	r0, r7
    95fc:	ebfffe7e 	bl	8ffc <gpio_read>
    9600:	e1a00750 	asr	r0, r0, r7
    9604:	e1899200 	orr	r9, r9, r0, lsl #4
    9608:	ee1f3f3c 	mrc	15, 0, r3, cr15, cr12, {1}
    960c:	e0683003 	rsb	r3, r8, r3
    9610:	e1540003 	cmp	r4, r3
    9614:	8afffffb 	bhi	9608 <sw_uart_getc_timeout+0x10c>
    9618:	e0888004 	add	r8, r8, r4
    961c:	e1a00007 	mov	r0, r7
    9620:	ebfffe75 	bl	8ffc <gpio_read>
    9624:	e1a00750 	asr	r0, r0, r7
    9628:	e1899280 	orr	r9, r9, r0, lsl #5
    962c:	ee1f3f3c 	mrc	15, 0, r3, cr15, cr12, {1}
    9630:	e0683003 	rsb	r3, r8, r3
    9634:	e1540003 	cmp	r4, r3
    9638:	8afffffb 	bhi	962c <sw_uart_getc_timeout+0x130>
    963c:	e0888004 	add	r8, r8, r4
    9640:	e1a00007 	mov	r0, r7
    9644:	ebfffe6c 	bl	8ffc <gpio_read>
    9648:	e1a00750 	asr	r0, r0, r7
    964c:	e1899300 	orr	r9, r9, r0, lsl #6
    9650:	ee1f3f3c 	mrc	15, 0, r3, cr15, cr12, {1}
    9654:	e0683003 	rsb	r3, r8, r3
    9658:	e1540003 	cmp	r4, r3
    965c:	8afffffb 	bhi	9650 <sw_uart_getc_timeout+0x154>
    9660:	e1a00007 	mov	r0, r7
    9664:	ebfffe64 	bl	8ffc <gpio_read>
    9668:	e1a00750 	asr	r0, r0, r7
    966c:	e1899380 	orr	r9, r9, r0, lsl #7
    9670:	ebfffdc2 	bl	8d80 <timer_get_usec_raw>
    9674:	e1a04000 	mov	r4, r0
    9678:	e1a00005 	mov	r0, r5
    967c:	ebfffe5e 	bl	8ffc <gpio_read>
    9680:	e3500000 	cmp	r0, #0
    9684:	0a000005 	beq	96a0 <sw_uart_getc_timeout+0x1a4>
    9688:	ebfffdbc 	bl	8d80 <timer_get_usec_raw>
    968c:	e0640000 	rsb	r0, r4, r0
    9690:	e1560000 	cmp	r6, r0
    9694:	2afffff7 	bcs	9678 <sw_uart_getc_timeout+0x17c>
    9698:	e3a03000 	mov	r3, #0
    969c:	ea000000 	b	96a4 <sw_uart_getc_timeout+0x1a8>
    96a0:	e3a03001 	mov	r3, #1
    96a4:	e3530000 	cmp	r3, #0
    96a8:	0a000003 	beq	96bc <sw_uart_getc_timeout+0x1c0>
    96ac:	e1a00009 	mov	r0, r9
    96b0:	e8bd83f8 	pop	{r3, r4, r5, r6, r7, r8, r9, pc}
    96b4:	e3e00000 	mvn	r0, #0
    96b8:	e8bd83f8 	pop	{r3, r4, r5, r6, r7, r8, r9, pc}
    96bc:	e3e00000 	mvn	r0, #0
    96c0:	e8bd83f8 	pop	{r3, r4, r5, r6, r7, r8, r9, pc}

000096c4 <sw_uart_gets_until>:
    96c4:	e92d47f0 	push	{r4, r5, r6, r7, r8, r9, sl, lr}
    96c8:	e1a08000 	mov	r8, r0
    96cc:	e1a06001 	mov	r6, r1
    96d0:	e1a09003 	mov	r9, r3
    96d4:	e59da020 	ldr	sl, [sp, #32]
    96d8:	e3520000 	cmp	r2, #0
    96dc:	1a000006 	bne	96fc <sw_uart_gets_until+0x38>
    96e0:	ebfffbf7 	bl	86c4 <rpi_reset_putc>
    96e4:	e59f005c 	ldr	r0, [pc, #92]	; 9748 <sw_uart_gets_until+0x84>
    96e8:	e59f105c 	ldr	r1, [pc, #92]	; 974c <sw_uart_gets_until+0x88>
    96ec:	e59f205c 	ldr	r2, [pc, #92]	; 9750 <sw_uart_gets_until+0x8c>
    96f0:	e3a0306d 	mov	r3, #109	; 0x6d
    96f4:	ebfffbd7 	bl	8658 <printk>
    96f8:	ebfffd46 	bl	8c18 <clean_reboot>
    96fc:	e3a04000 	mov	r4, #0
    9700:	e5c14000 	strb	r4, [r1]
    9704:	e2427001 	sub	r7, r2, #1
    9708:	ea000007 	b	972c <sw_uart_gets_until+0x68>
    970c:	e1a00008 	mov	r0, r8
    9710:	e1a0100a 	mov	r1, sl
    9714:	ebffff78 	bl	94fc <sw_uart_getc_timeout>
    9718:	e6ef0070 	uxtb	r0, r0
    971c:	e1500009 	cmp	r0, r9
    9720:	0a000004 	beq	9738 <sw_uart_gets_until+0x74>
    9724:	e7c60005 	strb	r0, [r6, r5]
    9728:	e2844001 	add	r4, r4, #1
    972c:	e1a05004 	mov	r5, r4
    9730:	e1540007 	cmp	r4, r7
    9734:	3afffff4 	bcc	970c <sw_uart_gets_until+0x48>
    9738:	e3a03000 	mov	r3, #0
    973c:	e7c63005 	strb	r3, [r6, r5]
    9740:	e1a00004 	mov	r0, r4
    9744:	e8bd87f0 	pop	{r4, r5, r6, r7, r8, r9, sl, pc}
    9748:	0000a214 	andeq	sl, r0, r4, lsl r2
    974c:	0000a230 	andeq	sl, r0, r0, lsr r2
    9750:	0000a19c 	muleq	r0, ip, r1

00009754 <sw_uart_gets_timeout>:
    9754:	e92d41f0 	push	{r4, r5, r6, r7, r8, lr}
    9758:	e1a07000 	mov	r7, r0
    975c:	e1a05001 	mov	r5, r1
    9760:	e1a08003 	mov	r8, r3
    9764:	e3520000 	cmp	r2, #0
    9768:	1a000006 	bne	9788 <sw_uart_gets_timeout+0x34>
    976c:	ebfffbd4 	bl	86c4 <rpi_reset_putc>
    9770:	e59f004c 	ldr	r0, [pc, #76]	; 97c4 <sw_uart_gets_timeout+0x70>
    9774:	e59f104c 	ldr	r1, [pc, #76]	; 97c8 <sw_uart_gets_timeout+0x74>
    9778:	e59f204c 	ldr	r2, [pc, #76]	; 97cc <sw_uart_gets_timeout+0x78>
    977c:	e3a03083 	mov	r3, #131	; 0x83
    9780:	ebfffbb4 	bl	8658 <printk>
    9784:	ebfffd23 	bl	8c18 <clean_reboot>
    9788:	e3a04000 	mov	r4, #0
    978c:	e5c14000 	strb	r4, [r1]
    9790:	e2426001 	sub	r6, r2, #1
    9794:	ea000004 	b	97ac <sw_uart_gets_timeout+0x58>
    9798:	e1a00007 	mov	r0, r7
    979c:	e1a01008 	mov	r1, r8
    97a0:	ebffff55 	bl	94fc <sw_uart_getc_timeout>
    97a4:	e7c50004 	strb	r0, [r5, r4]
    97a8:	e2844001 	add	r4, r4, #1
    97ac:	e1540006 	cmp	r4, r6
    97b0:	3afffff8 	bcc	9798 <sw_uart_gets_timeout+0x44>
    97b4:	e3a03000 	mov	r3, #0
    97b8:	e7c53004 	strb	r3, [r5, r4]
    97bc:	e1a00004 	mov	r0, r4
    97c0:	e8bd81f0 	pop	{r4, r5, r6, r7, r8, pc}
    97c4:	0000a214 	andeq	sl, r0, r4, lsl r2
    97c8:	0000a230 	andeq	sl, r0, r0, lsr r2
    97cc:	0000a1b0 			; <UNDEFINED> instruction: 0x0000a1b0

000097d0 <sw_uart_init_helper>:
    97d0:	e92d41f0 	push	{r4, r5, r6, r7, r8, lr}
    97d4:	e1a04000 	mov	r4, r0
    97d8:	e1a06001 	mov	r6, r1
    97dc:	e1a08002 	mov	r8, r2
    97e0:	e1a05003 	mov	r5, r3
    97e4:	e59d7018 	ldr	r7, [sp, #24]
    97e8:	e1a00001 	mov	r0, r1
    97ec:	ebfffd7e 	bl	8dec <gpio_set_output>
    97f0:	e1a00008 	mov	r0, r8
    97f4:	ebfffdcd 	bl	8f30 <gpio_set_input>
    97f8:	e3a03001 	mov	r3, #1
    97fc:	ee0f3f1c 	mcr	15, 0, r3, cr15, cr12, {0}
    9800:	e1a00006 	mov	r0, r6
    9804:	e3a01001 	mov	r1, #1
    9808:	ebfffe0e 	bl	9048 <gpio_write>
    980c:	e0020795 	mul	r2, r5, r7
    9810:	e59f3068 	ldr	r3, [pc, #104]	; 9880 <sw_uart_init_helper+0xb0>
    9814:	e0653003 	rsb	r3, r5, r3
    9818:	e1530002 	cmp	r3, r2
    981c:	8a000005 	bhi	9838 <sw_uart_init_helper+0x68>
    9820:	e59f3058 	ldr	r3, [pc, #88]	; 9880 <sw_uart_init_helper+0xb0>
    9824:	e0853003 	add	r3, r5, r3
    9828:	e1530002 	cmp	r3, r2
    982c:	2a000003 	bcs	9840 <sw_uart_init_helper+0x70>
    9830:	e3a03000 	mov	r3, #0
    9834:	ea000002 	b	9844 <sw_uart_init_helper+0x74>
    9838:	e3a03000 	mov	r3, #0
    983c:	ea000000 	b	9844 <sw_uart_init_helper+0x74>
    9840:	e3a03001 	mov	r3, #1
    9844:	e3530000 	cmp	r3, #0
    9848:	1a000006 	bne	9868 <sw_uart_init_helper+0x98>
    984c:	ebfffb9c 	bl	86c4 <rpi_reset_putc>
    9850:	e59f002c 	ldr	r0, [pc, #44]	; 9884 <sw_uart_init_helper+0xb4>
    9854:	e59f102c 	ldr	r1, [pc, #44]	; 9888 <sw_uart_init_helper+0xb8>
    9858:	e59f202c 	ldr	r2, [pc, #44]	; 988c <sw_uart_init_helper+0xbc>
    985c:	e3a0309d 	mov	r3, #157	; 0x9d
    9860:	ebfffb7c 	bl	8658 <printk>
    9864:	ebfffceb 	bl	8c18 <clean_reboot>
    9868:	e5c46000 	strb	r6, [r4]
    986c:	e5c48001 	strb	r8, [r4, #1]
    9870:	e5845004 	str	r5, [r4, #4]
    9874:	e5847008 	str	r7, [r4, #8]
    9878:	e1a00004 	mov	r0, r4
    987c:	e8bd81f0 	pop	{r4, r5, r6, r7, r8, pc}
    9880:	29b92700 	ldmibcs	r9!, {r8, r9, sl, sp}
    9884:	0000a244 	andeq	sl, r0, r4, asr #4
    9888:	0000a230 	andeq	sl, r0, r0, lsr r2
    988c:	0000a1c8 	andeq	sl, r0, r8, asr #3

00009890 <sw_uart_getc>:
    9890:	e92d4008 	push	{r3, lr}
    9894:	e3e01000 	mvn	r1, #0
    9898:	ebffff17 	bl	94fc <sw_uart_getc_timeout>
    989c:	e3500000 	cmp	r0, #0
    98a0:	a8bd8008 	popge	{r3, pc}
    98a4:	ebfffb86 	bl	86c4 <rpi_reset_putc>
    98a8:	e59f0010 	ldr	r0, [pc, #16]	; 98c0 <sw_uart_getc+0x30>
    98ac:	e59f1010 	ldr	r1, [pc, #16]	; 98c4 <sw_uart_getc+0x34>
    98b0:	e59f2010 	ldr	r2, [pc, #16]	; 98c8 <sw_uart_getc+0x38>
    98b4:	e3a030ac 	mov	r3, #172	; 0xac
    98b8:	ebfffb66 	bl	8658 <printk>
    98bc:	ebfffcd5 	bl	8c18 <clean_reboot>
    98c0:	0000a288 	andeq	sl, r0, r8, lsl #5
    98c4:	0000a230 	andeq	sl, r0, r0, lsr r2
    98c8:	0000a1dc 	ldrdeq	sl, [r0], -ip

000098cc <sw_uart_putk>:
    98cc:	e92d4038 	push	{r3, r4, r5, lr}
    98d0:	e1a05000 	mov	r5, r0
    98d4:	e1a04001 	mov	r4, r1
    98d8:	ea000002 	b	98e8 <sw_uart_putk+0x1c>
    98dc:	e1a00005 	mov	r0, r5
    98e0:	ebfffeb0 	bl	93a8 <sw_uart_putc>
    98e4:	e2844001 	add	r4, r4, #1
    98e8:	e5d41000 	ldrb	r1, [r4]
    98ec:	e3510000 	cmp	r1, #0
    98f0:	1afffff9 	bne	98dc <sw_uart_putk+0x10>
    98f4:	e8bd8038 	pop	{r3, r4, r5, pc}

000098f8 <sw_uart_printk>:
    98f8:	e92d000e 	push	{r1, r2, r3}
    98fc:	e92d4030 	push	{r4, r5, lr}
    9900:	e24dde1d 	sub	sp, sp, #464	; 0x1d0
    9904:	e1a05000 	mov	r5, r0
    9908:	e28d3e1e 	add	r3, sp, #480	; 0x1e0
    990c:	e58d3000 	str	r3, [sp]
    9910:	e28d0004 	add	r0, sp, #4
    9914:	e3a01f73 	mov	r1, #460	; 0x1cc
    9918:	e59d21dc 	ldr	r2, [sp, #476]	; 0x1dc
    991c:	ebfffc1b 	bl	8990 <va_printk>
    9920:	e1a04000 	mov	r4, r0
    9924:	e59f3040 	ldr	r3, [pc, #64]	; 996c <sw_uart_printk+0x74>
    9928:	e1500003 	cmp	r0, r3
    992c:	9a000006 	bls	994c <sw_uart_printk+0x54>
    9930:	ebfffb63 	bl	86c4 <rpi_reset_putc>
    9934:	e59f0034 	ldr	r0, [pc, #52]	; 9970 <sw_uart_printk+0x78>
    9938:	e59f1034 	ldr	r1, [pc, #52]	; 9974 <sw_uart_printk+0x7c>
    993c:	e59f2034 	ldr	r2, [pc, #52]	; 9978 <sw_uart_printk+0x80>
    9940:	e3a030c0 	mov	r3, #192	; 0xc0
    9944:	ebfffb43 	bl	8658 <printk>
    9948:	ebfffcb2 	bl	8c18 <clean_reboot>
    994c:	e1a00005 	mov	r0, r5
    9950:	e28d1004 	add	r1, sp, #4
    9954:	ebffffdc 	bl	98cc <sw_uart_putk>
    9958:	e1a00004 	mov	r0, r4
    995c:	e28dde1d 	add	sp, sp, #464	; 0x1d0
    9960:	e8bd4030 	pop	{r4, r5, lr}
    9964:	e28dd00c 	add	sp, sp, #12
    9968:	e12fff1e 	bx	lr
    996c:	000001ca 	andeq	r0, r0, sl, asr #3
    9970:	0000a2c0 	andeq	sl, r0, r0, asr #5
    9974:	0000a230 	andeq	sl, r0, r0, lsr r2
    9978:	0000a1ec 	andeq	sl, r0, ip, ror #3

0000997c <sw_uart_gets_until_blk>:
    997c:	e52de004 	push	{lr}		; (str lr, [sp, #-4]!)
    9980:	e24dd00c 	sub	sp, sp, #12
    9984:	e3e0c000 	mvn	ip, #0
    9988:	e58dc000 	str	ip, [sp]
    998c:	ebffff4c 	bl	96c4 <sw_uart_gets_until>
    9990:	e3500000 	cmp	r0, #0
    9994:	aa000006 	bge	99b4 <sw_uart_gets_until_blk+0x38>
    9998:	ebfffb49 	bl	86c4 <rpi_reset_putc>
    999c:	e59f0018 	ldr	r0, [pc, #24]	; 99bc <sw_uart_gets_until_blk+0x40>
    99a0:	e59f1018 	ldr	r1, [pc, #24]	; 99c0 <sw_uart_gets_until_blk+0x44>
    99a4:	e59f2018 	ldr	r2, [pc, #24]	; 99c4 <sw_uart_gets_until_blk+0x48>
    99a8:	e3a030c8 	mov	r3, #200	; 0xc8
    99ac:	ebfffb29 	bl	8658 <printk>
    99b0:	ebfffc98 	bl	8c18 <clean_reboot>
    99b4:	e28dd00c 	add	sp, sp, #12
    99b8:	e49df004 	pop	{pc}		; (ldr pc, [sp], #4)
    99bc:	0000a288 	andeq	sl, r0, r8, lsl #5
    99c0:	0000a230 	andeq	sl, r0, r0, lsr r2
    99c4:	0000a1fc 	strdeq	sl, [r0], -ip

000099c8 <uart_init>:
    99c8:	e92d4038 	push	{r3, r4, r5, lr}
    99cc:	eb0000d2 	bl	9d1c <dev_barrier>
    99d0:	e3a0000e 	mov	r0, #14
    99d4:	e3a01002 	mov	r1, #2
    99d8:	ebfffdb8 	bl	90c0 <gpio_set_function>
    99dc:	e3a0000f 	mov	r0, #15
    99e0:	e3a01002 	mov	r1, #2
    99e4:	ebfffdb5 	bl	90c0 <gpio_set_function>
    99e8:	eb0000cb 	bl	9d1c <dev_barrier>
    99ec:	e59f4068 	ldr	r4, [pc, #104]	; 9a5c <uart_init+0x94>
    99f0:	e5945000 	ldr	r5, [r4]
    99f4:	e1a00005 	mov	r0, r5
    99f8:	eb0000d9 	bl	9d64 <get32>
    99fc:	e3801001 	orr	r1, r0, #1
    9a00:	e1a00005 	mov	r0, r5
    9a04:	eb0000ca 	bl	9d34 <put32>
    9a08:	eb0000c3 	bl	9d1c <dev_barrier>
    9a0c:	e5940004 	ldr	r0, [r4, #4]
    9a10:	e3a01000 	mov	r1, #0
    9a14:	eb0000c6 	bl	9d34 <put32>
    9a18:	e5940008 	ldr	r0, [r4, #8]
    9a1c:	e3a01000 	mov	r1, #0
    9a20:	eb0000c3 	bl	9d34 <put32>
    9a24:	e594000c 	ldr	r0, [r4, #12]
    9a28:	e3a01006 	mov	r1, #6
    9a2c:	eb0000c0 	bl	9d34 <put32>
    9a30:	e5940010 	ldr	r0, [r4, #16]
    9a34:	e3a01003 	mov	r1, #3
    9a38:	eb0000bd 	bl	9d34 <put32>
    9a3c:	e5940014 	ldr	r0, [r4, #20]
    9a40:	e59f1018 	ldr	r1, [pc, #24]	; 9a60 <uart_init+0x98>
    9a44:	eb0000ba 	bl	9d34 <put32>
    9a48:	e5940004 	ldr	r0, [r4, #4]
    9a4c:	e3a01003 	mov	r1, #3
    9a50:	eb0000b7 	bl	9d34 <put32>
    9a54:	eb0000b0 	bl	9d1c <dev_barrier>
    9a58:	e8bd8038 	pop	{r3, r4, r5, pc}
    9a5c:	00009f10 	andeq	r9, r0, r0, lsl pc
    9a60:	0000010e 	andeq	r0, r0, lr, lsl #2

00009a64 <uart_can_getc>:
    9a64:	e92d4008 	push	{r3, lr}
    9a68:	e59f300c 	ldr	r3, [pc, #12]	; 9a7c <uart_can_getc+0x18>
    9a6c:	e5930018 	ldr	r0, [r3, #24]
    9a70:	eb0000bb 	bl	9d64 <get32>
    9a74:	e2000001 	and	r0, r0, #1
    9a78:	e8bd8008 	pop	{r3, pc}
    9a7c:	00009f10 	andeq	r9, r0, r0, lsl pc

00009a80 <uart_getc>:
    9a80:	e92d4008 	push	{r3, lr}
    9a84:	ebfffff6 	bl	9a64 <uart_can_getc>
    9a88:	e3500000 	cmp	r0, #0
    9a8c:	0afffffc 	beq	9a84 <uart_getc+0x4>
    9a90:	e59f300c 	ldr	r3, [pc, #12]	; 9aa4 <uart_getc+0x24>
    9a94:	e593001c 	ldr	r0, [r3, #28]
    9a98:	eb0000b1 	bl	9d64 <get32>
    9a9c:	e6ef0070 	uxtb	r0, r0
    9aa0:	e8bd8008 	pop	{r3, pc}
    9aa4:	00009f10 	andeq	r9, r0, r0, lsl pc

00009aa8 <uart_can_putc>:
    9aa8:	e92d4008 	push	{r3, lr}
    9aac:	e59f300c 	ldr	r3, [pc, #12]	; 9ac0 <uart_can_putc+0x18>
    9ab0:	e5930018 	ldr	r0, [r3, #24]
    9ab4:	eb0000aa 	bl	9d64 <get32>
    9ab8:	e2000020 	and	r0, r0, #32
    9abc:	e8bd8008 	pop	{r3, pc}
    9ac0:	00009f10 	andeq	r9, r0, r0, lsl pc

00009ac4 <uart_putc>:
    9ac4:	e92d4010 	push	{r4, lr}
    9ac8:	e1a04000 	mov	r4, r0
    9acc:	ebfffff5 	bl	9aa8 <uart_can_putc>
    9ad0:	e3500000 	cmp	r0, #0
    9ad4:	0afffffc 	beq	9acc <uart_putc+0x8>
    9ad8:	e59f300c 	ldr	r3, [pc, #12]	; 9aec <uart_putc+0x28>
    9adc:	e593001c 	ldr	r0, [r3, #28]
    9ae0:	e1a01004 	mov	r1, r4
    9ae4:	eb000092 	bl	9d34 <put32>
    9ae8:	e8bd8010 	pop	{r4, pc}
    9aec:	00009f10 	andeq	r9, r0, r0, lsl pc

00009af0 <uart_has_data>:
    9af0:	e92d4008 	push	{r3, lr}
    9af4:	ebffffda 	bl	9a64 <uart_can_getc>
    9af8:	e8bd8008 	pop	{r3, pc}

00009afc <uart_getc_async>:
    9afc:	e92d4008 	push	{r3, lr}
    9b00:	ebfffffa 	bl	9af0 <uart_has_data>
    9b04:	e3500000 	cmp	r0, #0
    9b08:	0a000001 	beq	9b14 <uart_getc_async+0x18>
    9b0c:	ebffffdb 	bl	9a80 <uart_getc>
    9b10:	e8bd8008 	pop	{r3, pc}
    9b14:	e3e00000 	mvn	r0, #0
    9b18:	e8bd8008 	pop	{r3, pc}

00009b1c <int_init>:
    9b1c:	e92d4008 	push	{r3, lr}
    9b20:	e59f004c 	ldr	r0, [pc, #76]	; 9b74 <int_init+0x58>
    9b24:	e3e01000 	mvn	r1, #0
    9b28:	eb000083 	bl	9d3c <PUT32>
    9b2c:	e59f0044 	ldr	r0, [pc, #68]	; 9b78 <int_init+0x5c>
    9b30:	e3e01000 	mvn	r1, #0
    9b34:	eb000080 	bl	9d3c <PUT32>
    9b38:	eb000077 	bl	9d1c <dev_barrier>
    9b3c:	e59f3038 	ldr	r3, [pc, #56]	; 9b7c <int_init+0x60>
    9b40:	e59f0038 	ldr	r0, [pc, #56]	; 9b80 <int_init+0x64>
    9b44:	e0630000 	rsb	r0, r3, r0
    9b48:	e1a00140 	asr	r0, r0, #2
    9b4c:	e3a03000 	mov	r3, #0
    9b50:	e59fc024 	ldr	ip, [pc, #36]	; 9b7c <int_init+0x60>
    9b54:	ea000003 	b	9b68 <int_init+0x4c>
    9b58:	e1a02103 	lsl	r2, r3, #2
    9b5c:	e79c1103 	ldr	r1, [ip, r3, lsl #2]
    9b60:	e5821000 	str	r1, [r2]
    9b64:	e2833001 	add	r3, r3, #1
    9b68:	e1530000 	cmp	r3, r0
    9b6c:	3afffff9 	bcc	9b58 <int_init+0x3c>
    9b70:	e8bd8008 	pop	{r3, pc}
    9b74:	2000b21c 	andcs	fp, r0, ip, lsl r2
    9b78:	2000b220 	andcs	fp, r0, r0, lsr #4
    9b7c:	00009da0 	andeq	r9, r0, r0, lsr #27
    9b80:	00009df0 	strdeq	r9, [r0], -r0

00009b84 <fast_interrupt_vector>:
    9b84:	e52de004 	push	{lr}		; (str lr, [sp, #-4]!)
    9b88:	e24dd00c 	sub	sp, sp, #12
    9b8c:	e1a04000 	mov	r4, r0
    9b90:	ebfffacb 	bl	86c4 <rpi_reset_putc>
    9b94:	e59f301c 	ldr	r3, [pc, #28]	; 9bb8 <fast_interrupt_vector+0x34>
    9b98:	e58d3000 	str	r3, [sp]
    9b9c:	e58d4004 	str	r4, [sp, #4]
    9ba0:	e59f0014 	ldr	r0, [pc, #20]	; 9bbc <fast_interrupt_vector+0x38>
    9ba4:	e59f1014 	ldr	r1, [pc, #20]	; 9bc0 <fast_interrupt_vector+0x3c>
    9ba8:	e59f2014 	ldr	r2, [pc, #20]	; 9bc4 <fast_interrupt_vector+0x40>
    9bac:	e3a03020 	mov	r3, #32
    9bb0:	ebfffaa8 	bl	8658 <printk>
    9bb4:	ebfffc17 	bl	8c18 <clean_reboot>
    9bb8:	0000a3d0 	ldrdeq	sl, [r0], -r0
    9bbc:	0000a374 	andeq	sl, r0, r4, ror r3
    9bc0:	0000a3b0 			; <UNDEFINED> instruction: 0x0000a3b0
    9bc4:	0000a2e4 	andeq	sl, r0, r4, ror #5

00009bc8 <software_interrupt_vector>:
    9bc8:	e52de004 	push	{lr}		; (str lr, [sp, #-4]!)
    9bcc:	e24dd00c 	sub	sp, sp, #12
    9bd0:	e1a04000 	mov	r4, r0
    9bd4:	ebfffaba 	bl	86c4 <rpi_reset_putc>
    9bd8:	e59f301c 	ldr	r3, [pc, #28]	; 9bfc <software_interrupt_vector+0x34>
    9bdc:	e58d3000 	str	r3, [sp]
    9be0:	e58d4004 	str	r4, [sp, #4]
    9be4:	e59f0014 	ldr	r0, [pc, #20]	; 9c00 <software_interrupt_vector+0x38>
    9be8:	e59f1014 	ldr	r1, [pc, #20]	; 9c04 <software_interrupt_vector+0x3c>
    9bec:	e59f2014 	ldr	r2, [pc, #20]	; 9c08 <software_interrupt_vector+0x40>
    9bf0:	e3a03025 	mov	r3, #37	; 0x25
    9bf4:	ebfffa97 	bl	8658 <printk>
    9bf8:	ebfffc06 	bl	8c18 <clean_reboot>
    9bfc:	0000a3d8 	ldrdeq	sl, [r0], -r8
    9c00:	0000a374 	andeq	sl, r0, r4, ror r3
    9c04:	0000a3b0 			; <UNDEFINED> instruction: 0x0000a3b0
    9c08:	0000a2fc 	strdeq	sl, [r0], -ip

00009c0c <reset_vector>:
    9c0c:	e52de004 	push	{lr}		; (str lr, [sp, #-4]!)
    9c10:	e24dd00c 	sub	sp, sp, #12
    9c14:	e1a04000 	mov	r4, r0
    9c18:	ebfffaa9 	bl	86c4 <rpi_reset_putc>
    9c1c:	e59f301c 	ldr	r3, [pc, #28]	; 9c40 <reset_vector+0x34>
    9c20:	e58d3000 	str	r3, [sp]
    9c24:	e58d4004 	str	r4, [sp, #4]
    9c28:	e59f0014 	ldr	r0, [pc, #20]	; 9c44 <reset_vector+0x38>
    9c2c:	e59f1014 	ldr	r1, [pc, #20]	; 9c48 <reset_vector+0x3c>
    9c30:	e59f2014 	ldr	r2, [pc, #20]	; 9c4c <reset_vector+0x40>
    9c34:	e3a03028 	mov	r3, #40	; 0x28
    9c38:	ebfffa86 	bl	8658 <printk>
    9c3c:	ebfffbf5 	bl	8c18 <clean_reboot>
    9c40:	0000a3e8 	andeq	sl, r0, r8, ror #7
    9c44:	0000a374 	andeq	sl, r0, r4, ror r3
    9c48:	0000a3b0 			; <UNDEFINED> instruction: 0x0000a3b0
    9c4c:	0000a318 	andeq	sl, r0, r8, lsl r3

00009c50 <undefined_instruction_vector>:
    9c50:	e52de004 	push	{lr}		; (str lr, [sp, #-4]!)
    9c54:	e24dd00c 	sub	sp, sp, #12
    9c58:	e1a04000 	mov	r4, r0
    9c5c:	ebfffa98 	bl	86c4 <rpi_reset_putc>
    9c60:	e59f301c 	ldr	r3, [pc, #28]	; 9c84 <undefined_instruction_vector+0x34>
    9c64:	e58d3000 	str	r3, [sp]
    9c68:	e58d4004 	str	r4, [sp, #4]
    9c6c:	e59f0014 	ldr	r0, [pc, #20]	; 9c88 <undefined_instruction_vector+0x38>
    9c70:	e59f1014 	ldr	r1, [pc, #20]	; 9c8c <undefined_instruction_vector+0x3c>
    9c74:	e59f2014 	ldr	r2, [pc, #20]	; 9c90 <undefined_instruction_vector+0x40>
    9c78:	e3a0302b 	mov	r3, #43	; 0x2b
    9c7c:	ebfffa75 	bl	8658 <printk>
    9c80:	ebfffbe4 	bl	8c18 <clean_reboot>
    9c84:	0000a3f8 	strdeq	sl, [r0], -r8
    9c88:	0000a374 	andeq	sl, r0, r4, ror r3
    9c8c:	0000a3b0 			; <UNDEFINED> instruction: 0x0000a3b0
    9c90:	0000a328 	andeq	sl, r0, r8, lsr #6

00009c94 <prefetch_abort_vector>:
    9c94:	e52de004 	push	{lr}		; (str lr, [sp, #-4]!)
    9c98:	e24dd00c 	sub	sp, sp, #12
    9c9c:	e1a04000 	mov	r4, r0
    9ca0:	ebfffa87 	bl	86c4 <rpi_reset_putc>
    9ca4:	e59f301c 	ldr	r3, [pc, #28]	; 9cc8 <prefetch_abort_vector+0x34>
    9ca8:	e58d3000 	str	r3, [sp]
    9cac:	e58d4004 	str	r4, [sp, #4]
    9cb0:	e59f0014 	ldr	r0, [pc, #20]	; 9ccc <prefetch_abort_vector+0x38>
    9cb4:	e59f1014 	ldr	r1, [pc, #20]	; 9cd0 <prefetch_abort_vector+0x3c>
    9cb8:	e59f2014 	ldr	r2, [pc, #20]	; 9cd4 <prefetch_abort_vector+0x40>
    9cbc:	e3a0302e 	mov	r3, #46	; 0x2e
    9cc0:	ebfffa64 	bl	8658 <printk>
    9cc4:	ebfffbd3 	bl	8c18 <clean_reboot>
    9cc8:	0000a410 	andeq	sl, r0, r0, lsl r4
    9ccc:	0000a374 	andeq	sl, r0, r4, ror r3
    9cd0:	0000a3b0 			; <UNDEFINED> instruction: 0x0000a3b0
    9cd4:	0000a348 	andeq	sl, r0, r8, asr #6

00009cd8 <data_abort_vector>:
    9cd8:	e52de004 	push	{lr}		; (str lr, [sp, #-4]!)
    9cdc:	e24dd00c 	sub	sp, sp, #12
    9ce0:	e1a04000 	mov	r4, r0
    9ce4:	ebfffa76 	bl	86c4 <rpi_reset_putc>
    9ce8:	e59f301c 	ldr	r3, [pc, #28]	; 9d0c <data_abort_vector+0x34>
    9cec:	e58d3000 	str	r3, [sp]
    9cf0:	e58d4004 	str	r4, [sp, #4]
    9cf4:	e59f0014 	ldr	r0, [pc, #20]	; 9d10 <data_abort_vector+0x38>
    9cf8:	e59f1014 	ldr	r1, [pc, #20]	; 9d14 <data_abort_vector+0x3c>
    9cfc:	e59f2014 	ldr	r2, [pc, #20]	; 9d18 <data_abort_vector+0x40>
    9d00:	e3a03031 	mov	r3, #49	; 0x31
    9d04:	ebfffa53 	bl	8658 <printk>
    9d08:	ebfffbc2 	bl	8c18 <clean_reboot>
    9d0c:	0000a420 	andeq	sl, r0, r0, lsr #8
    9d10:	0000a374 	andeq	sl, r0, r4, ror r3
    9d14:	0000a3b0 			; <UNDEFINED> instruction: 0x0000a3b0
    9d18:	0000a360 	andeq	sl, r0, r0, ror #6

00009d1c <dev_barrier>:
    9d1c:	ea000002 	b	9d2c <dsb>

00009d20 <dmb>:
    9d20:	e3a00000 	mov	r0, #0
    9d24:	ee070fba 	mcr	15, 0, r0, cr7, cr10, {5}
    9d28:	e12fff1e 	bx	lr

00009d2c <dsb>:
    9d2c:	ee070f9a 	mcr	15, 0, r0, cr7, cr10, {4}
    9d30:	e12fff1e 	bx	lr

00009d34 <put32>:
    9d34:	e5801000 	str	r1, [r0]
    9d38:	e12fff1e 	bx	lr

00009d3c <PUT32>:
    9d3c:	e5801000 	str	r1, [r0]
    9d40:	e12fff1e 	bx	lr

00009d44 <put16>:
    9d44:	e1c010b0 	strh	r1, [r0]
    9d48:	e12fff1e 	bx	lr

00009d4c <PUT16>:
    9d4c:	e1c010b0 	strh	r1, [r0]
    9d50:	e12fff1e 	bx	lr

00009d54 <put8>:
    9d54:	e5c01000 	strb	r1, [r0]
    9d58:	e12fff1e 	bx	lr

00009d5c <PUT8>:
    9d5c:	e5c01000 	strb	r1, [r0]
    9d60:	e12fff1e 	bx	lr

00009d64 <get32>:
    9d64:	e5900000 	ldr	r0, [r0]
    9d68:	e12fff1e 	bx	lr

00009d6c <GET32>:
    9d6c:	e5900000 	ldr	r0, [r0]
    9d70:	e12fff1e 	bx	lr

00009d74 <GETPC>:
    9d74:	e1a0000e 	mov	r0, lr
    9d78:	e12fff1e 	bx	lr

00009d7c <dummy>:
    9d7c:	e12fff1e 	bx	lr

00009d80 <system_enable_interrupts>:
    9d80:	e10f0000 	mrs	r0, CPSR
    9d84:	e3c00080 	bic	r0, r0, #128	; 0x80
    9d88:	e121f000 	msr	CPSR_c, r0
    9d8c:	e12fff1e 	bx	lr

00009d90 <system_disable_interrupts>:
    9d90:	e10f0000 	mrs	r0, CPSR
    9d94:	e3800080 	orr	r0, r0, #128	; 0x80
    9d98:	e121f000 	msr	CPSR_c, r0
    9d9c:	e12fff1e 	bx	lr

00009da0 <_interrupt_table>:
    9da0:	e59ff030 	ldr	pc, [pc, #48]	; 9dd8 <_reset_asm>
    9da4:	e59ff030 	ldr	pc, [pc, #48]	; 9ddc <_undefined_instruction_asm>
    9da8:	e59ff030 	ldr	pc, [pc, #48]	; 9de0 <_software_interrupt_asm>
    9dac:	e59ff030 	ldr	pc, [pc, #48]	; 9de4 <_prefetch_abort_asm>
    9db0:	e59ff030 	ldr	pc, [pc, #48]	; 9de8 <_data_abort_asm>
    9db4:	e59ff01c 	ldr	pc, [pc, #28]	; 9dd8 <_reset_asm>
    9db8:	e59ff02c 	ldr	pc, [pc, #44]	; 9dec <_interrupt_asm>

00009dbc <fast_interrupt_asm>:
    9dbc:	e24ee004 	sub	lr, lr, #4
    9dc0:	e52de004 	push	{lr}		; (str lr, [sp, #-4]!)
    9dc4:	e92d1fff 	push	{r0, r1, r2, r3, r4, r5, r6, r7, r8, r9, sl, fp, ip}
    9dc8:	e1a0000e 	mov	r0, lr
    9dcc:	ebffff6c 	bl	9b84 <fast_interrupt_vector>
    9dd0:	e8bd1fff 	pop	{r0, r1, r2, r3, r4, r5, r6, r7, r8, r9, sl, fp, ip}
    9dd4:	e8fd8000 	ldm	sp!, {pc}^

00009dd8 <_reset_asm>:
    9dd8:	00009e38 	andeq	r9, r0, r8, lsr lr

00009ddc <_undefined_instruction_asm>:
    9ddc:	00009e40 	andeq	r9, r0, r0, asr #28

00009de0 <_software_interrupt_asm>:
    9de0:	00009e0c 	andeq	r9, r0, ip, lsl #28

00009de4 <_prefetch_abort_asm>:
    9de4:	00009e48 	andeq	r9, r0, r8, asr #28

00009de8 <_data_abort_asm>:
    9de8:	00009e50 	andeq	r9, r0, r0, asr lr

00009dec <_interrupt_asm>:
    9dec:	00009df0 	strdeq	r9, [r0], -r0

00009df0 <_interrupt_table_end>:
    9df0:	e3a0d409 	mov	sp, #150994944	; 0x9000000
    9df4:	e24ee004 	sub	lr, lr, #4
    9df8:	e92d5fff 	push	{r0, r1, r2, r3, r4, r5, r6, r7, r8, r9, sl, fp, ip, lr}
    9dfc:	e1a0000e 	mov	r0, lr
    9e00:	ebfff90b 	bl	8234 <interrupt_vector>
    9e04:	e8bd5fff 	pop	{r0, r1, r2, r3, r4, r5, r6, r7, r8, r9, sl, fp, ip, lr}
    9e08:	e1b0f00e 	movs	pc, lr

00009e0c <software_interrupt_asm>:
    9e0c:	e52de004 	push	{lr}		; (str lr, [sp, #-4]!)
    9e10:	e92d1ffe 	push	{r1, r2, r3, r4, r5, r6, r7, r8, r9, sl, fp, ip}
    9e14:	e24ee004 	sub	lr, lr, #4
    9e18:	e1a0200e 	mov	r2, lr
    9e1c:	e1a01000 	mov	r1, r0
    9e20:	e1a0000e 	mov	r0, lr
    9e24:	eb000003 	bl	9e38 <reset_asm>
    9e28:	e8bd1ffe 	pop	{r1, r2, r3, r4, r5, r6, r7, r8, r9, sl, fp, ip}
    9e2c:	e49de004 	pop	{lr}		; (ldr lr, [sp], #4)
    9e30:	e8fd8000 	ldm	sp!, {pc}^
    9e34:	e1b0f00e 	movs	pc, lr

00009e38 <reset_asm>:
    9e38:	e24ee004 	sub	lr, lr, #4
    9e3c:	ebffff72 	bl	9c0c <reset_vector>

00009e40 <undefined_instruction_asm>:
    9e40:	e24ee004 	sub	lr, lr, #4
    9e44:	ebffff81 	bl	9c50 <undefined_instruction_vector>

00009e48 <prefetch_abort_asm>:
    9e48:	e24ee004 	sub	lr, lr, #4
    9e4c:	ebffff90 	bl	9c94 <prefetch_abort_vector>

00009e50 <data_abort_asm>:
    9e50:	e24ee004 	sub	lr, lr, #4
    9e54:	ebffff9f 	bl	9cd8 <data_abort_vector>

00009e58 <cb_new>:
    9e58:	e92d4008 	push	{r3, lr}
    9e5c:	e3a00409 	mov	r0, #150994944	; 0x9000000
    9e60:	e3a01000 	mov	r1, #0
    9e64:	e3a02004 	mov	r2, #4
    9e68:	ebfff9f2 	bl	8638 <memset>
    9e6c:	e3a00409 	mov	r0, #150994944	; 0x9000000
    9e70:	e59f3004 	ldr	r3, [pc, #4]	; 9e7c <cb_new+0x24>
    9e74:	e5803000 	str	r3, [r0]
    9e78:	e8bd8008 	pop	{r3, pc}
    9e7c:	12345678 	eorsne	r5, r4, #120, 12	; 0x7800000

00009e80 <cb_get_block>:
    9e80:	e3a03409 	mov	r3, #150994944	; 0x9000000
    9e84:	e5932000 	ldr	r2, [r3]
    9e88:	e59f3014 	ldr	r3, [pc, #20]	; 9ea4 <cb_get_block+0x24>
    9e8c:	e1520003 	cmp	r2, r3
    9e90:	0a000001 	beq	9e9c <cb_get_block+0x1c>
    9e94:	e3a00000 	mov	r0, #0
    9e98:	e12fff1e 	bx	lr
    9e9c:	e3a00409 	mov	r0, #150994944	; 0x9000000
    9ea0:	e12fff1e 	bx	lr
    9ea4:	12345678 	eorsne	r5, r4, #120, 12	; 0x7800000

Disassembly of section .data:

00009ea8 <rpi_putchar>:
    9ea8:	000086b0 			; <UNDEFINED> instruction: 0x000086b0

00009eac <putk>:
    9eac:	000086ec 	andeq	r8, r0, ip, ror #13

00009eb0 <GPFSEL0>:
    9eb0:	20200000 	eorcs	r0, r0, r0

00009eb4 <GPFSEL1>:
    9eb4:	20200004 	eorcs	r0, r0, r4

00009eb8 <GPFSEL2>:
    9eb8:	20200008 	eorcs	r0, r0, r8

00009ebc <GPFSEL3>:
    9ebc:	2020000c 	eorcs	r0, r0, ip

00009ec0 <GPFSEL4>:
    9ec0:	20200010 	eorcs	r0, r0, r0, lsl r0

00009ec4 <GPFSEL5>:
    9ec4:	20200014 	eorcs	r0, r0, r4, lsl r0

00009ec8 <GPSET0>:
    9ec8:	2020001c 	eorcs	r0, r0, ip, lsl r0

00009ecc <GPSET1>:
    9ecc:	20200020 	eorcs	r0, r0, r0, lsr #32

00009ed0 <GPCLR0>:
    9ed0:	20200028 	eorcs	r0, r0, r8, lsr #32

00009ed4 <GPCLR1>:
    9ed4:	2020002c 	eorcs	r0, r0, ip, lsr #32

00009ed8 <GPLEV0>:
    9ed8:	20200034 	eorcs	r0, r0, r4, lsr r0

00009edc <GPLEV1>:
    9edc:	20200038 	eorcs	r0, r0, r8, lsr r0

00009ee0 <IRQ_PENDING_2>:
    9ee0:	2000b208 	andcs	fp, r0, r8, lsl #4

00009ee4 <GPREN0>:
    9ee4:	2020004c 	eorcs	r0, r0, ip, asr #32

00009ee8 <GPREN1>:
    9ee8:	20200050 	eorcs	r0, r0, r0, asr r0

00009eec <ENABLE_IRQS_2>:
    9eec:	2000b214 	andcs	fp, r0, r4, lsl r2

00009ef0 <GPFEN0>:
    9ef0:	20200058 	eorcs	r0, r0, r8, asr r0

00009ef4 <GPFEN1>:
    9ef4:	2020005c 	eorcs	r0, r0, ip, asr r0

00009ef8 <GPEDS0>:
    9ef8:	20200040 	eorcs	r0, r0, r0, asr #32

00009efc <GPEDS1>:
    9efc:	20200044 	eorcs	r0, r0, r4, asr #32

00009f00 <IRQ_PENDING_1>:
    9f00:	2000b204 	andcs	fp, r0, r4, lsl #4

00009f04 <gpio_clr0>:
    9f04:	20200028 	eorcs	r0, r0, r8, lsr #32

00009f08 <gpio_set0>:
    9f08:	2020001c 	eorcs	r0, r0, ip, lsl r0

00009f0c <gpio_fsel0>:
    9f0c:	20200000 	eorcs	r0, r0, r0

00009f10 <AUX_ENABLES>:
    9f10:	20215004 	eorcs	r5, r1, r4

00009f14 <AUX_MU_CNTL_REG>:
    9f14:	20215060 	eorcs	r5, r1, r0, rrx

00009f18 <AUX_MU_IER_REG>:
    9f18:	20215044 	eorcs	r5, r1, r4, asr #32

00009f1c <AUX_MU_IIR_REG>:
    9f1c:	20215048 	eorcs	r5, r1, r8, asr #32

00009f20 <AUX_MU_LCR_REG>:
    9f20:	2021504c 	eorcs	r5, r1, ip, asr #32

00009f24 <AUX_MU_BAUD_REG>:
    9f24:	20215068 	eorcs	r5, r1, r8, rrx

00009f28 <AUX_MU_LSR_REG>:
    9f28:	20215054 	eorcs	r5, r1, r4, asr r0

00009f2c <AUX_MU_IO_REG>:
    9f2c:	20215040 	eorcs	r5, r1, r0, asr #32

00009f30 <AUX_MU_STAT_REG>:
    9f30:	20215064 	eorcs	r5, r1, r4, rrx

00009f34 <AUX_MU_SCRATCH>:
    9f34:	2021505c 	eorcs	r5, r1, ip, asr r0

00009f38 <AUX_MU_MSR_REG>:
    9f38:	20215058 	eorcs	r5, r1, r8, asr r0

00009f3c <AUX_MU_MCR_REG>:
    9f3c:	20215050 	eorcs	r5, r1, r0, asr r0

00009f40 <AUX_IRQ>:
    9f40:	20215000 	eorcs	r5, r1, r0

Disassembly of section .rodata:

00009f44 <__FUNCTION__.4297>:
    9f44:	695f7163 	ldmdbvs	pc, {r0, r1, r5, r6, r8, ip, sp, lr}^	; <UNPREDICTABLE>
    9f48:	0074696e 	rsbseq	r6, r4, lr, ror #18
    9f4c:	494e4150 	stmdbmi	lr, {r4, r6, r8, lr}^
    9f50:	73253a43 	teqvc	r5, #274432	; 0x43000
    9f54:	3a73253a 	bcc	1cd3444 <__bss_end__+0x1cc4bd4>
    9f58:	633a6425 	teqvs	sl, #620756992	; 0x25000000
    9f5c:	6d655f71 	stclvs	15, cr5, [r5, #-452]!	; 0xfffffe3c
    9f60:	28797470 	ldmdacs	r9!, {r4, r5, r6, sl, ip, sp, lr}^
    9f64:	000a2963 	andeq	r2, sl, r3, ror #18
    9f68:	6573552f 	ldrbvs	r5, [r3, #-1327]!	; 0x52f
    9f6c:	622f7372 	eorvs	r7, pc, #-939524095	; 0xc8000001
    9f70:	6e616972 	mcrvs	9, 3, r6, cr1, cr2, {3}
    9f74:	2f6e756a 	svccs	0x006e756a
    9f78:	6b736544 	blvs	1ce3490 <__bss_end__+0x1cd4c20>
    9f7c:	2f706f74 	svccs	0x00706f74
    9f80:	6f686373 	svcvs	0x00686373
    9f84:	572f6c6f 	strpl	r6, [pc, -pc, ror #24]!
    9f88:	65746e69 	ldrbvs	r6, [r4, #-3689]!	; 0xe69
    9f8c:	32393172 	eorscc	r3, r9, #-2147483620	; 0x8000001c
    9f90:	53432f30 	movtpl	r2, #16176	; 0x3f30
    9f94:	45303431 	ldrmi	r3, [r0, #-1073]!	; 0x431
    9f98:	3173632f 	cmncc	r3, pc, lsr #6
    9f9c:	2d653034 	stclcs	0, cr3, [r5, #-208]!	; 0xffffff30
    9fa0:	69773032 	ldmdbvs	r7!, {r1, r4, r5, ip, sp}^
    9fa4:	696c2f6e 	stmdbvs	ip!, {r1, r2, r3, r5, r6, r8, r9, sl, fp, sp}^
    9fa8:	2f697062 	svccs	0x00697062
    9fac:	6362696c 	cmnvs	r2, #108, 18	; 0x1b0000
    9fb0:	7269632f 	rsbvc	r6, r9, #-1140850688	; 0xbc000000
    9fb4:	616c7563 	cmnvs	ip, r3, ror #10
    9fb8:	00682e72 	rsbeq	r2, r8, r2, ror lr
    9fbc:	494e4150 	stmdbmi	lr, {r4, r6, r8, lr}^
    9fc0:	73253a43 	teqvc	r5, #274432	; 0x43000
    9fc4:	3a73253a 	bcc	1cd34b4 <__bss_end__+0x1cc4c44>
    9fc8:	213a6425 	teqcs	sl, r5, lsr #8
    9fcc:	665f7163 	ldrbvs	r7, [pc], -r3, ror #2
    9fd0:	286c6c75 	stmdacs	ip!, {r0, r2, r4, r5, r6, sl, fp, sp, lr}^
    9fd4:	000a2963 	andeq	r2, sl, r3, ror #18
    9fd8:	494e4150 	stmdbmi	lr, {r4, r6, r8, lr}^
    9fdc:	73253a43 	teqvc	r5, #274432	; 0x43000
    9fe0:	3a73253a 	bcc	1cd34d0 <__bss_end__+0x1cc4c60>
    9fe4:	633a6425 	teqvs	sl, #620756992	; 0x25000000
    9fe8:	656e5f71 	strbvs	r5, [lr, #-3953]!	; 0xf71
    9fec:	286d656c 	stmdacs	sp!, {r2, r3, r5, r6, r8, sl, sp, lr}^
    9ff0:	3d202963 	stccc	9, cr2, [r0, #-396]!	; 0xfffffe74
    9ff4:	0a30203d 	beq	c120f0 <__bss_end__+0xc03880>
    9ff8:	00000000 	andeq	r0, r0, r0
    9ffc:	494e4150 	stmdbmi	lr, {r4, r6, r8, lr}^
    a000:	73253a43 	teqvc	r5, #274432	; 0x43000
    a004:	3a73253a 	bcc	1cd34f4 <__bss_end__+0x1cc4c84>
    a008:	633a6425 	teqvs	sl, #620756992	; 0x25000000
    a00c:	6f705f71 	svcvs	0x00705f71
    a010:	6f6e5f70 	svcvs	0x006e5f70
    a014:	6f6c626e 	svcvs	0x006c626e
    a018:	63286b63 	teqvs	r8, #101376	; 0x18c00
    a01c:	2965262c 	stmdbcs	r5!, {r2, r3, r5, r9, sl, sp}^
    a020:	203d3d20 	eorscs	r3, sp, r0, lsr #26
    a024:	26262030 			; <UNDEFINED> instruction: 0x26262030
    a028:	3d206520 	cfstr32cc	mvfx6, [r0, #-128]!	; 0xffffff80
    a02c:	7830203d 	ldmdavc	r0!, {r0, r2, r3, r4, r5, sp}
    a030:	000a3231 	andeq	r3, sl, r1, lsr r2
    a034:	6e696f67 	cdpvs	15, 6, cr6, cr9, cr7, {3}
    a038:	6f742067 	svcvs	0x00742067
    a03c:	73657420 	cmnvc	r5, #32, 8	; 0x20000000
    a040:	73752074 	cmnvc	r5, #116	; 0x74
    a044:	20676e69 	rsbcs	r6, r7, r9, ror #28
    a048:	20656874 	rsbcs	r6, r5, r4, ror r8
    a04c:	752d7768 	strvc	r7, [sp, #-1896]!	; 0x768
    a050:	20747261 	rsbscs	r7, r4, r1, ror #4
    a054:	796c6e6f 	stmdbvc	ip!, {r0, r1, r2, r3, r5, r6, r9, sl, fp, sp, lr}^
    a058:	00000a3a 	andeq	r0, r0, sl, lsr sl

0000a05c <__FUNCTION__.4214>:
    a05c:	74696d65 	strbtvc	r6, [r9], #-3429	; 0xd65
    a060:	00000000 	andeq	r0, r0, r0

0000a064 <__FUNCTION__.4162>:
    a064:	5f697072 	svcpl	0x00697072
    a068:	5f746573 	svcpl	0x00746573
    a06c:	7074756f 	rsbsvc	r7, r4, pc, ror #10
    a070:	00007475 	andeq	r7, r0, r5, ror r4

0000a074 <__FUNCTION__.4236>:
    a074:	705f6176 	subsvc	r6, pc, r6, ror r1	; <UNPREDICTABLE>
    a078:	746e6972 	strbtvc	r6, [lr], #-2418	; 0x972
    a07c:	0000006b 	andeq	r0, r0, fp, rrx
    a080:	494e4150 	stmdbmi	lr, {r4, r6, r8, lr}^
    a084:	73253a43 	teqvc	r5, #274432	; 0x43000
    a088:	3a73253a 	bcc	1cd3578 <__bss_end__+0x1cc4d08>
    a08c:	303a6425 	eorscc	r6, sl, r5, lsr #8
    a090:	0000000a 	andeq	r0, r0, sl
    a094:	6362696c 	cmnvs	r2, #108, 18	; 0x1b0000
    a098:	2d61762f 	stclcs	6, cr7, [r1, #-188]!	; 0xffffff44
    a09c:	6e697270 	mcrvs	2, 3, r7, cr9, cr0, {3}
    a0a0:	632e6b74 	teqvs	lr, #116, 22	; 0x1d000
    a0a4:	00000000 	andeq	r0, r0, r0
    a0a8:	33323130 	teqcc	r2, #48, 2
    a0ac:	37363534 			; <UNDEFINED> instruction: 0x37363534
    a0b0:	00003938 	andeq	r3, r0, r8, lsr r9
    a0b4:	33323130 	teqcc	r2, #48, 2
    a0b8:	37363534 			; <UNDEFINED> instruction: 0x37363534
    a0bc:	62613938 	rsbvs	r3, r1, #56, 18	; 0xe0000
    a0c0:	66656463 	strbtvs	r6, [r5], -r3, ror #8
    a0c4:	00000000 	andeq	r0, r0, r0
    a0c8:	00003130 	andeq	r3, r0, r0, lsr r1
    a0cc:	494e4150 	stmdbmi	lr, {r4, r6, r8, lr}^
    a0d0:	73253a43 	teqvc	r5, #274432	; 0x43000
    a0d4:	3a73253a 	bcc	1cd35c4 <__bss_end__+0x1cc4d54>
    a0d8:	703a6425 	eorsvc	r6, sl, r5, lsr #8
    a0dc:	5f637475 	svcpl	0x00637475
    a0e0:	000a7066 	andeq	r7, sl, r6, rrx
    a0e4:	494e4150 	stmdbmi	lr, {r4, r6, r8, lr}^
    a0e8:	73253a43 	teqvc	r5, #274432	; 0x43000
    a0ec:	3a73253a 	bcc	1cd35dc <__bss_end__+0x1cc4d6c>
    a0f0:	773a6425 	ldrvc	r6, [sl, -r5, lsr #8]!
    a0f4:	68746469 	ldmdavs	r4!, {r0, r3, r5, r6, sl, sp, lr}^
    a0f8:	33203c20 	teqcc	r0, #32, 24	; 0x2000
    a0fc:	00000a32 	andeq	r0, r0, r2, lsr sl
    a100:	494e4150 	stmdbmi	lr, {r4, r6, r8, lr}^
    a104:	73253a43 	teqvc	r5, #274432	; 0x43000
    a108:	3a73253a 	bcc	1cd35f8 <__bss_end__+0x1cc4d88>
    a10c:	663a6425 	ldrtvs	r6, [sl], -r5, lsr #8
    a110:	74616f6c 	strbtvc	r6, [r1], #-3948	; 0xf6c
    a114:	746f6e20 	strbtvc	r6, [pc], #-3616	; a11c <__FUNCTION__.4236+0xa8>
    a118:	616e6520 	cmnvs	lr, r0, lsr #10
    a11c:	64656c62 	strbtvs	r6, [r5], #-3170	; 0xc62
    a120:	0a212121 	beq	8525ac <__bss_end__+0x843d3c>
    a124:	00000000 	andeq	r0, r0, r0
    a128:	494e4150 	stmdbmi	lr, {r4, r6, r8, lr}^
    a12c:	73253a43 	teqvc	r5, #274432	; 0x43000
    a130:	3a73253a 	bcc	1cd3620 <__bss_end__+0x1cc4db0>
    a134:	703a6425 	eorsvc	r6, sl, r5, lsr #8
    a138:	746e6972 	strbtvc	r6, [lr], #-2418	; 0x972
    a13c:	6e203a6b 	vnmulvs.f32	s6, s0, s23
    a140:	6820746f 	stmdavs	r0!, {r0, r1, r2, r3, r5, r6, sl, ip, sp, lr}
    a144:	6c646e61 	stclvs	14, cr6, [r4], #-388	; 0xfffffe7c
    a148:	20676e69 	rsbcs	r6, r7, r9, ror #28
    a14c:	63657073 	cmnvs	r5, #115	; 0x73
    a150:	65696669 	strbvs	r6, [r9, #-1641]!	; 0x669
    a154:	25272072 	strcs	r2, [r7, #-114]!	; 0x72
    a158:	0a0a2763 	beq	293eec <__bss_end__+0x28567c>
    a15c:	00000000 	andeq	r0, r0, r0
    a160:	454e4f44 	strbmi	r4, [lr, #-3908]	; 0xf44
    a164:	0a212121 	beq	8525f0 <__bss_end__+0x843d80>
    a168:	00000000 	andeq	r0, r0, r0
    a16c:	756f6261 	strbvc	r6, [pc, #-609]!	; 9f13 <AUX_ENABLES+0x3>
    a170:	6f742074 	svcvs	0x00742074
    a174:	69727020 	ldmdbvs	r2!, {r5, ip, sp, lr}^
    a178:	6f20746e 	svcvs	0x0020746e
    a17c:	6572206e 	ldrbvs	r2, [r2, #-110]!	; 0x6e
    a180:	616c7567 	cmnvs	ip, r7, ror #10
    a184:	72702072 	rsbsvc	r2, r0, #114	; 0x72
    a188:	66746e69 	ldrbtvs	r6, [r4], -r9, ror #28
    a18c:	0000000a 	andeq	r0, r0, sl
    a190:	63637573 	cmnvs	r3, #482344960	; 0x1cc00000
    a194:	21737365 	cmncs	r3, r5, ror #6
    a198:	0000000a 	andeq	r0, r0, sl

0000a19c <__FUNCTION__.4263>:
    a19c:	755f7773 	ldrbvc	r7, [pc, #-1907]	; 9a31 <uart_init+0x69>
    a1a0:	5f747261 	svcpl	0x00747261
    a1a4:	73746567 	cmnvc	r4, #432013312	; 0x19c00000
    a1a8:	746e755f 	strbtvc	r7, [lr], #-1375	; 0x55f
    a1ac:	00006c69 	andeq	r6, r0, r9, ror #24

0000a1b0 <__FUNCTION__.4275>:
    a1b0:	755f7773 	ldrbvc	r7, [pc, #-1907]	; 9a45 <uart_init+0x7d>
    a1b4:	5f747261 	svcpl	0x00747261
    a1b8:	73746567 	cmnvc	r4, #432013312	; 0x19c00000
    a1bc:	6d69745f 	cfstrdvs	mvd7, [r9, #-380]!	; 0xfffffe84
    a1c0:	74756f65 	ldrbtvc	r6, [r5], #-3941	; 0xf65
    a1c4:	00000000 	andeq	r0, r0, r0

0000a1c8 <__FUNCTION__.4289>:
    a1c8:	755f7773 	ldrbvc	r7, [pc, #-1907]	; 9a5d <uart_init+0x95>
    a1cc:	5f747261 	svcpl	0x00747261
    a1d0:	74696e69 	strbtvc	r6, [r9], #-3689	; 0xe69
    a1d4:	6c65685f 	stclvs	8, cr6, [r5], #-380	; 0xfffffe84
    a1d8:	00726570 	rsbseq	r6, r2, r0, ror r5

0000a1dc <__FUNCTION__.4295>:
    a1dc:	755f7773 	ldrbvc	r7, [pc, #-1907]	; 9a71 <uart_can_getc+0xd>
    a1e0:	5f747261 	svcpl	0x00747261
    a1e4:	63746567 	cmnvs	r4, #432013312	; 0x19c00000
    a1e8:	00000000 	andeq	r0, r0, r0

0000a1ec <__FUNCTION__.4317>:
    a1ec:	755f7773 	ldrbvc	r7, [pc, #-1907]	; 9a81 <uart_getc+0x1>
    a1f0:	5f747261 	svcpl	0x00747261
    a1f4:	6e697270 	mcrvs	2, 3, r7, cr9, cr0, {3}
    a1f8:	00006b74 	andeq	r6, r0, r4, ror fp

0000a1fc <__FUNCTION__.4325>:
    a1fc:	755f7773 	ldrbvc	r7, [pc, #-1907]	; 9a91 <uart_getc+0x11>
    a200:	5f747261 	svcpl	0x00747261
    a204:	73746567 	cmnvc	r4, #432013312	; 0x19c00000
    a208:	746e755f 	strbtvc	r7, [lr], #-1375	; 0x55f
    a20c:	625f6c69 	subsvs	r6, pc, #26880	; 0x6900
    a210:	00006b6c 	andeq	r6, r0, ip, ror #22
    a214:	494e4150 	stmdbmi	lr, {r4, r6, r8, lr}^
    a218:	73253a43 	teqvc	r5, #274432	; 0x43000
    a21c:	3a73253a 	bcc	1cd370c <__bss_end__+0x1cc4e9c>
    a220:	6e3a6425 	cdpvs	4, 3, cr6, cr10, cr5, {1}
    a224:	65747962 	ldrbvs	r7, [r4, #-2402]!	; 0x962
    a228:	0a303e73 	beq	c19bfc <__bss_end__+0xc0b38c>
    a22c:	00000000 	andeq	r0, r0, r0
    a230:	732d796d 	teqvc	sp, #1785856	; 0x1b4000
    a234:	732f6372 	teqvc	pc, #-939524095	; 0xc8000001
    a238:	61752d77 	cmnvs	r5, r7, ror sp
    a23c:	632e7472 	teqvs	lr, #1912602624	; 0x72000000
    a240:	00000000 	andeq	r0, r0, r0
    a244:	494e4150 	stmdbmi	lr, {r4, r6, r8, lr}^
    a248:	73253a43 	teqvc	r5, #274432	; 0x43000
    a24c:	3a73253a 	bcc	1cd373c <__bss_end__+0x1cc4ecc>
    a250:	283a6425 	ldmdacs	sl!, {r0, r2, r5, sl, sp, lr}
    a254:	207a686d 	rsbscs	r6, sl, sp, ror #16
    a258:	6162202d 	cmnvs	r2, sp, lsr #32
    a25c:	20296475 	eorcs	r6, r9, r5, ror r4
    a260:	64203d3c 	strtvs	r3, [r0], #-3388	; 0xd3c
    a264:	76697265 	strbtvc	r7, [r9], -r5, ror #4
    a268:	26206465 	strtcs	r6, [r0], -r5, ror #8
    a26c:	65642026 	strbvs	r2, [r4, #-38]!	; 0x26
    a270:	65766972 	ldrbvs	r6, [r6, #-2418]!	; 0x972
    a274:	3d3c2064 	ldccc	0, cr2, [ip, #-400]!	; 0xfffffe70
    a278:	686d2820 	stmdavs	sp!, {r5, fp, sp}^
    a27c:	202b207a 	eorcs	r2, fp, sl, ror r0
    a280:	64756162 	ldrbtvs	r6, [r5], #-354	; 0x162
    a284:	00000a29 	andeq	r0, r0, r9, lsr #20
    a288:	494e4150 	stmdbmi	lr, {r4, r6, r8, lr}^
    a28c:	73253a43 	teqvc	r5, #274432	; 0x43000
    a290:	3a73253a 	bcc	1cd3780 <__bss_end__+0x1cc4f10>
    a294:	693a6425 	ldmdbvs	sl!, {r0, r2, r5, sl, sp, lr}
    a298:	736f706d 	cmnvc	pc, #109	; 0x6d
    a29c:	6c626973 	stclvs	9, cr6, [r2], #-460	; 0xfffffe34
    a2a0:	68203a65 	stmdavs	r0!, {r0, r2, r5, r6, r9, fp, ip, sp}
    a2a4:	20657661 	rsbcs	r7, r5, r1, ror #12
    a2a8:	69206e61 	stmdbvs	r0!, {r0, r5, r6, r9, sl, fp, sp, lr}
    a2ac:	6e69666e 	cdpvs	6, 6, cr6, cr9, cr14, {3}
    a2b0:	20657469 	rsbcs	r7, r5, r9, ror #8
    a2b4:	656d6974 	strbvs	r6, [sp, #-2420]!	; 0x974
    a2b8:	2174756f 	cmncs	r4, pc, ror #10
    a2bc:	00000a0a 	andeq	r0, r0, sl, lsl #20
    a2c0:	494e4150 	stmdbmi	lr, {r4, r6, r8, lr}^
    a2c4:	73253a43 	teqvc	r5, #274432	; 0x43000
    a2c8:	3a73253a 	bcc	1cd37b8 <__bss_end__+0x1cc4f48>
    a2cc:	733a6425 	teqvc	sl, #620756992	; 0x25000000
    a2d0:	203c207a 	eorscs	r2, ip, sl, ror r0
    a2d4:	657a6973 	ldrbvs	r6, [sl, #-2419]!	; 0x973
    a2d8:	6220666f 	eorvs	r6, r0, #116391936	; 0x6f00000
    a2dc:	312d6675 	teqcc	sp, r5, ror r6
    a2e0:	0000000a 	andeq	r0, r0, sl

0000a2e4 <__FUNCTION__.4194>:
    a2e4:	74736166 	ldrbtvc	r6, [r3], #-358	; 0x166
    a2e8:	746e695f 	strbtvc	r6, [lr], #-2399	; 0x95f
    a2ec:	75727265 	ldrbvc	r7, [r2, #-613]!	; 0x265
    a2f0:	765f7470 			; <UNDEFINED> instruction: 0x765f7470
    a2f4:	6f746365 	svcvs	0x00746365
    a2f8:	00000072 	andeq	r0, r0, r2, ror r0

0000a2fc <__FUNCTION__.4198>:
    a2fc:	74666f73 	strbtvc	r6, [r6], #-3955	; 0xf73
    a300:	65726177 	ldrbvs	r6, [r2, #-375]!	; 0x177
    a304:	746e695f 	strbtvc	r6, [lr], #-2399	; 0x95f
    a308:	75727265 	ldrbvc	r7, [r2, #-613]!	; 0x265
    a30c:	765f7470 			; <UNDEFINED> instruction: 0x765f7470
    a310:	6f746365 	svcvs	0x00746365
    a314:	00000072 	andeq	r0, r0, r2, ror r0

0000a318 <__FUNCTION__.4202>:
    a318:	65736572 	ldrbvs	r6, [r3, #-1394]!	; 0x572
    a31c:	65765f74 	ldrbvs	r5, [r6, #-3956]!	; 0xf74
    a320:	726f7463 	rsbvc	r7, pc, #1660944384	; 0x63000000
    a324:	00000000 	andeq	r0, r0, r0

0000a328 <__FUNCTION__.4206>:
    a328:	65646e75 	strbvs	r6, [r4, #-3701]!	; 0xe75
    a32c:	656e6966 	strbvs	r6, [lr, #-2406]!	; 0x966
    a330:	6e695f64 	cdpvs	15, 6, cr5, cr9, cr4, {3}
    a334:	75727473 	ldrbvc	r7, [r2, #-1139]!	; 0x473
    a338:	6f697463 	svcvs	0x00697463
    a33c:	65765f6e 	ldrbvs	r5, [r6, #-3950]!	; 0xf6e
    a340:	726f7463 	rsbvc	r7, pc, #1660944384	; 0x63000000
    a344:	00000000 	andeq	r0, r0, r0

0000a348 <__FUNCTION__.4210>:
    a348:	66657270 			; <UNDEFINED> instruction: 0x66657270
    a34c:	68637465 	stmdavs	r3!, {r0, r2, r5, r6, sl, ip, sp, lr}^
    a350:	6f62615f 	svcvs	0x0062615f
    a354:	765f7472 			; <UNDEFINED> instruction: 0x765f7472
    a358:	6f746365 	svcvs	0x00746365
    a35c:	00000072 	andeq	r0, r0, r2, ror r0

0000a360 <__FUNCTION__.4214>:
    a360:	61746164 	cmnvs	r4, r4, ror #2
    a364:	6f62615f 	svcvs	0x0062615f
    a368:	765f7472 			; <UNDEFINED> instruction: 0x765f7472
    a36c:	6f746365 	svcvs	0x00746365
    a370:	00000072 	andeq	r0, r0, r2, ror r0
    a374:	494e4150 	stmdbmi	lr, {r4, r6, r8, lr}^
    a378:	73253a43 	teqvc	r5, #274432	; 0x43000
    a37c:	3a73253a 	bcc	1cd386c <__bss_end__+0x1cc4ffc>
    a380:	453a6425 	ldrmi	r6, [sl, #-1061]!	; 0x425
    a384:	524f5252 	subpl	r5, pc, #536870917	; 0x20000005
    a388:	6e75203a 	mrcvs	0, 3, r2, cr5, cr10, {1}
    a38c:	646e6168 	strbtvs	r6, [lr], #-360	; 0x168
    a390:	2064656c 	rsbcs	r6, r4, ip, ror #10
    a394:	65637865 	strbvs	r7, [r3, #-2149]!	; 0x865
    a398:	6f697470 	svcvs	0x00697470
    a39c:	253c206e 	ldrcs	r2, [ip, #-110]!	; 0x6e
    a3a0:	61203e73 	teqvs	r0, r3, ror lr
    a3a4:	43502074 	cmpmi	r0, #116	; 0x74
    a3a8:	0a78253d 	beq	1e138a4 <__bss_end__+0x1e05034>
    a3ac:	0000000a 	andeq	r0, r0, sl
    a3b0:	34317363 	ldrtcc	r7, [r1], #-867	; 0x363
    a3b4:	692d6530 	pushvs	{r4, r5, r8, sl, sp, lr}
    a3b8:	7265746e 	rsbvc	r7, r5, #1845493760	; 0x6e000000
    a3bc:	74707572 	ldrbtvc	r7, [r0], #-1394	; 0x572
    a3c0:	746e692f 	strbtvc	r6, [lr], #-2351	; 0x92f
    a3c4:	75727265 	ldrbvc	r7, [r2, #-613]!	; 0x265
    a3c8:	2d737470 	cfldrdcs	mvd7, [r3, #-448]!	; 0xfffffe40
    a3cc:	00632e63 	rsbeq	r2, r3, r3, ror #28
    a3d0:	74736166 	ldrbtvc	r6, [r3], #-358	; 0x166
    a3d4:	00000000 	andeq	r0, r0, r0
    a3d8:	74666f73 	strbtvc	r6, [r6], #-3955	; 0xf73
    a3dc:	746e6920 	strbtvc	r6, [lr], #-2336	; 0x920
    a3e0:	75727265 	ldrbvc	r7, [r2, #-613]!	; 0x265
    a3e4:	00007470 	andeq	r7, r0, r0, ror r4
    a3e8:	65736572 	ldrbvs	r6, [r3, #-1394]!	; 0x572
    a3ec:	65762074 	ldrbvs	r2, [r6, #-116]!	; 0x74
    a3f0:	726f7463 	rsbvc	r7, pc, #1660944384	; 0x63000000
    a3f4:	00000000 	andeq	r0, r0, r0
    a3f8:	65646e75 	strbvs	r6, [r4, #-3701]!	; 0xe75
    a3fc:	656e6966 	strbvs	r6, [lr, #-2406]!	; 0x966
    a400:	6e692064 	cdpvs	0, 6, cr2, cr9, cr4, {3}
    a404:	75727473 	ldrbvc	r7, [r2, #-1139]!	; 0x473
    a408:	6f697463 	svcvs	0x00697463
    a40c:	0000006e 	andeq	r0, r0, lr, rrx
    a410:	66657270 			; <UNDEFINED> instruction: 0x66657270
    a414:	68637465 	stmdavs	r3!, {r0, r2, r5, r6, sl, ip, sp, lr}^
    a418:	6f626120 	svcvs	0x00626120
    a41c:	00007472 	andeq	r7, r0, r2, ror r4
    a420:	61746164 	cmnvs	r4, r4, ror #2
    a424:	6f626120 	svcvs	0x00626120
    a428:	00007472 	andeq	r7, r0, r2, ror r4

Disassembly of section .bss:

0000a42c <__bss_start__>:
	...

0000c440 <in_data>:
    c440:	00000000 	andeq	r0, r0, r0

0000c444 <putQ>:
	...

0000e458 <tx_count>:
    e458:	00000000 	andeq	r0, r0, r0

0000e45c <buf.4162>:
	...

0000e85c <console_uart>:
	...

0000e868 <rpi_arm_timer_t>:
	...

Disassembly of section .ARM.attributes:

00000000 <.ARM.attributes>:
   0:	00002a41 	andeq	r2, r0, r1, asr #20
   4:	61656100 	cmnvs	r5, r0, lsl #2
   8:	01006962 	tsteq	r0, r2, ror #18
   c:	00000020 	andeq	r0, r0, r0, lsr #32
  10:	4b5a3605 	blmi	168d82c <__bss_end__+0x167efbc>
  14:	08070600 	stmdaeq	r7, {r9, sl}
  18:	12010901 	andne	r0, r1, #16384	; 0x4000
  1c:	15011404 	strne	r1, [r1, #-1028]	; 0x404
  20:	18031701 	stmdane	r3, {r0, r8, r9, sl, ip}
  24:	22011a01 	andcs	r1, r1, #4096	; 0x1000
  28:	Address 0x0000000000000028 is out of bounds.


Disassembly of section .comment:

00000000 <.comment>:
   0:	3a434347 	bcc	10d0d24 <__bss_end__+0x10c24b4>
   4:	4e472820 	cdpmi	8, 4, cr2, cr7, cr0, {1}
   8:	34202955 	strtcc	r2, [r0], #-2389	; 0x955
   c:	332e382e 	teqcc	lr, #3014656	; 0x2e0000
	...

Disassembly of section .debug_info:

00000000 <.debug_info>:
       0:	00000da5 	andeq	r0, r0, r5, lsr #27
       4:	00000004 	andeq	r0, r0, r4
       8:	01040000 	mrseq	r0, (UNDEF: 4)
       c:	00000355 	andeq	r0, r0, r5, asr r3
      10:	0003f401 	andeq	pc, r3, r1, lsl #8
      14:	0002e800 	andeq	lr, r2, r0, lsl #16
      18:	00801000 	addeq	r1, r0, r0
      1c:	00062800 	andeq	r2, r6, r0, lsl #16
      20:	00000000 	andeq	r0, r0, r0
      24:	05040200 	streq	r0, [r4, #-512]	; 0x200
      28:	00746e69 	rsbseq	r6, r4, r9, ror #28
      2c:	00000003 	andeq	r0, r0, r3
      30:	37d40300 	ldrbcc	r0, [r4, r0, lsl #6]
      34:	04000000 	streq	r0, [r0], #-0
      38:	00620704 	rsbeq	r0, r2, r4, lsl #14
      3c:	01040000 	mrseq	r0, (UNDEF: 4)
      40:	0002ba06 	andeq	fp, r2, r6, lsl #20
      44:	05020400 	streq	r0, [r2, #-1024]	; 0x400
      48:	000002ce 	andeq	r0, r0, lr, asr #5
      4c:	93050404 	movwls	r0, #21508	; 0x5404
      50:	04000000 	streq	r0, [r0], #-0
      54:	008e0508 	addeq	r0, lr, r8, lsl #10
      58:	4f030000 	svcmi	0x00030000
      5c:	04000004 	streq	r0, [r0], #-4
      60:	0000652e 	andeq	r6, r0, lr, lsr #10
      64:	08010400 	stmdaeq	r1, {sl}
      68:	000002b8 			; <UNDEFINED> instruction: 0x000002b8
      6c:	a7070204 	strge	r0, [r7, -r4, lsl #4]
      70:	03000001 	movweq	r0, #1
      74:	00000347 	andeq	r0, r0, r7, asr #6
      78:	007e3404 	rsbseq	r3, lr, r4, lsl #8
      7c:	04040000 	streq	r0, [r4], #-0
      80:	00005d07 	andeq	r5, r0, r7, lsl #26
      84:	07080400 	streq	r0, [r8, -r0, lsl #8]
      88:	00000058 	andeq	r0, r0, r8, asr r0
      8c:	29070404 	stmdbcs	r7, {r2, sl}
      90:	05000002 	streq	r0, [r0, #-2]
      94:	08010404 	stmdaeq	r1, {r2, sl}
      98:	000002c1 	andeq	r0, r0, r1, asr #5
      9c:	00a20406 	adceq	r0, r2, r6, lsl #8
      a0:	95070000 	strls	r0, [r7, #-0]
      a4:	08000000 	stmdaeq	r0, {}	; <UNPREDICTABLE>
      a8:	00000095 	muleq	r0, r5, r0
      ac:	000000b7 	strheq	r0, [r0], -r7
      b0:	00008c09 	andeq	r8, r0, r9, lsl #24
      b4:	0a000700 	beq	1cbc <_start-0x6344>
      b8:	f00c0501 			; <UNDEFINED> instruction: 0xf00c0501
      bc:	0b000000 	bleq	c4 <_start-0x7f3c>
      c0:	00000075 	andeq	r0, r0, r5, ror r0
      c4:	043e0b00 	ldrteq	r0, [lr], #-2816	; 0xb00
      c8:	0b010000 	bleq	400d0 <__bss_end__+0x31860>
      cc:	0000047b 	andeq	r0, r0, fp, ror r4
      d0:	048a0b04 	streq	r0, [sl], #2820	; 0xb04
      d4:	0b050000 	bleq	1400dc <__bss_end__+0x13186c>
      d8:	00000499 	muleq	r0, r9, r4
      dc:	04a80b06 	strteq	r0, [r8], #2822	; 0xb06
      e0:	0b070000 	bleq	1c00e8 <__bss_end__+0x1b1878>
      e4:	000004b7 			; <UNDEFINED> instruction: 0x000004b7
      e8:	04c60b03 	strbeq	r0, [r6], #2819	; 0xb03
      ec:	00020000 	andeq	r0, r2, r0
      f0:	00045d03 	andeq	r5, r4, r3, lsl #26
      f4:	b7150500 	ldrlt	r0, [r5, -r0, lsl #10]
      f8:	0a000000 	beq	100 <_start-0x7f00>
      fc:	68330604 	ldmdavs	r3!, {r2, r9, sl}
     100:	0b000001 	bleq	10c <_start-0x7ef4>
     104:	000000d1 	ldrdeq	r0, [r0], -r1
     108:	8082e880 	addhi	lr, r2, r0, lsl #17
     10c:	00c20b02 	sbceq	r0, r2, r2, lsl #22
     110:	e8800000 	stm	r0, {}	; <UNPREDICTABLE>
     114:	0b028082 	bleq	a0324 <__bss_end__+0x91ab4>
     118:	000003ff 	strdeq	r0, [r0], -pc	; <UNPREDICTABLE>
     11c:	8082e884 	addhi	lr, r2, r4, lsl #17
     120:	00b00b02 	adcseq	r0, r0, r2, lsl #22
     124:	e8880000 	stm	r8, {}	; <UNPREDICTABLE>
     128:	0b028082 	bleq	a0338 <__bss_end__+0x91ac8>
     12c:	0000040f 	andeq	r0, r0, pc, lsl #8
     130:	8082e88c 	addhi	lr, r2, ip, lsl #17
     134:	002d0b02 	eoreq	r0, sp, r2, lsl #22
     138:	e8900000 	ldm	r0, {}	; <UNPREDICTABLE>
     13c:	0b028082 	bleq	a034c <__bss_end__+0x91adc>
     140:	00000139 	andeq	r0, r0, r9, lsr r1
     144:	8082e894 	umullhi	lr, r2, r4, r8
     148:	025c0b02 	subseq	r0, ip, #2048	; 0x800
     14c:	e8980000 	ldm	r8, {}	; <UNPREDICTABLE>
     150:	0b028082 	bleq	a0360 <__bss_end__+0x91af0>
     154:	000003df 	ldrdeq	r0, [r0], -pc	; <UNPREDICTABLE>
     158:	8082e89c 	umullhi	lr, r2, ip, r8
     15c:	051c0b02 	ldreq	r0, [ip, #-2818]	; 0xb02
     160:	e8a00000 	stmia	r0!, {}	; <UNPREDICTABLE>
     164:	00028082 	andeq	r8, r2, r2, lsl #1
     168:	0003d903 	andeq	sp, r3, r3, lsl #18
     16c:	651c0100 	ldrvs	r0, [ip, #-256]	; 0x100
     170:	0c000000 	stceq	0, cr0, [r0], {-0}
     174:	28012014 	stmdacs	r1, {r2, r4, sp}
     178:	000001cd 	andeq	r0, r0, sp, asr #3
     17c:	00006f0d 	andeq	r6, r0, sp, lsl #30
     180:	de2a0100 	suflee	f0, f2, f0
     184:	00000001 	andeq	r0, r0, r1
     188:	0003ac0e 	andeq	sl, r3, lr, lsl #24
     18c:	372b0100 	strcc	r0, [fp, -r0, lsl #2]!
     190:	00000000 	andeq	r0, r0, r0
     194:	03420e20 	movteq	r0, #11808	; 0x2e20
     198:	2c010000 	stccs	0, cr0, [r1], {-0}
     19c:	000001e3 	andeq	r0, r0, r3, ror #3
     1a0:	240e2004 	strcs	r2, [lr], #-4
     1a4:	01000002 	tsteq	r0, r2
     1a8:	0001e32c 	andeq	lr, r1, ip, lsr #6
     1ac:	0e200800 	cdpeq	8, 2, cr0, cr0, cr0, {0}
     1b0:	000003c2 	andeq	r0, r0, r2, asr #7
     1b4:	01e32f01 	mvneq	r2, r1, lsl #30
     1b8:	200c0000 	andcs	r0, ip, r0
     1bc:	0000070f 	andeq	r0, r0, pc, lsl #14
     1c0:	37310100 	ldrcc	r0, [r1, -r0, lsl #2]!
     1c4:	04000000 	streq	r0, [r0], #-0
     1c8:	20101f01 	andscs	r1, r0, r1, lsl #30
     1cc:	01680800 	cmneq	r8, r0, lsl #16
     1d0:	01de0000 	bicseq	r0, lr, r0
     1d4:	8c100000 	ldchi	0, cr0, [r0], {-0}
     1d8:	ff000000 			; <UNDEFINED> instruction: 0xff000000
     1dc:	cd11001f 	ldcgt	0, cr0, [r1, #-124]	; 0xffffff84
     1e0:	11000001 	tstne	r0, r1
     1e4:	00000037 	andeq	r0, r0, r7, lsr r0
     1e8:	00042903 	andeq	r2, r4, r3, lsl #18
     1ec:	73320100 	teqvc	r2, #0, 2
     1f0:	12000001 	andne	r0, r0, #1
     1f4:	2a0e070c 	bcs	381e2c <__bss_end__+0x3735bc>
     1f8:	13000002 	movwne	r0, #2
     1fc:	07007874 	smlsdxeq	r0, r4, r8, r7
     200:	00005a0f 	andeq	r5, r0, pc, lsl #20
     204:	72130000 	andsvc	r0, r3, #0
     208:	0f070078 	svceq	0x00070078
     20c:	0000005a 	andeq	r0, r0, sl, asr r0
     210:	03500d01 	cmpeq	r0, #1, 26	; 0x40
     214:	10070000 	andne	r0, r7, r0
     218:	00000073 	andeq	r0, r0, r3, ror r0
     21c:	04e40d04 	strbteq	r0, [r4], #3332	; 0xd04
     220:	11070000 	mrsne	r0, (UNDEF: 7)
     224:	00000073 	andeq	r0, r0, r3, ror r0
     228:	ae030008 	cdpge	0, 0, cr0, cr3, cr8, {0}
     22c:	07000002 	streq	r0, [r0, -r2]
     230:	0001f312 	andeq	pc, r1, r2, lsl r3	; <UNPREDICTABLE>
     234:	00851400 	addeq	r1, r5, r0, lsl #8
     238:	39010000 	stmdbcc	r1, {}	; <UNPREDICTABLE>
     23c:	00000025 	andeq	r0, r0, r5, lsr #32
     240:	00024f03 	andeq	r4, r2, r3, lsl #30
     244:	00711500 	rsbseq	r1, r1, r0, lsl #10
     248:	024f3901 	subeq	r3, pc, #16384	; 0x4000
     24c:	06000000 	streq	r0, [r0], -r0
     250:	0001e804 	andeq	lr, r1, r4, lsl #16
     254:	05141400 	ldreq	r1, [r4, #-1024]	; 0x400
     258:	3c010000 	stccc	0, cr0, [r1], {-0}
     25c:	00000025 	andeq	r0, r0, r5, lsr #32
     260:	00026f03 	andeq	r6, r2, r3, lsl #30
     264:	00711500 	rsbseq	r1, r1, r0, lsl #10
     268:	024f3c01 	subeq	r3, pc, #256	; 0x100
     26c:	14000000 	strne	r0, [r0], #-0
     270:	0000019e 	muleq	r0, lr, r1
     274:	00373e01 	eorseq	r3, r7, r1, lsl #28
     278:	89030000 	stmdbhi	r3, {}	; <UNPREDICTABLE>
     27c:	15000002 	strne	r0, [r0, #-2]
     280:	3e010071 	mcrcc	0, 0, r0, cr1, cr1, {3}
     284:	0000024f 	andeq	r0, r0, pc, asr #4
     288:	024c1400 	subeq	r1, ip, #0, 8
     28c:	42010000 	andmi	r0, r1, #0
     290:	00000025 	andeq	r0, r0, r5, lsr #32
     294:	0002b703 	andeq	fp, r2, r3, lsl #14
     298:	00631500 	rsbeq	r1, r3, r0, lsl #10
     29c:	024f4201 	subeq	r4, pc, #268435456	; 0x10000000
     2a0:	65150000 	ldrvs	r0, [r5, #-0]
     2a4:	b7420100 	strblt	r0, [r2, -r0, lsl #2]
     2a8:	16000002 	strne	r0, [r0], -r2
     2ac:	00000224 	andeq	r0, r0, r4, lsr #4
     2b0:	00374501 	eorseq	r4, r7, r1, lsl #10
     2b4:	06000000 	streq	r0, [r0], -r0
     2b8:	00016804 	andeq	r6, r1, r4, lsl #16
     2bc:	03d11400 	bicseq	r1, r1, #0, 8
     2c0:	56010000 	strpl	r0, [r1], -r0
     2c4:	00000025 	andeq	r0, r0, r5, lsr #32
     2c8:	0002eb03 	andeq	lr, r2, r3, lsl #22
     2cc:	00631500 	rsbeq	r1, r3, r0, lsl #10
     2d0:	024f5601 	subeq	r5, pc, #1048576	; 0x100000
     2d4:	78150000 	ldmdavc	r5, {}	; <UNPREDICTABLE>
     2d8:	68560100 	ldmdavs	r6, {r8}^
     2dc:	16000001 	strne	r0, [r0], -r1
     2e0:	00000342 	andeq	r0, r0, r2, asr #6
     2e4:	00375701 	eorseq	r5, r7, r1, lsl #14
     2e8:	17000000 	strne	r0, [r0, -r0]
     2ec:	0000026d 	andeq	r0, r0, sp, ror #4
     2f0:	80109901 	andshi	r9, r0, r1, lsl #18
     2f4:	01b40000 			; <UNDEFINED> instruction: 0x01b40000
     2f8:	9c010000 	stcls	0, cr0, [r1], {-0}
     2fc:	000004fb 	strdeq	r0, [r0], -fp
     300:	01006318 	tsteq	r0, r8, lsl r3
     304:	00024f99 	muleq	r2, r9, pc	; <UNPREDICTABLE>
     308:	00000000 	andeq	r0, r0, r0
     30c:	00071900 	andeq	r1, r7, r0, lsl #18
     310:	99010000 	stmdbls	r1, {}	; <UNPREDICTABLE>
     314:	00000037 	andeq	r0, r0, r7, lsr r0
     318:	0000001e 	andeq	r0, r0, lr, lsl r0
     31c:	0001821a 	andeq	r8, r1, sl, lsl r2
     320:	0004fb00 	andeq	pc, r4, r0, lsl #22
     324:	44030500 	strmi	r0, [r3], #-1280	; 0x500
     328:	1b00009f 	blne	5ac <_start-0x7a54>
     32c:	a2010065 	andge	r0, r1, #101	; 0x65
     330:	00000168 	andeq	r0, r0, r8, ror #2
     334:	0000004a 	andeq	r0, r0, sl, asr #32
     338:	0002351c 	andeq	r3, r2, ip, lsl r5
     33c:	00806800 	addeq	r6, r0, r0, lsl #16
     340:	00000800 	andeq	r0, r0, r0, lsl #16
     344:	539f0100 	orrspl	r0, pc, #0, 2
     348:	1d000003 	stcne	0, cr0, [r0, #-12]
     34c:	00000245 	andeq	r0, r0, r5, asr #4
     350:	1c005401 	cfstrsne	mvf5, [r0], {1}
     354:	00000255 	andeq	r0, r0, r5, asr r2
     358:	00008094 	muleq	r0, r4, r0
     35c:	00000018 	andeq	r0, r0, r8, lsl r0
     360:	036ea001 	cmneq	lr, #1
     364:	651d0000 	ldrvs	r0, [sp, #-0]
     368:	01000002 	tsteq	r0, r2
     36c:	6f1c0054 	svcvs	0x001c0054
     370:	d0000002 	andle	r0, r0, r2
     374:	14000080 	strne	r0, [r0], #-128	; 0x80
     378:	01000000 	mrseq	r0, (UNDEF: 0)
     37c:	000389a1 	andeq	r8, r3, r1, lsr #19
     380:	027f1d00 	rsbseq	r1, pc, #0, 26
     384:	54010000 	strpl	r0, [r1], #-0
     388:	02891e00 	addeq	r1, r9, #0, 28
     38c:	81080000 	mrshi	r0, (UNDEF: 8)
     390:	00000000 	andeq	r0, r0, r0
     394:	a3010000 	movwge	r0, #4096	; 0x1000
     398:	000003d6 	ldrdeq	r0, [r0], -r6
     39c:	0002a21d 	andeq	sl, r2, sp, lsl r2
     3a0:	2bf20600 	blcs	ffc81ba8 <__bss_end__+0xffc73338>
     3a4:	00000003 	andeq	r0, r0, r3
     3a8:	0002991d 	andeq	r9, r2, sp, lsl r9
     3ac:	1f540100 	svcne	0x00540100
     3b0:	00000000 	andeq	r0, r0, r0
     3b4:	0002ab20 	andeq	sl, r2, r0, lsr #22
     3b8:	00008000 	andeq	r8, r0, r0
     3bc:	02352100 	eorseq	r2, r5, #0, 2
     3c0:	81080000 	mrshi	r0, (UNDEF: 8)
     3c4:	00100000 	andseq	r0, r0, r0
     3c8:	43010000 	movwmi	r0, #4096	; 0x1000
     3cc:	0002451d 	andeq	r4, r2, sp, lsl r5
     3d0:	00540100 	subseq	r0, r4, r0, lsl #2
     3d4:	28220000 	stmdacs	r2!, {}	; <UNPREDICTABLE>
     3d8:	c4000080 	strgt	r0, [r0], #-128	; 0x80
     3dc:	f600000c 			; <UNDEFINED> instruction: 0xf600000c
     3e0:	23000003 	movwcs	r0, #3
     3e4:	0a035201 	beq	d4bf0 <__bss_end__+0xc6380>
     3e8:	01232014 	teqeq	r3, r4, lsl r0
     3ec:	23300151 	teqcs	r0, #1073741844	; 0x40000014
     3f0:	74025001 	strvc	r5, [r2], #-1
     3f4:	7c240000 	stcvc	0, cr0, [r4], #-0
     3f8:	e3000080 	movw	r0, #128	; 0x80
     3fc:	2200000c 	andcs	r0, r0, #12
     400:	00008090 	muleq	r0, r0, r0
     404:	00000cea 	andeq	r0, r0, sl, ror #25
     408:	0000042e 	andeq	r0, r0, lr, lsr #8
     40c:	02530123 	subseq	r0, r3, #-1073741816	; 0xc0000008
     410:	01239f08 	teqeq	r3, r8, lsl #30
     414:	44030552 	strmi	r0, [r3], #-1362	; 0x552
     418:	2300009f 	movwcs	r0, #159	; 0x9f
     41c:	03055101 	movweq	r5, #20737	; 0x5101
     420:	00009f68 	andeq	r9, r0, r8, ror #30
     424:	05500123 	ldrbeq	r0, [r0, #-291]	; 0x123
     428:	009f4c03 	addseq	r4, pc, r3, lsl #24
     42c:	94240000 	strtls	r0, [r4], #-0
     430:	00000080 	andeq	r0, r0, r0, lsl #1
     434:	2400000d 	strcs	r0, [r0], #-13
     438:	000080b8 	strheq	r8, [r0], -r8	; <UNPREDICTABLE>
     43c:	00000ce3 	andeq	r0, r0, r3, ror #25
     440:	0080cc22 	addeq	ip, r0, r2, lsr #24
     444:	000cea00 	andeq	lr, ip, r0, lsl #20
     448:	00046f00 	andeq	r6, r4, r0, lsl #30
     44c:	53012300 	movwpl	r2, #4864	; 0x1300
     450:	23a00802 	movcs	r0, #131072	; 0x20000
     454:	03055201 	movweq	r5, #20993	; 0x5201
     458:	00009f44 	andeq	r9, r0, r4, asr #30
     45c:	05510123 	ldrbeq	r0, [r1, #-291]	; 0x123
     460:	009f6803 	addseq	r6, pc, r3, lsl #16
     464:	50012300 	andpl	r2, r1, r0, lsl #6
     468:	9fbc0305 	svcls	0x00bc0305
     46c:	24000000 	strcs	r0, [r0], #-0
     470:	000080d0 	ldrdeq	r8, [r0], -r0
     474:	00000d00 	andeq	r0, r0, r0, lsl #26
     478:	0080f024 	addeq	pc, r0, r4, lsr #32
     47c:	000ce300 	andeq	lr, ip, r0, lsl #6
     480:	81042200 	mrshi	r2, R12_usr
     484:	0cea0000 	stcleq	0, cr0, [sl]
     488:	04b00000 	ldrteq	r0, [r0], #0
     48c:	01230000 	teqeq	r3, r0
     490:	a1080253 	tstge	r8, r3, asr r2
     494:	05520123 	ldrbeq	r0, [r2, #-291]	; 0x123
     498:	009f4403 	addseq	r4, pc, r3, lsl #8
     49c:	51012300 	mrspl	r2, SP_irq
     4a0:	9f680305 	svcls	0x00680305
     4a4:	01230000 	teqeq	r3, r0
     4a8:	d8030550 	stmdale	r3, {r4, r6, r8, sl}
     4ac:	0000009f 	muleq	r0, pc, r0	; <UNPREDICTABLE>
     4b0:	00810824 	addeq	r0, r1, r4, lsr #16
     4b4:	000d0000 	andeq	r0, sp, r0
     4b8:	817c2400 	cmnhi	ip, r0, lsl #8
     4bc:	0ce30000 	stcleq	0, cr0, [r3]
     4c0:	90220000 	eorls	r0, r2, r0
     4c4:	ea000081 	b	6d0 <_start-0x7930>
     4c8:	f100000c 	cps	#12
     4cc:	23000004 	movwcs	r0, #4
     4d0:	08025301 	stmdaeq	r2, {r0, r8, r9, ip, lr}
     4d4:	520123a3 	andpl	r2, r1, #-1946157054	; 0x8c000002
     4d8:	9f440305 	svcls	0x00440305
     4dc:	01230000 	teqeq	r3, r0
     4e0:	68030551 	stmdavs	r3, {r0, r4, r6, r8, sl}
     4e4:	2300009f 	movwcs	r0, #159	; 0x9f
     4e8:	03055001 	movweq	r5, #20481	; 0x5001
     4ec:	00009ffc 	strdeq	r9, [r0], -ip
     4f0:	81942400 	orrshi	r2, r4, r0, lsl #8
     4f4:	0d000000 	stceq	0, cr0, [r0, #-0]
     4f8:	07000000 	streq	r0, [r0, -r0]
     4fc:	000000a7 	andeq	r0, r0, r7, lsr #1
     500:	0001f625 	andeq	pc, r1, r5, lsr #12
     504:	25350200 	ldrcs	r0, [r5, #-512]!	; 0x200
     508:	c4000000 	strgt	r0, [r0], #-0
     50c:	28000081 	stmdacs	r0, {r0, r7}
     510:	01000000 	mrseq	r0, (UNDEF: 0)
     514:	0005369c 	muleq	r5, ip, r6
     518:	02352100 	eorseq	r2, r5, #0, 2
     51c:	81c40000 	bichi	r0, r4, r0
     520:	00140000 	andseq	r0, r4, r0
     524:	36020000 	strcc	r0, [r2], -r0
     528:	0002451d 	andeq	r4, r2, sp, lsl r5
     52c:	2c030600 	stccs	6, cr0, [r3], {-0}
     530:	9f0000a4 	svcls	0x000000a4
     534:	69260000 	stmdbvs	r6!, {}	; <UNPREDICTABLE>
     538:	02000004 	andeq	r0, r0, #4
     53c:	0081ec39 	addeq	lr, r1, r9, lsr ip
     540:	00004800 	andeq	r4, r0, r0, lsl #16
     544:	c19c0100 	orrsgt	r0, ip, r0, lsl #2
     548:	19000005 	stmdbne	r0, {r0, r2}
     54c:	000000aa 	andeq	r0, r0, sl, lsr #1
     550:	00373902 	eorseq	r3, r7, r2, lsl #18
     554:	00a00000 	adceq	r0, r0, r0
     558:	44270000 	strtmi	r0, [r7], #-0
     55c:	02000002 	andeq	r0, r0, #2
     560:	0000373b 	andeq	r3, r0, fp, lsr r7
     564:	0000be00 	andeq	fp, r0, r0, lsl #28
     568:	81f82400 	mvnshi	r2, r0, lsl #8
     56c:	0d070000 	stceq	0, cr0, [r7, #-0]
     570:	00220000 	eoreq	r0, r2, r0
     574:	0e000082 	cdpeq	0, 0, cr0, cr0, cr2, {4}
     578:	8900000d 	stmdbhi	r0, {r0, r2, r3}
     57c:	23000005 	movwcs	r0, #5
     580:	0c055001 	stceq	0, cr5, [r5], {1}
     584:	20215044 	eorcs	r5, r1, r4, asr #32
     588:	82182200 	andshi	r2, r8, #0, 4
     58c:	0d2f0000 	stceq	0, cr0, [pc, #-0]	; 594 <_start-0x7a6c>
     590:	05a00000 	streq	r0, [r0, #0]!
     594:	01230000 	teqeq	r3, r0
     598:	440c0550 	strmi	r0, [ip], #-1360	; 0x550
     59c:	00202150 	eoreq	r2, r0, r0, asr r1
     5a0:	00822822 	addeq	r2, r2, r2, lsr #16
     5a4:	000d2f00 	andeq	r2, sp, r0, lsl #30
     5a8:	0005b700 	andeq	fp, r5, r0, lsl #14
     5ac:	50012300 	andpl	r2, r1, r0, lsl #6
     5b0:	50440c05 	subpl	r0, r4, r5, lsl #24
     5b4:	24002021 	strcs	r2, [r0], #-33	; 0x21
     5b8:	0000822c 	andeq	r8, r0, ip, lsr #4
     5bc:	00000d07 	andeq	r0, r0, r7, lsl #26
     5c0:	0c5f2600 	mrrceq	6, 0, r2, pc, cr0	; <UNPREDICTABLE>
     5c4:	49020000 	stmdbmi	r2, {}	; <UNPREDICTABLE>
     5c8:	00008234 	andeq	r8, r0, r4, lsr r2
     5cc:	00000148 	andeq	r0, r0, r8, asr #2
     5d0:	07399c01 	ldreq	r9, [r9, -r1, lsl #24]!
     5d4:	70180000 	andsvc	r0, r8, r0
     5d8:	49020063 	stmdbmi	r2, {r0, r1, r5, r6}
     5dc:	00000037 	andeq	r0, r0, r7, lsr r0
     5e0:	000000f2 	strdeq	r0, [r0], -r2
     5e4:	00024427 	andeq	r4, r2, r7, lsr #8
     5e8:	374c0200 	strbcc	r0, [ip, -r0, lsl #4]
     5ec:	13000000 	movwne	r0, #0
     5f0:	28000001 	stmdacs	r0, {r0}
     5f4:	0000824c 	andeq	r8, r0, ip, asr #4
     5f8:	0000003c 	andeq	r0, r0, ip, lsr r0
     5fc:	0000066b 	andeq	r0, r0, fp, ror #12
     600:	0002c627 	andeq	ip, r2, r7, lsr #12
     604:	37500200 	ldrbcc	r0, [r0, -r0, lsl #4]
     608:	47000000 	strmi	r0, [r0, -r0]
     60c:	1c000001 	stcne	0, cr0, [r0], {1}
     610:	000002bd 			; <UNDEFINED> instruction: 0x000002bd
     614:	00008254 	andeq	r8, r0, r4, asr r2
     618:	00000034 	andeq	r0, r0, r4, lsr r0
     61c:	06615202 	strbteq	r5, [r1], -r2, lsl #4
     620:	d6290000 	strtle	r0, [r9], -r0
     624:	5a000002 	bpl	634 <_start-0x79cc>
     628:	29000001 	stmdbcs	r0, {r0}
     62c:	000002cd 	andeq	r0, r0, sp, asr #5
     630:	0000016d 	andeq	r0, r0, sp, ror #2
     634:	0082542a 	addeq	r5, r2, sl, lsr #8
     638:	00003400 	andeq	r3, r0, r0, lsl #8
     63c:	02df2000 	sbcseq	r2, pc, #0
     640:	01850000 	orreq	r0, r5, r0
     644:	55210000 	strpl	r0, [r1, #-0]!
     648:	58000002 	stmdapl	r0, {r1}
     64c:	10000082 	andne	r0, r0, r2, lsl #1
     650:	01000000 	mrseq	r0, (UNDEF: 0)
     654:	02652958 	rsbeq	r2, r5, #88, 18	; 0x160000
     658:	01980000 	orrseq	r0, r8, r0
     65c:	00000000 	andeq	r0, r0, r0
     660:	82502400 	subshi	r2, r0, #0, 8
     664:	0d4b0000 	stcleq	0, cr0, [fp, #-0]
     668:	1c000000 	stcne	0, cr0, [r0], {-0}
     66c:	00000255 	andeq	r0, r0, r5, asr r2
     670:	00008288 	andeq	r8, r0, r8, lsl #5
     674:	0000001c 	andeq	r0, r0, ip, lsl r0
     678:	06884f02 	streq	r4, [r8], r2, lsl #30
     67c:	65290000 	strvs	r0, [r9, #-0]!
     680:	b0000002 	andlt	r0, r0, r2
     684:	00000001 	andeq	r0, r0, r1
     688:	0002891e 	andeq	r8, r2, lr, lsl r9
     68c:	0082d400 	addeq	sp, r2, r0, lsl #8
     690:	00001800 	andeq	r1, r0, r0, lsl #16
     694:	d6570200 	ldrble	r0, [r7], -r0, lsl #4
     698:	29000006 	stmdbcs	r0, {r1, r2}
     69c:	000002a2 	andeq	r0, r0, r2, lsr #5
     6a0:	000001d8 	ldrdeq	r0, [r0], -r8
     6a4:	00029929 	andeq	r9, r2, r9, lsr #18
     6a8:	00020000 	andeq	r0, r2, r0
     6ac:	00181f00 	andseq	r1, r8, r0, lsl #30
     6b0:	ab200000 	blge	8006b8 <__bss_end__+0x7f1e48>
     6b4:	28000002 	stmdacs	r0, {r1}
     6b8:	2b000002 	blcs	6c8 <_start-0x7938>
     6bc:	00000235 	andeq	r0, r0, r5, lsr r2
     6c0:	000082d4 	ldrdeq	r8, [r0], -r4
     6c4:	00000030 	andeq	r0, r0, r0, lsr r0
     6c8:	45294301 	strmi	r4, [r9, #-769]!	; 0x301
     6cc:	00000002 	andeq	r0, r0, r2
     6d0:	00000002 	andeq	r0, r0, r2
     6d4:	351c0000 	ldrcc	r0, [ip, #-0]
     6d8:	38000002 	stmdacc	r0, {r1}
     6dc:	14000083 	strne	r0, [r0], #-131	; 0x83
     6e0:	02000000 	andeq	r0, r0, #0
     6e4:	0006f65b 	andeq	pc, r6, fp, asr r6	; <UNPREDICTABLE>
     6e8:	02451d00 	subeq	r1, r5, #0, 26
     6ec:	03060000 	movweq	r0, #24576	; 0x6000
     6f0:	0000c444 	andeq	ip, r0, r4, asr #8
     6f4:	4022009f 	mlami	r2, pc, r0, r0	; <UNPREDICTABLE>
     6f8:	0e000082 	cdpeq	0, 0, cr0, cr0, cr2, {4}
     6fc:	0d00000d 	stceq	0, cr0, [r0, #-52]	; 0xffffffcc
     700:	23000007 	movwcs	r0, #7
     704:	0c055001 	stceq	0, cr5, [r5], {1}
     708:	20215048 	eorcs	r5, r1, r8, asr #32
     70c:	82b02400 	adcshi	r2, r0, #0, 8
     710:	0d560000 	ldcleq	0, cr0, [r6, #-0]
     714:	d0240000 	eorle	r0, r4, r0
     718:	61000082 	smlabbvs	r0, r2, r0, r0
     71c:	2400000d 	strcs	r0, [r0], #-13
     720:	000082ec 	andeq	r8, r0, ip, ror #5
     724:	00000d72 	andeq	r0, r0, r2, ror sp
     728:	00835c2c 	addeq	r5, r3, ip, lsr #24
     72c:	00053600 	andeq	r3, r5, r0, lsl #12
     730:	50012300 	andpl	r2, r1, r0, lsl #6
     734:	00007802 	andeq	r7, r0, r2, lsl #16
     738:	01ba2600 			; <UNDEFINED> instruction: 0x01ba2600
     73c:	61020000 	mrsvs	r0, (UNDEF: 2)
     740:	0000837c 	andeq	r8, r0, ip, ror r3
     744:	000000e0 	andeq	r0, r0, r0, ror #1
     748:	08519c01 	ldmdaeq	r1, {r0, sl, fp, ip, pc}^
     74c:	63180000 	tstvs	r8, #0
     750:	65610200 	strbvs	r0, [r1, #-512]!	; 0x200
     754:	4a000000 	bmi	75c <_start-0x78a4>
     758:	1b000002 	blne	768 <_start-0x7898>
     75c:	66020064 	strvs	r0, [r2], -r4, rrx
     760:	00000065 	andeq	r0, r0, r5, rrx
     764:	0000026b 	andeq	r0, r0, fp, ror #4
     768:	0002bd1c 	andeq	fp, r2, ip, lsl sp
     76c:	00838800 	addeq	r8, r3, r0, lsl #16
     770:	00004800 	andeq	r4, r0, r0, lsl #16
     774:	c0630200 	rsbgt	r0, r3, r0, lsl #4
     778:	29000007 	stmdbcs	r0, {r0, r1, r2}
     77c:	000002d6 	ldrdeq	r0, [r0], -r6
     780:	00000289 	andeq	r0, r0, r9, lsl #5
     784:	0002cd1d 	andeq	ip, r2, sp, lsl sp
     788:	44030600 	strmi	r0, [r3], #-1536	; 0x600
     78c:	9f0000c4 	svcls	0x000000c4
     790:	0083882a 	addeq	r8, r3, sl, lsr #16
     794:	00004800 	andeq	r4, r0, r0, lsl #16
     798:	02df2000 	sbcseq	r2, pc, #0
     79c:	029c0000 	addseq	r0, ip, #0
     7a0:	55210000 	strpl	r0, [r1, #-0]!
     7a4:	94000002 	strls	r0, [r0], #-2
     7a8:	14000083 	strne	r0, [r0], #-131	; 0x83
     7ac:	01000000 	mrseq	r0, (UNDEF: 0)
     7b0:	02651d58 	rsbeq	r1, r5, #88, 26	; 0x1600
     7b4:	03060000 	movweq	r0, #24576	; 0x6000
     7b8:	0000c444 	andeq	ip, r0, r4, asr #8
     7bc:	0000009f 	muleq	r0, pc, r0	; <UNPREDICTABLE>
     7c0:	0002891e 	andeq	r8, r2, lr, lsl r9
     7c4:	0083d800 	addeq	sp, r3, r0, lsl #16
     7c8:	00004800 	andeq	r4, r0, r0, lsl #16
     7cc:	0e670200 	cdpeq	2, 6, cr0, cr7, cr0, {0}
     7d0:	29000008 	stmdbcs	r0, {r3}
     7d4:	000002a2 	andeq	r0, r0, r2, lsr #5
     7d8:	000002be 			; <UNDEFINED> instruction: 0x000002be
     7dc:	00029929 	andeq	r9, r2, r9, lsr #18
     7e0:	0002e600 	andeq	lr, r2, r0, lsl #12
     7e4:	00481f00 	subeq	r1, r8, r0, lsl #30
     7e8:	ab200000 	blge	8007f0 <__bss_end__+0x7f1f80>
     7ec:	0e000002 	cdpeq	0, 0, cr0, cr0, cr2, {0}
     7f0:	2b000003 	blcs	804 <_start-0x77fc>
     7f4:	00000235 	andeq	r0, r0, r5, lsr r2
     7f8:	000083d8 	ldrdeq	r8, [r0], -r8	; <UNPREDICTABLE>
     7fc:	00000060 	andeq	r0, r0, r0, rrx
     800:	45294301 	strmi	r4, [r9, #-769]!	; 0x301
     804:	e6000002 	str	r0, [r0], -r2
     808:	00000002 	andeq	r0, r0, r2
     80c:	88240000 	stmdahi	r4!, {}	; <UNPREDICTABLE>
     810:	7d000083 	stcvc	0, cr0, [r0, #-524]	; 0xfffffdf4
     814:	2200000d 	andcs	r0, r0, #13
     818:	000083d8 	ldrdeq	r8, [r0], -r8	; <UNPREDICTABLE>
     81c:	00000536 	andeq	r0, r0, r6, lsr r5
     820:	0000082a 	andeq	r0, r0, sl, lsr #16
     824:	01500123 	cmpeq	r0, r3, lsr #2
     828:	f8220031 			; <UNDEFINED> instruction: 0xf8220031
     82c:	61000083 	smlabbvs	r0, r3, r0, r0
     830:	3e00000d 	cdpcc	0, 0, cr0, cr0, cr13, {0}
     834:	23000008 	movwcs	r0, #8
     838:	76025001 	strvc	r5, [r2], -r1
     83c:	fc240000 	stc2	0, cr0, [r4], #-0
     840:	72000083 	andvc	r0, r0, #131	; 0x83
     844:	2400000d 	strcs	r0, [r0], #-13
     848:	0000844c 	andeq	r8, r0, ip, asr #8
     84c:	00000d84 	andeq	r0, r0, r4, lsl #27
     850:	01072500 	tsteq	r7, r0, lsl #10
     854:	6e020000 	cdpvs	0, 0, cr0, cr2, cr0, {0}
     858:	00000025 	andeq	r0, r0, r5, lsr #32
     85c:	0000845c 	andeq	r8, r0, ip, asr r4
     860:	00000088 	andeq	r0, r0, r8, lsl #1
     864:	08fe9c01 	ldmeq	lr!, {r0, sl, fp, ip, pc}^
     868:	3d270000 	stccc	0, cr0, [r7, #-0]
     86c:	02000003 	andeq	r0, r0, #3
     870:	00006571 	andeq	r6, r0, r1, ror r5
     874:	00033000 	andeq	r3, r3, r0
     878:	02351c00 	eorseq	r1, r5, #0, 24
     87c:	84640000 	strbthi	r0, [r4], #-0
     880:	00140000 	andseq	r0, r4, r0
     884:	72020000 	andvc	r0, r2, #0
     888:	00000899 	muleq	r0, r9, r8
     88c:	0002451d 	andeq	r4, r2, sp, lsl r5
     890:	2c030600 	stccs	6, cr0, [r3], {-0}
     894:	9f0000a4 	svcls	0x000000a4
     898:	02891c00 	addeq	r1, r9, #0, 24
     89c:	84800000 	strhi	r0, [r0], #0
     8a0:	00400000 	subeq	r0, r0, r0
     8a4:	73020000 	movwvc	r0, #8192	; 0x2000
     8a8:	000008eb 	andeq	r0, r0, fp, ror #17
     8ac:	0002a229 	andeq	sl, r2, r9, lsr #4
     8b0:	00036800 	andeq	r6, r3, r0, lsl #16
     8b4:	02992900 	addseq	r2, r9, #0, 18
     8b8:	03900000 	orrseq	r0, r0, #0
     8bc:	802a0000 	eorhi	r0, sl, r0
     8c0:	40000084 	andmi	r0, r0, r4, lsl #1
     8c4:	20000000 	andcs	r0, r0, r0
     8c8:	000002ab 	andeq	r0, r0, fp, lsr #5
     8cc:	000003b8 			; <UNDEFINED> instruction: 0x000003b8
     8d0:	00023521 	andeq	r3, r2, r1, lsr #10
     8d4:	00848000 	addeq	r8, r4, r0
     8d8:	00001000 	andeq	r1, r0, r0
     8dc:	29430100 	stmdbcs	r3, {r8}^
     8e0:	00000245 	andeq	r0, r0, r5, asr #4
     8e4:	00000390 	muleq	r0, r0, r3
     8e8:	24000000 	strcs	r0, [r0], #-0
     8ec:	00008464 	andeq	r8, r0, r4, ror #8
     8f0:	00000d7d 	andeq	r0, r0, sp, ror sp
     8f4:	0084d024 	addeq	sp, r4, r4, lsr #32
     8f8:	000d8400 	andeq	r8, sp, r0, lsl #8
     8fc:	0c260000 	stceq	0, cr0, [r6], #-0
     900:	02000005 	andeq	r0, r0, #5
     904:	0084e47a 	addeq	lr, r4, sl, ror r4
     908:	00002400 	andeq	r2, r0, r0, lsl #8
     90c:	2c9c0100 	ldfcss	f0, [ip], {0}
     910:	18000009 	stmdane	r0, {r0, r3}
     914:	00727473 	rsbseq	r7, r2, r3, ror r4
     918:	009c7a02 	addseq	r7, ip, r2, lsl #20
     91c:	03da0000 	bicseq	r0, sl, #0
     920:	f4240000 	vld4.8	{d0-d3}, [r4], r0
     924:	39000084 	stmdbcc	r0, {r2, r7}
     928:	00000007 	andeq	r0, r0, r7
     92c:	00003e26 	andeq	r3, r0, r6, lsr #28
     930:	087f0200 	ldmdaeq	pc!, {r9}^	; <UNPREDICTABLE>
     934:	bc000085 	stclt	0, cr0, [r0], {133}	; 0x85
     938:	01000000 	mrseq	r0, (UNDEF: 0)
     93c:	000a809c 	muleq	sl, ip, r0
     940:	85102400 	ldrhi	r2, [r0, #-1024]	; 0x400
     944:	0d070000 	stceq	0, cr0, [r7, #-0]
     948:	1c220000 	stcne	0, cr0, [r2], #-0
     94c:	8b000085 	blhi	b68 <_start-0x7498>
     950:	6200000d 	andvs	r0, r0, #13
     954:	23000009 	movwcs	r0, #9
     958:	32015101 	andcc	r5, r1, #1073741824	; 0x40000000
     95c:	01500123 	cmpeq	r0, r3, lsr #2
     960:	2822003e 	stmdacs	r2!, {r1, r2, r3, r4, r5}
     964:	8b000085 	blhi	b80 <_start-0x7480>
     968:	7a00000d 	bvc	9a4 <_start-0x765c>
     96c:	23000009 	movwcs	r0, #9
     970:	32015101 	andcc	r5, r1, #1073741824	; 0x40000000
     974:	01500123 	cmpeq	r0, r3, lsr #2
     978:	2c24003f 	stccs	0, cr0, [r4], #-252	; 0xffffff04
     97c:	07000085 	streq	r0, [r0, -r5, lsl #1]
     980:	2200000d 	andcs	r0, r0, #13
     984:	00008538 	andeq	r8, r0, r8, lsr r5
     988:	00000d0e 	andeq	r0, r0, lr, lsl #26
     98c:	00000997 	muleq	r0, r7, r9
     990:	02500123 	subseq	r0, r0, #-1073741816	; 0xc0000008
     994:	22000074 	andcs	r0, r0, #116	; 0x74
     998:	00008544 	andeq	r8, r0, r4, asr #10
     99c:	00000d2f 	andeq	r0, r0, pc, lsr #26
     9a0:	000009ab 	andeq	r0, r0, fp, lsr #19
     9a4:	02500123 	subseq	r0, r0, #-1073741816	; 0xc0000008
     9a8:	24000074 	strcs	r0, [r0], #-116	; 0x74
     9ac:	00008548 	andeq	r8, r0, r8, asr #10
     9b0:	00000d07 	andeq	r0, r0, r7, lsl #26
     9b4:	00855822 	addeq	r5, r5, r2, lsr #16
     9b8:	000d2f00 	andeq	r2, sp, r0, lsl #30
     9bc:	0009cd00 	andeq	ip, r9, r0, lsl #26
     9c0:	51012300 	mrspl	r2, SP_irq
     9c4:	01233001 	teqeq	r3, r1
     9c8:	00740250 	rsbseq	r0, r4, r0, asr r2
     9cc:	85642200 	strbhi	r2, [r4, #-512]!	; 0x200
     9d0:	0d2f0000 	stceq	0, cr0, [pc, #-0]	; 9d8 <_start-0x7628>
     9d4:	09e90000 	stmibeq	r9!, {}^	; <UNPREDICTABLE>
     9d8:	01230000 	teqeq	r3, r0
     9dc:	23330151 	teqcs	r3, #1073741844	; 0x40000014
     9e0:	0c055001 	stceq	0, cr5, [r5], {1}
     9e4:	20215044 	eorcs	r5, r1, r4, asr #32
     9e8:	85702200 	ldrbhi	r2, [r0, #-512]!	; 0x200
     9ec:	0d2f0000 	stceq	0, cr0, [pc, #-0]	; 9f4 <_start-0x760c>
     9f0:	0a050000 	beq	1409f8 <__bss_end__+0x132188>
     9f4:	01230000 	teqeq	r3, r0
     9f8:	23360151 	teqcs	r6, #1073741844	; 0x40000014
     9fc:	0c055001 	stceq	0, cr5, [r5], {1}
     a00:	20215048 	eorcs	r5, r1, r8, asr #32
     a04:	857c2200 	ldrbhi	r2, [ip, #-512]!	; 0x200
     a08:	0d2f0000 	stceq	0, cr0, [pc, #-0]	; a10 <_start-0x75f0>
     a0c:	0a210000 	beq	840a14 <__bss_end__+0x8321a4>
     a10:	01230000 	teqeq	r3, r0
     a14:	23330151 	teqcs	r3, #1073741844	; 0x40000014
     a18:	0c055001 	stceq	0, cr5, [r5], {1}
     a1c:	2021504c 	eorcs	r5, r1, ip, asr #32
     a20:	85882200 	strhi	r2, [r8, #512]	; 0x200
     a24:	0d2f0000 	stceq	0, cr0, [pc, #-0]	; a2c <_start-0x75d4>
     a28:	0a3f0000 	beq	fc0a30 <__bss_end__+0xfb21c0>
     a2c:	01230000 	teqeq	r3, r0
     a30:	0e0a0351 	mcreq	3, 0, r0, cr10, cr1, {2}
     a34:	50012301 	andpl	r2, r1, r1, lsl #6
     a38:	50680c05 	rsbpl	r0, r8, r5, lsl #24
     a3c:	22002021 	andcs	r2, r0, #33	; 0x21
     a40:	00008594 	muleq	r0, r4, r5
     a44:	00000d2f 	andeq	r0, r0, pc, lsr #26
     a48:	00000a58 	andeq	r0, r0, r8, asr sl
     a4c:	01510123 	cmpeq	r1, r3, lsr #2
     a50:	50012333 	andpl	r2, r1, r3, lsr r3
     a54:	00007402 	andeq	r7, r0, r2, lsl #8
     a58:	0085a022 	addeq	sl, r5, r2, lsr #32
     a5c:	000d2f00 	andeq	r2, sp, r0, lsl #30
     a60:	000a7600 	andeq	r7, sl, r0, lsl #12
     a64:	51012300 	mrspl	r2, SP_irq
     a68:	24494003 	strbcs	r4, [r9], #-3
     a6c:	05500123 	ldrbeq	r0, [r0, #-291]	; 0x123
     a70:	00b2100c 	adcseq	r1, r2, ip
     a74:	a4240020 	strtge	r0, [r4], #-32
     a78:	07000085 	streq	r0, [r0, -r5, lsl #1]
     a7c:	0000000d 	andeq	r0, r0, sp
     a80:	0000252d 	andeq	r2, r0, sp, lsr #10
     a84:	c49a0200 	ldrgt	r0, [sl], #512	; 0x200
     a88:	74000085 	strvc	r0, [r0], #-133	; 0x85
     a8c:	01000000 	mrseq	r0, (UNDEF: 0)
     a90:	000b499c 	muleq	fp, ip, r9
     a94:	85cc2400 	strbhi	r2, [ip, #1024]	; 0x400
     a98:	0da10000 	stceq	0, cr0, [r1]
     a9c:	d0240000 	eorle	r0, r4, r0
     aa0:	2c000085 	stccs	0, cr0, [r0], {133}	; 0x85
     aa4:	22000009 	andcs	r0, r0, #9
     aa8:	000085dc 	ldrdeq	r8, [r0], -ip
     aac:	000002eb 	andeq	r0, r0, fp, ror #5
     ab0:	00000ac3 	andeq	r0, r0, r3, asr #21
     ab4:	01510123 	cmpeq	r1, r3, lsr #2
     ab8:	50012331 	andpl	r2, r1, r1, lsr r3
     abc:	a42c0305 	strtge	r0, [ip], #-773	; 0x305
     ac0:	22000000 	andcs	r0, r0, #0
     ac4:	000085e8 	andeq	r8, r0, r8, ror #11
     ac8:	000002eb 	andeq	r0, r0, fp, ror #5
     acc:	00000adf 	ldrdeq	r0, [r0], -pc	; <UNPREDICTABLE>
     ad0:	01510123 	cmpeq	r1, r3, lsr #2
     ad4:	50012331 	andpl	r2, r1, r1, lsr r3
     ad8:	c4440305 	strbgt	r0, [r4], #-773	; 0x305
     adc:	22000000 	andcs	r0, r0, #0
     ae0:	000085f4 	strdeq	r8, [r0], -r4
     ae4:	00000d2f 	andeq	r0, r0, pc, lsr #26
     ae8:	00000afb 	strdeq	r0, [r0], -fp
     aec:	01510123 	cmpeq	r1, r3, lsr #2
     af0:	5001233d 	andpl	r2, r1, sp, lsr r3
     af4:	50400c05 	subpl	r0, r0, r5, lsl #24
     af8:	24002021 	strcs	r2, [r0], #-33	; 0x21
     afc:	000085f8 	strdeq	r8, [r0], -r8	; <UNPREDICTABLE>
     b00:	00000d07 	andeq	r0, r0, r7, lsl #26
     b04:	0085fc24 	addeq	pc, r5, r4, lsr #24
     b08:	000d8400 	andeq	r8, sp, r0, lsl #8
     b0c:	86002400 	strhi	r2, [r0], -r0, lsl #8
     b10:	0d070000 	stceq	0, cr0, [r7, #-0]
     b14:	08220000 	stmdaeq	r2!, {}	; <UNPREDICTABLE>
     b18:	fe000086 	cdp2	0, 0, cr0, cr0, cr6, {4}
     b1c:	2d000008 	stccs	0, cr0, [r0, #-32]	; 0xffffffe0
     b20:	2300000b 	movwcs	r0, #11
     b24:	03055001 	movweq	r5, #20481	; 0x5001
     b28:	0000a034 	andeq	sl, r0, r4, lsr r0
     b2c:	86102400 	ldrhi	r2, [r0], -r0, lsl #8
     b30:	08510000 	ldmdaeq	r1, {}^	; <UNPREDICTABLE>
     b34:	18240000 	stmdane	r4!, {}	; <UNPREDICTABLE>
     b38:	39000086 	stmdbcc	r0, {r1, r2, r7}
     b3c:	24000007 	strcs	r0, [r0], #-7
     b40:	0000861c 	andeq	r8, r0, ip, lsl r6
     b44:	00000500 	andeq	r0, r0, r0, lsl #10
     b48:	02a62e00 	adceq	r2, r6, #0, 28
     b4c:	0d020000 	stceq	0, cr0, [r2, #-0]
     b50:	00000b58 	andeq	r0, r0, r8, asr fp
     b54:	20215000 	eorcs	r5, r1, r0
     b58:	01e30406 	mvneq	r0, r6, lsl #8
     b5c:	fb2e0000 	blx	b80b66 <__bss_end__+0xb722f6>
     b60:	02000000 	andeq	r0, r0, #0
     b64:	000b6d0e 	andeq	r6, fp, lr, lsl #26
     b68:	21500400 	cmpcs	r0, r0, lsl #8
     b6c:	0b580720 	bleq	16027f4 <__bss_end__+0x15f3f84>
     b70:	4d2e0000 	stcmi	0, cr0, [lr, #-0]
     b74:	02000001 	andeq	r0, r0, #1
     b78:	000b8111 	andeq	r8, fp, r1, lsl r1
     b7c:	21504000 	cmpcs	r0, r0
     b80:	0b580720 	bleq	1602808 <__bss_end__+0x15f3f98>
     b84:	082e0000 	stmdaeq	lr!, {}	; <UNPREDICTABLE>
     b88:	02000002 	andeq	r0, r0, #2
     b8c:	000b9512 	andeq	r9, fp, r2, lsl r5
     b90:	21504400 	cmpcs	r0, r0, lsl #8
     b94:	0b580720 	bleq	160281c <__bss_end__+0x15f3fac>
     b98:	7e2e0000 	cdpvc	0, 2, cr0, cr14, cr0, {0}
     b9c:	02000002 	andeq	r0, r0, #2
     ba0:	000ba913 	andeq	sl, fp, r3, lsl r9
     ba4:	21504800 	cmpcs	r0, r0, lsl #16
     ba8:	0b580720 	bleq	1602830 <__bss_end__+0x15f3fc0>
     bac:	8f2e0000 	svchi	0x002e0000
     bb0:	02000001 	andeq	r0, r0, #1
     bb4:	000bbd14 	andeq	fp, fp, r4, lsl sp
     bb8:	21504c00 	cmpcs	r0, r0, lsl #24
     bbc:	0b580720 	bleq	1602844 <__bss_end__+0x15f3fd4>
     bc0:	d52e0000 	strle	r0, [lr, #-0]!
     bc4:	02000004 	andeq	r0, r0, #4
     bc8:	000b5815 	andeq	r5, fp, r5, lsl r8
     bcc:	21505000 	cmpcs	r0, r0
     bd0:	00ec2e20 	rsceq	r2, ip, r0, lsr #28
     bd4:	16020000 	strne	r0, [r2], -r0
     bd8:	00000b58 	andeq	r0, r0, r8, asr fp
     bdc:	20215054 	eorcs	r5, r1, r4, asr r0
     be0:	0001c82e 	andeq	ip, r1, lr, lsr #16
     be4:	58170200 	ldmdapl	r7, {r9}
     be8:	5800000b 	stmdapl	r0, {r0, r1, r3}
     bec:	2e202150 	mcrcs	1, 1, r2, cr0, cr0, {2}
     bf0:	00000016 	andeq	r0, r0, r6, lsl r0
     bf4:	0b581802 	bleq	1606c04 <__bss_end__+0x15f8394>
     bf8:	505c0000 	subspl	r0, ip, r0
     bfc:	b22e2021 	eorlt	r2, lr, #33	; 0x21
     c00:	02000003 	andeq	r0, r0, #3
     c04:	000c0d19 	andeq	r0, ip, r9, lsl sp
     c08:	21506000 	cmpcs	r0, r0
     c0c:	0b580720 	bleq	1602894 <__bss_end__+0x15f4024>
     c10:	d82e0000 	stmdale	lr!, {}	; <UNPREDICTABLE>
     c14:	02000002 	andeq	r0, r0, #2
     c18:	000b581a 	andeq	r5, fp, sl, lsl r8
     c1c:	21506400 	cmpcs	r0, r0, lsl #8
     c20:	01722e20 	cmneq	r2, r0, lsr #28
     c24:	1b020000 	blne	80c2c <__bss_end__+0x723bc>
     c28:	00000c30 	andeq	r0, r0, r0, lsr ip
     c2c:	20215068 	eorcs	r5, r1, r8, rrx
     c30:	000b5807 	andeq	r5, fp, r7, lsl #16
     c34:	01dc2e00 	bicseq	r2, ip, r0, lsl #28
     c38:	1c020000 	stcne	0, cr0, [r2], {-0}
     c3c:	00000c44 	andeq	r0, r0, r4, asr #24
     c40:	2000b210 	andcs	fp, r0, r0, lsl r2
     c44:	000b5807 	andeq	r5, fp, r7, lsl #16
     c48:	01e92e00 	mvneq	r2, r0, lsl #28
     c4c:	1d020000 	stcne	0, cr0, [r2, #-0]
     c50:	00000b58 	andeq	r0, r0, r8, asr fp
     c54:	2000b214 	andcs	fp, r0, r4, lsl r2
     c58:	00012b2f 	andeq	r2, r1, pc, lsr #22
     c5c:	e31e0200 	tst	lr, #0, 4
     c60:	05000001 	streq	r0, [r0, #-1]
     c64:	00e45803 	rsceq	r5, r4, r3, lsl #16
     c68:	016a1600 	cmneq	sl, r0, lsl #12
     c6c:	21020000 	mrscs	r0, (UNDEF: 2)
     c70:	0000022a 	andeq	r0, r0, sl, lsr #4
     c74:	0001d72f 	andeq	sp, r1, pc, lsr #14
     c78:	e8220200 	stmda	r2!, {r9}
     c7c:	05000001 	streq	r0, [r0, #-1]
     c80:	00c44403 	sbceq	r4, r4, r3, lsl #8
     c84:	01342f00 	teqeq	r4, r0, lsl #30
     c88:	23020000 	movwcs	r0, #8192	; 0x2000
     c8c:	000001e8 	andeq	r0, r0, r8, ror #3
     c90:	a42c0305 	strtge	r0, [ip], #-773	; 0x305
     c94:	c6300000 	ldrtgt	r0, [r0], -r0
     c98:	02000002 	andeq	r0, r0, #2
     c9c:	00006545 	andeq	r6, r0, r5, asr #10
     ca0:	152f0000 	strne	r0, [pc, #-0]!	; ca8 <_start-0x7358>
     ca4:	02000001 	andeq	r0, r0, #1
     ca8:	00006546 	andeq	r6, r0, r6, asr #10
     cac:	40030500 	andmi	r0, r3, r0, lsl #10
     cb0:	310000c4 	smlabtcc	r0, r4, r0, r0
     cb4:	0000042e 	andeq	r0, r0, lr, lsr #8
     cb8:	00fb8006 	rscseq	r8, fp, r6
     cbc:	03050000 	movweq	r0, #20480	; 0x5000
     cc0:	0000e868 	andeq	lr, r0, r8, ror #16
     cc4:	00042232 	andeq	r2, r4, r2, lsr r2
     cc8:	931b0800 	tstls	fp, #0, 16
     ccc:	e3000000 	movw	r0, #0
     cd0:	3300000c 	movwcc	r0, #12
     cd4:	00000093 	muleq	r0, r3, r0
     cd8:	00002533 	andeq	r2, r0, r3, lsr r5
     cdc:	002c3300 	eoreq	r3, ip, r0, lsl #6
     ce0:	34000000 	strcc	r0, [r0], #-0
     ce4:	0000015b 	andeq	r0, r0, fp, asr r1
     ce8:	ab321e09 	blge	c88514 <__bss_end__+0xc79ca4>
     cec:	09000005 	stmdbeq	r0, {r0, r2}
     cf0:	00002529 	andeq	r2, r0, r9, lsr #10
     cf4:	000d0000 	andeq	r0, sp, r0
     cf8:	009c3300 	addseq	r3, ip, r0, lsl #6
     cfc:	00350000 	eorseq	r0, r5, r0
     d00:	00021734 	andeq	r1, r2, r4, lsr r7
     d04:	34660900 	strbtcc	r0, [r6], #-2304	; 0x900
     d08:	000000e0 	andeq	r0, r0, r0, ror #1
     d0c:	57328709 	ldrpl	r8, [r2, -r9, lsl #14]!
     d10:	09000004 	stmdbeq	r0, {r2}
     d14:	000037a6 	andeq	r3, r0, r6, lsr #15
     d18:	000d2300 	andeq	r2, sp, r0, lsl #6
     d1c:	0d233300 	stceq	3, cr3, [r3, #-0]
     d20:	06000000 	streq	r0, [r0], -r0
     d24:	000d2904 	andeq	r2, sp, r4, lsl #18
     d28:	0d2e0700 	stceq	7, cr0, [lr, #-0]
     d2c:	37360000 	ldrcc	r0, [r6, -r0]!
     d30:	000003cb 	andeq	r0, r0, fp, asr #7
     d34:	0d459a09 	vstreq	s19, [r5, #-36]	; 0xffffffdc
     d38:	45330000 	ldrmi	r0, [r3, #-0]!
     d3c:	3300000d 	movwcc	r0, #13
     d40:	00000037 	andeq	r0, r0, r7, lsr r0
     d44:	2e040600 	cfmadd32cs	mvax0, mvfx0, mvfx4, mvfx0
     d48:	3800000d 	stmdacc	r0, {r0, r2, r3}
     d4c:	00000a51 	andeq	r0, r0, r1, asr sl
     d50:	00253b09 	eoreq	r3, r5, r9, lsl #22
     d54:	9c380000 	ldcls	0, cr0, [r8], #-0
     d58:	09000000 	stmdbeq	r0, {}	; <UNPREDICTABLE>
     d5c:	00002546 	andeq	r2, r0, r6, asr #10
     d60:	072a3700 	streq	r3, [sl, -r0, lsl #14]!
     d64:	3c090000 	stccc	0, cr0, [r9], {-0}
     d68:	00000d72 	andeq	r0, r0, r2, ror sp
     d6c:	00003733 	andeq	r3, r0, r3, lsr r7
     d70:	1d380000 	ldcne	0, cr0, [r8, #-0]
     d74:	09000001 	stmdbeq	r0, {r0}
     d78:	00002544 	andeq	r2, r0, r4, asr #10
     d7c:	04f23400 	ldrbteq	r3, [r2], #1024	; 0x400
     d80:	320a0000 	andcc	r0, sl, #0
     d84:	00028d34 	andeq	r8, r2, r4, lsr sp
     d88:	37310a00 	ldrcc	r0, [r1, -r0, lsl #20]!
     d8c:	00000232 	andeq	r0, r0, r2, lsr r2
     d90:	0da11905 	stceq	9, cr1, [r1, #20]!
     d94:	37330000 	ldrcc	r0, [r3, -r0]!
     d98:	33000000 	movwcc	r0, #0
     d9c:	000000f0 	strdeq	r0, [r0], -r0	; <UNPREDICTABLE>
     da0:	02753400 	rsbseq	r3, r5, #0, 8
     da4:	330a0000 	movwcc	r0, #40960	; 0xa000
     da8:	0000db00 	andeq	sp, r0, r0, lsl #22
     dac:	fe000400 	cdp2	4, 0, cr0, cr0, cr0, {0}
     db0:	04000002 	streq	r0, [r0], #-2
     db4:	00035501 	andeq	r5, r3, r1, lsl #10
     db8:	05390100 	ldreq	r0, [r9, #-256]!	; 0x100
     dbc:	05470000 	strbeq	r0, [r7, #-0]
     dc0:	86380000 	ldrthi	r0, [r8], -r0
     dc4:	00200000 	eoreq	r0, r0, r0
     dc8:	03e00000 	mvneq	r0, #0
     dcc:	01020000 	mrseq	r0, (UNDEF: 2)
     dd0:	0002ba06 	andeq	fp, r2, r6, lsl #20
     dd4:	08010200 	stmdaeq	r1, {r9}
     dd8:	000002b8 			; <UNDEFINED> instruction: 0x000002b8
     ddc:	ce050202 	cdpgt	2, 0, cr0, cr5, cr2, {0}
     de0:	02000002 	andeq	r0, r0, #2
     de4:	01a70702 			; <UNDEFINED> instruction: 0x01a70702
     de8:	04030000 	streq	r0, [r3], #-0
     dec:	746e6905 	strbtvc	r6, [lr], #-2309	; 0x905
     df0:	07040200 	streq	r0, [r4, -r0, lsl #4]
     df4:	00000062 	andeq	r0, r0, r2, rrx
     df8:	8e050802 	cdphi	8, 0, cr0, cr5, cr2, {0}
     dfc:	02000000 	andeq	r0, r0, #0
     e00:	00580708 	subseq	r0, r8, r8, lsl #14
     e04:	04020000 	streq	r0, [r2], #-0
     e08:	00009305 	andeq	r9, r0, r5, lsl #6
     e0c:	07040200 	streq	r0, [r4, -r0, lsl #4]
     e10:	00000229 	andeq	r0, r0, r9, lsr #4
     e14:	04020404 	streq	r0, [r2], #-1028	; 0x404
     e18:	00005d07 	andeq	r5, r0, r7, lsl #26
     e1c:	7a040500 	bvc	102224 <__bss_end__+0xf39b4>
     e20:	02000000 	andeq	r0, r0, #0
     e24:	02c10801 	sbceq	r0, r1, #65536	; 0x10000
     e28:	00060000 	andeq	r0, r6, r0
     e2c:	02000000 	andeq	r0, r0, #0
     e30:	000048d4 	ldrdeq	r4, [r0], -r4	; <UNPREDICTABLE>
     e34:	04220700 	strteq	r0, [r2], #-1792	; 0x700
     e38:	1b030000 	blne	c0e40 <__bss_end__+0xb25d0>
     e3c:	0000006b 	andeq	r0, r0, fp, rrx
     e40:	00008638 	andeq	r8, r0, r8, lsr r6
     e44:	00000020 	andeq	r0, r0, r0, lsr #32
     e48:	5f089c01 	svcpl	0x00089c01
     e4c:	03010070 	movweq	r0, #4208	; 0x1070
     e50:	0000006b 	andeq	r0, r0, fp, rrx
     e54:	63085001 	movwvs	r5, #32769	; 0x8001
     e58:	41030100 	mrsmi	r0, (UNDEF: 19)
     e5c:	01000000 	mrseq	r0, (UNDEF: 0)
     e60:	006e0951 	rsbeq	r0, lr, r1, asr r9
     e64:	00810301 	addeq	r0, r1, r1, lsl #6
     e68:	03f80000 	mvnseq	r0, #0
     e6c:	700a0000 	andvc	r0, sl, r0
     e70:	74040100 	strvc	r0, [r4], #-256	; 0x100
     e74:	19000000 	stmdbne	r0, {}	; <UNPREDICTABLE>
     e78:	0b000004 	bleq	e90 <_start-0x7170>
     e7c:	04010065 	streq	r0, [r1], #-101	; 0x65
     e80:	00000074 	andeq	r0, r0, r4, ror r0
     e84:	00005201 	andeq	r5, r0, r1, lsl #4
     e88:	00000191 	muleq	r0, r1, r1
     e8c:	039b0004 	orrseq	r0, fp, #4
     e90:	01040000 	mrseq	r0, (UNDEF: 4)
     e94:	00000355 	andeq	r0, r0, r5, asr r3
     e98:	00059a01 	andeq	r9, r5, r1, lsl #20
     e9c:	00054700 	andeq	r4, r5, r0, lsl #14
     ea0:	00865800 	addeq	r5, r6, r0, lsl #16
     ea4:	00005800 	andeq	r5, r0, r0, lsl #16
     ea8:	0004d000 	andeq	sp, r4, r0
     eac:	058b0200 	streq	r0, [fp, #512]	; 0x200
     eb0:	28020000 	stmdacs	r2, {}	; <UNPREDICTABLE>
     eb4:	00000030 	andeq	r0, r0, r0, lsr r0
     eb8:	0005b203 	andeq	fp, r5, r3, lsl #4
     ebc:	00030400 	andeq	r0, r3, r0, lsl #8
     ec0:	00000047 	andeq	r0, r0, r7, asr #32
     ec4:	0005c104 	andeq	ip, r5, r4, lsl #2
     ec8:	00004700 	andeq	r4, r0, r0, lsl #14
     ecc:	05000000 	streq	r0, [r0, #-0]
     ed0:	05b40204 	ldreq	r0, [r4, #516]!	; 0x204
     ed4:	62020000 	andvs	r0, r2, #0
     ed8:	00000025 	andeq	r0, r0, r5, lsr #32
     edc:	69050406 	stmdbvs	r5, {r1, r2, sl}
     ee0:	0700746e 	streq	r7, [r0, -lr, ror #8]
     ee4:	00620704 	rsbeq	r0, r2, r4, lsl #14
     ee8:	01070000 	mrseq	r0, (UNDEF: 7)
     eec:	0002ba06 	andeq	fp, r2, r6, lsl #20
     ef0:	05020700 	streq	r0, [r2, #-1792]	; 0x700
     ef4:	000002ce 	andeq	r0, r0, lr, asr #5
     ef8:	93050407 	movwls	r0, #21511	; 0x5407
     efc:	07000000 	streq	r0, [r0, -r0]
     f00:	008e0508 	addeq	r0, lr, r8, lsl #10
     f04:	01070000 	mrseq	r0, (UNDEF: 7)
     f08:	0002b808 	andeq	fp, r2, r8, lsl #16
     f0c:	07020700 	streq	r0, [r2, -r0, lsl #14]
     f10:	000001a7 	andeq	r0, r0, r7, lsr #3
     f14:	5d070407 	cfstrspl	mvf0, [r7, #-28]	; 0xffffffe4
     f18:	07000000 	streq	r0, [r0, -r0]
     f1c:	00580708 	subseq	r0, r8, r8, lsl #14
     f20:	04070000 	streq	r0, [r7], #-0
     f24:	00022907 	andeq	r2, r2, r7, lsl #18
     f28:	a7040800 	strge	r0, [r4, -r0, lsl #16]
     f2c:	07000000 	streq	r0, [r0, -r0]
     f30:	02c10801 	sbceq	r0, r1, #65536	; 0x10000
     f34:	04080000 	streq	r0, [r8], #-0
     f38:	000000b4 	strheq	r0, [r0], -r4
     f3c:	0000a709 	andeq	sl, r0, r9, lsl #14
     f40:	05ab0a00 	streq	r0, [fp, #2560]!	; 0xa00
     f44:	06010000 	streq	r0, [r1], -r0
     f48:	00000054 	andeq	r0, r0, r4, asr r0
     f4c:	00008658 	andeq	r8, r0, r8, asr r6
     f50:	00000058 	andeq	r0, r0, r8, asr r0
     f54:	01439c01 	cmpeq	r3, r1, lsl #24
     f58:	660b0000 	strvs	r0, [fp], -r0
     f5c:	0100746d 	tsteq	r0, sp, ror #8
     f60:	0000ae06 	andeq	sl, r0, r6, lsl #28
     f64:	70910200 	addsvc	r0, r1, r0, lsl #4
     f68:	75620d0c 	strbvc	r0, [r2, #-3340]!	; 0xd0c
     f6c:	08010066 	stmdaeq	r1, {r1, r2, r5, r6}
     f70:	00000143 	andeq	r0, r0, r3, asr #2
     f74:	e45c0305 	ldrb	r0, [ip], #-773	; 0x305
     f78:	bc0e0000 	stclt	0, cr0, [lr], {-0}
     f7c:	01000005 	tsteq	r0, r5
     f80:	00004909 	andeq	r4, r0, r9, lsl #18
     f84:	5c910200 	lfmpl	f0, 4, [r1], {0}
     f88:	007a730f 	rsbseq	r7, sl, pc, lsl #6
     f8c:	00540c01 	subseq	r0, r4, r1, lsl #24
     f90:	04440000 	strbeq	r0, [r4], #-0
     f94:	80100000 	andshi	r0, r0, r0
     f98:	74000086 	strvc	r0, [r0], #-134	; 0x86
     f9c:	36000001 	strcc	r0, [r0], -r1
     fa0:	11000001 	tstne	r0, r1
     fa4:	91025301 	tstls	r2, r1, lsl #6
     fa8:	5201114c 	andpl	r1, r1, #76, 2
     fac:	06489103 	strbeq	r9, [r8], -r3, lsl #2
     fb0:	03510111 	cmpeq	r1, #1073741828	; 0x40000004
     fb4:	1104000a 	tstne	r4, sl
     fb8:	74025001 	strvc	r5, [r2], #-1
     fbc:	94120000 	ldrls	r0, [r2], #-0
     fc0:	11000086 	smlabbne	r0, r6, r0, r0
     fc4:	74025001 	strvc	r5, [r2], #-1
     fc8:	13000000 	movwne	r0, #0
     fcc:	000000a7 	andeq	r0, r0, r7, lsr #1
     fd0:	00000154 	andeq	r0, r0, r4, asr r1
     fd4:	00009a14 	andeq	r9, r0, r4, lsl sl
     fd8:	0003ff00 	andeq	pc, r3, r0, lsl #30
     fdc:	00005415 	andeq	r5, r0, r5, lsl r4
     fe0:	00016300 	andeq	r6, r1, r0, lsl #6
     fe4:	00ae1600 	adceq	r1, lr, r0, lsl #12
     fe8:	17000000 	strne	r0, [r0, -r0]
     fec:	00000614 	andeq	r0, r0, r4, lsl r6
     ff0:	016e2204 	cmneq	lr, r4, lsl #4
     ff4:	04080000 	streq	r0, [r8], #-0
     ff8:	00000154 	andeq	r0, r0, r4, asr r1
     ffc:	0005a818 	andeq	sl, r5, r8, lsl r8
    1000:	54020500 	strpl	r0, [r2], #-1280	; 0x500
    1004:	16000000 	strne	r0, [r0], -r0
    1008:	000000a1 	andeq	r0, r0, r1, lsr #1
    100c:	00005416 	andeq	r5, r0, r6, lsl r4
    1010:	00ae1600 	adceq	r1, lr, r0, lsl #12
    1014:	49160000 	ldmdbmi	r6, {}	; <UNPREDICTABLE>
    1018:	00000000 	andeq	r0, r0, r0
    101c:	00011300 	andeq	r1, r1, r0, lsl #6
    1020:	cc000400 	cfstrsgt	mvf0, [r0], {-0}
    1024:	04000004 	streq	r0, [r0], #-4
    1028:	00035501 	andeq	r5, r3, r1, lsl #10
    102c:	05e30100 	strbeq	r0, [r3, #256]!	; 0x100
    1030:	05470000 	strbeq	r0, [r7, #-0]
    1034:	86b00000 	ldrthi	r0, [r0], r0
    1038:	003c0000 	eorseq	r0, ip, r0
    103c:	05d60000 	ldrbeq	r0, [r6]
    1040:	04020000 	streq	r0, [r2], #-0
    1044:	746e6905 	strbtvc	r6, [lr], #-2309	; 0x905
    1048:	07040300 	streq	r0, [r4, -r0, lsl #6]
    104c:	00000062 	andeq	r0, r0, r2, rrx
    1050:	ba060103 	blt	181464 <__bss_end__+0x172bf4>
    1054:	03000002 	movweq	r0, #2
    1058:	02ce0502 	sbceq	r0, lr, #8388608	; 0x800000
    105c:	04030000 	streq	r0, [r3], #-0
    1060:	00009305 	andeq	r9, r0, r5, lsl #6
    1064:	05080300 	streq	r0, [r8, #-768]	; 0x300
    1068:	0000008e 	andeq	r0, r0, lr, lsl #1
    106c:	b8080103 	stmdalt	r8, {r0, r1, r8}
    1070:	03000002 	movweq	r0, #2
    1074:	01a70702 			; <UNDEFINED> instruction: 0x01a70702
    1078:	04030000 	streq	r0, [r3], #-0
    107c:	00005d07 	andeq	r5, r0, r7, lsl #26
    1080:	07080300 	streq	r0, [r8, -r0, lsl #6]
    1084:	00000058 	andeq	r0, r0, r8, asr r0
    1088:	29070403 	stmdbcs	r7, {r0, r1, sl}
    108c:	03000002 	movweq	r0, #2
    1090:	02c10801 	sbceq	r0, r1, #65536	; 0x10000
    1094:	c6040000 	strgt	r0, [r4], -r0
    1098:	01000005 	tsteq	r0, r5
    109c:	00002503 	andeq	r2, r0, r3, lsl #10
    10a0:	0086b000 	addeq	fp, r6, r0
    10a4:	00001400 	andeq	r1, r0, r0, lsl #8
    10a8:	b09c0100 	addslt	r0, ip, r0, lsl #2
    10ac:	05000000 	streq	r0, [r0, #-0]
    10b0:	03010063 	movweq	r0, #4195	; 0x1063
    10b4:	00000025 	andeq	r0, r0, r5, lsr #32
    10b8:	0000046d 	andeq	r0, r0, sp, ror #8
    10bc:	0086bc06 	addeq	fp, r6, r6, lsl #24
    10c0:	00010900 	andeq	r0, r1, r0, lsl #18
    10c4:	50010700 	andpl	r0, r1, r0, lsl #14
    10c8:	00007402 	andeq	r7, r0, r2, lsl #8
    10cc:	015b0800 	cmpeq	fp, r0, lsl #16
    10d0:	08010000 	stmdaeq	r1, {}	; <UNPREDICTABLE>
    10d4:	000086c4 	andeq	r8, r0, r4, asr #13
    10d8:	00000018 	andeq	r0, r0, r8, lsl r0
    10dc:	f2099c01 			; <UNDEFINED> instruction: 0xf2099c01
    10e0:	01000005 	tsteq	r0, r5
    10e4:	0086dc0b 	addeq	sp, r6, fp, lsl #24
    10e8:	00001000 	andeq	r1, r0, r0
    10ec:	e39c0100 	orrs	r0, ip, #0, 2
    10f0:	0a000000 	beq	10f8 <_start-0x6f08>
    10f4:	01007066 	tsteq	r0, r6, rrx
    10f8:	0000f20b 	andeq	pc, r0, fp, lsl #4
    10fc:	00500100 	subseq	r0, r0, r0, lsl #2
    1100:	0000250b 	andeq	r2, r0, fp, lsl #10
    1104:	0000f200 	andeq	pc, r0, r0, lsl #4
    1108:	00250c00 	eoreq	r0, r5, r0, lsl #24
    110c:	0d000000 	stceq	0, cr0, [r0, #-0]
    1110:	0000e304 	andeq	lr, r0, r4, lsl #6
    1114:	05d70e00 	ldrbeq	r0, [r7, #3584]	; 0xe00
    1118:	06010000 	streq	r0, [r1], -r0
    111c:	000000f2 	strdeq	r0, [r0], -r2
    1120:	9ea80305 	cdpls	3, 10, cr0, cr8, cr5, {0}
    1124:	2a0f0000 	bcs	3c112c <__bss_end__+0x3b28bc>
    1128:	02000007 	andeq	r0, r0, #7
    112c:	002c0c3c 	eoreq	r0, ip, ip, lsr ip
    1130:	00000000 	andeq	r0, r0, r0
    1134:	000000ee 	andeq	r0, r0, lr, ror #1
    1138:	05b40004 	ldreq	r0, [r4, #4]!
    113c:	01040000 	mrseq	r0, (UNDEF: 4)
    1140:	00000355 	andeq	r0, r0, r5, asr r3
    1144:	0005ff01 	andeq	pc, r5, r1, lsl #30
    1148:	00054700 	andeq	r4, r5, r0, lsl #14
    114c:	0086ec00 	addeq	lr, r6, r0, lsl #24
    1150:	00003400 	andeq	r3, r0, r0, lsl #8
    1154:	00066400 	andeq	r6, r6, r0, lsl #8
    1158:	05040200 	streq	r0, [r4, #-512]	; 0x200
    115c:	00746e69 	rsbseq	r6, r4, r9, ror #28
    1160:	62070403 	andvs	r0, r7, #50331648	; 0x3000000
    1164:	03000000 	movweq	r0, #0
    1168:	02ba0601 	adcseq	r0, sl, #1048576	; 0x100000
    116c:	02030000 	andeq	r0, r3, #0
    1170:	0002ce05 	andeq	ip, r2, r5, lsl #28
    1174:	05040300 	streq	r0, [r4, #-768]	; 0x300
    1178:	00000093 	muleq	r0, r3, r0
    117c:	8e050803 	cdphi	8, 0, cr0, cr5, cr3, {0}
    1180:	03000000 	movweq	r0, #0
    1184:	02b80801 	adcseq	r0, r8, #65536	; 0x10000
    1188:	02030000 	andeq	r0, r3, #0
    118c:	0001a707 	andeq	sl, r1, r7, lsl #14
    1190:	07040300 	streq	r0, [r4, -r0, lsl #6]
    1194:	0000005d 	andeq	r0, r0, sp, asr r0
    1198:	58070803 	stmdapl	r7, {r0, r1, fp}
    119c:	03000000 	movweq	r0, #0
    11a0:	02290704 	eoreq	r0, r9, #4, 14	; 0x100000
    11a4:	01030000 	mrseq	r0, (UNDEF: 3)
    11a8:	0002c108 	andeq	ip, r2, r8, lsl #2
    11ac:	7f040400 	svcvc	0x00040400
    11b0:	05000000 	streq	r0, [r0, #-0]
    11b4:	00000072 	andeq	r0, r0, r2, ror r0
    11b8:	00060b06 	andeq	r0, r6, r6, lsl #22
    11bc:	25040100 	strcs	r0, [r4, #-256]	; 0x100
    11c0:	ec000000 	stc	0, cr0, [r0], {-0}
    11c4:	34000086 	strcc	r0, [r0], #-134	; 0x86
    11c8:	01000000 	mrseq	r0, (UNDEF: 0)
    11cc:	0000ab9c 	muleq	r0, ip, fp
    11d0:	00700700 	rsbseq	r0, r0, r0, lsl #14
    11d4:	00790401 	rsbseq	r0, r9, r1, lsl #8
    11d8:	048b0000 	streq	r0, [fp], #0
    11dc:	08000000 	stmdaeq	r0, {}	; <UNPREDICTABLE>
    11e0:	00000025 	andeq	r0, r0, r5, lsr #32
    11e4:	000000ba 	strheq	r0, [r0], -sl
    11e8:	00002509 	andeq	r2, r0, r9, lsl #10
    11ec:	d70a0000 	strle	r0, [sl, -r0]
    11f0:	02000005 	andeq	r0, r0, #5
    11f4:	0000c51d 	andeq	ip, r0, sp, lsl r5
    11f8:	ab040400 	blge	102200 <__bss_end__+0xf3990>
    11fc:	08000000 	stmdaeq	r0, {}	; <UNPREDICTABLE>
    1200:	00000025 	andeq	r0, r0, r5, lsr #32
    1204:	000000da 	ldrdeq	r0, [r0], -sl
    1208:	00007909 	andeq	r7, r0, r9, lsl #18
    120c:	140b0000 	strne	r0, [fp], #-0
    1210:	01000006 	tsteq	r0, r6
    1214:	0000eb0c 	andeq	lr, r0, ip, lsl #22
    1218:	ac030500 	cfstr32ge	mvfx0, [r3], {-0}
    121c:	0400009e 	streq	r0, [r0], #-158	; 0x9e
    1220:	0000cb04 	andeq	ip, r0, r4, lsl #22
    1224:	06810000 	streq	r0, [r1], r0
    1228:	00040000 	andeq	r0, r4, r0
    122c:	0000064d 	andeq	r0, r0, sp, asr #12
    1230:	03550104 	cmpeq	r5, #4, 2
    1234:	45010000 	strmi	r0, [r1, #-0]
    1238:	47000006 	strmi	r0, [r0, -r6]
    123c:	20000005 	andcs	r0, r0, r5
    1240:	f8000087 			; <UNDEFINED> instruction: 0xf8000087
    1244:	fe000004 	cdp2	0, 0, cr0, cr0, cr4, {0}
    1248:	02000006 	andeq	r0, r0, #6
    124c:	6e690504 	cdpvs	5, 6, cr0, cr9, cr4, {0}
    1250:	04030074 	streq	r0, [r3], #-116	; 0x74
    1254:	00006207 	andeq	r6, r0, r7, lsl #4
    1258:	06010300 	streq	r0, [r1], -r0, lsl #6
    125c:	000002ba 			; <UNDEFINED> instruction: 0x000002ba
    1260:	ce050203 	cdpgt	2, 0, cr0, cr5, cr3, {0}
    1264:	03000002 	movweq	r0, #2
    1268:	00930504 	addseq	r0, r3, r4, lsl #10
    126c:	08030000 	stmdaeq	r3, {}	; <UNPREDICTABLE>
    1270:	00008e05 	andeq	r8, r0, r5, lsl #28
    1274:	08010300 	stmdaeq	r1, {r8, r9}
    1278:	000002b8 			; <UNDEFINED> instruction: 0x000002b8
    127c:	a7070203 	strge	r0, [r7, -r3, lsl #4]
    1280:	03000001 	movweq	r0, #1
    1284:	005d0704 	subseq	r0, sp, r4, lsl #14
    1288:	08030000 	stmdaeq	r3, {}	; <UNPREDICTABLE>
    128c:	00005807 	andeq	r5, r0, r7, lsl #16
    1290:	07040300 	streq	r0, [r4, -r0, lsl #6]
    1294:	00000229 	andeq	r0, r0, r9, lsr #4
    1298:	04050404 	streq	r0, [r5], #-1028	; 0x404
    129c:	0000007a 	andeq	r0, r0, sl, ror r0
    12a0:	c1080103 	tstgt	r8, r3, lsl #2
    12a4:	05000002 	streq	r0, [r0, #-2]
    12a8:	00008704 	andeq	r8, r0, r4, lsl #14
    12ac:	007a0600 	rsbseq	r0, sl, r0, lsl #12
    12b0:	8b070000 	blhi	1c12b8 <__bss_end__+0x1b2a48>
    12b4:	02000005 	andeq	r0, r0, #5
    12b8:	00009728 	andeq	r9, r0, r8, lsr #14
    12bc:	05b20800 	ldreq	r0, [r2, #2048]!	; 0x800
    12c0:	04040000 	streq	r0, [r4], #-0
    12c4:	0000ae00 	andeq	sl, r0, r0, lsl #28
    12c8:	05c10900 	strbeq	r0, [r1, #2304]	; 0x900
    12cc:	00720000 	rsbseq	r0, r2, r0
    12d0:	00000000 	andeq	r0, r0, r0
    12d4:	0005b407 	andeq	fp, r5, r7, lsl #8
    12d8:	8c620200 	sfmhi	f0, 2, [r2], #-0
    12dc:	0a000000 	beq	12e4 <_start-0x6d1c>
    12e0:	00000627 	andeq	r0, r0, r7, lsr #12
    12e4:	00252701 	eoreq	r2, r5, r1, lsl #14
    12e8:	87200000 	strhi	r0, [r0, -r0]!
    12ec:	00140000 	andseq	r0, r4, r0
    12f0:	9c010000 	stcls	0, cr0, [r1], {-0}
    12f4:	000000e0 	andeq	r0, r0, r0, ror #1
    12f8:	0100630b 	tsteq	r0, fp, lsl #6
    12fc:	00002527 	andeq	r2, r0, r7, lsr #10
    1300:	0004a900 	andeq	sl, r4, r0, lsl #18
    1304:	700c0000 	andvc	r0, ip, r0
    1308:	01006461 	tsteq	r0, r1, ror #8
    130c:	0000742e 	andeq	r7, r0, lr, lsr #8
    1310:	00873400 	addeq	r3, r7, r0, lsl #8
    1314:	00002c00 	andeq	r2, r0, r0, lsl #24
    1318:	309c0100 	addscc	r0, ip, r0, lsl #2
    131c:	0b000001 	bleq	1328 <_start-0x6cd8>
    1320:	2e010070 	mcrcs	0, 0, r0, cr1, cr0, {3}
    1324:	00000074 	andeq	r0, r0, r4, ror r0
    1328:	000004d7 	ldrdeq	r0, [r0], -r7
    132c:	0006370d 	andeq	r3, r6, sp, lsl #14
    1330:	742e0100 	strtvc	r0, [lr], #-256	; 0x100
    1334:	02000000 	andeq	r0, r0, #0
    1338:	0e000005 	cdpeq	0, 0, cr0, cr0, cr5, {0}
    133c:	00000665 	andeq	r0, r0, r5, ror #12
    1340:	00252e01 	eoreq	r2, r5, r1, lsl #28
    1344:	52010000 	andpl	r0, r1, #0
    1348:	6e656c0f 	cdpvs	12, 6, cr6, cr5, cr15, {0}
    134c:	252f0100 	strcs	r0, [pc, #-256]!	; 1254 <_start-0x6dac>
    1350:	01000000 	mrseq	r0, (UNDEF: 0)
    1354:	1f0a0051 	svcne	0x000a0051
    1358:	01000006 	tsteq	r0, r6
    135c:	00007437 	andeq	r7, r0, r7, lsr r4
    1360:	00876000 	addeq	r6, r7, r0
    1364:	00004000 	andeq	r4, r0, r0
    1368:	9c9c0100 	ldflss	f0, [ip], {0}
    136c:	0b000001 	bleq	1378 <_start-0x6c88>
    1370:	00747364 	rsbseq	r7, r4, r4, ror #6
    1374:	00743701 	rsbseq	r3, r4, r1, lsl #14
    1378:	05230000 	streq	r0, [r3, #-0]!
    137c:	6e0b0000 	cdpvs	0, 0, cr0, cr11, cr0, {0}
    1380:	25370100 	ldrcs	r0, [r7, #-256]!	; 0x100
    1384:	5b000000 	blpl	138c <_start-0x6c74>
    1388:	0b000005 	bleq	13a4 <_start-0x6c5c>
    138c:	37010070 	smlsdxcc	r1, r0, r0, r0
    1390:	00000074 	andeq	r0, r0, r4, ror r0
    1394:	0000057c 	andeq	r0, r0, ip, ror r5
    1398:	0007160d 	andeq	r1, r7, sp, lsl #12
    139c:	74370100 	ldrtvc	r0, [r7], #-256	; 0x100
    13a0:	b2000000 	andlt	r0, r0, #0
    13a4:	10000005 	andne	r0, r0, r5
    13a8:	006e656c 	rsbeq	r6, lr, ip, ror #10
    13ac:	00253901 	eoreq	r3, r5, r1, lsl #18
    13b0:	05d00000 	ldrbeq	r0, [r0]
    13b4:	730f0000 	movwvc	r0, #61440	; 0xf000
    13b8:	743d0100 	ldrtvc	r0, [sp], #-256	; 0x100
    13bc:	01000000 	mrseq	r0, (UNDEF: 0)
    13c0:	730a0050 	movwvc	r0, #41040	; 0xa050
    13c4:	01000006 	tsteq	r0, r6
    13c8:	00007447 	andeq	r7, r0, r7, asr #8
    13cc:	0087a000 	addeq	sl, r7, r0
    13d0:	00019c00 	andeq	r9, r1, r0, lsl #24
    13d4:	d39c0100 	orrsle	r0, ip, #0, 2
    13d8:	0d000002 	stceq	0, cr0, [r0, #-8]
    13dc:	00000637 	andeq	r0, r0, r7, lsr r6
    13e0:	002c4701 	eoreq	r4, ip, r1, lsl #14
    13e4:	05f70000 	ldrbeq	r0, [r7, #0]!
    13e8:	640b0000 	strvs	r0, [fp], #-0
    13ec:	01007473 	tsteq	r0, r3, ror r4
    13f0:	00007447 	andeq	r7, r0, r7, asr #8
    13f4:	00062500 	andeq	r2, r6, r0, lsl #10
    13f8:	006e0b00 	rsbeq	r0, lr, r0, lsl #22
    13fc:	00254701 	eoreq	r4, r5, r1, lsl #14
    1400:	06930000 	ldreq	r0, [r3], r0
    1404:	760b0000 	strvc	r0, [fp], -r0
    1408:	01006c61 	tsteq	r0, r1, ror #24
    140c:	00002547 	andeq	r2, r0, r7, asr #10
    1410:	0006bf00 	andeq	fp, r6, r0, lsl #30
    1414:	06650d00 	strbteq	r0, [r5], -r0, lsl #26
    1418:	47010000 	strmi	r0, [r1, -r0]
    141c:	00000025 	andeq	r0, r0, r5, lsr #32
    1420:	0000073e 	andeq	r0, r0, lr, lsr r7
    1424:	00063c0e 	andeq	r3, r6, lr, lsl #24
    1428:	25470100 	strbcs	r0, [r7, #-256]	; 0x100
    142c:	02000000 	andeq	r0, r0, #0
    1430:	620f0491 	andvs	r0, pc, #-1862270976	; 0x91000000
    1434:	01006675 	tsteq	r0, r5, ror r6
    1438:	0002d34c 	andeq	sp, r2, ip, asr #6
    143c:	a8910300 	ldmge	r1, {r8, r9}
    1440:	0070107f 	rsbseq	r1, r0, pc, ror r0
    1444:	00744c01 	rsbseq	r4, r4, r1, lsl #24
    1448:	07680000 	strbeq	r0, [r8, -r0]!
    144c:	75100000 	ldrvc	r0, [r0, #-0]
    1450:	2c4d0100 	stfcse	f0, [sp], {-0}
    1454:	0d000000 	stceq	0, cr0, [r0, #-0]
    1458:	11000008 	tstne	r0, r8
    145c:	00000182 	andeq	r0, r0, r2, lsl #3
    1460:	000002f3 	strdeq	r0, [r0], -r3
    1464:	a05c0305 	subsge	r0, ip, r5, lsl #6
    1468:	0c120000 	ldceq	0, cr0, [r2], {-0}
    146c:	74000088 	strvc	r0, [r0], #-136	; 0x88
    1470:	61000000 	mrsvs	r0, (UNDEF: 0)
    1474:	13000002 	movwne	r0, #2
    1478:	00000619 	andeq	r0, r0, r9, lsl r6
    147c:	002c5201 	eoreq	r5, ip, r1, lsl #4
    1480:	09120000 	ldmdbeq	r2, {}	; <UNPREDICTABLE>
    1484:	14000000 	strne	r0, [r0], #-0
    1488:	000088e0 	andeq	r8, r0, r0, ror #17
    148c:	00000660 	andeq	r0, r0, r0, ror #12
    1490:	0088f415 	addeq	pc, r8, r5, lsl r4	; <UNPREDICTABLE>
    1494:	00066700 	andeq	r6, r6, r0, lsl #14
    1498:	00029900 	andeq	r9, r2, r0, lsl #18
    149c:	53011600 	movwpl	r1, #5632	; 0x1600
    14a0:	16750802 	ldrbtne	r0, [r5], -r2, lsl #16
    14a4:	03055201 	movweq	r5, #20993	; 0x5201
    14a8:	0000a05c 	andeq	sl, r0, ip, asr r0
    14ac:	05510116 	ldrbeq	r0, [r1, #-278]	; 0x116
    14b0:	00a09403 	adceq	r9, r0, r3, lsl #8
    14b4:	50011600 	andpl	r1, r1, r0, lsl #12
    14b8:	a0800305 	addge	r0, r0, r5, lsl #6
    14bc:	14000000 	strne	r0, [r0], #-0
    14c0:	000088f8 	strdeq	r8, [r0], -r8	; <UNPREDICTABLE>
    14c4:	0000067d 	andeq	r0, r0, sp, ror r6
    14c8:	00890415 	addeq	r0, r9, r5, lsl r4
    14cc:	0000e000 	andeq	lr, r0, r0
    14d0:	0002b600 	andeq	fp, r2, r0, lsl #12
    14d4:	51011600 	tstpl	r1, r0, lsl #12
    14d8:	00007d02 	andeq	r7, r0, r2, lsl #26
    14dc:	00891817 	addeq	r1, r9, r7, lsl r8
    14e0:	00013000 	andeq	r3, r1, r0
    14e4:	53011600 	movwpl	r1, #5632	; 0x1600
    14e8:	16007d02 	strne	r7, [r0], -r2, lsl #26
    14ec:	74025101 	strvc	r5, [r2], #-257	; 0x101
    14f0:	50011600 	andpl	r1, r1, r0, lsl #12
    14f4:	00007502 	andeq	r7, r0, r2, lsl #10
    14f8:	007a1800 	rsbseq	r1, sl, r0, lsl #16
    14fc:	02e30000 	rsceq	r0, r3, #0
    1500:	6b190000 	blvs	641508 <__bss_end__+0x632c98>
    1504:	3f000000 	svccc	0x00000000
    1508:	007a1800 	rsbseq	r1, sl, r0, lsl #16
    150c:	02f30000 	rscseq	r0, r3, #0
    1510:	6b190000 	blvs	641518 <__bss_end__+0x632ca8>
    1514:	04000000 	streq	r0, [r0], #-0
    1518:	02e30600 	rsceq	r0, r3, #0, 12
    151c:	561a0000 	ldrpl	r0, [sl], -r0
    1520:	01000006 	tsteq	r0, r6
    1524:	00893c1f 	addeq	r3, r9, pc, lsl ip
    1528:	00005400 	andeq	r5, r0, r0, lsl #8
    152c:	7c9c0100 	ldfvcs	f0, [ip], {0}
    1530:	0d000003 	stceq	0, cr0, [r0, #-12]
    1534:	0000066b 	andeq	r0, r0, fp, ror #12
    1538:	038b1f01 	orreq	r1, fp, #1, 30
    153c:	093e0000 	ldmdbeq	lr!, {}	; <UNPREDICTABLE>
    1540:	2f0d0000 	svccs	0x000d0000
    1544:	01000006 	tsteq	r0, r6
    1548:	0003a01f 	andeq	sl, r3, pc, lsl r0
    154c:	00096a00 	andeq	r6, r9, r0, lsl #20
    1550:	01821100 	orreq	r1, r2, r0, lsl #2
    1554:	03b60000 			; <UNDEFINED> instruction: 0x03b60000
    1558:	03050000 	movweq	r0, #20480	; 0x5000
    155c:	0000a064 	andeq	sl, r0, r4, rrx
    1560:	00894c14 	addeq	r4, r9, r4, lsl ip
    1564:	00066000 	andeq	r6, r6, r0
    1568:	89601500 	stmdbhi	r0!, {r8, sl, ip}^
    156c:	06670000 	strbteq	r0, [r7], -r0
    1570:	03720000 	cmneq	r2, #0
    1574:	01160000 	tsteq	r6, r0
    1578:	20080253 	andcs	r0, r8, r3, asr r2
    157c:	05520116 	ldrbeq	r0, [r2, #-278]	; 0x116
    1580:	00a06403 	adceq	r6, r0, r3, lsl #8
    1584:	51011600 	tstpl	r1, r0, lsl #12
    1588:	a0940305 	addsge	r0, r4, r5, lsl #6
    158c:	01160000 	tsteq	r6, r0
    1590:	cc030550 	cfstr32gt	mvfx0, [r3], {80}	; 0x50
    1594:	000000a0 	andeq	r0, r0, r0, lsr #1
    1598:	00896414 	addeq	r6, r9, r4, lsl r4
    159c:	00067d00 	andeq	r7, r6, r0, lsl #26
    15a0:	251b0000 	ldrcs	r0, [fp, #-0]
    15a4:	8b000000 	blhi	15ac <_start-0x6a54>
    15a8:	1c000003 	stcne	0, cr0, [r0], {3}
    15ac:	00000025 	andeq	r0, r0, r5, lsr #32
    15b0:	7c040500 	cfstr32vc	mvfx0, [r4], {-0}
    15b4:	1b000003 	blne	15c8 <_start-0x6a38>
    15b8:	00000025 	andeq	r0, r0, r5, lsr #32
    15bc:	000003a0 	andeq	r0, r0, r0, lsr #7
    15c0:	0000811c 	andeq	r8, r0, ip, lsl r1
    15c4:	04050000 	streq	r0, [r5], #-0
    15c8:	00000391 	muleq	r0, r1, r3
    15cc:	00007a18 	andeq	r7, r0, r8, lsl sl
    15d0:	0003b600 	andeq	fp, r3, r0, lsl #12
    15d4:	006b1900 	rsbeq	r1, fp, r0, lsl #18
    15d8:	000e0000 	andeq	r0, lr, r0
    15dc:	0003a606 	andeq	sl, r3, r6, lsl #12
    15e0:	05a81d00 	streq	r1, [r8, #3328]!	; 0xd00
    15e4:	7d010000 	stcvc	0, cr0, [r1, #-0]
    15e8:	00000025 	andeq	r0, r0, r5, lsr #32
    15ec:	00008990 	muleq	r0, r0, r9
    15f0:	00000288 	andeq	r0, r0, r8, lsl #5
    15f4:	06259c01 	strteq	r9, [r5], -r1, lsl #24
    15f8:	620b0000 	andvs	r0, fp, #0
    15fc:	01006675 	tsteq	r0, r5, ror r6
    1600:	0000747d 	andeq	r7, r0, sp, ror r4
    1604:	00099600 	andeq	r9, r9, r0, lsl #12
    1608:	006e0b00 	rsbeq	r0, lr, r0, lsl #22
    160c:	00257d01 	eoreq	r7, r5, r1, lsl #26
    1610:	09c20000 	stmibeq	r2, {}^	; <UNPREDICTABLE>
    1614:	660b0000 	strvs	r0, [fp], -r0
    1618:	0100746d 	tsteq	r0, sp, ror #8
    161c:	0000817d 	andeq	r8, r0, sp, ror r1
    1620:	0009f000 	andeq	pc, r9, r0
    1624:	05bc0d00 	ldreq	r0, [ip, #3328]!	; 0xd00
    1628:	7d010000 	stcvc	0, cr0, [r1, #-0]
    162c:	000000ae 	andeq	r0, r0, lr, lsr #1
    1630:	00000a24 	andeq	r0, r0, r4, lsr #20
    1634:	01007010 	tsteq	r0, r0, lsl r0
    1638:	0000747e 	andeq	r7, r0, lr, ror r4
    163c:	000a3700 	andeq	r3, sl, r0, lsl #14
    1640:	00651000 	rsbeq	r1, r5, r0
    1644:	00747e01 	rsbseq	r7, r4, r1, lsl #28
    1648:	0ab50000 	beq	fed41650 <__bss_end__+0xfed32de0>
    164c:	82110000 	andshi	r0, r1, #0
    1650:	35000001 	strcc	r0, [r0, #-1]
    1654:	05000006 	streq	r0, [r0, #-6]
    1658:	00a07403 	adceq	r7, r0, r3, lsl #8
    165c:	00781e00 	rsbseq	r1, r8, r0, lsl #28
    1660:	73100000 	tstvc	r0, #0
    1664:	748b0100 	strvc	r0, [fp], #256	; 0x100
    1668:	dc000000 	stcle	0, cr0, [r0], {-0}
    166c:	0f00000a 	svceq	0x0000000a
    1670:	006d756e 	rsbeq	r7, sp, lr, ror #10
    1674:	063a8b01 	ldrteq	r8, [sl], -r1, lsl #22
    1678:	91030000 	mrsls	r0, (UNDEF: 3)
    167c:	65137ed8 	ldrvs	r7, [r3, #-3800]	; 0xed8
    1680:	01000006 	tsteq	r0, r6
    1684:	00002c8c 	andeq	r2, r0, ip, lsl #25
    1688:	000b3100 	andeq	r3, fp, r0, lsl #2
    168c:	8a141500 	bhi	506a94 <__bss_end__+0x4f8224>
    1690:	00b90000 	adcseq	r0, r9, r0
    1694:	047b0000 	ldrbteq	r0, [fp], #-0
    1698:	01160000 	tsteq	r6, r0
    169c:	00750250 	rsbseq	r0, r5, r0, asr r2
    16a0:	8a281400 	bhi	a066a8 <__bss_end__+0x9f7e38>
    16a4:	06600000 	strbteq	r0, [r0], -r0
    16a8:	3c150000 	ldccc	0, cr0, [r5], {-0}
    16ac:	6700008a 	strvs	r0, [r0, -sl, lsl #1]
    16b0:	b3000006 	movwlt	r0, #6
    16b4:	16000004 	strne	r0, [r0], -r4
    16b8:	08025301 	stmdaeq	r2, {r0, r8, r9, ip, lr}
    16bc:	52011692 	andpl	r1, r1, #153092096	; 0x9200000
    16c0:	a0740305 	rsbsge	r0, r4, r5, lsl #6
    16c4:	01160000 	tsteq	r6, r0
    16c8:	94030551 	strls	r0, [r3], #-1361	; 0x551
    16cc:	160000a0 	strne	r0, [r0], -r0, lsr #1
    16d0:	03055001 	movweq	r5, #20481	; 0x5001
    16d4:	0000a0e4 	andeq	sl, r0, r4, ror #1
    16d8:	8a401400 	bhi	10066e0 <__bss_end__+0xff7e70>
    16dc:	067d0000 	ldrbteq	r0, [sp], -r0
    16e0:	b0140000 	andslt	r0, r4, r0
    16e4:	6000008a 	andvs	r0, r0, sl, lsl #1
    16e8:	15000006 	strne	r0, [r0, #-6]
    16ec:	00008ac4 	andeq	r8, r0, r4, asr #21
    16f0:	00000667 	andeq	r0, r0, r7, ror #12
    16f4:	000004f4 	strdeq	r0, [r0], -r4
    16f8:	02530116 	subseq	r0, r3, #-2147483643	; 0x80000005
    16fc:	01169808 	tsteq	r6, r8, lsl #16
    1700:	74030552 	strvc	r0, [r3], #-1362	; 0x552
    1704:	160000a0 	strne	r0, [r0], -r0, lsr #1
    1708:	03055101 	movweq	r5, #20737	; 0x5101
    170c:	0000a094 	muleq	r0, r4, r0
    1710:	05500116 	ldrbeq	r0, [r0, #-278]	; 0x116
    1714:	00a10003 	adceq	r0, r1, r3
    1718:	c8140000 	ldmdagt	r4, {}	; <UNPREDICTABLE>
    171c:	7d00008a 	stcvc	0, cr0, [r0, #-552]	; 0xfffffdd8
    1720:	15000006 	strne	r0, [r0, #-6]
    1724:	00008aec 	andeq	r8, r0, ip, ror #21
    1728:	0000019c 	muleq	r0, ip, r1
    172c:	0000052a 	andeq	r0, r0, sl, lsr #10
    1730:	02520116 	subseq	r0, r2, #-2147483643	; 0x80000005
    1734:	01168008 	tsteq	r6, r8
    1738:	d0910351 	addsle	r0, r1, r1, asr r3
    173c:	5001167e 	andpl	r1, r1, lr, ror r6
    1740:	02163a01 	andseq	r3, r6, #4096	; 0x1000
    1744:	3101047d 	tstcc	r1, sp, ror r4
    1748:	007d0216 	rsbseq	r0, sp, r6, lsl r2
    174c:	00007702 	andeq	r7, r0, r2, lsl #14
    1750:	008b1015 	addeq	r1, fp, r5, lsl r0
    1754:	00019c00 	andeq	r9, r1, r0, lsl #24
    1758:	00055800 	andeq	r5, r5, r0, lsl #16
    175c:	52011600 	andpl	r1, r1, #0, 12
    1760:	16800802 	strne	r0, [r0], r2, lsl #16
    1764:	91035101 	tstls	r3, r1, lsl #2
    1768:	01167ed0 			; <UNDEFINED> instruction: 0x01167ed0
    176c:	163a0150 			; <UNDEFINED> instruction: 0x163a0150
    1770:	02047d02 	andeq	r7, r4, #2, 26	; 0x80
    1774:	0216007b 	andseq	r0, r6, #123	; 0x7b
    1778:	7702007d 	smlsdxvc	r2, sp, r0, r0
    177c:	34150000 	ldrcc	r0, [r5], #-0
    1780:	9c00008b 	stcls	0, cr0, [r0], {139}	; 0x8b
    1784:	86000001 	strhi	r0, [r0], -r1
    1788:	16000005 	strne	r0, [r0], -r5
    178c:	08025201 	stmdaeq	r2, {r0, r9, ip, lr}
    1790:	51011680 	smlabbpl	r1, r0, r6, r1
    1794:	7ed09103 	atnvcs	f1, f3
    1798:	01500116 	cmpeq	r0, r6, lsl r1
    179c:	7d021640 	stcvc	6, cr1, [r2, #-256]	; 0xffffff00
    17a0:	007b0204 	rsbseq	r0, fp, r4, lsl #4
    17a4:	007d0216 	rsbseq	r0, sp, r6, lsl r2
    17a8:	00007702 	andeq	r7, r0, r2, lsl #14
    17ac:	008b5815 	addeq	r5, fp, r5, lsl r8
    17b0:	00019c00 	andeq	r9, r1, r0, lsl #24
    17b4:	0005b400 	andeq	fp, r5, r0, lsl #8
    17b8:	52011600 	andpl	r1, r1, #0, 12
    17bc:	16800802 	strne	r0, [r0], r2, lsl #16
    17c0:	91035101 	tstls	r3, r1, lsl #2
    17c4:	01167ed0 			; <UNDEFINED> instruction: 0x01167ed0
    17c8:	16320150 			; <UNDEFINED> instruction: 0x16320150
    17cc:	02047d02 	andeq	r7, r4, #2, 26	; 0x80
    17d0:	0216007b 	andseq	r0, r6, #123	; 0x7b
    17d4:	7702007d 	smlsdxvc	r2, sp, r0, r0
    17d8:	88150000 	ldmdahi	r5, {}	; <UNPREDICTABLE>
    17dc:	9c00008b 	stcls	0, cr0, [r0], {139}	; 0x8b
    17e0:	e2000001 	and	r0, r0, #1
    17e4:	16000005 	strne	r0, [r0], -r5
    17e8:	08025201 	stmdaeq	r2, {r0, r9, ip, lr}
    17ec:	51011680 	smlabbpl	r1, r0, r6, r1
    17f0:	7ed09103 	atnvcs	f1, f3
    17f4:	01500116 	cmpeq	r0, r6, lsl r1
    17f8:	7d021638 	stcvc	6, cr1, [r2, #-224]	; 0xffffff20
    17fc:	007b0204 	rsbseq	r0, fp, r4, lsl #4
    1800:	007d0216 	rsbseq	r0, sp, r6, lsl r2
    1804:	00007702 	andeq	r7, r0, r2, lsl #14
    1808:	008b9014 	addeq	r9, fp, r4, lsl r0
    180c:	00066000 	andeq	r6, r6, r0
    1810:	8bac1500 	blhi	feb06c18 <__bss_end__+0xfeaf83a8>
    1814:	06670000 	strbteq	r0, [r7], -r0
    1818:	061a0000 	ldreq	r0, [sl], -r0
    181c:	01160000 	tsteq	r6, r0
    1820:	b9080253 	stmdblt	r8, {r0, r1, r4, r6, r9}
    1824:	05520116 	ldrbeq	r0, [r2, #-278]	; 0x116
    1828:	00a07403 	adceq	r7, r0, r3, lsl #8
    182c:	51011600 	tstpl	r1, r0, lsl #12
    1830:	a0940305 	addsge	r0, r4, r5, lsl #6
    1834:	01160000 	tsteq	r6, r0
    1838:	28030550 	stmdacs	r3, {r4, r6, r8, sl}
    183c:	000000a1 	andeq	r0, r0, r1, lsr #1
    1840:	008bb014 	addeq	fp, fp, r4, lsl r0
    1844:	00067d00 	andeq	r7, r6, r0, lsl #26
    1848:	18000000 	stmdane	r0, {}	; <UNPREDICTABLE>
    184c:	0000007a 	andeq	r0, r0, sl, ror r0
    1850:	00000635 	andeq	r0, r0, r5, lsr r6
    1854:	00006b19 	andeq	r6, r0, r9, lsl fp
    1858:	06000900 	streq	r0, [r0], -r0, lsl #18
    185c:	00000625 	andeq	r0, r0, r5, lsr #12
    1860:	00007a18 	andeq	r7, r0, r8, lsl sl
    1864:	00064a00 	andeq	r4, r6, r0, lsl #20
    1868:	006b1900 	rsbeq	r1, fp, r0, lsl #18
    186c:	007f0000 	rsbseq	r0, pc, r0
    1870:	0005d71f 	andeq	sp, r5, pc, lsl r7
    1874:	8b1d0300 	blhi	74247c <__bss_end__+0x733c0c>
    1878:	1f000003 	svcne	0x00000003
    187c:	00000614 	andeq	r0, r0, r4, lsl r6
    1880:	03a02203 	moveq	r2, #805306368	; 0x30000000
    1884:	5b200000 	blpl	80188c <__bss_end__+0x7f301c>
    1888:	03000001 	movweq	r0, #1
    188c:	05ab211e 	streq	r2, [fp, #286]!	; 0x11e
    1890:	29030000 	stmdbcs	r3, {}	; <UNPREDICTABLE>
    1894:	00000025 	andeq	r0, r0, r5, lsr #32
    1898:	0000067d 	andeq	r0, r0, sp, ror r6
    189c:	0000811c 	andeq	r8, r0, ip, lsl r1
    18a0:	20002200 	andcs	r2, r0, r0, lsl #4
    18a4:	00000217 	andeq	r0, r0, r7, lsl r2
    18a8:	ff006603 			; <UNDEFINED> instruction: 0xff006603
    18ac:	04000000 	streq	r0, [r0], #-0
    18b0:	00082900 	andeq	r2, r8, r0, lsl #18
    18b4:	55010400 	strpl	r0, [r1, #-1024]	; 0x400
    18b8:	01000003 	tsteq	r0, r3
    18bc:	00000683 	andeq	r0, r0, r3, lsl #13
    18c0:	00000547 	andeq	r0, r0, r7, asr #10
    18c4:	00008c18 	andeq	r8, r0, r8, lsl ip
    18c8:	00000028 	andeq	r0, r0, r8, lsr #32
    18cc:	000008e0 	andeq	r0, r0, r0, ror #17
    18d0:	69050402 	stmdbvs	r5, {r1, sl}
    18d4:	0300746e 	movweq	r7, #1134	; 0x46e
    18d8:	00620704 	rsbeq	r0, r2, r4, lsl #14
    18dc:	01030000 	mrseq	r0, (UNDEF: 3)
    18e0:	0002ba06 	andeq	fp, r2, r6, lsl #20
    18e4:	05020300 	streq	r0, [r2, #-768]	; 0x300
    18e8:	000002ce 	andeq	r0, r0, lr, asr #5
    18ec:	93050403 	movwls	r0, #21507	; 0x5403
    18f0:	03000000 	movweq	r0, #0
    18f4:	008e0508 	addeq	r0, lr, r8, lsl #10
    18f8:	01030000 	mrseq	r0, (UNDEF: 3)
    18fc:	0002b808 	andeq	fp, r2, r8, lsl #16
    1900:	07020300 	streq	r0, [r2, -r0, lsl #6]
    1904:	000001a7 	andeq	r0, r0, r7, lsr #3
    1908:	5d070403 	cfstrspl	mvf0, [r7, #-12]
    190c:	03000000 	movweq	r0, #0
    1910:	00580708 	subseq	r0, r8, r8, lsl #14
    1914:	04030000 	streq	r0, [r3], #-0
    1918:	00022907 	andeq	r2, r2, r7, lsl #18
    191c:	08010300 	stmdaeq	r1, {r8, r9}
    1920:	000002c1 	andeq	r0, r0, r1, asr #5
    1924:	007f0404 	rsbseq	r0, pc, r4, lsl #8
    1928:	72050000 	andvc	r0, r5, #0
    192c:	06000000 	streq	r0, [r0], -r0
    1930:	00000217 	andeq	r0, r0, r7, lsl r2
    1934:	8c180401 	cfldrshi	mvf0, [r8], {1}
    1938:	00280000 	eoreq	r0, r8, r0
    193c:	9c010000 	stcls	0, cr0, [r1], {-0}
    1940:	000000ca 	andeq	r0, r0, sl, asr #1
    1944:	008c2c07 	addeq	r2, ip, r7, lsl #24
    1948:	0000ac00 	andeq	sl, r0, r0, lsl #24
    194c:	50010800 	andpl	r0, r1, r0, lsl #16
    1950:	a1600305 	cmnge	r0, r5, lsl #6
    1954:	09000000 	stmdbeq	r0, {}	; <UNPREDICTABLE>
    1958:	00008c34 	andeq	r8, r0, r4, lsr ip
    195c:	000000ea 	andeq	r0, r0, sl, ror #1
    1960:	000000c0 	andeq	r0, r0, r0, asr #1
    1964:	02500108 	subseq	r0, r0, #8, 2
    1968:	0a006408 	beq	1a990 <__bss_end__+0xc120>
    196c:	00008c38 	andeq	r8, r0, r8, lsr ip
    1970:	000000fb 	strdeq	r0, [r0], -fp
    1974:	00250b00 	eoreq	r0, r5, r0, lsl #22
    1978:	00d90000 	sbcseq	r0, r9, r0
    197c:	790c0000 	stmdbvc	ip, {}	; <UNPREDICTABLE>
    1980:	00000000 	andeq	r0, r0, r0
    1984:	0006140d 	andeq	r1, r6, sp, lsl #8
    1988:	e4220200 	strt	r0, [r2], #-512	; 0x200
    198c:	04000000 	streq	r0, [r0], #-0
    1990:	0000ca04 	andeq	ip, r0, r4, lsl #20
    1994:	069d0e00 	ldreq	r0, [sp], r0, lsl #28
    1998:	50020000 	andpl	r0, r2, r0
    199c:	000000fb 	strdeq	r0, [r0], -fp
    19a0:	00002c0c 	andeq	r2, r0, ip, lsl #24
    19a4:	780f0000 	stmdavc	pc, {}	; <UNPREDICTABLE>
    19a8:	02000006 	andeq	r0, r0, #6
    19ac:	02e90063 	rsceq	r0, r9, #99	; 0x63
    19b0:	00040000 	andeq	r0, r4, r0
    19b4:	000008f3 	strdeq	r0, [r0], -r3
    19b8:	03550104 	cmpeq	r5, #4, 2
    19bc:	5b010000 	blpl	419c4 <__bss_end__+0x33154>
    19c0:	47000007 	strmi	r0, [r0, -r7]
    19c4:	40000005 	andmi	r0, r0, r5
    19c8:	b000008c 	andlt	r0, r0, ip, lsl #1
    19cc:	77000000 	strvc	r0, [r0, -r0]
    19d0:	02000009 	andeq	r0, r0, #9
    19d4:	6e690504 	cdpvs	5, 6, cr0, cr9, cr4, {0}
    19d8:	04030074 	streq	r0, [r3], #-116	; 0x74
    19dc:	00006207 	andeq	r6, r0, r7, lsl #4
    19e0:	06010300 	streq	r0, [r1], -r0, lsl #6
    19e4:	000002ba 			; <UNDEFINED> instruction: 0x000002ba
    19e8:	ce050203 	cdpgt	2, 0, cr0, cr5, cr3, {0}
    19ec:	03000002 	movweq	r0, #2
    19f0:	00930504 	addseq	r0, r3, r4, lsl #10
    19f4:	08030000 	stmdaeq	r3, {}	; <UNPREDICTABLE>
    19f8:	00008e05 	andeq	r8, r0, r5, lsl #28
    19fc:	044f0400 	strbeq	r0, [pc], #-1024	; 1a04 <_start-0x65fc>
    1a00:	2e020000 	cdpcs	0, 0, cr0, cr2, cr0, {0}
    1a04:	0000005a 	andeq	r0, r0, sl, asr r0
    1a08:	b8080103 	stmdalt	r8, {r0, r1, r8}
    1a0c:	03000002 	movweq	r0, #2
    1a10:	01a70702 			; <UNDEFINED> instruction: 0x01a70702
    1a14:	47040000 	strmi	r0, [r4, -r0]
    1a18:	02000003 	andeq	r0, r0, #3
    1a1c:	00007334 	andeq	r7, r0, r4, lsr r3
    1a20:	07040300 	streq	r0, [r4, -r0, lsl #6]
    1a24:	0000005d 	andeq	r0, r0, sp, asr r0
    1a28:	58070803 	stmdapl	r7, {r0, r1, fp}
    1a2c:	03000000 	movweq	r0, #0
    1a30:	02290704 	eoreq	r0, r9, #4, 14	; 0x100000
    1a34:	01030000 	mrseq	r0, (UNDEF: 3)
    1a38:	0002c108 	andeq	ip, r2, r8, lsl #2
    1a3c:	95040500 	strls	r0, [r4, #-1280]	; 0x500
    1a40:	06000000 	streq	r0, [r0], -r0
    1a44:	00000088 	andeq	r0, r0, r8, lsl #1
    1a48:	0e030c07 	cdpeq	12, 0, cr0, cr3, cr7, {0}
    1a4c:	000000d1 	ldrdeq	r0, [r0], -r1
    1a50:	00787408 	rsbseq	r7, r8, r8, lsl #8
    1a54:	004f0f03 	subeq	r0, pc, r3, lsl #30
    1a58:	08000000 	stmdaeq	r0, {}	; <UNPREDICTABLE>
    1a5c:	03007872 	movweq	r7, #2162	; 0x872
    1a60:	00004f0f 	andeq	r4, r0, pc, lsl #30
    1a64:	50090100 	andpl	r0, r9, r0, lsl #2
    1a68:	03000003 	movweq	r0, #3
    1a6c:	00006810 	andeq	r6, r0, r0, lsl r8
    1a70:	e4090400 	str	r0, [r9], #-1024	; 0x400
    1a74:	03000004 	movweq	r0, #4
    1a78:	00006811 	andeq	r6, r0, r1, lsl r8
    1a7c:	04000800 	streq	r0, [r0], #-2048	; 0x800
    1a80:	000002ae 	andeq	r0, r0, lr, lsr #5
    1a84:	009a1203 	addseq	r1, sl, r3, lsl #4
    1a88:	010a0000 	mrseq	r0, (UNDEF: 10)
    1a8c:	00f71004 	rscseq	r1, r7, r4
    1a90:	070b0000 	streq	r0, [fp, -r0]
    1a94:	01000007 	tsteq	r0, r7
    1a98:	0006fa0b 	andeq	pc, r6, fp, lsl #20
    1a9c:	ec0b0200 	sfm	f0, 4, [fp], {-0}
    1aa0:	03000006 	movweq	r0, #6
    1aa4:	071c0400 	ldreq	r0, [ip, -r0, lsl #8]
    1aa8:	10040000 	andne	r0, r4, r0
    1aac:	000000dc 	ldrdeq	r0, [r0], -ip
    1ab0:	14041407 	strne	r1, [r4], #-1031	; 0x407
    1ab4:	0000012f 	andeq	r0, r0, pc, lsr #2
    1ab8:	00077b09 	andeq	r7, r7, r9, lsl #22
    1abc:	2c150400 	cfldrscs	mvf0, [r5], {-0}
    1ac0:	00000000 	andeq	r0, r0, r0
    1ac4:	00076f09 	andeq	r6, r7, r9, lsl #30
    1ac8:	f7180400 			; <UNDEFINED> instruction: 0xf7180400
    1acc:	04000000 	streq	r0, [r0], #-0
    1ad0:	00016a09 	andeq	r6, r1, r9, lsl #20
    1ad4:	d11b0400 	tstle	fp, r0, lsl #8
    1ad8:	08000000 	stmdaeq	r0, {}	; <UNPREDICTABLE>
    1adc:	07340400 	ldreq	r0, [r4, -r0, lsl #8]!
    1ae0:	20040000 	andcs	r0, r4, r0
    1ae4:	00000102 	andeq	r0, r0, r2, lsl #2
    1ae8:	0006a60c 	andeq	sl, r6, ip, lsl #12
    1aec:	25060100 	strcs	r0, [r6, #-256]	; 0x100
    1af0:	40000000 	andmi	r0, r0, r0
    1af4:	2000008c 	andcs	r0, r0, ip, lsl #1
    1af8:	01000000 	mrseq	r0, (UNDEF: 0)
    1afc:	00017a9c 	muleq	r1, ip, sl
    1b00:	00630d00 	rsbeq	r0, r3, r0, lsl #26
    1b04:	00250601 	eoreq	r0, r5, r1, lsl #12
    1b08:	0b5b0000 	bleq	16c1b10 <__bss_end__+0x16b32a0>
    1b0c:	540e0000 	strpl	r0, [lr], #-0
    1b10:	8000008c 	andhi	r0, r0, ip, lsl #1
    1b14:	0f000002 	svceq	0x00000002
    1b18:	74025101 	strvc	r5, [r2], #-257	; 0x101
    1b1c:	50010f00 	andpl	r0, r1, r0, lsl #30
    1b20:	e85c0305 	ldmda	ip, {r0, r2, r8, r9}^
    1b24:	00000000 	andeq	r0, r0, r0
    1b28:	00071410 	andeq	r1, r7, r0, lsl r4
    1b2c:	600b0100 	andvs	r0, fp, r0, lsl #2
    1b30:	9000008c 	andls	r0, r0, ip, lsl #1
    1b34:	01000000 	mrseq	r0, (UNDEF: 0)
    1b38:	00022d9c 	muleq	r2, ip, sp
    1b3c:	06ba1100 	ldrteq	r1, [sl], r0, lsl #2
    1b40:	0c010000 	stceq	0, cr0, [r1], {-0}
    1b44:	00000025 	andeq	r0, r0, r5, lsr #32
    1b48:	00074f11 	andeq	r4, r7, r1, lsl pc
    1b4c:	250c0100 	strcs	r0, [ip, #-256]	; 0x100
    1b50:	12000000 	andne	r0, r0, #0
    1b54:	00000025 	andeq	r0, r0, r5, lsr #32
    1b58:	01b20d01 			; <UNDEFINED> instruction: 0x01b20d01
    1b5c:	00130000 	andseq	r0, r3, r0
    1b60:	73736214 	cmnvc	r3, #20, 4	; 0x40000001
    1b64:	2d0f0100 	stfcss	f0, [pc, #-0]	; 1b6c <_start-0x6494>
    1b68:	79000002 	stmdbvc	r0, {r1}
    1b6c:	1500000b 	strne	r0, [r0, #-11]
    1b70:	000006c8 	andeq	r0, r0, r8, asr #13
    1b74:	022d1001 	eoreq	r1, sp, #1
    1b78:	63140000 	tstvs	r4, #0
    1b7c:	17010062 	strne	r0, [r1, -r2, rrx]
    1b80:	00000233 	andeq	r0, r0, r3, lsr r2
    1b84:	00000b99 	muleq	r0, r9, fp
    1b88:	008c8816 	addeq	r8, ip, r6, lsl r8
    1b8c:	00029c00 	andeq	r9, r2, r0, lsl #24
    1b90:	8cc41700 	stclhi	7, cr1, [r4], {0}
    1b94:	02a70000 	adceq	r0, r7, #0
    1b98:	02030000 	andeq	r0, r3, #0
    1b9c:	010f0000 	mrseq	r0, CPSR
    1ba0:	6c030551 	cfstr32vs	mvfx0, [r3], {81}	; 0x51
    1ba4:	0f0000a1 	svceq	0x000000a1
    1ba8:	03055001 	movweq	r5, #20481	; 0x5001
    1bac:	0000e85c 	andeq	lr, r0, ip, asr r8
    1bb0:	8ccc1700 	stclhi	7, cr1, [ip], {0}
    1bb4:	02c20000 	sbceq	r0, r2, #0
    1bb8:	021a0000 	andseq	r0, sl, #0
    1bbc:	010f0000 	mrseq	r0, CPSR
    1bc0:	90030550 	andls	r0, r3, r0, asr r5
    1bc4:	000000a1 	andeq	r0, r0, r1, lsr #1
    1bc8:	008cd016 	addeq	sp, ip, r6, lsl r0
    1bcc:	0002d800 	andeq	sp, r2, r0, lsl #16
    1bd0:	8cd41600 	ldclhi	6, cr1, [r4], {0}
    1bd4:	02e50000 	rsceq	r0, r5, #0
    1bd8:	05000000 	streq	r0, [r0, #-0]
    1bdc:	00002504 	andeq	r2, r0, r4, lsl #10
    1be0:	2f040500 	svccs	0x00040500
    1be4:	18000001 	stmdane	r0, {r0}
    1be8:	000006d0 	ldrdeq	r0, [r0], -r0	; <UNPREDICTABLE>
    1bec:	00d10501 	sbcseq	r0, r1, r1, lsl #10
    1bf0:	03050000 	movweq	r0, #20480	; 0x5000
    1bf4:	0000e85c 	andeq	lr, r0, ip, asr r8
    1bf8:	00002519 	andeq	r2, r0, r9, lsl r5
    1bfc:	00025900 	andeq	r5, r2, r0, lsl #18
    1c00:	00251a00 	eoreq	r1, r5, r0, lsl #20
    1c04:	11000000 	mrsne	r0, (UNDEF: 0)
    1c08:	000005d7 	ldrdeq	r0, [r0], -r7
    1c0c:	02641d05 	rsbeq	r1, r4, #320	; 0x140
    1c10:	04050000 	streq	r0, [r5], #-0
    1c14:	0000024a 	andeq	r0, r0, sl, asr #4
    1c18:	0006ba11 	andeq	fp, r6, r1, lsl sl
    1c1c:	250c0100 	strcs	r0, [ip, #-256]	; 0x100
    1c20:	11000000 	mrsne	r0, (UNDEF: 0)
    1c24:	0000074f 	andeq	r0, r0, pc, asr #14
    1c28:	00250c01 	eoreq	r0, r5, r1, lsl #24
    1c2c:	271b0000 	ldrcs	r0, [fp, -r0]
    1c30:	03000007 	movweq	r0, #7
    1c34:	00029644 	andeq	r9, r2, r4, asr #12
    1c38:	02961a00 	addseq	r1, r6, #0, 20
    1c3c:	5a1a0000 	bpl	681c44 <__bss_end__+0x6733d4>
    1c40:	00000000 	andeq	r0, r0, r0
    1c44:	00d10405 	sbcseq	r0, r1, r5, lsl #8
    1c48:	421c0000 	andsmi	r0, ip, #0
    1c4c:	04000007 	streq	r0, [r0], #-7
    1c50:	0002332a 	andeq	r3, r2, sl, lsr #6
    1c54:	06dd1d00 	ldrbeq	r1, [sp], r0, lsl #26
    1c58:	15030000 	strne	r0, [r3, #-0]
    1c5c:	00000025 	andeq	r0, r0, r5, lsr #32
    1c60:	000002c2 	andeq	r0, r0, r2, asr #5
    1c64:	0002961a 	andeq	r9, r2, sl, lsl r6
    1c68:	008f1a00 	addeq	r1, pc, r0, lsl #20
    1c6c:	00130000 	andseq	r0, r3, r0
    1c70:	0005ab1d 	andeq	sl, r5, sp, lsl fp
    1c74:	25290500 	strcs	r0, [r9, #-1280]!	; 0x500
    1c78:	d8000000 	stmdale	r0, {}	; <UNPREDICTABLE>
    1c7c:	1a000002 	bne	1c8c <_start-0x6374>
    1c80:	0000008f 	andeq	r0, r0, pc, lsl #1
    1c84:	25120013 	ldrcs	r0, [r2, #-19]
    1c88:	01000000 	mrseq	r0, (UNDEF: 0)
    1c8c:	0002e50d 	andeq	lr, r2, sp, lsl #10
    1c90:	1e001300 	cdpne	3, 0, cr1, cr0, cr0, {0}
    1c94:	00000678 	andeq	r0, r0, r8, ror r6
    1c98:	ad006305 	stcge	3, cr6, [r0, #-20]	; 0xffffffec
    1c9c:	04000001 	streq	r0, [r0], #-1
    1ca0:	000a9b00 	andeq	r9, sl, r0, lsl #22
    1ca4:	55010400 	strpl	r0, [r1, #-1024]	; 0x400
    1ca8:	01000003 	tsteq	r0, r3
    1cac:	0000079b 	muleq	r0, fp, r7
    1cb0:	00000547 	andeq	r0, r0, r7, asr #10
    1cb4:	00000090 	muleq	r0, r0, r0
    1cb8:	00000000 	andeq	r0, r0, r0
    1cbc:	00000a9c 	muleq	r0, ip, sl
    1cc0:	69050402 	stmdbvs	r5, {r1, sl}
    1cc4:	0300746e 	movweq	r7, #1134	; 0x46e
    1cc8:	00620704 	rsbeq	r0, r2, r4, lsl #14
    1ccc:	01030000 	mrseq	r0, (UNDEF: 3)
    1cd0:	0002ba06 	andeq	fp, r2, r6, lsl #20
    1cd4:	05020300 	streq	r0, [r2, #-768]	; 0x300
    1cd8:	000002ce 	andeq	r0, r0, lr, asr #5
    1cdc:	93050403 	movwls	r0, #21507	; 0x5403
    1ce0:	03000000 	movweq	r0, #0
    1ce4:	008e0508 	addeq	r0, lr, r8, lsl #10
    1ce8:	01030000 	mrseq	r0, (UNDEF: 3)
    1cec:	0002b808 	andeq	fp, r2, r8, lsl #16
    1cf0:	07020300 	streq	r0, [r2, -r0, lsl #6]
    1cf4:	000001a7 	andeq	r0, r0, r7, lsr #3
    1cf8:	5d070403 	cfstrspl	mvf0, [r7, #-12]
    1cfc:	03000000 	movweq	r0, #0
    1d00:	00580708 	subseq	r0, r8, r8, lsl #14
    1d04:	04030000 	streq	r0, [r3], #-0
    1d08:	00022907 	andeq	r2, r2, r7, lsl #18
    1d0c:	08010300 	stmdaeq	r1, {r8, r9}
    1d10:	000002c1 	andeq	r0, r0, r1, asr #5
    1d14:	00078104 	andeq	r8, r7, r4, lsl #2
    1d18:	250e0100 	strcs	r0, [lr, #-256]	; 0x100
    1d1c:	f0000000 			; <UNDEFINED> instruction: 0xf0000000
    1d20:	1800008c 	stmdane	r0, {r2, r3, r7}
    1d24:	01000000 	mrseq	r0, (UNDEF: 0)
    1d28:	0000a29c 	muleq	r0, ip, r2
    1d2c:	07ed0500 	strbeq	r0, [sp, r0, lsl #10]!
    1d30:	0f010000 	svceq	0x00010000
    1d34:	0000002c 	andeq	r0, r0, ip, lsr #32
    1d38:	00000bb9 			; <UNDEFINED> instruction: 0x00000bb9
    1d3c:	07d00600 	ldrbeq	r0, [r0, r0, lsl #12]
    1d40:	17010000 	strne	r0, [r1, -r0]
    1d44:	00008d08 	andeq	r8, r0, r8, lsl #26
    1d48:	00000014 	andeq	r0, r0, r4, lsl r0
    1d4c:	00c79c01 	sbceq	r9, r7, r1, lsl #24
    1d50:	ed050000 	stc	0, cr0, [r5, #-0]
    1d54:	01000007 	tsteq	r0, r7
    1d58:	00002c18 	andeq	r2, r0, r8, lsl ip
    1d5c:	000bd800 	andeq	sp, fp, r0, lsl #16
    1d60:	78060000 	stmdavc	r6, {}	; <UNPREDICTABLE>
    1d64:	01000006 	tsteq	r0, r6
    1d68:	008d1c1f 	addeq	r1, sp, pc, lsl ip
    1d6c:	00004800 	andeq	r4, r0, r0, lsl #16
    1d70:	779c0100 	ldrvc	r0, [ip, r0, lsl #2]
    1d74:	07000001 	streq	r0, [r0, -r1]
    1d78:	000007e5 	andeq	r0, r0, r5, ror #15
    1d7c:	01772a01 	cmneq	r7, r1, lsl #20
    1d80:	001c0000 	andseq	r0, ip, r0
    1d84:	c8072010 	stmdagt	r7, {r4, sp}
    1d88:	01000007 	tsteq	r0, r7
    1d8c:	0001772b 	andeq	r7, r1, fp, lsr #14
    1d90:	10002400 	andne	r2, r0, r0, lsl #8
    1d94:	078f0720 	streq	r0, [pc, r0, lsr #14]
    1d98:	2c010000 	stccs	0, cr0, [r1], {-0}
    1d9c:	00000177 	andeq	r0, r0, r7, ror r1
    1da0:	5a000000 	bpl	1da8 <_start-0x6258>
    1da4:	0007af08 	andeq	sl, r7, r8, lsl #30
    1da8:	772d0100 	strvc	r0, [sp, -r0, lsl #2]!
    1dac:	20000001 	andcs	r0, r0, r1
    1db0:	008d2409 	addeq	r2, sp, r9, lsl #8
    1db4:	00007900 	andeq	r7, r0, r0, lsl #18
    1db8:	8d300900 	ldchi	9, cr0, [r0, #-0]
    1dbc:	00a20000 	adceq	r0, r2, r0
    1dc0:	380a0000 	stmdacc	sl, {}	; <UNPREDICTABLE>
    1dc4:	8d00008d 	stchi	0, cr0, [r0, #-564]	; 0xfffffdcc
    1dc8:	3a000001 	bcc	1dd4 <_start-0x622c>
    1dcc:	0b000001 	bleq	1dd8 <_start-0x6228>
    1dd0:	4e015001 	cdpmi	0, 0, cr5, cr1, cr1, {0}
    1dd4:	8d440a00 	vstrhi	s1, [r4, #-0]
    1dd8:	019e0000 	orrseq	r0, lr, r0
    1ddc:	015a0000 	cmpeq	sl, r0
    1de0:	010b0000 	mrseq	r0, (UNDEF: 11)
    1de4:	010c0551 	tsteq	ip, r1, asr r5
    1de8:	0b5a0000 	bleq	1681df0 <__bss_end__+0x1673580>
    1dec:	0c055001 	stceq	0, cr5, [r5], {1}
    1df0:	20100024 	andscs	r0, r0, r4, lsr #32
    1df4:	8d500c00 	ldclhi	12, cr0, [r0, #-0]
    1df8:	019e0000 	orrseq	r0, lr, r0
    1dfc:	010b0000 	mrseq	r0, (UNDEF: 11)
    1e00:	200c0551 	andcs	r0, ip, r1, asr r5
    1e04:	0b5a0000 	bleq	1681e0c <__bss_end__+0x167359c>
    1e08:	0c055001 	stceq	0, cr5, [r5], {1}
    1e0c:	2010001c 	andscs	r0, r0, ip, lsl r0
    1e10:	250d0000 	strcs	r0, [sp, #-0]
    1e14:	08000000 	stmdaeq	r0, {}	; <UNPREDICTABLE>
    1e18:	00000784 	andeq	r0, r0, r4, lsl #15
    1e1c:	01880d01 	orreq	r0, r8, r1, lsl #26
    1e20:	0d100000 	ldceq	0, cr0, [r0, #-0]
    1e24:	0000002c 	andeq	r0, r0, ip, lsr #32
    1e28:	00069d0e 	andeq	r9, r6, lr, lsl #26
    1e2c:	9e500200 	cdpls	2, 5, cr0, cr0, cr0, {0}
    1e30:	0f000001 	svceq	0x00000001
    1e34:	0000002c 	andeq	r0, r0, ip, lsr #32
    1e38:	07df1000 	ldrbeq	r1, [pc, r0]
    1e3c:	99020000 	stmdbls	r2, {}	; <UNPREDICTABLE>
    1e40:	00002c0f 	andeq	r2, r0, pc, lsl #24
    1e44:	002c0f00 	eoreq	r0, ip, r0, lsl #30
    1e48:	00000000 	andeq	r0, r0, r0
    1e4c:	000001d8 	ldrdeq	r0, [r0], -r8
    1e50:	0b890004 	bleq	fe241e68 <__bss_end__+0xfe2335f8>
    1e54:	01040000 	mrseq	r0, (UNDEF: 4)
    1e58:	00000355 	andeq	r0, r0, r5, asr r3
    1e5c:	00080f01 	andeq	r0, r8, r1, lsl #30
    1e60:	00054700 	andeq	r4, r5, r0, lsl #14
    1e64:	008d6400 	addeq	r6, sp, r0, lsl #8
    1e68:	00008800 	andeq	r8, r0, r0, lsl #16
    1e6c:	000b3900 	andeq	r3, fp, r0, lsl #18
    1e70:	05040200 	streq	r0, [r4, #-512]	; 0x200
    1e74:	00746e69 	rsbseq	r6, r4, r9, ror #28
    1e78:	62070403 	andvs	r0, r7, #50331648	; 0x3000000
    1e7c:	03000000 	movweq	r0, #0
    1e80:	02ba0601 	adcseq	r0, sl, #1048576	; 0x100000
    1e84:	02030000 	andeq	r0, r3, #0
    1e88:	0002ce05 	andeq	ip, r2, r5, lsl #28
    1e8c:	05040300 	streq	r0, [r4, #-768]	; 0x300
    1e90:	00000093 	muleq	r0, r3, r0
    1e94:	8e050803 	cdphi	8, 0, cr0, cr5, cr3, {0}
    1e98:	03000000 	movweq	r0, #0
    1e9c:	02b80801 	adcseq	r0, r8, #65536	; 0x10000
    1ea0:	02030000 	andeq	r0, r3, #0
    1ea4:	0001a707 	andeq	sl, r1, r7, lsl #14
    1ea8:	07040300 	streq	r0, [r4, -r0, lsl #6]
    1eac:	0000005d 	andeq	r0, r0, sp, asr r0
    1eb0:	58070803 	stmdapl	r7, {r0, r1, fp}
    1eb4:	03000000 	movweq	r0, #0
    1eb8:	02290704 	eoreq	r0, r9, #4, 14	; 0x100000
    1ebc:	01030000 	mrseq	r0, (UNDEF: 3)
    1ec0:	0002c108 	andeq	ip, r2, r8, lsl #2
    1ec4:	082e0400 	stmdaeq	lr!, {sl}
    1ec8:	05010000 	streq	r0, [r1, #-0]
    1ecc:	00008d64 	andeq	r8, r0, r4, ror #26
    1ed0:	0000001c 	andeq	r0, r0, ip, lsl r0
    1ed4:	009e9c01 	addseq	r9, lr, r1, lsl #24
    1ed8:	28050000 	stmdacs	r5, {}	; <UNPREDICTABLE>
    1edc:	01000008 	tsteq	r0, r8
    1ee0:	00002c05 	andeq	r2, r0, r5, lsl #24
    1ee4:	000c0200 	andeq	r0, ip, r0, lsl #4
    1ee8:	f2060000 	vhadd.s8	d0, d6, d0
    1eec:	01000007 	tsteq	r0, r7
    1ef0:	00002c0b 	andeq	r2, r0, fp, lsl #24
    1ef4:	008d8000 	addeq	r8, sp, r0
    1ef8:	00001400 	andeq	r1, r0, r0, lsl #8
    1efc:	cb9c0100 	blgt	fe702304 <__bss_end__+0xfe6f3a94>
    1f00:	07000000 	streq	r0, [r0, -r0]
    1f04:	00008d8c 	andeq	r8, r0, ip, lsl #27
    1f08:	000001ca 	andeq	r0, r0, sl, asr #3
    1f0c:	05500108 	ldrbeq	r0, [r0, #-264]	; 0x108
    1f10:	0030040c 	eorseq	r0, r0, ip, lsl #8
    1f14:	06000020 	streq	r0, [r0], -r0, lsr #32
    1f18:	00000844 	andeq	r0, r0, r4, asr #16
    1f1c:	002c1001 	eoreq	r1, ip, r1
    1f20:	8d940000 	ldchi	0, cr0, [r4]
    1f24:	000c0000 	andeq	r0, ip, r0
    1f28:	9c010000 	stcls	0, cr0, [r1], {-0}
    1f2c:	000000f9 	strdeq	r0, [r0], -r9
    1f30:	01007509 	tsteq	r0, r9, lsl #10
    1f34:	00002c14 	andeq	r2, r0, r4, lsl ip
    1f38:	0a500100 	beq	1402340 <__bss_end__+0x13f3ad0>
    1f3c:	00008d9c 	muleq	r0, ip, sp
    1f40:	0000009e 	muleq	r0, lr, r0
    1f44:	083b0400 	ldmdaeq	fp!, {sl}
    1f48:	19010000 	stmdbne	r1, {}	; <UNPREDICTABLE>
    1f4c:	00008da0 	andeq	r8, r0, r0, lsr #27
    1f50:	00000024 	andeq	r0, r0, r4, lsr #32
    1f54:	01579c01 	cmpeq	r7, r1, lsl #24
    1f58:	750b0000 	strvc	r0, [fp, #-0]
    1f5c:	19010073 	stmdbne	r1, {r0, r1, r4, r5, r6}
    1f60:	0000002c 	andeq	r0, r0, ip, lsr #32
    1f64:	00000c36 	andeq	r0, r0, r6, lsr ip
    1f68:	00627209 	rsbeq	r7, r2, r9, lsl #4
    1f6c:	002c1a01 	eoreq	r1, ip, r1, lsl #20
    1f70:	54010000 	strpl	r0, [r1], #-0
    1f74:	008db00c 	addeq	fp, sp, ip
    1f78:	00001000 	andeq	r1, r0, r0
    1f7c:	00014d00 	andeq	r4, r1, r0, lsl #26
    1f80:	61720d00 	cmnvs	r2, r0, lsl #26
    1f84:	2c1c0100 	ldfcss	f0, [ip], {-0}
    1f88:	54000000 	strpl	r0, [r0], #-0
    1f8c:	0a00000c 	beq	1fc4 <_start-0x603c>
    1f90:	00008db4 			; <UNDEFINED> instruction: 0x00008db4
    1f94:	000000cb 	andeq	r0, r0, fp, asr #1
    1f98:	8dac0a00 	stchi	10, cr0, [ip]
    1f9c:	00cb0000 	sbceq	r0, fp, r0
    1fa0:	04000000 	streq	r0, [r0], #-0
    1fa4:	0000069d 	muleq	r0, sp, r6
    1fa8:	8dc42201 	sfmhi	f2, 2, [r4, #4]
    1fac:	00140000 	andseq	r0, r4, r0
    1fb0:	9c010000 	stcls	0, cr0, [r1], {-0}
    1fb4:	00000190 	muleq	r0, r0, r1
    1fb8:	00736d0b 	rsbseq	r6, r3, fp, lsl #26
    1fbc:	002c2201 	eoreq	r2, ip, r1, lsl #4
    1fc0:	0c670000 	stcleq	0, cr0, [r7], #-0
    1fc4:	d4070000 	strle	r0, [r7], #-0
    1fc8:	f900008d 			; <UNDEFINED> instruction: 0xf900008d
    1fcc:	08000000 	stmdaeq	r0, {}	; <UNPREDICTABLE>
    1fd0:	f3075001 	vhadd.u8	d5, d7, d1
    1fd4:	e80a5001 	stmda	sl, {r0, ip, lr}
    1fd8:	00001e03 	andeq	r1, r0, r3, lsl #28
    1fdc:	00080504 	andeq	r0, r8, r4, lsl #10
    1fe0:	d8250100 	stmdale	r5!, {r8}
    1fe4:	1400008d 	strne	r0, [r0], #-141	; 0x8d
    1fe8:	01000000 	mrseq	r0, (UNDEF: 0)
    1fec:	0001ca9c 	muleq	r1, ip, sl
    1ff0:	65730b00 	ldrbvs	r0, [r3, #-2816]!	; 0xb00
    1ff4:	25010063 	strcs	r0, [r1, #-99]	; 0x63
    1ff8:	0000002c 	andeq	r0, r0, ip, lsr #32
    1ffc:	00000c88 	andeq	r0, r0, r8, lsl #25
    2000:	008de807 	addeq	lr, sp, r7, lsl #16
    2004:	00015700 	andeq	r5, r1, r0, lsl #14
    2008:	50010800 	andpl	r0, r1, r0, lsl #16
    200c:	5001f307 	andpl	pc, r1, r7, lsl #6
    2010:	1e03e80a 	cdpne	8, 0, cr14, cr3, cr10, {0}
    2014:	220e0000 	andcs	r0, lr, #0
    2018:	02000008 	andeq	r0, r0, #8
    201c:	00002ca5 	andeq	r2, r0, r5, lsr #25
    2020:	002c0f00 	eoreq	r0, ip, r0, lsl #30
    2024:	00000000 	andeq	r0, r0, r0
    2028:	000008cf 	andeq	r0, r0, pc, asr #17
    202c:	0c6c0004 	stcleq	0, cr0, [ip], #-16
    2030:	01040000 	mrseq	r0, (UNDEF: 4)
    2034:	00000355 	andeq	r0, r0, r5, asr r3
    2038:	00089d01 	andeq	r9, r8, r1, lsl #26
    203c:	00054700 	andeq	r4, r5, r0, lsl #14
    2040:	008dec00 	addeq	lr, sp, r0, lsl #24
    2044:	0005bc00 	andeq	fp, r5, r0, lsl #24
    2048:	000be000 	andeq	lr, fp, r0
    204c:	07080200 	streq	r0, [r8, -r0, lsl #4]
    2050:	00000058 	andeq	r0, r0, r8, asr r0
    2054:	62070402 	andvs	r0, r7, #33554432	; 0x2000000
    2058:	02000000 	andeq	r0, r0, #0
    205c:	02ba0601 	adcseq	r0, sl, #1048576	; 0x100000
    2060:	02020000 	andeq	r0, r2, #0
    2064:	0002ce05 	andeq	ip, r2, r5, lsl #28
    2068:	05040200 	streq	r0, [r4, #-512]	; 0x200
    206c:	00000093 	muleq	r0, r3, r0
    2070:	8e050802 	cdphi	8, 0, cr0, cr5, cr2, {0}
    2074:	02000000 	andeq	r0, r0, #0
    2078:	02b80801 	adcseq	r0, r8, #65536	; 0x10000
    207c:	02020000 	andeq	r0, r2, #0
    2080:	0001a707 	andeq	sl, r1, r7, lsl #14
    2084:	07040200 	streq	r0, [r4, -r0, lsl #4]
    2088:	0000005d 	andeq	r0, r0, sp, asr r0
    208c:	69050403 	stmdbvs	r5, {r0, r1, sl}
    2090:	0200746e 	andeq	r7, r0, #1845493760	; 0x6e000000
    2094:	02290704 	eoreq	r0, r9, #4, 14	; 0x100000
    2098:	01020000 	mrseq	r0, (UNDEF: 2)
    209c:	0002c108 	andeq	ip, r2, r8, lsl #2
    20a0:	02010400 	andeq	r0, r1, #0, 8
    20a4:	0000b20c 	andeq	fp, r0, ip, lsl #4
    20a8:	00750500 	rsbseq	r0, r5, r0, lsl #10
    20ac:	05000000 	streq	r0, [r0, #-0]
    20b0:	0000043e 	andeq	r0, r0, lr, lsr r4
    20b4:	047b0501 	ldrbteq	r0, [fp], #-1281	; 0x501
    20b8:	05040000 	streq	r0, [r4, #-0]
    20bc:	0000048a 	andeq	r0, r0, sl, lsl #9
    20c0:	04990505 	ldreq	r0, [r9], #1285	; 0x505
    20c4:	05060000 	streq	r0, [r6, #-0]
    20c8:	000004a8 	andeq	r0, r0, r8, lsr #9
    20cc:	04b70507 	ldrteq	r0, [r7], #1287	; 0x507
    20d0:	05030000 	streq	r0, [r3, #-0]
    20d4:	000004c6 	andeq	r0, r0, r6, asr #9
    20d8:	5d060002 	stcpl	0, cr0, [r6, #-8]
    20dc:	02000004 	andeq	r0, r0, #4
    20e0:	00007915 	andeq	r7, r0, r5, lsl r9
    20e4:	09cf0700 	stmibeq	pc, {r8, r9, sl}^	; <UNPREDICTABLE>
    20e8:	3f010000 	svccc	0x00010000
    20ec:	00008dec 	andeq	r8, r0, ip, ror #27
    20f0:	000000d4 	ldrdeq	r0, [r0], -r4
    20f4:	01339c01 	teqeq	r3, r1, lsl #24
    20f8:	70080000 	andvc	r0, r8, r0
    20fc:	01006e69 	tsteq	r0, r9, ror #28
    2100:	00002c3f 	andeq	r2, r0, pc, lsr ip
    2104:	000ca900 	andeq	sl, ip, r0, lsl #18
    2108:	08d90900 	ldmeq	r9, {r8, fp}^
    210c:	47010000 	strmi	r0, [r1, -r0]
    2110:	00000133 	andeq	r0, r0, r3, lsr r1
    2114:	00000cc7 	andeq	r0, r0, r7, asr #25
    2118:	0009f509 	andeq	pc, r9, r9, lsl #10
    211c:	2c490100 	stfcse	f0, [r9], {-0}
    2120:	1c000000 	stcne	0, cr0, [r0], {-0}
    2124:	0900000d 	stmdbeq	r0, {r0, r2, r3}
    2128:	00000976 	andeq	r0, r0, r6, ror r9
    212c:	002c5701 	eoreq	r5, ip, r1, lsl #14
    2130:	0ee80000 	cdpeq	0, 14, cr0, cr8, cr0, {0}
    2134:	800a0000 	andhi	r0, sl, r0
    2138:	8e00008e 	cdphi	0, 0, cr0, cr0, cr14, {4}
    213c:	22000008 	andcs	r0, r0, #8
    2140:	0b000001 	bleq	214c <_start-0x5eb4>
    2144:	75025001 	strvc	r5, [r2, #-1]
    2148:	b40c0000 	strlt	r0, [ip], #-0
    214c:	af00008e 	svcge	0x0000008e
    2150:	0b000008 	bleq	2178 <_start-0x5e88>
    2154:	75025001 	strvc	r5, [r2, #-1]
    2158:	0d000000 	stceq	0, cr0, [r0, #-0]
    215c:	00013904 	andeq	r3, r1, r4, lsl #18
    2160:	002c0e00 	eoreq	r0, ip, r0, lsl #28
    2164:	b50f0000 	strlt	r0, [pc, #-0]	; 216c <_start-0x5e94>
    2168:	01000009 	tsteq	r0, r9
    216c:	016c0360 	cmneq	ip, r0, ror #6
    2170:	70100000 	andsvc	r0, r0, r0
    2174:	01006e69 	tsteq	r0, r9, ror #28
    2178:	00002c60 	andeq	r2, r0, r0, ror #24
    217c:	08d91100 	ldmeq	r9, {r8, ip}^
    2180:	67010000 	strvs	r0, [r1, -r0]
    2184:	00000133 	andeq	r0, r0, r3, lsr r1
    2188:	00097611 	andeq	r7, r9, r1, lsl r6
    218c:	2c680100 	stfcse	f0, [r8], #-0
    2190:	00000000 	andeq	r0, r0, r0
    2194:	00013e12 	andeq	r3, r1, r2, lsl lr
    2198:	008ec000 	addeq	ip, lr, r0
    219c:	00003800 	andeq	r3, r0, r0, lsl #16
    21a0:	b09c0100 	addslt	r0, ip, r0, lsl #2
    21a4:	13000001 	movwne	r0, #1
    21a8:	0000014a 	andeq	r0, r0, sl, asr #2
    21ac:	00000f18 	andeq	r0, r0, r8, lsl pc
    21b0:	00015514 	andeq	r5, r1, r4, lsl r5
    21b4:	000f3900 	andeq	r3, pc, r0, lsl #18
    21b8:	01601400 	cmneq	r0, r0, lsl #8
    21bc:	0f6f0000 	svceq	0x006f0000
    21c0:	f00c0000 			; <UNDEFINED> instruction: 0xf00c0000
    21c4:	af00008e 	svcge	0x0000008e
    21c8:	0b000008 	bleq	21f0 <_start-0x5e10>
    21cc:	31075101 	tstcc	r7, r1, lsl #2
    21d0:	4f5001f3 	svcmi	0x005001f3
    21d4:	0000241a 	andeq	r2, r0, sl, lsl r4
    21d8:	0008900f 	andeq	r9, r8, pc
    21dc:	037b0100 	cmneq	fp, #0, 2
    21e0:	000001de 	ldrdeq	r0, [r0], -lr
    21e4:	6e697010 	mcrvs	0, 3, r7, cr9, cr0, {0}
    21e8:	2c7b0100 	ldfcse	f0, [fp], #-0
    21ec:	11000000 	mrsne	r0, (UNDEF: 0)
    21f0:	000008d9 	ldrdeq	r0, [r0], -r9
    21f4:	01338101 	teqeq	r3, r1, lsl #2
    21f8:	76110000 	ldrvc	r0, [r1], -r0
    21fc:	01000009 	tsteq	r0, r9
    2200:	00002c82 	andeq	r2, r0, r2, lsl #25
    2204:	b0120000 	andslt	r0, r2, r0
    2208:	f8000001 			; <UNDEFINED> instruction: 0xf8000001
    220c:	3800008e 	stmdacc	r0, {r1, r2, r3, r7}
    2210:	01000000 	mrseq	r0, (UNDEF: 0)
    2214:	0002229c 	muleq	r2, ip, r2
    2218:	01bc1300 			; <UNDEFINED> instruction: 0x01bc1300
    221c:	0faf0000 	svceq	0x00af0000
    2220:	c7140000 	ldrgt	r0, [r4, -r0]
    2224:	d0000001 	andle	r0, r0, r1
    2228:	1400000f 	strne	r0, [r0], #-15
    222c:	000001d2 	ldrdeq	r0, [r0], -r2
    2230:	00001006 	andeq	r1, r0, r6
    2234:	008f280c 	addeq	r2, pc, ip, lsl #16
    2238:	0008af00 	andeq	sl, r8, r0, lsl #30
    223c:	51010b00 	tstpl	r1, r0, lsl #22
    2240:	01f33107 	mvnseq	r3, r7, lsl #2
    2244:	241a4f50 	ldrcs	r4, [sl], #-3920	; 0xf50
    2248:	98070000 	stmdals	r7, {}	; <UNPREDICTABLE>
    224c:	01000009 	tsteq	r0, r9
    2250:	008f3095 	umulleq	r3, pc, r5, r0	; <UNPREDICTABLE>
    2254:	0000cc00 	andeq	ip, r0, r0, lsl #24
    2258:	989c0100 	ldmls	ip, {r8}
    225c:	08000002 	stmdaeq	r0, {r1}
    2260:	006e6970 	rsbeq	r6, lr, r0, ror r9
    2264:	002c9501 	eoreq	r9, ip, r1, lsl #10
    2268:	10460000 	subne	r0, r6, r0
    226c:	d9090000 	stmdble	r9, {}	; <UNPREDICTABLE>
    2270:	01000008 	tsteq	r0, r8
    2274:	0001339b 	muleq	r1, fp, r3
    2278:	00106400 	andseq	r6, r0, r0, lsl #8
    227c:	09f50900 	ldmibeq	r5!, {r8, fp}^
    2280:	9d010000 	stcls	0, cr0, [r1, #-0]
    2284:	0000002c 	andeq	r0, r0, ip, lsr #32
    2288:	000010b9 	strheq	r1, [r0], -r9
    228c:	00097609 	andeq	r7, r9, r9, lsl #12
    2290:	2cab0100 	stfcss	f0, [fp]
    2294:	85000000 	strhi	r0, [r0, #-0]
    2298:	0a000012 	beq	22e8 <_start-0x5d18>
    229c:	00008fc4 	andeq	r8, r0, r4, asr #31
    22a0:	0000088e 	andeq	r0, r0, lr, lsl #17
    22a4:	00000287 	andeq	r0, r0, r7, lsl #5
    22a8:	0250010b 	subseq	r0, r0, #-1073741822	; 0xc0000002
    22ac:	0c000075 	stceq	0, cr0, [r0], {117}	; 0x75
    22b0:	00008ff0 	strdeq	r8, [r0], -r0
    22b4:	000008af 	andeq	r0, r0, pc, lsr #17
    22b8:	0250010b 	subseq	r0, r0, #-1073741822	; 0xc0000002
    22bc:	00000075 	andeq	r0, r0, r5, ror r0
    22c0:	00091c15 	andeq	r1, r9, r5, lsl ip
    22c4:	64b30100 	ldrtvs	r0, [r3], #256	; 0x100
    22c8:	fc000000 	stc2	0, cr0, [r0], {-0}
    22cc:	4c00008f 	stcmi	0, cr0, [r0], {143}	; 0x8f
    22d0:	01000000 	mrseq	r0, (UNDEF: 0)
    22d4:	0002e09c 	muleq	r2, ip, r0
    22d8:	69700800 	ldmdbvs	r0!, {fp}^
    22dc:	b301006e 	movwlt	r0, #4206	; 0x106e
    22e0:	0000002c 	andeq	r0, r0, ip, lsr #32
    22e4:	000012a3 	andeq	r1, r0, r3, lsr #5
    22e8:	01007616 	tsteq	r0, r6, lsl r6
    22ec:	00002cb9 			; <UNDEFINED> instruction: 0x00002cb9
    22f0:	0012fb00 	andseq	pc, r2, r0, lsl #22
    22f4:	901c1700 	andsls	r1, ip, r0, lsl #14
    22f8:	088e0000 	stmeq	lr, {}	; <UNPREDICTABLE>
    22fc:	2c170000 	ldccs	0, cr0, [r7], {-0}
    2300:	8e000090 	mcrhi	0, 0, r0, cr0, cr0, {4}
    2304:	00000008 	andeq	r0, r0, r8
    2308:	00097e07 	andeq	r7, r9, r7, lsl #28
    230c:	48c50100 	stmiami	r5, {r8}^
    2310:	78000090 	stmdavc	r0, {r4, r7}
    2314:	01000000 	mrseq	r0, (UNDEF: 0)
    2318:	0003aa9c 	muleq	r3, ip, sl
    231c:	69700800 	ldmdbvs	r0!, {fp}^
    2320:	c501006e 	strgt	r0, [r1, #-110]	; 0x6e
    2324:	0000002c 	andeq	r0, r0, ip, lsr #32
    2328:	00001331 	andeq	r1, r0, r1, lsr r3
    232c:	01007608 	tsteq	r0, r8, lsl #12
    2330:	00002cc5 	andeq	r2, r0, r5, asr #25
    2334:	00136b00 	andseq	r6, r3, r0, lsl #22
    2338:	013e1800 	teqeq	lr, r0, lsl #16
    233c:	905c0000 	subsls	r0, ip, r0
    2340:	00300000 	eorseq	r0, r0, r0
    2344:	cc010000 	stcgt	0, cr0, [r1], {-0}
    2348:	0000035f 	andeq	r0, r0, pc, asr r3
    234c:	00014a13 	andeq	r4, r1, r3, lsl sl
    2350:	0013a500 	andseq	sl, r3, r0, lsl #10
    2354:	905c1900 	subsls	r1, ip, r0, lsl #18
    2358:	00300000 	eorseq	r0, r0, r0
    235c:	55140000 	ldrpl	r0, [r4, #-0]
    2360:	c6000001 	strgt	r0, [r0], -r1
    2364:	14000013 	strne	r0, [r0], #-19
    2368:	00000160 	andeq	r0, r0, r0, ror #2
    236c:	000013fc 	strdeq	r1, [r0], -ip
    2370:	0090880c 	addseq	r8, r0, ip, lsl #16
    2374:	0008af00 	andeq	sl, r8, r0, lsl #30
    2378:	51010b00 	tstpl	r1, r0, lsl #22
    237c:	01f33107 	mvnseq	r3, r7, lsl #2
    2380:	241a4f50 	ldrcs	r4, [sl], #-3920	; 0xf50
    2384:	1a000000 	bne	238c <_start-0x5c74>
    2388:	000001b0 			; <UNDEFINED> instruction: 0x000001b0
    238c:	0000908c 	andeq	r9, r0, ip, lsl #1
    2390:	00000034 	andeq	r0, r0, r4, lsr r0
    2394:	bc13ce01 	ldclt	14, cr12, [r3], {1}
    2398:	3c000001 	stccc	0, cr0, [r0], {1}
    239c:	19000014 	stmdbne	r0, {r2, r4}
    23a0:	0000908c 	andeq	r9, r0, ip, lsl #1
    23a4:	00000034 	andeq	r0, r0, r4, lsr r0
    23a8:	0001c714 	andeq	ip, r1, r4, lsl r7
    23ac:	00145d00 	andseq	r5, r4, r0, lsl #26
    23b0:	01d21400 	bicseq	r1, r2, r0, lsl #8
    23b4:	14930000 	ldrne	r0, [r3], #0
    23b8:	b80c0000 	stmdalt	ip, {}	; <UNPREDICTABLE>
    23bc:	af000090 	svcge	0x00000090
    23c0:	0b000008 	bleq	23e8 <_start-0x5c18>
    23c4:	31075101 	tstcc	r7, r1, lsl #2
    23c8:	4f5001f3 	svcmi	0x005001f3
    23cc:	0000241a 	andeq	r2, r0, sl, lsl r4
    23d0:	32070000 	andcc	r0, r7, #0
    23d4:	01000002 	tsteq	r0, r2
    23d8:	0090c0d1 	ldrsbeq	ip, [r0], r1
    23dc:	0000d800 	andeq	sp, r0, r0, lsl #16
    23e0:	2f9c0100 	svccs	0x009c0100
    23e4:	08000004 	stmdaeq	r0, {r2}
    23e8:	006e6970 	rsbeq	r6, lr, r0, ror r9
    23ec:	002cd101 	eoreq	sp, ip, r1, lsl #2
    23f0:	14d30000 	ldrbne	r0, [r3], #0
    23f4:	931b0000 	tstls	fp, #0
    23f8:	01000009 	tsteq	r0, r9
    23fc:	0000b2d1 	ldrdeq	fp, [r0], -r1
    2400:	0014f100 	andseq	pc, r4, r0, lsl #2
    2404:	08d90900 	ldmeq	r9, {r8, fp}^
    2408:	d9010000 	stmdble	r1, {}	; <UNPREDICTABLE>
    240c:	00000133 	andeq	r0, r0, r3, lsr r1
    2410:	00001512 	andeq	r1, r0, r2, lsl r5
    2414:	0009f509 	andeq	pc, r9, r9, lsl #10
    2418:	2cda0100 	ldfcse	f0, [sl], {0}
    241c:	67000000 	strvs	r0, [r0, -r0]
    2420:	09000015 	stmdbeq	r0, {r0, r2, r4}
    2424:	00000976 	andeq	r0, r0, r6, ror r9
    2428:	002ce801 	eoreq	lr, ip, r1, lsl #16
    242c:	17330000 	ldrne	r0, [r3, -r0]!
    2430:	5c0a0000 	stcpl	0, cr0, [sl], {-0}
    2434:	8e000091 	mcrhi	0, 0, r0, cr0, cr1, {4}
    2438:	1e000008 	cdpne	0, 0, cr0, cr0, cr8, {0}
    243c:	0b000004 	bleq	2454 <_start-0x5bac>
    2440:	76025001 	strvc	r5, [r2], -r1
    2444:	8c0c0000 	stchi	0, cr0, [ip], {-0}
    2448:	af000091 	svcge	0x00000091
    244c:	0b000008 	bleq	2474 <_start-0x5b8c>
    2450:	76025001 	strvc	r5, [r2], -r1
    2454:	1c000000 	stcne	0, cr0, [r0], {-0}
    2458:	00000884 	andeq	r0, r0, r4, lsl #17
    245c:	64010501 	strvs	r0, [r1], #-1281	; 0x501
    2460:	98000000 	stmdals	r0, {}	; <UNPREDICTABLE>
    2464:	2c000091 	stccs	0, cr0, [r0], {145}	; 0x91
    2468:	01000000 	mrseq	r0, (UNDEF: 0)
    246c:	0004639c 	muleq	r4, ip, r3
    2470:	08871d00 	stmeq	r7, {r8, sl, fp, ip}
    2474:	05010000 	streq	r0, [r1, #-0]
    2478:	00002c01 	andeq	r2, r0, r1, lsl #24
    247c:	00176400 	andseq	r6, r7, r0, lsl #8
    2480:	91a81700 			; <UNDEFINED> instruction: 0x91a81700
    2484:	088e0000 	stmeq	lr, {}	; <UNPREDICTABLE>
    2488:	1e000000 	cdpne	0, 0, cr0, cr0, cr0, {0}
    248c:	00000926 	andeq	r0, r0, r6, lsr #18
    2490:	c4011401 	strgt	r1, [r1], #-1025	; 0x401
    2494:	84000091 	strhi	r0, [r0], #-145	; 0x91
    2498:	01000000 	mrseq	r0, (UNDEF: 0)
    249c:	0005279c 	muleq	r5, ip, r7
    24a0:	69701f00 	ldmdbvs	r0!, {r8, r9, sl, fp, ip}^
    24a4:	1401006e 	strne	r0, [r1], #-110	; 0x6e
    24a8:	00002c01 	andeq	r2, r0, r1, lsl #24
    24ac:	00178500 	andseq	r8, r7, r0, lsl #10
    24b0:	08ab2000 	stmiaeq	fp!, {sp}
    24b4:	26010000 	strcs	r0, [r1], -r0
    24b8:	00002c01 	andeq	r2, r0, r1, lsl #24
    24bc:	0017b100 	andseq	fp, r7, r0, lsl #2
    24c0:	91e02100 	mvnls	r2, r0, lsl #2
    24c4:	001c0000 	andseq	r0, ip, r0
    24c8:	04c90000 	strbeq	r0, [r9], #0
    24cc:	76200000 	strtvc	r0, [r0], -r0
    24d0:	01000009 	tsteq	r0, r9
    24d4:	002c011d 	eoreq	r0, ip, sp, lsl r1
    24d8:	17cf0000 	strbne	r0, [pc, r0]
    24dc:	ec170000 	ldc	0, cr0, [r7], {-0}
    24e0:	8e000091 	mcrhi	0, 0, r0, cr0, cr1, {4}
    24e4:	17000008 	strne	r0, [r0, -r8]
    24e8:	000091fc 	strdeq	r9, [r0], -ip
    24ec:	000008af 	andeq	r0, r0, pc, lsr #17
    24f0:	92002100 	andls	r2, r0, #0, 2
    24f4:	00200000 	eoreq	r0, r0, r0
    24f8:	04f90000 	ldrbteq	r0, [r9], #0
    24fc:	76200000 	strtvc	r0, [r0], -r0
    2500:	01000009 	tsteq	r0, r9
    2504:	002c0121 	eoreq	r0, ip, r1, lsr #2
    2508:	17ed0000 	strbne	r0, [sp, r0]!
    250c:	0c170000 	ldceq	0, cr0, [r7], {-0}
    2510:	8e000092 	mcrhi	0, 0, r0, cr0, cr2, {4}
    2514:	17000008 	strne	r0, [r0, -r8]
    2518:	00009220 	andeq	r9, r0, r0, lsr #4
    251c:	000008af 	andeq	r0, r0, pc, lsr #17
    2520:	91d81700 	bicsls	r1, r8, r0, lsl #14
    2524:	08cb0000 	stmiaeq	fp, {}^	; <UNPREDICTABLE>
    2528:	24170000 	ldrcs	r0, [r7], #-0
    252c:	cb000092 	blgt	277c <_start-0x5884>
    2530:	17000008 	strne	r0, [r0, -r8]
    2534:	00009230 	andeq	r9, r0, r0, lsr r2
    2538:	0000088e 	andeq	r0, r0, lr, lsl #17
    253c:	00923c17 	addseq	r3, r2, r7, lsl ip
    2540:	0008af00 	andeq	sl, r8, r0, lsl #30
    2544:	92401700 	subls	r1, r0, #0, 14
    2548:	08cb0000 	stmiaeq	fp, {}^	; <UNPREDICTABLE>
    254c:	1e000000 	cdpne	0, 0, cr0, cr0, cr0, {0}
    2550:	000009df 	ldrdeq	r0, [r0], -pc	; <UNPREDICTABLE>
    2554:	48013101 	stmdami	r1, {r0, r8, ip, sp}
    2558:	84000092 	strhi	r0, [r0], #-146	; 0x92
    255c:	01000000 	mrseq	r0, (UNDEF: 0)
    2560:	0005eb9c 	muleq	r5, ip, fp
    2564:	69701f00 	ldmdbvs	r0!, {r8, r9, sl, fp, ip}^
    2568:	3101006e 	tstcc	r1, lr, rrx
    256c:	00002c01 	andeq	r2, r0, r1, lsl #24
    2570:	00180b00 	andseq	r0, r8, r0, lsl #22
    2574:	08ab2000 	stmiaeq	fp!, {sp}
    2578:	42010000 	andmi	r0, r1, #0
    257c:	00002c01 	andeq	r2, r0, r1, lsl #24
    2580:	00183700 	andseq	r3, r8, r0, lsl #14
    2584:	92642100 	rsbls	r2, r4, #0, 2
    2588:	001c0000 	andseq	r0, ip, r0
    258c:	058d0000 	streq	r0, [sp]
    2590:	76200000 	strtvc	r0, [r0], -r0
    2594:	01000009 	tsteq	r0, r9
    2598:	002c0139 	eoreq	r0, ip, r9, lsr r1
    259c:	18550000 	ldmdane	r5, {}^	; <UNPREDICTABLE>
    25a0:	70170000 	andsvc	r0, r7, r0
    25a4:	8e000092 	mcrhi	0, 0, r0, cr0, cr2, {4}
    25a8:	17000008 	strne	r0, [r0, -r8]
    25ac:	00009280 	andeq	r9, r0, r0, lsl #5
    25b0:	000008af 	andeq	r0, r0, pc, lsr #17
    25b4:	92842100 	addls	r2, r4, #0, 2
    25b8:	00200000 	eoreq	r0, r0, r0
    25bc:	05bd0000 	ldreq	r0, [sp, #0]!
    25c0:	76200000 	strtvc	r0, [r0], -r0
    25c4:	01000009 	tsteq	r0, r9
    25c8:	002c013d 	eoreq	r0, ip, sp, lsr r1
    25cc:	18730000 	ldmdane	r3!, {}^	; <UNPREDICTABLE>
    25d0:	90170000 	andsls	r0, r7, r0
    25d4:	8e000092 	mcrhi	0, 0, r0, cr0, cr2, {4}
    25d8:	17000008 	strne	r0, [r0, -r8]
    25dc:	000092a4 	andeq	r9, r0, r4, lsr #5
    25e0:	000008af 	andeq	r0, r0, pc, lsr #17
    25e4:	925c1700 	subsls	r1, ip, #0, 14
    25e8:	08cb0000 	stmiaeq	fp, {}^	; <UNPREDICTABLE>
    25ec:	a8170000 	ldmdage	r7, {}	; <UNPREDICTABLE>
    25f0:	cb000092 	blgt	2840 <_start-0x57c0>
    25f4:	17000008 	strne	r0, [r0, -r8]
    25f8:	000092b4 			; <UNDEFINED> instruction: 0x000092b4
    25fc:	0000088e 	andeq	r0, r0, lr, lsl #17
    2600:	0092c017 	addseq	ip, r2, r7, lsl r0
    2604:	0008af00 	andeq	sl, r8, r0, lsl #30
    2608:	92c41700 	sbcls	r1, r4, #0, 14
    260c:	08cb0000 	stmiaeq	fp, {}^	; <UNPREDICTABLE>
    2610:	1c000000 	stcne	0, cr0, [r0], {-0}
    2614:	00000853 	andeq	r0, r0, r3, asr r8
    2618:	64014c01 	strvs	r4, [r1], #-3073	; 0xc01
    261c:	cc000000 	stcgt	0, cr0, [r0], {-0}
    2620:	84000092 	strhi	r0, [r0], #-146	; 0x92
    2624:	01000000 	mrseq	r0, (UNDEF: 0)
    2628:	0006919c 	muleq	r6, ip, r1
    262c:	69701f00 	ldmdbvs	r0!, {r8, r9, sl, fp, ip}^
    2630:	4c01006e 	stcmi	0, cr0, [r1], {110}	; 0x6e
    2634:	00002c01 	andeq	r2, r0, r1, lsl #24
    2638:	00189100 	andseq	r9, r8, r0, lsl #2
    263c:	92e82100 	rscls	r2, r8, #0, 2
    2640:	00240000 	eoreq	r0, r4, r0
    2644:	06450000 	strbeq	r0, [r5], -r0
    2648:	c2200000 	eorgt	r0, r0, #0
    264c:	01000008 	tsteq	r0, r8
    2650:	002c0153 	eoreq	r0, ip, r3, asr r1
    2654:	18d30000 	ldmne	r3, {}^	; <UNPREDICTABLE>
    2658:	f4170000 			; <UNDEFINED> instruction: 0xf4170000
    265c:	8e000092 	mcrhi	0, 0, r0, cr0, cr2, {4}
    2660:	17000008 	strne	r0, [r0, -r8]
    2664:	00009304 	andeq	r9, r0, r4, lsl #6
    2668:	000008cb 	andeq	r0, r0, fp, asr #17
    266c:	930c2100 	movwls	r2, #49408	; 0xc100
    2670:	002c0000 	eoreq	r0, ip, r0
    2674:	067e0000 	ldrbteq	r0, [lr], -r0
    2678:	c2200000 	eorgt	r0, r0, #0
    267c:	01000008 	tsteq	r0, r8
    2680:	002c0156 	eoreq	r0, ip, r6, asr r1
    2684:	18ed0000 	stmiane	sp!, {}^	; <UNPREDICTABLE>
    2688:	18170000 	ldmdane	r7, {}	; <UNPREDICTABLE>
    268c:	8e000093 	mcrhi	0, 0, r0, cr0, cr3, {4}
    2690:	17000008 	strne	r0, [r0, -r8]
    2694:	00009324 	andeq	r9, r0, r4, lsr #6
    2698:	000008cb 	andeq	r0, r0, fp, asr #17
    269c:	00933017 	addseq	r3, r3, r7, lsl r0
    26a0:	0008cb00 	andeq	ip, r8, r0, lsl #22
    26a4:	e0170000 	ands	r0, r7, r0
    26a8:	cb000092 	blgt	28f8 <_start-0x5708>
    26ac:	17000008 	strne	r0, [r0, -r8]
    26b0:	0000933c 	andeq	r9, r0, ip, lsr r3
    26b4:	000008cb 	andeq	r0, r0, fp, asr #17
    26b8:	09491e00 	stmdbeq	r9, {r9, sl, fp, ip}^
    26bc:	5f010000 	svcpl	0x00010000
    26c0:	00935001 	addseq	r5, r3, r1
    26c4:	00005800 	andeq	r5, r0, r0, lsl #16
    26c8:	f69c0100 			; <UNDEFINED> instruction: 0xf69c0100
    26cc:	1f000006 	svcne	0x00000006
    26d0:	006e6970 	rsbeq	r6, lr, r0, ror r9
    26d4:	2c015f01 	stccs	15, cr5, [r1], {1}
    26d8:	00000000 	andeq	r0, r0, r0
    26dc:	17000019 	smladne	r0, r9, r0, r0
    26e0:	00009364 	andeq	r9, r0, r4, ror #6
    26e4:	000008cb 	andeq	r0, r0, fp, asr #17
    26e8:	0093800a 	addseq	r8, r3, sl
    26ec:	0008af00 	andeq	sl, r8, r0, lsl #30
    26f0:	0006d600 	andeq	sp, r6, r0, lsl #12
    26f4:	51010b00 	tstpl	r1, r0, lsl #22
    26f8:	00743104 	rsbseq	r3, r4, r4, lsl #2
    26fc:	9c0a0024 	stcls	0, cr0, [sl], {36}	; 0x24
    2700:	af000093 	svcge	0x00000093
    2704:	ec000008 	stc	0, cr0, [r0], {8}
    2708:	0b000006 	bleq	2728 <_start-0x58d8>
    270c:	31045101 	tstcc	r4, r1, lsl #2
    2710:	00240074 	eoreq	r0, r4, r4, ror r0
    2714:	0093a017 	addseq	sl, r3, r7, lsl r0
    2718:	0008cb00 	andeq	ip, r8, r0, lsl #22
    271c:	0a220000 	beq	882724 <__bss_end__+0x873eb4>
    2720:	01000009 	tsteq	r0, r9
    2724:	00013328 	andeq	r3, r1, r8, lsr #6
    2728:	0c030500 	cfstr32eq	mvfx0, [r3], {-0}
    272c:	2200009f 	andcs	r0, r0, #159	; 0x9f
    2730:	00000989 	andeq	r0, r0, r9, lsl #19
    2734:	01332901 	teqeq	r3, r1, lsl #18
    2738:	03050000 	movweq	r0, #20480	; 0x5000
    273c:	00009f08 	andeq	r9, r0, r8, lsl #30
    2740:	000a0022 	andeq	r0, sl, r2, lsr #32
    2744:	332a0100 	teqcc	sl, #0, 2
    2748:	05000001 	streq	r0, [r0, #-1]
    274c:	009f0403 	addseq	r0, pc, r3, lsl #8
    2750:	08e22200 	stmiaeq	r2!, {r9, sp}^
    2754:	2c010000 	stccs	0, cr0, [r1], {-0}
    2758:	00000133 	andeq	r0, r0, r3, lsr r1
    275c:	9eb00305 	cdpls	3, 11, cr0, cr0, cr5, {0}
    2760:	ea220000 	b	882768 <__bss_end__+0x873ef8>
    2764:	01000008 	tsteq	r0, r8
    2768:	0001332d 	andeq	r3, r1, sp, lsr #6
    276c:	b4030500 	strlt	r0, [r3], #-1280	; 0x500
    2770:	2200009e 	andcs	r0, r0, #158	; 0x9e
    2774:	00000867 	andeq	r0, r0, r7, ror #16
    2778:	01332e01 	teqeq	r3, r1, lsl #28
    277c:	03050000 	movweq	r0, #20480	; 0x5000
    2780:	00009eb8 			; <UNDEFINED> instruction: 0x00009eb8
    2784:	0008f222 	andeq	pc, r8, r2, lsr #4
    2788:	332f0100 	teqcc	pc, #0, 2
    278c:	05000001 	streq	r0, [r0, #-1]
    2790:	009ebc03 	addseq	fp, lr, r3, lsl #24
    2794:	08fa2200 	ldmeq	sl!, {r9, sp}^
    2798:	30010000 	andcc	r0, r1, r0
    279c:	00000133 	andeq	r0, r0, r3, lsr r1
    27a0:	9ec00305 	cdpls	3, 12, cr0, cr0, cr5, {0}
    27a4:	02220000 	eoreq	r0, r2, #0
    27a8:	01000009 	tsteq	r0, r9
    27ac:	00013331 	andeq	r3, r1, r1, lsr r3
    27b0:	c4030500 	strgt	r0, [r3], #-1280	; 0x500
    27b4:	2200009e 	andcs	r0, r0, #158	; 0x9e
    27b8:	000008b4 			; <UNDEFINED> instruction: 0x000008b4
    27bc:	01333301 	teqeq	r3, r1, lsl #6
    27c0:	03050000 	movweq	r0, #20480	; 0x5000
    27c4:	00009ec8 	andeq	r9, r0, r8, asr #29
    27c8:	0008bb22 	andeq	fp, r8, r2, lsr #22
    27cc:	33340100 	teqcc	r4, #0, 2
    27d0:	05000001 	streq	r0, [r0, #-1]
    27d4:	009ecc03 	addseq	ip, lr, r3, lsl #24
    27d8:	086f2200 	stmdaeq	pc!, {r9, sp}^	; <UNPREDICTABLE>
    27dc:	36010000 	strcc	r0, [r1], -r0
    27e0:	00000133 	andeq	r0, r0, r3, lsr r1
    27e4:	9ed00305 	cdpls	3, 13, cr0, cr0, cr5, {0}
    27e8:	15220000 	strne	r0, [r2, #-0]!
    27ec:	01000009 	tsteq	r0, r9
    27f0:	00013337 	andeq	r3, r1, r7, lsr r3
    27f4:	d4030500 	strle	r0, [r3], #-1280	; 0x500
    27f8:	2200009e 	andcs	r0, r0, #158	; 0x9e
    27fc:	000008cb 	andeq	r0, r0, fp, asr #17
    2800:	01333901 	teqeq	r3, r1, lsl #18
    2804:	03050000 	movweq	r0, #20480	; 0x5000
    2808:	00009ed8 	ldrdeq	r9, [r0], -r8
    280c:	0008d222 	andeq	sp, r8, r2, lsr #4
    2810:	333a0100 	teqcc	sl, #0, 2
    2814:	05000001 	streq	r0, [r0, #-1]
    2818:	009edc03 	addseq	sp, lr, r3, lsl #24
    281c:	095a2200 	ldmdbeq	sl, {r9, sp}^
    2820:	f0010000 			; <UNDEFINED> instruction: 0xf0010000
    2824:	00000133 	andeq	r0, r0, r3, lsr r1
    2828:	9f000305 	svcls	0x00000305
    282c:	68220000 	stmdavs	r2!, {}	; <UNPREDICTABLE>
    2830:	01000009 	tsteq	r0, r9
    2834:	000133f1 	strdeq	r3, [r1], -r1
    2838:	e0030500 	and	r0, r3, r0, lsl #10
    283c:	2200009e 	andcs	r0, r0, #158	; 0x9e
    2840:	000009a7 	andeq	r0, r0, r7, lsr #19
    2844:	0133f301 	teqeq	r3, r1, lsl #6
    2848:	03050000 	movweq	r0, #20480	; 0x5000
    284c:	00009ef8 	strdeq	r9, [r0], -r8
    2850:	0009ae22 	andeq	sl, r9, r2, lsr #28
    2854:	33f40100 	mvnscc	r0, #0, 2
    2858:	05000001 	streq	r0, [r0, #-1]
    285c:	009efc03 	addseq	pc, lr, r3, lsl #24
    2860:	093b2200 	ldmdbeq	fp!, {r9, sp}
    2864:	f6010000 			; <UNDEFINED> instruction: 0xf6010000
    2868:	00000133 	andeq	r0, r0, r3, lsr r1
    286c:	9ee40305 	cdpls	3, 14, cr0, cr4, cr5, {0}
    2870:	42220000 	eormi	r0, r2, #0
    2874:	01000009 	tsteq	r0, r9
    2878:	000133f7 	strdeq	r3, [r1], -r7
    287c:	e8030500 	stmda	r3, {r8, sl}
    2880:	2200009e 	andcs	r0, r0, #158	; 0x9e
    2884:	000009c1 	andeq	r0, r0, r1, asr #19
    2888:	0133f901 	teqeq	r3, r1, lsl #18
    288c:	03050000 	movweq	r0, #20480	; 0x5000
    2890:	00009ef0 	strdeq	r9, [r0], -r0
    2894:	0009c822 	andeq	ip, r9, r2, lsr #16
    2898:	33fa0100 	mvnscc	r0, #0, 2
    289c:	05000001 	streq	r0, [r0, #-1]
    28a0:	009ef403 	addseq	pc, lr, r3, lsl #8
    28a4:	08762200 	ldmdaeq	r6!, {r9, sp}^
    28a8:	fc010000 	stc2	0, cr0, [r1], {-0}
    28ac:	00000133 	andeq	r0, r0, r3, lsr r1
    28b0:	9eec0305 	cdpls	3, 14, cr0, cr12, cr5, {0}
    28b4:	57230000 	strpl	r0, [r3, -r0]!
    28b8:	01000004 	tsteq	r0, r4
    28bc:	00002c20 	andeq	r2, r0, r0, lsr #24
    28c0:	0008a300 	andeq	sl, r8, r0, lsl #6
    28c4:	08a32400 	stmiaeq	r3!, {sl, sp}
    28c8:	0d000000 	stceq	0, cr0, [r0, #-0]
    28cc:	0008a904 	andeq	sl, r8, r4, lsl #18
    28d0:	08ae2500 	stmiaeq	lr!, {r8, sl, sp}
    28d4:	27260000 	strcs	r0, [r6, -r0]!
    28d8:	000003cb 	andeq	r0, r0, fp, asr #7
    28dc:	08c51e01 	stmiaeq	r5, {r0, r9, sl, fp, ip}^
    28e0:	c5240000 	strgt	r0, [r4, #-0]!
    28e4:	24000008 	strcs	r0, [r0], #-8
    28e8:	0000002c 	andeq	r0, r0, ip, lsr #32
    28ec:	ae040d00 	cdpge	13, 0, cr0, cr4, cr0, {0}
    28f0:	28000008 	stmdacs	r0, {r3}
    28f4:	000000e0 	andeq	r0, r0, r0, ror #1
    28f8:	ca008703 	bgt	2450c <__bss_end__+0x15c9c>
    28fc:	04000011 	streq	r0, [r0], #-17
    2900:	000eaf00 	andeq	sl, lr, r0, lsl #30
    2904:	55010400 	strpl	r0, [r1, #-1024]	; 0x400
    2908:	01000003 	tsteq	r0, r3
    290c:	00000a9f 	muleq	r0, pc, sl	; <UNPREDICTABLE>
    2910:	00000547 	andeq	r0, r0, r7, asr #10
    2914:	000093a8 	andeq	r9, r0, r8, lsr #7
    2918:	00000620 	andeq	r0, r0, r0, lsr #12
    291c:	00000d6c 	andeq	r0, r0, ip, ror #26
    2920:	69050402 	stmdbvs	r5, {r1, sl}
    2924:	0300746e 	movweq	r7, #1134	; 0x46e
    2928:	00620704 	rsbeq	r0, r2, r4, lsl #14
    292c:	01030000 	mrseq	r0, (UNDEF: 3)
    2930:	0002ba06 	andeq	fp, r2, r6, lsl #20
    2934:	05020300 	streq	r0, [r2, #-768]	; 0x300
    2938:	000002ce 	andeq	r0, r0, lr, asr #5
    293c:	93050403 	movwls	r0, #21507	; 0x5403
    2940:	03000000 	movweq	r0, #0
    2944:	008e0508 	addeq	r0, lr, r8, lsl #10
    2948:	4f040000 	svcmi	0x00040000
    294c:	03000004 	movweq	r0, #4
    2950:	00005a2e 	andeq	r5, r0, lr, lsr #20
    2954:	08010300 	stmdaeq	r1, {r8, r9}
    2958:	000002b8 			; <UNDEFINED> instruction: 0x000002b8
    295c:	a7070203 	strge	r0, [r7, -r3, lsl #4]
    2960:	04000001 	streq	r0, [r0], #-1
    2964:	00000347 	andeq	r0, r0, r7, asr #6
    2968:	00733403 	rsbseq	r3, r3, r3, lsl #8
    296c:	04030000 	streq	r0, [r3], #-0
    2970:	00005d07 	andeq	r5, r0, r7, lsl #26
    2974:	07080300 	streq	r0, [r8, -r0, lsl #6]
    2978:	00000058 	andeq	r0, r0, r8, asr r0
    297c:	29070403 	stmdbcs	r7, {r0, r1, sl}
    2980:	05000002 	streq	r0, [r0, #-2]
    2984:	90040604 	andls	r0, r4, r4, lsl #12
    2988:	03000000 	movweq	r0, #0
    298c:	02c10801 	sbceq	r0, r1, #65536	; 0x10000
    2990:	04060000 	streq	r0, [r6], #-0
    2994:	0000009d 	muleq	r0, sp, r0
    2998:	00009007 	andeq	r9, r0, r7
    299c:	040c0800 	streq	r0, [ip], #-2048	; 0x800
    29a0:	0000d90e 	andeq	sp, r0, lr, lsl #18
    29a4:	78740900 	ldmdavc	r4!, {r8, fp}^
    29a8:	4f0f0400 	svcmi	0x000f0400
    29ac:	00000000 	andeq	r0, r0, r0
    29b0:	00787209 	rsbseq	r7, r8, r9, lsl #4
    29b4:	004f0f04 	subeq	r0, pc, r4, lsl #30
    29b8:	0a010000 	beq	429c0 <__bss_end__+0x34150>
    29bc:	00000350 	andeq	r0, r0, r0, asr r3
    29c0:	00681004 	rsbeq	r1, r8, r4
    29c4:	0a040000 	beq	1029cc <__bss_end__+0xf415c>
    29c8:	000004e4 	andeq	r0, r0, r4, ror #9
    29cc:	00681104 	rsbeq	r1, r8, r4, lsl #2
    29d0:	00080000 	andeq	r0, r8, r0
    29d4:	0002ae04 	andeq	sl, r2, r4, lsl #28
    29d8:	a2120400 	andsge	r0, r2, #0, 8
    29dc:	04000000 	streq	r0, [r0], #-0
    29e0:	0000058b 	andeq	r0, r0, fp, lsl #11
    29e4:	00ef2805 	rsceq	r2, pc, r5, lsl #16
    29e8:	b20b0000 	andlt	r0, fp, #0
    29ec:	04000005 	streq	r0, [r0], #-5
    29f0:	01060009 	tsteq	r6, r9
    29f4:	c10c0000 	mrsgt	r0, (UNDEF: 12)
    29f8:	88000005 	stmdahi	r0, {r0, r2}
    29fc:	00000000 	andeq	r0, r0, r0
    2a00:	05b40400 	ldreq	r0, [r4, #1024]!	; 0x400
    2a04:	62050000 	andvs	r0, r5, #0
    2a08:	000000e4 	andeq	r0, r0, r4, ror #1
    2a0c:	000a630d 	andeq	r6, sl, sp, lsl #6
    2a10:	03090200 	movweq	r0, #37376	; 0x9200
    2a14:	0000013f 	andeq	r0, r0, pc, lsr r1
    2a18:	0007160e 	andeq	r1, r7, lr, lsl #12
    2a1c:	2c090200 	sfmcs	f0, 4, [r9], {-0}
    2a20:	0f000000 	svceq	0x00000000
    2a24:	0902006e 	stmdbeq	r2, {r1, r2, r3, r5, r6}
    2a28:	0000002c 	andeq	r0, r0, ip, lsr #32
    2a2c:	0acd1110 	beq	ff346e74 <__bss_end__+0xff338604>
    2a30:	0c020000 	stceq	0, cr0, [r2], {-0}
    2a34:	0000002c 	andeq	r0, r0, ip, lsr #32
    2a38:	160d0000 	strne	r0, [sp], -r0
    2a3c:	0200000a 	andeq	r0, r0, #10
    2a40:	01760317 	cmneq	r6, r7, lsl r3
    2a44:	700f0000 	andvc	r0, pc, r0
    2a48:	02006e69 	andeq	r6, r0, #1680	; 0x690
    2a4c:	00002c17 	andeq	r2, r0, r7, lsl ip
    2a50:	00760f00 	rsbseq	r0, r6, r0, lsl #30
    2a54:	002c1702 	eoreq	r1, ip, r2, lsl #14
    2a58:	160e0000 	strne	r0, [lr], -r0
    2a5c:	02000007 	andeq	r0, r0, #7
    2a60:	00002c17 	andeq	r2, r0, r7, lsl ip
    2a64:	0a690e00 	beq	1a4626c <__bss_end__+0x1a379fc>
    2a68:	17020000 	strne	r0, [r2, -r0]
    2a6c:	0000002c 	andeq	r0, r0, ip, lsr #32
    2a70:	07271200 	streq	r1, [r7, -r0, lsl #4]!
    2a74:	09010000 	stmdbeq	r1, {}	; <UNPREDICTABLE>
    2a78:	000093a8 	andeq	r9, r0, r8, lsr #7
    2a7c:	00000154 	andeq	r0, r0, r4, asr r1
    2a80:	07229c01 	streq	r9, [r2, -r1, lsl #24]!
    2a84:	d8130000 	ldmdale	r3, {}	; <UNPREDICTABLE>
    2a88:	01000006 	tsteq	r0, r6
    2a8c:	00072209 	andeq	r2, r7, r9, lsl #4
    2a90:	00192c00 	andseq	r2, r9, r0, lsl #24
    2a94:	00631400 	rsbeq	r1, r3, r0, lsl #8
    2a98:	005a0901 	subseq	r0, sl, r1, lsl #18
    2a9c:	194d0000 	stmdbne	sp, {}^	; <UNPREDICTABLE>
    2aa0:	74150000 	ldrvc	r0, [r5], #-0
    2aa4:	0b010078 	bleq	42c8c <__bss_end__+0x3441c>
    2aa8:	00000025 	andeq	r0, r0, r5, lsr #32
    2aac:	08007606 	stmdaeq	r0, {r1, r2, r9, sl, ip, sp, lr}
    2ab0:	169f1aff 			; <UNDEFINED> instruction: 0x169f1aff
    2ab4:	0c01006e 	stceq	0, cr0, [r1], {110}	; 0x6e
    2ab8:	00000068 	andeq	r0, r0, r8, rrx
    2abc:	0000196e 	andeq	r1, r0, lr, ror #18
    2ac0:	01007516 	tsteq	r0, r6, lsl r5
    2ac4:	0000680d 	andeq	r6, r0, sp, lsl #16
    2ac8:	00198100 	andseq	r8, r9, r0, lsl #2
    2acc:	00731500 	rsbseq	r1, r3, r0, lsl #10
    2ad0:	00680e01 	rsbeq	r0, r8, r1, lsl #28
    2ad4:	54010000 	strpl	r0, [r1], #-0
    2ad8:	0093b817 	addseq	fp, r3, r7, lsl r8
    2adc:	00000400 	andeq	r0, r0, r0, lsl #8
    2ae0:	0001f800 	andeq	pc, r1, r0, lsl #16
    2ae4:	0acd1800 	beq	ff348aec <__bss_end__+0xff33a27c>
    2ae8:	0e010000 	cdpeq	0, 0, cr0, cr1, cr0, {0}
    2aec:	0000002c 	andeq	r0, r0, ip, lsr #32
    2af0:	19005401 	stmdbne	r0, {r0, sl, ip, lr}
    2af4:	0000013f 	andeq	r0, r0, pc, lsr r1
    2af8:	000093bc 			; <UNDEFINED> instruction: 0x000093bc
    2afc:	0000001c 	andeq	r0, r0, ip, lsl r0
    2b00:	02751101 	rsbseq	r1, r5, #1073741824	; 0x40000000
    2b04:	6a1a0000 	bvs	682b0c <__bss_end__+0x67429c>
    2b08:	aa000001 	bge	2b14 <_start-0x54ec>
    2b0c:	1b000019 	blne	2b78 <_start-0x5488>
    2b10:	0000015f 	andeq	r0, r0, pc, asr r1
    2b14:	561c5401 	ldrpl	r5, [ip], -r1, lsl #8
    2b18:	00000001 	andeq	r0, r0, r1
    2b1c:	00014b1b 	andeq	r4, r1, fp, lsl fp
    2b20:	19560100 	ldmdbne	r6, {r8}^
    2b24:	00000111 	andeq	r0, r0, r1, lsl r1
    2b28:	000093c8 	andeq	r9, r0, r8, asr #7
    2b2c:	00000010 	andeq	r0, r0, r0, lsl r0
    2b30:	025f1a02 	subseq	r1, pc, #8192	; 0x2000
    2b34:	281a0000 	ldmdacs	sl, {}	; <UNPREDICTABLE>
    2b38:	bd000001 	stclt	0, cr0, [r0, #-4]
    2b3c:	1b000019 	blne	2ba8 <_start-0x5458>
    2b40:	0000011d 	andeq	r0, r0, sp, lsl r1
    2b44:	c81d5401 	ldmdagt	sp, {r0, sl, ip, lr}
    2b48:	04000093 	streq	r0, [r0], #-147	; 0x93
    2b4c:	1e000000 	cdpne	0, 0, cr0, cr0, cr0, {0}
    2b50:	00000132 	andeq	r0, r0, r2, lsr r1
    2b54:	000019d0 	ldrdeq	r1, [r0], -r0
    2b58:	c81f0000 	ldmdagt	pc, {}	; <UNPREDICTABLE>
    2b5c:	31000093 	swpcc	r0, r3, [r0]	; <UNPREDICTABLE>
    2b60:	20000011 	andcs	r0, r0, r1, lsl r0
    2b64:	30015101 	andcc	r5, r1, r1, lsl #2
    2b68:	02500120 	subseq	r0, r0, #32, 2
    2b6c:	00000076 	andeq	r0, r0, r6, ror r0
    2b70:	00013f19 	andeq	r3, r1, r9, lsl pc
    2b74:	0093dc00 	addseq	sp, r3, r0, lsl #24
    2b78:	00001c00 	andeq	r1, r0, r0, lsl #24
    2b7c:	f8130100 			; <UNDEFINED> instruction: 0xf8130100
    2b80:	1a000002 	bne	2b90 <_start-0x5470>
    2b84:	0000016a 	andeq	r0, r0, sl, ror #2
    2b88:	000019e3 	andeq	r1, r0, r3, ror #19
    2b8c:	00015f1b 	andeq	r5, r1, fp, lsl pc
    2b90:	1a540100 	bne	1502f98 <__bss_end__+0x14f4728>
    2b94:	00000156 	andeq	r0, r0, r6, asr r1
    2b98:	00001a05 	andeq	r1, r0, r5, lsl #20
    2b9c:	00014b1b 	andeq	r4, r1, fp, lsl fp
    2ba0:	19560100 	ldmdbne	r6, {r8}^
    2ba4:	00000111 	andeq	r0, r0, r1, lsl r1
    2ba8:	000093e8 	andeq	r9, r0, r8, ror #7
    2bac:	00000010 	andeq	r0, r0, r0, lsl r0
    2bb0:	02df1a02 	sbcseq	r1, pc, #8192	; 0x2000
    2bb4:	281a0000 	ldmdacs	sl, {}	; <UNPREDICTABLE>
    2bb8:	36000001 	strcc	r0, [r0], -r1
    2bbc:	1b00001a 	blne	2c2c <_start-0x53d4>
    2bc0:	0000011d 	andeq	r0, r0, sp, lsl r1
    2bc4:	e81d5401 	ldmda	sp, {r0, sl, ip, lr}
    2bc8:	04000093 	streq	r0, [r0], #-147	; 0x93
    2bcc:	1e000000 	cdpne	0, 0, cr0, cr0, cr0, {0}
    2bd0:	00000132 	andeq	r0, r0, r2, lsr r1
    2bd4:	00001a58 	andeq	r1, r0, r8, asr sl
    2bd8:	e81f0000 	ldmda	pc, {}	; <UNPREDICTABLE>
    2bdc:	31000093 	swpcc	r0, r3, [r0]	; <UNPREDICTABLE>
    2be0:	20000011 	andcs	r0, r0, r1, lsl r0
    2be4:	77045101 	strvc	r5, [r4, -r1, lsl #2]
    2be8:	201a3100 	andscs	r3, sl, r0, lsl #2
    2bec:	76025001 	strvc	r5, [r2], -r1
    2bf0:	19000000 	stmdbne	r0, {}	; <UNPREDICTABLE>
    2bf4:	0000013f 	andeq	r0, r0, pc, lsr r1
    2bf8:	000093fc 	strdeq	r9, [r0], -ip
    2bfc:	0000001c 	andeq	r0, r0, ip, lsl r0
    2c00:	03801501 	orreq	r1, r0, #4194304	; 0x400000
    2c04:	6a1a0000 	bvs	682c0c <__bss_end__+0x67439c>
    2c08:	6b000001 	blvs	2c14 <_start-0x53ec>
    2c0c:	1b00001a 	blne	2c7c <_start-0x5384>
    2c10:	0000015f 	andeq	r0, r0, pc, asr r1
    2c14:	561b5401 	ldrpl	r5, [fp], -r1, lsl #8
    2c18:	08000001 	stmdaeq	r0, {r0}
    2c1c:	1a320077 	bne	c82e00 <__bss_end__+0xc74590>
    2c20:	9f1aff08 	svcls	0x001aff08
    2c24:	00014b1b 	andeq	r4, r1, fp, lsl fp
    2c28:	19560100 	ldmdbne	r6, {r8}^
    2c2c:	00000111 	andeq	r0, r0, r1, lsl r1
    2c30:	00009408 	andeq	r9, r0, r8, lsl #8
    2c34:	00000010 	andeq	r0, r0, r0, lsl r0
    2c38:	03671a02 	cmneq	r7, #8192	; 0x2000
    2c3c:	281a0000 	ldmdacs	sl, {}	; <UNPREDICTABLE>
    2c40:	90000001 	andls	r0, r0, r1
    2c44:	1b00001a 	blne	2cb4 <_start-0x534c>
    2c48:	0000011d 	andeq	r0, r0, sp, lsl r1
    2c4c:	081d5401 	ldmdaeq	sp, {r0, sl, ip, lr}
    2c50:	04000094 	streq	r0, [r0], #-148	; 0x94
    2c54:	1e000000 	cdpne	0, 0, cr0, cr0, cr0, {0}
    2c58:	00000132 	andeq	r0, r0, r2, lsr r1
    2c5c:	00001ab5 			; <UNDEFINED> instruction: 0x00001ab5
    2c60:	081f0000 	ldmdaeq	pc, {}	; <UNPREDICTABLE>
    2c64:	31000094 	swpcc	r0, r4, [r0]	; <UNPREDICTABLE>
    2c68:	20000011 	andcs	r0, r0, r1, lsl r0
    2c6c:	77045101 	strvc	r5, [r4, -r1, lsl #2]
    2c70:	201a3200 	andscs	r3, sl, r0, lsl #4
    2c74:	76025001 	strvc	r5, [r2], -r1
    2c78:	19000000 	stmdbne	r0, {}	; <UNPREDICTABLE>
    2c7c:	0000013f 	andeq	r0, r0, pc, lsr r1
    2c80:	0000941c 	andeq	r9, r0, ip, lsl r4
    2c84:	0000001c 	andeq	r0, r0, ip, lsl r0
    2c88:	04081701 	streq	r1, [r8], #-1793	; 0x701
    2c8c:	6a1a0000 	bvs	682c94 <__bss_end__+0x674424>
    2c90:	c8000001 	stmdagt	r0, {r0}
    2c94:	1b00001a 	blne	2d04 <_start-0x52fc>
    2c98:	0000015f 	andeq	r0, r0, pc, asr r1
    2c9c:	561b5401 	ldrpl	r5, [fp], -r1, lsl #8
    2ca0:	08000001 	stmdaeq	r0, {r0}
    2ca4:	1a340077 	bne	d02e88 <__bss_end__+0xcf4618>
    2ca8:	9f1aff08 	svcls	0x001aff08
    2cac:	00014b1b 	andeq	r4, r1, fp, lsl fp
    2cb0:	19560100 	ldmdbne	r6, {r8}^
    2cb4:	00000111 	andeq	r0, r0, r1, lsl r1
    2cb8:	00009428 	andeq	r9, r0, r8, lsr #8
    2cbc:	00000010 	andeq	r0, r0, r0, lsl r0
    2cc0:	03ef1a02 	mvneq	r1, #8192	; 0x2000
    2cc4:	281a0000 	ldmdacs	sl, {}	; <UNPREDICTABLE>
    2cc8:	ea000001 	b	2cd4 <_start-0x532c>
    2ccc:	1b00001a 	blne	2d3c <_start-0x52c4>
    2cd0:	0000011d 	andeq	r0, r0, sp, lsl r1
    2cd4:	281d5401 	ldmdacs	sp, {r0, sl, ip, lr}
    2cd8:	04000094 	streq	r0, [r0], #-148	; 0x94
    2cdc:	1e000000 	cdpne	0, 0, cr0, cr0, cr0, {0}
    2ce0:	00000132 	andeq	r0, r0, r2, lsr r1
    2ce4:	00001b0c 	andeq	r1, r0, ip, lsl #22
    2ce8:	281f0000 	ldmdacs	pc, {}	; <UNPREDICTABLE>
    2cec:	31000094 	swpcc	r0, r4, [r0]	; <UNPREDICTABLE>
    2cf0:	20000011 	andcs	r0, r0, r1, lsl r0
    2cf4:	77045101 	strvc	r5, [r4, -r1, lsl #2]
    2cf8:	201a3400 	andscs	r3, sl, r0, lsl #8
    2cfc:	76025001 	strvc	r5, [r2], -r1
    2d00:	19000000 	stmdbne	r0, {}	; <UNPREDICTABLE>
    2d04:	0000013f 	andeq	r0, r0, pc, lsr r1
    2d08:	0000943c 	andeq	r9, r0, ip, lsr r4
    2d0c:	0000001c 	andeq	r0, r0, ip, lsl r0
    2d10:	04901901 	ldreq	r1, [r0], #2305	; 0x901
    2d14:	6a1a0000 	bvs	682d1c <__bss_end__+0x6744ac>
    2d18:	1f000001 	svcne	0x00000001
    2d1c:	1b00001b 	blne	2d90 <_start-0x5270>
    2d20:	0000015f 	andeq	r0, r0, pc, asr r1
    2d24:	561b5401 	ldrpl	r5, [fp], -r1, lsl #8
    2d28:	08000001 	stmdaeq	r0, {r0}
    2d2c:	1a380077 	bne	e02f10 <__bss_end__+0xdf46a0>
    2d30:	9f1aff08 	svcls	0x001aff08
    2d34:	00014b1b 	andeq	r4, r1, fp, lsl fp
    2d38:	19560100 	ldmdbne	r6, {r8}^
    2d3c:	00000111 	andeq	r0, r0, r1, lsl r1
    2d40:	00009448 	andeq	r9, r0, r8, asr #8
    2d44:	00000010 	andeq	r0, r0, r0, lsl r0
    2d48:	04771a02 	ldrbteq	r1, [r7], #-2562	; 0xa02
    2d4c:	281a0000 	ldmdacs	sl, {}	; <UNPREDICTABLE>
    2d50:	44000001 	strmi	r0, [r0], #-1
    2d54:	1b00001b 	blne	2dc8 <_start-0x5238>
    2d58:	0000011d 	andeq	r0, r0, sp, lsl r1
    2d5c:	481d5401 	ldmdami	sp, {r0, sl, ip, lr}
    2d60:	04000094 	streq	r0, [r0], #-148	; 0x94
    2d64:	1e000000 	cdpne	0, 0, cr0, cr0, cr0, {0}
    2d68:	00000132 	andeq	r0, r0, r2, lsr r1
    2d6c:	00001b69 	andeq	r1, r0, r9, ror #22
    2d70:	481f0000 	ldmdami	pc, {}	; <UNPREDICTABLE>
    2d74:	31000094 	swpcc	r0, r4, [r0]	; <UNPREDICTABLE>
    2d78:	20000011 	andcs	r0, r0, r1, lsl r0
    2d7c:	77045101 	strvc	r5, [r4, -r1, lsl #2]
    2d80:	201a3800 	andscs	r3, sl, r0, lsl #16
    2d84:	76025001 	strvc	r5, [r2], -r1
    2d88:	19000000 	stmdbne	r0, {}	; <UNPREDICTABLE>
    2d8c:	0000013f 	andeq	r0, r0, pc, lsr r1
    2d90:	0000945c 	andeq	r9, r0, ip, asr r4
    2d94:	0000001c 	andeq	r0, r0, ip, lsl r0
    2d98:	05181b01 	ldreq	r1, [r8, #-2817]	; 0xb01
    2d9c:	6a1a0000 	bvs	682da4 <__bss_end__+0x674534>
    2da0:	7c000001 	stcvc	0, cr0, [r0], {1}
    2da4:	1b00001b 	blne	2e18 <_start-0x51e8>
    2da8:	0000015f 	andeq	r0, r0, pc, asr r1
    2dac:	561b5401 	ldrpl	r5, [fp], -r1, lsl #8
    2db0:	08000001 	stmdaeq	r0, {r0}
    2db4:	1a400077 	bne	1002f98 <__bss_end__+0xff4728>
    2db8:	9f1aff08 	svcls	0x001aff08
    2dbc:	00014b1b 	andeq	r4, r1, fp, lsl fp
    2dc0:	19560100 	ldmdbne	r6, {r8}^
    2dc4:	00000111 	andeq	r0, r0, r1, lsl r1
    2dc8:	00009468 	andeq	r9, r0, r8, ror #8
    2dcc:	00000010 	andeq	r0, r0, r0, lsl r0
    2dd0:	04ff1a02 	ldrbteq	r1, [pc], #2562	; 2dd8 <_start-0x5228>
    2dd4:	281a0000 	ldmdacs	sl, {}	; <UNPREDICTABLE>
    2dd8:	a3000001 	movwge	r0, #1
    2ddc:	1b00001b 	blne	2e50 <_start-0x51b0>
    2de0:	0000011d 	andeq	r0, r0, sp, lsl r1
    2de4:	681d5401 	ldmdavs	sp, {r0, sl, ip, lr}
    2de8:	04000094 	streq	r0, [r0], #-148	; 0x94
    2dec:	1e000000 	cdpne	0, 0, cr0, cr0, cr0, {0}
    2df0:	00000132 	andeq	r0, r0, r2, lsr r1
    2df4:	00001bca 	andeq	r1, r0, sl, asr #23
    2df8:	681f0000 	ldmdavs	pc, {}	; <UNPREDICTABLE>
    2dfc:	31000094 	swpcc	r0, r4, [r0]	; <UNPREDICTABLE>
    2e00:	20000011 	andcs	r0, r0, r1, lsl r0
    2e04:	77045101 	strvc	r5, [r4, -r1, lsl #2]
    2e08:	201a4000 	andscs	r4, sl, r0
    2e0c:	76025001 	strvc	r5, [r2], -r1
    2e10:	19000000 	stmdbne	r0, {}	; <UNPREDICTABLE>
    2e14:	0000013f 	andeq	r0, r0, pc, lsr r1
    2e18:	0000947c 	andeq	r9, r0, ip, ror r4
    2e1c:	0000001c 	andeq	r0, r0, ip, lsl r0
    2e20:	05a21d01 	streq	r1, [r2, #3329]!	; 0xd01
    2e24:	6a1a0000 	bvs	682e2c <__bss_end__+0x6745bc>
    2e28:	dd000001 	stcle	0, cr0, [r0, #-4]
    2e2c:	1b00001b 	blne	2ea0 <_start-0x5160>
    2e30:	0000015f 	andeq	r0, r0, pc, asr r1
    2e34:	561b5401 	ldrpl	r5, [fp], -r1, lsl #8
    2e38:	09000001 	stmdbeq	r0, {r0}
    2e3c:	20080077 	andcs	r0, r8, r7, ror r0
    2e40:	1aff081a 	bne	fffc4eb0 <__bss_end__+0xfffb6640>
    2e44:	014b1b9f 			; <UNDEFINED> instruction: 0x014b1b9f
    2e48:	56010000 	strpl	r0, [r1], -r0
    2e4c:	00011119 	andeq	r1, r1, r9, lsl r1
    2e50:	00948800 	addseq	r8, r4, r0, lsl #16
    2e54:	00001000 	andeq	r1, r0, r0
    2e58:	881a0200 	ldmdahi	sl, {r9}
    2e5c:	1a000005 	bne	2e78 <_start-0x5188>
    2e60:	00000128 	andeq	r0, r0, r8, lsr #2
    2e64:	00001c07 	andeq	r1, r0, r7, lsl #24
    2e68:	00011d1b 	andeq	r1, r1, fp, lsl sp
    2e6c:	1d540100 	ldfnee	f0, [r4, #-0]
    2e70:	00009488 	andeq	r9, r0, r8, lsl #9
    2e74:	00000004 	andeq	r0, r0, r4
    2e78:	0001321e 	andeq	r3, r1, lr, lsl r2
    2e7c:	001c3100 	andseq	r3, ip, r0, lsl #2
    2e80:	1f000000 	svcne	0x00000000
    2e84:	00009488 	andeq	r9, r0, r8, lsl #9
    2e88:	00001131 	andeq	r1, r0, r1, lsr r1
    2e8c:	05510120 	ldrbeq	r0, [r1, #-288]	; 0x120
    2e90:	20080077 	andcs	r0, r8, r7, ror r0
    2e94:	5001201a 	andpl	r2, r1, sl, lsl r0
    2e98:	00007602 	andeq	r7, r0, r2, lsl #12
    2e9c:	013f1900 	teqeq	pc, r0, lsl #18
    2ea0:	949c0000 	ldrls	r0, [ip], #0
    2ea4:	001c0000 	andseq	r0, ip, r0
    2ea8:	1f010000 	svcne	0x00010000
    2eac:	0000062c 	andeq	r0, r0, ip, lsr #12
    2eb0:	00016a1a 	andeq	r6, r1, sl, lsl sl
    2eb4:	001c4400 	andseq	r4, ip, r0, lsl #8
    2eb8:	015f1b00 	cmpeq	pc, r0, lsl #22
    2ebc:	54010000 	strpl	r0, [r1], #-0
    2ec0:	0001561b 	andeq	r5, r1, fp, lsl r6
    2ec4:	00770900 	rsbseq	r0, r7, r0, lsl #18
    2ec8:	081a4008 	ldmdaeq	sl, {r3, lr}
    2ecc:	1b9f1aff 	blne	fe7c9ad0 <__bss_end__+0xfe7bb260>
    2ed0:	0000014b 	andeq	r0, r0, fp, asr #2
    2ed4:	11195601 	tstne	r9, r1, lsl #12
    2ed8:	a8000001 	stmdage	r0, {r0}
    2edc:	10000094 	mulne	r0, r4, r0
    2ee0:	02000000 	andeq	r0, r0, #0
    2ee4:	0006121a 	andeq	r1, r6, sl, lsl r2
    2ee8:	01281a00 	teqeq	r8, r0, lsl #20
    2eec:	1c660000 	stclne	0, cr0, [r6], #-0
    2ef0:	1d1b0000 	ldcne	0, cr0, [fp, #-0]
    2ef4:	01000001 	tsteq	r0, r1
    2ef8:	94a81d54 	strtls	r1, [r8], #3412	; 0xd54
    2efc:	00040000 	andeq	r0, r4, r0
    2f00:	321e0000 	andscc	r0, lr, #0
    2f04:	88000001 	stmdahi	r0, {r0}
    2f08:	0000001c 	andeq	r0, r0, ip, lsl r0
    2f0c:	94a81f00 	strtls	r1, [r8], #3840	; 0xf00
    2f10:	11310000 	teqne	r1, r0
    2f14:	01200000 	teqeq	r0, r0
    2f18:	00770551 	rsbseq	r0, r7, r1, asr r5
    2f1c:	201a4008 	andscs	r4, sl, r8
    2f20:	76025001 	strvc	r5, [r2], -r1
    2f24:	19000000 	stmdbne	r0, {}	; <UNPREDICTABLE>
    2f28:	0000013f 	andeq	r0, r0, pc, lsr r1
    2f2c:	000094bc 			; <UNDEFINED> instruction: 0x000094bc
    2f30:	0000001c 	andeq	r0, r0, ip, lsl r0
    2f34:	06ac2101 	strteq	r2, [ip], r1, lsl #2
    2f38:	6a1b0000 	bvs	6c2f40 <__bss_end__+0x6b46d0>
    2f3c:	01000001 	tsteq	r0, r1
    2f40:	015f1b58 	cmpeq	pc, r8, asr fp	; <UNPREDICTABLE>
    2f44:	54010000 	strpl	r0, [r1], #-0
    2f48:	0001561a 	andeq	r5, r1, sl, lsl r6
    2f4c:	001c9b00 	andseq	r9, ip, r0, lsl #22
    2f50:	014b1b00 	cmpeq	fp, r0, lsl #22
    2f54:	56010000 	strpl	r0, [r1], -r0
    2f58:	00011119 	andeq	r1, r1, r9, lsl r1
    2f5c:	0094c800 	addseq	ip, r4, r0, lsl #16
    2f60:	00001000 	andeq	r1, r0, r0
    2f64:	921a0200 	andsls	r0, sl, #0, 4
    2f68:	1b000006 	blne	2f88 <_start-0x5078>
    2f6c:	00000128 	andeq	r0, r0, r8, lsr #2
    2f70:	1d1b5801 	ldcne	8, cr5, [fp, #-4]
    2f74:	01000001 	tsteq	r0, r1
    2f78:	94c81d54 	strbls	r1, [r8], #3412	; 0xd54
    2f7c:	00040000 	andeq	r0, r4, r0
    2f80:	321e0000 	andscc	r0, lr, #0
    2f84:	ce000001 	cdpgt	0, 0, cr0, cr0, cr1, {0}
    2f88:	0000001c 	andeq	r0, r0, ip, lsl r0
    2f8c:	94c81f00 	strbls	r1, [r8], #3840	; 0xf00
    2f90:	11310000 	teqne	r1, r0
    2f94:	01200000 	teqeq	r0, r0
    2f98:	00770551 	rsbseq	r0, r7, r1, asr r5
    2f9c:	201a8008 	andscs	r8, sl, r8
    2fa0:	76025001 	strvc	r5, [r2], -r1
    2fa4:	21000000 	mrscs	r0, (UNDEF: 0)
    2fa8:	0000013f 	andeq	r0, r0, pc, lsr r1
    2fac:	000094dc 	ldrdeq	r9, [r0], -ip
    2fb0:	0000001c 	andeq	r0, r0, ip, lsl r0
    2fb4:	6a1b2301 	bvs	6cbbc0 <__bss_end__+0x6bd350>
    2fb8:	01000001 	tsteq	r0, r1
    2fbc:	015f1b55 	cmpeq	pc, r5, asr fp	; <UNPREDICTABLE>
    2fc0:	54010000 	strpl	r0, [r1], #-0
    2fc4:	0001561c 	andeq	r5, r1, ip, lsl r6
    2fc8:	4b1b0100 	blmi	6c33d0 <__bss_end__+0x6b4b60>
    2fcc:	01000001 	tsteq	r0, r1
    2fd0:	01111956 	tsteq	r1, r6, asr r9
    2fd4:	94e80000 	strbtls	r0, [r8], #0
    2fd8:	00100000 	andseq	r0, r0, r0
    2fdc:	1a020000 	bne	82fe4 <__bss_end__+0x74774>
    2fe0:	0000070b 	andeq	r0, r0, fp, lsl #14
    2fe4:	0001281b 	andeq	r2, r1, fp, lsl r8
    2fe8:	1b550100 	blne	15433f0 <__bss_end__+0x1534b80>
    2fec:	0000011d 	andeq	r0, r0, sp, lsl r1
    2ff0:	e81d5401 	ldmda	sp, {r0, sl, ip, lr}
    2ff4:	04000094 	streq	r0, [r0], #-148	; 0x94
    2ff8:	1e000000 	cdpne	0, 0, cr0, cr0, cr0, {0}
    2ffc:	00000132 	andeq	r0, r0, r2, lsr r1
    3000:	00001ce1 	andeq	r1, r0, r1, ror #25
    3004:	e81f0000 	ldmda	pc, {}	; <UNPREDICTABLE>
    3008:	31000094 	swpcc	r0, r4, [r0]	; <UNPREDICTABLE>
    300c:	20000011 	andcs	r0, r0, r1, lsl r0
    3010:	31015101 	tstcc	r1, r1, lsl #2
    3014:	02500120 	subseq	r0, r0, #32, 2
    3018:	00000076 	andeq	r0, r0, r6, ror r0
    301c:	d9040600 	stmdble	r4, {r9, sl}
    3020:	22000000 	andcs	r0, r0, #0
    3024:	00000afd 	strdeq	r0, [r0], -sp
    3028:	00252701 	eoreq	r2, r5, r1, lsl #14
    302c:	62030000 	andvs	r0, r3, #0
    3030:	0f000007 	svceq	0x00000007
    3034:	01007872 	tsteq	r0, r2, ror r8
    3038:	00002527 	andeq	r2, r0, r7, lsr #10
    303c:	00760f00 	rsbseq	r0, r6, r0, lsl #30
    3040:	00252701 	eoreq	r2, r5, r1, lsl #14
    3044:	850e0000 	strhi	r0, [lr, #-0]
    3048:	0100000a 	tsteq	r0, sl
    304c:	00002c27 	andeq	r2, r0, r7, lsr #24
    3050:	07161100 	ldreq	r1, [r6, -r0, lsl #2]
    3054:	28010000 	stmdacs	r1, {}	; <UNPREDICTABLE>
    3058:	0000002c 	andeq	r0, r0, ip, lsr #32
    305c:	0a262300 	beq	98bc64 <__bss_end__+0x97d3f4>
    3060:	34010000 	strcc	r0, [r1], #-0
    3064:	00000025 	andeq	r0, r0, r5, lsr #32
    3068:	000094fc 	strdeq	r9, [r0], -ip
    306c:	000001c8 	andeq	r0, r0, r8, asr #3
    3070:	0b1e9c01 	bleq	7aa07c <__bss_end__+0x79b80c>
    3074:	d8130000 	ldmdale	r3, {}	; <UNPREDICTABLE>
    3078:	01000006 	tsteq	r0, r6
    307c:	00072234 	andeq	r2, r7, r4, lsr r2
    3080:	001cf400 	andseq	pc, ip, r0, lsl #8
    3084:	0a851300 	beq	fe147c8c <__bss_end__+0xfe13941c>
    3088:	34010000 	strcc	r0, [r1], #-0
    308c:	00000025 	andeq	r0, r0, r5, lsr #32
    3090:	00001d39 	andeq	r1, r0, r9, lsr sp
    3094:	00787215 	rsbseq	r7, r8, r5, lsl r2
    3098:	00253501 	eoreq	r3, r5, r1, lsl #10
    309c:	55010000 	strpl	r0, [r1, #-0]
    30a0:	01007316 	tsteq	r0, r6, lsl r3
    30a4:	00002c3c 	andeq	r2, r0, ip, lsr ip
    30a8:	001d5700 	andseq	r5, sp, r0, lsl #14
    30ac:	00751600 	rsbseq	r1, r5, r0, lsl #12
    30b0:	00683f01 	rsbeq	r3, r8, r1, lsl #30
    30b4:	1d6a0000 	stclne	0, cr0, [sl, #-0]
    30b8:	6e160000 	cdpvs	0, 1, cr0, cr6, cr0, {0}
    30bc:	2c400100 	stfcse	f0, [r0], {-0}
    30c0:	7d000000 	stcvc	0, cr0, [r0, #-0]
    30c4:	1600001d 			; <UNDEFINED> instruction: 0x1600001d
    30c8:	41010063 	tstmi	r1, r3, rrx
    30cc:	0000002c 	andeq	r0, r0, ip, lsr #32
    30d0:	00001d94 	muleq	r0, r4, sp
    30d4:	00072819 	andeq	r2, r7, r9, lsl r8
    30d8:	00951000 	addseq	r1, r5, r0
    30dc:	00003400 	andeq	r3, r0, r0, lsl #8
    30e0:	3c380100 	ldfccs	f0, [r8], #-0
    30e4:	1a000008 	bne	310c <_start-0x4ef4>
    30e8:	0000074b 	andeq	r0, r0, fp, asr #14
    30ec:	00001dbe 			; <UNDEFINED> instruction: 0x00001dbe
    30f0:	0007421c 	andeq	r4, r7, ip, lsl r2
    30f4:	381b0000 	ldmdacc	fp, {}	; <UNPREDICTABLE>
    30f8:	01000007 	tsteq	r0, r7
    30fc:	95101d55 	ldrls	r1, [r0, #-3413]	; 0xd55
    3100:	00340000 	eorseq	r0, r4, r0
    3104:	561e0000 	ldrpl	r0, [lr], -r0
    3108:	dc000007 	stcle	0, cr0, [r0], {7}
    310c:	2400001d 	strcs	r0, [r0], #-29
    3110:	00009514 	andeq	r9, r0, r4, lsl r5
    3114:	00001147 	andeq	r1, r0, r7, asr #2
    3118:	00952025 	addseq	r2, r5, r5, lsr #32
    311c:	00115200 	andseq	r5, r1, r0, lsl #4
    3120:	00083100 	andeq	r3, r8, r0, lsl #2
    3124:	50012000 	andpl	r2, r1, r0
    3128:	00007502 	andeq	r7, r0, r2, lsl #10
    312c:	00952c24 	addseq	r2, r5, r4, lsr #24
    3130:	00114700 	andseq	r4, r1, r0, lsl #14
    3134:	17000000 	strne	r0, [r0, -r0]
    3138:	0000954c 	andeq	r9, r0, ip, asr #10
    313c:	00000004 	andeq	r0, r0, r4
    3140:	00000859 	andeq	r0, r0, r9, asr r8
    3144:	000acd26 	andeq	ip, sl, r6, lsr #26
    3148:	2c3c0100 	ldfcss	f0, [ip], #-0
    314c:	fa000000 	blx	3154 <_start-0x4eac>
    3150:	0000001d 	andeq	r0, r0, sp, lsl r0
    3154:	00011119 	andeq	r1, r1, r9, lsl r1
    3158:	00955800 	addseq	r5, r5, r0, lsl #16
    315c:	00001000 	andeq	r1, r0, r0
    3160:	92440100 	subls	r0, r4, #0, 2
    3164:	1a000008 	bne	318c <_start-0x4e74>
    3168:	00000128 	andeq	r0, r0, r8, lsr #2
    316c:	00001e0d 	andeq	r1, r0, sp, lsl #28
    3170:	00011d1a 	andeq	r1, r1, sl, lsl sp
    3174:	001e3200 	andseq	r3, lr, r0, lsl #4
    3178:	95581d00 	ldrbls	r1, [r8, #-3328]	; 0xd00
    317c:	00040000 	andeq	r0, r4, r0
    3180:	321e0000 	andscc	r0, lr, #0
    3184:	45000001 	strmi	r0, [r0, #-1]
    3188:	0000001e 	andeq	r0, r0, lr, lsl r0
    318c:	01111900 	tsteq	r1, r0, lsl #18
    3190:	95780000 	ldrbls	r0, [r8, #-0]!
    3194:	00100000 	andseq	r0, r0, r0
    3198:	48010000 	stmdami	r1, {}	; <UNPREDICTABLE>
    319c:	000008cb 	andeq	r0, r0, fp, asr #17
    31a0:	0001281a 	andeq	r2, r1, sl, lsl r8
    31a4:	001e5800 	andseq	r5, lr, r0, lsl #16
    31a8:	011d1a00 	tsteq	sp, r0, lsl #20
    31ac:	1e6b0000 	cdpne	0, 6, cr0, cr11, cr0, {0}
    31b0:	781d0000 	ldmdavc	sp, {}	; <UNPREDICTABLE>
    31b4:	04000095 	streq	r0, [r0], #-149	; 0x95
    31b8:	1e000000 	cdpne	0, 0, cr0, cr0, cr0, {0}
    31bc:	00000132 	andeq	r0, r0, r2, lsr r1
    31c0:	00001e7e 	andeq	r1, r0, lr, ror lr
    31c4:	11190000 	tstne	r9, r0
    31c8:	9c000001 	stcls	0, cr0, [r0], {1}
    31cc:	10000095 	mulne	r0, r5, r0
    31d0:	01000000 	mrseq	r0, (UNDEF: 0)
    31d4:	0009044b 	andeq	r0, r9, fp, asr #8
    31d8:	01281a00 	teqeq	r8, r0, lsl #20
    31dc:	1e910000 	cdpne	0, 9, cr0, cr1, cr0, {0}
    31e0:	1d1a0000 	ldcne	0, cr0, [sl, #-0]
    31e4:	a4000001 	strge	r0, [r0], #-1
    31e8:	1d00001e 	stcne	0, cr0, [r0, #-120]	; 0xffffff88
    31ec:	0000959c 	muleq	r0, ip, r5
    31f0:	00000004 	andeq	r0, r0, r4
    31f4:	0001321e 	andeq	r3, r1, lr, lsl r2
    31f8:	001eb700 	andseq	fp, lr, r0, lsl #14
    31fc:	19000000 	stmdbne	r0, {}	; <UNPREDICTABLE>
    3200:	00000111 	andeq	r0, r0, r1, lsl r1
    3204:	000095c0 	andeq	r9, r0, r0, asr #11
    3208:	00000010 	andeq	r0, r0, r0, lsl r0
    320c:	093d4e01 	ldmdbeq	sp!, {r0, r9, sl, fp, lr}
    3210:	281a0000 	ldmdacs	sl, {}	; <UNPREDICTABLE>
    3214:	ca000001 	bgt	3220 <_start-0x4de0>
    3218:	1a00001e 	bne	3298 <_start-0x4d68>
    321c:	0000011d 	andeq	r0, r0, sp, lsl r1
    3220:	00001edd 	ldrdeq	r1, [r0], -sp
    3224:	0095c01d 	addseq	ip, r5, sp, lsl r0
    3228:	00000400 	andeq	r0, r0, r0, lsl #8
    322c:	01321e00 	teqeq	r2, r0, lsl #28
    3230:	1ef00000 	cdpne	0, 15, cr0, cr0, cr0, {0}
    3234:	00000000 	andeq	r0, r0, r0
    3238:	00011119 	andeq	r1, r1, r9, lsl r1
    323c:	0095e400 	addseq	lr, r5, r0, lsl #8
    3240:	00001000 	andeq	r1, r0, r0
    3244:	76510100 	ldrbvc	r0, [r1], -r0, lsl #2
    3248:	1a000009 	bne	3274 <_start-0x4d8c>
    324c:	00000128 	andeq	r0, r0, r8, lsr #2
    3250:	00001f03 	andeq	r1, r0, r3, lsl #30
    3254:	00011d1a 	andeq	r1, r1, sl, lsl sp
    3258:	001f1600 	andseq	r1, pc, r0, lsl #12
    325c:	95e41d00 	strbls	r1, [r4, #3328]!	; 0xd00
    3260:	00040000 	andeq	r0, r4, r0
    3264:	321e0000 	andscc	r0, lr, #0
    3268:	29000001 	stmdbcs	r0, {r0}
    326c:	0000001f 	andeq	r0, r0, pc, lsl r0
    3270:	01111900 	tsteq	r1, r0, lsl #18
    3274:	96080000 	strls	r0, [r8], -r0
    3278:	00100000 	andseq	r0, r0, r0
    327c:	54010000 	strpl	r0, [r1], #-0
    3280:	000009af 	andeq	r0, r0, pc, lsr #19
    3284:	0001281a 	andeq	r2, r1, sl, lsl r8
    3288:	001f3c00 	andseq	r3, pc, r0, lsl #24
    328c:	011d1a00 	tsteq	sp, r0, lsl #20
    3290:	1f4f0000 	svcne	0x004f0000
    3294:	081d0000 	ldmdaeq	sp, {}	; <UNPREDICTABLE>
    3298:	04000096 	streq	r0, [r0], #-150	; 0x96
    329c:	1e000000 	cdpne	0, 0, cr0, cr0, cr0, {0}
    32a0:	00000132 	andeq	r0, r0, r2, lsr r1
    32a4:	00001f62 	andeq	r1, r0, r2, ror #30
    32a8:	11190000 	tstne	r9, r0
    32ac:	2c000001 	stccs	0, cr0, [r0], {1}
    32b0:	10000096 	mulne	r0, r6, r0
    32b4:	01000000 	mrseq	r0, (UNDEF: 0)
    32b8:	0009e857 	andeq	lr, r9, r7, asr r8
    32bc:	01281a00 	teqeq	r8, r0, lsl #20
    32c0:	1f750000 	svcne	0x00750000
    32c4:	1d1a0000 	ldcne	0, cr0, [sl, #-0]
    32c8:	88000001 	stmdahi	r0, {r0}
    32cc:	1d00001f 	stcne	0, cr0, [r0, #-124]	; 0xffffff84
    32d0:	0000962c 	andeq	r9, r0, ip, lsr #12
    32d4:	00000004 	andeq	r0, r0, r4
    32d8:	0001321e 	andeq	r3, r1, lr, lsl r2
    32dc:	001f9b00 	andseq	r9, pc, r0, lsl #22
    32e0:	19000000 	stmdbne	r0, {}	; <UNPREDICTABLE>
    32e4:	00000111 	andeq	r0, r0, r1, lsl r1
    32e8:	00009650 	andeq	r9, r0, r0, asr r6
    32ec:	00000010 	andeq	r0, r0, r0, lsl r0
    32f0:	0a1d5a01 	beq	759afc <__bss_end__+0x74b28c>
    32f4:	281a0000 	ldmdacs	sl, {}	; <UNPREDICTABLE>
    32f8:	ae000001 	cdpge	0, 0, cr0, cr0, cr1, {0}
    32fc:	2700001f 	smladcs	r0, pc, r0, r0	; <UNPREDICTABLE>
    3300:	0000011d 	andeq	r0, r0, sp, lsl r1
    3304:	0096501d 	addseq	r5, r6, sp, lsl r0
    3308:	00000400 	andeq	r0, r0, r0, lsl #8
    330c:	01321e00 	teqeq	r2, r0, lsl #28
    3310:	1fc10000 	svcne	0x00c10000
    3314:	00000000 	andeq	r0, r0, r0
    3318:	00072819 	andeq	r2, r7, r9, lsl r8
    331c:	00967000 	addseq	r7, r6, r0
    3320:	00003400 	andeq	r3, r0, r0, lsl #8
    3324:	81610100 	cmnhi	r1, r0, lsl #2
    3328:	2700000a 	strcs	r0, [r0, -sl]
    332c:	0000074b 	andeq	r0, r0, fp, asr #14
    3330:	0007421a 	andeq	r4, r7, sl, lsl r2
    3334:	001fd400 	andseq	sp, pc, r0, lsl #8
    3338:	07381a00 	ldreq	r1, [r8, -r0, lsl #20]!
    333c:	1ff40000 	svcne	0x00f40000
    3340:	701d0000 	andsvc	r0, sp, r0
    3344:	34000096 	strcc	r0, [r0], #-150	; 0x96
    3348:	1e000000 	cdpne	0, 0, cr0, cr0, cr0, {0}
    334c:	00000756 	andeq	r0, r0, r6, asr r7
    3350:	00002012 	andeq	r2, r0, r2, lsl r0
    3354:	00967424 	addseq	r7, r6, r4, lsr #8
    3358:	00114700 	andseq	r4, r1, r0, lsl #14
    335c:	96802500 	strls	r2, [r0], r0, lsl #10
    3360:	11520000 	cmpne	r2, r0
    3364:	0a760000 	beq	1d8336c <__bss_end__+0x1d74afc>
    3368:	01200000 	teqeq	r0, r0
    336c:	00750250 	rsbseq	r0, r5, r0, asr r2
    3370:	968c2400 	strls	r2, [ip], r0, lsl #8
    3374:	11470000 	mrsne	r0, (UNDEF: 71)
    3378:	00000000 	andeq	r0, r0, r0
    337c:	00957425 	addseq	r7, r5, r5, lsr #8
    3380:	00115200 	andseq	r5, r1, r0, lsl #4
    3384:	000a9500 	andeq	r9, sl, r0, lsl #10
    3388:	50012000 	andpl	r2, r1, r0
    338c:	00007502 	andeq	r7, r0, r2, lsl #10
    3390:	00959425 	addseq	r9, r5, r5, lsr #8
    3394:	00115200 	andseq	r5, r1, r0, lsl #4
    3398:	000aa900 	andeq	sl, sl, r0, lsl #18
    339c:	50012000 	andpl	r2, r1, r0
    33a0:	00007502 	andeq	r7, r0, r2, lsl #10
    33a4:	0095b825 	addseq	fp, r5, r5, lsr #16
    33a8:	00115200 	andseq	r5, r1, r0, lsl #4
    33ac:	000abd00 	andeq	fp, sl, r0, lsl #26
    33b0:	50012000 	andpl	r2, r1, r0
    33b4:	00007502 	andeq	r7, r0, r2, lsl #10
    33b8:	0095dc25 	addseq	sp, r5, r5, lsr #24
    33bc:	00115200 	andseq	r5, r1, r0, lsl #4
    33c0:	000ad100 	andeq	sp, sl, r0, lsl #2
    33c4:	50012000 	andpl	r2, r1, r0
    33c8:	00007502 	andeq	r7, r0, r2, lsl #10
    33cc:	00960025 	addseq	r0, r6, r5, lsr #32
    33d0:	00115200 	andseq	r5, r1, r0, lsl #4
    33d4:	000ae500 	andeq	lr, sl, r0, lsl #10
    33d8:	50012000 	andpl	r2, r1, r0
    33dc:	00007502 	andeq	r7, r0, r2, lsl #10
    33e0:	00962425 	addseq	r2, r6, r5, lsr #8
    33e4:	00115200 	andseq	r5, r1, r0, lsl #4
    33e8:	000af900 	andeq	pc, sl, r0, lsl #18
    33ec:	50012000 	andpl	r2, r1, r0
    33f0:	00007502 	andeq	r7, r0, r2, lsl #10
    33f4:	00964825 	addseq	r4, r6, r5, lsr #16
    33f8:	00115200 	andseq	r5, r1, r0, lsl #4
    33fc:	000b0d00 	andeq	r0, fp, r0, lsl #26
    3400:	50012000 	andpl	r2, r1, r0
    3404:	00007502 	andeq	r7, r0, r2, lsl #10
    3408:	0096681f 	addseq	r6, r6, pc, lsl r8
    340c:	00115200 	andseq	r5, r1, r0, lsl #4
    3410:	50012000 	andpl	r2, r1, r0
    3414:	00007502 	andeq	r7, r0, r2, lsl #10
    3418:	0a3b2300 	beq	ecc020 <__bss_end__+0xebd7b0>
    341c:	6c010000 	stcvs	0, cr0, [r1], {-0}
    3420:	00000025 	andeq	r0, r0, r5, lsr #32
    3424:	000096c4 	andeq	r9, r0, r4, asr #13
    3428:	00000090 	muleq	r0, r0, r0
    342c:	0c029c01 	stceq	12, cr9, [r2], {1}
    3430:	75140000 	ldrvc	r0, [r4, #-0]
    3434:	226c0100 	rsbcs	r0, ip, #0, 2
    3438:	30000007 	andcc	r0, r0, r7
    343c:	14000020 	strne	r0, [r0], #-32
    3440:	00667562 	rsbeq	r7, r6, r2, ror #10
    3444:	0c026c01 	stceq	12, cr6, [r2], {1}
    3448:	20640000 	rsbcs	r0, r4, r0
    344c:	d2130000 	andsle	r0, r3, #0
    3450:	0100000a 	tsteq	r0, sl
    3454:	0000686c 	andeq	r6, r0, ip, ror #16
    3458:	00209800 	eoreq	r9, r0, r0, lsl #16
    345c:	6e651400 	cdpvs	4, 6, cr1, cr5, cr0, {0}
    3460:	6c010064 	stcvs	0, cr0, [r1], {100}	; 0x64
    3464:	0000004f 	andeq	r0, r0, pc, asr #32
    3468:	000020d1 	ldrdeq	r2, [r0], -r1
    346c:	000ad928 	andeq	sp, sl, r8, lsr #18
    3470:	686c0100 	stmdavs	ip!, {r8}^
    3474:	02000000 	andeq	r0, r0, #0
    3478:	82290091 	eorhi	r0, r9, #145	; 0x91
    347c:	18000001 	stmdane	r0, {r0}
    3480:	0500000c 	streq	r0, [r0, #-12]
    3484:	00a19c03 	adceq	r9, r1, r3, lsl #24
    3488:	00691600 	rsbeq	r1, r9, r0, lsl #12
    348c:	00257001 	eoreq	r7, r5, r1
    3490:	210b0000 	mrscs	r0, (UNDEF: 11)
    3494:	b0260000 	eorlt	r0, r6, r0
    3498:	0100000a 	tsteq	r0, sl
    349c:	00004f71 	andeq	r4, r0, r1, ror pc
    34a0:	00212a00 	eoreq	r2, r1, r0, lsl #20
    34a4:	96e42400 	strbtls	r2, [r4], r0, lsl #8
    34a8:	11670000 	cmnne	r7, r0
    34ac:	f8250000 			; <UNDEFINED> instruction: 0xf8250000
    34b0:	6e000096 	mcrvs	0, 0, r0, cr0, cr6, {4}
    34b4:	e2000011 	and	r0, r0, #17
    34b8:	2000000b 	andcs	r0, r0, fp
    34bc:	08025301 	stmdaeq	r2, {r0, r8, r9, ip, lr}
    34c0:	5201206d 	andpl	r2, r1, #109	; 0x6d
    34c4:	a19c0305 	orrsge	r0, ip, r5, lsl #6
    34c8:	01200000 	teqeq	r0, r0
    34cc:	30030551 	andcc	r0, r3, r1, asr r5
    34d0:	200000a2 	andcs	r0, r0, r2, lsr #1
    34d4:	03055001 	movweq	r5, #20481	; 0x5001
    34d8:	0000a214 	andeq	sl, r0, r4, lsl r2
    34dc:	96fc2400 	ldrbtls	r2, [ip], r0, lsl #8
    34e0:	11840000 	orrne	r0, r4, r0
    34e4:	181f0000 	ldmdane	pc, {}	; <UNPREDICTABLE>
    34e8:	62000097 	andvs	r0, r0, #151	; 0x97
    34ec:	20000007 	andcs	r0, r0, r7
    34f0:	7a025101 	bvc	978fc <__bss_end__+0x8908c>
    34f4:	50012000 	andpl	r2, r1, r0
    34f8:	00007802 	andeq	r7, r0, r2, lsl #16
    34fc:	4f040600 	svcmi	0x00040600
    3500:	2a000000 	bcs	3508 <_start-0x4af8>
    3504:	00000090 	muleq	r0, r0, r0
    3508:	00000c18 	andeq	r0, r0, r8, lsl ip
    350c:	0000812b 	andeq	r8, r0, fp, lsr #2
    3510:	07001200 	streq	r1, [r0, -r0, lsl #4]
    3514:	00000c08 	andeq	r0, r0, r8, lsl #24
    3518:	000ab823 	andeq	fp, sl, r3, lsr #16
    351c:	25800100 	strcs	r0, [r0, #256]	; 0x100
    3520:	54000000 	strpl	r0, [r0], #-0
    3524:	7c000097 	stcvc	0, cr0, [r0], {151}	; 0x97
    3528:	01000000 	mrseq	r0, (UNDEF: 0)
    352c:	000ce49c 	muleq	ip, ip, r4
    3530:	00751400 	rsbseq	r1, r5, r0, lsl #8
    3534:	07228001 	streq	r8, [r2, -r1]!
    3538:	213d0000 	teqcs	sp, r0
    353c:	62140000 	andsvs	r0, r4, #0
    3540:	01006675 	tsteq	r0, r5, ror r6
    3544:	000c0280 	andeq	r0, ip, r0, lsl #5
    3548:	00217100 	eoreq	r7, r1, r0, lsl #2
    354c:	0ad21300 	beq	ff488154 <__bss_end__+0xff4798e4>
    3550:	81010000 	mrshi	r0, (UNDEF: 1)
    3554:	00000068 	andeq	r0, r0, r8, rrx
    3558:	000021a5 	andeq	r2, r0, r5, lsr #3
    355c:	000ad913 	andeq	sp, sl, r3, lsl r9
    3560:	68810100 	stmvs	r1, {r8}
    3564:	de000000 	cdple	0, 0, cr0, cr0, cr0, {0}
    3568:	29000021 	stmdbcs	r0, {r0, r5}
    356c:	00000182 	andeq	r0, r0, r2, lsl #3
    3570:	00000cf4 	strdeq	r0, [r0], -r4
    3574:	a1b00305 	lslsge	r0, r5, #6
    3578:	69160000 	ldmdbvs	r6, {}	; <UNPREDICTABLE>
    357c:	25860100 	strcs	r0, [r6, #256]	; 0x100
    3580:	12000000 	andne	r0, r0, #0
    3584:	24000022 	strcs	r0, [r0], #-34	; 0x22
    3588:	00009770 	andeq	r9, r0, r0, ror r7
    358c:	00001167 	andeq	r1, r0, r7, ror #2
    3590:	00978425 	addseq	r8, r7, r5, lsr #8
    3594:	00116e00 	andseq	r6, r1, r0, lsl #28
    3598:	000cc400 	andeq	ip, ip, r0, lsl #8
    359c:	53012000 	movwpl	r2, #4096	; 0x1000
    35a0:	20830802 	addcs	r0, r3, r2, lsl #16
    35a4:	03055201 	movweq	r5, #20993	; 0x5201
    35a8:	0000a1b0 			; <UNDEFINED> instruction: 0x0000a1b0
    35ac:	05510120 	ldrbeq	r0, [r1, #-288]	; 0x120
    35b0:	00a23003 	adceq	r3, r2, r3
    35b4:	50012000 	andpl	r2, r1, r0
    35b8:	a2140305 	andsge	r0, r4, #335544320	; 0x14000000
    35bc:	24000000 	strcs	r0, [r0], #-0
    35c0:	00009788 	andeq	r9, r0, r8, lsl #15
    35c4:	00001184 	andeq	r1, r0, r4, lsl #3
    35c8:	0097a41f 	addseq	sl, r7, pc, lsl r4
    35cc:	00076200 	andeq	r6, r7, r0, lsl #4
    35d0:	51012000 	mrspl	r2, (UNDEF: 1)
    35d4:	20007802 	andcs	r7, r0, r2, lsl #16
    35d8:	77025001 	strvc	r5, [r2, -r1]
    35dc:	2a000000 	bcs	35e4 <_start-0x4a1c>
    35e0:	00000090 	muleq	r0, r0, r0
    35e4:	00000cf4 	strdeq	r0, [r0], -r4
    35e8:	0000812b 	andeq	r8, r0, fp, lsr #2
    35ec:	07001400 	streq	r1, [r0, -r0, lsl #8]
    35f0:	00000ce4 	andeq	r0, r0, r4, ror #25
    35f4:	000a7123 	andeq	r7, sl, r3, lsr #2
    35f8:	d9930100 	ldmible	r3, {r8}
    35fc:	d0000000 	andle	r0, r0, r0
    3600:	c0000097 	mulgt	r0, r7, r0
    3604:	01000000 	mrseq	r0, (UNDEF: 0)
    3608:	000e149c 	muleq	lr, ip, r4
    360c:	78741400 	ldmdavc	r4!, {sl, ip}^
    3610:	4f930100 	svcmi	0x00930100
    3614:	31000000 	mrscc	r0, (UNDEF: 0)
    3618:	14000022 	strne	r0, [r0], #-34	; 0x22
    361c:	01007872 	tsteq	r0, r2, ror r8
    3620:	00004f93 	muleq	r0, r3, pc	; <UNPREDICTABLE>
    3624:	00225200 	eoreq	r5, r2, r0, lsl #4
    3628:	03501300 	cmpeq	r0, #0, 6
    362c:	93010000 	movwls	r0, #4096	; 0x1000
    3630:	00000068 	andeq	r0, r0, r8, rrx
    3634:	00002273 	andeq	r2, r0, r3, ror r2
    3638:	000a0a28 	andeq	r0, sl, r8, lsr #20
    363c:	68930100 	ldmvs	r3, {r8}
    3640:	02000000 	andeq	r0, r0, #0
    3644:	6d2c0091 	stcvs	0, cr0, [ip, #-580]!	; 0xfffffdbc
    3648:	01007a68 	tsteq	r0, r8, ror #20
    364c:	00002c9b 	muleq	r0, fp, ip
    3650:	b9270000 	stmdblt	r7!, {}	; <UNPREDICTABLE>
    3654:	0a5b2629 	beq	16ccf00 <__bss_end__+0x16be690>
    3658:	9c010000 	stcls	0, cr0, [r1], {-0}
    365c:	0000002c 	andeq	r0, r0, ip, lsr #32
    3660:	00002291 	muleq	r0, r1, r2
    3664:	00018229 	andeq	r8, r1, r9, lsr #4
    3668:	000e2400 	andeq	r2, lr, r0, lsl #8
    366c:	c8030500 	stmdagt	r3, {r8, sl}
    3670:	170000a1 	strne	r0, [r0, -r1, lsr #1]
    3674:	000097f8 	strdeq	r9, [r0], -r8
    3678:	00000008 	andeq	r0, r0, r8
    367c:	00000d91 	muleq	r0, r1, sp
    3680:	006e692d 	rsbeq	r6, lr, sp, lsr #18
    3684:	002c9701 	eoreq	r9, ip, r1, lsl #14
    3688:	00010000 	andeq	r0, r1, r0
    368c:	0097f025 	addseq	pc, r7, r5, lsr #32
    3690:	00118b00 	andseq	r8, r1, r0, lsl #22
    3694:	000da500 	andeq	sl, sp, r0, lsl #10
    3698:	50012000 	andpl	r2, r1, r0
    369c:	00007602 	andeq	r7, r0, r2, lsl #12
    36a0:	0097f825 	addseq	pc, r7, r5, lsr #16
    36a4:	00119c00 	andseq	r9, r1, r0, lsl #24
    36a8:	000db900 	andeq	fp, sp, r0, lsl #18
    36ac:	50012000 	andpl	r2, r1, r0
    36b0:	00007802 	andeq	r7, r0, r2, lsl #16
    36b4:	00980c25 	addseq	r0, r8, r5, lsr #24
    36b8:	00113100 	andseq	r3, r1, r0, lsl #2
    36bc:	000dd200 	andeq	sp, sp, r0, lsl #4
    36c0:	51012000 	mrspl	r2, (UNDEF: 1)
    36c4:	01203101 	teqeq	r0, r1, lsl #2
    36c8:	00760250 	rsbseq	r0, r6, r0, asr r2
    36cc:	98502400 	ldmdals	r0, {sl, sp}^
    36d0:	11670000 	cmnne	r7, r0
    36d4:	64250000 	strtvs	r0, [r5], #-0
    36d8:	6e000098 	mcrvs	0, 0, r0, cr0, cr8, {4}
    36dc:	0a000011 	beq	3728 <_start-0x48d8>
    36e0:	2000000e 	andcs	r0, r0, lr
    36e4:	08025301 	stmdaeq	r2, {r0, r8, r9, ip, lr}
    36e8:	5201209d 	andpl	r2, r1, #157	; 0x9d
    36ec:	a1c80305 	bicge	r0, r8, r5, lsl #6
    36f0:	01200000 	teqeq	r0, r0
    36f4:	30030551 	andcc	r0, r3, r1, asr r5
    36f8:	200000a2 	andcs	r0, r0, r2, lsr #1
    36fc:	03055001 	movweq	r5, #20481	; 0x5001
    3700:	0000a244 	andeq	sl, r0, r4, asr #4
    3704:	98682400 	stmdals	r8!, {sl, sp}^
    3708:	11840000 	orrne	r0, r4, r0
    370c:	2a000000 	bcs	3714 <_start-0x48ec>
    3710:	00000090 	muleq	r0, r0, r0
    3714:	00000e24 	andeq	r0, r0, r4, lsr #28
    3718:	0000812b 	andeq	r8, r0, fp, lsr #2
    371c:	07001300 	streq	r1, [r0, -r0, lsl #6]
    3720:	00000e14 	andeq	r0, r0, r4, lsl lr
    3724:	000a4e23 	andeq	r4, sl, r3, lsr #28
    3728:	25a90100 	strcs	r0, [r9, #256]!	; 0x100
    372c:	90000000 	andls	r0, r0, r0
    3730:	3c000098 	stccc	0, cr0, [r0], {152}	; 0x98
    3734:	01000000 	mrseq	r0, (UNDEF: 0)
    3738:	000ecc9c 	muleq	lr, ip, ip
    373c:	06d81300 	ldrbeq	r1, [r8], r0, lsl #6
    3740:	a9010000 	stmdbge	r1, {}	; <UNPREDICTABLE>
    3744:	00000722 	andeq	r0, r0, r2, lsr #14
    3748:	000022bf 			; <UNDEFINED> instruction: 0x000022bf
    374c:	73657216 	cmnvc	r5, #1610612737	; 0x60000001
    3750:	25aa0100 	strcs	r0, [sl, #256]!	; 0x100
    3754:	e0000000 	and	r0, r0, r0
    3758:	29000022 	stmdbcs	r0, {r1, r5}
    375c:	00000182 	andeq	r0, r0, r2, lsl #3
    3760:	00000edc 	ldrdeq	r0, [r0], -ip
    3764:	a1dc0305 	bicsge	r0, ip, r5, lsl #6
    3768:	9c250000 	stcls	0, cr0, [r5], #-0
    376c:	62000098 	andvs	r0, r0, #152	; 0x98
    3770:	8a000007 	bhi	3794 <_start-0x486c>
    3774:	2000000e 	andcs	r0, r0, lr
    3778:	09025101 	stmdbeq	r2, {r0, r8, ip, lr}
    377c:	500120ff 	strdpl	r2, [r1], -pc	; <UNPREDICTABLE>
    3780:	5001f303 	andpl	pc, r1, r3, lsl #6
    3784:	98a82400 	stmials	r8!, {sl, sp}
    3788:	11670000 	cmnne	r7, r0
    378c:	bc250000 	stclt	0, cr0, [r5], #-0
    3790:	6e000098 	mcrvs	0, 0, r0, cr0, cr8, {4}
    3794:	c2000011 	andgt	r0, r0, #17
    3798:	2000000e 	andcs	r0, r0, lr
    379c:	08025301 	stmdaeq	r2, {r0, r8, r9, ip, lr}
    37a0:	520120ac 	andpl	r2, r1, #172	; 0xac
    37a4:	a1dc0305 	bicsge	r0, ip, r5, lsl #6
    37a8:	01200000 	teqeq	r0, r0
    37ac:	30030551 	andcc	r0, r3, r1, asr r5
    37b0:	200000a2 	andcs	r0, r0, r2, lsr #1
    37b4:	03055001 	movweq	r5, #20481	; 0x5001
    37b8:	0000a288 	andeq	sl, r0, r8, lsl #5
    37bc:	98c02400 	stmials	r0, {sl, sp}^
    37c0:	11840000 	orrne	r0, r4, r0
    37c4:	2a000000 	bcs	37cc <_start-0x4834>
    37c8:	00000090 	muleq	r0, r0, r0
    37cc:	00000edc 	ldrdeq	r0, [r0], -ip
    37d0:	0000812b 	andeq	r8, r0, fp, lsr #2
    37d4:	07000c00 	streq	r0, [r0, -r0, lsl #24]
    37d8:	00000ecc 	andeq	r0, r0, ip, asr #29
    37dc:	000a9212 	andeq	r9, sl, r2, lsl r2
    37e0:	ccb00100 	ldfgts	f0, [r0]
    37e4:	2c000098 	stccs	0, cr0, [r0], {152}	; 0x98
    37e8:	01000000 	mrseq	r0, (UNDEF: 0)
    37ec:	000f259c 	muleq	pc, ip, r5	; <UNPREDICTABLE>
    37f0:	06d81300 	ldrbeq	r1, [r8], r0, lsl #6
    37f4:	b0010000 	andlt	r0, r1, r0
    37f8:	00000722 	andeq	r0, r0, r2, lsr #14
    37fc:	000022f3 	strdeq	r2, [r0], -r3
    3800:	67736d14 			; <UNDEFINED> instruction: 0x67736d14
    3804:	97b00100 	ldrls	r0, [r0, r0, lsl #2]!
    3808:	11000000 	mrsne	r0, (UNDEF: 0)
    380c:	1f000023 	svcne	0x00000023
    3810:	000098e4 	andeq	r9, r0, r4, ror #17
    3814:	00000176 	andeq	r0, r0, r6, ror r1
    3818:	02500120 	subseq	r0, r0, #32, 2
    381c:	00000075 	andeq	r0, r0, r5, ror r0
    3820:	0006dd23 	andeq	sp, r6, r3, lsr #26
    3824:	25b90100 	ldrcs	r0, [r9, #256]!	; 0x100
    3828:	f8000000 			; <UNDEFINED> instruction: 0xf8000000
    382c:	84000098 	strhi	r0, [r0], #-152	; 0x98
    3830:	01000000 	mrseq	r0, (UNDEF: 0)
    3834:	0010199c 	mulseq	r0, ip, r9
    3838:	06d81300 	ldrbeq	r1, [r8], r0, lsl #6
    383c:	b9010000 	stmdblt	r1, {}	; <UNPREDICTABLE>
    3840:	00000722 	andeq	r0, r0, r2, lsr #14
    3844:	0000232f 	andeq	r2, r0, pc, lsr #6
    3848:	746d662e 	strbtvc	r6, [sp], #-1582	; 0x62e
    384c:	97b90100 	ldrls	r0, [r9, r0, lsl #2]!
    3850:	02000000 	andeq	r0, r0, #0
    3854:	152f7491 	strne	r7, [pc, #-1169]!	; 33cb <_start-0x4c35>
    3858:	00667562 	rsbeq	r7, r6, r2, ror #10
    385c:	1019ba01 	andsne	fp, r9, r1, lsl #20
    3860:	91030000 	mrsls	r0, (UNDEF: 3)
    3864:	bc187c9c 	ldclt	12, cr7, [r8], {156}	; 0x9c
    3868:	01000005 	tsteq	r0, r5
    386c:	000106bc 			; <UNDEFINED> instruction: 0x000106bc
    3870:	98910300 	ldmls	r1, {r8, r9}
    3874:	7a73167c 	bvc	1cc926c <__bss_end__+0x1cba9fc>
    3878:	25be0100 	ldrcs	r0, [lr, #256]!	; 0x100
    387c:	5b000000 	blpl	3884 <_start-0x477c>
    3880:	29000023 	stmdbcs	r0, {r0, r1, r5}
    3884:	00000182 	andeq	r0, r0, r2, lsl #3
    3888:	0000103a 	andeq	r1, r0, sl, lsr r0
    388c:	a1ec0305 	mvnge	r0, r5, lsl #6
    3890:	20250000 	eorcs	r0, r5, r0
    3894:	ad000099 	stcge	0, cr0, [r0, #-612]	; 0xfffffd9c
    3898:	c0000011 	andgt	r0, r0, r1, lsl r0
    389c:	2000000f 	andcs	r0, r0, pc
    38a0:	91025301 	tstls	r2, r1, lsl #6
    38a4:	52012058 	andpl	r2, r1, #88	; 0x58
    38a8:	06549103 	ldrbeq	r9, [r4], -r3, lsl #2
    38ac:	03510120 	cmpeq	r1, #32, 2
    38b0:	2001cc0a 	andcs	ip, r1, sl, lsl #24
    38b4:	91035001 	tstls	r3, r1
    38b8:	24007bfc 	strcs	r7, [r0], #-3068	; 0xbfc
    38bc:	00009934 	andeq	r9, r0, r4, lsr r9
    38c0:	00001167 	andeq	r1, r0, r7, ror #2
    38c4:	00994825 	addseq	r4, r9, r5, lsr #16
    38c8:	00116e00 	andseq	r6, r1, r0, lsl #28
    38cc:	000ff800 	andeq	pc, pc, r0, lsl #16
    38d0:	53012000 	movwpl	r2, #4096	; 0x1000
    38d4:	20c00802 	sbccs	r0, r0, r2, lsl #16
    38d8:	03055201 	movweq	r5, #20993	; 0x5201
    38dc:	0000a1ec 	andeq	sl, r0, ip, ror #3
    38e0:	05510120 	ldrbeq	r0, [r1, #-288]	; 0x120
    38e4:	00a23003 	adceq	r3, r2, r3
    38e8:	50012000 	andpl	r2, r1, r0
    38ec:	a2c00305 	sbcge	r0, r0, #335544320	; 0x14000000
    38f0:	24000000 	strcs	r0, [r0], #-0
    38f4:	0000994c 	andeq	r9, r0, ip, asr #18
    38f8:	00001184 	andeq	r1, r0, r4, lsl #3
    38fc:	0099581f 	addseq	r5, r9, pc, lsl r8
    3900:	000ee100 	andeq	lr, lr, r0, lsl #2
    3904:	51012000 	mrspl	r2, (UNDEF: 1)
    3908:	7bfc9103 	blvc	fff27d1c <__bss_end__+0xfff194ac>
    390c:	02500120 	subseq	r0, r0, #32, 2
    3910:	00000075 	andeq	r0, r0, r5, ror r0
    3914:	0000902a 	andeq	r9, r0, sl, lsr #32
    3918:	00102a00 	andseq	r2, r0, r0, lsl #20
    391c:	00813000 	addeq	r3, r1, r0
    3920:	01cb0000 	biceq	r0, fp, r0
    3924:	00902a00 	addseq	r2, r0, r0, lsl #20
    3928:	103a0000 	eorsne	r0, sl, r0
    392c:	812b0000 	teqhi	fp, r0
    3930:	0e000000 	cdpeq	0, 0, cr0, cr0, cr0, {0}
    3934:	102a0700 	eorne	r0, sl, r0, lsl #14
    3938:	e6230000 	strt	r0, [r3], -r0
    393c:	0100000a 	tsteq	r0, sl
    3940:	000025c5 	andeq	r2, r0, r5, asr #11
    3944:	00997c00 	addseq	r7, r9, r0, lsl #24
    3948:	00004c00 	andeq	r4, r0, r0, lsl #24
    394c:	1c9c0100 	ldfnes	f0, [ip], {0}
    3950:	14000011 	strne	r0, [r0], #-17
    3954:	c5010075 	strgt	r0, [r1, #-117]	; 0x75
    3958:	00000722 	andeq	r0, r0, r2, lsr #14
    395c:	0000239a 	muleq	r0, sl, r3
    3960:	66756214 			; <UNDEFINED> instruction: 0x66756214
    3964:	02c50100 	sbceq	r0, r5, #0, 2
    3968:	bb00000c 	bllt	39a0 <_start-0x4660>
    396c:	13000023 	movwne	r0, #35	; 0x23
    3970:	00000ad2 	ldrdeq	r0, [r0], -r2
    3974:	0068c501 	rsbeq	ip, r8, r1, lsl #10
    3978:	23dc0000 	bicscs	r0, ip, #0
    397c:	65140000 	ldrvs	r0, [r4, #-0]
    3980:	0100646e 	tsteq	r0, lr, ror #8
    3984:	00004fc5 	andeq	r4, r0, r5, asr #31
    3988:	0023fd00 	eoreq	pc, r3, r0, lsl #26
    398c:	65721600 	ldrbvs	r1, [r2, #-1536]!	; 0x600
    3990:	c6010073 			; <UNDEFINED> instruction: 0xc6010073
    3994:	00000025 	andeq	r0, r0, r5, lsr #32
    3998:	0000241e 	andeq	r2, r0, lr, lsl r4
    399c:	00018229 	andeq	r8, r1, r9, lsr #4
    39a0:	00112c00 	andseq	r2, r1, r0, lsl #24
    39a4:	fc030500 	stc2	5, cr0, [r3], {-0}
    39a8:	250000a1 	strcs	r0, [r0, #-161]	; 0xa1
    39ac:	00009990 	muleq	r0, r0, r9
    39b0:	00000b1e 	andeq	r0, r0, lr, lsl fp
    39b4:	000010da 	ldrdeq	r1, [r0], -sl
    39b8:	03520120 	cmpeq	r2, #32, 2
    39bc:	205201f3 	ldrshcs	r0, [r2], #-19	; 0xffffffed
    39c0:	f3035101 	vrhadd.u8	d5, d3, d1
    39c4:	01205101 	teqeq	r0, r1, lsl #2
    39c8:	01f30350 	mvnseq	r0, r0, asr r3
    39cc:	7d022050 	stcvc	0, cr2, [r2, #-320]	; 0xfffffec0
    39d0:	ff090200 			; <UNDEFINED> instruction: 0xff090200
    39d4:	999c2400 	ldmibls	ip, {sl, sp}
    39d8:	11670000 	cmnne	r7, r0
    39dc:	b0250000 	eorlt	r0, r5, r0
    39e0:	6e000099 	mcrvs	0, 0, r0, cr0, cr9, {4}
    39e4:	12000011 	andne	r0, r0, #17
    39e8:	20000011 	andcs	r0, r0, r1, lsl r0
    39ec:	08025301 	stmdaeq	r2, {r0, r8, r9, ip, lr}
    39f0:	520120c8 	andpl	r2, r1, #200	; 0xc8
    39f4:	a1fc0305 	mvnsge	r0, r5, lsl #6
    39f8:	01200000 	teqeq	r0, r0
    39fc:	30030551 	andcc	r0, r3, r1, asr r5
    3a00:	200000a2 	andcs	r0, r0, r2, lsr #1
    3a04:	03055001 	movweq	r5, #20481	; 0x5001
    3a08:	0000a288 	andeq	sl, r0, r8, lsl #5
    3a0c:	99b42400 	ldmibls	r4!, {sl, sp}
    3a10:	11840000 	orrne	r0, r4, r0
    3a14:	2a000000 	bcs	3a1c <_start-0x45e4>
    3a18:	00000090 	muleq	r0, r0, r0
    3a1c:	0000112c 	andeq	r1, r0, ip, lsr #2
    3a20:	0000812b 	andeq	r8, r0, fp, lsr #2
    3a24:	07001600 	streq	r1, [r0, -r0, lsl #12]
    3a28:	0000111c 	andeq	r1, r0, ip, lsl r1
    3a2c:	00097e31 	andeq	r7, r9, r1, lsr lr
    3a30:	47210600 	strmi	r0, [r1, -r0, lsl #12]!
    3a34:	32000011 	andcc	r0, r0, #17
    3a38:	0000002c 	andeq	r0, r0, ip, lsr #32
    3a3c:	00002c32 	andeq	r2, r0, r2, lsr ip
    3a40:	f2330000 	vhadd.s<illegal width 64>	d0, d3, d0
    3a44:	07000007 	streq	r0, [r0, -r7]
    3a48:	00002c57 	andeq	r2, r0, r7, asr ip
    3a4c:	091c3400 	ldmdbeq	ip, {sl, ip, sp}
    3a50:	24060000 	strcs	r0, [r6], #-0
    3a54:	00000025 	andeq	r0, r0, r5, lsr #32
    3a58:	00001167 	andeq	r1, r0, r7, ror #2
    3a5c:	00002c32 	andeq	r2, r0, r2, lsr ip
    3a60:	5b350000 	blpl	d43a68 <__bss_end__+0xd351f8>
    3a64:	07000001 	streq	r0, [r0, -r1]
    3a68:	05ab341e 	streq	r3, [fp, #1054]!	; 0x41e
    3a6c:	29070000 	stmdbcs	r7, {}	; <UNPREDICTABLE>
    3a70:	00000025 	andeq	r0, r0, r5, lsr #32
    3a74:	00001184 	andeq	r1, r0, r4, lsl #3
    3a78:	00009732 	andeq	r9, r0, r2, lsr r7
    3a7c:	35002f00 	strcc	r2, [r0, #-3840]	; 0xf00
    3a80:	00000217 	andeq	r0, r0, r7, lsl r2
    3a84:	cf316607 	svcgt	0x00316607
    3a88:	06000009 	streq	r0, [r0], -r9
    3a8c:	00119c1d 	andseq	r9, r1, sp, lsl ip
    3a90:	002c3200 	eoreq	r3, ip, r0, lsl #4
    3a94:	31000000 	mrscc	r0, (UNDEF: 0)
    3a98:	00000998 	muleq	r0, r8, r9
    3a9c:	11ad1c06 			; <UNDEFINED> instruction: 0x11ad1c06
    3aa0:	2c320000 	ldccs	0, cr0, [r2], #-0
    3aa4:	00000000 	andeq	r0, r0, r0
    3aa8:	0005a836 	andeq	sl, r5, r6, lsr r8
    3aac:	25020800 	strcs	r0, [r2, #-2048]	; 0x800
    3ab0:	32000000 	andcc	r0, r0, #0
    3ab4:	0000008a 	andeq	r0, r0, sl, lsl #1
    3ab8:	00002532 	andeq	r2, r0, r2, lsr r5
    3abc:	00973200 	addseq	r3, r7, r0, lsl #4
    3ac0:	06320000 	ldrteq	r0, [r2], -r0
    3ac4:	00000001 	andeq	r0, r0, r1
    3ac8:	0003ff00 	andeq	pc, r3, r0, lsl #30
    3acc:	81000400 	tsthi	r0, r0, lsl #8
    3ad0:	04000011 	streq	r0, [r0], #-17
    3ad4:	00035501 	andeq	r5, r3, r1, lsl #10
    3ad8:	0b250100 	bleq	943ee0 <__bss_end__+0x935670>
    3adc:	05470000 	strbeq	r0, [r7, #-0]
    3ae0:	99c80000 	stmibls	r8, {}^	; <UNPREDICTABLE>
    3ae4:	01540000 	cmpeq	r4, r0
    3ae8:	10b50000 	adcsne	r0, r5, r0
    3aec:	04020000 	streq	r0, [r2], #-0
    3af0:	746e6905 	strbtvc	r6, [lr], #-2309	; 0x905
    3af4:	07040300 	streq	r0, [r4, -r0, lsl #6]
    3af8:	00000062 	andeq	r0, r0, r2, rrx
    3afc:	ba060103 	blt	183f10 <__bss_end__+0x1756a0>
    3b00:	03000002 	movweq	r0, #2
    3b04:	02ce0502 	sbceq	r0, lr, #8388608	; 0x800000
    3b08:	04030000 	streq	r0, [r3], #-0
    3b0c:	00009305 	andeq	r9, r0, r5, lsl #6
    3b10:	05080300 	streq	r0, [r8, #-768]	; 0x300
    3b14:	0000008e 	andeq	r0, r0, lr, lsl #1
    3b18:	b8080103 	stmdalt	r8, {r0, r1, r8}
    3b1c:	03000002 	movweq	r0, #2
    3b20:	01a70702 			; <UNDEFINED> instruction: 0x01a70702
    3b24:	04030000 	streq	r0, [r3], #-0
    3b28:	00005d07 	andeq	r5, r0, r7, lsl #26
    3b2c:	07080300 	streq	r0, [r8, -r0, lsl #6]
    3b30:	00000058 	andeq	r0, r0, r8, asr r0
    3b34:	29070403 	stmdbcs	r7, {r0, r1, sl}
    3b38:	03000002 	movweq	r0, #2
    3b3c:	02c10801 	sbceq	r0, r1, #65536	; 0x10000
    3b40:	01040000 	mrseq	r0, (UNDEF: 4)
    3b44:	00b20c02 	adcseq	r0, r2, r2, lsl #24
    3b48:	75050000 	strvc	r0, [r5, #-0]
    3b4c:	00000000 	andeq	r0, r0, r0
    3b50:	00043e05 	andeq	r3, r4, r5, lsl #28
    3b54:	7b050100 	blvc	143f5c <__bss_end__+0x1356ec>
    3b58:	04000004 	streq	r0, [r0], #-4
    3b5c:	00048a05 	andeq	r8, r4, r5, lsl #20
    3b60:	99050500 	stmdbls	r5, {r8, sl}
    3b64:	06000004 	streq	r0, [r0], -r4
    3b68:	0004a805 	andeq	sl, r4, r5, lsl #16
    3b6c:	b7050700 	strlt	r0, [r5, -r0, lsl #14]
    3b70:	03000004 	movweq	r0, #4
    3b74:	0004c605 	andeq	ip, r4, r5, lsl #12
    3b78:	06000200 	streq	r0, [r0], -r0, lsl #4
    3b7c:	0000045d 	andeq	r0, r0, sp, asr r4
    3b80:	00791502 	rsbseq	r1, r9, r2, lsl #10
    3b84:	1b070000 	blne	1c3b8c <__bss_end__+0x1b531c>
    3b88:	0100000b 	tsteq	r0, fp
    3b8c:	0099c837 	addseq	ip, r9, r7, lsr r8
    3b90:	00009c00 	andeq	r9, r0, r0, lsl #24
    3b94:	c39c0100 	orrsgt	r0, ip, #0, 2
    3b98:	08000001 	stmdaeq	r0, {r0}
    3b9c:	000099d0 	ldrdeq	r9, [r0], -r0
    3ba0:	000003a8 	andeq	r0, r0, r8, lsr #7
    3ba4:	0099dc09 	addseq	sp, r9, r9, lsl #24
    3ba8:	0003af00 	andeq	sl, r3, r0, lsl #30
    3bac:	0000f300 	andeq	pc, r0, r0, lsl #6
    3bb0:	51010a00 	tstpl	r1, r0, lsl #20
    3bb4:	010a3201 	tsteq	sl, r1, lsl #4
    3bb8:	003e0150 	eorseq	r0, lr, r0, asr r1
    3bbc:	0099e809 	addseq	lr, r9, r9, lsl #16
    3bc0:	0003af00 	andeq	sl, r3, r0, lsl #30
    3bc4:	00010b00 	andeq	r0, r1, r0, lsl #22
    3bc8:	51010a00 	tstpl	r1, r0, lsl #20
    3bcc:	010a3201 	tsteq	sl, r1, lsl #4
    3bd0:	003f0150 	eorseq	r0, pc, r0, asr r1	; <UNPREDICTABLE>
    3bd4:	0099ec08 	addseq	lr, r9, r8, lsl #24
    3bd8:	0003a800 	andeq	sl, r3, r0, lsl #16
    3bdc:	99fc0900 	ldmibls	ip!, {r8, fp}^
    3be0:	03c50000 	biceq	r0, r5, #0
    3be4:	01280000 	teqeq	r8, r0
    3be8:	010a0000 	mrseq	r0, (UNDEF: 10)
    3bec:	00750250 	rsbseq	r0, r5, r0, asr r2
    3bf0:	9a080900 	bls	205ff8 <__bss_end__+0x1f7788>
    3bf4:	03e60000 	mvneq	r0, #0
    3bf8:	013c0000 	teqeq	ip, r0
    3bfc:	010a0000 	mrseq	r0, (UNDEF: 10)
    3c00:	00750250 	rsbseq	r0, r5, r0, asr r2
    3c04:	9a0c0800 	bls	305c0c <__bss_end__+0x2f739c>
    3c08:	03a80000 			; <UNDEFINED> instruction: 0x03a80000
    3c0c:	18090000 	stmdane	r9, {}	; <UNPREDICTABLE>
    3c10:	e600009a 			; <UNDEFINED> instruction: 0xe600009a
    3c14:	58000003 	stmdapl	r0, {r0, r1}
    3c18:	0a000001 	beq	3c24 <_start-0x43dc>
    3c1c:	30015101 	andcc	r5, r1, r1, lsl #2
    3c20:	9a240900 	bls	906028 <__bss_end__+0x8f77b8>
    3c24:	03e60000 	mvneq	r0, #0
    3c28:	016b0000 	cmneq	fp, r0
    3c2c:	010a0000 	mrseq	r0, (UNDEF: 10)
    3c30:	00300151 	eorseq	r0, r0, r1, asr r1
    3c34:	009a3009 	addseq	r3, sl, r9
    3c38:	0003e600 	andeq	lr, r3, r0, lsl #12
    3c3c:	00017e00 	andeq	r7, r1, r0, lsl #28
    3c40:	51010a00 	tstpl	r1, r0, lsl #20
    3c44:	09003601 	stmdbeq	r0, {r0, r9, sl, ip, sp}
    3c48:	00009a3c 	andeq	r9, r0, ip, lsr sl
    3c4c:	000003e6 	andeq	r0, r0, r6, ror #7
    3c50:	00000191 	muleq	r0, r1, r1
    3c54:	0151010a 	cmpeq	r1, sl, lsl #2
    3c58:	48090033 	stmdami	r9, {r0, r1, r4, r5}
    3c5c:	e600009a 			; <UNDEFINED> instruction: 0xe600009a
    3c60:	a6000003 	strge	r0, [r0], -r3
    3c64:	0a000001 	beq	3c70 <_start-0x4390>
    3c68:	0a035101 	beq	d8074 <__bss_end__+0xc9804>
    3c6c:	0900010e 	stmdbeq	r0, {r1, r2, r3, r8}
    3c70:	00009a54 	andeq	r9, r0, r4, asr sl
    3c74:	000003e6 	andeq	r0, r0, r6, ror #7
    3c78:	000001b9 			; <UNDEFINED> instruction: 0x000001b9
    3c7c:	0151010a 	cmpeq	r1, sl, lsl #2
    3c80:	58080033 	stmdapl	r8, {r0, r1, r4, r5}
    3c84:	a800009a 	stmdage	r0, {r1, r3, r4, r7}
    3c88:	00000003 	andeq	r0, r0, r3
    3c8c:	00009c0b 	andeq	r9, r0, fp, lsl #24
    3c90:	25570100 	ldrbcs	r0, [r7, #-256]	; 0x100
    3c94:	64000000 	strvs	r0, [r0], #-0
    3c98:	1c00009a 	stcne	0, cr0, [r0], {154}	; 0x9a
    3c9c:	01000000 	mrseq	r0, (UNDEF: 0)
    3ca0:	0001e69c 	muleq	r1, ip, r6
    3ca4:	9a740800 	bls	1d05cac <__bss_end__+0x1cf743c>
    3ca8:	03c50000 	biceq	r0, r5, #0
    3cac:	0b000000 	bleq	3cb4 <_start-0x434c>
    3cb0:	00000a51 	andeq	r0, r0, r1, asr sl
    3cb4:	00255d01 	eoreq	r5, r5, r1, lsl #26
    3cb8:	9a800000 	bls	fe003cc0 <__bss_end__+0xfdff5450>
    3cbc:	00280000 	eoreq	r0, r8, r0
    3cc0:	9c010000 	stcls	0, cr0, [r1], {-0}
    3cc4:	00000212 	andeq	r0, r0, r2, lsl r2
    3cc8:	009a8808 	addseq	r8, sl, r8, lsl #16
    3ccc:	0001c300 	andeq	ip, r1, r0, lsl #6
    3cd0:	9a9c0800 	bls	fe705cd8 <__bss_end__+0xfe6f7468>
    3cd4:	03c50000 	biceq	r0, r5, #0
    3cd8:	0b000000 	bleq	3ce0 <_start-0x4320>
    3cdc:	0000011d 	andeq	r0, r0, sp, lsl r1
    3ce0:	00256401 	eoreq	r6, r5, r1, lsl #8
    3ce4:	9aa80000 	bls	fea03cec <__bss_end__+0xfe9f547c>
    3ce8:	001c0000 	andseq	r0, ip, r0
    3cec:	9c010000 	stcls	0, cr0, [r1], {-0}
    3cf0:	00000235 	andeq	r0, r0, r5, lsr r2
    3cf4:	009ab808 	addseq	fp, sl, r8, lsl #16
    3cf8:	0003c500 	andeq	ip, r3, r0, lsl #10
    3cfc:	2a070000 	bcs	1c3d04 <__bss_end__+0x1b5494>
    3d00:	01000007 	tsteq	r0, r7
    3d04:	009ac46a 	addseq	ip, sl, sl, ror #8
    3d08:	00002c00 	andeq	r2, r0, r0, lsl #24
    3d0c:	719c0100 	orrsvc	r0, ip, r0, lsl #2
    3d10:	0c000002 	stceq	0, cr0, [r0], {2}
    3d14:	6a010063 	bvs	43ea8 <__bss_end__+0x35638>
    3d18:	0000002c 	andeq	r0, r0, ip, lsr #32
    3d1c:	0000243c 	andeq	r2, r0, ip, lsr r4
    3d20:	009ad008 	addseq	sp, sl, r8
    3d24:	00021200 	andeq	r1, r2, r0, lsl #4
    3d28:	9ae80d00 	bls	ffa07130 <__bss_end__+0xff9f88c0>
    3d2c:	03e60000 	mvneq	r0, #0
    3d30:	010a0000 	mrseq	r0, (UNDEF: 10)
    3d34:	00740251 	rsbseq	r0, r4, r1, asr r2
    3d38:	0d0b0000 	stceq	0, cr0, [fp, #-0]
    3d3c:	0100000b 	tsteq	r0, fp
    3d40:	00002574 	andeq	r2, r0, r4, ror r5
    3d44:	009af000 	addseq	pc, sl, r0
    3d48:	00000c00 	andeq	r0, r0, r0, lsl #24
    3d4c:	949c0100 	ldrls	r0, [ip], #256	; 0x100
    3d50:	08000002 	stmdaeq	r0, {r1}
    3d54:	00009af8 	strdeq	r9, [r0], -r8
    3d58:	000001c3 	andeq	r0, r0, r3, asr #3
    3d5c:	0b330b00 	bleq	cc6964 <__bss_end__+0xcb80f4>
    3d60:	78010000 	stmdavc	r1, {}	; <UNPREDICTABLE>
    3d64:	00000025 	andeq	r0, r0, r5, lsr #32
    3d68:	00009afc 	strdeq	r9, [r0], -ip
    3d6c:	00000020 	andeq	r0, r0, r0, lsr #32
    3d70:	02c09c01 	sbceq	r9, r0, #256	; 0x100
    3d74:	04080000 	streq	r0, [r8], #-0
    3d78:	7100009b 	swpvc	r0, fp, [r0]	; <UNPREDICTABLE>
    3d7c:	08000002 	stmdaeq	r0, {r1}
    3d80:	00009b10 	andeq	r9, r0, r0, lsl fp
    3d84:	000001e6 	andeq	r0, r0, r6, ror #3
    3d88:	02a60e00 	adceq	r0, r6, #0, 28
    3d8c:	16010000 	strne	r0, [r1], -r0
    3d90:	000002d1 	ldrdeq	r0, [r0], -r1
    3d94:	9f400305 	svcls	0x00400305
    3d98:	040f0000 	streq	r0, [pc], #-0	; 3da0 <_start-0x4260>
    3d9c:	000002d7 	ldrdeq	r0, [r0], -r7
    3da0:	00002c10 	andeq	r2, r0, r0, lsl ip
    3da4:	00fb0e00 	rscseq	r0, fp, r0, lsl #28
    3da8:	17010000 	strne	r0, [r1, -r0]
    3dac:	000002d1 	ldrdeq	r0, [r0], -r1
    3db0:	9f100305 	svcls	0x00100305
    3db4:	4d0e0000 	stcmi	0, cr0, [lr, #-0]
    3db8:	01000001 	tsteq	r0, r1
    3dbc:	0002d11a 	andeq	sp, r2, sl, lsl r1
    3dc0:	2c030500 	cfstr32cs	mvfx0, [r3], {-0}
    3dc4:	0e00009f 	mcreq	0, 0, r0, cr0, cr15, {4}
    3dc8:	00000208 	andeq	r0, r0, r8, lsl #4
    3dcc:	02d11b01 	sbcseq	r1, r1, #1024	; 0x400
    3dd0:	03050000 	movweq	r0, #20480	; 0x5000
    3dd4:	00009f18 	andeq	r9, r0, r8, lsl pc
    3dd8:	00027e0e 	andeq	r7, r2, lr, lsl #28
    3ddc:	d11c0100 	tstle	ip, r0, lsl #2
    3de0:	05000002 	streq	r0, [r0, #-2]
    3de4:	009f1c03 	addseq	r1, pc, r3, lsl #24
    3de8:	018f0e00 	orreq	r0, pc, r0, lsl #28
    3dec:	1d010000 	stcne	0, cr0, [r1, #-0]
    3df0:	000002d1 	ldrdeq	r0, [r0], -r1
    3df4:	9f200305 	svcls	0x00200305
    3df8:	d50e0000 	strle	r0, [lr, #-0]
    3dfc:	01000004 	tsteq	r0, r4
    3e00:	0002d11e 	andeq	sp, r2, lr, lsl r1
    3e04:	3c030500 	cfstr32cc	mvfx0, [r3], {-0}
    3e08:	0e00009f 	mcreq	0, 0, r0, cr0, cr15, {4}
    3e0c:	000000ec 	andeq	r0, r0, ip, ror #1
    3e10:	02d11f01 	sbcseq	r1, r1, #1, 30
    3e14:	03050000 	movweq	r0, #20480	; 0x5000
    3e18:	00009f28 	andeq	r9, r0, r8, lsr #30
    3e1c:	0001c80e 	andeq	ip, r1, lr, lsl #16
    3e20:	d1200100 	teqle	r0, r0, lsl #2
    3e24:	05000002 	streq	r0, [r0, #-2]
    3e28:	009f3803 	addseq	r3, pc, r3, lsl #16
    3e2c:	00160e00 	andseq	r0, r6, r0, lsl #28
    3e30:	21010000 	mrscs	r0, (UNDEF: 1)
    3e34:	000002d1 	ldrdeq	r0, [r0], -r1
    3e38:	9f340305 	svcls	0x00340305
    3e3c:	b20e0000 	andlt	r0, lr, #0
    3e40:	01000003 	tsteq	r0, r3
    3e44:	0002d122 	andeq	sp, r2, r2, lsr #2
    3e48:	14030500 	strne	r0, [r3], #-1280	; 0x500
    3e4c:	0e00009f 	mcreq	0, 0, r0, cr0, cr15, {4}
    3e50:	000002d8 	ldrdeq	r0, [r0], -r8
    3e54:	02d12301 	sbcseq	r2, r1, #67108864	; 0x4000000
    3e58:	03050000 	movweq	r0, #20480	; 0x5000
    3e5c:	00009f30 	andeq	r9, r0, r0, lsr pc
    3e60:	0001720e 	andeq	r7, r1, lr, lsl #4
    3e64:	d1240100 	teqle	r4, r0, lsl #2
    3e68:	05000002 	streq	r0, [r0, #-2]
    3e6c:	009f2403 	addseq	r2, pc, r3, lsl #8
    3e70:	00e01100 	rsceq	r1, r0, r0, lsl #2
    3e74:	87030000 	strhi	r0, [r3, -r0]
    3e78:	00023212 	andeq	r3, r2, r2, lsl r2
    3e7c:	c5190200 	ldrgt	r0, [r9, #-512]	; 0x200
    3e80:	13000003 	movwne	r0, #3
    3e84:	0000002c 	andeq	r0, r0, ip, lsr #32
    3e88:	0000b213 	andeq	fp, r0, r3, lsl r2
    3e8c:	57140000 	ldrpl	r0, [r4, -r0]
    3e90:	03000004 	movweq	r0, #4
    3e94:	00002ca6 	andeq	r2, r0, r6, lsr #25
    3e98:	0003da00 	andeq	sp, r3, r0, lsl #20
    3e9c:	03da1300 	bicseq	r1, sl, #0, 6
    3ea0:	0f000000 	svceq	0x00000000
    3ea4:	0003e004 	andeq	lr, r3, r4
    3ea8:	03e51500 	mvneq	r1, #0, 10
    3eac:	12160000 	andsne	r0, r6, #0
    3eb0:	000003cb 	andeq	r0, r0, fp, asr #7
    3eb4:	03fc9a03 	mvnseq	r9, #12288	; 0x3000
    3eb8:	fc130000 	ldc2	0, cr0, [r3], {-0}
    3ebc:	13000003 	movwne	r0, #3
    3ec0:	0000002c 	andeq	r0, r0, ip, lsr #32
    3ec4:	e5040f00 	str	r0, [r4, #-3840]	; 0xf00
    3ec8:	00000003 	andeq	r0, r0, r3
    3ecc:	0000058d 	andeq	r0, r0, sp, lsl #11
    3ed0:	12af0004 	adcne	r0, pc, #4
    3ed4:	01040000 	mrseq	r0, (UNDEF: 4)
    3ed8:	00000355 	andeq	r0, r0, r5, asr r3
    3edc:	000bfe01 	andeq	pc, fp, r1, lsl #28
    3ee0:	00054700 	andeq	r4, r5, r0, lsl #14
    3ee4:	009b1c00 	addseq	r1, fp, r0, lsl #24
    3ee8:	00020000 	andeq	r0, r2, r0
    3eec:	0011ba00 	andseq	fp, r1, r0, lsl #20
    3ef0:	05040200 	streq	r0, [r4, #-512]	; 0x200
    3ef4:	00746e69 	rsbseq	r6, r4, r9, ror #28
    3ef8:	62070403 	andvs	r0, r7, #50331648	; 0x3000000
    3efc:	03000000 	movweq	r0, #0
    3f00:	02ba0601 	adcseq	r0, sl, #1048576	; 0x100000
    3f04:	02030000 	andeq	r0, r3, #0
    3f08:	0002ce05 	andeq	ip, r2, r5, lsl #28
    3f0c:	05040300 	streq	r0, [r4, #-768]	; 0x300
    3f10:	00000093 	muleq	r0, r3, r0
    3f14:	8e050803 	cdphi	8, 0, cr0, cr5, cr3, {0}
    3f18:	03000000 	movweq	r0, #0
    3f1c:	02b80801 	adcseq	r0, r8, #65536	; 0x10000
    3f20:	02030000 	andeq	r0, r3, #0
    3f24:	0001a707 	andeq	sl, r1, r7, lsl #14
    3f28:	07040300 	streq	r0, [r4, -r0, lsl #6]
    3f2c:	0000005d 	andeq	r0, r0, sp, asr r0
    3f30:	58070803 	stmdapl	r7, {r0, r1, fp}
    3f34:	03000000 	movweq	r0, #0
    3f38:	02290704 	eoreq	r0, r9, #4, 14	; 0x100000
    3f3c:	01030000 	mrseq	r0, (UNDEF: 3)
    3f40:	0002c108 	andeq	ip, r2, r8, lsl #2
    3f44:	7f040400 	svcvc	0x00040400
    3f48:	05000000 	streq	r0, [r0, #-0]
    3f4c:	00000072 	andeq	r0, r0, r2, ror r0
    3f50:	00007206 	andeq	r7, r0, r6, lsl #4
    3f54:	00009400 	andeq	r9, r0, r0, lsl #8
    3f58:	006b0700 	rsbeq	r0, fp, r0, lsl #14
    3f5c:	00190000 	andseq	r0, r9, r0
    3f60:	14030408 	strne	r0, [r3], #-1032	; 0x408
    3f64:	0000010b 	andeq	r0, r0, fp, lsl #2
    3f68:	000ca409 	andeq	sl, ip, r9, lsl #8
    3f6c:	82e48000 	rschi	r8, r4, #0
    3f70:	89090280 	stmdbhi	r9, {r7, r9}
    3f74:	8000000b 	andhi	r0, r0, fp
    3f78:	028082e4 	addeq	r8, r0, #228, 4	; 0x4000000e
    3f7c:	000c1e09 	andeq	r1, ip, r9, lsl #28
    3f80:	82e48400 	rschi	r8, r4, #0, 8
    3f84:	f0090280 			; <UNDEFINED> instruction: 0xf0090280
    3f88:	8800000b 	stmdahi	r0, {r0, r1, r3}
    3f8c:	028082e4 	addeq	r8, r0, #228, 4	; 0x4000000e
    3f90:	000b6c09 	andeq	r6, fp, r9, lsl #24
    3f94:	82e48c00 	rschi	r8, r4, #0, 24
    3f98:	ad090280 	sfmge	f0, 4, [r9, #-512]	; 0xfffffe00
    3f9c:	9000000b 	andls	r0, r0, fp
    3fa0:	028082e4 	addeq	r8, r0, #228, 4	; 0x4000000e
    3fa4:	000bbb09 	andeq	fp, fp, r9, lsl #22
    3fa8:	82e49400 	rschi	r9, r4, #0, 8
    3fac:	9b090280 	blls	2449b4 <__bss_end__+0x236144>
    3fb0:	9800000b 	stmdals	r0, {r0, r1, r3}
    3fb4:	028082e4 	addeq	r8, r0, #228, 4	; 0x4000000e
    3fb8:	000c7009 	andeq	r7, ip, r9
    3fbc:	82e49c00 	rschi	r9, r4, #0, 24
    3fc0:	7f090280 	svcvc	0x00090280
    3fc4:	a000000c 	andge	r0, r0, ip
    3fc8:	028082e4 	addeq	r8, r0, #228, 4	; 0x4000000e
    3fcc:	000b5909 	andeq	r5, fp, r9, lsl #18
    3fd0:	82e4a400 	rschi	sl, r4, #0, 8
    3fd4:	0a000280 	beq	49dc <_start-0x3624>
    3fd8:	00000275 	andeq	r0, r0, r5, ror r2
    3fdc:	9b1c0501 	blls	7053e8 <__bss_end__+0x6f6b78>
    3fe0:	00680000 	rsbeq	r0, r8, r0
    3fe4:	9c010000 	stcls	0, cr0, [r1], {-0}
    3fe8:	000001b7 			; <UNDEFINED> instruction: 0x000001b7
    3fec:	000b780b 	andeq	r7, fp, fp, lsl #16
    3ff0:	2c110100 	ldfcss	f0, [r1], {-0}
    3ff4:	0b000000 	bleq	3ffc <_start-0x4004>
    3ff8:	00000bc9 	andeq	r0, r0, r9, asr #23
    3ffc:	002c1201 	eoreq	r1, ip, r1, lsl #4
    4000:	640c0000 	strvs	r0, [ip], #-0
    4004:	01007473 	tsteq	r0, r3, ror r4
    4008:	0001b716 	andeq	fp, r1, r6, lsl r7
    400c:	730d0000 	movwvc	r0, #53248	; 0xd000
    4010:	01006372 	tsteq	r0, r2, ror r3
    4014:	0001b717 	andeq	fp, r1, r7, lsl r7
    4018:	006e0e00 	rsbeq	r0, lr, r0, lsl #28
    401c:	002c1801 	eoreq	r1, ip, r1, lsl #16
    4020:	50010000 	andpl	r0, r1, r0
    4024:	009b4c0f 	addseq	r4, fp, pc, lsl #24
    4028:	00002400 	andeq	r2, r0, r0, lsl #8
    402c:	00017300 	andeq	r7, r1, r0, lsl #6
    4030:	00691000 	rsbeq	r1, r9, r0
    4034:	00251901 	eoreq	r1, r5, r1, lsl #18
    4038:	245a0000 	ldrbcs	r0, [sl], #-0
    403c:	11000000 	mrsne	r0, (UNDEF: 0)
    4040:	00009b2c 	andeq	r9, r0, ip, lsr #22
    4044:	0000054f 	andeq	r0, r0, pc, asr #10
    4048:	00000190 	muleq	r0, r0, r1
    404c:	02510112 	subseq	r0, r1, #-2147483644	; 0x80000004
    4050:	0112ff09 	tsteq	r2, r9, lsl #30
    4054:	1c0c0550 	cfstr32ne	mvfx0, [ip], {80}	; 0x50
    4058:	002000b2 	strhteq	r0, [r0], -r2
    405c:	009b3811 	addseq	r3, fp, r1, lsl r8
    4060:	00054f00 	andeq	r4, r5, r0, lsl #30
    4064:	0001ad00 	andeq	sl, r1, r0, lsl #26
    4068:	51011200 	mrspl	r1, R9_usr
    406c:	12ff0902 	rscsne	r0, pc, #32768	; 0x8000
    4070:	0c055001 	stceq	0, cr5, [r5], {1}
    4074:	2000b220 	andcs	fp, r0, r0, lsr #4
    4078:	9b3c1300 	blls	f08c80 <__bss_end__+0xefa410>
    407c:	05650000 	strbeq	r0, [r5, #-0]!
    4080:	04000000 	streq	r0, [r0], #-0
    4084:	00002c04 	andeq	r2, r0, r4, lsl #24
    4088:	0c8e0a00 	vstmiaeq	lr, {s0-s-1}
    408c:	1f010000 	svcne	0x00010000
    4090:	00009b84 	andeq	r9, r0, r4, lsl #23
    4094:	00000044 	andeq	r0, r0, r4, asr #32
    4098:	02429c01 	subeq	r9, r2, #256	; 0x100
    409c:	70140000 	andsvc	r0, r4, r0
    40a0:	1f010063 	svcne	0x00010063
    40a4:	0000002c 	andeq	r0, r0, ip, lsr #32
    40a8:	00002479 	andeq	r2, r0, r9, ror r4
    40ac:	00018215 	andeq	r8, r1, r5, lsl r2
    40b0:	00025200 	andeq	r5, r2, r0, lsl #4
    40b4:	e4030500 	str	r0, [r3], #-1280	; 0x500
    40b8:	130000a2 	movwne	r0, #162	; 0xa2
    40bc:	00009b94 	muleq	r0, r4, fp
    40c0:	0000056c 	andeq	r0, r0, ip, ror #10
    40c4:	009bb411 	addseq	fp, fp, r1, lsl r4
    40c8:	00057300 	andeq	r7, r5, r0, lsl #6
    40cc:	00023800 	andeq	r3, r2, r0, lsl #16
    40d0:	53011200 	movwpl	r1, #4608	; 0x1200
    40d4:	12200802 	eorne	r0, r0, #131072	; 0x20000
    40d8:	03055201 	movweq	r5, #20993	; 0x5201
    40dc:	0000a2e4 	andeq	sl, r0, r4, ror #5
    40e0:	05510112 	ldrbeq	r0, [r1, #-274]	; 0x112
    40e4:	00a3b003 	adceq	fp, r3, r3
    40e8:	50011200 	andpl	r1, r1, r0, lsl #4
    40ec:	a3740305 	cmnge	r4, #335544320	; 0x14000000
    40f0:	02120000 	andseq	r0, r2, #0
    40f4:	7402047d 	strvc	r0, [r2], #-1149	; 0x47d
    40f8:	7d021200 	sfmvc	f1, 4, [r2, #-0]
    40fc:	d0030500 	andle	r0, r3, r0, lsl #10
    4100:	000000a3 	andeq	r0, r0, r3, lsr #1
    4104:	009bb813 	addseq	fp, fp, r3, lsl r8
    4108:	00058900 	andeq	r8, r5, r0, lsl #18
    410c:	72060000 	andvc	r0, r6, #0
    4110:	52000000 	andpl	r0, r0, #0
    4114:	07000002 	streq	r0, [r0, -r2]
    4118:	0000006b 	andeq	r0, r0, fp, rrx
    411c:	42050015 	andmi	r0, r5, #21
    4120:	0a000002 	beq	4130 <_start-0x3ed0>
    4124:	00000c56 	andeq	r0, r0, r6, asr ip
    4128:	9bc82401 	blls	ff20d134 <__bss_end__+0xff1fe8c4>
    412c:	00440000 	subeq	r0, r4, r0
    4130:	9c010000 	stcls	0, cr0, [r1], {-0}
    4134:	000002dc 	ldrdeq	r0, [r0], -ip
    4138:	00637014 	rsbeq	r7, r3, r4, lsl r0
    413c:	002c2401 	eoreq	r2, ip, r1, lsl #8
    4140:	24970000 	ldrcs	r0, [r7], #0
    4144:	82150000 	andshi	r0, r5, #0
    4148:	dc000001 	stcle	0, cr0, [r0], {1}
    414c:	05000002 	streq	r0, [r0, #-2]
    4150:	00a2fc03 	adceq	pc, r2, r3, lsl #24
    4154:	9bd81300 	blls	ff608d5c <__bss_end__+0xff5fa4ec>
    4158:	056c0000 	strbeq	r0, [ip, #-0]!
    415c:	f8110000 			; <UNDEFINED> instruction: 0xf8110000
    4160:	7300009b 	movwvc	r0, #155	; 0x9b
    4164:	d2000005 	andle	r0, r0, #5
    4168:	12000002 	andne	r0, r0, #2
    416c:	08025301 	stmdaeq	r2, {r0, r8, r9, ip, lr}
    4170:	52011225 	andpl	r1, r1, #1342177282	; 0x50000002
    4174:	a2fc0305 	rscsge	r0, ip, #335544320	; 0x14000000
    4178:	01120000 	tsteq	r2, r0
    417c:	b0030551 	andlt	r0, r3, r1, asr r5
    4180:	120000a3 	andne	r0, r0, #163	; 0xa3
    4184:	03055001 	movweq	r5, #20481	; 0x5001
    4188:	0000a374 	andeq	sl, r0, r4, ror r3
    418c:	047d0212 	ldrbteq	r0, [sp], #-530	; 0x212
    4190:	12007402 	andne	r7, r0, #33554432	; 0x2000000
    4194:	05007d02 	streq	r7, [r0, #-3330]	; 0xd02
    4198:	00a3d803 	adceq	sp, r3, r3, lsl #16
    419c:	fc130000 	ldc2	0, cr0, [r3], {-0}
    41a0:	8900009b 	stmdbhi	r0, {r0, r1, r3, r4, r7}
    41a4:	00000005 	andeq	r0, r0, r5
    41a8:	00008405 	andeq	r8, r0, r5, lsl #8
    41ac:	0c490a00 	mcrreq	10, 0, r0, r9, cr0
    41b0:	27010000 	strcs	r0, [r1, -r0]
    41b4:	00009c0c 	andeq	r9, r0, ip, lsl #24
    41b8:	00000044 	andeq	r0, r0, r4, asr #32
    41bc:	03669c01 	cmneq	r6, #256	; 0x100
    41c0:	70140000 	andsvc	r0, r4, r0
    41c4:	27010063 	strcs	r0, [r1, -r3, rrx]
    41c8:	0000002c 	andeq	r0, r0, ip, lsr #32
    41cc:	000024b5 			; <UNDEFINED> instruction: 0x000024b5
    41d0:	00018215 	andeq	r8, r1, r5, lsl r2
    41d4:	00037600 	andeq	r7, r3, r0, lsl #12
    41d8:	18030500 	stmdane	r3, {r8, sl}
    41dc:	130000a3 	movwne	r0, #163	; 0xa3
    41e0:	00009c1c 	andeq	r9, r0, ip, lsl ip
    41e4:	0000056c 	andeq	r0, r0, ip, ror #10
    41e8:	009c3c11 	addseq	r3, ip, r1, lsl ip
    41ec:	00057300 	andeq	r7, r5, r0, lsl #6
    41f0:	00035c00 	andeq	r5, r3, r0, lsl #24
    41f4:	53011200 	movwpl	r1, #4608	; 0x1200
    41f8:	12280802 	eorne	r0, r8, #131072	; 0x20000
    41fc:	03055201 	movweq	r5, #20993	; 0x5201
    4200:	0000a318 	andeq	sl, r0, r8, lsl r3
    4204:	05510112 	ldrbeq	r0, [r1, #-274]	; 0x112
    4208:	00a3b003 	adceq	fp, r3, r3
    420c:	50011200 	andpl	r1, r1, r0, lsl #4
    4210:	a3740305 	cmnge	r4, #335544320	; 0x14000000
    4214:	02120000 	andseq	r0, r2, #0
    4218:	7402047d 	strvc	r0, [r2], #-1149	; 0x47d
    421c:	7d021200 	sfmvc	f1, 4, [r2, #-0]
    4220:	e8030500 	stmda	r3, {r8, sl}
    4224:	000000a3 	andeq	r0, r0, r3, lsr #1
    4228:	009c4013 	addseq	r4, ip, r3, lsl r0
    422c:	00058900 	andeq	r8, r5, r0, lsl #18
    4230:	72060000 	andvc	r0, r6, #0
    4234:	76000000 	strvc	r0, [r0], -r0
    4238:	07000003 	streq	r0, [r0, -r3]
    423c:	0000006b 	andeq	r0, r0, fp, rrx
    4240:	6605000c 	strvs	r0, [r5], -ip
    4244:	0a000003 	beq	4258 <_start-0x3da8>
    4248:	00000c2c 	andeq	r0, r0, ip, lsr #24
    424c:	9c502a01 	mrrcls	10, 0, r2, r0, cr1
    4250:	00440000 	subeq	r0, r4, r0
    4254:	9c010000 	stcls	0, cr0, [r1], {-0}
    4258:	00000400 	andeq	r0, r0, r0, lsl #8
    425c:	00637014 	rsbeq	r7, r3, r4, lsl r0
    4260:	002c2a01 	eoreq	r2, ip, r1, lsl #20
    4264:	24d30000 	ldrbcs	r0, [r3], #0
    4268:	82150000 	andshi	r0, r5, #0
    426c:	10000001 	andne	r0, r0, r1
    4270:	05000004 	streq	r0, [r0, #-4]
    4274:	00a32803 	adceq	r2, r3, r3, lsl #16
    4278:	9c601300 	stclls	3, cr1, [r0], #-0
    427c:	056c0000 	strbeq	r0, [ip, #-0]!
    4280:	80110000 	andshi	r0, r1, r0
    4284:	7300009c 	movwvc	r0, #156	; 0x9c
    4288:	f6000005 			; <UNDEFINED> instruction: 0xf6000005
    428c:	12000003 	andne	r0, r0, #3
    4290:	08025301 	stmdaeq	r2, {r0, r8, r9, ip, lr}
    4294:	5201122b 	andpl	r1, r1, #-1342177278	; 0xb0000002
    4298:	a3280305 	teqge	r8, #335544320	; 0x14000000
    429c:	01120000 	tsteq	r2, r0
    42a0:	b0030551 	andlt	r0, r3, r1, asr r5
    42a4:	120000a3 	andne	r0, r0, #163	; 0xa3
    42a8:	03055001 	movweq	r5, #20481	; 0x5001
    42ac:	0000a374 	andeq	sl, r0, r4, ror r3
    42b0:	047d0212 	ldrbteq	r0, [sp], #-530	; 0x212
    42b4:	12007402 	andne	r7, r0, #33554432	; 0x2000000
    42b8:	05007d02 	streq	r7, [r0, #-3330]	; 0xd02
    42bc:	00a3f803 	adceq	pc, r3, r3, lsl #16
    42c0:	84130000 	ldrhi	r0, [r3], #-0
    42c4:	8900009c 	stmdbhi	r0, {r2, r3, r4, r7}
    42c8:	00000005 	andeq	r0, r0, r5
    42cc:	00007206 	andeq	r7, r0, r6, lsl #4
    42d0:	00041000 	andeq	r1, r4, r0
    42d4:	006b0700 	rsbeq	r0, fp, r0, lsl #14
    42d8:	001c0000 	andseq	r0, ip, r0
    42dc:	00040005 	andeq	r0, r4, r5
    42e0:	0b430a00 	bleq	10c6ae8 <__bss_end__+0x10b8278>
    42e4:	2d010000 	stccs	0, cr0, [r1, #-0]
    42e8:	00009c94 	muleq	r0, r4, ip
    42ec:	00000044 	andeq	r0, r0, r4, asr #32
    42f0:	049a9c01 	ldreq	r9, [sl], #3073	; 0xc01
    42f4:	70140000 	andsvc	r0, r4, r0
    42f8:	2d010063 	stccs	0, cr0, [r1, #-396]	; 0xfffffe74
    42fc:	0000002c 	andeq	r0, r0, ip, lsr #32
    4300:	000024f1 	strdeq	r2, [r0], -r1
    4304:	00018215 	andeq	r8, r1, r5, lsl r2
    4308:	00049a00 	andeq	r9, r4, r0, lsl #20
    430c:	48030500 	stmdami	r3, {r8, sl}
    4310:	130000a3 	movwne	r0, #163	; 0xa3
    4314:	00009ca4 	andeq	r9, r0, r4, lsr #25
    4318:	0000056c 	andeq	r0, r0, ip, ror #10
    431c:	009cc411 	addseq	ip, ip, r1, lsl r4
    4320:	00057300 	andeq	r7, r5, r0, lsl #6
    4324:	00049000 	andeq	r9, r4, r0
    4328:	53011200 	movwpl	r1, #4608	; 0x1200
    432c:	122e0802 	eorne	r0, lr, #131072	; 0x20000
    4330:	03055201 	movweq	r5, #20993	; 0x5201
    4334:	0000a348 	andeq	sl, r0, r8, asr #6
    4338:	05510112 	ldrbeq	r0, [r1, #-274]	; 0x112
    433c:	00a3b003 	adceq	fp, r3, r3
    4340:	50011200 	andpl	r1, r1, r0, lsl #4
    4344:	a3740305 	cmnge	r4, #335544320	; 0x14000000
    4348:	02120000 	andseq	r0, r2, #0
    434c:	7402047d 	strvc	r0, [r2], #-1149	; 0x47d
    4350:	7d021200 	sfmvc	f1, 4, [r2, #-0]
    4354:	10030500 	andne	r0, r3, r0, lsl #10
    4358:	000000a4 	andeq	r0, r0, r4, lsr #1
    435c:	009cc813 	addseq	ip, ip, r3, lsl r8
    4360:	00058900 	andeq	r8, r5, r0, lsl #18
    4364:	42050000 	andmi	r0, r5, #0
    4368:	0a000002 	beq	4378 <_start-0x3c88>
    436c:	00000bde 	ldrdeq	r0, [r0], -lr
    4370:	9cd83001 	ldclls	0, cr3, [r8], {1}
    4374:	00440000 	subeq	r0, r4, r0
    4378:	9c010000 	stcls	0, cr0, [r1], {-0}
    437c:	00000524 	andeq	r0, r0, r4, lsr #10
    4380:	00637014 	rsbeq	r7, r3, r4, lsl r0
    4384:	002c3001 	eoreq	r3, ip, r1
    4388:	250f0000 	strcs	r0, [pc, #-0]	; 4390 <_start-0x3c70>
    438c:	82150000 	andshi	r0, r5, #0
    4390:	34000001 	strcc	r0, [r0], #-1
    4394:	05000005 	streq	r0, [r0, #-5]
    4398:	00a36003 	adceq	r6, r3, r3
    439c:	9ce81300 	stclls	3, cr1, [r8]
    43a0:	056c0000 	strbeq	r0, [ip, #-0]!
    43a4:	08110000 	ldmdaeq	r1, {}	; <UNPREDICTABLE>
    43a8:	7300009d 	movwvc	r0, #157	; 0x9d
    43ac:	1a000005 	bne	43c8 <_start-0x3c38>
    43b0:	12000005 	andne	r0, r0, #5
    43b4:	08025301 	stmdaeq	r2, {r0, r8, r9, ip, lr}
    43b8:	52011231 	andpl	r1, r1, #268435459	; 0x10000003
    43bc:	a3600305 	cmnge	r0, #335544320	; 0x14000000
    43c0:	01120000 	tsteq	r2, r0
    43c4:	b0030551 	andlt	r0, r3, r1, asr r5
    43c8:	120000a3 	andne	r0, r0, #163	; 0xa3
    43cc:	03055001 	movweq	r5, #20481	; 0x5001
    43d0:	0000a374 	andeq	sl, r0, r4, ror r3
    43d4:	047d0212 	ldrbteq	r0, [sp], #-530	; 0x212
    43d8:	12007402 	andne	r7, r0, #33554432	; 0x2000000
    43dc:	05007d02 	streq	r7, [r0, #-3330]	; 0xd02
    43e0:	00a42003 	adceq	r2, r4, r3
    43e4:	0c130000 	ldceq	0, cr0, [r3], {-0}
    43e8:	8900009d 	stmdbhi	r0, {r0, r2, r3, r4, r7}
    43ec:	00000005 	andeq	r0, r0, r5
    43f0:	00007206 	andeq	r7, r0, r6, lsl #4
    43f4:	00053400 	andeq	r3, r5, r0, lsl #8
    43f8:	006b0700 	rsbeq	r0, fp, r0, lsl #14
    43fc:	00110000 	andseq	r0, r1, r0
    4400:	00052405 	andeq	r2, r5, r5, lsl #8
    4404:	0b780b00 	bleq	1e0700c <__bss_end__+0x1df879c>
    4408:	11010000 	mrsne	r0, (UNDEF: 1)
    440c:	0000002c 	andeq	r0, r0, ip, lsr #32
    4410:	000bc90b 	andeq	ip, fp, fp, lsl #18
    4414:	2c120100 	ldfcss	f0, [r2], {-0}
    4418:	16000000 	strne	r0, [r0], -r0
    441c:	000007df 	ldrdeq	r0, [r0], -pc	; <UNPREDICTABLE>
    4420:	05659902 	strbeq	r9, [r5, #-2306]!	; 0x902
    4424:	2c170000 	ldccs	0, cr0, [r7], {-0}
    4428:	17000000 	strne	r0, [r0, -r0]
    442c:	0000002c 	andeq	r0, r0, ip, lsr #32
    4430:	00e01800 	rsceq	r1, r0, r0, lsl #16
    4434:	87020000 	strhi	r0, [r2, -r0]
    4438:	00015b18 	andeq	r5, r1, r8, lsl fp
    443c:	191e0200 	ldmdbne	lr, {r9}
    4440:	000005ab 	andeq	r0, r0, fp, lsr #11
    4444:	00252902 	eoreq	r2, r5, r2, lsl #18
    4448:	05890000 	streq	r0, [r9]
    444c:	79170000 	ldmdbvc	r7, {}	; <UNPREDICTABLE>
    4450:	1a000000 	bne	4458 <_start-0x3ba8>
    4454:	02171800 	andseq	r1, r7, #0, 16
    4458:	66020000 	strvs	r0, [r2], -r0
    445c:	0001c300 	andeq	ip, r1, r0, lsl #6
    4460:	06000400 	streq	r0, [r0], -r0, lsl #8
    4464:	04000014 	streq	r0, [r0], #-20
    4468:	00035501 	andeq	r5, r3, r1, lsl #10
    446c:	0cb40100 	ldfeqs	f0, [r4]
    4470:	05470000 	strbeq	r0, [r7, #-0]
    4474:	9e580000 	cdpls	0, 5, cr0, cr8, cr0, {0}
    4478:	00500000 	subseq	r0, r0, r0
    447c:	12940000 	addsne	r0, r4, #0
    4480:	04020000 	streq	r0, [r2], #-0
    4484:	746e6905 	strbtvc	r6, [lr], #-2309	; 0x905
    4488:	00000300 	andeq	r0, r0, r0, lsl #6
    448c:	d4020000 	strle	r0, [r2], #-0
    4490:	00000037 	andeq	r0, r0, r7, lsr r0
    4494:	62070404 	andvs	r0, r7, #4, 8	; 0x4000000
    4498:	04000000 	streq	r0, [r0], #-0
    449c:	02ba0601 	adcseq	r0, sl, #1048576	; 0x100000
    44a0:	02040000 	andeq	r0, r4, #0
    44a4:	0002ce05 	andeq	ip, r2, r5, lsl #28
    44a8:	05040400 	streq	r0, [r4, #-1024]	; 0x400
    44ac:	00000093 	muleq	r0, r3, r0
    44b0:	8e050804 	cdphi	8, 0, cr0, cr5, cr4, {0}
    44b4:	03000000 	movweq	r0, #0
    44b8:	0000044f 	andeq	r0, r0, pc, asr #8
    44bc:	00652e03 	rsbeq	r2, r5, r3, lsl #28
    44c0:	01040000 	mrseq	r0, (UNDEF: 4)
    44c4:	0002b808 	andeq	fp, r2, r8, lsl #16
    44c8:	07020400 	streq	r0, [r2, -r0, lsl #8]
    44cc:	000001a7 	andeq	r0, r0, r7, lsr #3
    44d0:	00034703 	andeq	r4, r3, r3, lsl #14
    44d4:	7e340300 	cdpvc	3, 3, cr0, cr4, cr0, {0}
    44d8:	04000000 	streq	r0, [r0], #-0
    44dc:	005d0704 	subseq	r0, sp, r4, lsl #14
    44e0:	08040000 	stmdaeq	r4, {}	; <UNPREDICTABLE>
    44e4:	00005807 	andeq	r5, r0, r7, lsl #16
    44e8:	07040400 	streq	r0, [r4, -r0, lsl #8]
    44ec:	00000229 	andeq	r0, r0, r9, lsr #4
    44f0:	01040405 	tsteq	r4, r5, lsl #8
    44f4:	0002c108 	andeq	ip, r2, r8, lsl #2
    44f8:	040c0600 	streq	r0, [ip], #-1536	; 0x600
    44fc:	0000d30e 	andeq	sp, r0, lr, lsl #6
    4500:	78740700 	ldmdavc	r4!, {r8, r9, sl}^
    4504:	5a0f0400 	bpl	3c550c <__bss_end__+0x3b6c9c>
    4508:	00000000 	andeq	r0, r0, r0
    450c:	00787207 	rsbseq	r7, r8, r7, lsl #4
    4510:	005a0f04 	subseq	r0, sl, r4, lsl #30
    4514:	08010000 	stmdaeq	r1, {}	; <UNPREDICTABLE>
    4518:	00000350 	andeq	r0, r0, r0, asr r3
    451c:	00731004 	rsbseq	r1, r3, r4
    4520:	08040000 	stmdaeq	r4, {}	; <UNPREDICTABLE>
    4524:	000004e4 	andeq	r0, r0, r4, ror #9
    4528:	00731104 	rsbseq	r1, r3, r4, lsl #2
    452c:	00080000 	andeq	r0, r8, r0
    4530:	0002ae03 	andeq	sl, r2, r3, lsl #28
    4534:	9c120400 	cfldrsls	mvf0, [r2], {-0}
    4538:	09000000 	stmdbeq	r0, {}	; <UNPREDICTABLE>
    453c:	f9100501 			; <UNDEFINED> instruction: 0xf9100501
    4540:	0a000000 	beq	4548 <_start-0x3ab8>
    4544:	00000707 	andeq	r0, r0, r7, lsl #14
    4548:	06fa0a01 	ldrbteq	r0, [sl], r1, lsl #20
    454c:	0a020000 	beq	84554 <__bss_end__+0x75ce4>
    4550:	000006ec 	andeq	r0, r0, ip, ror #13
    4554:	1c030003 	stcne	0, cr0, [r3], {3}
    4558:	05000007 	streq	r0, [r0, #-7]
    455c:	0000de10 	andeq	sp, r0, r0, lsl lr
    4560:	05140600 	ldreq	r0, [r4, #-1536]	; 0x600
    4564:	00013114 	andeq	r3, r1, r4, lsl r1
    4568:	077b0800 	ldrbeq	r0, [fp, -r0, lsl #16]!
    456c:	15050000 	strne	r0, [r5, #-0]
    4570:	00000037 	andeq	r0, r0, r7, lsr r0
    4574:	076f0800 	strbeq	r0, [pc, -r0, lsl #16]!
    4578:	18050000 	stmdane	r5, {}	; <UNPREDICTABLE>
    457c:	000000f9 	strdeq	r0, [r0], -r9
    4580:	016a0804 	cmneq	sl, r4, lsl #16
    4584:	1b050000 	blne	14458c <__bss_end__+0x135d1c>
    4588:	000000d3 	ldrdeq	r0, [r0], -r3
    458c:	34030008 	strcc	r0, [r3], #-8
    4590:	05000007 	streq	r0, [r0, #-7]
    4594:	00010420 	andeq	r0, r1, r0, lsr #8
    4598:	0cad0b00 	vstmiaeq	sp!, {d0-d-1}
    459c:	05010000 	streq	r0, [r1, #-0]
    45a0:	0000017e 	andeq	r0, r0, lr, ror r1
    45a4:	00009e58 	andeq	r9, r0, r8, asr lr
    45a8:	00000028 	andeq	r0, r0, r8, lsr #32
    45ac:	017e9c01 	cmneq	lr, r1, lsl #24
    45b0:	630c0000 	movwvs	r0, #49152	; 0xc000
    45b4:	7e060100 	adfvcs	f0, f6, f0
    45b8:	00000001 	andeq	r0, r0, r1
    45bc:	0d090000 	stceq	0, cr0, [r9, #-0]
    45c0:	00009e6c 	andeq	r9, r0, ip, ror #28
    45c4:	000001ab 	andeq	r0, r0, fp, lsr #3
    45c8:	0152010e 	cmpeq	r2, lr, lsl #2
    45cc:	51010e34 	tstpl	r1, r4, lsr lr
    45d0:	010e3001 	tsteq	lr, r1
    45d4:	47420350 	smlsldmi	r0, r2, r0, r3
    45d8:	0f000024 	svceq	0x00000024
    45dc:	00013104 	andeq	r3, r1, r4, lsl #2
    45e0:	07420b00 	strbeq	r0, [r2, -r0, lsl #22]
    45e4:	0c010000 	stceq	0, cr0, [r1], {-0}
    45e8:	0000017e 	andeq	r0, r0, lr, ror r1
    45ec:	00009e80 	andeq	r9, r0, r0, lsl #29
    45f0:	00000028 	andeq	r0, r0, r8, lsr #32
    45f4:	01ab9c01 			; <UNDEFINED> instruction: 0x01ab9c01
    45f8:	630c0000 	movwvs	r0, #49152	; 0xc000
    45fc:	7e0d0100 	adfvce	f0, f5, f0
    4600:	00000001 	andeq	r0, r0, r1
    4604:	00090000 	andeq	r0, r9, r0
    4608:	00042210 	andeq	r2, r4, r0, lsl r2
    460c:	931b0600 	tstls	fp, #0, 12
    4610:	11000000 	mrsne	r0, (UNDEF: 0)
    4614:	00000093 	muleq	r0, r3, r0
    4618:	00002511 	andeq	r2, r0, r1, lsl r5
    461c:	002c1100 	eoreq	r1, ip, r0, lsl #2
    4620:	00000000 	andeq	r0, r0, r0

Disassembly of section .debug_abbrev:

00000000 <.debug_abbrev>:
       0:	25011101 	strcs	r1, [r1, #-257]	; 0x101
       4:	030b130e 	movweq	r1, #45838	; 0xb30e
       8:	110e1b0e 	tstne	lr, lr, lsl #22
       c:	10061201 	andne	r1, r6, r1, lsl #4
      10:	02000017 	andeq	r0, r0, #23
      14:	0b0b0024 	bleq	2c00ac <__bss_end__+0x2b183c>
      18:	08030b3e 	stmdaeq	r3, {r1, r2, r3, r4, r5, r8, r9, fp}
      1c:	16030000 	strne	r0, [r3], -r0
      20:	3a0e0300 	bcc	380c28 <__bss_end__+0x3723b8>
      24:	490b3b0b 	stmdbmi	fp, {r0, r1, r3, r8, r9, fp, ip, sp}
      28:	04000013 	streq	r0, [r0], #-19
      2c:	0b0b0024 	bleq	2c00c4 <__bss_end__+0x2b1854>
      30:	0e030b3e 	vmoveq.16	d3[0], r0
      34:	0f050000 	svceq	0x00050000
      38:	000b0b00 	andeq	r0, fp, r0, lsl #22
      3c:	000f0600 	andeq	r0, pc, r0, lsl #12
      40:	13490b0b 	movtne	r0, #39691	; 0x9b0b
      44:	26070000 	strcs	r0, [r7], -r0
      48:	00134900 	andseq	r4, r3, r0, lsl #18
      4c:	01010800 	tsteq	r1, r0, lsl #16
      50:	13011349 	movwne	r1, #4937	; 0x1349
      54:	21090000 	mrscs	r0, (UNDEF: 9)
      58:	2f134900 	svccs	0x00134900
      5c:	0a00000b 	beq	90 <_start-0x7f70>
      60:	0b0b0104 	bleq	2c0478 <__bss_end__+0x2b1c08>
      64:	0b3b0b3a 	bleq	ec2d54 <__bss_end__+0xeb44e4>
      68:	00001301 	andeq	r1, r0, r1, lsl #6
      6c:	0300280b 	movweq	r2, #2059	; 0x80b
      70:	000d1c0e 	andeq	r1, sp, lr, lsl #24
      74:	01130c00 	tsteq	r3, r0, lsl #24
      78:	0b3a050b 	bleq	e814ac <__bss_end__+0xe72c3c>
      7c:	13010b3b 	movwne	r0, #6971	; 0x1b3b
      80:	0d0d0000 	stceq	0, cr0, [sp, #-0]
      84:	3a0e0300 	bcc	380c8c <__bss_end__+0x37241c>
      88:	490b3b0b 	stmdbmi	fp, {r0, r1, r3, r8, r9, fp, ip, sp}
      8c:	000b3813 	andeq	r3, fp, r3, lsl r8
      90:	000d0e00 	andeq	r0, sp, r0, lsl #28
      94:	0b3a0e03 	bleq	e838a8 <__bss_end__+0xe75038>
      98:	13490b3b 	movtne	r0, #39739	; 0x9b3b
      9c:	00000538 	andeq	r0, r0, r8, lsr r5
      a0:	03000d0f 	movweq	r0, #3343	; 0xd0f
      a4:	3b0b3a0e 	blcc	2ce8e4 <__bss_end__+0x2c0074>
      a8:	0b13490b 	bleq	4d24dc <__bss_end__+0x4c3c6c>
      ac:	0c0b0d0b 	stceq	13, cr0, [fp], {11}
      b0:	0005380b 	andeq	r3, r5, fp, lsl #16
      b4:	00211000 	eoreq	r1, r1, r0
      b8:	052f1349 	streq	r1, [pc, #-841]!	; fffffd77 <__bss_end__+0xffff1507>
      bc:	35110000 	ldrcc	r0, [r1, #-0]
      c0:	00134900 	andseq	r4, r3, r0, lsl #18
      c4:	01131200 	tsteq	r3, r0, lsl #4
      c8:	0b3a0b0b 	bleq	e82cfc <__bss_end__+0xe7448c>
      cc:	13010b3b 	movwne	r0, #6971	; 0x1b3b
      d0:	0d130000 	ldceq	0, cr0, [r3, #-0]
      d4:	3a080300 	bcc	200cdc <__bss_end__+0x1f246c>
      d8:	490b3b0b 	stmdbmi	fp, {r0, r1, r3, r8, r9, fp, ip, sp}
      dc:	000b3813 	andeq	r3, fp, r3, lsl r8
      e0:	012e1400 	teqeq	lr, r0, lsl #8
      e4:	0b3a0e03 	bleq	e838f8 <__bss_end__+0xe75088>
      e8:	19270b3b 	stmdbne	r7!, {r0, r1, r3, r4, r5, r8, r9, fp}
      ec:	0b201349 	bleq	804e18 <__bss_end__+0x7f65a8>
      f0:	00001301 	andeq	r1, r0, r1, lsl #6
      f4:	03000515 	movweq	r0, #1301	; 0x515
      f8:	3b0b3a08 	blcc	2ce920 <__bss_end__+0x2c00b0>
      fc:	0013490b 	andseq	r4, r3, fp, lsl #18
     100:	00341600 	eorseq	r1, r4, r0, lsl #12
     104:	0b3a0e03 	bleq	e83918 <__bss_end__+0xe750a8>
     108:	13490b3b 	movtne	r0, #39739	; 0x9b3b
     10c:	2e170000 	cdpcs	0, 1, cr0, cr7, cr0, {0}
     110:	3a0e0301 	bcc	380d1c <__bss_end__+0x3724ac>
     114:	270b3b0b 	strcs	r3, [fp, -fp, lsl #22]
     118:	12011119 	andne	r1, r1, #1073741830	; 0x40000006
     11c:	97184006 	ldrls	r4, [r8, -r6]
     120:	13011942 	movwne	r1, #6466	; 0x1942
     124:	05180000 	ldreq	r0, [r8, #-0]
     128:	3a080300 	bcc	200d30 <__bss_end__+0x1f24c0>
     12c:	490b3b0b 	stmdbmi	fp, {r0, r1, r3, r8, r9, fp, ip, sp}
     130:	00170213 	andseq	r0, r7, r3, lsl r2
     134:	00051900 	andeq	r1, r5, r0, lsl #18
     138:	0b3a0e03 	bleq	e8394c <__bss_end__+0xe750dc>
     13c:	13490b3b 	movtne	r0, #39739	; 0x9b3b
     140:	00001702 	andeq	r1, r0, r2, lsl #14
     144:	0300341a 	movweq	r3, #1050	; 0x41a
     148:	3413490e 	ldrcc	r4, [r3], #-2318	; 0x90e
     14c:	00180219 	andseq	r0, r8, r9, lsl r2
     150:	00341b00 	eorseq	r1, r4, r0, lsl #22
     154:	0b3a0803 	bleq	e82168 <__bss_end__+0xe738f8>
     158:	13490b3b 	movtne	r0, #39739	; 0x9b3b
     15c:	00001702 	andeq	r1, r0, r2, lsl #14
     160:	31011d1c 	tstcc	r1, ip, lsl sp
     164:	12011113 	andne	r1, r1, #-1073741820	; 0xc0000004
     168:	590b5806 	stmdbpl	fp, {r1, r2, fp, ip, lr}
     16c:	0013010b 	andseq	r0, r3, fp, lsl #2
     170:	00051d00 	andeq	r1, r5, r0, lsl #26
     174:	18021331 	stmdane	r2, {r0, r4, r5, r8, r9, ip}
     178:	1d1e0000 	ldcne	0, cr0, [lr, #-0]
     17c:	52133101 	andspl	r3, r3, #1073741824	; 0x40000000
     180:	58175501 	ldmdapl	r7, {r0, r8, sl, ip, lr}
     184:	010b590b 	tsteq	fp, fp, lsl #18
     188:	1f000013 	svcne	0x00000013
     18c:	1755010b 	ldrbne	r0, [r5, -fp, lsl #2]
     190:	34200000 	strtcc	r0, [r0], #-0
     194:	02133100 	andseq	r3, r3, #0, 2
     198:	21000017 	tstcs	r0, r7, lsl r0
     19c:	1331011d 	teqne	r1, #1073741831	; 0x40000007
     1a0:	06120111 			; <UNDEFINED> instruction: 0x06120111
     1a4:	0b590b58 	bleq	1642f0c <__bss_end__+0x163469c>
     1a8:	89220000 	stmdbhi	r2!, {}	; <UNPREDICTABLE>
     1ac:	11010182 	smlabbne	r1, r2, r1, r0
     1b0:	01133101 	tsteq	r3, r1, lsl #2
     1b4:	23000013 	movwcs	r0, #19
     1b8:	0001828a 	andeq	r8, r1, sl, lsl #5
     1bc:	42911802 	addsmi	r1, r1, #131072	; 0x20000
     1c0:	24000018 	strcs	r0, [r0], #-24
     1c4:	00018289 	andeq	r8, r1, r9, lsl #5
     1c8:	13310111 	teqne	r1, #1073741828	; 0x40000004
     1cc:	2e250000 	cdpcs	0, 2, cr0, cr5, cr0, {0}
     1d0:	03193f01 	tsteq	r9, #1, 30
     1d4:	3b0b3a0e 	blcc	2cea14 <__bss_end__+0x2c01a4>
     1d8:	4919270b 	ldmdbmi	r9, {r0, r1, r3, r8, r9, sl, sp}
     1dc:	12011113 	andne	r1, r1, #-1073741820	; 0xc0000004
     1e0:	97184006 	ldrls	r4, [r8, -r6]
     1e4:	13011942 	movwne	r1, #6466	; 0x1942
     1e8:	2e260000 	cdpcs	0, 2, cr0, cr6, cr0, {0}
     1ec:	03193f01 	tsteq	r9, #1, 30
     1f0:	3b0b3a0e 	blcc	2cea30 <__bss_end__+0x2c01c0>
     1f4:	1119270b 	tstne	r9, fp, lsl #14
     1f8:	40061201 	andmi	r1, r6, r1, lsl #4
     1fc:	19429718 	stmdbne	r2, {r3, r4, r8, r9, sl, ip, pc}^
     200:	00001301 	andeq	r1, r0, r1, lsl #6
     204:	03003427 	movweq	r3, #1063	; 0x427
     208:	3b0b3a0e 	blcc	2cea48 <__bss_end__+0x2c01d8>
     20c:	0213490b 	andseq	r4, r3, #180224	; 0x2c000
     210:	28000017 	stmdacs	r0, {r0, r1, r2, r4}
     214:	0111010b 	tsteq	r1, fp, lsl #2
     218:	13010612 	movwne	r0, #5650	; 0x1612
     21c:	05290000 	streq	r0, [r9, #-0]!
     220:	02133100 	andseq	r3, r3, #0, 2
     224:	2a000017 	bcs	288 <_start-0x7d78>
     228:	0111010b 	tsteq	r1, fp, lsl #2
     22c:	00000612 	andeq	r0, r0, r2, lsl r6
     230:	31011d2b 	tstcc	r1, fp, lsr #26
     234:	55015213 	strpl	r5, [r1, #-531]	; 0x213
     238:	590b5817 	stmdbpl	fp, {r0, r1, r2, r4, fp, ip, lr}
     23c:	2c00000b 	stccs	0, cr0, [r0], {11}
     240:	01018289 	smlabbeq	r1, r9, r2, r8
     244:	13310111 	teqne	r1, #1073741828	; 0x40000004
     248:	2e2d0000 	cdpcs	0, 2, cr0, cr13, cr0, {0}
     24c:	03193f01 	tsteq	r9, #1, 30
     250:	3b0b3a0e 	blcc	2cea90 <__bss_end__+0x2c0220>
     254:	1201110b 	andne	r1, r1, #-1073741822	; 0xc0000002
     258:	97184006 	ldrls	r4, [r8, -r6]
     25c:	13011942 	movwne	r1, #6466	; 0x1942
     260:	342e0000 	strtcc	r0, [lr], #-0
     264:	3a0e0300 	bcc	380e6c <__bss_end__+0x3725fc>
     268:	490b3b0b 	stmdbmi	fp, {r0, r1, r3, r8, r9, fp, ip, sp}
     26c:	00061c13 	andeq	r1, r6, r3, lsl ip
     270:	00342f00 	eorseq	r2, r4, r0, lsl #30
     274:	0b3a0e03 	bleq	e83a88 <__bss_end__+0xe75218>
     278:	13490b3b 	movtne	r0, #39739	; 0x9b3b
     27c:	00001802 	andeq	r1, r0, r2, lsl #16
     280:	03003430 	movweq	r3, #1072	; 0x430
     284:	3b0b3a0e 	blcc	2ceac4 <__bss_end__+0x2c0254>
     288:	1c13490b 	ldcne	9, cr4, [r3], {11}
     28c:	3100000b 	tstcc	r0, fp
     290:	0e030034 	mcreq	0, 0, r0, cr3, cr4, {1}
     294:	0b3b0b3a 	bleq	ec2f84 <__bss_end__+0xeb4714>
     298:	193f1349 	ldmdbne	pc!, {r0, r3, r6, r8, r9, ip}	; <UNPREDICTABLE>
     29c:	00001802 	andeq	r1, r0, r2, lsl #16
     2a0:	3f012e32 	svccc	0x00012e32
     2a4:	3a0e0319 	bcc	380f10 <__bss_end__+0x3726a0>
     2a8:	270b3b0b 	strcs	r3, [fp, -fp, lsl #22]
     2ac:	3c134919 	ldccc	9, cr4, [r3], {25}
     2b0:	00130119 	andseq	r0, r3, r9, lsl r1
     2b4:	00053300 	andeq	r3, r5, r0, lsl #6
     2b8:	00001349 	andeq	r1, r0, r9, asr #6
     2bc:	3f002e34 	svccc	0x00002e34
     2c0:	3a0e0319 	bcc	380f2c <__bss_end__+0x3726bc>
     2c4:	270b3b0b 	strcs	r3, [fp, -fp, lsl #22]
     2c8:	00193c19 	andseq	r3, r9, r9, lsl ip
     2cc:	00183500 	andseq	r3, r8, r0, lsl #10
     2d0:	35360000 	ldrcc	r0, [r6, #-0]!
     2d4:	37000000 	strcc	r0, [r0, -r0]
     2d8:	193f012e 	ldmdbne	pc!, {r1, r2, r3, r5, r8}	; <UNPREDICTABLE>
     2dc:	0b3a0e03 	bleq	e83af0 <__bss_end__+0xe75280>
     2e0:	19270b3b 	stmdbne	r7!, {r0, r1, r3, r4, r5, r8, r9, fp}
     2e4:	1301193c 	movwne	r1, #6460	; 0x193c
     2e8:	2e380000 	cdpcs	0, 3, cr0, cr8, cr0, {0}
     2ec:	03193f00 	tsteq	r9, #0, 30
     2f0:	3b0b3a0e 	blcc	2ceb30 <__bss_end__+0x2c02c0>
     2f4:	4919270b 	ldmdbmi	r9, {r0, r1, r3, r8, r9, sl, sp}
     2f8:	00193c13 	andseq	r3, r9, r3, lsl ip
     2fc:	11010000 	mrsne	r0, (UNDEF: 1)
     300:	130e2501 	movwne	r2, #58625	; 0xe501
     304:	1b0e030b 	blne	380f38 <__bss_end__+0x3726c8>
     308:	1201110e 	andne	r1, r1, #-2147483645	; 0x80000003
     30c:	00171006 	andseq	r1, r7, r6
     310:	00240200 	eoreq	r0, r4, r0, lsl #4
     314:	0b3e0b0b 	bleq	f82f48 <__bss_end__+0xf746d8>
     318:	00000e03 	andeq	r0, r0, r3, lsl #28
     31c:	0b002403 	bleq	9330 <gpio_event_detected+0x64>
     320:	030b3e0b 	movweq	r3, #48651	; 0xbe0b
     324:	04000008 	streq	r0, [r0], #-8
     328:	0b0b000f 	bleq	2c036c <__bss_end__+0x2b1afc>
     32c:	0f050000 	svceq	0x00050000
     330:	490b0b00 	stmdbmi	fp, {r8, r9, fp}
     334:	06000013 			; <UNDEFINED> instruction: 0x06000013
     338:	0e030016 	mcreq	0, 0, r0, cr3, cr6, {0}
     33c:	0b3b0b3a 	bleq	ec302c <__bss_end__+0xeb47bc>
     340:	00001349 	andeq	r1, r0, r9, asr #6
     344:	3f012e07 	svccc	0x00012e07
     348:	3a0e0319 	bcc	380fb4 <__bss_end__+0x372744>
     34c:	270b3b0b 	strcs	r3, [fp, -fp, lsl #22]
     350:	11134919 	tstne	r3, r9, lsl r9
     354:	40061201 	andmi	r1, r6, r1, lsl #4
     358:	19429718 	stmdbne	r2, {r3, r4, r8, r9, sl, ip, pc}^
     35c:	05080000 	streq	r0, [r8, #-0]
     360:	3a080300 	bcc	200f68 <__bss_end__+0x1f26f8>
     364:	490b3b0b 	stmdbmi	fp, {r0, r1, r3, r8, r9, fp, ip, sp}
     368:	00180213 	andseq	r0, r8, r3, lsl r2
     36c:	00050900 	andeq	r0, r5, r0, lsl #18
     370:	0b3a0803 	bleq	e82384 <__bss_end__+0xe73b14>
     374:	13490b3b 	movtne	r0, #39739	; 0x9b3b
     378:	00001702 	andeq	r1, r0, r2, lsl #14
     37c:	0300340a 	movweq	r3, #1034	; 0x40a
     380:	3b0b3a08 	blcc	2ceba8 <__bss_end__+0x2c0338>
     384:	0213490b 	andseq	r4, r3, #180224	; 0x2c000
     388:	0b000017 	bleq	3ec <_start-0x7c14>
     38c:	08030034 	stmdaeq	r3, {r2, r4, r5}
     390:	0b3b0b3a 	bleq	ec3080 <__bss_end__+0xeb4810>
     394:	18021349 	stmdane	r2, {r0, r3, r6, r8, r9, ip}
     398:	01000000 	mrseq	r0, (UNDEF: 0)
     39c:	0e250111 	mcreq	1, 1, r0, cr5, cr1, {0}
     3a0:	0e030b13 	vmoveq.32	d3[0], r0
     3a4:	01110e1b 	tsteq	r1, fp, lsl lr
     3a8:	17100612 			; <UNDEFINED> instruction: 0x17100612
     3ac:	16020000 	strne	r0, [r2], -r0
     3b0:	3a0e0300 	bcc	380fb8 <__bss_end__+0x372748>
     3b4:	490b3b0b 	stmdbmi	fp, {r0, r1, r3, r8, r9, fp, ip, sp}
     3b8:	03000013 	movweq	r0, #19
     3bc:	0e030113 	mcreq	1, 0, r0, cr3, cr3, {0}
     3c0:	0b3a0b0b 	bleq	e82ff4 <__bss_end__+0xe74784>
     3c4:	13010b3b 	movwne	r0, #6971	; 0x1b3b
     3c8:	0d040000 	stceq	0, cr0, [r4, #-0]
     3cc:	490e0300 	stmdbmi	lr, {r8, r9}
     3d0:	340b3813 	strcc	r3, [fp], #-2067	; 0x813
     3d4:	05000019 	streq	r0, [r0, #-25]
     3d8:	0b0b000f 	bleq	2c041c <__bss_end__+0x2b1bac>
     3dc:	24060000 	strcs	r0, [r6], #-0
     3e0:	3e0b0b00 	vmlacc.f64	d0, d11, d0
     3e4:	0008030b 	andeq	r0, r8, fp, lsl #6
     3e8:	00240700 	eoreq	r0, r4, r0, lsl #14
     3ec:	0b3e0b0b 	bleq	f83020 <__bss_end__+0xf747b0>
     3f0:	00000e03 	andeq	r0, r0, r3, lsl #28
     3f4:	0b000f08 	bleq	401c <_start-0x3fe4>
     3f8:	0013490b 	andseq	r4, r3, fp, lsl #18
     3fc:	00260900 	eoreq	r0, r6, r0, lsl #18
     400:	00001349 	andeq	r1, r0, r9, asr #6
     404:	3f012e0a 	svccc	0x00012e0a
     408:	3a0e0319 	bcc	381074 <__bss_end__+0x372804>
     40c:	270b3b0b 	strcs	r3, [fp, -fp, lsl #22]
     410:	11134919 	tstne	r3, r9, lsl r9
     414:	40061201 	andmi	r1, r6, r1, lsl #4
     418:	19429718 	stmdbne	r2, {r3, r4, r8, r9, sl, ip, pc}^
     41c:	00001301 	andeq	r1, r0, r1, lsl #6
     420:	0300050b 	movweq	r0, #1291	; 0x50b
     424:	3b0b3a08 	blcc	2cec4c <__bss_end__+0x2c03dc>
     428:	0213490b 	andseq	r4, r3, #180224	; 0x2c000
     42c:	0c000018 	stceq	0, cr0, [r0], {24}
     430:	00000018 	andeq	r0, r0, r8, lsl r0
     434:	0300340d 	movweq	r3, #1037	; 0x40d
     438:	3b0b3a08 	blcc	2cec60 <__bss_end__+0x2c03f0>
     43c:	0213490b 	andseq	r4, r3, #180224	; 0x2c000
     440:	0e000018 	mcreq	0, 0, r0, cr0, cr8, {0}
     444:	0e030034 	mcreq	0, 0, r0, cr3, cr4, {1}
     448:	0b3b0b3a 	bleq	ec3138 <__bss_end__+0xeb48c8>
     44c:	18021349 	stmdane	r2, {r0, r3, r6, r8, r9, ip}
     450:	340f0000 	strcc	r0, [pc], #-0	; 458 <_start-0x7ba8>
     454:	3a080300 	bcc	20105c <__bss_end__+0x1f27ec>
     458:	490b3b0b 	stmdbmi	fp, {r0, r1, r3, r8, r9, fp, ip, sp}
     45c:	00170213 	andseq	r0, r7, r3, lsl r2
     460:	82891000 	addhi	r1, r9, #0
     464:	01110101 	tsteq	r1, r1, lsl #2
     468:	13011331 	movwne	r1, #4913	; 0x1331
     46c:	8a110000 	bhi	440474 <__bss_end__+0x431c04>
     470:	02000182 	andeq	r0, r0, #-2147483616	; 0x80000020
     474:	18429118 	stmdane	r2, {r3, r4, r8, ip, pc}^
     478:	89120000 	ldmdbhi	r2, {}	; <UNPREDICTABLE>
     47c:	11010182 	smlabbne	r1, r2, r1, r0
     480:	13000001 	movwne	r0, #1
     484:	13490101 	movtne	r0, #37121	; 0x9101
     488:	00001301 	andeq	r1, r0, r1, lsl #6
     48c:	49002114 	stmdbmi	r0, {r2, r4, r8, sp}
     490:	00052f13 	andeq	r2, r5, r3, lsl pc
     494:	01151500 	tsteq	r5, r0, lsl #10
     498:	13491927 	movtne	r1, #39207	; 0x9927
     49c:	00001301 	andeq	r1, r0, r1, lsl #6
     4a0:	49000516 	stmdbmi	r0, {r1, r2, r4, r8, sl}
     4a4:	17000013 	smladne	r0, r3, r0, r0
     4a8:	0e030034 	mcreq	0, 0, r0, cr3, cr4, {1}
     4ac:	0b3b0b3a 	bleq	ec319c <__bss_end__+0xeb492c>
     4b0:	193f1349 	ldmdbne	pc!, {r0, r3, r6, r8, r9, ip}	; <UNPREDICTABLE>
     4b4:	0000193c 	andeq	r1, r0, ip, lsr r9
     4b8:	3f012e18 	svccc	0x00012e18
     4bc:	3a0e0319 	bcc	381128 <__bss_end__+0x3728b8>
     4c0:	270b3b0b 	strcs	r3, [fp, -fp, lsl #22]
     4c4:	3c134919 	ldccc	9, cr4, [r3], {25}
     4c8:	00000019 	andeq	r0, r0, r9, lsl r0
     4cc:	25011101 	strcs	r1, [r1, #-257]	; 0x101
     4d0:	030b130e 	movweq	r1, #45838	; 0xb30e
     4d4:	110e1b0e 	tstne	lr, lr, lsl #22
     4d8:	10061201 	andne	r1, r6, r1, lsl #4
     4dc:	02000017 	andeq	r0, r0, #23
     4e0:	0b0b0024 	bleq	2c0578 <__bss_end__+0x2b1d08>
     4e4:	08030b3e 	stmdaeq	r3, {r1, r2, r3, r4, r5, r8, r9, fp}
     4e8:	24030000 	strcs	r0, [r3], #-0
     4ec:	3e0b0b00 	vmlacc.f64	d0, d11, d0
     4f0:	000e030b 	andeq	r0, lr, fp, lsl #6
     4f4:	012e0400 	teqeq	lr, r0, lsl #8
     4f8:	0b3a0e03 	bleq	e83d0c <__bss_end__+0xe7549c>
     4fc:	19270b3b 	stmdbne	r7!, {r0, r1, r3, r4, r5, r8, r9, fp}
     500:	01111349 	tsteq	r1, r9, asr #6
     504:	18400612 	stmdane	r0, {r1, r4, r9, sl}^
     508:	01194297 			; <UNDEFINED> instruction: 0x01194297
     50c:	05000013 	streq	r0, [r0, #-19]
     510:	08030005 	stmdaeq	r3, {r0, r2}
     514:	0b3b0b3a 	bleq	ec3204 <__bss_end__+0xeb4994>
     518:	17021349 	strne	r1, [r2, -r9, asr #6]
     51c:	89060000 	stmdbhi	r6, {}	; <UNPREDICTABLE>
     520:	11010182 	smlabbne	r1, r2, r1, r0
     524:	00133101 	andseq	r3, r3, r1, lsl #2
     528:	828a0700 	addhi	r0, sl, #0, 14
     52c:	18020001 	stmdane	r2, {r0}
     530:	00184291 	mulseq	r8, r1, r2
     534:	002e0800 	eoreq	r0, lr, r0, lsl #16
     538:	0e03193f 	mcreq	9, 0, r1, cr3, cr15, {1}
     53c:	0b3b0b3a 	bleq	ec322c <__bss_end__+0xeb49bc>
     540:	01111927 	tsteq	r1, r7, lsr #18
     544:	18400612 	stmdane	r0, {r1, r4, r9, sl}^
     548:	00194297 	mulseq	r9, r7, r2
     54c:	012e0900 	teqeq	lr, r0, lsl #18
     550:	0e03193f 	mcreq	9, 0, r1, cr3, cr15, {1}
     554:	0b3b0b3a 	bleq	ec3244 <__bss_end__+0xeb49d4>
     558:	01111927 	tsteq	r1, r7, lsr #18
     55c:	18400612 	stmdane	r0, {r1, r4, r9, sl}^
     560:	01194297 			; <UNDEFINED> instruction: 0x01194297
     564:	0a000013 	beq	5b8 <_start-0x7a48>
     568:	08030005 	stmdaeq	r3, {r0, r2}
     56c:	0b3b0b3a 	bleq	ec325c <__bss_end__+0xeb49ec>
     570:	18021349 	stmdane	r2, {r0, r3, r6, r8, r9, ip}
     574:	150b0000 	strne	r0, [fp, #-0]
     578:	49192701 	ldmdbmi	r9, {r0, r8, r9, sl, sp}
     57c:	00130113 	andseq	r0, r3, r3, lsl r1
     580:	00050c00 	andeq	r0, r5, r0, lsl #24
     584:	00001349 	andeq	r1, r0, r9, asr #6
     588:	0b000f0d 	bleq	41c4 <_start-0x3e3c>
     58c:	0013490b 	andseq	r4, r3, fp, lsl #18
     590:	00340e00 	eorseq	r0, r4, r0, lsl #28
     594:	0b3a0e03 	bleq	e83da8 <__bss_end__+0xe75538>
     598:	13490b3b 	movtne	r0, #39739	; 0x9b3b
     59c:	1802193f 	stmdane	r2, {r0, r1, r2, r3, r4, r5, r8, fp, ip}
     5a0:	2e0f0000 	cdpcs	0, 0, cr0, cr15, cr0, {0}
     5a4:	03193f01 	tsteq	r9, #1, 30
     5a8:	3b0b3a0e 	blcc	2cede8 <__bss_end__+0x2c0578>
     5ac:	3c19270b 	ldccc	7, cr2, [r9], {11}
     5b0:	00000019 	andeq	r0, r0, r9, lsl r0
     5b4:	25011101 	strcs	r1, [r1, #-257]	; 0x101
     5b8:	030b130e 	movweq	r1, #45838	; 0xb30e
     5bc:	110e1b0e 	tstne	lr, lr, lsl #22
     5c0:	10061201 	andne	r1, r6, r1, lsl #4
     5c4:	02000017 	andeq	r0, r0, #23
     5c8:	0b0b0024 	bleq	2c0660 <__bss_end__+0x2b1df0>
     5cc:	08030b3e 	stmdaeq	r3, {r1, r2, r3, r4, r5, r8, r9, fp}
     5d0:	24030000 	strcs	r0, [r3], #-0
     5d4:	3e0b0b00 	vmlacc.f64	d0, d11, d0
     5d8:	000e030b 	andeq	r0, lr, fp, lsl #6
     5dc:	000f0400 	andeq	r0, pc, r0, lsl #8
     5e0:	13490b0b 	movtne	r0, #39691	; 0x9b0b
     5e4:	26050000 	strcs	r0, [r5], -r0
     5e8:	00134900 	andseq	r4, r3, r0, lsl #18
     5ec:	012e0600 	teqeq	lr, r0, lsl #12
     5f0:	0e03193f 	mcreq	9, 0, r1, cr3, cr15, {1}
     5f4:	0b3b0b3a 	bleq	ec32e4 <__bss_end__+0xeb4a74>
     5f8:	13491927 	movtne	r1, #39207	; 0x9927
     5fc:	06120111 			; <UNDEFINED> instruction: 0x06120111
     600:	42961840 	addsmi	r1, r6, #64, 16	; 0x400000
     604:	00130119 	andseq	r0, r3, r9, lsl r1
     608:	00050700 	andeq	r0, r5, r0, lsl #14
     60c:	0b3a0803 	bleq	e82620 <__bss_end__+0xe73db0>
     610:	13490b3b 	movtne	r0, #39739	; 0x9b3b
     614:	00001702 	andeq	r1, r0, r2, lsl #14
     618:	27011508 	strcs	r1, [r1, -r8, lsl #10]
     61c:	01134919 	tsteq	r3, r9, lsl r9
     620:	09000013 	stmdbeq	r0, {r0, r1, r4}
     624:	13490005 	movtne	r0, #36869	; 0x9005
     628:	340a0000 	strcc	r0, [sl], #-0
     62c:	3a0e0300 	bcc	381234 <__bss_end__+0x3729c4>
     630:	490b3b0b 	stmdbmi	fp, {r0, r1, r3, r8, r9, fp, ip, sp}
     634:	3c193f13 	ldccc	15, cr3, [r9], {19}
     638:	0b000019 	bleq	6a4 <_start-0x795c>
     63c:	0e030034 	mcreq	0, 0, r0, cr3, cr4, {1}
     640:	0b3b0b3a 	bleq	ec3330 <__bss_end__+0xeb4ac0>
     644:	193f1349 	ldmdbne	pc!, {r0, r3, r6, r8, r9, ip}	; <UNPREDICTABLE>
     648:	00001802 	andeq	r1, r0, r2, lsl #16
     64c:	01110100 	tsteq	r1, r0, lsl #2
     650:	0b130e25 	bleq	4c3eec <__bss_end__+0x4b567c>
     654:	0e1b0e03 	cdpeq	14, 1, cr0, cr11, cr3, {0}
     658:	06120111 			; <UNDEFINED> instruction: 0x06120111
     65c:	00001710 	andeq	r1, r0, r0, lsl r7
     660:	0b002402 	bleq	9670 <sw_uart_getc_timeout+0x174>
     664:	030b3e0b 	movweq	r3, #48651	; 0xbe0b
     668:	03000008 	movweq	r0, #8
     66c:	0b0b0024 	bleq	2c0704 <__bss_end__+0x2b1e94>
     670:	0e030b3e 	vmoveq.16	d3[0], r0
     674:	0f040000 	svceq	0x00040000
     678:	000b0b00 	andeq	r0, fp, r0, lsl #22
     67c:	000f0500 	andeq	r0, pc, r0, lsl #10
     680:	13490b0b 	movtne	r0, #39691	; 0x9b0b
     684:	26060000 	strcs	r0, [r6], -r0
     688:	00134900 	andseq	r4, r3, r0, lsl #18
     68c:	00160700 	andseq	r0, r6, r0, lsl #14
     690:	0b3a0e03 	bleq	e83ea4 <__bss_end__+0xe75634>
     694:	13490b3b 	movtne	r0, #39739	; 0x9b3b
     698:	13080000 	movwne	r0, #32768	; 0x8000
     69c:	0b0e0301 	bleq	3812a8 <__bss_end__+0x372a38>
     6a0:	3b0b3a0b 	blcc	2ceed4 <__bss_end__+0x2c0664>
     6a4:	0013010b 	andseq	r0, r3, fp, lsl #2
     6a8:	000d0900 	andeq	r0, sp, r0, lsl #18
     6ac:	13490e03 	movtne	r0, #40451	; 0x9e03
     6b0:	19340b38 	ldmdbne	r4!, {r3, r4, r5, r8, r9, fp}
     6b4:	2e0a0000 	cdpcs	0, 0, cr0, cr10, cr0, {0}
     6b8:	3a0e0301 	bcc	3812c4 <__bss_end__+0x372a54>
     6bc:	270b3b0b 	strcs	r3, [fp, -fp, lsl #22]
     6c0:	11134919 	tstne	r3, r9, lsl r9
     6c4:	40061201 	andmi	r1, r6, r1, lsl #4
     6c8:	19429718 	stmdbne	r2, {r3, r4, r8, r9, sl, ip, pc}^
     6cc:	00001301 	andeq	r1, r0, r1, lsl #6
     6d0:	0300050b 	movweq	r0, #1291	; 0x50b
     6d4:	3b0b3a08 	blcc	2ceefc <__bss_end__+0x2c068c>
     6d8:	0213490b 	andseq	r4, r3, #180224	; 0x2c000
     6dc:	0c000017 	stceq	0, cr0, [r0], {23}
     6e0:	0803012e 	stmdaeq	r3, {r1, r2, r3, r5, r8}
     6e4:	0b3b0b3a 	bleq	ec33d4 <__bss_end__+0xeb4b64>
     6e8:	13491927 	movtne	r1, #39207	; 0x9927
     6ec:	06120111 			; <UNDEFINED> instruction: 0x06120111
     6f0:	42971840 	addsmi	r1, r7, #64, 16	; 0x400000
     6f4:	00130119 	andseq	r0, r3, r9, lsl r1
     6f8:	00050d00 	andeq	r0, r5, r0, lsl #26
     6fc:	0b3a0e03 	bleq	e83f10 <__bss_end__+0xe756a0>
     700:	13490b3b 	movtne	r0, #39739	; 0x9b3b
     704:	00001702 	andeq	r1, r0, r2, lsl #14
     708:	0300050e 	movweq	r0, #1294	; 0x50e
     70c:	3b0b3a0e 	blcc	2cef4c <__bss_end__+0x2c06dc>
     710:	0213490b 	andseq	r4, r3, #180224	; 0x2c000
     714:	0f000018 	svceq	0x00000018
     718:	08030034 	stmdaeq	r3, {r2, r4, r5}
     71c:	0b3b0b3a 	bleq	ec340c <__bss_end__+0xeb4b9c>
     720:	18021349 	stmdane	r2, {r0, r3, r6, r8, r9, ip}
     724:	34100000 	ldrcc	r0, [r0], #-0
     728:	3a080300 	bcc	201330 <__bss_end__+0x1f2ac0>
     72c:	490b3b0b 	stmdbmi	fp, {r0, r1, r3, r8, r9, fp, ip, sp}
     730:	00170213 	andseq	r0, r7, r3, lsl r2
     734:	00341100 	eorseq	r1, r4, r0, lsl #2
     738:	13490e03 	movtne	r0, #40451	; 0x9e03
     73c:	18021934 	stmdane	r2, {r2, r4, r5, r8, fp, ip}
     740:	0b120000 	bleq	480748 <__bss_end__+0x471ed8>
     744:	12011101 	andne	r1, r1, #1073741824	; 0x40000000
     748:	00130106 	andseq	r0, r3, r6, lsl #2
     74c:	00341300 	eorseq	r1, r4, r0, lsl #6
     750:	0b3a0e03 	bleq	e83f64 <__bss_end__+0xe756f4>
     754:	13490b3b 	movtne	r0, #39739	; 0x9b3b
     758:	00001702 	andeq	r1, r0, r2, lsl #14
     75c:	01828914 	orreq	r8, r2, r4, lsl r9
     760:	31011100 	mrscc	r1, (UNDEF: 17)
     764:	15000013 	strne	r0, [r0, #-19]
     768:	01018289 	smlabbeq	r1, r9, r2, r8
     76c:	13310111 	teqne	r1, #1073741828	; 0x40000004
     770:	00001301 	andeq	r1, r0, r1, lsl #6
     774:	01828a16 	orreq	r8, r2, r6, lsl sl
     778:	91180200 	tstls	r8, r0, lsl #4
     77c:	00001842 	andeq	r1, r0, r2, asr #16
     780:	01828917 	orreq	r8, r2, r7, lsl r9
     784:	31011101 	tstcc	r1, r1, lsl #2
     788:	18000013 	stmdane	r0, {r0, r1, r4}
     78c:	13490101 	movtne	r0, #37121	; 0x9101
     790:	00001301 	andeq	r1, r0, r1, lsl #6
     794:	49002119 	stmdbmi	r0, {r0, r3, r4, r8, sp}
     798:	000b2f13 	andeq	r2, fp, r3, lsl pc
     79c:	012e1a00 	teqeq	lr, r0, lsl #20
     7a0:	0e03193f 	mcreq	9, 0, r1, cr3, cr15, {1}
     7a4:	0b3b0b3a 	bleq	ec3494 <__bss_end__+0xeb4c24>
     7a8:	01111927 	tsteq	r1, r7, lsr #18
     7ac:	18400612 	stmdane	r0, {r1, r4, r9, sl}^
     7b0:	01194297 			; <UNDEFINED> instruction: 0x01194297
     7b4:	1b000013 	blne	808 <_start-0x77f8>
     7b8:	19270115 	stmdbne	r7!, {r0, r2, r4, r8}
     7bc:	13011349 	movwne	r1, #4937	; 0x1349
     7c0:	051c0000 	ldreq	r0, [ip, #-0]
     7c4:	00134900 	andseq	r4, r3, r0, lsl #18
     7c8:	012e1d00 	teqeq	lr, r0, lsl #26
     7cc:	0e03193f 	mcreq	9, 0, r1, cr3, cr15, {1}
     7d0:	0b3b0b3a 	bleq	ec34c0 <__bss_end__+0xeb4c50>
     7d4:	13491927 	movtne	r1, #39207	; 0x9927
     7d8:	06120111 			; <UNDEFINED> instruction: 0x06120111
     7dc:	42971840 	addsmi	r1, r7, #64, 16	; 0x400000
     7e0:	00130119 	andseq	r0, r3, r9, lsl r1
     7e4:	010b1e00 	tsteq	fp, r0, lsl #28
     7e8:	00001755 	andeq	r1, r0, r5, asr r7
     7ec:	0300341f 	movweq	r3, #1055	; 0x41f
     7f0:	3b0b3a0e 	blcc	2cf030 <__bss_end__+0x2c07c0>
     7f4:	3f13490b 	svccc	0x0013490b
     7f8:	00193c19 	andseq	r3, r9, r9, lsl ip
     7fc:	002e2000 	eoreq	r2, lr, r0
     800:	0e03193f 	mcreq	9, 0, r1, cr3, cr15, {1}
     804:	0b3b0b3a 	bleq	ec34f4 <__bss_end__+0xeb4c84>
     808:	193c1927 	ldmdbne	ip!, {r0, r1, r2, r5, r8, fp, ip}
     80c:	2e210000 	cdpcs	0, 2, cr0, cr1, cr0, {0}
     810:	03193f01 	tsteq	r9, #1, 30
     814:	3b0b3a0e 	blcc	2cf054 <__bss_end__+0x2c07e4>
     818:	4919270b 	ldmdbmi	r9, {r0, r1, r3, r8, r9, sl, sp}
     81c:	01193c13 	tsteq	r9, r3, lsl ip
     820:	22000013 	andcs	r0, r0, #19
     824:	00000018 	andeq	r0, r0, r8, lsl r0
     828:	01110100 	tsteq	r1, r0, lsl #2
     82c:	0b130e25 	bleq	4c40c8 <__bss_end__+0x4b5858>
     830:	0e1b0e03 	cdpeq	14, 1, cr0, cr11, cr3, {0}
     834:	06120111 			; <UNDEFINED> instruction: 0x06120111
     838:	00001710 	andeq	r1, r0, r0, lsl r7
     83c:	0b002402 	bleq	984c <sw_uart_init_helper+0x7c>
     840:	030b3e0b 	movweq	r3, #48651	; 0xbe0b
     844:	03000008 	movweq	r0, #8
     848:	0b0b0024 	bleq	2c08e0 <__bss_end__+0x2b2070>
     84c:	0e030b3e 	vmoveq.16	d3[0], r0
     850:	0f040000 	svceq	0x00040000
     854:	490b0b00 	stmdbmi	fp, {r8, r9, fp}
     858:	05000013 	streq	r0, [r0, #-19]
     85c:	13490026 	movtne	r0, #36902	; 0x9026
     860:	2e060000 	cdpcs	0, 0, cr0, cr6, cr0, {0}
     864:	03193f01 	tsteq	r9, #1, 30
     868:	3b0b3a0e 	blcc	2cf0a8 <__bss_end__+0x2c0838>
     86c:	1119270b 	tstne	r9, fp, lsl #14
     870:	40061201 	andmi	r1, r6, r1, lsl #4
     874:	19429718 	stmdbne	r2, {r3, r4, r8, r9, sl, ip, pc}^
     878:	00001301 	andeq	r1, r0, r1, lsl #6
     87c:	01828907 	orreq	r8, r2, r7, lsl #18
     880:	01011101 	tsteq	r1, r1, lsl #2
     884:	08000013 	stmdaeq	r0, {r0, r1, r4}
     888:	0001828a 	andeq	r8, r1, sl, lsl #5
     88c:	42911802 	addsmi	r1, r1, #131072	; 0x20000
     890:	09000018 	stmdbeq	r0, {r3, r4}
     894:	01018289 	smlabbeq	r1, r9, r2, r8
     898:	13310111 	teqne	r1, #1073741828	; 0x40000004
     89c:	00001301 	andeq	r1, r0, r1, lsl #6
     8a0:	0182890a 	orreq	r8, r2, sl, lsl #18
     8a4:	31011100 	mrscc	r1, (UNDEF: 17)
     8a8:	0b000013 	bleq	8fc <_start-0x7704>
     8ac:	19270115 	stmdbne	r7!, {r0, r2, r4, r8}
     8b0:	13011349 	movwne	r1, #4937	; 0x1349
     8b4:	050c0000 	streq	r0, [ip, #-0]
     8b8:	00134900 	andseq	r4, r3, r0, lsl #18
     8bc:	00340d00 	eorseq	r0, r4, r0, lsl #26
     8c0:	0b3a0e03 	bleq	e840d4 <__bss_end__+0xe75864>
     8c4:	13490b3b 	movtne	r0, #39739	; 0x9b3b
     8c8:	193c193f 	ldmdbne	ip!, {r0, r1, r2, r3, r4, r5, r8, fp, ip}
     8cc:	2e0e0000 	cdpcs	0, 0, cr0, cr14, cr0, {0}
     8d0:	03193f01 	tsteq	r9, #1, 30
     8d4:	3b0b3a0e 	blcc	2cf114 <__bss_end__+0x2c08a4>
     8d8:	3c19270b 	ldccc	7, cr2, [r9], {11}
     8dc:	00130119 	andseq	r0, r3, r9, lsl r1
     8e0:	002e0f00 	eoreq	r0, lr, r0, lsl #30
     8e4:	0e03193f 	mcreq	9, 0, r1, cr3, cr15, {1}
     8e8:	0b3b0b3a 	bleq	ec35d8 <__bss_end__+0xeb4d68>
     8ec:	193c1927 	ldmdbne	ip!, {r0, r1, r2, r5, r8, fp, ip}
     8f0:	01000000 	mrseq	r0, (UNDEF: 0)
     8f4:	0e250111 	mcreq	1, 1, r0, cr5, cr1, {0}
     8f8:	0e030b13 	vmoveq.32	d3[0], r0
     8fc:	01110e1b 	tsteq	r1, fp, lsl lr
     900:	17100612 			; <UNDEFINED> instruction: 0x17100612
     904:	24020000 	strcs	r0, [r2], #-0
     908:	3e0b0b00 	vmlacc.f64	d0, d11, d0
     90c:	0008030b 	andeq	r0, r8, fp, lsl #6
     910:	00240300 	eoreq	r0, r4, r0, lsl #6
     914:	0b3e0b0b 	bleq	f83548 <__bss_end__+0xf74cd8>
     918:	00000e03 	andeq	r0, r0, r3, lsl #28
     91c:	03001604 	movweq	r1, #1540	; 0x604
     920:	3b0b3a0e 	blcc	2cf160 <__bss_end__+0x2c08f0>
     924:	0013490b 	andseq	r4, r3, fp, lsl #18
     928:	000f0500 	andeq	r0, pc, r0, lsl #10
     92c:	13490b0b 	movtne	r0, #39691	; 0x9b0b
     930:	26060000 	strcs	r0, [r6], -r0
     934:	00134900 	andseq	r4, r3, r0, lsl #18
     938:	01130700 	tsteq	r3, r0, lsl #14
     93c:	0b3a0b0b 	bleq	e83570 <__bss_end__+0xe74d00>
     940:	13010b3b 	movwne	r0, #6971	; 0x1b3b
     944:	0d080000 	stceq	0, cr0, [r8, #-0]
     948:	3a080300 	bcc	201550 <__bss_end__+0x1f2ce0>
     94c:	490b3b0b 	stmdbmi	fp, {r0, r1, r3, r8, r9, fp, ip, sp}
     950:	000b3813 	andeq	r3, fp, r3, lsl r8
     954:	000d0900 	andeq	r0, sp, r0, lsl #18
     958:	0b3a0e03 	bleq	e8416c <__bss_end__+0xe758fc>
     95c:	13490b3b 	movtne	r0, #39739	; 0x9b3b
     960:	00000b38 	andeq	r0, r0, r8, lsr fp
     964:	0b01040a 	bleq	41994 <__bss_end__+0x33124>
     968:	3b0b3a0b 	blcc	2cf19c <__bss_end__+0x2c092c>
     96c:	0013010b 	andseq	r0, r3, fp, lsl #2
     970:	00280b00 	eoreq	r0, r8, r0, lsl #22
     974:	0d1c0e03 	ldceq	14, cr0, [ip, #-12]
     978:	2e0c0000 	cdpcs	0, 0, cr0, cr12, cr0, {0}
     97c:	3a0e0301 	bcc	381588 <__bss_end__+0x372d18>
     980:	270b3b0b 	strcs	r3, [fp, -fp, lsl #22]
     984:	11134919 	tstne	r3, r9, lsl r9
     988:	40061201 	andmi	r1, r6, r1, lsl #4
     98c:	19429718 	stmdbne	r2, {r3, r4, r8, r9, sl, ip, pc}^
     990:	00001301 	andeq	r1, r0, r1, lsl #6
     994:	0300050d 	movweq	r0, #1293	; 0x50d
     998:	3b0b3a08 	blcc	2cf1c0 <__bss_end__+0x2c0950>
     99c:	0213490b 	andseq	r4, r3, #180224	; 0x2c000
     9a0:	0e000017 	mcreq	0, 0, r0, cr0, cr7, {0}
     9a4:	01018289 	smlabbeq	r1, r9, r2, r8
     9a8:	13310111 	teqne	r1, #1073741828	; 0x40000004
     9ac:	8a0f0000 	bhi	3c09b4 <__bss_end__+0x3b2144>
     9b0:	02000182 	andeq	r0, r0, #-2147483616	; 0x80000020
     9b4:	18429118 	stmdane	r2, {r3, r4, r8, ip, pc}^
     9b8:	2e100000 	cdpcs	0, 1, cr0, cr0, cr0, {0}
     9bc:	03193f01 	tsteq	r9, #1, 30
     9c0:	3b0b3a0e 	blcc	2cf200 <__bss_end__+0x2c0990>
     9c4:	1201110b 	andne	r1, r1, #-1073741822	; 0xc0000002
     9c8:	97184006 	ldrls	r4, [r8, -r6]
     9cc:	13011942 	movwne	r1, #6466	; 0x1942
     9d0:	34110000 	ldrcc	r0, [r1], #-0
     9d4:	3a0e0300 	bcc	3815dc <__bss_end__+0x372d6c>
     9d8:	490b3b0b 	stmdbmi	fp, {r0, r1, r3, r8, r9, fp, ip, sp}
     9dc:	3c193f13 	ldccc	15, cr3, [r9], {19}
     9e0:	12000019 	andne	r0, r0, #25
     9e4:	193f012e 	ldmdbne	pc!, {r1, r2, r3, r5, r8}	; <UNPREDICTABLE>
     9e8:	0b3a0e03 	bleq	e841fc <__bss_end__+0xe7598c>
     9ec:	193c0b3b 	ldmdbne	ip!, {r0, r1, r3, r4, r5, r8, r9, fp}
     9f0:	00001301 	andeq	r1, r0, r1, lsl #6
     9f4:	00001813 	andeq	r1, r0, r3, lsl r8
     9f8:	00341400 	eorseq	r1, r4, r0, lsl #8
     9fc:	0b3a0803 	bleq	e82a10 <__bss_end__+0xe741a0>
     a00:	13490b3b 	movtne	r0, #39739	; 0x9b3b
     a04:	00001702 	andeq	r1, r0, r2, lsl #14
     a08:	03003415 	movweq	r3, #1045	; 0x415
     a0c:	3b0b3a0e 	blcc	2cf24c <__bss_end__+0x2c09dc>
     a10:	0013490b 	andseq	r4, r3, fp, lsl #18
     a14:	82891600 	addhi	r1, r9, #0, 12
     a18:	01110001 	tsteq	r1, r1
     a1c:	00001331 	andeq	r1, r0, r1, lsr r3
     a20:	01828917 	orreq	r8, r2, r7, lsl r9
     a24:	31011101 	tstcc	r1, r1, lsl #2
     a28:	00130113 	andseq	r0, r3, r3, lsl r1
     a2c:	00341800 	eorseq	r1, r4, r0, lsl #16
     a30:	0b3a0e03 	bleq	e84244 <__bss_end__+0xe759d4>
     a34:	13490b3b 	movtne	r0, #39739	; 0x9b3b
     a38:	00001802 	andeq	r1, r0, r2, lsl #16
     a3c:	27011519 	smladcs	r1, r9, r5, r1
     a40:	01134919 	tsteq	r3, r9, lsl r9
     a44:	1a000013 	bne	a98 <_start-0x7568>
     a48:	13490005 	movtne	r0, #36869	; 0x9005
     a4c:	2e1b0000 	cdpcs	0, 1, cr0, cr11, cr0, {0}
     a50:	03193f01 	tsteq	r9, #1, 30
     a54:	3b0b3a0e 	blcc	2cf294 <__bss_end__+0x2c0a24>
     a58:	3c19270b 	ldccc	7, cr2, [r9], {11}
     a5c:	00130119 	andseq	r0, r3, r9, lsl r1
     a60:	002e1c00 	eoreq	r1, lr, r0, lsl #24
     a64:	0e03193f 	mcreq	9, 0, r1, cr3, cr15, {1}
     a68:	0b3b0b3a 	bleq	ec3758 <__bss_end__+0xeb4ee8>
     a6c:	13491927 	movtne	r1, #39207	; 0x9927
     a70:	0000193c 	andeq	r1, r0, ip, lsr r9
     a74:	3f012e1d 	svccc	0x00012e1d
     a78:	3a0e0319 	bcc	3816e4 <__bss_end__+0x372e74>
     a7c:	270b3b0b 	strcs	r3, [fp, -fp, lsl #22]
     a80:	3c134919 	ldccc	9, cr4, [r3], {25}
     a84:	00130119 	andseq	r0, r3, r9, lsl r1
     a88:	002e1e00 	eoreq	r1, lr, r0, lsl #28
     a8c:	0e03193f 	mcreq	9, 0, r1, cr3, cr15, {1}
     a90:	0b3b0b3a 	bleq	ec3780 <__bss_end__+0xeb4f10>
     a94:	193c1927 	ldmdbne	ip!, {r0, r1, r2, r5, r8, fp, ip}
     a98:	01000000 	mrseq	r0, (UNDEF: 0)
     a9c:	0e250111 	mcreq	1, 1, r0, cr5, cr1, {0}
     aa0:	0e030b13 	vmoveq.32	d3[0], r0
     aa4:	17550e1b 	smmlane	r5, fp, lr, r0
     aa8:	17100111 			; <UNDEFINED> instruction: 0x17100111
     aac:	24020000 	strcs	r0, [r2], #-0
     ab0:	3e0b0b00 	vmlacc.f64	d0, d11, d0
     ab4:	0008030b 	andeq	r0, r8, fp, lsl #6
     ab8:	00240300 	eoreq	r0, r4, r0, lsl #6
     abc:	0b3e0b0b 	bleq	f836f0 <__bss_end__+0xf74e80>
     ac0:	00000e03 	andeq	r0, r0, r3, lsl #28
     ac4:	3f012e04 	svccc	0x00012e04
     ac8:	3a0e0319 	bcc	381734 <__bss_end__+0x372ec4>
     acc:	270b3b0b 	strcs	r3, [fp, -fp, lsl #22]
     ad0:	11134919 	tstne	r3, r9, lsl r9
     ad4:	40061201 	andmi	r1, r6, r1, lsl #4
     ad8:	19429718 	stmdbne	r2, {r3, r4, r8, r9, sl, ip, pc}^
     adc:	00001301 	andeq	r1, r0, r1, lsl #6
     ae0:	03003405 	movweq	r3, #1029	; 0x405
     ae4:	3b0b3a0e 	blcc	2cf324 <__bss_end__+0x2c0ab4>
     ae8:	0213490b 	andseq	r4, r3, #180224	; 0x2c000
     aec:	06000017 			; <UNDEFINED> instruction: 0x06000017
     af0:	193f012e 	ldmdbne	pc!, {r1, r2, r3, r5, r8}	; <UNPREDICTABLE>
     af4:	0b3a0e03 	bleq	e84308 <__bss_end__+0xe75a98>
     af8:	19270b3b 	stmdbne	r7!, {r0, r1, r3, r4, r5, r8, r9, fp}
     afc:	06120111 			; <UNDEFINED> instruction: 0x06120111
     b00:	42971840 	addsmi	r1, r7, #64, 16	; 0x400000
     b04:	00130119 	andseq	r0, r3, r9, lsl r1
     b08:	00340700 	eorseq	r0, r4, r0, lsl #14
     b0c:	0b3a0e03 	bleq	e84320 <__bss_end__+0xe75ab0>
     b10:	13490b3b 	movtne	r0, #39739	; 0x9b3b
     b14:	0000061c 	andeq	r0, r0, ip, lsl r6
     b18:	03003408 	movweq	r3, #1032	; 0x408
     b1c:	3b0b3a0e 	blcc	2cf35c <__bss_end__+0x2c0aec>
     b20:	1c13490b 	ldcne	9, cr4, [r3], {11}
     b24:	0900000b 	stmdbeq	r0, {r0, r1, r3}
     b28:	00018289 	andeq	r8, r1, r9, lsl #5
     b2c:	13310111 	teqne	r1, #1073741828	; 0x40000004
     b30:	890a0000 	stmdbhi	sl, {}	; <UNPREDICTABLE>
     b34:	11010182 	smlabbne	r1, r2, r1, r0
     b38:	01133101 	tsteq	r3, r1, lsl #2
     b3c:	0b000013 	bleq	b90 <_start-0x7470>
     b40:	0001828a 	andeq	r8, r1, sl, lsl #5
     b44:	42911802 	addsmi	r1, r1, #131072	; 0x20000
     b48:	0c000018 	stceq	0, cr0, [r0], {24}
     b4c:	01018289 	smlabbeq	r1, r9, r2, r8
     b50:	13310111 	teqne	r1, #1073741828	; 0x40000004
     b54:	260d0000 	strcs	r0, [sp], -r0
     b58:	00134900 	andseq	r4, r3, r0, lsl #18
     b5c:	012e0e00 	teqeq	lr, r0, lsl #28
     b60:	0e03193f 	mcreq	9, 0, r1, cr3, cr15, {1}
     b64:	0b3b0b3a 	bleq	ec3854 <__bss_end__+0xeb4fe4>
     b68:	193c1927 	ldmdbne	ip!, {r0, r1, r2, r5, r8, fp, ip}
     b6c:	00001301 	andeq	r1, r0, r1, lsl #6
     b70:	4900050f 	stmdbmi	r0, {r0, r1, r2, r3, r8, sl}
     b74:	10000013 	andne	r0, r0, r3, lsl r0
     b78:	193f012e 	ldmdbne	pc!, {r1, r2, r3, r5, r8}	; <UNPREDICTABLE>
     b7c:	0b3a0e03 	bleq	e84390 <__bss_end__+0xe75b20>
     b80:	19270b3b 	stmdbne	r7!, {r0, r1, r3, r4, r5, r8, r9, fp}
     b84:	0000193c 	andeq	r1, r0, ip, lsr r9
     b88:	01110100 	tsteq	r1, r0, lsl #2
     b8c:	0b130e25 	bleq	4c4428 <__bss_end__+0x4b5bb8>
     b90:	0e1b0e03 	cdpeq	14, 1, cr0, cr11, cr3, {0}
     b94:	06120111 			; <UNDEFINED> instruction: 0x06120111
     b98:	00001710 	andeq	r1, r0, r0, lsl r7
     b9c:	0b002402 	bleq	9bac <fast_interrupt_vector+0x28>
     ba0:	030b3e0b 	movweq	r3, #48651	; 0xbe0b
     ba4:	03000008 	movweq	r0, #8
     ba8:	0b0b0024 	bleq	2c0c40 <__bss_end__+0x2b23d0>
     bac:	0e030b3e 	vmoveq.16	d3[0], r0
     bb0:	2e040000 	cdpcs	0, 0, cr0, cr4, cr0, {0}
     bb4:	03193f01 	tsteq	r9, #1, 30
     bb8:	3b0b3a0e 	blcc	2cf3f8 <__bss_end__+0x2c0b88>
     bbc:	1119270b 	tstne	r9, fp, lsl #14
     bc0:	40061201 	andmi	r1, r6, r1, lsl #4
     bc4:	19429718 	stmdbne	r2, {r3, r4, r8, r9, sl, ip, pc}^
     bc8:	00001301 	andeq	r1, r0, r1, lsl #6
     bcc:	03000505 	movweq	r0, #1285	; 0x505
     bd0:	3b0b3a0e 	blcc	2cf410 <__bss_end__+0x2c0ba0>
     bd4:	0213490b 	andseq	r4, r3, #180224	; 0x2c000
     bd8:	06000017 			; <UNDEFINED> instruction: 0x06000017
     bdc:	193f012e 	ldmdbne	pc!, {r1, r2, r3, r5, r8}	; <UNPREDICTABLE>
     be0:	0b3a0e03 	bleq	e843f4 <__bss_end__+0xe75b84>
     be4:	19270b3b 	stmdbne	r7!, {r0, r1, r3, r4, r5, r8, r9, fp}
     be8:	01111349 	tsteq	r1, r9, asr #6
     bec:	18400612 	stmdane	r0, {r1, r4, r9, sl}^
     bf0:	01194297 			; <UNDEFINED> instruction: 0x01194297
     bf4:	07000013 	smladeq	r0, r3, r0, r0
     bf8:	01018289 	smlabbeq	r1, r9, r2, r8
     bfc:	13310111 	teqne	r1, #1073741828	; 0x40000004
     c00:	8a080000 	bhi	200c08 <__bss_end__+0x1f2398>
     c04:	02000182 	andeq	r0, r0, #-2147483616	; 0x80000020
     c08:	18429118 	stmdane	r2, {r3, r4, r8, ip, pc}^
     c0c:	34090000 	strcc	r0, [r9], #-0
     c10:	3a080300 	bcc	201818 <__bss_end__+0x1f2fa8>
     c14:	490b3b0b 	stmdbmi	fp, {r0, r1, r3, r8, r9, fp, ip, sp}
     c18:	00180213 	andseq	r0, r8, r3, lsl r2
     c1c:	82890a00 	addhi	r0, r9, #0, 20
     c20:	01110001 	tsteq	r1, r1
     c24:	00001331 	andeq	r1, r0, r1, lsr r3
     c28:	0300050b 	movweq	r0, #1291	; 0x50b
     c2c:	3b0b3a08 	blcc	2cf454 <__bss_end__+0x2c0be4>
     c30:	0213490b 	andseq	r4, r3, #180224	; 0x2c000
     c34:	0c000017 	stceq	0, cr0, [r0], {23}
     c38:	0111010b 	tsteq	r1, fp, lsl #2
     c3c:	13010612 	movwne	r0, #5650	; 0x1612
     c40:	340d0000 	strcc	r0, [sp], #-0
     c44:	3a080300 	bcc	20184c <__bss_end__+0x1f2fdc>
     c48:	490b3b0b 	stmdbmi	fp, {r0, r1, r3, r8, r9, fp, ip, sp}
     c4c:	00170213 	andseq	r0, r7, r3, lsl r2
     c50:	012e0e00 	teqeq	lr, r0, lsl #28
     c54:	0e03193f 	mcreq	9, 0, r1, cr3, cr15, {1}
     c58:	0b3b0b3a 	bleq	ec3948 <__bss_end__+0xeb50d8>
     c5c:	13491927 	movtne	r1, #39207	; 0x9927
     c60:	0000193c 	andeq	r1, r0, ip, lsr r9
     c64:	4900050f 	stmdbmi	r0, {r0, r1, r2, r3, r8, sl}
     c68:	00000013 	andeq	r0, r0, r3, lsl r0
     c6c:	25011101 	strcs	r1, [r1, #-257]	; 0x101
     c70:	030b130e 	movweq	r1, #45838	; 0xb30e
     c74:	110e1b0e 	tstne	lr, lr, lsl #22
     c78:	10061201 	andne	r1, r6, r1, lsl #4
     c7c:	02000017 	andeq	r0, r0, #23
     c80:	0b0b0024 	bleq	2c0d18 <__bss_end__+0x2b24a8>
     c84:	0e030b3e 	vmoveq.16	d3[0], r0
     c88:	24030000 	strcs	r0, [r3], #-0
     c8c:	3e0b0b00 	vmlacc.f64	d0, d11, d0
     c90:	0008030b 	andeq	r0, r8, fp, lsl #6
     c94:	01040400 	tsteq	r4, r0, lsl #8
     c98:	0b3a0b0b 	bleq	e838cc <__bss_end__+0xe7505c>
     c9c:	13010b3b 	movwne	r0, #6971	; 0x1b3b
     ca0:	28050000 	stmdacs	r5, {}	; <UNPREDICTABLE>
     ca4:	1c0e0300 	stcne	3, cr0, [lr], {-0}
     ca8:	0600000d 	streq	r0, [r0], -sp
     cac:	0e030016 	mcreq	0, 0, r0, cr3, cr6, {0}
     cb0:	0b3b0b3a 	bleq	ec39a0 <__bss_end__+0xeb5130>
     cb4:	00001349 	andeq	r1, r0, r9, asr #6
     cb8:	3f012e07 	svccc	0x00012e07
     cbc:	3a0e0319 	bcc	381928 <__bss_end__+0x3730b8>
     cc0:	270b3b0b 	strcs	r3, [fp, -fp, lsl #22]
     cc4:	12011119 	andne	r1, r1, #1073741830	; 0x40000006
     cc8:	97184006 	ldrls	r4, [r8, -r6]
     ccc:	13011942 	movwne	r1, #6466	; 0x1942
     cd0:	05080000 	streq	r0, [r8, #-0]
     cd4:	3a080300 	bcc	2018dc <__bss_end__+0x1f306c>
     cd8:	490b3b0b 	stmdbmi	fp, {r0, r1, r3, r8, r9, fp, ip, sp}
     cdc:	00170213 	andseq	r0, r7, r3, lsl r2
     ce0:	00340900 	eorseq	r0, r4, r0, lsl #18
     ce4:	0b3a0e03 	bleq	e844f8 <__bss_end__+0xe75c88>
     ce8:	13490b3b 	movtne	r0, #39739	; 0x9b3b
     cec:	00001702 	andeq	r1, r0, r2, lsl #14
     cf0:	0182890a 	orreq	r8, r2, sl, lsl #18
     cf4:	31011101 	tstcc	r1, r1, lsl #2
     cf8:	00130113 	andseq	r0, r3, r3, lsl r1
     cfc:	828a0b00 	addhi	r0, sl, #0, 22
     d00:	18020001 	stmdane	r2, {r0}
     d04:	00184291 	mulseq	r8, r1, r2
     d08:	82890c00 	addhi	r0, r9, #0, 24
     d0c:	01110101 	tsteq	r1, r1, lsl #2
     d10:	00001331 	andeq	r1, r0, r1, lsr r3
     d14:	0b000f0d 	bleq	4950 <_start-0x36b0>
     d18:	0013490b 	andseq	r4, r3, fp, lsl #18
     d1c:	00350e00 	eorseq	r0, r5, r0, lsl #28
     d20:	00001349 	andeq	r1, r0, r9, asr #6
     d24:	3f012e0f 	svccc	0x00012e0f
     d28:	3a0e0319 	bcc	381994 <__bss_end__+0x373124>
     d2c:	270b3b0b 	strcs	r3, [fp, -fp, lsl #22]
     d30:	010b2019 	tsteq	fp, r9, lsl r0
     d34:	10000013 	andne	r0, r0, r3, lsl r0
     d38:	08030005 	stmdaeq	r3, {r0, r2}
     d3c:	0b3b0b3a 	bleq	ec3a2c <__bss_end__+0xeb51bc>
     d40:	00001349 	andeq	r1, r0, r9, asr #6
     d44:	03003411 	movweq	r3, #1041	; 0x411
     d48:	3b0b3a0e 	blcc	2cf588 <__bss_end__+0x2c0d18>
     d4c:	0013490b 	andseq	r4, r3, fp, lsl #18
     d50:	012e1200 	teqeq	lr, r0, lsl #4
     d54:	01111331 	tsteq	r1, r1, lsr r3
     d58:	18400612 	stmdane	r0, {r1, r4, r9, sl}^
     d5c:	01194297 			; <UNDEFINED> instruction: 0x01194297
     d60:	13000013 	movwne	r0, #19
     d64:	13310005 	teqne	r1, #5
     d68:	00001702 	andeq	r1, r0, r2, lsl #14
     d6c:	31003414 	tstcc	r0, r4, lsl r4
     d70:	00170213 	andseq	r0, r7, r3, lsl r2
     d74:	012e1500 	teqeq	lr, r0, lsl #10
     d78:	0e03193f 	mcreq	9, 0, r1, cr3, cr15, {1}
     d7c:	0b3b0b3a 	bleq	ec3a6c <__bss_end__+0xeb51fc>
     d80:	13491927 	movtne	r1, #39207	; 0x9927
     d84:	06120111 			; <UNDEFINED> instruction: 0x06120111
     d88:	42971840 	addsmi	r1, r7, #64, 16	; 0x400000
     d8c:	00130119 	andseq	r0, r3, r9, lsl r1
     d90:	00341600 	eorseq	r1, r4, r0, lsl #12
     d94:	0b3a0803 	bleq	e82da8 <__bss_end__+0xe74538>
     d98:	13490b3b 	movtne	r0, #39739	; 0x9b3b
     d9c:	00001702 	andeq	r1, r0, r2, lsl #14
     da0:	01828917 	orreq	r8, r2, r7, lsl r9
     da4:	31011100 	mrscc	r1, (UNDEF: 17)
     da8:	18000013 	stmdane	r0, {r0, r1, r4}
     dac:	1331011d 	teqne	r1, #1073741831	; 0x40000007
     db0:	06120111 			; <UNDEFINED> instruction: 0x06120111
     db4:	0b590b58 	bleq	1643b1c <__bss_end__+0x16352ac>
     db8:	00001301 	andeq	r1, r0, r1, lsl #6
     dbc:	11010b19 	tstne	r1, r9, lsl fp
     dc0:	00061201 	andeq	r1, r6, r1, lsl #4
     dc4:	011d1a00 	tsteq	sp, r0, lsl #20
     dc8:	01111331 	tsteq	r1, r1, lsr r3
     dcc:	0b580612 	bleq	160261c <__bss_end__+0x15f3dac>
     dd0:	00000b59 	andeq	r0, r0, r9, asr fp
     dd4:	0300051b 	movweq	r0, #1307	; 0x51b
     dd8:	3b0b3a0e 	blcc	2cf618 <__bss_end__+0x2c0da8>
     ddc:	0213490b 	andseq	r4, r3, #180224	; 0x2c000
     de0:	1c000017 	stcne	0, cr0, [r0], {23}
     de4:	193f012e 	ldmdbne	pc!, {r1, r2, r3, r5, r8}	; <UNPREDICTABLE>
     de8:	0b3a0e03 	bleq	e845fc <__bss_end__+0xe75d8c>
     dec:	1927053b 	stmdbne	r7!, {r0, r1, r3, r4, r5, r8, sl}
     df0:	01111349 	tsteq	r1, r9, asr #6
     df4:	18400612 	stmdane	r0, {r1, r4, r9, sl}^
     df8:	01194297 			; <UNDEFINED> instruction: 0x01194297
     dfc:	1d000013 	stcne	0, cr0, [r0, #-76]	; 0xffffffb4
     e00:	0e030005 	cdpeq	0, 0, cr0, cr3, cr5, {0}
     e04:	053b0b3a 	ldreq	r0, [fp, #-2874]!	; 0xb3a
     e08:	17021349 	strne	r1, [r2, -r9, asr #6]
     e0c:	2e1e0000 	cdpcs	0, 1, cr0, cr14, cr0, {0}
     e10:	03193f01 	tsteq	r9, #1, 30
     e14:	3b0b3a0e 	blcc	2cf654 <__bss_end__+0x2c0de4>
     e18:	11192705 	tstne	r9, r5, lsl #14
     e1c:	40061201 	andmi	r1, r6, r1, lsl #4
     e20:	19429718 	stmdbne	r2, {r3, r4, r8, r9, sl, ip, pc}^
     e24:	00001301 	andeq	r1, r0, r1, lsl #6
     e28:	0300051f 	movweq	r0, #1311	; 0x51f
     e2c:	3b0b3a08 	blcc	2cf654 <__bss_end__+0x2c0de4>
     e30:	02134905 	andseq	r4, r3, #81920	; 0x14000
     e34:	20000017 	andcs	r0, r0, r7, lsl r0
     e38:	0e030034 	mcreq	0, 0, r0, cr3, cr4, {1}
     e3c:	053b0b3a 	ldreq	r0, [fp, #-2874]!	; 0xb3a
     e40:	17021349 	strne	r1, [r2, -r9, asr #6]
     e44:	0b210000 	bleq	840e4c <__bss_end__+0x8325dc>
     e48:	12011101 	andne	r1, r1, #1073741824	; 0x40000000
     e4c:	00130106 	andseq	r0, r3, r6, lsl #2
     e50:	00342200 	eorseq	r2, r4, r0, lsl #4
     e54:	0b3a0e03 	bleq	e84668 <__bss_end__+0xe75df8>
     e58:	13490b3b 	movtne	r0, #39739	; 0x9b3b
     e5c:	1802193f 	stmdane	r2, {r0, r1, r2, r3, r4, r5, r8, fp, ip}
     e60:	2e230000 	cdpcs	0, 2, cr0, cr3, cr0, {0}
     e64:	03193f01 	tsteq	r9, #1, 30
     e68:	3b0b3a0e 	blcc	2cf6a8 <__bss_end__+0x2c0e38>
     e6c:	4919270b 	ldmdbmi	r9, {r0, r1, r3, r8, r9, sl, sp}
     e70:	01193c13 	tsteq	r9, r3, lsl ip
     e74:	24000013 	strcs	r0, [r0], #-19
     e78:	13490005 	movtne	r0, #36869	; 0x9005
     e7c:	26250000 	strtcs	r0, [r5], -r0
     e80:	00134900 	andseq	r4, r3, r0, lsl #18
     e84:	00352600 	eorseq	r2, r5, r0, lsl #12
     e88:	2e270000 	cdpcs	0, 2, cr0, cr7, cr0, {0}
     e8c:	03193f01 	tsteq	r9, #1, 30
     e90:	3b0b3a0e 	blcc	2cf6d0 <__bss_end__+0x2c0e60>
     e94:	3c19270b 	ldccc	7, cr2, [r9], {11}
     e98:	00130119 	andseq	r0, r3, r9, lsl r1
     e9c:	002e2800 	eoreq	r2, lr, r0, lsl #16
     ea0:	0e03193f 	mcreq	9, 0, r1, cr3, cr15, {1}
     ea4:	0b3b0b3a 	bleq	ec3b94 <__bss_end__+0xeb5324>
     ea8:	193c1927 	ldmdbne	ip!, {r0, r1, r2, r5, r8, fp, ip}
     eac:	01000000 	mrseq	r0, (UNDEF: 0)
     eb0:	0e250111 	mcreq	1, 1, r0, cr5, cr1, {0}
     eb4:	0e030b13 	vmoveq.32	d3[0], r0
     eb8:	01110e1b 	tsteq	r1, fp, lsl lr
     ebc:	17100612 			; <UNDEFINED> instruction: 0x17100612
     ec0:	24020000 	strcs	r0, [r2], #-0
     ec4:	3e0b0b00 	vmlacc.f64	d0, d11, d0
     ec8:	0008030b 	andeq	r0, r8, fp, lsl #6
     ecc:	00240300 	eoreq	r0, r4, r0, lsl #6
     ed0:	0b3e0b0b 	bleq	f83b04 <__bss_end__+0xf75294>
     ed4:	00000e03 	andeq	r0, r0, r3, lsl #28
     ed8:	03001604 	movweq	r1, #1540	; 0x604
     edc:	3b0b3a0e 	blcc	2cf71c <__bss_end__+0x2c0eac>
     ee0:	0013490b 	andseq	r4, r3, fp, lsl #18
     ee4:	000f0500 	andeq	r0, pc, r0, lsl #10
     ee8:	00000b0b 	andeq	r0, r0, fp, lsl #22
     eec:	0b000f06 	bleq	4b0c <_start-0x34f4>
     ef0:	0013490b 	andseq	r4, r3, fp, lsl #18
     ef4:	00260700 	eoreq	r0, r6, r0, lsl #14
     ef8:	00001349 	andeq	r1, r0, r9, asr #6
     efc:	0b011308 	bleq	45b24 <__bss_end__+0x372b4>
     f00:	3b0b3a0b 	blcc	2cf734 <__bss_end__+0x2c0ec4>
     f04:	0013010b 	andseq	r0, r3, fp, lsl #2
     f08:	000d0900 	andeq	r0, sp, r0, lsl #18
     f0c:	0b3a0803 	bleq	e82f20 <__bss_end__+0xe746b0>
     f10:	13490b3b 	movtne	r0, #39739	; 0x9b3b
     f14:	00000b38 	andeq	r0, r0, r8, lsr fp
     f18:	03000d0a 	movweq	r0, #3338	; 0xd0a
     f1c:	3b0b3a0e 	blcc	2cf75c <__bss_end__+0x2c0eec>
     f20:	3813490b 	ldmdacc	r3, {r0, r1, r3, r8, fp, lr}
     f24:	0b00000b 	bleq	f58 <_start-0x70a8>
     f28:	0e030113 	mcreq	1, 0, r0, cr3, cr3, {0}
     f2c:	0b3a0b0b 	bleq	e83b60 <__bss_end__+0xe752f0>
     f30:	13010b3b 	movwne	r0, #6971	; 0x1b3b
     f34:	0d0c0000 	stceq	0, cr0, [ip, #-0]
     f38:	490e0300 	stmdbmi	lr, {r8, r9}
     f3c:	340b3813 	strcc	r3, [fp], #-2067	; 0x813
     f40:	0d000019 	stceq	0, cr0, [r0, #-100]	; 0xffffff9c
     f44:	0e03012e 	adfeqsp	f0, f3, #0.5
     f48:	0b3b0b3a 	bleq	ec3c38 <__bss_end__+0xeb53c8>
     f4c:	0b201927 	bleq	8073f0 <__bss_end__+0x7f8b80>
     f50:	00001301 	andeq	r1, r0, r1, lsl #6
     f54:	0300050e 	movweq	r0, #1294	; 0x50e
     f58:	3b0b3a0e 	blcc	2cf798 <__bss_end__+0x2c0f28>
     f5c:	0013490b 	andseq	r4, r3, fp, lsl #18
     f60:	00050f00 	andeq	r0, r5, r0, lsl #30
     f64:	0b3a0803 	bleq	e82f78 <__bss_end__+0xe74708>
     f68:	13490b3b 	movtne	r0, #39739	; 0x9b3b
     f6c:	0b100000 	bleq	400f74 <__bss_end__+0x3f2704>
     f70:	11000001 	tstne	r0, r1
     f74:	0e030034 	mcreq	0, 0, r0, cr3, cr4, {1}
     f78:	0b3b0b3a 	bleq	ec3c68 <__bss_end__+0xeb53f8>
     f7c:	00001349 	andeq	r1, r0, r9, asr #6
     f80:	3f012e12 	svccc	0x00012e12
     f84:	3a0e0319 	bcc	381bf0 <__bss_end__+0x373380>
     f88:	270b3b0b 	strcs	r3, [fp, -fp, lsl #22]
     f8c:	12011119 	andne	r1, r1, #1073741830	; 0x40000006
     f90:	97184006 	ldrls	r4, [r8, -r6]
     f94:	13011942 	movwne	r1, #6466	; 0x1942
     f98:	05130000 	ldreq	r0, [r3, #-0]
     f9c:	3a0e0300 	bcc	381ba4 <__bss_end__+0x373334>
     fa0:	490b3b0b 	stmdbmi	fp, {r0, r1, r3, r8, r9, fp, ip, sp}
     fa4:	00170213 	andseq	r0, r7, r3, lsl r2
     fa8:	00051400 	andeq	r1, r5, r0, lsl #8
     fac:	0b3a0803 	bleq	e82fc0 <__bss_end__+0xe74750>
     fb0:	13490b3b 	movtne	r0, #39739	; 0x9b3b
     fb4:	00001702 	andeq	r1, r0, r2, lsl #14
     fb8:	03003415 	movweq	r3, #1045	; 0x415
     fbc:	3b0b3a08 	blcc	2cf7e4 <__bss_end__+0x2c0f74>
     fc0:	0213490b 	andseq	r4, r3, #180224	; 0x2c000
     fc4:	16000018 			; <UNDEFINED> instruction: 0x16000018
     fc8:	08030034 	stmdaeq	r3, {r2, r4, r5}
     fcc:	0b3b0b3a 	bleq	ec3cbc <__bss_end__+0xeb544c>
     fd0:	17021349 	strne	r1, [r2, -r9, asr #6]
     fd4:	0b170000 	bleq	5c0fdc <__bss_end__+0x5b276c>
     fd8:	12011101 	andne	r1, r1, #1073741824	; 0x40000000
     fdc:	00130106 	andseq	r0, r3, r6, lsl #2
     fe0:	00341800 	eorseq	r1, r4, r0, lsl #16
     fe4:	0b3a0e03 	bleq	e847f8 <__bss_end__+0xe75f88>
     fe8:	13490b3b 	movtne	r0, #39739	; 0x9b3b
     fec:	00001802 	andeq	r1, r0, r2, lsl #16
     ff0:	31011d19 	tstcc	r1, r9, lsl sp
     ff4:	12011113 	andne	r1, r1, #-1073741820	; 0xc0000004
     ff8:	590b5806 	stmdbpl	fp, {r1, r2, fp, ip, lr}
     ffc:	0013010b 	andseq	r0, r3, fp, lsl #2
    1000:	00051a00 	andeq	r1, r5, r0, lsl #20
    1004:	17021331 	smladxne	r2, r1, r3, r1
    1008:	051b0000 	ldreq	r0, [fp, #-0]
    100c:	02133100 	andseq	r3, r3, #0, 2
    1010:	1c000018 	stcne	0, cr0, [r0], {24}
    1014:	13310005 	teqne	r1, #5
    1018:	00000b1c 	andeq	r0, r0, ip, lsl fp
    101c:	11010b1d 	tstne	r1, sp, lsl fp
    1020:	00061201 	andeq	r1, r6, r1, lsl #4
    1024:	00341e00 	eorseq	r1, r4, r0, lsl #28
    1028:	17021331 	smladxne	r2, r1, r3, r1
    102c:	891f0000 	ldmdbhi	pc, {}	; <UNPREDICTABLE>
    1030:	11010182 	smlabbne	r1, r2, r1, r0
    1034:	00133101 	andseq	r3, r3, r1, lsl #2
    1038:	828a2000 	addhi	r2, sl, #0
    103c:	18020001 	stmdane	r2, {r0}
    1040:	00184291 	mulseq	r8, r1, r2
    1044:	011d2100 	tsteq	sp, r0, lsl #2
    1048:	01111331 	tsteq	r1, r1, lsr r3
    104c:	0b580612 	bleq	160289c <__bss_end__+0x15f402c>
    1050:	00000b59 	andeq	r0, r0, r9, asr fp
    1054:	03012e22 	movweq	r2, #7714	; 0x1e22
    1058:	3b0b3a0e 	blcc	2cf898 <__bss_end__+0x2c1028>
    105c:	4919270b 	ldmdbmi	r9, {r0, r1, r3, r8, r9, sl, sp}
    1060:	010b2013 	tsteq	fp, r3, lsl r0
    1064:	23000013 	movwcs	r0, #19
    1068:	193f012e 	ldmdbne	pc!, {r1, r2, r3, r5, r8}	; <UNPREDICTABLE>
    106c:	0b3a0e03 	bleq	e84880 <__bss_end__+0xe76010>
    1070:	19270b3b 	stmdbne	r7!, {r0, r1, r3, r4, r5, r8, r9, fp}
    1074:	01111349 	tsteq	r1, r9, asr #6
    1078:	18400612 	stmdane	r0, {r1, r4, r9, sl}^
    107c:	01194297 			; <UNDEFINED> instruction: 0x01194297
    1080:	24000013 	strcs	r0, [r0], #-19
    1084:	00018289 	andeq	r8, r1, r9, lsl #5
    1088:	13310111 	teqne	r1, #1073741828	; 0x40000004
    108c:	89250000 	stmdbhi	r5!, {}	; <UNPREDICTABLE>
    1090:	11010182 	smlabbne	r1, r2, r1, r0
    1094:	01133101 	tsteq	r3, r1, lsl #2
    1098:	26000013 			; <UNDEFINED> instruction: 0x26000013
    109c:	0e030034 	mcreq	0, 0, r0, cr3, cr4, {1}
    10a0:	0b3b0b3a 	bleq	ec3d90 <__bss_end__+0xeb5520>
    10a4:	17021349 	strne	r1, [r2, -r9, asr #6]
    10a8:	05270000 	streq	r0, [r7, #-0]!
    10ac:	00133100 	andseq	r3, r3, r0, lsl #2
    10b0:	00052800 	andeq	r2, r5, r0, lsl #16
    10b4:	0b3a0e03 	bleq	e848c8 <__bss_end__+0xe76058>
    10b8:	13490b3b 	movtne	r0, #39739	; 0x9b3b
    10bc:	00001802 	andeq	r1, r0, r2, lsl #16
    10c0:	03003429 	movweq	r3, #1065	; 0x429
    10c4:	3413490e 	ldrcc	r4, [r3], #-2318	; 0x90e
    10c8:	00180219 	andseq	r0, r8, r9, lsl r2
    10cc:	01012a00 	tsteq	r1, r0, lsl #20
    10d0:	13011349 	movwne	r1, #4937	; 0x1349
    10d4:	212b0000 	teqcs	fp, r0
    10d8:	2f134900 	svccs	0x00134900
    10dc:	2c00000b 	stccs	0, cr0, [r0], {11}
    10e0:	08030034 	stmdaeq	r3, {r2, r4, r5}
    10e4:	0b3b0b3a 	bleq	ec3dd4 <__bss_end__+0xeb5564>
    10e8:	061c1349 	ldreq	r1, [ip], -r9, asr #6
    10ec:	342d0000 	strtcc	r0, [sp], #-0
    10f0:	3a080300 	bcc	201cf8 <__bss_end__+0x1f3488>
    10f4:	490b3b0b 	stmdbmi	fp, {r0, r1, r3, r8, r9, fp, ip, sp}
    10f8:	000b1c13 	andeq	r1, fp, r3, lsl ip
    10fc:	00052e00 	andeq	r2, r5, r0, lsl #28
    1100:	0b3a0803 	bleq	e83114 <__bss_end__+0xe748a4>
    1104:	13490b3b 	movtne	r0, #39739	; 0x9b3b
    1108:	00001802 	andeq	r1, r0, r2, lsl #16
    110c:	0000182f 	andeq	r1, r0, pc, lsr #16
    1110:	00213000 	eoreq	r3, r1, r0
    1114:	052f1349 	streq	r1, [pc, #-841]!	; dd3 <_start-0x722d>
    1118:	2e310000 	cdpcs	0, 3, cr0, cr1, cr0, {0}
    111c:	03193f01 	tsteq	r9, #1, 30
    1120:	3b0b3a0e 	blcc	2cf960 <__bss_end__+0x2c10f0>
    1124:	3c19270b 	ldccc	7, cr2, [r9], {11}
    1128:	00130119 	andseq	r0, r3, r9, lsl r1
    112c:	00053200 	andeq	r3, r5, r0, lsl #4
    1130:	00001349 	andeq	r1, r0, r9, asr #6
    1134:	3f002e33 	svccc	0x00002e33
    1138:	3a0e0319 	bcc	381da4 <__bss_end__+0x373534>
    113c:	270b3b0b 	strcs	r3, [fp, -fp, lsl #22]
    1140:	3c134919 	ldccc	9, cr4, [r3], {25}
    1144:	34000019 	strcc	r0, [r0], #-25
    1148:	193f012e 	ldmdbne	pc!, {r1, r2, r3, r5, r8}	; <UNPREDICTABLE>
    114c:	0b3a0e03 	bleq	e84960 <__bss_end__+0xe760f0>
    1150:	19270b3b 	stmdbne	r7!, {r0, r1, r3, r4, r5, r8, r9, fp}
    1154:	193c1349 	ldmdbne	ip!, {r0, r3, r6, r8, r9, ip}
    1158:	00001301 	andeq	r1, r0, r1, lsl #6
    115c:	3f002e35 	svccc	0x00002e35
    1160:	3a0e0319 	bcc	381dcc <__bss_end__+0x37355c>
    1164:	270b3b0b 	strcs	r3, [fp, -fp, lsl #22]
    1168:	00193c19 	andseq	r3, r9, r9, lsl ip
    116c:	012e3600 	teqeq	lr, r0, lsl #12
    1170:	0e03193f 	mcreq	9, 0, r1, cr3, cr15, {1}
    1174:	0b3b0b3a 	bleq	ec3e64 <__bss_end__+0xeb55f4>
    1178:	13491927 	movtne	r1, #39207	; 0x9927
    117c:	0000193c 	andeq	r1, r0, ip, lsr r9
    1180:	01110100 	tsteq	r1, r0, lsl #2
    1184:	0b130e25 	bleq	4c4a20 <__bss_end__+0x4b61b0>
    1188:	0e1b0e03 	cdpeq	14, 1, cr0, cr11, cr3, {0}
    118c:	06120111 			; <UNDEFINED> instruction: 0x06120111
    1190:	00001710 	andeq	r1, r0, r0, lsl r7
    1194:	0b002402 	bleq	a1a4 <__FUNCTION__.4263+0x8>
    1198:	030b3e0b 	movweq	r3, #48651	; 0xbe0b
    119c:	03000008 	movweq	r0, #8
    11a0:	0b0b0024 	bleq	2c1238 <__bss_end__+0x2b29c8>
    11a4:	0e030b3e 	vmoveq.16	d3[0], r0
    11a8:	04040000 	streq	r0, [r4], #-0
    11ac:	3a0b0b01 	bcc	2c3db8 <__bss_end__+0x2b5548>
    11b0:	010b3b0b 	tsteq	fp, fp, lsl #22
    11b4:	05000013 	streq	r0, [r0, #-19]
    11b8:	0e030028 	cdpeq	0, 0, cr0, cr3, cr8, {1}
    11bc:	00000d1c 	andeq	r0, r0, ip, lsl sp
    11c0:	03001606 	movweq	r1, #1542	; 0x606
    11c4:	3b0b3a0e 	blcc	2cfa04 <__bss_end__+0x2c1194>
    11c8:	0013490b 	andseq	r4, r3, fp, lsl #18
    11cc:	012e0700 	teqeq	lr, r0, lsl #14
    11d0:	0e03193f 	mcreq	9, 0, r1, cr3, cr15, {1}
    11d4:	0b3b0b3a 	bleq	ec3ec4 <__bss_end__+0xeb5654>
    11d8:	01111927 	tsteq	r1, r7, lsr #18
    11dc:	18400612 	stmdane	r0, {r1, r4, r9, sl}^
    11e0:	01194297 			; <UNDEFINED> instruction: 0x01194297
    11e4:	08000013 	stmdaeq	r0, {r0, r1, r4}
    11e8:	00018289 	andeq	r8, r1, r9, lsl #5
    11ec:	13310111 	teqne	r1, #1073741828	; 0x40000004
    11f0:	89090000 	stmdbhi	r9, {}	; <UNPREDICTABLE>
    11f4:	11010182 	smlabbne	r1, r2, r1, r0
    11f8:	01133101 	tsteq	r3, r1, lsl #2
    11fc:	0a000013 	beq	1250 <_start-0x6db0>
    1200:	0001828a 	andeq	r8, r1, sl, lsl #5
    1204:	42911802 	addsmi	r1, r1, #131072	; 0x20000
    1208:	0b000018 	bleq	1270 <_start-0x6d90>
    120c:	193f012e 	ldmdbne	pc!, {r1, r2, r3, r5, r8}	; <UNPREDICTABLE>
    1210:	0b3a0e03 	bleq	e84a24 <__bss_end__+0xe761b4>
    1214:	19270b3b 	stmdbne	r7!, {r0, r1, r3, r4, r5, r8, r9, fp}
    1218:	01111349 	tsteq	r1, r9, asr #6
    121c:	18400612 	stmdane	r0, {r1, r4, r9, sl}^
    1220:	01194297 			; <UNDEFINED> instruction: 0x01194297
    1224:	0c000013 	stceq	0, cr0, [r0], {19}
    1228:	08030005 	stmdaeq	r3, {r0, r2}
    122c:	0b3b0b3a 	bleq	ec3f1c <__bss_end__+0xeb56ac>
    1230:	17021349 	strne	r1, [r2, -r9, asr #6]
    1234:	890d0000 	stmdbhi	sp, {}	; <UNPREDICTABLE>
    1238:	11010182 	smlabbne	r1, r2, r1, r0
    123c:	00133101 	andseq	r3, r3, r1, lsl #2
    1240:	00340e00 	eorseq	r0, r4, r0, lsl #28
    1244:	0b3a0e03 	bleq	e84a58 <__bss_end__+0xe761e8>
    1248:	13490b3b 	movtne	r0, #39739	; 0x9b3b
    124c:	1802193f 	stmdane	r2, {r0, r1, r2, r3, r4, r5, r8, fp, ip}
    1250:	0f0f0000 	svceq	0x000f0000
    1254:	490b0b00 	stmdbmi	fp, {r8, r9, fp}
    1258:	10000013 	andne	r0, r0, r3, lsl r0
    125c:	13490035 	movtne	r0, #36917	; 0x9035
    1260:	2e110000 	cdpcs	0, 1, cr0, cr1, cr0, {0}
    1264:	03193f00 	tsteq	r9, #0, 30
    1268:	3b0b3a0e 	blcc	2cfaa8 <__bss_end__+0x2c1238>
    126c:	3c19270b 	ldccc	7, cr2, [r9], {11}
    1270:	12000019 	andne	r0, r0, #25
    1274:	193f012e 	ldmdbne	pc!, {r1, r2, r3, r5, r8}	; <UNPREDICTABLE>
    1278:	0b3a0e03 	bleq	e84a8c <__bss_end__+0xe7621c>
    127c:	19270b3b 	stmdbne	r7!, {r0, r1, r3, r4, r5, r8, r9, fp}
    1280:	1301193c 	movwne	r1, #6460	; 0x193c
    1284:	05130000 	ldreq	r0, [r3, #-0]
    1288:	00134900 	andseq	r4, r3, r0, lsl #18
    128c:	012e1400 	teqeq	lr, r0, lsl #8
    1290:	0e03193f 	mcreq	9, 0, r1, cr3, cr15, {1}
    1294:	0b3b0b3a 	bleq	ec3f84 <__bss_end__+0xeb5714>
    1298:	13491927 	movtne	r1, #39207	; 0x9927
    129c:	1301193c 	movwne	r1, #6460	; 0x193c
    12a0:	26150000 	ldrcs	r0, [r5], -r0
    12a4:	00134900 	andseq	r4, r3, r0, lsl #18
    12a8:	00351600 	eorseq	r1, r5, r0, lsl #12
    12ac:	01000000 	mrseq	r0, (UNDEF: 0)
    12b0:	0e250111 	mcreq	1, 1, r0, cr5, cr1, {0}
    12b4:	0e030b13 	vmoveq.32	d3[0], r0
    12b8:	01110e1b 	tsteq	r1, fp, lsl lr
    12bc:	17100612 			; <UNDEFINED> instruction: 0x17100612
    12c0:	24020000 	strcs	r0, [r2], #-0
    12c4:	3e0b0b00 	vmlacc.f64	d0, d11, d0
    12c8:	0008030b 	andeq	r0, r8, fp, lsl #6
    12cc:	00240300 	eoreq	r0, r4, r0, lsl #6
    12d0:	0b3e0b0b 	bleq	f83f04 <__bss_end__+0xf75694>
    12d4:	00000e03 	andeq	r0, r0, r3, lsl #28
    12d8:	0b000f04 	bleq	4ef0 <_start-0x3110>
    12dc:	0013490b 	andseq	r4, r3, fp, lsl #18
    12e0:	00260500 	eoreq	r0, r6, r0, lsl #10
    12e4:	00001349 	andeq	r1, r0, r9, asr #6
    12e8:	49010106 	stmdbmi	r1, {r1, r2, r8}
    12ec:	00130113 	andseq	r0, r3, r3, lsl r1
    12f0:	00210700 	eoreq	r0, r1, r0, lsl #14
    12f4:	0b2f1349 	bleq	bc6020 <__bss_end__+0xbb77b0>
    12f8:	04080000 	streq	r0, [r8], #-0
    12fc:	3a0b0b01 	bcc	2c3f08 <__bss_end__+0x2b5698>
    1300:	010b3b0b 	tsteq	fp, fp, lsl #22
    1304:	09000013 	stmdbeq	r0, {r0, r1, r4}
    1308:	0e030028 	cdpeq	0, 0, cr0, cr3, cr8, {1}
    130c:	00000d1c 	andeq	r0, r0, ip, lsl sp
    1310:	3f012e0a 	svccc	0x00012e0a
    1314:	3a0e0319 	bcc	381f80 <__bss_end__+0x373710>
    1318:	270b3b0b 	strcs	r3, [fp, -fp, lsl #22]
    131c:	12011119 	andne	r1, r1, #1073741830	; 0x40000006
    1320:	97184006 	ldrls	r4, [r8, -r6]
    1324:	13011942 	movwne	r1, #6466	; 0x1942
    1328:	340b0000 	strcc	r0, [fp], #-0
    132c:	3a0e0300 	bcc	381f34 <__bss_end__+0x3736c4>
    1330:	490b3b0b 	stmdbmi	fp, {r0, r1, r3, r8, r9, fp, ip, sp}
    1334:	3c193f13 	ldccc	15, cr3, [r9], {19}
    1338:	0c000019 	stceq	0, cr0, [r0], {25}
    133c:	08030034 	stmdaeq	r3, {r2, r4, r5}
    1340:	0b3b0b3a 	bleq	ec4030 <__bss_end__+0xeb57c0>
    1344:	0b1c1349 	bleq	706070 <__bss_end__+0x6f7800>
    1348:	340d0000 	strcc	r0, [sp], #-0
    134c:	3a080300 	bcc	201f54 <__bss_end__+0x1f36e4>
    1350:	490b3b0b 	stmdbmi	fp, {r0, r1, r3, r8, r9, fp, ip, sp}
    1354:	0e000013 	mcreq	0, 0, r0, cr0, cr3, {0}
    1358:	08030034 	stmdaeq	r3, {r2, r4, r5}
    135c:	0b3b0b3a 	bleq	ec404c <__bss_end__+0xeb57dc>
    1360:	18021349 	stmdane	r2, {r0, r3, r6, r8, r9, ip}
    1364:	0b0f0000 	bleq	3c136c <__bss_end__+0x3b2afc>
    1368:	12011101 	andne	r1, r1, #1073741824	; 0x40000000
    136c:	00130106 	andseq	r0, r3, r6, lsl #2
    1370:	00341000 	eorseq	r1, r4, r0
    1374:	0b3a0803 	bleq	e83388 <__bss_end__+0xe74b18>
    1378:	13490b3b 	movtne	r0, #39739	; 0x9b3b
    137c:	00001702 	andeq	r1, r0, r2, lsl #14
    1380:	01828911 	orreq	r8, r2, r1, lsl r9
    1384:	31011101 	tstcc	r1, r1, lsl #2
    1388:	00130113 	andseq	r0, r3, r3, lsl r1
    138c:	828a1200 	addhi	r1, sl, #0, 4
    1390:	18020001 	stmdane	r2, {r0}
    1394:	00184291 	mulseq	r8, r1, r2
    1398:	82891300 	addhi	r1, r9, #0, 6
    139c:	01110001 	tsteq	r1, r1
    13a0:	00001331 	andeq	r1, r0, r1, lsr r3
    13a4:	03000514 	movweq	r0, #1300	; 0x514
    13a8:	3b0b3a08 	blcc	2cfbd0 <__bss_end__+0x2c1360>
    13ac:	0213490b 	andseq	r4, r3, #180224	; 0x2c000
    13b0:	15000017 	strne	r0, [r0, #-23]
    13b4:	0e030034 	mcreq	0, 0, r0, cr3, cr4, {1}
    13b8:	19341349 	ldmdbne	r4!, {r0, r3, r6, r8, r9, ip}
    13bc:	00001802 	andeq	r1, r0, r2, lsl #16
    13c0:	3f012e16 	svccc	0x00012e16
    13c4:	3a0e0319 	bcc	382030 <__bss_end__+0x3737c0>
    13c8:	270b3b0b 	strcs	r3, [fp, -fp, lsl #22]
    13cc:	01193c19 	tsteq	r9, r9, lsl ip
    13d0:	17000013 	smladne	r0, r3, r0, r0
    13d4:	13490005 	movtne	r0, #36869	; 0x9005
    13d8:	2e180000 	cdpcs	0, 1, cr0, cr8, cr0, {0}
    13dc:	03193f00 	tsteq	r9, #0, 30
    13e0:	3b0b3a0e 	blcc	2cfc20 <__bss_end__+0x2c13b0>
    13e4:	3c19270b 	ldccc	7, cr2, [r9], {11}
    13e8:	19000019 	stmdbne	r0, {r0, r3, r4}
    13ec:	193f012e 	ldmdbne	pc!, {r1, r2, r3, r5, r8}	; <UNPREDICTABLE>
    13f0:	0b3a0e03 	bleq	e84c04 <__bss_end__+0xe76394>
    13f4:	19270b3b 	stmdbne	r7!, {r0, r1, r3, r4, r5, r8, r9, fp}
    13f8:	193c1349 	ldmdbne	ip!, {r0, r3, r6, r8, r9, ip}
    13fc:	00001301 	andeq	r1, r0, r1, lsl #6
    1400:	0000181a 	andeq	r1, r0, sl, lsl r8
    1404:	11010000 	mrsne	r0, (UNDEF: 1)
    1408:	130e2501 	movwne	r2, #58625	; 0xe501
    140c:	1b0e030b 	blne	382040 <__bss_end__+0x3737d0>
    1410:	1201110e 	andne	r1, r1, #-2147483645	; 0x80000003
    1414:	00171006 	andseq	r1, r7, r6
    1418:	00240200 	eoreq	r0, r4, r0, lsl #4
    141c:	0b3e0b0b 	bleq	f84050 <__bss_end__+0xf757e0>
    1420:	00000803 	andeq	r0, r0, r3, lsl #16
    1424:	03001603 	movweq	r1, #1539	; 0x603
    1428:	3b0b3a0e 	blcc	2cfc68 <__bss_end__+0x2c13f8>
    142c:	0013490b 	andseq	r4, r3, fp, lsl #18
    1430:	00240400 	eoreq	r0, r4, r0, lsl #8
    1434:	0b3e0b0b 	bleq	f84068 <__bss_end__+0xf757f8>
    1438:	00000e03 	andeq	r0, r0, r3, lsl #28
    143c:	0b000f05 	bleq	5058 <_start-0x2fa8>
    1440:	0600000b 	streq	r0, [r0], -fp
    1444:	0b0b0113 	bleq	2c1898 <__bss_end__+0x2b3028>
    1448:	0b3b0b3a 	bleq	ec4138 <__bss_end__+0xeb58c8>
    144c:	00001301 	andeq	r1, r0, r1, lsl #6
    1450:	03000d07 	movweq	r0, #3335	; 0xd07
    1454:	3b0b3a08 	blcc	2cfc7c <__bss_end__+0x2c140c>
    1458:	3813490b 	ldmdacc	r3, {r0, r1, r3, r8, fp, lr}
    145c:	0800000b 	stmdaeq	r0, {r0, r1, r3}
    1460:	0e03000d 	cdpeq	0, 0, cr0, cr3, cr13, {0}
    1464:	0b3b0b3a 	bleq	ec4154 <__bss_end__+0xeb58e4>
    1468:	0b381349 	bleq	e06194 <__bss_end__+0xdf7924>
    146c:	04090000 	streq	r0, [r9], #-0
    1470:	3a0b0b01 	bcc	2c407c <__bss_end__+0x2b580c>
    1474:	010b3b0b 	tsteq	fp, fp, lsl #22
    1478:	0a000013 	beq	14cc <_start-0x6b34>
    147c:	0e030028 	cdpeq	0, 0, cr0, cr3, cr8, {1}
    1480:	00000d1c 	andeq	r0, r0, ip, lsl sp
    1484:	3f012e0b 	svccc	0x00012e0b
    1488:	3a0e0319 	bcc	3820f4 <__bss_end__+0x373884>
    148c:	270b3b0b 	strcs	r3, [fp, -fp, lsl #22]
    1490:	11134919 	tstne	r3, r9, lsl r9
    1494:	40061201 	andmi	r1, r6, r1, lsl #4
    1498:	19429718 	stmdbne	r2, {r3, r4, r8, r9, sl, ip, pc}^
    149c:	00001301 	andeq	r1, r0, r1, lsl #6
    14a0:	0300340c 	movweq	r3, #1036	; 0x40c
    14a4:	3b0b3a08 	blcc	2cfccc <__bss_end__+0x2c145c>
    14a8:	1c13490b 	ldcne	9, cr4, [r3], {11}
    14ac:	0d000006 	stceq	0, cr0, [r0, #-24]	; 0xffffffe8
    14b0:	01018289 	smlabbeq	r1, r9, r2, r8
    14b4:	13310111 	teqne	r1, #1073741828	; 0x40000004
    14b8:	8a0e0000 	bhi	3814c0 <__bss_end__+0x372c50>
    14bc:	02000182 	andeq	r0, r0, #-2147483616	; 0x80000020
    14c0:	18429118 	stmdane	r2, {r3, r4, r8, ip, pc}^
    14c4:	0f0f0000 	svceq	0x000f0000
    14c8:	490b0b00 	stmdbmi	fp, {r8, r9, fp}
    14cc:	10000013 	andne	r0, r0, r3, lsl r0
    14d0:	193f012e 	ldmdbne	pc!, {r1, r2, r3, r5, r8}	; <UNPREDICTABLE>
    14d4:	0b3a0e03 	bleq	e84ce8 <__bss_end__+0xe76478>
    14d8:	19270b3b 	stmdbne	r7!, {r0, r1, r3, r4, r5, r8, r9, fp}
    14dc:	193c1349 	ldmdbne	ip!, {r0, r3, r6, r8, r9, ip}
    14e0:	05110000 	ldreq	r0, [r1, #-0]
    14e4:	00134900 	andseq	r4, r3, r0, lsl #18
	...

Disassembly of section .debug_loc:

00000000 <.debug_loc>:
       0:	00000000 	andeq	r0, r0, r0
       4:	00000017 	andeq	r0, r0, r7, lsl r0
       8:	17500001 	ldrbne	r0, [r0, -r1]
       c:	b4000000 	strlt	r0, [r0], #-0
      10:	01000001 	tsteq	r0, r1
      14:	00005400 	andeq	r5, r0, r0, lsl #8
	...
      20:	00100000 	andseq	r0, r0, r0
      24:	00010000 	andeq	r0, r1, r0
      28:	00001051 	andeq	r1, r0, r1, asr r0
      2c:	00004c00 	andeq	r4, r0, r0, lsl #24
      30:	55000100 	strpl	r0, [r0, #-256]	; 0x100
      34:	0000004c 	andeq	r0, r0, ip, asr #32
      38:	000001b4 			; <UNDEFINED> instruction: 0x000001b4
      3c:	01f30004 	mvnseq	r0, r4
      40:	00009f51 	andeq	r9, r0, r1, asr pc
      44:	00000000 	andeq	r0, r0, r0
      48:	00f80000 	rscseq	r0, r8, r0
      4c:	01200000 	teqeq	r0, r0
      50:	00020000 	andeq	r0, r2, r0
      54:	01209f42 	teqeq	r0, r2, asr #30
      58:	01380000 	teqeq	r8, r0
      5c:	00010000 	andeq	r0, r1, r0
      60:	00013851 	andeq	r3, r1, r1, asr r8
      64:	00014000 	andeq	r4, r1, r0
      68:	42000200 	andmi	r0, r0, #0, 4
      6c:	0001409f 	muleq	r1, pc, r0	; <UNPREDICTABLE>
      70:	00016b00 	andeq	r6, r1, r0, lsl #22
      74:	51000100 	mrspl	r0, (UNDEF: 16)
	...
      80:	00000118 	andeq	r0, r0, r8, lsl r1
      84:	00000124 	andeq	r0, r0, r4, lsr #2
      88:	24520001 	ldrbcs	r0, [r2], #-1
      8c:	28000001 	stmdacs	r0, {r0}
      90:	03000001 	movweq	r0, #1
      94:	9f7f7200 	svcls	0x007f7200
	...
      a0:	000001dc 	ldrdeq	r0, [r0], -ip
      a4:	000001e7 	andeq	r0, r0, r7, ror #3
      a8:	e7500001 	ldrb	r0, [r0, -r1]
      ac:	24000001 	strcs	r0, [r0], #-1
      b0:	01000002 	tsteq	r0, r2
      b4:	00005400 	andeq	r5, r0, r0, lsl #8
      b8:	00000000 	andeq	r0, r0, r0
      bc:	01f40000 	mvnseq	r0, r0
      c0:	02000000 	andeq	r0, r0, #0
      c4:	00010000 	andeq	r0, r1, r0
      c8:	00020050 	andeq	r0, r2, r0, asr r0
      cc:	00020400 	andeq	r0, r2, r0, lsl #8
      d0:	51000100 	mrspl	r0, (UNDEF: 16)
      d4:	0000020c 	andeq	r0, r0, ip, lsl #4
      d8:	00000210 	andeq	r0, r0, r0, lsl r2
      dc:	10500001 	subsne	r0, r0, r1
      e0:	14000002 	strne	r0, [r0], #-2
      e4:	01000002 	tsteq	r0, r2
      e8:	00005100 	andeq	r5, r0, r0, lsl #2
      ec:	00000000 	andeq	r0, r0, r0
      f0:	02240000 	eoreq	r0, r4, #0
      f4:	022c0000 	eoreq	r0, ip, #0
      f8:	00010000 	andeq	r0, r1, r0
      fc:	00022c50 	andeq	r2, r2, r0, asr ip
     100:	00036c00 	andeq	r6, r3, r0, lsl #24
     104:	f3000400 	vshl.u8	d0, d0, d0
     108:	009f5001 	addseq	r5, pc, r1
     10c:	00000000 	andeq	r0, r0, r0
     110:	30000000 	andcc	r0, r0, r0
     114:	3c000002 	stccc	0, cr0, [r0], {2}
     118:	01000002 	tsteq	r0, r2
     11c:	02785000 	rsbseq	r5, r8, #0
     120:	02840000 	addeq	r0, r4, #0
     124:	00010000 	andeq	r0, r1, r0
     128:	0002ac50 	andeq	sl, r2, r0, asr ip
     12c:	0002b800 	andeq	fp, r2, r0, lsl #16
     130:	50000100 	andpl	r0, r0, r0, lsl #2
     134:	000002c4 	andeq	r0, r0, r4, asr #5
     138:	000002d8 	ldrdeq	r0, [r0], -r8
     13c:	00500001 	subseq	r0, r0, r1
     140:	00000000 	andeq	r0, r0, r0
     144:	40000000 	andmi	r0, r0, r0
     148:	44000002 	strmi	r0, [r0], #-2
     14c:	01000002 	tsteq	r0, r2
     150:	00005000 	andeq	r5, r0, r0
     154:	00000000 	andeq	r0, r0, r0
     158:	02440000 	subeq	r0, r4, #0
     15c:	02780000 	rsbseq	r0, r8, #0
     160:	00010000 	andeq	r0, r1, r0
     164:	00000050 	andeq	r0, r0, r0, asr r0
     168:	00000000 	andeq	r0, r0, r0
     16c:	00024400 	andeq	r4, r2, r0, lsl #8
     170:	00027800 	andeq	r7, r2, r0, lsl #16
     174:	03000600 	movweq	r0, #1536	; 0x600
     178:	0000a42c 	andeq	sl, r0, ip, lsr #8
     17c:	0000009f 	muleq	r0, pc, r0	; <UNPREDICTABLE>
     180:	00000000 	andeq	r0, r0, r0
     184:	00024800 	andeq	r4, r2, r0, lsl #16
     188:	00027800 	andeq	r7, r2, r0, lsl #16
     18c:	51000100 	mrspl	r0, (UNDEF: 16)
	...
     198:	00000248 	andeq	r0, r0, r8, asr #4
     19c:	00000278 	andeq	r0, r0, r8, ror r2
     1a0:	2c030006 	stccs	0, cr0, [r3], {6}
     1a4:	9f0000a4 	svcls	0x000000a4
	...
     1b0:	0000023c 	andeq	r0, r0, ip, lsr r2
     1b4:	00000278 	andeq	r0, r0, r8, ror r2
     1b8:	2c030006 	stccs	0, cr0, [r3], {6}
     1bc:	9f0000a4 	svcls	0x000000a4
     1c0:	00000284 	andeq	r0, r0, r4, lsl #5
     1c4:	000002ac 	andeq	r0, r0, ip, lsr #5
     1c8:	2c030006 	stccs	0, cr0, [r3], {6}
     1cc:	9f0000a4 	svcls	0x000000a4
	...
     1d8:	000002b8 			; <UNDEFINED> instruction: 0x000002b8
     1dc:	000002c4 	andeq	r0, r0, r4, asr #5
     1e0:	40030006 	andmi	r0, r3, r6
     1e4:	9f0000c4 	svcls	0x000000c4
     1e8:	000002e4 	andeq	r0, r0, r4, ror #5
     1ec:	00000328 	andeq	r0, r0, r8, lsr #6
     1f0:	40030006 	andmi	r0, r3, r6
     1f4:	9f0000c4 	svcls	0x000000c4
	...
     200:	000002b8 			; <UNDEFINED> instruction: 0x000002b8
     204:	000002c4 	andeq	r0, r0, r4, asr #5
     208:	44030006 	strmi	r0, [r3], #-6
     20c:	9f0000c4 	svcls	0x000000c4
     210:	000002e4 	andeq	r0, r0, r4, ror #5
     214:	00000328 	andeq	r0, r0, r8, lsr #6
     218:	44030006 	strmi	r0, [r3], #-6
     21c:	9f0000c4 	svcls	0x000000c4
	...
     228:	000002f8 	strdeq	r0, [r0], -r8
     22c:	00000308 	andeq	r0, r0, r8, lsl #6
     230:	08530001 	ldmdaeq	r3, {r0}^
     234:	14000003 	strne	r0, [r0], #-3
     238:	05000003 	streq	r0, [r0, #-3]
     23c:	e44c0300 	strb	r0, [ip], #-768	; 0x300
	...
     248:	036c0000 	cmneq	ip, #0
     24c:	03770000 	cmneq	r7, #0
     250:	00010000 	andeq	r0, r1, r0
     254:	00037750 	andeq	r7, r3, r0, asr r7
     258:	00044c00 	andeq	r4, r4, r0, lsl #24
     25c:	f3000400 	vshl.u8	d0, d0, d0
     260:	009f5001 	addseq	r5, pc, r1
     264:	00000000 	andeq	r0, r0, r0
     268:	e0000000 	and	r0, r0, r0
     26c:	10000003 	andne	r0, r0, r3
     270:	01000004 	tsteq	r0, r4
     274:	04145600 	ldreq	r5, [r4], #-1536	; 0x600
     278:	04380000 	ldrteq	r0, [r8], #-0
     27c:	00010000 	andeq	r0, r1, r0
     280:	00000056 	andeq	r0, r0, r6, asr r0
     284:	00000000 	andeq	r0, r0, r0
     288:	00037800 	andeq	r7, r3, r0, lsl #16
     28c:	0003cc00 	andeq	ip, r3, r0, lsl #24
     290:	54000100 	strpl	r0, [r0], #-256	; 0x100
	...
     29c:	00000384 	andeq	r0, r0, r4, lsl #7
     2a0:	000003b0 			; <UNDEFINED> instruction: 0x000003b0
     2a4:	b0510001 	subslt	r0, r1, r1
     2a8:	c7000003 	strgt	r0, [r0, -r3]
     2ac:	05000003 	streq	r0, [r0, #-3]
     2b0:	e4480300 	strb	r0, [r8], #-768	; 0x300
	...
     2bc:	03e00000 	mvneq	r0, #0
     2c0:	03e80000 	mvneq	r0, #0
     2c4:	00060000 	andeq	r0, r6, r0
     2c8:	00075bf2 	strdeq	r5, [r7], -r2
     2cc:	03f40000 	mvnseq	r0, #0
     2d0:	04380000 	ldrteq	r0, [r8], #-0
     2d4:	00060000 	andeq	r0, r6, r0
     2d8:	00075bf2 	strdeq	r5, [r7], -r2
	...
     2e4:	03e00000 	mvneq	r0, #0
     2e8:	03e80000 	mvneq	r0, #0
     2ec:	00060000 	andeq	r0, r6, r0
     2f0:	00c44403 	sbceq	r4, r4, r3, lsl #8
     2f4:	03f49f00 	mvnseq	r9, #0, 30
     2f8:	04380000 	ldrteq	r0, [r8], #-0
     2fc:	00060000 	andeq	r0, r6, r0
     300:	00c44403 	sbceq	r4, r4, r3, lsl #8
     304:	00009f00 	andeq	r9, r0, r0, lsl #30
     308:	00000000 	andeq	r0, r0, r0
     30c:	04080000 	streq	r0, [r8], #-0
     310:	04180000 	ldreq	r0, [r8], #-0
     314:	00010000 	andeq	r0, r1, r0
     318:	00041853 	andeq	r1, r4, r3, asr r8
     31c:	00042400 	andeq	r2, r4, r0, lsl #8
     320:	03000500 	movweq	r0, #1280	; 0x500
     324:	0000e44c 	andeq	lr, r0, ip, asr #8
	...
     330:	00000454 	andeq	r0, r0, r4, asr r4
     334:	0000049c 	muleq	r0, ip, r4
     338:	82090003 	andhi	r0, r9, #3
     33c:	00049c9f 	muleq	r4, pc, ip	; <UNPREDICTABLE>
     340:	0004b000 	andeq	fp, r4, r0
     344:	54000100 	strpl	r0, [r0], #-256	; 0x100
     348:	000004b0 			; <UNDEFINED> instruction: 0x000004b0
     34c:	000004bc 			; <UNDEFINED> instruction: 0x000004bc
     350:	82090003 	andhi	r0, r9, #3
     354:	0004bc9f 	muleq	r4, pc, ip	; <UNPREDICTABLE>
     358:	0004d400 	andeq	sp, r4, r0, lsl #8
     35c:	54000100 	strpl	r0, [r0], #-256	; 0x100
	...
     368:	00000470 	andeq	r0, r0, r0, ror r4
     36c:	000004b0 			; <UNDEFINED> instruction: 0x000004b0
     370:	6af20006 	bvs	ffc80390 <__bss_end__+0xffc71b20>
     374:	00000008 	andeq	r0, r0, r8
     378:	000004b8 			; <UNDEFINED> instruction: 0x000004b8
     37c:	000004bc 			; <UNDEFINED> instruction: 0x000004bc
     380:	6af20006 	bvs	ffc803a0 <__bss_end__+0xffc71b30>
     384:	00000008 	andeq	r0, r0, r8
	...
     390:	00000470 	andeq	r0, r0, r0, ror r4
     394:	000004b0 			; <UNDEFINED> instruction: 0x000004b0
     398:	2c030006 	stccs	0, cr0, [r3], {6}
     39c:	9f0000a4 	svcls	0x000000a4
     3a0:	000004b8 			; <UNDEFINED> instruction: 0x000004b8
     3a4:	000004bc 			; <UNDEFINED> instruction: 0x000004bc
     3a8:	2c030006 	stccs	0, cr0, [r3], {6}
     3ac:	9f0000a4 	svcls	0x000000a4
	...
     3b8:	00000494 	muleq	r0, r4, r4
     3bc:	000004a0 	andeq	r0, r0, r0, lsr #9
     3c0:	a0510001 	subsge	r0, r1, r1
     3c4:	b0000004 	andlt	r0, r0, r4
     3c8:	05000004 	streq	r0, [r0, #-4]
     3cc:	c4340300 	ldrtgt	r0, [r4], #-768	; 0x300
	...
     3d8:	04d40000 	ldrbeq	r0, [r4], #0
     3dc:	04e00000 	strbteq	r0, [r0], #0
     3e0:	00010000 	andeq	r0, r1, r0
     3e4:	0004e050 	andeq	lr, r4, r0, asr r0
     3e8:	0004f800 	andeq	pc, r4, r0, lsl #16
     3ec:	54000100 	strpl	r0, [r0], #-256	; 0x100
	...
     3fc:	00000004 	andeq	r0, r0, r4
     400:	04520001 	ldrbeq	r0, [r2], #-1
     404:	20000000 	andcs	r0, r0, r0
     408:	04000000 	streq	r0, [r0], #-0
     40c:	5201f300 	andpl	pc, r1, #0, 6
     410:	0000009f 	muleq	r0, pc, r0	; <UNPREDICTABLE>
	...
     41c:	00000c00 	andeq	r0, r0, r0, lsl #24
     420:	50000100 	andpl	r0, r0, r0, lsl #2
     424:	0000000c 	andeq	r0, r0, ip
     428:	00000014 	andeq	r0, r0, r4, lsl r0
     42c:	01730003 	cmneq	r3, r3
     430:	0000149f 	muleq	r0, pc, r4	; <UNPREDICTABLE>
     434:	00002000 	andeq	r2, r0, r0
     438:	53000100 	movwpl	r0, #256	; 0x100
	...
     444:	0000002c 	andeq	r0, r0, ip, lsr #32
     448:	00000038 	andeq	r0, r0, r8, lsr r0
     44c:	38500001 	ldmdacc	r0, {r0}^
     450:	48000000 	stmdami	r0, {}	; <UNPREDICTABLE>
     454:	01000000 	mrseq	r0, (UNDEF: 0)
     458:	00485500 	subeq	r5, r8, r0, lsl #10
     45c:	00580000 	subseq	r0, r8, r0
     460:	00010000 	andeq	r0, r1, r0
     464:	00000050 	andeq	r0, r0, r0, asr r0
	...
     470:	00000b00 	andeq	r0, r0, r0, lsl #22
     474:	50000100 	andpl	r0, r0, r0, lsl #2
     478:	0000000b 	andeq	r0, r0, fp
     47c:	00000014 	andeq	r0, r0, r4, lsl r0
     480:	00540001 	subseq	r0, r4, r1
	...
     48c:	10000000 	andne	r0, r0, r0
     490:	01000000 	mrseq	r0, (UNDEF: 0)
     494:	00105000 	andseq	r5, r0, r0
     498:	00340000 	eorseq	r0, r4, r0
     49c:	00010000 	andeq	r0, r1, r0
     4a0:	00000054 	andeq	r0, r0, r4, asr r0
	...
     4ac:	00000400 	andeq	r0, r0, r0, lsl #8
     4b0:	50000100 	andpl	r0, r0, r0, lsl #2
     4b4:	00000004 	andeq	r0, r0, r4
     4b8:	0000000c 	andeq	r0, r0, ip
     4bc:	30700003 	rsbscc	r0, r0, r3
     4c0:	00000c9f 	muleq	r0, pc, ip	; <UNPREDICTABLE>
     4c4:	00001400 	andeq	r1, r0, r0, lsl #8
     4c8:	f3000400 	vshl.u8	d0, d0, d0
     4cc:	009f5001 	addseq	r5, pc, r1
     4d0:	00000000 	andeq	r0, r0, r0
     4d4:	14000000 	strne	r0, [r0], #-0
     4d8:	20000000 	andcs	r0, r0, r0
     4dc:	01000000 	mrseq	r0, (UNDEF: 0)
     4e0:	00205000 	eoreq	r5, r0, r0
     4e4:	002c0000 	eoreq	r0, ip, r0
     4e8:	00030000 	andeq	r0, r3, r0
     4ec:	2c9f0170 	ldfcss	f0, [pc], {112}	; 0x70
     4f0:	40000000 	andmi	r0, r0, r0
     4f4:	01000000 	mrseq	r0, (UNDEF: 0)
     4f8:	00005000 	andeq	r5, r0, r0
     4fc:	00000000 	andeq	r0, r0, r0
     500:	00140000 	andseq	r0, r4, r0
     504:	00180000 	andseq	r0, r8, r0
     508:	00010000 	andeq	r0, r1, r0
     50c:	00001851 	andeq	r1, r0, r1, asr r8
     510:	00004000 	andeq	r4, r0, r0
     514:	f3000400 	vshl.u8	d0, d0, d0
     518:	009f5101 	addseq	r5, pc, r1, lsl #2
     51c:	00000000 	andeq	r0, r0, r0
     520:	40000000 	andmi	r0, r0, r0
     524:	60000000 	andvs	r0, r0, r0
     528:	01000000 	mrseq	r0, (UNDEF: 0)
     52c:	00605000 	rsbeq	r5, r0, r0
     530:	006c0000 	rsbeq	r0, ip, r0
     534:	00030000 	andeq	r0, r3, r0
     538:	6c9f0171 	ldfvss	f0, [pc], {113}	; 0x71
     53c:	74000000 	strvc	r0, [r0], #-0
     540:	01000000 	mrseq	r0, (UNDEF: 0)
     544:	00745100 	rsbseq	r5, r4, r0, lsl #2
     548:	00800000 	addeq	r0, r0, r0
     54c:	00030000 	andeq	r0, r3, r0
     550:	009f0171 	addseq	r0, pc, r1, ror r1	; <UNPREDICTABLE>
     554:	00000000 	andeq	r0, r0, r0
     558:	40000000 	andmi	r0, r0, r0
     55c:	50000000 	andpl	r0, r0, r0
     560:	01000000 	mrseq	r0, (UNDEF: 0)
     564:	00505100 	subseq	r5, r0, r0, lsl #2
     568:	00800000 	addeq	r0, r0, r0
     56c:	00040000 	andeq	r0, r4, r0
     570:	9f5101f3 	svcls	0x005101f3
	...
     57c:	00000040 	andeq	r0, r0, r0, asr #32
     580:	00000058 	andeq	r0, r0, r8, asr r0
     584:	58520001 	ldmdapl	r2, {r0}^
     588:	64000000 	strvs	r0, [r0], #-0
     58c:	01000000 	mrseq	r0, (UNDEF: 0)
     590:	00645200 	rsbeq	r5, r4, r0, lsl #4
     594:	00680000 	rsbeq	r0, r8, r0
     598:	00030000 	andeq	r0, r3, r0
     59c:	689f0172 	ldmvs	pc, {r1, r4, r5, r6, r8}	; <UNPREDICTABLE>
     5a0:	80000000 	andhi	r0, r0, r0
     5a4:	01000000 	mrseq	r0, (UNDEF: 0)
     5a8:	00005200 	andeq	r5, r0, r0, lsl #4
     5ac:	00000000 	andeq	r0, r0, r0
     5b0:	00400000 	subeq	r0, r0, r0
     5b4:	00540000 	subseq	r0, r4, r0
     5b8:	00010000 	andeq	r0, r1, r0
     5bc:	00005453 	andeq	r5, r0, r3, asr r4
     5c0:	00007800 	andeq	r7, r0, r0, lsl #16
     5c4:	53000100 	movwpl	r0, #256	; 0x100
	...
     5d0:	00000048 	andeq	r0, r0, r8, asr #32
     5d4:	00000060 	andeq	r0, r0, r0, rrx
     5d8:	605c0001 	subsvs	r0, ip, r1
     5dc:	80000000 	andhi	r0, r0, r0
     5e0:	0a000000 	beq	5e8 <_start-0x7a18>
     5e4:	5201f300 	andpl	pc, r1, #0, 6
     5e8:	1c5301f3 	ldfnee	f0, [r3], {243}	; 0xf3
     5ec:	009f0123 	addseq	r0, pc, r3, lsr #2
     5f0:	00000000 	andeq	r0, r0, r0
     5f4:	80000000 	andhi	r0, r0, r0
     5f8:	a4000000 	strge	r0, [r0], #-0
     5fc:	01000000 	mrseq	r0, (UNDEF: 0)
     600:	00a45000 	adceq	r5, r4, r0
     604:	01180000 	tsteq	r8, r0
     608:	00030000 	andeq	r0, r3, r0
     60c:	189f0270 	ldmne	pc, {r4, r5, r6, r9}	; <UNPREDICTABLE>
     610:	1c000001 	stcne	0, cr0, [r0], {1}
     614:	04000002 	streq	r0, [r0], #-2
     618:	5001f300 	andpl	pc, r1, r0, lsl #6
     61c:	0000009f 	muleq	r0, pc, r0	; <UNPREDICTABLE>
     620:	00000000 	andeq	r0, r0, r0
     624:	00008000 	andeq	r8, r0, r0
     628:	0000f000 	andeq	pc, r0, r0
     62c:	51000100 	mrspl	r0, (UNDEF: 16)
     630:	000000f0 	strdeq	r0, [r0], -r0	; <UNPREDICTABLE>
     634:	00000160 	andeq	r0, r0, r0, ror #2
     638:	60550001 	subsvs	r0, r5, r1
     63c:	68000001 	stmdavs	r0, {r0}
     640:	01000001 	tsteq	r0, r1
     644:	01685100 	cmneq	r8, r0, lsl #2
     648:	01880000 	orreq	r0, r8, r0
     64c:	00010000 	andeq	r0, r1, r0
     650:	00018855 	andeq	r8, r1, r5, asr r8
     654:	00019c00 	andeq	r9, r1, r0, lsl #24
     658:	51000100 	mrspl	r0, (UNDEF: 16)
     65c:	0000019c 	muleq	r0, ip, r1
     660:	000001bc 			; <UNDEFINED> instruction: 0x000001bc
     664:	bc550001 	mrrclt	0, 0, r0, r5, cr1
     668:	bf000001 	svclt	0x00000001
     66c:	01000001 	tsteq	r0, r1
     670:	01bf5100 			; <UNDEFINED> instruction: 0x01bf5100
     674:	02000000 	andeq	r0, r0, #0
     678:	00010000 	andeq	r0, r1, r0
     67c:	00020055 	andeq	r0, r2, r5, asr r0
     680:	00021c00 	andeq	r1, r2, r0, lsl #24
     684:	f3000400 	vshl.u8	d0, d0, d0
     688:	009f5101 	addseq	r5, pc, r1, lsl #2
     68c:	00000000 	andeq	r0, r0, r0
     690:	80000000 	andhi	r0, r0, r0
     694:	94000000 	strls	r0, [r0], #-0
     698:	01000000 	mrseq	r0, (UNDEF: 0)
     69c:	00945200 	addseq	r5, r4, r0, lsl #4
     6a0:	02000000 	andeq	r0, r0, #0
     6a4:	00010000 	andeq	r0, r1, r0
     6a8:	00020054 	andeq	r0, r2, r4, asr r0
     6ac:	00021c00 	andeq	r1, r2, r0, lsl #24
     6b0:	f3000400 	vshl.u8	d0, d0, d0
     6b4:	009f5201 	addseq	r5, pc, r1, lsl #4
     6b8:	00000000 	andeq	r0, r0, r0
     6bc:	80000000 	andhi	r0, r0, r0
     6c0:	00000000 	andeq	r0, r0, r0
     6c4:	01000001 	tsteq	r0, r1
     6c8:	01045300 	mrseq	r5, LR_abt
     6cc:	01080000 	mrseq	r0, (UNDEF: 8)
     6d0:	00010000 	andeq	r0, r1, r0
     6d4:	00016053 	andeq	r6, r1, r3, asr r0
     6d8:	00016800 	andeq	r6, r1, r0, lsl #16
     6dc:	53000100 	movwpl	r0, #256	; 0x100
     6e0:	00000168 	andeq	r0, r0, r8, ror #2
     6e4:	00000188 	andeq	r0, r0, r8, lsl #3
     6e8:	01f30004 	mvnseq	r0, r4
     6ec:	01889f53 	orreq	r9, r8, r3, asr pc
     6f0:	01900000 	orrseq	r0, r0, r0
     6f4:	00010000 	andeq	r0, r1, r0
     6f8:	00019053 	andeq	r9, r1, r3, asr r0
     6fc:	00019400 	andeq	r9, r1, r0, lsl #8
     700:	5c000100 	stfpls	f0, [r0], {-0}
     704:	00000194 	muleq	r0, r4, r1
     708:	0000019c 	muleq	r0, ip, r1
     70c:	9c530001 	mrrcls	0, 0, r0, r3, cr1
     710:	bc000001 	stclt	0, cr0, [r0], {1}
     714:	04000001 	streq	r0, [r0], #-1
     718:	5301f300 	movwpl	pc, #4864	; 0x1300	; <UNPREDICTABLE>
     71c:	0001bc9f 	muleq	r1, pc, ip	; <UNPREDICTABLE>
     720:	0001bf00 	andeq	fp, r1, r0, lsl #30
     724:	53000100 	movwpl	r0, #256	; 0x100
     728:	000001bf 			; <UNDEFINED> instruction: 0x000001bf
     72c:	000001d8 	ldrdeq	r0, [r0], -r8
     730:	01f30004 	mvnseq	r0, r4
     734:	00009f53 	andeq	r9, r0, r3, asr pc
     738:	00000000 	andeq	r0, r0, r0
     73c:	00800000 	addeq	r0, r0, r0
     740:	009c0000 	addseq	r0, ip, r0
     744:	00020000 	andeq	r0, r2, r0
     748:	009c0091 	umullseq	r0, ip, r1, r0
     74c:	01bf0000 			; <UNDEFINED> instruction: 0x01bf0000
     750:	00010000 	andeq	r0, r1, r0
     754:	0001d852 	andeq	sp, r1, r2, asr r8
     758:	0001e300 	andeq	lr, r1, r0, lsl #6
     75c:	52000100 	andpl	r0, r0, #0, 2
	...
     768:	0000009c 	muleq	r0, ip, r0
     76c:	00000118 	andeq	r0, r0, r8, lsl r1
     770:	185d0001 	ldmdane	sp, {r0}^
     774:	1c000001 	stcne	0, cr0, [r0], {1}
     778:	01000001 	tsteq	r0, r1
     77c:	011c5300 	tsteq	ip, r0, lsl #6
     780:	01200000 	teqeq	r0, r0
     784:	00010000 	andeq	r0, r1, r0
     788:	00012051 	andeq	r2, r1, r1, asr r0
     78c:	00016000 	andeq	r6, r1, r0
     790:	53000100 	movwpl	r0, #256	; 0x100
     794:	00000160 	andeq	r0, r0, r0, ror #2
     798:	00000168 	andeq	r0, r0, r8, ror #2
     79c:	685d0001 	ldmdavs	sp, {r0}^
     7a0:	6c000001 	stcvs	0, cr0, [r0], {1}
     7a4:	01000001 	tsteq	r0, r1
     7a8:	016c5e00 	cmneq	ip, r0, lsl #28
     7ac:	01880000 	orreq	r0, r8, r0
     7b0:	00010000 	andeq	r0, r1, r0
     7b4:	00018853 	andeq	r8, r1, r3, asr r8
     7b8:	00019000 	andeq	r9, r1, r0
     7bc:	91000400 	tstls	r0, r0, lsl #8
     7c0:	909f7fa1 	addsls	r7, pc, r1, lsr #31
     7c4:	94000001 	strls	r0, [r0], #-1
     7c8:	01000001 	tsteq	r0, r1
     7cc:	01945300 	orrseq	r5, r4, r0, lsl #6
     7d0:	019c0000 	orrseq	r0, ip, r0
     7d4:	00010000 	andeq	r0, r1, r0
     7d8:	00019c5d 	andeq	r9, r1, sp, asr ip
     7dc:	0001a000 	andeq	sl, r1, r0
     7e0:	5e000100 	adfpls	f0, f0, f0
     7e4:	000001a0 	andeq	r0, r0, r0, lsr #3
     7e8:	000001bc 			; <UNDEFINED> instruction: 0x000001bc
     7ec:	bc530001 	mrrclt	0, 0, r0, r3, cr1
     7f0:	d8000001 	stmdale	r0, {r0}
     7f4:	01000001 	tsteq	r0, r1
     7f8:	01d85d00 	bicseq	r5, r8, r0, lsl #26
     7fc:	01e30000 	mvneq	r0, r0
     800:	00010000 	andeq	r0, r1, r0
     804:	00000053 	andeq	r0, r0, r3, asr r0
     808:	00000000 	andeq	r0, r0, r0
     80c:	0000a000 	andeq	sl, r0, r0
     810:	0000ec00 	andeq	lr, r0, r0, lsl #24
     814:	5c000100 	stfpls	f0, [r0], {-0}
     818:	000000ec 	andeq	r0, r0, ip, ror #1
     81c:	00000100 	andeq	r0, r0, r0, lsl #2
     820:	00530001 	subseq	r0, r3, r1
     824:	04000001 	streq	r0, [r0], #-1
     828:	01000001 	tsteq	r0, r1
     82c:	01045c00 	tsteq	r4, r0, lsl #24
     830:	01080000 	mrseq	r0, (UNDEF: 8)
     834:	00010000 	andeq	r0, r1, r0
     838:	00010853 	andeq	r0, r1, r3, asr r8
     83c:	00011800 	andeq	r1, r1, r0, lsl #16
     840:	5c000100 	stfpls	f0, [r0], {-0}
     844:	00000118 	andeq	r0, r0, r8, lsl r1
     848:	0000011c 	andeq	r0, r0, ip, lsl r1
     84c:	1c500001 	mrrcne	0, 0, r0, r0, cr1	; <UNPREDICTABLE>
     850:	3c000001 	stccc	0, cr0, [r0], {1}
     854:	01000001 	tsteq	r0, r1
     858:	01445c00 	cmpeq	r4, r0, lsl #24
     85c:	01580000 	cmpeq	r8, r0
     860:	00010000 	andeq	r0, r1, r0
     864:	00015850 	andeq	r5, r1, r0, asr r8
     868:	00016000 	andeq	r6, r1, r0
     86c:	5c000100 	stfpls	f0, [r0], {-0}
     870:	00000160 	andeq	r0, r0, r0, ror #2
     874:	00000168 	andeq	r0, r0, r8, ror #2
     878:	68530001 	ldmdavs	r3, {r0}^
     87c:	78000001 	stmdavc	r0, {r0}
     880:	01000001 	tsteq	r0, r1
     884:	01785c00 	cmneq	r8, r0, lsl #24
     888:	01800000 	orreq	r0, r0, r0
     88c:	00050000 	andeq	r0, r5, r0
     890:	2534007c 	ldrcs	r0, [r4, #-124]!	; 0x7c
     894:	0001809f 	muleq	r1, pc, r0	; <UNPREDICTABLE>
     898:	00018800 	andeq	r8, r1, r0, lsl #16
     89c:	5c000100 	stfpls	f0, [r0], {-0}
     8a0:	00000188 	andeq	r0, r0, r8, lsl #3
     8a4:	00000190 	muleq	r0, r0, r1
     8a8:	90530001 	subsls	r0, r3, r1
     8ac:	94000001 	strls	r0, [r0], #-1
     8b0:	01000001 	tsteq	r0, r1
     8b4:	01945c00 	orrseq	r5, r4, r0, lsl #24
     8b8:	019c0000 	orrseq	r0, ip, r0
     8bc:	00010000 	andeq	r0, r1, r0
     8c0:	00019c53 	andeq	r9, r1, r3, asr ip
     8c4:	0001ac00 	andeq	sl, r1, r0, lsl #24
     8c8:	5c000100 	stfpls	f0, [r0], {-0}
     8cc:	000001ac 	andeq	r0, r0, ip, lsr #3
     8d0:	000001b4 			; <UNDEFINED> instruction: 0x000001b4
     8d4:	007c0005 	rsbseq	r0, ip, r5
     8d8:	b49f2531 	ldrlt	r2, [pc], #1329	; 8e0 <_start-0x7720>
     8dc:	bc000001 	stclt	0, cr0, [r0], {1}
     8e0:	01000001 	tsteq	r0, r1
     8e4:	01bc5c00 			; <UNDEFINED> instruction: 0x01bc5c00
     8e8:	01bf0000 			; <UNDEFINED> instruction: 0x01bf0000
     8ec:	00010000 	andeq	r0, r1, r0
     8f0:	0001bf53 	andeq	fp, r1, r3, asr pc
     8f4:	0001d800 	andeq	sp, r1, r0, lsl #16
     8f8:	f3000400 	vshl.u8	d0, d0, d0
     8fc:	d89f5301 	ldmle	pc, {r0, r8, r9, ip, lr}	; <UNPREDICTABLE>
     900:	e3000001 	movw	r0, #1
     904:	01000001 	tsteq	r0, r1
     908:	00005c00 	andeq	r5, r0, r0, lsl #24
     90c:	00000000 	andeq	r0, r0, r0
     910:	00ec0000 	rsceq	r0, ip, r0
     914:	00fc0000 	rscseq	r0, ip, r0
     918:	00020000 	andeq	r0, r2, r0
     91c:	00fc9f30 	rscseq	r9, ip, r0, lsr pc
     920:	01040000 	mrseq	r0, (UNDEF: 4)
     924:	00020000 	andeq	r0, r2, r0
     928:	01049f31 	tsteq	r4, r1, lsr pc
     92c:	01080000 	mrseq	r0, (UNDEF: 8)
     930:	00020000 	andeq	r0, r2, r0
     934:	00009f30 	andeq	r9, r0, r0, lsr pc
     938:	00000000 	andeq	r0, r0, r0
     93c:	021c0000 	andseq	r0, ip, #0
     940:	022b0000 	eoreq	r0, fp, #0
     944:	00010000 	andeq	r0, r1, r0
     948:	00022b50 	andeq	r2, r2, r0, asr fp
     94c:	00024400 	andeq	r4, r2, r0, lsl #8
     950:	f3000400 	vshl.u8	d0, d0, d0
     954:	449f5001 	ldrmi	r5, [pc], #1	; 95c <_start-0x76a4>
     958:	70000002 	andvc	r0, r0, r2
     95c:	01000002 	tsteq	r0, r2
     960:	00005000 	andeq	r5, r0, r0
     964:	00000000 	andeq	r0, r0, r0
     968:	021c0000 	andseq	r0, ip, #0
     96c:	022b0000 	eoreq	r0, fp, #0
     970:	00010000 	andeq	r0, r1, r0
     974:	00022b51 	andeq	r2, r2, r1, asr fp
     978:	00024400 	andeq	r4, r2, r0, lsl #8
     97c:	f3000400 	vshl.u8	d0, d0, d0
     980:	449f5101 	ldrmi	r5, [pc], #257	; 988 <_start-0x7678>
     984:	70000002 	andvc	r0, r0, r2
     988:	01000002 	tsteq	r0, r2
     98c:	00005100 	andeq	r5, r0, r0, lsl #2
     990:	00000000 	andeq	r0, r0, r0
     994:	02700000 	rsbseq	r0, r0, #0
     998:	029c0000 	addseq	r0, ip, #0
     99c:	00010000 	andeq	r0, r1, r0
     9a0:	00029c50 	andeq	r9, r2, r0, asr ip
     9a4:	0004e400 	andeq	lr, r4, r0, lsl #8
     9a8:	5a000100 	bpl	db0 <_start-0x7250>
     9ac:	000004e4 	andeq	r0, r0, r4, ror #9
     9b0:	000004f8 	strdeq	r0, [r0], -r8
     9b4:	01f30004 	mvnseq	r0, r4
     9b8:	00009f50 	andeq	r9, r0, r0, asr pc
     9bc:	00000000 	andeq	r0, r0, r0
     9c0:	02700000 	rsbseq	r0, r0, #0
     9c4:	02840000 	addeq	r0, r4, #0
     9c8:	00010000 	andeq	r0, r1, r0
     9cc:	00028451 	andeq	r8, r2, r1, asr r4
     9d0:	00029c00 	andeq	r9, r2, r0, lsl #24
     9d4:	71000300 	mrsvc	r0, LR_irq
     9d8:	029c9f01 	addseq	r9, ip, #1, 30
     9dc:	04f80000 	ldrbteq	r0, [r8], #0
     9e0:	00040000 	andeq	r0, r4, r0
     9e4:	9f5101f3 	svcls	0x005101f3
	...
     9f0:	00000270 	andeq	r0, r0, r0, ror r2
     9f4:	000002a4 	andeq	r0, r0, r4, lsr #5
     9f8:	a4520001 	ldrbge	r0, [r2], #-1
     9fc:	cc000002 	stcgt	0, cr0, [r0], {2}
     a00:	01000002 	tsteq	r0, r2
     a04:	02cc5200 	sbceq	r5, ip, #0, 4
     a08:	04940000 	ldreq	r0, [r4], #0
     a0c:	00010000 	andeq	r0, r1, r0
     a10:	00049456 	andeq	r9, r4, r6, asr r4
     a14:	0004f800 	andeq	pc, r4, r0, lsl #16
     a18:	52000100 	andpl	r0, r0, #0, 2
	...
     a24:	00000270 	andeq	r0, r0, r0, ror r2
     a28:	0000028c 	andeq	r0, r0, ip, lsl #5
     a2c:	00530001 	subseq	r0, r3, r1
     a30:	00000000 	andeq	r0, r0, r0
     a34:	80000000 	andhi	r0, r0, r0
     a38:	9c000002 	stcls	0, cr0, [r0], {2}
     a3c:	01000002 	tsteq	r0, r2
     a40:	029c5000 	addseq	r5, ip, #0
     a44:	02a00000 	adceq	r0, r0, #0
     a48:	00010000 	andeq	r0, r1, r0
     a4c:	0002a054 	andeq	sl, r2, r4, asr r0
     a50:	0002ac00 	andeq	sl, r2, r0, lsl #24
     a54:	74000300 	strvc	r0, [r0], #-768	; 0x300
     a58:	02ac9f01 	adceq	r9, ip, #1, 30
     a5c:	02b80000 	adcseq	r0, r8, #0
     a60:	00010000 	andeq	r0, r1, r0
     a64:	0002b854 	andeq	fp, r2, r4, asr r8
     a68:	0002c400 	andeq	ip, r2, r0, lsl #8
     a6c:	74000300 	strvc	r0, [r0], #-768	; 0x300
     a70:	02c49f01 	sbceq	r9, r4, #1, 30
     a74:	04980000 	ldreq	r0, [r8], #0
     a78:	00010000 	andeq	r0, r1, r0
     a7c:	00049854 	andeq	r9, r4, r4, asr r8
     a80:	0004a400 	andeq	sl, r4, r0, lsl #8
     a84:	74000300 	strvc	r0, [r0], #-768	; 0x300
     a88:	04a49f01 	strteq	r9, [r4], #3841	; 0xf01
     a8c:	04d00000 	ldrbeq	r0, [r0], #0
     a90:	00010000 	andeq	r0, r1, r0
     a94:	0004d054 	andeq	sp, r4, r4, asr r0
     a98:	0004dc00 	andeq	sp, r4, r0, lsl #24
     a9c:	50000100 	andpl	r0, r0, r0, lsl #2
     aa0:	000004dc 	ldrdeq	r0, [r0], -ip
     aa4:	000004e4 	andeq	r0, r0, r4, ror #9
     aa8:	01740003 	cmneq	r4, r3
     aac:	0000009f 	muleq	r0, pc, r0	; <UNPREDICTABLE>
     ab0:	00000000 	andeq	r0, r0, r0
     ab4:	00028800 	andeq	r8, r2, r0, lsl #16
     ab8:	0004e400 	andeq	lr, r4, r0, lsl #8
     abc:	58000100 	stmdapl	r0, {r8}
     ac0:	000004e4 	andeq	r0, r0, r4, ror #9
     ac4:	000004f8 	strdeq	r0, [r0], -r8
     ac8:	01f3000a 	mvnseq	r0, sl
     acc:	5001f351 	andpl	pc, r1, r1, asr r3	; <UNPREDICTABLE>
     ad0:	9f1c3122 	svcls	0x001c3122
	...
     adc:	000003cc 	andeq	r0, r0, ip, asr #7
     ae0:	000003d0 	ldrdeq	r0, [r0], -r0	; <UNPREDICTABLE>
     ae4:	f0500001 			; <UNDEFINED> instruction: 0xf0500001
     ae8:	f4000003 	vst4.8	{d0-d3}, [r0], r3
     aec:	01000003 	tsteq	r0, r3
     af0:	04145000 	ldreq	r5, [r4], #-0
     af4:	04180000 	ldreq	r0, [r8], #-0
     af8:	00010000 	andeq	r0, r1, r0
     afc:	00043850 	andeq	r3, r4, r0, asr r8
     b00:	00043c00 	andeq	r3, r4, r0, lsl #24
     b04:	50000100 	andpl	r0, r0, r0, lsl #2
     b08:	00000444 	andeq	r0, r0, r4, asr #8
     b0c:	00000448 	andeq	r0, r0, r8, asr #8
     b10:	68500001 	ldmdavs	r0, {r0}^
     b14:	6c000004 	stcvs	0, cr0, [r0], {4}
     b18:	01000004 	tsteq	r0, r4
     b1c:	04905000 	ldreq	r5, [r0], #0
     b20:	04b80000 	ldrteq	r0, [r8], #0
     b24:	00010000 	andeq	r0, r1, r0
     b28:	00000050 	andeq	r0, r0, r0, asr r0
     b2c:	00000000 	andeq	r0, r0, r0
     b30:	0002cc00 	andeq	ip, r2, r0, lsl #24
     b34:	0002d400 	andeq	sp, r2, r0, lsl #8
     b38:	30000200 	andcc	r0, r0, r0, lsl #4
     b3c:	0002d49f 	muleq	r2, pc, r4	; <UNPREDICTABLE>
     b40:	0002d800 	andeq	sp, r2, r0, lsl #16
     b44:	57000100 	strpl	r0, [r0, -r0, lsl #2]
     b48:	000002e4 	andeq	r0, r0, r4, ror #5
     b4c:	000004b8 			; <UNDEFINED> instruction: 0x000004b8
     b50:	00570001 	subseq	r0, r7, r1
	...
     b5c:	0c000000 	stceq	0, cr0, [r0], {-0}
     b60:	01000000 	mrseq	r0, (UNDEF: 0)
     b64:	000c5000 	andeq	r5, ip, r0
     b68:	00200000 	eoreq	r0, r0, r0
     b6c:	00010000 	andeq	r0, r1, r0
     b70:	00000054 	andeq	r0, r0, r4, asr r0
     b74:	00000000 	andeq	r0, r0, r0
     b78:	00003400 	andeq	r3, r0, r0, lsl #8
     b7c:	00003c00 	andeq	r3, r0, r0, lsl #24
     b80:	73000300 	movwvc	r0, #768	; 0x300
     b84:	003c9f04 	eorseq	r9, ip, r4, lsl #30
     b88:	00470000 	subeq	r0, r7, r0
     b8c:	00010000 	andeq	r0, r1, r0
     b90:	00000053 	andeq	r0, r0, r3, asr r0
     b94:	00000000 	andeq	r0, r0, r0
     b98:	00004800 	andeq	r4, r0, r0, lsl #16
     b9c:	00007400 	andeq	r7, r0, r0, lsl #8
     ba0:	50000100 	andpl	r0, r0, r0, lsl #2
     ba4:	00000074 	andeq	r0, r0, r4, ror r0
     ba8:	00000083 	andeq	r0, r0, r3, lsl #1
     bac:	78730003 	ldmdavc	r3!, {r0, r1}^
     bb0:	0000009f 	muleq	r0, pc, r0	; <UNPREDICTABLE>
     bb4:	00000000 	andeq	r0, r0, r0
     bb8:	008cf000 	addeq	pc, ip, r0
     bbc:	008cf400 	addeq	pc, ip, r0, lsl #8
     bc0:	30000200 	andcc	r0, r0, r0, lsl #4
     bc4:	008cf49f 	umulleq	pc, ip, pc, r4	; <UNPREDICTABLE>
     bc8:	008cf800 	addeq	pc, ip, r0, lsl #16
     bcc:	50000100 	andpl	r0, r0, r0, lsl #2
	...
     bd8:	00008d08 	andeq	r8, r0, r8, lsl #26
     bdc:	00008d0c 	andeq	r8, r0, ip, lsl #26
     be0:	9f300002 	svcls	0x00300002
     be4:	00008d0c 	andeq	r8, r0, ip, lsl #26
     be8:	00008d10 	andeq	r8, r0, r0, lsl sp
     bec:	14530001 	ldrbne	r0, [r3], #-1
     bf0:	1c00008d 	stcne	0, cr0, [r0], {141}	; 0x8d
     bf4:	0100008d 	smlabbeq	r0, sp, r0, r0
     bf8:	00005300 	andeq	r5, r0, r0, lsl #6
	...
     c04:	00040000 	andeq	r0, r4, r0
     c08:	00010000 	andeq	r0, r1, r0
     c0c:	00000450 	andeq	r0, r0, r0, asr r4
     c10:	00000c00 	andeq	r0, r0, r0, lsl #24
     c14:	53000100 	movwpl	r0, #256	; 0x100
     c18:	0000000c 	andeq	r0, r0, ip
     c1c:	00000010 	andeq	r0, r0, r0, lsl r0
     c20:	10500001 	subsne	r0, r0, r1
     c24:	1c000000 	stcne	0, cr0, [r0], {-0}
     c28:	01000000 	mrseq	r0, (UNDEF: 0)
     c2c:	00005300 	andeq	r5, r0, r0, lsl #6
     c30:	00000000 	andeq	r0, r0, r0
     c34:	003c0000 	eorseq	r0, ip, r0
     c38:	00470000 	subeq	r0, r7, r0
     c3c:	00010000 	andeq	r0, r1, r0
     c40:	00004750 	andeq	r4, r0, r0, asr r7
     c44:	00006000 	andeq	r6, r0, r0
     c48:	55000100 	strpl	r0, [r0, #-256]	; 0x100
	...
     c54:	00000050 	andeq	r0, r0, r0, asr r0
     c58:	00000054 	andeq	r0, r0, r4, asr r0
     c5c:	00500001 	subseq	r0, r0, r1
     c60:	00000000 	andeq	r0, r0, r0
     c64:	60000000 	andvs	r0, r0, r0
     c68:	6c000000 	stcvs	0, cr0, [r0], {-0}
     c6c:	01000000 	mrseq	r0, (UNDEF: 0)
     c70:	006c5000 	rsbeq	r5, ip, r0
     c74:	00740000 	rsbseq	r0, r4, r0
     c78:	00040000 	andeq	r0, r4, r0
     c7c:	9f5001f3 	svcls	0x005001f3
	...
     c88:	00000074 	andeq	r0, r0, r4, ror r0
     c8c:	00000080 	andeq	r0, r0, r0, lsl #1
     c90:	80500001 	subshi	r0, r0, r1
     c94:	88000000 	stmdahi	r0, {}	; <UNPREDICTABLE>
     c98:	04000000 	streq	r0, [r0], #-0
     c9c:	5001f300 	andpl	pc, r1, r0, lsl #6
     ca0:	0000009f 	muleq	r0, pc, r0	; <UNPREDICTABLE>
	...
     cac:	00009000 	andeq	r9, r0, r0
     cb0:	50000100 	andpl	r0, r0, r0, lsl #2
     cb4:	00000090 	muleq	r0, r0, r0
     cb8:	000000d4 	ldrdeq	r0, [r0], -r4
     cbc:	00540001 	subseq	r0, r4, r1
     cc0:	00000000 	andeq	r0, r0, r0
     cc4:	48000000 	stmdami	r0, {}	; <UNPREDICTABLE>
     cc8:	4c000000 	stcmi	0, cr0, [r0], {-0}
     ccc:	01000000 	mrseq	r0, (UNDEF: 0)
     cd0:	00545500 	subseq	r5, r4, r0, lsl #10
     cd4:	00580000 	subseq	r0, r8, r0
     cd8:	00010000 	andeq	r0, r1, r0
     cdc:	00006055 	andeq	r6, r0, r5, asr r0
     ce0:	00006400 	andeq	r6, r0, r0, lsl #8
     ce4:	55000100 	strpl	r0, [r0, #-256]	; 0x100
     ce8:	0000006c 	andeq	r0, r0, ip, rrx
     cec:	00000070 	andeq	r0, r0, r0, ror r0
     cf0:	78550001 	ldmdavc	r5, {r0}^
     cf4:	7c000000 	stcvc	0, cr0, [r0], {-0}
     cf8:	01000000 	mrseq	r0, (UNDEF: 0)
     cfc:	00845500 	addeq	r5, r4, r0, lsl #10
     d00:	00880000 	addeq	r0, r8, r0
     d04:	00010000 	andeq	r0, r1, r0
     d08:	00008c55 	andeq	r8, r0, r5, asr ip
     d0c:	0000d400 	andeq	sp, r0, r0, lsl #8
     d10:	55000100 	strpl	r0, [r0, #-256]	; 0x100
	...
     d1c:	0000001c 	andeq	r0, r0, ip, lsl r0
     d20:	00000044 	andeq	r0, r0, r4, asr #32
     d24:	44530001 	ldrbmi	r0, [r3], #-1
     d28:	4c000000 	stcmi	0, cr0, [r0], {-0}
     d2c:	1c000000 	stcne	0, cr0, [r0], {-0}
     d30:	f7007000 			; <UNDEFINED> instruction: 0xf7007000
     d34:	f425f72c 	vld1.8	{d15}, [r5 :128], ip
     d38:	cccd0825 	stclgt	8, cr0, [sp], {37}	; 0x25
     d3c:	0000cccc 	andeq	ip, r0, ip, asr #25
     d40:	081e0000 	ldmdaeq	lr, {}	; <UNPREDICTABLE>
     d44:	2525f720 	strcs	pc, [r5, #-1824]!	; 0x720
     d48:	25332cf7 	ldrcs	r2, [r3, #-3319]!	; 0xcf7
     d4c:	00004c9f 	muleq	r0, pc, ip	; <UNPREDICTABLE>
     d50:	00005000 	andeq	r5, r0, r0
     d54:	53000100 	movwpl	r0, #256	; 0x100
     d58:	00000050 	andeq	r0, r0, r0, asr r0
     d5c:	00000058 	andeq	r0, r0, r8, asr r0
     d60:	0070001c 	rsbseq	r0, r0, ip, lsl r0
     d64:	25f72cf7 	ldrbcs	r2, [r7, #3319]!	; 0xcf7
     d68:	cd0825f4 	cfstr32gt	mvfx2, [r8, #-976]	; 0xfffffc30
     d6c:	00cccccc 	sbceq	ip, ip, ip, asr #25
     d70:	1e000000 	cdpne	0, 0, cr0, cr0, cr0, {0}
     d74:	25f72008 	ldrbcs	r2, [r7, #8]!
     d78:	332cf725 	msrcc	CPSR_fs, #9699328	; 0x940000
     d7c:	00589f25 	subseq	r9, r8, r5, lsr #30
     d80:	005c0000 	subseq	r0, ip, r0
     d84:	00010000 	andeq	r0, r1, r0
     d88:	00005c53 	andeq	r5, r0, r3, asr ip
     d8c:	00006400 	andeq	r6, r0, r0, lsl #8
     d90:	70001c00 	andvc	r1, r0, r0, lsl #24
     d94:	f72cf700 			; <UNDEFINED> instruction: 0xf72cf700
     d98:	0825f425 	stmdaeq	r5!, {r0, r2, r5, sl, ip, sp, lr, pc}
     d9c:	cccccccd 	stclgt	12, cr12, [ip], {205}	; 0xcd
     da0:	00000000 	andeq	r0, r0, r0
     da4:	f720081e 			; <UNDEFINED> instruction: 0xf720081e
     da8:	2cf72525 	cfldr64cs	mvdx2, [r7], #148	; 0x94
     dac:	649f2533 	ldrvs	r2, [pc], #1331	; db4 <_start-0x724c>
     db0:	68000000 	stmdavs	r0, {}	; <UNPREDICTABLE>
     db4:	01000000 	mrseq	r0, (UNDEF: 0)
     db8:	00685300 	rsbeq	r5, r8, r0, lsl #6
     dbc:	00700000 	rsbseq	r0, r0, r0
     dc0:	001c0000 	andseq	r0, ip, r0
     dc4:	2cf70070 	ldclcs	0, cr0, [r7], #448	; 0x1c0
     dc8:	25f425f7 	ldrbcs	r2, [r4, #1527]!	; 0x5f7
     dcc:	cccccd08 	stclgt	13, cr12, [ip], {8}
     dd0:	000000cc 	andeq	r0, r0, ip, asr #1
     dd4:	20081e00 	andcs	r1, r8, r0, lsl #28
     dd8:	f72525f7 			; <UNDEFINED> instruction: 0xf72525f7
     ddc:	9f25332c 	svcls	0x0025332c
     de0:	00000070 	andeq	r0, r0, r0, ror r0
     de4:	00000074 	andeq	r0, r0, r4, ror r0
     de8:	74530001 	ldrbvc	r0, [r3], #-1
     dec:	7c000000 	stcvc	0, cr0, [r0], {-0}
     df0:	1c000000 	stcne	0, cr0, [r0], {-0}
     df4:	f7007000 			; <UNDEFINED> instruction: 0xf7007000
     df8:	f425f72c 	vld1.8	{d15}, [r5 :128], ip
     dfc:	cccd0825 	stclgt	8, cr0, [sp], {37}	; 0x25
     e00:	0000cccc 	andeq	ip, r0, ip, asr #25
     e04:	081e0000 	ldmdaeq	lr, {}	; <UNPREDICTABLE>
     e08:	2525f720 	strcs	pc, [r5, #-1824]!	; 0x720
     e0c:	25332cf7 	ldrcs	r2, [r3, #-3319]!	; 0xcf7
     e10:	00007c9f 	muleq	r0, pc, ip	; <UNPREDICTABLE>
     e14:	00008000 	andeq	r8, r0, r0
     e18:	53000100 	movwpl	r0, #256	; 0x100
     e1c:	00000080 	andeq	r0, r0, r0, lsl #1
     e20:	00000088 	andeq	r0, r0, r8, lsl #1
     e24:	0070001c 	rsbseq	r0, r0, ip, lsl r0
     e28:	25f72cf7 	ldrbcs	r2, [r7, #3319]!	; 0xcf7
     e2c:	cd0825f4 	cfstr32gt	mvfx2, [r8, #-976]	; 0xfffffc30
     e30:	00cccccc 	sbceq	ip, ip, ip, asr #25
     e34:	1e000000 	cdpne	0, 0, cr0, cr0, cr0, {0}
     e38:	25f72008 	ldrbcs	r2, [r7, #8]!
     e3c:	332cf725 	msrcc	CPSR_fs, #9699328	; 0x940000
     e40:	00889f25 	addeq	r9, r8, r5, lsr #30
     e44:	008c0000 	addeq	r0, ip, r0
     e48:	00010000 	andeq	r0, r1, r0
     e4c:	00008c53 	andeq	r8, r0, r3, asr ip
     e50:	00009000 	andeq	r9, r0, r0
     e54:	70001c00 	andvc	r1, r0, r0, lsl #24
     e58:	f72cf700 			; <UNDEFINED> instruction: 0xf72cf700
     e5c:	0825f425 	stmdaeq	r5!, {r0, r2, r5, sl, ip, sp, lr, pc}
     e60:	cccccccd 	stclgt	12, cr12, [ip], {205}	; 0xcd
     e64:	00000000 	andeq	r0, r0, r0
     e68:	f720081e 			; <UNDEFINED> instruction: 0xf720081e
     e6c:	2cf72525 	cfldr64cs	mvdx2, [r7], #148	; 0x94
     e70:	909f2533 	addsls	r2, pc, r3, lsr r5	; <UNPREDICTABLE>
     e74:	98000000 	stmdals	r0, {}	; <UNPREDICTABLE>
     e78:	1c000000 	stcne	0, cr0, [r0], {-0}
     e7c:	f7007400 			; <UNDEFINED> instruction: 0xf7007400
     e80:	f425f72c 	vld1.8	{d15}, [r5 :128], ip
     e84:	cccd0825 	stclgt	8, cr0, [sp], {37}	; 0x25
     e88:	0000cccc 	andeq	ip, r0, ip, asr #25
     e8c:	081e0000 	ldmdaeq	lr, {}	; <UNPREDICTABLE>
     e90:	2525f720 	strcs	pc, [r5, #-1824]!	; 0x720
     e94:	25332cf7 	ldrcs	r2, [r3, #-3319]!	; 0xcf7
     e98:	0000989f 	muleq	r0, pc, r8	; <UNPREDICTABLE>
     e9c:	00009c00 	andeq	r9, r0, r0, lsl #24
     ea0:	74001700 	strvc	r1, [r0], #-1792	; 0x700
     ea4:	f72cf700 			; <UNDEFINED> instruction: 0xf72cf700
     ea8:	f7007125 			; <UNDEFINED> instruction: 0xf7007125
     eac:	1e25f72c 	cdpne	7, 2, cr15, cr5, cr12, {1}
     eb0:	25f72008 	ldrbcs	r2, [r7, #8]!
     eb4:	332cf725 	msrcc	CPSR_fs, #9699328	; 0x940000
     eb8:	009c9f25 	addseq	r9, ip, r5, lsr #30
     ebc:	00d40000 	sbcseq	r0, r4, r0
     ec0:	001c0000 	andseq	r0, ip, r0
     ec4:	2cf70074 	ldclcs	0, cr0, [r7], #464	; 0x1d0
     ec8:	25f425f7 	ldrbcs	r2, [r4, #1527]!	; 0x5f7
     ecc:	cccccd08 	stclgt	13, cr12, [ip], {8}
     ed0:	000000cc 	andeq	r0, r0, ip, asr #1
     ed4:	20081e00 	andcs	r1, r8, r0, lsl #28
     ed8:	f72525f7 			; <UNDEFINED> instruction: 0xf72525f7
     edc:	9f25332c 	svcls	0x0025332c
	...
     ee8:	00000094 	muleq	r0, r4, r0
     eec:	000000b8 	strheq	r0, [r0], -r8
     ef0:	b8500001 	ldmdalt	r0, {r0}^
     ef4:	c4000000 	strgt	r0, [r0], #-0
     ef8:	08000000 	stmdaeq	r0, {}	; <UNPREDICTABLE>
     efc:	00713100 	rsbseq	r3, r1, r0, lsl #2
     f00:	21007324 	tstcs	r0, r4, lsr #6
     f04:	0000c49f 	muleq	r0, pc, r4	; <UNPREDICTABLE>
     f08:	0000c700 	andeq	ip, r0, r0, lsl #14
     f0c:	51000100 	mrspl	r0, (UNDEF: 16)
	...
     f18:	000000d4 	ldrdeq	r0, [r0], -r4
     f1c:	000000f8 	strdeq	r0, [r0], -r8
     f20:	f8500001 			; <UNDEFINED> instruction: 0xf8500001
     f24:	0c000000 	stceq	0, cr0, [r0], {-0}
     f28:	04000001 	streq	r0, [r0], #-1
     f2c:	5001f300 	andpl	pc, r1, r0, lsl #6
     f30:	0000009f 	muleq	r0, pc, r0	; <UNPREDICTABLE>
     f34:	00000000 	andeq	r0, r0, r0
     f38:	0000e000 	andeq	lr, r0, r0
     f3c:	0000e800 	andeq	lr, r0, r0, lsl #16
     f40:	30000200 	andcc	r0, r0, r0, lsl #4
     f44:	0000e89f 	muleq	r0, pc, r8	; <UNPREDICTABLE>
     f48:	0000e800 	andeq	lr, r0, r0, lsl #16
     f4c:	52000100 	andpl	r0, r0, #0, 2
     f50:	000000e8 	andeq	r0, r0, r8, ror #1
     f54:	000000f0 	strdeq	r0, [r0], -r0	; <UNPREDICTABLE>
     f58:	9f300002 	svcls	0x00300002
     f5c:	000000f0 	strdeq	r0, [r0], -r0	; <UNPREDICTABLE>
     f60:	00000103 	andeq	r0, r0, r3, lsl #2
     f64:	00520001 	subseq	r0, r2, r1
     f68:	00000000 	andeq	r0, r0, r0
     f6c:	e0000000 	and	r0, r0, r0
     f70:	f4000000 	vst4.8	{d0-d3}, [r0], r0
     f74:	02000000 	andeq	r0, r0, #0
     f78:	f49f3000 			; <UNDEFINED> instruction: 0xf49f3000
     f7c:	00000000 	andeq	r0, r0, r0
     f80:	05000001 	streq	r0, [r0, #-1]
     f84:	00733100 	rsbseq	r3, r3, r0, lsl #2
     f88:	01009f24 	tsteq	r0, r4, lsr #30
     f8c:	01030000 	mrseq	r0, (UNDEF: 3)
     f90:	00010000 	andeq	r0, r1, r0
     f94:	00010351 	andeq	r0, r1, r1, asr r3
     f98:	00010c00 	andeq	r0, r1, r0, lsl #24
     f9c:	31000800 	tstcc	r0, r0, lsl #16
     fa0:	4f5001f3 	svcmi	0x005001f3
     fa4:	009f241a 	addseq	r2, pc, sl, lsl r4	; <UNPREDICTABLE>
     fa8:	00000000 	andeq	r0, r0, r0
     fac:	0c000000 	stceq	0, cr0, [r0], {-0}
     fb0:	30000001 	andcc	r0, r0, r1
     fb4:	01000001 	tsteq	r0, r1
     fb8:	01305000 	teqeq	r0, r0
     fbc:	01440000 	mrseq	r0, (UNDEF: 68)
     fc0:	00040000 	andeq	r0, r4, r0
     fc4:	9f5001f3 	svcls	0x005001f3
	...
     fd0:	00000118 	andeq	r0, r0, r8, lsl r1
     fd4:	00000120 	andeq	r0, r0, r0, lsr #2
     fd8:	9f300002 	svcls	0x00300002
     fdc:	00000120 	andeq	r0, r0, r0, lsr #2
     fe0:	00000120 	andeq	r0, r0, r0, lsr #2
     fe4:	20520001 	subscs	r0, r2, r1
     fe8:	28000001 	stmdacs	r0, {r0}
     fec:	02000001 	andeq	r0, r0, #1
     ff0:	289f3000 	ldmcs	pc, {ip, sp}	; <UNPREDICTABLE>
     ff4:	3b000001 	blcc	1000 <_start-0x7000>
     ff8:	01000001 	tsteq	r0, r1
     ffc:	00005200 	andeq	r5, r0, r0, lsl #4
    1000:	00000000 	andeq	r0, r0, r0
    1004:	01180000 	tsteq	r8, r0
    1008:	012c0000 	teqeq	ip, r0
    100c:	00020000 	andeq	r0, r2, r0
    1010:	012c9f30 	teqeq	ip, r0, lsr pc
    1014:	01380000 	teqeq	r8, r0
    1018:	00050000 	andeq	r0, r5, r0
    101c:	24007331 	strcs	r7, [r0], #-817	; 0x331
    1020:	0001389f 	muleq	r1, pc, r8	; <UNPREDICTABLE>
    1024:	00013b00 	andeq	r3, r1, r0, lsl #22
    1028:	51000100 	mrspl	r0, (UNDEF: 16)
    102c:	0000013b 	andeq	r0, r0, fp, lsr r1
    1030:	00000144 	andeq	r0, r0, r4, asr #2
    1034:	f3310008 	vhadd.u<illegal width 64>	d0, d1, d8
    1038:	1a4f5001 	bne	13d5044 <__bss_end__+0x13c67d4>
    103c:	00009f24 	andeq	r9, r0, r4, lsr #30
    1040:	00000000 	andeq	r0, r0, r0
    1044:	01440000 	mrseq	r0, (UNDEF: 68)
    1048:	01d40000 	bicseq	r0, r4, r0
    104c:	00010000 	andeq	r0, r1, r0
    1050:	0001d450 	andeq	sp, r1, r0, asr r4
    1054:	00021000 	andeq	r1, r2, r0
    1058:	54000100 	strpl	r0, [r0], #-256	; 0x100
	...
    1064:	0000018c 	andeq	r0, r0, ip, lsl #3
    1068:	00000190 	muleq	r0, r0, r1
    106c:	98550001 	ldmdals	r5, {r0}^
    1070:	9c000001 	stcls	0, cr0, [r0], {1}
    1074:	01000001 	tsteq	r0, r1
    1078:	01a45500 			; <UNDEFINED> instruction: 0x01a45500
    107c:	01a80000 			; <UNDEFINED> instruction: 0x01a80000
    1080:	00010000 	andeq	r0, r1, r0
    1084:	0001b055 	andeq	fp, r1, r5, asr r0
    1088:	0001b400 	andeq	fp, r1, r0, lsl #8
    108c:	55000100 	strpl	r0, [r0, #-256]	; 0x100
    1090:	000001bc 			; <UNDEFINED> instruction: 0x000001bc
    1094:	000001c0 	andeq	r0, r0, r0, asr #3
    1098:	c8550001 	ldmdagt	r5, {r0}^
    109c:	cc000001 	stcgt	0, cr0, [r0], {1}
    10a0:	01000001 	tsteq	r0, r1
    10a4:	01d05500 	bicseq	r5, r0, r0, lsl #10
    10a8:	02100000 	andseq	r0, r0, #0
    10ac:	00010000 	andeq	r0, r1, r0
    10b0:	00000055 	andeq	r0, r0, r5, asr r0
    10b4:	00000000 	andeq	r0, r0, r0
    10b8:	00016000 	andeq	r6, r1, r0
    10bc:	00018800 	andeq	r8, r1, r0, lsl #16
    10c0:	53000100 	movwpl	r0, #256	; 0x100
    10c4:	00000188 	andeq	r0, r0, r8, lsl #3
    10c8:	00000190 	muleq	r0, r0, r1
    10cc:	0070001c 	rsbseq	r0, r0, ip, lsl r0
    10d0:	25f72cf7 	ldrbcs	r2, [r7, #3319]!	; 0xcf7
    10d4:	cd0825f4 	cfstr32gt	mvfx2, [r8, #-976]	; 0xfffffc30
    10d8:	00cccccc 	sbceq	ip, ip, ip, asr #25
    10dc:	1e000000 	cdpne	0, 0, cr0, cr0, cr0, {0}
    10e0:	25f72008 	ldrbcs	r2, [r7, #8]!
    10e4:	332cf725 	msrcc	CPSR_fs, #9699328	; 0x940000
    10e8:	01909f25 	orrseq	r9, r0, r5, lsr #30
    10ec:	01940000 	orrseq	r0, r4, r0
    10f0:	00010000 	andeq	r0, r1, r0
    10f4:	00019453 	andeq	r9, r1, r3, asr r4
    10f8:	00019c00 	andeq	r9, r1, r0, lsl #24
    10fc:	70001c00 	andvc	r1, r0, r0, lsl #24
    1100:	f72cf700 			; <UNDEFINED> instruction: 0xf72cf700
    1104:	0825f425 	stmdaeq	r5!, {r0, r2, r5, sl, ip, sp, lr, pc}
    1108:	cccccccd 	stclgt	12, cr12, [ip], {205}	; 0xcd
    110c:	00000000 	andeq	r0, r0, r0
    1110:	f720081e 			; <UNDEFINED> instruction: 0xf720081e
    1114:	2cf72525 	cfldr64cs	mvdx2, [r7], #148	; 0x94
    1118:	9c9f2533 	cfldr32ls	mvfx2, [pc], {51}	; 0x33
    111c:	a0000001 	andge	r0, r0, r1
    1120:	01000001 	tsteq	r0, r1
    1124:	01a05300 	lsleq	r5, r0, #6
    1128:	01a80000 			; <UNDEFINED> instruction: 0x01a80000
    112c:	001c0000 	andseq	r0, ip, r0
    1130:	2cf70070 	ldclcs	0, cr0, [r7], #448	; 0x1c0
    1134:	25f425f7 	ldrbcs	r2, [r4, #1527]!	; 0x5f7
    1138:	cccccd08 	stclgt	13, cr12, [ip], {8}
    113c:	000000cc 	andeq	r0, r0, ip, asr #1
    1140:	20081e00 	andcs	r1, r8, r0, lsl #28
    1144:	f72525f7 			; <UNDEFINED> instruction: 0xf72525f7
    1148:	9f25332c 	svcls	0x0025332c
    114c:	000001a8 	andeq	r0, r0, r8, lsr #3
    1150:	000001ac 	andeq	r0, r0, ip, lsr #3
    1154:	ac530001 	mrrcge	0, 0, r0, r3, cr1
    1158:	b4000001 	strlt	r0, [r0], #-1
    115c:	1c000001 	stcne	0, cr0, [r0], {1}
    1160:	f7007000 			; <UNDEFINED> instruction: 0xf7007000
    1164:	f425f72c 	vld1.8	{d15}, [r5 :128], ip
    1168:	cccd0825 	stclgt	8, cr0, [sp], {37}	; 0x25
    116c:	0000cccc 	andeq	ip, r0, ip, asr #25
    1170:	081e0000 	ldmdaeq	lr, {}	; <UNPREDICTABLE>
    1174:	2525f720 	strcs	pc, [r5, #-1824]!	; 0x720
    1178:	25332cf7 	ldrcs	r2, [r3, #-3319]!	; 0xcf7
    117c:	0001b49f 	muleq	r1, pc, r4	; <UNPREDICTABLE>
    1180:	0001b800 	andeq	fp, r1, r0, lsl #16
    1184:	53000100 	movwpl	r0, #256	; 0x100
    1188:	000001b8 			; <UNDEFINED> instruction: 0x000001b8
    118c:	000001c0 	andeq	r0, r0, r0, asr #3
    1190:	0070001c 	rsbseq	r0, r0, ip, lsl r0
    1194:	25f72cf7 	ldrbcs	r2, [r7, #3319]!	; 0xcf7
    1198:	cd0825f4 	cfstr32gt	mvfx2, [r8, #-976]	; 0xfffffc30
    119c:	00cccccc 	sbceq	ip, ip, ip, asr #25
    11a0:	1e000000 	cdpne	0, 0, cr0, cr0, cr0, {0}
    11a4:	25f72008 	ldrbcs	r2, [r7, #8]!
    11a8:	332cf725 	msrcc	CPSR_fs, #9699328	; 0x940000
    11ac:	01c09f25 	biceq	r9, r0, r5, lsr #30
    11b0:	01c40000 	biceq	r0, r4, r0
    11b4:	00010000 	andeq	r0, r1, r0
    11b8:	0001c453 	andeq	ip, r1, r3, asr r4
    11bc:	0001cc00 	andeq	ip, r1, r0, lsl #24
    11c0:	70001c00 	andvc	r1, r0, r0, lsl #24
    11c4:	f72cf700 			; <UNDEFINED> instruction: 0xf72cf700
    11c8:	0825f425 	stmdaeq	r5!, {r0, r2, r5, sl, ip, sp, lr, pc}
    11cc:	cccccccd 	stclgt	12, cr12, [ip], {205}	; 0xcd
    11d0:	00000000 	andeq	r0, r0, r0
    11d4:	f720081e 			; <UNDEFINED> instruction: 0xf720081e
    11d8:	2cf72525 	cfldr64cs	mvdx2, [r7], #148	; 0x94
    11dc:	cc9f2533 	cfldr32gt	mvfx2, [pc], {51}	; 0x33
    11e0:	d0000001 	andle	r0, r0, r1
    11e4:	01000001 	tsteq	r0, r1
    11e8:	01d05300 	bicseq	r5, r0, r0, lsl #6
    11ec:	01d40000 	bicseq	r0, r4, r0
    11f0:	001c0000 	andseq	r0, ip, r0
    11f4:	2cf70070 	ldclcs	0, cr0, [r7], #448	; 0x1c0
    11f8:	25f425f7 	ldrbcs	r2, [r4, #1527]!	; 0x5f7
    11fc:	cccccd08 	stclgt	13, cr12, [ip], {8}
    1200:	000000cc 	andeq	r0, r0, ip, asr #1
    1204:	20081e00 	andcs	r1, r8, r0, lsl #28
    1208:	f72525f7 			; <UNDEFINED> instruction: 0xf72525f7
    120c:	9f25332c 	svcls	0x0025332c
    1210:	000001d4 	ldrdeq	r0, [r0], -r4
    1214:	000001dc 	ldrdeq	r0, [r0], -ip
    1218:	0074001c 	rsbseq	r0, r4, ip, lsl r0
    121c:	25f72cf7 	ldrbcs	r2, [r7, #3319]!	; 0xcf7
    1220:	cd0825f4 	cfstr32gt	mvfx2, [r8, #-976]	; 0xfffffc30
    1224:	00cccccc 	sbceq	ip, ip, ip, asr #25
    1228:	1e000000 	cdpne	0, 0, cr0, cr0, cr0, {0}
    122c:	25f72008 	ldrbcs	r2, [r7, #8]!
    1230:	332cf725 	msrcc	CPSR_fs, #9699328	; 0x940000
    1234:	01dc9f25 	bicseq	r9, ip, r5, lsr #30
    1238:	01e00000 	mvneq	r0, r0
    123c:	00170000 	andseq	r0, r7, r0
    1240:	2cf70074 	ldclcs	0, cr0, [r7], #464	; 0x1d0
    1244:	007125f7 	ldrshteq	r2, [r1], #-87	; 0xffffffa9
    1248:	25f72cf7 	ldrbcs	r2, [r7, #3319]!	; 0xcf7
    124c:	f720081e 			; <UNDEFINED> instruction: 0xf720081e
    1250:	2cf72525 	cfldr64cs	mvdx2, [r7], #148	; 0x94
    1254:	e09f2533 	adds	r2, pc, r3, lsr r5	; <UNPREDICTABLE>
    1258:	10000001 	andne	r0, r0, r1
    125c:	1c000002 	stcne	0, cr0, [r0], {2}
    1260:	f7007400 			; <UNDEFINED> instruction: 0xf7007400
    1264:	f425f72c 	vld1.8	{d15}, [r5 :128], ip
    1268:	cccd0825 	stclgt	8, cr0, [sp], {37}	; 0x25
    126c:	0000cccc 	andeq	ip, r0, ip, asr #25
    1270:	081e0000 	ldmdaeq	lr, {}	; <UNPREDICTABLE>
    1274:	2525f720 	strcs	pc, [r5, #-1824]!	; 0x720
    1278:	25332cf7 	ldrcs	r2, [r3, #-3319]!	; 0xcf7
    127c:	0000009f 	muleq	r0, pc, r0	; <UNPREDICTABLE>
    1280:	00000000 	andeq	r0, r0, r0
    1284:	0001d800 	andeq	sp, r1, r0, lsl #16
    1288:	0001fc00 	andeq	pc, r1, r0, lsl #24
    128c:	50000100 	andpl	r0, r0, r0, lsl #2
    1290:	000001fc 	strdeq	r0, [r0], -ip
    1294:	00000203 	andeq	r0, r0, r3, lsl #4
    1298:	00510001 	subseq	r0, r1, r1
    129c:	00000000 	andeq	r0, r0, r0
    12a0:	10000000 	andne	r0, r0, r0
    12a4:	2c000002 	stccs	0, cr0, [r0], {2}
    12a8:	01000002 	tsteq	r0, r2
    12ac:	022c5000 	eoreq	r5, ip, #0
    12b0:	02340000 	eorseq	r0, r4, #0
    12b4:	00010000 	andeq	r0, r1, r0
    12b8:	00023454 	andeq	r3, r2, r4, asr r4
    12bc:	00023c00 	andeq	r3, r2, r0, lsl #24
    12c0:	50000100 	andpl	r0, r0, r0, lsl #2
    12c4:	0000023c 	andeq	r0, r0, ip, lsr r2
    12c8:	00000244 	andeq	r0, r0, r4, asr #4
    12cc:	44540001 	ldrbmi	r0, [r4], #-1
    12d0:	50000002 	andpl	r0, r0, r2
    12d4:	04000002 	streq	r0, [r0], #-2
    12d8:	5001f300 	andpl	pc, r1, r0, lsl #6
    12dc:	0002509f 	muleq	r2, pc, r0	; <UNPREDICTABLE>
    12e0:	00025400 	andeq	r5, r2, r0, lsl #8
    12e4:	50000100 	andpl	r0, r0, r0, lsl #2
    12e8:	00000254 	andeq	r0, r0, r4, asr r2
    12ec:	0000025c 	andeq	r0, r0, ip, asr r2
    12f0:	00540001 	subseq	r0, r4, r1
    12f4:	00000000 	andeq	r0, r0, r0
    12f8:	20000000 	andcs	r0, r0, r0
    12fc:	30000002 	andcc	r0, r0, r2
    1300:	02000002 	andeq	r0, r0, #2
    1304:	309f3000 	addscc	r3, pc, r0
    1308:	34000002 	strcc	r0, [r0], #-2
    130c:	01000002 	tsteq	r0, r2
    1310:	02345000 	eorseq	r5, r4, #0
    1314:	02400000 	subeq	r0, r0, #0
    1318:	00020000 	andeq	r0, r2, r0
    131c:	02409f30 	subeq	r9, r0, #48, 30	; 0xc0
    1320:	024c0000 	subeq	r0, ip, #0
    1324:	00010000 	andeq	r0, r1, r0
    1328:	00000050 	andeq	r0, r0, r0, asr r0
    132c:	00000000 	andeq	r0, r0, r0
    1330:	00025c00 	andeq	r5, r2, r0, lsl #24
    1334:	00029000 	andeq	r9, r2, r0
    1338:	50000100 	andpl	r0, r0, r0, lsl #2
    133c:	00000290 	muleq	r0, r0, r2
    1340:	000002a0 	andeq	r0, r0, r0, lsr #5
    1344:	01f30004 	mvnseq	r0, r4
    1348:	02a09f50 	adceq	r9, r0, #80, 30	; 0x140
    134c:	02c00000 	sbceq	r0, r0, #0
    1350:	00010000 	andeq	r0, r1, r0
    1354:	0002c050 	andeq	ip, r2, r0, asr r0
    1358:	0002d400 	andeq	sp, r2, r0, lsl #8
    135c:	f3000400 	vshl.u8	d0, d0, d0
    1360:	009f5001 	addseq	r5, pc, r1
    1364:	00000000 	andeq	r0, r0, r0
    1368:	5c000000 	stcpl	0, cr0, [r0], {-0}
    136c:	94000002 	strls	r0, [r0], #-2
    1370:	01000002 	tsteq	r0, r2
    1374:	02945100 	addseq	r5, r4, #0, 2
    1378:	02a00000 	adceq	r0, r0, #0
    137c:	00040000 	andeq	r0, r4, r0
    1380:	9f5101f3 	svcls	0x005101f3
    1384:	000002a0 	andeq	r0, r0, r0, lsr #5
    1388:	000002c4 	andeq	r0, r0, r4, asr #5
    138c:	c4510001 	ldrbgt	r0, [r1], #-1
    1390:	d4000002 	strle	r0, [r0], #-2
    1394:	04000002 	streq	r0, [r0], #-2
    1398:	5101f300 	mrspl	pc, SP_irq	; <UNPREDICTABLE>
    139c:	0000009f 	muleq	r0, pc, r0	; <UNPREDICTABLE>
    13a0:	00000000 	andeq	r0, r0, r0
    13a4:	00027000 	andeq	r7, r2, r0
    13a8:	00029000 	andeq	r9, r2, r0
    13ac:	50000100 	andpl	r0, r0, r0, lsl #2
    13b0:	00000290 	muleq	r0, r0, r2
    13b4:	000002a0 	andeq	r0, r0, r0, lsr #5
    13b8:	01f30004 	mvnseq	r0, r4
    13bc:	00009f50 	andeq	r9, r0, r0, asr pc
    13c0:	00000000 	andeq	r0, r0, r0
    13c4:	02780000 	rsbseq	r0, r8, #0
    13c8:	02800000 	addeq	r0, r0, #0
    13cc:	00020000 	andeq	r0, r2, r0
    13d0:	02809f30 	addeq	r9, r0, #48, 30	; 0xc0
    13d4:	02800000 	addeq	r0, r0, #0
    13d8:	00010000 	andeq	r0, r1, r0
    13dc:	00028052 	andeq	r8, r2, r2, asr r0
    13e0:	00028800 	andeq	r8, r2, r0, lsl #16
    13e4:	30000200 	andcc	r0, r0, r0, lsl #4
    13e8:	0002889f 	muleq	r2, pc, r8	; <UNPREDICTABLE>
    13ec:	00029b00 	andeq	r9, r2, r0, lsl #22
    13f0:	52000100 	andpl	r0, r0, #0, 2
	...
    13fc:	00000278 	andeq	r0, r0, r8, ror r2
    1400:	0000028c 	andeq	r0, r0, ip, lsl #5
    1404:	9f300002 	svcls	0x00300002
    1408:	0000028c 	andeq	r0, r0, ip, lsl #5
    140c:	00000298 	muleq	r0, r8, r2
    1410:	73310005 	teqvc	r1, #5
    1414:	989f2400 	ldmls	pc, {sl, sp}	; <UNPREDICTABLE>
    1418:	9b000002 	blls	1428 <_start-0x6bd8>
    141c:	01000002 	tsteq	r0, r2
    1420:	029b5100 	addseq	r5, fp, #0, 2
    1424:	02a00000 	adceq	r0, r0, #0
    1428:	00080000 	andeq	r0, r8, r0
    142c:	5001f331 	andpl	pc, r1, r1, lsr r3	; <UNPREDICTABLE>
    1430:	9f241a4f 	svcls	0x00241a4f
	...
    143c:	000002a0 	andeq	r0, r0, r0, lsr #5
    1440:	000002c0 	andeq	r0, r0, r0, asr #5
    1444:	c0500001 	subsgt	r0, r0, r1
    1448:	d4000002 	strle	r0, [r0], #-2
    144c:	04000002 	streq	r0, [r0], #-2
    1450:	5001f300 	andpl	pc, r1, r0, lsl #6
    1454:	0000009f 	muleq	r0, pc, r0	; <UNPREDICTABLE>
    1458:	00000000 	andeq	r0, r0, r0
    145c:	0002a800 	andeq	sl, r2, r0, lsl #16
    1460:	0002b000 	andeq	fp, r2, r0
    1464:	30000200 	andcc	r0, r0, r0, lsl #4
    1468:	0002b09f 	muleq	r2, pc, r0	; <UNPREDICTABLE>
    146c:	0002b000 	andeq	fp, r2, r0
    1470:	52000100 	andpl	r0, r0, #0, 2
    1474:	000002b0 			; <UNDEFINED> instruction: 0x000002b0
    1478:	000002b8 			; <UNDEFINED> instruction: 0x000002b8
    147c:	9f300002 	svcls	0x00300002
    1480:	000002b8 			; <UNDEFINED> instruction: 0x000002b8
    1484:	000002cb 	andeq	r0, r0, fp, asr #5
    1488:	00520001 	subseq	r0, r2, r1
    148c:	00000000 	andeq	r0, r0, r0
    1490:	a8000000 	stmdage	r0, {}	; <UNPREDICTABLE>
    1494:	bc000002 	stclt	0, cr0, [r0], {2}
    1498:	02000002 	andeq	r0, r0, #2
    149c:	bc9f3000 	ldclt	0, cr3, [pc], {0}
    14a0:	c8000002 	stmdagt	r0, {r1}
    14a4:	05000002 	streq	r0, [r0, #-2]
    14a8:	00733100 	rsbseq	r3, r3, r0, lsl #2
    14ac:	02c89f24 	sbceq	r9, r8, #36, 30	; 0x90
    14b0:	02cb0000 	sbceq	r0, fp, #0
    14b4:	00010000 	andeq	r0, r1, r0
    14b8:	0002cb51 	andeq	ip, r2, r1, asr fp
    14bc:	0002d400 	andeq	sp, r2, r0, lsl #8
    14c0:	31000800 	tstcc	r0, r0, lsl #16
    14c4:	4f5001f3 	svcmi	0x005001f3
    14c8:	009f241a 	addseq	r2, pc, sl, lsl r4	; <UNPREDICTABLE>
    14cc:	00000000 	andeq	r0, r0, r0
    14d0:	d4000000 	strle	r0, [r0], #-0
    14d4:	6c000002 	stcvs	0, cr0, [r0], {2}
    14d8:	01000003 	tsteq	r0, r3
    14dc:	036c5000 	cmneq	ip, #0
    14e0:	03ac0000 			; <UNDEFINED> instruction: 0x03ac0000
    14e4:	00010000 	andeq	r0, r1, r0
    14e8:	00000054 	andeq	r0, r0, r4, asr r0
    14ec:	00000000 	andeq	r0, r0, r0
    14f0:	0002d400 	andeq	sp, r2, r0, lsl #8
    14f4:	00036f00 	andeq	r6, r3, r0, lsl #30
    14f8:	51000100 	mrspl	r0, (UNDEF: 16)
    14fc:	0000036f 	andeq	r0, r0, pc, ror #6
    1500:	000003ac 	andeq	r0, r0, ip, lsr #7
    1504:	01f30004 	mvnseq	r0, r4
    1508:	00009f51 	andeq	r9, r0, r1, asr pc
    150c:	00000000 	andeq	r0, r0, r0
    1510:	03240000 	teqeq	r4, #0
    1514:	03280000 	teqeq	r8, #0
    1518:	00010000 	andeq	r0, r1, r0
    151c:	00033056 	andeq	r3, r3, r6, asr r0
    1520:	00033400 	andeq	r3, r3, r0, lsl #8
    1524:	56000100 	strpl	r0, [r0], -r0, lsl #2
    1528:	0000033c 	andeq	r0, r0, ip, lsr r3
    152c:	00000340 	andeq	r0, r0, r0, asr #6
    1530:	48560001 	ldmdami	r6, {r0}^
    1534:	4c000003 	stcmi	0, cr0, [r0], {3}
    1538:	01000003 	tsteq	r0, r3
    153c:	03545600 	cmpeq	r4, #0, 12
    1540:	03580000 	cmpeq	r8, #0
    1544:	00010000 	andeq	r0, r1, r0
    1548:	00036056 	andeq	r6, r3, r6, asr r0
    154c:	00036400 	andeq	r6, r3, r0, lsl #8
    1550:	56000100 	strpl	r0, [r0], -r0, lsl #2
    1554:	00000368 	andeq	r0, r0, r8, ror #6
    1558:	000003ac 	andeq	r0, r0, ip, lsr #7
    155c:	00560001 	subseq	r0, r6, r1
    1560:	00000000 	andeq	r0, r0, r0
    1564:	f8000000 			; <UNDEFINED> instruction: 0xf8000000
    1568:	20000002 	andcs	r0, r0, r2
    156c:	01000003 	tsteq	r0, r3
    1570:	03205300 	teqeq	r0, #0, 6
    1574:	03280000 	teqeq	r8, #0
    1578:	001c0000 	andseq	r0, ip, r0
    157c:	2cf70070 	ldclcs	0, cr0, [r7], #448	; 0x1c0
    1580:	25f425f7 	ldrbcs	r2, [r4, #1527]!	; 0x5f7
    1584:	cccccd08 	stclgt	13, cr12, [ip], {8}
    1588:	000000cc 	andeq	r0, r0, ip, asr #1
    158c:	20081e00 	andcs	r1, r8, r0, lsl #28
    1590:	f72525f7 			; <UNDEFINED> instruction: 0xf72525f7
    1594:	9f25332c 	svcls	0x0025332c
    1598:	00000328 	andeq	r0, r0, r8, lsr #6
    159c:	0000032c 	andeq	r0, r0, ip, lsr #6
    15a0:	2c530001 	mrrccs	0, 0, r0, r3, cr1
    15a4:	34000003 	strcc	r0, [r0], #-3
    15a8:	1c000003 	stcne	0, cr0, [r0], {3}
    15ac:	f7007000 			; <UNDEFINED> instruction: 0xf7007000
    15b0:	f425f72c 	vld1.8	{d15}, [r5 :128], ip
    15b4:	cccd0825 	stclgt	8, cr0, [sp], {37}	; 0x25
    15b8:	0000cccc 	andeq	ip, r0, ip, asr #25
    15bc:	081e0000 	ldmdaeq	lr, {}	; <UNPREDICTABLE>
    15c0:	2525f720 	strcs	pc, [r5, #-1824]!	; 0x720
    15c4:	25332cf7 	ldrcs	r2, [r3, #-3319]!	; 0xcf7
    15c8:	0003349f 	muleq	r3, pc, r4	; <UNPREDICTABLE>
    15cc:	00033800 	andeq	r3, r3, r0, lsl #16
    15d0:	53000100 	movwpl	r0, #256	; 0x100
    15d4:	00000338 	andeq	r0, r0, r8, lsr r3
    15d8:	00000340 	andeq	r0, r0, r0, asr #6
    15dc:	0070001c 	rsbseq	r0, r0, ip, lsl r0
    15e0:	25f72cf7 	ldrbcs	r2, [r7, #3319]!	; 0xcf7
    15e4:	cd0825f4 	cfstr32gt	mvfx2, [r8, #-976]	; 0xfffffc30
    15e8:	00cccccc 	sbceq	ip, ip, ip, asr #25
    15ec:	1e000000 	cdpne	0, 0, cr0, cr0, cr0, {0}
    15f0:	25f72008 	ldrbcs	r2, [r7, #8]!
    15f4:	332cf725 	msrcc	CPSR_fs, #9699328	; 0x940000
    15f8:	03409f25 	movteq	r9, #3877	; 0xf25
    15fc:	03440000 	movteq	r0, #16384	; 0x4000
    1600:	00010000 	andeq	r0, r1, r0
    1604:	00034453 	andeq	r4, r3, r3, asr r4
    1608:	00034c00 	andeq	r4, r3, r0, lsl #24
    160c:	70001c00 	andvc	r1, r0, r0, lsl #24
    1610:	f72cf700 			; <UNDEFINED> instruction: 0xf72cf700
    1614:	0825f425 	stmdaeq	r5!, {r0, r2, r5, sl, ip, sp, lr, pc}
    1618:	cccccccd 	stclgt	12, cr12, [ip], {205}	; 0xcd
    161c:	00000000 	andeq	r0, r0, r0
    1620:	f720081e 			; <UNDEFINED> instruction: 0xf720081e
    1624:	2cf72525 	cfldr64cs	mvdx2, [r7], #148	; 0x94
    1628:	4c9f2533 	cfldr32mi	mvfx2, [pc], {51}	; 0x33
    162c:	50000003 	andpl	r0, r0, r3
    1630:	01000003 	tsteq	r0, r3
    1634:	03505300 	cmpeq	r0, #0, 6
    1638:	03580000 	cmpeq	r8, #0
    163c:	001c0000 	andseq	r0, ip, r0
    1640:	2cf70070 	ldclcs	0, cr0, [r7], #448	; 0x1c0
    1644:	25f425f7 	ldrbcs	r2, [r4, #1527]!	; 0x5f7
    1648:	cccccd08 	stclgt	13, cr12, [ip], {8}
    164c:	000000cc 	andeq	r0, r0, ip, asr #1
    1650:	20081e00 	andcs	r1, r8, r0, lsl #28
    1654:	f72525f7 			; <UNDEFINED> instruction: 0xf72525f7
    1658:	9f25332c 	svcls	0x0025332c
    165c:	00000358 	andeq	r0, r0, r8, asr r3
    1660:	0000035c 	andeq	r0, r0, ip, asr r3
    1664:	5c530001 	mrrcpl	0, 0, r0, r3, cr1
    1668:	64000003 	strvs	r0, [r0], #-3
    166c:	1c000003 	stcne	0, cr0, [r0], {3}
    1670:	f7007000 			; <UNDEFINED> instruction: 0xf7007000
    1674:	f425f72c 	vld1.8	{d15}, [r5 :128], ip
    1678:	cccd0825 	stclgt	8, cr0, [sp], {37}	; 0x25
    167c:	0000cccc 	andeq	ip, r0, ip, asr #25
    1680:	081e0000 	ldmdaeq	lr, {}	; <UNPREDICTABLE>
    1684:	2525f720 	strcs	pc, [r5, #-1824]!	; 0x720
    1688:	25332cf7 	ldrcs	r2, [r3, #-3319]!	; 0xcf7
    168c:	0003649f 	muleq	r3, pc, r4	; <UNPREDICTABLE>
    1690:	00036800 	andeq	r6, r3, r0, lsl #16
    1694:	53000100 	movwpl	r0, #256	; 0x100
    1698:	00000368 	andeq	r0, r0, r8, ror #6
    169c:	0000036c 	andeq	r0, r0, ip, ror #6
    16a0:	0070001c 	rsbseq	r0, r0, ip, lsl r0
    16a4:	25f72cf7 	ldrbcs	r2, [r7, #3319]!	; 0xcf7
    16a8:	cd0825f4 	cfstr32gt	mvfx2, [r8, #-976]	; 0xfffffc30
    16ac:	00cccccc 	sbceq	ip, ip, ip, asr #25
    16b0:	1e000000 	cdpne	0, 0, cr0, cr0, cr0, {0}
    16b4:	25f72008 	ldrbcs	r2, [r7, #8]!
    16b8:	332cf725 	msrcc	CPSR_fs, #9699328	; 0x940000
    16bc:	036c9f25 	cmneq	ip, #37, 30	; 0x94
    16c0:	03740000 	cmneq	r4, #0
    16c4:	001c0000 	andseq	r0, ip, r0
    16c8:	2cf70074 	ldclcs	0, cr0, [r7], #464	; 0x1d0
    16cc:	25f425f7 	ldrbcs	r2, [r4, #1527]!	; 0x5f7
    16d0:	cccccd08 	stclgt	13, cr12, [ip], {8}
    16d4:	000000cc 	andeq	r0, r0, ip, asr #1
    16d8:	20081e00 	andcs	r1, r8, r0, lsl #28
    16dc:	f72525f7 			; <UNDEFINED> instruction: 0xf72525f7
    16e0:	9f25332c 	svcls	0x0025332c
    16e4:	00000374 	andeq	r0, r0, r4, ror r3
    16e8:	00000378 	andeq	r0, r0, r8, ror r3
    16ec:	00740017 	rsbseq	r0, r4, r7, lsl r0
    16f0:	25f72cf7 	ldrbcs	r2, [r7, #3319]!	; 0xcf7
    16f4:	2cf70073 	ldclcs	0, cr0, [r7], #460	; 0x1cc
    16f8:	081e25f7 	ldmdaeq	lr, {r0, r1, r2, r4, r5, r6, r7, r8, sl, sp}
    16fc:	2525f720 	strcs	pc, [r5, #-1824]!	; 0x720
    1700:	25332cf7 	ldrcs	r2, [r3, #-3319]!	; 0xcf7
    1704:	0003789f 	muleq	r3, pc, r8	; <UNPREDICTABLE>
    1708:	0003ac00 	andeq	sl, r3, r0, lsl #24
    170c:	74001c00 	strvc	r1, [r0], #-3072	; 0xc00
    1710:	f72cf700 			; <UNDEFINED> instruction: 0xf72cf700
    1714:	0825f425 	stmdaeq	r5!, {r0, r2, r5, sl, ip, sp, lr, pc}
    1718:	cccccccd 	stclgt	12, cr12, [ip], {205}	; 0xcd
    171c:	00000000 	andeq	r0, r0, r0
    1720:	f720081e 			; <UNDEFINED> instruction: 0xf720081e
    1724:	2cf72525 	cfldr64cs	mvdx2, [r7], #148	; 0x94
    1728:	009f2533 	addseq	r2, pc, r3, lsr r5	; <UNPREDICTABLE>
    172c:	00000000 	andeq	r0, r0, r0
    1730:	70000000 	andvc	r0, r0, r0
    1734:	94000003 	strls	r0, [r0], #-3
    1738:	01000003 	tsteq	r0, r3
    173c:	03945000 	orrseq	r5, r4, #0
    1740:	039c0000 	orrseq	r0, ip, #0
    1744:	00090000 	andeq	r0, r9, r0
    1748:	00730075 	rsbseq	r0, r3, r5, ror r0
    174c:	21007124 	tstcs	r0, r4, lsr #2
    1750:	00039c9f 	muleq	r3, pc, ip	; <UNPREDICTABLE>
    1754:	00039f00 	andeq	r9, r3, r0, lsl #30
    1758:	51000100 	mrspl	r0, (UNDEF: 16)
	...
    1764:	000003ac 	andeq	r0, r0, ip, lsr #7
    1768:	000003b8 			; <UNDEFINED> instruction: 0x000003b8
    176c:	b8500001 	ldmdalt	r0, {r0}^
    1770:	d8000003 	stmdale	r0, {r0, r1}
    1774:	04000003 	streq	r0, [r0], #-3
    1778:	5001f300 	andpl	pc, r1, r0, lsl #6
    177c:	0000009f 	muleq	r0, pc, r0	; <UNPREDICTABLE>
    1780:	00000000 	andeq	r0, r0, r0
    1784:	0003d800 	andeq	sp, r3, r0, lsl #16
    1788:	0003eb00 	andeq	lr, r3, r0, lsl #22
    178c:	50000100 	andpl	r0, r0, r0, lsl #2
    1790:	000003eb 	andeq	r0, r0, fp, ror #7
    1794:	00000424 	andeq	r0, r0, r4, lsr #8
    1798:	24540001 	ldrbcs	r0, [r4], #-1
    179c:	5c000004 	stcpl	0, cr0, [r0], {4}
    17a0:	04000004 	streq	r0, [r0], #-4
    17a4:	5001f300 	andpl	pc, r1, r0, lsl #6
    17a8:	0000009f 	muleq	r0, pc, r0	; <UNPREDICTABLE>
    17ac:	00000000 	andeq	r0, r0, r0
    17b0:	00044400 	andeq	r4, r4, r0, lsl #8
    17b4:	00044800 	andeq	r4, r4, r0, lsl #16
    17b8:	50000100 	andpl	r0, r0, r0, lsl #2
    17bc:	00000448 	andeq	r0, r0, r8, asr #8
    17c0:	0000044f 	andeq	r0, r0, pc, asr #8
    17c4:	00510001 	subseq	r0, r1, r1
	...
    17d0:	08000004 	stmdaeq	r0, {r2}
    17d4:	01000004 	tsteq	r0, r4
    17d8:	04085000 	streq	r5, [r8], #-0
    17dc:	040f0000 	streq	r0, [pc], #-0	; 17e4 <_start-0x681c>
    17e0:	00010000 	andeq	r0, r1, r0
    17e4:	00000051 	andeq	r0, r0, r1, asr r0
    17e8:	00000000 	andeq	r0, r0, r0
    17ec:	00042000 	andeq	r2, r4, r0
    17f0:	00042c00 	andeq	r2, r4, r0, lsl #24
    17f4:	50000100 	andpl	r0, r0, r0, lsl #2
    17f8:	0000042c 	andeq	r0, r0, ip, lsr #8
    17fc:	00000433 	andeq	r0, r0, r3, lsr r4
    1800:	00510001 	subseq	r0, r1, r1
    1804:	00000000 	andeq	r0, r0, r0
    1808:	5c000000 	stcpl	0, cr0, [r0], {-0}
    180c:	6f000004 	svcvs	0x00000004
    1810:	01000004 	tsteq	r0, r4
    1814:	046f5000 	strbteq	r5, [pc], #-0	; 181c <_start-0x67e4>
    1818:	04a80000 	strteq	r0, [r8], #0
    181c:	00010000 	andeq	r0, r1, r0
    1820:	0004a854 	andeq	sl, r4, r4, asr r8
    1824:	0004e000 	andeq	lr, r4, r0
    1828:	f3000400 	vshl.u8	d0, d0, d0
    182c:	009f5001 	addseq	r5, pc, r1
    1830:	00000000 	andeq	r0, r0, r0
    1834:	c8000000 	stmdagt	r0, {}	; <UNPREDICTABLE>
    1838:	cc000004 	stcgt	0, cr0, [r0], {4}
    183c:	01000004 	tsteq	r0, r4
    1840:	04cc5000 	strbeq	r5, [ip], #0
    1844:	04d30000 	ldrbeq	r0, [r3], #0
    1848:	00010000 	andeq	r0, r1, r0
    184c:	00000051 	andeq	r0, r0, r1, asr r0
    1850:	00000000 	andeq	r0, r0, r0
    1854:	00048400 	andeq	r8, r4, r0, lsl #8
    1858:	00048c00 	andeq	r8, r4, r0, lsl #24
    185c:	50000100 	andpl	r0, r0, r0, lsl #2
    1860:	0000048c 	andeq	r0, r0, ip, lsl #9
    1864:	00000493 	muleq	r0, r3, r4
    1868:	00510001 	subseq	r0, r1, r1
    186c:	00000000 	andeq	r0, r0, r0
    1870:	a4000000 	strge	r0, [r0], #-0
    1874:	b0000004 	andlt	r0, r0, r4
    1878:	01000004 	tsteq	r0, r4
    187c:	04b05000 	ldrteq	r5, [r0], #0
    1880:	04b70000 	ldrteq	r0, [r7], #0
    1884:	00010000 	andeq	r0, r1, r0
    1888:	00000051 	andeq	r0, r0, r1, asr r0
    188c:	00000000 	andeq	r0, r0, r0
    1890:	0004e000 	andeq	lr, r4, r0
    1894:	0004f300 	andeq	pc, r4, r0, lsl #6
    1898:	50000100 	andpl	r0, r0, r0, lsl #2
    189c:	000004f3 	strdeq	r0, [r0], -r3
    18a0:	00000534 	andeq	r0, r0, r4, lsr r5
    18a4:	34540001 	ldrbcc	r0, [r4], #-1
    18a8:	58000005 	stmdapl	r0, {r0, r2}
    18ac:	04000005 	streq	r0, [r0], #-5
    18b0:	5001f300 	andpl	pc, r1, r0, lsl #6
    18b4:	0005589f 	muleq	r5, pc, r8	; <UNPREDICTABLE>
    18b8:	00055c00 	andeq	r5, r5, r0, lsl #24
    18bc:	50000100 	andpl	r0, r0, r0, lsl #2
    18c0:	0000055c 	andeq	r0, r0, ip, asr r5
    18c4:	00000564 	andeq	r0, r0, r4, ror #10
    18c8:	00540001 	subseq	r0, r4, r1
    18cc:	00000000 	andeq	r0, r0, r0
    18d0:	08000000 	stmdaeq	r0, {}	; <UNPREDICTABLE>
    18d4:	17000005 	strne	r0, [r0, -r5]
    18d8:	08000005 	stmdaeq	r0, {r0, r2}
    18dc:	00743100 	rsbseq	r3, r4, r0, lsl #2
    18e0:	1a007024 	bne	1d978 <__bss_end__+0xf108>
    18e4:	0000009f 	muleq	r0, pc, r0	; <UNPREDICTABLE>
    18e8:	00000000 	andeq	r0, r0, r0
    18ec:	00053400 	andeq	r3, r5, r0, lsl #8
    18f0:	00054c00 	andeq	r4, r5, r0, lsl #24
    18f4:	54000100 	strpl	r0, [r0], #-256	; 0x100
	...
    1900:	00000564 	andeq	r0, r0, r4, ror #10
    1904:	00000577 	andeq	r0, r0, r7, ror r5
    1908:	77500001 	ldrbvc	r0, [r0, -r1]
    190c:	9c000005 	stcls	0, cr0, [r0], {5}
    1910:	01000005 	tsteq	r0, r5
    1914:	059c5400 	ldreq	r5, [ip, #1024]	; 0x400
    1918:	05bc0000 	ldreq	r0, [ip, #0]!
    191c:	00040000 	andeq	r0, r4, r0
    1920:	9f5001f3 	svcls	0x005001f3
	...
    1930:	00000018 	andeq	r0, r0, r8, lsl r0
    1934:	18500001 	ldmdane	r0, {r0}^
    1938:	54000000 	strpl	r0, [r0], #-0
    193c:	04000001 	streq	r0, [r0], #-1
    1940:	5001f300 	andpl	pc, r1, r0, lsl #6
    1944:	0000009f 	muleq	r0, pc, r0	; <UNPREDICTABLE>
	...
    1950:	00001c00 	andeq	r1, r0, r0, lsl #24
    1954:	51000100 	mrspl	r0, (UNDEF: 16)
    1958:	0000001c 	andeq	r0, r0, ip, lsl r0
    195c:	00000154 	andeq	r0, r0, r4, asr r1
    1960:	01f30004 	mvnseq	r0, r4
    1964:	00009f51 	andeq	r9, r0, r1, asr pc
    1968:	00000000 	andeq	r0, r0, r0
    196c:	00100000 	andseq	r0, r0, r0
    1970:	01340000 	teqeq	r4, r0
    1974:	00010000 	andeq	r0, r1, r0
    1978:	00000055 	andeq	r0, r0, r5, asr r0
    197c:	00000000 	andeq	r0, r0, r0
    1980:	00001000 	andeq	r1, r0, r0
    1984:	00003400 	andeq	r3, r0, r0, lsl #8
    1988:	55000100 	strpl	r0, [r0, #-256]	; 0x100
    198c:	00000034 	andeq	r0, r0, r4, lsr r0
    1990:	00000134 	andeq	r0, r0, r4, lsr r1
    1994:	34580001 	ldrbcc	r0, [r8], #-1
    1998:	54000001 	strpl	r0, [r0], #-1
    199c:	01000001 	tsteq	r0, r1
    19a0:	00005500 	andeq	r5, r0, r0, lsl #10
    19a4:	00000000 	andeq	r0, r0, r0
    19a8:	00140000 	andseq	r0, r4, r0
    19ac:	01340000 	teqeq	r4, r0
    19b0:	00010000 	andeq	r0, r1, r0
    19b4:	00000055 	andeq	r0, r0, r5, asr r0
    19b8:	00000000 	andeq	r0, r0, r0
    19bc:	00002000 	andeq	r2, r0, r0
    19c0:	00013400 	andeq	r3, r1, r0, lsl #8
    19c4:	55000100 	strpl	r0, [r0, #-256]	; 0x100
	...
    19d0:	00000024 	andeq	r0, r0, r4, lsr #32
    19d4:	00000028 	andeq	r0, r0, r8, lsr #32
    19d8:	00530001 	subseq	r0, r3, r1
    19dc:	00000000 	andeq	r0, r0, r0
    19e0:	34000000 	strcc	r0, [r0], #-0
    19e4:	54000000 	strpl	r0, [r0], #-0
    19e8:	01000000 	mrseq	r0, (UNDEF: 0)
    19ec:	00545800 	subseq	r5, r4, r0, lsl #16
    19f0:	01340000 	teqeq	r4, r0
    19f4:	00050000 	andeq	r0, r5, r0
    19f8:	24310075 	ldrtcs	r0, [r1], #-117	; 0x75
    19fc:	0000009f 	muleq	r0, pc, r0	; <UNPREDICTABLE>
    1a00:	00000000 	andeq	r0, r0, r0
    1a04:	00003400 	andeq	r3, r0, r0, lsl #8
    1a08:	00003c00 	andeq	r3, r0, r0, lsl #24
    1a0c:	77000500 	strvc	r0, [r0, -r0, lsl #10]
    1a10:	9f1a3100 	svcls	0x001a3100
    1a14:	0000003c 	andeq	r0, r0, ip, lsr r0
    1a18:	0000003f 	andeq	r0, r0, pc, lsr r0
    1a1c:	3f510001 	svccc	0x00510001
    1a20:	54000000 	strpl	r0, [r0], #-0
    1a24:	05000001 	streq	r0, [r0, #-1]
    1a28:	31007700 	tstcc	r0, r0, lsl #14
    1a2c:	00009f1a 	andeq	r9, r0, sl, lsl pc
    1a30:	00000000 	andeq	r0, r0, r0
    1a34:	00400000 	subeq	r0, r0, r0
    1a38:	00540000 	subseq	r0, r4, r0
    1a3c:	00010000 	andeq	r0, r1, r0
    1a40:	00005458 	andeq	r5, r0, r8, asr r4
    1a44:	00013400 	andeq	r3, r1, r0, lsl #8
    1a48:	75000500 	strvc	r0, [r0, #-1280]	; 0x500
    1a4c:	9f243100 	svcls	0x00243100
	...
    1a58:	00000044 	andeq	r0, r0, r4, asr #32
    1a5c:	00000048 	andeq	r0, r0, r8, asr #32
    1a60:	00530001 	subseq	r0, r3, r1
    1a64:	00000000 	andeq	r0, r0, r0
    1a68:	54000000 	strpl	r0, [r0], #-0
    1a6c:	74000000 	strvc	r0, [r0], #-0
    1a70:	01000000 	mrseq	r0, (UNDEF: 0)
    1a74:	00745800 	rsbseq	r5, r4, r0, lsl #16
    1a78:	01340000 	teqeq	r4, r0
    1a7c:	00080000 	andeq	r0, r8, r0
    1a80:	24310075 	ldrtcs	r0, [r1], #-117	; 0x75
    1a84:	9f220075 	svcls	0x00220075
	...
    1a90:	00000060 	andeq	r0, r0, r0, rrx
    1a94:	00000074 	andeq	r0, r0, r4, ror r0
    1a98:	74580001 	ldrbvc	r0, [r8], #-1
    1a9c:	34000000 	strcc	r0, [r0], #-0
    1aa0:	08000001 	stmdaeq	r0, {r0}
    1aa4:	31007500 	tstcc	r0, r0, lsl #10
    1aa8:	22007524 	andcs	r7, r0, #36, 10	; 0x9000000
    1aac:	0000009f 	muleq	r0, pc, r0	; <UNPREDICTABLE>
    1ab0:	00000000 	andeq	r0, r0, r0
    1ab4:	00006400 	andeq	r6, r0, r0, lsl #8
    1ab8:	00006800 	andeq	r6, r0, r0, lsl #16
    1abc:	53000100 	movwpl	r0, #256	; 0x100
	...
    1ac8:	00000074 	andeq	r0, r0, r4, ror r0
    1acc:	00000094 	muleq	r0, r4, r0
    1ad0:	94580001 	ldrbls	r0, [r8], #-1
    1ad4:	34000000 	strcc	r0, [r0], #-0
    1ad8:	05000001 	streq	r0, [r0, #-1]
    1adc:	32007500 	andcc	r7, r0, #0, 10
    1ae0:	00009f24 	andeq	r9, r0, r4, lsr #30
    1ae4:	00000000 	andeq	r0, r0, r0
    1ae8:	00800000 	addeq	r0, r0, r0
    1aec:	00940000 	addseq	r0, r4, r0
    1af0:	00010000 	andeq	r0, r1, r0
    1af4:	00009458 	andeq	r9, r0, r8, asr r4
    1af8:	00013400 	andeq	r3, r1, r0, lsl #8
    1afc:	75000500 	strvc	r0, [r0, #-1280]	; 0x500
    1b00:	9f243200 	svcls	0x00243200
	...
    1b0c:	00000084 	andeq	r0, r0, r4, lsl #1
    1b10:	00000088 	andeq	r0, r0, r8, lsl #1
    1b14:	00530001 	subseq	r0, r3, r1
    1b18:	00000000 	andeq	r0, r0, r0
    1b1c:	94000000 	strls	r0, [r0], #-0
    1b20:	b4000000 	strlt	r0, [r0], #-0
    1b24:	01000000 	mrseq	r0, (UNDEF: 0)
    1b28:	00b45800 	adcseq	r5, r4, r0, lsl #16
    1b2c:	01340000 	teqeq	r4, r0
    1b30:	00080000 	andeq	r0, r8, r0
    1b34:	24320075 	ldrtcs	r0, [r2], #-117	; 0x75
    1b38:	9f220075 	svcls	0x00220075
	...
    1b44:	000000a0 	andeq	r0, r0, r0, lsr #1
    1b48:	000000b4 	strheq	r0, [r0], -r4
    1b4c:	b4580001 	ldrblt	r0, [r8], #-1
    1b50:	34000000 	strcc	r0, [r0], #-0
    1b54:	08000001 	stmdaeq	r0, {r0}
    1b58:	32007500 	andcc	r7, r0, #0, 10
    1b5c:	22007524 	andcs	r7, r0, #36, 10	; 0x9000000
    1b60:	0000009f 	muleq	r0, pc, r0	; <UNPREDICTABLE>
    1b64:	00000000 	andeq	r0, r0, r0
    1b68:	0000a400 	andeq	sl, r0, r0, lsl #8
    1b6c:	0000a800 	andeq	sl, r0, r0, lsl #16
    1b70:	53000100 	movwpl	r0, #256	; 0x100
	...
    1b7c:	000000b4 	strheq	r0, [r0], -r4
    1b80:	000000d4 	ldrdeq	r0, [r0], -r4
    1b84:	d4580001 	ldrble	r0, [r8], #-1
    1b88:	34000000 	strcc	r0, [r0], #-0
    1b8c:	0a000001 	beq	1b98 <_start-0x6468>
    1b90:	32007500 	andcc	r7, r0, #0, 10
    1b94:	31007524 	tstcc	r0, r4, lsr #10
    1b98:	009f2224 	addseq	r2, pc, r4, lsr #4
    1b9c:	00000000 	andeq	r0, r0, r0
    1ba0:	c0000000 	andgt	r0, r0, r0
    1ba4:	d4000000 	strle	r0, [r0], #-0
    1ba8:	01000000 	mrseq	r0, (UNDEF: 0)
    1bac:	00d45800 	sbcseq	r5, r4, r0, lsl #16
    1bb0:	01340000 	teqeq	r4, r0
    1bb4:	000a0000 	andeq	r0, sl, r0
    1bb8:	24320075 	ldrtcs	r0, [r2], #-117	; 0x75
    1bbc:	24310075 	ldrtcs	r0, [r1], #-117	; 0x75
    1bc0:	00009f22 	andeq	r9, r0, r2, lsr #30
    1bc4:	00000000 	andeq	r0, r0, r0
    1bc8:	00c40000 	sbceq	r0, r4, r0
    1bcc:	00c80000 	sbceq	r0, r8, r0
    1bd0:	00010000 	andeq	r0, r1, r0
    1bd4:	00000053 	andeq	r0, r0, r3, asr r0
    1bd8:	00000000 	andeq	r0, r0, r0
    1bdc:	0000d400 	andeq	sp, r0, r0, lsl #8
    1be0:	0000f400 	andeq	pc, r0, r0, lsl #8
    1be4:	58000100 	stmdapl	r0, {r8}
    1be8:	000000f4 	strdeq	r0, [r0], -r4
    1bec:	00000134 	andeq	r0, r0, r4, lsr r1
    1bf0:	0075000d 	rsbseq	r0, r5, sp
    1bf4:	00752432 	rsbseq	r2, r5, r2, lsr r4
    1bf8:	75222431 	strvc	r2, [r2, #-1073]!	; 0x431
    1bfc:	009f2200 	addseq	r2, pc, r0, lsl #4
    1c00:	00000000 	andeq	r0, r0, r0
    1c04:	e0000000 	and	r0, r0, r0
    1c08:	f4000000 	vst4.8	{d0-d3}, [r0], r0
    1c0c:	01000000 	mrseq	r0, (UNDEF: 0)
    1c10:	00f45800 	rscseq	r5, r4, r0, lsl #16
    1c14:	01340000 	teqeq	r4, r0
    1c18:	000d0000 	andeq	r0, sp, r0
    1c1c:	24320075 	ldrtcs	r0, [r2], #-117	; 0x75
    1c20:	24310075 	ldrtcs	r0, [r1], #-117	; 0x75
    1c24:	22007522 	andcs	r7, r0, #142606336	; 0x8800000
    1c28:	0000009f 	muleq	r0, pc, r0	; <UNPREDICTABLE>
    1c2c:	00000000 	andeq	r0, r0, r0
    1c30:	0000e400 	andeq	lr, r0, r0, lsl #8
    1c34:	0000e800 	andeq	lr, r0, r0, lsl #16
    1c38:	53000100 	movwpl	r0, #256	; 0x100
	...
    1c44:	000000f4 	strdeq	r0, [r0], -r4
    1c48:	00000114 	andeq	r0, r0, r4, lsl r1
    1c4c:	14580001 	ldrbne	r0, [r8], #-1
    1c50:	34000001 	strcc	r0, [r0], #-1
    1c54:	05000001 	streq	r0, [r0, #-1]
    1c58:	33007500 	movwcc	r7, #1280	; 0x500
    1c5c:	00009f24 	andeq	r9, r0, r4, lsr #30
    1c60:	00000000 	andeq	r0, r0, r0
    1c64:	01000000 	mrseq	r0, (UNDEF: 0)
    1c68:	01140000 	tsteq	r4, r0
    1c6c:	00010000 	andeq	r0, r1, r0
    1c70:	00011458 	andeq	r1, r1, r8, asr r4
    1c74:	00013400 	andeq	r3, r1, r0, lsl #8
    1c78:	75000500 	strvc	r0, [r0, #-1280]	; 0x500
    1c7c:	9f243300 	svcls	0x00243300
	...
    1c88:	00000104 	andeq	r0, r0, r4, lsl #2
    1c8c:	00000108 	andeq	r0, r0, r8, lsl #2
    1c90:	00530001 	subseq	r0, r3, r1
    1c94:	00000000 	andeq	r0, r0, r0
    1c98:	14000000 	strne	r0, [r0], #-0
    1c9c:	1c000001 	stcne	0, cr0, [r0], {1}
    1ca0:	06000001 	streq	r0, [r0], -r1
    1ca4:	08007700 	stmdaeq	r0, {r8, r9, sl, ip, sp, lr}
    1ca8:	1c9f1a80 	vldmiane	pc, {s2-s129}
    1cac:	1f000001 	svcne	0x00000001
    1cb0:	01000001 	tsteq	r0, r1
    1cb4:	011f5100 	tsteq	pc, r0, lsl #2
    1cb8:	01540000 	cmpeq	r4, r0
    1cbc:	00060000 	andeq	r0, r6, r0
    1cc0:	80080077 	andhi	r0, r8, r7, ror r0
    1cc4:	00009f1a 	andeq	r9, r0, sl, lsl pc
    1cc8:	00000000 	andeq	r0, r0, r0
    1ccc:	01240000 	teqeq	r4, r0
    1cd0:	01280000 	teqeq	r8, r0
    1cd4:	00010000 	andeq	r0, r1, r0
    1cd8:	00000053 	andeq	r0, r0, r3, asr r0
    1cdc:	00000000 	andeq	r0, r0, r0
    1ce0:	00014400 	andeq	r4, r1, r0, lsl #8
    1ce4:	00014800 	andeq	r4, r1, r0, lsl #16
    1ce8:	53000100 	movwpl	r0, #256	; 0x100
	...
    1cf4:	00000154 	andeq	r0, r0, r4, asr r1
    1cf8:	0000016b 	andeq	r0, r0, fp, ror #2
    1cfc:	6b500001 	blvs	1401d08 <__bss_end__+0x13f3498>
    1d00:	d0000001 	andle	r0, r0, r1
    1d04:	01000001 	tsteq	r0, r1
    1d08:	01d05900 	bicseq	r5, r0, r0, lsl #18
    1d0c:	030c0000 	movweq	r0, #49152	; 0xc000
    1d10:	00040000 	andeq	r0, r4, r0
    1d14:	9f5001f3 	svcls	0x005001f3
    1d18:	0000030c 	andeq	r0, r0, ip, lsl #6
    1d1c:	00000314 	andeq	r0, r0, r4, lsl r3
    1d20:	14590001 	ldrbne	r0, [r9], #-1
    1d24:	1c000003 	stcne	0, cr0, [r0], {3}
    1d28:	04000003 	streq	r0, [r0], #-3
    1d2c:	5001f300 	andpl	pc, r1, r0, lsl #6
    1d30:	0000009f 	muleq	r0, pc, r0	; <UNPREDICTABLE>
    1d34:	00000000 	andeq	r0, r0, r0
    1d38:	00015400 	andeq	r5, r1, r0, lsl #8
    1d3c:	00016b00 	andeq	r6, r1, r0, lsl #22
    1d40:	51000100 	mrspl	r0, (UNDEF: 16)
    1d44:	0000016b 	andeq	r0, r0, fp, ror #2
    1d48:	0000031c 	andeq	r0, r0, ip, lsl r3
    1d4c:	00560001 	subseq	r0, r6, r1
    1d50:	00000000 	andeq	r0, r0, r0
    1d54:	a8000000 	stmdage	r0, {}	; <UNPREDICTABLE>
    1d58:	98000001 	stmdals	r0, {r0}
    1d5c:	01000002 	tsteq	r0, r2
    1d60:	00005800 	andeq	r5, r0, r0, lsl #16
    1d64:	00000000 	andeq	r0, r0, r0
    1d68:	01ac0000 			; <UNDEFINED> instruction: 0x01ac0000
    1d6c:	02d00000 	sbcseq	r0, r0, #0
    1d70:	00010000 	andeq	r0, r1, r0
    1d74:	00000054 	andeq	r0, r0, r4, asr r0
    1d78:	00000000 	andeq	r0, r0, r0
    1d7c:	0001ac00 	andeq	sl, r1, r0, lsl #24
    1d80:	0002d000 	andeq	sp, r2, r0
    1d84:	74000500 	strvc	r0, [r0], #-1280	; 0x500
    1d88:	9f253100 	svcls	0x00253100
	...
    1d94:	000001ac 	andeq	r0, r0, ip, lsr #3
    1d98:	000001d0 	ldrdeq	r0, [r0], -r0	; <UNPREDICTABLE>
    1d9c:	9f300002 	svcls	0x00300002
    1da0:	000001d0 	ldrdeq	r0, [r0], -r0	; <UNPREDICTABLE>
    1da4:	0000030c 	andeq	r0, r0, ip, lsl #6
    1da8:	14590001 	ldrbne	r0, [r9], #-1
    1dac:	1c000003 	stcne	0, cr0, [r0], {3}
    1db0:	01000003 	tsteq	r0, r3
    1db4:	00005900 	andeq	r5, r0, r0, lsl #18
    1db8:	00000000 	andeq	r0, r0, r0
    1dbc:	01680000 	cmneq	r8, r0
    1dc0:	016b0000 	cmneq	fp, r0
    1dc4:	00010000 	andeq	r0, r1, r0
    1dc8:	00016b51 	andeq	r6, r1, r1, asr fp
    1dcc:	00031c00 	andeq	r1, r3, r0, lsl #24
    1dd0:	56000100 	strpl	r0, [r0], -r0, lsl #2
	...
    1ddc:	00000170 	andeq	r0, r0, r0, ror r1
    1de0:	000001ac 	andeq	r0, r0, ip, lsr #3
    1de4:	0c540001 	mrrceq	0, 0, r0, r4, cr1
    1de8:	14000003 	strne	r0, [r0], #-3
    1dec:	01000003 	tsteq	r0, r3
    1df0:	00005400 	andeq	r5, r0, r0, lsl #8
    1df4:	00000000 	andeq	r0, r0, r0
    1df8:	01a80000 			; <UNDEFINED> instruction: 0x01a80000
    1dfc:	01c40000 	biceq	r0, r4, r0
    1e00:	00010000 	andeq	r0, r1, r0
    1e04:	00000058 	andeq	r0, r0, r8, asr r0
    1e08:	00000000 	andeq	r0, r0, r0
    1e0c:	0001b000 	andeq	fp, r1, r0
    1e10:	0001cb00 	andeq	ip, r1, r0, lsl #22
    1e14:	52000100 	andpl	r0, r0, #0, 2
    1e18:	000001cb 	andeq	r0, r0, fp, asr #3
    1e1c:	000002d0 	ldrdeq	r0, [r0], -r0	; <UNPREDICTABLE>
    1e20:	00740008 	rsbseq	r0, r4, r8
    1e24:	00742531 	rsbseq	r2, r4, r1, lsr r5
    1e28:	00009f22 	andeq	r9, r0, r2, lsr #30
    1e2c:	00000000 	andeq	r0, r0, r0
    1e30:	01b00000 	movseq	r0, r0
    1e34:	01c40000 	biceq	r0, r4, r0
    1e38:	00010000 	andeq	r0, r1, r0
    1e3c:	00000058 	andeq	r0, r0, r8, asr r0
    1e40:	00000000 	andeq	r0, r0, r0
    1e44:	0001b400 	andeq	fp, r1, r0, lsl #8
    1e48:	0001b800 	andeq	fp, r1, r0, lsl #16
    1e4c:	53000100 	movwpl	r0, #256	; 0x100
	...
    1e58:	000001d0 	ldrdeq	r0, [r0], -r0	; <UNPREDICTABLE>
    1e5c:	000002d0 	ldrdeq	r0, [r0], -r0	; <UNPREDICTABLE>
    1e60:	00540001 	subseq	r0, r4, r1
    1e64:	00000000 	andeq	r0, r0, r0
    1e68:	d0000000 	andle	r0, r0, r0
    1e6c:	e4000001 	str	r0, [r0], #-1
    1e70:	01000001 	tsteq	r0, r1
    1e74:	00005800 	andeq	r5, r0, r0, lsl #16
    1e78:	00000000 	andeq	r0, r0, r0
    1e7c:	01d40000 	bicseq	r0, r4, r0
    1e80:	01d80000 	bicseq	r0, r8, r0
    1e84:	00010000 	andeq	r0, r1, r0
    1e88:	00000053 	andeq	r0, r0, r3, asr r0
    1e8c:	00000000 	andeq	r0, r0, r0
    1e90:	0001f400 	andeq	pc, r1, r0, lsl #8
    1e94:	0002d000 	andeq	sp, r2, r0
    1e98:	54000100 	strpl	r0, [r0], #-256	; 0x100
	...
    1ea4:	000001f4 	strdeq	r0, [r0], -r4
    1ea8:	00000208 	andeq	r0, r0, r8, lsl #4
    1eac:	00580001 	subseq	r0, r8, r1
    1eb0:	00000000 	andeq	r0, r0, r0
    1eb4:	f8000000 			; <UNDEFINED> instruction: 0xf8000000
    1eb8:	fc000001 	stc2	0, cr0, [r0], {1}
    1ebc:	01000001 	tsteq	r0, r1
    1ec0:	00005300 	andeq	r5, r0, r0, lsl #6
    1ec4:	00000000 	andeq	r0, r0, r0
    1ec8:	02180000 	andseq	r0, r8, #0
    1ecc:	02d00000 	sbcseq	r0, r0, #0
    1ed0:	00010000 	andeq	r0, r1, r0
    1ed4:	00000054 	andeq	r0, r0, r4, asr r0
    1ed8:	00000000 	andeq	r0, r0, r0
    1edc:	00021800 	andeq	r1, r2, r0, lsl #16
    1ee0:	00022c00 	andeq	r2, r2, r0, lsl #24
    1ee4:	58000100 	stmdapl	r0, {r8}
	...
    1ef0:	0000021c 	andeq	r0, r0, ip, lsl r2
    1ef4:	00000220 	andeq	r0, r0, r0, lsr #4
    1ef8:	00530001 	subseq	r0, r3, r1
    1efc:	00000000 	andeq	r0, r0, r0
    1f00:	3c000000 	stccc	0, cr0, [r0], {-0}
    1f04:	d0000002 	andle	r0, r0, r2
    1f08:	01000002 	tsteq	r0, r2
    1f0c:	00005400 	andeq	r5, r0, r0, lsl #8
    1f10:	00000000 	andeq	r0, r0, r0
    1f14:	023c0000 	eorseq	r0, ip, #0
    1f18:	02500000 	subseq	r0, r0, #0
    1f1c:	00010000 	andeq	r0, r1, r0
    1f20:	00000058 	andeq	r0, r0, r8, asr r0
    1f24:	00000000 	andeq	r0, r0, r0
    1f28:	00024000 	andeq	r4, r2, r0
    1f2c:	00024400 	andeq	r4, r2, r0, lsl #8
    1f30:	53000100 	movwpl	r0, #256	; 0x100
	...
    1f3c:	00000260 	andeq	r0, r0, r0, ror #4
    1f40:	000002d0 	ldrdeq	r0, [r0], -r0	; <UNPREDICTABLE>
    1f44:	00540001 	subseq	r0, r4, r1
    1f48:	00000000 	andeq	r0, r0, r0
    1f4c:	60000000 	andvs	r0, r0, r0
    1f50:	74000002 	strvc	r0, [r0], #-2
    1f54:	01000002 	tsteq	r0, r2
    1f58:	00005800 	andeq	r5, r0, r0, lsl #16
    1f5c:	00000000 	andeq	r0, r0, r0
    1f60:	02640000 	rsbeq	r0, r4, #0
    1f64:	02680000 	rsbeq	r0, r8, #0
    1f68:	00010000 	andeq	r0, r1, r0
    1f6c:	00000053 	andeq	r0, r0, r3, asr r0
    1f70:	00000000 	andeq	r0, r0, r0
    1f74:	00028400 	andeq	r8, r2, r0, lsl #8
    1f78:	0002d000 	andeq	sp, r2, r0
    1f7c:	54000100 	strpl	r0, [r0], #-256	; 0x100
	...
    1f88:	00000284 	andeq	r0, r0, r4, lsl #5
    1f8c:	00000298 	muleq	r0, r8, r2
    1f90:	00580001 	subseq	r0, r8, r1
    1f94:	00000000 	andeq	r0, r0, r0
    1f98:	88000000 	stmdahi	r0, {}	; <UNPREDICTABLE>
    1f9c:	8c000002 	stchi	0, cr0, [r0], {2}
    1fa0:	01000002 	tsteq	r0, r2
    1fa4:	00005300 	andeq	r5, r0, r0, lsl #6
    1fa8:	00000000 	andeq	r0, r0, r0
    1fac:	02a80000 	adceq	r0, r8, #0
    1fb0:	02d00000 	sbcseq	r0, r0, #0
    1fb4:	00010000 	andeq	r0, r1, r0
    1fb8:	00000054 	andeq	r0, r0, r4, asr r0
    1fbc:	00000000 	andeq	r0, r0, r0
    1fc0:	0002ac00 	andeq	sl, r2, r0, lsl #24
    1fc4:	0002b000 	andeq	fp, r2, r0
    1fc8:	53000100 	movwpl	r0, #256	; 0x100
	...
    1fd4:	000002c8 	andeq	r0, r0, r8, asr #5
    1fd8:	0000030c 	andeq	r0, r0, ip, lsl #6
    1fdc:	9f300002 	svcls	0x00300002
    1fe0:	00000314 	andeq	r0, r0, r4, lsl r3
    1fe4:	0000031c 	andeq	r0, r0, ip, lsl r3
    1fe8:	9f300002 	svcls	0x00300002
	...
    1ff4:	000002c8 	andeq	r0, r0, r8, asr #5
    1ff8:	0000030c 	andeq	r0, r0, ip, lsl #6
    1ffc:	14550001 	ldrbne	r0, [r5], #-1
    2000:	1c000003 	stcne	0, cr0, [r0], {3}
    2004:	01000003 	tsteq	r0, r3
    2008:	00005500 	andeq	r5, r0, r0, lsl #10
    200c:	00000000 	andeq	r0, r0, r0
    2010:	02d00000 	sbcseq	r0, r0, #0
    2014:	030c0000 	movweq	r0, #49152	; 0xc000
    2018:	00010000 	andeq	r0, r1, r0
    201c:	00031454 	andeq	r1, r3, r4, asr r4
    2020:	00031c00 	andeq	r1, r3, r0, lsl #24
    2024:	54000100 	strpl	r0, [r0], #-256	; 0x100
	...
    2030:	0000031c 	andeq	r0, r0, ip, lsl r3
    2034:	0000033b 	andeq	r0, r0, fp, lsr r3
    2038:	3b500001 	blcc	1402044 <__bss_end__+0x13f37d4>
    203c:	54000003 	strpl	r0, [r0], #-3
    2040:	01000003 	tsteq	r0, r3
    2044:	03545800 	cmpeq	r4, #0, 16
    2048:	03640000 	cmneq	r4, #0
    204c:	00010000 	andeq	r0, r1, r0
    2050:	00036450 	andeq	r6, r3, r0, asr r4
    2054:	0003ac00 	andeq	sl, r3, r0, lsl #24
    2058:	58000100 	stmdapl	r0, {r8}
	...
    2064:	0000031c 	andeq	r0, r0, ip, lsl r3
    2068:	0000033b 	andeq	r0, r0, fp, lsr r3
    206c:	3b510001 	blcc	1442078 <__bss_end__+0x1433808>
    2070:	54000003 	strpl	r0, [r0], #-3
    2074:	01000003 	tsteq	r0, r3
    2078:	03545600 	cmpeq	r4, #0, 12
    207c:	03640000 	cmneq	r4, #0
    2080:	00010000 	andeq	r0, r1, r0
    2084:	00036451 	andeq	r6, r3, r1, asr r4
    2088:	0003ac00 	andeq	sl, r3, r0, lsl #24
    208c:	56000100 	strpl	r0, [r0], -r0, lsl #2
	...
    2098:	0000031c 	andeq	r0, r0, ip, lsl r3
    209c:	0000033b 	andeq	r0, r0, fp, lsr r3
    20a0:	3b520001 	blcc	14820ac <__bss_end__+0x147383c>
    20a4:	54000003 	strpl	r0, [r0], #-3
    20a8:	04000003 	streq	r0, [r0], #-3
    20ac:	5201f300 	andpl	pc, r1, #0, 6
    20b0:	0003549f 	muleq	r3, pc, r4	; <UNPREDICTABLE>
    20b4:	00036400 	andeq	r6, r3, r0, lsl #8
    20b8:	52000100 	andpl	r0, r0, #0, 2
    20bc:	00000364 	andeq	r0, r0, r4, ror #6
    20c0:	000003ac 	andeq	r0, r0, ip, lsr #7
    20c4:	01770003 	cmneq	r7, r3
    20c8:	0000009f 	muleq	r0, pc, r0	; <UNPREDICTABLE>
    20cc:	00000000 	andeq	r0, r0, r0
    20d0:	00031c00 	andeq	r1, r3, r0, lsl #24
    20d4:	00033b00 	andeq	r3, r3, r0, lsl #22
    20d8:	53000100 	movwpl	r0, #256	; 0x100
    20dc:	0000033b 	andeq	r0, r0, fp, lsr r3
    20e0:	00000354 	andeq	r0, r0, r4, asr r3
    20e4:	01f30004 	mvnseq	r0, r4
    20e8:	03549f53 	cmpeq	r4, #332	; 0x14c
    20ec:	03640000 	cmneq	r4, #0
    20f0:	00010000 	andeq	r0, r1, r0
    20f4:	00036453 	andeq	r6, r3, r3, asr r4
    20f8:	0003ac00 	andeq	sl, r3, r0, lsl #24
    20fc:	f3000400 	vshl.u8	d0, d0, d0
    2100:	009f5301 	addseq	r5, pc, r1, lsl #6
    2104:	00000000 	andeq	r0, r0, r0
    2108:	5c000000 	stcpl	0, cr0, [r0], {-0}
    210c:	64000003 	strvs	r0, [r0], #-3
    2110:	02000003 	andeq	r0, r0, #3
    2114:	649f3000 	ldrvs	r3, [pc], #0	; 211c <_start-0x5ee4>
    2118:	ac000003 	stcge	0, cr0, [r0], {3}
    211c:	01000003 	tsteq	r0, r3
    2120:	00005400 	andeq	r5, r0, r0, lsl #8
    2124:	00000000 	andeq	r0, r0, r0
    2128:	03740000 	cmneq	r4, #0
    212c:	03840000 	orreq	r0, r4, #0
    2130:	00010000 	andeq	r0, r1, r0
    2134:	00000050 	andeq	r0, r0, r0, asr r0
    2138:	00000000 	andeq	r0, r0, r0
    213c:	0003ac00 	andeq	sl, r3, r0, lsl #24
    2140:	0003c700 	andeq	ip, r3, r0, lsl #14
    2144:	50000100 	andpl	r0, r0, r0, lsl #2
    2148:	000003c7 	andeq	r0, r0, r7, asr #7
    214c:	000003e0 	andeq	r0, r0, r0, ror #7
    2150:	e0570001 	subs	r0, r7, r1
    2154:	f0000003 			; <UNDEFINED> instruction: 0xf0000003
    2158:	01000003 	tsteq	r0, r3
    215c:	03f05000 	mvnseq	r5, #0
    2160:	04280000 	strteq	r0, [r8], #-0
    2164:	00010000 	andeq	r0, r1, r0
    2168:	00000057 	andeq	r0, r0, r7, asr r0
    216c:	00000000 	andeq	r0, r0, r0
    2170:	0003ac00 	andeq	sl, r3, r0, lsl #24
    2174:	0003c700 	andeq	ip, r3, r0, lsl #14
    2178:	51000100 	mrspl	r0, (UNDEF: 16)
    217c:	000003c7 	andeq	r0, r0, r7, asr #7
    2180:	000003e0 	andeq	r0, r0, r0, ror #7
    2184:	e0550001 	subs	r0, r5, r1
    2188:	f0000003 			; <UNDEFINED> instruction: 0xf0000003
    218c:	01000003 	tsteq	r0, r3
    2190:	03f05100 	mvnseq	r5, #0, 2
    2194:	04280000 	strteq	r0, [r8], #-0
    2198:	00010000 	andeq	r0, r1, r0
    219c:	00000055 	andeq	r0, r0, r5, asr r0
    21a0:	00000000 	andeq	r0, r0, r0
    21a4:	0003ac00 	andeq	sl, r3, r0, lsl #24
    21a8:	0003c700 	andeq	ip, r3, r0, lsl #14
    21ac:	52000100 	andpl	r0, r0, #0, 2
    21b0:	000003c7 	andeq	r0, r0, r7, asr #7
    21b4:	000003e0 	andeq	r0, r0, r0, ror #7
    21b8:	01f30004 	mvnseq	r0, r4
    21bc:	03e09f52 	mvneq	r9, #328	; 0x148
    21c0:	03f00000 	mvnseq	r0, #0
    21c4:	00010000 	andeq	r0, r1, r0
    21c8:	0003f052 	andeq	pc, r3, r2, asr r0	; <UNPREDICTABLE>
    21cc:	00042800 	andeq	r2, r4, r0, lsl #16
    21d0:	76000300 	strvc	r0, [r0], -r0, lsl #6
    21d4:	00009f01 	andeq	r9, r0, r1, lsl #30
    21d8:	00000000 	andeq	r0, r0, r0
    21dc:	03ac0000 			; <UNDEFINED> instruction: 0x03ac0000
    21e0:	03c70000 	biceq	r0, r7, #0
    21e4:	00010000 	andeq	r0, r1, r0
    21e8:	0003c753 	andeq	ip, r3, r3, asr r7
    21ec:	0003e000 	andeq	lr, r3, r0
    21f0:	58000100 	stmdapl	r0, {r8}
    21f4:	000003e0 	andeq	r0, r0, r0, ror #7
    21f8:	000003f0 	strdeq	r0, [r0], -r0	; <UNPREDICTABLE>
    21fc:	f0530001 			; <UNDEFINED> instruction: 0xf0530001
    2200:	28000003 	stmdacs	r0, {r0, r1}
    2204:	01000004 	tsteq	r0, r4
    2208:	00005800 	andeq	r5, r0, r0, lsl #16
    220c:	00000000 	andeq	r0, r0, r0
    2210:	03e80000 	mvneq	r0, #0
    2214:	03f00000 	mvnseq	r0, #0
    2218:	00020000 	andeq	r0, r2, r0
    221c:	03f09f30 	mvnseq	r9, #48, 30	; 0xc0
    2220:	04280000 	strteq	r0, [r8], #-0
    2224:	00010000 	andeq	r0, r1, r0
    2228:	00000054 	andeq	r0, r0, r4, asr r0
    222c:	00000000 	andeq	r0, r0, r0
    2230:	00042800 	andeq	r2, r4, r0, lsl #16
    2234:	00044700 	andeq	r4, r4, r0, lsl #14
    2238:	51000100 	mrspl	r0, (UNDEF: 16)
    223c:	00000447 	andeq	r0, r0, r7, asr #8
    2240:	000004e8 	andeq	r0, r0, r8, ror #9
    2244:	01f30004 	mvnseq	r0, r4
    2248:	00009f51 	andeq	r9, r0, r1, asr pc
    224c:	00000000 	andeq	r0, r0, r0
    2250:	04280000 	strteq	r0, [r8], #-0
    2254:	04470000 	strbeq	r0, [r7], #-0
    2258:	00010000 	andeq	r0, r1, r0
    225c:	00044752 	andeq	r4, r4, r2, asr r7
    2260:	0004e800 	andeq	lr, r4, r0, lsl #16
    2264:	f3000400 	vshl.u8	d0, d0, d0
    2268:	009f5201 	addseq	r5, pc, r1, lsl #4
    226c:	00000000 	andeq	r0, r0, r0
    2270:	28000000 	stmdacs	r0, {}	; <UNPREDICTABLE>
    2274:	47000004 	strmi	r0, [r0, -r4]
    2278:	01000004 	tsteq	r0, r4
    227c:	04475300 	strbeq	r5, [r7], #-768	; 0x300
    2280:	04e80000 	strbteq	r0, [r8], #0
    2284:	00010000 	andeq	r0, r1, r0
    2288:	00000055 	andeq	r0, r0, r5, asr r0
    228c:	00000000 	andeq	r0, r0, r0
    2290:	00046800 	andeq	r6, r4, r0, lsl #16
    2294:	0004a700 	andeq	sl, r4, r0, lsl #14
    2298:	52000100 	andpl	r0, r0, #0, 2
    229c:	000004a7 	andeq	r0, r0, r7, lsr #9
    22a0:	000004c0 	andeq	r0, r0, r0, asr #9
    22a4:	00750006 	rsbseq	r0, r5, r6
    22a8:	9f1e0077 	svcls	0x001e0077
    22ac:	000004c0 	andeq	r0, r0, r0, asr #9
    22b0:	000004e8 	andeq	r0, r0, r8, ror #9
    22b4:	00520001 	subseq	r0, r2, r1
    22b8:	00000000 	andeq	r0, r0, r0
    22bc:	e8000000 	stmda	r0, {}	; <UNPREDICTABLE>
    22c0:	f3000004 	vhadd.u8	d0, d0, d4
    22c4:	01000004 	tsteq	r0, r4
    22c8:	04f35000 	ldrbteq	r5, [r3], #0
    22cc:	05240000 	streq	r0, [r4, #-0]!
    22d0:	00040000 	andeq	r0, r4, r0
    22d4:	9f5001f3 	svcls	0x005001f3
	...
    22e0:	000004f4 	strdeq	r0, [r0], -r4
    22e4:	000004ff 	strdeq	r0, [r0], -pc	; <UNPREDICTABLE>
    22e8:	00500001 	subseq	r0, r0, r1
    22ec:	00000000 	andeq	r0, r0, r0
    22f0:	24000000 	strcs	r0, [r0], #-0
    22f4:	34000005 	strcc	r0, [r0], #-5
    22f8:	01000005 	tsteq	r0, r5
    22fc:	05345000 	ldreq	r5, [r4, #-0]!
    2300:	05500000 	ldrbeq	r0, [r0, #-0]
    2304:	00010000 	andeq	r0, r1, r0
    2308:	00000055 	andeq	r0, r0, r5, asr r0
    230c:	00000000 	andeq	r0, r0, r0
    2310:	00052400 	andeq	r2, r5, r0, lsl #8
    2314:	00053400 	andeq	r3, r5, r0, lsl #8
    2318:	51000100 	mrspl	r0, (UNDEF: 16)
    231c:	00000534 	andeq	r0, r0, r4, lsr r5
    2320:	00000550 	andeq	r0, r0, r0, asr r5
    2324:	00540001 	subseq	r0, r4, r1
    2328:	00000000 	andeq	r0, r0, r0
    232c:	50000000 	andpl	r0, r0, r0
    2330:	6c000005 	stcvs	0, cr0, [r0], {5}
    2334:	01000005 	tsteq	r0, r5
    2338:	056c5000 	strbeq	r5, [ip, #-0]!
    233c:	05bc0000 	ldreq	r0, [ip, #0]!
    2340:	00010000 	andeq	r0, r1, r0
    2344:	0005bc55 	andeq	fp, r5, r5, asr ip
    2348:	0005d400 	andeq	sp, r5, r0, lsl #8
    234c:	f3000400 	vshl.u8	d0, d0, d0
    2350:	009f5001 	addseq	r5, pc, r1
    2354:	00000000 	andeq	r0, r0, r0
    2358:	7c000000 	stcvc	0, cr0, [r0], {-0}
    235c:	8b000005 	blhi	2378 <_start-0x5c88>
    2360:	01000005 	tsteq	r0, r5
    2364:	058b5000 	streq	r5, [fp]
    2368:	05a40000 	streq	r0, [r4, #0]!
    236c:	00010000 	andeq	r0, r1, r0
    2370:	0005a454 	andeq	sl, r5, r4, asr r4
    2374:	0005a800 	andeq	sl, r5, r0, lsl #16
    2378:	50000100 	andpl	r0, r0, r0, lsl #2
    237c:	000005a8 	andeq	r0, r0, r8, lsr #11
    2380:	000005bc 			; <UNDEFINED> instruction: 0x000005bc
    2384:	bc540001 	mrrclt	0, 0, r0, r4, cr1
    2388:	d4000005 	strle	r0, [r0], #-5
    238c:	01000005 	tsteq	r0, r5
    2390:	00005000 	andeq	r5, r0, r0
    2394:	00000000 	andeq	r0, r0, r0
    2398:	05d40000 	ldrbeq	r0, [r4]
    239c:	05e70000 	strbeq	r0, [r7, #0]!
    23a0:	00010000 	andeq	r0, r1, r0
    23a4:	0005e750 	andeq	lr, r5, r0, asr r7
    23a8:	00062000 	andeq	r2, r6, r0
    23ac:	f3000400 	vshl.u8	d0, d0, d0
    23b0:	009f5001 	addseq	r5, pc, r1
    23b4:	00000000 	andeq	r0, r0, r0
    23b8:	d4000000 	strle	r0, [r0], #-0
    23bc:	e7000005 	str	r0, [r0, -r5]
    23c0:	01000005 	tsteq	r0, r5
    23c4:	05e75100 	strbeq	r5, [r7, #256]!	; 0x100
    23c8:	06200000 	strteq	r0, [r0], -r0
    23cc:	00040000 	andeq	r0, r4, r0
    23d0:	9f5101f3 	svcls	0x005101f3
	...
    23dc:	000005d4 	ldrdeq	r0, [r0], -r4
    23e0:	000005e7 	andeq	r0, r0, r7, ror #11
    23e4:	e7520001 	ldrb	r0, [r2, -r1]
    23e8:	20000005 	andcs	r0, r0, r5
    23ec:	04000006 	streq	r0, [r0], #-6
    23f0:	5201f300 	andpl	pc, r1, #0, 6
    23f4:	0000009f 	muleq	r0, pc, r0	; <UNPREDICTABLE>
    23f8:	00000000 	andeq	r0, r0, r0
    23fc:	0005d400 	andeq	sp, r5, r0, lsl #8
    2400:	0005e700 	andeq	lr, r5, r0, lsl #14
    2404:	53000100 	movwpl	r0, #256	; 0x100
    2408:	000005e7 	andeq	r0, r0, r7, ror #11
    240c:	00000620 	andeq	r0, r0, r0, lsr #12
    2410:	01f30004 	mvnseq	r0, r4
    2414:	00009f53 	andeq	r9, r0, r3, asr pc
    2418:	00000000 	andeq	r0, r0, r0
    241c:	05e80000 	strbeq	r0, [r8, #0]!
    2420:	05f30000 	ldrbeq	r0, [r3, #0]!
    2424:	00010000 	andeq	r0, r1, r0
    2428:	00060c50 	andeq	r0, r6, r0, asr ip
    242c:	00062000 	andeq	r2, r6, r0
    2430:	50000100 	andpl	r0, r0, r0, lsl #2
	...
    243c:	000000fc 	strdeq	r0, [r0], -ip
    2440:	00000104 	andeq	r0, r0, r4, lsl #2
    2444:	04500001 	ldrbeq	r0, [r0], #-1
    2448:	28000001 	stmdacs	r0, {r0}
    244c:	01000001 	tsteq	r0, r1
    2450:	00005400 	andeq	r5, r0, r0, lsl #8
    2454:	00000000 	andeq	r0, r0, r0
    2458:	00300000 	eorseq	r0, r0, r0
    245c:	003c0000 	eorseq	r0, ip, r0
    2460:	00020000 	andeq	r0, r2, r0
    2464:	003c9f30 	eorseq	r9, ip, r0, lsr pc
    2468:	00680000 	rsbeq	r0, r8, r0
    246c:	00010000 	andeq	r0, r1, r0
    2470:	00000053 	andeq	r0, r0, r3, asr r0
    2474:	00000000 	andeq	r0, r0, r0
    2478:	00006800 	andeq	r6, r0, r0, lsl #16
    247c:	00007700 	andeq	r7, r0, r0, lsl #14
    2480:	50000100 	andpl	r0, r0, r0, lsl #2
    2484:	00000077 	andeq	r0, r0, r7, ror r0
    2488:	000000ac 	andeq	r0, r0, ip, lsr #1
    248c:	00540001 	subseq	r0, r4, r1
    2490:	00000000 	andeq	r0, r0, r0
    2494:	ac000000 	stcge	0, cr0, [r0], {-0}
    2498:	bb000000 	bllt	24a0 <_start-0x5b60>
    249c:	01000000 	mrseq	r0, (UNDEF: 0)
    24a0:	00bb5000 	adcseq	r5, fp, r0
    24a4:	00f00000 	rscseq	r0, r0, r0
    24a8:	00010000 	andeq	r0, r1, r0
    24ac:	00000054 	andeq	r0, r0, r4, asr r0
    24b0:	00000000 	andeq	r0, r0, r0
    24b4:	0000f000 	andeq	pc, r0, r0
    24b8:	0000ff00 	andeq	pc, r0, r0, lsl #30
    24bc:	50000100 	andpl	r0, r0, r0, lsl #2
    24c0:	000000ff 	strdeq	r0, [r0], -pc	; <UNPREDICTABLE>
    24c4:	00000134 	andeq	r0, r0, r4, lsr r1
    24c8:	00540001 	subseq	r0, r4, r1
    24cc:	00000000 	andeq	r0, r0, r0
    24d0:	34000000 	strcc	r0, [r0], #-0
    24d4:	43000001 	movwmi	r0, #1
    24d8:	01000001 	tsteq	r0, r1
    24dc:	01435000 	mrseq	r5, (UNDEF: 67)
    24e0:	01780000 	cmneq	r8, r0
    24e4:	00010000 	andeq	r0, r1, r0
    24e8:	00000054 	andeq	r0, r0, r4, asr r0
    24ec:	00000000 	andeq	r0, r0, r0
    24f0:	00017800 	andeq	r7, r1, r0, lsl #16
    24f4:	00018700 	andeq	r8, r1, r0, lsl #14
    24f8:	50000100 	andpl	r0, r0, r0, lsl #2
    24fc:	00000187 	andeq	r0, r0, r7, lsl #3
    2500:	000001bc 			; <UNDEFINED> instruction: 0x000001bc
    2504:	00540001 	subseq	r0, r4, r1
    2508:	00000000 	andeq	r0, r0, r0
    250c:	bc000000 	stclt	0, cr0, [r0], {-0}
    2510:	cb000001 	blgt	251c <_start-0x5ae4>
    2514:	01000001 	tsteq	r0, r1
    2518:	01cb5000 	biceq	r5, fp, r0
    251c:	02000000 	andeq	r0, r0, #0
    2520:	00010000 	andeq	r0, r1, r0
    2524:	00000054 	andeq	r0, r0, r4, asr r0
    2528:	00000000 	andeq	r0, r0, r0
	...

Disassembly of section .debug_aranges:

00000000 <.debug_aranges>:
   0:	0000001c 	andeq	r0, r0, ip, lsl r0
   4:	00000002 	andeq	r0, r0, r2
   8:	00040000 	andeq	r0, r4, r0
   c:	00000000 	andeq	r0, r0, r0
  10:	00008010 	andeq	r8, r0, r0, lsl r0
  14:	00000628 	andeq	r0, r0, r8, lsr #12
	...
  20:	0000001c 	andeq	r0, r0, ip, lsl r0
  24:	0da90002 	stceq	0, cr0, [r9, #8]!
  28:	00040000 	andeq	r0, r4, r0
  2c:	00000000 	andeq	r0, r0, r0
  30:	00008638 	andeq	r8, r0, r8, lsr r6
  34:	00000020 	andeq	r0, r0, r0, lsr #32
	...
  40:	0000001c 	andeq	r0, r0, ip, lsl r0
  44:	0e880002 	cdpeq	0, 8, cr0, cr8, cr2, {0}
  48:	00040000 	andeq	r0, r4, r0
  4c:	00000000 	andeq	r0, r0, r0
  50:	00008658 	andeq	r8, r0, r8, asr r6
  54:	00000058 	andeq	r0, r0, r8, asr r0
	...
  60:	0000001c 	andeq	r0, r0, ip, lsl r0
  64:	101d0002 	andsne	r0, sp, r2
  68:	00040000 	andeq	r0, r4, r0
  6c:	00000000 	andeq	r0, r0, r0
  70:	000086b0 			; <UNDEFINED> instruction: 0x000086b0
  74:	0000003c 	andeq	r0, r0, ip, lsr r0
	...
  80:	0000001c 	andeq	r0, r0, ip, lsl r0
  84:	11340002 	teqne	r4, r2
  88:	00040000 	andeq	r0, r4, r0
  8c:	00000000 	andeq	r0, r0, r0
  90:	000086ec 	andeq	r8, r0, ip, ror #13
  94:	00000034 	andeq	r0, r0, r4, lsr r0
	...
  a0:	0000001c 	andeq	r0, r0, ip, lsl r0
  a4:	12260002 	eorne	r0, r6, #2
  a8:	00040000 	andeq	r0, r4, r0
  ac:	00000000 	andeq	r0, r0, r0
  b0:	00008720 	andeq	r8, r0, r0, lsr #14
  b4:	000004f8 	strdeq	r0, [r0], -r8
	...
  c0:	0000001c 	andeq	r0, r0, ip, lsl r0
  c4:	18ab0002 	stmiane	fp!, {r1}
  c8:	00040000 	andeq	r0, r4, r0
  cc:	00000000 	andeq	r0, r0, r0
  d0:	00008c18 	andeq	r8, r0, r8, lsl ip
  d4:	00000028 	andeq	r0, r0, r8, lsr #32
	...
  e0:	0000001c 	andeq	r0, r0, ip, lsl r0
  e4:	19ae0002 	stmibne	lr!, {r1}
  e8:	00040000 	andeq	r0, r4, r0
  ec:	00000000 	andeq	r0, r0, r0
  f0:	00008c40 	andeq	r8, r0, r0, asr #24
  f4:	000000b0 	strheq	r0, [r0], -r0	; <UNPREDICTABLE>
	...
 100:	0000001c 	andeq	r0, r0, ip, lsl r0
 104:	1c9b0002 	ldcne	0, cr0, [fp], {2}
 108:	00040000 	andeq	r0, r4, r0
 10c:	00000000 	andeq	r0, r0, r0
 110:	00008cf0 	strdeq	r8, [r0], -r0
 114:	00000074 	andeq	r0, r0, r4, ror r0
	...
 120:	0000001c 	andeq	r0, r0, ip, lsl r0
 124:	1e4c0002 	cdpne	0, 4, cr0, cr12, cr2, {0}
 128:	00040000 	andeq	r0, r4, r0
 12c:	00000000 	andeq	r0, r0, r0
 130:	00008d64 	andeq	r8, r0, r4, ror #26
 134:	00000088 	andeq	r0, r0, r8, lsl #1
	...
 140:	0000001c 	andeq	r0, r0, ip, lsl r0
 144:	20280002 	eorcs	r0, r8, r2
 148:	00040000 	andeq	r0, r4, r0
 14c:	00000000 	andeq	r0, r0, r0
 150:	00008dec 	andeq	r8, r0, ip, ror #27
 154:	000005bc 			; <UNDEFINED> instruction: 0x000005bc
	...
 160:	0000001c 	andeq	r0, r0, ip, lsl r0
 164:	28fb0002 	ldmcs	fp!, {r1}^
 168:	00040000 	andeq	r0, r4, r0
 16c:	00000000 	andeq	r0, r0, r0
 170:	000093a8 	andeq	r9, r0, r8, lsr #7
 174:	00000620 	andeq	r0, r0, r0, lsr #12
	...
 180:	0000001c 	andeq	r0, r0, ip, lsl r0
 184:	3ac90002 	bcc	ff240194 <__bss_end__+0xff231924>
 188:	00040000 	andeq	r0, r4, r0
 18c:	00000000 	andeq	r0, r0, r0
 190:	000099c8 	andeq	r9, r0, r8, asr #19
 194:	00000154 	andeq	r0, r0, r4, asr r1
	...
 1a0:	0000001c 	andeq	r0, r0, ip, lsl r0
 1a4:	3ecc0002 	cdpcc	0, 12, cr0, cr12, cr2, {0}
 1a8:	00040000 	andeq	r0, r4, r0
 1ac:	00000000 	andeq	r0, r0, r0
 1b0:	00009b1c 	andeq	r9, r0, ip, lsl fp
 1b4:	00000200 	andeq	r0, r0, r0, lsl #4
	...
 1c0:	0000001c 	andeq	r0, r0, ip, lsl r0
 1c4:	445d0002 	ldrbmi	r0, [sp], #-2
 1c8:	00040000 	andeq	r0, r4, r0
 1cc:	00000000 	andeq	r0, r0, r0
 1d0:	00009e58 	andeq	r9, r0, r8, asr lr
 1d4:	00000050 	andeq	r0, r0, r0, asr r0
	...

Disassembly of section .debug_ranges:

00000000 <.debug_ranges>:
   0:	000000f8 	strdeq	r0, [r0], -r8
   4:	00000138 	andeq	r0, r0, r8, lsr r1
   8:	0000013c 	andeq	r0, r0, ip, lsr r1
   c:	00000140 	andeq	r0, r0, r0, asr #2
	...
  18:	000002c4 	andeq	r0, r0, r4, asr #5
  1c:	000002d8 	ldrdeq	r0, [r0], -r8
  20:	000002e4 	andeq	r0, r0, r4, ror #5
  24:	00000320 	andeq	r0, r0, r0, lsr #6
	...
  30:	000002c4 	andeq	r0, r0, r4, asr #5
  34:	000002d0 	ldrdeq	r0, [r0], -r0	; <UNPREDICTABLE>
  38:	000002e4 	andeq	r0, r0, r4, ror #5
  3c:	000002ec 	andeq	r0, r0, ip, ror #5
	...
  48:	000003c8 	andeq	r0, r0, r8, asr #7
  4c:	000003dc 	ldrdeq	r0, [r0], -ip
  50:	000003f4 	strdeq	r0, [r0], -r4
  54:	00000430 	andeq	r0, r0, r0, lsr r4
	...
  60:	000003c8 	andeq	r0, r0, r8, asr #7
  64:	000003d4 	ldrdeq	r0, [r0], -r4
  68:	000003f4 	strdeq	r0, [r0], -r4
  6c:	000003fc 	strdeq	r0, [r0], -ip
	...
  78:	00000294 	muleq	r0, r4, r2
  7c:	00000298 	muleq	r0, r8, r2
  80:	000002c8 	andeq	r0, r0, r8, asr #5
  84:	000004b8 			; <UNDEFINED> instruction: 0x000004b8
	...
  90:	00008cf0 	strdeq	r8, [r0], -r0
  94:	00008d64 	andeq	r8, r0, r4, ror #26
	...

Disassembly of section .debug_line:

00000000 <.debug_line>:
       0:	000003dc 	ldrdeq	r0, [r0], -ip
       4:	02620002 	rsbeq	r0, r2, #2
       8:	01020000 	mrseq	r0, (UNDEF: 2)
       c:	000d0efb 	strdeq	r0, [sp], -fp
      10:	01010101 	tsteq	r1, r1, lsl #2
      14:	01000000 	mrseq	r0, (UNDEF: 0)
      18:	2f010000 	svccs	0x00010000
      1c:	72657355 	rsbvc	r7, r5, #1409286145	; 0x54000001
      20:	72622f73 	rsbvc	r2, r2, #460	; 0x1cc
      24:	6a6e6169 	bvs	1b985d0 <__bss_end__+0x1b89d60>
      28:	442f6e75 	strtmi	r6, [pc], #-3701	; 30 <_start-0x7fd0>
      2c:	746b7365 	strbtvc	r7, [fp], #-869	; 0x365
      30:	732f706f 	teqvc	pc, #111	; 0x6f
      34:	6f6f6863 	svcvs	0x006f6863
      38:	69572f6c 	ldmdbvs	r7, {r2, r3, r5, r6, r8, r9, sl, fp, sp}^
      3c:	7265746e 	rsbvc	r7, r5, #1845493760	; 0x6e000000
      40:	30323931 	eorscc	r3, r2, r1, lsr r9
      44:	3153432f 	cmpcc	r3, pc, lsr #6
      48:	2f453034 	svccs	0x00453034
      4c:	34317363 	ldrtcc	r7, [r1], #-867	; 0x363
      50:	322d6530 	eorcc	r6, sp, #48, 10	; 0xc000000
      54:	6e697730 	mcrvs	7, 3, r7, cr9, cr0, {1}
      58:	62696c2f 	rsbvs	r6, r9, #12032	; 0x2f00
      5c:	6c2f6970 	stcvs	9, cr6, [pc], #-448	; fffffea4 <__bss_end__+0xffff1634>
      60:	00636269 	rsbeq	r6, r3, r9, ror #4
      64:	7273752f 	rsbsvc	r7, r3, #197132288	; 0xbc00000
      68:	636f6c2f 	cmnvs	pc, #12032	; 0x2f00
      6c:	432f6c61 	teqmi	pc, #24832	; 0x6100
      70:	616c6c65 	cmnvs	ip, r5, ror #24
      74:	72612f72 	rsbvc	r2, r1, #456	; 0x1c8
      78:	6f6e2d6d 	svcvs	0x006e2d6d
      7c:	652d656e 	strvs	r6, [sp, #-1390]!	; 0x56e
      80:	2f696261 	svccs	0x00696261
      84:	2e382e34 	mrccs	14, 1, r2, cr8, cr4, {1}
      88:	73632d33 	cmnvc	r3, #3264	; 0xcc0
      8c:	65303731 	ldrvs	r3, [r0, #-1841]!	; 0x731
      90:	62696c2f 	rsbvs	r6, r9, #12032	; 0x2f00
      94:	6363672f 	cmnvs	r3, #12320768	; 0xbc0000
      98:	6d72612f 	ldfvse	f6, [r2, #-188]!	; 0xffffff44
      9c:	6e6f6e2d 	cdpvs	14, 6, cr6, cr15, cr13, {1}
      a0:	61652d65 	cmnvs	r5, r5, ror #26
      a4:	342f6962 	strtcc	r6, [pc], #-2402	; ac <_start-0x7f54>
      a8:	332e382e 	teqcc	lr, #3014656	; 0x2e0000
      ac:	636e692f 	cmnvs	lr, #770048	; 0xbc000
      b0:	6564756c 	strbvs	r7, [r4, #-1388]!	; 0x56c
      b4:	73552f00 	cmpvc	r5, #0, 30
      b8:	2f737265 	svccs	0x00737265
      bc:	61697262 	cmnvs	r9, r2, ror #4
      c0:	6e756a6e 	vsubvs.f32	s13, s10, s29
      c4:	7365442f 	cmnvc	r5, #788529152	; 0x2f000000
      c8:	706f746b 	rsbvc	r7, pc, fp, ror #8
      cc:	6863732f 	stmdavs	r3!, {r0, r1, r2, r3, r5, r8, r9, ip, sp, lr}^
      d0:	2f6c6f6f 	svccs	0x006c6f6f
      d4:	746e6957 	strbtvc	r6, [lr], #-2391	; 0x957
      d8:	39317265 	ldmdbcc	r1!, {r0, r2, r5, r6, r9, ip, sp, lr}
      dc:	432f3032 	teqmi	pc, #50	; 0x32
      e0:	30343153 	eorscc	r3, r4, r3, asr r1
      e4:	73632f45 	cmnvc	r3, #276	; 0x114
      e8:	65303431 	ldrvs	r3, [r0, #-1073]!	; 0x431
      ec:	7730322d 	ldrvc	r3, [r0, -sp, lsr #4]!
      f0:	6c2f6e69 	stcvs	14, cr6, [pc], #-420	; ffffff54 <__bss_end__+0xffff16e4>
      f4:	69706269 	ldmdbvs	r0!, {r0, r3, r5, r6, r9, sp, lr}^
      f8:	3173632f 	cmncc	r3, pc, lsr #6
      fc:	2d653034 	stclcs	0, cr3, [r5, #-208]!	; 0xffffff30
     100:	00637273 	rsbeq	r7, r3, r3, ror r2
     104:	6573552f 	ldrbvs	r5, [r3, #-1327]!	; 0x52f
     108:	622f7372 	eorvs	r7, pc, #-939524095	; 0xc8000001
     10c:	6e616972 	mcrvs	9, 3, r6, cr1, cr2, {3}
     110:	2f6e756a 	svccs	0x006e756a
     114:	6b736544 	blvs	1cd962c <__bss_end__+0x1ccadbc>
     118:	2f706f74 	svccs	0x00706f74
     11c:	6f686373 	svcvs	0x00686373
     120:	572f6c6f 	strpl	r6, [pc, -pc, ror #24]!
     124:	65746e69 	ldrbvs	r6, [r4, #-3689]!	; 0xe69
     128:	32393172 	eorscc	r3, r9, #-2147483620	; 0x8000001c
     12c:	53432f30 	movtpl	r2, #16176	; 0x3f30
     130:	45303431 	ldrmi	r3, [r0, #-1073]!	; 0x431
     134:	3173632f 	cmncc	r3, pc, lsr #6
     138:	2d653034 	stclcs	0, cr3, [r5, #-208]!	; 0xffffff30
     13c:	69773032 	ldmdbvs	r7!, {r1, r4, r5, ip, sp}^
     140:	696c2f6e 	stmdbvs	ip!, {r1, r2, r3, r5, r6, r8, r9, sl, fp, sp}^
     144:	2f697062 	svccs	0x00697062
     148:	34317363 	ldrtcc	r7, [r1], #-867	; 0x363
     14c:	692d6530 	pushvs	{r4, r5, r8, sl, sp, lr}
     150:	7265746e 	rsbvc	r7, r5, #1845493760	; 0x6e000000
     154:	74707572 	ldrbtvc	r7, [r0], #-1394	; 0x572
     158:	73752f00 	cmnvc	r5, #0, 30
     15c:	6f6c2f72 	svcvs	0x006c2f72
     160:	2f6c6163 	svccs	0x006c6163
     164:	6c6c6543 	cfstr64vs	mvdx6, [ip], #-268	; 0xfffffef4
     168:	612f7261 	teqvs	pc, r1, ror #4
     16c:	6e2d6d72 	mcrvs	13, 1, r6, cr13, cr2, {3}
     170:	2d656e6f 	stclcs	14, cr6, [r5, #-444]!	; 0xfffffe44
     174:	69626165 	stmdbvs	r2!, {r0, r2, r5, r6, r8, sp, lr}^
     178:	382e342f 	stmdacc	lr!, {r0, r1, r2, r3, r5, sl, ip, sp}
     17c:	632d332e 	teqvs	sp, #-1207959552	; 0xb8000000
     180:	30373173 	eorscc	r3, r7, r3, ror r1
     184:	72612f65 	rsbvc	r2, r1, #404	; 0x194
     188:	6f6e2d6d 	svcvs	0x006e2d6d
     18c:	652d656e 	strvs	r6, [sp, #-1390]!	; 0x56e
     190:	2f696261 	svccs	0x00696261
     194:	6c636e69 	stclvs	14, cr6, [r3], #-420	; 0xfffffe5c
     198:	00656475 	rsbeq	r6, r5, r5, ror r4
     19c:	6573552f 	ldrbvs	r5, [r3, #-1327]!	; 0x52f
     1a0:	622f7372 	eorvs	r7, pc, #-939524095	; 0xc8000001
     1a4:	6e616972 	mcrvs	9, 3, r6, cr1, cr2, {3}
     1a8:	2f6e756a 	svccs	0x006e756a
     1ac:	6b736544 	blvs	1cd96c4 <__bss_end__+0x1ccae54>
     1b0:	2f706f74 	svccs	0x00706f74
     1b4:	6f686373 	svcvs	0x00686373
     1b8:	572f6c6f 	strpl	r6, [pc, -pc, ror #24]!
     1bc:	65746e69 	ldrbvs	r6, [r4, #-3689]!	; 0xe69
     1c0:	32393172 	eorscc	r3, r9, #-2147483620	; 0x8000001c
     1c4:	53432f30 	movtpl	r2, #16176	; 0x3f30
     1c8:	45303431 	ldrmi	r3, [r0, #-1073]!	; 0x431
     1cc:	3173632f 	cmncc	r3, pc, lsr #6
     1d0:	2d653034 	stclcs	0, cr3, [r5, #-208]!	; 0xffffff30
     1d4:	69773032 	ldmdbvs	r7!, {r1, r4, r5, ip, sp}^
     1d8:	696c2f6e 	stmdbvs	ip!, {r1, r2, r3, r5, r6, r8, r9, sl, fp, sp}^
     1dc:	00697062 	rsbeq	r7, r9, r2, rrx
     1e0:	72696300 	rsbvc	r6, r9, #0, 6
     1e4:	616c7563 	cmnvs	ip, r3, ror #10
     1e8:	00682e72 	rsbeq	r2, r8, r2, ror lr
     1ec:	75000001 	strvc	r0, [r0, #-1]
     1f0:	2d747261 	lfmcs	f7, 2, [r4, #-388]!	; 0xfffffe7c
     1f4:	2e746e69 	cdpcs	14, 7, cr6, cr4, cr9, {3}
     1f8:	00000063 	andeq	r0, r0, r3, rrx
     1fc:	64747300 	ldrbtvs	r7, [r4], #-768	; 0x300
     200:	2e666564 	cdpcs	5, 6, cr6, cr6, cr4, {3}
     204:	00020068 	andeq	r0, r2, r8, rrx
     208:	64747300 	ldrbtvs	r7, [r4], #-768	; 0x300
     20c:	2d746e69 	ldclcs	14, cr6, [r4, #-420]!	; 0xfffffe5c
     210:	2e636367 	cdpcs	3, 6, cr6, cr3, cr7, {3}
     214:	00020068 	andeq	r0, r2, r8, rrx
     218:	69706700 	ldmdbvs	r0!, {r8, r9, sl, sp, lr}^
     21c:	00682e6f 	rsbeq	r2, r8, pc, ror #28
     220:	72000003 	andvc	r0, r0, #3
     224:	612d6970 	teqvs	sp, r0, ror r9
     228:	69746d72 	ldmdbvs	r4!, {r1, r4, r5, r6, r8, sl, fp, sp, lr}^
     22c:	2e72656d 	cdpcs	5, 7, cr6, cr2, cr13, {3}
     230:	00040068 	andeq	r0, r4, r8, rrx
     234:	2d777300 	ldclcs	3, cr7, [r7, #-0]
     238:	74726175 	ldrbtvc	r6, [r2], #-373	; 0x175
     23c:	0300682e 	movweq	r6, #2094	; 0x82e
     240:	74730000 	ldrbtvc	r0, [r3], #-0
     244:	676e6972 			; <UNDEFINED> instruction: 0x676e6972
     248:	0500682e 	streq	r6, [r0, #-2094]	; 0x82e
     24c:	70720000 	rsbsvc	r0, r2, r0
     250:	00682e69 	rsbeq	r2, r8, r9, ror #28
     254:	72000006 	andvc	r0, r0, #6
     258:	692d6970 	pushvs	{r4, r5, r6, r8, fp, sp, lr}
     25c:	7265746e 	rsbvc	r7, r5, #1845493760	; 0x6e000000
     260:	74707572 	ldrbtvc	r7, [r0], #-1394	; 0x572
     264:	00682e73 	rsbeq	r2, r8, r3, ror lr
     268:	00000004 	andeq	r0, r0, r4
     26c:	10020500 	andne	r0, r2, r0, lsl #10
     270:	03000080 	movweq	r0, #128	; 0x80
     274:	67010198 			; <UNDEFINED> instruction: 0x67010198
     278:	4b9f6767 	blmi	fe7da01c <__bss_end__+0xfe7cb7ac>
     27c:	ba7f9b03 	blt	1fe6e90 <__bss_end__+0x1fd8620>
     280:	4a00e603 	bmi	39a94 <__bss_end__+0x2b224>
     284:	01040200 	mrseq	r0, R12_usr
     288:	03064a06 	movweq	r4, #27142	; 0x6a06
     28c:	03d67f9d 	bicseq	r7, r6, #628	; 0x274
     290:	00ba00e4 	adcseq	r0, sl, r4, ror #1
     294:	06010402 	streq	r0, [r1], -r2, lsl #8
     298:	9e03064a 	cfmadd32ls	mvax2, mvfx0, mvfx3, mvfx10
     29c:	e303d67f 	movw	sp, #13951	; 0x367f
     2a0:	02009e00 	andeq	r9, r0, #0, 28
     2a4:	4a060104 	bmi	1806bc <__bss_end__+0x171e4c>
     2a8:	7f980306 	svcvc	0x00980306
     2ac:	820a03d6 	andhi	r0, sl, #1476395011	; 0x58000003
     2b0:	834b4b4c 	movthi	r4, #47948	; 0xbb4c
     2b4:	4a00da03 	bmi	36ac8 <__bss_end__+0x28258>
     2b8:	2e7fa203 	cdpcs	2, 7, cr10, cr15, cr3, {0}
     2bc:	2e00df03 	cdpcs	15, 0, cr13, cr0, cr3, {0}
     2c0:	01040200 	mrseq	r0, R12_usr
     2c4:	00664a06 	rsbeq	r4, r6, r6, lsl #20
     2c8:	66040402 	strvs	r0, [r4], -r2, lsl #8
     2cc:	01040200 	mrseq	r0, R12_usr
     2d0:	0602044a 	streq	r0, [r2], -sl, asr #8
     2d4:	027f9203 	rsbseq	r9, pc, #805306368	; 0x30000000
     2d8:	01040126 	tsteq	r4, r6, lsr #2
     2dc:	9c020416 	cfstrsls	mvf0, [r2], {22}
     2e0:	672f4ba0 	strvs	r4, [pc, -r0, lsr #23]!
     2e4:	6d68854b 	cfstr64vs	mvdx8, [r8, #-300]!	; 0xfffffed4
     2e8:	30694b31 	rsbcc	r4, r9, r1, lsr fp
     2ec:	03330104 	teqeq	r3, #4, 2
     2f0:	1c032e65 	stcne	14, cr2, [r3], {101}	; 0x65
     2f4:	002f4c82 	eoreq	r4, pc, r2, lsl #25
     2f8:	03010402 	movweq	r0, #5122	; 0x1402
     2fc:	02049e61 	andeq	r9, r4, #1552	; 0x610
     300:	01040200 	mrseq	r0, R12_usr
     304:	00d61303 	sbcseq	r1, r6, r3, lsl #6
     308:	06020402 	streq	r0, [r2], -r2, lsl #8
     30c:	6889064a 	stmvs	r9, {r1, r3, r6, r9, sl}
     310:	02000104 	andeq	r0, r0, #4, 2
     314:	61030104 	tstvs	r3, r4, lsl #2
     318:	04020066 	streq	r0, [r2], #-102	; 0x66
     31c:	660b0301 	strvs	r0, [fp], -r1, lsl #6
     320:	01040200 	mrseq	r0, R12_usr
     324:	00020432 	andeq	r0, r2, r2, lsr r4
     328:	03010402 	movweq	r0, #5122	; 0x1402
     32c:	01042e0f 	tsteq	r4, pc, lsl #28
     330:	03666203 	cmneq	r6, #805306368	; 0x30000000
     334:	2f4c4a0a 	svccs	0x004c4a0a
     338:	04468367 	strbeq	r8, [r6], #-871	; 0x367
     33c:	2e130302 	cdpcs	3, 1, cr0, cr3, cr2, {0}
     340:	62030104 	andvs	r0, r3, #4, 2
     344:	0302044a 	movweq	r0, #9290	; 0x244a
     348:	084b9e22 	stmdaeq	fp, {r1, r5, r9, sl, fp, ip, pc}^
     34c:	01044b41 	tsteq	r4, r1, asr #22
     350:	032e7503 	teqeq	lr, #12582912	; 0xc00000
     354:	1c036665 	stcne	6, cr6, [r3], {101}	; 0x65
     358:	04674c9e 	strbteq	r4, [r7], #-3230	; 0xc9e
     35c:	9e090302 	cdpls	3, 0, cr0, cr9, cr2, {0}
     360:	55030104 	strpl	r0, [r3, #-260]	; 0x104
     364:	660b034a 	strvs	r0, [fp], -sl, asr #6
     368:	03020432 	movweq	r0, #9266	; 0x2432
     36c:	002f2e1f 	eoreq	r2, pc, pc, lsl lr	; <UNPREDICTABLE>
     370:	49010402 	stmdbmi	r1, {r1, sl}
     374:	52030104 	andpl	r0, r3, #4, 2
     378:	4a0a0366 	bmi	281118 <__bss_end__+0x2728a8>
     37c:	83672f4c 	cmnhi	r7, #76, 30	; 0x130
     380:	03020446 	movweq	r0, #9286	; 0x2446
     384:	a14e2e23 	cmpge	lr, r3, lsr #28
     388:	03010430 	movweq	r0, #5168	; 0x1430
     38c:	02042e49 	andeq	r2, r4, #1168	; 0x490
     390:	049e3903 	ldreq	r3, [lr], #2307	; 0x903
     394:	4a470301 	bmi	11c0fa0 <__bss_end__+0x11b2730>
     398:	4c820a03 	vstmiami	r2, {s0-s2}
     39c:	02044b67 	andeq	r4, r4, #105472	; 0x19c00
     3a0:	6a9e2a03 	bvs	fe78abb4 <__bss_end__+0xfe77c344>
     3a4:	004ba031 	subeq	sl, fp, r1, lsr r0
     3a8:	2f020402 	svccs	0x00020402
     3ac:	02040200 	andeq	r0, r4, #0, 4
     3b0:	0402002d 	streq	r0, [r2], #-45	; 0x2d
     3b4:	062e0601 	strteq	r0, [lr], -r1, lsl #12
     3b8:	312f3068 	teqcc	pc, r8, rrx
     3bc:	bc306867 	ldclt	8, cr6, [r0], #-412	; 0xfffffe64
     3c0:	67678330 			; <UNDEFINED> instruction: 0x67678330
     3c4:	68696767 	stmdavs	r9!, {r0, r1, r2, r5, r6, r8, r9, sl, sp, lr}^
     3c8:	2f2f2408 	svccs	0x002f2408
     3cc:	09036730 	stmdbeq	r3, {r4, r5, r8, r9, sl, sp, lr}
     3d0:	30306866 	eorscc	r6, r0, r6, ror #16
     3d4:	02006931 	andeq	r6, r0, #802816	; 0xc4000
     3d8:	02650104 	rsbeq	r0, r5, #4, 2
     3dc:	01010010 	tsteq	r1, r0, lsl r0
     3e0:	000000ec 	andeq	r0, r0, ip, ror #1
     3e4:	00d00002 	sbcseq	r0, r0, r2
     3e8:	01020000 	mrseq	r0, (UNDEF: 2)
     3ec:	000d0efb 	strdeq	r0, [sp], -fp
     3f0:	01010101 	tsteq	r1, r1, lsl #2
     3f4:	01000000 	mrseq	r0, (UNDEF: 0)
     3f8:	6c010000 	stcvs	0, cr0, [r1], {-0}
     3fc:	00636269 	rsbeq	r6, r3, r9, ror #4
     400:	7273752f 	rsbsvc	r7, r3, #197132288	; 0xbc00000
     404:	636f6c2f 	cmnvs	pc, #12032	; 0x2f00
     408:	432f6c61 	teqmi	pc, #24832	; 0x6100
     40c:	616c6c65 	cmnvs	ip, r5, ror #24
     410:	72612f72 	rsbvc	r2, r1, #456	; 0x1c8
     414:	6f6e2d6d 	svcvs	0x006e2d6d
     418:	652d656e 	strvs	r6, [sp, #-1390]!	; 0x56e
     41c:	2f696261 	svccs	0x00696261
     420:	2e382e34 	mrccs	14, 1, r2, cr8, cr4, {1}
     424:	73632d33 	cmnvc	r3, #3264	; 0xcc0
     428:	65303731 	ldrvs	r3, [r0, #-1841]!	; 0x731
     42c:	62696c2f 	rsbvs	r6, r9, #12032	; 0x2f00
     430:	6363672f 	cmnvs	r3, #12320768	; 0xbc0000
     434:	6d72612f 	ldfvse	f6, [r2, #-188]!	; 0xffffff44
     438:	6e6f6e2d 	cdpvs	14, 6, cr6, cr15, cr13, {1}
     43c:	61652d65 	cmnvs	r5, r5, ror #26
     440:	342f6962 	strtcc	r6, [pc], #-2402	; 448 <_start-0x7bb8>
     444:	332e382e 	teqcc	lr, #3014656	; 0x2e0000
     448:	636e692f 	cmnvs	lr, #770048	; 0xbc000
     44c:	6564756c 	strbvs	r7, [r4, #-1388]!	; 0x56c
     450:	73752f00 	cmnvc	r5, #0, 30
     454:	6f6c2f72 	svcvs	0x006c2f72
     458:	2f6c6163 	svccs	0x006c6163
     45c:	6c6c6543 	cfstr64vs	mvdx6, [ip], #-268	; 0xfffffef4
     460:	612f7261 	teqvs	pc, r1, ror #4
     464:	6e2d6d72 	mcrvs	13, 1, r6, cr13, cr2, {3}
     468:	2d656e6f 	stclcs	14, cr6, [r5, #-444]!	; 0xfffffe44
     46c:	69626165 	stmdbvs	r2!, {r0, r2, r5, r6, r8, sp, lr}^
     470:	382e342f 	stmdacc	lr!, {r0, r1, r2, r3, r5, sl, ip, sp}
     474:	632d332e 	teqvs	sp, #-1207959552	; 0xb8000000
     478:	30373173 	eorscc	r3, r7, r3, ror r1
     47c:	72612f65 	rsbvc	r2, r1, #404	; 0x194
     480:	6f6e2d6d 	svcvs	0x006e2d6d
     484:	652d656e 	strvs	r6, [sp, #-1390]!	; 0x56e
     488:	2f696261 	svccs	0x00696261
     48c:	6c636e69 	stclvs	14, cr6, [r3], #-420	; 0xfffffe5c
     490:	00656475 	rsbeq	r6, r5, r5, ror r4
     494:	6d656d00 	stclvs	13, cr6, [r5, #-0]
     498:	2e746573 	mrccs	5, 3, r6, cr4, cr3, {3}
     49c:	00010063 	andeq	r0, r1, r3, rrx
     4a0:	64747300 	ldrbtvs	r7, [r4], #-768	; 0x300
     4a4:	2e666564 	cdpcs	5, 6, cr6, cr6, cr4, {3}
     4a8:	00020068 	andeq	r0, r2, r8, rrx
     4ac:	72747300 	rsbsvc	r7, r4, #0, 6
     4b0:	2e676e69 	cdpcs	14, 6, cr6, cr7, cr9, {3}
     4b4:	00030068 	andeq	r0, r3, r8, rrx
     4b8:	05000000 	streq	r0, [r0, #-0]
     4bc:	00863802 	addeq	r3, r6, r2, lsl #16
     4c0:	4c131400 	cfldrsmi	mvf1, [r3], {-0}
     4c4:	0402002f 	streq	r0, [r2], #-47	; 0x2f
     4c8:	024d4901 	subeq	r4, sp, #16384	; 0x4000
     4cc:	01010002 	tsteq	r1, r2
     4d0:	00000102 	andeq	r0, r0, r2, lsl #2
     4d4:	00eb0002 	rsceq	r0, fp, r2
     4d8:	01020000 	mrseq	r0, (UNDEF: 2)
     4dc:	000d0efb 	strdeq	r0, [sp], -fp
     4e0:	01010101 	tsteq	r1, r1, lsl #2
     4e4:	01000000 	mrseq	r0, (UNDEF: 0)
     4e8:	6c010000 	stcvs	0, cr0, [r1], {-0}
     4ec:	00636269 	rsbeq	r6, r3, r9, ror #4
     4f0:	7273752f 	rsbsvc	r7, r3, #197132288	; 0xbc00000
     4f4:	636f6c2f 	cmnvs	pc, #12032	; 0x2f00
     4f8:	432f6c61 	teqmi	pc, #24832	; 0x6100
     4fc:	616c6c65 	cmnvs	ip, r5, ror #24
     500:	72612f72 	rsbvc	r2, r1, #456	; 0x1c8
     504:	6f6e2d6d 	svcvs	0x006e2d6d
     508:	652d656e 	strvs	r6, [sp, #-1390]!	; 0x56e
     50c:	2f696261 	svccs	0x00696261
     510:	2e382e34 	mrccs	14, 1, r2, cr8, cr4, {1}
     514:	73632d33 	cmnvc	r3, #3264	; 0xcc0
     518:	65303731 	ldrvs	r3, [r0, #-1841]!	; 0x731
     51c:	62696c2f 	rsbvs	r6, r9, #12032	; 0x2f00
     520:	6363672f 	cmnvs	r3, #12320768	; 0xbc0000
     524:	6d72612f 	ldfvse	f6, [r2, #-188]!	; 0xffffff44
     528:	6e6f6e2d 	cdpvs	14, 6, cr6, cr15, cr13, {1}
     52c:	61652d65 	cmnvs	r5, r5, ror #26
     530:	342f6962 	strtcc	r6, [pc], #-2402	; 538 <_start-0x7ac8>
     534:	332e382e 	teqcc	lr, #3014656	; 0x2e0000
     538:	636e692f 	cmnvs	lr, #770048	; 0xbc000
     53c:	6564756c 	strbvs	r7, [r4, #-1388]!	; 0x56c
     540:	73552f00 	cmpvc	r5, #0, 30
     544:	2f737265 	svccs	0x00737265
     548:	61697262 	cmnvs	r9, r2, ror #4
     54c:	6e756a6e 	vsubvs.f32	s13, s10, s29
     550:	7365442f 	cmnvc	r5, #788529152	; 0x2f000000
     554:	706f746b 	rsbvc	r7, pc, fp, ror #8
     558:	6863732f 	stmdavs	r3!, {r0, r1, r2, r3, r5, r8, r9, ip, sp, lr}^
     55c:	2f6c6f6f 	svccs	0x006c6f6f
     560:	746e6957 	strbtvc	r6, [lr], #-2391	; 0x957
     564:	39317265 	ldmdbcc	r1!, {r0, r2, r5, r6, r9, ip, sp, lr}
     568:	432f3032 	teqmi	pc, #50	; 0x32
     56c:	30343153 	eorscc	r3, r4, r3, asr r1
     570:	73632f45 	cmnvc	r3, #276	; 0x114
     574:	65303431 	ldrvs	r3, [r0, #-1073]!	; 0x431
     578:	7730322d 	ldrvc	r3, [r0, -sp, lsr #4]!
     57c:	6c2f6e69 	stcvs	14, cr6, [pc], #-420	; 3e0 <_start-0x7c20>
     580:	69706269 	ldmdbvs	r0!, {r0, r3, r5, r6, r9, sp, lr}^
     584:	72700000 	rsbsvc	r0, r0, #0
     588:	6b746e69 	blvs	1d1bf34 <__bss_end__+0x1d0d6c4>
     58c:	0100632e 	tsteq	r0, lr, lsr #6
     590:	74730000 	ldrbtvc	r0, [r3], #-0
     594:	67726164 	ldrbvs	r6, [r2, -r4, ror #2]!
     598:	0200682e 	andeq	r6, r0, #3014656	; 0x2e0000
     59c:	623c0000 	eorsvs	r0, ip, #0
     5a0:	746c6975 	strbtvc	r6, [ip], #-2421	; 0x975
     5a4:	3e6e692d 	cdpcc	9, 6, cr6, cr14, cr13, {1}
     5a8:	00000000 	andeq	r0, r0, r0
     5ac:	2e697072 	mcrcs	0, 3, r7, cr9, cr2, {3}
     5b0:	00030068 	andeq	r0, r3, r8, rrx
     5b4:	2d617600 	stclcs	6, cr7, [r1, #-0]
     5b8:	6e697270 	mcrvs	2, 3, r7, cr9, cr0, {3}
     5bc:	682e6b74 	stmdavs	lr!, {r2, r4, r5, r6, r8, r9, fp, sp, lr}
     5c0:	00000100 	andeq	r0, r0, r0, lsl #2
     5c4:	02050000 	andeq	r0, r5, #0
     5c8:	00008658 	andeq	r8, r0, r8, asr r6
     5cc:	bf4b6b17 	svclt	0x004b6b17
     5d0:	000e0289 	andeq	r0, lr, r9, lsl #5
     5d4:	008a0101 	addeq	r0, sl, r1, lsl #2
     5d8:	00020000 	andeq	r0, r2, r0
     5dc:	00000072 	andeq	r0, r0, r2, ror r0
     5e0:	0efb0102 	cdpeq	1, 15, cr0, cr11, cr2, {0}
     5e4:	0101000d 	tsteq	r1, sp
     5e8:	00000101 	andeq	r0, r0, r1, lsl #2
     5ec:	00000100 	andeq	r0, r0, r0, lsl #2
     5f0:	62696c01 	rsbvs	r6, r9, #256	; 0x100
     5f4:	552f0063 	strpl	r0, [pc, #-99]!	; 599 <_start-0x7a67>
     5f8:	73726573 	cmnvc	r2, #482344960	; 0x1cc00000
     5fc:	6972622f 	ldmdbvs	r2!, {r0, r1, r2, r3, r5, r9, sp, lr}^
     600:	756a6e61 	strbvc	r6, [sl, #-3681]!	; 0xe61
     604:	65442f6e 	strbvs	r2, [r4, #-3950]	; 0xf6e
     608:	6f746b73 	svcvs	0x00746b73
     60c:	63732f70 	cmnvs	r3, #112, 30	; 0x1c0
     610:	6c6f6f68 	stclvs	15, cr6, [pc], #-416	; 478 <_start-0x7b88>
     614:	6e69572f 	cdpvs	7, 6, cr5, cr9, cr15, {1}
     618:	31726574 	cmncc	r2, r4, ror r5
     61c:	2f303239 	svccs	0x00303239
     620:	34315343 	ldrtcc	r5, [r1], #-835	; 0x343
     624:	632f4530 	teqvs	pc, #48, 10	; 0xc000000
     628:	30343173 	eorscc	r3, r4, r3, ror r1
     62c:	30322d65 	eorscc	r2, r2, r5, ror #26
     630:	2f6e6977 	svccs	0x006e6977
     634:	7062696c 	rsbvc	r6, r2, ip, ror #18
     638:	70000069 	andvc	r0, r0, r9, rrx
     63c:	68637475 	stmdavs	r3!, {r0, r2, r4, r5, r6, sl, ip, sp, lr}^
     640:	632e7261 	teqvs	lr, #268435462	; 0x10000006
     644:	00000100 	andeq	r0, r0, r0, lsl #2
     648:	2e697072 	mcrcs	0, 3, r7, cr9, cr2, {3}
     64c:	00020068 	andeq	r0, r2, r8, rrx
     650:	05000000 	streq	r0, [r0, #-0]
     654:	0086b002 	addeq	fp, r6, r2
     658:	6b4a1400 	blvs	1285660 <__bss_end__+0x1276df0>
     65c:	0213bc13 	andseq	fp, r3, #4864	; 0x1300
     660:	01010008 	tsteq	r1, r8
     664:	00000096 	muleq	r0, r6, r0
     668:	006f0002 	rsbeq	r0, pc, r2
     66c:	01020000 	mrseq	r0, (UNDEF: 2)
     670:	000d0efb 	strdeq	r0, [sp], -fp
     674:	01010101 	tsteq	r1, r1, lsl #2
     678:	01000000 	mrseq	r0, (UNDEF: 0)
     67c:	6c010000 	stcvs	0, cr0, [r1], {-0}
     680:	00636269 	rsbeq	r6, r3, r9, ror #4
     684:	6573552f 	ldrbvs	r5, [r3, #-1327]!	; 0x52f
     688:	622f7372 	eorvs	r7, pc, #-939524095	; 0xc8000001
     68c:	6e616972 	mcrvs	9, 3, r6, cr1, cr2, {3}
     690:	2f6e756a 	svccs	0x006e756a
     694:	6b736544 	blvs	1cd9bac <__bss_end__+0x1ccb33c>
     698:	2f706f74 	svccs	0x00706f74
     69c:	6f686373 	svcvs	0x00686373
     6a0:	572f6c6f 	strpl	r6, [pc, -pc, ror #24]!
     6a4:	65746e69 	ldrbvs	r6, [r4, #-3689]!	; 0xe69
     6a8:	32393172 	eorscc	r3, r9, #-2147483620	; 0x8000001c
     6ac:	53432f30 	movtpl	r2, #16176	; 0x3f30
     6b0:	45303431 	ldrmi	r3, [r0, #-1073]!	; 0x431
     6b4:	3173632f 	cmncc	r3, pc, lsr #6
     6b8:	2d653034 	stclcs	0, cr3, [r5, #-208]!	; 0xffffff30
     6bc:	69773032 	ldmdbvs	r7!, {r1, r4, r5, ip, sp}^
     6c0:	696c2f6e 	stmdbvs	ip!, {r1, r2, r3, r5, r6, r8, r9, sl, fp, sp}^
     6c4:	00697062 	rsbeq	r7, r9, r2, rrx
     6c8:	74757000 	ldrbtvc	r7, [r5], #-0
     6cc:	00632e6b 	rsbeq	r2, r3, fp, ror #28
     6d0:	72000001 	andvc	r0, r0, #1
     6d4:	682e6970 	stmdavs	lr!, {r4, r5, r6, r8, fp, sp, lr}
     6d8:	00000200 	andeq	r0, r0, r0, lsl #4
     6dc:	02050000 	andeq	r0, r5, #0
     6e0:	000086ec 	andeq	r8, r0, ip, ror #13
     6e4:	002d4c15 	eoreq	r4, sp, r5, lsl ip
     6e8:	2f020402 	svccs	0x00020402
     6ec:	02040200 	andeq	r0, r4, #0, 4
     6f0:	04020049 	streq	r0, [r2], #-73	; 0x49
     6f4:	062e0601 	strteq	r0, [lr], -r1, lsl #12
     6f8:	0006026b 	andeq	r0, r6, fp, ror #4
     6fc:	01de0101 	bicseq	r0, lr, r1, lsl #2
     700:	00020000 	andeq	r0, r2, r0
     704:	000000df 	ldrdeq	r0, [r0], -pc	; <UNPREDICTABLE>
     708:	0efb0102 	cdpeq	1, 15, cr0, cr11, cr2, {0}
     70c:	0101000d 	tsteq	r1, sp
     710:	00000101 	andeq	r0, r0, r1, lsl #2
     714:	00000100 	andeq	r0, r0, r0, lsl #2
     718:	62696c01 	rsbvs	r6, r9, #256	; 0x100
     71c:	752f0063 	strvc	r0, [pc, #-99]!	; 6c1 <_start-0x793f>
     720:	6c2f7273 	sfmvs	f7, 4, [pc], #-460	; 55c <_start-0x7aa4>
     724:	6c61636f 	stclvs	3, cr6, [r1], #-444	; 0xfffffe44
     728:	6c65432f 	stclvs	3, cr4, [r5], #-188	; 0xffffff44
     72c:	2f72616c 	svccs	0x0072616c
     730:	2d6d7261 	sfmcs	f7, 2, [sp, #-388]!	; 0xfffffe7c
     734:	656e6f6e 	strbvs	r6, [lr, #-3950]!	; 0xf6e
     738:	6261652d 	rsbvs	r6, r1, #188743680	; 0xb400000
     73c:	2e342f69 	cdpcs	15, 3, cr2, cr4, cr9, {3}
     740:	2d332e38 	ldccs	14, cr2, [r3, #-224]!	; 0xffffff20
     744:	37317363 	ldrcc	r7, [r1, -r3, ror #6]!
     748:	6c2f6530 	cfstr32vs	mvfx6, [pc], #-192	; 690 <_start-0x7970>
     74c:	672f6269 	strvs	r6, [pc, -r9, ror #4]!
     750:	612f6363 	teqvs	pc, r3, ror #6
     754:	6e2d6d72 	mcrvs	13, 1, r6, cr13, cr2, {3}
     758:	2d656e6f 	stclcs	14, cr6, [r5, #-444]!	; 0xfffffe44
     75c:	69626165 	stmdbvs	r2!, {r0, r2, r5, r6, r8, sp, lr}^
     760:	382e342f 	stmdacc	lr!, {r0, r1, r2, r3, r5, sl, ip, sp}
     764:	692f332e 	stmdbvs	pc!, {r1, r2, r3, r5, r8, r9, ip, sp}	; <UNPREDICTABLE>
     768:	756c636e 	strbvc	r6, [ip, #-878]!	; 0x36e
     76c:	2f006564 	svccs	0x00006564
     770:	72657355 	rsbvc	r7, r5, #1409286145	; 0x54000001
     774:	72622f73 	rsbvc	r2, r2, #460	; 0x1cc
     778:	6a6e6169 	bvs	1b98d24 <__bss_end__+0x1b8a4b4>
     77c:	442f6e75 	strtmi	r6, [pc], #-3701	; 784 <_start-0x787c>
     780:	746b7365 	strbtvc	r7, [fp], #-869	; 0x365
     784:	732f706f 	teqvc	pc, #111	; 0x6f
     788:	6f6f6863 	svcvs	0x006f6863
     78c:	69572f6c 	ldmdbvs	r7, {r2, r3, r5, r6, r8, r9, sl, fp, sp}^
     790:	7265746e 	rsbvc	r7, r5, #1845493760	; 0x6e000000
     794:	30323931 	eorscc	r3, r2, r1, lsr r9
     798:	3153432f 	cmpcc	r3, pc, lsr #6
     79c:	2f453034 	svccs	0x00453034
     7a0:	34317363 	ldrtcc	r7, [r1], #-867	; 0x363
     7a4:	322d6530 	eorcc	r6, sp, #48, 10	; 0xc000000
     7a8:	6e697730 	mcrvs	7, 3, r7, cr9, cr0, {1}
     7ac:	62696c2f 	rsbvs	r6, r9, #12032	; 0x2f00
     7b0:	00006970 	andeq	r6, r0, r0, ror r9
     7b4:	702d6176 	eorvc	r6, sp, r6, ror r1
     7b8:	746e6972 	strbtvc	r6, [lr], #-2418	; 0x972
     7bc:	00632e6b 	rsbeq	r2, r3, fp, ror #28
     7c0:	73000001 	movwvc	r0, #1
     7c4:	72616474 	rsbvc	r6, r1, #116, 8	; 0x74000000
     7c8:	00682e67 	rsbeq	r2, r8, r7, ror #28
     7cc:	72000002 	andvc	r0, r0, #2
     7d0:	682e6970 	stmdavs	lr!, {r4, r5, r6, r8, fp, sp, lr}
     7d4:	00000300 	andeq	r0, r0, r0, lsl #6
     7d8:	6975623c 	ldmdbvs	r5!, {r2, r3, r4, r5, r9, sp, lr}^
     7dc:	692d746c 	pushvs	{r2, r3, r5, r6, sl, ip, sp, lr}
     7e0:	00003e6e 	andeq	r3, r0, lr, ror #28
     7e4:	00000000 	andeq	r0, r0, r0
     7e8:	87200205 	strhi	r0, [r0, -r5, lsl #4]!
     7ec:	26030000 	strcs	r0, [r3], -r0
     7f0:	13a50101 			; <UNDEFINED> instruction: 0x13a50101
     7f4:	02002d31 	andeq	r2, r0, #3136	; 0xc40
     7f8:	002f0204 	eoreq	r0, pc, r4, lsl #4
     7fc:	2d020402 	cfstrscs	mvf0, [r2, #-8]
     800:	02040200 	andeq	r0, r4, #0, 4
     804:	0402002f 	streq	r0, [r2], #-47	; 0x2f
     808:	4c4c2d01 	mcrrmi	13, 0, r2, ip, cr1
     80c:	2f4b1430 	svccs	0x004b1430
     810:	0402004f 	streq	r0, [r2], #-79	; 0x4f
     814:	02006702 	andeq	r6, r0, #524288	; 0x80000
     818:	4c650104 	stfmie	f0, [r5], #-16
     81c:	2fa0304d 	svccs	0x00a0304d
     820:	26023031 			; <UNDEFINED> instruction: 0x26023031
     824:	2c2d8416 	cfstrscs	mvf8, [sp], #-88	; 0xffffffa8
     828:	01040200 	mrseq	r0, R12_usr
     82c:	04020030 	streq	r0, [r2], #-48	; 0x30
     830:	66063301 	strvs	r3, [r6], -r1, lsl #6
     834:	01040200 	mrseq	r0, R12_usr
     838:	0402002e 	streq	r0, [r2], #-46	; 0x2e
     83c:	21080601 	tstcs	r8, r1, lsl #12
     840:	73032f67 	movwvc	r2, #16231	; 0x3f67
     844:	2e130382 	cdpcs	3, 1, cr0, cr3, cr2, {4}
     848:	01040200 	mrseq	r0, R12_usr
     84c:	02002e06 	andeq	r2, r0, #6, 28	; 0x60
     850:	9f060104 	svcls	0x00060104
     854:	67034b6a 	strvs	r4, [r3, -sl, ror #22]
     858:	2e21032e 	cdpcs	3, 2, cr0, cr1, cr14, {1}
     85c:	01040200 	mrseq	r0, R12_usr
     860:	02002e06 	andeq	r2, r0, #6, 28	; 0x60
     864:	9f060104 	svcls	0x00060104
     868:	01040200 	mrseq	r0, R12_usr
     86c:	03f3d96a 	mvnseq	sp, #1736704	; 0x1a8000
     870:	20087fa6 	andcs	r7, r8, r6, lsr #31
     874:	0402002f 	streq	r0, [r2], #-47	; 0x2f
     878:	064a0601 	strbeq	r0, [sl], -r1, lsl #12
     87c:	032f4bd7 	teqeq	pc, #220160	; 0x35c00
     880:	83f200da 	mvnshi	r0, #218	; 0xda
     884:	0e03484c 	cdpeq	8, 0, cr4, cr3, cr12, {2}
     888:	2e75032e 	cdpcs	3, 7, cr0, cr5, cr14, {1}
     88c:	4b842f2f 	blmi	fe10c550 <__bss_end__+0xfe0fdce0>
     890:	314d2d2f 	cmpcc	sp, pc, lsr #26
     894:	00832f30 	addeq	r2, r3, r0, lsr pc
     898:	2c010402 	cfstrscs	mvf0, [r1], {2}
     89c:	040200a2 	streq	r0, [r2], #-162	; 0xa2
     8a0:	064a0601 	strbeq	r0, [sl], -r1, lsl #12
     8a4:	163602d8 			; <UNDEFINED> instruction: 0x163602d8
     8a8:	08d60e03 	ldmeq	r6, {r0, r1, r9, sl, fp}^
     8ac:	31f33021 	mvnscc	r3, r1, lsr #32
     8b0:	30f330f3 	ldrshtcc	r3, [r3], #3
     8b4:	30f3304b 	rscscc	r3, r3, fp, asr #32
     8b8:	2f312308 	svccs	0x00312308
     8bc:	01040200 	mrseq	r0, R12_usr
     8c0:	04020065 	streq	r0, [r2], #-101	; 0x65
     8c4:	004a0602 	subeq	r0, sl, r2, lsl #12
     8c8:	06010402 	streq	r0, [r1], -r2, lsl #8
     8cc:	00664203 	rsbeq	r4, r6, r3, lsl #4
     8d0:	06020402 	streq	r0, [r2], -r2, lsl #8
     8d4:	c2030666 	andgt	r0, r3, #106954752	; 0x6600000
     8d8:	02684a00 	rsbeq	r4, r8, #0, 20
     8dc:	01010010 	tsteq	r1, r0, lsl r0
     8e0:	00000093 	muleq	r0, r3, r0
     8e4:	007d0002 	rsbseq	r0, sp, r2
     8e8:	01020000 	mrseq	r0, (UNDEF: 2)
     8ec:	000d0efb 	strdeq	r0, [sp], -fp
     8f0:	01010101 	tsteq	r1, r1, lsl #2
     8f4:	01000000 	mrseq	r0, (UNDEF: 0)
     8f8:	63010000 	movwvs	r0, #4096	; 0x1000
     8fc:	30343173 	eorscc	r3, r4, r3, ror r1
     900:	72732d65 	rsbsvc	r2, r3, #6464	; 0x1940
     904:	552f0063 	strpl	r0, [pc, #-99]!	; 8a9 <_start-0x7757>
     908:	73726573 	cmnvc	r2, #482344960	; 0x1cc00000
     90c:	6972622f 	ldmdbvs	r2!, {r0, r1, r2, r3, r5, r9, sp, lr}^
     910:	756a6e61 	strbvc	r6, [sl, #-3681]!	; 0xe61
     914:	65442f6e 	strbvs	r2, [r4, #-3950]	; 0xf6e
     918:	6f746b73 	svcvs	0x00746b73
     91c:	63732f70 	cmnvs	r3, #112, 30	; 0x1c0
     920:	6c6f6f68 	stclvs	15, cr6, [pc], #-416	; 788 <_start-0x7878>
     924:	6e69572f 	cdpvs	7, 6, cr5, cr9, cr15, {1}
     928:	31726574 	cmncc	r2, r4, ror r5
     92c:	2f303239 	svccs	0x00303239
     930:	34315343 	ldrtcc	r5, [r1], #-835	; 0x343
     934:	632f4530 	teqvs	pc, #48, 10	; 0xc000000
     938:	30343173 	eorscc	r3, r4, r3, ror r1
     93c:	30322d65 	eorscc	r2, r2, r5, ror #26
     940:	2f6e6977 	svccs	0x006e6977
     944:	7062696c 	rsbvc	r6, r2, ip, ror #18
     948:	63000069 	movwvs	r0, #105	; 0x69
     94c:	6e61656c 	cdpvs	5, 6, cr6, cr1, cr12, {3}
     950:	6265722d 	rsbvs	r7, r5, #-805306366	; 0xd0000002
     954:	2e746f6f 	cdpcs	15, 7, cr6, cr4, cr15, {3}
     958:	00010063 	andeq	r0, r1, r3, rrx
     95c:	69707200 	ldmdbvs	r0!, {r9, ip, sp, lr}^
     960:	0200682e 	andeq	r6, r0, #3014656	; 0x2e0000
     964:	00000000 	andeq	r0, r0, r0
     968:	8c180205 	lfmhi	f0, 4, [r8], {5}
     96c:	2f150000 	svccs	0x00150000
     970:	06024b83 	streq	r4, [r2], -r3, lsl #23
     974:	21010100 	mrscs	r0, (UNDEF: 17)
     978:	02000001 	andeq	r0, r0, #1
     97c:	0000f800 	andeq	pc, r0, r0, lsl #16
     980:	fb010200 	blx	4118a <__bss_end__+0x3291a>
     984:	01000d0e 	tsteq	r0, lr, lsl #26
     988:	00010101 	andeq	r0, r1, r1, lsl #2
     98c:	00010000 	andeq	r0, r1, r0
     990:	73630100 	cmnvc	r3, #0, 2
     994:	65303431 	ldrvs	r3, [r0, #-1073]!	; 0x431
     998:	6372732d 	cmnvs	r2, #-1275068416	; 0xb4000000
     99c:	73752f00 	cmnvc	r5, #0, 30
     9a0:	6f6c2f72 	svcvs	0x006c2f72
     9a4:	2f6c6163 	svccs	0x006c6163
     9a8:	6c6c6543 	cfstr64vs	mvdx6, [ip], #-268	; 0xfffffef4
     9ac:	612f7261 	teqvs	pc, r1, ror #4
     9b0:	6e2d6d72 	mcrvs	13, 1, r6, cr13, cr2, {3}
     9b4:	2d656e6f 	stclcs	14, cr6, [r5, #-444]!	; 0xfffffe44
     9b8:	69626165 	stmdbvs	r2!, {r0, r2, r5, r6, r8, sp, lr}^
     9bc:	382e342f 	stmdacc	lr!, {r0, r1, r2, r3, r5, sl, ip, sp}
     9c0:	632d332e 	teqvs	sp, #-1207959552	; 0xb8000000
     9c4:	30373173 	eorscc	r3, r7, r3, ror r1
     9c8:	696c2f65 	stmdbvs	ip!, {r0, r2, r5, r6, r8, r9, sl, fp, sp}^
     9cc:	63672f62 	cmnvs	r7, #392	; 0x188
     9d0:	72612f63 	rsbvc	r2, r1, #396	; 0x18c
     9d4:	6f6e2d6d 	svcvs	0x006e2d6d
     9d8:	652d656e 	strvs	r6, [sp, #-1390]!	; 0x56e
     9dc:	2f696261 	svccs	0x00696261
     9e0:	2e382e34 	mrccs	14, 1, r2, cr8, cr4, {1}
     9e4:	6e692f33 	mcrvs	15, 3, r2, cr9, cr3, {1}
     9e8:	64756c63 	ldrbtvs	r6, [r5], #-3171	; 0xc63
     9ec:	552f0065 	strpl	r0, [pc, #-101]!	; 98f <_start-0x7671>
     9f0:	73726573 	cmnvc	r2, #482344960	; 0x1cc00000
     9f4:	6972622f 	ldmdbvs	r2!, {r0, r1, r2, r3, r5, r9, sp, lr}^
     9f8:	756a6e61 	strbvc	r6, [sl, #-3681]!	; 0xe61
     9fc:	65442f6e 	strbvs	r2, [r4, #-3950]	; 0xf6e
     a00:	6f746b73 	svcvs	0x00746b73
     a04:	63732f70 	cmnvs	r3, #112, 30	; 0x1c0
     a08:	6c6f6f68 	stclvs	15, cr6, [pc], #-416	; 870 <_start-0x7790>
     a0c:	6e69572f 	cdpvs	7, 6, cr5, cr9, cr15, {1}
     a10:	31726574 	cmncc	r2, r4, ror r5
     a14:	2f303239 	svccs	0x00303239
     a18:	34315343 	ldrtcc	r5, [r1], #-835	; 0x343
     a1c:	632f4530 	teqvs	pc, #48, 10	; 0xc000000
     a20:	30343173 	eorscc	r3, r4, r3, ror r1
     a24:	30322d65 	eorscc	r2, r2, r5, ror #26
     a28:	2f6e6977 	svccs	0x006e6977
     a2c:	7062696c 	rsbvc	r6, r2, ip, ror #18
     a30:	63000069 	movwvs	r0, #105	; 0x69
     a34:	72617473 	rsbvc	r7, r1, #1929379840	; 0x73000000
     a38:	00632e74 	rsbeq	r2, r3, r4, ror lr
     a3c:	73000001 	movwvc	r0, #1
     a40:	6e696474 	mcrvs	4, 3, r6, cr9, cr4, {3}
     a44:	63672d74 	cmnvs	r7, #116, 26	; 0x1d00
     a48:	00682e63 	rsbeq	r2, r8, r3, ror #28
     a4c:	73000002 	movwvc	r0, #2
     a50:	61752d77 	cmnvs	r5, r7, ror sp
     a54:	682e7472 	stmdavs	lr!, {r1, r4, r5, r6, sl, ip, sp, lr}
     a58:	00000100 	andeq	r0, r0, r0, lsl #2
     a5c:	746e6f63 	strbtvc	r6, [lr], #-3939	; 0xf63
     a60:	2d6c6f72 	stclcs	15, cr6, [ip, #-456]!	; 0xfffffe38
     a64:	636f6c62 	cmnvs	pc, #25088	; 0x6200
     a68:	00682e6b 	rsbeq	r2, r8, fp, ror #28
     a6c:	72000001 	andvc	r0, r0, #1
     a70:	682e6970 	stmdavs	lr!, {r4, r5, r6, r8, fp, sp, lr}
     a74:	00000300 	andeq	r0, r0, r0, lsl #6
     a78:	02050000 	andeq	r0, r5, #0
     a7c:	00008c40 	andeq	r8, r0, r0, asr #24
     a80:	68684b17 	stmdavs	r8!, {r0, r1, r2, r4, r8, r9, fp, lr}^
     a84:	2d2f3132 	stfcss	f3, [pc, #-200]!	; 9c4 <_start-0x763c>
     a88:	0402002f 	streq	r0, [r2], #-47	; 0x2f
     a8c:	2f4f4901 	svccs	0x004f4901
     a90:	8367674b 	cmnhi	r7, #19660800	; 0x12c0000
     a94:	022f4e67 	eoreq	r4, pc, #1648	; 0x670
     a98:	01010010 	tsteq	r1, r0, lsl r0
     a9c:	00000099 	muleq	r0, r9, r0
     aa0:	00770002 	rsbseq	r0, r7, r2
     aa4:	01020000 	mrseq	r0, (UNDEF: 2)
     aa8:	000d0efb 	strdeq	r0, [sp], -fp
     aac:	01010101 	tsteq	r1, r1, lsl #2
     ab0:	01000000 	mrseq	r0, (UNDEF: 0)
     ab4:	63010000 	movwvs	r0, #4096	; 0x1000
     ab8:	30343173 	eorscc	r3, r4, r3, ror r1
     abc:	72732d65 	rsbsvc	r2, r3, #6464	; 0x1940
     ac0:	552f0063 	strpl	r0, [pc, #-99]!	; a65 <_start-0x759b>
     ac4:	73726573 	cmnvc	r2, #482344960	; 0x1cc00000
     ac8:	6972622f 	ldmdbvs	r2!, {r0, r1, r2, r3, r5, r9, sp, lr}^
     acc:	756a6e61 	strbvc	r6, [sl, #-3681]!	; 0xe61
     ad0:	65442f6e 	strbvs	r2, [r4, #-3950]	; 0xf6e
     ad4:	6f746b73 	svcvs	0x00746b73
     ad8:	63732f70 	cmnvs	r3, #112, 30	; 0x1c0
     adc:	6c6f6f68 	stclvs	15, cr6, [pc], #-416	; 944 <_start-0x76bc>
     ae0:	6e69572f 	cdpvs	7, 6, cr5, cr9, cr15, {1}
     ae4:	31726574 	cmncc	r2, r4, ror r5
     ae8:	2f303239 	svccs	0x00303239
     aec:	34315343 	ldrtcc	r5, [r1], #-835	; 0x343
     af0:	632f4530 	teqvs	pc, #48, 10	; 0xc000000
     af4:	30343173 	eorscc	r3, r4, r3, ror r1
     af8:	30322d65 	eorscc	r2, r2, r5, ror #26
     afc:	2f6e6977 	svccs	0x006e6977
     b00:	7062696c 	rsbvc	r6, r2, ip, ror #18
     b04:	72000069 	andvc	r0, r0, #105	; 0x69
     b08:	6f6f6265 	svcvs	0x006f6265
     b0c:	00632e74 	rsbeq	r2, r3, r4, ror lr
     b10:	72000001 	andvc	r0, r0, #1
     b14:	682e6970 	stmdavs	lr!, {r4, r5, r6, r8, fp, sp, lr}
     b18:	00000200 	andeq	r0, r0, r0, lsl #4
     b1c:	02050000 	andeq	r0, r5, #0
     b20:	00008cf0 	strdeq	r8, [r0], -r0
     b24:	14010d03 	strne	r0, [r1], #-3331	; 0xd03
     b28:	15852f31 	strne	r2, [r5, #3889]	; 0xf31
     b2c:	2f4d4b2f 	svccs	0x004d4b2f
     b30:	67523567 	ldrbvs	r3, [r2, -r7, ror #10]
     b34:	01001002 	tsteq	r0, r2
     b38:	0000a301 	andeq	sl, r0, r1, lsl #6
     b3c:	76000200 	strvc	r0, [r0], -r0, lsl #4
     b40:	02000000 	andeq	r0, r0, #0
     b44:	0d0efb01 	vstreq	d15, [lr, #-4]
     b48:	01010100 	mrseq	r0, (UNDEF: 17)
     b4c:	00000001 	andeq	r0, r0, r1
     b50:	01000001 	tsteq	r0, r1
     b54:	34317363 	ldrtcc	r7, [r1], #-867	; 0x363
     b58:	732d6530 	teqvc	sp, #48, 10	; 0xc000000
     b5c:	2f006372 	svccs	0x00006372
     b60:	72657355 	rsbvc	r7, r5, #1409286145	; 0x54000001
     b64:	72622f73 	rsbvc	r2, r2, #460	; 0x1cc
     b68:	6a6e6169 	bvs	1b99114 <__bss_end__+0x1b8a8a4>
     b6c:	442f6e75 	strtmi	r6, [pc], #-3701	; b74 <_start-0x748c>
     b70:	746b7365 	strbtvc	r7, [fp], #-869	; 0x365
     b74:	732f706f 	teqvc	pc, #111	; 0x6f
     b78:	6f6f6863 	svcvs	0x006f6863
     b7c:	69572f6c 	ldmdbvs	r7, {r2, r3, r5, r6, r8, r9, sl, fp, sp}^
     b80:	7265746e 	rsbvc	r7, r5, #1845493760	; 0x6e000000
     b84:	30323931 	eorscc	r3, r2, r1, lsr r9
     b88:	3153432f 	cmpcc	r3, pc, lsr #6
     b8c:	2f453034 	svccs	0x00453034
     b90:	34317363 	ldrtcc	r7, [r1], #-867	; 0x363
     b94:	322d6530 	eorcc	r6, sp, #48, 10	; 0xc000000
     b98:	6e697730 	mcrvs	7, 3, r7, cr9, cr0, {1}
     b9c:	62696c2f 	rsbvs	r6, r9, #12032	; 0x2f00
     ba0:	00006970 	andeq	r6, r0, r0, ror r9
     ba4:	656d6974 	strbvs	r6, [sp, #-2420]!	; 0x974
     ba8:	00632e72 	rsbeq	r2, r3, r2, ror lr
     bac:	72000001 	andvc	r0, r0, #1
     bb0:	682e6970 	stmdavs	lr!, {r4, r5, r6, r8, fp, sp, lr}
     bb4:	00000200 	andeq	r0, r0, r0, lsl #4
     bb8:	02050000 	andeq	r0, r5, #0
     bbc:	00008d64 	andeq	r8, r0, r4, ror #26
     bc0:	2d2f1316 	stccs	3, cr1, [pc, #-88]!	; b70 <_start-0x7490>
     bc4:	01040200 	mrseq	r0, R12_usr
     bc8:	68062e06 	stmdavs	r6, {r1, r2, r9, sl, fp, sp}
     bcc:	4d4b2f31 	stclmi	15, cr2, [fp, #-196]	; 0xffffff3c
     bd0:	4b303132 	blmi	c0d0a0 <__bss_end__+0xbfe830>
     bd4:	2f6a2f4c 	svccs	0x006a2f4c
     bd8:	022f842f 	eoreq	r8, pc, #788529152	; 0x2f000000
     bdc:	01010008 	tsteq	r1, r8
     be0:	00000188 	andeq	r0, r0, r8, lsl #3
     be4:	00ca0002 	sbceq	r0, sl, r2
     be8:	01020000 	mrseq	r0, (UNDEF: 2)
     bec:	000d0efb 	strdeq	r0, [sp], -fp
     bf0:	01010101 	tsteq	r1, r1, lsl #2
     bf4:	01000000 	mrseq	r0, (UNDEF: 0)
     bf8:	6d010000 	stcvs	0, cr0, [r1, #-0]
     bfc:	72732d79 	rsbsvc	r2, r3, #7744	; 0x1e40
     c00:	552f0063 	strpl	r0, [pc, #-99]!	; ba5 <_start-0x745b>
     c04:	73726573 	cmnvc	r2, #482344960	; 0x1cc00000
     c08:	6972622f 	ldmdbvs	r2!, {r0, r1, r2, r3, r5, r9, sp, lr}^
     c0c:	756a6e61 	strbvc	r6, [sl, #-3681]!	; 0xe61
     c10:	65442f6e 	strbvs	r2, [r4, #-3950]	; 0xf6e
     c14:	6f746b73 	svcvs	0x00746b73
     c18:	63732f70 	cmnvs	r3, #112, 30	; 0x1c0
     c1c:	6c6f6f68 	stclvs	15, cr6, [pc], #-416	; a84 <_start-0x757c>
     c20:	6e69572f 	cdpvs	7, 6, cr5, cr9, cr15, {1}
     c24:	31726574 	cmncc	r2, r4, ror r5
     c28:	2f303239 	svccs	0x00303239
     c2c:	34315343 	ldrtcc	r5, [r1], #-835	; 0x343
     c30:	632f4530 	teqvs	pc, #48, 10	; 0xc000000
     c34:	30343173 	eorscc	r3, r4, r3, ror r1
     c38:	30322d65 	eorscc	r2, r2, r5, ror #26
     c3c:	2f6e6977 	svccs	0x006e6977
     c40:	7062696c 	rsbvc	r6, r2, ip, ror #18
     c44:	73632f69 	cmnvc	r3, #420	; 0x1a4
     c48:	65303431 	ldrvs	r3, [r0, #-1073]!	; 0x431
     c4c:	6372732d 	cmnvs	r2, #-1275068416	; 0xb4000000
     c50:	73552f00 	cmpvc	r5, #0, 30
     c54:	2f737265 	svccs	0x00737265
     c58:	61697262 	cmnvs	r9, r2, ror #4
     c5c:	6e756a6e 	vsubvs.f32	s13, s10, s29
     c60:	7365442f 	cmnvc	r5, #788529152	; 0x2f000000
     c64:	706f746b 	rsbvc	r7, pc, fp, ror #8
     c68:	6863732f 	stmdavs	r3!, {r0, r1, r2, r3, r5, r8, r9, ip, sp, lr}^
     c6c:	2f6c6f6f 	svccs	0x006c6f6f
     c70:	746e6957 	strbtvc	r6, [lr], #-2391	; 0x957
     c74:	39317265 	ldmdbcc	r1!, {r0, r2, r5, r6, r9, ip, sp, lr}
     c78:	432f3032 	teqmi	pc, #50	; 0x32
     c7c:	30343153 	eorscc	r3, r4, r3, asr r1
     c80:	73632f45 	cmnvc	r3, #276	; 0x114
     c84:	65303431 	ldrvs	r3, [r0, #-1073]!	; 0x431
     c88:	7730322d 	ldrvc	r3, [r0, -sp, lsr #4]!
     c8c:	6c2f6e69 	stcvs	14, cr6, [pc], #-420	; af0 <_start-0x7510>
     c90:	69706269 	ldmdbvs	r0!, {r0, r3, r5, r6, r9, sp, lr}^
     c94:	70670000 	rsbvc	r0, r7, r0
     c98:	632e6f69 	teqvs	lr, #420	; 0x1a4
     c9c:	00000100 	andeq	r0, r0, r0, lsl #2
     ca0:	6f697067 	svcvs	0x00697067
     ca4:	0200682e 	andeq	r6, r0, #3014656	; 0x2e0000
     ca8:	70720000 	rsbsvc	r0, r2, r0
     cac:	00682e69 	rsbeq	r2, r8, r9, ror #28
     cb0:	00000003 	andeq	r0, r0, r3
     cb4:	ec020500 	cfstr32	mvfx0, [r2], {-0}
     cb8:	0300008d 	movweq	r0, #141	; 0x8d
     cbc:	504e013e 	subpl	r0, lr, lr, lsr r1
     cc0:	67210869 	strvs	r0, [r1, -r9, ror #16]!
     cc4:	67676767 	strbvs	r6, [r7, -r7, ror #14]!
     cc8:	084b3267 	stmdaeq	fp, {r0, r1, r2, r5, r6, r9, ip, sp}^
     ccc:	5131dc22 	teqpl	r1, r2, lsr #24
     cd0:	30504e13 	subscc	r4, r0, r3, lsl lr
     cd4:	135031be 	cmpne	r0, #-2147483601	; 0x8000002f
     cd8:	c0304f4d 	eorsgt	r4, r0, sp, asr #30
     cdc:	0869504c 	stmdaeq	r9!, {r2, r3, r6, ip, lr}^
     ce0:	67676721 	strbvs	r6, [r7, -r1, lsr #14]!
     ce4:	32676767 	rsbcc	r6, r7, #27000832	; 0x19c0000
     ce8:	a421084b 	strtge	r0, [r1], #-2123	; 0x84b
     cec:	842f504c 	strthi	r5, [pc], #-76	; cf4 <_start-0x730c>
     cf0:	82750369 	rsbshi	r0, r5, #-1543503871	; 0xa4000001
     cf4:	4d2e0c03 	stcmi	12, cr0, [lr, #-12]!
     cf8:	98034e30 	stmdals	r3, {r4, r5, r9, sl, fp, lr}
     cfc:	13514a7f 	cmpne	r1, #520192	; 0x7f000
     d00:	a530504e 	ldrge	r5, [r0, #-78]!	; 0x4e
     d04:	4f4d1350 	svcmi	0x004d1350
     d08:	00c20330 	sbceq	r0, r2, r0, lsr r3
     d0c:	696b6aba 	stmdbvs	fp!, {r1, r3, r4, r5, r7, r9, fp, sp, lr}^
     d10:	67672108 	strbvs	r2, [r7, -r8, lsl #2]!
     d14:	67676767 	strbvs	r6, [r7, -r7, ror #14]!
     d18:	22084b32 	andcs	r4, r8, #51200	; 0xc800
     d1c:	31ba1a03 			; <UNDEFINED> instruction: 0x31ba1a03
     d20:	522f4c9f 	eorpl	r4, pc, #40704	; 0x9f00
     d24:	4b2f4e4d 	blmi	bd4660 <__bss_end__+0xbc5df0>
     d28:	67684b67 	strbvs	r4, [r8, -r7, ror #22]!
     d2c:	672f4c67 	strvs	r4, [pc, -r7, ror #24]!
     d30:	4c6e4b2f 	stclmi	11, cr4, [lr], #-188	; 0xffffff44
     d34:	674b2f4e 	strbvs	r2, [fp, -lr, asr #30]
     d38:	6767684b 	strbvs	r6, [r7, -fp, asr #16]!
     d3c:	2f672f4c 	svccs	0x00672f4c
     d40:	4e4b6d4b 	cdpmi	13, 4, cr6, cr11, cr11, {2}
     d44:	00674b2f 	rsbeq	r4, r7, pc, lsr #22
     d48:	06010402 	streq	r0, [r1], -r2, lsl #8
     d4c:	9f680666 	svcls	0x00680666
     d50:	0402002f 	streq	r0, [r2], #-47	; 0x2f
     d54:	064a0601 	strbeq	r0, [sl], -r1, lsl #12
     d58:	73032f68 	movwvc	r2, #16232	; 0x3f68
     d5c:	2e0e034a 	cdpcs	3, 0, cr0, cr14, cr10, {2}
     d60:	2f4e4c4d 	svccs	0x004e4c4d
     d64:	02bcbc4b 	adcseq	fp, ip, #19200	; 0x4b00
     d68:	01010006 	tsteq	r1, r6
     d6c:	00000345 	andeq	r0, r0, r5, asr #6
     d70:	01bd0002 			; <UNDEFINED> instruction: 0x01bd0002
     d74:	01020000 	mrseq	r0, (UNDEF: 2)
     d78:	000d0efb 	strdeq	r0, [sp], -fp
     d7c:	01010101 	tsteq	r1, r1, lsl #2
     d80:	01000000 	mrseq	r0, (UNDEF: 0)
     d84:	6d010000 	stcvs	0, cr0, [r1, #-0]
     d88:	72732d79 	rsbsvc	r2, r3, #7744	; 0x1e40
     d8c:	552f0063 	strpl	r0, [pc, #-99]!	; d31 <_start-0x72cf>
     d90:	73726573 	cmnvc	r2, #482344960	; 0x1cc00000
     d94:	6972622f 	ldmdbvs	r2!, {r0, r1, r2, r3, r5, r9, sp, lr}^
     d98:	756a6e61 	strbvc	r6, [sl, #-3681]!	; 0xe61
     d9c:	65442f6e 	strbvs	r2, [r4, #-3950]	; 0xf6e
     da0:	6f746b73 	svcvs	0x00746b73
     da4:	63732f70 	cmnvs	r3, #112, 30	; 0x1c0
     da8:	6c6f6f68 	stclvs	15, cr6, [pc], #-416	; c10 <_start-0x73f0>
     dac:	6e69572f 	cdpvs	7, 6, cr5, cr9, cr15, {1}
     db0:	31726574 	cmncc	r2, r4, ror r5
     db4:	2f303239 	svccs	0x00303239
     db8:	34315343 	ldrtcc	r5, [r1], #-835	; 0x343
     dbc:	632f4530 	teqvs	pc, #48, 10	; 0xc000000
     dc0:	30343173 	eorscc	r3, r4, r3, ror r1
     dc4:	30322d65 	eorscc	r2, r2, r5, ror #26
     dc8:	2f6e6977 	svccs	0x006e6977
     dcc:	7062696c 	rsbvc	r6, r2, ip, ror #18
     dd0:	73632f69 	cmnvc	r3, #420	; 0x1a4
     dd4:	65303431 	ldrvs	r3, [r0, #-1073]!	; 0x431
     dd8:	6372732d 	cmnvs	r2, #-1275068416	; 0xb4000000
     ddc:	73752f00 	cmnvc	r5, #0, 30
     de0:	6f6c2f72 	svcvs	0x006c2f72
     de4:	2f6c6163 	svccs	0x006c6163
     de8:	6c6c6543 	cfstr64vs	mvdx6, [ip], #-268	; 0xfffffef4
     dec:	612f7261 	teqvs	pc, r1, ror #4
     df0:	6e2d6d72 	mcrvs	13, 1, r6, cr13, cr2, {3}
     df4:	2d656e6f 	stclcs	14, cr6, [r5, #-444]!	; 0xfffffe44
     df8:	69626165 	stmdbvs	r2!, {r0, r2, r5, r6, r8, sp, lr}^
     dfc:	382e342f 	stmdacc	lr!, {r0, r1, r2, r3, r5, sl, ip, sp}
     e00:	632d332e 	teqvs	sp, #-1207959552	; 0xb8000000
     e04:	30373173 	eorscc	r3, r7, r3, ror r1
     e08:	696c2f65 	stmdbvs	ip!, {r0, r2, r5, r6, r8, r9, sl, fp, sp}^
     e0c:	63672f62 	cmnvs	r7, #392	; 0x188
     e10:	72612f63 	rsbvc	r2, r1, #396	; 0x18c
     e14:	6f6e2d6d 	svcvs	0x006e2d6d
     e18:	652d656e 	strvs	r6, [sp, #-1390]!	; 0x56e
     e1c:	2f696261 	svccs	0x00696261
     e20:	2e382e34 	mrccs	14, 1, r2, cr8, cr4, {1}
     e24:	6e692f33 	mcrvs	15, 3, r2, cr9, cr3, {1}
     e28:	64756c63 	ldrbtvs	r6, [r5], #-3171	; 0xc63
     e2c:	552f0065 	strpl	r0, [pc, #-101]!	; dcf <_start-0x7231>
     e30:	73726573 	cmnvc	r2, #482344960	; 0x1cc00000
     e34:	6972622f 	ldmdbvs	r2!, {r0, r1, r2, r3, r5, r9, sp, lr}^
     e38:	756a6e61 	strbvc	r6, [sl, #-3681]!	; 0xe61
     e3c:	65442f6e 	strbvs	r2, [r4, #-3950]	; 0xf6e
     e40:	6f746b73 	svcvs	0x00746b73
     e44:	63732f70 	cmnvs	r3, #112, 30	; 0x1c0
     e48:	6c6f6f68 	stclvs	15, cr6, [pc], #-416	; cb0 <_start-0x7350>
     e4c:	6e69572f 	cdpvs	7, 6, cr5, cr9, cr15, {1}
     e50:	31726574 	cmncc	r2, r4, ror r5
     e54:	2f303239 	svccs	0x00303239
     e58:	34315343 	ldrtcc	r5, [r1], #-835	; 0x343
     e5c:	632f4530 	teqvs	pc, #48, 10	; 0xc000000
     e60:	30343173 	eorscc	r3, r4, r3, ror r1
     e64:	30322d65 	eorscc	r2, r2, r5, ror #26
     e68:	2f6e6977 	svccs	0x006e6977
     e6c:	7062696c 	rsbvc	r6, r2, ip, ror #18
     e70:	552f0069 	strpl	r0, [pc, #-105]!	; e0f <_start-0x71f1>
     e74:	73726573 	cmnvc	r2, #482344960	; 0x1cc00000
     e78:	6972622f 	ldmdbvs	r2!, {r0, r1, r2, r3, r5, r9, sp, lr}^
     e7c:	756a6e61 	strbvc	r6, [sl, #-3681]!	; 0xe61
     e80:	65442f6e 	strbvs	r2, [r4, #-3950]	; 0xf6e
     e84:	6f746b73 	svcvs	0x00746b73
     e88:	63732f70 	cmnvs	r3, #112, 30	; 0x1c0
     e8c:	6c6f6f68 	stclvs	15, cr6, [pc], #-416	; cf4 <_start-0x730c>
     e90:	6e69572f 	cdpvs	7, 6, cr5, cr9, cr15, {1}
     e94:	31726574 	cmncc	r2, r4, ror r5
     e98:	2f303239 	svccs	0x00303239
     e9c:	34315343 	ldrtcc	r5, [r1], #-835	; 0x343
     ea0:	632f4530 	teqvs	pc, #48, 10	; 0xc000000
     ea4:	30343173 	eorscc	r3, r4, r3, ror r1
     ea8:	30322d65 	eorscc	r2, r2, r5, ror #26
     eac:	2f6e6977 	svccs	0x006e6977
     eb0:	7062696c 	rsbvc	r6, r2, ip, ror #18
     eb4:	696c2f69 	stmdbvs	ip!, {r0, r3, r5, r6, r8, r9, sl, fp, sp}^
     eb8:	00006362 	andeq	r6, r0, r2, ror #6
     ebc:	752d7773 	strvc	r7, [sp, #-1907]!	; 0x773
     ec0:	2e747261 	cdpcs	2, 7, cr7, cr4, cr1, {3}
     ec4:	00010063 	andeq	r0, r1, r3, rrx
     ec8:	63796300 	cmnvs	r9, #0, 6
     ecc:	752d656c 	strvc	r6, [sp, #-1388]!	; 0x56c
     ed0:	2e6c6974 	mcrcs	9, 3, r6, cr12, cr4, {3}
     ed4:	00020068 	andeq	r0, r2, r8, rrx
     ed8:	64747300 	ldrbtvs	r7, [r4], #-768	; 0x300
     edc:	2d746e69 	ldclcs	14, cr6, [r4, #-420]!	; 0xfffffe5c
     ee0:	2e636367 	cdpcs	3, 6, cr6, cr3, cr7, {3}
     ee4:	00030068 	andeq	r0, r3, r8, rrx
     ee8:	2d777300 	ldclcs	3, cr7, [r7, #-0]
     eec:	74726175 	ldrbtvc	r6, [r2], #-373	; 0x175
     ef0:	0200682e 	andeq	r6, r0, #3014656	; 0x2e0000
     ef4:	74730000 	ldrbtvc	r0, [r3], #-0
     ef8:	67726164 	ldrbvs	r6, [r2, -r4, ror #2]!
     efc:	0300682e 	movweq	r6, #2094	; 0x82e
     f00:	70670000 	rsbvc	r0, r7, r0
     f04:	682e6f69 	stmdavs	lr!, {r0, r3, r5, r6, r8, r9, sl, fp, sp, lr}
     f08:	00000200 	andeq	r0, r0, r0, lsl #4
     f0c:	2e697072 	mcrcs	0, 3, r7, cr9, cr2, {3}
     f10:	00040068 	andeq	r0, r4, r8, rrx
     f14:	2d617600 	stclcs	6, cr7, [r1, #-0]
     f18:	6e697270 	mcrvs	2, 3, r7, cr9, cr0, {3}
     f1c:	682e6b74 	stmdavs	lr!, {r2, r4, r5, r6, r8, r9, fp, sp, lr}
     f20:	00000500 	andeq	r0, r0, r0, lsl #10
     f24:	6975623c 	ldmdbvs	r5!, {r2, r3, r4, r5, r9, sp, lr}^
     f28:	692d746c 	pushvs	{r2, r3, r5, r6, sl, ip, sp, lr}
     f2c:	00003e6e 	andeq	r3, r0, lr, ror #28
     f30:	00000000 	andeq	r0, r0, r0
     f34:	93a80205 			; <UNDEFINED> instruction: 0x93a80205
     f38:	4c1a0000 	ldcmi	0, cr0, [sl], {-0}
     f3c:	0204302f 	andeq	r3, r4, #47	; 0x2f
     f40:	032e0b03 	teqeq	lr, #3072	; 0xc00
     f44:	01046673 	tsteq	r4, r3, ror r6
     f48:	35020488 	strcc	r0, [r2, #-1160]	; 0x488
     f4c:	04667303 	strbteq	r7, [r6], #-771	; 0x303
     f50:	02048a01 	andeq	r8, r4, #4096	; 0x1000
     f54:	66730333 			; <UNDEFINED> instruction: 0x66730333
     f58:	0a030104 	beq	c1370 <__bss_end__+0xb2b00>
     f5c:	31020482 	smlabbcc	r2, r2, r4, r0
     f60:	04667303 	strbteq	r7, [r6], #-771	; 0x303
     f64:	820c0301 	andhi	r0, ip, #67108864	; 0x4000000
     f68:	032f0204 	teqeq	pc, #4, 4	; 0x40000000
     f6c:	01046673 	tsteq	r4, r3, ror r6
     f70:	04820e03 	streq	r0, [r2], #3587	; 0xe03
     f74:	73032d02 	movwvc	r2, #15618	; 0x3d02
     f78:	03010466 	movweq	r0, #5222	; 0x1466
     f7c:	02048210 	andeq	r8, r4, #16, 4
     f80:	6673032b 	ldrbtvs	r0, [r3], -fp, lsr #6
     f84:	12030104 	andne	r0, r3, #4, 2
     f88:	29020482 	stmdbcs	r2, {r1, r7, sl}
     f8c:	04667303 	strbteq	r7, [r6], #-771	; 0x303
     f90:	82140301 	andshi	r0, r4, #67108864	; 0x4000000
     f94:	79030204 	stmdbvc	r3, {r2, r9}
     f98:	6673032e 	ldrbtvs	r0, [r3], -lr, lsr #6
     f9c:	16030104 	strne	r0, [r3], -r4, lsl #2
     fa0:	03020482 	movweq	r0, #9346	; 0x2482
     fa4:	73032e77 	movwvc	r2, #15991	; 0x3e77
     fa8:	03010466 	movweq	r0, #5222	; 0x1466
     fac:	10038218 	andne	r8, r3, r8, lsl r2
     fb0:	034d4b2e 	movteq	r4, #56110	; 0xdb2e
     fb4:	844c2e70 	strbhi	r2, [ip], #-3696	; 0xe70
     fb8:	0d034883 	stceq	8, cr4, [r3, #-524]	; 0xfffffdf4
     fbc:	33314e2e 	teqcc	r1, #736	; 0x2e0
     fc0:	48030204 	stmdami	r3, {r2, r9}
     fc4:	0301042e 	movweq	r0, #5166	; 0x142e
     fc8:	042f823a 	strteq	r8, [pc], #-570	; fd0 <_start-0x7030>
     fcc:	66450302 	strbvs	r0, [r5], -r2, lsl #6
     fd0:	3d030104 	stfccs	f0, [r3, #-16]
     fd4:	02042f82 	andeq	r2, r4, #520	; 0x208
     fd8:	04824203 	streq	r4, [r2], #515	; 0x203
     fdc:	00c00301 	sbceq	r0, r0, r1, lsl #6
     fe0:	02042f82 	andeq	r2, r4, #520	; 0x208
     fe4:	827fbf03 	rsbshi	fp, pc, #3, 30
     fe8:	c3030104 	movwgt	r0, #12548	; 0x3104
     fec:	042f8200 	strteq	r8, [pc], #-512	; ff4 <_start-0x700c>
     ff0:	7fbc0302 	svcvc	0x00bc0302
     ff4:	03010482 	movweq	r0, #5250	; 0x1482
     ff8:	2f8200c6 	svccs	0x008200c6
     ffc:	b9030204 	stmdblt	r3, {r2, r9}
    1000:	0104827f 	tsteq	r4, pc, ror r2
    1004:	8200c903 	andhi	ip, r0, #49152	; 0xc000
    1008:	0302042f 	movweq	r0, #9263	; 0x242f
    100c:	04827fb6 	streq	r7, [r2], #4022	; 0xfb6
    1010:	00cc0301 	sbceq	r0, ip, r1, lsl #6
    1014:	02042f82 	andeq	r2, r4, #520	; 0x208
    1018:	827fb303 	rsbshi	fp, pc, #201326592	; 0xc000000
    101c:	d0030104 	andle	r0, r3, r4, lsl #2
    1020:	4c038200 	sfmmi	f0, 1, [r3], {-0}
    1024:	83844c82 	orrhi	r4, r4, #33280	; 0x8200
    1028:	2e360348 	cdpcs	3, 3, cr0, cr6, cr8, {2}
    102c:	4a54034e 	bmi	1501d6c <__bss_end__+0x14f34fc>
    1030:	324a2903 	subcc	r2, sl, #49152	; 0xc000
    1034:	02009f34 	andeq	r9, r0, #52, 30	; 0xd0
    1038:	4a060104 	bmi	181450 <__bss_end__+0x172be0>
    103c:	4b4ed706 	blmi	13b6c5c <__bss_end__+0x13a83ec>
    1040:	02002cbb 	andeq	r2, r0, #47872	; 0xbb00
    1044:	2e060104 	adfcss	f0, f6, f4
    1048:	a44c6d06 	strbge	r6, [ip], #-3334	; 0xd06
    104c:	04020084 	streq	r0, [r2], #-132	; 0x84
    1050:	064a0601 	strbeq	r0, [sl], -r1, lsl #12
    1054:	02004dd7 	andeq	r4, r0, #13760	; 0x35c0
    1058:	004b0204 	subeq	r0, fp, r4, lsl #4
    105c:	81020402 	tsthi	r2, r2, lsl #8
    1060:	01040200 	mrseq	r0, R12_usr
    1064:	4d062e06 	stcmi	14, cr2, [r6, #-24]	; 0xffffffe8
    1068:	4bbca54c 	blmi	fef2a5a0 <__bss_end__+0xfef1bd30>
    106c:	2f6a4b4b 	svccs	0x006a4b4b
    1070:	01040200 	mrseq	r0, R12_usr
    1074:	00828206 	addeq	r8, r2, r6, lsl #4
    1078:	9e040402 	cdpls	4, 0, cr0, cr4, cr2, {0}
    107c:	01040200 	mrseq	r0, R12_usr
    1080:	88d9064a 	ldmhi	r9, {r1, r3, r6, r9, sl}^
    1084:	4b4b2fbd 	blmi	12ccf80 <__bss_end__+0x12be710>
    1088:	00674008 	rsbeq	r4, r7, r8
    108c:	2f020402 	svccs	0x00020402
    1090:	02040200 	andeq	r0, r4, #0, 4
    1094:	04020049 	streq	r0, [r2], #-73	; 0x49
    1098:	062e0601 	strteq	r0, [lr], -r1, lsl #12
    109c:	4b863468 	blmi	fe18e244 <__bss_end__+0xfe17f9d4>
    10a0:	040200a0 	streq	r0, [r2], #-160	; 0xa0
    10a4:	06660601 	strbteq	r0, [r6], -r1, lsl #12
    10a8:	220868d7 	andcs	r6, r8, #14090240	; 0xd70000
    10ac:	d84b674b 	stmdale	fp, {r0, r1, r3, r6, r8, r9, sl, sp, lr}^
    10b0:	01000a02 	tsteq	r0, r2, lsl #20
    10b4:	00010101 	andeq	r0, r1, r1, lsl #2
    10b8:	ca000200 	bgt	18c0 <_start-0x6740>
    10bc:	02000000 	andeq	r0, r0, #0
    10c0:	0d0efb01 	vstreq	d15, [lr, #-4]
    10c4:	01010100 	mrseq	r0, (UNDEF: 17)
    10c8:	00000001 	andeq	r0, r0, r1
    10cc:	01000001 	tsteq	r0, r1
    10d0:	732d796d 	teqvc	sp, #1785856	; 0x1b4000
    10d4:	2f006372 	svccs	0x00006372
    10d8:	72657355 	rsbvc	r7, r5, #1409286145	; 0x54000001
    10dc:	72622f73 	rsbvc	r2, r2, #460	; 0x1cc
    10e0:	6a6e6169 	bvs	1b9968c <__bss_end__+0x1b8ae1c>
    10e4:	442f6e75 	strtmi	r6, [pc], #-3701	; 10ec <_start-0x6f14>
    10e8:	746b7365 	strbtvc	r7, [fp], #-869	; 0x365
    10ec:	732f706f 	teqvc	pc, #111	; 0x6f
    10f0:	6f6f6863 	svcvs	0x006f6863
    10f4:	69572f6c 	ldmdbvs	r7, {r2, r3, r5, r6, r8, r9, sl, fp, sp}^
    10f8:	7265746e 	rsbvc	r7, r5, #1845493760	; 0x6e000000
    10fc:	30323931 	eorscc	r3, r2, r1, lsr r9
    1100:	3153432f 	cmpcc	r3, pc, lsr #6
    1104:	2f453034 	svccs	0x00453034
    1108:	34317363 	ldrtcc	r7, [r1], #-867	; 0x363
    110c:	322d6530 	eorcc	r6, sp, #48, 10	; 0xc000000
    1110:	6e697730 	mcrvs	7, 3, r7, cr9, cr0, {1}
    1114:	62696c2f 	rsbvs	r6, r9, #12032	; 0x2f00
    1118:	632f6970 	teqvs	pc, #112, 18	; 0x1c0000
    111c:	30343173 	eorscc	r3, r4, r3, ror r1
    1120:	72732d65 	rsbsvc	r2, r3, #6464	; 0x1940
    1124:	552f0063 	strpl	r0, [pc, #-99]!	; 10c9 <_start-0x6f37>
    1128:	73726573 	cmnvc	r2, #482344960	; 0x1cc00000
    112c:	6972622f 	ldmdbvs	r2!, {r0, r1, r2, r3, r5, r9, sp, lr}^
    1130:	756a6e61 	strbvc	r6, [sl, #-3681]!	; 0xe61
    1134:	65442f6e 	strbvs	r2, [r4, #-3950]	; 0xf6e
    1138:	6f746b73 	svcvs	0x00746b73
    113c:	63732f70 	cmnvs	r3, #112, 30	; 0x1c0
    1140:	6c6f6f68 	stclvs	15, cr6, [pc], #-416	; fa8 <_start-0x7058>
    1144:	6e69572f 	cdpvs	7, 6, cr5, cr9, cr15, {1}
    1148:	31726574 	cmncc	r2, r4, ror r5
    114c:	2f303239 	svccs	0x00303239
    1150:	34315343 	ldrtcc	r5, [r1], #-835	; 0x343
    1154:	632f4530 	teqvs	pc, #48, 10	; 0xc000000
    1158:	30343173 	eorscc	r3, r4, r3, ror r1
    115c:	30322d65 	eorscc	r2, r2, r5, ror #26
    1160:	2f6e6977 	svccs	0x006e6977
    1164:	7062696c 	rsbvc	r6, r2, ip, ror #18
    1168:	75000069 	strvc	r0, [r0, #-105]	; 0x69
    116c:	2e747261 	cdpcs	2, 7, cr7, cr4, cr1, {3}
    1170:	00010063 	andeq	r0, r1, r3, rrx
    1174:	69706700 	ldmdbvs	r0!, {r8, r9, sl, sp, lr}^
    1178:	00682e6f 	rsbeq	r2, r8, pc, ror #28
    117c:	72000002 	andvc	r0, r0, #2
    1180:	682e6970 	stmdavs	lr!, {r4, r5, r6, r8, fp, sp, lr}
    1184:	00000300 	andeq	r0, r0, r0, lsl #6
    1188:	02050000 	andeq	r0, r5, #0
    118c:	000099c8 	andeq	r9, r0, r8, asr #19
    1190:	30013603 	andcc	r3, r1, r3, lsl #12
    1194:	306d6733 	rsbcc	r6, sp, r3, lsr r7
    1198:	676730d8 			; <UNDEFINED> instruction: 0x676730d8
    119c:	68676767 	stmdavs	r7!, {r0, r1, r2, r5, r6, r8, r9, sl, sp, lr}^
    11a0:	6a672f86 	bvs	19ccfc0 <__bss_end__+0x19be750>
    11a4:	69676730 	stmdbvs	r7!, {r4, r5, r8, r9, sl, sp, lr}^
    11a8:	4c6a672f 	stclmi	7, cr6, [sl], #-188	; 0xffffff44
    11ac:	2f2fc167 	svccs	0x002fc167
    11b0:	49682f30 	stmdbmi	r8!, {r4, r5, r8, r9, sl, fp, sp}^
    11b4:	00020230 	andeq	r0, r2, r0, lsr r2
    11b8:	00d60101 	sbcseq	r0, r6, r1, lsl #2
    11bc:	00020000 	andeq	r0, r2, r0
    11c0:	00000097 	muleq	r0, r7, r0
    11c4:	0efb0102 	cdpeq	1, 15, cr0, cr11, cr2, {0}
    11c8:	0101000d 	tsteq	r1, sp
    11cc:	00000101 	andeq	r0, r0, r1, lsl #2
    11d0:	00000100 	andeq	r0, r0, r0, lsl #2
    11d4:	31736301 	cmncc	r3, r1, lsl #6
    11d8:	2d653034 	stclcs	0, cr3, [r5, #-208]!	; 0xffffff30
    11dc:	65746e69 	ldrbvs	r6, [r4, #-3689]!	; 0xe69
    11e0:	70757272 	rsbsvc	r7, r5, r2, ror r2
    11e4:	552f0074 	strpl	r0, [pc, #-116]!	; 1178 <_start-0x6e88>
    11e8:	73726573 	cmnvc	r2, #482344960	; 0x1cc00000
    11ec:	6972622f 	ldmdbvs	r2!, {r0, r1, r2, r3, r5, r9, sp, lr}^
    11f0:	756a6e61 	strbvc	r6, [sl, #-3681]!	; 0xe61
    11f4:	65442f6e 	strbvs	r2, [r4, #-3950]	; 0xf6e
    11f8:	6f746b73 	svcvs	0x00746b73
    11fc:	63732f70 	cmnvs	r3, #112, 30	; 0x1c0
    1200:	6c6f6f68 	stclvs	15, cr6, [pc], #-416	; 1068 <_start-0x6f98>
    1204:	6e69572f 	cdpvs	7, 6, cr5, cr9, cr15, {1}
    1208:	31726574 	cmncc	r2, r4, ror r5
    120c:	2f303239 	svccs	0x00303239
    1210:	34315343 	ldrtcc	r5, [r1], #-835	; 0x343
    1214:	632f4530 	teqvs	pc, #48, 10	; 0xc000000
    1218:	30343173 	eorscc	r3, r4, r3, ror r1
    121c:	30322d65 	eorscc	r2, r2, r5, ror #26
    1220:	2f6e6977 	svccs	0x006e6977
    1224:	7062696c 	rsbvc	r6, r2, ip, ror #18
    1228:	69000069 	stmdbvs	r0, {r0, r3, r5, r6}
    122c:	7265746e 	rsbvc	r7, r5, #1845493760	; 0x6e000000
    1230:	74707572 	ldrbtvc	r7, [r0], #-1394	; 0x572
    1234:	2e632d73 	mcrcs	13, 3, r2, cr3, cr3, {3}
    1238:	00010063 	andeq	r0, r1, r3, rrx
    123c:	69707200 	ldmdbvs	r0!, {r9, ip, sp, lr}^
    1240:	0200682e 	andeq	r6, r0, #3014656	; 0x2e0000
    1244:	70720000 	rsbsvc	r0, r2, r0
    1248:	6e692d69 	cdpvs	13, 6, cr2, cr9, cr9, {3}
    124c:	72726574 	rsbsvc	r6, r2, #116, 10	; 0x1d000000
    1250:	73747075 	cmnvc	r4, #117	; 0x75
    1254:	0100682e 	tsteq	r0, lr, lsr #16
    1258:	00000000 	andeq	r0, r0, r0
    125c:	9b1c0205 	blls	701a78 <__bss_end__+0x6f3208>
    1260:	31160000 	tstcc	r6, r0
    1264:	0e036767 	cdpeq	7, 0, cr6, cr3, cr7, {3}
    1268:	2d2f832e 	stccs	3, cr8, [pc, #-184]!	; 11b8 <_start-0x6e48>
    126c:	02040200 	andeq	r0, r4, #0, 4
    1270:	0402002f 	streq	r0, [r2], #-47	; 0x2f
    1274:	02006502 	andeq	r6, r0, #8388608	; 0x800000
    1278:	2e060104 	adfcss	f0, f6, f4
    127c:	67a24c06 	strvs	r4, [r2, r6, lsl #24]!
    1280:	0867b008 	stmdaeq	r7!, {r3, ip, sp, pc}^
    1284:	ae0867ae 	cdpge	7, 0, cr6, cr8, cr14, {5}
    1288:	67ae0867 	strvs	r0, [lr, r7, ror #16]!
    128c:	0267ae08 	rsbeq	sl, r7, #8, 28	; 0x80
    1290:	0101001c 	tsteq	r1, ip, lsl r0
    1294:	00000128 	andeq	r0, r0, r8, lsr #2
    1298:	010d0002 	tsteq	sp, r2
    129c:	01020000 	mrseq	r0, (UNDEF: 2)
    12a0:	000d0efb 	strdeq	r0, [sp], -fp
    12a4:	01010101 	tsteq	r1, r1, lsl #2
    12a8:	01000000 	mrseq	r0, (UNDEF: 0)
    12ac:	63010000 	movwvs	r0, #4096	; 0x1000
    12b0:	30343173 	eorscc	r3, r4, r3, ror r1
    12b4:	72732d65 	rsbsvc	r2, r3, #6464	; 0x1940
    12b8:	752f0063 	strvc	r0, [pc, #-99]!	; 125d <_start-0x6da3>
    12bc:	6c2f7273 	sfmvs	f7, 4, [pc], #-460	; 10f8 <_start-0x6f08>
    12c0:	6c61636f 	stclvs	3, cr6, [r1], #-444	; 0xfffffe44
    12c4:	6c65432f 	stclvs	3, cr4, [r5], #-188	; 0xffffff44
    12c8:	2f72616c 	svccs	0x0072616c
    12cc:	2d6d7261 	sfmcs	f7, 2, [sp, #-388]!	; 0xfffffe7c
    12d0:	656e6f6e 	strbvs	r6, [lr, #-3950]!	; 0xf6e
    12d4:	6261652d 	rsbvs	r6, r1, #188743680	; 0xb400000
    12d8:	2e342f69 	cdpcs	15, 3, cr2, cr4, cr9, {3}
    12dc:	2d332e38 	ldccs	14, cr2, [r3, #-224]!	; 0xffffff20
    12e0:	37317363 	ldrcc	r7, [r1, -r3, ror #6]!
    12e4:	6c2f6530 	cfstr32vs	mvfx6, [pc], #-192	; 122c <_start-0x6dd4>
    12e8:	672f6269 	strvs	r6, [pc, -r9, ror #4]!
    12ec:	612f6363 	teqvs	pc, r3, ror #6
    12f0:	6e2d6d72 	mcrvs	13, 1, r6, cr13, cr2, {3}
    12f4:	2d656e6f 	stclcs	14, cr6, [r5, #-444]!	; 0xfffffe44
    12f8:	69626165 	stmdbvs	r2!, {r0, r2, r5, r6, r8, sp, lr}^
    12fc:	382e342f 	stmdacc	lr!, {r0, r1, r2, r3, r5, sl, ip, sp}
    1300:	692f332e 	stmdbvs	pc!, {r1, r2, r3, r5, r8, r9, ip, sp}	; <UNPREDICTABLE>
    1304:	756c636e 	strbvc	r6, [ip, #-878]!	; 0x36e
    1308:	2f006564 	svccs	0x00006564
    130c:	2f727375 	svccs	0x00727375
    1310:	61636f6c 	cmnvs	r3, ip, ror #30
    1314:	65432f6c 	strbvs	r2, [r3, #-3948]	; 0xf6c
    1318:	72616c6c 	rsbvc	r6, r1, #108, 24	; 0x6c00
    131c:	6d72612f 	ldfvse	f6, [r2, #-188]!	; 0xffffff44
    1320:	6e6f6e2d 	cdpvs	14, 6, cr6, cr15, cr13, {1}
    1324:	61652d65 	cmnvs	r5, r5, ror #26
    1328:	342f6962 	strtcc	r6, [pc], #-2402	; 1330 <_start-0x6cd0>
    132c:	332e382e 	teqcc	lr, #3014656	; 0x2e0000
    1330:	3173632d 	cmncc	r3, sp, lsr #6
    1334:	2f653037 	svccs	0x00653037
    1338:	2d6d7261 	sfmcs	f7, 2, [sp, #-388]!	; 0xfffffe7c
    133c:	656e6f6e 	strbvs	r6, [lr, #-3950]!	; 0xf6e
    1340:	6261652d 	rsbvs	r6, r1, #188743680	; 0xb400000
    1344:	6e692f69 	cdpvs	15, 6, cr2, cr9, cr9, {3}
    1348:	64756c63 	ldrbtvs	r6, [r5], #-3171	; 0xc63
    134c:	63000065 	movwvs	r0, #101	; 0x65
    1350:	72746e6f 	rsbsvc	r6, r4, #1776	; 0x6f0
    1354:	622d6c6f 	eorvs	r6, sp, #28416	; 0x6f00
    1358:	6b636f6c 	blvs	18dd110 <__bss_end__+0x18ce8a0>
    135c:	0100632e 	tsteq	r0, lr, lsr #6
    1360:	74730000 	ldrbtvc	r0, [r3], #-0
    1364:	66656464 	strbtvs	r6, [r5], -r4, ror #8
    1368:	0200682e 	andeq	r6, r0, #3014656	; 0x2e0000
    136c:	74730000 	ldrbtvc	r0, [r3], #-0
    1370:	746e6964 	strbtvc	r6, [lr], #-2404	; 0x964
    1374:	6363672d 	cmnvs	r3, #11796480	; 0xb40000
    1378:	0200682e 	andeq	r6, r0, #3014656	; 0x2e0000
    137c:	77730000 	ldrbvc	r0, [r3, -r0]!
    1380:	7261752d 	rsbvc	r7, r1, #188743680	; 0xb400000
    1384:	00682e74 	rsbeq	r2, r8, r4, ror lr
    1388:	63000001 	movwvs	r0, #1
    138c:	72746e6f 	rsbsvc	r6, r4, #1776	; 0x6f0
    1390:	622d6c6f 	eorvs	r6, sp, #28416	; 0x6f00
    1394:	6b636f6c 	blvs	18dd14c <__bss_end__+0x18ce8dc>
    1398:	0100682e 	tsteq	r0, lr, lsr #16
    139c:	74730000 	ldrbtvc	r0, [r3], #-0
    13a0:	676e6972 			; <UNDEFINED> instruction: 0x676e6972
    13a4:	0300682e 	movweq	r6, #2094	; 0x82e
    13a8:	00000000 	andeq	r0, r0, r0
    13ac:	9e580205 	cdpls	2, 5, cr0, cr8, cr5, {0}
    13b0:	30160000 	andscc	r0, r6, r0
    13b4:	144c6883 	strbne	r6, [ip], #-2179	; 0x883
    13b8:	022f4b9f 	eoreq	r4, pc, #162816	; 0x27c00
    13bc:	01010004 	tsteq	r1, r4

Disassembly of section .debug_str:

00000000 <.debug_str>:
   0:	657a6973 	ldrbvs	r6, [sl, #-2419]!	; 0x973
   4:	6500745f 	strvs	r7, [r0, #-1119]	; 0x45f
   8:	726f7272 	rsbvc	r7, pc, #536870919	; 0x20000007
   c:	61665f73 	smcvs	26099	; 0x65f3
  10:	5f6c6174 	svcpl	0x006c6174
  14:	55410070 	strbpl	r0, [r1, #-112]	; 0x70
  18:	554d5f58 	strbpl	r5, [sp, #-3928]	; 0xf58
  1c:	5243535f 	subpl	r5, r3, #2080374785	; 0x7c000001
  20:	48435441 	stmdami	r3, {r0, r6, sl, ip, lr}^
  24:	746f6e00 	strbtvc	r6, [pc], #-3584	; 2c <_start-0x7fd4>
  28:	6e69616d 	powvsez	f6, f1, #5.0
  2c:	6d726100 	ldfvse	f6, [r2, #-0]
  30:	6d69745f 	cfstrdvs	mvd7, [r9, #-380]!	; 0xfffffe84
  34:	525f7265 	subspl	r7, pc, #1342177286	; 0x50000006
  38:	52495741 	subpl	r5, r9, #17039360	; 0x1040000
  3c:	61750051 	cmnvs	r5, r1, asr r0
  40:	695f7472 	ldmdbvs	pc, {r1, r4, r5, r6, sl, ip, sp, lr}^	; <UNPREDICTABLE>
  44:	5f74696e 	svcpl	0x0074696e
  48:	68746977 	ldmdavs	r4!, {r0, r1, r2, r4, r5, r6, r8, fp, sp, lr}^
  4c:	746e695f 	strbtvc	r6, [lr], #-2399	; 0x95f
  50:	75727265 	ldrbvc	r7, [r2, #-613]!	; 0x265
  54:	00737470 	rsbseq	r7, r3, r0, ror r4
  58:	676e6f6c 	strbvs	r6, [lr, -ip, ror #30]!
  5c:	6e6f6c20 	cdpvs	12, 6, cr6, cr15, cr0, {1}
  60:	6e752067 	cdpvs	0, 7, cr2, cr5, cr7, {3}
  64:	6e676973 	mcrvs	9, 3, r6, cr7, cr3, {3}
  68:	69206465 	stmdbvs	r0!, {r0, r2, r5, r6, sl, sp, lr}
  6c:	6300746e 	movwvs	r7, #1134	; 0x46e
  70:	6675625f 			; <UNDEFINED> instruction: 0x6675625f
  74:	49504700 	ldmdbmi	r0, {r8, r9, sl, lr}^
  78:	55465f4f 	strbpl	r5, [r6, #-3919]	; 0xf4f
  7c:	495f434e 	ldmdbmi	pc, {r1, r2, r3, r6, r8, r9, lr}^	; <UNPREDICTABLE>
  80:	5455504e 	ldrbpl	r5, [r5], #-78	; 0x4e
  84:	5f716300 	svcpl	0x00716300
  88:	74706d65 	ldrbtvc	r6, [r0], #-3429	; 0xd65
  8c:	6f6c0079 	svcvs	0x006c0079
  90:	6c20676e 	stcvs	7, cr6, [r0], #-440	; 0xfffffe48
  94:	20676e6f 	rsbcs	r6, r7, pc, ror #28
  98:	00746e69 	rsbseq	r6, r4, r9, ror #28
  9c:	74726175 	ldrbtvc	r6, [r2], #-373	; 0x175
  a0:	6e61635f 	mcrvs	3, 3, r6, cr1, cr15, {2}
  a4:	7465675f 	strbtvc	r6, [r5], #-1887	; 0x75f
  a8:	74730063 	ldrbtvc	r0, [r3], #-99	; 0x63
  ac:	00657461 	rsbeq	r7, r5, r1, ror #8
  b0:	5f6d7261 	svcpl	0x006d7261
  b4:	656d6974 	strbvs	r6, [sp, #-2420]!	; 0x974
  b8:	6f435f72 	svcvs	0x00435f72
  bc:	6f72746e 	svcvs	0x0072746e
  c0:	7261006c 	rsbvc	r0, r1, #108	; 0x6c
  c4:	69745f6d 	ldmdbvs	r4!, {r0, r2, r3, r5, r6, r8, r9, sl, fp, ip, lr}^
  c8:	5f72656d 	svcpl	0x0072656d
  cc:	64616f4c 	strbtvs	r6, [r1], #-3916	; 0xf4c
  d0:	6d726100 	ldfvse	f6, [r2, #-0]
  d4:	6d69745f 	cfstrdvs	mvd7, [r9, #-380]!	; 0xfffffe84
  d8:	425f7265 	subsmi	r7, pc, #1342177286	; 0x50000006
  dc:	00657361 	rsbeq	r7, r5, r1, ror #6
  e0:	5f766564 	svcpl	0x00766564
  e4:	72726162 	rsbsvc	r6, r2, #-2147483624	; 0x80000018
  e8:	00726569 	rsbseq	r6, r2, r9, ror #10
  ec:	5f585541 	svcpl	0x00585541
  f0:	4c5f554d 	cfldr64mi	mvdx5, [pc], {77}	; 0x4d
  f4:	525f5253 	subspl	r5, pc, #805306373	; 0x30000005
  f8:	41004745 	tstmi	r0, r5, asr #14
  fc:	455f5855 	ldrbmi	r5, [pc, #-2133]	; fffff8af <__bss_end__+0xffff103f>
 100:	4c42414e 	stfmie	f4, [r2], {78}	; 0x4e
 104:	75005345 	strvc	r5, [r0, #-837]	; 0x345
 108:	5f747261 	svcpl	0x00747261
 10c:	63746567 	cmnvs	r4, #432013312	; 0x19c00000
 110:	746e695f 	strbtvc	r6, [lr], #-2399	; 0x95f
 114:	5f6e6900 	svcpl	0x006e6900
 118:	61746164 	cmnvs	r4, r4, ror #2
 11c:	72617500 	rsbvc	r7, r1, #0, 10
 120:	61635f74 	smcvs	13812	; 0x35f4
 124:	75705f6e 	ldrbvc	r5, [r0, #-3950]!	; 0xf6e
 128:	74006374 	strvc	r6, [r0], #-884	; 0x374
 12c:	6f635f78 	svcvs	0x00635f78
 130:	00746e75 	rsbseq	r6, r4, r5, ror lr
 134:	51746567 	cmnpl	r4, r7, ror #10
 138:	6d726100 	ldfvse	f6, [r2, #-0]
 13c:	6d69745f 	cfstrdvs	mvd7, [r9, #-380]!	; 0xfffffe84
 140:	4d5f7265 	lfmmi	f7, 2, [pc, #-404]	; ffffffb4 <__bss_end__+0xffff1744>
 144:	656b7361 	strbvs	r7, [fp, #-865]!	; 0x361
 148:	51524964 	cmppl	r2, r4, ror #18
 14c:	58554100 	ldmdapl	r5, {r8, lr}^
 150:	5f554d5f 	svcpl	0x00554d5f
 154:	525f4f49 	subspl	r4, pc, #292	; 0x124
 158:	72004745 	andvc	r4, r0, #18087936	; 0x1140000
 15c:	725f6970 	subsvc	r6, pc, #112, 18	; 0x1c0000
 160:	74657365 	strbtvc	r7, [r5], #-869	; 0x365
 164:	7475705f 	ldrbtvc	r7, [r5], #-95	; 0x5f
 168:	77730063 	ldrbvc	r0, [r3, -r3, rrx]!
 16c:	7261755f 	rsbvc	r7, r1, #398458880	; 0x17c00000
 170:	55410074 	strbpl	r0, [r1, #-116]	; 0x74
 174:	554d5f58 	strbpl	r5, [sp, #-3928]	; 0xf58
 178:	5541425f 	strbpl	r4, [r1, #-607]	; 0x25f
 17c:	45525f44 	ldrbmi	r5, [r2, #-3908]	; 0xf44
 180:	5f5f0047 	svcpl	0x005f0047
 184:	434e5546 	movtmi	r5, #58694	; 0xe546
 188:	4e4f4954 	mcrmi	9, 2, r4, cr15, cr4, {2}
 18c:	41005f5f 	tstmi	r0, pc, asr pc
 190:	4d5f5855 	ldclmi	8, cr5, [pc, #-340]	; 44 <_start-0x7fbc>
 194:	434c5f55 	movtmi	r5, #53077	; 0xcf55
 198:	45525f52 	ldrbmi	r5, [r2, #-3922]	; 0xf52
 19c:	71630047 	cmnvc	r3, r7, asr #32
 1a0:	6c656e5f 	stclvs	14, cr6, [r5], #-380	; 0xfffffe84
 1a4:	73006d65 	movwvc	r6, #3429	; 0xd65
 1a8:	74726f68 	ldrbtvc	r6, [r2], #-3944	; 0xf68
 1ac:	736e7520 	cmnvc	lr, #32, 10	; 0x8000000
 1b0:	656e6769 	strbvs	r6, [lr, #-1897]!	; 0x769
 1b4:	6e692064 	cdpvs	0, 6, cr2, cr9, cr4, {3}
 1b8:	61750074 	cmnvs	r5, r4, ror r0
 1bc:	705f7472 	subsvc	r7, pc, r2, ror r4	; <UNPREDICTABLE>
 1c0:	5f637475 	svcpl	0x00637475
 1c4:	00746e69 	rsbseq	r6, r4, r9, ror #28
 1c8:	5f585541 	svcpl	0x00585541
 1cc:	4d5f554d 	cfldr64mi	mvdx5, [pc, #-308]	; a0 <_start-0x7f60>
 1d0:	525f5253 	subspl	r5, pc, #805306373	; 0x30000005
 1d4:	70004745 	andvc	r4, r0, r5, asr #14
 1d8:	00517475 	subseq	r7, r1, r5, ror r4
 1dc:	5f515249 	svcpl	0x00515249
 1e0:	42414e45 	submi	r4, r1, #1104	; 0x450
 1e4:	315f454c 	cmpcc	pc, ip, asr #10
 1e8:	51524900 	cmppl	r2, r0, lsl #18
 1ec:	414e455f 	cmpmi	lr, pc, asr r5
 1f0:	5f454c42 	svcpl	0x00454c42
 1f4:	61750032 	cmnvs	r5, r2, lsr r0
 1f8:	685f7472 	ldmdavs	pc, {r1, r4, r5, r6, sl, ip, sp, lr}^	; <UNPREDICTABLE>
 1fc:	645f7361 	ldrbvs	r7, [pc], #-865	; 204 <_start-0x7dfc>
 200:	5f617461 	svcpl	0x00617461
 204:	00746e69 	rsbseq	r6, r4, r9, ror #28
 208:	5f585541 	svcpl	0x00585541
 20c:	495f554d 	ldmdbmi	pc, {r0, r2, r3, r6, r8, sl, ip, lr}^	; <UNPREDICTABLE>
 210:	525f5245 	subspl	r5, pc, #1342177284	; 0x50000004
 214:	63004745 	movwvs	r4, #1861	; 0x745
 218:	6e61656c 	cdpvs	5, 6, cr6, cr1, cr12, {3}
 21c:	6265725f 	rsbvs	r7, r5, #-268435451	; 0xf0000005
 220:	00746f6f 	rsbseq	r6, r4, pc, ror #30
 224:	6c696174 	stfvse	f6, [r9], #-464	; 0xfffffe30
 228:	7a697300 	bvc	1a5ce30 <__bss_end__+0x1a4e5c0>
 22c:	70797465 	rsbsvc	r7, r9, r5, ror #8
 230:	70670065 	rsbvc	r0, r7, r5, rrx
 234:	735f6f69 	cmpvc	pc, #420	; 0x1a4
 238:	665f7465 	ldrbvs	r7, [pc], -r5, ror #8
 23c:	74636e75 	strbtvc	r6, [r3], #-3701	; 0xe75
 240:	006e6f69 	rsbeq	r6, lr, r9, ror #30
 244:	5f676572 	svcpl	0x00676572
 248:	006c6176 	rsbeq	r6, ip, r6, ror r1
 24c:	705f7163 	subsvc	r7, pc, r3, ror #2
 250:	6e5f706f 	cdpvs	0, 5, cr7, cr15, cr15, {3}
 254:	6c626e6f 	stclvs	14, cr6, [r2], #-444	; 0xfffffe44
 258:	006b636f 	rsbeq	r6, fp, pc, ror #6
 25c:	5f6d7261 	svcpl	0x006d7261
 260:	656d6974 	strbvs	r6, [sp, #-2420]!	; 0x974
 264:	65525f72 	ldrbvs	r5, [r2, #-3954]	; 0xf72
 268:	64616f6c 	strbtvs	r6, [r1], #-3948	; 0xf6c
 26c:	5f716300 	svcpl	0x00716300
 270:	74696e69 	strbtvc	r6, [r9], #-3689	; 0xe69
 274:	746e6900 	strbtvc	r6, [lr], #-2304	; 0x900
 278:	696e695f 	stmdbvs	lr!, {r0, r1, r2, r3, r4, r6, r8, fp, sp, lr}^
 27c:	55410074 	strbpl	r0, [r1, #-116]	; 0x74
 280:	554d5f58 	strbpl	r5, [sp, #-3928]	; 0xf58
 284:	5249495f 	subpl	r4, r9, #1556480	; 0x17c000
 288:	4745525f 	smlsldmi	r5, r5, pc, r2	; <UNPREDICTABLE>
 28c:	73797300 	cmnvc	r9, #0, 6
 290:	5f6d6574 	svcpl	0x006d6574
 294:	62616e65 	rsbvs	r6, r1, #1616	; 0x650
 298:	695f656c 	ldmdbvs	pc, {r2, r3, r5, r6, r8, sl, sp, lr}^	; <UNPREDICTABLE>
 29c:	7265746e 	rsbvc	r7, r5, #1845493760	; 0x6e000000
 2a0:	74707572 	ldrbtvc	r7, [r0], #-1394	; 0x572
 2a4:	55410073 	strbpl	r0, [r1, #-115]	; 0x73
 2a8:	52495f58 	subpl	r5, r9, #88, 30	; 0x160
 2ac:	77730051 			; <UNDEFINED> instruction: 0x77730051
 2b0:	7261755f 	rsbvc	r7, r1, #398458880	; 0x17c00000
 2b4:	00745f74 	rsbseq	r5, r4, r4, ror pc
 2b8:	69736e75 	ldmdbvs	r3!, {r0, r2, r4, r5, r6, r9, sl, fp, sp, lr}^
 2bc:	64656e67 	strbtvs	r6, [r5], #-3687	; 0xe67
 2c0:	61686320 	cmnvs	r8, r0, lsr #6
 2c4:	6e690072 	mcrvs	0, 3, r0, cr9, cr2, {3}
 2c8:	6168635f 	cmnvs	r8, pc, asr r3
 2cc:	68730072 	ldmdavs	r3!, {r1, r4, r5, r6}^
 2d0:	2074726f 	rsbscs	r7, r4, pc, ror #4
 2d4:	00746e69 	rsbseq	r6, r4, r9, ror #28
 2d8:	5f585541 	svcpl	0x00585541
 2dc:	535f554d 	cmppl	pc, #322961408	; 0x13400000
 2e0:	5f544154 	svcpl	0x00544154
 2e4:	00474552 	subeq	r4, r7, r2, asr r5
 2e8:	6573552f 	ldrbvs	r5, [r3, #-1327]!	; 0x52f
 2ec:	622f7372 	eorvs	r7, pc, #-939524095	; 0xc8000001
 2f0:	6e616972 	mcrvs	9, 3, r6, cr1, cr2, {3}
 2f4:	2f6e756a 	svccs	0x006e756a
 2f8:	6b736544 	blvs	1cd9810 <__bss_end__+0x1ccafa0>
 2fc:	2f706f74 	svccs	0x00706f74
 300:	6f686373 	svcvs	0x00686373
 304:	572f6c6f 	strpl	r6, [pc, -pc, ror #24]!
 308:	65746e69 	ldrbvs	r6, [r4, #-3689]!	; 0xe69
 30c:	32393172 	eorscc	r3, r9, #-2147483620	; 0x8000001c
 310:	53432f30 	movtpl	r2, #16176	; 0x3f30
 314:	45303431 	ldrmi	r3, [r0, #-1073]!	; 0x431
 318:	3173632f 	cmncc	r3, pc, lsr #6
 31c:	2d653034 	stclcs	0, cr3, [r5, #-208]!	; 0xffffff30
 320:	69773032 	ldmdbvs	r7!, {r1, r4, r5, ip, sp}^
 324:	6f682f6e 	svcvs	0x00682f6e
 328:	6f77656d 	svcvs	0x0077656d
 32c:	312f6b72 	teqcc	pc, r2, ror fp	; <UNPREDICTABLE>
 330:	2d77682d 	ldclcs	8, cr6, [r7, #-180]!	; 0xffffff4c
 334:	74726175 	ldrbtvc	r6, [r2], #-373	; 0x175
 338:	746e692d 	strbtvc	r6, [lr], #-2349	; 0x92d
 33c:	5f6e6900 	svcpl	0x006e6900
 340:	65680063 	strbvs	r0, [r8, #-99]!	; 0x63
 344:	75006461 	strvc	r6, [r0, #-1121]	; 0x461
 348:	33746e69 	cmncc	r4, #1680	; 0x690
 34c:	00745f32 	rsbseq	r5, r4, r2, lsr pc
 350:	64756162 	ldrbtvs	r6, [r5], #-354	; 0x162
 354:	554e4700 	strbpl	r4, [lr, #-1792]	; 0x700
 358:	34204320 	strtcc	r4, [r0], #-800	; 0x320
 35c:	332e382e 	teqcc	lr, #3014656	; 0x2e0000
 360:	636d2d20 	cmnvs	sp, #32, 26	; 0x800
 364:	613d7570 	teqvs	sp, r0, ror r5
 368:	31316d72 	teqcc	r1, r2, ror sp
 36c:	7a6a3637 	bvc	1a8dc50 <__bss_end__+0x1a7f3e0>
 370:	20732d66 	rsbscs	r2, r3, r6, ror #26
 374:	75746d2d 	ldrbvc	r6, [r4, #-3373]!	; 0xd2d
 378:	613d656e 	teqvs	sp, lr, ror #10
 37c:	31316d72 	teqcc	r1, r2, ror sp
 380:	7a6a3637 	bvc	1a8dc64 <__bss_end__+0x1a7f3f4>
 384:	20732d66 	rsbscs	r2, r3, r6, ror #26
 388:	6467672d 	strbtvs	r6, [r7], #-1837	; 0x72d
 38c:	4f2d2062 	svcmi	0x002d2062
 390:	732d2067 	teqvc	sp, #103	; 0x67
 394:	673d6474 			; <UNDEFINED> instruction: 0x673d6474
 398:	3939756e 	ldmdbcc	r9!, {r1, r2, r3, r5, r6, r8, sl, ip, sp, lr}
 39c:	66662d20 	strbtvs	r2, [r6], -r0, lsr #26
 3a0:	73656572 	cmnvc	r5, #478150656	; 0x1c800000
 3a4:	646e6174 	strbtvs	r6, [lr], #-372	; 0x174
 3a8:	00676e69 	rsbeq	r6, r7, r9, ror #28
 3ac:	636e6566 	cmnvs	lr, #427819008	; 0x19800000
 3b0:	55410065 	strbpl	r0, [r1, #-101]	; 0x65
 3b4:	554d5f58 	strbpl	r5, [sp, #-3928]	; 0xf58
 3b8:	544e435f 	strbpl	r4, [lr], #-863	; 0x35f
 3bc:	45525f4c 	ldrbmi	r5, [r2, #-3916]	; 0xf4c
 3c0:	766f0047 	strbtvc	r0, [pc], -r7, asr #32
 3c4:	6c667265 	sfmvs	f7, 2, [r6], #-404	; 0xfffffe6c
 3c8:	7000776f 	andvc	r7, r0, pc, ror #14
 3cc:	32337475 	eorscc	r7, r3, #1962934272	; 0x75000000
 3d0:	5f716300 	svcpl	0x00716300
 3d4:	68737570 	ldmdavs	r3!, {r4, r5, r6, r8, sl, ip, sp, lr}^
 3d8:	65716300 	ldrbvs	r6, [r1, #-768]!	; 0x300
 3dc:	6100745f 	tstvs	r0, pc, asr r4
 3e0:	745f6d72 	ldrbvc	r6, [pc], #-3442	; 3e8 <_start-0x7c18>
 3e4:	72656d69 	rsbvc	r6, r5, #6720	; 0x1a40
 3e8:	6572505f 	ldrbvs	r5, [r2, #-95]!	; 0x5f
 3ec:	69766944 	ldmdbvs	r6!, {r2, r6, r8, fp, sp, lr}^
 3f0:	00726564 	rsbseq	r6, r2, r4, ror #10
 3f4:	74726175 	ldrbtvc	r6, [r2], #-373	; 0x175
 3f8:	746e692d 	strbtvc	r6, [lr], #-2349	; 0x92d
 3fc:	6100632e 	tstvs	r0, lr, lsr #6
 400:	745f6d72 	ldrbvc	r6, [pc], #-3442	; 408 <_start-0x7bf8>
 404:	72656d69 	rsbvc	r6, r5, #6720	; 0x1a40
 408:	6c61565f 	stclvs	6, cr5, [r1], #-380	; 0xfffffe84
 40c:	61006575 	tstvs	r0, r5, ror r5
 410:	745f6d72 	ldrbvc	r6, [pc], #-3442	; 418 <_start-0x7be8>
 414:	72656d69 	rsbvc	r6, r5, #6720	; 0x1a40
 418:	5152495f 	cmppl	r2, pc, asr r9
 41c:	61656c43 	cmnvs	r5, r3, asr #24
 420:	656d0072 	strbvs	r0, [sp, #-114]!	; 0x72
 424:	7465736d 	strbtvc	r7, [r5], #-877	; 0x36d
 428:	5f716300 	svcpl	0x00716300
 42c:	70720074 	rsbsvc	r0, r2, r4, ror r0
 430:	72615f69 	rsbvc	r5, r1, #420	; 0x1a4
 434:	69745f6d 	ldmdbvs	r4!, {r0, r2, r3, r5, r6, r8, r9, sl, fp, ip, lr}^
 438:	5f72656d 	svcpl	0x0072656d
 43c:	50470074 	subpl	r0, r7, r4, ror r0
 440:	465f4f49 	ldrbmi	r4, [pc], -r9, asr #30
 444:	5f434e55 	svcpl	0x00434e55
 448:	5054554f 	subspl	r5, r4, pc, asr #10
 44c:	75005455 	strvc	r5, [r0, #-1109]	; 0x455
 450:	38746e69 	ldmdacc	r4!, {r0, r3, r5, r6, r9, sl, fp, sp, lr}^
 454:	6700745f 	smlsdvs	r0, pc, r4, r7	; <UNPREDICTABLE>
 458:	32337465 	eorscc	r7, r3, #1694498816	; 0x65000000
 45c:	69706700 	ldmdbvs	r0!, {r8, r9, sl, sp, lr}^
 460:	75665f6f 	strbvc	r5, [r6, #-3951]!	; 0xf6f
 464:	745f636e 	ldrbvc	r6, [pc], #-878	; 46c <_start-0x7b94>
 468:	646f6d00 	strbtvs	r6, [pc], #-3328	; 470 <_start-0x7b90>
 46c:	5f78745f 	svcpl	0x0078745f
 470:	65746e69 	ldrbvs	r6, [r4, #-3689]!	; 0xe69
 474:	70757272 	rsbsvc	r7, r5, r2, ror r2
 478:	47007374 	smlsdxmi	r0, r4, r3, r7
 47c:	5f4f4950 	svcpl	0x004f4950
 480:	434e5546 	movtmi	r5, #58694	; 0xe546
 484:	544c415f 	strbpl	r4, [ip], #-351	; 0x15f
 488:	50470030 	subpl	r0, r7, r0, lsr r0
 48c:	465f4f49 	ldrbmi	r4, [pc], -r9, asr #30
 490:	5f434e55 	svcpl	0x00434e55
 494:	31544c41 	cmpcc	r4, r1, asr #24
 498:	49504700 	ldmdbmi	r0, {r8, r9, sl, lr}^
 49c:	55465f4f 	strbpl	r5, [r6, #-3919]	; 0xf4f
 4a0:	415f434e 	cmpmi	pc, lr, asr #6
 4a4:	0032544c 	eorseq	r5, r2, ip, asr #8
 4a8:	4f495047 	svcmi	0x00495047
 4ac:	4e55465f 	mrcmi	6, 2, r4, cr5, cr15, {2}
 4b0:	4c415f43 	mcrrmi	15, 4, r5, r1, cr3
 4b4:	47003354 	smlsdmi	r0, r4, r3, r3
 4b8:	5f4f4950 	svcpl	0x004f4950
 4bc:	434e5546 	movtmi	r5, #58694	; 0xe546
 4c0:	544c415f 	strbpl	r4, [ip], #-351	; 0x15f
 4c4:	50470034 	subpl	r0, r7, r4, lsr r0
 4c8:	465f4f49 	ldrbmi	r4, [pc], -r9, asr #30
 4cc:	5f434e55 	svcpl	0x00434e55
 4d0:	35544c41 	ldrbcc	r4, [r4, #-3137]	; 0xc41
 4d4:	58554100 	ldmdapl	r5, {r8, lr}^
 4d8:	5f554d5f 	svcpl	0x00554d5f
 4dc:	5f52434d 	svcpl	0x0052434d
 4e0:	00474552 	subeq	r4, r7, r2, asr r5
 4e4:	6c637963 	stclvs	9, cr7, [r3], #-396	; 0xfffffe74
 4e8:	65705f65 	ldrbvs	r5, [r0, #-3941]!	; 0xf65
 4ec:	69625f72 	stmdbvs	r2!, {r1, r4, r5, r6, r8, r9, sl, fp, ip, lr}^
 4f0:	79730074 	ldmdbvc	r3!, {r2, r4, r5, r6}^
 4f4:	6d657473 	cfstrdvs	mvd7, [r5, #-460]!	; 0xfffffe34
 4f8:	7369645f 	cmnvc	r9, #1593835520	; 0x5f000000
 4fc:	656c6261 	strbvs	r6, [ip, #-609]!	; 0x261
 500:	746e695f 	strbtvc	r6, [lr], #-2399	; 0x95f
 504:	75727265 	ldrbvc	r7, [r2, #-613]!	; 0x265
 508:	00737470 	rsbseq	r7, r3, r0, ror r4
 50c:	705f796d 	subsvc	r7, pc, sp, ror #18
 510:	00737475 	rsbseq	r7, r3, r5, ror r4
 514:	665f7163 	ldrbvs	r7, [pc], -r3, ror #2
 518:	006c6c75 	rsbeq	r6, ip, r5, ror ip
 51c:	5f6d7261 	svcpl	0x006d7261
 520:	656d6974 	strbvs	r6, [sp, #-2420]!	; 0x974
 524:	72465f72 	subvc	r5, r6, #456	; 0x1c8
 528:	75526565 	ldrbvc	r6, [r2, #-1381]	; 0x565
 52c:	6e696e6e 	cdpvs	14, 6, cr6, cr9, cr14, {3}
 530:	756f4367 	strbvc	r4, [pc, #-871]!	; 1d1 <_start-0x7e2f>
 534:	7265746e 	rsbvc	r7, r5, #1845493760	; 0x6e000000
 538:	62696c00 	rsbvs	r6, r9, #0, 24
 53c:	656d2f63 	strbvs	r2, [sp, #-3939]!	; 0xf63
 540:	7465736d 	strbtvc	r7, [r5], #-877	; 0x36d
 544:	2f00632e 	svccs	0x0000632e
 548:	72657355 	rsbvc	r7, r5, #1409286145	; 0x54000001
 54c:	72622f73 	rsbvc	r2, r2, #460	; 0x1cc
 550:	6a6e6169 	bvs	1b98afc <__bss_end__+0x1b8a28c>
 554:	442f6e75 	strtmi	r6, [pc], #-3701	; 55c <_start-0x7aa4>
 558:	746b7365 	strbtvc	r7, [fp], #-869	; 0x365
 55c:	732f706f 	teqvc	pc, #111	; 0x6f
 560:	6f6f6863 	svcvs	0x006f6863
 564:	69572f6c 	ldmdbvs	r7, {r2, r3, r5, r6, r8, r9, sl, fp, sp}^
 568:	7265746e 	rsbvc	r7, r5, #1845493760	; 0x6e000000
 56c:	30323931 	eorscc	r3, r2, r1, lsr r9
 570:	3153432f 	cmpcc	r3, pc, lsr #6
 574:	2f453034 	svccs	0x00453034
 578:	34317363 	ldrtcc	r7, [r1], #-867	; 0x363
 57c:	322d6530 	eorcc	r6, sp, #48, 10	; 0xc000000
 580:	6e697730 	mcrvs	7, 3, r7, cr9, cr0, {1}
 584:	62696c2f 	rsbvs	r6, r9, #12032	; 0x2f00
 588:	5f006970 	svcpl	0x00006970
 58c:	756e675f 	strbvc	r6, [lr, #-1887]!	; 0x75f
 590:	61765f63 	cmnvs	r6, r3, ror #30
 594:	73696c5f 	cmnvc	r9, #24320	; 0x5f00
 598:	696c0074 	stmdbvs	ip!, {r2, r4, r5, r6}^
 59c:	702f6362 	eorvc	r6, pc, r2, ror #6
 5a0:	746e6972 	strbtvc	r6, [lr], #-2418	; 0x972
 5a4:	00632e6b 	rsbeq	r2, r3, fp, ror #28
 5a8:	705f6176 	subsvc	r6, pc, r6, ror r1	; <UNPREDICTABLE>
 5ac:	746e6972 	strbtvc	r6, [lr], #-2418	; 0x972
 5b0:	5f5f006b 	svcpl	0x005f006b
 5b4:	6c5f6176 	ldfvse	f6, [pc], {118}	; 0x76
 5b8:	00747369 	rsbseq	r7, r4, r9, ror #6
 5bc:	73677261 	cmnvc	r7, #268435462	; 0x10000006
 5c0:	615f5f00 	cmpvs	pc, r0, lsl #30
 5c4:	6e690070 	mcrvs	0, 3, r0, cr9, cr0, {3}
 5c8:	6e726574 	mrcvs	5, 3, r6, cr2, cr4, {3}
 5cc:	705f6c61 	subsvc	r6, pc, r1, ror #24
 5d0:	68637475 	stmdavs	r3!, {r0, r2, r4, r5, r6, sl, ip, sp, lr}^
 5d4:	72007261 	andvc	r7, r0, #268435462	; 0x10000006
 5d8:	705f6970 	subsvc	r6, pc, r0, ror r9	; <UNPREDICTABLE>
 5dc:	68637475 	stmdavs	r3!, {r0, r2, r4, r5, r6, sl, ip, sp, lr}^
 5e0:	6c007261 	sfmvs	f7, 4, [r0], {97}	; 0x61
 5e4:	2f636269 	svccs	0x00636269
 5e8:	63747570 	cmnvs	r4, #112, 10	; 0x1c000000
 5ec:	2e726168 	rpwcssz	f6, f2, #0.0
 5f0:	70720063 	rsbsvc	r0, r2, r3, rrx
 5f4:	65735f69 	ldrbvs	r5, [r3, #-3945]!	; 0xf69
 5f8:	75705f74 	ldrbvc	r5, [r0, #-3956]!	; 0xf74
 5fc:	6c006374 	stcvs	3, cr6, [r0], {116}	; 0x74
 600:	2f636269 	svccs	0x00636269
 604:	6b747570 	blvs	1d1dbcc <__bss_end__+0x1d0f35c>
 608:	6900632e 	stmdbvs	r0, {r1, r2, r3, r5, r8, r9, sp, lr}
 60c:	7265746e 	rsbvc	r7, r5, #1845493760	; 0x6e000000
 610:	5f6c616e 	svcpl	0x006c616e
 614:	6b747570 	blvs	1d1dbdc <__bss_end__+0x1d0f36c>
 618:	67656e00 	strbvs	r6, [r5, -r0, lsl #28]!
 61c:	7200705f 	andvc	r7, r0, #95	; 0x5f
 620:	72657665 	rsbvc	r7, r5, #105906176	; 0x6500000
 624:	69006573 	stmdbvs	r0, {r0, r1, r4, r5, r6, r8, sl, sp, lr}
 628:	67696473 			; <UNDEFINED> instruction: 0x67696473
 62c:	70007469 	andvc	r7, r0, r9, ror #8
 630:	5f737475 	svcpl	0x00737475
 634:	62007066 	andvs	r7, r0, #102	; 0x66
 638:	00657361 	rsbeq	r7, r5, r1, ror #6
 63c:	6e676973 	mcrvs	9, 3, r6, cr7, cr3, {3}
 640:	705f6465 	subsvc	r6, pc, r5, ror #8
 644:	62696c00 	rsbvs	r6, r9, #0, 24
 648:	61762f63 	cmnvs	r6, r3, ror #30
 64c:	6972702d 	ldmdbvs	r2!, {r0, r2, r3, r5, ip, sp, lr}^
 650:	2e6b746e 	cdpcs	4, 6, cr7, cr11, cr14, {3}
 654:	70720063 	rsbsvc	r0, r2, r3, rrx
 658:	65735f69 	ldrbvs	r5, [r3, #-3945]!	; 0xf69
 65c:	756f5f74 	strbvc	r5, [pc, #-3956]!	; fffff6f0 <__bss_end__+0xffff0e80>
 660:	74757074 	ldrbtvc	r7, [r5], #-116	; 0x74
 664:	64697700 	strbtvs	r7, [r9], #-1792	; 0x700
 668:	70006874 	andvc	r6, r0, r4, ror r8
 66c:	5f637475 	svcpl	0x00637475
 670:	65007066 	strvs	r7, [r0, #-102]	; 0x66
 674:	0074696d 	rsbseq	r6, r4, sp, ror #18
 678:	5f697072 	svcpl	0x00697072
 67c:	6f626572 	svcvs	0x00626572
 680:	6300746f 	movwvs	r7, #1135	; 0x46f
 684:	30343173 	eorscc	r3, r4, r3, ror r1
 688:	72732d65 	rsbsvc	r2, r3, #6464	; 0x1940
 68c:	6c632f63 	stclvs	15, cr2, [r3], #-396	; 0xfffffe74
 690:	2d6e6165 	stfcse	f6, [lr, #-404]!	; 0xfffffe6c
 694:	6f626572 	svcvs	0x00626572
 698:	632e746f 	teqvs	lr, #1862270976	; 0x6f000000
 69c:	6c656400 	cfstrdvs	mvd6, [r5], #-0
 6a0:	6d5f7961 	ldclvs	9, cr7, [pc, #-388]	; 524 <_start-0x7adc>
 6a4:	6e690073 	mcrvs	0, 3, r0, cr9, cr3, {3}
 6a8:	6e726574 	mrcvs	5, 3, r6, cr2, cr4, {3}
 6ac:	735f6c61 	cmpvc	pc, #24832	; 0x6100
 6b0:	75705f77 	ldrbvc	r5, [r0, #-3959]!	; 0xf77
 6b4:	61686374 	smcvs	34356	; 0x8634
 6b8:	5f5f0072 	svcpl	0x005f0072
 6bc:	5f737362 	svcpl	0x00737362
 6c0:	72617473 	rsbvc	r7, r1, #1929379840	; 0x73000000
 6c4:	005f5f74 	subseq	r5, pc, r4, ror pc	; <UNPREDICTABLE>
 6c8:	5f737362 	svcpl	0x00737362
 6cc:	00646e65 	rsbeq	r6, r4, r5, ror #28
 6d0:	736e6f63 	cmnvc	lr, #396	; 0x18c
 6d4:	5f656c6f 	svcpl	0x00656c6f
 6d8:	74726175 	ldrbtvc	r6, [r2], #-373	; 0x175
 6dc:	5f777300 	svcpl	0x00777300
 6e0:	74726175 	ldrbtvc	r6, [r2], #-373	; 0x175
 6e4:	6972705f 	ldmdbvs	r2!, {r0, r1, r2, r3, r4, r6, ip, sp, lr}^
 6e8:	006b746e 	rsbeq	r7, fp, lr, ror #8
 6ec:	43545550 	cmpmi	r4, #80, 10	; 0x14000000
 6f0:	5053455f 	subspl	r4, r3, pc, asr r5
 6f4:	5241555f 	subpl	r5, r1, #398458880	; 0x17c00000
 6f8:	55500054 	ldrbpl	r0, [r0, #-84]	; 0x54
 6fc:	535f4354 	cmppl	pc, #84, 6	; 0x50000001
 700:	41555f57 	cmpmi	r5, r7, asr pc
 704:	50005452 	andpl	r5, r0, r2, asr r4
 708:	5f435455 	svcpl	0x00435455
 70c:	555f5748 	ldrbpl	r5, [pc, #-1864]	; ffffffcc <__bss_end__+0xffff175c>
 710:	00545241 	subseq	r5, r4, r1, asr #4
 714:	7473635f 	ldrbtvc	r6, [r3], #-863	; 0x35f
 718:	00747261 	rsbseq	r7, r4, r1, ror #4
 71c:	74726175 	ldrbtvc	r6, [r2], #-373	; 0x175
 720:	7665645f 			; <UNDEFINED> instruction: 0x7665645f
 724:	7300745f 	movwvc	r7, #1119	; 0x45f
 728:	61755f77 	cmnvs	r5, r7, ror pc
 72c:	705f7472 	subsvc	r7, pc, r2, ror r4	; <UNPREDICTABLE>
 730:	00637475 	rsbeq	r7, r3, r5, ror r4
 734:	746e6f63 	strbtvc	r6, [lr], #-3939	; 0xf63
 738:	5f6c6f72 	svcpl	0x006c6f72
 73c:	5f6b6c62 	svcpl	0x006b6c62
 740:	62630074 	rsbvs	r0, r3, #116	; 0x74
 744:	7465675f 	strbtvc	r6, [r5], #-1887	; 0x75f
 748:	6f6c625f 	svcvs	0x006c625f
 74c:	5f006b63 	svcpl	0x00006b63
 750:	7373625f 	cmnvc	r3, #-268435451	; 0xf0000005
 754:	646e655f 	strbtvs	r6, [lr], #-1375	; 0x55f
 758:	63005f5f 	movwvs	r5, #3935	; 0xf5f
 75c:	30343173 	eorscc	r3, r4, r3, ror r1
 760:	72732d65 	rsbsvc	r2, r3, #6464	; 0x1940
 764:	73632f63 	cmnvc	r3, #396	; 0x18c
 768:	74726174 	ldrbtvc	r6, [r2], #-372	; 0x174
 76c:	6300632e 	movwvs	r6, #814	; 0x32e
 770:	6f736e6f 	svcvs	0x00736e6f
 774:	645f656c 	ldrbvs	r6, [pc], #-1388	; 77c <_start-0x7884>
 778:	6d007665 	stcvs	6, cr7, [r0, #-404]	; 0xfffffe6c
 77c:	63696761 	cmnvs	r9, #25427968	; 0x1840000
 780:	5f746100 	svcpl	0x00746100
 784:	72657375 	rsbvc	r7, r5, #-738197503	; 0xd4000001
 788:	76656c5f 			; <UNDEFINED> instruction: 0x76656c5f
 78c:	50006c65 	andpl	r6, r0, r5, ror #24
 790:	41505f4d 	cmpmi	r0, sp, asr #30
 794:	4f575353 	svcmi	0x00575353
 798:	63004452 	movwvs	r4, #1106	; 0x452
 79c:	30343173 	eorscc	r3, r4, r3, ror r1
 7a0:	72732d65 	rsbsvc	r2, r3, #6464	; 0x1940
 7a4:	65722f63 	ldrbvs	r2, [r2, #-3939]!	; 0xf63
 7a8:	746f6f62 	strbtvc	r6, [pc], #-3938	; 7b0 <_start-0x7850>
 7ac:	5000632e 	andpl	r6, r0, lr, lsr #6
 7b0:	53525f4d 	cmppl	r2, #308	; 0x134
 7b4:	575f4354 			; <UNDEFINED> instruction: 0x575f4354
 7b8:	47464352 	smlsldmi	r4, r6, r2, r3
 7bc:	4c55465f 	mrrcmi	6, 5, r4, r5, cr15
 7c0:	45525f4c 	ldrbmi	r5, [r2, #-3916]	; 0xf4c
 7c4:	00544553 	subseq	r4, r4, r3, asr r5
 7c8:	575f4d50 			; <UNDEFINED> instruction: 0x575f4d50
 7cc:	00474f44 	subeq	r4, r7, r4, asr #30
 7d0:	5f746573 	svcpl	0x00746573
 7d4:	72657375 	rsbvc	r7, r5, #-738197503	; 0xd4000001
 7d8:	76656c5f 			; <UNDEFINED> instruction: 0x76656c5f
 7dc:	50006c65 	andpl	r6, r0, r5, ror #24
 7e0:	32335455 	eorscc	r5, r3, #1426063360	; 0x55000000
 7e4:	5f4d5000 	svcpl	0x004d5000
 7e8:	43545352 	cmpmi	r4, #1207959553	; 0x48000001
 7ec:	73706300 	cmnvc	r0, #0, 6
 7f0:	69740072 	ldmdbvs	r4!, {r1, r4, r5, r6}^
 7f4:	5f72656d 	svcpl	0x0072656d
 7f8:	5f746567 	svcpl	0x00746567
 7fc:	63657375 	cmnvs	r5, #-738197503	; 0xd4000001
 800:	7761725f 			; <UNDEFINED> instruction: 0x7761725f
 804:	6c656400 	cfstrdvs	mvd6, [r5], #-0
 808:	735f7961 	cmpvc	pc, #1589248	; 0x184000
 80c:	63006365 	movwvs	r6, #869	; 0x365
 810:	30343173 	eorscc	r3, r4, r3, ror r1
 814:	72732d65 	rsbsvc	r2, r3, #6464	; 0x1940
 818:	69742f63 	ldmdbvs	r4!, {r0, r1, r5, r6, r8, r9, sl, fp, sp}^
 81c:	2e72656d 	cdpcs	5, 7, cr6, cr2, cr13, {3}
 820:	45470063 	strbmi	r0, [r7, #-99]	; 0x63
 824:	00323354 	eorseq	r3, r2, r4, asr r3
 828:	6b636974 	blvs	18dae00 <__bss_end__+0x18cc590>
 82c:	65640073 	strbvs	r0, [r4, #-115]!	; 0x73
 830:	5f79616c 	svcpl	0x0079616c
 834:	6c637963 	stclvs	9, cr7, [r3], #-396	; 0xfffffe74
 838:	64007365 	strvs	r7, [r0], #-869	; 0x365
 83c:	79616c65 	stmdbvc	r1!, {r0, r2, r5, r6, sl, fp, sp, lr}^
 840:	0073755f 	rsbseq	r7, r3, pc, asr r5
 844:	656d6974 	strbvs	r6, [sp, #-2420]!	; 0x974
 848:	65675f72 	strbvs	r5, [r7, #-3954]!	; 0xf72
 84c:	73755f74 	cmnvc	r5, #116, 30	; 0x1d0
 850:	67006365 	strvs	r6, [r0, -r5, ror #6]
 854:	5f6f6970 	svcpl	0x006f6970
 858:	6e657665 	cdpvs	6, 6, cr7, cr5, cr5, {3}
 85c:	65645f74 	strbvs	r5, [r4, #-3956]!	; 0xf74
 860:	74636574 	strbtvc	r6, [r3], #-1396	; 0x574
 864:	47006465 	strmi	r6, [r0, -r5, ror #8]
 868:	45534650 	ldrbmi	r4, [r3, #-1616]	; 0x650
 86c:	4700324c 	strmi	r3, [r0, -ip, asr #4]
 870:	524c4350 	subpl	r4, ip, #80, 6	; 0x40000001
 874:	4e450030 	mcrmi	0, 2, r0, cr5, cr0, {1}
 878:	454c4241 	strbmi	r4, [ip, #-577]	; 0x241
 87c:	5152495f 	cmppl	r2, pc, asr r9
 880:	00325f53 	eorseq	r5, r2, r3, asr pc
 884:	675f7369 	ldrbvs	r7, [pc, -r9, ror #6]
 888:	5f6f6970 	svcpl	0x006f6970
 88c:	00746e69 	rsbseq	r6, r4, r9, ror #28
 890:	6f697067 	svcvs	0x00697067
 894:	7465735f 	strbtvc	r7, [r5], #-863	; 0x35f
 898:	66666f5f 	uqsaxvs	r6, r6, pc	; <UNPREDICTABLE>
 89c:	2d796d00 	ldclcs	13, cr6, [r9, #-0]
 8a0:	2f637273 	svccs	0x00637273
 8a4:	6f697067 	svcvs	0x00697067
 8a8:	6900632e 	stmdbvs	r0, {r1, r2, r3, r5, r8, r9, sp, lr}
 8ac:	6d5f746e 	cfldrdvs	mvd7, [pc, #-440]	; 6fc <_start-0x7904>
 8b0:	006b7361 	rsbeq	r7, fp, r1, ror #6
 8b4:	45535047 	ldrbmi	r5, [r3, #-71]	; 0x47
 8b8:	47003054 	smlsdmi	r0, r4, r0, r3
 8bc:	54455350 	strbpl	r5, [r5], #-848	; 0x350
 8c0:	65720031 	ldrbvs	r0, [r2, #-49]!	; 0x31
 8c4:	74735f67 	ldrbtvc	r5, [r3], #-3943	; 0xf67
 8c8:	47007461 	strmi	r7, [r0, -r1, ror #8]
 8cc:	56454c50 			; <UNDEFINED> instruction: 0x56454c50
 8d0:	50470030 	subpl	r0, r7, r0, lsr r0
 8d4:	3156454c 	cmpcc	r6, ip, asr #10
 8d8:	69706700 	ldmdbvs	r0!, {r8, r9, sl, sp, lr}^
 8dc:	65725f6f 	ldrbvs	r5, [r2, #-3951]!	; 0xf6f
 8e0:	50470067 	subpl	r0, r7, r7, rrx
 8e4:	4c455346 	mcrrmi	3, 4, r5, r5, cr6
 8e8:	50470030 	subpl	r0, r7, r0, lsr r0
 8ec:	4c455346 	mcrrmi	3, 4, r5, r5, cr6
 8f0:	50470031 	subpl	r0, r7, r1, lsr r0
 8f4:	4c455346 	mcrrmi	3, 4, r5, r5, cr6
 8f8:	50470033 	subpl	r0, r7, r3, lsr r0
 8fc:	4c455346 	mcrrmi	3, 4, r5, r5, cr6
 900:	50470034 	subpl	r0, r7, r4, lsr r0
 904:	4c455346 	mcrrmi	3, 4, r5, r5, cr6
 908:	70670035 	rsbvc	r0, r7, r5, lsr r0
 90c:	665f6f69 	ldrbvs	r6, [pc], -r9, ror #30
 910:	306c6573 	rsbcc	r6, ip, r3, ror r5
 914:	43504700 	cmpmi	r0, #0, 14
 918:	0031524c 	eorseq	r5, r1, ip, asr #4
 91c:	6f697067 	svcvs	0x00697067
 920:	6165725f 	cmnvs	r5, pc, asr r2
 924:	70670064 	rsbvc	r0, r7, r4, rrx
 928:	695f6f69 	ldmdbvs	pc, {r0, r3, r5, r6, r8, r9, sl, fp, sp, lr}^	; <UNPREDICTABLE>
 92c:	725f746e 	subsvc	r7, pc, #1845493760	; 0x6e000000
 930:	6e697369 	cdpvs	3, 6, cr7, cr9, cr9, {3}
 934:	64655f67 	strbtvs	r5, [r5], #-3943	; 0xf67
 938:	47006567 	strmi	r6, [r0, -r7, ror #10]
 93c:	4e455250 	mcrmi	2, 2, r5, cr5, cr0, {2}
 940:	50470030 	subpl	r0, r7, r0, lsr r0
 944:	314e4552 	cmpcc	lr, r2, asr r5
 948:	69706700 	ldmdbvs	r0!, {r8, r9, sl, sp, lr}^
 94c:	76655f6f 	strbtvc	r5, [r5], -pc, ror #30
 950:	5f746e65 	svcpl	0x00746e65
 954:	61656c63 	cmnvs	r5, r3, ror #24
 958:	52490072 	subpl	r0, r9, #114	; 0x72
 95c:	45505f51 	ldrbmi	r5, [r0, #-3921]	; 0xf51
 960:	4e49444e 	cdpmi	4, 4, cr4, cr9, cr14, {2}
 964:	00315f47 	eorseq	r5, r1, r7, asr #30
 968:	5f515249 	svcpl	0x00515249
 96c:	444e4550 	strbmi	r4, [lr], #-1360	; 0x550
 970:	5f474e49 	svcpl	0x00474e49
 974:	69620032 	stmdbvs	r2!, {r1, r4, r5}^
 978:	73616d74 	cmnvc	r1, #116, 26	; 0x1d00
 97c:	7067006b 	rsbvc	r0, r7, fp, rrx
 980:	775f6f69 	ldrbvc	r6, [pc, -r9, ror #30]
 984:	65746972 	ldrbvs	r6, [r4, #-2418]!	; 0x972
 988:	69706700 	ldmdbvs	r0!, {r8, r9, sl, sp, lr}^
 98c:	65735f6f 	ldrbvs	r5, [r3, #-3951]!	; 0xf6f
 990:	66003074 			; <UNDEFINED> instruction: 0x66003074
 994:	00636e75 	rsbeq	r6, r3, r5, ror lr
 998:	6f697067 	svcvs	0x00697067
 99c:	7465735f 	strbtvc	r7, [r5], #-863	; 0x35f
 9a0:	706e695f 	rsbvc	r6, lr, pc, asr r9
 9a4:	47007475 	smlsdxmi	r0, r5, r4, r7
 9a8:	53444550 	movtpl	r4, #17744	; 0x4550
 9ac:	50470030 	subpl	r0, r7, r0, lsr r0
 9b0:	31534445 	cmpcc	r3, r5, asr #8
 9b4:	69706700 	ldmdbvs	r0!, {r8, r9, sl, sp, lr}^
 9b8:	65735f6f 	ldrbvs	r5, [r3, #-3951]!	; 0xf6f
 9bc:	6e6f5f74 	mcrvs	15, 3, r5, cr15, cr4, {3}
 9c0:	46504700 	ldrbmi	r4, [r0], -r0, lsl #14
 9c4:	00304e45 	eorseq	r4, r0, r5, asr #28
 9c8:	45465047 	strbmi	r5, [r6, #-71]	; 0x47
 9cc:	6700314e 	strvs	r3, [r0, -lr, asr #2]
 9d0:	5f6f6970 	svcpl	0x006f6970
 9d4:	5f746573 	svcpl	0x00746573
 9d8:	7074756f 	rsbsvc	r7, r4, pc, ror #10
 9dc:	67007475 	smlsdxvs	r0, r5, r4, r7
 9e0:	5f6f6970 	svcpl	0x006f6970
 9e4:	5f746e69 	svcpl	0x00746e69
 9e8:	6c6c6166 	stfvse	f6, [ip], #-408	; 0xfffffe68
 9ec:	5f676e69 	svcpl	0x00676e69
 9f0:	65676465 	strbvs	r6, [r7, #-1125]!	; 0x465
 9f4:	67657200 	strbvs	r7, [r5, -r0, lsl #4]!
 9f8:	6c65735f 	stclvs	3, cr7, [r5], #-380	; 0xfffffe84
 9fc:	00746365 	rsbseq	r6, r4, r5, ror #6
 a00:	6f697067 	svcvs	0x00697067
 a04:	726c635f 	rsbvc	r6, ip, #2080374785	; 0x7c000001
 a08:	79630030 	stmdbvc	r3!, {r4, r5}^
 a0c:	65705f63 	ldrbvs	r5, [r0, #-3939]!	; 0xf63
 a10:	69625f72 	stmdbvs	r2!, {r1, r4, r5, r6, r8, r9, sl, fp, ip, lr}^
 a14:	72770074 	rsbsvc	r0, r7, #116	; 0x74
 a18:	5f657469 	svcpl	0x00657469
 a1c:	5f637963 	svcpl	0x00637963
 a20:	69746e75 	ldmdbvs	r4!, {r0, r2, r4, r5, r6, r9, sl, fp, sp, lr}^
 a24:	7773006c 	ldrbvc	r0, [r3, -ip, rrx]!
 a28:	7261755f 	rsbvc	r7, r1, #398458880	; 0x17c00000
 a2c:	65675f74 	strbvs	r5, [r7, #-3956]!	; 0xf74
 a30:	745f6374 	ldrbvc	r6, [pc], #-884	; a38 <_start-0x75c8>
 a34:	6f656d69 	svcvs	0x00656d69
 a38:	73007475 	movwvc	r7, #1141	; 0x475
 a3c:	61755f77 	cmnvs	r5, r7, ror pc
 a40:	675f7472 			; <UNDEFINED> instruction: 0x675f7472
 a44:	5f737465 	svcpl	0x00737465
 a48:	69746e75 	ldmdbvs	r4!, {r0, r2, r4, r5, r6, r9, sl, fp, sp, lr}^
 a4c:	7773006c 	ldrbvc	r0, [r3, -ip, rrx]!
 a50:	7261755f 	rsbvc	r7, r1, #398458880	; 0x17c00000
 a54:	65675f74 	strbvs	r5, [r7, #-3956]!	; 0xf74
 a58:	64006374 	strvs	r6, [r0], #-884	; 0x374
 a5c:	76697265 	strbtvc	r7, [r9], -r5, ror #4
 a60:	64006465 	strvs	r6, [r0], #-1125	; 0x465
 a64:	79616c65 	stmdbvc	r1!, {r0, r2, r5, r6, sl, fp, sp, lr}^
 a68:	79636e5f 	stmdbvc	r3!, {r0, r1, r2, r3, r4, r6, r9, sl, fp, sp, lr}^
 a6c:	73656c63 	cmnvc	r5, #25344	; 0x6300
 a70:	5f777300 	svcpl	0x00777300
 a74:	74726175 	ldrbtvc	r6, [r2], #-373	; 0x175
 a78:	696e695f 	stmdbvs	lr!, {r0, r1, r2, r3, r4, r6, r8, fp, sp, lr}^
 a7c:	65685f74 	strbvs	r5, [r8, #-3956]!	; 0xf74
 a80:	7265706c 	rsbvc	r7, r5, #108	; 0x6c
 a84:	6d697400 	cfstrdvs	mvd7, [r9, #-0]
 a88:	74756f65 	ldrbtvc	r6, [r5], #-3941	; 0xf65
 a8c:	6573755f 	ldrbvs	r7, [r3, #-1375]!	; 0x55f
 a90:	77730063 	ldrbvc	r0, [r3, -r3, rrx]!
 a94:	7261755f 	rsbvc	r7, r1, #398458880	; 0x17c00000
 a98:	75705f74 	ldrbvc	r5, [r0, #-3956]!	; 0xf74
 a9c:	6d006b74 	vstrvs	d6, [r0, #-464]	; 0xfffffe30
 aa0:	72732d79 	rsbsvc	r2, r3, #7744	; 0x1e40
 aa4:	77732f63 	ldrbvc	r2, [r3, -r3, ror #30]!
 aa8:	7261752d 	rsbvc	r7, r1, #188743680	; 0xb400000
 aac:	00632e74 	rsbeq	r2, r3, r4, ror lr
 ab0:	72616863 	rsbvc	r6, r1, #6488064	; 0x630000
 ab4:	006e695f 	rsbeq	r6, lr, pc, asr r9
 ab8:	755f7773 	ldrbvc	r7, [pc, #-1907]	; 34d <_start-0x7cb3>
 abc:	5f747261 	svcpl	0x00747261
 ac0:	73746567 	cmnvc	r4, #432013312	; 0x19c00000
 ac4:	6d69745f 	cfstrdvs	mvd7, [r9, #-380]!	; 0xfffffe84
 ac8:	74756f65 	ldrbtvc	r6, [r5], #-3941	; 0xf65
 acc:	756f5f00 	strbvc	r5, [pc, #-3840]!	; fffffbd4 <__bss_end__+0xffff1364>
 ad0:	626e0074 	rsbvs	r0, lr, #116	; 0x74
 ad4:	73657479 	cmnvc	r5, #2030043136	; 0x79000000
 ad8:	65737500 	ldrbvs	r7, [r3, #-1280]!	; 0x500
 adc:	69745f63 	ldmdbvs	r4!, {r0, r1, r5, r6, r8, r9, sl, fp, ip, lr}^
 ae0:	756f656d 	strbvc	r6, [pc, #-1389]!	; 57b <_start-0x7a85>
 ae4:	77730074 			; <UNDEFINED> instruction: 0x77730074
 ae8:	7261755f 	rsbvc	r7, r1, #398458880	; 0x17c00000
 aec:	65675f74 	strbvs	r5, [r7, #-3956]!	; 0xf74
 af0:	755f7374 	ldrbvc	r7, [pc, #-884]	; 784 <_start-0x787c>
 af4:	6c69746e 	cfstrdvs	mvd7, [r9], #-440	; 0xfffffe48
 af8:	6b6c625f 	blvs	1b1947c <__bss_end__+0x1b0ac0c>
 afc:	69617700 	stmdbvs	r1!, {r8, r9, sl, ip, sp, lr}^
 b00:	6e755f74 	mrcvs	15, 3, r5, cr5, cr4, {3}
 b04:	5f6c6974 	svcpl	0x006c6974
 b08:	63657375 	cmnvs	r5, #-738197503	; 0xd4000001
 b0c:	72617500 	rsbvc	r7, r1, #0, 10
 b10:	61685f74 	smcvs	34292	; 0x85f4
 b14:	61645f73 	smcvs	17907	; 0x45f3
 b18:	75006174 	strvc	r6, [r0, #-372]	; 0x174
 b1c:	5f747261 	svcpl	0x00747261
 b20:	74696e69 	strbtvc	r6, [r9], #-3689	; 0xe69
 b24:	2d796d00 	ldclcs	13, cr6, [r9, #-0]
 b28:	2f637273 	svccs	0x00637273
 b2c:	74726175 	ldrbtvc	r6, [r2], #-373	; 0x175
 b30:	7500632e 	strvc	r6, [r0, #-814]	; 0x32e
 b34:	5f747261 	svcpl	0x00747261
 b38:	63746567 	cmnvs	r4, #432013312	; 0x19c00000
 b3c:	7973615f 	ldmdbvc	r3!, {r0, r1, r2, r3, r4, r6, r8, sp, lr}^
 b40:	7000636e 	andvc	r6, r0, lr, ror #6
 b44:	65666572 	strbvs	r6, [r6, #-1394]!	; 0x572
 b48:	5f686374 	svcpl	0x00686374
 b4c:	726f6261 	rsbvc	r6, pc, #268435462	; 0x10000006
 b50:	65765f74 	ldrbvs	r5, [r6, #-3956]!	; 0xf74
 b54:	726f7463 	rsbvc	r7, pc, #1660944384	; 0x63000000
 b58:	73694400 	cmnvc	r9, #0, 8
 b5c:	656c6261 	strbvs	r6, [ip, #-609]!	; 0x261
 b60:	7361425f 	cmnvc	r1, #-268435451	; 0xf0000005
 b64:	495f6369 	ldmdbmi	pc, {r0, r3, r5, r6, r8, r9, sp, lr}^	; <UNPREDICTABLE>
 b68:	00735152 	rsbseq	r5, r3, r2, asr r1
 b6c:	5f514946 	svcpl	0x00514946
 b70:	746e6f63 	strbtvc	r6, [lr], #-3939	; 0xf63
 b74:	006c6f72 	rsbeq	r6, ip, r2, ror pc
 b78:	746e695f 	strbtvc	r6, [lr], #-2399	; 0x95f
 b7c:	75727265 	ldrbvc	r7, [r2, #-613]!	; 0x265
 b80:	745f7470 	ldrbvc	r7, [pc], #-1136	; b88 <_start-0x7478>
 b84:	656c6261 	strbvs	r6, [ip, #-609]!	; 0x261
 b88:	51524900 	cmppl	r2, r0, lsl #18
 b8c:	7361625f 	cmnvc	r1, #-268435451	; 0xf0000005
 b90:	705f6369 	subsvc	r6, pc, r9, ror #6
 b94:	69646e65 	stmdbvs	r4!, {r0, r2, r5, r6, r9, sl, fp, sp, lr}^
 b98:	4500676e 	strmi	r6, [r0, #-1902]	; 0x76e
 b9c:	6c62616e 	stfvse	f6, [r2], #-440	; 0xfffffe48
 ba0:	61425f65 	cmpvs	r2, r5, ror #30
 ba4:	5f636973 	svcpl	0x00636973
 ba8:	73515249 	cmpvc	r1, #-1879048188	; 0x90000004
 bac:	616e4500 	cmnvs	lr, r0, lsl #10
 bb0:	5f656c62 	svcpl	0x00656c62
 bb4:	73515249 	cmpvc	r1, #-1879048188	; 0x90000004
 bb8:	4500315f 	strmi	r3, [r0, #-351]	; 0x15f
 bbc:	6c62616e 	stfvse	f6, [r2], #-440	; 0xfffffe48
 bc0:	52495f65 	subpl	r5, r9, #404	; 0x194
 bc4:	325f7351 	subscc	r7, pc, #1140850689	; 0x44000001
 bc8:	6e695f00 	cdpvs	15, 6, cr5, cr9, cr0, {0}
 bcc:	72726574 	rsbsvc	r6, r2, #116, 10	; 0x1d000000
 bd0:	5f747075 	svcpl	0x00747075
 bd4:	6c626174 	stfvse	f6, [r2], #-464	; 0xfffffe30
 bd8:	6e655f65 	cdpvs	15, 6, cr5, cr5, cr5, {3}
 bdc:	61640064 	cmnvs	r4, r4, rrx
 be0:	615f6174 	cmpvs	pc, r4, ror r1	; <UNPREDICTABLE>
 be4:	74726f62 	ldrbtvc	r6, [r2], #-3938	; 0xf62
 be8:	6365765f 	cmnvs	r5, #99614720	; 0x5f00000
 bec:	00726f74 	rsbseq	r6, r2, r4, ror pc
 bf0:	5f515249 	svcpl	0x00515249
 bf4:	646e6570 	strbtvs	r6, [lr], #-1392	; 0x570
 bf8:	5f676e69 	svcpl	0x00676e69
 bfc:	73630032 	cmnvc	r3, #50	; 0x32
 c00:	65303431 	ldrvs	r3, [r0, #-1073]!	; 0x431
 c04:	746e692d 	strbtvc	r6, [lr], #-2349	; 0x92d
 c08:	75727265 	ldrbvc	r7, [r2, #-613]!	; 0x265
 c0c:	692f7470 	stmdbvs	pc!, {r4, r5, r6, sl, ip, sp, lr}	; <UNPREDICTABLE>
 c10:	7265746e 	rsbvc	r7, r5, #1845493760	; 0x6e000000
 c14:	74707572 	ldrbtvc	r7, [r0], #-1394	; 0x572
 c18:	2e632d73 	mcrcs	13, 3, r2, cr3, cr3, {3}
 c1c:	52490063 	subpl	r0, r9, #99	; 0x63
 c20:	65705f51 	ldrbvs	r5, [r0, #-3921]!	; 0xf51
 c24:	6e69646e 	cdpvs	4, 6, cr6, cr9, cr14, {3}
 c28:	00315f67 	eorseq	r5, r1, r7, ror #30
 c2c:	65646e75 	strbvs	r6, [r4, #-3701]!	; 0xe75
 c30:	656e6966 	strbvs	r6, [lr, #-2406]!	; 0x966
 c34:	6e695f64 	cdpvs	15, 6, cr5, cr9, cr4, {3}
 c38:	75727473 	ldrbvc	r7, [r2, #-1139]!	; 0x473
 c3c:	6f697463 	svcvs	0x00697463
 c40:	65765f6e 	ldrbvs	r5, [r6, #-3950]!	; 0xf6e
 c44:	726f7463 	rsbvc	r7, pc, #1660944384	; 0x63000000
 c48:	73657200 	cmnvc	r5, #0, 4
 c4c:	765f7465 	ldrbvc	r7, [pc], -r5, ror #8
 c50:	6f746365 	svcvs	0x00746365
 c54:	6f730072 	svcvs	0x00730072
 c58:	61777466 	cmnvs	r7, r6, ror #8
 c5c:	695f6572 	ldmdbvs	pc, {r1, r4, r5, r6, r8, sl, sp, lr}^	; <UNPREDICTABLE>
 c60:	7265746e 	rsbvc	r7, r5, #1845493760	; 0x6e000000
 c64:	74707572 	ldrbtvc	r7, [r0], #-1394	; 0x572
 c68:	6365765f 	cmnvs	r5, #99614720	; 0x5f00000
 c6c:	00726f74 	rsbseq	r6, r2, r4, ror pc
 c70:	61736944 	cmnvs	r3, r4, asr #18
 c74:	5f656c62 	svcpl	0x00656c62
 c78:	73515249 	cmpvc	r1, #-1879048188	; 0x90000004
 c7c:	4400315f 	strmi	r3, [r0], #-351	; 0x15f
 c80:	62617369 	rsbvs	r7, r1, #-1543503871	; 0xa4000001
 c84:	495f656c 	ldmdbmi	pc, {r2, r3, r5, r6, r8, sl, sp, lr}^	; <UNPREDICTABLE>
 c88:	5f735152 	svcpl	0x00735152
 c8c:	61660032 	cmnvs	r6, r2, lsr r0
 c90:	695f7473 	ldmdbvs	pc, {r0, r1, r4, r5, r6, sl, ip, sp, lr}^	; <UNPREDICTABLE>
 c94:	7265746e 	rsbvc	r7, r5, #1845493760	; 0x6e000000
 c98:	74707572 	ldrbtvc	r7, [r0], #-1394	; 0x572
 c9c:	6365765f 	cmnvs	r5, #99614720	; 0x5f00000
 ca0:	00726f74 	rsbseq	r6, r2, r4, ror pc
 ca4:	5f515249 	svcpl	0x00515249
 ca8:	65736142 	ldrbvs	r6, [r3, #-322]!	; 0x142
 cac:	5f626300 	svcpl	0x00626300
 cb0:	0077656e 	rsbseq	r6, r7, lr, ror #10
 cb4:	34317363 	ldrtcc	r7, [r1], #-867	; 0x363
 cb8:	732d6530 	teqvc	sp, #48, 10	; 0xc000000
 cbc:	632f6372 	teqvs	pc, #-939524095	; 0xc8000001
 cc0:	72746e6f 	rsbsvc	r6, r4, #1776	; 0x6f0
 cc4:	622d6c6f 	eorvs	r6, sp, #28416	; 0x6f00
 cc8:	6b636f6c 	blvs	18dca80 <__bss_end__+0x18ce210>
 ccc:	Address 0x0000000000000ccc is out of bounds.


Disassembly of section .debug_frame:

00000000 <.debug_frame>:
   0:	0000000c 	andeq	r0, r0, ip
   4:	ffffffff 			; <UNDEFINED> instruction: 0xffffffff
   8:	7c020001 	stcvc	0, cr0, [r2], {1}
   c:	000d0c0e 	andeq	r0, sp, lr, lsl #24
  10:	00000018 	andeq	r0, r0, r8, lsl r0
  14:	00000000 	andeq	r0, r0, r0
  18:	00008010 	andeq	r8, r0, r0, lsl r0
  1c:	000001b4 			; <UNDEFINED> instruction: 0x000001b4
  20:	83100e42 	tsthi	r0, #1056	; 0x420
  24:	85038404 	strhi	r8, [r3, #-1028]	; 0x404
  28:	00018e02 	andeq	r8, r1, r2, lsl #28
  2c:	0000000c 	andeq	r0, r0, ip
  30:	00000000 	andeq	r0, r0, r0
  34:	000081c4 	andeq	r8, r0, r4, asr #3
  38:	00000028 	andeq	r0, r0, r8, lsr #32
  3c:	00000014 	andeq	r0, r0, r4, lsl r0
  40:	00000000 	andeq	r0, r0, r0
  44:	000081ec 	andeq	r8, r0, ip, ror #3
  48:	00000048 	andeq	r0, r0, r8, asr #32
  4c:	84080e42 	strhi	r0, [r8], #-3650	; 0xe42
  50:	00018e02 	andeq	r8, r1, r2, lsl #28
  54:	0000001c 	andeq	r0, r0, ip, lsl r0
  58:	00000000 	andeq	r0, r0, r0
  5c:	00008234 	andeq	r8, r0, r4, lsr r2
  60:	00000148 	andeq	r0, r0, r8, asr #2
  64:	84180e42 	ldrhi	r0, [r8], #-3650	; 0xe42
  68:	86058506 	strhi	r8, [r5], -r6, lsl #10
  6c:	88038704 	stmdahi	r3, {r2, r8, r9, sl, pc}
  70:	00018e02 	andeq	r8, r1, r2, lsl #28
  74:	00000020 	andeq	r0, r0, r0, lsr #32
  78:	00000000 	andeq	r0, r0, r0
  7c:	0000837c 	andeq	r8, r0, ip, ror r3
  80:	000000e0 	andeq	r0, r0, r0, ror #1
  84:	83200e42 	teqhi	r0, #1056	; 0x420
  88:	85078408 	strhi	r8, [r7, #-1032]	; 0x408
  8c:	87058606 	strhi	r8, [r5, -r6, lsl #12]
  90:	89038804 	stmdbhi	r3, {r2, fp, pc}
  94:	00018e02 	andeq	r8, r1, r2, lsl #28
  98:	00000014 	andeq	r0, r0, r4, lsl r0
  9c:	00000000 	andeq	r0, r0, r0
  a0:	0000845c 	andeq	r8, r0, ip, asr r4
  a4:	00000088 	andeq	r0, r0, r8, lsl #1
  a8:	84080e42 	strhi	r0, [r8], #-3650	; 0xe42
  ac:	00018e02 	andeq	r8, r1, r2, lsl #28
  b0:	00000014 	andeq	r0, r0, r4, lsl r0
  b4:	00000000 	andeq	r0, r0, r0
  b8:	000084e4 	andeq	r8, r0, r4, ror #9
  bc:	00000024 	andeq	r0, r0, r4, lsr #32
  c0:	84080e42 	strhi	r0, [r8], #-3650	; 0xe42
  c4:	00018e02 	andeq	r8, r1, r2, lsl #28
  c8:	00000014 	andeq	r0, r0, r4, lsl r0
  cc:	00000000 	andeq	r0, r0, r0
  d0:	00008508 	andeq	r8, r0, r8, lsl #10
  d4:	000000bc 	strheq	r0, [r0], -ip
  d8:	84080e42 	strhi	r0, [r8], #-3650	; 0xe42
  dc:	00018e02 	andeq	r8, r1, r2, lsl #28
  e0:	00000014 	andeq	r0, r0, r4, lsl r0
  e4:	00000000 	andeq	r0, r0, r0
  e8:	000085c4 	andeq	r8, r0, r4, asr #11
  ec:	00000074 	andeq	r0, r0, r4, ror r0
  f0:	83080e42 	movwhi	r0, #36418	; 0x8e42
  f4:	00018e02 	andeq	r8, r1, r2, lsl #28
  f8:	0000000c 	andeq	r0, r0, ip
  fc:	ffffffff 			; <UNDEFINED> instruction: 0xffffffff
 100:	7c020001 	stcvc	0, cr0, [r2], {1}
 104:	000d0c0e 	andeq	r0, sp, lr, lsl #24
 108:	0000000c 	andeq	r0, r0, ip
 10c:	000000f8 	strdeq	r0, [r0], -r8
 110:	00008638 	andeq	r8, r0, r8, lsr r6
 114:	00000020 	andeq	r0, r0, r0, lsr #32
 118:	0000000c 	andeq	r0, r0, ip
 11c:	ffffffff 			; <UNDEFINED> instruction: 0xffffffff
 120:	7c020001 	stcvc	0, cr0, [r2], {1}
 124:	000d0c0e 	andeq	r0, sp, lr, lsl #24
 128:	00000024 	andeq	r0, r0, r4, lsr #32
 12c:	00000118 	andeq	r0, r0, r8, lsl r1
 130:	00008658 	andeq	r8, r0, r8, asr r6
 134:	00000058 	andeq	r0, r0, r8, asr r0
 138:	80100e42 	andshi	r0, r0, r2, asr #28
 13c:	82038104 	andhi	r8, r3, #4, 2
 140:	42018302 	andmi	r8, r1, #134217728	; 0x8000000
 144:	07841c0e 	streq	r1, [r4, lr, lsl #24]
 148:	058e0685 	streq	r0, [lr, #1669]	; 0x685
 14c:	00280e42 	eoreq	r0, r8, r2, asr #28
 150:	0000000c 	andeq	r0, r0, ip
 154:	ffffffff 			; <UNDEFINED> instruction: 0xffffffff
 158:	7c020001 	stcvc	0, cr0, [r2], {1}
 15c:	000d0c0e 	andeq	r0, sp, lr, lsl #24
 160:	00000014 	andeq	r0, r0, r4, lsl r0
 164:	00000150 	andeq	r0, r0, r0, asr r1
 168:	000086b0 			; <UNDEFINED> instruction: 0x000086b0
 16c:	00000014 	andeq	r0, r0, r4, lsl r0
 170:	84080e42 	strhi	r0, [r8], #-3650	; 0xe42
 174:	00018e02 	andeq	r8, r1, r2, lsl #28
 178:	0000000c 	andeq	r0, r0, ip
 17c:	00000150 	andeq	r0, r0, r0, asr r1
 180:	000086c4 	andeq	r8, r0, r4, asr #13
 184:	00000018 	andeq	r0, r0, r8, lsl r0
 188:	0000000c 	andeq	r0, r0, ip
 18c:	00000150 	andeq	r0, r0, r0, asr r1
 190:	000086dc 	ldrdeq	r8, [r0], -ip
 194:	00000010 	andeq	r0, r0, r0, lsl r0
 198:	0000000c 	andeq	r0, r0, ip
 19c:	ffffffff 			; <UNDEFINED> instruction: 0xffffffff
 1a0:	7c020001 	stcvc	0, cr0, [r2], {1}
 1a4:	000d0c0e 	andeq	r0, sp, lr, lsl #24
 1a8:	00000018 	andeq	r0, r0, r8, lsl r0
 1ac:	00000198 	muleq	r0, r8, r1
 1b0:	000086ec 	andeq	r8, r0, ip, ror #13
 1b4:	00000034 	andeq	r0, r0, r4, lsr r0
 1b8:	83100e42 	tsthi	r0, #1056	; 0x420
 1bc:	85038404 	strhi	r8, [r3, #-1028]	; 0x404
 1c0:	00018e02 	andeq	r8, r1, r2, lsl #28
 1c4:	0000000c 	andeq	r0, r0, ip
 1c8:	ffffffff 			; <UNDEFINED> instruction: 0xffffffff
 1cc:	7c020001 	stcvc	0, cr0, [r2], {1}
 1d0:	000d0c0e 	andeq	r0, sp, lr, lsl #24
 1d4:	0000000c 	andeq	r0, r0, ip
 1d8:	000001c4 	andeq	r0, r0, r4, asr #3
 1dc:	00008720 	andeq	r8, r0, r0, lsr #14
 1e0:	00000014 	andeq	r0, r0, r4, lsl r0
 1e4:	0000000c 	andeq	r0, r0, ip
 1e8:	000001c4 	andeq	r0, r0, r4, asr #3
 1ec:	00008734 	andeq	r8, r0, r4, lsr r7
 1f0:	0000002c 	andeq	r0, r0, ip, lsr #32
 1f4:	0000000c 	andeq	r0, r0, ip
 1f8:	000001c4 	andeq	r0, r0, r4, asr #3
 1fc:	00008760 	andeq	r8, r0, r0, ror #14
 200:	00000040 	andeq	r0, r0, r0, asr #32
 204:	00000020 	andeq	r0, r0, r0, lsr #32
 208:	000001c4 	andeq	r0, r0, r4, asr #3
 20c:	000087a0 	andeq	r8, r0, r0, lsr #15
 210:	0000019c 	muleq	r0, ip, r1
 214:	84180e42 	ldrhi	r0, [r8], #-3650	; 0xe42
 218:	86058506 	strhi	r8, [r5], -r6, lsl #10
 21c:	88038704 	stmdahi	r3, {r2, r8, r9, sl, pc}
 220:	42018e02 	andmi	r8, r1, #2, 28
 224:	0000580e 	andeq	r5, r0, lr, lsl #16
 228:	00000014 	andeq	r0, r0, r4, lsl r0
 22c:	000001c4 	andeq	r0, r0, r4, asr #3
 230:	0000893c 	andeq	r8, r0, ip, lsr r9
 234:	00000054 	andeq	r0, r0, r4, asr r0
 238:	83080e42 	movwhi	r0, #36418	; 0x8e42
 23c:	00018e02 	andeq	r8, r1, r2, lsl #28
 240:	00000028 	andeq	r0, r0, r8, lsr #32
 244:	000001c4 	andeq	r0, r0, r4, asr #3
 248:	00008990 	muleq	r0, r0, r9
 24c:	00000288 	andeq	r0, r0, r8, lsl #5
 250:	84240e42 	strthi	r0, [r4], #-3650	; 0xe42
 254:	86088509 	strhi	r8, [r8], -r9, lsl #10
 258:	88068707 	stmdahi	r6, {r0, r1, r2, r8, r9, sl, pc}
 25c:	8a048905 	bhi	122678 <__bss_end__+0x113e08>
 260:	8e028b03 	vmlahi.f64	d8, d2, d3
 264:	b00e4201 	andlt	r4, lr, r1, lsl #4
 268:	00000001 	andeq	r0, r0, r1
 26c:	0000000c 	andeq	r0, r0, ip
 270:	ffffffff 			; <UNDEFINED> instruction: 0xffffffff
 274:	7c020001 	stcvc	0, cr0, [r2], {1}
 278:	000d0c0e 	andeq	r0, sp, lr, lsl #24
 27c:	00000014 	andeq	r0, r0, r4, lsl r0
 280:	0000026c 	andeq	r0, r0, ip, ror #4
 284:	00008c18 	andeq	r8, r0, r8, lsl ip
 288:	00000028 	andeq	r0, r0, r8, lsr #32
 28c:	83080e42 	movwhi	r0, #36418	; 0x8e42
 290:	00018e02 	andeq	r8, r1, r2, lsl #28
 294:	0000000c 	andeq	r0, r0, ip
 298:	ffffffff 			; <UNDEFINED> instruction: 0xffffffff
 29c:	7c020001 	stcvc	0, cr0, [r2], {1}
 2a0:	000d0c0e 	andeq	r0, sp, lr, lsl #24
 2a4:	00000014 	andeq	r0, r0, r4, lsl r0
 2a8:	00000294 	muleq	r0, r4, r2
 2ac:	00008c40 	andeq	r8, r0, r0, asr #24
 2b0:	00000020 	andeq	r0, r0, r0, lsr #32
 2b4:	84080e42 	strhi	r0, [r8], #-3650	; 0xe42
 2b8:	00018e02 	andeq	r8, r1, r2, lsl #28
 2bc:	00000014 	andeq	r0, r0, r4, lsl r0
 2c0:	00000294 	muleq	r0, r4, r2
 2c4:	00008c60 	andeq	r8, r0, r0, ror #24
 2c8:	00000090 	muleq	r0, r0, r0
 2cc:	83080e42 	movwhi	r0, #36418	; 0x8e42
 2d0:	00018e02 	andeq	r8, r1, r2, lsl #28
 2d4:	0000000c 	andeq	r0, r0, ip
 2d8:	ffffffff 			; <UNDEFINED> instruction: 0xffffffff
 2dc:	7c020001 	stcvc	0, cr0, [r2], {1}
 2e0:	000d0c0e 	andeq	r0, sp, lr, lsl #24
 2e4:	0000000c 	andeq	r0, r0, ip
 2e8:	000002d4 	ldrdeq	r0, [r0], -r4
 2ec:	00008cf0 	strdeq	r8, [r0], -r0
 2f0:	00000018 	andeq	r0, r0, r8, lsl r0
 2f4:	0000000c 	andeq	r0, r0, ip
 2f8:	000002d4 	ldrdeq	r0, [r0], -r4
 2fc:	00008d08 	andeq	r8, r0, r8, lsl #26
 300:	00000014 	andeq	r0, r0, r4, lsl r0
 304:	00000014 	andeq	r0, r0, r4, lsl r0
 308:	000002d4 	ldrdeq	r0, [r0], -r4
 30c:	00008d1c 	andeq	r8, r0, ip, lsl sp
 310:	00000048 	andeq	r0, r0, r8, asr #32
 314:	83080e42 	movwhi	r0, #36418	; 0x8e42
 318:	00018e02 	andeq	r8, r1, r2, lsl #28
 31c:	0000000c 	andeq	r0, r0, ip
 320:	ffffffff 			; <UNDEFINED> instruction: 0xffffffff
 324:	7c020001 	stcvc	0, cr0, [r2], {1}
 328:	000d0c0e 	andeq	r0, sp, lr, lsl #24
 32c:	0000000c 	andeq	r0, r0, ip
 330:	0000031c 	andeq	r0, r0, ip, lsl r3
 334:	00008d64 	andeq	r8, r0, r4, ror #26
 338:	0000001c 	andeq	r0, r0, ip, lsl r0
 33c:	00000014 	andeq	r0, r0, r4, lsl r0
 340:	0000031c 	andeq	r0, r0, ip, lsl r3
 344:	00008d80 	andeq	r8, r0, r0, lsl #27
 348:	00000014 	andeq	r0, r0, r4, lsl r0
 34c:	83080e42 	movwhi	r0, #36418	; 0x8e42
 350:	00018e02 	andeq	r8, r1, r2, lsl #28
 354:	00000014 	andeq	r0, r0, r4, lsl r0
 358:	0000031c 	andeq	r0, r0, ip, lsl r3
 35c:	00008d94 	muleq	r0, r4, sp
 360:	0000000c 	andeq	r0, r0, ip
 364:	83080e42 	movwhi	r0, #36418	; 0x8e42
 368:	00018e02 	andeq	r8, r1, r2, lsl #28
 36c:	00000018 	andeq	r0, r0, r8, lsl r0
 370:	0000031c 	andeq	r0, r0, ip, lsl r3
 374:	00008da0 	andeq	r8, r0, r0, lsr #27
 378:	00000024 	andeq	r0, r0, r4, lsr #32
 37c:	83100e42 	tsthi	r0, #1056	; 0x420
 380:	85038404 	strhi	r8, [r3, #-1028]	; 0x404
 384:	00018e02 	andeq	r8, r1, r2, lsl #28
 388:	00000014 	andeq	r0, r0, r4, lsl r0
 38c:	0000031c 	andeq	r0, r0, ip, lsl r3
 390:	00008dc4 	andeq	r8, r0, r4, asr #27
 394:	00000014 	andeq	r0, r0, r4, lsl r0
 398:	83080e42 	movwhi	r0, #36418	; 0x8e42
 39c:	00018e02 	andeq	r8, r1, r2, lsl #28
 3a0:	00000014 	andeq	r0, r0, r4, lsl r0
 3a4:	0000031c 	andeq	r0, r0, ip, lsl r3
 3a8:	00008dd8 	ldrdeq	r8, [r0], -r8	; <UNPREDICTABLE>
 3ac:	00000014 	andeq	r0, r0, r4, lsl r0
 3b0:	83080e42 	movwhi	r0, #36418	; 0x8e42
 3b4:	00018e02 	andeq	r8, r1, r2, lsl #28
 3b8:	0000000c 	andeq	r0, r0, ip
 3bc:	ffffffff 			; <UNDEFINED> instruction: 0xffffffff
 3c0:	7c020001 	stcvc	0, cr0, [r2], {1}
 3c4:	000d0c0e 	andeq	r0, sp, lr, lsl #24
 3c8:	00000018 	andeq	r0, r0, r8, lsl r0
 3cc:	000003b8 			; <UNDEFINED> instruction: 0x000003b8
 3d0:	00008dec 	andeq	r8, r0, ip, ror #27
 3d4:	000000d4 	ldrdeq	r0, [r0], -r4
 3d8:	83100e42 	tsthi	r0, #1056	; 0x420
 3dc:	85038404 	strhi	r8, [r3, #-1028]	; 0x404
 3e0:	00018e02 	andeq	r8, r1, r2, lsl #28
 3e4:	00000014 	andeq	r0, r0, r4, lsl r0
 3e8:	000003b8 			; <UNDEFINED> instruction: 0x000003b8
 3ec:	00008ec0 	andeq	r8, r0, r0, asr #29
 3f0:	00000038 	andeq	r0, r0, r8, lsr r0
 3f4:	83080e42 	movwhi	r0, #36418	; 0x8e42
 3f8:	00018e02 	andeq	r8, r1, r2, lsl #28
 3fc:	00000014 	andeq	r0, r0, r4, lsl r0
 400:	000003b8 			; <UNDEFINED> instruction: 0x000003b8
 404:	00008ef8 	strdeq	r8, [r0], -r8	; <UNPREDICTABLE>
 408:	00000038 	andeq	r0, r0, r8, lsr r0
 40c:	83080e42 	movwhi	r0, #36418	; 0x8e42
 410:	00018e02 	andeq	r8, r1, r2, lsl #28
 414:	00000018 	andeq	r0, r0, r8, lsl r0
 418:	000003b8 			; <UNDEFINED> instruction: 0x000003b8
 41c:	00008f30 	andeq	r8, r0, r0, lsr pc
 420:	000000cc 	andeq	r0, r0, ip, asr #1
 424:	83100e42 	tsthi	r0, #1056	; 0x420
 428:	85038404 	strhi	r8, [r3, #-1028]	; 0x404
 42c:	00018e02 	andeq	r8, r1, r2, lsl #28
 430:	00000014 	andeq	r0, r0, r4, lsl r0
 434:	000003b8 			; <UNDEFINED> instruction: 0x000003b8
 438:	00008ffc 	strdeq	r8, [r0], -ip
 43c:	0000004c 	andeq	r0, r0, ip, asr #32
 440:	84080e42 	strhi	r0, [r8], #-3650	; 0xe42
 444:	00018e02 	andeq	r8, r1, r2, lsl #28
 448:	00000014 	andeq	r0, r0, r4, lsl r0
 44c:	000003b8 			; <UNDEFINED> instruction: 0x000003b8
 450:	00009048 	andeq	r9, r0, r8, asr #32
 454:	00000078 	andeq	r0, r0, r8, ror r0
 458:	83080e42 	movwhi	r0, #36418	; 0x8e42
 45c:	00018e02 	andeq	r8, r1, r2, lsl #28
 460:	00000018 	andeq	r0, r0, r8, lsl r0
 464:	000003b8 			; <UNDEFINED> instruction: 0x000003b8
 468:	000090c0 	andeq	r9, r0, r0, asr #1
 46c:	000000d8 	ldrdeq	r0, [r0], -r8
 470:	84100e42 	ldrhi	r0, [r0], #-3650	; 0xe42
 474:	86038504 	strhi	r8, [r3], -r4, lsl #10
 478:	00018e02 	andeq	r8, r1, r2, lsl #28
 47c:	00000014 	andeq	r0, r0, r4, lsl r0
 480:	000003b8 			; <UNDEFINED> instruction: 0x000003b8
 484:	00009198 	muleq	r0, r8, r1
 488:	0000002c 	andeq	r0, r0, ip, lsr #32
 48c:	83080e42 	movwhi	r0, #36418	; 0x8e42
 490:	00018e02 	andeq	r8, r1, r2, lsl #28
 494:	00000018 	andeq	r0, r0, r8, lsl r0
 498:	000003b8 			; <UNDEFINED> instruction: 0x000003b8
 49c:	000091c4 	andeq	r9, r0, r4, asr #3
 4a0:	00000084 	andeq	r0, r0, r4, lsl #1
 4a4:	83100e42 	tsthi	r0, #1056	; 0x420
 4a8:	85038404 	strhi	r8, [r3, #-1028]	; 0x404
 4ac:	00018e02 	andeq	r8, r1, r2, lsl #28
 4b0:	00000018 	andeq	r0, r0, r8, lsl r0
 4b4:	000003b8 			; <UNDEFINED> instruction: 0x000003b8
 4b8:	00009248 	andeq	r9, r0, r8, asr #4
 4bc:	00000084 	andeq	r0, r0, r4, lsl #1
 4c0:	83100e42 	tsthi	r0, #1056	; 0x420
 4c4:	85038404 	strhi	r8, [r3, #-1028]	; 0x404
 4c8:	00018e02 	andeq	r8, r1, r2, lsl #28
 4cc:	00000014 	andeq	r0, r0, r4, lsl r0
 4d0:	000003b8 			; <UNDEFINED> instruction: 0x000003b8
 4d4:	000092cc 	andeq	r9, r0, ip, asr #5
 4d8:	00000084 	andeq	r0, r0, r4, lsl #1
 4dc:	84080e42 	strhi	r0, [r8], #-3650	; 0xe42
 4e0:	00018e02 	andeq	r8, r1, r2, lsl #28
 4e4:	00000014 	andeq	r0, r0, r4, lsl r0
 4e8:	000003b8 			; <UNDEFINED> instruction: 0x000003b8
 4ec:	00009350 	andeq	r9, r0, r0, asr r3
 4f0:	00000058 	andeq	r0, r0, r8, asr r0
 4f4:	84080e42 	strhi	r0, [r8], #-3650	; 0xe42
 4f8:	00018e02 	andeq	r8, r1, r2, lsl #28
 4fc:	0000000c 	andeq	r0, r0, ip
 500:	ffffffff 			; <UNDEFINED> instruction: 0xffffffff
 504:	7c020001 	stcvc	0, cr0, [r2], {1}
 508:	000d0c0e 	andeq	r0, sp, lr, lsl #24
 50c:	0000001c 	andeq	r0, r0, ip, lsl r0
 510:	000004fc 	strdeq	r0, [r0], -ip
 514:	000093a8 	andeq	r9, r0, r8, lsr #7
 518:	00000154 	andeq	r0, r0, r4, asr r1
 51c:	84180e42 	ldrhi	r0, [r8], #-3650	; 0xe42
 520:	86058506 	strhi	r8, [r5], -r6, lsl #10
 524:	88038704 	stmdahi	r3, {r2, r8, r9, sl, pc}
 528:	00018e02 	andeq	r8, r1, r2, lsl #28
 52c:	00000020 	andeq	r0, r0, r0, lsr #32
 530:	000004fc 	strdeq	r0, [r0], -ip
 534:	000094fc 	strdeq	r9, [r0], -ip
 538:	000001c8 	andeq	r0, r0, r8, asr #3
 53c:	83200e42 	teqhi	r0, #1056	; 0x420
 540:	85078408 	strhi	r8, [r7, #-1032]	; 0x408
 544:	87058606 	strhi	r8, [r5, -r6, lsl #12]
 548:	89038804 	stmdbhi	r3, {r2, fp, pc}
 54c:	00018e02 	andeq	r8, r1, r2, lsl #28
 550:	00000020 	andeq	r0, r0, r0, lsr #32
 554:	000004fc 	strdeq	r0, [r0], -ip
 558:	000096c4 	andeq	r9, r0, r4, asr #13
 55c:	00000090 	muleq	r0, r0, r0
 560:	84200e42 	strthi	r0, [r0], #-3650	; 0xe42
 564:	86078508 	strhi	r8, [r7], -r8, lsl #10
 568:	88058706 	stmdahi	r5, {r1, r2, r8, r9, sl, pc}
 56c:	8a038904 	bhi	e2984 <__bss_end__+0xd4114>
 570:	00018e02 	andeq	r8, r1, r2, lsl #28
 574:	0000001c 	andeq	r0, r0, ip, lsl r0
 578:	000004fc 	strdeq	r0, [r0], -ip
 57c:	00009754 	andeq	r9, r0, r4, asr r7
 580:	0000007c 	andeq	r0, r0, ip, ror r0
 584:	84180e42 	ldrhi	r0, [r8], #-3650	; 0xe42
 588:	86058506 	strhi	r8, [r5], -r6, lsl #10
 58c:	88038704 	stmdahi	r3, {r2, r8, r9, sl, pc}
 590:	00018e02 	andeq	r8, r1, r2, lsl #28
 594:	0000001c 	andeq	r0, r0, ip, lsl r0
 598:	000004fc 	strdeq	r0, [r0], -ip
 59c:	000097d0 	ldrdeq	r9, [r0], -r0
 5a0:	000000c0 	andeq	r0, r0, r0, asr #1
 5a4:	84180e42 	ldrhi	r0, [r8], #-3650	; 0xe42
 5a8:	86058506 	strhi	r8, [r5], -r6, lsl #10
 5ac:	88038704 	stmdahi	r3, {r2, r8, r9, sl, pc}
 5b0:	00018e02 	andeq	r8, r1, r2, lsl #28
 5b4:	00000014 	andeq	r0, r0, r4, lsl r0
 5b8:	000004fc 	strdeq	r0, [r0], -ip
 5bc:	00009890 	muleq	r0, r0, r8
 5c0:	0000003c 	andeq	r0, r0, ip, lsr r0
 5c4:	83080e42 	movwhi	r0, #36418	; 0x8e42
 5c8:	00018e02 	andeq	r8, r1, r2, lsl #28
 5cc:	00000018 	andeq	r0, r0, r8, lsl r0
 5d0:	000004fc 	strdeq	r0, [r0], -ip
 5d4:	000098cc 	andeq	r9, r0, ip, asr #17
 5d8:	0000002c 	andeq	r0, r0, ip, lsr #32
 5dc:	83100e42 	tsthi	r0, #1056	; 0x420
 5e0:	85038404 	strhi	r8, [r3, #-1028]	; 0x404
 5e4:	00018e02 	andeq	r8, r1, r2, lsl #28
 5e8:	00000024 	andeq	r0, r0, r4, lsr #32
 5ec:	000004fc 	strdeq	r0, [r0], -ip
 5f0:	000098f8 	strdeq	r9, [r0], -r8
 5f4:	00000084 	andeq	r0, r0, r4, lsl #1
 5f8:	810c0e42 	tsthi	ip, r2, asr #28
 5fc:	83028203 	movwhi	r8, #8707	; 0x2203
 600:	180e4201 	stmdane	lr, {r0, r9, lr}
 604:	05850684 	streq	r0, [r5, #1668]	; 0x684
 608:	0e42048e 	cdpeq	4, 4, cr0, cr2, cr14, {4}
 60c:	000003e8 	andeq	r0, r0, r8, ror #7
 610:	00000014 	andeq	r0, r0, r4, lsl r0
 614:	000004fc 	strdeq	r0, [r0], -ip
 618:	0000997c 	andeq	r9, r0, ip, ror r9
 61c:	0000004c 	andeq	r0, r0, ip, asr #32
 620:	8e040e42 	cdphi	14, 0, cr0, cr4, cr2, {2}
 624:	100e4201 	andne	r4, lr, r1, lsl #4
 628:	0000000c 	andeq	r0, r0, ip
 62c:	ffffffff 			; <UNDEFINED> instruction: 0xffffffff
 630:	7c020001 	stcvc	0, cr0, [r2], {1}
 634:	000d0c0e 	andeq	r0, sp, lr, lsl #24
 638:	00000018 	andeq	r0, r0, r8, lsl r0
 63c:	00000628 	andeq	r0, r0, r8, lsr #12
 640:	000099c8 	andeq	r9, r0, r8, asr #19
 644:	0000009c 	muleq	r0, ip, r0
 648:	83100e42 	tsthi	r0, #1056	; 0x420
 64c:	85038404 	strhi	r8, [r3, #-1028]	; 0x404
 650:	00018e02 	andeq	r8, r1, r2, lsl #28
 654:	00000014 	andeq	r0, r0, r4, lsl r0
 658:	00000628 	andeq	r0, r0, r8, lsr #12
 65c:	00009a64 	andeq	r9, r0, r4, ror #20
 660:	0000001c 	andeq	r0, r0, ip, lsl r0
 664:	83080e42 	movwhi	r0, #36418	; 0x8e42
 668:	00018e02 	andeq	r8, r1, r2, lsl #28
 66c:	00000014 	andeq	r0, r0, r4, lsl r0
 670:	00000628 	andeq	r0, r0, r8, lsr #12
 674:	00009a80 	andeq	r9, r0, r0, lsl #21
 678:	00000028 	andeq	r0, r0, r8, lsr #32
 67c:	83080e42 	movwhi	r0, #36418	; 0x8e42
 680:	00018e02 	andeq	r8, r1, r2, lsl #28
 684:	00000014 	andeq	r0, r0, r4, lsl r0
 688:	00000628 	andeq	r0, r0, r8, lsr #12
 68c:	00009aa8 	andeq	r9, r0, r8, lsr #21
 690:	0000001c 	andeq	r0, r0, ip, lsl r0
 694:	83080e42 	movwhi	r0, #36418	; 0x8e42
 698:	00018e02 	andeq	r8, r1, r2, lsl #28
 69c:	00000014 	andeq	r0, r0, r4, lsl r0
 6a0:	00000628 	andeq	r0, r0, r8, lsr #12
 6a4:	00009ac4 	andeq	r9, r0, r4, asr #21
 6a8:	0000002c 	andeq	r0, r0, ip, lsr #32
 6ac:	84080e42 	strhi	r0, [r8], #-3650	; 0xe42
 6b0:	00018e02 	andeq	r8, r1, r2, lsl #28
 6b4:	00000014 	andeq	r0, r0, r4, lsl r0
 6b8:	00000628 	andeq	r0, r0, r8, lsr #12
 6bc:	00009af0 	strdeq	r9, [r0], -r0
 6c0:	0000000c 	andeq	r0, r0, ip
 6c4:	83080e42 	movwhi	r0, #36418	; 0x8e42
 6c8:	00018e02 	andeq	r8, r1, r2, lsl #28
 6cc:	00000014 	andeq	r0, r0, r4, lsl r0
 6d0:	00000628 	andeq	r0, r0, r8, lsr #12
 6d4:	00009afc 	strdeq	r9, [r0], -ip
 6d8:	00000020 	andeq	r0, r0, r0, lsr #32
 6dc:	83080e42 	movwhi	r0, #36418	; 0x8e42
 6e0:	00018e02 	andeq	r8, r1, r2, lsl #28
 6e4:	0000000c 	andeq	r0, r0, ip
 6e8:	ffffffff 			; <UNDEFINED> instruction: 0xffffffff
 6ec:	7c020001 	stcvc	0, cr0, [r2], {1}
 6f0:	000d0c0e 	andeq	r0, sp, lr, lsl #24
 6f4:	00000014 	andeq	r0, r0, r4, lsl r0
 6f8:	000006e4 	andeq	r0, r0, r4, ror #13
 6fc:	00009b1c 	andeq	r9, r0, ip, lsl fp
 700:	00000068 	andeq	r0, r0, r8, rrx
 704:	83080e42 	movwhi	r0, #36418	; 0x8e42
 708:	00018e02 	andeq	r8, r1, r2, lsl #28
 70c:	00000014 	andeq	r0, r0, r4, lsl r0
 710:	000006e4 	andeq	r0, r0, r4, ror #13
 714:	00009b84 	andeq	r9, r0, r4, lsl #23
 718:	00000044 	andeq	r0, r0, r4, asr #32
 71c:	8e040e42 	cdphi	14, 0, cr0, cr4, cr2, {2}
 720:	100e4201 	andne	r4, lr, r1, lsl #4
 724:	00000014 	andeq	r0, r0, r4, lsl r0
 728:	000006e4 	andeq	r0, r0, r4, ror #13
 72c:	00009bc8 	andeq	r9, r0, r8, asr #23
 730:	00000044 	andeq	r0, r0, r4, asr #32
 734:	8e040e42 	cdphi	14, 0, cr0, cr4, cr2, {2}
 738:	100e4201 	andne	r4, lr, r1, lsl #4
 73c:	00000014 	andeq	r0, r0, r4, lsl r0
 740:	000006e4 	andeq	r0, r0, r4, ror #13
 744:	00009c0c 	andeq	r9, r0, ip, lsl #24
 748:	00000044 	andeq	r0, r0, r4, asr #32
 74c:	8e040e42 	cdphi	14, 0, cr0, cr4, cr2, {2}
 750:	100e4201 	andne	r4, lr, r1, lsl #4
 754:	00000014 	andeq	r0, r0, r4, lsl r0
 758:	000006e4 	andeq	r0, r0, r4, ror #13
 75c:	00009c50 	andeq	r9, r0, r0, asr ip
 760:	00000044 	andeq	r0, r0, r4, asr #32
 764:	8e040e42 	cdphi	14, 0, cr0, cr4, cr2, {2}
 768:	100e4201 	andne	r4, lr, r1, lsl #4
 76c:	00000014 	andeq	r0, r0, r4, lsl r0
 770:	000006e4 	andeq	r0, r0, r4, ror #13
 774:	00009c94 	muleq	r0, r4, ip
 778:	00000044 	andeq	r0, r0, r4, asr #32
 77c:	8e040e42 	cdphi	14, 0, cr0, cr4, cr2, {2}
 780:	100e4201 	andne	r4, lr, r1, lsl #4
 784:	00000014 	andeq	r0, r0, r4, lsl r0
 788:	000006e4 	andeq	r0, r0, r4, ror #13
 78c:	00009cd8 	ldrdeq	r9, [r0], -r8
 790:	00000044 	andeq	r0, r0, r4, asr #32
 794:	8e040e42 	cdphi	14, 0, cr0, cr4, cr2, {2}
 798:	100e4201 	andne	r4, lr, r1, lsl #4
 79c:	0000000c 	andeq	r0, r0, ip
 7a0:	ffffffff 			; <UNDEFINED> instruction: 0xffffffff
 7a4:	7c020001 	stcvc	0, cr0, [r2], {1}
 7a8:	000d0c0e 	andeq	r0, sp, lr, lsl #24
 7ac:	00000014 	andeq	r0, r0, r4, lsl r0
 7b0:	0000079c 	muleq	r0, ip, r7
 7b4:	00009e58 	andeq	r9, r0, r8, asr lr
 7b8:	00000028 	andeq	r0, r0, r8, lsr #32
 7bc:	83080e42 	movwhi	r0, #36418	; 0x8e42
 7c0:	00018e02 	andeq	r8, r1, r2, lsl #28
 7c4:	0000000c 	andeq	r0, r0, ip
 7c8:	0000079c 	muleq	r0, ip, r7
 7cc:	00009e80 	andeq	r9, r0, r0, lsl #29
 7d0:	00000028 	andeq	r0, r0, r8, lsr #32
