
uart-int.elf:     file format elf32-littlearm


Disassembly of section .text:

00008000 <_start>:
    8000:	e3a0d302 	mov	sp, #134217728	; 0x8000000
    8004:	e3a0b000 	mov	fp, #0
    8008:	eb00032f 	bl	8ccc <_cstart>
    800c:	eb00035d 	bl	8d88 <rpi_reboot>

00008010 <cq_init>:
    8010:	e92d4038 	push	{r3, r4, r5, lr}
    8014:	e1a04000 	mov	r4, r0
    8018:	e1a05001 	mov	r5, r1
    801c:	e3a01000 	mov	r1, #0
    8020:	e59f216c 	ldr	r2, [pc, #364]	; 8194 <cq_init+0x184>
    8024:	eb00019e 	bl	86a4 <memset>
    8028:	e59f2168 	ldr	r2, [pc, #360]	; 8198 <cq_init+0x188>
    802c:	e3a03a02 	mov	r3, #8192	; 0x2000
    8030:	e7842003 	str	r2, [r4, r3]
    8034:	e59f2160 	ldr	r2, [pc, #352]	; 819c <cq_init+0x18c>
    8038:	e3a03000 	mov	r3, #0
    803c:	e7843002 	str	r3, [r4, r2]
    8040:	e59f0158 	ldr	r0, [pc, #344]	; 81a0 <cq_init+0x190>
    8044:	e7843000 	str	r3, [r4, r0]
    8048:	e59f1154 	ldr	r1, [pc, #340]	; 81a4 <cq_init+0x194>
    804c:	e7843001 	str	r3, [r4, r1]
    8050:	e59f3150 	ldr	r3, [pc, #336]	; 81a8 <cq_init+0x198>
    8054:	e7d41003 	ldrb	r1, [r4, r3]
    8058:	e2055001 	and	r5, r5, #1
    805c:	e3c11001 	bic	r1, r1, #1
    8060:	e1855001 	orr	r5, r5, r1
    8064:	e7c45003 	strb	r5, [r4, r3]
    8068:	e7941000 	ldr	r1, [r4, r0]
    806c:	e7943002 	ldr	r3, [r4, r2]
    8070:	e1510003 	cmp	r1, r3
    8074:	0a000006 	beq	8094 <cq_init+0x84>
    8078:	eb0001ac 	bl	8730 <rpi_reset_putc>
    807c:	e59f0128 	ldr	r0, [pc, #296]	; 81ac <cq_init+0x19c>
    8080:	e59f1128 	ldr	r1, [pc, #296]	; 81b0 <cq_init+0x1a0>
    8084:	e59f2128 	ldr	r2, [pc, #296]	; 81b4 <cq_init+0x1a4>
    8088:	e3a0309f 	mov	r3, #159	; 0x9f
    808c:	eb00018c 	bl	86c4 <printk>
    8090:	eb0002fb 	bl	8c84 <clean_reboot>
    8094:	e59f3104 	ldr	r3, [pc, #260]	; 81a0 <cq_init+0x190>
    8098:	e7942003 	ldr	r2, [r4, r3]
    809c:	e2822001 	add	r2, r2, #1
    80a0:	e1a02982 	lsl	r2, r2, #19
    80a4:	e2833004 	add	r3, r3, #4
    80a8:	e7943003 	ldr	r3, [r4, r3]
    80ac:	e15309a2 	cmp	r3, r2, lsr #19
    80b0:	1a000006 	bne	80d0 <cq_init+0xc0>
    80b4:	eb00019d 	bl	8730 <rpi_reset_putc>
    80b8:	e59f00f8 	ldr	r0, [pc, #248]	; 81b8 <cq_init+0x1a8>
    80bc:	e59f10ec 	ldr	r1, [pc, #236]	; 81b0 <cq_init+0x1a0>
    80c0:	e59f20ec 	ldr	r2, [pc, #236]	; 81b4 <cq_init+0x1a4>
    80c4:	e3a030a0 	mov	r3, #160	; 0xa0
    80c8:	eb00017d 	bl	86c4 <printk>
    80cc:	eb0002ec 	bl	8c84 <clean_reboot>
    80d0:	e59f30c8 	ldr	r3, [pc, #200]	; 81a0 <cq_init+0x190>
    80d4:	e7942003 	ldr	r2, [r4, r3]
    80d8:	e2833004 	add	r3, r3, #4
    80dc:	e7943003 	ldr	r3, [r4, r3]
    80e0:	e0633002 	rsb	r3, r3, r2
    80e4:	e1b03983 	lsls	r3, r3, #19
    80e8:	0a000006 	beq	8108 <cq_init+0xf8>
    80ec:	eb00018f 	bl	8730 <rpi_reset_putc>
    80f0:	e59f00c4 	ldr	r0, [pc, #196]	; 81bc <cq_init+0x1ac>
    80f4:	e59f10b4 	ldr	r1, [pc, #180]	; 81b0 <cq_init+0x1a0>
    80f8:	e59f20b4 	ldr	r2, [pc, #180]	; 81b4 <cq_init+0x1a4>
    80fc:	e3a030a1 	mov	r3, #161	; 0xa1
    8100:	eb00016f 	bl	86c4 <printk>
    8104:	eb0002de 	bl	8c84 <clean_reboot>
    8108:	e59f3090 	ldr	r3, [pc, #144]	; 81a0 <cq_init+0x190>
    810c:	e7942003 	ldr	r2, [r4, r3]
    8110:	e2833004 	add	r3, r3, #4
    8114:	e7943003 	ldr	r3, [r4, r3]
    8118:	e1520003 	cmp	r2, r3
    811c:	0a000009 	beq	8148 <cq_init+0x138>
    8120:	e59f3074 	ldr	r3, [pc, #116]	; 819c <cq_init+0x18c>
    8124:	e7942003 	ldr	r2, [r4, r3]
    8128:	e7d41002 	ldrb	r1, [r4, r2]
    812c:	e6ef1071 	uxtb	r1, r1
    8130:	e2822001 	add	r2, r2, #1
    8134:	e1a02982 	lsl	r2, r2, #19
    8138:	e1a029a2 	lsr	r2, r2, #19
    813c:	e7842003 	str	r2, [r4, r3]
    8140:	e3a03001 	mov	r3, #1
    8144:	ea000001 	b	8150 <cq_init+0x140>
    8148:	e3a01012 	mov	r1, #18
    814c:	e3a03000 	mov	r3, #0
    8150:	e3530000 	cmp	r3, #0
    8154:	1a000002 	bne	8164 <cq_init+0x154>
    8158:	e3510012 	cmp	r1, #18
    815c:	0a000002 	beq	816c <cq_init+0x15c>
    8160:	ea000002 	b	8170 <cq_init+0x160>
    8164:	e3a03000 	mov	r3, #0
    8168:	ea000000 	b	8170 <cq_init+0x160>
    816c:	e3a03001 	mov	r3, #1
    8170:	e3530000 	cmp	r3, #0
    8174:	18bd8038 	popne	{r3, r4, r5, pc}
    8178:	eb00016c 	bl	8730 <rpi_reset_putc>
    817c:	e59f003c 	ldr	r0, [pc, #60]	; 81c0 <cq_init+0x1b0>
    8180:	e59f1028 	ldr	r1, [pc, #40]	; 81b0 <cq_init+0x1a0>
    8184:	e59f2028 	ldr	r2, [pc, #40]	; 81b4 <cq_init+0x1a4>
    8188:	e3a030a3 	mov	r3, #163	; 0xa3
    818c:	eb00014c 	bl	86c4 <printk>
    8190:	eb0002bb 	bl	8c84 <clean_reboot>
    8194:	00002014 	andeq	r2, r0, r4, lsl r0
    8198:	12345678 	eorsne	r5, r4, #120, 12	; 0x7800000
    819c:	00002008 	andeq	r2, r0, r8
    81a0:	00002004 	andeq	r2, r0, r4
    81a4:	0000200c 	andeq	r2, r0, ip
    81a8:	00002010 	andeq	r2, r0, r0, lsl r0
    81ac:	00009fb8 			; <UNDEFINED> instruction: 0x00009fb8
    81b0:	00009fd4 	ldrdeq	r9, [r0], -r4
    81b4:	00009fb0 			; <UNDEFINED> instruction: 0x00009fb0
    81b8:	0000a028 	andeq	sl, r0, r8, lsr #32
    81bc:	0000a044 	andeq	sl, r0, r4, asr #32
    81c0:	0000a068 	andeq	sl, r0, r8, rrx

000081c4 <uart_has_data_int>:
    81c4:	e59f3018 	ldr	r3, [pc, #24]	; 81e4 <uart_has_data_int+0x20>
    81c8:	e59f2018 	ldr	r2, [pc, #24]	; 81e8 <uart_has_data_int+0x24>
    81cc:	e7930002 	ldr	r0, [r3, r2]
    81d0:	e2822004 	add	r2, r2, #4
    81d4:	e7933002 	ldr	r3, [r3, r2]
    81d8:	e0500003 	subs	r0, r0, r3
    81dc:	13a00001 	movne	r0, #1
    81e0:	e12fff1e 	bx	lr
    81e4:	0000a4b8 			; <UNDEFINED> instruction: 0x0000a4b8
    81e8:	00002004 	andeq	r2, r0, r4

000081ec <mod_tx_interrupts>:
    81ec:	e92d4010 	push	{r4, lr}
    81f0:	e1a04000 	mov	r4, r0
    81f4:	eb0006e3 	bl	9d88 <dev_barrier>
    81f8:	e59f003c 	ldr	r0, [pc, #60]	; 823c <mod_tx_interrupts+0x50>
    81fc:	eb0006f3 	bl	9dd0 <get32>
    8200:	e3801001 	orr	r1, r0, #1
    8204:	e3540000 	cmp	r4, #0
    8208:	0a000002 	beq	8218 <mod_tx_interrupts+0x2c>
    820c:	e59f0028 	ldr	r0, [pc, #40]	; 823c <mod_tx_interrupts+0x50>
    8210:	eb0006e2 	bl	9da0 <put32>
    8214:	ea000006 	b	8234 <mod_tx_interrupts+0x48>
    8218:	e59f401c 	ldr	r4, [pc, #28]	; 823c <mod_tx_interrupts+0x50>
    821c:	e1a00004 	mov	r0, r4
    8220:	e3a01000 	mov	r1, #0
    8224:	eb0006dd 	bl	9da0 <put32>
    8228:	e1a00004 	mov	r0, r4
    822c:	e3a01001 	mov	r1, #1
    8230:	eb0006da 	bl	9da0 <put32>
    8234:	eb0006d3 	bl	9d88 <dev_barrier>
    8238:	e8bd8010 	pop	{r4, pc}
    823c:	20215044 	eorcs	r5, r1, r4, asr #32

00008240 <interrupt_vector>:
    8240:	e92d41f0 	push	{r4, r5, r6, r7, r8, lr}
    8244:	e59f0120 	ldr	r0, [pc, #288]	; 836c <interrupt_vector+0x12c>
    8248:	eb0006e0 	bl	9dd0 <get32>
    824c:	e3100004 	tst	r0, #4
    8250:	1a00000f 	bne	8294 <interrupt_vector+0x54>
    8254:	ea00001b 	b	82c8 <interrupt_vector+0x88>
    8258:	eb000623 	bl	9aec <uart_getc>
    825c:	e6ef0070 	uxtb	r0, r0
    8260:	e7941005 	ldr	r1, [r4, r5]
    8264:	e7942005 	ldr	r2, [r4, r5]
    8268:	e2822001 	add	r2, r2, #1
    826c:	e1a02982 	lsl	r2, r2, #19
    8270:	e7943006 	ldr	r3, [r4, r6]
    8274:	e15309a2 	cmp	r3, r2, lsr #19
    8278:	0a000008 	beq	82a0 <interrupt_vector+0x60>
    827c:	e7c40001 	strb	r0, [r4, r1]
    8280:	e2813001 	add	r3, r1, #1
    8284:	e1a03983 	lsl	r3, r3, #19
    8288:	e1a039a3 	lsr	r3, r3, #19
    828c:	e7843005 	str	r3, [r4, r5]
    8290:	ea000002 	b	82a0 <interrupt_vector+0x60>
    8294:	e59f40d4 	ldr	r4, [pc, #212]	; 8370 <interrupt_vector+0x130>
    8298:	e59f50d4 	ldr	r5, [pc, #212]	; 8374 <interrupt_vector+0x134>
    829c:	e59f60d4 	ldr	r6, [pc, #212]	; 8378 <interrupt_vector+0x138>
    82a0:	e7942005 	ldr	r2, [r4, r5]
    82a4:	e2822001 	add	r2, r2, #1
    82a8:	e1a02982 	lsl	r2, r2, #19
    82ac:	e7943006 	ldr	r3, [r4, r6]
    82b0:	e15309a2 	cmp	r3, r2, lsr #19
    82b4:	08bd81f0 	popeq	{r4, r5, r6, r7, r8, pc}
    82b8:	eb000604 	bl	9ad0 <uart_can_getc>
    82bc:	e3500000 	cmp	r0, #0
    82c0:	1affffe4 	bne	8258 <interrupt_vector+0x18>
    82c4:	e8bd81f0 	pop	{r4, r5, r6, r7, r8, pc}
    82c8:	e3100002 	tst	r0, #2
    82cc:	1a000003 	bne	82e0 <interrupt_vector+0xa0>
    82d0:	e8bd81f0 	pop	{r4, r5, r6, r7, r8, pc}
    82d4:	e5d4001c 	ldrb	r0, [r4, #28]
    82d8:	eb000614 	bl	9b30 <uart_putc>
    82dc:	ea000004 	b	82f4 <interrupt_vector+0xb4>
    82e0:	e59f4094 	ldr	r4, [pc, #148]	; 837c <interrupt_vector+0x13c>
    82e4:	e59f6094 	ldr	r6, [pc, #148]	; 8380 <interrupt_vector+0x140>
    82e8:	e59f5094 	ldr	r5, [pc, #148]	; 8384 <interrupt_vector+0x144>
    82ec:	e3a08000 	mov	r8, #0
    82f0:	e3a07001 	mov	r7, #1
    82f4:	eb000606 	bl	9b14 <uart_can_putc>
    82f8:	e3500000 	cmp	r0, #0
    82fc:	0a000010 	beq	8344 <interrupt_vector+0x104>
    8300:	e7942006 	ldr	r2, [r4, r6]
    8304:	e7943005 	ldr	r3, [r4, r5]
    8308:	e1520003 	cmp	r2, r3
    830c:	0a000009 	beq	8338 <interrupt_vector+0xf8>
    8310:	e7943005 	ldr	r3, [r4, r5]
    8314:	e0842003 	add	r2, r4, r3
    8318:	e5d22020 	ldrb	r2, [r2, #32]
    831c:	e5c4201c 	strb	r2, [r4, #28]
    8320:	e2833001 	add	r3, r3, #1
    8324:	e1a03983 	lsl	r3, r3, #19
    8328:	e1a039a3 	lsr	r3, r3, #19
    832c:	e7843005 	str	r3, [r4, r5]
    8330:	e1a03007 	mov	r3, r7
    8334:	ea000000 	b	833c <interrupt_vector+0xfc>
    8338:	e1a03008 	mov	r3, r8
    833c:	e3530000 	cmp	r3, #0
    8340:	1affffe3 	bne	82d4 <interrupt_vector+0x94>
    8344:	e59f3030 	ldr	r3, [pc, #48]	; 837c <interrupt_vector+0x13c>
    8348:	e59f2030 	ldr	r2, [pc, #48]	; 8380 <interrupt_vector+0x140>
    834c:	e7932002 	ldr	r2, [r3, r2]
    8350:	e59f102c 	ldr	r1, [pc, #44]	; 8384 <interrupt_vector+0x144>
    8354:	e7933001 	ldr	r3, [r3, r1]
    8358:	e1520003 	cmp	r2, r3
    835c:	18bd81f0 	popne	{r4, r5, r6, r7, r8, pc}
    8360:	e3a00000 	mov	r0, #0
    8364:	ebffffa0 	bl	81ec <mod_tx_interrupts>
    8368:	e8bd81f0 	pop	{r4, r5, r6, r7, r8, pc}
    836c:	20215048 	eorcs	r5, r1, r8, asr #32
    8370:	0000a4b8 			; <UNDEFINED> instruction: 0x0000a4b8
    8374:	00002004 	andeq	r2, r0, r4
    8378:	00002008 	andeq	r2, r0, r8
    837c:	0000c4b0 			; <UNDEFINED> instruction: 0x0000c4b0
    8380:	00002024 	andeq	r2, r0, r4, lsr #32
    8384:	00002028 	andeq	r2, r0, r8, lsr #32

00008388 <uart_putc_int>:
    8388:	e92d43f8 	push	{r3, r4, r5, r6, r7, r8, r9, lr}
    838c:	e1a04000 	mov	r4, r0
    8390:	eb000699 	bl	9dfc <system_disable_interrupts>
    8394:	e59f30c0 	ldr	r3, [pc, #192]	; 845c <uart_putc_int+0xd4>
    8398:	e59f20c0 	ldr	r2, [pc, #192]	; 8460 <uart_putc_int+0xd8>
    839c:	e7931002 	ldr	r1, [r3, r2]
    83a0:	e7932002 	ldr	r2, [r3, r2]
    83a4:	e2822001 	add	r2, r2, #1
    83a8:	e1a02982 	lsl	r2, r2, #19
    83ac:	e59f00b0 	ldr	r0, [pc, #176]	; 8464 <uart_putc_int+0xdc>
    83b0:	e7933000 	ldr	r3, [r3, r0]
    83b4:	e15309a2 	cmp	r3, r2, lsr #19
    83b8:	0a000007 	beq	83dc <uart_putc_int+0x54>
    83bc:	e59f3098 	ldr	r3, [pc, #152]	; 845c <uart_putc_int+0xd4>
    83c0:	e0832001 	add	r2, r3, r1
    83c4:	e5c24020 	strb	r4, [r2, #32]
    83c8:	e2811001 	add	r1, r1, #1
    83cc:	e1a01981 	lsl	r1, r1, #19
    83d0:	e1a019a1 	lsr	r1, r1, #19
    83d4:	e59f2084 	ldr	r2, [pc, #132]	; 8460 <uart_putc_int+0xd8>
    83d8:	e7831002 	str	r1, [r3, r2]
    83dc:	e3a00001 	mov	r0, #1
    83e0:	ebffff81 	bl	81ec <mod_tx_interrupts>
    83e4:	e59f4070 	ldr	r4, [pc, #112]	; 845c <uart_putc_int+0xd4>
    83e8:	e59f7070 	ldr	r7, [pc, #112]	; 8460 <uart_putc_int+0xd8>
    83ec:	e59f5070 	ldr	r5, [pc, #112]	; 8464 <uart_putc_int+0xdc>
    83f0:	e3a09000 	mov	r9, #0
    83f4:	e3a08001 	mov	r8, #1
    83f8:	ea000001 	b	8404 <uart_putc_int+0x7c>
    83fc:	e1a00006 	mov	r0, r6
    8400:	eb0005ca 	bl	9b30 <uart_putc>
    8404:	eb0005c2 	bl	9b14 <uart_can_putc>
    8408:	e3500000 	cmp	r0, #0
    840c:	0a000010 	beq	8454 <uart_putc_int+0xcc>
    8410:	e7942007 	ldr	r2, [r4, r7]
    8414:	e7943005 	ldr	r3, [r4, r5]
    8418:	e1520003 	cmp	r2, r3
    841c:	0a000009 	beq	8448 <uart_putc_int+0xc0>
    8420:	e7943005 	ldr	r3, [r4, r5]
    8424:	e0842003 	add	r2, r4, r3
    8428:	e5d26020 	ldrb	r6, [r2, #32]
    842c:	e6ef6076 	uxtb	r6, r6
    8430:	e2833001 	add	r3, r3, #1
    8434:	e1a03983 	lsl	r3, r3, #19
    8438:	e1a039a3 	lsr	r3, r3, #19
    843c:	e7843005 	str	r3, [r4, r5]
    8440:	e1a03008 	mov	r3, r8
    8444:	ea000000 	b	844c <uart_putc_int+0xc4>
    8448:	e1a03009 	mov	r3, r9
    844c:	e3530000 	cmp	r3, #0
    8450:	1affffe9 	bne	83fc <uart_putc_int+0x74>
    8454:	eb000664 	bl	9dec <system_enable_interrupts>
    8458:	e8bd83f8 	pop	{r3, r4, r5, r6, r7, r8, r9, pc}
    845c:	0000c4b0 			; <UNDEFINED> instruction: 0x0000c4b0
    8460:	00002024 	andeq	r2, r0, r4, lsr #32
    8464:	00002028 	andeq	r2, r0, r8, lsr #32

00008468 <uart_getc_int>:
    8468:	e59f3064 	ldr	r3, [pc, #100]	; 84d4 <uart_getc_int+0x6c>
    846c:	e59f2064 	ldr	r2, [pc, #100]	; 84d8 <uart_getc_int+0x70>
    8470:	e7932002 	ldr	r2, [r3, r2]
    8474:	e59f1060 	ldr	r1, [pc, #96]	; 84dc <uart_getc_int+0x74>
    8478:	e7933001 	ldr	r3, [r3, r1]
    847c:	e1520003 	cmp	r2, r3
    8480:	0a00000f 	beq	84c4 <uart_getc_int+0x5c>
    8484:	e59f3048 	ldr	r3, [pc, #72]	; 84d4 <uart_getc_int+0x6c>
    8488:	e59f2048 	ldr	r2, [pc, #72]	; 84d8 <uart_getc_int+0x70>
    848c:	e7932002 	ldr	r2, [r3, r2]
    8490:	e7933001 	ldr	r3, [r3, r1]
    8494:	e1520003 	cmp	r2, r3
    8498:	0a00000b 	beq	84cc <uart_getc_int+0x64>
    849c:	e59f3030 	ldr	r3, [pc, #48]	; 84d4 <uart_getc_int+0x6c>
    84a0:	e1a02001 	mov	r2, r1
    84a4:	e7931001 	ldr	r1, [r3, r1]
    84a8:	e7d30001 	ldrb	r0, [r3, r1]
    84ac:	e6ef0070 	uxtb	r0, r0
    84b0:	e2811001 	add	r1, r1, #1
    84b4:	e1a01981 	lsl	r1, r1, #19
    84b8:	e1a019a1 	lsr	r1, r1, #19
    84bc:	e7831002 	str	r1, [r3, r2]
    84c0:	e12fff1e 	bx	lr
    84c4:	e3a00082 	mov	r0, #130	; 0x82
    84c8:	e12fff1e 	bx	lr
    84cc:	e3a00082 	mov	r0, #130	; 0x82
    84d0:	e12fff1e 	bx	lr
    84d4:	0000a4b8 			; <UNDEFINED> instruction: 0x0000a4b8
    84d8:	00002004 	andeq	r2, r0, r4
    84dc:	00002008 	andeq	r2, r0, r8

000084e0 <my_puts>:
    84e0:	e92d4010 	push	{r4, lr}
    84e4:	e1a04000 	mov	r4, r0
    84e8:	ea000001 	b	84f4 <my_puts+0x14>
    84ec:	ebffffa5 	bl	8388 <uart_putc_int>
    84f0:	e2844001 	add	r4, r4, #1
    84f4:	e5d40000 	ldrb	r0, [r4]
    84f8:	e3500000 	cmp	r0, #0
    84fc:	1afffffa 	bne	84ec <my_puts+0xc>
    8500:	e8bd8010 	pop	{r4, pc}

00008504 <uart_init_with_interrupts>:
    8504:	e92d4010 	push	{r4, lr}
    8508:	eb00061e 	bl	9d88 <dev_barrier>
    850c:	e3a0000e 	mov	r0, #14
    8510:	e3a01002 	mov	r1, #2
    8514:	eb000304 	bl	912c <gpio_set_function>
    8518:	e3a0000f 	mov	r0, #15
    851c:	e3a01002 	mov	r1, #2
    8520:	eb000301 	bl	912c <gpio_set_function>
    8524:	eb000617 	bl	9d88 <dev_barrier>
    8528:	e59f4074 	ldr	r4, [pc, #116]	; 85a4 <uart_init_with_interrupts+0xa0>
    852c:	e1a00004 	mov	r0, r4
    8530:	eb000626 	bl	9dd0 <get32>
    8534:	e3801001 	orr	r1, r0, #1
    8538:	e1a00004 	mov	r0, r4
    853c:	eb000617 	bl	9da0 <put32>
    8540:	eb000610 	bl	9d88 <dev_barrier>
    8544:	e284405c 	add	r4, r4, #92	; 0x5c
    8548:	e1a00004 	mov	r0, r4
    854c:	e3a01000 	mov	r1, #0
    8550:	eb000612 	bl	9da0 <put32>
    8554:	e59f004c 	ldr	r0, [pc, #76]	; 85a8 <uart_init_with_interrupts+0xa4>
    8558:	e3a01003 	mov	r1, #3
    855c:	eb00060f 	bl	9da0 <put32>
    8560:	e59f0044 	ldr	r0, [pc, #68]	; 85ac <uart_init_with_interrupts+0xa8>
    8564:	e3a01006 	mov	r1, #6
    8568:	eb00060c 	bl	9da0 <put32>
    856c:	e59f003c 	ldr	r0, [pc, #60]	; 85b0 <uart_init_with_interrupts+0xac>
    8570:	e3a01003 	mov	r1, #3
    8574:	eb000609 	bl	9da0 <put32>
    8578:	e59f0034 	ldr	r0, [pc, #52]	; 85b4 <uart_init_with_interrupts+0xb0>
    857c:	e59f1034 	ldr	r1, [pc, #52]	; 85b8 <uart_init_with_interrupts+0xb4>
    8580:	eb000606 	bl	9da0 <put32>
    8584:	e1a00004 	mov	r0, r4
    8588:	e3a01003 	mov	r1, #3
    858c:	eb000603 	bl	9da0 <put32>
    8590:	e59f0024 	ldr	r0, [pc, #36]	; 85bc <uart_init_with_interrupts+0xb8>
    8594:	e3a01202 	mov	r1, #536870912	; 0x20000000
    8598:	eb000600 	bl	9da0 <put32>
    859c:	eb0005f9 	bl	9d88 <dev_barrier>
    85a0:	e8bd8010 	pop	{r4, pc}
    85a4:	20215004 	eorcs	r5, r1, r4
    85a8:	20215044 	eorcs	r5, r1, r4, asr #32
    85ac:	20215048 	eorcs	r5, r1, r8, asr #32
    85b0:	2021504c 	eorcs	r5, r1, ip, asr #32
    85b4:	20215068 	eorcs	r5, r1, r8, rrx
    85b8:	0000010e 	andeq	r0, r0, lr, lsl #2
    85bc:	2000b210 	andcs	fp, r0, r0, lsl r2

000085c0 <notmain>:
    85c0:	e92d4070 	push	{r4, r5, r6, lr}
    85c4:	e24dd018 	sub	sp, sp, #24
    85c8:	eb00056e 	bl	9b88 <int_init>
    85cc:	ebffffcc 	bl	8504 <uart_init_with_interrupts>
    85d0:	e59f00ac 	ldr	r0, [pc, #172]	; 8684 <notmain+0xc4>
    85d4:	e3a01001 	mov	r1, #1
    85d8:	ebfffe8c 	bl	8010 <cq_init>
    85dc:	e59f00a4 	ldr	r0, [pc, #164]	; 8688 <notmain+0xc8>
    85e0:	e3a01001 	mov	r1, #1
    85e4:	ebfffe89 	bl	8010 <cq_init>
    85e8:	e59f009c 	ldr	r0, [pc, #156]	; 868c <notmain+0xcc>
    85ec:	e3a0100d 	mov	r1, #13
    85f0:	eb0005ea 	bl	9da0 <put32>
    85f4:	eb0005e3 	bl	9d88 <dev_barrier>
    85f8:	eb0005fb 	bl	9dec <system_enable_interrupts>
    85fc:	eb0005e1 	bl	9d88 <dev_barrier>
    8600:	e59f3088 	ldr	r3, [pc, #136]	; 8690 <notmain+0xd0>
    8604:	e58d3000 	str	r3, [sp]
    8608:	e28d000c 	add	r0, sp, #12
    860c:	e3a01014 	mov	r1, #20
    8610:	e3a02015 	mov	r2, #21
    8614:	e59f3078 	ldr	r3, [pc, #120]	; 8694 <notmain+0xd4>
    8618:	eb000487 	bl	983c <sw_uart_init_helper>
    861c:	e59f0074 	ldr	r0, [pc, #116]	; 8698 <notmain+0xd8>
    8620:	eb000027 	bl	86c4 <printk>
    8624:	e3a06000 	mov	r6, #0
    8628:	ea00000e 	b	8668 <notmain+0xa8>
    862c:	ebffff8d 	bl	8468 <uart_getc_int>
    8630:	e1a04000 	mov	r4, r0
    8634:	eb0005f0 	bl	9dfc <system_disable_interrupts>
    8638:	e6ef5074 	uxtb	r5, r4
    863c:	e28d000c 	add	r0, sp, #12
    8640:	e1a01005 	mov	r1, r5
    8644:	eb000372 	bl	9414 <sw_uart_putc>
    8648:	eb0005e7 	bl	9dec <system_enable_interrupts>
    864c:	e1a00005 	mov	r0, r5
    8650:	ebffff4c 	bl	8388 <uart_putc_int>
    8654:	e354000a 	cmp	r4, #10
    8658:	02866001 	addeq	r6, r6, #1
    865c:	ebfffed8 	bl	81c4 <uart_has_data_int>
    8660:	e3500000 	cmp	r0, #0
    8664:	1afffff0 	bne	862c <notmain+0x6c>
    8668:	e3560009 	cmp	r6, #9
    866c:	dafffffa 	ble	865c <notmain+0x9c>
    8670:	e59f0024 	ldr	r0, [pc, #36]	; 869c <notmain+0xdc>
    8674:	eb000012 	bl	86c4 <printk>
    8678:	e59f0020 	ldr	r0, [pc, #32]	; 86a0 <notmain+0xe0>
    867c:	eb000010 	bl	86c4 <printk>
    8680:	eb00017f 	bl	8c84 <clean_reboot>
    8684:	0000a4b8 			; <UNDEFINED> instruction: 0x0000a4b8
    8688:	0000c4d0 	ldrdeq	ip, [r0], -r0
    868c:	20215040 	eorcs	r5, r1, r0, asr #32
    8690:	000017bc 			; <UNDEFINED> instruction: 0x000017bc
    8694:	0001c200 	andeq	ip, r1, r0, lsl #4
    8698:	0000a0a0 	andeq	sl, r0, r0, lsr #1
    869c:	0000a0c4 	andeq	sl, r0, r4, asr #1
    86a0:	0000a0dc 	ldrdeq	sl, [r0], -ip

000086a4 <memset>:
    86a4:	e0802002 	add	r2, r0, r2
    86a8:	e1a03000 	mov	r3, r0
    86ac:	ea000001 	b	86b8 <memset+0x14>
    86b0:	e5c31000 	strb	r1, [r3]
    86b4:	e2833001 	add	r3, r3, #1
    86b8:	e1530002 	cmp	r3, r2
    86bc:	3afffffb 	bcc	86b0 <memset+0xc>
    86c0:	e12fff1e 	bx	lr

000086c4 <printk>:
    86c4:	e92d000f 	push	{r0, r1, r2, r3}
    86c8:	e92d4030 	push	{r4, r5, lr}
    86cc:	e24dd00c 	sub	sp, sp, #12
    86d0:	e28d301c 	add	r3, sp, #28
    86d4:	e58d3004 	str	r3, [sp, #4]
    86d8:	e59f4034 	ldr	r4, [pc, #52]	; 8714 <printk+0x50>
    86dc:	e1a00004 	mov	r0, r4
    86e0:	e3a01b01 	mov	r1, #1024	; 0x400
    86e4:	e59d2018 	ldr	r2, [sp, #24]
    86e8:	eb0000c3 	bl	89fc <va_printk>
    86ec:	e1a05000 	mov	r5, r0
    86f0:	e59f3020 	ldr	r3, [pc, #32]	; 8718 <printk+0x54>
    86f4:	e5933000 	ldr	r3, [r3]
    86f8:	e1a00004 	mov	r0, r4
    86fc:	e12fff33 	blx	r3
    8700:	e1a00005 	mov	r0, r5
    8704:	e28dd00c 	add	sp, sp, #12
    8708:	e8bd4030 	pop	{r4, r5, lr}
    870c:	e28dd010 	add	sp, sp, #16
    8710:	e12fff1e 	bx	lr
    8714:	0000e4e8 	andeq	lr, r0, r8, ror #9
    8718:	00009f18 	andeq	r9, r0, r8, lsl pc

0000871c <internal_putchar>:
    871c:	e92d4010 	push	{r4, lr}
    8720:	e1a04000 	mov	r4, r0
    8724:	eb000501 	bl	9b30 <uart_putc>
    8728:	e1a00004 	mov	r0, r4
    872c:	e8bd8010 	pop	{r4, pc}

00008730 <rpi_reset_putc>:
    8730:	e59f2008 	ldr	r2, [pc, #8]	; 8740 <rpi_reset_putc+0x10>
    8734:	e59f3008 	ldr	r3, [pc, #8]	; 8744 <rpi_reset_putc+0x14>
    8738:	e5832000 	str	r2, [r3]
    873c:	e12fff1e 	bx	lr
    8740:	0000871c 	andeq	r8, r0, ip, lsl r7
    8744:	00009f14 	andeq	r9, r0, r4, lsl pc

00008748 <rpi_set_putc>:
    8748:	e59f3004 	ldr	r3, [pc, #4]	; 8754 <rpi_set_putc+0xc>
    874c:	e5830000 	str	r0, [r3]
    8750:	e12fff1e 	bx	lr
    8754:	00009f14 	andeq	r9, r0, r4, lsl pc

00008758 <internal_putk>:
    8758:	e92d4038 	push	{r3, r4, r5, lr}
    875c:	e1a04000 	mov	r4, r0
    8760:	e59f5020 	ldr	r5, [pc, #32]	; 8788 <internal_putk+0x30>
    8764:	ea000002 	b	8774 <internal_putk+0x1c>
    8768:	e5953000 	ldr	r3, [r5]
    876c:	e12fff33 	blx	r3
    8770:	e2844001 	add	r4, r4, #1
    8774:	e5d40000 	ldrb	r0, [r4]
    8778:	e3500000 	cmp	r0, #0
    877c:	1afffff9 	bne	8768 <internal_putk+0x10>
    8780:	e3a00001 	mov	r0, #1
    8784:	e8bd8038 	pop	{r3, r4, r5, pc}
    8788:	00009f14 	andeq	r9, r0, r4, lsl pc

0000878c <isdigit>:
    878c:	e2400030 	sub	r0, r0, #48	; 0x30
    8790:	e3500009 	cmp	r0, #9
    8794:	83a00000 	movhi	r0, #0
    8798:	93a00001 	movls	r0, #1
    879c:	e12fff1e 	bx	lr

000087a0 <pad>:
    87a0:	e0611000 	rsb	r1, r1, r0
    87a4:	e3a03020 	mov	r3, #32
    87a8:	ea000002 	b	87b8 <pad+0x18>
    87ac:	e5c03000 	strb	r3, [r0]
    87b0:	e2811001 	add	r1, r1, #1
    87b4:	e2800001 	add	r0, r0, #1
    87b8:	e1510002 	cmp	r1, r2
    87bc:	bafffffa 	blt	87ac <pad+0xc>
    87c0:	e3a03000 	mov	r3, #0
    87c4:	e5c03000 	strb	r3, [r0]
    87c8:	e12fff1e 	bx	lr

000087cc <reverse>:
    87cc:	e063c002 	rsb	ip, r3, r2
    87d0:	e28cc001 	add	ip, ip, #1
    87d4:	e15c0001 	cmp	ip, r1
    87d8:	c061100c 	rsbgt	r1, r1, ip
    87dc:	c0833001 	addgt	r3, r3, r1
    87e0:	e2422001 	sub	r2, r2, #1
    87e4:	e1a01000 	mov	r1, r0
    87e8:	ea000002 	b	87f8 <reverse+0x2c>
    87ec:	e452c001 	ldrb	ip, [r2], #-1
    87f0:	e5c1c000 	strb	ip, [r1]
    87f4:	e2811001 	add	r1, r1, #1
    87f8:	e1520003 	cmp	r2, r3
    87fc:	2afffffa 	bcs	87ec <reverse+0x20>
    8800:	e3a03000 	mov	r3, #0
    8804:	e5c13000 	strb	r3, [r1]
    8808:	e12fff1e 	bx	lr

0000880c <emit>:
    880c:	e92d41f0 	push	{r4, r5, r6, r7, r8, lr}
    8810:	e24dd040 	sub	sp, sp, #64	; 0x40
    8814:	e1a05001 	mov	r5, r1
    8818:	e1a04002 	mov	r4, r2
    881c:	e59d2058 	ldr	r2, [sp, #88]	; 0x58
    8820:	e1520004 	cmp	r2, r4
    8824:	c2442001 	subgt	r2, r4, #1
    8828:	e1a0c003 	mov	ip, r3
    882c:	e2400002 	sub	r0, r0, #2
    8830:	e350000e 	cmp	r0, #14
    8834:	979ff100 	ldrls	pc, [pc, r0, lsl #2]
    8838:	ea000042 	b	8948 <emit+0x13c>
    883c:	00008920 	andeq	r8, r0, r0, lsr #18
    8840:	00008948 	andeq	r8, r0, r8, asr #18
    8844:	00008948 	andeq	r8, r0, r8, asr #18
    8848:	00008948 	andeq	r8, r0, r8, asr #18
    884c:	00008948 	andeq	r8, r0, r8, asr #18
    8850:	00008948 	andeq	r8, r0, r8, asr #18
    8854:	00008914 	andeq	r8, r0, r4, lsl r9
    8858:	00008948 	andeq	r8, r0, r8, asr #18
    885c:	00008878 	andeq	r8, r0, r8, ror r8
    8860:	00008948 	andeq	r8, r0, r8, asr #18
    8864:	00008948 	andeq	r8, r0, r8, asr #18
    8868:	00008948 	andeq	r8, r0, r8, asr #18
    886c:	00008948 	andeq	r8, r0, r8, asr #18
    8870:	00008948 	andeq	r8, r0, r8, asr #18
    8874:	000088ec 	andeq	r8, r0, ip, ror #17
    8878:	e59d105c 	ldr	r1, [sp, #92]	; 0x5c
    887c:	e2911000 	adds	r1, r1, #0
    8880:	13a01001 	movne	r1, #1
    8884:	e0111fa3 	ands	r1, r1, r3, lsr #31
    8888:	1263c000 	rsbne	ip, r3, #0
    888c:	13a08001 	movne	r8, #1
    8890:	03a08000 	moveq	r8, #0
    8894:	e1a0100d 	mov	r1, sp
    8898:	e59f70ec 	ldr	r7, [pc, #236]	; 898c <emit+0x180>
    889c:	e59f60ec 	ldr	r6, [pc, #236]	; 8990 <emit+0x184>
    88a0:	ea000000 	b	88a8 <emit+0x9c>
    88a4:	e1a01003 	mov	r1, r3
    88a8:	e2813001 	add	r3, r1, #1
    88ac:	e08e0c97 	umull	r0, lr, r7, ip
    88b0:	e1a0e1ae 	lsr	lr, lr, #3
    88b4:	e1a0000e 	mov	r0, lr
    88b8:	e08ee10e 	add	lr, lr, lr, lsl #2
    88bc:	e1a0e08e 	lsl	lr, lr, #1
    88c0:	e06ee00c 	rsb	lr, lr, ip
    88c4:	e7d6c00e 	ldrb	ip, [r6, lr]
    88c8:	e5c1c000 	strb	ip, [r1]
    88cc:	e1a0c000 	mov	ip, r0
    88d0:	e3500000 	cmp	r0, #0
    88d4:	1afffff2 	bne	88a4 <emit+0x98>
    88d8:	e3580000 	cmp	r8, #0
    88dc:	12813002 	addne	r3, r1, #2
    88e0:	13a0002d 	movne	r0, #45	; 0x2d
    88e4:	15c10001 	strbne	r0, [r1, #1]
    88e8:	ea00001d 	b	8964 <emit+0x158>
    88ec:	e1a0e00d 	mov	lr, sp
    88f0:	e59f009c 	ldr	r0, [pc, #156]	; 8994 <emit+0x188>
    88f4:	e28e3001 	add	r3, lr, #1
    88f8:	e20c100f 	and	r1, ip, #15
    88fc:	e7d01001 	ldrb	r1, [r0, r1]
    8900:	e5ce1000 	strb	r1, [lr]
    8904:	e1a0e003 	mov	lr, r3
    8908:	e1b0c22c 	lsrs	ip, ip, #4
    890c:	1afffff8 	bne	88f4 <emit+0xe8>
    8910:	ea000013 	b	8964 <emit+0x158>
    8914:	e5cd3000 	strb	r3, [sp]
    8918:	e28d3001 	add	r3, sp, #1
    891c:	ea000010 	b	8964 <emit+0x158>
    8920:	e1a0e00d 	mov	lr, sp
    8924:	e59f006c 	ldr	r0, [pc, #108]	; 8998 <emit+0x18c>
    8928:	e28e3001 	add	r3, lr, #1
    892c:	e20c1001 	and	r1, ip, #1
    8930:	e7d01001 	ldrb	r1, [r0, r1]
    8934:	e5ce1000 	strb	r1, [lr]
    8938:	e1a0e003 	mov	lr, r3
    893c:	e1b0c0ac 	lsrs	ip, ip, #1
    8940:	1afffff8 	bne	8928 <emit+0x11c>
    8944:	ea000006 	b	8964 <emit+0x158>
    8948:	ebffff78 	bl	8730 <rpi_reset_putc>
    894c:	e59f0048 	ldr	r0, [pc, #72]	; 899c <emit+0x190>
    8950:	e59f1048 	ldr	r1, [pc, #72]	; 89a0 <emit+0x194>
    8954:	e59f2048 	ldr	r2, [pc, #72]	; 89a4 <emit+0x198>
    8958:	e3a03075 	mov	r3, #117	; 0x75
    895c:	ebffff58 	bl	86c4 <printk>
    8960:	eb0000c7 	bl	8c84 <clean_reboot>
    8964:	e1a00003 	mov	r0, r3
    8968:	e1a0100d 	mov	r1, sp
    896c:	ebffff8b 	bl	87a0 <pad>
    8970:	e1a02000 	mov	r2, r0
    8974:	e1a00005 	mov	r0, r5
    8978:	e1a01004 	mov	r1, r4
    897c:	e1a0300d 	mov	r3, sp
    8980:	ebffff91 	bl	87cc <reverse>
    8984:	e28dd040 	add	sp, sp, #64	; 0x40
    8988:	e8bd81f0 	pop	{r4, r5, r6, r7, r8, pc}
    898c:	cccccccd 	stclgt	12, cr12, [ip], {205}	; 0xcd
    8990:	0000a134 	andeq	sl, r0, r4, lsr r1
    8994:	0000a140 	andeq	sl, r0, r0, asr #2
    8998:	0000a154 	andeq	sl, r0, r4, asr r1
    899c:	0000a10c 	andeq	sl, r0, ip, lsl #2
    89a0:	0000a120 	andeq	sl, r0, r0, lsr #2
    89a4:	0000a0e8 	andeq	sl, r0, r8, ror #1

000089a8 <rpi_set_output>:
    89a8:	e92d4008 	push	{r3, lr}
    89ac:	e3500000 	cmp	r0, #0
    89b0:	1a000006 	bne	89d0 <rpi_set_output+0x28>
    89b4:	ebffff5d 	bl	8730 <rpi_reset_putc>
    89b8:	e59f0028 	ldr	r0, [pc, #40]	; 89e8 <rpi_set_output+0x40>
    89bc:	e59f1028 	ldr	r1, [pc, #40]	; 89ec <rpi_set_output+0x44>
    89c0:	e59f2028 	ldr	r2, [pc, #40]	; 89f0 <rpi_set_output+0x48>
    89c4:	e3a03020 	mov	r3, #32
    89c8:	ebffff3d 	bl	86c4 <printk>
    89cc:	eb0000ac 	bl	8c84 <clean_reboot>
    89d0:	e59f301c 	ldr	r3, [pc, #28]	; 89f4 <rpi_set_output+0x4c>
    89d4:	e5830000 	str	r0, [r3]
    89d8:	e3510000 	cmp	r1, #0
    89dc:	159f3014 	ldrne	r3, [pc, #20]	; 89f8 <rpi_set_output+0x50>
    89e0:	15831000 	strne	r1, [r3]
    89e4:	e8bd8008 	pop	{r3, pc}
    89e8:	0000a158 	andeq	sl, r0, r8, asr r1
    89ec:	0000a120 	andeq	sl, r0, r0, lsr #2
    89f0:	0000a0f0 	strdeq	sl, [r0], -r0
    89f4:	00009f14 	andeq	r9, r0, r4, lsl pc
    89f8:	00009f18 	andeq	r9, r0, r8, lsl pc

000089fc <va_printk>:
    89fc:	e92d4ff0 	push	{r4, r5, r6, r7, r8, r9, sl, fp, lr}
    8a00:	e24dd08c 	sub	sp, sp, #140	; 0x8c
    8a04:	e1a0a000 	mov	sl, r0
    8a08:	e1a09003 	mov	r9, r3
    8a0c:	e2411001 	sub	r1, r1, #1
    8a10:	e0808001 	add	r8, r0, r1
    8a14:	e3a03000 	mov	r3, #0
    8a18:	e5c03000 	strb	r3, [r0]
    8a1c:	e1a04000 	mov	r4, r0
    8a20:	e1a0b003 	mov	fp, r3
    8a24:	ea000086 	b	8c44 <va_printk+0x248>
    8a28:	e3530025 	cmp	r3, #37	; 0x25
    8a2c:	12822001 	addne	r2, r2, #1
    8a30:	15c43000 	strbne	r3, [r4]
    8a34:	12844001 	addne	r4, r4, #1
    8a38:	1a000081 	bne	8c44 <va_printk+0x248>
    8a3c:	e5d21001 	ldrb	r1, [r2, #1]
    8a40:	e3510025 	cmp	r1, #37	; 0x25
    8a44:	05c43000 	strbeq	r3, [r4]
    8a48:	02822002 	addeq	r2, r2, #2
    8a4c:	02844001 	addeq	r4, r4, #1
    8a50:	0a00007b 	beq	8c44 <va_printk+0x248>
    8a54:	e2826001 	add	r6, r2, #1
    8a58:	e1a0700b 	mov	r7, fp
    8a5c:	ea000004 	b	8a74 <va_printk+0x78>
    8a60:	e0877107 	add	r7, r7, r7, lsl #2
    8a64:	e1a07087 	lsl	r7, r7, #1
    8a68:	e0877005 	add	r7, r7, r5
    8a6c:	e2477030 	sub	r7, r7, #48	; 0x30
    8a70:	e2866001 	add	r6, r6, #1
    8a74:	e5d65000 	ldrb	r5, [r6]
    8a78:	e1a00005 	mov	r0, r5
    8a7c:	ebffff42 	bl	878c <isdigit>
    8a80:	e3500000 	cmp	r0, #0
    8a84:	1afffff5 	bne	8a60 <va_printk+0x64>
    8a88:	e357001f 	cmp	r7, #31
    8a8c:	9a000006 	bls	8aac <va_printk+0xb0>
    8a90:	ebffff26 	bl	8730 <rpi_reset_putc>
    8a94:	e59f01d4 	ldr	r0, [pc, #468]	; 8c70 <va_printk+0x274>
    8a98:	e59f11d4 	ldr	r1, [pc, #468]	; 8c74 <va_printk+0x278>
    8a9c:	e59f21d4 	ldr	r2, [pc, #468]	; 8c78 <va_printk+0x27c>
    8aa0:	e3a03092 	mov	r3, #146	; 0x92
    8aa4:	ebffff06 	bl	86c4 <printk>
    8aa8:	eb000075 	bl	8c84 <clean_reboot>
    8aac:	e2455062 	sub	r5, r5, #98	; 0x62
    8ab0:	e3550016 	cmp	r5, #22
    8ab4:	979ff105 	ldrls	pc, [pc, r5, lsl #2]
    8ab8:	ea00004e 	b	8bf8 <va_printk+0x1fc>
    8abc:	00008ba4 	andeq	r8, r0, r4, lsr #23
    8ac0:	00008bd4 	ldrdeq	r8, [r0], -r4
    8ac4:	00008b34 	andeq	r8, r0, r4, lsr fp
    8ac8:	00008bf8 	strdeq	r8, [r0], -r8	; <UNPREDICTABLE>
    8acc:	00008b18 	andeq	r8, r0, r8, lsl fp
    8ad0:	00008bf8 	strdeq	r8, [r0], -r8	; <UNPREDICTABLE>
    8ad4:	00008bf8 	strdeq	r8, [r0], -r8	; <UNPREDICTABLE>
    8ad8:	00008bf8 	strdeq	r8, [r0], -r8	; <UNPREDICTABLE>
    8adc:	00008bf8 	strdeq	r8, [r0], -r8	; <UNPREDICTABLE>
    8ae0:	00008bf8 	strdeq	r8, [r0], -r8	; <UNPREDICTABLE>
    8ae4:	00008bf8 	strdeq	r8, [r0], -r8	; <UNPREDICTABLE>
    8ae8:	00008bf8 	strdeq	r8, [r0], -r8	; <UNPREDICTABLE>
    8aec:	00008bf8 	strdeq	r8, [r0], -r8	; <UNPREDICTABLE>
    8af0:	00008bf8 	strdeq	r8, [r0], -r8	; <UNPREDICTABLE>
    8af4:	00008b80 	andeq	r8, r0, r0, lsl #23
    8af8:	00008bf8 	strdeq	r8, [r0], -r8	; <UNPREDICTABLE>
    8afc:	00008bf8 	strdeq	r8, [r0], -r8	; <UNPREDICTABLE>
    8b00:	00008bc8 	andeq	r8, r0, r8, asr #23
    8b04:	00008bf8 	strdeq	r8, [r0], -r8	; <UNPREDICTABLE>
    8b08:	00008b5c 	andeq	r8, r0, ip, asr fp
    8b0c:	00008bf8 	strdeq	r8, [r0], -r8	; <UNPREDICTABLE>
    8b10:	00008bf8 	strdeq	r8, [r0], -r8	; <UNPREDICTABLE>
    8b14:	00008b80 	andeq	r8, r0, r0, lsl #23
    8b18:	ebffff04 	bl	8730 <rpi_reset_putc>
    8b1c:	e59f0158 	ldr	r0, [pc, #344]	; 8c7c <va_printk+0x280>
    8b20:	e59f114c 	ldr	r1, [pc, #332]	; 8c74 <va_printk+0x278>
    8b24:	e59f214c 	ldr	r2, [pc, #332]	; 8c78 <va_printk+0x27c>
    8b28:	e3a03098 	mov	r3, #152	; 0x98
    8b2c:	ebfffee4 	bl	86c4 <printk>
    8b30:	eb000053 	bl	8c84 <clean_reboot>
    8b34:	e5993000 	ldr	r3, [r9]
    8b38:	e2899004 	add	r9, r9, #4
    8b3c:	e58d7000 	str	r7, [sp]
    8b40:	e3a02001 	mov	r2, #1
    8b44:	e58d2004 	str	r2, [sp, #4]
    8b48:	e3a0000a 	mov	r0, #10
    8b4c:	e28d1008 	add	r1, sp, #8
    8b50:	e3a02080 	mov	r2, #128	; 0x80
    8b54:	ebffff2c 	bl	880c <emit>
    8b58:	ea00002f 	b	8c1c <va_printk+0x220>
    8b5c:	e5993000 	ldr	r3, [r9]
    8b60:	e2899004 	add	r9, r9, #4
    8b64:	e58d7000 	str	r7, [sp]
    8b68:	e58db004 	str	fp, [sp, #4]
    8b6c:	e3a0000a 	mov	r0, #10
    8b70:	e28d1008 	add	r1, sp, #8
    8b74:	e3a02080 	mov	r2, #128	; 0x80
    8b78:	ebffff23 	bl	880c <emit>
    8b7c:	ea000026 	b	8c1c <va_printk+0x220>
    8b80:	e5993000 	ldr	r3, [r9]
    8b84:	e2899004 	add	r9, r9, #4
    8b88:	e58d7000 	str	r7, [sp]
    8b8c:	e58db004 	str	fp, [sp, #4]
    8b90:	e3a00010 	mov	r0, #16
    8b94:	e28d1008 	add	r1, sp, #8
    8b98:	e3a02080 	mov	r2, #128	; 0x80
    8b9c:	ebffff1a 	bl	880c <emit>
    8ba0:	ea00001d 	b	8c1c <va_printk+0x220>
    8ba4:	e5993000 	ldr	r3, [r9]
    8ba8:	e2899004 	add	r9, r9, #4
    8bac:	e58d7000 	str	r7, [sp]
    8bb0:	e58db004 	str	fp, [sp, #4]
    8bb4:	e3a00002 	mov	r0, #2
    8bb8:	e28d1008 	add	r1, sp, #8
    8bbc:	e3a02080 	mov	r2, #128	; 0x80
    8bc0:	ebffff11 	bl	880c <emit>
    8bc4:	ea000014 	b	8c1c <va_printk+0x220>
    8bc8:	e5990000 	ldr	r0, [r9]
    8bcc:	e2899004 	add	r9, r9, #4
    8bd0:	ea000011 	b	8c1c <va_printk+0x220>
    8bd4:	e5993000 	ldr	r3, [r9]
    8bd8:	e2899004 	add	r9, r9, #4
    8bdc:	e58d7000 	str	r7, [sp]
    8be0:	e58db004 	str	fp, [sp, #4]
    8be4:	e3a00008 	mov	r0, #8
    8be8:	e08d1000 	add	r1, sp, r0
    8bec:	e3a02080 	mov	r2, #128	; 0x80
    8bf0:	ebffff05 	bl	880c <emit>
    8bf4:	ea000008 	b	8c1c <va_printk+0x220>
    8bf8:	ebfffecc 	bl	8730 <rpi_reset_putc>
    8bfc:	e5d63000 	ldrb	r3, [r6]
    8c00:	e58d3000 	str	r3, [sp]
    8c04:	e59f0074 	ldr	r0, [pc, #116]	; 8c80 <va_printk+0x284>
    8c08:	e59f1064 	ldr	r1, [pc, #100]	; 8c74 <va_printk+0x278>
    8c0c:	e59f2064 	ldr	r2, [pc, #100]	; 8c78 <va_printk+0x27c>
    8c10:	e3a030b9 	mov	r3, #185	; 0xb9
    8c14:	ebfffeaa 	bl	86c4 <printk>
    8c18:	eb000019 	bl	8c84 <clean_reboot>
    8c1c:	e2862001 	add	r2, r6, #1
    8c20:	ea000002 	b	8c30 <va_printk+0x234>
    8c24:	e2800001 	add	r0, r0, #1
    8c28:	e5c43000 	strb	r3, [r4]
    8c2c:	e2844001 	add	r4, r4, #1
    8c30:	e1540008 	cmp	r4, r8
    8c34:	2a000002 	bcs	8c44 <va_printk+0x248>
    8c38:	e5d03000 	ldrb	r3, [r0]
    8c3c:	e3530000 	cmp	r3, #0
    8c40:	1afffff7 	bne	8c24 <va_printk+0x228>
    8c44:	e5d23000 	ldrb	r3, [r2]
    8c48:	e3530000 	cmp	r3, #0
    8c4c:	0a000001 	beq	8c58 <va_printk+0x25c>
    8c50:	e1540008 	cmp	r4, r8
    8c54:	3affff73 	bcc	8a28 <va_printk+0x2c>
    8c58:	e2840001 	add	r0, r4, #1
    8c5c:	e3a03000 	mov	r3, #0
    8c60:	e5c43000 	strb	r3, [r4]
    8c64:	e06a0000 	rsb	r0, sl, r0
    8c68:	e28dd08c 	add	sp, sp, #140	; 0x8c
    8c6c:	e8bd8ff0 	pop	{r4, r5, r6, r7, r8, r9, sl, fp, pc}
    8c70:	0000a170 	andeq	sl, r0, r0, ror r1
    8c74:	0000a120 	andeq	sl, r0, r0, lsr #2
    8c78:	0000a100 	andeq	sl, r0, r0, lsl #2
    8c7c:	0000a18c 	andeq	sl, r0, ip, lsl #3
    8c80:	0000a1b4 			; <UNDEFINED> instruction: 0x0000a1b4

00008c84 <clean_reboot>:
    8c84:	e92d4008 	push	{r3, lr}
    8c88:	e59f3014 	ldr	r3, [pc, #20]	; 8ca4 <clean_reboot+0x20>
    8c8c:	e5933000 	ldr	r3, [r3]
    8c90:	e59f0010 	ldr	r0, [pc, #16]	; 8ca8 <clean_reboot+0x24>
    8c94:	e12fff33 	blx	r3
    8c98:	e3a00064 	mov	r0, #100	; 0x64
    8c9c:	eb000063 	bl	8e30 <delay_ms>
    8ca0:	eb000038 	bl	8d88 <rpi_reboot>
    8ca4:	00009f18 	andeq	r9, r0, r8, lsl pc
    8ca8:	0000a1ec 	andeq	sl, r0, ip, ror #3

00008cac <internal_sw_putchar>:
    8cac:	e92d4010 	push	{r4, lr}
    8cb0:	e1a04000 	mov	r4, r0
    8cb4:	e59f000c 	ldr	r0, [pc, #12]	; 8cc8 <internal_sw_putchar+0x1c>
    8cb8:	e6ef1074 	uxtb	r1, r4
    8cbc:	eb0001d4 	bl	9414 <sw_uart_putc>
    8cc0:	e1a00004 	mov	r0, r4
    8cc4:	e8bd8010 	pop	{r4, pc}
    8cc8:	0000e8e8 	andeq	lr, r0, r8, ror #17

00008ccc <_cstart>:
    8ccc:	e92d4008 	push	{r3, lr}
    8cd0:	e59f3068 	ldr	r3, [pc, #104]	; 8d40 <_cstart+0x74>
    8cd4:	e59f2068 	ldr	r2, [pc, #104]	; 8d44 <_cstart+0x78>
    8cd8:	e3a01000 	mov	r1, #0
    8cdc:	ea000001 	b	8ce8 <_cstart+0x1c>
    8ce0:	e5831000 	str	r1, [r3]
    8ce4:	e2833004 	add	r3, r3, #4
    8ce8:	e1530002 	cmp	r3, r2
    8cec:	3afffffb 	bcc	8ce0 <_cstart+0x14>
    8cf0:	eb00047d 	bl	9eec <cb_get_block>
    8cf4:	e3500000 	cmp	r0, #0
    8cf8:	0a00000e 	beq	8d38 <_cstart+0x6c>
    8cfc:	e5d02004 	ldrb	r2, [r0, #4]
    8d00:	e3520002 	cmp	r2, #2
    8d04:	1a00000b 	bne	8d38 <_cstart+0x6c>
    8d08:	e59f1038 	ldr	r1, [pc, #56]	; 8d48 <_cstart+0x7c>
    8d0c:	e59f2038 	ldr	r2, [pc, #56]	; 8d4c <_cstart+0x80>
    8d10:	e5821000 	str	r1, [r2]
    8d14:	e59fc034 	ldr	ip, [pc, #52]	; 8d50 <_cstart+0x84>
    8d18:	e2803008 	add	r3, r0, #8
    8d1c:	e8930007 	ldm	r3, {r0, r1, r2}
    8d20:	e88c0007 	stm	ip, {r0, r1, r2}
    8d24:	e1a0000c 	mov	r0, ip
    8d28:	e59f1024 	ldr	r1, [pc, #36]	; 8d54 <_cstart+0x88>
    8d2c:	eb00030c 	bl	9964 <sw_uart_printk>
    8d30:	e59f0020 	ldr	r0, [pc, #32]	; 8d58 <_cstart+0x8c>
    8d34:	ebfffe62 	bl	86c4 <printk>
    8d38:	ebfffe20 	bl	85c0 <notmain>
    8d3c:	eb000011 	bl	8d88 <rpi_reboot>
    8d40:	0000a4b8 			; <UNDEFINED> instruction: 0x0000a4b8
    8d44:	0000e8f8 	strdeq	lr, [r0], -r8
    8d48:	00008cac 	andeq	r8, r0, ip, lsr #25
    8d4c:	00009f14 	andeq	r9, r0, r4, lsl pc
    8d50:	0000e8e8 	andeq	lr, r0, r8, ror #17
    8d54:	0000a1f8 	strdeq	sl, [r0], -r8
    8d58:	0000a21c 	andeq	sl, r0, ip, lsl r2

00008d5c <at_user_level>:
    8d5c:	e10f0000 	mrs	r0, CPSR
    8d60:	e200001f 	and	r0, r0, #31
    8d64:	e3500010 	cmp	r0, #16
    8d68:	13a00000 	movne	r0, #0
    8d6c:	03a00001 	moveq	r0, #1
    8d70:	e12fff1e 	bx	lr

00008d74 <set_user_level>:
    8d74:	e10f3000 	mrs	r3, CPSR
    8d78:	e3c3301f 	bic	r3, r3, #31
    8d7c:	e3833010 	orr	r3, r3, #16
    8d80:	e129f003 	msr	CPSR_fc, r3
    8d84:	e12fff1e 	bx	lr

00008d88 <rpi_reboot>:
    8d88:	e92d4008 	push	{r3, lr}
    8d8c:	ebfffff2 	bl	8d5c <at_user_level>
    8d90:	e3500000 	cmp	r0, #0
    8d94:	0a000000 	beq	8d9c <rpi_reboot+0x14>
    8d98:	ebfffff5 	bl	8d74 <set_user_level>
    8d9c:	e3a0001e 	mov	r0, #30
    8da0:	eb000022 	bl	8e30 <delay_ms>
    8da4:	e59f0014 	ldr	r0, [pc, #20]	; 8dc0 <rpi_reboot+0x38>
    8da8:	e59f1014 	ldr	r1, [pc, #20]	; 8dc4 <rpi_reboot+0x3c>
    8dac:	eb0003fd 	bl	9da8 <PUT32>
    8db0:	e59f0010 	ldr	r0, [pc, #16]	; 8dc8 <rpi_reboot+0x40>
    8db4:	e59f1010 	ldr	r1, [pc, #16]	; 8dcc <rpi_reboot+0x44>
    8db8:	eb0003fa 	bl	9da8 <PUT32>
    8dbc:	eafffffe 	b	8dbc <rpi_reboot+0x34>
    8dc0:	20100024 	andscs	r0, r0, r4, lsr #32
    8dc4:	5a000001 	bpl	8dd0 <delay_cycles>
    8dc8:	2010001c 	andscs	r0, r0, ip, lsl r0
    8dcc:	5a000020 	bpl	8e54 <delay_sec+0x10>

00008dd0 <delay_cycles>:
    8dd0:	ea000001 	b	8ddc <delay_cycles+0xc>
    8dd4:	e2811000 	add	r1, r1, #0
    8dd8:	e1a00003 	mov	r0, r3
    8ddc:	e2403001 	sub	r3, r0, #1
    8de0:	e3500000 	cmp	r0, #0
    8de4:	1afffffa 	bne	8dd4 <delay_cycles+0x4>
    8de8:	e12fff1e 	bx	lr

00008dec <timer_get_usec_raw>:
    8dec:	e92d4008 	push	{r3, lr}
    8df0:	e59f0004 	ldr	r0, [pc, #4]	; 8dfc <timer_get_usec_raw+0x10>
    8df4:	eb0003f7 	bl	9dd8 <GET32>
    8df8:	e8bd8008 	pop	{r3, pc}
    8dfc:	20003004 	andcs	r3, r0, r4

00008e00 <timer_get_usec>:
    8e00:	e92d4008 	push	{r3, lr}
    8e04:	ebfffff8 	bl	8dec <timer_get_usec_raw>
    8e08:	e8bd8008 	pop	{r3, pc}

00008e0c <delay_us>:
    8e0c:	e92d4038 	push	{r3, r4, r5, lr}
    8e10:	e1a05000 	mov	r5, r0
    8e14:	ebfffff9 	bl	8e00 <timer_get_usec>
    8e18:	e1a04000 	mov	r4, r0
    8e1c:	ebfffff7 	bl	8e00 <timer_get_usec>
    8e20:	e0640000 	rsb	r0, r4, r0
    8e24:	e1500005 	cmp	r0, r5
    8e28:	3afffffb 	bcc	8e1c <delay_us+0x10>
    8e2c:	e8bd8038 	pop	{r3, r4, r5, pc}

00008e30 <delay_ms>:
    8e30:	e92d4008 	push	{r3, lr}
    8e34:	e3a03ffa 	mov	r3, #1000	; 0x3e8
    8e38:	e0000093 	mul	r0, r3, r0
    8e3c:	ebfffff2 	bl	8e0c <delay_us>
    8e40:	e8bd8008 	pop	{r3, pc}

00008e44 <delay_sec>:
    8e44:	e92d4008 	push	{r3, lr}
    8e48:	e3a03ffa 	mov	r3, #1000	; 0x3e8
    8e4c:	e0000093 	mul	r0, r3, r0
    8e50:	ebfffff6 	bl	8e30 <delay_ms>
    8e54:	e8bd8008 	pop	{r3, pc}

00008e58 <gpio_set_output>:
    8e58:	e92d4038 	push	{r3, r4, r5, lr}
    8e5c:	e1a04000 	mov	r4, r0
    8e60:	e350001f 	cmp	r0, #31
    8e64:	88bd8038 	pophi	{r3, r4, r5, pc}
    8e68:	e59f30b4 	ldr	r3, [pc, #180]	; 8f24 <gpio_set_output+0xcc>
    8e6c:	e0832093 	umull	r2, r3, r3, r0
    8e70:	e1a031a3 	lsr	r3, r3, #3
    8e74:	e3530005 	cmp	r3, #5
    8e78:	979ff103 	ldrls	pc, [pc, r3, lsl #2]
    8e7c:	ea000017 	b	8ee0 <gpio_set_output+0x88>
    8e80:	00008e98 	muleq	r0, r8, lr
    8e84:	00008ea4 	andeq	r8, r0, r4, lsr #29
    8e88:	00008eb0 			; <UNDEFINED> instruction: 0x00008eb0
    8e8c:	00008ebc 			; <UNDEFINED> instruction: 0x00008ebc
    8e90:	00008ec8 	andeq	r8, r0, r8, asr #29
    8e94:	00008ed4 	ldrdeq	r8, [r0], -r4
    8e98:	e59f3088 	ldr	r3, [pc, #136]	; 8f28 <gpio_set_output+0xd0>
    8e9c:	e5935000 	ldr	r5, [r3]
    8ea0:	ea00000f 	b	8ee4 <gpio_set_output+0x8c>
    8ea4:	e59f307c 	ldr	r3, [pc, #124]	; 8f28 <gpio_set_output+0xd0>
    8ea8:	e5935004 	ldr	r5, [r3, #4]
    8eac:	ea00000c 	b	8ee4 <gpio_set_output+0x8c>
    8eb0:	e59f3070 	ldr	r3, [pc, #112]	; 8f28 <gpio_set_output+0xd0>
    8eb4:	e5935008 	ldr	r5, [r3, #8]
    8eb8:	ea000009 	b	8ee4 <gpio_set_output+0x8c>
    8ebc:	e59f3064 	ldr	r3, [pc, #100]	; 8f28 <gpio_set_output+0xd0>
    8ec0:	e593500c 	ldr	r5, [r3, #12]
    8ec4:	ea000006 	b	8ee4 <gpio_set_output+0x8c>
    8ec8:	e59f3058 	ldr	r3, [pc, #88]	; 8f28 <gpio_set_output+0xd0>
    8ecc:	e5935010 	ldr	r5, [r3, #16]
    8ed0:	ea000003 	b	8ee4 <gpio_set_output+0x8c>
    8ed4:	e59f304c 	ldr	r3, [pc, #76]	; 8f28 <gpio_set_output+0xd0>
    8ed8:	e5935014 	ldr	r5, [r3, #20]
    8edc:	ea000000 	b	8ee4 <gpio_set_output+0x8c>
    8ee0:	e3a05000 	mov	r5, #0
    8ee4:	e1a00005 	mov	r0, r5
    8ee8:	eb0003b8 	bl	9dd0 <get32>
    8eec:	e59f1030 	ldr	r1, [pc, #48]	; 8f24 <gpio_set_output+0xcc>
    8ef0:	e0813491 	umull	r3, r1, r1, r4
    8ef4:	e1a011a1 	lsr	r1, r1, #3
    8ef8:	e0811101 	add	r1, r1, r1, lsl #2
    8efc:	e1a01081 	lsl	r1, r1, #1
    8f00:	e0611004 	rsb	r1, r1, r4
    8f04:	e0811081 	add	r1, r1, r1, lsl #1
    8f08:	e3a03007 	mov	r3, #7
    8f0c:	e1c03113 	bic	r3, r0, r3, lsl r1
    8f10:	e1a00005 	mov	r0, r5
    8f14:	e3a02001 	mov	r2, #1
    8f18:	e1831112 	orr	r1, r3, r2, lsl r1
    8f1c:	eb00039f 	bl	9da0 <put32>
    8f20:	e8bd8038 	pop	{r3, r4, r5, pc}
    8f24:	cccccccd 	stclgt	12, cr12, [ip], {205}	; 0xcd
    8f28:	00009f1c 	andeq	r9, r0, ip, lsl pc

00008f2c <gpio_set_on>:
    8f2c:	e92d4008 	push	{r3, lr}
    8f30:	e350001f 	cmp	r0, #31
    8f34:	88bd8008 	pophi	{r3, pc}
    8f38:	959f3020 	ldrls	r3, [pc, #32]	; 8f60 <gpio_set_on+0x34>
    8f3c:	95932018 	ldrls	r2, [r3, #24]
    8f40:	859f3018 	ldrhi	r3, [pc, #24]	; 8f60 <gpio_set_on+0x34>
    8f44:	8593201c 	ldrhi	r2, [r3, #28]
    8f48:	e200301f 	and	r3, r0, #31
    8f4c:	e1a00002 	mov	r0, r2
    8f50:	e3a01001 	mov	r1, #1
    8f54:	e1a01311 	lsl	r1, r1, r3
    8f58:	eb000390 	bl	9da0 <put32>
    8f5c:	e8bd8008 	pop	{r3, pc}
    8f60:	00009f1c 	andeq	r9, r0, ip, lsl pc

00008f64 <gpio_set_off>:
    8f64:	e92d4008 	push	{r3, lr}
    8f68:	e350001f 	cmp	r0, #31
    8f6c:	88bd8008 	pophi	{r3, pc}
    8f70:	959f3020 	ldrls	r3, [pc, #32]	; 8f98 <gpio_set_off+0x34>
    8f74:	95932020 	ldrls	r2, [r3, #32]
    8f78:	859f3018 	ldrhi	r3, [pc, #24]	; 8f98 <gpio_set_off+0x34>
    8f7c:	85932024 	ldrhi	r2, [r3, #36]	; 0x24
    8f80:	e200301f 	and	r3, r0, #31
    8f84:	e1a00002 	mov	r0, r2
    8f88:	e3a01001 	mov	r1, #1
    8f8c:	e1a01311 	lsl	r1, r1, r3
    8f90:	eb000382 	bl	9da0 <put32>
    8f94:	e8bd8008 	pop	{r3, pc}
    8f98:	00009f1c 	andeq	r9, r0, ip, lsl pc

00008f9c <gpio_set_input>:
    8f9c:	e92d4038 	push	{r3, r4, r5, lr}
    8fa0:	e1a04000 	mov	r4, r0
    8fa4:	e350001f 	cmp	r0, #31
    8fa8:	88bd8038 	pophi	{r3, r4, r5, pc}
    8fac:	e59f30ac 	ldr	r3, [pc, #172]	; 9060 <gpio_set_input+0xc4>
    8fb0:	e0832093 	umull	r2, r3, r3, r0
    8fb4:	e1a031a3 	lsr	r3, r3, #3
    8fb8:	e3530005 	cmp	r3, #5
    8fbc:	979ff103 	ldrls	pc, [pc, r3, lsl #2]
    8fc0:	ea000017 	b	9024 <gpio_set_input+0x88>
    8fc4:	00008fdc 	ldrdeq	r8, [r0], -ip
    8fc8:	00008fe8 	andeq	r8, r0, r8, ror #31
    8fcc:	00008ff4 	strdeq	r8, [r0], -r4
    8fd0:	00009000 	andeq	r9, r0, r0
    8fd4:	0000900c 	andeq	r9, r0, ip
    8fd8:	00009018 	andeq	r9, r0, r8, lsl r0
    8fdc:	e59f3080 	ldr	r3, [pc, #128]	; 9064 <gpio_set_input+0xc8>
    8fe0:	e5935000 	ldr	r5, [r3]
    8fe4:	ea00000f 	b	9028 <gpio_set_input+0x8c>
    8fe8:	e59f3074 	ldr	r3, [pc, #116]	; 9064 <gpio_set_input+0xc8>
    8fec:	e5935004 	ldr	r5, [r3, #4]
    8ff0:	ea00000c 	b	9028 <gpio_set_input+0x8c>
    8ff4:	e59f3068 	ldr	r3, [pc, #104]	; 9064 <gpio_set_input+0xc8>
    8ff8:	e5935008 	ldr	r5, [r3, #8]
    8ffc:	ea000009 	b	9028 <gpio_set_input+0x8c>
    9000:	e59f305c 	ldr	r3, [pc, #92]	; 9064 <gpio_set_input+0xc8>
    9004:	e593500c 	ldr	r5, [r3, #12]
    9008:	ea000006 	b	9028 <gpio_set_input+0x8c>
    900c:	e59f3050 	ldr	r3, [pc, #80]	; 9064 <gpio_set_input+0xc8>
    9010:	e5935010 	ldr	r5, [r3, #16]
    9014:	ea000003 	b	9028 <gpio_set_input+0x8c>
    9018:	e59f3044 	ldr	r3, [pc, #68]	; 9064 <gpio_set_input+0xc8>
    901c:	e5935014 	ldr	r5, [r3, #20]
    9020:	ea000000 	b	9028 <gpio_set_input+0x8c>
    9024:	e3a05000 	mov	r5, #0
    9028:	e1a00005 	mov	r0, r5
    902c:	eb000367 	bl	9dd0 <get32>
    9030:	e59f1028 	ldr	r1, [pc, #40]	; 9060 <gpio_set_input+0xc4>
    9034:	e0813491 	umull	r3, r1, r1, r4
    9038:	e1a011a1 	lsr	r1, r1, #3
    903c:	e0811101 	add	r1, r1, r1, lsl #2
    9040:	e1a01081 	lsl	r1, r1, #1
    9044:	e0611004 	rsb	r1, r1, r4
    9048:	e0811081 	add	r1, r1, r1, lsl #1
    904c:	e3a03007 	mov	r3, #7
    9050:	e1c01113 	bic	r1, r0, r3, lsl r1
    9054:	e1a00005 	mov	r0, r5
    9058:	eb000350 	bl	9da0 <put32>
    905c:	e8bd8038 	pop	{r3, r4, r5, pc}
    9060:	cccccccd 	stclgt	12, cr12, [ip], {205}	; 0xcd
    9064:	00009f1c 	andeq	r9, r0, ip, lsl pc

00009068 <gpio_read>:
    9068:	e92d4010 	push	{r4, lr}
    906c:	e1a04000 	mov	r4, r0
    9070:	e350001f 	cmp	r0, #31
    9074:	8a00000b 	bhi	90a8 <gpio_read+0x40>
    9078:	8a000003 	bhi	908c <gpio_read+0x24>
    907c:	e59f302c 	ldr	r3, [pc, #44]	; 90b0 <gpio_read+0x48>
    9080:	e5930028 	ldr	r0, [r3, #40]	; 0x28
    9084:	eb000351 	bl	9dd0 <get32>
    9088:	ea000002 	b	9098 <gpio_read+0x30>
    908c:	e59f301c 	ldr	r3, [pc, #28]	; 90b0 <gpio_read+0x48>
    9090:	e593002c 	ldr	r0, [r3, #44]	; 0x2c
    9094:	eb00034d 	bl	9dd0 <get32>
    9098:	e204401f 	and	r4, r4, #31
    909c:	e3a03001 	mov	r3, #1
    90a0:	e0000413 	and	r0, r0, r3, lsl r4
    90a4:	e8bd8010 	pop	{r4, pc}
    90a8:	e3e00000 	mvn	r0, #0
    90ac:	e8bd8010 	pop	{r4, pc}
    90b0:	00009f1c 	andeq	r9, r0, ip, lsl pc

000090b4 <gpio_write>:
    90b4:	e92d4008 	push	{r3, lr}
    90b8:	e350001f 	cmp	r0, #31
    90bc:	88bd8008 	pophi	{r3, pc}
    90c0:	e3510000 	cmp	r1, #0
    90c4:	0a00000b 	beq	90f8 <gpio_write+0x44>
    90c8:	e350001f 	cmp	r0, #31
    90cc:	88bd8008 	pophi	{r3, pc}
    90d0:	959f3050 	ldrls	r3, [pc, #80]	; 9128 <gpio_write+0x74>
    90d4:	95932018 	ldrls	r2, [r3, #24]
    90d8:	859f3048 	ldrhi	r3, [pc, #72]	; 9128 <gpio_write+0x74>
    90dc:	8593201c 	ldrhi	r2, [r3, #28]
    90e0:	e200301f 	and	r3, r0, #31
    90e4:	e1a00002 	mov	r0, r2
    90e8:	e3a01001 	mov	r1, #1
    90ec:	e1a01311 	lsl	r1, r1, r3
    90f0:	eb00032a 	bl	9da0 <put32>
    90f4:	e8bd8008 	pop	{r3, pc}
    90f8:	e350001f 	cmp	r0, #31
    90fc:	88bd8008 	pophi	{r3, pc}
    9100:	959f3020 	ldrls	r3, [pc, #32]	; 9128 <gpio_write+0x74>
    9104:	95932020 	ldrls	r2, [r3, #32]
    9108:	859f3018 	ldrhi	r3, [pc, #24]	; 9128 <gpio_write+0x74>
    910c:	85932024 	ldrhi	r2, [r3, #36]	; 0x24
    9110:	e200301f 	and	r3, r0, #31
    9114:	e1a00002 	mov	r0, r2
    9118:	e3a01001 	mov	r1, #1
    911c:	e1a01311 	lsl	r1, r1, r3
    9120:	eb00031e 	bl	9da0 <put32>
    9124:	e8bd8008 	pop	{r3, pc}
    9128:	00009f1c 	andeq	r9, r0, ip, lsl pc

0000912c <gpio_set_function>:
    912c:	e92d4070 	push	{r4, r5, r6, lr}
    9130:	e1a04000 	mov	r4, r0
    9134:	e1a05001 	mov	r5, r1
    9138:	e3510007 	cmp	r1, #7
    913c:	9350001f 	cmpls	r0, #31
    9140:	88bd8070 	pophi	{r4, r5, r6, pc}
    9144:	e59f30b0 	ldr	r3, [pc, #176]	; 91fc <gpio_set_function+0xd0>
    9148:	e0832093 	umull	r2, r3, r3, r0
    914c:	e1a031a3 	lsr	r3, r3, #3
    9150:	e3530005 	cmp	r3, #5
    9154:	979ff103 	ldrls	pc, [pc, r3, lsl #2]
    9158:	ea000017 	b	91bc <gpio_set_function+0x90>
    915c:	00009174 	andeq	r9, r0, r4, ror r1
    9160:	00009180 	andeq	r9, r0, r0, lsl #3
    9164:	0000918c 	andeq	r9, r0, ip, lsl #3
    9168:	00009198 	muleq	r0, r8, r1
    916c:	000091a4 	andeq	r9, r0, r4, lsr #3
    9170:	000091b0 			; <UNDEFINED> instruction: 0x000091b0
    9174:	e59f3084 	ldr	r3, [pc, #132]	; 9200 <gpio_set_function+0xd4>
    9178:	e5936000 	ldr	r6, [r3]
    917c:	ea00000f 	b	91c0 <gpio_set_function+0x94>
    9180:	e59f3078 	ldr	r3, [pc, #120]	; 9200 <gpio_set_function+0xd4>
    9184:	e5936004 	ldr	r6, [r3, #4]
    9188:	ea00000c 	b	91c0 <gpio_set_function+0x94>
    918c:	e59f306c 	ldr	r3, [pc, #108]	; 9200 <gpio_set_function+0xd4>
    9190:	e5936008 	ldr	r6, [r3, #8]
    9194:	ea000009 	b	91c0 <gpio_set_function+0x94>
    9198:	e59f3060 	ldr	r3, [pc, #96]	; 9200 <gpio_set_function+0xd4>
    919c:	e593600c 	ldr	r6, [r3, #12]
    91a0:	ea000006 	b	91c0 <gpio_set_function+0x94>
    91a4:	e59f3054 	ldr	r3, [pc, #84]	; 9200 <gpio_set_function+0xd4>
    91a8:	e5936010 	ldr	r6, [r3, #16]
    91ac:	ea000003 	b	91c0 <gpio_set_function+0x94>
    91b0:	e59f3048 	ldr	r3, [pc, #72]	; 9200 <gpio_set_function+0xd4>
    91b4:	e5936014 	ldr	r6, [r3, #20]
    91b8:	ea000000 	b	91c0 <gpio_set_function+0x94>
    91bc:	e3a06000 	mov	r6, #0
    91c0:	e1a00006 	mov	r0, r6
    91c4:	eb000301 	bl	9dd0 <get32>
    91c8:	e59f302c 	ldr	r3, [pc, #44]	; 91fc <gpio_set_function+0xd0>
    91cc:	e0832493 	umull	r2, r3, r3, r4
    91d0:	e1a031a3 	lsr	r3, r3, #3
    91d4:	e0833103 	add	r3, r3, r3, lsl #2
    91d8:	e1a03083 	lsl	r3, r3, #1
    91dc:	e0633004 	rsb	r3, r3, r4
    91e0:	e0833083 	add	r3, r3, r3, lsl #1
    91e4:	e3a01007 	mov	r1, #7
    91e8:	e1c01311 	bic	r1, r0, r1, lsl r3
    91ec:	e1a00006 	mov	r0, r6
    91f0:	e1811315 	orr	r1, r1, r5, lsl r3
    91f4:	eb0002e9 	bl	9da0 <put32>
    91f8:	e8bd8070 	pop	{r4, r5, r6, pc}
    91fc:	cccccccd 	stclgt	12, cr12, [ip], {205}	; 0xcd
    9200:	00009f1c 	andeq	r9, r0, ip, lsl pc

00009204 <is_gpio_int>:
    9204:	e92d4008 	push	{r3, lr}
    9208:	e59f301c 	ldr	r3, [pc, #28]	; 922c <is_gpio_int+0x28>
    920c:	e5930030 	ldr	r0, [r3, #48]	; 0x30
    9210:	eb0002ee 	bl	9dd0 <get32>
    9214:	e3500000 	cmp	r0, #0
    9218:	0a000001 	beq	9224 <is_gpio_int+0x20>
    921c:	e3a00001 	mov	r0, #1
    9220:	e8bd8008 	pop	{r3, pc}
    9224:	e3a00000 	mov	r0, #0
    9228:	e8bd8008 	pop	{r3, pc}
    922c:	00009f1c 	andeq	r9, r0, ip, lsl pc

00009230 <gpio_int_rising_edge>:
    9230:	e92d4038 	push	{r3, r4, r5, lr}
    9234:	e1a04000 	mov	r4, r0
    9238:	e350001f 	cmp	r0, #31
    923c:	88bd8038 	pophi	{r3, r4, r5, pc}
    9240:	eb0002d0 	bl	9d88 <dev_barrier>
    9244:	e354001f 	cmp	r4, #31
    9248:	8a000007 	bhi	926c <gpio_int_rising_edge+0x3c>
    924c:	e59f505c 	ldr	r5, [pc, #92]	; 92b0 <gpio_int_rising_edge+0x80>
    9250:	e5950034 	ldr	r0, [r5, #52]	; 0x34
    9254:	eb0002dd 	bl	9dd0 <get32>
    9258:	e3a01001 	mov	r1, #1
    925c:	e1801411 	orr	r1, r0, r1, lsl r4
    9260:	e5950034 	ldr	r0, [r5, #52]	; 0x34
    9264:	eb0002cd 	bl	9da0 <put32>
    9268:	ea000007 	b	928c <gpio_int_rising_edge+0x5c>
    926c:	e59f503c 	ldr	r5, [pc, #60]	; 92b0 <gpio_int_rising_edge+0x80>
    9270:	e5950038 	ldr	r0, [r5, #56]	; 0x38
    9274:	eb0002d5 	bl	9dd0 <get32>
    9278:	e204401f 	and	r4, r4, #31
    927c:	e3a01001 	mov	r1, #1
    9280:	e1801411 	orr	r1, r0, r1, lsl r4
    9284:	e5950038 	ldr	r0, [r5, #56]	; 0x38
    9288:	eb0002c4 	bl	9da0 <put32>
    928c:	eb0002bd 	bl	9d88 <dev_barrier>
    9290:	e59f4018 	ldr	r4, [pc, #24]	; 92b0 <gpio_int_rising_edge+0x80>
    9294:	e594003c 	ldr	r0, [r4, #60]	; 0x3c
    9298:	eb0002cc 	bl	9dd0 <get32>
    929c:	e3801802 	orr	r1, r0, #131072	; 0x20000
    92a0:	e594003c 	ldr	r0, [r4, #60]	; 0x3c
    92a4:	eb0002bd 	bl	9da0 <put32>
    92a8:	eb0002b6 	bl	9d88 <dev_barrier>
    92ac:	e8bd8038 	pop	{r3, r4, r5, pc}
    92b0:	00009f1c 	andeq	r9, r0, ip, lsl pc

000092b4 <gpio_int_falling_edge>:
    92b4:	e92d4038 	push	{r3, r4, r5, lr}
    92b8:	e1a04000 	mov	r4, r0
    92bc:	e350001f 	cmp	r0, #31
    92c0:	88bd8038 	pophi	{r3, r4, r5, pc}
    92c4:	eb0002af 	bl	9d88 <dev_barrier>
    92c8:	e354001f 	cmp	r4, #31
    92cc:	8a000007 	bhi	92f0 <gpio_int_falling_edge+0x3c>
    92d0:	e59f505c 	ldr	r5, [pc, #92]	; 9334 <gpio_int_falling_edge+0x80>
    92d4:	e5950040 	ldr	r0, [r5, #64]	; 0x40
    92d8:	eb0002bc 	bl	9dd0 <get32>
    92dc:	e3a01001 	mov	r1, #1
    92e0:	e1801411 	orr	r1, r0, r1, lsl r4
    92e4:	e5950040 	ldr	r0, [r5, #64]	; 0x40
    92e8:	eb0002ac 	bl	9da0 <put32>
    92ec:	ea000007 	b	9310 <gpio_int_falling_edge+0x5c>
    92f0:	e59f503c 	ldr	r5, [pc, #60]	; 9334 <gpio_int_falling_edge+0x80>
    92f4:	e5950044 	ldr	r0, [r5, #68]	; 0x44
    92f8:	eb0002b4 	bl	9dd0 <get32>
    92fc:	e204401f 	and	r4, r4, #31
    9300:	e3a01001 	mov	r1, #1
    9304:	e1801411 	orr	r1, r0, r1, lsl r4
    9308:	e5950044 	ldr	r0, [r5, #68]	; 0x44
    930c:	eb0002a3 	bl	9da0 <put32>
    9310:	eb00029c 	bl	9d88 <dev_barrier>
    9314:	e59f4018 	ldr	r4, [pc, #24]	; 9334 <gpio_int_falling_edge+0x80>
    9318:	e594003c 	ldr	r0, [r4, #60]	; 0x3c
    931c:	eb0002ab 	bl	9dd0 <get32>
    9320:	e3801601 	orr	r1, r0, #1048576	; 0x100000
    9324:	e594003c 	ldr	r0, [r4, #60]	; 0x3c
    9328:	eb00029c 	bl	9da0 <put32>
    932c:	eb000295 	bl	9d88 <dev_barrier>
    9330:	e8bd8038 	pop	{r3, r4, r5, pc}
    9334:	00009f1c 	andeq	r9, r0, ip, lsl pc

00009338 <gpio_event_detected>:
    9338:	e92d4010 	push	{r4, lr}
    933c:	e1a04000 	mov	r4, r0
    9340:	e350001f 	cmp	r0, #31
    9344:	8a000019 	bhi	93b0 <gpio_event_detected+0x78>
    9348:	eb00028e 	bl	9d88 <dev_barrier>
    934c:	e354001f 	cmp	r4, #31
    9350:	8a000008 	bhi	9378 <gpio_event_detected+0x40>
    9354:	e59f305c 	ldr	r3, [pc, #92]	; 93b8 <gpio_event_detected+0x80>
    9358:	e5930048 	ldr	r0, [r3, #72]	; 0x48
    935c:	eb00029b 	bl	9dd0 <get32>
    9360:	e3a03001 	mov	r3, #1
    9364:	e0103413 	ands	r3, r0, r3, lsl r4
    9368:	0a00000d 	beq	93a4 <gpio_event_detected+0x6c>
    936c:	eb000285 	bl	9d88 <dev_barrier>
    9370:	e3a00001 	mov	r0, #1
    9374:	e8bd8010 	pop	{r4, pc}
    9378:	e59f3038 	ldr	r3, [pc, #56]	; 93b8 <gpio_event_detected+0x80>
    937c:	e593004c 	ldr	r0, [r3, #76]	; 0x4c
    9380:	eb000292 	bl	9dd0 <get32>
    9384:	e3a03001 	mov	r3, #1
    9388:	e0004413 	and	r4, r0, r3, lsl r4
    938c:	eb00027d 	bl	9d88 <dev_barrier>
    9390:	e3540000 	cmp	r4, #0
    9394:	0a000002 	beq	93a4 <gpio_event_detected+0x6c>
    9398:	eb00027a 	bl	9d88 <dev_barrier>
    939c:	e3a00001 	mov	r0, #1
    93a0:	e8bd8010 	pop	{r4, pc}
    93a4:	eb000277 	bl	9d88 <dev_barrier>
    93a8:	e3a00000 	mov	r0, #0
    93ac:	e8bd8010 	pop	{r4, pc}
    93b0:	e3e00000 	mvn	r0, #0
    93b4:	e8bd8010 	pop	{r4, pc}
    93b8:	00009f1c 	andeq	r9, r0, ip, lsl pc

000093bc <gpio_event_clear>:
    93bc:	e92d4010 	push	{r4, lr}
    93c0:	e1a04000 	mov	r4, r0
    93c4:	e350001f 	cmp	r0, #31
    93c8:	88bd8010 	pophi	{r4, pc}
    93cc:	eb00026d 	bl	9d88 <dev_barrier>
    93d0:	e354001f 	cmp	r4, #31
    93d4:	8a000005 	bhi	93f0 <gpio_event_clear+0x34>
    93d8:	e59f3030 	ldr	r3, [pc, #48]	; 9410 <gpio_event_clear+0x54>
    93dc:	e5930048 	ldr	r0, [r3, #72]	; 0x48
    93e0:	e3a01001 	mov	r1, #1
    93e4:	e1a01411 	lsl	r1, r1, r4
    93e8:	eb00026c 	bl	9da0 <put32>
    93ec:	ea000005 	b	9408 <gpio_event_clear+0x4c>
    93f0:	e204401f 	and	r4, r4, #31
    93f4:	e59f3014 	ldr	r3, [pc, #20]	; 9410 <gpio_event_clear+0x54>
    93f8:	e593004c 	ldr	r0, [r3, #76]	; 0x4c
    93fc:	e3a01001 	mov	r1, #1
    9400:	e1a01411 	lsl	r1, r1, r4
    9404:	eb000265 	bl	9da0 <put32>
    9408:	eb00025e 	bl	9d88 <dev_barrier>
    940c:	e8bd8010 	pop	{r4, pc}
    9410:	00009f1c 	andeq	r9, r0, ip, lsl pc

00009414 <sw_uart_putc>:
    9414:	e92d41f0 	push	{r4, r5, r6, r7, r8, lr}
    9418:	e1a07001 	mov	r7, r1
    941c:	e5d06000 	ldrb	r6, [r0]
    9420:	e5905008 	ldr	r5, [r0, #8]
    9424:	ee1f4f3c 	mrc	15, 0, r4, cr15, cr12, {1}
    9428:	e1a00006 	mov	r0, r6
    942c:	e3a01000 	mov	r1, #0
    9430:	ebffff1f 	bl	90b4 <gpio_write>
    9434:	ee1f3f3c 	mrc	15, 0, r3, cr15, cr12, {1}
    9438:	e0643003 	rsb	r3, r4, r3
    943c:	e1550003 	cmp	r5, r3
    9440:	8afffffb 	bhi	9434 <sw_uart_putc+0x20>
    9444:	e1a08085 	lsl	r8, r5, #1
    9448:	e1a00006 	mov	r0, r6
    944c:	e2071001 	and	r1, r7, #1
    9450:	ebffff17 	bl	90b4 <gpio_write>
    9454:	ee1f3f3c 	mrc	15, 0, r3, cr15, cr12, {1}
    9458:	e0643003 	rsb	r3, r4, r3
    945c:	e1580003 	cmp	r8, r3
    9460:	8afffffb 	bhi	9454 <sw_uart_putc+0x40>
    9464:	e0888005 	add	r8, r8, r5
    9468:	e1a00006 	mov	r0, r6
    946c:	e2071002 	and	r1, r7, #2
    9470:	ebffff0f 	bl	90b4 <gpio_write>
    9474:	ee1f3f3c 	mrc	15, 0, r3, cr15, cr12, {1}
    9478:	e0643003 	rsb	r3, r4, r3
    947c:	e1580003 	cmp	r8, r3
    9480:	8afffffb 	bhi	9474 <sw_uart_putc+0x60>
    9484:	e0888005 	add	r8, r8, r5
    9488:	e1a00006 	mov	r0, r6
    948c:	e2071004 	and	r1, r7, #4
    9490:	ebffff07 	bl	90b4 <gpio_write>
    9494:	ee1f3f3c 	mrc	15, 0, r3, cr15, cr12, {1}
    9498:	e0643003 	rsb	r3, r4, r3
    949c:	e1580003 	cmp	r8, r3
    94a0:	8afffffb 	bhi	9494 <sw_uart_putc+0x80>
    94a4:	e0888005 	add	r8, r8, r5
    94a8:	e1a00006 	mov	r0, r6
    94ac:	e2071008 	and	r1, r7, #8
    94b0:	ebfffeff 	bl	90b4 <gpio_write>
    94b4:	ee1f3f3c 	mrc	15, 0, r3, cr15, cr12, {1}
    94b8:	e0643003 	rsb	r3, r4, r3
    94bc:	e1580003 	cmp	r8, r3
    94c0:	8afffffb 	bhi	94b4 <sw_uart_putc+0xa0>
    94c4:	e0888005 	add	r8, r8, r5
    94c8:	e1a00006 	mov	r0, r6
    94cc:	e2071010 	and	r1, r7, #16
    94d0:	ebfffef7 	bl	90b4 <gpio_write>
    94d4:	ee1f3f3c 	mrc	15, 0, r3, cr15, cr12, {1}
    94d8:	e0643003 	rsb	r3, r4, r3
    94dc:	e1580003 	cmp	r8, r3
    94e0:	8afffffb 	bhi	94d4 <sw_uart_putc+0xc0>
    94e4:	e0888005 	add	r8, r8, r5
    94e8:	e1a00006 	mov	r0, r6
    94ec:	e2071020 	and	r1, r7, #32
    94f0:	ebfffeef 	bl	90b4 <gpio_write>
    94f4:	ee1f3f3c 	mrc	15, 0, r3, cr15, cr12, {1}
    94f8:	e0643003 	rsb	r3, r4, r3
    94fc:	e1580003 	cmp	r8, r3
    9500:	8afffffb 	bhi	94f4 <sw_uart_putc+0xe0>
    9504:	e0888005 	add	r8, r8, r5
    9508:	e1a00006 	mov	r0, r6
    950c:	e2071040 	and	r1, r7, #64	; 0x40
    9510:	ebfffee7 	bl	90b4 <gpio_write>
    9514:	ee1f3f3c 	mrc	15, 0, r3, cr15, cr12, {1}
    9518:	e0643003 	rsb	r3, r4, r3
    951c:	e1580003 	cmp	r8, r3
    9520:	8afffffb 	bhi	9514 <sw_uart_putc+0x100>
    9524:	e0888005 	add	r8, r8, r5
    9528:	e1a00006 	mov	r0, r6
    952c:	e2071080 	and	r1, r7, #128	; 0x80
    9530:	ebfffedf 	bl	90b4 <gpio_write>
    9534:	ee1f3f3c 	mrc	15, 0, r3, cr15, cr12, {1}
    9538:	e0643003 	rsb	r3, r4, r3
    953c:	e1580003 	cmp	r8, r3
    9540:	8afffffb 	bhi	9534 <sw_uart_putc+0x120>
    9544:	e0885005 	add	r5, r8, r5
    9548:	e1a00006 	mov	r0, r6
    954c:	e3a01001 	mov	r1, #1
    9550:	ebfffed7 	bl	90b4 <gpio_write>
    9554:	ee1f3f3c 	mrc	15, 0, r3, cr15, cr12, {1}
    9558:	e0643003 	rsb	r3, r4, r3
    955c:	e1550003 	cmp	r5, r3
    9560:	8afffffb 	bhi	9554 <sw_uart_putc+0x140>
    9564:	e8bd81f0 	pop	{r4, r5, r6, r7, r8, pc}

00009568 <sw_uart_getc_timeout>:
    9568:	e92d43f8 	push	{r3, r4, r5, r6, r7, r8, r9, lr}
    956c:	e1a09000 	mov	r9, r0
    9570:	e5d07001 	ldrb	r7, [r0, #1]
    9574:	e1a05007 	mov	r5, r7
    9578:	e1a06001 	mov	r6, r1
    957c:	ebfffe1a 	bl	8dec <timer_get_usec_raw>
    9580:	e1a04000 	mov	r4, r0
    9584:	e1a00005 	mov	r0, r5
    9588:	ebfffeb6 	bl	9068 <gpio_read>
    958c:	e3500000 	cmp	r0, #0
    9590:	0a000005 	beq	95ac <sw_uart_getc_timeout+0x44>
    9594:	ebfffe14 	bl	8dec <timer_get_usec_raw>
    9598:	e0640000 	rsb	r0, r4, r0
    959c:	e1560000 	cmp	r6, r0
    95a0:	2afffff7 	bcs	9584 <sw_uart_getc_timeout+0x1c>
    95a4:	e3a03000 	mov	r3, #0
    95a8:	ea000000 	b	95b0 <sw_uart_getc_timeout+0x48>
    95ac:	e3a03001 	mov	r3, #1
    95b0:	e3530000 	cmp	r3, #0
    95b4:	0a000059 	beq	9720 <sw_uart_getc_timeout+0x1b8>
    95b8:	ee1f8f3c 	mrc	15, 0, r8, cr15, cr12, {1}
    95bc:	e5994008 	ldr	r4, [r9, #8]
    95c0:	e08420a4 	add	r2, r4, r4, lsr #1
    95c4:	ee1f3f3c 	mrc	15, 0, r3, cr15, cr12, {1}
    95c8:	e0683003 	rsb	r3, r8, r3
    95cc:	e1520003 	cmp	r2, r3
    95d0:	8afffffb 	bhi	95c4 <sw_uart_getc_timeout+0x5c>
    95d4:	e0888004 	add	r8, r8, r4
    95d8:	e1a00007 	mov	r0, r7
    95dc:	ebfffea1 	bl	9068 <gpio_read>
    95e0:	e1a09750 	asr	r9, r0, r7
    95e4:	ee1f3f3c 	mrc	15, 0, r3, cr15, cr12, {1}
    95e8:	e0683003 	rsb	r3, r8, r3
    95ec:	e1540003 	cmp	r4, r3
    95f0:	8afffffb 	bhi	95e4 <sw_uart_getc_timeout+0x7c>
    95f4:	e0888004 	add	r8, r8, r4
    95f8:	e1a00007 	mov	r0, r7
    95fc:	ebfffe99 	bl	9068 <gpio_read>
    9600:	e1a00750 	asr	r0, r0, r7
    9604:	e1899080 	orr	r9, r9, r0, lsl #1
    9608:	ee1f3f3c 	mrc	15, 0, r3, cr15, cr12, {1}
    960c:	e0683003 	rsb	r3, r8, r3
    9610:	e1540003 	cmp	r4, r3
    9614:	8afffffb 	bhi	9608 <sw_uart_getc_timeout+0xa0>
    9618:	e0888004 	add	r8, r8, r4
    961c:	e1a00007 	mov	r0, r7
    9620:	ebfffe90 	bl	9068 <gpio_read>
    9624:	e1a00750 	asr	r0, r0, r7
    9628:	e1899100 	orr	r9, r9, r0, lsl #2
    962c:	ee1f3f3c 	mrc	15, 0, r3, cr15, cr12, {1}
    9630:	e0683003 	rsb	r3, r8, r3
    9634:	e1540003 	cmp	r4, r3
    9638:	8afffffb 	bhi	962c <sw_uart_getc_timeout+0xc4>
    963c:	e0888004 	add	r8, r8, r4
    9640:	e1a00007 	mov	r0, r7
    9644:	ebfffe87 	bl	9068 <gpio_read>
    9648:	e1a00750 	asr	r0, r0, r7
    964c:	e1899180 	orr	r9, r9, r0, lsl #3
    9650:	ee1f3f3c 	mrc	15, 0, r3, cr15, cr12, {1}
    9654:	e0683003 	rsb	r3, r8, r3
    9658:	e1540003 	cmp	r4, r3
    965c:	8afffffb 	bhi	9650 <sw_uart_getc_timeout+0xe8>
    9660:	e0888004 	add	r8, r8, r4
    9664:	e1a00007 	mov	r0, r7
    9668:	ebfffe7e 	bl	9068 <gpio_read>
    966c:	e1a00750 	asr	r0, r0, r7
    9670:	e1899200 	orr	r9, r9, r0, lsl #4
    9674:	ee1f3f3c 	mrc	15, 0, r3, cr15, cr12, {1}
    9678:	e0683003 	rsb	r3, r8, r3
    967c:	e1540003 	cmp	r4, r3
    9680:	8afffffb 	bhi	9674 <sw_uart_getc_timeout+0x10c>
    9684:	e0888004 	add	r8, r8, r4
    9688:	e1a00007 	mov	r0, r7
    968c:	ebfffe75 	bl	9068 <gpio_read>
    9690:	e1a00750 	asr	r0, r0, r7
    9694:	e1899280 	orr	r9, r9, r0, lsl #5
    9698:	ee1f3f3c 	mrc	15, 0, r3, cr15, cr12, {1}
    969c:	e0683003 	rsb	r3, r8, r3
    96a0:	e1540003 	cmp	r4, r3
    96a4:	8afffffb 	bhi	9698 <sw_uart_getc_timeout+0x130>
    96a8:	e0888004 	add	r8, r8, r4
    96ac:	e1a00007 	mov	r0, r7
    96b0:	ebfffe6c 	bl	9068 <gpio_read>
    96b4:	e1a00750 	asr	r0, r0, r7
    96b8:	e1899300 	orr	r9, r9, r0, lsl #6
    96bc:	ee1f3f3c 	mrc	15, 0, r3, cr15, cr12, {1}
    96c0:	e0683003 	rsb	r3, r8, r3
    96c4:	e1540003 	cmp	r4, r3
    96c8:	8afffffb 	bhi	96bc <sw_uart_getc_timeout+0x154>
    96cc:	e1a00007 	mov	r0, r7
    96d0:	ebfffe64 	bl	9068 <gpio_read>
    96d4:	e1a00750 	asr	r0, r0, r7
    96d8:	e1899380 	orr	r9, r9, r0, lsl #7
    96dc:	ebfffdc2 	bl	8dec <timer_get_usec_raw>
    96e0:	e1a04000 	mov	r4, r0
    96e4:	e1a00005 	mov	r0, r5
    96e8:	ebfffe5e 	bl	9068 <gpio_read>
    96ec:	e3500000 	cmp	r0, #0
    96f0:	0a000005 	beq	970c <sw_uart_getc_timeout+0x1a4>
    96f4:	ebfffdbc 	bl	8dec <timer_get_usec_raw>
    96f8:	e0640000 	rsb	r0, r4, r0
    96fc:	e1560000 	cmp	r6, r0
    9700:	2afffff7 	bcs	96e4 <sw_uart_getc_timeout+0x17c>
    9704:	e3a03000 	mov	r3, #0
    9708:	ea000000 	b	9710 <sw_uart_getc_timeout+0x1a8>
    970c:	e3a03001 	mov	r3, #1
    9710:	e3530000 	cmp	r3, #0
    9714:	0a000003 	beq	9728 <sw_uart_getc_timeout+0x1c0>
    9718:	e1a00009 	mov	r0, r9
    971c:	e8bd83f8 	pop	{r3, r4, r5, r6, r7, r8, r9, pc}
    9720:	e3e00000 	mvn	r0, #0
    9724:	e8bd83f8 	pop	{r3, r4, r5, r6, r7, r8, r9, pc}
    9728:	e3e00000 	mvn	r0, #0
    972c:	e8bd83f8 	pop	{r3, r4, r5, r6, r7, r8, r9, pc}

00009730 <sw_uart_gets_until>:
    9730:	e92d47f0 	push	{r4, r5, r6, r7, r8, r9, sl, lr}
    9734:	e1a08000 	mov	r8, r0
    9738:	e1a06001 	mov	r6, r1
    973c:	e1a09003 	mov	r9, r3
    9740:	e59da020 	ldr	sl, [sp, #32]
    9744:	e3520000 	cmp	r2, #0
    9748:	1a000006 	bne	9768 <sw_uart_gets_until+0x38>
    974c:	ebfffbf7 	bl	8730 <rpi_reset_putc>
    9750:	e59f005c 	ldr	r0, [pc, #92]	; 97b4 <sw_uart_gets_until+0x84>
    9754:	e59f105c 	ldr	r1, [pc, #92]	; 97b8 <sw_uart_gets_until+0x88>
    9758:	e59f205c 	ldr	r2, [pc, #92]	; 97bc <sw_uart_gets_until+0x8c>
    975c:	e3a0306d 	mov	r3, #109	; 0x6d
    9760:	ebfffbd7 	bl	86c4 <printk>
    9764:	ebfffd46 	bl	8c84 <clean_reboot>
    9768:	e3a04000 	mov	r4, #0
    976c:	e5c14000 	strb	r4, [r1]
    9770:	e2427001 	sub	r7, r2, #1
    9774:	ea000007 	b	9798 <sw_uart_gets_until+0x68>
    9778:	e1a00008 	mov	r0, r8
    977c:	e1a0100a 	mov	r1, sl
    9780:	ebffff78 	bl	9568 <sw_uart_getc_timeout>
    9784:	e6ef0070 	uxtb	r0, r0
    9788:	e1500009 	cmp	r0, r9
    978c:	0a000004 	beq	97a4 <sw_uart_gets_until+0x74>
    9790:	e7c60005 	strb	r0, [r6, r5]
    9794:	e2844001 	add	r4, r4, #1
    9798:	e1a05004 	mov	r5, r4
    979c:	e1540007 	cmp	r4, r7
    97a0:	3afffff4 	bcc	9778 <sw_uart_gets_until+0x48>
    97a4:	e3a03000 	mov	r3, #0
    97a8:	e7c63005 	strb	r3, [r6, r5]
    97ac:	e1a00004 	mov	r0, r4
    97b0:	e8bd87f0 	pop	{r4, r5, r6, r7, r8, r9, sl, pc}
    97b4:	0000a2a0 	andeq	sl, r0, r0, lsr #5
    97b8:	0000a2bc 			; <UNDEFINED> instruction: 0x0000a2bc
    97bc:	0000a228 	andeq	sl, r0, r8, lsr #4

000097c0 <sw_uart_gets_timeout>:
    97c0:	e92d41f0 	push	{r4, r5, r6, r7, r8, lr}
    97c4:	e1a07000 	mov	r7, r0
    97c8:	e1a05001 	mov	r5, r1
    97cc:	e1a08003 	mov	r8, r3
    97d0:	e3520000 	cmp	r2, #0
    97d4:	1a000006 	bne	97f4 <sw_uart_gets_timeout+0x34>
    97d8:	ebfffbd4 	bl	8730 <rpi_reset_putc>
    97dc:	e59f004c 	ldr	r0, [pc, #76]	; 9830 <sw_uart_gets_timeout+0x70>
    97e0:	e59f104c 	ldr	r1, [pc, #76]	; 9834 <sw_uart_gets_timeout+0x74>
    97e4:	e59f204c 	ldr	r2, [pc, #76]	; 9838 <sw_uart_gets_timeout+0x78>
    97e8:	e3a03083 	mov	r3, #131	; 0x83
    97ec:	ebfffbb4 	bl	86c4 <printk>
    97f0:	ebfffd23 	bl	8c84 <clean_reboot>
    97f4:	e3a04000 	mov	r4, #0
    97f8:	e5c14000 	strb	r4, [r1]
    97fc:	e2426001 	sub	r6, r2, #1
    9800:	ea000004 	b	9818 <sw_uart_gets_timeout+0x58>
    9804:	e1a00007 	mov	r0, r7
    9808:	e1a01008 	mov	r1, r8
    980c:	ebffff55 	bl	9568 <sw_uart_getc_timeout>
    9810:	e7c50004 	strb	r0, [r5, r4]
    9814:	e2844001 	add	r4, r4, #1
    9818:	e1540006 	cmp	r4, r6
    981c:	3afffff8 	bcc	9804 <sw_uart_gets_timeout+0x44>
    9820:	e3a03000 	mov	r3, #0
    9824:	e7c53004 	strb	r3, [r5, r4]
    9828:	e1a00004 	mov	r0, r4
    982c:	e8bd81f0 	pop	{r4, r5, r6, r7, r8, pc}
    9830:	0000a2a0 	andeq	sl, r0, r0, lsr #5
    9834:	0000a2bc 			; <UNDEFINED> instruction: 0x0000a2bc
    9838:	0000a23c 	andeq	sl, r0, ip, lsr r2

0000983c <sw_uart_init_helper>:
    983c:	e92d41f0 	push	{r4, r5, r6, r7, r8, lr}
    9840:	e1a04000 	mov	r4, r0
    9844:	e1a06001 	mov	r6, r1
    9848:	e1a08002 	mov	r8, r2
    984c:	e1a05003 	mov	r5, r3
    9850:	e59d7018 	ldr	r7, [sp, #24]
    9854:	e1a00001 	mov	r0, r1
    9858:	ebfffd7e 	bl	8e58 <gpio_set_output>
    985c:	e1a00008 	mov	r0, r8
    9860:	ebfffdcd 	bl	8f9c <gpio_set_input>
    9864:	e3a03001 	mov	r3, #1
    9868:	ee0f3f1c 	mcr	15, 0, r3, cr15, cr12, {0}
    986c:	e1a00006 	mov	r0, r6
    9870:	e3a01001 	mov	r1, #1
    9874:	ebfffe0e 	bl	90b4 <gpio_write>
    9878:	e0020795 	mul	r2, r5, r7
    987c:	e59f3068 	ldr	r3, [pc, #104]	; 98ec <sw_uart_init_helper+0xb0>
    9880:	e0653003 	rsb	r3, r5, r3
    9884:	e1530002 	cmp	r3, r2
    9888:	8a000005 	bhi	98a4 <sw_uart_init_helper+0x68>
    988c:	e59f3058 	ldr	r3, [pc, #88]	; 98ec <sw_uart_init_helper+0xb0>
    9890:	e0853003 	add	r3, r5, r3
    9894:	e1530002 	cmp	r3, r2
    9898:	2a000003 	bcs	98ac <sw_uart_init_helper+0x70>
    989c:	e3a03000 	mov	r3, #0
    98a0:	ea000002 	b	98b0 <sw_uart_init_helper+0x74>
    98a4:	e3a03000 	mov	r3, #0
    98a8:	ea000000 	b	98b0 <sw_uart_init_helper+0x74>
    98ac:	e3a03001 	mov	r3, #1
    98b0:	e3530000 	cmp	r3, #0
    98b4:	1a000006 	bne	98d4 <sw_uart_init_helper+0x98>
    98b8:	ebfffb9c 	bl	8730 <rpi_reset_putc>
    98bc:	e59f002c 	ldr	r0, [pc, #44]	; 98f0 <sw_uart_init_helper+0xb4>
    98c0:	e59f102c 	ldr	r1, [pc, #44]	; 98f4 <sw_uart_init_helper+0xb8>
    98c4:	e59f202c 	ldr	r2, [pc, #44]	; 98f8 <sw_uart_init_helper+0xbc>
    98c8:	e3a0309d 	mov	r3, #157	; 0x9d
    98cc:	ebfffb7c 	bl	86c4 <printk>
    98d0:	ebfffceb 	bl	8c84 <clean_reboot>
    98d4:	e5c46000 	strb	r6, [r4]
    98d8:	e5c48001 	strb	r8, [r4, #1]
    98dc:	e5845004 	str	r5, [r4, #4]
    98e0:	e5847008 	str	r7, [r4, #8]
    98e4:	e1a00004 	mov	r0, r4
    98e8:	e8bd81f0 	pop	{r4, r5, r6, r7, r8, pc}
    98ec:	29b92700 	ldmibcs	r9!, {r8, r9, sl, sp}
    98f0:	0000a2d0 	ldrdeq	sl, [r0], -r0
    98f4:	0000a2bc 			; <UNDEFINED> instruction: 0x0000a2bc
    98f8:	0000a254 	andeq	sl, r0, r4, asr r2

000098fc <sw_uart_getc>:
    98fc:	e92d4008 	push	{r3, lr}
    9900:	e3e01000 	mvn	r1, #0
    9904:	ebffff17 	bl	9568 <sw_uart_getc_timeout>
    9908:	e3500000 	cmp	r0, #0
    990c:	a8bd8008 	popge	{r3, pc}
    9910:	ebfffb86 	bl	8730 <rpi_reset_putc>
    9914:	e59f0010 	ldr	r0, [pc, #16]	; 992c <sw_uart_getc+0x30>
    9918:	e59f1010 	ldr	r1, [pc, #16]	; 9930 <sw_uart_getc+0x34>
    991c:	e59f2010 	ldr	r2, [pc, #16]	; 9934 <sw_uart_getc+0x38>
    9920:	e3a030ac 	mov	r3, #172	; 0xac
    9924:	ebfffb66 	bl	86c4 <printk>
    9928:	ebfffcd5 	bl	8c84 <clean_reboot>
    992c:	0000a314 	andeq	sl, r0, r4, lsl r3
    9930:	0000a2bc 			; <UNDEFINED> instruction: 0x0000a2bc
    9934:	0000a268 	andeq	sl, r0, r8, ror #4

00009938 <sw_uart_putk>:
    9938:	e92d4038 	push	{r3, r4, r5, lr}
    993c:	e1a05000 	mov	r5, r0
    9940:	e1a04001 	mov	r4, r1
    9944:	ea000002 	b	9954 <sw_uart_putk+0x1c>
    9948:	e1a00005 	mov	r0, r5
    994c:	ebfffeb0 	bl	9414 <sw_uart_putc>
    9950:	e2844001 	add	r4, r4, #1
    9954:	e5d41000 	ldrb	r1, [r4]
    9958:	e3510000 	cmp	r1, #0
    995c:	1afffff9 	bne	9948 <sw_uart_putk+0x10>
    9960:	e8bd8038 	pop	{r3, r4, r5, pc}

00009964 <sw_uart_printk>:
    9964:	e92d000e 	push	{r1, r2, r3}
    9968:	e92d4030 	push	{r4, r5, lr}
    996c:	e24dde1d 	sub	sp, sp, #464	; 0x1d0
    9970:	e1a05000 	mov	r5, r0
    9974:	e28d3e1e 	add	r3, sp, #480	; 0x1e0
    9978:	e58d3000 	str	r3, [sp]
    997c:	e28d0004 	add	r0, sp, #4
    9980:	e3a01f73 	mov	r1, #460	; 0x1cc
    9984:	e59d21dc 	ldr	r2, [sp, #476]	; 0x1dc
    9988:	ebfffc1b 	bl	89fc <va_printk>
    998c:	e1a04000 	mov	r4, r0
    9990:	e59f3040 	ldr	r3, [pc, #64]	; 99d8 <sw_uart_printk+0x74>
    9994:	e1500003 	cmp	r0, r3
    9998:	9a000006 	bls	99b8 <sw_uart_printk+0x54>
    999c:	ebfffb63 	bl	8730 <rpi_reset_putc>
    99a0:	e59f0034 	ldr	r0, [pc, #52]	; 99dc <sw_uart_printk+0x78>
    99a4:	e59f1034 	ldr	r1, [pc, #52]	; 99e0 <sw_uart_printk+0x7c>
    99a8:	e59f2034 	ldr	r2, [pc, #52]	; 99e4 <sw_uart_printk+0x80>
    99ac:	e3a030c0 	mov	r3, #192	; 0xc0
    99b0:	ebfffb43 	bl	86c4 <printk>
    99b4:	ebfffcb2 	bl	8c84 <clean_reboot>
    99b8:	e1a00005 	mov	r0, r5
    99bc:	e28d1004 	add	r1, sp, #4
    99c0:	ebffffdc 	bl	9938 <sw_uart_putk>
    99c4:	e1a00004 	mov	r0, r4
    99c8:	e28dde1d 	add	sp, sp, #464	; 0x1d0
    99cc:	e8bd4030 	pop	{r4, r5, lr}
    99d0:	e28dd00c 	add	sp, sp, #12
    99d4:	e12fff1e 	bx	lr
    99d8:	000001ca 	andeq	r0, r0, sl, asr #3
    99dc:	0000a34c 	andeq	sl, r0, ip, asr #6
    99e0:	0000a2bc 			; <UNDEFINED> instruction: 0x0000a2bc
    99e4:	0000a278 	andeq	sl, r0, r8, ror r2

000099e8 <sw_uart_gets_until_blk>:
    99e8:	e52de004 	push	{lr}		; (str lr, [sp, #-4]!)
    99ec:	e24dd00c 	sub	sp, sp, #12
    99f0:	e3e0c000 	mvn	ip, #0
    99f4:	e58dc000 	str	ip, [sp]
    99f8:	ebffff4c 	bl	9730 <sw_uart_gets_until>
    99fc:	e3500000 	cmp	r0, #0
    9a00:	aa000006 	bge	9a20 <sw_uart_gets_until_blk+0x38>
    9a04:	ebfffb49 	bl	8730 <rpi_reset_putc>
    9a08:	e59f0018 	ldr	r0, [pc, #24]	; 9a28 <sw_uart_gets_until_blk+0x40>
    9a0c:	e59f1018 	ldr	r1, [pc, #24]	; 9a2c <sw_uart_gets_until_blk+0x44>
    9a10:	e59f2018 	ldr	r2, [pc, #24]	; 9a30 <sw_uart_gets_until_blk+0x48>
    9a14:	e3a030c8 	mov	r3, #200	; 0xc8
    9a18:	ebfffb29 	bl	86c4 <printk>
    9a1c:	ebfffc98 	bl	8c84 <clean_reboot>
    9a20:	e28dd00c 	add	sp, sp, #12
    9a24:	e49df004 	pop	{pc}		; (ldr pc, [sp], #4)
    9a28:	0000a314 	andeq	sl, r0, r4, lsl r3
    9a2c:	0000a2bc 			; <UNDEFINED> instruction: 0x0000a2bc
    9a30:	0000a288 	andeq	sl, r0, r8, lsl #5

00009a34 <uart_init>:
    9a34:	e92d4038 	push	{r3, r4, r5, lr}
    9a38:	eb0000d2 	bl	9d88 <dev_barrier>
    9a3c:	e3a0000e 	mov	r0, #14
    9a40:	e3a01002 	mov	r1, #2
    9a44:	ebfffdb8 	bl	912c <gpio_set_function>
    9a48:	e3a0000f 	mov	r0, #15
    9a4c:	e3a01002 	mov	r1, #2
    9a50:	ebfffdb5 	bl	912c <gpio_set_function>
    9a54:	eb0000cb 	bl	9d88 <dev_barrier>
    9a58:	e59f4068 	ldr	r4, [pc, #104]	; 9ac8 <uart_init+0x94>
    9a5c:	e5945000 	ldr	r5, [r4]
    9a60:	e1a00005 	mov	r0, r5
    9a64:	eb0000d9 	bl	9dd0 <get32>
    9a68:	e3801001 	orr	r1, r0, #1
    9a6c:	e1a00005 	mov	r0, r5
    9a70:	eb0000ca 	bl	9da0 <put32>
    9a74:	eb0000c3 	bl	9d88 <dev_barrier>
    9a78:	e5940004 	ldr	r0, [r4, #4]
    9a7c:	e3a01000 	mov	r1, #0
    9a80:	eb0000c6 	bl	9da0 <put32>
    9a84:	e5940008 	ldr	r0, [r4, #8]
    9a88:	e3a01000 	mov	r1, #0
    9a8c:	eb0000c3 	bl	9da0 <put32>
    9a90:	e594000c 	ldr	r0, [r4, #12]
    9a94:	e3a01006 	mov	r1, #6
    9a98:	eb0000c0 	bl	9da0 <put32>
    9a9c:	e5940010 	ldr	r0, [r4, #16]
    9aa0:	e3a01003 	mov	r1, #3
    9aa4:	eb0000bd 	bl	9da0 <put32>
    9aa8:	e5940014 	ldr	r0, [r4, #20]
    9aac:	e59f1018 	ldr	r1, [pc, #24]	; 9acc <uart_init+0x98>
    9ab0:	eb0000ba 	bl	9da0 <put32>
    9ab4:	e5940004 	ldr	r0, [r4, #4]
    9ab8:	e3a01003 	mov	r1, #3
    9abc:	eb0000b7 	bl	9da0 <put32>
    9ac0:	eb0000b0 	bl	9d88 <dev_barrier>
    9ac4:	e8bd8038 	pop	{r3, r4, r5, pc}
    9ac8:	00009f7c 	andeq	r9, r0, ip, ror pc
    9acc:	0000010e 	andeq	r0, r0, lr, lsl #2

00009ad0 <uart_can_getc>:
    9ad0:	e92d4008 	push	{r3, lr}
    9ad4:	e59f300c 	ldr	r3, [pc, #12]	; 9ae8 <uart_can_getc+0x18>
    9ad8:	e5930018 	ldr	r0, [r3, #24]
    9adc:	eb0000bb 	bl	9dd0 <get32>
    9ae0:	e2000001 	and	r0, r0, #1
    9ae4:	e8bd8008 	pop	{r3, pc}
    9ae8:	00009f7c 	andeq	r9, r0, ip, ror pc

00009aec <uart_getc>:
    9aec:	e92d4008 	push	{r3, lr}
    9af0:	ebfffff6 	bl	9ad0 <uart_can_getc>
    9af4:	e3500000 	cmp	r0, #0
    9af8:	0afffffc 	beq	9af0 <uart_getc+0x4>
    9afc:	e59f300c 	ldr	r3, [pc, #12]	; 9b10 <uart_getc+0x24>
    9b00:	e593001c 	ldr	r0, [r3, #28]
    9b04:	eb0000b1 	bl	9dd0 <get32>
    9b08:	e6ef0070 	uxtb	r0, r0
    9b0c:	e8bd8008 	pop	{r3, pc}
    9b10:	00009f7c 	andeq	r9, r0, ip, ror pc

00009b14 <uart_can_putc>:
    9b14:	e92d4008 	push	{r3, lr}
    9b18:	e59f300c 	ldr	r3, [pc, #12]	; 9b2c <uart_can_putc+0x18>
    9b1c:	e5930018 	ldr	r0, [r3, #24]
    9b20:	eb0000aa 	bl	9dd0 <get32>
    9b24:	e2000020 	and	r0, r0, #32
    9b28:	e8bd8008 	pop	{r3, pc}
    9b2c:	00009f7c 	andeq	r9, r0, ip, ror pc

00009b30 <uart_putc>:
    9b30:	e92d4010 	push	{r4, lr}
    9b34:	e1a04000 	mov	r4, r0
    9b38:	ebfffff5 	bl	9b14 <uart_can_putc>
    9b3c:	e3500000 	cmp	r0, #0
    9b40:	0afffffc 	beq	9b38 <uart_putc+0x8>
    9b44:	e59f300c 	ldr	r3, [pc, #12]	; 9b58 <uart_putc+0x28>
    9b48:	e593001c 	ldr	r0, [r3, #28]
    9b4c:	e1a01004 	mov	r1, r4
    9b50:	eb000092 	bl	9da0 <put32>
    9b54:	e8bd8010 	pop	{r4, pc}
    9b58:	00009f7c 	andeq	r9, r0, ip, ror pc

00009b5c <uart_has_data>:
    9b5c:	e92d4008 	push	{r3, lr}
    9b60:	ebffffda 	bl	9ad0 <uart_can_getc>
    9b64:	e8bd8008 	pop	{r3, pc}

00009b68 <uart_getc_async>:
    9b68:	e92d4008 	push	{r3, lr}
    9b6c:	ebfffffa 	bl	9b5c <uart_has_data>
    9b70:	e3500000 	cmp	r0, #0
    9b74:	0a000001 	beq	9b80 <uart_getc_async+0x18>
    9b78:	ebffffdb 	bl	9aec <uart_getc>
    9b7c:	e8bd8008 	pop	{r3, pc}
    9b80:	e3e00000 	mvn	r0, #0
    9b84:	e8bd8008 	pop	{r3, pc}

00009b88 <int_init>:
    9b88:	e92d4008 	push	{r3, lr}
    9b8c:	e59f004c 	ldr	r0, [pc, #76]	; 9be0 <int_init+0x58>
    9b90:	e3e01000 	mvn	r1, #0
    9b94:	eb000083 	bl	9da8 <PUT32>
    9b98:	e59f0044 	ldr	r0, [pc, #68]	; 9be4 <int_init+0x5c>
    9b9c:	e3e01000 	mvn	r1, #0
    9ba0:	eb000080 	bl	9da8 <PUT32>
    9ba4:	eb000077 	bl	9d88 <dev_barrier>
    9ba8:	e59f3038 	ldr	r3, [pc, #56]	; 9be8 <int_init+0x60>
    9bac:	e59f0038 	ldr	r0, [pc, #56]	; 9bec <int_init+0x64>
    9bb0:	e0630000 	rsb	r0, r3, r0
    9bb4:	e1a00140 	asr	r0, r0, #2
    9bb8:	e3a03000 	mov	r3, #0
    9bbc:	e59fc024 	ldr	ip, [pc, #36]	; 9be8 <int_init+0x60>
    9bc0:	ea000003 	b	9bd4 <int_init+0x4c>
    9bc4:	e1a02103 	lsl	r2, r3, #2
    9bc8:	e79c1103 	ldr	r1, [ip, r3, lsl #2]
    9bcc:	e5821000 	str	r1, [r2]
    9bd0:	e2833001 	add	r3, r3, #1
    9bd4:	e1530000 	cmp	r3, r0
    9bd8:	3afffff9 	bcc	9bc4 <int_init+0x3c>
    9bdc:	e8bd8008 	pop	{r3, pc}
    9be0:	2000b21c 	andcs	fp, r0, ip, lsl r2
    9be4:	2000b220 	andcs	fp, r0, r0, lsr #4
    9be8:	00009e0c 	andeq	r9, r0, ip, lsl #28
    9bec:	00009e5c 	andeq	r9, r0, ip, asr lr

00009bf0 <fast_interrupt_vector>:
    9bf0:	e52de004 	push	{lr}		; (str lr, [sp, #-4]!)
    9bf4:	e24dd00c 	sub	sp, sp, #12
    9bf8:	e1a04000 	mov	r4, r0
    9bfc:	ebfffacb 	bl	8730 <rpi_reset_putc>
    9c00:	e59f301c 	ldr	r3, [pc, #28]	; 9c24 <fast_interrupt_vector+0x34>
    9c04:	e58d3000 	str	r3, [sp]
    9c08:	e58d4004 	str	r4, [sp, #4]
    9c0c:	e59f0014 	ldr	r0, [pc, #20]	; 9c28 <fast_interrupt_vector+0x38>
    9c10:	e59f1014 	ldr	r1, [pc, #20]	; 9c2c <fast_interrupt_vector+0x3c>
    9c14:	e59f2014 	ldr	r2, [pc, #20]	; 9c30 <fast_interrupt_vector+0x40>
    9c18:	e3a03020 	mov	r3, #32
    9c1c:	ebfffaa8 	bl	86c4 <printk>
    9c20:	ebfffc17 	bl	8c84 <clean_reboot>
    9c24:	0000a45c 	andeq	sl, r0, ip, asr r4
    9c28:	0000a400 	andeq	sl, r0, r0, lsl #8
    9c2c:	0000a43c 	andeq	sl, r0, ip, lsr r4
    9c30:	0000a370 	andeq	sl, r0, r0, ror r3

00009c34 <software_interrupt_vector>:
    9c34:	e52de004 	push	{lr}		; (str lr, [sp, #-4]!)
    9c38:	e24dd00c 	sub	sp, sp, #12
    9c3c:	e1a04000 	mov	r4, r0
    9c40:	ebfffaba 	bl	8730 <rpi_reset_putc>
    9c44:	e59f301c 	ldr	r3, [pc, #28]	; 9c68 <software_interrupt_vector+0x34>
    9c48:	e58d3000 	str	r3, [sp]
    9c4c:	e58d4004 	str	r4, [sp, #4]
    9c50:	e59f0014 	ldr	r0, [pc, #20]	; 9c6c <software_interrupt_vector+0x38>
    9c54:	e59f1014 	ldr	r1, [pc, #20]	; 9c70 <software_interrupt_vector+0x3c>
    9c58:	e59f2014 	ldr	r2, [pc, #20]	; 9c74 <software_interrupt_vector+0x40>
    9c5c:	e3a03025 	mov	r3, #37	; 0x25
    9c60:	ebfffa97 	bl	86c4 <printk>
    9c64:	ebfffc06 	bl	8c84 <clean_reboot>
    9c68:	0000a464 	andeq	sl, r0, r4, ror #8
    9c6c:	0000a400 	andeq	sl, r0, r0, lsl #8
    9c70:	0000a43c 	andeq	sl, r0, ip, lsr r4
    9c74:	0000a388 	andeq	sl, r0, r8, lsl #7

00009c78 <reset_vector>:
    9c78:	e52de004 	push	{lr}		; (str lr, [sp, #-4]!)
    9c7c:	e24dd00c 	sub	sp, sp, #12
    9c80:	e1a04000 	mov	r4, r0
    9c84:	ebfffaa9 	bl	8730 <rpi_reset_putc>
    9c88:	e59f301c 	ldr	r3, [pc, #28]	; 9cac <reset_vector+0x34>
    9c8c:	e58d3000 	str	r3, [sp]
    9c90:	e58d4004 	str	r4, [sp, #4]
    9c94:	e59f0014 	ldr	r0, [pc, #20]	; 9cb0 <reset_vector+0x38>
    9c98:	e59f1014 	ldr	r1, [pc, #20]	; 9cb4 <reset_vector+0x3c>
    9c9c:	e59f2014 	ldr	r2, [pc, #20]	; 9cb8 <reset_vector+0x40>
    9ca0:	e3a03028 	mov	r3, #40	; 0x28
    9ca4:	ebfffa86 	bl	86c4 <printk>
    9ca8:	ebfffbf5 	bl	8c84 <clean_reboot>
    9cac:	0000a474 	andeq	sl, r0, r4, ror r4
    9cb0:	0000a400 	andeq	sl, r0, r0, lsl #8
    9cb4:	0000a43c 	andeq	sl, r0, ip, lsr r4
    9cb8:	0000a3a4 	andeq	sl, r0, r4, lsr #7

00009cbc <undefined_instruction_vector>:
    9cbc:	e52de004 	push	{lr}		; (str lr, [sp, #-4]!)
    9cc0:	e24dd00c 	sub	sp, sp, #12
    9cc4:	e1a04000 	mov	r4, r0
    9cc8:	ebfffa98 	bl	8730 <rpi_reset_putc>
    9ccc:	e59f301c 	ldr	r3, [pc, #28]	; 9cf0 <undefined_instruction_vector+0x34>
    9cd0:	e58d3000 	str	r3, [sp]
    9cd4:	e58d4004 	str	r4, [sp, #4]
    9cd8:	e59f0014 	ldr	r0, [pc, #20]	; 9cf4 <undefined_instruction_vector+0x38>
    9cdc:	e59f1014 	ldr	r1, [pc, #20]	; 9cf8 <undefined_instruction_vector+0x3c>
    9ce0:	e59f2014 	ldr	r2, [pc, #20]	; 9cfc <undefined_instruction_vector+0x40>
    9ce4:	e3a0302b 	mov	r3, #43	; 0x2b
    9ce8:	ebfffa75 	bl	86c4 <printk>
    9cec:	ebfffbe4 	bl	8c84 <clean_reboot>
    9cf0:	0000a484 	andeq	sl, r0, r4, lsl #9
    9cf4:	0000a400 	andeq	sl, r0, r0, lsl #8
    9cf8:	0000a43c 	andeq	sl, r0, ip, lsr r4
    9cfc:	0000a3b4 			; <UNDEFINED> instruction: 0x0000a3b4

00009d00 <prefetch_abort_vector>:
    9d00:	e52de004 	push	{lr}		; (str lr, [sp, #-4]!)
    9d04:	e24dd00c 	sub	sp, sp, #12
    9d08:	e1a04000 	mov	r4, r0
    9d0c:	ebfffa87 	bl	8730 <rpi_reset_putc>
    9d10:	e59f301c 	ldr	r3, [pc, #28]	; 9d34 <prefetch_abort_vector+0x34>
    9d14:	e58d3000 	str	r3, [sp]
    9d18:	e58d4004 	str	r4, [sp, #4]
    9d1c:	e59f0014 	ldr	r0, [pc, #20]	; 9d38 <prefetch_abort_vector+0x38>
    9d20:	e59f1014 	ldr	r1, [pc, #20]	; 9d3c <prefetch_abort_vector+0x3c>
    9d24:	e59f2014 	ldr	r2, [pc, #20]	; 9d40 <prefetch_abort_vector+0x40>
    9d28:	e3a0302e 	mov	r3, #46	; 0x2e
    9d2c:	ebfffa64 	bl	86c4 <printk>
    9d30:	ebfffbd3 	bl	8c84 <clean_reboot>
    9d34:	0000a49c 	muleq	r0, ip, r4
    9d38:	0000a400 	andeq	sl, r0, r0, lsl #8
    9d3c:	0000a43c 	andeq	sl, r0, ip, lsr r4
    9d40:	0000a3d4 	ldrdeq	sl, [r0], -r4

00009d44 <data_abort_vector>:
    9d44:	e52de004 	push	{lr}		; (str lr, [sp, #-4]!)
    9d48:	e24dd00c 	sub	sp, sp, #12
    9d4c:	e1a04000 	mov	r4, r0
    9d50:	ebfffa76 	bl	8730 <rpi_reset_putc>
    9d54:	e59f301c 	ldr	r3, [pc, #28]	; 9d78 <data_abort_vector+0x34>
    9d58:	e58d3000 	str	r3, [sp]
    9d5c:	e58d4004 	str	r4, [sp, #4]
    9d60:	e59f0014 	ldr	r0, [pc, #20]	; 9d7c <data_abort_vector+0x38>
    9d64:	e59f1014 	ldr	r1, [pc, #20]	; 9d80 <data_abort_vector+0x3c>
    9d68:	e59f2014 	ldr	r2, [pc, #20]	; 9d84 <data_abort_vector+0x40>
    9d6c:	e3a03031 	mov	r3, #49	; 0x31
    9d70:	ebfffa53 	bl	86c4 <printk>
    9d74:	ebfffbc2 	bl	8c84 <clean_reboot>
    9d78:	0000a4ac 	andeq	sl, r0, ip, lsr #9
    9d7c:	0000a400 	andeq	sl, r0, r0, lsl #8
    9d80:	0000a43c 	andeq	sl, r0, ip, lsr r4
    9d84:	0000a3ec 	andeq	sl, r0, ip, ror #7

00009d88 <dev_barrier>:
    9d88:	ea000002 	b	9d98 <dsb>

00009d8c <dmb>:
    9d8c:	e3a00000 	mov	r0, #0
    9d90:	ee070fba 	mcr	15, 0, r0, cr7, cr10, {5}
    9d94:	e12fff1e 	bx	lr

00009d98 <dsb>:
    9d98:	ee070f9a 	mcr	15, 0, r0, cr7, cr10, {4}
    9d9c:	e12fff1e 	bx	lr

00009da0 <put32>:
    9da0:	e5801000 	str	r1, [r0]
    9da4:	e12fff1e 	bx	lr

00009da8 <PUT32>:
    9da8:	e5801000 	str	r1, [r0]
    9dac:	e12fff1e 	bx	lr

00009db0 <put16>:
    9db0:	e1c010b0 	strh	r1, [r0]
    9db4:	e12fff1e 	bx	lr

00009db8 <PUT16>:
    9db8:	e1c010b0 	strh	r1, [r0]
    9dbc:	e12fff1e 	bx	lr

00009dc0 <put8>:
    9dc0:	e5c01000 	strb	r1, [r0]
    9dc4:	e12fff1e 	bx	lr

00009dc8 <PUT8>:
    9dc8:	e5c01000 	strb	r1, [r0]
    9dcc:	e12fff1e 	bx	lr

00009dd0 <get32>:
    9dd0:	e5900000 	ldr	r0, [r0]
    9dd4:	e12fff1e 	bx	lr

00009dd8 <GET32>:
    9dd8:	e5900000 	ldr	r0, [r0]
    9ddc:	e12fff1e 	bx	lr

00009de0 <GETPC>:
    9de0:	e1a0000e 	mov	r0, lr
    9de4:	e12fff1e 	bx	lr

00009de8 <dummy>:
    9de8:	e12fff1e 	bx	lr

00009dec <system_enable_interrupts>:
    9dec:	e10f0000 	mrs	r0, CPSR
    9df0:	e3c00080 	bic	r0, r0, #128	; 0x80
    9df4:	e121f000 	msr	CPSR_c, r0
    9df8:	e12fff1e 	bx	lr

00009dfc <system_disable_interrupts>:
    9dfc:	e10f0000 	mrs	r0, CPSR
    9e00:	e3800080 	orr	r0, r0, #128	; 0x80
    9e04:	e121f000 	msr	CPSR_c, r0
    9e08:	e12fff1e 	bx	lr

00009e0c <_interrupt_table>:
    9e0c:	e59ff030 	ldr	pc, [pc, #48]	; 9e44 <_reset_asm>
    9e10:	e59ff030 	ldr	pc, [pc, #48]	; 9e48 <_undefined_instruction_asm>
    9e14:	e59ff030 	ldr	pc, [pc, #48]	; 9e4c <_software_interrupt_asm>
    9e18:	e59ff030 	ldr	pc, [pc, #48]	; 9e50 <_prefetch_abort_asm>
    9e1c:	e59ff030 	ldr	pc, [pc, #48]	; 9e54 <_data_abort_asm>
    9e20:	e59ff01c 	ldr	pc, [pc, #28]	; 9e44 <_reset_asm>
    9e24:	e59ff02c 	ldr	pc, [pc, #44]	; 9e58 <_interrupt_asm>

00009e28 <fast_interrupt_asm>:
    9e28:	e24ee004 	sub	lr, lr, #4
    9e2c:	e52de004 	push	{lr}		; (str lr, [sp, #-4]!)
    9e30:	e92d1fff 	push	{r0, r1, r2, r3, r4, r5, r6, r7, r8, r9, sl, fp, ip}
    9e34:	e1a0000e 	mov	r0, lr
    9e38:	ebffff6c 	bl	9bf0 <fast_interrupt_vector>
    9e3c:	e8bd1fff 	pop	{r0, r1, r2, r3, r4, r5, r6, r7, r8, r9, sl, fp, ip}
    9e40:	e8fd8000 	ldm	sp!, {pc}^

00009e44 <_reset_asm>:
    9e44:	00009ea4 	andeq	r9, r0, r4, lsr #29

00009e48 <_undefined_instruction_asm>:
    9e48:	00009eac 	andeq	r9, r0, ip, lsr #29

00009e4c <_software_interrupt_asm>:
    9e4c:	00009e78 	andeq	r9, r0, r8, ror lr

00009e50 <_prefetch_abort_asm>:
    9e50:	00009eb4 			; <UNDEFINED> instruction: 0x00009eb4

00009e54 <_data_abort_asm>:
    9e54:	00009ebc 			; <UNDEFINED> instruction: 0x00009ebc

00009e58 <_interrupt_asm>:
    9e58:	00009e5c 	andeq	r9, r0, ip, asr lr

00009e5c <_interrupt_table_end>:
    9e5c:	e3a0d409 	mov	sp, #150994944	; 0x9000000
    9e60:	e24ee004 	sub	lr, lr, #4
    9e64:	e92d5fff 	push	{r0, r1, r2, r3, r4, r5, r6, r7, r8, r9, sl, fp, ip, lr}
    9e68:	e1a0000e 	mov	r0, lr
    9e6c:	ebfff8f3 	bl	8240 <interrupt_vector>
    9e70:	e8bd5fff 	pop	{r0, r1, r2, r3, r4, r5, r6, r7, r8, r9, sl, fp, ip, lr}
    9e74:	e1b0f00e 	movs	pc, lr

00009e78 <software_interrupt_asm>:
    9e78:	e52de004 	push	{lr}		; (str lr, [sp, #-4]!)
    9e7c:	e92d1ffe 	push	{r1, r2, r3, r4, r5, r6, r7, r8, r9, sl, fp, ip}
    9e80:	e24ee004 	sub	lr, lr, #4
    9e84:	e1a0200e 	mov	r2, lr
    9e88:	e1a01000 	mov	r1, r0
    9e8c:	e1a0000e 	mov	r0, lr
    9e90:	eb000003 	bl	9ea4 <reset_asm>
    9e94:	e8bd1ffe 	pop	{r1, r2, r3, r4, r5, r6, r7, r8, r9, sl, fp, ip}
    9e98:	e49de004 	pop	{lr}		; (ldr lr, [sp], #4)
    9e9c:	e8fd8000 	ldm	sp!, {pc}^
    9ea0:	e1b0f00e 	movs	pc, lr

00009ea4 <reset_asm>:
    9ea4:	e24ee004 	sub	lr, lr, #4
    9ea8:	ebffff72 	bl	9c78 <reset_vector>

00009eac <undefined_instruction_asm>:
    9eac:	e24ee004 	sub	lr, lr, #4
    9eb0:	ebffff81 	bl	9cbc <undefined_instruction_vector>

00009eb4 <prefetch_abort_asm>:
    9eb4:	e24ee004 	sub	lr, lr, #4
    9eb8:	ebffff90 	bl	9d00 <prefetch_abort_vector>

00009ebc <data_abort_asm>:
    9ebc:	e24ee004 	sub	lr, lr, #4
    9ec0:	ebffff9f 	bl	9d44 <data_abort_vector>

00009ec4 <cb_new>:
    9ec4:	e92d4008 	push	{r3, lr}
    9ec8:	e3a00409 	mov	r0, #150994944	; 0x9000000
    9ecc:	e3a01000 	mov	r1, #0
    9ed0:	e3a02004 	mov	r2, #4
    9ed4:	ebfff9f2 	bl	86a4 <memset>
    9ed8:	e3a00409 	mov	r0, #150994944	; 0x9000000
    9edc:	e59f3004 	ldr	r3, [pc, #4]	; 9ee8 <cb_new+0x24>
    9ee0:	e5803000 	str	r3, [r0]
    9ee4:	e8bd8008 	pop	{r3, pc}
    9ee8:	12345678 	eorsne	r5, r4, #120, 12	; 0x7800000

00009eec <cb_get_block>:
    9eec:	e3a03409 	mov	r3, #150994944	; 0x9000000
    9ef0:	e5932000 	ldr	r2, [r3]
    9ef4:	e59f3014 	ldr	r3, [pc, #20]	; 9f10 <cb_get_block+0x24>
    9ef8:	e1520003 	cmp	r2, r3
    9efc:	0a000001 	beq	9f08 <cb_get_block+0x1c>
    9f00:	e3a00000 	mov	r0, #0
    9f04:	e12fff1e 	bx	lr
    9f08:	e3a00409 	mov	r0, #150994944	; 0x9000000
    9f0c:	e12fff1e 	bx	lr
    9f10:	12345678 	eorsne	r5, r4, #120, 12	; 0x7800000

Disassembly of section .data:

00009f14 <rpi_putchar>:
    9f14:	0000871c 	andeq	r8, r0, ip, lsl r7

00009f18 <putk>:
    9f18:	00008758 	andeq	r8, r0, r8, asr r7

00009f1c <GPFSEL0>:
    9f1c:	20200000 	eorcs	r0, r0, r0

00009f20 <GPFSEL1>:
    9f20:	20200004 	eorcs	r0, r0, r4

00009f24 <GPFSEL2>:
    9f24:	20200008 	eorcs	r0, r0, r8

00009f28 <GPFSEL3>:
    9f28:	2020000c 	eorcs	r0, r0, ip

00009f2c <GPFSEL4>:
    9f2c:	20200010 	eorcs	r0, r0, r0, lsl r0

00009f30 <GPFSEL5>:
    9f30:	20200014 	eorcs	r0, r0, r4, lsl r0

00009f34 <GPSET0>:
    9f34:	2020001c 	eorcs	r0, r0, ip, lsl r0

00009f38 <GPSET1>:
    9f38:	20200020 	eorcs	r0, r0, r0, lsr #32

00009f3c <GPCLR0>:
    9f3c:	20200028 	eorcs	r0, r0, r8, lsr #32

00009f40 <GPCLR1>:
    9f40:	2020002c 	eorcs	r0, r0, ip, lsr #32

00009f44 <GPLEV0>:
    9f44:	20200034 	eorcs	r0, r0, r4, lsr r0

00009f48 <GPLEV1>:
    9f48:	20200038 	eorcs	r0, r0, r8, lsr r0

00009f4c <IRQ_PENDING_2>:
    9f4c:	2000b208 	andcs	fp, r0, r8, lsl #4

00009f50 <GPREN0>:
    9f50:	2020004c 	eorcs	r0, r0, ip, asr #32

00009f54 <GPREN1>:
    9f54:	20200050 	eorcs	r0, r0, r0, asr r0

00009f58 <ENABLE_IRQS_2>:
    9f58:	2000b214 	andcs	fp, r0, r4, lsl r2

00009f5c <GPFEN0>:
    9f5c:	20200058 	eorcs	r0, r0, r8, asr r0

00009f60 <GPFEN1>:
    9f60:	2020005c 	eorcs	r0, r0, ip, asr r0

00009f64 <GPEDS0>:
    9f64:	20200040 	eorcs	r0, r0, r0, asr #32

00009f68 <GPEDS1>:
    9f68:	20200044 	eorcs	r0, r0, r4, asr #32

00009f6c <IRQ_PENDING_1>:
    9f6c:	2000b204 	andcs	fp, r0, r4, lsl #4

00009f70 <gpio_clr0>:
    9f70:	20200028 	eorcs	r0, r0, r8, lsr #32

00009f74 <gpio_set0>:
    9f74:	2020001c 	eorcs	r0, r0, ip, lsl r0

00009f78 <gpio_fsel0>:
    9f78:	20200000 	eorcs	r0, r0, r0

00009f7c <AUX_ENABLES>:
    9f7c:	20215004 	eorcs	r5, r1, r4

00009f80 <AUX_MU_CNTL_REG>:
    9f80:	20215060 	eorcs	r5, r1, r0, rrx

00009f84 <AUX_MU_IER_REG>:
    9f84:	20215044 	eorcs	r5, r1, r4, asr #32

00009f88 <AUX_MU_IIR_REG>:
    9f88:	20215048 	eorcs	r5, r1, r8, asr #32

00009f8c <AUX_MU_LCR_REG>:
    9f8c:	2021504c 	eorcs	r5, r1, ip, asr #32

00009f90 <AUX_MU_BAUD_REG>:
    9f90:	20215068 	eorcs	r5, r1, r8, rrx

00009f94 <AUX_MU_LSR_REG>:
    9f94:	20215054 	eorcs	r5, r1, r4, asr r0

00009f98 <AUX_MU_IO_REG>:
    9f98:	20215040 	eorcs	r5, r1, r0, asr #32

00009f9c <AUX_MU_STAT_REG>:
    9f9c:	20215064 	eorcs	r5, r1, r4, rrx

00009fa0 <AUX_MU_SCRATCH>:
    9fa0:	2021505c 	eorcs	r5, r1, ip, asr r0

00009fa4 <AUX_MU_MSR_REG>:
    9fa4:	20215058 	eorcs	r5, r1, r8, asr r0

00009fa8 <AUX_MU_MCR_REG>:
    9fa8:	20215050 	eorcs	r5, r1, r0, asr r0

00009fac <AUX_IRQ>:
    9fac:	20215000 	eorcs	r5, r1, r0

Disassembly of section .rodata:

00009fb0 <__FUNCTION__.4297>:
    9fb0:	695f7163 	ldmdbvs	pc, {r0, r1, r5, r6, r8, ip, sp, lr}^	; <UNPREDICTABLE>
    9fb4:	0074696e 	rsbseq	r6, r4, lr, ror #18
    9fb8:	494e4150 	stmdbmi	lr, {r4, r6, r8, lr}^
    9fbc:	73253a43 	teqvc	r5, #274432	; 0x43000
    9fc0:	3a73253a 	bcc	1cd34b0 <__bss_end__+0x1cc4bb8>
    9fc4:	633a6425 	teqvs	sl, #620756992	; 0x25000000
    9fc8:	6d655f71 	stclvs	15, cr5, [r5, #-452]!	; 0xfffffe3c
    9fcc:	28797470 	ldmdacs	r9!, {r4, r5, r6, sl, ip, sp, lr}^
    9fd0:	000a2963 	andeq	r2, sl, r3, ror #18
    9fd4:	6573552f 	ldrbvs	r5, [r3, #-1327]!	; 0x52f
    9fd8:	622f7372 	eorvs	r7, pc, #-939524095	; 0xc8000001
    9fdc:	6e616972 	mcrvs	9, 3, r6, cr1, cr2, {3}
    9fe0:	2f6e756a 	svccs	0x006e756a
    9fe4:	6b736544 	blvs	1ce34fc <__bss_end__+0x1cd4c04>
    9fe8:	2f706f74 	svccs	0x00706f74
    9fec:	6f686373 	svcvs	0x00686373
    9ff0:	572f6c6f 	strpl	r6, [pc, -pc, ror #24]!
    9ff4:	65746e69 	ldrbvs	r6, [r4, #-3689]!	; 0xe69
    9ff8:	32393172 	eorscc	r3, r9, #-2147483620	; 0x8000001c
    9ffc:	53432f30 	movtpl	r2, #16176	; 0x3f30
    a000:	45303431 	ldrmi	r3, [r0, #-1073]!	; 0x431
    a004:	3173632f 	cmncc	r3, pc, lsr #6
    a008:	2d653034 	stclcs	0, cr3, [r5, #-208]!	; 0xffffff30
    a00c:	69773032 	ldmdbvs	r7!, {r1, r4, r5, ip, sp}^
    a010:	696c2f6e 	stmdbvs	ip!, {r1, r2, r3, r5, r6, r8, r9, sl, fp, sp}^
    a014:	2f697062 	svccs	0x00697062
    a018:	6362696c 	cmnvs	r2, #108, 18	; 0x1b0000
    a01c:	7269632f 	rsbvc	r6, r9, #-1140850688	; 0xbc000000
    a020:	616c7563 	cmnvs	ip, r3, ror #10
    a024:	00682e72 	rsbeq	r2, r8, r2, ror lr
    a028:	494e4150 	stmdbmi	lr, {r4, r6, r8, lr}^
    a02c:	73253a43 	teqvc	r5, #274432	; 0x43000
    a030:	3a73253a 	bcc	1cd3520 <__bss_end__+0x1cc4c28>
    a034:	213a6425 	teqcs	sl, r5, lsr #8
    a038:	665f7163 	ldrbvs	r7, [pc], -r3, ror #2
    a03c:	286c6c75 	stmdacs	ip!, {r0, r2, r4, r5, r6, sl, fp, sp, lr}^
    a040:	000a2963 	andeq	r2, sl, r3, ror #18
    a044:	494e4150 	stmdbmi	lr, {r4, r6, r8, lr}^
    a048:	73253a43 	teqvc	r5, #274432	; 0x43000
    a04c:	3a73253a 	bcc	1cd353c <__bss_end__+0x1cc4c44>
    a050:	633a6425 	teqvs	sl, #620756992	; 0x25000000
    a054:	656e5f71 	strbvs	r5, [lr, #-3953]!	; 0xf71
    a058:	286d656c 	stmdacs	sp!, {r2, r3, r5, r6, r8, sl, sp, lr}^
    a05c:	3d202963 	stccc	9, cr2, [r0, #-396]!	; 0xfffffe74
    a060:	0a30203d 	beq	c1215c <__bss_end__+0xc03864>
    a064:	00000000 	andeq	r0, r0, r0
    a068:	494e4150 	stmdbmi	lr, {r4, r6, r8, lr}^
    a06c:	73253a43 	teqvc	r5, #274432	; 0x43000
    a070:	3a73253a 	bcc	1cd3560 <__bss_end__+0x1cc4c68>
    a074:	633a6425 	teqvs	sl, #620756992	; 0x25000000
    a078:	6f705f71 	svcvs	0x00705f71
    a07c:	6f6e5f70 	svcvs	0x006e5f70
    a080:	6f6c626e 	svcvs	0x006c626e
    a084:	63286b63 	teqvs	r8, #101376	; 0x18c00
    a088:	2965262c 	stmdbcs	r5!, {r2, r3, r5, r9, sl, sp}^
    a08c:	203d3d20 	eorscs	r3, sp, r0, lsr #26
    a090:	26262030 			; <UNDEFINED> instruction: 0x26262030
    a094:	3d206520 	cfstr32cc	mvfx6, [r0, #-128]!	; 0xffffff80
    a098:	7830203d 	ldmdavc	r0!, {r0, r2, r3, r4, r5, sp}
    a09c:	000a3231 	andeq	r3, sl, r1, lsr r2
    a0a0:	65746e65 	ldrbvs	r6, [r4, #-3685]!	; 0xe65
    a0a4:	6e692072 	mcrvs	0, 3, r2, cr9, cr2, {3}
    a0a8:	20747570 	rsbscs	r7, r4, r0, ror r5
    a0ac:	68746977 	ldmdavs	r4!, {r0, r1, r2, r4, r5, r6, r8, fp, sp, lr}^
    a0b0:	63206120 	teqvs	r0, #32, 2
    a0b4:	69727261 	ldmdbvs	r2!, {r0, r5, r6, r9, ip, sp, lr}^
    a0b8:	20656761 	rsbcs	r6, r5, r1, ror #14
    a0bc:	75746572 	ldrbvc	r6, [r4, #-1394]!	; 0x572
    a0c0:	000a6e72 	andeq	r6, sl, r2, ror lr
    a0c4:	656e6f44 	strbvs	r6, [lr, #-3908]!	; 0xf44
    a0c8:	6168203a 	cmnvs	r8, sl, lsr r0
    a0cc:	656c646e 	strbvs	r6, [ip, #-1134]!	; 0x46e
    a0d0:	64252064 	strtvs	r2, [r5], #-100	; 0x64
    a0d4:	6e696c20 	cdpvs	12, 6, cr6, cr9, cr0, {1}
    a0d8:	000a7365 	andeq	r7, sl, r5, ror #6
    a0dc:	43435553 	movtmi	r5, #13651	; 0x3553
    a0e0:	21535345 	cmpcs	r3, r5, asr #6
    a0e4:	0000000a 	andeq	r0, r0, sl

0000a0e8 <__FUNCTION__.4214>:
    a0e8:	74696d65 	strbtvc	r6, [r9], #-3429	; 0xd65
    a0ec:	00000000 	andeq	r0, r0, r0

0000a0f0 <__FUNCTION__.4162>:
    a0f0:	5f697072 	svcpl	0x00697072
    a0f4:	5f746573 	svcpl	0x00746573
    a0f8:	7074756f 	rsbsvc	r7, r4, pc, ror #10
    a0fc:	00007475 	andeq	r7, r0, r5, ror r4

0000a100 <__FUNCTION__.4236>:
    a100:	705f6176 	subsvc	r6, pc, r6, ror r1	; <UNPREDICTABLE>
    a104:	746e6972 	strbtvc	r6, [lr], #-2418	; 0x972
    a108:	0000006b 	andeq	r0, r0, fp, rrx
    a10c:	494e4150 	stmdbmi	lr, {r4, r6, r8, lr}^
    a110:	73253a43 	teqvc	r5, #274432	; 0x43000
    a114:	3a73253a 	bcc	1cd3604 <__bss_end__+0x1cc4d0c>
    a118:	303a6425 	eorscc	r6, sl, r5, lsr #8
    a11c:	0000000a 	andeq	r0, r0, sl
    a120:	6362696c 	cmnvs	r2, #108, 18	; 0x1b0000
    a124:	2d61762f 	stclcs	6, cr7, [r1, #-188]!	; 0xffffff44
    a128:	6e697270 	mcrvs	2, 3, r7, cr9, cr0, {3}
    a12c:	632e6b74 	teqvs	lr, #116, 22	; 0x1d000
    a130:	00000000 	andeq	r0, r0, r0
    a134:	33323130 	teqcc	r2, #48, 2
    a138:	37363534 			; <UNDEFINED> instruction: 0x37363534
    a13c:	00003938 	andeq	r3, r0, r8, lsr r9
    a140:	33323130 	teqcc	r2, #48, 2
    a144:	37363534 			; <UNDEFINED> instruction: 0x37363534
    a148:	62613938 	rsbvs	r3, r1, #56, 18	; 0xe0000
    a14c:	66656463 	strbtvs	r6, [r5], -r3, ror #8
    a150:	00000000 	andeq	r0, r0, r0
    a154:	00003130 	andeq	r3, r0, r0, lsr r1
    a158:	494e4150 	stmdbmi	lr, {r4, r6, r8, lr}^
    a15c:	73253a43 	teqvc	r5, #274432	; 0x43000
    a160:	3a73253a 	bcc	1cd3650 <__bss_end__+0x1cc4d58>
    a164:	703a6425 	eorsvc	r6, sl, r5, lsr #8
    a168:	5f637475 	svcpl	0x00637475
    a16c:	000a7066 	andeq	r7, sl, r6, rrx
    a170:	494e4150 	stmdbmi	lr, {r4, r6, r8, lr}^
    a174:	73253a43 	teqvc	r5, #274432	; 0x43000
    a178:	3a73253a 	bcc	1cd3668 <__bss_end__+0x1cc4d70>
    a17c:	773a6425 	ldrvc	r6, [sl, -r5, lsr #8]!
    a180:	68746469 	ldmdavs	r4!, {r0, r3, r5, r6, sl, sp, lr}^
    a184:	33203c20 	teqcc	r0, #32, 24	; 0x2000
    a188:	00000a32 	andeq	r0, r0, r2, lsr sl
    a18c:	494e4150 	stmdbmi	lr, {r4, r6, r8, lr}^
    a190:	73253a43 	teqvc	r5, #274432	; 0x43000
    a194:	3a73253a 	bcc	1cd3684 <__bss_end__+0x1cc4d8c>
    a198:	663a6425 	ldrtvs	r6, [sl], -r5, lsr #8
    a19c:	74616f6c 	strbtvc	r6, [r1], #-3948	; 0xf6c
    a1a0:	746f6e20 	strbtvc	r6, [pc], #-3616	; a1a8 <__FUNCTION__.4236+0xa8>
    a1a4:	616e6520 	cmnvs	lr, r0, lsr #10
    a1a8:	64656c62 	strbtvs	r6, [r5], #-3170	; 0xc62
    a1ac:	0a212121 	beq	852638 <__bss_end__+0x843d40>
    a1b0:	00000000 	andeq	r0, r0, r0
    a1b4:	494e4150 	stmdbmi	lr, {r4, r6, r8, lr}^
    a1b8:	73253a43 	teqvc	r5, #274432	; 0x43000
    a1bc:	3a73253a 	bcc	1cd36ac <__bss_end__+0x1cc4db4>
    a1c0:	703a6425 	eorsvc	r6, sl, r5, lsr #8
    a1c4:	746e6972 	strbtvc	r6, [lr], #-2418	; 0x972
    a1c8:	6e203a6b 	vnmulvs.f32	s6, s0, s23
    a1cc:	6820746f 	stmdavs	r0!, {r0, r1, r2, r3, r5, r6, sl, ip, sp, lr}
    a1d0:	6c646e61 	stclvs	14, cr6, [r4], #-388	; 0xfffffe7c
    a1d4:	20676e69 	rsbcs	r6, r7, r9, ror #28
    a1d8:	63657073 	cmnvs	r5, #115	; 0x73
    a1dc:	65696669 	strbvs	r6, [r9, #-1641]!	; 0x669
    a1e0:	25272072 	strcs	r2, [r7, #-114]!	; 0x72
    a1e4:	0a0a2763 	beq	293f78 <__bss_end__+0x285680>
    a1e8:	00000000 	andeq	r0, r0, r0
    a1ec:	454e4f44 	strbmi	r4, [lr, #-3908]	; 0xf44
    a1f0:	0a212121 	beq	85267c <__bss_end__+0x843d84>
    a1f4:	00000000 	andeq	r0, r0, r0
    a1f8:	756f6261 	strbvc	r6, [pc, #-609]!	; 9f9f <AUX_MU_STAT_REG+0x3>
    a1fc:	6f742074 	svcvs	0x00742074
    a200:	69727020 	ldmdbvs	r2!, {r5, ip, sp, lr}^
    a204:	6f20746e 	svcvs	0x0020746e
    a208:	6572206e 	ldrbvs	r2, [r2, #-110]!	; 0x6e
    a20c:	616c7567 	cmnvs	ip, r7, ror #10
    a210:	72702072 	rsbsvc	r2, r0, #114	; 0x72
    a214:	66746e69 	ldrbtvs	r6, [r4], -r9, ror #28
    a218:	0000000a 	andeq	r0, r0, sl
    a21c:	63637573 	cmnvs	r3, #482344960	; 0x1cc00000
    a220:	21737365 	cmncs	r3, r5, ror #6
    a224:	0000000a 	andeq	r0, r0, sl

0000a228 <__FUNCTION__.4263>:
    a228:	755f7773 	ldrbvc	r7, [pc, #-1907]	; 9abd <uart_init+0x89>
    a22c:	5f747261 	svcpl	0x00747261
    a230:	73746567 	cmnvc	r4, #432013312	; 0x19c00000
    a234:	746e755f 	strbtvc	r7, [lr], #-1375	; 0x55f
    a238:	00006c69 	andeq	r6, r0, r9, ror #24

0000a23c <__FUNCTION__.4275>:
    a23c:	755f7773 	ldrbvc	r7, [pc, #-1907]	; 9ad1 <uart_can_getc+0x1>
    a240:	5f747261 	svcpl	0x00747261
    a244:	73746567 	cmnvc	r4, #432013312	; 0x19c00000
    a248:	6d69745f 	cfstrdvs	mvd7, [r9, #-380]!	; 0xfffffe84
    a24c:	74756f65 	ldrbtvc	r6, [r5], #-3941	; 0xf65
    a250:	00000000 	andeq	r0, r0, r0

0000a254 <__FUNCTION__.4289>:
    a254:	755f7773 	ldrbvc	r7, [pc, #-1907]	; 9ae9 <uart_can_getc+0x19>
    a258:	5f747261 	svcpl	0x00747261
    a25c:	74696e69 	strbtvc	r6, [r9], #-3689	; 0xe69
    a260:	6c65685f 	stclvs	8, cr6, [r5], #-380	; 0xfffffe84
    a264:	00726570 	rsbseq	r6, r2, r0, ror r5

0000a268 <__FUNCTION__.4295>:
    a268:	755f7773 	ldrbvc	r7, [pc, #-1907]	; 9afd <uart_getc+0x11>
    a26c:	5f747261 	svcpl	0x00747261
    a270:	63746567 	cmnvs	r4, #432013312	; 0x19c00000
    a274:	00000000 	andeq	r0, r0, r0

0000a278 <__FUNCTION__.4317>:
    a278:	755f7773 	ldrbvc	r7, [pc, #-1907]	; 9b0d <uart_getc+0x21>
    a27c:	5f747261 	svcpl	0x00747261
    a280:	6e697270 	mcrvs	2, 3, r7, cr9, cr0, {3}
    a284:	00006b74 	andeq	r6, r0, r4, ror fp

0000a288 <__FUNCTION__.4325>:
    a288:	755f7773 	ldrbvc	r7, [pc, #-1907]	; 9b1d <uart_can_putc+0x9>
    a28c:	5f747261 	svcpl	0x00747261
    a290:	73746567 	cmnvc	r4, #432013312	; 0x19c00000
    a294:	746e755f 	strbtvc	r7, [lr], #-1375	; 0x55f
    a298:	625f6c69 	subsvs	r6, pc, #26880	; 0x6900
    a29c:	00006b6c 	andeq	r6, r0, ip, ror #22
    a2a0:	494e4150 	stmdbmi	lr, {r4, r6, r8, lr}^
    a2a4:	73253a43 	teqvc	r5, #274432	; 0x43000
    a2a8:	3a73253a 	bcc	1cd3798 <__bss_end__+0x1cc4ea0>
    a2ac:	6e3a6425 	cdpvs	4, 3, cr6, cr10, cr5, {1}
    a2b0:	65747962 	ldrbvs	r7, [r4, #-2402]!	; 0x962
    a2b4:	0a303e73 	beq	c19c88 <__bss_end__+0xc0b390>
    a2b8:	00000000 	andeq	r0, r0, r0
    a2bc:	732d796d 	teqvc	sp, #1785856	; 0x1b4000
    a2c0:	732f6372 	teqvc	pc, #-939524095	; 0xc8000001
    a2c4:	61752d77 	cmnvs	r5, r7, ror sp
    a2c8:	632e7472 	teqvs	lr, #1912602624	; 0x72000000
    a2cc:	00000000 	andeq	r0, r0, r0
    a2d0:	494e4150 	stmdbmi	lr, {r4, r6, r8, lr}^
    a2d4:	73253a43 	teqvc	r5, #274432	; 0x43000
    a2d8:	3a73253a 	bcc	1cd37c8 <__bss_end__+0x1cc4ed0>
    a2dc:	283a6425 	ldmdacs	sl!, {r0, r2, r5, sl, sp, lr}
    a2e0:	207a686d 	rsbscs	r6, sl, sp, ror #16
    a2e4:	6162202d 	cmnvs	r2, sp, lsr #32
    a2e8:	20296475 	eorcs	r6, r9, r5, ror r4
    a2ec:	64203d3c 	strtvs	r3, [r0], #-3388	; 0xd3c
    a2f0:	76697265 	strbtvc	r7, [r9], -r5, ror #4
    a2f4:	26206465 	strtcs	r6, [r0], -r5, ror #8
    a2f8:	65642026 	strbvs	r2, [r4, #-38]!	; 0x26
    a2fc:	65766972 	ldrbvs	r6, [r6, #-2418]!	; 0x972
    a300:	3d3c2064 	ldccc	0, cr2, [ip, #-400]!	; 0xfffffe70
    a304:	686d2820 	stmdavs	sp!, {r5, fp, sp}^
    a308:	202b207a 	eorcs	r2, fp, sl, ror r0
    a30c:	64756162 	ldrbtvs	r6, [r5], #-354	; 0x162
    a310:	00000a29 	andeq	r0, r0, r9, lsr #20
    a314:	494e4150 	stmdbmi	lr, {r4, r6, r8, lr}^
    a318:	73253a43 	teqvc	r5, #274432	; 0x43000
    a31c:	3a73253a 	bcc	1cd380c <__bss_end__+0x1cc4f14>
    a320:	693a6425 	ldmdbvs	sl!, {r0, r2, r5, sl, sp, lr}
    a324:	736f706d 	cmnvc	pc, #109	; 0x6d
    a328:	6c626973 	stclvs	9, cr6, [r2], #-460	; 0xfffffe34
    a32c:	68203a65 	stmdavs	r0!, {r0, r2, r5, r6, r9, fp, ip, sp}
    a330:	20657661 	rsbcs	r7, r5, r1, ror #12
    a334:	69206e61 	stmdbvs	r0!, {r0, r5, r6, r9, sl, fp, sp, lr}
    a338:	6e69666e 	cdpvs	6, 6, cr6, cr9, cr14, {3}
    a33c:	20657469 	rsbcs	r7, r5, r9, ror #8
    a340:	656d6974 	strbvs	r6, [sp, #-2420]!	; 0x974
    a344:	2174756f 	cmncs	r4, pc, ror #10
    a348:	00000a0a 	andeq	r0, r0, sl, lsl #20
    a34c:	494e4150 	stmdbmi	lr, {r4, r6, r8, lr}^
    a350:	73253a43 	teqvc	r5, #274432	; 0x43000
    a354:	3a73253a 	bcc	1cd3844 <__bss_end__+0x1cc4f4c>
    a358:	733a6425 	teqvc	sl, #620756992	; 0x25000000
    a35c:	203c207a 	eorscs	r2, ip, sl, ror r0
    a360:	657a6973 	ldrbvs	r6, [sl, #-2419]!	; 0x973
    a364:	6220666f 	eorvs	r6, r0, #116391936	; 0x6f00000
    a368:	312d6675 	teqcc	sp, r5, ror r6
    a36c:	0000000a 	andeq	r0, r0, sl

0000a370 <__FUNCTION__.4194>:
    a370:	74736166 	ldrbtvc	r6, [r3], #-358	; 0x166
    a374:	746e695f 	strbtvc	r6, [lr], #-2399	; 0x95f
    a378:	75727265 	ldrbvc	r7, [r2, #-613]!	; 0x265
    a37c:	765f7470 			; <UNDEFINED> instruction: 0x765f7470
    a380:	6f746365 	svcvs	0x00746365
    a384:	00000072 	andeq	r0, r0, r2, ror r0

0000a388 <__FUNCTION__.4198>:
    a388:	74666f73 	strbtvc	r6, [r6], #-3955	; 0xf73
    a38c:	65726177 	ldrbvs	r6, [r2, #-375]!	; 0x177
    a390:	746e695f 	strbtvc	r6, [lr], #-2399	; 0x95f
    a394:	75727265 	ldrbvc	r7, [r2, #-613]!	; 0x265
    a398:	765f7470 			; <UNDEFINED> instruction: 0x765f7470
    a39c:	6f746365 	svcvs	0x00746365
    a3a0:	00000072 	andeq	r0, r0, r2, ror r0

0000a3a4 <__FUNCTION__.4202>:
    a3a4:	65736572 	ldrbvs	r6, [r3, #-1394]!	; 0x572
    a3a8:	65765f74 	ldrbvs	r5, [r6, #-3956]!	; 0xf74
    a3ac:	726f7463 	rsbvc	r7, pc, #1660944384	; 0x63000000
    a3b0:	00000000 	andeq	r0, r0, r0

0000a3b4 <__FUNCTION__.4206>:
    a3b4:	65646e75 	strbvs	r6, [r4, #-3701]!	; 0xe75
    a3b8:	656e6966 	strbvs	r6, [lr, #-2406]!	; 0x966
    a3bc:	6e695f64 	cdpvs	15, 6, cr5, cr9, cr4, {3}
    a3c0:	75727473 	ldrbvc	r7, [r2, #-1139]!	; 0x473
    a3c4:	6f697463 	svcvs	0x00697463
    a3c8:	65765f6e 	ldrbvs	r5, [r6, #-3950]!	; 0xf6e
    a3cc:	726f7463 	rsbvc	r7, pc, #1660944384	; 0x63000000
    a3d0:	00000000 	andeq	r0, r0, r0

0000a3d4 <__FUNCTION__.4210>:
    a3d4:	66657270 			; <UNDEFINED> instruction: 0x66657270
    a3d8:	68637465 	stmdavs	r3!, {r0, r2, r5, r6, sl, ip, sp, lr}^
    a3dc:	6f62615f 	svcvs	0x0062615f
    a3e0:	765f7472 			; <UNDEFINED> instruction: 0x765f7472
    a3e4:	6f746365 	svcvs	0x00746365
    a3e8:	00000072 	andeq	r0, r0, r2, ror r0

0000a3ec <__FUNCTION__.4214>:
    a3ec:	61746164 	cmnvs	r4, r4, ror #2
    a3f0:	6f62615f 	svcvs	0x0062615f
    a3f4:	765f7472 			; <UNDEFINED> instruction: 0x765f7472
    a3f8:	6f746365 	svcvs	0x00746365
    a3fc:	00000072 	andeq	r0, r0, r2, ror r0
    a400:	494e4150 	stmdbmi	lr, {r4, r6, r8, lr}^
    a404:	73253a43 	teqvc	r5, #274432	; 0x43000
    a408:	3a73253a 	bcc	1cd38f8 <__bss_end__+0x1cc5000>
    a40c:	453a6425 	ldrmi	r6, [sl, #-1061]!	; 0x425
    a410:	524f5252 	subpl	r5, pc, #536870917	; 0x20000005
    a414:	6e75203a 	mrcvs	0, 3, r2, cr5, cr10, {1}
    a418:	646e6168 	strbtvs	r6, [lr], #-360	; 0x168
    a41c:	2064656c 	rsbcs	r6, r4, ip, ror #10
    a420:	65637865 	strbvs	r7, [r3, #-2149]!	; 0x865
    a424:	6f697470 	svcvs	0x00697470
    a428:	253c206e 	ldrcs	r2, [ip, #-110]!	; 0x6e
    a42c:	61203e73 	teqvs	r0, r3, ror lr
    a430:	43502074 	cmpmi	r0, #116	; 0x74
    a434:	0a78253d 	beq	1e13930 <__bss_end__+0x1e05038>
    a438:	0000000a 	andeq	r0, r0, sl
    a43c:	34317363 	ldrtcc	r7, [r1], #-867	; 0x363
    a440:	692d6530 	pushvs	{r4, r5, r8, sl, sp, lr}
    a444:	7265746e 	rsbvc	r7, r5, #1845493760	; 0x6e000000
    a448:	74707572 	ldrbtvc	r7, [r0], #-1394	; 0x572
    a44c:	746e692f 	strbtvc	r6, [lr], #-2351	; 0x92f
    a450:	75727265 	ldrbvc	r7, [r2, #-613]!	; 0x265
    a454:	2d737470 	cfldrdcs	mvd7, [r3, #-448]!	; 0xfffffe40
    a458:	00632e63 	rsbeq	r2, r3, r3, ror #28
    a45c:	74736166 	ldrbtvc	r6, [r3], #-358	; 0x166
    a460:	00000000 	andeq	r0, r0, r0
    a464:	74666f73 	strbtvc	r6, [r6], #-3955	; 0xf73
    a468:	746e6920 	strbtvc	r6, [lr], #-2336	; 0x920
    a46c:	75727265 	ldrbvc	r7, [r2, #-613]!	; 0x265
    a470:	00007470 	andeq	r7, r0, r0, ror r4
    a474:	65736572 	ldrbvs	r6, [r3, #-1394]!	; 0x572
    a478:	65762074 	ldrbvs	r2, [r6, #-116]!	; 0x74
    a47c:	726f7463 	rsbvc	r7, pc, #1660944384	; 0x63000000
    a480:	00000000 	andeq	r0, r0, r0
    a484:	65646e75 	strbvs	r6, [r4, #-3701]!	; 0xe75
    a488:	656e6966 	strbvs	r6, [lr, #-2406]!	; 0x966
    a48c:	6e692064 	cdpvs	0, 6, cr2, cr9, cr4, {3}
    a490:	75727473 	ldrbvc	r7, [r2, #-1139]!	; 0x473
    a494:	6f697463 	svcvs	0x00697463
    a498:	0000006e 	andeq	r0, r0, lr, rrx
    a49c:	66657270 			; <UNDEFINED> instruction: 0x66657270
    a4a0:	68637465 	stmdavs	r3!, {r0, r2, r5, r6, sl, ip, sp, lr}^
    a4a4:	6f626120 	svcvs	0x00626120
    a4a8:	00007472 	andeq	r7, r0, r2, ror r4
    a4ac:	61746164 	cmnvs	r4, r4, ror #2
    a4b0:	6f626120 	svcvs	0x00626120
    a4b4:	00007472 	andeq	r7, r0, r2, ror r4

Disassembly of section .bss:

0000a4b8 <__bss_start__>:
	...

0000c4cc <in_data>:
    c4cc:	00000000 	andeq	r0, r0, r0

0000c4d0 <putQ>:
	...

0000e4e4 <tx_count>:
    e4e4:	00000000 	andeq	r0, r0, r0

0000e4e8 <buf.4162>:
	...

0000e8e8 <console_uart>:
	...

0000e8f4 <rpi_arm_timer_t>:
    e8f4:	00000000 	andeq	r0, r0, r0

Disassembly of section .ARM.attributes:

00000000 <.ARM.attributes>:
   0:	00002a41 	andeq	r2, r0, r1, asr #20
   4:	61656100 	cmnvs	r5, r0, lsl #2
   8:	01006962 	tsteq	r0, r2, ror #18
   c:	00000020 	andeq	r0, r0, r0, lsr #32
  10:	4b5a3605 	blmi	168d82c <__bss_end__+0x167ef34>
  14:	08070600 	stmdaeq	r7, {r9, sl}
  18:	12010901 	andne	r0, r1, #16384	; 0x4000
  1c:	15011404 	strne	r1, [r1, #-1028]	; 0x404
  20:	18031701 	stmdane	r3, {r0, r8, r9, sl, ip}
  24:	22011a01 	andcs	r1, r1, #4096	; 0x1000
  28:	Address 0x0000000000000028 is out of bounds.


Disassembly of section .comment:

00000000 <.comment>:
   0:	3a434347 	bcc	10d0d24 <__bss_end__+0x10c242c>
   4:	4e472820 	cdpmi	8, 4, cr2, cr7, cr0, {1}
   8:	34202955 	strtcc	r2, [r0], #-2389	; 0x955
   c:	332e382e 	teqcc	lr, #3014656	; 0x2e0000
	...

Disassembly of section .debug_info:

00000000 <.debug_info>:
       0:	00000ed6 	ldrdeq	r0, [r0], -r6
       4:	00000004 	andeq	r0, r0, r4
       8:	01040000 	mrseq	r0, (UNDEF: 4)
       c:	00000376 	andeq	r0, r0, r6, ror r3
      10:	00041501 	andeq	r1, r4, r1, lsl #10
      14:	00030900 	andeq	r0, r3, r0, lsl #18
      18:	00801000 	addeq	r1, r0, r0
      1c:	00069400 	andeq	r9, r6, r0, lsl #8
      20:	00000000 	andeq	r0, r0, r0
      24:	05040200 	streq	r0, [r4, #-512]	; 0x200
      28:	00746e69 	rsbseq	r6, r4, r9, ror #28
      2c:	00000003 	andeq	r0, r0, r3
      30:	37d40300 	ldrbcc	r0, [r4, r0, lsl #6]
      34:	04000000 	streq	r0, [r0], #-0
      38:	00620704 	rsbeq	r0, r2, r4, lsl #14
      3c:	01040000 	mrseq	r0, (UNDEF: 4)
      40:	0002db06 	andeq	sp, r2, r6, lsl #22
      44:	05020400 	streq	r0, [r2, #-1024]	; 0x400
      48:	000002ef 	andeq	r0, r0, pc, ror #5
      4c:	93050404 	movwls	r0, #21508	; 0x5404
      50:	04000000 	streq	r0, [r0], #-0
      54:	008e0508 	addeq	r0, lr, r8, lsl #10
      58:	70030000 	andvc	r0, r3, r0
      5c:	04000004 	streq	r0, [r0], #-4
      60:	0000652e 	andeq	r6, r0, lr, lsr #10
      64:	08010400 	stmdaeq	r1, {sl}
      68:	000002d9 	ldrdeq	r0, [r0], -r9
      6c:	bb070204 	bllt	1c0884 <__bss_end__+0x1b1f8c>
      70:	03000001 	movweq	r0, #1
      74:	00000368 	andeq	r0, r0, r8, ror #6
      78:	007e3404 	rsbseq	r3, lr, r4, lsl #8
      7c:	04040000 	streq	r0, [r4], #-0
      80:	00005d07 	andeq	r5, r0, r7, lsl #26
      84:	07080400 	streq	r0, [r8, -r0, lsl #8]
      88:	00000058 	andeq	r0, r0, r8, asr r0
      8c:	4a070404 	bmi	1c10a4 <__bss_end__+0x1b27ac>
      90:	05000002 	streq	r0, [r0, #-2]
      94:	08010404 	stmdaeq	r1, {r2, sl}
      98:	000002e2 	andeq	r0, r0, r2, ror #5
      9c:	00a20406 	adceq	r0, r2, r6, lsl #8
      a0:	95070000 	strls	r0, [r7, #-0]
      a4:	08000000 	stmdaeq	r0, {}	; <UNPREDICTABLE>
      a8:	00000095 	muleq	r0, r5, r0
      ac:	000000b7 	strheq	r0, [r0], -r7
      b0:	00008c09 	andeq	r8, r0, r9, lsl #24
      b4:	0a000700 	beq	1cbc <_start-0x6344>
      b8:	f00c0501 			; <UNDEFINED> instruction: 0xf00c0501
      bc:	0b000000 	bleq	c4 <_start-0x7f3c>
      c0:	00000075 	andeq	r0, r0, r5, ror r0
      c4:	045f0b00 	ldrbeq	r0, [pc], #-2816	; cc <_start-0x7f34>
      c8:	0b010000 	bleq	400d0 <__bss_end__+0x317d8>
      cc:	0000049c 	muleq	r0, ip, r4
      d0:	04ab0b04 	strteq	r0, [fp], #2820	; 0xb04
      d4:	0b050000 	bleq	1400dc <__bss_end__+0x1317e4>
      d8:	000004ba 			; <UNDEFINED> instruction: 0x000004ba
      dc:	04c90b06 	strbeq	r0, [r9], #2822	; 0xb06
      e0:	0b070000 	bleq	1c00e8 <__bss_end__+0x1b17f0>
      e4:	000004d8 	ldrdeq	r0, [r0], -r8
      e8:	04e70b03 	strbteq	r0, [r7], #2819	; 0xb03
      ec:	00020000 	andeq	r0, r2, r0
      f0:	00047e03 	andeq	r7, r4, r3, lsl #28
      f4:	b7150500 	ldrlt	r0, [r5, -r0, lsl #10]
      f8:	0a000000 	beq	100 <_start-0x7f00>
      fc:	68330604 	ldmdavs	r3!, {r2, r9, sl}
     100:	0b000001 	bleq	10c <_start-0x7ef4>
     104:	000000e5 	andeq	r0, r0, r5, ror #1
     108:	8082e880 	addhi	lr, r2, r0, lsl #17
     10c:	00d60b02 	sbcseq	r0, r6, r2, lsl #22
     110:	e8800000 	stm	r0, {}	; <UNPREDICTABLE>
     114:	0b028082 	bleq	a0324 <__bss_end__+0x91a2c>
     118:	00000420 	andeq	r0, r0, r0, lsr #8
     11c:	8082e884 	addhi	lr, r2, r4, lsl #17
     120:	00c40b02 	sbceq	r0, r4, r2, lsl #22
     124:	e8880000 	stm	r8, {}	; <UNPREDICTABLE>
     128:	0b028082 	bleq	a0338 <__bss_end__+0x91a40>
     12c:	00000430 	andeq	r0, r0, r0, lsr r4
     130:	8082e88c 	addhi	lr, r2, ip, lsl #17
     134:	002d0b02 	eoreq	r0, sp, r2, lsl #22
     138:	e8900000 	ldm	r0, {}	; <UNPREDICTABLE>
     13c:	0b028082 	bleq	a034c <__bss_end__+0x91a54>
     140:	0000014d 	andeq	r0, r0, sp, asr #2
     144:	8082e894 	umullhi	lr, r2, r4, r8
     148:	027d0b02 	rsbseq	r0, sp, #2048	; 0x800
     14c:	e8980000 	ldm	r8, {}	; <UNPREDICTABLE>
     150:	0b028082 	bleq	a0360 <__bss_end__+0x91a68>
     154:	00000400 	andeq	r0, r0, r0, lsl #8
     158:	8082e89c 	umullhi	lr, r2, ip, r8
     15c:	053d0b02 	ldreq	r0, [sp, #-2818]!	; 0xb02
     160:	e8a00000 	stmia	r0!, {}	; <UNPREDICTABLE>
     164:	00028082 	andeq	r8, r2, r2, lsl #1
     168:	0003fa03 	andeq	pc, r3, r3, lsl #20
     16c:	651c0100 	ldrvs	r0, [ip, #-256]	; 0x100
     170:	0c000000 	stceq	0, cr0, [r0], {-0}
     174:	28012014 	stmdacs	r1, {r2, r4, sp}
     178:	000001cd 	andeq	r0, r0, sp, asr #3
     17c:	00006f0d 	andeq	r6, r0, sp, lsl #30
     180:	de2a0100 	suflee	f0, f2, f0
     184:	00000001 	andeq	r0, r0, r1
     188:	0003cd0e 	andeq	ip, r3, lr, lsl #26
     18c:	372b0100 	strcc	r0, [fp, -r0, lsl #2]!
     190:	00000000 	andeq	r0, r0, r0
     194:	03630e20 	cmneq	r3, #32, 28	; 0x200
     198:	2c010000 	stccs	0, cr0, [r1], {-0}
     19c:	000001e3 	andeq	r0, r0, r3, ror #3
     1a0:	450e2004 	strmi	r2, [lr, #-4]
     1a4:	01000002 	tsteq	r0, r2
     1a8:	0001e32c 	andeq	lr, r1, ip, lsr #6
     1ac:	0e200800 	cdpeq	8, 2, cr0, cr0, cr0, {0}
     1b0:	000003e3 	andeq	r0, r0, r3, ror #7
     1b4:	01e32f01 	mvneq	r2, r1, lsl #30
     1b8:	200c0000 	andcs	r0, ip, r0
     1bc:	0000070f 	andeq	r0, r0, pc, lsl #14
     1c0:	37310100 	ldrcc	r0, [r1, -r0, lsl #2]!
     1c4:	04000000 	streq	r0, [r0], #-0
     1c8:	20101f01 	andscs	r1, r0, r1, lsl #30
     1cc:	01680800 	cmneq	r8, r0, lsl #16
     1d0:	01de0000 	bicseq	r0, lr, r0
     1d4:	8c100000 	ldchi	0, cr0, [r0], {-0}
     1d8:	ff000000 			; <UNDEFINED> instruction: 0xff000000
     1dc:	cd11001f 	ldcgt	0, cr0, [r1, #-124]	; 0xffffff84
     1e0:	11000001 	tstne	r0, r1
     1e4:	00000037 	andeq	r0, r0, r7, lsr r0
     1e8:	00044a03 	andeq	r4, r4, r3, lsl #20
     1ec:	73320100 	teqvc	r2, #0, 2
     1f0:	12000001 	andne	r0, r0, #1
     1f4:	2a0e070c 	bcs	381e2c <__bss_end__+0x373534>
     1f8:	13000002 	movwne	r0, #2
     1fc:	07007874 	smlsdxeq	r0, r4, r8, r7
     200:	00005a0f 	andeq	r5, r0, pc, lsl #20
     204:	72130000 	andsvc	r0, r3, #0
     208:	0f070078 	svceq	0x00070078
     20c:	0000005a 	andeq	r0, r0, sl, asr r0
     210:	03710d01 	cmneq	r1, #1, 26	; 0x40
     214:	10070000 	andne	r0, r7, r0
     218:	00000073 	andeq	r0, r0, r3, ror r0
     21c:	05050d04 	streq	r0, [r5, #-3332]	; 0xd04
     220:	11070000 	mrsne	r0, (UNDEF: 7)
     224:	00000073 	andeq	r0, r0, r3, ror r0
     228:	cf030008 	svcgt	0x00030008
     22c:	07000002 	streq	r0, [r0, -r2]
     230:	0001f312 	andeq	pc, r1, r2, lsl r3	; <UNPREDICTABLE>
     234:	00851400 	addeq	r1, r5, r0, lsl #8
     238:	39010000 	stmdbcc	r1, {}	; <UNPREDICTABLE>
     23c:	00000025 	andeq	r0, r0, r5, lsr #32
     240:	00024f03 	andeq	r4, r2, r3, lsl #30
     244:	00711500 	rsbseq	r1, r1, r0, lsl #10
     248:	024f3901 	subeq	r3, pc, #16384	; 0x4000
     24c:	06000000 	streq	r0, [r0], -r0
     250:	0001e804 	andeq	lr, r1, r4, lsl #16
     254:	05351400 	ldreq	r1, [r5, #-1024]!	; 0x400
     258:	3c010000 	stccc	0, cr0, [r1], {-0}
     25c:	00000025 	andeq	r0, r0, r5, lsr #32
     260:	00026f03 	andeq	r6, r2, r3, lsl #30
     264:	00711500 	rsbseq	r1, r1, r0, lsl #10
     268:	024f3c01 	subeq	r3, pc, #256	; 0x100
     26c:	14000000 	strne	r0, [r0], #-0
     270:	000001b2 			; <UNDEFINED> instruction: 0x000001b2
     274:	00373e01 	eorseq	r3, r7, r1, lsl #28
     278:	89030000 	stmdbhi	r3, {}	; <UNPREDICTABLE>
     27c:	15000002 	strne	r0, [r0, #-2]
     280:	3e010071 	mcrcc	0, 0, r0, cr1, cr1, {3}
     284:	0000024f 	andeq	r0, r0, pc, asr #4
     288:	026d1400 	rsbeq	r1, sp, #0, 8
     28c:	42010000 	andmi	r0, r1, #0
     290:	00000025 	andeq	r0, r0, r5, lsr #32
     294:	0002b703 	andeq	fp, r2, r3, lsl #14
     298:	00631500 	rsbeq	r1, r3, r0, lsl #10
     29c:	024f4201 	subeq	r4, pc, #268435456	; 0x10000000
     2a0:	65150000 	ldrvs	r0, [r5, #-0]
     2a4:	b7420100 	strblt	r0, [r2, -r0, lsl #2]
     2a8:	16000002 	strne	r0, [r0], -r2
     2ac:	00000245 	andeq	r0, r0, r5, asr #4
     2b0:	00374501 	eorseq	r4, r7, r1, lsl #10
     2b4:	06000000 	streq	r0, [r0], -r0
     2b8:	00016804 	andeq	r6, r1, r4, lsl #16
     2bc:	03f21400 	mvnseq	r1, #0, 8
     2c0:	56010000 	strpl	r0, [r1], -r0
     2c4:	00000025 	andeq	r0, r0, r5, lsr #32
     2c8:	0002eb03 	andeq	lr, r2, r3, lsl #22
     2cc:	00631500 	rsbeq	r1, r3, r0, lsl #10
     2d0:	024f5601 	subeq	r5, pc, #1048576	; 0x100000
     2d4:	78150000 	ldmdavc	r5, {}	; <UNPREDICTABLE>
     2d8:	68560100 	ldmdavs	r6, {r8}^
     2dc:	16000001 	strne	r0, [r0], -r1
     2e0:	00000363 	andeq	r0, r0, r3, ror #6
     2e4:	00375701 	eorseq	r5, r7, r1, lsl #14
     2e8:	17000000 	strne	r0, [r0, -r0]
     2ec:	0000028e 	andeq	r0, r0, lr, lsl #5
     2f0:	80109901 	andshi	r9, r0, r1, lsl #18
     2f4:	01b40000 			; <UNDEFINED> instruction: 0x01b40000
     2f8:	9c010000 	stcls	0, cr0, [r1], {-0}
     2fc:	000004fb 	strdeq	r0, [r0], -fp
     300:	01006318 	tsteq	r0, r8, lsl r3
     304:	00024f99 	muleq	r2, r9, pc	; <UNPREDICTABLE>
     308:	00000000 	andeq	r0, r0, r0
     30c:	00071900 	andeq	r1, r7, r0, lsl #18
     310:	99010000 	stmdbls	r1, {}	; <UNPREDICTABLE>
     314:	00000037 	andeq	r0, r0, r7, lsr r0
     318:	0000001e 	andeq	r0, r0, lr, lsl r0
     31c:	0001961a 	andeq	r9, r1, sl, lsl r6
     320:	0004fb00 	andeq	pc, r4, r0, lsl #22
     324:	b0030500 	andlt	r0, r3, r0, lsl #10
     328:	1b00009f 	blne	5ac <_start-0x7a54>
     32c:	a2010065 	andge	r0, r1, #101	; 0x65
     330:	00000168 	andeq	r0, r0, r8, ror #2
     334:	0000004a 	andeq	r0, r0, sl, asr #32
     338:	0002351c 	andeq	r3, r2, ip, lsl r5
     33c:	00806800 	addeq	r6, r0, r0, lsl #16
     340:	00000800 	andeq	r0, r0, r0, lsl #16
     344:	539f0100 	orrspl	r0, pc, #0, 2
     348:	1d000003 	stcne	0, cr0, [r0, #-12]
     34c:	00000245 	andeq	r0, r0, r5, asr #4
     350:	1c005401 	cfstrsne	mvf5, [r0], {1}
     354:	00000255 	andeq	r0, r0, r5, asr r2
     358:	00008094 	muleq	r0, r4, r0
     35c:	00000018 	andeq	r0, r0, r8, lsl r0
     360:	036ea001 	cmneq	lr, #1
     364:	651d0000 	ldrvs	r0, [sp, #-0]
     368:	01000002 	tsteq	r0, r2
     36c:	6f1c0054 	svcvs	0x001c0054
     370:	d0000002 	andle	r0, r0, r2
     374:	14000080 	strne	r0, [r0], #-128	; 0x80
     378:	01000000 	mrseq	r0, (UNDEF: 0)
     37c:	000389a1 	andeq	r8, r3, r1, lsr #19
     380:	027f1d00 	rsbseq	r1, pc, #0, 26
     384:	54010000 	strpl	r0, [r1], #-0
     388:	02891e00 	addeq	r1, r9, #0, 28
     38c:	81080000 	mrshi	r0, (UNDEF: 8)
     390:	00000000 	andeq	r0, r0, r0
     394:	a3010000 	movwge	r0, #4096	; 0x1000
     398:	000003d6 	ldrdeq	r0, [r0], -r6
     39c:	0002a21d 	andeq	sl, r2, sp, lsl r2
     3a0:	2bf20600 	blcs	ffc81ba8 <__bss_end__+0xffc732b0>
     3a4:	00000003 	andeq	r0, r0, r3
     3a8:	0002991d 	andeq	r9, r2, sp, lsl r9
     3ac:	1f540100 	svcne	0x00540100
     3b0:	00000000 	andeq	r0, r0, r0
     3b4:	0002ab20 	andeq	sl, r2, r0, lsr #22
     3b8:	00008000 	andeq	r8, r0, r0
     3bc:	02352100 	eorseq	r2, r5, #0, 2
     3c0:	81080000 	mrshi	r0, (UNDEF: 8)
     3c4:	00100000 	andseq	r0, r0, r0
     3c8:	43010000 	movwmi	r0, #4096	; 0x1000
     3cc:	0002451d 	andeq	r4, r2, sp, lsl r5
     3d0:	00540100 	subseq	r0, r4, r0, lsl #2
     3d4:	28220000 	stmdacs	r2!, {}	; <UNPREDICTABLE>
     3d8:	b9000080 	stmdblt	r0, {r7}
     3dc:	f600000d 			; <UNDEFINED> instruction: 0xf600000d
     3e0:	23000003 	movwcs	r0, #3
     3e4:	0a035201 	beq	d4bf0 <__bss_end__+0xc62f8>
     3e8:	01232014 	teqeq	r3, r4, lsl r0
     3ec:	23300151 	teqcs	r0, #1073741844	; 0x40000014
     3f0:	74025001 	strvc	r5, [r2], #-1
     3f4:	7c240000 	stcvc	0, cr0, [r4], #-0
     3f8:	d8000080 	stmdale	r0, {r7}
     3fc:	2200000d 	andcs	r0, r0, #13
     400:	00008090 	muleq	r0, r0, r0
     404:	00000ddf 	ldrdeq	r0, [r0], -pc	; <UNPREDICTABLE>
     408:	0000042e 	andeq	r0, r0, lr, lsr #8
     40c:	02530123 	subseq	r0, r3, #-1073741816	; 0xc0000008
     410:	01239f08 	teqeq	r3, r8, lsl #30
     414:	b0030552 	andlt	r0, r3, r2, asr r5
     418:	2300009f 	movwcs	r0, #159	; 0x9f
     41c:	03055101 	movweq	r5, #20737	; 0x5101
     420:	00009fd4 	ldrdeq	r9, [r0], -r4
     424:	05500123 	ldrbeq	r0, [r0, #-291]	; 0x123
     428:	009fb803 	addseq	fp, pc, r3, lsl #16
     42c:	94240000 	strtls	r0, [r4], #-0
     430:	f5000080 			; <UNDEFINED> instruction: 0xf5000080
     434:	2400000d 	strcs	r0, [r0], #-13
     438:	000080b8 	strheq	r8, [r0], -r8	; <UNPREDICTABLE>
     43c:	00000dd8 	ldrdeq	r0, [r0], -r8
     440:	0080cc22 	addeq	ip, r0, r2, lsr #24
     444:	000ddf00 	andeq	sp, sp, r0, lsl #30
     448:	00046f00 	andeq	r6, r4, r0, lsl #30
     44c:	53012300 	movwpl	r2, #4864	; 0x1300
     450:	23a00802 	movcs	r0, #131072	; 0x20000
     454:	03055201 	movweq	r5, #20993	; 0x5201
     458:	00009fb0 			; <UNDEFINED> instruction: 0x00009fb0
     45c:	05510123 	ldrbeq	r0, [r1, #-291]	; 0x123
     460:	009fd403 	addseq	sp, pc, r3, lsl #8
     464:	50012300 	andpl	r2, r1, r0, lsl #6
     468:	a0280305 	eorge	r0, r8, r5, lsl #6
     46c:	24000000 	strcs	r0, [r0], #-0
     470:	000080d0 	ldrdeq	r8, [r0], -r0
     474:	00000df5 	strdeq	r0, [r0], -r5
     478:	0080f024 	addeq	pc, r0, r4, lsr #32
     47c:	000dd800 	andeq	sp, sp, r0, lsl #16
     480:	81042200 	mrshi	r2, R12_usr
     484:	0ddf0000 	ldcleq	0, cr0, [pc]	; 48c <_start-0x7b74>
     488:	04b00000 	ldrteq	r0, [r0], #0
     48c:	01230000 	teqeq	r3, r0
     490:	a1080253 	tstge	r8, r3, asr r2
     494:	05520123 	ldrbeq	r0, [r2, #-291]	; 0x123
     498:	009fb003 	addseq	fp, pc, r3
     49c:	51012300 	mrspl	r2, SP_irq
     4a0:	9fd40305 	svcls	0x00d40305
     4a4:	01230000 	teqeq	r3, r0
     4a8:	44030550 	strmi	r0, [r3], #-1360	; 0x550
     4ac:	000000a0 	andeq	r0, r0, r0, lsr #1
     4b0:	00810824 	addeq	r0, r1, r4, lsr #16
     4b4:	000df500 	andeq	pc, sp, r0, lsl #10
     4b8:	817c2400 	cmnhi	ip, r0, lsl #8
     4bc:	0dd80000 	ldcleq	0, cr0, [r8]
     4c0:	90220000 	eorls	r0, r2, r0
     4c4:	df000081 	svcle	0x00000081
     4c8:	f100000d 	cps	#13
     4cc:	23000004 	movwcs	r0, #4
     4d0:	08025301 	stmdaeq	r2, {r0, r8, r9, ip, lr}
     4d4:	520123a3 	andpl	r2, r1, #-1946157054	; 0x8c000002
     4d8:	9fb00305 	svcls	0x00b00305
     4dc:	01230000 	teqeq	r3, r0
     4e0:	d4030551 	strle	r0, [r3], #-1361	; 0x551
     4e4:	2300009f 	movwcs	r0, #159	; 0x9f
     4e8:	03055001 	movweq	r5, #20481	; 0x5001
     4ec:	0000a068 	andeq	sl, r0, r8, rrx
     4f0:	81942400 	orrshi	r2, r4, r0, lsl #8
     4f4:	0df50000 	ldcleq	0, cr0, [r5]
     4f8:	07000000 	streq	r0, [r0, -r0]
     4fc:	000000a7 	andeq	r0, r0, r7, lsr #1
     500:	00021725 	andeq	r1, r2, r5, lsr #14
     504:	25350200 	ldrcs	r0, [r5, #-512]!	; 0x200
     508:	c4000000 	strgt	r0, [r0], #-0
     50c:	28000081 	stmdacs	r0, {r0, r7}
     510:	01000000 	mrseq	r0, (UNDEF: 0)
     514:	0005369c 	muleq	r5, ip, r6
     518:	02352100 	eorseq	r2, r5, #0, 2
     51c:	81c40000 	bichi	r0, r4, r0
     520:	00140000 	andseq	r0, r4, r0
     524:	36020000 	strcc	r0, [r2], -r0
     528:	0002451d 	andeq	r4, r2, sp, lsl r5
     52c:	b8030600 	stmdalt	r3, {r9, sl}
     530:	9f0000a4 	svcls	0x000000a4
     534:	8a260000 	bhi	98053c <__bss_end__+0x971c44>
     538:	02000004 	andeq	r0, r0, #4
     53c:	0081ec39 	addeq	lr, r1, r9, lsr ip
     540:	00005400 	andeq	r5, r0, r0, lsl #8
     544:	dc9c0100 	ldfles	f0, [ip], {0}
     548:	19000005 	stmdbne	r0, {r0, r2}
     54c:	000000be 	strheq	r0, [r0], -lr
     550:	00373902 	eorseq	r3, r7, r2, lsl #18
     554:	00a00000 	adceq	r0, r0, r0
     558:	65270000 	strvs	r0, [r7, #-0]!
     55c:	02000002 	andeq	r0, r0, #2
     560:	0000373b 	andeq	r3, r0, fp, lsr r7
     564:	0000cc00 	andeq	ip, r0, r0, lsl #24
     568:	81f82400 	mvnshi	r2, r0, lsl #8
     56c:	0dfc0000 	ldcleq	0, cr0, [ip]
     570:	00220000 	eoreq	r0, r2, r0
     574:	03000082 	movweq	r0, #130	; 0x82
     578:	8900000e 	stmdbhi	r0, {r1, r2, r3}
     57c:	23000005 	movwcs	r0, #5
     580:	0c055001 	stceq	0, cr5, [r5], {1}
     584:	20215044 	eorcs	r5, r1, r4, asr #32
     588:	82142200 	andshi	r2, r4, #0, 4
     58c:	0e240000 	cdpeq	0, 2, cr0, cr4, cr0, {0}
     590:	05a00000 	streq	r0, [r0, #0]!
     594:	01230000 	teqeq	r3, r0
     598:	440c0550 	strmi	r0, [ip], #-1360	; 0x550
     59c:	00202150 	eoreq	r2, r0, r0, asr r1
     5a0:	00822822 	addeq	r2, r2, r2, lsr #16
     5a4:	000e2400 	andeq	r2, lr, r0, lsl #8
     5a8:	0005b900 	andeq	fp, r5, r0, lsl #18
     5ac:	51012300 	mrspl	r2, SP_irq
     5b0:	01233001 	teqeq	r3, r1
     5b4:	00740250 	rsbseq	r0, r4, r0, asr r2
     5b8:	82342200 	eorshi	r2, r4, #0, 4
     5bc:	0e240000 	cdpeq	0, 2, cr0, cr4, cr0, {0}
     5c0:	05d20000 	ldrbeq	r0, [r2]
     5c4:	01230000 	teqeq	r3, r0
     5c8:	23310151 	teqcs	r1, #1073741844	; 0x40000014
     5cc:	74025001 	strvc	r5, [r2], #-1
     5d0:	38240000 	stmdacc	r4!, {}	; <UNPREDICTABLE>
     5d4:	fc000082 	stc2	0, cr0, [r0], {130}	; 0x82
     5d8:	0000000d 	andeq	r0, r0, sp
     5dc:	000c5f26 	andeq	r5, ip, r6, lsr #30
     5e0:	404b0200 	submi	r0, fp, r0, lsl #4
     5e4:	48000082 	stmdami	r0, {r1, r7}
     5e8:	01000001 	tsteq	r0, r1
     5ec:	0007549c 	muleq	r7, ip, r4
     5f0:	63701800 	cmnvs	r0, #0, 16
     5f4:	374b0200 	strbcc	r0, [fp, -r0, lsl #4]
     5f8:	f5000000 			; <UNDEFINED> instruction: 0xf5000000
     5fc:	27000000 	strcs	r0, [r0, -r0]
     600:	00000265 	andeq	r0, r0, r5, ror #4
     604:	00374e02 	eorseq	r4, r7, r2, lsl #28
     608:	01160000 	tsteq	r6, r0
     60c:	58280000 	stmdapl	r8!, {}	; <UNPREDICTABLE>
     610:	3c000082 	stccc	0, cr0, [r0], {130}	; 0x82
     614:	86000000 	strhi	r0, [r0], -r0
     618:	27000006 	strcs	r0, [r0, -r6]
     61c:	000002e7 	andeq	r0, r0, r7, ror #5
     620:	00375202 	eorseq	r5, r7, r2, lsl #4
     624:	014a0000 	mrseq	r0, (UNDEF: 74)
     628:	bd1c0000 	ldclt	0, cr0, [ip, #-0]
     62c:	60000002 	andvs	r0, r0, r2
     630:	34000082 	strcc	r0, [r0], #-130	; 0x82
     634:	02000000 	andeq	r0, r0, #0
     638:	00067c54 	andeq	r7, r6, r4, asr ip
     63c:	02d62900 	sbcseq	r2, r6, #0, 18
     640:	015d0000 	cmpeq	sp, r0
     644:	cd290000 	stcgt	0, cr0, [r9, #-0]
     648:	70000002 	andvc	r0, r0, r2
     64c:	2a000001 	bcs	658 <_start-0x79a8>
     650:	00008260 	andeq	r8, r0, r0, ror #4
     654:	00000034 	andeq	r0, r0, r4, lsr r0
     658:	0002df20 	andeq	sp, r2, r0, lsr #30
     65c:	00018800 	andeq	r8, r1, r0, lsl #16
     660:	02552100 	subseq	r2, r5, #0, 2
     664:	82640000 	rsbhi	r0, r4, #0
     668:	00100000 	andseq	r0, r0, r0
     66c:	58010000 	stmdapl	r1, {}	; <UNPREDICTABLE>
     670:	00026529 	andeq	r6, r2, r9, lsr #10
     674:	00019b00 	andeq	r9, r1, r0, lsl #22
     678:	00000000 	andeq	r0, r0, r0
     67c:	00825c24 	addeq	r5, r2, r4, lsr #24
     680:	000e4000 	andeq	r4, lr, r0
     684:	551c0000 	ldrpl	r0, [ip, #-0]
     688:	94000002 	strls	r0, [r0], #-2
     68c:	1c000082 	stcne	0, cr0, [r0], {130}	; 0x82
     690:	02000000 	andeq	r0, r0, #0
     694:	0006a351 	andeq	sl, r6, r1, asr r3
     698:	02652900 	rsbeq	r2, r5, #0, 18
     69c:	01b30000 			; <UNDEFINED> instruction: 0x01b30000
     6a0:	1e000000 	cdpne	0, 0, cr0, cr0, cr0, {0}
     6a4:	00000289 	andeq	r0, r0, r9, lsl #5
     6a8:	000082e0 	andeq	r8, r0, r0, ror #5
     6ac:	00000018 	andeq	r0, r0, r8, lsl r0
     6b0:	06f15902 	ldrbteq	r5, [r1], r2, lsl #18
     6b4:	a2290000 	eorge	r0, r9, #0
     6b8:	db000002 	blle	6c8 <_start-0x7938>
     6bc:	29000001 	stmdbcs	r0, {r0}
     6c0:	00000299 	muleq	r0, r9, r2
     6c4:	00000203 	andeq	r0, r0, r3, lsl #4
     6c8:	0000181f 	andeq	r1, r0, pc, lsl r8
     6cc:	02ab2000 	adceq	r2, fp, #0
     6d0:	022b0000 	eoreq	r0, fp, #0
     6d4:	352b0000 	strcc	r0, [fp, #-0]!
     6d8:	e0000002 	and	r0, r0, r2
     6dc:	30000082 	andcc	r0, r0, r2, lsl #1
     6e0:	01000000 	mrseq	r0, (UNDEF: 0)
     6e4:	02452943 	subeq	r2, r5, #1097728	; 0x10c000
     6e8:	02030000 	andeq	r0, r3, #0
     6ec:	00000000 	andeq	r0, r0, r0
     6f0:	02351c00 	eorseq	r1, r5, #0, 24
     6f4:	83440000 	movthi	r0, #16384	; 0x4000
     6f8:	00140000 	andseq	r0, r4, r0
     6fc:	5d020000 	stcpl	0, cr0, [r2, #-0]
     700:	00000711 	andeq	r0, r0, r1, lsl r7
     704:	0002451d 	andeq	r4, r2, sp, lsl r5
     708:	d0030600 	andle	r0, r3, r0, lsl #12
     70c:	9f0000c4 	svcls	0x000000c4
     710:	824c2200 	subhi	r2, ip, #0, 4
     714:	0e030000 	cdpeq	0, 0, cr0, cr3, cr0, {0}
     718:	07280000 	streq	r0, [r8, -r0]!
     71c:	01230000 	teqeq	r3, r0
     720:	480c0550 	stmdami	ip, {r4, r6, r8, sl}
     724:	00202150 	eoreq	r2, r0, r0, asr r1
     728:	0082bc24 	addeq	fp, r2, r4, lsr #24
     72c:	000e4b00 	andeq	r4, lr, r0, lsl #22
     730:	82dc2400 	sbcshi	r2, ip, #0, 8
     734:	0e560000 	cdpeq	0, 5, cr0, cr6, cr0, {0}
     738:	f8240000 			; <UNDEFINED> instruction: 0xf8240000
     73c:	67000082 	strvs	r0, [r0, -r2, lsl #1]
     740:	2c00000e 	stccs	0, cr0, [r0], {14}
     744:	00008368 	andeq	r8, r0, r8, ror #6
     748:	00000536 	andeq	r0, r0, r6, lsr r5
     74c:	02500123 	subseq	r0, r0, #-1073741816	; 0xc0000008
     750:	00000078 	andeq	r0, r0, r8, ror r0
     754:	0001ce26 	andeq	ip, r1, r6, lsr #28
     758:	88630200 	stmdahi	r3!, {r9}^
     75c:	e0000083 	and	r0, r0, r3, lsl #1
     760:	01000000 	mrseq	r0, (UNDEF: 0)
     764:	00086c9c 	muleq	r8, ip, ip
     768:	00631800 	rsbeq	r1, r3, r0, lsl #16
     76c:	00656302 	rsbeq	r6, r5, r2, lsl #6
     770:	024d0000 	subeq	r0, sp, #0
     774:	641b0000 	ldrvs	r0, [fp], #-0
     778:	65680200 	strbvs	r0, [r8, #-512]!	; 0x200
     77c:	6e000000 	cdpvs	0, 0, cr0, cr0, cr0, {0}
     780:	1c000002 	stcne	0, cr0, [r0], {2}
     784:	000002bd 			; <UNDEFINED> instruction: 0x000002bd
     788:	00008394 	muleq	r0, r4, r3
     78c:	00000048 	andeq	r0, r0, r8, asr #32
     790:	07db6502 	ldrbeq	r6, [fp, r2, lsl #10]
     794:	d6290000 	strtle	r0, [r9], -r0
     798:	8c000002 	stchi	0, cr0, [r0], {2}
     79c:	1d000002 	stcne	0, cr0, [r0, #-8]
     7a0:	000002cd 	andeq	r0, r0, sp, asr #5
     7a4:	c4d00306 	ldrbgt	r0, [r0], #774	; 0x306
     7a8:	2a9f0000 	bcs	fe7c07b0 <__bss_end__+0xfe7b1eb8>
     7ac:	00008394 	muleq	r0, r4, r3
     7b0:	00000048 	andeq	r0, r0, r8, asr #32
     7b4:	0002df20 	andeq	sp, r2, r0, lsr #30
     7b8:	00029f00 	andeq	r9, r2, r0, lsl #30
     7bc:	02552100 	subseq	r2, r5, #0, 2
     7c0:	83a00000 	movhi	r0, #0
     7c4:	00140000 	andseq	r0, r4, r0
     7c8:	58010000 	stmdapl	r1, {}	; <UNPREDICTABLE>
     7cc:	0002651d 	andeq	r6, r2, sp, lsl r5
     7d0:	d0030600 	andle	r0, r3, r0, lsl #12
     7d4:	9f0000c4 	svcls	0x000000c4
     7d8:	1e000000 	cdpne	0, 0, cr0, cr0, cr0, {0}
     7dc:	00000289 	andeq	r0, r0, r9, lsl #5
     7e0:	000083e4 	andeq	r8, r0, r4, ror #7
     7e4:	00000048 	andeq	r0, r0, r8, asr #32
     7e8:	08296902 	stmdaeq	r9!, {r1, r8, fp, sp, lr}
     7ec:	a2290000 	eorge	r0, r9, #0
     7f0:	c1000002 	tstgt	r0, r2
     7f4:	29000002 	stmdbcs	r0, {r1}
     7f8:	00000299 	muleq	r0, r9, r2
     7fc:	000002e9 	andeq	r0, r0, r9, ror #5
     800:	0000481f 	andeq	r4, r0, pc, lsl r8
     804:	02ab2000 	adceq	r2, fp, #0
     808:	03110000 	tsteq	r1, #0
     80c:	352b0000 	strcc	r0, [fp, #-0]!
     810:	e4000002 	str	r0, [r0], #-2
     814:	60000083 	andvs	r0, r0, r3, lsl #1
     818:	01000000 	mrseq	r0, (UNDEF: 0)
     81c:	02452943 	subeq	r2, r5, #1097728	; 0x10c000
     820:	02e90000 	rsceq	r0, r9, #0
     824:	00000000 	andeq	r0, r0, r0
     828:	83942400 	orrshi	r2, r4, #0, 8
     82c:	0e720000 	cdpeq	0, 7, cr0, cr2, cr0, {0}
     830:	e4220000 	strt	r0, [r2], #-0
     834:	36000083 	strcc	r0, [r0], -r3, lsl #1
     838:	45000005 	strmi	r0, [r0, #-5]
     83c:	23000008 	movwcs	r0, #8
     840:	31015001 	tstcc	r1, r1
     844:	84042200 	strhi	r2, [r4], #-512	; 0x200
     848:	0e560000 	cdpeq	0, 5, cr0, cr6, cr0, {0}
     84c:	08590000 	ldmdaeq	r9, {}^	; <UNPREDICTABLE>
     850:	01230000 	teqeq	r3, r0
     854:	00760250 	rsbseq	r0, r6, r0, asr r2
     858:	84082400 	strhi	r2, [r8], #-1024	; 0x400
     85c:	0e670000 	cdpeq	0, 6, cr0, cr7, cr0, {0}
     860:	58240000 	stmdapl	r4!, {}	; <UNPREDICTABLE>
     864:	79000084 	stmdbvc	r0, {r2, r7}
     868:	0000000e 	andeq	r0, r0, lr
     86c:	00011b25 	andeq	r1, r1, r5, lsr #22
     870:	25700200 	ldrbcs	r0, [r0, #-512]!	; 0x200
     874:	68000000 	stmdavs	r0, {}	; <UNPREDICTABLE>
     878:	78000084 	stmdavc	r0, {r2, r7}
     87c:	01000000 	mrseq	r0, (UNDEF: 0)
     880:	0009039c 	muleq	r9, ip, r3
     884:	035e2700 	cmpeq	lr, #0, 14
     888:	72020000 	andvc	r0, r2, #0
     88c:	00000065 	andeq	r0, r0, r5, rrx
     890:	00000333 	andeq	r0, r0, r3, lsr r3
     894:	0002351c 	andeq	r3, r2, ip, lsl r5
     898:	00846800 	addeq	r6, r4, r0, lsl #16
     89c:	00001400 	andeq	r1, r0, r0, lsl #8
     8a0:	b4730200 	ldrbtlt	r0, [r3], #-512	; 0x200
     8a4:	1d000008 	stcne	0, cr0, [r0, #-32]	; 0xffffffe0
     8a8:	00000245 	andeq	r0, r0, r5, asr #4
     8ac:	a4b80306 	ldrtge	r0, [r8], #774	; 0x306
     8b0:	009f0000 	addseq	r0, pc, r0
     8b4:	00028921 	andeq	r8, r2, r1, lsr #18
     8b8:	00848400 	addeq	r8, r4, r0, lsl #8
     8bc:	00004000 	andeq	r4, r0, r0
     8c0:	29740200 	ldmdbcs	r4!, {r9}^
     8c4:	000002a2 	andeq	r0, r0, r2, lsr #5
     8c8:	0000036b 	andeq	r0, r0, fp, ror #6
     8cc:	00029929 	andeq	r9, r2, r9, lsr #18
     8d0:	00039300 	andeq	r9, r3, r0, lsl #6
     8d4:	84842a00 	strhi	r2, [r4], #2560	; 0xa00
     8d8:	00400000 	subeq	r0, r0, r0
     8dc:	ab200000 	blge	8008e4 <__bss_end__+0x7f1fec>
     8e0:	bb000002 	bllt	8f0 <_start-0x7710>
     8e4:	21000003 	tstcs	r0, r3
     8e8:	00000235 	andeq	r0, r0, r5, lsr r2
     8ec:	00008484 	andeq	r8, r0, r4, lsl #9
     8f0:	00000010 	andeq	r0, r0, r0, lsl r0
     8f4:	45294301 	strmi	r4, [r9, #-769]!	; 0x301
     8f8:	93000002 	movwls	r0, #2
     8fc:	00000003 	andeq	r0, r0, r3
     900:	26000000 	strcs	r0, [r0], -r0
     904:	0000052d 	andeq	r0, r0, sp, lsr #10
     908:	84e07a02 	strbthi	r7, [r0], #2562	; 0xa02
     90c:	00240000 	eoreq	r0, r4, r0
     910:	9c010000 	stcls	0, cr0, [r1], {-0}
     914:	00000931 	andeq	r0, r0, r1, lsr r9
     918:	72747318 	rsbsvc	r7, r4, #24, 6	; 0x60000000
     91c:	9c7a0200 	lfmls	f0, 2, [sl], #-0
     920:	dd000000 	stcle	0, cr0, [r0, #-0]
     924:	24000003 	strcs	r0, [r0], #-3
     928:	000084f0 	strdeq	r8, [r0], -r0
     92c:	00000754 	andeq	r0, r0, r4, asr r7
     930:	003e2600 	eorseq	r2, lr, r0, lsl #12
     934:	7f020000 	svcvc	0x00020000
     938:	00008504 	andeq	r8, r0, r4, lsl #10
     93c:	000000bc 	strheq	r0, [r0], -ip
     940:	0a859c01 	beq	fe16794c <__bss_end__+0xfe159054>
     944:	0c240000 	stceq	0, cr0, [r4], #-0
     948:	fc000085 	stc2	0, cr0, [r0], {133}	; 0x85
     94c:	2200000d 	andcs	r0, r0, #13
     950:	00008518 	andeq	r8, r0, r8, lsl r5
     954:	00000e80 	andeq	r0, r0, r0, lsl #29
     958:	00000967 	andeq	r0, r0, r7, ror #18
     95c:	01510123 	cmpeq	r1, r3, lsr #2
     960:	50012332 	andpl	r2, r1, r2, lsr r3
     964:	22003e01 	andcs	r3, r0, #1, 28
     968:	00008524 	andeq	r8, r0, r4, lsr #10
     96c:	00000e80 	andeq	r0, r0, r0, lsl #29
     970:	0000097f 	andeq	r0, r0, pc, ror r9
     974:	01510123 	cmpeq	r1, r3, lsr #2
     978:	50012332 	andpl	r2, r1, r2, lsr r3
     97c:	24003f01 	strcs	r3, [r0], #-3841	; 0xf01
     980:	00008528 	andeq	r8, r0, r8, lsr #10
     984:	00000dfc 	strdeq	r0, [r0], -ip
     988:	00853422 	addeq	r3, r5, r2, lsr #8
     98c:	000e0300 	andeq	r0, lr, r0, lsl #6
     990:	00099c00 	andeq	r9, r9, r0, lsl #24
     994:	50012300 	andpl	r2, r1, r0, lsl #6
     998:	00007402 	andeq	r7, r0, r2, lsl #8
     99c:	00854022 	addeq	r4, r5, r2, lsr #32
     9a0:	000e2400 	andeq	r2, lr, r0, lsl #8
     9a4:	0009b000 	andeq	fp, r9, r0
     9a8:	50012300 	andpl	r2, r1, r0, lsl #6
     9ac:	00007402 	andeq	r7, r0, r2, lsl #8
     9b0:	00854424 	addeq	r4, r5, r4, lsr #8
     9b4:	000dfc00 	andeq	pc, sp, r0, lsl #24
     9b8:	85542200 	ldrbhi	r2, [r4, #-512]	; 0x200
     9bc:	0e240000 	cdpeq	0, 2, cr0, cr4, cr0, {0}
     9c0:	09d20000 	ldmibeq	r2, {}^	; <UNPREDICTABLE>
     9c4:	01230000 	teqeq	r3, r0
     9c8:	23300151 	teqcs	r0, #1073741844	; 0x40000014
     9cc:	74025001 	strvc	r5, [r2], #-1
     9d0:	60220000 	eorvs	r0, r2, r0
     9d4:	24000085 	strcs	r0, [r0], #-133	; 0x85
     9d8:	ee00000e 	cdp	0, 0, cr0, cr0, cr14, {0}
     9dc:	23000009 	movwcs	r0, #9
     9e0:	33015101 	movwcc	r5, #4353	; 0x1101
     9e4:	05500123 	ldrbeq	r0, [r0, #-291]	; 0x123
     9e8:	2150440c 	cmpcs	r0, ip, lsl #8
     9ec:	6c220020 	stcvs	0, cr0, [r2], #-128	; 0xffffff80
     9f0:	24000085 	strcs	r0, [r0], #-133	; 0x85
     9f4:	0a00000e 	beq	a34 <_start-0x75cc>
     9f8:	2300000a 	movwcs	r0, #10
     9fc:	36015101 	strcc	r5, [r1], -r1, lsl #2
     a00:	05500123 	ldrbeq	r0, [r0, #-291]	; 0x123
     a04:	2150480c 	cmpcs	r0, ip, lsl #16
     a08:	78220020 	stmdavc	r2!, {r5}
     a0c:	24000085 	strcs	r0, [r0], #-133	; 0x85
     a10:	2600000e 	strcs	r0, [r0], -lr
     a14:	2300000a 	movwcs	r0, #10
     a18:	33015101 	movwcc	r5, #4353	; 0x1101
     a1c:	05500123 	ldrbeq	r0, [r0, #-291]	; 0x123
     a20:	21504c0c 	cmpcs	r0, ip, lsl #24
     a24:	84220020 	strthi	r0, [r2], #-32
     a28:	24000085 	strcs	r0, [r0], #-133	; 0x85
     a2c:	4400000e 	strmi	r0, [r0], #-14
     a30:	2300000a 	movwcs	r0, #10
     a34:	0a035101 	beq	d4e40 <__bss_end__+0xc6548>
     a38:	0123010e 	teqeq	r3, lr, lsl #2
     a3c:	680c0550 	stmdavs	ip, {r4, r6, r8, sl}
     a40:	00202150 	eoreq	r2, r0, r0, asr r1
     a44:	00859022 	addeq	r9, r5, r2, lsr #32
     a48:	000e2400 	andeq	r2, lr, r0, lsl #8
     a4c:	000a5d00 	andeq	r5, sl, r0, lsl #26
     a50:	51012300 	mrspl	r2, SP_irq
     a54:	01233301 	teqeq	r3, r1, lsl #6
     a58:	00740250 	rsbseq	r0, r4, r0, asr r2
     a5c:	859c2200 	ldrhi	r2, [ip, #512]	; 0x200
     a60:	0e240000 	cdpeq	0, 2, cr0, cr4, cr0, {0}
     a64:	0a7b0000 	beq	1ec0a6c <__bss_end__+0x1eb2174>
     a68:	01230000 	teqeq	r3, r0
     a6c:	49400351 	stmdbmi	r0, {r0, r4, r6, r8, r9}^
     a70:	50012324 	andpl	r2, r1, r4, lsr #6
     a74:	b2100c05 	andslt	r0, r0, #1280	; 0x500
     a78:	24002000 	strcs	r2, [r0], #-0
     a7c:	000085a0 	andeq	r8, r0, r0, lsr #11
     a80:	00000dfc 	strdeq	r0, [r0], -ip
     a84:	00252d00 	eoreq	r2, r5, r0, lsl #26
     a88:	9a020000 	bls	80a90 <__bss_end__+0x72198>
     a8c:	000085c0 	andeq	r8, r0, r0, asr #11
     a90:	000000e4 	andeq	r0, r0, r4, ror #1
     a94:	0c3e9c01 	ldceq	12, cr9, [lr], #-4
     a98:	742e0000 	strtvc	r0, [lr], #-0
     a9c:	cf020078 	svcgt	0x00020078
     aa0:	00000037 	andeq	r0, r0, r7, lsr r0
     aa4:	78722e14 	ldmdavc	r2!, {r2, r4, r9, sl, fp, sp}^
     aa8:	37cf0200 	strbcc	r0, [pc, r0, lsl #4]
     aac:	15000000 	strne	r0, [r0, #-0]
     ab0:	0200732f 	andeq	r7, r0, #-1140850688	; 0xbc000000
     ab4:	00022ad0 	ldrdeq	r2, [r2], -r0
     ab8:	64910200 	ldrvs	r0, [r1], #512	; 0x200
     abc:	00862428 	addeq	r2, r6, r8, lsr #8
     ac0:	00004c00 	andeq	r4, r0, r0, lsl #24
     ac4:	000b4000 	andeq	r4, fp, r0
     ac8:	00691b00 	rsbeq	r1, r9, r0, lsl #22
     acc:	0025d402 	eoreq	sp, r5, r2, lsl #8
     ad0:	03fb0000 	mvnseq	r0, #0
     ad4:	2c280000 	stccs	0, cr0, [r8], #-0
     ad8:	30000086 	andcc	r0, r0, r6, lsl #1
     adc:	36000000 	strcc	r0, [r0], -r0
     ae0:	1b00000b 	blne	b14 <_start-0x74ec>
     ae4:	d6020063 	strle	r0, [r2], -r3, rrx
     ae8:	00000025 	andeq	r0, r0, r5, lsr #32
     aec:	0000041a 	andeq	r0, r0, sl, lsl r4
     af0:	00863024 	addeq	r3, r6, r4, lsr #32
     af4:	00086c00 	andeq	r6, r8, r0, lsl #24
     af8:	86382400 	ldrthi	r2, [r8], -r0, lsl #8
     afc:	0e720000 	cdpeq	0, 7, cr0, cr2, cr0, {0}
     b00:	48220000 	stmdami	r2!, {}	; <UNPREDICTABLE>
     b04:	96000086 	strls	r0, [r0], -r6, lsl #1
     b08:	1c00000e 	stcne	0, cr0, [r0], {14}
     b0c:	2300000b 	movwcs	r0, #11
     b10:	75025101 	strvc	r5, [r2, #-257]	; 0x101
     b14:	50012300 	andpl	r2, r1, r0, lsl #6
     b18:	005c9102 	subseq	r9, ip, r2, lsl #2
     b1c:	00864c24 	addeq	r4, r6, r4, lsr #24
     b20:	000e7900 	andeq	r7, lr, r0, lsl #18
     b24:	86542c00 	ldrbhi	r2, [r4], -r0, lsl #24
     b28:	07540000 	ldrbeq	r0, [r4, -r0]
     b2c:	01230000 	teqeq	r3, r0
     b30:	00750250 	rsbseq	r0, r5, r0, asr r2
     b34:	60240000 	eorvs	r0, r4, r0
     b38:	00000086 	andeq	r0, r0, r6, lsl #1
     b3c:	00000005 	andeq	r0, r0, r5
     b40:	0085cc24 	addeq	ip, r5, r4, lsr #24
     b44:	000eb200 	andeq	fp, lr, r0, lsl #4
     b48:	85d02400 	ldrbhi	r2, [r0, #1024]	; 0x400
     b4c:	09310000 	ldmdbeq	r1!, {}	; <UNPREDICTABLE>
     b50:	dc220000 	stcle	0, cr0, [r2], #-0
     b54:	eb000085 	bl	d70 <_start-0x7290>
     b58:	6e000002 	cdpvs	0, 0, cr0, cr0, cr2, {0}
     b5c:	2300000b 	movwcs	r0, #11
     b60:	31015101 	tstcc	r1, r1, lsl #2
     b64:	05500123 	ldrbeq	r0, [r0, #-291]	; 0x123
     b68:	00a4b803 	adceq	fp, r4, r3, lsl #16
     b6c:	e8220000 	stmda	r2!, {}	; <UNPREDICTABLE>
     b70:	eb000085 	bl	d8c <_start-0x7274>
     b74:	8a000002 	bhi	b84 <_start-0x747c>
     b78:	2300000b 	movwcs	r0, #11
     b7c:	31015101 	tstcc	r1, r1, lsl #2
     b80:	05500123 	ldrbeq	r0, [r0, #-291]	; 0x123
     b84:	00c4d003 	sbceq	sp, r4, r3
     b88:	f4220000 	vld4.8	{d0-d3}, [r2], r0
     b8c:	24000085 	strcs	r0, [r0], #-133	; 0x85
     b90:	a600000e 	strge	r0, [r0], -lr
     b94:	2300000b 	movwcs	r0, #11
     b98:	3d015101 	stfccs	f5, [r1, #-4]
     b9c:	05500123 	ldrbeq	r0, [r0, #-291]	; 0x123
     ba0:	2150400c 	cmpcs	r0, ip
     ba4:	f8240020 			; <UNDEFINED> instruction: 0xf8240020
     ba8:	fc000085 	stc2	0, cr0, [r0], {133}	; 0x85
     bac:	2400000d 	strcs	r0, [r0], #-13
     bb0:	000085fc 	strdeq	r8, [r0], -ip
     bb4:	00000e79 	andeq	r0, r0, r9, ror lr
     bb8:	00860024 	addeq	r0, r6, r4, lsr #32
     bbc:	000dfc00 	andeq	pc, sp, r0, lsl #24
     bc0:	861c2200 	ldrhi	r2, [ip], -r0, lsl #4
     bc4:	0eb90000 	cdpeq	0, 11, cr0, cr9, cr0, {0}
     bc8:	0bef0000 	bleq	ffbc0bd0 <__bss_end__+0xffbb22d8>
     bcc:	01230000 	teqeq	r3, r0
     bd0:	e1080453 	tst	r8, r3, asr r4
     bd4:	01232439 	teqeq	r3, r9, lsr r4
     bd8:	23450152 	movtcs	r0, #20818	; 0x5152
     bdc:	44015101 	strmi	r5, [r1], #-257	; 0x101
     be0:	02500123 	subseq	r0, r0, #-1073741816	; 0xc0000008
     be4:	02235c91 	eoreq	r5, r3, #37120	; 0x9100
     be8:	0a03007d 	beq	c0de4 <__bss_end__+0xb24ec>
     bec:	220017bc 	andcs	r1, r0, #188, 14	; 0x2f00000
     bf0:	00008624 	andeq	r8, r0, r4, lsr #12
     bf4:	00000ddf 	ldrdeq	r0, [r0], -pc	; <UNPREDICTABLE>
     bf8:	00000c06 	andeq	r0, r0, r6, lsl #24
     bfc:	05500123 	ldrbeq	r0, [r0, #-291]	; 0x123
     c00:	00a0a003 	adceq	sl, r0, r3
     c04:	78220000 	stmdavc	r2!, {}	; <UNPREDICTABLE>
     c08:	df000086 	svcle	0x00000086
     c0c:	1d00000d 	stcne	0, cr0, [r0, #-52]	; 0xffffffcc
     c10:	2300000c 	movwcs	r0, #12
     c14:	03055001 	movweq	r5, #20481	; 0x5001
     c18:	0000a0c4 	andeq	sl, r0, r4, asr #1
     c1c:	86802200 	strhi	r2, [r0], r0, lsl #4
     c20:	0ddf0000 	ldcleq	0, cr0, [pc]	; c28 <_start-0x73d8>
     c24:	0c340000 	ldceq	0, cr0, [r4], #-0
     c28:	01230000 	teqeq	r3, r0
     c2c:	dc030550 	cfstr32le	mvfx0, [r3], {80}	; 0x50
     c30:	000000a0 	andeq	r0, r0, r0, lsr #1
     c34:	00868424 	addeq	r8, r6, r4, lsr #8
     c38:	000df500 	andeq	pc, sp, r0, lsl #10
     c3c:	c7300000 	ldrgt	r0, [r0, -r0]!
     c40:	02000002 	andeq	r0, r0, #2
     c44:	000c4d0d 	andeq	r4, ip, sp, lsl #26
     c48:	21500000 	cmpcs	r0, r0
     c4c:	e3040620 	movw	r0, #17952	; 0x4620
     c50:	30000001 	andcc	r0, r0, r1
     c54:	0000010f 	andeq	r0, r0, pc, lsl #2
     c58:	0c620e02 	stcleq	14, cr0, [r2], #-8
     c5c:	50040000 	andpl	r0, r4, r0
     c60:	4d072021 	stcmi	0, cr2, [r7, #-132]	; 0xffffff7c
     c64:	3000000c 	andcc	r0, r0, ip
     c68:	00000161 	andeq	r0, r0, r1, ror #2
     c6c:	0c761102 	ldfeqe	f1, [r6], #-8
     c70:	50400000 	subpl	r0, r0, r0
     c74:	4d072021 	stcmi	0, cr2, [r7, #-132]	; 0xffffff7c
     c78:	3000000c 	andcc	r0, r0, ip
     c7c:	00000229 	andeq	r0, r0, r9, lsr #4
     c80:	0c8a1202 	sfmeq	f1, 4, [sl], {2}
     c84:	50440000 	subpl	r0, r4, r0
     c88:	4d072021 	stcmi	0, cr2, [r7, #-132]	; 0xffffff7c
     c8c:	3000000c 	andcc	r0, r0, ip
     c90:	0000029f 	muleq	r0, pc, r2	; <UNPREDICTABLE>
     c94:	0c9e1302 	ldceq	3, cr1, [lr], {2}
     c98:	50480000 	subpl	r0, r8, r0
     c9c:	4d072021 	stcmi	0, cr2, [r7, #-132]	; 0xffffff7c
     ca0:	3000000c 	andcc	r0, r0, ip
     ca4:	000001a3 	andeq	r0, r0, r3, lsr #3
     ca8:	0cb21402 	cfldrseq	mvf1, [r2], #8
     cac:	504c0000 	subpl	r0, ip, r0
     cb0:	4d072021 	stcmi	0, cr2, [r7, #-132]	; 0xffffff7c
     cb4:	3000000c 	andcc	r0, r0, ip
     cb8:	000004f6 	strdeq	r0, [r0], -r6
     cbc:	0c4d1502 	cfstr64eq	mvdx1, [sp], {2}
     cc0:	50500000 	subspl	r0, r0, r0
     cc4:	00302021 	eorseq	r2, r0, r1, lsr #32
     cc8:	02000001 	andeq	r0, r0, #1
     ccc:	000c4d16 	andeq	r4, ip, r6, lsl sp
     cd0:	21505400 	cmpcs	r0, r0, lsl #8
     cd4:	01dc3020 	bicseq	r3, ip, r0, lsr #32
     cd8:	17020000 	strne	r0, [r2, -r0]
     cdc:	00000c4d 	andeq	r0, r0, sp, asr #24
     ce0:	20215058 	eorcs	r5, r1, r8, asr r0
     ce4:	00001630 	andeq	r1, r0, r0, lsr r6
     ce8:	4d180200 	lfmmi	f0, 4, [r8, #-0]
     cec:	5c00000c 	stcpl	0, cr0, [r0], {12}
     cf0:	30202150 	eorcc	r2, r0, r0, asr r1
     cf4:	000003d3 	ldrdeq	r0, [r0], -r3
     cf8:	0d021902 	stceq	9, cr1, [r2, #-8]
     cfc:	50600000 	rsbpl	r0, r0, r0
     d00:	4d072021 	stcmi	0, cr2, [r7, #-132]	; 0xffffff7c
     d04:	3000000c 	andcc	r0, r0, ip
     d08:	000002f9 	strdeq	r0, [r0], -r9
     d0c:	0c4d1a02 	mcrreq	10, 0, r1, sp, cr2
     d10:	50640000 	rsbpl	r0, r4, r0
     d14:	86302021 	ldrthi	r2, [r0], -r1, lsr #32
     d18:	02000001 	andeq	r0, r0, #1
     d1c:	000d251b 	andeq	r2, sp, fp, lsl r5
     d20:	21506800 	cmpcs	r0, r0, lsl #16
     d24:	0c4d0720 	mcrreq	7, 2, r0, sp, cr0
     d28:	fd300000 	ldc2	0, cr0, [r0, #-0]
     d2c:	02000001 	andeq	r0, r0, #1
     d30:	000d391c 	andeq	r3, sp, ip, lsl r9
     d34:	00b21000 	adcseq	r1, r2, r0
     d38:	0c4d0720 	mcrreq	7, 2, r0, sp, cr0
     d3c:	0a300000 	beq	c00d44 <__bss_end__+0xbf244c>
     d40:	02000002 	andeq	r0, r0, #2
     d44:	000c4d1d 	andeq	r4, ip, sp, lsl sp
     d48:	00b21400 	adcseq	r1, r2, r0, lsl #8
     d4c:	013f3120 	teqeq	pc, r0, lsr #2
     d50:	1e020000 	cdpne	0, 0, cr0, cr2, cr0, {0}
     d54:	000001e3 	andeq	r0, r0, r3, ror #3
     d58:	e4e40305 	strbt	r0, [r4], #773	; 0x305
     d5c:	7e160000 	cdpvc	0, 1, cr0, cr6, cr0, {0}
     d60:	02000001 	andeq	r0, r0, #1
     d64:	00022a21 	andeq	r2, r2, r1, lsr #20
     d68:	01f83100 	mvnseq	r3, r0, lsl #2
     d6c:	22020000 	andcs	r0, r2, #0
     d70:	000001e8 	andeq	r0, r0, r8, ror #3
     d74:	c4d00305 	ldrbgt	r0, [r0], #773	; 0x305
     d78:	48310000 	ldmdami	r1!, {}	; <UNPREDICTABLE>
     d7c:	02000001 	andeq	r0, r0, #1
     d80:	0001e823 	andeq	lr, r1, r3, lsr #16
     d84:	b8030500 	stmdalt	r3, {r8, sl}
     d88:	320000a4 	andcc	r0, r0, #164	; 0xa4
     d8c:	000002e7 	andeq	r0, r0, r7, ror #5
     d90:	00654702 	rsbeq	r4, r5, r2, lsl #14
     d94:	31000000 	mrscc	r0, (UNDEF: 0)
     d98:	00000129 	andeq	r0, r0, r9, lsr #2
     d9c:	00654802 	rsbeq	r4, r5, r2, lsl #16
     da0:	03050000 	movweq	r0, #20480	; 0x5000
     da4:	0000c4cc 	andeq	ip, r0, ip, asr #9
     da8:	00044f33 	andeq	r4, r4, r3, lsr pc
     dac:	fb800600 	blx	fe0025b6 <__bss_end__+0xfdff3cbe>
     db0:	05000000 	streq	r0, [r0, #-0]
     db4:	00e8f403 	rsceq	pc, r8, r3, lsl #8
     db8:	04433400 	strbeq	r3, [r3], #-1024	; 0x400
     dbc:	1b080000 	blne	200dc4 <__bss_end__+0x1f24cc>
     dc0:	00000093 	muleq	r0, r3, r0
     dc4:	00000dd8 	ldrdeq	r0, [r0], -r8
     dc8:	00009335 	andeq	r9, r0, r5, lsr r3
     dcc:	00253500 	eoreq	r3, r5, r0, lsl #10
     dd0:	2c350000 	ldccs	0, cr0, [r5], #-0
     dd4:	00000000 	andeq	r0, r0, r0
     dd8:	00016f36 	andeq	r6, r1, r6, lsr pc
     ddc:	341e0900 	ldrcc	r0, [lr], #-2304	; 0x900
     de0:	000005cc 	andeq	r0, r0, ip, asr #11
     de4:	00252909 	eoreq	r2, r5, r9, lsl #18
     de8:	0df50000 	ldcleq	0, cr0, [r5]
     dec:	9c350000 	ldcls	0, cr0, [r5], #-0
     df0:	37000000 	strcc	r0, [r0, -r0]
     df4:	02383600 	eorseq	r3, r8, #0, 12
     df8:	66090000 	strvs	r0, [r9], -r0
     dfc:	0000f436 	andeq	pc, r0, r6, lsr r4	; <UNPREDICTABLE>
     e00:	34870900 	strcc	r0, [r7], #2304	; 0x900
     e04:	00000478 	andeq	r0, r0, r8, ror r4
     e08:	0037a609 	eorseq	sl, r7, r9, lsl #12
     e0c:	0e180000 	cdpeq	0, 1, cr0, cr8, cr0, {0}
     e10:	18350000 	ldmdane	r5!, {}	; <UNPREDICTABLE>
     e14:	0000000e 	andeq	r0, r0, lr
     e18:	0e1e0406 	cfmulseq	mvf0, mvf14, mvf6
     e1c:	23070000 	movwcs	r0, #28672	; 0x7000
     e20:	3800000e 	stmdacc	r0, {r1, r2, r3}
     e24:	0003ec39 	andeq	lr, r3, r9, lsr ip
     e28:	3a9a0900 	bcc	fe683230 <__bss_end__+0xfe674938>
     e2c:	3500000e 	strcc	r0, [r0, #-14]
     e30:	00000e3a 	andeq	r0, r0, sl, lsr lr
     e34:	00003735 	andeq	r3, r0, r5, lsr r7
     e38:	04060000 	streq	r0, [r6], #-0
     e3c:	00000e23 	andeq	r0, r0, r3, lsr #28
     e40:	000a653a 	andeq	r6, sl, sl, lsr r5
     e44:	253b0900 	ldrcs	r0, [fp, #-2304]!	; 0x900
     e48:	3a000000 	bcc	e50 <_start-0x71b0>
     e4c:	000000b0 	strheq	r0, [r0], -r0	; <UNPREDICTABLE>
     e50:	00254609 	eoreq	r4, r5, r9, lsl #12
     e54:	ee390000 	cdp	0, 3, cr0, cr9, cr0, {0}
     e58:	09000001 	stmdbeq	r0, {r0}
     e5c:	000e673c 	andeq	r6, lr, ip, lsr r7
     e60:	00373500 	eorseq	r3, r7, r0, lsl #10
     e64:	3a000000 	bcc	e6c <_start-0x7194>
     e68:	00000131 	andeq	r0, r0, r1, lsr r1
     e6c:	00254409 	eoreq	r4, r5, r9, lsl #8
     e70:	13360000 	teqne	r6, #0
     e74:	0a000005 	beq	e90 <_start-0x7170>
     e78:	02ae3632 	adceq	r3, lr, #52428800	; 0x3200000
     e7c:	310a0000 	mrscc	r0, (UNDEF: 10)
     e80:	00025339 	andeq	r5, r2, r9, lsr r3
     e84:	96190500 	ldrls	r0, [r9], -r0, lsl #10
     e88:	3500000e 	strcc	r0, [r0, #-14]
     e8c:	00000037 	andeq	r0, r0, r7, lsr r0
     e90:	0000f035 	andeq	pc, r0, r5, lsr r0	; <UNPREDICTABLE>
     e94:	eb390000 	bl	e40e9c <__bss_end__+0xe325a4>
     e98:	07000001 	streq	r0, [r0, -r1]
     e9c:	000eac44 	andeq	sl, lr, r4, asr #24
     ea0:	0eac3500 	cdpeq	5, 10, cr3, cr12, cr0, {0}
     ea4:	65350000 	ldrvs	r0, [r5, #-0]!
     ea8:	00000000 	andeq	r0, r0, r0
     eac:	022a0406 	eoreq	r0, sl, #100663296	; 0x6000000
     eb0:	96360000 	ldrtls	r0, [r6], -r0
     eb4:	0a000002 	beq	ec4 <_start-0x713c>
     eb8:	009c3b33 	addseq	r3, ip, r3, lsr fp
     ebc:	1d070000 	stcne	0, cr0, [r7, #-0]
     ec0:	0000022a 	andeq	r0, r0, sl, lsr #4
     ec4:	00005a35 	andeq	r5, r0, r5, lsr sl
     ec8:	005a3500 	subseq	r3, sl, r0, lsl #10
     ecc:	73350000 	teqvc	r5, #0
     ed0:	35000000 	strcc	r0, [r0, #-0]
     ed4:	00000073 	andeq	r0, r0, r3, ror r0
     ed8:	00db0000 	sbcseq	r0, fp, r0
     edc:	00040000 	andeq	r0, r4, r0
     ee0:	0000032f 	andeq	r0, r0, pc, lsr #6
     ee4:	03760104 	cmneq	r6, #4, 2
     ee8:	5a010000 	bpl	40ef0 <__bss_end__+0x325f8>
     eec:	68000005 	stmdavs	r0, {r0, r2}
     ef0:	a4000005 	strge	r0, [r0], #-5
     ef4:	20000086 	andcs	r0, r0, r6, lsl #1
     ef8:	f6000000 			; <UNDEFINED> instruction: 0xf6000000
     efc:	02000003 	andeq	r0, r0, #3
     f00:	02db0601 	sbcseq	r0, fp, #1048576	; 0x100000
     f04:	01020000 	mrseq	r0, (UNDEF: 2)
     f08:	0002d908 	andeq	sp, r2, r8, lsl #18
     f0c:	05020200 	streq	r0, [r2, #-512]	; 0x200
     f10:	000002ef 	andeq	r0, r0, pc, ror #5
     f14:	bb070202 	bllt	1c1724 <__bss_end__+0x1b2e2c>
     f18:	03000001 	movweq	r0, #1
     f1c:	6e690504 	cdpvs	5, 6, cr0, cr9, cr4, {0}
     f20:	04020074 	streq	r0, [r2], #-116	; 0x74
     f24:	00006207 	andeq	r6, r0, r7, lsl #4
     f28:	05080200 	streq	r0, [r8, #-512]	; 0x200
     f2c:	0000008e 	andeq	r0, r0, lr, lsl #1
     f30:	58070802 	stmdapl	r7, {r1, fp}
     f34:	02000000 	andeq	r0, r0, #0
     f38:	00930504 	addseq	r0, r3, r4, lsl #10
     f3c:	04020000 	streq	r0, [r2], #-0
     f40:	00024a07 	andeq	r4, r2, r7, lsl #20
     f44:	02040400 	andeq	r0, r4, #0, 8
     f48:	005d0704 	subseq	r0, sp, r4, lsl #14
     f4c:	04050000 	streq	r0, [r5], #-0
     f50:	0000007a 	andeq	r0, r0, sl, ror r0
     f54:	e2080102 	and	r0, r8, #-2147483648	; 0x80000000
     f58:	06000002 	streq	r0, [r0], -r2
     f5c:	00000000 	andeq	r0, r0, r0
     f60:	0048d402 	subeq	sp, r8, r2, lsl #8
     f64:	43070000 	movwmi	r0, #28672	; 0x7000
     f68:	03000004 	movweq	r0, #4
     f6c:	00006b1b 	andeq	r6, r0, fp, lsl fp
     f70:	0086a400 	addeq	sl, r6, r0, lsl #8
     f74:	00002000 	andeq	r2, r0, r0
     f78:	089c0100 	ldmeq	ip, {r8}
     f7c:	0100705f 	qaddeq	r7, pc, r0	; <UNPREDICTABLE>
     f80:	00006b03 	andeq	r6, r0, r3, lsl #22
     f84:	08500100 	ldmdaeq	r0, {r8}^
     f88:	03010063 	movweq	r0, #4195	; 0x1063
     f8c:	00000041 	andeq	r0, r0, r1, asr #32
     f90:	6e095101 	adfvse	f5, f1, f1
     f94:	81030100 	mrshi	r0, (UNDEF: 19)
     f98:	38000000 	stmdacc	r0, {}	; <UNPREDICTABLE>
     f9c:	0a000004 	beq	fb4 <_start-0x704c>
     fa0:	04010070 	streq	r0, [r1], #-112	; 0x70
     fa4:	00000074 	andeq	r0, r0, r4, ror r0
     fa8:	00000459 	andeq	r0, r0, r9, asr r4
     fac:	0100650b 	tsteq	r0, fp, lsl #10
     fb0:	00007404 	andeq	r7, r0, r4, lsl #8
     fb4:	00520100 	subseq	r0, r2, r0, lsl #2
     fb8:	00019100 	andeq	r9, r1, r0, lsl #2
     fbc:	cc000400 	cfstrsgt	mvf0, [r0], {-0}
     fc0:	04000003 	streq	r0, [r0], #-3
     fc4:	00037601 	andeq	r7, r3, r1, lsl #12
     fc8:	05bb0100 	ldreq	r0, [fp, #256]!	; 0x100
     fcc:	05680000 	strbeq	r0, [r8, #-0]!
     fd0:	86c40000 	strbhi	r0, [r4], r0
     fd4:	00580000 	subseq	r0, r8, r0
     fd8:	04e60000 	strbteq	r0, [r6], #0
     fdc:	ac020000 	stcge	0, cr0, [r2], {-0}
     fe0:	02000005 	andeq	r0, r0, #5
     fe4:	00003028 	andeq	r3, r0, r8, lsr #32
     fe8:	05d30300 	ldrbeq	r0, [r3, #768]	; 0x300
     fec:	03040000 	movweq	r0, #16384	; 0x4000
     ff0:	00004700 	andeq	r4, r0, r0, lsl #14
     ff4:	05e20400 	strbeq	r0, [r2, #1024]!	; 0x400
     ff8:	00470000 	subeq	r0, r7, r0
     ffc:	00000000 	andeq	r0, r0, r0
    1000:	d5020405 	strle	r0, [r2, #-1029]	; 0x405
    1004:	02000005 	andeq	r0, r0, #5
    1008:	00002562 	andeq	r2, r0, r2, ror #10
    100c:	05040600 	streq	r0, [r4, #-1536]	; 0x600
    1010:	00746e69 	rsbseq	r6, r4, r9, ror #28
    1014:	62070407 	andvs	r0, r7, #117440512	; 0x7000000
    1018:	07000000 	streq	r0, [r0, -r0]
    101c:	02db0601 	sbcseq	r0, fp, #1048576	; 0x100000
    1020:	02070000 	andeq	r0, r7, #0
    1024:	0002ef05 	andeq	lr, r2, r5, lsl #30
    1028:	05040700 	streq	r0, [r4, #-1792]	; 0x700
    102c:	00000093 	muleq	r0, r3, r0
    1030:	8e050807 	cdphi	8, 0, cr0, cr5, cr7, {0}
    1034:	07000000 	streq	r0, [r0, -r0]
    1038:	02d90801 	sbcseq	r0, r9, #65536	; 0x10000
    103c:	02070000 	andeq	r0, r7, #0
    1040:	0001bb07 	andeq	fp, r1, r7, lsl #22
    1044:	07040700 	streq	r0, [r4, -r0, lsl #14]
    1048:	0000005d 	andeq	r0, r0, sp, asr r0
    104c:	58070807 	stmdapl	r7, {r0, r1, r2, fp}
    1050:	07000000 	streq	r0, [r0, -r0]
    1054:	024a0704 	subeq	r0, sl, #4, 14	; 0x100000
    1058:	04080000 	streq	r0, [r8], #-0
    105c:	000000a7 	andeq	r0, r0, r7, lsr #1
    1060:	e2080107 	and	r0, r8, #-1073741823	; 0xc0000001
    1064:	08000002 	stmdaeq	r0, {r1}
    1068:	0000b404 	andeq	fp, r0, r4, lsl #8
    106c:	00a70900 	adceq	r0, r7, r0, lsl #18
    1070:	cc0a0000 	stcgt	0, cr0, [sl], {-0}
    1074:	01000005 	tsteq	r0, r5
    1078:	00005406 	andeq	r5, r0, r6, lsl #8
    107c:	0086c400 	addeq	ip, r6, r0, lsl #8
    1080:	00005800 	andeq	r5, r0, r0, lsl #16
    1084:	439c0100 	orrsmi	r0, ip, #0, 2
    1088:	0b000001 	bleq	1094 <_start-0x6f6c>
    108c:	00746d66 	rsbseq	r6, r4, r6, ror #26
    1090:	00ae0601 	adceq	r0, lr, r1, lsl #12
    1094:	91020000 	mrsls	r0, (UNDEF: 2)
    1098:	620d0c70 	andvs	r0, sp, #112, 24	; 0x7000
    109c:	01006675 	tsteq	r0, r5, ror r6
    10a0:	00014308 	andeq	r4, r1, r8, lsl #6
    10a4:	e8030500 	stmda	r3, {r8, sl}
    10a8:	0e0000e4 	cdpeq	0, 0, cr0, cr0, cr4, {7}
    10ac:	000005dd 	ldrdeq	r0, [r0], -sp
    10b0:	00490901 	subeq	r0, r9, r1, lsl #18
    10b4:	91020000 	mrsls	r0, (UNDEF: 2)
    10b8:	7a730f5c 	bvc	1cc4e30 <__bss_end__+0x1cb6538>
    10bc:	540c0100 	strpl	r0, [ip], #-256	; 0x100
    10c0:	84000000 	strhi	r0, [r0], #-0
    10c4:	10000004 	andne	r0, r0, r4
    10c8:	000086ec 	andeq	r8, r0, ip, ror #13
    10cc:	00000174 	andeq	r0, r0, r4, ror r1
    10d0:	00000136 	andeq	r0, r0, r6, lsr r1
    10d4:	02530111 	subseq	r0, r3, #1073741828	; 0x40000004
    10d8:	01114c91 			; <UNDEFINED> instruction: 0x01114c91
    10dc:	48910352 	ldmmi	r1, {r1, r4, r6, r8, r9}
    10e0:	51011106 	tstpl	r1, r6, lsl #2
    10e4:	04000a03 	streq	r0, [r0], #-2563	; 0xa03
    10e8:	02500111 	subseq	r0, r0, #1073741828	; 0x40000004
    10ec:	12000074 	andne	r0, r0, #116	; 0x74
    10f0:	00008700 	andeq	r8, r0, r0, lsl #14
    10f4:	02500111 	subseq	r0, r0, #1073741828	; 0x40000004
    10f8:	00000074 	andeq	r0, r0, r4, ror r0
    10fc:	0000a713 	andeq	sl, r0, r3, lsl r7
    1100:	00015400 	andeq	r5, r1, r0, lsl #8
    1104:	009a1400 	addseq	r1, sl, r0, lsl #8
    1108:	03ff0000 	mvnseq	r0, #0
    110c:	00541500 	subseq	r1, r4, r0, lsl #10
    1110:	01630000 	cmneq	r3, r0
    1114:	ae160000 	cdpge	0, 1, cr0, cr6, cr0, {0}
    1118:	00000000 	andeq	r0, r0, r0
    111c:	00063517 	andeq	r3, r6, r7, lsl r5
    1120:	6e220400 	cdpvs	4, 2, cr0, cr2, cr0, {0}
    1124:	08000001 	stmdaeq	r0, {r0}
    1128:	00015404 	andeq	r5, r1, r4, lsl #8
    112c:	05c91800 	strbeq	r1, [r9, #2048]	; 0x800
    1130:	02050000 	andeq	r0, r5, #0
    1134:	00000054 	andeq	r0, r0, r4, asr r0
    1138:	0000a116 	andeq	sl, r0, r6, lsl r1
    113c:	00541600 	subseq	r1, r4, r0, lsl #12
    1140:	ae160000 	cdpge	0, 1, cr0, cr6, cr0, {0}
    1144:	16000000 	strne	r0, [r0], -r0
    1148:	00000049 	andeq	r0, r0, r9, asr #32
    114c:	01130000 	tsteq	r3, r0
    1150:	00040000 	andeq	r0, r4, r0
    1154:	000004fd 	strdeq	r0, [r0], -sp
    1158:	03760104 	cmneq	r6, #4, 2
    115c:	04010000 	streq	r0, [r1], #-0
    1160:	68000006 	stmdavs	r0, {r1, r2}
    1164:	1c000005 	stcne	0, cr0, [r0], {5}
    1168:	3c000087 	stccc	0, cr0, [r0], {135}	; 0x87
    116c:	ec000000 	stc	0, cr0, [r0], {-0}
    1170:	02000005 	andeq	r0, r0, #5
    1174:	6e690504 	cdpvs	5, 6, cr0, cr9, cr4, {0}
    1178:	04030074 	streq	r0, [r3], #-116	; 0x74
    117c:	00006207 	andeq	r6, r0, r7, lsl #4
    1180:	06010300 	streq	r0, [r1], -r0, lsl #6
    1184:	000002db 	ldrdeq	r0, [r0], -fp
    1188:	ef050203 	svc	0x00050203
    118c:	03000002 	movweq	r0, #2
    1190:	00930504 	addseq	r0, r3, r4, lsl #10
    1194:	08030000 	stmdaeq	r3, {}	; <UNPREDICTABLE>
    1198:	00008e05 	andeq	r8, r0, r5, lsl #28
    119c:	08010300 	stmdaeq	r1, {r8, r9}
    11a0:	000002d9 	ldrdeq	r0, [r0], -r9
    11a4:	bb070203 	bllt	1c19b8 <__bss_end__+0x1b30c0>
    11a8:	03000001 	movweq	r0, #1
    11ac:	005d0704 	subseq	r0, sp, r4, lsl #14
    11b0:	08030000 	stmdaeq	r3, {}	; <UNPREDICTABLE>
    11b4:	00005807 	andeq	r5, r0, r7, lsl #16
    11b8:	07040300 	streq	r0, [r4, -r0, lsl #6]
    11bc:	0000024a 	andeq	r0, r0, sl, asr #4
    11c0:	e2080103 	and	r0, r8, #-1073741824	; 0xc0000000
    11c4:	04000002 	streq	r0, [r0], #-2
    11c8:	000005e7 	andeq	r0, r0, r7, ror #11
    11cc:	00250301 	eoreq	r0, r5, r1, lsl #6
    11d0:	871c0000 	ldrhi	r0, [ip, -r0]
    11d4:	00140000 	andseq	r0, r4, r0
    11d8:	9c010000 	stcls	0, cr0, [r1], {-0}
    11dc:	000000b0 	strheq	r0, [r0], -r0	; <UNPREDICTABLE>
    11e0:	01006305 	tsteq	r0, r5, lsl #6
    11e4:	00002503 	andeq	r2, r0, r3, lsl #10
    11e8:	0004ad00 	andeq	sl, r4, r0, lsl #26
    11ec:	87280600 	strhi	r0, [r8, -r0, lsl #12]!
    11f0:	01090000 	mrseq	r0, (UNDEF: 9)
    11f4:	01070000 	mrseq	r0, (UNDEF: 7)
    11f8:	00740250 	rsbseq	r0, r4, r0, asr r2
    11fc:	6f080000 	svcvs	0x00080000
    1200:	01000001 	tsteq	r0, r1
    1204:	00873008 	addeq	r3, r7, r8
    1208:	00001800 	andeq	r1, r0, r0, lsl #16
    120c:	099c0100 	ldmibeq	ip, {r8}
    1210:	00000613 	andeq	r0, r0, r3, lsl r6
    1214:	87480b01 	strbhi	r0, [r8, -r1, lsl #22]
    1218:	00100000 	andseq	r0, r0, r0
    121c:	9c010000 	stcls	0, cr0, [r1], {-0}
    1220:	000000e3 	andeq	r0, r0, r3, ror #1
    1224:	0070660a 	rsbseq	r6, r0, sl, lsl #12
    1228:	00f20b01 	rscseq	r0, r2, r1, lsl #22
    122c:	50010000 	andpl	r0, r1, r0
    1230:	00250b00 	eoreq	r0, r5, r0, lsl #22
    1234:	00f20000 	rscseq	r0, r2, r0
    1238:	250c0000 	strcs	r0, [ip, #-0]
    123c:	00000000 	andeq	r0, r0, r0
    1240:	00e3040d 	rsceq	r0, r3, sp, lsl #8
    1244:	f80e0000 			; <UNDEFINED> instruction: 0xf80e0000
    1248:	01000005 	tsteq	r0, r5
    124c:	0000f206 	andeq	pc, r0, r6, lsl #4
    1250:	14030500 	strne	r0, [r3], #-1280	; 0x500
    1254:	0f00009f 	svceq	0x0000009f
    1258:	000001ee 	andeq	r0, r0, lr, ror #3
    125c:	2c0c3c02 	stccs	12, cr3, [ip], {2}
    1260:	00000000 	andeq	r0, r0, r0
    1264:	0000ee00 	andeq	lr, r0, r0, lsl #28
    1268:	e5000400 	str	r0, [r0, #-1024]	; 0x400
    126c:	04000005 	streq	r0, [r0], #-5
    1270:	00037601 	andeq	r7, r3, r1, lsl #12
    1274:	06200100 	strteq	r0, [r0], -r0, lsl #2
    1278:	05680000 	strbeq	r0, [r8, #-0]!
    127c:	87580000 	ldrbhi	r0, [r8, -r0]
    1280:	00340000 	eorseq	r0, r4, r0
    1284:	067a0000 	ldrbteq	r0, [sl], -r0
    1288:	04020000 	streq	r0, [r2], #-0
    128c:	746e6905 	strbtvc	r6, [lr], #-2309	; 0x905
    1290:	07040300 	streq	r0, [r4, -r0, lsl #6]
    1294:	00000062 	andeq	r0, r0, r2, rrx
    1298:	db060103 	blle	1816ac <__bss_end__+0x172db4>
    129c:	03000002 	movweq	r0, #2
    12a0:	02ef0502 	rsceq	r0, pc, #8388608	; 0x800000
    12a4:	04030000 	streq	r0, [r3], #-0
    12a8:	00009305 	andeq	r9, r0, r5, lsl #6
    12ac:	05080300 	streq	r0, [r8, #-768]	; 0x300
    12b0:	0000008e 	andeq	r0, r0, lr, lsl #1
    12b4:	d9080103 	stmdble	r8, {r0, r1, r8}
    12b8:	03000002 	movweq	r0, #2
    12bc:	01bb0702 			; <UNDEFINED> instruction: 0x01bb0702
    12c0:	04030000 	streq	r0, [r3], #-0
    12c4:	00005d07 	andeq	r5, r0, r7, lsl #26
    12c8:	07080300 	streq	r0, [r8, -r0, lsl #6]
    12cc:	00000058 	andeq	r0, r0, r8, asr r0
    12d0:	4a070403 	bmi	1c22e4 <__bss_end__+0x1b39ec>
    12d4:	03000002 	movweq	r0, #2
    12d8:	02e20801 	rsceq	r0, r2, #65536	; 0x10000
    12dc:	04040000 	streq	r0, [r4], #-0
    12e0:	0000007f 	andeq	r0, r0, pc, ror r0
    12e4:	00007205 	andeq	r7, r0, r5, lsl #4
    12e8:	062c0600 	strteq	r0, [ip], -r0, lsl #12
    12ec:	04010000 	streq	r0, [r1], #-0
    12f0:	00000025 	andeq	r0, r0, r5, lsr #32
    12f4:	00008758 	andeq	r8, r0, r8, asr r7
    12f8:	00000034 	andeq	r0, r0, r4, lsr r0
    12fc:	00ab9c01 	adceq	r9, fp, r1, lsl #24
    1300:	70070000 	andvc	r0, r7, r0
    1304:	79040100 	stmdbvc	r4, {r8}
    1308:	cb000000 	blgt	1310 <_start-0x6cf0>
    130c:	00000004 	andeq	r0, r0, r4
    1310:	00002508 	andeq	r2, r0, r8, lsl #10
    1314:	0000ba00 	andeq	fp, r0, r0, lsl #20
    1318:	00250900 	eoreq	r0, r5, r0, lsl #18
    131c:	0a000000 	beq	1324 <_start-0x6cdc>
    1320:	000005f8 	strdeq	r0, [r0], -r8
    1324:	00c51d02 	sbceq	r1, r5, r2, lsl #26
    1328:	04040000 	streq	r0, [r4], #-0
    132c:	000000ab 	andeq	r0, r0, fp, lsr #1
    1330:	00002508 	andeq	r2, r0, r8, lsl #10
    1334:	0000da00 	andeq	sp, r0, r0, lsl #20
    1338:	00790900 	rsbseq	r0, r9, r0, lsl #18
    133c:	0b000000 	bleq	1344 <_start-0x6cbc>
    1340:	00000635 	andeq	r0, r0, r5, lsr r6
    1344:	00eb0c01 	rsceq	r0, fp, r1, lsl #24
    1348:	03050000 	movweq	r0, #20480	; 0x5000
    134c:	00009f18 	andeq	r9, r0, r8, lsl pc
    1350:	00cb0404 	sbceq	r0, fp, r4, lsl #8
    1354:	81000000 	mrshi	r0, (UNDEF: 0)
    1358:	04000006 	streq	r0, [r0], #-6
    135c:	00067e00 	andeq	r7, r6, r0, lsl #28
    1360:	76010400 	strvc	r0, [r1], -r0, lsl #8
    1364:	01000003 	tsteq	r0, r3
    1368:	00000666 	andeq	r0, r0, r6, ror #12
    136c:	00000568 	andeq	r0, r0, r8, ror #10
    1370:	0000878c 	andeq	r8, r0, ip, lsl #15
    1374:	000004f8 	strdeq	r0, [r0], -r8
    1378:	00000714 	andeq	r0, r0, r4, lsl r7
    137c:	69050402 	stmdbvs	r5, {r1, sl}
    1380:	0300746e 	movweq	r7, #1134	; 0x46e
    1384:	00620704 	rsbeq	r0, r2, r4, lsl #14
    1388:	01030000 	mrseq	r0, (UNDEF: 3)
    138c:	0002db06 	andeq	sp, r2, r6, lsl #22
    1390:	05020300 	streq	r0, [r2, #-768]	; 0x300
    1394:	000002ef 	andeq	r0, r0, pc, ror #5
    1398:	93050403 	movwls	r0, #21507	; 0x5403
    139c:	03000000 	movweq	r0, #0
    13a0:	008e0508 	addeq	r0, lr, r8, lsl #10
    13a4:	01030000 	mrseq	r0, (UNDEF: 3)
    13a8:	0002d908 	andeq	sp, r2, r8, lsl #18
    13ac:	07020300 	streq	r0, [r2, -r0, lsl #6]
    13b0:	000001bb 			; <UNDEFINED> instruction: 0x000001bb
    13b4:	5d070403 	cfstrspl	mvf0, [r7, #-12]
    13b8:	03000000 	movweq	r0, #0
    13bc:	00580708 	subseq	r0, r8, r8, lsl #14
    13c0:	04030000 	streq	r0, [r3], #-0
    13c4:	00024a07 	andeq	r4, r2, r7, lsl #20
    13c8:	05040400 	streq	r0, [r4, #-1024]	; 0x400
    13cc:	00007a04 	andeq	r7, r0, r4, lsl #20
    13d0:	08010300 	stmdaeq	r1, {r8, r9}
    13d4:	000002e2 	andeq	r0, r0, r2, ror #5
    13d8:	00870405 	addeq	r0, r7, r5, lsl #8
    13dc:	7a060000 	bvc	1813e4 <__bss_end__+0x172aec>
    13e0:	07000000 	streq	r0, [r0, -r0]
    13e4:	000005ac 	andeq	r0, r0, ip, lsr #11
    13e8:	00972802 	addseq	r2, r7, r2, lsl #16
    13ec:	d3080000 	movwle	r0, #32768	; 0x8000
    13f0:	04000005 	streq	r0, [r0], #-5
    13f4:	00ae0004 	adceq	r0, lr, r4
    13f8:	e2090000 	and	r0, r9, #0
    13fc:	72000005 	andvc	r0, r0, #5
    1400:	00000000 	andeq	r0, r0, r0
    1404:	05d50700 	ldrbeq	r0, [r5, #1792]	; 0x700
    1408:	62020000 	andvs	r0, r2, #0
    140c:	0000008c 	andeq	r0, r0, ip, lsl #1
    1410:	0006480a 	andeq	r4, r6, sl, lsl #16
    1414:	25270100 	strcs	r0, [r7, #-256]!	; 0x100
    1418:	8c000000 	stchi	0, cr0, [r0], {-0}
    141c:	14000087 	strne	r0, [r0], #-135	; 0x87
    1420:	01000000 	mrseq	r0, (UNDEF: 0)
    1424:	0000e09c 	muleq	r0, ip, r0
    1428:	00630b00 	rsbeq	r0, r3, r0, lsl #22
    142c:	00252701 	eoreq	r2, r5, r1, lsl #14
    1430:	04e90000 	strbteq	r0, [r9], #0
    1434:	0c000000 	stceq	0, cr0, [r0], {-0}
    1438:	00646170 	rsbeq	r6, r4, r0, ror r1
    143c:	00742e01 	rsbseq	r2, r4, r1, lsl #28
    1440:	87a00000 	strhi	r0, [r0, r0]!
    1444:	002c0000 	eoreq	r0, ip, r0
    1448:	9c010000 	stcls	0, cr0, [r1], {-0}
    144c:	00000130 	andeq	r0, r0, r0, lsr r1
    1450:	0100700b 	tsteq	r0, fp
    1454:	0000742e 	andeq	r7, r0, lr, lsr #8
    1458:	00051700 	andeq	r1, r5, r0, lsl #14
    145c:	06580d00 	ldrbeq	r0, [r8], -r0, lsl #26
    1460:	2e010000 	cdpcs	0, 0, cr0, cr1, cr0, {0}
    1464:	00000074 	andeq	r0, r0, r4, ror r0
    1468:	00000542 	andeq	r0, r0, r2, asr #10
    146c:	0006860e 	andeq	r8, r6, lr, lsl #12
    1470:	252e0100 	strcs	r0, [lr, #-256]!	; 0x100
    1474:	01000000 	mrseq	r0, (UNDEF: 0)
    1478:	656c0f52 	strbvs	r0, [ip, #-3922]!	; 0xf52
    147c:	2f01006e 	svccs	0x0001006e
    1480:	00000025 	andeq	r0, r0, r5, lsr #32
    1484:	0a005101 	beq	15890 <__bss_end__+0x6f98>
    1488:	00000640 	andeq	r0, r0, r0, asr #12
    148c:	00743701 	rsbseq	r3, r4, r1, lsl #14
    1490:	87cc0000 	strbhi	r0, [ip, r0]
    1494:	00400000 	subeq	r0, r0, r0
    1498:	9c010000 	stcls	0, cr0, [r1], {-0}
    149c:	0000019c 	muleq	r0, ip, r1
    14a0:	7473640b 	ldrbtvc	r6, [r3], #-1035	; 0x40b
    14a4:	74370100 	ldrtvc	r0, [r7], #-256	; 0x100
    14a8:	63000000 	movwvs	r0, #0
    14ac:	0b000005 	bleq	14c8 <_start-0x6b38>
    14b0:	3701006e 	strcc	r0, [r1, -lr, rrx]
    14b4:	00000025 	andeq	r0, r0, r5, lsr #32
    14b8:	0000059b 	muleq	r0, fp, r5
    14bc:	0100700b 	tsteq	r0, fp
    14c0:	00007437 	andeq	r7, r0, r7, lsr r4
    14c4:	0005bc00 	andeq	fp, r5, r0, lsl #24
    14c8:	07370d00 	ldreq	r0, [r7, -r0, lsl #26]!
    14cc:	37010000 	strcc	r0, [r1, -r0]
    14d0:	00000074 	andeq	r0, r0, r4, ror r0
    14d4:	000005f2 	strdeq	r0, [r0], -r2
    14d8:	6e656c10 	mcrvs	12, 3, r6, cr5, cr0, {0}
    14dc:	25390100 	ldrcs	r0, [r9, #-256]!	; 0x100
    14e0:	10000000 	andne	r0, r0, r0
    14e4:	0f000006 	svceq	0x00000006
    14e8:	3d010073 	stccc	0, cr0, [r1, #-460]	; 0xfffffe34
    14ec:	00000074 	andeq	r0, r0, r4, ror r0
    14f0:	0a005001 	beq	154fc <__bss_end__+0x6c04>
    14f4:	00000694 	muleq	r0, r4, r6
    14f8:	00744701 	rsbseq	r4, r4, r1, lsl #14
    14fc:	880c0000 	stmdahi	ip, {}	; <UNPREDICTABLE>
    1500:	019c0000 	orrseq	r0, ip, r0
    1504:	9c010000 	stcls	0, cr0, [r1], {-0}
    1508:	000002d3 	ldrdeq	r0, [r0], -r3
    150c:	0006580d 	andeq	r5, r6, sp, lsl #16
    1510:	2c470100 	stfcse	f0, [r7], {-0}
    1514:	37000000 	strcc	r0, [r0, -r0]
    1518:	0b000006 	bleq	1538 <_start-0x6ac8>
    151c:	00747364 	rsbseq	r7, r4, r4, ror #6
    1520:	00744701 	rsbseq	r4, r4, r1, lsl #14
    1524:	06650000 	strbteq	r0, [r5], -r0
    1528:	6e0b0000 	cdpvs	0, 0, cr0, cr11, cr0, {0}
    152c:	25470100 	strbcs	r0, [r7, #-256]	; 0x100
    1530:	d3000000 	movwle	r0, #0
    1534:	0b000006 	bleq	1554 <_start-0x6aac>
    1538:	006c6176 	rsbeq	r6, ip, r6, ror r1
    153c:	00254701 	eoreq	r4, r5, r1, lsl #14
    1540:	06ff0000 	ldrbteq	r0, [pc], r0
    1544:	860d0000 	strhi	r0, [sp], -r0
    1548:	01000006 	tsteq	r0, r6
    154c:	00002547 	andeq	r2, r0, r7, asr #10
    1550:	00077e00 	andeq	r7, r7, r0, lsl #28
    1554:	065d0e00 	ldrbeq	r0, [sp], -r0, lsl #28
    1558:	47010000 	strmi	r0, [r1, -r0]
    155c:	00000025 	andeq	r0, r0, r5, lsr #32
    1560:	0f049102 	svceq	0x00049102
    1564:	00667562 	rsbeq	r7, r6, r2, ror #10
    1568:	02d34c01 	sbcseq	r4, r3, #256	; 0x100
    156c:	91030000 	mrsls	r0, (UNDEF: 3)
    1570:	70107fa8 	andsvc	r7, r0, r8, lsr #31
    1574:	744c0100 	strbvc	r0, [ip], #-256	; 0x100
    1578:	a8000000 	stmdage	r0, {}	; <UNPREDICTABLE>
    157c:	10000007 	andne	r0, r0, r7
    1580:	4d010075 	stcmi	0, cr0, [r1, #-468]	; 0xfffffe2c
    1584:	0000002c 	andeq	r0, r0, ip, lsr #32
    1588:	0000084d 	andeq	r0, r0, sp, asr #16
    158c:	00019611 	andeq	r9, r1, r1, lsl r6
    1590:	0002f300 	andeq	pc, r2, r0, lsl #6
    1594:	e8030500 	stmda	r3, {r8, sl}
    1598:	120000a0 	andne	r0, r0, #160	; 0xa0
    159c:	00008878 	andeq	r8, r0, r8, ror r8
    15a0:	00000074 	andeq	r0, r0, r4, ror r0
    15a4:	00000261 	andeq	r0, r0, r1, ror #4
    15a8:	00063a13 	andeq	r3, r6, r3, lsl sl
    15ac:	2c520100 	ldfcse	f0, [r2], {-0}
    15b0:	52000000 	andpl	r0, r0, #0
    15b4:	00000009 	andeq	r0, r0, r9
    15b8:	00894c14 	addeq	r4, r9, r4, lsl ip
    15bc:	00066000 	andeq	r6, r6, r0
    15c0:	89601500 	stmdbhi	r0!, {r8, sl, ip}^
    15c4:	06670000 	strbteq	r0, [r7], -r0
    15c8:	02990000 	addseq	r0, r9, #0
    15cc:	01160000 	tsteq	r6, r0
    15d0:	75080253 	strvc	r0, [r8, #-595]	; 0x253
    15d4:	05520116 	ldrbeq	r0, [r2, #-278]	; 0x116
    15d8:	00a0e803 	adceq	lr, r0, r3, lsl #16
    15dc:	51011600 	tstpl	r1, r0, lsl #12
    15e0:	a1200305 	teqge	r0, r5, lsl #6
    15e4:	01160000 	tsteq	r6, r0
    15e8:	0c030550 	cfstr32eq	mvfx0, [r3], {80}	; 0x50
    15ec:	000000a1 	andeq	r0, r0, r1, lsr #1
    15f0:	00896414 	addeq	r6, r9, r4, lsl r4
    15f4:	00067d00 	andeq	r7, r6, r0, lsl #26
    15f8:	89701500 	ldmdbhi	r0!, {r8, sl, ip}^
    15fc:	00e00000 	rsceq	r0, r0, r0
    1600:	02b60000 	adcseq	r0, r6, #0
    1604:	01160000 	tsteq	r6, r0
    1608:	007d0251 	rsbseq	r0, sp, r1, asr r2
    160c:	89841700 	stmibhi	r4, {r8, r9, sl, ip}
    1610:	01300000 	teqeq	r0, r0
    1614:	01160000 	tsteq	r6, r0
    1618:	007d0253 	rsbseq	r0, sp, r3, asr r2
    161c:	02510116 	subseq	r0, r1, #-2147483643	; 0x80000005
    1620:	01160074 	tsteq	r6, r4, ror r0
    1624:	00750250 	rsbseq	r0, r5, r0, asr r2
    1628:	7a180000 	bvc	601630 <__bss_end__+0x5f2d38>
    162c:	e3000000 	movw	r0, #0
    1630:	19000002 	stmdbne	r0, {r1}
    1634:	0000006b 	andeq	r0, r0, fp, rrx
    1638:	7a18003f 	bvc	60173c <__bss_end__+0x5f2e44>
    163c:	f3000000 	vhadd.u8	d0, d0, d0
    1640:	19000002 	stmdbne	r0, {r1}
    1644:	0000006b 	andeq	r0, r0, fp, rrx
    1648:	e3060004 	movw	r0, #24580	; 0x6004
    164c:	1a000002 	bne	165c <_start-0x69a4>
    1650:	00000677 	andeq	r0, r0, r7, ror r6
    1654:	89a81f01 	stmibhi	r8!, {r0, r8, r9, sl, fp, ip}
    1658:	00540000 	subseq	r0, r4, r0
    165c:	9c010000 	stcls	0, cr0, [r1], {-0}
    1660:	0000037c 	andeq	r0, r0, ip, ror r3
    1664:	00068c0d 	andeq	r8, r6, sp, lsl #24
    1668:	8b1f0100 	blhi	7c1a70 <__bss_end__+0x7b3178>
    166c:	7e000003 	cdpvc	0, 0, cr0, cr0, cr3, {0}
    1670:	0d000009 	stceq	0, cr0, [r0, #-36]	; 0xffffffdc
    1674:	00000650 	andeq	r0, r0, r0, asr r6
    1678:	03a01f01 	moveq	r1, #1, 30
    167c:	09aa0000 	stmibeq	sl!, {}	; <UNPREDICTABLE>
    1680:	96110000 	ldrls	r0, [r1], -r0
    1684:	b6000001 	strlt	r0, [r0], -r1
    1688:	05000003 	streq	r0, [r0, #-3]
    168c:	00a0f003 	adceq	pc, r0, r3
    1690:	89b81400 	ldmibhi	r8!, {sl, ip}
    1694:	06600000 	strbteq	r0, [r0], -r0
    1698:	cc150000 	ldcgt	0, cr0, [r5], {-0}
    169c:	67000089 	strvs	r0, [r0, -r9, lsl #1]
    16a0:	72000006 	andvc	r0, r0, #6
    16a4:	16000003 	strne	r0, [r0], -r3
    16a8:	08025301 	stmdaeq	r2, {r0, r8, r9, ip, lr}
    16ac:	52011620 	andpl	r1, r1, #32, 12	; 0x2000000
    16b0:	a0f00305 	rscsge	r0, r0, r5, lsl #6
    16b4:	01160000 	tsteq	r6, r0
    16b8:	20030551 	andcs	r0, r3, r1, asr r5
    16bc:	160000a1 	strne	r0, [r0], -r1, lsr #1
    16c0:	03055001 	movweq	r5, #20481	; 0x5001
    16c4:	0000a158 	andeq	sl, r0, r8, asr r1
    16c8:	89d01400 	ldmibhi	r0, {sl, ip}^
    16cc:	067d0000 	ldrbteq	r0, [sp], -r0
    16d0:	1b000000 	blne	16d8 <_start-0x6928>
    16d4:	00000025 	andeq	r0, r0, r5, lsr #32
    16d8:	0000038b 	andeq	r0, r0, fp, lsl #7
    16dc:	0000251c 	andeq	r2, r0, ip, lsl r5
    16e0:	04050000 	streq	r0, [r5], #-0
    16e4:	0000037c 	andeq	r0, r0, ip, ror r3
    16e8:	0000251b 	andeq	r2, r0, fp, lsl r5
    16ec:	0003a000 	andeq	sl, r3, r0
    16f0:	00811c00 	addeq	r1, r1, r0, lsl #24
    16f4:	05000000 	streq	r0, [r0, #-0]
    16f8:	00039104 	andeq	r9, r3, r4, lsl #2
    16fc:	007a1800 	rsbseq	r1, sl, r0, lsl #16
    1700:	03b60000 			; <UNDEFINED> instruction: 0x03b60000
    1704:	6b190000 	blvs	64170c <__bss_end__+0x632e14>
    1708:	0e000000 	cdpeq	0, 0, cr0, cr0, cr0, {0}
    170c:	03a60600 			; <UNDEFINED> instruction: 0x03a60600
    1710:	c91d0000 	ldmdbgt	sp, {}	; <UNPREDICTABLE>
    1714:	01000005 	tsteq	r0, r5
    1718:	0000257d 	andeq	r2, r0, sp, ror r5
    171c:	0089fc00 	addeq	pc, r9, r0, lsl #24
    1720:	00028800 	andeq	r8, r2, r0, lsl #16
    1724:	259c0100 	ldrcs	r0, [ip, #256]	; 0x100
    1728:	0b000006 	bleq	1748 <_start-0x68b8>
    172c:	00667562 	rsbeq	r7, r6, r2, ror #10
    1730:	00747d01 	rsbseq	r7, r4, r1, lsl #26
    1734:	09d60000 	ldmibeq	r6, {}^	; <UNPREDICTABLE>
    1738:	6e0b0000 	cdpvs	0, 0, cr0, cr11, cr0, {0}
    173c:	257d0100 	ldrbcs	r0, [sp, #-256]!	; 0x100
    1740:	02000000 	andeq	r0, r0, #0
    1744:	0b00000a 	bleq	1774 <_start-0x688c>
    1748:	00746d66 	rsbseq	r6, r4, r6, ror #26
    174c:	00817d01 	addeq	r7, r1, r1, lsl #26
    1750:	0a300000 	beq	c01758 <__bss_end__+0xbf2e60>
    1754:	dd0d0000 	stcle	0, cr0, [sp, #-0]
    1758:	01000005 	tsteq	r0, r5
    175c:	0000ae7d 	andeq	sl, r0, sp, ror lr
    1760:	000a6400 	andeq	r6, sl, r0, lsl #8
    1764:	00701000 	rsbseq	r1, r0, r0
    1768:	00747e01 	rsbseq	r7, r4, r1, lsl #28
    176c:	0a770000 	beq	1dc1774 <__bss_end__+0x1db2e7c>
    1770:	65100000 	ldrvs	r0, [r0, #-0]
    1774:	747e0100 	ldrbtvc	r0, [lr], #-256	; 0x100
    1778:	f5000000 			; <UNDEFINED> instruction: 0xf5000000
    177c:	1100000a 	tstne	r0, sl
    1780:	00000196 	muleq	r0, r6, r1
    1784:	00000635 	andeq	r0, r0, r5, lsr r6
    1788:	a1000305 	tstge	r0, r5, lsl #6
    178c:	781e0000 	ldmdavc	lr, {}	; <UNPREDICTABLE>
    1790:	10000000 	andne	r0, r0, r0
    1794:	8b010073 	blhi	41968 <__bss_end__+0x33070>
    1798:	00000074 	andeq	r0, r0, r4, ror r0
    179c:	00000b1c 	andeq	r0, r0, ip, lsl fp
    17a0:	6d756e0f 	ldclvs	14, cr6, [r5, #-60]!	; 0xffffffc4
    17a4:	3a8b0100 	bcc	fe2c1bac <__bss_end__+0xfe2b32b4>
    17a8:	03000006 	movweq	r0, #6
    17ac:	137ed891 	cmnne	lr, #9502720	; 0x910000
    17b0:	00000686 	andeq	r0, r0, r6, lsl #13
    17b4:	002c8c01 	eoreq	r8, ip, r1, lsl #24
    17b8:	0b710000 	bleq	1c417c0 <__bss_end__+0x1c32ec8>
    17bc:	80150000 	andshi	r0, r5, r0
    17c0:	b900008a 	stmdblt	r0, {r1, r3, r7}
    17c4:	7b000000 	blvc	17cc <_start-0x6834>
    17c8:	16000004 	strne	r0, [r0], -r4
    17cc:	75025001 	strvc	r5, [r2, #-1]
    17d0:	94140000 	ldrls	r0, [r4], #-0
    17d4:	6000008a 	andvs	r0, r0, sl, lsl #1
    17d8:	15000006 	strne	r0, [r0, #-6]
    17dc:	00008aa8 	andeq	r8, r0, r8, lsr #21
    17e0:	00000667 	andeq	r0, r0, r7, ror #12
    17e4:	000004b3 			; <UNDEFINED> instruction: 0x000004b3
    17e8:	02530116 	subseq	r0, r3, #-2147483643	; 0x80000005
    17ec:	01169208 	tsteq	r6, r8, lsl #4
    17f0:	00030552 	andeq	r0, r3, r2, asr r5
    17f4:	160000a1 	strne	r0, [r0], -r1, lsr #1
    17f8:	03055101 	movweq	r5, #20737	; 0x5101
    17fc:	0000a120 	andeq	sl, r0, r0, lsr #2
    1800:	05500116 	ldrbeq	r0, [r0, #-278]	; 0x116
    1804:	00a17003 	adceq	r7, r1, r3
    1808:	ac140000 	ldcge	0, cr0, [r4], {-0}
    180c:	7d00008a 	stcvc	0, cr0, [r0, #-552]	; 0xfffffdd8
    1810:	14000006 	strne	r0, [r0], #-6
    1814:	00008b1c 	andeq	r8, r0, ip, lsl fp
    1818:	00000660 	andeq	r0, r0, r0, ror #12
    181c:	008b3015 	addeq	r3, fp, r5, lsl r0
    1820:	00066700 	andeq	r6, r6, r0, lsl #14
    1824:	0004f400 	andeq	pc, r4, r0, lsl #8
    1828:	53011600 	movwpl	r1, #5632	; 0x1600
    182c:	16980802 	ldrne	r0, [r8], r2, lsl #16
    1830:	03055201 	movweq	r5, #20993	; 0x5201
    1834:	0000a100 	andeq	sl, r0, r0, lsl #2
    1838:	05510116 	ldrbeq	r0, [r1, #-278]	; 0x116
    183c:	00a12003 	adceq	r2, r1, r3
    1840:	50011600 	andpl	r1, r1, r0, lsl #12
    1844:	a18c0305 	orrge	r0, ip, r5, lsl #6
    1848:	14000000 	strne	r0, [r0], #-0
    184c:	00008b34 	andeq	r8, r0, r4, lsr fp
    1850:	0000067d 	andeq	r0, r0, sp, ror r6
    1854:	008b5815 	addeq	r5, fp, r5, lsl r8
    1858:	00019c00 	andeq	r9, r1, r0, lsl #24
    185c:	00052a00 	andeq	r2, r5, r0, lsl #20
    1860:	52011600 	andpl	r1, r1, #0, 12
    1864:	16800802 	strne	r0, [r0], r2, lsl #16
    1868:	91035101 	tstls	r3, r1, lsl #2
    186c:	01167ed0 			; <UNDEFINED> instruction: 0x01167ed0
    1870:	163a0150 			; <UNDEFINED> instruction: 0x163a0150
    1874:	01047d02 	tsteq	r4, r2, lsl #26
    1878:	7d021631 	stcvc	6, cr1, [r2, #-196]	; 0xffffff3c
    187c:	00770200 	rsbseq	r0, r7, r0, lsl #4
    1880:	8b7c1500 	blhi	1f06c88 <__bss_end__+0x1ef8390>
    1884:	019c0000 	orrseq	r0, ip, r0
    1888:	05580000 	ldrbeq	r0, [r8, #-0]
    188c:	01160000 	tsteq	r6, r0
    1890:	80080252 	andhi	r0, r8, r2, asr r2
    1894:	03510116 	cmpeq	r1, #-2147483643	; 0x80000005
    1898:	167ed091 			; <UNDEFINED> instruction: 0x167ed091
    189c:	3a015001 	bcc	558a8 <__bss_end__+0x46fb0>
    18a0:	047d0216 	ldrbteq	r0, [sp], #-534	; 0x216
    18a4:	16007b02 	strne	r7, [r0], -r2, lsl #22
    18a8:	02007d02 	andeq	r7, r0, #2, 26	; 0x80
    18ac:	15000077 	strne	r0, [r0, #-119]	; 0x77
    18b0:	00008ba0 	andeq	r8, r0, r0, lsr #23
    18b4:	0000019c 	muleq	r0, ip, r1
    18b8:	00000586 	andeq	r0, r0, r6, lsl #11
    18bc:	02520116 	subseq	r0, r2, #-2147483643	; 0x80000005
    18c0:	01168008 	tsteq	r6, r8
    18c4:	d0910351 	addsle	r0, r1, r1, asr r3
    18c8:	5001167e 	andpl	r1, r1, lr, ror r6
    18cc:	02164001 	andseq	r4, r6, #1
    18d0:	7b02047d 	blvc	82acc <__bss_end__+0x741d4>
    18d4:	7d021600 	stcvc	6, cr1, [r2, #-0]
    18d8:	00770200 	rsbseq	r0, r7, r0, lsl #4
    18dc:	8bc41500 	blhi	ff106ce4 <__bss_end__+0xff0f83ec>
    18e0:	019c0000 	orrseq	r0, ip, r0
    18e4:	05b40000 	ldreq	r0, [r4, #0]!
    18e8:	01160000 	tsteq	r6, r0
    18ec:	80080252 	andhi	r0, r8, r2, asr r2
    18f0:	03510116 	cmpeq	r1, #-2147483643	; 0x80000005
    18f4:	167ed091 			; <UNDEFINED> instruction: 0x167ed091
    18f8:	32015001 	andcc	r5, r1, #1
    18fc:	047d0216 	ldrbteq	r0, [sp], #-534	; 0x216
    1900:	16007b02 	strne	r7, [r0], -r2, lsl #22
    1904:	02007d02 	andeq	r7, r0, #2, 26	; 0x80
    1908:	15000077 	strne	r0, [r0, #-119]	; 0x77
    190c:	00008bf4 	strdeq	r8, [r0], -r4
    1910:	0000019c 	muleq	r0, ip, r1
    1914:	000005e2 	andeq	r0, r0, r2, ror #11
    1918:	02520116 	subseq	r0, r2, #-2147483643	; 0x80000005
    191c:	01168008 	tsteq	r6, r8
    1920:	d0910351 	addsle	r0, r1, r1, asr r3
    1924:	5001167e 	andpl	r1, r1, lr, ror r6
    1928:	02163801 	andseq	r3, r6, #65536	; 0x10000
    192c:	7b02047d 	blvc	82b28 <__bss_end__+0x74230>
    1930:	7d021600 	stcvc	6, cr1, [r2, #-0]
    1934:	00770200 	rsbseq	r0, r7, r0, lsl #4
    1938:	8bfc1400 	blhi	fff06940 <__bss_end__+0xffef8048>
    193c:	06600000 	strbteq	r0, [r0], -r0
    1940:	18150000 	ldmdane	r5, {}	; <UNPREDICTABLE>
    1944:	6700008c 	strvs	r0, [r0, -ip, lsl #1]
    1948:	1a000006 	bne	1968 <_start-0x6698>
    194c:	16000006 	strne	r0, [r0], -r6
    1950:	08025301 	stmdaeq	r2, {r0, r8, r9, ip, lr}
    1954:	520116b9 	andpl	r1, r1, #193986560	; 0xb900000
    1958:	a1000305 	tstge	r0, r5, lsl #6
    195c:	01160000 	tsteq	r6, r0
    1960:	20030551 	andcs	r0, r3, r1, asr r5
    1964:	160000a1 	strne	r0, [r0], -r1, lsr #1
    1968:	03055001 	movweq	r5, #20481	; 0x5001
    196c:	0000a1b4 			; <UNDEFINED> instruction: 0x0000a1b4
    1970:	8c1c1400 	cfldrshi	mvf1, [ip], {-0}
    1974:	067d0000 	ldrbteq	r0, [sp], -r0
    1978:	00000000 	andeq	r0, r0, r0
    197c:	00007a18 	andeq	r7, r0, r8, lsl sl
    1980:	00063500 	andeq	r3, r6, r0, lsl #10
    1984:	006b1900 	rsbeq	r1, fp, r0, lsl #18
    1988:	00090000 	andeq	r0, r9, r0
    198c:	00062506 	andeq	r2, r6, r6, lsl #10
    1990:	007a1800 	rsbseq	r1, sl, r0, lsl #16
    1994:	064a0000 	strbeq	r0, [sl], -r0
    1998:	6b190000 	blvs	6419a0 <__bss_end__+0x6330a8>
    199c:	7f000000 	svcvc	0x00000000
    19a0:	05f81f00 	ldrbeq	r1, [r8, #3840]!	; 0xf00
    19a4:	1d030000 	stcne	0, cr0, [r3, #-0]
    19a8:	0000038b 	andeq	r0, r0, fp, lsl #7
    19ac:	0006351f 	andeq	r3, r6, pc, lsl r5
    19b0:	a0220300 	eorge	r0, r2, r0, lsl #6
    19b4:	20000003 	andcs	r0, r0, r3
    19b8:	0000016f 	andeq	r0, r0, pc, ror #2
    19bc:	cc211e03 	stcgt	14, cr1, [r1], #-12
    19c0:	03000005 	movweq	r0, #5
    19c4:	00002529 	andeq	r2, r0, r9, lsr #10
    19c8:	00067d00 	andeq	r7, r6, r0, lsl #26
    19cc:	00811c00 	addeq	r1, r1, r0, lsl #24
    19d0:	00220000 	eoreq	r0, r2, r0
    19d4:	00023820 	andeq	r3, r2, r0, lsr #16
    19d8:	00660300 	rsbeq	r0, r6, r0, lsl #6
    19dc:	000000ff 	strdeq	r0, [r0], -pc	; <UNPREDICTABLE>
    19e0:	085a0004 	ldmdaeq	sl, {r2}^
    19e4:	01040000 	mrseq	r0, (UNDEF: 4)
    19e8:	00000376 	andeq	r0, r0, r6, ror r3
    19ec:	0006a401 	andeq	sl, r6, r1, lsl #8
    19f0:	00056800 	andeq	r6, r5, r0, lsl #16
    19f4:	008c8400 	addeq	r8, ip, r0, lsl #8
    19f8:	00002800 	andeq	r2, r0, r0, lsl #16
    19fc:	0008f600 	andeq	pc, r8, r0, lsl #12
    1a00:	05040200 	streq	r0, [r4, #-512]	; 0x200
    1a04:	00746e69 	rsbseq	r6, r4, r9, ror #28
    1a08:	62070403 	andvs	r0, r7, #50331648	; 0x3000000
    1a0c:	03000000 	movweq	r0, #0
    1a10:	02db0601 	sbcseq	r0, fp, #1048576	; 0x100000
    1a14:	02030000 	andeq	r0, r3, #0
    1a18:	0002ef05 	andeq	lr, r2, r5, lsl #30
    1a1c:	05040300 	streq	r0, [r4, #-768]	; 0x300
    1a20:	00000093 	muleq	r0, r3, r0
    1a24:	8e050803 	cdphi	8, 0, cr0, cr5, cr3, {0}
    1a28:	03000000 	movweq	r0, #0
    1a2c:	02d90801 	sbcseq	r0, r9, #65536	; 0x10000
    1a30:	02030000 	andeq	r0, r3, #0
    1a34:	0001bb07 	andeq	fp, r1, r7, lsl #22
    1a38:	07040300 	streq	r0, [r4, -r0, lsl #6]
    1a3c:	0000005d 	andeq	r0, r0, sp, asr r0
    1a40:	58070803 	stmdapl	r7, {r0, r1, fp}
    1a44:	03000000 	movweq	r0, #0
    1a48:	024a0704 	subeq	r0, sl, #4, 14	; 0x100000
    1a4c:	01030000 	mrseq	r0, (UNDEF: 3)
    1a50:	0002e208 	andeq	lr, r2, r8, lsl #4
    1a54:	7f040400 	svcvc	0x00040400
    1a58:	05000000 	streq	r0, [r0, #-0]
    1a5c:	00000072 	andeq	r0, r0, r2, ror r0
    1a60:	00023806 	andeq	r3, r2, r6, lsl #16
    1a64:	84040100 	strhi	r0, [r4], #-256	; 0x100
    1a68:	2800008c 	stmdacs	r0, {r2, r3, r7}
    1a6c:	01000000 	mrseq	r0, (UNDEF: 0)
    1a70:	0000ca9c 	muleq	r0, ip, sl
    1a74:	8c980700 	ldchi	7, cr0, [r8], {0}
    1a78:	00ac0000 	adceq	r0, ip, r0
    1a7c:	01080000 	mrseq	r0, (UNDEF: 8)
    1a80:	ec030550 	cfstr32	mvfx0, [r3], {80}	; 0x50
    1a84:	000000a1 	andeq	r0, r0, r1, lsr #1
    1a88:	008ca009 	addeq	sl, ip, r9
    1a8c:	0000ea00 	andeq	lr, r0, r0, lsl #20
    1a90:	0000c000 	andeq	ip, r0, r0
    1a94:	50010800 	andpl	r0, r1, r0, lsl #16
    1a98:	00640802 	rsbeq	r0, r4, r2, lsl #16
    1a9c:	008ca40a 	addeq	sl, ip, sl, lsl #8
    1aa0:	0000fb00 	andeq	pc, r0, r0, lsl #22
    1aa4:	250b0000 	strcs	r0, [fp, #-0]
    1aa8:	d9000000 	stmdble	r0, {}	; <UNPREDICTABLE>
    1aac:	0c000000 	stceq	0, cr0, [r0], {-0}
    1ab0:	00000079 	andeq	r0, r0, r9, ror r0
    1ab4:	06350d00 	ldrteq	r0, [r5], -r0, lsl #26
    1ab8:	22020000 	andcs	r0, r2, #0
    1abc:	000000e4 	andeq	r0, r0, r4, ror #1
    1ac0:	00ca0404 	sbceq	r0, sl, r4, lsl #8
    1ac4:	be0e0000 	cdplt	0, 0, cr0, cr14, cr0, {0}
    1ac8:	02000006 	andeq	r0, r0, #6
    1acc:	0000fb50 	andeq	pc, r0, r0, asr fp	; <UNPREDICTABLE>
    1ad0:	002c0c00 	eoreq	r0, ip, r0, lsl #24
    1ad4:	0f000000 	svceq	0x00000000
    1ad8:	00000699 	muleq	r0, r9, r6
    1adc:	e9006302 	stmdb	r0, {r1, r8, r9, sp, lr}
    1ae0:	04000002 	streq	r0, [r0], #-2
    1ae4:	00092400 	andeq	r2, r9, r0, lsl #8
    1ae8:	76010400 	strvc	r0, [r1], -r0, lsl #8
    1aec:	01000003 	tsteq	r0, r3
    1af0:	0000076f 	andeq	r0, r0, pc, ror #14
    1af4:	00000568 	andeq	r0, r0, r8, ror #10
    1af8:	00008cac 	andeq	r8, r0, ip, lsr #25
    1afc:	000000b0 	strheq	r0, [r0], -r0	; <UNPREDICTABLE>
    1b00:	0000098d 	andeq	r0, r0, sp, lsl #19
    1b04:	69050402 	stmdbvs	r5, {r1, sl}
    1b08:	0300746e 	movweq	r7, #1134	; 0x46e
    1b0c:	00620704 	rsbeq	r0, r2, r4, lsl #14
    1b10:	01030000 	mrseq	r0, (UNDEF: 3)
    1b14:	0002db06 	andeq	sp, r2, r6, lsl #22
    1b18:	05020300 	streq	r0, [r2, #-768]	; 0x300
    1b1c:	000002ef 	andeq	r0, r0, pc, ror #5
    1b20:	93050403 	movwls	r0, #21507	; 0x5403
    1b24:	03000000 	movweq	r0, #0
    1b28:	008e0508 	addeq	r0, lr, r8, lsl #10
    1b2c:	70040000 	andvc	r0, r4, r0
    1b30:	02000004 	andeq	r0, r0, #4
    1b34:	00005a2e 	andeq	r5, r0, lr, lsr #20
    1b38:	08010300 	stmdaeq	r1, {r8, r9}
    1b3c:	000002d9 	ldrdeq	r0, [r0], -r9
    1b40:	bb070203 	bllt	1c2354 <__bss_end__+0x1b3a5c>
    1b44:	04000001 	streq	r0, [r0], #-1
    1b48:	00000368 	andeq	r0, r0, r8, ror #6
    1b4c:	00733402 	rsbseq	r3, r3, r2, lsl #8
    1b50:	04030000 	streq	r0, [r3], #-0
    1b54:	00005d07 	andeq	r5, r0, r7, lsl #26
    1b58:	07080300 	streq	r0, [r8, -r0, lsl #6]
    1b5c:	00000058 	andeq	r0, r0, r8, asr r0
    1b60:	4a070403 	bmi	1c2b74 <__bss_end__+0x1b427c>
    1b64:	03000002 	movweq	r0, #2
    1b68:	02e20801 	rsceq	r0, r2, #65536	; 0x10000
    1b6c:	04050000 	streq	r0, [r5], #-0
    1b70:	00000095 	muleq	r0, r5, r0
    1b74:	00008806 	andeq	r8, r0, r6, lsl #16
    1b78:	030c0700 	movweq	r0, #50944	; 0xc700
    1b7c:	0000d10e 	andeq	sp, r0, lr, lsl #2
    1b80:	78740800 	ldmdavc	r4!, {fp}^
    1b84:	4f0f0300 	svcmi	0x000f0300
    1b88:	00000000 	andeq	r0, r0, r0
    1b8c:	00787208 	rsbseq	r7, r8, r8, lsl #4
    1b90:	004f0f03 	subeq	r0, pc, r3, lsl #30
    1b94:	09010000 	stmdbeq	r1, {}	; <UNPREDICTABLE>
    1b98:	00000371 	andeq	r0, r0, r1, ror r3
    1b9c:	00681003 	rsbeq	r1, r8, r3
    1ba0:	09040000 	stmdbeq	r4, {}	; <UNPREDICTABLE>
    1ba4:	00000505 	andeq	r0, r0, r5, lsl #10
    1ba8:	00681103 	rsbeq	r1, r8, r3, lsl #2
    1bac:	00080000 	andeq	r0, r8, r0
    1bb0:	0002cf04 	andeq	ip, r2, r4, lsl #30
    1bb4:	9a120300 	bls	4827bc <__bss_end__+0x473ec4>
    1bb8:	0a000000 	beq	1bc0 <_start-0x6440>
    1bbc:	f7100401 			; <UNDEFINED> instruction: 0xf7100401
    1bc0:	0b000000 	bleq	1bc8 <_start-0x6438>
    1bc4:	00000728 	andeq	r0, r0, r8, lsr #14
    1bc8:	071b0b01 	ldreq	r0, [fp, -r1, lsl #22]
    1bcc:	0b020000 	bleq	81bd4 <__bss_end__+0x732dc>
    1bd0:	0000070d 	andeq	r0, r0, sp, lsl #14
    1bd4:	3d040003 	stccc	0, cr0, [r4, #-12]
    1bd8:	04000007 	streq	r0, [r0], #-7
    1bdc:	0000dc10 	andeq	sp, r0, r0, lsl ip
    1be0:	04140700 	ldreq	r0, [r4], #-1792	; 0x700
    1be4:	00012f14 	andeq	r2, r1, r4, lsl pc
    1be8:	078f0900 	streq	r0, [pc, r0, lsl #18]
    1bec:	15040000 	strne	r0, [r4, #-0]
    1bf0:	0000002c 	andeq	r0, r0, ip, lsr #32
    1bf4:	07830900 	streq	r0, [r3, r0, lsl #18]
    1bf8:	18040000 	stmdane	r4, {}	; <UNPREDICTABLE>
    1bfc:	000000f7 	strdeq	r0, [r0], -r7
    1c00:	017e0904 	cmneq	lr, r4, lsl #18
    1c04:	1b040000 	blne	101c0c <__bss_end__+0xf3314>
    1c08:	000000d1 	ldrdeq	r0, [r0], -r1
    1c0c:	48040008 	stmdami	r4, {r3}
    1c10:	04000007 	streq	r0, [r0], #-7
    1c14:	00010220 	andeq	r0, r1, r0, lsr #4
    1c18:	06c70c00 	strbeq	r0, [r7], r0, lsl #24
    1c1c:	06010000 	streq	r0, [r1], -r0
    1c20:	00000025 	andeq	r0, r0, r5, lsr #32
    1c24:	00008cac 	andeq	r8, r0, ip, lsr #25
    1c28:	00000020 	andeq	r0, r0, r0, lsr #32
    1c2c:	017a9c01 	cmneq	sl, r1, lsl #24
    1c30:	630d0000 	movwvs	r0, #53248	; 0xd000
    1c34:	25060100 	strcs	r0, [r6, #-256]	; 0x100
    1c38:	9b000000 	blls	1c40 <_start-0x63c0>
    1c3c:	0e00000b 	cdpeq	0, 0, cr0, cr0, cr11, {0}
    1c40:	00008cc0 	andeq	r8, r0, r0, asr #25
    1c44:	00000280 	andeq	r0, r0, r0, lsl #5
    1c48:	0251010f 	subseq	r0, r1, #-1073741821	; 0xc0000003
    1c4c:	010f0074 	tsteq	pc, r4, ror r0	; <UNPREDICTABLE>
    1c50:	e8030550 	stmda	r3, {r4, r6, r8, sl}
    1c54:	000000e8 	andeq	r0, r0, r8, ror #1
    1c58:	07351000 	ldreq	r1, [r5, -r0]!
    1c5c:	0b010000 	bleq	41c64 <__bss_end__+0x3336c>
    1c60:	00008ccc 	andeq	r8, r0, ip, asr #25
    1c64:	00000090 	muleq	r0, r0, r0
    1c68:	022d9c01 	eoreq	r9, sp, #256	; 0x100
    1c6c:	db110000 	blle	441c74 <__bss_end__+0x43337c>
    1c70:	01000006 	tsteq	r0, r6
    1c74:	0000250c 	andeq	r2, r0, ip, lsl #10
    1c78:	07631100 	strbeq	r1, [r3, -r0, lsl #2]!
    1c7c:	0c010000 	stceq	0, cr0, [r1], {-0}
    1c80:	00000025 	andeq	r0, r0, r5, lsr #32
    1c84:	00002512 	andeq	r2, r0, r2, lsl r5
    1c88:	b20d0100 	andlt	r0, sp, #0, 2
    1c8c:	13000001 	movwne	r0, #1
    1c90:	73621400 	cmnvc	r2, #0, 8
    1c94:	0f010073 	svceq	0x00010073
    1c98:	0000022d 	andeq	r0, r0, sp, lsr #4
    1c9c:	00000bb9 			; <UNDEFINED> instruction: 0x00000bb9
    1ca0:	0006e915 	andeq	lr, r6, r5, lsl r9
    1ca4:	2d100100 	ldfcss	f0, [r0, #-0]
    1ca8:	14000002 	strne	r0, [r0], #-2
    1cac:	01006263 	tsteq	r0, r3, ror #4
    1cb0:	00023317 	andeq	r3, r2, r7, lsl r3
    1cb4:	000bd900 	andeq	sp, fp, r0, lsl #18
    1cb8:	8cf41600 	ldclhi	6, cr1, [r4]
    1cbc:	029c0000 	addseq	r0, ip, #0
    1cc0:	30170000 	andscc	r0, r7, r0
    1cc4:	a700008d 	strge	r0, [r0, -sp, lsl #1]
    1cc8:	03000002 	movweq	r0, #2
    1ccc:	0f000002 	svceq	0x00000002
    1cd0:	03055101 	movweq	r5, #20737	; 0x5101
    1cd4:	0000a1f8 	strdeq	sl, [r0], -r8
    1cd8:	0550010f 	ldrbeq	r0, [r0, #-271]	; 0x10f
    1cdc:	00e8e803 	rsceq	lr, r8, r3, lsl #16
    1ce0:	38170000 	ldmdacc	r7, {}	; <UNPREDICTABLE>
    1ce4:	c200008d 	andgt	r0, r0, #141	; 0x8d
    1ce8:	1a000002 	bne	1cf8 <_start-0x6308>
    1cec:	0f000002 	svceq	0x00000002
    1cf0:	03055001 	movweq	r5, #20481	; 0x5001
    1cf4:	0000a21c 	andeq	sl, r0, ip, lsl r2
    1cf8:	8d3c1600 	ldchi	6, cr1, [ip, #-0]
    1cfc:	02d80000 	sbcseq	r0, r8, #0
    1d00:	40160000 	andsmi	r0, r6, r0
    1d04:	e500008d 	str	r0, [r0, #-141]	; 0x8d
    1d08:	00000002 	andeq	r0, r0, r2
    1d0c:	00250405 	eoreq	r0, r5, r5, lsl #8
    1d10:	04050000 	streq	r0, [r5], #-0
    1d14:	0000012f 	andeq	r0, r0, pc, lsr #2
    1d18:	0006f118 	andeq	pc, r6, r8, lsl r1	; <UNPREDICTABLE>
    1d1c:	d1050100 	mrsle	r0, (UNDEF: 21)
    1d20:	05000000 	streq	r0, [r0, #-0]
    1d24:	00e8e803 	rsceq	lr, r8, r3, lsl #16
    1d28:	00251900 	eoreq	r1, r5, r0, lsl #18
    1d2c:	02590000 	subseq	r0, r9, #0
    1d30:	251a0000 	ldrcs	r0, [sl, #-0]
    1d34:	00000000 	andeq	r0, r0, r0
    1d38:	0005f811 	andeq	pc, r5, r1, lsl r8	; <UNPREDICTABLE>
    1d3c:	641d0500 	ldrvs	r0, [sp], #-1280	; 0x500
    1d40:	05000002 	streq	r0, [r0, #-2]
    1d44:	00024a04 	andeq	r4, r2, r4, lsl #20
    1d48:	06db1100 	ldrbeq	r1, [fp], r0, lsl #2
    1d4c:	0c010000 	stceq	0, cr0, [r1], {-0}
    1d50:	00000025 	andeq	r0, r0, r5, lsr #32
    1d54:	00076311 	andeq	r6, r7, r1, lsl r3
    1d58:	250c0100 	strcs	r0, [ip, #-256]	; 0x100
    1d5c:	1b000000 	blne	1d64 <_start-0x629c>
    1d60:	000001eb 	andeq	r0, r0, fp, ror #3
    1d64:	02964403 	addseq	r4, r6, #50331648	; 0x3000000
    1d68:	961a0000 	ldrls	r0, [sl], -r0
    1d6c:	1a000002 	bne	1d7c <_start-0x6284>
    1d70:	0000005a 	andeq	r0, r0, sl, asr r0
    1d74:	d1040500 	tstle	r4, r0, lsl #10
    1d78:	1c000000 	stcne	0, cr0, [r0], {-0}
    1d7c:	00000756 	andeq	r0, r0, r6, asr r7
    1d80:	02332a04 	eorseq	r2, r3, #4, 20	; 0x4000
    1d84:	fe1d0000 	cdp2	0, 1, cr0, cr13, cr0, {0}
    1d88:	03000006 	movweq	r0, #6
    1d8c:	00002515 	andeq	r2, r0, r5, lsl r5
    1d90:	0002c200 	andeq	ip, r2, r0, lsl #4
    1d94:	02961a00 	addseq	r1, r6, #0, 20
    1d98:	8f1a0000 	svchi	0x001a0000
    1d9c:	13000000 	movwne	r0, #0
    1da0:	05cc1d00 	strbeq	r1, [ip, #3328]	; 0xd00
    1da4:	29050000 	stmdbcs	r5, {}	; <UNPREDICTABLE>
    1da8:	00000025 	andeq	r0, r0, r5, lsr #32
    1dac:	000002d8 	ldrdeq	r0, [r0], -r8
    1db0:	00008f1a 	andeq	r8, r0, sl, lsl pc
    1db4:	12001300 	andne	r1, r0, #0, 6
    1db8:	00000025 	andeq	r0, r0, r5, lsr #32
    1dbc:	02e50d01 	rsceq	r0, r5, #1, 26	; 0x40
    1dc0:	00130000 	andseq	r0, r3, r0
    1dc4:	0006991e 	andeq	r9, r6, lr, lsl r9
    1dc8:	00630500 	rsbeq	r0, r3, r0, lsl #10
    1dcc:	000001ad 	andeq	r0, r0, sp, lsr #3
    1dd0:	0acc0004 	beq	ff301de8 <__bss_end__+0xff2f34f0>
    1dd4:	01040000 	mrseq	r0, (UNDEF: 4)
    1dd8:	00000376 	andeq	r0, r0, r6, ror r3
    1ddc:	0007af01 	andeq	sl, r7, r1, lsl #30
    1de0:	00056800 	andeq	r6, r5, r0, lsl #16
    1de4:	00009000 	andeq	r9, r0, r0
    1de8:	00000000 	andeq	r0, r0, r0
    1dec:	000ab200 	andeq	fp, sl, r0, lsl #4
    1df0:	05040200 	streq	r0, [r4, #-512]	; 0x200
    1df4:	00746e69 	rsbseq	r6, r4, r9, ror #28
    1df8:	62070403 	andvs	r0, r7, #50331648	; 0x3000000
    1dfc:	03000000 	movweq	r0, #0
    1e00:	02db0601 	sbcseq	r0, fp, #1048576	; 0x100000
    1e04:	02030000 	andeq	r0, r3, #0
    1e08:	0002ef05 	andeq	lr, r2, r5, lsl #30
    1e0c:	05040300 	streq	r0, [r4, #-768]	; 0x300
    1e10:	00000093 	muleq	r0, r3, r0
    1e14:	8e050803 	cdphi	8, 0, cr0, cr5, cr3, {0}
    1e18:	03000000 	movweq	r0, #0
    1e1c:	02d90801 	sbcseq	r0, r9, #65536	; 0x10000
    1e20:	02030000 	andeq	r0, r3, #0
    1e24:	0001bb07 	andeq	fp, r1, r7, lsl #22
    1e28:	07040300 	streq	r0, [r4, -r0, lsl #6]
    1e2c:	0000005d 	andeq	r0, r0, sp, asr r0
    1e30:	58070803 	stmdapl	r7, {r0, r1, fp}
    1e34:	03000000 	movweq	r0, #0
    1e38:	024a0704 	subeq	r0, sl, #4, 14	; 0x100000
    1e3c:	01030000 	mrseq	r0, (UNDEF: 3)
    1e40:	0002e208 	andeq	lr, r2, r8, lsl #4
    1e44:	07950400 	ldreq	r0, [r5, r0, lsl #8]
    1e48:	0e010000 	cdpeq	0, 0, cr0, cr1, cr0, {0}
    1e4c:	00000025 	andeq	r0, r0, r5, lsr #32
    1e50:	00008d5c 	andeq	r8, r0, ip, asr sp
    1e54:	00000018 	andeq	r0, r0, r8, lsl r0
    1e58:	00a29c01 	adceq	r9, r2, r1, lsl #24
    1e5c:	01050000 	mrseq	r0, (UNDEF: 5)
    1e60:	01000008 	tsteq	r0, r8
    1e64:	00002c0f 	andeq	r2, r0, pc, lsl #24
    1e68:	000bf900 	andeq	pc, fp, r0, lsl #18
    1e6c:	e4060000 	str	r0, [r6], #-0
    1e70:	01000007 	tsteq	r0, r7
    1e74:	008d7417 	addeq	r7, sp, r7, lsl r4
    1e78:	00001400 	andeq	r1, r0, r0, lsl #8
    1e7c:	c79c0100 	ldrgt	r0, [ip, r0, lsl #2]
    1e80:	05000000 	streq	r0, [r0, #-0]
    1e84:	00000801 	andeq	r0, r0, r1, lsl #16
    1e88:	002c1801 	eoreq	r1, ip, r1, lsl #16
    1e8c:	0c180000 	ldceq	0, cr0, [r8], {-0}
    1e90:	06000000 	streq	r0, [r0], -r0
    1e94:	00000699 	muleq	r0, r9, r6
    1e98:	8d881f01 	stchi	15, cr1, [r8, #4]
    1e9c:	00480000 	subeq	r0, r8, r0
    1ea0:	9c010000 	stcls	0, cr0, [r1], {-0}
    1ea4:	00000177 	andeq	r0, r0, r7, ror r1
    1ea8:	0007f907 	andeq	pc, r7, r7, lsl #18
    1eac:	772a0100 	strvc	r0, [sl, -r0, lsl #2]!
    1eb0:	1c000001 	stcne	0, cr0, [r0], {1}
    1eb4:	07201000 	streq	r1, [r0, -r0]!
    1eb8:	000007dc 	ldrdeq	r0, [r0], -ip
    1ebc:	01772b01 	cmneq	r7, r1, lsl #22
    1ec0:	00240000 	eoreq	r0, r4, r0
    1ec4:	a3072010 	movwge	r2, #28688	; 0x7010
    1ec8:	01000007 	tsteq	r0, r7
    1ecc:	0001772c 	andeq	r7, r1, ip, lsr #14
    1ed0:	00000000 	andeq	r0, r0, r0
    1ed4:	07c3085a 			; <UNDEFINED> instruction: 0x07c3085a
    1ed8:	2d010000 	stccs	0, cr0, [r1, #-0]
    1edc:	00000177 	andeq	r0, r0, r7, ror r1
    1ee0:	8d900920 	ldchi	9, cr0, [r0, #128]	; 0x80
    1ee4:	00790000 	rsbseq	r0, r9, r0
    1ee8:	9c090000 	stcls	0, cr0, [r9], {-0}
    1eec:	a200008d 	andge	r0, r0, #141	; 0x8d
    1ef0:	0a000000 	beq	1ef8 <_start-0x6108>
    1ef4:	00008da4 	andeq	r8, r0, r4, lsr #27
    1ef8:	0000018d 	andeq	r0, r0, sp, lsl #3
    1efc:	0000013a 	andeq	r0, r0, sl, lsr r1
    1f00:	0150010b 	cmpeq	r0, fp, lsl #2
    1f04:	b00a004e 	andlt	r0, sl, lr, asr #32
    1f08:	9e00008d 	cdpls	0, 0, cr0, cr0, cr13, {4}
    1f0c:	5a000001 	bpl	1f18 <_start-0x60e8>
    1f10:	0b000001 	bleq	1f1c <_start-0x60e4>
    1f14:	0c055101 	stfeqs	f5, [r5], {1}
    1f18:	5a000001 	bpl	1f24 <_start-0x60dc>
    1f1c:	0550010b 	ldrbeq	r0, [r0, #-267]	; 0x10b
    1f20:	1000240c 	andne	r2, r0, ip, lsl #8
    1f24:	bc0c0020 	stclt	0, cr0, [ip], {32}
    1f28:	9e00008d 	cdpls	0, 0, cr0, cr0, cr13, {4}
    1f2c:	0b000001 	bleq	1f38 <_start-0x60c8>
    1f30:	0c055101 	stfeqs	f5, [r5], {1}
    1f34:	5a000020 	bpl	1fbc <_start-0x6044>
    1f38:	0550010b 	ldrbeq	r0, [r0, #-267]	; 0x10b
    1f3c:	10001c0c 	andne	r1, r0, ip, lsl #24
    1f40:	0d000020 	stceq	0, cr0, [r0, #-128]	; 0xffffff80
    1f44:	00000025 	andeq	r0, r0, r5, lsr #32
    1f48:	00079808 	andeq	r9, r7, r8, lsl #16
    1f4c:	880d0100 	stmdahi	sp, {r8}
    1f50:	10000001 	andne	r0, r0, r1
    1f54:	00002c0d 	andeq	r2, r0, sp, lsl #24
    1f58:	06be0e00 	ldrteq	r0, [lr], r0, lsl #28
    1f5c:	50020000 	andpl	r0, r2, r0
    1f60:	0000019e 	muleq	r0, lr, r1
    1f64:	00002c0f 	andeq	r2, r0, pc, lsl #24
    1f68:	f3100000 	vhadd.u16	d0, d0, d0
    1f6c:	02000007 	andeq	r0, r0, #7
    1f70:	002c0f99 	mlaeq	ip, r9, pc, r0	; <UNPREDICTABLE>
    1f74:	2c0f0000 	stccs	0, cr0, [pc], {-0}
    1f78:	00000000 	andeq	r0, r0, r0
    1f7c:	0001d800 	andeq	sp, r1, r0, lsl #16
    1f80:	ba000400 	blt	2f88 <_start-0x5078>
    1f84:	0400000b 	streq	r0, [r0], #-11
    1f88:	00037601 	andeq	r7, r3, r1, lsl #12
    1f8c:	08230100 	stmdaeq	r3!, {r8}
    1f90:	05680000 	strbeq	r0, [r8, #-0]!
    1f94:	8dd00000 	ldclhi	0, cr0, [r0]
    1f98:	00880000 	addeq	r0, r8, r0
    1f9c:	0b4f0000 	bleq	13c1fa4 <__bss_end__+0x13b36ac>
    1fa0:	04020000 	streq	r0, [r2], #-0
    1fa4:	746e6905 	strbtvc	r6, [lr], #-2309	; 0x905
    1fa8:	07040300 	streq	r0, [r4, -r0, lsl #6]
    1fac:	00000062 	andeq	r0, r0, r2, rrx
    1fb0:	db060103 	blle	1823c4 <__bss_end__+0x173acc>
    1fb4:	03000002 	movweq	r0, #2
    1fb8:	02ef0502 	rsceq	r0, pc, #8388608	; 0x800000
    1fbc:	04030000 	streq	r0, [r3], #-0
    1fc0:	00009305 	andeq	r9, r0, r5, lsl #6
    1fc4:	05080300 	streq	r0, [r8, #-768]	; 0x300
    1fc8:	0000008e 	andeq	r0, r0, lr, lsl #1
    1fcc:	d9080103 	stmdble	r8, {r0, r1, r8}
    1fd0:	03000002 	movweq	r0, #2
    1fd4:	01bb0702 			; <UNDEFINED> instruction: 0x01bb0702
    1fd8:	04030000 	streq	r0, [r3], #-0
    1fdc:	00005d07 	andeq	r5, r0, r7, lsl #26
    1fe0:	07080300 	streq	r0, [r8, -r0, lsl #6]
    1fe4:	00000058 	andeq	r0, r0, r8, asr r0
    1fe8:	4a070403 	bmi	1c2ffc <__bss_end__+0x1b4704>
    1fec:	03000002 	movweq	r0, #2
    1ff0:	02e20801 	rsceq	r0, r2, #65536	; 0x10000
    1ff4:	42040000 	andmi	r0, r4, #0
    1ff8:	01000008 	tsteq	r0, r8
    1ffc:	008dd005 	addeq	sp, sp, r5
    2000:	00001c00 	andeq	r1, r0, r0, lsl #24
    2004:	9e9c0100 	fmllse	f0, f4, f0
    2008:	05000000 	streq	r0, [r0, #-0]
    200c:	0000083c 	andeq	r0, r0, ip, lsr r8
    2010:	002c0501 	eoreq	r0, ip, r1, lsl #10
    2014:	0c420000 	mareq	acc0, r0, r2
    2018:	06000000 	streq	r0, [r0], -r0
    201c:	00000806 	andeq	r0, r0, r6, lsl #16
    2020:	002c0b01 	eoreq	r0, ip, r1, lsl #22
    2024:	8dec0000 	stclhi	0, cr0, [ip]
    2028:	00140000 	andseq	r0, r4, r0
    202c:	9c010000 	stcls	0, cr0, [r1], {-0}
    2030:	000000cb 	andeq	r0, r0, fp, asr #1
    2034:	008df807 	addeq	pc, sp, r7, lsl #16
    2038:	0001ca00 	andeq	ip, r1, r0, lsl #20
    203c:	50010800 	andpl	r0, r1, r0, lsl #16
    2040:	30040c05 	andcc	r0, r4, r5, lsl #24
    2044:	00002000 	andeq	r2, r0, r0
    2048:	00085806 	andeq	r5, r8, r6, lsl #16
    204c:	2c100100 	ldfcss	f0, [r0], {-0}
    2050:	00000000 	andeq	r0, r0, r0
    2054:	0c00008e 	stceq	0, cr0, [r0], {142}	; 0x8e
    2058:	01000000 	mrseq	r0, (UNDEF: 0)
    205c:	0000f99c 	muleq	r0, ip, r9
    2060:	00750900 	rsbseq	r0, r5, r0, lsl #18
    2064:	002c1401 	eoreq	r1, ip, r1, lsl #8
    2068:	50010000 	andpl	r0, r1, r0
    206c:	008e080a 	addeq	r0, lr, sl, lsl #16
    2070:	00009e00 	andeq	r9, r0, r0, lsl #28
    2074:	4f040000 	svcmi	0x00040000
    2078:	01000008 	tsteq	r0, r8
    207c:	008e0c19 	addeq	r0, lr, r9, lsl ip
    2080:	00002400 	andeq	r2, r0, r0, lsl #8
    2084:	579c0100 	ldrpl	r0, [ip, r0, lsl #2]
    2088:	0b000001 	bleq	2094 <_start-0x5f6c>
    208c:	01007375 	tsteq	r0, r5, ror r3
    2090:	00002c19 	andeq	r2, r0, r9, lsl ip
    2094:	000c7600 	andeq	r7, ip, r0, lsl #12
    2098:	62720900 	rsbsvs	r0, r2, #0, 18
    209c:	2c1a0100 	ldfcss	f0, [sl], {-0}
    20a0:	01000000 	mrseq	r0, (UNDEF: 0)
    20a4:	8e1c0c54 	mrchi	12, 0, r0, cr12, cr4, {2}
    20a8:	00100000 	andseq	r0, r0, r0
    20ac:	014d0000 	mrseq	r0, (UNDEF: 77)
    20b0:	720d0000 	andvc	r0, sp, #0
    20b4:	1c010061 	stcne	0, cr0, [r1], {97}	; 0x61
    20b8:	0000002c 	andeq	r0, r0, ip, lsr #32
    20bc:	00000c94 	muleq	r0, r4, ip
    20c0:	008e200a 	addeq	r2, lr, sl
    20c4:	0000cb00 	andeq	ip, r0, r0, lsl #22
    20c8:	180a0000 	stmdane	sl, {}	; <UNPREDICTABLE>
    20cc:	cb00008e 	blgt	230c <_start-0x5cf4>
    20d0:	00000000 	andeq	r0, r0, r0
    20d4:	0006be04 	andeq	fp, r6, r4, lsl #28
    20d8:	30220100 	eorcc	r0, r2, r0, lsl #2
    20dc:	1400008e 	strne	r0, [r0], #-142	; 0x8e
    20e0:	01000000 	mrseq	r0, (UNDEF: 0)
    20e4:	0001909c 	muleq	r1, ip, r0
    20e8:	736d0b00 	cmnvc	sp, #0, 22
    20ec:	2c220100 	stfcss	f0, [r2], #-0
    20f0:	a7000000 	strge	r0, [r0, -r0]
    20f4:	0700000c 	streq	r0, [r0, -ip]
    20f8:	00008e40 	andeq	r8, r0, r0, asr #28
    20fc:	000000f9 	strdeq	r0, [r0], -r9
    2100:	07500108 	ldrbeq	r0, [r0, -r8, lsl #2]
    2104:	0a5001f3 	beq	14028d8 <__bss_end__+0x13f3fe0>
    2108:	001e03e8 	andseq	r0, lr, r8, ror #7
    210c:	08190400 	ldmdaeq	r9, {sl}
    2110:	25010000 	strcs	r0, [r1, #-0]
    2114:	00008e44 	andeq	r8, r0, r4, asr #28
    2118:	00000014 	andeq	r0, r0, r4, lsl r0
    211c:	01ca9c01 	biceq	r9, sl, r1, lsl #24
    2120:	730b0000 	movwvc	r0, #45056	; 0xb000
    2124:	01006365 	tsteq	r0, r5, ror #6
    2128:	00002c25 	andeq	r2, r0, r5, lsr #24
    212c:	000cc800 	andeq	ip, ip, r0, lsl #16
    2130:	8e540700 	cdphi	7, 5, cr0, cr4, cr0, {0}
    2134:	01570000 	cmpeq	r7, r0
    2138:	01080000 	mrseq	r0, (UNDEF: 8)
    213c:	01f30750 	mvnseq	r0, r0, asr r7
    2140:	03e80a50 	mvneq	r0, #80, 20	; 0x50000
    2144:	0e00001e 	mcreq	0, 0, r0, cr0, cr14, {0}
    2148:	00000836 	andeq	r0, r0, r6, lsr r8
    214c:	002ca502 	eoreq	sl, ip, r2, lsl #10
    2150:	2c0f0000 	stccs	0, cr0, [pc], {-0}
    2154:	00000000 	andeq	r0, r0, r0
    2158:	0008cf00 	andeq	ip, r8, r0, lsl #30
    215c:	9d000400 	cfstrsls	mvf0, [r0, #-0]
    2160:	0400000c 	streq	r0, [r0], #-12
    2164:	00037601 	andeq	r7, r3, r1, lsl #12
    2168:	08b10100 	ldmeq	r1!, {r8}
    216c:	05680000 	strbeq	r0, [r8, #-0]!
    2170:	8e580000 	cdphi	0, 5, cr0, cr8, cr0, {0}
    2174:	05bc0000 	ldreq	r0, [ip, #0]!
    2178:	0bf60000 	bleq	ffd82180 <__bss_end__+0xffd73888>
    217c:	08020000 	stmdaeq	r2, {}	; <UNPREDICTABLE>
    2180:	00005807 	andeq	r5, r0, r7, lsl #16
    2184:	07040200 	streq	r0, [r4, -r0, lsl #4]
    2188:	00000062 	andeq	r0, r0, r2, rrx
    218c:	db060102 	blle	18259c <__bss_end__+0x173ca4>
    2190:	02000002 	andeq	r0, r0, #2
    2194:	02ef0502 	rsceq	r0, pc, #8388608	; 0x800000
    2198:	04020000 	streq	r0, [r2], #-0
    219c:	00009305 	andeq	r9, r0, r5, lsl #6
    21a0:	05080200 	streq	r0, [r8, #-512]	; 0x200
    21a4:	0000008e 	andeq	r0, r0, lr, lsl #1
    21a8:	d9080102 	stmdble	r8, {r1, r8}
    21ac:	02000002 	andeq	r0, r0, #2
    21b0:	01bb0702 			; <UNDEFINED> instruction: 0x01bb0702
    21b4:	04020000 	streq	r0, [r2], #-0
    21b8:	00005d07 	andeq	r5, r0, r7, lsl #26
    21bc:	05040300 	streq	r0, [r4, #-768]	; 0x300
    21c0:	00746e69 	rsbseq	r6, r4, r9, ror #28
    21c4:	4a070402 	bmi	1c31d4 <__bss_end__+0x1b48dc>
    21c8:	02000002 	andeq	r0, r0, #2
    21cc:	02e20801 	rsceq	r0, r2, #65536	; 0x10000
    21d0:	01040000 	mrseq	r0, (UNDEF: 4)
    21d4:	00b20c02 	adcseq	r0, r2, r2, lsl #24
    21d8:	75050000 	strvc	r0, [r5, #-0]
    21dc:	00000000 	andeq	r0, r0, r0
    21e0:	00045f05 	andeq	r5, r4, r5, lsl #30
    21e4:	9c050100 	stflss	f0, [r5], {-0}
    21e8:	04000004 	streq	r0, [r0], #-4
    21ec:	0004ab05 	andeq	sl, r4, r5, lsl #22
    21f0:	ba050500 	blt	1435f8 <__bss_end__+0x134d00>
    21f4:	06000004 	streq	r0, [r0], -r4
    21f8:	0004c905 	andeq	ip, r4, r5, lsl #18
    21fc:	d8050700 	stmdale	r5, {r8, r9, sl}
    2200:	03000004 	movweq	r0, #4
    2204:	0004e705 	andeq	lr, r4, r5, lsl #14
    2208:	06000200 	streq	r0, [r0], -r0, lsl #4
    220c:	0000047e 	andeq	r0, r0, lr, ror r4
    2210:	00791502 	rsbseq	r1, r9, r2, lsl #10
    2214:	e3070000 	movw	r0, #28672	; 0x7000
    2218:	01000009 	tsteq	r0, r9
    221c:	008e583f 	addeq	r5, lr, pc, lsr r8
    2220:	0000d400 	andeq	sp, r0, r0, lsl #8
    2224:	339c0100 	orrscc	r0, ip, #0, 2
    2228:	08000001 	stmdaeq	r0, {r0}
    222c:	006e6970 	rsbeq	r6, lr, r0, ror r9
    2230:	002c3f01 	eoreq	r3, ip, r1, lsl #30
    2234:	0ce90000 	stcleq	0, cr0, [r9]
    2238:	ed090000 	stc	0, cr0, [r9, #-0]
    223c:	01000008 	tsteq	r0, r8
    2240:	00013347 	andeq	r3, r1, r7, asr #6
    2244:	000d0700 	andeq	r0, sp, r0, lsl #14
    2248:	0a090900 	beq	244650 <__bss_end__+0x235d58>
    224c:	49010000 	stmdbmi	r1, {}	; <UNPREDICTABLE>
    2250:	0000002c 	andeq	r0, r0, ip, lsr #32
    2254:	00000d5c 	andeq	r0, r0, ip, asr sp
    2258:	00098a09 	andeq	r8, r9, r9, lsl #20
    225c:	2c570100 	ldfcse	f0, [r7], {-0}
    2260:	28000000 	stmdacs	r0, {}	; <UNPREDICTABLE>
    2264:	0a00000f 	beq	22a8 <_start-0x5d58>
    2268:	00008eec 	andeq	r8, r0, ip, ror #29
    226c:	0000088e 	andeq	r0, r0, lr, lsl #17
    2270:	00000122 	andeq	r0, r0, r2, lsr #2
    2274:	0250010b 	subseq	r0, r0, #-1073741822	; 0xc0000002
    2278:	0c000075 	stceq	0, cr0, [r0], {117}	; 0x75
    227c:	00008f20 	andeq	r8, r0, r0, lsr #30
    2280:	000008af 	andeq	r0, r0, pc, lsr #17
    2284:	0250010b 	subseq	r0, r0, #-1073741822	; 0xc0000002
    2288:	00000075 	andeq	r0, r0, r5, ror r0
    228c:	0139040d 	teqeq	r9, sp, lsl #8
    2290:	2c0e0000 	stccs	0, cr0, [lr], {-0}
    2294:	0f000000 	svceq	0x00000000
    2298:	000009c9 	andeq	r0, r0, r9, asr #19
    229c:	6c036001 	stcvs	0, cr6, [r3], {1}
    22a0:	10000001 	andne	r0, r0, r1
    22a4:	006e6970 	rsbeq	r6, lr, r0, ror r9
    22a8:	002c6001 	eoreq	r6, ip, r1
    22ac:	ed110000 	ldc	0, cr0, [r1, #-0]
    22b0:	01000008 	tsteq	r0, r8
    22b4:	00013367 	andeq	r3, r1, r7, ror #6
    22b8:	098a1100 	stmibeq	sl, {r8, ip}
    22bc:	68010000 	stmdavs	r1, {}	; <UNPREDICTABLE>
    22c0:	0000002c 	andeq	r0, r0, ip, lsr #32
    22c4:	013e1200 	teqeq	lr, r0, lsl #4
    22c8:	8f2c0000 	svchi	0x002c0000
    22cc:	00380000 	eorseq	r0, r8, r0
    22d0:	9c010000 	stcls	0, cr0, [r1], {-0}
    22d4:	000001b0 			; <UNDEFINED> instruction: 0x000001b0
    22d8:	00014a13 	andeq	r4, r1, r3, lsl sl
    22dc:	000f5800 	andeq	r5, pc, r0, lsl #16
    22e0:	01551400 	cmpeq	r5, r0, lsl #8
    22e4:	0f790000 	svceq	0x00790000
    22e8:	60140000 	andsvs	r0, r4, r0
    22ec:	af000001 	svcge	0x00000001
    22f0:	0c00000f 	stceq	0, cr0, [r0], {15}
    22f4:	00008f5c 	andeq	r8, r0, ip, asr pc
    22f8:	000008af 	andeq	r0, r0, pc, lsr #17
    22fc:	0751010b 	ldrbeq	r0, [r1, -fp, lsl #2]
    2300:	5001f331 	andpl	pc, r1, r1, lsr r3	; <UNPREDICTABLE>
    2304:	00241a4f 	eoreq	r1, r4, pc, asr #20
    2308:	08a40f00 	stmiaeq	r4!, {r8, r9, sl, fp}
    230c:	7b010000 	blvc	42314 <__bss_end__+0x33a1c>
    2310:	0001de03 	andeq	sp, r1, r3, lsl #28
    2314:	69701000 	ldmdbvs	r0!, {ip}^
    2318:	7b01006e 	blvc	424d8 <__bss_end__+0x33be0>
    231c:	0000002c 	andeq	r0, r0, ip, lsr #32
    2320:	0008ed11 	andeq	lr, r8, r1, lsl sp
    2324:	33810100 	orrcc	r0, r1, #0, 2
    2328:	11000001 	tstne	r0, r1
    232c:	0000098a 	andeq	r0, r0, sl, lsl #19
    2330:	002c8201 	eoreq	r8, ip, r1, lsl #4
    2334:	12000000 	andne	r0, r0, #0
    2338:	000001b0 			; <UNDEFINED> instruction: 0x000001b0
    233c:	00008f64 	andeq	r8, r0, r4, ror #30
    2340:	00000038 	andeq	r0, r0, r8, lsr r0
    2344:	02229c01 	eoreq	r9, r2, #256	; 0x100
    2348:	bc130000 	ldclt	0, cr0, [r3], {-0}
    234c:	ef000001 	svc	0x00000001
    2350:	1400000f 	strne	r0, [r0], #-15
    2354:	000001c7 	andeq	r0, r0, r7, asr #3
    2358:	00001010 	andeq	r1, r0, r0, lsl r0
    235c:	0001d214 	andeq	sp, r1, r4, lsl r2
    2360:	00104600 	andseq	r4, r0, r0, lsl #12
    2364:	8f940c00 	svchi	0x00940c00
    2368:	08af0000 	stmiaeq	pc!, {}	; <UNPREDICTABLE>
    236c:	010b0000 	mrseq	r0, (UNDEF: 11)
    2370:	f3310751 	vaba.u<illegal width 64>	q0, <illegal reg q0.5>, <illegal reg q0.5>
    2374:	1a4f5001 	bne	13d6380 <__bss_end__+0x13c7a88>
    2378:	07000024 	streq	r0, [r0, -r4, lsr #32]
    237c:	000009ac 	andeq	r0, r0, ip, lsr #19
    2380:	8f9c9501 	svchi	0x009c9501
    2384:	00cc0000 	sbceq	r0, ip, r0
    2388:	9c010000 	stcls	0, cr0, [r1], {-0}
    238c:	00000298 	muleq	r0, r8, r2
    2390:	6e697008 	cdpvs	0, 6, cr7, cr9, cr8, {0}
    2394:	2c950100 	ldfcss	f0, [r5], {0}
    2398:	86000000 	strhi	r0, [r0], -r0
    239c:	09000010 	stmdbeq	r0, {r4}
    23a0:	000008ed 	andeq	r0, r0, sp, ror #17
    23a4:	01339b01 	teqeq	r3, r1, lsl #22
    23a8:	10a40000 	adcne	r0, r4, r0
    23ac:	09090000 	stmdbeq	r9, {}	; <UNPREDICTABLE>
    23b0:	0100000a 	tsteq	r0, sl
    23b4:	00002c9d 	muleq	r0, sp, ip
    23b8:	0010f900 	andseq	pc, r0, r0, lsl #18
    23bc:	098a0900 	stmibeq	sl, {r8, fp}
    23c0:	ab010000 	blge	423c8 <__bss_end__+0x33ad0>
    23c4:	0000002c 	andeq	r0, r0, ip, lsr #32
    23c8:	000012c5 	andeq	r1, r0, r5, asr #5
    23cc:	0090300a 	addseq	r3, r0, sl
    23d0:	00088e00 	andeq	r8, r8, r0, lsl #28
    23d4:	00028700 	andeq	r8, r2, r0, lsl #14
    23d8:	50010b00 	andpl	r0, r1, r0, lsl #22
    23dc:	00007502 	andeq	r7, r0, r2, lsl #10
    23e0:	00905c0c 	addseq	r5, r0, ip, lsl #24
    23e4:	0008af00 	andeq	sl, r8, r0, lsl #30
    23e8:	50010b00 	andpl	r0, r1, r0, lsl #22
    23ec:	00007502 	andeq	r7, r0, r2, lsl #10
    23f0:	09301500 	ldmdbeq	r0!, {r8, sl, ip}
    23f4:	b3010000 	movwlt	r0, #4096	; 0x1000
    23f8:	00000064 	andeq	r0, r0, r4, rrx
    23fc:	00009068 	andeq	r9, r0, r8, rrx
    2400:	0000004c 	andeq	r0, r0, ip, asr #32
    2404:	02e09c01 	rsceq	r9, r0, #256	; 0x100
    2408:	70080000 	andvc	r0, r8, r0
    240c:	01006e69 	tsteq	r0, r9, ror #28
    2410:	00002cb3 			; <UNDEFINED> instruction: 0x00002cb3
    2414:	0012e300 	andseq	lr, r2, r0, lsl #6
    2418:	00761600 	rsbseq	r1, r6, r0, lsl #12
    241c:	002cb901 	eoreq	fp, ip, r1, lsl #18
    2420:	133b0000 	teqne	fp, #0
    2424:	88170000 	ldmdahi	r7, {}	; <UNPREDICTABLE>
    2428:	8e000090 	mcrhi	0, 0, r0, cr0, cr0, {4}
    242c:	17000008 	strne	r0, [r0, -r8]
    2430:	00009098 	muleq	r0, r8, r0
    2434:	0000088e 	andeq	r0, r0, lr, lsl #17
    2438:	09920700 	ldmibeq	r2, {r8, r9, sl}
    243c:	c5010000 	strgt	r0, [r1, #-0]
    2440:	000090b4 	strheq	r9, [r0], -r4
    2444:	00000078 	andeq	r0, r0, r8, ror r0
    2448:	03aa9c01 			; <UNDEFINED> instruction: 0x03aa9c01
    244c:	70080000 	andvc	r0, r8, r0
    2450:	01006e69 	tsteq	r0, r9, ror #28
    2454:	00002cc5 	andeq	r2, r0, r5, asr #25
    2458:	00137100 	andseq	r7, r3, r0, lsl #2
    245c:	00760800 	rsbseq	r0, r6, r0, lsl #16
    2460:	002cc501 	eoreq	ip, ip, r1, lsl #10
    2464:	13ab0000 			; <UNDEFINED> instruction: 0x13ab0000
    2468:	3e180000 	cdpcc	0, 1, cr0, cr8, cr0, {0}
    246c:	c8000001 	stmdagt	r0, {r0}
    2470:	30000090 	mulcc	r0, r0, r0
    2474:	01000000 	mrseq	r0, (UNDEF: 0)
    2478:	00035fcc 	andeq	r5, r3, ip, asr #31
    247c:	014a1300 	mrseq	r1, (UNDEF: 122)
    2480:	13e50000 	mvnne	r0, #0
    2484:	c8190000 	ldmdagt	r9, {}	; <UNPREDICTABLE>
    2488:	30000090 	mulcc	r0, r0, r0
    248c:	14000000 	strne	r0, [r0], #-0
    2490:	00000155 	andeq	r0, r0, r5, asr r1
    2494:	00001406 	andeq	r1, r0, r6, lsl #8
    2498:	00016014 	andeq	r6, r1, r4, lsl r0
    249c:	00143c00 	andseq	r3, r4, r0, lsl #24
    24a0:	90f40c00 	rscsls	r0, r4, r0, lsl #24
    24a4:	08af0000 	stmiaeq	pc!, {}	; <UNPREDICTABLE>
    24a8:	010b0000 	mrseq	r0, (UNDEF: 11)
    24ac:	f3310751 	vaba.u<illegal width 64>	q0, <illegal reg q0.5>, <illegal reg q0.5>
    24b0:	1a4f5001 	bne	13d64bc <__bss_end__+0x13c7bc4>
    24b4:	00000024 	andeq	r0, r0, r4, lsr #32
    24b8:	0001b01a 	andeq	fp, r1, sl, lsl r0
    24bc:	0090f800 	addseq	pc, r0, r0, lsl #16
    24c0:	00003400 	andeq	r3, r0, r0, lsl #8
    24c4:	13ce0100 	bicne	r0, lr, #0, 2
    24c8:	000001bc 			; <UNDEFINED> instruction: 0x000001bc
    24cc:	0000147c 	andeq	r1, r0, ip, ror r4
    24d0:	0090f819 	addseq	pc, r0, r9, lsl r8	; <UNPREDICTABLE>
    24d4:	00003400 	andeq	r3, r0, r0, lsl #8
    24d8:	01c71400 	biceq	r1, r7, r0, lsl #8
    24dc:	149d0000 	ldrne	r0, [sp], #0
    24e0:	d2140000 	andsle	r0, r4, #0
    24e4:	d3000001 	movwle	r0, #1
    24e8:	0c000014 	stceq	0, cr0, [r0], {20}
    24ec:	00009124 	andeq	r9, r0, r4, lsr #2
    24f0:	000008af 	andeq	r0, r0, pc, lsr #17
    24f4:	0751010b 	ldrbeq	r0, [r1, -fp, lsl #2]
    24f8:	5001f331 	andpl	pc, r1, r1, lsr r3	; <UNPREDICTABLE>
    24fc:	00241a4f 	eoreq	r1, r4, pc, asr #20
    2500:	07000000 	streq	r0, [r0, -r0]
    2504:	00000253 	andeq	r0, r0, r3, asr r2
    2508:	912cd101 	teqls	ip, r1, lsl #2
    250c:	00d80000 	sbcseq	r0, r8, r0
    2510:	9c010000 	stcls	0, cr0, [r1], {-0}
    2514:	0000042f 	andeq	r0, r0, pc, lsr #8
    2518:	6e697008 	cdpvs	0, 6, cr7, cr9, cr8, {0}
    251c:	2cd10100 	ldfcse	f0, [r1], {0}
    2520:	13000000 	movwne	r0, #0
    2524:	1b000015 	blne	2580 <_start-0x5a80>
    2528:	000009a7 	andeq	r0, r0, r7, lsr #19
    252c:	00b2d101 	adcseq	sp, r2, r1, lsl #2
    2530:	15310000 	ldrne	r0, [r1, #-0]!
    2534:	ed090000 	stc	0, cr0, [r9, #-0]
    2538:	01000008 	tsteq	r0, r8
    253c:	000133d9 	ldrdeq	r3, [r1], -r9
    2540:	00155200 	andseq	r5, r5, r0, lsl #4
    2544:	0a090900 	beq	24494c <__bss_end__+0x236054>
    2548:	da010000 	ble	42550 <__bss_end__+0x33c58>
    254c:	0000002c 	andeq	r0, r0, ip, lsr #32
    2550:	000015a7 	andeq	r1, r0, r7, lsr #11
    2554:	00098a09 	andeq	r8, r9, r9, lsl #20
    2558:	2ce80100 	stfcse	f0, [r8]
    255c:	73000000 	movwvc	r0, #0
    2560:	0a000017 	beq	25c4 <_start-0x5a3c>
    2564:	000091c8 	andeq	r9, r0, r8, asr #3
    2568:	0000088e 	andeq	r0, r0, lr, lsl #17
    256c:	0000041e 	andeq	r0, r0, lr, lsl r4
    2570:	0250010b 	subseq	r0, r0, #-1073741822	; 0xc0000002
    2574:	0c000076 	stceq	0, cr0, [r0], {118}	; 0x76
    2578:	000091f8 	strdeq	r9, [r0], -r8
    257c:	000008af 	andeq	r0, r0, pc, lsr #17
    2580:	0250010b 	subseq	r0, r0, #-1073741822	; 0xc0000002
    2584:	00000076 	andeq	r0, r0, r6, ror r0
    2588:	0008981c 	andeq	r9, r8, ip, lsl r8
    258c:	01050100 	mrseq	r0, (UNDEF: 21)
    2590:	00000064 	andeq	r0, r0, r4, rrx
    2594:	00009204 	andeq	r9, r0, r4, lsl #4
    2598:	0000002c 	andeq	r0, r0, ip, lsr #32
    259c:	04639c01 	strbteq	r9, [r3], #-3073	; 0xc01
    25a0:	9b1d0000 	blls	7425a8 <__bss_end__+0x733cb0>
    25a4:	01000008 	tsteq	r0, r8
    25a8:	002c0105 	eoreq	r0, ip, r5, lsl #2
    25ac:	17a40000 	strne	r0, [r4, r0]!
    25b0:	14170000 	ldrne	r0, [r7], #-0
    25b4:	8e000092 	mcrhi	0, 0, r0, cr0, cr2, {4}
    25b8:	00000008 	andeq	r0, r0, r8
    25bc:	00093a1e 	andeq	r3, r9, lr, lsl sl
    25c0:	01140100 	tsteq	r4, r0, lsl #2
    25c4:	00009230 	andeq	r9, r0, r0, lsr r2
    25c8:	00000084 	andeq	r0, r0, r4, lsl #1
    25cc:	05279c01 	streq	r9, [r7, #-3073]!	; 0xc01
    25d0:	701f0000 	andsvc	r0, pc, r0
    25d4:	01006e69 	tsteq	r0, r9, ror #28
    25d8:	002c0114 	eoreq	r0, ip, r4, lsl r1
    25dc:	17c50000 	strbne	r0, [r5, r0]
    25e0:	bf200000 	svclt	0x00200000
    25e4:	01000008 	tsteq	r0, r8
    25e8:	002c0126 	eoreq	r0, ip, r6, lsr #2
    25ec:	17f10000 	ldrbne	r0, [r1, r0]!
    25f0:	4c210000 	stcmi	0, cr0, [r1], #-0
    25f4:	1c000092 	stcne	0, cr0, [r0], {146}	; 0x92
    25f8:	c9000000 	stmdbgt	r0, {}	; <UNPREDICTABLE>
    25fc:	20000004 	andcs	r0, r0, r4
    2600:	0000098a 	andeq	r0, r0, sl, lsl #19
    2604:	2c011d01 	stccs	13, cr1, [r1], {1}
    2608:	0f000000 	svceq	0x00000000
    260c:	17000018 	smladne	r0, r8, r0, r0
    2610:	00009258 	andeq	r9, r0, r8, asr r2
    2614:	0000088e 	andeq	r0, r0, lr, lsl #17
    2618:	00926817 	addseq	r6, r2, r7, lsl r8
    261c:	0008af00 	andeq	sl, r8, r0, lsl #30
    2620:	6c210000 	stcvs	0, cr0, [r1], #-0
    2624:	20000092 	mulcs	r0, r2, r0
    2628:	f9000000 			; <UNDEFINED> instruction: 0xf9000000
    262c:	20000004 	andcs	r0, r0, r4
    2630:	0000098a 	andeq	r0, r0, sl, lsl #19
    2634:	2c012101 	stfcss	f2, [r1], {1}
    2638:	2d000000 	stccs	0, cr0, [r0, #-0]
    263c:	17000018 	smladne	r0, r8, r0, r0
    2640:	00009278 	andeq	r9, r0, r8, ror r2
    2644:	0000088e 	andeq	r0, r0, lr, lsl #17
    2648:	00928c17 	addseq	r8, r2, r7, lsl ip
    264c:	0008af00 	andeq	sl, r8, r0, lsl #30
    2650:	44170000 	ldrmi	r0, [r7], #-0
    2654:	cb000092 	blgt	28a4 <_start-0x575c>
    2658:	17000008 	strne	r0, [r0, -r8]
    265c:	00009290 	muleq	r0, r0, r2
    2660:	000008cb 	andeq	r0, r0, fp, asr #17
    2664:	00929c17 	addseq	r9, r2, r7, lsl ip
    2668:	00088e00 	andeq	r8, r8, r0, lsl #28
    266c:	92a81700 	adcls	r1, r8, #0, 14
    2670:	08af0000 	stmiaeq	pc!, {}	; <UNPREDICTABLE>
    2674:	ac170000 	ldcge	0, cr0, [r7], {-0}
    2678:	cb000092 	blgt	28c8 <_start-0x5738>
    267c:	00000008 	andeq	r0, r0, r8
    2680:	0009f31e 	andeq	pc, r9, lr, lsl r3	; <UNPREDICTABLE>
    2684:	01310100 	teqeq	r1, r0, lsl #2
    2688:	000092b4 			; <UNDEFINED> instruction: 0x000092b4
    268c:	00000084 	andeq	r0, r0, r4, lsl #1
    2690:	05eb9c01 	strbeq	r9, [fp, #3073]!	; 0xc01
    2694:	701f0000 	andsvc	r0, pc, r0
    2698:	01006e69 	tsteq	r0, r9, ror #28
    269c:	002c0131 	eoreq	r0, ip, r1, lsr r1
    26a0:	184b0000 	stmdane	fp, {}^	; <UNPREDICTABLE>
    26a4:	bf200000 	svclt	0x00200000
    26a8:	01000008 	tsteq	r0, r8
    26ac:	002c0142 	eoreq	r0, ip, r2, asr #2
    26b0:	18770000 	ldmdane	r7!, {}^	; <UNPREDICTABLE>
    26b4:	d0210000 	eorle	r0, r1, r0
    26b8:	1c000092 	stcne	0, cr0, [r0], {146}	; 0x92
    26bc:	8d000000 	stchi	0, cr0, [r0, #-0]
    26c0:	20000005 	andcs	r0, r0, r5
    26c4:	0000098a 	andeq	r0, r0, sl, lsl #19
    26c8:	2c013901 	stccs	9, cr3, [r1], {1}
    26cc:	95000000 	strls	r0, [r0, #-0]
    26d0:	17000018 	smladne	r0, r8, r0, r0
    26d4:	000092dc 	ldrdeq	r9, [r0], -ip
    26d8:	0000088e 	andeq	r0, r0, lr, lsl #17
    26dc:	0092ec17 	addseq	lr, r2, r7, lsl ip
    26e0:	0008af00 	andeq	sl, r8, r0, lsl #30
    26e4:	f0210000 			; <UNDEFINED> instruction: 0xf0210000
    26e8:	20000092 	mulcs	r0, r2, r0
    26ec:	bd000000 	stclt	0, cr0, [r0, #-0]
    26f0:	20000005 	andcs	r0, r0, r5
    26f4:	0000098a 	andeq	r0, r0, sl, lsl #19
    26f8:	2c013d01 	stccs	13, cr3, [r1], {1}
    26fc:	b3000000 	movwlt	r0, #0
    2700:	17000018 	smladne	r0, r8, r0, r0
    2704:	000092fc 	strdeq	r9, [r0], -ip
    2708:	0000088e 	andeq	r0, r0, lr, lsl #17
    270c:	00931017 	addseq	r1, r3, r7, lsl r0
    2710:	0008af00 	andeq	sl, r8, r0, lsl #30
    2714:	c8170000 	ldmdagt	r7, {}	; <UNPREDICTABLE>
    2718:	cb000092 	blgt	2968 <_start-0x5698>
    271c:	17000008 	strne	r0, [r0, -r8]
    2720:	00009314 	andeq	r9, r0, r4, lsl r3
    2724:	000008cb 	andeq	r0, r0, fp, asr #17
    2728:	00932017 	addseq	r2, r3, r7, lsl r0
    272c:	00088e00 	andeq	r8, r8, r0, lsl #28
    2730:	932c1700 	teqls	ip, #0, 14
    2734:	08af0000 	stmiaeq	pc!, {}	; <UNPREDICTABLE>
    2738:	30170000 	andscc	r0, r7, r0
    273c:	cb000093 	blgt	2990 <_start-0x5670>
    2740:	00000008 	andeq	r0, r0, r8
    2744:	0008671c 	andeq	r6, r8, ip, lsl r7
    2748:	014c0100 	mrseq	r0, (UNDEF: 92)
    274c:	00000064 	andeq	r0, r0, r4, rrx
    2750:	00009338 	andeq	r9, r0, r8, lsr r3
    2754:	00000084 	andeq	r0, r0, r4, lsl #1
    2758:	06919c01 	ldreq	r9, [r1], r1, lsl #24
    275c:	701f0000 	andsvc	r0, pc, r0
    2760:	01006e69 	tsteq	r0, r9, ror #28
    2764:	002c014c 	eoreq	r0, ip, ip, asr #2
    2768:	18d10000 	ldmne	r1, {}^	; <UNPREDICTABLE>
    276c:	54210000 	strtpl	r0, [r1], #-0
    2770:	24000093 	strcs	r0, [r0], #-147	; 0x93
    2774:	45000000 	strmi	r0, [r0, #-0]
    2778:	20000006 	andcs	r0, r0, r6
    277c:	000008d6 	ldrdeq	r0, [r0], -r6
    2780:	2c015301 	stccs	3, cr5, [r1], {1}
    2784:	13000000 	movwne	r0, #0
    2788:	17000019 	smladne	r0, r9, r0, r0
    278c:	00009360 	andeq	r9, r0, r0, ror #6
    2790:	0000088e 	andeq	r0, r0, lr, lsl #17
    2794:	00937017 	addseq	r7, r3, r7, lsl r0
    2798:	0008cb00 	andeq	ip, r8, r0, lsl #22
    279c:	78210000 	stmdavc	r1!, {}	; <UNPREDICTABLE>
    27a0:	2c000093 	stccs	0, cr0, [r0], {147}	; 0x93
    27a4:	7e000000 	cdpvc	0, 0, cr0, cr0, cr0, {0}
    27a8:	20000006 	andcs	r0, r0, r6
    27ac:	000008d6 	ldrdeq	r0, [r0], -r6
    27b0:	2c015601 	stccs	6, cr5, [r1], {1}
    27b4:	2d000000 	stccs	0, cr0, [r0, #-0]
    27b8:	17000019 	smladne	r0, r9, r0, r0
    27bc:	00009384 	andeq	r9, r0, r4, lsl #7
    27c0:	0000088e 	andeq	r0, r0, lr, lsl #17
    27c4:	00939017 	addseq	r9, r3, r7, lsl r0
    27c8:	0008cb00 	andeq	ip, r8, r0, lsl #22
    27cc:	939c1700 	orrsls	r1, ip, #0, 14
    27d0:	08cb0000 	stmiaeq	fp, {}^	; <UNPREDICTABLE>
    27d4:	17000000 	strne	r0, [r0, -r0]
    27d8:	0000934c 	andeq	r9, r0, ip, asr #6
    27dc:	000008cb 	andeq	r0, r0, fp, asr #17
    27e0:	0093a817 	addseq	sl, r3, r7, lsl r8
    27e4:	0008cb00 	andeq	ip, r8, r0, lsl #22
    27e8:	5d1e0000 	ldcpl	0, cr0, [lr, #-0]
    27ec:	01000009 	tsteq	r0, r9
    27f0:	93bc015f 			; <UNDEFINED> instruction: 0x93bc015f
    27f4:	00580000 	subseq	r0, r8, r0
    27f8:	9c010000 	stcls	0, cr0, [r1], {-0}
    27fc:	000006f6 	strdeq	r0, [r0], -r6
    2800:	6e69701f 	mcrvs	0, 3, r7, cr9, cr15, {0}
    2804:	015f0100 	cmpeq	pc, r0, lsl #2
    2808:	0000002c 	andeq	r0, r0, ip, lsr #32
    280c:	00001940 	andeq	r1, r0, r0, asr #18
    2810:	0093d017 	addseq	sp, r3, r7, lsl r0
    2814:	0008cb00 	andeq	ip, r8, r0, lsl #22
    2818:	93ec0a00 	mvnls	r0, #0, 20
    281c:	08af0000 	stmiaeq	pc!, {}	; <UNPREDICTABLE>
    2820:	06d60000 	ldrbeq	r0, [r6], r0
    2824:	010b0000 	mrseq	r0, (UNDEF: 11)
    2828:	74310451 	ldrtvc	r0, [r1], #-1105	; 0x451
    282c:	0a002400 	beq	b834 <__bss_start__+0x137c>
    2830:	00009408 	andeq	r9, r0, r8, lsl #8
    2834:	000008af 	andeq	r0, r0, pc, lsr #17
    2838:	000006ec 	andeq	r0, r0, ip, ror #13
    283c:	0451010b 	ldrbeq	r0, [r1], #-267	; 0x10b
    2840:	24007431 	strcs	r7, [r0], #-1073	; 0x431
    2844:	940c1700 	strls	r1, [ip], #-1792	; 0x700
    2848:	08cb0000 	stmiaeq	fp, {}^	; <UNPREDICTABLE>
    284c:	22000000 	andcs	r0, r0, #0
    2850:	0000091e 	andeq	r0, r0, lr, lsl r9
    2854:	01332801 	teqeq	r3, r1, lsl #16
    2858:	03050000 	movweq	r0, #20480	; 0x5000
    285c:	00009f78 	andeq	r9, r0, r8, ror pc
    2860:	00099d22 	andeq	r9, r9, r2, lsr #26
    2864:	33290100 	teqcc	r9, #0, 2
    2868:	05000001 	streq	r0, [r0, #-1]
    286c:	009f7403 	addseq	r7, pc, r3, lsl #8
    2870:	0a142200 	beq	50b078 <__bss_end__+0x4fc780>
    2874:	2a010000 	bcs	4287c <__bss_end__+0x33f84>
    2878:	00000133 	andeq	r0, r0, r3, lsr r1
    287c:	9f700305 	svcls	0x00700305
    2880:	f6220000 			; <UNDEFINED> instruction: 0xf6220000
    2884:	01000008 	tsteq	r0, r8
    2888:	0001332c 	andeq	r3, r1, ip, lsr #6
    288c:	1c030500 	cfstr32ne	mvfx0, [r3], {-0}
    2890:	2200009f 	andcs	r0, r0, #159	; 0x9f
    2894:	000008fe 	strdeq	r0, [r0], -lr
    2898:	01332d01 	teqeq	r3, r1, lsl #26
    289c:	03050000 	movweq	r0, #20480	; 0x5000
    28a0:	00009f20 	andeq	r9, r0, r0, lsr #30
    28a4:	00087b22 	andeq	r7, r8, r2, lsr #22
    28a8:	332e0100 	teqcc	lr, #0, 2
    28ac:	05000001 	streq	r0, [r0, #-1]
    28b0:	009f2403 	addseq	r2, pc, r3, lsl #8
    28b4:	09062200 	stmdbeq	r6, {r9, sp}
    28b8:	2f010000 	svccs	0x00010000
    28bc:	00000133 	andeq	r0, r0, r3, lsr r1
    28c0:	9f280305 	svcls	0x00280305
    28c4:	0e220000 	cdpeq	0, 2, cr0, cr2, cr0, {0}
    28c8:	01000009 	tsteq	r0, r9
    28cc:	00013330 	andeq	r3, r1, r0, lsr r3
    28d0:	2c030500 	cfstr32cs	mvfx0, [r3], {-0}
    28d4:	2200009f 	andcs	r0, r0, #159	; 0x9f
    28d8:	00000916 	andeq	r0, r0, r6, lsl r9
    28dc:	01333101 	teqeq	r3, r1, lsl #2
    28e0:	03050000 	movweq	r0, #20480	; 0x5000
    28e4:	00009f30 	andeq	r9, r0, r0, lsr pc
    28e8:	0008c822 	andeq	ip, r8, r2, lsr #16
    28ec:	33330100 	teqcc	r3, #0, 2
    28f0:	05000001 	streq	r0, [r0, #-1]
    28f4:	009f3403 	addseq	r3, pc, r3, lsl #8
    28f8:	08cf2200 	stmiaeq	pc, {r9, sp}^	; <UNPREDICTABLE>
    28fc:	34010000 	strcc	r0, [r1], #-0
    2900:	00000133 	andeq	r0, r0, r3, lsr r1
    2904:	9f380305 	svcls	0x00380305
    2908:	83220000 	teqhi	r2, #0
    290c:	01000008 	tsteq	r0, r8
    2910:	00013336 	andeq	r3, r1, r6, lsr r3
    2914:	3c030500 	cfstr32cc	mvfx0, [r3], {-0}
    2918:	2200009f 	andcs	r0, r0, #159	; 0x9f
    291c:	00000929 	andeq	r0, r0, r9, lsr #18
    2920:	01333701 	teqeq	r3, r1, lsl #14
    2924:	03050000 	movweq	r0, #20480	; 0x5000
    2928:	00009f40 	andeq	r9, r0, r0, asr #30
    292c:	0008df22 	andeq	sp, r8, r2, lsr #30
    2930:	33390100 	teqcc	r9, #0, 2
    2934:	05000001 	streq	r0, [r0, #-1]
    2938:	009f4403 	addseq	r4, pc, r3, lsl #8
    293c:	08e62200 	stmiaeq	r6!, {r9, sp}^
    2940:	3a010000 	bcc	42948 <__bss_end__+0x34050>
    2944:	00000133 	andeq	r0, r0, r3, lsr r1
    2948:	9f480305 	svcls	0x00480305
    294c:	6e220000 	cdpvs	0, 2, cr0, cr2, cr0, {0}
    2950:	01000009 	tsteq	r0, r9
    2954:	000133f0 	strdeq	r3, [r1], -r0
    2958:	6c030500 	cfstr32vs	mvfx0, [r3], {-0}
    295c:	2200009f 	andcs	r0, r0, #159	; 0x9f
    2960:	0000097c 	andeq	r0, r0, ip, ror r9
    2964:	0133f101 	teqeq	r3, r1, lsl #2
    2968:	03050000 	movweq	r0, #20480	; 0x5000
    296c:	00009f4c 	andeq	r9, r0, ip, asr #30
    2970:	0009bb22 	andeq	fp, r9, r2, lsr #22
    2974:	33f30100 	mvnscc	r0, #0, 2
    2978:	05000001 	streq	r0, [r0, #-1]
    297c:	009f6403 	addseq	r6, pc, r3, lsl #8
    2980:	09c22200 	stmibeq	r2, {r9, sp}^
    2984:	f4010000 	vst4.8	{d0-d3}, [r1], r0
    2988:	00000133 	andeq	r0, r0, r3, lsr r1
    298c:	9f680305 	svcls	0x00680305
    2990:	4f220000 	svcmi	0x00220000
    2994:	01000009 	tsteq	r0, r9
    2998:	000133f6 	strdeq	r3, [r1], -r6
    299c:	50030500 	andpl	r0, r3, r0, lsl #10
    29a0:	2200009f 	andcs	r0, r0, #159	; 0x9f
    29a4:	00000956 	andeq	r0, r0, r6, asr r9
    29a8:	0133f701 	teqeq	r3, r1, lsl #14
    29ac:	03050000 	movweq	r0, #20480	; 0x5000
    29b0:	00009f54 	andeq	r9, r0, r4, asr pc
    29b4:	0009d522 	andeq	sp, r9, r2, lsr #10
    29b8:	33f90100 	mvnscc	r0, #0, 2
    29bc:	05000001 	streq	r0, [r0, #-1]
    29c0:	009f5c03 	addseq	r5, pc, r3, lsl #24
    29c4:	09dc2200 	ldmibeq	ip, {r9, sp}^
    29c8:	fa010000 	blx	429d0 <__bss_end__+0x340d8>
    29cc:	00000133 	andeq	r0, r0, r3, lsr r1
    29d0:	9f600305 	svcls	0x00600305
    29d4:	8a220000 	bhi	8829dc <__bss_end__+0x8740e4>
    29d8:	01000008 	tsteq	r0, r8
    29dc:	000133fc 	strdeq	r3, [r1], -ip
    29e0:	58030500 	stmdapl	r3, {r8, sl}
    29e4:	2300009f 	movwcs	r0, #159	; 0x9f
    29e8:	00000478 	andeq	r0, r0, r8, ror r4
    29ec:	002c2001 	eoreq	r2, ip, r1
    29f0:	08a30000 	stmiaeq	r3!, {}	; <UNPREDICTABLE>
    29f4:	a3240000 	teqge	r4, #0
    29f8:	00000008 	andeq	r0, r0, r8
    29fc:	08a9040d 	stmiaeq	r9!, {r0, r2, r3, sl}
    2a00:	ae250000 	cdpge	0, 2, cr0, cr5, cr0, {0}
    2a04:	26000008 	strcs	r0, [r0], -r8
    2a08:	0003ec27 	andeq	lr, r3, r7, lsr #24
    2a0c:	c51e0100 	ldrgt	r0, [lr, #-256]	; 0x100
    2a10:	24000008 	strcs	r0, [r0], #-8
    2a14:	000008c5 	andeq	r0, r0, r5, asr #17
    2a18:	00002c24 	andeq	r2, r0, r4, lsr #24
    2a1c:	040d0000 	streq	r0, [sp], #-0
    2a20:	000008ae 	andeq	r0, r0, lr, lsr #17
    2a24:	0000f428 	andeq	pc, r0, r8, lsr #8
    2a28:	00870300 	addeq	r0, r7, r0, lsl #6
    2a2c:	000011ca 	andeq	r1, r0, sl, asr #3
    2a30:	0ee00004 	cdpeq	0, 14, cr0, cr0, cr4, {0}
    2a34:	01040000 	mrseq	r0, (UNDEF: 4)
    2a38:	00000376 	andeq	r0, r0, r6, ror r3
    2a3c:	000a9f01 	andeq	r9, sl, r1, lsl #30
    2a40:	00056800 	andeq	r6, r5, r0, lsl #16
    2a44:	00941400 	addseq	r1, r4, r0, lsl #8
    2a48:	00062000 	andeq	r2, r6, r0
    2a4c:	000d8200 	andeq	r8, sp, r0, lsl #4
    2a50:	05040200 	streq	r0, [r4, #-512]	; 0x200
    2a54:	00746e69 	rsbseq	r6, r4, r9, ror #28
    2a58:	62070403 	andvs	r0, r7, #50331648	; 0x3000000
    2a5c:	03000000 	movweq	r0, #0
    2a60:	02db0601 	sbcseq	r0, fp, #1048576	; 0x100000
    2a64:	02030000 	andeq	r0, r3, #0
    2a68:	0002ef05 	andeq	lr, r2, r5, lsl #30
    2a6c:	05040300 	streq	r0, [r4, #-768]	; 0x300
    2a70:	00000093 	muleq	r0, r3, r0
    2a74:	8e050803 	cdphi	8, 0, cr0, cr5, cr3, {0}
    2a78:	04000000 	streq	r0, [r0], #-0
    2a7c:	00000470 	andeq	r0, r0, r0, ror r4
    2a80:	005a2e03 	subseq	r2, sl, r3, lsl #28
    2a84:	01030000 	mrseq	r0, (UNDEF: 3)
    2a88:	0002d908 	andeq	sp, r2, r8, lsl #18
    2a8c:	07020300 	streq	r0, [r2, -r0, lsl #6]
    2a90:	000001bb 			; <UNDEFINED> instruction: 0x000001bb
    2a94:	00036804 	andeq	r6, r3, r4, lsl #16
    2a98:	73340300 	teqvc	r4, #0, 6
    2a9c:	03000000 	movweq	r0, #0
    2aa0:	005d0704 	subseq	r0, sp, r4, lsl #14
    2aa4:	08030000 	stmdaeq	r3, {}	; <UNPREDICTABLE>
    2aa8:	00005807 	andeq	r5, r0, r7, lsl #16
    2aac:	07040300 	streq	r0, [r4, -r0, lsl #6]
    2ab0:	0000024a 	andeq	r0, r0, sl, asr #4
    2ab4:	04060405 	streq	r0, [r6], #-1029	; 0x405
    2ab8:	00000090 	muleq	r0, r0, r0
    2abc:	e2080103 	and	r0, r8, #-1073741824	; 0xc0000000
    2ac0:	06000002 	streq	r0, [r0], -r2
    2ac4:	00009d04 	andeq	r9, r0, r4, lsl #26
    2ac8:	00900700 	addseq	r0, r0, r0, lsl #14
    2acc:	0c080000 	stceq	0, cr0, [r8], {-0}
    2ad0:	00d90e04 	sbcseq	r0, r9, r4, lsl #28
    2ad4:	74090000 	strvc	r0, [r9], #-0
    2ad8:	0f040078 	svceq	0x00040078
    2adc:	0000004f 	andeq	r0, r0, pc, asr #32
    2ae0:	78720900 	ldmdavc	r2!, {r8, fp}^
    2ae4:	4f0f0400 	svcmi	0x000f0400
    2ae8:	01000000 	mrseq	r0, (UNDEF: 0)
    2aec:	0003710a 	andeq	r7, r3, sl, lsl #2
    2af0:	68100400 	ldmdavs	r0, {sl}
    2af4:	04000000 	streq	r0, [r0], #-0
    2af8:	0005050a 	andeq	r0, r5, sl, lsl #10
    2afc:	68110400 	ldmdavs	r1, {sl}
    2b00:	08000000 	stmdaeq	r0, {}	; <UNPREDICTABLE>
    2b04:	02cf0400 	sbceq	r0, pc, #0, 8
    2b08:	12040000 	andne	r0, r4, #0
    2b0c:	000000a2 	andeq	r0, r0, r2, lsr #1
    2b10:	0005ac04 	andeq	sl, r5, r4, lsl #24
    2b14:	ef280500 	svc	0x00280500
    2b18:	0b000000 	bleq	2b20 <_start-0x54e0>
    2b1c:	000005d3 	ldrdeq	r0, [r0], -r3
    2b20:	06000904 	streq	r0, [r0], -r4, lsl #18
    2b24:	0c000001 	stceq	0, cr0, [r0], {1}
    2b28:	000005e2 	andeq	r0, r0, r2, ror #11
    2b2c:	00000088 	andeq	r0, r0, r8, lsl #1
    2b30:	d5040000 	strle	r0, [r4, #-0]
    2b34:	05000005 	streq	r0, [r0, #-5]
    2b38:	0000e462 	andeq	lr, r0, r2, ror #8
    2b3c:	0a770d00 	beq	1dc5f44 <__bss_end__+0x1db764c>
    2b40:	09020000 	stmdbeq	r2, {}	; <UNPREDICTABLE>
    2b44:	00013f03 	andeq	r3, r1, r3, lsl #30
    2b48:	07370e00 	ldreq	r0, [r7, -r0, lsl #28]!
    2b4c:	09020000 	stmdbeq	r2, {}	; <UNPREDICTABLE>
    2b50:	0000002c 	andeq	r0, r0, ip, lsr #32
    2b54:	02006e0f 	andeq	r6, r0, #15, 28	; 0xf0
    2b58:	00002c09 	andeq	r2, r0, r9, lsl #24
    2b5c:	cd111000 	ldcgt	0, cr1, [r1, #-0]
    2b60:	0200000a 	andeq	r0, r0, #10
    2b64:	00002c0c 	andeq	r2, r0, ip, lsl #24
    2b68:	0d000000 	stceq	0, cr0, [r0, #-0]
    2b6c:	00000a2a 	andeq	r0, r0, sl, lsr #20
    2b70:	76031702 	strvc	r1, [r3], -r2, lsl #14
    2b74:	0f000001 	svceq	0x00000001
    2b78:	006e6970 	rsbeq	r6, lr, r0, ror r9
    2b7c:	002c1702 	eoreq	r1, ip, r2, lsl #14
    2b80:	760f0000 	strvc	r0, [pc], -r0
    2b84:	2c170200 	lfmcs	f0, 4, [r7], {-0}
    2b88:	0e000000 	cdpeq	0, 0, cr0, cr0, cr0, {0}
    2b8c:	00000737 	andeq	r0, r0, r7, lsr r7
    2b90:	002c1702 	eoreq	r1, ip, r2, lsl #14
    2b94:	7d0e0000 	stcvc	0, cr0, [lr, #-0]
    2b98:	0200000a 	andeq	r0, r0, #10
    2b9c:	00002c17 	andeq	r2, r0, r7, lsl ip
    2ba0:	eb120000 	bl	482ba8 <__bss_end__+0x4742b0>
    2ba4:	01000001 	tsteq	r0, r1
    2ba8:	00941409 	addseq	r1, r4, r9, lsl #8
    2bac:	00015400 	andeq	r5, r1, r0, lsl #8
    2bb0:	229c0100 	addscs	r0, ip, #0, 2
    2bb4:	13000007 	movwne	r0, #7
    2bb8:	000006f9 	strdeq	r0, [r0], -r9
    2bbc:	07220901 	streq	r0, [r2, -r1, lsl #18]!
    2bc0:	196c0000 	stmdbne	ip!, {}^	; <UNPREDICTABLE>
    2bc4:	63140000 	tstvs	r4, #0
    2bc8:	5a090100 	bpl	242fd0 <__bss_end__+0x2346d8>
    2bcc:	8d000000 	stchi	0, cr0, [r0, #-0]
    2bd0:	15000019 	strne	r0, [r0, #-25]
    2bd4:	01007874 	tsteq	r0, r4, ror r8
    2bd8:	0000250b 	andeq	r2, r0, fp, lsl #10
    2bdc:	00760600 	rsbseq	r0, r6, r0, lsl #12
    2be0:	9f1aff08 	svcls	0x001aff08
    2be4:	01006e16 	tsteq	r0, r6, lsl lr
    2be8:	0000680c 	andeq	r6, r0, ip, lsl #16
    2bec:	0019ae00 	andseq	sl, r9, r0, lsl #28
    2bf0:	00751600 	rsbseq	r1, r5, r0, lsl #12
    2bf4:	00680d01 	rsbeq	r0, r8, r1, lsl #26
    2bf8:	19c10000 	stmibne	r1, {}^	; <UNPREDICTABLE>
    2bfc:	73150000 	tstvc	r5, #0
    2c00:	680e0100 	stmdavs	lr, {r8}
    2c04:	01000000 	mrseq	r0, (UNDEF: 0)
    2c08:	94241754 	strtls	r1, [r4], #-1876	; 0x754
    2c0c:	00040000 	andeq	r0, r4, r0
    2c10:	01f80000 	mvnseq	r0, r0
    2c14:	cd180000 	ldcgt	0, cr0, [r8, #-0]
    2c18:	0100000a 	tsteq	r0, sl
    2c1c:	00002c0e 	andeq	r2, r0, lr, lsl #24
    2c20:	00540100 	subseq	r0, r4, r0, lsl #2
    2c24:	00013f19 	andeq	r3, r1, r9, lsl pc
    2c28:	00942800 	addseq	r2, r4, r0, lsl #16
    2c2c:	00001c00 	andeq	r1, r0, r0, lsl #24
    2c30:	75110100 	ldrvc	r0, [r1, #-256]	; 0x100
    2c34:	1a000002 	bne	2c44 <_start-0x53bc>
    2c38:	0000016a 	andeq	r0, r0, sl, ror #2
    2c3c:	000019ea 	andeq	r1, r0, sl, ror #19
    2c40:	00015f1b 	andeq	r5, r1, fp, lsl pc
    2c44:	1c540100 	ldfnee	f0, [r4], {-0}
    2c48:	00000156 	andeq	r0, r0, r6, asr r1
    2c4c:	014b1b00 	cmpeq	fp, r0, lsl #22
    2c50:	56010000 	strpl	r0, [r1], -r0
    2c54:	00011119 	andeq	r1, r1, r9, lsl r1
    2c58:	00943400 	addseq	r3, r4, r0, lsl #8
    2c5c:	00001000 	andeq	r1, r0, r0
    2c60:	5f1a0200 	svcpl	0x001a0200
    2c64:	1a000002 	bne	2c74 <_start-0x538c>
    2c68:	00000128 	andeq	r0, r0, r8, lsr #2
    2c6c:	000019fd 	strdeq	r1, [r0], -sp
    2c70:	00011d1b 	andeq	r1, r1, fp, lsl sp
    2c74:	1d540100 	ldfnee	f0, [r4, #-0]
    2c78:	00009434 	andeq	r9, r0, r4, lsr r4
    2c7c:	00000004 	andeq	r0, r0, r4
    2c80:	0001321e 	andeq	r3, r1, lr, lsl r2
    2c84:	001a1000 	andseq	r1, sl, r0
    2c88:	1f000000 	svcne	0x00000000
    2c8c:	00009434 	andeq	r9, r0, r4, lsr r4
    2c90:	00001131 	andeq	r1, r0, r1, lsr r1
    2c94:	01510120 	cmpeq	r1, r0, lsr #2
    2c98:	50012030 	andpl	r2, r1, r0, lsr r0
    2c9c:	00007602 	andeq	r7, r0, r2, lsl #12
    2ca0:	013f1900 	teqeq	pc, r0, lsl #18
    2ca4:	94480000 	strbls	r0, [r8], #-0
    2ca8:	001c0000 	andseq	r0, ip, r0
    2cac:	13010000 	movwne	r0, #4096	; 0x1000
    2cb0:	000002f8 	strdeq	r0, [r0], -r8
    2cb4:	00016a1a 	andeq	r6, r1, sl, lsl sl
    2cb8:	001a2300 	andseq	r2, sl, r0, lsl #6
    2cbc:	015f1b00 	cmpeq	pc, r0, lsl #22
    2cc0:	54010000 	strpl	r0, [r1], #-0
    2cc4:	0001561a 	andeq	r5, r1, sl, lsl r6
    2cc8:	001a4500 	andseq	r4, sl, r0, lsl #10
    2ccc:	014b1b00 	cmpeq	fp, r0, lsl #22
    2cd0:	56010000 	strpl	r0, [r1], -r0
    2cd4:	00011119 	andeq	r1, r1, r9, lsl r1
    2cd8:	00945400 	addseq	r5, r4, r0, lsl #8
    2cdc:	00001000 	andeq	r1, r0, r0
    2ce0:	df1a0200 	svcle	0x001a0200
    2ce4:	1a000002 	bne	2cf4 <_start-0x530c>
    2ce8:	00000128 	andeq	r0, r0, r8, lsr #2
    2cec:	00001a76 	andeq	r1, r0, r6, ror sl
    2cf0:	00011d1b 	andeq	r1, r1, fp, lsl sp
    2cf4:	1d540100 	ldfnee	f0, [r4, #-0]
    2cf8:	00009454 	andeq	r9, r0, r4, asr r4
    2cfc:	00000004 	andeq	r0, r0, r4
    2d00:	0001321e 	andeq	r3, r1, lr, lsl r2
    2d04:	001a9800 	andseq	r9, sl, r0, lsl #16
    2d08:	1f000000 	svcne	0x00000000
    2d0c:	00009454 	andeq	r9, r0, r4, asr r4
    2d10:	00001131 	andeq	r1, r0, r1, lsr r1
    2d14:	04510120 	ldrbeq	r0, [r1], #-288	; 0x120
    2d18:	1a310077 	bne	c42efc <__bss_end__+0xc34604>
    2d1c:	02500120 	subseq	r0, r0, #32, 2
    2d20:	00000076 	andeq	r0, r0, r6, ror r0
    2d24:	00013f19 	andeq	r3, r1, r9, lsl pc
    2d28:	00946800 	addseq	r6, r4, r0, lsl #16
    2d2c:	00001c00 	andeq	r1, r0, r0, lsl #24
    2d30:	80150100 	andshi	r0, r5, r0, lsl #2
    2d34:	1a000003 	bne	2d48 <_start-0x52b8>
    2d38:	0000016a 	andeq	r0, r0, sl, ror #2
    2d3c:	00001aab 	andeq	r1, r0, fp, lsr #21
    2d40:	00015f1b 	andeq	r5, r1, fp, lsl pc
    2d44:	1b540100 	blne	150314c <__bss_end__+0x14f4854>
    2d48:	00000156 	andeq	r0, r0, r6, asr r1
    2d4c:	32007708 	andcc	r7, r0, #8, 14	; 0x200000
    2d50:	1aff081a 	bne	fffc4dc0 <__bss_end__+0xfffb64c8>
    2d54:	014b1b9f 			; <UNDEFINED> instruction: 0x014b1b9f
    2d58:	56010000 	strpl	r0, [r1], -r0
    2d5c:	00011119 	andeq	r1, r1, r9, lsl r1
    2d60:	00947400 	addseq	r7, r4, r0, lsl #8
    2d64:	00001000 	andeq	r1, r0, r0
    2d68:	671a0200 	ldrvs	r0, [sl, -r0, lsl #4]
    2d6c:	1a000003 	bne	2d80 <_start-0x5280>
    2d70:	00000128 	andeq	r0, r0, r8, lsr #2
    2d74:	00001ad0 	ldrdeq	r1, [r0], -r0
    2d78:	00011d1b 	andeq	r1, r1, fp, lsl sp
    2d7c:	1d540100 	ldfnee	f0, [r4, #-0]
    2d80:	00009474 	andeq	r9, r0, r4, ror r4
    2d84:	00000004 	andeq	r0, r0, r4
    2d88:	0001321e 	andeq	r3, r1, lr, lsl r2
    2d8c:	001af500 	andseq	pc, sl, r0, lsl #10
    2d90:	1f000000 	svcne	0x00000000
    2d94:	00009474 	andeq	r9, r0, r4, ror r4
    2d98:	00001131 	andeq	r1, r0, r1, lsr r1
    2d9c:	04510120 	ldrbeq	r0, [r1], #-288	; 0x120
    2da0:	1a320077 	bne	c82f84 <__bss_end__+0xc7468c>
    2da4:	02500120 	subseq	r0, r0, #32, 2
    2da8:	00000076 	andeq	r0, r0, r6, ror r0
    2dac:	00013f19 	andeq	r3, r1, r9, lsl pc
    2db0:	00948800 	addseq	r8, r4, r0, lsl #16
    2db4:	00001c00 	andeq	r1, r0, r0, lsl #24
    2db8:	08170100 	ldmdaeq	r7, {r8}
    2dbc:	1a000004 	bne	2dd4 <_start-0x522c>
    2dc0:	0000016a 	andeq	r0, r0, sl, ror #2
    2dc4:	00001b08 	andeq	r1, r0, r8, lsl #22
    2dc8:	00015f1b 	andeq	r5, r1, fp, lsl pc
    2dcc:	1b540100 	blne	15031d4 <__bss_end__+0x14f48dc>
    2dd0:	00000156 	andeq	r0, r0, r6, asr r1
    2dd4:	34007708 	strcc	r7, [r0], #-1800	; 0x708
    2dd8:	1aff081a 	bne	fffc4e48 <__bss_end__+0xfffb6550>
    2ddc:	014b1b9f 			; <UNDEFINED> instruction: 0x014b1b9f
    2de0:	56010000 	strpl	r0, [r1], -r0
    2de4:	00011119 	andeq	r1, r1, r9, lsl r1
    2de8:	00949400 	addseq	r9, r4, r0, lsl #8
    2dec:	00001000 	andeq	r1, r0, r0
    2df0:	ef1a0200 	svc	0x001a0200
    2df4:	1a000003 	bne	2e08 <_start-0x51f8>
    2df8:	00000128 	andeq	r0, r0, r8, lsr #2
    2dfc:	00001b2a 	andeq	r1, r0, sl, lsr #22
    2e00:	00011d1b 	andeq	r1, r1, fp, lsl sp
    2e04:	1d540100 	ldfnee	f0, [r4, #-0]
    2e08:	00009494 	muleq	r0, r4, r4
    2e0c:	00000004 	andeq	r0, r0, r4
    2e10:	0001321e 	andeq	r3, r1, lr, lsl r2
    2e14:	001b4c00 	andseq	r4, fp, r0, lsl #24
    2e18:	1f000000 	svcne	0x00000000
    2e1c:	00009494 	muleq	r0, r4, r4
    2e20:	00001131 	andeq	r1, r0, r1, lsr r1
    2e24:	04510120 	ldrbeq	r0, [r1], #-288	; 0x120
    2e28:	1a340077 	bne	d0300c <__bss_end__+0xcf4714>
    2e2c:	02500120 	subseq	r0, r0, #32, 2
    2e30:	00000076 	andeq	r0, r0, r6, ror r0
    2e34:	00013f19 	andeq	r3, r1, r9, lsl pc
    2e38:	0094a800 	addseq	sl, r4, r0, lsl #16
    2e3c:	00001c00 	andeq	r1, r0, r0, lsl #24
    2e40:	90190100 	andsls	r0, r9, r0, lsl #2
    2e44:	1a000004 	bne	2e5c <_start-0x51a4>
    2e48:	0000016a 	andeq	r0, r0, sl, ror #2
    2e4c:	00001b5f 	andeq	r1, r0, pc, asr fp
    2e50:	00015f1b 	andeq	r5, r1, fp, lsl pc
    2e54:	1b540100 	blne	150325c <__bss_end__+0x14f4964>
    2e58:	00000156 	andeq	r0, r0, r6, asr r1
    2e5c:	38007708 	stmdacc	r0, {r3, r8, r9, sl, ip, sp, lr}
    2e60:	1aff081a 	bne	fffc4ed0 <__bss_end__+0xfffb65d8>
    2e64:	014b1b9f 			; <UNDEFINED> instruction: 0x014b1b9f
    2e68:	56010000 	strpl	r0, [r1], -r0
    2e6c:	00011119 	andeq	r1, r1, r9, lsl r1
    2e70:	0094b400 	addseq	fp, r4, r0, lsl #8
    2e74:	00001000 	andeq	r1, r0, r0
    2e78:	771a0200 	ldrvc	r0, [sl, -r0, lsl #4]
    2e7c:	1a000004 	bne	2e94 <_start-0x516c>
    2e80:	00000128 	andeq	r0, r0, r8, lsr #2
    2e84:	00001b84 	andeq	r1, r0, r4, lsl #23
    2e88:	00011d1b 	andeq	r1, r1, fp, lsl sp
    2e8c:	1d540100 	ldfnee	f0, [r4, #-0]
    2e90:	000094b4 			; <UNDEFINED> instruction: 0x000094b4
    2e94:	00000004 	andeq	r0, r0, r4
    2e98:	0001321e 	andeq	r3, r1, lr, lsl r2
    2e9c:	001ba900 	andseq	sl, fp, r0, lsl #18
    2ea0:	1f000000 	svcne	0x00000000
    2ea4:	000094b4 			; <UNDEFINED> instruction: 0x000094b4
    2ea8:	00001131 	andeq	r1, r0, r1, lsr r1
    2eac:	04510120 	ldrbeq	r0, [r1], #-288	; 0x120
    2eb0:	1a380077 	bne	e03094 <__bss_end__+0xdf479c>
    2eb4:	02500120 	subseq	r0, r0, #32, 2
    2eb8:	00000076 	andeq	r0, r0, r6, ror r0
    2ebc:	00013f19 	andeq	r3, r1, r9, lsl pc
    2ec0:	0094c800 	addseq	ip, r4, r0, lsl #16
    2ec4:	00001c00 	andeq	r1, r0, r0, lsl #24
    2ec8:	181b0100 	ldmdane	fp, {r8}
    2ecc:	1a000005 	bne	2ee8 <_start-0x5118>
    2ed0:	0000016a 	andeq	r0, r0, sl, ror #2
    2ed4:	00001bbc 			; <UNDEFINED> instruction: 0x00001bbc
    2ed8:	00015f1b 	andeq	r5, r1, fp, lsl pc
    2edc:	1b540100 	blne	15032e4 <__bss_end__+0x14f49ec>
    2ee0:	00000156 	andeq	r0, r0, r6, asr r1
    2ee4:	40007708 	andmi	r7, r0, r8, lsl #14
    2ee8:	1aff081a 	bne	fffc4f58 <__bss_end__+0xfffb6660>
    2eec:	014b1b9f 			; <UNDEFINED> instruction: 0x014b1b9f
    2ef0:	56010000 	strpl	r0, [r1], -r0
    2ef4:	00011119 	andeq	r1, r1, r9, lsl r1
    2ef8:	0094d400 	addseq	sp, r4, r0, lsl #8
    2efc:	00001000 	andeq	r1, r0, r0
    2f00:	ff1a0200 			; <UNDEFINED> instruction: 0xff1a0200
    2f04:	1a000004 	bne	2f1c <_start-0x50e4>
    2f08:	00000128 	andeq	r0, r0, r8, lsr #2
    2f0c:	00001be3 	andeq	r1, r0, r3, ror #23
    2f10:	00011d1b 	andeq	r1, r1, fp, lsl sp
    2f14:	1d540100 	ldfnee	f0, [r4, #-0]
    2f18:	000094d4 	ldrdeq	r9, [r0], -r4
    2f1c:	00000004 	andeq	r0, r0, r4
    2f20:	0001321e 	andeq	r3, r1, lr, lsl r2
    2f24:	001c0a00 	andseq	r0, ip, r0, lsl #20
    2f28:	1f000000 	svcne	0x00000000
    2f2c:	000094d4 	ldrdeq	r9, [r0], -r4
    2f30:	00001131 	andeq	r1, r0, r1, lsr r1
    2f34:	04510120 	ldrbeq	r0, [r1], #-288	; 0x120
    2f38:	1a400077 	bne	100311c <__bss_end__+0xff4824>
    2f3c:	02500120 	subseq	r0, r0, #32, 2
    2f40:	00000076 	andeq	r0, r0, r6, ror r0
    2f44:	00013f19 	andeq	r3, r1, r9, lsl pc
    2f48:	0094e800 	addseq	lr, r4, r0, lsl #16
    2f4c:	00001c00 	andeq	r1, r0, r0, lsl #24
    2f50:	a21d0100 	andsge	r0, sp, #0, 2
    2f54:	1a000005 	bne	2f70 <_start-0x5090>
    2f58:	0000016a 	andeq	r0, r0, sl, ror #2
    2f5c:	00001c1d 	andeq	r1, r0, sp, lsl ip
    2f60:	00015f1b 	andeq	r5, r1, fp, lsl pc
    2f64:	1b540100 	blne	150336c <__bss_end__+0x14f4a74>
    2f68:	00000156 	andeq	r0, r0, r6, asr r1
    2f6c:	08007709 	stmdaeq	r0, {r0, r3, r8, r9, sl, ip, sp, lr}
    2f70:	ff081a20 			; <UNDEFINED> instruction: 0xff081a20
    2f74:	4b1b9f1a 	blmi	6eabe4 <__bss_end__+0x6dc2ec>
    2f78:	01000001 	tsteq	r0, r1
    2f7c:	01111956 	tsteq	r1, r6, asr r9
    2f80:	94f40000 	ldrbtls	r0, [r4], #0
    2f84:	00100000 	andseq	r0, r0, r0
    2f88:	1a020000 	bne	82f90 <__bss_end__+0x74698>
    2f8c:	00000588 	andeq	r0, r0, r8, lsl #11
    2f90:	0001281a 	andeq	r2, r1, sl, lsl r8
    2f94:	001c4700 	andseq	r4, ip, r0, lsl #14
    2f98:	011d1b00 	tsteq	sp, r0, lsl #22
    2f9c:	54010000 	strpl	r0, [r1], #-0
    2fa0:	0094f41d 	addseq	pc, r4, sp, lsl r4	; <UNPREDICTABLE>
    2fa4:	00000400 	andeq	r0, r0, r0, lsl #8
    2fa8:	01321e00 	teqeq	r2, r0, lsl #28
    2fac:	1c710000 	ldclne	0, cr0, [r1], #-0
    2fb0:	00000000 	andeq	r0, r0, r0
    2fb4:	0094f41f 	addseq	pc, r4, pc, lsl r4	; <UNPREDICTABLE>
    2fb8:	00113100 	andseq	r3, r1, r0, lsl #2
    2fbc:	51012000 	mrspl	r2, (UNDEF: 1)
    2fc0:	08007705 	stmdaeq	r0, {r0, r2, r8, r9, sl, ip, sp, lr}
    2fc4:	01201a20 	teqeq	r0, r0, lsr #20
    2fc8:	00760250 	rsbseq	r0, r6, r0, asr r2
    2fcc:	3f190000 	svccc	0x00190000
    2fd0:	08000001 	stmdaeq	r0, {r0}
    2fd4:	1c000095 	stcne	0, cr0, [r0], {149}	; 0x95
    2fd8:	01000000 	mrseq	r0, (UNDEF: 0)
    2fdc:	00062c1f 	andeq	r2, r6, pc, lsl ip
    2fe0:	016a1a00 	cmneq	sl, r0, lsl #20
    2fe4:	1c840000 	stcne	0, cr0, [r4], {0}
    2fe8:	5f1b0000 	svcpl	0x001b0000
    2fec:	01000001 	tsteq	r0, r1
    2ff0:	01561b54 	cmpeq	r6, r4, asr fp
    2ff4:	77090000 	strvc	r0, [r9, -r0]
    2ff8:	1a400800 	bne	1005000 <__bss_end__+0xff6708>
    2ffc:	9f1aff08 	svcls	0x001aff08
    3000:	00014b1b 	andeq	r4, r1, fp, lsl fp
    3004:	19560100 	ldmdbne	r6, {r8}^
    3008:	00000111 	andeq	r0, r0, r1, lsl r1
    300c:	00009514 	andeq	r9, r0, r4, lsl r5
    3010:	00000010 	andeq	r0, r0, r0, lsl r0
    3014:	06121a02 	ldreq	r1, [r2], -r2, lsl #20
    3018:	281a0000 	ldmdacs	sl, {}	; <UNPREDICTABLE>
    301c:	a6000001 	strge	r0, [r0], -r1
    3020:	1b00001c 	blne	3098 <_start-0x4f68>
    3024:	0000011d 	andeq	r0, r0, sp, lsl r1
    3028:	141d5401 	ldrne	r5, [sp], #-1025	; 0x401
    302c:	04000095 	streq	r0, [r0], #-149	; 0x95
    3030:	1e000000 	cdpne	0, 0, cr0, cr0, cr0, {0}
    3034:	00000132 	andeq	r0, r0, r2, lsr r1
    3038:	00001cc8 	andeq	r1, r0, r8, asr #25
    303c:	141f0000 	ldrne	r0, [pc], #-0	; 3044 <_start-0x4fbc>
    3040:	31000095 	swpcc	r0, r5, [r0]	; <UNPREDICTABLE>
    3044:	20000011 	andcs	r0, r0, r1, lsl r0
    3048:	77055101 	strvc	r5, [r5, -r1, lsl #2]
    304c:	1a400800 	bne	1005054 <__bss_end__+0xff675c>
    3050:	02500120 	subseq	r0, r0, #32, 2
    3054:	00000076 	andeq	r0, r0, r6, ror r0
    3058:	00013f19 	andeq	r3, r1, r9, lsl pc
    305c:	00952800 	addseq	r2, r5, r0, lsl #16
    3060:	00001c00 	andeq	r1, r0, r0, lsl #24
    3064:	ac210100 	stfges	f0, [r1], #-0
    3068:	1b000006 	blne	3088 <_start-0x4f78>
    306c:	0000016a 	andeq	r0, r0, sl, ror #2
    3070:	5f1b5801 	svcpl	0x001b5801
    3074:	01000001 	tsteq	r0, r1
    3078:	01561a54 	cmpeq	r6, r4, asr sl
    307c:	1cdb0000 	ldclne	0, cr0, [fp], {0}
    3080:	4b1b0000 	blmi	6c3088 <__bss_end__+0x6b4790>
    3084:	01000001 	tsteq	r0, r1
    3088:	01111956 	tsteq	r1, r6, asr r9
    308c:	95340000 	ldrls	r0, [r4, #-0]!
    3090:	00100000 	andseq	r0, r0, r0
    3094:	1a020000 	bne	8309c <__bss_end__+0x747a4>
    3098:	00000692 	muleq	r0, r2, r6
    309c:	0001281b 	andeq	r2, r1, fp, lsl r8
    30a0:	1b580100 	blne	16034a8 <__bss_end__+0x15f4bb0>
    30a4:	0000011d 	andeq	r0, r0, sp, lsl r1
    30a8:	341d5401 	ldrcc	r5, [sp], #-1025	; 0x401
    30ac:	04000095 	streq	r0, [r0], #-149	; 0x95
    30b0:	1e000000 	cdpne	0, 0, cr0, cr0, cr0, {0}
    30b4:	00000132 	andeq	r0, r0, r2, lsr r1
    30b8:	00001d0e 	andeq	r1, r0, lr, lsl #26
    30bc:	341f0000 	ldrcc	r0, [pc], #-0	; 30c4 <_start-0x4f3c>
    30c0:	31000095 	swpcc	r0, r5, [r0]	; <UNPREDICTABLE>
    30c4:	20000011 	andcs	r0, r0, r1, lsl r0
    30c8:	77055101 	strvc	r5, [r5, -r1, lsl #2]
    30cc:	1a800800 	bne	fe0050d4 <__bss_end__+0xfdff67dc>
    30d0:	02500120 	subseq	r0, r0, #32, 2
    30d4:	00000076 	andeq	r0, r0, r6, ror r0
    30d8:	00013f21 	andeq	r3, r1, r1, lsr #30
    30dc:	00954800 	addseq	r4, r5, r0, lsl #16
    30e0:	00001c00 	andeq	r1, r0, r0, lsl #24
    30e4:	1b230100 	blne	8c34ec <__bss_end__+0x8b4bf4>
    30e8:	0000016a 	andeq	r0, r0, sl, ror #2
    30ec:	5f1b5501 	svcpl	0x001b5501
    30f0:	01000001 	tsteq	r0, r1
    30f4:	01561c54 	cmpeq	r6, r4, asr ip
    30f8:	1b010000 	blne	43100 <__bss_end__+0x34808>
    30fc:	0000014b 	andeq	r0, r0, fp, asr #2
    3100:	11195601 	tstne	r9, r1, lsl #12
    3104:	54000001 	strpl	r0, [r0], #-1
    3108:	10000095 	mulne	r0, r5, r0
    310c:	02000000 	andeq	r0, r0, #0
    3110:	00070b1a 	andeq	r0, r7, sl, lsl fp
    3114:	01281b00 	teqeq	r8, r0, lsl #22
    3118:	55010000 	strpl	r0, [r1, #-0]
    311c:	00011d1b 	andeq	r1, r1, fp, lsl sp
    3120:	1d540100 	ldfnee	f0, [r4, #-0]
    3124:	00009554 	andeq	r9, r0, r4, asr r5
    3128:	00000004 	andeq	r0, r0, r4
    312c:	0001321e 	andeq	r3, r1, lr, lsl r2
    3130:	001d2100 	andseq	r2, sp, r0, lsl #2
    3134:	1f000000 	svcne	0x00000000
    3138:	00009554 	andeq	r9, r0, r4, asr r5
    313c:	00001131 	andeq	r1, r0, r1, lsr r1
    3140:	01510120 	cmpeq	r1, r0, lsr #2
    3144:	50012031 	andpl	r2, r1, r1, lsr r0
    3148:	00007602 	andeq	r7, r0, r2, lsl #12
    314c:	04060000 	streq	r0, [r6], #-0
    3150:	000000d9 	ldrdeq	r0, [r0], -r9
    3154:	000afd22 	andeq	pc, sl, r2, lsr #26
    3158:	25270100 	strcs	r0, [r7, #-256]!	; 0x100
    315c:	03000000 	movweq	r0, #0
    3160:	00000762 	andeq	r0, r0, r2, ror #14
    3164:	0078720f 	rsbseq	r7, r8, pc, lsl #4
    3168:	00252701 	eoreq	r2, r5, r1, lsl #14
    316c:	760f0000 	strvc	r0, [pc], -r0
    3170:	25270100 	strcs	r0, [r7, #-256]!	; 0x100
    3174:	0e000000 	cdpeq	0, 0, cr0, cr0, cr0, {0}
    3178:	00000a85 	andeq	r0, r0, r5, lsl #21
    317c:	002c2701 	eoreq	r2, ip, r1, lsl #14
    3180:	37110000 	ldrcc	r0, [r1, -r0]
    3184:	01000007 	tsteq	r0, r7
    3188:	00002c28 	andeq	r2, r0, r8, lsr #24
    318c:	3a230000 	bcc	8c3194 <__bss_end__+0x8b489c>
    3190:	0100000a 	tsteq	r0, sl
    3194:	00002534 	andeq	r2, r0, r4, lsr r5
    3198:	00956800 	addseq	r6, r5, r0, lsl #16
    319c:	0001c800 	andeq	ip, r1, r0, lsl #16
    31a0:	1e9c0100 	fmlnee	f0, f4, f0
    31a4:	1300000b 	movwne	r0, #11
    31a8:	000006f9 	strdeq	r0, [r0], -r9
    31ac:	07223401 	streq	r3, [r2, -r1, lsl #8]!
    31b0:	1d340000 	ldcne	0, cr0, [r4, #-0]
    31b4:	85130000 	ldrhi	r0, [r3, #-0]
    31b8:	0100000a 	tsteq	r0, sl
    31bc:	00002534 	andeq	r2, r0, r4, lsr r5
    31c0:	001d7900 	andseq	r7, sp, r0, lsl #18
    31c4:	78721500 	ldmdavc	r2!, {r8, sl, ip}^
    31c8:	25350100 	ldrcs	r0, [r5, #-256]!	; 0x100
    31cc:	01000000 	mrseq	r0, (UNDEF: 0)
    31d0:	00731655 	rsbseq	r1, r3, r5, asr r6
    31d4:	002c3c01 	eoreq	r3, ip, r1, lsl #24
    31d8:	1d970000 	ldcne	0, cr0, [r7]
    31dc:	75160000 	ldrvc	r0, [r6, #-0]
    31e0:	683f0100 	ldmdavs	pc!, {r8}	; <UNPREDICTABLE>
    31e4:	aa000000 	bge	31ec <_start-0x4e14>
    31e8:	1600001d 			; <UNDEFINED> instruction: 0x1600001d
    31ec:	4001006e 	andmi	r0, r1, lr, rrx
    31f0:	0000002c 	andeq	r0, r0, ip, lsr #32
    31f4:	00001dbd 			; <UNDEFINED> instruction: 0x00001dbd
    31f8:	01006316 	tsteq	r0, r6, lsl r3
    31fc:	00002c41 	andeq	r2, r0, r1, asr #24
    3200:	001dd400 	andseq	sp, sp, r0, lsl #8
    3204:	07281900 	streq	r1, [r8, -r0, lsl #18]!
    3208:	957c0000 	ldrbls	r0, [ip, #-0]!
    320c:	00340000 	eorseq	r0, r4, r0
    3210:	38010000 	stmdacc	r1, {}	; <UNPREDICTABLE>
    3214:	0000083c 	andeq	r0, r0, ip, lsr r8
    3218:	00074b1a 	andeq	r4, r7, sl, lsl fp
    321c:	001dfe00 	andseq	pc, sp, r0, lsl #28
    3220:	07421c00 	strbeq	r1, [r2, -r0, lsl #24]
    3224:	1b000000 	blne	322c <_start-0x4dd4>
    3228:	00000738 	andeq	r0, r0, r8, lsr r7
    322c:	7c1d5501 	cfldr32vc	mvfx5, [sp], {1}
    3230:	34000095 	strcc	r0, [r0], #-149	; 0x95
    3234:	1e000000 	cdpne	0, 0, cr0, cr0, cr0, {0}
    3238:	00000756 	andeq	r0, r0, r6, asr r7
    323c:	00001e1c 	andeq	r1, r0, ip, lsl lr
    3240:	00958024 	addseq	r8, r5, r4, lsr #32
    3244:	00114700 	andseq	r4, r1, r0, lsl #14
    3248:	958c2500 	strls	r2, [ip, #1280]	; 0x500
    324c:	11520000 	cmpne	r2, r0
    3250:	08310000 	ldmdaeq	r1!, {}	; <UNPREDICTABLE>
    3254:	01200000 	teqeq	r0, r0
    3258:	00750250 	rsbseq	r0, r5, r0, asr r2
    325c:	95982400 	ldrls	r2, [r8, #1024]	; 0x400
    3260:	11470000 	mrsne	r0, (UNDEF: 71)
    3264:	00000000 	andeq	r0, r0, r0
    3268:	0095b817 	addseq	fp, r5, r7, lsl r8
    326c:	00000400 	andeq	r0, r0, r0, lsl #8
    3270:	00085900 	andeq	r5, r8, r0, lsl #18
    3274:	0acd2600 	beq	ff34ca7c <__bss_end__+0xff33e184>
    3278:	3c010000 	stccc	0, cr0, [r1], {-0}
    327c:	0000002c 	andeq	r0, r0, ip, lsr #32
    3280:	00001e3a 	andeq	r1, r0, sl, lsr lr
    3284:	01111900 	tsteq	r1, r0, lsl #18
    3288:	95c40000 	strbls	r0, [r4]
    328c:	00100000 	andseq	r0, r0, r0
    3290:	44010000 	strmi	r0, [r1], #-0
    3294:	00000892 	muleq	r0, r2, r8
    3298:	0001281a 	andeq	r2, r1, sl, lsl r8
    329c:	001e4d00 	andseq	r4, lr, r0, lsl #26
    32a0:	011d1a00 	tsteq	sp, r0, lsl #20
    32a4:	1e720000 	cdpne	0, 7, cr0, cr2, cr0, {0}
    32a8:	c41d0000 	ldrgt	r0, [sp], #-0
    32ac:	04000095 	streq	r0, [r0], #-149	; 0x95
    32b0:	1e000000 	cdpne	0, 0, cr0, cr0, cr0, {0}
    32b4:	00000132 	andeq	r0, r0, r2, lsr r1
    32b8:	00001e85 	andeq	r1, r0, r5, lsl #29
    32bc:	11190000 	tstne	r9, r0
    32c0:	e4000001 	str	r0, [r0], #-1
    32c4:	10000095 	mulne	r0, r5, r0
    32c8:	01000000 	mrseq	r0, (UNDEF: 0)
    32cc:	0008cb48 	andeq	ip, r8, r8, asr #22
    32d0:	01281a00 	teqeq	r8, r0, lsl #20
    32d4:	1e980000 	cdpne	0, 9, cr0, cr8, cr0, {0}
    32d8:	1d1a0000 	ldcne	0, cr0, [sl, #-0]
    32dc:	ab000001 	blge	32e8 <_start-0x4d18>
    32e0:	1d00001e 	stcne	0, cr0, [r0, #-120]	; 0xffffff88
    32e4:	000095e4 	andeq	r9, r0, r4, ror #11
    32e8:	00000004 	andeq	r0, r0, r4
    32ec:	0001321e 	andeq	r3, r1, lr, lsl r2
    32f0:	001ebe00 	andseq	fp, lr, r0, lsl #28
    32f4:	19000000 	stmdbne	r0, {}	; <UNPREDICTABLE>
    32f8:	00000111 	andeq	r0, r0, r1, lsl r1
    32fc:	00009608 	andeq	r9, r0, r8, lsl #12
    3300:	00000010 	andeq	r0, r0, r0, lsl r0
    3304:	09044b01 	stmdbeq	r4, {r0, r8, r9, fp, lr}
    3308:	281a0000 	ldmdacs	sl, {}	; <UNPREDICTABLE>
    330c:	d1000001 	tstle	r0, r1
    3310:	1a00001e 	bne	3390 <_start-0x4c70>
    3314:	0000011d 	andeq	r0, r0, sp, lsl r1
    3318:	00001ee4 	andeq	r1, r0, r4, ror #29
    331c:	0096081d 	addseq	r0, r6, sp, lsl r8
    3320:	00000400 	andeq	r0, r0, r0, lsl #8
    3324:	01321e00 	teqeq	r2, r0, lsl #28
    3328:	1ef70000 	cdpne	0, 15, cr0, cr7, cr0, {0}
    332c:	00000000 	andeq	r0, r0, r0
    3330:	00011119 	andeq	r1, r1, r9, lsl r1
    3334:	00962c00 	addseq	r2, r6, r0, lsl #24
    3338:	00001000 	andeq	r1, r0, r0
    333c:	3d4e0100 	stfcce	f0, [lr, #-0]
    3340:	1a000009 	bne	336c <_start-0x4c94>
    3344:	00000128 	andeq	r0, r0, r8, lsr #2
    3348:	00001f0a 	andeq	r1, r0, sl, lsl #30
    334c:	00011d1a 	andeq	r1, r1, sl, lsl sp
    3350:	001f1d00 	andseq	r1, pc, r0, lsl #26
    3354:	962c1d00 	strtls	r1, [ip], -r0, lsl #26
    3358:	00040000 	andeq	r0, r4, r0
    335c:	321e0000 	andscc	r0, lr, #0
    3360:	30000001 	andcc	r0, r0, r1
    3364:	0000001f 	andeq	r0, r0, pc, lsl r0
    3368:	01111900 	tsteq	r1, r0, lsl #18
    336c:	96500000 	ldrbls	r0, [r0], -r0
    3370:	00100000 	andseq	r0, r0, r0
    3374:	51010000 	mrspl	r0, (UNDEF: 1)
    3378:	00000976 	andeq	r0, r0, r6, ror r9
    337c:	0001281a 	andeq	r2, r1, sl, lsl r8
    3380:	001f4300 	andseq	r4, pc, r0, lsl #6
    3384:	011d1a00 	tsteq	sp, r0, lsl #20
    3388:	1f560000 	svcne	0x00560000
    338c:	501d0000 	andspl	r0, sp, r0
    3390:	04000096 	streq	r0, [r0], #-150	; 0x96
    3394:	1e000000 	cdpne	0, 0, cr0, cr0, cr0, {0}
    3398:	00000132 	andeq	r0, r0, r2, lsr r1
    339c:	00001f69 	andeq	r1, r0, r9, ror #30
    33a0:	11190000 	tstne	r9, r0
    33a4:	74000001 	strvc	r0, [r0], #-1
    33a8:	10000096 	mulne	r0, r6, r0
    33ac:	01000000 	mrseq	r0, (UNDEF: 0)
    33b0:	0009af54 	andeq	sl, r9, r4, asr pc
    33b4:	01281a00 	teqeq	r8, r0, lsl #20
    33b8:	1f7c0000 	svcne	0x007c0000
    33bc:	1d1a0000 	ldcne	0, cr0, [sl, #-0]
    33c0:	8f000001 	svchi	0x00000001
    33c4:	1d00001f 	stcne	0, cr0, [r0, #-124]	; 0xffffff84
    33c8:	00009674 	andeq	r9, r0, r4, ror r6
    33cc:	00000004 	andeq	r0, r0, r4
    33d0:	0001321e 	andeq	r3, r1, lr, lsl r2
    33d4:	001fa200 	andseq	sl, pc, r0, lsl #4
    33d8:	19000000 	stmdbne	r0, {}	; <UNPREDICTABLE>
    33dc:	00000111 	andeq	r0, r0, r1, lsl r1
    33e0:	00009698 	muleq	r0, r8, r6
    33e4:	00000010 	andeq	r0, r0, r0, lsl r0
    33e8:	09e85701 	stmibeq	r8!, {r0, r8, r9, sl, ip, lr}^
    33ec:	281a0000 	ldmdacs	sl, {}	; <UNPREDICTABLE>
    33f0:	b5000001 	strlt	r0, [r0, #-1]
    33f4:	1a00001f 	bne	3478 <_start-0x4b88>
    33f8:	0000011d 	andeq	r0, r0, sp, lsl r1
    33fc:	00001fc8 	andeq	r1, r0, r8, asr #31
    3400:	0096981d 	addseq	r9, r6, sp, lsl r8
    3404:	00000400 	andeq	r0, r0, r0, lsl #8
    3408:	01321e00 	teqeq	r2, r0, lsl #28
    340c:	1fdb0000 	svcne	0x00db0000
    3410:	00000000 	andeq	r0, r0, r0
    3414:	00011119 	andeq	r1, r1, r9, lsl r1
    3418:	0096bc00 	addseq	fp, r6, r0, lsl #24
    341c:	00001000 	andeq	r1, r0, r0
    3420:	1d5a0100 	ldfnee	f0, [sl, #-0]
    3424:	1a00000a 	bne	3454 <_start-0x4bac>
    3428:	00000128 	andeq	r0, r0, r8, lsr #2
    342c:	00001fee 	andeq	r1, r0, lr, ror #31
    3430:	00011d27 	andeq	r1, r1, r7, lsr #26
    3434:	96bc1d00 	ldrtls	r1, [ip], r0, lsl #26
    3438:	00040000 	andeq	r0, r4, r0
    343c:	321e0000 	andscc	r0, lr, #0
    3440:	01000001 	tsteq	r0, r1
    3444:	00000020 	andeq	r0, r0, r0, lsr #32
    3448:	07281900 	streq	r1, [r8, -r0, lsl #18]!
    344c:	96dc0000 	ldrbls	r0, [ip], r0
    3450:	00340000 	eorseq	r0, r4, r0
    3454:	61010000 	mrsvs	r0, (UNDEF: 1)
    3458:	00000a81 	andeq	r0, r0, r1, lsl #21
    345c:	00074b27 	andeq	r4, r7, r7, lsr #22
    3460:	07421a00 	strbeq	r1, [r2, -r0, lsl #20]
    3464:	20140000 	andscs	r0, r4, r0
    3468:	381a0000 	ldmdacc	sl, {}	; <UNPREDICTABLE>
    346c:	34000007 	strcc	r0, [r0], #-7
    3470:	1d000020 	stcne	0, cr0, [r0, #-128]	; 0xffffff80
    3474:	000096dc 	ldrdeq	r9, [r0], -ip
    3478:	00000034 	andeq	r0, r0, r4, lsr r0
    347c:	0007561e 	andeq	r5, r7, lr, lsl r6
    3480:	00205200 	eoreq	r5, r0, r0, lsl #4
    3484:	96e02400 	strbtls	r2, [r0], r0, lsl #8
    3488:	11470000 	mrsne	r0, (UNDEF: 71)
    348c:	ec250000 	stc	0, cr0, [r5], #-0
    3490:	52000096 	andpl	r0, r0, #150	; 0x96
    3494:	76000011 			; <UNDEFINED> instruction: 0x76000011
    3498:	2000000a 	andcs	r0, r0, sl
    349c:	75025001 	strvc	r5, [r2, #-1]
    34a0:	f8240000 			; <UNDEFINED> instruction: 0xf8240000
    34a4:	47000096 			; <UNDEFINED> instruction: 0x47000096
    34a8:	00000011 	andeq	r0, r0, r1, lsl r0
    34ac:	95e02500 	strbls	r2, [r0, #1280]!	; 0x500
    34b0:	11520000 	cmpne	r2, r0
    34b4:	0a950000 	beq	fe5434bc <__bss_end__+0xfe534bc4>
    34b8:	01200000 	teqeq	r0, r0
    34bc:	00750250 	rsbseq	r0, r5, r0, asr r2
    34c0:	96002500 	strls	r2, [r0], -r0, lsl #10
    34c4:	11520000 	cmpne	r2, r0
    34c8:	0aa90000 	beq	fea434d0 <__bss_end__+0xfea34bd8>
    34cc:	01200000 	teqeq	r0, r0
    34d0:	00750250 	rsbseq	r0, r5, r0, asr r2
    34d4:	96242500 	strtls	r2, [r4], -r0, lsl #10
    34d8:	11520000 	cmpne	r2, r0
    34dc:	0abd0000 	beq	fef434e4 <__bss_end__+0xfef34bec>
    34e0:	01200000 	teqeq	r0, r0
    34e4:	00750250 	rsbseq	r0, r5, r0, asr r2
    34e8:	96482500 	strbls	r2, [r8], -r0, lsl #10
    34ec:	11520000 	cmpne	r2, r0
    34f0:	0ad10000 	beq	ff4434f8 <__bss_end__+0xff434c00>
    34f4:	01200000 	teqeq	r0, r0
    34f8:	00750250 	rsbseq	r0, r5, r0, asr r2
    34fc:	966c2500 	strbtls	r2, [ip], -r0, lsl #10
    3500:	11520000 	cmpne	r2, r0
    3504:	0ae50000 	beq	ff94350c <__bss_end__+0xff934c14>
    3508:	01200000 	teqeq	r0, r0
    350c:	00750250 	rsbseq	r0, r5, r0, asr r2
    3510:	96902500 	ldrls	r2, [r0], r0, lsl #10
    3514:	11520000 	cmpne	r2, r0
    3518:	0af90000 	beq	ffe43520 <__bss_end__+0xffe34c28>
    351c:	01200000 	teqeq	r0, r0
    3520:	00750250 	rsbseq	r0, r5, r0, asr r2
    3524:	96b42500 	ldrtls	r2, [r4], r0, lsl #10
    3528:	11520000 	cmpne	r2, r0
    352c:	0b0d0000 	bleq	343534 <__bss_end__+0x334c3c>
    3530:	01200000 	teqeq	r0, r0
    3534:	00750250 	rsbseq	r0, r5, r0, asr r2
    3538:	96d41f00 	ldrbls	r1, [r4], r0, lsl #30
    353c:	11520000 	cmpne	r2, r0
    3540:	01200000 	teqeq	r0, r0
    3544:	00750250 	rsbseq	r0, r5, r0, asr r2
    3548:	4f230000 	svcmi	0x00230000
    354c:	0100000a 	tsteq	r0, sl
    3550:	0000256c 	andeq	r2, r0, ip, ror #10
    3554:	00973000 	addseq	r3, r7, r0
    3558:	00009000 	andeq	r9, r0, r0
    355c:	029c0100 	addseq	r0, ip, #0, 2
    3560:	1400000c 	strne	r0, [r0], #-12
    3564:	6c010075 	stcvs	0, cr0, [r1], {117}	; 0x75
    3568:	00000722 	andeq	r0, r0, r2, lsr #14
    356c:	00002070 	andeq	r2, r0, r0, ror r0
    3570:	66756214 			; <UNDEFINED> instruction: 0x66756214
    3574:	026c0100 	rsbeq	r0, ip, #0, 2
    3578:	a400000c 	strge	r0, [r0], #-12
    357c:	13000020 	movwne	r0, #32
    3580:	00000ad2 	ldrdeq	r0, [r0], -r2
    3584:	00686c01 	rsbeq	r6, r8, r1, lsl #24
    3588:	20d80000 	sbcscs	r0, r8, r0
    358c:	65140000 	ldrvs	r0, [r4, #-0]
    3590:	0100646e 	tsteq	r0, lr, ror #8
    3594:	00004f6c 	andeq	r4, r0, ip, ror #30
    3598:	00211100 	eoreq	r1, r1, r0, lsl #2
    359c:	0ad92800 	beq	ff64d5a4 <__bss_end__+0xff63ecac>
    35a0:	6c010000 	stcvs	0, cr0, [r1], {-0}
    35a4:	00000068 	andeq	r0, r0, r8, rrx
    35a8:	29009102 	stmdbcs	r0, {r1, r8, ip, pc}
    35ac:	00000196 	muleq	r0, r6, r1
    35b0:	00000c18 	andeq	r0, r0, r8, lsl ip
    35b4:	a2280305 	eorge	r0, r8, #335544320	; 0x14000000
    35b8:	69160000 	ldmdbvs	r6, {}	; <UNPREDICTABLE>
    35bc:	25700100 	ldrbcs	r0, [r0, #-256]!	; 0x100
    35c0:	4b000000 	blmi	35c8 <_start-0x4a38>
    35c4:	26000021 	strcs	r0, [r0], -r1, lsr #32
    35c8:	00000ab0 			; <UNDEFINED> instruction: 0x00000ab0
    35cc:	004f7101 	subeq	r7, pc, r1, lsl #2
    35d0:	216a0000 	cmncs	sl, r0
    35d4:	50240000 	eorpl	r0, r4, r0
    35d8:	67000097 			; <UNDEFINED> instruction: 0x67000097
    35dc:	25000011 	strcs	r0, [r0, #-17]
    35e0:	00009764 	andeq	r9, r0, r4, ror #14
    35e4:	0000116e 	andeq	r1, r0, lr, ror #2
    35e8:	00000be2 	andeq	r0, r0, r2, ror #23
    35ec:	02530120 	subseq	r0, r3, #32, 2
    35f0:	01206d08 	teqeq	r0, r8, lsl #26
    35f4:	28030552 	stmdacs	r3, {r1, r4, r6, r8, sl}
    35f8:	200000a2 	andcs	r0, r0, r2, lsr #1
    35fc:	03055101 	movweq	r5, #20737	; 0x5101
    3600:	0000a2bc 			; <UNDEFINED> instruction: 0x0000a2bc
    3604:	05500120 	ldrbeq	r0, [r0, #-288]	; 0x120
    3608:	00a2a003 	adceq	sl, r2, r3
    360c:	68240000 	stmdavs	r4!, {}	; <UNPREDICTABLE>
    3610:	84000097 	strhi	r0, [r0], #-151	; 0x97
    3614:	1f000011 	svcne	0x00000011
    3618:	00009784 	andeq	r9, r0, r4, lsl #15
    361c:	00000762 	andeq	r0, r0, r2, ror #14
    3620:	02510120 	subseq	r0, r1, #32, 2
    3624:	0120007a 	teqeq	r0, sl, ror r0
    3628:	00780250 	rsbseq	r0, r8, r0, asr r2
    362c:	04060000 	streq	r0, [r6], #-0
    3630:	0000004f 	andeq	r0, r0, pc, asr #32
    3634:	0000902a 	andeq	r9, r0, sl, lsr #32
    3638:	000c1800 	andeq	r1, ip, r0, lsl #16
    363c:	00812b00 	addeq	r2, r1, r0, lsl #22
    3640:	00120000 	andseq	r0, r2, r0
    3644:	000c0807 	andeq	r0, ip, r7, lsl #16
    3648:	0ab82300 	beq	fee0c250 <__bss_end__+0xfedfd958>
    364c:	80010000 	andhi	r0, r1, r0
    3650:	00000025 	andeq	r0, r0, r5, lsr #32
    3654:	000097c0 	andeq	r9, r0, r0, asr #15
    3658:	0000007c 	andeq	r0, r0, ip, ror r0
    365c:	0ce49c01 	stcleq	12, cr9, [r4], #4
    3660:	75140000 	ldrvc	r0, [r4, #-0]
    3664:	22800100 	addcs	r0, r0, #0, 2
    3668:	7d000007 	stcvc	0, cr0, [r0, #-28]	; 0xffffffe4
    366c:	14000021 	strne	r0, [r0], #-33	; 0x21
    3670:	00667562 	rsbeq	r7, r6, r2, ror #10
    3674:	0c028001 	stceq	0, cr8, [r2], {1}
    3678:	21b10000 			; <UNDEFINED> instruction: 0x21b10000
    367c:	d2130000 	andsle	r0, r3, #0
    3680:	0100000a 	tsteq	r0, sl
    3684:	00006881 	andeq	r6, r0, r1, lsl #17
    3688:	0021e500 	eoreq	lr, r1, r0, lsl #10
    368c:	0ad91300 	beq	ff648294 <__bss_end__+0xff63999c>
    3690:	81010000 	mrshi	r0, (UNDEF: 1)
    3694:	00000068 	andeq	r0, r0, r8, rrx
    3698:	0000221e 	andeq	r2, r0, lr, lsl r2
    369c:	00019629 	andeq	r9, r1, r9, lsr #12
    36a0:	000cf400 	andeq	pc, ip, r0, lsl #8
    36a4:	3c030500 	cfstr32cc	mvfx0, [r3], {-0}
    36a8:	160000a2 	strne	r0, [r0], -r2, lsr #1
    36ac:	86010069 	strhi	r0, [r1], -r9, rrx
    36b0:	00000025 	andeq	r0, r0, r5, lsr #32
    36b4:	00002252 	andeq	r2, r0, r2, asr r2
    36b8:	0097dc24 	addseq	sp, r7, r4, lsr #24
    36bc:	00116700 	andseq	r6, r1, r0, lsl #14
    36c0:	97f02500 	ldrbls	r2, [r0, r0, lsl #10]!
    36c4:	116e0000 	cmnne	lr, r0
    36c8:	0cc40000 	stcleq	0, cr0, [r4], {0}
    36cc:	01200000 	teqeq	r0, r0
    36d0:	83080253 	movwhi	r0, #33363	; 0x8253
    36d4:	05520120 	ldrbeq	r0, [r2, #-288]	; 0x120
    36d8:	00a23c03 	adceq	r3, r2, r3, lsl #24
    36dc:	51012000 	mrspl	r2, (UNDEF: 1)
    36e0:	a2bc0305 	adcsge	r0, ip, #335544320	; 0x14000000
    36e4:	01200000 	teqeq	r0, r0
    36e8:	a0030550 	andge	r0, r3, r0, asr r5
    36ec:	000000a2 	andeq	r0, r0, r2, lsr #1
    36f0:	0097f424 	addseq	pc, r7, r4, lsr #8
    36f4:	00118400 	andseq	r8, r1, r0, lsl #8
    36f8:	98101f00 	ldmdals	r0, {r8, r9, sl, fp, ip}
    36fc:	07620000 	strbeq	r0, [r2, -r0]!
    3700:	01200000 	teqeq	r0, r0
    3704:	00780251 	rsbseq	r0, r8, r1, asr r2
    3708:	02500120 	subseq	r0, r0, #32, 2
    370c:	00000077 	andeq	r0, r0, r7, ror r0
    3710:	0000902a 	andeq	r9, r0, sl, lsr #32
    3714:	000cf400 	andeq	pc, ip, r0, lsl #8
    3718:	00812b00 	addeq	r2, r1, r0, lsl #22
    371c:	00140000 	andseq	r0, r4, r0
    3720:	000ce407 	andeq	lr, ip, r7, lsl #8
    3724:	009c2300 	addseq	r2, ip, r0, lsl #6
    3728:	93010000 	movwls	r0, #4096	; 0x1000
    372c:	000000d9 	ldrdeq	r0, [r0], -r9
    3730:	0000983c 	andeq	r9, r0, ip, lsr r8
    3734:	000000c0 	andeq	r0, r0, r0, asr #1
    3738:	0e149c01 	cdpeq	12, 1, cr9, cr4, cr1, {0}
    373c:	74140000 	ldrvc	r0, [r4], #-0
    3740:	93010078 	movwls	r0, #4216	; 0x1078
    3744:	0000004f 	andeq	r0, r0, pc, asr #32
    3748:	00002271 	andeq	r2, r0, r1, ror r2
    374c:	00787214 	rsbseq	r7, r8, r4, lsl r2
    3750:	004f9301 	subeq	r9, pc, r1, lsl #6
    3754:	22920000 	addscs	r0, r2, #0
    3758:	71130000 	tstvc	r3, r0
    375c:	01000003 	tsteq	r0, r3
    3760:	00006893 	muleq	r0, r3, r8
    3764:	0022b300 	eoreq	fp, r2, r0, lsl #6
    3768:	0a1e2800 	beq	78d770 <__bss_end__+0x77ee78>
    376c:	93010000 	movwls	r0, #4096	; 0x1000
    3770:	00000068 	andeq	r0, r0, r8, rrx
    3774:	2c009102 	stfcsd	f1, [r0], {2}
    3778:	007a686d 	rsbseq	r6, sl, sp, ror #16
    377c:	002c9b01 	eoreq	r9, ip, r1, lsl #22
    3780:	27000000 	strcs	r0, [r0, -r0]
    3784:	6f2629b9 	svcvs	0x002629b9
    3788:	0100000a 	tsteq	r0, sl
    378c:	00002c9c 	muleq	r0, ip, ip
    3790:	0022d100 	eoreq	sp, r2, r0, lsl #2
    3794:	01962900 	orrseq	r2, r6, r0, lsl #18
    3798:	0e240000 	cdpeq	0, 2, cr0, cr4, cr0, {0}
    379c:	03050000 	movweq	r0, #20480	; 0x5000
    37a0:	0000a254 	andeq	sl, r0, r4, asr r2
    37a4:	00986417 	addseq	r6, r8, r7, lsl r4
    37a8:	00000800 	andeq	r0, r0, r0, lsl #16
    37ac:	000d9100 	andeq	r9, sp, r0, lsl #2
    37b0:	6e692d00 	cdpvs	13, 6, cr2, cr9, cr0, {0}
    37b4:	2c970100 	ldfcss	f0, [r7], {0}
    37b8:	01000000 	mrseq	r0, (UNDEF: 0)
    37bc:	985c2500 	ldmdals	ip, {r8, sl, sp}^
    37c0:	118b0000 	orrne	r0, fp, r0
    37c4:	0da50000 	stceq	0, cr0, [r5]
    37c8:	01200000 	teqeq	r0, r0
    37cc:	00760250 	rsbseq	r0, r6, r0, asr r2
    37d0:	98642500 	stmdals	r4!, {r8, sl, sp}^
    37d4:	119c0000 	orrsne	r0, ip, r0
    37d8:	0db90000 	ldceq	0, cr0, [r9]
    37dc:	01200000 	teqeq	r0, r0
    37e0:	00780250 	rsbseq	r0, r8, r0, asr r2
    37e4:	98782500 	ldmdals	r8!, {r8, sl, sp}^
    37e8:	11310000 	teqne	r1, r0
    37ec:	0dd20000 	ldcleq	0, cr0, [r2]
    37f0:	01200000 	teqeq	r0, r0
    37f4:	20310151 	eorscs	r0, r1, r1, asr r1
    37f8:	76025001 	strvc	r5, [r2], -r1
    37fc:	bc240000 	stclt	0, cr0, [r4], #-0
    3800:	67000098 			; <UNDEFINED> instruction: 0x67000098
    3804:	25000011 	strcs	r0, [r0, #-17]
    3808:	000098d0 	ldrdeq	r9, [r0], -r0
    380c:	0000116e 	andeq	r1, r0, lr, ror #2
    3810:	00000e0a 	andeq	r0, r0, sl, lsl #28
    3814:	02530120 	subseq	r0, r3, #32, 2
    3818:	01209d08 	teqeq	r0, r8, lsl #26
    381c:	54030552 	strpl	r0, [r3], #-1362	; 0x552
    3820:	200000a2 	andcs	r0, r0, r2, lsr #1
    3824:	03055101 	movweq	r5, #20737	; 0x5101
    3828:	0000a2bc 			; <UNDEFINED> instruction: 0x0000a2bc
    382c:	05500120 	ldrbeq	r0, [r0, #-288]	; 0x120
    3830:	00a2d003 	adceq	sp, r2, r3
    3834:	d4240000 	strtle	r0, [r4], #-0
    3838:	84000098 	strhi	r0, [r0], #-152	; 0x98
    383c:	00000011 	andeq	r0, r0, r1, lsl r0
    3840:	0000902a 	andeq	r9, r0, sl, lsr #32
    3844:	000e2400 	andeq	r2, lr, r0, lsl #8
    3848:	00812b00 	addeq	r2, r1, r0, lsl #22
    384c:	00130000 	andseq	r0, r3, r0
    3850:	000e1407 	andeq	r1, lr, r7, lsl #8
    3854:	0a622300 	beq	188c45c <__bss_end__+0x187db64>
    3858:	a9010000 	stmdbge	r1, {}	; <UNPREDICTABLE>
    385c:	00000025 	andeq	r0, r0, r5, lsr #32
    3860:	000098fc 	strdeq	r9, [r0], -ip
    3864:	0000003c 	andeq	r0, r0, ip, lsr r0
    3868:	0ecc9c01 	cdpeq	12, 12, cr9, cr12, cr1, {0}
    386c:	f9130000 			; <UNDEFINED> instruction: 0xf9130000
    3870:	01000006 	tsteq	r0, r6
    3874:	000722a9 	andeq	r2, r7, r9, lsr #5
    3878:	0022ff00 	eoreq	pc, r2, r0, lsl #30
    387c:	65721600 	ldrbvs	r1, [r2, #-1536]!	; 0x600
    3880:	aa010073 	bge	43a54 <__bss_end__+0x3515c>
    3884:	00000025 	andeq	r0, r0, r5, lsr #32
    3888:	00002320 	andeq	r2, r0, r0, lsr #6
    388c:	00019629 	andeq	r9, r1, r9, lsr #12
    3890:	000edc00 	andeq	sp, lr, r0, lsl #24
    3894:	68030500 	stmdavs	r3, {r8, sl}
    3898:	250000a2 	strcs	r0, [r0, #-162]	; 0xa2
    389c:	00009908 	andeq	r9, r0, r8, lsl #18
    38a0:	00000762 	andeq	r0, r0, r2, ror #14
    38a4:	00000e8a 	andeq	r0, r0, sl, lsl #29
    38a8:	02510120 	subseq	r0, r1, #32, 2
    38ac:	0120ff09 	msreq	LR_irq, r9
    38b0:	01f30350 	mvnseq	r0, r0, asr r3
    38b4:	14240050 	strtne	r0, [r4], #-80	; 0x50
    38b8:	67000099 			; <UNDEFINED> instruction: 0x67000099
    38bc:	25000011 	strcs	r0, [r0, #-17]
    38c0:	00009928 	andeq	r9, r0, r8, lsr #18
    38c4:	0000116e 	andeq	r1, r0, lr, ror #2
    38c8:	00000ec2 	andeq	r0, r0, r2, asr #29
    38cc:	02530120 	subseq	r0, r3, #32, 2
    38d0:	0120ac08 	teqeq	r0, r8, lsl #24
    38d4:	68030552 	stmdavs	r3, {r1, r4, r6, r8, sl}
    38d8:	200000a2 	andcs	r0, r0, r2, lsr #1
    38dc:	03055101 	movweq	r5, #20737	; 0x5101
    38e0:	0000a2bc 			; <UNDEFINED> instruction: 0x0000a2bc
    38e4:	05500120 	ldrbeq	r0, [r0, #-288]	; 0x120
    38e8:	00a31403 	adceq	r1, r3, r3, lsl #8
    38ec:	2c240000 	stccs	0, cr0, [r4], #-0
    38f0:	84000099 	strhi	r0, [r0], #-153	; 0x99
    38f4:	00000011 	andeq	r0, r0, r1, lsl r0
    38f8:	0000902a 	andeq	r9, r0, sl, lsr #32
    38fc:	000edc00 	andeq	sp, lr, r0, lsl #24
    3900:	00812b00 	addeq	r2, r1, r0, lsl #22
    3904:	000c0000 	andeq	r0, ip, r0
    3908:	000ecc07 	andeq	ip, lr, r7, lsl #24
    390c:	0a921200 	beq	fe488114 <__bss_end__+0xfe47981c>
    3910:	b0010000 	andlt	r0, r1, r0
    3914:	00009938 	andeq	r9, r0, r8, lsr r9
    3918:	0000002c 	andeq	r0, r0, ip, lsr #32
    391c:	0f259c01 	svceq	0x00259c01
    3920:	f9130000 			; <UNDEFINED> instruction: 0xf9130000
    3924:	01000006 	tsteq	r0, r6
    3928:	000722b0 			; <UNDEFINED> instruction: 0x000722b0
    392c:	00233300 	eoreq	r3, r3, r0, lsl #6
    3930:	736d1400 	cmnvc	sp, #0, 8
    3934:	b0010067 	andlt	r0, r1, r7, rrx
    3938:	00000097 	muleq	r0, r7, r0
    393c:	00002351 	andeq	r2, r0, r1, asr r3
    3940:	0099501f 	addseq	r5, r9, pc, lsl r0
    3944:	00017600 	andeq	r7, r1, r0, lsl #12
    3948:	50012000 	andpl	r2, r1, r0
    394c:	00007502 	andeq	r7, r0, r2, lsl #10
    3950:	06fe2300 	ldrbteq	r2, [lr], r0, lsl #6
    3954:	b9010000 	stmdblt	r1, {}	; <UNPREDICTABLE>
    3958:	00000025 	andeq	r0, r0, r5, lsr #32
    395c:	00009964 	andeq	r9, r0, r4, ror #18
    3960:	00000084 	andeq	r0, r0, r4, lsl #1
    3964:	10199c01 	andsne	r9, r9, r1, lsl #24
    3968:	f9130000 			; <UNDEFINED> instruction: 0xf9130000
    396c:	01000006 	tsteq	r0, r6
    3970:	000722b9 			; <UNDEFINED> instruction: 0x000722b9
    3974:	00236f00 	eoreq	r6, r3, r0, lsl #30
    3978:	6d662e00 	stclvs	14, cr2, [r6, #-0]
    397c:	b9010074 	stmdblt	r1, {r2, r4, r5, r6}
    3980:	00000097 	muleq	r0, r7, r0
    3984:	2f749102 	svccs	0x00749102
    3988:	66756215 			; <UNDEFINED> instruction: 0x66756215
    398c:	19ba0100 	ldmibne	sl!, {r8}
    3990:	03000010 	movweq	r0, #16
    3994:	187c9c91 	ldmdane	ip!, {r0, r4, r7, sl, fp, ip, pc}^
    3998:	000005dd 	ldrdeq	r0, [r0], -sp
    399c:	0106bc01 	tsteq	r6, r1, lsl #24
    39a0:	91030000 	mrsls	r0, (UNDEF: 3)
    39a4:	73167c98 	tstvc	r6, #152, 24	; 0x9800
    39a8:	be01007a 	mcrlt	0, 0, r0, cr1, cr10, {3}
    39ac:	00000025 	andeq	r0, r0, r5, lsr #32
    39b0:	0000239b 	muleq	r0, fp, r3
    39b4:	00019629 	andeq	r9, r1, r9, lsr #12
    39b8:	00103a00 	andseq	r3, r0, r0, lsl #20
    39bc:	78030500 	stmdavc	r3, {r8, sl}
    39c0:	250000a2 	strcs	r0, [r0, #-162]	; 0xa2
    39c4:	0000998c 	andeq	r9, r0, ip, lsl #19
    39c8:	000011ad 	andeq	r1, r0, sp, lsr #3
    39cc:	00000fc0 	andeq	r0, r0, r0, asr #31
    39d0:	02530120 	subseq	r0, r3, #32, 2
    39d4:	01205891 			; <UNDEFINED> instruction: 0x01205891
    39d8:	54910352 	ldrpl	r0, [r1], #850	; 0x352
    39dc:	51012006 	tstpl	r1, r6
    39e0:	01cc0a03 	biceq	r0, ip, r3, lsl #20
    39e4:	03500120 	cmpeq	r0, #32, 2
    39e8:	007bfc91 			; <UNDEFINED> instruction: 0x007bfc91
    39ec:	0099a024 	addseq	sl, r9, r4, lsr #32
    39f0:	00116700 	andseq	r6, r1, r0, lsl #14
    39f4:	99b42500 	ldmibls	r4!, {r8, sl, sp}
    39f8:	116e0000 	cmnne	lr, r0
    39fc:	0ff80000 	svceq	0x00f80000
    3a00:	01200000 	teqeq	r0, r0
    3a04:	c0080253 	andgt	r0, r8, r3, asr r2
    3a08:	05520120 	ldrbeq	r0, [r2, #-288]	; 0x120
    3a0c:	00a27803 	adceq	r7, r2, r3, lsl #16
    3a10:	51012000 	mrspl	r2, (UNDEF: 1)
    3a14:	a2bc0305 	adcsge	r0, ip, #335544320	; 0x14000000
    3a18:	01200000 	teqeq	r0, r0
    3a1c:	4c030550 	cfstr32mi	mvfx0, [r3], {80}	; 0x50
    3a20:	000000a3 	andeq	r0, r0, r3, lsr #1
    3a24:	0099b824 	addseq	fp, r9, r4, lsr #16
    3a28:	00118400 	andseq	r8, r1, r0, lsl #8
    3a2c:	99c41f00 	stmibls	r4, {r8, r9, sl, fp, ip}^
    3a30:	0ee10000 	cdpeq	0, 14, cr0, cr1, cr0, {0}
    3a34:	01200000 	teqeq	r0, r0
    3a38:	fc910351 	ldc2	3, cr0, [r1], {81}	; 0x51
    3a3c:	5001207b 	andpl	r2, r1, fp, ror r0
    3a40:	00007502 	andeq	r7, r0, r2, lsl #10
    3a44:	00902a00 	addseq	r2, r0, r0, lsl #20
    3a48:	102a0000 	eorne	r0, sl, r0
    3a4c:	81300000 	teqhi	r0, r0
    3a50:	cb000000 	blgt	3a58 <_start-0x45a8>
    3a54:	902a0001 	eorls	r0, sl, r1
    3a58:	3a000000 	bcc	3a60 <_start-0x45a0>
    3a5c:	2b000010 	blcs	3aa4 <_start-0x455c>
    3a60:	00000081 	andeq	r0, r0, r1, lsl #1
    3a64:	2a07000e 	bcs	1c3aa4 <__bss_end__+0x1b51ac>
    3a68:	23000010 	movwcs	r0, #16
    3a6c:	00000ae6 	andeq	r0, r0, r6, ror #21
    3a70:	0025c501 	eoreq	ip, r5, r1, lsl #10
    3a74:	99e80000 	stmibls	r8!, {}^	; <UNPREDICTABLE>
    3a78:	004c0000 	subeq	r0, ip, r0
    3a7c:	9c010000 	stcls	0, cr0, [r1], {-0}
    3a80:	0000111c 	andeq	r1, r0, ip, lsl r1
    3a84:	01007514 	tsteq	r0, r4, lsl r5
    3a88:	000722c5 	andeq	r2, r7, r5, asr #5
    3a8c:	0023da00 	eoreq	sp, r3, r0, lsl #20
    3a90:	75621400 	strbvc	r1, [r2, #-1024]!	; 0x400
    3a94:	c5010066 	strgt	r0, [r1, #-102]	; 0x66
    3a98:	00000c02 	andeq	r0, r0, r2, lsl #24
    3a9c:	000023fb 	strdeq	r2, [r0], -fp
    3aa0:	000ad213 	andeq	sp, sl, r3, lsl r2
    3aa4:	68c50100 	stmiavs	r5, {r8}^
    3aa8:	1c000000 	stcne	0, cr0, [r0], {-0}
    3aac:	14000024 	strne	r0, [r0], #-36	; 0x24
    3ab0:	00646e65 	rsbeq	r6, r4, r5, ror #28
    3ab4:	004fc501 	subeq	ip, pc, r1, lsl #10
    3ab8:	243d0000 	ldrtcs	r0, [sp], #-0
    3abc:	72160000 	andsvc	r0, r6, #0
    3ac0:	01007365 	tsteq	r0, r5, ror #6
    3ac4:	000025c6 	andeq	r2, r0, r6, asr #11
    3ac8:	00245e00 	eoreq	r5, r4, r0, lsl #28
    3acc:	01962900 	orrseq	r2, r6, r0, lsl #18
    3ad0:	112c0000 	teqne	ip, r0
    3ad4:	03050000 	movweq	r0, #20480	; 0x5000
    3ad8:	0000a288 	andeq	sl, r0, r8, lsl #5
    3adc:	0099fc25 	addseq	pc, r9, r5, lsr #24
    3ae0:	000b1e00 	andeq	r1, fp, r0, lsl #28
    3ae4:	0010da00 	andseq	sp, r0, r0, lsl #20
    3ae8:	52012000 	andpl	r2, r1, #0
    3aec:	5201f303 	andpl	pc, r1, #201326592	; 0xc000000
    3af0:	03510120 	cmpeq	r1, #32, 2
    3af4:	205101f3 	ldrshcs	r0, [r1], #-19	; 0xffffffed
    3af8:	f3035001 	vhadd.u8	d5, d3, d1
    3afc:	02205001 	eoreq	r5, r0, #1
    3b00:	0902007d 	stmdbeq	r2, {r0, r2, r3, r4, r5, r6}
    3b04:	082400ff 	stmdaeq	r4!, {r0, r1, r2, r3, r4, r5, r6, r7}
    3b08:	6700009a 			; <UNDEFINED> instruction: 0x6700009a
    3b0c:	25000011 	strcs	r0, [r0, #-17]
    3b10:	00009a1c 	andeq	r9, r0, ip, lsl sl
    3b14:	0000116e 	andeq	r1, r0, lr, ror #2
    3b18:	00001112 	andeq	r1, r0, r2, lsl r1
    3b1c:	02530120 	subseq	r0, r3, #32, 2
    3b20:	0120c808 	teqeq	r0, r8, lsl #16
    3b24:	88030552 	stmdahi	r3, {r1, r4, r6, r8, sl}
    3b28:	200000a2 	andcs	r0, r0, r2, lsr #1
    3b2c:	03055101 	movweq	r5, #20737	; 0x5101
    3b30:	0000a2bc 			; <UNDEFINED> instruction: 0x0000a2bc
    3b34:	05500120 	ldrbeq	r0, [r0, #-288]	; 0x120
    3b38:	00a31403 	adceq	r1, r3, r3, lsl #8
    3b3c:	20240000 	eorcs	r0, r4, r0
    3b40:	8400009a 	strhi	r0, [r0], #-154	; 0x9a
    3b44:	00000011 	andeq	r0, r0, r1, lsl r0
    3b48:	0000902a 	andeq	r9, r0, sl, lsr #32
    3b4c:	00112c00 	andseq	r2, r1, r0, lsl #24
    3b50:	00812b00 	addeq	r2, r1, r0, lsl #22
    3b54:	00160000 	andseq	r0, r6, r0
    3b58:	00111c07 	andseq	r1, r1, r7, lsl #24
    3b5c:	09923100 	ldmibeq	r2, {r8, ip, sp}
    3b60:	21060000 	mrscs	r0, (UNDEF: 6)
    3b64:	00001147 	andeq	r1, r0, r7, asr #2
    3b68:	00002c32 	andeq	r2, r0, r2, lsr ip
    3b6c:	002c3200 	eoreq	r3, ip, r0, lsl #4
    3b70:	33000000 	movwcc	r0, #0
    3b74:	00000806 	andeq	r0, r0, r6, lsl #16
    3b78:	002c5707 	eoreq	r5, ip, r7, lsl #14
    3b7c:	30340000 	eorscc	r0, r4, r0
    3b80:	06000009 	streq	r0, [r0], -r9
    3b84:	00002524 	andeq	r2, r0, r4, lsr #10
    3b88:	00116700 	andseq	r6, r1, r0, lsl #14
    3b8c:	002c3200 	eoreq	r3, ip, r0, lsl #4
    3b90:	35000000 	strcc	r0, [r0, #-0]
    3b94:	0000016f 	andeq	r0, r0, pc, ror #2
    3b98:	cc341e07 	ldcgt	14, cr1, [r4], #-28	; 0xffffffe4
    3b9c:	07000005 	streq	r0, [r0, -r5]
    3ba0:	00002529 	andeq	r2, r0, r9, lsr #10
    3ba4:	00118400 	andseq	r8, r1, r0, lsl #8
    3ba8:	00973200 	addseq	r3, r7, r0, lsl #4
    3bac:	002f0000 	eoreq	r0, pc, r0
    3bb0:	00023835 	andeq	r3, r2, r5, lsr r8
    3bb4:	31660700 	cmncc	r6, r0, lsl #14
    3bb8:	000009e3 	andeq	r0, r0, r3, ror #19
    3bbc:	119c1d06 	orrsne	r1, ip, r6, lsl #26
    3bc0:	2c320000 	ldccs	0, cr0, [r2], #-0
    3bc4:	00000000 	andeq	r0, r0, r0
    3bc8:	0009ac31 	andeq	sl, r9, r1, lsr ip
    3bcc:	ad1c0600 	ldcge	6, cr0, [ip, #-0]
    3bd0:	32000011 	andcc	r0, r0, #17
    3bd4:	0000002c 	andeq	r0, r0, ip, lsr #32
    3bd8:	05c93600 	strbeq	r3, [r9, #1536]	; 0x600
    3bdc:	02080000 	andeq	r0, r8, #0
    3be0:	00000025 	andeq	r0, r0, r5, lsr #32
    3be4:	00008a32 	andeq	r8, r0, r2, lsr sl
    3be8:	00253200 	eoreq	r3, r5, r0, lsl #4
    3bec:	97320000 	ldrls	r0, [r2, -r0]!
    3bf0:	32000000 	andcc	r0, r0, #0
    3bf4:	00000106 	andeq	r0, r0, r6, lsl #2
    3bf8:	03ff0000 	mvnseq	r0, #0
    3bfc:	00040000 	andeq	r0, r4, r0
    3c00:	000011b2 			; <UNDEFINED> instruction: 0x000011b2
    3c04:	03760104 	cmneq	r6, #4, 2
    3c08:	25010000 	strcs	r0, [r1, #-0]
    3c0c:	6800000b 	stmdavs	r0, {r0, r1, r3}
    3c10:	34000005 	strcc	r0, [r0], #-5
    3c14:	5400009a 	strpl	r0, [r0], #-154	; 0x9a
    3c18:	cb000001 	blgt	3c24 <_start-0x43dc>
    3c1c:	02000010 	andeq	r0, r0, #16
    3c20:	6e690504 	cdpvs	5, 6, cr0, cr9, cr4, {0}
    3c24:	04030074 	streq	r0, [r3], #-116	; 0x74
    3c28:	00006207 	andeq	r6, r0, r7, lsl #4
    3c2c:	06010300 	streq	r0, [r1], -r0, lsl #6
    3c30:	000002db 	ldrdeq	r0, [r0], -fp
    3c34:	ef050203 	svc	0x00050203
    3c38:	03000002 	movweq	r0, #2
    3c3c:	00930504 	addseq	r0, r3, r4, lsl #10
    3c40:	08030000 	stmdaeq	r3, {}	; <UNPREDICTABLE>
    3c44:	00008e05 	andeq	r8, r0, r5, lsl #28
    3c48:	08010300 	stmdaeq	r1, {r8, r9}
    3c4c:	000002d9 	ldrdeq	r0, [r0], -r9
    3c50:	bb070203 	bllt	1c4464 <__bss_end__+0x1b5b6c>
    3c54:	03000001 	movweq	r0, #1
    3c58:	005d0704 	subseq	r0, sp, r4, lsl #14
    3c5c:	08030000 	stmdaeq	r3, {}	; <UNPREDICTABLE>
    3c60:	00005807 	andeq	r5, r0, r7, lsl #16
    3c64:	07040300 	streq	r0, [r4, -r0, lsl #6]
    3c68:	0000024a 	andeq	r0, r0, sl, asr #4
    3c6c:	e2080103 	and	r0, r8, #-1073741824	; 0xc0000000
    3c70:	04000002 	streq	r0, [r0], #-2
    3c74:	b20c0201 	andlt	r0, ip, #268435456	; 0x10000000
    3c78:	05000000 	streq	r0, [r0, #-0]
    3c7c:	00000075 	andeq	r0, r0, r5, ror r0
    3c80:	045f0500 	ldrbeq	r0, [pc], #-1280	; 3c88 <_start-0x4378>
    3c84:	05010000 	streq	r0, [r1, #-0]
    3c88:	0000049c 	muleq	r0, ip, r4
    3c8c:	04ab0504 	strteq	r0, [fp], #1284	; 0x504
    3c90:	05050000 	streq	r0, [r5, #-0]
    3c94:	000004ba 			; <UNDEFINED> instruction: 0x000004ba
    3c98:	04c90506 	strbeq	r0, [r9], #1286	; 0x506
    3c9c:	05070000 	streq	r0, [r7, #-0]
    3ca0:	000004d8 	ldrdeq	r0, [r0], -r8
    3ca4:	04e70503 	strbteq	r0, [r7], #1283	; 0x503
    3ca8:	00020000 	andeq	r0, r2, r0
    3cac:	00047e06 	andeq	r7, r4, r6, lsl #28
    3cb0:	79150200 	ldmdbvc	r5, {r9}
    3cb4:	07000000 	streq	r0, [r0, -r0]
    3cb8:	00000b1b 	andeq	r0, r0, fp, lsl fp
    3cbc:	9a343701 	bls	d118c8 <__bss_end__+0xd02fd0>
    3cc0:	009c0000 	addseq	r0, ip, r0
    3cc4:	9c010000 	stcls	0, cr0, [r1], {-0}
    3cc8:	000001c3 	andeq	r0, r0, r3, asr #3
    3ccc:	009a3c08 	addseq	r3, sl, r8, lsl #24
    3cd0:	0003a800 	andeq	sl, r3, r0, lsl #16
    3cd4:	9a480900 	bls	12060dc <__bss_end__+0x11f77e4>
    3cd8:	03af0000 			; <UNDEFINED> instruction: 0x03af0000
    3cdc:	00f30000 	rscseq	r0, r3, r0
    3ce0:	010a0000 	mrseq	r0, (UNDEF: 10)
    3ce4:	0a320151 	beq	c84230 <__bss_end__+0xc75938>
    3ce8:	3e015001 	cdpcc	0, 0, cr5, cr1, cr1, {0}
    3cec:	9a540900 	bls	15060f4 <__bss_end__+0x14f77fc>
    3cf0:	03af0000 			; <UNDEFINED> instruction: 0x03af0000
    3cf4:	010b0000 	mrseq	r0, (UNDEF: 11)
    3cf8:	010a0000 	mrseq	r0, (UNDEF: 10)
    3cfc:	0a320151 	beq	c84248 <__bss_end__+0xc75950>
    3d00:	3f015001 	svccc	0x00015001
    3d04:	9a580800 	bls	1605d0c <__bss_end__+0x15f7414>
    3d08:	03a80000 			; <UNDEFINED> instruction: 0x03a80000
    3d0c:	68090000 	stmdavs	r9, {}	; <UNPREDICTABLE>
    3d10:	c500009a 	strgt	r0, [r0, #-154]	; 0x9a
    3d14:	28000003 	stmdacs	r0, {r0, r1}
    3d18:	0a000001 	beq	3d24 <_start-0x42dc>
    3d1c:	75025001 	strvc	r5, [r2, #-1]
    3d20:	74090000 	strvc	r0, [r9], #-0
    3d24:	e600009a 			; <UNDEFINED> instruction: 0xe600009a
    3d28:	3c000003 	stccc	0, cr0, [r0], {3}
    3d2c:	0a000001 	beq	3d38 <_start-0x42c8>
    3d30:	75025001 	strvc	r5, [r2, #-1]
    3d34:	78080000 	stmdavc	r8, {}	; <UNPREDICTABLE>
    3d38:	a800009a 	stmdage	r0, {r1, r3, r4, r7}
    3d3c:	09000003 	stmdbeq	r0, {r0, r1}
    3d40:	00009a84 	andeq	r9, r0, r4, lsl #21
    3d44:	000003e6 	andeq	r0, r0, r6, ror #7
    3d48:	00000158 	andeq	r0, r0, r8, asr r1
    3d4c:	0151010a 	cmpeq	r1, sl, lsl #2
    3d50:	90090030 	andls	r0, r9, r0, lsr r0
    3d54:	e600009a 			; <UNDEFINED> instruction: 0xe600009a
    3d58:	6b000003 	blvs	3d6c <_start-0x4294>
    3d5c:	0a000001 	beq	3d68 <_start-0x4298>
    3d60:	30015101 	andcc	r5, r1, r1, lsl #2
    3d64:	9a9c0900 	bls	fe70616c <__bss_end__+0xfe6f7874>
    3d68:	03e60000 	mvneq	r0, #0
    3d6c:	017e0000 	cmneq	lr, r0
    3d70:	010a0000 	mrseq	r0, (UNDEF: 10)
    3d74:	00360151 	eorseq	r0, r6, r1, asr r1
    3d78:	009aa809 	addseq	sl, sl, r9, lsl #16
    3d7c:	0003e600 	andeq	lr, r3, r0, lsl #12
    3d80:	00019100 	andeq	r9, r1, r0, lsl #2
    3d84:	51010a00 	tstpl	r1, r0, lsl #20
    3d88:	09003301 	stmdbeq	r0, {r0, r8, r9, ip, sp}
    3d8c:	00009ab4 			; <UNDEFINED> instruction: 0x00009ab4
    3d90:	000003e6 	andeq	r0, r0, r6, ror #7
    3d94:	000001a6 	andeq	r0, r0, r6, lsr #3
    3d98:	0351010a 	cmpeq	r1, #-2147483646	; 0x80000002
    3d9c:	00010e0a 	andeq	r0, r1, sl, lsl #28
    3da0:	009ac009 	addseq	ip, sl, r9
    3da4:	0003e600 	andeq	lr, r3, r0, lsl #12
    3da8:	0001b900 	andeq	fp, r1, r0, lsl #18
    3dac:	51010a00 	tstpl	r1, r0, lsl #20
    3db0:	08003301 	stmdaeq	r0, {r0, r8, r9, ip, sp}
    3db4:	00009ac4 	andeq	r9, r0, r4, asr #21
    3db8:	000003a8 	andeq	r0, r0, r8, lsr #7
    3dbc:	00b00b00 	adcseq	r0, r0, r0, lsl #22
    3dc0:	57010000 	strpl	r0, [r1, -r0]
    3dc4:	00000025 	andeq	r0, r0, r5, lsr #32
    3dc8:	00009ad0 	ldrdeq	r9, [r0], -r0
    3dcc:	0000001c 	andeq	r0, r0, ip, lsl r0
    3dd0:	01e69c01 	mvneq	r9, r1, lsl #24
    3dd4:	e0080000 	and	r0, r8, r0
    3dd8:	c500009a 	strgt	r0, [r0, #-154]	; 0x9a
    3ddc:	00000003 	andeq	r0, r0, r3
    3de0:	000a650b 	andeq	r6, sl, fp, lsl #10
    3de4:	255d0100 	ldrbcs	r0, [sp, #-256]	; 0x100
    3de8:	ec000000 	stc	0, cr0, [r0], {-0}
    3dec:	2800009a 	stmdacs	r0, {r1, r3, r4, r7}
    3df0:	01000000 	mrseq	r0, (UNDEF: 0)
    3df4:	0002129c 	muleq	r2, ip, r2
    3df8:	9af40800 	bls	ffd05e00 <__bss_end__+0xffcf7508>
    3dfc:	01c30000 	biceq	r0, r3, r0
    3e00:	08080000 	stmdaeq	r8, {}	; <UNPREDICTABLE>
    3e04:	c500009b 	strgt	r0, [r0, #-155]	; 0x9b
    3e08:	00000003 	andeq	r0, r0, r3
    3e0c:	0001310b 	andeq	r3, r1, fp, lsl #2
    3e10:	25640100 	strbcs	r0, [r4, #-256]!	; 0x100
    3e14:	14000000 	strne	r0, [r0], #-0
    3e18:	1c00009b 	stcne	0, cr0, [r0], {155}	; 0x9b
    3e1c:	01000000 	mrseq	r0, (UNDEF: 0)
    3e20:	0002359c 	muleq	r2, ip, r5
    3e24:	9b240800 	blls	905e2c <__bss_end__+0x8f7534>
    3e28:	03c50000 	biceq	r0, r5, #0
    3e2c:	07000000 	streq	r0, [r0, -r0]
    3e30:	000001ee 	andeq	r0, r0, lr, ror #3
    3e34:	9b306a01 	blls	c1e640 <__bss_end__+0xc0fd48>
    3e38:	002c0000 	eoreq	r0, ip, r0
    3e3c:	9c010000 	stcls	0, cr0, [r1], {-0}
    3e40:	00000271 	andeq	r0, r0, r1, ror r2
    3e44:	0100630c 	tsteq	r0, ip, lsl #6
    3e48:	00002c6a 	andeq	r2, r0, sl, ror #24
    3e4c:	00247c00 	eoreq	r7, r4, r0, lsl #24
    3e50:	9b3c0800 	blls	f05e58 <__bss_end__+0xef7560>
    3e54:	02120000 	andseq	r0, r2, #0
    3e58:	540d0000 	strpl	r0, [sp], #-0
    3e5c:	e600009b 			; <UNDEFINED> instruction: 0xe600009b
    3e60:	0a000003 	beq	3e74 <_start-0x418c>
    3e64:	74025101 	strvc	r5, [r2], #-257	; 0x101
    3e68:	0b000000 	bleq	3e70 <_start-0x4190>
    3e6c:	00000b0d 	andeq	r0, r0, sp, lsl #22
    3e70:	00257401 	eoreq	r7, r5, r1, lsl #8
    3e74:	9b5c0000 	blls	1703e7c <__bss_end__+0x16f5584>
    3e78:	000c0000 	andeq	r0, ip, r0
    3e7c:	9c010000 	stcls	0, cr0, [r1], {-0}
    3e80:	00000294 	muleq	r0, r4, r2
    3e84:	009b6408 	addseq	r6, fp, r8, lsl #8
    3e88:	0001c300 	andeq	ip, r1, r0, lsl #6
    3e8c:	330b0000 	movwcc	r0, #45056	; 0xb000
    3e90:	0100000b 	tsteq	r0, fp
    3e94:	00002578 	andeq	r2, r0, r8, ror r5
    3e98:	009b6800 	addseq	r6, fp, r0, lsl #16
    3e9c:	00002000 	andeq	r2, r0, r0
    3ea0:	c09c0100 	addsgt	r0, ip, r0, lsl #2
    3ea4:	08000002 	stmdaeq	r0, {r1}
    3ea8:	00009b70 	andeq	r9, r0, r0, ror fp
    3eac:	00000271 	andeq	r0, r0, r1, ror r2
    3eb0:	009b7c08 	addseq	r7, fp, r8, lsl #24
    3eb4:	0001e600 	andeq	lr, r1, r0, lsl #12
    3eb8:	c70e0000 	strgt	r0, [lr, -r0]
    3ebc:	01000002 	tsteq	r0, r2
    3ec0:	0002d116 	andeq	sp, r2, r6, lsl r1
    3ec4:	ac030500 	cfstr32ge	mvfx0, [r3], {-0}
    3ec8:	0f00009f 	svceq	0x0000009f
    3ecc:	0002d704 	andeq	sp, r2, r4, lsl #14
    3ed0:	002c1000 	eoreq	r1, ip, r0
    3ed4:	0f0e0000 	svceq	0x000e0000
    3ed8:	01000001 	tsteq	r0, r1
    3edc:	0002d117 	andeq	sp, r2, r7, lsl r1
    3ee0:	7c030500 	cfstr32vc	mvfx0, [r3], {-0}
    3ee4:	0e00009f 	mcreq	0, 0, r0, cr0, cr15, {4}
    3ee8:	00000161 	andeq	r0, r0, r1, ror #2
    3eec:	02d11a01 	sbcseq	r1, r1, #4096	; 0x1000
    3ef0:	03050000 	movweq	r0, #20480	; 0x5000
    3ef4:	00009f98 	muleq	r0, r8, pc	; <UNPREDICTABLE>
    3ef8:	0002290e 	andeq	r2, r2, lr, lsl #18
    3efc:	d11b0100 	tstle	fp, r0, lsl #2
    3f00:	05000002 	streq	r0, [r0, #-2]
    3f04:	009f8403 	addseq	r8, pc, r3, lsl #8
    3f08:	029f0e00 	addseq	r0, pc, #0, 28
    3f0c:	1c010000 	stcne	0, cr0, [r1], {-0}
    3f10:	000002d1 	ldrdeq	r0, [r0], -r1
    3f14:	9f880305 	svcls	0x00880305
    3f18:	a30e0000 	movwge	r0, #57344	; 0xe000
    3f1c:	01000001 	tsteq	r0, r1
    3f20:	0002d11d 	andeq	sp, r2, sp, lsl r1
    3f24:	8c030500 	cfstr32hi	mvfx0, [r3], {-0}
    3f28:	0e00009f 	mcreq	0, 0, r0, cr0, cr15, {4}
    3f2c:	000004f6 	strdeq	r0, [r0], -r6
    3f30:	02d11e01 	sbcseq	r1, r1, #1, 28
    3f34:	03050000 	movweq	r0, #20480	; 0x5000
    3f38:	00009fa8 	andeq	r9, r0, r8, lsr #31
    3f3c:	0001000e 	andeq	r0, r1, lr
    3f40:	d11f0100 	tstle	pc, r0, lsl #2
    3f44:	05000002 	streq	r0, [r0, #-2]
    3f48:	009f9403 	addseq	r9, pc, r3, lsl #8
    3f4c:	01dc0e00 	bicseq	r0, ip, r0, lsl #28
    3f50:	20010000 	andcs	r0, r1, r0
    3f54:	000002d1 	ldrdeq	r0, [r0], -r1
    3f58:	9fa40305 	svcls	0x00a40305
    3f5c:	160e0000 	strne	r0, [lr], -r0
    3f60:	01000000 	mrseq	r0, (UNDEF: 0)
    3f64:	0002d121 	andeq	sp, r2, r1, lsr #2
    3f68:	a0030500 	andge	r0, r3, r0, lsl #10
    3f6c:	0e00009f 	mcreq	0, 0, r0, cr0, cr15, {4}
    3f70:	000003d3 	ldrdeq	r0, [r0], -r3
    3f74:	02d12201 	sbcseq	r2, r1, #268435456	; 0x10000000
    3f78:	03050000 	movweq	r0, #20480	; 0x5000
    3f7c:	00009f80 	andeq	r9, r0, r0, lsl #31
    3f80:	0002f90e 	andeq	pc, r2, lr, lsl #18
    3f84:	d1230100 	teqle	r3, r0, lsl #2
    3f88:	05000002 	streq	r0, [r0, #-2]
    3f8c:	009f9c03 	addseq	r9, pc, r3, lsl #24
    3f90:	01860e00 	orreq	r0, r6, r0, lsl #28
    3f94:	24010000 	strcs	r0, [r1], #-0
    3f98:	000002d1 	ldrdeq	r0, [r0], -r1
    3f9c:	9f900305 	svcls	0x00900305
    3fa0:	f4110000 			; <UNDEFINED> instruction: 0xf4110000
    3fa4:	03000000 	movweq	r0, #0
    3fa8:	02531287 	subseq	r1, r3, #1879048200	; 0x70000008
    3fac:	19020000 	stmdbne	r2, {}	; <UNPREDICTABLE>
    3fb0:	000003c5 	andeq	r0, r0, r5, asr #7
    3fb4:	00002c13 	andeq	r2, r0, r3, lsl ip
    3fb8:	00b21300 	adcseq	r1, r2, r0, lsl #6
    3fbc:	14000000 	strne	r0, [r0], #-0
    3fc0:	00000478 	andeq	r0, r0, r8, ror r4
    3fc4:	002ca603 	eoreq	sl, ip, r3, lsl #12
    3fc8:	03da0000 	bicseq	r0, sl, #0
    3fcc:	da130000 	ble	4c3fd4 <__bss_end__+0x4b56dc>
    3fd0:	00000003 	andeq	r0, r0, r3
    3fd4:	03e0040f 	mvneq	r0, #251658240	; 0xf000000
    3fd8:	e5150000 	ldr	r0, [r5, #-0]
    3fdc:	16000003 	strne	r0, [r0], -r3
    3fe0:	0003ec12 	andeq	lr, r3, r2, lsl ip
    3fe4:	fc9a0300 	ldc2	3, cr0, [sl], {0}
    3fe8:	13000003 	movwne	r0, #3
    3fec:	000003fc 	strdeq	r0, [r0], -ip
    3ff0:	00002c13 	andeq	r2, r0, r3, lsl ip
    3ff4:	040f0000 	streq	r0, [pc], #-0	; 3ffc <_start-0x4004>
    3ff8:	000003e5 	andeq	r0, r0, r5, ror #7
    3ffc:	00058d00 	andeq	r8, r5, r0, lsl #26
    4000:	e0000400 	and	r0, r0, r0, lsl #8
    4004:	04000012 	streq	r0, [r0], #-18
    4008:	00037601 	andeq	r7, r3, r1, lsl #12
    400c:	0bfe0100 	bleq	fff84414 <__bss_end__+0xfff75b1c>
    4010:	05680000 	strbeq	r0, [r8, #-0]!
    4014:	9b880000 	blls	fe20401c <__bss_end__+0xfe1f5724>
    4018:	02000000 	andeq	r0, r0, #0
    401c:	11d00000 	bicsne	r0, r0, r0
    4020:	04020000 	streq	r0, [r2], #-0
    4024:	746e6905 	strbtvc	r6, [lr], #-2309	; 0x905
    4028:	07040300 	streq	r0, [r4, -r0, lsl #6]
    402c:	00000062 	andeq	r0, r0, r2, rrx
    4030:	db060103 	blle	184444 <__bss_end__+0x175b4c>
    4034:	03000002 	movweq	r0, #2
    4038:	02ef0502 	rsceq	r0, pc, #8388608	; 0x800000
    403c:	04030000 	streq	r0, [r3], #-0
    4040:	00009305 	andeq	r9, r0, r5, lsl #6
    4044:	05080300 	streq	r0, [r8, #-768]	; 0x300
    4048:	0000008e 	andeq	r0, r0, lr, lsl #1
    404c:	d9080103 	stmdble	r8, {r0, r1, r8}
    4050:	03000002 	movweq	r0, #2
    4054:	01bb0702 			; <UNDEFINED> instruction: 0x01bb0702
    4058:	04030000 	streq	r0, [r3], #-0
    405c:	00005d07 	andeq	r5, r0, r7, lsl #26
    4060:	07080300 	streq	r0, [r8, -r0, lsl #6]
    4064:	00000058 	andeq	r0, r0, r8, asr r0
    4068:	4a070403 	bmi	1c507c <__bss_end__+0x1b6784>
    406c:	03000002 	movweq	r0, #2
    4070:	02e20801 	rsceq	r0, r2, #65536	; 0x10000
    4074:	04040000 	streq	r0, [r4], #-0
    4078:	0000007f 	andeq	r0, r0, pc, ror r0
    407c:	00007205 	andeq	r7, r0, r5, lsl #4
    4080:	00720600 	rsbseq	r0, r2, r0, lsl #12
    4084:	00940000 	addseq	r0, r4, r0
    4088:	6b070000 	blvs	1c4090 <__bss_end__+0x1b5798>
    408c:	19000000 	stmdbne	r0, {}	; <UNPREDICTABLE>
    4090:	03040800 	movweq	r0, #18432	; 0x4800
    4094:	00010b14 	andeq	r0, r1, r4, lsl fp
    4098:	0ca40900 	stceq	9, cr0, [r4]
    409c:	e4800000 	str	r0, [r0], #0
    40a0:	09028082 	stmdbeq	r2, {r1, r7, pc}
    40a4:	00000b89 	andeq	r0, r0, r9, lsl #23
    40a8:	8082e480 	addhi	lr, r2, r0, lsl #9
    40ac:	0c1e0902 	ldceq	9, cr0, [lr], {2}
    40b0:	e4840000 	str	r0, [r4], #0
    40b4:	09028082 	stmdbeq	r2, {r1, r7, pc}
    40b8:	00000bf0 	strdeq	r0, [r0], -r0	; <UNPREDICTABLE>
    40bc:	8082e488 	addhi	lr, r2, r8, lsl #9
    40c0:	0b6c0902 	bleq	1b064d0 <__bss_end__+0x1af7bd8>
    40c4:	e48c0000 	str	r0, [ip], #0
    40c8:	09028082 	stmdbeq	r2, {r1, r7, pc}
    40cc:	00000bad 	andeq	r0, r0, sp, lsr #23
    40d0:	8082e490 	umullhi	lr, r2, r0, r4
    40d4:	0bbb0902 	bleq	feec64e4 <__bss_end__+0xfeeb7bec>
    40d8:	e4940000 	ldr	r0, [r4], #0
    40dc:	09028082 	stmdbeq	r2, {r1, r7, pc}
    40e0:	00000b9b 	muleq	r0, fp, fp
    40e4:	8082e498 	umullhi	lr, r2, r8, r4
    40e8:	0c700902 	ldcleq	9, cr0, [r0], #-8
    40ec:	e49c0000 	ldr	r0, [ip], #0
    40f0:	09028082 	stmdbeq	r2, {r1, r7, pc}
    40f4:	00000c7f 	andeq	r0, r0, pc, ror ip
    40f8:	8082e4a0 	addhi	lr, r2, r0, lsr #9
    40fc:	0b590902 	bleq	164650c <__bss_end__+0x1637c14>
    4100:	e4a40000 	strt	r0, [r4], #0
    4104:	00028082 	andeq	r8, r2, r2, lsl #1
    4108:	0002960a 	andeq	r9, r2, sl, lsl #12
    410c:	88050100 	stmdahi	r5, {r8}
    4110:	6800009b 	stmdavs	r0, {r0, r1, r3, r4, r7}
    4114:	01000000 	mrseq	r0, (UNDEF: 0)
    4118:	0001b79c 	muleq	r1, ip, r7
    411c:	0b780b00 	bleq	1e06d24 <__bss_end__+0x1df842c>
    4120:	11010000 	mrsne	r0, (UNDEF: 1)
    4124:	0000002c 	andeq	r0, r0, ip, lsr #32
    4128:	000bc90b 	andeq	ip, fp, fp, lsl #18
    412c:	2c120100 	ldfcss	f0, [r2], {-0}
    4130:	0c000000 	stceq	0, cr0, [r0], {-0}
    4134:	00747364 	rsbseq	r7, r4, r4, ror #6
    4138:	01b71601 			; <UNDEFINED> instruction: 0x01b71601
    413c:	0d000000 	stceq	0, cr0, [r0, #-0]
    4140:	00637273 	rsbeq	r7, r3, r3, ror r2
    4144:	01b71701 			; <UNDEFINED> instruction: 0x01b71701
    4148:	6e0e0000 	cdpvs	0, 0, cr0, cr14, cr0, {0}
    414c:	2c180100 	ldfcss	f0, [r8], {-0}
    4150:	01000000 	mrseq	r0, (UNDEF: 0)
    4154:	9bb80f50 	blls	fee07e9c <__bss_end__+0xfedf95a4>
    4158:	00240000 	eoreq	r0, r4, r0
    415c:	01730000 	cmneq	r3, r0
    4160:	69100000 	ldmdbvs	r0, {}	; <UNPREDICTABLE>
    4164:	25190100 	ldrcs	r0, [r9, #-256]	; 0x100
    4168:	9a000000 	bls	4170 <_start-0x3e90>
    416c:	00000024 	andeq	r0, r0, r4, lsr #32
    4170:	009b9811 	addseq	r9, fp, r1, lsl r8
    4174:	00054f00 	andeq	r4, r5, r0, lsl #30
    4178:	00019000 	andeq	r9, r1, r0
    417c:	51011200 	mrspl	r1, R9_usr
    4180:	12ff0902 	rscsne	r0, pc, #32768	; 0x8000
    4184:	0c055001 	stceq	0, cr5, [r5], {1}
    4188:	2000b21c 	andcs	fp, r0, ip, lsl r2
    418c:	9ba41100 	blls	fe908594 <__bss_end__+0xfe8f9c9c>
    4190:	054f0000 	strbeq	r0, [pc, #-0]	; 4198 <_start-0x3e68>
    4194:	01ad0000 			; <UNDEFINED> instruction: 0x01ad0000
    4198:	01120000 	tsteq	r2, r0
    419c:	ff090251 			; <UNDEFINED> instruction: 0xff090251
    41a0:	05500112 	ldrbeq	r0, [r0, #-274]	; 0x112
    41a4:	00b2200c 	adcseq	r2, r2, ip
    41a8:	a8130020 	ldmdage	r3, {r5}
    41ac:	6500009b 	strvs	r0, [r0, #-155]	; 0x9b
    41b0:	00000005 	andeq	r0, r0, r5
    41b4:	002c0404 	eoreq	r0, ip, r4, lsl #8
    41b8:	8e0a0000 	cdphi	0, 0, cr0, cr10, cr0, {0}
    41bc:	0100000c 	tsteq	r0, ip
    41c0:	009bf01f 	addseq	pc, fp, pc, lsl r0	; <UNPREDICTABLE>
    41c4:	00004400 	andeq	r4, r0, r0, lsl #8
    41c8:	429c0100 	addsmi	r0, ip, #0, 2
    41cc:	14000002 	strne	r0, [r0], #-2
    41d0:	01006370 	tsteq	r0, r0, ror r3
    41d4:	00002c1f 	andeq	r2, r0, pc, lsl ip
    41d8:	0024b900 	eoreq	fp, r4, r0, lsl #18
    41dc:	01961500 	orrseq	r1, r6, r0, lsl #10
    41e0:	02520000 	subseq	r0, r2, #0
    41e4:	03050000 	movweq	r0, #20480	; 0x5000
    41e8:	0000a370 	andeq	sl, r0, r0, ror r3
    41ec:	009c0013 	addseq	r0, ip, r3, lsl r0
    41f0:	00056c00 	andeq	r6, r5, r0, lsl #24
    41f4:	9c201100 	stflss	f1, [r0], #-0
    41f8:	05730000 	ldrbeq	r0, [r3, #-0]!
    41fc:	02380000 	eorseq	r0, r8, #0
    4200:	01120000 	tsteq	r2, r0
    4204:	20080253 	andcs	r0, r8, r3, asr r2
    4208:	05520112 	ldrbeq	r0, [r2, #-274]	; 0x112
    420c:	00a37003 	adceq	r7, r3, r3
    4210:	51011200 	mrspl	r1, R9_usr
    4214:	a43c0305 	ldrtge	r0, [ip], #-773	; 0x305
    4218:	01120000 	tsteq	r2, r0
    421c:	00030550 	andeq	r0, r3, r0, asr r5
    4220:	120000a4 	andne	r0, r0, #164	; 0xa4
    4224:	02047d02 	andeq	r7, r4, #2, 26	; 0x80
    4228:	02120074 	andseq	r0, r2, #116	; 0x74
    422c:	0305007d 	movweq	r0, #20605	; 0x507d
    4230:	0000a45c 	andeq	sl, r0, ip, asr r4
    4234:	9c241300 	stcls	3, cr1, [r4], #-0
    4238:	05890000 	streq	r0, [r9]
    423c:	06000000 	streq	r0, [r0], -r0
    4240:	00000072 	andeq	r0, r0, r2, ror r0
    4244:	00000252 	andeq	r0, r0, r2, asr r2
    4248:	00006b07 	andeq	r6, r0, r7, lsl #22
    424c:	05001500 	streq	r1, [r0, #-1280]	; 0x500
    4250:	00000242 	andeq	r0, r0, r2, asr #4
    4254:	000c560a 	andeq	r5, ip, sl, lsl #12
    4258:	34240100 	strtcc	r0, [r4], #-256	; 0x100
    425c:	4400009c 	strmi	r0, [r0], #-156	; 0x9c
    4260:	01000000 	mrseq	r0, (UNDEF: 0)
    4264:	0002dc9c 	muleq	r2, ip, ip
    4268:	63701400 	cmnvs	r0, #0, 8
    426c:	2c240100 	stfcss	f0, [r4], #-0
    4270:	d7000000 	strle	r0, [r0, -r0]
    4274:	15000024 	strne	r0, [r0, #-36]	; 0x24
    4278:	00000196 	muleq	r0, r6, r1
    427c:	000002dc 	ldrdeq	r0, [r0], -ip
    4280:	a3880305 	orrge	r0, r8, #335544320	; 0x14000000
    4284:	44130000 	ldrmi	r0, [r3], #-0
    4288:	6c00009c 	stcvs	0, cr0, [r0], {156}	; 0x9c
    428c:	11000005 	tstne	r0, r5
    4290:	00009c64 	andeq	r9, r0, r4, ror #24
    4294:	00000573 	andeq	r0, r0, r3, ror r5
    4298:	000002d2 	ldrdeq	r0, [r0], -r2
    429c:	02530112 	subseq	r0, r3, #-2147483644	; 0x80000004
    42a0:	01122508 	tsteq	r2, r8, lsl #10
    42a4:	88030552 	stmdahi	r3, {r1, r4, r6, r8, sl}
    42a8:	120000a3 	andne	r0, r0, #163	; 0xa3
    42ac:	03055101 	movweq	r5, #20737	; 0x5101
    42b0:	0000a43c 	andeq	sl, r0, ip, lsr r4
    42b4:	05500112 	ldrbeq	r0, [r0, #-274]	; 0x112
    42b8:	00a40003 	adceq	r0, r4, r3
    42bc:	7d021200 	sfmvc	f1, 4, [r2, #-0]
    42c0:	00740204 	rsbseq	r0, r4, r4, lsl #4
    42c4:	007d0212 	rsbseq	r0, sp, r2, lsl r2
    42c8:	a4640305 	strbtge	r0, [r4], #-773	; 0x305
    42cc:	13000000 	movwne	r0, #0
    42d0:	00009c68 	andeq	r9, r0, r8, ror #24
    42d4:	00000589 	andeq	r0, r0, r9, lsl #11
    42d8:	00840500 	addeq	r0, r4, r0, lsl #10
    42dc:	490a0000 	stmdbmi	sl, {}	; <UNPREDICTABLE>
    42e0:	0100000c 	tsteq	r0, ip
    42e4:	009c7827 	addseq	r7, ip, r7, lsr #16
    42e8:	00004400 	andeq	r4, r0, r0, lsl #8
    42ec:	669c0100 	ldrvs	r0, [ip], r0, lsl #2
    42f0:	14000003 	strne	r0, [r0], #-3
    42f4:	01006370 	tsteq	r0, r0, ror r3
    42f8:	00002c27 	andeq	r2, r0, r7, lsr #24
    42fc:	0024f500 	eoreq	pc, r4, r0, lsl #10
    4300:	01961500 	orrseq	r1, r6, r0, lsl #10
    4304:	03760000 	cmneq	r6, #0
    4308:	03050000 	movweq	r0, #20480	; 0x5000
    430c:	0000a3a4 	andeq	sl, r0, r4, lsr #7
    4310:	009c8813 	addseq	r8, ip, r3, lsl r8
    4314:	00056c00 	andeq	r6, r5, r0, lsl #24
    4318:	9ca81100 	stflss	f1, [r8]
    431c:	05730000 	ldrbeq	r0, [r3, #-0]!
    4320:	035c0000 	cmpeq	ip, #0
    4324:	01120000 	tsteq	r2, r0
    4328:	28080253 	stmdacs	r8, {r0, r1, r4, r6, r9}
    432c:	05520112 	ldrbeq	r0, [r2, #-274]	; 0x112
    4330:	00a3a403 	adceq	sl, r3, r3, lsl #8
    4334:	51011200 	mrspl	r1, R9_usr
    4338:	a43c0305 	ldrtge	r0, [ip], #-773	; 0x305
    433c:	01120000 	tsteq	r2, r0
    4340:	00030550 	andeq	r0, r3, r0, asr r5
    4344:	120000a4 	andne	r0, r0, #164	; 0xa4
    4348:	02047d02 	andeq	r7, r4, #2, 26	; 0x80
    434c:	02120074 	andseq	r0, r2, #116	; 0x74
    4350:	0305007d 	movweq	r0, #20605	; 0x507d
    4354:	0000a474 	andeq	sl, r0, r4, ror r4
    4358:	9cac1300 	stcls	3, cr1, [ip]
    435c:	05890000 	streq	r0, [r9]
    4360:	06000000 	streq	r0, [r0], -r0
    4364:	00000072 	andeq	r0, r0, r2, ror r0
    4368:	00000376 	andeq	r0, r0, r6, ror r3
    436c:	00006b07 	andeq	r6, r0, r7, lsl #22
    4370:	05000c00 	streq	r0, [r0, #-3072]	; 0xc00
    4374:	00000366 	andeq	r0, r0, r6, ror #6
    4378:	000c2c0a 	andeq	r2, ip, sl, lsl #24
    437c:	bc2a0100 	stflts	f0, [sl], #-0
    4380:	4400009c 	strmi	r0, [r0], #-156	; 0x9c
    4384:	01000000 	mrseq	r0, (UNDEF: 0)
    4388:	0004009c 	muleq	r4, ip, r0
    438c:	63701400 	cmnvs	r0, #0, 8
    4390:	2c2a0100 	stfcss	f0, [sl], #-0
    4394:	13000000 	movwne	r0, #0
    4398:	15000025 	strne	r0, [r0, #-37]	; 0x25
    439c:	00000196 	muleq	r0, r6, r1
    43a0:	00000410 	andeq	r0, r0, r0, lsl r4
    43a4:	a3b40305 			; <UNDEFINED> instruction: 0xa3b40305
    43a8:	cc130000 	ldcgt	0, cr0, [r3], {-0}
    43ac:	6c00009c 	stcvs	0, cr0, [r0], {156}	; 0x9c
    43b0:	11000005 	tstne	r0, r5
    43b4:	00009cec 	andeq	r9, r0, ip, ror #25
    43b8:	00000573 	andeq	r0, r0, r3, ror r5
    43bc:	000003f6 	strdeq	r0, [r0], -r6
    43c0:	02530112 	subseq	r0, r3, #-2147483644	; 0x80000004
    43c4:	01122b08 	tsteq	r2, r8, lsl #22
    43c8:	b4030552 	strlt	r0, [r3], #-1362	; 0x552
    43cc:	120000a3 	andne	r0, r0, #163	; 0xa3
    43d0:	03055101 	movweq	r5, #20737	; 0x5101
    43d4:	0000a43c 	andeq	sl, r0, ip, lsr r4
    43d8:	05500112 	ldrbeq	r0, [r0, #-274]	; 0x112
    43dc:	00a40003 	adceq	r0, r4, r3
    43e0:	7d021200 	sfmvc	f1, 4, [r2, #-0]
    43e4:	00740204 	rsbseq	r0, r4, r4, lsl #4
    43e8:	007d0212 	rsbseq	r0, sp, r2, lsl r2
    43ec:	a4840305 	strge	r0, [r4], #773	; 0x305
    43f0:	13000000 	movwne	r0, #0
    43f4:	00009cf0 	strdeq	r9, [r0], -r0
    43f8:	00000589 	andeq	r0, r0, r9, lsl #11
    43fc:	00720600 	rsbseq	r0, r2, r0, lsl #12
    4400:	04100000 	ldreq	r0, [r0], #-0
    4404:	6b070000 	blvs	1c440c <__bss_end__+0x1b5b14>
    4408:	1c000000 	stcne	0, cr0, [r0], {-0}
    440c:	04000500 	streq	r0, [r0], #-1280	; 0x500
    4410:	430a0000 	movwmi	r0, #40960	; 0xa000
    4414:	0100000b 	tsteq	r0, fp
    4418:	009d002d 	addseq	r0, sp, sp, lsr #32
    441c:	00004400 	andeq	r4, r0, r0, lsl #8
    4420:	9a9c0100 	bls	fe704828 <__bss_end__+0xfe6f5f30>
    4424:	14000004 	strne	r0, [r0], #-4
    4428:	01006370 	tsteq	r0, r0, ror r3
    442c:	00002c2d 	andeq	r2, r0, sp, lsr #24
    4430:	00253100 	eoreq	r3, r5, r0, lsl #2
    4434:	01961500 	orrseq	r1, r6, r0, lsl #10
    4438:	049a0000 	ldreq	r0, [sl], #0
    443c:	03050000 	movweq	r0, #20480	; 0x5000
    4440:	0000a3d4 	ldrdeq	sl, [r0], -r4
    4444:	009d1013 	addseq	r1, sp, r3, lsl r0
    4448:	00056c00 	andeq	r6, r5, r0, lsl #24
    444c:	9d301100 	ldflss	f1, [r0, #-0]
    4450:	05730000 	ldrbeq	r0, [r3, #-0]!
    4454:	04900000 	ldreq	r0, [r0], #0
    4458:	01120000 	tsteq	r2, r0
    445c:	2e080253 	mcrcs	2, 0, r0, cr8, cr3, {2}
    4460:	05520112 	ldrbeq	r0, [r2, #-274]	; 0x112
    4464:	00a3d403 	adceq	sp, r3, r3, lsl #8
    4468:	51011200 	mrspl	r1, R9_usr
    446c:	a43c0305 	ldrtge	r0, [ip], #-773	; 0x305
    4470:	01120000 	tsteq	r2, r0
    4474:	00030550 	andeq	r0, r3, r0, asr r5
    4478:	120000a4 	andne	r0, r0, #164	; 0xa4
    447c:	02047d02 	andeq	r7, r4, #2, 26	; 0x80
    4480:	02120074 	andseq	r0, r2, #116	; 0x74
    4484:	0305007d 	movweq	r0, #20605	; 0x507d
    4488:	0000a49c 	muleq	r0, ip, r4
    448c:	9d341300 	ldcls	3, cr1, [r4, #-0]
    4490:	05890000 	streq	r0, [r9]
    4494:	05000000 	streq	r0, [r0, #-0]
    4498:	00000242 	andeq	r0, r0, r2, asr #4
    449c:	000bde0a 	andeq	sp, fp, sl, lsl #28
    44a0:	44300100 	ldrtmi	r0, [r0], #-256	; 0x100
    44a4:	4400009d 	strmi	r0, [r0], #-157	; 0x9d
    44a8:	01000000 	mrseq	r0, (UNDEF: 0)
    44ac:	0005249c 	muleq	r5, ip, r4
    44b0:	63701400 	cmnvs	r0, #0, 8
    44b4:	2c300100 	ldfcss	f0, [r0], #-0
    44b8:	4f000000 	svcmi	0x00000000
    44bc:	15000025 	strne	r0, [r0, #-37]	; 0x25
    44c0:	00000196 	muleq	r0, r6, r1
    44c4:	00000534 	andeq	r0, r0, r4, lsr r5
    44c8:	a3ec0305 	mvnge	r0, #335544320	; 0x14000000
    44cc:	54130000 	ldrpl	r0, [r3], #-0
    44d0:	6c00009d 	stcvs	0, cr0, [r0], {157}	; 0x9d
    44d4:	11000005 	tstne	r0, r5
    44d8:	00009d74 	andeq	r9, r0, r4, ror sp
    44dc:	00000573 	andeq	r0, r0, r3, ror r5
    44e0:	0000051a 	andeq	r0, r0, sl, lsl r5
    44e4:	02530112 	subseq	r0, r3, #-2147483644	; 0x80000004
    44e8:	01123108 	tsteq	r2, r8, lsl #2
    44ec:	ec030552 	cfstr32	mvfx0, [r3], {82}	; 0x52
    44f0:	120000a3 	andne	r0, r0, #163	; 0xa3
    44f4:	03055101 	movweq	r5, #20737	; 0x5101
    44f8:	0000a43c 	andeq	sl, r0, ip, lsr r4
    44fc:	05500112 	ldrbeq	r0, [r0, #-274]	; 0x112
    4500:	00a40003 	adceq	r0, r4, r3
    4504:	7d021200 	sfmvc	f1, 4, [r2, #-0]
    4508:	00740204 	rsbseq	r0, r4, r4, lsl #4
    450c:	007d0212 	rsbseq	r0, sp, r2, lsl r2
    4510:	a4ac0305 	strtge	r0, [ip], #773	; 0x305
    4514:	13000000 	movwne	r0, #0
    4518:	00009d78 	andeq	r9, r0, r8, ror sp
    451c:	00000589 	andeq	r0, r0, r9, lsl #11
    4520:	00720600 	rsbseq	r0, r2, r0, lsl #12
    4524:	05340000 	ldreq	r0, [r4, #-0]!
    4528:	6b070000 	blvs	1c4530 <__bss_end__+0x1b5c38>
    452c:	11000000 	mrsne	r0, (UNDEF: 0)
    4530:	05240500 	streq	r0, [r4, #-1280]!	; 0x500
    4534:	780b0000 	stmdavc	fp, {}	; <UNPREDICTABLE>
    4538:	0100000b 	tsteq	r0, fp
    453c:	00002c11 	andeq	r2, r0, r1, lsl ip
    4540:	0bc90b00 	bleq	ff247148 <__bss_end__+0xff238850>
    4544:	12010000 	andne	r0, r1, #0
    4548:	0000002c 	andeq	r0, r0, ip, lsr #32
    454c:	0007f316 	andeq	pc, r7, r6, lsl r3	; <UNPREDICTABLE>
    4550:	65990200 	ldrvs	r0, [r9, #512]	; 0x200
    4554:	17000005 	strne	r0, [r0, -r5]
    4558:	0000002c 	andeq	r0, r0, ip, lsr #32
    455c:	00002c17 	andeq	r2, r0, r7, lsl ip
    4560:	f4180000 			; <UNDEFINED> instruction: 0xf4180000
    4564:	02000000 	andeq	r0, r0, #0
    4568:	016f1887 	cmneq	pc, r7, lsl #17
    456c:	1e020000 	cdpne	0, 0, cr0, cr2, cr0, {0}
    4570:	0005cc19 	andeq	ip, r5, r9, lsl ip
    4574:	25290200 	strcs	r0, [r9, #-512]!	; 0x200
    4578:	89000000 	stmdbhi	r0, {}	; <UNPREDICTABLE>
    457c:	17000005 	strne	r0, [r0, -r5]
    4580:	00000079 	andeq	r0, r0, r9, ror r0
    4584:	3818001a 	ldmdacc	r8, {r1, r3, r4}
    4588:	02000002 	andeq	r0, r0, #2
    458c:	01c30066 	biceq	r0, r3, r6, rrx
    4590:	00040000 	andeq	r0, r4, r0
    4594:	00001437 	andeq	r1, r0, r7, lsr r4
    4598:	03760104 	cmneq	r6, #4, 2
    459c:	b4010000 	strlt	r0, [r1], #-0
    45a0:	6800000c 	stmdavs	r0, {r2, r3}
    45a4:	c4000005 	strgt	r0, [r0], #-5
    45a8:	5000009e 	mulpl	r0, lr, r0
    45ac:	aa000000 	bge	45b4 <_start-0x3a4c>
    45b0:	02000012 	andeq	r0, r0, #18
    45b4:	6e690504 	cdpvs	5, 6, cr0, cr9, cr4, {0}
    45b8:	00030074 	andeq	r0, r3, r4, ror r0
    45bc:	02000000 	andeq	r0, r0, #0
    45c0:	000037d4 	ldrdeq	r3, [r0], -r4
    45c4:	07040400 	streq	r0, [r4, -r0, lsl #8]
    45c8:	00000062 	andeq	r0, r0, r2, rrx
    45cc:	db060104 	blle	1849e4 <__bss_end__+0x1760ec>
    45d0:	04000002 	streq	r0, [r0], #-2
    45d4:	02ef0502 	rsceq	r0, pc, #8388608	; 0x800000
    45d8:	04040000 	streq	r0, [r4], #-0
    45dc:	00009305 	andeq	r9, r0, r5, lsl #6
    45e0:	05080400 	streq	r0, [r8, #-1024]	; 0x400
    45e4:	0000008e 	andeq	r0, r0, lr, lsl #1
    45e8:	00047003 	andeq	r7, r4, r3
    45ec:	652e0300 	strvs	r0, [lr, #-768]!	; 0x300
    45f0:	04000000 	streq	r0, [r0], #-0
    45f4:	02d90801 	sbcseq	r0, r9, #65536	; 0x10000
    45f8:	02040000 	andeq	r0, r4, #0
    45fc:	0001bb07 	andeq	fp, r1, r7, lsl #22
    4600:	03680300 	cmneq	r8, #0, 6
    4604:	34030000 	strcc	r0, [r3], #-0
    4608:	0000007e 	andeq	r0, r0, lr, ror r0
    460c:	5d070404 	cfstrspl	mvf0, [r7, #-16]
    4610:	04000000 	streq	r0, [r0], #-0
    4614:	00580708 	subseq	r0, r8, r8, lsl #14
    4618:	04040000 	streq	r0, [r4], #-0
    461c:	00024a07 	andeq	r4, r2, r7, lsl #20
    4620:	04040500 	streq	r0, [r4], #-1280	; 0x500
    4624:	02e20801 	rsceq	r0, r2, #65536	; 0x10000
    4628:	0c060000 	stceq	0, cr0, [r6], {-0}
    462c:	00d30e04 	sbcseq	r0, r3, r4, lsl #28
    4630:	74070000 	strvc	r0, [r7], #-0
    4634:	0f040078 	svceq	0x00040078
    4638:	0000005a 	andeq	r0, r0, sl, asr r0
    463c:	78720700 	ldmdavc	r2!, {r8, r9, sl}^
    4640:	5a0f0400 	bpl	3c5648 <__bss_end__+0x3b6d50>
    4644:	01000000 	mrseq	r0, (UNDEF: 0)
    4648:	00037108 	andeq	r7, r3, r8, lsl #2
    464c:	73100400 	tstvc	r0, #0, 8
    4650:	04000000 	streq	r0, [r0], #-0
    4654:	00050508 	andeq	r0, r5, r8, lsl #10
    4658:	73110400 	tstvc	r1, #0, 8
    465c:	08000000 	stmdaeq	r0, {}	; <UNPREDICTABLE>
    4660:	02cf0300 	sbceq	r0, pc, #0, 6
    4664:	12040000 	andne	r0, r4, #0
    4668:	0000009c 	muleq	r0, ip, r0
    466c:	10050109 	andne	r0, r5, r9, lsl #2
    4670:	000000f9 	strdeq	r0, [r0], -r9
    4674:	0007280a 	andeq	r2, r7, sl, lsl #16
    4678:	1b0a0100 	blne	284a80 <__bss_end__+0x276188>
    467c:	02000007 	andeq	r0, r0, #7
    4680:	00070d0a 	andeq	r0, r7, sl, lsl #26
    4684:	03000300 	movweq	r0, #768	; 0x300
    4688:	0000073d 	andeq	r0, r0, sp, lsr r7
    468c:	00de1005 	sbcseq	r1, lr, r5
    4690:	14060000 	strne	r0, [r6], #-0
    4694:	01311405 	teqeq	r1, r5, lsl #8
    4698:	8f080000 	svchi	0x00080000
    469c:	05000007 	streq	r0, [r0, #-7]
    46a0:	00003715 	andeq	r3, r0, r5, lsl r7
    46a4:	83080000 	movwhi	r0, #32768	; 0x8000
    46a8:	05000007 	streq	r0, [r0, #-7]
    46ac:	0000f918 	andeq	pc, r0, r8, lsl r9	; <UNPREDICTABLE>
    46b0:	7e080400 	cfcpysvc	mvf0, mvf8
    46b4:	05000001 	streq	r0, [r0, #-1]
    46b8:	0000d31b 	andeq	sp, r0, fp, lsl r3
    46bc:	03000800 	movweq	r0, #2048	; 0x800
    46c0:	00000748 	andeq	r0, r0, r8, asr #14
    46c4:	01042005 	tsteq	r4, r5
    46c8:	ad0b0000 	stcge	0, cr0, [fp, #-0]
    46cc:	0100000c 	tsteq	r0, ip
    46d0:	00017e05 	andeq	r7, r1, r5, lsl #28
    46d4:	009ec400 	addseq	ip, lr, r0, lsl #8
    46d8:	00002800 	andeq	r2, r0, r0, lsl #16
    46dc:	7e9c0100 	fmlvce	f0, f4, f0
    46e0:	0c000001 	stceq	0, cr0, [r0], {1}
    46e4:	06010063 	streq	r0, [r1], -r3, rrx
    46e8:	0000017e 	andeq	r0, r0, lr, ror r1
    46ec:	09000000 	stmdbeq	r0, {}	; <UNPREDICTABLE>
    46f0:	009ed80d 	addseq	sp, lr, sp, lsl #16
    46f4:	0001ab00 	andeq	sl, r1, r0, lsl #22
    46f8:	52010e00 	andpl	r0, r1, #0, 28
    46fc:	010e3401 	tsteq	lr, r1, lsl #8
    4700:	0e300151 	mrceq	1, 1, r0, cr0, cr1, {2}
    4704:	42035001 	andmi	r5, r3, #1
    4708:	00002447 	andeq	r2, r0, r7, asr #8
    470c:	0131040f 	teqeq	r1, pc, lsl #8
    4710:	560b0000 	strpl	r0, [fp], -r0
    4714:	01000007 	tsteq	r0, r7
    4718:	00017e0c 	andeq	r7, r1, ip, lsl #28
    471c:	009eec00 	addseq	lr, lr, r0, lsl #24
    4720:	00002800 	andeq	r2, r0, r0, lsl #16
    4724:	ab9c0100 	blge	fe704b2c <__bss_end__+0xfe6f6234>
    4728:	0c000001 	stceq	0, cr0, [r0], {1}
    472c:	0d010063 	stceq	0, cr0, [r1, #-396]	; 0xfffffe74
    4730:	0000017e 	andeq	r0, r0, lr, ror r1
    4734:	09000000 	stmdbeq	r0, {}	; <UNPREDICTABLE>
    4738:	04431000 	strbeq	r1, [r3], #-0
    473c:	1b060000 	blne	184744 <__bss_end__+0x175e4c>
    4740:	00000093 	muleq	r0, r3, r0
    4744:	00009311 	andeq	r9, r0, r1, lsl r3
    4748:	00251100 	eoreq	r1, r5, r0, lsl #2
    474c:	2c110000 	ldccs	0, cr0, [r1], {-0}
    4750:	00000000 	andeq	r0, r0, r0
	...

Disassembly of section .debug_abbrev:

00000000 <.debug_abbrev>:
       0:	25011101 	strcs	r1, [r1, #-257]	; 0x101
       4:	030b130e 	movweq	r1, #45838	; 0xb30e
       8:	110e1b0e 	tstne	lr, lr, lsl #22
       c:	10061201 	andne	r1, r6, r1, lsl #4
      10:	02000017 	andeq	r0, r0, #23
      14:	0b0b0024 	bleq	2c00ac <__bss_end__+0x2b17b4>
      18:	08030b3e 	stmdaeq	r3, {r1, r2, r3, r4, r5, r8, r9, fp}
      1c:	16030000 	strne	r0, [r3], -r0
      20:	3a0e0300 	bcc	380c28 <__bss_end__+0x372330>
      24:	490b3b0b 	stmdbmi	fp, {r0, r1, r3, r8, r9, fp, ip, sp}
      28:	04000013 	streq	r0, [r0], #-19
      2c:	0b0b0024 	bleq	2c00c4 <__bss_end__+0x2b17cc>
      30:	0e030b3e 	vmoveq.16	d3[0], r0
      34:	0f050000 	svceq	0x00050000
      38:	000b0b00 	andeq	r0, fp, r0, lsl #22
      3c:	000f0600 	andeq	r0, pc, r0, lsl #12
      40:	13490b0b 	movtne	r0, #39691	; 0x9b0b
      44:	26070000 	strcs	r0, [r7], -r0
      48:	00134900 	andseq	r4, r3, r0, lsl #18
      4c:	01010800 	tsteq	r1, r0, lsl #16
      50:	13011349 	movwne	r1, #4937	; 0x1349
      54:	21090000 	mrscs	r0, (UNDEF: 9)
      58:	2f134900 	svccs	0x00134900
      5c:	0a00000b 	beq	90 <_start-0x7f70>
      60:	0b0b0104 	bleq	2c0478 <__bss_end__+0x2b1b80>
      64:	0b3b0b3a 	bleq	ec2d54 <__bss_end__+0xeb445c>
      68:	00001301 	andeq	r1, r0, r1, lsl #6
      6c:	0300280b 	movweq	r2, #2059	; 0x80b
      70:	000d1c0e 	andeq	r1, sp, lr, lsl #24
      74:	01130c00 	tsteq	r3, r0, lsl #24
      78:	0b3a050b 	bleq	e814ac <__bss_end__+0xe72bb4>
      7c:	13010b3b 	movwne	r0, #6971	; 0x1b3b
      80:	0d0d0000 	stceq	0, cr0, [sp, #-0]
      84:	3a0e0300 	bcc	380c8c <__bss_end__+0x372394>
      88:	490b3b0b 	stmdbmi	fp, {r0, r1, r3, r8, r9, fp, ip, sp}
      8c:	000b3813 	andeq	r3, fp, r3, lsl r8
      90:	000d0e00 	andeq	r0, sp, r0, lsl #28
      94:	0b3a0e03 	bleq	e838a8 <__bss_end__+0xe74fb0>
      98:	13490b3b 	movtne	r0, #39739	; 0x9b3b
      9c:	00000538 	andeq	r0, r0, r8, lsr r5
      a0:	03000d0f 	movweq	r0, #3343	; 0xd0f
      a4:	3b0b3a0e 	blcc	2ce8e4 <__bss_end__+0x2bffec>
      a8:	0b13490b 	bleq	4d24dc <__bss_end__+0x4c3be4>
      ac:	0c0b0d0b 	stceq	13, cr0, [fp], {11}
      b0:	0005380b 	andeq	r3, r5, fp, lsl #16
      b4:	00211000 	eoreq	r1, r1, r0
      b8:	052f1349 	streq	r1, [pc, #-841]!	; fffffd77 <__bss_end__+0xffff147f>
      bc:	35110000 	ldrcc	r0, [r1, #-0]
      c0:	00134900 	andseq	r4, r3, r0, lsl #18
      c4:	01131200 	tsteq	r3, r0, lsl #4
      c8:	0b3a0b0b 	bleq	e82cfc <__bss_end__+0xe74404>
      cc:	13010b3b 	movwne	r0, #6971	; 0x1b3b
      d0:	0d130000 	ldceq	0, cr0, [r3, #-0]
      d4:	3a080300 	bcc	200cdc <__bss_end__+0x1f23e4>
      d8:	490b3b0b 	stmdbmi	fp, {r0, r1, r3, r8, r9, fp, ip, sp}
      dc:	000b3813 	andeq	r3, fp, r3, lsl r8
      e0:	012e1400 	teqeq	lr, r0, lsl #8
      e4:	0b3a0e03 	bleq	e838f8 <__bss_end__+0xe75000>
      e8:	19270b3b 	stmdbne	r7!, {r0, r1, r3, r4, r5, r8, r9, fp}
      ec:	0b201349 	bleq	804e18 <__bss_end__+0x7f6520>
      f0:	00001301 	andeq	r1, r0, r1, lsl #6
      f4:	03000515 	movweq	r0, #1301	; 0x515
      f8:	3b0b3a08 	blcc	2ce920 <__bss_end__+0x2c0028>
      fc:	0013490b 	andseq	r4, r3, fp, lsl #18
     100:	00341600 	eorseq	r1, r4, r0, lsl #12
     104:	0b3a0e03 	bleq	e83918 <__bss_end__+0xe75020>
     108:	13490b3b 	movtne	r0, #39739	; 0x9b3b
     10c:	2e170000 	cdpcs	0, 1, cr0, cr7, cr0, {0}
     110:	3a0e0301 	bcc	380d1c <__bss_end__+0x372424>
     114:	270b3b0b 	strcs	r3, [fp, -fp, lsl #22]
     118:	12011119 	andne	r1, r1, #1073741830	; 0x40000006
     11c:	97184006 	ldrls	r4, [r8, -r6]
     120:	13011942 	movwne	r1, #6466	; 0x1942
     124:	05180000 	ldreq	r0, [r8, #-0]
     128:	3a080300 	bcc	200d30 <__bss_end__+0x1f2438>
     12c:	490b3b0b 	stmdbmi	fp, {r0, r1, r3, r8, r9, fp, ip, sp}
     130:	00170213 	andseq	r0, r7, r3, lsl r2
     134:	00051900 	andeq	r1, r5, r0, lsl #18
     138:	0b3a0e03 	bleq	e8394c <__bss_end__+0xe75054>
     13c:	13490b3b 	movtne	r0, #39739	; 0x9b3b
     140:	00001702 	andeq	r1, r0, r2, lsl #14
     144:	0300341a 	movweq	r3, #1050	; 0x41a
     148:	3413490e 	ldrcc	r4, [r3], #-2318	; 0x90e
     14c:	00180219 	andseq	r0, r8, r9, lsl r2
     150:	00341b00 	eorseq	r1, r4, r0, lsl #22
     154:	0b3a0803 	bleq	e82168 <__bss_end__+0xe73870>
     158:	13490b3b 	movtne	r0, #39739	; 0x9b3b
     15c:	00001702 	andeq	r1, r0, r2, lsl #14
     160:	31011d1c 	tstcc	r1, ip, lsl sp
     164:	12011113 	andne	r1, r1, #-1073741820	; 0xc0000004
     168:	590b5806 	stmdbpl	fp, {r1, r2, fp, ip, lr}
     16c:	0013010b 	andseq	r0, r3, fp, lsl #2
     170:	00051d00 	andeq	r1, r5, r0, lsl #26
     174:	18021331 	stmdane	r2, {r0, r4, r5, r8, r9, ip}
     178:	1d1e0000 	ldcne	0, cr0, [lr, #-0]
     17c:	52133101 	andspl	r3, r3, #1073741824	; 0x40000000
     180:	58175501 	ldmdapl	r7, {r0, r8, sl, ip, lr}
     184:	010b590b 	tsteq	fp, fp, lsl #18
     188:	1f000013 	svcne	0x00000013
     18c:	1755010b 	ldrbne	r0, [r5, -fp, lsl #2]
     190:	34200000 	strtcc	r0, [r0], #-0
     194:	02133100 	andseq	r3, r3, #0, 2
     198:	21000017 	tstcs	r0, r7, lsl r0
     19c:	1331011d 	teqne	r1, #1073741831	; 0x40000007
     1a0:	06120111 			; <UNDEFINED> instruction: 0x06120111
     1a4:	0b590b58 	bleq	1642f0c <__bss_end__+0x1634614>
     1a8:	89220000 	stmdbhi	r2!, {}	; <UNPREDICTABLE>
     1ac:	11010182 	smlabbne	r1, r2, r1, r0
     1b0:	01133101 	tsteq	r3, r1, lsl #2
     1b4:	23000013 	movwcs	r0, #19
     1b8:	0001828a 	andeq	r8, r1, sl, lsl #5
     1bc:	42911802 	addsmi	r1, r1, #131072	; 0x20000
     1c0:	24000018 	strcs	r0, [r0], #-24
     1c4:	00018289 	andeq	r8, r1, r9, lsl #5
     1c8:	13310111 	teqne	r1, #1073741828	; 0x40000004
     1cc:	2e250000 	cdpcs	0, 2, cr0, cr5, cr0, {0}
     1d0:	03193f01 	tsteq	r9, #1, 30
     1d4:	3b0b3a0e 	blcc	2cea14 <__bss_end__+0x2c011c>
     1d8:	4919270b 	ldmdbmi	r9, {r0, r1, r3, r8, r9, sl, sp}
     1dc:	12011113 	andne	r1, r1, #-1073741820	; 0xc0000004
     1e0:	97184006 	ldrls	r4, [r8, -r6]
     1e4:	13011942 	movwne	r1, #6466	; 0x1942
     1e8:	2e260000 	cdpcs	0, 2, cr0, cr6, cr0, {0}
     1ec:	03193f01 	tsteq	r9, #1, 30
     1f0:	3b0b3a0e 	blcc	2cea30 <__bss_end__+0x2c0138>
     1f4:	1119270b 	tstne	r9, fp, lsl #14
     1f8:	40061201 	andmi	r1, r6, r1, lsl #4
     1fc:	19429718 	stmdbne	r2, {r3, r4, r8, r9, sl, ip, pc}^
     200:	00001301 	andeq	r1, r0, r1, lsl #6
     204:	03003427 	movweq	r3, #1063	; 0x427
     208:	3b0b3a0e 	blcc	2cea48 <__bss_end__+0x2c0150>
     20c:	0213490b 	andseq	r4, r3, #180224	; 0x2c000
     210:	28000017 	stmdacs	r0, {r0, r1, r2, r4}
     214:	0111010b 	tsteq	r1, fp, lsl #2
     218:	13010612 	movwne	r0, #5650	; 0x1612
     21c:	05290000 	streq	r0, [r9, #-0]!
     220:	02133100 	andseq	r3, r3, #0, 2
     224:	2a000017 	bcs	288 <_start-0x7d78>
     228:	0111010b 	tsteq	r1, fp, lsl #2
     22c:	00000612 	andeq	r0, r0, r2, lsl r6
     230:	31011d2b 	tstcc	r1, fp, lsr #26
     234:	55015213 	strpl	r5, [r1, #-531]	; 0x213
     238:	590b5817 	stmdbpl	fp, {r0, r1, r2, r4, fp, ip, lr}
     23c:	2c00000b 	stccs	0, cr0, [r0], {11}
     240:	01018289 	smlabbeq	r1, r9, r2, r8
     244:	13310111 	teqne	r1, #1073741828	; 0x40000004
     248:	2e2d0000 	cdpcs	0, 2, cr0, cr13, cr0, {0}
     24c:	03193f01 	tsteq	r9, #1, 30
     250:	3b0b3a0e 	blcc	2cea90 <__bss_end__+0x2c0198>
     254:	1201110b 	andne	r1, r1, #-1073741822	; 0xc0000002
     258:	97184006 	ldrls	r4, [r8, -r6]
     25c:	13011942 	movwne	r1, #6466	; 0x1942
     260:	342e0000 	strtcc	r0, [lr], #-0
     264:	3a080300 	bcc	200e6c <__bss_end__+0x1f2574>
     268:	490b3b0b 	stmdbmi	fp, {r0, r1, r3, r8, r9, fp, ip, sp}
     26c:	000b1c13 	andeq	r1, fp, r3, lsl ip
     270:	00342f00 	eorseq	r2, r4, r0, lsl #30
     274:	0b3a0803 	bleq	e82288 <__bss_end__+0xe73990>
     278:	13490b3b 	movtne	r0, #39739	; 0x9b3b
     27c:	00001802 	andeq	r1, r0, r2, lsl #16
     280:	03003430 	movweq	r3, #1072	; 0x430
     284:	3b0b3a0e 	blcc	2ceac4 <__bss_end__+0x2c01cc>
     288:	1c13490b 	ldcne	9, cr4, [r3], {11}
     28c:	31000006 	tstcc	r0, r6
     290:	0e030034 	mcreq	0, 0, r0, cr3, cr4, {1}
     294:	0b3b0b3a 	bleq	ec2f84 <__bss_end__+0xeb468c>
     298:	18021349 	stmdane	r2, {r0, r3, r6, r8, r9, ip}
     29c:	34320000 	ldrtcc	r0, [r2], #-0
     2a0:	3a0e0300 	bcc	380ea8 <__bss_end__+0x3725b0>
     2a4:	490b3b0b 	stmdbmi	fp, {r0, r1, r3, r8, r9, fp, ip, sp}
     2a8:	000b1c13 	andeq	r1, fp, r3, lsl ip
     2ac:	00343300 	eorseq	r3, r4, r0, lsl #6
     2b0:	0b3a0e03 	bleq	e83ac4 <__bss_end__+0xe751cc>
     2b4:	13490b3b 	movtne	r0, #39739	; 0x9b3b
     2b8:	1802193f 	stmdane	r2, {r0, r1, r2, r3, r4, r5, r8, fp, ip}
     2bc:	2e340000 	cdpcs	0, 3, cr0, cr4, cr0, {0}
     2c0:	03193f01 	tsteq	r9, #1, 30
     2c4:	3b0b3a0e 	blcc	2ceb04 <__bss_end__+0x2c020c>
     2c8:	4919270b 	ldmdbmi	r9, {r0, r1, r3, r8, r9, sl, sp}
     2cc:	01193c13 	tsteq	r9, r3, lsl ip
     2d0:	35000013 	strcc	r0, [r0, #-19]
     2d4:	13490005 	movtne	r0, #36869	; 0x9005
     2d8:	2e360000 	cdpcs	0, 3, cr0, cr6, cr0, {0}
     2dc:	03193f00 	tsteq	r9, #0, 30
     2e0:	3b0b3a0e 	blcc	2ceb20 <__bss_end__+0x2c0228>
     2e4:	3c19270b 	ldccc	7, cr2, [r9], {11}
     2e8:	37000019 	smladcc	r0, r9, r0, r0
     2ec:	00000018 	andeq	r0, r0, r8, lsl r0
     2f0:	00003538 	andeq	r3, r0, r8, lsr r5
     2f4:	012e3900 	teqeq	lr, r0, lsl #18
     2f8:	0e03193f 	mcreq	9, 0, r1, cr3, cr15, {1}
     2fc:	0b3b0b3a 	bleq	ec2fec <__bss_end__+0xeb46f4>
     300:	193c1927 	ldmdbne	ip!, {r0, r1, r2, r5, r8, fp, ip}
     304:	00001301 	andeq	r1, r0, r1, lsl #6
     308:	3f002e3a 	svccc	0x00002e3a
     30c:	3a0e0319 	bcc	380f78 <__bss_end__+0x372680>
     310:	270b3b0b 	strcs	r3, [fp, -fp, lsl #22]
     314:	3c134919 	ldccc	9, cr4, [r3], {25}
     318:	3b000019 	blcc	384 <_start-0x7c7c>
     31c:	193f012e 	ldmdbne	pc!, {r1, r2, r3, r5, r8}	; <UNPREDICTABLE>
     320:	0b3a0e03 	bleq	e83b34 <__bss_end__+0xe7523c>
     324:	19270b3b 	stmdbne	r7!, {r0, r1, r3, r4, r5, r8, r9, fp}
     328:	193c1349 	ldmdbne	ip!, {r0, r3, r6, r8, r9, ip}
     32c:	01000000 	mrseq	r0, (UNDEF: 0)
     330:	0e250111 	mcreq	1, 1, r0, cr5, cr1, {0}
     334:	0e030b13 	vmoveq.32	d3[0], r0
     338:	01110e1b 	tsteq	r1, fp, lsl lr
     33c:	17100612 			; <UNDEFINED> instruction: 0x17100612
     340:	24020000 	strcs	r0, [r2], #-0
     344:	3e0b0b00 	vmlacc.f64	d0, d11, d0
     348:	000e030b 	andeq	r0, lr, fp, lsl #6
     34c:	00240300 	eoreq	r0, r4, r0, lsl #6
     350:	0b3e0b0b 	bleq	f82f84 <__bss_end__+0xf7468c>
     354:	00000803 	andeq	r0, r0, r3, lsl #16
     358:	0b000f04 	bleq	3f70 <_start-0x4090>
     35c:	0500000b 	streq	r0, [r0, #-11]
     360:	0b0b000f 	bleq	2c03a4 <__bss_end__+0x2b1aac>
     364:	00001349 	andeq	r1, r0, r9, asr #6
     368:	03001606 	movweq	r1, #1542	; 0x606
     36c:	3b0b3a0e 	blcc	2cebac <__bss_end__+0x2c02b4>
     370:	0013490b 	andseq	r4, r3, fp, lsl #18
     374:	012e0700 	teqeq	lr, r0, lsl #14
     378:	0e03193f 	mcreq	9, 0, r1, cr3, cr15, {1}
     37c:	0b3b0b3a 	bleq	ec306c <__bss_end__+0xeb4774>
     380:	13491927 	movtne	r1, #39207	; 0x9927
     384:	06120111 			; <UNDEFINED> instruction: 0x06120111
     388:	42971840 	addsmi	r1, r7, #64, 16	; 0x400000
     38c:	08000019 	stmdaeq	r0, {r0, r3, r4}
     390:	08030005 	stmdaeq	r3, {r0, r2}
     394:	0b3b0b3a 	bleq	ec3084 <__bss_end__+0xeb478c>
     398:	18021349 	stmdane	r2, {r0, r3, r6, r8, r9, ip}
     39c:	05090000 	streq	r0, [r9, #-0]
     3a0:	3a080300 	bcc	200fa8 <__bss_end__+0x1f26b0>
     3a4:	490b3b0b 	stmdbmi	fp, {r0, r1, r3, r8, r9, fp, ip, sp}
     3a8:	00170213 	andseq	r0, r7, r3, lsl r2
     3ac:	00340a00 	eorseq	r0, r4, r0, lsl #20
     3b0:	0b3a0803 	bleq	e823c4 <__bss_end__+0xe73acc>
     3b4:	13490b3b 	movtne	r0, #39739	; 0x9b3b
     3b8:	00001702 	andeq	r1, r0, r2, lsl #14
     3bc:	0300340b 	movweq	r3, #1035	; 0x40b
     3c0:	3b0b3a08 	blcc	2cebe8 <__bss_end__+0x2c02f0>
     3c4:	0213490b 	andseq	r4, r3, #180224	; 0x2c000
     3c8:	00000018 	andeq	r0, r0, r8, lsl r0
     3cc:	25011101 	strcs	r1, [r1, #-257]	; 0x101
     3d0:	030b130e 	movweq	r1, #45838	; 0xb30e
     3d4:	110e1b0e 	tstne	lr, lr, lsl #22
     3d8:	10061201 	andne	r1, r6, r1, lsl #4
     3dc:	02000017 	andeq	r0, r0, #23
     3e0:	0e030016 	mcreq	0, 0, r0, cr3, cr6, {0}
     3e4:	0b3b0b3a 	bleq	ec30d4 <__bss_end__+0xeb47dc>
     3e8:	00001349 	andeq	r1, r0, r9, asr #6
     3ec:	03011303 	movweq	r1, #4867	; 0x1303
     3f0:	3a0b0b0e 	bcc	2c3030 <__bss_end__+0x2b4738>
     3f4:	010b3b0b 	tsteq	fp, fp, lsl #22
     3f8:	04000013 	streq	r0, [r0], #-19
     3fc:	0e03000d 	cdpeq	0, 0, cr0, cr3, cr13, {0}
     400:	0b381349 	bleq	e0512c <__bss_end__+0xdf6834>
     404:	00001934 	andeq	r1, r0, r4, lsr r9
     408:	0b000f05 	bleq	4024 <_start-0x3fdc>
     40c:	0600000b 	streq	r0, [r0], -fp
     410:	0b0b0024 	bleq	2c04a8 <__bss_end__+0x2b1bb0>
     414:	08030b3e 	stmdaeq	r3, {r1, r2, r3, r4, r5, r8, r9, fp}
     418:	24070000 	strcs	r0, [r7], #-0
     41c:	3e0b0b00 	vmlacc.f64	d0, d11, d0
     420:	000e030b 	andeq	r0, lr, fp, lsl #6
     424:	000f0800 	andeq	r0, pc, r0, lsl #16
     428:	13490b0b 	movtne	r0, #39691	; 0x9b0b
     42c:	26090000 	strcs	r0, [r9], -r0
     430:	00134900 	andseq	r4, r3, r0, lsl #18
     434:	012e0a00 	teqeq	lr, r0, lsl #20
     438:	0e03193f 	mcreq	9, 0, r1, cr3, cr15, {1}
     43c:	0b3b0b3a 	bleq	ec312c <__bss_end__+0xeb4834>
     440:	13491927 	movtne	r1, #39207	; 0x9927
     444:	06120111 			; <UNDEFINED> instruction: 0x06120111
     448:	42971840 	addsmi	r1, r7, #64, 16	; 0x400000
     44c:	00130119 	andseq	r0, r3, r9, lsl r1
     450:	00050b00 	andeq	r0, r5, r0, lsl #22
     454:	0b3a0803 	bleq	e82468 <__bss_end__+0xe73b70>
     458:	13490b3b 	movtne	r0, #39739	; 0x9b3b
     45c:	00001802 	andeq	r1, r0, r2, lsl #16
     460:	0000180c 	andeq	r1, r0, ip, lsl #16
     464:	00340d00 	eorseq	r0, r4, r0, lsl #26
     468:	0b3a0803 	bleq	e8247c <__bss_end__+0xe73b84>
     46c:	13490b3b 	movtne	r0, #39739	; 0x9b3b
     470:	00001802 	andeq	r1, r0, r2, lsl #16
     474:	0300340e 	movweq	r3, #1038	; 0x40e
     478:	3b0b3a0e 	blcc	2cecb8 <__bss_end__+0x2c03c0>
     47c:	0213490b 	andseq	r4, r3, #180224	; 0x2c000
     480:	0f000018 	svceq	0x00000018
     484:	08030034 	stmdaeq	r3, {r2, r4, r5}
     488:	0b3b0b3a 	bleq	ec3178 <__bss_end__+0xeb4880>
     48c:	17021349 	strne	r1, [r2, -r9, asr #6]
     490:	89100000 	ldmdbhi	r0, {}	; <UNPREDICTABLE>
     494:	11010182 	smlabbne	r1, r2, r1, r0
     498:	01133101 	tsteq	r3, r1, lsl #2
     49c:	11000013 	tstne	r0, r3, lsl r0
     4a0:	0001828a 	andeq	r8, r1, sl, lsl #5
     4a4:	42911802 	addsmi	r1, r1, #131072	; 0x20000
     4a8:	12000018 	andne	r0, r0, #24
     4ac:	01018289 	smlabbeq	r1, r9, r2, r8
     4b0:	00000111 	andeq	r0, r0, r1, lsl r1
     4b4:	49010113 	stmdbmi	r1, {r0, r1, r4, r8}
     4b8:	00130113 	andseq	r0, r3, r3, lsl r1
     4bc:	00211400 	eoreq	r1, r1, r0, lsl #8
     4c0:	052f1349 	streq	r1, [pc, #-841]!	; 17f <_start-0x7e81>
     4c4:	15150000 	ldrne	r0, [r5, #-0]
     4c8:	49192701 	ldmdbmi	r9, {r0, r8, r9, sl, sp}
     4cc:	00130113 	andseq	r0, r3, r3, lsl r1
     4d0:	00051600 	andeq	r1, r5, r0, lsl #12
     4d4:	00001349 	andeq	r1, r0, r9, asr #6
     4d8:	03003417 	movweq	r3, #1047	; 0x417
     4dc:	3b0b3a0e 	blcc	2ced1c <__bss_end__+0x2c0424>
     4e0:	3f13490b 	svccc	0x0013490b
     4e4:	00193c19 	andseq	r3, r9, r9, lsl ip
     4e8:	012e1800 	teqeq	lr, r0, lsl #16
     4ec:	0e03193f 	mcreq	9, 0, r1, cr3, cr15, {1}
     4f0:	0b3b0b3a 	bleq	ec31e0 <__bss_end__+0xeb48e8>
     4f4:	13491927 	movtne	r1, #39207	; 0x9927
     4f8:	0000193c 	andeq	r1, r0, ip, lsr r9
     4fc:	01110100 	tsteq	r1, r0, lsl #2
     500:	0b130e25 	bleq	4c3d9c <__bss_end__+0x4b54a4>
     504:	0e1b0e03 	cdpeq	14, 1, cr0, cr11, cr3, {0}
     508:	06120111 			; <UNDEFINED> instruction: 0x06120111
     50c:	00001710 	andeq	r1, r0, r0, lsl r7
     510:	0b002402 	bleq	9520 <sw_uart_putc+0x10c>
     514:	030b3e0b 	movweq	r3, #48651	; 0xbe0b
     518:	03000008 	movweq	r0, #8
     51c:	0b0b0024 	bleq	2c05b4 <__bss_end__+0x2b1cbc>
     520:	0e030b3e 	vmoveq.16	d3[0], r0
     524:	2e040000 	cdpcs	0, 0, cr0, cr4, cr0, {0}
     528:	3a0e0301 	bcc	381134 <__bss_end__+0x37283c>
     52c:	270b3b0b 	strcs	r3, [fp, -fp, lsl #22]
     530:	11134919 	tstne	r3, r9, lsl r9
     534:	40061201 	andmi	r1, r6, r1, lsl #4
     538:	19429718 	stmdbne	r2, {r3, r4, r8, r9, sl, ip, pc}^
     53c:	00001301 	andeq	r1, r0, r1, lsl #6
     540:	03000505 	movweq	r0, #1285	; 0x505
     544:	3b0b3a08 	blcc	2ced6c <__bss_end__+0x2c0474>
     548:	0213490b 	andseq	r4, r3, #180224	; 0x2c000
     54c:	06000017 			; <UNDEFINED> instruction: 0x06000017
     550:	01018289 	smlabbeq	r1, r9, r2, r8
     554:	13310111 	teqne	r1, #1073741828	; 0x40000004
     558:	8a070000 	bhi	1c0560 <__bss_end__+0x1b1c68>
     55c:	02000182 	andeq	r0, r0, #-2147483616	; 0x80000020
     560:	18429118 	stmdane	r2, {r3, r4, r8, ip, pc}^
     564:	2e080000 	cdpcs	0, 0, cr0, cr8, cr0, {0}
     568:	03193f00 	tsteq	r9, #0, 30
     56c:	3b0b3a0e 	blcc	2cedac <__bss_end__+0x2c04b4>
     570:	1119270b 	tstne	r9, fp, lsl #14
     574:	40061201 	andmi	r1, r6, r1, lsl #4
     578:	19429718 	stmdbne	r2, {r3, r4, r8, r9, sl, ip, pc}^
     57c:	2e090000 	cdpcs	0, 0, cr0, cr9, cr0, {0}
     580:	03193f01 	tsteq	r9, #1, 30
     584:	3b0b3a0e 	blcc	2cedc4 <__bss_end__+0x2c04cc>
     588:	1119270b 	tstne	r9, fp, lsl #14
     58c:	40061201 	andmi	r1, r6, r1, lsl #4
     590:	19429718 	stmdbne	r2, {r3, r4, r8, r9, sl, ip, pc}^
     594:	00001301 	andeq	r1, r0, r1, lsl #6
     598:	0300050a 	movweq	r0, #1290	; 0x50a
     59c:	3b0b3a08 	blcc	2cedc4 <__bss_end__+0x2c04cc>
     5a0:	0213490b 	andseq	r4, r3, #180224	; 0x2c000
     5a4:	0b000018 	bleq	60c <_start-0x79f4>
     5a8:	19270115 	stmdbne	r7!, {r0, r2, r4, r8}
     5ac:	13011349 	movwne	r1, #4937	; 0x1349
     5b0:	050c0000 	streq	r0, [ip, #-0]
     5b4:	00134900 	andseq	r4, r3, r0, lsl #18
     5b8:	000f0d00 	andeq	r0, pc, r0, lsl #26
     5bc:	13490b0b 	movtne	r0, #39691	; 0x9b0b
     5c0:	340e0000 	strcc	r0, [lr], #-0
     5c4:	3a0e0300 	bcc	3811cc <__bss_end__+0x3728d4>
     5c8:	490b3b0b 	stmdbmi	fp, {r0, r1, r3, r8, r9, fp, ip, sp}
     5cc:	02193f13 	andseq	r3, r9, #19, 30	; 0x4c
     5d0:	0f000018 	svceq	0x00000018
     5d4:	193f012e 	ldmdbne	pc!, {r1, r2, r3, r5, r8}	; <UNPREDICTABLE>
     5d8:	0b3a0e03 	bleq	e83dec <__bss_end__+0xe754f4>
     5dc:	19270b3b 	stmdbne	r7!, {r0, r1, r3, r4, r5, r8, r9, fp}
     5e0:	0000193c 	andeq	r1, r0, ip, lsr r9
     5e4:	01110100 	tsteq	r1, r0, lsl #2
     5e8:	0b130e25 	bleq	4c3e84 <__bss_end__+0x4b558c>
     5ec:	0e1b0e03 	cdpeq	14, 1, cr0, cr11, cr3, {0}
     5f0:	06120111 			; <UNDEFINED> instruction: 0x06120111
     5f4:	00001710 	andeq	r1, r0, r0, lsl r7
     5f8:	0b002402 	bleq	9608 <sw_uart_getc_timeout+0xa0>
     5fc:	030b3e0b 	movweq	r3, #48651	; 0xbe0b
     600:	03000008 	movweq	r0, #8
     604:	0b0b0024 	bleq	2c069c <__bss_end__+0x2b1da4>
     608:	0e030b3e 	vmoveq.16	d3[0], r0
     60c:	0f040000 	svceq	0x00040000
     610:	490b0b00 	stmdbmi	fp, {r8, r9, fp}
     614:	05000013 	streq	r0, [r0, #-19]
     618:	13490026 	movtne	r0, #36902	; 0x9026
     61c:	2e060000 	cdpcs	0, 0, cr0, cr6, cr0, {0}
     620:	03193f01 	tsteq	r9, #1, 30
     624:	3b0b3a0e 	blcc	2cee64 <__bss_end__+0x2c056c>
     628:	4919270b 	ldmdbmi	r9, {r0, r1, r3, r8, r9, sl, sp}
     62c:	12011113 	andne	r1, r1, #-1073741820	; 0xc0000004
     630:	96184006 	ldrls	r4, [r8], -r6
     634:	13011942 	movwne	r1, #6466	; 0x1942
     638:	05070000 	streq	r0, [r7, #-0]
     63c:	3a080300 	bcc	201244 <__bss_end__+0x1f294c>
     640:	490b3b0b 	stmdbmi	fp, {r0, r1, r3, r8, r9, fp, ip, sp}
     644:	00170213 	andseq	r0, r7, r3, lsl r2
     648:	01150800 	tsteq	r5, r0, lsl #16
     64c:	13491927 	movtne	r1, #39207	; 0x9927
     650:	00001301 	andeq	r1, r0, r1, lsl #6
     654:	49000509 	stmdbmi	r0, {r0, r3, r8, sl}
     658:	0a000013 	beq	6ac <_start-0x7954>
     65c:	0e030034 	mcreq	0, 0, r0, cr3, cr4, {1}
     660:	0b3b0b3a 	bleq	ec3350 <__bss_end__+0xeb4a58>
     664:	193f1349 	ldmdbne	pc!, {r0, r3, r6, r8, r9, ip}	; <UNPREDICTABLE>
     668:	0000193c 	andeq	r1, r0, ip, lsr r9
     66c:	0300340b 	movweq	r3, #1035	; 0x40b
     670:	3b0b3a0e 	blcc	2ceeb0 <__bss_end__+0x2c05b8>
     674:	3f13490b 	svccc	0x0013490b
     678:	00180219 	andseq	r0, r8, r9, lsl r2
     67c:	11010000 	mrsne	r0, (UNDEF: 1)
     680:	130e2501 	movwne	r2, #58625	; 0xe501
     684:	1b0e030b 	blne	3812b8 <__bss_end__+0x3729c0>
     688:	1201110e 	andne	r1, r1, #-2147483645	; 0x80000003
     68c:	00171006 	andseq	r1, r7, r6
     690:	00240200 	eoreq	r0, r4, r0, lsl #4
     694:	0b3e0b0b 	bleq	f832c8 <__bss_end__+0xf749d0>
     698:	00000803 	andeq	r0, r0, r3, lsl #16
     69c:	0b002403 	bleq	96b0 <sw_uart_getc_timeout+0x148>
     6a0:	030b3e0b 	movweq	r3, #48651	; 0xbe0b
     6a4:	0400000e 	streq	r0, [r0], #-14
     6a8:	0b0b000f 	bleq	2c06ec <__bss_end__+0x2b1df4>
     6ac:	0f050000 	svceq	0x00050000
     6b0:	490b0b00 	stmdbmi	fp, {r8, r9, fp}
     6b4:	06000013 			; <UNDEFINED> instruction: 0x06000013
     6b8:	13490026 	movtne	r0, #36902	; 0x9026
     6bc:	16070000 	strne	r0, [r7], -r0
     6c0:	3a0e0300 	bcc	3812c8 <__bss_end__+0x3729d0>
     6c4:	490b3b0b 	stmdbmi	fp, {r0, r1, r3, r8, r9, fp, ip, sp}
     6c8:	08000013 	stmdaeq	r0, {r0, r1, r4}
     6cc:	0e030113 	mcreq	1, 0, r0, cr3, cr3, {0}
     6d0:	0b3a0b0b 	bleq	e83304 <__bss_end__+0xe74a0c>
     6d4:	13010b3b 	movwne	r0, #6971	; 0x1b3b
     6d8:	0d090000 	stceq	0, cr0, [r9, #-0]
     6dc:	490e0300 	stmdbmi	lr, {r8, r9}
     6e0:	340b3813 	strcc	r3, [fp], #-2067	; 0x813
     6e4:	0a000019 	beq	750 <_start-0x78b0>
     6e8:	0e03012e 	adfeqsp	f0, f3, #0.5
     6ec:	0b3b0b3a 	bleq	ec33dc <__bss_end__+0xeb4ae4>
     6f0:	13491927 	movtne	r1, #39207	; 0x9927
     6f4:	06120111 			; <UNDEFINED> instruction: 0x06120111
     6f8:	42971840 	addsmi	r1, r7, #64, 16	; 0x400000
     6fc:	00130119 	andseq	r0, r3, r9, lsl r1
     700:	00050b00 	andeq	r0, r5, r0, lsl #22
     704:	0b3a0803 	bleq	e82718 <__bss_end__+0xe73e20>
     708:	13490b3b 	movtne	r0, #39739	; 0x9b3b
     70c:	00001702 	andeq	r1, r0, r2, lsl #14
     710:	03012e0c 	movweq	r2, #7692	; 0x1e0c
     714:	3b0b3a08 	blcc	2cef3c <__bss_end__+0x2c0644>
     718:	4919270b 	ldmdbmi	r9, {r0, r1, r3, r8, r9, sl, sp}
     71c:	12011113 	andne	r1, r1, #-1073741820	; 0xc0000004
     720:	97184006 	ldrls	r4, [r8, -r6]
     724:	13011942 	movwne	r1, #6466	; 0x1942
     728:	050d0000 	streq	r0, [sp, #-0]
     72c:	3a0e0300 	bcc	381334 <__bss_end__+0x372a3c>
     730:	490b3b0b 	stmdbmi	fp, {r0, r1, r3, r8, r9, fp, ip, sp}
     734:	00170213 	andseq	r0, r7, r3, lsl r2
     738:	00050e00 	andeq	r0, r5, r0, lsl #28
     73c:	0b3a0e03 	bleq	e83f50 <__bss_end__+0xe75658>
     740:	13490b3b 	movtne	r0, #39739	; 0x9b3b
     744:	00001802 	andeq	r1, r0, r2, lsl #16
     748:	0300340f 	movweq	r3, #1039	; 0x40f
     74c:	3b0b3a08 	blcc	2cef74 <__bss_end__+0x2c067c>
     750:	0213490b 	andseq	r4, r3, #180224	; 0x2c000
     754:	10000018 	andne	r0, r0, r8, lsl r0
     758:	08030034 	stmdaeq	r3, {r2, r4, r5}
     75c:	0b3b0b3a 	bleq	ec344c <__bss_end__+0xeb4b54>
     760:	17021349 	strne	r1, [r2, -r9, asr #6]
     764:	34110000 	ldrcc	r0, [r1], #-0
     768:	490e0300 	stmdbmi	lr, {r8, r9}
     76c:	02193413 	andseq	r3, r9, #318767104	; 0x13000000
     770:	12000018 	andne	r0, r0, #24
     774:	0111010b 	tsteq	r1, fp, lsl #2
     778:	13010612 	movwne	r0, #5650	; 0x1612
     77c:	34130000 	ldrcc	r0, [r3], #-0
     780:	3a0e0300 	bcc	381388 <__bss_end__+0x372a90>
     784:	490b3b0b 	stmdbmi	fp, {r0, r1, r3, r8, r9, fp, ip, sp}
     788:	00170213 	andseq	r0, r7, r3, lsl r2
     78c:	82891400 	addhi	r1, r9, #0, 8
     790:	01110001 	tsteq	r1, r1
     794:	00001331 	andeq	r1, r0, r1, lsr r3
     798:	01828915 	orreq	r8, r2, r5, lsl r9
     79c:	31011101 	tstcc	r1, r1, lsl #2
     7a0:	00130113 	andseq	r0, r3, r3, lsl r1
     7a4:	828a1600 	addhi	r1, sl, #0, 12
     7a8:	18020001 	stmdane	r2, {r0}
     7ac:	00184291 	mulseq	r8, r1, r2
     7b0:	82891700 	addhi	r1, r9, #0, 14
     7b4:	01110101 	tsteq	r1, r1, lsl #2
     7b8:	00001331 	andeq	r1, r0, r1, lsr r3
     7bc:	49010118 	stmdbmi	r1, {r3, r4, r8}
     7c0:	00130113 	andseq	r0, r3, r3, lsl r1
     7c4:	00211900 	eoreq	r1, r1, r0, lsl #18
     7c8:	0b2f1349 	bleq	bc54f4 <__bss_end__+0xbb6bfc>
     7cc:	2e1a0000 	cdpcs	0, 1, cr0, cr10, cr0, {0}
     7d0:	03193f01 	tsteq	r9, #1, 30
     7d4:	3b0b3a0e 	blcc	2cf014 <__bss_end__+0x2c071c>
     7d8:	1119270b 	tstne	r9, fp, lsl #14
     7dc:	40061201 	andmi	r1, r6, r1, lsl #4
     7e0:	19429718 	stmdbne	r2, {r3, r4, r8, r9, sl, ip, pc}^
     7e4:	00001301 	andeq	r1, r0, r1, lsl #6
     7e8:	2701151b 	smladcs	r1, fp, r5, r1
     7ec:	01134919 	tsteq	r3, r9, lsl r9
     7f0:	1c000013 	stcne	0, cr0, [r0], {19}
     7f4:	13490005 	movtne	r0, #36869	; 0x9005
     7f8:	2e1d0000 	cdpcs	0, 1, cr0, cr13, cr0, {0}
     7fc:	03193f01 	tsteq	r9, #1, 30
     800:	3b0b3a0e 	blcc	2cf040 <__bss_end__+0x2c0748>
     804:	4919270b 	ldmdbmi	r9, {r0, r1, r3, r8, r9, sl, sp}
     808:	12011113 	andne	r1, r1, #-1073741820	; 0xc0000004
     80c:	97184006 	ldrls	r4, [r8, -r6]
     810:	13011942 	movwne	r1, #6466	; 0x1942
     814:	0b1e0000 	bleq	78081c <__bss_end__+0x771f24>
     818:	00175501 	andseq	r5, r7, r1, lsl #10
     81c:	00341f00 	eorseq	r1, r4, r0, lsl #30
     820:	0b3a0e03 	bleq	e84034 <__bss_end__+0xe7573c>
     824:	13490b3b 	movtne	r0, #39739	; 0x9b3b
     828:	193c193f 	ldmdbne	ip!, {r0, r1, r2, r3, r4, r5, r8, fp, ip}
     82c:	2e200000 	cdpcs	0, 2, cr0, cr0, cr0, {0}
     830:	03193f00 	tsteq	r9, #0, 30
     834:	3b0b3a0e 	blcc	2cf074 <__bss_end__+0x2c077c>
     838:	3c19270b 	ldccc	7, cr2, [r9], {11}
     83c:	21000019 	tstcs	r0, r9, lsl r0
     840:	193f012e 	ldmdbne	pc!, {r1, r2, r3, r5, r8}	; <UNPREDICTABLE>
     844:	0b3a0e03 	bleq	e84058 <__bss_end__+0xe75760>
     848:	19270b3b 	stmdbne	r7!, {r0, r1, r3, r4, r5, r8, r9, fp}
     84c:	193c1349 	ldmdbne	ip!, {r0, r3, r6, r8, r9, ip}
     850:	00001301 	andeq	r1, r0, r1, lsl #6
     854:	00001822 	andeq	r1, r0, r2, lsr #16
     858:	11010000 	mrsne	r0, (UNDEF: 1)
     85c:	130e2501 	movwne	r2, #58625	; 0xe501
     860:	1b0e030b 	blne	381494 <__bss_end__+0x372b9c>
     864:	1201110e 	andne	r1, r1, #-2147483645	; 0x80000003
     868:	00171006 	andseq	r1, r7, r6
     86c:	00240200 	eoreq	r0, r4, r0, lsl #4
     870:	0b3e0b0b 	bleq	f834a4 <__bss_end__+0xf74bac>
     874:	00000803 	andeq	r0, r0, r3, lsl #16
     878:	0b002403 	bleq	988c <sw_uart_init_helper+0x50>
     87c:	030b3e0b 	movweq	r3, #48651	; 0xbe0b
     880:	0400000e 	streq	r0, [r0], #-14
     884:	0b0b000f 	bleq	2c08c8 <__bss_end__+0x2b1fd0>
     888:	00001349 	andeq	r1, r0, r9, asr #6
     88c:	49002605 	stmdbmi	r0, {r0, r2, r9, sl, sp}
     890:	06000013 			; <UNDEFINED> instruction: 0x06000013
     894:	193f012e 	ldmdbne	pc!, {r1, r2, r3, r5, r8}	; <UNPREDICTABLE>
     898:	0b3a0e03 	bleq	e840ac <__bss_end__+0xe757b4>
     89c:	19270b3b 	stmdbne	r7!, {r0, r1, r3, r4, r5, r8, r9, fp}
     8a0:	06120111 			; <UNDEFINED> instruction: 0x06120111
     8a4:	42971840 	addsmi	r1, r7, #64, 16	; 0x400000
     8a8:	00130119 	andseq	r0, r3, r9, lsl r1
     8ac:	82890700 	addhi	r0, r9, #0, 14
     8b0:	01110101 	tsteq	r1, r1, lsl #2
     8b4:	00001301 	andeq	r1, r0, r1, lsl #6
     8b8:	01828a08 	orreq	r8, r2, r8, lsl #20
     8bc:	91180200 	tstls	r8, r0, lsl #4
     8c0:	00001842 	andeq	r1, r0, r2, asr #16
     8c4:	01828909 	orreq	r8, r2, r9, lsl #18
     8c8:	31011101 	tstcc	r1, r1, lsl #2
     8cc:	00130113 	andseq	r0, r3, r3, lsl r1
     8d0:	82890a00 	addhi	r0, r9, #0, 20
     8d4:	01110001 	tsteq	r1, r1
     8d8:	00001331 	andeq	r1, r0, r1, lsr r3
     8dc:	2701150b 	strcs	r1, [r1, -fp, lsl #10]
     8e0:	01134919 	tsteq	r3, r9, lsl r9
     8e4:	0c000013 	stceq	0, cr0, [r0], {19}
     8e8:	13490005 	movtne	r0, #36869	; 0x9005
     8ec:	340d0000 	strcc	r0, [sp], #-0
     8f0:	3a0e0300 	bcc	3814f8 <__bss_end__+0x372c00>
     8f4:	490b3b0b 	stmdbmi	fp, {r0, r1, r3, r8, r9, fp, ip, sp}
     8f8:	3c193f13 	ldccc	15, cr3, [r9], {19}
     8fc:	0e000019 	mcreq	0, 0, r0, cr0, cr9, {0}
     900:	193f012e 	ldmdbne	pc!, {r1, r2, r3, r5, r8}	; <UNPREDICTABLE>
     904:	0b3a0e03 	bleq	e84118 <__bss_end__+0xe75820>
     908:	19270b3b 	stmdbne	r7!, {r0, r1, r3, r4, r5, r8, r9, fp}
     90c:	1301193c 	movwne	r1, #6460	; 0x193c
     910:	2e0f0000 	cdpcs	0, 0, cr0, cr15, cr0, {0}
     914:	03193f00 	tsteq	r9, #0, 30
     918:	3b0b3a0e 	blcc	2cf158 <__bss_end__+0x2c0860>
     91c:	3c19270b 	ldccc	7, cr2, [r9], {11}
     920:	00000019 	andeq	r0, r0, r9, lsl r0
     924:	25011101 	strcs	r1, [r1, #-257]	; 0x101
     928:	030b130e 	movweq	r1, #45838	; 0xb30e
     92c:	110e1b0e 	tstne	lr, lr, lsl #22
     930:	10061201 	andne	r1, r6, r1, lsl #4
     934:	02000017 	andeq	r0, r0, #23
     938:	0b0b0024 	bleq	2c09d0 <__bss_end__+0x2b20d8>
     93c:	08030b3e 	stmdaeq	r3, {r1, r2, r3, r4, r5, r8, r9, fp}
     940:	24030000 	strcs	r0, [r3], #-0
     944:	3e0b0b00 	vmlacc.f64	d0, d11, d0
     948:	000e030b 	andeq	r0, lr, fp, lsl #6
     94c:	00160400 	andseq	r0, r6, r0, lsl #8
     950:	0b3a0e03 	bleq	e84164 <__bss_end__+0xe7586c>
     954:	13490b3b 	movtne	r0, #39739	; 0x9b3b
     958:	0f050000 	svceq	0x00050000
     95c:	490b0b00 	stmdbmi	fp, {r8, r9, fp}
     960:	06000013 			; <UNDEFINED> instruction: 0x06000013
     964:	13490026 	movtne	r0, #36902	; 0x9026
     968:	13070000 	movwne	r0, #28672	; 0x7000
     96c:	3a0b0b01 	bcc	2c3578 <__bss_end__+0x2b4c80>
     970:	010b3b0b 	tsteq	fp, fp, lsl #22
     974:	08000013 	stmdaeq	r0, {r0, r1, r4}
     978:	0803000d 	stmdaeq	r3, {r0, r2, r3}
     97c:	0b3b0b3a 	bleq	ec366c <__bss_end__+0xeb4d74>
     980:	0b381349 	bleq	e056ac <__bss_end__+0xdf6db4>
     984:	0d090000 	stceq	0, cr0, [r9, #-0]
     988:	3a0e0300 	bcc	381590 <__bss_end__+0x372c98>
     98c:	490b3b0b 	stmdbmi	fp, {r0, r1, r3, r8, r9, fp, ip, sp}
     990:	000b3813 	andeq	r3, fp, r3, lsl r8
     994:	01040a00 	tsteq	r4, r0, lsl #20
     998:	0b3a0b0b 	bleq	e835cc <__bss_end__+0xe74cd4>
     99c:	13010b3b 	movwne	r0, #6971	; 0x1b3b
     9a0:	280b0000 	stmdacs	fp, {}	; <UNPREDICTABLE>
     9a4:	1c0e0300 	stcne	3, cr0, [lr], {-0}
     9a8:	0c00000d 	stceq	0, cr0, [r0], {13}
     9ac:	0e03012e 	adfeqsp	f0, f3, #0.5
     9b0:	0b3b0b3a 	bleq	ec36a0 <__bss_end__+0xeb4da8>
     9b4:	13491927 	movtne	r1, #39207	; 0x9927
     9b8:	06120111 			; <UNDEFINED> instruction: 0x06120111
     9bc:	42971840 	addsmi	r1, r7, #64, 16	; 0x400000
     9c0:	00130119 	andseq	r0, r3, r9, lsl r1
     9c4:	00050d00 	andeq	r0, r5, r0, lsl #26
     9c8:	0b3a0803 	bleq	e829dc <__bss_end__+0xe740e4>
     9cc:	13490b3b 	movtne	r0, #39739	; 0x9b3b
     9d0:	00001702 	andeq	r1, r0, r2, lsl #14
     9d4:	0182890e 	orreq	r8, r2, lr, lsl #18
     9d8:	31011101 	tstcc	r1, r1, lsl #2
     9dc:	0f000013 	svceq	0x00000013
     9e0:	0001828a 	andeq	r8, r1, sl, lsl #5
     9e4:	42911802 	addsmi	r1, r1, #131072	; 0x20000
     9e8:	10000018 	andne	r0, r0, r8, lsl r0
     9ec:	193f012e 	ldmdbne	pc!, {r1, r2, r3, r5, r8}	; <UNPREDICTABLE>
     9f0:	0b3a0e03 	bleq	e84204 <__bss_end__+0xe7590c>
     9f4:	01110b3b 	tsteq	r1, fp, lsr fp
     9f8:	18400612 	stmdane	r0, {r1, r4, r9, sl}^
     9fc:	01194297 			; <UNDEFINED> instruction: 0x01194297
     a00:	11000013 	tstne	r0, r3, lsl r0
     a04:	0e030034 	mcreq	0, 0, r0, cr3, cr4, {1}
     a08:	0b3b0b3a 	bleq	ec36f8 <__bss_end__+0xeb4e00>
     a0c:	193f1349 	ldmdbne	pc!, {r0, r3, r6, r8, r9, ip}	; <UNPREDICTABLE>
     a10:	0000193c 	andeq	r1, r0, ip, lsr r9
     a14:	3f012e12 	svccc	0x00012e12
     a18:	3a0e0319 	bcc	381684 <__bss_end__+0x372d8c>
     a1c:	3c0b3b0b 	stccc	11, cr3, [fp], {11}
     a20:	00130119 	andseq	r0, r3, r9, lsl r1
     a24:	00181300 	andseq	r1, r8, r0, lsl #6
     a28:	34140000 	ldrcc	r0, [r4], #-0
     a2c:	3a080300 	bcc	201634 <__bss_end__+0x1f2d3c>
     a30:	490b3b0b 	stmdbmi	fp, {r0, r1, r3, r8, r9, fp, ip, sp}
     a34:	00170213 	andseq	r0, r7, r3, lsl r2
     a38:	00341500 	eorseq	r1, r4, r0, lsl #10
     a3c:	0b3a0e03 	bleq	e84250 <__bss_end__+0xe75958>
     a40:	13490b3b 	movtne	r0, #39739	; 0x9b3b
     a44:	89160000 	ldmdbhi	r6, {}	; <UNPREDICTABLE>
     a48:	11000182 	smlabbne	r0, r2, r1, r0
     a4c:	00133101 	andseq	r3, r3, r1, lsl #2
     a50:	82891700 	addhi	r1, r9, #0, 14
     a54:	01110101 	tsteq	r1, r1, lsl #2
     a58:	13011331 	movwne	r1, #4913	; 0x1331
     a5c:	34180000 	ldrcc	r0, [r8], #-0
     a60:	3a0e0300 	bcc	381668 <__bss_end__+0x372d70>
     a64:	490b3b0b 	stmdbmi	fp, {r0, r1, r3, r8, r9, fp, ip, sp}
     a68:	00180213 	andseq	r0, r8, r3, lsl r2
     a6c:	01151900 	tsteq	r5, r0, lsl #18
     a70:	13491927 	movtne	r1, #39207	; 0x9927
     a74:	00001301 	andeq	r1, r0, r1, lsl #6
     a78:	4900051a 	stmdbmi	r0, {r1, r3, r4, r8, sl}
     a7c:	1b000013 	blne	ad0 <_start-0x7530>
     a80:	193f012e 	ldmdbne	pc!, {r1, r2, r3, r5, r8}	; <UNPREDICTABLE>
     a84:	0b3a0e03 	bleq	e84298 <__bss_end__+0xe759a0>
     a88:	19270b3b 	stmdbne	r7!, {r0, r1, r3, r4, r5, r8, r9, fp}
     a8c:	1301193c 	movwne	r1, #6460	; 0x193c
     a90:	2e1c0000 	cdpcs	0, 1, cr0, cr12, cr0, {0}
     a94:	03193f00 	tsteq	r9, #0, 30
     a98:	3b0b3a0e 	blcc	2cf2d8 <__bss_end__+0x2c09e0>
     a9c:	4919270b 	ldmdbmi	r9, {r0, r1, r3, r8, r9, sl, sp}
     aa0:	00193c13 	andseq	r3, r9, r3, lsl ip
     aa4:	012e1d00 	teqeq	lr, r0, lsl #26
     aa8:	0e03193f 	mcreq	9, 0, r1, cr3, cr15, {1}
     aac:	0b3b0b3a 	bleq	ec379c <__bss_end__+0xeb4ea4>
     ab0:	13491927 	movtne	r1, #39207	; 0x9927
     ab4:	1301193c 	movwne	r1, #6460	; 0x193c
     ab8:	2e1e0000 	cdpcs	0, 1, cr0, cr14, cr0, {0}
     abc:	03193f00 	tsteq	r9, #0, 30
     ac0:	3b0b3a0e 	blcc	2cf300 <__bss_end__+0x2c0a08>
     ac4:	3c19270b 	ldccc	7, cr2, [r9], {11}
     ac8:	00000019 	andeq	r0, r0, r9, lsl r0
     acc:	25011101 	strcs	r1, [r1, #-257]	; 0x101
     ad0:	030b130e 	movweq	r1, #45838	; 0xb30e
     ad4:	550e1b0e 	strpl	r1, [lr, #-2830]	; 0xb0e
     ad8:	10011117 	andne	r1, r1, r7, lsl r1
     adc:	02000017 	andeq	r0, r0, #23
     ae0:	0b0b0024 	bleq	2c0b78 <__bss_end__+0x2b2280>
     ae4:	08030b3e 	stmdaeq	r3, {r1, r2, r3, r4, r5, r8, r9, fp}
     ae8:	24030000 	strcs	r0, [r3], #-0
     aec:	3e0b0b00 	vmlacc.f64	d0, d11, d0
     af0:	000e030b 	andeq	r0, lr, fp, lsl #6
     af4:	012e0400 	teqeq	lr, r0, lsl #8
     af8:	0e03193f 	mcreq	9, 0, r1, cr3, cr15, {1}
     afc:	0b3b0b3a 	bleq	ec37ec <__bss_end__+0xeb4ef4>
     b00:	13491927 	movtne	r1, #39207	; 0x9927
     b04:	06120111 			; <UNDEFINED> instruction: 0x06120111
     b08:	42971840 	addsmi	r1, r7, #64, 16	; 0x400000
     b0c:	00130119 	andseq	r0, r3, r9, lsl r1
     b10:	00340500 	eorseq	r0, r4, r0, lsl #10
     b14:	0b3a0e03 	bleq	e84328 <__bss_end__+0xe75a30>
     b18:	13490b3b 	movtne	r0, #39739	; 0x9b3b
     b1c:	00001702 	andeq	r1, r0, r2, lsl #14
     b20:	3f012e06 	svccc	0x00012e06
     b24:	3a0e0319 	bcc	381790 <__bss_end__+0x372e98>
     b28:	270b3b0b 	strcs	r3, [fp, -fp, lsl #22]
     b2c:	12011119 	andne	r1, r1, #1073741830	; 0x40000006
     b30:	97184006 	ldrls	r4, [r8, -r6]
     b34:	13011942 	movwne	r1, #6466	; 0x1942
     b38:	34070000 	strcc	r0, [r7], #-0
     b3c:	3a0e0300 	bcc	381744 <__bss_end__+0x372e4c>
     b40:	490b3b0b 	stmdbmi	fp, {r0, r1, r3, r8, r9, fp, ip, sp}
     b44:	00061c13 	andeq	r1, r6, r3, lsl ip
     b48:	00340800 	eorseq	r0, r4, r0, lsl #16
     b4c:	0b3a0e03 	bleq	e84360 <__bss_end__+0xe75a68>
     b50:	13490b3b 	movtne	r0, #39739	; 0x9b3b
     b54:	00000b1c 	andeq	r0, r0, ip, lsl fp
     b58:	01828909 	orreq	r8, r2, r9, lsl #18
     b5c:	31011100 	mrscc	r1, (UNDEF: 17)
     b60:	0a000013 	beq	bb4 <_start-0x744c>
     b64:	01018289 	smlabbeq	r1, r9, r2, r8
     b68:	13310111 	teqne	r1, #1073741828	; 0x40000004
     b6c:	00001301 	andeq	r1, r0, r1, lsl #6
     b70:	01828a0b 	orreq	r8, r2, fp, lsl #20
     b74:	91180200 	tstls	r8, r0, lsl #4
     b78:	00001842 	andeq	r1, r0, r2, asr #16
     b7c:	0182890c 	orreq	r8, r2, ip, lsl #18
     b80:	31011101 	tstcc	r1, r1, lsl #2
     b84:	0d000013 	stceq	0, cr0, [r0, #-76]	; 0xffffffb4
     b88:	13490026 	movtne	r0, #36902	; 0x9026
     b8c:	2e0e0000 	cdpcs	0, 0, cr0, cr14, cr0, {0}
     b90:	03193f01 	tsteq	r9, #1, 30
     b94:	3b0b3a0e 	blcc	2cf3d4 <__bss_end__+0x2c0adc>
     b98:	3c19270b 	ldccc	7, cr2, [r9], {11}
     b9c:	00130119 	andseq	r0, r3, r9, lsl r1
     ba0:	00050f00 	andeq	r0, r5, r0, lsl #30
     ba4:	00001349 	andeq	r1, r0, r9, asr #6
     ba8:	3f012e10 	svccc	0x00012e10
     bac:	3a0e0319 	bcc	381818 <__bss_end__+0x372f20>
     bb0:	270b3b0b 	strcs	r3, [fp, -fp, lsl #22]
     bb4:	00193c19 	andseq	r3, r9, r9, lsl ip
     bb8:	11010000 	mrsne	r0, (UNDEF: 1)
     bbc:	130e2501 	movwne	r2, #58625	; 0xe501
     bc0:	1b0e030b 	blne	3817f4 <__bss_end__+0x372efc>
     bc4:	1201110e 	andne	r1, r1, #-2147483645	; 0x80000003
     bc8:	00171006 	andseq	r1, r7, r6
     bcc:	00240200 	eoreq	r0, r4, r0, lsl #4
     bd0:	0b3e0b0b 	bleq	f83804 <__bss_end__+0xf74f0c>
     bd4:	00000803 	andeq	r0, r0, r3, lsl #16
     bd8:	0b002403 	bleq	9bec <int_init+0x64>
     bdc:	030b3e0b 	movweq	r3, #48651	; 0xbe0b
     be0:	0400000e 	streq	r0, [r0], #-14
     be4:	193f012e 	ldmdbne	pc!, {r1, r2, r3, r5, r8}	; <UNPREDICTABLE>
     be8:	0b3a0e03 	bleq	e843fc <__bss_end__+0xe75b04>
     bec:	19270b3b 	stmdbne	r7!, {r0, r1, r3, r4, r5, r8, r9, fp}
     bf0:	06120111 			; <UNDEFINED> instruction: 0x06120111
     bf4:	42971840 	addsmi	r1, r7, #64, 16	; 0x400000
     bf8:	00130119 	andseq	r0, r3, r9, lsl r1
     bfc:	00050500 	andeq	r0, r5, r0, lsl #10
     c00:	0b3a0e03 	bleq	e84414 <__bss_end__+0xe75b1c>
     c04:	13490b3b 	movtne	r0, #39739	; 0x9b3b
     c08:	00001702 	andeq	r1, r0, r2, lsl #14
     c0c:	3f012e06 	svccc	0x00012e06
     c10:	3a0e0319 	bcc	38187c <__bss_end__+0x372f84>
     c14:	270b3b0b 	strcs	r3, [fp, -fp, lsl #22]
     c18:	11134919 	tstne	r3, r9, lsl r9
     c1c:	40061201 	andmi	r1, r6, r1, lsl #4
     c20:	19429718 	stmdbne	r2, {r3, r4, r8, r9, sl, ip, pc}^
     c24:	00001301 	andeq	r1, r0, r1, lsl #6
     c28:	01828907 	orreq	r8, r2, r7, lsl #18
     c2c:	31011101 	tstcc	r1, r1, lsl #2
     c30:	08000013 	stmdaeq	r0, {r0, r1, r4}
     c34:	0001828a 	andeq	r8, r1, sl, lsl #5
     c38:	42911802 	addsmi	r1, r1, #131072	; 0x20000
     c3c:	09000018 	stmdbeq	r0, {r3, r4}
     c40:	08030034 	stmdaeq	r3, {r2, r4, r5}
     c44:	0b3b0b3a 	bleq	ec3934 <__bss_end__+0xeb503c>
     c48:	18021349 	stmdane	r2, {r0, r3, r6, r8, r9, ip}
     c4c:	890a0000 	stmdbhi	sl, {}	; <UNPREDICTABLE>
     c50:	11000182 	smlabbne	r0, r2, r1, r0
     c54:	00133101 	andseq	r3, r3, r1, lsl #2
     c58:	00050b00 	andeq	r0, r5, r0, lsl #22
     c5c:	0b3a0803 	bleq	e82c70 <__bss_end__+0xe74378>
     c60:	13490b3b 	movtne	r0, #39739	; 0x9b3b
     c64:	00001702 	andeq	r1, r0, r2, lsl #14
     c68:	11010b0c 	tstne	r1, ip, lsl #22
     c6c:	01061201 	tsteq	r6, r1, lsl #4
     c70:	0d000013 	stceq	0, cr0, [r0, #-76]	; 0xffffffb4
     c74:	08030034 	stmdaeq	r3, {r2, r4, r5}
     c78:	0b3b0b3a 	bleq	ec3968 <__bss_end__+0xeb5070>
     c7c:	17021349 	strne	r1, [r2, -r9, asr #6]
     c80:	2e0e0000 	cdpcs	0, 0, cr0, cr14, cr0, {0}
     c84:	03193f01 	tsteq	r9, #1, 30
     c88:	3b0b3a0e 	blcc	2cf4c8 <__bss_end__+0x2c0bd0>
     c8c:	4919270b 	ldmdbmi	r9, {r0, r1, r3, r8, r9, sl, sp}
     c90:	00193c13 	andseq	r3, r9, r3, lsl ip
     c94:	00050f00 	andeq	r0, r5, r0, lsl #30
     c98:	00001349 	andeq	r1, r0, r9, asr #6
     c9c:	01110100 	tsteq	r1, r0, lsl #2
     ca0:	0b130e25 	bleq	4c453c <__bss_end__+0x4b5c44>
     ca4:	0e1b0e03 	cdpeq	14, 1, cr0, cr11, cr3, {0}
     ca8:	06120111 			; <UNDEFINED> instruction: 0x06120111
     cac:	00001710 	andeq	r1, r0, r0, lsl r7
     cb0:	0b002402 	bleq	9cc0 <undefined_instruction_vector+0x4>
     cb4:	030b3e0b 	movweq	r3, #48651	; 0xbe0b
     cb8:	0300000e 	movweq	r0, #14
     cbc:	0b0b0024 	bleq	2c0d54 <__bss_end__+0x2b245c>
     cc0:	08030b3e 	stmdaeq	r3, {r1, r2, r3, r4, r5, r8, r9, fp}
     cc4:	04040000 	streq	r0, [r4], #-0
     cc8:	3a0b0b01 	bcc	2c38d4 <__bss_end__+0x2b4fdc>
     ccc:	010b3b0b 	tsteq	fp, fp, lsl #22
     cd0:	05000013 	streq	r0, [r0, #-19]
     cd4:	0e030028 	cdpeq	0, 0, cr0, cr3, cr8, {1}
     cd8:	00000d1c 	andeq	r0, r0, ip, lsl sp
     cdc:	03001606 	movweq	r1, #1542	; 0x606
     ce0:	3b0b3a0e 	blcc	2cf520 <__bss_end__+0x2c0c28>
     ce4:	0013490b 	andseq	r4, r3, fp, lsl #18
     ce8:	012e0700 	teqeq	lr, r0, lsl #14
     cec:	0e03193f 	mcreq	9, 0, r1, cr3, cr15, {1}
     cf0:	0b3b0b3a 	bleq	ec39e0 <__bss_end__+0xeb50e8>
     cf4:	01111927 	tsteq	r1, r7, lsr #18
     cf8:	18400612 	stmdane	r0, {r1, r4, r9, sl}^
     cfc:	01194297 			; <UNDEFINED> instruction: 0x01194297
     d00:	08000013 	stmdaeq	r0, {r0, r1, r4}
     d04:	08030005 	stmdaeq	r3, {r0, r2}
     d08:	0b3b0b3a 	bleq	ec39f8 <__bss_end__+0xeb5100>
     d0c:	17021349 	strne	r1, [r2, -r9, asr #6]
     d10:	34090000 	strcc	r0, [r9], #-0
     d14:	3a0e0300 	bcc	38191c <__bss_end__+0x373024>
     d18:	490b3b0b 	stmdbmi	fp, {r0, r1, r3, r8, r9, fp, ip, sp}
     d1c:	00170213 	andseq	r0, r7, r3, lsl r2
     d20:	82890a00 	addhi	r0, r9, #0, 20
     d24:	01110101 	tsteq	r1, r1, lsl #2
     d28:	13011331 	movwne	r1, #4913	; 0x1331
     d2c:	8a0b0000 	bhi	2c0d34 <__bss_end__+0x2b243c>
     d30:	02000182 	andeq	r0, r0, #-2147483616	; 0x80000020
     d34:	18429118 	stmdane	r2, {r3, r4, r8, ip, pc}^
     d38:	890c0000 	stmdbhi	ip, {}	; <UNPREDICTABLE>
     d3c:	11010182 	smlabbne	r1, r2, r1, r0
     d40:	00133101 	andseq	r3, r3, r1, lsl #2
     d44:	000f0d00 	andeq	r0, pc, r0, lsl #26
     d48:	13490b0b 	movtne	r0, #39691	; 0x9b0b
     d4c:	350e0000 	strcc	r0, [lr, #-0]
     d50:	00134900 	andseq	r4, r3, r0, lsl #18
     d54:	012e0f00 	teqeq	lr, r0, lsl #30
     d58:	0e03193f 	mcreq	9, 0, r1, cr3, cr15, {1}
     d5c:	0b3b0b3a 	bleq	ec3a4c <__bss_end__+0xeb5154>
     d60:	0b201927 	bleq	807204 <__bss_end__+0x7f890c>
     d64:	00001301 	andeq	r1, r0, r1, lsl #6
     d68:	03000510 	movweq	r0, #1296	; 0x510
     d6c:	3b0b3a08 	blcc	2cf594 <__bss_end__+0x2c0c9c>
     d70:	0013490b 	andseq	r4, r3, fp, lsl #18
     d74:	00341100 	eorseq	r1, r4, r0, lsl #2
     d78:	0b3a0e03 	bleq	e8458c <__bss_end__+0xe75c94>
     d7c:	13490b3b 	movtne	r0, #39739	; 0x9b3b
     d80:	2e120000 	cdpcs	0, 1, cr0, cr2, cr0, {0}
     d84:	11133101 	tstne	r3, r1, lsl #2
     d88:	40061201 	andmi	r1, r6, r1, lsl #4
     d8c:	19429718 	stmdbne	r2, {r3, r4, r8, r9, sl, ip, pc}^
     d90:	00001301 	andeq	r1, r0, r1, lsl #6
     d94:	31000513 	tstcc	r0, r3, lsl r5
     d98:	00170213 	andseq	r0, r7, r3, lsl r2
     d9c:	00341400 	eorseq	r1, r4, r0, lsl #8
     da0:	17021331 	smladxne	r2, r1, r3, r1
     da4:	2e150000 	cdpcs	0, 1, cr0, cr5, cr0, {0}
     da8:	03193f01 	tsteq	r9, #1, 30
     dac:	3b0b3a0e 	blcc	2cf5ec <__bss_end__+0x2c0cf4>
     db0:	4919270b 	ldmdbmi	r9, {r0, r1, r3, r8, r9, sl, sp}
     db4:	12011113 	andne	r1, r1, #-1073741820	; 0xc0000004
     db8:	97184006 	ldrls	r4, [r8, -r6]
     dbc:	13011942 	movwne	r1, #6466	; 0x1942
     dc0:	34160000 	ldrcc	r0, [r6], #-0
     dc4:	3a080300 	bcc	2019cc <__bss_end__+0x1f30d4>
     dc8:	490b3b0b 	stmdbmi	fp, {r0, r1, r3, r8, r9, fp, ip, sp}
     dcc:	00170213 	andseq	r0, r7, r3, lsl r2
     dd0:	82891700 	addhi	r1, r9, #0, 14
     dd4:	01110001 	tsteq	r1, r1
     dd8:	00001331 	andeq	r1, r0, r1, lsr r3
     ddc:	31011d18 	tstcc	r1, r8, lsl sp
     de0:	12011113 	andne	r1, r1, #-1073741820	; 0xc0000004
     de4:	590b5806 	stmdbpl	fp, {r1, r2, fp, ip, lr}
     de8:	0013010b 	andseq	r0, r3, fp, lsl #2
     dec:	010b1900 	tsteq	fp, r0, lsl #18
     df0:	06120111 			; <UNDEFINED> instruction: 0x06120111
     df4:	1d1a0000 	ldcne	0, cr0, [sl, #-0]
     df8:	11133101 	tstne	r3, r1, lsl #2
     dfc:	58061201 	stmdapl	r6, {r0, r9, ip}
     e00:	000b590b 	andeq	r5, fp, fp, lsl #18
     e04:	00051b00 	andeq	r1, r5, r0, lsl #22
     e08:	0b3a0e03 	bleq	e8461c <__bss_end__+0xe75d24>
     e0c:	13490b3b 	movtne	r0, #39739	; 0x9b3b
     e10:	00001702 	andeq	r1, r0, r2, lsl #14
     e14:	3f012e1c 	svccc	0x00012e1c
     e18:	3a0e0319 	bcc	381a84 <__bss_end__+0x37318c>
     e1c:	27053b0b 	strcs	r3, [r5, -fp, lsl #22]
     e20:	11134919 	tstne	r3, r9, lsl r9
     e24:	40061201 	andmi	r1, r6, r1, lsl #4
     e28:	19429718 	stmdbne	r2, {r3, r4, r8, r9, sl, ip, pc}^
     e2c:	00001301 	andeq	r1, r0, r1, lsl #6
     e30:	0300051d 	movweq	r0, #1309	; 0x51d
     e34:	3b0b3a0e 	blcc	2cf674 <__bss_end__+0x2c0d7c>
     e38:	02134905 	andseq	r4, r3, #81920	; 0x14000
     e3c:	1e000017 	mcrne	0, 0, r0, cr0, cr7, {0}
     e40:	193f012e 	ldmdbne	pc!, {r1, r2, r3, r5, r8}	; <UNPREDICTABLE>
     e44:	0b3a0e03 	bleq	e84658 <__bss_end__+0xe75d60>
     e48:	1927053b 	stmdbne	r7!, {r0, r1, r3, r4, r5, r8, sl}
     e4c:	06120111 			; <UNDEFINED> instruction: 0x06120111
     e50:	42971840 	addsmi	r1, r7, #64, 16	; 0x400000
     e54:	00130119 	andseq	r0, r3, r9, lsl r1
     e58:	00051f00 	andeq	r1, r5, r0, lsl #30
     e5c:	0b3a0803 	bleq	e82e70 <__bss_end__+0xe74578>
     e60:	1349053b 	movtne	r0, #38203	; 0x953b
     e64:	00001702 	andeq	r1, r0, r2, lsl #14
     e68:	03003420 	movweq	r3, #1056	; 0x420
     e6c:	3b0b3a0e 	blcc	2cf6ac <__bss_end__+0x2c0db4>
     e70:	02134905 	andseq	r4, r3, #81920	; 0x14000
     e74:	21000017 	tstcs	r0, r7, lsl r0
     e78:	0111010b 	tsteq	r1, fp, lsl #2
     e7c:	13010612 	movwne	r0, #5650	; 0x1612
     e80:	34220000 	strtcc	r0, [r2], #-0
     e84:	3a0e0300 	bcc	381a8c <__bss_end__+0x373194>
     e88:	490b3b0b 	stmdbmi	fp, {r0, r1, r3, r8, r9, fp, ip, sp}
     e8c:	02193f13 	andseq	r3, r9, #19, 30	; 0x4c
     e90:	23000018 	movwcs	r0, #24
     e94:	193f012e 	ldmdbne	pc!, {r1, r2, r3, r5, r8}	; <UNPREDICTABLE>
     e98:	0b3a0e03 	bleq	e846ac <__bss_end__+0xe75db4>
     e9c:	19270b3b 	stmdbne	r7!, {r0, r1, r3, r4, r5, r8, r9, fp}
     ea0:	193c1349 	ldmdbne	ip!, {r0, r3, r6, r8, r9, ip}
     ea4:	00001301 	andeq	r1, r0, r1, lsl #6
     ea8:	49000524 	stmdbmi	r0, {r2, r5, r8, sl}
     eac:	25000013 	strcs	r0, [r0, #-19]
     eb0:	13490026 	movtne	r0, #36902	; 0x9026
     eb4:	35260000 	strcc	r0, [r6, #-0]!
     eb8:	27000000 	strcs	r0, [r0, -r0]
     ebc:	193f012e 	ldmdbne	pc!, {r1, r2, r3, r5, r8}	; <UNPREDICTABLE>
     ec0:	0b3a0e03 	bleq	e846d4 <__bss_end__+0xe75ddc>
     ec4:	19270b3b 	stmdbne	r7!, {r0, r1, r3, r4, r5, r8, r9, fp}
     ec8:	1301193c 	movwne	r1, #6460	; 0x193c
     ecc:	2e280000 	cdpcs	0, 2, cr0, cr8, cr0, {0}
     ed0:	03193f00 	tsteq	r9, #0, 30
     ed4:	3b0b3a0e 	blcc	2cf714 <__bss_end__+0x2c0e1c>
     ed8:	3c19270b 	ldccc	7, cr2, [r9], {11}
     edc:	00000019 	andeq	r0, r0, r9, lsl r0
     ee0:	25011101 	strcs	r1, [r1, #-257]	; 0x101
     ee4:	030b130e 	movweq	r1, #45838	; 0xb30e
     ee8:	110e1b0e 	tstne	lr, lr, lsl #22
     eec:	10061201 	andne	r1, r6, r1, lsl #4
     ef0:	02000017 	andeq	r0, r0, #23
     ef4:	0b0b0024 	bleq	2c0f8c <__bss_end__+0x2b2694>
     ef8:	08030b3e 	stmdaeq	r3, {r1, r2, r3, r4, r5, r8, r9, fp}
     efc:	24030000 	strcs	r0, [r3], #-0
     f00:	3e0b0b00 	vmlacc.f64	d0, d11, d0
     f04:	000e030b 	andeq	r0, lr, fp, lsl #6
     f08:	00160400 	andseq	r0, r6, r0, lsl #8
     f0c:	0b3a0e03 	bleq	e84720 <__bss_end__+0xe75e28>
     f10:	13490b3b 	movtne	r0, #39739	; 0x9b3b
     f14:	0f050000 	svceq	0x00050000
     f18:	000b0b00 	andeq	r0, fp, r0, lsl #22
     f1c:	000f0600 	andeq	r0, pc, r0, lsl #12
     f20:	13490b0b 	movtne	r0, #39691	; 0x9b0b
     f24:	26070000 	strcs	r0, [r7], -r0
     f28:	00134900 	andseq	r4, r3, r0, lsl #18
     f2c:	01130800 	tsteq	r3, r0, lsl #16
     f30:	0b3a0b0b 	bleq	e83b64 <__bss_end__+0xe7526c>
     f34:	13010b3b 	movwne	r0, #6971	; 0x1b3b
     f38:	0d090000 	stceq	0, cr0, [r9, #-0]
     f3c:	3a080300 	bcc	201b44 <__bss_end__+0x1f324c>
     f40:	490b3b0b 	stmdbmi	fp, {r0, r1, r3, r8, r9, fp, ip, sp}
     f44:	000b3813 	andeq	r3, fp, r3, lsl r8
     f48:	000d0a00 	andeq	r0, sp, r0, lsl #20
     f4c:	0b3a0e03 	bleq	e84760 <__bss_end__+0xe75e68>
     f50:	13490b3b 	movtne	r0, #39739	; 0x9b3b
     f54:	00000b38 	andeq	r0, r0, r8, lsr fp
     f58:	0301130b 	movweq	r1, #4875	; 0x130b
     f5c:	3a0b0b0e 	bcc	2c3b9c <__bss_end__+0x2b52a4>
     f60:	010b3b0b 	tsteq	fp, fp, lsl #22
     f64:	0c000013 	stceq	0, cr0, [r0], {19}
     f68:	0e03000d 	cdpeq	0, 0, cr0, cr3, cr13, {0}
     f6c:	0b381349 	bleq	e05c98 <__bss_end__+0xdf73a0>
     f70:	00001934 	andeq	r1, r0, r4, lsr r9
     f74:	03012e0d 	movweq	r2, #7693	; 0x1e0d
     f78:	3b0b3a0e 	blcc	2cf7b8 <__bss_end__+0x2c0ec0>
     f7c:	2019270b 	andscs	r2, r9, fp, lsl #14
     f80:	0013010b 	andseq	r0, r3, fp, lsl #2
     f84:	00050e00 	andeq	r0, r5, r0, lsl #28
     f88:	0b3a0e03 	bleq	e8479c <__bss_end__+0xe75ea4>
     f8c:	13490b3b 	movtne	r0, #39739	; 0x9b3b
     f90:	050f0000 	streq	r0, [pc, #-0]	; f98 <_start-0x7068>
     f94:	3a080300 	bcc	201b9c <__bss_end__+0x1f32a4>
     f98:	490b3b0b 	stmdbmi	fp, {r0, r1, r3, r8, r9, fp, ip, sp}
     f9c:	10000013 	andne	r0, r0, r3, lsl r0
     fa0:	0000010b 	andeq	r0, r0, fp, lsl #2
     fa4:	03003411 	movweq	r3, #1041	; 0x411
     fa8:	3b0b3a0e 	blcc	2cf7e8 <__bss_end__+0x2c0ef0>
     fac:	0013490b 	andseq	r4, r3, fp, lsl #18
     fb0:	012e1200 	teqeq	lr, r0, lsl #4
     fb4:	0e03193f 	mcreq	9, 0, r1, cr3, cr15, {1}
     fb8:	0b3b0b3a 	bleq	ec3ca8 <__bss_end__+0xeb53b0>
     fbc:	01111927 	tsteq	r1, r7, lsr #18
     fc0:	18400612 	stmdane	r0, {r1, r4, r9, sl}^
     fc4:	01194297 			; <UNDEFINED> instruction: 0x01194297
     fc8:	13000013 	movwne	r0, #19
     fcc:	0e030005 	cdpeq	0, 0, cr0, cr3, cr5, {0}
     fd0:	0b3b0b3a 	bleq	ec3cc0 <__bss_end__+0xeb53c8>
     fd4:	17021349 	strne	r1, [r2, -r9, asr #6]
     fd8:	05140000 	ldreq	r0, [r4, #-0]
     fdc:	3a080300 	bcc	201be4 <__bss_end__+0x1f32ec>
     fe0:	490b3b0b 	stmdbmi	fp, {r0, r1, r3, r8, r9, fp, ip, sp}
     fe4:	00170213 	andseq	r0, r7, r3, lsl r2
     fe8:	00341500 	eorseq	r1, r4, r0, lsl #10
     fec:	0b3a0803 	bleq	e83000 <__bss_end__+0xe74708>
     ff0:	13490b3b 	movtne	r0, #39739	; 0x9b3b
     ff4:	00001802 	andeq	r1, r0, r2, lsl #16
     ff8:	03003416 	movweq	r3, #1046	; 0x416
     ffc:	3b0b3a08 	blcc	2cf824 <__bss_end__+0x2c0f2c>
    1000:	0213490b 	andseq	r4, r3, #180224	; 0x2c000
    1004:	17000017 	smladne	r0, r7, r0, r0
    1008:	0111010b 	tsteq	r1, fp, lsl #2
    100c:	13010612 	movwne	r0, #5650	; 0x1612
    1010:	34180000 	ldrcc	r0, [r8], #-0
    1014:	3a0e0300 	bcc	381c1c <__bss_end__+0x373324>
    1018:	490b3b0b 	stmdbmi	fp, {r0, r1, r3, r8, r9, fp, ip, sp}
    101c:	00180213 	andseq	r0, r8, r3, lsl r2
    1020:	011d1900 	tsteq	sp, r0, lsl #18
    1024:	01111331 	tsteq	r1, r1, lsr r3
    1028:	0b580612 	bleq	1602878 <__bss_end__+0x15f3f80>
    102c:	13010b59 	movwne	r0, #7001	; 0x1b59
    1030:	051a0000 	ldreq	r0, [sl, #-0]
    1034:	02133100 	andseq	r3, r3, #0, 2
    1038:	1b000017 	blne	109c <_start-0x6f64>
    103c:	13310005 	teqne	r1, #5
    1040:	00001802 	andeq	r1, r0, r2, lsl #16
    1044:	3100051c 	tstcc	r0, ip, lsl r5
    1048:	000b1c13 	andeq	r1, fp, r3, lsl ip
    104c:	010b1d00 	tsteq	fp, r0, lsl #26
    1050:	06120111 			; <UNDEFINED> instruction: 0x06120111
    1054:	341e0000 	ldrcc	r0, [lr], #-0
    1058:	02133100 	andseq	r3, r3, #0, 2
    105c:	1f000017 	svcne	0x00000017
    1060:	01018289 	smlabbeq	r1, r9, r2, r8
    1064:	13310111 	teqne	r1, #1073741828	; 0x40000004
    1068:	8a200000 	bhi	801070 <__bss_end__+0x7f2778>
    106c:	02000182 	andeq	r0, r0, #-2147483616	; 0x80000020
    1070:	18429118 	stmdane	r2, {r3, r4, r8, ip, pc}^
    1074:	1d210000 	stcne	0, cr0, [r1, #-0]
    1078:	11133101 	tstne	r3, r1, lsl #2
    107c:	58061201 	stmdapl	r6, {r0, r9, ip}
    1080:	000b590b 	andeq	r5, fp, fp, lsl #18
    1084:	012e2200 	teqeq	lr, r0, lsl #4
    1088:	0b3a0e03 	bleq	e8489c <__bss_end__+0xe75fa4>
    108c:	19270b3b 	stmdbne	r7!, {r0, r1, r3, r4, r5, r8, r9, fp}
    1090:	0b201349 	bleq	805dbc <__bss_end__+0x7f74c4>
    1094:	00001301 	andeq	r1, r0, r1, lsl #6
    1098:	3f012e23 	svccc	0x00012e23
    109c:	3a0e0319 	bcc	381d08 <__bss_end__+0x373410>
    10a0:	270b3b0b 	strcs	r3, [fp, -fp, lsl #22]
    10a4:	11134919 	tstne	r3, r9, lsl r9
    10a8:	40061201 	andmi	r1, r6, r1, lsl #4
    10ac:	19429718 	stmdbne	r2, {r3, r4, r8, r9, sl, ip, pc}^
    10b0:	00001301 	andeq	r1, r0, r1, lsl #6
    10b4:	01828924 	orreq	r8, r2, r4, lsr #18
    10b8:	31011100 	mrscc	r1, (UNDEF: 17)
    10bc:	25000013 	strcs	r0, [r0, #-19]
    10c0:	01018289 	smlabbeq	r1, r9, r2, r8
    10c4:	13310111 	teqne	r1, #1073741828	; 0x40000004
    10c8:	00001301 	andeq	r1, r0, r1, lsl #6
    10cc:	03003426 	movweq	r3, #1062	; 0x426
    10d0:	3b0b3a0e 	blcc	2cf910 <__bss_end__+0x2c1018>
    10d4:	0213490b 	andseq	r4, r3, #180224	; 0x2c000
    10d8:	27000017 	smladcs	r0, r7, r0, r0
    10dc:	13310005 	teqne	r1, #5
    10e0:	05280000 	streq	r0, [r8, #-0]!
    10e4:	3a0e0300 	bcc	381cec <__bss_end__+0x3733f4>
    10e8:	490b3b0b 	stmdbmi	fp, {r0, r1, r3, r8, r9, fp, ip, sp}
    10ec:	00180213 	andseq	r0, r8, r3, lsl r2
    10f0:	00342900 	eorseq	r2, r4, r0, lsl #18
    10f4:	13490e03 	movtne	r0, #40451	; 0x9e03
    10f8:	18021934 	stmdane	r2, {r2, r4, r5, r8, fp, ip}
    10fc:	012a0000 	teqeq	sl, r0
    1100:	01134901 	tsteq	r3, r1, lsl #18
    1104:	2b000013 	blcs	1158 <_start-0x6ea8>
    1108:	13490021 	movtne	r0, #36897	; 0x9021
    110c:	00000b2f 	andeq	r0, r0, pc, lsr #22
    1110:	0300342c 	movweq	r3, #1068	; 0x42c
    1114:	3b0b3a08 	blcc	2cf93c <__bss_end__+0x2c1044>
    1118:	1c13490b 	ldcne	9, cr4, [r3], {11}
    111c:	2d000006 	stccs	0, cr0, [r0, #-24]	; 0xffffffe8
    1120:	08030034 	stmdaeq	r3, {r2, r4, r5}
    1124:	0b3b0b3a 	bleq	ec3e14 <__bss_end__+0xeb551c>
    1128:	0b1c1349 	bleq	705e54 <__bss_end__+0x6f755c>
    112c:	052e0000 	streq	r0, [lr, #-0]!
    1130:	3a080300 	bcc	201d38 <__bss_end__+0x1f3440>
    1134:	490b3b0b 	stmdbmi	fp, {r0, r1, r3, r8, r9, fp, ip, sp}
    1138:	00180213 	andseq	r0, r8, r3, lsl r2
    113c:	00182f00 	andseq	r2, r8, r0, lsl #30
    1140:	21300000 	teqcs	r0, r0
    1144:	2f134900 	svccs	0x00134900
    1148:	31000005 	tstcc	r0, r5
    114c:	193f012e 	ldmdbne	pc!, {r1, r2, r3, r5, r8}	; <UNPREDICTABLE>
    1150:	0b3a0e03 	bleq	e84964 <__bss_end__+0xe7606c>
    1154:	19270b3b 	stmdbne	r7!, {r0, r1, r3, r4, r5, r8, r9, fp}
    1158:	1301193c 	movwne	r1, #6460	; 0x193c
    115c:	05320000 	ldreq	r0, [r2, #-0]!
    1160:	00134900 	andseq	r4, r3, r0, lsl #18
    1164:	002e3300 	eoreq	r3, lr, r0, lsl #6
    1168:	0e03193f 	mcreq	9, 0, r1, cr3, cr15, {1}
    116c:	0b3b0b3a 	bleq	ec3e5c <__bss_end__+0xeb5564>
    1170:	13491927 	movtne	r1, #39207	; 0x9927
    1174:	0000193c 	andeq	r1, r0, ip, lsr r9
    1178:	3f012e34 	svccc	0x00012e34
    117c:	3a0e0319 	bcc	381de8 <__bss_end__+0x3734f0>
    1180:	270b3b0b 	strcs	r3, [fp, -fp, lsl #22]
    1184:	3c134919 	ldccc	9, cr4, [r3], {25}
    1188:	00130119 	andseq	r0, r3, r9, lsl r1
    118c:	002e3500 	eoreq	r3, lr, r0, lsl #10
    1190:	0e03193f 	mcreq	9, 0, r1, cr3, cr15, {1}
    1194:	0b3b0b3a 	bleq	ec3e84 <__bss_end__+0xeb558c>
    1198:	193c1927 	ldmdbne	ip!, {r0, r1, r2, r5, r8, fp, ip}
    119c:	2e360000 	cdpcs	0, 3, cr0, cr6, cr0, {0}
    11a0:	03193f01 	tsteq	r9, #1, 30
    11a4:	3b0b3a0e 	blcc	2cf9e4 <__bss_end__+0x2c10ec>
    11a8:	4919270b 	ldmdbmi	r9, {r0, r1, r3, r8, r9, sl, sp}
    11ac:	00193c13 	andseq	r3, r9, r3, lsl ip
    11b0:	11010000 	mrsne	r0, (UNDEF: 1)
    11b4:	130e2501 	movwne	r2, #58625	; 0xe501
    11b8:	1b0e030b 	blne	381dec <__bss_end__+0x3734f4>
    11bc:	1201110e 	andne	r1, r1, #-2147483645	; 0x80000003
    11c0:	00171006 	andseq	r1, r7, r6
    11c4:	00240200 	eoreq	r0, r4, r0, lsl #4
    11c8:	0b3e0b0b 	bleq	f83dfc <__bss_end__+0xf75504>
    11cc:	00000803 	andeq	r0, r0, r3, lsl #16
    11d0:	0b002403 	bleq	a1e4 <__FUNCTION__.4236+0xe4>
    11d4:	030b3e0b 	movweq	r3, #48651	; 0xbe0b
    11d8:	0400000e 	streq	r0, [r0], #-14
    11dc:	0b0b0104 	bleq	2c15f4 <__bss_end__+0x2b2cfc>
    11e0:	0b3b0b3a 	bleq	ec3ed0 <__bss_end__+0xeb55d8>
    11e4:	00001301 	andeq	r1, r0, r1, lsl #6
    11e8:	03002805 	movweq	r2, #2053	; 0x805
    11ec:	000d1c0e 	andeq	r1, sp, lr, lsl #24
    11f0:	00160600 	andseq	r0, r6, r0, lsl #12
    11f4:	0b3a0e03 	bleq	e84a08 <__bss_end__+0xe76110>
    11f8:	13490b3b 	movtne	r0, #39739	; 0x9b3b
    11fc:	2e070000 	cdpcs	0, 0, cr0, cr7, cr0, {0}
    1200:	03193f01 	tsteq	r9, #1, 30
    1204:	3b0b3a0e 	blcc	2cfa44 <__bss_end__+0x2c114c>
    1208:	1119270b 	tstne	r9, fp, lsl #14
    120c:	40061201 	andmi	r1, r6, r1, lsl #4
    1210:	19429718 	stmdbne	r2, {r3, r4, r8, r9, sl, ip, pc}^
    1214:	00001301 	andeq	r1, r0, r1, lsl #6
    1218:	01828908 	orreq	r8, r2, r8, lsl #18
    121c:	31011100 	mrscc	r1, (UNDEF: 17)
    1220:	09000013 	stmdbeq	r0, {r0, r1, r4}
    1224:	01018289 	smlabbeq	r1, r9, r2, r8
    1228:	13310111 	teqne	r1, #1073741828	; 0x40000004
    122c:	00001301 	andeq	r1, r0, r1, lsl #6
    1230:	01828a0a 	orreq	r8, r2, sl, lsl #20
    1234:	91180200 	tstls	r8, r0, lsl #4
    1238:	00001842 	andeq	r1, r0, r2, asr #16
    123c:	3f012e0b 	svccc	0x00012e0b
    1240:	3a0e0319 	bcc	381eac <__bss_end__+0x3735b4>
    1244:	270b3b0b 	strcs	r3, [fp, -fp, lsl #22]
    1248:	11134919 	tstne	r3, r9, lsl r9
    124c:	40061201 	andmi	r1, r6, r1, lsl #4
    1250:	19429718 	stmdbne	r2, {r3, r4, r8, r9, sl, ip, pc}^
    1254:	00001301 	andeq	r1, r0, r1, lsl #6
    1258:	0300050c 	movweq	r0, #1292	; 0x50c
    125c:	3b0b3a08 	blcc	2cfa84 <__bss_end__+0x2c118c>
    1260:	0213490b 	andseq	r4, r3, #180224	; 0x2c000
    1264:	0d000017 	stceq	0, cr0, [r0, #-92]	; 0xffffffa4
    1268:	01018289 	smlabbeq	r1, r9, r2, r8
    126c:	13310111 	teqne	r1, #1073741828	; 0x40000004
    1270:	340e0000 	strcc	r0, [lr], #-0
    1274:	3a0e0300 	bcc	381e7c <__bss_end__+0x373584>
    1278:	490b3b0b 	stmdbmi	fp, {r0, r1, r3, r8, r9, fp, ip, sp}
    127c:	02193f13 	andseq	r3, r9, #19, 30	; 0x4c
    1280:	0f000018 	svceq	0x00000018
    1284:	0b0b000f 	bleq	2c12c8 <__bss_end__+0x2b29d0>
    1288:	00001349 	andeq	r1, r0, r9, asr #6
    128c:	49003510 	stmdbmi	r0, {r4, r8, sl, ip, sp}
    1290:	11000013 	tstne	r0, r3, lsl r0
    1294:	193f002e 	ldmdbne	pc!, {r1, r2, r3, r5}	; <UNPREDICTABLE>
    1298:	0b3a0e03 	bleq	e84aac <__bss_end__+0xe761b4>
    129c:	19270b3b 	stmdbne	r7!, {r0, r1, r3, r4, r5, r8, r9, fp}
    12a0:	0000193c 	andeq	r1, r0, ip, lsr r9
    12a4:	3f012e12 	svccc	0x00012e12
    12a8:	3a0e0319 	bcc	381f14 <__bss_end__+0x37361c>
    12ac:	270b3b0b 	strcs	r3, [fp, -fp, lsl #22]
    12b0:	01193c19 	tsteq	r9, r9, lsl ip
    12b4:	13000013 	movwne	r0, #19
    12b8:	13490005 	movtne	r0, #36869	; 0x9005
    12bc:	2e140000 	cdpcs	0, 1, cr0, cr4, cr0, {0}
    12c0:	03193f01 	tsteq	r9, #1, 30
    12c4:	3b0b3a0e 	blcc	2cfb04 <__bss_end__+0x2c120c>
    12c8:	4919270b 	ldmdbmi	r9, {r0, r1, r3, r8, r9, sl, sp}
    12cc:	01193c13 	tsteq	r9, r3, lsl ip
    12d0:	15000013 	strne	r0, [r0, #-19]
    12d4:	13490026 	movtne	r0, #36902	; 0x9026
    12d8:	35160000 	ldrcc	r0, [r6, #-0]
    12dc:	00000000 	andeq	r0, r0, r0
    12e0:	25011101 	strcs	r1, [r1, #-257]	; 0x101
    12e4:	030b130e 	movweq	r1, #45838	; 0xb30e
    12e8:	110e1b0e 	tstne	lr, lr, lsl #22
    12ec:	10061201 	andne	r1, r6, r1, lsl #4
    12f0:	02000017 	andeq	r0, r0, #23
    12f4:	0b0b0024 	bleq	2c138c <__bss_end__+0x2b2a94>
    12f8:	08030b3e 	stmdaeq	r3, {r1, r2, r3, r4, r5, r8, r9, fp}
    12fc:	24030000 	strcs	r0, [r3], #-0
    1300:	3e0b0b00 	vmlacc.f64	d0, d11, d0
    1304:	000e030b 	andeq	r0, lr, fp, lsl #6
    1308:	000f0400 	andeq	r0, pc, r0, lsl #8
    130c:	13490b0b 	movtne	r0, #39691	; 0x9b0b
    1310:	26050000 	strcs	r0, [r5], -r0
    1314:	00134900 	andseq	r4, r3, r0, lsl #18
    1318:	01010600 	tsteq	r1, r0, lsl #12
    131c:	13011349 	movwne	r1, #4937	; 0x1349
    1320:	21070000 	mrscs	r0, (UNDEF: 7)
    1324:	2f134900 	svccs	0x00134900
    1328:	0800000b 	stmdaeq	r0, {r0, r1, r3}
    132c:	0b0b0104 	bleq	2c1744 <__bss_end__+0x2b2e4c>
    1330:	0b3b0b3a 	bleq	ec4020 <__bss_end__+0xeb5728>
    1334:	00001301 	andeq	r1, r0, r1, lsl #6
    1338:	03002809 	movweq	r2, #2057	; 0x809
    133c:	000d1c0e 	andeq	r1, sp, lr, lsl #24
    1340:	012e0a00 	teqeq	lr, r0, lsl #20
    1344:	0e03193f 	mcreq	9, 0, r1, cr3, cr15, {1}
    1348:	0b3b0b3a 	bleq	ec4038 <__bss_end__+0xeb5740>
    134c:	01111927 	tsteq	r1, r7, lsr #18
    1350:	18400612 	stmdane	r0, {r1, r4, r9, sl}^
    1354:	01194297 			; <UNDEFINED> instruction: 0x01194297
    1358:	0b000013 	bleq	13ac <_start-0x6c54>
    135c:	0e030034 	mcreq	0, 0, r0, cr3, cr4, {1}
    1360:	0b3b0b3a 	bleq	ec4050 <__bss_end__+0xeb5758>
    1364:	193f1349 	ldmdbne	pc!, {r0, r3, r6, r8, r9, ip}	; <UNPREDICTABLE>
    1368:	0000193c 	andeq	r1, r0, ip, lsr r9
    136c:	0300340c 	movweq	r3, #1036	; 0x40c
    1370:	3b0b3a08 	blcc	2cfb98 <__bss_end__+0x2c12a0>
    1374:	1c13490b 	ldcne	9, cr4, [r3], {11}
    1378:	0d00000b 	stceq	0, cr0, [r0, #-44]	; 0xffffffd4
    137c:	08030034 	stmdaeq	r3, {r2, r4, r5}
    1380:	0b3b0b3a 	bleq	ec4070 <__bss_end__+0xeb5778>
    1384:	00001349 	andeq	r1, r0, r9, asr #6
    1388:	0300340e 	movweq	r3, #1038	; 0x40e
    138c:	3b0b3a08 	blcc	2cfbb4 <__bss_end__+0x2c12bc>
    1390:	0213490b 	andseq	r4, r3, #180224	; 0x2c000
    1394:	0f000018 	svceq	0x00000018
    1398:	0111010b 	tsteq	r1, fp, lsl #2
    139c:	13010612 	movwne	r0, #5650	; 0x1612
    13a0:	34100000 	ldrcc	r0, [r0], #-0
    13a4:	3a080300 	bcc	201fac <__bss_end__+0x1f36b4>
    13a8:	490b3b0b 	stmdbmi	fp, {r0, r1, r3, r8, r9, fp, ip, sp}
    13ac:	00170213 	andseq	r0, r7, r3, lsl r2
    13b0:	82891100 	addhi	r1, r9, #0, 2
    13b4:	01110101 	tsteq	r1, r1, lsl #2
    13b8:	13011331 	movwne	r1, #4913	; 0x1331
    13bc:	8a120000 	bhi	4813c4 <__bss_end__+0x472acc>
    13c0:	02000182 	andeq	r0, r0, #-2147483616	; 0x80000020
    13c4:	18429118 	stmdane	r2, {r3, r4, r8, ip, pc}^
    13c8:	89130000 	ldmdbhi	r3, {}	; <UNPREDICTABLE>
    13cc:	11000182 	smlabbne	r0, r2, r1, r0
    13d0:	00133101 	andseq	r3, r3, r1, lsl #2
    13d4:	00051400 	andeq	r1, r5, r0, lsl #8
    13d8:	0b3a0803 	bleq	e833ec <__bss_end__+0xe74af4>
    13dc:	13490b3b 	movtne	r0, #39739	; 0x9b3b
    13e0:	00001702 	andeq	r1, r0, r2, lsl #14
    13e4:	03003415 	movweq	r3, #1045	; 0x415
    13e8:	3413490e 	ldrcc	r4, [r3], #-2318	; 0x90e
    13ec:	00180219 	andseq	r0, r8, r9, lsl r2
    13f0:	012e1600 	teqeq	lr, r0, lsl #12
    13f4:	0e03193f 	mcreq	9, 0, r1, cr3, cr15, {1}
    13f8:	0b3b0b3a 	bleq	ec40e8 <__bss_end__+0xeb57f0>
    13fc:	193c1927 	ldmdbne	ip!, {r0, r1, r2, r5, r8, fp, ip}
    1400:	00001301 	andeq	r1, r0, r1, lsl #6
    1404:	49000517 	stmdbmi	r0, {r0, r1, r2, r4, r8, sl}
    1408:	18000013 	stmdane	r0, {r0, r1, r4}
    140c:	193f002e 	ldmdbne	pc!, {r1, r2, r3, r5}	; <UNPREDICTABLE>
    1410:	0b3a0e03 	bleq	e84c24 <__bss_end__+0xe7632c>
    1414:	19270b3b 	stmdbne	r7!, {r0, r1, r3, r4, r5, r8, r9, fp}
    1418:	0000193c 	andeq	r1, r0, ip, lsr r9
    141c:	3f012e19 	svccc	0x00012e19
    1420:	3a0e0319 	bcc	38208c <__bss_end__+0x373794>
    1424:	270b3b0b 	strcs	r3, [fp, -fp, lsl #22]
    1428:	3c134919 	ldccc	9, cr4, [r3], {25}
    142c:	00130119 	andseq	r0, r3, r9, lsl r1
    1430:	00181a00 	andseq	r1, r8, r0, lsl #20
    1434:	01000000 	mrseq	r0, (UNDEF: 0)
    1438:	0e250111 	mcreq	1, 1, r0, cr5, cr1, {0}
    143c:	0e030b13 	vmoveq.32	d3[0], r0
    1440:	01110e1b 	tsteq	r1, fp, lsl lr
    1444:	17100612 			; <UNDEFINED> instruction: 0x17100612
    1448:	24020000 	strcs	r0, [r2], #-0
    144c:	3e0b0b00 	vmlacc.f64	d0, d11, d0
    1450:	0008030b 	andeq	r0, r8, fp, lsl #6
    1454:	00160300 	andseq	r0, r6, r0, lsl #6
    1458:	0b3a0e03 	bleq	e84c6c <__bss_end__+0xe76374>
    145c:	13490b3b 	movtne	r0, #39739	; 0x9b3b
    1460:	24040000 	strcs	r0, [r4], #-0
    1464:	3e0b0b00 	vmlacc.f64	d0, d11, d0
    1468:	000e030b 	andeq	r0, lr, fp, lsl #6
    146c:	000f0500 	andeq	r0, pc, r0, lsl #10
    1470:	00000b0b 	andeq	r0, r0, fp, lsl #22
    1474:	0b011306 	bleq	46094 <__bss_end__+0x3779c>
    1478:	3b0b3a0b 	blcc	2cfcac <__bss_end__+0x2c13b4>
    147c:	0013010b 	andseq	r0, r3, fp, lsl #2
    1480:	000d0700 	andeq	r0, sp, r0, lsl #14
    1484:	0b3a0803 	bleq	e83498 <__bss_end__+0xe74ba0>
    1488:	13490b3b 	movtne	r0, #39739	; 0x9b3b
    148c:	00000b38 	andeq	r0, r0, r8, lsr fp
    1490:	03000d08 	movweq	r0, #3336	; 0xd08
    1494:	3b0b3a0e 	blcc	2cfcd4 <__bss_end__+0x2c13dc>
    1498:	3813490b 	ldmdacc	r3, {r0, r1, r3, r8, fp, lr}
    149c:	0900000b 	stmdbeq	r0, {r0, r1, r3}
    14a0:	0b0b0104 	bleq	2c18b8 <__bss_end__+0x2b2fc0>
    14a4:	0b3b0b3a 	bleq	ec4194 <__bss_end__+0xeb589c>
    14a8:	00001301 	andeq	r1, r0, r1, lsl #6
    14ac:	0300280a 	movweq	r2, #2058	; 0x80a
    14b0:	000d1c0e 	andeq	r1, sp, lr, lsl #24
    14b4:	012e0b00 	teqeq	lr, r0, lsl #22
    14b8:	0e03193f 	mcreq	9, 0, r1, cr3, cr15, {1}
    14bc:	0b3b0b3a 	bleq	ec41ac <__bss_end__+0xeb58b4>
    14c0:	13491927 	movtne	r1, #39207	; 0x9927
    14c4:	06120111 			; <UNDEFINED> instruction: 0x06120111
    14c8:	42971840 	addsmi	r1, r7, #64, 16	; 0x400000
    14cc:	00130119 	andseq	r0, r3, r9, lsl r1
    14d0:	00340c00 	eorseq	r0, r4, r0, lsl #24
    14d4:	0b3a0803 	bleq	e834e8 <__bss_end__+0xe74bf0>
    14d8:	13490b3b 	movtne	r0, #39739	; 0x9b3b
    14dc:	0000061c 	andeq	r0, r0, ip, lsl r6
    14e0:	0182890d 	orreq	r8, r2, sp, lsl #18
    14e4:	31011101 	tstcc	r1, r1, lsl #2
    14e8:	0e000013 	mcreq	0, 0, r0, cr0, cr3, {0}
    14ec:	0001828a 	andeq	r8, r1, sl, lsl #5
    14f0:	42911802 	addsmi	r1, r1, #131072	; 0x20000
    14f4:	0f000018 	svceq	0x00000018
    14f8:	0b0b000f 	bleq	2c153c <__bss_end__+0x2b2c44>
    14fc:	00001349 	andeq	r1, r0, r9, asr #6
    1500:	3f012e10 	svccc	0x00012e10
    1504:	3a0e0319 	bcc	382170 <__bss_end__+0x373878>
    1508:	270b3b0b 	strcs	r3, [fp, -fp, lsl #22]
    150c:	3c134919 	ldccc	9, cr4, [r3], {25}
    1510:	11000019 	tstne	r0, r9, lsl r0
    1514:	13490005 	movtne	r0, #36869	; 0x9005
    1518:	Address 0x0000000000001518 is out of bounds.


Disassembly of section .debug_loc:

00000000 <.debug_loc>:
       0:	00000000 	andeq	r0, r0, r0
       4:	00000017 	andeq	r0, r0, r7, lsl r0
       8:	17500001 	ldrbne	r0, [r0, -r1]
       c:	b4000000 	strlt	r0, [r0], #-0
      10:	01000001 	tsteq	r0, r1
      14:	00005400 	andeq	r5, r0, r0, lsl #8
	...
      20:	00100000 	andseq	r0, r0, r0
      24:	00010000 	andeq	r0, r1, r0
      28:	00001051 	andeq	r1, r0, r1, asr r0
      2c:	00004c00 	andeq	r4, r0, r0, lsl #24
      30:	55000100 	strpl	r0, [r0, #-256]	; 0x100
      34:	0000004c 	andeq	r0, r0, ip, asr #32
      38:	000001b4 			; <UNDEFINED> instruction: 0x000001b4
      3c:	01f30004 	mvnseq	r0, r4
      40:	00009f51 	andeq	r9, r0, r1, asr pc
      44:	00000000 	andeq	r0, r0, r0
      48:	00f80000 	rscseq	r0, r8, r0
      4c:	01200000 	teqeq	r0, r0
      50:	00020000 	andeq	r0, r2, r0
      54:	01209f42 	teqeq	r0, r2, asr #30
      58:	01380000 	teqeq	r8, r0
      5c:	00010000 	andeq	r0, r1, r0
      60:	00013851 	andeq	r3, r1, r1, asr r8
      64:	00014000 	andeq	r4, r1, r0
      68:	42000200 	andmi	r0, r0, #0, 4
      6c:	0001409f 	muleq	r1, pc, r0	; <UNPREDICTABLE>
      70:	00016b00 	andeq	r6, r1, r0, lsl #22
      74:	51000100 	mrspl	r0, (UNDEF: 16)
	...
      80:	00000118 	andeq	r0, r0, r8, lsl r1
      84:	00000124 	andeq	r0, r0, r4, lsr #2
      88:	24520001 	ldrbcs	r0, [r2], #-1
      8c:	28000001 	stmdacs	r0, {r0}
      90:	03000001 	movweq	r0, #1
      94:	9f7f7200 	svcls	0x007f7200
	...
      a0:	000001dc 	ldrdeq	r0, [r0], -ip
      a4:	000001e7 	andeq	r0, r0, r7, ror #3
      a8:	e7500001 	ldrb	r0, [r0, -r1]
      ac:	0c000001 	stceq	0, cr0, [r0], {1}
      b0:	01000002 	tsteq	r0, r2
      b4:	020c5400 	andeq	r5, ip, #0, 8
      b8:	02300000 	eorseq	r0, r0, #0
      bc:	00040000 	andeq	r0, r4, r0
      c0:	9f5001f3 	svcls	0x005001f3
	...
      cc:	000001f0 	strdeq	r0, [r0], -r0	; <UNPREDICTABLE>
      d0:	000001f4 	strdeq	r0, [r0], -r4
      d4:	f4500001 			; <UNDEFINED> instruction: 0xf4500001
      d8:	03000001 	movweq	r0, #1
      dc:	01000002 	tsteq	r0, r2
      e0:	02085100 	andeq	r5, r8, #0, 2
      e4:	02140000 	andseq	r0, r4, #0
      e8:	00010000 	andeq	r0, r1, r0
      ec:	00000051 	andeq	r0, r0, r1, asr r0
      f0:	00000000 	andeq	r0, r0, r0
      f4:	00023000 	andeq	r3, r2, r0
      f8:	00023800 	andeq	r3, r2, r0, lsl #16
      fc:	50000100 	andpl	r0, r0, r0, lsl #2
     100:	00000238 	andeq	r0, r0, r8, lsr r2
     104:	00000378 	andeq	r0, r0, r8, ror r3
     108:	01f30004 	mvnseq	r0, r4
     10c:	00009f50 	andeq	r9, r0, r0, asr pc
     110:	00000000 	andeq	r0, r0, r0
     114:	023c0000 	eorseq	r0, ip, #0
     118:	02480000 	subeq	r0, r8, #0
     11c:	00010000 	andeq	r0, r1, r0
     120:	00028450 	andeq	r8, r2, r0, asr r4
     124:	00029000 	andeq	r9, r2, r0
     128:	50000100 	andpl	r0, r0, r0, lsl #2
     12c:	000002b8 			; <UNDEFINED> instruction: 0x000002b8
     130:	000002c4 	andeq	r0, r0, r4, asr #5
     134:	d0500001 	subsle	r0, r0, r1
     138:	e4000002 	str	r0, [r0], #-2
     13c:	01000002 	tsteq	r0, r2
     140:	00005000 	andeq	r5, r0, r0
     144:	00000000 	andeq	r0, r0, r0
     148:	024c0000 	subeq	r0, ip, #0
     14c:	02500000 	subseq	r0, r0, #0
     150:	00010000 	andeq	r0, r1, r0
     154:	00000050 	andeq	r0, r0, r0, asr r0
     158:	00000000 	andeq	r0, r0, r0
     15c:	00025000 	andeq	r5, r2, r0
     160:	00028400 	andeq	r8, r2, r0, lsl #8
     164:	50000100 	andpl	r0, r0, r0, lsl #2
	...
     170:	00000250 	andeq	r0, r0, r0, asr r2
     174:	00000284 	andeq	r0, r0, r4, lsl #5
     178:	b8030006 	stmdalt	r3, {r1, r2}
     17c:	9f0000a4 	svcls	0x000000a4
	...
     188:	00000254 	andeq	r0, r0, r4, asr r2
     18c:	00000284 	andeq	r0, r0, r4, lsl #5
     190:	00510001 	subseq	r0, r1, r1
     194:	00000000 	andeq	r0, r0, r0
     198:	54000000 	strpl	r0, [r0], #-0
     19c:	84000002 	strhi	r0, [r0], #-2
     1a0:	06000002 	streq	r0, [r0], -r2
     1a4:	a4b80300 	ldrtge	r0, [r8], #768	; 0x300
     1a8:	009f0000 	addseq	r0, pc, r0
     1ac:	00000000 	andeq	r0, r0, r0
     1b0:	48000000 	stmdami	r0, {}	; <UNPREDICTABLE>
     1b4:	84000002 	strhi	r0, [r0], #-2
     1b8:	06000002 	streq	r0, [r0], -r2
     1bc:	a4b80300 	ldrtge	r0, [r8], #768	; 0x300
     1c0:	909f0000 	addsls	r0, pc, r0
     1c4:	b8000002 	stmdalt	r0, {r1}
     1c8:	06000002 	streq	r0, [r0], -r2
     1cc:	a4b80300 	ldrtge	r0, [r8], #768	; 0x300
     1d0:	009f0000 	addseq	r0, pc, r0
     1d4:	00000000 	andeq	r0, r0, r0
     1d8:	c4000000 	strgt	r0, [r0], #-0
     1dc:	d0000002 	andle	r0, r0, r2
     1e0:	06000002 	streq	r0, [r0], -r2
     1e4:	c4cc0300 	strbgt	r0, [ip], #768	; 0x300
     1e8:	f09f0000 			; <UNDEFINED> instruction: 0xf09f0000
     1ec:	34000002 	strcc	r0, [r0], #-2
     1f0:	06000003 	streq	r0, [r0], -r3
     1f4:	c4cc0300 	strbgt	r0, [ip], #768	; 0x300
     1f8:	009f0000 	addseq	r0, pc, r0
     1fc:	00000000 	andeq	r0, r0, r0
     200:	c4000000 	strgt	r0, [r0], #-0
     204:	d0000002 	andle	r0, r0, r2
     208:	06000002 	streq	r0, [r0], -r2
     20c:	c4d00300 	ldrbgt	r0, [r0], #768	; 0x300
     210:	f09f0000 			; <UNDEFINED> instruction: 0xf09f0000
     214:	34000002 	strcc	r0, [r0], #-2
     218:	06000003 	streq	r0, [r0], -r3
     21c:	c4d00300 	ldrbgt	r0, [r0], #768	; 0x300
     220:	009f0000 	addseq	r0, pc, r0
     224:	00000000 	andeq	r0, r0, r0
     228:	04000000 	streq	r0, [r0], #-0
     22c:	14000003 	strne	r0, [r0], #-3
     230:	01000003 	tsteq	r0, r3
     234:	03145300 	tsteq	r4, #0, 6
     238:	03200000 	teqeq	r0, #0
     23c:	00050000 	andeq	r0, r5, r0
     240:	00e4d803 	rsceq	sp, r4, r3, lsl #16
	...
     24c:	00037800 	andeq	r7, r3, r0, lsl #16
     250:	00038300 	andeq	r8, r3, r0, lsl #6
     254:	50000100 	andpl	r0, r0, r0, lsl #2
     258:	00000383 	andeq	r0, r0, r3, lsl #7
     25c:	00000458 	andeq	r0, r0, r8, asr r4
     260:	01f30004 	mvnseq	r0, r4
     264:	00009f50 	andeq	r9, r0, r0, asr pc
     268:	00000000 	andeq	r0, r0, r0
     26c:	03ec0000 	mvneq	r0, #0
     270:	041c0000 	ldreq	r0, [ip], #-0
     274:	00010000 	andeq	r0, r1, r0
     278:	00042056 	andeq	r2, r4, r6, asr r0
     27c:	00044400 	andeq	r4, r4, r0, lsl #8
     280:	56000100 	strpl	r0, [r0], -r0, lsl #2
	...
     28c:	00000384 	andeq	r0, r0, r4, lsl #7
     290:	000003d8 	ldrdeq	r0, [r0], -r8
     294:	00540001 	subseq	r0, r4, r1
     298:	00000000 	andeq	r0, r0, r0
     29c:	90000000 	andls	r0, r0, r0
     2a0:	bc000003 	stclt	0, cr0, [r0], {3}
     2a4:	01000003 	tsteq	r0, r3
     2a8:	03bc5100 			; <UNDEFINED> instruction: 0x03bc5100
     2ac:	03d30000 	bicseq	r0, r3, #0
     2b0:	00050000 	andeq	r0, r5, r0
     2b4:	00e4d403 	rsceq	sp, r4, r3, lsl #8
	...
     2c0:	0003ec00 	andeq	lr, r3, r0, lsl #24
     2c4:	0003f400 	andeq	pc, r3, r0, lsl #8
     2c8:	f2000600 	vmax.s8	d0, d0, d0
     2cc:	00000776 	andeq	r0, r0, r6, ror r7
     2d0:	00040000 	andeq	r0, r4, r0
     2d4:	00044400 	andeq	r4, r4, r0, lsl #8
     2d8:	f2000600 	vmax.s8	d0, d0, d0
     2dc:	00000776 	andeq	r0, r0, r6, ror r7
	...
     2e8:	0003ec00 	andeq	lr, r3, r0, lsl #24
     2ec:	0003f400 	andeq	pc, r3, r0, lsl #8
     2f0:	03000600 	movweq	r0, #1536	; 0x600
     2f4:	0000c4d0 	ldrdeq	ip, [r0], -r0
     2f8:	0004009f 	muleq	r4, pc, r0	; <UNPREDICTABLE>
     2fc:	00044400 	andeq	r4, r4, r0, lsl #8
     300:	03000600 	movweq	r0, #1536	; 0x600
     304:	0000c4d0 	ldrdeq	ip, [r0], -r0
     308:	0000009f 	muleq	r0, pc, r0	; <UNPREDICTABLE>
     30c:	00000000 	andeq	r0, r0, r0
     310:	00041400 	andeq	r1, r4, r0, lsl #8
     314:	00042400 	andeq	r2, r4, r0, lsl #8
     318:	53000100 	movwpl	r0, #256	; 0x100
     31c:	00000424 	andeq	r0, r0, r4, lsr #8
     320:	00000430 	andeq	r0, r0, r0, lsr r4
     324:	d8030005 	stmdale	r3, {r0, r2}
     328:	000000e4 	andeq	r0, r0, r4, ror #1
     32c:	00000000 	andeq	r0, r0, r0
     330:	58000000 	stmdapl	r0, {}	; <UNPREDICTABLE>
     334:	a0000004 	andge	r0, r0, r4
     338:	03000004 	movweq	r0, #4
     33c:	9f820900 	svcls	0x00820900
     340:	000004a0 	andeq	r0, r0, r0, lsr #9
     344:	000004b4 			; <UNDEFINED> instruction: 0x000004b4
     348:	b4500001 	ldrblt	r0, [r0], #-1
     34c:	c0000004 	andgt	r0, r0, r4
     350:	03000004 	movweq	r0, #4
     354:	9f820900 	svcls	0x00820900
     358:	000004c0 	andeq	r0, r0, r0, asr #9
     35c:	000004d0 	ldrdeq	r0, [r0], -r0	; <UNPREDICTABLE>
     360:	00500001 	subseq	r0, r0, r1
     364:	00000000 	andeq	r0, r0, r0
     368:	74000000 	strvc	r0, [r0], #-0
     36c:	b4000004 	strlt	r0, [r0], #-4
     370:	06000004 	streq	r0, [r0], -r4
     374:	0885f200 	stmeq	r5, {r9, ip, sp, lr, pc}
     378:	bc000000 	stclt	0, cr0, [r0], {-0}
     37c:	d0000004 	andle	r0, r0, r4
     380:	06000004 	streq	r0, [r0], -r4
     384:	0885f200 	stmeq	r5, {r9, ip, sp, lr, pc}
	...
     390:	74000000 	strvc	r0, [r0], #-0
     394:	b4000004 	strlt	r0, [r0], #-4
     398:	06000004 	streq	r0, [r0], -r4
     39c:	a4b80300 	ldrtge	r0, [r8], #768	; 0x300
     3a0:	bc9f0000 	ldclt	0, cr0, [pc], {0}
     3a4:	d0000004 	andle	r0, r0, r4
     3a8:	06000004 	streq	r0, [r0], -r4
     3ac:	a4b80300 	ldrtge	r0, [r8], #768	; 0x300
     3b0:	009f0000 	addseq	r0, pc, r0
     3b4:	00000000 	andeq	r0, r0, r0
     3b8:	98000000 	stmdals	r0, {}	; <UNPREDICTABLE>
     3bc:	a4000004 	strge	r0, [r0], #-4
     3c0:	01000004 	tsteq	r0, r4
     3c4:	04a45100 	strteq	r5, [r4], #256	; 0x100
     3c8:	04b40000 	ldrteq	r0, [r4], #0
     3cc:	00050000 	andeq	r0, r5, r0
     3d0:	00c4c003 	sbceq	ip, r4, r3
	...
     3dc:	0004d000 	andeq	sp, r4, r0
     3e0:	0004dc00 	andeq	sp, r4, r0, lsl #24
     3e4:	50000100 	andpl	r0, r0, r0, lsl #2
     3e8:	000004dc 	ldrdeq	r0, [r0], -ip
     3ec:	000004f4 	strdeq	r0, [r0], -r4
     3f0:	00540001 	subseq	r0, r4, r1
     3f4:	00000000 	andeq	r0, r0, r0
     3f8:	14000000 	strne	r0, [r0], #-0
     3fc:	1c000006 	stcne	0, cr0, [r0], {6}
     400:	02000006 	andeq	r0, r0, #6
     404:	1c9f3000 	ldcne	0, cr3, [pc], {0}
     408:	94000006 	strls	r0, [r0], #-6
     40c:	01000006 	tsteq	r0, r6
     410:	00005600 	andeq	r5, r0, r0, lsl #12
     414:	00000000 	andeq	r0, r0, r0
     418:	06240000 	strteq	r0, [r4], -r0
     41c:	06270000 	strteq	r0, [r7], -r0
     420:	00010000 	andeq	r0, r1, r0
     424:	00062750 	andeq	r2, r6, r0, asr r7
     428:	00064c00 	andeq	r4, r6, r0, lsl #24
     42c:	54000100 	strpl	r0, [r0], #-256	; 0x100
	...
     43c:	00000004 	andeq	r0, r0, r4
     440:	04520001 	ldrbeq	r0, [r2], #-1
     444:	20000000 	andcs	r0, r0, r0
     448:	04000000 	streq	r0, [r0], #-0
     44c:	5201f300 	andpl	pc, r1, #0, 6
     450:	0000009f 	muleq	r0, pc, r0	; <UNPREDICTABLE>
	...
     45c:	00000c00 	andeq	r0, r0, r0, lsl #24
     460:	50000100 	andpl	r0, r0, r0, lsl #2
     464:	0000000c 	andeq	r0, r0, ip
     468:	00000014 	andeq	r0, r0, r4, lsl r0
     46c:	01730003 	cmneq	r3, r3
     470:	0000149f 	muleq	r0, pc, r4	; <UNPREDICTABLE>
     474:	00002000 	andeq	r2, r0, r0
     478:	53000100 	movwpl	r0, #256	; 0x100
	...
     484:	0000002c 	andeq	r0, r0, ip, lsr #32
     488:	00000038 	andeq	r0, r0, r8, lsr r0
     48c:	38500001 	ldmdacc	r0, {r0}^
     490:	48000000 	stmdami	r0, {}	; <UNPREDICTABLE>
     494:	01000000 	mrseq	r0, (UNDEF: 0)
     498:	00485500 	subeq	r5, r8, r0, lsl #10
     49c:	00580000 	subseq	r0, r8, r0
     4a0:	00010000 	andeq	r0, r1, r0
     4a4:	00000050 	andeq	r0, r0, r0, asr r0
	...
     4b0:	00000b00 	andeq	r0, r0, r0, lsl #22
     4b4:	50000100 	andpl	r0, r0, r0, lsl #2
     4b8:	0000000b 	andeq	r0, r0, fp
     4bc:	00000014 	andeq	r0, r0, r4, lsl r0
     4c0:	00540001 	subseq	r0, r4, r1
	...
     4cc:	10000000 	andne	r0, r0, r0
     4d0:	01000000 	mrseq	r0, (UNDEF: 0)
     4d4:	00105000 	andseq	r5, r0, r0
     4d8:	00340000 	eorseq	r0, r4, r0
     4dc:	00010000 	andeq	r0, r1, r0
     4e0:	00000054 	andeq	r0, r0, r4, asr r0
	...
     4ec:	00000400 	andeq	r0, r0, r0, lsl #8
     4f0:	50000100 	andpl	r0, r0, r0, lsl #2
     4f4:	00000004 	andeq	r0, r0, r4
     4f8:	0000000c 	andeq	r0, r0, ip
     4fc:	30700003 	rsbscc	r0, r0, r3
     500:	00000c9f 	muleq	r0, pc, ip	; <UNPREDICTABLE>
     504:	00001400 	andeq	r1, r0, r0, lsl #8
     508:	f3000400 	vshl.u8	d0, d0, d0
     50c:	009f5001 	addseq	r5, pc, r1
     510:	00000000 	andeq	r0, r0, r0
     514:	14000000 	strne	r0, [r0], #-0
     518:	20000000 	andcs	r0, r0, r0
     51c:	01000000 	mrseq	r0, (UNDEF: 0)
     520:	00205000 	eoreq	r5, r0, r0
     524:	002c0000 	eoreq	r0, ip, r0
     528:	00030000 	andeq	r0, r3, r0
     52c:	2c9f0170 	ldfcss	f0, [pc], {112}	; 0x70
     530:	40000000 	andmi	r0, r0, r0
     534:	01000000 	mrseq	r0, (UNDEF: 0)
     538:	00005000 	andeq	r5, r0, r0
     53c:	00000000 	andeq	r0, r0, r0
     540:	00140000 	andseq	r0, r4, r0
     544:	00180000 	andseq	r0, r8, r0
     548:	00010000 	andeq	r0, r1, r0
     54c:	00001851 	andeq	r1, r0, r1, asr r8
     550:	00004000 	andeq	r4, r0, r0
     554:	f3000400 	vshl.u8	d0, d0, d0
     558:	009f5101 	addseq	r5, pc, r1, lsl #2
     55c:	00000000 	andeq	r0, r0, r0
     560:	40000000 	andmi	r0, r0, r0
     564:	60000000 	andvs	r0, r0, r0
     568:	01000000 	mrseq	r0, (UNDEF: 0)
     56c:	00605000 	rsbeq	r5, r0, r0
     570:	006c0000 	rsbeq	r0, ip, r0
     574:	00030000 	andeq	r0, r3, r0
     578:	6c9f0171 	ldfvss	f0, [pc], {113}	; 0x71
     57c:	74000000 	strvc	r0, [r0], #-0
     580:	01000000 	mrseq	r0, (UNDEF: 0)
     584:	00745100 	rsbseq	r5, r4, r0, lsl #2
     588:	00800000 	addeq	r0, r0, r0
     58c:	00030000 	andeq	r0, r3, r0
     590:	009f0171 	addseq	r0, pc, r1, ror r1	; <UNPREDICTABLE>
     594:	00000000 	andeq	r0, r0, r0
     598:	40000000 	andmi	r0, r0, r0
     59c:	50000000 	andpl	r0, r0, r0
     5a0:	01000000 	mrseq	r0, (UNDEF: 0)
     5a4:	00505100 	subseq	r5, r0, r0, lsl #2
     5a8:	00800000 	addeq	r0, r0, r0
     5ac:	00040000 	andeq	r0, r4, r0
     5b0:	9f5101f3 	svcls	0x005101f3
	...
     5bc:	00000040 	andeq	r0, r0, r0, asr #32
     5c0:	00000058 	andeq	r0, r0, r8, asr r0
     5c4:	58520001 	ldmdapl	r2, {r0}^
     5c8:	64000000 	strvs	r0, [r0], #-0
     5cc:	01000000 	mrseq	r0, (UNDEF: 0)
     5d0:	00645200 	rsbeq	r5, r4, r0, lsl #4
     5d4:	00680000 	rsbeq	r0, r8, r0
     5d8:	00030000 	andeq	r0, r3, r0
     5dc:	689f0172 	ldmvs	pc, {r1, r4, r5, r6, r8}	; <UNPREDICTABLE>
     5e0:	80000000 	andhi	r0, r0, r0
     5e4:	01000000 	mrseq	r0, (UNDEF: 0)
     5e8:	00005200 	andeq	r5, r0, r0, lsl #4
     5ec:	00000000 	andeq	r0, r0, r0
     5f0:	00400000 	subeq	r0, r0, r0
     5f4:	00540000 	subseq	r0, r4, r0
     5f8:	00010000 	andeq	r0, r1, r0
     5fc:	00005453 	andeq	r5, r0, r3, asr r4
     600:	00007800 	andeq	r7, r0, r0, lsl #16
     604:	53000100 	movwpl	r0, #256	; 0x100
	...
     610:	00000048 	andeq	r0, r0, r8, asr #32
     614:	00000060 	andeq	r0, r0, r0, rrx
     618:	605c0001 	subsvs	r0, ip, r1
     61c:	80000000 	andhi	r0, r0, r0
     620:	0a000000 	beq	628 <_start-0x79d8>
     624:	5201f300 	andpl	pc, r1, #0, 6
     628:	1c5301f3 	ldfnee	f0, [r3], {243}	; 0xf3
     62c:	009f0123 	addseq	r0, pc, r3, lsr #2
     630:	00000000 	andeq	r0, r0, r0
     634:	80000000 	andhi	r0, r0, r0
     638:	a4000000 	strge	r0, [r0], #-0
     63c:	01000000 	mrseq	r0, (UNDEF: 0)
     640:	00a45000 	adceq	r5, r4, r0
     644:	01180000 	tsteq	r8, r0
     648:	00030000 	andeq	r0, r3, r0
     64c:	189f0270 	ldmne	pc, {r4, r5, r6, r9}	; <UNPREDICTABLE>
     650:	1c000001 	stcne	0, cr0, [r0], {1}
     654:	04000002 	streq	r0, [r0], #-2
     658:	5001f300 	andpl	pc, r1, r0, lsl #6
     65c:	0000009f 	muleq	r0, pc, r0	; <UNPREDICTABLE>
     660:	00000000 	andeq	r0, r0, r0
     664:	00008000 	andeq	r8, r0, r0
     668:	0000f000 	andeq	pc, r0, r0
     66c:	51000100 	mrspl	r0, (UNDEF: 16)
     670:	000000f0 	strdeq	r0, [r0], -r0	; <UNPREDICTABLE>
     674:	00000160 	andeq	r0, r0, r0, ror #2
     678:	60550001 	subsvs	r0, r5, r1
     67c:	68000001 	stmdavs	r0, {r0}
     680:	01000001 	tsteq	r0, r1
     684:	01685100 	cmneq	r8, r0, lsl #2
     688:	01880000 	orreq	r0, r8, r0
     68c:	00010000 	andeq	r0, r1, r0
     690:	00018855 	andeq	r8, r1, r5, asr r8
     694:	00019c00 	andeq	r9, r1, r0, lsl #24
     698:	51000100 	mrspl	r0, (UNDEF: 16)
     69c:	0000019c 	muleq	r0, ip, r1
     6a0:	000001bc 			; <UNDEFINED> instruction: 0x000001bc
     6a4:	bc550001 	mrrclt	0, 0, r0, r5, cr1
     6a8:	bf000001 	svclt	0x00000001
     6ac:	01000001 	tsteq	r0, r1
     6b0:	01bf5100 			; <UNDEFINED> instruction: 0x01bf5100
     6b4:	02000000 	andeq	r0, r0, #0
     6b8:	00010000 	andeq	r0, r1, r0
     6bc:	00020055 	andeq	r0, r2, r5, asr r0
     6c0:	00021c00 	andeq	r1, r2, r0, lsl #24
     6c4:	f3000400 	vshl.u8	d0, d0, d0
     6c8:	009f5101 	addseq	r5, pc, r1, lsl #2
     6cc:	00000000 	andeq	r0, r0, r0
     6d0:	80000000 	andhi	r0, r0, r0
     6d4:	94000000 	strls	r0, [r0], #-0
     6d8:	01000000 	mrseq	r0, (UNDEF: 0)
     6dc:	00945200 	addseq	r5, r4, r0, lsl #4
     6e0:	02000000 	andeq	r0, r0, #0
     6e4:	00010000 	andeq	r0, r1, r0
     6e8:	00020054 	andeq	r0, r2, r4, asr r0
     6ec:	00021c00 	andeq	r1, r2, r0, lsl #24
     6f0:	f3000400 	vshl.u8	d0, d0, d0
     6f4:	009f5201 	addseq	r5, pc, r1, lsl #4
     6f8:	00000000 	andeq	r0, r0, r0
     6fc:	80000000 	andhi	r0, r0, r0
     700:	00000000 	andeq	r0, r0, r0
     704:	01000001 	tsteq	r0, r1
     708:	01045300 	mrseq	r5, LR_abt
     70c:	01080000 	mrseq	r0, (UNDEF: 8)
     710:	00010000 	andeq	r0, r1, r0
     714:	00016053 	andeq	r6, r1, r3, asr r0
     718:	00016800 	andeq	r6, r1, r0, lsl #16
     71c:	53000100 	movwpl	r0, #256	; 0x100
     720:	00000168 	andeq	r0, r0, r8, ror #2
     724:	00000188 	andeq	r0, r0, r8, lsl #3
     728:	01f30004 	mvnseq	r0, r4
     72c:	01889f53 	orreq	r9, r8, r3, asr pc
     730:	01900000 	orrseq	r0, r0, r0
     734:	00010000 	andeq	r0, r1, r0
     738:	00019053 	andeq	r9, r1, r3, asr r0
     73c:	00019400 	andeq	r9, r1, r0, lsl #8
     740:	5c000100 	stfpls	f0, [r0], {-0}
     744:	00000194 	muleq	r0, r4, r1
     748:	0000019c 	muleq	r0, ip, r1
     74c:	9c530001 	mrrcls	0, 0, r0, r3, cr1
     750:	bc000001 	stclt	0, cr0, [r0], {1}
     754:	04000001 	streq	r0, [r0], #-1
     758:	5301f300 	movwpl	pc, #4864	; 0x1300	; <UNPREDICTABLE>
     75c:	0001bc9f 	muleq	r1, pc, ip	; <UNPREDICTABLE>
     760:	0001bf00 	andeq	fp, r1, r0, lsl #30
     764:	53000100 	movwpl	r0, #256	; 0x100
     768:	000001bf 			; <UNDEFINED> instruction: 0x000001bf
     76c:	000001d8 	ldrdeq	r0, [r0], -r8
     770:	01f30004 	mvnseq	r0, r4
     774:	00009f53 	andeq	r9, r0, r3, asr pc
     778:	00000000 	andeq	r0, r0, r0
     77c:	00800000 	addeq	r0, r0, r0
     780:	009c0000 	addseq	r0, ip, r0
     784:	00020000 	andeq	r0, r2, r0
     788:	009c0091 	umullseq	r0, ip, r1, r0
     78c:	01bf0000 			; <UNDEFINED> instruction: 0x01bf0000
     790:	00010000 	andeq	r0, r1, r0
     794:	0001d852 	andeq	sp, r1, r2, asr r8
     798:	0001e300 	andeq	lr, r1, r0, lsl #6
     79c:	52000100 	andpl	r0, r0, #0, 2
	...
     7a8:	0000009c 	muleq	r0, ip, r0
     7ac:	00000118 	andeq	r0, r0, r8, lsl r1
     7b0:	185d0001 	ldmdane	sp, {r0}^
     7b4:	1c000001 	stcne	0, cr0, [r0], {1}
     7b8:	01000001 	tsteq	r0, r1
     7bc:	011c5300 	tsteq	ip, r0, lsl #6
     7c0:	01200000 	teqeq	r0, r0
     7c4:	00010000 	andeq	r0, r1, r0
     7c8:	00012051 	andeq	r2, r1, r1, asr r0
     7cc:	00016000 	andeq	r6, r1, r0
     7d0:	53000100 	movwpl	r0, #256	; 0x100
     7d4:	00000160 	andeq	r0, r0, r0, ror #2
     7d8:	00000168 	andeq	r0, r0, r8, ror #2
     7dc:	685d0001 	ldmdavs	sp, {r0}^
     7e0:	6c000001 	stcvs	0, cr0, [r0], {1}
     7e4:	01000001 	tsteq	r0, r1
     7e8:	016c5e00 	cmneq	ip, r0, lsl #28
     7ec:	01880000 	orreq	r0, r8, r0
     7f0:	00010000 	andeq	r0, r1, r0
     7f4:	00018853 	andeq	r8, r1, r3, asr r8
     7f8:	00019000 	andeq	r9, r1, r0
     7fc:	91000400 	tstls	r0, r0, lsl #8
     800:	909f7fa1 	addsls	r7, pc, r1, lsr #31
     804:	94000001 	strls	r0, [r0], #-1
     808:	01000001 	tsteq	r0, r1
     80c:	01945300 	orrseq	r5, r4, r0, lsl #6
     810:	019c0000 	orrseq	r0, ip, r0
     814:	00010000 	andeq	r0, r1, r0
     818:	00019c5d 	andeq	r9, r1, sp, asr ip
     81c:	0001a000 	andeq	sl, r1, r0
     820:	5e000100 	adfpls	f0, f0, f0
     824:	000001a0 	andeq	r0, r0, r0, lsr #3
     828:	000001bc 			; <UNDEFINED> instruction: 0x000001bc
     82c:	bc530001 	mrrclt	0, 0, r0, r3, cr1
     830:	d8000001 	stmdale	r0, {r0}
     834:	01000001 	tsteq	r0, r1
     838:	01d85d00 	bicseq	r5, r8, r0, lsl #26
     83c:	01e30000 	mvneq	r0, r0
     840:	00010000 	andeq	r0, r1, r0
     844:	00000053 	andeq	r0, r0, r3, asr r0
     848:	00000000 	andeq	r0, r0, r0
     84c:	0000a000 	andeq	sl, r0, r0
     850:	0000ec00 	andeq	lr, r0, r0, lsl #24
     854:	5c000100 	stfpls	f0, [r0], {-0}
     858:	000000ec 	andeq	r0, r0, ip, ror #1
     85c:	00000100 	andeq	r0, r0, r0, lsl #2
     860:	00530001 	subseq	r0, r3, r1
     864:	04000001 	streq	r0, [r0], #-1
     868:	01000001 	tsteq	r0, r1
     86c:	01045c00 	tsteq	r4, r0, lsl #24
     870:	01080000 	mrseq	r0, (UNDEF: 8)
     874:	00010000 	andeq	r0, r1, r0
     878:	00010853 	andeq	r0, r1, r3, asr r8
     87c:	00011800 	andeq	r1, r1, r0, lsl #16
     880:	5c000100 	stfpls	f0, [r0], {-0}
     884:	00000118 	andeq	r0, r0, r8, lsl r1
     888:	0000011c 	andeq	r0, r0, ip, lsl r1
     88c:	1c500001 	mrrcne	0, 0, r0, r0, cr1	; <UNPREDICTABLE>
     890:	3c000001 	stccc	0, cr0, [r0], {1}
     894:	01000001 	tsteq	r0, r1
     898:	01445c00 	cmpeq	r4, r0, lsl #24
     89c:	01580000 	cmpeq	r8, r0
     8a0:	00010000 	andeq	r0, r1, r0
     8a4:	00015850 	andeq	r5, r1, r0, asr r8
     8a8:	00016000 	andeq	r6, r1, r0
     8ac:	5c000100 	stfpls	f0, [r0], {-0}
     8b0:	00000160 	andeq	r0, r0, r0, ror #2
     8b4:	00000168 	andeq	r0, r0, r8, ror #2
     8b8:	68530001 	ldmdavs	r3, {r0}^
     8bc:	78000001 	stmdavc	r0, {r0}
     8c0:	01000001 	tsteq	r0, r1
     8c4:	01785c00 	cmneq	r8, r0, lsl #24
     8c8:	01800000 	orreq	r0, r0, r0
     8cc:	00050000 	andeq	r0, r5, r0
     8d0:	2534007c 	ldrcs	r0, [r4, #-124]!	; 0x7c
     8d4:	0001809f 	muleq	r1, pc, r0	; <UNPREDICTABLE>
     8d8:	00018800 	andeq	r8, r1, r0, lsl #16
     8dc:	5c000100 	stfpls	f0, [r0], {-0}
     8e0:	00000188 	andeq	r0, r0, r8, lsl #3
     8e4:	00000190 	muleq	r0, r0, r1
     8e8:	90530001 	subsls	r0, r3, r1
     8ec:	94000001 	strls	r0, [r0], #-1
     8f0:	01000001 	tsteq	r0, r1
     8f4:	01945c00 	orrseq	r5, r4, r0, lsl #24
     8f8:	019c0000 	orrseq	r0, ip, r0
     8fc:	00010000 	andeq	r0, r1, r0
     900:	00019c53 	andeq	r9, r1, r3, asr ip
     904:	0001ac00 	andeq	sl, r1, r0, lsl #24
     908:	5c000100 	stfpls	f0, [r0], {-0}
     90c:	000001ac 	andeq	r0, r0, ip, lsr #3
     910:	000001b4 			; <UNDEFINED> instruction: 0x000001b4
     914:	007c0005 	rsbseq	r0, ip, r5
     918:	b49f2531 	ldrlt	r2, [pc], #1329	; 920 <_start-0x76e0>
     91c:	bc000001 	stclt	0, cr0, [r0], {1}
     920:	01000001 	tsteq	r0, r1
     924:	01bc5c00 			; <UNDEFINED> instruction: 0x01bc5c00
     928:	01bf0000 			; <UNDEFINED> instruction: 0x01bf0000
     92c:	00010000 	andeq	r0, r1, r0
     930:	0001bf53 	andeq	fp, r1, r3, asr pc
     934:	0001d800 	andeq	sp, r1, r0, lsl #16
     938:	f3000400 	vshl.u8	d0, d0, d0
     93c:	d89f5301 	ldmle	pc, {r0, r8, r9, ip, lr}	; <UNPREDICTABLE>
     940:	e3000001 	movw	r0, #1
     944:	01000001 	tsteq	r0, r1
     948:	00005c00 	andeq	r5, r0, r0, lsl #24
     94c:	00000000 	andeq	r0, r0, r0
     950:	00ec0000 	rsceq	r0, ip, r0
     954:	00fc0000 	rscseq	r0, ip, r0
     958:	00020000 	andeq	r0, r2, r0
     95c:	00fc9f30 	rscseq	r9, ip, r0, lsr pc
     960:	01040000 	mrseq	r0, (UNDEF: 4)
     964:	00020000 	andeq	r0, r2, r0
     968:	01049f31 	tsteq	r4, r1, lsr pc
     96c:	01080000 	mrseq	r0, (UNDEF: 8)
     970:	00020000 	andeq	r0, r2, r0
     974:	00009f30 	andeq	r9, r0, r0, lsr pc
     978:	00000000 	andeq	r0, r0, r0
     97c:	021c0000 	andseq	r0, ip, #0
     980:	022b0000 	eoreq	r0, fp, #0
     984:	00010000 	andeq	r0, r1, r0
     988:	00022b50 	andeq	r2, r2, r0, asr fp
     98c:	00024400 	andeq	r4, r2, r0, lsl #8
     990:	f3000400 	vshl.u8	d0, d0, d0
     994:	449f5001 	ldrmi	r5, [pc], #1	; 99c <_start-0x7664>
     998:	70000002 	andvc	r0, r0, r2
     99c:	01000002 	tsteq	r0, r2
     9a0:	00005000 	andeq	r5, r0, r0
     9a4:	00000000 	andeq	r0, r0, r0
     9a8:	021c0000 	andseq	r0, ip, #0
     9ac:	022b0000 	eoreq	r0, fp, #0
     9b0:	00010000 	andeq	r0, r1, r0
     9b4:	00022b51 	andeq	r2, r2, r1, asr fp
     9b8:	00024400 	andeq	r4, r2, r0, lsl #8
     9bc:	f3000400 	vshl.u8	d0, d0, d0
     9c0:	449f5101 	ldrmi	r5, [pc], #257	; 9c8 <_start-0x7638>
     9c4:	70000002 	andvc	r0, r0, r2
     9c8:	01000002 	tsteq	r0, r2
     9cc:	00005100 	andeq	r5, r0, r0, lsl #2
     9d0:	00000000 	andeq	r0, r0, r0
     9d4:	02700000 	rsbseq	r0, r0, #0
     9d8:	029c0000 	addseq	r0, ip, #0
     9dc:	00010000 	andeq	r0, r1, r0
     9e0:	00029c50 	andeq	r9, r2, r0, asr ip
     9e4:	0004e400 	andeq	lr, r4, r0, lsl #8
     9e8:	5a000100 	bpl	df0 <_start-0x7210>
     9ec:	000004e4 	andeq	r0, r0, r4, ror #9
     9f0:	000004f8 	strdeq	r0, [r0], -r8
     9f4:	01f30004 	mvnseq	r0, r4
     9f8:	00009f50 	andeq	r9, r0, r0, asr pc
     9fc:	00000000 	andeq	r0, r0, r0
     a00:	02700000 	rsbseq	r0, r0, #0
     a04:	02840000 	addeq	r0, r4, #0
     a08:	00010000 	andeq	r0, r1, r0
     a0c:	00028451 	andeq	r8, r2, r1, asr r4
     a10:	00029c00 	andeq	r9, r2, r0, lsl #24
     a14:	71000300 	mrsvc	r0, LR_irq
     a18:	029c9f01 	addseq	r9, ip, #1, 30
     a1c:	04f80000 	ldrbteq	r0, [r8], #0
     a20:	00040000 	andeq	r0, r4, r0
     a24:	9f5101f3 	svcls	0x005101f3
	...
     a30:	00000270 	andeq	r0, r0, r0, ror r2
     a34:	000002a4 	andeq	r0, r0, r4, lsr #5
     a38:	a4520001 	ldrbge	r0, [r2], #-1
     a3c:	cc000002 	stcgt	0, cr0, [r0], {2}
     a40:	01000002 	tsteq	r0, r2
     a44:	02cc5200 	sbceq	r5, ip, #0, 4
     a48:	04940000 	ldreq	r0, [r4], #0
     a4c:	00010000 	andeq	r0, r1, r0
     a50:	00049456 	andeq	r9, r4, r6, asr r4
     a54:	0004f800 	andeq	pc, r4, r0, lsl #16
     a58:	52000100 	andpl	r0, r0, #0, 2
	...
     a64:	00000270 	andeq	r0, r0, r0, ror r2
     a68:	0000028c 	andeq	r0, r0, ip, lsl #5
     a6c:	00530001 	subseq	r0, r3, r1
     a70:	00000000 	andeq	r0, r0, r0
     a74:	80000000 	andhi	r0, r0, r0
     a78:	9c000002 	stcls	0, cr0, [r0], {2}
     a7c:	01000002 	tsteq	r0, r2
     a80:	029c5000 	addseq	r5, ip, #0
     a84:	02a00000 	adceq	r0, r0, #0
     a88:	00010000 	andeq	r0, r1, r0
     a8c:	0002a054 	andeq	sl, r2, r4, asr r0
     a90:	0002ac00 	andeq	sl, r2, r0, lsl #24
     a94:	74000300 	strvc	r0, [r0], #-768	; 0x300
     a98:	02ac9f01 	adceq	r9, ip, #1, 30
     a9c:	02b80000 	adcseq	r0, r8, #0
     aa0:	00010000 	andeq	r0, r1, r0
     aa4:	0002b854 	andeq	fp, r2, r4, asr r8
     aa8:	0002c400 	andeq	ip, r2, r0, lsl #8
     aac:	74000300 	strvc	r0, [r0], #-768	; 0x300
     ab0:	02c49f01 	sbceq	r9, r4, #1, 30
     ab4:	04980000 	ldreq	r0, [r8], #0
     ab8:	00010000 	andeq	r0, r1, r0
     abc:	00049854 	andeq	r9, r4, r4, asr r8
     ac0:	0004a400 	andeq	sl, r4, r0, lsl #8
     ac4:	74000300 	strvc	r0, [r0], #-768	; 0x300
     ac8:	04a49f01 	strteq	r9, [r4], #3841	; 0xf01
     acc:	04d00000 	ldrbeq	r0, [r0], #0
     ad0:	00010000 	andeq	r0, r1, r0
     ad4:	0004d054 	andeq	sp, r4, r4, asr r0
     ad8:	0004dc00 	andeq	sp, r4, r0, lsl #24
     adc:	50000100 	andpl	r0, r0, r0, lsl #2
     ae0:	000004dc 	ldrdeq	r0, [r0], -ip
     ae4:	000004e4 	andeq	r0, r0, r4, ror #9
     ae8:	01740003 	cmneq	r4, r3
     aec:	0000009f 	muleq	r0, pc, r0	; <UNPREDICTABLE>
     af0:	00000000 	andeq	r0, r0, r0
     af4:	00028800 	andeq	r8, r2, r0, lsl #16
     af8:	0004e400 	andeq	lr, r4, r0, lsl #8
     afc:	58000100 	stmdapl	r0, {r8}
     b00:	000004e4 	andeq	r0, r0, r4, ror #9
     b04:	000004f8 	strdeq	r0, [r0], -r8
     b08:	01f3000a 	mvnseq	r0, sl
     b0c:	5001f351 	andpl	pc, r1, r1, asr r3	; <UNPREDICTABLE>
     b10:	9f1c3122 	svcls	0x001c3122
	...
     b1c:	000003cc 	andeq	r0, r0, ip, asr #7
     b20:	000003d0 	ldrdeq	r0, [r0], -r0	; <UNPREDICTABLE>
     b24:	f0500001 			; <UNDEFINED> instruction: 0xf0500001
     b28:	f4000003 	vst4.8	{d0-d3}, [r0], r3
     b2c:	01000003 	tsteq	r0, r3
     b30:	04145000 	ldreq	r5, [r4], #-0
     b34:	04180000 	ldreq	r0, [r8], #-0
     b38:	00010000 	andeq	r0, r1, r0
     b3c:	00043850 	andeq	r3, r4, r0, asr r8
     b40:	00043c00 	andeq	r3, r4, r0, lsl #24
     b44:	50000100 	andpl	r0, r0, r0, lsl #2
     b48:	00000444 	andeq	r0, r0, r4, asr #8
     b4c:	00000448 	andeq	r0, r0, r8, asr #8
     b50:	68500001 	ldmdavs	r0, {r0}^
     b54:	6c000004 	stcvs	0, cr0, [r0], {4}
     b58:	01000004 	tsteq	r0, r4
     b5c:	04905000 	ldreq	r5, [r0], #0
     b60:	04b80000 	ldrteq	r0, [r8], #0
     b64:	00010000 	andeq	r0, r1, r0
     b68:	00000050 	andeq	r0, r0, r0, asr r0
     b6c:	00000000 	andeq	r0, r0, r0
     b70:	0002cc00 	andeq	ip, r2, r0, lsl #24
     b74:	0002d400 	andeq	sp, r2, r0, lsl #8
     b78:	30000200 	andcc	r0, r0, r0, lsl #4
     b7c:	0002d49f 	muleq	r2, pc, r4	; <UNPREDICTABLE>
     b80:	0002d800 	andeq	sp, r2, r0, lsl #16
     b84:	57000100 	strpl	r0, [r0, -r0, lsl #2]
     b88:	000002e4 	andeq	r0, r0, r4, ror #5
     b8c:	000004b8 			; <UNDEFINED> instruction: 0x000004b8
     b90:	00570001 	subseq	r0, r7, r1
	...
     b9c:	0c000000 	stceq	0, cr0, [r0], {-0}
     ba0:	01000000 	mrseq	r0, (UNDEF: 0)
     ba4:	000c5000 	andeq	r5, ip, r0
     ba8:	00200000 	eoreq	r0, r0, r0
     bac:	00010000 	andeq	r0, r1, r0
     bb0:	00000054 	andeq	r0, r0, r4, asr r0
     bb4:	00000000 	andeq	r0, r0, r0
     bb8:	00003400 	andeq	r3, r0, r0, lsl #8
     bbc:	00003c00 	andeq	r3, r0, r0, lsl #24
     bc0:	73000300 	movwvc	r0, #768	; 0x300
     bc4:	003c9f04 	eorseq	r9, ip, r4, lsl #30
     bc8:	00470000 	subeq	r0, r7, r0
     bcc:	00010000 	andeq	r0, r1, r0
     bd0:	00000053 	andeq	r0, r0, r3, asr r0
     bd4:	00000000 	andeq	r0, r0, r0
     bd8:	00004800 	andeq	r4, r0, r0, lsl #16
     bdc:	00007400 	andeq	r7, r0, r0, lsl #8
     be0:	50000100 	andpl	r0, r0, r0, lsl #2
     be4:	00000074 	andeq	r0, r0, r4, ror r0
     be8:	00000083 	andeq	r0, r0, r3, lsl #1
     bec:	78730003 	ldmdavc	r3!, {r0, r1}^
     bf0:	0000009f 	muleq	r0, pc, r0	; <UNPREDICTABLE>
     bf4:	00000000 	andeq	r0, r0, r0
     bf8:	008d5c00 	addeq	r5, sp, r0, lsl #24
     bfc:	008d6000 	addeq	r6, sp, r0
     c00:	30000200 	andcc	r0, r0, r0, lsl #4
     c04:	008d609f 	umulleq	r6, sp, pc, r0	; <UNPREDICTABLE>
     c08:	008d6400 	addeq	r6, sp, r0, lsl #8
     c0c:	50000100 	andpl	r0, r0, r0, lsl #2
	...
     c18:	00008d74 	andeq	r8, r0, r4, ror sp
     c1c:	00008d78 	andeq	r8, r0, r8, ror sp
     c20:	9f300002 	svcls	0x00300002
     c24:	00008d78 	andeq	r8, r0, r8, ror sp
     c28:	00008d7c 	andeq	r8, r0, ip, ror sp
     c2c:	80530001 	subshi	r0, r3, r1
     c30:	8800008d 	stmdahi	r0, {r0, r2, r3, r7}
     c34:	0100008d 	smlabbeq	r0, sp, r0, r0
     c38:	00005300 	andeq	r5, r0, r0, lsl #6
	...
     c44:	00040000 	andeq	r0, r4, r0
     c48:	00010000 	andeq	r0, r1, r0
     c4c:	00000450 	andeq	r0, r0, r0, asr r4
     c50:	00000c00 	andeq	r0, r0, r0, lsl #24
     c54:	53000100 	movwpl	r0, #256	; 0x100
     c58:	0000000c 	andeq	r0, r0, ip
     c5c:	00000010 	andeq	r0, r0, r0, lsl r0
     c60:	10500001 	subsne	r0, r0, r1
     c64:	1c000000 	stcne	0, cr0, [r0], {-0}
     c68:	01000000 	mrseq	r0, (UNDEF: 0)
     c6c:	00005300 	andeq	r5, r0, r0, lsl #6
     c70:	00000000 	andeq	r0, r0, r0
     c74:	003c0000 	eorseq	r0, ip, r0
     c78:	00470000 	subeq	r0, r7, r0
     c7c:	00010000 	andeq	r0, r1, r0
     c80:	00004750 	andeq	r4, r0, r0, asr r7
     c84:	00006000 	andeq	r6, r0, r0
     c88:	55000100 	strpl	r0, [r0, #-256]	; 0x100
	...
     c94:	00000050 	andeq	r0, r0, r0, asr r0
     c98:	00000054 	andeq	r0, r0, r4, asr r0
     c9c:	00500001 	subseq	r0, r0, r1
     ca0:	00000000 	andeq	r0, r0, r0
     ca4:	60000000 	andvs	r0, r0, r0
     ca8:	6c000000 	stcvs	0, cr0, [r0], {-0}
     cac:	01000000 	mrseq	r0, (UNDEF: 0)
     cb0:	006c5000 	rsbeq	r5, ip, r0
     cb4:	00740000 	rsbseq	r0, r4, r0
     cb8:	00040000 	andeq	r0, r4, r0
     cbc:	9f5001f3 	svcls	0x005001f3
	...
     cc8:	00000074 	andeq	r0, r0, r4, ror r0
     ccc:	00000080 	andeq	r0, r0, r0, lsl #1
     cd0:	80500001 	subshi	r0, r0, r1
     cd4:	88000000 	stmdahi	r0, {}	; <UNPREDICTABLE>
     cd8:	04000000 	streq	r0, [r0], #-0
     cdc:	5001f300 	andpl	pc, r1, r0, lsl #6
     ce0:	0000009f 	muleq	r0, pc, r0	; <UNPREDICTABLE>
	...
     cec:	00009000 	andeq	r9, r0, r0
     cf0:	50000100 	andpl	r0, r0, r0, lsl #2
     cf4:	00000090 	muleq	r0, r0, r0
     cf8:	000000d4 	ldrdeq	r0, [r0], -r4
     cfc:	00540001 	subseq	r0, r4, r1
     d00:	00000000 	andeq	r0, r0, r0
     d04:	48000000 	stmdami	r0, {}	; <UNPREDICTABLE>
     d08:	4c000000 	stcmi	0, cr0, [r0], {-0}
     d0c:	01000000 	mrseq	r0, (UNDEF: 0)
     d10:	00545500 	subseq	r5, r4, r0, lsl #10
     d14:	00580000 	subseq	r0, r8, r0
     d18:	00010000 	andeq	r0, r1, r0
     d1c:	00006055 	andeq	r6, r0, r5, asr r0
     d20:	00006400 	andeq	r6, r0, r0, lsl #8
     d24:	55000100 	strpl	r0, [r0, #-256]	; 0x100
     d28:	0000006c 	andeq	r0, r0, ip, rrx
     d2c:	00000070 	andeq	r0, r0, r0, ror r0
     d30:	78550001 	ldmdavc	r5, {r0}^
     d34:	7c000000 	stcvc	0, cr0, [r0], {-0}
     d38:	01000000 	mrseq	r0, (UNDEF: 0)
     d3c:	00845500 	addeq	r5, r4, r0, lsl #10
     d40:	00880000 	addeq	r0, r8, r0
     d44:	00010000 	andeq	r0, r1, r0
     d48:	00008c55 	andeq	r8, r0, r5, asr ip
     d4c:	0000d400 	andeq	sp, r0, r0, lsl #8
     d50:	55000100 	strpl	r0, [r0, #-256]	; 0x100
	...
     d5c:	0000001c 	andeq	r0, r0, ip, lsl r0
     d60:	00000044 	andeq	r0, r0, r4, asr #32
     d64:	44530001 	ldrbmi	r0, [r3], #-1
     d68:	4c000000 	stcmi	0, cr0, [r0], {-0}
     d6c:	1c000000 	stcne	0, cr0, [r0], {-0}
     d70:	f7007000 			; <UNDEFINED> instruction: 0xf7007000
     d74:	f425f72c 	vld1.8	{d15}, [r5 :128], ip
     d78:	cccd0825 	stclgt	8, cr0, [sp], {37}	; 0x25
     d7c:	0000cccc 	andeq	ip, r0, ip, asr #25
     d80:	081e0000 	ldmdaeq	lr, {}	; <UNPREDICTABLE>
     d84:	2525f720 	strcs	pc, [r5, #-1824]!	; 0x720
     d88:	25332cf7 	ldrcs	r2, [r3, #-3319]!	; 0xcf7
     d8c:	00004c9f 	muleq	r0, pc, ip	; <UNPREDICTABLE>
     d90:	00005000 	andeq	r5, r0, r0
     d94:	53000100 	movwpl	r0, #256	; 0x100
     d98:	00000050 	andeq	r0, r0, r0, asr r0
     d9c:	00000058 	andeq	r0, r0, r8, asr r0
     da0:	0070001c 	rsbseq	r0, r0, ip, lsl r0
     da4:	25f72cf7 	ldrbcs	r2, [r7, #3319]!	; 0xcf7
     da8:	cd0825f4 	cfstr32gt	mvfx2, [r8, #-976]	; 0xfffffc30
     dac:	00cccccc 	sbceq	ip, ip, ip, asr #25
     db0:	1e000000 	cdpne	0, 0, cr0, cr0, cr0, {0}
     db4:	25f72008 	ldrbcs	r2, [r7, #8]!
     db8:	332cf725 	msrcc	CPSR_fs, #9699328	; 0x940000
     dbc:	00589f25 	subseq	r9, r8, r5, lsr #30
     dc0:	005c0000 	subseq	r0, ip, r0
     dc4:	00010000 	andeq	r0, r1, r0
     dc8:	00005c53 	andeq	r5, r0, r3, asr ip
     dcc:	00006400 	andeq	r6, r0, r0, lsl #8
     dd0:	70001c00 	andvc	r1, r0, r0, lsl #24
     dd4:	f72cf700 			; <UNDEFINED> instruction: 0xf72cf700
     dd8:	0825f425 	stmdaeq	r5!, {r0, r2, r5, sl, ip, sp, lr, pc}
     ddc:	cccccccd 	stclgt	12, cr12, [ip], {205}	; 0xcd
     de0:	00000000 	andeq	r0, r0, r0
     de4:	f720081e 			; <UNDEFINED> instruction: 0xf720081e
     de8:	2cf72525 	cfldr64cs	mvdx2, [r7], #148	; 0x94
     dec:	649f2533 	ldrvs	r2, [pc], #1331	; df4 <_start-0x720c>
     df0:	68000000 	stmdavs	r0, {}	; <UNPREDICTABLE>
     df4:	01000000 	mrseq	r0, (UNDEF: 0)
     df8:	00685300 	rsbeq	r5, r8, r0, lsl #6
     dfc:	00700000 	rsbseq	r0, r0, r0
     e00:	001c0000 	andseq	r0, ip, r0
     e04:	2cf70070 	ldclcs	0, cr0, [r7], #448	; 0x1c0
     e08:	25f425f7 	ldrbcs	r2, [r4, #1527]!	; 0x5f7
     e0c:	cccccd08 	stclgt	13, cr12, [ip], {8}
     e10:	000000cc 	andeq	r0, r0, ip, asr #1
     e14:	20081e00 	andcs	r1, r8, r0, lsl #28
     e18:	f72525f7 			; <UNDEFINED> instruction: 0xf72525f7
     e1c:	9f25332c 	svcls	0x0025332c
     e20:	00000070 	andeq	r0, r0, r0, ror r0
     e24:	00000074 	andeq	r0, r0, r4, ror r0
     e28:	74530001 	ldrbvc	r0, [r3], #-1
     e2c:	7c000000 	stcvc	0, cr0, [r0], {-0}
     e30:	1c000000 	stcne	0, cr0, [r0], {-0}
     e34:	f7007000 			; <UNDEFINED> instruction: 0xf7007000
     e38:	f425f72c 	vld1.8	{d15}, [r5 :128], ip
     e3c:	cccd0825 	stclgt	8, cr0, [sp], {37}	; 0x25
     e40:	0000cccc 	andeq	ip, r0, ip, asr #25
     e44:	081e0000 	ldmdaeq	lr, {}	; <UNPREDICTABLE>
     e48:	2525f720 	strcs	pc, [r5, #-1824]!	; 0x720
     e4c:	25332cf7 	ldrcs	r2, [r3, #-3319]!	; 0xcf7
     e50:	00007c9f 	muleq	r0, pc, ip	; <UNPREDICTABLE>
     e54:	00008000 	andeq	r8, r0, r0
     e58:	53000100 	movwpl	r0, #256	; 0x100
     e5c:	00000080 	andeq	r0, r0, r0, lsl #1
     e60:	00000088 	andeq	r0, r0, r8, lsl #1
     e64:	0070001c 	rsbseq	r0, r0, ip, lsl r0
     e68:	25f72cf7 	ldrbcs	r2, [r7, #3319]!	; 0xcf7
     e6c:	cd0825f4 	cfstr32gt	mvfx2, [r8, #-976]	; 0xfffffc30
     e70:	00cccccc 	sbceq	ip, ip, ip, asr #25
     e74:	1e000000 	cdpne	0, 0, cr0, cr0, cr0, {0}
     e78:	25f72008 	ldrbcs	r2, [r7, #8]!
     e7c:	332cf725 	msrcc	CPSR_fs, #9699328	; 0x940000
     e80:	00889f25 	addeq	r9, r8, r5, lsr #30
     e84:	008c0000 	addeq	r0, ip, r0
     e88:	00010000 	andeq	r0, r1, r0
     e8c:	00008c53 	andeq	r8, r0, r3, asr ip
     e90:	00009000 	andeq	r9, r0, r0
     e94:	70001c00 	andvc	r1, r0, r0, lsl #24
     e98:	f72cf700 			; <UNDEFINED> instruction: 0xf72cf700
     e9c:	0825f425 	stmdaeq	r5!, {r0, r2, r5, sl, ip, sp, lr, pc}
     ea0:	cccccccd 	stclgt	12, cr12, [ip], {205}	; 0xcd
     ea4:	00000000 	andeq	r0, r0, r0
     ea8:	f720081e 			; <UNDEFINED> instruction: 0xf720081e
     eac:	2cf72525 	cfldr64cs	mvdx2, [r7], #148	; 0x94
     eb0:	909f2533 	addsls	r2, pc, r3, lsr r5	; <UNPREDICTABLE>
     eb4:	98000000 	stmdals	r0, {}	; <UNPREDICTABLE>
     eb8:	1c000000 	stcne	0, cr0, [r0], {-0}
     ebc:	f7007400 			; <UNDEFINED> instruction: 0xf7007400
     ec0:	f425f72c 	vld1.8	{d15}, [r5 :128], ip
     ec4:	cccd0825 	stclgt	8, cr0, [sp], {37}	; 0x25
     ec8:	0000cccc 	andeq	ip, r0, ip, asr #25
     ecc:	081e0000 	ldmdaeq	lr, {}	; <UNPREDICTABLE>
     ed0:	2525f720 	strcs	pc, [r5, #-1824]!	; 0x720
     ed4:	25332cf7 	ldrcs	r2, [r3, #-3319]!	; 0xcf7
     ed8:	0000989f 	muleq	r0, pc, r8	; <UNPREDICTABLE>
     edc:	00009c00 	andeq	r9, r0, r0, lsl #24
     ee0:	74001700 	strvc	r1, [r0], #-1792	; 0x700
     ee4:	f72cf700 			; <UNDEFINED> instruction: 0xf72cf700
     ee8:	f7007125 			; <UNDEFINED> instruction: 0xf7007125
     eec:	1e25f72c 	cdpne	7, 2, cr15, cr5, cr12, {1}
     ef0:	25f72008 	ldrbcs	r2, [r7, #8]!
     ef4:	332cf725 	msrcc	CPSR_fs, #9699328	; 0x940000
     ef8:	009c9f25 	addseq	r9, ip, r5, lsr #30
     efc:	00d40000 	sbcseq	r0, r4, r0
     f00:	001c0000 	andseq	r0, ip, r0
     f04:	2cf70074 	ldclcs	0, cr0, [r7], #464	; 0x1d0
     f08:	25f425f7 	ldrbcs	r2, [r4, #1527]!	; 0x5f7
     f0c:	cccccd08 	stclgt	13, cr12, [ip], {8}
     f10:	000000cc 	andeq	r0, r0, ip, asr #1
     f14:	20081e00 	andcs	r1, r8, r0, lsl #28
     f18:	f72525f7 			; <UNDEFINED> instruction: 0xf72525f7
     f1c:	9f25332c 	svcls	0x0025332c
	...
     f28:	00000094 	muleq	r0, r4, r0
     f2c:	000000b8 	strheq	r0, [r0], -r8
     f30:	b8500001 	ldmdalt	r0, {r0}^
     f34:	c4000000 	strgt	r0, [r0], #-0
     f38:	08000000 	stmdaeq	r0, {}	; <UNPREDICTABLE>
     f3c:	00713100 	rsbseq	r3, r1, r0, lsl #2
     f40:	21007324 	tstcs	r0, r4, lsr #6
     f44:	0000c49f 	muleq	r0, pc, r4	; <UNPREDICTABLE>
     f48:	0000c700 	andeq	ip, r0, r0, lsl #14
     f4c:	51000100 	mrspl	r0, (UNDEF: 16)
	...
     f58:	000000d4 	ldrdeq	r0, [r0], -r4
     f5c:	000000f8 	strdeq	r0, [r0], -r8
     f60:	f8500001 			; <UNDEFINED> instruction: 0xf8500001
     f64:	0c000000 	stceq	0, cr0, [r0], {-0}
     f68:	04000001 	streq	r0, [r0], #-1
     f6c:	5001f300 	andpl	pc, r1, r0, lsl #6
     f70:	0000009f 	muleq	r0, pc, r0	; <UNPREDICTABLE>
     f74:	00000000 	andeq	r0, r0, r0
     f78:	0000e000 	andeq	lr, r0, r0
     f7c:	0000e800 	andeq	lr, r0, r0, lsl #16
     f80:	30000200 	andcc	r0, r0, r0, lsl #4
     f84:	0000e89f 	muleq	r0, pc, r8	; <UNPREDICTABLE>
     f88:	0000e800 	andeq	lr, r0, r0, lsl #16
     f8c:	52000100 	andpl	r0, r0, #0, 2
     f90:	000000e8 	andeq	r0, r0, r8, ror #1
     f94:	000000f0 	strdeq	r0, [r0], -r0	; <UNPREDICTABLE>
     f98:	9f300002 	svcls	0x00300002
     f9c:	000000f0 	strdeq	r0, [r0], -r0	; <UNPREDICTABLE>
     fa0:	00000103 	andeq	r0, r0, r3, lsl #2
     fa4:	00520001 	subseq	r0, r2, r1
     fa8:	00000000 	andeq	r0, r0, r0
     fac:	e0000000 	and	r0, r0, r0
     fb0:	f4000000 	vst4.8	{d0-d3}, [r0], r0
     fb4:	02000000 	andeq	r0, r0, #0
     fb8:	f49f3000 			; <UNDEFINED> instruction: 0xf49f3000
     fbc:	00000000 	andeq	r0, r0, r0
     fc0:	05000001 	streq	r0, [r0, #-1]
     fc4:	00733100 	rsbseq	r3, r3, r0, lsl #2
     fc8:	01009f24 	tsteq	r0, r4, lsr #30
     fcc:	01030000 	mrseq	r0, (UNDEF: 3)
     fd0:	00010000 	andeq	r0, r1, r0
     fd4:	00010351 	andeq	r0, r1, r1, asr r3
     fd8:	00010c00 	andeq	r0, r1, r0, lsl #24
     fdc:	31000800 	tstcc	r0, r0, lsl #16
     fe0:	4f5001f3 	svcmi	0x005001f3
     fe4:	009f241a 	addseq	r2, pc, sl, lsl r4	; <UNPREDICTABLE>
     fe8:	00000000 	andeq	r0, r0, r0
     fec:	0c000000 	stceq	0, cr0, [r0], {-0}
     ff0:	30000001 	andcc	r0, r0, r1
     ff4:	01000001 	tsteq	r0, r1
     ff8:	01305000 	teqeq	r0, r0
     ffc:	01440000 	mrseq	r0, (UNDEF: 68)
    1000:	00040000 	andeq	r0, r4, r0
    1004:	9f5001f3 	svcls	0x005001f3
	...
    1010:	00000118 	andeq	r0, r0, r8, lsl r1
    1014:	00000120 	andeq	r0, r0, r0, lsr #2
    1018:	9f300002 	svcls	0x00300002
    101c:	00000120 	andeq	r0, r0, r0, lsr #2
    1020:	00000120 	andeq	r0, r0, r0, lsr #2
    1024:	20520001 	subscs	r0, r2, r1
    1028:	28000001 	stmdacs	r0, {r0}
    102c:	02000001 	andeq	r0, r0, #1
    1030:	289f3000 	ldmcs	pc, {ip, sp}	; <UNPREDICTABLE>
    1034:	3b000001 	blcc	1040 <_start-0x6fc0>
    1038:	01000001 	tsteq	r0, r1
    103c:	00005200 	andeq	r5, r0, r0, lsl #4
    1040:	00000000 	andeq	r0, r0, r0
    1044:	01180000 	tsteq	r8, r0
    1048:	012c0000 	teqeq	ip, r0
    104c:	00020000 	andeq	r0, r2, r0
    1050:	012c9f30 	teqeq	ip, r0, lsr pc
    1054:	01380000 	teqeq	r8, r0
    1058:	00050000 	andeq	r0, r5, r0
    105c:	24007331 	strcs	r7, [r0], #-817	; 0x331
    1060:	0001389f 	muleq	r1, pc, r8	; <UNPREDICTABLE>
    1064:	00013b00 	andeq	r3, r1, r0, lsl #22
    1068:	51000100 	mrspl	r0, (UNDEF: 16)
    106c:	0000013b 	andeq	r0, r0, fp, lsr r1
    1070:	00000144 	andeq	r0, r0, r4, asr #2
    1074:	f3310008 	vhadd.u<illegal width 64>	d0, d1, d8
    1078:	1a4f5001 	bne	13d5084 <__bss_end__+0x13c678c>
    107c:	00009f24 	andeq	r9, r0, r4, lsr #30
    1080:	00000000 	andeq	r0, r0, r0
    1084:	01440000 	mrseq	r0, (UNDEF: 68)
    1088:	01d40000 	bicseq	r0, r4, r0
    108c:	00010000 	andeq	r0, r1, r0
    1090:	0001d450 	andeq	sp, r1, r0, asr r4
    1094:	00021000 	andeq	r1, r2, r0
    1098:	54000100 	strpl	r0, [r0], #-256	; 0x100
	...
    10a4:	0000018c 	andeq	r0, r0, ip, lsl #3
    10a8:	00000190 	muleq	r0, r0, r1
    10ac:	98550001 	ldmdals	r5, {r0}^
    10b0:	9c000001 	stcls	0, cr0, [r0], {1}
    10b4:	01000001 	tsteq	r0, r1
    10b8:	01a45500 			; <UNDEFINED> instruction: 0x01a45500
    10bc:	01a80000 			; <UNDEFINED> instruction: 0x01a80000
    10c0:	00010000 	andeq	r0, r1, r0
    10c4:	0001b055 	andeq	fp, r1, r5, asr r0
    10c8:	0001b400 	andeq	fp, r1, r0, lsl #8
    10cc:	55000100 	strpl	r0, [r0, #-256]	; 0x100
    10d0:	000001bc 			; <UNDEFINED> instruction: 0x000001bc
    10d4:	000001c0 	andeq	r0, r0, r0, asr #3
    10d8:	c8550001 	ldmdagt	r5, {r0}^
    10dc:	cc000001 	stcgt	0, cr0, [r0], {1}
    10e0:	01000001 	tsteq	r0, r1
    10e4:	01d05500 	bicseq	r5, r0, r0, lsl #10
    10e8:	02100000 	andseq	r0, r0, #0
    10ec:	00010000 	andeq	r0, r1, r0
    10f0:	00000055 	andeq	r0, r0, r5, asr r0
    10f4:	00000000 	andeq	r0, r0, r0
    10f8:	00016000 	andeq	r6, r1, r0
    10fc:	00018800 	andeq	r8, r1, r0, lsl #16
    1100:	53000100 	movwpl	r0, #256	; 0x100
    1104:	00000188 	andeq	r0, r0, r8, lsl #3
    1108:	00000190 	muleq	r0, r0, r1
    110c:	0070001c 	rsbseq	r0, r0, ip, lsl r0
    1110:	25f72cf7 	ldrbcs	r2, [r7, #3319]!	; 0xcf7
    1114:	cd0825f4 	cfstr32gt	mvfx2, [r8, #-976]	; 0xfffffc30
    1118:	00cccccc 	sbceq	ip, ip, ip, asr #25
    111c:	1e000000 	cdpne	0, 0, cr0, cr0, cr0, {0}
    1120:	25f72008 	ldrbcs	r2, [r7, #8]!
    1124:	332cf725 	msrcc	CPSR_fs, #9699328	; 0x940000
    1128:	01909f25 	orrseq	r9, r0, r5, lsr #30
    112c:	01940000 	orrseq	r0, r4, r0
    1130:	00010000 	andeq	r0, r1, r0
    1134:	00019453 	andeq	r9, r1, r3, asr r4
    1138:	00019c00 	andeq	r9, r1, r0, lsl #24
    113c:	70001c00 	andvc	r1, r0, r0, lsl #24
    1140:	f72cf700 			; <UNDEFINED> instruction: 0xf72cf700
    1144:	0825f425 	stmdaeq	r5!, {r0, r2, r5, sl, ip, sp, lr, pc}
    1148:	cccccccd 	stclgt	12, cr12, [ip], {205}	; 0xcd
    114c:	00000000 	andeq	r0, r0, r0
    1150:	f720081e 			; <UNDEFINED> instruction: 0xf720081e
    1154:	2cf72525 	cfldr64cs	mvdx2, [r7], #148	; 0x94
    1158:	9c9f2533 	cfldr32ls	mvfx2, [pc], {51}	; 0x33
    115c:	a0000001 	andge	r0, r0, r1
    1160:	01000001 	tsteq	r0, r1
    1164:	01a05300 	lsleq	r5, r0, #6
    1168:	01a80000 			; <UNDEFINED> instruction: 0x01a80000
    116c:	001c0000 	andseq	r0, ip, r0
    1170:	2cf70070 	ldclcs	0, cr0, [r7], #448	; 0x1c0
    1174:	25f425f7 	ldrbcs	r2, [r4, #1527]!	; 0x5f7
    1178:	cccccd08 	stclgt	13, cr12, [ip], {8}
    117c:	000000cc 	andeq	r0, r0, ip, asr #1
    1180:	20081e00 	andcs	r1, r8, r0, lsl #28
    1184:	f72525f7 			; <UNDEFINED> instruction: 0xf72525f7
    1188:	9f25332c 	svcls	0x0025332c
    118c:	000001a8 	andeq	r0, r0, r8, lsr #3
    1190:	000001ac 	andeq	r0, r0, ip, lsr #3
    1194:	ac530001 	mrrcge	0, 0, r0, r3, cr1
    1198:	b4000001 	strlt	r0, [r0], #-1
    119c:	1c000001 	stcne	0, cr0, [r0], {1}
    11a0:	f7007000 			; <UNDEFINED> instruction: 0xf7007000
    11a4:	f425f72c 	vld1.8	{d15}, [r5 :128], ip
    11a8:	cccd0825 	stclgt	8, cr0, [sp], {37}	; 0x25
    11ac:	0000cccc 	andeq	ip, r0, ip, asr #25
    11b0:	081e0000 	ldmdaeq	lr, {}	; <UNPREDICTABLE>
    11b4:	2525f720 	strcs	pc, [r5, #-1824]!	; 0x720
    11b8:	25332cf7 	ldrcs	r2, [r3, #-3319]!	; 0xcf7
    11bc:	0001b49f 	muleq	r1, pc, r4	; <UNPREDICTABLE>
    11c0:	0001b800 	andeq	fp, r1, r0, lsl #16
    11c4:	53000100 	movwpl	r0, #256	; 0x100
    11c8:	000001b8 			; <UNDEFINED> instruction: 0x000001b8
    11cc:	000001c0 	andeq	r0, r0, r0, asr #3
    11d0:	0070001c 	rsbseq	r0, r0, ip, lsl r0
    11d4:	25f72cf7 	ldrbcs	r2, [r7, #3319]!	; 0xcf7
    11d8:	cd0825f4 	cfstr32gt	mvfx2, [r8, #-976]	; 0xfffffc30
    11dc:	00cccccc 	sbceq	ip, ip, ip, asr #25
    11e0:	1e000000 	cdpne	0, 0, cr0, cr0, cr0, {0}
    11e4:	25f72008 	ldrbcs	r2, [r7, #8]!
    11e8:	332cf725 	msrcc	CPSR_fs, #9699328	; 0x940000
    11ec:	01c09f25 	biceq	r9, r0, r5, lsr #30
    11f0:	01c40000 	biceq	r0, r4, r0
    11f4:	00010000 	andeq	r0, r1, r0
    11f8:	0001c453 	andeq	ip, r1, r3, asr r4
    11fc:	0001cc00 	andeq	ip, r1, r0, lsl #24
    1200:	70001c00 	andvc	r1, r0, r0, lsl #24
    1204:	f72cf700 			; <UNDEFINED> instruction: 0xf72cf700
    1208:	0825f425 	stmdaeq	r5!, {r0, r2, r5, sl, ip, sp, lr, pc}
    120c:	cccccccd 	stclgt	12, cr12, [ip], {205}	; 0xcd
    1210:	00000000 	andeq	r0, r0, r0
    1214:	f720081e 			; <UNDEFINED> instruction: 0xf720081e
    1218:	2cf72525 	cfldr64cs	mvdx2, [r7], #148	; 0x94
    121c:	cc9f2533 	cfldr32gt	mvfx2, [pc], {51}	; 0x33
    1220:	d0000001 	andle	r0, r0, r1
    1224:	01000001 	tsteq	r0, r1
    1228:	01d05300 	bicseq	r5, r0, r0, lsl #6
    122c:	01d40000 	bicseq	r0, r4, r0
    1230:	001c0000 	andseq	r0, ip, r0
    1234:	2cf70070 	ldclcs	0, cr0, [r7], #448	; 0x1c0
    1238:	25f425f7 	ldrbcs	r2, [r4, #1527]!	; 0x5f7
    123c:	cccccd08 	stclgt	13, cr12, [ip], {8}
    1240:	000000cc 	andeq	r0, r0, ip, asr #1
    1244:	20081e00 	andcs	r1, r8, r0, lsl #28
    1248:	f72525f7 			; <UNDEFINED> instruction: 0xf72525f7
    124c:	9f25332c 	svcls	0x0025332c
    1250:	000001d4 	ldrdeq	r0, [r0], -r4
    1254:	000001dc 	ldrdeq	r0, [r0], -ip
    1258:	0074001c 	rsbseq	r0, r4, ip, lsl r0
    125c:	25f72cf7 	ldrbcs	r2, [r7, #3319]!	; 0xcf7
    1260:	cd0825f4 	cfstr32gt	mvfx2, [r8, #-976]	; 0xfffffc30
    1264:	00cccccc 	sbceq	ip, ip, ip, asr #25
    1268:	1e000000 	cdpne	0, 0, cr0, cr0, cr0, {0}
    126c:	25f72008 	ldrbcs	r2, [r7, #8]!
    1270:	332cf725 	msrcc	CPSR_fs, #9699328	; 0x940000
    1274:	01dc9f25 	bicseq	r9, ip, r5, lsr #30
    1278:	01e00000 	mvneq	r0, r0
    127c:	00170000 	andseq	r0, r7, r0
    1280:	2cf70074 	ldclcs	0, cr0, [r7], #464	; 0x1d0
    1284:	007125f7 	ldrshteq	r2, [r1], #-87	; 0xffffffa9
    1288:	25f72cf7 	ldrbcs	r2, [r7, #3319]!	; 0xcf7
    128c:	f720081e 			; <UNDEFINED> instruction: 0xf720081e
    1290:	2cf72525 	cfldr64cs	mvdx2, [r7], #148	; 0x94
    1294:	e09f2533 	adds	r2, pc, r3, lsr r5	; <UNPREDICTABLE>
    1298:	10000001 	andne	r0, r0, r1
    129c:	1c000002 	stcne	0, cr0, [r0], {2}
    12a0:	f7007400 			; <UNDEFINED> instruction: 0xf7007400
    12a4:	f425f72c 	vld1.8	{d15}, [r5 :128], ip
    12a8:	cccd0825 	stclgt	8, cr0, [sp], {37}	; 0x25
    12ac:	0000cccc 	andeq	ip, r0, ip, asr #25
    12b0:	081e0000 	ldmdaeq	lr, {}	; <UNPREDICTABLE>
    12b4:	2525f720 	strcs	pc, [r5, #-1824]!	; 0x720
    12b8:	25332cf7 	ldrcs	r2, [r3, #-3319]!	; 0xcf7
    12bc:	0000009f 	muleq	r0, pc, r0	; <UNPREDICTABLE>
    12c0:	00000000 	andeq	r0, r0, r0
    12c4:	0001d800 	andeq	sp, r1, r0, lsl #16
    12c8:	0001fc00 	andeq	pc, r1, r0, lsl #24
    12cc:	50000100 	andpl	r0, r0, r0, lsl #2
    12d0:	000001fc 	strdeq	r0, [r0], -ip
    12d4:	00000203 	andeq	r0, r0, r3, lsl #4
    12d8:	00510001 	subseq	r0, r1, r1
    12dc:	00000000 	andeq	r0, r0, r0
    12e0:	10000000 	andne	r0, r0, r0
    12e4:	2c000002 	stccs	0, cr0, [r0], {2}
    12e8:	01000002 	tsteq	r0, r2
    12ec:	022c5000 	eoreq	r5, ip, #0
    12f0:	02340000 	eorseq	r0, r4, #0
    12f4:	00010000 	andeq	r0, r1, r0
    12f8:	00023454 	andeq	r3, r2, r4, asr r4
    12fc:	00023c00 	andeq	r3, r2, r0, lsl #24
    1300:	50000100 	andpl	r0, r0, r0, lsl #2
    1304:	0000023c 	andeq	r0, r0, ip, lsr r2
    1308:	00000244 	andeq	r0, r0, r4, asr #4
    130c:	44540001 	ldrbmi	r0, [r4], #-1
    1310:	50000002 	andpl	r0, r0, r2
    1314:	04000002 	streq	r0, [r0], #-2
    1318:	5001f300 	andpl	pc, r1, r0, lsl #6
    131c:	0002509f 	muleq	r2, pc, r0	; <UNPREDICTABLE>
    1320:	00025400 	andeq	r5, r2, r0, lsl #8
    1324:	50000100 	andpl	r0, r0, r0, lsl #2
    1328:	00000254 	andeq	r0, r0, r4, asr r2
    132c:	0000025c 	andeq	r0, r0, ip, asr r2
    1330:	00540001 	subseq	r0, r4, r1
    1334:	00000000 	andeq	r0, r0, r0
    1338:	20000000 	andcs	r0, r0, r0
    133c:	30000002 	andcc	r0, r0, r2
    1340:	02000002 	andeq	r0, r0, #2
    1344:	309f3000 	addscc	r3, pc, r0
    1348:	34000002 	strcc	r0, [r0], #-2
    134c:	01000002 	tsteq	r0, r2
    1350:	02345000 	eorseq	r5, r4, #0
    1354:	02400000 	subeq	r0, r0, #0
    1358:	00020000 	andeq	r0, r2, r0
    135c:	02409f30 	subeq	r9, r0, #48, 30	; 0xc0
    1360:	024c0000 	subeq	r0, ip, #0
    1364:	00010000 	andeq	r0, r1, r0
    1368:	00000050 	andeq	r0, r0, r0, asr r0
    136c:	00000000 	andeq	r0, r0, r0
    1370:	00025c00 	andeq	r5, r2, r0, lsl #24
    1374:	00029000 	andeq	r9, r2, r0
    1378:	50000100 	andpl	r0, r0, r0, lsl #2
    137c:	00000290 	muleq	r0, r0, r2
    1380:	000002a0 	andeq	r0, r0, r0, lsr #5
    1384:	01f30004 	mvnseq	r0, r4
    1388:	02a09f50 	adceq	r9, r0, #80, 30	; 0x140
    138c:	02c00000 	sbceq	r0, r0, #0
    1390:	00010000 	andeq	r0, r1, r0
    1394:	0002c050 	andeq	ip, r2, r0, asr r0
    1398:	0002d400 	andeq	sp, r2, r0, lsl #8
    139c:	f3000400 	vshl.u8	d0, d0, d0
    13a0:	009f5001 	addseq	r5, pc, r1
    13a4:	00000000 	andeq	r0, r0, r0
    13a8:	5c000000 	stcpl	0, cr0, [r0], {-0}
    13ac:	94000002 	strls	r0, [r0], #-2
    13b0:	01000002 	tsteq	r0, r2
    13b4:	02945100 	addseq	r5, r4, #0, 2
    13b8:	02a00000 	adceq	r0, r0, #0
    13bc:	00040000 	andeq	r0, r4, r0
    13c0:	9f5101f3 	svcls	0x005101f3
    13c4:	000002a0 	andeq	r0, r0, r0, lsr #5
    13c8:	000002c4 	andeq	r0, r0, r4, asr #5
    13cc:	c4510001 	ldrbgt	r0, [r1], #-1
    13d0:	d4000002 	strle	r0, [r0], #-2
    13d4:	04000002 	streq	r0, [r0], #-2
    13d8:	5101f300 	mrspl	pc, SP_irq	; <UNPREDICTABLE>
    13dc:	0000009f 	muleq	r0, pc, r0	; <UNPREDICTABLE>
    13e0:	00000000 	andeq	r0, r0, r0
    13e4:	00027000 	andeq	r7, r2, r0
    13e8:	00029000 	andeq	r9, r2, r0
    13ec:	50000100 	andpl	r0, r0, r0, lsl #2
    13f0:	00000290 	muleq	r0, r0, r2
    13f4:	000002a0 	andeq	r0, r0, r0, lsr #5
    13f8:	01f30004 	mvnseq	r0, r4
    13fc:	00009f50 	andeq	r9, r0, r0, asr pc
    1400:	00000000 	andeq	r0, r0, r0
    1404:	02780000 	rsbseq	r0, r8, #0
    1408:	02800000 	addeq	r0, r0, #0
    140c:	00020000 	andeq	r0, r2, r0
    1410:	02809f30 	addeq	r9, r0, #48, 30	; 0xc0
    1414:	02800000 	addeq	r0, r0, #0
    1418:	00010000 	andeq	r0, r1, r0
    141c:	00028052 	andeq	r8, r2, r2, asr r0
    1420:	00028800 	andeq	r8, r2, r0, lsl #16
    1424:	30000200 	andcc	r0, r0, r0, lsl #4
    1428:	0002889f 	muleq	r2, pc, r8	; <UNPREDICTABLE>
    142c:	00029b00 	andeq	r9, r2, r0, lsl #22
    1430:	52000100 	andpl	r0, r0, #0, 2
	...
    143c:	00000278 	andeq	r0, r0, r8, ror r2
    1440:	0000028c 	andeq	r0, r0, ip, lsl #5
    1444:	9f300002 	svcls	0x00300002
    1448:	0000028c 	andeq	r0, r0, ip, lsl #5
    144c:	00000298 	muleq	r0, r8, r2
    1450:	73310005 	teqvc	r1, #5
    1454:	989f2400 	ldmls	pc, {sl, sp}	; <UNPREDICTABLE>
    1458:	9b000002 	blls	1468 <_start-0x6b98>
    145c:	01000002 	tsteq	r0, r2
    1460:	029b5100 	addseq	r5, fp, #0, 2
    1464:	02a00000 	adceq	r0, r0, #0
    1468:	00080000 	andeq	r0, r8, r0
    146c:	5001f331 	andpl	pc, r1, r1, lsr r3	; <UNPREDICTABLE>
    1470:	9f241a4f 	svcls	0x00241a4f
	...
    147c:	000002a0 	andeq	r0, r0, r0, lsr #5
    1480:	000002c0 	andeq	r0, r0, r0, asr #5
    1484:	c0500001 	subsgt	r0, r0, r1
    1488:	d4000002 	strle	r0, [r0], #-2
    148c:	04000002 	streq	r0, [r0], #-2
    1490:	5001f300 	andpl	pc, r1, r0, lsl #6
    1494:	0000009f 	muleq	r0, pc, r0	; <UNPREDICTABLE>
    1498:	00000000 	andeq	r0, r0, r0
    149c:	0002a800 	andeq	sl, r2, r0, lsl #16
    14a0:	0002b000 	andeq	fp, r2, r0
    14a4:	30000200 	andcc	r0, r0, r0, lsl #4
    14a8:	0002b09f 	muleq	r2, pc, r0	; <UNPREDICTABLE>
    14ac:	0002b000 	andeq	fp, r2, r0
    14b0:	52000100 	andpl	r0, r0, #0, 2
    14b4:	000002b0 			; <UNDEFINED> instruction: 0x000002b0
    14b8:	000002b8 			; <UNDEFINED> instruction: 0x000002b8
    14bc:	9f300002 	svcls	0x00300002
    14c0:	000002b8 			; <UNDEFINED> instruction: 0x000002b8
    14c4:	000002cb 	andeq	r0, r0, fp, asr #5
    14c8:	00520001 	subseq	r0, r2, r1
    14cc:	00000000 	andeq	r0, r0, r0
    14d0:	a8000000 	stmdage	r0, {}	; <UNPREDICTABLE>
    14d4:	bc000002 	stclt	0, cr0, [r0], {2}
    14d8:	02000002 	andeq	r0, r0, #2
    14dc:	bc9f3000 	ldclt	0, cr3, [pc], {0}
    14e0:	c8000002 	stmdagt	r0, {r1}
    14e4:	05000002 	streq	r0, [r0, #-2]
    14e8:	00733100 	rsbseq	r3, r3, r0, lsl #2
    14ec:	02c89f24 	sbceq	r9, r8, #36, 30	; 0x90
    14f0:	02cb0000 	sbceq	r0, fp, #0
    14f4:	00010000 	andeq	r0, r1, r0
    14f8:	0002cb51 	andeq	ip, r2, r1, asr fp
    14fc:	0002d400 	andeq	sp, r2, r0, lsl #8
    1500:	31000800 	tstcc	r0, r0, lsl #16
    1504:	4f5001f3 	svcmi	0x005001f3
    1508:	009f241a 	addseq	r2, pc, sl, lsl r4	; <UNPREDICTABLE>
    150c:	00000000 	andeq	r0, r0, r0
    1510:	d4000000 	strle	r0, [r0], #-0
    1514:	6c000002 	stcvs	0, cr0, [r0], {2}
    1518:	01000003 	tsteq	r0, r3
    151c:	036c5000 	cmneq	ip, #0
    1520:	03ac0000 			; <UNDEFINED> instruction: 0x03ac0000
    1524:	00010000 	andeq	r0, r1, r0
    1528:	00000054 	andeq	r0, r0, r4, asr r0
    152c:	00000000 	andeq	r0, r0, r0
    1530:	0002d400 	andeq	sp, r2, r0, lsl #8
    1534:	00036f00 	andeq	r6, r3, r0, lsl #30
    1538:	51000100 	mrspl	r0, (UNDEF: 16)
    153c:	0000036f 	andeq	r0, r0, pc, ror #6
    1540:	000003ac 	andeq	r0, r0, ip, lsr #7
    1544:	01f30004 	mvnseq	r0, r4
    1548:	00009f51 	andeq	r9, r0, r1, asr pc
    154c:	00000000 	andeq	r0, r0, r0
    1550:	03240000 	teqeq	r4, #0
    1554:	03280000 	teqeq	r8, #0
    1558:	00010000 	andeq	r0, r1, r0
    155c:	00033056 	andeq	r3, r3, r6, asr r0
    1560:	00033400 	andeq	r3, r3, r0, lsl #8
    1564:	56000100 	strpl	r0, [r0], -r0, lsl #2
    1568:	0000033c 	andeq	r0, r0, ip, lsr r3
    156c:	00000340 	andeq	r0, r0, r0, asr #6
    1570:	48560001 	ldmdami	r6, {r0}^
    1574:	4c000003 	stcmi	0, cr0, [r0], {3}
    1578:	01000003 	tsteq	r0, r3
    157c:	03545600 	cmpeq	r4, #0, 12
    1580:	03580000 	cmpeq	r8, #0
    1584:	00010000 	andeq	r0, r1, r0
    1588:	00036056 	andeq	r6, r3, r6, asr r0
    158c:	00036400 	andeq	r6, r3, r0, lsl #8
    1590:	56000100 	strpl	r0, [r0], -r0, lsl #2
    1594:	00000368 	andeq	r0, r0, r8, ror #6
    1598:	000003ac 	andeq	r0, r0, ip, lsr #7
    159c:	00560001 	subseq	r0, r6, r1
    15a0:	00000000 	andeq	r0, r0, r0
    15a4:	f8000000 			; <UNDEFINED> instruction: 0xf8000000
    15a8:	20000002 	andcs	r0, r0, r2
    15ac:	01000003 	tsteq	r0, r3
    15b0:	03205300 	teqeq	r0, #0, 6
    15b4:	03280000 	teqeq	r8, #0
    15b8:	001c0000 	andseq	r0, ip, r0
    15bc:	2cf70070 	ldclcs	0, cr0, [r7], #448	; 0x1c0
    15c0:	25f425f7 	ldrbcs	r2, [r4, #1527]!	; 0x5f7
    15c4:	cccccd08 	stclgt	13, cr12, [ip], {8}
    15c8:	000000cc 	andeq	r0, r0, ip, asr #1
    15cc:	20081e00 	andcs	r1, r8, r0, lsl #28
    15d0:	f72525f7 			; <UNDEFINED> instruction: 0xf72525f7
    15d4:	9f25332c 	svcls	0x0025332c
    15d8:	00000328 	andeq	r0, r0, r8, lsr #6
    15dc:	0000032c 	andeq	r0, r0, ip, lsr #6
    15e0:	2c530001 	mrrccs	0, 0, r0, r3, cr1
    15e4:	34000003 	strcc	r0, [r0], #-3
    15e8:	1c000003 	stcne	0, cr0, [r0], {3}
    15ec:	f7007000 			; <UNDEFINED> instruction: 0xf7007000
    15f0:	f425f72c 	vld1.8	{d15}, [r5 :128], ip
    15f4:	cccd0825 	stclgt	8, cr0, [sp], {37}	; 0x25
    15f8:	0000cccc 	andeq	ip, r0, ip, asr #25
    15fc:	081e0000 	ldmdaeq	lr, {}	; <UNPREDICTABLE>
    1600:	2525f720 	strcs	pc, [r5, #-1824]!	; 0x720
    1604:	25332cf7 	ldrcs	r2, [r3, #-3319]!	; 0xcf7
    1608:	0003349f 	muleq	r3, pc, r4	; <UNPREDICTABLE>
    160c:	00033800 	andeq	r3, r3, r0, lsl #16
    1610:	53000100 	movwpl	r0, #256	; 0x100
    1614:	00000338 	andeq	r0, r0, r8, lsr r3
    1618:	00000340 	andeq	r0, r0, r0, asr #6
    161c:	0070001c 	rsbseq	r0, r0, ip, lsl r0
    1620:	25f72cf7 	ldrbcs	r2, [r7, #3319]!	; 0xcf7
    1624:	cd0825f4 	cfstr32gt	mvfx2, [r8, #-976]	; 0xfffffc30
    1628:	00cccccc 	sbceq	ip, ip, ip, asr #25
    162c:	1e000000 	cdpne	0, 0, cr0, cr0, cr0, {0}
    1630:	25f72008 	ldrbcs	r2, [r7, #8]!
    1634:	332cf725 	msrcc	CPSR_fs, #9699328	; 0x940000
    1638:	03409f25 	movteq	r9, #3877	; 0xf25
    163c:	03440000 	movteq	r0, #16384	; 0x4000
    1640:	00010000 	andeq	r0, r1, r0
    1644:	00034453 	andeq	r4, r3, r3, asr r4
    1648:	00034c00 	andeq	r4, r3, r0, lsl #24
    164c:	70001c00 	andvc	r1, r0, r0, lsl #24
    1650:	f72cf700 			; <UNDEFINED> instruction: 0xf72cf700
    1654:	0825f425 	stmdaeq	r5!, {r0, r2, r5, sl, ip, sp, lr, pc}
    1658:	cccccccd 	stclgt	12, cr12, [ip], {205}	; 0xcd
    165c:	00000000 	andeq	r0, r0, r0
    1660:	f720081e 			; <UNDEFINED> instruction: 0xf720081e
    1664:	2cf72525 	cfldr64cs	mvdx2, [r7], #148	; 0x94
    1668:	4c9f2533 	cfldr32mi	mvfx2, [pc], {51}	; 0x33
    166c:	50000003 	andpl	r0, r0, r3
    1670:	01000003 	tsteq	r0, r3
    1674:	03505300 	cmpeq	r0, #0, 6
    1678:	03580000 	cmpeq	r8, #0
    167c:	001c0000 	andseq	r0, ip, r0
    1680:	2cf70070 	ldclcs	0, cr0, [r7], #448	; 0x1c0
    1684:	25f425f7 	ldrbcs	r2, [r4, #1527]!	; 0x5f7
    1688:	cccccd08 	stclgt	13, cr12, [ip], {8}
    168c:	000000cc 	andeq	r0, r0, ip, asr #1
    1690:	20081e00 	andcs	r1, r8, r0, lsl #28
    1694:	f72525f7 			; <UNDEFINED> instruction: 0xf72525f7
    1698:	9f25332c 	svcls	0x0025332c
    169c:	00000358 	andeq	r0, r0, r8, asr r3
    16a0:	0000035c 	andeq	r0, r0, ip, asr r3
    16a4:	5c530001 	mrrcpl	0, 0, r0, r3, cr1
    16a8:	64000003 	strvs	r0, [r0], #-3
    16ac:	1c000003 	stcne	0, cr0, [r0], {3}
    16b0:	f7007000 			; <UNDEFINED> instruction: 0xf7007000
    16b4:	f425f72c 	vld1.8	{d15}, [r5 :128], ip
    16b8:	cccd0825 	stclgt	8, cr0, [sp], {37}	; 0x25
    16bc:	0000cccc 	andeq	ip, r0, ip, asr #25
    16c0:	081e0000 	ldmdaeq	lr, {}	; <UNPREDICTABLE>
    16c4:	2525f720 	strcs	pc, [r5, #-1824]!	; 0x720
    16c8:	25332cf7 	ldrcs	r2, [r3, #-3319]!	; 0xcf7
    16cc:	0003649f 	muleq	r3, pc, r4	; <UNPREDICTABLE>
    16d0:	00036800 	andeq	r6, r3, r0, lsl #16
    16d4:	53000100 	movwpl	r0, #256	; 0x100
    16d8:	00000368 	andeq	r0, r0, r8, ror #6
    16dc:	0000036c 	andeq	r0, r0, ip, ror #6
    16e0:	0070001c 	rsbseq	r0, r0, ip, lsl r0
    16e4:	25f72cf7 	ldrbcs	r2, [r7, #3319]!	; 0xcf7
    16e8:	cd0825f4 	cfstr32gt	mvfx2, [r8, #-976]	; 0xfffffc30
    16ec:	00cccccc 	sbceq	ip, ip, ip, asr #25
    16f0:	1e000000 	cdpne	0, 0, cr0, cr0, cr0, {0}
    16f4:	25f72008 	ldrbcs	r2, [r7, #8]!
    16f8:	332cf725 	msrcc	CPSR_fs, #9699328	; 0x940000
    16fc:	036c9f25 	cmneq	ip, #37, 30	; 0x94
    1700:	03740000 	cmneq	r4, #0
    1704:	001c0000 	andseq	r0, ip, r0
    1708:	2cf70074 	ldclcs	0, cr0, [r7], #464	; 0x1d0
    170c:	25f425f7 	ldrbcs	r2, [r4, #1527]!	; 0x5f7
    1710:	cccccd08 	stclgt	13, cr12, [ip], {8}
    1714:	000000cc 	andeq	r0, r0, ip, asr #1
    1718:	20081e00 	andcs	r1, r8, r0, lsl #28
    171c:	f72525f7 			; <UNDEFINED> instruction: 0xf72525f7
    1720:	9f25332c 	svcls	0x0025332c
    1724:	00000374 	andeq	r0, r0, r4, ror r3
    1728:	00000378 	andeq	r0, r0, r8, ror r3
    172c:	00740017 	rsbseq	r0, r4, r7, lsl r0
    1730:	25f72cf7 	ldrbcs	r2, [r7, #3319]!	; 0xcf7
    1734:	2cf70073 	ldclcs	0, cr0, [r7], #460	; 0x1cc
    1738:	081e25f7 	ldmdaeq	lr, {r0, r1, r2, r4, r5, r6, r7, r8, sl, sp}
    173c:	2525f720 	strcs	pc, [r5, #-1824]!	; 0x720
    1740:	25332cf7 	ldrcs	r2, [r3, #-3319]!	; 0xcf7
    1744:	0003789f 	muleq	r3, pc, r8	; <UNPREDICTABLE>
    1748:	0003ac00 	andeq	sl, r3, r0, lsl #24
    174c:	74001c00 	strvc	r1, [r0], #-3072	; 0xc00
    1750:	f72cf700 			; <UNDEFINED> instruction: 0xf72cf700
    1754:	0825f425 	stmdaeq	r5!, {r0, r2, r5, sl, ip, sp, lr, pc}
    1758:	cccccccd 	stclgt	12, cr12, [ip], {205}	; 0xcd
    175c:	00000000 	andeq	r0, r0, r0
    1760:	f720081e 			; <UNDEFINED> instruction: 0xf720081e
    1764:	2cf72525 	cfldr64cs	mvdx2, [r7], #148	; 0x94
    1768:	009f2533 	addseq	r2, pc, r3, lsr r5	; <UNPREDICTABLE>
    176c:	00000000 	andeq	r0, r0, r0
    1770:	70000000 	andvc	r0, r0, r0
    1774:	94000003 	strls	r0, [r0], #-3
    1778:	01000003 	tsteq	r0, r3
    177c:	03945000 	orrseq	r5, r4, #0
    1780:	039c0000 	orrseq	r0, ip, #0
    1784:	00090000 	andeq	r0, r9, r0
    1788:	00730075 	rsbseq	r0, r3, r5, ror r0
    178c:	21007124 	tstcs	r0, r4, lsr #2
    1790:	00039c9f 	muleq	r3, pc, ip	; <UNPREDICTABLE>
    1794:	00039f00 	andeq	r9, r3, r0, lsl #30
    1798:	51000100 	mrspl	r0, (UNDEF: 16)
	...
    17a4:	000003ac 	andeq	r0, r0, ip, lsr #7
    17a8:	000003b8 			; <UNDEFINED> instruction: 0x000003b8
    17ac:	b8500001 	ldmdalt	r0, {r0}^
    17b0:	d8000003 	stmdale	r0, {r0, r1}
    17b4:	04000003 	streq	r0, [r0], #-3
    17b8:	5001f300 	andpl	pc, r1, r0, lsl #6
    17bc:	0000009f 	muleq	r0, pc, r0	; <UNPREDICTABLE>
    17c0:	00000000 	andeq	r0, r0, r0
    17c4:	0003d800 	andeq	sp, r3, r0, lsl #16
    17c8:	0003eb00 	andeq	lr, r3, r0, lsl #22
    17cc:	50000100 	andpl	r0, r0, r0, lsl #2
    17d0:	000003eb 	andeq	r0, r0, fp, ror #7
    17d4:	00000424 	andeq	r0, r0, r4, lsr #8
    17d8:	24540001 	ldrbcs	r0, [r4], #-1
    17dc:	5c000004 	stcpl	0, cr0, [r0], {4}
    17e0:	04000004 	streq	r0, [r0], #-4
    17e4:	5001f300 	andpl	pc, r1, r0, lsl #6
    17e8:	0000009f 	muleq	r0, pc, r0	; <UNPREDICTABLE>
    17ec:	00000000 	andeq	r0, r0, r0
    17f0:	00044400 	andeq	r4, r4, r0, lsl #8
    17f4:	00044800 	andeq	r4, r4, r0, lsl #16
    17f8:	50000100 	andpl	r0, r0, r0, lsl #2
    17fc:	00000448 	andeq	r0, r0, r8, asr #8
    1800:	0000044f 	andeq	r0, r0, pc, asr #8
    1804:	00510001 	subseq	r0, r1, r1
	...
    1810:	08000004 	stmdaeq	r0, {r2}
    1814:	01000004 	tsteq	r0, r4
    1818:	04085000 	streq	r5, [r8], #-0
    181c:	040f0000 	streq	r0, [pc], #-0	; 1824 <_start-0x67dc>
    1820:	00010000 	andeq	r0, r1, r0
    1824:	00000051 	andeq	r0, r0, r1, asr r0
    1828:	00000000 	andeq	r0, r0, r0
    182c:	00042000 	andeq	r2, r4, r0
    1830:	00042c00 	andeq	r2, r4, r0, lsl #24
    1834:	50000100 	andpl	r0, r0, r0, lsl #2
    1838:	0000042c 	andeq	r0, r0, ip, lsr #8
    183c:	00000433 	andeq	r0, r0, r3, lsr r4
    1840:	00510001 	subseq	r0, r1, r1
    1844:	00000000 	andeq	r0, r0, r0
    1848:	5c000000 	stcpl	0, cr0, [r0], {-0}
    184c:	6f000004 	svcvs	0x00000004
    1850:	01000004 	tsteq	r0, r4
    1854:	046f5000 	strbteq	r5, [pc], #-0	; 185c <_start-0x67a4>
    1858:	04a80000 	strteq	r0, [r8], #0
    185c:	00010000 	andeq	r0, r1, r0
    1860:	0004a854 	andeq	sl, r4, r4, asr r8
    1864:	0004e000 	andeq	lr, r4, r0
    1868:	f3000400 	vshl.u8	d0, d0, d0
    186c:	009f5001 	addseq	r5, pc, r1
    1870:	00000000 	andeq	r0, r0, r0
    1874:	c8000000 	stmdagt	r0, {}	; <UNPREDICTABLE>
    1878:	cc000004 	stcgt	0, cr0, [r0], {4}
    187c:	01000004 	tsteq	r0, r4
    1880:	04cc5000 	strbeq	r5, [ip], #0
    1884:	04d30000 	ldrbeq	r0, [r3], #0
    1888:	00010000 	andeq	r0, r1, r0
    188c:	00000051 	andeq	r0, r0, r1, asr r0
    1890:	00000000 	andeq	r0, r0, r0
    1894:	00048400 	andeq	r8, r4, r0, lsl #8
    1898:	00048c00 	andeq	r8, r4, r0, lsl #24
    189c:	50000100 	andpl	r0, r0, r0, lsl #2
    18a0:	0000048c 	andeq	r0, r0, ip, lsl #9
    18a4:	00000493 	muleq	r0, r3, r4
    18a8:	00510001 	subseq	r0, r1, r1
    18ac:	00000000 	andeq	r0, r0, r0
    18b0:	a4000000 	strge	r0, [r0], #-0
    18b4:	b0000004 	andlt	r0, r0, r4
    18b8:	01000004 	tsteq	r0, r4
    18bc:	04b05000 	ldrteq	r5, [r0], #0
    18c0:	04b70000 	ldrteq	r0, [r7], #0
    18c4:	00010000 	andeq	r0, r1, r0
    18c8:	00000051 	andeq	r0, r0, r1, asr r0
    18cc:	00000000 	andeq	r0, r0, r0
    18d0:	0004e000 	andeq	lr, r4, r0
    18d4:	0004f300 	andeq	pc, r4, r0, lsl #6
    18d8:	50000100 	andpl	r0, r0, r0, lsl #2
    18dc:	000004f3 	strdeq	r0, [r0], -r3
    18e0:	00000534 	andeq	r0, r0, r4, lsr r5
    18e4:	34540001 	ldrbcc	r0, [r4], #-1
    18e8:	58000005 	stmdapl	r0, {r0, r2}
    18ec:	04000005 	streq	r0, [r0], #-5
    18f0:	5001f300 	andpl	pc, r1, r0, lsl #6
    18f4:	0005589f 	muleq	r5, pc, r8	; <UNPREDICTABLE>
    18f8:	00055c00 	andeq	r5, r5, r0, lsl #24
    18fc:	50000100 	andpl	r0, r0, r0, lsl #2
    1900:	0000055c 	andeq	r0, r0, ip, asr r5
    1904:	00000564 	andeq	r0, r0, r4, ror #10
    1908:	00540001 	subseq	r0, r4, r1
    190c:	00000000 	andeq	r0, r0, r0
    1910:	08000000 	stmdaeq	r0, {}	; <UNPREDICTABLE>
    1914:	17000005 	strne	r0, [r0, -r5]
    1918:	08000005 	stmdaeq	r0, {r0, r2}
    191c:	00743100 	rsbseq	r3, r4, r0, lsl #2
    1920:	1a007024 	bne	1d9b8 <__bss_end__+0xf0c0>
    1924:	0000009f 	muleq	r0, pc, r0	; <UNPREDICTABLE>
    1928:	00000000 	andeq	r0, r0, r0
    192c:	00053400 	andeq	r3, r5, r0, lsl #8
    1930:	00054c00 	andeq	r4, r5, r0, lsl #24
    1934:	54000100 	strpl	r0, [r0], #-256	; 0x100
	...
    1940:	00000564 	andeq	r0, r0, r4, ror #10
    1944:	00000577 	andeq	r0, r0, r7, ror r5
    1948:	77500001 	ldrbvc	r0, [r0, -r1]
    194c:	9c000005 	stcls	0, cr0, [r0], {5}
    1950:	01000005 	tsteq	r0, r5
    1954:	059c5400 	ldreq	r5, [ip, #1024]	; 0x400
    1958:	05bc0000 	ldreq	r0, [ip, #0]!
    195c:	00040000 	andeq	r0, r4, r0
    1960:	9f5001f3 	svcls	0x005001f3
	...
    1970:	00000018 	andeq	r0, r0, r8, lsl r0
    1974:	18500001 	ldmdane	r0, {r0}^
    1978:	54000000 	strpl	r0, [r0], #-0
    197c:	04000001 	streq	r0, [r0], #-1
    1980:	5001f300 	andpl	pc, r1, r0, lsl #6
    1984:	0000009f 	muleq	r0, pc, r0	; <UNPREDICTABLE>
	...
    1990:	00001c00 	andeq	r1, r0, r0, lsl #24
    1994:	51000100 	mrspl	r0, (UNDEF: 16)
    1998:	0000001c 	andeq	r0, r0, ip, lsl r0
    199c:	00000154 	andeq	r0, r0, r4, asr r1
    19a0:	01f30004 	mvnseq	r0, r4
    19a4:	00009f51 	andeq	r9, r0, r1, asr pc
    19a8:	00000000 	andeq	r0, r0, r0
    19ac:	00100000 	andseq	r0, r0, r0
    19b0:	01340000 	teqeq	r4, r0
    19b4:	00010000 	andeq	r0, r1, r0
    19b8:	00000055 	andeq	r0, r0, r5, asr r0
    19bc:	00000000 	andeq	r0, r0, r0
    19c0:	00001000 	andeq	r1, r0, r0
    19c4:	00003400 	andeq	r3, r0, r0, lsl #8
    19c8:	55000100 	strpl	r0, [r0, #-256]	; 0x100
    19cc:	00000034 	andeq	r0, r0, r4, lsr r0
    19d0:	00000134 	andeq	r0, r0, r4, lsr r1
    19d4:	34580001 	ldrbcc	r0, [r8], #-1
    19d8:	54000001 	strpl	r0, [r0], #-1
    19dc:	01000001 	tsteq	r0, r1
    19e0:	00005500 	andeq	r5, r0, r0, lsl #10
    19e4:	00000000 	andeq	r0, r0, r0
    19e8:	00140000 	andseq	r0, r4, r0
    19ec:	01340000 	teqeq	r4, r0
    19f0:	00010000 	andeq	r0, r1, r0
    19f4:	00000055 	andeq	r0, r0, r5, asr r0
    19f8:	00000000 	andeq	r0, r0, r0
    19fc:	00002000 	andeq	r2, r0, r0
    1a00:	00013400 	andeq	r3, r1, r0, lsl #8
    1a04:	55000100 	strpl	r0, [r0, #-256]	; 0x100
	...
    1a10:	00000024 	andeq	r0, r0, r4, lsr #32
    1a14:	00000028 	andeq	r0, r0, r8, lsr #32
    1a18:	00530001 	subseq	r0, r3, r1
    1a1c:	00000000 	andeq	r0, r0, r0
    1a20:	34000000 	strcc	r0, [r0], #-0
    1a24:	54000000 	strpl	r0, [r0], #-0
    1a28:	01000000 	mrseq	r0, (UNDEF: 0)
    1a2c:	00545800 	subseq	r5, r4, r0, lsl #16
    1a30:	01340000 	teqeq	r4, r0
    1a34:	00050000 	andeq	r0, r5, r0
    1a38:	24310075 	ldrtcs	r0, [r1], #-117	; 0x75
    1a3c:	0000009f 	muleq	r0, pc, r0	; <UNPREDICTABLE>
    1a40:	00000000 	andeq	r0, r0, r0
    1a44:	00003400 	andeq	r3, r0, r0, lsl #8
    1a48:	00003c00 	andeq	r3, r0, r0, lsl #24
    1a4c:	77000500 	strvc	r0, [r0, -r0, lsl #10]
    1a50:	9f1a3100 	svcls	0x001a3100
    1a54:	0000003c 	andeq	r0, r0, ip, lsr r0
    1a58:	0000003f 	andeq	r0, r0, pc, lsr r0
    1a5c:	3f510001 	svccc	0x00510001
    1a60:	54000000 	strpl	r0, [r0], #-0
    1a64:	05000001 	streq	r0, [r0, #-1]
    1a68:	31007700 	tstcc	r0, r0, lsl #14
    1a6c:	00009f1a 	andeq	r9, r0, sl, lsl pc
    1a70:	00000000 	andeq	r0, r0, r0
    1a74:	00400000 	subeq	r0, r0, r0
    1a78:	00540000 	subseq	r0, r4, r0
    1a7c:	00010000 	andeq	r0, r1, r0
    1a80:	00005458 	andeq	r5, r0, r8, asr r4
    1a84:	00013400 	andeq	r3, r1, r0, lsl #8
    1a88:	75000500 	strvc	r0, [r0, #-1280]	; 0x500
    1a8c:	9f243100 	svcls	0x00243100
	...
    1a98:	00000044 	andeq	r0, r0, r4, asr #32
    1a9c:	00000048 	andeq	r0, r0, r8, asr #32
    1aa0:	00530001 	subseq	r0, r3, r1
    1aa4:	00000000 	andeq	r0, r0, r0
    1aa8:	54000000 	strpl	r0, [r0], #-0
    1aac:	74000000 	strvc	r0, [r0], #-0
    1ab0:	01000000 	mrseq	r0, (UNDEF: 0)
    1ab4:	00745800 	rsbseq	r5, r4, r0, lsl #16
    1ab8:	01340000 	teqeq	r4, r0
    1abc:	00080000 	andeq	r0, r8, r0
    1ac0:	24310075 	ldrtcs	r0, [r1], #-117	; 0x75
    1ac4:	9f220075 	svcls	0x00220075
	...
    1ad0:	00000060 	andeq	r0, r0, r0, rrx
    1ad4:	00000074 	andeq	r0, r0, r4, ror r0
    1ad8:	74580001 	ldrbvc	r0, [r8], #-1
    1adc:	34000000 	strcc	r0, [r0], #-0
    1ae0:	08000001 	stmdaeq	r0, {r0}
    1ae4:	31007500 	tstcc	r0, r0, lsl #10
    1ae8:	22007524 	andcs	r7, r0, #36, 10	; 0x9000000
    1aec:	0000009f 	muleq	r0, pc, r0	; <UNPREDICTABLE>
    1af0:	00000000 	andeq	r0, r0, r0
    1af4:	00006400 	andeq	r6, r0, r0, lsl #8
    1af8:	00006800 	andeq	r6, r0, r0, lsl #16
    1afc:	53000100 	movwpl	r0, #256	; 0x100
	...
    1b08:	00000074 	andeq	r0, r0, r4, ror r0
    1b0c:	00000094 	muleq	r0, r4, r0
    1b10:	94580001 	ldrbls	r0, [r8], #-1
    1b14:	34000000 	strcc	r0, [r0], #-0
    1b18:	05000001 	streq	r0, [r0, #-1]
    1b1c:	32007500 	andcc	r7, r0, #0, 10
    1b20:	00009f24 	andeq	r9, r0, r4, lsr #30
    1b24:	00000000 	andeq	r0, r0, r0
    1b28:	00800000 	addeq	r0, r0, r0
    1b2c:	00940000 	addseq	r0, r4, r0
    1b30:	00010000 	andeq	r0, r1, r0
    1b34:	00009458 	andeq	r9, r0, r8, asr r4
    1b38:	00013400 	andeq	r3, r1, r0, lsl #8
    1b3c:	75000500 	strvc	r0, [r0, #-1280]	; 0x500
    1b40:	9f243200 	svcls	0x00243200
	...
    1b4c:	00000084 	andeq	r0, r0, r4, lsl #1
    1b50:	00000088 	andeq	r0, r0, r8, lsl #1
    1b54:	00530001 	subseq	r0, r3, r1
    1b58:	00000000 	andeq	r0, r0, r0
    1b5c:	94000000 	strls	r0, [r0], #-0
    1b60:	b4000000 	strlt	r0, [r0], #-0
    1b64:	01000000 	mrseq	r0, (UNDEF: 0)
    1b68:	00b45800 	adcseq	r5, r4, r0, lsl #16
    1b6c:	01340000 	teqeq	r4, r0
    1b70:	00080000 	andeq	r0, r8, r0
    1b74:	24320075 	ldrtcs	r0, [r2], #-117	; 0x75
    1b78:	9f220075 	svcls	0x00220075
	...
    1b84:	000000a0 	andeq	r0, r0, r0, lsr #1
    1b88:	000000b4 	strheq	r0, [r0], -r4
    1b8c:	b4580001 	ldrblt	r0, [r8], #-1
    1b90:	34000000 	strcc	r0, [r0], #-0
    1b94:	08000001 	stmdaeq	r0, {r0}
    1b98:	32007500 	andcc	r7, r0, #0, 10
    1b9c:	22007524 	andcs	r7, r0, #36, 10	; 0x9000000
    1ba0:	0000009f 	muleq	r0, pc, r0	; <UNPREDICTABLE>
    1ba4:	00000000 	andeq	r0, r0, r0
    1ba8:	0000a400 	andeq	sl, r0, r0, lsl #8
    1bac:	0000a800 	andeq	sl, r0, r0, lsl #16
    1bb0:	53000100 	movwpl	r0, #256	; 0x100
	...
    1bbc:	000000b4 	strheq	r0, [r0], -r4
    1bc0:	000000d4 	ldrdeq	r0, [r0], -r4
    1bc4:	d4580001 	ldrble	r0, [r8], #-1
    1bc8:	34000000 	strcc	r0, [r0], #-0
    1bcc:	0a000001 	beq	1bd8 <_start-0x6428>
    1bd0:	32007500 	andcc	r7, r0, #0, 10
    1bd4:	31007524 	tstcc	r0, r4, lsr #10
    1bd8:	009f2224 	addseq	r2, pc, r4, lsr #4
    1bdc:	00000000 	andeq	r0, r0, r0
    1be0:	c0000000 	andgt	r0, r0, r0
    1be4:	d4000000 	strle	r0, [r0], #-0
    1be8:	01000000 	mrseq	r0, (UNDEF: 0)
    1bec:	00d45800 	sbcseq	r5, r4, r0, lsl #16
    1bf0:	01340000 	teqeq	r4, r0
    1bf4:	000a0000 	andeq	r0, sl, r0
    1bf8:	24320075 	ldrtcs	r0, [r2], #-117	; 0x75
    1bfc:	24310075 	ldrtcs	r0, [r1], #-117	; 0x75
    1c00:	00009f22 	andeq	r9, r0, r2, lsr #30
    1c04:	00000000 	andeq	r0, r0, r0
    1c08:	00c40000 	sbceq	r0, r4, r0
    1c0c:	00c80000 	sbceq	r0, r8, r0
    1c10:	00010000 	andeq	r0, r1, r0
    1c14:	00000053 	andeq	r0, r0, r3, asr r0
    1c18:	00000000 	andeq	r0, r0, r0
    1c1c:	0000d400 	andeq	sp, r0, r0, lsl #8
    1c20:	0000f400 	andeq	pc, r0, r0, lsl #8
    1c24:	58000100 	stmdapl	r0, {r8}
    1c28:	000000f4 	strdeq	r0, [r0], -r4
    1c2c:	00000134 	andeq	r0, r0, r4, lsr r1
    1c30:	0075000d 	rsbseq	r0, r5, sp
    1c34:	00752432 	rsbseq	r2, r5, r2, lsr r4
    1c38:	75222431 	strvc	r2, [r2, #-1073]!	; 0x431
    1c3c:	009f2200 	addseq	r2, pc, r0, lsl #4
    1c40:	00000000 	andeq	r0, r0, r0
    1c44:	e0000000 	and	r0, r0, r0
    1c48:	f4000000 	vst4.8	{d0-d3}, [r0], r0
    1c4c:	01000000 	mrseq	r0, (UNDEF: 0)
    1c50:	00f45800 	rscseq	r5, r4, r0, lsl #16
    1c54:	01340000 	teqeq	r4, r0
    1c58:	000d0000 	andeq	r0, sp, r0
    1c5c:	24320075 	ldrtcs	r0, [r2], #-117	; 0x75
    1c60:	24310075 	ldrtcs	r0, [r1], #-117	; 0x75
    1c64:	22007522 	andcs	r7, r0, #142606336	; 0x8800000
    1c68:	0000009f 	muleq	r0, pc, r0	; <UNPREDICTABLE>
    1c6c:	00000000 	andeq	r0, r0, r0
    1c70:	0000e400 	andeq	lr, r0, r0, lsl #8
    1c74:	0000e800 	andeq	lr, r0, r0, lsl #16
    1c78:	53000100 	movwpl	r0, #256	; 0x100
	...
    1c84:	000000f4 	strdeq	r0, [r0], -r4
    1c88:	00000114 	andeq	r0, r0, r4, lsl r1
    1c8c:	14580001 	ldrbne	r0, [r8], #-1
    1c90:	34000001 	strcc	r0, [r0], #-1
    1c94:	05000001 	streq	r0, [r0, #-1]
    1c98:	33007500 	movwcc	r7, #1280	; 0x500
    1c9c:	00009f24 	andeq	r9, r0, r4, lsr #30
    1ca0:	00000000 	andeq	r0, r0, r0
    1ca4:	01000000 	mrseq	r0, (UNDEF: 0)
    1ca8:	01140000 	tsteq	r4, r0
    1cac:	00010000 	andeq	r0, r1, r0
    1cb0:	00011458 	andeq	r1, r1, r8, asr r4
    1cb4:	00013400 	andeq	r3, r1, r0, lsl #8
    1cb8:	75000500 	strvc	r0, [r0, #-1280]	; 0x500
    1cbc:	9f243300 	svcls	0x00243300
	...
    1cc8:	00000104 	andeq	r0, r0, r4, lsl #2
    1ccc:	00000108 	andeq	r0, r0, r8, lsl #2
    1cd0:	00530001 	subseq	r0, r3, r1
    1cd4:	00000000 	andeq	r0, r0, r0
    1cd8:	14000000 	strne	r0, [r0], #-0
    1cdc:	1c000001 	stcne	0, cr0, [r0], {1}
    1ce0:	06000001 	streq	r0, [r0], -r1
    1ce4:	08007700 	stmdaeq	r0, {r8, r9, sl, ip, sp, lr}
    1ce8:	1c9f1a80 	vldmiane	pc, {s2-s129}
    1cec:	1f000001 	svcne	0x00000001
    1cf0:	01000001 	tsteq	r0, r1
    1cf4:	011f5100 	tsteq	pc, r0, lsl #2
    1cf8:	01540000 	cmpeq	r4, r0
    1cfc:	00060000 	andeq	r0, r6, r0
    1d00:	80080077 	andhi	r0, r8, r7, ror r0
    1d04:	00009f1a 	andeq	r9, r0, sl, lsl pc
    1d08:	00000000 	andeq	r0, r0, r0
    1d0c:	01240000 	teqeq	r4, r0
    1d10:	01280000 	teqeq	r8, r0
    1d14:	00010000 	andeq	r0, r1, r0
    1d18:	00000053 	andeq	r0, r0, r3, asr r0
    1d1c:	00000000 	andeq	r0, r0, r0
    1d20:	00014400 	andeq	r4, r1, r0, lsl #8
    1d24:	00014800 	andeq	r4, r1, r0, lsl #16
    1d28:	53000100 	movwpl	r0, #256	; 0x100
	...
    1d34:	00000154 	andeq	r0, r0, r4, asr r1
    1d38:	0000016b 	andeq	r0, r0, fp, ror #2
    1d3c:	6b500001 	blvs	1401d48 <__bss_end__+0x13f3450>
    1d40:	d0000001 	andle	r0, r0, r1
    1d44:	01000001 	tsteq	r0, r1
    1d48:	01d05900 	bicseq	r5, r0, r0, lsl #18
    1d4c:	030c0000 	movweq	r0, #49152	; 0xc000
    1d50:	00040000 	andeq	r0, r4, r0
    1d54:	9f5001f3 	svcls	0x005001f3
    1d58:	0000030c 	andeq	r0, r0, ip, lsl #6
    1d5c:	00000314 	andeq	r0, r0, r4, lsl r3
    1d60:	14590001 	ldrbne	r0, [r9], #-1
    1d64:	1c000003 	stcne	0, cr0, [r0], {3}
    1d68:	04000003 	streq	r0, [r0], #-3
    1d6c:	5001f300 	andpl	pc, r1, r0, lsl #6
    1d70:	0000009f 	muleq	r0, pc, r0	; <UNPREDICTABLE>
    1d74:	00000000 	andeq	r0, r0, r0
    1d78:	00015400 	andeq	r5, r1, r0, lsl #8
    1d7c:	00016b00 	andeq	r6, r1, r0, lsl #22
    1d80:	51000100 	mrspl	r0, (UNDEF: 16)
    1d84:	0000016b 	andeq	r0, r0, fp, ror #2
    1d88:	0000031c 	andeq	r0, r0, ip, lsl r3
    1d8c:	00560001 	subseq	r0, r6, r1
    1d90:	00000000 	andeq	r0, r0, r0
    1d94:	a8000000 	stmdage	r0, {}	; <UNPREDICTABLE>
    1d98:	98000001 	stmdals	r0, {r0}
    1d9c:	01000002 	tsteq	r0, r2
    1da0:	00005800 	andeq	r5, r0, r0, lsl #16
    1da4:	00000000 	andeq	r0, r0, r0
    1da8:	01ac0000 			; <UNDEFINED> instruction: 0x01ac0000
    1dac:	02d00000 	sbcseq	r0, r0, #0
    1db0:	00010000 	andeq	r0, r1, r0
    1db4:	00000054 	andeq	r0, r0, r4, asr r0
    1db8:	00000000 	andeq	r0, r0, r0
    1dbc:	0001ac00 	andeq	sl, r1, r0, lsl #24
    1dc0:	0002d000 	andeq	sp, r2, r0
    1dc4:	74000500 	strvc	r0, [r0], #-1280	; 0x500
    1dc8:	9f253100 	svcls	0x00253100
	...
    1dd4:	000001ac 	andeq	r0, r0, ip, lsr #3
    1dd8:	000001d0 	ldrdeq	r0, [r0], -r0	; <UNPREDICTABLE>
    1ddc:	9f300002 	svcls	0x00300002
    1de0:	000001d0 	ldrdeq	r0, [r0], -r0	; <UNPREDICTABLE>
    1de4:	0000030c 	andeq	r0, r0, ip, lsl #6
    1de8:	14590001 	ldrbne	r0, [r9], #-1
    1dec:	1c000003 	stcne	0, cr0, [r0], {3}
    1df0:	01000003 	tsteq	r0, r3
    1df4:	00005900 	andeq	r5, r0, r0, lsl #18
    1df8:	00000000 	andeq	r0, r0, r0
    1dfc:	01680000 	cmneq	r8, r0
    1e00:	016b0000 	cmneq	fp, r0
    1e04:	00010000 	andeq	r0, r1, r0
    1e08:	00016b51 	andeq	r6, r1, r1, asr fp
    1e0c:	00031c00 	andeq	r1, r3, r0, lsl #24
    1e10:	56000100 	strpl	r0, [r0], -r0, lsl #2
	...
    1e1c:	00000170 	andeq	r0, r0, r0, ror r1
    1e20:	000001ac 	andeq	r0, r0, ip, lsr #3
    1e24:	0c540001 	mrrceq	0, 0, r0, r4, cr1
    1e28:	14000003 	strne	r0, [r0], #-3
    1e2c:	01000003 	tsteq	r0, r3
    1e30:	00005400 	andeq	r5, r0, r0, lsl #8
    1e34:	00000000 	andeq	r0, r0, r0
    1e38:	01a80000 			; <UNDEFINED> instruction: 0x01a80000
    1e3c:	01c40000 	biceq	r0, r4, r0
    1e40:	00010000 	andeq	r0, r1, r0
    1e44:	00000058 	andeq	r0, r0, r8, asr r0
    1e48:	00000000 	andeq	r0, r0, r0
    1e4c:	0001b000 	andeq	fp, r1, r0
    1e50:	0001cb00 	andeq	ip, r1, r0, lsl #22
    1e54:	52000100 	andpl	r0, r0, #0, 2
    1e58:	000001cb 	andeq	r0, r0, fp, asr #3
    1e5c:	000002d0 	ldrdeq	r0, [r0], -r0	; <UNPREDICTABLE>
    1e60:	00740008 	rsbseq	r0, r4, r8
    1e64:	00742531 	rsbseq	r2, r4, r1, lsr r5
    1e68:	00009f22 	andeq	r9, r0, r2, lsr #30
    1e6c:	00000000 	andeq	r0, r0, r0
    1e70:	01b00000 	movseq	r0, r0
    1e74:	01c40000 	biceq	r0, r4, r0
    1e78:	00010000 	andeq	r0, r1, r0
    1e7c:	00000058 	andeq	r0, r0, r8, asr r0
    1e80:	00000000 	andeq	r0, r0, r0
    1e84:	0001b400 	andeq	fp, r1, r0, lsl #8
    1e88:	0001b800 	andeq	fp, r1, r0, lsl #16
    1e8c:	53000100 	movwpl	r0, #256	; 0x100
	...
    1e98:	000001d0 	ldrdeq	r0, [r0], -r0	; <UNPREDICTABLE>
    1e9c:	000002d0 	ldrdeq	r0, [r0], -r0	; <UNPREDICTABLE>
    1ea0:	00540001 	subseq	r0, r4, r1
    1ea4:	00000000 	andeq	r0, r0, r0
    1ea8:	d0000000 	andle	r0, r0, r0
    1eac:	e4000001 	str	r0, [r0], #-1
    1eb0:	01000001 	tsteq	r0, r1
    1eb4:	00005800 	andeq	r5, r0, r0, lsl #16
    1eb8:	00000000 	andeq	r0, r0, r0
    1ebc:	01d40000 	bicseq	r0, r4, r0
    1ec0:	01d80000 	bicseq	r0, r8, r0
    1ec4:	00010000 	andeq	r0, r1, r0
    1ec8:	00000053 	andeq	r0, r0, r3, asr r0
    1ecc:	00000000 	andeq	r0, r0, r0
    1ed0:	0001f400 	andeq	pc, r1, r0, lsl #8
    1ed4:	0002d000 	andeq	sp, r2, r0
    1ed8:	54000100 	strpl	r0, [r0], #-256	; 0x100
	...
    1ee4:	000001f4 	strdeq	r0, [r0], -r4
    1ee8:	00000208 	andeq	r0, r0, r8, lsl #4
    1eec:	00580001 	subseq	r0, r8, r1
    1ef0:	00000000 	andeq	r0, r0, r0
    1ef4:	f8000000 			; <UNDEFINED> instruction: 0xf8000000
    1ef8:	fc000001 	stc2	0, cr0, [r0], {1}
    1efc:	01000001 	tsteq	r0, r1
    1f00:	00005300 	andeq	r5, r0, r0, lsl #6
    1f04:	00000000 	andeq	r0, r0, r0
    1f08:	02180000 	andseq	r0, r8, #0
    1f0c:	02d00000 	sbcseq	r0, r0, #0
    1f10:	00010000 	andeq	r0, r1, r0
    1f14:	00000054 	andeq	r0, r0, r4, asr r0
    1f18:	00000000 	andeq	r0, r0, r0
    1f1c:	00021800 	andeq	r1, r2, r0, lsl #16
    1f20:	00022c00 	andeq	r2, r2, r0, lsl #24
    1f24:	58000100 	stmdapl	r0, {r8}
	...
    1f30:	0000021c 	andeq	r0, r0, ip, lsl r2
    1f34:	00000220 	andeq	r0, r0, r0, lsr #4
    1f38:	00530001 	subseq	r0, r3, r1
    1f3c:	00000000 	andeq	r0, r0, r0
    1f40:	3c000000 	stccc	0, cr0, [r0], {-0}
    1f44:	d0000002 	andle	r0, r0, r2
    1f48:	01000002 	tsteq	r0, r2
    1f4c:	00005400 	andeq	r5, r0, r0, lsl #8
    1f50:	00000000 	andeq	r0, r0, r0
    1f54:	023c0000 	eorseq	r0, ip, #0
    1f58:	02500000 	subseq	r0, r0, #0
    1f5c:	00010000 	andeq	r0, r1, r0
    1f60:	00000058 	andeq	r0, r0, r8, asr r0
    1f64:	00000000 	andeq	r0, r0, r0
    1f68:	00024000 	andeq	r4, r2, r0
    1f6c:	00024400 	andeq	r4, r2, r0, lsl #8
    1f70:	53000100 	movwpl	r0, #256	; 0x100
	...
    1f7c:	00000260 	andeq	r0, r0, r0, ror #4
    1f80:	000002d0 	ldrdeq	r0, [r0], -r0	; <UNPREDICTABLE>
    1f84:	00540001 	subseq	r0, r4, r1
    1f88:	00000000 	andeq	r0, r0, r0
    1f8c:	60000000 	andvs	r0, r0, r0
    1f90:	74000002 	strvc	r0, [r0], #-2
    1f94:	01000002 	tsteq	r0, r2
    1f98:	00005800 	andeq	r5, r0, r0, lsl #16
    1f9c:	00000000 	andeq	r0, r0, r0
    1fa0:	02640000 	rsbeq	r0, r4, #0
    1fa4:	02680000 	rsbeq	r0, r8, #0
    1fa8:	00010000 	andeq	r0, r1, r0
    1fac:	00000053 	andeq	r0, r0, r3, asr r0
    1fb0:	00000000 	andeq	r0, r0, r0
    1fb4:	00028400 	andeq	r8, r2, r0, lsl #8
    1fb8:	0002d000 	andeq	sp, r2, r0
    1fbc:	54000100 	strpl	r0, [r0], #-256	; 0x100
	...
    1fc8:	00000284 	andeq	r0, r0, r4, lsl #5
    1fcc:	00000298 	muleq	r0, r8, r2
    1fd0:	00580001 	subseq	r0, r8, r1
    1fd4:	00000000 	andeq	r0, r0, r0
    1fd8:	88000000 	stmdahi	r0, {}	; <UNPREDICTABLE>
    1fdc:	8c000002 	stchi	0, cr0, [r0], {2}
    1fe0:	01000002 	tsteq	r0, r2
    1fe4:	00005300 	andeq	r5, r0, r0, lsl #6
    1fe8:	00000000 	andeq	r0, r0, r0
    1fec:	02a80000 	adceq	r0, r8, #0
    1ff0:	02d00000 	sbcseq	r0, r0, #0
    1ff4:	00010000 	andeq	r0, r1, r0
    1ff8:	00000054 	andeq	r0, r0, r4, asr r0
    1ffc:	00000000 	andeq	r0, r0, r0
    2000:	0002ac00 	andeq	sl, r2, r0, lsl #24
    2004:	0002b000 	andeq	fp, r2, r0
    2008:	53000100 	movwpl	r0, #256	; 0x100
	...
    2014:	000002c8 	andeq	r0, r0, r8, asr #5
    2018:	0000030c 	andeq	r0, r0, ip, lsl #6
    201c:	9f300002 	svcls	0x00300002
    2020:	00000314 	andeq	r0, r0, r4, lsl r3
    2024:	0000031c 	andeq	r0, r0, ip, lsl r3
    2028:	9f300002 	svcls	0x00300002
	...
    2034:	000002c8 	andeq	r0, r0, r8, asr #5
    2038:	0000030c 	andeq	r0, r0, ip, lsl #6
    203c:	14550001 	ldrbne	r0, [r5], #-1
    2040:	1c000003 	stcne	0, cr0, [r0], {3}
    2044:	01000003 	tsteq	r0, r3
    2048:	00005500 	andeq	r5, r0, r0, lsl #10
    204c:	00000000 	andeq	r0, r0, r0
    2050:	02d00000 	sbcseq	r0, r0, #0
    2054:	030c0000 	movweq	r0, #49152	; 0xc000
    2058:	00010000 	andeq	r0, r1, r0
    205c:	00031454 	andeq	r1, r3, r4, asr r4
    2060:	00031c00 	andeq	r1, r3, r0, lsl #24
    2064:	54000100 	strpl	r0, [r0], #-256	; 0x100
	...
    2070:	0000031c 	andeq	r0, r0, ip, lsl r3
    2074:	0000033b 	andeq	r0, r0, fp, lsr r3
    2078:	3b500001 	blcc	1402084 <__bss_end__+0x13f378c>
    207c:	54000003 	strpl	r0, [r0], #-3
    2080:	01000003 	tsteq	r0, r3
    2084:	03545800 	cmpeq	r4, #0, 16
    2088:	03640000 	cmneq	r4, #0
    208c:	00010000 	andeq	r0, r1, r0
    2090:	00036450 	andeq	r6, r3, r0, asr r4
    2094:	0003ac00 	andeq	sl, r3, r0, lsl #24
    2098:	58000100 	stmdapl	r0, {r8}
	...
    20a4:	0000031c 	andeq	r0, r0, ip, lsl r3
    20a8:	0000033b 	andeq	r0, r0, fp, lsr r3
    20ac:	3b510001 	blcc	14420b8 <__bss_end__+0x14337c0>
    20b0:	54000003 	strpl	r0, [r0], #-3
    20b4:	01000003 	tsteq	r0, r3
    20b8:	03545600 	cmpeq	r4, #0, 12
    20bc:	03640000 	cmneq	r4, #0
    20c0:	00010000 	andeq	r0, r1, r0
    20c4:	00036451 	andeq	r6, r3, r1, asr r4
    20c8:	0003ac00 	andeq	sl, r3, r0, lsl #24
    20cc:	56000100 	strpl	r0, [r0], -r0, lsl #2
	...
    20d8:	0000031c 	andeq	r0, r0, ip, lsl r3
    20dc:	0000033b 	andeq	r0, r0, fp, lsr r3
    20e0:	3b520001 	blcc	14820ec <__bss_end__+0x14737f4>
    20e4:	54000003 	strpl	r0, [r0], #-3
    20e8:	04000003 	streq	r0, [r0], #-3
    20ec:	5201f300 	andpl	pc, r1, #0, 6
    20f0:	0003549f 	muleq	r3, pc, r4	; <UNPREDICTABLE>
    20f4:	00036400 	andeq	r6, r3, r0, lsl #8
    20f8:	52000100 	andpl	r0, r0, #0, 2
    20fc:	00000364 	andeq	r0, r0, r4, ror #6
    2100:	000003ac 	andeq	r0, r0, ip, lsr #7
    2104:	01770003 	cmneq	r7, r3
    2108:	0000009f 	muleq	r0, pc, r0	; <UNPREDICTABLE>
    210c:	00000000 	andeq	r0, r0, r0
    2110:	00031c00 	andeq	r1, r3, r0, lsl #24
    2114:	00033b00 	andeq	r3, r3, r0, lsl #22
    2118:	53000100 	movwpl	r0, #256	; 0x100
    211c:	0000033b 	andeq	r0, r0, fp, lsr r3
    2120:	00000354 	andeq	r0, r0, r4, asr r3
    2124:	01f30004 	mvnseq	r0, r4
    2128:	03549f53 	cmpeq	r4, #332	; 0x14c
    212c:	03640000 	cmneq	r4, #0
    2130:	00010000 	andeq	r0, r1, r0
    2134:	00036453 	andeq	r6, r3, r3, asr r4
    2138:	0003ac00 	andeq	sl, r3, r0, lsl #24
    213c:	f3000400 	vshl.u8	d0, d0, d0
    2140:	009f5301 	addseq	r5, pc, r1, lsl #6
    2144:	00000000 	andeq	r0, r0, r0
    2148:	5c000000 	stcpl	0, cr0, [r0], {-0}
    214c:	64000003 	strvs	r0, [r0], #-3
    2150:	02000003 	andeq	r0, r0, #3
    2154:	649f3000 	ldrvs	r3, [pc], #0	; 215c <_start-0x5ea4>
    2158:	ac000003 	stcge	0, cr0, [r0], {3}
    215c:	01000003 	tsteq	r0, r3
    2160:	00005400 	andeq	r5, r0, r0, lsl #8
    2164:	00000000 	andeq	r0, r0, r0
    2168:	03740000 	cmneq	r4, #0
    216c:	03840000 	orreq	r0, r4, #0
    2170:	00010000 	andeq	r0, r1, r0
    2174:	00000050 	andeq	r0, r0, r0, asr r0
    2178:	00000000 	andeq	r0, r0, r0
    217c:	0003ac00 	andeq	sl, r3, r0, lsl #24
    2180:	0003c700 	andeq	ip, r3, r0, lsl #14
    2184:	50000100 	andpl	r0, r0, r0, lsl #2
    2188:	000003c7 	andeq	r0, r0, r7, asr #7
    218c:	000003e0 	andeq	r0, r0, r0, ror #7
    2190:	e0570001 	subs	r0, r7, r1
    2194:	f0000003 			; <UNDEFINED> instruction: 0xf0000003
    2198:	01000003 	tsteq	r0, r3
    219c:	03f05000 	mvnseq	r5, #0
    21a0:	04280000 	strteq	r0, [r8], #-0
    21a4:	00010000 	andeq	r0, r1, r0
    21a8:	00000057 	andeq	r0, r0, r7, asr r0
    21ac:	00000000 	andeq	r0, r0, r0
    21b0:	0003ac00 	andeq	sl, r3, r0, lsl #24
    21b4:	0003c700 	andeq	ip, r3, r0, lsl #14
    21b8:	51000100 	mrspl	r0, (UNDEF: 16)
    21bc:	000003c7 	andeq	r0, r0, r7, asr #7
    21c0:	000003e0 	andeq	r0, r0, r0, ror #7
    21c4:	e0550001 	subs	r0, r5, r1
    21c8:	f0000003 			; <UNDEFINED> instruction: 0xf0000003
    21cc:	01000003 	tsteq	r0, r3
    21d0:	03f05100 	mvnseq	r5, #0, 2
    21d4:	04280000 	strteq	r0, [r8], #-0
    21d8:	00010000 	andeq	r0, r1, r0
    21dc:	00000055 	andeq	r0, r0, r5, asr r0
    21e0:	00000000 	andeq	r0, r0, r0
    21e4:	0003ac00 	andeq	sl, r3, r0, lsl #24
    21e8:	0003c700 	andeq	ip, r3, r0, lsl #14
    21ec:	52000100 	andpl	r0, r0, #0, 2
    21f0:	000003c7 	andeq	r0, r0, r7, asr #7
    21f4:	000003e0 	andeq	r0, r0, r0, ror #7
    21f8:	01f30004 	mvnseq	r0, r4
    21fc:	03e09f52 	mvneq	r9, #328	; 0x148
    2200:	03f00000 	mvnseq	r0, #0
    2204:	00010000 	andeq	r0, r1, r0
    2208:	0003f052 	andeq	pc, r3, r2, asr r0	; <UNPREDICTABLE>
    220c:	00042800 	andeq	r2, r4, r0, lsl #16
    2210:	76000300 	strvc	r0, [r0], -r0, lsl #6
    2214:	00009f01 	andeq	r9, r0, r1, lsl #30
    2218:	00000000 	andeq	r0, r0, r0
    221c:	03ac0000 			; <UNDEFINED> instruction: 0x03ac0000
    2220:	03c70000 	biceq	r0, r7, #0
    2224:	00010000 	andeq	r0, r1, r0
    2228:	0003c753 	andeq	ip, r3, r3, asr r7
    222c:	0003e000 	andeq	lr, r3, r0
    2230:	58000100 	stmdapl	r0, {r8}
    2234:	000003e0 	andeq	r0, r0, r0, ror #7
    2238:	000003f0 	strdeq	r0, [r0], -r0	; <UNPREDICTABLE>
    223c:	f0530001 			; <UNDEFINED> instruction: 0xf0530001
    2240:	28000003 	stmdacs	r0, {r0, r1}
    2244:	01000004 	tsteq	r0, r4
    2248:	00005800 	andeq	r5, r0, r0, lsl #16
    224c:	00000000 	andeq	r0, r0, r0
    2250:	03e80000 	mvneq	r0, #0
    2254:	03f00000 	mvnseq	r0, #0
    2258:	00020000 	andeq	r0, r2, r0
    225c:	03f09f30 	mvnseq	r9, #48, 30	; 0xc0
    2260:	04280000 	strteq	r0, [r8], #-0
    2264:	00010000 	andeq	r0, r1, r0
    2268:	00000054 	andeq	r0, r0, r4, asr r0
    226c:	00000000 	andeq	r0, r0, r0
    2270:	00042800 	andeq	r2, r4, r0, lsl #16
    2274:	00044700 	andeq	r4, r4, r0, lsl #14
    2278:	51000100 	mrspl	r0, (UNDEF: 16)
    227c:	00000447 	andeq	r0, r0, r7, asr #8
    2280:	000004e8 	andeq	r0, r0, r8, ror #9
    2284:	01f30004 	mvnseq	r0, r4
    2288:	00009f51 	andeq	r9, r0, r1, asr pc
    228c:	00000000 	andeq	r0, r0, r0
    2290:	04280000 	strteq	r0, [r8], #-0
    2294:	04470000 	strbeq	r0, [r7], #-0
    2298:	00010000 	andeq	r0, r1, r0
    229c:	00044752 	andeq	r4, r4, r2, asr r7
    22a0:	0004e800 	andeq	lr, r4, r0, lsl #16
    22a4:	f3000400 	vshl.u8	d0, d0, d0
    22a8:	009f5201 	addseq	r5, pc, r1, lsl #4
    22ac:	00000000 	andeq	r0, r0, r0
    22b0:	28000000 	stmdacs	r0, {}	; <UNPREDICTABLE>
    22b4:	47000004 	strmi	r0, [r0, -r4]
    22b8:	01000004 	tsteq	r0, r4
    22bc:	04475300 	strbeq	r5, [r7], #-768	; 0x300
    22c0:	04e80000 	strbteq	r0, [r8], #0
    22c4:	00010000 	andeq	r0, r1, r0
    22c8:	00000055 	andeq	r0, r0, r5, asr r0
    22cc:	00000000 	andeq	r0, r0, r0
    22d0:	00046800 	andeq	r6, r4, r0, lsl #16
    22d4:	0004a700 	andeq	sl, r4, r0, lsl #14
    22d8:	52000100 	andpl	r0, r0, #0, 2
    22dc:	000004a7 	andeq	r0, r0, r7, lsr #9
    22e0:	000004c0 	andeq	r0, r0, r0, asr #9
    22e4:	00750006 	rsbseq	r0, r5, r6
    22e8:	9f1e0077 	svcls	0x001e0077
    22ec:	000004c0 	andeq	r0, r0, r0, asr #9
    22f0:	000004e8 	andeq	r0, r0, r8, ror #9
    22f4:	00520001 	subseq	r0, r2, r1
    22f8:	00000000 	andeq	r0, r0, r0
    22fc:	e8000000 	stmda	r0, {}	; <UNPREDICTABLE>
    2300:	f3000004 	vhadd.u8	d0, d0, d4
    2304:	01000004 	tsteq	r0, r4
    2308:	04f35000 	ldrbteq	r5, [r3], #0
    230c:	05240000 	streq	r0, [r4, #-0]!
    2310:	00040000 	andeq	r0, r4, r0
    2314:	9f5001f3 	svcls	0x005001f3
	...
    2320:	000004f4 	strdeq	r0, [r0], -r4
    2324:	000004ff 	strdeq	r0, [r0], -pc	; <UNPREDICTABLE>
    2328:	00500001 	subseq	r0, r0, r1
    232c:	00000000 	andeq	r0, r0, r0
    2330:	24000000 	strcs	r0, [r0], #-0
    2334:	34000005 	strcc	r0, [r0], #-5
    2338:	01000005 	tsteq	r0, r5
    233c:	05345000 	ldreq	r5, [r4, #-0]!
    2340:	05500000 	ldrbeq	r0, [r0, #-0]
    2344:	00010000 	andeq	r0, r1, r0
    2348:	00000055 	andeq	r0, r0, r5, asr r0
    234c:	00000000 	andeq	r0, r0, r0
    2350:	00052400 	andeq	r2, r5, r0, lsl #8
    2354:	00053400 	andeq	r3, r5, r0, lsl #8
    2358:	51000100 	mrspl	r0, (UNDEF: 16)
    235c:	00000534 	andeq	r0, r0, r4, lsr r5
    2360:	00000550 	andeq	r0, r0, r0, asr r5
    2364:	00540001 	subseq	r0, r4, r1
    2368:	00000000 	andeq	r0, r0, r0
    236c:	50000000 	andpl	r0, r0, r0
    2370:	6c000005 	stcvs	0, cr0, [r0], {5}
    2374:	01000005 	tsteq	r0, r5
    2378:	056c5000 	strbeq	r5, [ip, #-0]!
    237c:	05bc0000 	ldreq	r0, [ip, #0]!
    2380:	00010000 	andeq	r0, r1, r0
    2384:	0005bc55 	andeq	fp, r5, r5, asr ip
    2388:	0005d400 	andeq	sp, r5, r0, lsl #8
    238c:	f3000400 	vshl.u8	d0, d0, d0
    2390:	009f5001 	addseq	r5, pc, r1
    2394:	00000000 	andeq	r0, r0, r0
    2398:	7c000000 	stcvc	0, cr0, [r0], {-0}
    239c:	8b000005 	blhi	23b8 <_start-0x5c48>
    23a0:	01000005 	tsteq	r0, r5
    23a4:	058b5000 	streq	r5, [fp]
    23a8:	05a40000 	streq	r0, [r4, #0]!
    23ac:	00010000 	andeq	r0, r1, r0
    23b0:	0005a454 	andeq	sl, r5, r4, asr r4
    23b4:	0005a800 	andeq	sl, r5, r0, lsl #16
    23b8:	50000100 	andpl	r0, r0, r0, lsl #2
    23bc:	000005a8 	andeq	r0, r0, r8, lsr #11
    23c0:	000005bc 			; <UNDEFINED> instruction: 0x000005bc
    23c4:	bc540001 	mrrclt	0, 0, r0, r4, cr1
    23c8:	d4000005 	strle	r0, [r0], #-5
    23cc:	01000005 	tsteq	r0, r5
    23d0:	00005000 	andeq	r5, r0, r0
    23d4:	00000000 	andeq	r0, r0, r0
    23d8:	05d40000 	ldrbeq	r0, [r4]
    23dc:	05e70000 	strbeq	r0, [r7, #0]!
    23e0:	00010000 	andeq	r0, r1, r0
    23e4:	0005e750 	andeq	lr, r5, r0, asr r7
    23e8:	00062000 	andeq	r2, r6, r0
    23ec:	f3000400 	vshl.u8	d0, d0, d0
    23f0:	009f5001 	addseq	r5, pc, r1
    23f4:	00000000 	andeq	r0, r0, r0
    23f8:	d4000000 	strle	r0, [r0], #-0
    23fc:	e7000005 	str	r0, [r0, -r5]
    2400:	01000005 	tsteq	r0, r5
    2404:	05e75100 	strbeq	r5, [r7, #256]!	; 0x100
    2408:	06200000 	strteq	r0, [r0], -r0
    240c:	00040000 	andeq	r0, r4, r0
    2410:	9f5101f3 	svcls	0x005101f3
	...
    241c:	000005d4 	ldrdeq	r0, [r0], -r4
    2420:	000005e7 	andeq	r0, r0, r7, ror #11
    2424:	e7520001 	ldrb	r0, [r2, -r1]
    2428:	20000005 	andcs	r0, r0, r5
    242c:	04000006 	streq	r0, [r0], #-6
    2430:	5201f300 	andpl	pc, r1, #0, 6
    2434:	0000009f 	muleq	r0, pc, r0	; <UNPREDICTABLE>
    2438:	00000000 	andeq	r0, r0, r0
    243c:	0005d400 	andeq	sp, r5, r0, lsl #8
    2440:	0005e700 	andeq	lr, r5, r0, lsl #14
    2444:	53000100 	movwpl	r0, #256	; 0x100
    2448:	000005e7 	andeq	r0, r0, r7, ror #11
    244c:	00000620 	andeq	r0, r0, r0, lsr #12
    2450:	01f30004 	mvnseq	r0, r4
    2454:	00009f53 	andeq	r9, r0, r3, asr pc
    2458:	00000000 	andeq	r0, r0, r0
    245c:	05e80000 	strbeq	r0, [r8, #0]!
    2460:	05f30000 	ldrbeq	r0, [r3, #0]!
    2464:	00010000 	andeq	r0, r1, r0
    2468:	00060c50 	andeq	r0, r6, r0, asr ip
    246c:	00062000 	andeq	r2, r6, r0
    2470:	50000100 	andpl	r0, r0, r0, lsl #2
	...
    247c:	000000fc 	strdeq	r0, [r0], -ip
    2480:	00000104 	andeq	r0, r0, r4, lsl #2
    2484:	04500001 	ldrbeq	r0, [r0], #-1
    2488:	28000001 	stmdacs	r0, {r0}
    248c:	01000001 	tsteq	r0, r1
    2490:	00005400 	andeq	r5, r0, r0, lsl #8
    2494:	00000000 	andeq	r0, r0, r0
    2498:	00300000 	eorseq	r0, r0, r0
    249c:	003c0000 	eorseq	r0, ip, r0
    24a0:	00020000 	andeq	r0, r2, r0
    24a4:	003c9f30 	eorseq	r9, ip, r0, lsr pc
    24a8:	00680000 	rsbeq	r0, r8, r0
    24ac:	00010000 	andeq	r0, r1, r0
    24b0:	00000053 	andeq	r0, r0, r3, asr r0
    24b4:	00000000 	andeq	r0, r0, r0
    24b8:	00006800 	andeq	r6, r0, r0, lsl #16
    24bc:	00007700 	andeq	r7, r0, r0, lsl #14
    24c0:	50000100 	andpl	r0, r0, r0, lsl #2
    24c4:	00000077 	andeq	r0, r0, r7, ror r0
    24c8:	000000ac 	andeq	r0, r0, ip, lsr #1
    24cc:	00540001 	subseq	r0, r4, r1
    24d0:	00000000 	andeq	r0, r0, r0
    24d4:	ac000000 	stcge	0, cr0, [r0], {-0}
    24d8:	bb000000 	bllt	24e0 <_start-0x5b20>
    24dc:	01000000 	mrseq	r0, (UNDEF: 0)
    24e0:	00bb5000 	adcseq	r5, fp, r0
    24e4:	00f00000 	rscseq	r0, r0, r0
    24e8:	00010000 	andeq	r0, r1, r0
    24ec:	00000054 	andeq	r0, r0, r4, asr r0
    24f0:	00000000 	andeq	r0, r0, r0
    24f4:	0000f000 	andeq	pc, r0, r0
    24f8:	0000ff00 	andeq	pc, r0, r0, lsl #30
    24fc:	50000100 	andpl	r0, r0, r0, lsl #2
    2500:	000000ff 	strdeq	r0, [r0], -pc	; <UNPREDICTABLE>
    2504:	00000134 	andeq	r0, r0, r4, lsr r1
    2508:	00540001 	subseq	r0, r4, r1
    250c:	00000000 	andeq	r0, r0, r0
    2510:	34000000 	strcc	r0, [r0], #-0
    2514:	43000001 	movwmi	r0, #1
    2518:	01000001 	tsteq	r0, r1
    251c:	01435000 	mrseq	r5, (UNDEF: 67)
    2520:	01780000 	cmneq	r8, r0
    2524:	00010000 	andeq	r0, r1, r0
    2528:	00000054 	andeq	r0, r0, r4, asr r0
    252c:	00000000 	andeq	r0, r0, r0
    2530:	00017800 	andeq	r7, r1, r0, lsl #16
    2534:	00018700 	andeq	r8, r1, r0, lsl #14
    2538:	50000100 	andpl	r0, r0, r0, lsl #2
    253c:	00000187 	andeq	r0, r0, r7, lsl #3
    2540:	000001bc 			; <UNDEFINED> instruction: 0x000001bc
    2544:	00540001 	subseq	r0, r4, r1
    2548:	00000000 	andeq	r0, r0, r0
    254c:	bc000000 	stclt	0, cr0, [r0], {-0}
    2550:	cb000001 	blgt	255c <_start-0x5aa4>
    2554:	01000001 	tsteq	r0, r1
    2558:	01cb5000 	biceq	r5, fp, r0
    255c:	02000000 	andeq	r0, r0, #0
    2560:	00010000 	andeq	r0, r1, r0
    2564:	00000054 	andeq	r0, r0, r4, asr r0
    2568:	00000000 	andeq	r0, r0, r0
	...

Disassembly of section .debug_aranges:

00000000 <.debug_aranges>:
   0:	0000001c 	andeq	r0, r0, ip, lsl r0
   4:	00000002 	andeq	r0, r0, r2
   8:	00040000 	andeq	r0, r4, r0
   c:	00000000 	andeq	r0, r0, r0
  10:	00008010 	andeq	r8, r0, r0, lsl r0
  14:	00000694 	muleq	r0, r4, r6
	...
  20:	0000001c 	andeq	r0, r0, ip, lsl r0
  24:	0eda0002 	cdpeq	0, 13, cr0, cr10, cr2, {0}
  28:	00040000 	andeq	r0, r4, r0
  2c:	00000000 	andeq	r0, r0, r0
  30:	000086a4 	andeq	r8, r0, r4, lsr #13
  34:	00000020 	andeq	r0, r0, r0, lsr #32
	...
  40:	0000001c 	andeq	r0, r0, ip, lsl r0
  44:	0fb90002 	svceq	0x00b90002
  48:	00040000 	andeq	r0, r4, r0
  4c:	00000000 	andeq	r0, r0, r0
  50:	000086c4 	andeq	r8, r0, r4, asr #13
  54:	00000058 	andeq	r0, r0, r8, asr r0
	...
  60:	0000001c 	andeq	r0, r0, ip, lsl r0
  64:	114e0002 	cmpne	lr, r2
  68:	00040000 	andeq	r0, r4, r0
  6c:	00000000 	andeq	r0, r0, r0
  70:	0000871c 	andeq	r8, r0, ip, lsl r7
  74:	0000003c 	andeq	r0, r0, ip, lsr r0
	...
  80:	0000001c 	andeq	r0, r0, ip, lsl r0
  84:	12650002 	rsbne	r0, r5, #2
  88:	00040000 	andeq	r0, r4, r0
  8c:	00000000 	andeq	r0, r0, r0
  90:	00008758 	andeq	r8, r0, r8, asr r7
  94:	00000034 	andeq	r0, r0, r4, lsr r0
	...
  a0:	0000001c 	andeq	r0, r0, ip, lsl r0
  a4:	13570002 	cmpne	r7, #2
  a8:	00040000 	andeq	r0, r4, r0
  ac:	00000000 	andeq	r0, r0, r0
  b0:	0000878c 	andeq	r8, r0, ip, lsl #15
  b4:	000004f8 	strdeq	r0, [r0], -r8
	...
  c0:	0000001c 	andeq	r0, r0, ip, lsl r0
  c4:	19dc0002 	ldmibne	ip, {r1}^
  c8:	00040000 	andeq	r0, r4, r0
  cc:	00000000 	andeq	r0, r0, r0
  d0:	00008c84 	andeq	r8, r0, r4, lsl #25
  d4:	00000028 	andeq	r0, r0, r8, lsr #32
	...
  e0:	0000001c 	andeq	r0, r0, ip, lsl r0
  e4:	1adf0002 	bne	ff7c00f4 <__bss_end__+0xff7b17fc>
  e8:	00040000 	andeq	r0, r4, r0
  ec:	00000000 	andeq	r0, r0, r0
  f0:	00008cac 	andeq	r8, r0, ip, lsr #25
  f4:	000000b0 	strheq	r0, [r0], -r0	; <UNPREDICTABLE>
	...
 100:	0000001c 	andeq	r0, r0, ip, lsl r0
 104:	1dcc0002 	stclne	0, cr0, [ip, #8]
 108:	00040000 	andeq	r0, r4, r0
 10c:	00000000 	andeq	r0, r0, r0
 110:	00008d5c 	andeq	r8, r0, ip, asr sp
 114:	00000074 	andeq	r0, r0, r4, ror r0
	...
 120:	0000001c 	andeq	r0, r0, ip, lsl r0
 124:	1f7d0002 	svcne	0x007d0002
 128:	00040000 	andeq	r0, r4, r0
 12c:	00000000 	andeq	r0, r0, r0
 130:	00008dd0 	ldrdeq	r8, [r0], -r0
 134:	00000088 	andeq	r0, r0, r8, lsl #1
	...
 140:	0000001c 	andeq	r0, r0, ip, lsl r0
 144:	21590002 	cmpcs	r9, r2
 148:	00040000 	andeq	r0, r4, r0
 14c:	00000000 	andeq	r0, r0, r0
 150:	00008e58 	andeq	r8, r0, r8, asr lr
 154:	000005bc 			; <UNDEFINED> instruction: 0x000005bc
	...
 160:	0000001c 	andeq	r0, r0, ip, lsl r0
 164:	2a2c0002 	bcs	b00174 <__bss_end__+0xaf187c>
 168:	00040000 	andeq	r0, r4, r0
 16c:	00000000 	andeq	r0, r0, r0
 170:	00009414 	andeq	r9, r0, r4, lsl r4
 174:	00000620 	andeq	r0, r0, r0, lsr #12
	...
 180:	0000001c 	andeq	r0, r0, ip, lsl r0
 184:	3bfa0002 	blcc	ffe80194 <__bss_end__+0xffe7189c>
 188:	00040000 	andeq	r0, r4, r0
 18c:	00000000 	andeq	r0, r0, r0
 190:	00009a34 	andeq	r9, r0, r4, lsr sl
 194:	00000154 	andeq	r0, r0, r4, asr r1
	...
 1a0:	0000001c 	andeq	r0, r0, ip, lsl r0
 1a4:	3ffd0002 	svccc	0x00fd0002
 1a8:	00040000 	andeq	r0, r4, r0
 1ac:	00000000 	andeq	r0, r0, r0
 1b0:	00009b88 	andeq	r9, r0, r8, lsl #23
 1b4:	00000200 	andeq	r0, r0, r0, lsl #4
	...
 1c0:	0000001c 	andeq	r0, r0, ip, lsl r0
 1c4:	458e0002 	strmi	r0, [lr, #2]
 1c8:	00040000 	andeq	r0, r4, r0
 1cc:	00000000 	andeq	r0, r0, r0
 1d0:	00009ec4 	andeq	r9, r0, r4, asr #29
 1d4:	00000050 	andeq	r0, r0, r0, asr r0
	...

Disassembly of section .debug_ranges:

00000000 <.debug_ranges>:
   0:	000000f8 	strdeq	r0, [r0], -r8
   4:	00000138 	andeq	r0, r0, r8, lsr r1
   8:	0000013c 	andeq	r0, r0, ip, lsr r1
   c:	00000140 	andeq	r0, r0, r0, asr #2
	...
  18:	000002d0 	ldrdeq	r0, [r0], -r0	; <UNPREDICTABLE>
  1c:	000002e4 	andeq	r0, r0, r4, ror #5
  20:	000002f0 	strdeq	r0, [r0], -r0	; <UNPREDICTABLE>
  24:	0000032c 	andeq	r0, r0, ip, lsr #6
	...
  30:	000002d0 	ldrdeq	r0, [r0], -r0	; <UNPREDICTABLE>
  34:	000002dc 	ldrdeq	r0, [r0], -ip
  38:	000002f0 	strdeq	r0, [r0], -r0	; <UNPREDICTABLE>
  3c:	000002f8 	strdeq	r0, [r0], -r8
	...
  48:	000003d4 	ldrdeq	r0, [r0], -r4
  4c:	000003e8 	andeq	r0, r0, r8, ror #7
  50:	00000400 	andeq	r0, r0, r0, lsl #8
  54:	0000043c 	andeq	r0, r0, ip, lsr r4
	...
  60:	000003d4 	ldrdeq	r0, [r0], -r4
  64:	000003e0 	andeq	r0, r0, r0, ror #7
  68:	00000400 	andeq	r0, r0, r0, lsl #8
  6c:	00000408 	andeq	r0, r0, r8, lsl #8
	...
  78:	00000294 	muleq	r0, r4, r2
  7c:	00000298 	muleq	r0, r8, r2
  80:	000002c8 	andeq	r0, r0, r8, asr #5
  84:	000004b8 			; <UNDEFINED> instruction: 0x000004b8
	...
  90:	00008d5c 	andeq	r8, r0, ip, asr sp
  94:	00008dd0 	ldrdeq	r8, [r0], -r0
	...

Disassembly of section .debug_line:

00000000 <.debug_line>:
       0:	000003f2 	strdeq	r0, [r0], -r2
       4:	02620002 	rsbeq	r0, r2, #2
       8:	01020000 	mrseq	r0, (UNDEF: 2)
       c:	000d0efb 	strdeq	r0, [sp], -fp
      10:	01010101 	tsteq	r1, r1, lsl #2
      14:	01000000 	mrseq	r0, (UNDEF: 0)
      18:	2f010000 	svccs	0x00010000
      1c:	72657355 	rsbvc	r7, r5, #1409286145	; 0x54000001
      20:	72622f73 	rsbvc	r2, r2, #460	; 0x1cc
      24:	6a6e6169 	bvs	1b985d0 <__bss_end__+0x1b89cd8>
      28:	442f6e75 	strtmi	r6, [pc], #-3701	; 30 <_start-0x7fd0>
      2c:	746b7365 	strbtvc	r7, [fp], #-869	; 0x365
      30:	732f706f 	teqvc	pc, #111	; 0x6f
      34:	6f6f6863 	svcvs	0x006f6863
      38:	69572f6c 	ldmdbvs	r7, {r2, r3, r5, r6, r8, r9, sl, fp, sp}^
      3c:	7265746e 	rsbvc	r7, r5, #1845493760	; 0x6e000000
      40:	30323931 	eorscc	r3, r2, r1, lsr r9
      44:	3153432f 	cmpcc	r3, pc, lsr #6
      48:	2f453034 	svccs	0x00453034
      4c:	34317363 	ldrtcc	r7, [r1], #-867	; 0x363
      50:	322d6530 	eorcc	r6, sp, #48, 10	; 0xc000000
      54:	6e697730 	mcrvs	7, 3, r7, cr9, cr0, {1}
      58:	62696c2f 	rsbvs	r6, r9, #12032	; 0x2f00
      5c:	6c2f6970 	stcvs	9, cr6, [pc], #-448	; fffffea4 <__bss_end__+0xffff15ac>
      60:	00636269 	rsbeq	r6, r3, r9, ror #4
      64:	7273752f 	rsbsvc	r7, r3, #197132288	; 0xbc00000
      68:	636f6c2f 	cmnvs	pc, #12032	; 0x2f00
      6c:	432f6c61 	teqmi	pc, #24832	; 0x6100
      70:	616c6c65 	cmnvs	ip, r5, ror #24
      74:	72612f72 	rsbvc	r2, r1, #456	; 0x1c8
      78:	6f6e2d6d 	svcvs	0x006e2d6d
      7c:	652d656e 	strvs	r6, [sp, #-1390]!	; 0x56e
      80:	2f696261 	svccs	0x00696261
      84:	2e382e34 	mrccs	14, 1, r2, cr8, cr4, {1}
      88:	73632d33 	cmnvc	r3, #3264	; 0xcc0
      8c:	65303731 	ldrvs	r3, [r0, #-1841]!	; 0x731
      90:	62696c2f 	rsbvs	r6, r9, #12032	; 0x2f00
      94:	6363672f 	cmnvs	r3, #12320768	; 0xbc0000
      98:	6d72612f 	ldfvse	f6, [r2, #-188]!	; 0xffffff44
      9c:	6e6f6e2d 	cdpvs	14, 6, cr6, cr15, cr13, {1}
      a0:	61652d65 	cmnvs	r5, r5, ror #26
      a4:	342f6962 	strtcc	r6, [pc], #-2402	; ac <_start-0x7f54>
      a8:	332e382e 	teqcc	lr, #3014656	; 0x2e0000
      ac:	636e692f 	cmnvs	lr, #770048	; 0xbc000
      b0:	6564756c 	strbvs	r7, [r4, #-1388]!	; 0x56c
      b4:	73552f00 	cmpvc	r5, #0, 30
      b8:	2f737265 	svccs	0x00737265
      bc:	61697262 	cmnvs	r9, r2, ror #4
      c0:	6e756a6e 	vsubvs.f32	s13, s10, s29
      c4:	7365442f 	cmnvc	r5, #788529152	; 0x2f000000
      c8:	706f746b 	rsbvc	r7, pc, fp, ror #8
      cc:	6863732f 	stmdavs	r3!, {r0, r1, r2, r3, r5, r8, r9, ip, sp, lr}^
      d0:	2f6c6f6f 	svccs	0x006c6f6f
      d4:	746e6957 	strbtvc	r6, [lr], #-2391	; 0x957
      d8:	39317265 	ldmdbcc	r1!, {r0, r2, r5, r6, r9, ip, sp, lr}
      dc:	432f3032 	teqmi	pc, #50	; 0x32
      e0:	30343153 	eorscc	r3, r4, r3, asr r1
      e4:	73632f45 	cmnvc	r3, #276	; 0x114
      e8:	65303431 	ldrvs	r3, [r0, #-1073]!	; 0x431
      ec:	7730322d 	ldrvc	r3, [r0, -sp, lsr #4]!
      f0:	6c2f6e69 	stcvs	14, cr6, [pc], #-420	; ffffff54 <__bss_end__+0xffff165c>
      f4:	69706269 	ldmdbvs	r0!, {r0, r3, r5, r6, r9, sp, lr}^
      f8:	3173632f 	cmncc	r3, pc, lsr #6
      fc:	2d653034 	stclcs	0, cr3, [r5, #-208]!	; 0xffffff30
     100:	00637273 	rsbeq	r7, r3, r3, ror r2
     104:	6573552f 	ldrbvs	r5, [r3, #-1327]!	; 0x52f
     108:	622f7372 	eorvs	r7, pc, #-939524095	; 0xc8000001
     10c:	6e616972 	mcrvs	9, 3, r6, cr1, cr2, {3}
     110:	2f6e756a 	svccs	0x006e756a
     114:	6b736544 	blvs	1cd962c <__bss_end__+0x1ccad34>
     118:	2f706f74 	svccs	0x00706f74
     11c:	6f686373 	svcvs	0x00686373
     120:	572f6c6f 	strpl	r6, [pc, -pc, ror #24]!
     124:	65746e69 	ldrbvs	r6, [r4, #-3689]!	; 0xe69
     128:	32393172 	eorscc	r3, r9, #-2147483620	; 0x8000001c
     12c:	53432f30 	movtpl	r2, #16176	; 0x3f30
     130:	45303431 	ldrmi	r3, [r0, #-1073]!	; 0x431
     134:	3173632f 	cmncc	r3, pc, lsr #6
     138:	2d653034 	stclcs	0, cr3, [r5, #-208]!	; 0xffffff30
     13c:	69773032 	ldmdbvs	r7!, {r1, r4, r5, ip, sp}^
     140:	696c2f6e 	stmdbvs	ip!, {r1, r2, r3, r5, r6, r8, r9, sl, fp, sp}^
     144:	2f697062 	svccs	0x00697062
     148:	34317363 	ldrtcc	r7, [r1], #-867	; 0x363
     14c:	692d6530 	pushvs	{r4, r5, r8, sl, sp, lr}
     150:	7265746e 	rsbvc	r7, r5, #1845493760	; 0x6e000000
     154:	74707572 	ldrbtvc	r7, [r0], #-1394	; 0x572
     158:	73752f00 	cmnvc	r5, #0, 30
     15c:	6f6c2f72 	svcvs	0x006c2f72
     160:	2f6c6163 	svccs	0x006c6163
     164:	6c6c6543 	cfstr64vs	mvdx6, [ip], #-268	; 0xfffffef4
     168:	612f7261 	teqvs	pc, r1, ror #4
     16c:	6e2d6d72 	mcrvs	13, 1, r6, cr13, cr2, {3}
     170:	2d656e6f 	stclcs	14, cr6, [r5, #-444]!	; 0xfffffe44
     174:	69626165 	stmdbvs	r2!, {r0, r2, r5, r6, r8, sp, lr}^
     178:	382e342f 	stmdacc	lr!, {r0, r1, r2, r3, r5, sl, ip, sp}
     17c:	632d332e 	teqvs	sp, #-1207959552	; 0xb8000000
     180:	30373173 	eorscc	r3, r7, r3, ror r1
     184:	72612f65 	rsbvc	r2, r1, #404	; 0x194
     188:	6f6e2d6d 	svcvs	0x006e2d6d
     18c:	652d656e 	strvs	r6, [sp, #-1390]!	; 0x56e
     190:	2f696261 	svccs	0x00696261
     194:	6c636e69 	stclvs	14, cr6, [r3], #-420	; 0xfffffe5c
     198:	00656475 	rsbeq	r6, r5, r5, ror r4
     19c:	6573552f 	ldrbvs	r5, [r3, #-1327]!	; 0x52f
     1a0:	622f7372 	eorvs	r7, pc, #-939524095	; 0xc8000001
     1a4:	6e616972 	mcrvs	9, 3, r6, cr1, cr2, {3}
     1a8:	2f6e756a 	svccs	0x006e756a
     1ac:	6b736544 	blvs	1cd96c4 <__bss_end__+0x1ccadcc>
     1b0:	2f706f74 	svccs	0x00706f74
     1b4:	6f686373 	svcvs	0x00686373
     1b8:	572f6c6f 	strpl	r6, [pc, -pc, ror #24]!
     1bc:	65746e69 	ldrbvs	r6, [r4, #-3689]!	; 0xe69
     1c0:	32393172 	eorscc	r3, r9, #-2147483620	; 0x8000001c
     1c4:	53432f30 	movtpl	r2, #16176	; 0x3f30
     1c8:	45303431 	ldrmi	r3, [r0, #-1073]!	; 0x431
     1cc:	3173632f 	cmncc	r3, pc, lsr #6
     1d0:	2d653034 	stclcs	0, cr3, [r5, #-208]!	; 0xffffff30
     1d4:	69773032 	ldmdbvs	r7!, {r1, r4, r5, ip, sp}^
     1d8:	696c2f6e 	stmdbvs	ip!, {r1, r2, r3, r5, r6, r8, r9, sl, fp, sp}^
     1dc:	00697062 	rsbeq	r7, r9, r2, rrx
     1e0:	72696300 	rsbvc	r6, r9, #0, 6
     1e4:	616c7563 	cmnvs	ip, r3, ror #10
     1e8:	00682e72 	rsbeq	r2, r8, r2, ror lr
     1ec:	75000001 	strvc	r0, [r0, #-1]
     1f0:	2d747261 	lfmcs	f7, 2, [r4, #-388]!	; 0xfffffe7c
     1f4:	2e746e69 	cdpcs	14, 7, cr6, cr4, cr9, {3}
     1f8:	00000063 	andeq	r0, r0, r3, rrx
     1fc:	64747300 	ldrbtvs	r7, [r4], #-768	; 0x300
     200:	2e666564 	cdpcs	5, 6, cr6, cr6, cr4, {3}
     204:	00020068 	andeq	r0, r2, r8, rrx
     208:	64747300 	ldrbtvs	r7, [r4], #-768	; 0x300
     20c:	2d746e69 	ldclcs	14, cr6, [r4, #-420]!	; 0xfffffe5c
     210:	2e636367 	cdpcs	3, 6, cr6, cr3, cr7, {3}
     214:	00020068 	andeq	r0, r2, r8, rrx
     218:	69706700 	ldmdbvs	r0!, {r8, r9, sl, sp, lr}^
     21c:	00682e6f 	rsbeq	r2, r8, pc, ror #28
     220:	72000003 	andvc	r0, r0, #3
     224:	612d6970 	teqvs	sp, r0, ror r9
     228:	69746d72 	ldmdbvs	r4!, {r1, r4, r5, r6, r8, sl, fp, sp, lr}^
     22c:	2e72656d 	cdpcs	5, 7, cr6, cr2, cr13, {3}
     230:	00040068 	andeq	r0, r4, r8, rrx
     234:	2d777300 	ldclcs	3, cr7, [r7, #-0]
     238:	74726175 	ldrbtvc	r6, [r2], #-373	; 0x175
     23c:	0300682e 	movweq	r6, #2094	; 0x82e
     240:	74730000 	ldrbtvc	r0, [r3], #-0
     244:	676e6972 			; <UNDEFINED> instruction: 0x676e6972
     248:	0500682e 	streq	r6, [r0, #-2094]	; 0x82e
     24c:	70720000 	rsbsvc	r0, r2, r0
     250:	00682e69 	rsbeq	r2, r8, r9, ror #28
     254:	72000006 	andvc	r0, r0, #6
     258:	692d6970 	pushvs	{r4, r5, r6, r8, fp, sp, lr}
     25c:	7265746e 	rsbvc	r7, r5, #1845493760	; 0x6e000000
     260:	74707572 	ldrbtvc	r7, [r0], #-1394	; 0x572
     264:	00682e73 	rsbeq	r2, r8, r3, ror lr
     268:	00000004 	andeq	r0, r0, r4
     26c:	10020500 	andne	r0, r2, r0, lsl #10
     270:	03000080 	movweq	r0, #128	; 0x80
     274:	67010198 			; <UNDEFINED> instruction: 0x67010198
     278:	4b9f6767 	blmi	fe7da01c <__bss_end__+0xfe7cb724>
     27c:	ba7f9b03 	blt	1fe6e90 <__bss_end__+0x1fd8598>
     280:	4a00e603 	bmi	39a94 <__bss_end__+0x2b19c>
     284:	01040200 	mrseq	r0, R12_usr
     288:	03064a06 	movweq	r4, #27142	; 0x6a06
     28c:	03d67f9d 	bicseq	r7, r6, #628	; 0x274
     290:	00ba00e4 	adcseq	r0, sl, r4, ror #1
     294:	06010402 	streq	r0, [r1], -r2, lsl #8
     298:	9e03064a 	cfmadd32ls	mvax2, mvfx0, mvfx3, mvfx10
     29c:	e303d67f 	movw	sp, #13951	; 0x367f
     2a0:	02009e00 	andeq	r9, r0, #0, 28
     2a4:	4a060104 	bmi	1806bc <__bss_end__+0x171dc4>
     2a8:	7f980306 	svcvc	0x00980306
     2ac:	820a03d6 	andhi	r0, sl, #1476395011	; 0x58000003
     2b0:	834b4b4c 	movthi	r4, #47948	; 0xbb4c
     2b4:	4a00da03 	bmi	36ac8 <__bss_end__+0x281d0>
     2b8:	2e7fa203 	cdpcs	2, 7, cr10, cr15, cr3, {0}
     2bc:	2e00df03 	cdpcs	15, 0, cr13, cr0, cr3, {0}
     2c0:	01040200 	mrseq	r0, R12_usr
     2c4:	00664a06 	rsbeq	r4, r6, r6, lsl #20
     2c8:	66040402 	strvs	r0, [r4], -r2, lsl #8
     2cc:	01040200 	mrseq	r0, R12_usr
     2d0:	0602044a 	streq	r0, [r2], -sl, asr #8
     2d4:	027f9203 	rsbseq	r9, pc, #805306368	; 0x30000000
     2d8:	01040126 	tsteq	r4, r6, lsr #2
     2dc:	9c020416 	cfstrsls	mvf0, [r2], {22}
     2e0:	4b2f4ba0 	blmi	bd3168 <__bss_end__+0xbc4870>
     2e4:	83694b2f 	cmnhi	r9, #48128	; 0xbc00
     2e8:	4b316d68 	blmi	c5b890 <__bss_end__+0xc4cf98>
     2ec:	01043069 	tsteq	r4, r9, rrx
     2f0:	2e650331 	mcrcs	3, 3, r0, cr5, cr1, {1}
     2f4:	4c821c03 	stcmi	12, cr1, [r2], {3}
     2f8:	0402002f 	streq	r0, [r2], #-47	; 0x2f
     2fc:	9e610301 	cdpls	3, 6, cr0, cr1, cr1, {0}
     300:	02000204 	andeq	r0, r0, #4, 4	; 0x40000000
     304:	15030104 	strne	r0, [r3, #-260]	; 0x104
     308:	040200d6 	streq	r0, [r2], #-214	; 0xd6
     30c:	064a0602 	strbeq	r0, [sl], -r2, lsl #12
     310:	01046889 	smlabbeq	r4, r9, r8, r6
     314:	01040200 	mrseq	r0, R12_usr
     318:	00665f03 	rsbeq	r5, r6, r3, lsl #30
     31c:	03010402 	movweq	r0, #5122	; 0x1402
     320:	0200660b 	andeq	r6, r0, #11534336	; 0xb00000
     324:	04320104 	ldrteq	r0, [r2], #-260	; 0x104
     328:	04020002 	streq	r0, [r2], #-2
     32c:	2e110301 	cdpcs	3, 1, cr0, cr1, cr1, {0}
     330:	60030104 	andvs	r0, r3, r4, lsl #2
     334:	4a0a0366 	bmi	2810d4 <__bss_end__+0x2727dc>
     338:	83672f4c 	cmnhi	r7, #76, 30	; 0x130
     33c:	03020446 	movweq	r0, #9286	; 0x2446
     340:	01042e15 	tsteq	r4, r5, lsl lr
     344:	044a6003 	strbeq	r6, [sl], #-3
     348:	9e240302 	cdpls	3, 2, cr0, cr4, cr2, {0}
     34c:	4b41084b 	blmi	1042480 <__bss_end__+0x1033b88>
     350:	73030104 	movwvc	r0, #12548	; 0x3104
     354:	6665032e 	strbtvs	r0, [r5], -lr, lsr #6
     358:	4c9e1c03 	ldcmi	12, cr1, [lr], {3}
     35c:	03020467 	movweq	r0, #9319	; 0x2467
     360:	01049e0b 	tsteq	r4, fp, lsl #28
     364:	034a5303 	movteq	r5, #41731	; 0xa303
     368:	0432660b 	ldrteq	r6, [r2], #-1547	; 0x60b
     36c:	2e210302 	cdpcs	3, 2, cr0, cr1, cr2, {0}
     370:	0402002f 	streq	r0, [r2], #-47	; 0x2f
     374:	01044901 	tsteq	r4, r1, lsl #18
     378:	03665003 	cmneq	r6, #3
     37c:	2f4c4a0a 	svccs	0x004c4a0a
     380:	04468367 	strbeq	r8, [r6], #-871	; 0x367
     384:	2e250302 	cdpcs	3, 2, cr0, cr5, cr2, {0}
     388:	0104a14e 	tsteq	r4, lr, asr #2
     38c:	04014903 	streq	r4, [r1], #-2307	; 0x903
     390:	9e3a0302 	cdpls	3, 3, cr0, cr10, cr2, {0}
     394:	46030104 	strmi	r0, [r3], -r4, lsl #2
     398:	820a034a 	andhi	r0, sl, #671088641	; 0x28000001
     39c:	044b674c 	strbeq	r6, [fp], #-1868	; 0x74c
     3a0:	9e2b0302 	cdpls	3, 2, cr0, cr11, cr2, {0}
     3a4:	004b846c 	subeq	r8, fp, ip, ror #8
     3a8:	2f020402 	svccs	0x00020402
     3ac:	02040200 	andeq	r0, r4, #0, 4
     3b0:	0402002d 	streq	r0, [r2], #-45	; 0x2d
     3b4:	062e0601 	strteq	r0, [lr], -r1, lsl #12
     3b8:	312f3068 	teqcc	pc, r8, rrx
     3bc:	bc306867 	ldclt	8, cr6, [r0], #-412	; 0xfffffe64
     3c0:	67678330 			; <UNDEFINED> instruction: 0x67678330
     3c4:	68696767 	stmdavs	r9!, {r0, r1, r2, r5, r6, r8, r9, sl, sp, lr}^
     3c8:	2f4b2408 	svccs	0x004b2408
     3cc:	09036730 	stmdbeq	r3, {r4, r5, r8, r9, sl, sp, lr}
     3d0:	30306866 	eorscc	r6, r0, r6, ror #16
     3d4:	d82e2203 	stmdale	lr!, {r0, r1, r9, sp}
     3d8:	2f4b4c4c 	svccs	0x004b4c4c
     3dc:	2f4b2f83 	svccs	0x004b2f83
     3e0:	01040200 	mrseq	r0, R12_usr
     3e4:	002e7903 	eoreq	r7, lr, r3, lsl #18
     3e8:	65010402 	strvs	r0, [r1, #-1026]	; 0x402
     3ec:	4c4a0b03 	mcrrmi	11, 0, r0, sl, cr3
     3f0:	0012024b 	andseq	r0, r2, fp, asr #4
     3f4:	00ec0101 	rsceq	r0, ip, r1, lsl #2
     3f8:	00020000 	andeq	r0, r2, r0
     3fc:	000000d0 	ldrdeq	r0, [r0], -r0	; <UNPREDICTABLE>
     400:	0efb0102 	cdpeq	1, 15, cr0, cr11, cr2, {0}
     404:	0101000d 	tsteq	r1, sp
     408:	00000101 	andeq	r0, r0, r1, lsl #2
     40c:	00000100 	andeq	r0, r0, r0, lsl #2
     410:	62696c01 	rsbvs	r6, r9, #256	; 0x100
     414:	752f0063 	strvc	r0, [pc, #-99]!	; 3b9 <_start-0x7c47>
     418:	6c2f7273 	sfmvs	f7, 4, [pc], #-460	; 254 <_start-0x7dac>
     41c:	6c61636f 	stclvs	3, cr6, [r1], #-444	; 0xfffffe44
     420:	6c65432f 	stclvs	3, cr4, [r5], #-188	; 0xffffff44
     424:	2f72616c 	svccs	0x0072616c
     428:	2d6d7261 	sfmcs	f7, 2, [sp, #-388]!	; 0xfffffe7c
     42c:	656e6f6e 	strbvs	r6, [lr, #-3950]!	; 0xf6e
     430:	6261652d 	rsbvs	r6, r1, #188743680	; 0xb400000
     434:	2e342f69 	cdpcs	15, 3, cr2, cr4, cr9, {3}
     438:	2d332e38 	ldccs	14, cr2, [r3, #-224]!	; 0xffffff20
     43c:	37317363 	ldrcc	r7, [r1, -r3, ror #6]!
     440:	6c2f6530 	cfstr32vs	mvfx6, [pc], #-192	; 388 <_start-0x7c78>
     444:	672f6269 	strvs	r6, [pc, -r9, ror #4]!
     448:	612f6363 	teqvs	pc, r3, ror #6
     44c:	6e2d6d72 	mcrvs	13, 1, r6, cr13, cr2, {3}
     450:	2d656e6f 	stclcs	14, cr6, [r5, #-444]!	; 0xfffffe44
     454:	69626165 	stmdbvs	r2!, {r0, r2, r5, r6, r8, sp, lr}^
     458:	382e342f 	stmdacc	lr!, {r0, r1, r2, r3, r5, sl, ip, sp}
     45c:	692f332e 	stmdbvs	pc!, {r1, r2, r3, r5, r8, r9, ip, sp}	; <UNPREDICTABLE>
     460:	756c636e 	strbvc	r6, [ip, #-878]!	; 0x36e
     464:	2f006564 	svccs	0x00006564
     468:	2f727375 	svccs	0x00727375
     46c:	61636f6c 	cmnvs	r3, ip, ror #30
     470:	65432f6c 	strbvs	r2, [r3, #-3948]	; 0xf6c
     474:	72616c6c 	rsbvc	r6, r1, #108, 24	; 0x6c00
     478:	6d72612f 	ldfvse	f6, [r2, #-188]!	; 0xffffff44
     47c:	6e6f6e2d 	cdpvs	14, 6, cr6, cr15, cr13, {1}
     480:	61652d65 	cmnvs	r5, r5, ror #26
     484:	342f6962 	strtcc	r6, [pc], #-2402	; 48c <_start-0x7b74>
     488:	332e382e 	teqcc	lr, #3014656	; 0x2e0000
     48c:	3173632d 	cmncc	r3, sp, lsr #6
     490:	2f653037 	svccs	0x00653037
     494:	2d6d7261 	sfmcs	f7, 2, [sp, #-388]!	; 0xfffffe7c
     498:	656e6f6e 	strbvs	r6, [lr, #-3950]!	; 0xf6e
     49c:	6261652d 	rsbvs	r6, r1, #188743680	; 0xb400000
     4a0:	6e692f69 	cdpvs	15, 6, cr2, cr9, cr9, {3}
     4a4:	64756c63 	ldrbtvs	r6, [r5], #-3171	; 0xc63
     4a8:	6d000065 	stcvs	0, cr0, [r0, #-404]	; 0xfffffe6c
     4ac:	65736d65 	ldrbvs	r6, [r3, #-3429]!	; 0xd65
     4b0:	00632e74 	rsbeq	r2, r3, r4, ror lr
     4b4:	73000001 	movwvc	r0, #1
     4b8:	65646474 	strbvs	r6, [r4, #-1140]!	; 0x474
     4bc:	00682e66 	rsbeq	r2, r8, r6, ror #28
     4c0:	73000002 	movwvc	r0, #2
     4c4:	6e697274 	mcrvs	2, 3, r7, cr9, cr4, {3}
     4c8:	00682e67 	rsbeq	r2, r8, r7, ror #28
     4cc:	00000003 	andeq	r0, r0, r3
     4d0:	a4020500 	strge	r0, [r2], #-1280	; 0x500
     4d4:	14000086 	strne	r0, [r0], #-134	; 0x86
     4d8:	002f4c13 	eoreq	r4, pc, r3, lsl ip	; <UNPREDICTABLE>
     4dc:	49010402 	stmdbmi	r1, {r1, sl}
     4e0:	0002024d 	andeq	r0, r2, sp, asr #4
     4e4:	01020101 	tsteq	r2, r1, lsl #2
     4e8:	00020000 	andeq	r0, r2, r0
     4ec:	000000eb 	andeq	r0, r0, fp, ror #1
     4f0:	0efb0102 	cdpeq	1, 15, cr0, cr11, cr2, {0}
     4f4:	0101000d 	tsteq	r1, sp
     4f8:	00000101 	andeq	r0, r0, r1, lsl #2
     4fc:	00000100 	andeq	r0, r0, r0, lsl #2
     500:	62696c01 	rsbvs	r6, r9, #256	; 0x100
     504:	752f0063 	strvc	r0, [pc, #-99]!	; 4a9 <_start-0x7b57>
     508:	6c2f7273 	sfmvs	f7, 4, [pc], #-460	; 344 <_start-0x7cbc>
     50c:	6c61636f 	stclvs	3, cr6, [r1], #-444	; 0xfffffe44
     510:	6c65432f 	stclvs	3, cr4, [r5], #-188	; 0xffffff44
     514:	2f72616c 	svccs	0x0072616c
     518:	2d6d7261 	sfmcs	f7, 2, [sp, #-388]!	; 0xfffffe7c
     51c:	656e6f6e 	strbvs	r6, [lr, #-3950]!	; 0xf6e
     520:	6261652d 	rsbvs	r6, r1, #188743680	; 0xb400000
     524:	2e342f69 	cdpcs	15, 3, cr2, cr4, cr9, {3}
     528:	2d332e38 	ldccs	14, cr2, [r3, #-224]!	; 0xffffff20
     52c:	37317363 	ldrcc	r7, [r1, -r3, ror #6]!
     530:	6c2f6530 	cfstr32vs	mvfx6, [pc], #-192	; 478 <_start-0x7b88>
     534:	672f6269 	strvs	r6, [pc, -r9, ror #4]!
     538:	612f6363 	teqvs	pc, r3, ror #6
     53c:	6e2d6d72 	mcrvs	13, 1, r6, cr13, cr2, {3}
     540:	2d656e6f 	stclcs	14, cr6, [r5, #-444]!	; 0xfffffe44
     544:	69626165 	stmdbvs	r2!, {r0, r2, r5, r6, r8, sp, lr}^
     548:	382e342f 	stmdacc	lr!, {r0, r1, r2, r3, r5, sl, ip, sp}
     54c:	692f332e 	stmdbvs	pc!, {r1, r2, r3, r5, r8, r9, ip, sp}	; <UNPREDICTABLE>
     550:	756c636e 	strbvc	r6, [ip, #-878]!	; 0x36e
     554:	2f006564 	svccs	0x00006564
     558:	72657355 	rsbvc	r7, r5, #1409286145	; 0x54000001
     55c:	72622f73 	rsbvc	r2, r2, #460	; 0x1cc
     560:	6a6e6169 	bvs	1b98b0c <__bss_end__+0x1b8a214>
     564:	442f6e75 	strtmi	r6, [pc], #-3701	; 56c <_start-0x7a94>
     568:	746b7365 	strbtvc	r7, [fp], #-869	; 0x365
     56c:	732f706f 	teqvc	pc, #111	; 0x6f
     570:	6f6f6863 	svcvs	0x006f6863
     574:	69572f6c 	ldmdbvs	r7, {r2, r3, r5, r6, r8, r9, sl, fp, sp}^
     578:	7265746e 	rsbvc	r7, r5, #1845493760	; 0x6e000000
     57c:	30323931 	eorscc	r3, r2, r1, lsr r9
     580:	3153432f 	cmpcc	r3, pc, lsr #6
     584:	2f453034 	svccs	0x00453034
     588:	34317363 	ldrtcc	r7, [r1], #-867	; 0x363
     58c:	322d6530 	eorcc	r6, sp, #48, 10	; 0xc000000
     590:	6e697730 	mcrvs	7, 3, r7, cr9, cr0, {1}
     594:	62696c2f 	rsbvs	r6, r9, #12032	; 0x2f00
     598:	00006970 	andeq	r6, r0, r0, ror r9
     59c:	6e697270 	mcrvs	2, 3, r7, cr9, cr0, {3}
     5a0:	632e6b74 	teqvs	lr, #116, 22	; 0x1d000
     5a4:	00000100 	andeq	r0, r0, r0, lsl #2
     5a8:	61647473 	smcvs	18243	; 0x4743
     5ac:	682e6772 	stmdavs	lr!, {r1, r4, r5, r6, r8, r9, sl, sp, lr}
     5b0:	00000200 	andeq	r0, r0, r0, lsl #4
     5b4:	6975623c 	ldmdbvs	r5!, {r2, r3, r4, r5, r9, sp, lr}^
     5b8:	692d746c 	pushvs	{r2, r3, r5, r6, sl, ip, sp, lr}
     5bc:	00003e6e 	andeq	r3, r0, lr, ror #28
     5c0:	70720000 	rsbsvc	r0, r2, r0
     5c4:	00682e69 	rsbeq	r2, r8, r9, ror #28
     5c8:	76000003 	strvc	r0, [r0], -r3
     5cc:	72702d61 	rsbsvc	r2, r0, #6208	; 0x1840
     5d0:	6b746e69 	blvs	1d1bf7c <__bss_end__+0x1d0d684>
     5d4:	0100682e 	tsteq	r0, lr, lsr #16
     5d8:	00000000 	andeq	r0, r0, r0
     5dc:	86c40205 	strbhi	r0, [r4], r5, lsl #4
     5e0:	6b170000 	blvs	5c05e8 <__bss_end__+0x5b1cf0>
     5e4:	0289bf4b 	addeq	fp, r9, #300	; 0x12c
     5e8:	0101000e 	tsteq	r1, lr
     5ec:	0000008a 	andeq	r0, r0, sl, lsl #1
     5f0:	00720002 	rsbseq	r0, r2, r2
     5f4:	01020000 	mrseq	r0, (UNDEF: 2)
     5f8:	000d0efb 	strdeq	r0, [sp], -fp
     5fc:	01010101 	tsteq	r1, r1, lsl #2
     600:	01000000 	mrseq	r0, (UNDEF: 0)
     604:	6c010000 	stcvs	0, cr0, [r1], {-0}
     608:	00636269 	rsbeq	r6, r3, r9, ror #4
     60c:	6573552f 	ldrbvs	r5, [r3, #-1327]!	; 0x52f
     610:	622f7372 	eorvs	r7, pc, #-939524095	; 0xc8000001
     614:	6e616972 	mcrvs	9, 3, r6, cr1, cr2, {3}
     618:	2f6e756a 	svccs	0x006e756a
     61c:	6b736544 	blvs	1cd9b34 <__bss_end__+0x1ccb23c>
     620:	2f706f74 	svccs	0x00706f74
     624:	6f686373 	svcvs	0x00686373
     628:	572f6c6f 	strpl	r6, [pc, -pc, ror #24]!
     62c:	65746e69 	ldrbvs	r6, [r4, #-3689]!	; 0xe69
     630:	32393172 	eorscc	r3, r9, #-2147483620	; 0x8000001c
     634:	53432f30 	movtpl	r2, #16176	; 0x3f30
     638:	45303431 	ldrmi	r3, [r0, #-1073]!	; 0x431
     63c:	3173632f 	cmncc	r3, pc, lsr #6
     640:	2d653034 	stclcs	0, cr3, [r5, #-208]!	; 0xffffff30
     644:	69773032 	ldmdbvs	r7!, {r1, r4, r5, ip, sp}^
     648:	696c2f6e 	stmdbvs	ip!, {r1, r2, r3, r5, r6, r8, r9, sl, fp, sp}^
     64c:	00697062 	rsbeq	r7, r9, r2, rrx
     650:	74757000 	ldrbtvc	r7, [r5], #-0
     654:	72616863 	rsbvc	r6, r1, #6488064	; 0x630000
     658:	0100632e 	tsteq	r0, lr, lsr #6
     65c:	70720000 	rsbsvc	r0, r2, r0
     660:	00682e69 	rsbeq	r2, r8, r9, ror #28
     664:	00000002 	andeq	r0, r0, r2
     668:	1c020500 	cfstr32ne	mvfx0, [r2], {-0}
     66c:	14000087 	strne	r0, [r0], #-135	; 0x87
     670:	bc136b4a 	ldclt	11, cr6, [r3], {74}	; 0x4a
     674:	00080213 	andeq	r0, r8, r3, lsl r2
     678:	00960101 	addseq	r0, r6, r1, lsl #2
     67c:	00020000 	andeq	r0, r2, r0
     680:	0000006f 	andeq	r0, r0, pc, rrx
     684:	0efb0102 	cdpeq	1, 15, cr0, cr11, cr2, {0}
     688:	0101000d 	tsteq	r1, sp
     68c:	00000101 	andeq	r0, r0, r1, lsl #2
     690:	00000100 	andeq	r0, r0, r0, lsl #2
     694:	62696c01 	rsbvs	r6, r9, #256	; 0x100
     698:	552f0063 	strpl	r0, [pc, #-99]!	; 63d <_start-0x79c3>
     69c:	73726573 	cmnvc	r2, #482344960	; 0x1cc00000
     6a0:	6972622f 	ldmdbvs	r2!, {r0, r1, r2, r3, r5, r9, sp, lr}^
     6a4:	756a6e61 	strbvc	r6, [sl, #-3681]!	; 0xe61
     6a8:	65442f6e 	strbvs	r2, [r4, #-3950]	; 0xf6e
     6ac:	6f746b73 	svcvs	0x00746b73
     6b0:	63732f70 	cmnvs	r3, #112, 30	; 0x1c0
     6b4:	6c6f6f68 	stclvs	15, cr6, [pc], #-416	; 51c <_start-0x7ae4>
     6b8:	6e69572f 	cdpvs	7, 6, cr5, cr9, cr15, {1}
     6bc:	31726574 	cmncc	r2, r4, ror r5
     6c0:	2f303239 	svccs	0x00303239
     6c4:	34315343 	ldrtcc	r5, [r1], #-835	; 0x343
     6c8:	632f4530 	teqvs	pc, #48, 10	; 0xc000000
     6cc:	30343173 	eorscc	r3, r4, r3, ror r1
     6d0:	30322d65 	eorscc	r2, r2, r5, ror #26
     6d4:	2f6e6977 	svccs	0x006e6977
     6d8:	7062696c 	rsbvc	r6, r2, ip, ror #18
     6dc:	70000069 	andvc	r0, r0, r9, rrx
     6e0:	2e6b7475 	mcrcs	4, 3, r7, cr11, cr5, {3}
     6e4:	00010063 	andeq	r0, r1, r3, rrx
     6e8:	69707200 	ldmdbvs	r0!, {r9, ip, sp, lr}^
     6ec:	0200682e 	andeq	r6, r0, #3014656	; 0x2e0000
     6f0:	00000000 	andeq	r0, r0, r0
     6f4:	87580205 	ldrbhi	r0, [r8, -r5, lsl #4]
     6f8:	4c150000 	ldcmi	0, cr0, [r5], {-0}
     6fc:	0402002d 	streq	r0, [r2], #-45	; 0x2d
     700:	02002f02 	andeq	r2, r0, #2, 30
     704:	00490204 	subeq	r0, r9, r4, lsl #4
     708:	06010402 	streq	r0, [r1], -r2, lsl #8
     70c:	026b062e 	rsbeq	r0, fp, #48234496	; 0x2e00000
     710:	01010006 	tsteq	r1, r6
     714:	000001de 	ldrdeq	r0, [r0], -lr
     718:	00df0002 	sbcseq	r0, pc, r2
     71c:	01020000 	mrseq	r0, (UNDEF: 2)
     720:	000d0efb 	strdeq	r0, [sp], -fp
     724:	01010101 	tsteq	r1, r1, lsl #2
     728:	01000000 	mrseq	r0, (UNDEF: 0)
     72c:	6c010000 	stcvs	0, cr0, [r1], {-0}
     730:	00636269 	rsbeq	r6, r3, r9, ror #4
     734:	7273752f 	rsbsvc	r7, r3, #197132288	; 0xbc00000
     738:	636f6c2f 	cmnvs	pc, #12032	; 0x2f00
     73c:	432f6c61 	teqmi	pc, #24832	; 0x6100
     740:	616c6c65 	cmnvs	ip, r5, ror #24
     744:	72612f72 	rsbvc	r2, r1, #456	; 0x1c8
     748:	6f6e2d6d 	svcvs	0x006e2d6d
     74c:	652d656e 	strvs	r6, [sp, #-1390]!	; 0x56e
     750:	2f696261 	svccs	0x00696261
     754:	2e382e34 	mrccs	14, 1, r2, cr8, cr4, {1}
     758:	73632d33 	cmnvc	r3, #3264	; 0xcc0
     75c:	65303731 	ldrvs	r3, [r0, #-1841]!	; 0x731
     760:	62696c2f 	rsbvs	r6, r9, #12032	; 0x2f00
     764:	6363672f 	cmnvs	r3, #12320768	; 0xbc0000
     768:	6d72612f 	ldfvse	f6, [r2, #-188]!	; 0xffffff44
     76c:	6e6f6e2d 	cdpvs	14, 6, cr6, cr15, cr13, {1}
     770:	61652d65 	cmnvs	r5, r5, ror #26
     774:	342f6962 	strtcc	r6, [pc], #-2402	; 77c <_start-0x7884>
     778:	332e382e 	teqcc	lr, #3014656	; 0x2e0000
     77c:	636e692f 	cmnvs	lr, #770048	; 0xbc000
     780:	6564756c 	strbvs	r7, [r4, #-1388]!	; 0x56c
     784:	73552f00 	cmpvc	r5, #0, 30
     788:	2f737265 	svccs	0x00737265
     78c:	61697262 	cmnvs	r9, r2, ror #4
     790:	6e756a6e 	vsubvs.f32	s13, s10, s29
     794:	7365442f 	cmnvc	r5, #788529152	; 0x2f000000
     798:	706f746b 	rsbvc	r7, pc, fp, ror #8
     79c:	6863732f 	stmdavs	r3!, {r0, r1, r2, r3, r5, r8, r9, ip, sp, lr}^
     7a0:	2f6c6f6f 	svccs	0x006c6f6f
     7a4:	746e6957 	strbtvc	r6, [lr], #-2391	; 0x957
     7a8:	39317265 	ldmdbcc	r1!, {r0, r2, r5, r6, r9, ip, sp, lr}
     7ac:	432f3032 	teqmi	pc, #50	; 0x32
     7b0:	30343153 	eorscc	r3, r4, r3, asr r1
     7b4:	73632f45 	cmnvc	r3, #276	; 0x114
     7b8:	65303431 	ldrvs	r3, [r0, #-1073]!	; 0x431
     7bc:	7730322d 	ldrvc	r3, [r0, -sp, lsr #4]!
     7c0:	6c2f6e69 	stcvs	14, cr6, [pc], #-420	; 624 <_start-0x79dc>
     7c4:	69706269 	ldmdbvs	r0!, {r0, r3, r5, r6, r9, sp, lr}^
     7c8:	61760000 	cmnvs	r6, r0
     7cc:	6972702d 	ldmdbvs	r2!, {r0, r2, r3, r5, ip, sp, lr}^
     7d0:	2e6b746e 	cdpcs	4, 6, cr7, cr11, cr14, {3}
     7d4:	00010063 	andeq	r0, r1, r3, rrx
     7d8:	64747300 	ldrbtvs	r7, [r4], #-768	; 0x300
     7dc:	2e677261 	cdpcs	2, 6, cr7, cr7, cr1, {3}
     7e0:	00020068 	andeq	r0, r2, r8, rrx
     7e4:	69707200 	ldmdbvs	r0!, {r9, ip, sp, lr}^
     7e8:	0300682e 	movweq	r6, #2094	; 0x82e
     7ec:	623c0000 	eorsvs	r0, ip, #0
     7f0:	746c6975 	strbtvc	r6, [ip], #-2421	; 0x975
     7f4:	3e6e692d 	cdpcc	9, 6, cr6, cr14, cr13, {1}
     7f8:	00000000 	andeq	r0, r0, r0
     7fc:	02050000 	andeq	r0, r5, #0
     800:	0000878c 	andeq	r8, r0, ip, lsl #15
     804:	01012603 	tsteq	r1, r3, lsl #12
     808:	2d3113a5 	ldccs	3, cr1, [r1, #-660]!	; 0xfffffd6c
     80c:	02040200 	andeq	r0, r4, #0, 4
     810:	0402002f 	streq	r0, [r2], #-47	; 0x2f
     814:	02002d02 	andeq	r2, r0, #2, 26	; 0x80
     818:	002f0204 	eoreq	r0, pc, r4, lsl #4
     81c:	2d010402 	cfstrscs	mvf0, [r1, #-8]
     820:	14304c4c 	ldrtne	r4, [r0], #-3148	; 0xc4c
     824:	004f2f4b 	subeq	r2, pc, fp, asr #30
     828:	67020402 	strvs	r0, [r2, -r2, lsl #8]
     82c:	01040200 	mrseq	r0, R12_usr
     830:	304d4c65 	subcc	r4, sp, r5, ror #24
     834:	30312fa0 	eorscc	r2, r1, r0, lsr #31
     838:	84162602 	ldrhi	r2, [r6], #-1538	; 0x602
     83c:	02002c2d 	andeq	r2, r0, #11520	; 0x2d00
     840:	00300104 	eorseq	r0, r0, r4, lsl #2
     844:	33010402 	movwcc	r0, #5122	; 0x1402
     848:	02006606 	andeq	r6, r0, #6291456	; 0x600000
     84c:	002e0104 	eoreq	r0, lr, r4, lsl #2
     850:	06010402 	streq	r0, [r1], -r2, lsl #8
     854:	2f672108 	svccs	0x00672108
     858:	03827303 	orreq	r7, r2, #201326592	; 0xc000000
     85c:	02002e13 	andeq	r2, r0, #304	; 0x130
     860:	2e060104 	adfcss	f0, f6, f4
     864:	01040200 	mrseq	r0, R12_usr
     868:	4b6a9f06 	blmi	1aa8488 <__bss_end__+0x1a99b90>
     86c:	032e6703 	teqeq	lr, #786432	; 0xc0000
     870:	02002e21 	andeq	r2, r0, #528	; 0x210
     874:	2e060104 	adfcss	f0, f6, f4
     878:	01040200 	mrseq	r0, R12_usr
     87c:	02009f06 	andeq	r9, r0, #6, 30
     880:	d96a0104 	stmdble	sl!, {r2, r8}^
     884:	7fa603f3 	svcvc	0x00a603f3
     888:	002f2008 	eoreq	r2, pc, r8
     88c:	06010402 	streq	r0, [r1], -r2, lsl #8
     890:	4bd7064a 	blmi	ff5c21c0 <__bss_end__+0xff5b38c8>
     894:	00da032f 	sbcseq	r0, sl, pc, lsr #6
     898:	484c83f2 	stmdami	ip, {r1, r4, r5, r6, r7, r8, r9, pc}^
     89c:	032e0e03 	teqeq	lr, #3, 28	; 0x30
     8a0:	2f2f2e75 	svccs	0x002f2e75
     8a4:	2d2f4b84 	vstmdbcs	pc!, {d4-d5}
     8a8:	2f30314d 	svccs	0x0030314d
     8ac:	04020083 	streq	r0, [r2], #-131	; 0x83
     8b0:	00a22c01 	adceq	r2, r2, r1, lsl #24
     8b4:	06010402 	streq	r0, [r1], -r2, lsl #8
     8b8:	02d8064a 	sbcseq	r0, r8, #77594624	; 0x4a00000
     8bc:	0e031636 	mcreq	6, 0, r1, cr3, cr6, {1}
     8c0:	302108d6 	ldrdcc	r0, [r1], -r6	; <UNPREDICTABLE>
     8c4:	30f331f3 	ldrshtcc	r3, [r3], #19
     8c8:	304b30f3 	strdcc	r3, [fp], #-3
     8cc:	230830f3 	movwcs	r3, #33011	; 0x80f3
     8d0:	02002f31 	andeq	r2, r0, #49, 30	; 0xc4
     8d4:	00650104 	rsbeq	r0, r5, r4, lsl #2
     8d8:	06020402 	streq	r0, [r2], -r2, lsl #8
     8dc:	0402004a 	streq	r0, [r2], #-74	; 0x4a
     8e0:	42030601 	andmi	r0, r3, #1048576	; 0x100000
     8e4:	04020066 	streq	r0, [r2], #-102	; 0x66
     8e8:	06660602 	strbteq	r0, [r6], -r2, lsl #12
     8ec:	4a00c203 	bmi	31100 <__bss_end__+0x22808>
     8f0:	00100268 	andseq	r0, r0, r8, ror #4
     8f4:	00930101 	addseq	r0, r3, r1, lsl #2
     8f8:	00020000 	andeq	r0, r2, r0
     8fc:	0000007d 	andeq	r0, r0, sp, ror r0
     900:	0efb0102 	cdpeq	1, 15, cr0, cr11, cr2, {0}
     904:	0101000d 	tsteq	r1, sp
     908:	00000101 	andeq	r0, r0, r1, lsl #2
     90c:	00000100 	andeq	r0, r0, r0, lsl #2
     910:	31736301 	cmncc	r3, r1, lsl #6
     914:	2d653034 	stclcs	0, cr3, [r5, #-208]!	; 0xffffff30
     918:	00637273 	rsbeq	r7, r3, r3, ror r2
     91c:	6573552f 	ldrbvs	r5, [r3, #-1327]!	; 0x52f
     920:	622f7372 	eorvs	r7, pc, #-939524095	; 0xc8000001
     924:	6e616972 	mcrvs	9, 3, r6, cr1, cr2, {3}
     928:	2f6e756a 	svccs	0x006e756a
     92c:	6b736544 	blvs	1cd9e44 <__bss_end__+0x1ccb54c>
     930:	2f706f74 	svccs	0x00706f74
     934:	6f686373 	svcvs	0x00686373
     938:	572f6c6f 	strpl	r6, [pc, -pc, ror #24]!
     93c:	65746e69 	ldrbvs	r6, [r4, #-3689]!	; 0xe69
     940:	32393172 	eorscc	r3, r9, #-2147483620	; 0x8000001c
     944:	53432f30 	movtpl	r2, #16176	; 0x3f30
     948:	45303431 	ldrmi	r3, [r0, #-1073]!	; 0x431
     94c:	3173632f 	cmncc	r3, pc, lsr #6
     950:	2d653034 	stclcs	0, cr3, [r5, #-208]!	; 0xffffff30
     954:	69773032 	ldmdbvs	r7!, {r1, r4, r5, ip, sp}^
     958:	696c2f6e 	stmdbvs	ip!, {r1, r2, r3, r5, r6, r8, r9, sl, fp, sp}^
     95c:	00697062 	rsbeq	r7, r9, r2, rrx
     960:	656c6300 	strbvs	r6, [ip, #-768]!	; 0x300
     964:	722d6e61 	eorvc	r6, sp, #1552	; 0x610
     968:	6f6f6265 	svcvs	0x006f6265
     96c:	00632e74 	rsbeq	r2, r3, r4, ror lr
     970:	72000001 	andvc	r0, r0, #1
     974:	682e6970 	stmdavs	lr!, {r4, r5, r6, r8, fp, sp, lr}
     978:	00000200 	andeq	r0, r0, r0, lsl #4
     97c:	02050000 	andeq	r0, r5, #0
     980:	00008c84 	andeq	r8, r0, r4, lsl #25
     984:	4b832f15 	blmi	fe0cc5e0 <__bss_end__+0xfe0bdce8>
     988:	01000602 	tsteq	r0, r2, lsl #12
     98c:	00012101 	andeq	r2, r1, r1, lsl #2
     990:	f8000200 			; <UNDEFINED> instruction: 0xf8000200
     994:	02000000 	andeq	r0, r0, #0
     998:	0d0efb01 	vstreq	d15, [lr, #-4]
     99c:	01010100 	mrseq	r0, (UNDEF: 17)
     9a0:	00000001 	andeq	r0, r0, r1
     9a4:	01000001 	tsteq	r0, r1
     9a8:	34317363 	ldrtcc	r7, [r1], #-867	; 0x363
     9ac:	732d6530 	teqvc	sp, #48, 10	; 0xc000000
     9b0:	2f006372 	svccs	0x00006372
     9b4:	2f727375 	svccs	0x00727375
     9b8:	61636f6c 	cmnvs	r3, ip, ror #30
     9bc:	65432f6c 	strbvs	r2, [r3, #-3948]	; 0xf6c
     9c0:	72616c6c 	rsbvc	r6, r1, #108, 24	; 0x6c00
     9c4:	6d72612f 	ldfvse	f6, [r2, #-188]!	; 0xffffff44
     9c8:	6e6f6e2d 	cdpvs	14, 6, cr6, cr15, cr13, {1}
     9cc:	61652d65 	cmnvs	r5, r5, ror #26
     9d0:	342f6962 	strtcc	r6, [pc], #-2402	; 9d8 <_start-0x7628>
     9d4:	332e382e 	teqcc	lr, #3014656	; 0x2e0000
     9d8:	3173632d 	cmncc	r3, sp, lsr #6
     9dc:	2f653037 	svccs	0x00653037
     9e0:	2f62696c 	svccs	0x0062696c
     9e4:	2f636367 	svccs	0x00636367
     9e8:	2d6d7261 	sfmcs	f7, 2, [sp, #-388]!	; 0xfffffe7c
     9ec:	656e6f6e 	strbvs	r6, [lr, #-3950]!	; 0xf6e
     9f0:	6261652d 	rsbvs	r6, r1, #188743680	; 0xb400000
     9f4:	2e342f69 	cdpcs	15, 3, cr2, cr4, cr9, {3}
     9f8:	2f332e38 	svccs	0x00332e38
     9fc:	6c636e69 	stclvs	14, cr6, [r3], #-420	; 0xfffffe5c
     a00:	00656475 	rsbeq	r6, r5, r5, ror r4
     a04:	6573552f 	ldrbvs	r5, [r3, #-1327]!	; 0x52f
     a08:	622f7372 	eorvs	r7, pc, #-939524095	; 0xc8000001
     a0c:	6e616972 	mcrvs	9, 3, r6, cr1, cr2, {3}
     a10:	2f6e756a 	svccs	0x006e756a
     a14:	6b736544 	blvs	1cd9f2c <__bss_end__+0x1ccb634>
     a18:	2f706f74 	svccs	0x00706f74
     a1c:	6f686373 	svcvs	0x00686373
     a20:	572f6c6f 	strpl	r6, [pc, -pc, ror #24]!
     a24:	65746e69 	ldrbvs	r6, [r4, #-3689]!	; 0xe69
     a28:	32393172 	eorscc	r3, r9, #-2147483620	; 0x8000001c
     a2c:	53432f30 	movtpl	r2, #16176	; 0x3f30
     a30:	45303431 	ldrmi	r3, [r0, #-1073]!	; 0x431
     a34:	3173632f 	cmncc	r3, pc, lsr #6
     a38:	2d653034 	stclcs	0, cr3, [r5, #-208]!	; 0xffffff30
     a3c:	69773032 	ldmdbvs	r7!, {r1, r4, r5, ip, sp}^
     a40:	696c2f6e 	stmdbvs	ip!, {r1, r2, r3, r5, r6, r8, r9, sl, fp, sp}^
     a44:	00697062 	rsbeq	r7, r9, r2, rrx
     a48:	74736300 	ldrbtvc	r6, [r3], #-768	; 0x300
     a4c:	2e747261 	cdpcs	2, 7, cr7, cr4, cr1, {3}
     a50:	00010063 	andeq	r0, r1, r3, rrx
     a54:	64747300 	ldrbtvs	r7, [r4], #-768	; 0x300
     a58:	2d746e69 	ldclcs	14, cr6, [r4, #-420]!	; 0xfffffe5c
     a5c:	2e636367 	cdpcs	3, 6, cr6, cr3, cr7, {3}
     a60:	00020068 	andeq	r0, r2, r8, rrx
     a64:	2d777300 	ldclcs	3, cr7, [r7, #-0]
     a68:	74726175 	ldrbtvc	r6, [r2], #-373	; 0x175
     a6c:	0100682e 	tsteq	r0, lr, lsr #16
     a70:	6f630000 	svcvs	0x00630000
     a74:	6f72746e 	svcvs	0x0072746e
     a78:	6c622d6c 	stclvs	13, cr2, [r2], #-432	; 0xfffffe50
     a7c:	2e6b636f 	cdpcs	3, 6, cr6, cr11, cr15, {3}
     a80:	00010068 	andeq	r0, r1, r8, rrx
     a84:	69707200 	ldmdbvs	r0!, {r9, ip, sp, lr}^
     a88:	0300682e 	movweq	r6, #2094	; 0x82e
     a8c:	00000000 	andeq	r0, r0, r0
     a90:	8cac0205 	sfmhi	f0, 4, [ip], #20
     a94:	4b170000 	blmi	5c0a9c <__bss_end__+0x5b21a4>
     a98:	31326868 	teqcc	r2, r8, ror #16
     a9c:	002f2d2f 	eoreq	r2, pc, pc, lsr #26
     aa0:	49010402 	stmdbmi	r1, {r1, sl}
     aa4:	674b2f4f 	strbvs	r2, [fp, -pc, asr #30]
     aa8:	4e678367 	cdpmi	3, 6, cr8, cr7, cr7, {3}
     aac:	0010022f 	andseq	r0, r0, pc, lsr #4
     ab0:	00990101 	addseq	r0, r9, r1, lsl #2
     ab4:	00020000 	andeq	r0, r2, r0
     ab8:	00000077 	andeq	r0, r0, r7, ror r0
     abc:	0efb0102 	cdpeq	1, 15, cr0, cr11, cr2, {0}
     ac0:	0101000d 	tsteq	r1, sp
     ac4:	00000101 	andeq	r0, r0, r1, lsl #2
     ac8:	00000100 	andeq	r0, r0, r0, lsl #2
     acc:	31736301 	cmncc	r3, r1, lsl #6
     ad0:	2d653034 	stclcs	0, cr3, [r5, #-208]!	; 0xffffff30
     ad4:	00637273 	rsbeq	r7, r3, r3, ror r2
     ad8:	6573552f 	ldrbvs	r5, [r3, #-1327]!	; 0x52f
     adc:	622f7372 	eorvs	r7, pc, #-939524095	; 0xc8000001
     ae0:	6e616972 	mcrvs	9, 3, r6, cr1, cr2, {3}
     ae4:	2f6e756a 	svccs	0x006e756a
     ae8:	6b736544 	blvs	1cda000 <__bss_end__+0x1ccb708>
     aec:	2f706f74 	svccs	0x00706f74
     af0:	6f686373 	svcvs	0x00686373
     af4:	572f6c6f 	strpl	r6, [pc, -pc, ror #24]!
     af8:	65746e69 	ldrbvs	r6, [r4, #-3689]!	; 0xe69
     afc:	32393172 	eorscc	r3, r9, #-2147483620	; 0x8000001c
     b00:	53432f30 	movtpl	r2, #16176	; 0x3f30
     b04:	45303431 	ldrmi	r3, [r0, #-1073]!	; 0x431
     b08:	3173632f 	cmncc	r3, pc, lsr #6
     b0c:	2d653034 	stclcs	0, cr3, [r5, #-208]!	; 0xffffff30
     b10:	69773032 	ldmdbvs	r7!, {r1, r4, r5, ip, sp}^
     b14:	696c2f6e 	stmdbvs	ip!, {r1, r2, r3, r5, r6, r8, r9, sl, fp, sp}^
     b18:	00697062 	rsbeq	r7, r9, r2, rrx
     b1c:	62657200 	rsbvs	r7, r5, #0, 4
     b20:	2e746f6f 	cdpcs	15, 7, cr6, cr4, cr15, {3}
     b24:	00010063 	andeq	r0, r1, r3, rrx
     b28:	69707200 	ldmdbvs	r0!, {r9, ip, sp, lr}^
     b2c:	0200682e 	andeq	r6, r0, #3014656	; 0x2e0000
     b30:	00000000 	andeq	r0, r0, r0
     b34:	8d5c0205 	lfmhi	f0, 2, [ip, #-20]	; 0xffffffec
     b38:	0d030000 	stceq	0, cr0, [r3, #-0]
     b3c:	2f311401 	svccs	0x00311401
     b40:	4b2f1585 	blmi	bc615c <__bss_end__+0xbb7864>
     b44:	35672f4d 	strbcc	r2, [r7, #-3917]!	; 0xf4d
     b48:	10026752 	andne	r6, r2, r2, asr r7
     b4c:	a3010100 	movwge	r0, #4352	; 0x1100
     b50:	02000000 	andeq	r0, r0, #0
     b54:	00007600 	andeq	r7, r0, r0, lsl #12
     b58:	fb010200 	blx	41362 <__bss_end__+0x32a6a>
     b5c:	01000d0e 	tsteq	r0, lr, lsl #26
     b60:	00010101 	andeq	r0, r1, r1, lsl #2
     b64:	00010000 	andeq	r0, r1, r0
     b68:	73630100 	cmnvc	r3, #0, 2
     b6c:	65303431 	ldrvs	r3, [r0, #-1073]!	; 0x431
     b70:	6372732d 	cmnvs	r2, #-1275068416	; 0xb4000000
     b74:	73552f00 	cmpvc	r5, #0, 30
     b78:	2f737265 	svccs	0x00737265
     b7c:	61697262 	cmnvs	r9, r2, ror #4
     b80:	6e756a6e 	vsubvs.f32	s13, s10, s29
     b84:	7365442f 	cmnvc	r5, #788529152	; 0x2f000000
     b88:	706f746b 	rsbvc	r7, pc, fp, ror #8
     b8c:	6863732f 	stmdavs	r3!, {r0, r1, r2, r3, r5, r8, r9, ip, sp, lr}^
     b90:	2f6c6f6f 	svccs	0x006c6f6f
     b94:	746e6957 	strbtvc	r6, [lr], #-2391	; 0x957
     b98:	39317265 	ldmdbcc	r1!, {r0, r2, r5, r6, r9, ip, sp, lr}
     b9c:	432f3032 	teqmi	pc, #50	; 0x32
     ba0:	30343153 	eorscc	r3, r4, r3, asr r1
     ba4:	73632f45 	cmnvc	r3, #276	; 0x114
     ba8:	65303431 	ldrvs	r3, [r0, #-1073]!	; 0x431
     bac:	7730322d 	ldrvc	r3, [r0, -sp, lsr #4]!
     bb0:	6c2f6e69 	stcvs	14, cr6, [pc], #-420	; a14 <_start-0x75ec>
     bb4:	69706269 	ldmdbvs	r0!, {r0, r3, r5, r6, r9, sp, lr}^
     bb8:	69740000 	ldmdbvs	r4!, {}^	; <UNPREDICTABLE>
     bbc:	2e72656d 	cdpcs	5, 7, cr6, cr2, cr13, {3}
     bc0:	00010063 	andeq	r0, r1, r3, rrx
     bc4:	69707200 	ldmdbvs	r0!, {r9, ip, sp, lr}^
     bc8:	0200682e 	andeq	r6, r0, #3014656	; 0x2e0000
     bcc:	00000000 	andeq	r0, r0, r0
     bd0:	8dd00205 	lfmhi	f0, 2, [r0, #20]
     bd4:	13160000 	tstne	r6, #0
     bd8:	02002d2f 	andeq	r2, r0, #3008	; 0xbc0
     bdc:	2e060104 	adfcss	f0, f6, f4
     be0:	2f316806 	svccs	0x00316806
     be4:	31324d4b 	teqcc	r2, fp, asr #26
     be8:	2f4c4b30 	svccs	0x004c4b30
     bec:	842f2f6a 	strthi	r2, [pc], #-3946	; bf4 <_start-0x740c>
     bf0:	0008022f 	andeq	r0, r8, pc, lsr #4
     bf4:	01880101 	orreq	r0, r8, r1, lsl #2
     bf8:	00020000 	andeq	r0, r2, r0
     bfc:	000000ca 	andeq	r0, r0, sl, asr #1
     c00:	0efb0102 	cdpeq	1, 15, cr0, cr11, cr2, {0}
     c04:	0101000d 	tsteq	r1, sp
     c08:	00000101 	andeq	r0, r0, r1, lsl #2
     c0c:	00000100 	andeq	r0, r0, r0, lsl #2
     c10:	2d796d01 	ldclcs	13, cr6, [r9, #-4]!
     c14:	00637273 	rsbeq	r7, r3, r3, ror r2
     c18:	6573552f 	ldrbvs	r5, [r3, #-1327]!	; 0x52f
     c1c:	622f7372 	eorvs	r7, pc, #-939524095	; 0xc8000001
     c20:	6e616972 	mcrvs	9, 3, r6, cr1, cr2, {3}
     c24:	2f6e756a 	svccs	0x006e756a
     c28:	6b736544 	blvs	1cda140 <__bss_end__+0x1ccb848>
     c2c:	2f706f74 	svccs	0x00706f74
     c30:	6f686373 	svcvs	0x00686373
     c34:	572f6c6f 	strpl	r6, [pc, -pc, ror #24]!
     c38:	65746e69 	ldrbvs	r6, [r4, #-3689]!	; 0xe69
     c3c:	32393172 	eorscc	r3, r9, #-2147483620	; 0x8000001c
     c40:	53432f30 	movtpl	r2, #16176	; 0x3f30
     c44:	45303431 	ldrmi	r3, [r0, #-1073]!	; 0x431
     c48:	3173632f 	cmncc	r3, pc, lsr #6
     c4c:	2d653034 	stclcs	0, cr3, [r5, #-208]!	; 0xffffff30
     c50:	69773032 	ldmdbvs	r7!, {r1, r4, r5, ip, sp}^
     c54:	696c2f6e 	stmdbvs	ip!, {r1, r2, r3, r5, r6, r8, r9, sl, fp, sp}^
     c58:	2f697062 	svccs	0x00697062
     c5c:	34317363 	ldrtcc	r7, [r1], #-867	; 0x363
     c60:	732d6530 	teqvc	sp, #48, 10	; 0xc000000
     c64:	2f006372 	svccs	0x00006372
     c68:	72657355 	rsbvc	r7, r5, #1409286145	; 0x54000001
     c6c:	72622f73 	rsbvc	r2, r2, #460	; 0x1cc
     c70:	6a6e6169 	bvs	1b9921c <__bss_end__+0x1b8a924>
     c74:	442f6e75 	strtmi	r6, [pc], #-3701	; c7c <_start-0x7384>
     c78:	746b7365 	strbtvc	r7, [fp], #-869	; 0x365
     c7c:	732f706f 	teqvc	pc, #111	; 0x6f
     c80:	6f6f6863 	svcvs	0x006f6863
     c84:	69572f6c 	ldmdbvs	r7, {r2, r3, r5, r6, r8, r9, sl, fp, sp}^
     c88:	7265746e 	rsbvc	r7, r5, #1845493760	; 0x6e000000
     c8c:	30323931 	eorscc	r3, r2, r1, lsr r9
     c90:	3153432f 	cmpcc	r3, pc, lsr #6
     c94:	2f453034 	svccs	0x00453034
     c98:	34317363 	ldrtcc	r7, [r1], #-867	; 0x363
     c9c:	322d6530 	eorcc	r6, sp, #48, 10	; 0xc000000
     ca0:	6e697730 	mcrvs	7, 3, r7, cr9, cr0, {1}
     ca4:	62696c2f 	rsbvs	r6, r9, #12032	; 0x2f00
     ca8:	00006970 	andeq	r6, r0, r0, ror r9
     cac:	6f697067 	svcvs	0x00697067
     cb0:	0100632e 	tsteq	r0, lr, lsr #6
     cb4:	70670000 	rsbvc	r0, r7, r0
     cb8:	682e6f69 	stmdavs	lr!, {r0, r3, r5, r6, r8, r9, sl, fp, sp, lr}
     cbc:	00000200 	andeq	r0, r0, r0, lsl #4
     cc0:	2e697072 	mcrcs	0, 3, r7, cr9, cr2, {3}
     cc4:	00030068 	andeq	r0, r3, r8, rrx
     cc8:	05000000 	streq	r0, [r0, #-0]
     ccc:	008e5802 	addeq	r5, lr, r2, lsl #16
     cd0:	013e0300 	teqeq	lr, r0, lsl #6
     cd4:	0869504e 	stmdaeq	r9!, {r1, r2, r3, r6, ip, lr}^
     cd8:	67676721 	strbvs	r6, [r7, -r1, lsr #14]!
     cdc:	32676767 	rsbcc	r6, r7, #27000832	; 0x19c0000
     ce0:	dc22084b 	stcle	8, cr0, [r2], #-300	; 0xfffffed4
     ce4:	4e135131 	mrcmi	1, 0, r5, cr3, cr1, {1}
     ce8:	31be3050 			; <UNDEFINED> instruction: 0x31be3050
     cec:	4f4d1350 	svcmi	0x004d1350
     cf0:	504cc030 	subpl	ip, ip, r0, lsr r0
     cf4:	67210869 	strvs	r0, [r1, -r9, ror #16]!
     cf8:	67676767 	strbvs	r6, [r7, -r7, ror #14]!
     cfc:	084b3267 	stmdaeq	fp, {r0, r1, r2, r5, r6, r9, ip, sp}^
     d00:	504ca421 	subpl	sl, ip, r1, lsr #8
     d04:	0369842f 	cmneq	r9, #788529152	; 0x2f000000
     d08:	0c038275 	sfmeq	f0, 1, [r3], {117}	; 0x75
     d0c:	4e304d2e 	cdpmi	13, 3, cr4, cr0, cr14, {1}
     d10:	4a7f9803 	bmi	1fe6d24 <__bss_end__+0x1fd842c>
     d14:	504e1351 	subpl	r1, lr, r1, asr r3
     d18:	1350a530 	cmpne	r0, #48, 10	; 0xc000000
     d1c:	03304f4d 	teqeq	r0, #308	; 0x134
     d20:	6aba00c2 	bvs	fee81030 <__bss_end__+0xfee72738>
     d24:	2108696b 	tstcs	r8, fp, ror #18
     d28:	67676767 	strbvs	r6, [r7, -r7, ror #14]!
     d2c:	4b326767 	blmi	c9aad0 <__bss_end__+0xc8c1d8>
     d30:	1a032208 	bne	c9558 <__bss_end__+0xbac60>
     d34:	4c9f31ba 	ldfmis	f3, [pc], {186}	; 0xba
     d38:	4e4d522f 	cdpmi	2, 4, cr5, cr13, cr15, {1}
     d3c:	4b674b2f 	blmi	19d3a00 <__bss_end__+0x19c5108>
     d40:	4c676768 	stclmi	7, cr6, [r7], #-416	; 0xfffffe60
     d44:	4b2f672f 	blmi	bdaa08 <__bss_end__+0xbcc110>
     d48:	2f4e4c6e 	svccs	0x004e4c6e
     d4c:	684b674b 	stmdavs	fp, {r0, r1, r3, r6, r8, r9, sl, sp, lr}^
     d50:	2f4c6767 	svccs	0x004c6767
     d54:	6d4b2f67 	stclvs	15, cr2, [fp, #-412]	; 0xfffffe64
     d58:	4b2f4e4b 	blmi	bd468c <__bss_end__+0xbc5d94>
     d5c:	04020067 	streq	r0, [r2], #-103	; 0x67
     d60:	06660601 	strbteq	r0, [r6], -r1, lsl #12
     d64:	002f9f68 	eoreq	r9, pc, r8, ror #30
     d68:	06010402 	streq	r0, [r1], -r2, lsl #8
     d6c:	2f68064a 	svccs	0x0068064a
     d70:	034a7303 	movteq	r7, #41731	; 0xa303
     d74:	4c4d2e0e 	mcrrmi	14, 0, r2, sp, cr14
     d78:	bc4b2f4e 	mcrrlt	15, 4, r2, fp, cr14
     d7c:	000602bc 			; <UNDEFINED> instruction: 0x000602bc
     d80:	03450101 	movteq	r0, #20737	; 0x5101
     d84:	00020000 	andeq	r0, r2, r0
     d88:	000001bd 			; <UNDEFINED> instruction: 0x000001bd
     d8c:	0efb0102 	cdpeq	1, 15, cr0, cr11, cr2, {0}
     d90:	0101000d 	tsteq	r1, sp
     d94:	00000101 	andeq	r0, r0, r1, lsl #2
     d98:	00000100 	andeq	r0, r0, r0, lsl #2
     d9c:	2d796d01 	ldclcs	13, cr6, [r9, #-4]!
     da0:	00637273 	rsbeq	r7, r3, r3, ror r2
     da4:	6573552f 	ldrbvs	r5, [r3, #-1327]!	; 0x52f
     da8:	622f7372 	eorvs	r7, pc, #-939524095	; 0xc8000001
     dac:	6e616972 	mcrvs	9, 3, r6, cr1, cr2, {3}
     db0:	2f6e756a 	svccs	0x006e756a
     db4:	6b736544 	blvs	1cda2cc <__bss_end__+0x1ccb9d4>
     db8:	2f706f74 	svccs	0x00706f74
     dbc:	6f686373 	svcvs	0x00686373
     dc0:	572f6c6f 	strpl	r6, [pc, -pc, ror #24]!
     dc4:	65746e69 	ldrbvs	r6, [r4, #-3689]!	; 0xe69
     dc8:	32393172 	eorscc	r3, r9, #-2147483620	; 0x8000001c
     dcc:	53432f30 	movtpl	r2, #16176	; 0x3f30
     dd0:	45303431 	ldrmi	r3, [r0, #-1073]!	; 0x431
     dd4:	3173632f 	cmncc	r3, pc, lsr #6
     dd8:	2d653034 	stclcs	0, cr3, [r5, #-208]!	; 0xffffff30
     ddc:	69773032 	ldmdbvs	r7!, {r1, r4, r5, ip, sp}^
     de0:	696c2f6e 	stmdbvs	ip!, {r1, r2, r3, r5, r6, r8, r9, sl, fp, sp}^
     de4:	2f697062 	svccs	0x00697062
     de8:	34317363 	ldrtcc	r7, [r1], #-867	; 0x363
     dec:	732d6530 	teqvc	sp, #48, 10	; 0xc000000
     df0:	2f006372 	svccs	0x00006372
     df4:	2f727375 	svccs	0x00727375
     df8:	61636f6c 	cmnvs	r3, ip, ror #30
     dfc:	65432f6c 	strbvs	r2, [r3, #-3948]	; 0xf6c
     e00:	72616c6c 	rsbvc	r6, r1, #108, 24	; 0x6c00
     e04:	6d72612f 	ldfvse	f6, [r2, #-188]!	; 0xffffff44
     e08:	6e6f6e2d 	cdpvs	14, 6, cr6, cr15, cr13, {1}
     e0c:	61652d65 	cmnvs	r5, r5, ror #26
     e10:	342f6962 	strtcc	r6, [pc], #-2402	; e18 <_start-0x71e8>
     e14:	332e382e 	teqcc	lr, #3014656	; 0x2e0000
     e18:	3173632d 	cmncc	r3, sp, lsr #6
     e1c:	2f653037 	svccs	0x00653037
     e20:	2f62696c 	svccs	0x0062696c
     e24:	2f636367 	svccs	0x00636367
     e28:	2d6d7261 	sfmcs	f7, 2, [sp, #-388]!	; 0xfffffe7c
     e2c:	656e6f6e 	strbvs	r6, [lr, #-3950]!	; 0xf6e
     e30:	6261652d 	rsbvs	r6, r1, #188743680	; 0xb400000
     e34:	2e342f69 	cdpcs	15, 3, cr2, cr4, cr9, {3}
     e38:	2f332e38 	svccs	0x00332e38
     e3c:	6c636e69 	stclvs	14, cr6, [r3], #-420	; 0xfffffe5c
     e40:	00656475 	rsbeq	r6, r5, r5, ror r4
     e44:	6573552f 	ldrbvs	r5, [r3, #-1327]!	; 0x52f
     e48:	622f7372 	eorvs	r7, pc, #-939524095	; 0xc8000001
     e4c:	6e616972 	mcrvs	9, 3, r6, cr1, cr2, {3}
     e50:	2f6e756a 	svccs	0x006e756a
     e54:	6b736544 	blvs	1cda36c <__bss_end__+0x1ccba74>
     e58:	2f706f74 	svccs	0x00706f74
     e5c:	6f686373 	svcvs	0x00686373
     e60:	572f6c6f 	strpl	r6, [pc, -pc, ror #24]!
     e64:	65746e69 	ldrbvs	r6, [r4, #-3689]!	; 0xe69
     e68:	32393172 	eorscc	r3, r9, #-2147483620	; 0x8000001c
     e6c:	53432f30 	movtpl	r2, #16176	; 0x3f30
     e70:	45303431 	ldrmi	r3, [r0, #-1073]!	; 0x431
     e74:	3173632f 	cmncc	r3, pc, lsr #6
     e78:	2d653034 	stclcs	0, cr3, [r5, #-208]!	; 0xffffff30
     e7c:	69773032 	ldmdbvs	r7!, {r1, r4, r5, ip, sp}^
     e80:	696c2f6e 	stmdbvs	ip!, {r1, r2, r3, r5, r6, r8, r9, sl, fp, sp}^
     e84:	00697062 	rsbeq	r7, r9, r2, rrx
     e88:	6573552f 	ldrbvs	r5, [r3, #-1327]!	; 0x52f
     e8c:	622f7372 	eorvs	r7, pc, #-939524095	; 0xc8000001
     e90:	6e616972 	mcrvs	9, 3, r6, cr1, cr2, {3}
     e94:	2f6e756a 	svccs	0x006e756a
     e98:	6b736544 	blvs	1cda3b0 <__bss_end__+0x1ccbab8>
     e9c:	2f706f74 	svccs	0x00706f74
     ea0:	6f686373 	svcvs	0x00686373
     ea4:	572f6c6f 	strpl	r6, [pc, -pc, ror #24]!
     ea8:	65746e69 	ldrbvs	r6, [r4, #-3689]!	; 0xe69
     eac:	32393172 	eorscc	r3, r9, #-2147483620	; 0x8000001c
     eb0:	53432f30 	movtpl	r2, #16176	; 0x3f30
     eb4:	45303431 	ldrmi	r3, [r0, #-1073]!	; 0x431
     eb8:	3173632f 	cmncc	r3, pc, lsr #6
     ebc:	2d653034 	stclcs	0, cr3, [r5, #-208]!	; 0xffffff30
     ec0:	69773032 	ldmdbvs	r7!, {r1, r4, r5, ip, sp}^
     ec4:	696c2f6e 	stmdbvs	ip!, {r1, r2, r3, r5, r6, r8, r9, sl, fp, sp}^
     ec8:	2f697062 	svccs	0x00697062
     ecc:	6362696c 	cmnvs	r2, #108, 18	; 0x1b0000
     ed0:	77730000 	ldrbvc	r0, [r3, -r0]!
     ed4:	7261752d 	rsbvc	r7, r1, #188743680	; 0xb400000
     ed8:	00632e74 	rsbeq	r2, r3, r4, ror lr
     edc:	63000001 	movwvs	r0, #1
     ee0:	656c6379 	strbvs	r6, [ip, #-889]!	; 0x379
     ee4:	6974752d 	ldmdbvs	r4!, {r0, r2, r3, r5, r8, sl, ip, sp, lr}^
     ee8:	00682e6c 	rsbeq	r2, r8, ip, ror #28
     eec:	73000002 	movwvc	r0, #2
     ef0:	6e696474 	mcrvs	4, 3, r6, cr9, cr4, {3}
     ef4:	63672d74 	cmnvs	r7, #116, 26	; 0x1d00
     ef8:	00682e63 	rsbeq	r2, r8, r3, ror #28
     efc:	73000003 	movwvc	r0, #3
     f00:	61752d77 	cmnvs	r5, r7, ror sp
     f04:	682e7472 	stmdavs	lr!, {r1, r4, r5, r6, sl, ip, sp, lr}
     f08:	00000200 	andeq	r0, r0, r0, lsl #4
     f0c:	61647473 	smcvs	18243	; 0x4743
     f10:	682e6772 	stmdavs	lr!, {r1, r4, r5, r6, r8, r9, sl, sp, lr}
     f14:	00000300 	andeq	r0, r0, r0, lsl #6
     f18:	6f697067 	svcvs	0x00697067
     f1c:	0200682e 	andeq	r6, r0, #3014656	; 0x2e0000
     f20:	70720000 	rsbsvc	r0, r2, r0
     f24:	00682e69 	rsbeq	r2, r8, r9, ror #28
     f28:	76000004 	strvc	r0, [r0], -r4
     f2c:	72702d61 	rsbsvc	r2, r0, #6208	; 0x1840
     f30:	6b746e69 	blvs	1d1c8dc <__bss_end__+0x1d0dfe4>
     f34:	0500682e 	streq	r6, [r0, #-2094]	; 0x82e
     f38:	623c0000 	eorsvs	r0, ip, #0
     f3c:	746c6975 	strbtvc	r6, [ip], #-2421	; 0x975
     f40:	3e6e692d 	cdpcc	9, 6, cr6, cr14, cr13, {1}
     f44:	00000000 	andeq	r0, r0, r0
     f48:	02050000 	andeq	r0, r5, #0
     f4c:	00009414 	andeq	r9, r0, r4, lsl r4
     f50:	302f4c1a 	eorcc	r4, pc, sl, lsl ip	; <UNPREDICTABLE>
     f54:	0b030204 	bleq	c176c <__bss_end__+0xb2e74>
     f58:	6673032e 	ldrbtvs	r0, [r3], -lr, lsr #6
     f5c:	04880104 	streq	r0, [r8], #260	; 0x104
     f60:	73033502 	movwvc	r3, #13570	; 0x3502
     f64:	8a010466 	bhi	42104 <__bss_end__+0x3380c>
     f68:	03330204 	teqeq	r3, #4, 4	; 0x40000000
     f6c:	01046673 	tsteq	r4, r3, ror r6
     f70:	04820a03 	streq	r0, [r2], #2563	; 0xa03
     f74:	73033102 	movwvc	r3, #12546	; 0x3102
     f78:	03010466 	movweq	r0, #5222	; 0x1466
     f7c:	0204820c 	andeq	r8, r4, #12, 4	; 0xc0000000
     f80:	6673032f 	ldrbtvs	r0, [r3], -pc, lsr #6
     f84:	0e030104 	adfeqs	f0, f3, f4
     f88:	2d020482 	cfstrscs	mvf0, [r2, #-520]	; 0xfffffdf8
     f8c:	04667303 	strbteq	r7, [r6], #-771	; 0x303
     f90:	82100301 	andshi	r0, r0, #67108864	; 0x4000000
     f94:	032b0204 	teqeq	fp, #4, 4	; 0x40000000
     f98:	01046673 	tsteq	r4, r3, ror r6
     f9c:	04821203 	streq	r1, [r2], #515	; 0x203
     fa0:	73032902 	movwvc	r2, #14594	; 0x3902
     fa4:	03010466 	movweq	r0, #5222	; 0x1466
     fa8:	02048214 	andeq	r8, r4, #20, 4	; 0x40000001
     fac:	032e7903 	teqeq	lr, #49152	; 0xc000
     fb0:	01046673 	tsteq	r4, r3, ror r6
     fb4:	04821603 	streq	r1, [r2], #1539	; 0x603
     fb8:	2e770302 	cdpcs	3, 7, cr0, cr7, cr2, {0}
     fbc:	04667303 	strbteq	r7, [r6], #-771	; 0x303
     fc0:	82180301 	andshi	r0, r8, #67108864	; 0x4000000
     fc4:	4b2e1003 	blmi	b84fd8 <__bss_end__+0xb766e0>
     fc8:	2e70034d 	cdpcs	3, 7, cr0, cr0, cr13, {2}
     fcc:	4883844c 	stmmi	r3, {r2, r3, r6, sl, pc}
     fd0:	4e2e0d03 	cdpmi	13, 2, cr0, cr14, cr3, {0}
     fd4:	02043331 	andeq	r3, r4, #-1006632960	; 0xc4000000
     fd8:	042e4803 	strteq	r4, [lr], #-2051	; 0x803
     fdc:	823a0301 	eorshi	r0, sl, #67108864	; 0x4000000
     fe0:	0302042f 	movweq	r0, #9263	; 0x242f
     fe4:	01046645 	tsteq	r4, r5, asr #12
     fe8:	2f823d03 	svccs	0x00823d03
     fec:	42030204 	andmi	r0, r3, #4, 4	; 0x40000000
     ff0:	03010482 	movweq	r0, #5250	; 0x1482
     ff4:	2f8200c0 	svccs	0x008200c0
     ff8:	bf030204 	svclt	0x00030204
     ffc:	0104827f 	tsteq	r4, pc, ror r2
    1000:	8200c303 	andhi	ip, r0, #201326592	; 0xc000000
    1004:	0302042f 	movweq	r0, #9263	; 0x242f
    1008:	04827fbc 	streq	r7, [r2], #4028	; 0xfbc
    100c:	00c60301 	sbceq	r0, r6, r1, lsl #6
    1010:	02042f82 	andeq	r2, r4, #520	; 0x208
    1014:	827fb903 	rsbshi	fp, pc, #49152	; 0xc000
    1018:	c9030104 	stmdbgt	r3, {r2, r8}
    101c:	042f8200 	strteq	r8, [pc], #-512	; 1024 <_start-0x6fdc>
    1020:	7fb60302 	svcvc	0x00b60302
    1024:	03010482 	movweq	r0, #5250	; 0x1482
    1028:	2f8200cc 	svccs	0x008200cc
    102c:	b3030204 	movwlt	r0, #12804	; 0x3204
    1030:	0104827f 	tsteq	r4, pc, ror r2
    1034:	8200d003 	andhi	sp, r0, #3
    1038:	4c824c03 	stcmi	12, cr4, [r2], {3}
    103c:	03488384 	movteq	r8, #33668	; 0x8384
    1040:	034e2e36 	movteq	r2, #60982	; 0xee36
    1044:	29034a54 	stmdbcs	r3, {r2, r4, r6, r9, fp, lr}
    1048:	9f34324a 	svcls	0x0034324a
    104c:	01040200 	mrseq	r0, R12_usr
    1050:	d7064a06 	strle	r4, [r6, -r6, lsl #20]
    1054:	2cbb4b4e 	vldmiacs	fp!, {d4-<overflow reg d42>}
    1058:	01040200 	mrseq	r0, R12_usr
    105c:	6d062e06 	stcvs	14, cr2, [r6, #-24]	; 0xffffffe8
    1060:	0084a44c 	addeq	sl, r4, ip, asr #8
    1064:	06010402 	streq	r0, [r1], -r2, lsl #8
    1068:	4dd7064a 	ldclmi	6, cr0, [r7, #296]	; 0x128
    106c:	02040200 	andeq	r0, r4, #0, 4
    1070:	0402004b 	streq	r0, [r2], #-75	; 0x4b
    1074:	02008102 	andeq	r8, r0, #-2147483648	; 0x80000000
    1078:	2e060104 	adfcss	f0, f6, f4
    107c:	a54c4d06 	strbge	r4, [ip, #-3334]	; 0xd06
    1080:	4b4b4bbc 	blmi	12d3f78 <__bss_end__+0x12c5680>
    1084:	02002f6a 	andeq	r2, r0, #424	; 0x1a8
    1088:	82060104 	andhi	r0, r6, #4, 2
    108c:	04020082 	streq	r0, [r2], #-130	; 0x82
    1090:	02009e04 	andeq	r9, r0, #4, 28	; 0x40
    1094:	064a0104 	strbeq	r0, [sl], -r4, lsl #2
    1098:	2fbd88d9 	svccs	0x00bd88d9
    109c:	40084b4b 	andmi	r4, r8, fp, asr #22
    10a0:	04020067 	streq	r0, [r2], #-103	; 0x67
    10a4:	02002f02 	andeq	r2, r0, #2, 30
    10a8:	00490204 	subeq	r0, r9, r4, lsl #4
    10ac:	06010402 	streq	r0, [r1], -r2, lsl #8
    10b0:	3468062e 	strbtcc	r0, [r8], #-1582	; 0x62e
    10b4:	00a04b86 	adceq	r4, r0, r6, lsl #23
    10b8:	06010402 	streq	r0, [r1], -r2, lsl #8
    10bc:	68d70666 	ldmvs	r7, {r1, r2, r5, r6, r9, sl}^
    10c0:	674b2208 	strbvs	r2, [fp, -r8, lsl #4]
    10c4:	0a02d84b 	beq	b71f8 <__bss_end__+0xa8900>
    10c8:	01010100 	mrseq	r0, (UNDEF: 17)
    10cc:	02000001 	andeq	r0, r0, #1
    10d0:	0000ca00 	andeq	ip, r0, r0, lsl #20
    10d4:	fb010200 	blx	418de <__bss_end__+0x32fe6>
    10d8:	01000d0e 	tsteq	r0, lr, lsl #26
    10dc:	00010101 	andeq	r0, r1, r1, lsl #2
    10e0:	00010000 	andeq	r0, r1, r0
    10e4:	796d0100 	stmdbvc	sp!, {r8}^
    10e8:	6372732d 	cmnvs	r2, #-1275068416	; 0xb4000000
    10ec:	73552f00 	cmpvc	r5, #0, 30
    10f0:	2f737265 	svccs	0x00737265
    10f4:	61697262 	cmnvs	r9, r2, ror #4
    10f8:	6e756a6e 	vsubvs.f32	s13, s10, s29
    10fc:	7365442f 	cmnvc	r5, #788529152	; 0x2f000000
    1100:	706f746b 	rsbvc	r7, pc, fp, ror #8
    1104:	6863732f 	stmdavs	r3!, {r0, r1, r2, r3, r5, r8, r9, ip, sp, lr}^
    1108:	2f6c6f6f 	svccs	0x006c6f6f
    110c:	746e6957 	strbtvc	r6, [lr], #-2391	; 0x957
    1110:	39317265 	ldmdbcc	r1!, {r0, r2, r5, r6, r9, ip, sp, lr}
    1114:	432f3032 	teqmi	pc, #50	; 0x32
    1118:	30343153 	eorscc	r3, r4, r3, asr r1
    111c:	73632f45 	cmnvc	r3, #276	; 0x114
    1120:	65303431 	ldrvs	r3, [r0, #-1073]!	; 0x431
    1124:	7730322d 	ldrvc	r3, [r0, -sp, lsr #4]!
    1128:	6c2f6e69 	stcvs	14, cr6, [pc], #-420	; f8c <_start-0x7074>
    112c:	69706269 	ldmdbvs	r0!, {r0, r3, r5, r6, r9, sp, lr}^
    1130:	3173632f 	cmncc	r3, pc, lsr #6
    1134:	2d653034 	stclcs	0, cr3, [r5, #-208]!	; 0xffffff30
    1138:	00637273 	rsbeq	r7, r3, r3, ror r2
    113c:	6573552f 	ldrbvs	r5, [r3, #-1327]!	; 0x52f
    1140:	622f7372 	eorvs	r7, pc, #-939524095	; 0xc8000001
    1144:	6e616972 	mcrvs	9, 3, r6, cr1, cr2, {3}
    1148:	2f6e756a 	svccs	0x006e756a
    114c:	6b736544 	blvs	1cda664 <__bss_end__+0x1ccbd6c>
    1150:	2f706f74 	svccs	0x00706f74
    1154:	6f686373 	svcvs	0x00686373
    1158:	572f6c6f 	strpl	r6, [pc, -pc, ror #24]!
    115c:	65746e69 	ldrbvs	r6, [r4, #-3689]!	; 0xe69
    1160:	32393172 	eorscc	r3, r9, #-2147483620	; 0x8000001c
    1164:	53432f30 	movtpl	r2, #16176	; 0x3f30
    1168:	45303431 	ldrmi	r3, [r0, #-1073]!	; 0x431
    116c:	3173632f 	cmncc	r3, pc, lsr #6
    1170:	2d653034 	stclcs	0, cr3, [r5, #-208]!	; 0xffffff30
    1174:	69773032 	ldmdbvs	r7!, {r1, r4, r5, ip, sp}^
    1178:	696c2f6e 	stmdbvs	ip!, {r1, r2, r3, r5, r6, r8, r9, sl, fp, sp}^
    117c:	00697062 	rsbeq	r7, r9, r2, rrx
    1180:	72617500 	rsbvc	r7, r1, #0, 10
    1184:	00632e74 	rsbeq	r2, r3, r4, ror lr
    1188:	67000001 	strvs	r0, [r0, -r1]
    118c:	2e6f6970 	mcrcs	9, 3, r6, cr15, cr0, {3}
    1190:	00020068 	andeq	r0, r2, r8, rrx
    1194:	69707200 	ldmdbvs	r0!, {r9, ip, sp, lr}^
    1198:	0300682e 	movweq	r6, #2094	; 0x82e
    119c:	00000000 	andeq	r0, r0, r0
    11a0:	9a340205 	bls	d019bc <__bss_end__+0xcf30c4>
    11a4:	36030000 	strcc	r0, [r3], -r0
    11a8:	67333001 	ldrvs	r3, [r3, -r1]!
    11ac:	30d8306d 	sbcscc	r3, r8, sp, rrx
    11b0:	67676767 	strbvs	r6, [r7, -r7, ror #14]!
    11b4:	2f866867 	svccs	0x00866867
    11b8:	67306a67 	ldrvs	r6, [r0, -r7, ror #20]!
    11bc:	672f6967 	strvs	r6, [pc, -r7, ror #18]!
    11c0:	c1674c6a 	cmngt	r7, sl, ror #24
    11c4:	2f302f2f 	svccs	0x00302f2f
    11c8:	02304968 	eorseq	r4, r0, #104, 18	; 0x1a0000
    11cc:	01010002 	tsteq	r1, r2
    11d0:	000000d6 	ldrdeq	r0, [r0], -r6
    11d4:	00970002 	addseq	r0, r7, r2
    11d8:	01020000 	mrseq	r0, (UNDEF: 2)
    11dc:	000d0efb 	strdeq	r0, [sp], -fp
    11e0:	01010101 	tsteq	r1, r1, lsl #2
    11e4:	01000000 	mrseq	r0, (UNDEF: 0)
    11e8:	63010000 	movwvs	r0, #4096	; 0x1000
    11ec:	30343173 	eorscc	r3, r4, r3, ror r1
    11f0:	6e692d65 	cdpvs	13, 6, cr2, cr9, cr5, {3}
    11f4:	72726574 	rsbsvc	r6, r2, #116, 10	; 0x1d000000
    11f8:	00747075 	rsbseq	r7, r4, r5, ror r0
    11fc:	6573552f 	ldrbvs	r5, [r3, #-1327]!	; 0x52f
    1200:	622f7372 	eorvs	r7, pc, #-939524095	; 0xc8000001
    1204:	6e616972 	mcrvs	9, 3, r6, cr1, cr2, {3}
    1208:	2f6e756a 	svccs	0x006e756a
    120c:	6b736544 	blvs	1cda724 <__bss_end__+0x1ccbe2c>
    1210:	2f706f74 	svccs	0x00706f74
    1214:	6f686373 	svcvs	0x00686373
    1218:	572f6c6f 	strpl	r6, [pc, -pc, ror #24]!
    121c:	65746e69 	ldrbvs	r6, [r4, #-3689]!	; 0xe69
    1220:	32393172 	eorscc	r3, r9, #-2147483620	; 0x8000001c
    1224:	53432f30 	movtpl	r2, #16176	; 0x3f30
    1228:	45303431 	ldrmi	r3, [r0, #-1073]!	; 0x431
    122c:	3173632f 	cmncc	r3, pc, lsr #6
    1230:	2d653034 	stclcs	0, cr3, [r5, #-208]!	; 0xffffff30
    1234:	69773032 	ldmdbvs	r7!, {r1, r4, r5, ip, sp}^
    1238:	696c2f6e 	stmdbvs	ip!, {r1, r2, r3, r5, r6, r8, r9, sl, fp, sp}^
    123c:	00697062 	rsbeq	r7, r9, r2, rrx
    1240:	746e6900 	strbtvc	r6, [lr], #-2304	; 0x900
    1244:	75727265 	ldrbvc	r7, [r2, #-613]!	; 0x265
    1248:	2d737470 	cfldrdcs	mvd7, [r3, #-448]!	; 0xfffffe40
    124c:	00632e63 	rsbeq	r2, r3, r3, ror #28
    1250:	72000001 	andvc	r0, r0, #1
    1254:	682e6970 	stmdavs	lr!, {r4, r5, r6, r8, fp, sp, lr}
    1258:	00000200 	andeq	r0, r0, r0, lsl #4
    125c:	2d697072 	stclcs	0, cr7, [r9, #-456]!	; 0xfffffe38
    1260:	65746e69 	ldrbvs	r6, [r4, #-3689]!	; 0xe69
    1264:	70757272 	rsbsvc	r7, r5, r2, ror r2
    1268:	682e7374 	stmdavs	lr!, {r2, r4, r5, r6, r8, r9, ip, sp, lr}
    126c:	00000100 	andeq	r0, r0, r0, lsl #2
    1270:	02050000 	andeq	r0, r5, #0
    1274:	00009b88 	andeq	r9, r0, r8, lsl #23
    1278:	67673116 			; <UNDEFINED> instruction: 0x67673116
    127c:	832e0e03 	teqhi	lr, #3, 28	; 0x30
    1280:	02002d2f 	andeq	r2, r0, #3008	; 0xbc0
    1284:	002f0204 	eoreq	r0, pc, r4, lsl #4
    1288:	65020402 	strvs	r0, [r2, #-1026]	; 0x402
    128c:	01040200 	mrseq	r0, R12_usr
    1290:	4c062e06 	stcmi	14, cr2, [r6], {6}
    1294:	b00867a2 	andlt	r6, r8, r2, lsr #15
    1298:	67ae0867 	strvs	r0, [lr, r7, ror #16]!
    129c:	0867ae08 	stmdaeq	r7!, {r3, r9, sl, fp, sp, pc}^
    12a0:	ae0867ae 	cdpge	7, 0, cr6, cr8, cr14, {5}
    12a4:	001c0267 	andseq	r0, ip, r7, ror #4
    12a8:	01280101 	teqeq	r8, r1, lsl #2
    12ac:	00020000 	andeq	r0, r2, r0
    12b0:	0000010d 	andeq	r0, r0, sp, lsl #2
    12b4:	0efb0102 	cdpeq	1, 15, cr0, cr11, cr2, {0}
    12b8:	0101000d 	tsteq	r1, sp
    12bc:	00000101 	andeq	r0, r0, r1, lsl #2
    12c0:	00000100 	andeq	r0, r0, r0, lsl #2
    12c4:	31736301 	cmncc	r3, r1, lsl #6
    12c8:	2d653034 	stclcs	0, cr3, [r5, #-208]!	; 0xffffff30
    12cc:	00637273 	rsbeq	r7, r3, r3, ror r2
    12d0:	7273752f 	rsbsvc	r7, r3, #197132288	; 0xbc00000
    12d4:	636f6c2f 	cmnvs	pc, #12032	; 0x2f00
    12d8:	432f6c61 	teqmi	pc, #24832	; 0x6100
    12dc:	616c6c65 	cmnvs	ip, r5, ror #24
    12e0:	72612f72 	rsbvc	r2, r1, #456	; 0x1c8
    12e4:	6f6e2d6d 	svcvs	0x006e2d6d
    12e8:	652d656e 	strvs	r6, [sp, #-1390]!	; 0x56e
    12ec:	2f696261 	svccs	0x00696261
    12f0:	2e382e34 	mrccs	14, 1, r2, cr8, cr4, {1}
    12f4:	73632d33 	cmnvc	r3, #3264	; 0xcc0
    12f8:	65303731 	ldrvs	r3, [r0, #-1841]!	; 0x731
    12fc:	62696c2f 	rsbvs	r6, r9, #12032	; 0x2f00
    1300:	6363672f 	cmnvs	r3, #12320768	; 0xbc0000
    1304:	6d72612f 	ldfvse	f6, [r2, #-188]!	; 0xffffff44
    1308:	6e6f6e2d 	cdpvs	14, 6, cr6, cr15, cr13, {1}
    130c:	61652d65 	cmnvs	r5, r5, ror #26
    1310:	342f6962 	strtcc	r6, [pc], #-2402	; 1318 <_start-0x6ce8>
    1314:	332e382e 	teqcc	lr, #3014656	; 0x2e0000
    1318:	636e692f 	cmnvs	lr, #770048	; 0xbc000
    131c:	6564756c 	strbvs	r7, [r4, #-1388]!	; 0x56c
    1320:	73752f00 	cmnvc	r5, #0, 30
    1324:	6f6c2f72 	svcvs	0x006c2f72
    1328:	2f6c6163 	svccs	0x006c6163
    132c:	6c6c6543 	cfstr64vs	mvdx6, [ip], #-268	; 0xfffffef4
    1330:	612f7261 	teqvs	pc, r1, ror #4
    1334:	6e2d6d72 	mcrvs	13, 1, r6, cr13, cr2, {3}
    1338:	2d656e6f 	stclcs	14, cr6, [r5, #-444]!	; 0xfffffe44
    133c:	69626165 	stmdbvs	r2!, {r0, r2, r5, r6, r8, sp, lr}^
    1340:	382e342f 	stmdacc	lr!, {r0, r1, r2, r3, r5, sl, ip, sp}
    1344:	632d332e 	teqvs	sp, #-1207959552	; 0xb8000000
    1348:	30373173 	eorscc	r3, r7, r3, ror r1
    134c:	72612f65 	rsbvc	r2, r1, #404	; 0x194
    1350:	6f6e2d6d 	svcvs	0x006e2d6d
    1354:	652d656e 	strvs	r6, [sp, #-1390]!	; 0x56e
    1358:	2f696261 	svccs	0x00696261
    135c:	6c636e69 	stclvs	14, cr6, [r3], #-420	; 0xfffffe5c
    1360:	00656475 	rsbeq	r6, r5, r5, ror r4
    1364:	6e6f6300 	cdpvs	3, 6, cr6, cr15, cr0, {0}
    1368:	6c6f7274 	sfmvs	f7, 2, [pc], #-464	; 11a0 <_start-0x6e60>
    136c:	6f6c622d 	svcvs	0x006c622d
    1370:	632e6b63 	teqvs	lr, #101376	; 0x18c00
    1374:	00000100 	andeq	r0, r0, r0, lsl #2
    1378:	64647473 	strbtvs	r7, [r4], #-1139	; 0x473
    137c:	682e6665 	stmdavs	lr!, {r0, r2, r5, r6, r9, sl, sp, lr}
    1380:	00000200 	andeq	r0, r0, r0, lsl #4
    1384:	69647473 	stmdbvs	r4!, {r0, r1, r4, r5, r6, sl, ip, sp, lr}^
    1388:	672d746e 	strvs	r7, [sp, -lr, ror #8]!
    138c:	682e6363 	stmdavs	lr!, {r0, r1, r5, r6, r8, r9, sp, lr}
    1390:	00000200 	andeq	r0, r0, r0, lsl #4
    1394:	752d7773 	strvc	r7, [sp, #-1907]!	; 0x773
    1398:	2e747261 	cdpcs	2, 7, cr7, cr4, cr1, {3}
    139c:	00010068 	andeq	r0, r1, r8, rrx
    13a0:	6e6f6300 	cdpvs	3, 6, cr6, cr15, cr0, {0}
    13a4:	6c6f7274 	sfmvs	f7, 2, [pc], #-464	; 11dc <_start-0x6e24>
    13a8:	6f6c622d 	svcvs	0x006c622d
    13ac:	682e6b63 	stmdavs	lr!, {r0, r1, r5, r6, r8, r9, fp, sp, lr}
    13b0:	00000100 	andeq	r0, r0, r0, lsl #2
    13b4:	69727473 	ldmdbvs	r2!, {r0, r1, r4, r5, r6, sl, ip, sp, lr}^
    13b8:	682e676e 	stmdavs	lr!, {r1, r2, r3, r5, r6, r8, r9, sl, sp, lr}
    13bc:	00000300 	andeq	r0, r0, r0, lsl #6
    13c0:	02050000 	andeq	r0, r5, #0
    13c4:	00009ec4 	andeq	r9, r0, r4, asr #29
    13c8:	68833016 	stmvs	r3, {r1, r2, r4, ip, sp}
    13cc:	4b9f144c 	blmi	fe7c6504 <__bss_end__+0xfe7b7c0c>
    13d0:	0004022f 	andeq	r0, r4, pc, lsr #4
    13d4:	Address 0x00000000000013d4 is out of bounds.


Disassembly of section .debug_str:

00000000 <.debug_str>:
   0:	657a6973 	ldrbvs	r6, [sl, #-2419]!	; 0x973
   4:	6500745f 	strvs	r7, [r0, #-1119]	; 0x45f
   8:	726f7272 	rsbvc	r7, pc, #536870919	; 0x20000007
   c:	61665f73 	smcvs	26099	; 0x65f3
  10:	5f6c6174 	svcpl	0x006c6174
  14:	55410070 	strbpl	r0, [r1, #-112]	; 0x70
  18:	554d5f58 	strbpl	r5, [sp, #-3928]	; 0xf58
  1c:	5243535f 	subpl	r5, r3, #2080374785	; 0x7c000001
  20:	48435441 	stmdami	r3, {r0, r6, sl, ip, lr}^
  24:	746f6e00 	strbtvc	r6, [pc], #-3584	; 2c <_start-0x7fd4>
  28:	6e69616d 	powvsez	f6, f1, #5.0
  2c:	6d726100 	ldfvse	f6, [r2, #-0]
  30:	6d69745f 	cfstrdvs	mvd7, [r9, #-380]!	; 0xfffffe84
  34:	525f7265 	subspl	r7, pc, #1342177286	; 0x50000006
  38:	52495741 	subpl	r5, r9, #17039360	; 0x1040000
  3c:	61750051 	cmnvs	r5, r1, asr r0
  40:	695f7472 	ldmdbvs	pc, {r1, r4, r5, r6, sl, ip, sp, lr}^	; <UNPREDICTABLE>
  44:	5f74696e 	svcpl	0x0074696e
  48:	68746977 	ldmdavs	r4!, {r0, r1, r2, r4, r5, r6, r8, fp, sp, lr}^
  4c:	746e695f 	strbtvc	r6, [lr], #-2399	; 0x95f
  50:	75727265 	ldrbvc	r7, [r2, #-613]!	; 0x265
  54:	00737470 	rsbseq	r7, r3, r0, ror r4
  58:	676e6f6c 	strbvs	r6, [lr, -ip, ror #30]!
  5c:	6e6f6c20 	cdpvs	12, 6, cr6, cr15, cr0, {1}
  60:	6e752067 	cdpvs	0, 7, cr2, cr5, cr7, {3}
  64:	6e676973 	mcrvs	9, 3, r6, cr7, cr3, {3}
  68:	69206465 	stmdbvs	r0!, {r0, r2, r5, r6, sl, sp, lr}
  6c:	6300746e 	movwvs	r7, #1134	; 0x46e
  70:	6675625f 			; <UNDEFINED> instruction: 0x6675625f
  74:	49504700 	ldmdbmi	r0, {r8, r9, sl, lr}^
  78:	55465f4f 	strbpl	r5, [r6, #-3919]	; 0xf4f
  7c:	495f434e 	ldmdbmi	pc, {r1, r2, r3, r6, r8, r9, lr}^	; <UNPREDICTABLE>
  80:	5455504e 	ldrbpl	r5, [r5], #-78	; 0x4e
  84:	5f716300 	svcpl	0x00716300
  88:	74706d65 	ldrbtvc	r6, [r0], #-3429	; 0xd65
  8c:	6f6c0079 	svcvs	0x006c0079
  90:	6c20676e 	stcvs	7, cr6, [r0], #-440	; 0xfffffe48
  94:	20676e6f 	rsbcs	r6, r7, pc, ror #28
  98:	00746e69 	rsbseq	r6, r4, r9, ror #28
  9c:	755f7773 	ldrbvc	r7, [pc, #-1907]	; fffff931 <__bss_end__+0xffff1039>
  a0:	5f747261 	svcpl	0x00747261
  a4:	74696e69 	strbtvc	r6, [r9], #-3689	; 0xe69
  a8:	6c65685f 	stclvs	8, cr6, [r5], #-380	; 0xfffffe84
  ac:	00726570 	rsbseq	r6, r2, r0, ror r5
  b0:	74726175 	ldrbtvc	r6, [r2], #-373	; 0x175
  b4:	6e61635f 	mcrvs	3, 3, r6, cr1, cr15, {2}
  b8:	7465675f 	strbtvc	r6, [r5], #-1887	; 0x75f
  bc:	74730063 	ldrbtvc	r0, [r3], #-99	; 0x63
  c0:	00657461 	rsbeq	r7, r5, r1, ror #8
  c4:	5f6d7261 	svcpl	0x006d7261
  c8:	656d6974 	strbvs	r6, [sp, #-2420]!	; 0x974
  cc:	6f435f72 	svcvs	0x00435f72
  d0:	6f72746e 	svcvs	0x0072746e
  d4:	7261006c 	rsbvc	r0, r1, #108	; 0x6c
  d8:	69745f6d 	ldmdbvs	r4!, {r0, r2, r3, r5, r6, r8, r9, sl, fp, ip, lr}^
  dc:	5f72656d 	svcpl	0x0072656d
  e0:	64616f4c 	strbtvs	r6, [r1], #-3916	; 0xf4c
  e4:	6d726100 	ldfvse	f6, [r2, #-0]
  e8:	6d69745f 	cfstrdvs	mvd7, [r9, #-380]!	; 0xfffffe84
  ec:	425f7265 	subsmi	r7, pc, #1342177286	; 0x50000006
  f0:	00657361 	rsbeq	r7, r5, r1, ror #6
  f4:	5f766564 	svcpl	0x00766564
  f8:	72726162 	rsbsvc	r6, r2, #-2147483624	; 0x80000018
  fc:	00726569 	rsbseq	r6, r2, r9, ror #10
 100:	5f585541 	svcpl	0x00585541
 104:	4c5f554d 	cfldr64mi	mvdx5, [pc], {77}	; 0x4d
 108:	525f5253 	subspl	r5, pc, #805306373	; 0x30000005
 10c:	41004745 	tstmi	r0, r5, asr #14
 110:	455f5855 	ldrbmi	r5, [pc, #-2133]	; fffff8c3 <__bss_end__+0xffff0fcb>
 114:	4c42414e 	stfmie	f4, [r2], {78}	; 0x4e
 118:	75005345 	strvc	r5, [r0, #-837]	; 0x345
 11c:	5f747261 	svcpl	0x00747261
 120:	63746567 	cmnvs	r4, #432013312	; 0x19c00000
 124:	746e695f 	strbtvc	r6, [lr], #-2399	; 0x95f
 128:	5f6e6900 	svcpl	0x006e6900
 12c:	61746164 	cmnvs	r4, r4, ror #2
 130:	72617500 	rsbvc	r7, r1, #0, 10
 134:	61635f74 	smcvs	13812	; 0x35f4
 138:	75705f6e 	ldrbvc	r5, [r0, #-3950]!	; 0xf6e
 13c:	74006374 	strvc	r6, [r0], #-884	; 0x374
 140:	6f635f78 	svcvs	0x00635f78
 144:	00746e75 	rsbseq	r6, r4, r5, ror lr
 148:	51746567 	cmnpl	r4, r7, ror #10
 14c:	6d726100 	ldfvse	f6, [r2, #-0]
 150:	6d69745f 	cfstrdvs	mvd7, [r9, #-380]!	; 0xfffffe84
 154:	4d5f7265 	lfmmi	f7, 2, [pc, #-404]	; ffffffc8 <__bss_end__+0xffff16d0>
 158:	656b7361 	strbvs	r7, [fp, #-865]!	; 0x361
 15c:	51524964 	cmppl	r2, r4, ror #18
 160:	58554100 	ldmdapl	r5, {r8, lr}^
 164:	5f554d5f 	svcpl	0x00554d5f
 168:	525f4f49 	subspl	r4, pc, #292	; 0x124
 16c:	72004745 	andvc	r4, r0, #18087936	; 0x1140000
 170:	725f6970 	subsvc	r6, pc, #112, 18	; 0x1c0000
 174:	74657365 	strbtvc	r7, [r5], #-869	; 0x365
 178:	7475705f 	ldrbtvc	r7, [r5], #-95	; 0x5f
 17c:	77730063 	ldrbvc	r0, [r3, -r3, rrx]!
 180:	7261755f 	rsbvc	r7, r1, #398458880	; 0x17c00000
 184:	55410074 	strbpl	r0, [r1, #-116]	; 0x74
 188:	554d5f58 	strbpl	r5, [sp, #-3928]	; 0xf58
 18c:	5541425f 	strbpl	r4, [r1, #-607]	; 0x25f
 190:	45525f44 	ldrbmi	r5, [r2, #-3908]	; 0xf44
 194:	5f5f0047 	svcpl	0x005f0047
 198:	434e5546 	movtmi	r5, #58694	; 0xe546
 19c:	4e4f4954 	mcrmi	9, 2, r4, cr15, cr4, {2}
 1a0:	41005f5f 	tstmi	r0, pc, asr pc
 1a4:	4d5f5855 	ldclmi	8, cr5, [pc, #-340]	; 58 <_start-0x7fa8>
 1a8:	434c5f55 	movtmi	r5, #53077	; 0xcf55
 1ac:	45525f52 	ldrbmi	r5, [r2, #-3922]	; 0xf52
 1b0:	71630047 	cmnvc	r3, r7, asr #32
 1b4:	6c656e5f 	stclvs	14, cr6, [r5], #-380	; 0xfffffe84
 1b8:	73006d65 	movwvc	r6, #3429	; 0xd65
 1bc:	74726f68 	ldrbtvc	r6, [r2], #-3944	; 0xf68
 1c0:	736e7520 	cmnvc	lr, #32, 10	; 0x8000000
 1c4:	656e6769 	strbvs	r6, [lr, #-1897]!	; 0x769
 1c8:	6e692064 	cdpvs	0, 6, cr2, cr9, cr4, {3}
 1cc:	61750074 	cmnvs	r5, r4, ror r0
 1d0:	705f7472 	subsvc	r7, pc, r2, ror r4	; <UNPREDICTABLE>
 1d4:	5f637475 	svcpl	0x00637475
 1d8:	00746e69 	rsbseq	r6, r4, r9, ror #28
 1dc:	5f585541 	svcpl	0x00585541
 1e0:	4d5f554d 	cfldr64mi	mvdx5, [pc, #-308]	; b4 <_start-0x7f4c>
 1e4:	525f5253 	subspl	r5, pc, #805306373	; 0x30000005
 1e8:	73004745 	movwvc	r4, #1861	; 0x745
 1ec:	61755f77 	cmnvs	r5, r7, ror pc
 1f0:	705f7472 	subsvc	r7, pc, r2, ror r4	; <UNPREDICTABLE>
 1f4:	00637475 	rsbeq	r7, r3, r5, ror r4
 1f8:	51747570 	cmnpl	r4, r0, ror r5
 1fc:	51524900 	cmppl	r2, r0, lsl #18
 200:	414e455f 	cmpmi	lr, pc, asr r5
 204:	5f454c42 	svcpl	0x00454c42
 208:	52490031 	subpl	r0, r9, #49	; 0x31
 20c:	4e455f51 	mcrmi	15, 2, r5, cr5, cr1, {2}
 210:	454c4241 	strbmi	r4, [ip, #-577]	; 0x241
 214:	7500325f 	strvc	r3, [r0, #-607]	; 0x25f
 218:	5f747261 	svcpl	0x00747261
 21c:	5f736168 	svcpl	0x00736168
 220:	61746164 	cmnvs	r4, r4, ror #2
 224:	746e695f 	strbtvc	r6, [lr], #-2399	; 0x95f
 228:	58554100 	ldmdapl	r5, {r8, lr}^
 22c:	5f554d5f 	svcpl	0x00554d5f
 230:	5f524549 	svcpl	0x00524549
 234:	00474552 	subeq	r4, r7, r2, asr r5
 238:	61656c63 	cmnvs	r5, r3, ror #24
 23c:	65725f6e 	ldrbvs	r5, [r2, #-3950]!	; 0xf6e
 240:	746f6f62 	strbtvc	r6, [pc], #-3938	; 248 <_start-0x7db8>
 244:	69617400 	stmdbvs	r1!, {sl, ip, sp, lr}^
 248:	6973006c 	ldmdbvs	r3!, {r2, r3, r5, r6}^
 24c:	7974657a 	ldmdbvc	r4!, {r1, r3, r4, r5, r6, r8, sl, sp, lr}^
 250:	67006570 	smlsdxvs	r0, r0, r5, r6
 254:	5f6f6970 	svcpl	0x006f6970
 258:	5f746573 	svcpl	0x00746573
 25c:	636e7566 	cmnvs	lr, #427819008	; 0x19800000
 260:	6e6f6974 	mcrvs	9, 3, r6, cr15, cr4, {3}
 264:	67657200 	strbvs	r7, [r5, -r0, lsl #4]!
 268:	6c61765f 	stclvs	6, cr7, [r1], #-380	; 0xfffffe84
 26c:	5f716300 	svcpl	0x00716300
 270:	5f706f70 	svcpl	0x00706f70
 274:	626e6f6e 	rsbvs	r6, lr, #440	; 0x1b8
 278:	6b636f6c 	blvs	18dc030 <__bss_end__+0x18cd738>
 27c:	6d726100 	ldfvse	f6, [r2, #-0]
 280:	6d69745f 	cfstrdvs	mvd7, [r9, #-380]!	; 0xfffffe84
 284:	525f7265 	subspl	r7, pc, #1342177286	; 0x50000006
 288:	616f6c65 	cmnvs	pc, r5, ror #24
 28c:	71630064 	cmnvc	r3, r4, rrx
 290:	696e695f 	stmdbvs	lr!, {r0, r1, r2, r3, r4, r6, r8, fp, sp, lr}^
 294:	6e690074 	mcrvs	0, 3, r0, cr9, cr4, {3}
 298:	6e695f74 	mcrvs	15, 3, r5, cr9, cr4, {3}
 29c:	41007469 	tstmi	r0, r9, ror #8
 2a0:	4d5f5855 	ldclmi	8, cr5, [pc, #-340]	; 154 <_start-0x7eac>
 2a4:	49495f55 	stmdbmi	r9, {r0, r2, r4, r6, r8, r9, sl, fp, ip, lr}^
 2a8:	45525f52 	ldrbmi	r5, [r2, #-3922]	; 0xf52
 2ac:	79730047 	ldmdbvc	r3!, {r0, r1, r2, r6}^
 2b0:	6d657473 	cfstrdvs	mvd7, [r5, #-460]!	; 0xfffffe34
 2b4:	616e655f 	cmnvs	lr, pc, asr r5
 2b8:	5f656c62 	svcpl	0x00656c62
 2bc:	65746e69 	ldrbvs	r6, [r4, #-3689]!	; 0xe69
 2c0:	70757272 	rsbsvc	r7, r5, r2, ror r2
 2c4:	41007374 	tstmi	r0, r4, ror r3
 2c8:	495f5855 	ldmdbmi	pc, {r0, r2, r4, r6, fp, ip, lr}^	; <UNPREDICTABLE>
 2cc:	73005152 	movwvc	r5, #338	; 0x152
 2d0:	61755f77 	cmnvs	r5, r7, ror pc
 2d4:	745f7472 	ldrbvc	r7, [pc], #-1138	; 2dc <_start-0x7d24>
 2d8:	736e7500 	cmnvc	lr, #0, 10
 2dc:	656e6769 	strbvs	r6, [lr, #-1897]!	; 0x769
 2e0:	68632064 	stmdavs	r3!, {r2, r5, r6, sp}^
 2e4:	69007261 	stmdbvs	r0, {r0, r5, r6, r9, ip, sp, lr}
 2e8:	68635f6e 	stmdavs	r3!, {r1, r2, r3, r5, r6, r8, r9, sl, fp, ip, lr}^
 2ec:	73007261 	movwvc	r7, #609	; 0x261
 2f0:	74726f68 	ldrbtvc	r6, [r2], #-3944	; 0xf68
 2f4:	746e6920 	strbtvc	r6, [lr], #-2336	; 0x920
 2f8:	58554100 	ldmdapl	r5, {r8, lr}^
 2fc:	5f554d5f 	svcpl	0x00554d5f
 300:	54415453 	strbpl	r5, [r1], #-1107	; 0x453
 304:	4745525f 	smlsldmi	r5, r5, pc, r2	; <UNPREDICTABLE>
 308:	73552f00 	cmpvc	r5, #0, 30
 30c:	2f737265 	svccs	0x00737265
 310:	61697262 	cmnvs	r9, r2, ror #4
 314:	6e756a6e 	vsubvs.f32	s13, s10, s29
 318:	7365442f 	cmnvc	r5, #788529152	; 0x2f000000
 31c:	706f746b 	rsbvc	r7, pc, fp, ror #8
 320:	6863732f 	stmdavs	r3!, {r0, r1, r2, r3, r5, r8, r9, ip, sp, lr}^
 324:	2f6c6f6f 	svccs	0x006c6f6f
 328:	746e6957 	strbtvc	r6, [lr], #-2391	; 0x957
 32c:	39317265 	ldmdbcc	r1!, {r0, r2, r5, r6, r9, ip, sp, lr}
 330:	432f3032 	teqmi	pc, #50	; 0x32
 334:	30343153 	eorscc	r3, r4, r3, asr r1
 338:	73632f45 	cmnvc	r3, #276	; 0x114
 33c:	65303431 	ldrvs	r3, [r0, #-1073]!	; 0x431
 340:	7730322d 	ldrvc	r3, [r0, -sp, lsr #4]!
 344:	682f6e69 	stmdavs	pc!, {r0, r3, r5, r6, r9, sl, fp, sp, lr}	; <UNPREDICTABLE>
 348:	77656d6f 	strbvc	r6, [r5, -pc, ror #26]!
 34c:	2f6b726f 	svccs	0x006b726f
 350:	77682d31 			; <UNDEFINED> instruction: 0x77682d31
 354:	7261752d 	rsbvc	r7, r1, #188743680	; 0xb400000
 358:	6e692d74 	mcrvs	13, 3, r2, cr9, cr4, {3}
 35c:	6e690074 	mcrvs	0, 3, r0, cr9, cr4, {3}
 360:	6800635f 	stmdavs	r0, {r0, r1, r2, r3, r4, r6, r8, r9, sp, lr}
 364:	00646165 	rsbeq	r6, r4, r5, ror #2
 368:	746e6975 	strbtvc	r6, [lr], #-2421	; 0x975
 36c:	745f3233 	ldrbvc	r3, [pc], #-563	; 374 <_start-0x7c8c>
 370:	75616200 	strbvc	r6, [r1, #-512]!	; 0x200
 374:	4e470064 	cdpmi	0, 4, cr0, cr7, cr4, {3}
 378:	20432055 	subcs	r2, r3, r5, asr r0
 37c:	2e382e34 	mrccs	14, 1, r2, cr8, cr4, {1}
 380:	6d2d2033 	stcvs	0, cr2, [sp, #-204]!	; 0xffffff34
 384:	3d757063 	ldclcc	0, cr7, [r5, #-396]!	; 0xfffffe74
 388:	316d7261 	cmncc	sp, r1, ror #4
 38c:	6a363731 	bvs	d8e058 <__bss_end__+0xd7f760>
 390:	732d667a 	teqvc	sp, #127926272	; 0x7a00000
 394:	746d2d20 	strbtvc	r2, [sp], #-3360	; 0xd20
 398:	3d656e75 	stclcc	14, cr6, [r5, #-468]!	; 0xfffffe2c
 39c:	316d7261 	cmncc	sp, r1, ror #4
 3a0:	6a363731 	bvs	d8e06c <__bss_end__+0xd7f774>
 3a4:	732d667a 	teqvc	sp, #127926272	; 0x7a00000
 3a8:	67672d20 	strbvs	r2, [r7, -r0, lsr #26]!
 3ac:	2d206264 	sfmcs	f6, 4, [r0, #-400]!	; 0xfffffe70
 3b0:	2d20674f 	stccs	7, cr6, [r0, #-316]!	; 0xfffffec4
 3b4:	3d647473 	cfstrdcc	mvd7, [r4, #-460]!	; 0xfffffe34
 3b8:	39756e67 	ldmdbcc	r5!, {r0, r1, r2, r5, r6, r9, sl, fp, sp, lr}^
 3bc:	662d2039 			; <UNDEFINED> instruction: 0x662d2039
 3c0:	65657266 	strbvs	r7, [r5, #-614]!	; 0x266
 3c4:	6e617473 	mcrvs	4, 3, r7, cr1, cr3, {3}
 3c8:	676e6964 	strbvs	r6, [lr, -r4, ror #18]!
 3cc:	6e656600 	cdpvs	6, 6, cr6, cr5, cr0, {0}
 3d0:	41006563 	tstmi	r0, r3, ror #10
 3d4:	4d5f5855 	ldclmi	8, cr5, [pc, #-340]	; 288 <_start-0x7d78>
 3d8:	4e435f55 	mcrmi	15, 2, r5, cr3, cr5, {2}
 3dc:	525f4c54 	subspl	r4, pc, #84, 24	; 0x5400
 3e0:	6f004745 	svcvs	0x00004745
 3e4:	66726576 			; <UNDEFINED> instruction: 0x66726576
 3e8:	00776f6c 	rsbseq	r6, r7, ip, ror #30
 3ec:	33747570 	cmncc	r4, #112, 10	; 0x1c000000
 3f0:	71630032 	cmnvc	r3, r2, lsr r0
 3f4:	7375705f 	cmnvc	r5, #95	; 0x5f
 3f8:	71630068 	cmnvc	r3, r8, rrx
 3fc:	00745f65 	rsbseq	r5, r4, r5, ror #30
 400:	5f6d7261 	svcpl	0x006d7261
 404:	656d6974 	strbvs	r6, [sp, #-2420]!	; 0x974
 408:	72505f72 	subsvc	r5, r0, #456	; 0x1c8
 40c:	76694465 	strbtvc	r4, [r9], -r5, ror #8
 410:	72656469 	rsbvc	r6, r5, #1761607680	; 0x69000000
 414:	72617500 	rsbvc	r7, r1, #0, 10
 418:	6e692d74 	mcrvs	13, 3, r2, cr9, cr4, {3}
 41c:	00632e74 	rsbeq	r2, r3, r4, ror lr
 420:	5f6d7261 	svcpl	0x006d7261
 424:	656d6974 	strbvs	r6, [sp, #-2420]!	; 0x974
 428:	61565f72 	cmpvs	r6, r2, ror pc
 42c:	0065756c 	rsbeq	r7, r5, ip, ror #10
 430:	5f6d7261 	svcpl	0x006d7261
 434:	656d6974 	strbvs	r6, [sp, #-2420]!	; 0x974
 438:	52495f72 	subpl	r5, r9, #456	; 0x1c8
 43c:	656c4351 	strbvs	r4, [ip, #-849]!	; 0x351
 440:	6d007261 	sfmvs	f7, 4, [r0, #-388]	; 0xfffffe7c
 444:	65736d65 	ldrbvs	r6, [r3, #-3429]!	; 0xd65
 448:	71630074 	smcvc	12292	; 0x3004
 44c:	7200745f 	andvc	r7, r0, #1593835520	; 0x5f000000
 450:	615f6970 	cmpvs	pc, r0, ror r9	; <UNPREDICTABLE>
 454:	745f6d72 	ldrbvc	r6, [pc], #-3442	; 45c <_start-0x7ba4>
 458:	72656d69 	rsbvc	r6, r5, #6720	; 0x1a40
 45c:	4700745f 	smlsdmi	r0, pc, r4, r7	; <UNPREDICTABLE>
 460:	5f4f4950 	svcpl	0x004f4950
 464:	434e5546 	movtmi	r5, #58694	; 0xe546
 468:	54554f5f 	ldrbpl	r4, [r5], #-3935	; 0xf5f
 46c:	00545550 	subseq	r5, r4, r0, asr r5
 470:	746e6975 	strbtvc	r6, [lr], #-2421	; 0x975
 474:	00745f38 	rsbseq	r5, r4, r8, lsr pc
 478:	33746567 	cmncc	r4, #432013312	; 0x19c00000
 47c:	70670032 	rsbvc	r0, r7, r2, lsr r0
 480:	665f6f69 	ldrbvs	r6, [pc], -r9, ror #30
 484:	5f636e75 	svcpl	0x00636e75
 488:	6f6d0074 	svcvs	0x006d0074
 48c:	78745f64 	ldmdavc	r4!, {r2, r5, r6, r8, r9, sl, fp, ip, lr}^
 490:	746e695f 	strbtvc	r6, [lr], #-2399	; 0x95f
 494:	75727265 	ldrbvc	r7, [r2, #-613]!	; 0x265
 498:	00737470 	rsbseq	r7, r3, r0, ror r4
 49c:	4f495047 	svcmi	0x00495047
 4a0:	4e55465f 	mrcmi	6, 2, r4, cr5, cr15, {2}
 4a4:	4c415f43 	mcrrmi	15, 4, r5, r1, cr3
 4a8:	47003054 	smlsdmi	r0, r4, r0, r3
 4ac:	5f4f4950 	svcpl	0x004f4950
 4b0:	434e5546 	movtmi	r5, #58694	; 0xe546
 4b4:	544c415f 	strbpl	r4, [ip], #-351	; 0x15f
 4b8:	50470031 	subpl	r0, r7, r1, lsr r0
 4bc:	465f4f49 	ldrbmi	r4, [pc], -r9, asr #30
 4c0:	5f434e55 	svcpl	0x00434e55
 4c4:	32544c41 	subscc	r4, r4, #16640	; 0x4100
 4c8:	49504700 	ldmdbmi	r0, {r8, r9, sl, lr}^
 4cc:	55465f4f 	strbpl	r5, [r6, #-3919]	; 0xf4f
 4d0:	415f434e 	cmpmi	pc, lr, asr #6
 4d4:	0033544c 	eorseq	r5, r3, ip, asr #8
 4d8:	4f495047 	svcmi	0x00495047
 4dc:	4e55465f 	mrcmi	6, 2, r4, cr5, cr15, {2}
 4e0:	4c415f43 	mcrrmi	15, 4, r5, r1, cr3
 4e4:	47003454 	smlsdmi	r0, r4, r4, r3
 4e8:	5f4f4950 	svcpl	0x004f4950
 4ec:	434e5546 	movtmi	r5, #58694	; 0xe546
 4f0:	544c415f 	strbpl	r4, [ip], #-351	; 0x15f
 4f4:	55410035 	strbpl	r0, [r1, #-53]	; 0x35
 4f8:	554d5f58 	strbpl	r5, [sp, #-3928]	; 0xf58
 4fc:	52434d5f 	subpl	r4, r3, #6080	; 0x17c0
 500:	4745525f 	smlsldmi	r5, r5, pc, r2	; <UNPREDICTABLE>
 504:	63796300 	cmnvs	r9, #0, 6
 508:	705f656c 	subsvc	r6, pc, ip, ror #10
 50c:	625f7265 	subsvs	r7, pc, #1342177286	; 0x50000006
 510:	73007469 	movwvc	r7, #1129	; 0x469
 514:	65747379 	ldrbvs	r7, [r4, #-889]!	; 0x379
 518:	69645f6d 	stmdbvs	r4!, {r0, r2, r3, r5, r6, r8, r9, sl, fp, ip, lr}^
 51c:	6c626173 	stfvse	f6, [r2], #-460	; 0xfffffe34
 520:	6e695f65 	cdpvs	15, 6, cr5, cr9, cr5, {3}
 524:	72726574 	rsbsvc	r6, r2, #116, 10	; 0x1d000000
 528:	73747075 	cmnvc	r4, #117	; 0x75
 52c:	5f796d00 	svcpl	0x00796d00
 530:	73747570 	cmnvc	r4, #112, 10	; 0x1c000000
 534:	5f716300 	svcpl	0x00716300
 538:	6c6c7566 	cfstr64vs	mvdx7, [ip], #-408	; 0xfffffe68
 53c:	6d726100 	ldfvse	f6, [r2, #-0]
 540:	6d69745f 	cfstrdvs	mvd7, [r9, #-380]!	; 0xfffffe84
 544:	465f7265 	ldrbmi	r7, [pc], -r5, ror #4
 548:	52656572 	rsbpl	r6, r5, #478150656	; 0x1c800000
 54c:	696e6e75 	stmdbvs	lr!, {r0, r2, r4, r5, r6, r9, sl, fp, sp, lr}^
 550:	6f43676e 	svcvs	0x0043676e
 554:	65746e75 	ldrbvs	r6, [r4, #-3701]!	; 0xe75
 558:	696c0072 	stmdbvs	ip!, {r1, r4, r5, r6}^
 55c:	6d2f6362 	stcvs	3, cr6, [pc, #-392]!	; 3dc <_start-0x7c24>
 560:	65736d65 	ldrbvs	r6, [r3, #-3429]!	; 0xd65
 564:	00632e74 	rsbeq	r2, r3, r4, ror lr
 568:	6573552f 	ldrbvs	r5, [r3, #-1327]!	; 0x52f
 56c:	622f7372 	eorvs	r7, pc, #-939524095	; 0xc8000001
 570:	6e616972 	mcrvs	9, 3, r6, cr1, cr2, {3}
 574:	2f6e756a 	svccs	0x006e756a
 578:	6b736544 	blvs	1cd9a90 <__bss_end__+0x1ccb198>
 57c:	2f706f74 	svccs	0x00706f74
 580:	6f686373 	svcvs	0x00686373
 584:	572f6c6f 	strpl	r6, [pc, -pc, ror #24]!
 588:	65746e69 	ldrbvs	r6, [r4, #-3689]!	; 0xe69
 58c:	32393172 	eorscc	r3, r9, #-2147483620	; 0x8000001c
 590:	53432f30 	movtpl	r2, #16176	; 0x3f30
 594:	45303431 	ldrmi	r3, [r0, #-1073]!	; 0x431
 598:	3173632f 	cmncc	r3, pc, lsr #6
 59c:	2d653034 	stclcs	0, cr3, [r5, #-208]!	; 0xffffff30
 5a0:	69773032 	ldmdbvs	r7!, {r1, r4, r5, ip, sp}^
 5a4:	696c2f6e 	stmdbvs	ip!, {r1, r2, r3, r5, r6, r8, r9, sl, fp, sp}^
 5a8:	00697062 	rsbeq	r7, r9, r2, rrx
 5ac:	6e675f5f 	mcrvs	15, 3, r5, cr7, cr15, {2}
 5b0:	765f6375 			; <UNDEFINED> instruction: 0x765f6375
 5b4:	696c5f61 	stmdbvs	ip!, {r0, r5, r6, r8, r9, sl, fp, ip, lr}^
 5b8:	6c007473 	cfstrsvs	mvf7, [r0], {115}	; 0x73
 5bc:	2f636269 	svccs	0x00636269
 5c0:	6e697270 	mcrvs	2, 3, r7, cr9, cr0, {3}
 5c4:	632e6b74 	teqvs	lr, #116, 22	; 0x1d000
 5c8:	5f617600 	svcpl	0x00617600
 5cc:	6e697270 	mcrvs	2, 3, r7, cr9, cr0, {3}
 5d0:	5f006b74 	svcpl	0x00006b74
 5d4:	5f61765f 	svcpl	0x0061765f
 5d8:	7473696c 	ldrbtvc	r6, [r3], #-2412	; 0x96c
 5dc:	67726100 	ldrbvs	r6, [r2, -r0, lsl #2]!
 5e0:	5f5f0073 	svcpl	0x005f0073
 5e4:	69007061 	stmdbvs	r0, {r0, r5, r6, ip, sp, lr}
 5e8:	7265746e 	rsbvc	r7, r5, #1845493760	; 0x6e000000
 5ec:	5f6c616e 	svcpl	0x006c616e
 5f0:	63747570 	cmnvs	r4, #112, 10	; 0x1c000000
 5f4:	00726168 	rsbseq	r6, r2, r8, ror #2
 5f8:	5f697072 	svcpl	0x00697072
 5fc:	63747570 	cmnvs	r4, #112, 10	; 0x1c000000
 600:	00726168 	rsbseq	r6, r2, r8, ror #2
 604:	6362696c 	cmnvs	r2, #108, 18	; 0x1b0000
 608:	7475702f 	ldrbtvc	r7, [r5], #-47	; 0x2f
 60c:	72616863 	rsbvc	r6, r1, #6488064	; 0x630000
 610:	7200632e 	andvc	r6, r0, #-1207959552	; 0xb8000000
 614:	735f6970 	cmpvc	pc, #112, 18	; 0x1c0000
 618:	705f7465 	subsvc	r7, pc, r5, ror #8
 61c:	00637475 	rsbeq	r7, r3, r5, ror r4
 620:	6362696c 	cmnvs	r2, #108, 18	; 0x1b0000
 624:	7475702f 	ldrbtvc	r7, [r5], #-47	; 0x2f
 628:	00632e6b 	rsbeq	r2, r3, fp, ror #28
 62c:	65746e69 	ldrbvs	r6, [r4, #-3689]!	; 0xe69
 630:	6c616e72 	stclvs	14, cr6, [r1], #-456	; 0xfffffe38
 634:	7475705f 	ldrbtvc	r7, [r5], #-95	; 0x5f
 638:	656e006b 	strbvs	r0, [lr, #-107]!	; 0x6b
 63c:	00705f67 	rsbseq	r5, r0, r7, ror #30
 640:	65766572 	ldrbvs	r6, [r6, #-1394]!	; 0x572
 644:	00657372 	rsbeq	r7, r5, r2, ror r3
 648:	69647369 	stmdbvs	r4!, {r0, r3, r5, r6, r8, r9, ip, sp, lr}^
 64c:	00746967 	rsbseq	r6, r4, r7, ror #18
 650:	73747570 	cmnvc	r4, #112, 10	; 0x1c000000
 654:	0070665f 	rsbseq	r6, r0, pc, asr r6
 658:	65736162 	ldrbvs	r6, [r3, #-354]!	; 0x162
 65c:	67697300 	strbvs	r7, [r9, -r0, lsl #6]!
 660:	5f64656e 	svcpl	0x0064656e
 664:	696c0070 	stmdbvs	ip!, {r4, r5, r6}^
 668:	762f6362 	strtvc	r6, [pc], -r2, ror #6
 66c:	72702d61 	rsbsvc	r2, r0, #6208	; 0x1840
 670:	6b746e69 	blvs	1d1c01c <__bss_end__+0x1d0d724>
 674:	7200632e 	andvc	r6, r0, #-1207959552	; 0xb8000000
 678:	735f6970 	cmpvc	pc, #112, 18	; 0x1c0000
 67c:	6f5f7465 	svcvs	0x005f7465
 680:	75707475 	ldrbvc	r7, [r0, #-1141]!	; 0x475
 684:	69770074 	ldmdbvs	r7!, {r2, r4, r5, r6}^
 688:	00687464 	rsbeq	r7, r8, r4, ror #8
 68c:	63747570 	cmnvs	r4, #112, 10	; 0x1c000000
 690:	0070665f 	rsbseq	r6, r0, pc, asr r6
 694:	74696d65 	strbtvc	r6, [r9], #-3429	; 0xd65
 698:	69707200 	ldmdbvs	r0!, {r9, ip, sp, lr}^
 69c:	6265725f 	rsbvs	r7, r5, #-268435451	; 0xf0000005
 6a0:	00746f6f 	rsbseq	r6, r4, pc, ror #30
 6a4:	34317363 	ldrtcc	r7, [r1], #-867	; 0x363
 6a8:	732d6530 	teqvc	sp, #48, 10	; 0xc000000
 6ac:	632f6372 	teqvs	pc, #-939524095	; 0xc8000001
 6b0:	6e61656c 	cdpvs	5, 6, cr6, cr1, cr12, {3}
 6b4:	6265722d 	rsbvs	r7, r5, #-805306366	; 0xd0000002
 6b8:	2e746f6f 	cdpcs	15, 7, cr6, cr4, cr15, {3}
 6bc:	65640063 	strbvs	r0, [r4, #-99]!	; 0x63
 6c0:	5f79616c 	svcpl	0x0079616c
 6c4:	6900736d 	stmdbvs	r0, {r0, r2, r3, r5, r6, r8, r9, ip, sp, lr}
 6c8:	7265746e 	rsbvc	r7, r5, #1845493760	; 0x6e000000
 6cc:	5f6c616e 	svcpl	0x006c616e
 6d0:	705f7773 	subsvc	r7, pc, r3, ror r7	; <UNPREDICTABLE>
 6d4:	68637475 	stmdavs	r3!, {r0, r2, r4, r5, r6, sl, ip, sp, lr}^
 6d8:	5f007261 	svcpl	0x00007261
 6dc:	7373625f 	cmnvc	r3, #-268435451	; 0xf0000005
 6e0:	6174735f 	cmnvs	r4, pc, asr r3
 6e4:	5f5f7472 	svcpl	0x005f7472
 6e8:	73736200 	cmnvc	r3, #0, 4
 6ec:	646e655f 	strbtvs	r6, [lr], #-1375	; 0x55f
 6f0:	6e6f6300 	cdpvs	3, 6, cr6, cr15, cr0, {0}
 6f4:	656c6f73 	strbvs	r6, [ip, #-3955]!	; 0xf73
 6f8:	7261755f 	rsbvc	r7, r1, #398458880	; 0x17c00000
 6fc:	77730074 			; <UNDEFINED> instruction: 0x77730074
 700:	7261755f 	rsbvc	r7, r1, #398458880	; 0x17c00000
 704:	72705f74 	rsbsvc	r5, r0, #116, 30	; 0x1d0
 708:	6b746e69 	blvs	1d1c0b4 <__bss_end__+0x1d0d7bc>
 70c:	54555000 	ldrbpl	r5, [r5], #-0
 710:	53455f43 	movtpl	r5, #24387	; 0x5f43
 714:	41555f50 	cmpmi	r5, r0, asr pc
 718:	50005452 	andpl	r5, r0, r2, asr r4
 71c:	5f435455 	svcpl	0x00435455
 720:	555f5753 	ldrbpl	r5, [pc, #-1875]	; ffffffd5 <__bss_end__+0xffff16dd>
 724:	00545241 	subseq	r5, r4, r1, asr #4
 728:	43545550 	cmpmi	r4, #80, 10	; 0x14000000
 72c:	5f57485f 	svcpl	0x0057485f
 730:	54524155 	ldrbpl	r4, [r2], #-341	; 0x155
 734:	73635f00 	cmnvc	r3, #0, 30
 738:	74726174 	ldrbtvc	r6, [r2], #-372	; 0x174
 73c:	72617500 	rsbvc	r7, r1, #0, 10
 740:	65645f74 	strbvs	r5, [r4, #-3956]!	; 0xf74
 744:	00745f76 	rsbseq	r5, r4, r6, ror pc
 748:	746e6f63 	strbtvc	r6, [lr], #-3939	; 0xf63
 74c:	5f6c6f72 	svcpl	0x006c6f72
 750:	5f6b6c62 	svcpl	0x006b6c62
 754:	62630074 	rsbvs	r0, r3, #116	; 0x74
 758:	7465675f 	strbtvc	r6, [r5], #-1887	; 0x75f
 75c:	6f6c625f 	svcvs	0x006c625f
 760:	5f006b63 	svcpl	0x00006b63
 764:	7373625f 	cmnvc	r3, #-268435451	; 0xf0000005
 768:	646e655f 	strbtvs	r6, [lr], #-1375	; 0x55f
 76c:	63005f5f 	movwvs	r5, #3935	; 0xf5f
 770:	30343173 	eorscc	r3, r4, r3, ror r1
 774:	72732d65 	rsbsvc	r2, r3, #6464	; 0x1940
 778:	73632f63 	cmnvc	r3, #396	; 0x18c
 77c:	74726174 	ldrbtvc	r6, [r2], #-372	; 0x174
 780:	6300632e 	movwvs	r6, #814	; 0x32e
 784:	6f736e6f 	svcvs	0x00736e6f
 788:	645f656c 	ldrbvs	r6, [pc], #-1388	; 790 <_start-0x7870>
 78c:	6d007665 	stcvs	6, cr7, [r0, #-404]	; 0xfffffe6c
 790:	63696761 	cmnvs	r9, #25427968	; 0x1840000
 794:	5f746100 	svcpl	0x00746100
 798:	72657375 	rsbvc	r7, r5, #-738197503	; 0xd4000001
 79c:	76656c5f 			; <UNDEFINED> instruction: 0x76656c5f
 7a0:	50006c65 	andpl	r6, r0, r5, ror #24
 7a4:	41505f4d 	cmpmi	r0, sp, asr #30
 7a8:	4f575353 	svcmi	0x00575353
 7ac:	63004452 	movwvs	r4, #1106	; 0x452
 7b0:	30343173 	eorscc	r3, r4, r3, ror r1
 7b4:	72732d65 	rsbsvc	r2, r3, #6464	; 0x1940
 7b8:	65722f63 	ldrbvs	r2, [r2, #-3939]!	; 0xf63
 7bc:	746f6f62 	strbtvc	r6, [pc], #-3938	; 7c4 <_start-0x783c>
 7c0:	5000632e 	andpl	r6, r0, lr, lsr #6
 7c4:	53525f4d 	cmppl	r2, #308	; 0x134
 7c8:	575f4354 			; <UNDEFINED> instruction: 0x575f4354
 7cc:	47464352 	smlsldmi	r4, r6, r2, r3
 7d0:	4c55465f 	mrrcmi	6, 5, r4, r5, cr15
 7d4:	45525f4c 	ldrbmi	r5, [r2, #-3916]	; 0xf4c
 7d8:	00544553 	subseq	r4, r4, r3, asr r5
 7dc:	575f4d50 			; <UNDEFINED> instruction: 0x575f4d50
 7e0:	00474f44 	subeq	r4, r7, r4, asr #30
 7e4:	5f746573 	svcpl	0x00746573
 7e8:	72657375 	rsbvc	r7, r5, #-738197503	; 0xd4000001
 7ec:	76656c5f 			; <UNDEFINED> instruction: 0x76656c5f
 7f0:	50006c65 	andpl	r6, r0, r5, ror #24
 7f4:	32335455 	eorscc	r5, r3, #1426063360	; 0x55000000
 7f8:	5f4d5000 	svcpl	0x004d5000
 7fc:	43545352 	cmpmi	r4, #1207959553	; 0x48000001
 800:	73706300 	cmnvc	r0, #0, 6
 804:	69740072 	ldmdbvs	r4!, {r1, r4, r5, r6}^
 808:	5f72656d 	svcpl	0x0072656d
 80c:	5f746567 	svcpl	0x00746567
 810:	63657375 	cmnvs	r5, #-738197503	; 0xd4000001
 814:	7761725f 			; <UNDEFINED> instruction: 0x7761725f
 818:	6c656400 	cfstrdvs	mvd6, [r5], #-0
 81c:	735f7961 	cmpvc	pc, #1589248	; 0x184000
 820:	63006365 	movwvs	r6, #869	; 0x365
 824:	30343173 	eorscc	r3, r4, r3, ror r1
 828:	72732d65 	rsbsvc	r2, r3, #6464	; 0x1940
 82c:	69742f63 	ldmdbvs	r4!, {r0, r1, r5, r6, r8, r9, sl, fp, sp}^
 830:	2e72656d 	cdpcs	5, 7, cr6, cr2, cr13, {3}
 834:	45470063 	strbmi	r0, [r7, #-99]	; 0x63
 838:	00323354 	eorseq	r3, r2, r4, asr r3
 83c:	6b636974 	blvs	18dae14 <__bss_end__+0x18cc51c>
 840:	65640073 	strbvs	r0, [r4, #-115]!	; 0x73
 844:	5f79616c 	svcpl	0x0079616c
 848:	6c637963 	stclvs	9, cr7, [r3], #-396	; 0xfffffe74
 84c:	64007365 	strvs	r7, [r0], #-869	; 0x365
 850:	79616c65 	stmdbvc	r1!, {r0, r2, r5, r6, sl, fp, sp, lr}^
 854:	0073755f 	rsbseq	r7, r3, pc, asr r5
 858:	656d6974 	strbvs	r6, [sp, #-2420]!	; 0x974
 85c:	65675f72 	strbvs	r5, [r7, #-3954]!	; 0xf72
 860:	73755f74 	cmnvc	r5, #116, 30	; 0x1d0
 864:	67006365 	strvs	r6, [r0, -r5, ror #6]
 868:	5f6f6970 	svcpl	0x006f6970
 86c:	6e657665 	cdpvs	6, 6, cr7, cr5, cr5, {3}
 870:	65645f74 	strbvs	r5, [r4, #-3956]!	; 0xf74
 874:	74636574 	strbtvc	r6, [r3], #-1396	; 0x574
 878:	47006465 	strmi	r6, [r0, -r5, ror #8]
 87c:	45534650 	ldrbmi	r4, [r3, #-1616]	; 0x650
 880:	4700324c 	strmi	r3, [r0, -ip, asr #4]
 884:	524c4350 	subpl	r4, ip, #80, 6	; 0x40000001
 888:	4e450030 	mcrmi	0, 2, r0, cr5, cr0, {1}
 88c:	454c4241 	strbmi	r4, [ip, #-577]	; 0x241
 890:	5152495f 	cmppl	r2, pc, asr r9
 894:	00325f53 	eorseq	r5, r2, r3, asr pc
 898:	675f7369 	ldrbvs	r7, [pc, -r9, ror #6]
 89c:	5f6f6970 	svcpl	0x006f6970
 8a0:	00746e69 	rsbseq	r6, r4, r9, ror #28
 8a4:	6f697067 	svcvs	0x00697067
 8a8:	7465735f 	strbtvc	r7, [r5], #-863	; 0x35f
 8ac:	66666f5f 	uqsaxvs	r6, r6, pc	; <UNPREDICTABLE>
 8b0:	2d796d00 	ldclcs	13, cr6, [r9, #-0]
 8b4:	2f637273 	svccs	0x00637273
 8b8:	6f697067 	svcvs	0x00697067
 8bc:	6900632e 	stmdbvs	r0, {r1, r2, r3, r5, r8, r9, sp, lr}
 8c0:	6d5f746e 	cfldrdvs	mvd7, [pc, #-440]	; 710 <_start-0x78f0>
 8c4:	006b7361 	rsbeq	r7, fp, r1, ror #6
 8c8:	45535047 	ldrbmi	r5, [r3, #-71]	; 0x47
 8cc:	47003054 	smlsdmi	r0, r4, r0, r3
 8d0:	54455350 	strbpl	r5, [r5], #-848	; 0x350
 8d4:	65720031 	ldrbvs	r0, [r2, #-49]!	; 0x31
 8d8:	74735f67 	ldrbtvc	r5, [r3], #-3943	; 0xf67
 8dc:	47007461 	strmi	r7, [r0, -r1, ror #8]
 8e0:	56454c50 			; <UNDEFINED> instruction: 0x56454c50
 8e4:	50470030 	subpl	r0, r7, r0, lsr r0
 8e8:	3156454c 	cmpcc	r6, ip, asr #10
 8ec:	69706700 	ldmdbvs	r0!, {r8, r9, sl, sp, lr}^
 8f0:	65725f6f 	ldrbvs	r5, [r2, #-3951]!	; 0xf6f
 8f4:	50470067 	subpl	r0, r7, r7, rrx
 8f8:	4c455346 	mcrrmi	3, 4, r5, r5, cr6
 8fc:	50470030 	subpl	r0, r7, r0, lsr r0
 900:	4c455346 	mcrrmi	3, 4, r5, r5, cr6
 904:	50470031 	subpl	r0, r7, r1, lsr r0
 908:	4c455346 	mcrrmi	3, 4, r5, r5, cr6
 90c:	50470033 	subpl	r0, r7, r3, lsr r0
 910:	4c455346 	mcrrmi	3, 4, r5, r5, cr6
 914:	50470034 	subpl	r0, r7, r4, lsr r0
 918:	4c455346 	mcrrmi	3, 4, r5, r5, cr6
 91c:	70670035 	rsbvc	r0, r7, r5, lsr r0
 920:	665f6f69 	ldrbvs	r6, [pc], -r9, ror #30
 924:	306c6573 	rsbcc	r6, ip, r3, ror r5
 928:	43504700 	cmpmi	r0, #0, 14
 92c:	0031524c 	eorseq	r5, r1, ip, asr #4
 930:	6f697067 	svcvs	0x00697067
 934:	6165725f 	cmnvs	r5, pc, asr r2
 938:	70670064 	rsbvc	r0, r7, r4, rrx
 93c:	695f6f69 	ldmdbvs	pc, {r0, r3, r5, r6, r8, r9, sl, fp, sp, lr}^	; <UNPREDICTABLE>
 940:	725f746e 	subsvc	r7, pc, #1845493760	; 0x6e000000
 944:	6e697369 	cdpvs	3, 6, cr7, cr9, cr9, {3}
 948:	64655f67 	strbtvs	r5, [r5], #-3943	; 0xf67
 94c:	47006567 	strmi	r6, [r0, -r7, ror #10]
 950:	4e455250 	mcrmi	2, 2, r5, cr5, cr0, {2}
 954:	50470030 	subpl	r0, r7, r0, lsr r0
 958:	314e4552 	cmpcc	lr, r2, asr r5
 95c:	69706700 	ldmdbvs	r0!, {r8, r9, sl, sp, lr}^
 960:	76655f6f 	strbtvc	r5, [r5], -pc, ror #30
 964:	5f746e65 	svcpl	0x00746e65
 968:	61656c63 	cmnvs	r5, r3, ror #24
 96c:	52490072 	subpl	r0, r9, #114	; 0x72
 970:	45505f51 	ldrbmi	r5, [r0, #-3921]	; 0xf51
 974:	4e49444e 	cdpmi	4, 4, cr4, cr9, cr14, {2}
 978:	00315f47 	eorseq	r5, r1, r7, asr #30
 97c:	5f515249 	svcpl	0x00515249
 980:	444e4550 	strbmi	r4, [lr], #-1360	; 0x550
 984:	5f474e49 	svcpl	0x00474e49
 988:	69620032 	stmdbvs	r2!, {r1, r4, r5}^
 98c:	73616d74 	cmnvc	r1, #116, 26	; 0x1d00
 990:	7067006b 	rsbvc	r0, r7, fp, rrx
 994:	775f6f69 	ldrbvc	r6, [pc, -r9, ror #30]
 998:	65746972 	ldrbvs	r6, [r4, #-2418]!	; 0x972
 99c:	69706700 	ldmdbvs	r0!, {r8, r9, sl, sp, lr}^
 9a0:	65735f6f 	ldrbvs	r5, [r3, #-3951]!	; 0xf6f
 9a4:	66003074 			; <UNDEFINED> instruction: 0x66003074
 9a8:	00636e75 	rsbeq	r6, r3, r5, ror lr
 9ac:	6f697067 	svcvs	0x00697067
 9b0:	7465735f 	strbtvc	r7, [r5], #-863	; 0x35f
 9b4:	706e695f 	rsbvc	r6, lr, pc, asr r9
 9b8:	47007475 	smlsdxmi	r0, r5, r4, r7
 9bc:	53444550 	movtpl	r4, #17744	; 0x4550
 9c0:	50470030 	subpl	r0, r7, r0, lsr r0
 9c4:	31534445 	cmpcc	r3, r5, asr #8
 9c8:	69706700 	ldmdbvs	r0!, {r8, r9, sl, sp, lr}^
 9cc:	65735f6f 	ldrbvs	r5, [r3, #-3951]!	; 0xf6f
 9d0:	6e6f5f74 	mcrvs	15, 3, r5, cr15, cr4, {3}
 9d4:	46504700 	ldrbmi	r4, [r0], -r0, lsl #14
 9d8:	00304e45 	eorseq	r4, r0, r5, asr #28
 9dc:	45465047 	strbmi	r5, [r6, #-71]	; 0x47
 9e0:	6700314e 	strvs	r3, [r0, -lr, asr #2]
 9e4:	5f6f6970 	svcpl	0x006f6970
 9e8:	5f746573 	svcpl	0x00746573
 9ec:	7074756f 	rsbsvc	r7, r4, pc, ror #10
 9f0:	67007475 	smlsdxvs	r0, r5, r4, r7
 9f4:	5f6f6970 	svcpl	0x006f6970
 9f8:	5f746e69 	svcpl	0x00746e69
 9fc:	6c6c6166 	stfvse	f6, [ip], #-408	; 0xfffffe68
 a00:	5f676e69 	svcpl	0x00676e69
 a04:	65676465 	strbvs	r6, [r7, #-1125]!	; 0x465
 a08:	67657200 	strbvs	r7, [r5, -r0, lsl #4]!
 a0c:	6c65735f 	stclvs	3, cr7, [r5], #-380	; 0xfffffe84
 a10:	00746365 	rsbseq	r6, r4, r5, ror #6
 a14:	6f697067 	svcvs	0x00697067
 a18:	726c635f 	rsbvc	r6, ip, #2080374785	; 0x7c000001
 a1c:	79630030 	stmdbvc	r3!, {r4, r5}^
 a20:	65705f63 	ldrbvs	r5, [r0, #-3939]!	; 0xf63
 a24:	69625f72 	stmdbvs	r2!, {r1, r4, r5, r6, r8, r9, sl, fp, ip, lr}^
 a28:	72770074 	rsbsvc	r0, r7, #116	; 0x74
 a2c:	5f657469 	svcpl	0x00657469
 a30:	5f637963 	svcpl	0x00637963
 a34:	69746e75 	ldmdbvs	r4!, {r0, r2, r4, r5, r6, r9, sl, fp, sp, lr}^
 a38:	7773006c 	ldrbvc	r0, [r3, -ip, rrx]!
 a3c:	7261755f 	rsbvc	r7, r1, #398458880	; 0x17c00000
 a40:	65675f74 	strbvs	r5, [r7, #-3956]!	; 0xf74
 a44:	745f6374 	ldrbvc	r6, [pc], #-884	; a4c <_start-0x75b4>
 a48:	6f656d69 	svcvs	0x00656d69
 a4c:	73007475 	movwvc	r7, #1141	; 0x475
 a50:	61755f77 	cmnvs	r5, r7, ror pc
 a54:	675f7472 			; <UNDEFINED> instruction: 0x675f7472
 a58:	5f737465 	svcpl	0x00737465
 a5c:	69746e75 	ldmdbvs	r4!, {r0, r2, r4, r5, r6, r9, sl, fp, sp, lr}^
 a60:	7773006c 	ldrbvc	r0, [r3, -ip, rrx]!
 a64:	7261755f 	rsbvc	r7, r1, #398458880	; 0x17c00000
 a68:	65675f74 	strbvs	r5, [r7, #-3956]!	; 0xf74
 a6c:	64006374 	strvs	r6, [r0], #-884	; 0x374
 a70:	76697265 	strbtvc	r7, [r9], -r5, ror #4
 a74:	64006465 	strvs	r6, [r0], #-1125	; 0x465
 a78:	79616c65 	stmdbvc	r1!, {r0, r2, r5, r6, sl, fp, sp, lr}^
 a7c:	79636e5f 	stmdbvc	r3!, {r0, r1, r2, r3, r4, r6, r9, sl, fp, sp, lr}^
 a80:	73656c63 	cmnvc	r5, #25344	; 0x6300
 a84:	6d697400 	cfstrdvs	mvd7, [r9, #-0]
 a88:	74756f65 	ldrbtvc	r6, [r5], #-3941	; 0xf65
 a8c:	6573755f 	ldrbvs	r7, [r3, #-1375]!	; 0x55f
 a90:	77730063 	ldrbvc	r0, [r3, -r3, rrx]!
 a94:	7261755f 	rsbvc	r7, r1, #398458880	; 0x17c00000
 a98:	75705f74 	ldrbvc	r5, [r0, #-3956]!	; 0xf74
 a9c:	6d006b74 	vstrvs	d6, [r0, #-464]	; 0xfffffe30
 aa0:	72732d79 	rsbsvc	r2, r3, #7744	; 0x1e40
 aa4:	77732f63 	ldrbvc	r2, [r3, -r3, ror #30]!
 aa8:	7261752d 	rsbvc	r7, r1, #188743680	; 0xb400000
 aac:	00632e74 	rsbeq	r2, r3, r4, ror lr
 ab0:	72616863 	rsbvc	r6, r1, #6488064	; 0x630000
 ab4:	006e695f 	rsbeq	r6, lr, pc, asr r9
 ab8:	755f7773 	ldrbvc	r7, [pc, #-1907]	; 34d <_start-0x7cb3>
 abc:	5f747261 	svcpl	0x00747261
 ac0:	73746567 	cmnvc	r4, #432013312	; 0x19c00000
 ac4:	6d69745f 	cfstrdvs	mvd7, [r9, #-380]!	; 0xfffffe84
 ac8:	74756f65 	ldrbtvc	r6, [r5], #-3941	; 0xf65
 acc:	756f5f00 	strbvc	r5, [pc, #-3840]!	; fffffbd4 <__bss_end__+0xffff12dc>
 ad0:	626e0074 	rsbvs	r0, lr, #116	; 0x74
 ad4:	73657479 	cmnvc	r5, #2030043136	; 0x79000000
 ad8:	65737500 	ldrbvs	r7, [r3, #-1280]!	; 0x500
 adc:	69745f63 	ldmdbvs	r4!, {r0, r1, r5, r6, r8, r9, sl, fp, ip, lr}^
 ae0:	756f656d 	strbvc	r6, [pc, #-1389]!	; 57b <_start-0x7a85>
 ae4:	77730074 			; <UNDEFINED> instruction: 0x77730074
 ae8:	7261755f 	rsbvc	r7, r1, #398458880	; 0x17c00000
 aec:	65675f74 	strbvs	r5, [r7, #-3956]!	; 0xf74
 af0:	755f7374 	ldrbvc	r7, [pc, #-884]	; 784 <_start-0x787c>
 af4:	6c69746e 	cfstrdvs	mvd7, [r9], #-440	; 0xfffffe48
 af8:	6b6c625f 	blvs	1b1947c <__bss_end__+0x1b0ab84>
 afc:	69617700 	stmdbvs	r1!, {r8, r9, sl, ip, sp, lr}^
 b00:	6e755f74 	mrcvs	15, 3, r5, cr5, cr4, {3}
 b04:	5f6c6974 	svcpl	0x006c6974
 b08:	63657375 	cmnvs	r5, #-738197503	; 0xd4000001
 b0c:	72617500 	rsbvc	r7, r1, #0, 10
 b10:	61685f74 	smcvs	34292	; 0x85f4
 b14:	61645f73 	smcvs	17907	; 0x45f3
 b18:	75006174 	strvc	r6, [r0, #-372]	; 0x174
 b1c:	5f747261 	svcpl	0x00747261
 b20:	74696e69 	strbtvc	r6, [r9], #-3689	; 0xe69
 b24:	2d796d00 	ldclcs	13, cr6, [r9, #-0]
 b28:	2f637273 	svccs	0x00637273
 b2c:	74726175 	ldrbtvc	r6, [r2], #-373	; 0x175
 b30:	7500632e 	strvc	r6, [r0, #-814]	; 0x32e
 b34:	5f747261 	svcpl	0x00747261
 b38:	63746567 	cmnvs	r4, #432013312	; 0x19c00000
 b3c:	7973615f 	ldmdbvc	r3!, {r0, r1, r2, r3, r4, r6, r8, sp, lr}^
 b40:	7000636e 	andvc	r6, r0, lr, ror #6
 b44:	65666572 	strbvs	r6, [r6, #-1394]!	; 0x572
 b48:	5f686374 	svcpl	0x00686374
 b4c:	726f6261 	rsbvc	r6, pc, #268435462	; 0x10000006
 b50:	65765f74 	ldrbvs	r5, [r6, #-3956]!	; 0xf74
 b54:	726f7463 	rsbvc	r7, pc, #1660944384	; 0x63000000
 b58:	73694400 	cmnvc	r9, #0, 8
 b5c:	656c6261 	strbvs	r6, [ip, #-609]!	; 0x261
 b60:	7361425f 	cmnvc	r1, #-268435451	; 0xf0000005
 b64:	495f6369 	ldmdbmi	pc, {r0, r3, r5, r6, r8, r9, sp, lr}^	; <UNPREDICTABLE>
 b68:	00735152 	rsbseq	r5, r3, r2, asr r1
 b6c:	5f514946 	svcpl	0x00514946
 b70:	746e6f63 	strbtvc	r6, [lr], #-3939	; 0xf63
 b74:	006c6f72 	rsbeq	r6, ip, r2, ror pc
 b78:	746e695f 	strbtvc	r6, [lr], #-2399	; 0x95f
 b7c:	75727265 	ldrbvc	r7, [r2, #-613]!	; 0x265
 b80:	745f7470 	ldrbvc	r7, [pc], #-1136	; b88 <_start-0x7478>
 b84:	656c6261 	strbvs	r6, [ip, #-609]!	; 0x261
 b88:	51524900 	cmppl	r2, r0, lsl #18
 b8c:	7361625f 	cmnvc	r1, #-268435451	; 0xf0000005
 b90:	705f6369 	subsvc	r6, pc, r9, ror #6
 b94:	69646e65 	stmdbvs	r4!, {r0, r2, r5, r6, r9, sl, fp, sp, lr}^
 b98:	4500676e 	strmi	r6, [r0, #-1902]	; 0x76e
 b9c:	6c62616e 	stfvse	f6, [r2], #-440	; 0xfffffe48
 ba0:	61425f65 	cmpvs	r2, r5, ror #30
 ba4:	5f636973 	svcpl	0x00636973
 ba8:	73515249 	cmpvc	r1, #-1879048188	; 0x90000004
 bac:	616e4500 	cmnvs	lr, r0, lsl #10
 bb0:	5f656c62 	svcpl	0x00656c62
 bb4:	73515249 	cmpvc	r1, #-1879048188	; 0x90000004
 bb8:	4500315f 	strmi	r3, [r0, #-351]	; 0x15f
 bbc:	6c62616e 	stfvse	f6, [r2], #-440	; 0xfffffe48
 bc0:	52495f65 	subpl	r5, r9, #404	; 0x194
 bc4:	325f7351 	subscc	r7, pc, #1140850689	; 0x44000001
 bc8:	6e695f00 	cdpvs	15, 6, cr5, cr9, cr0, {0}
 bcc:	72726574 	rsbsvc	r6, r2, #116, 10	; 0x1d000000
 bd0:	5f747075 	svcpl	0x00747075
 bd4:	6c626174 	stfvse	f6, [r2], #-464	; 0xfffffe30
 bd8:	6e655f65 	cdpvs	15, 6, cr5, cr5, cr5, {3}
 bdc:	61640064 	cmnvs	r4, r4, rrx
 be0:	615f6174 	cmpvs	pc, r4, ror r1	; <UNPREDICTABLE>
 be4:	74726f62 	ldrbtvc	r6, [r2], #-3938	; 0xf62
 be8:	6365765f 	cmnvs	r5, #99614720	; 0x5f00000
 bec:	00726f74 	rsbseq	r6, r2, r4, ror pc
 bf0:	5f515249 	svcpl	0x00515249
 bf4:	646e6570 	strbtvs	r6, [lr], #-1392	; 0x570
 bf8:	5f676e69 	svcpl	0x00676e69
 bfc:	73630032 	cmnvc	r3, #50	; 0x32
 c00:	65303431 	ldrvs	r3, [r0, #-1073]!	; 0x431
 c04:	746e692d 	strbtvc	r6, [lr], #-2349	; 0x92d
 c08:	75727265 	ldrbvc	r7, [r2, #-613]!	; 0x265
 c0c:	692f7470 	stmdbvs	pc!, {r4, r5, r6, sl, ip, sp, lr}	; <UNPREDICTABLE>
 c10:	7265746e 	rsbvc	r7, r5, #1845493760	; 0x6e000000
 c14:	74707572 	ldrbtvc	r7, [r0], #-1394	; 0x572
 c18:	2e632d73 	mcrcs	13, 3, r2, cr3, cr3, {3}
 c1c:	52490063 	subpl	r0, r9, #99	; 0x63
 c20:	65705f51 	ldrbvs	r5, [r0, #-3921]!	; 0xf51
 c24:	6e69646e 	cdpvs	4, 6, cr6, cr9, cr14, {3}
 c28:	00315f67 	eorseq	r5, r1, r7, ror #30
 c2c:	65646e75 	strbvs	r6, [r4, #-3701]!	; 0xe75
 c30:	656e6966 	strbvs	r6, [lr, #-2406]!	; 0x966
 c34:	6e695f64 	cdpvs	15, 6, cr5, cr9, cr4, {3}
 c38:	75727473 	ldrbvc	r7, [r2, #-1139]!	; 0x473
 c3c:	6f697463 	svcvs	0x00697463
 c40:	65765f6e 	ldrbvs	r5, [r6, #-3950]!	; 0xf6e
 c44:	726f7463 	rsbvc	r7, pc, #1660944384	; 0x63000000
 c48:	73657200 	cmnvc	r5, #0, 4
 c4c:	765f7465 	ldrbvc	r7, [pc], -r5, ror #8
 c50:	6f746365 	svcvs	0x00746365
 c54:	6f730072 	svcvs	0x00730072
 c58:	61777466 	cmnvs	r7, r6, ror #8
 c5c:	695f6572 	ldmdbvs	pc, {r1, r4, r5, r6, r8, sl, sp, lr}^	; <UNPREDICTABLE>
 c60:	7265746e 	rsbvc	r7, r5, #1845493760	; 0x6e000000
 c64:	74707572 	ldrbtvc	r7, [r0], #-1394	; 0x572
 c68:	6365765f 	cmnvs	r5, #99614720	; 0x5f00000
 c6c:	00726f74 	rsbseq	r6, r2, r4, ror pc
 c70:	61736944 	cmnvs	r3, r4, asr #18
 c74:	5f656c62 	svcpl	0x00656c62
 c78:	73515249 	cmpvc	r1, #-1879048188	; 0x90000004
 c7c:	4400315f 	strmi	r3, [r0], #-351	; 0x15f
 c80:	62617369 	rsbvs	r7, r1, #-1543503871	; 0xa4000001
 c84:	495f656c 	ldmdbmi	pc, {r2, r3, r5, r6, r8, sl, sp, lr}^	; <UNPREDICTABLE>
 c88:	5f735152 	svcpl	0x00735152
 c8c:	61660032 	cmnvs	r6, r2, lsr r0
 c90:	695f7473 	ldmdbvs	pc, {r0, r1, r4, r5, r6, sl, ip, sp, lr}^	; <UNPREDICTABLE>
 c94:	7265746e 	rsbvc	r7, r5, #1845493760	; 0x6e000000
 c98:	74707572 	ldrbtvc	r7, [r0], #-1394	; 0x572
 c9c:	6365765f 	cmnvs	r5, #99614720	; 0x5f00000
 ca0:	00726f74 	rsbseq	r6, r2, r4, ror pc
 ca4:	5f515249 	svcpl	0x00515249
 ca8:	65736142 	ldrbvs	r6, [r3, #-322]!	; 0x142
 cac:	5f626300 	svcpl	0x00626300
 cb0:	0077656e 	rsbseq	r6, r7, lr, ror #10
 cb4:	34317363 	ldrtcc	r7, [r1], #-867	; 0x363
 cb8:	732d6530 	teqvc	sp, #48, 10	; 0xc000000
 cbc:	632f6372 	teqvs	pc, #-939524095	; 0xc8000001
 cc0:	72746e6f 	rsbsvc	r6, r4, #1776	; 0x6f0
 cc4:	622d6c6f 	eorvs	r6, sp, #28416	; 0x6f00
 cc8:	6b636f6c 	blvs	18dca80 <__bss_end__+0x18ce188>
 ccc:	Address 0x0000000000000ccc is out of bounds.


Disassembly of section .debug_frame:

00000000 <.debug_frame>:
   0:	0000000c 	andeq	r0, r0, ip
   4:	ffffffff 			; <UNDEFINED> instruction: 0xffffffff
   8:	7c020001 	stcvc	0, cr0, [r2], {1}
   c:	000d0c0e 	andeq	r0, sp, lr, lsl #24
  10:	00000018 	andeq	r0, r0, r8, lsl r0
  14:	00000000 	andeq	r0, r0, r0
  18:	00008010 	andeq	r8, r0, r0, lsl r0
  1c:	000001b4 			; <UNDEFINED> instruction: 0x000001b4
  20:	83100e42 	tsthi	r0, #1056	; 0x420
  24:	85038404 	strhi	r8, [r3, #-1028]	; 0x404
  28:	00018e02 	andeq	r8, r1, r2, lsl #28
  2c:	0000000c 	andeq	r0, r0, ip
  30:	00000000 	andeq	r0, r0, r0
  34:	000081c4 	andeq	r8, r0, r4, asr #3
  38:	00000028 	andeq	r0, r0, r8, lsr #32
  3c:	00000014 	andeq	r0, r0, r4, lsl r0
  40:	00000000 	andeq	r0, r0, r0
  44:	000081ec 	andeq	r8, r0, ip, ror #3
  48:	00000054 	andeq	r0, r0, r4, asr r0
  4c:	84080e42 	strhi	r0, [r8], #-3650	; 0xe42
  50:	00018e02 	andeq	r8, r1, r2, lsl #28
  54:	0000001c 	andeq	r0, r0, ip, lsl r0
  58:	00000000 	andeq	r0, r0, r0
  5c:	00008240 	andeq	r8, r0, r0, asr #4
  60:	00000148 	andeq	r0, r0, r8, asr #2
  64:	84180e42 	ldrhi	r0, [r8], #-3650	; 0xe42
  68:	86058506 	strhi	r8, [r5], -r6, lsl #10
  6c:	88038704 	stmdahi	r3, {r2, r8, r9, sl, pc}
  70:	00018e02 	andeq	r8, r1, r2, lsl #28
  74:	00000020 	andeq	r0, r0, r0, lsr #32
  78:	00000000 	andeq	r0, r0, r0
  7c:	00008388 	andeq	r8, r0, r8, lsl #7
  80:	000000e0 	andeq	r0, r0, r0, ror #1
  84:	83200e42 	teqhi	r0, #1056	; 0x420
  88:	85078408 	strhi	r8, [r7, #-1032]	; 0x408
  8c:	87058606 	strhi	r8, [r5, -r6, lsl #12]
  90:	89038804 	stmdbhi	r3, {r2, fp, pc}
  94:	00018e02 	andeq	r8, r1, r2, lsl #28
  98:	0000000c 	andeq	r0, r0, ip
  9c:	00000000 	andeq	r0, r0, r0
  a0:	00008468 	andeq	r8, r0, r8, ror #8
  a4:	00000078 	andeq	r0, r0, r8, ror r0
  a8:	00000014 	andeq	r0, r0, r4, lsl r0
  ac:	00000000 	andeq	r0, r0, r0
  b0:	000084e0 	andeq	r8, r0, r0, ror #9
  b4:	00000024 	andeq	r0, r0, r4, lsr #32
  b8:	84080e42 	strhi	r0, [r8], #-3650	; 0xe42
  bc:	00018e02 	andeq	r8, r1, r2, lsl #28
  c0:	00000014 	andeq	r0, r0, r4, lsl r0
  c4:	00000000 	andeq	r0, r0, r0
  c8:	00008504 	andeq	r8, r0, r4, lsl #10
  cc:	000000bc 	strheq	r0, [r0], -ip
  d0:	84080e42 	strhi	r0, [r8], #-3650	; 0xe42
  d4:	00018e02 	andeq	r8, r1, r2, lsl #28
  d8:	0000001c 	andeq	r0, r0, ip, lsl r0
  dc:	00000000 	andeq	r0, r0, r0
  e0:	000085c0 	andeq	r8, r0, r0, asr #11
  e4:	000000e4 	andeq	r0, r0, r4, ror #1
  e8:	84100e42 	ldrhi	r0, [r0], #-3650	; 0xe42
  ec:	86038504 	strhi	r8, [r3], -r4, lsl #10
  f0:	42018e02 	andmi	r8, r1, #2, 28
  f4:	0000280e 	andeq	r2, r0, lr, lsl #16
  f8:	0000000c 	andeq	r0, r0, ip
  fc:	ffffffff 			; <UNDEFINED> instruction: 0xffffffff
 100:	7c020001 	stcvc	0, cr0, [r2], {1}
 104:	000d0c0e 	andeq	r0, sp, lr, lsl #24
 108:	0000000c 	andeq	r0, r0, ip
 10c:	000000f8 	strdeq	r0, [r0], -r8
 110:	000086a4 	andeq	r8, r0, r4, lsr #13
 114:	00000020 	andeq	r0, r0, r0, lsr #32
 118:	0000000c 	andeq	r0, r0, ip
 11c:	ffffffff 			; <UNDEFINED> instruction: 0xffffffff
 120:	7c020001 	stcvc	0, cr0, [r2], {1}
 124:	000d0c0e 	andeq	r0, sp, lr, lsl #24
 128:	00000024 	andeq	r0, r0, r4, lsr #32
 12c:	00000118 	andeq	r0, r0, r8, lsl r1
 130:	000086c4 	andeq	r8, r0, r4, asr #13
 134:	00000058 	andeq	r0, r0, r8, asr r0
 138:	80100e42 	andshi	r0, r0, r2, asr #28
 13c:	82038104 	andhi	r8, r3, #4, 2
 140:	42018302 	andmi	r8, r1, #134217728	; 0x8000000
 144:	07841c0e 	streq	r1, [r4, lr, lsl #24]
 148:	058e0685 	streq	r0, [lr, #1669]	; 0x685
 14c:	00280e42 	eoreq	r0, r8, r2, asr #28
 150:	0000000c 	andeq	r0, r0, ip
 154:	ffffffff 			; <UNDEFINED> instruction: 0xffffffff
 158:	7c020001 	stcvc	0, cr0, [r2], {1}
 15c:	000d0c0e 	andeq	r0, sp, lr, lsl #24
 160:	00000014 	andeq	r0, r0, r4, lsl r0
 164:	00000150 	andeq	r0, r0, r0, asr r1
 168:	0000871c 	andeq	r8, r0, ip, lsl r7
 16c:	00000014 	andeq	r0, r0, r4, lsl r0
 170:	84080e42 	strhi	r0, [r8], #-3650	; 0xe42
 174:	00018e02 	andeq	r8, r1, r2, lsl #28
 178:	0000000c 	andeq	r0, r0, ip
 17c:	00000150 	andeq	r0, r0, r0, asr r1
 180:	00008730 	andeq	r8, r0, r0, lsr r7
 184:	00000018 	andeq	r0, r0, r8, lsl r0
 188:	0000000c 	andeq	r0, r0, ip
 18c:	00000150 	andeq	r0, r0, r0, asr r1
 190:	00008748 	andeq	r8, r0, r8, asr #14
 194:	00000010 	andeq	r0, r0, r0, lsl r0
 198:	0000000c 	andeq	r0, r0, ip
 19c:	ffffffff 			; <UNDEFINED> instruction: 0xffffffff
 1a0:	7c020001 	stcvc	0, cr0, [r2], {1}
 1a4:	000d0c0e 	andeq	r0, sp, lr, lsl #24
 1a8:	00000018 	andeq	r0, r0, r8, lsl r0
 1ac:	00000198 	muleq	r0, r8, r1
 1b0:	00008758 	andeq	r8, r0, r8, asr r7
 1b4:	00000034 	andeq	r0, r0, r4, lsr r0
 1b8:	83100e42 	tsthi	r0, #1056	; 0x420
 1bc:	85038404 	strhi	r8, [r3, #-1028]	; 0x404
 1c0:	00018e02 	andeq	r8, r1, r2, lsl #28
 1c4:	0000000c 	andeq	r0, r0, ip
 1c8:	ffffffff 			; <UNDEFINED> instruction: 0xffffffff
 1cc:	7c020001 	stcvc	0, cr0, [r2], {1}
 1d0:	000d0c0e 	andeq	r0, sp, lr, lsl #24
 1d4:	0000000c 	andeq	r0, r0, ip
 1d8:	000001c4 	andeq	r0, r0, r4, asr #3
 1dc:	0000878c 	andeq	r8, r0, ip, lsl #15
 1e0:	00000014 	andeq	r0, r0, r4, lsl r0
 1e4:	0000000c 	andeq	r0, r0, ip
 1e8:	000001c4 	andeq	r0, r0, r4, asr #3
 1ec:	000087a0 	andeq	r8, r0, r0, lsr #15
 1f0:	0000002c 	andeq	r0, r0, ip, lsr #32
 1f4:	0000000c 	andeq	r0, r0, ip
 1f8:	000001c4 	andeq	r0, r0, r4, asr #3
 1fc:	000087cc 	andeq	r8, r0, ip, asr #15
 200:	00000040 	andeq	r0, r0, r0, asr #32
 204:	00000020 	andeq	r0, r0, r0, lsr #32
 208:	000001c4 	andeq	r0, r0, r4, asr #3
 20c:	0000880c 	andeq	r8, r0, ip, lsl #16
 210:	0000019c 	muleq	r0, ip, r1
 214:	84180e42 	ldrhi	r0, [r8], #-3650	; 0xe42
 218:	86058506 	strhi	r8, [r5], -r6, lsl #10
 21c:	88038704 	stmdahi	r3, {r2, r8, r9, sl, pc}
 220:	42018e02 	andmi	r8, r1, #2, 28
 224:	0000580e 	andeq	r5, r0, lr, lsl #16
 228:	00000014 	andeq	r0, r0, r4, lsl r0
 22c:	000001c4 	andeq	r0, r0, r4, asr #3
 230:	000089a8 	andeq	r8, r0, r8, lsr #19
 234:	00000054 	andeq	r0, r0, r4, asr r0
 238:	83080e42 	movwhi	r0, #36418	; 0x8e42
 23c:	00018e02 	andeq	r8, r1, r2, lsl #28
 240:	00000028 	andeq	r0, r0, r8, lsr #32
 244:	000001c4 	andeq	r0, r0, r4, asr #3
 248:	000089fc 	strdeq	r8, [r0], -ip
 24c:	00000288 	andeq	r0, r0, r8, lsl #5
 250:	84240e42 	strthi	r0, [r4], #-3650	; 0xe42
 254:	86088509 	strhi	r8, [r8], -r9, lsl #10
 258:	88068707 	stmdahi	r6, {r0, r1, r2, r8, r9, sl, pc}
 25c:	8a048905 	bhi	122678 <__bss_end__+0x113d80>
 260:	8e028b03 	vmlahi.f64	d8, d2, d3
 264:	b00e4201 	andlt	r4, lr, r1, lsl #4
 268:	00000001 	andeq	r0, r0, r1
 26c:	0000000c 	andeq	r0, r0, ip
 270:	ffffffff 			; <UNDEFINED> instruction: 0xffffffff
 274:	7c020001 	stcvc	0, cr0, [r2], {1}
 278:	000d0c0e 	andeq	r0, sp, lr, lsl #24
 27c:	00000014 	andeq	r0, r0, r4, lsl r0
 280:	0000026c 	andeq	r0, r0, ip, ror #4
 284:	00008c84 	andeq	r8, r0, r4, lsl #25
 288:	00000028 	andeq	r0, r0, r8, lsr #32
 28c:	83080e42 	movwhi	r0, #36418	; 0x8e42
 290:	00018e02 	andeq	r8, r1, r2, lsl #28
 294:	0000000c 	andeq	r0, r0, ip
 298:	ffffffff 			; <UNDEFINED> instruction: 0xffffffff
 29c:	7c020001 	stcvc	0, cr0, [r2], {1}
 2a0:	000d0c0e 	andeq	r0, sp, lr, lsl #24
 2a4:	00000014 	andeq	r0, r0, r4, lsl r0
 2a8:	00000294 	muleq	r0, r4, r2
 2ac:	00008cac 	andeq	r8, r0, ip, lsr #25
 2b0:	00000020 	andeq	r0, r0, r0, lsr #32
 2b4:	84080e42 	strhi	r0, [r8], #-3650	; 0xe42
 2b8:	00018e02 	andeq	r8, r1, r2, lsl #28
 2bc:	00000014 	andeq	r0, r0, r4, lsl r0
 2c0:	00000294 	muleq	r0, r4, r2
 2c4:	00008ccc 	andeq	r8, r0, ip, asr #25
 2c8:	00000090 	muleq	r0, r0, r0
 2cc:	83080e42 	movwhi	r0, #36418	; 0x8e42
 2d0:	00018e02 	andeq	r8, r1, r2, lsl #28
 2d4:	0000000c 	andeq	r0, r0, ip
 2d8:	ffffffff 			; <UNDEFINED> instruction: 0xffffffff
 2dc:	7c020001 	stcvc	0, cr0, [r2], {1}
 2e0:	000d0c0e 	andeq	r0, sp, lr, lsl #24
 2e4:	0000000c 	andeq	r0, r0, ip
 2e8:	000002d4 	ldrdeq	r0, [r0], -r4
 2ec:	00008d5c 	andeq	r8, r0, ip, asr sp
 2f0:	00000018 	andeq	r0, r0, r8, lsl r0
 2f4:	0000000c 	andeq	r0, r0, ip
 2f8:	000002d4 	ldrdeq	r0, [r0], -r4
 2fc:	00008d74 	andeq	r8, r0, r4, ror sp
 300:	00000014 	andeq	r0, r0, r4, lsl r0
 304:	00000014 	andeq	r0, r0, r4, lsl r0
 308:	000002d4 	ldrdeq	r0, [r0], -r4
 30c:	00008d88 	andeq	r8, r0, r8, lsl #27
 310:	00000048 	andeq	r0, r0, r8, asr #32
 314:	83080e42 	movwhi	r0, #36418	; 0x8e42
 318:	00018e02 	andeq	r8, r1, r2, lsl #28
 31c:	0000000c 	andeq	r0, r0, ip
 320:	ffffffff 			; <UNDEFINED> instruction: 0xffffffff
 324:	7c020001 	stcvc	0, cr0, [r2], {1}
 328:	000d0c0e 	andeq	r0, sp, lr, lsl #24
 32c:	0000000c 	andeq	r0, r0, ip
 330:	0000031c 	andeq	r0, r0, ip, lsl r3
 334:	00008dd0 	ldrdeq	r8, [r0], -r0
 338:	0000001c 	andeq	r0, r0, ip, lsl r0
 33c:	00000014 	andeq	r0, r0, r4, lsl r0
 340:	0000031c 	andeq	r0, r0, ip, lsl r3
 344:	00008dec 	andeq	r8, r0, ip, ror #27
 348:	00000014 	andeq	r0, r0, r4, lsl r0
 34c:	83080e42 	movwhi	r0, #36418	; 0x8e42
 350:	00018e02 	andeq	r8, r1, r2, lsl #28
 354:	00000014 	andeq	r0, r0, r4, lsl r0
 358:	0000031c 	andeq	r0, r0, ip, lsl r3
 35c:	00008e00 	andeq	r8, r0, r0, lsl #28
 360:	0000000c 	andeq	r0, r0, ip
 364:	83080e42 	movwhi	r0, #36418	; 0x8e42
 368:	00018e02 	andeq	r8, r1, r2, lsl #28
 36c:	00000018 	andeq	r0, r0, r8, lsl r0
 370:	0000031c 	andeq	r0, r0, ip, lsl r3
 374:	00008e0c 	andeq	r8, r0, ip, lsl #28
 378:	00000024 	andeq	r0, r0, r4, lsr #32
 37c:	83100e42 	tsthi	r0, #1056	; 0x420
 380:	85038404 	strhi	r8, [r3, #-1028]	; 0x404
 384:	00018e02 	andeq	r8, r1, r2, lsl #28
 388:	00000014 	andeq	r0, r0, r4, lsl r0
 38c:	0000031c 	andeq	r0, r0, ip, lsl r3
 390:	00008e30 	andeq	r8, r0, r0, lsr lr
 394:	00000014 	andeq	r0, r0, r4, lsl r0
 398:	83080e42 	movwhi	r0, #36418	; 0x8e42
 39c:	00018e02 	andeq	r8, r1, r2, lsl #28
 3a0:	00000014 	andeq	r0, r0, r4, lsl r0
 3a4:	0000031c 	andeq	r0, r0, ip, lsl r3
 3a8:	00008e44 	andeq	r8, r0, r4, asr #28
 3ac:	00000014 	andeq	r0, r0, r4, lsl r0
 3b0:	83080e42 	movwhi	r0, #36418	; 0x8e42
 3b4:	00018e02 	andeq	r8, r1, r2, lsl #28
 3b8:	0000000c 	andeq	r0, r0, ip
 3bc:	ffffffff 			; <UNDEFINED> instruction: 0xffffffff
 3c0:	7c020001 	stcvc	0, cr0, [r2], {1}
 3c4:	000d0c0e 	andeq	r0, sp, lr, lsl #24
 3c8:	00000018 	andeq	r0, r0, r8, lsl r0
 3cc:	000003b8 			; <UNDEFINED> instruction: 0x000003b8
 3d0:	00008e58 	andeq	r8, r0, r8, asr lr
 3d4:	000000d4 	ldrdeq	r0, [r0], -r4
 3d8:	83100e42 	tsthi	r0, #1056	; 0x420
 3dc:	85038404 	strhi	r8, [r3, #-1028]	; 0x404
 3e0:	00018e02 	andeq	r8, r1, r2, lsl #28
 3e4:	00000014 	andeq	r0, r0, r4, lsl r0
 3e8:	000003b8 			; <UNDEFINED> instruction: 0x000003b8
 3ec:	00008f2c 	andeq	r8, r0, ip, lsr #30
 3f0:	00000038 	andeq	r0, r0, r8, lsr r0
 3f4:	83080e42 	movwhi	r0, #36418	; 0x8e42
 3f8:	00018e02 	andeq	r8, r1, r2, lsl #28
 3fc:	00000014 	andeq	r0, r0, r4, lsl r0
 400:	000003b8 			; <UNDEFINED> instruction: 0x000003b8
 404:	00008f64 	andeq	r8, r0, r4, ror #30
 408:	00000038 	andeq	r0, r0, r8, lsr r0
 40c:	83080e42 	movwhi	r0, #36418	; 0x8e42
 410:	00018e02 	andeq	r8, r1, r2, lsl #28
 414:	00000018 	andeq	r0, r0, r8, lsl r0
 418:	000003b8 			; <UNDEFINED> instruction: 0x000003b8
 41c:	00008f9c 	muleq	r0, ip, pc	; <UNPREDICTABLE>
 420:	000000cc 	andeq	r0, r0, ip, asr #1
 424:	83100e42 	tsthi	r0, #1056	; 0x420
 428:	85038404 	strhi	r8, [r3, #-1028]	; 0x404
 42c:	00018e02 	andeq	r8, r1, r2, lsl #28
 430:	00000014 	andeq	r0, r0, r4, lsl r0
 434:	000003b8 			; <UNDEFINED> instruction: 0x000003b8
 438:	00009068 	andeq	r9, r0, r8, rrx
 43c:	0000004c 	andeq	r0, r0, ip, asr #32
 440:	84080e42 	strhi	r0, [r8], #-3650	; 0xe42
 444:	00018e02 	andeq	r8, r1, r2, lsl #28
 448:	00000014 	andeq	r0, r0, r4, lsl r0
 44c:	000003b8 			; <UNDEFINED> instruction: 0x000003b8
 450:	000090b4 	strheq	r9, [r0], -r4
 454:	00000078 	andeq	r0, r0, r8, ror r0
 458:	83080e42 	movwhi	r0, #36418	; 0x8e42
 45c:	00018e02 	andeq	r8, r1, r2, lsl #28
 460:	00000018 	andeq	r0, r0, r8, lsl r0
 464:	000003b8 			; <UNDEFINED> instruction: 0x000003b8
 468:	0000912c 	andeq	r9, r0, ip, lsr #2
 46c:	000000d8 	ldrdeq	r0, [r0], -r8
 470:	84100e42 	ldrhi	r0, [r0], #-3650	; 0xe42
 474:	86038504 	strhi	r8, [r3], -r4, lsl #10
 478:	00018e02 	andeq	r8, r1, r2, lsl #28
 47c:	00000014 	andeq	r0, r0, r4, lsl r0
 480:	000003b8 			; <UNDEFINED> instruction: 0x000003b8
 484:	00009204 	andeq	r9, r0, r4, lsl #4
 488:	0000002c 	andeq	r0, r0, ip, lsr #32
 48c:	83080e42 	movwhi	r0, #36418	; 0x8e42
 490:	00018e02 	andeq	r8, r1, r2, lsl #28
 494:	00000018 	andeq	r0, r0, r8, lsl r0
 498:	000003b8 			; <UNDEFINED> instruction: 0x000003b8
 49c:	00009230 	andeq	r9, r0, r0, lsr r2
 4a0:	00000084 	andeq	r0, r0, r4, lsl #1
 4a4:	83100e42 	tsthi	r0, #1056	; 0x420
 4a8:	85038404 	strhi	r8, [r3, #-1028]	; 0x404
 4ac:	00018e02 	andeq	r8, r1, r2, lsl #28
 4b0:	00000018 	andeq	r0, r0, r8, lsl r0
 4b4:	000003b8 			; <UNDEFINED> instruction: 0x000003b8
 4b8:	000092b4 			; <UNDEFINED> instruction: 0x000092b4
 4bc:	00000084 	andeq	r0, r0, r4, lsl #1
 4c0:	83100e42 	tsthi	r0, #1056	; 0x420
 4c4:	85038404 	strhi	r8, [r3, #-1028]	; 0x404
 4c8:	00018e02 	andeq	r8, r1, r2, lsl #28
 4cc:	00000014 	andeq	r0, r0, r4, lsl r0
 4d0:	000003b8 			; <UNDEFINED> instruction: 0x000003b8
 4d4:	00009338 	andeq	r9, r0, r8, lsr r3
 4d8:	00000084 	andeq	r0, r0, r4, lsl #1
 4dc:	84080e42 	strhi	r0, [r8], #-3650	; 0xe42
 4e0:	00018e02 	andeq	r8, r1, r2, lsl #28
 4e4:	00000014 	andeq	r0, r0, r4, lsl r0
 4e8:	000003b8 			; <UNDEFINED> instruction: 0x000003b8
 4ec:	000093bc 			; <UNDEFINED> instruction: 0x000093bc
 4f0:	00000058 	andeq	r0, r0, r8, asr r0
 4f4:	84080e42 	strhi	r0, [r8], #-3650	; 0xe42
 4f8:	00018e02 	andeq	r8, r1, r2, lsl #28
 4fc:	0000000c 	andeq	r0, r0, ip
 500:	ffffffff 			; <UNDEFINED> instruction: 0xffffffff
 504:	7c020001 	stcvc	0, cr0, [r2], {1}
 508:	000d0c0e 	andeq	r0, sp, lr, lsl #24
 50c:	0000001c 	andeq	r0, r0, ip, lsl r0
 510:	000004fc 	strdeq	r0, [r0], -ip
 514:	00009414 	andeq	r9, r0, r4, lsl r4
 518:	00000154 	andeq	r0, r0, r4, asr r1
 51c:	84180e42 	ldrhi	r0, [r8], #-3650	; 0xe42
 520:	86058506 	strhi	r8, [r5], -r6, lsl #10
 524:	88038704 	stmdahi	r3, {r2, r8, r9, sl, pc}
 528:	00018e02 	andeq	r8, r1, r2, lsl #28
 52c:	00000020 	andeq	r0, r0, r0, lsr #32
 530:	000004fc 	strdeq	r0, [r0], -ip
 534:	00009568 	andeq	r9, r0, r8, ror #10
 538:	000001c8 	andeq	r0, r0, r8, asr #3
 53c:	83200e42 	teqhi	r0, #1056	; 0x420
 540:	85078408 	strhi	r8, [r7, #-1032]	; 0x408
 544:	87058606 	strhi	r8, [r5, -r6, lsl #12]
 548:	89038804 	stmdbhi	r3, {r2, fp, pc}
 54c:	00018e02 	andeq	r8, r1, r2, lsl #28
 550:	00000020 	andeq	r0, r0, r0, lsr #32
 554:	000004fc 	strdeq	r0, [r0], -ip
 558:	00009730 	andeq	r9, r0, r0, lsr r7
 55c:	00000090 	muleq	r0, r0, r0
 560:	84200e42 	strthi	r0, [r0], #-3650	; 0xe42
 564:	86078508 	strhi	r8, [r7], -r8, lsl #10
 568:	88058706 	stmdahi	r5, {r1, r2, r8, r9, sl, pc}
 56c:	8a038904 	bhi	e2984 <__bss_end__+0xd408c>
 570:	00018e02 	andeq	r8, r1, r2, lsl #28
 574:	0000001c 	andeq	r0, r0, ip, lsl r0
 578:	000004fc 	strdeq	r0, [r0], -ip
 57c:	000097c0 	andeq	r9, r0, r0, asr #15
 580:	0000007c 	andeq	r0, r0, ip, ror r0
 584:	84180e42 	ldrhi	r0, [r8], #-3650	; 0xe42
 588:	86058506 	strhi	r8, [r5], -r6, lsl #10
 58c:	88038704 	stmdahi	r3, {r2, r8, r9, sl, pc}
 590:	00018e02 	andeq	r8, r1, r2, lsl #28
 594:	0000001c 	andeq	r0, r0, ip, lsl r0
 598:	000004fc 	strdeq	r0, [r0], -ip
 59c:	0000983c 	andeq	r9, r0, ip, lsr r8
 5a0:	000000c0 	andeq	r0, r0, r0, asr #1
 5a4:	84180e42 	ldrhi	r0, [r8], #-3650	; 0xe42
 5a8:	86058506 	strhi	r8, [r5], -r6, lsl #10
 5ac:	88038704 	stmdahi	r3, {r2, r8, r9, sl, pc}
 5b0:	00018e02 	andeq	r8, r1, r2, lsl #28
 5b4:	00000014 	andeq	r0, r0, r4, lsl r0
 5b8:	000004fc 	strdeq	r0, [r0], -ip
 5bc:	000098fc 	strdeq	r9, [r0], -ip
 5c0:	0000003c 	andeq	r0, r0, ip, lsr r0
 5c4:	83080e42 	movwhi	r0, #36418	; 0x8e42
 5c8:	00018e02 	andeq	r8, r1, r2, lsl #28
 5cc:	00000018 	andeq	r0, r0, r8, lsl r0
 5d0:	000004fc 	strdeq	r0, [r0], -ip
 5d4:	00009938 	andeq	r9, r0, r8, lsr r9
 5d8:	0000002c 	andeq	r0, r0, ip, lsr #32
 5dc:	83100e42 	tsthi	r0, #1056	; 0x420
 5e0:	85038404 	strhi	r8, [r3, #-1028]	; 0x404
 5e4:	00018e02 	andeq	r8, r1, r2, lsl #28
 5e8:	00000024 	andeq	r0, r0, r4, lsr #32
 5ec:	000004fc 	strdeq	r0, [r0], -ip
 5f0:	00009964 	andeq	r9, r0, r4, ror #18
 5f4:	00000084 	andeq	r0, r0, r4, lsl #1
 5f8:	810c0e42 	tsthi	ip, r2, asr #28
 5fc:	83028203 	movwhi	r8, #8707	; 0x2203
 600:	180e4201 	stmdane	lr, {r0, r9, lr}
 604:	05850684 	streq	r0, [r5, #1668]	; 0x684
 608:	0e42048e 	cdpeq	4, 4, cr0, cr2, cr14, {4}
 60c:	000003e8 	andeq	r0, r0, r8, ror #7
 610:	00000014 	andeq	r0, r0, r4, lsl r0
 614:	000004fc 	strdeq	r0, [r0], -ip
 618:	000099e8 	andeq	r9, r0, r8, ror #19
 61c:	0000004c 	andeq	r0, r0, ip, asr #32
 620:	8e040e42 	cdphi	14, 0, cr0, cr4, cr2, {2}
 624:	100e4201 	andne	r4, lr, r1, lsl #4
 628:	0000000c 	andeq	r0, r0, ip
 62c:	ffffffff 			; <UNDEFINED> instruction: 0xffffffff
 630:	7c020001 	stcvc	0, cr0, [r2], {1}
 634:	000d0c0e 	andeq	r0, sp, lr, lsl #24
 638:	00000018 	andeq	r0, r0, r8, lsl r0
 63c:	00000628 	andeq	r0, r0, r8, lsr #12
 640:	00009a34 	andeq	r9, r0, r4, lsr sl
 644:	0000009c 	muleq	r0, ip, r0
 648:	83100e42 	tsthi	r0, #1056	; 0x420
 64c:	85038404 	strhi	r8, [r3, #-1028]	; 0x404
 650:	00018e02 	andeq	r8, r1, r2, lsl #28
 654:	00000014 	andeq	r0, r0, r4, lsl r0
 658:	00000628 	andeq	r0, r0, r8, lsr #12
 65c:	00009ad0 	ldrdeq	r9, [r0], -r0
 660:	0000001c 	andeq	r0, r0, ip, lsl r0
 664:	83080e42 	movwhi	r0, #36418	; 0x8e42
 668:	00018e02 	andeq	r8, r1, r2, lsl #28
 66c:	00000014 	andeq	r0, r0, r4, lsl r0
 670:	00000628 	andeq	r0, r0, r8, lsr #12
 674:	00009aec 	andeq	r9, r0, ip, ror #21
 678:	00000028 	andeq	r0, r0, r8, lsr #32
 67c:	83080e42 	movwhi	r0, #36418	; 0x8e42
 680:	00018e02 	andeq	r8, r1, r2, lsl #28
 684:	00000014 	andeq	r0, r0, r4, lsl r0
 688:	00000628 	andeq	r0, r0, r8, lsr #12
 68c:	00009b14 	andeq	r9, r0, r4, lsl fp
 690:	0000001c 	andeq	r0, r0, ip, lsl r0
 694:	83080e42 	movwhi	r0, #36418	; 0x8e42
 698:	00018e02 	andeq	r8, r1, r2, lsl #28
 69c:	00000014 	andeq	r0, r0, r4, lsl r0
 6a0:	00000628 	andeq	r0, r0, r8, lsr #12
 6a4:	00009b30 	andeq	r9, r0, r0, lsr fp
 6a8:	0000002c 	andeq	r0, r0, ip, lsr #32
 6ac:	84080e42 	strhi	r0, [r8], #-3650	; 0xe42
 6b0:	00018e02 	andeq	r8, r1, r2, lsl #28
 6b4:	00000014 	andeq	r0, r0, r4, lsl r0
 6b8:	00000628 	andeq	r0, r0, r8, lsr #12
 6bc:	00009b5c 	andeq	r9, r0, ip, asr fp
 6c0:	0000000c 	andeq	r0, r0, ip
 6c4:	83080e42 	movwhi	r0, #36418	; 0x8e42
 6c8:	00018e02 	andeq	r8, r1, r2, lsl #28
 6cc:	00000014 	andeq	r0, r0, r4, lsl r0
 6d0:	00000628 	andeq	r0, r0, r8, lsr #12
 6d4:	00009b68 	andeq	r9, r0, r8, ror #22
 6d8:	00000020 	andeq	r0, r0, r0, lsr #32
 6dc:	83080e42 	movwhi	r0, #36418	; 0x8e42
 6e0:	00018e02 	andeq	r8, r1, r2, lsl #28
 6e4:	0000000c 	andeq	r0, r0, ip
 6e8:	ffffffff 			; <UNDEFINED> instruction: 0xffffffff
 6ec:	7c020001 	stcvc	0, cr0, [r2], {1}
 6f0:	000d0c0e 	andeq	r0, sp, lr, lsl #24
 6f4:	00000014 	andeq	r0, r0, r4, lsl r0
 6f8:	000006e4 	andeq	r0, r0, r4, ror #13
 6fc:	00009b88 	andeq	r9, r0, r8, lsl #23
 700:	00000068 	andeq	r0, r0, r8, rrx
 704:	83080e42 	movwhi	r0, #36418	; 0x8e42
 708:	00018e02 	andeq	r8, r1, r2, lsl #28
 70c:	00000014 	andeq	r0, r0, r4, lsl r0
 710:	000006e4 	andeq	r0, r0, r4, ror #13
 714:	00009bf0 	strdeq	r9, [r0], -r0
 718:	00000044 	andeq	r0, r0, r4, asr #32
 71c:	8e040e42 	cdphi	14, 0, cr0, cr4, cr2, {2}
 720:	100e4201 	andne	r4, lr, r1, lsl #4
 724:	00000014 	andeq	r0, r0, r4, lsl r0
 728:	000006e4 	andeq	r0, r0, r4, ror #13
 72c:	00009c34 	andeq	r9, r0, r4, lsr ip
 730:	00000044 	andeq	r0, r0, r4, asr #32
 734:	8e040e42 	cdphi	14, 0, cr0, cr4, cr2, {2}
 738:	100e4201 	andne	r4, lr, r1, lsl #4
 73c:	00000014 	andeq	r0, r0, r4, lsl r0
 740:	000006e4 	andeq	r0, r0, r4, ror #13
 744:	00009c78 	andeq	r9, r0, r8, ror ip
 748:	00000044 	andeq	r0, r0, r4, asr #32
 74c:	8e040e42 	cdphi	14, 0, cr0, cr4, cr2, {2}
 750:	100e4201 	andne	r4, lr, r1, lsl #4
 754:	00000014 	andeq	r0, r0, r4, lsl r0
 758:	000006e4 	andeq	r0, r0, r4, ror #13
 75c:	00009cbc 			; <UNDEFINED> instruction: 0x00009cbc
 760:	00000044 	andeq	r0, r0, r4, asr #32
 764:	8e040e42 	cdphi	14, 0, cr0, cr4, cr2, {2}
 768:	100e4201 	andne	r4, lr, r1, lsl #4
 76c:	00000014 	andeq	r0, r0, r4, lsl r0
 770:	000006e4 	andeq	r0, r0, r4, ror #13
 774:	00009d00 	andeq	r9, r0, r0, lsl #26
 778:	00000044 	andeq	r0, r0, r4, asr #32
 77c:	8e040e42 	cdphi	14, 0, cr0, cr4, cr2, {2}
 780:	100e4201 	andne	r4, lr, r1, lsl #4
 784:	00000014 	andeq	r0, r0, r4, lsl r0
 788:	000006e4 	andeq	r0, r0, r4, ror #13
 78c:	00009d44 	andeq	r9, r0, r4, asr #26
 790:	00000044 	andeq	r0, r0, r4, asr #32
 794:	8e040e42 	cdphi	14, 0, cr0, cr4, cr2, {2}
 798:	100e4201 	andne	r4, lr, r1, lsl #4
 79c:	0000000c 	andeq	r0, r0, ip
 7a0:	ffffffff 			; <UNDEFINED> instruction: 0xffffffff
 7a4:	7c020001 	stcvc	0, cr0, [r2], {1}
 7a8:	000d0c0e 	andeq	r0, sp, lr, lsl #24
 7ac:	00000014 	andeq	r0, r0, r4, lsl r0
 7b0:	0000079c 	muleq	r0, ip, r7
 7b4:	00009ec4 	andeq	r9, r0, r4, asr #29
 7b8:	00000028 	andeq	r0, r0, r8, lsr #32
 7bc:	83080e42 	movwhi	r0, #36418	; 0x8e42
 7c0:	00018e02 	andeq	r8, r1, r2, lsl #28
 7c4:	0000000c 	andeq	r0, r0, ip
 7c8:	0000079c 	muleq	r0, ip, r7
 7cc:	00009eec 	andeq	r9, r0, ip, ror #29
 7d0:	00000028 	andeq	r0, r0, r8, lsr #32
