
uart-int.elf:     file format elf32-littlearm


Disassembly of section .text:

00008000 <_start>:
    8000:	e3a0d302 	mov	sp, #134217728	; 0x8000000
    8004:	e3a0b000 	mov	fp, #0
    8008:	eb00032e 	bl	8cc8 <_cstart>
    800c:	eb00035c 	bl	8d84 <rpi_reboot>

00008010 <cq_init>:
    8010:	e92d4038 	push	{r3, r4, r5, lr}
    8014:	e1a04000 	mov	r4, r0
    8018:	e1a05001 	mov	r5, r1
    801c:	e3a01000 	mov	r1, #0
    8020:	e59f216c 	ldr	r2, [pc, #364]	; 8194 <cq_init+0x184>
    8024:	eb00019d 	bl	86a0 <memset>
    8028:	e59f2168 	ldr	r2, [pc, #360]	; 8198 <cq_init+0x188>
    802c:	e3a03a02 	mov	r3, #8192	; 0x2000
    8030:	e7842003 	str	r2, [r4, r3]
    8034:	e59f2160 	ldr	r2, [pc, #352]	; 819c <cq_init+0x18c>
    8038:	e3a03000 	mov	r3, #0
    803c:	e7843002 	str	r3, [r4, r2]
    8040:	e59f0158 	ldr	r0, [pc, #344]	; 81a0 <cq_init+0x190>
    8044:	e7843000 	str	r3, [r4, r0]
    8048:	e59f1154 	ldr	r1, [pc, #340]	; 81a4 <cq_init+0x194>
    804c:	e7843001 	str	r3, [r4, r1]
    8050:	e59f3150 	ldr	r3, [pc, #336]	; 81a8 <cq_init+0x198>
    8054:	e7d41003 	ldrb	r1, [r4, r3]
    8058:	e2055001 	and	r5, r5, #1
    805c:	e3c11001 	bic	r1, r1, #1
    8060:	e1855001 	orr	r5, r5, r1
    8064:	e7c45003 	strb	r5, [r4, r3]
    8068:	e7941000 	ldr	r1, [r4, r0]
    806c:	e7943002 	ldr	r3, [r4, r2]
    8070:	e1510003 	cmp	r1, r3
    8074:	0a000006 	beq	8094 <cq_init+0x84>
    8078:	eb0001ab 	bl	872c <rpi_reset_putc>
    807c:	e59f0128 	ldr	r0, [pc, #296]	; 81ac <cq_init+0x19c>
    8080:	e59f1128 	ldr	r1, [pc, #296]	; 81b0 <cq_init+0x1a0>
    8084:	e59f2128 	ldr	r2, [pc, #296]	; 81b4 <cq_init+0x1a4>
    8088:	e3a0309f 	mov	r3, #159	; 0x9f
    808c:	eb00018b 	bl	86c0 <printk>
    8090:	eb0002fa 	bl	8c80 <clean_reboot>
    8094:	e59f3104 	ldr	r3, [pc, #260]	; 81a0 <cq_init+0x190>
    8098:	e7942003 	ldr	r2, [r4, r3]
    809c:	e2822001 	add	r2, r2, #1
    80a0:	e1a02982 	lsl	r2, r2, #19
    80a4:	e2833004 	add	r3, r3, #4
    80a8:	e7943003 	ldr	r3, [r4, r3]
    80ac:	e15309a2 	cmp	r3, r2, lsr #19
    80b0:	1a000006 	bne	80d0 <cq_init+0xc0>
    80b4:	eb00019c 	bl	872c <rpi_reset_putc>
    80b8:	e59f00f8 	ldr	r0, [pc, #248]	; 81b8 <cq_init+0x1a8>
    80bc:	e59f10ec 	ldr	r1, [pc, #236]	; 81b0 <cq_init+0x1a0>
    80c0:	e59f20ec 	ldr	r2, [pc, #236]	; 81b4 <cq_init+0x1a4>
    80c4:	e3a030a0 	mov	r3, #160	; 0xa0
    80c8:	eb00017c 	bl	86c0 <printk>
    80cc:	eb0002eb 	bl	8c80 <clean_reboot>
    80d0:	e59f30c8 	ldr	r3, [pc, #200]	; 81a0 <cq_init+0x190>
    80d4:	e7942003 	ldr	r2, [r4, r3]
    80d8:	e2833004 	add	r3, r3, #4
    80dc:	e7943003 	ldr	r3, [r4, r3]
    80e0:	e0633002 	rsb	r3, r3, r2
    80e4:	e1b03983 	lsls	r3, r3, #19
    80e8:	0a000006 	beq	8108 <cq_init+0xf8>
    80ec:	eb00018e 	bl	872c <rpi_reset_putc>
    80f0:	e59f00c4 	ldr	r0, [pc, #196]	; 81bc <cq_init+0x1ac>
    80f4:	e59f10b4 	ldr	r1, [pc, #180]	; 81b0 <cq_init+0x1a0>
    80f8:	e59f20b4 	ldr	r2, [pc, #180]	; 81b4 <cq_init+0x1a4>
    80fc:	e3a030a1 	mov	r3, #161	; 0xa1
    8100:	eb00016e 	bl	86c0 <printk>
    8104:	eb0002dd 	bl	8c80 <clean_reboot>
    8108:	e59f3090 	ldr	r3, [pc, #144]	; 81a0 <cq_init+0x190>
    810c:	e7942003 	ldr	r2, [r4, r3]
    8110:	e2833004 	add	r3, r3, #4
    8114:	e7943003 	ldr	r3, [r4, r3]
    8118:	e1520003 	cmp	r2, r3
    811c:	0a000009 	beq	8148 <cq_init+0x138>
    8120:	e59f3074 	ldr	r3, [pc, #116]	; 819c <cq_init+0x18c>
    8124:	e7942003 	ldr	r2, [r4, r3]
    8128:	e7d41002 	ldrb	r1, [r4, r2]
    812c:	e6ef1071 	uxtb	r1, r1
    8130:	e2822001 	add	r2, r2, #1
    8134:	e1a02982 	lsl	r2, r2, #19
    8138:	e1a029a2 	lsr	r2, r2, #19
    813c:	e7842003 	str	r2, [r4, r3]
    8140:	e3a03001 	mov	r3, #1
    8144:	ea000001 	b	8150 <cq_init+0x140>
    8148:	e3a01012 	mov	r1, #18
    814c:	e3a03000 	mov	r3, #0
    8150:	e3530000 	cmp	r3, #0
    8154:	1a000002 	bne	8164 <cq_init+0x154>
    8158:	e3510012 	cmp	r1, #18
    815c:	0a000002 	beq	816c <cq_init+0x15c>
    8160:	ea000002 	b	8170 <cq_init+0x160>
    8164:	e3a03000 	mov	r3, #0
    8168:	ea000000 	b	8170 <cq_init+0x160>
    816c:	e3a03001 	mov	r3, #1
    8170:	e3530000 	cmp	r3, #0
    8174:	18bd8038 	popne	{r3, r4, r5, pc}
    8178:	eb00016b 	bl	872c <rpi_reset_putc>
    817c:	e59f003c 	ldr	r0, [pc, #60]	; 81c0 <cq_init+0x1b0>
    8180:	e59f1028 	ldr	r1, [pc, #40]	; 81b0 <cq_init+0x1a0>
    8184:	e59f2028 	ldr	r2, [pc, #40]	; 81b4 <cq_init+0x1a4>
    8188:	e3a030a3 	mov	r3, #163	; 0xa3
    818c:	eb00014b 	bl	86c0 <printk>
    8190:	eb0002ba 	bl	8c80 <clean_reboot>
    8194:	00002014 	andeq	r2, r0, r4, lsl r0
    8198:	12345678 	eorsne	r5, r4, #120, 12	; 0x7800000
    819c:	00002008 	andeq	r2, r0, r8
    81a0:	00002004 	andeq	r2, r0, r4
    81a4:	0000200c 	andeq	r2, r0, ip
    81a8:	00002010 	andeq	r2, r0, r0, lsl r0
    81ac:	00009fb4 			; <UNDEFINED> instruction: 0x00009fb4
    81b0:	00009fd0 	ldrdeq	r9, [r0], -r0
    81b4:	00009fac 	andeq	r9, r0, ip, lsr #31
    81b8:	0000a024 	andeq	sl, r0, r4, lsr #32
    81bc:	0000a040 	andeq	sl, r0, r0, asr #32
    81c0:	0000a064 	andeq	sl, r0, r4, rrx

000081c4 <uart_has_data_int>:
    81c4:	e59f3018 	ldr	r3, [pc, #24]	; 81e4 <uart_has_data_int+0x20>
    81c8:	e59f2018 	ldr	r2, [pc, #24]	; 81e8 <uart_has_data_int+0x24>
    81cc:	e7930002 	ldr	r0, [r3, r2]
    81d0:	e2822004 	add	r2, r2, #4
    81d4:	e7933002 	ldr	r3, [r3, r2]
    81d8:	e0500003 	subs	r0, r0, r3
    81dc:	13a00001 	movne	r0, #1
    81e0:	e12fff1e 	bx	lr
    81e4:	0000a4b4 			; <UNDEFINED> instruction: 0x0000a4b4
    81e8:	00002004 	andeq	r2, r0, r4

000081ec <mod_tx_interrupts>:
    81ec:	e92d4010 	push	{r4, lr}
    81f0:	e1a04000 	mov	r4, r0
    81f4:	eb0006e2 	bl	9d84 <dev_barrier>
    81f8:	e59f003c 	ldr	r0, [pc, #60]	; 823c <mod_tx_interrupts+0x50>
    81fc:	eb0006f2 	bl	9dcc <get32>
    8200:	e3801001 	orr	r1, r0, #1
    8204:	e3540000 	cmp	r4, #0
    8208:	0a000002 	beq	8218 <mod_tx_interrupts+0x2c>
    820c:	e59f0028 	ldr	r0, [pc, #40]	; 823c <mod_tx_interrupts+0x50>
    8210:	eb0006e1 	bl	9d9c <put32>
    8214:	ea000006 	b	8234 <mod_tx_interrupts+0x48>
    8218:	e59f401c 	ldr	r4, [pc, #28]	; 823c <mod_tx_interrupts+0x50>
    821c:	e1a00004 	mov	r0, r4
    8220:	e3a01000 	mov	r1, #0
    8224:	eb0006dc 	bl	9d9c <put32>
    8228:	e1a00004 	mov	r0, r4
    822c:	e3a01001 	mov	r1, #1
    8230:	eb0006d9 	bl	9d9c <put32>
    8234:	eb0006d2 	bl	9d84 <dev_barrier>
    8238:	e8bd8010 	pop	{r4, pc}
    823c:	20215044 	eorcs	r5, r1, r4, asr #32

00008240 <interrupt_vector>:
    8240:	e92d41f0 	push	{r4, r5, r6, r7, r8, lr}
    8244:	e59f0120 	ldr	r0, [pc, #288]	; 836c <interrupt_vector+0x12c>
    8248:	eb0006df 	bl	9dcc <get32>
    824c:	e3100004 	tst	r0, #4
    8250:	1a00000f 	bne	8294 <interrupt_vector+0x54>
    8254:	ea00001b 	b	82c8 <interrupt_vector+0x88>
    8258:	eb000622 	bl	9ae8 <uart_getc>
    825c:	e6ef0070 	uxtb	r0, r0
    8260:	e7941005 	ldr	r1, [r4, r5]
    8264:	e7942005 	ldr	r2, [r4, r5]
    8268:	e2822001 	add	r2, r2, #1
    826c:	e1a02982 	lsl	r2, r2, #19
    8270:	e7943006 	ldr	r3, [r4, r6]
    8274:	e15309a2 	cmp	r3, r2, lsr #19
    8278:	0a000008 	beq	82a0 <interrupt_vector+0x60>
    827c:	e7c40001 	strb	r0, [r4, r1]
    8280:	e2813001 	add	r3, r1, #1
    8284:	e1a03983 	lsl	r3, r3, #19
    8288:	e1a039a3 	lsr	r3, r3, #19
    828c:	e7843005 	str	r3, [r4, r5]
    8290:	ea000002 	b	82a0 <interrupt_vector+0x60>
    8294:	e59f40d4 	ldr	r4, [pc, #212]	; 8370 <interrupt_vector+0x130>
    8298:	e59f50d4 	ldr	r5, [pc, #212]	; 8374 <interrupt_vector+0x134>
    829c:	e59f60d4 	ldr	r6, [pc, #212]	; 8378 <interrupt_vector+0x138>
    82a0:	e7942005 	ldr	r2, [r4, r5]
    82a4:	e2822001 	add	r2, r2, #1
    82a8:	e1a02982 	lsl	r2, r2, #19
    82ac:	e7943006 	ldr	r3, [r4, r6]
    82b0:	e15309a2 	cmp	r3, r2, lsr #19
    82b4:	08bd81f0 	popeq	{r4, r5, r6, r7, r8, pc}
    82b8:	eb000603 	bl	9acc <uart_can_getc>
    82bc:	e3500000 	cmp	r0, #0
    82c0:	1affffe4 	bne	8258 <interrupt_vector+0x18>
    82c4:	e8bd81f0 	pop	{r4, r5, r6, r7, r8, pc}
    82c8:	e3100002 	tst	r0, #2
    82cc:	1a000003 	bne	82e0 <interrupt_vector+0xa0>
    82d0:	e8bd81f0 	pop	{r4, r5, r6, r7, r8, pc}
    82d4:	e5d4001c 	ldrb	r0, [r4, #28]
    82d8:	eb000613 	bl	9b2c <uart_putc>
    82dc:	ea000004 	b	82f4 <interrupt_vector+0xb4>
    82e0:	e59f4094 	ldr	r4, [pc, #148]	; 837c <interrupt_vector+0x13c>
    82e4:	e59f6094 	ldr	r6, [pc, #148]	; 8380 <interrupt_vector+0x140>
    82e8:	e59f5094 	ldr	r5, [pc, #148]	; 8384 <interrupt_vector+0x144>
    82ec:	e3a08000 	mov	r8, #0
    82f0:	e3a07001 	mov	r7, #1
    82f4:	eb000605 	bl	9b10 <uart_can_putc>
    82f8:	e3500000 	cmp	r0, #0
    82fc:	0a000010 	beq	8344 <interrupt_vector+0x104>
    8300:	e7942006 	ldr	r2, [r4, r6]
    8304:	e7943005 	ldr	r3, [r4, r5]
    8308:	e1520003 	cmp	r2, r3
    830c:	0a000009 	beq	8338 <interrupt_vector+0xf8>
    8310:	e7943005 	ldr	r3, [r4, r5]
    8314:	e0842003 	add	r2, r4, r3
    8318:	e5d22020 	ldrb	r2, [r2, #32]
    831c:	e5c4201c 	strb	r2, [r4, #28]
    8320:	e2833001 	add	r3, r3, #1
    8324:	e1a03983 	lsl	r3, r3, #19
    8328:	e1a039a3 	lsr	r3, r3, #19
    832c:	e7843005 	str	r3, [r4, r5]
    8330:	e1a03007 	mov	r3, r7
    8334:	ea000000 	b	833c <interrupt_vector+0xfc>
    8338:	e1a03008 	mov	r3, r8
    833c:	e3530000 	cmp	r3, #0
    8340:	1affffe3 	bne	82d4 <interrupt_vector+0x94>
    8344:	e59f3030 	ldr	r3, [pc, #48]	; 837c <interrupt_vector+0x13c>
    8348:	e59f2030 	ldr	r2, [pc, #48]	; 8380 <interrupt_vector+0x140>
    834c:	e7932002 	ldr	r2, [r3, r2]
    8350:	e59f102c 	ldr	r1, [pc, #44]	; 8384 <interrupt_vector+0x144>
    8354:	e7933001 	ldr	r3, [r3, r1]
    8358:	e1520003 	cmp	r2, r3
    835c:	18bd81f0 	popne	{r4, r5, r6, r7, r8, pc}
    8360:	e3a00000 	mov	r0, #0
    8364:	ebffffa0 	bl	81ec <mod_tx_interrupts>
    8368:	e8bd81f0 	pop	{r4, r5, r6, r7, r8, pc}
    836c:	20215048 	eorcs	r5, r1, r8, asr #32
    8370:	0000a4b4 			; <UNDEFINED> instruction: 0x0000a4b4
    8374:	00002004 	andeq	r2, r0, r4
    8378:	00002008 	andeq	r2, r0, r8
    837c:	0000c4ac 	andeq	ip, r0, ip, lsr #9
    8380:	00002024 	andeq	r2, r0, r4, lsr #32
    8384:	00002028 	andeq	r2, r0, r8, lsr #32

00008388 <uart_putc_int>:
    8388:	e92d43f8 	push	{r3, r4, r5, r6, r7, r8, r9, lr}
    838c:	e1a04000 	mov	r4, r0
    8390:	eb000698 	bl	9df8 <system_disable_interrupts>
    8394:	e59f30c0 	ldr	r3, [pc, #192]	; 845c <uart_putc_int+0xd4>
    8398:	e59f20c0 	ldr	r2, [pc, #192]	; 8460 <uart_putc_int+0xd8>
    839c:	e7931002 	ldr	r1, [r3, r2]
    83a0:	e7932002 	ldr	r2, [r3, r2]
    83a4:	e2822001 	add	r2, r2, #1
    83a8:	e1a02982 	lsl	r2, r2, #19
    83ac:	e59f00b0 	ldr	r0, [pc, #176]	; 8464 <uart_putc_int+0xdc>
    83b0:	e7933000 	ldr	r3, [r3, r0]
    83b4:	e15309a2 	cmp	r3, r2, lsr #19
    83b8:	0a000007 	beq	83dc <uart_putc_int+0x54>
    83bc:	e59f3098 	ldr	r3, [pc, #152]	; 845c <uart_putc_int+0xd4>
    83c0:	e0832001 	add	r2, r3, r1
    83c4:	e5c24020 	strb	r4, [r2, #32]
    83c8:	e2811001 	add	r1, r1, #1
    83cc:	e1a01981 	lsl	r1, r1, #19
    83d0:	e1a019a1 	lsr	r1, r1, #19
    83d4:	e59f2084 	ldr	r2, [pc, #132]	; 8460 <uart_putc_int+0xd8>
    83d8:	e7831002 	str	r1, [r3, r2]
    83dc:	e3a00001 	mov	r0, #1
    83e0:	ebffff81 	bl	81ec <mod_tx_interrupts>
    83e4:	e59f4070 	ldr	r4, [pc, #112]	; 845c <uart_putc_int+0xd4>
    83e8:	e59f7070 	ldr	r7, [pc, #112]	; 8460 <uart_putc_int+0xd8>
    83ec:	e59f5070 	ldr	r5, [pc, #112]	; 8464 <uart_putc_int+0xdc>
    83f0:	e3a09000 	mov	r9, #0
    83f4:	e3a08001 	mov	r8, #1
    83f8:	ea000001 	b	8404 <uart_putc_int+0x7c>
    83fc:	e1a00006 	mov	r0, r6
    8400:	eb0005c9 	bl	9b2c <uart_putc>
    8404:	eb0005c1 	bl	9b10 <uart_can_putc>
    8408:	e3500000 	cmp	r0, #0
    840c:	0a000010 	beq	8454 <uart_putc_int+0xcc>
    8410:	e7942007 	ldr	r2, [r4, r7]
    8414:	e7943005 	ldr	r3, [r4, r5]
    8418:	e1520003 	cmp	r2, r3
    841c:	0a000009 	beq	8448 <uart_putc_int+0xc0>
    8420:	e7943005 	ldr	r3, [r4, r5]
    8424:	e0842003 	add	r2, r4, r3
    8428:	e5d26020 	ldrb	r6, [r2, #32]
    842c:	e6ef6076 	uxtb	r6, r6
    8430:	e2833001 	add	r3, r3, #1
    8434:	e1a03983 	lsl	r3, r3, #19
    8438:	e1a039a3 	lsr	r3, r3, #19
    843c:	e7843005 	str	r3, [r4, r5]
    8440:	e1a03008 	mov	r3, r8
    8444:	ea000000 	b	844c <uart_putc_int+0xc4>
    8448:	e1a03009 	mov	r3, r9
    844c:	e3530000 	cmp	r3, #0
    8450:	1affffe9 	bne	83fc <uart_putc_int+0x74>
    8454:	eb000663 	bl	9de8 <system_enable_interrupts>
    8458:	e8bd83f8 	pop	{r3, r4, r5, r6, r7, r8, r9, pc}
    845c:	0000c4ac 	andeq	ip, r0, ip, lsr #9
    8460:	00002024 	andeq	r2, r0, r4, lsr #32
    8464:	00002028 	andeq	r2, r0, r8, lsr #32

00008468 <uart_getc_int>:
    8468:	e59f3064 	ldr	r3, [pc, #100]	; 84d4 <uart_getc_int+0x6c>
    846c:	e59f2064 	ldr	r2, [pc, #100]	; 84d8 <uart_getc_int+0x70>
    8470:	e7932002 	ldr	r2, [r3, r2]
    8474:	e59f1060 	ldr	r1, [pc, #96]	; 84dc <uart_getc_int+0x74>
    8478:	e7933001 	ldr	r3, [r3, r1]
    847c:	e1520003 	cmp	r2, r3
    8480:	0a00000f 	beq	84c4 <uart_getc_int+0x5c>
    8484:	e59f3048 	ldr	r3, [pc, #72]	; 84d4 <uart_getc_int+0x6c>
    8488:	e59f2048 	ldr	r2, [pc, #72]	; 84d8 <uart_getc_int+0x70>
    848c:	e7932002 	ldr	r2, [r3, r2]
    8490:	e7933001 	ldr	r3, [r3, r1]
    8494:	e1520003 	cmp	r2, r3
    8498:	0a00000b 	beq	84cc <uart_getc_int+0x64>
    849c:	e59f3030 	ldr	r3, [pc, #48]	; 84d4 <uart_getc_int+0x6c>
    84a0:	e1a02001 	mov	r2, r1
    84a4:	e7931001 	ldr	r1, [r3, r1]
    84a8:	e7d30001 	ldrb	r0, [r3, r1]
    84ac:	e6ef0070 	uxtb	r0, r0
    84b0:	e2811001 	add	r1, r1, #1
    84b4:	e1a01981 	lsl	r1, r1, #19
    84b8:	e1a019a1 	lsr	r1, r1, #19
    84bc:	e7831002 	str	r1, [r3, r2]
    84c0:	e12fff1e 	bx	lr
    84c4:	e3a00082 	mov	r0, #130	; 0x82
    84c8:	e12fff1e 	bx	lr
    84cc:	e3a00082 	mov	r0, #130	; 0x82
    84d0:	e12fff1e 	bx	lr
    84d4:	0000a4b4 			; <UNDEFINED> instruction: 0x0000a4b4
    84d8:	00002004 	andeq	r2, r0, r4
    84dc:	00002008 	andeq	r2, r0, r8

000084e0 <my_puts>:
    84e0:	e92d4010 	push	{r4, lr}
    84e4:	e1a04000 	mov	r4, r0
    84e8:	ea000001 	b	84f4 <my_puts+0x14>
    84ec:	ebffffa5 	bl	8388 <uart_putc_int>
    84f0:	e2844001 	add	r4, r4, #1
    84f4:	e5d40000 	ldrb	r0, [r4]
    84f8:	e3500000 	cmp	r0, #0
    84fc:	1afffffa 	bne	84ec <my_puts+0xc>
    8500:	e8bd8010 	pop	{r4, pc}

00008504 <uart_init_with_interrupts>:
    8504:	e92d4010 	push	{r4, lr}
    8508:	eb00061d 	bl	9d84 <dev_barrier>
    850c:	e3a0000e 	mov	r0, #14
    8510:	e3a01002 	mov	r1, #2
    8514:	eb000303 	bl	9128 <gpio_set_function>
    8518:	e3a0000f 	mov	r0, #15
    851c:	e3a01002 	mov	r1, #2
    8520:	eb000300 	bl	9128 <gpio_set_function>
    8524:	eb000616 	bl	9d84 <dev_barrier>
    8528:	e59f4074 	ldr	r4, [pc, #116]	; 85a4 <uart_init_with_interrupts+0xa0>
    852c:	e1a00004 	mov	r0, r4
    8530:	eb000625 	bl	9dcc <get32>
    8534:	e3801001 	orr	r1, r0, #1
    8538:	e1a00004 	mov	r0, r4
    853c:	eb000616 	bl	9d9c <put32>
    8540:	eb00060f 	bl	9d84 <dev_barrier>
    8544:	e284405c 	add	r4, r4, #92	; 0x5c
    8548:	e1a00004 	mov	r0, r4
    854c:	e3a01000 	mov	r1, #0
    8550:	eb000611 	bl	9d9c <put32>
    8554:	e59f004c 	ldr	r0, [pc, #76]	; 85a8 <uart_init_with_interrupts+0xa4>
    8558:	e3a01003 	mov	r1, #3
    855c:	eb00060e 	bl	9d9c <put32>
    8560:	e59f0044 	ldr	r0, [pc, #68]	; 85ac <uart_init_with_interrupts+0xa8>
    8564:	e3a01006 	mov	r1, #6
    8568:	eb00060b 	bl	9d9c <put32>
    856c:	e59f003c 	ldr	r0, [pc, #60]	; 85b0 <uart_init_with_interrupts+0xac>
    8570:	e3a01003 	mov	r1, #3
    8574:	eb000608 	bl	9d9c <put32>
    8578:	e59f0034 	ldr	r0, [pc, #52]	; 85b4 <uart_init_with_interrupts+0xb0>
    857c:	e59f1034 	ldr	r1, [pc, #52]	; 85b8 <uart_init_with_interrupts+0xb4>
    8580:	eb000605 	bl	9d9c <put32>
    8584:	e1a00004 	mov	r0, r4
    8588:	e3a01003 	mov	r1, #3
    858c:	eb000602 	bl	9d9c <put32>
    8590:	e59f0024 	ldr	r0, [pc, #36]	; 85bc <uart_init_with_interrupts+0xb8>
    8594:	e3a01202 	mov	r1, #536870912	; 0x20000000
    8598:	eb0005ff 	bl	9d9c <put32>
    859c:	eb0005f8 	bl	9d84 <dev_barrier>
    85a0:	e8bd8010 	pop	{r4, pc}
    85a4:	20215004 	eorcs	r5, r1, r4
    85a8:	20215044 	eorcs	r5, r1, r4, asr #32
    85ac:	20215048 	eorcs	r5, r1, r8, asr #32
    85b0:	2021504c 	eorcs	r5, r1, ip, asr #32
    85b4:	20215068 	eorcs	r5, r1, r8, rrx
    85b8:	0000010e 	andeq	r0, r0, lr, lsl #2
    85bc:	2000b210 	andcs	fp, r0, r0, lsl r2

000085c0 <notmain>:
    85c0:	e92d4070 	push	{r4, r5, r6, lr}
    85c4:	e24dd018 	sub	sp, sp, #24
    85c8:	eb00056d 	bl	9b84 <int_init>
    85cc:	ebffffcc 	bl	8504 <uart_init_with_interrupts>
    85d0:	e59f00a8 	ldr	r0, [pc, #168]	; 8680 <notmain+0xc0>
    85d4:	e3a01001 	mov	r1, #1
    85d8:	ebfffe8c 	bl	8010 <cq_init>
    85dc:	e59f00a0 	ldr	r0, [pc, #160]	; 8684 <notmain+0xc4>
    85e0:	e3a01001 	mov	r1, #1
    85e4:	ebfffe89 	bl	8010 <cq_init>
    85e8:	e59f0098 	ldr	r0, [pc, #152]	; 8688 <notmain+0xc8>
    85ec:	e3a0100d 	mov	r1, #13
    85f0:	eb0005e9 	bl	9d9c <put32>
    85f4:	eb0005e2 	bl	9d84 <dev_barrier>
    85f8:	eb0005fa 	bl	9de8 <system_enable_interrupts>
    85fc:	e59f3088 	ldr	r3, [pc, #136]	; 868c <notmain+0xcc>
    8600:	e58d3000 	str	r3, [sp]
    8604:	e28d000c 	add	r0, sp, #12
    8608:	e3a01014 	mov	r1, #20
    860c:	e3a02015 	mov	r2, #21
    8610:	e59f3078 	ldr	r3, [pc, #120]	; 8690 <notmain+0xd0>
    8614:	eb000487 	bl	9838 <sw_uart_init_helper>
    8618:	e59f0074 	ldr	r0, [pc, #116]	; 8694 <notmain+0xd4>
    861c:	eb000027 	bl	86c0 <printk>
    8620:	e3a06000 	mov	r6, #0
    8624:	ea00000e 	b	8664 <notmain+0xa4>
    8628:	ebffff8e 	bl	8468 <uart_getc_int>
    862c:	e1a04000 	mov	r4, r0
    8630:	eb0005f0 	bl	9df8 <system_disable_interrupts>
    8634:	e6ef5074 	uxtb	r5, r4
    8638:	e28d000c 	add	r0, sp, #12
    863c:	e1a01005 	mov	r1, r5
    8640:	eb000372 	bl	9410 <sw_uart_putc>
    8644:	eb0005e7 	bl	9de8 <system_enable_interrupts>
    8648:	e1a00005 	mov	r0, r5
    864c:	ebffff4d 	bl	8388 <uart_putc_int>
    8650:	e354000a 	cmp	r4, #10
    8654:	02866001 	addeq	r6, r6, #1
    8658:	ebfffed9 	bl	81c4 <uart_has_data_int>
    865c:	e3500000 	cmp	r0, #0
    8660:	1afffff0 	bne	8628 <notmain+0x68>
    8664:	e3560009 	cmp	r6, #9
    8668:	dafffffa 	ble	8658 <notmain+0x98>
    866c:	e59f0024 	ldr	r0, [pc, #36]	; 8698 <notmain+0xd8>
    8670:	eb000012 	bl	86c0 <printk>
    8674:	e59f0020 	ldr	r0, [pc, #32]	; 869c <notmain+0xdc>
    8678:	eb000010 	bl	86c0 <printk>
    867c:	eb00017f 	bl	8c80 <clean_reboot>
    8680:	0000a4b4 			; <UNDEFINED> instruction: 0x0000a4b4
    8684:	0000c4cc 	andeq	ip, r0, ip, asr #9
    8688:	20215040 	eorcs	r5, r1, r0, asr #32
    868c:	000017bc 			; <UNDEFINED> instruction: 0x000017bc
    8690:	0001c200 	andeq	ip, r1, r0, lsl #4
    8694:	0000a09c 	muleq	r0, ip, r0
    8698:	0000a0c0 	andeq	sl, r0, r0, asr #1
    869c:	0000a0d8 	ldrdeq	sl, [r0], -r8

000086a0 <memset>:
    86a0:	e0802002 	add	r2, r0, r2
    86a4:	e1a03000 	mov	r3, r0
    86a8:	ea000001 	b	86b4 <memset+0x14>
    86ac:	e5c31000 	strb	r1, [r3]
    86b0:	e2833001 	add	r3, r3, #1
    86b4:	e1530002 	cmp	r3, r2
    86b8:	3afffffb 	bcc	86ac <memset+0xc>
    86bc:	e12fff1e 	bx	lr

000086c0 <printk>:
    86c0:	e92d000f 	push	{r0, r1, r2, r3}
    86c4:	e92d4030 	push	{r4, r5, lr}
    86c8:	e24dd00c 	sub	sp, sp, #12
    86cc:	e28d301c 	add	r3, sp, #28
    86d0:	e58d3004 	str	r3, [sp, #4]
    86d4:	e59f4034 	ldr	r4, [pc, #52]	; 8710 <printk+0x50>
    86d8:	e1a00004 	mov	r0, r4
    86dc:	e3a01b01 	mov	r1, #1024	; 0x400
    86e0:	e59d2018 	ldr	r2, [sp, #24]
    86e4:	eb0000c3 	bl	89f8 <va_printk>
    86e8:	e1a05000 	mov	r5, r0
    86ec:	e59f3020 	ldr	r3, [pc, #32]	; 8714 <printk+0x54>
    86f0:	e5933000 	ldr	r3, [r3]
    86f4:	e1a00004 	mov	r0, r4
    86f8:	e12fff33 	blx	r3
    86fc:	e1a00005 	mov	r0, r5
    8700:	e28dd00c 	add	sp, sp, #12
    8704:	e8bd4030 	pop	{r4, r5, lr}
    8708:	e28dd010 	add	sp, sp, #16
    870c:	e12fff1e 	bx	lr
    8710:	0000e4e4 	andeq	lr, r0, r4, ror #9
    8714:	00009f14 	andeq	r9, r0, r4, lsl pc

00008718 <internal_putchar>:
    8718:	e92d4010 	push	{r4, lr}
    871c:	e1a04000 	mov	r4, r0
    8720:	eb000501 	bl	9b2c <uart_putc>
    8724:	e1a00004 	mov	r0, r4
    8728:	e8bd8010 	pop	{r4, pc}

0000872c <rpi_reset_putc>:
    872c:	e59f2008 	ldr	r2, [pc, #8]	; 873c <rpi_reset_putc+0x10>
    8730:	e59f3008 	ldr	r3, [pc, #8]	; 8740 <rpi_reset_putc+0x14>
    8734:	e5832000 	str	r2, [r3]
    8738:	e12fff1e 	bx	lr
    873c:	00008718 	andeq	r8, r0, r8, lsl r7
    8740:	00009f10 	andeq	r9, r0, r0, lsl pc

00008744 <rpi_set_putc>:
    8744:	e59f3004 	ldr	r3, [pc, #4]	; 8750 <rpi_set_putc+0xc>
    8748:	e5830000 	str	r0, [r3]
    874c:	e12fff1e 	bx	lr
    8750:	00009f10 	andeq	r9, r0, r0, lsl pc

00008754 <internal_putk>:
    8754:	e92d4038 	push	{r3, r4, r5, lr}
    8758:	e1a04000 	mov	r4, r0
    875c:	e59f5020 	ldr	r5, [pc, #32]	; 8784 <internal_putk+0x30>
    8760:	ea000002 	b	8770 <internal_putk+0x1c>
    8764:	e5953000 	ldr	r3, [r5]
    8768:	e12fff33 	blx	r3
    876c:	e2844001 	add	r4, r4, #1
    8770:	e5d40000 	ldrb	r0, [r4]
    8774:	e3500000 	cmp	r0, #0
    8778:	1afffff9 	bne	8764 <internal_putk+0x10>
    877c:	e3a00001 	mov	r0, #1
    8780:	e8bd8038 	pop	{r3, r4, r5, pc}
    8784:	00009f10 	andeq	r9, r0, r0, lsl pc

00008788 <isdigit>:
    8788:	e2400030 	sub	r0, r0, #48	; 0x30
    878c:	e3500009 	cmp	r0, #9
    8790:	83a00000 	movhi	r0, #0
    8794:	93a00001 	movls	r0, #1
    8798:	e12fff1e 	bx	lr

0000879c <pad>:
    879c:	e0611000 	rsb	r1, r1, r0
    87a0:	e3a03020 	mov	r3, #32
    87a4:	ea000002 	b	87b4 <pad+0x18>
    87a8:	e5c03000 	strb	r3, [r0]
    87ac:	e2811001 	add	r1, r1, #1
    87b0:	e2800001 	add	r0, r0, #1
    87b4:	e1510002 	cmp	r1, r2
    87b8:	bafffffa 	blt	87a8 <pad+0xc>
    87bc:	e3a03000 	mov	r3, #0
    87c0:	e5c03000 	strb	r3, [r0]
    87c4:	e12fff1e 	bx	lr

000087c8 <reverse>:
    87c8:	e063c002 	rsb	ip, r3, r2
    87cc:	e28cc001 	add	ip, ip, #1
    87d0:	e15c0001 	cmp	ip, r1
    87d4:	c061100c 	rsbgt	r1, r1, ip
    87d8:	c0833001 	addgt	r3, r3, r1
    87dc:	e2422001 	sub	r2, r2, #1
    87e0:	e1a01000 	mov	r1, r0
    87e4:	ea000002 	b	87f4 <reverse+0x2c>
    87e8:	e452c001 	ldrb	ip, [r2], #-1
    87ec:	e5c1c000 	strb	ip, [r1]
    87f0:	e2811001 	add	r1, r1, #1
    87f4:	e1520003 	cmp	r2, r3
    87f8:	2afffffa 	bcs	87e8 <reverse+0x20>
    87fc:	e3a03000 	mov	r3, #0
    8800:	e5c13000 	strb	r3, [r1]
    8804:	e12fff1e 	bx	lr

00008808 <emit>:
    8808:	e92d41f0 	push	{r4, r5, r6, r7, r8, lr}
    880c:	e24dd040 	sub	sp, sp, #64	; 0x40
    8810:	e1a05001 	mov	r5, r1
    8814:	e1a04002 	mov	r4, r2
    8818:	e59d2058 	ldr	r2, [sp, #88]	; 0x58
    881c:	e1520004 	cmp	r2, r4
    8820:	c2442001 	subgt	r2, r4, #1
    8824:	e1a0c003 	mov	ip, r3
    8828:	e2400002 	sub	r0, r0, #2
    882c:	e350000e 	cmp	r0, #14
    8830:	979ff100 	ldrls	pc, [pc, r0, lsl #2]
    8834:	ea000042 	b	8944 <emit+0x13c>
    8838:	0000891c 	andeq	r8, r0, ip, lsl r9
    883c:	00008944 	andeq	r8, r0, r4, asr #18
    8840:	00008944 	andeq	r8, r0, r4, asr #18
    8844:	00008944 	andeq	r8, r0, r4, asr #18
    8848:	00008944 	andeq	r8, r0, r4, asr #18
    884c:	00008944 	andeq	r8, r0, r4, asr #18
    8850:	00008910 	andeq	r8, r0, r0, lsl r9
    8854:	00008944 	andeq	r8, r0, r4, asr #18
    8858:	00008874 	andeq	r8, r0, r4, ror r8
    885c:	00008944 	andeq	r8, r0, r4, asr #18
    8860:	00008944 	andeq	r8, r0, r4, asr #18
    8864:	00008944 	andeq	r8, r0, r4, asr #18
    8868:	00008944 	andeq	r8, r0, r4, asr #18
    886c:	00008944 	andeq	r8, r0, r4, asr #18
    8870:	000088e8 	andeq	r8, r0, r8, ror #17
    8874:	e59d105c 	ldr	r1, [sp, #92]	; 0x5c
    8878:	e2911000 	adds	r1, r1, #0
    887c:	13a01001 	movne	r1, #1
    8880:	e0111fa3 	ands	r1, r1, r3, lsr #31
    8884:	1263c000 	rsbne	ip, r3, #0
    8888:	13a08001 	movne	r8, #1
    888c:	03a08000 	moveq	r8, #0
    8890:	e1a0100d 	mov	r1, sp
    8894:	e59f70ec 	ldr	r7, [pc, #236]	; 8988 <emit+0x180>
    8898:	e59f60ec 	ldr	r6, [pc, #236]	; 898c <emit+0x184>
    889c:	ea000000 	b	88a4 <emit+0x9c>
    88a0:	e1a01003 	mov	r1, r3
    88a4:	e2813001 	add	r3, r1, #1
    88a8:	e08e0c97 	umull	r0, lr, r7, ip
    88ac:	e1a0e1ae 	lsr	lr, lr, #3
    88b0:	e1a0000e 	mov	r0, lr
    88b4:	e08ee10e 	add	lr, lr, lr, lsl #2
    88b8:	e1a0e08e 	lsl	lr, lr, #1
    88bc:	e06ee00c 	rsb	lr, lr, ip
    88c0:	e7d6c00e 	ldrb	ip, [r6, lr]
    88c4:	e5c1c000 	strb	ip, [r1]
    88c8:	e1a0c000 	mov	ip, r0
    88cc:	e3500000 	cmp	r0, #0
    88d0:	1afffff2 	bne	88a0 <emit+0x98>
    88d4:	e3580000 	cmp	r8, #0
    88d8:	12813002 	addne	r3, r1, #2
    88dc:	13a0002d 	movne	r0, #45	; 0x2d
    88e0:	15c10001 	strbne	r0, [r1, #1]
    88e4:	ea00001d 	b	8960 <emit+0x158>
    88e8:	e1a0e00d 	mov	lr, sp
    88ec:	e59f009c 	ldr	r0, [pc, #156]	; 8990 <emit+0x188>
    88f0:	e28e3001 	add	r3, lr, #1
    88f4:	e20c100f 	and	r1, ip, #15
    88f8:	e7d01001 	ldrb	r1, [r0, r1]
    88fc:	e5ce1000 	strb	r1, [lr]
    8900:	e1a0e003 	mov	lr, r3
    8904:	e1b0c22c 	lsrs	ip, ip, #4
    8908:	1afffff8 	bne	88f0 <emit+0xe8>
    890c:	ea000013 	b	8960 <emit+0x158>
    8910:	e5cd3000 	strb	r3, [sp]
    8914:	e28d3001 	add	r3, sp, #1
    8918:	ea000010 	b	8960 <emit+0x158>
    891c:	e1a0e00d 	mov	lr, sp
    8920:	e59f006c 	ldr	r0, [pc, #108]	; 8994 <emit+0x18c>
    8924:	e28e3001 	add	r3, lr, #1
    8928:	e20c1001 	and	r1, ip, #1
    892c:	e7d01001 	ldrb	r1, [r0, r1]
    8930:	e5ce1000 	strb	r1, [lr]
    8934:	e1a0e003 	mov	lr, r3
    8938:	e1b0c0ac 	lsrs	ip, ip, #1
    893c:	1afffff8 	bne	8924 <emit+0x11c>
    8940:	ea000006 	b	8960 <emit+0x158>
    8944:	ebffff78 	bl	872c <rpi_reset_putc>
    8948:	e59f0048 	ldr	r0, [pc, #72]	; 8998 <emit+0x190>
    894c:	e59f1048 	ldr	r1, [pc, #72]	; 899c <emit+0x194>
    8950:	e59f2048 	ldr	r2, [pc, #72]	; 89a0 <emit+0x198>
    8954:	e3a03075 	mov	r3, #117	; 0x75
    8958:	ebffff58 	bl	86c0 <printk>
    895c:	eb0000c7 	bl	8c80 <clean_reboot>
    8960:	e1a00003 	mov	r0, r3
    8964:	e1a0100d 	mov	r1, sp
    8968:	ebffff8b 	bl	879c <pad>
    896c:	e1a02000 	mov	r2, r0
    8970:	e1a00005 	mov	r0, r5
    8974:	e1a01004 	mov	r1, r4
    8978:	e1a0300d 	mov	r3, sp
    897c:	ebffff91 	bl	87c8 <reverse>
    8980:	e28dd040 	add	sp, sp, #64	; 0x40
    8984:	e8bd81f0 	pop	{r4, r5, r6, r7, r8, pc}
    8988:	cccccccd 	stclgt	12, cr12, [ip], {205}	; 0xcd
    898c:	0000a130 	andeq	sl, r0, r0, lsr r1
    8990:	0000a13c 	andeq	sl, r0, ip, lsr r1
    8994:	0000a150 	andeq	sl, r0, r0, asr r1
    8998:	0000a108 	andeq	sl, r0, r8, lsl #2
    899c:	0000a11c 	andeq	sl, r0, ip, lsl r1
    89a0:	0000a0e4 	andeq	sl, r0, r4, ror #1

000089a4 <rpi_set_output>:
    89a4:	e92d4008 	push	{r3, lr}
    89a8:	e3500000 	cmp	r0, #0
    89ac:	1a000006 	bne	89cc <rpi_set_output+0x28>
    89b0:	ebffff5d 	bl	872c <rpi_reset_putc>
    89b4:	e59f0028 	ldr	r0, [pc, #40]	; 89e4 <rpi_set_output+0x40>
    89b8:	e59f1028 	ldr	r1, [pc, #40]	; 89e8 <rpi_set_output+0x44>
    89bc:	e59f2028 	ldr	r2, [pc, #40]	; 89ec <rpi_set_output+0x48>
    89c0:	e3a03020 	mov	r3, #32
    89c4:	ebffff3d 	bl	86c0 <printk>
    89c8:	eb0000ac 	bl	8c80 <clean_reboot>
    89cc:	e59f301c 	ldr	r3, [pc, #28]	; 89f0 <rpi_set_output+0x4c>
    89d0:	e5830000 	str	r0, [r3]
    89d4:	e3510000 	cmp	r1, #0
    89d8:	159f3014 	ldrne	r3, [pc, #20]	; 89f4 <rpi_set_output+0x50>
    89dc:	15831000 	strne	r1, [r3]
    89e0:	e8bd8008 	pop	{r3, pc}
    89e4:	0000a154 	andeq	sl, r0, r4, asr r1
    89e8:	0000a11c 	andeq	sl, r0, ip, lsl r1
    89ec:	0000a0ec 	andeq	sl, r0, ip, ror #1
    89f0:	00009f10 	andeq	r9, r0, r0, lsl pc
    89f4:	00009f14 	andeq	r9, r0, r4, lsl pc

000089f8 <va_printk>:
    89f8:	e92d4ff0 	push	{r4, r5, r6, r7, r8, r9, sl, fp, lr}
    89fc:	e24dd08c 	sub	sp, sp, #140	; 0x8c
    8a00:	e1a0a000 	mov	sl, r0
    8a04:	e1a09003 	mov	r9, r3
    8a08:	e2411001 	sub	r1, r1, #1
    8a0c:	e0808001 	add	r8, r0, r1
    8a10:	e3a03000 	mov	r3, #0
    8a14:	e5c03000 	strb	r3, [r0]
    8a18:	e1a04000 	mov	r4, r0
    8a1c:	e1a0b003 	mov	fp, r3
    8a20:	ea000086 	b	8c40 <va_printk+0x248>
    8a24:	e3530025 	cmp	r3, #37	; 0x25
    8a28:	12822001 	addne	r2, r2, #1
    8a2c:	15c43000 	strbne	r3, [r4]
    8a30:	12844001 	addne	r4, r4, #1
    8a34:	1a000081 	bne	8c40 <va_printk+0x248>
    8a38:	e5d21001 	ldrb	r1, [r2, #1]
    8a3c:	e3510025 	cmp	r1, #37	; 0x25
    8a40:	05c43000 	strbeq	r3, [r4]
    8a44:	02822002 	addeq	r2, r2, #2
    8a48:	02844001 	addeq	r4, r4, #1
    8a4c:	0a00007b 	beq	8c40 <va_printk+0x248>
    8a50:	e2826001 	add	r6, r2, #1
    8a54:	e1a0700b 	mov	r7, fp
    8a58:	ea000004 	b	8a70 <va_printk+0x78>
    8a5c:	e0877107 	add	r7, r7, r7, lsl #2
    8a60:	e1a07087 	lsl	r7, r7, #1
    8a64:	e0877005 	add	r7, r7, r5
    8a68:	e2477030 	sub	r7, r7, #48	; 0x30
    8a6c:	e2866001 	add	r6, r6, #1
    8a70:	e5d65000 	ldrb	r5, [r6]
    8a74:	e1a00005 	mov	r0, r5
    8a78:	ebffff42 	bl	8788 <isdigit>
    8a7c:	e3500000 	cmp	r0, #0
    8a80:	1afffff5 	bne	8a5c <va_printk+0x64>
    8a84:	e357001f 	cmp	r7, #31
    8a88:	9a000006 	bls	8aa8 <va_printk+0xb0>
    8a8c:	ebffff26 	bl	872c <rpi_reset_putc>
    8a90:	e59f01d4 	ldr	r0, [pc, #468]	; 8c6c <va_printk+0x274>
    8a94:	e59f11d4 	ldr	r1, [pc, #468]	; 8c70 <va_printk+0x278>
    8a98:	e59f21d4 	ldr	r2, [pc, #468]	; 8c74 <va_printk+0x27c>
    8a9c:	e3a03092 	mov	r3, #146	; 0x92
    8aa0:	ebffff06 	bl	86c0 <printk>
    8aa4:	eb000075 	bl	8c80 <clean_reboot>
    8aa8:	e2455062 	sub	r5, r5, #98	; 0x62
    8aac:	e3550016 	cmp	r5, #22
    8ab0:	979ff105 	ldrls	pc, [pc, r5, lsl #2]
    8ab4:	ea00004e 	b	8bf4 <va_printk+0x1fc>
    8ab8:	00008ba0 	andeq	r8, r0, r0, lsr #23
    8abc:	00008bd0 	ldrdeq	r8, [r0], -r0
    8ac0:	00008b30 	andeq	r8, r0, r0, lsr fp
    8ac4:	00008bf4 	strdeq	r8, [r0], -r4
    8ac8:	00008b14 	andeq	r8, r0, r4, lsl fp
    8acc:	00008bf4 	strdeq	r8, [r0], -r4
    8ad0:	00008bf4 	strdeq	r8, [r0], -r4
    8ad4:	00008bf4 	strdeq	r8, [r0], -r4
    8ad8:	00008bf4 	strdeq	r8, [r0], -r4
    8adc:	00008bf4 	strdeq	r8, [r0], -r4
    8ae0:	00008bf4 	strdeq	r8, [r0], -r4
    8ae4:	00008bf4 	strdeq	r8, [r0], -r4
    8ae8:	00008bf4 	strdeq	r8, [r0], -r4
    8aec:	00008bf4 	strdeq	r8, [r0], -r4
    8af0:	00008b7c 	andeq	r8, r0, ip, ror fp
    8af4:	00008bf4 	strdeq	r8, [r0], -r4
    8af8:	00008bf4 	strdeq	r8, [r0], -r4
    8afc:	00008bc4 	andeq	r8, r0, r4, asr #23
    8b00:	00008bf4 	strdeq	r8, [r0], -r4
    8b04:	00008b58 	andeq	r8, r0, r8, asr fp
    8b08:	00008bf4 	strdeq	r8, [r0], -r4
    8b0c:	00008bf4 	strdeq	r8, [r0], -r4
    8b10:	00008b7c 	andeq	r8, r0, ip, ror fp
    8b14:	ebffff04 	bl	872c <rpi_reset_putc>
    8b18:	e59f0158 	ldr	r0, [pc, #344]	; 8c78 <va_printk+0x280>
    8b1c:	e59f114c 	ldr	r1, [pc, #332]	; 8c70 <va_printk+0x278>
    8b20:	e59f214c 	ldr	r2, [pc, #332]	; 8c74 <va_printk+0x27c>
    8b24:	e3a03098 	mov	r3, #152	; 0x98
    8b28:	ebfffee4 	bl	86c0 <printk>
    8b2c:	eb000053 	bl	8c80 <clean_reboot>
    8b30:	e5993000 	ldr	r3, [r9]
    8b34:	e2899004 	add	r9, r9, #4
    8b38:	e58d7000 	str	r7, [sp]
    8b3c:	e3a02001 	mov	r2, #1
    8b40:	e58d2004 	str	r2, [sp, #4]
    8b44:	e3a0000a 	mov	r0, #10
    8b48:	e28d1008 	add	r1, sp, #8
    8b4c:	e3a02080 	mov	r2, #128	; 0x80
    8b50:	ebffff2c 	bl	8808 <emit>
    8b54:	ea00002f 	b	8c18 <va_printk+0x220>
    8b58:	e5993000 	ldr	r3, [r9]
    8b5c:	e2899004 	add	r9, r9, #4
    8b60:	e58d7000 	str	r7, [sp]
    8b64:	e58db004 	str	fp, [sp, #4]
    8b68:	e3a0000a 	mov	r0, #10
    8b6c:	e28d1008 	add	r1, sp, #8
    8b70:	e3a02080 	mov	r2, #128	; 0x80
    8b74:	ebffff23 	bl	8808 <emit>
    8b78:	ea000026 	b	8c18 <va_printk+0x220>
    8b7c:	e5993000 	ldr	r3, [r9]
    8b80:	e2899004 	add	r9, r9, #4
    8b84:	e58d7000 	str	r7, [sp]
    8b88:	e58db004 	str	fp, [sp, #4]
    8b8c:	e3a00010 	mov	r0, #16
    8b90:	e28d1008 	add	r1, sp, #8
    8b94:	e3a02080 	mov	r2, #128	; 0x80
    8b98:	ebffff1a 	bl	8808 <emit>
    8b9c:	ea00001d 	b	8c18 <va_printk+0x220>
    8ba0:	e5993000 	ldr	r3, [r9]
    8ba4:	e2899004 	add	r9, r9, #4
    8ba8:	e58d7000 	str	r7, [sp]
    8bac:	e58db004 	str	fp, [sp, #4]
    8bb0:	e3a00002 	mov	r0, #2
    8bb4:	e28d1008 	add	r1, sp, #8
    8bb8:	e3a02080 	mov	r2, #128	; 0x80
    8bbc:	ebffff11 	bl	8808 <emit>
    8bc0:	ea000014 	b	8c18 <va_printk+0x220>
    8bc4:	e5990000 	ldr	r0, [r9]
    8bc8:	e2899004 	add	r9, r9, #4
    8bcc:	ea000011 	b	8c18 <va_printk+0x220>
    8bd0:	e5993000 	ldr	r3, [r9]
    8bd4:	e2899004 	add	r9, r9, #4
    8bd8:	e58d7000 	str	r7, [sp]
    8bdc:	e58db004 	str	fp, [sp, #4]
    8be0:	e3a00008 	mov	r0, #8
    8be4:	e08d1000 	add	r1, sp, r0
    8be8:	e3a02080 	mov	r2, #128	; 0x80
    8bec:	ebffff05 	bl	8808 <emit>
    8bf0:	ea000008 	b	8c18 <va_printk+0x220>
    8bf4:	ebfffecc 	bl	872c <rpi_reset_putc>
    8bf8:	e5d63000 	ldrb	r3, [r6]
    8bfc:	e58d3000 	str	r3, [sp]
    8c00:	e59f0074 	ldr	r0, [pc, #116]	; 8c7c <va_printk+0x284>
    8c04:	e59f1064 	ldr	r1, [pc, #100]	; 8c70 <va_printk+0x278>
    8c08:	e59f2064 	ldr	r2, [pc, #100]	; 8c74 <va_printk+0x27c>
    8c0c:	e3a030b9 	mov	r3, #185	; 0xb9
    8c10:	ebfffeaa 	bl	86c0 <printk>
    8c14:	eb000019 	bl	8c80 <clean_reboot>
    8c18:	e2862001 	add	r2, r6, #1
    8c1c:	ea000002 	b	8c2c <va_printk+0x234>
    8c20:	e2800001 	add	r0, r0, #1
    8c24:	e5c43000 	strb	r3, [r4]
    8c28:	e2844001 	add	r4, r4, #1
    8c2c:	e1540008 	cmp	r4, r8
    8c30:	2a000002 	bcs	8c40 <va_printk+0x248>
    8c34:	e5d03000 	ldrb	r3, [r0]
    8c38:	e3530000 	cmp	r3, #0
    8c3c:	1afffff7 	bne	8c20 <va_printk+0x228>
    8c40:	e5d23000 	ldrb	r3, [r2]
    8c44:	e3530000 	cmp	r3, #0
    8c48:	0a000001 	beq	8c54 <va_printk+0x25c>
    8c4c:	e1540008 	cmp	r4, r8
    8c50:	3affff73 	bcc	8a24 <va_printk+0x2c>
    8c54:	e2840001 	add	r0, r4, #1
    8c58:	e3a03000 	mov	r3, #0
    8c5c:	e5c43000 	strb	r3, [r4]
    8c60:	e06a0000 	rsb	r0, sl, r0
    8c64:	e28dd08c 	add	sp, sp, #140	; 0x8c
    8c68:	e8bd8ff0 	pop	{r4, r5, r6, r7, r8, r9, sl, fp, pc}
    8c6c:	0000a16c 	andeq	sl, r0, ip, ror #2
    8c70:	0000a11c 	andeq	sl, r0, ip, lsl r1
    8c74:	0000a0fc 	strdeq	sl, [r0], -ip
    8c78:	0000a188 	andeq	sl, r0, r8, lsl #3
    8c7c:	0000a1b0 			; <UNDEFINED> instruction: 0x0000a1b0

00008c80 <clean_reboot>:
    8c80:	e92d4008 	push	{r3, lr}
    8c84:	e59f3014 	ldr	r3, [pc, #20]	; 8ca0 <clean_reboot+0x20>
    8c88:	e5933000 	ldr	r3, [r3]
    8c8c:	e59f0010 	ldr	r0, [pc, #16]	; 8ca4 <clean_reboot+0x24>
    8c90:	e12fff33 	blx	r3
    8c94:	e3a00064 	mov	r0, #100	; 0x64
    8c98:	eb000063 	bl	8e2c <delay_ms>
    8c9c:	eb000038 	bl	8d84 <rpi_reboot>
    8ca0:	00009f14 	andeq	r9, r0, r4, lsl pc
    8ca4:	0000a1e8 	andeq	sl, r0, r8, ror #3

00008ca8 <internal_sw_putchar>:
    8ca8:	e92d4010 	push	{r4, lr}
    8cac:	e1a04000 	mov	r4, r0
    8cb0:	e59f000c 	ldr	r0, [pc, #12]	; 8cc4 <internal_sw_putchar+0x1c>
    8cb4:	e6ef1074 	uxtb	r1, r4
    8cb8:	eb0001d4 	bl	9410 <sw_uart_putc>
    8cbc:	e1a00004 	mov	r0, r4
    8cc0:	e8bd8010 	pop	{r4, pc}
    8cc4:	0000e8e4 	andeq	lr, r0, r4, ror #17

00008cc8 <_cstart>:
    8cc8:	e92d4008 	push	{r3, lr}
    8ccc:	e59f3068 	ldr	r3, [pc, #104]	; 8d3c <_cstart+0x74>
    8cd0:	e59f2068 	ldr	r2, [pc, #104]	; 8d40 <_cstart+0x78>
    8cd4:	e3a01000 	mov	r1, #0
    8cd8:	ea000001 	b	8ce4 <_cstart+0x1c>
    8cdc:	e5831000 	str	r1, [r3]
    8ce0:	e2833004 	add	r3, r3, #4
    8ce4:	e1530002 	cmp	r3, r2
    8ce8:	3afffffb 	bcc	8cdc <_cstart+0x14>
    8cec:	eb00047d 	bl	9ee8 <cb_get_block>
    8cf0:	e3500000 	cmp	r0, #0
    8cf4:	0a00000e 	beq	8d34 <_cstart+0x6c>
    8cf8:	e5d02004 	ldrb	r2, [r0, #4]
    8cfc:	e3520002 	cmp	r2, #2
    8d00:	1a00000b 	bne	8d34 <_cstart+0x6c>
    8d04:	e59f1038 	ldr	r1, [pc, #56]	; 8d44 <_cstart+0x7c>
    8d08:	e59f2038 	ldr	r2, [pc, #56]	; 8d48 <_cstart+0x80>
    8d0c:	e5821000 	str	r1, [r2]
    8d10:	e59fc034 	ldr	ip, [pc, #52]	; 8d4c <_cstart+0x84>
    8d14:	e2803008 	add	r3, r0, #8
    8d18:	e8930007 	ldm	r3, {r0, r1, r2}
    8d1c:	e88c0007 	stm	ip, {r0, r1, r2}
    8d20:	e1a0000c 	mov	r0, ip
    8d24:	e59f1024 	ldr	r1, [pc, #36]	; 8d50 <_cstart+0x88>
    8d28:	eb00030c 	bl	9960 <sw_uart_printk>
    8d2c:	e59f0020 	ldr	r0, [pc, #32]	; 8d54 <_cstart+0x8c>
    8d30:	ebfffe62 	bl	86c0 <printk>
    8d34:	ebfffe21 	bl	85c0 <notmain>
    8d38:	eb000011 	bl	8d84 <rpi_reboot>
    8d3c:	0000a4b4 			; <UNDEFINED> instruction: 0x0000a4b4
    8d40:	0000e8f8 	strdeq	lr, [r0], -r8
    8d44:	00008ca8 	andeq	r8, r0, r8, lsr #25
    8d48:	00009f10 	andeq	r9, r0, r0, lsl pc
    8d4c:	0000e8e4 	andeq	lr, r0, r4, ror #17
    8d50:	0000a1f4 	strdeq	sl, [r0], -r4
    8d54:	0000a218 	andeq	sl, r0, r8, lsl r2

00008d58 <at_user_level>:
    8d58:	e10f0000 	mrs	r0, CPSR
    8d5c:	e200001f 	and	r0, r0, #31
    8d60:	e3500010 	cmp	r0, #16
    8d64:	13a00000 	movne	r0, #0
    8d68:	03a00001 	moveq	r0, #1
    8d6c:	e12fff1e 	bx	lr

00008d70 <set_user_level>:
    8d70:	e10f3000 	mrs	r3, CPSR
    8d74:	e3c3301f 	bic	r3, r3, #31
    8d78:	e3833010 	orr	r3, r3, #16
    8d7c:	e129f003 	msr	CPSR_fc, r3
    8d80:	e12fff1e 	bx	lr

00008d84 <rpi_reboot>:
    8d84:	e92d4008 	push	{r3, lr}
    8d88:	ebfffff2 	bl	8d58 <at_user_level>
    8d8c:	e3500000 	cmp	r0, #0
    8d90:	0a000000 	beq	8d98 <rpi_reboot+0x14>
    8d94:	ebfffff5 	bl	8d70 <set_user_level>
    8d98:	e3a0001e 	mov	r0, #30
    8d9c:	eb000022 	bl	8e2c <delay_ms>
    8da0:	e59f0014 	ldr	r0, [pc, #20]	; 8dbc <rpi_reboot+0x38>
    8da4:	e59f1014 	ldr	r1, [pc, #20]	; 8dc0 <rpi_reboot+0x3c>
    8da8:	eb0003fd 	bl	9da4 <PUT32>
    8dac:	e59f0010 	ldr	r0, [pc, #16]	; 8dc4 <rpi_reboot+0x40>
    8db0:	e59f1010 	ldr	r1, [pc, #16]	; 8dc8 <rpi_reboot+0x44>
    8db4:	eb0003fa 	bl	9da4 <PUT32>
    8db8:	eafffffe 	b	8db8 <rpi_reboot+0x34>
    8dbc:	20100024 	andscs	r0, r0, r4, lsr #32
    8dc0:	5a000001 	bpl	8dcc <delay_cycles>
    8dc4:	2010001c 	andscs	r0, r0, ip, lsl r0
    8dc8:	5a000020 	bpl	8e50 <delay_sec+0x10>

00008dcc <delay_cycles>:
    8dcc:	ea000001 	b	8dd8 <delay_cycles+0xc>
    8dd0:	e2811000 	add	r1, r1, #0
    8dd4:	e1a00003 	mov	r0, r3
    8dd8:	e2403001 	sub	r3, r0, #1
    8ddc:	e3500000 	cmp	r0, #0
    8de0:	1afffffa 	bne	8dd0 <delay_cycles+0x4>
    8de4:	e12fff1e 	bx	lr

00008de8 <timer_get_usec_raw>:
    8de8:	e92d4008 	push	{r3, lr}
    8dec:	e59f0004 	ldr	r0, [pc, #4]	; 8df8 <timer_get_usec_raw+0x10>
    8df0:	eb0003f7 	bl	9dd4 <GET32>
    8df4:	e8bd8008 	pop	{r3, pc}
    8df8:	20003004 	andcs	r3, r0, r4

00008dfc <timer_get_usec>:
    8dfc:	e92d4008 	push	{r3, lr}
    8e00:	ebfffff8 	bl	8de8 <timer_get_usec_raw>
    8e04:	e8bd8008 	pop	{r3, pc}

00008e08 <delay_us>:
    8e08:	e92d4038 	push	{r3, r4, r5, lr}
    8e0c:	e1a05000 	mov	r5, r0
    8e10:	ebfffff9 	bl	8dfc <timer_get_usec>
    8e14:	e1a04000 	mov	r4, r0
    8e18:	ebfffff7 	bl	8dfc <timer_get_usec>
    8e1c:	e0640000 	rsb	r0, r4, r0
    8e20:	e1500005 	cmp	r0, r5
    8e24:	3afffffb 	bcc	8e18 <delay_us+0x10>
    8e28:	e8bd8038 	pop	{r3, r4, r5, pc}

00008e2c <delay_ms>:
    8e2c:	e92d4008 	push	{r3, lr}
    8e30:	e3a03ffa 	mov	r3, #1000	; 0x3e8
    8e34:	e0000093 	mul	r0, r3, r0
    8e38:	ebfffff2 	bl	8e08 <delay_us>
    8e3c:	e8bd8008 	pop	{r3, pc}

00008e40 <delay_sec>:
    8e40:	e92d4008 	push	{r3, lr}
    8e44:	e3a03ffa 	mov	r3, #1000	; 0x3e8
    8e48:	e0000093 	mul	r0, r3, r0
    8e4c:	ebfffff6 	bl	8e2c <delay_ms>
    8e50:	e8bd8008 	pop	{r3, pc}

00008e54 <gpio_set_output>:
    8e54:	e92d4038 	push	{r3, r4, r5, lr}
    8e58:	e1a04000 	mov	r4, r0
    8e5c:	e350001f 	cmp	r0, #31
    8e60:	88bd8038 	pophi	{r3, r4, r5, pc}
    8e64:	e59f30b4 	ldr	r3, [pc, #180]	; 8f20 <gpio_set_output+0xcc>
    8e68:	e0832093 	umull	r2, r3, r3, r0
    8e6c:	e1a031a3 	lsr	r3, r3, #3
    8e70:	e3530005 	cmp	r3, #5
    8e74:	979ff103 	ldrls	pc, [pc, r3, lsl #2]
    8e78:	ea000017 	b	8edc <gpio_set_output+0x88>
    8e7c:	00008e94 	muleq	r0, r4, lr
    8e80:	00008ea0 	andeq	r8, r0, r0, lsr #29
    8e84:	00008eac 	andeq	r8, r0, ip, lsr #29
    8e88:	00008eb8 			; <UNDEFINED> instruction: 0x00008eb8
    8e8c:	00008ec4 	andeq	r8, r0, r4, asr #29
    8e90:	00008ed0 	ldrdeq	r8, [r0], -r0
    8e94:	e59f3088 	ldr	r3, [pc, #136]	; 8f24 <gpio_set_output+0xd0>
    8e98:	e5935000 	ldr	r5, [r3]
    8e9c:	ea00000f 	b	8ee0 <gpio_set_output+0x8c>
    8ea0:	e59f307c 	ldr	r3, [pc, #124]	; 8f24 <gpio_set_output+0xd0>
    8ea4:	e5935004 	ldr	r5, [r3, #4]
    8ea8:	ea00000c 	b	8ee0 <gpio_set_output+0x8c>
    8eac:	e59f3070 	ldr	r3, [pc, #112]	; 8f24 <gpio_set_output+0xd0>
    8eb0:	e5935008 	ldr	r5, [r3, #8]
    8eb4:	ea000009 	b	8ee0 <gpio_set_output+0x8c>
    8eb8:	e59f3064 	ldr	r3, [pc, #100]	; 8f24 <gpio_set_output+0xd0>
    8ebc:	e593500c 	ldr	r5, [r3, #12]
    8ec0:	ea000006 	b	8ee0 <gpio_set_output+0x8c>
    8ec4:	e59f3058 	ldr	r3, [pc, #88]	; 8f24 <gpio_set_output+0xd0>
    8ec8:	e5935010 	ldr	r5, [r3, #16]
    8ecc:	ea000003 	b	8ee0 <gpio_set_output+0x8c>
    8ed0:	e59f304c 	ldr	r3, [pc, #76]	; 8f24 <gpio_set_output+0xd0>
    8ed4:	e5935014 	ldr	r5, [r3, #20]
    8ed8:	ea000000 	b	8ee0 <gpio_set_output+0x8c>
    8edc:	e3a05000 	mov	r5, #0
    8ee0:	e1a00005 	mov	r0, r5
    8ee4:	eb0003b8 	bl	9dcc <get32>
    8ee8:	e59f1030 	ldr	r1, [pc, #48]	; 8f20 <gpio_set_output+0xcc>
    8eec:	e0813491 	umull	r3, r1, r1, r4
    8ef0:	e1a011a1 	lsr	r1, r1, #3
    8ef4:	e0811101 	add	r1, r1, r1, lsl #2
    8ef8:	e1a01081 	lsl	r1, r1, #1
    8efc:	e0611004 	rsb	r1, r1, r4
    8f00:	e0811081 	add	r1, r1, r1, lsl #1
    8f04:	e3a03007 	mov	r3, #7
    8f08:	e1c03113 	bic	r3, r0, r3, lsl r1
    8f0c:	e1a00005 	mov	r0, r5
    8f10:	e3a02001 	mov	r2, #1
    8f14:	e1831112 	orr	r1, r3, r2, lsl r1
    8f18:	eb00039f 	bl	9d9c <put32>
    8f1c:	e8bd8038 	pop	{r3, r4, r5, pc}
    8f20:	cccccccd 	stclgt	12, cr12, [ip], {205}	; 0xcd
    8f24:	00009f18 	andeq	r9, r0, r8, lsl pc

00008f28 <gpio_set_on>:
    8f28:	e92d4008 	push	{r3, lr}
    8f2c:	e350001f 	cmp	r0, #31
    8f30:	88bd8008 	pophi	{r3, pc}
    8f34:	959f3020 	ldrls	r3, [pc, #32]	; 8f5c <gpio_set_on+0x34>
    8f38:	95932018 	ldrls	r2, [r3, #24]
    8f3c:	859f3018 	ldrhi	r3, [pc, #24]	; 8f5c <gpio_set_on+0x34>
    8f40:	8593201c 	ldrhi	r2, [r3, #28]
    8f44:	e200301f 	and	r3, r0, #31
    8f48:	e1a00002 	mov	r0, r2
    8f4c:	e3a01001 	mov	r1, #1
    8f50:	e1a01311 	lsl	r1, r1, r3
    8f54:	eb000390 	bl	9d9c <put32>
    8f58:	e8bd8008 	pop	{r3, pc}
    8f5c:	00009f18 	andeq	r9, r0, r8, lsl pc

00008f60 <gpio_set_off>:
    8f60:	e92d4008 	push	{r3, lr}
    8f64:	e350001f 	cmp	r0, #31
    8f68:	88bd8008 	pophi	{r3, pc}
    8f6c:	959f3020 	ldrls	r3, [pc, #32]	; 8f94 <gpio_set_off+0x34>
    8f70:	95932020 	ldrls	r2, [r3, #32]
    8f74:	859f3018 	ldrhi	r3, [pc, #24]	; 8f94 <gpio_set_off+0x34>
    8f78:	85932024 	ldrhi	r2, [r3, #36]	; 0x24
    8f7c:	e200301f 	and	r3, r0, #31
    8f80:	e1a00002 	mov	r0, r2
    8f84:	e3a01001 	mov	r1, #1
    8f88:	e1a01311 	lsl	r1, r1, r3
    8f8c:	eb000382 	bl	9d9c <put32>
    8f90:	e8bd8008 	pop	{r3, pc}
    8f94:	00009f18 	andeq	r9, r0, r8, lsl pc

00008f98 <gpio_set_input>:
    8f98:	e92d4038 	push	{r3, r4, r5, lr}
    8f9c:	e1a04000 	mov	r4, r0
    8fa0:	e350001f 	cmp	r0, #31
    8fa4:	88bd8038 	pophi	{r3, r4, r5, pc}
    8fa8:	e59f30ac 	ldr	r3, [pc, #172]	; 905c <gpio_set_input+0xc4>
    8fac:	e0832093 	umull	r2, r3, r3, r0
    8fb0:	e1a031a3 	lsr	r3, r3, #3
    8fb4:	e3530005 	cmp	r3, #5
    8fb8:	979ff103 	ldrls	pc, [pc, r3, lsl #2]
    8fbc:	ea000017 	b	9020 <gpio_set_input+0x88>
    8fc0:	00008fd8 	ldrdeq	r8, [r0], -r8	; <UNPREDICTABLE>
    8fc4:	00008fe4 	andeq	r8, r0, r4, ror #31
    8fc8:	00008ff0 	strdeq	r8, [r0], -r0
    8fcc:	00008ffc 	strdeq	r8, [r0], -ip
    8fd0:	00009008 	andeq	r9, r0, r8
    8fd4:	00009014 	andeq	r9, r0, r4, lsl r0
    8fd8:	e59f3080 	ldr	r3, [pc, #128]	; 9060 <gpio_set_input+0xc8>
    8fdc:	e5935000 	ldr	r5, [r3]
    8fe0:	ea00000f 	b	9024 <gpio_set_input+0x8c>
    8fe4:	e59f3074 	ldr	r3, [pc, #116]	; 9060 <gpio_set_input+0xc8>
    8fe8:	e5935004 	ldr	r5, [r3, #4]
    8fec:	ea00000c 	b	9024 <gpio_set_input+0x8c>
    8ff0:	e59f3068 	ldr	r3, [pc, #104]	; 9060 <gpio_set_input+0xc8>
    8ff4:	e5935008 	ldr	r5, [r3, #8]
    8ff8:	ea000009 	b	9024 <gpio_set_input+0x8c>
    8ffc:	e59f305c 	ldr	r3, [pc, #92]	; 9060 <gpio_set_input+0xc8>
    9000:	e593500c 	ldr	r5, [r3, #12]
    9004:	ea000006 	b	9024 <gpio_set_input+0x8c>
    9008:	e59f3050 	ldr	r3, [pc, #80]	; 9060 <gpio_set_input+0xc8>
    900c:	e5935010 	ldr	r5, [r3, #16]
    9010:	ea000003 	b	9024 <gpio_set_input+0x8c>
    9014:	e59f3044 	ldr	r3, [pc, #68]	; 9060 <gpio_set_input+0xc8>
    9018:	e5935014 	ldr	r5, [r3, #20]
    901c:	ea000000 	b	9024 <gpio_set_input+0x8c>
    9020:	e3a05000 	mov	r5, #0
    9024:	e1a00005 	mov	r0, r5
    9028:	eb000367 	bl	9dcc <get32>
    902c:	e59f1028 	ldr	r1, [pc, #40]	; 905c <gpio_set_input+0xc4>
    9030:	e0813491 	umull	r3, r1, r1, r4
    9034:	e1a011a1 	lsr	r1, r1, #3
    9038:	e0811101 	add	r1, r1, r1, lsl #2
    903c:	e1a01081 	lsl	r1, r1, #1
    9040:	e0611004 	rsb	r1, r1, r4
    9044:	e0811081 	add	r1, r1, r1, lsl #1
    9048:	e3a03007 	mov	r3, #7
    904c:	e1c01113 	bic	r1, r0, r3, lsl r1
    9050:	e1a00005 	mov	r0, r5
    9054:	eb000350 	bl	9d9c <put32>
    9058:	e8bd8038 	pop	{r3, r4, r5, pc}
    905c:	cccccccd 	stclgt	12, cr12, [ip], {205}	; 0xcd
    9060:	00009f18 	andeq	r9, r0, r8, lsl pc

00009064 <gpio_read>:
    9064:	e92d4010 	push	{r4, lr}
    9068:	e1a04000 	mov	r4, r0
    906c:	e350001f 	cmp	r0, #31
    9070:	8a00000b 	bhi	90a4 <gpio_read+0x40>
    9074:	8a000003 	bhi	9088 <gpio_read+0x24>
    9078:	e59f302c 	ldr	r3, [pc, #44]	; 90ac <gpio_read+0x48>
    907c:	e5930028 	ldr	r0, [r3, #40]	; 0x28
    9080:	eb000351 	bl	9dcc <get32>
    9084:	ea000002 	b	9094 <gpio_read+0x30>
    9088:	e59f301c 	ldr	r3, [pc, #28]	; 90ac <gpio_read+0x48>
    908c:	e593002c 	ldr	r0, [r3, #44]	; 0x2c
    9090:	eb00034d 	bl	9dcc <get32>
    9094:	e204401f 	and	r4, r4, #31
    9098:	e3a03001 	mov	r3, #1
    909c:	e0000413 	and	r0, r0, r3, lsl r4
    90a0:	e8bd8010 	pop	{r4, pc}
    90a4:	e3e00000 	mvn	r0, #0
    90a8:	e8bd8010 	pop	{r4, pc}
    90ac:	00009f18 	andeq	r9, r0, r8, lsl pc

000090b0 <gpio_write>:
    90b0:	e92d4008 	push	{r3, lr}
    90b4:	e350001f 	cmp	r0, #31
    90b8:	88bd8008 	pophi	{r3, pc}
    90bc:	e3510000 	cmp	r1, #0
    90c0:	0a00000b 	beq	90f4 <gpio_write+0x44>
    90c4:	e350001f 	cmp	r0, #31
    90c8:	88bd8008 	pophi	{r3, pc}
    90cc:	959f3050 	ldrls	r3, [pc, #80]	; 9124 <gpio_write+0x74>
    90d0:	95932018 	ldrls	r2, [r3, #24]
    90d4:	859f3048 	ldrhi	r3, [pc, #72]	; 9124 <gpio_write+0x74>
    90d8:	8593201c 	ldrhi	r2, [r3, #28]
    90dc:	e200301f 	and	r3, r0, #31
    90e0:	e1a00002 	mov	r0, r2
    90e4:	e3a01001 	mov	r1, #1
    90e8:	e1a01311 	lsl	r1, r1, r3
    90ec:	eb00032a 	bl	9d9c <put32>
    90f0:	e8bd8008 	pop	{r3, pc}
    90f4:	e350001f 	cmp	r0, #31
    90f8:	88bd8008 	pophi	{r3, pc}
    90fc:	959f3020 	ldrls	r3, [pc, #32]	; 9124 <gpio_write+0x74>
    9100:	95932020 	ldrls	r2, [r3, #32]
    9104:	859f3018 	ldrhi	r3, [pc, #24]	; 9124 <gpio_write+0x74>
    9108:	85932024 	ldrhi	r2, [r3, #36]	; 0x24
    910c:	e200301f 	and	r3, r0, #31
    9110:	e1a00002 	mov	r0, r2
    9114:	e3a01001 	mov	r1, #1
    9118:	e1a01311 	lsl	r1, r1, r3
    911c:	eb00031e 	bl	9d9c <put32>
    9120:	e8bd8008 	pop	{r3, pc}
    9124:	00009f18 	andeq	r9, r0, r8, lsl pc

00009128 <gpio_set_function>:
    9128:	e92d4070 	push	{r4, r5, r6, lr}
    912c:	e1a04000 	mov	r4, r0
    9130:	e1a05001 	mov	r5, r1
    9134:	e3510007 	cmp	r1, #7
    9138:	9350001f 	cmpls	r0, #31
    913c:	88bd8070 	pophi	{r4, r5, r6, pc}
    9140:	e59f30b0 	ldr	r3, [pc, #176]	; 91f8 <gpio_set_function+0xd0>
    9144:	e0832093 	umull	r2, r3, r3, r0
    9148:	e1a031a3 	lsr	r3, r3, #3
    914c:	e3530005 	cmp	r3, #5
    9150:	979ff103 	ldrls	pc, [pc, r3, lsl #2]
    9154:	ea000017 	b	91b8 <gpio_set_function+0x90>
    9158:	00009170 	andeq	r9, r0, r0, ror r1
    915c:	0000917c 	andeq	r9, r0, ip, ror r1
    9160:	00009188 	andeq	r9, r0, r8, lsl #3
    9164:	00009194 	muleq	r0, r4, r1
    9168:	000091a0 	andeq	r9, r0, r0, lsr #3
    916c:	000091ac 	andeq	r9, r0, ip, lsr #3
    9170:	e59f3084 	ldr	r3, [pc, #132]	; 91fc <gpio_set_function+0xd4>
    9174:	e5936000 	ldr	r6, [r3]
    9178:	ea00000f 	b	91bc <gpio_set_function+0x94>
    917c:	e59f3078 	ldr	r3, [pc, #120]	; 91fc <gpio_set_function+0xd4>
    9180:	e5936004 	ldr	r6, [r3, #4]
    9184:	ea00000c 	b	91bc <gpio_set_function+0x94>
    9188:	e59f306c 	ldr	r3, [pc, #108]	; 91fc <gpio_set_function+0xd4>
    918c:	e5936008 	ldr	r6, [r3, #8]
    9190:	ea000009 	b	91bc <gpio_set_function+0x94>
    9194:	e59f3060 	ldr	r3, [pc, #96]	; 91fc <gpio_set_function+0xd4>
    9198:	e593600c 	ldr	r6, [r3, #12]
    919c:	ea000006 	b	91bc <gpio_set_function+0x94>
    91a0:	e59f3054 	ldr	r3, [pc, #84]	; 91fc <gpio_set_function+0xd4>
    91a4:	e5936010 	ldr	r6, [r3, #16]
    91a8:	ea000003 	b	91bc <gpio_set_function+0x94>
    91ac:	e59f3048 	ldr	r3, [pc, #72]	; 91fc <gpio_set_function+0xd4>
    91b0:	e5936014 	ldr	r6, [r3, #20]
    91b4:	ea000000 	b	91bc <gpio_set_function+0x94>
    91b8:	e3a06000 	mov	r6, #0
    91bc:	e1a00006 	mov	r0, r6
    91c0:	eb000301 	bl	9dcc <get32>
    91c4:	e59f302c 	ldr	r3, [pc, #44]	; 91f8 <gpio_set_function+0xd0>
    91c8:	e0832493 	umull	r2, r3, r3, r4
    91cc:	e1a031a3 	lsr	r3, r3, #3
    91d0:	e0833103 	add	r3, r3, r3, lsl #2
    91d4:	e1a03083 	lsl	r3, r3, #1
    91d8:	e0633004 	rsb	r3, r3, r4
    91dc:	e0833083 	add	r3, r3, r3, lsl #1
    91e0:	e3a01007 	mov	r1, #7
    91e4:	e1c01311 	bic	r1, r0, r1, lsl r3
    91e8:	e1a00006 	mov	r0, r6
    91ec:	e1811315 	orr	r1, r1, r5, lsl r3
    91f0:	eb0002e9 	bl	9d9c <put32>
    91f4:	e8bd8070 	pop	{r4, r5, r6, pc}
    91f8:	cccccccd 	stclgt	12, cr12, [ip], {205}	; 0xcd
    91fc:	00009f18 	andeq	r9, r0, r8, lsl pc

00009200 <is_gpio_int>:
    9200:	e92d4008 	push	{r3, lr}
    9204:	e59f301c 	ldr	r3, [pc, #28]	; 9228 <is_gpio_int+0x28>
    9208:	e5930030 	ldr	r0, [r3, #48]	; 0x30
    920c:	eb0002ee 	bl	9dcc <get32>
    9210:	e3500000 	cmp	r0, #0
    9214:	0a000001 	beq	9220 <is_gpio_int+0x20>
    9218:	e3a00001 	mov	r0, #1
    921c:	e8bd8008 	pop	{r3, pc}
    9220:	e3a00000 	mov	r0, #0
    9224:	e8bd8008 	pop	{r3, pc}
    9228:	00009f18 	andeq	r9, r0, r8, lsl pc

0000922c <gpio_int_rising_edge>:
    922c:	e92d4038 	push	{r3, r4, r5, lr}
    9230:	e1a04000 	mov	r4, r0
    9234:	e350001f 	cmp	r0, #31
    9238:	88bd8038 	pophi	{r3, r4, r5, pc}
    923c:	eb0002d0 	bl	9d84 <dev_barrier>
    9240:	e354001f 	cmp	r4, #31
    9244:	8a000007 	bhi	9268 <gpio_int_rising_edge+0x3c>
    9248:	e59f505c 	ldr	r5, [pc, #92]	; 92ac <gpio_int_rising_edge+0x80>
    924c:	e5950034 	ldr	r0, [r5, #52]	; 0x34
    9250:	eb0002dd 	bl	9dcc <get32>
    9254:	e3a01001 	mov	r1, #1
    9258:	e1801411 	orr	r1, r0, r1, lsl r4
    925c:	e5950034 	ldr	r0, [r5, #52]	; 0x34
    9260:	eb0002cd 	bl	9d9c <put32>
    9264:	ea000007 	b	9288 <gpio_int_rising_edge+0x5c>
    9268:	e59f503c 	ldr	r5, [pc, #60]	; 92ac <gpio_int_rising_edge+0x80>
    926c:	e5950038 	ldr	r0, [r5, #56]	; 0x38
    9270:	eb0002d5 	bl	9dcc <get32>
    9274:	e204401f 	and	r4, r4, #31
    9278:	e3a01001 	mov	r1, #1
    927c:	e1801411 	orr	r1, r0, r1, lsl r4
    9280:	e5950038 	ldr	r0, [r5, #56]	; 0x38
    9284:	eb0002c4 	bl	9d9c <put32>
    9288:	eb0002bd 	bl	9d84 <dev_barrier>
    928c:	e59f4018 	ldr	r4, [pc, #24]	; 92ac <gpio_int_rising_edge+0x80>
    9290:	e594003c 	ldr	r0, [r4, #60]	; 0x3c
    9294:	eb0002cc 	bl	9dcc <get32>
    9298:	e3801802 	orr	r1, r0, #131072	; 0x20000
    929c:	e594003c 	ldr	r0, [r4, #60]	; 0x3c
    92a0:	eb0002bd 	bl	9d9c <put32>
    92a4:	eb0002b6 	bl	9d84 <dev_barrier>
    92a8:	e8bd8038 	pop	{r3, r4, r5, pc}
    92ac:	00009f18 	andeq	r9, r0, r8, lsl pc

000092b0 <gpio_int_falling_edge>:
    92b0:	e92d4038 	push	{r3, r4, r5, lr}
    92b4:	e1a04000 	mov	r4, r0
    92b8:	e350001f 	cmp	r0, #31
    92bc:	88bd8038 	pophi	{r3, r4, r5, pc}
    92c0:	eb0002af 	bl	9d84 <dev_barrier>
    92c4:	e354001f 	cmp	r4, #31
    92c8:	8a000007 	bhi	92ec <gpio_int_falling_edge+0x3c>
    92cc:	e59f505c 	ldr	r5, [pc, #92]	; 9330 <gpio_int_falling_edge+0x80>
    92d0:	e5950040 	ldr	r0, [r5, #64]	; 0x40
    92d4:	eb0002bc 	bl	9dcc <get32>
    92d8:	e3a01001 	mov	r1, #1
    92dc:	e1801411 	orr	r1, r0, r1, lsl r4
    92e0:	e5950040 	ldr	r0, [r5, #64]	; 0x40
    92e4:	eb0002ac 	bl	9d9c <put32>
    92e8:	ea000007 	b	930c <gpio_int_falling_edge+0x5c>
    92ec:	e59f503c 	ldr	r5, [pc, #60]	; 9330 <gpio_int_falling_edge+0x80>
    92f0:	e5950044 	ldr	r0, [r5, #68]	; 0x44
    92f4:	eb0002b4 	bl	9dcc <get32>
    92f8:	e204401f 	and	r4, r4, #31
    92fc:	e3a01001 	mov	r1, #1
    9300:	e1801411 	orr	r1, r0, r1, lsl r4
    9304:	e5950044 	ldr	r0, [r5, #68]	; 0x44
    9308:	eb0002a3 	bl	9d9c <put32>
    930c:	eb00029c 	bl	9d84 <dev_barrier>
    9310:	e59f4018 	ldr	r4, [pc, #24]	; 9330 <gpio_int_falling_edge+0x80>
    9314:	e594003c 	ldr	r0, [r4, #60]	; 0x3c
    9318:	eb0002ab 	bl	9dcc <get32>
    931c:	e3801601 	orr	r1, r0, #1048576	; 0x100000
    9320:	e594003c 	ldr	r0, [r4, #60]	; 0x3c
    9324:	eb00029c 	bl	9d9c <put32>
    9328:	eb000295 	bl	9d84 <dev_barrier>
    932c:	e8bd8038 	pop	{r3, r4, r5, pc}
    9330:	00009f18 	andeq	r9, r0, r8, lsl pc

00009334 <gpio_event_detected>:
    9334:	e92d4010 	push	{r4, lr}
    9338:	e1a04000 	mov	r4, r0
    933c:	e350001f 	cmp	r0, #31
    9340:	8a000019 	bhi	93ac <gpio_event_detected+0x78>
    9344:	eb00028e 	bl	9d84 <dev_barrier>
    9348:	e354001f 	cmp	r4, #31
    934c:	8a000008 	bhi	9374 <gpio_event_detected+0x40>
    9350:	e59f305c 	ldr	r3, [pc, #92]	; 93b4 <gpio_event_detected+0x80>
    9354:	e5930048 	ldr	r0, [r3, #72]	; 0x48
    9358:	eb00029b 	bl	9dcc <get32>
    935c:	e3a03001 	mov	r3, #1
    9360:	e0103413 	ands	r3, r0, r3, lsl r4
    9364:	0a00000d 	beq	93a0 <gpio_event_detected+0x6c>
    9368:	eb000285 	bl	9d84 <dev_barrier>
    936c:	e3a00001 	mov	r0, #1
    9370:	e8bd8010 	pop	{r4, pc}
    9374:	e59f3038 	ldr	r3, [pc, #56]	; 93b4 <gpio_event_detected+0x80>
    9378:	e593004c 	ldr	r0, [r3, #76]	; 0x4c
    937c:	eb000292 	bl	9dcc <get32>
    9380:	e3a03001 	mov	r3, #1
    9384:	e0004413 	and	r4, r0, r3, lsl r4
    9388:	eb00027d 	bl	9d84 <dev_barrier>
    938c:	e3540000 	cmp	r4, #0
    9390:	0a000002 	beq	93a0 <gpio_event_detected+0x6c>
    9394:	eb00027a 	bl	9d84 <dev_barrier>
    9398:	e3a00001 	mov	r0, #1
    939c:	e8bd8010 	pop	{r4, pc}
    93a0:	eb000277 	bl	9d84 <dev_barrier>
    93a4:	e3a00000 	mov	r0, #0
    93a8:	e8bd8010 	pop	{r4, pc}
    93ac:	e3e00000 	mvn	r0, #0
    93b0:	e8bd8010 	pop	{r4, pc}
    93b4:	00009f18 	andeq	r9, r0, r8, lsl pc

000093b8 <gpio_event_clear>:
    93b8:	e92d4010 	push	{r4, lr}
    93bc:	e1a04000 	mov	r4, r0
    93c0:	e350001f 	cmp	r0, #31
    93c4:	88bd8010 	pophi	{r4, pc}
    93c8:	eb00026d 	bl	9d84 <dev_barrier>
    93cc:	e354001f 	cmp	r4, #31
    93d0:	8a000005 	bhi	93ec <gpio_event_clear+0x34>
    93d4:	e59f3030 	ldr	r3, [pc, #48]	; 940c <gpio_event_clear+0x54>
    93d8:	e5930048 	ldr	r0, [r3, #72]	; 0x48
    93dc:	e3a01001 	mov	r1, #1
    93e0:	e1a01411 	lsl	r1, r1, r4
    93e4:	eb00026c 	bl	9d9c <put32>
    93e8:	ea000005 	b	9404 <gpio_event_clear+0x4c>
    93ec:	e204401f 	and	r4, r4, #31
    93f0:	e59f3014 	ldr	r3, [pc, #20]	; 940c <gpio_event_clear+0x54>
    93f4:	e593004c 	ldr	r0, [r3, #76]	; 0x4c
    93f8:	e3a01001 	mov	r1, #1
    93fc:	e1a01411 	lsl	r1, r1, r4
    9400:	eb000265 	bl	9d9c <put32>
    9404:	eb00025e 	bl	9d84 <dev_barrier>
    9408:	e8bd8010 	pop	{r4, pc}
    940c:	00009f18 	andeq	r9, r0, r8, lsl pc

00009410 <sw_uart_putc>:
    9410:	e92d41f0 	push	{r4, r5, r6, r7, r8, lr}
    9414:	e1a07001 	mov	r7, r1
    9418:	e5d06000 	ldrb	r6, [r0]
    941c:	e5905008 	ldr	r5, [r0, #8]
    9420:	ee1f4f3c 	mrc	15, 0, r4, cr15, cr12, {1}
    9424:	e1a00006 	mov	r0, r6
    9428:	e3a01000 	mov	r1, #0
    942c:	ebffff1f 	bl	90b0 <gpio_write>
    9430:	ee1f3f3c 	mrc	15, 0, r3, cr15, cr12, {1}
    9434:	e0643003 	rsb	r3, r4, r3
    9438:	e1550003 	cmp	r5, r3
    943c:	8afffffb 	bhi	9430 <sw_uart_putc+0x20>
    9440:	e1a08085 	lsl	r8, r5, #1
    9444:	e1a00006 	mov	r0, r6
    9448:	e2071001 	and	r1, r7, #1
    944c:	ebffff17 	bl	90b0 <gpio_write>
    9450:	ee1f3f3c 	mrc	15, 0, r3, cr15, cr12, {1}
    9454:	e0643003 	rsb	r3, r4, r3
    9458:	e1580003 	cmp	r8, r3
    945c:	8afffffb 	bhi	9450 <sw_uart_putc+0x40>
    9460:	e0888005 	add	r8, r8, r5
    9464:	e1a00006 	mov	r0, r6
    9468:	e2071002 	and	r1, r7, #2
    946c:	ebffff0f 	bl	90b0 <gpio_write>
    9470:	ee1f3f3c 	mrc	15, 0, r3, cr15, cr12, {1}
    9474:	e0643003 	rsb	r3, r4, r3
    9478:	e1580003 	cmp	r8, r3
    947c:	8afffffb 	bhi	9470 <sw_uart_putc+0x60>
    9480:	e0888005 	add	r8, r8, r5
    9484:	e1a00006 	mov	r0, r6
    9488:	e2071004 	and	r1, r7, #4
    948c:	ebffff07 	bl	90b0 <gpio_write>
    9490:	ee1f3f3c 	mrc	15, 0, r3, cr15, cr12, {1}
    9494:	e0643003 	rsb	r3, r4, r3
    9498:	e1580003 	cmp	r8, r3
    949c:	8afffffb 	bhi	9490 <sw_uart_putc+0x80>
    94a0:	e0888005 	add	r8, r8, r5
    94a4:	e1a00006 	mov	r0, r6
    94a8:	e2071008 	and	r1, r7, #8
    94ac:	ebfffeff 	bl	90b0 <gpio_write>
    94b0:	ee1f3f3c 	mrc	15, 0, r3, cr15, cr12, {1}
    94b4:	e0643003 	rsb	r3, r4, r3
    94b8:	e1580003 	cmp	r8, r3
    94bc:	8afffffb 	bhi	94b0 <sw_uart_putc+0xa0>
    94c0:	e0888005 	add	r8, r8, r5
    94c4:	e1a00006 	mov	r0, r6
    94c8:	e2071010 	and	r1, r7, #16
    94cc:	ebfffef7 	bl	90b0 <gpio_write>
    94d0:	ee1f3f3c 	mrc	15, 0, r3, cr15, cr12, {1}
    94d4:	e0643003 	rsb	r3, r4, r3
    94d8:	e1580003 	cmp	r8, r3
    94dc:	8afffffb 	bhi	94d0 <sw_uart_putc+0xc0>
    94e0:	e0888005 	add	r8, r8, r5
    94e4:	e1a00006 	mov	r0, r6
    94e8:	e2071020 	and	r1, r7, #32
    94ec:	ebfffeef 	bl	90b0 <gpio_write>
    94f0:	ee1f3f3c 	mrc	15, 0, r3, cr15, cr12, {1}
    94f4:	e0643003 	rsb	r3, r4, r3
    94f8:	e1580003 	cmp	r8, r3
    94fc:	8afffffb 	bhi	94f0 <sw_uart_putc+0xe0>
    9500:	e0888005 	add	r8, r8, r5
    9504:	e1a00006 	mov	r0, r6
    9508:	e2071040 	and	r1, r7, #64	; 0x40
    950c:	ebfffee7 	bl	90b0 <gpio_write>
    9510:	ee1f3f3c 	mrc	15, 0, r3, cr15, cr12, {1}
    9514:	e0643003 	rsb	r3, r4, r3
    9518:	e1580003 	cmp	r8, r3
    951c:	8afffffb 	bhi	9510 <sw_uart_putc+0x100>
    9520:	e0888005 	add	r8, r8, r5
    9524:	e1a00006 	mov	r0, r6
    9528:	e2071080 	and	r1, r7, #128	; 0x80
    952c:	ebfffedf 	bl	90b0 <gpio_write>
    9530:	ee1f3f3c 	mrc	15, 0, r3, cr15, cr12, {1}
    9534:	e0643003 	rsb	r3, r4, r3
    9538:	e1580003 	cmp	r8, r3
    953c:	8afffffb 	bhi	9530 <sw_uart_putc+0x120>
    9540:	e0885005 	add	r5, r8, r5
    9544:	e1a00006 	mov	r0, r6
    9548:	e3a01001 	mov	r1, #1
    954c:	ebfffed7 	bl	90b0 <gpio_write>
    9550:	ee1f3f3c 	mrc	15, 0, r3, cr15, cr12, {1}
    9554:	e0643003 	rsb	r3, r4, r3
    9558:	e1550003 	cmp	r5, r3
    955c:	8afffffb 	bhi	9550 <sw_uart_putc+0x140>
    9560:	e8bd81f0 	pop	{r4, r5, r6, r7, r8, pc}

00009564 <sw_uart_getc_timeout>:
    9564:	e92d43f8 	push	{r3, r4, r5, r6, r7, r8, r9, lr}
    9568:	e1a09000 	mov	r9, r0
    956c:	e5d07001 	ldrb	r7, [r0, #1]
    9570:	e1a05007 	mov	r5, r7
    9574:	e1a06001 	mov	r6, r1
    9578:	ebfffe1a 	bl	8de8 <timer_get_usec_raw>
    957c:	e1a04000 	mov	r4, r0
    9580:	e1a00005 	mov	r0, r5
    9584:	ebfffeb6 	bl	9064 <gpio_read>
    9588:	e3500000 	cmp	r0, #0
    958c:	0a000005 	beq	95a8 <sw_uart_getc_timeout+0x44>
    9590:	ebfffe14 	bl	8de8 <timer_get_usec_raw>
    9594:	e0640000 	rsb	r0, r4, r0
    9598:	e1560000 	cmp	r6, r0
    959c:	2afffff7 	bcs	9580 <sw_uart_getc_timeout+0x1c>
    95a0:	e3a03000 	mov	r3, #0
    95a4:	ea000000 	b	95ac <sw_uart_getc_timeout+0x48>
    95a8:	e3a03001 	mov	r3, #1
    95ac:	e3530000 	cmp	r3, #0
    95b0:	0a000059 	beq	971c <sw_uart_getc_timeout+0x1b8>
    95b4:	ee1f8f3c 	mrc	15, 0, r8, cr15, cr12, {1}
    95b8:	e5994008 	ldr	r4, [r9, #8]
    95bc:	e08420a4 	add	r2, r4, r4, lsr #1
    95c0:	ee1f3f3c 	mrc	15, 0, r3, cr15, cr12, {1}
    95c4:	e0683003 	rsb	r3, r8, r3
    95c8:	e1520003 	cmp	r2, r3
    95cc:	8afffffb 	bhi	95c0 <sw_uart_getc_timeout+0x5c>
    95d0:	e0888004 	add	r8, r8, r4
    95d4:	e1a00007 	mov	r0, r7
    95d8:	ebfffea1 	bl	9064 <gpio_read>
    95dc:	e1a09750 	asr	r9, r0, r7
    95e0:	ee1f3f3c 	mrc	15, 0, r3, cr15, cr12, {1}
    95e4:	e0683003 	rsb	r3, r8, r3
    95e8:	e1540003 	cmp	r4, r3
    95ec:	8afffffb 	bhi	95e0 <sw_uart_getc_timeout+0x7c>
    95f0:	e0888004 	add	r8, r8, r4
    95f4:	e1a00007 	mov	r0, r7
    95f8:	ebfffe99 	bl	9064 <gpio_read>
    95fc:	e1a00750 	asr	r0, r0, r7
    9600:	e1899080 	orr	r9, r9, r0, lsl #1
    9604:	ee1f3f3c 	mrc	15, 0, r3, cr15, cr12, {1}
    9608:	e0683003 	rsb	r3, r8, r3
    960c:	e1540003 	cmp	r4, r3
    9610:	8afffffb 	bhi	9604 <sw_uart_getc_timeout+0xa0>
    9614:	e0888004 	add	r8, r8, r4
    9618:	e1a00007 	mov	r0, r7
    961c:	ebfffe90 	bl	9064 <gpio_read>
    9620:	e1a00750 	asr	r0, r0, r7
    9624:	e1899100 	orr	r9, r9, r0, lsl #2
    9628:	ee1f3f3c 	mrc	15, 0, r3, cr15, cr12, {1}
    962c:	e0683003 	rsb	r3, r8, r3
    9630:	e1540003 	cmp	r4, r3
    9634:	8afffffb 	bhi	9628 <sw_uart_getc_timeout+0xc4>
    9638:	e0888004 	add	r8, r8, r4
    963c:	e1a00007 	mov	r0, r7
    9640:	ebfffe87 	bl	9064 <gpio_read>
    9644:	e1a00750 	asr	r0, r0, r7
    9648:	e1899180 	orr	r9, r9, r0, lsl #3
    964c:	ee1f3f3c 	mrc	15, 0, r3, cr15, cr12, {1}
    9650:	e0683003 	rsb	r3, r8, r3
    9654:	e1540003 	cmp	r4, r3
    9658:	8afffffb 	bhi	964c <sw_uart_getc_timeout+0xe8>
    965c:	e0888004 	add	r8, r8, r4
    9660:	e1a00007 	mov	r0, r7
    9664:	ebfffe7e 	bl	9064 <gpio_read>
    9668:	e1a00750 	asr	r0, r0, r7
    966c:	e1899200 	orr	r9, r9, r0, lsl #4
    9670:	ee1f3f3c 	mrc	15, 0, r3, cr15, cr12, {1}
    9674:	e0683003 	rsb	r3, r8, r3
    9678:	e1540003 	cmp	r4, r3
    967c:	8afffffb 	bhi	9670 <sw_uart_getc_timeout+0x10c>
    9680:	e0888004 	add	r8, r8, r4
    9684:	e1a00007 	mov	r0, r7
    9688:	ebfffe75 	bl	9064 <gpio_read>
    968c:	e1a00750 	asr	r0, r0, r7
    9690:	e1899280 	orr	r9, r9, r0, lsl #5
    9694:	ee1f3f3c 	mrc	15, 0, r3, cr15, cr12, {1}
    9698:	e0683003 	rsb	r3, r8, r3
    969c:	e1540003 	cmp	r4, r3
    96a0:	8afffffb 	bhi	9694 <sw_uart_getc_timeout+0x130>
    96a4:	e0888004 	add	r8, r8, r4
    96a8:	e1a00007 	mov	r0, r7
    96ac:	ebfffe6c 	bl	9064 <gpio_read>
    96b0:	e1a00750 	asr	r0, r0, r7
    96b4:	e1899300 	orr	r9, r9, r0, lsl #6
    96b8:	ee1f3f3c 	mrc	15, 0, r3, cr15, cr12, {1}
    96bc:	e0683003 	rsb	r3, r8, r3
    96c0:	e1540003 	cmp	r4, r3
    96c4:	8afffffb 	bhi	96b8 <sw_uart_getc_timeout+0x154>
    96c8:	e1a00007 	mov	r0, r7
    96cc:	ebfffe64 	bl	9064 <gpio_read>
    96d0:	e1a00750 	asr	r0, r0, r7
    96d4:	e1899380 	orr	r9, r9, r0, lsl #7
    96d8:	ebfffdc2 	bl	8de8 <timer_get_usec_raw>
    96dc:	e1a04000 	mov	r4, r0
    96e0:	e1a00005 	mov	r0, r5
    96e4:	ebfffe5e 	bl	9064 <gpio_read>
    96e8:	e3500000 	cmp	r0, #0
    96ec:	0a000005 	beq	9708 <sw_uart_getc_timeout+0x1a4>
    96f0:	ebfffdbc 	bl	8de8 <timer_get_usec_raw>
    96f4:	e0640000 	rsb	r0, r4, r0
    96f8:	e1560000 	cmp	r6, r0
    96fc:	2afffff7 	bcs	96e0 <sw_uart_getc_timeout+0x17c>
    9700:	e3a03000 	mov	r3, #0
    9704:	ea000000 	b	970c <sw_uart_getc_timeout+0x1a8>
    9708:	e3a03001 	mov	r3, #1
    970c:	e3530000 	cmp	r3, #0
    9710:	0a000003 	beq	9724 <sw_uart_getc_timeout+0x1c0>
    9714:	e1a00009 	mov	r0, r9
    9718:	e8bd83f8 	pop	{r3, r4, r5, r6, r7, r8, r9, pc}
    971c:	e3e00000 	mvn	r0, #0
    9720:	e8bd83f8 	pop	{r3, r4, r5, r6, r7, r8, r9, pc}
    9724:	e3e00000 	mvn	r0, #0
    9728:	e8bd83f8 	pop	{r3, r4, r5, r6, r7, r8, r9, pc}

0000972c <sw_uart_gets_until>:
    972c:	e92d47f0 	push	{r4, r5, r6, r7, r8, r9, sl, lr}
    9730:	e1a08000 	mov	r8, r0
    9734:	e1a06001 	mov	r6, r1
    9738:	e1a09003 	mov	r9, r3
    973c:	e59da020 	ldr	sl, [sp, #32]
    9740:	e3520000 	cmp	r2, #0
    9744:	1a000006 	bne	9764 <sw_uart_gets_until+0x38>
    9748:	ebfffbf7 	bl	872c <rpi_reset_putc>
    974c:	e59f005c 	ldr	r0, [pc, #92]	; 97b0 <sw_uart_gets_until+0x84>
    9750:	e59f105c 	ldr	r1, [pc, #92]	; 97b4 <sw_uart_gets_until+0x88>
    9754:	e59f205c 	ldr	r2, [pc, #92]	; 97b8 <sw_uart_gets_until+0x8c>
    9758:	e3a0306d 	mov	r3, #109	; 0x6d
    975c:	ebfffbd7 	bl	86c0 <printk>
    9760:	ebfffd46 	bl	8c80 <clean_reboot>
    9764:	e3a04000 	mov	r4, #0
    9768:	e5c14000 	strb	r4, [r1]
    976c:	e2427001 	sub	r7, r2, #1
    9770:	ea000007 	b	9794 <sw_uart_gets_until+0x68>
    9774:	e1a00008 	mov	r0, r8
    9778:	e1a0100a 	mov	r1, sl
    977c:	ebffff78 	bl	9564 <sw_uart_getc_timeout>
    9780:	e6ef0070 	uxtb	r0, r0
    9784:	e1500009 	cmp	r0, r9
    9788:	0a000004 	beq	97a0 <sw_uart_gets_until+0x74>
    978c:	e7c60005 	strb	r0, [r6, r5]
    9790:	e2844001 	add	r4, r4, #1
    9794:	e1a05004 	mov	r5, r4
    9798:	e1540007 	cmp	r4, r7
    979c:	3afffff4 	bcc	9774 <sw_uart_gets_until+0x48>
    97a0:	e3a03000 	mov	r3, #0
    97a4:	e7c63005 	strb	r3, [r6, r5]
    97a8:	e1a00004 	mov	r0, r4
    97ac:	e8bd87f0 	pop	{r4, r5, r6, r7, r8, r9, sl, pc}
    97b0:	0000a29c 	muleq	r0, ip, r2
    97b4:	0000a2b8 			; <UNDEFINED> instruction: 0x0000a2b8
    97b8:	0000a224 	andeq	sl, r0, r4, lsr #4

000097bc <sw_uart_gets_timeout>:
    97bc:	e92d41f0 	push	{r4, r5, r6, r7, r8, lr}
    97c0:	e1a07000 	mov	r7, r0
    97c4:	e1a05001 	mov	r5, r1
    97c8:	e1a08003 	mov	r8, r3
    97cc:	e3520000 	cmp	r2, #0
    97d0:	1a000006 	bne	97f0 <sw_uart_gets_timeout+0x34>
    97d4:	ebfffbd4 	bl	872c <rpi_reset_putc>
    97d8:	e59f004c 	ldr	r0, [pc, #76]	; 982c <sw_uart_gets_timeout+0x70>
    97dc:	e59f104c 	ldr	r1, [pc, #76]	; 9830 <sw_uart_gets_timeout+0x74>
    97e0:	e59f204c 	ldr	r2, [pc, #76]	; 9834 <sw_uart_gets_timeout+0x78>
    97e4:	e3a03083 	mov	r3, #131	; 0x83
    97e8:	ebfffbb4 	bl	86c0 <printk>
    97ec:	ebfffd23 	bl	8c80 <clean_reboot>
    97f0:	e3a04000 	mov	r4, #0
    97f4:	e5c14000 	strb	r4, [r1]
    97f8:	e2426001 	sub	r6, r2, #1
    97fc:	ea000004 	b	9814 <sw_uart_gets_timeout+0x58>
    9800:	e1a00007 	mov	r0, r7
    9804:	e1a01008 	mov	r1, r8
    9808:	ebffff55 	bl	9564 <sw_uart_getc_timeout>
    980c:	e7c50004 	strb	r0, [r5, r4]
    9810:	e2844001 	add	r4, r4, #1
    9814:	e1540006 	cmp	r4, r6
    9818:	3afffff8 	bcc	9800 <sw_uart_gets_timeout+0x44>
    981c:	e3a03000 	mov	r3, #0
    9820:	e7c53004 	strb	r3, [r5, r4]
    9824:	e1a00004 	mov	r0, r4
    9828:	e8bd81f0 	pop	{r4, r5, r6, r7, r8, pc}
    982c:	0000a29c 	muleq	r0, ip, r2
    9830:	0000a2b8 			; <UNDEFINED> instruction: 0x0000a2b8
    9834:	0000a238 	andeq	sl, r0, r8, lsr r2

00009838 <sw_uart_init_helper>:
    9838:	e92d41f0 	push	{r4, r5, r6, r7, r8, lr}
    983c:	e1a04000 	mov	r4, r0
    9840:	e1a06001 	mov	r6, r1
    9844:	e1a08002 	mov	r8, r2
    9848:	e1a05003 	mov	r5, r3
    984c:	e59d7018 	ldr	r7, [sp, #24]
    9850:	e1a00001 	mov	r0, r1
    9854:	ebfffd7e 	bl	8e54 <gpio_set_output>
    9858:	e1a00008 	mov	r0, r8
    985c:	ebfffdcd 	bl	8f98 <gpio_set_input>
    9860:	e3a03001 	mov	r3, #1
    9864:	ee0f3f1c 	mcr	15, 0, r3, cr15, cr12, {0}
    9868:	e1a00006 	mov	r0, r6
    986c:	e3a01001 	mov	r1, #1
    9870:	ebfffe0e 	bl	90b0 <gpio_write>
    9874:	e0020795 	mul	r2, r5, r7
    9878:	e59f3068 	ldr	r3, [pc, #104]	; 98e8 <sw_uart_init_helper+0xb0>
    987c:	e0653003 	rsb	r3, r5, r3
    9880:	e1530002 	cmp	r3, r2
    9884:	8a000005 	bhi	98a0 <sw_uart_init_helper+0x68>
    9888:	e59f3058 	ldr	r3, [pc, #88]	; 98e8 <sw_uart_init_helper+0xb0>
    988c:	e0853003 	add	r3, r5, r3
    9890:	e1530002 	cmp	r3, r2
    9894:	2a000003 	bcs	98a8 <sw_uart_init_helper+0x70>
    9898:	e3a03000 	mov	r3, #0
    989c:	ea000002 	b	98ac <sw_uart_init_helper+0x74>
    98a0:	e3a03000 	mov	r3, #0
    98a4:	ea000000 	b	98ac <sw_uart_init_helper+0x74>
    98a8:	e3a03001 	mov	r3, #1
    98ac:	e3530000 	cmp	r3, #0
    98b0:	1a000006 	bne	98d0 <sw_uart_init_helper+0x98>
    98b4:	ebfffb9c 	bl	872c <rpi_reset_putc>
    98b8:	e59f002c 	ldr	r0, [pc, #44]	; 98ec <sw_uart_init_helper+0xb4>
    98bc:	e59f102c 	ldr	r1, [pc, #44]	; 98f0 <sw_uart_init_helper+0xb8>
    98c0:	e59f202c 	ldr	r2, [pc, #44]	; 98f4 <sw_uart_init_helper+0xbc>
    98c4:	e3a0309d 	mov	r3, #157	; 0x9d
    98c8:	ebfffb7c 	bl	86c0 <printk>
    98cc:	ebfffceb 	bl	8c80 <clean_reboot>
    98d0:	e5c46000 	strb	r6, [r4]
    98d4:	e5c48001 	strb	r8, [r4, #1]
    98d8:	e5845004 	str	r5, [r4, #4]
    98dc:	e5847008 	str	r7, [r4, #8]
    98e0:	e1a00004 	mov	r0, r4
    98e4:	e8bd81f0 	pop	{r4, r5, r6, r7, r8, pc}
    98e8:	29b92700 	ldmibcs	r9!, {r8, r9, sl, sp}
    98ec:	0000a2cc 	andeq	sl, r0, ip, asr #5
    98f0:	0000a2b8 			; <UNDEFINED> instruction: 0x0000a2b8
    98f4:	0000a250 	andeq	sl, r0, r0, asr r2

000098f8 <sw_uart_getc>:
    98f8:	e92d4008 	push	{r3, lr}
    98fc:	e3e01000 	mvn	r1, #0
    9900:	ebffff17 	bl	9564 <sw_uart_getc_timeout>
    9904:	e3500000 	cmp	r0, #0
    9908:	a8bd8008 	popge	{r3, pc}
    990c:	ebfffb86 	bl	872c <rpi_reset_putc>
    9910:	e59f0010 	ldr	r0, [pc, #16]	; 9928 <sw_uart_getc+0x30>
    9914:	e59f1010 	ldr	r1, [pc, #16]	; 992c <sw_uart_getc+0x34>
    9918:	e59f2010 	ldr	r2, [pc, #16]	; 9930 <sw_uart_getc+0x38>
    991c:	e3a030ac 	mov	r3, #172	; 0xac
    9920:	ebfffb66 	bl	86c0 <printk>
    9924:	ebfffcd5 	bl	8c80 <clean_reboot>
    9928:	0000a310 	andeq	sl, r0, r0, lsl r3
    992c:	0000a2b8 			; <UNDEFINED> instruction: 0x0000a2b8
    9930:	0000a264 	andeq	sl, r0, r4, ror #4

00009934 <sw_uart_putk>:
    9934:	e92d4038 	push	{r3, r4, r5, lr}
    9938:	e1a05000 	mov	r5, r0
    993c:	e1a04001 	mov	r4, r1
    9940:	ea000002 	b	9950 <sw_uart_putk+0x1c>
    9944:	e1a00005 	mov	r0, r5
    9948:	ebfffeb0 	bl	9410 <sw_uart_putc>
    994c:	e2844001 	add	r4, r4, #1
    9950:	e5d41000 	ldrb	r1, [r4]
    9954:	e3510000 	cmp	r1, #0
    9958:	1afffff9 	bne	9944 <sw_uart_putk+0x10>
    995c:	e8bd8038 	pop	{r3, r4, r5, pc}

00009960 <sw_uart_printk>:
    9960:	e92d000e 	push	{r1, r2, r3}
    9964:	e92d4030 	push	{r4, r5, lr}
    9968:	e24dde1d 	sub	sp, sp, #464	; 0x1d0
    996c:	e1a05000 	mov	r5, r0
    9970:	e28d3e1e 	add	r3, sp, #480	; 0x1e0
    9974:	e58d3000 	str	r3, [sp]
    9978:	e28d0004 	add	r0, sp, #4
    997c:	e3a01f73 	mov	r1, #460	; 0x1cc
    9980:	e59d21dc 	ldr	r2, [sp, #476]	; 0x1dc
    9984:	ebfffc1b 	bl	89f8 <va_printk>
    9988:	e1a04000 	mov	r4, r0
    998c:	e59f3040 	ldr	r3, [pc, #64]	; 99d4 <sw_uart_printk+0x74>
    9990:	e1500003 	cmp	r0, r3
    9994:	9a000006 	bls	99b4 <sw_uart_printk+0x54>
    9998:	ebfffb63 	bl	872c <rpi_reset_putc>
    999c:	e59f0034 	ldr	r0, [pc, #52]	; 99d8 <sw_uart_printk+0x78>
    99a0:	e59f1034 	ldr	r1, [pc, #52]	; 99dc <sw_uart_printk+0x7c>
    99a4:	e59f2034 	ldr	r2, [pc, #52]	; 99e0 <sw_uart_printk+0x80>
    99a8:	e3a030c0 	mov	r3, #192	; 0xc0
    99ac:	ebfffb43 	bl	86c0 <printk>
    99b0:	ebfffcb2 	bl	8c80 <clean_reboot>
    99b4:	e1a00005 	mov	r0, r5
    99b8:	e28d1004 	add	r1, sp, #4
    99bc:	ebffffdc 	bl	9934 <sw_uart_putk>
    99c0:	e1a00004 	mov	r0, r4
    99c4:	e28dde1d 	add	sp, sp, #464	; 0x1d0
    99c8:	e8bd4030 	pop	{r4, r5, lr}
    99cc:	e28dd00c 	add	sp, sp, #12
    99d0:	e12fff1e 	bx	lr
    99d4:	000001ca 	andeq	r0, r0, sl, asr #3
    99d8:	0000a348 	andeq	sl, r0, r8, asr #6
    99dc:	0000a2b8 			; <UNDEFINED> instruction: 0x0000a2b8
    99e0:	0000a274 	andeq	sl, r0, r4, ror r2

000099e4 <sw_uart_gets_until_blk>:
    99e4:	e52de004 	push	{lr}		; (str lr, [sp, #-4]!)
    99e8:	e24dd00c 	sub	sp, sp, #12
    99ec:	e3e0c000 	mvn	ip, #0
    99f0:	e58dc000 	str	ip, [sp]
    99f4:	ebffff4c 	bl	972c <sw_uart_gets_until>
    99f8:	e3500000 	cmp	r0, #0
    99fc:	aa000006 	bge	9a1c <sw_uart_gets_until_blk+0x38>
    9a00:	ebfffb49 	bl	872c <rpi_reset_putc>
    9a04:	e59f0018 	ldr	r0, [pc, #24]	; 9a24 <sw_uart_gets_until_blk+0x40>
    9a08:	e59f1018 	ldr	r1, [pc, #24]	; 9a28 <sw_uart_gets_until_blk+0x44>
    9a0c:	e59f2018 	ldr	r2, [pc, #24]	; 9a2c <sw_uart_gets_until_blk+0x48>
    9a10:	e3a030c8 	mov	r3, #200	; 0xc8
    9a14:	ebfffb29 	bl	86c0 <printk>
    9a18:	ebfffc98 	bl	8c80 <clean_reboot>
    9a1c:	e28dd00c 	add	sp, sp, #12
    9a20:	e49df004 	pop	{pc}		; (ldr pc, [sp], #4)
    9a24:	0000a310 	andeq	sl, r0, r0, lsl r3
    9a28:	0000a2b8 			; <UNDEFINED> instruction: 0x0000a2b8
    9a2c:	0000a284 	andeq	sl, r0, r4, lsl #5

00009a30 <uart_init>:
    9a30:	e92d4038 	push	{r3, r4, r5, lr}
    9a34:	eb0000d2 	bl	9d84 <dev_barrier>
    9a38:	e3a0000e 	mov	r0, #14
    9a3c:	e3a01002 	mov	r1, #2
    9a40:	ebfffdb8 	bl	9128 <gpio_set_function>
    9a44:	e3a0000f 	mov	r0, #15
    9a48:	e3a01002 	mov	r1, #2
    9a4c:	ebfffdb5 	bl	9128 <gpio_set_function>
    9a50:	eb0000cb 	bl	9d84 <dev_barrier>
    9a54:	e59f4068 	ldr	r4, [pc, #104]	; 9ac4 <uart_init+0x94>
    9a58:	e5945000 	ldr	r5, [r4]
    9a5c:	e1a00005 	mov	r0, r5
    9a60:	eb0000d9 	bl	9dcc <get32>
    9a64:	e3801001 	orr	r1, r0, #1
    9a68:	e1a00005 	mov	r0, r5
    9a6c:	eb0000ca 	bl	9d9c <put32>
    9a70:	eb0000c3 	bl	9d84 <dev_barrier>
    9a74:	e5940004 	ldr	r0, [r4, #4]
    9a78:	e3a01000 	mov	r1, #0
    9a7c:	eb0000c6 	bl	9d9c <put32>
    9a80:	e5940008 	ldr	r0, [r4, #8]
    9a84:	e3a01000 	mov	r1, #0
    9a88:	eb0000c3 	bl	9d9c <put32>
    9a8c:	e594000c 	ldr	r0, [r4, #12]
    9a90:	e3a01006 	mov	r1, #6
    9a94:	eb0000c0 	bl	9d9c <put32>
    9a98:	e5940010 	ldr	r0, [r4, #16]
    9a9c:	e3a01003 	mov	r1, #3
    9aa0:	eb0000bd 	bl	9d9c <put32>
    9aa4:	e5940014 	ldr	r0, [r4, #20]
    9aa8:	e59f1018 	ldr	r1, [pc, #24]	; 9ac8 <uart_init+0x98>
    9aac:	eb0000ba 	bl	9d9c <put32>
    9ab0:	e5940004 	ldr	r0, [r4, #4]
    9ab4:	e3a01003 	mov	r1, #3
    9ab8:	eb0000b7 	bl	9d9c <put32>
    9abc:	eb0000b0 	bl	9d84 <dev_barrier>
    9ac0:	e8bd8038 	pop	{r3, r4, r5, pc}
    9ac4:	00009f78 	andeq	r9, r0, r8, ror pc
    9ac8:	0000010e 	andeq	r0, r0, lr, lsl #2

00009acc <uart_can_getc>:
    9acc:	e92d4008 	push	{r3, lr}
    9ad0:	e59f300c 	ldr	r3, [pc, #12]	; 9ae4 <uart_can_getc+0x18>
    9ad4:	e5930018 	ldr	r0, [r3, #24]
    9ad8:	eb0000bb 	bl	9dcc <get32>
    9adc:	e2000001 	and	r0, r0, #1
    9ae0:	e8bd8008 	pop	{r3, pc}
    9ae4:	00009f78 	andeq	r9, r0, r8, ror pc

00009ae8 <uart_getc>:
    9ae8:	e92d4008 	push	{r3, lr}
    9aec:	ebfffff6 	bl	9acc <uart_can_getc>
    9af0:	e3500000 	cmp	r0, #0
    9af4:	0afffffc 	beq	9aec <uart_getc+0x4>
    9af8:	e59f300c 	ldr	r3, [pc, #12]	; 9b0c <uart_getc+0x24>
    9afc:	e593001c 	ldr	r0, [r3, #28]
    9b00:	eb0000b1 	bl	9dcc <get32>
    9b04:	e6ef0070 	uxtb	r0, r0
    9b08:	e8bd8008 	pop	{r3, pc}
    9b0c:	00009f78 	andeq	r9, r0, r8, ror pc

00009b10 <uart_can_putc>:
    9b10:	e92d4008 	push	{r3, lr}
    9b14:	e59f300c 	ldr	r3, [pc, #12]	; 9b28 <uart_can_putc+0x18>
    9b18:	e5930018 	ldr	r0, [r3, #24]
    9b1c:	eb0000aa 	bl	9dcc <get32>
    9b20:	e2000020 	and	r0, r0, #32
    9b24:	e8bd8008 	pop	{r3, pc}
    9b28:	00009f78 	andeq	r9, r0, r8, ror pc

00009b2c <uart_putc>:
    9b2c:	e92d4010 	push	{r4, lr}
    9b30:	e1a04000 	mov	r4, r0
    9b34:	ebfffff5 	bl	9b10 <uart_can_putc>
    9b38:	e3500000 	cmp	r0, #0
    9b3c:	0afffffc 	beq	9b34 <uart_putc+0x8>
    9b40:	e59f300c 	ldr	r3, [pc, #12]	; 9b54 <uart_putc+0x28>
    9b44:	e593001c 	ldr	r0, [r3, #28]
    9b48:	e1a01004 	mov	r1, r4
    9b4c:	eb000092 	bl	9d9c <put32>
    9b50:	e8bd8010 	pop	{r4, pc}
    9b54:	00009f78 	andeq	r9, r0, r8, ror pc

00009b58 <uart_has_data>:
    9b58:	e92d4008 	push	{r3, lr}
    9b5c:	ebffffda 	bl	9acc <uart_can_getc>
    9b60:	e8bd8008 	pop	{r3, pc}

00009b64 <uart_getc_async>:
    9b64:	e92d4008 	push	{r3, lr}
    9b68:	ebfffffa 	bl	9b58 <uart_has_data>
    9b6c:	e3500000 	cmp	r0, #0
    9b70:	0a000001 	beq	9b7c <uart_getc_async+0x18>
    9b74:	ebffffdb 	bl	9ae8 <uart_getc>
    9b78:	e8bd8008 	pop	{r3, pc}
    9b7c:	e3e00000 	mvn	r0, #0
    9b80:	e8bd8008 	pop	{r3, pc}

00009b84 <int_init>:
    9b84:	e92d4008 	push	{r3, lr}
    9b88:	e59f004c 	ldr	r0, [pc, #76]	; 9bdc <int_init+0x58>
    9b8c:	e3e01000 	mvn	r1, #0
    9b90:	eb000083 	bl	9da4 <PUT32>
    9b94:	e59f0044 	ldr	r0, [pc, #68]	; 9be0 <int_init+0x5c>
    9b98:	e3e01000 	mvn	r1, #0
    9b9c:	eb000080 	bl	9da4 <PUT32>
    9ba0:	eb000077 	bl	9d84 <dev_barrier>
    9ba4:	e59f3038 	ldr	r3, [pc, #56]	; 9be4 <int_init+0x60>
    9ba8:	e59f0038 	ldr	r0, [pc, #56]	; 9be8 <int_init+0x64>
    9bac:	e0630000 	rsb	r0, r3, r0
    9bb0:	e1a00140 	asr	r0, r0, #2
    9bb4:	e3a03000 	mov	r3, #0
    9bb8:	e59fc024 	ldr	ip, [pc, #36]	; 9be4 <int_init+0x60>
    9bbc:	ea000003 	b	9bd0 <int_init+0x4c>
    9bc0:	e1a02103 	lsl	r2, r3, #2
    9bc4:	e79c1103 	ldr	r1, [ip, r3, lsl #2]
    9bc8:	e5821000 	str	r1, [r2]
    9bcc:	e2833001 	add	r3, r3, #1
    9bd0:	e1530000 	cmp	r3, r0
    9bd4:	3afffff9 	bcc	9bc0 <int_init+0x3c>
    9bd8:	e8bd8008 	pop	{r3, pc}
    9bdc:	2000b21c 	andcs	fp, r0, ip, lsl r2
    9be0:	2000b220 	andcs	fp, r0, r0, lsr #4
    9be4:	00009e08 	andeq	r9, r0, r8, lsl #28
    9be8:	00009e58 	andeq	r9, r0, r8, asr lr

00009bec <fast_interrupt_vector>:
    9bec:	e52de004 	push	{lr}		; (str lr, [sp, #-4]!)
    9bf0:	e24dd00c 	sub	sp, sp, #12
    9bf4:	e1a04000 	mov	r4, r0
    9bf8:	ebfffacb 	bl	872c <rpi_reset_putc>
    9bfc:	e59f301c 	ldr	r3, [pc, #28]	; 9c20 <fast_interrupt_vector+0x34>
    9c00:	e58d3000 	str	r3, [sp]
    9c04:	e58d4004 	str	r4, [sp, #4]
    9c08:	e59f0014 	ldr	r0, [pc, #20]	; 9c24 <fast_interrupt_vector+0x38>
    9c0c:	e59f1014 	ldr	r1, [pc, #20]	; 9c28 <fast_interrupt_vector+0x3c>
    9c10:	e59f2014 	ldr	r2, [pc, #20]	; 9c2c <fast_interrupt_vector+0x40>
    9c14:	e3a03020 	mov	r3, #32
    9c18:	ebfffaa8 	bl	86c0 <printk>
    9c1c:	ebfffc17 	bl	8c80 <clean_reboot>
    9c20:	0000a458 	andeq	sl, r0, r8, asr r4
    9c24:	0000a3fc 	strdeq	sl, [r0], -ip
    9c28:	0000a438 	andeq	sl, r0, r8, lsr r4
    9c2c:	0000a36c 	andeq	sl, r0, ip, ror #6

00009c30 <software_interrupt_vector>:
    9c30:	e52de004 	push	{lr}		; (str lr, [sp, #-4]!)
    9c34:	e24dd00c 	sub	sp, sp, #12
    9c38:	e1a04000 	mov	r4, r0
    9c3c:	ebfffaba 	bl	872c <rpi_reset_putc>
    9c40:	e59f301c 	ldr	r3, [pc, #28]	; 9c64 <software_interrupt_vector+0x34>
    9c44:	e58d3000 	str	r3, [sp]
    9c48:	e58d4004 	str	r4, [sp, #4]
    9c4c:	e59f0014 	ldr	r0, [pc, #20]	; 9c68 <software_interrupt_vector+0x38>
    9c50:	e59f1014 	ldr	r1, [pc, #20]	; 9c6c <software_interrupt_vector+0x3c>
    9c54:	e59f2014 	ldr	r2, [pc, #20]	; 9c70 <software_interrupt_vector+0x40>
    9c58:	e3a03025 	mov	r3, #37	; 0x25
    9c5c:	ebfffa97 	bl	86c0 <printk>
    9c60:	ebfffc06 	bl	8c80 <clean_reboot>
    9c64:	0000a460 	andeq	sl, r0, r0, ror #8
    9c68:	0000a3fc 	strdeq	sl, [r0], -ip
    9c6c:	0000a438 	andeq	sl, r0, r8, lsr r4
    9c70:	0000a384 	andeq	sl, r0, r4, lsl #7

00009c74 <reset_vector>:
    9c74:	e52de004 	push	{lr}		; (str lr, [sp, #-4]!)
    9c78:	e24dd00c 	sub	sp, sp, #12
    9c7c:	e1a04000 	mov	r4, r0
    9c80:	ebfffaa9 	bl	872c <rpi_reset_putc>
    9c84:	e59f301c 	ldr	r3, [pc, #28]	; 9ca8 <reset_vector+0x34>
    9c88:	e58d3000 	str	r3, [sp]
    9c8c:	e58d4004 	str	r4, [sp, #4]
    9c90:	e59f0014 	ldr	r0, [pc, #20]	; 9cac <reset_vector+0x38>
    9c94:	e59f1014 	ldr	r1, [pc, #20]	; 9cb0 <reset_vector+0x3c>
    9c98:	e59f2014 	ldr	r2, [pc, #20]	; 9cb4 <reset_vector+0x40>
    9c9c:	e3a03028 	mov	r3, #40	; 0x28
    9ca0:	ebfffa86 	bl	86c0 <printk>
    9ca4:	ebfffbf5 	bl	8c80 <clean_reboot>
    9ca8:	0000a470 	andeq	sl, r0, r0, ror r4
    9cac:	0000a3fc 	strdeq	sl, [r0], -ip
    9cb0:	0000a438 	andeq	sl, r0, r8, lsr r4
    9cb4:	0000a3a0 	andeq	sl, r0, r0, lsr #7

00009cb8 <undefined_instruction_vector>:
    9cb8:	e52de004 	push	{lr}		; (str lr, [sp, #-4]!)
    9cbc:	e24dd00c 	sub	sp, sp, #12
    9cc0:	e1a04000 	mov	r4, r0
    9cc4:	ebfffa98 	bl	872c <rpi_reset_putc>
    9cc8:	e59f301c 	ldr	r3, [pc, #28]	; 9cec <undefined_instruction_vector+0x34>
    9ccc:	e58d3000 	str	r3, [sp]
    9cd0:	e58d4004 	str	r4, [sp, #4]
    9cd4:	e59f0014 	ldr	r0, [pc, #20]	; 9cf0 <undefined_instruction_vector+0x38>
    9cd8:	e59f1014 	ldr	r1, [pc, #20]	; 9cf4 <undefined_instruction_vector+0x3c>
    9cdc:	e59f2014 	ldr	r2, [pc, #20]	; 9cf8 <undefined_instruction_vector+0x40>
    9ce0:	e3a0302b 	mov	r3, #43	; 0x2b
    9ce4:	ebfffa75 	bl	86c0 <printk>
    9ce8:	ebfffbe4 	bl	8c80 <clean_reboot>
    9cec:	0000a480 	andeq	sl, r0, r0, lsl #9
    9cf0:	0000a3fc 	strdeq	sl, [r0], -ip
    9cf4:	0000a438 	andeq	sl, r0, r8, lsr r4
    9cf8:	0000a3b0 			; <UNDEFINED> instruction: 0x0000a3b0

00009cfc <prefetch_abort_vector>:
    9cfc:	e52de004 	push	{lr}		; (str lr, [sp, #-4]!)
    9d00:	e24dd00c 	sub	sp, sp, #12
    9d04:	e1a04000 	mov	r4, r0
    9d08:	ebfffa87 	bl	872c <rpi_reset_putc>
    9d0c:	e59f301c 	ldr	r3, [pc, #28]	; 9d30 <prefetch_abort_vector+0x34>
    9d10:	e58d3000 	str	r3, [sp]
    9d14:	e58d4004 	str	r4, [sp, #4]
    9d18:	e59f0014 	ldr	r0, [pc, #20]	; 9d34 <prefetch_abort_vector+0x38>
    9d1c:	e59f1014 	ldr	r1, [pc, #20]	; 9d38 <prefetch_abort_vector+0x3c>
    9d20:	e59f2014 	ldr	r2, [pc, #20]	; 9d3c <prefetch_abort_vector+0x40>
    9d24:	e3a0302e 	mov	r3, #46	; 0x2e
    9d28:	ebfffa64 	bl	86c0 <printk>
    9d2c:	ebfffbd3 	bl	8c80 <clean_reboot>
    9d30:	0000a498 	muleq	r0, r8, r4
    9d34:	0000a3fc 	strdeq	sl, [r0], -ip
    9d38:	0000a438 	andeq	sl, r0, r8, lsr r4
    9d3c:	0000a3d0 	ldrdeq	sl, [r0], -r0

00009d40 <data_abort_vector>:
    9d40:	e52de004 	push	{lr}		; (str lr, [sp, #-4]!)
    9d44:	e24dd00c 	sub	sp, sp, #12
    9d48:	e1a04000 	mov	r4, r0
    9d4c:	ebfffa76 	bl	872c <rpi_reset_putc>
    9d50:	e59f301c 	ldr	r3, [pc, #28]	; 9d74 <data_abort_vector+0x34>
    9d54:	e58d3000 	str	r3, [sp]
    9d58:	e58d4004 	str	r4, [sp, #4]
    9d5c:	e59f0014 	ldr	r0, [pc, #20]	; 9d78 <data_abort_vector+0x38>
    9d60:	e59f1014 	ldr	r1, [pc, #20]	; 9d7c <data_abort_vector+0x3c>
    9d64:	e59f2014 	ldr	r2, [pc, #20]	; 9d80 <data_abort_vector+0x40>
    9d68:	e3a03031 	mov	r3, #49	; 0x31
    9d6c:	ebfffa53 	bl	86c0 <printk>
    9d70:	ebfffbc2 	bl	8c80 <clean_reboot>
    9d74:	0000a4a8 	andeq	sl, r0, r8, lsr #9
    9d78:	0000a3fc 	strdeq	sl, [r0], -ip
    9d7c:	0000a438 	andeq	sl, r0, r8, lsr r4
    9d80:	0000a3e8 	andeq	sl, r0, r8, ror #7

00009d84 <dev_barrier>:
    9d84:	ea000002 	b	9d94 <dsb>

00009d88 <dmb>:
    9d88:	e3a00000 	mov	r0, #0
    9d8c:	ee070fba 	mcr	15, 0, r0, cr7, cr10, {5}
    9d90:	e12fff1e 	bx	lr

00009d94 <dsb>:
    9d94:	ee070f9a 	mcr	15, 0, r0, cr7, cr10, {4}
    9d98:	e12fff1e 	bx	lr

00009d9c <put32>:
    9d9c:	e5801000 	str	r1, [r0]
    9da0:	e12fff1e 	bx	lr

00009da4 <PUT32>:
    9da4:	e5801000 	str	r1, [r0]
    9da8:	e12fff1e 	bx	lr

00009dac <put16>:
    9dac:	e1c010b0 	strh	r1, [r0]
    9db0:	e12fff1e 	bx	lr

00009db4 <PUT16>:
    9db4:	e1c010b0 	strh	r1, [r0]
    9db8:	e12fff1e 	bx	lr

00009dbc <put8>:
    9dbc:	e5c01000 	strb	r1, [r0]
    9dc0:	e12fff1e 	bx	lr

00009dc4 <PUT8>:
    9dc4:	e5c01000 	strb	r1, [r0]
    9dc8:	e12fff1e 	bx	lr

00009dcc <get32>:
    9dcc:	e5900000 	ldr	r0, [r0]
    9dd0:	e12fff1e 	bx	lr

00009dd4 <GET32>:
    9dd4:	e5900000 	ldr	r0, [r0]
    9dd8:	e12fff1e 	bx	lr

00009ddc <GETPC>:
    9ddc:	e1a0000e 	mov	r0, lr
    9de0:	e12fff1e 	bx	lr

00009de4 <dummy>:
    9de4:	e12fff1e 	bx	lr

00009de8 <system_enable_interrupts>:
    9de8:	e10f0000 	mrs	r0, CPSR
    9dec:	e3c00080 	bic	r0, r0, #128	; 0x80
    9df0:	e121f000 	msr	CPSR_c, r0
    9df4:	e12fff1e 	bx	lr

00009df8 <system_disable_interrupts>:
    9df8:	e10f0000 	mrs	r0, CPSR
    9dfc:	e3800080 	orr	r0, r0, #128	; 0x80
    9e00:	e121f000 	msr	CPSR_c, r0
    9e04:	e12fff1e 	bx	lr

00009e08 <_interrupt_table>:
    9e08:	e59ff030 	ldr	pc, [pc, #48]	; 9e40 <_reset_asm>
    9e0c:	e59ff030 	ldr	pc, [pc, #48]	; 9e44 <_undefined_instruction_asm>
    9e10:	e59ff030 	ldr	pc, [pc, #48]	; 9e48 <_software_interrupt_asm>
    9e14:	e59ff030 	ldr	pc, [pc, #48]	; 9e4c <_prefetch_abort_asm>
    9e18:	e59ff030 	ldr	pc, [pc, #48]	; 9e50 <_data_abort_asm>
    9e1c:	e59ff01c 	ldr	pc, [pc, #28]	; 9e40 <_reset_asm>
    9e20:	e59ff02c 	ldr	pc, [pc, #44]	; 9e54 <_interrupt_asm>

00009e24 <fast_interrupt_asm>:
    9e24:	e24ee004 	sub	lr, lr, #4
    9e28:	e52de004 	push	{lr}		; (str lr, [sp, #-4]!)
    9e2c:	e92d1fff 	push	{r0, r1, r2, r3, r4, r5, r6, r7, r8, r9, sl, fp, ip}
    9e30:	e1a0000e 	mov	r0, lr
    9e34:	ebffff6c 	bl	9bec <fast_interrupt_vector>
    9e38:	e8bd1fff 	pop	{r0, r1, r2, r3, r4, r5, r6, r7, r8, r9, sl, fp, ip}
    9e3c:	e8fd8000 	ldm	sp!, {pc}^

00009e40 <_reset_asm>:
    9e40:	00009ea0 	andeq	r9, r0, r0, lsr #29

00009e44 <_undefined_instruction_asm>:
    9e44:	00009ea8 	andeq	r9, r0, r8, lsr #29

00009e48 <_software_interrupt_asm>:
    9e48:	00009e74 	andeq	r9, r0, r4, ror lr

00009e4c <_prefetch_abort_asm>:
    9e4c:	00009eb0 			; <UNDEFINED> instruction: 0x00009eb0

00009e50 <_data_abort_asm>:
    9e50:	00009eb8 			; <UNDEFINED> instruction: 0x00009eb8

00009e54 <_interrupt_asm>:
    9e54:	00009e58 	andeq	r9, r0, r8, asr lr

00009e58 <_interrupt_table_end>:
    9e58:	e3a0d409 	mov	sp, #150994944	; 0x9000000
    9e5c:	e24ee004 	sub	lr, lr, #4
    9e60:	e92d5fff 	push	{r0, r1, r2, r3, r4, r5, r6, r7, r8, r9, sl, fp, ip, lr}
    9e64:	e1a0000e 	mov	r0, lr
    9e68:	ebfff8f4 	bl	8240 <interrupt_vector>
    9e6c:	e8bd5fff 	pop	{r0, r1, r2, r3, r4, r5, r6, r7, r8, r9, sl, fp, ip, lr}
    9e70:	e1b0f00e 	movs	pc, lr

00009e74 <software_interrupt_asm>:
    9e74:	e52de004 	push	{lr}		; (str lr, [sp, #-4]!)
    9e78:	e92d1ffe 	push	{r1, r2, r3, r4, r5, r6, r7, r8, r9, sl, fp, ip}
    9e7c:	e24ee004 	sub	lr, lr, #4
    9e80:	e1a0200e 	mov	r2, lr
    9e84:	e1a01000 	mov	r1, r0
    9e88:	e1a0000e 	mov	r0, lr
    9e8c:	eb000003 	bl	9ea0 <reset_asm>
    9e90:	e8bd1ffe 	pop	{r1, r2, r3, r4, r5, r6, r7, r8, r9, sl, fp, ip}
    9e94:	e49de004 	pop	{lr}		; (ldr lr, [sp], #4)
    9e98:	e8fd8000 	ldm	sp!, {pc}^
    9e9c:	e1b0f00e 	movs	pc, lr

00009ea0 <reset_asm>:
    9ea0:	e24ee004 	sub	lr, lr, #4
    9ea4:	ebffff72 	bl	9c74 <reset_vector>

00009ea8 <undefined_instruction_asm>:
    9ea8:	e24ee004 	sub	lr, lr, #4
    9eac:	ebffff81 	bl	9cb8 <undefined_instruction_vector>

00009eb0 <prefetch_abort_asm>:
    9eb0:	e24ee004 	sub	lr, lr, #4
    9eb4:	ebffff90 	bl	9cfc <prefetch_abort_vector>

00009eb8 <data_abort_asm>:
    9eb8:	e24ee004 	sub	lr, lr, #4
    9ebc:	ebffff9f 	bl	9d40 <data_abort_vector>

00009ec0 <cb_new>:
    9ec0:	e92d4008 	push	{r3, lr}
    9ec4:	e3a00409 	mov	r0, #150994944	; 0x9000000
    9ec8:	e3a01000 	mov	r1, #0
    9ecc:	e3a02004 	mov	r2, #4
    9ed0:	ebfff9f2 	bl	86a0 <memset>
    9ed4:	e3a00409 	mov	r0, #150994944	; 0x9000000
    9ed8:	e59f3004 	ldr	r3, [pc, #4]	; 9ee4 <cb_new+0x24>
    9edc:	e5803000 	str	r3, [r0]
    9ee0:	e8bd8008 	pop	{r3, pc}
    9ee4:	12345678 	eorsne	r5, r4, #120, 12	; 0x7800000

00009ee8 <cb_get_block>:
    9ee8:	e3a03409 	mov	r3, #150994944	; 0x9000000
    9eec:	e5932000 	ldr	r2, [r3]
    9ef0:	e59f3014 	ldr	r3, [pc, #20]	; 9f0c <cb_get_block+0x24>
    9ef4:	e1520003 	cmp	r2, r3
    9ef8:	0a000001 	beq	9f04 <cb_get_block+0x1c>
    9efc:	e3a00000 	mov	r0, #0
    9f00:	e12fff1e 	bx	lr
    9f04:	e3a00409 	mov	r0, #150994944	; 0x9000000
    9f08:	e12fff1e 	bx	lr
    9f0c:	12345678 	eorsne	r5, r4, #120, 12	; 0x7800000

Disassembly of section .data:

00009f10 <rpi_putchar>:
    9f10:	00008718 	andeq	r8, r0, r8, lsl r7

00009f14 <putk>:
    9f14:	00008754 	andeq	r8, r0, r4, asr r7

00009f18 <GPFSEL0>:
    9f18:	20200000 	eorcs	r0, r0, r0

00009f1c <GPFSEL1>:
    9f1c:	20200004 	eorcs	r0, r0, r4

00009f20 <GPFSEL2>:
    9f20:	20200008 	eorcs	r0, r0, r8

00009f24 <GPFSEL3>:
    9f24:	2020000c 	eorcs	r0, r0, ip

00009f28 <GPFSEL4>:
    9f28:	20200010 	eorcs	r0, r0, r0, lsl r0

00009f2c <GPFSEL5>:
    9f2c:	20200014 	eorcs	r0, r0, r4, lsl r0

00009f30 <GPSET0>:
    9f30:	2020001c 	eorcs	r0, r0, ip, lsl r0

00009f34 <GPSET1>:
    9f34:	20200020 	eorcs	r0, r0, r0, lsr #32

00009f38 <GPCLR0>:
    9f38:	20200028 	eorcs	r0, r0, r8, lsr #32

00009f3c <GPCLR1>:
    9f3c:	2020002c 	eorcs	r0, r0, ip, lsr #32

00009f40 <GPLEV0>:
    9f40:	20200034 	eorcs	r0, r0, r4, lsr r0

00009f44 <GPLEV1>:
    9f44:	20200038 	eorcs	r0, r0, r8, lsr r0

00009f48 <IRQ_PENDING_2>:
    9f48:	2000b208 	andcs	fp, r0, r8, lsl #4

00009f4c <GPREN0>:
    9f4c:	2020004c 	eorcs	r0, r0, ip, asr #32

00009f50 <GPREN1>:
    9f50:	20200050 	eorcs	r0, r0, r0, asr r0

00009f54 <ENABLE_IRQS_2>:
    9f54:	2000b214 	andcs	fp, r0, r4, lsl r2

00009f58 <GPFEN0>:
    9f58:	20200058 	eorcs	r0, r0, r8, asr r0

00009f5c <GPFEN1>:
    9f5c:	2020005c 	eorcs	r0, r0, ip, asr r0

00009f60 <GPEDS0>:
    9f60:	20200040 	eorcs	r0, r0, r0, asr #32

00009f64 <GPEDS1>:
    9f64:	20200044 	eorcs	r0, r0, r4, asr #32

00009f68 <IRQ_PENDING_1>:
    9f68:	2000b204 	andcs	fp, r0, r4, lsl #4

00009f6c <gpio_clr0>:
    9f6c:	20200028 	eorcs	r0, r0, r8, lsr #32

00009f70 <gpio_set0>:
    9f70:	2020001c 	eorcs	r0, r0, ip, lsl r0

00009f74 <gpio_fsel0>:
    9f74:	20200000 	eorcs	r0, r0, r0

00009f78 <AUX_ENABLES>:
    9f78:	20215004 	eorcs	r5, r1, r4

00009f7c <AUX_MU_CNTL_REG>:
    9f7c:	20215060 	eorcs	r5, r1, r0, rrx

00009f80 <AUX_MU_IER_REG>:
    9f80:	20215044 	eorcs	r5, r1, r4, asr #32

00009f84 <AUX_MU_IIR_REG>:
    9f84:	20215048 	eorcs	r5, r1, r8, asr #32

00009f88 <AUX_MU_LCR_REG>:
    9f88:	2021504c 	eorcs	r5, r1, ip, asr #32

00009f8c <AUX_MU_BAUD_REG>:
    9f8c:	20215068 	eorcs	r5, r1, r8, rrx

00009f90 <AUX_MU_LSR_REG>:
    9f90:	20215054 	eorcs	r5, r1, r4, asr r0

00009f94 <AUX_MU_IO_REG>:
    9f94:	20215040 	eorcs	r5, r1, r0, asr #32

00009f98 <AUX_MU_STAT_REG>:
    9f98:	20215064 	eorcs	r5, r1, r4, rrx

00009f9c <AUX_MU_SCRATCH>:
    9f9c:	2021505c 	eorcs	r5, r1, ip, asr r0

00009fa0 <AUX_MU_MSR_REG>:
    9fa0:	20215058 	eorcs	r5, r1, r8, asr r0

00009fa4 <AUX_MU_MCR_REG>:
    9fa4:	20215050 	eorcs	r5, r1, r0, asr r0

00009fa8 <AUX_IRQ>:
    9fa8:	20215000 	eorcs	r5, r1, r0

Disassembly of section .rodata:

00009fac <__FUNCTION__.4297>:
    9fac:	695f7163 	ldmdbvs	pc, {r0, r1, r5, r6, r8, ip, sp, lr}^	; <UNPREDICTABLE>
    9fb0:	0074696e 	rsbseq	r6, r4, lr, ror #18
    9fb4:	494e4150 	stmdbmi	lr, {r4, r6, r8, lr}^
    9fb8:	73253a43 	teqvc	r5, #274432	; 0x43000
    9fbc:	3a73253a 	bcc	1cd34ac <__bss_end__+0x1cc4bb4>
    9fc0:	633a6425 	teqvs	sl, #620756992	; 0x25000000
    9fc4:	6d655f71 	stclvs	15, cr5, [r5, #-452]!	; 0xfffffe3c
    9fc8:	28797470 	ldmdacs	r9!, {r4, r5, r6, sl, ip, sp, lr}^
    9fcc:	000a2963 	andeq	r2, sl, r3, ror #18
    9fd0:	6573552f 	ldrbvs	r5, [r3, #-1327]!	; 0x52f
    9fd4:	622f7372 	eorvs	r7, pc, #-939524095	; 0xc8000001
    9fd8:	6e616972 	mcrvs	9, 3, r6, cr1, cr2, {3}
    9fdc:	2f6e756a 	svccs	0x006e756a
    9fe0:	6b736544 	blvs	1ce34f8 <__bss_end__+0x1cd4c00>
    9fe4:	2f706f74 	svccs	0x00706f74
    9fe8:	6f686373 	svcvs	0x00686373
    9fec:	572f6c6f 	strpl	r6, [pc, -pc, ror #24]!
    9ff0:	65746e69 	ldrbvs	r6, [r4, #-3689]!	; 0xe69
    9ff4:	32393172 	eorscc	r3, r9, #-2147483620	; 0x8000001c
    9ff8:	53432f30 	movtpl	r2, #16176	; 0x3f30
    9ffc:	45303431 	ldrmi	r3, [r0, #-1073]!	; 0x431
    a000:	3173632f 	cmncc	r3, pc, lsr #6
    a004:	2d653034 	stclcs	0, cr3, [r5, #-208]!	; 0xffffff30
    a008:	69773032 	ldmdbvs	r7!, {r1, r4, r5, ip, sp}^
    a00c:	696c2f6e 	stmdbvs	ip!, {r1, r2, r3, r5, r6, r8, r9, sl, fp, sp}^
    a010:	2f697062 	svccs	0x00697062
    a014:	6362696c 	cmnvs	r2, #108, 18	; 0x1b0000
    a018:	7269632f 	rsbvc	r6, r9, #-1140850688	; 0xbc000000
    a01c:	616c7563 	cmnvs	ip, r3, ror #10
    a020:	00682e72 	rsbeq	r2, r8, r2, ror lr
    a024:	494e4150 	stmdbmi	lr, {r4, r6, r8, lr}^
    a028:	73253a43 	teqvc	r5, #274432	; 0x43000
    a02c:	3a73253a 	bcc	1cd351c <__bss_end__+0x1cc4c24>
    a030:	213a6425 	teqcs	sl, r5, lsr #8
    a034:	665f7163 	ldrbvs	r7, [pc], -r3, ror #2
    a038:	286c6c75 	stmdacs	ip!, {r0, r2, r4, r5, r6, sl, fp, sp, lr}^
    a03c:	000a2963 	andeq	r2, sl, r3, ror #18
    a040:	494e4150 	stmdbmi	lr, {r4, r6, r8, lr}^
    a044:	73253a43 	teqvc	r5, #274432	; 0x43000
    a048:	3a73253a 	bcc	1cd3538 <__bss_end__+0x1cc4c40>
    a04c:	633a6425 	teqvs	sl, #620756992	; 0x25000000
    a050:	656e5f71 	strbvs	r5, [lr, #-3953]!	; 0xf71
    a054:	286d656c 	stmdacs	sp!, {r2, r3, r5, r6, r8, sl, sp, lr}^
    a058:	3d202963 	stccc	9, cr2, [r0, #-396]!	; 0xfffffe74
    a05c:	0a30203d 	beq	c12158 <__bss_end__+0xc03860>
    a060:	00000000 	andeq	r0, r0, r0
    a064:	494e4150 	stmdbmi	lr, {r4, r6, r8, lr}^
    a068:	73253a43 	teqvc	r5, #274432	; 0x43000
    a06c:	3a73253a 	bcc	1cd355c <__bss_end__+0x1cc4c64>
    a070:	633a6425 	teqvs	sl, #620756992	; 0x25000000
    a074:	6f705f71 	svcvs	0x00705f71
    a078:	6f6e5f70 	svcvs	0x006e5f70
    a07c:	6f6c626e 	svcvs	0x006c626e
    a080:	63286b63 	teqvs	r8, #101376	; 0x18c00
    a084:	2965262c 	stmdbcs	r5!, {r2, r3, r5, r9, sl, sp}^
    a088:	203d3d20 	eorscs	r3, sp, r0, lsr #26
    a08c:	26262030 			; <UNDEFINED> instruction: 0x26262030
    a090:	3d206520 	cfstr32cc	mvfx6, [r0, #-128]!	; 0xffffff80
    a094:	7830203d 	ldmdavc	r0!, {r0, r2, r3, r4, r5, sp}
    a098:	000a3231 	andeq	r3, sl, r1, lsr r2
    a09c:	65746e65 	ldrbvs	r6, [r4, #-3685]!	; 0xe65
    a0a0:	6e692072 	mcrvs	0, 3, r2, cr9, cr2, {3}
    a0a4:	20747570 	rsbscs	r7, r4, r0, ror r5
    a0a8:	68746977 	ldmdavs	r4!, {r0, r1, r2, r4, r5, r6, r8, fp, sp, lr}^
    a0ac:	63206120 	teqvs	r0, #32, 2
    a0b0:	69727261 	ldmdbvs	r2!, {r0, r5, r6, r9, ip, sp, lr}^
    a0b4:	20656761 	rsbcs	r6, r5, r1, ror #14
    a0b8:	75746572 	ldrbvc	r6, [r4, #-1394]!	; 0x572
    a0bc:	000a6e72 	andeq	r6, sl, r2, ror lr
    a0c0:	656e6f44 	strbvs	r6, [lr, #-3908]!	; 0xf44
    a0c4:	6168203a 	cmnvs	r8, sl, lsr r0
    a0c8:	656c646e 	strbvs	r6, [ip, #-1134]!	; 0x46e
    a0cc:	64252064 	strtvs	r2, [r5], #-100	; 0x64
    a0d0:	6e696c20 	cdpvs	12, 6, cr6, cr9, cr0, {1}
    a0d4:	000a7365 	andeq	r7, sl, r5, ror #6
    a0d8:	43435553 	movtmi	r5, #13651	; 0x3553
    a0dc:	21535345 	cmpcs	r3, r5, asr #6
    a0e0:	0000000a 	andeq	r0, r0, sl

0000a0e4 <__FUNCTION__.4214>:
    a0e4:	74696d65 	strbtvc	r6, [r9], #-3429	; 0xd65
    a0e8:	00000000 	andeq	r0, r0, r0

0000a0ec <__FUNCTION__.4162>:
    a0ec:	5f697072 	svcpl	0x00697072
    a0f0:	5f746573 	svcpl	0x00746573
    a0f4:	7074756f 	rsbsvc	r7, r4, pc, ror #10
    a0f8:	00007475 	andeq	r7, r0, r5, ror r4

0000a0fc <__FUNCTION__.4236>:
    a0fc:	705f6176 	subsvc	r6, pc, r6, ror r1	; <UNPREDICTABLE>
    a100:	746e6972 	strbtvc	r6, [lr], #-2418	; 0x972
    a104:	0000006b 	andeq	r0, r0, fp, rrx
    a108:	494e4150 	stmdbmi	lr, {r4, r6, r8, lr}^
    a10c:	73253a43 	teqvc	r5, #274432	; 0x43000
    a110:	3a73253a 	bcc	1cd3600 <__bss_end__+0x1cc4d08>
    a114:	303a6425 	eorscc	r6, sl, r5, lsr #8
    a118:	0000000a 	andeq	r0, r0, sl
    a11c:	6362696c 	cmnvs	r2, #108, 18	; 0x1b0000
    a120:	2d61762f 	stclcs	6, cr7, [r1, #-188]!	; 0xffffff44
    a124:	6e697270 	mcrvs	2, 3, r7, cr9, cr0, {3}
    a128:	632e6b74 	teqvs	lr, #116, 22	; 0x1d000
    a12c:	00000000 	andeq	r0, r0, r0
    a130:	33323130 	teqcc	r2, #48, 2
    a134:	37363534 			; <UNDEFINED> instruction: 0x37363534
    a138:	00003938 	andeq	r3, r0, r8, lsr r9
    a13c:	33323130 	teqcc	r2, #48, 2
    a140:	37363534 			; <UNDEFINED> instruction: 0x37363534
    a144:	62613938 	rsbvs	r3, r1, #56, 18	; 0xe0000
    a148:	66656463 	strbtvs	r6, [r5], -r3, ror #8
    a14c:	00000000 	andeq	r0, r0, r0
    a150:	00003130 	andeq	r3, r0, r0, lsr r1
    a154:	494e4150 	stmdbmi	lr, {r4, r6, r8, lr}^
    a158:	73253a43 	teqvc	r5, #274432	; 0x43000
    a15c:	3a73253a 	bcc	1cd364c <__bss_end__+0x1cc4d54>
    a160:	703a6425 	eorsvc	r6, sl, r5, lsr #8
    a164:	5f637475 	svcpl	0x00637475
    a168:	000a7066 	andeq	r7, sl, r6, rrx
    a16c:	494e4150 	stmdbmi	lr, {r4, r6, r8, lr}^
    a170:	73253a43 	teqvc	r5, #274432	; 0x43000
    a174:	3a73253a 	bcc	1cd3664 <__bss_end__+0x1cc4d6c>
    a178:	773a6425 	ldrvc	r6, [sl, -r5, lsr #8]!
    a17c:	68746469 	ldmdavs	r4!, {r0, r3, r5, r6, sl, sp, lr}^
    a180:	33203c20 	teqcc	r0, #32, 24	; 0x2000
    a184:	00000a32 	andeq	r0, r0, r2, lsr sl
    a188:	494e4150 	stmdbmi	lr, {r4, r6, r8, lr}^
    a18c:	73253a43 	teqvc	r5, #274432	; 0x43000
    a190:	3a73253a 	bcc	1cd3680 <__bss_end__+0x1cc4d88>
    a194:	663a6425 	ldrtvs	r6, [sl], -r5, lsr #8
    a198:	74616f6c 	strbtvc	r6, [r1], #-3948	; 0xf6c
    a19c:	746f6e20 	strbtvc	r6, [pc], #-3616	; a1a4 <__FUNCTION__.4236+0xa8>
    a1a0:	616e6520 	cmnvs	lr, r0, lsr #10
    a1a4:	64656c62 	strbtvs	r6, [r5], #-3170	; 0xc62
    a1a8:	0a212121 	beq	852634 <__bss_end__+0x843d3c>
    a1ac:	00000000 	andeq	r0, r0, r0
    a1b0:	494e4150 	stmdbmi	lr, {r4, r6, r8, lr}^
    a1b4:	73253a43 	teqvc	r5, #274432	; 0x43000
    a1b8:	3a73253a 	bcc	1cd36a8 <__bss_end__+0x1cc4db0>
    a1bc:	703a6425 	eorsvc	r6, sl, r5, lsr #8
    a1c0:	746e6972 	strbtvc	r6, [lr], #-2418	; 0x972
    a1c4:	6e203a6b 	vnmulvs.f32	s6, s0, s23
    a1c8:	6820746f 	stmdavs	r0!, {r0, r1, r2, r3, r5, r6, sl, ip, sp, lr}
    a1cc:	6c646e61 	stclvs	14, cr6, [r4], #-388	; 0xfffffe7c
    a1d0:	20676e69 	rsbcs	r6, r7, r9, ror #28
    a1d4:	63657073 	cmnvs	r5, #115	; 0x73
    a1d8:	65696669 	strbvs	r6, [r9, #-1641]!	; 0x669
    a1dc:	25272072 	strcs	r2, [r7, #-114]!	; 0x72
    a1e0:	0a0a2763 	beq	293f74 <__bss_end__+0x28567c>
    a1e4:	00000000 	andeq	r0, r0, r0
    a1e8:	454e4f44 	strbmi	r4, [lr, #-3908]	; 0xf44
    a1ec:	0a212121 	beq	852678 <__bss_end__+0x843d80>
    a1f0:	00000000 	andeq	r0, r0, r0
    a1f4:	756f6261 	strbvc	r6, [pc, #-609]!	; 9f9b <AUX_MU_STAT_REG+0x3>
    a1f8:	6f742074 	svcvs	0x00742074
    a1fc:	69727020 	ldmdbvs	r2!, {r5, ip, sp, lr}^
    a200:	6f20746e 	svcvs	0x0020746e
    a204:	6572206e 	ldrbvs	r2, [r2, #-110]!	; 0x6e
    a208:	616c7567 	cmnvs	ip, r7, ror #10
    a20c:	72702072 	rsbsvc	r2, r0, #114	; 0x72
    a210:	66746e69 	ldrbtvs	r6, [r4], -r9, ror #28
    a214:	0000000a 	andeq	r0, r0, sl
    a218:	63637573 	cmnvs	r3, #482344960	; 0x1cc00000
    a21c:	21737365 	cmncs	r3, r5, ror #6
    a220:	0000000a 	andeq	r0, r0, sl

0000a224 <__FUNCTION__.4263>:
    a224:	755f7773 	ldrbvc	r7, [pc, #-1907]	; 9ab9 <uart_init+0x89>
    a228:	5f747261 	svcpl	0x00747261
    a22c:	73746567 	cmnvc	r4, #432013312	; 0x19c00000
    a230:	746e755f 	strbtvc	r7, [lr], #-1375	; 0x55f
    a234:	00006c69 	andeq	r6, r0, r9, ror #24

0000a238 <__FUNCTION__.4275>:
    a238:	755f7773 	ldrbvc	r7, [pc, #-1907]	; 9acd <uart_can_getc+0x1>
    a23c:	5f747261 	svcpl	0x00747261
    a240:	73746567 	cmnvc	r4, #432013312	; 0x19c00000
    a244:	6d69745f 	cfstrdvs	mvd7, [r9, #-380]!	; 0xfffffe84
    a248:	74756f65 	ldrbtvc	r6, [r5], #-3941	; 0xf65
    a24c:	00000000 	andeq	r0, r0, r0

0000a250 <__FUNCTION__.4289>:
    a250:	755f7773 	ldrbvc	r7, [pc, #-1907]	; 9ae5 <uart_can_getc+0x19>
    a254:	5f747261 	svcpl	0x00747261
    a258:	74696e69 	strbtvc	r6, [r9], #-3689	; 0xe69
    a25c:	6c65685f 	stclvs	8, cr6, [r5], #-380	; 0xfffffe84
    a260:	00726570 	rsbseq	r6, r2, r0, ror r5

0000a264 <__FUNCTION__.4295>:
    a264:	755f7773 	ldrbvc	r7, [pc, #-1907]	; 9af9 <uart_getc+0x11>
    a268:	5f747261 	svcpl	0x00747261
    a26c:	63746567 	cmnvs	r4, #432013312	; 0x19c00000
    a270:	00000000 	andeq	r0, r0, r0

0000a274 <__FUNCTION__.4317>:
    a274:	755f7773 	ldrbvc	r7, [pc, #-1907]	; 9b09 <uart_getc+0x21>
    a278:	5f747261 	svcpl	0x00747261
    a27c:	6e697270 	mcrvs	2, 3, r7, cr9, cr0, {3}
    a280:	00006b74 	andeq	r6, r0, r4, ror fp

0000a284 <__FUNCTION__.4325>:
    a284:	755f7773 	ldrbvc	r7, [pc, #-1907]	; 9b19 <uart_can_putc+0x9>
    a288:	5f747261 	svcpl	0x00747261
    a28c:	73746567 	cmnvc	r4, #432013312	; 0x19c00000
    a290:	746e755f 	strbtvc	r7, [lr], #-1375	; 0x55f
    a294:	625f6c69 	subsvs	r6, pc, #26880	; 0x6900
    a298:	00006b6c 	andeq	r6, r0, ip, ror #22
    a29c:	494e4150 	stmdbmi	lr, {r4, r6, r8, lr}^
    a2a0:	73253a43 	teqvc	r5, #274432	; 0x43000
    a2a4:	3a73253a 	bcc	1cd3794 <__bss_end__+0x1cc4e9c>
    a2a8:	6e3a6425 	cdpvs	4, 3, cr6, cr10, cr5, {1}
    a2ac:	65747962 	ldrbvs	r7, [r4, #-2402]!	; 0x962
    a2b0:	0a303e73 	beq	c19c84 <__bss_end__+0xc0b38c>
    a2b4:	00000000 	andeq	r0, r0, r0
    a2b8:	732d796d 	teqvc	sp, #1785856	; 0x1b4000
    a2bc:	732f6372 	teqvc	pc, #-939524095	; 0xc8000001
    a2c0:	61752d77 	cmnvs	r5, r7, ror sp
    a2c4:	632e7472 	teqvs	lr, #1912602624	; 0x72000000
    a2c8:	00000000 	andeq	r0, r0, r0
    a2cc:	494e4150 	stmdbmi	lr, {r4, r6, r8, lr}^
    a2d0:	73253a43 	teqvc	r5, #274432	; 0x43000
    a2d4:	3a73253a 	bcc	1cd37c4 <__bss_end__+0x1cc4ecc>
    a2d8:	283a6425 	ldmdacs	sl!, {r0, r2, r5, sl, sp, lr}
    a2dc:	207a686d 	rsbscs	r6, sl, sp, ror #16
    a2e0:	6162202d 	cmnvs	r2, sp, lsr #32
    a2e4:	20296475 	eorcs	r6, r9, r5, ror r4
    a2e8:	64203d3c 	strtvs	r3, [r0], #-3388	; 0xd3c
    a2ec:	76697265 	strbtvc	r7, [r9], -r5, ror #4
    a2f0:	26206465 	strtcs	r6, [r0], -r5, ror #8
    a2f4:	65642026 	strbvs	r2, [r4, #-38]!	; 0x26
    a2f8:	65766972 	ldrbvs	r6, [r6, #-2418]!	; 0x972
    a2fc:	3d3c2064 	ldccc	0, cr2, [ip, #-400]!	; 0xfffffe70
    a300:	686d2820 	stmdavs	sp!, {r5, fp, sp}^
    a304:	202b207a 	eorcs	r2, fp, sl, ror r0
    a308:	64756162 	ldrbtvs	r6, [r5], #-354	; 0x162
    a30c:	00000a29 	andeq	r0, r0, r9, lsr #20
    a310:	494e4150 	stmdbmi	lr, {r4, r6, r8, lr}^
    a314:	73253a43 	teqvc	r5, #274432	; 0x43000
    a318:	3a73253a 	bcc	1cd3808 <__bss_end__+0x1cc4f10>
    a31c:	693a6425 	ldmdbvs	sl!, {r0, r2, r5, sl, sp, lr}
    a320:	736f706d 	cmnvc	pc, #109	; 0x6d
    a324:	6c626973 	stclvs	9, cr6, [r2], #-460	; 0xfffffe34
    a328:	68203a65 	stmdavs	r0!, {r0, r2, r5, r6, r9, fp, ip, sp}
    a32c:	20657661 	rsbcs	r7, r5, r1, ror #12
    a330:	69206e61 	stmdbvs	r0!, {r0, r5, r6, r9, sl, fp, sp, lr}
    a334:	6e69666e 	cdpvs	6, 6, cr6, cr9, cr14, {3}
    a338:	20657469 	rsbcs	r7, r5, r9, ror #8
    a33c:	656d6974 	strbvs	r6, [sp, #-2420]!	; 0x974
    a340:	2174756f 	cmncs	r4, pc, ror #10
    a344:	00000a0a 	andeq	r0, r0, sl, lsl #20
    a348:	494e4150 	stmdbmi	lr, {r4, r6, r8, lr}^
    a34c:	73253a43 	teqvc	r5, #274432	; 0x43000
    a350:	3a73253a 	bcc	1cd3840 <__bss_end__+0x1cc4f48>
    a354:	733a6425 	teqvc	sl, #620756992	; 0x25000000
    a358:	203c207a 	eorscs	r2, ip, sl, ror r0
    a35c:	657a6973 	ldrbvs	r6, [sl, #-2419]!	; 0x973
    a360:	6220666f 	eorvs	r6, r0, #116391936	; 0x6f00000
    a364:	312d6675 	teqcc	sp, r5, ror r6
    a368:	0000000a 	andeq	r0, r0, sl

0000a36c <__FUNCTION__.4194>:
    a36c:	74736166 	ldrbtvc	r6, [r3], #-358	; 0x166
    a370:	746e695f 	strbtvc	r6, [lr], #-2399	; 0x95f
    a374:	75727265 	ldrbvc	r7, [r2, #-613]!	; 0x265
    a378:	765f7470 			; <UNDEFINED> instruction: 0x765f7470
    a37c:	6f746365 	svcvs	0x00746365
    a380:	00000072 	andeq	r0, r0, r2, ror r0

0000a384 <__FUNCTION__.4198>:
    a384:	74666f73 	strbtvc	r6, [r6], #-3955	; 0xf73
    a388:	65726177 	ldrbvs	r6, [r2, #-375]!	; 0x177
    a38c:	746e695f 	strbtvc	r6, [lr], #-2399	; 0x95f
    a390:	75727265 	ldrbvc	r7, [r2, #-613]!	; 0x265
    a394:	765f7470 			; <UNDEFINED> instruction: 0x765f7470
    a398:	6f746365 	svcvs	0x00746365
    a39c:	00000072 	andeq	r0, r0, r2, ror r0

0000a3a0 <__FUNCTION__.4202>:
    a3a0:	65736572 	ldrbvs	r6, [r3, #-1394]!	; 0x572
    a3a4:	65765f74 	ldrbvs	r5, [r6, #-3956]!	; 0xf74
    a3a8:	726f7463 	rsbvc	r7, pc, #1660944384	; 0x63000000
    a3ac:	00000000 	andeq	r0, r0, r0

0000a3b0 <__FUNCTION__.4206>:
    a3b0:	65646e75 	strbvs	r6, [r4, #-3701]!	; 0xe75
    a3b4:	656e6966 	strbvs	r6, [lr, #-2406]!	; 0x966
    a3b8:	6e695f64 	cdpvs	15, 6, cr5, cr9, cr4, {3}
    a3bc:	75727473 	ldrbvc	r7, [r2, #-1139]!	; 0x473
    a3c0:	6f697463 	svcvs	0x00697463
    a3c4:	65765f6e 	ldrbvs	r5, [r6, #-3950]!	; 0xf6e
    a3c8:	726f7463 	rsbvc	r7, pc, #1660944384	; 0x63000000
    a3cc:	00000000 	andeq	r0, r0, r0

0000a3d0 <__FUNCTION__.4210>:
    a3d0:	66657270 			; <UNDEFINED> instruction: 0x66657270
    a3d4:	68637465 	stmdavs	r3!, {r0, r2, r5, r6, sl, ip, sp, lr}^
    a3d8:	6f62615f 	svcvs	0x0062615f
    a3dc:	765f7472 			; <UNDEFINED> instruction: 0x765f7472
    a3e0:	6f746365 	svcvs	0x00746365
    a3e4:	00000072 	andeq	r0, r0, r2, ror r0

0000a3e8 <__FUNCTION__.4214>:
    a3e8:	61746164 	cmnvs	r4, r4, ror #2
    a3ec:	6f62615f 	svcvs	0x0062615f
    a3f0:	765f7472 			; <UNDEFINED> instruction: 0x765f7472
    a3f4:	6f746365 	svcvs	0x00746365
    a3f8:	00000072 	andeq	r0, r0, r2, ror r0
    a3fc:	494e4150 	stmdbmi	lr, {r4, r6, r8, lr}^
    a400:	73253a43 	teqvc	r5, #274432	; 0x43000
    a404:	3a73253a 	bcc	1cd38f4 <__bss_end__+0x1cc4ffc>
    a408:	453a6425 	ldrmi	r6, [sl, #-1061]!	; 0x425
    a40c:	524f5252 	subpl	r5, pc, #536870917	; 0x20000005
    a410:	6e75203a 	mrcvs	0, 3, r2, cr5, cr10, {1}
    a414:	646e6168 	strbtvs	r6, [lr], #-360	; 0x168
    a418:	2064656c 	rsbcs	r6, r4, ip, ror #10
    a41c:	65637865 	strbvs	r7, [r3, #-2149]!	; 0x865
    a420:	6f697470 	svcvs	0x00697470
    a424:	253c206e 	ldrcs	r2, [ip, #-110]!	; 0x6e
    a428:	61203e73 	teqvs	r0, r3, ror lr
    a42c:	43502074 	cmpmi	r0, #116	; 0x74
    a430:	0a78253d 	beq	1e1392c <__bss_end__+0x1e05034>
    a434:	0000000a 	andeq	r0, r0, sl
    a438:	34317363 	ldrtcc	r7, [r1], #-867	; 0x363
    a43c:	692d6530 	pushvs	{r4, r5, r8, sl, sp, lr}
    a440:	7265746e 	rsbvc	r7, r5, #1845493760	; 0x6e000000
    a444:	74707572 	ldrbtvc	r7, [r0], #-1394	; 0x572
    a448:	746e692f 	strbtvc	r6, [lr], #-2351	; 0x92f
    a44c:	75727265 	ldrbvc	r7, [r2, #-613]!	; 0x265
    a450:	2d737470 	cfldrdcs	mvd7, [r3, #-448]!	; 0xfffffe40
    a454:	00632e63 	rsbeq	r2, r3, r3, ror #28
    a458:	74736166 	ldrbtvc	r6, [r3], #-358	; 0x166
    a45c:	00000000 	andeq	r0, r0, r0
    a460:	74666f73 	strbtvc	r6, [r6], #-3955	; 0xf73
    a464:	746e6920 	strbtvc	r6, [lr], #-2336	; 0x920
    a468:	75727265 	ldrbvc	r7, [r2, #-613]!	; 0x265
    a46c:	00007470 	andeq	r7, r0, r0, ror r4
    a470:	65736572 	ldrbvs	r6, [r3, #-1394]!	; 0x572
    a474:	65762074 	ldrbvs	r2, [r6, #-116]!	; 0x74
    a478:	726f7463 	rsbvc	r7, pc, #1660944384	; 0x63000000
    a47c:	00000000 	andeq	r0, r0, r0
    a480:	65646e75 	strbvs	r6, [r4, #-3701]!	; 0xe75
    a484:	656e6966 	strbvs	r6, [lr, #-2406]!	; 0x966
    a488:	6e692064 	cdpvs	0, 6, cr2, cr9, cr4, {3}
    a48c:	75727473 	ldrbvc	r7, [r2, #-1139]!	; 0x473
    a490:	6f697463 	svcvs	0x00697463
    a494:	0000006e 	andeq	r0, r0, lr, rrx
    a498:	66657270 			; <UNDEFINED> instruction: 0x66657270
    a49c:	68637465 	stmdavs	r3!, {r0, r2, r5, r6, sl, ip, sp, lr}^
    a4a0:	6f626120 	svcvs	0x00626120
    a4a4:	00007472 	andeq	r7, r0, r2, ror r4
    a4a8:	61746164 	cmnvs	r4, r4, ror #2
    a4ac:	6f626120 	svcvs	0x00626120
    a4b0:	00007472 	andeq	r7, r0, r2, ror r4

Disassembly of section .bss:

0000a4b4 <__bss_start__>:
	...

0000c4c8 <in_data>:
    c4c8:	00000000 	andeq	r0, r0, r0

0000c4cc <putQ>:
	...

0000e4e0 <tx_count>:
    e4e0:	00000000 	andeq	r0, r0, r0

0000e4e4 <buf.4162>:
	...

0000e8e4 <console_uart>:
	...

0000e8f0 <rpi_arm_timer_t>:
	...

Disassembly of section .ARM.attributes:

00000000 <.ARM.attributes>:
   0:	00002a41 	andeq	r2, r0, r1, asr #20
   4:	61656100 	cmnvs	r5, r0, lsl #2
   8:	01006962 	tsteq	r0, r2, ror #18
   c:	00000020 	andeq	r0, r0, r0, lsr #32
  10:	4b5a3605 	blmi	168d82c <__bss_end__+0x167ef34>
  14:	08070600 	stmdaeq	r7, {r9, sl}
  18:	12010901 	andne	r0, r1, #16384	; 0x4000
  1c:	15011404 	strne	r1, [r1, #-1028]	; 0x404
  20:	18031701 	stmdane	r3, {r0, r8, r9, sl, ip}
  24:	22011a01 	andcs	r1, r1, #4096	; 0x1000
  28:	Address 0x0000000000000028 is out of bounds.


Disassembly of section .comment:

00000000 <.comment>:
   0:	3a434347 	bcc	10d0d24 <__bss_end__+0x10c242c>
   4:	4e472820 	cdpmi	8, 4, cr2, cr7, cr0, {1}
   8:	34202955 	strtcc	r2, [r0], #-2389	; 0x955
   c:	332e382e 	teqcc	lr, #3014656	; 0x2e0000
	...

Disassembly of section .debug_info:

00000000 <.debug_info>:
       0:	00000ecd 	andeq	r0, r0, sp, asr #29
       4:	00000004 	andeq	r0, r0, r4
       8:	01040000 	mrseq	r0, (UNDEF: 4)
       c:	00000376 	andeq	r0, r0, r6, ror r3
      10:	00041501 	andeq	r1, r4, r1, lsl #10
      14:	00030900 	andeq	r0, r3, r0, lsl #18
      18:	00801000 	addeq	r1, r0, r0
      1c:	00069000 	andeq	r9, r6, r0
      20:	00000000 	andeq	r0, r0, r0
      24:	05040200 	streq	r0, [r4, #-512]	; 0x200
      28:	00746e69 	rsbseq	r6, r4, r9, ror #28
      2c:	00000003 	andeq	r0, r0, r3
      30:	37d40300 	ldrbcc	r0, [r4, r0, lsl #6]
      34:	04000000 	streq	r0, [r0], #-0
      38:	00620704 	rsbeq	r0, r2, r4, lsl #14
      3c:	01040000 	mrseq	r0, (UNDEF: 4)
      40:	0002db06 	andeq	sp, r2, r6, lsl #22
      44:	05020400 	streq	r0, [r2, #-1024]	; 0x400
      48:	000002ef 	andeq	r0, r0, pc, ror #5
      4c:	93050404 	movwls	r0, #21508	; 0x5404
      50:	04000000 	streq	r0, [r0], #-0
      54:	008e0508 	addeq	r0, lr, r8, lsl #10
      58:	70030000 	andvc	r0, r3, r0
      5c:	04000004 	streq	r0, [r0], #-4
      60:	0000652e 	andeq	r6, r0, lr, lsr #10
      64:	08010400 	stmdaeq	r1, {sl}
      68:	000002d9 	ldrdeq	r0, [r0], -r9
      6c:	bb070204 	bllt	1c0884 <__bss_end__+0x1b1f8c>
      70:	03000001 	movweq	r0, #1
      74:	00000368 	andeq	r0, r0, r8, ror #6
      78:	007e3404 	rsbseq	r3, lr, r4, lsl #8
      7c:	04040000 	streq	r0, [r4], #-0
      80:	00005d07 	andeq	r5, r0, r7, lsl #26
      84:	07080400 	streq	r0, [r8, -r0, lsl #8]
      88:	00000058 	andeq	r0, r0, r8, asr r0
      8c:	4a070404 	bmi	1c10a4 <__bss_end__+0x1b27ac>
      90:	05000002 	streq	r0, [r0, #-2]
      94:	08010404 	stmdaeq	r1, {r2, sl}
      98:	000002e2 	andeq	r0, r0, r2, ror #5
      9c:	00a20406 	adceq	r0, r2, r6, lsl #8
      a0:	95070000 	strls	r0, [r7, #-0]
      a4:	08000000 	stmdaeq	r0, {}	; <UNPREDICTABLE>
      a8:	00000095 	muleq	r0, r5, r0
      ac:	000000b7 	strheq	r0, [r0], -r7
      b0:	00008c09 	andeq	r8, r0, r9, lsl #24
      b4:	0a000700 	beq	1cbc <_start-0x6344>
      b8:	f00c0501 			; <UNDEFINED> instruction: 0xf00c0501
      bc:	0b000000 	bleq	c4 <_start-0x7f3c>
      c0:	00000075 	andeq	r0, r0, r5, ror r0
      c4:	045f0b00 	ldrbeq	r0, [pc], #-2816	; cc <_start-0x7f34>
      c8:	0b010000 	bleq	400d0 <__bss_end__+0x317d8>
      cc:	0000049c 	muleq	r0, ip, r4
      d0:	04ab0b04 	strteq	r0, [fp], #2820	; 0xb04
      d4:	0b050000 	bleq	1400dc <__bss_end__+0x1317e4>
      d8:	000004ba 			; <UNDEFINED> instruction: 0x000004ba
      dc:	04c90b06 	strbeq	r0, [r9], #2822	; 0xb06
      e0:	0b070000 	bleq	1c00e8 <__bss_end__+0x1b17f0>
      e4:	000004d8 	ldrdeq	r0, [r0], -r8
      e8:	04e70b03 	strbteq	r0, [r7], #2819	; 0xb03
      ec:	00020000 	andeq	r0, r2, r0
      f0:	00047e03 	andeq	r7, r4, r3, lsl #28
      f4:	b7150500 	ldrlt	r0, [r5, -r0, lsl #10]
      f8:	0a000000 	beq	100 <_start-0x7f00>
      fc:	68330604 	ldmdavs	r3!, {r2, r9, sl}
     100:	0b000001 	bleq	10c <_start-0x7ef4>
     104:	000000e5 	andeq	r0, r0, r5, ror #1
     108:	8082e880 	addhi	lr, r2, r0, lsl #17
     10c:	00d60b02 	sbcseq	r0, r6, r2, lsl #22
     110:	e8800000 	stm	r0, {}	; <UNPREDICTABLE>
     114:	0b028082 	bleq	a0324 <__bss_end__+0x91a2c>
     118:	00000420 	andeq	r0, r0, r0, lsr #8
     11c:	8082e884 	addhi	lr, r2, r4, lsl #17
     120:	00c40b02 	sbceq	r0, r4, r2, lsl #22
     124:	e8880000 	stm	r8, {}	; <UNPREDICTABLE>
     128:	0b028082 	bleq	a0338 <__bss_end__+0x91a40>
     12c:	00000430 	andeq	r0, r0, r0, lsr r4
     130:	8082e88c 	addhi	lr, r2, ip, lsl #17
     134:	002d0b02 	eoreq	r0, sp, r2, lsl #22
     138:	e8900000 	ldm	r0, {}	; <UNPREDICTABLE>
     13c:	0b028082 	bleq	a034c <__bss_end__+0x91a54>
     140:	0000014d 	andeq	r0, r0, sp, asr #2
     144:	8082e894 	umullhi	lr, r2, r4, r8
     148:	027d0b02 	rsbseq	r0, sp, #2048	; 0x800
     14c:	e8980000 	ldm	r8, {}	; <UNPREDICTABLE>
     150:	0b028082 	bleq	a0360 <__bss_end__+0x91a68>
     154:	00000400 	andeq	r0, r0, r0, lsl #8
     158:	8082e89c 	umullhi	lr, r2, ip, r8
     15c:	053d0b02 	ldreq	r0, [sp, #-2818]!	; 0xb02
     160:	e8a00000 	stmia	r0!, {}	; <UNPREDICTABLE>
     164:	00028082 	andeq	r8, r2, r2, lsl #1
     168:	0003fa03 	andeq	pc, r3, r3, lsl #20
     16c:	651c0100 	ldrvs	r0, [ip, #-256]	; 0x100
     170:	0c000000 	stceq	0, cr0, [r0], {-0}
     174:	28012014 	stmdacs	r1, {r2, r4, sp}
     178:	000001cd 	andeq	r0, r0, sp, asr #3
     17c:	00006f0d 	andeq	r6, r0, sp, lsl #30
     180:	de2a0100 	suflee	f0, f2, f0
     184:	00000001 	andeq	r0, r0, r1
     188:	0003cd0e 	andeq	ip, r3, lr, lsl #26
     18c:	372b0100 	strcc	r0, [fp, -r0, lsl #2]!
     190:	00000000 	andeq	r0, r0, r0
     194:	03630e20 	cmneq	r3, #32, 28	; 0x200
     198:	2c010000 	stccs	0, cr0, [r1], {-0}
     19c:	000001e3 	andeq	r0, r0, r3, ror #3
     1a0:	450e2004 	strmi	r2, [lr, #-4]
     1a4:	01000002 	tsteq	r0, r2
     1a8:	0001e32c 	andeq	lr, r1, ip, lsr #6
     1ac:	0e200800 	cdpeq	8, 2, cr0, cr0, cr0, {0}
     1b0:	000003e3 	andeq	r0, r0, r3, ror #7
     1b4:	01e32f01 	mvneq	r2, r1, lsl #30
     1b8:	200c0000 	andcs	r0, ip, r0
     1bc:	0000070f 	andeq	r0, r0, pc, lsl #14
     1c0:	37310100 	ldrcc	r0, [r1, -r0, lsl #2]!
     1c4:	04000000 	streq	r0, [r0], #-0
     1c8:	20101f01 	andscs	r1, r0, r1, lsl #30
     1cc:	01680800 	cmneq	r8, r0, lsl #16
     1d0:	01de0000 	bicseq	r0, lr, r0
     1d4:	8c100000 	ldchi	0, cr0, [r0], {-0}
     1d8:	ff000000 			; <UNDEFINED> instruction: 0xff000000
     1dc:	cd11001f 	ldcgt	0, cr0, [r1, #-124]	; 0xffffff84
     1e0:	11000001 	tstne	r0, r1
     1e4:	00000037 	andeq	r0, r0, r7, lsr r0
     1e8:	00044a03 	andeq	r4, r4, r3, lsl #20
     1ec:	73320100 	teqvc	r2, #0, 2
     1f0:	12000001 	andne	r0, r0, #1
     1f4:	2a0e070c 	bcs	381e2c <__bss_end__+0x373534>
     1f8:	13000002 	movwne	r0, #2
     1fc:	07007874 	smlsdxeq	r0, r4, r8, r7
     200:	00005a0f 	andeq	r5, r0, pc, lsl #20
     204:	72130000 	andsvc	r0, r3, #0
     208:	0f070078 	svceq	0x00070078
     20c:	0000005a 	andeq	r0, r0, sl, asr r0
     210:	03710d01 	cmneq	r1, #1, 26	; 0x40
     214:	10070000 	andne	r0, r7, r0
     218:	00000073 	andeq	r0, r0, r3, ror r0
     21c:	05050d04 	streq	r0, [r5, #-3332]	; 0xd04
     220:	11070000 	mrsne	r0, (UNDEF: 7)
     224:	00000073 	andeq	r0, r0, r3, ror r0
     228:	cf030008 	svcgt	0x00030008
     22c:	07000002 	streq	r0, [r0, -r2]
     230:	0001f312 	andeq	pc, r1, r2, lsl r3	; <UNPREDICTABLE>
     234:	00851400 	addeq	r1, r5, r0, lsl #8
     238:	39010000 	stmdbcc	r1, {}	; <UNPREDICTABLE>
     23c:	00000025 	andeq	r0, r0, r5, lsr #32
     240:	00024f03 	andeq	r4, r2, r3, lsl #30
     244:	00711500 	rsbseq	r1, r1, r0, lsl #10
     248:	024f3901 	subeq	r3, pc, #16384	; 0x4000
     24c:	06000000 	streq	r0, [r0], -r0
     250:	0001e804 	andeq	lr, r1, r4, lsl #16
     254:	05351400 	ldreq	r1, [r5, #-1024]!	; 0x400
     258:	3c010000 	stccc	0, cr0, [r1], {-0}
     25c:	00000025 	andeq	r0, r0, r5, lsr #32
     260:	00026f03 	andeq	r6, r2, r3, lsl #30
     264:	00711500 	rsbseq	r1, r1, r0, lsl #10
     268:	024f3c01 	subeq	r3, pc, #256	; 0x100
     26c:	14000000 	strne	r0, [r0], #-0
     270:	000001b2 			; <UNDEFINED> instruction: 0x000001b2
     274:	00373e01 	eorseq	r3, r7, r1, lsl #28
     278:	89030000 	stmdbhi	r3, {}	; <UNPREDICTABLE>
     27c:	15000002 	strne	r0, [r0, #-2]
     280:	3e010071 	mcrcc	0, 0, r0, cr1, cr1, {3}
     284:	0000024f 	andeq	r0, r0, pc, asr #4
     288:	026d1400 	rsbeq	r1, sp, #0, 8
     28c:	42010000 	andmi	r0, r1, #0
     290:	00000025 	andeq	r0, r0, r5, lsr #32
     294:	0002b703 	andeq	fp, r2, r3, lsl #14
     298:	00631500 	rsbeq	r1, r3, r0, lsl #10
     29c:	024f4201 	subeq	r4, pc, #268435456	; 0x10000000
     2a0:	65150000 	ldrvs	r0, [r5, #-0]
     2a4:	b7420100 	strblt	r0, [r2, -r0, lsl #2]
     2a8:	16000002 	strne	r0, [r0], -r2
     2ac:	00000245 	andeq	r0, r0, r5, asr #4
     2b0:	00374501 	eorseq	r4, r7, r1, lsl #10
     2b4:	06000000 	streq	r0, [r0], -r0
     2b8:	00016804 	andeq	r6, r1, r4, lsl #16
     2bc:	03f21400 	mvnseq	r1, #0, 8
     2c0:	56010000 	strpl	r0, [r1], -r0
     2c4:	00000025 	andeq	r0, r0, r5, lsr #32
     2c8:	0002eb03 	andeq	lr, r2, r3, lsl #22
     2cc:	00631500 	rsbeq	r1, r3, r0, lsl #10
     2d0:	024f5601 	subeq	r5, pc, #1048576	; 0x100000
     2d4:	78150000 	ldmdavc	r5, {}	; <UNPREDICTABLE>
     2d8:	68560100 	ldmdavs	r6, {r8}^
     2dc:	16000001 	strne	r0, [r0], -r1
     2e0:	00000363 	andeq	r0, r0, r3, ror #6
     2e4:	00375701 	eorseq	r5, r7, r1, lsl #14
     2e8:	17000000 	strne	r0, [r0, -r0]
     2ec:	0000028e 	andeq	r0, r0, lr, lsl #5
     2f0:	80109901 	andshi	r9, r0, r1, lsl #18
     2f4:	01b40000 			; <UNDEFINED> instruction: 0x01b40000
     2f8:	9c010000 	stcls	0, cr0, [r1], {-0}
     2fc:	000004fb 	strdeq	r0, [r0], -fp
     300:	01006318 	tsteq	r0, r8, lsl r3
     304:	00024f99 	muleq	r2, r9, pc	; <UNPREDICTABLE>
     308:	00000000 	andeq	r0, r0, r0
     30c:	00071900 	andeq	r1, r7, r0, lsl #18
     310:	99010000 	stmdbls	r1, {}	; <UNPREDICTABLE>
     314:	00000037 	andeq	r0, r0, r7, lsr r0
     318:	0000001e 	andeq	r0, r0, lr, lsl r0
     31c:	0001961a 	andeq	r9, r1, sl, lsl r6
     320:	0004fb00 	andeq	pc, r4, r0, lsl #22
     324:	ac030500 	cfstr32ge	mvfx0, [r3], {-0}
     328:	1b00009f 	blne	5ac <_start-0x7a54>
     32c:	a2010065 	andge	r0, r1, #101	; 0x65
     330:	00000168 	andeq	r0, r0, r8, ror #2
     334:	0000004a 	andeq	r0, r0, sl, asr #32
     338:	0002351c 	andeq	r3, r2, ip, lsl r5
     33c:	00806800 	addeq	r6, r0, r0, lsl #16
     340:	00000800 	andeq	r0, r0, r0, lsl #16
     344:	539f0100 	orrspl	r0, pc, #0, 2
     348:	1d000003 	stcne	0, cr0, [r0, #-12]
     34c:	00000245 	andeq	r0, r0, r5, asr #4
     350:	1c005401 	cfstrsne	mvf5, [r0], {1}
     354:	00000255 	andeq	r0, r0, r5, asr r2
     358:	00008094 	muleq	r0, r4, r0
     35c:	00000018 	andeq	r0, r0, r8, lsl r0
     360:	036ea001 	cmneq	lr, #1
     364:	651d0000 	ldrvs	r0, [sp, #-0]
     368:	01000002 	tsteq	r0, r2
     36c:	6f1c0054 	svcvs	0x001c0054
     370:	d0000002 	andle	r0, r0, r2
     374:	14000080 	strne	r0, [r0], #-128	; 0x80
     378:	01000000 	mrseq	r0, (UNDEF: 0)
     37c:	000389a1 	andeq	r8, r3, r1, lsr #19
     380:	027f1d00 	rsbseq	r1, pc, #0, 26
     384:	54010000 	strpl	r0, [r1], #-0
     388:	02891e00 	addeq	r1, r9, #0, 28
     38c:	81080000 	mrshi	r0, (UNDEF: 8)
     390:	00000000 	andeq	r0, r0, r0
     394:	a3010000 	movwge	r0, #4096	; 0x1000
     398:	000003d6 	ldrdeq	r0, [r0], -r6
     39c:	0002a21d 	andeq	sl, r2, sp, lsl r2
     3a0:	2bf20600 	blcs	ffc81ba8 <__bss_end__+0xffc732b0>
     3a4:	00000003 	andeq	r0, r0, r3
     3a8:	0002991d 	andeq	r9, r2, sp, lsl r9
     3ac:	1f540100 	svcne	0x00540100
     3b0:	00000000 	andeq	r0, r0, r0
     3b4:	0002ab20 	andeq	sl, r2, r0, lsr #22
     3b8:	00008000 	andeq	r8, r0, r0
     3bc:	02352100 	eorseq	r2, r5, #0, 2
     3c0:	81080000 	mrshi	r0, (UNDEF: 8)
     3c4:	00100000 	andseq	r0, r0, r0
     3c8:	43010000 	movwmi	r0, #4096	; 0x1000
     3cc:	0002451d 	andeq	r4, r2, sp, lsl r5
     3d0:	00540100 	subseq	r0, r4, r0, lsl #2
     3d4:	28220000 	stmdacs	r2!, {}	; <UNPREDICTABLE>
     3d8:	b0000080 	andlt	r0, r0, r0, lsl #1
     3dc:	f600000d 			; <UNDEFINED> instruction: 0xf600000d
     3e0:	23000003 	movwcs	r0, #3
     3e4:	0a035201 	beq	d4bf0 <__bss_end__+0xc62f8>
     3e8:	01232014 	teqeq	r3, r4, lsl r0
     3ec:	23300151 	teqcs	r0, #1073741844	; 0x40000014
     3f0:	74025001 	strvc	r5, [r2], #-1
     3f4:	7c240000 	stcvc	0, cr0, [r4], #-0
     3f8:	cf000080 	svcgt	0x00000080
     3fc:	2200000d 	andcs	r0, r0, #13
     400:	00008090 	muleq	r0, r0, r0
     404:	00000dd6 	ldrdeq	r0, [r0], -r6
     408:	0000042e 	andeq	r0, r0, lr, lsr #8
     40c:	02530123 	subseq	r0, r3, #-1073741816	; 0xc0000008
     410:	01239f08 	teqeq	r3, r8, lsl #30
     414:	ac030552 	cfstr32ge	mvfx0, [r3], {82}	; 0x52
     418:	2300009f 	movwcs	r0, #159	; 0x9f
     41c:	03055101 	movweq	r5, #20737	; 0x5101
     420:	00009fd0 	ldrdeq	r9, [r0], -r0
     424:	05500123 	ldrbeq	r0, [r0, #-291]	; 0x123
     428:	009fb403 	addseq	fp, pc, r3, lsl #8
     42c:	94240000 	strtls	r0, [r4], #-0
     430:	ec000080 	stc	0, cr0, [r0], {128}	; 0x80
     434:	2400000d 	strcs	r0, [r0], #-13
     438:	000080b8 	strheq	r8, [r0], -r8	; <UNPREDICTABLE>
     43c:	00000dcf 	andeq	r0, r0, pc, asr #27
     440:	0080cc22 	addeq	ip, r0, r2, lsr #24
     444:	000dd600 	andeq	sp, sp, r0, lsl #12
     448:	00046f00 	andeq	r6, r4, r0, lsl #30
     44c:	53012300 	movwpl	r2, #4864	; 0x1300
     450:	23a00802 	movcs	r0, #131072	; 0x20000
     454:	03055201 	movweq	r5, #20993	; 0x5201
     458:	00009fac 	andeq	r9, r0, ip, lsr #31
     45c:	05510123 	ldrbeq	r0, [r1, #-291]	; 0x123
     460:	009fd003 	addseq	sp, pc, r3
     464:	50012300 	andpl	r2, r1, r0, lsl #6
     468:	a0240305 	eorge	r0, r4, r5, lsl #6
     46c:	24000000 	strcs	r0, [r0], #-0
     470:	000080d0 	ldrdeq	r8, [r0], -r0
     474:	00000dec 	andeq	r0, r0, ip, ror #27
     478:	0080f024 	addeq	pc, r0, r4, lsr #32
     47c:	000dcf00 	andeq	ip, sp, r0, lsl #30
     480:	81042200 	mrshi	r2, R12_usr
     484:	0dd60000 	ldcleq	0, cr0, [r6]
     488:	04b00000 	ldrteq	r0, [r0], #0
     48c:	01230000 	teqeq	r3, r0
     490:	a1080253 	tstge	r8, r3, asr r2
     494:	05520123 	ldrbeq	r0, [r2, #-291]	; 0x123
     498:	009fac03 	addseq	sl, pc, r3, lsl #24
     49c:	51012300 	mrspl	r2, SP_irq
     4a0:	9fd00305 	svcls	0x00d00305
     4a4:	01230000 	teqeq	r3, r0
     4a8:	40030550 	andmi	r0, r3, r0, asr r5
     4ac:	000000a0 	andeq	r0, r0, r0, lsr #1
     4b0:	00810824 	addeq	r0, r1, r4, lsr #16
     4b4:	000dec00 	andeq	lr, sp, r0, lsl #24
     4b8:	817c2400 	cmnhi	ip, r0, lsl #8
     4bc:	0dcf0000 	stcleq	0, cr0, [pc]	; 4c4 <_start-0x7b3c>
     4c0:	90220000 	eorls	r0, r2, r0
     4c4:	d6000081 	strle	r0, [r0], -r1, lsl #1
     4c8:	f100000d 	cps	#13
     4cc:	23000004 	movwcs	r0, #4
     4d0:	08025301 	stmdaeq	r2, {r0, r8, r9, ip, lr}
     4d4:	520123a3 	andpl	r2, r1, #-1946157054	; 0x8c000002
     4d8:	9fac0305 	svcls	0x00ac0305
     4dc:	01230000 	teqeq	r3, r0
     4e0:	d0030551 	andle	r0, r3, r1, asr r5
     4e4:	2300009f 	movwcs	r0, #159	; 0x9f
     4e8:	03055001 	movweq	r5, #20481	; 0x5001
     4ec:	0000a064 	andeq	sl, r0, r4, rrx
     4f0:	81942400 	orrshi	r2, r4, r0, lsl #8
     4f4:	0dec0000 	stcleq	0, cr0, [ip]
     4f8:	07000000 	streq	r0, [r0, -r0]
     4fc:	000000a7 	andeq	r0, r0, r7, lsr #1
     500:	00021725 	andeq	r1, r2, r5, lsr #14
     504:	25350200 	ldrcs	r0, [r5, #-512]!	; 0x200
     508:	c4000000 	strgt	r0, [r0], #-0
     50c:	28000081 	stmdacs	r0, {r0, r7}
     510:	01000000 	mrseq	r0, (UNDEF: 0)
     514:	0005369c 	muleq	r5, ip, r6
     518:	02352100 	eorseq	r2, r5, #0, 2
     51c:	81c40000 	bichi	r0, r4, r0
     520:	00140000 	andseq	r0, r4, r0
     524:	36020000 	strcc	r0, [r2], -r0
     528:	0002451d 	andeq	r4, r2, sp, lsl r5
     52c:	b4030600 	strlt	r0, [r3], #-1536	; 0x600
     530:	9f0000a4 	svcls	0x000000a4
     534:	8a260000 	bhi	98053c <__bss_end__+0x971c44>
     538:	02000004 	andeq	r0, r0, #4
     53c:	0081ec39 	addeq	lr, r1, r9, lsr ip
     540:	00005400 	andeq	r5, r0, r0, lsl #8
     544:	dc9c0100 	ldfles	f0, [ip], {0}
     548:	19000005 	stmdbne	r0, {r0, r2}
     54c:	000000be 	strheq	r0, [r0], -lr
     550:	00373902 	eorseq	r3, r7, r2, lsl #18
     554:	00a00000 	adceq	r0, r0, r0
     558:	65270000 	strvs	r0, [r7, #-0]!
     55c:	02000002 	andeq	r0, r0, #2
     560:	0000373b 	andeq	r3, r0, fp, lsr r7
     564:	0000cc00 	andeq	ip, r0, r0, lsl #24
     568:	81f82400 	mvnshi	r2, r0, lsl #8
     56c:	0df30000 	ldcleq	0, cr0, [r3]
     570:	00220000 	eoreq	r0, r2, r0
     574:	fa000082 	blx	784 <_start-0x787c>
     578:	8900000d 	stmdbhi	r0, {r0, r2, r3}
     57c:	23000005 	movwcs	r0, #5
     580:	0c055001 	stceq	0, cr5, [r5], {1}
     584:	20215044 	eorcs	r5, r1, r4, asr #32
     588:	82142200 	andshi	r2, r4, #0, 4
     58c:	0e1b0000 	cdpeq	0, 1, cr0, cr11, cr0, {0}
     590:	05a00000 	streq	r0, [r0, #0]!
     594:	01230000 	teqeq	r3, r0
     598:	440c0550 	strmi	r0, [ip], #-1360	; 0x550
     59c:	00202150 	eoreq	r2, r0, r0, asr r1
     5a0:	00822822 	addeq	r2, r2, r2, lsr #16
     5a4:	000e1b00 	andeq	r1, lr, r0, lsl #22
     5a8:	0005b900 	andeq	fp, r5, r0, lsl #18
     5ac:	51012300 	mrspl	r2, SP_irq
     5b0:	01233001 	teqeq	r3, r1
     5b4:	00740250 	rsbseq	r0, r4, r0, asr r2
     5b8:	82342200 	eorshi	r2, r4, #0, 4
     5bc:	0e1b0000 	cdpeq	0, 1, cr0, cr11, cr0, {0}
     5c0:	05d20000 	ldrbeq	r0, [r2]
     5c4:	01230000 	teqeq	r3, r0
     5c8:	23310151 	teqcs	r1, #1073741844	; 0x40000014
     5cc:	74025001 	strvc	r5, [r2], #-1
     5d0:	38240000 	stmdacc	r4!, {}	; <UNPREDICTABLE>
     5d4:	f3000082 	vhadd.u8	d0, d16, d2
     5d8:	0000000d 	andeq	r0, r0, sp
     5dc:	000c5f26 	andeq	r5, ip, r6, lsr #30
     5e0:	404b0200 	submi	r0, fp, r0, lsl #4
     5e4:	48000082 	stmdami	r0, {r1, r7}
     5e8:	01000001 	tsteq	r0, r1
     5ec:	0007549c 	muleq	r7, ip, r4
     5f0:	63701800 	cmnvs	r0, #0, 16
     5f4:	374b0200 	strbcc	r0, [fp, -r0, lsl #4]
     5f8:	f5000000 			; <UNDEFINED> instruction: 0xf5000000
     5fc:	27000000 	strcs	r0, [r0, -r0]
     600:	00000265 	andeq	r0, r0, r5, ror #4
     604:	00374e02 	eorseq	r4, r7, r2, lsl #28
     608:	01160000 	tsteq	r6, r0
     60c:	58280000 	stmdapl	r8!, {}	; <UNPREDICTABLE>
     610:	3c000082 	stccc	0, cr0, [r0], {130}	; 0x82
     614:	86000000 	strhi	r0, [r0], -r0
     618:	27000006 	strcs	r0, [r0, -r6]
     61c:	000002e7 	andeq	r0, r0, r7, ror #5
     620:	00375202 	eorseq	r5, r7, r2, lsl #4
     624:	014a0000 	mrseq	r0, (UNDEF: 74)
     628:	bd1c0000 	ldclt	0, cr0, [ip, #-0]
     62c:	60000002 	andvs	r0, r0, r2
     630:	34000082 	strcc	r0, [r0], #-130	; 0x82
     634:	02000000 	andeq	r0, r0, #0
     638:	00067c54 	andeq	r7, r6, r4, asr ip
     63c:	02d62900 	sbcseq	r2, r6, #0, 18
     640:	015d0000 	cmpeq	sp, r0
     644:	cd290000 	stcgt	0, cr0, [r9, #-0]
     648:	70000002 	andvc	r0, r0, r2
     64c:	2a000001 	bcs	658 <_start-0x79a8>
     650:	00008260 	andeq	r8, r0, r0, ror #4
     654:	00000034 	andeq	r0, r0, r4, lsr r0
     658:	0002df20 	andeq	sp, r2, r0, lsr #30
     65c:	00018800 	andeq	r8, r1, r0, lsl #16
     660:	02552100 	subseq	r2, r5, #0, 2
     664:	82640000 	rsbhi	r0, r4, #0
     668:	00100000 	andseq	r0, r0, r0
     66c:	58010000 	stmdapl	r1, {}	; <UNPREDICTABLE>
     670:	00026529 	andeq	r6, r2, r9, lsr #10
     674:	00019b00 	andeq	r9, r1, r0, lsl #22
     678:	00000000 	andeq	r0, r0, r0
     67c:	00825c24 	addeq	r5, r2, r4, lsr #24
     680:	000e3700 	andeq	r3, lr, r0, lsl #14
     684:	551c0000 	ldrpl	r0, [ip, #-0]
     688:	94000002 	strls	r0, [r0], #-2
     68c:	1c000082 	stcne	0, cr0, [r0], {130}	; 0x82
     690:	02000000 	andeq	r0, r0, #0
     694:	0006a351 	andeq	sl, r6, r1, asr r3
     698:	02652900 	rsbeq	r2, r5, #0, 18
     69c:	01b30000 			; <UNDEFINED> instruction: 0x01b30000
     6a0:	1e000000 	cdpne	0, 0, cr0, cr0, cr0, {0}
     6a4:	00000289 	andeq	r0, r0, r9, lsl #5
     6a8:	000082e0 	andeq	r8, r0, r0, ror #5
     6ac:	00000018 	andeq	r0, r0, r8, lsl r0
     6b0:	06f15902 	ldrbteq	r5, [r1], r2, lsl #18
     6b4:	a2290000 	eorge	r0, r9, #0
     6b8:	db000002 	blle	6c8 <_start-0x7938>
     6bc:	29000001 	stmdbcs	r0, {r0}
     6c0:	00000299 	muleq	r0, r9, r2
     6c4:	00000203 	andeq	r0, r0, r3, lsl #4
     6c8:	0000181f 	andeq	r1, r0, pc, lsl r8
     6cc:	02ab2000 	adceq	r2, fp, #0
     6d0:	022b0000 	eoreq	r0, fp, #0
     6d4:	352b0000 	strcc	r0, [fp, #-0]!
     6d8:	e0000002 	and	r0, r0, r2
     6dc:	30000082 	andcc	r0, r0, r2, lsl #1
     6e0:	01000000 	mrseq	r0, (UNDEF: 0)
     6e4:	02452943 	subeq	r2, r5, #1097728	; 0x10c000
     6e8:	02030000 	andeq	r0, r3, #0
     6ec:	00000000 	andeq	r0, r0, r0
     6f0:	02351c00 	eorseq	r1, r5, #0, 24
     6f4:	83440000 	movthi	r0, #16384	; 0x4000
     6f8:	00140000 	andseq	r0, r4, r0
     6fc:	5d020000 	stcpl	0, cr0, [r2, #-0]
     700:	00000711 	andeq	r0, r0, r1, lsl r7
     704:	0002451d 	andeq	r4, r2, sp, lsl r5
     708:	cc030600 	stcgt	6, cr0, [r3], {-0}
     70c:	9f0000c4 	svcls	0x000000c4
     710:	824c2200 	subhi	r2, ip, #0, 4
     714:	0dfa0000 	ldcleq	0, cr0, [sl]
     718:	07280000 	streq	r0, [r8, -r0]!
     71c:	01230000 	teqeq	r3, r0
     720:	480c0550 	stmdami	ip, {r4, r6, r8, sl}
     724:	00202150 	eoreq	r2, r0, r0, asr r1
     728:	0082bc24 	addeq	fp, r2, r4, lsr #24
     72c:	000e4200 	andeq	r4, lr, r0, lsl #4
     730:	82dc2400 	sbcshi	r2, ip, #0, 8
     734:	0e4d0000 	cdpeq	0, 4, cr0, cr13, cr0, {0}
     738:	f8240000 			; <UNDEFINED> instruction: 0xf8240000
     73c:	5e000082 	cdppl	0, 0, cr0, cr0, cr2, {4}
     740:	2c00000e 	stccs	0, cr0, [r0], {14}
     744:	00008368 	andeq	r8, r0, r8, ror #6
     748:	00000536 	andeq	r0, r0, r6, lsr r5
     74c:	02500123 	subseq	r0, r0, #-1073741816	; 0xc0000008
     750:	00000078 	andeq	r0, r0, r8, ror r0
     754:	0001ce26 	andeq	ip, r1, r6, lsr #28
     758:	88630200 	stmdahi	r3!, {r9}^
     75c:	e0000083 	and	r0, r0, r3, lsl #1
     760:	01000000 	mrseq	r0, (UNDEF: 0)
     764:	00086c9c 	muleq	r8, ip, ip
     768:	00631800 	rsbeq	r1, r3, r0, lsl #16
     76c:	00656302 	rsbeq	r6, r5, r2, lsl #6
     770:	024d0000 	subeq	r0, sp, #0
     774:	641b0000 	ldrvs	r0, [fp], #-0
     778:	65680200 	strbvs	r0, [r8, #-512]!	; 0x200
     77c:	6e000000 	cdpvs	0, 0, cr0, cr0, cr0, {0}
     780:	1c000002 	stcne	0, cr0, [r0], {2}
     784:	000002bd 			; <UNDEFINED> instruction: 0x000002bd
     788:	00008394 	muleq	r0, r4, r3
     78c:	00000048 	andeq	r0, r0, r8, asr #32
     790:	07db6502 	ldrbeq	r6, [fp, r2, lsl #10]
     794:	d6290000 	strtle	r0, [r9], -r0
     798:	8c000002 	stchi	0, cr0, [r0], {2}
     79c:	1d000002 	stcne	0, cr0, [r0, #-8]
     7a0:	000002cd 	andeq	r0, r0, sp, asr #5
     7a4:	c4cc0306 	strbgt	r0, [ip], #774	; 0x306
     7a8:	2a9f0000 	bcs	fe7c07b0 <__bss_end__+0xfe7b1eb8>
     7ac:	00008394 	muleq	r0, r4, r3
     7b0:	00000048 	andeq	r0, r0, r8, asr #32
     7b4:	0002df20 	andeq	sp, r2, r0, lsr #30
     7b8:	00029f00 	andeq	r9, r2, r0, lsl #30
     7bc:	02552100 	subseq	r2, r5, #0, 2
     7c0:	83a00000 	movhi	r0, #0
     7c4:	00140000 	andseq	r0, r4, r0
     7c8:	58010000 	stmdapl	r1, {}	; <UNPREDICTABLE>
     7cc:	0002651d 	andeq	r6, r2, sp, lsl r5
     7d0:	cc030600 	stcgt	6, cr0, [r3], {-0}
     7d4:	9f0000c4 	svcls	0x000000c4
     7d8:	1e000000 	cdpne	0, 0, cr0, cr0, cr0, {0}
     7dc:	00000289 	andeq	r0, r0, r9, lsl #5
     7e0:	000083e4 	andeq	r8, r0, r4, ror #7
     7e4:	00000048 	andeq	r0, r0, r8, asr #32
     7e8:	08296902 	stmdaeq	r9!, {r1, r8, fp, sp, lr}
     7ec:	a2290000 	eorge	r0, r9, #0
     7f0:	c1000002 	tstgt	r0, r2
     7f4:	29000002 	stmdbcs	r0, {r1}
     7f8:	00000299 	muleq	r0, r9, r2
     7fc:	000002e9 	andeq	r0, r0, r9, ror #5
     800:	0000481f 	andeq	r4, r0, pc, lsl r8
     804:	02ab2000 	adceq	r2, fp, #0
     808:	03110000 	tsteq	r1, #0
     80c:	352b0000 	strcc	r0, [fp, #-0]!
     810:	e4000002 	str	r0, [r0], #-2
     814:	60000083 	andvs	r0, r0, r3, lsl #1
     818:	01000000 	mrseq	r0, (UNDEF: 0)
     81c:	02452943 	subeq	r2, r5, #1097728	; 0x10c000
     820:	02e90000 	rsceq	r0, r9, #0
     824:	00000000 	andeq	r0, r0, r0
     828:	83942400 	orrshi	r2, r4, #0, 8
     82c:	0e690000 	cdpeq	0, 6, cr0, cr9, cr0, {0}
     830:	e4220000 	strt	r0, [r2], #-0
     834:	36000083 	strcc	r0, [r0], -r3, lsl #1
     838:	45000005 	strmi	r0, [r0, #-5]
     83c:	23000008 	movwcs	r0, #8
     840:	31015001 	tstcc	r1, r1
     844:	84042200 	strhi	r2, [r4], #-512	; 0x200
     848:	0e4d0000 	cdpeq	0, 4, cr0, cr13, cr0, {0}
     84c:	08590000 	ldmdaeq	r9, {}^	; <UNPREDICTABLE>
     850:	01230000 	teqeq	r3, r0
     854:	00760250 	rsbseq	r0, r6, r0, asr r2
     858:	84082400 	strhi	r2, [r8], #-1024	; 0x400
     85c:	0e5e0000 	cdpeq	0, 5, cr0, cr14, cr0, {0}
     860:	58240000 	stmdapl	r4!, {}	; <UNPREDICTABLE>
     864:	70000084 	andvc	r0, r0, r4, lsl #1
     868:	0000000e 	andeq	r0, r0, lr
     86c:	00011b25 	andeq	r1, r1, r5, lsr #22
     870:	25700200 	ldrbcs	r0, [r0, #-512]!	; 0x200
     874:	68000000 	stmdavs	r0, {}	; <UNPREDICTABLE>
     878:	78000084 	stmdavc	r0, {r2, r7}
     87c:	01000000 	mrseq	r0, (UNDEF: 0)
     880:	0009039c 	muleq	r9, ip, r3
     884:	035e2700 	cmpeq	lr, #0, 14
     888:	72020000 	andvc	r0, r2, #0
     88c:	00000065 	andeq	r0, r0, r5, rrx
     890:	00000333 	andeq	r0, r0, r3, lsr r3
     894:	0002351c 	andeq	r3, r2, ip, lsl r5
     898:	00846800 	addeq	r6, r4, r0, lsl #16
     89c:	00001400 	andeq	r1, r0, r0, lsl #8
     8a0:	b4730200 	ldrbtlt	r0, [r3], #-512	; 0x200
     8a4:	1d000008 	stcne	0, cr0, [r0, #-32]	; 0xffffffe0
     8a8:	00000245 	andeq	r0, r0, r5, asr #4
     8ac:	a4b40306 	ldrtge	r0, [r4], #774	; 0x306
     8b0:	009f0000 	addseq	r0, pc, r0
     8b4:	00028921 	andeq	r8, r2, r1, lsr #18
     8b8:	00848400 	addeq	r8, r4, r0, lsl #8
     8bc:	00004000 	andeq	r4, r0, r0
     8c0:	29740200 	ldmdbcs	r4!, {r9}^
     8c4:	000002a2 	andeq	r0, r0, r2, lsr #5
     8c8:	0000036b 	andeq	r0, r0, fp, ror #6
     8cc:	00029929 	andeq	r9, r2, r9, lsr #18
     8d0:	00039300 	andeq	r9, r3, r0, lsl #6
     8d4:	84842a00 	strhi	r2, [r4], #2560	; 0xa00
     8d8:	00400000 	subeq	r0, r0, r0
     8dc:	ab200000 	blge	8008e4 <__bss_end__+0x7f1fec>
     8e0:	bb000002 	bllt	8f0 <_start-0x7710>
     8e4:	21000003 	tstcs	r0, r3
     8e8:	00000235 	andeq	r0, r0, r5, lsr r2
     8ec:	00008484 	andeq	r8, r0, r4, lsl #9
     8f0:	00000010 	andeq	r0, r0, r0, lsl r0
     8f4:	45294301 	strmi	r4, [r9, #-769]!	; 0x301
     8f8:	93000002 	movwls	r0, #2
     8fc:	00000003 	andeq	r0, r0, r3
     900:	26000000 	strcs	r0, [r0], -r0
     904:	0000052d 	andeq	r0, r0, sp, lsr #10
     908:	84e07a02 	strbthi	r7, [r0], #2562	; 0xa02
     90c:	00240000 	eoreq	r0, r4, r0
     910:	9c010000 	stcls	0, cr0, [r1], {-0}
     914:	00000931 	andeq	r0, r0, r1, lsr r9
     918:	72747318 	rsbsvc	r7, r4, #24, 6	; 0x60000000
     91c:	9c7a0200 	lfmls	f0, 2, [sl], #-0
     920:	dd000000 	stcle	0, cr0, [r0, #-0]
     924:	24000003 	strcs	r0, [r0], #-3
     928:	000084f0 	strdeq	r8, [r0], -r0
     92c:	00000754 	andeq	r0, r0, r4, asr r7
     930:	003e2600 	eorseq	r2, lr, r0, lsl #12
     934:	7f020000 	svcvc	0x00020000
     938:	00008504 	andeq	r8, r0, r4, lsl #10
     93c:	000000bc 	strheq	r0, [r0], -ip
     940:	0a859c01 	beq	fe16794c <__bss_end__+0xfe159054>
     944:	0c240000 	stceq	0, cr0, [r4], #-0
     948:	f3000085 	vhadd.u8	d0, d16, d5
     94c:	2200000d 	andcs	r0, r0, #13
     950:	00008518 	andeq	r8, r0, r8, lsl r5
     954:	00000e77 	andeq	r0, r0, r7, ror lr
     958:	00000967 	andeq	r0, r0, r7, ror #18
     95c:	01510123 	cmpeq	r1, r3, lsr #2
     960:	50012332 	andpl	r2, r1, r2, lsr r3
     964:	22003e01 	andcs	r3, r0, #1, 28
     968:	00008524 	andeq	r8, r0, r4, lsr #10
     96c:	00000e77 	andeq	r0, r0, r7, ror lr
     970:	0000097f 	andeq	r0, r0, pc, ror r9
     974:	01510123 	cmpeq	r1, r3, lsr #2
     978:	50012332 	andpl	r2, r1, r2, lsr r3
     97c:	24003f01 	strcs	r3, [r0], #-3841	; 0xf01
     980:	00008528 	andeq	r8, r0, r8, lsr #10
     984:	00000df3 	strdeq	r0, [r0], -r3
     988:	00853422 	addeq	r3, r5, r2, lsr #8
     98c:	000dfa00 	andeq	pc, sp, r0, lsl #20
     990:	00099c00 	andeq	r9, r9, r0, lsl #24
     994:	50012300 	andpl	r2, r1, r0, lsl #6
     998:	00007402 	andeq	r7, r0, r2, lsl #8
     99c:	00854022 	addeq	r4, r5, r2, lsr #32
     9a0:	000e1b00 	andeq	r1, lr, r0, lsl #22
     9a4:	0009b000 	andeq	fp, r9, r0
     9a8:	50012300 	andpl	r2, r1, r0, lsl #6
     9ac:	00007402 	andeq	r7, r0, r2, lsl #8
     9b0:	00854424 	addeq	r4, r5, r4, lsr #8
     9b4:	000df300 	andeq	pc, sp, r0, lsl #6
     9b8:	85542200 	ldrbhi	r2, [r4, #-512]	; 0x200
     9bc:	0e1b0000 	cdpeq	0, 1, cr0, cr11, cr0, {0}
     9c0:	09d20000 	ldmibeq	r2, {}^	; <UNPREDICTABLE>
     9c4:	01230000 	teqeq	r3, r0
     9c8:	23300151 	teqcs	r0, #1073741844	; 0x40000014
     9cc:	74025001 	strvc	r5, [r2], #-1
     9d0:	60220000 	eorvs	r0, r2, r0
     9d4:	1b000085 	blne	bf0 <_start-0x7410>
     9d8:	ee00000e 	cdp	0, 0, cr0, cr0, cr14, {0}
     9dc:	23000009 	movwcs	r0, #9
     9e0:	33015101 	movwcc	r5, #4353	; 0x1101
     9e4:	05500123 	ldrbeq	r0, [r0, #-291]	; 0x123
     9e8:	2150440c 	cmpcs	r0, ip, lsl #8
     9ec:	6c220020 	stcvs	0, cr0, [r2], #-128	; 0xffffff80
     9f0:	1b000085 	blne	c0c <_start-0x73f4>
     9f4:	0a00000e 	beq	a34 <_start-0x75cc>
     9f8:	2300000a 	movwcs	r0, #10
     9fc:	36015101 	strcc	r5, [r1], -r1, lsl #2
     a00:	05500123 	ldrbeq	r0, [r0, #-291]	; 0x123
     a04:	2150480c 	cmpcs	r0, ip, lsl #16
     a08:	78220020 	stmdavc	r2!, {r5}
     a0c:	1b000085 	blne	c28 <_start-0x73d8>
     a10:	2600000e 	strcs	r0, [r0], -lr
     a14:	2300000a 	movwcs	r0, #10
     a18:	33015101 	movwcc	r5, #4353	; 0x1101
     a1c:	05500123 	ldrbeq	r0, [r0, #-291]	; 0x123
     a20:	21504c0c 	cmpcs	r0, ip, lsl #24
     a24:	84220020 	strthi	r0, [r2], #-32
     a28:	1b000085 	blne	c44 <_start-0x73bc>
     a2c:	4400000e 	strmi	r0, [r0], #-14
     a30:	2300000a 	movwcs	r0, #10
     a34:	0a035101 	beq	d4e40 <__bss_end__+0xc6548>
     a38:	0123010e 	teqeq	r3, lr, lsl #2
     a3c:	680c0550 	stmdavs	ip, {r4, r6, r8, sl}
     a40:	00202150 	eoreq	r2, r0, r0, asr r1
     a44:	00859022 	addeq	r9, r5, r2, lsr #32
     a48:	000e1b00 	andeq	r1, lr, r0, lsl #22
     a4c:	000a5d00 	andeq	r5, sl, r0, lsl #26
     a50:	51012300 	mrspl	r2, SP_irq
     a54:	01233301 	teqeq	r3, r1, lsl #6
     a58:	00740250 	rsbseq	r0, r4, r0, asr r2
     a5c:	859c2200 	ldrhi	r2, [ip, #512]	; 0x200
     a60:	0e1b0000 	cdpeq	0, 1, cr0, cr11, cr0, {0}
     a64:	0a7b0000 	beq	1ec0a6c <__bss_end__+0x1eb2174>
     a68:	01230000 	teqeq	r3, r0
     a6c:	49400351 	stmdbmi	r0, {r0, r4, r6, r8, r9}^
     a70:	50012324 	andpl	r2, r1, r4, lsr #6
     a74:	b2100c05 	andslt	r0, r0, #1280	; 0x500
     a78:	24002000 	strcs	r2, [r0], #-0
     a7c:	000085a0 	andeq	r8, r0, r0, lsr #11
     a80:	00000df3 	strdeq	r0, [r0], -r3
     a84:	00252d00 	eoreq	r2, r5, r0, lsl #26
     a88:	9a020000 	bls	80a90 <__bss_end__+0x72198>
     a8c:	000085c0 	andeq	r8, r0, r0, asr #11
     a90:	000000e0 	andeq	r0, r0, r0, ror #1
     a94:	0c359c01 	ldceq	12, cr9, [r5], #-4
     a98:	742e0000 	strtvc	r0, [lr], #-0
     a9c:	cd020078 	stcgt	0, cr0, [r2, #-480]	; 0xfffffe20
     aa0:	00000037 	andeq	r0, r0, r7, lsr r0
     aa4:	78722e14 	ldmdavc	r2!, {r2, r4, r9, sl, fp, sp}^
     aa8:	37cd0200 	strbcc	r0, [sp, r0, lsl #4]
     aac:	15000000 	strne	r0, [r0, #-0]
     ab0:	0200732f 	andeq	r7, r0, #-1140850688	; 0xbc000000
     ab4:	00022ace 	andeq	r2, r2, lr, asr #21
     ab8:	64910200 	ldrvs	r0, [r1], #512	; 0x200
     abc:	00862028 	addeq	r2, r6, r8, lsr #32
     ac0:	00004c00 	andeq	r4, r0, r0, lsl #24
     ac4:	000b4000 	andeq	r4, fp, r0
     ac8:	00691b00 	rsbeq	r1, r9, r0, lsl #22
     acc:	0025d202 	eoreq	sp, r5, r2, lsl #4
     ad0:	03fb0000 	mvnseq	r0, #0
     ad4:	28280000 	stmdacs	r8!, {}	; <UNPREDICTABLE>
     ad8:	30000086 	andcc	r0, r0, r6, lsl #1
     adc:	36000000 	strcc	r0, [r0], -r0
     ae0:	1b00000b 	blne	b14 <_start-0x74ec>
     ae4:	d4020063 	strle	r0, [r2], #-99	; 0x63
     ae8:	00000025 	andeq	r0, r0, r5, lsr #32
     aec:	0000041a 	andeq	r0, r0, sl, lsl r4
     af0:	00862c24 	addeq	r2, r6, r4, lsr #24
     af4:	00086c00 	andeq	r6, r8, r0, lsl #24
     af8:	86342400 	ldrthi	r2, [r4], -r0, lsl #8
     afc:	0e690000 	cdpeq	0, 6, cr0, cr9, cr0, {0}
     b00:	44220000 	strtmi	r0, [r2], #-0
     b04:	8d000086 	stchi	0, cr0, [r0, #-536]	; 0xfffffde8
     b08:	1c00000e 	stcne	0, cr0, [r0], {14}
     b0c:	2300000b 	movwcs	r0, #11
     b10:	75025101 	strvc	r5, [r2, #-257]	; 0x101
     b14:	50012300 	andpl	r2, r1, r0, lsl #6
     b18:	005c9102 	subseq	r9, ip, r2, lsl #2
     b1c:	00864824 	addeq	r4, r6, r4, lsr #16
     b20:	000e7000 	andeq	r7, lr, r0
     b24:	86502c00 	ldrbhi	r2, [r0], -r0, lsl #24
     b28:	07540000 	ldrbeq	r0, [r4, -r0]
     b2c:	01230000 	teqeq	r3, r0
     b30:	00750250 	rsbseq	r0, r5, r0, asr r2
     b34:	5c240000 	stcpl	0, cr0, [r4], #-0
     b38:	00000086 	andeq	r0, r0, r6, lsl #1
     b3c:	00000005 	andeq	r0, r0, r5
     b40:	0085cc24 	addeq	ip, r5, r4, lsr #24
     b44:	000ea900 	andeq	sl, lr, r0, lsl #18
     b48:	85d02400 	ldrbhi	r2, [r0, #1024]	; 0x400
     b4c:	09310000 	ldmdbeq	r1!, {}	; <UNPREDICTABLE>
     b50:	dc220000 	stcle	0, cr0, [r2], #-0
     b54:	eb000085 	bl	d70 <_start-0x7290>
     b58:	6e000002 	cdpvs	0, 0, cr0, cr0, cr2, {0}
     b5c:	2300000b 	movwcs	r0, #11
     b60:	31015101 	tstcc	r1, r1, lsl #2
     b64:	05500123 	ldrbeq	r0, [r0, #-291]	; 0x123
     b68:	00a4b403 	adceq	fp, r4, r3, lsl #8
     b6c:	e8220000 	stmda	r2!, {}	; <UNPREDICTABLE>
     b70:	eb000085 	bl	d8c <_start-0x7274>
     b74:	8a000002 	bhi	b84 <_start-0x747c>
     b78:	2300000b 	movwcs	r0, #11
     b7c:	31015101 	tstcc	r1, r1, lsl #2
     b80:	05500123 	ldrbeq	r0, [r0, #-291]	; 0x123
     b84:	00c4cc03 	sbceq	ip, r4, r3, lsl #24
     b88:	f4220000 	vld4.8	{d0-d3}, [r2], r0
     b8c:	1b000085 	blne	da8 <_start-0x7258>
     b90:	a600000e 	strge	r0, [r0], -lr
     b94:	2300000b 	movwcs	r0, #11
     b98:	3d015101 	stfccs	f5, [r1, #-4]
     b9c:	05500123 	ldrbeq	r0, [r0, #-291]	; 0x123
     ba0:	2150400c 	cmpcs	r0, ip
     ba4:	f8240020 			; <UNDEFINED> instruction: 0xf8240020
     ba8:	f3000085 	vhadd.u8	d0, d16, d5
     bac:	2400000d 	strcs	r0, [r0], #-13
     bb0:	000085fc 	strdeq	r8, [r0], -ip
     bb4:	00000e70 	andeq	r0, r0, r0, ror lr
     bb8:	00861822 	addeq	r1, r6, r2, lsr #16
     bbc:	000eb000 	andeq	fp, lr, r0
     bc0:	000be600 	andeq	lr, fp, r0, lsl #12
     bc4:	53012300 	movwpl	r2, #4864	; 0x1300
     bc8:	39e10804 	stmibcc	r1!, {r2, fp}^
     bcc:	52012324 	andpl	r2, r1, #36, 6	; 0x90000000
     bd0:	01234501 	teqeq	r3, r1, lsl #10
     bd4:	23440151 	movtcs	r0, #16721	; 0x4151
     bd8:	91025001 	tstls	r2, r1
     bdc:	7d02235c 	stcvc	3, cr2, [r2, #-368]	; 0xfffffe90
     be0:	bc0a0300 	stclt	3, cr0, [sl], {-0}
     be4:	20220017 	eorcs	r0, r2, r7, lsl r0
     be8:	d6000086 	strle	r0, [r0], -r6, lsl #1
     bec:	fd00000d 	stc2	0, cr0, [r0, #-52]	; 0xffffffcc
     bf0:	2300000b 	movwcs	r0, #11
     bf4:	03055001 	movweq	r5, #20481	; 0x5001
     bf8:	0000a09c 	muleq	r0, ip, r0
     bfc:	86742200 	ldrbthi	r2, [r4], -r0, lsl #4
     c00:	0dd60000 	ldcleq	0, cr0, [r6]
     c04:	0c140000 	ldceq	0, cr0, [r4], {-0}
     c08:	01230000 	teqeq	r3, r0
     c0c:	c0030550 	andgt	r0, r3, r0, asr r5
     c10:	000000a0 	andeq	r0, r0, r0, lsr #1
     c14:	00867c22 	addeq	r7, r6, r2, lsr #24
     c18:	000dd600 	andeq	sp, sp, r0, lsl #12
     c1c:	000c2b00 	andeq	r2, ip, r0, lsl #22
     c20:	50012300 	andpl	r2, r1, r0, lsl #6
     c24:	a0d80305 	sbcsge	r0, r8, r5, lsl #6
     c28:	24000000 	strcs	r0, [r0], #-0
     c2c:	00008680 	andeq	r8, r0, r0, lsl #13
     c30:	00000dec 	andeq	r0, r0, ip, ror #27
     c34:	02c73000 	sbceq	r3, r7, #0
     c38:	0d020000 	stceq	0, cr0, [r2, #-0]
     c3c:	00000c44 	andeq	r0, r0, r4, asr #24
     c40:	20215000 	eorcs	r5, r1, r0
     c44:	01e30406 	mvneq	r0, r6, lsl #8
     c48:	0f300000 	svceq	0x00300000
     c4c:	02000001 	andeq	r0, r0, #1
     c50:	000c590e 	andeq	r5, ip, lr, lsl #18
     c54:	21500400 	cmpcs	r0, r0, lsl #8
     c58:	0c440720 	mcrreq	7, 2, r0, r4, cr0
     c5c:	61300000 	teqvs	r0, r0
     c60:	02000001 	andeq	r0, r0, #1
     c64:	000c6d11 	andeq	r6, ip, r1, lsl sp
     c68:	21504000 	cmpcs	r0, r0
     c6c:	0c440720 	mcrreq	7, 2, r0, r4, cr0
     c70:	29300000 	ldmdbcs	r0!, {}	; <UNPREDICTABLE>
     c74:	02000002 	andeq	r0, r0, #2
     c78:	000c8112 	andeq	r8, ip, r2, lsl r1
     c7c:	21504400 	cmpcs	r0, r0, lsl #8
     c80:	0c440720 	mcrreq	7, 2, r0, r4, cr0
     c84:	9f300000 	svcls	0x00300000
     c88:	02000002 	andeq	r0, r0, #2
     c8c:	000c9513 	andeq	r9, ip, r3, lsl r5
     c90:	21504800 	cmpcs	r0, r0, lsl #16
     c94:	0c440720 	mcrreq	7, 2, r0, r4, cr0
     c98:	a3300000 	teqge	r0, #0
     c9c:	02000001 	andeq	r0, r0, #1
     ca0:	000ca914 	andeq	sl, ip, r4, lsl r9
     ca4:	21504c00 	cmpcs	r0, r0, lsl #24
     ca8:	0c440720 	mcrreq	7, 2, r0, r4, cr0
     cac:	f6300000 			; <UNDEFINED> instruction: 0xf6300000
     cb0:	02000004 	andeq	r0, r0, #4
     cb4:	000c4415 	andeq	r4, ip, r5, lsl r4
     cb8:	21505000 	cmpcs	r0, r0
     cbc:	01003020 	tsteq	r0, r0, lsr #32
     cc0:	16020000 	strne	r0, [r2], -r0
     cc4:	00000c44 	andeq	r0, r0, r4, asr #24
     cc8:	20215054 	eorcs	r5, r1, r4, asr r0
     ccc:	0001dc30 	andeq	sp, r1, r0, lsr ip
     cd0:	44170200 	ldrmi	r0, [r7], #-512	; 0x200
     cd4:	5800000c 	stmdapl	r0, {r2, r3}
     cd8:	30202150 	eorcc	r2, r0, r0, asr r1
     cdc:	00000016 	andeq	r0, r0, r6, lsl r0
     ce0:	0c441802 	mcrreq	8, 0, r1, r4, cr2
     ce4:	505c0000 	subspl	r0, ip, r0
     ce8:	d3302021 	teqle	r0, #33	; 0x21
     cec:	02000003 	andeq	r0, r0, #3
     cf0:	000cf919 	andeq	pc, ip, r9, lsl r9	; <UNPREDICTABLE>
     cf4:	21506000 	cmpcs	r0, r0
     cf8:	0c440720 	mcrreq	7, 2, r0, r4, cr0
     cfc:	f9300000 			; <UNDEFINED> instruction: 0xf9300000
     d00:	02000002 	andeq	r0, r0, #2
     d04:	000c441a 	andeq	r4, ip, sl, lsl r4
     d08:	21506400 	cmpcs	r0, r0, lsl #8
     d0c:	01863020 	orreq	r3, r6, r0, lsr #32
     d10:	1b020000 	blne	80d18 <__bss_end__+0x72420>
     d14:	00000d1c 	andeq	r0, r0, ip, lsl sp
     d18:	20215068 	eorcs	r5, r1, r8, rrx
     d1c:	000c4407 	andeq	r4, ip, r7, lsl #8
     d20:	01fd3000 	mvnseq	r3, r0
     d24:	1c020000 	stcne	0, cr0, [r2], {-0}
     d28:	00000d30 	andeq	r0, r0, r0, lsr sp
     d2c:	2000b210 	andcs	fp, r0, r0, lsl r2
     d30:	000c4407 	andeq	r4, ip, r7, lsl #8
     d34:	020a3000 	andeq	r3, sl, #0
     d38:	1d020000 	stcne	0, cr0, [r2, #-0]
     d3c:	00000c44 	andeq	r0, r0, r4, asr #24
     d40:	2000b214 	andcs	fp, r0, r4, lsl r2
     d44:	00013f31 	andeq	r3, r1, r1, lsr pc
     d48:	e31e0200 	tst	lr, #0, 4
     d4c:	05000001 	streq	r0, [r0, #-1]
     d50:	00e4e003 	rsceq	lr, r4, r3
     d54:	017e1600 	cmneq	lr, r0, lsl #12
     d58:	21020000 	mrscs	r0, (UNDEF: 2)
     d5c:	0000022a 	andeq	r0, r0, sl, lsr #4
     d60:	0001f831 	andeq	pc, r1, r1, lsr r8	; <UNPREDICTABLE>
     d64:	e8220200 	stmda	r2!, {r9}
     d68:	05000001 	streq	r0, [r0, #-1]
     d6c:	00c4cc03 	sbceq	ip, r4, r3, lsl #24
     d70:	01483100 	mrseq	r3, (UNDEF: 88)
     d74:	23020000 	movwcs	r0, #8192	; 0x2000
     d78:	000001e8 	andeq	r0, r0, r8, ror #3
     d7c:	a4b40305 	ldrtge	r0, [r4], #773	; 0x305
     d80:	e7320000 	ldr	r0, [r2, -r0]!
     d84:	02000002 	andeq	r0, r0, #2
     d88:	00006547 	andeq	r6, r0, r7, asr #10
     d8c:	29310000 	ldmdbcs	r1!, {}	; <UNPREDICTABLE>
     d90:	02000001 	andeq	r0, r0, #1
     d94:	00006548 	andeq	r6, r0, r8, asr #10
     d98:	c8030500 	stmdagt	r3, {r8, sl}
     d9c:	330000c4 	movwcc	r0, #196	; 0xc4
     da0:	0000044f 	andeq	r0, r0, pc, asr #8
     da4:	00fb8006 	rscseq	r8, fp, r6
     da8:	03050000 	movweq	r0, #20480	; 0x5000
     dac:	0000e8f0 	strdeq	lr, [r0], -r0
     db0:	00044334 	andeq	r4, r4, r4, lsr r3
     db4:	931b0800 	tstls	fp, #0, 16
     db8:	cf000000 	svcgt	0x00000000
     dbc:	3500000d 	strcc	r0, [r0, #-13]
     dc0:	00000093 	muleq	r0, r3, r0
     dc4:	00002535 	andeq	r2, r0, r5, lsr r5
     dc8:	002c3500 	eoreq	r3, ip, r0, lsl #10
     dcc:	36000000 	strcc	r0, [r0], -r0
     dd0:	0000016f 	andeq	r0, r0, pc, ror #2
     dd4:	cc341e09 	ldcgt	14, cr1, [r4], #-36	; 0xffffffdc
     dd8:	09000005 	stmdbeq	r0, {r0, r2}
     ddc:	00002529 	andeq	r2, r0, r9, lsr #10
     de0:	000dec00 	andeq	lr, sp, r0, lsl #24
     de4:	009c3500 	addseq	r3, ip, r0, lsl #10
     de8:	00370000 	eorseq	r0, r7, r0
     dec:	00023836 	andeq	r3, r2, r6, lsr r8
     df0:	36660900 	strbtcc	r0, [r6], -r0, lsl #18
     df4:	000000f4 	strdeq	r0, [r0], -r4
     df8:	78348709 	ldmdavc	r4!, {r0, r3, r8, r9, sl, pc}
     dfc:	09000004 	stmdbeq	r0, {r2}
     e00:	000037a6 	andeq	r3, r0, r6, lsr #15
     e04:	000e0f00 	andeq	r0, lr, r0, lsl #30
     e08:	0e0f3500 	cfsh32eq	mvfx3, mvfx15, #0
     e0c:	06000000 	streq	r0, [r0], -r0
     e10:	000e1504 	andeq	r1, lr, r4, lsl #10
     e14:	0e1a0700 	cdpeq	7, 1, cr0, cr10, cr0, {0}
     e18:	39380000 	ldmdbcc	r8!, {}	; <UNPREDICTABLE>
     e1c:	000003ec 	andeq	r0, r0, ip, ror #7
     e20:	0e319a09 	vaddeq.f32	s18, s2, s18
     e24:	31350000 	teqcc	r5, r0
     e28:	3500000e 	strcc	r0, [r0, #-14]
     e2c:	00000037 	andeq	r0, r0, r7, lsr r0
     e30:	1a040600 	bne	102638 <__bss_end__+0xf3d40>
     e34:	3a00000e 	bcc	e74 <_start-0x718c>
     e38:	00000a65 	andeq	r0, r0, r5, ror #20
     e3c:	00253b09 	eoreq	r3, r5, r9, lsl #22
     e40:	b03a0000 	eorslt	r0, sl, r0
     e44:	09000000 	stmdbeq	r0, {}	; <UNPREDICTABLE>
     e48:	00002546 	andeq	r2, r0, r6, asr #10
     e4c:	01ee3900 	mvneq	r3, r0, lsl #18
     e50:	3c090000 	stccc	0, cr0, [r9], {-0}
     e54:	00000e5e 	andeq	r0, r0, lr, asr lr
     e58:	00003735 	andeq	r3, r0, r5, lsr r7
     e5c:	313a0000 	teqcc	sl, r0
     e60:	09000001 	stmdbeq	r0, {r0}
     e64:	00002544 	andeq	r2, r0, r4, asr #10
     e68:	05133600 	ldreq	r3, [r3, #-1536]	; 0x600
     e6c:	320a0000 	andcc	r0, sl, #0
     e70:	0002ae36 	andeq	sl, r2, r6, lsr lr
     e74:	39310a00 	ldmdbcc	r1!, {r9, fp}
     e78:	00000253 	andeq	r0, r0, r3, asr r2
     e7c:	0e8d1905 	cdpeq	9, 8, cr1, cr13, cr5, {0}
     e80:	37350000 	ldrcc	r0, [r5, -r0]!
     e84:	35000000 	strcc	r0, [r0, #-0]
     e88:	000000f0 	strdeq	r0, [r0], -r0	; <UNPREDICTABLE>
     e8c:	01eb3900 	mvneq	r3, r0, lsl #18
     e90:	44070000 	strmi	r0, [r7], #-0
     e94:	00000ea3 	andeq	r0, r0, r3, lsr #29
     e98:	000ea335 	andeq	sl, lr, r5, lsr r3
     e9c:	00653500 	rsbeq	r3, r5, r0, lsl #10
     ea0:	06000000 	streq	r0, [r0], -r0
     ea4:	00022a04 	andeq	r2, r2, r4, lsl #20
     ea8:	02963600 	addseq	r3, r6, #0, 12
     eac:	330a0000 	movwcc	r0, #40960	; 0xa000
     eb0:	00009c3b 	andeq	r9, r0, fp, lsr ip
     eb4:	2a1d0700 	bcs	742abc <__bss_end__+0x7341c4>
     eb8:	35000002 	strcc	r0, [r0, #-2]
     ebc:	0000005a 	andeq	r0, r0, sl, asr r0
     ec0:	00005a35 	andeq	r5, r0, r5, lsr sl
     ec4:	00733500 	rsbseq	r3, r3, r0, lsl #10
     ec8:	73350000 	teqvc	r5, #0
     ecc:	00000000 	andeq	r0, r0, r0
     ed0:	0000db00 	andeq	sp, r0, r0, lsl #22
     ed4:	2f000400 	svccs	0x00000400
     ed8:	04000003 	streq	r0, [r0], #-3
     edc:	00037601 	andeq	r7, r3, r1, lsl #12
     ee0:	055a0100 	ldrbeq	r0, [sl, #-256]	; 0x100
     ee4:	05680000 	strbeq	r0, [r8, #-0]!
     ee8:	86a00000 	strthi	r0, [r0], r0
     eec:	00200000 	eoreq	r0, r0, r0
     ef0:	03f50000 	mvnseq	r0, #0
     ef4:	01020000 	mrseq	r0, (UNDEF: 2)
     ef8:	0002db06 	andeq	sp, r2, r6, lsl #22
     efc:	08010200 	stmdaeq	r1, {r9}
     f00:	000002d9 	ldrdeq	r0, [r0], -r9
     f04:	ef050202 	svc	0x00050202
     f08:	02000002 	andeq	r0, r0, #2
     f0c:	01bb0702 			; <UNDEFINED> instruction: 0x01bb0702
     f10:	04030000 	streq	r0, [r3], #-0
     f14:	746e6905 	strbtvc	r6, [lr], #-2309	; 0x905
     f18:	07040200 	streq	r0, [r4, -r0, lsl #4]
     f1c:	00000062 	andeq	r0, r0, r2, rrx
     f20:	8e050802 	cdphi	8, 0, cr0, cr5, cr2, {0}
     f24:	02000000 	andeq	r0, r0, #0
     f28:	00580708 	subseq	r0, r8, r8, lsl #14
     f2c:	04020000 	streq	r0, [r2], #-0
     f30:	00009305 	andeq	r9, r0, r5, lsl #6
     f34:	07040200 	streq	r0, [r4, -r0, lsl #4]
     f38:	0000024a 	andeq	r0, r0, sl, asr #4
     f3c:	04020404 	streq	r0, [r2], #-1028	; 0x404
     f40:	00005d07 	andeq	r5, r0, r7, lsl #26
     f44:	7a040500 	bvc	10234c <__bss_end__+0xf3a54>
     f48:	02000000 	andeq	r0, r0, #0
     f4c:	02e20801 	rsceq	r0, r2, #65536	; 0x10000
     f50:	00060000 	andeq	r0, r6, r0
     f54:	02000000 	andeq	r0, r0, #0
     f58:	000048d4 	ldrdeq	r4, [r0], -r4	; <UNPREDICTABLE>
     f5c:	04430700 	strbeq	r0, [r3], #-1792	; 0x700
     f60:	1b030000 	blne	c0f68 <__bss_end__+0xb2670>
     f64:	0000006b 	andeq	r0, r0, fp, rrx
     f68:	000086a0 	andeq	r8, r0, r0, lsr #13
     f6c:	00000020 	andeq	r0, r0, r0, lsr #32
     f70:	5f089c01 	svcpl	0x00089c01
     f74:	03010070 	movweq	r0, #4208	; 0x1070
     f78:	0000006b 	andeq	r0, r0, fp, rrx
     f7c:	63085001 	movwvs	r5, #32769	; 0x8001
     f80:	41030100 	mrsmi	r0, (UNDEF: 19)
     f84:	01000000 	mrseq	r0, (UNDEF: 0)
     f88:	006e0951 	rsbeq	r0, lr, r1, asr r9
     f8c:	00810301 	addeq	r0, r1, r1, lsl #6
     f90:	04380000 	ldrteq	r0, [r8], #-0
     f94:	700a0000 	andvc	r0, sl, r0
     f98:	74040100 	strvc	r0, [r4], #-256	; 0x100
     f9c:	59000000 	stmdbpl	r0, {}	; <UNPREDICTABLE>
     fa0:	0b000004 	bleq	fb8 <_start-0x7048>
     fa4:	04010065 	streq	r0, [r1], #-101	; 0x65
     fa8:	00000074 	andeq	r0, r0, r4, ror r0
     fac:	00005201 	andeq	r5, r0, r1, lsl #4
     fb0:	00000191 	muleq	r0, r1, r1
     fb4:	03cc0004 	biceq	r0, ip, #4
     fb8:	01040000 	mrseq	r0, (UNDEF: 4)
     fbc:	00000376 	andeq	r0, r0, r6, ror r3
     fc0:	0005bb01 	andeq	fp, r5, r1, lsl #22
     fc4:	00056800 	andeq	r6, r5, r0, lsl #16
     fc8:	0086c000 	addeq	ip, r6, r0
     fcc:	00005800 	andeq	r5, r0, r0, lsl #16
     fd0:	0004e500 	andeq	lr, r4, r0, lsl #10
     fd4:	05ac0200 	streq	r0, [ip, #512]!	; 0x200
     fd8:	28020000 	stmdacs	r2, {}	; <UNPREDICTABLE>
     fdc:	00000030 	andeq	r0, r0, r0, lsr r0
     fe0:	0005d303 	andeq	sp, r5, r3, lsl #6
     fe4:	00030400 	andeq	r0, r3, r0, lsl #8
     fe8:	00000047 	andeq	r0, r0, r7, asr #32
     fec:	0005e204 	andeq	lr, r5, r4, lsl #4
     ff0:	00004700 	andeq	r4, r0, r0, lsl #14
     ff4:	05000000 	streq	r0, [r0, #-0]
     ff8:	05d50204 	ldrbeq	r0, [r5, #516]	; 0x204
     ffc:	62020000 	andvs	r0, r2, #0
    1000:	00000025 	andeq	r0, r0, r5, lsr #32
    1004:	69050406 	stmdbvs	r5, {r1, r2, sl}
    1008:	0700746e 	streq	r7, [r0, -lr, ror #8]
    100c:	00620704 	rsbeq	r0, r2, r4, lsl #14
    1010:	01070000 	mrseq	r0, (UNDEF: 7)
    1014:	0002db06 	andeq	sp, r2, r6, lsl #22
    1018:	05020700 	streq	r0, [r2, #-1792]	; 0x700
    101c:	000002ef 	andeq	r0, r0, pc, ror #5
    1020:	93050407 	movwls	r0, #21511	; 0x5407
    1024:	07000000 	streq	r0, [r0, -r0]
    1028:	008e0508 	addeq	r0, lr, r8, lsl #10
    102c:	01070000 	mrseq	r0, (UNDEF: 7)
    1030:	0002d908 	andeq	sp, r2, r8, lsl #18
    1034:	07020700 	streq	r0, [r2, -r0, lsl #14]
    1038:	000001bb 			; <UNDEFINED> instruction: 0x000001bb
    103c:	5d070407 	cfstrspl	mvf0, [r7, #-28]	; 0xffffffe4
    1040:	07000000 	streq	r0, [r0, -r0]
    1044:	00580708 	subseq	r0, r8, r8, lsl #14
    1048:	04070000 	streq	r0, [r7], #-0
    104c:	00024a07 	andeq	r4, r2, r7, lsl #20
    1050:	a7040800 	strge	r0, [r4, -r0, lsl #16]
    1054:	07000000 	streq	r0, [r0, -r0]
    1058:	02e20801 	rsceq	r0, r2, #65536	; 0x10000
    105c:	04080000 	streq	r0, [r8], #-0
    1060:	000000b4 	strheq	r0, [r0], -r4
    1064:	0000a709 	andeq	sl, r0, r9, lsl #14
    1068:	05cc0a00 	strbeq	r0, [ip, #2560]	; 0xa00
    106c:	06010000 	streq	r0, [r1], -r0
    1070:	00000054 	andeq	r0, r0, r4, asr r0
    1074:	000086c0 	andeq	r8, r0, r0, asr #13
    1078:	00000058 	andeq	r0, r0, r8, asr r0
    107c:	01439c01 	cmpeq	r3, r1, lsl #24
    1080:	660b0000 	strvs	r0, [fp], -r0
    1084:	0100746d 	tsteq	r0, sp, ror #8
    1088:	0000ae06 	andeq	sl, r0, r6, lsl #28
    108c:	70910200 	addsvc	r0, r1, r0, lsl #4
    1090:	75620d0c 	strbvc	r0, [r2, #-3340]!	; 0xd0c
    1094:	08010066 	stmdaeq	r1, {r1, r2, r5, r6}
    1098:	00000143 	andeq	r0, r0, r3, asr #2
    109c:	e4e40305 	strbt	r0, [r4], #773	; 0x305
    10a0:	dd0e0000 	stcle	0, cr0, [lr, #-0]
    10a4:	01000005 	tsteq	r0, r5
    10a8:	00004909 	andeq	r4, r0, r9, lsl #18
    10ac:	5c910200 	lfmpl	f0, 4, [r1], {0}
    10b0:	007a730f 	rsbseq	r7, sl, pc, lsl #6
    10b4:	00540c01 	subseq	r0, r4, r1, lsl #24
    10b8:	04840000 	streq	r0, [r4], #0
    10bc:	e8100000 	ldmda	r0, {}	; <UNPREDICTABLE>
    10c0:	74000086 	strvc	r0, [r0], #-134	; 0x86
    10c4:	36000001 	strcc	r0, [r0], -r1
    10c8:	11000001 	tstne	r0, r1
    10cc:	91025301 	tstls	r2, r1, lsl #6
    10d0:	5201114c 	andpl	r1, r1, #76, 2
    10d4:	06489103 	strbeq	r9, [r8], -r3, lsl #2
    10d8:	03510111 	cmpeq	r1, #1073741828	; 0x40000004
    10dc:	1104000a 	tstne	r4, sl
    10e0:	74025001 	strvc	r5, [r2], #-1
    10e4:	fc120000 	ldc2	0, cr0, [r2], {-0}
    10e8:	11000086 	smlabbne	r0, r6, r0, r0
    10ec:	74025001 	strvc	r5, [r2], #-1
    10f0:	13000000 	movwne	r0, #0
    10f4:	000000a7 	andeq	r0, r0, r7, lsr #1
    10f8:	00000154 	andeq	r0, r0, r4, asr r1
    10fc:	00009a14 	andeq	r9, r0, r4, lsl sl
    1100:	0003ff00 	andeq	pc, r3, r0, lsl #30
    1104:	00005415 	andeq	r5, r0, r5, lsl r4
    1108:	00016300 	andeq	r6, r1, r0, lsl #6
    110c:	00ae1600 	adceq	r1, lr, r0, lsl #12
    1110:	17000000 	strne	r0, [r0, -r0]
    1114:	00000635 	andeq	r0, r0, r5, lsr r6
    1118:	016e2204 	cmneq	lr, r4, lsl #4
    111c:	04080000 	streq	r0, [r8], #-0
    1120:	00000154 	andeq	r0, r0, r4, asr r1
    1124:	0005c918 	andeq	ip, r5, r8, lsl r9
    1128:	54020500 	strpl	r0, [r2], #-1280	; 0x500
    112c:	16000000 	strne	r0, [r0], -r0
    1130:	000000a1 	andeq	r0, r0, r1, lsr #1
    1134:	00005416 	andeq	r5, r0, r6, lsl r4
    1138:	00ae1600 	adceq	r1, lr, r0, lsl #12
    113c:	49160000 	ldmdbmi	r6, {}	; <UNPREDICTABLE>
    1140:	00000000 	andeq	r0, r0, r0
    1144:	00011300 	andeq	r1, r1, r0, lsl #6
    1148:	fd000400 	stc2	4, cr0, [r0, #-0]
    114c:	04000004 	streq	r0, [r0], #-4
    1150:	00037601 	andeq	r7, r3, r1, lsl #12
    1154:	06040100 	streq	r0, [r4], -r0, lsl #2
    1158:	05680000 	strbeq	r0, [r8, #-0]!
    115c:	87180000 	ldrhi	r0, [r8, -r0]
    1160:	003c0000 	eorseq	r0, ip, r0
    1164:	05eb0000 	strbeq	r0, [fp, #0]!
    1168:	04020000 	streq	r0, [r2], #-0
    116c:	746e6905 	strbtvc	r6, [lr], #-2309	; 0x905
    1170:	07040300 	streq	r0, [r4, -r0, lsl #6]
    1174:	00000062 	andeq	r0, r0, r2, rrx
    1178:	db060103 	blle	18158c <__bss_end__+0x172c94>
    117c:	03000002 	movweq	r0, #2
    1180:	02ef0502 	rsceq	r0, pc, #8388608	; 0x800000
    1184:	04030000 	streq	r0, [r3], #-0
    1188:	00009305 	andeq	r9, r0, r5, lsl #6
    118c:	05080300 	streq	r0, [r8, #-768]	; 0x300
    1190:	0000008e 	andeq	r0, r0, lr, lsl #1
    1194:	d9080103 	stmdble	r8, {r0, r1, r8}
    1198:	03000002 	movweq	r0, #2
    119c:	01bb0702 			; <UNDEFINED> instruction: 0x01bb0702
    11a0:	04030000 	streq	r0, [r3], #-0
    11a4:	00005d07 	andeq	r5, r0, r7, lsl #26
    11a8:	07080300 	streq	r0, [r8, -r0, lsl #6]
    11ac:	00000058 	andeq	r0, r0, r8, asr r0
    11b0:	4a070403 	bmi	1c21c4 <__bss_end__+0x1b38cc>
    11b4:	03000002 	movweq	r0, #2
    11b8:	02e20801 	rsceq	r0, r2, #65536	; 0x10000
    11bc:	e7040000 	str	r0, [r4, -r0]
    11c0:	01000005 	tsteq	r0, r5
    11c4:	00002503 	andeq	r2, r0, r3, lsl #10
    11c8:	00871800 	addeq	r1, r7, r0, lsl #16
    11cc:	00001400 	andeq	r1, r0, r0, lsl #8
    11d0:	b09c0100 	addslt	r0, ip, r0, lsl #2
    11d4:	05000000 	streq	r0, [r0, #-0]
    11d8:	03010063 	movweq	r0, #4195	; 0x1063
    11dc:	00000025 	andeq	r0, r0, r5, lsr #32
    11e0:	000004ad 	andeq	r0, r0, sp, lsr #9
    11e4:	00872406 	addeq	r2, r7, r6, lsl #8
    11e8:	00010900 	andeq	r0, r1, r0, lsl #18
    11ec:	50010700 	andpl	r0, r1, r0, lsl #14
    11f0:	00007402 	andeq	r7, r0, r2, lsl #8
    11f4:	016f0800 	cmneq	pc, r0, lsl #16
    11f8:	08010000 	stmdaeq	r1, {}	; <UNPREDICTABLE>
    11fc:	0000872c 	andeq	r8, r0, ip, lsr #14
    1200:	00000018 	andeq	r0, r0, r8, lsl r0
    1204:	13099c01 	movwne	r9, #39937	; 0x9c01
    1208:	01000006 	tsteq	r0, r6
    120c:	0087440b 	addeq	r4, r7, fp, lsl #8
    1210:	00001000 	andeq	r1, r0, r0
    1214:	e39c0100 	orrs	r0, ip, #0, 2
    1218:	0a000000 	beq	1220 <_start-0x6de0>
    121c:	01007066 	tsteq	r0, r6, rrx
    1220:	0000f20b 	andeq	pc, r0, fp, lsl #4
    1224:	00500100 	subseq	r0, r0, r0, lsl #2
    1228:	0000250b 	andeq	r2, r0, fp, lsl #10
    122c:	0000f200 	andeq	pc, r0, r0, lsl #4
    1230:	00250c00 	eoreq	r0, r5, r0, lsl #24
    1234:	0d000000 	stceq	0, cr0, [r0, #-0]
    1238:	0000e304 	andeq	lr, r0, r4, lsl #6
    123c:	05f80e00 	ldrbeq	r0, [r8, #3584]!	; 0xe00
    1240:	06010000 	streq	r0, [r1], -r0
    1244:	000000f2 	strdeq	r0, [r0], -r2
    1248:	9f100305 	svcls	0x00100305
    124c:	ee0f0000 	cdp	0, 0, cr0, cr15, cr0, {0}
    1250:	02000001 	andeq	r0, r0, #1
    1254:	002c0c3c 	eoreq	r0, ip, ip, lsr ip
    1258:	00000000 	andeq	r0, r0, r0
    125c:	000000ee 	andeq	r0, r0, lr, ror #1
    1260:	05e50004 	strbeq	r0, [r5, #4]!
    1264:	01040000 	mrseq	r0, (UNDEF: 4)
    1268:	00000376 	andeq	r0, r0, r6, ror r3
    126c:	00062001 	andeq	r2, r6, r1
    1270:	00056800 	andeq	r6, r5, r0, lsl #16
    1274:	00875400 	addeq	r5, r7, r0, lsl #8
    1278:	00003400 	andeq	r3, r0, r0, lsl #8
    127c:	00067900 	andeq	r7, r6, r0, lsl #18
    1280:	05040200 	streq	r0, [r4, #-512]	; 0x200
    1284:	00746e69 	rsbseq	r6, r4, r9, ror #28
    1288:	62070403 	andvs	r0, r7, #50331648	; 0x3000000
    128c:	03000000 	movweq	r0, #0
    1290:	02db0601 	sbcseq	r0, fp, #1048576	; 0x100000
    1294:	02030000 	andeq	r0, r3, #0
    1298:	0002ef05 	andeq	lr, r2, r5, lsl #30
    129c:	05040300 	streq	r0, [r4, #-768]	; 0x300
    12a0:	00000093 	muleq	r0, r3, r0
    12a4:	8e050803 	cdphi	8, 0, cr0, cr5, cr3, {0}
    12a8:	03000000 	movweq	r0, #0
    12ac:	02d90801 	sbcseq	r0, r9, #65536	; 0x10000
    12b0:	02030000 	andeq	r0, r3, #0
    12b4:	0001bb07 	andeq	fp, r1, r7, lsl #22
    12b8:	07040300 	streq	r0, [r4, -r0, lsl #6]
    12bc:	0000005d 	andeq	r0, r0, sp, asr r0
    12c0:	58070803 	stmdapl	r7, {r0, r1, fp}
    12c4:	03000000 	movweq	r0, #0
    12c8:	024a0704 	subeq	r0, sl, #4, 14	; 0x100000
    12cc:	01030000 	mrseq	r0, (UNDEF: 3)
    12d0:	0002e208 	andeq	lr, r2, r8, lsl #4
    12d4:	7f040400 	svcvc	0x00040400
    12d8:	05000000 	streq	r0, [r0, #-0]
    12dc:	00000072 	andeq	r0, r0, r2, ror r0
    12e0:	00062c06 	andeq	r2, r6, r6, lsl #24
    12e4:	25040100 	strcs	r0, [r4, #-256]	; 0x100
    12e8:	54000000 	strpl	r0, [r0], #-0
    12ec:	34000087 	strcc	r0, [r0], #-135	; 0x87
    12f0:	01000000 	mrseq	r0, (UNDEF: 0)
    12f4:	0000ab9c 	muleq	r0, ip, fp
    12f8:	00700700 	rsbseq	r0, r0, r0, lsl #14
    12fc:	00790401 	rsbseq	r0, r9, r1, lsl #8
    1300:	04cb0000 	strbeq	r0, [fp], #0
    1304:	08000000 	stmdaeq	r0, {}	; <UNPREDICTABLE>
    1308:	00000025 	andeq	r0, r0, r5, lsr #32
    130c:	000000ba 	strheq	r0, [r0], -sl
    1310:	00002509 	andeq	r2, r0, r9, lsl #10
    1314:	f80a0000 			; <UNDEFINED> instruction: 0xf80a0000
    1318:	02000005 	andeq	r0, r0, #5
    131c:	0000c51d 	andeq	ip, r0, sp, lsl r5
    1320:	ab040400 	blge	102328 <__bss_end__+0xf3a30>
    1324:	08000000 	stmdaeq	r0, {}	; <UNPREDICTABLE>
    1328:	00000025 	andeq	r0, r0, r5, lsr #32
    132c:	000000da 	ldrdeq	r0, [r0], -sl
    1330:	00007909 	andeq	r7, r0, r9, lsl #18
    1334:	350b0000 	strcc	r0, [fp, #-0]
    1338:	01000006 	tsteq	r0, r6
    133c:	0000eb0c 	andeq	lr, r0, ip, lsl #22
    1340:	14030500 	strne	r0, [r3], #-1280	; 0x500
    1344:	0400009f 	streq	r0, [r0], #-159	; 0x9f
    1348:	0000cb04 	andeq	ip, r0, r4, lsl #22
    134c:	06810000 	streq	r0, [r1], r0
    1350:	00040000 	andeq	r0, r4, r0
    1354:	0000067e 	andeq	r0, r0, lr, ror r6
    1358:	03760104 	cmneq	r6, #4, 2
    135c:	66010000 	strvs	r0, [r1], -r0
    1360:	68000006 	stmdavs	r0, {r1, r2}
    1364:	88000005 	stmdahi	r0, {r0, r2}
    1368:	f8000087 			; <UNDEFINED> instruction: 0xf8000087
    136c:	13000004 	movwne	r0, #4
    1370:	02000007 	andeq	r0, r0, #7
    1374:	6e690504 	cdpvs	5, 6, cr0, cr9, cr4, {0}
    1378:	04030074 	streq	r0, [r3], #-116	; 0x74
    137c:	00006207 	andeq	r6, r0, r7, lsl #4
    1380:	06010300 	streq	r0, [r1], -r0, lsl #6
    1384:	000002db 	ldrdeq	r0, [r0], -fp
    1388:	ef050203 	svc	0x00050203
    138c:	03000002 	movweq	r0, #2
    1390:	00930504 	addseq	r0, r3, r4, lsl #10
    1394:	08030000 	stmdaeq	r3, {}	; <UNPREDICTABLE>
    1398:	00008e05 	andeq	r8, r0, r5, lsl #28
    139c:	08010300 	stmdaeq	r1, {r8, r9}
    13a0:	000002d9 	ldrdeq	r0, [r0], -r9
    13a4:	bb070203 	bllt	1c1bb8 <__bss_end__+0x1b32c0>
    13a8:	03000001 	movweq	r0, #1
    13ac:	005d0704 	subseq	r0, sp, r4, lsl #14
    13b0:	08030000 	stmdaeq	r3, {}	; <UNPREDICTABLE>
    13b4:	00005807 	andeq	r5, r0, r7, lsl #16
    13b8:	07040300 	streq	r0, [r4, -r0, lsl #6]
    13bc:	0000024a 	andeq	r0, r0, sl, asr #4
    13c0:	04050404 	streq	r0, [r5], #-1028	; 0x404
    13c4:	0000007a 	andeq	r0, r0, sl, ror r0
    13c8:	e2080103 	and	r0, r8, #-1073741824	; 0xc0000000
    13cc:	05000002 	streq	r0, [r0, #-2]
    13d0:	00008704 	andeq	r8, r0, r4, lsl #14
    13d4:	007a0600 	rsbseq	r0, sl, r0, lsl #12
    13d8:	ac070000 	stcge	0, cr0, [r7], {-0}
    13dc:	02000005 	andeq	r0, r0, #5
    13e0:	00009728 	andeq	r9, r0, r8, lsr #14
    13e4:	05d30800 	ldrbeq	r0, [r3, #2048]	; 0x800
    13e8:	04040000 	streq	r0, [r4], #-0
    13ec:	0000ae00 	andeq	sl, r0, r0, lsl #28
    13f0:	05e20900 	strbeq	r0, [r2, #2304]!	; 0x900
    13f4:	00720000 	rsbseq	r0, r2, r0
    13f8:	00000000 	andeq	r0, r0, r0
    13fc:	0005d507 	andeq	sp, r5, r7, lsl #10
    1400:	8c620200 	sfmhi	f0, 2, [r2], #-0
    1404:	0a000000 	beq	140c <_start-0x6bf4>
    1408:	00000648 	andeq	r0, r0, r8, asr #12
    140c:	00252701 	eoreq	r2, r5, r1, lsl #14
    1410:	87880000 	strhi	r0, [r8, r0]
    1414:	00140000 	andseq	r0, r4, r0
    1418:	9c010000 	stcls	0, cr0, [r1], {-0}
    141c:	000000e0 	andeq	r0, r0, r0, ror #1
    1420:	0100630b 	tsteq	r0, fp, lsl #6
    1424:	00002527 	andeq	r2, r0, r7, lsr #10
    1428:	0004e900 	andeq	lr, r4, r0, lsl #18
    142c:	700c0000 	andvc	r0, ip, r0
    1430:	01006461 	tsteq	r0, r1, ror #8
    1434:	0000742e 	andeq	r7, r0, lr, lsr #8
    1438:	00879c00 	addeq	r9, r7, r0, lsl #24
    143c:	00002c00 	andeq	r2, r0, r0, lsl #24
    1440:	309c0100 	addscc	r0, ip, r0, lsl #2
    1444:	0b000001 	bleq	1450 <_start-0x6bb0>
    1448:	2e010070 	mcrcs	0, 0, r0, cr1, cr0, {3}
    144c:	00000074 	andeq	r0, r0, r4, ror r0
    1450:	00000517 	andeq	r0, r0, r7, lsl r5
    1454:	0006580d 	andeq	r5, r6, sp, lsl #16
    1458:	742e0100 	strtvc	r0, [lr], #-256	; 0x100
    145c:	42000000 	andmi	r0, r0, #0
    1460:	0e000005 	cdpeq	0, 0, cr0, cr0, cr5, {0}
    1464:	00000686 	andeq	r0, r0, r6, lsl #13
    1468:	00252e01 	eoreq	r2, r5, r1, lsl #28
    146c:	52010000 	andpl	r0, r1, #0
    1470:	6e656c0f 	cdpvs	12, 6, cr6, cr5, cr15, {0}
    1474:	252f0100 	strcs	r0, [pc, #-256]!	; 137c <_start-0x6c84>
    1478:	01000000 	mrseq	r0, (UNDEF: 0)
    147c:	400a0051 	andmi	r0, sl, r1, asr r0
    1480:	01000006 	tsteq	r0, r6
    1484:	00007437 	andeq	r7, r0, r7, lsr r4
    1488:	0087c800 	addeq	ip, r7, r0, lsl #16
    148c:	00004000 	andeq	r4, r0, r0
    1490:	9c9c0100 	ldflss	f0, [ip], {0}
    1494:	0b000001 	bleq	14a0 <_start-0x6b60>
    1498:	00747364 	rsbseq	r7, r4, r4, ror #6
    149c:	00743701 	rsbseq	r3, r4, r1, lsl #14
    14a0:	05630000 	strbeq	r0, [r3, #-0]!
    14a4:	6e0b0000 	cdpvs	0, 0, cr0, cr11, cr0, {0}
    14a8:	25370100 	ldrcs	r0, [r7, #-256]!	; 0x100
    14ac:	9b000000 	blls	14b4 <_start-0x6b4c>
    14b0:	0b000005 	bleq	14cc <_start-0x6b34>
    14b4:	37010070 	smlsdxcc	r1, r0, r0, r0
    14b8:	00000074 	andeq	r0, r0, r4, ror r0
    14bc:	000005bc 			; <UNDEFINED> instruction: 0x000005bc
    14c0:	0007370d 	andeq	r3, r7, sp, lsl #14
    14c4:	74370100 	ldrtvc	r0, [r7], #-256	; 0x100
    14c8:	f2000000 	vhadd.s8	d0, d0, d0
    14cc:	10000005 	andne	r0, r0, r5
    14d0:	006e656c 	rsbeq	r6, lr, ip, ror #10
    14d4:	00253901 	eoreq	r3, r5, r1, lsl #18
    14d8:	06100000 	ldreq	r0, [r0], -r0
    14dc:	730f0000 	movwvc	r0, #61440	; 0xf000
    14e0:	743d0100 	ldrtvc	r0, [sp], #-256	; 0x100
    14e4:	01000000 	mrseq	r0, (UNDEF: 0)
    14e8:	940a0050 	strls	r0, [sl], #-80	; 0x50
    14ec:	01000006 	tsteq	r0, r6
    14f0:	00007447 	andeq	r7, r0, r7, asr #8
    14f4:	00880800 	addeq	r0, r8, r0, lsl #16
    14f8:	00019c00 	andeq	r9, r1, r0, lsl #24
    14fc:	d39c0100 	orrsle	r0, ip, #0, 2
    1500:	0d000002 	stceq	0, cr0, [r0, #-8]
    1504:	00000658 	andeq	r0, r0, r8, asr r6
    1508:	002c4701 	eoreq	r4, ip, r1, lsl #14
    150c:	06370000 	ldrteq	r0, [r7], -r0
    1510:	640b0000 	strvs	r0, [fp], #-0
    1514:	01007473 	tsteq	r0, r3, ror r4
    1518:	00007447 	andeq	r7, r0, r7, asr #8
    151c:	00066500 	andeq	r6, r6, r0, lsl #10
    1520:	006e0b00 	rsbeq	r0, lr, r0, lsl #22
    1524:	00254701 	eoreq	r4, r5, r1, lsl #14
    1528:	06d30000 	ldrbeq	r0, [r3], r0
    152c:	760b0000 	strvc	r0, [fp], -r0
    1530:	01006c61 	tsteq	r0, r1, ror #24
    1534:	00002547 	andeq	r2, r0, r7, asr #10
    1538:	0006ff00 	andeq	pc, r6, r0, lsl #30
    153c:	06860d00 	streq	r0, [r6], r0, lsl #26
    1540:	47010000 	strmi	r0, [r1, -r0]
    1544:	00000025 	andeq	r0, r0, r5, lsr #32
    1548:	0000077e 	andeq	r0, r0, lr, ror r7
    154c:	00065d0e 	andeq	r5, r6, lr, lsl #26
    1550:	25470100 	strbcs	r0, [r7, #-256]	; 0x100
    1554:	02000000 	andeq	r0, r0, #0
    1558:	620f0491 	andvs	r0, pc, #-1862270976	; 0x91000000
    155c:	01006675 	tsteq	r0, r5, ror r6
    1560:	0002d34c 	andeq	sp, r2, ip, asr #6
    1564:	a8910300 	ldmge	r1, {r8, r9}
    1568:	0070107f 	rsbseq	r1, r0, pc, ror r0
    156c:	00744c01 	rsbseq	r4, r4, r1, lsl #24
    1570:	07a80000 	streq	r0, [r8, r0]!
    1574:	75100000 	ldrvc	r0, [r0, #-0]
    1578:	2c4d0100 	stfcse	f0, [sp], {-0}
    157c:	4d000000 	stcmi	0, cr0, [r0, #-0]
    1580:	11000008 	tstne	r0, r8
    1584:	00000196 	muleq	r0, r6, r1
    1588:	000002f3 	strdeq	r0, [r0], -r3
    158c:	a0e40305 	rscge	r0, r4, r5, lsl #6
    1590:	74120000 	ldrvc	r0, [r2], #-0
    1594:	74000088 	strvc	r0, [r0], #-136	; 0x88
    1598:	61000000 	mrsvs	r0, (UNDEF: 0)
    159c:	13000002 	movwne	r0, #2
    15a0:	0000063a 	andeq	r0, r0, sl, lsr r6
    15a4:	002c5201 	eoreq	r5, ip, r1, lsl #4
    15a8:	09520000 	ldmdbeq	r2, {}^	; <UNPREDICTABLE>
    15ac:	14000000 	strne	r0, [r0], #-0
    15b0:	00008948 	andeq	r8, r0, r8, asr #18
    15b4:	00000660 	andeq	r0, r0, r0, ror #12
    15b8:	00895c15 	addeq	r5, r9, r5, lsl ip
    15bc:	00066700 	andeq	r6, r6, r0, lsl #14
    15c0:	00029900 	andeq	r9, r2, r0, lsl #18
    15c4:	53011600 	movwpl	r1, #5632	; 0x1600
    15c8:	16750802 	ldrbtne	r0, [r5], -r2, lsl #16
    15cc:	03055201 	movweq	r5, #20993	; 0x5201
    15d0:	0000a0e4 	andeq	sl, r0, r4, ror #1
    15d4:	05510116 	ldrbeq	r0, [r1, #-278]	; 0x116
    15d8:	00a11c03 	adceq	r1, r1, r3, lsl #24
    15dc:	50011600 	andpl	r1, r1, r0, lsl #12
    15e0:	a1080305 	tstge	r8, r5, lsl #6
    15e4:	14000000 	strne	r0, [r0], #-0
    15e8:	00008960 	andeq	r8, r0, r0, ror #18
    15ec:	0000067d 	andeq	r0, r0, sp, ror r6
    15f0:	00896c15 	addeq	r6, r9, r5, lsl ip
    15f4:	0000e000 	andeq	lr, r0, r0
    15f8:	0002b600 	andeq	fp, r2, r0, lsl #12
    15fc:	51011600 	tstpl	r1, r0, lsl #12
    1600:	00007d02 	andeq	r7, r0, r2, lsl #26
    1604:	00898017 	addeq	r8, r9, r7, lsl r0
    1608:	00013000 	andeq	r3, r1, r0
    160c:	53011600 	movwpl	r1, #5632	; 0x1600
    1610:	16007d02 	strne	r7, [r0], -r2, lsl #26
    1614:	74025101 	strvc	r5, [r2], #-257	; 0x101
    1618:	50011600 	andpl	r1, r1, r0, lsl #12
    161c:	00007502 	andeq	r7, r0, r2, lsl #10
    1620:	007a1800 	rsbseq	r1, sl, r0, lsl #16
    1624:	02e30000 	rsceq	r0, r3, #0
    1628:	6b190000 	blvs	641630 <__bss_end__+0x632d38>
    162c:	3f000000 	svccc	0x00000000
    1630:	007a1800 	rsbseq	r1, sl, r0, lsl #16
    1634:	02f30000 	rscseq	r0, r3, #0
    1638:	6b190000 	blvs	641640 <__bss_end__+0x632d48>
    163c:	04000000 	streq	r0, [r0], #-0
    1640:	02e30600 	rsceq	r0, r3, #0, 12
    1644:	771a0000 	ldrvc	r0, [sl, -r0]
    1648:	01000006 	tsteq	r0, r6
    164c:	0089a41f 	addeq	sl, r9, pc, lsl r4
    1650:	00005400 	andeq	r5, r0, r0, lsl #8
    1654:	7c9c0100 	ldfvcs	f0, [ip], {0}
    1658:	0d000003 	stceq	0, cr0, [r0, #-12]
    165c:	0000068c 	andeq	r0, r0, ip, lsl #13
    1660:	038b1f01 	orreq	r1, fp, #1, 30
    1664:	097e0000 	ldmdbeq	lr!, {}^	; <UNPREDICTABLE>
    1668:	500d0000 	andpl	r0, sp, r0
    166c:	01000006 	tsteq	r0, r6
    1670:	0003a01f 	andeq	sl, r3, pc, lsl r0
    1674:	0009aa00 	andeq	sl, r9, r0, lsl #20
    1678:	01961100 	orrseq	r1, r6, r0, lsl #2
    167c:	03b60000 			; <UNDEFINED> instruction: 0x03b60000
    1680:	03050000 	movweq	r0, #20480	; 0x5000
    1684:	0000a0ec 	andeq	sl, r0, ip, ror #1
    1688:	0089b414 	addeq	fp, r9, r4, lsl r4
    168c:	00066000 	andeq	r6, r6, r0
    1690:	89c81500 	stmibhi	r8, {r8, sl, ip}^
    1694:	06670000 	strbteq	r0, [r7], -r0
    1698:	03720000 	cmneq	r2, #0
    169c:	01160000 	tsteq	r6, r0
    16a0:	20080253 	andcs	r0, r8, r3, asr r2
    16a4:	05520116 	ldrbeq	r0, [r2, #-278]	; 0x116
    16a8:	00a0ec03 	adceq	lr, r0, r3, lsl #24
    16ac:	51011600 	tstpl	r1, r0, lsl #12
    16b0:	a11c0305 	tstge	ip, r5, lsl #6
    16b4:	01160000 	tsteq	r6, r0
    16b8:	54030550 	strpl	r0, [r3], #-1360	; 0x550
    16bc:	000000a1 	andeq	r0, r0, r1, lsr #1
    16c0:	0089cc14 	addeq	ip, r9, r4, lsl ip
    16c4:	00067d00 	andeq	r7, r6, r0, lsl #26
    16c8:	251b0000 	ldrcs	r0, [fp, #-0]
    16cc:	8b000000 	blhi	16d4 <_start-0x692c>
    16d0:	1c000003 	stcne	0, cr0, [r0], {3}
    16d4:	00000025 	andeq	r0, r0, r5, lsr #32
    16d8:	7c040500 	cfstr32vc	mvfx0, [r4], {-0}
    16dc:	1b000003 	blne	16f0 <_start-0x6910>
    16e0:	00000025 	andeq	r0, r0, r5, lsr #32
    16e4:	000003a0 	andeq	r0, r0, r0, lsr #7
    16e8:	0000811c 	andeq	r8, r0, ip, lsl r1
    16ec:	04050000 	streq	r0, [r5], #-0
    16f0:	00000391 	muleq	r0, r1, r3
    16f4:	00007a18 	andeq	r7, r0, r8, lsl sl
    16f8:	0003b600 	andeq	fp, r3, r0, lsl #12
    16fc:	006b1900 	rsbeq	r1, fp, r0, lsl #18
    1700:	000e0000 	andeq	r0, lr, r0
    1704:	0003a606 	andeq	sl, r3, r6, lsl #12
    1708:	05c91d00 	strbeq	r1, [r9, #3328]	; 0xd00
    170c:	7d010000 	stcvc	0, cr0, [r1, #-0]
    1710:	00000025 	andeq	r0, r0, r5, lsr #32
    1714:	000089f8 	strdeq	r8, [r0], -r8	; <UNPREDICTABLE>
    1718:	00000288 	andeq	r0, r0, r8, lsl #5
    171c:	06259c01 	strteq	r9, [r5], -r1, lsl #24
    1720:	620b0000 	andvs	r0, fp, #0
    1724:	01006675 	tsteq	r0, r5, ror r6
    1728:	0000747d 	andeq	r7, r0, sp, ror r4
    172c:	0009d600 	andeq	sp, r9, r0, lsl #12
    1730:	006e0b00 	rsbeq	r0, lr, r0, lsl #22
    1734:	00257d01 	eoreq	r7, r5, r1, lsl #26
    1738:	0a020000 	beq	81740 <__bss_end__+0x72e48>
    173c:	660b0000 	strvs	r0, [fp], -r0
    1740:	0100746d 	tsteq	r0, sp, ror #8
    1744:	0000817d 	andeq	r8, r0, sp, ror r1
    1748:	000a3000 	andeq	r3, sl, r0
    174c:	05dd0d00 	ldrbeq	r0, [sp, #3328]	; 0xd00
    1750:	7d010000 	stcvc	0, cr0, [r1, #-0]
    1754:	000000ae 	andeq	r0, r0, lr, lsr #1
    1758:	00000a64 	andeq	r0, r0, r4, ror #20
    175c:	01007010 	tsteq	r0, r0, lsl r0
    1760:	0000747e 	andeq	r7, r0, lr, ror r4
    1764:	000a7700 	andeq	r7, sl, r0, lsl #14
    1768:	00651000 	rsbeq	r1, r5, r0
    176c:	00747e01 	rsbseq	r7, r4, r1, lsl #28
    1770:	0af50000 	beq	ffd41778 <__bss_end__+0xffd32e80>
    1774:	96110000 	ldrls	r0, [r1], -r0
    1778:	35000001 	strcc	r0, [r0, #-1]
    177c:	05000006 	streq	r0, [r0, #-6]
    1780:	00a0fc03 	adceq	pc, r0, r3, lsl #24
    1784:	00781e00 	rsbseq	r1, r8, r0, lsl #28
    1788:	73100000 	tstvc	r0, #0
    178c:	748b0100 	strvc	r0, [fp], #256	; 0x100
    1790:	1c000000 	stcne	0, cr0, [r0], {-0}
    1794:	0f00000b 	svceq	0x0000000b
    1798:	006d756e 	rsbeq	r7, sp, lr, ror #10
    179c:	063a8b01 	ldrteq	r8, [sl], -r1, lsl #22
    17a0:	91030000 	mrsls	r0, (UNDEF: 3)
    17a4:	86137ed8 			; <UNDEFINED> instruction: 0x86137ed8
    17a8:	01000006 	tsteq	r0, r6
    17ac:	00002c8c 	andeq	r2, r0, ip, lsl #25
    17b0:	000b7100 	andeq	r7, fp, r0, lsl #2
    17b4:	8a7c1500 	bhi	1f06bbc <__bss_end__+0x1ef82c4>
    17b8:	00b90000 	adcseq	r0, r9, r0
    17bc:	047b0000 	ldrbteq	r0, [fp], #-0
    17c0:	01160000 	tsteq	r6, r0
    17c4:	00750250 	rsbseq	r0, r5, r0, asr r2
    17c8:	8a901400 	bhi	fe4067d0 <__bss_end__+0xfe3f7ed8>
    17cc:	06600000 	strbteq	r0, [r0], -r0
    17d0:	a4150000 	ldrge	r0, [r5], #-0
    17d4:	6700008a 	strvs	r0, [r0, -sl, lsl #1]
    17d8:	b3000006 	movwlt	r0, #6
    17dc:	16000004 	strne	r0, [r0], -r4
    17e0:	08025301 	stmdaeq	r2, {r0, r8, r9, ip, lr}
    17e4:	52011692 	andpl	r1, r1, #153092096	; 0x9200000
    17e8:	a0fc0305 	rscsge	r0, ip, r5, lsl #6
    17ec:	01160000 	tsteq	r6, r0
    17f0:	1c030551 	cfstr32ne	mvfx0, [r3], {81}	; 0x51
    17f4:	160000a1 	strne	r0, [r0], -r1, lsr #1
    17f8:	03055001 	movweq	r5, #20481	; 0x5001
    17fc:	0000a16c 	andeq	sl, r0, ip, ror #2
    1800:	8aa81400 	bhi	fea06808 <__bss_end__+0xfe9f7f10>
    1804:	067d0000 	ldrbteq	r0, [sp], -r0
    1808:	18140000 	ldmdane	r4, {}	; <UNPREDICTABLE>
    180c:	6000008b 	andvs	r0, r0, fp, lsl #1
    1810:	15000006 	strne	r0, [r0, #-6]
    1814:	00008b2c 	andeq	r8, r0, ip, lsr #22
    1818:	00000667 	andeq	r0, r0, r7, ror #12
    181c:	000004f4 	strdeq	r0, [r0], -r4
    1820:	02530116 	subseq	r0, r3, #-2147483643	; 0x80000005
    1824:	01169808 	tsteq	r6, r8, lsl #16
    1828:	fc030552 	stc2	5, cr0, [r3], {82}	; 0x52
    182c:	160000a0 	strne	r0, [r0], -r0, lsr #1
    1830:	03055101 	movweq	r5, #20737	; 0x5101
    1834:	0000a11c 	andeq	sl, r0, ip, lsl r1
    1838:	05500116 	ldrbeq	r0, [r0, #-278]	; 0x116
    183c:	00a18803 	adceq	r8, r1, r3, lsl #16
    1840:	30140000 	andscc	r0, r4, r0
    1844:	7d00008b 	stcvc	0, cr0, [r0, #-556]	; 0xfffffdd4
    1848:	15000006 	strne	r0, [r0, #-6]
    184c:	00008b54 	andeq	r8, r0, r4, asr fp
    1850:	0000019c 	muleq	r0, ip, r1
    1854:	0000052a 	andeq	r0, r0, sl, lsr #10
    1858:	02520116 	subseq	r0, r2, #-2147483643	; 0x80000005
    185c:	01168008 	tsteq	r6, r8
    1860:	d0910351 	addsle	r0, r1, r1, asr r3
    1864:	5001167e 	andpl	r1, r1, lr, ror r6
    1868:	02163a01 	andseq	r3, r6, #4096	; 0x1000
    186c:	3101047d 	tstcc	r1, sp, ror r4
    1870:	007d0216 	rsbseq	r0, sp, r6, lsl r2
    1874:	00007702 	andeq	r7, r0, r2, lsl #14
    1878:	008b7815 	addeq	r7, fp, r5, lsl r8
    187c:	00019c00 	andeq	r9, r1, r0, lsl #24
    1880:	00055800 	andeq	r5, r5, r0, lsl #16
    1884:	52011600 	andpl	r1, r1, #0, 12
    1888:	16800802 	strne	r0, [r0], r2, lsl #16
    188c:	91035101 	tstls	r3, r1, lsl #2
    1890:	01167ed0 			; <UNDEFINED> instruction: 0x01167ed0
    1894:	163a0150 			; <UNDEFINED> instruction: 0x163a0150
    1898:	02047d02 	andeq	r7, r4, #2, 26	; 0x80
    189c:	0216007b 	andseq	r0, r6, #123	; 0x7b
    18a0:	7702007d 	smlsdxvc	r2, sp, r0, r0
    18a4:	9c150000 	ldcls	0, cr0, [r5], {-0}
    18a8:	9c00008b 	stcls	0, cr0, [r0], {139}	; 0x8b
    18ac:	86000001 	strhi	r0, [r0], -r1
    18b0:	16000005 	strne	r0, [r0], -r5
    18b4:	08025201 	stmdaeq	r2, {r0, r9, ip, lr}
    18b8:	51011680 	smlabbpl	r1, r0, r6, r1
    18bc:	7ed09103 	atnvcs	f1, f3
    18c0:	01500116 	cmpeq	r0, r6, lsl r1
    18c4:	7d021640 	stcvc	6, cr1, [r2, #-256]	; 0xffffff00
    18c8:	007b0204 	rsbseq	r0, fp, r4, lsl #4
    18cc:	007d0216 	rsbseq	r0, sp, r6, lsl r2
    18d0:	00007702 	andeq	r7, r0, r2, lsl #14
    18d4:	008bc015 	addeq	ip, fp, r5, lsl r0
    18d8:	00019c00 	andeq	r9, r1, r0, lsl #24
    18dc:	0005b400 	andeq	fp, r5, r0, lsl #8
    18e0:	52011600 	andpl	r1, r1, #0, 12
    18e4:	16800802 	strne	r0, [r0], r2, lsl #16
    18e8:	91035101 	tstls	r3, r1, lsl #2
    18ec:	01167ed0 			; <UNDEFINED> instruction: 0x01167ed0
    18f0:	16320150 			; <UNDEFINED> instruction: 0x16320150
    18f4:	02047d02 	andeq	r7, r4, #2, 26	; 0x80
    18f8:	0216007b 	andseq	r0, r6, #123	; 0x7b
    18fc:	7702007d 	smlsdxvc	r2, sp, r0, r0
    1900:	f0150000 			; <UNDEFINED> instruction: 0xf0150000
    1904:	9c00008b 	stcls	0, cr0, [r0], {139}	; 0x8b
    1908:	e2000001 	and	r0, r0, #1
    190c:	16000005 	strne	r0, [r0], -r5
    1910:	08025201 	stmdaeq	r2, {r0, r9, ip, lr}
    1914:	51011680 	smlabbpl	r1, r0, r6, r1
    1918:	7ed09103 	atnvcs	f1, f3
    191c:	01500116 	cmpeq	r0, r6, lsl r1
    1920:	7d021638 	stcvc	6, cr1, [r2, #-224]	; 0xffffff20
    1924:	007b0204 	rsbseq	r0, fp, r4, lsl #4
    1928:	007d0216 	rsbseq	r0, sp, r6, lsl r2
    192c:	00007702 	andeq	r7, r0, r2, lsl #14
    1930:	008bf814 	addeq	pc, fp, r4, lsl r8	; <UNPREDICTABLE>
    1934:	00066000 	andeq	r6, r6, r0
    1938:	8c141500 	cfldr32hi	mvfx1, [r4], {-0}
    193c:	06670000 	strbteq	r0, [r7], -r0
    1940:	061a0000 	ldreq	r0, [sl], -r0
    1944:	01160000 	tsteq	r6, r0
    1948:	b9080253 	stmdblt	r8, {r0, r1, r4, r6, r9}
    194c:	05520116 	ldrbeq	r0, [r2, #-278]	; 0x116
    1950:	00a0fc03 	adceq	pc, r0, r3, lsl #24
    1954:	51011600 	tstpl	r1, r0, lsl #12
    1958:	a11c0305 	tstge	ip, r5, lsl #6
    195c:	01160000 	tsteq	r6, r0
    1960:	b0030550 	andlt	r0, r3, r0, asr r5
    1964:	000000a1 	andeq	r0, r0, r1, lsr #1
    1968:	008c1814 	addeq	r1, ip, r4, lsl r8
    196c:	00067d00 	andeq	r7, r6, r0, lsl #26
    1970:	18000000 	stmdane	r0, {}	; <UNPREDICTABLE>
    1974:	0000007a 	andeq	r0, r0, sl, ror r0
    1978:	00000635 	andeq	r0, r0, r5, lsr r6
    197c:	00006b19 	andeq	r6, r0, r9, lsl fp
    1980:	06000900 	streq	r0, [r0], -r0, lsl #18
    1984:	00000625 	andeq	r0, r0, r5, lsr #12
    1988:	00007a18 	andeq	r7, r0, r8, lsl sl
    198c:	00064a00 	andeq	r4, r6, r0, lsl #20
    1990:	006b1900 	rsbeq	r1, fp, r0, lsl #18
    1994:	007f0000 	rsbseq	r0, pc, r0
    1998:	0005f81f 	andeq	pc, r5, pc, lsl r8	; <UNPREDICTABLE>
    199c:	8b1d0300 	blhi	7425a4 <__bss_end__+0x733cac>
    19a0:	1f000003 	svcne	0x00000003
    19a4:	00000635 	andeq	r0, r0, r5, lsr r6
    19a8:	03a02203 	moveq	r2, #805306368	; 0x30000000
    19ac:	6f200000 	svcvs	0x00200000
    19b0:	03000001 	movweq	r0, #1
    19b4:	05cc211e 	strbeq	r2, [ip, #286]	; 0x11e
    19b8:	29030000 	stmdbcs	r3, {}	; <UNPREDICTABLE>
    19bc:	00000025 	andeq	r0, r0, r5, lsr #32
    19c0:	0000067d 	andeq	r0, r0, sp, ror r6
    19c4:	0000811c 	andeq	r8, r0, ip, lsl r1
    19c8:	20002200 	andcs	r2, r0, r0, lsl #4
    19cc:	00000238 	andeq	r0, r0, r8, lsr r2
    19d0:	ff006603 			; <UNDEFINED> instruction: 0xff006603
    19d4:	04000000 	streq	r0, [r0], #-0
    19d8:	00085a00 	andeq	r5, r8, r0, lsl #20
    19dc:	76010400 	strvc	r0, [r1], -r0, lsl #8
    19e0:	01000003 	tsteq	r0, r3
    19e4:	000006a4 	andeq	r0, r0, r4, lsr #13
    19e8:	00000568 	andeq	r0, r0, r8, ror #10
    19ec:	00008c80 	andeq	r8, r0, r0, lsl #25
    19f0:	00000028 	andeq	r0, r0, r8, lsr #32
    19f4:	000008f5 	strdeq	r0, [r0], -r5
    19f8:	69050402 	stmdbvs	r5, {r1, sl}
    19fc:	0300746e 	movweq	r7, #1134	; 0x46e
    1a00:	00620704 	rsbeq	r0, r2, r4, lsl #14
    1a04:	01030000 	mrseq	r0, (UNDEF: 3)
    1a08:	0002db06 	andeq	sp, r2, r6, lsl #22
    1a0c:	05020300 	streq	r0, [r2, #-768]	; 0x300
    1a10:	000002ef 	andeq	r0, r0, pc, ror #5
    1a14:	93050403 	movwls	r0, #21507	; 0x5403
    1a18:	03000000 	movweq	r0, #0
    1a1c:	008e0508 	addeq	r0, lr, r8, lsl #10
    1a20:	01030000 	mrseq	r0, (UNDEF: 3)
    1a24:	0002d908 	andeq	sp, r2, r8, lsl #18
    1a28:	07020300 	streq	r0, [r2, -r0, lsl #6]
    1a2c:	000001bb 			; <UNDEFINED> instruction: 0x000001bb
    1a30:	5d070403 	cfstrspl	mvf0, [r7, #-12]
    1a34:	03000000 	movweq	r0, #0
    1a38:	00580708 	subseq	r0, r8, r8, lsl #14
    1a3c:	04030000 	streq	r0, [r3], #-0
    1a40:	00024a07 	andeq	r4, r2, r7, lsl #20
    1a44:	08010300 	stmdaeq	r1, {r8, r9}
    1a48:	000002e2 	andeq	r0, r0, r2, ror #5
    1a4c:	007f0404 	rsbseq	r0, pc, r4, lsl #8
    1a50:	72050000 	andvc	r0, r5, #0
    1a54:	06000000 	streq	r0, [r0], -r0
    1a58:	00000238 	andeq	r0, r0, r8, lsr r2
    1a5c:	8c800401 	cfstrshi	mvf0, [r0], {1}
    1a60:	00280000 	eoreq	r0, r8, r0
    1a64:	9c010000 	stcls	0, cr0, [r1], {-0}
    1a68:	000000ca 	andeq	r0, r0, sl, asr #1
    1a6c:	008c9407 	addeq	r9, ip, r7, lsl #8
    1a70:	0000ac00 	andeq	sl, r0, r0, lsl #24
    1a74:	50010800 	andpl	r0, r1, r0, lsl #16
    1a78:	a1e80305 	mvnge	r0, r5, lsl #6
    1a7c:	09000000 	stmdbeq	r0, {}	; <UNPREDICTABLE>
    1a80:	00008c9c 	muleq	r0, ip, ip
    1a84:	000000ea 	andeq	r0, r0, sl, ror #1
    1a88:	000000c0 	andeq	r0, r0, r0, asr #1
    1a8c:	02500108 	subseq	r0, r0, #8, 2
    1a90:	0a006408 	beq	1aab8 <__bss_end__+0xc1c0>
    1a94:	00008ca0 	andeq	r8, r0, r0, lsr #25
    1a98:	000000fb 	strdeq	r0, [r0], -fp
    1a9c:	00250b00 	eoreq	r0, r5, r0, lsl #22
    1aa0:	00d90000 	sbcseq	r0, r9, r0
    1aa4:	790c0000 	stmdbvc	ip, {}	; <UNPREDICTABLE>
    1aa8:	00000000 	andeq	r0, r0, r0
    1aac:	0006350d 	andeq	r3, r6, sp, lsl #10
    1ab0:	e4220200 	strt	r0, [r2], #-512	; 0x200
    1ab4:	04000000 	streq	r0, [r0], #-0
    1ab8:	0000ca04 	andeq	ip, r0, r4, lsl #20
    1abc:	06be0e00 	ldrteq	r0, [lr], r0, lsl #28
    1ac0:	50020000 	andpl	r0, r2, r0
    1ac4:	000000fb 	strdeq	r0, [r0], -fp
    1ac8:	00002c0c 	andeq	r2, r0, ip, lsl #24
    1acc:	990f0000 	stmdbls	pc, {}	; <UNPREDICTABLE>
    1ad0:	02000006 	andeq	r0, r0, #6
    1ad4:	02e90063 	rsceq	r0, r9, #99	; 0x63
    1ad8:	00040000 	andeq	r0, r4, r0
    1adc:	00000924 	andeq	r0, r0, r4, lsr #18
    1ae0:	03760104 	cmneq	r6, #4, 2
    1ae4:	6f010000 	svcvs	0x00010000
    1ae8:	68000007 	stmdavs	r0, {r0, r1, r2}
    1aec:	a8000005 	stmdage	r0, {r0, r2}
    1af0:	b000008c 	andlt	r0, r0, ip, lsl #1
    1af4:	8c000000 	stchi	0, cr0, [r0], {-0}
    1af8:	02000009 	andeq	r0, r0, #9
    1afc:	6e690504 	cdpvs	5, 6, cr0, cr9, cr4, {0}
    1b00:	04030074 	streq	r0, [r3], #-116	; 0x74
    1b04:	00006207 	andeq	r6, r0, r7, lsl #4
    1b08:	06010300 	streq	r0, [r1], -r0, lsl #6
    1b0c:	000002db 	ldrdeq	r0, [r0], -fp
    1b10:	ef050203 	svc	0x00050203
    1b14:	03000002 	movweq	r0, #2
    1b18:	00930504 	addseq	r0, r3, r4, lsl #10
    1b1c:	08030000 	stmdaeq	r3, {}	; <UNPREDICTABLE>
    1b20:	00008e05 	andeq	r8, r0, r5, lsl #28
    1b24:	04700400 	ldrbteq	r0, [r0], #-1024	; 0x400
    1b28:	2e020000 	cdpcs	0, 0, cr0, cr2, cr0, {0}
    1b2c:	0000005a 	andeq	r0, r0, sl, asr r0
    1b30:	d9080103 	stmdble	r8, {r0, r1, r8}
    1b34:	03000002 	movweq	r0, #2
    1b38:	01bb0702 			; <UNDEFINED> instruction: 0x01bb0702
    1b3c:	68040000 	stmdavs	r4, {}	; <UNPREDICTABLE>
    1b40:	02000003 	andeq	r0, r0, #3
    1b44:	00007334 	andeq	r7, r0, r4, lsr r3
    1b48:	07040300 	streq	r0, [r4, -r0, lsl #6]
    1b4c:	0000005d 	andeq	r0, r0, sp, asr r0
    1b50:	58070803 	stmdapl	r7, {r0, r1, fp}
    1b54:	03000000 	movweq	r0, #0
    1b58:	024a0704 	subeq	r0, sl, #4, 14	; 0x100000
    1b5c:	01030000 	mrseq	r0, (UNDEF: 3)
    1b60:	0002e208 	andeq	lr, r2, r8, lsl #4
    1b64:	95040500 	strls	r0, [r4, #-1280]	; 0x500
    1b68:	06000000 	streq	r0, [r0], -r0
    1b6c:	00000088 	andeq	r0, r0, r8, lsl #1
    1b70:	0e030c07 	cdpeq	12, 0, cr0, cr3, cr7, {0}
    1b74:	000000d1 	ldrdeq	r0, [r0], -r1
    1b78:	00787408 	rsbseq	r7, r8, r8, lsl #8
    1b7c:	004f0f03 	subeq	r0, pc, r3, lsl #30
    1b80:	08000000 	stmdaeq	r0, {}	; <UNPREDICTABLE>
    1b84:	03007872 	movweq	r7, #2162	; 0x872
    1b88:	00004f0f 	andeq	r4, r0, pc, lsl #30
    1b8c:	71090100 	mrsvc	r0, (UNDEF: 25)
    1b90:	03000003 	movweq	r0, #3
    1b94:	00006810 	andeq	r6, r0, r0, lsl r8
    1b98:	05090400 	streq	r0, [r9, #-1024]	; 0x400
    1b9c:	03000005 	movweq	r0, #5
    1ba0:	00006811 	andeq	r6, r0, r1, lsl r8
    1ba4:	04000800 	streq	r0, [r0], #-2048	; 0x800
    1ba8:	000002cf 	andeq	r0, r0, pc, asr #5
    1bac:	009a1203 	addseq	r1, sl, r3, lsl #4
    1bb0:	010a0000 	mrseq	r0, (UNDEF: 10)
    1bb4:	00f71004 	rscseq	r1, r7, r4
    1bb8:	280b0000 	stmdacs	fp, {}	; <UNPREDICTABLE>
    1bbc:	01000007 	tsteq	r0, r7
    1bc0:	00071b0b 	andeq	r1, r7, fp, lsl #22
    1bc4:	0d0b0200 	sfmeq	f0, 4, [fp, #-0]
    1bc8:	03000007 	movweq	r0, #7
    1bcc:	073d0400 	ldreq	r0, [sp, -r0, lsl #8]!
    1bd0:	10040000 	andne	r0, r4, r0
    1bd4:	000000dc 	ldrdeq	r0, [r0], -ip
    1bd8:	14041407 	strne	r1, [r4], #-1031	; 0x407
    1bdc:	0000012f 	andeq	r0, r0, pc, lsr #2
    1be0:	00078f09 	andeq	r8, r7, r9, lsl #30
    1be4:	2c150400 	cfldrscs	mvf0, [r5], {-0}
    1be8:	00000000 	andeq	r0, r0, r0
    1bec:	00078309 	andeq	r8, r7, r9, lsl #6
    1bf0:	f7180400 			; <UNDEFINED> instruction: 0xf7180400
    1bf4:	04000000 	streq	r0, [r0], #-0
    1bf8:	00017e09 	andeq	r7, r1, r9, lsl #28
    1bfc:	d11b0400 	tstle	fp, r0, lsl #8
    1c00:	08000000 	stmdaeq	r0, {}	; <UNPREDICTABLE>
    1c04:	07480400 	strbeq	r0, [r8, -r0, lsl #8]
    1c08:	20040000 	andcs	r0, r4, r0
    1c0c:	00000102 	andeq	r0, r0, r2, lsl #2
    1c10:	0006c70c 	andeq	ip, r6, ip, lsl #14
    1c14:	25060100 	strcs	r0, [r6, #-256]	; 0x100
    1c18:	a8000000 	stmdage	r0, {}	; <UNPREDICTABLE>
    1c1c:	2000008c 	andcs	r0, r0, ip, lsl #1
    1c20:	01000000 	mrseq	r0, (UNDEF: 0)
    1c24:	00017a9c 	muleq	r1, ip, sl
    1c28:	00630d00 	rsbeq	r0, r3, r0, lsl #26
    1c2c:	00250601 	eoreq	r0, r5, r1, lsl #12
    1c30:	0b9b0000 	bleq	fe6c1c38 <__bss_end__+0xfe6b3340>
    1c34:	bc0e0000 	stclt	0, cr0, [lr], {-0}
    1c38:	8000008c 	andhi	r0, r0, ip, lsl #1
    1c3c:	0f000002 	svceq	0x00000002
    1c40:	74025101 	strvc	r5, [r2], #-257	; 0x101
    1c44:	50010f00 	andpl	r0, r1, r0, lsl #30
    1c48:	e8e40305 	stmia	r4!, {r0, r2, r8, r9}^
    1c4c:	00000000 	andeq	r0, r0, r0
    1c50:	00073510 	andeq	r3, r7, r0, lsl r5
    1c54:	c80b0100 	stmdagt	fp, {r8}
    1c58:	9000008c 	andls	r0, r0, ip, lsl #1
    1c5c:	01000000 	mrseq	r0, (UNDEF: 0)
    1c60:	00022d9c 	muleq	r2, ip, sp
    1c64:	06db1100 	ldrbeq	r1, [fp], r0, lsl #2
    1c68:	0c010000 	stceq	0, cr0, [r1], {-0}
    1c6c:	00000025 	andeq	r0, r0, r5, lsr #32
    1c70:	00076311 	andeq	r6, r7, r1, lsl r3
    1c74:	250c0100 	strcs	r0, [ip, #-256]	; 0x100
    1c78:	12000000 	andne	r0, r0, #0
    1c7c:	00000025 	andeq	r0, r0, r5, lsr #32
    1c80:	01b20d01 			; <UNDEFINED> instruction: 0x01b20d01
    1c84:	00130000 	andseq	r0, r3, r0
    1c88:	73736214 	cmnvc	r3, #20, 4	; 0x40000001
    1c8c:	2d0f0100 	stfcss	f0, [pc, #-0]	; 1c94 <_start-0x636c>
    1c90:	b9000002 	stmdblt	r0, {r1}
    1c94:	1500000b 	strne	r0, [r0, #-11]
    1c98:	000006e9 	andeq	r0, r0, r9, ror #13
    1c9c:	022d1001 	eoreq	r1, sp, #1
    1ca0:	63140000 	tstvs	r4, #0
    1ca4:	17010062 	strne	r0, [r1, -r2, rrx]
    1ca8:	00000233 	andeq	r0, r0, r3, lsr r2
    1cac:	00000bd9 	ldrdeq	r0, [r0], -r9
    1cb0:	008cf016 	addeq	pc, ip, r6, lsl r0	; <UNPREDICTABLE>
    1cb4:	00029c00 	andeq	r9, r2, r0, lsl #24
    1cb8:	8d2c1700 	stchi	7, cr1, [ip, #-0]
    1cbc:	02a70000 	adceq	r0, r7, #0
    1cc0:	02030000 	andeq	r0, r3, #0
    1cc4:	010f0000 	mrseq	r0, CPSR
    1cc8:	f4030551 	vst3.16	{d0,d2,d4}, [r3 :64], r1
    1ccc:	0f0000a1 	svceq	0x000000a1
    1cd0:	03055001 	movweq	r5, #20481	; 0x5001
    1cd4:	0000e8e4 	andeq	lr, r0, r4, ror #17
    1cd8:	8d341700 	ldchi	7, cr1, [r4, #-0]
    1cdc:	02c20000 	sbceq	r0, r2, #0
    1ce0:	021a0000 	andseq	r0, sl, #0
    1ce4:	010f0000 	mrseq	r0, CPSR
    1ce8:	18030550 	stmdane	r3, {r4, r6, r8, sl}
    1cec:	000000a2 	andeq	r0, r0, r2, lsr #1
    1cf0:	008d3816 	addeq	r3, sp, r6, lsl r8
    1cf4:	0002d800 	andeq	sp, r2, r0, lsl #16
    1cf8:	8d3c1600 	ldchi	6, cr1, [ip, #-0]
    1cfc:	02e50000 	rsceq	r0, r5, #0
    1d00:	05000000 	streq	r0, [r0, #-0]
    1d04:	00002504 	andeq	r2, r0, r4, lsl #10
    1d08:	2f040500 	svccs	0x00040500
    1d0c:	18000001 	stmdane	r0, {r0}
    1d10:	000006f1 	strdeq	r0, [r0], -r1
    1d14:	00d10501 	sbcseq	r0, r1, r1, lsl #10
    1d18:	03050000 	movweq	r0, #20480	; 0x5000
    1d1c:	0000e8e4 	andeq	lr, r0, r4, ror #17
    1d20:	00002519 	andeq	r2, r0, r9, lsl r5
    1d24:	00025900 	andeq	r5, r2, r0, lsl #18
    1d28:	00251a00 	eoreq	r1, r5, r0, lsl #20
    1d2c:	11000000 	mrsne	r0, (UNDEF: 0)
    1d30:	000005f8 	strdeq	r0, [r0], -r8
    1d34:	02641d05 	rsbeq	r1, r4, #320	; 0x140
    1d38:	04050000 	streq	r0, [r5], #-0
    1d3c:	0000024a 	andeq	r0, r0, sl, asr #4
    1d40:	0006db11 	andeq	sp, r6, r1, lsl fp
    1d44:	250c0100 	strcs	r0, [ip, #-256]	; 0x100
    1d48:	11000000 	mrsne	r0, (UNDEF: 0)
    1d4c:	00000763 	andeq	r0, r0, r3, ror #14
    1d50:	00250c01 	eoreq	r0, r5, r1, lsl #24
    1d54:	eb1b0000 	bl	6c1d5c <__bss_end__+0x6b3464>
    1d58:	03000001 	movweq	r0, #1
    1d5c:	00029644 	andeq	r9, r2, r4, asr #12
    1d60:	02961a00 	addseq	r1, r6, #0, 20
    1d64:	5a1a0000 	bpl	681d6c <__bss_end__+0x673474>
    1d68:	00000000 	andeq	r0, r0, r0
    1d6c:	00d10405 	sbcseq	r0, r1, r5, lsl #8
    1d70:	561c0000 	ldrpl	r0, [ip], -r0
    1d74:	04000007 	streq	r0, [r0], #-7
    1d78:	0002332a 	andeq	r3, r2, sl, lsr #6
    1d7c:	06fe1d00 	ldrbteq	r1, [lr], r0, lsl #26
    1d80:	15030000 	strne	r0, [r3, #-0]
    1d84:	00000025 	andeq	r0, r0, r5, lsr #32
    1d88:	000002c2 	andeq	r0, r0, r2, asr #5
    1d8c:	0002961a 	andeq	r9, r2, sl, lsl r6
    1d90:	008f1a00 	addeq	r1, pc, r0, lsl #20
    1d94:	00130000 	andseq	r0, r3, r0
    1d98:	0005cc1d 	andeq	ip, r5, sp, lsl ip
    1d9c:	25290500 	strcs	r0, [r9, #-1280]!	; 0x500
    1da0:	d8000000 	stmdale	r0, {}	; <UNPREDICTABLE>
    1da4:	1a000002 	bne	1db4 <_start-0x624c>
    1da8:	0000008f 	andeq	r0, r0, pc, lsl #1
    1dac:	25120013 	ldrcs	r0, [r2, #-19]
    1db0:	01000000 	mrseq	r0, (UNDEF: 0)
    1db4:	0002e50d 	andeq	lr, r2, sp, lsl #10
    1db8:	1e001300 	cdpne	3, 0, cr1, cr0, cr0, {0}
    1dbc:	00000699 	muleq	r0, r9, r6
    1dc0:	ad006305 	stcge	3, cr6, [r0, #-20]	; 0xffffffec
    1dc4:	04000001 	streq	r0, [r0], #-1
    1dc8:	000acc00 	andeq	ip, sl, r0, lsl #24
    1dcc:	76010400 	strvc	r0, [r1], -r0, lsl #8
    1dd0:	01000003 	tsteq	r0, r3
    1dd4:	000007af 	andeq	r0, r0, pc, lsr #15
    1dd8:	00000568 	andeq	r0, r0, r8, ror #10
    1ddc:	00000090 	muleq	r0, r0, r0
    1de0:	00000000 	andeq	r0, r0, r0
    1de4:	00000ab1 			; <UNDEFINED> instruction: 0x00000ab1
    1de8:	69050402 	stmdbvs	r5, {r1, sl}
    1dec:	0300746e 	movweq	r7, #1134	; 0x46e
    1df0:	00620704 	rsbeq	r0, r2, r4, lsl #14
    1df4:	01030000 	mrseq	r0, (UNDEF: 3)
    1df8:	0002db06 	andeq	sp, r2, r6, lsl #22
    1dfc:	05020300 	streq	r0, [r2, #-768]	; 0x300
    1e00:	000002ef 	andeq	r0, r0, pc, ror #5
    1e04:	93050403 	movwls	r0, #21507	; 0x5403
    1e08:	03000000 	movweq	r0, #0
    1e0c:	008e0508 	addeq	r0, lr, r8, lsl #10
    1e10:	01030000 	mrseq	r0, (UNDEF: 3)
    1e14:	0002d908 	andeq	sp, r2, r8, lsl #18
    1e18:	07020300 	streq	r0, [r2, -r0, lsl #6]
    1e1c:	000001bb 			; <UNDEFINED> instruction: 0x000001bb
    1e20:	5d070403 	cfstrspl	mvf0, [r7, #-12]
    1e24:	03000000 	movweq	r0, #0
    1e28:	00580708 	subseq	r0, r8, r8, lsl #14
    1e2c:	04030000 	streq	r0, [r3], #-0
    1e30:	00024a07 	andeq	r4, r2, r7, lsl #20
    1e34:	08010300 	stmdaeq	r1, {r8, r9}
    1e38:	000002e2 	andeq	r0, r0, r2, ror #5
    1e3c:	00079504 	andeq	r9, r7, r4, lsl #10
    1e40:	250e0100 	strcs	r0, [lr, #-256]	; 0x100
    1e44:	58000000 	stmdapl	r0, {}	; <UNPREDICTABLE>
    1e48:	1800008d 	stmdane	r0, {r0, r2, r3, r7}
    1e4c:	01000000 	mrseq	r0, (UNDEF: 0)
    1e50:	0000a29c 	muleq	r0, ip, r2
    1e54:	08010500 	stmdaeq	r1, {r8, sl}
    1e58:	0f010000 	svceq	0x00010000
    1e5c:	0000002c 	andeq	r0, r0, ip, lsr #32
    1e60:	00000bf9 	strdeq	r0, [r0], -r9
    1e64:	07e40600 	strbeq	r0, [r4, r0, lsl #12]!
    1e68:	17010000 	strne	r0, [r1, -r0]
    1e6c:	00008d70 	andeq	r8, r0, r0, ror sp
    1e70:	00000014 	andeq	r0, r0, r4, lsl r0
    1e74:	00c79c01 	sbceq	r9, r7, r1, lsl #24
    1e78:	01050000 	mrseq	r0, (UNDEF: 5)
    1e7c:	01000008 	tsteq	r0, r8
    1e80:	00002c18 	andeq	r2, r0, r8, lsl ip
    1e84:	000c1800 	andeq	r1, ip, r0, lsl #16
    1e88:	99060000 	stmdbls	r6, {}	; <UNPREDICTABLE>
    1e8c:	01000006 	tsteq	r0, r6
    1e90:	008d841f 	addeq	r8, sp, pc, lsl r4
    1e94:	00004800 	andeq	r4, r0, r0, lsl #16
    1e98:	779c0100 	ldrvc	r0, [ip, r0, lsl #2]
    1e9c:	07000001 	streq	r0, [r0, -r1]
    1ea0:	000007f9 	strdeq	r0, [r0], -r9
    1ea4:	01772a01 	cmneq	r7, r1, lsl #20
    1ea8:	001c0000 	andseq	r0, ip, r0
    1eac:	dc072010 	stcle	0, cr2, [r7], {16}
    1eb0:	01000007 	tsteq	r0, r7
    1eb4:	0001772b 	andeq	r7, r1, fp, lsr #14
    1eb8:	10002400 	andne	r2, r0, r0, lsl #8
    1ebc:	07a30720 	streq	r0, [r3, r0, lsr #14]!
    1ec0:	2c010000 	stccs	0, cr0, [r1], {-0}
    1ec4:	00000177 	andeq	r0, r0, r7, ror r1
    1ec8:	5a000000 	bpl	1ed0 <_start-0x6130>
    1ecc:	0007c308 	andeq	ip, r7, r8, lsl #6
    1ed0:	772d0100 	strvc	r0, [sp, -r0, lsl #2]!
    1ed4:	20000001 	andcs	r0, r0, r1
    1ed8:	008d8c09 	addeq	r8, sp, r9, lsl #24
    1edc:	00007900 	andeq	r7, r0, r0, lsl #18
    1ee0:	8d980900 	ldchi	9, cr0, [r8]
    1ee4:	00a20000 	adceq	r0, r2, r0
    1ee8:	a00a0000 	andge	r0, sl, r0
    1eec:	8d00008d 	stchi	0, cr0, [r0, #-564]	; 0xfffffdcc
    1ef0:	3a000001 	bcc	1efc <_start-0x6104>
    1ef4:	0b000001 	bleq	1f00 <_start-0x6100>
    1ef8:	4e015001 	cdpmi	0, 0, cr5, cr1, cr1, {0}
    1efc:	8dac0a00 	stchi	10, cr0, [ip]
    1f00:	019e0000 	orrseq	r0, lr, r0
    1f04:	015a0000 	cmpeq	sl, r0
    1f08:	010b0000 	mrseq	r0, (UNDEF: 11)
    1f0c:	010c0551 	tsteq	ip, r1, asr r5
    1f10:	0b5a0000 	bleq	1681f18 <__bss_end__+0x1673620>
    1f14:	0c055001 	stceq	0, cr5, [r5], {1}
    1f18:	20100024 	andscs	r0, r0, r4, lsr #32
    1f1c:	8db80c00 	ldchi	12, cr0, [r8]
    1f20:	019e0000 	orrseq	r0, lr, r0
    1f24:	010b0000 	mrseq	r0, (UNDEF: 11)
    1f28:	200c0551 	andcs	r0, ip, r1, asr r5
    1f2c:	0b5a0000 	bleq	1681f34 <__bss_end__+0x167363c>
    1f30:	0c055001 	stceq	0, cr5, [r5], {1}
    1f34:	2010001c 	andscs	r0, r0, ip, lsl r0
    1f38:	250d0000 	strcs	r0, [sp, #-0]
    1f3c:	08000000 	stmdaeq	r0, {}	; <UNPREDICTABLE>
    1f40:	00000798 	muleq	r0, r8, r7
    1f44:	01880d01 	orreq	r0, r8, r1, lsl #26
    1f48:	0d100000 	ldceq	0, cr0, [r0, #-0]
    1f4c:	0000002c 	andeq	r0, r0, ip, lsr #32
    1f50:	0006be0e 	andeq	fp, r6, lr, lsl #28
    1f54:	9e500200 	cdpls	2, 5, cr0, cr0, cr0, {0}
    1f58:	0f000001 	svceq	0x00000001
    1f5c:	0000002c 	andeq	r0, r0, ip, lsr #32
    1f60:	07f31000 	ldrbeq	r1, [r3, r0]!
    1f64:	99020000 	stmdbls	r2, {}	; <UNPREDICTABLE>
    1f68:	00002c0f 	andeq	r2, r0, pc, lsl #24
    1f6c:	002c0f00 	eoreq	r0, ip, r0, lsl #30
    1f70:	00000000 	andeq	r0, r0, r0
    1f74:	000001d8 	ldrdeq	r0, [r0], -r8
    1f78:	0bba0004 	bleq	fee81f90 <__bss_end__+0xfee73698>
    1f7c:	01040000 	mrseq	r0, (UNDEF: 4)
    1f80:	00000376 	andeq	r0, r0, r6, ror r3
    1f84:	00082301 	andeq	r2, r8, r1, lsl #6
    1f88:	00056800 	andeq	r6, r5, r0, lsl #16
    1f8c:	008dcc00 	addeq	ip, sp, r0, lsl #24
    1f90:	00008800 	andeq	r8, r0, r0, lsl #16
    1f94:	000b4e00 	andeq	r4, fp, r0, lsl #28
    1f98:	05040200 	streq	r0, [r4, #-512]	; 0x200
    1f9c:	00746e69 	rsbseq	r6, r4, r9, ror #28
    1fa0:	62070403 	andvs	r0, r7, #50331648	; 0x3000000
    1fa4:	03000000 	movweq	r0, #0
    1fa8:	02db0601 	sbcseq	r0, fp, #1048576	; 0x100000
    1fac:	02030000 	andeq	r0, r3, #0
    1fb0:	0002ef05 	andeq	lr, r2, r5, lsl #30
    1fb4:	05040300 	streq	r0, [r4, #-768]	; 0x300
    1fb8:	00000093 	muleq	r0, r3, r0
    1fbc:	8e050803 	cdphi	8, 0, cr0, cr5, cr3, {0}
    1fc0:	03000000 	movweq	r0, #0
    1fc4:	02d90801 	sbcseq	r0, r9, #65536	; 0x10000
    1fc8:	02030000 	andeq	r0, r3, #0
    1fcc:	0001bb07 	andeq	fp, r1, r7, lsl #22
    1fd0:	07040300 	streq	r0, [r4, -r0, lsl #6]
    1fd4:	0000005d 	andeq	r0, r0, sp, asr r0
    1fd8:	58070803 	stmdapl	r7, {r0, r1, fp}
    1fdc:	03000000 	movweq	r0, #0
    1fe0:	024a0704 	subeq	r0, sl, #4, 14	; 0x100000
    1fe4:	01030000 	mrseq	r0, (UNDEF: 3)
    1fe8:	0002e208 	andeq	lr, r2, r8, lsl #4
    1fec:	08420400 	stmdaeq	r2, {sl}^
    1ff0:	05010000 	streq	r0, [r1, #-0]
    1ff4:	00008dcc 	andeq	r8, r0, ip, asr #27
    1ff8:	0000001c 	andeq	r0, r0, ip, lsl r0
    1ffc:	009e9c01 	addseq	r9, lr, r1, lsl #24
    2000:	3c050000 	stccc	0, cr0, [r5], {-0}
    2004:	01000008 	tsteq	r0, r8
    2008:	00002c05 	andeq	r2, r0, r5, lsl #24
    200c:	000c4200 	andeq	r4, ip, r0, lsl #4
    2010:	06060000 	streq	r0, [r6], -r0
    2014:	01000008 	tsteq	r0, r8
    2018:	00002c0b 	andeq	r2, r0, fp, lsl #24
    201c:	008de800 	addeq	lr, sp, r0, lsl #16
    2020:	00001400 	andeq	r1, r0, r0, lsl #8
    2024:	cb9c0100 	blgt	fe70242c <__bss_end__+0xfe6f3b34>
    2028:	07000000 	streq	r0, [r0, -r0]
    202c:	00008df4 	strdeq	r8, [r0], -r4
    2030:	000001ca 	andeq	r0, r0, sl, asr #3
    2034:	05500108 	ldrbeq	r0, [r0, #-264]	; 0x108
    2038:	0030040c 	eorseq	r0, r0, ip, lsl #8
    203c:	06000020 	streq	r0, [r0], -r0, lsr #32
    2040:	00000858 	andeq	r0, r0, r8, asr r8
    2044:	002c1001 	eoreq	r1, ip, r1
    2048:	8dfc0000 	ldclhi	0, cr0, [ip]
    204c:	000c0000 	andeq	r0, ip, r0
    2050:	9c010000 	stcls	0, cr0, [r1], {-0}
    2054:	000000f9 	strdeq	r0, [r0], -r9
    2058:	01007509 	tsteq	r0, r9, lsl #10
    205c:	00002c14 	andeq	r2, r0, r4, lsl ip
    2060:	0a500100 	beq	1402468 <__bss_end__+0x13f3b70>
    2064:	00008e04 	andeq	r8, r0, r4, lsl #28
    2068:	0000009e 	muleq	r0, lr, r0
    206c:	084f0400 	stmdaeq	pc, {sl}^	; <UNPREDICTABLE>
    2070:	19010000 	stmdbne	r1, {}	; <UNPREDICTABLE>
    2074:	00008e08 	andeq	r8, r0, r8, lsl #28
    2078:	00000024 	andeq	r0, r0, r4, lsr #32
    207c:	01579c01 	cmpeq	r7, r1, lsl #24
    2080:	750b0000 	strvc	r0, [fp, #-0]
    2084:	19010073 	stmdbne	r1, {r0, r1, r4, r5, r6}
    2088:	0000002c 	andeq	r0, r0, ip, lsr #32
    208c:	00000c76 	andeq	r0, r0, r6, ror ip
    2090:	00627209 	rsbeq	r7, r2, r9, lsl #4
    2094:	002c1a01 	eoreq	r1, ip, r1, lsl #20
    2098:	54010000 	strpl	r0, [r1], #-0
    209c:	008e180c 	addeq	r1, lr, ip, lsl #16
    20a0:	00001000 	andeq	r1, r0, r0
    20a4:	00014d00 	andeq	r4, r1, r0, lsl #26
    20a8:	61720d00 	cmnvs	r2, r0, lsl #26
    20ac:	2c1c0100 	ldfcss	f0, [ip], {-0}
    20b0:	94000000 	strls	r0, [r0], #-0
    20b4:	0a00000c 	beq	20ec <_start-0x5f14>
    20b8:	00008e1c 	andeq	r8, r0, ip, lsl lr
    20bc:	000000cb 	andeq	r0, r0, fp, asr #1
    20c0:	8e140a00 	vnmlshi.f32	s0, s8, s0
    20c4:	00cb0000 	sbceq	r0, fp, r0
    20c8:	04000000 	streq	r0, [r0], #-0
    20cc:	000006be 			; <UNDEFINED> instruction: 0x000006be
    20d0:	8e2c2201 	cdphi	2, 2, cr2, cr12, cr1, {0}
    20d4:	00140000 	andseq	r0, r4, r0
    20d8:	9c010000 	stcls	0, cr0, [r1], {-0}
    20dc:	00000190 	muleq	r0, r0, r1
    20e0:	00736d0b 	rsbseq	r6, r3, fp, lsl #26
    20e4:	002c2201 	eoreq	r2, ip, r1, lsl #4
    20e8:	0ca70000 	stceq	0, cr0, [r7]
    20ec:	3c070000 	stccc	0, cr0, [r7], {-0}
    20f0:	f900008e 			; <UNDEFINED> instruction: 0xf900008e
    20f4:	08000000 	stmdaeq	r0, {}	; <UNPREDICTABLE>
    20f8:	f3075001 	vhadd.u8	d5, d7, d1
    20fc:	e80a5001 	stmda	sl, {r0, ip, lr}
    2100:	00001e03 	andeq	r1, r0, r3, lsl #28
    2104:	00081904 	andeq	r1, r8, r4, lsl #18
    2108:	40250100 	eormi	r0, r5, r0, lsl #2
    210c:	1400008e 	strne	r0, [r0], #-142	; 0x8e
    2110:	01000000 	mrseq	r0, (UNDEF: 0)
    2114:	0001ca9c 	muleq	r1, ip, sl
    2118:	65730b00 	ldrbvs	r0, [r3, #-2816]!	; 0xb00
    211c:	25010063 	strcs	r0, [r1, #-99]	; 0x63
    2120:	0000002c 	andeq	r0, r0, ip, lsr #32
    2124:	00000cc8 	andeq	r0, r0, r8, asr #25
    2128:	008e5007 	addeq	r5, lr, r7
    212c:	00015700 	andeq	r5, r1, r0, lsl #14
    2130:	50010800 	andpl	r0, r1, r0, lsl #16
    2134:	5001f307 	andpl	pc, r1, r7, lsl #6
    2138:	1e03e80a 	cdpne	8, 0, cr14, cr3, cr10, {0}
    213c:	360e0000 	strcc	r0, [lr], -r0
    2140:	02000008 	andeq	r0, r0, #8
    2144:	00002ca5 	andeq	r2, r0, r5, lsr #25
    2148:	002c0f00 	eoreq	r0, ip, r0, lsl #30
    214c:	00000000 	andeq	r0, r0, r0
    2150:	000008cf 	andeq	r0, r0, pc, asr #17
    2154:	0c9d0004 	ldceq	0, cr0, [sp], {4}
    2158:	01040000 	mrseq	r0, (UNDEF: 4)
    215c:	00000376 	andeq	r0, r0, r6, ror r3
    2160:	0008b101 	andeq	fp, r8, r1, lsl #2
    2164:	00056800 	andeq	r6, r5, r0, lsl #16
    2168:	008e5400 	addeq	r5, lr, r0, lsl #8
    216c:	0005bc00 	andeq	fp, r5, r0, lsl #24
    2170:	000bf500 	andeq	pc, fp, r0, lsl #10
    2174:	07080200 	streq	r0, [r8, -r0, lsl #4]
    2178:	00000058 	andeq	r0, r0, r8, asr r0
    217c:	62070402 	andvs	r0, r7, #33554432	; 0x2000000
    2180:	02000000 	andeq	r0, r0, #0
    2184:	02db0601 	sbcseq	r0, fp, #1048576	; 0x100000
    2188:	02020000 	andeq	r0, r2, #0
    218c:	0002ef05 	andeq	lr, r2, r5, lsl #30
    2190:	05040200 	streq	r0, [r4, #-512]	; 0x200
    2194:	00000093 	muleq	r0, r3, r0
    2198:	8e050802 	cdphi	8, 0, cr0, cr5, cr2, {0}
    219c:	02000000 	andeq	r0, r0, #0
    21a0:	02d90801 	sbcseq	r0, r9, #65536	; 0x10000
    21a4:	02020000 	andeq	r0, r2, #0
    21a8:	0001bb07 	andeq	fp, r1, r7, lsl #22
    21ac:	07040200 	streq	r0, [r4, -r0, lsl #4]
    21b0:	0000005d 	andeq	r0, r0, sp, asr r0
    21b4:	69050403 	stmdbvs	r5, {r0, r1, sl}
    21b8:	0200746e 	andeq	r7, r0, #1845493760	; 0x6e000000
    21bc:	024a0704 	subeq	r0, sl, #4, 14	; 0x100000
    21c0:	01020000 	mrseq	r0, (UNDEF: 2)
    21c4:	0002e208 	andeq	lr, r2, r8, lsl #4
    21c8:	02010400 	andeq	r0, r1, #0, 8
    21cc:	0000b20c 	andeq	fp, r0, ip, lsl #4
    21d0:	00750500 	rsbseq	r0, r5, r0, lsl #10
    21d4:	05000000 	streq	r0, [r0, #-0]
    21d8:	0000045f 	andeq	r0, r0, pc, asr r4
    21dc:	049c0501 	ldreq	r0, [ip], #1281	; 0x501
    21e0:	05040000 	streq	r0, [r4, #-0]
    21e4:	000004ab 	andeq	r0, r0, fp, lsr #9
    21e8:	04ba0505 	ldrteq	r0, [sl], #1285	; 0x505
    21ec:	05060000 	streq	r0, [r6, #-0]
    21f0:	000004c9 	andeq	r0, r0, r9, asr #9
    21f4:	04d80507 	ldrbeq	r0, [r8], #1287	; 0x507
    21f8:	05030000 	streq	r0, [r3, #-0]
    21fc:	000004e7 	andeq	r0, r0, r7, ror #9
    2200:	7e060002 	cdpvc	0, 0, cr0, cr6, cr2, {0}
    2204:	02000004 	andeq	r0, r0, #4
    2208:	00007915 	andeq	r7, r0, r5, lsl r9
    220c:	09e30700 	stmibeq	r3!, {r8, r9, sl}^
    2210:	3f010000 	svccc	0x00010000
    2214:	00008e54 	andeq	r8, r0, r4, asr lr
    2218:	000000d4 	ldrdeq	r0, [r0], -r4
    221c:	01339c01 	teqeq	r3, r1, lsl #24
    2220:	70080000 	andvc	r0, r8, r0
    2224:	01006e69 	tsteq	r0, r9, ror #28
    2228:	00002c3f 	andeq	r2, r0, pc, lsr ip
    222c:	000ce900 	andeq	lr, ip, r0, lsl #18
    2230:	08ed0900 	stmiaeq	sp!, {r8, fp}^
    2234:	47010000 	strmi	r0, [r1, -r0]
    2238:	00000133 	andeq	r0, r0, r3, lsr r1
    223c:	00000d07 	andeq	r0, r0, r7, lsl #26
    2240:	000a0909 	andeq	r0, sl, r9, lsl #18
    2244:	2c490100 	stfcse	f0, [r9], {-0}
    2248:	5c000000 	stcpl	0, cr0, [r0], {-0}
    224c:	0900000d 	stmdbeq	r0, {r0, r2, r3}
    2250:	0000098a 	andeq	r0, r0, sl, lsl #19
    2254:	002c5701 	eoreq	r5, ip, r1, lsl #14
    2258:	0f280000 	svceq	0x00280000
    225c:	e80a0000 	stmda	sl, {}	; <UNPREDICTABLE>
    2260:	8e00008e 	cdphi	0, 0, cr0, cr0, cr14, {4}
    2264:	22000008 	andcs	r0, r0, #8
    2268:	0b000001 	bleq	2274 <_start-0x5d8c>
    226c:	75025001 	strvc	r5, [r2, #-1]
    2270:	1c0c0000 	stcne	0, cr0, [ip], {-0}
    2274:	af00008f 	svcge	0x0000008f
    2278:	0b000008 	bleq	22a0 <_start-0x5d60>
    227c:	75025001 	strvc	r5, [r2, #-1]
    2280:	0d000000 	stceq	0, cr0, [r0, #-0]
    2284:	00013904 	andeq	r3, r1, r4, lsl #18
    2288:	002c0e00 	eoreq	r0, ip, r0, lsl #28
    228c:	c90f0000 	stmdbgt	pc, {}	; <UNPREDICTABLE>
    2290:	01000009 	tsteq	r0, r9
    2294:	016c0360 	cmneq	ip, r0, ror #6
    2298:	70100000 	andsvc	r0, r0, r0
    229c:	01006e69 	tsteq	r0, r9, ror #28
    22a0:	00002c60 	andeq	r2, r0, r0, ror #24
    22a4:	08ed1100 	stmiaeq	sp!, {r8, ip}^
    22a8:	67010000 	strvs	r0, [r1, -r0]
    22ac:	00000133 	andeq	r0, r0, r3, lsr r1
    22b0:	00098a11 	andeq	r8, r9, r1, lsl sl
    22b4:	2c680100 	stfcse	f0, [r8], #-0
    22b8:	00000000 	andeq	r0, r0, r0
    22bc:	00013e12 	andeq	r3, r1, r2, lsl lr
    22c0:	008f2800 	addeq	r2, pc, r0, lsl #16
    22c4:	00003800 	andeq	r3, r0, r0, lsl #16
    22c8:	b09c0100 	addslt	r0, ip, r0, lsl #2
    22cc:	13000001 	movwne	r0, #1
    22d0:	0000014a 	andeq	r0, r0, sl, asr #2
    22d4:	00000f58 	andeq	r0, r0, r8, asr pc
    22d8:	00015514 	andeq	r5, r1, r4, lsl r5
    22dc:	000f7900 	andeq	r7, pc, r0, lsl #18
    22e0:	01601400 	cmneq	r0, r0, lsl #8
    22e4:	0faf0000 	svceq	0x00af0000
    22e8:	580c0000 	stmdapl	ip, {}	; <UNPREDICTABLE>
    22ec:	af00008f 	svcge	0x0000008f
    22f0:	0b000008 	bleq	2318 <_start-0x5ce8>
    22f4:	31075101 	tstcc	r7, r1, lsl #2
    22f8:	4f5001f3 	svcmi	0x005001f3
    22fc:	0000241a 	andeq	r2, r0, sl, lsl r4
    2300:	0008a40f 	andeq	sl, r8, pc, lsl #8
    2304:	037b0100 	cmneq	fp, #0, 2
    2308:	000001de 	ldrdeq	r0, [r0], -lr
    230c:	6e697010 	mcrvs	0, 3, r7, cr9, cr0, {0}
    2310:	2c7b0100 	ldfcse	f0, [fp], #-0
    2314:	11000000 	mrsne	r0, (UNDEF: 0)
    2318:	000008ed 	andeq	r0, r0, sp, ror #17
    231c:	01338101 	teqeq	r3, r1, lsl #2
    2320:	8a110000 	bhi	442328 <__bss_end__+0x433a30>
    2324:	01000009 	tsteq	r0, r9
    2328:	00002c82 	andeq	r2, r0, r2, lsl #25
    232c:	b0120000 	andslt	r0, r2, r0
    2330:	60000001 	andvs	r0, r0, r1
    2334:	3800008f 	stmdacc	r0, {r0, r1, r2, r3, r7}
    2338:	01000000 	mrseq	r0, (UNDEF: 0)
    233c:	0002229c 	muleq	r2, ip, r2
    2340:	01bc1300 			; <UNDEFINED> instruction: 0x01bc1300
    2344:	0fef0000 	svceq	0x00ef0000
    2348:	c7140000 	ldrgt	r0, [r4, -r0]
    234c:	10000001 	andne	r0, r0, r1
    2350:	14000010 	strne	r0, [r0], #-16
    2354:	000001d2 	ldrdeq	r0, [r0], -r2
    2358:	00001046 	andeq	r1, r0, r6, asr #32
    235c:	008f900c 	addeq	r9, pc, ip
    2360:	0008af00 	andeq	sl, r8, r0, lsl #30
    2364:	51010b00 	tstpl	r1, r0, lsl #22
    2368:	01f33107 	mvnseq	r3, r7, lsl #2
    236c:	241a4f50 	ldrcs	r4, [sl], #-3920	; 0xf50
    2370:	ac070000 	stcge	0, cr0, [r7], {-0}
    2374:	01000009 	tsteq	r0, r9
    2378:	008f9895 	umulleq	r9, pc, r5, r8	; <UNPREDICTABLE>
    237c:	0000cc00 	andeq	ip, r0, r0, lsl #24
    2380:	989c0100 	ldmls	ip, {r8}
    2384:	08000002 	stmdaeq	r0, {r1}
    2388:	006e6970 	rsbeq	r6, lr, r0, ror r9
    238c:	002c9501 	eoreq	r9, ip, r1, lsl #10
    2390:	10860000 	addne	r0, r6, r0
    2394:	ed090000 	stc	0, cr0, [r9, #-0]
    2398:	01000008 	tsteq	r0, r8
    239c:	0001339b 	muleq	r1, fp, r3
    23a0:	0010a400 	andseq	sl, r0, r0, lsl #8
    23a4:	0a090900 	beq	2447ac <__bss_end__+0x235eb4>
    23a8:	9d010000 	stcls	0, cr0, [r1, #-0]
    23ac:	0000002c 	andeq	r0, r0, ip, lsr #32
    23b0:	000010f9 	strdeq	r1, [r0], -r9
    23b4:	00098a09 	andeq	r8, r9, r9, lsl #20
    23b8:	2cab0100 	stfcss	f0, [fp]
    23bc:	c5000000 	strgt	r0, [r0, #-0]
    23c0:	0a000012 	beq	2410 <_start-0x5bf0>
    23c4:	0000902c 	andeq	r9, r0, ip, lsr #32
    23c8:	0000088e 	andeq	r0, r0, lr, lsl #17
    23cc:	00000287 	andeq	r0, r0, r7, lsl #5
    23d0:	0250010b 	subseq	r0, r0, #-1073741822	; 0xc0000002
    23d4:	0c000075 	stceq	0, cr0, [r0], {117}	; 0x75
    23d8:	00009058 	andeq	r9, r0, r8, asr r0
    23dc:	000008af 	andeq	r0, r0, pc, lsr #17
    23e0:	0250010b 	subseq	r0, r0, #-1073741822	; 0xc0000002
    23e4:	00000075 	andeq	r0, r0, r5, ror r0
    23e8:	00093015 	andeq	r3, r9, r5, lsl r0
    23ec:	64b30100 	ldrtvs	r0, [r3], #256	; 0x100
    23f0:	64000000 	strvs	r0, [r0], #-0
    23f4:	4c000090 	stcmi	0, cr0, [r0], {144}	; 0x90
    23f8:	01000000 	mrseq	r0, (UNDEF: 0)
    23fc:	0002e09c 	muleq	r2, ip, r0
    2400:	69700800 	ldmdbvs	r0!, {fp}^
    2404:	b301006e 	movwlt	r0, #4206	; 0x106e
    2408:	0000002c 	andeq	r0, r0, ip, lsr #32
    240c:	000012e3 	andeq	r1, r0, r3, ror #5
    2410:	01007616 	tsteq	r0, r6, lsl r6
    2414:	00002cb9 			; <UNDEFINED> instruction: 0x00002cb9
    2418:	00133b00 	andseq	r3, r3, r0, lsl #22
    241c:	90841700 	addls	r1, r4, r0, lsl #14
    2420:	088e0000 	stmeq	lr, {}	; <UNPREDICTABLE>
    2424:	94170000 	ldrls	r0, [r7], #-0
    2428:	8e000090 	mcrhi	0, 0, r0, cr0, cr0, {4}
    242c:	00000008 	andeq	r0, r0, r8
    2430:	00099207 	andeq	r9, r9, r7, lsl #4
    2434:	b0c50100 	sbclt	r0, r5, r0, lsl #2
    2438:	78000090 	stmdavc	r0, {r4, r7}
    243c:	01000000 	mrseq	r0, (UNDEF: 0)
    2440:	0003aa9c 	muleq	r3, ip, sl
    2444:	69700800 	ldmdbvs	r0!, {fp}^
    2448:	c501006e 	strgt	r0, [r1, #-110]	; 0x6e
    244c:	0000002c 	andeq	r0, r0, ip, lsr #32
    2450:	00001371 	andeq	r1, r0, r1, ror r3
    2454:	01007608 	tsteq	r0, r8, lsl #12
    2458:	00002cc5 	andeq	r2, r0, r5, asr #25
    245c:	0013ab00 	andseq	sl, r3, r0, lsl #22
    2460:	013e1800 	teqeq	lr, r0, lsl #16
    2464:	90c40000 	sbcls	r0, r4, r0
    2468:	00300000 	eorseq	r0, r0, r0
    246c:	cc010000 	stcgt	0, cr0, [r1], {-0}
    2470:	0000035f 	andeq	r0, r0, pc, asr r3
    2474:	00014a13 	andeq	r4, r1, r3, lsl sl
    2478:	0013e500 	andseq	lr, r3, r0, lsl #10
    247c:	90c41900 	sbcls	r1, r4, r0, lsl #18
    2480:	00300000 	eorseq	r0, r0, r0
    2484:	55140000 	ldrpl	r0, [r4, #-0]
    2488:	06000001 	streq	r0, [r0], -r1
    248c:	14000014 	strne	r0, [r0], #-20
    2490:	00000160 	andeq	r0, r0, r0, ror #2
    2494:	0000143c 	andeq	r1, r0, ip, lsr r4
    2498:	0090f00c 	addseq	pc, r0, ip
    249c:	0008af00 	andeq	sl, r8, r0, lsl #30
    24a0:	51010b00 	tstpl	r1, r0, lsl #22
    24a4:	01f33107 	mvnseq	r3, r7, lsl #2
    24a8:	241a4f50 	ldrcs	r4, [sl], #-3920	; 0xf50
    24ac:	1a000000 	bne	24b4 <_start-0x5b4c>
    24b0:	000001b0 			; <UNDEFINED> instruction: 0x000001b0
    24b4:	000090f4 	strdeq	r9, [r0], -r4
    24b8:	00000034 	andeq	r0, r0, r4, lsr r0
    24bc:	bc13ce01 	ldclt	14, cr12, [r3], {1}
    24c0:	7c000001 	stcvc	0, cr0, [r0], {1}
    24c4:	19000014 	stmdbne	r0, {r2, r4}
    24c8:	000090f4 	strdeq	r9, [r0], -r4
    24cc:	00000034 	andeq	r0, r0, r4, lsr r0
    24d0:	0001c714 	andeq	ip, r1, r4, lsl r7
    24d4:	00149d00 	andseq	r9, r4, r0, lsl #26
    24d8:	01d21400 	bicseq	r1, r2, r0, lsl #8
    24dc:	14d30000 	ldrbne	r0, [r3], #0
    24e0:	200c0000 	andcs	r0, ip, r0
    24e4:	af000091 	svcge	0x00000091
    24e8:	0b000008 	bleq	2510 <_start-0x5af0>
    24ec:	31075101 	tstcc	r7, r1, lsl #2
    24f0:	4f5001f3 	svcmi	0x005001f3
    24f4:	0000241a 	andeq	r2, r0, sl, lsl r4
    24f8:	53070000 	movwpl	r0, #28672	; 0x7000
    24fc:	01000002 	tsteq	r0, r2
    2500:	009128d1 			; <UNDEFINED> instruction: 0x009128d1
    2504:	0000d800 	andeq	sp, r0, r0, lsl #16
    2508:	2f9c0100 	svccs	0x009c0100
    250c:	08000004 	stmdaeq	r0, {r2}
    2510:	006e6970 	rsbeq	r6, lr, r0, ror r9
    2514:	002cd101 	eoreq	sp, ip, r1, lsl #2
    2518:	15130000 	ldrne	r0, [r3, #-0]
    251c:	a71b0000 	ldrge	r0, [fp, -r0]
    2520:	01000009 	tsteq	r0, r9
    2524:	0000b2d1 	ldrdeq	fp, [r0], -r1
    2528:	00153100 	andseq	r3, r5, r0, lsl #2
    252c:	08ed0900 	stmiaeq	sp!, {r8, fp}^
    2530:	d9010000 	stmdble	r1, {}	; <UNPREDICTABLE>
    2534:	00000133 	andeq	r0, r0, r3, lsr r1
    2538:	00001552 	andeq	r1, r0, r2, asr r5
    253c:	000a0909 	andeq	r0, sl, r9, lsl #18
    2540:	2cda0100 	ldfcse	f0, [sl], {0}
    2544:	a7000000 	strge	r0, [r0, -r0]
    2548:	09000015 	stmdbeq	r0, {r0, r2, r4}
    254c:	0000098a 	andeq	r0, r0, sl, lsl #19
    2550:	002ce801 	eoreq	lr, ip, r1, lsl #16
    2554:	17730000 	ldrbne	r0, [r3, -r0]!
    2558:	c40a0000 	strgt	r0, [sl], #-0
    255c:	8e000091 	mcrhi	0, 0, r0, cr0, cr1, {4}
    2560:	1e000008 	cdpne	0, 0, cr0, cr0, cr8, {0}
    2564:	0b000004 	bleq	257c <_start-0x5a84>
    2568:	76025001 	strvc	r5, [r2], -r1
    256c:	f40c0000 	vst4.8	{d0-d3}, [ip], r0
    2570:	af000091 	svcge	0x00000091
    2574:	0b000008 	bleq	259c <_start-0x5a64>
    2578:	76025001 	strvc	r5, [r2], -r1
    257c:	1c000000 	stcne	0, cr0, [r0], {-0}
    2580:	00000898 	muleq	r0, r8, r8
    2584:	64010501 	strvs	r0, [r1], #-1281	; 0x501
    2588:	00000000 	andeq	r0, r0, r0
    258c:	2c000092 	stccs	0, cr0, [r0], {146}	; 0x92
    2590:	01000000 	mrseq	r0, (UNDEF: 0)
    2594:	0004639c 	muleq	r4, ip, r3
    2598:	089b1d00 	ldmeq	fp, {r8, sl, fp, ip}
    259c:	05010000 	streq	r0, [r1, #-0]
    25a0:	00002c01 	andeq	r2, r0, r1, lsl #24
    25a4:	0017a400 	andseq	sl, r7, r0, lsl #8
    25a8:	92101700 	andsls	r1, r0, #0, 14
    25ac:	088e0000 	stmeq	lr, {}	; <UNPREDICTABLE>
    25b0:	1e000000 	cdpne	0, 0, cr0, cr0, cr0, {0}
    25b4:	0000093a 	andeq	r0, r0, sl, lsr r9
    25b8:	2c011401 	cfstrscs	mvf1, [r1], {1}
    25bc:	84000092 	strhi	r0, [r0], #-146	; 0x92
    25c0:	01000000 	mrseq	r0, (UNDEF: 0)
    25c4:	0005279c 	muleq	r5, ip, r7
    25c8:	69701f00 	ldmdbvs	r0!, {r8, r9, sl, fp, ip}^
    25cc:	1401006e 	strne	r0, [r1], #-110	; 0x6e
    25d0:	00002c01 	andeq	r2, r0, r1, lsl #24
    25d4:	0017c500 	andseq	ip, r7, r0, lsl #10
    25d8:	08bf2000 	ldmeq	pc!, {sp}	; <UNPREDICTABLE>
    25dc:	26010000 	strcs	r0, [r1], -r0
    25e0:	00002c01 	andeq	r2, r0, r1, lsl #24
    25e4:	0017f100 	andseq	pc, r7, r0, lsl #2
    25e8:	92482100 	subls	r2, r8, #0, 2
    25ec:	001c0000 	andseq	r0, ip, r0
    25f0:	04c90000 	strbeq	r0, [r9], #0
    25f4:	8a200000 	bhi	8025fc <__bss_end__+0x7f3d04>
    25f8:	01000009 	tsteq	r0, r9
    25fc:	002c011d 	eoreq	r0, ip, sp, lsl r1
    2600:	180f0000 	stmdane	pc, {}	; <UNPREDICTABLE>
    2604:	54170000 	ldrpl	r0, [r7], #-0
    2608:	8e000092 	mcrhi	0, 0, r0, cr0, cr2, {4}
    260c:	17000008 	strne	r0, [r0, -r8]
    2610:	00009264 	andeq	r9, r0, r4, ror #4
    2614:	000008af 	andeq	r0, r0, pc, lsr #17
    2618:	92682100 	rsbls	r2, r8, #0, 2
    261c:	00200000 	eoreq	r0, r0, r0
    2620:	04f90000 	ldrbteq	r0, [r9], #0
    2624:	8a200000 	bhi	80262c <__bss_end__+0x7f3d34>
    2628:	01000009 	tsteq	r0, r9
    262c:	002c0121 	eoreq	r0, ip, r1, lsr #2
    2630:	182d0000 	stmdane	sp!, {}	; <UNPREDICTABLE>
    2634:	74170000 	ldrvc	r0, [r7], #-0
    2638:	8e000092 	mcrhi	0, 0, r0, cr0, cr2, {4}
    263c:	17000008 	strne	r0, [r0, -r8]
    2640:	00009288 	andeq	r9, r0, r8, lsl #5
    2644:	000008af 	andeq	r0, r0, pc, lsr #17
    2648:	92401700 	subls	r1, r0, #0, 14
    264c:	08cb0000 	stmiaeq	fp, {}^	; <UNPREDICTABLE>
    2650:	8c170000 	ldchi	0, cr0, [r7], {-0}
    2654:	cb000092 	blgt	28a4 <_start-0x575c>
    2658:	17000008 	strne	r0, [r0, -r8]
    265c:	00009298 	muleq	r0, r8, r2
    2660:	0000088e 	andeq	r0, r0, lr, lsl #17
    2664:	0092a417 	addseq	sl, r2, r7, lsl r4
    2668:	0008af00 	andeq	sl, r8, r0, lsl #30
    266c:	92a81700 	adcls	r1, r8, #0, 14
    2670:	08cb0000 	stmiaeq	fp, {}^	; <UNPREDICTABLE>
    2674:	1e000000 	cdpne	0, 0, cr0, cr0, cr0, {0}
    2678:	000009f3 	strdeq	r0, [r0], -r3
    267c:	b0013101 	andlt	r3, r1, r1, lsl #2
    2680:	84000092 	strhi	r0, [r0], #-146	; 0x92
    2684:	01000000 	mrseq	r0, (UNDEF: 0)
    2688:	0005eb9c 	muleq	r5, ip, fp
    268c:	69701f00 	ldmdbvs	r0!, {r8, r9, sl, fp, ip}^
    2690:	3101006e 	tstcc	r1, lr, rrx
    2694:	00002c01 	andeq	r2, r0, r1, lsl #24
    2698:	00184b00 	andseq	r4, r8, r0, lsl #22
    269c:	08bf2000 	ldmeq	pc!, {sp}	; <UNPREDICTABLE>
    26a0:	42010000 	andmi	r0, r1, #0
    26a4:	00002c01 	andeq	r2, r0, r1, lsl #24
    26a8:	00187700 	andseq	r7, r8, r0, lsl #14
    26ac:	92cc2100 	sbcls	r2, ip, #0, 2
    26b0:	001c0000 	andseq	r0, ip, r0
    26b4:	058d0000 	streq	r0, [sp]
    26b8:	8a200000 	bhi	8026c0 <__bss_end__+0x7f3dc8>
    26bc:	01000009 	tsteq	r0, r9
    26c0:	002c0139 	eoreq	r0, ip, r9, lsr r1
    26c4:	18950000 	ldmne	r5, {}	; <UNPREDICTABLE>
    26c8:	d8170000 	ldmdale	r7, {}	; <UNPREDICTABLE>
    26cc:	8e000092 	mcrhi	0, 0, r0, cr0, cr2, {4}
    26d0:	17000008 	strne	r0, [r0, -r8]
    26d4:	000092e8 	andeq	r9, r0, r8, ror #5
    26d8:	000008af 	andeq	r0, r0, pc, lsr #17
    26dc:	92ec2100 	rscls	r2, ip, #0, 2
    26e0:	00200000 	eoreq	r0, r0, r0
    26e4:	05bd0000 	ldreq	r0, [sp, #0]!
    26e8:	8a200000 	bhi	8026f0 <__bss_end__+0x7f3df8>
    26ec:	01000009 	tsteq	r0, r9
    26f0:	002c013d 	eoreq	r0, ip, sp, lsr r1
    26f4:	18b30000 	ldmne	r3!, {}	; <UNPREDICTABLE>
    26f8:	f8170000 			; <UNDEFINED> instruction: 0xf8170000
    26fc:	8e000092 	mcrhi	0, 0, r0, cr0, cr2, {4}
    2700:	17000008 	strne	r0, [r0, -r8]
    2704:	0000930c 	andeq	r9, r0, ip, lsl #6
    2708:	000008af 	andeq	r0, r0, pc, lsr #17
    270c:	92c41700 	sbcls	r1, r4, #0, 14
    2710:	08cb0000 	stmiaeq	fp, {}^	; <UNPREDICTABLE>
    2714:	10170000 	andsne	r0, r7, r0
    2718:	cb000093 	blgt	296c <_start-0x5694>
    271c:	17000008 	strne	r0, [r0, -r8]
    2720:	0000931c 	andeq	r9, r0, ip, lsl r3
    2724:	0000088e 	andeq	r0, r0, lr, lsl #17
    2728:	00932817 	addseq	r2, r3, r7, lsl r8
    272c:	0008af00 	andeq	sl, r8, r0, lsl #30
    2730:	932c1700 	teqls	ip, #0, 14
    2734:	08cb0000 	stmiaeq	fp, {}^	; <UNPREDICTABLE>
    2738:	1c000000 	stcne	0, cr0, [r0], {-0}
    273c:	00000867 	andeq	r0, r0, r7, ror #16
    2740:	64014c01 	strvs	r4, [r1], #-3073	; 0xc01
    2744:	34000000 	strcc	r0, [r0], #-0
    2748:	84000093 	strhi	r0, [r0], #-147	; 0x93
    274c:	01000000 	mrseq	r0, (UNDEF: 0)
    2750:	0006919c 	muleq	r6, ip, r1
    2754:	69701f00 	ldmdbvs	r0!, {r8, r9, sl, fp, ip}^
    2758:	4c01006e 	stcmi	0, cr0, [r1], {110}	; 0x6e
    275c:	00002c01 	andeq	r2, r0, r1, lsl #24
    2760:	0018d100 	andseq	sp, r8, r0, lsl #2
    2764:	93502100 	cmpls	r0, #0, 2
    2768:	00240000 	eoreq	r0, r4, r0
    276c:	06450000 	strbeq	r0, [r5], -r0
    2770:	d6200000 	strtle	r0, [r0], -r0
    2774:	01000008 	tsteq	r0, r8
    2778:	002c0153 	eoreq	r0, ip, r3, asr r1
    277c:	19130000 	ldmdbne	r3, {}	; <UNPREDICTABLE>
    2780:	5c170000 	ldcpl	0, cr0, [r7], {-0}
    2784:	8e000093 	mcrhi	0, 0, r0, cr0, cr3, {4}
    2788:	17000008 	strne	r0, [r0, -r8]
    278c:	0000936c 	andeq	r9, r0, ip, ror #6
    2790:	000008cb 	andeq	r0, r0, fp, asr #17
    2794:	93742100 	cmnls	r4, #0, 2
    2798:	002c0000 	eoreq	r0, ip, r0
    279c:	067e0000 	ldrbteq	r0, [lr], -r0
    27a0:	d6200000 	strtle	r0, [r0], -r0
    27a4:	01000008 	tsteq	r0, r8
    27a8:	002c0156 	eoreq	r0, ip, r6, asr r1
    27ac:	192d0000 	pushne	{}	; <UNPREDICTABLE>
    27b0:	80170000 	andshi	r0, r7, r0
    27b4:	8e000093 	mcrhi	0, 0, r0, cr0, cr3, {4}
    27b8:	17000008 	strne	r0, [r0, -r8]
    27bc:	0000938c 	andeq	r9, r0, ip, lsl #7
    27c0:	000008cb 	andeq	r0, r0, fp, asr #17
    27c4:	00939817 	addseq	r9, r3, r7, lsl r8
    27c8:	0008cb00 	andeq	ip, r8, r0, lsl #22
    27cc:	48170000 	ldmdami	r7, {}	; <UNPREDICTABLE>
    27d0:	cb000093 	blgt	2a24 <_start-0x55dc>
    27d4:	17000008 	strne	r0, [r0, -r8]
    27d8:	000093a4 	andeq	r9, r0, r4, lsr #7
    27dc:	000008cb 	andeq	r0, r0, fp, asr #17
    27e0:	095d1e00 	ldmdbeq	sp, {r9, sl, fp, ip}^
    27e4:	5f010000 	svcpl	0x00010000
    27e8:	0093b801 	addseq	fp, r3, r1, lsl #16
    27ec:	00005800 	andeq	r5, r0, r0, lsl #16
    27f0:	f69c0100 			; <UNDEFINED> instruction: 0xf69c0100
    27f4:	1f000006 	svcne	0x00000006
    27f8:	006e6970 	rsbeq	r6, lr, r0, ror r9
    27fc:	2c015f01 	stccs	15, cr5, [r1], {1}
    2800:	40000000 	andmi	r0, r0, r0
    2804:	17000019 	smladne	r0, r9, r0, r0
    2808:	000093cc 	andeq	r9, r0, ip, asr #7
    280c:	000008cb 	andeq	r0, r0, fp, asr #17
    2810:	0093e80a 	addseq	lr, r3, sl, lsl #16
    2814:	0008af00 	andeq	sl, r8, r0, lsl #30
    2818:	0006d600 	andeq	sp, r6, r0, lsl #12
    281c:	51010b00 	tstpl	r1, r0, lsl #22
    2820:	00743104 	rsbseq	r3, r4, r4, lsl #2
    2824:	040a0024 	streq	r0, [sl], #-36	; 0x24
    2828:	af000094 	svcge	0x00000094
    282c:	ec000008 	stc	0, cr0, [r0], {8}
    2830:	0b000006 	bleq	2850 <_start-0x57b0>
    2834:	31045101 	tstcc	r4, r1, lsl #2
    2838:	00240074 	eoreq	r0, r4, r4, ror r0
    283c:	00940817 	addseq	r0, r4, r7, lsl r8
    2840:	0008cb00 	andeq	ip, r8, r0, lsl #22
    2844:	1e220000 	cdpne	0, 2, cr0, cr2, cr0, {0}
    2848:	01000009 	tsteq	r0, r9
    284c:	00013328 	andeq	r3, r1, r8, lsr #6
    2850:	74030500 	strvc	r0, [r3], #-1280	; 0x500
    2854:	2200009f 	andcs	r0, r0, #159	; 0x9f
    2858:	0000099d 	muleq	r0, sp, r9
    285c:	01332901 	teqeq	r3, r1, lsl #18
    2860:	03050000 	movweq	r0, #20480	; 0x5000
    2864:	00009f70 	andeq	r9, r0, r0, ror pc
    2868:	000a1422 	andeq	r1, sl, r2, lsr #8
    286c:	332a0100 	teqcc	sl, #0, 2
    2870:	05000001 	streq	r0, [r0, #-1]
    2874:	009f6c03 	addseq	r6, pc, r3, lsl #24
    2878:	08f62200 	ldmeq	r6!, {r9, sp}^
    287c:	2c010000 	stccs	0, cr0, [r1], {-0}
    2880:	00000133 	andeq	r0, r0, r3, lsr r1
    2884:	9f180305 	svcls	0x00180305
    2888:	fe220000 	cdp2	0, 2, cr0, cr2, cr0, {0}
    288c:	01000008 	tsteq	r0, r8
    2890:	0001332d 	andeq	r3, r1, sp, lsr #6
    2894:	1c030500 	cfstr32ne	mvfx0, [r3], {-0}
    2898:	2200009f 	andcs	r0, r0, #159	; 0x9f
    289c:	0000087b 	andeq	r0, r0, fp, ror r8
    28a0:	01332e01 	teqeq	r3, r1, lsl #28
    28a4:	03050000 	movweq	r0, #20480	; 0x5000
    28a8:	00009f20 	andeq	r9, r0, r0, lsr #30
    28ac:	00090622 	andeq	r0, r9, r2, lsr #12
    28b0:	332f0100 	teqcc	pc, #0, 2
    28b4:	05000001 	streq	r0, [r0, #-1]
    28b8:	009f2403 	addseq	r2, pc, r3, lsl #8
    28bc:	090e2200 	stmdbeq	lr, {r9, sp}
    28c0:	30010000 	andcc	r0, r1, r0
    28c4:	00000133 	andeq	r0, r0, r3, lsr r1
    28c8:	9f280305 	svcls	0x00280305
    28cc:	16220000 	strtne	r0, [r2], -r0
    28d0:	01000009 	tsteq	r0, r9
    28d4:	00013331 	andeq	r3, r1, r1, lsr r3
    28d8:	2c030500 	cfstr32cs	mvfx0, [r3], {-0}
    28dc:	2200009f 	andcs	r0, r0, #159	; 0x9f
    28e0:	000008c8 	andeq	r0, r0, r8, asr #17
    28e4:	01333301 	teqeq	r3, r1, lsl #6
    28e8:	03050000 	movweq	r0, #20480	; 0x5000
    28ec:	00009f30 	andeq	r9, r0, r0, lsr pc
    28f0:	0008cf22 	andeq	ip, r8, r2, lsr #30
    28f4:	33340100 	teqcc	r4, #0, 2
    28f8:	05000001 	streq	r0, [r0, #-1]
    28fc:	009f3403 	addseq	r3, pc, r3, lsl #8
    2900:	08832200 	stmeq	r3, {r9, sp}
    2904:	36010000 	strcc	r0, [r1], -r0
    2908:	00000133 	andeq	r0, r0, r3, lsr r1
    290c:	9f380305 	svcls	0x00380305
    2910:	29220000 	stmdbcs	r2!, {}	; <UNPREDICTABLE>
    2914:	01000009 	tsteq	r0, r9
    2918:	00013337 	andeq	r3, r1, r7, lsr r3
    291c:	3c030500 	cfstr32cc	mvfx0, [r3], {-0}
    2920:	2200009f 	andcs	r0, r0, #159	; 0x9f
    2924:	000008df 	ldrdeq	r0, [r0], -pc	; <UNPREDICTABLE>
    2928:	01333901 	teqeq	r3, r1, lsl #18
    292c:	03050000 	movweq	r0, #20480	; 0x5000
    2930:	00009f40 	andeq	r9, r0, r0, asr #30
    2934:	0008e622 	andeq	lr, r8, r2, lsr #12
    2938:	333a0100 	teqcc	sl, #0, 2
    293c:	05000001 	streq	r0, [r0, #-1]
    2940:	009f4403 	addseq	r4, pc, r3, lsl #8
    2944:	096e2200 	stmdbeq	lr!, {r9, sp}^
    2948:	f0010000 			; <UNDEFINED> instruction: 0xf0010000
    294c:	00000133 	andeq	r0, r0, r3, lsr r1
    2950:	9f680305 	svcls	0x00680305
    2954:	7c220000 	stcvc	0, cr0, [r2], #-0
    2958:	01000009 	tsteq	r0, r9
    295c:	000133f1 	strdeq	r3, [r1], -r1
    2960:	48030500 	stmdami	r3, {r8, sl}
    2964:	2200009f 	andcs	r0, r0, #159	; 0x9f
    2968:	000009bb 			; <UNDEFINED> instruction: 0x000009bb
    296c:	0133f301 	teqeq	r3, r1, lsl #6
    2970:	03050000 	movweq	r0, #20480	; 0x5000
    2974:	00009f60 	andeq	r9, r0, r0, ror #30
    2978:	0009c222 	andeq	ip, r9, r2, lsr #4
    297c:	33f40100 	mvnscc	r0, #0, 2
    2980:	05000001 	streq	r0, [r0, #-1]
    2984:	009f6403 	addseq	r6, pc, r3, lsl #8
    2988:	094f2200 	stmdbeq	pc, {r9, sp}^	; <UNPREDICTABLE>
    298c:	f6010000 			; <UNDEFINED> instruction: 0xf6010000
    2990:	00000133 	andeq	r0, r0, r3, lsr r1
    2994:	9f4c0305 	svcls	0x004c0305
    2998:	56220000 	strtpl	r0, [r2], -r0
    299c:	01000009 	tsteq	r0, r9
    29a0:	000133f7 	strdeq	r3, [r1], -r7
    29a4:	50030500 	andpl	r0, r3, r0, lsl #10
    29a8:	2200009f 	andcs	r0, r0, #159	; 0x9f
    29ac:	000009d5 	ldrdeq	r0, [r0], -r5
    29b0:	0133f901 	teqeq	r3, r1, lsl #18
    29b4:	03050000 	movweq	r0, #20480	; 0x5000
    29b8:	00009f58 	andeq	r9, r0, r8, asr pc
    29bc:	0009dc22 	andeq	sp, r9, r2, lsr #24
    29c0:	33fa0100 	mvnscc	r0, #0, 2
    29c4:	05000001 	streq	r0, [r0, #-1]
    29c8:	009f5c03 	addseq	r5, pc, r3, lsl #24
    29cc:	088a2200 	stmeq	sl, {r9, sp}
    29d0:	fc010000 	stc2	0, cr0, [r1], {-0}
    29d4:	00000133 	andeq	r0, r0, r3, lsr r1
    29d8:	9f540305 	svcls	0x00540305
    29dc:	78230000 	stmdavc	r3!, {}	; <UNPREDICTABLE>
    29e0:	01000004 	tsteq	r0, r4
    29e4:	00002c20 	andeq	r2, r0, r0, lsr #24
    29e8:	0008a300 	andeq	sl, r8, r0, lsl #6
    29ec:	08a32400 	stmiaeq	r3!, {sl, sp}
    29f0:	0d000000 	stceq	0, cr0, [r0, #-0]
    29f4:	0008a904 	andeq	sl, r8, r4, lsl #18
    29f8:	08ae2500 	stmiaeq	lr!, {r8, sl, sp}
    29fc:	27260000 	strcs	r0, [r6, -r0]!
    2a00:	000003ec 	andeq	r0, r0, ip, ror #7
    2a04:	08c51e01 	stmiaeq	r5, {r0, r9, sl, fp, ip}^
    2a08:	c5240000 	strgt	r0, [r4, #-0]!
    2a0c:	24000008 	strcs	r0, [r0], #-8
    2a10:	0000002c 	andeq	r0, r0, ip, lsr #32
    2a14:	ae040d00 	cdpge	13, 0, cr0, cr4, cr0, {0}
    2a18:	28000008 	stmdacs	r0, {r3}
    2a1c:	000000f4 	strdeq	r0, [r0], -r4
    2a20:	ca008703 	bgt	24634 <__bss_end__+0x15d3c>
    2a24:	04000011 	streq	r0, [r0], #-17
    2a28:	000ee000 	andeq	lr, lr, r0
    2a2c:	76010400 	strvc	r0, [r1], -r0, lsl #8
    2a30:	01000003 	tsteq	r0, r3
    2a34:	00000a9f 	muleq	r0, pc, sl	; <UNPREDICTABLE>
    2a38:	00000568 	andeq	r0, r0, r8, ror #10
    2a3c:	00009410 	andeq	r9, r0, r0, lsl r4
    2a40:	00000620 	andeq	r0, r0, r0, lsr #12
    2a44:	00000d81 	andeq	r0, r0, r1, lsl #27
    2a48:	69050402 	stmdbvs	r5, {r1, sl}
    2a4c:	0300746e 	movweq	r7, #1134	; 0x46e
    2a50:	00620704 	rsbeq	r0, r2, r4, lsl #14
    2a54:	01030000 	mrseq	r0, (UNDEF: 3)
    2a58:	0002db06 	andeq	sp, r2, r6, lsl #22
    2a5c:	05020300 	streq	r0, [r2, #-768]	; 0x300
    2a60:	000002ef 	andeq	r0, r0, pc, ror #5
    2a64:	93050403 	movwls	r0, #21507	; 0x5403
    2a68:	03000000 	movweq	r0, #0
    2a6c:	008e0508 	addeq	r0, lr, r8, lsl #10
    2a70:	70040000 	andvc	r0, r4, r0
    2a74:	03000004 	movweq	r0, #4
    2a78:	00005a2e 	andeq	r5, r0, lr, lsr #20
    2a7c:	08010300 	stmdaeq	r1, {r8, r9}
    2a80:	000002d9 	ldrdeq	r0, [r0], -r9
    2a84:	bb070203 	bllt	1c3298 <__bss_end__+0x1b49a0>
    2a88:	04000001 	streq	r0, [r0], #-1
    2a8c:	00000368 	andeq	r0, r0, r8, ror #6
    2a90:	00733403 	rsbseq	r3, r3, r3, lsl #8
    2a94:	04030000 	streq	r0, [r3], #-0
    2a98:	00005d07 	andeq	r5, r0, r7, lsl #26
    2a9c:	07080300 	streq	r0, [r8, -r0, lsl #6]
    2aa0:	00000058 	andeq	r0, r0, r8, asr r0
    2aa4:	4a070403 	bmi	1c3ab8 <__bss_end__+0x1b51c0>
    2aa8:	05000002 	streq	r0, [r0, #-2]
    2aac:	90040604 	andls	r0, r4, r4, lsl #12
    2ab0:	03000000 	movweq	r0, #0
    2ab4:	02e20801 	rsceq	r0, r2, #65536	; 0x10000
    2ab8:	04060000 	streq	r0, [r6], #-0
    2abc:	0000009d 	muleq	r0, sp, r0
    2ac0:	00009007 	andeq	r9, r0, r7
    2ac4:	040c0800 	streq	r0, [ip], #-2048	; 0x800
    2ac8:	0000d90e 	andeq	sp, r0, lr, lsl #18
    2acc:	78740900 	ldmdavc	r4!, {r8, fp}^
    2ad0:	4f0f0400 	svcmi	0x000f0400
    2ad4:	00000000 	andeq	r0, r0, r0
    2ad8:	00787209 	rsbseq	r7, r8, r9, lsl #4
    2adc:	004f0f04 	subeq	r0, pc, r4, lsl #30
    2ae0:	0a010000 	beq	42ae8 <__bss_end__+0x341f0>
    2ae4:	00000371 	andeq	r0, r0, r1, ror r3
    2ae8:	00681004 	rsbeq	r1, r8, r4
    2aec:	0a040000 	beq	102af4 <__bss_end__+0xf41fc>
    2af0:	00000505 	andeq	r0, r0, r5, lsl #10
    2af4:	00681104 	rsbeq	r1, r8, r4, lsl #2
    2af8:	00080000 	andeq	r0, r8, r0
    2afc:	0002cf04 	andeq	ip, r2, r4, lsl #30
    2b00:	a2120400 	andsge	r0, r2, #0, 8
    2b04:	04000000 	streq	r0, [r0], #-0
    2b08:	000005ac 	andeq	r0, r0, ip, lsr #11
    2b0c:	00ef2805 	rsceq	r2, pc, r5, lsl #16
    2b10:	d30b0000 	movwle	r0, #45056	; 0xb000
    2b14:	04000005 	streq	r0, [r0], #-5
    2b18:	01060009 	tsteq	r6, r9
    2b1c:	e20c0000 	and	r0, ip, #0
    2b20:	88000005 	stmdahi	r0, {r0, r2}
    2b24:	00000000 	andeq	r0, r0, r0
    2b28:	05d50400 	ldrbeq	r0, [r5, #1024]	; 0x400
    2b2c:	62050000 	andvs	r0, r5, #0
    2b30:	000000e4 	andeq	r0, r0, r4, ror #1
    2b34:	000a770d 	andeq	r7, sl, sp, lsl #14
    2b38:	03090200 	movweq	r0, #37376	; 0x9200
    2b3c:	0000013f 	andeq	r0, r0, pc, lsr r1
    2b40:	0007370e 	andeq	r3, r7, lr, lsl #14
    2b44:	2c090200 	sfmcs	f0, 4, [r9], {-0}
    2b48:	0f000000 	svceq	0x00000000
    2b4c:	0902006e 	stmdbeq	r2, {r1, r2, r3, r5, r6}
    2b50:	0000002c 	andeq	r0, r0, ip, lsr #32
    2b54:	0acd1110 	beq	ff346f9c <__bss_end__+0xff3386a4>
    2b58:	0c020000 	stceq	0, cr0, [r2], {-0}
    2b5c:	0000002c 	andeq	r0, r0, ip, lsr #32
    2b60:	2a0d0000 	bcs	342b68 <__bss_end__+0x334270>
    2b64:	0200000a 	andeq	r0, r0, #10
    2b68:	01760317 	cmneq	r6, r7, lsl r3
    2b6c:	700f0000 	andvc	r0, pc, r0
    2b70:	02006e69 	andeq	r6, r0, #1680	; 0x690
    2b74:	00002c17 	andeq	r2, r0, r7, lsl ip
    2b78:	00760f00 	rsbseq	r0, r6, r0, lsl #30
    2b7c:	002c1702 	eoreq	r1, ip, r2, lsl #14
    2b80:	370e0000 	strcc	r0, [lr, -r0]
    2b84:	02000007 	andeq	r0, r0, #7
    2b88:	00002c17 	andeq	r2, r0, r7, lsl ip
    2b8c:	0a7d0e00 	beq	1f46394 <__bss_end__+0x1f37a9c>
    2b90:	17020000 	strne	r0, [r2, -r0]
    2b94:	0000002c 	andeq	r0, r0, ip, lsr #32
    2b98:	01eb1200 	mvneq	r1, r0, lsl #4
    2b9c:	09010000 	stmdbeq	r1, {}	; <UNPREDICTABLE>
    2ba0:	00009410 	andeq	r9, r0, r0, lsl r4
    2ba4:	00000154 	andeq	r0, r0, r4, asr r1
    2ba8:	07229c01 	streq	r9, [r2, -r1, lsl #24]!
    2bac:	f9130000 			; <UNDEFINED> instruction: 0xf9130000
    2bb0:	01000006 	tsteq	r0, r6
    2bb4:	00072209 	andeq	r2, r7, r9, lsl #4
    2bb8:	00196c00 	andseq	r6, r9, r0, lsl #24
    2bbc:	00631400 	rsbeq	r1, r3, r0, lsl #8
    2bc0:	005a0901 	subseq	r0, sl, r1, lsl #18
    2bc4:	198d0000 	stmibne	sp, {}	; <UNPREDICTABLE>
    2bc8:	74150000 	ldrvc	r0, [r5], #-0
    2bcc:	0b010078 	bleq	42db4 <__bss_end__+0x344bc>
    2bd0:	00000025 	andeq	r0, r0, r5, lsr #32
    2bd4:	08007606 	stmdaeq	r0, {r1, r2, r9, sl, ip, sp, lr}
    2bd8:	169f1aff 			; <UNDEFINED> instruction: 0x169f1aff
    2bdc:	0c01006e 	stceq	0, cr0, [r1], {110}	; 0x6e
    2be0:	00000068 	andeq	r0, r0, r8, rrx
    2be4:	000019ae 	andeq	r1, r0, lr, lsr #19
    2be8:	01007516 	tsteq	r0, r6, lsl r5
    2bec:	0000680d 	andeq	r6, r0, sp, lsl #16
    2bf0:	0019c100 	andseq	ip, r9, r0, lsl #2
    2bf4:	00731500 	rsbseq	r1, r3, r0, lsl #10
    2bf8:	00680e01 	rsbeq	r0, r8, r1, lsl #28
    2bfc:	54010000 	strpl	r0, [r1], #-0
    2c00:	00942017 	addseq	r2, r4, r7, lsl r0
    2c04:	00000400 	andeq	r0, r0, r0, lsl #8
    2c08:	0001f800 	andeq	pc, r1, r0, lsl #16
    2c0c:	0acd1800 	beq	ff348c14 <__bss_end__+0xff33a31c>
    2c10:	0e010000 	cdpeq	0, 0, cr0, cr1, cr0, {0}
    2c14:	0000002c 	andeq	r0, r0, ip, lsr #32
    2c18:	19005401 	stmdbne	r0, {r0, sl, ip, lr}
    2c1c:	0000013f 	andeq	r0, r0, pc, lsr r1
    2c20:	00009424 	andeq	r9, r0, r4, lsr #8
    2c24:	0000001c 	andeq	r0, r0, ip, lsl r0
    2c28:	02751101 	rsbseq	r1, r5, #1073741824	; 0x40000000
    2c2c:	6a1a0000 	bvs	682c34 <__bss_end__+0x67433c>
    2c30:	ea000001 	b	2c3c <_start-0x53c4>
    2c34:	1b000019 	blne	2ca0 <_start-0x5360>
    2c38:	0000015f 	andeq	r0, r0, pc, asr r1
    2c3c:	561c5401 	ldrpl	r5, [ip], -r1, lsl #8
    2c40:	00000001 	andeq	r0, r0, r1
    2c44:	00014b1b 	andeq	r4, r1, fp, lsl fp
    2c48:	19560100 	ldmdbne	r6, {r8}^
    2c4c:	00000111 	andeq	r0, r0, r1, lsl r1
    2c50:	00009430 	andeq	r9, r0, r0, lsr r4
    2c54:	00000010 	andeq	r0, r0, r0, lsl r0
    2c58:	025f1a02 	subseq	r1, pc, #8192	; 0x2000
    2c5c:	281a0000 	ldmdacs	sl, {}	; <UNPREDICTABLE>
    2c60:	fd000001 	stc2	0, cr0, [r0, #-4]
    2c64:	1b000019 	blne	2cd0 <_start-0x5330>
    2c68:	0000011d 	andeq	r0, r0, sp, lsl r1
    2c6c:	301d5401 	andscc	r5, sp, r1, lsl #8
    2c70:	04000094 	streq	r0, [r0], #-148	; 0x94
    2c74:	1e000000 	cdpne	0, 0, cr0, cr0, cr0, {0}
    2c78:	00000132 	andeq	r0, r0, r2, lsr r1
    2c7c:	00001a10 	andeq	r1, r0, r0, lsl sl
    2c80:	301f0000 	andscc	r0, pc, r0
    2c84:	31000094 	swpcc	r0, r4, [r0]	; <UNPREDICTABLE>
    2c88:	20000011 	andcs	r0, r0, r1, lsl r0
    2c8c:	30015101 	andcc	r5, r1, r1, lsl #2
    2c90:	02500120 	subseq	r0, r0, #32, 2
    2c94:	00000076 	andeq	r0, r0, r6, ror r0
    2c98:	00013f19 	andeq	r3, r1, r9, lsl pc
    2c9c:	00944400 	addseq	r4, r4, r0, lsl #8
    2ca0:	00001c00 	andeq	r1, r0, r0, lsl #24
    2ca4:	f8130100 			; <UNDEFINED> instruction: 0xf8130100
    2ca8:	1a000002 	bne	2cb8 <_start-0x5348>
    2cac:	0000016a 	andeq	r0, r0, sl, ror #2
    2cb0:	00001a23 	andeq	r1, r0, r3, lsr #20
    2cb4:	00015f1b 	andeq	r5, r1, fp, lsl pc
    2cb8:	1a540100 	bne	15030c0 <__bss_end__+0x14f47c8>
    2cbc:	00000156 	andeq	r0, r0, r6, asr r1
    2cc0:	00001a45 	andeq	r1, r0, r5, asr #20
    2cc4:	00014b1b 	andeq	r4, r1, fp, lsl fp
    2cc8:	19560100 	ldmdbne	r6, {r8}^
    2ccc:	00000111 	andeq	r0, r0, r1, lsl r1
    2cd0:	00009450 	andeq	r9, r0, r0, asr r4
    2cd4:	00000010 	andeq	r0, r0, r0, lsl r0
    2cd8:	02df1a02 	sbcseq	r1, pc, #8192	; 0x2000
    2cdc:	281a0000 	ldmdacs	sl, {}	; <UNPREDICTABLE>
    2ce0:	76000001 	strvc	r0, [r0], -r1
    2ce4:	1b00001a 	blne	2d54 <_start-0x52ac>
    2ce8:	0000011d 	andeq	r0, r0, sp, lsl r1
    2cec:	501d5401 	andspl	r5, sp, r1, lsl #8
    2cf0:	04000094 	streq	r0, [r0], #-148	; 0x94
    2cf4:	1e000000 	cdpne	0, 0, cr0, cr0, cr0, {0}
    2cf8:	00000132 	andeq	r0, r0, r2, lsr r1
    2cfc:	00001a98 	muleq	r0, r8, sl
    2d00:	501f0000 	andspl	r0, pc, r0
    2d04:	31000094 	swpcc	r0, r4, [r0]	; <UNPREDICTABLE>
    2d08:	20000011 	andcs	r0, r0, r1, lsl r0
    2d0c:	77045101 	strvc	r5, [r4, -r1, lsl #2]
    2d10:	201a3100 	andscs	r3, sl, r0, lsl #2
    2d14:	76025001 	strvc	r5, [r2], -r1
    2d18:	19000000 	stmdbne	r0, {}	; <UNPREDICTABLE>
    2d1c:	0000013f 	andeq	r0, r0, pc, lsr r1
    2d20:	00009464 	andeq	r9, r0, r4, ror #8
    2d24:	0000001c 	andeq	r0, r0, ip, lsl r0
    2d28:	03801501 	orreq	r1, r0, #4194304	; 0x400000
    2d2c:	6a1a0000 	bvs	682d34 <__bss_end__+0x67443c>
    2d30:	ab000001 	blge	2d3c <_start-0x52c4>
    2d34:	1b00001a 	blne	2da4 <_start-0x525c>
    2d38:	0000015f 	andeq	r0, r0, pc, asr r1
    2d3c:	561b5401 	ldrpl	r5, [fp], -r1, lsl #8
    2d40:	08000001 	stmdaeq	r0, {r0}
    2d44:	1a320077 	bne	c82f28 <__bss_end__+0xc74630>
    2d48:	9f1aff08 	svcls	0x001aff08
    2d4c:	00014b1b 	andeq	r4, r1, fp, lsl fp
    2d50:	19560100 	ldmdbne	r6, {r8}^
    2d54:	00000111 	andeq	r0, r0, r1, lsl r1
    2d58:	00009470 	andeq	r9, r0, r0, ror r4
    2d5c:	00000010 	andeq	r0, r0, r0, lsl r0
    2d60:	03671a02 	cmneq	r7, #8192	; 0x2000
    2d64:	281a0000 	ldmdacs	sl, {}	; <UNPREDICTABLE>
    2d68:	d0000001 	andle	r0, r0, r1
    2d6c:	1b00001a 	blne	2ddc <_start-0x5224>
    2d70:	0000011d 	andeq	r0, r0, sp, lsl r1
    2d74:	701d5401 	andsvc	r5, sp, r1, lsl #8
    2d78:	04000094 	streq	r0, [r0], #-148	; 0x94
    2d7c:	1e000000 	cdpne	0, 0, cr0, cr0, cr0, {0}
    2d80:	00000132 	andeq	r0, r0, r2, lsr r1
    2d84:	00001af5 	strdeq	r1, [r0], -r5
    2d88:	701f0000 	andsvc	r0, pc, r0
    2d8c:	31000094 	swpcc	r0, r4, [r0]	; <UNPREDICTABLE>
    2d90:	20000011 	andcs	r0, r0, r1, lsl r0
    2d94:	77045101 	strvc	r5, [r4, -r1, lsl #2]
    2d98:	201a3200 	andscs	r3, sl, r0, lsl #4
    2d9c:	76025001 	strvc	r5, [r2], -r1
    2da0:	19000000 	stmdbne	r0, {}	; <UNPREDICTABLE>
    2da4:	0000013f 	andeq	r0, r0, pc, lsr r1
    2da8:	00009484 	andeq	r9, r0, r4, lsl #9
    2dac:	0000001c 	andeq	r0, r0, ip, lsl r0
    2db0:	04081701 	streq	r1, [r8], #-1793	; 0x701
    2db4:	6a1a0000 	bvs	682dbc <__bss_end__+0x6744c4>
    2db8:	08000001 	stmdaeq	r0, {r0}
    2dbc:	1b00001b 	blne	2e30 <_start-0x51d0>
    2dc0:	0000015f 	andeq	r0, r0, pc, asr r1
    2dc4:	561b5401 	ldrpl	r5, [fp], -r1, lsl #8
    2dc8:	08000001 	stmdaeq	r0, {r0}
    2dcc:	1a340077 	bne	d02fb0 <__bss_end__+0xcf46b8>
    2dd0:	9f1aff08 	svcls	0x001aff08
    2dd4:	00014b1b 	andeq	r4, r1, fp, lsl fp
    2dd8:	19560100 	ldmdbne	r6, {r8}^
    2ddc:	00000111 	andeq	r0, r0, r1, lsl r1
    2de0:	00009490 	muleq	r0, r0, r4
    2de4:	00000010 	andeq	r0, r0, r0, lsl r0
    2de8:	03ef1a02 	mvneq	r1, #8192	; 0x2000
    2dec:	281a0000 	ldmdacs	sl, {}	; <UNPREDICTABLE>
    2df0:	2a000001 	bcs	2dfc <_start-0x5204>
    2df4:	1b00001b 	blne	2e68 <_start-0x5198>
    2df8:	0000011d 	andeq	r0, r0, sp, lsl r1
    2dfc:	901d5401 	andsls	r5, sp, r1, lsl #8
    2e00:	04000094 	streq	r0, [r0], #-148	; 0x94
    2e04:	1e000000 	cdpne	0, 0, cr0, cr0, cr0, {0}
    2e08:	00000132 	andeq	r0, r0, r2, lsr r1
    2e0c:	00001b4c 	andeq	r1, r0, ip, asr #22
    2e10:	901f0000 	andsls	r0, pc, r0
    2e14:	31000094 	swpcc	r0, r4, [r0]	; <UNPREDICTABLE>
    2e18:	20000011 	andcs	r0, r0, r1, lsl r0
    2e1c:	77045101 	strvc	r5, [r4, -r1, lsl #2]
    2e20:	201a3400 	andscs	r3, sl, r0, lsl #8
    2e24:	76025001 	strvc	r5, [r2], -r1
    2e28:	19000000 	stmdbne	r0, {}	; <UNPREDICTABLE>
    2e2c:	0000013f 	andeq	r0, r0, pc, lsr r1
    2e30:	000094a4 	andeq	r9, r0, r4, lsr #9
    2e34:	0000001c 	andeq	r0, r0, ip, lsl r0
    2e38:	04901901 	ldreq	r1, [r0], #2305	; 0x901
    2e3c:	6a1a0000 	bvs	682e44 <__bss_end__+0x67454c>
    2e40:	5f000001 	svcpl	0x00000001
    2e44:	1b00001b 	blne	2eb8 <_start-0x5148>
    2e48:	0000015f 	andeq	r0, r0, pc, asr r1
    2e4c:	561b5401 	ldrpl	r5, [fp], -r1, lsl #8
    2e50:	08000001 	stmdaeq	r0, {r0}
    2e54:	1a380077 	bne	e03038 <__bss_end__+0xdf4740>
    2e58:	9f1aff08 	svcls	0x001aff08
    2e5c:	00014b1b 	andeq	r4, r1, fp, lsl fp
    2e60:	19560100 	ldmdbne	r6, {r8}^
    2e64:	00000111 	andeq	r0, r0, r1, lsl r1
    2e68:	000094b0 			; <UNDEFINED> instruction: 0x000094b0
    2e6c:	00000010 	andeq	r0, r0, r0, lsl r0
    2e70:	04771a02 	ldrbteq	r1, [r7], #-2562	; 0xa02
    2e74:	281a0000 	ldmdacs	sl, {}	; <UNPREDICTABLE>
    2e78:	84000001 	strhi	r0, [r0], #-1
    2e7c:	1b00001b 	blne	2ef0 <_start-0x5110>
    2e80:	0000011d 	andeq	r0, r0, sp, lsl r1
    2e84:	b01d5401 	andslt	r5, sp, r1, lsl #8
    2e88:	04000094 	streq	r0, [r0], #-148	; 0x94
    2e8c:	1e000000 	cdpne	0, 0, cr0, cr0, cr0, {0}
    2e90:	00000132 	andeq	r0, r0, r2, lsr r1
    2e94:	00001ba9 	andeq	r1, r0, r9, lsr #23
    2e98:	b01f0000 	andslt	r0, pc, r0
    2e9c:	31000094 	swpcc	r0, r4, [r0]	; <UNPREDICTABLE>
    2ea0:	20000011 	andcs	r0, r0, r1, lsl r0
    2ea4:	77045101 	strvc	r5, [r4, -r1, lsl #2]
    2ea8:	201a3800 	andscs	r3, sl, r0, lsl #16
    2eac:	76025001 	strvc	r5, [r2], -r1
    2eb0:	19000000 	stmdbne	r0, {}	; <UNPREDICTABLE>
    2eb4:	0000013f 	andeq	r0, r0, pc, lsr r1
    2eb8:	000094c4 	andeq	r9, r0, r4, asr #9
    2ebc:	0000001c 	andeq	r0, r0, ip, lsl r0
    2ec0:	05181b01 	ldreq	r1, [r8, #-2817]	; 0xb01
    2ec4:	6a1a0000 	bvs	682ecc <__bss_end__+0x6745d4>
    2ec8:	bc000001 	stclt	0, cr0, [r0], {1}
    2ecc:	1b00001b 	blne	2f40 <_start-0x50c0>
    2ed0:	0000015f 	andeq	r0, r0, pc, asr r1
    2ed4:	561b5401 	ldrpl	r5, [fp], -r1, lsl #8
    2ed8:	08000001 	stmdaeq	r0, {r0}
    2edc:	1a400077 	bne	10030c0 <__bss_end__+0xff47c8>
    2ee0:	9f1aff08 	svcls	0x001aff08
    2ee4:	00014b1b 	andeq	r4, r1, fp, lsl fp
    2ee8:	19560100 	ldmdbne	r6, {r8}^
    2eec:	00000111 	andeq	r0, r0, r1, lsl r1
    2ef0:	000094d0 	ldrdeq	r9, [r0], -r0
    2ef4:	00000010 	andeq	r0, r0, r0, lsl r0
    2ef8:	04ff1a02 	ldrbteq	r1, [pc], #2562	; 2f00 <_start-0x5100>
    2efc:	281a0000 	ldmdacs	sl, {}	; <UNPREDICTABLE>
    2f00:	e3000001 	movw	r0, #1
    2f04:	1b00001b 	blne	2f78 <_start-0x5088>
    2f08:	0000011d 	andeq	r0, r0, sp, lsl r1
    2f0c:	d01d5401 	andsle	r5, sp, r1, lsl #8
    2f10:	04000094 	streq	r0, [r0], #-148	; 0x94
    2f14:	1e000000 	cdpne	0, 0, cr0, cr0, cr0, {0}
    2f18:	00000132 	andeq	r0, r0, r2, lsr r1
    2f1c:	00001c0a 	andeq	r1, r0, sl, lsl #24
    2f20:	d01f0000 	andsle	r0, pc, r0
    2f24:	31000094 	swpcc	r0, r4, [r0]	; <UNPREDICTABLE>
    2f28:	20000011 	andcs	r0, r0, r1, lsl r0
    2f2c:	77045101 	strvc	r5, [r4, -r1, lsl #2]
    2f30:	201a4000 	andscs	r4, sl, r0
    2f34:	76025001 	strvc	r5, [r2], -r1
    2f38:	19000000 	stmdbne	r0, {}	; <UNPREDICTABLE>
    2f3c:	0000013f 	andeq	r0, r0, pc, lsr r1
    2f40:	000094e4 	andeq	r9, r0, r4, ror #9
    2f44:	0000001c 	andeq	r0, r0, ip, lsl r0
    2f48:	05a21d01 	streq	r1, [r2, #3329]!	; 0xd01
    2f4c:	6a1a0000 	bvs	682f54 <__bss_end__+0x67465c>
    2f50:	1d000001 	stcne	0, cr0, [r0, #-4]
    2f54:	1b00001c 	blne	2fcc <_start-0x5034>
    2f58:	0000015f 	andeq	r0, r0, pc, asr r1
    2f5c:	561b5401 	ldrpl	r5, [fp], -r1, lsl #8
    2f60:	09000001 	stmdbeq	r0, {r0}
    2f64:	20080077 	andcs	r0, r8, r7, ror r0
    2f68:	1aff081a 	bne	fffc4fd8 <__bss_end__+0xfffb66e0>
    2f6c:	014b1b9f 			; <UNDEFINED> instruction: 0x014b1b9f
    2f70:	56010000 	strpl	r0, [r1], -r0
    2f74:	00011119 	andeq	r1, r1, r9, lsl r1
    2f78:	0094f000 	addseq	pc, r4, r0
    2f7c:	00001000 	andeq	r1, r0, r0
    2f80:	881a0200 	ldmdahi	sl, {r9}
    2f84:	1a000005 	bne	2fa0 <_start-0x5060>
    2f88:	00000128 	andeq	r0, r0, r8, lsr #2
    2f8c:	00001c47 	andeq	r1, r0, r7, asr #24
    2f90:	00011d1b 	andeq	r1, r1, fp, lsl sp
    2f94:	1d540100 	ldfnee	f0, [r4, #-0]
    2f98:	000094f0 	strdeq	r9, [r0], -r0
    2f9c:	00000004 	andeq	r0, r0, r4
    2fa0:	0001321e 	andeq	r3, r1, lr, lsl r2
    2fa4:	001c7100 	andseq	r7, ip, r0, lsl #2
    2fa8:	1f000000 	svcne	0x00000000
    2fac:	000094f0 	strdeq	r9, [r0], -r0
    2fb0:	00001131 	andeq	r1, r0, r1, lsr r1
    2fb4:	05510120 	ldrbeq	r0, [r1, #-288]	; 0x120
    2fb8:	20080077 	andcs	r0, r8, r7, ror r0
    2fbc:	5001201a 	andpl	r2, r1, sl, lsl r0
    2fc0:	00007602 	andeq	r7, r0, r2, lsl #12
    2fc4:	013f1900 	teqeq	pc, r0, lsl #18
    2fc8:	95040000 	strls	r0, [r4, #-0]
    2fcc:	001c0000 	andseq	r0, ip, r0
    2fd0:	1f010000 	svcne	0x00010000
    2fd4:	0000062c 	andeq	r0, r0, ip, lsr #12
    2fd8:	00016a1a 	andeq	r6, r1, sl, lsl sl
    2fdc:	001c8400 	andseq	r8, ip, r0, lsl #8
    2fe0:	015f1b00 	cmpeq	pc, r0, lsl #22
    2fe4:	54010000 	strpl	r0, [r1], #-0
    2fe8:	0001561b 	andeq	r5, r1, fp, lsl r6
    2fec:	00770900 	rsbseq	r0, r7, r0, lsl #18
    2ff0:	081a4008 	ldmdaeq	sl, {r3, lr}
    2ff4:	1b9f1aff 	blne	fe7c9bf8 <__bss_end__+0xfe7bb300>
    2ff8:	0000014b 	andeq	r0, r0, fp, asr #2
    2ffc:	11195601 	tstne	r9, r1, lsl #12
    3000:	10000001 	andne	r0, r0, r1
    3004:	10000095 	mulne	r0, r5, r0
    3008:	02000000 	andeq	r0, r0, #0
    300c:	0006121a 	andeq	r1, r6, sl, lsl r2
    3010:	01281a00 	teqeq	r8, r0, lsl #20
    3014:	1ca60000 	stcne	0, cr0, [r6]
    3018:	1d1b0000 	ldcne	0, cr0, [fp, #-0]
    301c:	01000001 	tsteq	r0, r1
    3020:	95101d54 	ldrls	r1, [r0, #-3412]	; 0xd54
    3024:	00040000 	andeq	r0, r4, r0
    3028:	321e0000 	andscc	r0, lr, #0
    302c:	c8000001 	stmdagt	r0, {r0}
    3030:	0000001c 	andeq	r0, r0, ip, lsl r0
    3034:	95101f00 	ldrls	r1, [r0, #-3840]	; 0xf00
    3038:	11310000 	teqne	r1, r0
    303c:	01200000 	teqeq	r0, r0
    3040:	00770551 	rsbseq	r0, r7, r1, asr r5
    3044:	201a4008 	andscs	r4, sl, r8
    3048:	76025001 	strvc	r5, [r2], -r1
    304c:	19000000 	stmdbne	r0, {}	; <UNPREDICTABLE>
    3050:	0000013f 	andeq	r0, r0, pc, lsr r1
    3054:	00009524 	andeq	r9, r0, r4, lsr #10
    3058:	0000001c 	andeq	r0, r0, ip, lsl r0
    305c:	06ac2101 	strteq	r2, [ip], r1, lsl #2
    3060:	6a1b0000 	bvs	6c3068 <__bss_end__+0x6b4770>
    3064:	01000001 	tsteq	r0, r1
    3068:	015f1b58 	cmpeq	pc, r8, asr fp	; <UNPREDICTABLE>
    306c:	54010000 	strpl	r0, [r1], #-0
    3070:	0001561a 	andeq	r5, r1, sl, lsl r6
    3074:	001cdb00 	andseq	sp, ip, r0, lsl #22
    3078:	014b1b00 	cmpeq	fp, r0, lsl #22
    307c:	56010000 	strpl	r0, [r1], -r0
    3080:	00011119 	andeq	r1, r1, r9, lsl r1
    3084:	00953000 	addseq	r3, r5, r0
    3088:	00001000 	andeq	r1, r0, r0
    308c:	921a0200 	andsls	r0, sl, #0, 4
    3090:	1b000006 	blne	30b0 <_start-0x4f50>
    3094:	00000128 	andeq	r0, r0, r8, lsr #2
    3098:	1d1b5801 	ldcne	8, cr5, [fp, #-4]
    309c:	01000001 	tsteq	r0, r1
    30a0:	95301d54 	ldrls	r1, [r0, #-3412]!	; 0xd54
    30a4:	00040000 	andeq	r0, r4, r0
    30a8:	321e0000 	andscc	r0, lr, #0
    30ac:	0e000001 	cdpeq	0, 0, cr0, cr0, cr1, {0}
    30b0:	0000001d 	andeq	r0, r0, sp, lsl r0
    30b4:	95301f00 	ldrls	r1, [r0, #-3840]!	; 0xf00
    30b8:	11310000 	teqne	r1, r0
    30bc:	01200000 	teqeq	r0, r0
    30c0:	00770551 	rsbseq	r0, r7, r1, asr r5
    30c4:	201a8008 	andscs	r8, sl, r8
    30c8:	76025001 	strvc	r5, [r2], -r1
    30cc:	21000000 	mrscs	r0, (UNDEF: 0)
    30d0:	0000013f 	andeq	r0, r0, pc, lsr r1
    30d4:	00009544 	andeq	r9, r0, r4, asr #10
    30d8:	0000001c 	andeq	r0, r0, ip, lsl r0
    30dc:	6a1b2301 	bvs	6cbce8 <__bss_end__+0x6bd3f0>
    30e0:	01000001 	tsteq	r0, r1
    30e4:	015f1b55 	cmpeq	pc, r5, asr fp	; <UNPREDICTABLE>
    30e8:	54010000 	strpl	r0, [r1], #-0
    30ec:	0001561c 	andeq	r5, r1, ip, lsl r6
    30f0:	4b1b0100 	blmi	6c34f8 <__bss_end__+0x6b4c00>
    30f4:	01000001 	tsteq	r0, r1
    30f8:	01111956 	tsteq	r1, r6, asr r9
    30fc:	95500000 	ldrbls	r0, [r0, #-0]
    3100:	00100000 	andseq	r0, r0, r0
    3104:	1a020000 	bne	8310c <__bss_end__+0x74814>
    3108:	0000070b 	andeq	r0, r0, fp, lsl #14
    310c:	0001281b 	andeq	r2, r1, fp, lsl r8
    3110:	1b550100 	blne	1543518 <__bss_end__+0x1534c20>
    3114:	0000011d 	andeq	r0, r0, sp, lsl r1
    3118:	501d5401 	andspl	r5, sp, r1, lsl #8
    311c:	04000095 	streq	r0, [r0], #-149	; 0x95
    3120:	1e000000 	cdpne	0, 0, cr0, cr0, cr0, {0}
    3124:	00000132 	andeq	r0, r0, r2, lsr r1
    3128:	00001d21 	andeq	r1, r0, r1, lsr #26
    312c:	501f0000 	andspl	r0, pc, r0
    3130:	31000095 	swpcc	r0, r5, [r0]	; <UNPREDICTABLE>
    3134:	20000011 	andcs	r0, r0, r1, lsl r0
    3138:	31015101 	tstcc	r1, r1, lsl #2
    313c:	02500120 	subseq	r0, r0, #32, 2
    3140:	00000076 	andeq	r0, r0, r6, ror r0
    3144:	d9040600 	stmdble	r4, {r9, sl}
    3148:	22000000 	andcs	r0, r0, #0
    314c:	00000afd 	strdeq	r0, [r0], -sp
    3150:	00252701 	eoreq	r2, r5, r1, lsl #14
    3154:	62030000 	andvs	r0, r3, #0
    3158:	0f000007 	svceq	0x00000007
    315c:	01007872 	tsteq	r0, r2, ror r8
    3160:	00002527 	andeq	r2, r0, r7, lsr #10
    3164:	00760f00 	rsbseq	r0, r6, r0, lsl #30
    3168:	00252701 	eoreq	r2, r5, r1, lsl #14
    316c:	850e0000 	strhi	r0, [lr, #-0]
    3170:	0100000a 	tsteq	r0, sl
    3174:	00002c27 	andeq	r2, r0, r7, lsr #24
    3178:	07371100 	ldreq	r1, [r7, -r0, lsl #2]!
    317c:	28010000 	stmdacs	r1, {}	; <UNPREDICTABLE>
    3180:	0000002c 	andeq	r0, r0, ip, lsr #32
    3184:	0a3a2300 	beq	e8bd8c <__bss_end__+0xe7d494>
    3188:	34010000 	strcc	r0, [r1], #-0
    318c:	00000025 	andeq	r0, r0, r5, lsr #32
    3190:	00009564 	andeq	r9, r0, r4, ror #10
    3194:	000001c8 	andeq	r0, r0, r8, asr #3
    3198:	0b1e9c01 	bleq	7aa1a4 <__bss_end__+0x79b8ac>
    319c:	f9130000 			; <UNDEFINED> instruction: 0xf9130000
    31a0:	01000006 	tsteq	r0, r6
    31a4:	00072234 	andeq	r2, r7, r4, lsr r2
    31a8:	001d3400 	andseq	r3, sp, r0, lsl #8
    31ac:	0a851300 	beq	fe147db4 <__bss_end__+0xfe1394bc>
    31b0:	34010000 	strcc	r0, [r1], #-0
    31b4:	00000025 	andeq	r0, r0, r5, lsr #32
    31b8:	00001d79 	andeq	r1, r0, r9, ror sp
    31bc:	00787215 	rsbseq	r7, r8, r5, lsl r2
    31c0:	00253501 	eoreq	r3, r5, r1, lsl #10
    31c4:	55010000 	strpl	r0, [r1, #-0]
    31c8:	01007316 	tsteq	r0, r6, lsl r3
    31cc:	00002c3c 	andeq	r2, r0, ip, lsr ip
    31d0:	001d9700 	andseq	r9, sp, r0, lsl #14
    31d4:	00751600 	rsbseq	r1, r5, r0, lsl #12
    31d8:	00683f01 	rsbeq	r3, r8, r1, lsl #30
    31dc:	1daa0000 	stcne	0, cr0, [sl]
    31e0:	6e160000 	cdpvs	0, 1, cr0, cr6, cr0, {0}
    31e4:	2c400100 	stfcse	f0, [r0], {-0}
    31e8:	bd000000 	stclt	0, cr0, [r0, #-0]
    31ec:	1600001d 			; <UNDEFINED> instruction: 0x1600001d
    31f0:	41010063 	tstmi	r1, r3, rrx
    31f4:	0000002c 	andeq	r0, r0, ip, lsr #32
    31f8:	00001dd4 	ldrdeq	r1, [r0], -r4
    31fc:	00072819 	andeq	r2, r7, r9, lsl r8
    3200:	00957800 	addseq	r7, r5, r0, lsl #16
    3204:	00003400 	andeq	r3, r0, r0, lsl #8
    3208:	3c380100 	ldfccs	f0, [r8], #-0
    320c:	1a000008 	bne	3234 <_start-0x4dcc>
    3210:	0000074b 	andeq	r0, r0, fp, asr #14
    3214:	00001dfe 	strdeq	r1, [r0], -lr
    3218:	0007421c 	andeq	r4, r7, ip, lsl r2
    321c:	381b0000 	ldmdacc	fp, {}	; <UNPREDICTABLE>
    3220:	01000007 	tsteq	r0, r7
    3224:	95781d55 	ldrbls	r1, [r8, #-3413]!	; 0xd55
    3228:	00340000 	eorseq	r0, r4, r0
    322c:	561e0000 	ldrpl	r0, [lr], -r0
    3230:	1c000007 	stcne	0, cr0, [r0], {7}
    3234:	2400001e 	strcs	r0, [r0], #-30
    3238:	0000957c 	andeq	r9, r0, ip, ror r5
    323c:	00001147 	andeq	r1, r0, r7, asr #2
    3240:	00958825 	addseq	r8, r5, r5, lsr #16
    3244:	00115200 	andseq	r5, r1, r0, lsl #4
    3248:	00083100 	andeq	r3, r8, r0, lsl #2
    324c:	50012000 	andpl	r2, r1, r0
    3250:	00007502 	andeq	r7, r0, r2, lsl #10
    3254:	00959424 	addseq	r9, r5, r4, lsr #8
    3258:	00114700 	andseq	r4, r1, r0, lsl #14
    325c:	17000000 	strne	r0, [r0, -r0]
    3260:	000095b4 			; <UNDEFINED> instruction: 0x000095b4
    3264:	00000004 	andeq	r0, r0, r4
    3268:	00000859 	andeq	r0, r0, r9, asr r8
    326c:	000acd26 	andeq	ip, sl, r6, lsr #26
    3270:	2c3c0100 	ldfcss	f0, [ip], #-0
    3274:	3a000000 	bcc	327c <_start-0x4d84>
    3278:	0000001e 	andeq	r0, r0, lr, lsl r0
    327c:	00011119 	andeq	r1, r1, r9, lsl r1
    3280:	0095c000 	addseq	ip, r5, r0
    3284:	00001000 	andeq	r1, r0, r0
    3288:	92440100 	subls	r0, r4, #0, 2
    328c:	1a000008 	bne	32b4 <_start-0x4d4c>
    3290:	00000128 	andeq	r0, r0, r8, lsr #2
    3294:	00001e4d 	andeq	r1, r0, sp, asr #28
    3298:	00011d1a 	andeq	r1, r1, sl, lsl sp
    329c:	001e7200 	andseq	r7, lr, r0, lsl #4
    32a0:	95c01d00 	strbls	r1, [r0, #3328]	; 0xd00
    32a4:	00040000 	andeq	r0, r4, r0
    32a8:	321e0000 	andscc	r0, lr, #0
    32ac:	85000001 	strhi	r0, [r0, #-1]
    32b0:	0000001e 	andeq	r0, r0, lr, lsl r0
    32b4:	01111900 	tsteq	r1, r0, lsl #18
    32b8:	95e00000 	strbls	r0, [r0, #0]!
    32bc:	00100000 	andseq	r0, r0, r0
    32c0:	48010000 	stmdami	r1, {}	; <UNPREDICTABLE>
    32c4:	000008cb 	andeq	r0, r0, fp, asr #17
    32c8:	0001281a 	andeq	r2, r1, sl, lsl r8
    32cc:	001e9800 	andseq	r9, lr, r0, lsl #16
    32d0:	011d1a00 	tsteq	sp, r0, lsl #20
    32d4:	1eab0000 	cdpne	0, 10, cr0, cr11, cr0, {0}
    32d8:	e01d0000 	ands	r0, sp, r0
    32dc:	04000095 	streq	r0, [r0], #-149	; 0x95
    32e0:	1e000000 	cdpne	0, 0, cr0, cr0, cr0, {0}
    32e4:	00000132 	andeq	r0, r0, r2, lsr r1
    32e8:	00001ebe 			; <UNDEFINED> instruction: 0x00001ebe
    32ec:	11190000 	tstne	r9, r0
    32f0:	04000001 	streq	r0, [r0], #-1
    32f4:	10000096 	mulne	r0, r6, r0
    32f8:	01000000 	mrseq	r0, (UNDEF: 0)
    32fc:	0009044b 	andeq	r0, r9, fp, asr #8
    3300:	01281a00 	teqeq	r8, r0, lsl #20
    3304:	1ed10000 	cdpne	0, 13, cr0, cr1, cr0, {0}
    3308:	1d1a0000 	ldcne	0, cr0, [sl, #-0]
    330c:	e4000001 	str	r0, [r0], #-1
    3310:	1d00001e 	stcne	0, cr0, [r0, #-120]	; 0xffffff88
    3314:	00009604 	andeq	r9, r0, r4, lsl #12
    3318:	00000004 	andeq	r0, r0, r4
    331c:	0001321e 	andeq	r3, r1, lr, lsl r2
    3320:	001ef700 	andseq	pc, lr, r0, lsl #14
    3324:	19000000 	stmdbne	r0, {}	; <UNPREDICTABLE>
    3328:	00000111 	andeq	r0, r0, r1, lsl r1
    332c:	00009628 	andeq	r9, r0, r8, lsr #12
    3330:	00000010 	andeq	r0, r0, r0, lsl r0
    3334:	093d4e01 	ldmdbeq	sp!, {r0, r9, sl, fp, lr}
    3338:	281a0000 	ldmdacs	sl, {}	; <UNPREDICTABLE>
    333c:	0a000001 	beq	3348 <_start-0x4cb8>
    3340:	1a00001f 	bne	33c4 <_start-0x4c3c>
    3344:	0000011d 	andeq	r0, r0, sp, lsl r1
    3348:	00001f1d 	andeq	r1, r0, sp, lsl pc
    334c:	0096281d 	addseq	r2, r6, sp, lsl r8
    3350:	00000400 	andeq	r0, r0, r0, lsl #8
    3354:	01321e00 	teqeq	r2, r0, lsl #28
    3358:	1f300000 	svcne	0x00300000
    335c:	00000000 	andeq	r0, r0, r0
    3360:	00011119 	andeq	r1, r1, r9, lsl r1
    3364:	00964c00 	addseq	r4, r6, r0, lsl #24
    3368:	00001000 	andeq	r1, r0, r0
    336c:	76510100 	ldrbvc	r0, [r1], -r0, lsl #2
    3370:	1a000009 	bne	339c <_start-0x4c64>
    3374:	00000128 	andeq	r0, r0, r8, lsr #2
    3378:	00001f43 	andeq	r1, r0, r3, asr #30
    337c:	00011d1a 	andeq	r1, r1, sl, lsl sp
    3380:	001f5600 	andseq	r5, pc, r0, lsl #12
    3384:	964c1d00 	strbls	r1, [ip], -r0, lsl #26
    3388:	00040000 	andeq	r0, r4, r0
    338c:	321e0000 	andscc	r0, lr, #0
    3390:	69000001 	stmdbvs	r0, {r0}
    3394:	0000001f 	andeq	r0, r0, pc, lsl r0
    3398:	01111900 	tsteq	r1, r0, lsl #18
    339c:	96700000 	ldrbtls	r0, [r0], -r0
    33a0:	00100000 	andseq	r0, r0, r0
    33a4:	54010000 	strpl	r0, [r1], #-0
    33a8:	000009af 	andeq	r0, r0, pc, lsr #19
    33ac:	0001281a 	andeq	r2, r1, sl, lsl r8
    33b0:	001f7c00 	andseq	r7, pc, r0, lsl #24
    33b4:	011d1a00 	tsteq	sp, r0, lsl #20
    33b8:	1f8f0000 	svcne	0x008f0000
    33bc:	701d0000 	andsvc	r0, sp, r0
    33c0:	04000096 	streq	r0, [r0], #-150	; 0x96
    33c4:	1e000000 	cdpne	0, 0, cr0, cr0, cr0, {0}
    33c8:	00000132 	andeq	r0, r0, r2, lsr r1
    33cc:	00001fa2 	andeq	r1, r0, r2, lsr #31
    33d0:	11190000 	tstne	r9, r0
    33d4:	94000001 	strls	r0, [r0], #-1
    33d8:	10000096 	mulne	r0, r6, r0
    33dc:	01000000 	mrseq	r0, (UNDEF: 0)
    33e0:	0009e857 	andeq	lr, r9, r7, asr r8
    33e4:	01281a00 	teqeq	r8, r0, lsl #20
    33e8:	1fb50000 	svcne	0x00b50000
    33ec:	1d1a0000 	ldcne	0, cr0, [sl, #-0]
    33f0:	c8000001 	stmdagt	r0, {r0}
    33f4:	1d00001f 	stcne	0, cr0, [r0, #-124]	; 0xffffff84
    33f8:	00009694 	muleq	r0, r4, r6
    33fc:	00000004 	andeq	r0, r0, r4
    3400:	0001321e 	andeq	r3, r1, lr, lsl r2
    3404:	001fdb00 	andseq	sp, pc, r0, lsl #22
    3408:	19000000 	stmdbne	r0, {}	; <UNPREDICTABLE>
    340c:	00000111 	andeq	r0, r0, r1, lsl r1
    3410:	000096b8 			; <UNDEFINED> instruction: 0x000096b8
    3414:	00000010 	andeq	r0, r0, r0, lsl r0
    3418:	0a1d5a01 	beq	759c24 <__bss_end__+0x74b32c>
    341c:	281a0000 	ldmdacs	sl, {}	; <UNPREDICTABLE>
    3420:	ee000001 	cdp	0, 0, cr0, cr0, cr1, {0}
    3424:	2700001f 	smladcs	r0, pc, r0, r0	; <UNPREDICTABLE>
    3428:	0000011d 	andeq	r0, r0, sp, lsl r1
    342c:	0096b81d 	addseq	fp, r6, sp, lsl r8
    3430:	00000400 	andeq	r0, r0, r0, lsl #8
    3434:	01321e00 	teqeq	r2, r0, lsl #28
    3438:	20010000 	andcs	r0, r1, r0
    343c:	00000000 	andeq	r0, r0, r0
    3440:	00072819 	andeq	r2, r7, r9, lsl r8
    3444:	0096d800 	addseq	sp, r6, r0, lsl #16
    3448:	00003400 	andeq	r3, r0, r0, lsl #8
    344c:	81610100 	cmnhi	r1, r0, lsl #2
    3450:	2700000a 	strcs	r0, [r0, -sl]
    3454:	0000074b 	andeq	r0, r0, fp, asr #14
    3458:	0007421a 	andeq	r4, r7, sl, lsl r2
    345c:	00201400 	eoreq	r1, r0, r0, lsl #8
    3460:	07381a00 	ldreq	r1, [r8, -r0, lsl #20]!
    3464:	20340000 	eorscs	r0, r4, r0
    3468:	d81d0000 	ldmdale	sp, {}	; <UNPREDICTABLE>
    346c:	34000096 	strcc	r0, [r0], #-150	; 0x96
    3470:	1e000000 	cdpne	0, 0, cr0, cr0, cr0, {0}
    3474:	00000756 	andeq	r0, r0, r6, asr r7
    3478:	00002052 	andeq	r2, r0, r2, asr r0
    347c:	0096dc24 	addseq	sp, r6, r4, lsr #24
    3480:	00114700 	andseq	r4, r1, r0, lsl #14
    3484:	96e82500 	strbtls	r2, [r8], r0, lsl #10
    3488:	11520000 	cmpne	r2, r0
    348c:	0a760000 	beq	1d83494 <__bss_end__+0x1d74b9c>
    3490:	01200000 	teqeq	r0, r0
    3494:	00750250 	rsbseq	r0, r5, r0, asr r2
    3498:	96f42400 	ldrbtls	r2, [r4], r0, lsl #8
    349c:	11470000 	mrsne	r0, (UNDEF: 71)
    34a0:	00000000 	andeq	r0, r0, r0
    34a4:	0095dc25 	addseq	sp, r5, r5, lsr #24
    34a8:	00115200 	andseq	r5, r1, r0, lsl #4
    34ac:	000a9500 	andeq	r9, sl, r0, lsl #10
    34b0:	50012000 	andpl	r2, r1, r0
    34b4:	00007502 	andeq	r7, r0, r2, lsl #10
    34b8:	0095fc25 	addseq	pc, r5, r5, lsr #24
    34bc:	00115200 	andseq	r5, r1, r0, lsl #4
    34c0:	000aa900 	andeq	sl, sl, r0, lsl #18
    34c4:	50012000 	andpl	r2, r1, r0
    34c8:	00007502 	andeq	r7, r0, r2, lsl #10
    34cc:	00962025 	addseq	r2, r6, r5, lsr #32
    34d0:	00115200 	andseq	r5, r1, r0, lsl #4
    34d4:	000abd00 	andeq	fp, sl, r0, lsl #26
    34d8:	50012000 	andpl	r2, r1, r0
    34dc:	00007502 	andeq	r7, r0, r2, lsl #10
    34e0:	00964425 	addseq	r4, r6, r5, lsr #8
    34e4:	00115200 	andseq	r5, r1, r0, lsl #4
    34e8:	000ad100 	andeq	sp, sl, r0, lsl #2
    34ec:	50012000 	andpl	r2, r1, r0
    34f0:	00007502 	andeq	r7, r0, r2, lsl #10
    34f4:	00966825 	addseq	r6, r6, r5, lsr #16
    34f8:	00115200 	andseq	r5, r1, r0, lsl #4
    34fc:	000ae500 	andeq	lr, sl, r0, lsl #10
    3500:	50012000 	andpl	r2, r1, r0
    3504:	00007502 	andeq	r7, r0, r2, lsl #10
    3508:	00968c25 	addseq	r8, r6, r5, lsr #24
    350c:	00115200 	andseq	r5, r1, r0, lsl #4
    3510:	000af900 	andeq	pc, sl, r0, lsl #18
    3514:	50012000 	andpl	r2, r1, r0
    3518:	00007502 	andeq	r7, r0, r2, lsl #10
    351c:	0096b025 	addseq	fp, r6, r5, lsr #32
    3520:	00115200 	andseq	r5, r1, r0, lsl #4
    3524:	000b0d00 	andeq	r0, fp, r0, lsl #26
    3528:	50012000 	andpl	r2, r1, r0
    352c:	00007502 	andeq	r7, r0, r2, lsl #10
    3530:	0096d01f 	addseq	sp, r6, pc, lsl r0
    3534:	00115200 	andseq	r5, r1, r0, lsl #4
    3538:	50012000 	andpl	r2, r1, r0
    353c:	00007502 	andeq	r7, r0, r2, lsl #10
    3540:	0a4f2300 	beq	13cc148 <__bss_end__+0x13bd850>
    3544:	6c010000 	stcvs	0, cr0, [r1], {-0}
    3548:	00000025 	andeq	r0, r0, r5, lsr #32
    354c:	0000972c 	andeq	r9, r0, ip, lsr #14
    3550:	00000090 	muleq	r0, r0, r0
    3554:	0c029c01 	stceq	12, cr9, [r2], {1}
    3558:	75140000 	ldrvc	r0, [r4, #-0]
    355c:	226c0100 	rsbcs	r0, ip, #0, 2
    3560:	70000007 	andvc	r0, r0, r7
    3564:	14000020 	strne	r0, [r0], #-32
    3568:	00667562 	rsbeq	r7, r6, r2, ror #10
    356c:	0c026c01 	stceq	12, cr6, [r2], {1}
    3570:	20a40000 	adccs	r0, r4, r0
    3574:	d2130000 	andsle	r0, r3, #0
    3578:	0100000a 	tsteq	r0, sl
    357c:	0000686c 	andeq	r6, r0, ip, ror #16
    3580:	0020d800 	eoreq	sp, r0, r0, lsl #16
    3584:	6e651400 	cdpvs	4, 6, cr1, cr5, cr0, {0}
    3588:	6c010064 	stcvs	0, cr0, [r1], {100}	; 0x64
    358c:	0000004f 	andeq	r0, r0, pc, asr #32
    3590:	00002111 	andeq	r2, r0, r1, lsl r1
    3594:	000ad928 	andeq	sp, sl, r8, lsr #18
    3598:	686c0100 	stmdavs	ip!, {r8}^
    359c:	02000000 	andeq	r0, r0, #0
    35a0:	96290091 			; <UNDEFINED> instruction: 0x96290091
    35a4:	18000001 	stmdane	r0, {r0}
    35a8:	0500000c 	streq	r0, [r0, #-12]
    35ac:	00a22403 	adceq	r2, r2, r3, lsl #8
    35b0:	00691600 	rsbeq	r1, r9, r0, lsl #12
    35b4:	00257001 	eoreq	r7, r5, r1
    35b8:	214b0000 	mrscs	r0, (UNDEF: 75)
    35bc:	b0260000 	eorlt	r0, r6, r0
    35c0:	0100000a 	tsteq	r0, sl
    35c4:	00004f71 	andeq	r4, r0, r1, ror pc
    35c8:	00216a00 	eoreq	r6, r1, r0, lsl #20
    35cc:	974c2400 	strbls	r2, [ip, -r0, lsl #8]
    35d0:	11670000 	cmnne	r7, r0
    35d4:	60250000 	eorvs	r0, r5, r0
    35d8:	6e000097 	mcrvs	0, 0, r0, cr0, cr7, {4}
    35dc:	e2000011 	and	r0, r0, #17
    35e0:	2000000b 	andcs	r0, r0, fp
    35e4:	08025301 	stmdaeq	r2, {r0, r8, r9, ip, lr}
    35e8:	5201206d 	andpl	r2, r1, #109	; 0x6d
    35ec:	a2240305 	eorge	r0, r4, #335544320	; 0x14000000
    35f0:	01200000 	teqeq	r0, r0
    35f4:	b8030551 	stmdalt	r3, {r0, r4, r6, r8, sl}
    35f8:	200000a2 	andcs	r0, r0, r2, lsr #1
    35fc:	03055001 	movweq	r5, #20481	; 0x5001
    3600:	0000a29c 	muleq	r0, ip, r2
    3604:	97642400 	strbls	r2, [r4, -r0, lsl #8]!
    3608:	11840000 	orrne	r0, r4, r0
    360c:	801f0000 	andshi	r0, pc, r0
    3610:	62000097 	andvs	r0, r0, #151	; 0x97
    3614:	20000007 	andcs	r0, r0, r7
    3618:	7a025101 	bvc	97a24 <__bss_end__+0x8912c>
    361c:	50012000 	andpl	r2, r1, r0
    3620:	00007802 	andeq	r7, r0, r2, lsl #16
    3624:	4f040600 	svcmi	0x00040600
    3628:	2a000000 	bcs	3630 <_start-0x49d0>
    362c:	00000090 	muleq	r0, r0, r0
    3630:	00000c18 	andeq	r0, r0, r8, lsl ip
    3634:	0000812b 	andeq	r8, r0, fp, lsr #2
    3638:	07001200 	streq	r1, [r0, -r0, lsl #4]
    363c:	00000c08 	andeq	r0, r0, r8, lsl #24
    3640:	000ab823 	andeq	fp, sl, r3, lsr #16
    3644:	25800100 	strcs	r0, [r0, #256]	; 0x100
    3648:	bc000000 	stclt	0, cr0, [r0], {-0}
    364c:	7c000097 	stcvc	0, cr0, [r0], {151}	; 0x97
    3650:	01000000 	mrseq	r0, (UNDEF: 0)
    3654:	000ce49c 	muleq	ip, ip, r4
    3658:	00751400 	rsbseq	r1, r5, r0, lsl #8
    365c:	07228001 	streq	r8, [r2, -r1]!
    3660:	217d0000 	cmncs	sp, r0
    3664:	62140000 	andsvs	r0, r4, #0
    3668:	01006675 	tsteq	r0, r5, ror r6
    366c:	000c0280 	andeq	r0, ip, r0, lsl #5
    3670:	0021b100 	eoreq	fp, r1, r0, lsl #2
    3674:	0ad21300 	beq	ff48827c <__bss_end__+0xff479984>
    3678:	81010000 	mrshi	r0, (UNDEF: 1)
    367c:	00000068 	andeq	r0, r0, r8, rrx
    3680:	000021e5 	andeq	r2, r0, r5, ror #3
    3684:	000ad913 	andeq	sp, sl, r3, lsl r9
    3688:	68810100 	stmvs	r1, {r8}
    368c:	1e000000 	cdpne	0, 0, cr0, cr0, cr0, {0}
    3690:	29000022 	stmdbcs	r0, {r1, r5}
    3694:	00000196 	muleq	r0, r6, r1
    3698:	00000cf4 	strdeq	r0, [r0], -r4
    369c:	a2380305 	eorsge	r0, r8, #335544320	; 0x14000000
    36a0:	69160000 	ldmdbvs	r6, {}	; <UNPREDICTABLE>
    36a4:	25860100 	strcs	r0, [r6, #256]	; 0x100
    36a8:	52000000 	andpl	r0, r0, #0
    36ac:	24000022 	strcs	r0, [r0], #-34	; 0x22
    36b0:	000097d8 	ldrdeq	r9, [r0], -r8
    36b4:	00001167 	andeq	r1, r0, r7, ror #2
    36b8:	0097ec25 	addseq	lr, r7, r5, lsr #24
    36bc:	00116e00 	andseq	r6, r1, r0, lsl #28
    36c0:	000cc400 	andeq	ip, ip, r0, lsl #8
    36c4:	53012000 	movwpl	r2, #4096	; 0x1000
    36c8:	20830802 	addcs	r0, r3, r2, lsl #16
    36cc:	03055201 	movweq	r5, #20993	; 0x5201
    36d0:	0000a238 	andeq	sl, r0, r8, lsr r2
    36d4:	05510120 	ldrbeq	r0, [r1, #-288]	; 0x120
    36d8:	00a2b803 	adceq	fp, r2, r3, lsl #16
    36dc:	50012000 	andpl	r2, r1, r0
    36e0:	a29c0305 	addsge	r0, ip, #335544320	; 0x14000000
    36e4:	24000000 	strcs	r0, [r0], #-0
    36e8:	000097f0 	strdeq	r9, [r0], -r0
    36ec:	00001184 	andeq	r1, r0, r4, lsl #3
    36f0:	00980c1f 	addseq	r0, r8, pc, lsl ip
    36f4:	00076200 	andeq	r6, r7, r0, lsl #4
    36f8:	51012000 	mrspl	r2, (UNDEF: 1)
    36fc:	20007802 	andcs	r7, r0, r2, lsl #16
    3700:	77025001 	strvc	r5, [r2, -r1]
    3704:	2a000000 	bcs	370c <_start-0x48f4>
    3708:	00000090 	muleq	r0, r0, r0
    370c:	00000cf4 	strdeq	r0, [r0], -r4
    3710:	0000812b 	andeq	r8, r0, fp, lsr #2
    3714:	07001400 	streq	r1, [r0, -r0, lsl #8]
    3718:	00000ce4 	andeq	r0, r0, r4, ror #25
    371c:	00009c23 	andeq	r9, r0, r3, lsr #24
    3720:	d9930100 	ldmible	r3, {r8}
    3724:	38000000 	stmdacc	r0, {}	; <UNPREDICTABLE>
    3728:	c0000098 	mulgt	r0, r8, r0
    372c:	01000000 	mrseq	r0, (UNDEF: 0)
    3730:	000e149c 	muleq	lr, ip, r4
    3734:	78741400 	ldmdavc	r4!, {sl, ip}^
    3738:	4f930100 	svcmi	0x00930100
    373c:	71000000 	mrsvc	r0, (UNDEF: 0)
    3740:	14000022 	strne	r0, [r0], #-34	; 0x22
    3744:	01007872 	tsteq	r0, r2, ror r8
    3748:	00004f93 	muleq	r0, r3, pc	; <UNPREDICTABLE>
    374c:	00229200 	eoreq	r9, r2, r0, lsl #4
    3750:	03711300 	cmneq	r1, #0, 6
    3754:	93010000 	movwls	r0, #4096	; 0x1000
    3758:	00000068 	andeq	r0, r0, r8, rrx
    375c:	000022b3 			; <UNDEFINED> instruction: 0x000022b3
    3760:	000a1e28 	andeq	r1, sl, r8, lsr #28
    3764:	68930100 	ldmvs	r3, {r8}
    3768:	02000000 	andeq	r0, r0, #0
    376c:	6d2c0091 	stcvs	0, cr0, [ip, #-580]!	; 0xfffffdbc
    3770:	01007a68 	tsteq	r0, r8, ror #20
    3774:	00002c9b 	muleq	r0, fp, ip
    3778:	b9270000 	stmdblt	r7!, {}	; <UNPREDICTABLE>
    377c:	0a6f2629 	beq	1bcd028 <__bss_end__+0x1bbe730>
    3780:	9c010000 	stcls	0, cr0, [r1], {-0}
    3784:	0000002c 	andeq	r0, r0, ip, lsr #32
    3788:	000022d1 	ldrdeq	r2, [r0], -r1
    378c:	00019629 	andeq	r9, r1, r9, lsr #12
    3790:	000e2400 	andeq	r2, lr, r0, lsl #8
    3794:	50030500 	andpl	r0, r3, r0, lsl #10
    3798:	170000a2 	strne	r0, [r0, -r2, lsr #1]
    379c:	00009860 	andeq	r9, r0, r0, ror #16
    37a0:	00000008 	andeq	r0, r0, r8
    37a4:	00000d91 	muleq	r0, r1, sp
    37a8:	006e692d 	rsbeq	r6, lr, sp, lsr #18
    37ac:	002c9701 	eoreq	r9, ip, r1, lsl #14
    37b0:	00010000 	andeq	r0, r1, r0
    37b4:	00985825 	addseq	r5, r8, r5, lsr #16
    37b8:	00118b00 	andseq	r8, r1, r0, lsl #22
    37bc:	000da500 	andeq	sl, sp, r0, lsl #10
    37c0:	50012000 	andpl	r2, r1, r0
    37c4:	00007602 	andeq	r7, r0, r2, lsl #12
    37c8:	00986025 	addseq	r6, r8, r5, lsr #32
    37cc:	00119c00 	andseq	r9, r1, r0, lsl #24
    37d0:	000db900 	andeq	fp, sp, r0, lsl #18
    37d4:	50012000 	andpl	r2, r1, r0
    37d8:	00007802 	andeq	r7, r0, r2, lsl #16
    37dc:	00987425 	addseq	r7, r8, r5, lsr #8
    37e0:	00113100 	andseq	r3, r1, r0, lsl #2
    37e4:	000dd200 	andeq	sp, sp, r0, lsl #4
    37e8:	51012000 	mrspl	r2, (UNDEF: 1)
    37ec:	01203101 	teqeq	r0, r1, lsl #2
    37f0:	00760250 	rsbseq	r0, r6, r0, asr r2
    37f4:	98b82400 	ldmls	r8!, {sl, sp}
    37f8:	11670000 	cmnne	r7, r0
    37fc:	cc250000 	stcgt	0, cr0, [r5], #-0
    3800:	6e000098 	mcrvs	0, 0, r0, cr0, cr8, {4}
    3804:	0a000011 	beq	3850 <_start-0x47b0>
    3808:	2000000e 	andcs	r0, r0, lr
    380c:	08025301 	stmdaeq	r2, {r0, r8, r9, ip, lr}
    3810:	5201209d 	andpl	r2, r1, #157	; 0x9d
    3814:	a2500305 	subsge	r0, r0, #335544320	; 0x14000000
    3818:	01200000 	teqeq	r0, r0
    381c:	b8030551 	stmdalt	r3, {r0, r4, r6, r8, sl}
    3820:	200000a2 	andcs	r0, r0, r2, lsr #1
    3824:	03055001 	movweq	r5, #20481	; 0x5001
    3828:	0000a2cc 	andeq	sl, r0, ip, asr #5
    382c:	98d02400 	ldmls	r0, {sl, sp}^
    3830:	11840000 	orrne	r0, r4, r0
    3834:	2a000000 	bcs	383c <_start-0x47c4>
    3838:	00000090 	muleq	r0, r0, r0
    383c:	00000e24 	andeq	r0, r0, r4, lsr #28
    3840:	0000812b 	andeq	r8, r0, fp, lsr #2
    3844:	07001300 	streq	r1, [r0, -r0, lsl #6]
    3848:	00000e14 	andeq	r0, r0, r4, lsl lr
    384c:	000a6223 	andeq	r6, sl, r3, lsr #4
    3850:	25a90100 	strcs	r0, [r9, #256]!	; 0x100
    3854:	f8000000 			; <UNDEFINED> instruction: 0xf8000000
    3858:	3c000098 	stccc	0, cr0, [r0], {152}	; 0x98
    385c:	01000000 	mrseq	r0, (UNDEF: 0)
    3860:	000ecc9c 	muleq	lr, ip, ip
    3864:	06f91300 	ldrbteq	r1, [r9], r0, lsl #6
    3868:	a9010000 	stmdbge	r1, {}	; <UNPREDICTABLE>
    386c:	00000722 	andeq	r0, r0, r2, lsr #14
    3870:	000022ff 	strdeq	r2, [r0], -pc	; <UNPREDICTABLE>
    3874:	73657216 	cmnvc	r5, #1610612737	; 0x60000001
    3878:	25aa0100 	strcs	r0, [sl, #256]!	; 0x100
    387c:	20000000 	andcs	r0, r0, r0
    3880:	29000023 	stmdbcs	r0, {r0, r1, r5}
    3884:	00000196 	muleq	r0, r6, r1
    3888:	00000edc 	ldrdeq	r0, [r0], -ip
    388c:	a2640305 	rsbge	r0, r4, #335544320	; 0x14000000
    3890:	04250000 	strteq	r0, [r5], #-0
    3894:	62000099 	andvs	r0, r0, #153	; 0x99
    3898:	8a000007 	bhi	38bc <_start-0x4744>
    389c:	2000000e 	andcs	r0, r0, lr
    38a0:	09025101 	stmdbeq	r2, {r0, r8, ip, lr}
    38a4:	500120ff 	strdpl	r2, [r1], -pc	; <UNPREDICTABLE>
    38a8:	5001f303 	andpl	pc, r1, r3, lsl #6
    38ac:	99102400 	ldmdbls	r0, {sl, sp}
    38b0:	11670000 	cmnne	r7, r0
    38b4:	24250000 	strtcs	r0, [r5], #-0
    38b8:	6e000099 	mcrvs	0, 0, r0, cr0, cr9, {4}
    38bc:	c2000011 	andgt	r0, r0, #17
    38c0:	2000000e 	andcs	r0, r0, lr
    38c4:	08025301 	stmdaeq	r2, {r0, r8, r9, ip, lr}
    38c8:	520120ac 	andpl	r2, r1, #172	; 0xac
    38cc:	a2640305 	rsbge	r0, r4, #335544320	; 0x14000000
    38d0:	01200000 	teqeq	r0, r0
    38d4:	b8030551 	stmdalt	r3, {r0, r4, r6, r8, sl}
    38d8:	200000a2 	andcs	r0, r0, r2, lsr #1
    38dc:	03055001 	movweq	r5, #20481	; 0x5001
    38e0:	0000a310 	andeq	sl, r0, r0, lsl r3
    38e4:	99282400 	stmdbls	r8!, {sl, sp}
    38e8:	11840000 	orrne	r0, r4, r0
    38ec:	2a000000 	bcs	38f4 <_start-0x470c>
    38f0:	00000090 	muleq	r0, r0, r0
    38f4:	00000edc 	ldrdeq	r0, [r0], -ip
    38f8:	0000812b 	andeq	r8, r0, fp, lsr #2
    38fc:	07000c00 	streq	r0, [r0, -r0, lsl #24]
    3900:	00000ecc 	andeq	r0, r0, ip, asr #29
    3904:	000a9212 	andeq	r9, sl, r2, lsl r2
    3908:	34b00100 	ldrtcc	r0, [r0], #256	; 0x100
    390c:	2c000099 	stccs	0, cr0, [r0], {153}	; 0x99
    3910:	01000000 	mrseq	r0, (UNDEF: 0)
    3914:	000f259c 	muleq	pc, ip, r5	; <UNPREDICTABLE>
    3918:	06f91300 	ldrbteq	r1, [r9], r0, lsl #6
    391c:	b0010000 	andlt	r0, r1, r0
    3920:	00000722 	andeq	r0, r0, r2, lsr #14
    3924:	00002333 	andeq	r2, r0, r3, lsr r3
    3928:	67736d14 			; <UNDEFINED> instruction: 0x67736d14
    392c:	97b00100 	ldrls	r0, [r0, r0, lsl #2]!
    3930:	51000000 	mrspl	r0, (UNDEF: 0)
    3934:	1f000023 	svcne	0x00000023
    3938:	0000994c 	andeq	r9, r0, ip, asr #18
    393c:	00000176 	andeq	r0, r0, r6, ror r1
    3940:	02500120 	subseq	r0, r0, #32, 2
    3944:	00000075 	andeq	r0, r0, r5, ror r0
    3948:	0006fe23 	andeq	pc, r6, r3, lsr #28
    394c:	25b90100 	ldrcs	r0, [r9, #256]!	; 0x100
    3950:	60000000 	andvs	r0, r0, r0
    3954:	84000099 	strhi	r0, [r0], #-153	; 0x99
    3958:	01000000 	mrseq	r0, (UNDEF: 0)
    395c:	0010199c 	mulseq	r0, ip, r9
    3960:	06f91300 	ldrbteq	r1, [r9], r0, lsl #6
    3964:	b9010000 	stmdblt	r1, {}	; <UNPREDICTABLE>
    3968:	00000722 	andeq	r0, r0, r2, lsr #14
    396c:	0000236f 	andeq	r2, r0, pc, ror #6
    3970:	746d662e 	strbtvc	r6, [sp], #-1582	; 0x62e
    3974:	97b90100 	ldrls	r0, [r9, r0, lsl #2]!
    3978:	02000000 	andeq	r0, r0, #0
    397c:	152f7491 	strne	r7, [pc, #-1169]!	; 34f3 <_start-0x4b0d>
    3980:	00667562 	rsbeq	r7, r6, r2, ror #10
    3984:	1019ba01 	andsne	fp, r9, r1, lsl #20
    3988:	91030000 	mrsls	r0, (UNDEF: 3)
    398c:	dd187c9c 	ldcle	12, cr7, [r8, #-624]	; 0xfffffd90
    3990:	01000005 	tsteq	r0, r5
    3994:	000106bc 			; <UNDEFINED> instruction: 0x000106bc
    3998:	98910300 	ldmls	r1, {r8, r9}
    399c:	7a73167c 	bvc	1cc9394 <__bss_end__+0x1cbaa9c>
    39a0:	25be0100 	ldrcs	r0, [lr, #256]!	; 0x100
    39a4:	9b000000 	blls	39ac <_start-0x4654>
    39a8:	29000023 	stmdbcs	r0, {r0, r1, r5}
    39ac:	00000196 	muleq	r0, r6, r1
    39b0:	0000103a 	andeq	r1, r0, sl, lsr r0
    39b4:	a2740305 	rsbsge	r0, r4, #335544320	; 0x14000000
    39b8:	88250000 	stmdahi	r5!, {}	; <UNPREDICTABLE>
    39bc:	ad000099 	stcge	0, cr0, [r0, #-612]	; 0xfffffd9c
    39c0:	c0000011 	andgt	r0, r0, r1, lsl r0
    39c4:	2000000f 	andcs	r0, r0, pc
    39c8:	91025301 	tstls	r2, r1, lsl #6
    39cc:	52012058 	andpl	r2, r1, #88	; 0x58
    39d0:	06549103 	ldrbeq	r9, [r4], -r3, lsl #2
    39d4:	03510120 	cmpeq	r1, #32, 2
    39d8:	2001cc0a 	andcs	ip, r1, sl, lsl #24
    39dc:	91035001 	tstls	r3, r1
    39e0:	24007bfc 	strcs	r7, [r0], #-3068	; 0xbfc
    39e4:	0000999c 	muleq	r0, ip, r9
    39e8:	00001167 	andeq	r1, r0, r7, ror #2
    39ec:	0099b025 	addseq	fp, r9, r5, lsr #32
    39f0:	00116e00 	andseq	r6, r1, r0, lsl #28
    39f4:	000ff800 	andeq	pc, pc, r0, lsl #16
    39f8:	53012000 	movwpl	r2, #4096	; 0x1000
    39fc:	20c00802 	sbccs	r0, r0, r2, lsl #16
    3a00:	03055201 	movweq	r5, #20993	; 0x5201
    3a04:	0000a274 	andeq	sl, r0, r4, ror r2
    3a08:	05510120 	ldrbeq	r0, [r1, #-288]	; 0x120
    3a0c:	00a2b803 	adceq	fp, r2, r3, lsl #16
    3a10:	50012000 	andpl	r2, r1, r0
    3a14:	a3480305 	movtge	r0, #33541	; 0x8305
    3a18:	24000000 	strcs	r0, [r0], #-0
    3a1c:	000099b4 			; <UNDEFINED> instruction: 0x000099b4
    3a20:	00001184 	andeq	r1, r0, r4, lsl #3
    3a24:	0099c01f 	addseq	ip, r9, pc, lsl r0
    3a28:	000ee100 	andeq	lr, lr, r0, lsl #2
    3a2c:	51012000 	mrspl	r2, (UNDEF: 1)
    3a30:	7bfc9103 	blvc	fff27e44 <__bss_end__+0xfff1954c>
    3a34:	02500120 	subseq	r0, r0, #32, 2
    3a38:	00000075 	andeq	r0, r0, r5, ror r0
    3a3c:	0000902a 	andeq	r9, r0, sl, lsr #32
    3a40:	00102a00 	andseq	r2, r0, r0, lsl #20
    3a44:	00813000 	addeq	r3, r1, r0
    3a48:	01cb0000 	biceq	r0, fp, r0
    3a4c:	00902a00 	addseq	r2, r0, r0, lsl #20
    3a50:	103a0000 	eorsne	r0, sl, r0
    3a54:	812b0000 	teqhi	fp, r0
    3a58:	0e000000 	cdpeq	0, 0, cr0, cr0, cr0, {0}
    3a5c:	102a0700 	eorne	r0, sl, r0, lsl #14
    3a60:	e6230000 	strt	r0, [r3], -r0
    3a64:	0100000a 	tsteq	r0, sl
    3a68:	000025c5 	andeq	r2, r0, r5, asr #11
    3a6c:	0099e400 	addseq	lr, r9, r0, lsl #8
    3a70:	00004c00 	andeq	r4, r0, r0, lsl #24
    3a74:	1c9c0100 	ldfnes	f0, [ip], {0}
    3a78:	14000011 	strne	r0, [r0], #-17
    3a7c:	c5010075 	strgt	r0, [r1, #-117]	; 0x75
    3a80:	00000722 	andeq	r0, r0, r2, lsr #14
    3a84:	000023da 	ldrdeq	r2, [r0], -sl
    3a88:	66756214 			; <UNDEFINED> instruction: 0x66756214
    3a8c:	02c50100 	sbceq	r0, r5, #0, 2
    3a90:	fb00000c 	blx	3aca <_start-0x4536>
    3a94:	13000023 	movwne	r0, #35	; 0x23
    3a98:	00000ad2 	ldrdeq	r0, [r0], -r2
    3a9c:	0068c501 	rsbeq	ip, r8, r1, lsl #10
    3aa0:	241c0000 	ldrcs	r0, [ip], #-0
    3aa4:	65140000 	ldrvs	r0, [r4, #-0]
    3aa8:	0100646e 	tsteq	r0, lr, ror #8
    3aac:	00004fc5 	andeq	r4, r0, r5, asr #31
    3ab0:	00243d00 	eoreq	r3, r4, r0, lsl #26
    3ab4:	65721600 	ldrbvs	r1, [r2, #-1536]!	; 0x600
    3ab8:	c6010073 			; <UNDEFINED> instruction: 0xc6010073
    3abc:	00000025 	andeq	r0, r0, r5, lsr #32
    3ac0:	0000245e 	andeq	r2, r0, lr, asr r4
    3ac4:	00019629 	andeq	r9, r1, r9, lsr #12
    3ac8:	00112c00 	andseq	r2, r1, r0, lsl #24
    3acc:	84030500 	strhi	r0, [r3], #-1280	; 0x500
    3ad0:	250000a2 	strcs	r0, [r0, #-162]	; 0xa2
    3ad4:	000099f8 	strdeq	r9, [r0], -r8
    3ad8:	00000b1e 	andeq	r0, r0, lr, lsl fp
    3adc:	000010da 	ldrdeq	r1, [r0], -sl
    3ae0:	03520120 	cmpeq	r2, #32, 2
    3ae4:	205201f3 	ldrshcs	r0, [r2], #-19	; 0xffffffed
    3ae8:	f3035101 	vrhadd.u8	d5, d3, d1
    3aec:	01205101 	teqeq	r0, r1, lsl #2
    3af0:	01f30350 	mvnseq	r0, r0, asr r3
    3af4:	7d022050 	stcvc	0, cr2, [r2, #-320]	; 0xfffffec0
    3af8:	ff090200 			; <UNDEFINED> instruction: 0xff090200
    3afc:	9a042400 	bls	10cb04 <__bss_end__+0xfe20c>
    3b00:	11670000 	cmnne	r7, r0
    3b04:	18250000 	stmdane	r5!, {}	; <UNPREDICTABLE>
    3b08:	6e00009a 	mcrvs	0, 0, r0, cr0, cr10, {4}
    3b0c:	12000011 	andne	r0, r0, #17
    3b10:	20000011 	andcs	r0, r0, r1, lsl r0
    3b14:	08025301 	stmdaeq	r2, {r0, r8, r9, ip, lr}
    3b18:	520120c8 	andpl	r2, r1, #200	; 0xc8
    3b1c:	a2840305 	addge	r0, r4, #335544320	; 0x14000000
    3b20:	01200000 	teqeq	r0, r0
    3b24:	b8030551 	stmdalt	r3, {r0, r4, r6, r8, sl}
    3b28:	200000a2 	andcs	r0, r0, r2, lsr #1
    3b2c:	03055001 	movweq	r5, #20481	; 0x5001
    3b30:	0000a310 	andeq	sl, r0, r0, lsl r3
    3b34:	9a1c2400 	bls	70cb3c <__bss_end__+0x6fe244>
    3b38:	11840000 	orrne	r0, r4, r0
    3b3c:	2a000000 	bcs	3b44 <_start-0x44bc>
    3b40:	00000090 	muleq	r0, r0, r0
    3b44:	0000112c 	andeq	r1, r0, ip, lsr #2
    3b48:	0000812b 	andeq	r8, r0, fp, lsr #2
    3b4c:	07001600 	streq	r1, [r0, -r0, lsl #12]
    3b50:	0000111c 	andeq	r1, r0, ip, lsl r1
    3b54:	00099231 	andeq	r9, r9, r1, lsr r2
    3b58:	47210600 	strmi	r0, [r1, -r0, lsl #12]!
    3b5c:	32000011 	andcc	r0, r0, #17
    3b60:	0000002c 	andeq	r0, r0, ip, lsr #32
    3b64:	00002c32 	andeq	r2, r0, r2, lsr ip
    3b68:	06330000 	ldrteq	r0, [r3], -r0
    3b6c:	07000008 	streq	r0, [r0, -r8]
    3b70:	00002c57 	andeq	r2, r0, r7, asr ip
    3b74:	09303400 	ldmdbeq	r0!, {sl, ip, sp}
    3b78:	24060000 	strcs	r0, [r6], #-0
    3b7c:	00000025 	andeq	r0, r0, r5, lsr #32
    3b80:	00001167 	andeq	r1, r0, r7, ror #2
    3b84:	00002c32 	andeq	r2, r0, r2, lsr ip
    3b88:	6f350000 	svcvs	0x00350000
    3b8c:	07000001 	streq	r0, [r0, -r1]
    3b90:	05cc341e 	strbeq	r3, [ip, #1054]	; 0x41e
    3b94:	29070000 	stmdbcs	r7, {}	; <UNPREDICTABLE>
    3b98:	00000025 	andeq	r0, r0, r5, lsr #32
    3b9c:	00001184 	andeq	r1, r0, r4, lsl #3
    3ba0:	00009732 	andeq	r9, r0, r2, lsr r7
    3ba4:	35002f00 	strcc	r2, [r0, #-3840]	; 0xf00
    3ba8:	00000238 	andeq	r0, r0, r8, lsr r2
    3bac:	e3316607 	teq	r1, #7340032	; 0x700000
    3bb0:	06000009 	streq	r0, [r0], -r9
    3bb4:	00119c1d 	andseq	r9, r1, sp, lsl ip
    3bb8:	002c3200 	eoreq	r3, ip, r0, lsl #4
    3bbc:	31000000 	mrscc	r0, (UNDEF: 0)
    3bc0:	000009ac 	andeq	r0, r0, ip, lsr #19
    3bc4:	11ad1c06 			; <UNDEFINED> instruction: 0x11ad1c06
    3bc8:	2c320000 	ldccs	0, cr0, [r2], #-0
    3bcc:	00000000 	andeq	r0, r0, r0
    3bd0:	0005c936 	andeq	ip, r5, r6, lsr r9
    3bd4:	25020800 	strcs	r0, [r2, #-2048]	; 0x800
    3bd8:	32000000 	andcc	r0, r0, #0
    3bdc:	0000008a 	andeq	r0, r0, sl, lsl #1
    3be0:	00002532 	andeq	r2, r0, r2, lsr r5
    3be4:	00973200 	addseq	r3, r7, r0, lsl #4
    3be8:	06320000 	ldrteq	r0, [r2], -r0
    3bec:	00000001 	andeq	r0, r0, r1
    3bf0:	0003ff00 	andeq	pc, r3, r0, lsl #30
    3bf4:	b2000400 	andlt	r0, r0, #0, 8
    3bf8:	04000011 	streq	r0, [r0], #-17
    3bfc:	00037601 	andeq	r7, r3, r1, lsl #12
    3c00:	0b250100 	bleq	944008 <__bss_end__+0x935710>
    3c04:	05680000 	strbeq	r0, [r8, #-0]!
    3c08:	9a300000 	bls	c03c10 <__bss_end__+0xbf5318>
    3c0c:	01540000 	cmpeq	r4, r0
    3c10:	10ca0000 	sbcne	r0, sl, r0
    3c14:	04020000 	streq	r0, [r2], #-0
    3c18:	746e6905 	strbtvc	r6, [lr], #-2309	; 0x905
    3c1c:	07040300 	streq	r0, [r4, -r0, lsl #6]
    3c20:	00000062 	andeq	r0, r0, r2, rrx
    3c24:	db060103 	blle	184038 <__bss_end__+0x175740>
    3c28:	03000002 	movweq	r0, #2
    3c2c:	02ef0502 	rsceq	r0, pc, #8388608	; 0x800000
    3c30:	04030000 	streq	r0, [r3], #-0
    3c34:	00009305 	andeq	r9, r0, r5, lsl #6
    3c38:	05080300 	streq	r0, [r8, #-768]	; 0x300
    3c3c:	0000008e 	andeq	r0, r0, lr, lsl #1
    3c40:	d9080103 	stmdble	r8, {r0, r1, r8}
    3c44:	03000002 	movweq	r0, #2
    3c48:	01bb0702 			; <UNDEFINED> instruction: 0x01bb0702
    3c4c:	04030000 	streq	r0, [r3], #-0
    3c50:	00005d07 	andeq	r5, r0, r7, lsl #26
    3c54:	07080300 	streq	r0, [r8, -r0, lsl #6]
    3c58:	00000058 	andeq	r0, r0, r8, asr r0
    3c5c:	4a070403 	bmi	1c4c70 <__bss_end__+0x1b6378>
    3c60:	03000002 	movweq	r0, #2
    3c64:	02e20801 	rsceq	r0, r2, #65536	; 0x10000
    3c68:	01040000 	mrseq	r0, (UNDEF: 4)
    3c6c:	00b20c02 	adcseq	r0, r2, r2, lsl #24
    3c70:	75050000 	strvc	r0, [r5, #-0]
    3c74:	00000000 	andeq	r0, r0, r0
    3c78:	00045f05 	andeq	r5, r4, r5, lsl #30
    3c7c:	9c050100 	stflss	f0, [r5], {-0}
    3c80:	04000004 	streq	r0, [r0], #-4
    3c84:	0004ab05 	andeq	sl, r4, r5, lsl #22
    3c88:	ba050500 	blt	145090 <__bss_end__+0x136798>
    3c8c:	06000004 	streq	r0, [r0], -r4
    3c90:	0004c905 	andeq	ip, r4, r5, lsl #18
    3c94:	d8050700 	stmdale	r5, {r8, r9, sl}
    3c98:	03000004 	movweq	r0, #4
    3c9c:	0004e705 	andeq	lr, r4, r5, lsl #14
    3ca0:	06000200 	streq	r0, [r0], -r0, lsl #4
    3ca4:	0000047e 	andeq	r0, r0, lr, ror r4
    3ca8:	00791502 	rsbseq	r1, r9, r2, lsl #10
    3cac:	1b070000 	blne	1c3cb4 <__bss_end__+0x1b53bc>
    3cb0:	0100000b 	tsteq	r0, fp
    3cb4:	009a3037 	addseq	r3, sl, r7, lsr r0
    3cb8:	00009c00 	andeq	r9, r0, r0, lsl #24
    3cbc:	c39c0100 	orrsgt	r0, ip, #0, 2
    3cc0:	08000001 	stmdaeq	r0, {r0}
    3cc4:	00009a38 	andeq	r9, r0, r8, lsr sl
    3cc8:	000003a8 	andeq	r0, r0, r8, lsr #7
    3ccc:	009a4409 	addseq	r4, sl, r9, lsl #8
    3cd0:	0003af00 	andeq	sl, r3, r0, lsl #30
    3cd4:	0000f300 	andeq	pc, r0, r0, lsl #6
    3cd8:	51010a00 	tstpl	r1, r0, lsl #20
    3cdc:	010a3201 	tsteq	sl, r1, lsl #4
    3ce0:	003e0150 	eorseq	r0, lr, r0, asr r1
    3ce4:	009a5009 	addseq	r5, sl, r9
    3ce8:	0003af00 	andeq	sl, r3, r0, lsl #30
    3cec:	00010b00 	andeq	r0, r1, r0, lsl #22
    3cf0:	51010a00 	tstpl	r1, r0, lsl #20
    3cf4:	010a3201 	tsteq	sl, r1, lsl #4
    3cf8:	003f0150 	eorseq	r0, pc, r0, asr r1	; <UNPREDICTABLE>
    3cfc:	009a5408 	addseq	r5, sl, r8, lsl #8
    3d00:	0003a800 	andeq	sl, r3, r0, lsl #16
    3d04:	9a640900 	bls	190610c <__bss_end__+0x18f7814>
    3d08:	03c50000 	biceq	r0, r5, #0
    3d0c:	01280000 	teqeq	r8, r0
    3d10:	010a0000 	mrseq	r0, (UNDEF: 10)
    3d14:	00750250 	rsbseq	r0, r5, r0, asr r2
    3d18:	9a700900 	bls	1c06120 <__bss_end__+0x1bf7828>
    3d1c:	03e60000 	mvneq	r0, #0
    3d20:	013c0000 	teqeq	ip, r0
    3d24:	010a0000 	mrseq	r0, (UNDEF: 10)
    3d28:	00750250 	rsbseq	r0, r5, r0, asr r2
    3d2c:	9a740800 	bls	1d05d34 <__bss_end__+0x1cf743c>
    3d30:	03a80000 			; <UNDEFINED> instruction: 0x03a80000
    3d34:	80090000 	andhi	r0, r9, r0
    3d38:	e600009a 			; <UNDEFINED> instruction: 0xe600009a
    3d3c:	58000003 	stmdapl	r0, {r0, r1}
    3d40:	0a000001 	beq	3d4c <_start-0x42b4>
    3d44:	30015101 	andcc	r5, r1, r1, lsl #2
    3d48:	9a8c0900 	bls	fe306150 <__bss_end__+0xfe2f7858>
    3d4c:	03e60000 	mvneq	r0, #0
    3d50:	016b0000 	cmneq	fp, r0
    3d54:	010a0000 	mrseq	r0, (UNDEF: 10)
    3d58:	00300151 	eorseq	r0, r0, r1, asr r1
    3d5c:	009a9809 	addseq	r9, sl, r9, lsl #16
    3d60:	0003e600 	andeq	lr, r3, r0, lsl #12
    3d64:	00017e00 	andeq	r7, r1, r0, lsl #28
    3d68:	51010a00 	tstpl	r1, r0, lsl #20
    3d6c:	09003601 	stmdbeq	r0, {r0, r9, sl, ip, sp}
    3d70:	00009aa4 	andeq	r9, r0, r4, lsr #21
    3d74:	000003e6 	andeq	r0, r0, r6, ror #7
    3d78:	00000191 	muleq	r0, r1, r1
    3d7c:	0151010a 	cmpeq	r1, sl, lsl #2
    3d80:	b0090033 	andlt	r0, r9, r3, lsr r0
    3d84:	e600009a 			; <UNDEFINED> instruction: 0xe600009a
    3d88:	a6000003 	strge	r0, [r0], -r3
    3d8c:	0a000001 	beq	3d98 <_start-0x4268>
    3d90:	0a035101 	beq	d819c <__bss_end__+0xc98a4>
    3d94:	0900010e 	stmdbeq	r0, {r1, r2, r3, r8}
    3d98:	00009abc 			; <UNDEFINED> instruction: 0x00009abc
    3d9c:	000003e6 	andeq	r0, r0, r6, ror #7
    3da0:	000001b9 			; <UNDEFINED> instruction: 0x000001b9
    3da4:	0151010a 	cmpeq	r1, sl, lsl #2
    3da8:	c0080033 	andgt	r0, r8, r3, lsr r0
    3dac:	a800009a 	stmdage	r0, {r1, r3, r4, r7}
    3db0:	00000003 	andeq	r0, r0, r3
    3db4:	0000b00b 	andeq	fp, r0, fp
    3db8:	25570100 	ldrbcs	r0, [r7, #-256]	; 0x100
    3dbc:	cc000000 	stcgt	0, cr0, [r0], {-0}
    3dc0:	1c00009a 	stcne	0, cr0, [r0], {154}	; 0x9a
    3dc4:	01000000 	mrseq	r0, (UNDEF: 0)
    3dc8:	0001e69c 	muleq	r1, ip, r6
    3dcc:	9adc0800 	bls	ff705dd4 <__bss_end__+0xff6f74dc>
    3dd0:	03c50000 	biceq	r0, r5, #0
    3dd4:	0b000000 	bleq	3ddc <_start-0x4224>
    3dd8:	00000a65 	andeq	r0, r0, r5, ror #20
    3ddc:	00255d01 	eoreq	r5, r5, r1, lsl #26
    3de0:	9ae80000 	bls	ffa03de8 <__bss_end__+0xff9f54f0>
    3de4:	00280000 	eoreq	r0, r8, r0
    3de8:	9c010000 	stcls	0, cr0, [r1], {-0}
    3dec:	00000212 	andeq	r0, r0, r2, lsl r2
    3df0:	009af008 	addseq	pc, sl, r8
    3df4:	0001c300 	andeq	ip, r1, r0, lsl #6
    3df8:	9b040800 	blls	105e00 <__bss_end__+0xf7508>
    3dfc:	03c50000 	biceq	r0, r5, #0
    3e00:	0b000000 	bleq	3e08 <_start-0x41f8>
    3e04:	00000131 	andeq	r0, r0, r1, lsr r1
    3e08:	00256401 	eoreq	r6, r5, r1, lsl #8
    3e0c:	9b100000 	blls	403e14 <__bss_end__+0x3f551c>
    3e10:	001c0000 	andseq	r0, ip, r0
    3e14:	9c010000 	stcls	0, cr0, [r1], {-0}
    3e18:	00000235 	andeq	r0, r0, r5, lsr r2
    3e1c:	009b2008 	addseq	r2, fp, r8
    3e20:	0003c500 	andeq	ip, r3, r0, lsl #10
    3e24:	ee070000 	cdp	0, 0, cr0, cr7, cr0, {0}
    3e28:	01000001 	tsteq	r0, r1
    3e2c:	009b2c6a 	addseq	r2, fp, sl, ror #24
    3e30:	00002c00 	andeq	r2, r0, r0, lsl #24
    3e34:	719c0100 	orrsvc	r0, ip, r0, lsl #2
    3e38:	0c000002 	stceq	0, cr0, [r0], {2}
    3e3c:	6a010063 	bvs	43fd0 <__bss_end__+0x356d8>
    3e40:	0000002c 	andeq	r0, r0, ip, lsr #32
    3e44:	0000247c 	andeq	r2, r0, ip, ror r4
    3e48:	009b3808 	addseq	r3, fp, r8, lsl #16
    3e4c:	00021200 	andeq	r1, r2, r0, lsl #4
    3e50:	9b500d00 	blls	1407258 <__bss_end__+0x13f8960>
    3e54:	03e60000 	mvneq	r0, #0
    3e58:	010a0000 	mrseq	r0, (UNDEF: 10)
    3e5c:	00740251 	rsbseq	r0, r4, r1, asr r2
    3e60:	0d0b0000 	stceq	0, cr0, [fp, #-0]
    3e64:	0100000b 	tsteq	r0, fp
    3e68:	00002574 	andeq	r2, r0, r4, ror r5
    3e6c:	009b5800 	addseq	r5, fp, r0, lsl #16
    3e70:	00000c00 	andeq	r0, r0, r0, lsl #24
    3e74:	949c0100 	ldrls	r0, [ip], #256	; 0x100
    3e78:	08000002 	stmdaeq	r0, {r1}
    3e7c:	00009b60 	andeq	r9, r0, r0, ror #22
    3e80:	000001c3 	andeq	r0, r0, r3, asr #3
    3e84:	0b330b00 	bleq	cc6a8c <__bss_end__+0xcb8194>
    3e88:	78010000 	stmdavc	r1, {}	; <UNPREDICTABLE>
    3e8c:	00000025 	andeq	r0, r0, r5, lsr #32
    3e90:	00009b64 	andeq	r9, r0, r4, ror #22
    3e94:	00000020 	andeq	r0, r0, r0, lsr #32
    3e98:	02c09c01 	sbceq	r9, r0, #256	; 0x100
    3e9c:	6c080000 	stcvs	0, cr0, [r8], {-0}
    3ea0:	7100009b 	swpvc	r0, fp, [r0]	; <UNPREDICTABLE>
    3ea4:	08000002 	stmdaeq	r0, {r1}
    3ea8:	00009b78 	andeq	r9, r0, r8, ror fp
    3eac:	000001e6 	andeq	r0, r0, r6, ror #3
    3eb0:	02c70e00 	sbceq	r0, r7, #0, 28
    3eb4:	16010000 	strne	r0, [r1], -r0
    3eb8:	000002d1 	ldrdeq	r0, [r0], -r1
    3ebc:	9fa80305 	svcls	0x00a80305
    3ec0:	040f0000 	streq	r0, [pc], #-0	; 3ec8 <_start-0x4138>
    3ec4:	000002d7 	ldrdeq	r0, [r0], -r7
    3ec8:	00002c10 	andeq	r2, r0, r0, lsl ip
    3ecc:	010f0e00 	tsteq	pc, r0, lsl #28
    3ed0:	17010000 	strne	r0, [r1, -r0]
    3ed4:	000002d1 	ldrdeq	r0, [r0], -r1
    3ed8:	9f780305 	svcls	0x00780305
    3edc:	610e0000 	mrsvs	r0, (UNDEF: 14)
    3ee0:	01000001 	tsteq	r0, r1
    3ee4:	0002d11a 	andeq	sp, r2, sl, lsl r1
    3ee8:	94030500 	strls	r0, [r3], #-1280	; 0x500
    3eec:	0e00009f 	mcreq	0, 0, r0, cr0, cr15, {4}
    3ef0:	00000229 	andeq	r0, r0, r9, lsr #4
    3ef4:	02d11b01 	sbcseq	r1, r1, #1024	; 0x400
    3ef8:	03050000 	movweq	r0, #20480	; 0x5000
    3efc:	00009f80 	andeq	r9, r0, r0, lsl #31
    3f00:	00029f0e 	andeq	r9, r2, lr, lsl #30
    3f04:	d11c0100 	tstle	ip, r0, lsl #2
    3f08:	05000002 	streq	r0, [r0, #-2]
    3f0c:	009f8403 	addseq	r8, pc, r3, lsl #8
    3f10:	01a30e00 			; <UNDEFINED> instruction: 0x01a30e00
    3f14:	1d010000 	stcne	0, cr0, [r1, #-0]
    3f18:	000002d1 	ldrdeq	r0, [r0], -r1
    3f1c:	9f880305 	svcls	0x00880305
    3f20:	f60e0000 			; <UNDEFINED> instruction: 0xf60e0000
    3f24:	01000004 	tsteq	r0, r4
    3f28:	0002d11e 	andeq	sp, r2, lr, lsl r1
    3f2c:	a4030500 	strge	r0, [r3], #-1280	; 0x500
    3f30:	0e00009f 	mcreq	0, 0, r0, cr0, cr15, {4}
    3f34:	00000100 	andeq	r0, r0, r0, lsl #2
    3f38:	02d11f01 	sbcseq	r1, r1, #1, 30
    3f3c:	03050000 	movweq	r0, #20480	; 0x5000
    3f40:	00009f90 	muleq	r0, r0, pc	; <UNPREDICTABLE>
    3f44:	0001dc0e 	andeq	sp, r1, lr, lsl #24
    3f48:	d1200100 	teqle	r0, r0, lsl #2
    3f4c:	05000002 	streq	r0, [r0, #-2]
    3f50:	009fa003 	addseq	sl, pc, r3
    3f54:	00160e00 	andseq	r0, r6, r0, lsl #28
    3f58:	21010000 	mrscs	r0, (UNDEF: 1)
    3f5c:	000002d1 	ldrdeq	r0, [r0], -r1
    3f60:	9f9c0305 	svcls	0x009c0305
    3f64:	d30e0000 	movwle	r0, #57344	; 0xe000
    3f68:	01000003 	tsteq	r0, r3
    3f6c:	0002d122 	andeq	sp, r2, r2, lsr #2
    3f70:	7c030500 	cfstr32vc	mvfx0, [r3], {-0}
    3f74:	0e00009f 	mcreq	0, 0, r0, cr0, cr15, {4}
    3f78:	000002f9 	strdeq	r0, [r0], -r9
    3f7c:	02d12301 	sbcseq	r2, r1, #67108864	; 0x4000000
    3f80:	03050000 	movweq	r0, #20480	; 0x5000
    3f84:	00009f98 	muleq	r0, r8, pc	; <UNPREDICTABLE>
    3f88:	0001860e 	andeq	r8, r1, lr, lsl #12
    3f8c:	d1240100 	teqle	r4, r0, lsl #2
    3f90:	05000002 	streq	r0, [r0, #-2]
    3f94:	009f8c03 	addseq	r8, pc, r3, lsl #24
    3f98:	00f41100 	rscseq	r1, r4, r0, lsl #2
    3f9c:	87030000 	strhi	r0, [r3, -r0]
    3fa0:	00025312 	andeq	r5, r2, r2, lsl r3
    3fa4:	c5190200 	ldrgt	r0, [r9, #-512]	; 0x200
    3fa8:	13000003 	movwne	r0, #3
    3fac:	0000002c 	andeq	r0, r0, ip, lsr #32
    3fb0:	0000b213 	andeq	fp, r0, r3, lsl r2
    3fb4:	78140000 	ldmdavc	r4, {}	; <UNPREDICTABLE>
    3fb8:	03000004 	movweq	r0, #4
    3fbc:	00002ca6 	andeq	r2, r0, r6, lsr #25
    3fc0:	0003da00 	andeq	sp, r3, r0, lsl #20
    3fc4:	03da1300 	bicseq	r1, sl, #0, 6
    3fc8:	0f000000 	svceq	0x00000000
    3fcc:	0003e004 	andeq	lr, r3, r4
    3fd0:	03e51500 	mvneq	r1, #0, 10
    3fd4:	12160000 	andsne	r0, r6, #0
    3fd8:	000003ec 	andeq	r0, r0, ip, ror #7
    3fdc:	03fc9a03 	mvnseq	r9, #12288	; 0x3000
    3fe0:	fc130000 	ldc2	0, cr0, [r3], {-0}
    3fe4:	13000003 	movwne	r0, #3
    3fe8:	0000002c 	andeq	r0, r0, ip, lsr #32
    3fec:	e5040f00 	str	r0, [r4, #-3840]	; 0xf00
    3ff0:	00000003 	andeq	r0, r0, r3
    3ff4:	0000058d 	andeq	r0, r0, sp, lsl #11
    3ff8:	12e00004 	rscne	r0, r0, #4
    3ffc:	01040000 	mrseq	r0, (UNDEF: 4)
    4000:	00000376 	andeq	r0, r0, r6, ror r3
    4004:	000bfe01 	andeq	pc, fp, r1, lsl #28
    4008:	00056800 	andeq	r6, r5, r0, lsl #16
    400c:	009b8400 	addseq	r8, fp, r0, lsl #8
    4010:	00020000 	andeq	r0, r2, r0
    4014:	0011cf00 	andseq	ip, r1, r0, lsl #30
    4018:	05040200 	streq	r0, [r4, #-512]	; 0x200
    401c:	00746e69 	rsbseq	r6, r4, r9, ror #28
    4020:	62070403 	andvs	r0, r7, #50331648	; 0x3000000
    4024:	03000000 	movweq	r0, #0
    4028:	02db0601 	sbcseq	r0, fp, #1048576	; 0x100000
    402c:	02030000 	andeq	r0, r3, #0
    4030:	0002ef05 	andeq	lr, r2, r5, lsl #30
    4034:	05040300 	streq	r0, [r4, #-768]	; 0x300
    4038:	00000093 	muleq	r0, r3, r0
    403c:	8e050803 	cdphi	8, 0, cr0, cr5, cr3, {0}
    4040:	03000000 	movweq	r0, #0
    4044:	02d90801 	sbcseq	r0, r9, #65536	; 0x10000
    4048:	02030000 	andeq	r0, r3, #0
    404c:	0001bb07 	andeq	fp, r1, r7, lsl #22
    4050:	07040300 	streq	r0, [r4, -r0, lsl #6]
    4054:	0000005d 	andeq	r0, r0, sp, asr r0
    4058:	58070803 	stmdapl	r7, {r0, r1, fp}
    405c:	03000000 	movweq	r0, #0
    4060:	024a0704 	subeq	r0, sl, #4, 14	; 0x100000
    4064:	01030000 	mrseq	r0, (UNDEF: 3)
    4068:	0002e208 	andeq	lr, r2, r8, lsl #4
    406c:	7f040400 	svcvc	0x00040400
    4070:	05000000 	streq	r0, [r0, #-0]
    4074:	00000072 	andeq	r0, r0, r2, ror r0
    4078:	00007206 	andeq	r7, r0, r6, lsl #4
    407c:	00009400 	andeq	r9, r0, r0, lsl #8
    4080:	006b0700 	rsbeq	r0, fp, r0, lsl #14
    4084:	00190000 	andseq	r0, r9, r0
    4088:	14030408 	strne	r0, [r3], #-1032	; 0x408
    408c:	0000010b 	andeq	r0, r0, fp, lsl #2
    4090:	000ca409 	andeq	sl, ip, r9, lsl #8
    4094:	82e48000 	rschi	r8, r4, #0
    4098:	89090280 	stmdbhi	r9, {r7, r9}
    409c:	8000000b 	andhi	r0, r0, fp
    40a0:	028082e4 	addeq	r8, r0, #228, 4	; 0x4000000e
    40a4:	000c1e09 	andeq	r1, ip, r9, lsl #28
    40a8:	82e48400 	rschi	r8, r4, #0, 8
    40ac:	f0090280 			; <UNDEFINED> instruction: 0xf0090280
    40b0:	8800000b 	stmdahi	r0, {r0, r1, r3}
    40b4:	028082e4 	addeq	r8, r0, #228, 4	; 0x4000000e
    40b8:	000b6c09 	andeq	r6, fp, r9, lsl #24
    40bc:	82e48c00 	rschi	r8, r4, #0, 24
    40c0:	ad090280 	sfmge	f0, 4, [r9, #-512]	; 0xfffffe00
    40c4:	9000000b 	andls	r0, r0, fp
    40c8:	028082e4 	addeq	r8, r0, #228, 4	; 0x4000000e
    40cc:	000bbb09 	andeq	fp, fp, r9, lsl #22
    40d0:	82e49400 	rschi	r9, r4, #0, 8
    40d4:	9b090280 	blls	244adc <__bss_end__+0x2361e4>
    40d8:	9800000b 	stmdals	r0, {r0, r1, r3}
    40dc:	028082e4 	addeq	r8, r0, #228, 4	; 0x4000000e
    40e0:	000c7009 	andeq	r7, ip, r9
    40e4:	82e49c00 	rschi	r9, r4, #0, 24
    40e8:	7f090280 	svcvc	0x00090280
    40ec:	a000000c 	andge	r0, r0, ip
    40f0:	028082e4 	addeq	r8, r0, #228, 4	; 0x4000000e
    40f4:	000b5909 	andeq	r5, fp, r9, lsl #18
    40f8:	82e4a400 	rschi	sl, r4, #0, 8
    40fc:	0a000280 	beq	4b04 <_start-0x34fc>
    4100:	00000296 	muleq	r0, r6, r2
    4104:	9b840501 	blls	fe105510 <__bss_end__+0xfe0f6c18>
    4108:	00680000 	rsbeq	r0, r8, r0
    410c:	9c010000 	stcls	0, cr0, [r1], {-0}
    4110:	000001b7 			; <UNDEFINED> instruction: 0x000001b7
    4114:	000b780b 	andeq	r7, fp, fp, lsl #16
    4118:	2c110100 	ldfcss	f0, [r1], {-0}
    411c:	0b000000 	bleq	4124 <_start-0x3edc>
    4120:	00000bc9 	andeq	r0, r0, r9, asr #23
    4124:	002c1201 	eoreq	r1, ip, r1, lsl #4
    4128:	640c0000 	strvs	r0, [ip], #-0
    412c:	01007473 	tsteq	r0, r3, ror r4
    4130:	0001b716 	andeq	fp, r1, r6, lsl r7
    4134:	730d0000 	movwvc	r0, #53248	; 0xd000
    4138:	01006372 	tsteq	r0, r2, ror r3
    413c:	0001b717 	andeq	fp, r1, r7, lsl r7
    4140:	006e0e00 	rsbeq	r0, lr, r0, lsl #28
    4144:	002c1801 	eoreq	r1, ip, r1, lsl #16
    4148:	50010000 	andpl	r0, r1, r0
    414c:	009bb40f 	addseq	fp, fp, pc, lsl #8
    4150:	00002400 	andeq	r2, r0, r0, lsl #8
    4154:	00017300 	andeq	r7, r1, r0, lsl #6
    4158:	00691000 	rsbeq	r1, r9, r0
    415c:	00251901 	eoreq	r1, r5, r1, lsl #18
    4160:	249a0000 	ldrcs	r0, [sl], #0
    4164:	11000000 	mrsne	r0, (UNDEF: 0)
    4168:	00009b94 	muleq	r0, r4, fp
    416c:	0000054f 	andeq	r0, r0, pc, asr #10
    4170:	00000190 	muleq	r0, r0, r1
    4174:	02510112 	subseq	r0, r1, #-2147483644	; 0x80000004
    4178:	0112ff09 	tsteq	r2, r9, lsl #30
    417c:	1c0c0550 	cfstr32ne	mvfx0, [ip], {80}	; 0x50
    4180:	002000b2 	strhteq	r0, [r0], -r2
    4184:	009ba011 	addseq	sl, fp, r1, lsl r0
    4188:	00054f00 	andeq	r4, r5, r0, lsl #30
    418c:	0001ad00 	andeq	sl, r1, r0, lsl #26
    4190:	51011200 	mrspl	r1, R9_usr
    4194:	12ff0902 	rscsne	r0, pc, #32768	; 0x8000
    4198:	0c055001 	stceq	0, cr5, [r5], {1}
    419c:	2000b220 	andcs	fp, r0, r0, lsr #4
    41a0:	9ba41300 	blls	fe908da8 <__bss_end__+0xfe8fa4b0>
    41a4:	05650000 	strbeq	r0, [r5, #-0]!
    41a8:	04000000 	streq	r0, [r0], #-0
    41ac:	00002c04 	andeq	r2, r0, r4, lsl #24
    41b0:	0c8e0a00 	vstmiaeq	lr, {s0-s-1}
    41b4:	1f010000 	svcne	0x00010000
    41b8:	00009bec 	andeq	r9, r0, ip, ror #23
    41bc:	00000044 	andeq	r0, r0, r4, asr #32
    41c0:	02429c01 	subeq	r9, r2, #256	; 0x100
    41c4:	70140000 	andsvc	r0, r4, r0
    41c8:	1f010063 	svcne	0x00010063
    41cc:	0000002c 	andeq	r0, r0, ip, lsr #32
    41d0:	000024b9 			; <UNDEFINED> instruction: 0x000024b9
    41d4:	00019615 	andeq	r9, r1, r5, lsl r6
    41d8:	00025200 	andeq	r5, r2, r0, lsl #4
    41dc:	6c030500 	cfstr32vs	mvfx0, [r3], {-0}
    41e0:	130000a3 	movwne	r0, #163	; 0xa3
    41e4:	00009bfc 	strdeq	r9, [r0], -ip
    41e8:	0000056c 	andeq	r0, r0, ip, ror #10
    41ec:	009c1c11 	addseq	r1, ip, r1, lsl ip
    41f0:	00057300 	andeq	r7, r5, r0, lsl #6
    41f4:	00023800 	andeq	r3, r2, r0, lsl #16
    41f8:	53011200 	movwpl	r1, #4608	; 0x1200
    41fc:	12200802 	eorne	r0, r0, #131072	; 0x20000
    4200:	03055201 	movweq	r5, #20993	; 0x5201
    4204:	0000a36c 	andeq	sl, r0, ip, ror #6
    4208:	05510112 	ldrbeq	r0, [r1, #-274]	; 0x112
    420c:	00a43803 	adceq	r3, r4, r3, lsl #16
    4210:	50011200 	andpl	r1, r1, r0, lsl #4
    4214:	a3fc0305 	mvnsge	r0, #335544320	; 0x14000000
    4218:	02120000 	andseq	r0, r2, #0
    421c:	7402047d 	strvc	r0, [r2], #-1149	; 0x47d
    4220:	7d021200 	sfmvc	f1, 4, [r2, #-0]
    4224:	58030500 	stmdapl	r3, {r8, sl}
    4228:	000000a4 	andeq	r0, r0, r4, lsr #1
    422c:	009c2013 	addseq	r2, ip, r3, lsl r0
    4230:	00058900 	andeq	r8, r5, r0, lsl #18
    4234:	72060000 	andvc	r0, r6, #0
    4238:	52000000 	andpl	r0, r0, #0
    423c:	07000002 	streq	r0, [r0, -r2]
    4240:	0000006b 	andeq	r0, r0, fp, rrx
    4244:	42050015 	andmi	r0, r5, #21
    4248:	0a000002 	beq	4258 <_start-0x3da8>
    424c:	00000c56 	andeq	r0, r0, r6, asr ip
    4250:	9c302401 	cfldrsls	mvf2, [r0], #-4
    4254:	00440000 	subeq	r0, r4, r0
    4258:	9c010000 	stcls	0, cr0, [r1], {-0}
    425c:	000002dc 	ldrdeq	r0, [r0], -ip
    4260:	00637014 	rsbeq	r7, r3, r4, lsl r0
    4264:	002c2401 	eoreq	r2, ip, r1, lsl #8
    4268:	24d70000 	ldrbcs	r0, [r7], #0
    426c:	96150000 	ldrls	r0, [r5], -r0
    4270:	dc000001 	stcle	0, cr0, [r0], {1}
    4274:	05000002 	streq	r0, [r0, #-2]
    4278:	00a38403 	adceq	r8, r3, r3, lsl #8
    427c:	9c401300 	mcrrls	3, 0, r1, r0, cr0
    4280:	056c0000 	strbeq	r0, [ip, #-0]!
    4284:	60110000 	andsvs	r0, r1, r0
    4288:	7300009c 	movwvc	r0, #156	; 0x9c
    428c:	d2000005 	andle	r0, r0, #5
    4290:	12000002 	andne	r0, r0, #2
    4294:	08025301 	stmdaeq	r2, {r0, r8, r9, ip, lr}
    4298:	52011225 	andpl	r1, r1, #1342177282	; 0x50000002
    429c:	a3840305 	orrge	r0, r4, #335544320	; 0x14000000
    42a0:	01120000 	tsteq	r2, r0
    42a4:	38030551 	stmdacc	r3, {r0, r4, r6, r8, sl}
    42a8:	120000a4 	andne	r0, r0, #164	; 0xa4
    42ac:	03055001 	movweq	r5, #20481	; 0x5001
    42b0:	0000a3fc 	strdeq	sl, [r0], -ip
    42b4:	047d0212 	ldrbteq	r0, [sp], #-530	; 0x212
    42b8:	12007402 	andne	r7, r0, #33554432	; 0x2000000
    42bc:	05007d02 	streq	r7, [r0, #-3330]	; 0xd02
    42c0:	00a46003 	adceq	r6, r4, r3
    42c4:	64130000 	ldrvs	r0, [r3], #-0
    42c8:	8900009c 	stmdbhi	r0, {r2, r3, r4, r7}
    42cc:	00000005 	andeq	r0, r0, r5
    42d0:	00008405 	andeq	r8, r0, r5, lsl #8
    42d4:	0c490a00 	mcrreq	10, 0, r0, r9, cr0
    42d8:	27010000 	strcs	r0, [r1, -r0]
    42dc:	00009c74 	andeq	r9, r0, r4, ror ip
    42e0:	00000044 	andeq	r0, r0, r4, asr #32
    42e4:	03669c01 	cmneq	r6, #256	; 0x100
    42e8:	70140000 	andsvc	r0, r4, r0
    42ec:	27010063 	strcs	r0, [r1, -r3, rrx]
    42f0:	0000002c 	andeq	r0, r0, ip, lsr #32
    42f4:	000024f5 	strdeq	r2, [r0], -r5
    42f8:	00019615 	andeq	r9, r1, r5, lsl r6
    42fc:	00037600 	andeq	r7, r3, r0, lsl #12
    4300:	a0030500 	andge	r0, r3, r0, lsl #10
    4304:	130000a3 	movwne	r0, #163	; 0xa3
    4308:	00009c84 	andeq	r9, r0, r4, lsl #25
    430c:	0000056c 	andeq	r0, r0, ip, ror #10
    4310:	009ca411 	addseq	sl, ip, r1, lsl r4
    4314:	00057300 	andeq	r7, r5, r0, lsl #6
    4318:	00035c00 	andeq	r5, r3, r0, lsl #24
    431c:	53011200 	movwpl	r1, #4608	; 0x1200
    4320:	12280802 	eorne	r0, r8, #131072	; 0x20000
    4324:	03055201 	movweq	r5, #20993	; 0x5201
    4328:	0000a3a0 	andeq	sl, r0, r0, lsr #7
    432c:	05510112 	ldrbeq	r0, [r1, #-274]	; 0x112
    4330:	00a43803 	adceq	r3, r4, r3, lsl #16
    4334:	50011200 	andpl	r1, r1, r0, lsl #4
    4338:	a3fc0305 	mvnsge	r0, #335544320	; 0x14000000
    433c:	02120000 	andseq	r0, r2, #0
    4340:	7402047d 	strvc	r0, [r2], #-1149	; 0x47d
    4344:	7d021200 	sfmvc	f1, 4, [r2, #-0]
    4348:	70030500 	andvc	r0, r3, r0, lsl #10
    434c:	000000a4 	andeq	r0, r0, r4, lsr #1
    4350:	009ca813 	addseq	sl, ip, r3, lsl r8
    4354:	00058900 	andeq	r8, r5, r0, lsl #18
    4358:	72060000 	andvc	r0, r6, #0
    435c:	76000000 	strvc	r0, [r0], -r0
    4360:	07000003 	streq	r0, [r0, -r3]
    4364:	0000006b 	andeq	r0, r0, fp, rrx
    4368:	6605000c 	strvs	r0, [r5], -ip
    436c:	0a000003 	beq	4380 <_start-0x3c80>
    4370:	00000c2c 	andeq	r0, r0, ip, lsr #24
    4374:	9cb82a01 	vldmials	r8!, {s4}
    4378:	00440000 	subeq	r0, r4, r0
    437c:	9c010000 	stcls	0, cr0, [r1], {-0}
    4380:	00000400 	andeq	r0, r0, r0, lsl #8
    4384:	00637014 	rsbeq	r7, r3, r4, lsl r0
    4388:	002c2a01 	eoreq	r2, ip, r1, lsl #20
    438c:	25130000 	ldrcs	r0, [r3, #-0]
    4390:	96150000 	ldrls	r0, [r5], -r0
    4394:	10000001 	andne	r0, r0, r1
    4398:	05000004 	streq	r0, [r0, #-4]
    439c:	00a3b003 	adceq	fp, r3, r3
    43a0:	9cc81300 	stclls	3, cr1, [r8], {0}
    43a4:	056c0000 	strbeq	r0, [ip, #-0]!
    43a8:	e8110000 	ldmda	r1, {}	; <UNPREDICTABLE>
    43ac:	7300009c 	movwvc	r0, #156	; 0x9c
    43b0:	f6000005 			; <UNDEFINED> instruction: 0xf6000005
    43b4:	12000003 	andne	r0, r0, #3
    43b8:	08025301 	stmdaeq	r2, {r0, r8, r9, ip, lr}
    43bc:	5201122b 	andpl	r1, r1, #-1342177278	; 0xb0000002
    43c0:	a3b00305 	movsge	r0, #335544320	; 0x14000000
    43c4:	01120000 	tsteq	r2, r0
    43c8:	38030551 	stmdacc	r3, {r0, r4, r6, r8, sl}
    43cc:	120000a4 	andne	r0, r0, #164	; 0xa4
    43d0:	03055001 	movweq	r5, #20481	; 0x5001
    43d4:	0000a3fc 	strdeq	sl, [r0], -ip
    43d8:	047d0212 	ldrbteq	r0, [sp], #-530	; 0x212
    43dc:	12007402 	andne	r7, r0, #33554432	; 0x2000000
    43e0:	05007d02 	streq	r7, [r0, #-3330]	; 0xd02
    43e4:	00a48003 	adceq	r8, r4, r3
    43e8:	ec130000 	ldc	0, cr0, [r3], {-0}
    43ec:	8900009c 	stmdbhi	r0, {r2, r3, r4, r7}
    43f0:	00000005 	andeq	r0, r0, r5
    43f4:	00007206 	andeq	r7, r0, r6, lsl #4
    43f8:	00041000 	andeq	r1, r4, r0
    43fc:	006b0700 	rsbeq	r0, fp, r0, lsl #14
    4400:	001c0000 	andseq	r0, ip, r0
    4404:	00040005 	andeq	r0, r4, r5
    4408:	0b430a00 	bleq	10c6c10 <__bss_end__+0x10b8318>
    440c:	2d010000 	stccs	0, cr0, [r1, #-0]
    4410:	00009cfc 	strdeq	r9, [r0], -ip
    4414:	00000044 	andeq	r0, r0, r4, asr #32
    4418:	049a9c01 	ldreq	r9, [sl], #3073	; 0xc01
    441c:	70140000 	andsvc	r0, r4, r0
    4420:	2d010063 	stccs	0, cr0, [r1, #-396]	; 0xfffffe74
    4424:	0000002c 	andeq	r0, r0, ip, lsr #32
    4428:	00002531 	andeq	r2, r0, r1, lsr r5
    442c:	00019615 	andeq	r9, r1, r5, lsl r6
    4430:	00049a00 	andeq	r9, r4, r0, lsl #20
    4434:	d0030500 	andle	r0, r3, r0, lsl #10
    4438:	130000a3 	movwne	r0, #163	; 0xa3
    443c:	00009d0c 	andeq	r9, r0, ip, lsl #26
    4440:	0000056c 	andeq	r0, r0, ip, ror #10
    4444:	009d2c11 	addseq	r2, sp, r1, lsl ip
    4448:	00057300 	andeq	r7, r5, r0, lsl #6
    444c:	00049000 	andeq	r9, r4, r0
    4450:	53011200 	movwpl	r1, #4608	; 0x1200
    4454:	122e0802 	eorne	r0, lr, #131072	; 0x20000
    4458:	03055201 	movweq	r5, #20993	; 0x5201
    445c:	0000a3d0 	ldrdeq	sl, [r0], -r0
    4460:	05510112 	ldrbeq	r0, [r1, #-274]	; 0x112
    4464:	00a43803 	adceq	r3, r4, r3, lsl #16
    4468:	50011200 	andpl	r1, r1, r0, lsl #4
    446c:	a3fc0305 	mvnsge	r0, #335544320	; 0x14000000
    4470:	02120000 	andseq	r0, r2, #0
    4474:	7402047d 	strvc	r0, [r2], #-1149	; 0x47d
    4478:	7d021200 	sfmvc	f1, 4, [r2, #-0]
    447c:	98030500 	stmdals	r3, {r8, sl}
    4480:	000000a4 	andeq	r0, r0, r4, lsr #1
    4484:	009d3013 	addseq	r3, sp, r3, lsl r0
    4488:	00058900 	andeq	r8, r5, r0, lsl #18
    448c:	42050000 	andmi	r0, r5, #0
    4490:	0a000002 	beq	44a0 <_start-0x3b60>
    4494:	00000bde 	ldrdeq	r0, [r0], -lr
    4498:	9d403001 	stclls	0, cr3, [r0, #-4]
    449c:	00440000 	subeq	r0, r4, r0
    44a0:	9c010000 	stcls	0, cr0, [r1], {-0}
    44a4:	00000524 	andeq	r0, r0, r4, lsr #10
    44a8:	00637014 	rsbeq	r7, r3, r4, lsl r0
    44ac:	002c3001 	eoreq	r3, ip, r1
    44b0:	254f0000 	strbcs	r0, [pc, #-0]	; 44b8 <_start-0x3b48>
    44b4:	96150000 	ldrls	r0, [r5], -r0
    44b8:	34000001 	strcc	r0, [r0], #-1
    44bc:	05000005 	streq	r0, [r0, #-5]
    44c0:	00a3e803 	adceq	lr, r3, r3, lsl #16
    44c4:	9d501300 	ldclls	3, cr1, [r0, #-0]
    44c8:	056c0000 	strbeq	r0, [ip, #-0]!
    44cc:	70110000 	andsvc	r0, r1, r0
    44d0:	7300009d 	movwvc	r0, #157	; 0x9d
    44d4:	1a000005 	bne	44f0 <_start-0x3b10>
    44d8:	12000005 	andne	r0, r0, #5
    44dc:	08025301 	stmdaeq	r2, {r0, r8, r9, ip, lr}
    44e0:	52011231 	andpl	r1, r1, #268435459	; 0x10000003
    44e4:	a3e80305 	mvnge	r0, #335544320	; 0x14000000
    44e8:	01120000 	tsteq	r2, r0
    44ec:	38030551 	stmdacc	r3, {r0, r4, r6, r8, sl}
    44f0:	120000a4 	andne	r0, r0, #164	; 0xa4
    44f4:	03055001 	movweq	r5, #20481	; 0x5001
    44f8:	0000a3fc 	strdeq	sl, [r0], -ip
    44fc:	047d0212 	ldrbteq	r0, [sp], #-530	; 0x212
    4500:	12007402 	andne	r7, r0, #33554432	; 0x2000000
    4504:	05007d02 	streq	r7, [r0, #-3330]	; 0xd02
    4508:	00a4a803 	adceq	sl, r4, r3, lsl #16
    450c:	74130000 	ldrvc	r0, [r3], #-0
    4510:	8900009d 	stmdbhi	r0, {r0, r2, r3, r4, r7}
    4514:	00000005 	andeq	r0, r0, r5
    4518:	00007206 	andeq	r7, r0, r6, lsl #4
    451c:	00053400 	andeq	r3, r5, r0, lsl #8
    4520:	006b0700 	rsbeq	r0, fp, r0, lsl #14
    4524:	00110000 	andseq	r0, r1, r0
    4528:	00052405 	andeq	r2, r5, r5, lsl #8
    452c:	0b780b00 	bleq	1e07134 <__bss_end__+0x1df883c>
    4530:	11010000 	mrsne	r0, (UNDEF: 1)
    4534:	0000002c 	andeq	r0, r0, ip, lsr #32
    4538:	000bc90b 	andeq	ip, fp, fp, lsl #18
    453c:	2c120100 	ldfcss	f0, [r2], {-0}
    4540:	16000000 	strne	r0, [r0], -r0
    4544:	000007f3 	strdeq	r0, [r0], -r3
    4548:	05659902 	strbeq	r9, [r5, #-2306]!	; 0x902
    454c:	2c170000 	ldccs	0, cr0, [r7], {-0}
    4550:	17000000 	strne	r0, [r0, -r0]
    4554:	0000002c 	andeq	r0, r0, ip, lsr #32
    4558:	00f41800 	rscseq	r1, r4, r0, lsl #16
    455c:	87020000 	strhi	r0, [r2, -r0]
    4560:	00016f18 	andeq	r6, r1, r8, lsl pc
    4564:	191e0200 	ldmdbne	lr, {r9}
    4568:	000005cc 	andeq	r0, r0, ip, asr #11
    456c:	00252902 	eoreq	r2, r5, r2, lsl #18
    4570:	05890000 	streq	r0, [r9]
    4574:	79170000 	ldmdbvc	r7, {}	; <UNPREDICTABLE>
    4578:	1a000000 	bne	4580 <_start-0x3a80>
    457c:	02381800 	eorseq	r1, r8, #0, 16
    4580:	66020000 	strvs	r0, [r2], -r0
    4584:	0001c300 	andeq	ip, r1, r0, lsl #6
    4588:	37000400 	strcc	r0, [r0, -r0, lsl #8]
    458c:	04000014 	streq	r0, [r0], #-20
    4590:	00037601 	andeq	r7, r3, r1, lsl #12
    4594:	0cb40100 	ldfeqs	f0, [r4]
    4598:	05680000 	strbeq	r0, [r8, #-0]!
    459c:	9ec00000 	cdpls	0, 12, cr0, cr0, cr0, {0}
    45a0:	00500000 	subseq	r0, r0, r0
    45a4:	12a90000 	adcne	r0, r9, #0
    45a8:	04020000 	streq	r0, [r2], #-0
    45ac:	746e6905 	strbtvc	r6, [lr], #-2309	; 0x905
    45b0:	00000300 	andeq	r0, r0, r0, lsl #6
    45b4:	d4020000 	strle	r0, [r2], #-0
    45b8:	00000037 	andeq	r0, r0, r7, lsr r0
    45bc:	62070404 	andvs	r0, r7, #4, 8	; 0x4000000
    45c0:	04000000 	streq	r0, [r0], #-0
    45c4:	02db0601 	sbcseq	r0, fp, #1048576	; 0x100000
    45c8:	02040000 	andeq	r0, r4, #0
    45cc:	0002ef05 	andeq	lr, r2, r5, lsl #30
    45d0:	05040400 	streq	r0, [r4, #-1024]	; 0x400
    45d4:	00000093 	muleq	r0, r3, r0
    45d8:	8e050804 	cdphi	8, 0, cr0, cr5, cr4, {0}
    45dc:	03000000 	movweq	r0, #0
    45e0:	00000470 	andeq	r0, r0, r0, ror r4
    45e4:	00652e03 	rsbeq	r2, r5, r3, lsl #28
    45e8:	01040000 	mrseq	r0, (UNDEF: 4)
    45ec:	0002d908 	andeq	sp, r2, r8, lsl #18
    45f0:	07020400 	streq	r0, [r2, -r0, lsl #8]
    45f4:	000001bb 			; <UNDEFINED> instruction: 0x000001bb
    45f8:	00036803 	andeq	r6, r3, r3, lsl #16
    45fc:	7e340300 	cdpvc	3, 3, cr0, cr4, cr0, {0}
    4600:	04000000 	streq	r0, [r0], #-0
    4604:	005d0704 	subseq	r0, sp, r4, lsl #14
    4608:	08040000 	stmdaeq	r4, {}	; <UNPREDICTABLE>
    460c:	00005807 	andeq	r5, r0, r7, lsl #16
    4610:	07040400 	streq	r0, [r4, -r0, lsl #8]
    4614:	0000024a 	andeq	r0, r0, sl, asr #4
    4618:	01040405 	tsteq	r4, r5, lsl #8
    461c:	0002e208 	andeq	lr, r2, r8, lsl #4
    4620:	040c0600 	streq	r0, [ip], #-1536	; 0x600
    4624:	0000d30e 	andeq	sp, r0, lr, lsl #6
    4628:	78740700 	ldmdavc	r4!, {r8, r9, sl}^
    462c:	5a0f0400 	bpl	3c5634 <__bss_end__+0x3b6d3c>
    4630:	00000000 	andeq	r0, r0, r0
    4634:	00787207 	rsbseq	r7, r8, r7, lsl #4
    4638:	005a0f04 	subseq	r0, sl, r4, lsl #30
    463c:	08010000 	stmdaeq	r1, {}	; <UNPREDICTABLE>
    4640:	00000371 	andeq	r0, r0, r1, ror r3
    4644:	00731004 	rsbseq	r1, r3, r4
    4648:	08040000 	stmdaeq	r4, {}	; <UNPREDICTABLE>
    464c:	00000505 	andeq	r0, r0, r5, lsl #10
    4650:	00731104 	rsbseq	r1, r3, r4, lsl #2
    4654:	00080000 	andeq	r0, r8, r0
    4658:	0002cf03 	andeq	ip, r2, r3, lsl #30
    465c:	9c120400 	cfldrsls	mvf0, [r2], {-0}
    4660:	09000000 	stmdbeq	r0, {}	; <UNPREDICTABLE>
    4664:	f9100501 			; <UNDEFINED> instruction: 0xf9100501
    4668:	0a000000 	beq	4670 <_start-0x3990>
    466c:	00000728 	andeq	r0, r0, r8, lsr #14
    4670:	071b0a01 	ldreq	r0, [fp, -r1, lsl #20]
    4674:	0a020000 	beq	8467c <__bss_end__+0x75d84>
    4678:	0000070d 	andeq	r0, r0, sp, lsl #14
    467c:	3d030003 	stccc	0, cr0, [r3, #-12]
    4680:	05000007 	streq	r0, [r0, #-7]
    4684:	0000de10 	andeq	sp, r0, r0, lsl lr
    4688:	05140600 	ldreq	r0, [r4, #-1536]	; 0x600
    468c:	00013114 	andeq	r3, r1, r4, lsl r1
    4690:	078f0800 	streq	r0, [pc, r0, lsl #16]
    4694:	15050000 	strne	r0, [r5, #-0]
    4698:	00000037 	andeq	r0, r0, r7, lsr r0
    469c:	07830800 	streq	r0, [r3, r0, lsl #16]
    46a0:	18050000 	stmdane	r5, {}	; <UNPREDICTABLE>
    46a4:	000000f9 	strdeq	r0, [r0], -r9
    46a8:	017e0804 	cmneq	lr, r4, lsl #16
    46ac:	1b050000 	blne	1446b4 <__bss_end__+0x135dbc>
    46b0:	000000d3 	ldrdeq	r0, [r0], -r3
    46b4:	48030008 	stmdami	r3, {r3}
    46b8:	05000007 	streq	r0, [r0, #-7]
    46bc:	00010420 	andeq	r0, r1, r0, lsr #8
    46c0:	0cad0b00 	vstmiaeq	sp!, {d0-d-1}
    46c4:	05010000 	streq	r0, [r1, #-0]
    46c8:	0000017e 	andeq	r0, r0, lr, ror r1
    46cc:	00009ec0 	andeq	r9, r0, r0, asr #29
    46d0:	00000028 	andeq	r0, r0, r8, lsr #32
    46d4:	017e9c01 	cmneq	lr, r1, lsl #24
    46d8:	630c0000 	movwvs	r0, #49152	; 0xc000
    46dc:	7e060100 	adfvcs	f0, f6, f0
    46e0:	00000001 	andeq	r0, r0, r1
    46e4:	0d090000 	stceq	0, cr0, [r9, #-0]
    46e8:	00009ed4 	ldrdeq	r9, [r0], -r4
    46ec:	000001ab 	andeq	r0, r0, fp, lsr #3
    46f0:	0152010e 	cmpeq	r2, lr, lsl #2
    46f4:	51010e34 	tstpl	r1, r4, lsr lr
    46f8:	010e3001 	tsteq	lr, r1
    46fc:	47420350 	smlsldmi	r0, r2, r0, r3
    4700:	0f000024 	svceq	0x00000024
    4704:	00013104 	andeq	r3, r1, r4, lsl #2
    4708:	07560b00 	ldrbeq	r0, [r6, -r0, lsl #22]
    470c:	0c010000 	stceq	0, cr0, [r1], {-0}
    4710:	0000017e 	andeq	r0, r0, lr, ror r1
    4714:	00009ee8 	andeq	r9, r0, r8, ror #29
    4718:	00000028 	andeq	r0, r0, r8, lsr #32
    471c:	01ab9c01 			; <UNDEFINED> instruction: 0x01ab9c01
    4720:	630c0000 	movwvs	r0, #49152	; 0xc000
    4724:	7e0d0100 	adfvce	f0, f5, f0
    4728:	00000001 	andeq	r0, r0, r1
    472c:	00090000 	andeq	r0, r9, r0
    4730:	00044310 	andeq	r4, r4, r0, lsl r3
    4734:	931b0600 	tstls	fp, #0, 12
    4738:	11000000 	mrsne	r0, (UNDEF: 0)
    473c:	00000093 	muleq	r0, r3, r0
    4740:	00002511 	andeq	r2, r0, r1, lsl r5
    4744:	002c1100 	eoreq	r1, ip, r0, lsl #2
    4748:	00000000 	andeq	r0, r0, r0

Disassembly of section .debug_abbrev:

00000000 <.debug_abbrev>:
       0:	25011101 	strcs	r1, [r1, #-257]	; 0x101
       4:	030b130e 	movweq	r1, #45838	; 0xb30e
       8:	110e1b0e 	tstne	lr, lr, lsl #22
       c:	10061201 	andne	r1, r6, r1, lsl #4
      10:	02000017 	andeq	r0, r0, #23
      14:	0b0b0024 	bleq	2c00ac <__bss_end__+0x2b17b4>
      18:	08030b3e 	stmdaeq	r3, {r1, r2, r3, r4, r5, r8, r9, fp}
      1c:	16030000 	strne	r0, [r3], -r0
      20:	3a0e0300 	bcc	380c28 <__bss_end__+0x372330>
      24:	490b3b0b 	stmdbmi	fp, {r0, r1, r3, r8, r9, fp, ip, sp}
      28:	04000013 	streq	r0, [r0], #-19
      2c:	0b0b0024 	bleq	2c00c4 <__bss_end__+0x2b17cc>
      30:	0e030b3e 	vmoveq.16	d3[0], r0
      34:	0f050000 	svceq	0x00050000
      38:	000b0b00 	andeq	r0, fp, r0, lsl #22
      3c:	000f0600 	andeq	r0, pc, r0, lsl #12
      40:	13490b0b 	movtne	r0, #39691	; 0x9b0b
      44:	26070000 	strcs	r0, [r7], -r0
      48:	00134900 	andseq	r4, r3, r0, lsl #18
      4c:	01010800 	tsteq	r1, r0, lsl #16
      50:	13011349 	movwne	r1, #4937	; 0x1349
      54:	21090000 	mrscs	r0, (UNDEF: 9)
      58:	2f134900 	svccs	0x00134900
      5c:	0a00000b 	beq	90 <_start-0x7f70>
      60:	0b0b0104 	bleq	2c0478 <__bss_end__+0x2b1b80>
      64:	0b3b0b3a 	bleq	ec2d54 <__bss_end__+0xeb445c>
      68:	00001301 	andeq	r1, r0, r1, lsl #6
      6c:	0300280b 	movweq	r2, #2059	; 0x80b
      70:	000d1c0e 	andeq	r1, sp, lr, lsl #24
      74:	01130c00 	tsteq	r3, r0, lsl #24
      78:	0b3a050b 	bleq	e814ac <__bss_end__+0xe72bb4>
      7c:	13010b3b 	movwne	r0, #6971	; 0x1b3b
      80:	0d0d0000 	stceq	0, cr0, [sp, #-0]
      84:	3a0e0300 	bcc	380c8c <__bss_end__+0x372394>
      88:	490b3b0b 	stmdbmi	fp, {r0, r1, r3, r8, r9, fp, ip, sp}
      8c:	000b3813 	andeq	r3, fp, r3, lsl r8
      90:	000d0e00 	andeq	r0, sp, r0, lsl #28
      94:	0b3a0e03 	bleq	e838a8 <__bss_end__+0xe74fb0>
      98:	13490b3b 	movtne	r0, #39739	; 0x9b3b
      9c:	00000538 	andeq	r0, r0, r8, lsr r5
      a0:	03000d0f 	movweq	r0, #3343	; 0xd0f
      a4:	3b0b3a0e 	blcc	2ce8e4 <__bss_end__+0x2bffec>
      a8:	0b13490b 	bleq	4d24dc <__bss_end__+0x4c3be4>
      ac:	0c0b0d0b 	stceq	13, cr0, [fp], {11}
      b0:	0005380b 	andeq	r3, r5, fp, lsl #16
      b4:	00211000 	eoreq	r1, r1, r0
      b8:	052f1349 	streq	r1, [pc, #-841]!	; fffffd77 <__bss_end__+0xffff147f>
      bc:	35110000 	ldrcc	r0, [r1, #-0]
      c0:	00134900 	andseq	r4, r3, r0, lsl #18
      c4:	01131200 	tsteq	r3, r0, lsl #4
      c8:	0b3a0b0b 	bleq	e82cfc <__bss_end__+0xe74404>
      cc:	13010b3b 	movwne	r0, #6971	; 0x1b3b
      d0:	0d130000 	ldceq	0, cr0, [r3, #-0]
      d4:	3a080300 	bcc	200cdc <__bss_end__+0x1f23e4>
      d8:	490b3b0b 	stmdbmi	fp, {r0, r1, r3, r8, r9, fp, ip, sp}
      dc:	000b3813 	andeq	r3, fp, r3, lsl r8
      e0:	012e1400 	teqeq	lr, r0, lsl #8
      e4:	0b3a0e03 	bleq	e838f8 <__bss_end__+0xe75000>
      e8:	19270b3b 	stmdbne	r7!, {r0, r1, r3, r4, r5, r8, r9, fp}
      ec:	0b201349 	bleq	804e18 <__bss_end__+0x7f6520>
      f0:	00001301 	andeq	r1, r0, r1, lsl #6
      f4:	03000515 	movweq	r0, #1301	; 0x515
      f8:	3b0b3a08 	blcc	2ce920 <__bss_end__+0x2c0028>
      fc:	0013490b 	andseq	r4, r3, fp, lsl #18
     100:	00341600 	eorseq	r1, r4, r0, lsl #12
     104:	0b3a0e03 	bleq	e83918 <__bss_end__+0xe75020>
     108:	13490b3b 	movtne	r0, #39739	; 0x9b3b
     10c:	2e170000 	cdpcs	0, 1, cr0, cr7, cr0, {0}
     110:	3a0e0301 	bcc	380d1c <__bss_end__+0x372424>
     114:	270b3b0b 	strcs	r3, [fp, -fp, lsl #22]
     118:	12011119 	andne	r1, r1, #1073741830	; 0x40000006
     11c:	97184006 	ldrls	r4, [r8, -r6]
     120:	13011942 	movwne	r1, #6466	; 0x1942
     124:	05180000 	ldreq	r0, [r8, #-0]
     128:	3a080300 	bcc	200d30 <__bss_end__+0x1f2438>
     12c:	490b3b0b 	stmdbmi	fp, {r0, r1, r3, r8, r9, fp, ip, sp}
     130:	00170213 	andseq	r0, r7, r3, lsl r2
     134:	00051900 	andeq	r1, r5, r0, lsl #18
     138:	0b3a0e03 	bleq	e8394c <__bss_end__+0xe75054>
     13c:	13490b3b 	movtne	r0, #39739	; 0x9b3b
     140:	00001702 	andeq	r1, r0, r2, lsl #14
     144:	0300341a 	movweq	r3, #1050	; 0x41a
     148:	3413490e 	ldrcc	r4, [r3], #-2318	; 0x90e
     14c:	00180219 	andseq	r0, r8, r9, lsl r2
     150:	00341b00 	eorseq	r1, r4, r0, lsl #22
     154:	0b3a0803 	bleq	e82168 <__bss_end__+0xe73870>
     158:	13490b3b 	movtne	r0, #39739	; 0x9b3b
     15c:	00001702 	andeq	r1, r0, r2, lsl #14
     160:	31011d1c 	tstcc	r1, ip, lsl sp
     164:	12011113 	andne	r1, r1, #-1073741820	; 0xc0000004
     168:	590b5806 	stmdbpl	fp, {r1, r2, fp, ip, lr}
     16c:	0013010b 	andseq	r0, r3, fp, lsl #2
     170:	00051d00 	andeq	r1, r5, r0, lsl #26
     174:	18021331 	stmdane	r2, {r0, r4, r5, r8, r9, ip}
     178:	1d1e0000 	ldcne	0, cr0, [lr, #-0]
     17c:	52133101 	andspl	r3, r3, #1073741824	; 0x40000000
     180:	58175501 	ldmdapl	r7, {r0, r8, sl, ip, lr}
     184:	010b590b 	tsteq	fp, fp, lsl #18
     188:	1f000013 	svcne	0x00000013
     18c:	1755010b 	ldrbne	r0, [r5, -fp, lsl #2]
     190:	34200000 	strtcc	r0, [r0], #-0
     194:	02133100 	andseq	r3, r3, #0, 2
     198:	21000017 	tstcs	r0, r7, lsl r0
     19c:	1331011d 	teqne	r1, #1073741831	; 0x40000007
     1a0:	06120111 			; <UNDEFINED> instruction: 0x06120111
     1a4:	0b590b58 	bleq	1642f0c <__bss_end__+0x1634614>
     1a8:	89220000 	stmdbhi	r2!, {}	; <UNPREDICTABLE>
     1ac:	11010182 	smlabbne	r1, r2, r1, r0
     1b0:	01133101 	tsteq	r3, r1, lsl #2
     1b4:	23000013 	movwcs	r0, #19
     1b8:	0001828a 	andeq	r8, r1, sl, lsl #5
     1bc:	42911802 	addsmi	r1, r1, #131072	; 0x20000
     1c0:	24000018 	strcs	r0, [r0], #-24
     1c4:	00018289 	andeq	r8, r1, r9, lsl #5
     1c8:	13310111 	teqne	r1, #1073741828	; 0x40000004
     1cc:	2e250000 	cdpcs	0, 2, cr0, cr5, cr0, {0}
     1d0:	03193f01 	tsteq	r9, #1, 30
     1d4:	3b0b3a0e 	blcc	2cea14 <__bss_end__+0x2c011c>
     1d8:	4919270b 	ldmdbmi	r9, {r0, r1, r3, r8, r9, sl, sp}
     1dc:	12011113 	andne	r1, r1, #-1073741820	; 0xc0000004
     1e0:	97184006 	ldrls	r4, [r8, -r6]
     1e4:	13011942 	movwne	r1, #6466	; 0x1942
     1e8:	2e260000 	cdpcs	0, 2, cr0, cr6, cr0, {0}
     1ec:	03193f01 	tsteq	r9, #1, 30
     1f0:	3b0b3a0e 	blcc	2cea30 <__bss_end__+0x2c0138>
     1f4:	1119270b 	tstne	r9, fp, lsl #14
     1f8:	40061201 	andmi	r1, r6, r1, lsl #4
     1fc:	19429718 	stmdbne	r2, {r3, r4, r8, r9, sl, ip, pc}^
     200:	00001301 	andeq	r1, r0, r1, lsl #6
     204:	03003427 	movweq	r3, #1063	; 0x427
     208:	3b0b3a0e 	blcc	2cea48 <__bss_end__+0x2c0150>
     20c:	0213490b 	andseq	r4, r3, #180224	; 0x2c000
     210:	28000017 	stmdacs	r0, {r0, r1, r2, r4}
     214:	0111010b 	tsteq	r1, fp, lsl #2
     218:	13010612 	movwne	r0, #5650	; 0x1612
     21c:	05290000 	streq	r0, [r9, #-0]!
     220:	02133100 	andseq	r3, r3, #0, 2
     224:	2a000017 	bcs	288 <_start-0x7d78>
     228:	0111010b 	tsteq	r1, fp, lsl #2
     22c:	00000612 	andeq	r0, r0, r2, lsl r6
     230:	31011d2b 	tstcc	r1, fp, lsr #26
     234:	55015213 	strpl	r5, [r1, #-531]	; 0x213
     238:	590b5817 	stmdbpl	fp, {r0, r1, r2, r4, fp, ip, lr}
     23c:	2c00000b 	stccs	0, cr0, [r0], {11}
     240:	01018289 	smlabbeq	r1, r9, r2, r8
     244:	13310111 	teqne	r1, #1073741828	; 0x40000004
     248:	2e2d0000 	cdpcs	0, 2, cr0, cr13, cr0, {0}
     24c:	03193f01 	tsteq	r9, #1, 30
     250:	3b0b3a0e 	blcc	2cea90 <__bss_end__+0x2c0198>
     254:	1201110b 	andne	r1, r1, #-1073741822	; 0xc0000002
     258:	97184006 	ldrls	r4, [r8, -r6]
     25c:	13011942 	movwne	r1, #6466	; 0x1942
     260:	342e0000 	strtcc	r0, [lr], #-0
     264:	3a080300 	bcc	200e6c <__bss_end__+0x1f2574>
     268:	490b3b0b 	stmdbmi	fp, {r0, r1, r3, r8, r9, fp, ip, sp}
     26c:	000b1c13 	andeq	r1, fp, r3, lsl ip
     270:	00342f00 	eorseq	r2, r4, r0, lsl #30
     274:	0b3a0803 	bleq	e82288 <__bss_end__+0xe73990>
     278:	13490b3b 	movtne	r0, #39739	; 0x9b3b
     27c:	00001802 	andeq	r1, r0, r2, lsl #16
     280:	03003430 	movweq	r3, #1072	; 0x430
     284:	3b0b3a0e 	blcc	2ceac4 <__bss_end__+0x2c01cc>
     288:	1c13490b 	ldcne	9, cr4, [r3], {11}
     28c:	31000006 	tstcc	r0, r6
     290:	0e030034 	mcreq	0, 0, r0, cr3, cr4, {1}
     294:	0b3b0b3a 	bleq	ec2f84 <__bss_end__+0xeb468c>
     298:	18021349 	stmdane	r2, {r0, r3, r6, r8, r9, ip}
     29c:	34320000 	ldrtcc	r0, [r2], #-0
     2a0:	3a0e0300 	bcc	380ea8 <__bss_end__+0x3725b0>
     2a4:	490b3b0b 	stmdbmi	fp, {r0, r1, r3, r8, r9, fp, ip, sp}
     2a8:	000b1c13 	andeq	r1, fp, r3, lsl ip
     2ac:	00343300 	eorseq	r3, r4, r0, lsl #6
     2b0:	0b3a0e03 	bleq	e83ac4 <__bss_end__+0xe751cc>
     2b4:	13490b3b 	movtne	r0, #39739	; 0x9b3b
     2b8:	1802193f 	stmdane	r2, {r0, r1, r2, r3, r4, r5, r8, fp, ip}
     2bc:	2e340000 	cdpcs	0, 3, cr0, cr4, cr0, {0}
     2c0:	03193f01 	tsteq	r9, #1, 30
     2c4:	3b0b3a0e 	blcc	2ceb04 <__bss_end__+0x2c020c>
     2c8:	4919270b 	ldmdbmi	r9, {r0, r1, r3, r8, r9, sl, sp}
     2cc:	01193c13 	tsteq	r9, r3, lsl ip
     2d0:	35000013 	strcc	r0, [r0, #-19]
     2d4:	13490005 	movtne	r0, #36869	; 0x9005
     2d8:	2e360000 	cdpcs	0, 3, cr0, cr6, cr0, {0}
     2dc:	03193f00 	tsteq	r9, #0, 30
     2e0:	3b0b3a0e 	blcc	2ceb20 <__bss_end__+0x2c0228>
     2e4:	3c19270b 	ldccc	7, cr2, [r9], {11}
     2e8:	37000019 	smladcc	r0, r9, r0, r0
     2ec:	00000018 	andeq	r0, r0, r8, lsl r0
     2f0:	00003538 	andeq	r3, r0, r8, lsr r5
     2f4:	012e3900 	teqeq	lr, r0, lsl #18
     2f8:	0e03193f 	mcreq	9, 0, r1, cr3, cr15, {1}
     2fc:	0b3b0b3a 	bleq	ec2fec <__bss_end__+0xeb46f4>
     300:	193c1927 	ldmdbne	ip!, {r0, r1, r2, r5, r8, fp, ip}
     304:	00001301 	andeq	r1, r0, r1, lsl #6
     308:	3f002e3a 	svccc	0x00002e3a
     30c:	3a0e0319 	bcc	380f78 <__bss_end__+0x372680>
     310:	270b3b0b 	strcs	r3, [fp, -fp, lsl #22]
     314:	3c134919 	ldccc	9, cr4, [r3], {25}
     318:	3b000019 	blcc	384 <_start-0x7c7c>
     31c:	193f012e 	ldmdbne	pc!, {r1, r2, r3, r5, r8}	; <UNPREDICTABLE>
     320:	0b3a0e03 	bleq	e83b34 <__bss_end__+0xe7523c>
     324:	19270b3b 	stmdbne	r7!, {r0, r1, r3, r4, r5, r8, r9, fp}
     328:	193c1349 	ldmdbne	ip!, {r0, r3, r6, r8, r9, ip}
     32c:	01000000 	mrseq	r0, (UNDEF: 0)
     330:	0e250111 	mcreq	1, 1, r0, cr5, cr1, {0}
     334:	0e030b13 	vmoveq.32	d3[0], r0
     338:	01110e1b 	tsteq	r1, fp, lsl lr
     33c:	17100612 			; <UNDEFINED> instruction: 0x17100612
     340:	24020000 	strcs	r0, [r2], #-0
     344:	3e0b0b00 	vmlacc.f64	d0, d11, d0
     348:	000e030b 	andeq	r0, lr, fp, lsl #6
     34c:	00240300 	eoreq	r0, r4, r0, lsl #6
     350:	0b3e0b0b 	bleq	f82f84 <__bss_end__+0xf7468c>
     354:	00000803 	andeq	r0, r0, r3, lsl #16
     358:	0b000f04 	bleq	3f70 <_start-0x4090>
     35c:	0500000b 	streq	r0, [r0, #-11]
     360:	0b0b000f 	bleq	2c03a4 <__bss_end__+0x2b1aac>
     364:	00001349 	andeq	r1, r0, r9, asr #6
     368:	03001606 	movweq	r1, #1542	; 0x606
     36c:	3b0b3a0e 	blcc	2cebac <__bss_end__+0x2c02b4>
     370:	0013490b 	andseq	r4, r3, fp, lsl #18
     374:	012e0700 	teqeq	lr, r0, lsl #14
     378:	0e03193f 	mcreq	9, 0, r1, cr3, cr15, {1}
     37c:	0b3b0b3a 	bleq	ec306c <__bss_end__+0xeb4774>
     380:	13491927 	movtne	r1, #39207	; 0x9927
     384:	06120111 			; <UNDEFINED> instruction: 0x06120111
     388:	42971840 	addsmi	r1, r7, #64, 16	; 0x400000
     38c:	08000019 	stmdaeq	r0, {r0, r3, r4}
     390:	08030005 	stmdaeq	r3, {r0, r2}
     394:	0b3b0b3a 	bleq	ec3084 <__bss_end__+0xeb478c>
     398:	18021349 	stmdane	r2, {r0, r3, r6, r8, r9, ip}
     39c:	05090000 	streq	r0, [r9, #-0]
     3a0:	3a080300 	bcc	200fa8 <__bss_end__+0x1f26b0>
     3a4:	490b3b0b 	stmdbmi	fp, {r0, r1, r3, r8, r9, fp, ip, sp}
     3a8:	00170213 	andseq	r0, r7, r3, lsl r2
     3ac:	00340a00 	eorseq	r0, r4, r0, lsl #20
     3b0:	0b3a0803 	bleq	e823c4 <__bss_end__+0xe73acc>
     3b4:	13490b3b 	movtne	r0, #39739	; 0x9b3b
     3b8:	00001702 	andeq	r1, r0, r2, lsl #14
     3bc:	0300340b 	movweq	r3, #1035	; 0x40b
     3c0:	3b0b3a08 	blcc	2cebe8 <__bss_end__+0x2c02f0>
     3c4:	0213490b 	andseq	r4, r3, #180224	; 0x2c000
     3c8:	00000018 	andeq	r0, r0, r8, lsl r0
     3cc:	25011101 	strcs	r1, [r1, #-257]	; 0x101
     3d0:	030b130e 	movweq	r1, #45838	; 0xb30e
     3d4:	110e1b0e 	tstne	lr, lr, lsl #22
     3d8:	10061201 	andne	r1, r6, r1, lsl #4
     3dc:	02000017 	andeq	r0, r0, #23
     3e0:	0e030016 	mcreq	0, 0, r0, cr3, cr6, {0}
     3e4:	0b3b0b3a 	bleq	ec30d4 <__bss_end__+0xeb47dc>
     3e8:	00001349 	andeq	r1, r0, r9, asr #6
     3ec:	03011303 	movweq	r1, #4867	; 0x1303
     3f0:	3a0b0b0e 	bcc	2c3030 <__bss_end__+0x2b4738>
     3f4:	010b3b0b 	tsteq	fp, fp, lsl #22
     3f8:	04000013 	streq	r0, [r0], #-19
     3fc:	0e03000d 	cdpeq	0, 0, cr0, cr3, cr13, {0}
     400:	0b381349 	bleq	e0512c <__bss_end__+0xdf6834>
     404:	00001934 	andeq	r1, r0, r4, lsr r9
     408:	0b000f05 	bleq	4024 <_start-0x3fdc>
     40c:	0600000b 	streq	r0, [r0], -fp
     410:	0b0b0024 	bleq	2c04a8 <__bss_end__+0x2b1bb0>
     414:	08030b3e 	stmdaeq	r3, {r1, r2, r3, r4, r5, r8, r9, fp}
     418:	24070000 	strcs	r0, [r7], #-0
     41c:	3e0b0b00 	vmlacc.f64	d0, d11, d0
     420:	000e030b 	andeq	r0, lr, fp, lsl #6
     424:	000f0800 	andeq	r0, pc, r0, lsl #16
     428:	13490b0b 	movtne	r0, #39691	; 0x9b0b
     42c:	26090000 	strcs	r0, [r9], -r0
     430:	00134900 	andseq	r4, r3, r0, lsl #18
     434:	012e0a00 	teqeq	lr, r0, lsl #20
     438:	0e03193f 	mcreq	9, 0, r1, cr3, cr15, {1}
     43c:	0b3b0b3a 	bleq	ec312c <__bss_end__+0xeb4834>
     440:	13491927 	movtne	r1, #39207	; 0x9927
     444:	06120111 			; <UNDEFINED> instruction: 0x06120111
     448:	42971840 	addsmi	r1, r7, #64, 16	; 0x400000
     44c:	00130119 	andseq	r0, r3, r9, lsl r1
     450:	00050b00 	andeq	r0, r5, r0, lsl #22
     454:	0b3a0803 	bleq	e82468 <__bss_end__+0xe73b70>
     458:	13490b3b 	movtne	r0, #39739	; 0x9b3b
     45c:	00001802 	andeq	r1, r0, r2, lsl #16
     460:	0000180c 	andeq	r1, r0, ip, lsl #16
     464:	00340d00 	eorseq	r0, r4, r0, lsl #26
     468:	0b3a0803 	bleq	e8247c <__bss_end__+0xe73b84>
     46c:	13490b3b 	movtne	r0, #39739	; 0x9b3b
     470:	00001802 	andeq	r1, r0, r2, lsl #16
     474:	0300340e 	movweq	r3, #1038	; 0x40e
     478:	3b0b3a0e 	blcc	2cecb8 <__bss_end__+0x2c03c0>
     47c:	0213490b 	andseq	r4, r3, #180224	; 0x2c000
     480:	0f000018 	svceq	0x00000018
     484:	08030034 	stmdaeq	r3, {r2, r4, r5}
     488:	0b3b0b3a 	bleq	ec3178 <__bss_end__+0xeb4880>
     48c:	17021349 	strne	r1, [r2, -r9, asr #6]
     490:	89100000 	ldmdbhi	r0, {}	; <UNPREDICTABLE>
     494:	11010182 	smlabbne	r1, r2, r1, r0
     498:	01133101 	tsteq	r3, r1, lsl #2
     49c:	11000013 	tstne	r0, r3, lsl r0
     4a0:	0001828a 	andeq	r8, r1, sl, lsl #5
     4a4:	42911802 	addsmi	r1, r1, #131072	; 0x20000
     4a8:	12000018 	andne	r0, r0, #24
     4ac:	01018289 	smlabbeq	r1, r9, r2, r8
     4b0:	00000111 	andeq	r0, r0, r1, lsl r1
     4b4:	49010113 	stmdbmi	r1, {r0, r1, r4, r8}
     4b8:	00130113 	andseq	r0, r3, r3, lsl r1
     4bc:	00211400 	eoreq	r1, r1, r0, lsl #8
     4c0:	052f1349 	streq	r1, [pc, #-841]!	; 17f <_start-0x7e81>
     4c4:	15150000 	ldrne	r0, [r5, #-0]
     4c8:	49192701 	ldmdbmi	r9, {r0, r8, r9, sl, sp}
     4cc:	00130113 	andseq	r0, r3, r3, lsl r1
     4d0:	00051600 	andeq	r1, r5, r0, lsl #12
     4d4:	00001349 	andeq	r1, r0, r9, asr #6
     4d8:	03003417 	movweq	r3, #1047	; 0x417
     4dc:	3b0b3a0e 	blcc	2ced1c <__bss_end__+0x2c0424>
     4e0:	3f13490b 	svccc	0x0013490b
     4e4:	00193c19 	andseq	r3, r9, r9, lsl ip
     4e8:	012e1800 	teqeq	lr, r0, lsl #16
     4ec:	0e03193f 	mcreq	9, 0, r1, cr3, cr15, {1}
     4f0:	0b3b0b3a 	bleq	ec31e0 <__bss_end__+0xeb48e8>
     4f4:	13491927 	movtne	r1, #39207	; 0x9927
     4f8:	0000193c 	andeq	r1, r0, ip, lsr r9
     4fc:	01110100 	tsteq	r1, r0, lsl #2
     500:	0b130e25 	bleq	4c3d9c <__bss_end__+0x4b54a4>
     504:	0e1b0e03 	cdpeq	14, 1, cr0, cr11, cr3, {0}
     508:	06120111 			; <UNDEFINED> instruction: 0x06120111
     50c:	00001710 	andeq	r1, r0, r0, lsl r7
     510:	0b002402 	bleq	9520 <sw_uart_putc+0x110>
     514:	030b3e0b 	movweq	r3, #48651	; 0xbe0b
     518:	03000008 	movweq	r0, #8
     51c:	0b0b0024 	bleq	2c05b4 <__bss_end__+0x2b1cbc>
     520:	0e030b3e 	vmoveq.16	d3[0], r0
     524:	2e040000 	cdpcs	0, 0, cr0, cr4, cr0, {0}
     528:	3a0e0301 	bcc	381134 <__bss_end__+0x37283c>
     52c:	270b3b0b 	strcs	r3, [fp, -fp, lsl #22]
     530:	11134919 	tstne	r3, r9, lsl r9
     534:	40061201 	andmi	r1, r6, r1, lsl #4
     538:	19429718 	stmdbne	r2, {r3, r4, r8, r9, sl, ip, pc}^
     53c:	00001301 	andeq	r1, r0, r1, lsl #6
     540:	03000505 	movweq	r0, #1285	; 0x505
     544:	3b0b3a08 	blcc	2ced6c <__bss_end__+0x2c0474>
     548:	0213490b 	andseq	r4, r3, #180224	; 0x2c000
     54c:	06000017 			; <UNDEFINED> instruction: 0x06000017
     550:	01018289 	smlabbeq	r1, r9, r2, r8
     554:	13310111 	teqne	r1, #1073741828	; 0x40000004
     558:	8a070000 	bhi	1c0560 <__bss_end__+0x1b1c68>
     55c:	02000182 	andeq	r0, r0, #-2147483616	; 0x80000020
     560:	18429118 	stmdane	r2, {r3, r4, r8, ip, pc}^
     564:	2e080000 	cdpcs	0, 0, cr0, cr8, cr0, {0}
     568:	03193f00 	tsteq	r9, #0, 30
     56c:	3b0b3a0e 	blcc	2cedac <__bss_end__+0x2c04b4>
     570:	1119270b 	tstne	r9, fp, lsl #14
     574:	40061201 	andmi	r1, r6, r1, lsl #4
     578:	19429718 	stmdbne	r2, {r3, r4, r8, r9, sl, ip, pc}^
     57c:	2e090000 	cdpcs	0, 0, cr0, cr9, cr0, {0}
     580:	03193f01 	tsteq	r9, #1, 30
     584:	3b0b3a0e 	blcc	2cedc4 <__bss_end__+0x2c04cc>
     588:	1119270b 	tstne	r9, fp, lsl #14
     58c:	40061201 	andmi	r1, r6, r1, lsl #4
     590:	19429718 	stmdbne	r2, {r3, r4, r8, r9, sl, ip, pc}^
     594:	00001301 	andeq	r1, r0, r1, lsl #6
     598:	0300050a 	movweq	r0, #1290	; 0x50a
     59c:	3b0b3a08 	blcc	2cedc4 <__bss_end__+0x2c04cc>
     5a0:	0213490b 	andseq	r4, r3, #180224	; 0x2c000
     5a4:	0b000018 	bleq	60c <_start-0x79f4>
     5a8:	19270115 	stmdbne	r7!, {r0, r2, r4, r8}
     5ac:	13011349 	movwne	r1, #4937	; 0x1349
     5b0:	050c0000 	streq	r0, [ip, #-0]
     5b4:	00134900 	andseq	r4, r3, r0, lsl #18
     5b8:	000f0d00 	andeq	r0, pc, r0, lsl #26
     5bc:	13490b0b 	movtne	r0, #39691	; 0x9b0b
     5c0:	340e0000 	strcc	r0, [lr], #-0
     5c4:	3a0e0300 	bcc	3811cc <__bss_end__+0x3728d4>
     5c8:	490b3b0b 	stmdbmi	fp, {r0, r1, r3, r8, r9, fp, ip, sp}
     5cc:	02193f13 	andseq	r3, r9, #19, 30	; 0x4c
     5d0:	0f000018 	svceq	0x00000018
     5d4:	193f012e 	ldmdbne	pc!, {r1, r2, r3, r5, r8}	; <UNPREDICTABLE>
     5d8:	0b3a0e03 	bleq	e83dec <__bss_end__+0xe754f4>
     5dc:	19270b3b 	stmdbne	r7!, {r0, r1, r3, r4, r5, r8, r9, fp}
     5e0:	0000193c 	andeq	r1, r0, ip, lsr r9
     5e4:	01110100 	tsteq	r1, r0, lsl #2
     5e8:	0b130e25 	bleq	4c3e84 <__bss_end__+0x4b558c>
     5ec:	0e1b0e03 	cdpeq	14, 1, cr0, cr11, cr3, {0}
     5f0:	06120111 			; <UNDEFINED> instruction: 0x06120111
     5f4:	00001710 	andeq	r1, r0, r0, lsl r7
     5f8:	0b002402 	bleq	9608 <sw_uart_getc_timeout+0xa4>
     5fc:	030b3e0b 	movweq	r3, #48651	; 0xbe0b
     600:	03000008 	movweq	r0, #8
     604:	0b0b0024 	bleq	2c069c <__bss_end__+0x2b1da4>
     608:	0e030b3e 	vmoveq.16	d3[0], r0
     60c:	0f040000 	svceq	0x00040000
     610:	490b0b00 	stmdbmi	fp, {r8, r9, fp}
     614:	05000013 	streq	r0, [r0, #-19]
     618:	13490026 	movtne	r0, #36902	; 0x9026
     61c:	2e060000 	cdpcs	0, 0, cr0, cr6, cr0, {0}
     620:	03193f01 	tsteq	r9, #1, 30
     624:	3b0b3a0e 	blcc	2cee64 <__bss_end__+0x2c056c>
     628:	4919270b 	ldmdbmi	r9, {r0, r1, r3, r8, r9, sl, sp}
     62c:	12011113 	andne	r1, r1, #-1073741820	; 0xc0000004
     630:	96184006 	ldrls	r4, [r8], -r6
     634:	13011942 	movwne	r1, #6466	; 0x1942
     638:	05070000 	streq	r0, [r7, #-0]
     63c:	3a080300 	bcc	201244 <__bss_end__+0x1f294c>
     640:	490b3b0b 	stmdbmi	fp, {r0, r1, r3, r8, r9, fp, ip, sp}
     644:	00170213 	andseq	r0, r7, r3, lsl r2
     648:	01150800 	tsteq	r5, r0, lsl #16
     64c:	13491927 	movtne	r1, #39207	; 0x9927
     650:	00001301 	andeq	r1, r0, r1, lsl #6
     654:	49000509 	stmdbmi	r0, {r0, r3, r8, sl}
     658:	0a000013 	beq	6ac <_start-0x7954>
     65c:	0e030034 	mcreq	0, 0, r0, cr3, cr4, {1}
     660:	0b3b0b3a 	bleq	ec3350 <__bss_end__+0xeb4a58>
     664:	193f1349 	ldmdbne	pc!, {r0, r3, r6, r8, r9, ip}	; <UNPREDICTABLE>
     668:	0000193c 	andeq	r1, r0, ip, lsr r9
     66c:	0300340b 	movweq	r3, #1035	; 0x40b
     670:	3b0b3a0e 	blcc	2ceeb0 <__bss_end__+0x2c05b8>
     674:	3f13490b 	svccc	0x0013490b
     678:	00180219 	andseq	r0, r8, r9, lsl r2
     67c:	11010000 	mrsne	r0, (UNDEF: 1)
     680:	130e2501 	movwne	r2, #58625	; 0xe501
     684:	1b0e030b 	blne	3812b8 <__bss_end__+0x3729c0>
     688:	1201110e 	andne	r1, r1, #-2147483645	; 0x80000003
     68c:	00171006 	andseq	r1, r7, r6
     690:	00240200 	eoreq	r0, r4, r0, lsl #4
     694:	0b3e0b0b 	bleq	f832c8 <__bss_end__+0xf749d0>
     698:	00000803 	andeq	r0, r0, r3, lsl #16
     69c:	0b002403 	bleq	96b0 <sw_uart_getc_timeout+0x14c>
     6a0:	030b3e0b 	movweq	r3, #48651	; 0xbe0b
     6a4:	0400000e 	streq	r0, [r0], #-14
     6a8:	0b0b000f 	bleq	2c06ec <__bss_end__+0x2b1df4>
     6ac:	0f050000 	svceq	0x00050000
     6b0:	490b0b00 	stmdbmi	fp, {r8, r9, fp}
     6b4:	06000013 			; <UNDEFINED> instruction: 0x06000013
     6b8:	13490026 	movtne	r0, #36902	; 0x9026
     6bc:	16070000 	strne	r0, [r7], -r0
     6c0:	3a0e0300 	bcc	3812c8 <__bss_end__+0x3729d0>
     6c4:	490b3b0b 	stmdbmi	fp, {r0, r1, r3, r8, r9, fp, ip, sp}
     6c8:	08000013 	stmdaeq	r0, {r0, r1, r4}
     6cc:	0e030113 	mcreq	1, 0, r0, cr3, cr3, {0}
     6d0:	0b3a0b0b 	bleq	e83304 <__bss_end__+0xe74a0c>
     6d4:	13010b3b 	movwne	r0, #6971	; 0x1b3b
     6d8:	0d090000 	stceq	0, cr0, [r9, #-0]
     6dc:	490e0300 	stmdbmi	lr, {r8, r9}
     6e0:	340b3813 	strcc	r3, [fp], #-2067	; 0x813
     6e4:	0a000019 	beq	750 <_start-0x78b0>
     6e8:	0e03012e 	adfeqsp	f0, f3, #0.5
     6ec:	0b3b0b3a 	bleq	ec33dc <__bss_end__+0xeb4ae4>
     6f0:	13491927 	movtne	r1, #39207	; 0x9927
     6f4:	06120111 			; <UNDEFINED> instruction: 0x06120111
     6f8:	42971840 	addsmi	r1, r7, #64, 16	; 0x400000
     6fc:	00130119 	andseq	r0, r3, r9, lsl r1
     700:	00050b00 	andeq	r0, r5, r0, lsl #22
     704:	0b3a0803 	bleq	e82718 <__bss_end__+0xe73e20>
     708:	13490b3b 	movtne	r0, #39739	; 0x9b3b
     70c:	00001702 	andeq	r1, r0, r2, lsl #14
     710:	03012e0c 	movweq	r2, #7692	; 0x1e0c
     714:	3b0b3a08 	blcc	2cef3c <__bss_end__+0x2c0644>
     718:	4919270b 	ldmdbmi	r9, {r0, r1, r3, r8, r9, sl, sp}
     71c:	12011113 	andne	r1, r1, #-1073741820	; 0xc0000004
     720:	97184006 	ldrls	r4, [r8, -r6]
     724:	13011942 	movwne	r1, #6466	; 0x1942
     728:	050d0000 	streq	r0, [sp, #-0]
     72c:	3a0e0300 	bcc	381334 <__bss_end__+0x372a3c>
     730:	490b3b0b 	stmdbmi	fp, {r0, r1, r3, r8, r9, fp, ip, sp}
     734:	00170213 	andseq	r0, r7, r3, lsl r2
     738:	00050e00 	andeq	r0, r5, r0, lsl #28
     73c:	0b3a0e03 	bleq	e83f50 <__bss_end__+0xe75658>
     740:	13490b3b 	movtne	r0, #39739	; 0x9b3b
     744:	00001802 	andeq	r1, r0, r2, lsl #16
     748:	0300340f 	movweq	r3, #1039	; 0x40f
     74c:	3b0b3a08 	blcc	2cef74 <__bss_end__+0x2c067c>
     750:	0213490b 	andseq	r4, r3, #180224	; 0x2c000
     754:	10000018 	andne	r0, r0, r8, lsl r0
     758:	08030034 	stmdaeq	r3, {r2, r4, r5}
     75c:	0b3b0b3a 	bleq	ec344c <__bss_end__+0xeb4b54>
     760:	17021349 	strne	r1, [r2, -r9, asr #6]
     764:	34110000 	ldrcc	r0, [r1], #-0
     768:	490e0300 	stmdbmi	lr, {r8, r9}
     76c:	02193413 	andseq	r3, r9, #318767104	; 0x13000000
     770:	12000018 	andne	r0, r0, #24
     774:	0111010b 	tsteq	r1, fp, lsl #2
     778:	13010612 	movwne	r0, #5650	; 0x1612
     77c:	34130000 	ldrcc	r0, [r3], #-0
     780:	3a0e0300 	bcc	381388 <__bss_end__+0x372a90>
     784:	490b3b0b 	stmdbmi	fp, {r0, r1, r3, r8, r9, fp, ip, sp}
     788:	00170213 	andseq	r0, r7, r3, lsl r2
     78c:	82891400 	addhi	r1, r9, #0, 8
     790:	01110001 	tsteq	r1, r1
     794:	00001331 	andeq	r1, r0, r1, lsr r3
     798:	01828915 	orreq	r8, r2, r5, lsl r9
     79c:	31011101 	tstcc	r1, r1, lsl #2
     7a0:	00130113 	andseq	r0, r3, r3, lsl r1
     7a4:	828a1600 	addhi	r1, sl, #0, 12
     7a8:	18020001 	stmdane	r2, {r0}
     7ac:	00184291 	mulseq	r8, r1, r2
     7b0:	82891700 	addhi	r1, r9, #0, 14
     7b4:	01110101 	tsteq	r1, r1, lsl #2
     7b8:	00001331 	andeq	r1, r0, r1, lsr r3
     7bc:	49010118 	stmdbmi	r1, {r3, r4, r8}
     7c0:	00130113 	andseq	r0, r3, r3, lsl r1
     7c4:	00211900 	eoreq	r1, r1, r0, lsl #18
     7c8:	0b2f1349 	bleq	bc54f4 <__bss_end__+0xbb6bfc>
     7cc:	2e1a0000 	cdpcs	0, 1, cr0, cr10, cr0, {0}
     7d0:	03193f01 	tsteq	r9, #1, 30
     7d4:	3b0b3a0e 	blcc	2cf014 <__bss_end__+0x2c071c>
     7d8:	1119270b 	tstne	r9, fp, lsl #14
     7dc:	40061201 	andmi	r1, r6, r1, lsl #4
     7e0:	19429718 	stmdbne	r2, {r3, r4, r8, r9, sl, ip, pc}^
     7e4:	00001301 	andeq	r1, r0, r1, lsl #6
     7e8:	2701151b 	smladcs	r1, fp, r5, r1
     7ec:	01134919 	tsteq	r3, r9, lsl r9
     7f0:	1c000013 	stcne	0, cr0, [r0], {19}
     7f4:	13490005 	movtne	r0, #36869	; 0x9005
     7f8:	2e1d0000 	cdpcs	0, 1, cr0, cr13, cr0, {0}
     7fc:	03193f01 	tsteq	r9, #1, 30
     800:	3b0b3a0e 	blcc	2cf040 <__bss_end__+0x2c0748>
     804:	4919270b 	ldmdbmi	r9, {r0, r1, r3, r8, r9, sl, sp}
     808:	12011113 	andne	r1, r1, #-1073741820	; 0xc0000004
     80c:	97184006 	ldrls	r4, [r8, -r6]
     810:	13011942 	movwne	r1, #6466	; 0x1942
     814:	0b1e0000 	bleq	78081c <__bss_end__+0x771f24>
     818:	00175501 	andseq	r5, r7, r1, lsl #10
     81c:	00341f00 	eorseq	r1, r4, r0, lsl #30
     820:	0b3a0e03 	bleq	e84034 <__bss_end__+0xe7573c>
     824:	13490b3b 	movtne	r0, #39739	; 0x9b3b
     828:	193c193f 	ldmdbne	ip!, {r0, r1, r2, r3, r4, r5, r8, fp, ip}
     82c:	2e200000 	cdpcs	0, 2, cr0, cr0, cr0, {0}
     830:	03193f00 	tsteq	r9, #0, 30
     834:	3b0b3a0e 	blcc	2cf074 <__bss_end__+0x2c077c>
     838:	3c19270b 	ldccc	7, cr2, [r9], {11}
     83c:	21000019 	tstcs	r0, r9, lsl r0
     840:	193f012e 	ldmdbne	pc!, {r1, r2, r3, r5, r8}	; <UNPREDICTABLE>
     844:	0b3a0e03 	bleq	e84058 <__bss_end__+0xe75760>
     848:	19270b3b 	stmdbne	r7!, {r0, r1, r3, r4, r5, r8, r9, fp}
     84c:	193c1349 	ldmdbne	ip!, {r0, r3, r6, r8, r9, ip}
     850:	00001301 	andeq	r1, r0, r1, lsl #6
     854:	00001822 	andeq	r1, r0, r2, lsr #16
     858:	11010000 	mrsne	r0, (UNDEF: 1)
     85c:	130e2501 	movwne	r2, #58625	; 0xe501
     860:	1b0e030b 	blne	381494 <__bss_end__+0x372b9c>
     864:	1201110e 	andne	r1, r1, #-2147483645	; 0x80000003
     868:	00171006 	andseq	r1, r7, r6
     86c:	00240200 	eoreq	r0, r4, r0, lsl #4
     870:	0b3e0b0b 	bleq	f834a4 <__bss_end__+0xf74bac>
     874:	00000803 	andeq	r0, r0, r3, lsl #16
     878:	0b002403 	bleq	988c <sw_uart_init_helper+0x54>
     87c:	030b3e0b 	movweq	r3, #48651	; 0xbe0b
     880:	0400000e 	streq	r0, [r0], #-14
     884:	0b0b000f 	bleq	2c08c8 <__bss_end__+0x2b1fd0>
     888:	00001349 	andeq	r1, r0, r9, asr #6
     88c:	49002605 	stmdbmi	r0, {r0, r2, r9, sl, sp}
     890:	06000013 			; <UNDEFINED> instruction: 0x06000013
     894:	193f012e 	ldmdbne	pc!, {r1, r2, r3, r5, r8}	; <UNPREDICTABLE>
     898:	0b3a0e03 	bleq	e840ac <__bss_end__+0xe757b4>
     89c:	19270b3b 	stmdbne	r7!, {r0, r1, r3, r4, r5, r8, r9, fp}
     8a0:	06120111 			; <UNDEFINED> instruction: 0x06120111
     8a4:	42971840 	addsmi	r1, r7, #64, 16	; 0x400000
     8a8:	00130119 	andseq	r0, r3, r9, lsl r1
     8ac:	82890700 	addhi	r0, r9, #0, 14
     8b0:	01110101 	tsteq	r1, r1, lsl #2
     8b4:	00001301 	andeq	r1, r0, r1, lsl #6
     8b8:	01828a08 	orreq	r8, r2, r8, lsl #20
     8bc:	91180200 	tstls	r8, r0, lsl #4
     8c0:	00001842 	andeq	r1, r0, r2, asr #16
     8c4:	01828909 	orreq	r8, r2, r9, lsl #18
     8c8:	31011101 	tstcc	r1, r1, lsl #2
     8cc:	00130113 	andseq	r0, r3, r3, lsl r1
     8d0:	82890a00 	addhi	r0, r9, #0, 20
     8d4:	01110001 	tsteq	r1, r1
     8d8:	00001331 	andeq	r1, r0, r1, lsr r3
     8dc:	2701150b 	strcs	r1, [r1, -fp, lsl #10]
     8e0:	01134919 	tsteq	r3, r9, lsl r9
     8e4:	0c000013 	stceq	0, cr0, [r0], {19}
     8e8:	13490005 	movtne	r0, #36869	; 0x9005
     8ec:	340d0000 	strcc	r0, [sp], #-0
     8f0:	3a0e0300 	bcc	3814f8 <__bss_end__+0x372c00>
     8f4:	490b3b0b 	stmdbmi	fp, {r0, r1, r3, r8, r9, fp, ip, sp}
     8f8:	3c193f13 	ldccc	15, cr3, [r9], {19}
     8fc:	0e000019 	mcreq	0, 0, r0, cr0, cr9, {0}
     900:	193f012e 	ldmdbne	pc!, {r1, r2, r3, r5, r8}	; <UNPREDICTABLE>
     904:	0b3a0e03 	bleq	e84118 <__bss_end__+0xe75820>
     908:	19270b3b 	stmdbne	r7!, {r0, r1, r3, r4, r5, r8, r9, fp}
     90c:	1301193c 	movwne	r1, #6460	; 0x193c
     910:	2e0f0000 	cdpcs	0, 0, cr0, cr15, cr0, {0}
     914:	03193f00 	tsteq	r9, #0, 30
     918:	3b0b3a0e 	blcc	2cf158 <__bss_end__+0x2c0860>
     91c:	3c19270b 	ldccc	7, cr2, [r9], {11}
     920:	00000019 	andeq	r0, r0, r9, lsl r0
     924:	25011101 	strcs	r1, [r1, #-257]	; 0x101
     928:	030b130e 	movweq	r1, #45838	; 0xb30e
     92c:	110e1b0e 	tstne	lr, lr, lsl #22
     930:	10061201 	andne	r1, r6, r1, lsl #4
     934:	02000017 	andeq	r0, r0, #23
     938:	0b0b0024 	bleq	2c09d0 <__bss_end__+0x2b20d8>
     93c:	08030b3e 	stmdaeq	r3, {r1, r2, r3, r4, r5, r8, r9, fp}
     940:	24030000 	strcs	r0, [r3], #-0
     944:	3e0b0b00 	vmlacc.f64	d0, d11, d0
     948:	000e030b 	andeq	r0, lr, fp, lsl #6
     94c:	00160400 	andseq	r0, r6, r0, lsl #8
     950:	0b3a0e03 	bleq	e84164 <__bss_end__+0xe7586c>
     954:	13490b3b 	movtne	r0, #39739	; 0x9b3b
     958:	0f050000 	svceq	0x00050000
     95c:	490b0b00 	stmdbmi	fp, {r8, r9, fp}
     960:	06000013 			; <UNDEFINED> instruction: 0x06000013
     964:	13490026 	movtne	r0, #36902	; 0x9026
     968:	13070000 	movwne	r0, #28672	; 0x7000
     96c:	3a0b0b01 	bcc	2c3578 <__bss_end__+0x2b4c80>
     970:	010b3b0b 	tsteq	fp, fp, lsl #22
     974:	08000013 	stmdaeq	r0, {r0, r1, r4}
     978:	0803000d 	stmdaeq	r3, {r0, r2, r3}
     97c:	0b3b0b3a 	bleq	ec366c <__bss_end__+0xeb4d74>
     980:	0b381349 	bleq	e056ac <__bss_end__+0xdf6db4>
     984:	0d090000 	stceq	0, cr0, [r9, #-0]
     988:	3a0e0300 	bcc	381590 <__bss_end__+0x372c98>
     98c:	490b3b0b 	stmdbmi	fp, {r0, r1, r3, r8, r9, fp, ip, sp}
     990:	000b3813 	andeq	r3, fp, r3, lsl r8
     994:	01040a00 	tsteq	r4, r0, lsl #20
     998:	0b3a0b0b 	bleq	e835cc <__bss_end__+0xe74cd4>
     99c:	13010b3b 	movwne	r0, #6971	; 0x1b3b
     9a0:	280b0000 	stmdacs	fp, {}	; <UNPREDICTABLE>
     9a4:	1c0e0300 	stcne	3, cr0, [lr], {-0}
     9a8:	0c00000d 	stceq	0, cr0, [r0], {13}
     9ac:	0e03012e 	adfeqsp	f0, f3, #0.5
     9b0:	0b3b0b3a 	bleq	ec36a0 <__bss_end__+0xeb4da8>
     9b4:	13491927 	movtne	r1, #39207	; 0x9927
     9b8:	06120111 			; <UNDEFINED> instruction: 0x06120111
     9bc:	42971840 	addsmi	r1, r7, #64, 16	; 0x400000
     9c0:	00130119 	andseq	r0, r3, r9, lsl r1
     9c4:	00050d00 	andeq	r0, r5, r0, lsl #26
     9c8:	0b3a0803 	bleq	e829dc <__bss_end__+0xe740e4>
     9cc:	13490b3b 	movtne	r0, #39739	; 0x9b3b
     9d0:	00001702 	andeq	r1, r0, r2, lsl #14
     9d4:	0182890e 	orreq	r8, r2, lr, lsl #18
     9d8:	31011101 	tstcc	r1, r1, lsl #2
     9dc:	0f000013 	svceq	0x00000013
     9e0:	0001828a 	andeq	r8, r1, sl, lsl #5
     9e4:	42911802 	addsmi	r1, r1, #131072	; 0x20000
     9e8:	10000018 	andne	r0, r0, r8, lsl r0
     9ec:	193f012e 	ldmdbne	pc!, {r1, r2, r3, r5, r8}	; <UNPREDICTABLE>
     9f0:	0b3a0e03 	bleq	e84204 <__bss_end__+0xe7590c>
     9f4:	01110b3b 	tsteq	r1, fp, lsr fp
     9f8:	18400612 	stmdane	r0, {r1, r4, r9, sl}^
     9fc:	01194297 			; <UNDEFINED> instruction: 0x01194297
     a00:	11000013 	tstne	r0, r3, lsl r0
     a04:	0e030034 	mcreq	0, 0, r0, cr3, cr4, {1}
     a08:	0b3b0b3a 	bleq	ec36f8 <__bss_end__+0xeb4e00>
     a0c:	193f1349 	ldmdbne	pc!, {r0, r3, r6, r8, r9, ip}	; <UNPREDICTABLE>
     a10:	0000193c 	andeq	r1, r0, ip, lsr r9
     a14:	3f012e12 	svccc	0x00012e12
     a18:	3a0e0319 	bcc	381684 <__bss_end__+0x372d8c>
     a1c:	3c0b3b0b 	stccc	11, cr3, [fp], {11}
     a20:	00130119 	andseq	r0, r3, r9, lsl r1
     a24:	00181300 	andseq	r1, r8, r0, lsl #6
     a28:	34140000 	ldrcc	r0, [r4], #-0
     a2c:	3a080300 	bcc	201634 <__bss_end__+0x1f2d3c>
     a30:	490b3b0b 	stmdbmi	fp, {r0, r1, r3, r8, r9, fp, ip, sp}
     a34:	00170213 	andseq	r0, r7, r3, lsl r2
     a38:	00341500 	eorseq	r1, r4, r0, lsl #10
     a3c:	0b3a0e03 	bleq	e84250 <__bss_end__+0xe75958>
     a40:	13490b3b 	movtne	r0, #39739	; 0x9b3b
     a44:	89160000 	ldmdbhi	r6, {}	; <UNPREDICTABLE>
     a48:	11000182 	smlabbne	r0, r2, r1, r0
     a4c:	00133101 	andseq	r3, r3, r1, lsl #2
     a50:	82891700 	addhi	r1, r9, #0, 14
     a54:	01110101 	tsteq	r1, r1, lsl #2
     a58:	13011331 	movwne	r1, #4913	; 0x1331
     a5c:	34180000 	ldrcc	r0, [r8], #-0
     a60:	3a0e0300 	bcc	381668 <__bss_end__+0x372d70>
     a64:	490b3b0b 	stmdbmi	fp, {r0, r1, r3, r8, r9, fp, ip, sp}
     a68:	00180213 	andseq	r0, r8, r3, lsl r2
     a6c:	01151900 	tsteq	r5, r0, lsl #18
     a70:	13491927 	movtne	r1, #39207	; 0x9927
     a74:	00001301 	andeq	r1, r0, r1, lsl #6
     a78:	4900051a 	stmdbmi	r0, {r1, r3, r4, r8, sl}
     a7c:	1b000013 	blne	ad0 <_start-0x7530>
     a80:	193f012e 	ldmdbne	pc!, {r1, r2, r3, r5, r8}	; <UNPREDICTABLE>
     a84:	0b3a0e03 	bleq	e84298 <__bss_end__+0xe759a0>
     a88:	19270b3b 	stmdbne	r7!, {r0, r1, r3, r4, r5, r8, r9, fp}
     a8c:	1301193c 	movwne	r1, #6460	; 0x193c
     a90:	2e1c0000 	cdpcs	0, 1, cr0, cr12, cr0, {0}
     a94:	03193f00 	tsteq	r9, #0, 30
     a98:	3b0b3a0e 	blcc	2cf2d8 <__bss_end__+0x2c09e0>
     a9c:	4919270b 	ldmdbmi	r9, {r0, r1, r3, r8, r9, sl, sp}
     aa0:	00193c13 	andseq	r3, r9, r3, lsl ip
     aa4:	012e1d00 	teqeq	lr, r0, lsl #26
     aa8:	0e03193f 	mcreq	9, 0, r1, cr3, cr15, {1}
     aac:	0b3b0b3a 	bleq	ec379c <__bss_end__+0xeb4ea4>
     ab0:	13491927 	movtne	r1, #39207	; 0x9927
     ab4:	1301193c 	movwne	r1, #6460	; 0x193c
     ab8:	2e1e0000 	cdpcs	0, 1, cr0, cr14, cr0, {0}
     abc:	03193f00 	tsteq	r9, #0, 30
     ac0:	3b0b3a0e 	blcc	2cf300 <__bss_end__+0x2c0a08>
     ac4:	3c19270b 	ldccc	7, cr2, [r9], {11}
     ac8:	00000019 	andeq	r0, r0, r9, lsl r0
     acc:	25011101 	strcs	r1, [r1, #-257]	; 0x101
     ad0:	030b130e 	movweq	r1, #45838	; 0xb30e
     ad4:	550e1b0e 	strpl	r1, [lr, #-2830]	; 0xb0e
     ad8:	10011117 	andne	r1, r1, r7, lsl r1
     adc:	02000017 	andeq	r0, r0, #23
     ae0:	0b0b0024 	bleq	2c0b78 <__bss_end__+0x2b2280>
     ae4:	08030b3e 	stmdaeq	r3, {r1, r2, r3, r4, r5, r8, r9, fp}
     ae8:	24030000 	strcs	r0, [r3], #-0
     aec:	3e0b0b00 	vmlacc.f64	d0, d11, d0
     af0:	000e030b 	andeq	r0, lr, fp, lsl #6
     af4:	012e0400 	teqeq	lr, r0, lsl #8
     af8:	0e03193f 	mcreq	9, 0, r1, cr3, cr15, {1}
     afc:	0b3b0b3a 	bleq	ec37ec <__bss_end__+0xeb4ef4>
     b00:	13491927 	movtne	r1, #39207	; 0x9927
     b04:	06120111 			; <UNDEFINED> instruction: 0x06120111
     b08:	42971840 	addsmi	r1, r7, #64, 16	; 0x400000
     b0c:	00130119 	andseq	r0, r3, r9, lsl r1
     b10:	00340500 	eorseq	r0, r4, r0, lsl #10
     b14:	0b3a0e03 	bleq	e84328 <__bss_end__+0xe75a30>
     b18:	13490b3b 	movtne	r0, #39739	; 0x9b3b
     b1c:	00001702 	andeq	r1, r0, r2, lsl #14
     b20:	3f012e06 	svccc	0x00012e06
     b24:	3a0e0319 	bcc	381790 <__bss_end__+0x372e98>
     b28:	270b3b0b 	strcs	r3, [fp, -fp, lsl #22]
     b2c:	12011119 	andne	r1, r1, #1073741830	; 0x40000006
     b30:	97184006 	ldrls	r4, [r8, -r6]
     b34:	13011942 	movwne	r1, #6466	; 0x1942
     b38:	34070000 	strcc	r0, [r7], #-0
     b3c:	3a0e0300 	bcc	381744 <__bss_end__+0x372e4c>
     b40:	490b3b0b 	stmdbmi	fp, {r0, r1, r3, r8, r9, fp, ip, sp}
     b44:	00061c13 	andeq	r1, r6, r3, lsl ip
     b48:	00340800 	eorseq	r0, r4, r0, lsl #16
     b4c:	0b3a0e03 	bleq	e84360 <__bss_end__+0xe75a68>
     b50:	13490b3b 	movtne	r0, #39739	; 0x9b3b
     b54:	00000b1c 	andeq	r0, r0, ip, lsl fp
     b58:	01828909 	orreq	r8, r2, r9, lsl #18
     b5c:	31011100 	mrscc	r1, (UNDEF: 17)
     b60:	0a000013 	beq	bb4 <_start-0x744c>
     b64:	01018289 	smlabbeq	r1, r9, r2, r8
     b68:	13310111 	teqne	r1, #1073741828	; 0x40000004
     b6c:	00001301 	andeq	r1, r0, r1, lsl #6
     b70:	01828a0b 	orreq	r8, r2, fp, lsl #20
     b74:	91180200 	tstls	r8, r0, lsl #4
     b78:	00001842 	andeq	r1, r0, r2, asr #16
     b7c:	0182890c 	orreq	r8, r2, ip, lsl #18
     b80:	31011101 	tstcc	r1, r1, lsl #2
     b84:	0d000013 	stceq	0, cr0, [r0, #-76]	; 0xffffffb4
     b88:	13490026 	movtne	r0, #36902	; 0x9026
     b8c:	2e0e0000 	cdpcs	0, 0, cr0, cr14, cr0, {0}
     b90:	03193f01 	tsteq	r9, #1, 30
     b94:	3b0b3a0e 	blcc	2cf3d4 <__bss_end__+0x2c0adc>
     b98:	3c19270b 	ldccc	7, cr2, [r9], {11}
     b9c:	00130119 	andseq	r0, r3, r9, lsl r1
     ba0:	00050f00 	andeq	r0, r5, r0, lsl #30
     ba4:	00001349 	andeq	r1, r0, r9, asr #6
     ba8:	3f012e10 	svccc	0x00012e10
     bac:	3a0e0319 	bcc	381818 <__bss_end__+0x372f20>
     bb0:	270b3b0b 	strcs	r3, [fp, -fp, lsl #22]
     bb4:	00193c19 	andseq	r3, r9, r9, lsl ip
     bb8:	11010000 	mrsne	r0, (UNDEF: 1)
     bbc:	130e2501 	movwne	r2, #58625	; 0xe501
     bc0:	1b0e030b 	blne	3817f4 <__bss_end__+0x372efc>
     bc4:	1201110e 	andne	r1, r1, #-2147483645	; 0x80000003
     bc8:	00171006 	andseq	r1, r7, r6
     bcc:	00240200 	eoreq	r0, r4, r0, lsl #4
     bd0:	0b3e0b0b 	bleq	f83804 <__bss_end__+0xf74f0c>
     bd4:	00000803 	andeq	r0, r0, r3, lsl #16
     bd8:	0b002403 	bleq	9bec <fast_interrupt_vector>
     bdc:	030b3e0b 	movweq	r3, #48651	; 0xbe0b
     be0:	0400000e 	streq	r0, [r0], #-14
     be4:	193f012e 	ldmdbne	pc!, {r1, r2, r3, r5, r8}	; <UNPREDICTABLE>
     be8:	0b3a0e03 	bleq	e843fc <__bss_end__+0xe75b04>
     bec:	19270b3b 	stmdbne	r7!, {r0, r1, r3, r4, r5, r8, r9, fp}
     bf0:	06120111 			; <UNDEFINED> instruction: 0x06120111
     bf4:	42971840 	addsmi	r1, r7, #64, 16	; 0x400000
     bf8:	00130119 	andseq	r0, r3, r9, lsl r1
     bfc:	00050500 	andeq	r0, r5, r0, lsl #10
     c00:	0b3a0e03 	bleq	e84414 <__bss_end__+0xe75b1c>
     c04:	13490b3b 	movtne	r0, #39739	; 0x9b3b
     c08:	00001702 	andeq	r1, r0, r2, lsl #14
     c0c:	3f012e06 	svccc	0x00012e06
     c10:	3a0e0319 	bcc	38187c <__bss_end__+0x372f84>
     c14:	270b3b0b 	strcs	r3, [fp, -fp, lsl #22]
     c18:	11134919 	tstne	r3, r9, lsl r9
     c1c:	40061201 	andmi	r1, r6, r1, lsl #4
     c20:	19429718 	stmdbne	r2, {r3, r4, r8, r9, sl, ip, pc}^
     c24:	00001301 	andeq	r1, r0, r1, lsl #6
     c28:	01828907 	orreq	r8, r2, r7, lsl #18
     c2c:	31011101 	tstcc	r1, r1, lsl #2
     c30:	08000013 	stmdaeq	r0, {r0, r1, r4}
     c34:	0001828a 	andeq	r8, r1, sl, lsl #5
     c38:	42911802 	addsmi	r1, r1, #131072	; 0x20000
     c3c:	09000018 	stmdbeq	r0, {r3, r4}
     c40:	08030034 	stmdaeq	r3, {r2, r4, r5}
     c44:	0b3b0b3a 	bleq	ec3934 <__bss_end__+0xeb503c>
     c48:	18021349 	stmdane	r2, {r0, r3, r6, r8, r9, ip}
     c4c:	890a0000 	stmdbhi	sl, {}	; <UNPREDICTABLE>
     c50:	11000182 	smlabbne	r0, r2, r1, r0
     c54:	00133101 	andseq	r3, r3, r1, lsl #2
     c58:	00050b00 	andeq	r0, r5, r0, lsl #22
     c5c:	0b3a0803 	bleq	e82c70 <__bss_end__+0xe74378>
     c60:	13490b3b 	movtne	r0, #39739	; 0x9b3b
     c64:	00001702 	andeq	r1, r0, r2, lsl #14
     c68:	11010b0c 	tstne	r1, ip, lsl #22
     c6c:	01061201 	tsteq	r6, r1, lsl #4
     c70:	0d000013 	stceq	0, cr0, [r0, #-76]	; 0xffffffb4
     c74:	08030034 	stmdaeq	r3, {r2, r4, r5}
     c78:	0b3b0b3a 	bleq	ec3968 <__bss_end__+0xeb5070>
     c7c:	17021349 	strne	r1, [r2, -r9, asr #6]
     c80:	2e0e0000 	cdpcs	0, 0, cr0, cr14, cr0, {0}
     c84:	03193f01 	tsteq	r9, #1, 30
     c88:	3b0b3a0e 	blcc	2cf4c8 <__bss_end__+0x2c0bd0>
     c8c:	4919270b 	ldmdbmi	r9, {r0, r1, r3, r8, r9, sl, sp}
     c90:	00193c13 	andseq	r3, r9, r3, lsl ip
     c94:	00050f00 	andeq	r0, r5, r0, lsl #30
     c98:	00001349 	andeq	r1, r0, r9, asr #6
     c9c:	01110100 	tsteq	r1, r0, lsl #2
     ca0:	0b130e25 	bleq	4c453c <__bss_end__+0x4b5c44>
     ca4:	0e1b0e03 	cdpeq	14, 1, cr0, cr11, cr3, {0}
     ca8:	06120111 			; <UNDEFINED> instruction: 0x06120111
     cac:	00001710 	andeq	r1, r0, r0, lsl r7
     cb0:	0b002402 	bleq	9cc0 <undefined_instruction_vector+0x8>
     cb4:	030b3e0b 	movweq	r3, #48651	; 0xbe0b
     cb8:	0300000e 	movweq	r0, #14
     cbc:	0b0b0024 	bleq	2c0d54 <__bss_end__+0x2b245c>
     cc0:	08030b3e 	stmdaeq	r3, {r1, r2, r3, r4, r5, r8, r9, fp}
     cc4:	04040000 	streq	r0, [r4], #-0
     cc8:	3a0b0b01 	bcc	2c38d4 <__bss_end__+0x2b4fdc>
     ccc:	010b3b0b 	tsteq	fp, fp, lsl #22
     cd0:	05000013 	streq	r0, [r0, #-19]
     cd4:	0e030028 	cdpeq	0, 0, cr0, cr3, cr8, {1}
     cd8:	00000d1c 	andeq	r0, r0, ip, lsl sp
     cdc:	03001606 	movweq	r1, #1542	; 0x606
     ce0:	3b0b3a0e 	blcc	2cf520 <__bss_end__+0x2c0c28>
     ce4:	0013490b 	andseq	r4, r3, fp, lsl #18
     ce8:	012e0700 	teqeq	lr, r0, lsl #14
     cec:	0e03193f 	mcreq	9, 0, r1, cr3, cr15, {1}
     cf0:	0b3b0b3a 	bleq	ec39e0 <__bss_end__+0xeb50e8>
     cf4:	01111927 	tsteq	r1, r7, lsr #18
     cf8:	18400612 	stmdane	r0, {r1, r4, r9, sl}^
     cfc:	01194297 			; <UNDEFINED> instruction: 0x01194297
     d00:	08000013 	stmdaeq	r0, {r0, r1, r4}
     d04:	08030005 	stmdaeq	r3, {r0, r2}
     d08:	0b3b0b3a 	bleq	ec39f8 <__bss_end__+0xeb5100>
     d0c:	17021349 	strne	r1, [r2, -r9, asr #6]
     d10:	34090000 	strcc	r0, [r9], #-0
     d14:	3a0e0300 	bcc	38191c <__bss_end__+0x373024>
     d18:	490b3b0b 	stmdbmi	fp, {r0, r1, r3, r8, r9, fp, ip, sp}
     d1c:	00170213 	andseq	r0, r7, r3, lsl r2
     d20:	82890a00 	addhi	r0, r9, #0, 20
     d24:	01110101 	tsteq	r1, r1, lsl #2
     d28:	13011331 	movwne	r1, #4913	; 0x1331
     d2c:	8a0b0000 	bhi	2c0d34 <__bss_end__+0x2b243c>
     d30:	02000182 	andeq	r0, r0, #-2147483616	; 0x80000020
     d34:	18429118 	stmdane	r2, {r3, r4, r8, ip, pc}^
     d38:	890c0000 	stmdbhi	ip, {}	; <UNPREDICTABLE>
     d3c:	11010182 	smlabbne	r1, r2, r1, r0
     d40:	00133101 	andseq	r3, r3, r1, lsl #2
     d44:	000f0d00 	andeq	r0, pc, r0, lsl #26
     d48:	13490b0b 	movtne	r0, #39691	; 0x9b0b
     d4c:	350e0000 	strcc	r0, [lr, #-0]
     d50:	00134900 	andseq	r4, r3, r0, lsl #18
     d54:	012e0f00 	teqeq	lr, r0, lsl #30
     d58:	0e03193f 	mcreq	9, 0, r1, cr3, cr15, {1}
     d5c:	0b3b0b3a 	bleq	ec3a4c <__bss_end__+0xeb5154>
     d60:	0b201927 	bleq	807204 <__bss_end__+0x7f890c>
     d64:	00001301 	andeq	r1, r0, r1, lsl #6
     d68:	03000510 	movweq	r0, #1296	; 0x510
     d6c:	3b0b3a08 	blcc	2cf594 <__bss_end__+0x2c0c9c>
     d70:	0013490b 	andseq	r4, r3, fp, lsl #18
     d74:	00341100 	eorseq	r1, r4, r0, lsl #2
     d78:	0b3a0e03 	bleq	e8458c <__bss_end__+0xe75c94>
     d7c:	13490b3b 	movtne	r0, #39739	; 0x9b3b
     d80:	2e120000 	cdpcs	0, 1, cr0, cr2, cr0, {0}
     d84:	11133101 	tstne	r3, r1, lsl #2
     d88:	40061201 	andmi	r1, r6, r1, lsl #4
     d8c:	19429718 	stmdbne	r2, {r3, r4, r8, r9, sl, ip, pc}^
     d90:	00001301 	andeq	r1, r0, r1, lsl #6
     d94:	31000513 	tstcc	r0, r3, lsl r5
     d98:	00170213 	andseq	r0, r7, r3, lsl r2
     d9c:	00341400 	eorseq	r1, r4, r0, lsl #8
     da0:	17021331 	smladxne	r2, r1, r3, r1
     da4:	2e150000 	cdpcs	0, 1, cr0, cr5, cr0, {0}
     da8:	03193f01 	tsteq	r9, #1, 30
     dac:	3b0b3a0e 	blcc	2cf5ec <__bss_end__+0x2c0cf4>
     db0:	4919270b 	ldmdbmi	r9, {r0, r1, r3, r8, r9, sl, sp}
     db4:	12011113 	andne	r1, r1, #-1073741820	; 0xc0000004
     db8:	97184006 	ldrls	r4, [r8, -r6]
     dbc:	13011942 	movwne	r1, #6466	; 0x1942
     dc0:	34160000 	ldrcc	r0, [r6], #-0
     dc4:	3a080300 	bcc	2019cc <__bss_end__+0x1f30d4>
     dc8:	490b3b0b 	stmdbmi	fp, {r0, r1, r3, r8, r9, fp, ip, sp}
     dcc:	00170213 	andseq	r0, r7, r3, lsl r2
     dd0:	82891700 	addhi	r1, r9, #0, 14
     dd4:	01110001 	tsteq	r1, r1
     dd8:	00001331 	andeq	r1, r0, r1, lsr r3
     ddc:	31011d18 	tstcc	r1, r8, lsl sp
     de0:	12011113 	andne	r1, r1, #-1073741820	; 0xc0000004
     de4:	590b5806 	stmdbpl	fp, {r1, r2, fp, ip, lr}
     de8:	0013010b 	andseq	r0, r3, fp, lsl #2
     dec:	010b1900 	tsteq	fp, r0, lsl #18
     df0:	06120111 			; <UNDEFINED> instruction: 0x06120111
     df4:	1d1a0000 	ldcne	0, cr0, [sl, #-0]
     df8:	11133101 	tstne	r3, r1, lsl #2
     dfc:	58061201 	stmdapl	r6, {r0, r9, ip}
     e00:	000b590b 	andeq	r5, fp, fp, lsl #18
     e04:	00051b00 	andeq	r1, r5, r0, lsl #22
     e08:	0b3a0e03 	bleq	e8461c <__bss_end__+0xe75d24>
     e0c:	13490b3b 	movtne	r0, #39739	; 0x9b3b
     e10:	00001702 	andeq	r1, r0, r2, lsl #14
     e14:	3f012e1c 	svccc	0x00012e1c
     e18:	3a0e0319 	bcc	381a84 <__bss_end__+0x37318c>
     e1c:	27053b0b 	strcs	r3, [r5, -fp, lsl #22]
     e20:	11134919 	tstne	r3, r9, lsl r9
     e24:	40061201 	andmi	r1, r6, r1, lsl #4
     e28:	19429718 	stmdbne	r2, {r3, r4, r8, r9, sl, ip, pc}^
     e2c:	00001301 	andeq	r1, r0, r1, lsl #6
     e30:	0300051d 	movweq	r0, #1309	; 0x51d
     e34:	3b0b3a0e 	blcc	2cf674 <__bss_end__+0x2c0d7c>
     e38:	02134905 	andseq	r4, r3, #81920	; 0x14000
     e3c:	1e000017 	mcrne	0, 0, r0, cr0, cr7, {0}
     e40:	193f012e 	ldmdbne	pc!, {r1, r2, r3, r5, r8}	; <UNPREDICTABLE>
     e44:	0b3a0e03 	bleq	e84658 <__bss_end__+0xe75d60>
     e48:	1927053b 	stmdbne	r7!, {r0, r1, r3, r4, r5, r8, sl}
     e4c:	06120111 			; <UNDEFINED> instruction: 0x06120111
     e50:	42971840 	addsmi	r1, r7, #64, 16	; 0x400000
     e54:	00130119 	andseq	r0, r3, r9, lsl r1
     e58:	00051f00 	andeq	r1, r5, r0, lsl #30
     e5c:	0b3a0803 	bleq	e82e70 <__bss_end__+0xe74578>
     e60:	1349053b 	movtne	r0, #38203	; 0x953b
     e64:	00001702 	andeq	r1, r0, r2, lsl #14
     e68:	03003420 	movweq	r3, #1056	; 0x420
     e6c:	3b0b3a0e 	blcc	2cf6ac <__bss_end__+0x2c0db4>
     e70:	02134905 	andseq	r4, r3, #81920	; 0x14000
     e74:	21000017 	tstcs	r0, r7, lsl r0
     e78:	0111010b 	tsteq	r1, fp, lsl #2
     e7c:	13010612 	movwne	r0, #5650	; 0x1612
     e80:	34220000 	strtcc	r0, [r2], #-0
     e84:	3a0e0300 	bcc	381a8c <__bss_end__+0x373194>
     e88:	490b3b0b 	stmdbmi	fp, {r0, r1, r3, r8, r9, fp, ip, sp}
     e8c:	02193f13 	andseq	r3, r9, #19, 30	; 0x4c
     e90:	23000018 	movwcs	r0, #24
     e94:	193f012e 	ldmdbne	pc!, {r1, r2, r3, r5, r8}	; <UNPREDICTABLE>
     e98:	0b3a0e03 	bleq	e846ac <__bss_end__+0xe75db4>
     e9c:	19270b3b 	stmdbne	r7!, {r0, r1, r3, r4, r5, r8, r9, fp}
     ea0:	193c1349 	ldmdbne	ip!, {r0, r3, r6, r8, r9, ip}
     ea4:	00001301 	andeq	r1, r0, r1, lsl #6
     ea8:	49000524 	stmdbmi	r0, {r2, r5, r8, sl}
     eac:	25000013 	strcs	r0, [r0, #-19]
     eb0:	13490026 	movtne	r0, #36902	; 0x9026
     eb4:	35260000 	strcc	r0, [r6, #-0]!
     eb8:	27000000 	strcs	r0, [r0, -r0]
     ebc:	193f012e 	ldmdbne	pc!, {r1, r2, r3, r5, r8}	; <UNPREDICTABLE>
     ec0:	0b3a0e03 	bleq	e846d4 <__bss_end__+0xe75ddc>
     ec4:	19270b3b 	stmdbne	r7!, {r0, r1, r3, r4, r5, r8, r9, fp}
     ec8:	1301193c 	movwne	r1, #6460	; 0x193c
     ecc:	2e280000 	cdpcs	0, 2, cr0, cr8, cr0, {0}
     ed0:	03193f00 	tsteq	r9, #0, 30
     ed4:	3b0b3a0e 	blcc	2cf714 <__bss_end__+0x2c0e1c>
     ed8:	3c19270b 	ldccc	7, cr2, [r9], {11}
     edc:	00000019 	andeq	r0, r0, r9, lsl r0
     ee0:	25011101 	strcs	r1, [r1, #-257]	; 0x101
     ee4:	030b130e 	movweq	r1, #45838	; 0xb30e
     ee8:	110e1b0e 	tstne	lr, lr, lsl #22
     eec:	10061201 	andne	r1, r6, r1, lsl #4
     ef0:	02000017 	andeq	r0, r0, #23
     ef4:	0b0b0024 	bleq	2c0f8c <__bss_end__+0x2b2694>
     ef8:	08030b3e 	stmdaeq	r3, {r1, r2, r3, r4, r5, r8, r9, fp}
     efc:	24030000 	strcs	r0, [r3], #-0
     f00:	3e0b0b00 	vmlacc.f64	d0, d11, d0
     f04:	000e030b 	andeq	r0, lr, fp, lsl #6
     f08:	00160400 	andseq	r0, r6, r0, lsl #8
     f0c:	0b3a0e03 	bleq	e84720 <__bss_end__+0xe75e28>
     f10:	13490b3b 	movtne	r0, #39739	; 0x9b3b
     f14:	0f050000 	svceq	0x00050000
     f18:	000b0b00 	andeq	r0, fp, r0, lsl #22
     f1c:	000f0600 	andeq	r0, pc, r0, lsl #12
     f20:	13490b0b 	movtne	r0, #39691	; 0x9b0b
     f24:	26070000 	strcs	r0, [r7], -r0
     f28:	00134900 	andseq	r4, r3, r0, lsl #18
     f2c:	01130800 	tsteq	r3, r0, lsl #16
     f30:	0b3a0b0b 	bleq	e83b64 <__bss_end__+0xe7526c>
     f34:	13010b3b 	movwne	r0, #6971	; 0x1b3b
     f38:	0d090000 	stceq	0, cr0, [r9, #-0]
     f3c:	3a080300 	bcc	201b44 <__bss_end__+0x1f324c>
     f40:	490b3b0b 	stmdbmi	fp, {r0, r1, r3, r8, r9, fp, ip, sp}
     f44:	000b3813 	andeq	r3, fp, r3, lsl r8
     f48:	000d0a00 	andeq	r0, sp, r0, lsl #20
     f4c:	0b3a0e03 	bleq	e84760 <__bss_end__+0xe75e68>
     f50:	13490b3b 	movtne	r0, #39739	; 0x9b3b
     f54:	00000b38 	andeq	r0, r0, r8, lsr fp
     f58:	0301130b 	movweq	r1, #4875	; 0x130b
     f5c:	3a0b0b0e 	bcc	2c3b9c <__bss_end__+0x2b52a4>
     f60:	010b3b0b 	tsteq	fp, fp, lsl #22
     f64:	0c000013 	stceq	0, cr0, [r0], {19}
     f68:	0e03000d 	cdpeq	0, 0, cr0, cr3, cr13, {0}
     f6c:	0b381349 	bleq	e05c98 <__bss_end__+0xdf73a0>
     f70:	00001934 	andeq	r1, r0, r4, lsr r9
     f74:	03012e0d 	movweq	r2, #7693	; 0x1e0d
     f78:	3b0b3a0e 	blcc	2cf7b8 <__bss_end__+0x2c0ec0>
     f7c:	2019270b 	andscs	r2, r9, fp, lsl #14
     f80:	0013010b 	andseq	r0, r3, fp, lsl #2
     f84:	00050e00 	andeq	r0, r5, r0, lsl #28
     f88:	0b3a0e03 	bleq	e8479c <__bss_end__+0xe75ea4>
     f8c:	13490b3b 	movtne	r0, #39739	; 0x9b3b
     f90:	050f0000 	streq	r0, [pc, #-0]	; f98 <_start-0x7068>
     f94:	3a080300 	bcc	201b9c <__bss_end__+0x1f32a4>
     f98:	490b3b0b 	stmdbmi	fp, {r0, r1, r3, r8, r9, fp, ip, sp}
     f9c:	10000013 	andne	r0, r0, r3, lsl r0
     fa0:	0000010b 	andeq	r0, r0, fp, lsl #2
     fa4:	03003411 	movweq	r3, #1041	; 0x411
     fa8:	3b0b3a0e 	blcc	2cf7e8 <__bss_end__+0x2c0ef0>
     fac:	0013490b 	andseq	r4, r3, fp, lsl #18
     fb0:	012e1200 	teqeq	lr, r0, lsl #4
     fb4:	0e03193f 	mcreq	9, 0, r1, cr3, cr15, {1}
     fb8:	0b3b0b3a 	bleq	ec3ca8 <__bss_end__+0xeb53b0>
     fbc:	01111927 	tsteq	r1, r7, lsr #18
     fc0:	18400612 	stmdane	r0, {r1, r4, r9, sl}^
     fc4:	01194297 			; <UNDEFINED> instruction: 0x01194297
     fc8:	13000013 	movwne	r0, #19
     fcc:	0e030005 	cdpeq	0, 0, cr0, cr3, cr5, {0}
     fd0:	0b3b0b3a 	bleq	ec3cc0 <__bss_end__+0xeb53c8>
     fd4:	17021349 	strne	r1, [r2, -r9, asr #6]
     fd8:	05140000 	ldreq	r0, [r4, #-0]
     fdc:	3a080300 	bcc	201be4 <__bss_end__+0x1f32ec>
     fe0:	490b3b0b 	stmdbmi	fp, {r0, r1, r3, r8, r9, fp, ip, sp}
     fe4:	00170213 	andseq	r0, r7, r3, lsl r2
     fe8:	00341500 	eorseq	r1, r4, r0, lsl #10
     fec:	0b3a0803 	bleq	e83000 <__bss_end__+0xe74708>
     ff0:	13490b3b 	movtne	r0, #39739	; 0x9b3b
     ff4:	00001802 	andeq	r1, r0, r2, lsl #16
     ff8:	03003416 	movweq	r3, #1046	; 0x416
     ffc:	3b0b3a08 	blcc	2cf824 <__bss_end__+0x2c0f2c>
    1000:	0213490b 	andseq	r4, r3, #180224	; 0x2c000
    1004:	17000017 	smladne	r0, r7, r0, r0
    1008:	0111010b 	tsteq	r1, fp, lsl #2
    100c:	13010612 	movwne	r0, #5650	; 0x1612
    1010:	34180000 	ldrcc	r0, [r8], #-0
    1014:	3a0e0300 	bcc	381c1c <__bss_end__+0x373324>
    1018:	490b3b0b 	stmdbmi	fp, {r0, r1, r3, r8, r9, fp, ip, sp}
    101c:	00180213 	andseq	r0, r8, r3, lsl r2
    1020:	011d1900 	tsteq	sp, r0, lsl #18
    1024:	01111331 	tsteq	r1, r1, lsr r3
    1028:	0b580612 	bleq	1602878 <__bss_end__+0x15f3f80>
    102c:	13010b59 	movwne	r0, #7001	; 0x1b59
    1030:	051a0000 	ldreq	r0, [sl, #-0]
    1034:	02133100 	andseq	r3, r3, #0, 2
    1038:	1b000017 	blne	109c <_start-0x6f64>
    103c:	13310005 	teqne	r1, #5
    1040:	00001802 	andeq	r1, r0, r2, lsl #16
    1044:	3100051c 	tstcc	r0, ip, lsl r5
    1048:	000b1c13 	andeq	r1, fp, r3, lsl ip
    104c:	010b1d00 	tsteq	fp, r0, lsl #26
    1050:	06120111 			; <UNDEFINED> instruction: 0x06120111
    1054:	341e0000 	ldrcc	r0, [lr], #-0
    1058:	02133100 	andseq	r3, r3, #0, 2
    105c:	1f000017 	svcne	0x00000017
    1060:	01018289 	smlabbeq	r1, r9, r2, r8
    1064:	13310111 	teqne	r1, #1073741828	; 0x40000004
    1068:	8a200000 	bhi	801070 <__bss_end__+0x7f2778>
    106c:	02000182 	andeq	r0, r0, #-2147483616	; 0x80000020
    1070:	18429118 	stmdane	r2, {r3, r4, r8, ip, pc}^
    1074:	1d210000 	stcne	0, cr0, [r1, #-0]
    1078:	11133101 	tstne	r3, r1, lsl #2
    107c:	58061201 	stmdapl	r6, {r0, r9, ip}
    1080:	000b590b 	andeq	r5, fp, fp, lsl #18
    1084:	012e2200 	teqeq	lr, r0, lsl #4
    1088:	0b3a0e03 	bleq	e8489c <__bss_end__+0xe75fa4>
    108c:	19270b3b 	stmdbne	r7!, {r0, r1, r3, r4, r5, r8, r9, fp}
    1090:	0b201349 	bleq	805dbc <__bss_end__+0x7f74c4>
    1094:	00001301 	andeq	r1, r0, r1, lsl #6
    1098:	3f012e23 	svccc	0x00012e23
    109c:	3a0e0319 	bcc	381d08 <__bss_end__+0x373410>
    10a0:	270b3b0b 	strcs	r3, [fp, -fp, lsl #22]
    10a4:	11134919 	tstne	r3, r9, lsl r9
    10a8:	40061201 	andmi	r1, r6, r1, lsl #4
    10ac:	19429718 	stmdbne	r2, {r3, r4, r8, r9, sl, ip, pc}^
    10b0:	00001301 	andeq	r1, r0, r1, lsl #6
    10b4:	01828924 	orreq	r8, r2, r4, lsr #18
    10b8:	31011100 	mrscc	r1, (UNDEF: 17)
    10bc:	25000013 	strcs	r0, [r0, #-19]
    10c0:	01018289 	smlabbeq	r1, r9, r2, r8
    10c4:	13310111 	teqne	r1, #1073741828	; 0x40000004
    10c8:	00001301 	andeq	r1, r0, r1, lsl #6
    10cc:	03003426 	movweq	r3, #1062	; 0x426
    10d0:	3b0b3a0e 	blcc	2cf910 <__bss_end__+0x2c1018>
    10d4:	0213490b 	andseq	r4, r3, #180224	; 0x2c000
    10d8:	27000017 	smladcs	r0, r7, r0, r0
    10dc:	13310005 	teqne	r1, #5
    10e0:	05280000 	streq	r0, [r8, #-0]!
    10e4:	3a0e0300 	bcc	381cec <__bss_end__+0x3733f4>
    10e8:	490b3b0b 	stmdbmi	fp, {r0, r1, r3, r8, r9, fp, ip, sp}
    10ec:	00180213 	andseq	r0, r8, r3, lsl r2
    10f0:	00342900 	eorseq	r2, r4, r0, lsl #18
    10f4:	13490e03 	movtne	r0, #40451	; 0x9e03
    10f8:	18021934 	stmdane	r2, {r2, r4, r5, r8, fp, ip}
    10fc:	012a0000 	teqeq	sl, r0
    1100:	01134901 	tsteq	r3, r1, lsl #18
    1104:	2b000013 	blcs	1158 <_start-0x6ea8>
    1108:	13490021 	movtne	r0, #36897	; 0x9021
    110c:	00000b2f 	andeq	r0, r0, pc, lsr #22
    1110:	0300342c 	movweq	r3, #1068	; 0x42c
    1114:	3b0b3a08 	blcc	2cf93c <__bss_end__+0x2c1044>
    1118:	1c13490b 	ldcne	9, cr4, [r3], {11}
    111c:	2d000006 	stccs	0, cr0, [r0, #-24]	; 0xffffffe8
    1120:	08030034 	stmdaeq	r3, {r2, r4, r5}
    1124:	0b3b0b3a 	bleq	ec3e14 <__bss_end__+0xeb551c>
    1128:	0b1c1349 	bleq	705e54 <__bss_end__+0x6f755c>
    112c:	052e0000 	streq	r0, [lr, #-0]!
    1130:	3a080300 	bcc	201d38 <__bss_end__+0x1f3440>
    1134:	490b3b0b 	stmdbmi	fp, {r0, r1, r3, r8, r9, fp, ip, sp}
    1138:	00180213 	andseq	r0, r8, r3, lsl r2
    113c:	00182f00 	andseq	r2, r8, r0, lsl #30
    1140:	21300000 	teqcs	r0, r0
    1144:	2f134900 	svccs	0x00134900
    1148:	31000005 	tstcc	r0, r5
    114c:	193f012e 	ldmdbne	pc!, {r1, r2, r3, r5, r8}	; <UNPREDICTABLE>
    1150:	0b3a0e03 	bleq	e84964 <__bss_end__+0xe7606c>
    1154:	19270b3b 	stmdbne	r7!, {r0, r1, r3, r4, r5, r8, r9, fp}
    1158:	1301193c 	movwne	r1, #6460	; 0x193c
    115c:	05320000 	ldreq	r0, [r2, #-0]!
    1160:	00134900 	andseq	r4, r3, r0, lsl #18
    1164:	002e3300 	eoreq	r3, lr, r0, lsl #6
    1168:	0e03193f 	mcreq	9, 0, r1, cr3, cr15, {1}
    116c:	0b3b0b3a 	bleq	ec3e5c <__bss_end__+0xeb5564>
    1170:	13491927 	movtne	r1, #39207	; 0x9927
    1174:	0000193c 	andeq	r1, r0, ip, lsr r9
    1178:	3f012e34 	svccc	0x00012e34
    117c:	3a0e0319 	bcc	381de8 <__bss_end__+0x3734f0>
    1180:	270b3b0b 	strcs	r3, [fp, -fp, lsl #22]
    1184:	3c134919 	ldccc	9, cr4, [r3], {25}
    1188:	00130119 	andseq	r0, r3, r9, lsl r1
    118c:	002e3500 	eoreq	r3, lr, r0, lsl #10
    1190:	0e03193f 	mcreq	9, 0, r1, cr3, cr15, {1}
    1194:	0b3b0b3a 	bleq	ec3e84 <__bss_end__+0xeb558c>
    1198:	193c1927 	ldmdbne	ip!, {r0, r1, r2, r5, r8, fp, ip}
    119c:	2e360000 	cdpcs	0, 3, cr0, cr6, cr0, {0}
    11a0:	03193f01 	tsteq	r9, #1, 30
    11a4:	3b0b3a0e 	blcc	2cf9e4 <__bss_end__+0x2c10ec>
    11a8:	4919270b 	ldmdbmi	r9, {r0, r1, r3, r8, r9, sl, sp}
    11ac:	00193c13 	andseq	r3, r9, r3, lsl ip
    11b0:	11010000 	mrsne	r0, (UNDEF: 1)
    11b4:	130e2501 	movwne	r2, #58625	; 0xe501
    11b8:	1b0e030b 	blne	381dec <__bss_end__+0x3734f4>
    11bc:	1201110e 	andne	r1, r1, #-2147483645	; 0x80000003
    11c0:	00171006 	andseq	r1, r7, r6
    11c4:	00240200 	eoreq	r0, r4, r0, lsl #4
    11c8:	0b3e0b0b 	bleq	f83dfc <__bss_end__+0xf75504>
    11cc:	00000803 	andeq	r0, r0, r3, lsl #16
    11d0:	0b002403 	bleq	a1e4 <__FUNCTION__.4236+0xe8>
    11d4:	030b3e0b 	movweq	r3, #48651	; 0xbe0b
    11d8:	0400000e 	streq	r0, [r0], #-14
    11dc:	0b0b0104 	bleq	2c15f4 <__bss_end__+0x2b2cfc>
    11e0:	0b3b0b3a 	bleq	ec3ed0 <__bss_end__+0xeb55d8>
    11e4:	00001301 	andeq	r1, r0, r1, lsl #6
    11e8:	03002805 	movweq	r2, #2053	; 0x805
    11ec:	000d1c0e 	andeq	r1, sp, lr, lsl #24
    11f0:	00160600 	andseq	r0, r6, r0, lsl #12
    11f4:	0b3a0e03 	bleq	e84a08 <__bss_end__+0xe76110>
    11f8:	13490b3b 	movtne	r0, #39739	; 0x9b3b
    11fc:	2e070000 	cdpcs	0, 0, cr0, cr7, cr0, {0}
    1200:	03193f01 	tsteq	r9, #1, 30
    1204:	3b0b3a0e 	blcc	2cfa44 <__bss_end__+0x2c114c>
    1208:	1119270b 	tstne	r9, fp, lsl #14
    120c:	40061201 	andmi	r1, r6, r1, lsl #4
    1210:	19429718 	stmdbne	r2, {r3, r4, r8, r9, sl, ip, pc}^
    1214:	00001301 	andeq	r1, r0, r1, lsl #6
    1218:	01828908 	orreq	r8, r2, r8, lsl #18
    121c:	31011100 	mrscc	r1, (UNDEF: 17)
    1220:	09000013 	stmdbeq	r0, {r0, r1, r4}
    1224:	01018289 	smlabbeq	r1, r9, r2, r8
    1228:	13310111 	teqne	r1, #1073741828	; 0x40000004
    122c:	00001301 	andeq	r1, r0, r1, lsl #6
    1230:	01828a0a 	orreq	r8, r2, sl, lsl #20
    1234:	91180200 	tstls	r8, r0, lsl #4
    1238:	00001842 	andeq	r1, r0, r2, asr #16
    123c:	3f012e0b 	svccc	0x00012e0b
    1240:	3a0e0319 	bcc	381eac <__bss_end__+0x3735b4>
    1244:	270b3b0b 	strcs	r3, [fp, -fp, lsl #22]
    1248:	11134919 	tstne	r3, r9, lsl r9
    124c:	40061201 	andmi	r1, r6, r1, lsl #4
    1250:	19429718 	stmdbne	r2, {r3, r4, r8, r9, sl, ip, pc}^
    1254:	00001301 	andeq	r1, r0, r1, lsl #6
    1258:	0300050c 	movweq	r0, #1292	; 0x50c
    125c:	3b0b3a08 	blcc	2cfa84 <__bss_end__+0x2c118c>
    1260:	0213490b 	andseq	r4, r3, #180224	; 0x2c000
    1264:	0d000017 	stceq	0, cr0, [r0, #-92]	; 0xffffffa4
    1268:	01018289 	smlabbeq	r1, r9, r2, r8
    126c:	13310111 	teqne	r1, #1073741828	; 0x40000004
    1270:	340e0000 	strcc	r0, [lr], #-0
    1274:	3a0e0300 	bcc	381e7c <__bss_end__+0x373584>
    1278:	490b3b0b 	stmdbmi	fp, {r0, r1, r3, r8, r9, fp, ip, sp}
    127c:	02193f13 	andseq	r3, r9, #19, 30	; 0x4c
    1280:	0f000018 	svceq	0x00000018
    1284:	0b0b000f 	bleq	2c12c8 <__bss_end__+0x2b29d0>
    1288:	00001349 	andeq	r1, r0, r9, asr #6
    128c:	49003510 	stmdbmi	r0, {r4, r8, sl, ip, sp}
    1290:	11000013 	tstne	r0, r3, lsl r0
    1294:	193f002e 	ldmdbne	pc!, {r1, r2, r3, r5}	; <UNPREDICTABLE>
    1298:	0b3a0e03 	bleq	e84aac <__bss_end__+0xe761b4>
    129c:	19270b3b 	stmdbne	r7!, {r0, r1, r3, r4, r5, r8, r9, fp}
    12a0:	0000193c 	andeq	r1, r0, ip, lsr r9
    12a4:	3f012e12 	svccc	0x00012e12
    12a8:	3a0e0319 	bcc	381f14 <__bss_end__+0x37361c>
    12ac:	270b3b0b 	strcs	r3, [fp, -fp, lsl #22]
    12b0:	01193c19 	tsteq	r9, r9, lsl ip
    12b4:	13000013 	movwne	r0, #19
    12b8:	13490005 	movtne	r0, #36869	; 0x9005
    12bc:	2e140000 	cdpcs	0, 1, cr0, cr4, cr0, {0}
    12c0:	03193f01 	tsteq	r9, #1, 30
    12c4:	3b0b3a0e 	blcc	2cfb04 <__bss_end__+0x2c120c>
    12c8:	4919270b 	ldmdbmi	r9, {r0, r1, r3, r8, r9, sl, sp}
    12cc:	01193c13 	tsteq	r9, r3, lsl ip
    12d0:	15000013 	strne	r0, [r0, #-19]
    12d4:	13490026 	movtne	r0, #36902	; 0x9026
    12d8:	35160000 	ldrcc	r0, [r6, #-0]
    12dc:	00000000 	andeq	r0, r0, r0
    12e0:	25011101 	strcs	r1, [r1, #-257]	; 0x101
    12e4:	030b130e 	movweq	r1, #45838	; 0xb30e
    12e8:	110e1b0e 	tstne	lr, lr, lsl #22
    12ec:	10061201 	andne	r1, r6, r1, lsl #4
    12f0:	02000017 	andeq	r0, r0, #23
    12f4:	0b0b0024 	bleq	2c138c <__bss_end__+0x2b2a94>
    12f8:	08030b3e 	stmdaeq	r3, {r1, r2, r3, r4, r5, r8, r9, fp}
    12fc:	24030000 	strcs	r0, [r3], #-0
    1300:	3e0b0b00 	vmlacc.f64	d0, d11, d0
    1304:	000e030b 	andeq	r0, lr, fp, lsl #6
    1308:	000f0400 	andeq	r0, pc, r0, lsl #8
    130c:	13490b0b 	movtne	r0, #39691	; 0x9b0b
    1310:	26050000 	strcs	r0, [r5], -r0
    1314:	00134900 	andseq	r4, r3, r0, lsl #18
    1318:	01010600 	tsteq	r1, r0, lsl #12
    131c:	13011349 	movwne	r1, #4937	; 0x1349
    1320:	21070000 	mrscs	r0, (UNDEF: 7)
    1324:	2f134900 	svccs	0x00134900
    1328:	0800000b 	stmdaeq	r0, {r0, r1, r3}
    132c:	0b0b0104 	bleq	2c1744 <__bss_end__+0x2b2e4c>
    1330:	0b3b0b3a 	bleq	ec4020 <__bss_end__+0xeb5728>
    1334:	00001301 	andeq	r1, r0, r1, lsl #6
    1338:	03002809 	movweq	r2, #2057	; 0x809
    133c:	000d1c0e 	andeq	r1, sp, lr, lsl #24
    1340:	012e0a00 	teqeq	lr, r0, lsl #20
    1344:	0e03193f 	mcreq	9, 0, r1, cr3, cr15, {1}
    1348:	0b3b0b3a 	bleq	ec4038 <__bss_end__+0xeb5740>
    134c:	01111927 	tsteq	r1, r7, lsr #18
    1350:	18400612 	stmdane	r0, {r1, r4, r9, sl}^
    1354:	01194297 			; <UNDEFINED> instruction: 0x01194297
    1358:	0b000013 	bleq	13ac <_start-0x6c54>
    135c:	0e030034 	mcreq	0, 0, r0, cr3, cr4, {1}
    1360:	0b3b0b3a 	bleq	ec4050 <__bss_end__+0xeb5758>
    1364:	193f1349 	ldmdbne	pc!, {r0, r3, r6, r8, r9, ip}	; <UNPREDICTABLE>
    1368:	0000193c 	andeq	r1, r0, ip, lsr r9
    136c:	0300340c 	movweq	r3, #1036	; 0x40c
    1370:	3b0b3a08 	blcc	2cfb98 <__bss_end__+0x2c12a0>
    1374:	1c13490b 	ldcne	9, cr4, [r3], {11}
    1378:	0d00000b 	stceq	0, cr0, [r0, #-44]	; 0xffffffd4
    137c:	08030034 	stmdaeq	r3, {r2, r4, r5}
    1380:	0b3b0b3a 	bleq	ec4070 <__bss_end__+0xeb5778>
    1384:	00001349 	andeq	r1, r0, r9, asr #6
    1388:	0300340e 	movweq	r3, #1038	; 0x40e
    138c:	3b0b3a08 	blcc	2cfbb4 <__bss_end__+0x2c12bc>
    1390:	0213490b 	andseq	r4, r3, #180224	; 0x2c000
    1394:	0f000018 	svceq	0x00000018
    1398:	0111010b 	tsteq	r1, fp, lsl #2
    139c:	13010612 	movwne	r0, #5650	; 0x1612
    13a0:	34100000 	ldrcc	r0, [r0], #-0
    13a4:	3a080300 	bcc	201fac <__bss_end__+0x1f36b4>
    13a8:	490b3b0b 	stmdbmi	fp, {r0, r1, r3, r8, r9, fp, ip, sp}
    13ac:	00170213 	andseq	r0, r7, r3, lsl r2
    13b0:	82891100 	addhi	r1, r9, #0, 2
    13b4:	01110101 	tsteq	r1, r1, lsl #2
    13b8:	13011331 	movwne	r1, #4913	; 0x1331
    13bc:	8a120000 	bhi	4813c4 <__bss_end__+0x472acc>
    13c0:	02000182 	andeq	r0, r0, #-2147483616	; 0x80000020
    13c4:	18429118 	stmdane	r2, {r3, r4, r8, ip, pc}^
    13c8:	89130000 	ldmdbhi	r3, {}	; <UNPREDICTABLE>
    13cc:	11000182 	smlabbne	r0, r2, r1, r0
    13d0:	00133101 	andseq	r3, r3, r1, lsl #2
    13d4:	00051400 	andeq	r1, r5, r0, lsl #8
    13d8:	0b3a0803 	bleq	e833ec <__bss_end__+0xe74af4>
    13dc:	13490b3b 	movtne	r0, #39739	; 0x9b3b
    13e0:	00001702 	andeq	r1, r0, r2, lsl #14
    13e4:	03003415 	movweq	r3, #1045	; 0x415
    13e8:	3413490e 	ldrcc	r4, [r3], #-2318	; 0x90e
    13ec:	00180219 	andseq	r0, r8, r9, lsl r2
    13f0:	012e1600 	teqeq	lr, r0, lsl #12
    13f4:	0e03193f 	mcreq	9, 0, r1, cr3, cr15, {1}
    13f8:	0b3b0b3a 	bleq	ec40e8 <__bss_end__+0xeb57f0>
    13fc:	193c1927 	ldmdbne	ip!, {r0, r1, r2, r5, r8, fp, ip}
    1400:	00001301 	andeq	r1, r0, r1, lsl #6
    1404:	49000517 	stmdbmi	r0, {r0, r1, r2, r4, r8, sl}
    1408:	18000013 	stmdane	r0, {r0, r1, r4}
    140c:	193f002e 	ldmdbne	pc!, {r1, r2, r3, r5}	; <UNPREDICTABLE>
    1410:	0b3a0e03 	bleq	e84c24 <__bss_end__+0xe7632c>
    1414:	19270b3b 	stmdbne	r7!, {r0, r1, r3, r4, r5, r8, r9, fp}
    1418:	0000193c 	andeq	r1, r0, ip, lsr r9
    141c:	3f012e19 	svccc	0x00012e19
    1420:	3a0e0319 	bcc	38208c <__bss_end__+0x373794>
    1424:	270b3b0b 	strcs	r3, [fp, -fp, lsl #22]
    1428:	3c134919 	ldccc	9, cr4, [r3], {25}
    142c:	00130119 	andseq	r0, r3, r9, lsl r1
    1430:	00181a00 	andseq	r1, r8, r0, lsl #20
    1434:	01000000 	mrseq	r0, (UNDEF: 0)
    1438:	0e250111 	mcreq	1, 1, r0, cr5, cr1, {0}
    143c:	0e030b13 	vmoveq.32	d3[0], r0
    1440:	01110e1b 	tsteq	r1, fp, lsl lr
    1444:	17100612 			; <UNDEFINED> instruction: 0x17100612
    1448:	24020000 	strcs	r0, [r2], #-0
    144c:	3e0b0b00 	vmlacc.f64	d0, d11, d0
    1450:	0008030b 	andeq	r0, r8, fp, lsl #6
    1454:	00160300 	andseq	r0, r6, r0, lsl #6
    1458:	0b3a0e03 	bleq	e84c6c <__bss_end__+0xe76374>
    145c:	13490b3b 	movtne	r0, #39739	; 0x9b3b
    1460:	24040000 	strcs	r0, [r4], #-0
    1464:	3e0b0b00 	vmlacc.f64	d0, d11, d0
    1468:	000e030b 	andeq	r0, lr, fp, lsl #6
    146c:	000f0500 	andeq	r0, pc, r0, lsl #10
    1470:	00000b0b 	andeq	r0, r0, fp, lsl #22
    1474:	0b011306 	bleq	46094 <__bss_end__+0x3779c>
    1478:	3b0b3a0b 	blcc	2cfcac <__bss_end__+0x2c13b4>
    147c:	0013010b 	andseq	r0, r3, fp, lsl #2
    1480:	000d0700 	andeq	r0, sp, r0, lsl #14
    1484:	0b3a0803 	bleq	e83498 <__bss_end__+0xe74ba0>
    1488:	13490b3b 	movtne	r0, #39739	; 0x9b3b
    148c:	00000b38 	andeq	r0, r0, r8, lsr fp
    1490:	03000d08 	movweq	r0, #3336	; 0xd08
    1494:	3b0b3a0e 	blcc	2cfcd4 <__bss_end__+0x2c13dc>
    1498:	3813490b 	ldmdacc	r3, {r0, r1, r3, r8, fp, lr}
    149c:	0900000b 	stmdbeq	r0, {r0, r1, r3}
    14a0:	0b0b0104 	bleq	2c18b8 <__bss_end__+0x2b2fc0>
    14a4:	0b3b0b3a 	bleq	ec4194 <__bss_end__+0xeb589c>
    14a8:	00001301 	andeq	r1, r0, r1, lsl #6
    14ac:	0300280a 	movweq	r2, #2058	; 0x80a
    14b0:	000d1c0e 	andeq	r1, sp, lr, lsl #24
    14b4:	012e0b00 	teqeq	lr, r0, lsl #22
    14b8:	0e03193f 	mcreq	9, 0, r1, cr3, cr15, {1}
    14bc:	0b3b0b3a 	bleq	ec41ac <__bss_end__+0xeb58b4>
    14c0:	13491927 	movtne	r1, #39207	; 0x9927
    14c4:	06120111 			; <UNDEFINED> instruction: 0x06120111
    14c8:	42971840 	addsmi	r1, r7, #64, 16	; 0x400000
    14cc:	00130119 	andseq	r0, r3, r9, lsl r1
    14d0:	00340c00 	eorseq	r0, r4, r0, lsl #24
    14d4:	0b3a0803 	bleq	e834e8 <__bss_end__+0xe74bf0>
    14d8:	13490b3b 	movtne	r0, #39739	; 0x9b3b
    14dc:	0000061c 	andeq	r0, r0, ip, lsl r6
    14e0:	0182890d 	orreq	r8, r2, sp, lsl #18
    14e4:	31011101 	tstcc	r1, r1, lsl #2
    14e8:	0e000013 	mcreq	0, 0, r0, cr0, cr3, {0}
    14ec:	0001828a 	andeq	r8, r1, sl, lsl #5
    14f0:	42911802 	addsmi	r1, r1, #131072	; 0x20000
    14f4:	0f000018 	svceq	0x00000018
    14f8:	0b0b000f 	bleq	2c153c <__bss_end__+0x2b2c44>
    14fc:	00001349 	andeq	r1, r0, r9, asr #6
    1500:	3f012e10 	svccc	0x00012e10
    1504:	3a0e0319 	bcc	382170 <__bss_end__+0x373878>
    1508:	270b3b0b 	strcs	r3, [fp, -fp, lsl #22]
    150c:	3c134919 	ldccc	9, cr4, [r3], {25}
    1510:	11000019 	tstne	r0, r9, lsl r0
    1514:	13490005 	movtne	r0, #36869	; 0x9005
    1518:	Address 0x0000000000001518 is out of bounds.


Disassembly of section .debug_loc:

00000000 <.debug_loc>:
       0:	00000000 	andeq	r0, r0, r0
       4:	00000017 	andeq	r0, r0, r7, lsl r0
       8:	17500001 	ldrbne	r0, [r0, -r1]
       c:	b4000000 	strlt	r0, [r0], #-0
      10:	01000001 	tsteq	r0, r1
      14:	00005400 	andeq	r5, r0, r0, lsl #8
	...
      20:	00100000 	andseq	r0, r0, r0
      24:	00010000 	andeq	r0, r1, r0
      28:	00001051 	andeq	r1, r0, r1, asr r0
      2c:	00004c00 	andeq	r4, r0, r0, lsl #24
      30:	55000100 	strpl	r0, [r0, #-256]	; 0x100
      34:	0000004c 	andeq	r0, r0, ip, asr #32
      38:	000001b4 			; <UNDEFINED> instruction: 0x000001b4
      3c:	01f30004 	mvnseq	r0, r4
      40:	00009f51 	andeq	r9, r0, r1, asr pc
      44:	00000000 	andeq	r0, r0, r0
      48:	00f80000 	rscseq	r0, r8, r0
      4c:	01200000 	teqeq	r0, r0
      50:	00020000 	andeq	r0, r2, r0
      54:	01209f42 	teqeq	r0, r2, asr #30
      58:	01380000 	teqeq	r8, r0
      5c:	00010000 	andeq	r0, r1, r0
      60:	00013851 	andeq	r3, r1, r1, asr r8
      64:	00014000 	andeq	r4, r1, r0
      68:	42000200 	andmi	r0, r0, #0, 4
      6c:	0001409f 	muleq	r1, pc, r0	; <UNPREDICTABLE>
      70:	00016b00 	andeq	r6, r1, r0, lsl #22
      74:	51000100 	mrspl	r0, (UNDEF: 16)
	...
      80:	00000118 	andeq	r0, r0, r8, lsl r1
      84:	00000124 	andeq	r0, r0, r4, lsr #2
      88:	24520001 	ldrbcs	r0, [r2], #-1
      8c:	28000001 	stmdacs	r0, {r0}
      90:	03000001 	movweq	r0, #1
      94:	9f7f7200 	svcls	0x007f7200
	...
      a0:	000001dc 	ldrdeq	r0, [r0], -ip
      a4:	000001e7 	andeq	r0, r0, r7, ror #3
      a8:	e7500001 	ldrb	r0, [r0, -r1]
      ac:	0c000001 	stceq	0, cr0, [r0], {1}
      b0:	01000002 	tsteq	r0, r2
      b4:	020c5400 	andeq	r5, ip, #0, 8
      b8:	02300000 	eorseq	r0, r0, #0
      bc:	00040000 	andeq	r0, r4, r0
      c0:	9f5001f3 	svcls	0x005001f3
	...
      cc:	000001f0 	strdeq	r0, [r0], -r0	; <UNPREDICTABLE>
      d0:	000001f4 	strdeq	r0, [r0], -r4
      d4:	f4500001 			; <UNDEFINED> instruction: 0xf4500001
      d8:	03000001 	movweq	r0, #1
      dc:	01000002 	tsteq	r0, r2
      e0:	02085100 	andeq	r5, r8, #0, 2
      e4:	02140000 	andseq	r0, r4, #0
      e8:	00010000 	andeq	r0, r1, r0
      ec:	00000051 	andeq	r0, r0, r1, asr r0
      f0:	00000000 	andeq	r0, r0, r0
      f4:	00023000 	andeq	r3, r2, r0
      f8:	00023800 	andeq	r3, r2, r0, lsl #16
      fc:	50000100 	andpl	r0, r0, r0, lsl #2
     100:	00000238 	andeq	r0, r0, r8, lsr r2
     104:	00000378 	andeq	r0, r0, r8, ror r3
     108:	01f30004 	mvnseq	r0, r4
     10c:	00009f50 	andeq	r9, r0, r0, asr pc
     110:	00000000 	andeq	r0, r0, r0
     114:	023c0000 	eorseq	r0, ip, #0
     118:	02480000 	subeq	r0, r8, #0
     11c:	00010000 	andeq	r0, r1, r0
     120:	00028450 	andeq	r8, r2, r0, asr r4
     124:	00029000 	andeq	r9, r2, r0
     128:	50000100 	andpl	r0, r0, r0, lsl #2
     12c:	000002b8 			; <UNDEFINED> instruction: 0x000002b8
     130:	000002c4 	andeq	r0, r0, r4, asr #5
     134:	d0500001 	subsle	r0, r0, r1
     138:	e4000002 	str	r0, [r0], #-2
     13c:	01000002 	tsteq	r0, r2
     140:	00005000 	andeq	r5, r0, r0
     144:	00000000 	andeq	r0, r0, r0
     148:	024c0000 	subeq	r0, ip, #0
     14c:	02500000 	subseq	r0, r0, #0
     150:	00010000 	andeq	r0, r1, r0
     154:	00000050 	andeq	r0, r0, r0, asr r0
     158:	00000000 	andeq	r0, r0, r0
     15c:	00025000 	andeq	r5, r2, r0
     160:	00028400 	andeq	r8, r2, r0, lsl #8
     164:	50000100 	andpl	r0, r0, r0, lsl #2
	...
     170:	00000250 	andeq	r0, r0, r0, asr r2
     174:	00000284 	andeq	r0, r0, r4, lsl #5
     178:	b4030006 	strlt	r0, [r3], #-6
     17c:	9f0000a4 	svcls	0x000000a4
	...
     188:	00000254 	andeq	r0, r0, r4, asr r2
     18c:	00000284 	andeq	r0, r0, r4, lsl #5
     190:	00510001 	subseq	r0, r1, r1
     194:	00000000 	andeq	r0, r0, r0
     198:	54000000 	strpl	r0, [r0], #-0
     19c:	84000002 	strhi	r0, [r0], #-2
     1a0:	06000002 	streq	r0, [r0], -r2
     1a4:	a4b40300 	ldrtge	r0, [r4], #768	; 0x300
     1a8:	009f0000 	addseq	r0, pc, r0
     1ac:	00000000 	andeq	r0, r0, r0
     1b0:	48000000 	stmdami	r0, {}	; <UNPREDICTABLE>
     1b4:	84000002 	strhi	r0, [r0], #-2
     1b8:	06000002 	streq	r0, [r0], -r2
     1bc:	a4b40300 	ldrtge	r0, [r4], #768	; 0x300
     1c0:	909f0000 	addsls	r0, pc, r0
     1c4:	b8000002 	stmdalt	r0, {r1}
     1c8:	06000002 	streq	r0, [r0], -r2
     1cc:	a4b40300 	ldrtge	r0, [r4], #768	; 0x300
     1d0:	009f0000 	addseq	r0, pc, r0
     1d4:	00000000 	andeq	r0, r0, r0
     1d8:	c4000000 	strgt	r0, [r0], #-0
     1dc:	d0000002 	andle	r0, r0, r2
     1e0:	06000002 	streq	r0, [r0], -r2
     1e4:	c4c80300 	strbgt	r0, [r8], #768	; 0x300
     1e8:	f09f0000 			; <UNDEFINED> instruction: 0xf09f0000
     1ec:	34000002 	strcc	r0, [r0], #-2
     1f0:	06000003 	streq	r0, [r0], -r3
     1f4:	c4c80300 	strbgt	r0, [r8], #768	; 0x300
     1f8:	009f0000 	addseq	r0, pc, r0
     1fc:	00000000 	andeq	r0, r0, r0
     200:	c4000000 	strgt	r0, [r0], #-0
     204:	d0000002 	andle	r0, r0, r2
     208:	06000002 	streq	r0, [r0], -r2
     20c:	c4cc0300 	strbgt	r0, [ip], #768	; 0x300
     210:	f09f0000 			; <UNDEFINED> instruction: 0xf09f0000
     214:	34000002 	strcc	r0, [r0], #-2
     218:	06000003 	streq	r0, [r0], -r3
     21c:	c4cc0300 	strbgt	r0, [ip], #768	; 0x300
     220:	009f0000 	addseq	r0, pc, r0
     224:	00000000 	andeq	r0, r0, r0
     228:	04000000 	streq	r0, [r0], #-0
     22c:	14000003 	strne	r0, [r0], #-3
     230:	01000003 	tsteq	r0, r3
     234:	03145300 	tsteq	r4, #0, 6
     238:	03200000 	teqeq	r0, #0
     23c:	00050000 	andeq	r0, r5, r0
     240:	00e4d403 	rsceq	sp, r4, r3, lsl #8
	...
     24c:	00037800 	andeq	r7, r3, r0, lsl #16
     250:	00038300 	andeq	r8, r3, r0, lsl #6
     254:	50000100 	andpl	r0, r0, r0, lsl #2
     258:	00000383 	andeq	r0, r0, r3, lsl #7
     25c:	00000458 	andeq	r0, r0, r8, asr r4
     260:	01f30004 	mvnseq	r0, r4
     264:	00009f50 	andeq	r9, r0, r0, asr pc
     268:	00000000 	andeq	r0, r0, r0
     26c:	03ec0000 	mvneq	r0, #0
     270:	041c0000 	ldreq	r0, [ip], #-0
     274:	00010000 	andeq	r0, r1, r0
     278:	00042056 	andeq	r2, r4, r6, asr r0
     27c:	00044400 	andeq	r4, r4, r0, lsl #8
     280:	56000100 	strpl	r0, [r0], -r0, lsl #2
	...
     28c:	00000384 	andeq	r0, r0, r4, lsl #7
     290:	000003d8 	ldrdeq	r0, [r0], -r8
     294:	00540001 	subseq	r0, r4, r1
     298:	00000000 	andeq	r0, r0, r0
     29c:	90000000 	andls	r0, r0, r0
     2a0:	bc000003 	stclt	0, cr0, [r0], {3}
     2a4:	01000003 	tsteq	r0, r3
     2a8:	03bc5100 			; <UNDEFINED> instruction: 0x03bc5100
     2ac:	03d30000 	bicseq	r0, r3, #0
     2b0:	00050000 	andeq	r0, r5, r0
     2b4:	00e4d003 	rsceq	sp, r4, r3
	...
     2c0:	0003ec00 	andeq	lr, r3, r0, lsl #24
     2c4:	0003f400 	andeq	pc, r3, r0, lsl #8
     2c8:	f2000600 	vmax.s8	d0, d0, d0
     2cc:	00000776 	andeq	r0, r0, r6, ror r7
     2d0:	00040000 	andeq	r0, r4, r0
     2d4:	00044400 	andeq	r4, r4, r0, lsl #8
     2d8:	f2000600 	vmax.s8	d0, d0, d0
     2dc:	00000776 	andeq	r0, r0, r6, ror r7
	...
     2e8:	0003ec00 	andeq	lr, r3, r0, lsl #24
     2ec:	0003f400 	andeq	pc, r3, r0, lsl #8
     2f0:	03000600 	movweq	r0, #1536	; 0x600
     2f4:	0000c4cc 	andeq	ip, r0, ip, asr #9
     2f8:	0004009f 	muleq	r4, pc, r0	; <UNPREDICTABLE>
     2fc:	00044400 	andeq	r4, r4, r0, lsl #8
     300:	03000600 	movweq	r0, #1536	; 0x600
     304:	0000c4cc 	andeq	ip, r0, ip, asr #9
     308:	0000009f 	muleq	r0, pc, r0	; <UNPREDICTABLE>
     30c:	00000000 	andeq	r0, r0, r0
     310:	00041400 	andeq	r1, r4, r0, lsl #8
     314:	00042400 	andeq	r2, r4, r0, lsl #8
     318:	53000100 	movwpl	r0, #256	; 0x100
     31c:	00000424 	andeq	r0, r0, r4, lsr #8
     320:	00000430 	andeq	r0, r0, r0, lsr r4
     324:	d4030005 	strle	r0, [r3], #-5
     328:	000000e4 	andeq	r0, r0, r4, ror #1
     32c:	00000000 	andeq	r0, r0, r0
     330:	58000000 	stmdapl	r0, {}	; <UNPREDICTABLE>
     334:	a0000004 	andge	r0, r0, r4
     338:	03000004 	movweq	r0, #4
     33c:	9f820900 	svcls	0x00820900
     340:	000004a0 	andeq	r0, r0, r0, lsr #9
     344:	000004b4 			; <UNDEFINED> instruction: 0x000004b4
     348:	b4500001 	ldrblt	r0, [r0], #-1
     34c:	c0000004 	andgt	r0, r0, r4
     350:	03000004 	movweq	r0, #4
     354:	9f820900 	svcls	0x00820900
     358:	000004c0 	andeq	r0, r0, r0, asr #9
     35c:	000004d0 	ldrdeq	r0, [r0], -r0	; <UNPREDICTABLE>
     360:	00500001 	subseq	r0, r0, r1
     364:	00000000 	andeq	r0, r0, r0
     368:	74000000 	strvc	r0, [r0], #-0
     36c:	b4000004 	strlt	r0, [r0], #-4
     370:	06000004 	streq	r0, [r0], -r4
     374:	0885f200 	stmeq	r5, {r9, ip, sp, lr, pc}
     378:	bc000000 	stclt	0, cr0, [r0], {-0}
     37c:	d0000004 	andle	r0, r0, r4
     380:	06000004 	streq	r0, [r0], -r4
     384:	0885f200 	stmeq	r5, {r9, ip, sp, lr, pc}
	...
     390:	74000000 	strvc	r0, [r0], #-0
     394:	b4000004 	strlt	r0, [r0], #-4
     398:	06000004 	streq	r0, [r0], -r4
     39c:	a4b40300 	ldrtge	r0, [r4], #768	; 0x300
     3a0:	bc9f0000 	ldclt	0, cr0, [pc], {0}
     3a4:	d0000004 	andle	r0, r0, r4
     3a8:	06000004 	streq	r0, [r0], -r4
     3ac:	a4b40300 	ldrtge	r0, [r4], #768	; 0x300
     3b0:	009f0000 	addseq	r0, pc, r0
     3b4:	00000000 	andeq	r0, r0, r0
     3b8:	98000000 	stmdals	r0, {}	; <UNPREDICTABLE>
     3bc:	a4000004 	strge	r0, [r0], #-4
     3c0:	01000004 	tsteq	r0, r4
     3c4:	04a45100 	strteq	r5, [r4], #256	; 0x100
     3c8:	04b40000 	ldrteq	r0, [r4], #0
     3cc:	00050000 	andeq	r0, r5, r0
     3d0:	00c4bc03 	sbceq	fp, r4, r3, lsl #24
	...
     3dc:	0004d000 	andeq	sp, r4, r0
     3e0:	0004dc00 	andeq	sp, r4, r0, lsl #24
     3e4:	50000100 	andpl	r0, r0, r0, lsl #2
     3e8:	000004dc 	ldrdeq	r0, [r0], -ip
     3ec:	000004f4 	strdeq	r0, [r0], -r4
     3f0:	00540001 	subseq	r0, r4, r1
     3f4:	00000000 	andeq	r0, r0, r0
     3f8:	10000000 	andne	r0, r0, r0
     3fc:	18000006 	stmdane	r0, {r1, r2}
     400:	02000006 	andeq	r0, r0, #6
     404:	189f3000 	ldmne	pc, {ip, sp}	; <UNPREDICTABLE>
     408:	90000006 	andls	r0, r0, r6
     40c:	01000006 	tsteq	r0, r6
     410:	00005600 	andeq	r5, r0, r0, lsl #12
     414:	00000000 	andeq	r0, r0, r0
     418:	06200000 	strteq	r0, [r0], -r0
     41c:	06230000 	strteq	r0, [r3], -r0
     420:	00010000 	andeq	r0, r1, r0
     424:	00062350 	andeq	r2, r6, r0, asr r3
     428:	00064800 	andeq	r4, r6, r0, lsl #16
     42c:	54000100 	strpl	r0, [r0], #-256	; 0x100
	...
     43c:	00000004 	andeq	r0, r0, r4
     440:	04520001 	ldrbeq	r0, [r2], #-1
     444:	20000000 	andcs	r0, r0, r0
     448:	04000000 	streq	r0, [r0], #-0
     44c:	5201f300 	andpl	pc, r1, #0, 6
     450:	0000009f 	muleq	r0, pc, r0	; <UNPREDICTABLE>
	...
     45c:	00000c00 	andeq	r0, r0, r0, lsl #24
     460:	50000100 	andpl	r0, r0, r0, lsl #2
     464:	0000000c 	andeq	r0, r0, ip
     468:	00000014 	andeq	r0, r0, r4, lsl r0
     46c:	01730003 	cmneq	r3, r3
     470:	0000149f 	muleq	r0, pc, r4	; <UNPREDICTABLE>
     474:	00002000 	andeq	r2, r0, r0
     478:	53000100 	movwpl	r0, #256	; 0x100
	...
     484:	0000002c 	andeq	r0, r0, ip, lsr #32
     488:	00000038 	andeq	r0, r0, r8, lsr r0
     48c:	38500001 	ldmdacc	r0, {r0}^
     490:	48000000 	stmdami	r0, {}	; <UNPREDICTABLE>
     494:	01000000 	mrseq	r0, (UNDEF: 0)
     498:	00485500 	subeq	r5, r8, r0, lsl #10
     49c:	00580000 	subseq	r0, r8, r0
     4a0:	00010000 	andeq	r0, r1, r0
     4a4:	00000050 	andeq	r0, r0, r0, asr r0
	...
     4b0:	00000b00 	andeq	r0, r0, r0, lsl #22
     4b4:	50000100 	andpl	r0, r0, r0, lsl #2
     4b8:	0000000b 	andeq	r0, r0, fp
     4bc:	00000014 	andeq	r0, r0, r4, lsl r0
     4c0:	00540001 	subseq	r0, r4, r1
	...
     4cc:	10000000 	andne	r0, r0, r0
     4d0:	01000000 	mrseq	r0, (UNDEF: 0)
     4d4:	00105000 	andseq	r5, r0, r0
     4d8:	00340000 	eorseq	r0, r4, r0
     4dc:	00010000 	andeq	r0, r1, r0
     4e0:	00000054 	andeq	r0, r0, r4, asr r0
	...
     4ec:	00000400 	andeq	r0, r0, r0, lsl #8
     4f0:	50000100 	andpl	r0, r0, r0, lsl #2
     4f4:	00000004 	andeq	r0, r0, r4
     4f8:	0000000c 	andeq	r0, r0, ip
     4fc:	30700003 	rsbscc	r0, r0, r3
     500:	00000c9f 	muleq	r0, pc, ip	; <UNPREDICTABLE>
     504:	00001400 	andeq	r1, r0, r0, lsl #8
     508:	f3000400 	vshl.u8	d0, d0, d0
     50c:	009f5001 	addseq	r5, pc, r1
     510:	00000000 	andeq	r0, r0, r0
     514:	14000000 	strne	r0, [r0], #-0
     518:	20000000 	andcs	r0, r0, r0
     51c:	01000000 	mrseq	r0, (UNDEF: 0)
     520:	00205000 	eoreq	r5, r0, r0
     524:	002c0000 	eoreq	r0, ip, r0
     528:	00030000 	andeq	r0, r3, r0
     52c:	2c9f0170 	ldfcss	f0, [pc], {112}	; 0x70
     530:	40000000 	andmi	r0, r0, r0
     534:	01000000 	mrseq	r0, (UNDEF: 0)
     538:	00005000 	andeq	r5, r0, r0
     53c:	00000000 	andeq	r0, r0, r0
     540:	00140000 	andseq	r0, r4, r0
     544:	00180000 	andseq	r0, r8, r0
     548:	00010000 	andeq	r0, r1, r0
     54c:	00001851 	andeq	r1, r0, r1, asr r8
     550:	00004000 	andeq	r4, r0, r0
     554:	f3000400 	vshl.u8	d0, d0, d0
     558:	009f5101 	addseq	r5, pc, r1, lsl #2
     55c:	00000000 	andeq	r0, r0, r0
     560:	40000000 	andmi	r0, r0, r0
     564:	60000000 	andvs	r0, r0, r0
     568:	01000000 	mrseq	r0, (UNDEF: 0)
     56c:	00605000 	rsbeq	r5, r0, r0
     570:	006c0000 	rsbeq	r0, ip, r0
     574:	00030000 	andeq	r0, r3, r0
     578:	6c9f0171 	ldfvss	f0, [pc], {113}	; 0x71
     57c:	74000000 	strvc	r0, [r0], #-0
     580:	01000000 	mrseq	r0, (UNDEF: 0)
     584:	00745100 	rsbseq	r5, r4, r0, lsl #2
     588:	00800000 	addeq	r0, r0, r0
     58c:	00030000 	andeq	r0, r3, r0
     590:	009f0171 	addseq	r0, pc, r1, ror r1	; <UNPREDICTABLE>
     594:	00000000 	andeq	r0, r0, r0
     598:	40000000 	andmi	r0, r0, r0
     59c:	50000000 	andpl	r0, r0, r0
     5a0:	01000000 	mrseq	r0, (UNDEF: 0)
     5a4:	00505100 	subseq	r5, r0, r0, lsl #2
     5a8:	00800000 	addeq	r0, r0, r0
     5ac:	00040000 	andeq	r0, r4, r0
     5b0:	9f5101f3 	svcls	0x005101f3
	...
     5bc:	00000040 	andeq	r0, r0, r0, asr #32
     5c0:	00000058 	andeq	r0, r0, r8, asr r0
     5c4:	58520001 	ldmdapl	r2, {r0}^
     5c8:	64000000 	strvs	r0, [r0], #-0
     5cc:	01000000 	mrseq	r0, (UNDEF: 0)
     5d0:	00645200 	rsbeq	r5, r4, r0, lsl #4
     5d4:	00680000 	rsbeq	r0, r8, r0
     5d8:	00030000 	andeq	r0, r3, r0
     5dc:	689f0172 	ldmvs	pc, {r1, r4, r5, r6, r8}	; <UNPREDICTABLE>
     5e0:	80000000 	andhi	r0, r0, r0
     5e4:	01000000 	mrseq	r0, (UNDEF: 0)
     5e8:	00005200 	andeq	r5, r0, r0, lsl #4
     5ec:	00000000 	andeq	r0, r0, r0
     5f0:	00400000 	subeq	r0, r0, r0
     5f4:	00540000 	subseq	r0, r4, r0
     5f8:	00010000 	andeq	r0, r1, r0
     5fc:	00005453 	andeq	r5, r0, r3, asr r4
     600:	00007800 	andeq	r7, r0, r0, lsl #16
     604:	53000100 	movwpl	r0, #256	; 0x100
	...
     610:	00000048 	andeq	r0, r0, r8, asr #32
     614:	00000060 	andeq	r0, r0, r0, rrx
     618:	605c0001 	subsvs	r0, ip, r1
     61c:	80000000 	andhi	r0, r0, r0
     620:	0a000000 	beq	628 <_start-0x79d8>
     624:	5201f300 	andpl	pc, r1, #0, 6
     628:	1c5301f3 	ldfnee	f0, [r3], {243}	; 0xf3
     62c:	009f0123 	addseq	r0, pc, r3, lsr #2
     630:	00000000 	andeq	r0, r0, r0
     634:	80000000 	andhi	r0, r0, r0
     638:	a4000000 	strge	r0, [r0], #-0
     63c:	01000000 	mrseq	r0, (UNDEF: 0)
     640:	00a45000 	adceq	r5, r4, r0
     644:	01180000 	tsteq	r8, r0
     648:	00030000 	andeq	r0, r3, r0
     64c:	189f0270 	ldmne	pc, {r4, r5, r6, r9}	; <UNPREDICTABLE>
     650:	1c000001 	stcne	0, cr0, [r0], {1}
     654:	04000002 	streq	r0, [r0], #-2
     658:	5001f300 	andpl	pc, r1, r0, lsl #6
     65c:	0000009f 	muleq	r0, pc, r0	; <UNPREDICTABLE>
     660:	00000000 	andeq	r0, r0, r0
     664:	00008000 	andeq	r8, r0, r0
     668:	0000f000 	andeq	pc, r0, r0
     66c:	51000100 	mrspl	r0, (UNDEF: 16)
     670:	000000f0 	strdeq	r0, [r0], -r0	; <UNPREDICTABLE>
     674:	00000160 	andeq	r0, r0, r0, ror #2
     678:	60550001 	subsvs	r0, r5, r1
     67c:	68000001 	stmdavs	r0, {r0}
     680:	01000001 	tsteq	r0, r1
     684:	01685100 	cmneq	r8, r0, lsl #2
     688:	01880000 	orreq	r0, r8, r0
     68c:	00010000 	andeq	r0, r1, r0
     690:	00018855 	andeq	r8, r1, r5, asr r8
     694:	00019c00 	andeq	r9, r1, r0, lsl #24
     698:	51000100 	mrspl	r0, (UNDEF: 16)
     69c:	0000019c 	muleq	r0, ip, r1
     6a0:	000001bc 			; <UNDEFINED> instruction: 0x000001bc
     6a4:	bc550001 	mrrclt	0, 0, r0, r5, cr1
     6a8:	bf000001 	svclt	0x00000001
     6ac:	01000001 	tsteq	r0, r1
     6b0:	01bf5100 			; <UNDEFINED> instruction: 0x01bf5100
     6b4:	02000000 	andeq	r0, r0, #0
     6b8:	00010000 	andeq	r0, r1, r0
     6bc:	00020055 	andeq	r0, r2, r5, asr r0
     6c0:	00021c00 	andeq	r1, r2, r0, lsl #24
     6c4:	f3000400 	vshl.u8	d0, d0, d0
     6c8:	009f5101 	addseq	r5, pc, r1, lsl #2
     6cc:	00000000 	andeq	r0, r0, r0
     6d0:	80000000 	andhi	r0, r0, r0
     6d4:	94000000 	strls	r0, [r0], #-0
     6d8:	01000000 	mrseq	r0, (UNDEF: 0)
     6dc:	00945200 	addseq	r5, r4, r0, lsl #4
     6e0:	02000000 	andeq	r0, r0, #0
     6e4:	00010000 	andeq	r0, r1, r0
     6e8:	00020054 	andeq	r0, r2, r4, asr r0
     6ec:	00021c00 	andeq	r1, r2, r0, lsl #24
     6f0:	f3000400 	vshl.u8	d0, d0, d0
     6f4:	009f5201 	addseq	r5, pc, r1, lsl #4
     6f8:	00000000 	andeq	r0, r0, r0
     6fc:	80000000 	andhi	r0, r0, r0
     700:	00000000 	andeq	r0, r0, r0
     704:	01000001 	tsteq	r0, r1
     708:	01045300 	mrseq	r5, LR_abt
     70c:	01080000 	mrseq	r0, (UNDEF: 8)
     710:	00010000 	andeq	r0, r1, r0
     714:	00016053 	andeq	r6, r1, r3, asr r0
     718:	00016800 	andeq	r6, r1, r0, lsl #16
     71c:	53000100 	movwpl	r0, #256	; 0x100
     720:	00000168 	andeq	r0, r0, r8, ror #2
     724:	00000188 	andeq	r0, r0, r8, lsl #3
     728:	01f30004 	mvnseq	r0, r4
     72c:	01889f53 	orreq	r9, r8, r3, asr pc
     730:	01900000 	orrseq	r0, r0, r0
     734:	00010000 	andeq	r0, r1, r0
     738:	00019053 	andeq	r9, r1, r3, asr r0
     73c:	00019400 	andeq	r9, r1, r0, lsl #8
     740:	5c000100 	stfpls	f0, [r0], {-0}
     744:	00000194 	muleq	r0, r4, r1
     748:	0000019c 	muleq	r0, ip, r1
     74c:	9c530001 	mrrcls	0, 0, r0, r3, cr1
     750:	bc000001 	stclt	0, cr0, [r0], {1}
     754:	04000001 	streq	r0, [r0], #-1
     758:	5301f300 	movwpl	pc, #4864	; 0x1300	; <UNPREDICTABLE>
     75c:	0001bc9f 	muleq	r1, pc, ip	; <UNPREDICTABLE>
     760:	0001bf00 	andeq	fp, r1, r0, lsl #30
     764:	53000100 	movwpl	r0, #256	; 0x100
     768:	000001bf 			; <UNDEFINED> instruction: 0x000001bf
     76c:	000001d8 	ldrdeq	r0, [r0], -r8
     770:	01f30004 	mvnseq	r0, r4
     774:	00009f53 	andeq	r9, r0, r3, asr pc
     778:	00000000 	andeq	r0, r0, r0
     77c:	00800000 	addeq	r0, r0, r0
     780:	009c0000 	addseq	r0, ip, r0
     784:	00020000 	andeq	r0, r2, r0
     788:	009c0091 	umullseq	r0, ip, r1, r0
     78c:	01bf0000 			; <UNDEFINED> instruction: 0x01bf0000
     790:	00010000 	andeq	r0, r1, r0
     794:	0001d852 	andeq	sp, r1, r2, asr r8
     798:	0001e300 	andeq	lr, r1, r0, lsl #6
     79c:	52000100 	andpl	r0, r0, #0, 2
	...
     7a8:	0000009c 	muleq	r0, ip, r0
     7ac:	00000118 	andeq	r0, r0, r8, lsl r1
     7b0:	185d0001 	ldmdane	sp, {r0}^
     7b4:	1c000001 	stcne	0, cr0, [r0], {1}
     7b8:	01000001 	tsteq	r0, r1
     7bc:	011c5300 	tsteq	ip, r0, lsl #6
     7c0:	01200000 	teqeq	r0, r0
     7c4:	00010000 	andeq	r0, r1, r0
     7c8:	00012051 	andeq	r2, r1, r1, asr r0
     7cc:	00016000 	andeq	r6, r1, r0
     7d0:	53000100 	movwpl	r0, #256	; 0x100
     7d4:	00000160 	andeq	r0, r0, r0, ror #2
     7d8:	00000168 	andeq	r0, r0, r8, ror #2
     7dc:	685d0001 	ldmdavs	sp, {r0}^
     7e0:	6c000001 	stcvs	0, cr0, [r0], {1}
     7e4:	01000001 	tsteq	r0, r1
     7e8:	016c5e00 	cmneq	ip, r0, lsl #28
     7ec:	01880000 	orreq	r0, r8, r0
     7f0:	00010000 	andeq	r0, r1, r0
     7f4:	00018853 	andeq	r8, r1, r3, asr r8
     7f8:	00019000 	andeq	r9, r1, r0
     7fc:	91000400 	tstls	r0, r0, lsl #8
     800:	909f7fa1 	addsls	r7, pc, r1, lsr #31
     804:	94000001 	strls	r0, [r0], #-1
     808:	01000001 	tsteq	r0, r1
     80c:	01945300 	orrseq	r5, r4, r0, lsl #6
     810:	019c0000 	orrseq	r0, ip, r0
     814:	00010000 	andeq	r0, r1, r0
     818:	00019c5d 	andeq	r9, r1, sp, asr ip
     81c:	0001a000 	andeq	sl, r1, r0
     820:	5e000100 	adfpls	f0, f0, f0
     824:	000001a0 	andeq	r0, r0, r0, lsr #3
     828:	000001bc 			; <UNDEFINED> instruction: 0x000001bc
     82c:	bc530001 	mrrclt	0, 0, r0, r3, cr1
     830:	d8000001 	stmdale	r0, {r0}
     834:	01000001 	tsteq	r0, r1
     838:	01d85d00 	bicseq	r5, r8, r0, lsl #26
     83c:	01e30000 	mvneq	r0, r0
     840:	00010000 	andeq	r0, r1, r0
     844:	00000053 	andeq	r0, r0, r3, asr r0
     848:	00000000 	andeq	r0, r0, r0
     84c:	0000a000 	andeq	sl, r0, r0
     850:	0000ec00 	andeq	lr, r0, r0, lsl #24
     854:	5c000100 	stfpls	f0, [r0], {-0}
     858:	000000ec 	andeq	r0, r0, ip, ror #1
     85c:	00000100 	andeq	r0, r0, r0, lsl #2
     860:	00530001 	subseq	r0, r3, r1
     864:	04000001 	streq	r0, [r0], #-1
     868:	01000001 	tsteq	r0, r1
     86c:	01045c00 	tsteq	r4, r0, lsl #24
     870:	01080000 	mrseq	r0, (UNDEF: 8)
     874:	00010000 	andeq	r0, r1, r0
     878:	00010853 	andeq	r0, r1, r3, asr r8
     87c:	00011800 	andeq	r1, r1, r0, lsl #16
     880:	5c000100 	stfpls	f0, [r0], {-0}
     884:	00000118 	andeq	r0, r0, r8, lsl r1
     888:	0000011c 	andeq	r0, r0, ip, lsl r1
     88c:	1c500001 	mrrcne	0, 0, r0, r0, cr1	; <UNPREDICTABLE>
     890:	3c000001 	stccc	0, cr0, [r0], {1}
     894:	01000001 	tsteq	r0, r1
     898:	01445c00 	cmpeq	r4, r0, lsl #24
     89c:	01580000 	cmpeq	r8, r0
     8a0:	00010000 	andeq	r0, r1, r0
     8a4:	00015850 	andeq	r5, r1, r0, asr r8
     8a8:	00016000 	andeq	r6, r1, r0
     8ac:	5c000100 	stfpls	f0, [r0], {-0}
     8b0:	00000160 	andeq	r0, r0, r0, ror #2
     8b4:	00000168 	andeq	r0, r0, r8, ror #2
     8b8:	68530001 	ldmdavs	r3, {r0}^
     8bc:	78000001 	stmdavc	r0, {r0}
     8c0:	01000001 	tsteq	r0, r1
     8c4:	01785c00 	cmneq	r8, r0, lsl #24
     8c8:	01800000 	orreq	r0, r0, r0
     8cc:	00050000 	andeq	r0, r5, r0
     8d0:	2534007c 	ldrcs	r0, [r4, #-124]!	; 0x7c
     8d4:	0001809f 	muleq	r1, pc, r0	; <UNPREDICTABLE>
     8d8:	00018800 	andeq	r8, r1, r0, lsl #16
     8dc:	5c000100 	stfpls	f0, [r0], {-0}
     8e0:	00000188 	andeq	r0, r0, r8, lsl #3
     8e4:	00000190 	muleq	r0, r0, r1
     8e8:	90530001 	subsls	r0, r3, r1
     8ec:	94000001 	strls	r0, [r0], #-1
     8f0:	01000001 	tsteq	r0, r1
     8f4:	01945c00 	orrseq	r5, r4, r0, lsl #24
     8f8:	019c0000 	orrseq	r0, ip, r0
     8fc:	00010000 	andeq	r0, r1, r0
     900:	00019c53 	andeq	r9, r1, r3, asr ip
     904:	0001ac00 	andeq	sl, r1, r0, lsl #24
     908:	5c000100 	stfpls	f0, [r0], {-0}
     90c:	000001ac 	andeq	r0, r0, ip, lsr #3
     910:	000001b4 			; <UNDEFINED> instruction: 0x000001b4
     914:	007c0005 	rsbseq	r0, ip, r5
     918:	b49f2531 	ldrlt	r2, [pc], #1329	; 920 <_start-0x76e0>
     91c:	bc000001 	stclt	0, cr0, [r0], {1}
     920:	01000001 	tsteq	r0, r1
     924:	01bc5c00 			; <UNDEFINED> instruction: 0x01bc5c00
     928:	01bf0000 			; <UNDEFINED> instruction: 0x01bf0000
     92c:	00010000 	andeq	r0, r1, r0
     930:	0001bf53 	andeq	fp, r1, r3, asr pc
     934:	0001d800 	andeq	sp, r1, r0, lsl #16
     938:	f3000400 	vshl.u8	d0, d0, d0
     93c:	d89f5301 	ldmle	pc, {r0, r8, r9, ip, lr}	; <UNPREDICTABLE>
     940:	e3000001 	movw	r0, #1
     944:	01000001 	tsteq	r0, r1
     948:	00005c00 	andeq	r5, r0, r0, lsl #24
     94c:	00000000 	andeq	r0, r0, r0
     950:	00ec0000 	rsceq	r0, ip, r0
     954:	00fc0000 	rscseq	r0, ip, r0
     958:	00020000 	andeq	r0, r2, r0
     95c:	00fc9f30 	rscseq	r9, ip, r0, lsr pc
     960:	01040000 	mrseq	r0, (UNDEF: 4)
     964:	00020000 	andeq	r0, r2, r0
     968:	01049f31 	tsteq	r4, r1, lsr pc
     96c:	01080000 	mrseq	r0, (UNDEF: 8)
     970:	00020000 	andeq	r0, r2, r0
     974:	00009f30 	andeq	r9, r0, r0, lsr pc
     978:	00000000 	andeq	r0, r0, r0
     97c:	021c0000 	andseq	r0, ip, #0
     980:	022b0000 	eoreq	r0, fp, #0
     984:	00010000 	andeq	r0, r1, r0
     988:	00022b50 	andeq	r2, r2, r0, asr fp
     98c:	00024400 	andeq	r4, r2, r0, lsl #8
     990:	f3000400 	vshl.u8	d0, d0, d0
     994:	449f5001 	ldrmi	r5, [pc], #1	; 99c <_start-0x7664>
     998:	70000002 	andvc	r0, r0, r2
     99c:	01000002 	tsteq	r0, r2
     9a0:	00005000 	andeq	r5, r0, r0
     9a4:	00000000 	andeq	r0, r0, r0
     9a8:	021c0000 	andseq	r0, ip, #0
     9ac:	022b0000 	eoreq	r0, fp, #0
     9b0:	00010000 	andeq	r0, r1, r0
     9b4:	00022b51 	andeq	r2, r2, r1, asr fp
     9b8:	00024400 	andeq	r4, r2, r0, lsl #8
     9bc:	f3000400 	vshl.u8	d0, d0, d0
     9c0:	449f5101 	ldrmi	r5, [pc], #257	; 9c8 <_start-0x7638>
     9c4:	70000002 	andvc	r0, r0, r2
     9c8:	01000002 	tsteq	r0, r2
     9cc:	00005100 	andeq	r5, r0, r0, lsl #2
     9d0:	00000000 	andeq	r0, r0, r0
     9d4:	02700000 	rsbseq	r0, r0, #0
     9d8:	029c0000 	addseq	r0, ip, #0
     9dc:	00010000 	andeq	r0, r1, r0
     9e0:	00029c50 	andeq	r9, r2, r0, asr ip
     9e4:	0004e400 	andeq	lr, r4, r0, lsl #8
     9e8:	5a000100 	bpl	df0 <_start-0x7210>
     9ec:	000004e4 	andeq	r0, r0, r4, ror #9
     9f0:	000004f8 	strdeq	r0, [r0], -r8
     9f4:	01f30004 	mvnseq	r0, r4
     9f8:	00009f50 	andeq	r9, r0, r0, asr pc
     9fc:	00000000 	andeq	r0, r0, r0
     a00:	02700000 	rsbseq	r0, r0, #0
     a04:	02840000 	addeq	r0, r4, #0
     a08:	00010000 	andeq	r0, r1, r0
     a0c:	00028451 	andeq	r8, r2, r1, asr r4
     a10:	00029c00 	andeq	r9, r2, r0, lsl #24
     a14:	71000300 	mrsvc	r0, LR_irq
     a18:	029c9f01 	addseq	r9, ip, #1, 30
     a1c:	04f80000 	ldrbteq	r0, [r8], #0
     a20:	00040000 	andeq	r0, r4, r0
     a24:	9f5101f3 	svcls	0x005101f3
	...
     a30:	00000270 	andeq	r0, r0, r0, ror r2
     a34:	000002a4 	andeq	r0, r0, r4, lsr #5
     a38:	a4520001 	ldrbge	r0, [r2], #-1
     a3c:	cc000002 	stcgt	0, cr0, [r0], {2}
     a40:	01000002 	tsteq	r0, r2
     a44:	02cc5200 	sbceq	r5, ip, #0, 4
     a48:	04940000 	ldreq	r0, [r4], #0
     a4c:	00010000 	andeq	r0, r1, r0
     a50:	00049456 	andeq	r9, r4, r6, asr r4
     a54:	0004f800 	andeq	pc, r4, r0, lsl #16
     a58:	52000100 	andpl	r0, r0, #0, 2
	...
     a64:	00000270 	andeq	r0, r0, r0, ror r2
     a68:	0000028c 	andeq	r0, r0, ip, lsl #5
     a6c:	00530001 	subseq	r0, r3, r1
     a70:	00000000 	andeq	r0, r0, r0
     a74:	80000000 	andhi	r0, r0, r0
     a78:	9c000002 	stcls	0, cr0, [r0], {2}
     a7c:	01000002 	tsteq	r0, r2
     a80:	029c5000 	addseq	r5, ip, #0
     a84:	02a00000 	adceq	r0, r0, #0
     a88:	00010000 	andeq	r0, r1, r0
     a8c:	0002a054 	andeq	sl, r2, r4, asr r0
     a90:	0002ac00 	andeq	sl, r2, r0, lsl #24
     a94:	74000300 	strvc	r0, [r0], #-768	; 0x300
     a98:	02ac9f01 	adceq	r9, ip, #1, 30
     a9c:	02b80000 	adcseq	r0, r8, #0
     aa0:	00010000 	andeq	r0, r1, r0
     aa4:	0002b854 	andeq	fp, r2, r4, asr r8
     aa8:	0002c400 	andeq	ip, r2, r0, lsl #8
     aac:	74000300 	strvc	r0, [r0], #-768	; 0x300
     ab0:	02c49f01 	sbceq	r9, r4, #1, 30
     ab4:	04980000 	ldreq	r0, [r8], #0
     ab8:	00010000 	andeq	r0, r1, r0
     abc:	00049854 	andeq	r9, r4, r4, asr r8
     ac0:	0004a400 	andeq	sl, r4, r0, lsl #8
     ac4:	74000300 	strvc	r0, [r0], #-768	; 0x300
     ac8:	04a49f01 	strteq	r9, [r4], #3841	; 0xf01
     acc:	04d00000 	ldrbeq	r0, [r0], #0
     ad0:	00010000 	andeq	r0, r1, r0
     ad4:	0004d054 	andeq	sp, r4, r4, asr r0
     ad8:	0004dc00 	andeq	sp, r4, r0, lsl #24
     adc:	50000100 	andpl	r0, r0, r0, lsl #2
     ae0:	000004dc 	ldrdeq	r0, [r0], -ip
     ae4:	000004e4 	andeq	r0, r0, r4, ror #9
     ae8:	01740003 	cmneq	r4, r3
     aec:	0000009f 	muleq	r0, pc, r0	; <UNPREDICTABLE>
     af0:	00000000 	andeq	r0, r0, r0
     af4:	00028800 	andeq	r8, r2, r0, lsl #16
     af8:	0004e400 	andeq	lr, r4, r0, lsl #8
     afc:	58000100 	stmdapl	r0, {r8}
     b00:	000004e4 	andeq	r0, r0, r4, ror #9
     b04:	000004f8 	strdeq	r0, [r0], -r8
     b08:	01f3000a 	mvnseq	r0, sl
     b0c:	5001f351 	andpl	pc, r1, r1, asr r3	; <UNPREDICTABLE>
     b10:	9f1c3122 	svcls	0x001c3122
	...
     b1c:	000003cc 	andeq	r0, r0, ip, asr #7
     b20:	000003d0 	ldrdeq	r0, [r0], -r0	; <UNPREDICTABLE>
     b24:	f0500001 			; <UNDEFINED> instruction: 0xf0500001
     b28:	f4000003 	vst4.8	{d0-d3}, [r0], r3
     b2c:	01000003 	tsteq	r0, r3
     b30:	04145000 	ldreq	r5, [r4], #-0
     b34:	04180000 	ldreq	r0, [r8], #-0
     b38:	00010000 	andeq	r0, r1, r0
     b3c:	00043850 	andeq	r3, r4, r0, asr r8
     b40:	00043c00 	andeq	r3, r4, r0, lsl #24
     b44:	50000100 	andpl	r0, r0, r0, lsl #2
     b48:	00000444 	andeq	r0, r0, r4, asr #8
     b4c:	00000448 	andeq	r0, r0, r8, asr #8
     b50:	68500001 	ldmdavs	r0, {r0}^
     b54:	6c000004 	stcvs	0, cr0, [r0], {4}
     b58:	01000004 	tsteq	r0, r4
     b5c:	04905000 	ldreq	r5, [r0], #0
     b60:	04b80000 	ldrteq	r0, [r8], #0
     b64:	00010000 	andeq	r0, r1, r0
     b68:	00000050 	andeq	r0, r0, r0, asr r0
     b6c:	00000000 	andeq	r0, r0, r0
     b70:	0002cc00 	andeq	ip, r2, r0, lsl #24
     b74:	0002d400 	andeq	sp, r2, r0, lsl #8
     b78:	30000200 	andcc	r0, r0, r0, lsl #4
     b7c:	0002d49f 	muleq	r2, pc, r4	; <UNPREDICTABLE>
     b80:	0002d800 	andeq	sp, r2, r0, lsl #16
     b84:	57000100 	strpl	r0, [r0, -r0, lsl #2]
     b88:	000002e4 	andeq	r0, r0, r4, ror #5
     b8c:	000004b8 			; <UNDEFINED> instruction: 0x000004b8
     b90:	00570001 	subseq	r0, r7, r1
	...
     b9c:	0c000000 	stceq	0, cr0, [r0], {-0}
     ba0:	01000000 	mrseq	r0, (UNDEF: 0)
     ba4:	000c5000 	andeq	r5, ip, r0
     ba8:	00200000 	eoreq	r0, r0, r0
     bac:	00010000 	andeq	r0, r1, r0
     bb0:	00000054 	andeq	r0, r0, r4, asr r0
     bb4:	00000000 	andeq	r0, r0, r0
     bb8:	00003400 	andeq	r3, r0, r0, lsl #8
     bbc:	00003c00 	andeq	r3, r0, r0, lsl #24
     bc0:	73000300 	movwvc	r0, #768	; 0x300
     bc4:	003c9f04 	eorseq	r9, ip, r4, lsl #30
     bc8:	00470000 	subeq	r0, r7, r0
     bcc:	00010000 	andeq	r0, r1, r0
     bd0:	00000053 	andeq	r0, r0, r3, asr r0
     bd4:	00000000 	andeq	r0, r0, r0
     bd8:	00004800 	andeq	r4, r0, r0, lsl #16
     bdc:	00007400 	andeq	r7, r0, r0, lsl #8
     be0:	50000100 	andpl	r0, r0, r0, lsl #2
     be4:	00000074 	andeq	r0, r0, r4, ror r0
     be8:	00000083 	andeq	r0, r0, r3, lsl #1
     bec:	78730003 	ldmdavc	r3!, {r0, r1}^
     bf0:	0000009f 	muleq	r0, pc, r0	; <UNPREDICTABLE>
     bf4:	00000000 	andeq	r0, r0, r0
     bf8:	008d5800 	addeq	r5, sp, r0, lsl #16
     bfc:	008d5c00 	addeq	r5, sp, r0, lsl #24
     c00:	30000200 	andcc	r0, r0, r0, lsl #4
     c04:	008d5c9f 	umulleq	r5, sp, pc, ip	; <UNPREDICTABLE>
     c08:	008d6000 	addeq	r6, sp, r0
     c0c:	50000100 	andpl	r0, r0, r0, lsl #2
	...
     c18:	00008d70 	andeq	r8, r0, r0, ror sp
     c1c:	00008d74 	andeq	r8, r0, r4, ror sp
     c20:	9f300002 	svcls	0x00300002
     c24:	00008d74 	andeq	r8, r0, r4, ror sp
     c28:	00008d78 	andeq	r8, r0, r8, ror sp
     c2c:	7c530001 	mrrcvc	0, 0, r0, r3, cr1
     c30:	8400008d 	strhi	r0, [r0], #-141	; 0x8d
     c34:	0100008d 	smlabbeq	r0, sp, r0, r0
     c38:	00005300 	andeq	r5, r0, r0, lsl #6
	...
     c44:	00040000 	andeq	r0, r4, r0
     c48:	00010000 	andeq	r0, r1, r0
     c4c:	00000450 	andeq	r0, r0, r0, asr r4
     c50:	00000c00 	andeq	r0, r0, r0, lsl #24
     c54:	53000100 	movwpl	r0, #256	; 0x100
     c58:	0000000c 	andeq	r0, r0, ip
     c5c:	00000010 	andeq	r0, r0, r0, lsl r0
     c60:	10500001 	subsne	r0, r0, r1
     c64:	1c000000 	stcne	0, cr0, [r0], {-0}
     c68:	01000000 	mrseq	r0, (UNDEF: 0)
     c6c:	00005300 	andeq	r5, r0, r0, lsl #6
     c70:	00000000 	andeq	r0, r0, r0
     c74:	003c0000 	eorseq	r0, ip, r0
     c78:	00470000 	subeq	r0, r7, r0
     c7c:	00010000 	andeq	r0, r1, r0
     c80:	00004750 	andeq	r4, r0, r0, asr r7
     c84:	00006000 	andeq	r6, r0, r0
     c88:	55000100 	strpl	r0, [r0, #-256]	; 0x100
	...
     c94:	00000050 	andeq	r0, r0, r0, asr r0
     c98:	00000054 	andeq	r0, r0, r4, asr r0
     c9c:	00500001 	subseq	r0, r0, r1
     ca0:	00000000 	andeq	r0, r0, r0
     ca4:	60000000 	andvs	r0, r0, r0
     ca8:	6c000000 	stcvs	0, cr0, [r0], {-0}
     cac:	01000000 	mrseq	r0, (UNDEF: 0)
     cb0:	006c5000 	rsbeq	r5, ip, r0
     cb4:	00740000 	rsbseq	r0, r4, r0
     cb8:	00040000 	andeq	r0, r4, r0
     cbc:	9f5001f3 	svcls	0x005001f3
	...
     cc8:	00000074 	andeq	r0, r0, r4, ror r0
     ccc:	00000080 	andeq	r0, r0, r0, lsl #1
     cd0:	80500001 	subshi	r0, r0, r1
     cd4:	88000000 	stmdahi	r0, {}	; <UNPREDICTABLE>
     cd8:	04000000 	streq	r0, [r0], #-0
     cdc:	5001f300 	andpl	pc, r1, r0, lsl #6
     ce0:	0000009f 	muleq	r0, pc, r0	; <UNPREDICTABLE>
	...
     cec:	00009000 	andeq	r9, r0, r0
     cf0:	50000100 	andpl	r0, r0, r0, lsl #2
     cf4:	00000090 	muleq	r0, r0, r0
     cf8:	000000d4 	ldrdeq	r0, [r0], -r4
     cfc:	00540001 	subseq	r0, r4, r1
     d00:	00000000 	andeq	r0, r0, r0
     d04:	48000000 	stmdami	r0, {}	; <UNPREDICTABLE>
     d08:	4c000000 	stcmi	0, cr0, [r0], {-0}
     d0c:	01000000 	mrseq	r0, (UNDEF: 0)
     d10:	00545500 	subseq	r5, r4, r0, lsl #10
     d14:	00580000 	subseq	r0, r8, r0
     d18:	00010000 	andeq	r0, r1, r0
     d1c:	00006055 	andeq	r6, r0, r5, asr r0
     d20:	00006400 	andeq	r6, r0, r0, lsl #8
     d24:	55000100 	strpl	r0, [r0, #-256]	; 0x100
     d28:	0000006c 	andeq	r0, r0, ip, rrx
     d2c:	00000070 	andeq	r0, r0, r0, ror r0
     d30:	78550001 	ldmdavc	r5, {r0}^
     d34:	7c000000 	stcvc	0, cr0, [r0], {-0}
     d38:	01000000 	mrseq	r0, (UNDEF: 0)
     d3c:	00845500 	addeq	r5, r4, r0, lsl #10
     d40:	00880000 	addeq	r0, r8, r0
     d44:	00010000 	andeq	r0, r1, r0
     d48:	00008c55 	andeq	r8, r0, r5, asr ip
     d4c:	0000d400 	andeq	sp, r0, r0, lsl #8
     d50:	55000100 	strpl	r0, [r0, #-256]	; 0x100
	...
     d5c:	0000001c 	andeq	r0, r0, ip, lsl r0
     d60:	00000044 	andeq	r0, r0, r4, asr #32
     d64:	44530001 	ldrbmi	r0, [r3], #-1
     d68:	4c000000 	stcmi	0, cr0, [r0], {-0}
     d6c:	1c000000 	stcne	0, cr0, [r0], {-0}
     d70:	f7007000 			; <UNDEFINED> instruction: 0xf7007000
     d74:	f425f72c 	vld1.8	{d15}, [r5 :128], ip
     d78:	cccd0825 	stclgt	8, cr0, [sp], {37}	; 0x25
     d7c:	0000cccc 	andeq	ip, r0, ip, asr #25
     d80:	081e0000 	ldmdaeq	lr, {}	; <UNPREDICTABLE>
     d84:	2525f720 	strcs	pc, [r5, #-1824]!	; 0x720
     d88:	25332cf7 	ldrcs	r2, [r3, #-3319]!	; 0xcf7
     d8c:	00004c9f 	muleq	r0, pc, ip	; <UNPREDICTABLE>
     d90:	00005000 	andeq	r5, r0, r0
     d94:	53000100 	movwpl	r0, #256	; 0x100
     d98:	00000050 	andeq	r0, r0, r0, asr r0
     d9c:	00000058 	andeq	r0, r0, r8, asr r0
     da0:	0070001c 	rsbseq	r0, r0, ip, lsl r0
     da4:	25f72cf7 	ldrbcs	r2, [r7, #3319]!	; 0xcf7
     da8:	cd0825f4 	cfstr32gt	mvfx2, [r8, #-976]	; 0xfffffc30
     dac:	00cccccc 	sbceq	ip, ip, ip, asr #25
     db0:	1e000000 	cdpne	0, 0, cr0, cr0, cr0, {0}
     db4:	25f72008 	ldrbcs	r2, [r7, #8]!
     db8:	332cf725 	msrcc	CPSR_fs, #9699328	; 0x940000
     dbc:	00589f25 	subseq	r9, r8, r5, lsr #30
     dc0:	005c0000 	subseq	r0, ip, r0
     dc4:	00010000 	andeq	r0, r1, r0
     dc8:	00005c53 	andeq	r5, r0, r3, asr ip
     dcc:	00006400 	andeq	r6, r0, r0, lsl #8
     dd0:	70001c00 	andvc	r1, r0, r0, lsl #24
     dd4:	f72cf700 			; <UNDEFINED> instruction: 0xf72cf700
     dd8:	0825f425 	stmdaeq	r5!, {r0, r2, r5, sl, ip, sp, lr, pc}
     ddc:	cccccccd 	stclgt	12, cr12, [ip], {205}	; 0xcd
     de0:	00000000 	andeq	r0, r0, r0
     de4:	f720081e 			; <UNDEFINED> instruction: 0xf720081e
     de8:	2cf72525 	cfldr64cs	mvdx2, [r7], #148	; 0x94
     dec:	649f2533 	ldrvs	r2, [pc], #1331	; df4 <_start-0x720c>
     df0:	68000000 	stmdavs	r0, {}	; <UNPREDICTABLE>
     df4:	01000000 	mrseq	r0, (UNDEF: 0)
     df8:	00685300 	rsbeq	r5, r8, r0, lsl #6
     dfc:	00700000 	rsbseq	r0, r0, r0
     e00:	001c0000 	andseq	r0, ip, r0
     e04:	2cf70070 	ldclcs	0, cr0, [r7], #448	; 0x1c0
     e08:	25f425f7 	ldrbcs	r2, [r4, #1527]!	; 0x5f7
     e0c:	cccccd08 	stclgt	13, cr12, [ip], {8}
     e10:	000000cc 	andeq	r0, r0, ip, asr #1
     e14:	20081e00 	andcs	r1, r8, r0, lsl #28
     e18:	f72525f7 			; <UNDEFINED> instruction: 0xf72525f7
     e1c:	9f25332c 	svcls	0x0025332c
     e20:	00000070 	andeq	r0, r0, r0, ror r0
     e24:	00000074 	andeq	r0, r0, r4, ror r0
     e28:	74530001 	ldrbvc	r0, [r3], #-1
     e2c:	7c000000 	stcvc	0, cr0, [r0], {-0}
     e30:	1c000000 	stcne	0, cr0, [r0], {-0}
     e34:	f7007000 			; <UNDEFINED> instruction: 0xf7007000
     e38:	f425f72c 	vld1.8	{d15}, [r5 :128], ip
     e3c:	cccd0825 	stclgt	8, cr0, [sp], {37}	; 0x25
     e40:	0000cccc 	andeq	ip, r0, ip, asr #25
     e44:	081e0000 	ldmdaeq	lr, {}	; <UNPREDICTABLE>
     e48:	2525f720 	strcs	pc, [r5, #-1824]!	; 0x720
     e4c:	25332cf7 	ldrcs	r2, [r3, #-3319]!	; 0xcf7
     e50:	00007c9f 	muleq	r0, pc, ip	; <UNPREDICTABLE>
     e54:	00008000 	andeq	r8, r0, r0
     e58:	53000100 	movwpl	r0, #256	; 0x100
     e5c:	00000080 	andeq	r0, r0, r0, lsl #1
     e60:	00000088 	andeq	r0, r0, r8, lsl #1
     e64:	0070001c 	rsbseq	r0, r0, ip, lsl r0
     e68:	25f72cf7 	ldrbcs	r2, [r7, #3319]!	; 0xcf7
     e6c:	cd0825f4 	cfstr32gt	mvfx2, [r8, #-976]	; 0xfffffc30
     e70:	00cccccc 	sbceq	ip, ip, ip, asr #25
     e74:	1e000000 	cdpne	0, 0, cr0, cr0, cr0, {0}
     e78:	25f72008 	ldrbcs	r2, [r7, #8]!
     e7c:	332cf725 	msrcc	CPSR_fs, #9699328	; 0x940000
     e80:	00889f25 	addeq	r9, r8, r5, lsr #30
     e84:	008c0000 	addeq	r0, ip, r0
     e88:	00010000 	andeq	r0, r1, r0
     e8c:	00008c53 	andeq	r8, r0, r3, asr ip
     e90:	00009000 	andeq	r9, r0, r0
     e94:	70001c00 	andvc	r1, r0, r0, lsl #24
     e98:	f72cf700 			; <UNDEFINED> instruction: 0xf72cf700
     e9c:	0825f425 	stmdaeq	r5!, {r0, r2, r5, sl, ip, sp, lr, pc}
     ea0:	cccccccd 	stclgt	12, cr12, [ip], {205}	; 0xcd
     ea4:	00000000 	andeq	r0, r0, r0
     ea8:	f720081e 			; <UNDEFINED> instruction: 0xf720081e
     eac:	2cf72525 	cfldr64cs	mvdx2, [r7], #148	; 0x94
     eb0:	909f2533 	addsls	r2, pc, r3, lsr r5	; <UNPREDICTABLE>
     eb4:	98000000 	stmdals	r0, {}	; <UNPREDICTABLE>
     eb8:	1c000000 	stcne	0, cr0, [r0], {-0}
     ebc:	f7007400 			; <UNDEFINED> instruction: 0xf7007400
     ec0:	f425f72c 	vld1.8	{d15}, [r5 :128], ip
     ec4:	cccd0825 	stclgt	8, cr0, [sp], {37}	; 0x25
     ec8:	0000cccc 	andeq	ip, r0, ip, asr #25
     ecc:	081e0000 	ldmdaeq	lr, {}	; <UNPREDICTABLE>
     ed0:	2525f720 	strcs	pc, [r5, #-1824]!	; 0x720
     ed4:	25332cf7 	ldrcs	r2, [r3, #-3319]!	; 0xcf7
     ed8:	0000989f 	muleq	r0, pc, r8	; <UNPREDICTABLE>
     edc:	00009c00 	andeq	r9, r0, r0, lsl #24
     ee0:	74001700 	strvc	r1, [r0], #-1792	; 0x700
     ee4:	f72cf700 			; <UNDEFINED> instruction: 0xf72cf700
     ee8:	f7007125 			; <UNDEFINED> instruction: 0xf7007125
     eec:	1e25f72c 	cdpne	7, 2, cr15, cr5, cr12, {1}
     ef0:	25f72008 	ldrbcs	r2, [r7, #8]!
     ef4:	332cf725 	msrcc	CPSR_fs, #9699328	; 0x940000
     ef8:	009c9f25 	addseq	r9, ip, r5, lsr #30
     efc:	00d40000 	sbcseq	r0, r4, r0
     f00:	001c0000 	andseq	r0, ip, r0
     f04:	2cf70074 	ldclcs	0, cr0, [r7], #464	; 0x1d0
     f08:	25f425f7 	ldrbcs	r2, [r4, #1527]!	; 0x5f7
     f0c:	cccccd08 	stclgt	13, cr12, [ip], {8}
     f10:	000000cc 	andeq	r0, r0, ip, asr #1
     f14:	20081e00 	andcs	r1, r8, r0, lsl #28
     f18:	f72525f7 			; <UNDEFINED> instruction: 0xf72525f7
     f1c:	9f25332c 	svcls	0x0025332c
	...
     f28:	00000094 	muleq	r0, r4, r0
     f2c:	000000b8 	strheq	r0, [r0], -r8
     f30:	b8500001 	ldmdalt	r0, {r0}^
     f34:	c4000000 	strgt	r0, [r0], #-0
     f38:	08000000 	stmdaeq	r0, {}	; <UNPREDICTABLE>
     f3c:	00713100 	rsbseq	r3, r1, r0, lsl #2
     f40:	21007324 	tstcs	r0, r4, lsr #6
     f44:	0000c49f 	muleq	r0, pc, r4	; <UNPREDICTABLE>
     f48:	0000c700 	andeq	ip, r0, r0, lsl #14
     f4c:	51000100 	mrspl	r0, (UNDEF: 16)
	...
     f58:	000000d4 	ldrdeq	r0, [r0], -r4
     f5c:	000000f8 	strdeq	r0, [r0], -r8
     f60:	f8500001 			; <UNDEFINED> instruction: 0xf8500001
     f64:	0c000000 	stceq	0, cr0, [r0], {-0}
     f68:	04000001 	streq	r0, [r0], #-1
     f6c:	5001f300 	andpl	pc, r1, r0, lsl #6
     f70:	0000009f 	muleq	r0, pc, r0	; <UNPREDICTABLE>
     f74:	00000000 	andeq	r0, r0, r0
     f78:	0000e000 	andeq	lr, r0, r0
     f7c:	0000e800 	andeq	lr, r0, r0, lsl #16
     f80:	30000200 	andcc	r0, r0, r0, lsl #4
     f84:	0000e89f 	muleq	r0, pc, r8	; <UNPREDICTABLE>
     f88:	0000e800 	andeq	lr, r0, r0, lsl #16
     f8c:	52000100 	andpl	r0, r0, #0, 2
     f90:	000000e8 	andeq	r0, r0, r8, ror #1
     f94:	000000f0 	strdeq	r0, [r0], -r0	; <UNPREDICTABLE>
     f98:	9f300002 	svcls	0x00300002
     f9c:	000000f0 	strdeq	r0, [r0], -r0	; <UNPREDICTABLE>
     fa0:	00000103 	andeq	r0, r0, r3, lsl #2
     fa4:	00520001 	subseq	r0, r2, r1
     fa8:	00000000 	andeq	r0, r0, r0
     fac:	e0000000 	and	r0, r0, r0
     fb0:	f4000000 	vst4.8	{d0-d3}, [r0], r0
     fb4:	02000000 	andeq	r0, r0, #0
     fb8:	f49f3000 			; <UNDEFINED> instruction: 0xf49f3000
     fbc:	00000000 	andeq	r0, r0, r0
     fc0:	05000001 	streq	r0, [r0, #-1]
     fc4:	00733100 	rsbseq	r3, r3, r0, lsl #2
     fc8:	01009f24 	tsteq	r0, r4, lsr #30
     fcc:	01030000 	mrseq	r0, (UNDEF: 3)
     fd0:	00010000 	andeq	r0, r1, r0
     fd4:	00010351 	andeq	r0, r1, r1, asr r3
     fd8:	00010c00 	andeq	r0, r1, r0, lsl #24
     fdc:	31000800 	tstcc	r0, r0, lsl #16
     fe0:	4f5001f3 	svcmi	0x005001f3
     fe4:	009f241a 	addseq	r2, pc, sl, lsl r4	; <UNPREDICTABLE>
     fe8:	00000000 	andeq	r0, r0, r0
     fec:	0c000000 	stceq	0, cr0, [r0], {-0}
     ff0:	30000001 	andcc	r0, r0, r1
     ff4:	01000001 	tsteq	r0, r1
     ff8:	01305000 	teqeq	r0, r0
     ffc:	01440000 	mrseq	r0, (UNDEF: 68)
    1000:	00040000 	andeq	r0, r4, r0
    1004:	9f5001f3 	svcls	0x005001f3
	...
    1010:	00000118 	andeq	r0, r0, r8, lsl r1
    1014:	00000120 	andeq	r0, r0, r0, lsr #2
    1018:	9f300002 	svcls	0x00300002
    101c:	00000120 	andeq	r0, r0, r0, lsr #2
    1020:	00000120 	andeq	r0, r0, r0, lsr #2
    1024:	20520001 	subscs	r0, r2, r1
    1028:	28000001 	stmdacs	r0, {r0}
    102c:	02000001 	andeq	r0, r0, #1
    1030:	289f3000 	ldmcs	pc, {ip, sp}	; <UNPREDICTABLE>
    1034:	3b000001 	blcc	1040 <_start-0x6fc0>
    1038:	01000001 	tsteq	r0, r1
    103c:	00005200 	andeq	r5, r0, r0, lsl #4
    1040:	00000000 	andeq	r0, r0, r0
    1044:	01180000 	tsteq	r8, r0
    1048:	012c0000 	teqeq	ip, r0
    104c:	00020000 	andeq	r0, r2, r0
    1050:	012c9f30 	teqeq	ip, r0, lsr pc
    1054:	01380000 	teqeq	r8, r0
    1058:	00050000 	andeq	r0, r5, r0
    105c:	24007331 	strcs	r7, [r0], #-817	; 0x331
    1060:	0001389f 	muleq	r1, pc, r8	; <UNPREDICTABLE>
    1064:	00013b00 	andeq	r3, r1, r0, lsl #22
    1068:	51000100 	mrspl	r0, (UNDEF: 16)
    106c:	0000013b 	andeq	r0, r0, fp, lsr r1
    1070:	00000144 	andeq	r0, r0, r4, asr #2
    1074:	f3310008 	vhadd.u<illegal width 64>	d0, d1, d8
    1078:	1a4f5001 	bne	13d5084 <__bss_end__+0x13c678c>
    107c:	00009f24 	andeq	r9, r0, r4, lsr #30
    1080:	00000000 	andeq	r0, r0, r0
    1084:	01440000 	mrseq	r0, (UNDEF: 68)
    1088:	01d40000 	bicseq	r0, r4, r0
    108c:	00010000 	andeq	r0, r1, r0
    1090:	0001d450 	andeq	sp, r1, r0, asr r4
    1094:	00021000 	andeq	r1, r2, r0
    1098:	54000100 	strpl	r0, [r0], #-256	; 0x100
	...
    10a4:	0000018c 	andeq	r0, r0, ip, lsl #3
    10a8:	00000190 	muleq	r0, r0, r1
    10ac:	98550001 	ldmdals	r5, {r0}^
    10b0:	9c000001 	stcls	0, cr0, [r0], {1}
    10b4:	01000001 	tsteq	r0, r1
    10b8:	01a45500 			; <UNDEFINED> instruction: 0x01a45500
    10bc:	01a80000 			; <UNDEFINED> instruction: 0x01a80000
    10c0:	00010000 	andeq	r0, r1, r0
    10c4:	0001b055 	andeq	fp, r1, r5, asr r0
    10c8:	0001b400 	andeq	fp, r1, r0, lsl #8
    10cc:	55000100 	strpl	r0, [r0, #-256]	; 0x100
    10d0:	000001bc 			; <UNDEFINED> instruction: 0x000001bc
    10d4:	000001c0 	andeq	r0, r0, r0, asr #3
    10d8:	c8550001 	ldmdagt	r5, {r0}^
    10dc:	cc000001 	stcgt	0, cr0, [r0], {1}
    10e0:	01000001 	tsteq	r0, r1
    10e4:	01d05500 	bicseq	r5, r0, r0, lsl #10
    10e8:	02100000 	andseq	r0, r0, #0
    10ec:	00010000 	andeq	r0, r1, r0
    10f0:	00000055 	andeq	r0, r0, r5, asr r0
    10f4:	00000000 	andeq	r0, r0, r0
    10f8:	00016000 	andeq	r6, r1, r0
    10fc:	00018800 	andeq	r8, r1, r0, lsl #16
    1100:	53000100 	movwpl	r0, #256	; 0x100
    1104:	00000188 	andeq	r0, r0, r8, lsl #3
    1108:	00000190 	muleq	r0, r0, r1
    110c:	0070001c 	rsbseq	r0, r0, ip, lsl r0
    1110:	25f72cf7 	ldrbcs	r2, [r7, #3319]!	; 0xcf7
    1114:	cd0825f4 	cfstr32gt	mvfx2, [r8, #-976]	; 0xfffffc30
    1118:	00cccccc 	sbceq	ip, ip, ip, asr #25
    111c:	1e000000 	cdpne	0, 0, cr0, cr0, cr0, {0}
    1120:	25f72008 	ldrbcs	r2, [r7, #8]!
    1124:	332cf725 	msrcc	CPSR_fs, #9699328	; 0x940000
    1128:	01909f25 	orrseq	r9, r0, r5, lsr #30
    112c:	01940000 	orrseq	r0, r4, r0
    1130:	00010000 	andeq	r0, r1, r0
    1134:	00019453 	andeq	r9, r1, r3, asr r4
    1138:	00019c00 	andeq	r9, r1, r0, lsl #24
    113c:	70001c00 	andvc	r1, r0, r0, lsl #24
    1140:	f72cf700 			; <UNDEFINED> instruction: 0xf72cf700
    1144:	0825f425 	stmdaeq	r5!, {r0, r2, r5, sl, ip, sp, lr, pc}
    1148:	cccccccd 	stclgt	12, cr12, [ip], {205}	; 0xcd
    114c:	00000000 	andeq	r0, r0, r0
    1150:	f720081e 			; <UNDEFINED> instruction: 0xf720081e
    1154:	2cf72525 	cfldr64cs	mvdx2, [r7], #148	; 0x94
    1158:	9c9f2533 	cfldr32ls	mvfx2, [pc], {51}	; 0x33
    115c:	a0000001 	andge	r0, r0, r1
    1160:	01000001 	tsteq	r0, r1
    1164:	01a05300 	lsleq	r5, r0, #6
    1168:	01a80000 			; <UNDEFINED> instruction: 0x01a80000
    116c:	001c0000 	andseq	r0, ip, r0
    1170:	2cf70070 	ldclcs	0, cr0, [r7], #448	; 0x1c0
    1174:	25f425f7 	ldrbcs	r2, [r4, #1527]!	; 0x5f7
    1178:	cccccd08 	stclgt	13, cr12, [ip], {8}
    117c:	000000cc 	andeq	r0, r0, ip, asr #1
    1180:	20081e00 	andcs	r1, r8, r0, lsl #28
    1184:	f72525f7 			; <UNDEFINED> instruction: 0xf72525f7
    1188:	9f25332c 	svcls	0x0025332c
    118c:	000001a8 	andeq	r0, r0, r8, lsr #3
    1190:	000001ac 	andeq	r0, r0, ip, lsr #3
    1194:	ac530001 	mrrcge	0, 0, r0, r3, cr1
    1198:	b4000001 	strlt	r0, [r0], #-1
    119c:	1c000001 	stcne	0, cr0, [r0], {1}
    11a0:	f7007000 			; <UNDEFINED> instruction: 0xf7007000
    11a4:	f425f72c 	vld1.8	{d15}, [r5 :128], ip
    11a8:	cccd0825 	stclgt	8, cr0, [sp], {37}	; 0x25
    11ac:	0000cccc 	andeq	ip, r0, ip, asr #25
    11b0:	081e0000 	ldmdaeq	lr, {}	; <UNPREDICTABLE>
    11b4:	2525f720 	strcs	pc, [r5, #-1824]!	; 0x720
    11b8:	25332cf7 	ldrcs	r2, [r3, #-3319]!	; 0xcf7
    11bc:	0001b49f 	muleq	r1, pc, r4	; <UNPREDICTABLE>
    11c0:	0001b800 	andeq	fp, r1, r0, lsl #16
    11c4:	53000100 	movwpl	r0, #256	; 0x100
    11c8:	000001b8 			; <UNDEFINED> instruction: 0x000001b8
    11cc:	000001c0 	andeq	r0, r0, r0, asr #3
    11d0:	0070001c 	rsbseq	r0, r0, ip, lsl r0
    11d4:	25f72cf7 	ldrbcs	r2, [r7, #3319]!	; 0xcf7
    11d8:	cd0825f4 	cfstr32gt	mvfx2, [r8, #-976]	; 0xfffffc30
    11dc:	00cccccc 	sbceq	ip, ip, ip, asr #25
    11e0:	1e000000 	cdpne	0, 0, cr0, cr0, cr0, {0}
    11e4:	25f72008 	ldrbcs	r2, [r7, #8]!
    11e8:	332cf725 	msrcc	CPSR_fs, #9699328	; 0x940000
    11ec:	01c09f25 	biceq	r9, r0, r5, lsr #30
    11f0:	01c40000 	biceq	r0, r4, r0
    11f4:	00010000 	andeq	r0, r1, r0
    11f8:	0001c453 	andeq	ip, r1, r3, asr r4
    11fc:	0001cc00 	andeq	ip, r1, r0, lsl #24
    1200:	70001c00 	andvc	r1, r0, r0, lsl #24
    1204:	f72cf700 			; <UNDEFINED> instruction: 0xf72cf700
    1208:	0825f425 	stmdaeq	r5!, {r0, r2, r5, sl, ip, sp, lr, pc}
    120c:	cccccccd 	stclgt	12, cr12, [ip], {205}	; 0xcd
    1210:	00000000 	andeq	r0, r0, r0
    1214:	f720081e 			; <UNDEFINED> instruction: 0xf720081e
    1218:	2cf72525 	cfldr64cs	mvdx2, [r7], #148	; 0x94
    121c:	cc9f2533 	cfldr32gt	mvfx2, [pc], {51}	; 0x33
    1220:	d0000001 	andle	r0, r0, r1
    1224:	01000001 	tsteq	r0, r1
    1228:	01d05300 	bicseq	r5, r0, r0, lsl #6
    122c:	01d40000 	bicseq	r0, r4, r0
    1230:	001c0000 	andseq	r0, ip, r0
    1234:	2cf70070 	ldclcs	0, cr0, [r7], #448	; 0x1c0
    1238:	25f425f7 	ldrbcs	r2, [r4, #1527]!	; 0x5f7
    123c:	cccccd08 	stclgt	13, cr12, [ip], {8}
    1240:	000000cc 	andeq	r0, r0, ip, asr #1
    1244:	20081e00 	andcs	r1, r8, r0, lsl #28
    1248:	f72525f7 			; <UNDEFINED> instruction: 0xf72525f7
    124c:	9f25332c 	svcls	0x0025332c
    1250:	000001d4 	ldrdeq	r0, [r0], -r4
    1254:	000001dc 	ldrdeq	r0, [r0], -ip
    1258:	0074001c 	rsbseq	r0, r4, ip, lsl r0
    125c:	25f72cf7 	ldrbcs	r2, [r7, #3319]!	; 0xcf7
    1260:	cd0825f4 	cfstr32gt	mvfx2, [r8, #-976]	; 0xfffffc30
    1264:	00cccccc 	sbceq	ip, ip, ip, asr #25
    1268:	1e000000 	cdpne	0, 0, cr0, cr0, cr0, {0}
    126c:	25f72008 	ldrbcs	r2, [r7, #8]!
    1270:	332cf725 	msrcc	CPSR_fs, #9699328	; 0x940000
    1274:	01dc9f25 	bicseq	r9, ip, r5, lsr #30
    1278:	01e00000 	mvneq	r0, r0
    127c:	00170000 	andseq	r0, r7, r0
    1280:	2cf70074 	ldclcs	0, cr0, [r7], #464	; 0x1d0
    1284:	007125f7 	ldrshteq	r2, [r1], #-87	; 0xffffffa9
    1288:	25f72cf7 	ldrbcs	r2, [r7, #3319]!	; 0xcf7
    128c:	f720081e 			; <UNDEFINED> instruction: 0xf720081e
    1290:	2cf72525 	cfldr64cs	mvdx2, [r7], #148	; 0x94
    1294:	e09f2533 	adds	r2, pc, r3, lsr r5	; <UNPREDICTABLE>
    1298:	10000001 	andne	r0, r0, r1
    129c:	1c000002 	stcne	0, cr0, [r0], {2}
    12a0:	f7007400 			; <UNDEFINED> instruction: 0xf7007400
    12a4:	f425f72c 	vld1.8	{d15}, [r5 :128], ip
    12a8:	cccd0825 	stclgt	8, cr0, [sp], {37}	; 0x25
    12ac:	0000cccc 	andeq	ip, r0, ip, asr #25
    12b0:	081e0000 	ldmdaeq	lr, {}	; <UNPREDICTABLE>
    12b4:	2525f720 	strcs	pc, [r5, #-1824]!	; 0x720
    12b8:	25332cf7 	ldrcs	r2, [r3, #-3319]!	; 0xcf7
    12bc:	0000009f 	muleq	r0, pc, r0	; <UNPREDICTABLE>
    12c0:	00000000 	andeq	r0, r0, r0
    12c4:	0001d800 	andeq	sp, r1, r0, lsl #16
    12c8:	0001fc00 	andeq	pc, r1, r0, lsl #24
    12cc:	50000100 	andpl	r0, r0, r0, lsl #2
    12d0:	000001fc 	strdeq	r0, [r0], -ip
    12d4:	00000203 	andeq	r0, r0, r3, lsl #4
    12d8:	00510001 	subseq	r0, r1, r1
    12dc:	00000000 	andeq	r0, r0, r0
    12e0:	10000000 	andne	r0, r0, r0
    12e4:	2c000002 	stccs	0, cr0, [r0], {2}
    12e8:	01000002 	tsteq	r0, r2
    12ec:	022c5000 	eoreq	r5, ip, #0
    12f0:	02340000 	eorseq	r0, r4, #0
    12f4:	00010000 	andeq	r0, r1, r0
    12f8:	00023454 	andeq	r3, r2, r4, asr r4
    12fc:	00023c00 	andeq	r3, r2, r0, lsl #24
    1300:	50000100 	andpl	r0, r0, r0, lsl #2
    1304:	0000023c 	andeq	r0, r0, ip, lsr r2
    1308:	00000244 	andeq	r0, r0, r4, asr #4
    130c:	44540001 	ldrbmi	r0, [r4], #-1
    1310:	50000002 	andpl	r0, r0, r2
    1314:	04000002 	streq	r0, [r0], #-2
    1318:	5001f300 	andpl	pc, r1, r0, lsl #6
    131c:	0002509f 	muleq	r2, pc, r0	; <UNPREDICTABLE>
    1320:	00025400 	andeq	r5, r2, r0, lsl #8
    1324:	50000100 	andpl	r0, r0, r0, lsl #2
    1328:	00000254 	andeq	r0, r0, r4, asr r2
    132c:	0000025c 	andeq	r0, r0, ip, asr r2
    1330:	00540001 	subseq	r0, r4, r1
    1334:	00000000 	andeq	r0, r0, r0
    1338:	20000000 	andcs	r0, r0, r0
    133c:	30000002 	andcc	r0, r0, r2
    1340:	02000002 	andeq	r0, r0, #2
    1344:	309f3000 	addscc	r3, pc, r0
    1348:	34000002 	strcc	r0, [r0], #-2
    134c:	01000002 	tsteq	r0, r2
    1350:	02345000 	eorseq	r5, r4, #0
    1354:	02400000 	subeq	r0, r0, #0
    1358:	00020000 	andeq	r0, r2, r0
    135c:	02409f30 	subeq	r9, r0, #48, 30	; 0xc0
    1360:	024c0000 	subeq	r0, ip, #0
    1364:	00010000 	andeq	r0, r1, r0
    1368:	00000050 	andeq	r0, r0, r0, asr r0
    136c:	00000000 	andeq	r0, r0, r0
    1370:	00025c00 	andeq	r5, r2, r0, lsl #24
    1374:	00029000 	andeq	r9, r2, r0
    1378:	50000100 	andpl	r0, r0, r0, lsl #2
    137c:	00000290 	muleq	r0, r0, r2
    1380:	000002a0 	andeq	r0, r0, r0, lsr #5
    1384:	01f30004 	mvnseq	r0, r4
    1388:	02a09f50 	adceq	r9, r0, #80, 30	; 0x140
    138c:	02c00000 	sbceq	r0, r0, #0
    1390:	00010000 	andeq	r0, r1, r0
    1394:	0002c050 	andeq	ip, r2, r0, asr r0
    1398:	0002d400 	andeq	sp, r2, r0, lsl #8
    139c:	f3000400 	vshl.u8	d0, d0, d0
    13a0:	009f5001 	addseq	r5, pc, r1
    13a4:	00000000 	andeq	r0, r0, r0
    13a8:	5c000000 	stcpl	0, cr0, [r0], {-0}
    13ac:	94000002 	strls	r0, [r0], #-2
    13b0:	01000002 	tsteq	r0, r2
    13b4:	02945100 	addseq	r5, r4, #0, 2
    13b8:	02a00000 	adceq	r0, r0, #0
    13bc:	00040000 	andeq	r0, r4, r0
    13c0:	9f5101f3 	svcls	0x005101f3
    13c4:	000002a0 	andeq	r0, r0, r0, lsr #5
    13c8:	000002c4 	andeq	r0, r0, r4, asr #5
    13cc:	c4510001 	ldrbgt	r0, [r1], #-1
    13d0:	d4000002 	strle	r0, [r0], #-2
    13d4:	04000002 	streq	r0, [r0], #-2
    13d8:	5101f300 	mrspl	pc, SP_irq	; <UNPREDICTABLE>
    13dc:	0000009f 	muleq	r0, pc, r0	; <UNPREDICTABLE>
    13e0:	00000000 	andeq	r0, r0, r0
    13e4:	00027000 	andeq	r7, r2, r0
    13e8:	00029000 	andeq	r9, r2, r0
    13ec:	50000100 	andpl	r0, r0, r0, lsl #2
    13f0:	00000290 	muleq	r0, r0, r2
    13f4:	000002a0 	andeq	r0, r0, r0, lsr #5
    13f8:	01f30004 	mvnseq	r0, r4
    13fc:	00009f50 	andeq	r9, r0, r0, asr pc
    1400:	00000000 	andeq	r0, r0, r0
    1404:	02780000 	rsbseq	r0, r8, #0
    1408:	02800000 	addeq	r0, r0, #0
    140c:	00020000 	andeq	r0, r2, r0
    1410:	02809f30 	addeq	r9, r0, #48, 30	; 0xc0
    1414:	02800000 	addeq	r0, r0, #0
    1418:	00010000 	andeq	r0, r1, r0
    141c:	00028052 	andeq	r8, r2, r2, asr r0
    1420:	00028800 	andeq	r8, r2, r0, lsl #16
    1424:	30000200 	andcc	r0, r0, r0, lsl #4
    1428:	0002889f 	muleq	r2, pc, r8	; <UNPREDICTABLE>
    142c:	00029b00 	andeq	r9, r2, r0, lsl #22
    1430:	52000100 	andpl	r0, r0, #0, 2
	...
    143c:	00000278 	andeq	r0, r0, r8, ror r2
    1440:	0000028c 	andeq	r0, r0, ip, lsl #5
    1444:	9f300002 	svcls	0x00300002
    1448:	0000028c 	andeq	r0, r0, ip, lsl #5
    144c:	00000298 	muleq	r0, r8, r2
    1450:	73310005 	teqvc	r1, #5
    1454:	989f2400 	ldmls	pc, {sl, sp}	; <UNPREDICTABLE>
    1458:	9b000002 	blls	1468 <_start-0x6b98>
    145c:	01000002 	tsteq	r0, r2
    1460:	029b5100 	addseq	r5, fp, #0, 2
    1464:	02a00000 	adceq	r0, r0, #0
    1468:	00080000 	andeq	r0, r8, r0
    146c:	5001f331 	andpl	pc, r1, r1, lsr r3	; <UNPREDICTABLE>
    1470:	9f241a4f 	svcls	0x00241a4f
	...
    147c:	000002a0 	andeq	r0, r0, r0, lsr #5
    1480:	000002c0 	andeq	r0, r0, r0, asr #5
    1484:	c0500001 	subsgt	r0, r0, r1
    1488:	d4000002 	strle	r0, [r0], #-2
    148c:	04000002 	streq	r0, [r0], #-2
    1490:	5001f300 	andpl	pc, r1, r0, lsl #6
    1494:	0000009f 	muleq	r0, pc, r0	; <UNPREDICTABLE>
    1498:	00000000 	andeq	r0, r0, r0
    149c:	0002a800 	andeq	sl, r2, r0, lsl #16
    14a0:	0002b000 	andeq	fp, r2, r0
    14a4:	30000200 	andcc	r0, r0, r0, lsl #4
    14a8:	0002b09f 	muleq	r2, pc, r0	; <UNPREDICTABLE>
    14ac:	0002b000 	andeq	fp, r2, r0
    14b0:	52000100 	andpl	r0, r0, #0, 2
    14b4:	000002b0 			; <UNDEFINED> instruction: 0x000002b0
    14b8:	000002b8 			; <UNDEFINED> instruction: 0x000002b8
    14bc:	9f300002 	svcls	0x00300002
    14c0:	000002b8 			; <UNDEFINED> instruction: 0x000002b8
    14c4:	000002cb 	andeq	r0, r0, fp, asr #5
    14c8:	00520001 	subseq	r0, r2, r1
    14cc:	00000000 	andeq	r0, r0, r0
    14d0:	a8000000 	stmdage	r0, {}	; <UNPREDICTABLE>
    14d4:	bc000002 	stclt	0, cr0, [r0], {2}
    14d8:	02000002 	andeq	r0, r0, #2
    14dc:	bc9f3000 	ldclt	0, cr3, [pc], {0}
    14e0:	c8000002 	stmdagt	r0, {r1}
    14e4:	05000002 	streq	r0, [r0, #-2]
    14e8:	00733100 	rsbseq	r3, r3, r0, lsl #2
    14ec:	02c89f24 	sbceq	r9, r8, #36, 30	; 0x90
    14f0:	02cb0000 	sbceq	r0, fp, #0
    14f4:	00010000 	andeq	r0, r1, r0
    14f8:	0002cb51 	andeq	ip, r2, r1, asr fp
    14fc:	0002d400 	andeq	sp, r2, r0, lsl #8
    1500:	31000800 	tstcc	r0, r0, lsl #16
    1504:	4f5001f3 	svcmi	0x005001f3
    1508:	009f241a 	addseq	r2, pc, sl, lsl r4	; <UNPREDICTABLE>
    150c:	00000000 	andeq	r0, r0, r0
    1510:	d4000000 	strle	r0, [r0], #-0
    1514:	6c000002 	stcvs	0, cr0, [r0], {2}
    1518:	01000003 	tsteq	r0, r3
    151c:	036c5000 	cmneq	ip, #0
    1520:	03ac0000 			; <UNDEFINED> instruction: 0x03ac0000
    1524:	00010000 	andeq	r0, r1, r0
    1528:	00000054 	andeq	r0, r0, r4, asr r0
    152c:	00000000 	andeq	r0, r0, r0
    1530:	0002d400 	andeq	sp, r2, r0, lsl #8
    1534:	00036f00 	andeq	r6, r3, r0, lsl #30
    1538:	51000100 	mrspl	r0, (UNDEF: 16)
    153c:	0000036f 	andeq	r0, r0, pc, ror #6
    1540:	000003ac 	andeq	r0, r0, ip, lsr #7
    1544:	01f30004 	mvnseq	r0, r4
    1548:	00009f51 	andeq	r9, r0, r1, asr pc
    154c:	00000000 	andeq	r0, r0, r0
    1550:	03240000 	teqeq	r4, #0
    1554:	03280000 	teqeq	r8, #0
    1558:	00010000 	andeq	r0, r1, r0
    155c:	00033056 	andeq	r3, r3, r6, asr r0
    1560:	00033400 	andeq	r3, r3, r0, lsl #8
    1564:	56000100 	strpl	r0, [r0], -r0, lsl #2
    1568:	0000033c 	andeq	r0, r0, ip, lsr r3
    156c:	00000340 	andeq	r0, r0, r0, asr #6
    1570:	48560001 	ldmdami	r6, {r0}^
    1574:	4c000003 	stcmi	0, cr0, [r0], {3}
    1578:	01000003 	tsteq	r0, r3
    157c:	03545600 	cmpeq	r4, #0, 12
    1580:	03580000 	cmpeq	r8, #0
    1584:	00010000 	andeq	r0, r1, r0
    1588:	00036056 	andeq	r6, r3, r6, asr r0
    158c:	00036400 	andeq	r6, r3, r0, lsl #8
    1590:	56000100 	strpl	r0, [r0], -r0, lsl #2
    1594:	00000368 	andeq	r0, r0, r8, ror #6
    1598:	000003ac 	andeq	r0, r0, ip, lsr #7
    159c:	00560001 	subseq	r0, r6, r1
    15a0:	00000000 	andeq	r0, r0, r0
    15a4:	f8000000 			; <UNDEFINED> instruction: 0xf8000000
    15a8:	20000002 	andcs	r0, r0, r2
    15ac:	01000003 	tsteq	r0, r3
    15b0:	03205300 	teqeq	r0, #0, 6
    15b4:	03280000 	teqeq	r8, #0
    15b8:	001c0000 	andseq	r0, ip, r0
    15bc:	2cf70070 	ldclcs	0, cr0, [r7], #448	; 0x1c0
    15c0:	25f425f7 	ldrbcs	r2, [r4, #1527]!	; 0x5f7
    15c4:	cccccd08 	stclgt	13, cr12, [ip], {8}
    15c8:	000000cc 	andeq	r0, r0, ip, asr #1
    15cc:	20081e00 	andcs	r1, r8, r0, lsl #28
    15d0:	f72525f7 			; <UNDEFINED> instruction: 0xf72525f7
    15d4:	9f25332c 	svcls	0x0025332c
    15d8:	00000328 	andeq	r0, r0, r8, lsr #6
    15dc:	0000032c 	andeq	r0, r0, ip, lsr #6
    15e0:	2c530001 	mrrccs	0, 0, r0, r3, cr1
    15e4:	34000003 	strcc	r0, [r0], #-3
    15e8:	1c000003 	stcne	0, cr0, [r0], {3}
    15ec:	f7007000 			; <UNDEFINED> instruction: 0xf7007000
    15f0:	f425f72c 	vld1.8	{d15}, [r5 :128], ip
    15f4:	cccd0825 	stclgt	8, cr0, [sp], {37}	; 0x25
    15f8:	0000cccc 	andeq	ip, r0, ip, asr #25
    15fc:	081e0000 	ldmdaeq	lr, {}	; <UNPREDICTABLE>
    1600:	2525f720 	strcs	pc, [r5, #-1824]!	; 0x720
    1604:	25332cf7 	ldrcs	r2, [r3, #-3319]!	; 0xcf7
    1608:	0003349f 	muleq	r3, pc, r4	; <UNPREDICTABLE>
    160c:	00033800 	andeq	r3, r3, r0, lsl #16
    1610:	53000100 	movwpl	r0, #256	; 0x100
    1614:	00000338 	andeq	r0, r0, r8, lsr r3
    1618:	00000340 	andeq	r0, r0, r0, asr #6
    161c:	0070001c 	rsbseq	r0, r0, ip, lsl r0
    1620:	25f72cf7 	ldrbcs	r2, [r7, #3319]!	; 0xcf7
    1624:	cd0825f4 	cfstr32gt	mvfx2, [r8, #-976]	; 0xfffffc30
    1628:	00cccccc 	sbceq	ip, ip, ip, asr #25
    162c:	1e000000 	cdpne	0, 0, cr0, cr0, cr0, {0}
    1630:	25f72008 	ldrbcs	r2, [r7, #8]!
    1634:	332cf725 	msrcc	CPSR_fs, #9699328	; 0x940000
    1638:	03409f25 	movteq	r9, #3877	; 0xf25
    163c:	03440000 	movteq	r0, #16384	; 0x4000
    1640:	00010000 	andeq	r0, r1, r0
    1644:	00034453 	andeq	r4, r3, r3, asr r4
    1648:	00034c00 	andeq	r4, r3, r0, lsl #24
    164c:	70001c00 	andvc	r1, r0, r0, lsl #24
    1650:	f72cf700 			; <UNDEFINED> instruction: 0xf72cf700
    1654:	0825f425 	stmdaeq	r5!, {r0, r2, r5, sl, ip, sp, lr, pc}
    1658:	cccccccd 	stclgt	12, cr12, [ip], {205}	; 0xcd
    165c:	00000000 	andeq	r0, r0, r0
    1660:	f720081e 			; <UNDEFINED> instruction: 0xf720081e
    1664:	2cf72525 	cfldr64cs	mvdx2, [r7], #148	; 0x94
    1668:	4c9f2533 	cfldr32mi	mvfx2, [pc], {51}	; 0x33
    166c:	50000003 	andpl	r0, r0, r3
    1670:	01000003 	tsteq	r0, r3
    1674:	03505300 	cmpeq	r0, #0, 6
    1678:	03580000 	cmpeq	r8, #0
    167c:	001c0000 	andseq	r0, ip, r0
    1680:	2cf70070 	ldclcs	0, cr0, [r7], #448	; 0x1c0
    1684:	25f425f7 	ldrbcs	r2, [r4, #1527]!	; 0x5f7
    1688:	cccccd08 	stclgt	13, cr12, [ip], {8}
    168c:	000000cc 	andeq	r0, r0, ip, asr #1
    1690:	20081e00 	andcs	r1, r8, r0, lsl #28
    1694:	f72525f7 			; <UNDEFINED> instruction: 0xf72525f7
    1698:	9f25332c 	svcls	0x0025332c
    169c:	00000358 	andeq	r0, r0, r8, asr r3
    16a0:	0000035c 	andeq	r0, r0, ip, asr r3
    16a4:	5c530001 	mrrcpl	0, 0, r0, r3, cr1
    16a8:	64000003 	strvs	r0, [r0], #-3
    16ac:	1c000003 	stcne	0, cr0, [r0], {3}
    16b0:	f7007000 			; <UNDEFINED> instruction: 0xf7007000
    16b4:	f425f72c 	vld1.8	{d15}, [r5 :128], ip
    16b8:	cccd0825 	stclgt	8, cr0, [sp], {37}	; 0x25
    16bc:	0000cccc 	andeq	ip, r0, ip, asr #25
    16c0:	081e0000 	ldmdaeq	lr, {}	; <UNPREDICTABLE>
    16c4:	2525f720 	strcs	pc, [r5, #-1824]!	; 0x720
    16c8:	25332cf7 	ldrcs	r2, [r3, #-3319]!	; 0xcf7
    16cc:	0003649f 	muleq	r3, pc, r4	; <UNPREDICTABLE>
    16d0:	00036800 	andeq	r6, r3, r0, lsl #16
    16d4:	53000100 	movwpl	r0, #256	; 0x100
    16d8:	00000368 	andeq	r0, r0, r8, ror #6
    16dc:	0000036c 	andeq	r0, r0, ip, ror #6
    16e0:	0070001c 	rsbseq	r0, r0, ip, lsl r0
    16e4:	25f72cf7 	ldrbcs	r2, [r7, #3319]!	; 0xcf7
    16e8:	cd0825f4 	cfstr32gt	mvfx2, [r8, #-976]	; 0xfffffc30
    16ec:	00cccccc 	sbceq	ip, ip, ip, asr #25
    16f0:	1e000000 	cdpne	0, 0, cr0, cr0, cr0, {0}
    16f4:	25f72008 	ldrbcs	r2, [r7, #8]!
    16f8:	332cf725 	msrcc	CPSR_fs, #9699328	; 0x940000
    16fc:	036c9f25 	cmneq	ip, #37, 30	; 0x94
    1700:	03740000 	cmneq	r4, #0
    1704:	001c0000 	andseq	r0, ip, r0
    1708:	2cf70074 	ldclcs	0, cr0, [r7], #464	; 0x1d0
    170c:	25f425f7 	ldrbcs	r2, [r4, #1527]!	; 0x5f7
    1710:	cccccd08 	stclgt	13, cr12, [ip], {8}
    1714:	000000cc 	andeq	r0, r0, ip, asr #1
    1718:	20081e00 	andcs	r1, r8, r0, lsl #28
    171c:	f72525f7 			; <UNDEFINED> instruction: 0xf72525f7
    1720:	9f25332c 	svcls	0x0025332c
    1724:	00000374 	andeq	r0, r0, r4, ror r3
    1728:	00000378 	andeq	r0, r0, r8, ror r3
    172c:	00740017 	rsbseq	r0, r4, r7, lsl r0
    1730:	25f72cf7 	ldrbcs	r2, [r7, #3319]!	; 0xcf7
    1734:	2cf70073 	ldclcs	0, cr0, [r7], #460	; 0x1cc
    1738:	081e25f7 	ldmdaeq	lr, {r0, r1, r2, r4, r5, r6, r7, r8, sl, sp}
    173c:	2525f720 	strcs	pc, [r5, #-1824]!	; 0x720
    1740:	25332cf7 	ldrcs	r2, [r3, #-3319]!	; 0xcf7
    1744:	0003789f 	muleq	r3, pc, r8	; <UNPREDICTABLE>
    1748:	0003ac00 	andeq	sl, r3, r0, lsl #24
    174c:	74001c00 	strvc	r1, [r0], #-3072	; 0xc00
    1750:	f72cf700 			; <UNDEFINED> instruction: 0xf72cf700
    1754:	0825f425 	stmdaeq	r5!, {r0, r2, r5, sl, ip, sp, lr, pc}
    1758:	cccccccd 	stclgt	12, cr12, [ip], {205}	; 0xcd
    175c:	00000000 	andeq	r0, r0, r0
    1760:	f720081e 			; <UNDEFINED> instruction: 0xf720081e
    1764:	2cf72525 	cfldr64cs	mvdx2, [r7], #148	; 0x94
    1768:	009f2533 	addseq	r2, pc, r3, lsr r5	; <UNPREDICTABLE>
    176c:	00000000 	andeq	r0, r0, r0
    1770:	70000000 	andvc	r0, r0, r0
    1774:	94000003 	strls	r0, [r0], #-3
    1778:	01000003 	tsteq	r0, r3
    177c:	03945000 	orrseq	r5, r4, #0
    1780:	039c0000 	orrseq	r0, ip, #0
    1784:	00090000 	andeq	r0, r9, r0
    1788:	00730075 	rsbseq	r0, r3, r5, ror r0
    178c:	21007124 	tstcs	r0, r4, lsr #2
    1790:	00039c9f 	muleq	r3, pc, ip	; <UNPREDICTABLE>
    1794:	00039f00 	andeq	r9, r3, r0, lsl #30
    1798:	51000100 	mrspl	r0, (UNDEF: 16)
	...
    17a4:	000003ac 	andeq	r0, r0, ip, lsr #7
    17a8:	000003b8 			; <UNDEFINED> instruction: 0x000003b8
    17ac:	b8500001 	ldmdalt	r0, {r0}^
    17b0:	d8000003 	stmdale	r0, {r0, r1}
    17b4:	04000003 	streq	r0, [r0], #-3
    17b8:	5001f300 	andpl	pc, r1, r0, lsl #6
    17bc:	0000009f 	muleq	r0, pc, r0	; <UNPREDICTABLE>
    17c0:	00000000 	andeq	r0, r0, r0
    17c4:	0003d800 	andeq	sp, r3, r0, lsl #16
    17c8:	0003eb00 	andeq	lr, r3, r0, lsl #22
    17cc:	50000100 	andpl	r0, r0, r0, lsl #2
    17d0:	000003eb 	andeq	r0, r0, fp, ror #7
    17d4:	00000424 	andeq	r0, r0, r4, lsr #8
    17d8:	24540001 	ldrbcs	r0, [r4], #-1
    17dc:	5c000004 	stcpl	0, cr0, [r0], {4}
    17e0:	04000004 	streq	r0, [r0], #-4
    17e4:	5001f300 	andpl	pc, r1, r0, lsl #6
    17e8:	0000009f 	muleq	r0, pc, r0	; <UNPREDICTABLE>
    17ec:	00000000 	andeq	r0, r0, r0
    17f0:	00044400 	andeq	r4, r4, r0, lsl #8
    17f4:	00044800 	andeq	r4, r4, r0, lsl #16
    17f8:	50000100 	andpl	r0, r0, r0, lsl #2
    17fc:	00000448 	andeq	r0, r0, r8, asr #8
    1800:	0000044f 	andeq	r0, r0, pc, asr #8
    1804:	00510001 	subseq	r0, r1, r1
	...
    1810:	08000004 	stmdaeq	r0, {r2}
    1814:	01000004 	tsteq	r0, r4
    1818:	04085000 	streq	r5, [r8], #-0
    181c:	040f0000 	streq	r0, [pc], #-0	; 1824 <_start-0x67dc>
    1820:	00010000 	andeq	r0, r1, r0
    1824:	00000051 	andeq	r0, r0, r1, asr r0
    1828:	00000000 	andeq	r0, r0, r0
    182c:	00042000 	andeq	r2, r4, r0
    1830:	00042c00 	andeq	r2, r4, r0, lsl #24
    1834:	50000100 	andpl	r0, r0, r0, lsl #2
    1838:	0000042c 	andeq	r0, r0, ip, lsr #8
    183c:	00000433 	andeq	r0, r0, r3, lsr r4
    1840:	00510001 	subseq	r0, r1, r1
    1844:	00000000 	andeq	r0, r0, r0
    1848:	5c000000 	stcpl	0, cr0, [r0], {-0}
    184c:	6f000004 	svcvs	0x00000004
    1850:	01000004 	tsteq	r0, r4
    1854:	046f5000 	strbteq	r5, [pc], #-0	; 185c <_start-0x67a4>
    1858:	04a80000 	strteq	r0, [r8], #0
    185c:	00010000 	andeq	r0, r1, r0
    1860:	0004a854 	andeq	sl, r4, r4, asr r8
    1864:	0004e000 	andeq	lr, r4, r0
    1868:	f3000400 	vshl.u8	d0, d0, d0
    186c:	009f5001 	addseq	r5, pc, r1
    1870:	00000000 	andeq	r0, r0, r0
    1874:	c8000000 	stmdagt	r0, {}	; <UNPREDICTABLE>
    1878:	cc000004 	stcgt	0, cr0, [r0], {4}
    187c:	01000004 	tsteq	r0, r4
    1880:	04cc5000 	strbeq	r5, [ip], #0
    1884:	04d30000 	ldrbeq	r0, [r3], #0
    1888:	00010000 	andeq	r0, r1, r0
    188c:	00000051 	andeq	r0, r0, r1, asr r0
    1890:	00000000 	andeq	r0, r0, r0
    1894:	00048400 	andeq	r8, r4, r0, lsl #8
    1898:	00048c00 	andeq	r8, r4, r0, lsl #24
    189c:	50000100 	andpl	r0, r0, r0, lsl #2
    18a0:	0000048c 	andeq	r0, r0, ip, lsl #9
    18a4:	00000493 	muleq	r0, r3, r4
    18a8:	00510001 	subseq	r0, r1, r1
    18ac:	00000000 	andeq	r0, r0, r0
    18b0:	a4000000 	strge	r0, [r0], #-0
    18b4:	b0000004 	andlt	r0, r0, r4
    18b8:	01000004 	tsteq	r0, r4
    18bc:	04b05000 	ldrteq	r5, [r0], #0
    18c0:	04b70000 	ldrteq	r0, [r7], #0
    18c4:	00010000 	andeq	r0, r1, r0
    18c8:	00000051 	andeq	r0, r0, r1, asr r0
    18cc:	00000000 	andeq	r0, r0, r0
    18d0:	0004e000 	andeq	lr, r4, r0
    18d4:	0004f300 	andeq	pc, r4, r0, lsl #6
    18d8:	50000100 	andpl	r0, r0, r0, lsl #2
    18dc:	000004f3 	strdeq	r0, [r0], -r3
    18e0:	00000534 	andeq	r0, r0, r4, lsr r5
    18e4:	34540001 	ldrbcc	r0, [r4], #-1
    18e8:	58000005 	stmdapl	r0, {r0, r2}
    18ec:	04000005 	streq	r0, [r0], #-5
    18f0:	5001f300 	andpl	pc, r1, r0, lsl #6
    18f4:	0005589f 	muleq	r5, pc, r8	; <UNPREDICTABLE>
    18f8:	00055c00 	andeq	r5, r5, r0, lsl #24
    18fc:	50000100 	andpl	r0, r0, r0, lsl #2
    1900:	0000055c 	andeq	r0, r0, ip, asr r5
    1904:	00000564 	andeq	r0, r0, r4, ror #10
    1908:	00540001 	subseq	r0, r4, r1
    190c:	00000000 	andeq	r0, r0, r0
    1910:	08000000 	stmdaeq	r0, {}	; <UNPREDICTABLE>
    1914:	17000005 	strne	r0, [r0, -r5]
    1918:	08000005 	stmdaeq	r0, {r0, r2}
    191c:	00743100 	rsbseq	r3, r4, r0, lsl #2
    1920:	1a007024 	bne	1d9b8 <__bss_end__+0xf0c0>
    1924:	0000009f 	muleq	r0, pc, r0	; <UNPREDICTABLE>
    1928:	00000000 	andeq	r0, r0, r0
    192c:	00053400 	andeq	r3, r5, r0, lsl #8
    1930:	00054c00 	andeq	r4, r5, r0, lsl #24
    1934:	54000100 	strpl	r0, [r0], #-256	; 0x100
	...
    1940:	00000564 	andeq	r0, r0, r4, ror #10
    1944:	00000577 	andeq	r0, r0, r7, ror r5
    1948:	77500001 	ldrbvc	r0, [r0, -r1]
    194c:	9c000005 	stcls	0, cr0, [r0], {5}
    1950:	01000005 	tsteq	r0, r5
    1954:	059c5400 	ldreq	r5, [ip, #1024]	; 0x400
    1958:	05bc0000 	ldreq	r0, [ip, #0]!
    195c:	00040000 	andeq	r0, r4, r0
    1960:	9f5001f3 	svcls	0x005001f3
	...
    1970:	00000018 	andeq	r0, r0, r8, lsl r0
    1974:	18500001 	ldmdane	r0, {r0}^
    1978:	54000000 	strpl	r0, [r0], #-0
    197c:	04000001 	streq	r0, [r0], #-1
    1980:	5001f300 	andpl	pc, r1, r0, lsl #6
    1984:	0000009f 	muleq	r0, pc, r0	; <UNPREDICTABLE>
	...
    1990:	00001c00 	andeq	r1, r0, r0, lsl #24
    1994:	51000100 	mrspl	r0, (UNDEF: 16)
    1998:	0000001c 	andeq	r0, r0, ip, lsl r0
    199c:	00000154 	andeq	r0, r0, r4, asr r1
    19a0:	01f30004 	mvnseq	r0, r4
    19a4:	00009f51 	andeq	r9, r0, r1, asr pc
    19a8:	00000000 	andeq	r0, r0, r0
    19ac:	00100000 	andseq	r0, r0, r0
    19b0:	01340000 	teqeq	r4, r0
    19b4:	00010000 	andeq	r0, r1, r0
    19b8:	00000055 	andeq	r0, r0, r5, asr r0
    19bc:	00000000 	andeq	r0, r0, r0
    19c0:	00001000 	andeq	r1, r0, r0
    19c4:	00003400 	andeq	r3, r0, r0, lsl #8
    19c8:	55000100 	strpl	r0, [r0, #-256]	; 0x100
    19cc:	00000034 	andeq	r0, r0, r4, lsr r0
    19d0:	00000134 	andeq	r0, r0, r4, lsr r1
    19d4:	34580001 	ldrbcc	r0, [r8], #-1
    19d8:	54000001 	strpl	r0, [r0], #-1
    19dc:	01000001 	tsteq	r0, r1
    19e0:	00005500 	andeq	r5, r0, r0, lsl #10
    19e4:	00000000 	andeq	r0, r0, r0
    19e8:	00140000 	andseq	r0, r4, r0
    19ec:	01340000 	teqeq	r4, r0
    19f0:	00010000 	andeq	r0, r1, r0
    19f4:	00000055 	andeq	r0, r0, r5, asr r0
    19f8:	00000000 	andeq	r0, r0, r0
    19fc:	00002000 	andeq	r2, r0, r0
    1a00:	00013400 	andeq	r3, r1, r0, lsl #8
    1a04:	55000100 	strpl	r0, [r0, #-256]	; 0x100
	...
    1a10:	00000024 	andeq	r0, r0, r4, lsr #32
    1a14:	00000028 	andeq	r0, r0, r8, lsr #32
    1a18:	00530001 	subseq	r0, r3, r1
    1a1c:	00000000 	andeq	r0, r0, r0
    1a20:	34000000 	strcc	r0, [r0], #-0
    1a24:	54000000 	strpl	r0, [r0], #-0
    1a28:	01000000 	mrseq	r0, (UNDEF: 0)
    1a2c:	00545800 	subseq	r5, r4, r0, lsl #16
    1a30:	01340000 	teqeq	r4, r0
    1a34:	00050000 	andeq	r0, r5, r0
    1a38:	24310075 	ldrtcs	r0, [r1], #-117	; 0x75
    1a3c:	0000009f 	muleq	r0, pc, r0	; <UNPREDICTABLE>
    1a40:	00000000 	andeq	r0, r0, r0
    1a44:	00003400 	andeq	r3, r0, r0, lsl #8
    1a48:	00003c00 	andeq	r3, r0, r0, lsl #24
    1a4c:	77000500 	strvc	r0, [r0, -r0, lsl #10]
    1a50:	9f1a3100 	svcls	0x001a3100
    1a54:	0000003c 	andeq	r0, r0, ip, lsr r0
    1a58:	0000003f 	andeq	r0, r0, pc, lsr r0
    1a5c:	3f510001 	svccc	0x00510001
    1a60:	54000000 	strpl	r0, [r0], #-0
    1a64:	05000001 	streq	r0, [r0, #-1]
    1a68:	31007700 	tstcc	r0, r0, lsl #14
    1a6c:	00009f1a 	andeq	r9, r0, sl, lsl pc
    1a70:	00000000 	andeq	r0, r0, r0
    1a74:	00400000 	subeq	r0, r0, r0
    1a78:	00540000 	subseq	r0, r4, r0
    1a7c:	00010000 	andeq	r0, r1, r0
    1a80:	00005458 	andeq	r5, r0, r8, asr r4
    1a84:	00013400 	andeq	r3, r1, r0, lsl #8
    1a88:	75000500 	strvc	r0, [r0, #-1280]	; 0x500
    1a8c:	9f243100 	svcls	0x00243100
	...
    1a98:	00000044 	andeq	r0, r0, r4, asr #32
    1a9c:	00000048 	andeq	r0, r0, r8, asr #32
    1aa0:	00530001 	subseq	r0, r3, r1
    1aa4:	00000000 	andeq	r0, r0, r0
    1aa8:	54000000 	strpl	r0, [r0], #-0
    1aac:	74000000 	strvc	r0, [r0], #-0
    1ab0:	01000000 	mrseq	r0, (UNDEF: 0)
    1ab4:	00745800 	rsbseq	r5, r4, r0, lsl #16
    1ab8:	01340000 	teqeq	r4, r0
    1abc:	00080000 	andeq	r0, r8, r0
    1ac0:	24310075 	ldrtcs	r0, [r1], #-117	; 0x75
    1ac4:	9f220075 	svcls	0x00220075
	...
    1ad0:	00000060 	andeq	r0, r0, r0, rrx
    1ad4:	00000074 	andeq	r0, r0, r4, ror r0
    1ad8:	74580001 	ldrbvc	r0, [r8], #-1
    1adc:	34000000 	strcc	r0, [r0], #-0
    1ae0:	08000001 	stmdaeq	r0, {r0}
    1ae4:	31007500 	tstcc	r0, r0, lsl #10
    1ae8:	22007524 	andcs	r7, r0, #36, 10	; 0x9000000
    1aec:	0000009f 	muleq	r0, pc, r0	; <UNPREDICTABLE>
    1af0:	00000000 	andeq	r0, r0, r0
    1af4:	00006400 	andeq	r6, r0, r0, lsl #8
    1af8:	00006800 	andeq	r6, r0, r0, lsl #16
    1afc:	53000100 	movwpl	r0, #256	; 0x100
	...
    1b08:	00000074 	andeq	r0, r0, r4, ror r0
    1b0c:	00000094 	muleq	r0, r4, r0
    1b10:	94580001 	ldrbls	r0, [r8], #-1
    1b14:	34000000 	strcc	r0, [r0], #-0
    1b18:	05000001 	streq	r0, [r0, #-1]
    1b1c:	32007500 	andcc	r7, r0, #0, 10
    1b20:	00009f24 	andeq	r9, r0, r4, lsr #30
    1b24:	00000000 	andeq	r0, r0, r0
    1b28:	00800000 	addeq	r0, r0, r0
    1b2c:	00940000 	addseq	r0, r4, r0
    1b30:	00010000 	andeq	r0, r1, r0
    1b34:	00009458 	andeq	r9, r0, r8, asr r4
    1b38:	00013400 	andeq	r3, r1, r0, lsl #8
    1b3c:	75000500 	strvc	r0, [r0, #-1280]	; 0x500
    1b40:	9f243200 	svcls	0x00243200
	...
    1b4c:	00000084 	andeq	r0, r0, r4, lsl #1
    1b50:	00000088 	andeq	r0, r0, r8, lsl #1
    1b54:	00530001 	subseq	r0, r3, r1
    1b58:	00000000 	andeq	r0, r0, r0
    1b5c:	94000000 	strls	r0, [r0], #-0
    1b60:	b4000000 	strlt	r0, [r0], #-0
    1b64:	01000000 	mrseq	r0, (UNDEF: 0)
    1b68:	00b45800 	adcseq	r5, r4, r0, lsl #16
    1b6c:	01340000 	teqeq	r4, r0
    1b70:	00080000 	andeq	r0, r8, r0
    1b74:	24320075 	ldrtcs	r0, [r2], #-117	; 0x75
    1b78:	9f220075 	svcls	0x00220075
	...
    1b84:	000000a0 	andeq	r0, r0, r0, lsr #1
    1b88:	000000b4 	strheq	r0, [r0], -r4
    1b8c:	b4580001 	ldrblt	r0, [r8], #-1
    1b90:	34000000 	strcc	r0, [r0], #-0
    1b94:	08000001 	stmdaeq	r0, {r0}
    1b98:	32007500 	andcc	r7, r0, #0, 10
    1b9c:	22007524 	andcs	r7, r0, #36, 10	; 0x9000000
    1ba0:	0000009f 	muleq	r0, pc, r0	; <UNPREDICTABLE>
    1ba4:	00000000 	andeq	r0, r0, r0
    1ba8:	0000a400 	andeq	sl, r0, r0, lsl #8
    1bac:	0000a800 	andeq	sl, r0, r0, lsl #16
    1bb0:	53000100 	movwpl	r0, #256	; 0x100
	...
    1bbc:	000000b4 	strheq	r0, [r0], -r4
    1bc0:	000000d4 	ldrdeq	r0, [r0], -r4
    1bc4:	d4580001 	ldrble	r0, [r8], #-1
    1bc8:	34000000 	strcc	r0, [r0], #-0
    1bcc:	0a000001 	beq	1bd8 <_start-0x6428>
    1bd0:	32007500 	andcc	r7, r0, #0, 10
    1bd4:	31007524 	tstcc	r0, r4, lsr #10
    1bd8:	009f2224 	addseq	r2, pc, r4, lsr #4
    1bdc:	00000000 	andeq	r0, r0, r0
    1be0:	c0000000 	andgt	r0, r0, r0
    1be4:	d4000000 	strle	r0, [r0], #-0
    1be8:	01000000 	mrseq	r0, (UNDEF: 0)
    1bec:	00d45800 	sbcseq	r5, r4, r0, lsl #16
    1bf0:	01340000 	teqeq	r4, r0
    1bf4:	000a0000 	andeq	r0, sl, r0
    1bf8:	24320075 	ldrtcs	r0, [r2], #-117	; 0x75
    1bfc:	24310075 	ldrtcs	r0, [r1], #-117	; 0x75
    1c00:	00009f22 	andeq	r9, r0, r2, lsr #30
    1c04:	00000000 	andeq	r0, r0, r0
    1c08:	00c40000 	sbceq	r0, r4, r0
    1c0c:	00c80000 	sbceq	r0, r8, r0
    1c10:	00010000 	andeq	r0, r1, r0
    1c14:	00000053 	andeq	r0, r0, r3, asr r0
    1c18:	00000000 	andeq	r0, r0, r0
    1c1c:	0000d400 	andeq	sp, r0, r0, lsl #8
    1c20:	0000f400 	andeq	pc, r0, r0, lsl #8
    1c24:	58000100 	stmdapl	r0, {r8}
    1c28:	000000f4 	strdeq	r0, [r0], -r4
    1c2c:	00000134 	andeq	r0, r0, r4, lsr r1
    1c30:	0075000d 	rsbseq	r0, r5, sp
    1c34:	00752432 	rsbseq	r2, r5, r2, lsr r4
    1c38:	75222431 	strvc	r2, [r2, #-1073]!	; 0x431
    1c3c:	009f2200 	addseq	r2, pc, r0, lsl #4
    1c40:	00000000 	andeq	r0, r0, r0
    1c44:	e0000000 	and	r0, r0, r0
    1c48:	f4000000 	vst4.8	{d0-d3}, [r0], r0
    1c4c:	01000000 	mrseq	r0, (UNDEF: 0)
    1c50:	00f45800 	rscseq	r5, r4, r0, lsl #16
    1c54:	01340000 	teqeq	r4, r0
    1c58:	000d0000 	andeq	r0, sp, r0
    1c5c:	24320075 	ldrtcs	r0, [r2], #-117	; 0x75
    1c60:	24310075 	ldrtcs	r0, [r1], #-117	; 0x75
    1c64:	22007522 	andcs	r7, r0, #142606336	; 0x8800000
    1c68:	0000009f 	muleq	r0, pc, r0	; <UNPREDICTABLE>
    1c6c:	00000000 	andeq	r0, r0, r0
    1c70:	0000e400 	andeq	lr, r0, r0, lsl #8
    1c74:	0000e800 	andeq	lr, r0, r0, lsl #16
    1c78:	53000100 	movwpl	r0, #256	; 0x100
	...
    1c84:	000000f4 	strdeq	r0, [r0], -r4
    1c88:	00000114 	andeq	r0, r0, r4, lsl r1
    1c8c:	14580001 	ldrbne	r0, [r8], #-1
    1c90:	34000001 	strcc	r0, [r0], #-1
    1c94:	05000001 	streq	r0, [r0, #-1]
    1c98:	33007500 	movwcc	r7, #1280	; 0x500
    1c9c:	00009f24 	andeq	r9, r0, r4, lsr #30
    1ca0:	00000000 	andeq	r0, r0, r0
    1ca4:	01000000 	mrseq	r0, (UNDEF: 0)
    1ca8:	01140000 	tsteq	r4, r0
    1cac:	00010000 	andeq	r0, r1, r0
    1cb0:	00011458 	andeq	r1, r1, r8, asr r4
    1cb4:	00013400 	andeq	r3, r1, r0, lsl #8
    1cb8:	75000500 	strvc	r0, [r0, #-1280]	; 0x500
    1cbc:	9f243300 	svcls	0x00243300
	...
    1cc8:	00000104 	andeq	r0, r0, r4, lsl #2
    1ccc:	00000108 	andeq	r0, r0, r8, lsl #2
    1cd0:	00530001 	subseq	r0, r3, r1
    1cd4:	00000000 	andeq	r0, r0, r0
    1cd8:	14000000 	strne	r0, [r0], #-0
    1cdc:	1c000001 	stcne	0, cr0, [r0], {1}
    1ce0:	06000001 	streq	r0, [r0], -r1
    1ce4:	08007700 	stmdaeq	r0, {r8, r9, sl, ip, sp, lr}
    1ce8:	1c9f1a80 	vldmiane	pc, {s2-s129}
    1cec:	1f000001 	svcne	0x00000001
    1cf0:	01000001 	tsteq	r0, r1
    1cf4:	011f5100 	tsteq	pc, r0, lsl #2
    1cf8:	01540000 	cmpeq	r4, r0
    1cfc:	00060000 	andeq	r0, r6, r0
    1d00:	80080077 	andhi	r0, r8, r7, ror r0
    1d04:	00009f1a 	andeq	r9, r0, sl, lsl pc
    1d08:	00000000 	andeq	r0, r0, r0
    1d0c:	01240000 	teqeq	r4, r0
    1d10:	01280000 	teqeq	r8, r0
    1d14:	00010000 	andeq	r0, r1, r0
    1d18:	00000053 	andeq	r0, r0, r3, asr r0
    1d1c:	00000000 	andeq	r0, r0, r0
    1d20:	00014400 	andeq	r4, r1, r0, lsl #8
    1d24:	00014800 	andeq	r4, r1, r0, lsl #16
    1d28:	53000100 	movwpl	r0, #256	; 0x100
	...
    1d34:	00000154 	andeq	r0, r0, r4, asr r1
    1d38:	0000016b 	andeq	r0, r0, fp, ror #2
    1d3c:	6b500001 	blvs	1401d48 <__bss_end__+0x13f3450>
    1d40:	d0000001 	andle	r0, r0, r1
    1d44:	01000001 	tsteq	r0, r1
    1d48:	01d05900 	bicseq	r5, r0, r0, lsl #18
    1d4c:	030c0000 	movweq	r0, #49152	; 0xc000
    1d50:	00040000 	andeq	r0, r4, r0
    1d54:	9f5001f3 	svcls	0x005001f3
    1d58:	0000030c 	andeq	r0, r0, ip, lsl #6
    1d5c:	00000314 	andeq	r0, r0, r4, lsl r3
    1d60:	14590001 	ldrbne	r0, [r9], #-1
    1d64:	1c000003 	stcne	0, cr0, [r0], {3}
    1d68:	04000003 	streq	r0, [r0], #-3
    1d6c:	5001f300 	andpl	pc, r1, r0, lsl #6
    1d70:	0000009f 	muleq	r0, pc, r0	; <UNPREDICTABLE>
    1d74:	00000000 	andeq	r0, r0, r0
    1d78:	00015400 	andeq	r5, r1, r0, lsl #8
    1d7c:	00016b00 	andeq	r6, r1, r0, lsl #22
    1d80:	51000100 	mrspl	r0, (UNDEF: 16)
    1d84:	0000016b 	andeq	r0, r0, fp, ror #2
    1d88:	0000031c 	andeq	r0, r0, ip, lsl r3
    1d8c:	00560001 	subseq	r0, r6, r1
    1d90:	00000000 	andeq	r0, r0, r0
    1d94:	a8000000 	stmdage	r0, {}	; <UNPREDICTABLE>
    1d98:	98000001 	stmdals	r0, {r0}
    1d9c:	01000002 	tsteq	r0, r2
    1da0:	00005800 	andeq	r5, r0, r0, lsl #16
    1da4:	00000000 	andeq	r0, r0, r0
    1da8:	01ac0000 			; <UNDEFINED> instruction: 0x01ac0000
    1dac:	02d00000 	sbcseq	r0, r0, #0
    1db0:	00010000 	andeq	r0, r1, r0
    1db4:	00000054 	andeq	r0, r0, r4, asr r0
    1db8:	00000000 	andeq	r0, r0, r0
    1dbc:	0001ac00 	andeq	sl, r1, r0, lsl #24
    1dc0:	0002d000 	andeq	sp, r2, r0
    1dc4:	74000500 	strvc	r0, [r0], #-1280	; 0x500
    1dc8:	9f253100 	svcls	0x00253100
	...
    1dd4:	000001ac 	andeq	r0, r0, ip, lsr #3
    1dd8:	000001d0 	ldrdeq	r0, [r0], -r0	; <UNPREDICTABLE>
    1ddc:	9f300002 	svcls	0x00300002
    1de0:	000001d0 	ldrdeq	r0, [r0], -r0	; <UNPREDICTABLE>
    1de4:	0000030c 	andeq	r0, r0, ip, lsl #6
    1de8:	14590001 	ldrbne	r0, [r9], #-1
    1dec:	1c000003 	stcne	0, cr0, [r0], {3}
    1df0:	01000003 	tsteq	r0, r3
    1df4:	00005900 	andeq	r5, r0, r0, lsl #18
    1df8:	00000000 	andeq	r0, r0, r0
    1dfc:	01680000 	cmneq	r8, r0
    1e00:	016b0000 	cmneq	fp, r0
    1e04:	00010000 	andeq	r0, r1, r0
    1e08:	00016b51 	andeq	r6, r1, r1, asr fp
    1e0c:	00031c00 	andeq	r1, r3, r0, lsl #24
    1e10:	56000100 	strpl	r0, [r0], -r0, lsl #2
	...
    1e1c:	00000170 	andeq	r0, r0, r0, ror r1
    1e20:	000001ac 	andeq	r0, r0, ip, lsr #3
    1e24:	0c540001 	mrrceq	0, 0, r0, r4, cr1
    1e28:	14000003 	strne	r0, [r0], #-3
    1e2c:	01000003 	tsteq	r0, r3
    1e30:	00005400 	andeq	r5, r0, r0, lsl #8
    1e34:	00000000 	andeq	r0, r0, r0
    1e38:	01a80000 			; <UNDEFINED> instruction: 0x01a80000
    1e3c:	01c40000 	biceq	r0, r4, r0
    1e40:	00010000 	andeq	r0, r1, r0
    1e44:	00000058 	andeq	r0, r0, r8, asr r0
    1e48:	00000000 	andeq	r0, r0, r0
    1e4c:	0001b000 	andeq	fp, r1, r0
    1e50:	0001cb00 	andeq	ip, r1, r0, lsl #22
    1e54:	52000100 	andpl	r0, r0, #0, 2
    1e58:	000001cb 	andeq	r0, r0, fp, asr #3
    1e5c:	000002d0 	ldrdeq	r0, [r0], -r0	; <UNPREDICTABLE>
    1e60:	00740008 	rsbseq	r0, r4, r8
    1e64:	00742531 	rsbseq	r2, r4, r1, lsr r5
    1e68:	00009f22 	andeq	r9, r0, r2, lsr #30
    1e6c:	00000000 	andeq	r0, r0, r0
    1e70:	01b00000 	movseq	r0, r0
    1e74:	01c40000 	biceq	r0, r4, r0
    1e78:	00010000 	andeq	r0, r1, r0
    1e7c:	00000058 	andeq	r0, r0, r8, asr r0
    1e80:	00000000 	andeq	r0, r0, r0
    1e84:	0001b400 	andeq	fp, r1, r0, lsl #8
    1e88:	0001b800 	andeq	fp, r1, r0, lsl #16
    1e8c:	53000100 	movwpl	r0, #256	; 0x100
	...
    1e98:	000001d0 	ldrdeq	r0, [r0], -r0	; <UNPREDICTABLE>
    1e9c:	000002d0 	ldrdeq	r0, [r0], -r0	; <UNPREDICTABLE>
    1ea0:	00540001 	subseq	r0, r4, r1
    1ea4:	00000000 	andeq	r0, r0, r0
    1ea8:	d0000000 	andle	r0, r0, r0
    1eac:	e4000001 	str	r0, [r0], #-1
    1eb0:	01000001 	tsteq	r0, r1
    1eb4:	00005800 	andeq	r5, r0, r0, lsl #16
    1eb8:	00000000 	andeq	r0, r0, r0
    1ebc:	01d40000 	bicseq	r0, r4, r0
    1ec0:	01d80000 	bicseq	r0, r8, r0
    1ec4:	00010000 	andeq	r0, r1, r0
    1ec8:	00000053 	andeq	r0, r0, r3, asr r0
    1ecc:	00000000 	andeq	r0, r0, r0
    1ed0:	0001f400 	andeq	pc, r1, r0, lsl #8
    1ed4:	0002d000 	andeq	sp, r2, r0
    1ed8:	54000100 	strpl	r0, [r0], #-256	; 0x100
	...
    1ee4:	000001f4 	strdeq	r0, [r0], -r4
    1ee8:	00000208 	andeq	r0, r0, r8, lsl #4
    1eec:	00580001 	subseq	r0, r8, r1
    1ef0:	00000000 	andeq	r0, r0, r0
    1ef4:	f8000000 			; <UNDEFINED> instruction: 0xf8000000
    1ef8:	fc000001 	stc2	0, cr0, [r0], {1}
    1efc:	01000001 	tsteq	r0, r1
    1f00:	00005300 	andeq	r5, r0, r0, lsl #6
    1f04:	00000000 	andeq	r0, r0, r0
    1f08:	02180000 	andseq	r0, r8, #0
    1f0c:	02d00000 	sbcseq	r0, r0, #0
    1f10:	00010000 	andeq	r0, r1, r0
    1f14:	00000054 	andeq	r0, r0, r4, asr r0
    1f18:	00000000 	andeq	r0, r0, r0
    1f1c:	00021800 	andeq	r1, r2, r0, lsl #16
    1f20:	00022c00 	andeq	r2, r2, r0, lsl #24
    1f24:	58000100 	stmdapl	r0, {r8}
	...
    1f30:	0000021c 	andeq	r0, r0, ip, lsl r2
    1f34:	00000220 	andeq	r0, r0, r0, lsr #4
    1f38:	00530001 	subseq	r0, r3, r1
    1f3c:	00000000 	andeq	r0, r0, r0
    1f40:	3c000000 	stccc	0, cr0, [r0], {-0}
    1f44:	d0000002 	andle	r0, r0, r2
    1f48:	01000002 	tsteq	r0, r2
    1f4c:	00005400 	andeq	r5, r0, r0, lsl #8
    1f50:	00000000 	andeq	r0, r0, r0
    1f54:	023c0000 	eorseq	r0, ip, #0
    1f58:	02500000 	subseq	r0, r0, #0
    1f5c:	00010000 	andeq	r0, r1, r0
    1f60:	00000058 	andeq	r0, r0, r8, asr r0
    1f64:	00000000 	andeq	r0, r0, r0
    1f68:	00024000 	andeq	r4, r2, r0
    1f6c:	00024400 	andeq	r4, r2, r0, lsl #8
    1f70:	53000100 	movwpl	r0, #256	; 0x100
	...
    1f7c:	00000260 	andeq	r0, r0, r0, ror #4
    1f80:	000002d0 	ldrdeq	r0, [r0], -r0	; <UNPREDICTABLE>
    1f84:	00540001 	subseq	r0, r4, r1
    1f88:	00000000 	andeq	r0, r0, r0
    1f8c:	60000000 	andvs	r0, r0, r0
    1f90:	74000002 	strvc	r0, [r0], #-2
    1f94:	01000002 	tsteq	r0, r2
    1f98:	00005800 	andeq	r5, r0, r0, lsl #16
    1f9c:	00000000 	andeq	r0, r0, r0
    1fa0:	02640000 	rsbeq	r0, r4, #0
    1fa4:	02680000 	rsbeq	r0, r8, #0
    1fa8:	00010000 	andeq	r0, r1, r0
    1fac:	00000053 	andeq	r0, r0, r3, asr r0
    1fb0:	00000000 	andeq	r0, r0, r0
    1fb4:	00028400 	andeq	r8, r2, r0, lsl #8
    1fb8:	0002d000 	andeq	sp, r2, r0
    1fbc:	54000100 	strpl	r0, [r0], #-256	; 0x100
	...
    1fc8:	00000284 	andeq	r0, r0, r4, lsl #5
    1fcc:	00000298 	muleq	r0, r8, r2
    1fd0:	00580001 	subseq	r0, r8, r1
    1fd4:	00000000 	andeq	r0, r0, r0
    1fd8:	88000000 	stmdahi	r0, {}	; <UNPREDICTABLE>
    1fdc:	8c000002 	stchi	0, cr0, [r0], {2}
    1fe0:	01000002 	tsteq	r0, r2
    1fe4:	00005300 	andeq	r5, r0, r0, lsl #6
    1fe8:	00000000 	andeq	r0, r0, r0
    1fec:	02a80000 	adceq	r0, r8, #0
    1ff0:	02d00000 	sbcseq	r0, r0, #0
    1ff4:	00010000 	andeq	r0, r1, r0
    1ff8:	00000054 	andeq	r0, r0, r4, asr r0
    1ffc:	00000000 	andeq	r0, r0, r0
    2000:	0002ac00 	andeq	sl, r2, r0, lsl #24
    2004:	0002b000 	andeq	fp, r2, r0
    2008:	53000100 	movwpl	r0, #256	; 0x100
	...
    2014:	000002c8 	andeq	r0, r0, r8, asr #5
    2018:	0000030c 	andeq	r0, r0, ip, lsl #6
    201c:	9f300002 	svcls	0x00300002
    2020:	00000314 	andeq	r0, r0, r4, lsl r3
    2024:	0000031c 	andeq	r0, r0, ip, lsl r3
    2028:	9f300002 	svcls	0x00300002
	...
    2034:	000002c8 	andeq	r0, r0, r8, asr #5
    2038:	0000030c 	andeq	r0, r0, ip, lsl #6
    203c:	14550001 	ldrbne	r0, [r5], #-1
    2040:	1c000003 	stcne	0, cr0, [r0], {3}
    2044:	01000003 	tsteq	r0, r3
    2048:	00005500 	andeq	r5, r0, r0, lsl #10
    204c:	00000000 	andeq	r0, r0, r0
    2050:	02d00000 	sbcseq	r0, r0, #0
    2054:	030c0000 	movweq	r0, #49152	; 0xc000
    2058:	00010000 	andeq	r0, r1, r0
    205c:	00031454 	andeq	r1, r3, r4, asr r4
    2060:	00031c00 	andeq	r1, r3, r0, lsl #24
    2064:	54000100 	strpl	r0, [r0], #-256	; 0x100
	...
    2070:	0000031c 	andeq	r0, r0, ip, lsl r3
    2074:	0000033b 	andeq	r0, r0, fp, lsr r3
    2078:	3b500001 	blcc	1402084 <__bss_end__+0x13f378c>
    207c:	54000003 	strpl	r0, [r0], #-3
    2080:	01000003 	tsteq	r0, r3
    2084:	03545800 	cmpeq	r4, #0, 16
    2088:	03640000 	cmneq	r4, #0
    208c:	00010000 	andeq	r0, r1, r0
    2090:	00036450 	andeq	r6, r3, r0, asr r4
    2094:	0003ac00 	andeq	sl, r3, r0, lsl #24
    2098:	58000100 	stmdapl	r0, {r8}
	...
    20a4:	0000031c 	andeq	r0, r0, ip, lsl r3
    20a8:	0000033b 	andeq	r0, r0, fp, lsr r3
    20ac:	3b510001 	blcc	14420b8 <__bss_end__+0x14337c0>
    20b0:	54000003 	strpl	r0, [r0], #-3
    20b4:	01000003 	tsteq	r0, r3
    20b8:	03545600 	cmpeq	r4, #0, 12
    20bc:	03640000 	cmneq	r4, #0
    20c0:	00010000 	andeq	r0, r1, r0
    20c4:	00036451 	andeq	r6, r3, r1, asr r4
    20c8:	0003ac00 	andeq	sl, r3, r0, lsl #24
    20cc:	56000100 	strpl	r0, [r0], -r0, lsl #2
	...
    20d8:	0000031c 	andeq	r0, r0, ip, lsl r3
    20dc:	0000033b 	andeq	r0, r0, fp, lsr r3
    20e0:	3b520001 	blcc	14820ec <__bss_end__+0x14737f4>
    20e4:	54000003 	strpl	r0, [r0], #-3
    20e8:	04000003 	streq	r0, [r0], #-3
    20ec:	5201f300 	andpl	pc, r1, #0, 6
    20f0:	0003549f 	muleq	r3, pc, r4	; <UNPREDICTABLE>
    20f4:	00036400 	andeq	r6, r3, r0, lsl #8
    20f8:	52000100 	andpl	r0, r0, #0, 2
    20fc:	00000364 	andeq	r0, r0, r4, ror #6
    2100:	000003ac 	andeq	r0, r0, ip, lsr #7
    2104:	01770003 	cmneq	r7, r3
    2108:	0000009f 	muleq	r0, pc, r0	; <UNPREDICTABLE>
    210c:	00000000 	andeq	r0, r0, r0
    2110:	00031c00 	andeq	r1, r3, r0, lsl #24
    2114:	00033b00 	andeq	r3, r3, r0, lsl #22
    2118:	53000100 	movwpl	r0, #256	; 0x100
    211c:	0000033b 	andeq	r0, r0, fp, lsr r3
    2120:	00000354 	andeq	r0, r0, r4, asr r3
    2124:	01f30004 	mvnseq	r0, r4
    2128:	03549f53 	cmpeq	r4, #332	; 0x14c
    212c:	03640000 	cmneq	r4, #0
    2130:	00010000 	andeq	r0, r1, r0
    2134:	00036453 	andeq	r6, r3, r3, asr r4
    2138:	0003ac00 	andeq	sl, r3, r0, lsl #24
    213c:	f3000400 	vshl.u8	d0, d0, d0
    2140:	009f5301 	addseq	r5, pc, r1, lsl #6
    2144:	00000000 	andeq	r0, r0, r0
    2148:	5c000000 	stcpl	0, cr0, [r0], {-0}
    214c:	64000003 	strvs	r0, [r0], #-3
    2150:	02000003 	andeq	r0, r0, #3
    2154:	649f3000 	ldrvs	r3, [pc], #0	; 215c <_start-0x5ea4>
    2158:	ac000003 	stcge	0, cr0, [r0], {3}
    215c:	01000003 	tsteq	r0, r3
    2160:	00005400 	andeq	r5, r0, r0, lsl #8
    2164:	00000000 	andeq	r0, r0, r0
    2168:	03740000 	cmneq	r4, #0
    216c:	03840000 	orreq	r0, r4, #0
    2170:	00010000 	andeq	r0, r1, r0
    2174:	00000050 	andeq	r0, r0, r0, asr r0
    2178:	00000000 	andeq	r0, r0, r0
    217c:	0003ac00 	andeq	sl, r3, r0, lsl #24
    2180:	0003c700 	andeq	ip, r3, r0, lsl #14
    2184:	50000100 	andpl	r0, r0, r0, lsl #2
    2188:	000003c7 	andeq	r0, r0, r7, asr #7
    218c:	000003e0 	andeq	r0, r0, r0, ror #7
    2190:	e0570001 	subs	r0, r7, r1
    2194:	f0000003 			; <UNDEFINED> instruction: 0xf0000003
    2198:	01000003 	tsteq	r0, r3
    219c:	03f05000 	mvnseq	r5, #0
    21a0:	04280000 	strteq	r0, [r8], #-0
    21a4:	00010000 	andeq	r0, r1, r0
    21a8:	00000057 	andeq	r0, r0, r7, asr r0
    21ac:	00000000 	andeq	r0, r0, r0
    21b0:	0003ac00 	andeq	sl, r3, r0, lsl #24
    21b4:	0003c700 	andeq	ip, r3, r0, lsl #14
    21b8:	51000100 	mrspl	r0, (UNDEF: 16)
    21bc:	000003c7 	andeq	r0, r0, r7, asr #7
    21c0:	000003e0 	andeq	r0, r0, r0, ror #7
    21c4:	e0550001 	subs	r0, r5, r1
    21c8:	f0000003 			; <UNDEFINED> instruction: 0xf0000003
    21cc:	01000003 	tsteq	r0, r3
    21d0:	03f05100 	mvnseq	r5, #0, 2
    21d4:	04280000 	strteq	r0, [r8], #-0
    21d8:	00010000 	andeq	r0, r1, r0
    21dc:	00000055 	andeq	r0, r0, r5, asr r0
    21e0:	00000000 	andeq	r0, r0, r0
    21e4:	0003ac00 	andeq	sl, r3, r0, lsl #24
    21e8:	0003c700 	andeq	ip, r3, r0, lsl #14
    21ec:	52000100 	andpl	r0, r0, #0, 2
    21f0:	000003c7 	andeq	r0, r0, r7, asr #7
    21f4:	000003e0 	andeq	r0, r0, r0, ror #7
    21f8:	01f30004 	mvnseq	r0, r4
    21fc:	03e09f52 	mvneq	r9, #328	; 0x148
    2200:	03f00000 	mvnseq	r0, #0
    2204:	00010000 	andeq	r0, r1, r0
    2208:	0003f052 	andeq	pc, r3, r2, asr r0	; <UNPREDICTABLE>
    220c:	00042800 	andeq	r2, r4, r0, lsl #16
    2210:	76000300 	strvc	r0, [r0], -r0, lsl #6
    2214:	00009f01 	andeq	r9, r0, r1, lsl #30
    2218:	00000000 	andeq	r0, r0, r0
    221c:	03ac0000 			; <UNDEFINED> instruction: 0x03ac0000
    2220:	03c70000 	biceq	r0, r7, #0
    2224:	00010000 	andeq	r0, r1, r0
    2228:	0003c753 	andeq	ip, r3, r3, asr r7
    222c:	0003e000 	andeq	lr, r3, r0
    2230:	58000100 	stmdapl	r0, {r8}
    2234:	000003e0 	andeq	r0, r0, r0, ror #7
    2238:	000003f0 	strdeq	r0, [r0], -r0	; <UNPREDICTABLE>
    223c:	f0530001 			; <UNDEFINED> instruction: 0xf0530001
    2240:	28000003 	stmdacs	r0, {r0, r1}
    2244:	01000004 	tsteq	r0, r4
    2248:	00005800 	andeq	r5, r0, r0, lsl #16
    224c:	00000000 	andeq	r0, r0, r0
    2250:	03e80000 	mvneq	r0, #0
    2254:	03f00000 	mvnseq	r0, #0
    2258:	00020000 	andeq	r0, r2, r0
    225c:	03f09f30 	mvnseq	r9, #48, 30	; 0xc0
    2260:	04280000 	strteq	r0, [r8], #-0
    2264:	00010000 	andeq	r0, r1, r0
    2268:	00000054 	andeq	r0, r0, r4, asr r0
    226c:	00000000 	andeq	r0, r0, r0
    2270:	00042800 	andeq	r2, r4, r0, lsl #16
    2274:	00044700 	andeq	r4, r4, r0, lsl #14
    2278:	51000100 	mrspl	r0, (UNDEF: 16)
    227c:	00000447 	andeq	r0, r0, r7, asr #8
    2280:	000004e8 	andeq	r0, r0, r8, ror #9
    2284:	01f30004 	mvnseq	r0, r4
    2288:	00009f51 	andeq	r9, r0, r1, asr pc
    228c:	00000000 	andeq	r0, r0, r0
    2290:	04280000 	strteq	r0, [r8], #-0
    2294:	04470000 	strbeq	r0, [r7], #-0
    2298:	00010000 	andeq	r0, r1, r0
    229c:	00044752 	andeq	r4, r4, r2, asr r7
    22a0:	0004e800 	andeq	lr, r4, r0, lsl #16
    22a4:	f3000400 	vshl.u8	d0, d0, d0
    22a8:	009f5201 	addseq	r5, pc, r1, lsl #4
    22ac:	00000000 	andeq	r0, r0, r0
    22b0:	28000000 	stmdacs	r0, {}	; <UNPREDICTABLE>
    22b4:	47000004 	strmi	r0, [r0, -r4]
    22b8:	01000004 	tsteq	r0, r4
    22bc:	04475300 	strbeq	r5, [r7], #-768	; 0x300
    22c0:	04e80000 	strbteq	r0, [r8], #0
    22c4:	00010000 	andeq	r0, r1, r0
    22c8:	00000055 	andeq	r0, r0, r5, asr r0
    22cc:	00000000 	andeq	r0, r0, r0
    22d0:	00046800 	andeq	r6, r4, r0, lsl #16
    22d4:	0004a700 	andeq	sl, r4, r0, lsl #14
    22d8:	52000100 	andpl	r0, r0, #0, 2
    22dc:	000004a7 	andeq	r0, r0, r7, lsr #9
    22e0:	000004c0 	andeq	r0, r0, r0, asr #9
    22e4:	00750006 	rsbseq	r0, r5, r6
    22e8:	9f1e0077 	svcls	0x001e0077
    22ec:	000004c0 	andeq	r0, r0, r0, asr #9
    22f0:	000004e8 	andeq	r0, r0, r8, ror #9
    22f4:	00520001 	subseq	r0, r2, r1
    22f8:	00000000 	andeq	r0, r0, r0
    22fc:	e8000000 	stmda	r0, {}	; <UNPREDICTABLE>
    2300:	f3000004 	vhadd.u8	d0, d0, d4
    2304:	01000004 	tsteq	r0, r4
    2308:	04f35000 	ldrbteq	r5, [r3], #0
    230c:	05240000 	streq	r0, [r4, #-0]!
    2310:	00040000 	andeq	r0, r4, r0
    2314:	9f5001f3 	svcls	0x005001f3
	...
    2320:	000004f4 	strdeq	r0, [r0], -r4
    2324:	000004ff 	strdeq	r0, [r0], -pc	; <UNPREDICTABLE>
    2328:	00500001 	subseq	r0, r0, r1
    232c:	00000000 	andeq	r0, r0, r0
    2330:	24000000 	strcs	r0, [r0], #-0
    2334:	34000005 	strcc	r0, [r0], #-5
    2338:	01000005 	tsteq	r0, r5
    233c:	05345000 	ldreq	r5, [r4, #-0]!
    2340:	05500000 	ldrbeq	r0, [r0, #-0]
    2344:	00010000 	andeq	r0, r1, r0
    2348:	00000055 	andeq	r0, r0, r5, asr r0
    234c:	00000000 	andeq	r0, r0, r0
    2350:	00052400 	andeq	r2, r5, r0, lsl #8
    2354:	00053400 	andeq	r3, r5, r0, lsl #8
    2358:	51000100 	mrspl	r0, (UNDEF: 16)
    235c:	00000534 	andeq	r0, r0, r4, lsr r5
    2360:	00000550 	andeq	r0, r0, r0, asr r5
    2364:	00540001 	subseq	r0, r4, r1
    2368:	00000000 	andeq	r0, r0, r0
    236c:	50000000 	andpl	r0, r0, r0
    2370:	6c000005 	stcvs	0, cr0, [r0], {5}
    2374:	01000005 	tsteq	r0, r5
    2378:	056c5000 	strbeq	r5, [ip, #-0]!
    237c:	05bc0000 	ldreq	r0, [ip, #0]!
    2380:	00010000 	andeq	r0, r1, r0
    2384:	0005bc55 	andeq	fp, r5, r5, asr ip
    2388:	0005d400 	andeq	sp, r5, r0, lsl #8
    238c:	f3000400 	vshl.u8	d0, d0, d0
    2390:	009f5001 	addseq	r5, pc, r1
    2394:	00000000 	andeq	r0, r0, r0
    2398:	7c000000 	stcvc	0, cr0, [r0], {-0}
    239c:	8b000005 	blhi	23b8 <_start-0x5c48>
    23a0:	01000005 	tsteq	r0, r5
    23a4:	058b5000 	streq	r5, [fp]
    23a8:	05a40000 	streq	r0, [r4, #0]!
    23ac:	00010000 	andeq	r0, r1, r0
    23b0:	0005a454 	andeq	sl, r5, r4, asr r4
    23b4:	0005a800 	andeq	sl, r5, r0, lsl #16
    23b8:	50000100 	andpl	r0, r0, r0, lsl #2
    23bc:	000005a8 	andeq	r0, r0, r8, lsr #11
    23c0:	000005bc 			; <UNDEFINED> instruction: 0x000005bc
    23c4:	bc540001 	mrrclt	0, 0, r0, r4, cr1
    23c8:	d4000005 	strle	r0, [r0], #-5
    23cc:	01000005 	tsteq	r0, r5
    23d0:	00005000 	andeq	r5, r0, r0
    23d4:	00000000 	andeq	r0, r0, r0
    23d8:	05d40000 	ldrbeq	r0, [r4]
    23dc:	05e70000 	strbeq	r0, [r7, #0]!
    23e0:	00010000 	andeq	r0, r1, r0
    23e4:	0005e750 	andeq	lr, r5, r0, asr r7
    23e8:	00062000 	andeq	r2, r6, r0
    23ec:	f3000400 	vshl.u8	d0, d0, d0
    23f0:	009f5001 	addseq	r5, pc, r1
    23f4:	00000000 	andeq	r0, r0, r0
    23f8:	d4000000 	strle	r0, [r0], #-0
    23fc:	e7000005 	str	r0, [r0, -r5]
    2400:	01000005 	tsteq	r0, r5
    2404:	05e75100 	strbeq	r5, [r7, #256]!	; 0x100
    2408:	06200000 	strteq	r0, [r0], -r0
    240c:	00040000 	andeq	r0, r4, r0
    2410:	9f5101f3 	svcls	0x005101f3
	...
    241c:	000005d4 	ldrdeq	r0, [r0], -r4
    2420:	000005e7 	andeq	r0, r0, r7, ror #11
    2424:	e7520001 	ldrb	r0, [r2, -r1]
    2428:	20000005 	andcs	r0, r0, r5
    242c:	04000006 	streq	r0, [r0], #-6
    2430:	5201f300 	andpl	pc, r1, #0, 6
    2434:	0000009f 	muleq	r0, pc, r0	; <UNPREDICTABLE>
    2438:	00000000 	andeq	r0, r0, r0
    243c:	0005d400 	andeq	sp, r5, r0, lsl #8
    2440:	0005e700 	andeq	lr, r5, r0, lsl #14
    2444:	53000100 	movwpl	r0, #256	; 0x100
    2448:	000005e7 	andeq	r0, r0, r7, ror #11
    244c:	00000620 	andeq	r0, r0, r0, lsr #12
    2450:	01f30004 	mvnseq	r0, r4
    2454:	00009f53 	andeq	r9, r0, r3, asr pc
    2458:	00000000 	andeq	r0, r0, r0
    245c:	05e80000 	strbeq	r0, [r8, #0]!
    2460:	05f30000 	ldrbeq	r0, [r3, #0]!
    2464:	00010000 	andeq	r0, r1, r0
    2468:	00060c50 	andeq	r0, r6, r0, asr ip
    246c:	00062000 	andeq	r2, r6, r0
    2470:	50000100 	andpl	r0, r0, r0, lsl #2
	...
    247c:	000000fc 	strdeq	r0, [r0], -ip
    2480:	00000104 	andeq	r0, r0, r4, lsl #2
    2484:	04500001 	ldrbeq	r0, [r0], #-1
    2488:	28000001 	stmdacs	r0, {r0}
    248c:	01000001 	tsteq	r0, r1
    2490:	00005400 	andeq	r5, r0, r0, lsl #8
    2494:	00000000 	andeq	r0, r0, r0
    2498:	00300000 	eorseq	r0, r0, r0
    249c:	003c0000 	eorseq	r0, ip, r0
    24a0:	00020000 	andeq	r0, r2, r0
    24a4:	003c9f30 	eorseq	r9, ip, r0, lsr pc
    24a8:	00680000 	rsbeq	r0, r8, r0
    24ac:	00010000 	andeq	r0, r1, r0
    24b0:	00000053 	andeq	r0, r0, r3, asr r0
    24b4:	00000000 	andeq	r0, r0, r0
    24b8:	00006800 	andeq	r6, r0, r0, lsl #16
    24bc:	00007700 	andeq	r7, r0, r0, lsl #14
    24c0:	50000100 	andpl	r0, r0, r0, lsl #2
    24c4:	00000077 	andeq	r0, r0, r7, ror r0
    24c8:	000000ac 	andeq	r0, r0, ip, lsr #1
    24cc:	00540001 	subseq	r0, r4, r1
    24d0:	00000000 	andeq	r0, r0, r0
    24d4:	ac000000 	stcge	0, cr0, [r0], {-0}
    24d8:	bb000000 	bllt	24e0 <_start-0x5b20>
    24dc:	01000000 	mrseq	r0, (UNDEF: 0)
    24e0:	00bb5000 	adcseq	r5, fp, r0
    24e4:	00f00000 	rscseq	r0, r0, r0
    24e8:	00010000 	andeq	r0, r1, r0
    24ec:	00000054 	andeq	r0, r0, r4, asr r0
    24f0:	00000000 	andeq	r0, r0, r0
    24f4:	0000f000 	andeq	pc, r0, r0
    24f8:	0000ff00 	andeq	pc, r0, r0, lsl #30
    24fc:	50000100 	andpl	r0, r0, r0, lsl #2
    2500:	000000ff 	strdeq	r0, [r0], -pc	; <UNPREDICTABLE>
    2504:	00000134 	andeq	r0, r0, r4, lsr r1
    2508:	00540001 	subseq	r0, r4, r1
    250c:	00000000 	andeq	r0, r0, r0
    2510:	34000000 	strcc	r0, [r0], #-0
    2514:	43000001 	movwmi	r0, #1
    2518:	01000001 	tsteq	r0, r1
    251c:	01435000 	mrseq	r5, (UNDEF: 67)
    2520:	01780000 	cmneq	r8, r0
    2524:	00010000 	andeq	r0, r1, r0
    2528:	00000054 	andeq	r0, r0, r4, asr r0
    252c:	00000000 	andeq	r0, r0, r0
    2530:	00017800 	andeq	r7, r1, r0, lsl #16
    2534:	00018700 	andeq	r8, r1, r0, lsl #14
    2538:	50000100 	andpl	r0, r0, r0, lsl #2
    253c:	00000187 	andeq	r0, r0, r7, lsl #3
    2540:	000001bc 			; <UNDEFINED> instruction: 0x000001bc
    2544:	00540001 	subseq	r0, r4, r1
    2548:	00000000 	andeq	r0, r0, r0
    254c:	bc000000 	stclt	0, cr0, [r0], {-0}
    2550:	cb000001 	blgt	255c <_start-0x5aa4>
    2554:	01000001 	tsteq	r0, r1
    2558:	01cb5000 	biceq	r5, fp, r0
    255c:	02000000 	andeq	r0, r0, #0
    2560:	00010000 	andeq	r0, r1, r0
    2564:	00000054 	andeq	r0, r0, r4, asr r0
    2568:	00000000 	andeq	r0, r0, r0
	...

Disassembly of section .debug_aranges:

00000000 <.debug_aranges>:
   0:	0000001c 	andeq	r0, r0, ip, lsl r0
   4:	00000002 	andeq	r0, r0, r2
   8:	00040000 	andeq	r0, r4, r0
   c:	00000000 	andeq	r0, r0, r0
  10:	00008010 	andeq	r8, r0, r0, lsl r0
  14:	00000690 	muleq	r0, r0, r6
	...
  20:	0000001c 	andeq	r0, r0, ip, lsl r0
  24:	0ed10002 	cdpeq	0, 13, cr0, cr1, cr2, {0}
  28:	00040000 	andeq	r0, r4, r0
  2c:	00000000 	andeq	r0, r0, r0
  30:	000086a0 	andeq	r8, r0, r0, lsr #13
  34:	00000020 	andeq	r0, r0, r0, lsr #32
	...
  40:	0000001c 	andeq	r0, r0, ip, lsl r0
  44:	0fb00002 	svceq	0x00b00002
  48:	00040000 	andeq	r0, r4, r0
  4c:	00000000 	andeq	r0, r0, r0
  50:	000086c0 	andeq	r8, r0, r0, asr #13
  54:	00000058 	andeq	r0, r0, r8, asr r0
	...
  60:	0000001c 	andeq	r0, r0, ip, lsl r0
  64:	11450002 	cmpne	r5, r2
  68:	00040000 	andeq	r0, r4, r0
  6c:	00000000 	andeq	r0, r0, r0
  70:	00008718 	andeq	r8, r0, r8, lsl r7
  74:	0000003c 	andeq	r0, r0, ip, lsr r0
	...
  80:	0000001c 	andeq	r0, r0, ip, lsl r0
  84:	125c0002 	subsne	r0, ip, #2
  88:	00040000 	andeq	r0, r4, r0
  8c:	00000000 	andeq	r0, r0, r0
  90:	00008754 	andeq	r8, r0, r4, asr r7
  94:	00000034 	andeq	r0, r0, r4, lsr r0
	...
  a0:	0000001c 	andeq	r0, r0, ip, lsl r0
  a4:	134e0002 	movtne	r0, #57346	; 0xe002
  a8:	00040000 	andeq	r0, r4, r0
  ac:	00000000 	andeq	r0, r0, r0
  b0:	00008788 	andeq	r8, r0, r8, lsl #15
  b4:	000004f8 	strdeq	r0, [r0], -r8
	...
  c0:	0000001c 	andeq	r0, r0, ip, lsl r0
  c4:	19d30002 	ldmibne	r3, {r1}^
  c8:	00040000 	andeq	r0, r4, r0
  cc:	00000000 	andeq	r0, r0, r0
  d0:	00008c80 	andeq	r8, r0, r0, lsl #25
  d4:	00000028 	andeq	r0, r0, r8, lsr #32
	...
  e0:	0000001c 	andeq	r0, r0, ip, lsl r0
  e4:	1ad60002 	bne	ff5800f4 <__bss_end__+0xff5717fc>
  e8:	00040000 	andeq	r0, r4, r0
  ec:	00000000 	andeq	r0, r0, r0
  f0:	00008ca8 	andeq	r8, r0, r8, lsr #25
  f4:	000000b0 	strheq	r0, [r0], -r0	; <UNPREDICTABLE>
	...
 100:	0000001c 	andeq	r0, r0, ip, lsl r0
 104:	1dc30002 	stclne	0, cr0, [r3, #8]
 108:	00040000 	andeq	r0, r4, r0
 10c:	00000000 	andeq	r0, r0, r0
 110:	00008d58 	andeq	r8, r0, r8, asr sp
 114:	00000074 	andeq	r0, r0, r4, ror r0
	...
 120:	0000001c 	andeq	r0, r0, ip, lsl r0
 124:	1f740002 	svcne	0x00740002
 128:	00040000 	andeq	r0, r4, r0
 12c:	00000000 	andeq	r0, r0, r0
 130:	00008dcc 	andeq	r8, r0, ip, asr #27
 134:	00000088 	andeq	r0, r0, r8, lsl #1
	...
 140:	0000001c 	andeq	r0, r0, ip, lsl r0
 144:	21500002 	cmpcs	r0, r2
 148:	00040000 	andeq	r0, r4, r0
 14c:	00000000 	andeq	r0, r0, r0
 150:	00008e54 	andeq	r8, r0, r4, asr lr
 154:	000005bc 			; <UNDEFINED> instruction: 0x000005bc
	...
 160:	0000001c 	andeq	r0, r0, ip, lsl r0
 164:	2a230002 	bcs	8c0174 <__bss_end__+0x8b187c>
 168:	00040000 	andeq	r0, r4, r0
 16c:	00000000 	andeq	r0, r0, r0
 170:	00009410 	andeq	r9, r0, r0, lsl r4
 174:	00000620 	andeq	r0, r0, r0, lsr #12
	...
 180:	0000001c 	andeq	r0, r0, ip, lsl r0
 184:	3bf10002 	blcc	ffc40194 <__bss_end__+0xffc3189c>
 188:	00040000 	andeq	r0, r4, r0
 18c:	00000000 	andeq	r0, r0, r0
 190:	00009a30 	andeq	r9, r0, r0, lsr sl
 194:	00000154 	andeq	r0, r0, r4, asr r1
	...
 1a0:	0000001c 	andeq	r0, r0, ip, lsl r0
 1a4:	3ff40002 	svccc	0x00f40002
 1a8:	00040000 	andeq	r0, r4, r0
 1ac:	00000000 	andeq	r0, r0, r0
 1b0:	00009b84 	andeq	r9, r0, r4, lsl #23
 1b4:	00000200 	andeq	r0, r0, r0, lsl #4
	...
 1c0:	0000001c 	andeq	r0, r0, ip, lsl r0
 1c4:	45850002 	strmi	r0, [r5, #2]
 1c8:	00040000 	andeq	r0, r4, r0
 1cc:	00000000 	andeq	r0, r0, r0
 1d0:	00009ec0 	andeq	r9, r0, r0, asr #29
 1d4:	00000050 	andeq	r0, r0, r0, asr r0
	...

Disassembly of section .debug_ranges:

00000000 <.debug_ranges>:
   0:	000000f8 	strdeq	r0, [r0], -r8
   4:	00000138 	andeq	r0, r0, r8, lsr r1
   8:	0000013c 	andeq	r0, r0, ip, lsr r1
   c:	00000140 	andeq	r0, r0, r0, asr #2
	...
  18:	000002d0 	ldrdeq	r0, [r0], -r0	; <UNPREDICTABLE>
  1c:	000002e4 	andeq	r0, r0, r4, ror #5
  20:	000002f0 	strdeq	r0, [r0], -r0	; <UNPREDICTABLE>
  24:	0000032c 	andeq	r0, r0, ip, lsr #6
	...
  30:	000002d0 	ldrdeq	r0, [r0], -r0	; <UNPREDICTABLE>
  34:	000002dc 	ldrdeq	r0, [r0], -ip
  38:	000002f0 	strdeq	r0, [r0], -r0	; <UNPREDICTABLE>
  3c:	000002f8 	strdeq	r0, [r0], -r8
	...
  48:	000003d4 	ldrdeq	r0, [r0], -r4
  4c:	000003e8 	andeq	r0, r0, r8, ror #7
  50:	00000400 	andeq	r0, r0, r0, lsl #8
  54:	0000043c 	andeq	r0, r0, ip, lsr r4
	...
  60:	000003d4 	ldrdeq	r0, [r0], -r4
  64:	000003e0 	andeq	r0, r0, r0, ror #7
  68:	00000400 	andeq	r0, r0, r0, lsl #8
  6c:	00000408 	andeq	r0, r0, r8, lsl #8
	...
  78:	00000294 	muleq	r0, r4, r2
  7c:	00000298 	muleq	r0, r8, r2
  80:	000002c8 	andeq	r0, r0, r8, asr #5
  84:	000004b8 			; <UNDEFINED> instruction: 0x000004b8
	...
  90:	00008d58 	andeq	r8, r0, r8, asr sp
  94:	00008dcc 	andeq	r8, r0, ip, asr #27
	...

Disassembly of section .debug_line:

00000000 <.debug_line>:
       0:	000003f1 	strdeq	r0, [r0], -r1
       4:	02620002 	rsbeq	r0, r2, #2
       8:	01020000 	mrseq	r0, (UNDEF: 2)
       c:	000d0efb 	strdeq	r0, [sp], -fp
      10:	01010101 	tsteq	r1, r1, lsl #2
      14:	01000000 	mrseq	r0, (UNDEF: 0)
      18:	2f010000 	svccs	0x00010000
      1c:	72657355 	rsbvc	r7, r5, #1409286145	; 0x54000001
      20:	72622f73 	rsbvc	r2, r2, #460	; 0x1cc
      24:	6a6e6169 	bvs	1b985d0 <__bss_end__+0x1b89cd8>
      28:	442f6e75 	strtmi	r6, [pc], #-3701	; 30 <_start-0x7fd0>
      2c:	746b7365 	strbtvc	r7, [fp], #-869	; 0x365
      30:	732f706f 	teqvc	pc, #111	; 0x6f
      34:	6f6f6863 	svcvs	0x006f6863
      38:	69572f6c 	ldmdbvs	r7, {r2, r3, r5, r6, r8, r9, sl, fp, sp}^
      3c:	7265746e 	rsbvc	r7, r5, #1845493760	; 0x6e000000
      40:	30323931 	eorscc	r3, r2, r1, lsr r9
      44:	3153432f 	cmpcc	r3, pc, lsr #6
      48:	2f453034 	svccs	0x00453034
      4c:	34317363 	ldrtcc	r7, [r1], #-867	; 0x363
      50:	322d6530 	eorcc	r6, sp, #48, 10	; 0xc000000
      54:	6e697730 	mcrvs	7, 3, r7, cr9, cr0, {1}
      58:	62696c2f 	rsbvs	r6, r9, #12032	; 0x2f00
      5c:	6c2f6970 	stcvs	9, cr6, [pc], #-448	; fffffea4 <__bss_end__+0xffff15ac>
      60:	00636269 	rsbeq	r6, r3, r9, ror #4
      64:	7273752f 	rsbsvc	r7, r3, #197132288	; 0xbc00000
      68:	636f6c2f 	cmnvs	pc, #12032	; 0x2f00
      6c:	432f6c61 	teqmi	pc, #24832	; 0x6100
      70:	616c6c65 	cmnvs	ip, r5, ror #24
      74:	72612f72 	rsbvc	r2, r1, #456	; 0x1c8
      78:	6f6e2d6d 	svcvs	0x006e2d6d
      7c:	652d656e 	strvs	r6, [sp, #-1390]!	; 0x56e
      80:	2f696261 	svccs	0x00696261
      84:	2e382e34 	mrccs	14, 1, r2, cr8, cr4, {1}
      88:	73632d33 	cmnvc	r3, #3264	; 0xcc0
      8c:	65303731 	ldrvs	r3, [r0, #-1841]!	; 0x731
      90:	62696c2f 	rsbvs	r6, r9, #12032	; 0x2f00
      94:	6363672f 	cmnvs	r3, #12320768	; 0xbc0000
      98:	6d72612f 	ldfvse	f6, [r2, #-188]!	; 0xffffff44
      9c:	6e6f6e2d 	cdpvs	14, 6, cr6, cr15, cr13, {1}
      a0:	61652d65 	cmnvs	r5, r5, ror #26
      a4:	342f6962 	strtcc	r6, [pc], #-2402	; ac <_start-0x7f54>
      a8:	332e382e 	teqcc	lr, #3014656	; 0x2e0000
      ac:	636e692f 	cmnvs	lr, #770048	; 0xbc000
      b0:	6564756c 	strbvs	r7, [r4, #-1388]!	; 0x56c
      b4:	73552f00 	cmpvc	r5, #0, 30
      b8:	2f737265 	svccs	0x00737265
      bc:	61697262 	cmnvs	r9, r2, ror #4
      c0:	6e756a6e 	vsubvs.f32	s13, s10, s29
      c4:	7365442f 	cmnvc	r5, #788529152	; 0x2f000000
      c8:	706f746b 	rsbvc	r7, pc, fp, ror #8
      cc:	6863732f 	stmdavs	r3!, {r0, r1, r2, r3, r5, r8, r9, ip, sp, lr}^
      d0:	2f6c6f6f 	svccs	0x006c6f6f
      d4:	746e6957 	strbtvc	r6, [lr], #-2391	; 0x957
      d8:	39317265 	ldmdbcc	r1!, {r0, r2, r5, r6, r9, ip, sp, lr}
      dc:	432f3032 	teqmi	pc, #50	; 0x32
      e0:	30343153 	eorscc	r3, r4, r3, asr r1
      e4:	73632f45 	cmnvc	r3, #276	; 0x114
      e8:	65303431 	ldrvs	r3, [r0, #-1073]!	; 0x431
      ec:	7730322d 	ldrvc	r3, [r0, -sp, lsr #4]!
      f0:	6c2f6e69 	stcvs	14, cr6, [pc], #-420	; ffffff54 <__bss_end__+0xffff165c>
      f4:	69706269 	ldmdbvs	r0!, {r0, r3, r5, r6, r9, sp, lr}^
      f8:	3173632f 	cmncc	r3, pc, lsr #6
      fc:	2d653034 	stclcs	0, cr3, [r5, #-208]!	; 0xffffff30
     100:	00637273 	rsbeq	r7, r3, r3, ror r2
     104:	6573552f 	ldrbvs	r5, [r3, #-1327]!	; 0x52f
     108:	622f7372 	eorvs	r7, pc, #-939524095	; 0xc8000001
     10c:	6e616972 	mcrvs	9, 3, r6, cr1, cr2, {3}
     110:	2f6e756a 	svccs	0x006e756a
     114:	6b736544 	blvs	1cd962c <__bss_end__+0x1ccad34>
     118:	2f706f74 	svccs	0x00706f74
     11c:	6f686373 	svcvs	0x00686373
     120:	572f6c6f 	strpl	r6, [pc, -pc, ror #24]!
     124:	65746e69 	ldrbvs	r6, [r4, #-3689]!	; 0xe69
     128:	32393172 	eorscc	r3, r9, #-2147483620	; 0x8000001c
     12c:	53432f30 	movtpl	r2, #16176	; 0x3f30
     130:	45303431 	ldrmi	r3, [r0, #-1073]!	; 0x431
     134:	3173632f 	cmncc	r3, pc, lsr #6
     138:	2d653034 	stclcs	0, cr3, [r5, #-208]!	; 0xffffff30
     13c:	69773032 	ldmdbvs	r7!, {r1, r4, r5, ip, sp}^
     140:	696c2f6e 	stmdbvs	ip!, {r1, r2, r3, r5, r6, r8, r9, sl, fp, sp}^
     144:	2f697062 	svccs	0x00697062
     148:	34317363 	ldrtcc	r7, [r1], #-867	; 0x363
     14c:	692d6530 	pushvs	{r4, r5, r8, sl, sp, lr}
     150:	7265746e 	rsbvc	r7, r5, #1845493760	; 0x6e000000
     154:	74707572 	ldrbtvc	r7, [r0], #-1394	; 0x572
     158:	73752f00 	cmnvc	r5, #0, 30
     15c:	6f6c2f72 	svcvs	0x006c2f72
     160:	2f6c6163 	svccs	0x006c6163
     164:	6c6c6543 	cfstr64vs	mvdx6, [ip], #-268	; 0xfffffef4
     168:	612f7261 	teqvs	pc, r1, ror #4
     16c:	6e2d6d72 	mcrvs	13, 1, r6, cr13, cr2, {3}
     170:	2d656e6f 	stclcs	14, cr6, [r5, #-444]!	; 0xfffffe44
     174:	69626165 	stmdbvs	r2!, {r0, r2, r5, r6, r8, sp, lr}^
     178:	382e342f 	stmdacc	lr!, {r0, r1, r2, r3, r5, sl, ip, sp}
     17c:	632d332e 	teqvs	sp, #-1207959552	; 0xb8000000
     180:	30373173 	eorscc	r3, r7, r3, ror r1
     184:	72612f65 	rsbvc	r2, r1, #404	; 0x194
     188:	6f6e2d6d 	svcvs	0x006e2d6d
     18c:	652d656e 	strvs	r6, [sp, #-1390]!	; 0x56e
     190:	2f696261 	svccs	0x00696261
     194:	6c636e69 	stclvs	14, cr6, [r3], #-420	; 0xfffffe5c
     198:	00656475 	rsbeq	r6, r5, r5, ror r4
     19c:	6573552f 	ldrbvs	r5, [r3, #-1327]!	; 0x52f
     1a0:	622f7372 	eorvs	r7, pc, #-939524095	; 0xc8000001
     1a4:	6e616972 	mcrvs	9, 3, r6, cr1, cr2, {3}
     1a8:	2f6e756a 	svccs	0x006e756a
     1ac:	6b736544 	blvs	1cd96c4 <__bss_end__+0x1ccadcc>
     1b0:	2f706f74 	svccs	0x00706f74
     1b4:	6f686373 	svcvs	0x00686373
     1b8:	572f6c6f 	strpl	r6, [pc, -pc, ror #24]!
     1bc:	65746e69 	ldrbvs	r6, [r4, #-3689]!	; 0xe69
     1c0:	32393172 	eorscc	r3, r9, #-2147483620	; 0x8000001c
     1c4:	53432f30 	movtpl	r2, #16176	; 0x3f30
     1c8:	45303431 	ldrmi	r3, [r0, #-1073]!	; 0x431
     1cc:	3173632f 	cmncc	r3, pc, lsr #6
     1d0:	2d653034 	stclcs	0, cr3, [r5, #-208]!	; 0xffffff30
     1d4:	69773032 	ldmdbvs	r7!, {r1, r4, r5, ip, sp}^
     1d8:	696c2f6e 	stmdbvs	ip!, {r1, r2, r3, r5, r6, r8, r9, sl, fp, sp}^
     1dc:	00697062 	rsbeq	r7, r9, r2, rrx
     1e0:	72696300 	rsbvc	r6, r9, #0, 6
     1e4:	616c7563 	cmnvs	ip, r3, ror #10
     1e8:	00682e72 	rsbeq	r2, r8, r2, ror lr
     1ec:	75000001 	strvc	r0, [r0, #-1]
     1f0:	2d747261 	lfmcs	f7, 2, [r4, #-388]!	; 0xfffffe7c
     1f4:	2e746e69 	cdpcs	14, 7, cr6, cr4, cr9, {3}
     1f8:	00000063 	andeq	r0, r0, r3, rrx
     1fc:	64747300 	ldrbtvs	r7, [r4], #-768	; 0x300
     200:	2e666564 	cdpcs	5, 6, cr6, cr6, cr4, {3}
     204:	00020068 	andeq	r0, r2, r8, rrx
     208:	64747300 	ldrbtvs	r7, [r4], #-768	; 0x300
     20c:	2d746e69 	ldclcs	14, cr6, [r4, #-420]!	; 0xfffffe5c
     210:	2e636367 	cdpcs	3, 6, cr6, cr3, cr7, {3}
     214:	00020068 	andeq	r0, r2, r8, rrx
     218:	69706700 	ldmdbvs	r0!, {r8, r9, sl, sp, lr}^
     21c:	00682e6f 	rsbeq	r2, r8, pc, ror #28
     220:	72000003 	andvc	r0, r0, #3
     224:	612d6970 	teqvs	sp, r0, ror r9
     228:	69746d72 	ldmdbvs	r4!, {r1, r4, r5, r6, r8, sl, fp, sp, lr}^
     22c:	2e72656d 	cdpcs	5, 7, cr6, cr2, cr13, {3}
     230:	00040068 	andeq	r0, r4, r8, rrx
     234:	2d777300 	ldclcs	3, cr7, [r7, #-0]
     238:	74726175 	ldrbtvc	r6, [r2], #-373	; 0x175
     23c:	0300682e 	movweq	r6, #2094	; 0x82e
     240:	74730000 	ldrbtvc	r0, [r3], #-0
     244:	676e6972 			; <UNDEFINED> instruction: 0x676e6972
     248:	0500682e 	streq	r6, [r0, #-2094]	; 0x82e
     24c:	70720000 	rsbsvc	r0, r2, r0
     250:	00682e69 	rsbeq	r2, r8, r9, ror #28
     254:	72000006 	andvc	r0, r0, #6
     258:	692d6970 	pushvs	{r4, r5, r6, r8, fp, sp, lr}
     25c:	7265746e 	rsbvc	r7, r5, #1845493760	; 0x6e000000
     260:	74707572 	ldrbtvc	r7, [r0], #-1394	; 0x572
     264:	00682e73 	rsbeq	r2, r8, r3, ror lr
     268:	00000004 	andeq	r0, r0, r4
     26c:	10020500 	andne	r0, r2, r0, lsl #10
     270:	03000080 	movweq	r0, #128	; 0x80
     274:	67010198 			; <UNDEFINED> instruction: 0x67010198
     278:	4b9f6767 	blmi	fe7da01c <__bss_end__+0xfe7cb724>
     27c:	ba7f9b03 	blt	1fe6e90 <__bss_end__+0x1fd8598>
     280:	4a00e603 	bmi	39a94 <__bss_end__+0x2b19c>
     284:	01040200 	mrseq	r0, R12_usr
     288:	03064a06 	movweq	r4, #27142	; 0x6a06
     28c:	03d67f9d 	bicseq	r7, r6, #628	; 0x274
     290:	00ba00e4 	adcseq	r0, sl, r4, ror #1
     294:	06010402 	streq	r0, [r1], -r2, lsl #8
     298:	9e03064a 	cfmadd32ls	mvax2, mvfx0, mvfx3, mvfx10
     29c:	e303d67f 	movw	sp, #13951	; 0x367f
     2a0:	02009e00 	andeq	r9, r0, #0, 28
     2a4:	4a060104 	bmi	1806bc <__bss_end__+0x171dc4>
     2a8:	7f980306 	svcvc	0x00980306
     2ac:	820a03d6 	andhi	r0, sl, #1476395011	; 0x58000003
     2b0:	834b4b4c 	movthi	r4, #47948	; 0xbb4c
     2b4:	4a00da03 	bmi	36ac8 <__bss_end__+0x281d0>
     2b8:	2e7fa203 	cdpcs	2, 7, cr10, cr15, cr3, {0}
     2bc:	2e00df03 	cdpcs	15, 0, cr13, cr0, cr3, {0}
     2c0:	01040200 	mrseq	r0, R12_usr
     2c4:	00664a06 	rsbeq	r4, r6, r6, lsl #20
     2c8:	66040402 	strvs	r0, [r4], -r2, lsl #8
     2cc:	01040200 	mrseq	r0, R12_usr
     2d0:	0602044a 	streq	r0, [r2], -sl, asr #8
     2d4:	027f9203 	rsbseq	r9, pc, #805306368	; 0x30000000
     2d8:	01040126 	tsteq	r4, r6, lsr #2
     2dc:	9c020416 	cfstrsls	mvf0, [r2], {22}
     2e0:	4b2f4ba0 	blmi	bd3168 <__bss_end__+0xbc4870>
     2e4:	83694b2f 	cmnhi	r9, #48128	; 0xbc00
     2e8:	4b316d68 	blmi	c5b890 <__bss_end__+0xc4cf98>
     2ec:	01043069 	tsteq	r4, r9, rrx
     2f0:	2e650331 	mcrcs	3, 3, r0, cr5, cr1, {1}
     2f4:	4c821c03 	stcmi	12, cr1, [r2], {3}
     2f8:	0402002f 	streq	r0, [r2], #-47	; 0x2f
     2fc:	9e610301 	cdpls	3, 6, cr0, cr1, cr1, {0}
     300:	02000204 	andeq	r0, r0, #4, 4	; 0x40000000
     304:	15030104 	strne	r0, [r3, #-260]	; 0x104
     308:	040200d6 	streq	r0, [r2], #-214	; 0xd6
     30c:	064a0602 	strbeq	r0, [sl], -r2, lsl #12
     310:	01046889 	smlabbeq	r4, r9, r8, r6
     314:	01040200 	mrseq	r0, R12_usr
     318:	00665f03 	rsbeq	r5, r6, r3, lsl #30
     31c:	03010402 	movweq	r0, #5122	; 0x1402
     320:	0200660b 	andeq	r6, r0, #11534336	; 0xb00000
     324:	04320104 	ldrteq	r0, [r2], #-260	; 0x104
     328:	04020002 	streq	r0, [r2], #-2
     32c:	2e110301 	cdpcs	3, 1, cr0, cr1, cr1, {0}
     330:	60030104 	andvs	r0, r3, r4, lsl #2
     334:	4a0a0366 	bmi	2810d4 <__bss_end__+0x2727dc>
     338:	83672f4c 	cmnhi	r7, #76, 30	; 0x130
     33c:	03020446 	movweq	r0, #9286	; 0x2446
     340:	01042e15 	tsteq	r4, r5, lsl lr
     344:	044a6003 	strbeq	r6, [sl], #-3
     348:	9e240302 	cdpls	3, 2, cr0, cr4, cr2, {0}
     34c:	4b41084b 	blmi	1042480 <__bss_end__+0x1033b88>
     350:	73030104 	movwvc	r0, #12548	; 0x3104
     354:	6665032e 	strbtvs	r0, [r5], -lr, lsr #6
     358:	4c9e1c03 	ldcmi	12, cr1, [lr], {3}
     35c:	03020467 	movweq	r0, #9319	; 0x2467
     360:	01049e0b 	tsteq	r4, fp, lsl #28
     364:	034a5303 	movteq	r5, #41731	; 0xa303
     368:	0432660b 	ldrteq	r6, [r2], #-1547	; 0x60b
     36c:	2e210302 	cdpcs	3, 2, cr0, cr1, cr2, {0}
     370:	0402002f 	streq	r0, [r2], #-47	; 0x2f
     374:	01044901 	tsteq	r4, r1, lsl #18
     378:	03665003 	cmneq	r6, #3
     37c:	2f4c4a0a 	svccs	0x004c4a0a
     380:	04468367 	strbeq	r8, [r6], #-871	; 0x367
     384:	2e250302 	cdpcs	3, 2, cr0, cr5, cr2, {0}
     388:	0104a14e 	tsteq	r4, lr, asr #2
     38c:	04014903 	streq	r4, [r1], #-2307	; 0x903
     390:	9e3a0302 	cdpls	3, 3, cr0, cr10, cr2, {0}
     394:	46030104 	strmi	r0, [r3], -r4, lsl #2
     398:	820a034a 	andhi	r0, sl, #671088641	; 0x28000001
     39c:	044b674c 	strbeq	r6, [fp], #-1868	; 0x74c
     3a0:	9e2b0302 	cdpls	3, 2, cr0, cr11, cr2, {0}
     3a4:	004b846c 	subeq	r8, fp, ip, ror #8
     3a8:	2f020402 	svccs	0x00020402
     3ac:	02040200 	andeq	r0, r4, #0, 4
     3b0:	0402002d 	streq	r0, [r2], #-45	; 0x2d
     3b4:	062e0601 	strteq	r0, [lr], -r1, lsl #12
     3b8:	312f3068 	teqcc	pc, r8, rrx
     3bc:	bc306867 	ldclt	8, cr6, [r0], #-412	; 0xfffffe64
     3c0:	67678330 			; <UNDEFINED> instruction: 0x67678330
     3c4:	68696767 	stmdavs	r9!, {r0, r1, r2, r5, r6, r8, r9, sl, sp, lr}^
     3c8:	2f4b2408 	svccs	0x004b2408
     3cc:	09036730 	stmdbeq	r3, {r4, r5, r8, r9, sl, sp, lr}
     3d0:	03306866 	teqeq	r0, #6684672	; 0x660000
     3d4:	4cd82e22 	ldclmi	14, cr2, [r8], {34}	; 0x22
     3d8:	832f4b4c 	teqhi	pc, #76, 22	; 0x13000
     3dc:	002f4b2f 	eoreq	r4, pc, pc, lsr #22
     3e0:	03010402 	movweq	r0, #5122	; 0x1402
     3e4:	02002e79 	andeq	r2, r0, #1936	; 0x790
     3e8:	03650104 	cmneq	r5, #4, 2
     3ec:	4b4c4a0b 	blmi	1312c20 <__bss_end__+0x1304328>
     3f0:	01001202 	tsteq	r0, r2, lsl #4
     3f4:	0000ec01 	andeq	lr, r0, r1, lsl #24
     3f8:	d0000200 	andle	r0, r0, r0, lsl #4
     3fc:	02000000 	andeq	r0, r0, #0
     400:	0d0efb01 	vstreq	d15, [lr, #-4]
     404:	01010100 	mrseq	r0, (UNDEF: 17)
     408:	00000001 	andeq	r0, r0, r1
     40c:	01000001 	tsteq	r0, r1
     410:	6362696c 	cmnvs	r2, #108, 18	; 0x1b0000
     414:	73752f00 	cmnvc	r5, #0, 30
     418:	6f6c2f72 	svcvs	0x006c2f72
     41c:	2f6c6163 	svccs	0x006c6163
     420:	6c6c6543 	cfstr64vs	mvdx6, [ip], #-268	; 0xfffffef4
     424:	612f7261 	teqvs	pc, r1, ror #4
     428:	6e2d6d72 	mcrvs	13, 1, r6, cr13, cr2, {3}
     42c:	2d656e6f 	stclcs	14, cr6, [r5, #-444]!	; 0xfffffe44
     430:	69626165 	stmdbvs	r2!, {r0, r2, r5, r6, r8, sp, lr}^
     434:	382e342f 	stmdacc	lr!, {r0, r1, r2, r3, r5, sl, ip, sp}
     438:	632d332e 	teqvs	sp, #-1207959552	; 0xb8000000
     43c:	30373173 	eorscc	r3, r7, r3, ror r1
     440:	696c2f65 	stmdbvs	ip!, {r0, r2, r5, r6, r8, r9, sl, fp, sp}^
     444:	63672f62 	cmnvs	r7, #392	; 0x188
     448:	72612f63 	rsbvc	r2, r1, #396	; 0x18c
     44c:	6f6e2d6d 	svcvs	0x006e2d6d
     450:	652d656e 	strvs	r6, [sp, #-1390]!	; 0x56e
     454:	2f696261 	svccs	0x00696261
     458:	2e382e34 	mrccs	14, 1, r2, cr8, cr4, {1}
     45c:	6e692f33 	mcrvs	15, 3, r2, cr9, cr3, {1}
     460:	64756c63 	ldrbtvs	r6, [r5], #-3171	; 0xc63
     464:	752f0065 	strvc	r0, [pc, #-101]!	; 407 <_start-0x7bf9>
     468:	6c2f7273 	sfmvs	f7, 4, [pc], #-460	; 2a4 <_start-0x7d5c>
     46c:	6c61636f 	stclvs	3, cr6, [r1], #-444	; 0xfffffe44
     470:	6c65432f 	stclvs	3, cr4, [r5], #-188	; 0xffffff44
     474:	2f72616c 	svccs	0x0072616c
     478:	2d6d7261 	sfmcs	f7, 2, [sp, #-388]!	; 0xfffffe7c
     47c:	656e6f6e 	strbvs	r6, [lr, #-3950]!	; 0xf6e
     480:	6261652d 	rsbvs	r6, r1, #188743680	; 0xb400000
     484:	2e342f69 	cdpcs	15, 3, cr2, cr4, cr9, {3}
     488:	2d332e38 	ldccs	14, cr2, [r3, #-224]!	; 0xffffff20
     48c:	37317363 	ldrcc	r7, [r1, -r3, ror #6]!
     490:	612f6530 	teqvs	pc, r0, lsr r5	; <UNPREDICTABLE>
     494:	6e2d6d72 	mcrvs	13, 1, r6, cr13, cr2, {3}
     498:	2d656e6f 	stclcs	14, cr6, [r5, #-444]!	; 0xfffffe44
     49c:	69626165 	stmdbvs	r2!, {r0, r2, r5, r6, r8, sp, lr}^
     4a0:	636e692f 	cmnvs	lr, #770048	; 0xbc000
     4a4:	6564756c 	strbvs	r7, [r4, #-1388]!	; 0x56c
     4a8:	656d0000 	strbvs	r0, [sp, #-0]!
     4ac:	7465736d 	strbtvc	r7, [r5], #-877	; 0x36d
     4b0:	0100632e 	tsteq	r0, lr, lsr #6
     4b4:	74730000 	ldrbtvc	r0, [r3], #-0
     4b8:	66656464 	strbtvs	r6, [r5], -r4, ror #8
     4bc:	0200682e 	andeq	r6, r0, #3014656	; 0x2e0000
     4c0:	74730000 	ldrbtvc	r0, [r3], #-0
     4c4:	676e6972 			; <UNDEFINED> instruction: 0x676e6972
     4c8:	0300682e 	movweq	r6, #2094	; 0x82e
     4cc:	00000000 	andeq	r0, r0, r0
     4d0:	86a00205 	strthi	r0, [r0], r5, lsl #4
     4d4:	13140000 	tstne	r4, #0
     4d8:	02002f4c 	andeq	r2, r0, #76, 30	; 0x130
     4dc:	4d490104 	stfmie	f0, [r9, #-16]
     4e0:	01000202 	tsteq	r0, r2, lsl #4
     4e4:	00010201 	andeq	r0, r1, r1, lsl #4
     4e8:	eb000200 	bl	cf0 <_start-0x7310>
     4ec:	02000000 	andeq	r0, r0, #0
     4f0:	0d0efb01 	vstreq	d15, [lr, #-4]
     4f4:	01010100 	mrseq	r0, (UNDEF: 17)
     4f8:	00000001 	andeq	r0, r0, r1
     4fc:	01000001 	tsteq	r0, r1
     500:	6362696c 	cmnvs	r2, #108, 18	; 0x1b0000
     504:	73752f00 	cmnvc	r5, #0, 30
     508:	6f6c2f72 	svcvs	0x006c2f72
     50c:	2f6c6163 	svccs	0x006c6163
     510:	6c6c6543 	cfstr64vs	mvdx6, [ip], #-268	; 0xfffffef4
     514:	612f7261 	teqvs	pc, r1, ror #4
     518:	6e2d6d72 	mcrvs	13, 1, r6, cr13, cr2, {3}
     51c:	2d656e6f 	stclcs	14, cr6, [r5, #-444]!	; 0xfffffe44
     520:	69626165 	stmdbvs	r2!, {r0, r2, r5, r6, r8, sp, lr}^
     524:	382e342f 	stmdacc	lr!, {r0, r1, r2, r3, r5, sl, ip, sp}
     528:	632d332e 	teqvs	sp, #-1207959552	; 0xb8000000
     52c:	30373173 	eorscc	r3, r7, r3, ror r1
     530:	696c2f65 	stmdbvs	ip!, {r0, r2, r5, r6, r8, r9, sl, fp, sp}^
     534:	63672f62 	cmnvs	r7, #392	; 0x188
     538:	72612f63 	rsbvc	r2, r1, #396	; 0x18c
     53c:	6f6e2d6d 	svcvs	0x006e2d6d
     540:	652d656e 	strvs	r6, [sp, #-1390]!	; 0x56e
     544:	2f696261 	svccs	0x00696261
     548:	2e382e34 	mrccs	14, 1, r2, cr8, cr4, {1}
     54c:	6e692f33 	mcrvs	15, 3, r2, cr9, cr3, {1}
     550:	64756c63 	ldrbtvs	r6, [r5], #-3171	; 0xc63
     554:	552f0065 	strpl	r0, [pc, #-101]!	; 4f7 <_start-0x7b09>
     558:	73726573 	cmnvc	r2, #482344960	; 0x1cc00000
     55c:	6972622f 	ldmdbvs	r2!, {r0, r1, r2, r3, r5, r9, sp, lr}^
     560:	756a6e61 	strbvc	r6, [sl, #-3681]!	; 0xe61
     564:	65442f6e 	strbvs	r2, [r4, #-3950]	; 0xf6e
     568:	6f746b73 	svcvs	0x00746b73
     56c:	63732f70 	cmnvs	r3, #112, 30	; 0x1c0
     570:	6c6f6f68 	stclvs	15, cr6, [pc], #-416	; 3d8 <_start-0x7c28>
     574:	6e69572f 	cdpvs	7, 6, cr5, cr9, cr15, {1}
     578:	31726574 	cmncc	r2, r4, ror r5
     57c:	2f303239 	svccs	0x00303239
     580:	34315343 	ldrtcc	r5, [r1], #-835	; 0x343
     584:	632f4530 	teqvs	pc, #48, 10	; 0xc000000
     588:	30343173 	eorscc	r3, r4, r3, ror r1
     58c:	30322d65 	eorscc	r2, r2, r5, ror #26
     590:	2f6e6977 	svccs	0x006e6977
     594:	7062696c 	rsbvc	r6, r2, ip, ror #18
     598:	70000069 	andvc	r0, r0, r9, rrx
     59c:	746e6972 	strbtvc	r6, [lr], #-2418	; 0x972
     5a0:	00632e6b 	rsbeq	r2, r3, fp, ror #28
     5a4:	73000001 	movwvc	r0, #1
     5a8:	72616474 	rsbvc	r6, r1, #116, 8	; 0x74000000
     5ac:	00682e67 	rsbeq	r2, r8, r7, ror #28
     5b0:	3c000002 	stccc	0, cr0, [r0], {2}
     5b4:	6c697562 	cfstr64vs	mvdx7, [r9], #-392	; 0xfffffe78
     5b8:	6e692d74 	mcrvs	13, 3, r2, cr9, cr4, {3}
     5bc:	0000003e 	andeq	r0, r0, lr, lsr r0
     5c0:	69707200 	ldmdbvs	r0!, {r9, ip, sp, lr}^
     5c4:	0300682e 	movweq	r6, #2094	; 0x82e
     5c8:	61760000 	cmnvs	r6, r0
     5cc:	6972702d 	ldmdbvs	r2!, {r0, r2, r3, r5, ip, sp, lr}^
     5d0:	2e6b746e 	cdpcs	4, 6, cr7, cr11, cr14, {3}
     5d4:	00010068 	andeq	r0, r1, r8, rrx
     5d8:	05000000 	streq	r0, [r0, #-0]
     5dc:	0086c002 	addeq	ip, r6, r2
     5e0:	4b6b1700 	blmi	1ac61e8 <__bss_end__+0x1ab78f0>
     5e4:	0e0289bf 	mcreq	9, 0, r8, cr2, cr15, {5}
     5e8:	8a010100 	bhi	409f0 <__bss_end__+0x320f8>
     5ec:	02000000 	andeq	r0, r0, #0
     5f0:	00007200 	andeq	r7, r0, r0, lsl #4
     5f4:	fb010200 	blx	40dfe <__bss_end__+0x32506>
     5f8:	01000d0e 	tsteq	r0, lr, lsl #26
     5fc:	00010101 	andeq	r0, r1, r1, lsl #2
     600:	00010000 	andeq	r0, r1, r0
     604:	696c0100 	stmdbvs	ip!, {r8}^
     608:	2f006362 	svccs	0x00006362
     60c:	72657355 	rsbvc	r7, r5, #1409286145	; 0x54000001
     610:	72622f73 	rsbvc	r2, r2, #460	; 0x1cc
     614:	6a6e6169 	bvs	1b98bc0 <__bss_end__+0x1b8a2c8>
     618:	442f6e75 	strtmi	r6, [pc], #-3701	; 620 <_start-0x79e0>
     61c:	746b7365 	strbtvc	r7, [fp], #-869	; 0x365
     620:	732f706f 	teqvc	pc, #111	; 0x6f
     624:	6f6f6863 	svcvs	0x006f6863
     628:	69572f6c 	ldmdbvs	r7, {r2, r3, r5, r6, r8, r9, sl, fp, sp}^
     62c:	7265746e 	rsbvc	r7, r5, #1845493760	; 0x6e000000
     630:	30323931 	eorscc	r3, r2, r1, lsr r9
     634:	3153432f 	cmpcc	r3, pc, lsr #6
     638:	2f453034 	svccs	0x00453034
     63c:	34317363 	ldrtcc	r7, [r1], #-867	; 0x363
     640:	322d6530 	eorcc	r6, sp, #48, 10	; 0xc000000
     644:	6e697730 	mcrvs	7, 3, r7, cr9, cr0, {1}
     648:	62696c2f 	rsbvs	r6, r9, #12032	; 0x2f00
     64c:	00006970 	andeq	r6, r0, r0, ror r9
     650:	63747570 	cmnvs	r4, #112, 10	; 0x1c000000
     654:	2e726168 	rpwcssz	f6, f2, #0.0
     658:	00010063 	andeq	r0, r1, r3, rrx
     65c:	69707200 	ldmdbvs	r0!, {r9, ip, sp, lr}^
     660:	0200682e 	andeq	r6, r0, #3014656	; 0x2e0000
     664:	00000000 	andeq	r0, r0, r0
     668:	87180205 	ldrhi	r0, [r8, -r5, lsl #4]
     66c:	4a140000 	bmi	500674 <__bss_end__+0x4f1d7c>
     670:	13bc136b 			; <UNDEFINED> instruction: 0x13bc136b
     674:	01000802 	tsteq	r0, r2, lsl #16
     678:	00009601 	andeq	r9, r0, r1, lsl #12
     67c:	6f000200 	svcvs	0x00000200
     680:	02000000 	andeq	r0, r0, #0
     684:	0d0efb01 	vstreq	d15, [lr, #-4]
     688:	01010100 	mrseq	r0, (UNDEF: 17)
     68c:	00000001 	andeq	r0, r0, r1
     690:	01000001 	tsteq	r0, r1
     694:	6362696c 	cmnvs	r2, #108, 18	; 0x1b0000
     698:	73552f00 	cmpvc	r5, #0, 30
     69c:	2f737265 	svccs	0x00737265
     6a0:	61697262 	cmnvs	r9, r2, ror #4
     6a4:	6e756a6e 	vsubvs.f32	s13, s10, s29
     6a8:	7365442f 	cmnvc	r5, #788529152	; 0x2f000000
     6ac:	706f746b 	rsbvc	r7, pc, fp, ror #8
     6b0:	6863732f 	stmdavs	r3!, {r0, r1, r2, r3, r5, r8, r9, ip, sp, lr}^
     6b4:	2f6c6f6f 	svccs	0x006c6f6f
     6b8:	746e6957 	strbtvc	r6, [lr], #-2391	; 0x957
     6bc:	39317265 	ldmdbcc	r1!, {r0, r2, r5, r6, r9, ip, sp, lr}
     6c0:	432f3032 	teqmi	pc, #50	; 0x32
     6c4:	30343153 	eorscc	r3, r4, r3, asr r1
     6c8:	73632f45 	cmnvc	r3, #276	; 0x114
     6cc:	65303431 	ldrvs	r3, [r0, #-1073]!	; 0x431
     6d0:	7730322d 	ldrvc	r3, [r0, -sp, lsr #4]!
     6d4:	6c2f6e69 	stcvs	14, cr6, [pc], #-420	; 538 <_start-0x7ac8>
     6d8:	69706269 	ldmdbvs	r0!, {r0, r3, r5, r6, r9, sp, lr}^
     6dc:	75700000 	ldrbvc	r0, [r0, #-0]!
     6e0:	632e6b74 	teqvs	lr, #116, 22	; 0x1d000
     6e4:	00000100 	andeq	r0, r0, r0, lsl #2
     6e8:	2e697072 	mcrcs	0, 3, r7, cr9, cr2, {3}
     6ec:	00020068 	andeq	r0, r2, r8, rrx
     6f0:	05000000 	streq	r0, [r0, #-0]
     6f4:	00875402 	addeq	r5, r7, r2, lsl #8
     6f8:	2d4c1500 	cfstr64cs	mvdx1, [ip, #-0]
     6fc:	02040200 	andeq	r0, r4, #0, 4
     700:	0402002f 	streq	r0, [r2], #-47	; 0x2f
     704:	02004902 	andeq	r4, r0, #32768	; 0x8000
     708:	2e060104 	adfcss	f0, f6, f4
     70c:	06026b06 	streq	r6, [r2], -r6, lsl #22
     710:	de010100 	adfles	f0, f1, f0
     714:	02000001 	andeq	r0, r0, #1
     718:	0000df00 	andeq	sp, r0, r0, lsl #30
     71c:	fb010200 	blx	40f26 <__bss_end__+0x3262e>
     720:	01000d0e 	tsteq	r0, lr, lsl #26
     724:	00010101 	andeq	r0, r1, r1, lsl #2
     728:	00010000 	andeq	r0, r1, r0
     72c:	696c0100 	stmdbvs	ip!, {r8}^
     730:	2f006362 	svccs	0x00006362
     734:	2f727375 	svccs	0x00727375
     738:	61636f6c 	cmnvs	r3, ip, ror #30
     73c:	65432f6c 	strbvs	r2, [r3, #-3948]	; 0xf6c
     740:	72616c6c 	rsbvc	r6, r1, #108, 24	; 0x6c00
     744:	6d72612f 	ldfvse	f6, [r2, #-188]!	; 0xffffff44
     748:	6e6f6e2d 	cdpvs	14, 6, cr6, cr15, cr13, {1}
     74c:	61652d65 	cmnvs	r5, r5, ror #26
     750:	342f6962 	strtcc	r6, [pc], #-2402	; 758 <_start-0x78a8>
     754:	332e382e 	teqcc	lr, #3014656	; 0x2e0000
     758:	3173632d 	cmncc	r3, sp, lsr #6
     75c:	2f653037 	svccs	0x00653037
     760:	2f62696c 	svccs	0x0062696c
     764:	2f636367 	svccs	0x00636367
     768:	2d6d7261 	sfmcs	f7, 2, [sp, #-388]!	; 0xfffffe7c
     76c:	656e6f6e 	strbvs	r6, [lr, #-3950]!	; 0xf6e
     770:	6261652d 	rsbvs	r6, r1, #188743680	; 0xb400000
     774:	2e342f69 	cdpcs	15, 3, cr2, cr4, cr9, {3}
     778:	2f332e38 	svccs	0x00332e38
     77c:	6c636e69 	stclvs	14, cr6, [r3], #-420	; 0xfffffe5c
     780:	00656475 	rsbeq	r6, r5, r5, ror r4
     784:	6573552f 	ldrbvs	r5, [r3, #-1327]!	; 0x52f
     788:	622f7372 	eorvs	r7, pc, #-939524095	; 0xc8000001
     78c:	6e616972 	mcrvs	9, 3, r6, cr1, cr2, {3}
     790:	2f6e756a 	svccs	0x006e756a
     794:	6b736544 	blvs	1cd9cac <__bss_end__+0x1ccb3b4>
     798:	2f706f74 	svccs	0x00706f74
     79c:	6f686373 	svcvs	0x00686373
     7a0:	572f6c6f 	strpl	r6, [pc, -pc, ror #24]!
     7a4:	65746e69 	ldrbvs	r6, [r4, #-3689]!	; 0xe69
     7a8:	32393172 	eorscc	r3, r9, #-2147483620	; 0x8000001c
     7ac:	53432f30 	movtpl	r2, #16176	; 0x3f30
     7b0:	45303431 	ldrmi	r3, [r0, #-1073]!	; 0x431
     7b4:	3173632f 	cmncc	r3, pc, lsr #6
     7b8:	2d653034 	stclcs	0, cr3, [r5, #-208]!	; 0xffffff30
     7bc:	69773032 	ldmdbvs	r7!, {r1, r4, r5, ip, sp}^
     7c0:	696c2f6e 	stmdbvs	ip!, {r1, r2, r3, r5, r6, r8, r9, sl, fp, sp}^
     7c4:	00697062 	rsbeq	r7, r9, r2, rrx
     7c8:	2d617600 	stclcs	6, cr7, [r1, #-0]
     7cc:	6e697270 	mcrvs	2, 3, r7, cr9, cr0, {3}
     7d0:	632e6b74 	teqvs	lr, #116, 22	; 0x1d000
     7d4:	00000100 	andeq	r0, r0, r0, lsl #2
     7d8:	61647473 	smcvs	18243	; 0x4743
     7dc:	682e6772 	stmdavs	lr!, {r1, r4, r5, r6, r8, r9, sl, sp, lr}
     7e0:	00000200 	andeq	r0, r0, r0, lsl #4
     7e4:	2e697072 	mcrcs	0, 3, r7, cr9, cr2, {3}
     7e8:	00030068 	andeq	r0, r3, r8, rrx
     7ec:	75623c00 	strbvc	r3, [r2, #-3072]!	; 0xc00
     7f0:	2d746c69 	ldclcs	12, cr6, [r4, #-420]!	; 0xfffffe5c
     7f4:	003e6e69 	eorseq	r6, lr, r9, ror #28
     7f8:	00000000 	andeq	r0, r0, r0
     7fc:	88020500 	stmdahi	r2, {r8, sl}
     800:	03000087 	movweq	r0, #135	; 0x87
     804:	a5010126 	strge	r0, [r1, #-294]	; 0x126
     808:	002d3113 	eoreq	r3, sp, r3, lsl r1
     80c:	2f020402 	svccs	0x00020402
     810:	02040200 	andeq	r0, r4, #0, 4
     814:	0402002d 	streq	r0, [r2], #-45	; 0x2d
     818:	02002f02 	andeq	r2, r0, #2, 30
     81c:	4c2d0104 	stfmis	f0, [sp], #-16
     820:	4b14304c 	blmi	50c958 <__bss_end__+0x4fe060>
     824:	02004f2f 	andeq	r4, r0, #47, 30	; 0xbc
     828:	00670204 	rsbeq	r0, r7, r4, lsl #4
     82c:	65010402 	strvs	r0, [r1, #-1026]	; 0x402
     830:	a0304d4c 	eorsge	r4, r0, ip, asr #26
     834:	0230312f 	eorseq	r3, r0, #-1073741813	; 0xc000000b
     838:	2d841626 	stccs	6, cr1, [r4, #152]	; 0x98
     83c:	0402002c 	streq	r0, [r2], #-44	; 0x2c
     840:	02003001 	andeq	r3, r0, #1
     844:	06330104 	ldrteq	r0, [r3], -r4, lsl #2
     848:	04020066 	streq	r0, [r2], #-102	; 0x66
     84c:	02002e01 	andeq	r2, r0, #1, 28
     850:	08060104 	stmdaeq	r6, {r2, r8}
     854:	032f6721 	teqeq	pc, #8650752	; 0x840000
     858:	13038273 	movwne	r8, #12915	; 0x3273
     85c:	0402002e 	streq	r0, [r2], #-46	; 0x2e
     860:	002e0601 	eoreq	r0, lr, r1, lsl #12
     864:	06010402 	streq	r0, [r1], -r2, lsl #8
     868:	034b6a9f 	movteq	r6, #47775	; 0xba9f
     86c:	21032e67 	tstcs	r3, r7, ror #28
     870:	0402002e 	streq	r0, [r2], #-46	; 0x2e
     874:	002e0601 	eoreq	r0, lr, r1, lsl #12
     878:	06010402 	streq	r0, [r1], -r2, lsl #8
     87c:	0402009f 	streq	r0, [r2], #-159	; 0x9f
     880:	f3d96a01 	vmlsl.u16	q11, d9, d1
     884:	087fa603 	ldmdaeq	pc!, {r0, r1, r9, sl, sp, pc}^	; <UNPREDICTABLE>
     888:	02002f20 	andeq	r2, r0, #32, 30	; 0x80
     88c:	4a060104 	bmi	180ca4 <__bss_end__+0x1723ac>
     890:	2f4bd706 	svccs	0x004bd706
     894:	f200da03 	vpmax.s8	d13, d0, d3
     898:	03484c83 	movteq	r4, #35971	; 0x8c83
     89c:	75032e0e 	strvc	r2, [r3, #-3598]	; 0xe0e
     8a0:	842f2f2e 	strthi	r2, [pc], #-3886	; 8a8 <_start-0x7758>
     8a4:	4d2d2f4b 	stcmi	15, cr2, [sp, #-300]!	; 0xfffffed4
     8a8:	832f3031 	teqhi	pc, #49	; 0x31
     8ac:	01040200 	mrseq	r0, R12_usr
     8b0:	0200a22c 	andeq	sl, r0, #44, 4	; 0xc0000002
     8b4:	4a060104 	bmi	180ccc <__bss_end__+0x1723d4>
     8b8:	3602d806 	strcc	sp, [r2], -r6, lsl #16
     8bc:	d60e0316 			; <UNDEFINED> instruction: 0xd60e0316
     8c0:	f3302108 	vrhadd.u<illegal width 64>	d2, d0, d8
     8c4:	f330f331 	vcge.u<illegal width 64>	d15, d0, d17
     8c8:	f3304b30 			; <UNDEFINED> instruction: 0xf3304b30
     8cc:	31230830 	teqcc	r3, r0, lsr r8
     8d0:	0402002f 	streq	r0, [r2], #-47	; 0x2f
     8d4:	02006501 	andeq	r6, r0, #4194304	; 0x400000
     8d8:	4a060204 	bmi	1810f0 <__bss_end__+0x1727f8>
     8dc:	01040200 	mrseq	r0, R12_usr
     8e0:	66420306 	strbvs	r0, [r2], -r6, lsl #6
     8e4:	02040200 	andeq	r0, r4, #0, 4
     8e8:	03066606 	movweq	r6, #26118	; 0x6606
     8ec:	684a00c2 	stmdavs	sl, {r1, r6, r7}^
     8f0:	01001002 	tsteq	r0, r2
     8f4:	00009301 	andeq	r9, r0, r1, lsl #6
     8f8:	7d000200 	sfmvc	f0, 4, [r0, #-0]
     8fc:	02000000 	andeq	r0, r0, #0
     900:	0d0efb01 	vstreq	d15, [lr, #-4]
     904:	01010100 	mrseq	r0, (UNDEF: 17)
     908:	00000001 	andeq	r0, r0, r1
     90c:	01000001 	tsteq	r0, r1
     910:	34317363 	ldrtcc	r7, [r1], #-867	; 0x363
     914:	732d6530 	teqvc	sp, #48, 10	; 0xc000000
     918:	2f006372 	svccs	0x00006372
     91c:	72657355 	rsbvc	r7, r5, #1409286145	; 0x54000001
     920:	72622f73 	rsbvc	r2, r2, #460	; 0x1cc
     924:	6a6e6169 	bvs	1b98ed0 <__bss_end__+0x1b8a5d8>
     928:	442f6e75 	strtmi	r6, [pc], #-3701	; 930 <_start-0x76d0>
     92c:	746b7365 	strbtvc	r7, [fp], #-869	; 0x365
     930:	732f706f 	teqvc	pc, #111	; 0x6f
     934:	6f6f6863 	svcvs	0x006f6863
     938:	69572f6c 	ldmdbvs	r7, {r2, r3, r5, r6, r8, r9, sl, fp, sp}^
     93c:	7265746e 	rsbvc	r7, r5, #1845493760	; 0x6e000000
     940:	30323931 	eorscc	r3, r2, r1, lsr r9
     944:	3153432f 	cmpcc	r3, pc, lsr #6
     948:	2f453034 	svccs	0x00453034
     94c:	34317363 	ldrtcc	r7, [r1], #-867	; 0x363
     950:	322d6530 	eorcc	r6, sp, #48, 10	; 0xc000000
     954:	6e697730 	mcrvs	7, 3, r7, cr9, cr0, {1}
     958:	62696c2f 	rsbvs	r6, r9, #12032	; 0x2f00
     95c:	00006970 	andeq	r6, r0, r0, ror r9
     960:	61656c63 	cmnvs	r5, r3, ror #24
     964:	65722d6e 	ldrbvs	r2, [r2, #-3438]!	; 0xd6e
     968:	746f6f62 	strbtvc	r6, [pc], #-3938	; 970 <_start-0x7690>
     96c:	0100632e 	tsteq	r0, lr, lsr #6
     970:	70720000 	rsbsvc	r0, r2, r0
     974:	00682e69 	rsbeq	r2, r8, r9, ror #28
     978:	00000002 	andeq	r0, r0, r2
     97c:	80020500 	andhi	r0, r2, r0, lsl #10
     980:	1500008c 	strne	r0, [r0, #-140]	; 0x8c
     984:	024b832f 	subeq	r8, fp, #-1140850688	; 0xbc000000
     988:	01010006 	tsteq	r1, r6
     98c:	00000121 	andeq	r0, r0, r1, lsr #2
     990:	00f80002 	rscseq	r0, r8, r2
     994:	01020000 	mrseq	r0, (UNDEF: 2)
     998:	000d0efb 	strdeq	r0, [sp], -fp
     99c:	01010101 	tsteq	r1, r1, lsl #2
     9a0:	01000000 	mrseq	r0, (UNDEF: 0)
     9a4:	63010000 	movwvs	r0, #4096	; 0x1000
     9a8:	30343173 	eorscc	r3, r4, r3, ror r1
     9ac:	72732d65 	rsbsvc	r2, r3, #6464	; 0x1940
     9b0:	752f0063 	strvc	r0, [pc, #-99]!	; 955 <_start-0x76ab>
     9b4:	6c2f7273 	sfmvs	f7, 4, [pc], #-460	; 7f0 <_start-0x7810>
     9b8:	6c61636f 	stclvs	3, cr6, [r1], #-444	; 0xfffffe44
     9bc:	6c65432f 	stclvs	3, cr4, [r5], #-188	; 0xffffff44
     9c0:	2f72616c 	svccs	0x0072616c
     9c4:	2d6d7261 	sfmcs	f7, 2, [sp, #-388]!	; 0xfffffe7c
     9c8:	656e6f6e 	strbvs	r6, [lr, #-3950]!	; 0xf6e
     9cc:	6261652d 	rsbvs	r6, r1, #188743680	; 0xb400000
     9d0:	2e342f69 	cdpcs	15, 3, cr2, cr4, cr9, {3}
     9d4:	2d332e38 	ldccs	14, cr2, [r3, #-224]!	; 0xffffff20
     9d8:	37317363 	ldrcc	r7, [r1, -r3, ror #6]!
     9dc:	6c2f6530 	cfstr32vs	mvfx6, [pc], #-192	; 924 <_start-0x76dc>
     9e0:	672f6269 	strvs	r6, [pc, -r9, ror #4]!
     9e4:	612f6363 	teqvs	pc, r3, ror #6
     9e8:	6e2d6d72 	mcrvs	13, 1, r6, cr13, cr2, {3}
     9ec:	2d656e6f 	stclcs	14, cr6, [r5, #-444]!	; 0xfffffe44
     9f0:	69626165 	stmdbvs	r2!, {r0, r2, r5, r6, r8, sp, lr}^
     9f4:	382e342f 	stmdacc	lr!, {r0, r1, r2, r3, r5, sl, ip, sp}
     9f8:	692f332e 	stmdbvs	pc!, {r1, r2, r3, r5, r8, r9, ip, sp}	; <UNPREDICTABLE>
     9fc:	756c636e 	strbvc	r6, [ip, #-878]!	; 0x36e
     a00:	2f006564 	svccs	0x00006564
     a04:	72657355 	rsbvc	r7, r5, #1409286145	; 0x54000001
     a08:	72622f73 	rsbvc	r2, r2, #460	; 0x1cc
     a0c:	6a6e6169 	bvs	1b98fb8 <__bss_end__+0x1b8a6c0>
     a10:	442f6e75 	strtmi	r6, [pc], #-3701	; a18 <_start-0x75e8>
     a14:	746b7365 	strbtvc	r7, [fp], #-869	; 0x365
     a18:	732f706f 	teqvc	pc, #111	; 0x6f
     a1c:	6f6f6863 	svcvs	0x006f6863
     a20:	69572f6c 	ldmdbvs	r7, {r2, r3, r5, r6, r8, r9, sl, fp, sp}^
     a24:	7265746e 	rsbvc	r7, r5, #1845493760	; 0x6e000000
     a28:	30323931 	eorscc	r3, r2, r1, lsr r9
     a2c:	3153432f 	cmpcc	r3, pc, lsr #6
     a30:	2f453034 	svccs	0x00453034
     a34:	34317363 	ldrtcc	r7, [r1], #-867	; 0x363
     a38:	322d6530 	eorcc	r6, sp, #48, 10	; 0xc000000
     a3c:	6e697730 	mcrvs	7, 3, r7, cr9, cr0, {1}
     a40:	62696c2f 	rsbvs	r6, r9, #12032	; 0x2f00
     a44:	00006970 	andeq	r6, r0, r0, ror r9
     a48:	61747363 	cmnvs	r4, r3, ror #6
     a4c:	632e7472 	teqvs	lr, #1912602624	; 0x72000000
     a50:	00000100 	andeq	r0, r0, r0, lsl #2
     a54:	69647473 	stmdbvs	r4!, {r0, r1, r4, r5, r6, sl, ip, sp, lr}^
     a58:	672d746e 	strvs	r7, [sp, -lr, ror #8]!
     a5c:	682e6363 	stmdavs	lr!, {r0, r1, r5, r6, r8, r9, sp, lr}
     a60:	00000200 	andeq	r0, r0, r0, lsl #4
     a64:	752d7773 	strvc	r7, [sp, #-1907]!	; 0x773
     a68:	2e747261 	cdpcs	2, 7, cr7, cr4, cr1, {3}
     a6c:	00010068 	andeq	r0, r1, r8, rrx
     a70:	6e6f6300 	cdpvs	3, 6, cr6, cr15, cr0, {0}
     a74:	6c6f7274 	sfmvs	f7, 2, [pc], #-464	; 8ac <_start-0x7754>
     a78:	6f6c622d 	svcvs	0x006c622d
     a7c:	682e6b63 	stmdavs	lr!, {r0, r1, r5, r6, r8, r9, fp, sp, lr}
     a80:	00000100 	andeq	r0, r0, r0, lsl #2
     a84:	2e697072 	mcrcs	0, 3, r7, cr9, cr2, {3}
     a88:	00030068 	andeq	r0, r3, r8, rrx
     a8c:	05000000 	streq	r0, [r0, #-0]
     a90:	008ca802 	addeq	sl, ip, r2, lsl #16
     a94:	684b1700 	stmdavs	fp, {r8, r9, sl, ip}^
     a98:	2f313268 	svccs	0x00313268
     a9c:	02002f2d 	andeq	r2, r0, #45, 30	; 0xb4
     aa0:	4f490104 	svcmi	0x00490104
     aa4:	67674b2f 	strbvs	r4, [r7, -pc, lsr #22]!
     aa8:	2f4e6783 	svccs	0x004e6783
     aac:	01001002 	tsteq	r0, r2
     ab0:	00009901 	andeq	r9, r0, r1, lsl #18
     ab4:	77000200 	strvc	r0, [r0, -r0, lsl #4]
     ab8:	02000000 	andeq	r0, r0, #0
     abc:	0d0efb01 	vstreq	d15, [lr, #-4]
     ac0:	01010100 	mrseq	r0, (UNDEF: 17)
     ac4:	00000001 	andeq	r0, r0, r1
     ac8:	01000001 	tsteq	r0, r1
     acc:	34317363 	ldrtcc	r7, [r1], #-867	; 0x363
     ad0:	732d6530 	teqvc	sp, #48, 10	; 0xc000000
     ad4:	2f006372 	svccs	0x00006372
     ad8:	72657355 	rsbvc	r7, r5, #1409286145	; 0x54000001
     adc:	72622f73 	rsbvc	r2, r2, #460	; 0x1cc
     ae0:	6a6e6169 	bvs	1b9908c <__bss_end__+0x1b8a794>
     ae4:	442f6e75 	strtmi	r6, [pc], #-3701	; aec <_start-0x7514>
     ae8:	746b7365 	strbtvc	r7, [fp], #-869	; 0x365
     aec:	732f706f 	teqvc	pc, #111	; 0x6f
     af0:	6f6f6863 	svcvs	0x006f6863
     af4:	69572f6c 	ldmdbvs	r7, {r2, r3, r5, r6, r8, r9, sl, fp, sp}^
     af8:	7265746e 	rsbvc	r7, r5, #1845493760	; 0x6e000000
     afc:	30323931 	eorscc	r3, r2, r1, lsr r9
     b00:	3153432f 	cmpcc	r3, pc, lsr #6
     b04:	2f453034 	svccs	0x00453034
     b08:	34317363 	ldrtcc	r7, [r1], #-867	; 0x363
     b0c:	322d6530 	eorcc	r6, sp, #48, 10	; 0xc000000
     b10:	6e697730 	mcrvs	7, 3, r7, cr9, cr0, {1}
     b14:	62696c2f 	rsbvs	r6, r9, #12032	; 0x2f00
     b18:	00006970 	andeq	r6, r0, r0, ror r9
     b1c:	6f626572 	svcvs	0x00626572
     b20:	632e746f 	teqvs	lr, #1862270976	; 0x6f000000
     b24:	00000100 	andeq	r0, r0, r0, lsl #2
     b28:	2e697072 	mcrcs	0, 3, r7, cr9, cr2, {3}
     b2c:	00020068 	andeq	r0, r2, r8, rrx
     b30:	05000000 	streq	r0, [r0, #-0]
     b34:	008d5802 	addeq	r5, sp, r2, lsl #16
     b38:	010d0300 	mrseq	r0, SP_mon
     b3c:	852f3114 	strhi	r3, [pc, #-276]!	; a30 <_start-0x75d0>
     b40:	4d4b2f15 	stclmi	15, cr2, [fp, #-84]	; 0xffffffac
     b44:	5235672f 	eorspl	r6, r5, #12320768	; 0xbc0000
     b48:	00100267 	andseq	r0, r0, r7, ror #4
     b4c:	00a30101 	adceq	r0, r3, r1, lsl #2
     b50:	00020000 	andeq	r0, r2, r0
     b54:	00000076 	andeq	r0, r0, r6, ror r0
     b58:	0efb0102 	cdpeq	1, 15, cr0, cr11, cr2, {0}
     b5c:	0101000d 	tsteq	r1, sp
     b60:	00000101 	andeq	r0, r0, r1, lsl #2
     b64:	00000100 	andeq	r0, r0, r0, lsl #2
     b68:	31736301 	cmncc	r3, r1, lsl #6
     b6c:	2d653034 	stclcs	0, cr3, [r5, #-208]!	; 0xffffff30
     b70:	00637273 	rsbeq	r7, r3, r3, ror r2
     b74:	6573552f 	ldrbvs	r5, [r3, #-1327]!	; 0x52f
     b78:	622f7372 	eorvs	r7, pc, #-939524095	; 0xc8000001
     b7c:	6e616972 	mcrvs	9, 3, r6, cr1, cr2, {3}
     b80:	2f6e756a 	svccs	0x006e756a
     b84:	6b736544 	blvs	1cda09c <__bss_end__+0x1ccb7a4>
     b88:	2f706f74 	svccs	0x00706f74
     b8c:	6f686373 	svcvs	0x00686373
     b90:	572f6c6f 	strpl	r6, [pc, -pc, ror #24]!
     b94:	65746e69 	ldrbvs	r6, [r4, #-3689]!	; 0xe69
     b98:	32393172 	eorscc	r3, r9, #-2147483620	; 0x8000001c
     b9c:	53432f30 	movtpl	r2, #16176	; 0x3f30
     ba0:	45303431 	ldrmi	r3, [r0, #-1073]!	; 0x431
     ba4:	3173632f 	cmncc	r3, pc, lsr #6
     ba8:	2d653034 	stclcs	0, cr3, [r5, #-208]!	; 0xffffff30
     bac:	69773032 	ldmdbvs	r7!, {r1, r4, r5, ip, sp}^
     bb0:	696c2f6e 	stmdbvs	ip!, {r1, r2, r3, r5, r6, r8, r9, sl, fp, sp}^
     bb4:	00697062 	rsbeq	r7, r9, r2, rrx
     bb8:	6d697400 	cfstrdvs	mvd7, [r9, #-0]
     bbc:	632e7265 	teqvs	lr, #1342177286	; 0x50000006
     bc0:	00000100 	andeq	r0, r0, r0, lsl #2
     bc4:	2e697072 	mcrcs	0, 3, r7, cr9, cr2, {3}
     bc8:	00020068 	andeq	r0, r2, r8, rrx
     bcc:	05000000 	streq	r0, [r0, #-0]
     bd0:	008dcc02 	addeq	ip, sp, r2, lsl #24
     bd4:	2f131600 	svccs	0x00131600
     bd8:	0402002d 	streq	r0, [r2], #-45	; 0x2d
     bdc:	062e0601 	strteq	r0, [lr], -r1, lsl #12
     be0:	4b2f3168 	blmi	bcd188 <__bss_end__+0xbbe890>
     be4:	3031324d 	eorscc	r3, r1, sp, asr #4
     be8:	6a2f4c4b 	bvs	bd3d1c <__bss_end__+0xbc5424>
     bec:	2f842f2f 	svccs	0x00842f2f
     bf0:	01000802 	tsteq	r0, r2, lsl #16
     bf4:	00018801 	andeq	r8, r1, r1, lsl #16
     bf8:	ca000200 	bgt	1400 <_start-0x6c00>
     bfc:	02000000 	andeq	r0, r0, #0
     c00:	0d0efb01 	vstreq	d15, [lr, #-4]
     c04:	01010100 	mrseq	r0, (UNDEF: 17)
     c08:	00000001 	andeq	r0, r0, r1
     c0c:	01000001 	tsteq	r0, r1
     c10:	732d796d 	teqvc	sp, #1785856	; 0x1b4000
     c14:	2f006372 	svccs	0x00006372
     c18:	72657355 	rsbvc	r7, r5, #1409286145	; 0x54000001
     c1c:	72622f73 	rsbvc	r2, r2, #460	; 0x1cc
     c20:	6a6e6169 	bvs	1b991cc <__bss_end__+0x1b8a8d4>
     c24:	442f6e75 	strtmi	r6, [pc], #-3701	; c2c <_start-0x73d4>
     c28:	746b7365 	strbtvc	r7, [fp], #-869	; 0x365
     c2c:	732f706f 	teqvc	pc, #111	; 0x6f
     c30:	6f6f6863 	svcvs	0x006f6863
     c34:	69572f6c 	ldmdbvs	r7, {r2, r3, r5, r6, r8, r9, sl, fp, sp}^
     c38:	7265746e 	rsbvc	r7, r5, #1845493760	; 0x6e000000
     c3c:	30323931 	eorscc	r3, r2, r1, lsr r9
     c40:	3153432f 	cmpcc	r3, pc, lsr #6
     c44:	2f453034 	svccs	0x00453034
     c48:	34317363 	ldrtcc	r7, [r1], #-867	; 0x363
     c4c:	322d6530 	eorcc	r6, sp, #48, 10	; 0xc000000
     c50:	6e697730 	mcrvs	7, 3, r7, cr9, cr0, {1}
     c54:	62696c2f 	rsbvs	r6, r9, #12032	; 0x2f00
     c58:	632f6970 	teqvs	pc, #112, 18	; 0x1c0000
     c5c:	30343173 	eorscc	r3, r4, r3, ror r1
     c60:	72732d65 	rsbsvc	r2, r3, #6464	; 0x1940
     c64:	552f0063 	strpl	r0, [pc, #-99]!	; c09 <_start-0x73f7>
     c68:	73726573 	cmnvc	r2, #482344960	; 0x1cc00000
     c6c:	6972622f 	ldmdbvs	r2!, {r0, r1, r2, r3, r5, r9, sp, lr}^
     c70:	756a6e61 	strbvc	r6, [sl, #-3681]!	; 0xe61
     c74:	65442f6e 	strbvs	r2, [r4, #-3950]	; 0xf6e
     c78:	6f746b73 	svcvs	0x00746b73
     c7c:	63732f70 	cmnvs	r3, #112, 30	; 0x1c0
     c80:	6c6f6f68 	stclvs	15, cr6, [pc], #-416	; ae8 <_start-0x7518>
     c84:	6e69572f 	cdpvs	7, 6, cr5, cr9, cr15, {1}
     c88:	31726574 	cmncc	r2, r4, ror r5
     c8c:	2f303239 	svccs	0x00303239
     c90:	34315343 	ldrtcc	r5, [r1], #-835	; 0x343
     c94:	632f4530 	teqvs	pc, #48, 10	; 0xc000000
     c98:	30343173 	eorscc	r3, r4, r3, ror r1
     c9c:	30322d65 	eorscc	r2, r2, r5, ror #26
     ca0:	2f6e6977 	svccs	0x006e6977
     ca4:	7062696c 	rsbvc	r6, r2, ip, ror #18
     ca8:	67000069 	strvs	r0, [r0, -r9, rrx]
     cac:	2e6f6970 	mcrcs	9, 3, r6, cr15, cr0, {3}
     cb0:	00010063 	andeq	r0, r1, r3, rrx
     cb4:	69706700 	ldmdbvs	r0!, {r8, r9, sl, sp, lr}^
     cb8:	00682e6f 	rsbeq	r2, r8, pc, ror #28
     cbc:	72000002 	andvc	r0, r0, #2
     cc0:	682e6970 	stmdavs	lr!, {r4, r5, r6, r8, fp, sp, lr}
     cc4:	00000300 	andeq	r0, r0, r0, lsl #6
     cc8:	02050000 	andeq	r0, r5, #0
     ccc:	00008e54 	andeq	r8, r0, r4, asr lr
     cd0:	4e013e03 	cdpmi	14, 0, cr3, cr1, cr3, {0}
     cd4:	21086950 	tstcs	r8, r0, asr r9
     cd8:	67676767 	strbvs	r6, [r7, -r7, ror #14]!
     cdc:	4b326767 	blmi	c9aa80 <__bss_end__+0xc8c188>
     ce0:	31dc2208 	bicscc	r2, ip, r8, lsl #4
     ce4:	504e1351 	subpl	r1, lr, r1, asr r3
     ce8:	5031be30 	eorspl	fp, r1, r0, lsr lr
     cec:	304f4d13 	subcc	r4, pc, r3, lsl sp	; <UNPREDICTABLE>
     cf0:	69504cc0 	ldmdbvs	r0, {r6, r7, sl, fp, lr}^
     cf4:	67672108 	strbvs	r2, [r7, -r8, lsl #2]!
     cf8:	67676767 	strbvs	r6, [r7, -r7, ror #14]!
     cfc:	21084b32 	tstcs	r8, r2, lsr fp
     d00:	2f504ca4 	svccs	0x00504ca4
     d04:	75036984 	strvc	r6, [r3, #-2436]	; 0x984
     d08:	2e0c0382 	cdpcs	3, 0, cr0, cr12, cr2, {4}
     d0c:	034e304d 	movteq	r3, #57421	; 0xe04d
     d10:	514a7f98 			; <UNDEFINED> instruction: 0x514a7f98
     d14:	30504e13 	subscc	r4, r0, r3, lsl lr
     d18:	4d1350a5 	ldcmi	0, cr5, [r3, #-660]	; 0xfffffd6c
     d1c:	c203304f 	andgt	r3, r3, #79	; 0x4f
     d20:	6b6aba00 	blvs	1aaf528 <__bss_end__+0x1aa0c30>
     d24:	67210869 	strvs	r0, [r1, -r9, ror #16]!
     d28:	67676767 	strbvs	r6, [r7, -r7, ror #14]!
     d2c:	084b3267 	stmdaeq	fp, {r0, r1, r2, r5, r6, r9, ip, sp}^
     d30:	ba1a0322 	blt	6819c0 <__bss_end__+0x6730c8>
     d34:	2f4c9f31 	svccs	0x004c9f31
     d38:	2f4e4d52 	svccs	0x004e4d52
     d3c:	684b674b 	stmdavs	fp, {r0, r1, r3, r6, r8, r9, sl, sp, lr}^
     d40:	2f4c6767 	svccs	0x004c6767
     d44:	6e4b2f67 	cdpvs	15, 4, cr2, cr11, cr7, {3}
     d48:	4b2f4e4c 	blmi	bd4680 <__bss_end__+0xbc5d88>
     d4c:	67684b67 	strbvs	r4, [r8, -r7, ror #22]!
     d50:	672f4c67 	strvs	r4, [pc, -r7, ror #24]!
     d54:	4b6d4b2f 	blmi	1b53a18 <__bss_end__+0x1b45120>
     d58:	674b2f4e 	strbvs	r2, [fp, -lr, asr #30]
     d5c:	01040200 	mrseq	r0, R12_usr
     d60:	68066606 	stmdavs	r6, {r1, r2, r9, sl, sp, lr}
     d64:	02002f9f 	andeq	r2, r0, #636	; 0x27c
     d68:	4a060104 	bmi	181180 <__bss_end__+0x172888>
     d6c:	032f6806 	teqeq	pc, #393216	; 0x60000
     d70:	0e034a73 	mcreq	10, 0, r4, cr3, cr3, {3}
     d74:	4e4c4d2e 	cdpmi	13, 4, cr4, cr12, cr14, {1}
     d78:	bcbc4b2f 	fldmiaxlt	ip!, {d4-d26}	;@ Deprecated
     d7c:	01000602 	tsteq	r0, r2, lsl #12
     d80:	00034501 	andeq	r4, r3, r1, lsl #10
     d84:	bd000200 	sfmlt	f0, 4, [r0, #-0]
     d88:	02000001 	andeq	r0, r0, #1
     d8c:	0d0efb01 	vstreq	d15, [lr, #-4]
     d90:	01010100 	mrseq	r0, (UNDEF: 17)
     d94:	00000001 	andeq	r0, r0, r1
     d98:	01000001 	tsteq	r0, r1
     d9c:	732d796d 	teqvc	sp, #1785856	; 0x1b4000
     da0:	2f006372 	svccs	0x00006372
     da4:	72657355 	rsbvc	r7, r5, #1409286145	; 0x54000001
     da8:	72622f73 	rsbvc	r2, r2, #460	; 0x1cc
     dac:	6a6e6169 	bvs	1b99358 <__bss_end__+0x1b8aa60>
     db0:	442f6e75 	strtmi	r6, [pc], #-3701	; db8 <_start-0x7248>
     db4:	746b7365 	strbtvc	r7, [fp], #-869	; 0x365
     db8:	732f706f 	teqvc	pc, #111	; 0x6f
     dbc:	6f6f6863 	svcvs	0x006f6863
     dc0:	69572f6c 	ldmdbvs	r7, {r2, r3, r5, r6, r8, r9, sl, fp, sp}^
     dc4:	7265746e 	rsbvc	r7, r5, #1845493760	; 0x6e000000
     dc8:	30323931 	eorscc	r3, r2, r1, lsr r9
     dcc:	3153432f 	cmpcc	r3, pc, lsr #6
     dd0:	2f453034 	svccs	0x00453034
     dd4:	34317363 	ldrtcc	r7, [r1], #-867	; 0x363
     dd8:	322d6530 	eorcc	r6, sp, #48, 10	; 0xc000000
     ddc:	6e697730 	mcrvs	7, 3, r7, cr9, cr0, {1}
     de0:	62696c2f 	rsbvs	r6, r9, #12032	; 0x2f00
     de4:	632f6970 	teqvs	pc, #112, 18	; 0x1c0000
     de8:	30343173 	eorscc	r3, r4, r3, ror r1
     dec:	72732d65 	rsbsvc	r2, r3, #6464	; 0x1940
     df0:	752f0063 	strvc	r0, [pc, #-99]!	; d95 <_start-0x726b>
     df4:	6c2f7273 	sfmvs	f7, 4, [pc], #-460	; c30 <_start-0x73d0>
     df8:	6c61636f 	stclvs	3, cr6, [r1], #-444	; 0xfffffe44
     dfc:	6c65432f 	stclvs	3, cr4, [r5], #-188	; 0xffffff44
     e00:	2f72616c 	svccs	0x0072616c
     e04:	2d6d7261 	sfmcs	f7, 2, [sp, #-388]!	; 0xfffffe7c
     e08:	656e6f6e 	strbvs	r6, [lr, #-3950]!	; 0xf6e
     e0c:	6261652d 	rsbvs	r6, r1, #188743680	; 0xb400000
     e10:	2e342f69 	cdpcs	15, 3, cr2, cr4, cr9, {3}
     e14:	2d332e38 	ldccs	14, cr2, [r3, #-224]!	; 0xffffff20
     e18:	37317363 	ldrcc	r7, [r1, -r3, ror #6]!
     e1c:	6c2f6530 	cfstr32vs	mvfx6, [pc], #-192	; d64 <_start-0x729c>
     e20:	672f6269 	strvs	r6, [pc, -r9, ror #4]!
     e24:	612f6363 	teqvs	pc, r3, ror #6
     e28:	6e2d6d72 	mcrvs	13, 1, r6, cr13, cr2, {3}
     e2c:	2d656e6f 	stclcs	14, cr6, [r5, #-444]!	; 0xfffffe44
     e30:	69626165 	stmdbvs	r2!, {r0, r2, r5, r6, r8, sp, lr}^
     e34:	382e342f 	stmdacc	lr!, {r0, r1, r2, r3, r5, sl, ip, sp}
     e38:	692f332e 	stmdbvs	pc!, {r1, r2, r3, r5, r8, r9, ip, sp}	; <UNPREDICTABLE>
     e3c:	756c636e 	strbvc	r6, [ip, #-878]!	; 0x36e
     e40:	2f006564 	svccs	0x00006564
     e44:	72657355 	rsbvc	r7, r5, #1409286145	; 0x54000001
     e48:	72622f73 	rsbvc	r2, r2, #460	; 0x1cc
     e4c:	6a6e6169 	bvs	1b993f8 <__bss_end__+0x1b8ab00>
     e50:	442f6e75 	strtmi	r6, [pc], #-3701	; e58 <_start-0x71a8>
     e54:	746b7365 	strbtvc	r7, [fp], #-869	; 0x365
     e58:	732f706f 	teqvc	pc, #111	; 0x6f
     e5c:	6f6f6863 	svcvs	0x006f6863
     e60:	69572f6c 	ldmdbvs	r7, {r2, r3, r5, r6, r8, r9, sl, fp, sp}^
     e64:	7265746e 	rsbvc	r7, r5, #1845493760	; 0x6e000000
     e68:	30323931 	eorscc	r3, r2, r1, lsr r9
     e6c:	3153432f 	cmpcc	r3, pc, lsr #6
     e70:	2f453034 	svccs	0x00453034
     e74:	34317363 	ldrtcc	r7, [r1], #-867	; 0x363
     e78:	322d6530 	eorcc	r6, sp, #48, 10	; 0xc000000
     e7c:	6e697730 	mcrvs	7, 3, r7, cr9, cr0, {1}
     e80:	62696c2f 	rsbvs	r6, r9, #12032	; 0x2f00
     e84:	2f006970 	svccs	0x00006970
     e88:	72657355 	rsbvc	r7, r5, #1409286145	; 0x54000001
     e8c:	72622f73 	rsbvc	r2, r2, #460	; 0x1cc
     e90:	6a6e6169 	bvs	1b9943c <__bss_end__+0x1b8ab44>
     e94:	442f6e75 	strtmi	r6, [pc], #-3701	; e9c <_start-0x7164>
     e98:	746b7365 	strbtvc	r7, [fp], #-869	; 0x365
     e9c:	732f706f 	teqvc	pc, #111	; 0x6f
     ea0:	6f6f6863 	svcvs	0x006f6863
     ea4:	69572f6c 	ldmdbvs	r7, {r2, r3, r5, r6, r8, r9, sl, fp, sp}^
     ea8:	7265746e 	rsbvc	r7, r5, #1845493760	; 0x6e000000
     eac:	30323931 	eorscc	r3, r2, r1, lsr r9
     eb0:	3153432f 	cmpcc	r3, pc, lsr #6
     eb4:	2f453034 	svccs	0x00453034
     eb8:	34317363 	ldrtcc	r7, [r1], #-867	; 0x363
     ebc:	322d6530 	eorcc	r6, sp, #48, 10	; 0xc000000
     ec0:	6e697730 	mcrvs	7, 3, r7, cr9, cr0, {1}
     ec4:	62696c2f 	rsbvs	r6, r9, #12032	; 0x2f00
     ec8:	6c2f6970 	stcvs	9, cr6, [pc], #-448	; d10 <_start-0x72f0>
     ecc:	00636269 	rsbeq	r6, r3, r9, ror #4
     ed0:	2d777300 	ldclcs	3, cr7, [r7, #-0]
     ed4:	74726175 	ldrbtvc	r6, [r2], #-373	; 0x175
     ed8:	0100632e 	tsteq	r0, lr, lsr #6
     edc:	79630000 	stmdbvc	r3!, {}^	; <UNPREDICTABLE>
     ee0:	2d656c63 	stclcs	12, cr6, [r5, #-396]!	; 0xfffffe74
     ee4:	6c697475 	cfstrdvs	mvd7, [r9], #-468	; 0xfffffe2c
     ee8:	0200682e 	andeq	r6, r0, #3014656	; 0x2e0000
     eec:	74730000 	ldrbtvc	r0, [r3], #-0
     ef0:	746e6964 	strbtvc	r6, [lr], #-2404	; 0x964
     ef4:	6363672d 	cmnvs	r3, #11796480	; 0xb40000
     ef8:	0300682e 	movweq	r6, #2094	; 0x82e
     efc:	77730000 	ldrbvc	r0, [r3, -r0]!
     f00:	7261752d 	rsbvc	r7, r1, #188743680	; 0xb400000
     f04:	00682e74 	rsbeq	r2, r8, r4, ror lr
     f08:	73000002 	movwvc	r0, #2
     f0c:	72616474 	rsbvc	r6, r1, #116, 8	; 0x74000000
     f10:	00682e67 	rsbeq	r2, r8, r7, ror #28
     f14:	67000003 	strvs	r0, [r0, -r3]
     f18:	2e6f6970 	mcrcs	9, 3, r6, cr15, cr0, {3}
     f1c:	00020068 	andeq	r0, r2, r8, rrx
     f20:	69707200 	ldmdbvs	r0!, {r9, ip, sp, lr}^
     f24:	0400682e 	streq	r6, [r0], #-2094	; 0x82e
     f28:	61760000 	cmnvs	r6, r0
     f2c:	6972702d 	ldmdbvs	r2!, {r0, r2, r3, r5, ip, sp, lr}^
     f30:	2e6b746e 	cdpcs	4, 6, cr7, cr11, cr14, {3}
     f34:	00050068 	andeq	r0, r5, r8, rrx
     f38:	75623c00 	strbvc	r3, [r2, #-3072]!	; 0xc00
     f3c:	2d746c69 	ldclcs	12, cr6, [r4, #-420]!	; 0xfffffe5c
     f40:	003e6e69 	eorseq	r6, lr, r9, ror #28
     f44:	00000000 	andeq	r0, r0, r0
     f48:	10020500 	andne	r0, r2, r0, lsl #10
     f4c:	1a000094 	bne	11a4 <_start-0x6e5c>
     f50:	04302f4c 	ldrteq	r2, [r0], #-3916	; 0xf4c
     f54:	2e0b0302 	cdpcs	3, 0, cr0, cr11, cr2, {0}
     f58:	04667303 	strbteq	r7, [r6], #-771	; 0x303
     f5c:	02048801 	andeq	r8, r4, #65536	; 0x10000
     f60:	66730335 			; <UNDEFINED> instruction: 0x66730335
     f64:	048a0104 	streq	r0, [sl], #260	; 0x104
     f68:	73033302 	movwvc	r3, #13058	; 0x3302
     f6c:	03010466 	movweq	r0, #5222	; 0x1466
     f70:	0204820a 	andeq	r8, r4, #-1610612736	; 0xa0000000
     f74:	66730331 			; <UNDEFINED> instruction: 0x66730331
     f78:	0c030104 	stfeqs	f0, [r3], {4}
     f7c:	2f020482 	svccs	0x00020482
     f80:	04667303 	strbteq	r7, [r6], #-771	; 0x303
     f84:	820e0301 	andhi	r0, lr, #67108864	; 0x4000000
     f88:	032d0204 	teqeq	sp, #4, 4	; 0x40000000
     f8c:	01046673 	tsteq	r4, r3, ror r6
     f90:	04821003 	streq	r1, [r2], #3
     f94:	73032b02 	movwvc	r2, #15106	; 0x3b02
     f98:	03010466 	movweq	r0, #5222	; 0x1466
     f9c:	02048212 	andeq	r8, r4, #536870913	; 0x20000001
     fa0:	66730329 	ldrbtvs	r0, [r3], -r9, lsr #6
     fa4:	14030104 	strne	r0, [r3], #-260	; 0x104
     fa8:	03020482 	movweq	r0, #9346	; 0x2482
     fac:	73032e79 	movwvc	r2, #15993	; 0x3e79
     fb0:	03010466 	movweq	r0, #5222	; 0x1466
     fb4:	02048216 	andeq	r8, r4, #1610612737	; 0x60000001
     fb8:	032e7703 	teqeq	lr, #786432	; 0xc0000
     fbc:	01046673 	tsteq	r4, r3, ror r6
     fc0:	03821803 	orreq	r1, r2, #196608	; 0x30000
     fc4:	4d4b2e10 	stclmi	14, cr2, [fp, #-64]	; 0xffffffc0
     fc8:	4c2e7003 	stcmi	0, cr7, [lr], #-12
     fcc:	03488384 	movteq	r8, #33668	; 0x8384
     fd0:	314e2e0d 	cmpcc	lr, sp, lsl #28
     fd4:	03020433 	movweq	r0, #9267	; 0x2433
     fd8:	01042e48 	tsteq	r4, r8, asr #28
     fdc:	2f823a03 	svccs	0x00823a03
     fe0:	45030204 	strmi	r0, [r3, #-516]	; 0x204
     fe4:	03010466 	movweq	r0, #5222	; 0x1466
     fe8:	042f823d 	strteq	r8, [pc], #-573	; ff0 <_start-0x7010>
     fec:	82420302 	subhi	r0, r2, #134217728	; 0x8000000
     ff0:	c0030104 	andgt	r0, r3, r4, lsl #2
     ff4:	042f8200 	strteq	r8, [pc], #-512	; ffc <_start-0x7004>
     ff8:	7fbf0302 	svcvc	0x00bf0302
     ffc:	03010482 	movweq	r0, #5250	; 0x1482
    1000:	2f8200c3 	svccs	0x008200c3
    1004:	bc030204 	sfmlt	f0, 4, [r3], {4}
    1008:	0104827f 	tsteq	r4, pc, ror r2
    100c:	8200c603 	andhi	ip, r0, #3145728	; 0x300000
    1010:	0302042f 	movweq	r0, #9263	; 0x242f
    1014:	04827fb9 	streq	r7, [r2], #4025	; 0xfb9
    1018:	00c90301 	sbceq	r0, r9, r1, lsl #6
    101c:	02042f82 	andeq	r2, r4, #520	; 0x208
    1020:	827fb603 	rsbshi	fp, pc, #3145728	; 0x300000
    1024:	cc030104 	stfgts	f0, [r3], {4}
    1028:	042f8200 	strteq	r8, [pc], #-512	; 1030 <_start-0x6fd0>
    102c:	7fb30302 	svcvc	0x00b30302
    1030:	03010482 	movweq	r0, #5250	; 0x1482
    1034:	038200d0 	orreq	r0, r2, #208	; 0xd0
    1038:	844c824c 	strbhi	r8, [ip], #-588	; 0x24c
    103c:	36034883 	strcc	r4, [r3], -r3, lsl #17
    1040:	54034e2e 	strpl	r4, [r3], #-3630	; 0xe2e
    1044:	4a29034a 	bmi	a41d74 <__bss_end__+0xa3347c>
    1048:	009f3432 	addseq	r3, pc, r2, lsr r4	; <UNPREDICTABLE>
    104c:	06010402 	streq	r0, [r1], -r2, lsl #8
    1050:	4ed7064a 	cdpmi	6, 13, cr0, cr7, cr10, {2}
    1054:	002cbb4b 	eoreq	fp, ip, fp, asr #22
    1058:	06010402 	streq	r0, [r1], -r2, lsl #8
    105c:	4c6d062e 	stclmi	6, cr0, [sp], #-184	; 0xffffff48
    1060:	020084a4 	andeq	r8, r0, #164, 8	; 0xa4000000
    1064:	4a060104 	bmi	18147c <__bss_end__+0x172b84>
    1068:	004dd706 	subeq	sp, sp, r6, lsl #14
    106c:	4b020402 	blmi	8207c <__bss_end__+0x73784>
    1070:	02040200 	andeq	r0, r4, #0, 4
    1074:	04020081 	streq	r0, [r2], #-129	; 0x81
    1078:	062e0601 	strteq	r0, [lr], -r1, lsl #12
    107c:	bca54c4d 	stclt	12, cr4, [r5], #308	; 0x134
    1080:	6a4b4b4b 	bvs	12d3db4 <__bss_end__+0x12c54bc>
    1084:	0402002f 	streq	r0, [r2], #-47	; 0x2f
    1088:	82820601 	addhi	r0, r2, #1048576	; 0x100000
    108c:	04040200 	streq	r0, [r4], #-512	; 0x200
    1090:	0402009e 	streq	r0, [r2], #-158	; 0x9e
    1094:	d9064a01 	stmdble	r6, {r0, r9, fp, lr}
    1098:	4b2fbd88 	blmi	bf06c0 <__bss_end__+0xbe1dc8>
    109c:	6740084b 	strbvs	r0, [r0, -fp, asr #16]
    10a0:	02040200 	andeq	r0, r4, #0, 4
    10a4:	0402002f 	streq	r0, [r2], #-47	; 0x2f
    10a8:	02004902 	andeq	r4, r0, #32768	; 0x8000
    10ac:	2e060104 	adfcss	f0, f6, f4
    10b0:	86346806 	ldrthi	r6, [r4], -r6, lsl #16
    10b4:	0200a04b 	andeq	sl, r0, #75	; 0x4b
    10b8:	66060104 	strvs	r0, [r6], -r4, lsl #2
    10bc:	0868d706 	stmdaeq	r8!, {r1, r2, r8, r9, sl, ip, lr, pc}^
    10c0:	4b674b22 	blmi	19d3d50 <__bss_end__+0x19c5458>
    10c4:	000a02d8 	ldrdeq	r0, [sl], -r8
    10c8:	01010101 	tsteq	r1, r1, lsl #2
    10cc:	00020000 	andeq	r0, r2, r0
    10d0:	000000ca 	andeq	r0, r0, sl, asr #1
    10d4:	0efb0102 	cdpeq	1, 15, cr0, cr11, cr2, {0}
    10d8:	0101000d 	tsteq	r1, sp
    10dc:	00000101 	andeq	r0, r0, r1, lsl #2
    10e0:	00000100 	andeq	r0, r0, r0, lsl #2
    10e4:	2d796d01 	ldclcs	13, cr6, [r9, #-4]!
    10e8:	00637273 	rsbeq	r7, r3, r3, ror r2
    10ec:	6573552f 	ldrbvs	r5, [r3, #-1327]!	; 0x52f
    10f0:	622f7372 	eorvs	r7, pc, #-939524095	; 0xc8000001
    10f4:	6e616972 	mcrvs	9, 3, r6, cr1, cr2, {3}
    10f8:	2f6e756a 	svccs	0x006e756a
    10fc:	6b736544 	blvs	1cda614 <__bss_end__+0x1ccbd1c>
    1100:	2f706f74 	svccs	0x00706f74
    1104:	6f686373 	svcvs	0x00686373
    1108:	572f6c6f 	strpl	r6, [pc, -pc, ror #24]!
    110c:	65746e69 	ldrbvs	r6, [r4, #-3689]!	; 0xe69
    1110:	32393172 	eorscc	r3, r9, #-2147483620	; 0x8000001c
    1114:	53432f30 	movtpl	r2, #16176	; 0x3f30
    1118:	45303431 	ldrmi	r3, [r0, #-1073]!	; 0x431
    111c:	3173632f 	cmncc	r3, pc, lsr #6
    1120:	2d653034 	stclcs	0, cr3, [r5, #-208]!	; 0xffffff30
    1124:	69773032 	ldmdbvs	r7!, {r1, r4, r5, ip, sp}^
    1128:	696c2f6e 	stmdbvs	ip!, {r1, r2, r3, r5, r6, r8, r9, sl, fp, sp}^
    112c:	2f697062 	svccs	0x00697062
    1130:	34317363 	ldrtcc	r7, [r1], #-867	; 0x363
    1134:	732d6530 	teqvc	sp, #48, 10	; 0xc000000
    1138:	2f006372 	svccs	0x00006372
    113c:	72657355 	rsbvc	r7, r5, #1409286145	; 0x54000001
    1140:	72622f73 	rsbvc	r2, r2, #460	; 0x1cc
    1144:	6a6e6169 	bvs	1b996f0 <__bss_end__+0x1b8adf8>
    1148:	442f6e75 	strtmi	r6, [pc], #-3701	; 1150 <_start-0x6eb0>
    114c:	746b7365 	strbtvc	r7, [fp], #-869	; 0x365
    1150:	732f706f 	teqvc	pc, #111	; 0x6f
    1154:	6f6f6863 	svcvs	0x006f6863
    1158:	69572f6c 	ldmdbvs	r7, {r2, r3, r5, r6, r8, r9, sl, fp, sp}^
    115c:	7265746e 	rsbvc	r7, r5, #1845493760	; 0x6e000000
    1160:	30323931 	eorscc	r3, r2, r1, lsr r9
    1164:	3153432f 	cmpcc	r3, pc, lsr #6
    1168:	2f453034 	svccs	0x00453034
    116c:	34317363 	ldrtcc	r7, [r1], #-867	; 0x363
    1170:	322d6530 	eorcc	r6, sp, #48, 10	; 0xc000000
    1174:	6e697730 	mcrvs	7, 3, r7, cr9, cr0, {1}
    1178:	62696c2f 	rsbvs	r6, r9, #12032	; 0x2f00
    117c:	00006970 	andeq	r6, r0, r0, ror r9
    1180:	74726175 	ldrbtvc	r6, [r2], #-373	; 0x175
    1184:	0100632e 	tsteq	r0, lr, lsr #6
    1188:	70670000 	rsbvc	r0, r7, r0
    118c:	682e6f69 	stmdavs	lr!, {r0, r3, r5, r6, r8, r9, sl, fp, sp, lr}
    1190:	00000200 	andeq	r0, r0, r0, lsl #4
    1194:	2e697072 	mcrcs	0, 3, r7, cr9, cr2, {3}
    1198:	00030068 	andeq	r0, r3, r8, rrx
    119c:	05000000 	streq	r0, [r0, #-0]
    11a0:	009a3002 	addseq	r3, sl, r2
    11a4:	01360300 	teqeq	r6, r0, lsl #6
    11a8:	6d673330 	stclvs	3, cr3, [r7, #-192]!	; 0xffffff40
    11ac:	6730d830 			; <UNDEFINED> instruction: 0x6730d830
    11b0:	67676767 	strbvs	r6, [r7, -r7, ror #14]!
    11b4:	672f8668 	strvs	r8, [pc, -r8, ror #12]!
    11b8:	6767306a 	strbvs	r3, [r7, -sl, rrx]!
    11bc:	6a672f69 	bvs	19ccf68 <__bss_end__+0x19be670>
    11c0:	2fc1674c 	svccs	0x00c1674c
    11c4:	682f302f 	stmdavs	pc!, {r0, r1, r2, r3, r5, ip, sp}	; <UNPREDICTABLE>
    11c8:	02023049 	andeq	r3, r2, #73	; 0x49
    11cc:	d6010100 	strle	r0, [r1], -r0, lsl #2
    11d0:	02000000 	andeq	r0, r0, #0
    11d4:	00009700 	andeq	r9, r0, r0, lsl #14
    11d8:	fb010200 	blx	419e2 <__bss_end__+0x330ea>
    11dc:	01000d0e 	tsteq	r0, lr, lsl #26
    11e0:	00010101 	andeq	r0, r1, r1, lsl #2
    11e4:	00010000 	andeq	r0, r1, r0
    11e8:	73630100 	cmnvc	r3, #0, 2
    11ec:	65303431 	ldrvs	r3, [r0, #-1073]!	; 0x431
    11f0:	746e692d 	strbtvc	r6, [lr], #-2349	; 0x92d
    11f4:	75727265 	ldrbvc	r7, [r2, #-613]!	; 0x265
    11f8:	2f007470 	svccs	0x00007470
    11fc:	72657355 	rsbvc	r7, r5, #1409286145	; 0x54000001
    1200:	72622f73 	rsbvc	r2, r2, #460	; 0x1cc
    1204:	6a6e6169 	bvs	1b997b0 <__bss_end__+0x1b8aeb8>
    1208:	442f6e75 	strtmi	r6, [pc], #-3701	; 1210 <_start-0x6df0>
    120c:	746b7365 	strbtvc	r7, [fp], #-869	; 0x365
    1210:	732f706f 	teqvc	pc, #111	; 0x6f
    1214:	6f6f6863 	svcvs	0x006f6863
    1218:	69572f6c 	ldmdbvs	r7, {r2, r3, r5, r6, r8, r9, sl, fp, sp}^
    121c:	7265746e 	rsbvc	r7, r5, #1845493760	; 0x6e000000
    1220:	30323931 	eorscc	r3, r2, r1, lsr r9
    1224:	3153432f 	cmpcc	r3, pc, lsr #6
    1228:	2f453034 	svccs	0x00453034
    122c:	34317363 	ldrtcc	r7, [r1], #-867	; 0x363
    1230:	322d6530 	eorcc	r6, sp, #48, 10	; 0xc000000
    1234:	6e697730 	mcrvs	7, 3, r7, cr9, cr0, {1}
    1238:	62696c2f 	rsbvs	r6, r9, #12032	; 0x2f00
    123c:	00006970 	andeq	r6, r0, r0, ror r9
    1240:	65746e69 	ldrbvs	r6, [r4, #-3689]!	; 0xe69
    1244:	70757272 	rsbsvc	r7, r5, r2, ror r2
    1248:	632d7374 	teqvs	sp, #116, 6	; 0xd0000001
    124c:	0100632e 	tsteq	r0, lr, lsr #6
    1250:	70720000 	rsbsvc	r0, r2, r0
    1254:	00682e69 	rsbeq	r2, r8, r9, ror #28
    1258:	72000002 	andvc	r0, r0, #2
    125c:	692d6970 	pushvs	{r4, r5, r6, r8, fp, sp, lr}
    1260:	7265746e 	rsbvc	r7, r5, #1845493760	; 0x6e000000
    1264:	74707572 	ldrbtvc	r7, [r0], #-1394	; 0x572
    1268:	00682e73 	rsbeq	r2, r8, r3, ror lr
    126c:	00000001 	andeq	r0, r0, r1
    1270:	84020500 	strhi	r0, [r2], #-1280	; 0x500
    1274:	1600009b 			; <UNDEFINED> instruction: 0x1600009b
    1278:	03676731 	cmneq	r7, #12845056	; 0xc40000
    127c:	2f832e0e 	svccs	0x00832e0e
    1280:	0402002d 	streq	r0, [r2], #-45	; 0x2d
    1284:	02002f02 	andeq	r2, r0, #2, 30
    1288:	00650204 	rsbeq	r0, r5, r4, lsl #4
    128c:	06010402 	streq	r0, [r1], -r2, lsl #8
    1290:	a24c062e 	subge	r0, ip, #48234496	; 0x2e00000
    1294:	67b00867 	ldrvs	r0, [r0, r7, ror #16]!
    1298:	0867ae08 	stmdaeq	r7!, {r3, r9, sl, fp, sp, pc}^
    129c:	ae0867ae 	cdpge	7, 0, cr6, cr8, cr14, {5}
    12a0:	67ae0867 	strvs	r0, [lr, r7, ror #16]!
    12a4:	01001c02 	tsteq	r0, r2, lsl #24
    12a8:	00012801 	andeq	r2, r1, r1, lsl #16
    12ac:	0d000200 	sfmeq	f0, 4, [r0, #-0]
    12b0:	02000001 	andeq	r0, r0, #1
    12b4:	0d0efb01 	vstreq	d15, [lr, #-4]
    12b8:	01010100 	mrseq	r0, (UNDEF: 17)
    12bc:	00000001 	andeq	r0, r0, r1
    12c0:	01000001 	tsteq	r0, r1
    12c4:	34317363 	ldrtcc	r7, [r1], #-867	; 0x363
    12c8:	732d6530 	teqvc	sp, #48, 10	; 0xc000000
    12cc:	2f006372 	svccs	0x00006372
    12d0:	2f727375 	svccs	0x00727375
    12d4:	61636f6c 	cmnvs	r3, ip, ror #30
    12d8:	65432f6c 	strbvs	r2, [r3, #-3948]	; 0xf6c
    12dc:	72616c6c 	rsbvc	r6, r1, #108, 24	; 0x6c00
    12e0:	6d72612f 	ldfvse	f6, [r2, #-188]!	; 0xffffff44
    12e4:	6e6f6e2d 	cdpvs	14, 6, cr6, cr15, cr13, {1}
    12e8:	61652d65 	cmnvs	r5, r5, ror #26
    12ec:	342f6962 	strtcc	r6, [pc], #-2402	; 12f4 <_start-0x6d0c>
    12f0:	332e382e 	teqcc	lr, #3014656	; 0x2e0000
    12f4:	3173632d 	cmncc	r3, sp, lsr #6
    12f8:	2f653037 	svccs	0x00653037
    12fc:	2f62696c 	svccs	0x0062696c
    1300:	2f636367 	svccs	0x00636367
    1304:	2d6d7261 	sfmcs	f7, 2, [sp, #-388]!	; 0xfffffe7c
    1308:	656e6f6e 	strbvs	r6, [lr, #-3950]!	; 0xf6e
    130c:	6261652d 	rsbvs	r6, r1, #188743680	; 0xb400000
    1310:	2e342f69 	cdpcs	15, 3, cr2, cr4, cr9, {3}
    1314:	2f332e38 	svccs	0x00332e38
    1318:	6c636e69 	stclvs	14, cr6, [r3], #-420	; 0xfffffe5c
    131c:	00656475 	rsbeq	r6, r5, r5, ror r4
    1320:	7273752f 	rsbsvc	r7, r3, #197132288	; 0xbc00000
    1324:	636f6c2f 	cmnvs	pc, #12032	; 0x2f00
    1328:	432f6c61 	teqmi	pc, #24832	; 0x6100
    132c:	616c6c65 	cmnvs	ip, r5, ror #24
    1330:	72612f72 	rsbvc	r2, r1, #456	; 0x1c8
    1334:	6f6e2d6d 	svcvs	0x006e2d6d
    1338:	652d656e 	strvs	r6, [sp, #-1390]!	; 0x56e
    133c:	2f696261 	svccs	0x00696261
    1340:	2e382e34 	mrccs	14, 1, r2, cr8, cr4, {1}
    1344:	73632d33 	cmnvc	r3, #3264	; 0xcc0
    1348:	65303731 	ldrvs	r3, [r0, #-1841]!	; 0x731
    134c:	6d72612f 	ldfvse	f6, [r2, #-188]!	; 0xffffff44
    1350:	6e6f6e2d 	cdpvs	14, 6, cr6, cr15, cr13, {1}
    1354:	61652d65 	cmnvs	r5, r5, ror #26
    1358:	692f6962 	stmdbvs	pc!, {r1, r5, r6, r8, fp, sp, lr}	; <UNPREDICTABLE>
    135c:	756c636e 	strbvc	r6, [ip, #-878]!	; 0x36e
    1360:	00006564 	andeq	r6, r0, r4, ror #10
    1364:	746e6f63 	strbtvc	r6, [lr], #-3939	; 0xf63
    1368:	2d6c6f72 	stclcs	15, cr6, [ip, #-456]!	; 0xfffffe38
    136c:	636f6c62 	cmnvs	pc, #25088	; 0x6200
    1370:	00632e6b 	rsbeq	r2, r3, fp, ror #28
    1374:	73000001 	movwvc	r0, #1
    1378:	65646474 	strbvs	r6, [r4, #-1140]!	; 0x474
    137c:	00682e66 	rsbeq	r2, r8, r6, ror #28
    1380:	73000002 	movwvc	r0, #2
    1384:	6e696474 	mcrvs	4, 3, r6, cr9, cr4, {3}
    1388:	63672d74 	cmnvs	r7, #116, 26	; 0x1d00
    138c:	00682e63 	rsbeq	r2, r8, r3, ror #28
    1390:	73000002 	movwvc	r0, #2
    1394:	61752d77 	cmnvs	r5, r7, ror sp
    1398:	682e7472 	stmdavs	lr!, {r1, r4, r5, r6, sl, ip, sp, lr}
    139c:	00000100 	andeq	r0, r0, r0, lsl #2
    13a0:	746e6f63 	strbtvc	r6, [lr], #-3939	; 0xf63
    13a4:	2d6c6f72 	stclcs	15, cr6, [ip, #-456]!	; 0xfffffe38
    13a8:	636f6c62 	cmnvs	pc, #25088	; 0x6200
    13ac:	00682e6b 	rsbeq	r2, r8, fp, ror #28
    13b0:	73000001 	movwvc	r0, #1
    13b4:	6e697274 	mcrvs	2, 3, r7, cr9, cr4, {3}
    13b8:	00682e67 	rsbeq	r2, r8, r7, ror #28
    13bc:	00000003 	andeq	r0, r0, r3
    13c0:	c0020500 	andgt	r0, r2, r0, lsl #10
    13c4:	1600009e 			; <UNDEFINED> instruction: 0x1600009e
    13c8:	4c688330 	stclmi	3, cr8, [r8], #-192	; 0xffffff40
    13cc:	2f4b9f14 	svccs	0x004b9f14
    13d0:	01000402 	tsteq	r0, r2, lsl #8
    13d4:	Address 0x00000000000013d4 is out of bounds.


Disassembly of section .debug_str:

00000000 <.debug_str>:
   0:	657a6973 	ldrbvs	r6, [sl, #-2419]!	; 0x973
   4:	6500745f 	strvs	r7, [r0, #-1119]	; 0x45f
   8:	726f7272 	rsbvc	r7, pc, #536870919	; 0x20000007
   c:	61665f73 	smcvs	26099	; 0x65f3
  10:	5f6c6174 	svcpl	0x006c6174
  14:	55410070 	strbpl	r0, [r1, #-112]	; 0x70
  18:	554d5f58 	strbpl	r5, [sp, #-3928]	; 0xf58
  1c:	5243535f 	subpl	r5, r3, #2080374785	; 0x7c000001
  20:	48435441 	stmdami	r3, {r0, r6, sl, ip, lr}^
  24:	746f6e00 	strbtvc	r6, [pc], #-3584	; 2c <_start-0x7fd4>
  28:	6e69616d 	powvsez	f6, f1, #5.0
  2c:	6d726100 	ldfvse	f6, [r2, #-0]
  30:	6d69745f 	cfstrdvs	mvd7, [r9, #-380]!	; 0xfffffe84
  34:	525f7265 	subspl	r7, pc, #1342177286	; 0x50000006
  38:	52495741 	subpl	r5, r9, #17039360	; 0x1040000
  3c:	61750051 	cmnvs	r5, r1, asr r0
  40:	695f7472 	ldmdbvs	pc, {r1, r4, r5, r6, sl, ip, sp, lr}^	; <UNPREDICTABLE>
  44:	5f74696e 	svcpl	0x0074696e
  48:	68746977 	ldmdavs	r4!, {r0, r1, r2, r4, r5, r6, r8, fp, sp, lr}^
  4c:	746e695f 	strbtvc	r6, [lr], #-2399	; 0x95f
  50:	75727265 	ldrbvc	r7, [r2, #-613]!	; 0x265
  54:	00737470 	rsbseq	r7, r3, r0, ror r4
  58:	676e6f6c 	strbvs	r6, [lr, -ip, ror #30]!
  5c:	6e6f6c20 	cdpvs	12, 6, cr6, cr15, cr0, {1}
  60:	6e752067 	cdpvs	0, 7, cr2, cr5, cr7, {3}
  64:	6e676973 	mcrvs	9, 3, r6, cr7, cr3, {3}
  68:	69206465 	stmdbvs	r0!, {r0, r2, r5, r6, sl, sp, lr}
  6c:	6300746e 	movwvs	r7, #1134	; 0x46e
  70:	6675625f 			; <UNDEFINED> instruction: 0x6675625f
  74:	49504700 	ldmdbmi	r0, {r8, r9, sl, lr}^
  78:	55465f4f 	strbpl	r5, [r6, #-3919]	; 0xf4f
  7c:	495f434e 	ldmdbmi	pc, {r1, r2, r3, r6, r8, r9, lr}^	; <UNPREDICTABLE>
  80:	5455504e 	ldrbpl	r5, [r5], #-78	; 0x4e
  84:	5f716300 	svcpl	0x00716300
  88:	74706d65 	ldrbtvc	r6, [r0], #-3429	; 0xd65
  8c:	6f6c0079 	svcvs	0x006c0079
  90:	6c20676e 	stcvs	7, cr6, [r0], #-440	; 0xfffffe48
  94:	20676e6f 	rsbcs	r6, r7, pc, ror #28
  98:	00746e69 	rsbseq	r6, r4, r9, ror #28
  9c:	755f7773 	ldrbvc	r7, [pc, #-1907]	; fffff931 <__bss_end__+0xffff1039>
  a0:	5f747261 	svcpl	0x00747261
  a4:	74696e69 	strbtvc	r6, [r9], #-3689	; 0xe69
  a8:	6c65685f 	stclvs	8, cr6, [r5], #-380	; 0xfffffe84
  ac:	00726570 	rsbseq	r6, r2, r0, ror r5
  b0:	74726175 	ldrbtvc	r6, [r2], #-373	; 0x175
  b4:	6e61635f 	mcrvs	3, 3, r6, cr1, cr15, {2}
  b8:	7465675f 	strbtvc	r6, [r5], #-1887	; 0x75f
  bc:	74730063 	ldrbtvc	r0, [r3], #-99	; 0x63
  c0:	00657461 	rsbeq	r7, r5, r1, ror #8
  c4:	5f6d7261 	svcpl	0x006d7261
  c8:	656d6974 	strbvs	r6, [sp, #-2420]!	; 0x974
  cc:	6f435f72 	svcvs	0x00435f72
  d0:	6f72746e 	svcvs	0x0072746e
  d4:	7261006c 	rsbvc	r0, r1, #108	; 0x6c
  d8:	69745f6d 	ldmdbvs	r4!, {r0, r2, r3, r5, r6, r8, r9, sl, fp, ip, lr}^
  dc:	5f72656d 	svcpl	0x0072656d
  e0:	64616f4c 	strbtvs	r6, [r1], #-3916	; 0xf4c
  e4:	6d726100 	ldfvse	f6, [r2, #-0]
  e8:	6d69745f 	cfstrdvs	mvd7, [r9, #-380]!	; 0xfffffe84
  ec:	425f7265 	subsmi	r7, pc, #1342177286	; 0x50000006
  f0:	00657361 	rsbeq	r7, r5, r1, ror #6
  f4:	5f766564 	svcpl	0x00766564
  f8:	72726162 	rsbsvc	r6, r2, #-2147483624	; 0x80000018
  fc:	00726569 	rsbseq	r6, r2, r9, ror #10
 100:	5f585541 	svcpl	0x00585541
 104:	4c5f554d 	cfldr64mi	mvdx5, [pc], {77}	; 0x4d
 108:	525f5253 	subspl	r5, pc, #805306373	; 0x30000005
 10c:	41004745 	tstmi	r0, r5, asr #14
 110:	455f5855 	ldrbmi	r5, [pc, #-2133]	; fffff8c3 <__bss_end__+0xffff0fcb>
 114:	4c42414e 	stfmie	f4, [r2], {78}	; 0x4e
 118:	75005345 	strvc	r5, [r0, #-837]	; 0x345
 11c:	5f747261 	svcpl	0x00747261
 120:	63746567 	cmnvs	r4, #432013312	; 0x19c00000
 124:	746e695f 	strbtvc	r6, [lr], #-2399	; 0x95f
 128:	5f6e6900 	svcpl	0x006e6900
 12c:	61746164 	cmnvs	r4, r4, ror #2
 130:	72617500 	rsbvc	r7, r1, #0, 10
 134:	61635f74 	smcvs	13812	; 0x35f4
 138:	75705f6e 	ldrbvc	r5, [r0, #-3950]!	; 0xf6e
 13c:	74006374 	strvc	r6, [r0], #-884	; 0x374
 140:	6f635f78 	svcvs	0x00635f78
 144:	00746e75 	rsbseq	r6, r4, r5, ror lr
 148:	51746567 	cmnpl	r4, r7, ror #10
 14c:	6d726100 	ldfvse	f6, [r2, #-0]
 150:	6d69745f 	cfstrdvs	mvd7, [r9, #-380]!	; 0xfffffe84
 154:	4d5f7265 	lfmmi	f7, 2, [pc, #-404]	; ffffffc8 <__bss_end__+0xffff16d0>
 158:	656b7361 	strbvs	r7, [fp, #-865]!	; 0x361
 15c:	51524964 	cmppl	r2, r4, ror #18
 160:	58554100 	ldmdapl	r5, {r8, lr}^
 164:	5f554d5f 	svcpl	0x00554d5f
 168:	525f4f49 	subspl	r4, pc, #292	; 0x124
 16c:	72004745 	andvc	r4, r0, #18087936	; 0x1140000
 170:	725f6970 	subsvc	r6, pc, #112, 18	; 0x1c0000
 174:	74657365 	strbtvc	r7, [r5], #-869	; 0x365
 178:	7475705f 	ldrbtvc	r7, [r5], #-95	; 0x5f
 17c:	77730063 	ldrbvc	r0, [r3, -r3, rrx]!
 180:	7261755f 	rsbvc	r7, r1, #398458880	; 0x17c00000
 184:	55410074 	strbpl	r0, [r1, #-116]	; 0x74
 188:	554d5f58 	strbpl	r5, [sp, #-3928]	; 0xf58
 18c:	5541425f 	strbpl	r4, [r1, #-607]	; 0x25f
 190:	45525f44 	ldrbmi	r5, [r2, #-3908]	; 0xf44
 194:	5f5f0047 	svcpl	0x005f0047
 198:	434e5546 	movtmi	r5, #58694	; 0xe546
 19c:	4e4f4954 	mcrmi	9, 2, r4, cr15, cr4, {2}
 1a0:	41005f5f 	tstmi	r0, pc, asr pc
 1a4:	4d5f5855 	ldclmi	8, cr5, [pc, #-340]	; 58 <_start-0x7fa8>
 1a8:	434c5f55 	movtmi	r5, #53077	; 0xcf55
 1ac:	45525f52 	ldrbmi	r5, [r2, #-3922]	; 0xf52
 1b0:	71630047 	cmnvc	r3, r7, asr #32
 1b4:	6c656e5f 	stclvs	14, cr6, [r5], #-380	; 0xfffffe84
 1b8:	73006d65 	movwvc	r6, #3429	; 0xd65
 1bc:	74726f68 	ldrbtvc	r6, [r2], #-3944	; 0xf68
 1c0:	736e7520 	cmnvc	lr, #32, 10	; 0x8000000
 1c4:	656e6769 	strbvs	r6, [lr, #-1897]!	; 0x769
 1c8:	6e692064 	cdpvs	0, 6, cr2, cr9, cr4, {3}
 1cc:	61750074 	cmnvs	r5, r4, ror r0
 1d0:	705f7472 	subsvc	r7, pc, r2, ror r4	; <UNPREDICTABLE>
 1d4:	5f637475 	svcpl	0x00637475
 1d8:	00746e69 	rsbseq	r6, r4, r9, ror #28
 1dc:	5f585541 	svcpl	0x00585541
 1e0:	4d5f554d 	cfldr64mi	mvdx5, [pc, #-308]	; b4 <_start-0x7f4c>
 1e4:	525f5253 	subspl	r5, pc, #805306373	; 0x30000005
 1e8:	73004745 	movwvc	r4, #1861	; 0x745
 1ec:	61755f77 	cmnvs	r5, r7, ror pc
 1f0:	705f7472 	subsvc	r7, pc, r2, ror r4	; <UNPREDICTABLE>
 1f4:	00637475 	rsbeq	r7, r3, r5, ror r4
 1f8:	51747570 	cmnpl	r4, r0, ror r5
 1fc:	51524900 	cmppl	r2, r0, lsl #18
 200:	414e455f 	cmpmi	lr, pc, asr r5
 204:	5f454c42 	svcpl	0x00454c42
 208:	52490031 	subpl	r0, r9, #49	; 0x31
 20c:	4e455f51 	mcrmi	15, 2, r5, cr5, cr1, {2}
 210:	454c4241 	strbmi	r4, [ip, #-577]	; 0x241
 214:	7500325f 	strvc	r3, [r0, #-607]	; 0x25f
 218:	5f747261 	svcpl	0x00747261
 21c:	5f736168 	svcpl	0x00736168
 220:	61746164 	cmnvs	r4, r4, ror #2
 224:	746e695f 	strbtvc	r6, [lr], #-2399	; 0x95f
 228:	58554100 	ldmdapl	r5, {r8, lr}^
 22c:	5f554d5f 	svcpl	0x00554d5f
 230:	5f524549 	svcpl	0x00524549
 234:	00474552 	subeq	r4, r7, r2, asr r5
 238:	61656c63 	cmnvs	r5, r3, ror #24
 23c:	65725f6e 	ldrbvs	r5, [r2, #-3950]!	; 0xf6e
 240:	746f6f62 	strbtvc	r6, [pc], #-3938	; 248 <_start-0x7db8>
 244:	69617400 	stmdbvs	r1!, {sl, ip, sp, lr}^
 248:	6973006c 	ldmdbvs	r3!, {r2, r3, r5, r6}^
 24c:	7974657a 	ldmdbvc	r4!, {r1, r3, r4, r5, r6, r8, sl, sp, lr}^
 250:	67006570 	smlsdxvs	r0, r0, r5, r6
 254:	5f6f6970 	svcpl	0x006f6970
 258:	5f746573 	svcpl	0x00746573
 25c:	636e7566 	cmnvs	lr, #427819008	; 0x19800000
 260:	6e6f6974 	mcrvs	9, 3, r6, cr15, cr4, {3}
 264:	67657200 	strbvs	r7, [r5, -r0, lsl #4]!
 268:	6c61765f 	stclvs	6, cr7, [r1], #-380	; 0xfffffe84
 26c:	5f716300 	svcpl	0x00716300
 270:	5f706f70 	svcpl	0x00706f70
 274:	626e6f6e 	rsbvs	r6, lr, #440	; 0x1b8
 278:	6b636f6c 	blvs	18dc030 <__bss_end__+0x18cd738>
 27c:	6d726100 	ldfvse	f6, [r2, #-0]
 280:	6d69745f 	cfstrdvs	mvd7, [r9, #-380]!	; 0xfffffe84
 284:	525f7265 	subspl	r7, pc, #1342177286	; 0x50000006
 288:	616f6c65 	cmnvs	pc, r5, ror #24
 28c:	71630064 	cmnvc	r3, r4, rrx
 290:	696e695f 	stmdbvs	lr!, {r0, r1, r2, r3, r4, r6, r8, fp, sp, lr}^
 294:	6e690074 	mcrvs	0, 3, r0, cr9, cr4, {3}
 298:	6e695f74 	mcrvs	15, 3, r5, cr9, cr4, {3}
 29c:	41007469 	tstmi	r0, r9, ror #8
 2a0:	4d5f5855 	ldclmi	8, cr5, [pc, #-340]	; 154 <_start-0x7eac>
 2a4:	49495f55 	stmdbmi	r9, {r0, r2, r4, r6, r8, r9, sl, fp, ip, lr}^
 2a8:	45525f52 	ldrbmi	r5, [r2, #-3922]	; 0xf52
 2ac:	79730047 	ldmdbvc	r3!, {r0, r1, r2, r6}^
 2b0:	6d657473 	cfstrdvs	mvd7, [r5, #-460]!	; 0xfffffe34
 2b4:	616e655f 	cmnvs	lr, pc, asr r5
 2b8:	5f656c62 	svcpl	0x00656c62
 2bc:	65746e69 	ldrbvs	r6, [r4, #-3689]!	; 0xe69
 2c0:	70757272 	rsbsvc	r7, r5, r2, ror r2
 2c4:	41007374 	tstmi	r0, r4, ror r3
 2c8:	495f5855 	ldmdbmi	pc, {r0, r2, r4, r6, fp, ip, lr}^	; <UNPREDICTABLE>
 2cc:	73005152 	movwvc	r5, #338	; 0x152
 2d0:	61755f77 	cmnvs	r5, r7, ror pc
 2d4:	745f7472 	ldrbvc	r7, [pc], #-1138	; 2dc <_start-0x7d24>
 2d8:	736e7500 	cmnvc	lr, #0, 10
 2dc:	656e6769 	strbvs	r6, [lr, #-1897]!	; 0x769
 2e0:	68632064 	stmdavs	r3!, {r2, r5, r6, sp}^
 2e4:	69007261 	stmdbvs	r0, {r0, r5, r6, r9, ip, sp, lr}
 2e8:	68635f6e 	stmdavs	r3!, {r1, r2, r3, r5, r6, r8, r9, sl, fp, ip, lr}^
 2ec:	73007261 	movwvc	r7, #609	; 0x261
 2f0:	74726f68 	ldrbtvc	r6, [r2], #-3944	; 0xf68
 2f4:	746e6920 	strbtvc	r6, [lr], #-2336	; 0x920
 2f8:	58554100 	ldmdapl	r5, {r8, lr}^
 2fc:	5f554d5f 	svcpl	0x00554d5f
 300:	54415453 	strbpl	r5, [r1], #-1107	; 0x453
 304:	4745525f 	smlsldmi	r5, r5, pc, r2	; <UNPREDICTABLE>
 308:	73552f00 	cmpvc	r5, #0, 30
 30c:	2f737265 	svccs	0x00737265
 310:	61697262 	cmnvs	r9, r2, ror #4
 314:	6e756a6e 	vsubvs.f32	s13, s10, s29
 318:	7365442f 	cmnvc	r5, #788529152	; 0x2f000000
 31c:	706f746b 	rsbvc	r7, pc, fp, ror #8
 320:	6863732f 	stmdavs	r3!, {r0, r1, r2, r3, r5, r8, r9, ip, sp, lr}^
 324:	2f6c6f6f 	svccs	0x006c6f6f
 328:	746e6957 	strbtvc	r6, [lr], #-2391	; 0x957
 32c:	39317265 	ldmdbcc	r1!, {r0, r2, r5, r6, r9, ip, sp, lr}
 330:	432f3032 	teqmi	pc, #50	; 0x32
 334:	30343153 	eorscc	r3, r4, r3, asr r1
 338:	73632f45 	cmnvc	r3, #276	; 0x114
 33c:	65303431 	ldrvs	r3, [r0, #-1073]!	; 0x431
 340:	7730322d 	ldrvc	r3, [r0, -sp, lsr #4]!
 344:	682f6e69 	stmdavs	pc!, {r0, r3, r5, r6, r9, sl, fp, sp, lr}	; <UNPREDICTABLE>
 348:	77656d6f 	strbvc	r6, [r5, -pc, ror #26]!
 34c:	2f6b726f 	svccs	0x006b726f
 350:	77682d31 			; <UNDEFINED> instruction: 0x77682d31
 354:	7261752d 	rsbvc	r7, r1, #188743680	; 0xb400000
 358:	6e692d74 	mcrvs	13, 3, r2, cr9, cr4, {3}
 35c:	6e690074 	mcrvs	0, 3, r0, cr9, cr4, {3}
 360:	6800635f 	stmdavs	r0, {r0, r1, r2, r3, r4, r6, r8, r9, sp, lr}
 364:	00646165 	rsbeq	r6, r4, r5, ror #2
 368:	746e6975 	strbtvc	r6, [lr], #-2421	; 0x975
 36c:	745f3233 	ldrbvc	r3, [pc], #-563	; 374 <_start-0x7c8c>
 370:	75616200 	strbvc	r6, [r1, #-512]!	; 0x200
 374:	4e470064 	cdpmi	0, 4, cr0, cr7, cr4, {3}
 378:	20432055 	subcs	r2, r3, r5, asr r0
 37c:	2e382e34 	mrccs	14, 1, r2, cr8, cr4, {1}
 380:	6d2d2033 	stcvs	0, cr2, [sp, #-204]!	; 0xffffff34
 384:	3d757063 	ldclcc	0, cr7, [r5, #-396]!	; 0xfffffe74
 388:	316d7261 	cmncc	sp, r1, ror #4
 38c:	6a363731 	bvs	d8e058 <__bss_end__+0xd7f760>
 390:	732d667a 	teqvc	sp, #127926272	; 0x7a00000
 394:	746d2d20 	strbtvc	r2, [sp], #-3360	; 0xd20
 398:	3d656e75 	stclcc	14, cr6, [r5, #-468]!	; 0xfffffe2c
 39c:	316d7261 	cmncc	sp, r1, ror #4
 3a0:	6a363731 	bvs	d8e06c <__bss_end__+0xd7f774>
 3a4:	732d667a 	teqvc	sp, #127926272	; 0x7a00000
 3a8:	67672d20 	strbvs	r2, [r7, -r0, lsr #26]!
 3ac:	2d206264 	sfmcs	f6, 4, [r0, #-400]!	; 0xfffffe70
 3b0:	2d20674f 	stccs	7, cr6, [r0, #-316]!	; 0xfffffec4
 3b4:	3d647473 	cfstrdcc	mvd7, [r4, #-460]!	; 0xfffffe34
 3b8:	39756e67 	ldmdbcc	r5!, {r0, r1, r2, r5, r6, r9, sl, fp, sp, lr}^
 3bc:	662d2039 			; <UNDEFINED> instruction: 0x662d2039
 3c0:	65657266 	strbvs	r7, [r5, #-614]!	; 0x266
 3c4:	6e617473 	mcrvs	4, 3, r7, cr1, cr3, {3}
 3c8:	676e6964 	strbvs	r6, [lr, -r4, ror #18]!
 3cc:	6e656600 	cdpvs	6, 6, cr6, cr5, cr0, {0}
 3d0:	41006563 	tstmi	r0, r3, ror #10
 3d4:	4d5f5855 	ldclmi	8, cr5, [pc, #-340]	; 288 <_start-0x7d78>
 3d8:	4e435f55 	mcrmi	15, 2, r5, cr3, cr5, {2}
 3dc:	525f4c54 	subspl	r4, pc, #84, 24	; 0x5400
 3e0:	6f004745 	svcvs	0x00004745
 3e4:	66726576 			; <UNDEFINED> instruction: 0x66726576
 3e8:	00776f6c 	rsbseq	r6, r7, ip, ror #30
 3ec:	33747570 	cmncc	r4, #112, 10	; 0x1c000000
 3f0:	71630032 	cmnvc	r3, r2, lsr r0
 3f4:	7375705f 	cmnvc	r5, #95	; 0x5f
 3f8:	71630068 	cmnvc	r3, r8, rrx
 3fc:	00745f65 	rsbseq	r5, r4, r5, ror #30
 400:	5f6d7261 	svcpl	0x006d7261
 404:	656d6974 	strbvs	r6, [sp, #-2420]!	; 0x974
 408:	72505f72 	subsvc	r5, r0, #456	; 0x1c8
 40c:	76694465 	strbtvc	r4, [r9], -r5, ror #8
 410:	72656469 	rsbvc	r6, r5, #1761607680	; 0x69000000
 414:	72617500 	rsbvc	r7, r1, #0, 10
 418:	6e692d74 	mcrvs	13, 3, r2, cr9, cr4, {3}
 41c:	00632e74 	rsbeq	r2, r3, r4, ror lr
 420:	5f6d7261 	svcpl	0x006d7261
 424:	656d6974 	strbvs	r6, [sp, #-2420]!	; 0x974
 428:	61565f72 	cmpvs	r6, r2, ror pc
 42c:	0065756c 	rsbeq	r7, r5, ip, ror #10
 430:	5f6d7261 	svcpl	0x006d7261
 434:	656d6974 	strbvs	r6, [sp, #-2420]!	; 0x974
 438:	52495f72 	subpl	r5, r9, #456	; 0x1c8
 43c:	656c4351 	strbvs	r4, [ip, #-849]!	; 0x351
 440:	6d007261 	sfmvs	f7, 4, [r0, #-388]	; 0xfffffe7c
 444:	65736d65 	ldrbvs	r6, [r3, #-3429]!	; 0xd65
 448:	71630074 	smcvc	12292	; 0x3004
 44c:	7200745f 	andvc	r7, r0, #1593835520	; 0x5f000000
 450:	615f6970 	cmpvs	pc, r0, ror r9	; <UNPREDICTABLE>
 454:	745f6d72 	ldrbvc	r6, [pc], #-3442	; 45c <_start-0x7ba4>
 458:	72656d69 	rsbvc	r6, r5, #6720	; 0x1a40
 45c:	4700745f 	smlsdmi	r0, pc, r4, r7	; <UNPREDICTABLE>
 460:	5f4f4950 	svcpl	0x004f4950
 464:	434e5546 	movtmi	r5, #58694	; 0xe546
 468:	54554f5f 	ldrbpl	r4, [r5], #-3935	; 0xf5f
 46c:	00545550 	subseq	r5, r4, r0, asr r5
 470:	746e6975 	strbtvc	r6, [lr], #-2421	; 0x975
 474:	00745f38 	rsbseq	r5, r4, r8, lsr pc
 478:	33746567 	cmncc	r4, #432013312	; 0x19c00000
 47c:	70670032 	rsbvc	r0, r7, r2, lsr r0
 480:	665f6f69 	ldrbvs	r6, [pc], -r9, ror #30
 484:	5f636e75 	svcpl	0x00636e75
 488:	6f6d0074 	svcvs	0x006d0074
 48c:	78745f64 	ldmdavc	r4!, {r2, r5, r6, r8, r9, sl, fp, ip, lr}^
 490:	746e695f 	strbtvc	r6, [lr], #-2399	; 0x95f
 494:	75727265 	ldrbvc	r7, [r2, #-613]!	; 0x265
 498:	00737470 	rsbseq	r7, r3, r0, ror r4
 49c:	4f495047 	svcmi	0x00495047
 4a0:	4e55465f 	mrcmi	6, 2, r4, cr5, cr15, {2}
 4a4:	4c415f43 	mcrrmi	15, 4, r5, r1, cr3
 4a8:	47003054 	smlsdmi	r0, r4, r0, r3
 4ac:	5f4f4950 	svcpl	0x004f4950
 4b0:	434e5546 	movtmi	r5, #58694	; 0xe546
 4b4:	544c415f 	strbpl	r4, [ip], #-351	; 0x15f
 4b8:	50470031 	subpl	r0, r7, r1, lsr r0
 4bc:	465f4f49 	ldrbmi	r4, [pc], -r9, asr #30
 4c0:	5f434e55 	svcpl	0x00434e55
 4c4:	32544c41 	subscc	r4, r4, #16640	; 0x4100
 4c8:	49504700 	ldmdbmi	r0, {r8, r9, sl, lr}^
 4cc:	55465f4f 	strbpl	r5, [r6, #-3919]	; 0xf4f
 4d0:	415f434e 	cmpmi	pc, lr, asr #6
 4d4:	0033544c 	eorseq	r5, r3, ip, asr #8
 4d8:	4f495047 	svcmi	0x00495047
 4dc:	4e55465f 	mrcmi	6, 2, r4, cr5, cr15, {2}
 4e0:	4c415f43 	mcrrmi	15, 4, r5, r1, cr3
 4e4:	47003454 	smlsdmi	r0, r4, r4, r3
 4e8:	5f4f4950 	svcpl	0x004f4950
 4ec:	434e5546 	movtmi	r5, #58694	; 0xe546
 4f0:	544c415f 	strbpl	r4, [ip], #-351	; 0x15f
 4f4:	55410035 	strbpl	r0, [r1, #-53]	; 0x35
 4f8:	554d5f58 	strbpl	r5, [sp, #-3928]	; 0xf58
 4fc:	52434d5f 	subpl	r4, r3, #6080	; 0x17c0
 500:	4745525f 	smlsldmi	r5, r5, pc, r2	; <UNPREDICTABLE>
 504:	63796300 	cmnvs	r9, #0, 6
 508:	705f656c 	subsvc	r6, pc, ip, ror #10
 50c:	625f7265 	subsvs	r7, pc, #1342177286	; 0x50000006
 510:	73007469 	movwvc	r7, #1129	; 0x469
 514:	65747379 	ldrbvs	r7, [r4, #-889]!	; 0x379
 518:	69645f6d 	stmdbvs	r4!, {r0, r2, r3, r5, r6, r8, r9, sl, fp, ip, lr}^
 51c:	6c626173 	stfvse	f6, [r2], #-460	; 0xfffffe34
 520:	6e695f65 	cdpvs	15, 6, cr5, cr9, cr5, {3}
 524:	72726574 	rsbsvc	r6, r2, #116, 10	; 0x1d000000
 528:	73747075 	cmnvc	r4, #117	; 0x75
 52c:	5f796d00 	svcpl	0x00796d00
 530:	73747570 	cmnvc	r4, #112, 10	; 0x1c000000
 534:	5f716300 	svcpl	0x00716300
 538:	6c6c7566 	cfstr64vs	mvdx7, [ip], #-408	; 0xfffffe68
 53c:	6d726100 	ldfvse	f6, [r2, #-0]
 540:	6d69745f 	cfstrdvs	mvd7, [r9, #-380]!	; 0xfffffe84
 544:	465f7265 	ldrbmi	r7, [pc], -r5, ror #4
 548:	52656572 	rsbpl	r6, r5, #478150656	; 0x1c800000
 54c:	696e6e75 	stmdbvs	lr!, {r0, r2, r4, r5, r6, r9, sl, fp, sp, lr}^
 550:	6f43676e 	svcvs	0x0043676e
 554:	65746e75 	ldrbvs	r6, [r4, #-3701]!	; 0xe75
 558:	696c0072 	stmdbvs	ip!, {r1, r4, r5, r6}^
 55c:	6d2f6362 	stcvs	3, cr6, [pc, #-392]!	; 3dc <_start-0x7c24>
 560:	65736d65 	ldrbvs	r6, [r3, #-3429]!	; 0xd65
 564:	00632e74 	rsbeq	r2, r3, r4, ror lr
 568:	6573552f 	ldrbvs	r5, [r3, #-1327]!	; 0x52f
 56c:	622f7372 	eorvs	r7, pc, #-939524095	; 0xc8000001
 570:	6e616972 	mcrvs	9, 3, r6, cr1, cr2, {3}
 574:	2f6e756a 	svccs	0x006e756a
 578:	6b736544 	blvs	1cd9a90 <__bss_end__+0x1ccb198>
 57c:	2f706f74 	svccs	0x00706f74
 580:	6f686373 	svcvs	0x00686373
 584:	572f6c6f 	strpl	r6, [pc, -pc, ror #24]!
 588:	65746e69 	ldrbvs	r6, [r4, #-3689]!	; 0xe69
 58c:	32393172 	eorscc	r3, r9, #-2147483620	; 0x8000001c
 590:	53432f30 	movtpl	r2, #16176	; 0x3f30
 594:	45303431 	ldrmi	r3, [r0, #-1073]!	; 0x431
 598:	3173632f 	cmncc	r3, pc, lsr #6
 59c:	2d653034 	stclcs	0, cr3, [r5, #-208]!	; 0xffffff30
 5a0:	69773032 	ldmdbvs	r7!, {r1, r4, r5, ip, sp}^
 5a4:	696c2f6e 	stmdbvs	ip!, {r1, r2, r3, r5, r6, r8, r9, sl, fp, sp}^
 5a8:	00697062 	rsbeq	r7, r9, r2, rrx
 5ac:	6e675f5f 	mcrvs	15, 3, r5, cr7, cr15, {2}
 5b0:	765f6375 			; <UNDEFINED> instruction: 0x765f6375
 5b4:	696c5f61 	stmdbvs	ip!, {r0, r5, r6, r8, r9, sl, fp, ip, lr}^
 5b8:	6c007473 	cfstrsvs	mvf7, [r0], {115}	; 0x73
 5bc:	2f636269 	svccs	0x00636269
 5c0:	6e697270 	mcrvs	2, 3, r7, cr9, cr0, {3}
 5c4:	632e6b74 	teqvs	lr, #116, 22	; 0x1d000
 5c8:	5f617600 	svcpl	0x00617600
 5cc:	6e697270 	mcrvs	2, 3, r7, cr9, cr0, {3}
 5d0:	5f006b74 	svcpl	0x00006b74
 5d4:	5f61765f 	svcpl	0x0061765f
 5d8:	7473696c 	ldrbtvc	r6, [r3], #-2412	; 0x96c
 5dc:	67726100 	ldrbvs	r6, [r2, -r0, lsl #2]!
 5e0:	5f5f0073 	svcpl	0x005f0073
 5e4:	69007061 	stmdbvs	r0, {r0, r5, r6, ip, sp, lr}
 5e8:	7265746e 	rsbvc	r7, r5, #1845493760	; 0x6e000000
 5ec:	5f6c616e 	svcpl	0x006c616e
 5f0:	63747570 	cmnvs	r4, #112, 10	; 0x1c000000
 5f4:	00726168 	rsbseq	r6, r2, r8, ror #2
 5f8:	5f697072 	svcpl	0x00697072
 5fc:	63747570 	cmnvs	r4, #112, 10	; 0x1c000000
 600:	00726168 	rsbseq	r6, r2, r8, ror #2
 604:	6362696c 	cmnvs	r2, #108, 18	; 0x1b0000
 608:	7475702f 	ldrbtvc	r7, [r5], #-47	; 0x2f
 60c:	72616863 	rsbvc	r6, r1, #6488064	; 0x630000
 610:	7200632e 	andvc	r6, r0, #-1207959552	; 0xb8000000
 614:	735f6970 	cmpvc	pc, #112, 18	; 0x1c0000
 618:	705f7465 	subsvc	r7, pc, r5, ror #8
 61c:	00637475 	rsbeq	r7, r3, r5, ror r4
 620:	6362696c 	cmnvs	r2, #108, 18	; 0x1b0000
 624:	7475702f 	ldrbtvc	r7, [r5], #-47	; 0x2f
 628:	00632e6b 	rsbeq	r2, r3, fp, ror #28
 62c:	65746e69 	ldrbvs	r6, [r4, #-3689]!	; 0xe69
 630:	6c616e72 	stclvs	14, cr6, [r1], #-456	; 0xfffffe38
 634:	7475705f 	ldrbtvc	r7, [r5], #-95	; 0x5f
 638:	656e006b 	strbvs	r0, [lr, #-107]!	; 0x6b
 63c:	00705f67 	rsbseq	r5, r0, r7, ror #30
 640:	65766572 	ldrbvs	r6, [r6, #-1394]!	; 0x572
 644:	00657372 	rsbeq	r7, r5, r2, ror r3
 648:	69647369 	stmdbvs	r4!, {r0, r3, r5, r6, r8, r9, ip, sp, lr}^
 64c:	00746967 	rsbseq	r6, r4, r7, ror #18
 650:	73747570 	cmnvc	r4, #112, 10	; 0x1c000000
 654:	0070665f 	rsbseq	r6, r0, pc, asr r6
 658:	65736162 	ldrbvs	r6, [r3, #-354]!	; 0x162
 65c:	67697300 	strbvs	r7, [r9, -r0, lsl #6]!
 660:	5f64656e 	svcpl	0x0064656e
 664:	696c0070 	stmdbvs	ip!, {r4, r5, r6}^
 668:	762f6362 	strtvc	r6, [pc], -r2, ror #6
 66c:	72702d61 	rsbsvc	r2, r0, #6208	; 0x1840
 670:	6b746e69 	blvs	1d1c01c <__bss_end__+0x1d0d724>
 674:	7200632e 	andvc	r6, r0, #-1207959552	; 0xb8000000
 678:	735f6970 	cmpvc	pc, #112, 18	; 0x1c0000
 67c:	6f5f7465 	svcvs	0x005f7465
 680:	75707475 	ldrbvc	r7, [r0, #-1141]!	; 0x475
 684:	69770074 	ldmdbvs	r7!, {r2, r4, r5, r6}^
 688:	00687464 	rsbeq	r7, r8, r4, ror #8
 68c:	63747570 	cmnvs	r4, #112, 10	; 0x1c000000
 690:	0070665f 	rsbseq	r6, r0, pc, asr r6
 694:	74696d65 	strbtvc	r6, [r9], #-3429	; 0xd65
 698:	69707200 	ldmdbvs	r0!, {r9, ip, sp, lr}^
 69c:	6265725f 	rsbvs	r7, r5, #-268435451	; 0xf0000005
 6a0:	00746f6f 	rsbseq	r6, r4, pc, ror #30
 6a4:	34317363 	ldrtcc	r7, [r1], #-867	; 0x363
 6a8:	732d6530 	teqvc	sp, #48, 10	; 0xc000000
 6ac:	632f6372 	teqvs	pc, #-939524095	; 0xc8000001
 6b0:	6e61656c 	cdpvs	5, 6, cr6, cr1, cr12, {3}
 6b4:	6265722d 	rsbvs	r7, r5, #-805306366	; 0xd0000002
 6b8:	2e746f6f 	cdpcs	15, 7, cr6, cr4, cr15, {3}
 6bc:	65640063 	strbvs	r0, [r4, #-99]!	; 0x63
 6c0:	5f79616c 	svcpl	0x0079616c
 6c4:	6900736d 	stmdbvs	r0, {r0, r2, r3, r5, r6, r8, r9, ip, sp, lr}
 6c8:	7265746e 	rsbvc	r7, r5, #1845493760	; 0x6e000000
 6cc:	5f6c616e 	svcpl	0x006c616e
 6d0:	705f7773 	subsvc	r7, pc, r3, ror r7	; <UNPREDICTABLE>
 6d4:	68637475 	stmdavs	r3!, {r0, r2, r4, r5, r6, sl, ip, sp, lr}^
 6d8:	5f007261 	svcpl	0x00007261
 6dc:	7373625f 	cmnvc	r3, #-268435451	; 0xf0000005
 6e0:	6174735f 	cmnvs	r4, pc, asr r3
 6e4:	5f5f7472 	svcpl	0x005f7472
 6e8:	73736200 	cmnvc	r3, #0, 4
 6ec:	646e655f 	strbtvs	r6, [lr], #-1375	; 0x55f
 6f0:	6e6f6300 	cdpvs	3, 6, cr6, cr15, cr0, {0}
 6f4:	656c6f73 	strbvs	r6, [ip, #-3955]!	; 0xf73
 6f8:	7261755f 	rsbvc	r7, r1, #398458880	; 0x17c00000
 6fc:	77730074 			; <UNDEFINED> instruction: 0x77730074
 700:	7261755f 	rsbvc	r7, r1, #398458880	; 0x17c00000
 704:	72705f74 	rsbsvc	r5, r0, #116, 30	; 0x1d0
 708:	6b746e69 	blvs	1d1c0b4 <__bss_end__+0x1d0d7bc>
 70c:	54555000 	ldrbpl	r5, [r5], #-0
 710:	53455f43 	movtpl	r5, #24387	; 0x5f43
 714:	41555f50 	cmpmi	r5, r0, asr pc
 718:	50005452 	andpl	r5, r0, r2, asr r4
 71c:	5f435455 	svcpl	0x00435455
 720:	555f5753 	ldrbpl	r5, [pc, #-1875]	; ffffffd5 <__bss_end__+0xffff16dd>
 724:	00545241 	subseq	r5, r4, r1, asr #4
 728:	43545550 	cmpmi	r4, #80, 10	; 0x14000000
 72c:	5f57485f 	svcpl	0x0057485f
 730:	54524155 	ldrbpl	r4, [r2], #-341	; 0x155
 734:	73635f00 	cmnvc	r3, #0, 30
 738:	74726174 	ldrbtvc	r6, [r2], #-372	; 0x174
 73c:	72617500 	rsbvc	r7, r1, #0, 10
 740:	65645f74 	strbvs	r5, [r4, #-3956]!	; 0xf74
 744:	00745f76 	rsbseq	r5, r4, r6, ror pc
 748:	746e6f63 	strbtvc	r6, [lr], #-3939	; 0xf63
 74c:	5f6c6f72 	svcpl	0x006c6f72
 750:	5f6b6c62 	svcpl	0x006b6c62
 754:	62630074 	rsbvs	r0, r3, #116	; 0x74
 758:	7465675f 	strbtvc	r6, [r5], #-1887	; 0x75f
 75c:	6f6c625f 	svcvs	0x006c625f
 760:	5f006b63 	svcpl	0x00006b63
 764:	7373625f 	cmnvc	r3, #-268435451	; 0xf0000005
 768:	646e655f 	strbtvs	r6, [lr], #-1375	; 0x55f
 76c:	63005f5f 	movwvs	r5, #3935	; 0xf5f
 770:	30343173 	eorscc	r3, r4, r3, ror r1
 774:	72732d65 	rsbsvc	r2, r3, #6464	; 0x1940
 778:	73632f63 	cmnvc	r3, #396	; 0x18c
 77c:	74726174 	ldrbtvc	r6, [r2], #-372	; 0x174
 780:	6300632e 	movwvs	r6, #814	; 0x32e
 784:	6f736e6f 	svcvs	0x00736e6f
 788:	645f656c 	ldrbvs	r6, [pc], #-1388	; 790 <_start-0x7870>
 78c:	6d007665 	stcvs	6, cr7, [r0, #-404]	; 0xfffffe6c
 790:	63696761 	cmnvs	r9, #25427968	; 0x1840000
 794:	5f746100 	svcpl	0x00746100
 798:	72657375 	rsbvc	r7, r5, #-738197503	; 0xd4000001
 79c:	76656c5f 			; <UNDEFINED> instruction: 0x76656c5f
 7a0:	50006c65 	andpl	r6, r0, r5, ror #24
 7a4:	41505f4d 	cmpmi	r0, sp, asr #30
 7a8:	4f575353 	svcmi	0x00575353
 7ac:	63004452 	movwvs	r4, #1106	; 0x452
 7b0:	30343173 	eorscc	r3, r4, r3, ror r1
 7b4:	72732d65 	rsbsvc	r2, r3, #6464	; 0x1940
 7b8:	65722f63 	ldrbvs	r2, [r2, #-3939]!	; 0xf63
 7bc:	746f6f62 	strbtvc	r6, [pc], #-3938	; 7c4 <_start-0x783c>
 7c0:	5000632e 	andpl	r6, r0, lr, lsr #6
 7c4:	53525f4d 	cmppl	r2, #308	; 0x134
 7c8:	575f4354 			; <UNDEFINED> instruction: 0x575f4354
 7cc:	47464352 	smlsldmi	r4, r6, r2, r3
 7d0:	4c55465f 	mrrcmi	6, 5, r4, r5, cr15
 7d4:	45525f4c 	ldrbmi	r5, [r2, #-3916]	; 0xf4c
 7d8:	00544553 	subseq	r4, r4, r3, asr r5
 7dc:	575f4d50 			; <UNDEFINED> instruction: 0x575f4d50
 7e0:	00474f44 	subeq	r4, r7, r4, asr #30
 7e4:	5f746573 	svcpl	0x00746573
 7e8:	72657375 	rsbvc	r7, r5, #-738197503	; 0xd4000001
 7ec:	76656c5f 			; <UNDEFINED> instruction: 0x76656c5f
 7f0:	50006c65 	andpl	r6, r0, r5, ror #24
 7f4:	32335455 	eorscc	r5, r3, #1426063360	; 0x55000000
 7f8:	5f4d5000 	svcpl	0x004d5000
 7fc:	43545352 	cmpmi	r4, #1207959553	; 0x48000001
 800:	73706300 	cmnvc	r0, #0, 6
 804:	69740072 	ldmdbvs	r4!, {r1, r4, r5, r6}^
 808:	5f72656d 	svcpl	0x0072656d
 80c:	5f746567 	svcpl	0x00746567
 810:	63657375 	cmnvs	r5, #-738197503	; 0xd4000001
 814:	7761725f 			; <UNDEFINED> instruction: 0x7761725f
 818:	6c656400 	cfstrdvs	mvd6, [r5], #-0
 81c:	735f7961 	cmpvc	pc, #1589248	; 0x184000
 820:	63006365 	movwvs	r6, #869	; 0x365
 824:	30343173 	eorscc	r3, r4, r3, ror r1
 828:	72732d65 	rsbsvc	r2, r3, #6464	; 0x1940
 82c:	69742f63 	ldmdbvs	r4!, {r0, r1, r5, r6, r8, r9, sl, fp, sp}^
 830:	2e72656d 	cdpcs	5, 7, cr6, cr2, cr13, {3}
 834:	45470063 	strbmi	r0, [r7, #-99]	; 0x63
 838:	00323354 	eorseq	r3, r2, r4, asr r3
 83c:	6b636974 	blvs	18dae14 <__bss_end__+0x18cc51c>
 840:	65640073 	strbvs	r0, [r4, #-115]!	; 0x73
 844:	5f79616c 	svcpl	0x0079616c
 848:	6c637963 	stclvs	9, cr7, [r3], #-396	; 0xfffffe74
 84c:	64007365 	strvs	r7, [r0], #-869	; 0x365
 850:	79616c65 	stmdbvc	r1!, {r0, r2, r5, r6, sl, fp, sp, lr}^
 854:	0073755f 	rsbseq	r7, r3, pc, asr r5
 858:	656d6974 	strbvs	r6, [sp, #-2420]!	; 0x974
 85c:	65675f72 	strbvs	r5, [r7, #-3954]!	; 0xf72
 860:	73755f74 	cmnvc	r5, #116, 30	; 0x1d0
 864:	67006365 	strvs	r6, [r0, -r5, ror #6]
 868:	5f6f6970 	svcpl	0x006f6970
 86c:	6e657665 	cdpvs	6, 6, cr7, cr5, cr5, {3}
 870:	65645f74 	strbvs	r5, [r4, #-3956]!	; 0xf74
 874:	74636574 	strbtvc	r6, [r3], #-1396	; 0x574
 878:	47006465 	strmi	r6, [r0, -r5, ror #8]
 87c:	45534650 	ldrbmi	r4, [r3, #-1616]	; 0x650
 880:	4700324c 	strmi	r3, [r0, -ip, asr #4]
 884:	524c4350 	subpl	r4, ip, #80, 6	; 0x40000001
 888:	4e450030 	mcrmi	0, 2, r0, cr5, cr0, {1}
 88c:	454c4241 	strbmi	r4, [ip, #-577]	; 0x241
 890:	5152495f 	cmppl	r2, pc, asr r9
 894:	00325f53 	eorseq	r5, r2, r3, asr pc
 898:	675f7369 	ldrbvs	r7, [pc, -r9, ror #6]
 89c:	5f6f6970 	svcpl	0x006f6970
 8a0:	00746e69 	rsbseq	r6, r4, r9, ror #28
 8a4:	6f697067 	svcvs	0x00697067
 8a8:	7465735f 	strbtvc	r7, [r5], #-863	; 0x35f
 8ac:	66666f5f 	uqsaxvs	r6, r6, pc	; <UNPREDICTABLE>
 8b0:	2d796d00 	ldclcs	13, cr6, [r9, #-0]
 8b4:	2f637273 	svccs	0x00637273
 8b8:	6f697067 	svcvs	0x00697067
 8bc:	6900632e 	stmdbvs	r0, {r1, r2, r3, r5, r8, r9, sp, lr}
 8c0:	6d5f746e 	cfldrdvs	mvd7, [pc, #-440]	; 710 <_start-0x78f0>
 8c4:	006b7361 	rsbeq	r7, fp, r1, ror #6
 8c8:	45535047 	ldrbmi	r5, [r3, #-71]	; 0x47
 8cc:	47003054 	smlsdmi	r0, r4, r0, r3
 8d0:	54455350 	strbpl	r5, [r5], #-848	; 0x350
 8d4:	65720031 	ldrbvs	r0, [r2, #-49]!	; 0x31
 8d8:	74735f67 	ldrbtvc	r5, [r3], #-3943	; 0xf67
 8dc:	47007461 	strmi	r7, [r0, -r1, ror #8]
 8e0:	56454c50 			; <UNDEFINED> instruction: 0x56454c50
 8e4:	50470030 	subpl	r0, r7, r0, lsr r0
 8e8:	3156454c 	cmpcc	r6, ip, asr #10
 8ec:	69706700 	ldmdbvs	r0!, {r8, r9, sl, sp, lr}^
 8f0:	65725f6f 	ldrbvs	r5, [r2, #-3951]!	; 0xf6f
 8f4:	50470067 	subpl	r0, r7, r7, rrx
 8f8:	4c455346 	mcrrmi	3, 4, r5, r5, cr6
 8fc:	50470030 	subpl	r0, r7, r0, lsr r0
 900:	4c455346 	mcrrmi	3, 4, r5, r5, cr6
 904:	50470031 	subpl	r0, r7, r1, lsr r0
 908:	4c455346 	mcrrmi	3, 4, r5, r5, cr6
 90c:	50470033 	subpl	r0, r7, r3, lsr r0
 910:	4c455346 	mcrrmi	3, 4, r5, r5, cr6
 914:	50470034 	subpl	r0, r7, r4, lsr r0
 918:	4c455346 	mcrrmi	3, 4, r5, r5, cr6
 91c:	70670035 	rsbvc	r0, r7, r5, lsr r0
 920:	665f6f69 	ldrbvs	r6, [pc], -r9, ror #30
 924:	306c6573 	rsbcc	r6, ip, r3, ror r5
 928:	43504700 	cmpmi	r0, #0, 14
 92c:	0031524c 	eorseq	r5, r1, ip, asr #4
 930:	6f697067 	svcvs	0x00697067
 934:	6165725f 	cmnvs	r5, pc, asr r2
 938:	70670064 	rsbvc	r0, r7, r4, rrx
 93c:	695f6f69 	ldmdbvs	pc, {r0, r3, r5, r6, r8, r9, sl, fp, sp, lr}^	; <UNPREDICTABLE>
 940:	725f746e 	subsvc	r7, pc, #1845493760	; 0x6e000000
 944:	6e697369 	cdpvs	3, 6, cr7, cr9, cr9, {3}
 948:	64655f67 	strbtvs	r5, [r5], #-3943	; 0xf67
 94c:	47006567 	strmi	r6, [r0, -r7, ror #10]
 950:	4e455250 	mcrmi	2, 2, r5, cr5, cr0, {2}
 954:	50470030 	subpl	r0, r7, r0, lsr r0
 958:	314e4552 	cmpcc	lr, r2, asr r5
 95c:	69706700 	ldmdbvs	r0!, {r8, r9, sl, sp, lr}^
 960:	76655f6f 	strbtvc	r5, [r5], -pc, ror #30
 964:	5f746e65 	svcpl	0x00746e65
 968:	61656c63 	cmnvs	r5, r3, ror #24
 96c:	52490072 	subpl	r0, r9, #114	; 0x72
 970:	45505f51 	ldrbmi	r5, [r0, #-3921]	; 0xf51
 974:	4e49444e 	cdpmi	4, 4, cr4, cr9, cr14, {2}
 978:	00315f47 	eorseq	r5, r1, r7, asr #30
 97c:	5f515249 	svcpl	0x00515249
 980:	444e4550 	strbmi	r4, [lr], #-1360	; 0x550
 984:	5f474e49 	svcpl	0x00474e49
 988:	69620032 	stmdbvs	r2!, {r1, r4, r5}^
 98c:	73616d74 	cmnvc	r1, #116, 26	; 0x1d00
 990:	7067006b 	rsbvc	r0, r7, fp, rrx
 994:	775f6f69 	ldrbvc	r6, [pc, -r9, ror #30]
 998:	65746972 	ldrbvs	r6, [r4, #-2418]!	; 0x972
 99c:	69706700 	ldmdbvs	r0!, {r8, r9, sl, sp, lr}^
 9a0:	65735f6f 	ldrbvs	r5, [r3, #-3951]!	; 0xf6f
 9a4:	66003074 			; <UNDEFINED> instruction: 0x66003074
 9a8:	00636e75 	rsbeq	r6, r3, r5, ror lr
 9ac:	6f697067 	svcvs	0x00697067
 9b0:	7465735f 	strbtvc	r7, [r5], #-863	; 0x35f
 9b4:	706e695f 	rsbvc	r6, lr, pc, asr r9
 9b8:	47007475 	smlsdxmi	r0, r5, r4, r7
 9bc:	53444550 	movtpl	r4, #17744	; 0x4550
 9c0:	50470030 	subpl	r0, r7, r0, lsr r0
 9c4:	31534445 	cmpcc	r3, r5, asr #8
 9c8:	69706700 	ldmdbvs	r0!, {r8, r9, sl, sp, lr}^
 9cc:	65735f6f 	ldrbvs	r5, [r3, #-3951]!	; 0xf6f
 9d0:	6e6f5f74 	mcrvs	15, 3, r5, cr15, cr4, {3}
 9d4:	46504700 	ldrbmi	r4, [r0], -r0, lsl #14
 9d8:	00304e45 	eorseq	r4, r0, r5, asr #28
 9dc:	45465047 	strbmi	r5, [r6, #-71]	; 0x47
 9e0:	6700314e 	strvs	r3, [r0, -lr, asr #2]
 9e4:	5f6f6970 	svcpl	0x006f6970
 9e8:	5f746573 	svcpl	0x00746573
 9ec:	7074756f 	rsbsvc	r7, r4, pc, ror #10
 9f0:	67007475 	smlsdxvs	r0, r5, r4, r7
 9f4:	5f6f6970 	svcpl	0x006f6970
 9f8:	5f746e69 	svcpl	0x00746e69
 9fc:	6c6c6166 	stfvse	f6, [ip], #-408	; 0xfffffe68
 a00:	5f676e69 	svcpl	0x00676e69
 a04:	65676465 	strbvs	r6, [r7, #-1125]!	; 0x465
 a08:	67657200 	strbvs	r7, [r5, -r0, lsl #4]!
 a0c:	6c65735f 	stclvs	3, cr7, [r5], #-380	; 0xfffffe84
 a10:	00746365 	rsbseq	r6, r4, r5, ror #6
 a14:	6f697067 	svcvs	0x00697067
 a18:	726c635f 	rsbvc	r6, ip, #2080374785	; 0x7c000001
 a1c:	79630030 	stmdbvc	r3!, {r4, r5}^
 a20:	65705f63 	ldrbvs	r5, [r0, #-3939]!	; 0xf63
 a24:	69625f72 	stmdbvs	r2!, {r1, r4, r5, r6, r8, r9, sl, fp, ip, lr}^
 a28:	72770074 	rsbsvc	r0, r7, #116	; 0x74
 a2c:	5f657469 	svcpl	0x00657469
 a30:	5f637963 	svcpl	0x00637963
 a34:	69746e75 	ldmdbvs	r4!, {r0, r2, r4, r5, r6, r9, sl, fp, sp, lr}^
 a38:	7773006c 	ldrbvc	r0, [r3, -ip, rrx]!
 a3c:	7261755f 	rsbvc	r7, r1, #398458880	; 0x17c00000
 a40:	65675f74 	strbvs	r5, [r7, #-3956]!	; 0xf74
 a44:	745f6374 	ldrbvc	r6, [pc], #-884	; a4c <_start-0x75b4>
 a48:	6f656d69 	svcvs	0x00656d69
 a4c:	73007475 	movwvc	r7, #1141	; 0x475
 a50:	61755f77 	cmnvs	r5, r7, ror pc
 a54:	675f7472 			; <UNDEFINED> instruction: 0x675f7472
 a58:	5f737465 	svcpl	0x00737465
 a5c:	69746e75 	ldmdbvs	r4!, {r0, r2, r4, r5, r6, r9, sl, fp, sp, lr}^
 a60:	7773006c 	ldrbvc	r0, [r3, -ip, rrx]!
 a64:	7261755f 	rsbvc	r7, r1, #398458880	; 0x17c00000
 a68:	65675f74 	strbvs	r5, [r7, #-3956]!	; 0xf74
 a6c:	64006374 	strvs	r6, [r0], #-884	; 0x374
 a70:	76697265 	strbtvc	r7, [r9], -r5, ror #4
 a74:	64006465 	strvs	r6, [r0], #-1125	; 0x465
 a78:	79616c65 	stmdbvc	r1!, {r0, r2, r5, r6, sl, fp, sp, lr}^
 a7c:	79636e5f 	stmdbvc	r3!, {r0, r1, r2, r3, r4, r6, r9, sl, fp, sp, lr}^
 a80:	73656c63 	cmnvc	r5, #25344	; 0x6300
 a84:	6d697400 	cfstrdvs	mvd7, [r9, #-0]
 a88:	74756f65 	ldrbtvc	r6, [r5], #-3941	; 0xf65
 a8c:	6573755f 	ldrbvs	r7, [r3, #-1375]!	; 0x55f
 a90:	77730063 	ldrbvc	r0, [r3, -r3, rrx]!
 a94:	7261755f 	rsbvc	r7, r1, #398458880	; 0x17c00000
 a98:	75705f74 	ldrbvc	r5, [r0, #-3956]!	; 0xf74
 a9c:	6d006b74 	vstrvs	d6, [r0, #-464]	; 0xfffffe30
 aa0:	72732d79 	rsbsvc	r2, r3, #7744	; 0x1e40
 aa4:	77732f63 	ldrbvc	r2, [r3, -r3, ror #30]!
 aa8:	7261752d 	rsbvc	r7, r1, #188743680	; 0xb400000
 aac:	00632e74 	rsbeq	r2, r3, r4, ror lr
 ab0:	72616863 	rsbvc	r6, r1, #6488064	; 0x630000
 ab4:	006e695f 	rsbeq	r6, lr, pc, asr r9
 ab8:	755f7773 	ldrbvc	r7, [pc, #-1907]	; 34d <_start-0x7cb3>
 abc:	5f747261 	svcpl	0x00747261
 ac0:	73746567 	cmnvc	r4, #432013312	; 0x19c00000
 ac4:	6d69745f 	cfstrdvs	mvd7, [r9, #-380]!	; 0xfffffe84
 ac8:	74756f65 	ldrbtvc	r6, [r5], #-3941	; 0xf65
 acc:	756f5f00 	strbvc	r5, [pc, #-3840]!	; fffffbd4 <__bss_end__+0xffff12dc>
 ad0:	626e0074 	rsbvs	r0, lr, #116	; 0x74
 ad4:	73657479 	cmnvc	r5, #2030043136	; 0x79000000
 ad8:	65737500 	ldrbvs	r7, [r3, #-1280]!	; 0x500
 adc:	69745f63 	ldmdbvs	r4!, {r0, r1, r5, r6, r8, r9, sl, fp, ip, lr}^
 ae0:	756f656d 	strbvc	r6, [pc, #-1389]!	; 57b <_start-0x7a85>
 ae4:	77730074 			; <UNDEFINED> instruction: 0x77730074
 ae8:	7261755f 	rsbvc	r7, r1, #398458880	; 0x17c00000
 aec:	65675f74 	strbvs	r5, [r7, #-3956]!	; 0xf74
 af0:	755f7374 	ldrbvc	r7, [pc, #-884]	; 784 <_start-0x787c>
 af4:	6c69746e 	cfstrdvs	mvd7, [r9], #-440	; 0xfffffe48
 af8:	6b6c625f 	blvs	1b1947c <__bss_end__+0x1b0ab84>
 afc:	69617700 	stmdbvs	r1!, {r8, r9, sl, ip, sp, lr}^
 b00:	6e755f74 	mrcvs	15, 3, r5, cr5, cr4, {3}
 b04:	5f6c6974 	svcpl	0x006c6974
 b08:	63657375 	cmnvs	r5, #-738197503	; 0xd4000001
 b0c:	72617500 	rsbvc	r7, r1, #0, 10
 b10:	61685f74 	smcvs	34292	; 0x85f4
 b14:	61645f73 	smcvs	17907	; 0x45f3
 b18:	75006174 	strvc	r6, [r0, #-372]	; 0x174
 b1c:	5f747261 	svcpl	0x00747261
 b20:	74696e69 	strbtvc	r6, [r9], #-3689	; 0xe69
 b24:	2d796d00 	ldclcs	13, cr6, [r9, #-0]
 b28:	2f637273 	svccs	0x00637273
 b2c:	74726175 	ldrbtvc	r6, [r2], #-373	; 0x175
 b30:	7500632e 	strvc	r6, [r0, #-814]	; 0x32e
 b34:	5f747261 	svcpl	0x00747261
 b38:	63746567 	cmnvs	r4, #432013312	; 0x19c00000
 b3c:	7973615f 	ldmdbvc	r3!, {r0, r1, r2, r3, r4, r6, r8, sp, lr}^
 b40:	7000636e 	andvc	r6, r0, lr, ror #6
 b44:	65666572 	strbvs	r6, [r6, #-1394]!	; 0x572
 b48:	5f686374 	svcpl	0x00686374
 b4c:	726f6261 	rsbvc	r6, pc, #268435462	; 0x10000006
 b50:	65765f74 	ldrbvs	r5, [r6, #-3956]!	; 0xf74
 b54:	726f7463 	rsbvc	r7, pc, #1660944384	; 0x63000000
 b58:	73694400 	cmnvc	r9, #0, 8
 b5c:	656c6261 	strbvs	r6, [ip, #-609]!	; 0x261
 b60:	7361425f 	cmnvc	r1, #-268435451	; 0xf0000005
 b64:	495f6369 	ldmdbmi	pc, {r0, r3, r5, r6, r8, r9, sp, lr}^	; <UNPREDICTABLE>
 b68:	00735152 	rsbseq	r5, r3, r2, asr r1
 b6c:	5f514946 	svcpl	0x00514946
 b70:	746e6f63 	strbtvc	r6, [lr], #-3939	; 0xf63
 b74:	006c6f72 	rsbeq	r6, ip, r2, ror pc
 b78:	746e695f 	strbtvc	r6, [lr], #-2399	; 0x95f
 b7c:	75727265 	ldrbvc	r7, [r2, #-613]!	; 0x265
 b80:	745f7470 	ldrbvc	r7, [pc], #-1136	; b88 <_start-0x7478>
 b84:	656c6261 	strbvs	r6, [ip, #-609]!	; 0x261
 b88:	51524900 	cmppl	r2, r0, lsl #18
 b8c:	7361625f 	cmnvc	r1, #-268435451	; 0xf0000005
 b90:	705f6369 	subsvc	r6, pc, r9, ror #6
 b94:	69646e65 	stmdbvs	r4!, {r0, r2, r5, r6, r9, sl, fp, sp, lr}^
 b98:	4500676e 	strmi	r6, [r0, #-1902]	; 0x76e
 b9c:	6c62616e 	stfvse	f6, [r2], #-440	; 0xfffffe48
 ba0:	61425f65 	cmpvs	r2, r5, ror #30
 ba4:	5f636973 	svcpl	0x00636973
 ba8:	73515249 	cmpvc	r1, #-1879048188	; 0x90000004
 bac:	616e4500 	cmnvs	lr, r0, lsl #10
 bb0:	5f656c62 	svcpl	0x00656c62
 bb4:	73515249 	cmpvc	r1, #-1879048188	; 0x90000004
 bb8:	4500315f 	strmi	r3, [r0, #-351]	; 0x15f
 bbc:	6c62616e 	stfvse	f6, [r2], #-440	; 0xfffffe48
 bc0:	52495f65 	subpl	r5, r9, #404	; 0x194
 bc4:	325f7351 	subscc	r7, pc, #1140850689	; 0x44000001
 bc8:	6e695f00 	cdpvs	15, 6, cr5, cr9, cr0, {0}
 bcc:	72726574 	rsbsvc	r6, r2, #116, 10	; 0x1d000000
 bd0:	5f747075 	svcpl	0x00747075
 bd4:	6c626174 	stfvse	f6, [r2], #-464	; 0xfffffe30
 bd8:	6e655f65 	cdpvs	15, 6, cr5, cr5, cr5, {3}
 bdc:	61640064 	cmnvs	r4, r4, rrx
 be0:	615f6174 	cmpvs	pc, r4, ror r1	; <UNPREDICTABLE>
 be4:	74726f62 	ldrbtvc	r6, [r2], #-3938	; 0xf62
 be8:	6365765f 	cmnvs	r5, #99614720	; 0x5f00000
 bec:	00726f74 	rsbseq	r6, r2, r4, ror pc
 bf0:	5f515249 	svcpl	0x00515249
 bf4:	646e6570 	strbtvs	r6, [lr], #-1392	; 0x570
 bf8:	5f676e69 	svcpl	0x00676e69
 bfc:	73630032 	cmnvc	r3, #50	; 0x32
 c00:	65303431 	ldrvs	r3, [r0, #-1073]!	; 0x431
 c04:	746e692d 	strbtvc	r6, [lr], #-2349	; 0x92d
 c08:	75727265 	ldrbvc	r7, [r2, #-613]!	; 0x265
 c0c:	692f7470 	stmdbvs	pc!, {r4, r5, r6, sl, ip, sp, lr}	; <UNPREDICTABLE>
 c10:	7265746e 	rsbvc	r7, r5, #1845493760	; 0x6e000000
 c14:	74707572 	ldrbtvc	r7, [r0], #-1394	; 0x572
 c18:	2e632d73 	mcrcs	13, 3, r2, cr3, cr3, {3}
 c1c:	52490063 	subpl	r0, r9, #99	; 0x63
 c20:	65705f51 	ldrbvs	r5, [r0, #-3921]!	; 0xf51
 c24:	6e69646e 	cdpvs	4, 6, cr6, cr9, cr14, {3}
 c28:	00315f67 	eorseq	r5, r1, r7, ror #30
 c2c:	65646e75 	strbvs	r6, [r4, #-3701]!	; 0xe75
 c30:	656e6966 	strbvs	r6, [lr, #-2406]!	; 0x966
 c34:	6e695f64 	cdpvs	15, 6, cr5, cr9, cr4, {3}
 c38:	75727473 	ldrbvc	r7, [r2, #-1139]!	; 0x473
 c3c:	6f697463 	svcvs	0x00697463
 c40:	65765f6e 	ldrbvs	r5, [r6, #-3950]!	; 0xf6e
 c44:	726f7463 	rsbvc	r7, pc, #1660944384	; 0x63000000
 c48:	73657200 	cmnvc	r5, #0, 4
 c4c:	765f7465 	ldrbvc	r7, [pc], -r5, ror #8
 c50:	6f746365 	svcvs	0x00746365
 c54:	6f730072 	svcvs	0x00730072
 c58:	61777466 	cmnvs	r7, r6, ror #8
 c5c:	695f6572 	ldmdbvs	pc, {r1, r4, r5, r6, r8, sl, sp, lr}^	; <UNPREDICTABLE>
 c60:	7265746e 	rsbvc	r7, r5, #1845493760	; 0x6e000000
 c64:	74707572 	ldrbtvc	r7, [r0], #-1394	; 0x572
 c68:	6365765f 	cmnvs	r5, #99614720	; 0x5f00000
 c6c:	00726f74 	rsbseq	r6, r2, r4, ror pc
 c70:	61736944 	cmnvs	r3, r4, asr #18
 c74:	5f656c62 	svcpl	0x00656c62
 c78:	73515249 	cmpvc	r1, #-1879048188	; 0x90000004
 c7c:	4400315f 	strmi	r3, [r0], #-351	; 0x15f
 c80:	62617369 	rsbvs	r7, r1, #-1543503871	; 0xa4000001
 c84:	495f656c 	ldmdbmi	pc, {r2, r3, r5, r6, r8, sl, sp, lr}^	; <UNPREDICTABLE>
 c88:	5f735152 	svcpl	0x00735152
 c8c:	61660032 	cmnvs	r6, r2, lsr r0
 c90:	695f7473 	ldmdbvs	pc, {r0, r1, r4, r5, r6, sl, ip, sp, lr}^	; <UNPREDICTABLE>
 c94:	7265746e 	rsbvc	r7, r5, #1845493760	; 0x6e000000
 c98:	74707572 	ldrbtvc	r7, [r0], #-1394	; 0x572
 c9c:	6365765f 	cmnvs	r5, #99614720	; 0x5f00000
 ca0:	00726f74 	rsbseq	r6, r2, r4, ror pc
 ca4:	5f515249 	svcpl	0x00515249
 ca8:	65736142 	ldrbvs	r6, [r3, #-322]!	; 0x142
 cac:	5f626300 	svcpl	0x00626300
 cb0:	0077656e 	rsbseq	r6, r7, lr, ror #10
 cb4:	34317363 	ldrtcc	r7, [r1], #-867	; 0x363
 cb8:	732d6530 	teqvc	sp, #48, 10	; 0xc000000
 cbc:	632f6372 	teqvs	pc, #-939524095	; 0xc8000001
 cc0:	72746e6f 	rsbsvc	r6, r4, #1776	; 0x6f0
 cc4:	622d6c6f 	eorvs	r6, sp, #28416	; 0x6f00
 cc8:	6b636f6c 	blvs	18dca80 <__bss_end__+0x18ce188>
 ccc:	Address 0x0000000000000ccc is out of bounds.


Disassembly of section .debug_frame:

00000000 <.debug_frame>:
   0:	0000000c 	andeq	r0, r0, ip
   4:	ffffffff 			; <UNDEFINED> instruction: 0xffffffff
   8:	7c020001 	stcvc	0, cr0, [r2], {1}
   c:	000d0c0e 	andeq	r0, sp, lr, lsl #24
  10:	00000018 	andeq	r0, r0, r8, lsl r0
  14:	00000000 	andeq	r0, r0, r0
  18:	00008010 	andeq	r8, r0, r0, lsl r0
  1c:	000001b4 			; <UNDEFINED> instruction: 0x000001b4
  20:	83100e42 	tsthi	r0, #1056	; 0x420
  24:	85038404 	strhi	r8, [r3, #-1028]	; 0x404
  28:	00018e02 	andeq	r8, r1, r2, lsl #28
  2c:	0000000c 	andeq	r0, r0, ip
  30:	00000000 	andeq	r0, r0, r0
  34:	000081c4 	andeq	r8, r0, r4, asr #3
  38:	00000028 	andeq	r0, r0, r8, lsr #32
  3c:	00000014 	andeq	r0, r0, r4, lsl r0
  40:	00000000 	andeq	r0, r0, r0
  44:	000081ec 	andeq	r8, r0, ip, ror #3
  48:	00000054 	andeq	r0, r0, r4, asr r0
  4c:	84080e42 	strhi	r0, [r8], #-3650	; 0xe42
  50:	00018e02 	andeq	r8, r1, r2, lsl #28
  54:	0000001c 	andeq	r0, r0, ip, lsl r0
  58:	00000000 	andeq	r0, r0, r0
  5c:	00008240 	andeq	r8, r0, r0, asr #4
  60:	00000148 	andeq	r0, r0, r8, asr #2
  64:	84180e42 	ldrhi	r0, [r8], #-3650	; 0xe42
  68:	86058506 	strhi	r8, [r5], -r6, lsl #10
  6c:	88038704 	stmdahi	r3, {r2, r8, r9, sl, pc}
  70:	00018e02 	andeq	r8, r1, r2, lsl #28
  74:	00000020 	andeq	r0, r0, r0, lsr #32
  78:	00000000 	andeq	r0, r0, r0
  7c:	00008388 	andeq	r8, r0, r8, lsl #7
  80:	000000e0 	andeq	r0, r0, r0, ror #1
  84:	83200e42 	teqhi	r0, #1056	; 0x420
  88:	85078408 	strhi	r8, [r7, #-1032]	; 0x408
  8c:	87058606 	strhi	r8, [r5, -r6, lsl #12]
  90:	89038804 	stmdbhi	r3, {r2, fp, pc}
  94:	00018e02 	andeq	r8, r1, r2, lsl #28
  98:	0000000c 	andeq	r0, r0, ip
  9c:	00000000 	andeq	r0, r0, r0
  a0:	00008468 	andeq	r8, r0, r8, ror #8
  a4:	00000078 	andeq	r0, r0, r8, ror r0
  a8:	00000014 	andeq	r0, r0, r4, lsl r0
  ac:	00000000 	andeq	r0, r0, r0
  b0:	000084e0 	andeq	r8, r0, r0, ror #9
  b4:	00000024 	andeq	r0, r0, r4, lsr #32
  b8:	84080e42 	strhi	r0, [r8], #-3650	; 0xe42
  bc:	00018e02 	andeq	r8, r1, r2, lsl #28
  c0:	00000014 	andeq	r0, r0, r4, lsl r0
  c4:	00000000 	andeq	r0, r0, r0
  c8:	00008504 	andeq	r8, r0, r4, lsl #10
  cc:	000000bc 	strheq	r0, [r0], -ip
  d0:	84080e42 	strhi	r0, [r8], #-3650	; 0xe42
  d4:	00018e02 	andeq	r8, r1, r2, lsl #28
  d8:	0000001c 	andeq	r0, r0, ip, lsl r0
  dc:	00000000 	andeq	r0, r0, r0
  e0:	000085c0 	andeq	r8, r0, r0, asr #11
  e4:	000000e0 	andeq	r0, r0, r0, ror #1
  e8:	84100e42 	ldrhi	r0, [r0], #-3650	; 0xe42
  ec:	86038504 	strhi	r8, [r3], -r4, lsl #10
  f0:	42018e02 	andmi	r8, r1, #2, 28
  f4:	0000280e 	andeq	r2, r0, lr, lsl #16
  f8:	0000000c 	andeq	r0, r0, ip
  fc:	ffffffff 			; <UNDEFINED> instruction: 0xffffffff
 100:	7c020001 	stcvc	0, cr0, [r2], {1}
 104:	000d0c0e 	andeq	r0, sp, lr, lsl #24
 108:	0000000c 	andeq	r0, r0, ip
 10c:	000000f8 	strdeq	r0, [r0], -r8
 110:	000086a0 	andeq	r8, r0, r0, lsr #13
 114:	00000020 	andeq	r0, r0, r0, lsr #32
 118:	0000000c 	andeq	r0, r0, ip
 11c:	ffffffff 			; <UNDEFINED> instruction: 0xffffffff
 120:	7c020001 	stcvc	0, cr0, [r2], {1}
 124:	000d0c0e 	andeq	r0, sp, lr, lsl #24
 128:	00000024 	andeq	r0, r0, r4, lsr #32
 12c:	00000118 	andeq	r0, r0, r8, lsl r1
 130:	000086c0 	andeq	r8, r0, r0, asr #13
 134:	00000058 	andeq	r0, r0, r8, asr r0
 138:	80100e42 	andshi	r0, r0, r2, asr #28
 13c:	82038104 	andhi	r8, r3, #4, 2
 140:	42018302 	andmi	r8, r1, #134217728	; 0x8000000
 144:	07841c0e 	streq	r1, [r4, lr, lsl #24]
 148:	058e0685 	streq	r0, [lr, #1669]	; 0x685
 14c:	00280e42 	eoreq	r0, r8, r2, asr #28
 150:	0000000c 	andeq	r0, r0, ip
 154:	ffffffff 			; <UNDEFINED> instruction: 0xffffffff
 158:	7c020001 	stcvc	0, cr0, [r2], {1}
 15c:	000d0c0e 	andeq	r0, sp, lr, lsl #24
 160:	00000014 	andeq	r0, r0, r4, lsl r0
 164:	00000150 	andeq	r0, r0, r0, asr r1
 168:	00008718 	andeq	r8, r0, r8, lsl r7
 16c:	00000014 	andeq	r0, r0, r4, lsl r0
 170:	84080e42 	strhi	r0, [r8], #-3650	; 0xe42
 174:	00018e02 	andeq	r8, r1, r2, lsl #28
 178:	0000000c 	andeq	r0, r0, ip
 17c:	00000150 	andeq	r0, r0, r0, asr r1
 180:	0000872c 	andeq	r8, r0, ip, lsr #14
 184:	00000018 	andeq	r0, r0, r8, lsl r0
 188:	0000000c 	andeq	r0, r0, ip
 18c:	00000150 	andeq	r0, r0, r0, asr r1
 190:	00008744 	andeq	r8, r0, r4, asr #14
 194:	00000010 	andeq	r0, r0, r0, lsl r0
 198:	0000000c 	andeq	r0, r0, ip
 19c:	ffffffff 			; <UNDEFINED> instruction: 0xffffffff
 1a0:	7c020001 	stcvc	0, cr0, [r2], {1}
 1a4:	000d0c0e 	andeq	r0, sp, lr, lsl #24
 1a8:	00000018 	andeq	r0, r0, r8, lsl r0
 1ac:	00000198 	muleq	r0, r8, r1
 1b0:	00008754 	andeq	r8, r0, r4, asr r7
 1b4:	00000034 	andeq	r0, r0, r4, lsr r0
 1b8:	83100e42 	tsthi	r0, #1056	; 0x420
 1bc:	85038404 	strhi	r8, [r3, #-1028]	; 0x404
 1c0:	00018e02 	andeq	r8, r1, r2, lsl #28
 1c4:	0000000c 	andeq	r0, r0, ip
 1c8:	ffffffff 			; <UNDEFINED> instruction: 0xffffffff
 1cc:	7c020001 	stcvc	0, cr0, [r2], {1}
 1d0:	000d0c0e 	andeq	r0, sp, lr, lsl #24
 1d4:	0000000c 	andeq	r0, r0, ip
 1d8:	000001c4 	andeq	r0, r0, r4, asr #3
 1dc:	00008788 	andeq	r8, r0, r8, lsl #15
 1e0:	00000014 	andeq	r0, r0, r4, lsl r0
 1e4:	0000000c 	andeq	r0, r0, ip
 1e8:	000001c4 	andeq	r0, r0, r4, asr #3
 1ec:	0000879c 	muleq	r0, ip, r7
 1f0:	0000002c 	andeq	r0, r0, ip, lsr #32
 1f4:	0000000c 	andeq	r0, r0, ip
 1f8:	000001c4 	andeq	r0, r0, r4, asr #3
 1fc:	000087c8 	andeq	r8, r0, r8, asr #15
 200:	00000040 	andeq	r0, r0, r0, asr #32
 204:	00000020 	andeq	r0, r0, r0, lsr #32
 208:	000001c4 	andeq	r0, r0, r4, asr #3
 20c:	00008808 	andeq	r8, r0, r8, lsl #16
 210:	0000019c 	muleq	r0, ip, r1
 214:	84180e42 	ldrhi	r0, [r8], #-3650	; 0xe42
 218:	86058506 	strhi	r8, [r5], -r6, lsl #10
 21c:	88038704 	stmdahi	r3, {r2, r8, r9, sl, pc}
 220:	42018e02 	andmi	r8, r1, #2, 28
 224:	0000580e 	andeq	r5, r0, lr, lsl #16
 228:	00000014 	andeq	r0, r0, r4, lsl r0
 22c:	000001c4 	andeq	r0, r0, r4, asr #3
 230:	000089a4 	andeq	r8, r0, r4, lsr #19
 234:	00000054 	andeq	r0, r0, r4, asr r0
 238:	83080e42 	movwhi	r0, #36418	; 0x8e42
 23c:	00018e02 	andeq	r8, r1, r2, lsl #28
 240:	00000028 	andeq	r0, r0, r8, lsr #32
 244:	000001c4 	andeq	r0, r0, r4, asr #3
 248:	000089f8 	strdeq	r8, [r0], -r8	; <UNPREDICTABLE>
 24c:	00000288 	andeq	r0, r0, r8, lsl #5
 250:	84240e42 	strthi	r0, [r4], #-3650	; 0xe42
 254:	86088509 	strhi	r8, [r8], -r9, lsl #10
 258:	88068707 	stmdahi	r6, {r0, r1, r2, r8, r9, sl, pc}
 25c:	8a048905 	bhi	122678 <__bss_end__+0x113d80>
 260:	8e028b03 	vmlahi.f64	d8, d2, d3
 264:	b00e4201 	andlt	r4, lr, r1, lsl #4
 268:	00000001 	andeq	r0, r0, r1
 26c:	0000000c 	andeq	r0, r0, ip
 270:	ffffffff 			; <UNDEFINED> instruction: 0xffffffff
 274:	7c020001 	stcvc	0, cr0, [r2], {1}
 278:	000d0c0e 	andeq	r0, sp, lr, lsl #24
 27c:	00000014 	andeq	r0, r0, r4, lsl r0
 280:	0000026c 	andeq	r0, r0, ip, ror #4
 284:	00008c80 	andeq	r8, r0, r0, lsl #25
 288:	00000028 	andeq	r0, r0, r8, lsr #32
 28c:	83080e42 	movwhi	r0, #36418	; 0x8e42
 290:	00018e02 	andeq	r8, r1, r2, lsl #28
 294:	0000000c 	andeq	r0, r0, ip
 298:	ffffffff 			; <UNDEFINED> instruction: 0xffffffff
 29c:	7c020001 	stcvc	0, cr0, [r2], {1}
 2a0:	000d0c0e 	andeq	r0, sp, lr, lsl #24
 2a4:	00000014 	andeq	r0, r0, r4, lsl r0
 2a8:	00000294 	muleq	r0, r4, r2
 2ac:	00008ca8 	andeq	r8, r0, r8, lsr #25
 2b0:	00000020 	andeq	r0, r0, r0, lsr #32
 2b4:	84080e42 	strhi	r0, [r8], #-3650	; 0xe42
 2b8:	00018e02 	andeq	r8, r1, r2, lsl #28
 2bc:	00000014 	andeq	r0, r0, r4, lsl r0
 2c0:	00000294 	muleq	r0, r4, r2
 2c4:	00008cc8 	andeq	r8, r0, r8, asr #25
 2c8:	00000090 	muleq	r0, r0, r0
 2cc:	83080e42 	movwhi	r0, #36418	; 0x8e42
 2d0:	00018e02 	andeq	r8, r1, r2, lsl #28
 2d4:	0000000c 	andeq	r0, r0, ip
 2d8:	ffffffff 			; <UNDEFINED> instruction: 0xffffffff
 2dc:	7c020001 	stcvc	0, cr0, [r2], {1}
 2e0:	000d0c0e 	andeq	r0, sp, lr, lsl #24
 2e4:	0000000c 	andeq	r0, r0, ip
 2e8:	000002d4 	ldrdeq	r0, [r0], -r4
 2ec:	00008d58 	andeq	r8, r0, r8, asr sp
 2f0:	00000018 	andeq	r0, r0, r8, lsl r0
 2f4:	0000000c 	andeq	r0, r0, ip
 2f8:	000002d4 	ldrdeq	r0, [r0], -r4
 2fc:	00008d70 	andeq	r8, r0, r0, ror sp
 300:	00000014 	andeq	r0, r0, r4, lsl r0
 304:	00000014 	andeq	r0, r0, r4, lsl r0
 308:	000002d4 	ldrdeq	r0, [r0], -r4
 30c:	00008d84 	andeq	r8, r0, r4, lsl #27
 310:	00000048 	andeq	r0, r0, r8, asr #32
 314:	83080e42 	movwhi	r0, #36418	; 0x8e42
 318:	00018e02 	andeq	r8, r1, r2, lsl #28
 31c:	0000000c 	andeq	r0, r0, ip
 320:	ffffffff 			; <UNDEFINED> instruction: 0xffffffff
 324:	7c020001 	stcvc	0, cr0, [r2], {1}
 328:	000d0c0e 	andeq	r0, sp, lr, lsl #24
 32c:	0000000c 	andeq	r0, r0, ip
 330:	0000031c 	andeq	r0, r0, ip, lsl r3
 334:	00008dcc 	andeq	r8, r0, ip, asr #27
 338:	0000001c 	andeq	r0, r0, ip, lsl r0
 33c:	00000014 	andeq	r0, r0, r4, lsl r0
 340:	0000031c 	andeq	r0, r0, ip, lsl r3
 344:	00008de8 	andeq	r8, r0, r8, ror #27
 348:	00000014 	andeq	r0, r0, r4, lsl r0
 34c:	83080e42 	movwhi	r0, #36418	; 0x8e42
 350:	00018e02 	andeq	r8, r1, r2, lsl #28
 354:	00000014 	andeq	r0, r0, r4, lsl r0
 358:	0000031c 	andeq	r0, r0, ip, lsl r3
 35c:	00008dfc 	strdeq	r8, [r0], -ip
 360:	0000000c 	andeq	r0, r0, ip
 364:	83080e42 	movwhi	r0, #36418	; 0x8e42
 368:	00018e02 	andeq	r8, r1, r2, lsl #28
 36c:	00000018 	andeq	r0, r0, r8, lsl r0
 370:	0000031c 	andeq	r0, r0, ip, lsl r3
 374:	00008e08 	andeq	r8, r0, r8, lsl #28
 378:	00000024 	andeq	r0, r0, r4, lsr #32
 37c:	83100e42 	tsthi	r0, #1056	; 0x420
 380:	85038404 	strhi	r8, [r3, #-1028]	; 0x404
 384:	00018e02 	andeq	r8, r1, r2, lsl #28
 388:	00000014 	andeq	r0, r0, r4, lsl r0
 38c:	0000031c 	andeq	r0, r0, ip, lsl r3
 390:	00008e2c 	andeq	r8, r0, ip, lsr #28
 394:	00000014 	andeq	r0, r0, r4, lsl r0
 398:	83080e42 	movwhi	r0, #36418	; 0x8e42
 39c:	00018e02 	andeq	r8, r1, r2, lsl #28
 3a0:	00000014 	andeq	r0, r0, r4, lsl r0
 3a4:	0000031c 	andeq	r0, r0, ip, lsl r3
 3a8:	00008e40 	andeq	r8, r0, r0, asr #28
 3ac:	00000014 	andeq	r0, r0, r4, lsl r0
 3b0:	83080e42 	movwhi	r0, #36418	; 0x8e42
 3b4:	00018e02 	andeq	r8, r1, r2, lsl #28
 3b8:	0000000c 	andeq	r0, r0, ip
 3bc:	ffffffff 			; <UNDEFINED> instruction: 0xffffffff
 3c0:	7c020001 	stcvc	0, cr0, [r2], {1}
 3c4:	000d0c0e 	andeq	r0, sp, lr, lsl #24
 3c8:	00000018 	andeq	r0, r0, r8, lsl r0
 3cc:	000003b8 			; <UNDEFINED> instruction: 0x000003b8
 3d0:	00008e54 	andeq	r8, r0, r4, asr lr
 3d4:	000000d4 	ldrdeq	r0, [r0], -r4
 3d8:	83100e42 	tsthi	r0, #1056	; 0x420
 3dc:	85038404 	strhi	r8, [r3, #-1028]	; 0x404
 3e0:	00018e02 	andeq	r8, r1, r2, lsl #28
 3e4:	00000014 	andeq	r0, r0, r4, lsl r0
 3e8:	000003b8 			; <UNDEFINED> instruction: 0x000003b8
 3ec:	00008f28 	andeq	r8, r0, r8, lsr #30
 3f0:	00000038 	andeq	r0, r0, r8, lsr r0
 3f4:	83080e42 	movwhi	r0, #36418	; 0x8e42
 3f8:	00018e02 	andeq	r8, r1, r2, lsl #28
 3fc:	00000014 	andeq	r0, r0, r4, lsl r0
 400:	000003b8 			; <UNDEFINED> instruction: 0x000003b8
 404:	00008f60 	andeq	r8, r0, r0, ror #30
 408:	00000038 	andeq	r0, r0, r8, lsr r0
 40c:	83080e42 	movwhi	r0, #36418	; 0x8e42
 410:	00018e02 	andeq	r8, r1, r2, lsl #28
 414:	00000018 	andeq	r0, r0, r8, lsl r0
 418:	000003b8 			; <UNDEFINED> instruction: 0x000003b8
 41c:	00008f98 	muleq	r0, r8, pc	; <UNPREDICTABLE>
 420:	000000cc 	andeq	r0, r0, ip, asr #1
 424:	83100e42 	tsthi	r0, #1056	; 0x420
 428:	85038404 	strhi	r8, [r3, #-1028]	; 0x404
 42c:	00018e02 	andeq	r8, r1, r2, lsl #28
 430:	00000014 	andeq	r0, r0, r4, lsl r0
 434:	000003b8 			; <UNDEFINED> instruction: 0x000003b8
 438:	00009064 	andeq	r9, r0, r4, rrx
 43c:	0000004c 	andeq	r0, r0, ip, asr #32
 440:	84080e42 	strhi	r0, [r8], #-3650	; 0xe42
 444:	00018e02 	andeq	r8, r1, r2, lsl #28
 448:	00000014 	andeq	r0, r0, r4, lsl r0
 44c:	000003b8 			; <UNDEFINED> instruction: 0x000003b8
 450:	000090b0 	strheq	r9, [r0], -r0
 454:	00000078 	andeq	r0, r0, r8, ror r0
 458:	83080e42 	movwhi	r0, #36418	; 0x8e42
 45c:	00018e02 	andeq	r8, r1, r2, lsl #28
 460:	00000018 	andeq	r0, r0, r8, lsl r0
 464:	000003b8 			; <UNDEFINED> instruction: 0x000003b8
 468:	00009128 	andeq	r9, r0, r8, lsr #2
 46c:	000000d8 	ldrdeq	r0, [r0], -r8
 470:	84100e42 	ldrhi	r0, [r0], #-3650	; 0xe42
 474:	86038504 	strhi	r8, [r3], -r4, lsl #10
 478:	00018e02 	andeq	r8, r1, r2, lsl #28
 47c:	00000014 	andeq	r0, r0, r4, lsl r0
 480:	000003b8 			; <UNDEFINED> instruction: 0x000003b8
 484:	00009200 	andeq	r9, r0, r0, lsl #4
 488:	0000002c 	andeq	r0, r0, ip, lsr #32
 48c:	83080e42 	movwhi	r0, #36418	; 0x8e42
 490:	00018e02 	andeq	r8, r1, r2, lsl #28
 494:	00000018 	andeq	r0, r0, r8, lsl r0
 498:	000003b8 			; <UNDEFINED> instruction: 0x000003b8
 49c:	0000922c 	andeq	r9, r0, ip, lsr #4
 4a0:	00000084 	andeq	r0, r0, r4, lsl #1
 4a4:	83100e42 	tsthi	r0, #1056	; 0x420
 4a8:	85038404 	strhi	r8, [r3, #-1028]	; 0x404
 4ac:	00018e02 	andeq	r8, r1, r2, lsl #28
 4b0:	00000018 	andeq	r0, r0, r8, lsl r0
 4b4:	000003b8 			; <UNDEFINED> instruction: 0x000003b8
 4b8:	000092b0 			; <UNDEFINED> instruction: 0x000092b0
 4bc:	00000084 	andeq	r0, r0, r4, lsl #1
 4c0:	83100e42 	tsthi	r0, #1056	; 0x420
 4c4:	85038404 	strhi	r8, [r3, #-1028]	; 0x404
 4c8:	00018e02 	andeq	r8, r1, r2, lsl #28
 4cc:	00000014 	andeq	r0, r0, r4, lsl r0
 4d0:	000003b8 			; <UNDEFINED> instruction: 0x000003b8
 4d4:	00009334 	andeq	r9, r0, r4, lsr r3
 4d8:	00000084 	andeq	r0, r0, r4, lsl #1
 4dc:	84080e42 	strhi	r0, [r8], #-3650	; 0xe42
 4e0:	00018e02 	andeq	r8, r1, r2, lsl #28
 4e4:	00000014 	andeq	r0, r0, r4, lsl r0
 4e8:	000003b8 			; <UNDEFINED> instruction: 0x000003b8
 4ec:	000093b8 			; <UNDEFINED> instruction: 0x000093b8
 4f0:	00000058 	andeq	r0, r0, r8, asr r0
 4f4:	84080e42 	strhi	r0, [r8], #-3650	; 0xe42
 4f8:	00018e02 	andeq	r8, r1, r2, lsl #28
 4fc:	0000000c 	andeq	r0, r0, ip
 500:	ffffffff 			; <UNDEFINED> instruction: 0xffffffff
 504:	7c020001 	stcvc	0, cr0, [r2], {1}
 508:	000d0c0e 	andeq	r0, sp, lr, lsl #24
 50c:	0000001c 	andeq	r0, r0, ip, lsl r0
 510:	000004fc 	strdeq	r0, [r0], -ip
 514:	00009410 	andeq	r9, r0, r0, lsl r4
 518:	00000154 	andeq	r0, r0, r4, asr r1
 51c:	84180e42 	ldrhi	r0, [r8], #-3650	; 0xe42
 520:	86058506 	strhi	r8, [r5], -r6, lsl #10
 524:	88038704 	stmdahi	r3, {r2, r8, r9, sl, pc}
 528:	00018e02 	andeq	r8, r1, r2, lsl #28
 52c:	00000020 	andeq	r0, r0, r0, lsr #32
 530:	000004fc 	strdeq	r0, [r0], -ip
 534:	00009564 	andeq	r9, r0, r4, ror #10
 538:	000001c8 	andeq	r0, r0, r8, asr #3
 53c:	83200e42 	teqhi	r0, #1056	; 0x420
 540:	85078408 	strhi	r8, [r7, #-1032]	; 0x408
 544:	87058606 	strhi	r8, [r5, -r6, lsl #12]
 548:	89038804 	stmdbhi	r3, {r2, fp, pc}
 54c:	00018e02 	andeq	r8, r1, r2, lsl #28
 550:	00000020 	andeq	r0, r0, r0, lsr #32
 554:	000004fc 	strdeq	r0, [r0], -ip
 558:	0000972c 	andeq	r9, r0, ip, lsr #14
 55c:	00000090 	muleq	r0, r0, r0
 560:	84200e42 	strthi	r0, [r0], #-3650	; 0xe42
 564:	86078508 	strhi	r8, [r7], -r8, lsl #10
 568:	88058706 	stmdahi	r5, {r1, r2, r8, r9, sl, pc}
 56c:	8a038904 	bhi	e2984 <__bss_end__+0xd408c>
 570:	00018e02 	andeq	r8, r1, r2, lsl #28
 574:	0000001c 	andeq	r0, r0, ip, lsl r0
 578:	000004fc 	strdeq	r0, [r0], -ip
 57c:	000097bc 			; <UNDEFINED> instruction: 0x000097bc
 580:	0000007c 	andeq	r0, r0, ip, ror r0
 584:	84180e42 	ldrhi	r0, [r8], #-3650	; 0xe42
 588:	86058506 	strhi	r8, [r5], -r6, lsl #10
 58c:	88038704 	stmdahi	r3, {r2, r8, r9, sl, pc}
 590:	00018e02 	andeq	r8, r1, r2, lsl #28
 594:	0000001c 	andeq	r0, r0, ip, lsl r0
 598:	000004fc 	strdeq	r0, [r0], -ip
 59c:	00009838 	andeq	r9, r0, r8, lsr r8
 5a0:	000000c0 	andeq	r0, r0, r0, asr #1
 5a4:	84180e42 	ldrhi	r0, [r8], #-3650	; 0xe42
 5a8:	86058506 	strhi	r8, [r5], -r6, lsl #10
 5ac:	88038704 	stmdahi	r3, {r2, r8, r9, sl, pc}
 5b0:	00018e02 	andeq	r8, r1, r2, lsl #28
 5b4:	00000014 	andeq	r0, r0, r4, lsl r0
 5b8:	000004fc 	strdeq	r0, [r0], -ip
 5bc:	000098f8 	strdeq	r9, [r0], -r8
 5c0:	0000003c 	andeq	r0, r0, ip, lsr r0
 5c4:	83080e42 	movwhi	r0, #36418	; 0x8e42
 5c8:	00018e02 	andeq	r8, r1, r2, lsl #28
 5cc:	00000018 	andeq	r0, r0, r8, lsl r0
 5d0:	000004fc 	strdeq	r0, [r0], -ip
 5d4:	00009934 	andeq	r9, r0, r4, lsr r9
 5d8:	0000002c 	andeq	r0, r0, ip, lsr #32
 5dc:	83100e42 	tsthi	r0, #1056	; 0x420
 5e0:	85038404 	strhi	r8, [r3, #-1028]	; 0x404
 5e4:	00018e02 	andeq	r8, r1, r2, lsl #28
 5e8:	00000024 	andeq	r0, r0, r4, lsr #32
 5ec:	000004fc 	strdeq	r0, [r0], -ip
 5f0:	00009960 	andeq	r9, r0, r0, ror #18
 5f4:	00000084 	andeq	r0, r0, r4, lsl #1
 5f8:	810c0e42 	tsthi	ip, r2, asr #28
 5fc:	83028203 	movwhi	r8, #8707	; 0x2203
 600:	180e4201 	stmdane	lr, {r0, r9, lr}
 604:	05850684 	streq	r0, [r5, #1668]	; 0x684
 608:	0e42048e 	cdpeq	4, 4, cr0, cr2, cr14, {4}
 60c:	000003e8 	andeq	r0, r0, r8, ror #7
 610:	00000014 	andeq	r0, r0, r4, lsl r0
 614:	000004fc 	strdeq	r0, [r0], -ip
 618:	000099e4 	andeq	r9, r0, r4, ror #19
 61c:	0000004c 	andeq	r0, r0, ip, asr #32
 620:	8e040e42 	cdphi	14, 0, cr0, cr4, cr2, {2}
 624:	100e4201 	andne	r4, lr, r1, lsl #4
 628:	0000000c 	andeq	r0, r0, ip
 62c:	ffffffff 			; <UNDEFINED> instruction: 0xffffffff
 630:	7c020001 	stcvc	0, cr0, [r2], {1}
 634:	000d0c0e 	andeq	r0, sp, lr, lsl #24
 638:	00000018 	andeq	r0, r0, r8, lsl r0
 63c:	00000628 	andeq	r0, r0, r8, lsr #12
 640:	00009a30 	andeq	r9, r0, r0, lsr sl
 644:	0000009c 	muleq	r0, ip, r0
 648:	83100e42 	tsthi	r0, #1056	; 0x420
 64c:	85038404 	strhi	r8, [r3, #-1028]	; 0x404
 650:	00018e02 	andeq	r8, r1, r2, lsl #28
 654:	00000014 	andeq	r0, r0, r4, lsl r0
 658:	00000628 	andeq	r0, r0, r8, lsr #12
 65c:	00009acc 	andeq	r9, r0, ip, asr #21
 660:	0000001c 	andeq	r0, r0, ip, lsl r0
 664:	83080e42 	movwhi	r0, #36418	; 0x8e42
 668:	00018e02 	andeq	r8, r1, r2, lsl #28
 66c:	00000014 	andeq	r0, r0, r4, lsl r0
 670:	00000628 	andeq	r0, r0, r8, lsr #12
 674:	00009ae8 	andeq	r9, r0, r8, ror #21
 678:	00000028 	andeq	r0, r0, r8, lsr #32
 67c:	83080e42 	movwhi	r0, #36418	; 0x8e42
 680:	00018e02 	andeq	r8, r1, r2, lsl #28
 684:	00000014 	andeq	r0, r0, r4, lsl r0
 688:	00000628 	andeq	r0, r0, r8, lsr #12
 68c:	00009b10 	andeq	r9, r0, r0, lsl fp
 690:	0000001c 	andeq	r0, r0, ip, lsl r0
 694:	83080e42 	movwhi	r0, #36418	; 0x8e42
 698:	00018e02 	andeq	r8, r1, r2, lsl #28
 69c:	00000014 	andeq	r0, r0, r4, lsl r0
 6a0:	00000628 	andeq	r0, r0, r8, lsr #12
 6a4:	00009b2c 	andeq	r9, r0, ip, lsr #22
 6a8:	0000002c 	andeq	r0, r0, ip, lsr #32
 6ac:	84080e42 	strhi	r0, [r8], #-3650	; 0xe42
 6b0:	00018e02 	andeq	r8, r1, r2, lsl #28
 6b4:	00000014 	andeq	r0, r0, r4, lsl r0
 6b8:	00000628 	andeq	r0, r0, r8, lsr #12
 6bc:	00009b58 	andeq	r9, r0, r8, asr fp
 6c0:	0000000c 	andeq	r0, r0, ip
 6c4:	83080e42 	movwhi	r0, #36418	; 0x8e42
 6c8:	00018e02 	andeq	r8, r1, r2, lsl #28
 6cc:	00000014 	andeq	r0, r0, r4, lsl r0
 6d0:	00000628 	andeq	r0, r0, r8, lsr #12
 6d4:	00009b64 	andeq	r9, r0, r4, ror #22
 6d8:	00000020 	andeq	r0, r0, r0, lsr #32
 6dc:	83080e42 	movwhi	r0, #36418	; 0x8e42
 6e0:	00018e02 	andeq	r8, r1, r2, lsl #28
 6e4:	0000000c 	andeq	r0, r0, ip
 6e8:	ffffffff 			; <UNDEFINED> instruction: 0xffffffff
 6ec:	7c020001 	stcvc	0, cr0, [r2], {1}
 6f0:	000d0c0e 	andeq	r0, sp, lr, lsl #24
 6f4:	00000014 	andeq	r0, r0, r4, lsl r0
 6f8:	000006e4 	andeq	r0, r0, r4, ror #13
 6fc:	00009b84 	andeq	r9, r0, r4, lsl #23
 700:	00000068 	andeq	r0, r0, r8, rrx
 704:	83080e42 	movwhi	r0, #36418	; 0x8e42
 708:	00018e02 	andeq	r8, r1, r2, lsl #28
 70c:	00000014 	andeq	r0, r0, r4, lsl r0
 710:	000006e4 	andeq	r0, r0, r4, ror #13
 714:	00009bec 	andeq	r9, r0, ip, ror #23
 718:	00000044 	andeq	r0, r0, r4, asr #32
 71c:	8e040e42 	cdphi	14, 0, cr0, cr4, cr2, {2}
 720:	100e4201 	andne	r4, lr, r1, lsl #4
 724:	00000014 	andeq	r0, r0, r4, lsl r0
 728:	000006e4 	andeq	r0, r0, r4, ror #13
 72c:	00009c30 	andeq	r9, r0, r0, lsr ip
 730:	00000044 	andeq	r0, r0, r4, asr #32
 734:	8e040e42 	cdphi	14, 0, cr0, cr4, cr2, {2}
 738:	100e4201 	andne	r4, lr, r1, lsl #4
 73c:	00000014 	andeq	r0, r0, r4, lsl r0
 740:	000006e4 	andeq	r0, r0, r4, ror #13
 744:	00009c74 	andeq	r9, r0, r4, ror ip
 748:	00000044 	andeq	r0, r0, r4, asr #32
 74c:	8e040e42 	cdphi	14, 0, cr0, cr4, cr2, {2}
 750:	100e4201 	andne	r4, lr, r1, lsl #4
 754:	00000014 	andeq	r0, r0, r4, lsl r0
 758:	000006e4 	andeq	r0, r0, r4, ror #13
 75c:	00009cb8 			; <UNDEFINED> instruction: 0x00009cb8
 760:	00000044 	andeq	r0, r0, r4, asr #32
 764:	8e040e42 	cdphi	14, 0, cr0, cr4, cr2, {2}
 768:	100e4201 	andne	r4, lr, r1, lsl #4
 76c:	00000014 	andeq	r0, r0, r4, lsl r0
 770:	000006e4 	andeq	r0, r0, r4, ror #13
 774:	00009cfc 	strdeq	r9, [r0], -ip
 778:	00000044 	andeq	r0, r0, r4, asr #32
 77c:	8e040e42 	cdphi	14, 0, cr0, cr4, cr2, {2}
 780:	100e4201 	andne	r4, lr, r1, lsl #4
 784:	00000014 	andeq	r0, r0, r4, lsl r0
 788:	000006e4 	andeq	r0, r0, r4, ror #13
 78c:	00009d40 	andeq	r9, r0, r0, asr #26
 790:	00000044 	andeq	r0, r0, r4, asr #32
 794:	8e040e42 	cdphi	14, 0, cr0, cr4, cr2, {2}
 798:	100e4201 	andne	r4, lr, r1, lsl #4
 79c:	0000000c 	andeq	r0, r0, ip
 7a0:	ffffffff 			; <UNDEFINED> instruction: 0xffffffff
 7a4:	7c020001 	stcvc	0, cr0, [r2], {1}
 7a8:	000d0c0e 	andeq	r0, sp, lr, lsl #24
 7ac:	00000014 	andeq	r0, r0, r4, lsl r0
 7b0:	0000079c 	muleq	r0, ip, r7
 7b4:	00009ec0 	andeq	r9, r0, r0, asr #29
 7b8:	00000028 	andeq	r0, r0, r8, lsr #32
 7bc:	83080e42 	movwhi	r0, #36418	; 0x8e42
 7c0:	00018e02 	andeq	r8, r1, r2, lsl #28
 7c4:	0000000c 	andeq	r0, r0, ip
 7c8:	0000079c 	muleq	r0, ip, r7
 7cc:	00009ee8 	andeq	r9, r0, r8, ror #29
 7d0:	00000028 	andeq	r0, r0, r8, lsr #32
