
driver.elf:     file format elf32-littlearm


Disassembly of section .text:

00008000 <_start>:
    8000:	e3a0d302 	mov	sp, #134217728	; 0x8000000
    8004:	e3a0b000 	mov	fp, #0
    8008:	eb00083c 	bl	a100 <_cstart>
    800c:	eb00086a 	bl	a1bc <rpi_reboot>

00008010 <pi_sd_read>:
    8010:	e92d4030 	push	{r4, r5, lr}
    8014:	e24dd00c 	sub	sp, sp, #12
    8018:	e1a03000 	mov	r3, r0
    801c:	e1a05002 	mov	r5, r2
    8020:	e1a00001 	mov	r0, r1
    8024:	e1a01003 	mov	r1, r3
    8028:	eb000186 	bl	8648 <sd_readblock>
    802c:	e1a04000 	mov	r4, r0
    8030:	e1500485 	cmp	r0, r5, lsl #9
    8034:	0a000007 	beq	8058 <pi_sd_read+0x48>
    8038:	eb0006c2 	bl	9b48 <rpi_reset_putc>
    803c:	e58d4000 	str	r4, [sp]
    8040:	e59f001c 	ldr	r0, [pc, #28]	; 8064 <pi_sd_read+0x54>
    8044:	e59f101c 	ldr	r1, [pc, #28]	; 8068 <pi_sd_read+0x58>
    8048:	e59f201c 	ldr	r2, [pc, #28]	; 806c <pi_sd_read+0x5c>
    804c:	e3a0300d 	mov	r3, #13
    8050:	eb0006a1 	bl	9adc <printk>
    8054:	eb000817 	bl	a0b8 <clean_reboot>
    8058:	e3a00001 	mov	r0, #1
    805c:	e28dd00c 	add	sp, sp, #12
    8060:	e8bd8030 	pop	{r4, r5, pc}
    8064:	0000b2ec 	andeq	fp, r0, ip, ror #5
    8068:	0000b328 	andeq	fp, r0, r8, lsr #6
    806c:	0000b2c0 	andeq	fp, r0, r0, asr #5

00008070 <pi_sd_init>:
    8070:	e92d4008 	push	{r3, lr}
    8074:	eb00029e 	bl	8af4 <sd_init>
    8078:	e3500000 	cmp	r0, #0
    807c:	0a000006 	beq	809c <pi_sd_init+0x2c>
    8080:	eb0006b0 	bl	9b48 <rpi_reset_putc>
    8084:	e59f0018 	ldr	r0, [pc, #24]	; 80a4 <pi_sd_init+0x34>
    8088:	e59f1018 	ldr	r1, [pc, #24]	; 80a8 <pi_sd_init+0x38>
    808c:	e59f2018 	ldr	r2, [pc, #24]	; 80ac <pi_sd_init+0x3c>
    8090:	e3a03012 	mov	r3, #18
    8094:	eb000690 	bl	9adc <printk>
    8098:	eb000806 	bl	a0b8 <clean_reboot>
    809c:	e3a00001 	mov	r0, #1
    80a0:	e8bd8008 	pop	{r3, pc}
    80a4:	0000b334 	andeq	fp, r0, r4, lsr r3
    80a8:	0000b328 	andeq	fp, r0, r8, lsr #6
    80ac:	0000b2cc 	andeq	fp, r0, ip, asr #5

000080b0 <sec_read>:
    80b0:	e92d4070 	push	{r4, r5, r6, lr}
    80b4:	e1a05000 	mov	r5, r0
    80b8:	e1a04001 	mov	r4, r1
    80bc:	e1a00481 	lsl	r0, r1, #9
    80c0:	eb000871 	bl	a28c <kmalloc>
    80c4:	e1a06000 	mov	r6, r0
    80c8:	e1a01005 	mov	r1, r5
    80cc:	e1a02004 	mov	r2, r4
    80d0:	ebffffce 	bl	8010 <pi_sd_read>
    80d4:	e3500000 	cmp	r0, #0
    80d8:	1a000006 	bne	80f8 <sec_read+0x48>
    80dc:	eb000699 	bl	9b48 <rpi_reset_putc>
    80e0:	e59f0018 	ldr	r0, [pc, #24]	; 8100 <sec_read+0x50>
    80e4:	e59f1018 	ldr	r1, [pc, #24]	; 8104 <sec_read+0x54>
    80e8:	e59f2018 	ldr	r2, [pc, #24]	; 8108 <sec_read+0x58>
    80ec:	e3a0301b 	mov	r3, #27
    80f0:	eb000679 	bl	9adc <printk>
    80f4:	eb0007ef 	bl	a0b8 <clean_reboot>
    80f8:	e1a00006 	mov	r0, r6
    80fc:	e8bd8070 	pop	{r4, r5, r6, pc}
    8100:	0000b354 	andeq	fp, r0, r4, asr r3
    8104:	0000b328 	andeq	fp, r0, r8, lsr #6
    8108:	0000b2d8 	ldrdeq	fp, [r0], -r8

0000810c <notmain>:
    810c:	e92d4030 	push	{r4, r5, lr}
    8110:	e24dd014 	sub	sp, sp, #20
    8114:	eb0008a0 	bl	a39c <kmalloc_init>
    8118:	eb000a5d 	bl	aa94 <uart_init>
    811c:	e59f0144 	ldr	r0, [pc, #324]	; 8268 <notmain+0x15c>
    8120:	eb00066d 	bl	9adc <printk>
    8124:	ebffffd1 	bl	8070 <pi_sd_init>
    8128:	e59f013c 	ldr	r0, [pc, #316]	; 826c <notmain+0x160>
    812c:	eb00066a 	bl	9adc <printk>
    8130:	e59f0138 	ldr	r0, [pc, #312]	; 8270 <notmain+0x164>
    8134:	eb000668 	bl	9adc <printk>
    8138:	e3a00000 	mov	r0, #0
    813c:	e3a01001 	mov	r1, #1
    8140:	ebffffda 	bl	80b0 <sec_read>
    8144:	e1a04000 	mov	r4, r0
    8148:	e59f0124 	ldr	r0, [pc, #292]	; 8274 <notmain+0x168>
    814c:	eb000662 	bl	9adc <printk>
    8150:	e1a00004 	mov	r0, r4
    8154:	eb000462 	bl	92e4 <mbr_check>
    8158:	e2845f6f 	add	r5, r4, #444	; 0x1bc
    815c:	e2855002 	add	r5, r5, #2
    8160:	e1a0000d 	mov	r0, sp
    8164:	e1a01005 	mov	r1, r5
    8168:	e3a02010 	mov	r2, #16
    816c:	eb00063f 	bl	9a70 <memcpy>
    8170:	e59f0100 	ldr	r0, [pc, #256]	; 8278 <notmain+0x16c>
    8174:	e1a0100d 	mov	r1, sp
    8178:	eb0005ef 	bl	993c <mbr_partition_print>
    817c:	e5dd3004 	ldrb	r3, [sp, #4]
    8180:	e243300b 	sub	r3, r3, #11
    8184:	e3530001 	cmp	r3, #1
    8188:	9a000006 	bls	81a8 <notmain+0x9c>
    818c:	eb00066d 	bl	9b48 <rpi_reset_putc>
    8190:	e59f00e4 	ldr	r0, [pc, #228]	; 827c <notmain+0x170>
    8194:	e59f10e4 	ldr	r1, [pc, #228]	; 8280 <notmain+0x174>
    8198:	e59f20e4 	ldr	r2, [pc, #228]	; 8284 <notmain+0x178>
    819c:	e3a03031 	mov	r3, #49	; 0x31
    81a0:	eb00064d 	bl	9adc <printk>
    81a4:	eb0007c3 	bl	a0b8 <clean_reboot>
    81a8:	e1a00005 	mov	r0, r5
    81ac:	eb0005d6 	bl	990c <mbr_partition_empty>
    81b0:	e3500000 	cmp	r0, #0
    81b4:	0a000006 	beq	81d4 <notmain+0xc8>
    81b8:	eb000662 	bl	9b48 <rpi_reset_putc>
    81bc:	e59f00c4 	ldr	r0, [pc, #196]	; 8288 <notmain+0x17c>
    81c0:	e59f10b8 	ldr	r1, [pc, #184]	; 8280 <notmain+0x174>
    81c4:	e59f20b8 	ldr	r2, [pc, #184]	; 8284 <notmain+0x178>
    81c8:	e3a03037 	mov	r3, #55	; 0x37
    81cc:	eb000642 	bl	9adc <printk>
    81d0:	eb0007b8 	bl	a0b8 <clean_reboot>
    81d4:	e2840f73 	add	r0, r4, #460	; 0x1cc
    81d8:	e2800002 	add	r0, r0, #2
    81dc:	eb0005ca 	bl	990c <mbr_partition_empty>
    81e0:	e3500000 	cmp	r0, #0
    81e4:	1a000006 	bne	8204 <notmain+0xf8>
    81e8:	eb000656 	bl	9b48 <rpi_reset_putc>
    81ec:	e59f0098 	ldr	r0, [pc, #152]	; 828c <notmain+0x180>
    81f0:	e59f1088 	ldr	r1, [pc, #136]	; 8280 <notmain+0x174>
    81f4:	e59f2088 	ldr	r2, [pc, #136]	; 8284 <notmain+0x178>
    81f8:	e3a03038 	mov	r3, #56	; 0x38
    81fc:	eb000636 	bl	9adc <printk>
    8200:	eb0007ac 	bl	a0b8 <clean_reboot>
    8204:	e2840f77 	add	r0, r4, #476	; 0x1dc
    8208:	e2800002 	add	r0, r0, #2
    820c:	eb0005be 	bl	990c <mbr_partition_empty>
    8210:	e3500000 	cmp	r0, #0
    8214:	1a000006 	bne	8234 <notmain+0x128>
    8218:	eb00064a 	bl	9b48 <rpi_reset_putc>
    821c:	e59f006c 	ldr	r0, [pc, #108]	; 8290 <notmain+0x184>
    8220:	e59f1058 	ldr	r1, [pc, #88]	; 8280 <notmain+0x174>
    8224:	e59f2058 	ldr	r2, [pc, #88]	; 8284 <notmain+0x178>
    8228:	e3a03039 	mov	r3, #57	; 0x39
    822c:	eb00062a 	bl	9adc <printk>
    8230:	eb0007a0 	bl	a0b8 <clean_reboot>
    8234:	e2840f7b 	add	r0, r4, #492	; 0x1ec
    8238:	e2800002 	add	r0, r0, #2
    823c:	eb0005b2 	bl	990c <mbr_partition_empty>
    8240:	e3500000 	cmp	r0, #0
    8244:	1a000006 	bne	8264 <notmain+0x158>
    8248:	eb00063e 	bl	9b48 <rpi_reset_putc>
    824c:	e59f0040 	ldr	r0, [pc, #64]	; 8294 <notmain+0x188>
    8250:	e59f1028 	ldr	r1, [pc, #40]	; 8280 <notmain+0x174>
    8254:	e59f2028 	ldr	r2, [pc, #40]	; 8284 <notmain+0x178>
    8258:	e3a0303a 	mov	r3, #58	; 0x3a
    825c:	eb00061e 	bl	9adc <printk>
    8260:	eb000794 	bl	a0b8 <clean_reboot>
    8264:	eb000793 	bl	a0b8 <clean_reboot>
    8268:	0000b384 	andeq	fp, r0, r4, lsl #7
    826c:	0000b394 	muleq	r0, r4, r3
    8270:	0000b3a0 	andeq	fp, r0, r0, lsr #7
    8274:	0000b3b8 			; <UNDEFINED> instruction: 0x0000b3b8
    8278:	0000b3c8 	andeq	fp, r0, r8, asr #7
    827c:	0000b3d4 	ldrdeq	fp, [r0], -r4
    8280:	0000b328 	andeq	fp, r0, r8, lsr #6
    8284:	0000b2e4 	andeq	fp, r0, r4, ror #5
    8288:	0000b404 	andeq	fp, r0, r4, lsl #8
    828c:	0000b444 	andeq	fp, r0, r4, asr #8
    8290:	0000b484 	andeq	fp, r0, r4, lsl #9
    8294:	0000b4c4 	andeq	fp, r0, r4, asr #9

00008298 <sd_status>:
    8298:	e92d41f0 	push	{r4, r5, r6, r7, r8, lr}
    829c:	e1a06000 	mov	r6, r0
    82a0:	e59f3078 	ldr	r3, [pc, #120]	; 8320 <sd_status+0x88>
    82a4:	e59f4078 	ldr	r4, [pc, #120]	; 8324 <sd_status+0x8c>
    82a8:	e59f7078 	ldr	r7, [pc, #120]	; 8328 <sd_status+0x90>
    82ac:	e3a08001 	mov	r8, #1
    82b0:	ea000002 	b	82c0 <sd_status+0x28>
    82b4:	e1a00008 	mov	r0, r8
    82b8:	eb0007e9 	bl	a264 <delay_ms>
    82bc:	e1a03005 	mov	r3, r5
    82c0:	e5942024 	ldr	r2, [r4, #36]	; 0x24
    82c4:	e1120006 	tst	r2, r6
    82c8:	0a000006 	beq	82e8 <sd_status+0x50>
    82cc:	e5942030 	ldr	r2, [r4, #48]	; 0x30
    82d0:	e1120007 	tst	r2, r7
    82d4:	1a000003 	bne	82e8 <sd_status+0x50>
    82d8:	e2435001 	sub	r5, r3, #1
    82dc:	e3530000 	cmp	r3, #0
    82e0:	1afffff3 	bne	82b4 <sd_status+0x1c>
    82e4:	e1a03005 	mov	r3, r5
    82e8:	e3530000 	cmp	r3, #0
    82ec:	da000007 	ble	8310 <sd_status+0x78>
    82f0:	e59f302c 	ldr	r3, [pc, #44]	; 8324 <sd_status+0x8c>
    82f4:	e5932030 	ldr	r2, [r3, #48]	; 0x30
    82f8:	e59f3028 	ldr	r3, [pc, #40]	; 8328 <sd_status+0x90>
    82fc:	e0023003 	and	r3, r2, r3
    8300:	e3530000 	cmp	r3, #0
    8304:	0a000003 	beq	8318 <sd_status+0x80>
    8308:	e3e00001 	mvn	r0, #1
    830c:	e8bd81f0 	pop	{r4, r5, r6, r7, r8, pc}
    8310:	e3e00001 	mvn	r0, #1
    8314:	e8bd81f0 	pop	{r4, r5, r6, r7, r8, pc}
    8318:	e3a00000 	mov	r0, #0
    831c:	e8bd81f0 	pop	{r4, r5, r6, r7, r8, pc}
    8320:	000f4240 	andeq	r4, pc, r0, asr #4
    8324:	20300000 	eorscs	r0, r0, r0
    8328:	017e8000 	cmneq	lr, r0

0000832c <sd_int>:
    832c:	e92d41f0 	push	{r4, r5, r6, r7, r8, lr}
    8330:	e1a08000 	mov	r8, r0
    8334:	e380675f 	orr	r6, r0, #24903680	; 0x17c0000
    8338:	e386690a 	orr	r6, r6, #163840	; 0x28000
    833c:	e59f3088 	ldr	r3, [pc, #136]	; 83cc <sd_int+0xa0>
    8340:	e59f5088 	ldr	r5, [pc, #136]	; 83d0 <sd_int+0xa4>
    8344:	e3a07001 	mov	r7, #1
    8348:	ea000002 	b	8358 <sd_int+0x2c>
    834c:	e1a00007 	mov	r0, r7
    8350:	eb0007c3 	bl	a264 <delay_ms>
    8354:	e1a03004 	mov	r3, r4
    8358:	e5952030 	ldr	r2, [r5, #48]	; 0x30
    835c:	e1120006 	tst	r2, r6
    8360:	1a000003 	bne	8374 <sd_int+0x48>
    8364:	e2434001 	sub	r4, r3, #1
    8368:	e3530000 	cmp	r3, #0
    836c:	1afffff6 	bne	834c <sd_int+0x20>
    8370:	e1a03004 	mov	r3, r4
    8374:	e59f2054 	ldr	r2, [pc, #84]	; 83d0 <sd_int+0xa4>
    8378:	e5922030 	ldr	r2, [r2, #48]	; 0x30
    837c:	e3530000 	cmp	r3, #0
    8380:	da000001 	ble	838c <sd_int+0x60>
    8384:	e3120811 	tst	r2, #1114112	; 0x110000
    8388:	0a000003 	beq	839c <sd_int+0x70>
    838c:	e59f303c 	ldr	r3, [pc, #60]	; 83d0 <sd_int+0xa4>
    8390:	e5832030 	str	r2, [r3, #48]	; 0x30
    8394:	e3e00000 	mvn	r0, #0
    8398:	e8bd81f0 	pop	{r4, r5, r6, r7, r8, pc}
    839c:	e59f3030 	ldr	r3, [pc, #48]	; 83d4 <sd_int+0xa8>
    83a0:	e0023003 	and	r3, r2, r3
    83a4:	e3530000 	cmp	r3, #0
    83a8:	0a000003 	beq	83bc <sd_int+0x90>
    83ac:	e59f301c 	ldr	r3, [pc, #28]	; 83d0 <sd_int+0xa4>
    83b0:	e5832030 	str	r2, [r3, #48]	; 0x30
    83b4:	e3e00001 	mvn	r0, #1
    83b8:	e8bd81f0 	pop	{r4, r5, r6, r7, r8, pc}
    83bc:	e59f300c 	ldr	r3, [pc, #12]	; 83d0 <sd_int+0xa4>
    83c0:	e5838030 	str	r8, [r3, #48]	; 0x30
    83c4:	e3a00000 	mov	r0, #0
    83c8:	e8bd81f0 	pop	{r4, r5, r6, r7, r8, pc}
    83cc:	000f4240 	andeq	r4, pc, r0, asr #4
    83d0:	20300000 	eorscs	r0, r0, r0
    83d4:	017e8000 	cmneq	lr, r0

000083d8 <sd_cmd>:
    83d8:	e92d40f8 	push	{r3, r4, r5, r6, r7, lr}
    83dc:	e1a07001 	mov	r7, r1
    83e0:	e3a02000 	mov	r2, #0
    83e4:	e59f3218 	ldr	r3, [pc, #536]	; 8604 <sd_cmd+0x22c>
    83e8:	e5832000 	str	r2, [r3]
    83ec:	e2504000 	subs	r4, r0, #0
    83f0:	aa000015 	bge	844c <sd_cmd+0x74>
    83f4:	e59f320c 	ldr	r3, [pc, #524]	; 8608 <sd_cmd+0x230>
    83f8:	e5931000 	ldr	r1, [r3]
    83fc:	e1510002 	cmp	r1, r2
    8400:	159f0204 	ldrne	r0, [pc, #516]	; 860c <sd_cmd+0x234>
    8404:	03a00437 	moveq	r0, #922746880	; 0x37000000
    8408:	ebfffff2 	bl	83d8 <sd_cmd>
    840c:	e59f31f4 	ldr	r3, [pc, #500]	; 8608 <sd_cmd+0x230>
    8410:	e5933000 	ldr	r3, [r3]
    8414:	e3530000 	cmp	r3, #0
    8418:	0a00000a 	beq	8448 <sd_cmd+0x70>
    841c:	e3500000 	cmp	r0, #0
    8420:	1a000008 	bne	8448 <sd_cmd+0x70>
    8424:	e59f31e4 	ldr	r3, [pc, #484]	; 8610 <sd_cmd+0x238>
    8428:	e5933000 	ldr	r3, [r3]
    842c:	e59f01e0 	ldr	r0, [pc, #480]	; 8614 <sd_cmd+0x23c>
    8430:	e12fff33 	blx	r3
    8434:	e3e02001 	mvn	r2, #1
    8438:	e59f31c4 	ldr	r3, [pc, #452]	; 8604 <sd_cmd+0x22c>
    843c:	e5832000 	str	r2, [r3]
    8440:	e3a05000 	mov	r5, #0
    8444:	ea00006c 	b	85fc <sd_cmd+0x224>
    8448:	e3c44102 	bic	r4, r4, #-2147483648	; 0x80000000
    844c:	e3a00001 	mov	r0, #1
    8450:	ebffff90 	bl	8298 <sd_status>
    8454:	e2505000 	subs	r5, r0, #0
    8458:	0a000008 	beq	8480 <sd_cmd+0xa8>
    845c:	e59f31ac 	ldr	r3, [pc, #428]	; 8610 <sd_cmd+0x238>
    8460:	e5933000 	ldr	r3, [r3]
    8464:	e59f01ac 	ldr	r0, [pc, #428]	; 8618 <sd_cmd+0x240>
    8468:	e12fff33 	blx	r3
    846c:	e3e02000 	mvn	r2, #0
    8470:	e59f318c 	ldr	r3, [pc, #396]	; 8604 <sd_cmd+0x22c>
    8474:	e5832000 	str	r2, [r3]
    8478:	e3a05000 	mov	r5, #0
    847c:	ea00005e 	b	85fc <sd_cmd+0x224>
    8480:	e59f6188 	ldr	r6, [pc, #392]	; 8610 <sd_cmd+0x238>
    8484:	e5963000 	ldr	r3, [r6]
    8488:	e59f018c 	ldr	r0, [pc, #396]	; 861c <sd_cmd+0x244>
    848c:	e12fff33 	blx	r3
    8490:	e1a00004 	mov	r0, r4
    8494:	eb0005c2 	bl	9ba4 <uart_hex>
    8498:	e5963000 	ldr	r3, [r6]
    849c:	e59f017c 	ldr	r0, [pc, #380]	; 8620 <sd_cmd+0x248>
    84a0:	e12fff33 	blx	r3
    84a4:	e1a00007 	mov	r0, r7
    84a8:	eb0005bd 	bl	9ba4 <uart_hex>
    84ac:	e5963000 	ldr	r3, [r6]
    84b0:	e59f016c 	ldr	r0, [pc, #364]	; 8624 <sd_cmd+0x24c>
    84b4:	e12fff33 	blx	r3
    84b8:	e59f3168 	ldr	r3, [pc, #360]	; 8628 <sd_cmd+0x250>
    84bc:	e5932030 	ldr	r2, [r3, #48]	; 0x30
    84c0:	e5832030 	str	r2, [r3, #48]	; 0x30
    84c4:	e5837008 	str	r7, [r3, #8]
    84c8:	e583400c 	str	r4, [r3, #12]
    84cc:	e59f3158 	ldr	r3, [pc, #344]	; 862c <sd_cmd+0x254>
    84d0:	e1540003 	cmp	r4, r3
    84d4:	1a000002 	bne	84e4 <sd_cmd+0x10c>
    84d8:	e3a00ffa 	mov	r0, #1000	; 0x3e8
    84dc:	eb000760 	bl	a264 <delay_ms>
    84e0:	ea000005 	b	84fc <sd_cmd+0x124>
    84e4:	e59f3144 	ldr	r3, [pc, #324]	; 8630 <sd_cmd+0x258>
    84e8:	e3540437 	cmp	r4, #922746880	; 0x37000000
    84ec:	11540003 	cmpne	r4, r3
    84f0:	1a000001 	bne	84fc <sd_cmd+0x124>
    84f4:	e3a00064 	mov	r0, #100	; 0x64
    84f8:	eb000759 	bl	a264 <delay_ms>
    84fc:	e3a00001 	mov	r0, #1
    8500:	ebffff89 	bl	832c <sd_int>
    8504:	e2506000 	subs	r6, r0, #0
    8508:	0a000006 	beq	8528 <sd_cmd+0x150>
    850c:	e59f30fc 	ldr	r3, [pc, #252]	; 8610 <sd_cmd+0x238>
    8510:	e5933000 	ldr	r3, [r3]
    8514:	e59f0118 	ldr	r0, [pc, #280]	; 8634 <sd_cmd+0x25c>
    8518:	e12fff33 	blx	r3
    851c:	e59f30e0 	ldr	r3, [pc, #224]	; 8604 <sd_cmd+0x22c>
    8520:	e5836000 	str	r6, [r3]
    8524:	ea000034 	b	85fc <sd_cmd+0x224>
    8528:	e59f30f8 	ldr	r3, [pc, #248]	; 8628 <sd_cmd+0x250>
    852c:	e5933010 	ldr	r3, [r3, #16]
    8530:	e3540437 	cmp	r4, #922746880	; 0x37000000
    8534:	13540000 	cmpne	r4, #0
    8538:	0a00002f 	beq	85fc <sd_cmd+0x224>
    853c:	e59f20c8 	ldr	r2, [pc, #200]	; 860c <sd_cmd+0x234>
    8540:	e1540002 	cmp	r4, r2
    8544:	02035020 	andeq	r5, r3, #32
    8548:	0a00002b 	beq	85fc <sd_cmd+0x224>
    854c:	e59f20d8 	ldr	r2, [pc, #216]	; 862c <sd_cmd+0x254>
    8550:	e1540002 	cmp	r4, r2
    8554:	0a000027 	beq	85f8 <sd_cmd+0x220>
    8558:	e282245f 	add	r2, r2, #1593835520	; 0x5f000000
    855c:	e1540002 	cmp	r4, r2
    8560:	1a000004 	bne	8578 <sd_cmd+0x1a0>
    8564:	e1570003 	cmp	r7, r3
    8568:	03a05000 	moveq	r5, #0
    856c:	0a000022 	beq	85fc <sd_cmd+0x224>
    8570:	e3e05001 	mvn	r5, #1
    8574:	ea000020 	b	85fc <sd_cmd+0x224>
    8578:	e59f20b8 	ldr	r2, [pc, #184]	; 8638 <sd_cmd+0x260>
    857c:	e1540002 	cmp	r4, r2
    8580:	1a000007 	bne	85a4 <sd_cmd+0x1cc>
    8584:	e59f209c 	ldr	r2, [pc, #156]	; 8628 <sd_cmd+0x250>
    8588:	e592501c 	ldr	r5, [r2, #28]
    858c:	e1835005 	orr	r5, r3, r5
    8590:	e5921018 	ldr	r1, [r2, #24]
    8594:	e1855001 	orr	r5, r5, r1
    8598:	e5922014 	ldr	r2, [r2, #20]
    859c:	e1855002 	orr	r5, r5, r2
    85a0:	ea000015 	b	85fc <sd_cmd+0x224>
    85a4:	e59f2090 	ldr	r2, [pc, #144]	; 863c <sd_cmd+0x264>
    85a8:	e1540002 	cmp	r4, r2
    85ac:	1a00000e 	bne	85ec <sd_cmd+0x214>
    85b0:	e1a01983 	lsl	r1, r3, #19
    85b4:	e2032a02 	and	r2, r3, #8192	; 0x2000
    85b8:	e1a02302 	lsl	r2, r2, #6
    85bc:	e18229a1 	orr	r2, r2, r1, lsr #19
    85c0:	e2031901 	and	r1, r3, #16384	; 0x4000
    85c4:	e1822401 	orr	r2, r2, r1, lsl #8
    85c8:	e2031902 	and	r1, r3, #32768	; 0x8000
    85cc:	e1821401 	orr	r1, r2, r1, lsl #8
    85d0:	e59f2068 	ldr	r2, [pc, #104]	; 8640 <sd_cmd+0x268>
    85d4:	e0012002 	and	r2, r1, r2
    85d8:	e59f1024 	ldr	r1, [pc, #36]	; 8604 <sd_cmd+0x22c>
    85dc:	e5812000 	str	r2, [r1]
    85e0:	e1a03823 	lsr	r3, r3, #16
    85e4:	e1a05803 	lsl	r5, r3, #16
    85e8:	ea000003 	b	85fc <sd_cmd+0x224>
    85ec:	e59f5050 	ldr	r5, [pc, #80]	; 8644 <sd_cmd+0x26c>
    85f0:	e0035005 	and	r5, r3, r5
    85f4:	ea000000 	b	85fc <sd_cmd+0x224>
    85f8:	e1a05003 	mov	r5, r3
    85fc:	e1a00005 	mov	r0, r5
    8600:	e8bd80f8 	pop	{r3, r4, r5, r6, r7, pc}
    8604:	0000c314 	andeq	ip, r0, r4, lsl r3
    8608:	0000c318 	andeq	ip, r0, r8, lsl r3
    860c:	37020000 	strcc	r0, [r2, -r0]
    8610:	0000b228 	andeq	fp, r0, r8, lsr #4
    8614:	0000b504 	andeq	fp, r0, r4, lsl #10
    8618:	0000b52c 	andeq	fp, r0, ip, lsr #10
    861c:	0000b540 	andeq	fp, r0, r0, asr #10
    8620:	0000b558 	andeq	fp, r0, r8, asr r5
    8624:	0000b324 	andeq	fp, r0, r4, lsr #6
    8628:	20300000 	eorscs	r0, r0, r0
    862c:	a9020000 	stmdbge	r2, {}	; <UNPREDICTABLE>
    8630:	08020000 	stmdaeq	r2, {}	; <UNPREDICTABLE>
    8634:	0000b560 	andeq	fp, r0, r0, ror #10
    8638:	02010000 	andeq	r0, r1, #0
    863c:	03020000 	movweq	r0, #8192	; 0x2000
    8640:	00c80004 	sbceq	r0, r8, r4
    8644:	fff9c004 			; <UNDEFINED> instruction: 0xfff9c004

00008648 <sd_readblock>:
    8648:	e92d4ff0 	push	{r4, r5, r6, r7, r8, r9, sl, fp, lr}
    864c:	e24dd00c 	sub	sp, sp, #12
    8650:	e58d0000 	str	r0, [sp]
    8654:	e1a04001 	mov	r4, r1
    8658:	e2527000 	subs	r7, r2, #0
    865c:	03a07001 	moveq	r7, #1
    8660:	e59f51e4 	ldr	r5, [pc, #484]	; 884c <sd_readblock+0x204>
    8664:	e5953000 	ldr	r3, [r5]
    8668:	e59f01e0 	ldr	r0, [pc, #480]	; 8850 <sd_readblock+0x208>
    866c:	e12fff33 	blx	r3
    8670:	e59d0000 	ldr	r0, [sp]
    8674:	eb00054a 	bl	9ba4 <uart_hex>
    8678:	e5953000 	ldr	r3, [r5]
    867c:	e59f01d0 	ldr	r0, [pc, #464]	; 8854 <sd_readblock+0x20c>
    8680:	e12fff33 	blx	r3
    8684:	e1a00007 	mov	r0, r7
    8688:	eb000545 	bl	9ba4 <uart_hex>
    868c:	e5953000 	ldr	r3, [r5]
    8690:	e59f01c0 	ldr	r0, [pc, #448]	; 8858 <sd_readblock+0x210>
    8694:	e12fff33 	blx	r3
    8698:	e3a00002 	mov	r0, #2
    869c:	ebfffefd 	bl	8298 <sd_status>
    86a0:	e3500000 	cmp	r0, #0
    86a4:	e58d0004 	str	r0, [sp, #4]
    86a8:	0a000005 	beq	86c4 <sd_readblock+0x7c>
    86ac:	e3e02000 	mvn	r2, #0
    86b0:	e59f31a4 	ldr	r3, [pc, #420]	; 885c <sd_readblock+0x214>
    86b4:	e5832000 	str	r2, [r3]
    86b8:	e3a03000 	mov	r3, #0
    86bc:	e58d3004 	str	r3, [sp, #4]
    86c0:	ea00005e 	b	8840 <sd_readblock+0x1f8>
    86c4:	e59f3194 	ldr	r3, [pc, #404]	; 8860 <sd_readblock+0x218>
    86c8:	e5933000 	ldr	r3, [r3]
    86cc:	e3130001 	tst	r3, #1
    86d0:	0a000018 	beq	8738 <sd_readblock+0xf0>
    86d4:	e3570001 	cmp	r7, #1
    86d8:	9a000008 	bls	8700 <sd_readblock+0xb8>
    86dc:	e3130402 	tst	r3, #33554432	; 0x2000000
    86e0:	0a000006 	beq	8700 <sd_readblock+0xb8>
    86e4:	e59f0178 	ldr	r0, [pc, #376]	; 8864 <sd_readblock+0x21c>
    86e8:	e1a01007 	mov	r1, r7
    86ec:	ebffff39 	bl	83d8 <sd_cmd>
    86f0:	e59f3164 	ldr	r3, [pc, #356]	; 885c <sd_readblock+0x214>
    86f4:	e5933000 	ldr	r3, [r3]
    86f8:	e3530000 	cmp	r3, #0
    86fc:	1a00004f 	bne	8840 <sd_readblock+0x1f8>
    8700:	e1a02807 	lsl	r2, r7, #16
    8704:	e3822c02 	orr	r2, r2, #512	; 0x200
    8708:	e59f3158 	ldr	r3, [pc, #344]	; 8868 <sd_readblock+0x220>
    870c:	e5832004 	str	r2, [r3, #4]
    8710:	e3570001 	cmp	r7, #1
    8714:	059f0150 	ldreq	r0, [pc, #336]	; 886c <sd_readblock+0x224>
    8718:	159f0150 	ldrne	r0, [pc, #336]	; 8870 <sd_readblock+0x228>
    871c:	e59d1000 	ldr	r1, [sp]
    8720:	ebffff2c 	bl	83d8 <sd_cmd>
    8724:	e59f3130 	ldr	r3, [pc, #304]	; 885c <sd_readblock+0x214>
    8728:	e5933000 	ldr	r3, [r3]
    872c:	e3530000 	cmp	r3, #0
    8730:	0a000003 	beq	8744 <sd_readblock+0xfc>
    8734:	ea000041 	b	8840 <sd_readblock+0x1f8>
    8738:	e59f2134 	ldr	r2, [pc, #308]	; 8874 <sd_readblock+0x22c>
    873c:	e59f3124 	ldr	r3, [pc, #292]	; 8868 <sd_readblock+0x220>
    8740:	e5832004 	str	r2, [r3, #4]
    8744:	e3a06000 	mov	r6, #0
    8748:	e59fa110 	ldr	sl, [pc, #272]	; 8860 <sd_readblock+0x218>
    874c:	e59fb108 	ldr	fp, [pc, #264]	; 885c <sd_readblock+0x214>
    8750:	e3a09020 	mov	r9, #32
    8754:	e59f510c 	ldr	r5, [pc, #268]	; 8868 <sd_readblock+0x220>
    8758:	ea00001e 	b	87d8 <sd_readblock+0x190>
    875c:	e59a3000 	ldr	r3, [sl]
    8760:	e3130001 	tst	r3, #1
    8764:	1a000007 	bne	8788 <sd_readblock+0x140>
    8768:	e59d3000 	ldr	r3, [sp]
    876c:	e0831008 	add	r1, r3, r8
    8770:	e59f00f4 	ldr	r0, [pc, #244]	; 886c <sd_readblock+0x224>
    8774:	e1a01481 	lsl	r1, r1, #9
    8778:	ebffff16 	bl	83d8 <sd_cmd>
    877c:	e59b3000 	ldr	r3, [fp]
    8780:	e3530000 	cmp	r3, #0
    8784:	1a00002d 	bne	8840 <sd_readblock+0x1f8>
    8788:	e1a00009 	mov	r0, r9
    878c:	ebfffee6 	bl	832c <sd_int>
    8790:	e2508000 	subs	r8, r0, #0
    8794:	0a00000a 	beq	87c4 <sd_readblock+0x17c>
    8798:	e59f30ac 	ldr	r3, [pc, #172]	; 884c <sd_readblock+0x204>
    879c:	e5933000 	ldr	r3, [r3]
    87a0:	e59f00d0 	ldr	r0, [pc, #208]	; 8878 <sd_readblock+0x230>
    87a4:	e12fff33 	blx	r3
    87a8:	e59f30ac 	ldr	r3, [pc, #172]	; 885c <sd_readblock+0x214>
    87ac:	e5838000 	str	r8, [r3]
    87b0:	ea000022 	b	8840 <sd_readblock+0x1f8>
    87b4:	e5952020 	ldr	r2, [r5, #32]
    87b8:	e7842103 	str	r2, [r4, r3, lsl #2]
    87bc:	e2833001 	add	r3, r3, #1
    87c0:	ea000000 	b	87c8 <sd_readblock+0x180>
    87c4:	e3a03000 	mov	r3, #0
    87c8:	e353007f 	cmp	r3, #127	; 0x7f
    87cc:	dafffff8 	ble	87b4 <sd_readblock+0x16c>
    87d0:	e2866001 	add	r6, r6, #1
    87d4:	e2844c02 	add	r4, r4, #512	; 0x200
    87d8:	e1a08006 	mov	r8, r6
    87dc:	e1560007 	cmp	r6, r7
    87e0:	3affffdd 	bcc	875c <sd_readblock+0x114>
    87e4:	e3570001 	cmp	r7, #1
    87e8:	9a000008 	bls	8810 <sd_readblock+0x1c8>
    87ec:	e59f306c 	ldr	r3, [pc, #108]	; 8860 <sd_readblock+0x218>
    87f0:	e5932000 	ldr	r2, [r3]
    87f4:	e59f3080 	ldr	r3, [pc, #128]	; 887c <sd_readblock+0x234>
    87f8:	e0023003 	and	r3, r2, r3
    87fc:	e3530001 	cmp	r3, #1
    8800:	1a000002 	bne	8810 <sd_readblock+0x1c8>
    8804:	e59f0074 	ldr	r0, [pc, #116]	; 8880 <sd_readblock+0x238>
    8808:	e3a01000 	mov	r1, #0
    880c:	ebfffef1 	bl	83d8 <sd_cmd>
    8810:	e59f3044 	ldr	r3, [pc, #68]	; 885c <sd_readblock+0x214>
    8814:	e5933000 	ldr	r3, [r3]
    8818:	e3530000 	cmp	r3, #0
    881c:	1a000003 	bne	8830 <sd_readblock+0x1e8>
    8820:	e1570008 	cmp	r7, r8
    8824:	1a000003 	bne	8838 <sd_readblock+0x1f0>
    8828:	e1a07487 	lsl	r7, r7, #9
    882c:	ea000002 	b	883c <sd_readblock+0x1f4>
    8830:	e3a07000 	mov	r7, #0
    8834:	ea000000 	b	883c <sd_readblock+0x1f4>
    8838:	e3a07000 	mov	r7, #0
    883c:	e58d7004 	str	r7, [sp, #4]
    8840:	e59d0004 	ldr	r0, [sp, #4]
    8844:	e28dd00c 	add	sp, sp, #12
    8848:	e8bd8ff0 	pop	{r4, r5, r6, r7, r8, r9, sl, fp, pc}
    884c:	0000b228 	andeq	fp, r0, r8, lsr #4
    8850:	0000b584 	andeq	fp, r0, r4, lsl #11
    8854:	0000b598 	muleq	r0, r8, r5
    8858:	0000b324 	andeq	fp, r0, r4, lsr #6
    885c:	0000c314 	andeq	ip, r0, r4, lsl r3
    8860:	0000c31c 	andeq	ip, r0, ip, lsl r3
    8864:	17020000 	strne	r0, [r2, -r0]
    8868:	20300000 	eorscs	r0, r0, r0
    886c:	11220010 	teqne	r2, r0, lsl r0
    8870:	12220032 	eorne	r0, r2, #50	; 0x32
    8874:	00010200 	andeq	r0, r1, r0, lsl #4
    8878:	0000b5a0 	andeq	fp, r0, r0, lsr #11
    887c:	02000001 	andeq	r0, r0, #1
    8880:	0c030000 	stceq	0, cr0, [r3], {-0}

00008884 <sd_writeblock>:
    8884:	e92d4ff0 	push	{r4, r5, r6, r7, r8, r9, sl, fp, lr}
    8888:	e24dd00c 	sub	sp, sp, #12
    888c:	e1a04000 	mov	r4, r0
    8890:	e58d1000 	str	r1, [sp]
    8894:	e2527000 	subs	r7, r2, #0
    8898:	03a07001 	moveq	r7, #1
    889c:	e59f5210 	ldr	r5, [pc, #528]	; 8ab4 <sd_writeblock+0x230>
    88a0:	e5953000 	ldr	r3, [r5]
    88a4:	e59f020c 	ldr	r0, [pc, #524]	; 8ab8 <sd_writeblock+0x234>
    88a8:	e12fff33 	blx	r3
    88ac:	e59d0000 	ldr	r0, [sp]
    88b0:	eb0004bb 	bl	9ba4 <uart_hex>
    88b4:	e5953000 	ldr	r3, [r5]
    88b8:	e59f01fc 	ldr	r0, [pc, #508]	; 8abc <sd_writeblock+0x238>
    88bc:	e12fff33 	blx	r3
    88c0:	e1a00007 	mov	r0, r7
    88c4:	eb0004b6 	bl	9ba4 <uart_hex>
    88c8:	e5953000 	ldr	r3, [r5]
    88cc:	e59f01ec 	ldr	r0, [pc, #492]	; 8ac0 <sd_writeblock+0x23c>
    88d0:	e12fff33 	blx	r3
    88d4:	e59f01e8 	ldr	r0, [pc, #488]	; 8ac4 <sd_writeblock+0x240>
    88d8:	ebfffe6e 	bl	8298 <sd_status>
    88dc:	e3500000 	cmp	r0, #0
    88e0:	e58d0004 	str	r0, [sp, #4]
    88e4:	0a000005 	beq	8900 <sd_writeblock+0x7c>
    88e8:	e3e02000 	mvn	r2, #0
    88ec:	e59f31d4 	ldr	r3, [pc, #468]	; 8ac8 <sd_writeblock+0x244>
    88f0:	e5832000 	str	r2, [r3]
    88f4:	e3a03000 	mov	r3, #0
    88f8:	e58d3004 	str	r3, [sp, #4]
    88fc:	ea000069 	b	8aa8 <sd_writeblock+0x224>
    8900:	e59f31c4 	ldr	r3, [pc, #452]	; 8acc <sd_writeblock+0x248>
    8904:	e5933000 	ldr	r3, [r3]
    8908:	e3130001 	tst	r3, #1
    890c:	0a000018 	beq	8974 <sd_writeblock+0xf0>
    8910:	e3570001 	cmp	r7, #1
    8914:	9a000008 	bls	893c <sd_writeblock+0xb8>
    8918:	e3130402 	tst	r3, #33554432	; 0x2000000
    891c:	0a000006 	beq	893c <sd_writeblock+0xb8>
    8920:	e59f01a8 	ldr	r0, [pc, #424]	; 8ad0 <sd_writeblock+0x24c>
    8924:	e1a01007 	mov	r1, r7
    8928:	ebfffeaa 	bl	83d8 <sd_cmd>
    892c:	e59f3194 	ldr	r3, [pc, #404]	; 8ac8 <sd_writeblock+0x244>
    8930:	e5933000 	ldr	r3, [r3]
    8934:	e3530000 	cmp	r3, #0
    8938:	1a00005a 	bne	8aa8 <sd_writeblock+0x224>
    893c:	e1a02807 	lsl	r2, r7, #16
    8940:	e3822c02 	orr	r2, r2, #512	; 0x200
    8944:	e59f3188 	ldr	r3, [pc, #392]	; 8ad4 <sd_writeblock+0x250>
    8948:	e5832004 	str	r2, [r3, #4]
    894c:	e3570001 	cmp	r7, #1
    8950:	059f0180 	ldreq	r0, [pc, #384]	; 8ad8 <sd_writeblock+0x254>
    8954:	159f0180 	ldrne	r0, [pc, #384]	; 8adc <sd_writeblock+0x258>
    8958:	e59d1000 	ldr	r1, [sp]
    895c:	ebfffe9d 	bl	83d8 <sd_cmd>
    8960:	e59f3160 	ldr	r3, [pc, #352]	; 8ac8 <sd_writeblock+0x244>
    8964:	e5933000 	ldr	r3, [r3]
    8968:	e3530000 	cmp	r3, #0
    896c:	0a000003 	beq	8980 <sd_writeblock+0xfc>
    8970:	ea00004c 	b	8aa8 <sd_writeblock+0x224>
    8974:	e59f2164 	ldr	r2, [pc, #356]	; 8ae0 <sd_writeblock+0x25c>
    8978:	e59f3154 	ldr	r3, [pc, #340]	; 8ad4 <sd_writeblock+0x250>
    897c:	e5832004 	str	r2, [r3, #4]
    8980:	e3a06000 	mov	r6, #0
    8984:	e59fa140 	ldr	sl, [pc, #320]	; 8acc <sd_writeblock+0x248>
    8988:	e59fb138 	ldr	fp, [pc, #312]	; 8ac8 <sd_writeblock+0x244>
    898c:	e3a09010 	mov	r9, #16
    8990:	e59f513c 	ldr	r5, [pc, #316]	; 8ad4 <sd_writeblock+0x250>
    8994:	ea00001e 	b	8a14 <sd_writeblock+0x190>
    8998:	e59a3000 	ldr	r3, [sl]
    899c:	e3130001 	tst	r3, #1
    89a0:	1a000007 	bne	89c4 <sd_writeblock+0x140>
    89a4:	e59d3000 	ldr	r3, [sp]
    89a8:	e0831008 	add	r1, r3, r8
    89ac:	e59f0124 	ldr	r0, [pc, #292]	; 8ad8 <sd_writeblock+0x254>
    89b0:	e1a01481 	lsl	r1, r1, #9
    89b4:	ebfffe87 	bl	83d8 <sd_cmd>
    89b8:	e59b3000 	ldr	r3, [fp]
    89bc:	e3530000 	cmp	r3, #0
    89c0:	1a000038 	bne	8aa8 <sd_writeblock+0x224>
    89c4:	e1a00009 	mov	r0, r9
    89c8:	ebfffe57 	bl	832c <sd_int>
    89cc:	e2508000 	subs	r8, r0, #0
    89d0:	0a00000a 	beq	8a00 <sd_writeblock+0x17c>
    89d4:	e59f30d8 	ldr	r3, [pc, #216]	; 8ab4 <sd_writeblock+0x230>
    89d8:	e5933000 	ldr	r3, [r3]
    89dc:	e59f0100 	ldr	r0, [pc, #256]	; 8ae4 <sd_writeblock+0x260>
    89e0:	e12fff33 	blx	r3
    89e4:	e59f30dc 	ldr	r3, [pc, #220]	; 8ac8 <sd_writeblock+0x244>
    89e8:	e5838000 	str	r8, [r3]
    89ec:	ea00002d 	b	8aa8 <sd_writeblock+0x224>
    89f0:	e7942103 	ldr	r2, [r4, r3, lsl #2]
    89f4:	e5852020 	str	r2, [r5, #32]
    89f8:	e2833001 	add	r3, r3, #1
    89fc:	ea000000 	b	8a04 <sd_writeblock+0x180>
    8a00:	e3a03000 	mov	r3, #0
    8a04:	e353007f 	cmp	r3, #127	; 0x7f
    8a08:	dafffff8 	ble	89f0 <sd_writeblock+0x16c>
    8a0c:	e2866001 	add	r6, r6, #1
    8a10:	e2844c02 	add	r4, r4, #512	; 0x200
    8a14:	e1a08006 	mov	r8, r6
    8a18:	e1560007 	cmp	r6, r7
    8a1c:	3affffdd 	bcc	8998 <sd_writeblock+0x114>
    8a20:	e3a00002 	mov	r0, #2
    8a24:	ebfffe40 	bl	832c <sd_int>
    8a28:	e2504000 	subs	r4, r0, #0
    8a2c:	0a000006 	beq	8a4c <sd_writeblock+0x1c8>
    8a30:	e59f307c 	ldr	r3, [pc, #124]	; 8ab4 <sd_writeblock+0x230>
    8a34:	e5933000 	ldr	r3, [r3]
    8a38:	e59f00a8 	ldr	r0, [pc, #168]	; 8ae8 <sd_writeblock+0x264>
    8a3c:	e12fff33 	blx	r3
    8a40:	e59f3080 	ldr	r3, [pc, #128]	; 8ac8 <sd_writeblock+0x244>
    8a44:	e5834000 	str	r4, [r3]
    8a48:	ea000016 	b	8aa8 <sd_writeblock+0x224>
    8a4c:	e3570001 	cmp	r7, #1
    8a50:	9a000008 	bls	8a78 <sd_writeblock+0x1f4>
    8a54:	e59f3070 	ldr	r3, [pc, #112]	; 8acc <sd_writeblock+0x248>
    8a58:	e5932000 	ldr	r2, [r3]
    8a5c:	e59f3088 	ldr	r3, [pc, #136]	; 8aec <sd_writeblock+0x268>
    8a60:	e0023003 	and	r3, r2, r3
    8a64:	e3530001 	cmp	r3, #1
    8a68:	1a000002 	bne	8a78 <sd_writeblock+0x1f4>
    8a6c:	e59f007c 	ldr	r0, [pc, #124]	; 8af0 <sd_writeblock+0x26c>
    8a70:	e3a01000 	mov	r1, #0
    8a74:	ebfffe57 	bl	83d8 <sd_cmd>
    8a78:	e59f3048 	ldr	r3, [pc, #72]	; 8ac8 <sd_writeblock+0x244>
    8a7c:	e5933000 	ldr	r3, [r3]
    8a80:	e3530000 	cmp	r3, #0
    8a84:	1a000003 	bne	8a98 <sd_writeblock+0x214>
    8a88:	e1570008 	cmp	r7, r8
    8a8c:	1a000003 	bne	8aa0 <sd_writeblock+0x21c>
    8a90:	e1a07487 	lsl	r7, r7, #9
    8a94:	ea000002 	b	8aa4 <sd_writeblock+0x220>
    8a98:	e3a07000 	mov	r7, #0
    8a9c:	ea000000 	b	8aa4 <sd_writeblock+0x220>
    8aa0:	e3a07000 	mov	r7, #0
    8aa4:	e58d7004 	str	r7, [sp, #4]
    8aa8:	e59d0004 	ldr	r0, [sp, #4]
    8aac:	e28dd00c 	add	sp, sp, #12
    8ab0:	e8bd8ff0 	pop	{r4, r5, r6, r7, r8, r9, sl, fp, pc}
    8ab4:	0000b228 	andeq	fp, r0, r8, lsr #4
    8ab8:	0000b5cc 	andeq	fp, r0, ip, asr #11
    8abc:	0000b598 	muleq	r0, r8, r5
    8ac0:	0000b324 	andeq	fp, r0, r4, lsr #6
    8ac4:	00000402 	andeq	r0, r0, r2, lsl #8
    8ac8:	0000c314 	andeq	ip, r0, r4, lsl r3
    8acc:	0000c31c 	andeq	ip, r0, ip, lsl r3
    8ad0:	17020000 	strne	r0, [r2, -r0]
    8ad4:	20300000 	eorscs	r0, r0, r0
    8ad8:	18220000 	stmdane	r2!, {}	; <UNPREDICTABLE>
    8adc:	19220022 	stmdbne	r2!, {r1, r5}
    8ae0:	00010200 	andeq	r0, r1, r0, lsl #4
    8ae4:	0000b5e0 	andeq	fp, r0, r0, ror #11
    8ae8:	0000b60c 	andeq	fp, r0, ip, lsl #12
    8aec:	02000001 	andeq	r0, r0, #1
    8af0:	0c030000 	stceq	0, cr0, [r3], {-0}

00008af4 <sd_init>:
    8af4:	e92d4ff8 	push	{r3, r4, r5, r6, r7, r8, r9, sl, fp, lr}
    8af8:	e59f4754 	ldr	r4, [pc, #1876]	; 9254 <sd_init+0x760>
    8afc:	e5943010 	ldr	r3, [r4, #16]
    8b00:	e3c3360e 	bic	r3, r3, #14680064	; 0xe00000
    8b04:	e5843010 	str	r3, [r4, #16]
    8b08:	e3a06002 	mov	r6, #2
    8b0c:	e5846094 	str	r6, [r4, #148]	; 0x94
    8b10:	e3a00096 	mov	r0, #150	; 0x96
    8b14:	eb0005ba 	bl	a204 <delay_cycles>
    8b18:	e3a03902 	mov	r3, #32768	; 0x8000
    8b1c:	e584309c 	str	r3, [r4, #156]	; 0x9c
    8b20:	e3a00096 	mov	r0, #150	; 0x96
    8b24:	eb0005b6 	bl	a204 <delay_cycles>
    8b28:	e3a05000 	mov	r5, #0
    8b2c:	e5845094 	str	r5, [r4, #148]	; 0x94
    8b30:	e584509c 	str	r5, [r4, #156]	; 0x9c
    8b34:	e5943068 	ldr	r3, [r4, #104]	; 0x68
    8b38:	e3833902 	orr	r3, r3, #32768	; 0x8000
    8b3c:	e5843068 	str	r3, [r4, #104]	; 0x68
    8b40:	e5943010 	ldr	r3, [r4, #16]
    8b44:	e383343f 	orr	r3, r3, #1056964608	; 0x3f000000
    8b48:	e5843010 	str	r3, [r4, #16]
    8b4c:	e5846094 	str	r6, [r4, #148]	; 0x94
    8b50:	e3a00096 	mov	r0, #150	; 0x96
    8b54:	eb0005aa 	bl	a204 <delay_cycles>
    8b58:	e3a03803 	mov	r3, #196608	; 0x30000
    8b5c:	e584309c 	str	r3, [r4, #156]	; 0x9c
    8b60:	e3a00096 	mov	r0, #150	; 0x96
    8b64:	eb0005a6 	bl	a204 <delay_cycles>
    8b68:	e5845094 	str	r5, [r4, #148]	; 0x94
    8b6c:	e584509c 	str	r5, [r4, #156]	; 0x9c
    8b70:	e5943014 	ldr	r3, [r4, #20]
    8b74:	e1e03623 	mvn	r3, r3, lsr #12
    8b78:	e1e03603 	mvn	r3, r3, lsl #12
    8b7c:	e5843014 	str	r3, [r4, #20]
    8b80:	e5846094 	str	r6, [r4, #148]	; 0x94
    8b84:	e3a00096 	mov	r0, #150	; 0x96
    8b88:	eb00059d 	bl	a204 <delay_cycles>
    8b8c:	e3a0370f 	mov	r3, #3932160	; 0x3c0000
    8b90:	e584309c 	str	r3, [r4, #156]	; 0x9c
    8b94:	e3a00096 	mov	r0, #150	; 0x96
    8b98:	eb000599 	bl	a204 <delay_cycles>
    8b9c:	e5845094 	str	r5, [r4, #148]	; 0x94
    8ba0:	e584509c 	str	r5, [r4, #156]	; 0x9c
    8ba4:	e2844601 	add	r4, r4, #1048576	; 0x100000
    8ba8:	e59420fc 	ldr	r2, [r4, #252]	; 0xfc
    8bac:	e20228ff 	and	r2, r2, #16711680	; 0xff0000
    8bb0:	e1a02822 	lsr	r2, r2, #16
    8bb4:	e59f369c 	ldr	r3, [pc, #1692]	; 9258 <sd_init+0x764>
    8bb8:	e5832000 	str	r2, [r3]
    8bbc:	e59f3698 	ldr	r3, [pc, #1688]	; 925c <sd_init+0x768>
    8bc0:	e5933000 	ldr	r3, [r3]
    8bc4:	e59f0694 	ldr	r0, [pc, #1684]	; 9260 <sd_init+0x76c>
    8bc8:	e12fff33 	blx	r3
    8bcc:	e5845028 	str	r5, [r4, #40]	; 0x28
    8bd0:	e594302c 	ldr	r3, [r4, #44]	; 0x2c
    8bd4:	e3833401 	orr	r3, r3, #16777216	; 0x1000000
    8bd8:	e584302c 	str	r3, [r4, #44]	; 0x2c
    8bdc:	e59f4680 	ldr	r4, [pc, #1664]	; 9264 <sd_init+0x770>
    8be0:	e3a0600a 	mov	r6, #10
    8be4:	e59f567c 	ldr	r5, [pc, #1660]	; 9268 <sd_init+0x774>
    8be8:	ea000000 	b	8bf0 <sd_init+0xfc>
    8bec:	e1a04003 	mov	r4, r3
    8bf0:	e1a00006 	mov	r0, r6
    8bf4:	eb00059a 	bl	a264 <delay_ms>
    8bf8:	e595302c 	ldr	r3, [r5, #44]	; 0x2c
    8bfc:	e3130401 	tst	r3, #16777216	; 0x1000000
    8c00:	0a000003 	beq	8c14 <sd_init+0x120>
    8c04:	e2443001 	sub	r3, r4, #1
    8c08:	e3540000 	cmp	r4, #0
    8c0c:	1afffff6 	bne	8bec <sd_init+0xf8>
    8c10:	e1a04003 	mov	r4, r3
    8c14:	e3540000 	cmp	r4, #0
    8c18:	ca000005 	bgt	8c34 <sd_init+0x140>
    8c1c:	e59f3638 	ldr	r3, [pc, #1592]	; 925c <sd_init+0x768>
    8c20:	e5933000 	ldr	r3, [r3]
    8c24:	e59f0640 	ldr	r0, [pc, #1600]	; 926c <sd_init+0x778>
    8c28:	e12fff33 	blx	r3
    8c2c:	e3e04001 	mvn	r4, #1
    8c30:	ea000185 	b	924c <sd_init+0x758>
    8c34:	e59f3620 	ldr	r3, [pc, #1568]	; 925c <sd_init+0x768>
    8c38:	e5933000 	ldr	r3, [r3]
    8c3c:	e59f062c 	ldr	r0, [pc, #1580]	; 9270 <sd_init+0x77c>
    8c40:	e12fff33 	blx	r3
    8c44:	e59f361c 	ldr	r3, [pc, #1564]	; 9268 <sd_init+0x774>
    8c48:	e593202c 	ldr	r2, [r3, #44]	; 0x2c
    8c4c:	e382280e 	orr	r2, r2, #917504	; 0xe0000
    8c50:	e3822001 	orr	r2, r2, #1
    8c54:	e583202c 	str	r2, [r3, #44]	; 0x2c
    8c58:	e3a0000a 	mov	r0, #10
    8c5c:	eb000580 	bl	a264 <delay_ms>
    8c60:	e59f360c 	ldr	r3, [pc, #1548]	; 9274 <sd_init+0x780>
    8c64:	e59f55fc 	ldr	r5, [pc, #1532]	; 9268 <sd_init+0x774>
    8c68:	e3a06001 	mov	r6, #1
    8c6c:	ea000002 	b	8c7c <sd_init+0x188>
    8c70:	e1a00006 	mov	r0, r6
    8c74:	eb00057a 	bl	a264 <delay_ms>
    8c78:	e1a03004 	mov	r3, r4
    8c7c:	e5952024 	ldr	r2, [r5, #36]	; 0x24
    8c80:	e3120003 	tst	r2, #3
    8c84:	0a000003 	beq	8c98 <sd_init+0x1a4>
    8c88:	e2434001 	sub	r4, r3, #1
    8c8c:	e3530000 	cmp	r3, #0
    8c90:	1afffff6 	bne	8c70 <sd_init+0x17c>
    8c94:	e1a03004 	mov	r3, r4
    8c98:	e3530000 	cmp	r3, #0
    8c9c:	ca000005 	bgt	8cb8 <sd_init+0x1c4>
    8ca0:	e59f35b4 	ldr	r3, [pc, #1460]	; 925c <sd_init+0x768>
    8ca4:	e5933000 	ldr	r3, [r3]
    8ca8:	e59f05c8 	ldr	r0, [pc, #1480]	; 9278 <sd_init+0x784>
    8cac:	e12fff33 	blx	r3
    8cb0:	e3e04001 	mvn	r4, #1
    8cb4:	ea00003c 	b	8dac <sd_init+0x2b8>
    8cb8:	e59f35a8 	ldr	r3, [pc, #1448]	; 9268 <sd_init+0x774>
    8cbc:	e593202c 	ldr	r2, [r3, #44]	; 0x2c
    8cc0:	e3c22004 	bic	r2, r2, #4
    8cc4:	e583202c 	str	r2, [r3, #44]	; 0x2c
    8cc8:	e3a0000a 	mov	r0, #10
    8ccc:	eb000564 	bl	a264 <delay_ms>
    8cd0:	e59f3580 	ldr	r3, [pc, #1408]	; 9258 <sd_init+0x764>
    8cd4:	e5933000 	ldr	r3, [r3]
    8cd8:	e3530001 	cmp	r3, #1
    8cdc:	83a05068 	movhi	r5, #104	; 0x68
    8ce0:	93a05040 	movls	r5, #64	; 0x40
    8ce4:	e59f4570 	ldr	r4, [pc, #1392]	; 925c <sd_init+0x768>
    8ce8:	e5943000 	ldr	r3, [r4]
    8cec:	e59f0588 	ldr	r0, [pc, #1416]	; 927c <sd_init+0x788>
    8cf0:	e12fff33 	blx	r3
    8cf4:	e1a00005 	mov	r0, r5
    8cf8:	eb0003a9 	bl	9ba4 <uart_hex>
    8cfc:	e5943000 	ldr	r3, [r4]
    8d00:	e59f0578 	ldr	r0, [pc, #1400]	; 9280 <sd_init+0x78c>
    8d04:	e12fff33 	blx	r3
    8d08:	e3a00006 	mov	r0, #6
    8d0c:	eb0003a4 	bl	9ba4 <uart_hex>
    8d10:	e5943000 	ldr	r3, [r4]
    8d14:	e59f0568 	ldr	r0, [pc, #1384]	; 9284 <sd_init+0x790>
    8d18:	e12fff33 	blx	r3
    8d1c:	e59f4544 	ldr	r4, [pc, #1348]	; 9268 <sd_init+0x774>
    8d20:	e594302c 	ldr	r3, [r4, #44]	; 0x2c
    8d24:	e3c33cff 	bic	r3, r3, #65280	; 0xff00
    8d28:	e3c330c0 	bic	r3, r3, #192	; 0xc0
    8d2c:	e1835405 	orr	r5, r3, r5, lsl #8
    8d30:	e584502c 	str	r5, [r4, #44]	; 0x2c
    8d34:	e3a0000a 	mov	r0, #10
    8d38:	eb000549 	bl	a264 <delay_ms>
    8d3c:	e594302c 	ldr	r3, [r4, #44]	; 0x2c
    8d40:	e3833004 	orr	r3, r3, #4
    8d44:	e584302c 	str	r3, [r4, #44]	; 0x2c
    8d48:	e3a0000a 	mov	r0, #10
    8d4c:	eb000544 	bl	a264 <delay_ms>
    8d50:	e59f350c 	ldr	r3, [pc, #1292]	; 9264 <sd_init+0x770>
    8d54:	e1a05004 	mov	r5, r4
    8d58:	e3a0600a 	mov	r6, #10
    8d5c:	ea000002 	b	8d6c <sd_init+0x278>
    8d60:	e1a00006 	mov	r0, r6
    8d64:	eb00053e 	bl	a264 <delay_ms>
    8d68:	e1a03004 	mov	r3, r4
    8d6c:	e595202c 	ldr	r2, [r5, #44]	; 0x2c
    8d70:	e3120002 	tst	r2, #2
    8d74:	1a000003 	bne	8d88 <sd_init+0x294>
    8d78:	e2434001 	sub	r4, r3, #1
    8d7c:	e3530000 	cmp	r3, #0
    8d80:	1afffff6 	bne	8d60 <sd_init+0x26c>
    8d84:	e1a03004 	mov	r3, r4
    8d88:	e3530000 	cmp	r3, #0
    8d8c:	ca000005 	bgt	8da8 <sd_init+0x2b4>
    8d90:	e59f34c4 	ldr	r3, [pc, #1220]	; 925c <sd_init+0x768>
    8d94:	e5933000 	ldr	r3, [r3]
    8d98:	e59f04e8 	ldr	r0, [pc, #1256]	; 9288 <sd_init+0x794>
    8d9c:	e12fff33 	blx	r3
    8da0:	e3e04001 	mvn	r4, #1
    8da4:	ea000000 	b	8dac <sd_init+0x2b8>
    8da8:	e3a04000 	mov	r4, #0
    8dac:	e3540000 	cmp	r4, #0
    8db0:	1a000125 	bne	924c <sd_init+0x758>
    8db4:	e59f34ac 	ldr	r3, [pc, #1196]	; 9268 <sd_init+0x774>
    8db8:	e3e02000 	mvn	r2, #0
    8dbc:	e5832038 	str	r2, [r3, #56]	; 0x38
    8dc0:	e5832034 	str	r2, [r3, #52]	; 0x34
    8dc4:	e59f54c0 	ldr	r5, [pc, #1216]	; 928c <sd_init+0x798>
    8dc8:	e3a01000 	mov	r1, #0
    8dcc:	e5851000 	str	r1, [r5]
    8dd0:	e59f34b8 	ldr	r3, [pc, #1208]	; 9290 <sd_init+0x79c>
    8dd4:	e5831000 	str	r1, [r3]
    8dd8:	e59f34b4 	ldr	r3, [pc, #1204]	; 9294 <sd_init+0x7a0>
    8ddc:	e5831004 	str	r1, [r3, #4]
    8de0:	e5831000 	str	r1, [r3]
    8de4:	e1a00001 	mov	r0, r1
    8de8:	ebfffd7a 	bl	83d8 <sd_cmd>
    8dec:	e5953000 	ldr	r3, [r5]
    8df0:	e3530000 	cmp	r3, #0
    8df4:	11a04003 	movne	r4, r3
    8df8:	1a000113 	bne	924c <sd_init+0x758>
    8dfc:	e59f0494 	ldr	r0, [pc, #1172]	; 9298 <sd_init+0x7a4>
    8e00:	e59f1494 	ldr	r1, [pc, #1172]	; 929c <sd_init+0x7a8>
    8e04:	ebfffd73 	bl	83d8 <sd_cmd>
    8e08:	e59f347c 	ldr	r3, [pc, #1148]	; 928c <sd_init+0x798>
    8e0c:	e5933000 	ldr	r3, [r3]
    8e10:	e3530000 	cmp	r3, #0
    8e14:	0a00002c 	beq	8ecc <sd_init+0x3d8>
    8e18:	e1a04003 	mov	r4, r3
    8e1c:	ea00010a 	b	924c <sd_init+0x758>
    8e20:	e3a00e19 	mov	r0, #400	; 0x190
    8e24:	eb0004f6 	bl	a204 <delay_cycles>
    8e28:	e59f0470 	ldr	r0, [pc, #1136]	; 92a0 <sd_init+0x7ac>
    8e2c:	e59f1470 	ldr	r1, [pc, #1136]	; 92a4 <sd_init+0x7b0>
    8e30:	ebfffd68 	bl	83d8 <sd_cmd>
    8e34:	e1a05000 	mov	r5, r0
    8e38:	e5963000 	ldr	r3, [r6]
    8e3c:	e1a00009 	mov	r0, r9
    8e40:	e12fff33 	blx	r3
    8e44:	e3550000 	cmp	r5, #0
    8e48:	aa000002 	bge	8e58 <sd_init+0x364>
    8e4c:	e5963000 	ldr	r3, [r6]
    8e50:	e59f0450 	ldr	r0, [pc, #1104]	; 92a8 <sd_init+0x7b4>
    8e54:	e12fff33 	blx	r3
    8e58:	e59f344c 	ldr	r3, [pc, #1100]	; 92ac <sd_init+0x7b8>
    8e5c:	e0053003 	and	r3, r5, r3
    8e60:	e3530000 	cmp	r3, #0
    8e64:	0a000002 	beq	8e74 <sd_init+0x380>
    8e68:	e5963000 	ldr	r3, [r6]
    8e6c:	e1a0000b 	mov	r0, fp
    8e70:	e12fff33 	blx	r3
    8e74:	e3150101 	tst	r5, #1073741824	; 0x40000000
    8e78:	0a000002 	beq	8e88 <sd_init+0x394>
    8e7c:	e5963000 	ldr	r3, [r6]
    8e80:	e1a0000a 	mov	r0, sl
    8e84:	e12fff33 	blx	r3
    8e88:	e1a00005 	mov	r0, r5
    8e8c:	eb000344 	bl	9ba4 <uart_hex>
    8e90:	e5963000 	ldr	r3, [r6]
    8e94:	e1a00008 	mov	r0, r8
    8e98:	e12fff33 	blx	r3
    8e9c:	e59f33e8 	ldr	r3, [pc, #1000]	; 928c <sd_init+0x798>
    8ea0:	e5933000 	ldr	r3, [r3]
    8ea4:	e2433001 	sub	r3, r3, #1
    8ea8:	e3730003 	cmn	r3, #3
    8eac:	8a00000e 	bhi	8eec <sd_init+0x3f8>
    8eb0:	e59f33a4 	ldr	r3, [pc, #932]	; 925c <sd_init+0x768>
    8eb4:	e5933000 	ldr	r3, [r3]
    8eb8:	e59f03f0 	ldr	r0, [pc, #1008]	; 92b0 <sd_init+0x7bc>
    8ebc:	e12fff33 	blx	r3
    8ec0:	e59f33c4 	ldr	r3, [pc, #964]	; 928c <sd_init+0x798>
    8ec4:	e5934000 	ldr	r4, [r3]
    8ec8:	ea0000df 	b	924c <sd_init+0x758>
    8ecc:	e3a03006 	mov	r3, #6
    8ed0:	e3a05000 	mov	r5, #0
    8ed4:	e59f6380 	ldr	r6, [pc, #896]	; 925c <sd_init+0x768>
    8ed8:	e59f93d4 	ldr	r9, [pc, #980]	; 92b4 <sd_init+0x7c0>
    8edc:	e59fb3d4 	ldr	fp, [pc, #980]	; 92b8 <sd_init+0x7c4>
    8ee0:	e59fa3d4 	ldr	sl, [pc, #980]	; 92bc <sd_init+0x7c8>
    8ee4:	e59f8398 	ldr	r8, [pc, #920]	; 9284 <sd_init+0x790>
    8ee8:	ea000000 	b	8ef0 <sd_init+0x3fc>
    8eec:	e1a03007 	mov	r3, r7
    8ef0:	e3550000 	cmp	r5, #0
    8ef4:	ba000003 	blt	8f08 <sd_init+0x414>
    8ef8:	e2437001 	sub	r7, r3, #1
    8efc:	e3530000 	cmp	r3, #0
    8f00:	1affffc6 	bne	8e20 <sd_init+0x32c>
    8f04:	ea000000 	b	8f0c <sd_init+0x418>
    8f08:	e1a07003 	mov	r7, r3
    8f0c:	e3570000 	cmp	r7, #0
    8f10:	13550000 	cmpne	r5, #0
    8f14:	aa0000c3 	bge	9228 <sd_init+0x734>
    8f18:	e59f338c 	ldr	r3, [pc, #908]	; 92ac <sd_init+0x7b8>
    8f1c:	e0053003 	and	r3, r5, r3
    8f20:	e3530000 	cmp	r3, #0
    8f24:	0a0000c1 	beq	9230 <sd_init+0x73c>
    8f28:	e3150101 	tst	r5, #1073741824	; 0x40000000
    8f2c:	03a06000 	moveq	r6, #0
    8f30:	13a06001 	movne	r6, #1
    8f34:	e59f0384 	ldr	r0, [pc, #900]	; 92c0 <sd_init+0x7cc>
    8f38:	e3a01000 	mov	r1, #0
    8f3c:	ebfffd25 	bl	83d8 <sd_cmd>
    8f40:	e59f037c 	ldr	r0, [pc, #892]	; 92c4 <sd_init+0x7d0>
    8f44:	e3a01000 	mov	r1, #0
    8f48:	ebfffd22 	bl	83d8 <sd_cmd>
    8f4c:	e59f733c 	ldr	r7, [pc, #828]	; 9290 <sd_init+0x79c>
    8f50:	e5870000 	str	r0, [r7]
    8f54:	e59f5300 	ldr	r5, [pc, #768]	; 925c <sd_init+0x768>
    8f58:	e5953000 	ldr	r3, [r5]
    8f5c:	e59f0364 	ldr	r0, [pc, #868]	; 92c8 <sd_init+0x7d4>
    8f60:	e12fff33 	blx	r3
    8f64:	e5970000 	ldr	r0, [r7]
    8f68:	eb00030d 	bl	9ba4 <uart_hex>
    8f6c:	e5953000 	ldr	r3, [r5]
    8f70:	e59f030c 	ldr	r0, [pc, #780]	; 9284 <sd_init+0x790>
    8f74:	e12fff33 	blx	r3
    8f78:	e59f330c 	ldr	r3, [pc, #780]	; 928c <sd_init+0x798>
    8f7c:	e5933000 	ldr	r3, [r3]
    8f80:	e3530000 	cmp	r3, #0
    8f84:	0a000005 	beq	8fa0 <sd_init+0x4ac>
    8f88:	e1a04003 	mov	r4, r3
    8f8c:	ea0000ae 	b	924c <sd_init+0x758>
    8f90:	e1a00008 	mov	r0, r8
    8f94:	eb0004b2 	bl	a264 <delay_ms>
    8f98:	e1a03005 	mov	r3, r5
    8f9c:	ea000002 	b	8fac <sd_init+0x4b8>
    8fa0:	e59f32cc 	ldr	r3, [pc, #716]	; 9274 <sd_init+0x780>
    8fa4:	e59f72bc 	ldr	r7, [pc, #700]	; 9268 <sd_init+0x774>
    8fa8:	e3a08001 	mov	r8, #1
    8fac:	e5972024 	ldr	r2, [r7, #36]	; 0x24
    8fb0:	e3120003 	tst	r2, #3
    8fb4:	0a000003 	beq	8fc8 <sd_init+0x4d4>
    8fb8:	e2435001 	sub	r5, r3, #1
    8fbc:	e3530000 	cmp	r3, #0
    8fc0:	1afffff2 	bne	8f90 <sd_init+0x49c>
    8fc4:	e1a03005 	mov	r3, r5
    8fc8:	e3530000 	cmp	r3, #0
    8fcc:	ca000005 	bgt	8fe8 <sd_init+0x4f4>
    8fd0:	e59f3284 	ldr	r3, [pc, #644]	; 925c <sd_init+0x768>
    8fd4:	e5933000 	ldr	r3, [r3]
    8fd8:	e59f0298 	ldr	r0, [pc, #664]	; 9278 <sd_init+0x784>
    8fdc:	e12fff33 	blx	r3
    8fe0:	e3e04001 	mvn	r4, #1
    8fe4:	ea000034 	b	90bc <sd_init+0x5c8>
    8fe8:	e59f5278 	ldr	r5, [pc, #632]	; 9268 <sd_init+0x774>
    8fec:	e595302c 	ldr	r3, [r5, #44]	; 0x2c
    8ff0:	e3c33004 	bic	r3, r3, #4
    8ff4:	e585302c 	str	r3, [r5, #44]	; 0x2c
    8ff8:	e3a0000a 	mov	r0, #10
    8ffc:	eb000498 	bl	a264 <delay_ms>
    9000:	e59f7254 	ldr	r7, [pc, #596]	; 925c <sd_init+0x768>
    9004:	e5973000 	ldr	r3, [r7]
    9008:	e59f026c 	ldr	r0, [pc, #620]	; 927c <sd_init+0x788>
    900c:	e12fff33 	blx	r3
    9010:	e3a00002 	mov	r0, #2
    9014:	eb0002e2 	bl	9ba4 <uart_hex>
    9018:	e5973000 	ldr	r3, [r7]
    901c:	e59f025c 	ldr	r0, [pc, #604]	; 9280 <sd_init+0x78c>
    9020:	e12fff33 	blx	r3
    9024:	e3a00000 	mov	r0, #0
    9028:	eb0002dd 	bl	9ba4 <uart_hex>
    902c:	e5973000 	ldr	r3, [r7]
    9030:	e59f024c 	ldr	r0, [pc, #588]	; 9284 <sd_init+0x790>
    9034:	e12fff33 	blx	r3
    9038:	e595302c 	ldr	r3, [r5, #44]	; 0x2c
    903c:	e3c33cff 	bic	r3, r3, #65280	; 0xff00
    9040:	e3c330c0 	bic	r3, r3, #192	; 0xc0
    9044:	e3833c02 	orr	r3, r3, #512	; 0x200
    9048:	e585302c 	str	r3, [r5, #44]	; 0x2c
    904c:	e3a0000a 	mov	r0, #10
    9050:	eb000483 	bl	a264 <delay_ms>
    9054:	e595302c 	ldr	r3, [r5, #44]	; 0x2c
    9058:	e3833004 	orr	r3, r3, #4
    905c:	e585302c 	str	r3, [r5, #44]	; 0x2c
    9060:	e3a0000a 	mov	r0, #10
    9064:	eb00047e 	bl	a264 <delay_ms>
    9068:	e59f31f4 	ldr	r3, [pc, #500]	; 9264 <sd_init+0x770>
    906c:	e1a07005 	mov	r7, r5
    9070:	e3a0800a 	mov	r8, #10
    9074:	ea000002 	b	9084 <sd_init+0x590>
    9078:	e1a00008 	mov	r0, r8
    907c:	eb000478 	bl	a264 <delay_ms>
    9080:	e1a03005 	mov	r3, r5
    9084:	e597202c 	ldr	r2, [r7, #44]	; 0x2c
    9088:	e3120002 	tst	r2, #2
    908c:	1a000003 	bne	90a0 <sd_init+0x5ac>
    9090:	e2435001 	sub	r5, r3, #1
    9094:	e3530000 	cmp	r3, #0
    9098:	1afffff6 	bne	9078 <sd_init+0x584>
    909c:	e1a03005 	mov	r3, r5
    90a0:	e3530000 	cmp	r3, #0
    90a4:	ca000004 	bgt	90bc <sd_init+0x5c8>
    90a8:	e59f31ac 	ldr	r3, [pc, #428]	; 925c <sd_init+0x768>
    90ac:	e5933000 	ldr	r3, [r3]
    90b0:	e59f01d0 	ldr	r0, [pc, #464]	; 9288 <sd_init+0x794>
    90b4:	e12fff33 	blx	r3
    90b8:	e3e04001 	mvn	r4, #1
    90bc:	e3540000 	cmp	r4, #0
    90c0:	1a000061 	bne	924c <sd_init+0x758>
    90c4:	e59f0200 	ldr	r0, [pc, #512]	; 92cc <sd_init+0x7d8>
    90c8:	e59f31c0 	ldr	r3, [pc, #448]	; 9290 <sd_init+0x79c>
    90cc:	e5931000 	ldr	r1, [r3]
    90d0:	ebfffcc0 	bl	83d8 <sd_cmd>
    90d4:	e59f31b0 	ldr	r3, [pc, #432]	; 928c <sd_init+0x798>
    90d8:	e5934000 	ldr	r4, [r3]
    90dc:	e3540000 	cmp	r4, #0
    90e0:	1a000059 	bne	924c <sd_init+0x758>
    90e4:	e3a00002 	mov	r0, #2
    90e8:	ebfffc6a 	bl	8298 <sd_status>
    90ec:	e3500000 	cmp	r0, #0
    90f0:	1a000050 	bne	9238 <sd_init+0x744>
    90f4:	e59f21d4 	ldr	r2, [pc, #468]	; 92d0 <sd_init+0x7dc>
    90f8:	e59f3168 	ldr	r3, [pc, #360]	; 9268 <sd_init+0x774>
    90fc:	e5832004 	str	r2, [r3, #4]
    9100:	e59f01cc 	ldr	r0, [pc, #460]	; 92d4 <sd_init+0x7e0>
    9104:	e3a01000 	mov	r1, #0
    9108:	ebfffcb2 	bl	83d8 <sd_cmd>
    910c:	e59f3178 	ldr	r3, [pc, #376]	; 928c <sd_init+0x798>
    9110:	e5934000 	ldr	r4, [r3]
    9114:	e3540000 	cmp	r4, #0
    9118:	1a00004b 	bne	924c <sd_init+0x758>
    911c:	e3a00020 	mov	r0, #32
    9120:	ebfffc81 	bl	832c <sd_int>
    9124:	e2504000 	subs	r4, r0, #0
    9128:	1a000044 	bne	9240 <sd_init+0x74c>
    912c:	e3a05000 	mov	r5, #0
    9130:	e59f7130 	ldr	r7, [pc, #304]	; 9268 <sd_init+0x774>
    9134:	e3a09001 	mov	r9, #1
    9138:	e59f8154 	ldr	r8, [pc, #340]	; 9294 <sd_init+0x7a0>
    913c:	ea000007 	b	9160 <sd_init+0x66c>
    9140:	e5973024 	ldr	r3, [r7, #36]	; 0x24
    9144:	e3130b02 	tst	r3, #2048	; 0x800
    9148:	15973020 	ldrne	r3, [r7, #32]
    914c:	17883105 	strne	r3, [r8, r5, lsl #2]
    9150:	12855001 	addne	r5, r5, #1
    9154:	1a000001 	bne	9160 <sd_init+0x66c>
    9158:	e1a00009 	mov	r0, r9
    915c:	eb000440 	bl	a264 <delay_ms>
    9160:	e3550001 	cmp	r5, #1
    9164:	dafffff5 	ble	9140 <sd_init+0x64c>
    9168:	e3550002 	cmp	r5, #2
    916c:	1a000035 	bne	9248 <sd_init+0x754>
    9170:	e59f311c 	ldr	r3, [pc, #284]	; 9294 <sd_init+0x7a0>
    9174:	e5933000 	ldr	r3, [r3]
    9178:	e3130b01 	tst	r3, #1024	; 0x400
    917c:	0a00000d 	beq	91b8 <sd_init+0x6c4>
    9180:	e59f3108 	ldr	r3, [pc, #264]	; 9290 <sd_init+0x79c>
    9184:	e5931000 	ldr	r1, [r3]
    9188:	e59f0148 	ldr	r0, [pc, #328]	; 92d8 <sd_init+0x7e4>
    918c:	e3811002 	orr	r1, r1, #2
    9190:	ebfffc90 	bl	83d8 <sd_cmd>
    9194:	e59f30f0 	ldr	r3, [pc, #240]	; 928c <sd_init+0x798>
    9198:	e5933000 	ldr	r3, [r3]
    919c:	e3530000 	cmp	r3, #0
    91a0:	11a04003 	movne	r4, r3
    91a4:	1a000028 	bne	924c <sd_init+0x758>
    91a8:	e59f30b8 	ldr	r3, [pc, #184]	; 9268 <sd_init+0x774>
    91ac:	e5932028 	ldr	r2, [r3, #40]	; 0x28
    91b0:	e3822002 	orr	r2, r2, #2
    91b4:	e5832028 	str	r2, [r3, #40]	; 0x28
    91b8:	e59f309c 	ldr	r3, [pc, #156]	; 925c <sd_init+0x768>
    91bc:	e5933000 	ldr	r3, [r3]
    91c0:	e59f0114 	ldr	r0, [pc, #276]	; 92dc <sd_init+0x7e8>
    91c4:	e12fff33 	blx	r3
    91c8:	e59f30c4 	ldr	r3, [pc, #196]	; 9294 <sd_init+0x7a0>
    91cc:	e5933000 	ldr	r3, [r3]
    91d0:	e3130402 	tst	r3, #33554432	; 0x2000000
    91d4:	0a000003 	beq	91e8 <sd_init+0x6f4>
    91d8:	e59f307c 	ldr	r3, [pc, #124]	; 925c <sd_init+0x768>
    91dc:	e5933000 	ldr	r3, [r3]
    91e0:	e59f00f8 	ldr	r0, [pc, #248]	; 92e0 <sd_init+0x7ec>
    91e4:	e12fff33 	blx	r3
    91e8:	e3560000 	cmp	r6, #0
    91ec:	0a000003 	beq	9200 <sd_init+0x70c>
    91f0:	e59f3064 	ldr	r3, [pc, #100]	; 925c <sd_init+0x768>
    91f4:	e5933000 	ldr	r3, [r3]
    91f8:	e59f00bc 	ldr	r0, [pc, #188]	; 92bc <sd_init+0x7c8>
    91fc:	e12fff33 	blx	r3
    9200:	e59f3054 	ldr	r3, [pc, #84]	; 925c <sd_init+0x768>
    9204:	e5933000 	ldr	r3, [r3]
    9208:	e59f0074 	ldr	r0, [pc, #116]	; 9284 <sd_init+0x790>
    920c:	e12fff33 	blx	r3
    9210:	e59f307c 	ldr	r3, [pc, #124]	; 9294 <sd_init+0x7a0>
    9214:	e5932000 	ldr	r2, [r3]
    9218:	e3c22001 	bic	r2, r2, #1
    921c:	e1826006 	orr	r6, r2, r6
    9220:	e5836000 	str	r6, [r3]
    9224:	ea000008 	b	924c <sd_init+0x758>
    9228:	e3e04000 	mvn	r4, #0
    922c:	ea000006 	b	924c <sd_init+0x758>
    9230:	e3e04001 	mvn	r4, #1
    9234:	ea000004 	b	924c <sd_init+0x758>
    9238:	e3e04000 	mvn	r4, #0
    923c:	ea000002 	b	924c <sd_init+0x758>
    9240:	e3e04000 	mvn	r4, #0
    9244:	ea000000 	b	924c <sd_init+0x758>
    9248:	e3e04000 	mvn	r4, #0
    924c:	e1a00004 	mov	r0, r4
    9250:	e8bd8ff8 	pop	{r3, r4, r5, r6, r7, r8, r9, sl, fp, pc}
    9254:	20200000 	eorcs	r0, r0, r0
    9258:	0000c328 	andeq	ip, r0, r8, lsr #6
    925c:	0000b228 	andeq	fp, r0, r8, lsr #4
    9260:	0000b634 	andeq	fp, r0, r4, lsr r6
    9264:	00002710 	andeq	r2, r0, r0, lsl r7
    9268:	20300000 	eorscs	r0, r0, r0
    926c:	0000b648 	andeq	fp, r0, r8, asr #12
    9270:	0000b668 	andeq	fp, r0, r8, ror #12
    9274:	000186a0 	andeq	r8, r1, r0, lsr #13
    9278:	0000b678 	andeq	fp, r0, r8, ror r6
    927c:	0000b6a4 	andeq	fp, r0, r4, lsr #13
    9280:	0000b6b4 			; <UNDEFINED> instruction: 0x0000b6b4
    9284:	0000b324 	andeq	fp, r0, r4, lsr #6
    9288:	0000b6c0 	andeq	fp, r0, r0, asr #13
    928c:	0000c314 	andeq	ip, r0, r4, lsl r3
    9290:	0000c318 	andeq	ip, r0, r8, lsl r3
    9294:	0000c31c 	andeq	ip, r0, ip, lsl r3
    9298:	08020000 	stmdaeq	r2, {}	; <UNPREDICTABLE>
    929c:	000001aa 	andeq	r0, r0, sl, lsr #3
    92a0:	a9020000 	stmdbge	r2, {}	; <UNPREDICTABLE>
    92a4:	51ff8000 	mvnspl	r8, r0
    92a8:	0000b708 	andeq	fp, r0, r8, lsl #14
    92ac:	00ff8000 	rscseq	r8, pc, r0
    92b0:	0000b728 	andeq	fp, r0, r8, lsr #14
    92b4:	0000b6e4 	andeq	fp, r0, r4, ror #13
    92b8:	0000b714 	andeq	fp, r0, r4, lsl r7
    92bc:	0000b720 	andeq	fp, r0, r0, lsr #14
    92c0:	02010000 	andeq	r0, r1, #0
    92c4:	03020000 	movweq	r0, #8192	; 0x2000
    92c8:	0000b74c 	andeq	fp, r0, ip, asr #14
    92cc:	07030000 	streq	r0, [r3, -r0]
    92d0:	00010008 	andeq	r0, r1, r8
    92d4:	b3220010 	teqlt	r2, #16
    92d8:	86020000 	strhi	r0, [r2], -r0
    92dc:	0000b770 	andeq	fp, r0, r0, ror r7
    92e0:	0000b780 	andeq	fp, r0, r0, lsl #15

000092e4 <mbr_check>:
    92e4:	e92d4008 	push	{r3, lr}
    92e8:	e59f3028 	ldr	r3, [pc, #40]	; 9318 <mbr_check+0x34>
    92ec:	e19020b3 	ldrh	r2, [r0, r3]
    92f0:	e59f3024 	ldr	r3, [pc, #36]	; 931c <mbr_check+0x38>
    92f4:	e1520003 	cmp	r2, r3
    92f8:	08bd8008 	popeq	{r3, pc}
    92fc:	eb000211 	bl	9b48 <rpi_reset_putc>
    9300:	e59f0018 	ldr	r0, [pc, #24]	; 9320 <mbr_check+0x3c>
    9304:	e59f1018 	ldr	r1, [pc, #24]	; 9324 <mbr_check+0x40>
    9308:	e59f2018 	ldr	r2, [pc, #24]	; 9328 <mbr_check+0x44>
    930c:	e3a03007 	mov	r3, #7
    9310:	eb0001f1 	bl	9adc <printk>
    9314:	eb000367 	bl	a0b8 <clean_reboot>
    9318:	000001fe 	strdeq	r0, [r0], -lr
    931c:	0000aa55 	andeq	sl, r0, r5, asr sl
    9320:	0000b7bc 			; <UNDEFINED> instruction: 0x0000b7bc
    9324:	0000b7e4 	andeq	fp, r0, r4, ror #15
    9328:	0000b78c 	andeq	fp, r0, ip, lsl #15

0000932c <mbr_part_str>:
    932c:	e92d4010 	push	{r4, lr}
    9330:	e24dd008 	sub	sp, sp, #8
    9334:	e1a04000 	mov	r4, r0
    9338:	e35000fc 	cmp	r0, #252	; 0xfc
    933c:	979ff100 	ldrls	pc, [pc, r0, lsl #2]
    9340:	ea000140 	b	9848 <mbr_part_str+0x51c>
    9344:	00009868 	andeq	r9, r0, r8, ror #16
    9348:	00009870 	andeq	r9, r0, r0, ror r8
    934c:	00009848 	andeq	r9, r0, r8, asr #16
    9350:	00009848 	andeq	r9, r0, r8, asr #16
    9354:	00009738 	andeq	r9, r0, r8, lsr r7
    9358:	00009740 	andeq	r9, r0, r0, asr #14
    935c:	00009748 	andeq	r9, r0, r8, asr #14
    9360:	00009750 	andeq	r9, r0, r0, asr r7
    9364:	00009848 	andeq	r9, r0, r8, asr #16
    9368:	00009848 	andeq	r9, r0, r8, asr #16
    936c:	00009848 	andeq	r9, r0, r8, asr #16
    9370:	00009758 	andeq	r9, r0, r8, asr r7
    9374:	00009760 	andeq	r9, r0, r0, ror #14
    9378:	00009848 	andeq	r9, r0, r8, asr #16
    937c:	00009768 	andeq	r9, r0, r8, ror #14
    9380:	00009770 	andeq	r9, r0, r0, ror r7
    9384:	00009848 	andeq	r9, r0, r8, asr #16
    9388:	00009778 	andeq	r9, r0, r8, ror r7
    938c:	00009848 	andeq	r9, r0, r8, asr #16
    9390:	00009848 	andeq	r9, r0, r8, asr #16
    9394:	00009780 	andeq	r9, r0, r0, lsl #15
    9398:	00009848 	andeq	r9, r0, r8, asr #16
    939c:	00009788 	andeq	r9, r0, r8, lsl #15
    93a0:	00009848 	andeq	r9, r0, r8, asr #16
    93a4:	00009848 	andeq	r9, r0, r8, asr #16
    93a8:	00009848 	andeq	r9, r0, r8, asr #16
    93ac:	00009848 	andeq	r9, r0, r8, asr #16
    93b0:	00009790 	muleq	r0, r0, r7
    93b4:	00009798 	muleq	r0, r8, r7
    93b8:	00009848 	andeq	r9, r0, r8, asr #16
    93bc:	000097a0 	andeq	r9, r0, r0, lsr #15
    93c0:	00009848 	andeq	r9, r0, r8, asr #16
    93c4:	00009848 	andeq	r9, r0, r8, asr #16
    93c8:	00009848 	andeq	r9, r0, r8, asr #16
    93cc:	00009848 	andeq	r9, r0, r8, asr #16
    93d0:	00009848 	andeq	r9, r0, r8, asr #16
    93d4:	00009848 	andeq	r9, r0, r8, asr #16
    93d8:	00009848 	andeq	r9, r0, r8, asr #16
    93dc:	00009848 	andeq	r9, r0, r8, asr #16
    93e0:	00009848 	andeq	r9, r0, r8, asr #16
    93e4:	00009848 	andeq	r9, r0, r8, asr #16
    93e8:	00009848 	andeq	r9, r0, r8, asr #16
    93ec:	00009848 	andeq	r9, r0, r8, asr #16
    93f0:	00009848 	andeq	r9, r0, r8, asr #16
    93f4:	00009848 	andeq	r9, r0, r8, asr #16
    93f8:	00009848 	andeq	r9, r0, r8, asr #16
    93fc:	00009848 	andeq	r9, r0, r8, asr #16
    9400:	00009848 	andeq	r9, r0, r8, asr #16
    9404:	00009848 	andeq	r9, r0, r8, asr #16
    9408:	00009848 	andeq	r9, r0, r8, asr #16
    940c:	00009848 	andeq	r9, r0, r8, asr #16
    9410:	00009848 	andeq	r9, r0, r8, asr #16
    9414:	00009848 	andeq	r9, r0, r8, asr #16
    9418:	00009848 	andeq	r9, r0, r8, asr #16
    941c:	00009848 	andeq	r9, r0, r8, asr #16
    9420:	00009848 	andeq	r9, r0, r8, asr #16
    9424:	00009848 	andeq	r9, r0, r8, asr #16
    9428:	00009848 	andeq	r9, r0, r8, asr #16
    942c:	00009848 	andeq	r9, r0, r8, asr #16
    9430:	00009848 	andeq	r9, r0, r8, asr #16
    9434:	00009848 	andeq	r9, r0, r8, asr #16
    9438:	00009848 	andeq	r9, r0, r8, asr #16
    943c:	00009848 	andeq	r9, r0, r8, asr #16
    9440:	00009848 	andeq	r9, r0, r8, asr #16
    9444:	00009848 	andeq	r9, r0, r8, asr #16
    9448:	00009848 	andeq	r9, r0, r8, asr #16
    944c:	000097a8 	andeq	r9, r0, r8, lsr #15
    9450:	00009848 	andeq	r9, r0, r8, asr #16
    9454:	00009848 	andeq	r9, r0, r8, asr #16
    9458:	00009848 	andeq	r9, r0, r8, asr #16
    945c:	00009848 	andeq	r9, r0, r8, asr #16
    9460:	00009848 	andeq	r9, r0, r8, asr #16
    9464:	00009848 	andeq	r9, r0, r8, asr #16
    9468:	00009848 	andeq	r9, r0, r8, asr #16
    946c:	00009848 	andeq	r9, r0, r8, asr #16
    9470:	00009848 	andeq	r9, r0, r8, asr #16
    9474:	00009848 	andeq	r9, r0, r8, asr #16
    9478:	00009848 	andeq	r9, r0, r8, asr #16
    947c:	00009848 	andeq	r9, r0, r8, asr #16
    9480:	00009848 	andeq	r9, r0, r8, asr #16
    9484:	00009848 	andeq	r9, r0, r8, asr #16
    9488:	00009848 	andeq	r9, r0, r8, asr #16
    948c:	00009848 	andeq	r9, r0, r8, asr #16
    9490:	00009848 	andeq	r9, r0, r8, asr #16
    9494:	00009848 	andeq	r9, r0, r8, asr #16
    9498:	00009848 	andeq	r9, r0, r8, asr #16
    949c:	00009848 	andeq	r9, r0, r8, asr #16
    94a0:	00009848 	andeq	r9, r0, r8, asr #16
    94a4:	00009848 	andeq	r9, r0, r8, asr #16
    94a8:	00009848 	andeq	r9, r0, r8, asr #16
    94ac:	00009848 	andeq	r9, r0, r8, asr #16
    94b0:	00009848 	andeq	r9, r0, r8, asr #16
    94b4:	00009848 	andeq	r9, r0, r8, asr #16
    94b8:	00009848 	andeq	r9, r0, r8, asr #16
    94bc:	00009848 	andeq	r9, r0, r8, asr #16
    94c0:	00009848 	andeq	r9, r0, r8, asr #16
    94c4:	00009848 	andeq	r9, r0, r8, asr #16
    94c8:	00009848 	andeq	r9, r0, r8, asr #16
    94cc:	00009848 	andeq	r9, r0, r8, asr #16
    94d0:	00009848 	andeq	r9, r0, r8, asr #16
    94d4:	00009848 	andeq	r9, r0, r8, asr #16
    94d8:	00009848 	andeq	r9, r0, r8, asr #16
    94dc:	00009848 	andeq	r9, r0, r8, asr #16
    94e0:	00009848 	andeq	r9, r0, r8, asr #16
    94e4:	00009848 	andeq	r9, r0, r8, asr #16
    94e8:	00009848 	andeq	r9, r0, r8, asr #16
    94ec:	00009848 	andeq	r9, r0, r8, asr #16
    94f0:	00009848 	andeq	r9, r0, r8, asr #16
    94f4:	00009848 	andeq	r9, r0, r8, asr #16
    94f8:	00009848 	andeq	r9, r0, r8, asr #16
    94fc:	00009848 	andeq	r9, r0, r8, asr #16
    9500:	00009848 	andeq	r9, r0, r8, asr #16
    9504:	00009848 	andeq	r9, r0, r8, asr #16
    9508:	00009848 	andeq	r9, r0, r8, asr #16
    950c:	00009848 	andeq	r9, r0, r8, asr #16
    9510:	00009848 	andeq	r9, r0, r8, asr #16
    9514:	00009848 	andeq	r9, r0, r8, asr #16
    9518:	00009848 	andeq	r9, r0, r8, asr #16
    951c:	00009848 	andeq	r9, r0, r8, asr #16
    9520:	00009848 	andeq	r9, r0, r8, asr #16
    9524:	00009848 	andeq	r9, r0, r8, asr #16
    9528:	00009848 	andeq	r9, r0, r8, asr #16
    952c:	00009848 	andeq	r9, r0, r8, asr #16
    9530:	00009848 	andeq	r9, r0, r8, asr #16
    9534:	00009848 	andeq	r9, r0, r8, asr #16
    9538:	00009848 	andeq	r9, r0, r8, asr #16
    953c:	00009848 	andeq	r9, r0, r8, asr #16
    9540:	00009848 	andeq	r9, r0, r8, asr #16
    9544:	00009848 	andeq	r9, r0, r8, asr #16
    9548:	00009848 	andeq	r9, r0, r8, asr #16
    954c:	000097b0 			; <UNDEFINED> instruction: 0x000097b0
    9550:	000097b8 			; <UNDEFINED> instruction: 0x000097b8
    9554:	000097c0 	andeq	r9, r0, r0, asr #15
    9558:	000097c8 	andeq	r9, r0, r8, asr #15
    955c:	000097d0 	ldrdeq	r9, [r0], -r0
    9560:	000097d8 	ldrdeq	r9, [r0], -r8
    9564:	00009848 	andeq	r9, r0, r8, asr #16
    9568:	00009848 	andeq	r9, r0, r8, asr #16
    956c:	00009848 	andeq	r9, r0, r8, asr #16
    9570:	00009848 	andeq	r9, r0, r8, asr #16
    9574:	00009848 	andeq	r9, r0, r8, asr #16
    9578:	00009848 	andeq	r9, r0, r8, asr #16
    957c:	00009848 	andeq	r9, r0, r8, asr #16
    9580:	00009848 	andeq	r9, r0, r8, asr #16
    9584:	00009848 	andeq	r9, r0, r8, asr #16
    9588:	00009848 	andeq	r9, r0, r8, asr #16
    958c:	00009848 	andeq	r9, r0, r8, asr #16
    9590:	00009848 	andeq	r9, r0, r8, asr #16
    9594:	00009848 	andeq	r9, r0, r8, asr #16
    9598:	00009848 	andeq	r9, r0, r8, asr #16
    959c:	00009848 	andeq	r9, r0, r8, asr #16
    95a0:	00009848 	andeq	r9, r0, r8, asr #16
    95a4:	00009848 	andeq	r9, r0, r8, asr #16
    95a8:	00009848 	andeq	r9, r0, r8, asr #16
    95ac:	00009848 	andeq	r9, r0, r8, asr #16
    95b0:	00009848 	andeq	r9, r0, r8, asr #16
    95b4:	00009848 	andeq	r9, r0, r8, asr #16
    95b8:	00009848 	andeq	r9, r0, r8, asr #16
    95bc:	00009848 	andeq	r9, r0, r8, asr #16
    95c0:	00009848 	andeq	r9, r0, r8, asr #16
    95c4:	000097e0 	andeq	r9, r0, r0, ror #15
    95c8:	000097e8 	andeq	r9, r0, r8, ror #15
    95cc:	00009848 	andeq	r9, r0, r8, asr #16
    95d0:	00009848 	andeq	r9, r0, r8, asr #16
    95d4:	00009848 	andeq	r9, r0, r8, asr #16
    95d8:	000097f0 	strdeq	r9, [r0], -r0
    95dc:	000097f8 	strdeq	r9, [r0], -r8
    95e0:	00009848 	andeq	r9, r0, r8, asr #16
    95e4:	00009800 	andeq	r9, r0, r0, lsl #16
    95e8:	00009808 	andeq	r9, r0, r8, lsl #16
    95ec:	00009848 	andeq	r9, r0, r8, asr #16
    95f0:	00009810 	andeq	r9, r0, r0, lsl r8
    95f4:	00009848 	andeq	r9, r0, r8, asr #16
    95f8:	00009848 	andeq	r9, r0, r8, asr #16
    95fc:	00009848 	andeq	r9, r0, r8, asr #16
    9600:	00009848 	andeq	r9, r0, r8, asr #16
    9604:	00009848 	andeq	r9, r0, r8, asr #16
    9608:	00009848 	andeq	r9, r0, r8, asr #16
    960c:	00009848 	andeq	r9, r0, r8, asr #16
    9610:	00009848 	andeq	r9, r0, r8, asr #16
    9614:	00009848 	andeq	r9, r0, r8, asr #16
    9618:	00009848 	andeq	r9, r0, r8, asr #16
    961c:	00009848 	andeq	r9, r0, r8, asr #16
    9620:	00009818 	andeq	r9, r0, r8, lsl r8
    9624:	00009820 	andeq	r9, r0, r0, lsr #16
    9628:	00009848 	andeq	r9, r0, r8, asr #16
    962c:	00009848 	andeq	r9, r0, r8, asr #16
    9630:	00009848 	andeq	r9, r0, r8, asr #16
    9634:	00009848 	andeq	r9, r0, r8, asr #16
    9638:	00009848 	andeq	r9, r0, r8, asr #16
    963c:	00009848 	andeq	r9, r0, r8, asr #16
    9640:	00009848 	andeq	r9, r0, r8, asr #16
    9644:	00009848 	andeq	r9, r0, r8, asr #16
    9648:	00009848 	andeq	r9, r0, r8, asr #16
    964c:	00009848 	andeq	r9, r0, r8, asr #16
    9650:	00009848 	andeq	r9, r0, r8, asr #16
    9654:	00009848 	andeq	r9, r0, r8, asr #16
    9658:	00009848 	andeq	r9, r0, r8, asr #16
    965c:	00009848 	andeq	r9, r0, r8, asr #16
    9660:	00009848 	andeq	r9, r0, r8, asr #16
    9664:	00009848 	andeq	r9, r0, r8, asr #16
    9668:	00009848 	andeq	r9, r0, r8, asr #16
    966c:	00009848 	andeq	r9, r0, r8, asr #16
    9670:	00009848 	andeq	r9, r0, r8, asr #16
    9674:	00009848 	andeq	r9, r0, r8, asr #16
    9678:	00009848 	andeq	r9, r0, r8, asr #16
    967c:	00009848 	andeq	r9, r0, r8, asr #16
    9680:	00009848 	andeq	r9, r0, r8, asr #16
    9684:	00009848 	andeq	r9, r0, r8, asr #16
    9688:	00009848 	andeq	r9, r0, r8, asr #16
    968c:	00009848 	andeq	r9, r0, r8, asr #16
    9690:	00009848 	andeq	r9, r0, r8, asr #16
    9694:	00009848 	andeq	r9, r0, r8, asr #16
    9698:	00009848 	andeq	r9, r0, r8, asr #16
    969c:	00009848 	andeq	r9, r0, r8, asr #16
    96a0:	00009848 	andeq	r9, r0, r8, asr #16
    96a4:	00009848 	andeq	r9, r0, r8, asr #16
    96a8:	00009848 	andeq	r9, r0, r8, asr #16
    96ac:	00009848 	andeq	r9, r0, r8, asr #16
    96b0:	00009848 	andeq	r9, r0, r8, asr #16
    96b4:	00009848 	andeq	r9, r0, r8, asr #16
    96b8:	00009848 	andeq	r9, r0, r8, asr #16
    96bc:	00009848 	andeq	r9, r0, r8, asr #16
    96c0:	00009848 	andeq	r9, r0, r8, asr #16
    96c4:	00009848 	andeq	r9, r0, r8, asr #16
    96c8:	00009848 	andeq	r9, r0, r8, asr #16
    96cc:	00009848 	andeq	r9, r0, r8, asr #16
    96d0:	00009848 	andeq	r9, r0, r8, asr #16
    96d4:	00009848 	andeq	r9, r0, r8, asr #16
    96d8:	00009848 	andeq	r9, r0, r8, asr #16
    96dc:	00009848 	andeq	r9, r0, r8, asr #16
    96e0:	00009848 	andeq	r9, r0, r8, asr #16
    96e4:	00009848 	andeq	r9, r0, r8, asr #16
    96e8:	00009848 	andeq	r9, r0, r8, asr #16
    96ec:	00009848 	andeq	r9, r0, r8, asr #16
    96f0:	00009848 	andeq	r9, r0, r8, asr #16
    96f4:	00009848 	andeq	r9, r0, r8, asr #16
    96f8:	00009848 	andeq	r9, r0, r8, asr #16
    96fc:	00009828 	andeq	r9, r0, r8, lsr #16
    9700:	00009830 	andeq	r9, r0, r0, lsr r8
    9704:	00009848 	andeq	r9, r0, r8, asr #16
    9708:	00009848 	andeq	r9, r0, r8, asr #16
    970c:	00009848 	andeq	r9, r0, r8, asr #16
    9710:	00009848 	andeq	r9, r0, r8, asr #16
    9714:	00009848 	andeq	r9, r0, r8, asr #16
    9718:	00009848 	andeq	r9, r0, r8, asr #16
    971c:	00009848 	andeq	r9, r0, r8, asr #16
    9720:	00009848 	andeq	r9, r0, r8, asr #16
    9724:	00009848 	andeq	r9, r0, r8, asr #16
    9728:	00009848 	andeq	r9, r0, r8, asr #16
    972c:	00009848 	andeq	r9, r0, r8, asr #16
    9730:	00009838 	andeq	r9, r0, r8, lsr r8
    9734:	00009840 	andeq	r9, r0, r0, asr #16
    9738:	e59f013c 	ldr	r0, [pc, #316]	; 987c <mbr_part_str+0x550>
    973c:	ea00004c 	b	9874 <mbr_part_str+0x548>
    9740:	e59f0138 	ldr	r0, [pc, #312]	; 9880 <mbr_part_str+0x554>
    9744:	ea00004a 	b	9874 <mbr_part_str+0x548>
    9748:	e59f0134 	ldr	r0, [pc, #308]	; 9884 <mbr_part_str+0x558>
    974c:	ea000048 	b	9874 <mbr_part_str+0x548>
    9750:	e59f0130 	ldr	r0, [pc, #304]	; 9888 <mbr_part_str+0x55c>
    9754:	ea000046 	b	9874 <mbr_part_str+0x548>
    9758:	e59f012c 	ldr	r0, [pc, #300]	; 988c <mbr_part_str+0x560>
    975c:	ea000044 	b	9874 <mbr_part_str+0x548>
    9760:	e59f0128 	ldr	r0, [pc, #296]	; 9890 <mbr_part_str+0x564>
    9764:	ea000042 	b	9874 <mbr_part_str+0x548>
    9768:	e59f0124 	ldr	r0, [pc, #292]	; 9894 <mbr_part_str+0x568>
    976c:	ea000040 	b	9874 <mbr_part_str+0x548>
    9770:	e59f0120 	ldr	r0, [pc, #288]	; 9898 <mbr_part_str+0x56c>
    9774:	ea00003e 	b	9874 <mbr_part_str+0x548>
    9778:	e59f011c 	ldr	r0, [pc, #284]	; 989c <mbr_part_str+0x570>
    977c:	ea00003c 	b	9874 <mbr_part_str+0x548>
    9780:	e59f0118 	ldr	r0, [pc, #280]	; 98a0 <mbr_part_str+0x574>
    9784:	ea00003a 	b	9874 <mbr_part_str+0x548>
    9788:	e59f0114 	ldr	r0, [pc, #276]	; 98a4 <mbr_part_str+0x578>
    978c:	ea000038 	b	9874 <mbr_part_str+0x548>
    9790:	e59f0110 	ldr	r0, [pc, #272]	; 98a8 <mbr_part_str+0x57c>
    9794:	ea000036 	b	9874 <mbr_part_str+0x548>
    9798:	e59f010c 	ldr	r0, [pc, #268]	; 98ac <mbr_part_str+0x580>
    979c:	ea000034 	b	9874 <mbr_part_str+0x548>
    97a0:	e59f0108 	ldr	r0, [pc, #264]	; 98b0 <mbr_part_str+0x584>
    97a4:	ea000032 	b	9874 <mbr_part_str+0x548>
    97a8:	e59f0104 	ldr	r0, [pc, #260]	; 98b4 <mbr_part_str+0x588>
    97ac:	ea000030 	b	9874 <mbr_part_str+0x548>
    97b0:	e59f0100 	ldr	r0, [pc, #256]	; 98b8 <mbr_part_str+0x58c>
    97b4:	ea00002e 	b	9874 <mbr_part_str+0x548>
    97b8:	e59f00fc 	ldr	r0, [pc, #252]	; 98bc <mbr_part_str+0x590>
    97bc:	ea00002c 	b	9874 <mbr_part_str+0x548>
    97c0:	e59f00f8 	ldr	r0, [pc, #248]	; 98c0 <mbr_part_str+0x594>
    97c4:	ea00002a 	b	9874 <mbr_part_str+0x548>
    97c8:	e59f00f4 	ldr	r0, [pc, #244]	; 98c4 <mbr_part_str+0x598>
    97cc:	ea000028 	b	9874 <mbr_part_str+0x548>
    97d0:	e59f00f0 	ldr	r0, [pc, #240]	; 98c8 <mbr_part_str+0x59c>
    97d4:	ea000026 	b	9874 <mbr_part_str+0x548>
    97d8:	e59f00e8 	ldr	r0, [pc, #232]	; 98c8 <mbr_part_str+0x59c>
    97dc:	ea000024 	b	9874 <mbr_part_str+0x548>
    97e0:	e59f00d8 	ldr	r0, [pc, #216]	; 98c0 <mbr_part_str+0x594>
    97e4:	ea000022 	b	9874 <mbr_part_str+0x548>
    97e8:	e59f00d0 	ldr	r0, [pc, #208]	; 98c0 <mbr_part_str+0x594>
    97ec:	ea000020 	b	9874 <mbr_part_str+0x548>
    97f0:	e59f00d4 	ldr	r0, [pc, #212]	; 98cc <mbr_part_str+0x5a0>
    97f4:	ea00001e 	b	9874 <mbr_part_str+0x548>
    97f8:	e59f00d0 	ldr	r0, [pc, #208]	; 98d0 <mbr_part_str+0x5a4>
    97fc:	ea00001c 	b	9874 <mbr_part_str+0x548>
    9800:	e59f00cc 	ldr	r0, [pc, #204]	; 98d4 <mbr_part_str+0x5a8>
    9804:	ea00001a 	b	9874 <mbr_part_str+0x548>
    9808:	e59f00c8 	ldr	r0, [pc, #200]	; 98d8 <mbr_part_str+0x5ac>
    980c:	ea000018 	b	9874 <mbr_part_str+0x548>
    9810:	e59f00c4 	ldr	r0, [pc, #196]	; 98dc <mbr_part_str+0x5b0>
    9814:	ea000016 	b	9874 <mbr_part_str+0x548>
    9818:	e59f00c0 	ldr	r0, [pc, #192]	; 98e0 <mbr_part_str+0x5b4>
    981c:	ea000014 	b	9874 <mbr_part_str+0x548>
    9820:	e59f00bc 	ldr	r0, [pc, #188]	; 98e4 <mbr_part_str+0x5b8>
    9824:	ea000012 	b	9874 <mbr_part_str+0x548>
    9828:	e59f00b8 	ldr	r0, [pc, #184]	; 98e8 <mbr_part_str+0x5bc>
    982c:	ea000010 	b	9874 <mbr_part_str+0x548>
    9830:	e59f00b4 	ldr	r0, [pc, #180]	; 98ec <mbr_part_str+0x5c0>
    9834:	ea00000e 	b	9874 <mbr_part_str+0x548>
    9838:	e59f00b0 	ldr	r0, [pc, #176]	; 98f0 <mbr_part_str+0x5c4>
    983c:	ea00000c 	b	9874 <mbr_part_str+0x548>
    9840:	e59f00ac 	ldr	r0, [pc, #172]	; 98f4 <mbr_part_str+0x5c8>
    9844:	ea00000a 	b	9874 <mbr_part_str+0x548>
    9848:	eb0000be 	bl	9b48 <rpi_reset_putc>
    984c:	e58d4000 	str	r4, [sp]
    9850:	e59f00a0 	ldr	r0, [pc, #160]	; 98f8 <mbr_part_str+0x5cc>
    9854:	e59f10a0 	ldr	r1, [pc, #160]	; 98fc <mbr_part_str+0x5d0>
    9858:	e59f20a0 	ldr	r2, [pc, #160]	; 9900 <mbr_part_str+0x5d4>
    985c:	e3a03032 	mov	r3, #50	; 0x32
    9860:	eb00009d 	bl	9adc <printk>
    9864:	eb000213 	bl	a0b8 <clean_reboot>
    9868:	e59f0094 	ldr	r0, [pc, #148]	; 9904 <mbr_part_str+0x5d8>
    986c:	ea000000 	b	9874 <mbr_part_str+0x548>
    9870:	e59f0090 	ldr	r0, [pc, #144]	; 9908 <mbr_part_str+0x5dc>
    9874:	e28dd008 	add	sp, sp, #8
    9878:	e8bd8010 	pop	{r4, pc}
    987c:	0000b808 	andeq	fp, r0, r8, lsl #16
    9880:	0000b820 	andeq	fp, r0, r0, lsr #16
    9884:	0000b83c 	andeq	fp, r0, ip, lsr r8
    9888:	0000b858 	andeq	fp, r0, r8, asr r8
    988c:	0000b860 	andeq	fp, r0, r0, ror #16
    9890:	0000b86c 	andeq	fp, r0, ip, ror #16
    9894:	0000b878 	andeq	fp, r0, r8, ror r8
    9898:	0000b894 	muleq	r0, r4, r8
    989c:	0000b8b0 			; <UNDEFINED> instruction: 0x0000b8b0
    98a0:	0000b8c4 	andeq	fp, r0, r4, asr #17
    98a4:	0000b8e4 	andeq	fp, r0, r4, ror #17
    98a8:	0000b904 	andeq	fp, r0, r4, lsl #18
    98ac:	0000b918 	andeq	fp, r0, r8, lsl r9
    98b0:	0000b92c 	andeq	fp, r0, ip, lsr #18
    98b4:	0000b94c 	andeq	fp, r0, ip, asr #18
    98b8:	0000b96c 	andeq	fp, r0, ip, ror #18
    98bc:	0000b988 	andeq	fp, r0, r8, lsl #19
    98c0:	0000b990 	muleq	r0, r0, r9
    98c4:	0000b99c 	muleq	r0, ip, r9
    98c8:	0000b9ac 	andeq	fp, r0, ip, lsr #19
    98cc:	0000b9bc 			; <UNDEFINED> instruction: 0x0000b9bc
    98d0:	0000b9c4 	andeq	fp, r0, r4, asr #19
    98d4:	0000b9cc 	andeq	fp, r0, ip, asr #19
    98d8:	0000b9d4 	ldrdeq	fp, [r0], -r4
    98dc:	0000b9dc 	ldrdeq	fp, [r0], -ip
    98e0:	0000b9ec 	andeq	fp, r0, ip, ror #19
    98e4:	0000b9f4 	strdeq	fp, [r0], -r4
    98e8:	0000ba00 	andeq	fp, r0, r0, lsl #20
    98ec:	0000ba10 	andeq	fp, r0, r0, lsl sl
    98f0:	0000ba28 	andeq	fp, r0, r8, lsr #20
    98f4:	0000ba3c 	andeq	fp, r0, ip, lsr sl
    98f8:	0000ba48 	andeq	fp, r0, r8, asr #20
    98fc:	0000b7e4 	andeq	fp, r0, r4, ror #15
    9900:	0000b798 	muleq	r0, r8, r7
    9904:	0000b7f4 	strdeq	fp, [r0], -r4
    9908:	0000b7fc 	strdeq	fp, [r0], -ip

0000990c <mbr_partition_empty>:
    990c:	e3a03000 	mov	r3, #0
    9910:	ea000003 	b	9924 <mbr_partition_empty+0x18>
    9914:	e7d02003 	ldrb	r2, [r0, r3]
    9918:	e3520000 	cmp	r2, #0
    991c:	1a000004 	bne	9934 <mbr_partition_empty+0x28>
    9920:	e2833001 	add	r3, r3, #1
    9924:	e353000f 	cmp	r3, #15
    9928:	dafffff9 	ble	9914 <mbr_partition_empty+0x8>
    992c:	e3a00001 	mov	r0, #1
    9930:	e12fff1e 	bx	lr
    9934:	e3a00000 	mov	r0, #0
    9938:	e12fff1e 	bx	lr

0000993c <mbr_partition_print>:
    993c:	e92d4038 	push	{r3, r4, r5, lr}
    9940:	e1a03000 	mov	r3, r0
    9944:	e1a04001 	mov	r4, r1
    9948:	e59f00f0 	ldr	r0, [pc, #240]	; 9a40 <mbr_partition_print+0x104>
    994c:	e1a01003 	mov	r1, r3
    9950:	eb000061 	bl	9adc <printk>
    9954:	e5d43000 	ldrb	r3, [r4]
    9958:	e3530000 	cmp	r3, #0
    995c:	159f10e0 	ldrne	r1, [pc, #224]	; 9a44 <mbr_partition_print+0x108>
    9960:	059f10e0 	ldreq	r1, [pc, #224]	; 9a48 <mbr_partition_print+0x10c>
    9964:	e59f00e0 	ldr	r0, [pc, #224]	; 9a4c <mbr_partition_print+0x110>
    9968:	eb00005b 	bl	9adc <printk>
    996c:	e5d43001 	ldrb	r3, [r4, #1]
    9970:	e5d42002 	ldrb	r2, [r4, #2]
    9974:	e1833402 	orr	r3, r3, r2, lsl #8
    9978:	e5d41003 	ldrb	r1, [r4, #3]
    997c:	e59f00cc 	ldr	r0, [pc, #204]	; 9a50 <mbr_partition_print+0x114>
    9980:	e1831801 	orr	r1, r3, r1, lsl #16
    9984:	eb000054 	bl	9adc <printk>
    9988:	e5d45004 	ldrb	r5, [r4, #4]
    998c:	e1a00005 	mov	r0, r5
    9990:	ebfffe65 	bl	932c <mbr_part_str>
    9994:	e1a02000 	mov	r2, r0
    9998:	e59f00b4 	ldr	r0, [pc, #180]	; 9a54 <mbr_partition_print+0x118>
    999c:	e1a01005 	mov	r1, r5
    99a0:	eb00004d 	bl	9adc <printk>
    99a4:	e5d43005 	ldrb	r3, [r4, #5]
    99a8:	e5d42006 	ldrb	r2, [r4, #6]
    99ac:	e1833402 	orr	r3, r3, r2, lsl #8
    99b0:	e5d41007 	ldrb	r1, [r4, #7]
    99b4:	e59f009c 	ldr	r0, [pc, #156]	; 9a58 <mbr_partition_print+0x11c>
    99b8:	e1831801 	orr	r1, r3, r1, lsl #16
    99bc:	eb000046 	bl	9adc <printk>
    99c0:	e5d43008 	ldrb	r3, [r4, #8]
    99c4:	e5d42009 	ldrb	r2, [r4, #9]
    99c8:	e1833402 	orr	r3, r3, r2, lsl #8
    99cc:	e5d4200a 	ldrb	r2, [r4, #10]
    99d0:	e1833802 	orr	r3, r3, r2, lsl #16
    99d4:	e5d4100b 	ldrb	r1, [r4, #11]
    99d8:	e59f007c 	ldr	r0, [pc, #124]	; 9a5c <mbr_partition_print+0x120>
    99dc:	e1831c01 	orr	r1, r3, r1, lsl #24
    99e0:	eb00003d 	bl	9adc <printk>
    99e4:	e5d4300c 	ldrb	r3, [r4, #12]
    99e8:	e5d4200d 	ldrb	r2, [r4, #13]
    99ec:	e1832402 	orr	r2, r3, r2, lsl #8
    99f0:	e5d4300e 	ldrb	r3, [r4, #14]
    99f4:	e1822803 	orr	r2, r2, r3, lsl #16
    99f8:	e5d4300f 	ldrb	r3, [r4, #15]
    99fc:	e1822c03 	orr	r2, r2, r3, lsl #24
    9a00:	e59f0058 	ldr	r0, [pc, #88]	; 9a60 <mbr_partition_print+0x124>
    9a04:	e1a01002 	mov	r1, r2
    9a08:	e1a02aa2 	lsr	r2, r2, #21
    9a0c:	eb000032 	bl	9adc <printk>
    9a10:	e5d43004 	ldrb	r3, [r4, #4]
    9a14:	e243300b 	sub	r3, r3, #11
    9a18:	e6ef3073 	uxtb	r3, r3
    9a1c:	e3530001 	cmp	r3, #1
    9a20:	98bd8038 	popls	{r3, r4, r5, pc}
    9a24:	eb000047 	bl	9b48 <rpi_reset_putc>
    9a28:	e59f0034 	ldr	r0, [pc, #52]	; 9a64 <mbr_partition_print+0x128>
    9a2c:	e59f1034 	ldr	r1, [pc, #52]	; 9a68 <mbr_partition_print+0x12c>
    9a30:	e59f2034 	ldr	r2, [pc, #52]	; 9a6c <mbr_partition_print+0x130>
    9a34:	e3a03045 	mov	r3, #69	; 0x45
    9a38:	eb000027 	bl	9adc <printk>
    9a3c:	eb00019d 	bl	a0b8 <clean_reboot>
    9a40:	0000ba7c 	andeq	fp, r0, ip, ror sl
    9a44:	0000ba6c 	andeq	fp, r0, ip, ror #20
    9a48:	0000ba74 	andeq	fp, r0, r4, ror sl
    9a4c:	0000ba84 	andeq	fp, r0, r4, lsl #21
    9a50:	0000ba98 	muleq	r0, r8, sl
    9a54:	0000baac 	andeq	fp, r0, ip, lsr #21
    9a58:	0000bac4 	andeq	fp, r0, r4, asr #21
    9a5c:	0000bad8 	ldrdeq	fp, [r0], -r8
    9a60:	0000baec 	andeq	fp, r0, ip, ror #21
    9a64:	0000bb08 	andeq	fp, r0, r8, lsl #22
    9a68:	0000b7e4 	andeq	fp, r0, r4, ror #15
    9a6c:	0000b7a8 	andeq	fp, r0, r8, lsr #15

00009a70 <memcpy>:
    9a70:	e3100003 	tst	r0, #3
    9a74:	1a000010 	bne	9abc <memcpy+0x4c>
    9a78:	e3110003 	tst	r1, #3
    9a7c:	1a000010 	bne	9ac4 <memcpy+0x54>
    9a80:	e3120003 	tst	r2, #3
    9a84:	1a000010 	bne	9acc <memcpy+0x5c>
    9a88:	e1a02122 	lsr	r2, r2, #2
    9a8c:	e3a03000 	mov	r3, #0
    9a90:	ea000002 	b	9aa0 <memcpy+0x30>
    9a94:	e791c103 	ldr	ip, [r1, r3, lsl #2]
    9a98:	e780c103 	str	ip, [r0, r3, lsl #2]
    9a9c:	e2833001 	add	r3, r3, #1
    9aa0:	e1530002 	cmp	r3, r2
    9aa4:	3afffffa 	bcc	9a94 <memcpy+0x24>
    9aa8:	e12fff1e 	bx	lr
    9aac:	e7d1c003 	ldrb	ip, [r1, r3]
    9ab0:	e7c0c003 	strb	ip, [r0, r3]
    9ab4:	e2833001 	add	r3, r3, #1
    9ab8:	ea000004 	b	9ad0 <memcpy+0x60>
    9abc:	e3a03000 	mov	r3, #0
    9ac0:	ea000002 	b	9ad0 <memcpy+0x60>
    9ac4:	e3a03000 	mov	r3, #0
    9ac8:	ea000000 	b	9ad0 <memcpy+0x60>
    9acc:	e3a03000 	mov	r3, #0
    9ad0:	e1530002 	cmp	r3, r2
    9ad4:	3afffff4 	bcc	9aac <memcpy+0x3c>
    9ad8:	e12fff1e 	bx	lr

00009adc <printk>:
    9adc:	e92d000f 	push	{r0, r1, r2, r3}
    9ae0:	e92d4030 	push	{r4, r5, lr}
    9ae4:	e24dd00c 	sub	sp, sp, #12
    9ae8:	e28d301c 	add	r3, sp, #28
    9aec:	e58d3004 	str	r3, [sp, #4]
    9af0:	e59f4034 	ldr	r4, [pc, #52]	; 9b2c <printk+0x50>
    9af4:	e1a00004 	mov	r0, r4
    9af8:	e3a01b01 	mov	r1, #1024	; 0x400
    9afc:	e59d2018 	ldr	r2, [sp, #24]
    9b00:	eb0000ca 	bl	9e30 <va_printk>
    9b04:	e1a05000 	mov	r5, r0
    9b08:	e59f3020 	ldr	r3, [pc, #32]	; 9b30 <printk+0x54>
    9b0c:	e5933000 	ldr	r3, [r3]
    9b10:	e1a00004 	mov	r0, r4
    9b14:	e12fff33 	blx	r3
    9b18:	e1a00005 	mov	r0, r5
    9b1c:	e28dd00c 	add	sp, sp, #12
    9b20:	e8bd4030 	pop	{r4, r5, lr}
    9b24:	e28dd010 	add	sp, sp, #16
    9b28:	e12fff1e 	bx	lr
    9b2c:	0000befc 	strdeq	fp, [r0], -ip
    9b30:	0000b228 	andeq	fp, r0, r8, lsr #4

00009b34 <internal_putchar>:
    9b34:	e92d4010 	push	{r4, lr}
    9b38:	e1a04000 	mov	r4, r0
    9b3c:	eb000413 	bl	ab90 <uart_putc>
    9b40:	e1a00004 	mov	r0, r4
    9b44:	e8bd8010 	pop	{r4, pc}

00009b48 <rpi_reset_putc>:
    9b48:	e59f2008 	ldr	r2, [pc, #8]	; 9b58 <rpi_reset_putc+0x10>
    9b4c:	e59f3008 	ldr	r3, [pc, #8]	; 9b5c <rpi_reset_putc+0x14>
    9b50:	e5832000 	str	r2, [r3]
    9b54:	e12fff1e 	bx	lr
    9b58:	00009b34 	andeq	r9, r0, r4, lsr fp
    9b5c:	0000b224 	andeq	fp, r0, r4, lsr #4

00009b60 <rpi_set_putc>:
    9b60:	e59f3004 	ldr	r3, [pc, #4]	; 9b6c <rpi_set_putc+0xc>
    9b64:	e5830000 	str	r0, [r3]
    9b68:	e12fff1e 	bx	lr
    9b6c:	0000b224 	andeq	fp, r0, r4, lsr #4

00009b70 <internal_putk>:
    9b70:	e92d4038 	push	{r3, r4, r5, lr}
    9b74:	e1a04000 	mov	r4, r0
    9b78:	e59f5020 	ldr	r5, [pc, #32]	; 9ba0 <internal_putk+0x30>
    9b7c:	ea000002 	b	9b8c <internal_putk+0x1c>
    9b80:	e5953000 	ldr	r3, [r5]
    9b84:	e12fff33 	blx	r3
    9b88:	e2844001 	add	r4, r4, #1
    9b8c:	e5d40000 	ldrb	r0, [r4]
    9b90:	e3500000 	cmp	r0, #0
    9b94:	1afffff9 	bne	9b80 <internal_putk+0x10>
    9b98:	e3a00001 	mov	r0, #1
    9b9c:	e8bd8038 	pop	{r3, r4, r5, pc}
    9ba0:	0000b224 	andeq	fp, r0, r4, lsr #4

00009ba4 <uart_hex>:
    9ba4:	e92d4008 	push	{r3, lr}
    9ba8:	e1a01000 	mov	r1, r0
    9bac:	e59f0008 	ldr	r0, [pc, #8]	; 9bbc <uart_hex+0x18>
    9bb0:	ebffffc9 	bl	9adc <printk>
    9bb4:	e3a00000 	mov	r0, #0
    9bb8:	e8bd8008 	pop	{r3, pc}
    9bbc:	0000bb44 	andeq	fp, r0, r4, asr #22

00009bc0 <isdigit>:
    9bc0:	e2400030 	sub	r0, r0, #48	; 0x30
    9bc4:	e3500009 	cmp	r0, #9
    9bc8:	83a00000 	movhi	r0, #0
    9bcc:	93a00001 	movls	r0, #1
    9bd0:	e12fff1e 	bx	lr

00009bd4 <pad>:
    9bd4:	e0611000 	rsb	r1, r1, r0
    9bd8:	e3a03020 	mov	r3, #32
    9bdc:	ea000002 	b	9bec <pad+0x18>
    9be0:	e5c03000 	strb	r3, [r0]
    9be4:	e2811001 	add	r1, r1, #1
    9be8:	e2800001 	add	r0, r0, #1
    9bec:	e1510002 	cmp	r1, r2
    9bf0:	bafffffa 	blt	9be0 <pad+0xc>
    9bf4:	e3a03000 	mov	r3, #0
    9bf8:	e5c03000 	strb	r3, [r0]
    9bfc:	e12fff1e 	bx	lr

00009c00 <reverse>:
    9c00:	e063c002 	rsb	ip, r3, r2
    9c04:	e28cc001 	add	ip, ip, #1
    9c08:	e15c0001 	cmp	ip, r1
    9c0c:	c061100c 	rsbgt	r1, r1, ip
    9c10:	c0833001 	addgt	r3, r3, r1
    9c14:	e2422001 	sub	r2, r2, #1
    9c18:	e1a01000 	mov	r1, r0
    9c1c:	ea000002 	b	9c2c <reverse+0x2c>
    9c20:	e452c001 	ldrb	ip, [r2], #-1
    9c24:	e5c1c000 	strb	ip, [r1]
    9c28:	e2811001 	add	r1, r1, #1
    9c2c:	e1520003 	cmp	r2, r3
    9c30:	2afffffa 	bcs	9c20 <reverse+0x20>
    9c34:	e3a03000 	mov	r3, #0
    9c38:	e5c13000 	strb	r3, [r1]
    9c3c:	e12fff1e 	bx	lr

00009c40 <emit>:
    9c40:	e92d41f0 	push	{r4, r5, r6, r7, r8, lr}
    9c44:	e24dd040 	sub	sp, sp, #64	; 0x40
    9c48:	e1a05001 	mov	r5, r1
    9c4c:	e1a04002 	mov	r4, r2
    9c50:	e59d2058 	ldr	r2, [sp, #88]	; 0x58
    9c54:	e1520004 	cmp	r2, r4
    9c58:	c2442001 	subgt	r2, r4, #1
    9c5c:	e1a0c003 	mov	ip, r3
    9c60:	e2400002 	sub	r0, r0, #2
    9c64:	e350000e 	cmp	r0, #14
    9c68:	979ff100 	ldrls	pc, [pc, r0, lsl #2]
    9c6c:	ea000042 	b	9d7c <emit+0x13c>
    9c70:	00009d54 	andeq	r9, r0, r4, asr sp
    9c74:	00009d7c 	andeq	r9, r0, ip, ror sp
    9c78:	00009d7c 	andeq	r9, r0, ip, ror sp
    9c7c:	00009d7c 	andeq	r9, r0, ip, ror sp
    9c80:	00009d7c 	andeq	r9, r0, ip, ror sp
    9c84:	00009d7c 	andeq	r9, r0, ip, ror sp
    9c88:	00009d48 	andeq	r9, r0, r8, asr #26
    9c8c:	00009d7c 	andeq	r9, r0, ip, ror sp
    9c90:	00009cac 	andeq	r9, r0, ip, lsr #25
    9c94:	00009d7c 	andeq	r9, r0, ip, ror sp
    9c98:	00009d7c 	andeq	r9, r0, ip, ror sp
    9c9c:	00009d7c 	andeq	r9, r0, ip, ror sp
    9ca0:	00009d7c 	andeq	r9, r0, ip, ror sp
    9ca4:	00009d7c 	andeq	r9, r0, ip, ror sp
    9ca8:	00009d20 	andeq	r9, r0, r0, lsr #26
    9cac:	e59d105c 	ldr	r1, [sp, #92]	; 0x5c
    9cb0:	e2911000 	adds	r1, r1, #0
    9cb4:	13a01001 	movne	r1, #1
    9cb8:	e0111fa3 	ands	r1, r1, r3, lsr #31
    9cbc:	1263c000 	rsbne	ip, r3, #0
    9cc0:	13a08001 	movne	r8, #1
    9cc4:	03a08000 	moveq	r8, #0
    9cc8:	e1a0100d 	mov	r1, sp
    9ccc:	e59f70ec 	ldr	r7, [pc, #236]	; 9dc0 <emit+0x180>
    9cd0:	e59f60ec 	ldr	r6, [pc, #236]	; 9dc4 <emit+0x184>
    9cd4:	ea000000 	b	9cdc <emit+0x9c>
    9cd8:	e1a01003 	mov	r1, r3
    9cdc:	e2813001 	add	r3, r1, #1
    9ce0:	e08e0c97 	umull	r0, lr, r7, ip
    9ce4:	e1a0e1ae 	lsr	lr, lr, #3
    9ce8:	e1a0000e 	mov	r0, lr
    9cec:	e08ee10e 	add	lr, lr, lr, lsl #2
    9cf0:	e1a0e08e 	lsl	lr, lr, #1
    9cf4:	e06ee00c 	rsb	lr, lr, ip
    9cf8:	e7d6c00e 	ldrb	ip, [r6, lr]
    9cfc:	e5c1c000 	strb	ip, [r1]
    9d00:	e1a0c000 	mov	ip, r0
    9d04:	e3500000 	cmp	r0, #0
    9d08:	1afffff2 	bne	9cd8 <emit+0x98>
    9d0c:	e3580000 	cmp	r8, #0
    9d10:	12813002 	addne	r3, r1, #2
    9d14:	13a0002d 	movne	r0, #45	; 0x2d
    9d18:	15c10001 	strbne	r0, [r1, #1]
    9d1c:	ea00001d 	b	9d98 <emit+0x158>
    9d20:	e1a0e00d 	mov	lr, sp
    9d24:	e59f009c 	ldr	r0, [pc, #156]	; 9dc8 <emit+0x188>
    9d28:	e28e3001 	add	r3, lr, #1
    9d2c:	e20c100f 	and	r1, ip, #15
    9d30:	e7d01001 	ldrb	r1, [r0, r1]
    9d34:	e5ce1000 	strb	r1, [lr]
    9d38:	e1a0e003 	mov	lr, r3
    9d3c:	e1b0c22c 	lsrs	ip, ip, #4
    9d40:	1afffff8 	bne	9d28 <emit+0xe8>
    9d44:	ea000013 	b	9d98 <emit+0x158>
    9d48:	e5cd3000 	strb	r3, [sp]
    9d4c:	e28d3001 	add	r3, sp, #1
    9d50:	ea000010 	b	9d98 <emit+0x158>
    9d54:	e1a0e00d 	mov	lr, sp
    9d58:	e59f006c 	ldr	r0, [pc, #108]	; 9dcc <emit+0x18c>
    9d5c:	e28e3001 	add	r3, lr, #1
    9d60:	e20c1001 	and	r1, ip, #1
    9d64:	e7d01001 	ldrb	r1, [r0, r1]
    9d68:	e5ce1000 	strb	r1, [lr]
    9d6c:	e1a0e003 	mov	lr, r3
    9d70:	e1b0c0ac 	lsrs	ip, ip, #1
    9d74:	1afffff8 	bne	9d5c <emit+0x11c>
    9d78:	ea000006 	b	9d98 <emit+0x158>
    9d7c:	ebffff71 	bl	9b48 <rpi_reset_putc>
    9d80:	e59f0048 	ldr	r0, [pc, #72]	; 9dd0 <emit+0x190>
    9d84:	e59f1048 	ldr	r1, [pc, #72]	; 9dd4 <emit+0x194>
    9d88:	e59f2048 	ldr	r2, [pc, #72]	; 9dd8 <emit+0x198>
    9d8c:	e3a03075 	mov	r3, #117	; 0x75
    9d90:	ebffff51 	bl	9adc <printk>
    9d94:	eb0000c7 	bl	a0b8 <clean_reboot>
    9d98:	e1a00003 	mov	r0, r3
    9d9c:	e1a0100d 	mov	r1, sp
    9da0:	ebffff8b 	bl	9bd4 <pad>
    9da4:	e1a02000 	mov	r2, r0
    9da8:	e1a00005 	mov	r0, r5
    9dac:	e1a01004 	mov	r1, r4
    9db0:	e1a0300d 	mov	r3, sp
    9db4:	ebffff91 	bl	9c00 <reverse>
    9db8:	e28dd040 	add	sp, sp, #64	; 0x40
    9dbc:	e8bd81f0 	pop	{r4, r5, r6, r7, r8, pc}
    9dc0:	cccccccd 	stclgt	12, cr12, [ip], {205}	; 0xcd
    9dc4:	0000bb94 	muleq	r0, r4, fp
    9dc8:	0000bba0 	andeq	fp, r0, r0, lsr #23
    9dcc:	0000bbb4 			; <UNDEFINED> instruction: 0x0000bbb4
    9dd0:	0000bb6c 	andeq	fp, r0, ip, ror #22
    9dd4:	0000bb80 	andeq	fp, r0, r0, lsl #23
    9dd8:	0000bb48 	andeq	fp, r0, r8, asr #22

00009ddc <rpi_set_output>:
    9ddc:	e92d4008 	push	{r3, lr}
    9de0:	e3500000 	cmp	r0, #0
    9de4:	1a000006 	bne	9e04 <rpi_set_output+0x28>
    9de8:	ebffff56 	bl	9b48 <rpi_reset_putc>
    9dec:	e59f0028 	ldr	r0, [pc, #40]	; 9e1c <rpi_set_output+0x40>
    9df0:	e59f1028 	ldr	r1, [pc, #40]	; 9e20 <rpi_set_output+0x44>
    9df4:	e59f2028 	ldr	r2, [pc, #40]	; 9e24 <rpi_set_output+0x48>
    9df8:	e3a03020 	mov	r3, #32
    9dfc:	ebffff36 	bl	9adc <printk>
    9e00:	eb0000ac 	bl	a0b8 <clean_reboot>
    9e04:	e59f301c 	ldr	r3, [pc, #28]	; 9e28 <rpi_set_output+0x4c>
    9e08:	e5830000 	str	r0, [r3]
    9e0c:	e3510000 	cmp	r1, #0
    9e10:	159f3014 	ldrne	r3, [pc, #20]	; 9e2c <rpi_set_output+0x50>
    9e14:	15831000 	strne	r1, [r3]
    9e18:	e8bd8008 	pop	{r3, pc}
    9e1c:	0000bbb8 			; <UNDEFINED> instruction: 0x0000bbb8
    9e20:	0000bb80 	andeq	fp, r0, r0, lsl #23
    9e24:	0000bb50 	andeq	fp, r0, r0, asr fp
    9e28:	0000b224 	andeq	fp, r0, r4, lsr #4
    9e2c:	0000b228 	andeq	fp, r0, r8, lsr #4

00009e30 <va_printk>:
    9e30:	e92d4ff0 	push	{r4, r5, r6, r7, r8, r9, sl, fp, lr}
    9e34:	e24dd08c 	sub	sp, sp, #140	; 0x8c
    9e38:	e1a0a000 	mov	sl, r0
    9e3c:	e1a09003 	mov	r9, r3
    9e40:	e2411001 	sub	r1, r1, #1
    9e44:	e0808001 	add	r8, r0, r1
    9e48:	e3a03000 	mov	r3, #0
    9e4c:	e5c03000 	strb	r3, [r0]
    9e50:	e1a04000 	mov	r4, r0
    9e54:	e1a0b003 	mov	fp, r3
    9e58:	ea000086 	b	a078 <va_printk+0x248>
    9e5c:	e3530025 	cmp	r3, #37	; 0x25
    9e60:	12822001 	addne	r2, r2, #1
    9e64:	15c43000 	strbne	r3, [r4]
    9e68:	12844001 	addne	r4, r4, #1
    9e6c:	1a000081 	bne	a078 <va_printk+0x248>
    9e70:	e5d21001 	ldrb	r1, [r2, #1]
    9e74:	e3510025 	cmp	r1, #37	; 0x25
    9e78:	05c43000 	strbeq	r3, [r4]
    9e7c:	02822002 	addeq	r2, r2, #2
    9e80:	02844001 	addeq	r4, r4, #1
    9e84:	0a00007b 	beq	a078 <va_printk+0x248>
    9e88:	e2826001 	add	r6, r2, #1
    9e8c:	e1a0700b 	mov	r7, fp
    9e90:	ea000004 	b	9ea8 <va_printk+0x78>
    9e94:	e0877107 	add	r7, r7, r7, lsl #2
    9e98:	e1a07087 	lsl	r7, r7, #1
    9e9c:	e0877005 	add	r7, r7, r5
    9ea0:	e2477030 	sub	r7, r7, #48	; 0x30
    9ea4:	e2866001 	add	r6, r6, #1
    9ea8:	e5d65000 	ldrb	r5, [r6]
    9eac:	e1a00005 	mov	r0, r5
    9eb0:	ebffff42 	bl	9bc0 <isdigit>
    9eb4:	e3500000 	cmp	r0, #0
    9eb8:	1afffff5 	bne	9e94 <va_printk+0x64>
    9ebc:	e357001f 	cmp	r7, #31
    9ec0:	9a000006 	bls	9ee0 <va_printk+0xb0>
    9ec4:	ebffff1f 	bl	9b48 <rpi_reset_putc>
    9ec8:	e59f01d4 	ldr	r0, [pc, #468]	; a0a4 <va_printk+0x274>
    9ecc:	e59f11d4 	ldr	r1, [pc, #468]	; a0a8 <va_printk+0x278>
    9ed0:	e59f21d4 	ldr	r2, [pc, #468]	; a0ac <va_printk+0x27c>
    9ed4:	e3a03092 	mov	r3, #146	; 0x92
    9ed8:	ebfffeff 	bl	9adc <printk>
    9edc:	eb000075 	bl	a0b8 <clean_reboot>
    9ee0:	e2455062 	sub	r5, r5, #98	; 0x62
    9ee4:	e3550016 	cmp	r5, #22
    9ee8:	979ff105 	ldrls	pc, [pc, r5, lsl #2]
    9eec:	ea00004e 	b	a02c <va_printk+0x1fc>
    9ef0:	00009fd8 	ldrdeq	r9, [r0], -r8
    9ef4:	0000a008 	andeq	sl, r0, r8
    9ef8:	00009f68 	andeq	r9, r0, r8, ror #30
    9efc:	0000a02c 	andeq	sl, r0, ip, lsr #32
    9f00:	00009f4c 	andeq	r9, r0, ip, asr #30
    9f04:	0000a02c 	andeq	sl, r0, ip, lsr #32
    9f08:	0000a02c 	andeq	sl, r0, ip, lsr #32
    9f0c:	0000a02c 	andeq	sl, r0, ip, lsr #32
    9f10:	0000a02c 	andeq	sl, r0, ip, lsr #32
    9f14:	0000a02c 	andeq	sl, r0, ip, lsr #32
    9f18:	0000a02c 	andeq	sl, r0, ip, lsr #32
    9f1c:	0000a02c 	andeq	sl, r0, ip, lsr #32
    9f20:	0000a02c 	andeq	sl, r0, ip, lsr #32
    9f24:	0000a02c 	andeq	sl, r0, ip, lsr #32
    9f28:	00009fb4 			; <UNDEFINED> instruction: 0x00009fb4
    9f2c:	0000a02c 	andeq	sl, r0, ip, lsr #32
    9f30:	0000a02c 	andeq	sl, r0, ip, lsr #32
    9f34:	00009ffc 	strdeq	r9, [r0], -ip
    9f38:	0000a02c 	andeq	sl, r0, ip, lsr #32
    9f3c:	00009f90 	muleq	r0, r0, pc	; <UNPREDICTABLE>
    9f40:	0000a02c 	andeq	sl, r0, ip, lsr #32
    9f44:	0000a02c 	andeq	sl, r0, ip, lsr #32
    9f48:	00009fb4 			; <UNDEFINED> instruction: 0x00009fb4
    9f4c:	ebfffefd 	bl	9b48 <rpi_reset_putc>
    9f50:	e59f0158 	ldr	r0, [pc, #344]	; a0b0 <va_printk+0x280>
    9f54:	e59f114c 	ldr	r1, [pc, #332]	; a0a8 <va_printk+0x278>
    9f58:	e59f214c 	ldr	r2, [pc, #332]	; a0ac <va_printk+0x27c>
    9f5c:	e3a03098 	mov	r3, #152	; 0x98
    9f60:	ebfffedd 	bl	9adc <printk>
    9f64:	eb000053 	bl	a0b8 <clean_reboot>
    9f68:	e5993000 	ldr	r3, [r9]
    9f6c:	e2899004 	add	r9, r9, #4
    9f70:	e58d7000 	str	r7, [sp]
    9f74:	e3a02001 	mov	r2, #1
    9f78:	e58d2004 	str	r2, [sp, #4]
    9f7c:	e3a0000a 	mov	r0, #10
    9f80:	e28d1008 	add	r1, sp, #8
    9f84:	e3a02080 	mov	r2, #128	; 0x80
    9f88:	ebffff2c 	bl	9c40 <emit>
    9f8c:	ea00002f 	b	a050 <va_printk+0x220>
    9f90:	e5993000 	ldr	r3, [r9]
    9f94:	e2899004 	add	r9, r9, #4
    9f98:	e58d7000 	str	r7, [sp]
    9f9c:	e58db004 	str	fp, [sp, #4]
    9fa0:	e3a0000a 	mov	r0, #10
    9fa4:	e28d1008 	add	r1, sp, #8
    9fa8:	e3a02080 	mov	r2, #128	; 0x80
    9fac:	ebffff23 	bl	9c40 <emit>
    9fb0:	ea000026 	b	a050 <va_printk+0x220>
    9fb4:	e5993000 	ldr	r3, [r9]
    9fb8:	e2899004 	add	r9, r9, #4
    9fbc:	e58d7000 	str	r7, [sp]
    9fc0:	e58db004 	str	fp, [sp, #4]
    9fc4:	e3a00010 	mov	r0, #16
    9fc8:	e28d1008 	add	r1, sp, #8
    9fcc:	e3a02080 	mov	r2, #128	; 0x80
    9fd0:	ebffff1a 	bl	9c40 <emit>
    9fd4:	ea00001d 	b	a050 <va_printk+0x220>
    9fd8:	e5993000 	ldr	r3, [r9]
    9fdc:	e2899004 	add	r9, r9, #4
    9fe0:	e58d7000 	str	r7, [sp]
    9fe4:	e58db004 	str	fp, [sp, #4]
    9fe8:	e3a00002 	mov	r0, #2
    9fec:	e28d1008 	add	r1, sp, #8
    9ff0:	e3a02080 	mov	r2, #128	; 0x80
    9ff4:	ebffff11 	bl	9c40 <emit>
    9ff8:	ea000014 	b	a050 <va_printk+0x220>
    9ffc:	e5990000 	ldr	r0, [r9]
    a000:	e2899004 	add	r9, r9, #4
    a004:	ea000011 	b	a050 <va_printk+0x220>
    a008:	e5993000 	ldr	r3, [r9]
    a00c:	e2899004 	add	r9, r9, #4
    a010:	e58d7000 	str	r7, [sp]
    a014:	e58db004 	str	fp, [sp, #4]
    a018:	e3a00008 	mov	r0, #8
    a01c:	e08d1000 	add	r1, sp, r0
    a020:	e3a02080 	mov	r2, #128	; 0x80
    a024:	ebffff05 	bl	9c40 <emit>
    a028:	ea000008 	b	a050 <va_printk+0x220>
    a02c:	ebfffec5 	bl	9b48 <rpi_reset_putc>
    a030:	e5d63000 	ldrb	r3, [r6]
    a034:	e58d3000 	str	r3, [sp]
    a038:	e59f0074 	ldr	r0, [pc, #116]	; a0b4 <va_printk+0x284>
    a03c:	e59f1064 	ldr	r1, [pc, #100]	; a0a8 <va_printk+0x278>
    a040:	e59f2064 	ldr	r2, [pc, #100]	; a0ac <va_printk+0x27c>
    a044:	e3a030b9 	mov	r3, #185	; 0xb9
    a048:	ebfffea3 	bl	9adc <printk>
    a04c:	eb000019 	bl	a0b8 <clean_reboot>
    a050:	e2862001 	add	r2, r6, #1
    a054:	ea000002 	b	a064 <va_printk+0x234>
    a058:	e2800001 	add	r0, r0, #1
    a05c:	e5c43000 	strb	r3, [r4]
    a060:	e2844001 	add	r4, r4, #1
    a064:	e1540008 	cmp	r4, r8
    a068:	2a000002 	bcs	a078 <va_printk+0x248>
    a06c:	e5d03000 	ldrb	r3, [r0]
    a070:	e3530000 	cmp	r3, #0
    a074:	1afffff7 	bne	a058 <va_printk+0x228>
    a078:	e5d23000 	ldrb	r3, [r2]
    a07c:	e3530000 	cmp	r3, #0
    a080:	0a000001 	beq	a08c <va_printk+0x25c>
    a084:	e1540008 	cmp	r4, r8
    a088:	3affff73 	bcc	9e5c <va_printk+0x2c>
    a08c:	e2840001 	add	r0, r4, #1
    a090:	e3a03000 	mov	r3, #0
    a094:	e5c43000 	strb	r3, [r4]
    a098:	e06a0000 	rsb	r0, sl, r0
    a09c:	e28dd08c 	add	sp, sp, #140	; 0x8c
    a0a0:	e8bd8ff0 	pop	{r4, r5, r6, r7, r8, r9, sl, fp, pc}
    a0a4:	0000bbd0 	ldrdeq	fp, [r0], -r0
    a0a8:	0000bb80 	andeq	fp, r0, r0, lsl #23
    a0ac:	0000bb60 	andeq	fp, r0, r0, ror #22
    a0b0:	0000bbec 	andeq	fp, r0, ip, ror #23
    a0b4:	0000bc14 	andeq	fp, r0, r4, lsl ip

0000a0b8 <clean_reboot>:
    a0b8:	e92d4008 	push	{r3, lr}
    a0bc:	e59f3014 	ldr	r3, [pc, #20]	; a0d8 <clean_reboot+0x20>
    a0c0:	e5933000 	ldr	r3, [r3]
    a0c4:	e59f0010 	ldr	r0, [pc, #16]	; a0dc <clean_reboot+0x24>
    a0c8:	e12fff33 	blx	r3
    a0cc:	e3a00064 	mov	r0, #100	; 0x64
    a0d0:	eb000063 	bl	a264 <delay_ms>
    a0d4:	eb000038 	bl	a1bc <rpi_reboot>
    a0d8:	0000b228 	andeq	fp, r0, r8, lsr #4
    a0dc:	0000bc4c 	andeq	fp, r0, ip, asr #24

0000a0e0 <internal_sw_putchar>:
    a0e0:	e92d4010 	push	{r4, lr}
    a0e4:	e1a04000 	mov	r4, r0
    a0e8:	e59f000c 	ldr	r0, [pc, #12]	; a0fc <internal_sw_putchar+0x1c>
    a0ec:	e6ef1074 	uxtb	r1, r4
    a0f0:	eb0000df 	bl	a474 <sw_uart_putc>
    a0f4:	e1a00004 	mov	r0, r4
    a0f8:	e8bd8010 	pop	{r4, pc}
    a0fc:	0000c2fc 	strdeq	ip, [r0], -ip	; <UNPREDICTABLE>

0000a100 <_cstart>:
    a100:	e92d4008 	push	{r3, lr}
    a104:	e59f3068 	ldr	r3, [pc, #104]	; a174 <_cstart+0x74>
    a108:	e59f2068 	ldr	r2, [pc, #104]	; a178 <_cstart+0x78>
    a10c:	e3a01000 	mov	r1, #0
    a110:	ea000001 	b	a11c <_cstart+0x1c>
    a114:	e5831000 	str	r1, [r3]
    a118:	e2833004 	add	r3, r3, #4
    a11c:	e1530002 	cmp	r3, r2
    a120:	3afffffb 	bcc	a114 <_cstart+0x14>
    a124:	eb000434 	bl	b1fc <cb_get_block>
    a128:	e3500000 	cmp	r0, #0
    a12c:	0a00000e 	beq	a16c <_cstart+0x6c>
    a130:	e5d02004 	ldrb	r2, [r0, #4]
    a134:	e3520002 	cmp	r2, #2
    a138:	1a00000b 	bne	a16c <_cstart+0x6c>
    a13c:	e59f1038 	ldr	r1, [pc, #56]	; a17c <_cstart+0x7c>
    a140:	e59f2038 	ldr	r2, [pc, #56]	; a180 <_cstart+0x80>
    a144:	e5821000 	str	r1, [r2]
    a148:	e59fc034 	ldr	ip, [pc, #52]	; a184 <_cstart+0x84>
    a14c:	e2803008 	add	r3, r0, #8
    a150:	e8930007 	ldm	r3, {r0, r1, r2}
    a154:	e88c0007 	stm	ip, {r0, r1, r2}
    a158:	e1a0000c 	mov	r0, ip
    a15c:	e59f1024 	ldr	r1, [pc, #36]	; a188 <_cstart+0x88>
    a160:	eb000217 	bl	a9c4 <sw_uart_printk>
    a164:	e59f0020 	ldr	r0, [pc, #32]	; a18c <_cstart+0x8c>
    a168:	ebfffe5b 	bl	9adc <printk>
    a16c:	ebfff7e6 	bl	810c <notmain>
    a170:	eb000011 	bl	a1bc <rpi_reboot>
    a174:	0000befc 	strdeq	fp, [r0], -ip
    a178:	0000c330 	andeq	ip, r0, r0, lsr r3
    a17c:	0000a0e0 	andeq	sl, r0, r0, ror #1
    a180:	0000b224 	andeq	fp, r0, r4, lsr #4
    a184:	0000c2fc 	strdeq	ip, [r0], -ip	; <UNPREDICTABLE>
    a188:	0000bc58 	andeq	fp, r0, r8, asr ip
    a18c:	0000bc7c 	andeq	fp, r0, ip, ror ip

0000a190 <at_user_level>:
    a190:	e10f0000 	mrs	r0, CPSR
    a194:	e200001f 	and	r0, r0, #31
    a198:	e3500010 	cmp	r0, #16
    a19c:	13a00000 	movne	r0, #0
    a1a0:	03a00001 	moveq	r0, #1
    a1a4:	e12fff1e 	bx	lr

0000a1a8 <set_user_level>:
    a1a8:	e10f3000 	mrs	r3, CPSR
    a1ac:	e3c3301f 	bic	r3, r3, #31
    a1b0:	e3833010 	orr	r3, r3, #16
    a1b4:	e129f003 	msr	CPSR_fc, r3
    a1b8:	e12fff1e 	bx	lr

0000a1bc <rpi_reboot>:
    a1bc:	e92d4008 	push	{r3, lr}
    a1c0:	ebfffff2 	bl	a190 <at_user_level>
    a1c4:	e3500000 	cmp	r0, #0
    a1c8:	0a000000 	beq	a1d0 <rpi_reboot+0x14>
    a1cc:	ebfffff5 	bl	a1a8 <set_user_level>
    a1d0:	e3a0001e 	mov	r0, #30
    a1d4:	eb000022 	bl	a264 <delay_ms>
    a1d8:	e59f0014 	ldr	r0, [pc, #20]	; a1f4 <rpi_reboot+0x38>
    a1dc:	e59f1014 	ldr	r1, [pc, #20]	; a1f8 <rpi_reboot+0x3c>
    a1e0:	eb000288 	bl	ac08 <PUT32>
    a1e4:	e59f0010 	ldr	r0, [pc, #16]	; a1fc <rpi_reboot+0x40>
    a1e8:	e59f1010 	ldr	r1, [pc, #16]	; a200 <rpi_reboot+0x44>
    a1ec:	eb000285 	bl	ac08 <PUT32>
    a1f0:	eafffffe 	b	a1f0 <rpi_reboot+0x34>
    a1f4:	20100024 	andscs	r0, r0, r4, lsr #32
    a1f8:	5a000001 	bpl	a204 <delay_cycles>
    a1fc:	2010001c 	andscs	r0, r0, ip, lsl r0
    a200:	5a000020 	bpl	a288 <delay_sec+0x10>

0000a204 <delay_cycles>:
    a204:	ea000001 	b	a210 <delay_cycles+0xc>
    a208:	e2811000 	add	r1, r1, #0
    a20c:	e1a00003 	mov	r0, r3
    a210:	e2403001 	sub	r3, r0, #1
    a214:	e3500000 	cmp	r0, #0
    a218:	1afffffa 	bne	a208 <delay_cycles+0x4>
    a21c:	e12fff1e 	bx	lr

0000a220 <timer_get_usec_raw>:
    a220:	e92d4008 	push	{r3, lr}
    a224:	e59f0004 	ldr	r0, [pc, #4]	; a230 <timer_get_usec_raw+0x10>
    a228:	eb000282 	bl	ac38 <GET32>
    a22c:	e8bd8008 	pop	{r3, pc}
    a230:	20003004 	andcs	r3, r0, r4

0000a234 <timer_get_usec>:
    a234:	e92d4008 	push	{r3, lr}
    a238:	ebfffff8 	bl	a220 <timer_get_usec_raw>
    a23c:	e8bd8008 	pop	{r3, pc}

0000a240 <delay_us>:
    a240:	e92d4038 	push	{r3, r4, r5, lr}
    a244:	e1a05000 	mov	r5, r0
    a248:	ebfffff9 	bl	a234 <timer_get_usec>
    a24c:	e1a04000 	mov	r4, r0
    a250:	ebfffff7 	bl	a234 <timer_get_usec>
    a254:	e0640000 	rsb	r0, r4, r0
    a258:	e1500005 	cmp	r0, r5
    a25c:	3afffffb 	bcc	a250 <delay_us+0x10>
    a260:	e8bd8038 	pop	{r3, r4, r5, pc}

0000a264 <delay_ms>:
    a264:	e92d4008 	push	{r3, lr}
    a268:	e3a03ffa 	mov	r3, #1000	; 0x3e8
    a26c:	e0000093 	mul	r0, r3, r0
    a270:	ebfffff2 	bl	a240 <delay_us>
    a274:	e8bd8008 	pop	{r3, pc}

0000a278 <delay_sec>:
    a278:	e92d4008 	push	{r3, lr}
    a27c:	e3a03ffa 	mov	r3, #1000	; 0x3e8
    a280:	e0000093 	mul	r0, r3, r0
    a284:	ebfffff6 	bl	a264 <delay_ms>
    a288:	e8bd8008 	pop	{r3, pc}

0000a28c <kmalloc>:
    a28c:	e92d4070 	push	{r4, r5, r6, lr}
    a290:	e59f3058 	ldr	r3, [pc, #88]	; a2f0 <kmalloc+0x64>
    a294:	e5933000 	ldr	r3, [r3]
    a298:	e3530000 	cmp	r3, #0
    a29c:	1a000006 	bne	a2bc <kmalloc+0x30>
    a2a0:	ebfffe28 	bl	9b48 <rpi_reset_putc>
    a2a4:	e59f0048 	ldr	r0, [pc, #72]	; a2f4 <kmalloc+0x68>
    a2a8:	e59f1048 	ldr	r1, [pc, #72]	; a2f8 <kmalloc+0x6c>
    a2ac:	e59f2048 	ldr	r2, [pc, #72]	; a2fc <kmalloc+0x70>
    a2b0:	e3a0301a 	mov	r3, #26
    a2b4:	ebfffe08 	bl	9adc <printk>
    a2b8:	ebffff7e 	bl	a0b8 <clean_reboot>
    a2bc:	e59f402c 	ldr	r4, [pc, #44]	; a2f0 <kmalloc+0x64>
    a2c0:	e5945004 	ldr	r5, [r4, #4]
    a2c4:	e2806007 	add	r6, r0, #7
    a2c8:	e3c66007 	bic	r6, r6, #7
    a2cc:	e1a00005 	mov	r0, r5
    a2d0:	e3a01000 	mov	r1, #0
    a2d4:	e1a02006 	mov	r2, r6
    a2d8:	eb0003b5 	bl	b1b4 <memset>
    a2dc:	e5943004 	ldr	r3, [r4, #4]
    a2e0:	e0836006 	add	r6, r3, r6
    a2e4:	e5846004 	str	r6, [r4, #4]
    a2e8:	e1a00005 	mov	r0, r5
    a2ec:	e8bd8070 	pop	{r4, r5, r6, pc}
    a2f0:	0000c308 	andeq	ip, r0, r8, lsl #6
    a2f4:	0000bcc8 	andeq	fp, r0, r8, asr #25
    a2f8:	0000bd08 	andeq	fp, r0, r8, lsl #26
    a2fc:	0000bc88 	andeq	fp, r0, r8, lsl #25

0000a300 <kmalloc_aligned>:
    a300:	e92d4008 	push	{r3, lr}
    a304:	e59f307c 	ldr	r3, [pc, #124]	; a388 <kmalloc_aligned+0x88>
    a308:	e5933000 	ldr	r3, [r3]
    a30c:	e3530000 	cmp	r3, #0
    a310:	1a000006 	bne	a330 <kmalloc_aligned+0x30>
    a314:	ebfffe0b 	bl	9b48 <rpi_reset_putc>
    a318:	e59f006c 	ldr	r0, [pc, #108]	; a38c <kmalloc_aligned+0x8c>
    a31c:	e59f106c 	ldr	r1, [pc, #108]	; a390 <kmalloc_aligned+0x90>
    a320:	e59f206c 	ldr	r2, [pc, #108]	; a394 <kmalloc_aligned+0x94>
    a324:	e3a03028 	mov	r3, #40	; 0x28
    a328:	ebfffdeb 	bl	9adc <printk>
    a32c:	ebffff61 	bl	a0b8 <clean_reboot>
    a330:	e3510008 	cmp	r1, #8
    a334:	8a000001 	bhi	a340 <kmalloc_aligned+0x40>
    a338:	ebffffd3 	bl	a28c <kmalloc>
    a33c:	e8bd8008 	pop	{r3, pc}
    a340:	e3110007 	tst	r1, #7
    a344:	0a000006 	beq	a364 <kmalloc_aligned+0x64>
    a348:	ebfffdfe 	bl	9b48 <rpi_reset_putc>
    a34c:	e59f0044 	ldr	r0, [pc, #68]	; a398 <kmalloc_aligned+0x98>
    a350:	e59f1038 	ldr	r1, [pc, #56]	; a390 <kmalloc_aligned+0x90>
    a354:	e59f2038 	ldr	r2, [pc, #56]	; a394 <kmalloc_aligned+0x94>
    a358:	e3a0302c 	mov	r3, #44	; 0x2c
    a35c:	ebfffdde 	bl	9adc <printk>
    a360:	ebffff54 	bl	a0b8 <clean_reboot>
    a364:	e59f301c 	ldr	r3, [pc, #28]	; a388 <kmalloc_aligned+0x88>
    a368:	e5932004 	ldr	r2, [r3, #4]
    a36c:	e0812002 	add	r2, r1, r2
    a370:	e2422001 	sub	r2, r2, #1
    a374:	e2611000 	rsb	r1, r1, #0
    a378:	e0021001 	and	r1, r2, r1
    a37c:	e5831004 	str	r1, [r3, #4]
    a380:	ebffffc1 	bl	a28c <kmalloc>
    a384:	e8bd8008 	pop	{r3, pc}
    a388:	0000c308 	andeq	ip, r0, r8, lsl #6
    a38c:	0000bcc8 	andeq	fp, r0, r8, asr #25
    a390:	0000bd08 	andeq	fp, r0, r8, lsl #26
    a394:	0000bc90 	muleq	r0, r0, ip
    a398:	0000bd1c 	andeq	fp, r0, ip, lsl sp

0000a39c <kmalloc_init>:
    a39c:	e92d4008 	push	{r3, lr}
    a3a0:	e59f303c 	ldr	r3, [pc, #60]	; a3e4 <kmalloc_init+0x48>
    a3a4:	e5933000 	ldr	r3, [r3]
    a3a8:	e3530000 	cmp	r3, #0
    a3ac:	0a000006 	beq	a3cc <kmalloc_init+0x30>
    a3b0:	ebfffde4 	bl	9b48 <rpi_reset_putc>
    a3b4:	e59f002c 	ldr	r0, [pc, #44]	; a3e8 <kmalloc_init+0x4c>
    a3b8:	e59f102c 	ldr	r1, [pc, #44]	; a3ec <kmalloc_init+0x50>
    a3bc:	e59f202c 	ldr	r2, [pc, #44]	; a3f0 <kmalloc_init+0x54>
    a3c0:	e3a0303d 	mov	r3, #61	; 0x3d
    a3c4:	ebfffdc4 	bl	9adc <printk>
    a3c8:	ebffff3a 	bl	a0b8 <clean_reboot>
    a3cc:	e59f3010 	ldr	r3, [pc, #16]	; a3e4 <kmalloc_init+0x48>
    a3d0:	e3a02001 	mov	r2, #1
    a3d4:	e5832000 	str	r2, [r3]
    a3d8:	e59f2014 	ldr	r2, [pc, #20]	; a3f4 <kmalloc_init+0x58>
    a3dc:	e5832004 	str	r2, [r3, #4]
    a3e0:	e8bd8008 	pop	{r3, pc}
    a3e4:	0000c308 	andeq	ip, r0, r8, lsl #6
    a3e8:	0000bd74 	andeq	fp, r0, r4, ror sp
    a3ec:	0000bd08 	andeq	fp, r0, r8, lsl #26
    a3f0:	0000bca0 	andeq	fp, r0, r0, lsr #25
    a3f4:	0000c330 	andeq	ip, r0, r0, lsr r3

0000a3f8 <kfree_all>:
    a3f8:	e59f2008 	ldr	r2, [pc, #8]	; a408 <kfree_all+0x10>
    a3fc:	e59f3008 	ldr	r3, [pc, #8]	; a40c <kfree_all+0x14>
    a400:	e5832004 	str	r2, [r3, #4]
    a404:	e12fff1e 	bx	lr
    a408:	0000c330 	andeq	ip, r0, r0, lsr r3
    a40c:	0000c308 	andeq	ip, r0, r8, lsl #6

0000a410 <kmalloc_heap_ptr>:
    a410:	e59f3004 	ldr	r3, [pc, #4]	; a41c <kmalloc_heap_ptr+0xc>
    a414:	e5930004 	ldr	r0, [r3, #4]
    a418:	e12fff1e 	bx	lr
    a41c:	0000c308 	andeq	ip, r0, r8, lsl #6

0000a420 <kmalloc_init_set_start>:
    a420:	e92d4008 	push	{r3, lr}
    a424:	e59f3038 	ldr	r3, [pc, #56]	; a464 <kmalloc_init_set_start+0x44>
    a428:	e5933000 	ldr	r3, [r3]
    a42c:	e3530000 	cmp	r3, #0
    a430:	0a000006 	beq	a450 <kmalloc_init_set_start+0x30>
    a434:	ebfffdc3 	bl	9b48 <rpi_reset_putc>
    a438:	e59f0028 	ldr	r0, [pc, #40]	; a468 <kmalloc_init_set_start+0x48>
    a43c:	e59f1028 	ldr	r1, [pc, #40]	; a46c <kmalloc_init_set_start+0x4c>
    a440:	e59f2028 	ldr	r2, [pc, #40]	; a470 <kmalloc_init_set_start+0x50>
    a444:	e3a03054 	mov	r3, #84	; 0x54
    a448:	ebfffda3 	bl	9adc <printk>
    a44c:	ebffff19 	bl	a0b8 <clean_reboot>
    a450:	e59f300c 	ldr	r3, [pc, #12]	; a464 <kmalloc_init_set_start+0x44>
    a454:	e3a02001 	mov	r2, #1
    a458:	e5832000 	str	r2, [r3]
    a45c:	e5830004 	str	r0, [r3, #4]
    a460:	e8bd8008 	pop	{r3, pc}
    a464:	0000c308 	andeq	ip, r0, r8, lsl #6
    a468:	0000bd74 	andeq	fp, r0, r4, ror sp
    a46c:	0000bd08 	andeq	fp, r0, r8, lsl #26
    a470:	0000bcb0 			; <UNDEFINED> instruction: 0x0000bcb0

0000a474 <sw_uart_putc>:
    a474:	e92d41f0 	push	{r4, r5, r6, r7, r8, lr}
    a478:	e1a07001 	mov	r7, r1
    a47c:	e5d06000 	ldrb	r6, [r0]
    a480:	e5905008 	ldr	r5, [r0, #8]
    a484:	ee1f4f3c 	mrc	15, 0, r4, cr15, cr12, {1}
    a488:	e1a00006 	mov	r0, r6
    a48c:	e3a01000 	mov	r1, #0
    a490:	eb000284 	bl	aea8 <gpio_write>
    a494:	ee1f3f3c 	mrc	15, 0, r3, cr15, cr12, {1}
    a498:	e0643003 	rsb	r3, r4, r3
    a49c:	e1550003 	cmp	r5, r3
    a4a0:	8afffffb 	bhi	a494 <sw_uart_putc+0x20>
    a4a4:	e1a08085 	lsl	r8, r5, #1
    a4a8:	e1a00006 	mov	r0, r6
    a4ac:	e2071001 	and	r1, r7, #1
    a4b0:	eb00027c 	bl	aea8 <gpio_write>
    a4b4:	ee1f3f3c 	mrc	15, 0, r3, cr15, cr12, {1}
    a4b8:	e0643003 	rsb	r3, r4, r3
    a4bc:	e1580003 	cmp	r8, r3
    a4c0:	8afffffb 	bhi	a4b4 <sw_uart_putc+0x40>
    a4c4:	e0888005 	add	r8, r8, r5
    a4c8:	e1a00006 	mov	r0, r6
    a4cc:	e2071002 	and	r1, r7, #2
    a4d0:	eb000274 	bl	aea8 <gpio_write>
    a4d4:	ee1f3f3c 	mrc	15, 0, r3, cr15, cr12, {1}
    a4d8:	e0643003 	rsb	r3, r4, r3
    a4dc:	e1580003 	cmp	r8, r3
    a4e0:	8afffffb 	bhi	a4d4 <sw_uart_putc+0x60>
    a4e4:	e0888005 	add	r8, r8, r5
    a4e8:	e1a00006 	mov	r0, r6
    a4ec:	e2071004 	and	r1, r7, #4
    a4f0:	eb00026c 	bl	aea8 <gpio_write>
    a4f4:	ee1f3f3c 	mrc	15, 0, r3, cr15, cr12, {1}
    a4f8:	e0643003 	rsb	r3, r4, r3
    a4fc:	e1580003 	cmp	r8, r3
    a500:	8afffffb 	bhi	a4f4 <sw_uart_putc+0x80>
    a504:	e0888005 	add	r8, r8, r5
    a508:	e1a00006 	mov	r0, r6
    a50c:	e2071008 	and	r1, r7, #8
    a510:	eb000264 	bl	aea8 <gpio_write>
    a514:	ee1f3f3c 	mrc	15, 0, r3, cr15, cr12, {1}
    a518:	e0643003 	rsb	r3, r4, r3
    a51c:	e1580003 	cmp	r8, r3
    a520:	8afffffb 	bhi	a514 <sw_uart_putc+0xa0>
    a524:	e0888005 	add	r8, r8, r5
    a528:	e1a00006 	mov	r0, r6
    a52c:	e2071010 	and	r1, r7, #16
    a530:	eb00025c 	bl	aea8 <gpio_write>
    a534:	ee1f3f3c 	mrc	15, 0, r3, cr15, cr12, {1}
    a538:	e0643003 	rsb	r3, r4, r3
    a53c:	e1580003 	cmp	r8, r3
    a540:	8afffffb 	bhi	a534 <sw_uart_putc+0xc0>
    a544:	e0888005 	add	r8, r8, r5
    a548:	e1a00006 	mov	r0, r6
    a54c:	e2071020 	and	r1, r7, #32
    a550:	eb000254 	bl	aea8 <gpio_write>
    a554:	ee1f3f3c 	mrc	15, 0, r3, cr15, cr12, {1}
    a558:	e0643003 	rsb	r3, r4, r3
    a55c:	e1580003 	cmp	r8, r3
    a560:	8afffffb 	bhi	a554 <sw_uart_putc+0xe0>
    a564:	e0888005 	add	r8, r8, r5
    a568:	e1a00006 	mov	r0, r6
    a56c:	e2071040 	and	r1, r7, #64	; 0x40
    a570:	eb00024c 	bl	aea8 <gpio_write>
    a574:	ee1f3f3c 	mrc	15, 0, r3, cr15, cr12, {1}
    a578:	e0643003 	rsb	r3, r4, r3
    a57c:	e1580003 	cmp	r8, r3
    a580:	8afffffb 	bhi	a574 <sw_uart_putc+0x100>
    a584:	e0888005 	add	r8, r8, r5
    a588:	e1a00006 	mov	r0, r6
    a58c:	e2071080 	and	r1, r7, #128	; 0x80
    a590:	eb000244 	bl	aea8 <gpio_write>
    a594:	ee1f3f3c 	mrc	15, 0, r3, cr15, cr12, {1}
    a598:	e0643003 	rsb	r3, r4, r3
    a59c:	e1580003 	cmp	r8, r3
    a5a0:	8afffffb 	bhi	a594 <sw_uart_putc+0x120>
    a5a4:	e0885005 	add	r5, r8, r5
    a5a8:	e1a00006 	mov	r0, r6
    a5ac:	e3a01001 	mov	r1, #1
    a5b0:	eb00023c 	bl	aea8 <gpio_write>
    a5b4:	ee1f3f3c 	mrc	15, 0, r3, cr15, cr12, {1}
    a5b8:	e0643003 	rsb	r3, r4, r3
    a5bc:	e1550003 	cmp	r5, r3
    a5c0:	8afffffb 	bhi	a5b4 <sw_uart_putc+0x140>
    a5c4:	e8bd81f0 	pop	{r4, r5, r6, r7, r8, pc}

0000a5c8 <sw_uart_getc_timeout>:
    a5c8:	e92d43f8 	push	{r3, r4, r5, r6, r7, r8, r9, lr}
    a5cc:	e1a09000 	mov	r9, r0
    a5d0:	e5d07001 	ldrb	r7, [r0, #1]
    a5d4:	e1a05007 	mov	r5, r7
    a5d8:	e1a06001 	mov	r6, r1
    a5dc:	ebffff0f 	bl	a220 <timer_get_usec_raw>
    a5e0:	e1a04000 	mov	r4, r0
    a5e4:	e1a00005 	mov	r0, r5
    a5e8:	eb00021b 	bl	ae5c <gpio_read>
    a5ec:	e3500000 	cmp	r0, #0
    a5f0:	0a000005 	beq	a60c <sw_uart_getc_timeout+0x44>
    a5f4:	ebffff09 	bl	a220 <timer_get_usec_raw>
    a5f8:	e0640000 	rsb	r0, r4, r0
    a5fc:	e1560000 	cmp	r6, r0
    a600:	2afffff7 	bcs	a5e4 <sw_uart_getc_timeout+0x1c>
    a604:	e3a03000 	mov	r3, #0
    a608:	ea000000 	b	a610 <sw_uart_getc_timeout+0x48>
    a60c:	e3a03001 	mov	r3, #1
    a610:	e3530000 	cmp	r3, #0
    a614:	0a000059 	beq	a780 <sw_uart_getc_timeout+0x1b8>
    a618:	ee1f8f3c 	mrc	15, 0, r8, cr15, cr12, {1}
    a61c:	e5994008 	ldr	r4, [r9, #8]
    a620:	e08420a4 	add	r2, r4, r4, lsr #1
    a624:	ee1f3f3c 	mrc	15, 0, r3, cr15, cr12, {1}
    a628:	e0683003 	rsb	r3, r8, r3
    a62c:	e1520003 	cmp	r2, r3
    a630:	8afffffb 	bhi	a624 <sw_uart_getc_timeout+0x5c>
    a634:	e0888004 	add	r8, r8, r4
    a638:	e1a00007 	mov	r0, r7
    a63c:	eb000206 	bl	ae5c <gpio_read>
    a640:	e1a09750 	asr	r9, r0, r7
    a644:	ee1f3f3c 	mrc	15, 0, r3, cr15, cr12, {1}
    a648:	e0683003 	rsb	r3, r8, r3
    a64c:	e1540003 	cmp	r4, r3
    a650:	8afffffb 	bhi	a644 <sw_uart_getc_timeout+0x7c>
    a654:	e0888004 	add	r8, r8, r4
    a658:	e1a00007 	mov	r0, r7
    a65c:	eb0001fe 	bl	ae5c <gpio_read>
    a660:	e1a00750 	asr	r0, r0, r7
    a664:	e1899080 	orr	r9, r9, r0, lsl #1
    a668:	ee1f3f3c 	mrc	15, 0, r3, cr15, cr12, {1}
    a66c:	e0683003 	rsb	r3, r8, r3
    a670:	e1540003 	cmp	r4, r3
    a674:	8afffffb 	bhi	a668 <sw_uart_getc_timeout+0xa0>
    a678:	e0888004 	add	r8, r8, r4
    a67c:	e1a00007 	mov	r0, r7
    a680:	eb0001f5 	bl	ae5c <gpio_read>
    a684:	e1a00750 	asr	r0, r0, r7
    a688:	e1899100 	orr	r9, r9, r0, lsl #2
    a68c:	ee1f3f3c 	mrc	15, 0, r3, cr15, cr12, {1}
    a690:	e0683003 	rsb	r3, r8, r3
    a694:	e1540003 	cmp	r4, r3
    a698:	8afffffb 	bhi	a68c <sw_uart_getc_timeout+0xc4>
    a69c:	e0888004 	add	r8, r8, r4
    a6a0:	e1a00007 	mov	r0, r7
    a6a4:	eb0001ec 	bl	ae5c <gpio_read>
    a6a8:	e1a00750 	asr	r0, r0, r7
    a6ac:	e1899180 	orr	r9, r9, r0, lsl #3
    a6b0:	ee1f3f3c 	mrc	15, 0, r3, cr15, cr12, {1}
    a6b4:	e0683003 	rsb	r3, r8, r3
    a6b8:	e1540003 	cmp	r4, r3
    a6bc:	8afffffb 	bhi	a6b0 <sw_uart_getc_timeout+0xe8>
    a6c0:	e0888004 	add	r8, r8, r4
    a6c4:	e1a00007 	mov	r0, r7
    a6c8:	eb0001e3 	bl	ae5c <gpio_read>
    a6cc:	e1a00750 	asr	r0, r0, r7
    a6d0:	e1899200 	orr	r9, r9, r0, lsl #4
    a6d4:	ee1f3f3c 	mrc	15, 0, r3, cr15, cr12, {1}
    a6d8:	e0683003 	rsb	r3, r8, r3
    a6dc:	e1540003 	cmp	r4, r3
    a6e0:	8afffffb 	bhi	a6d4 <sw_uart_getc_timeout+0x10c>
    a6e4:	e0888004 	add	r8, r8, r4
    a6e8:	e1a00007 	mov	r0, r7
    a6ec:	eb0001da 	bl	ae5c <gpio_read>
    a6f0:	e1a00750 	asr	r0, r0, r7
    a6f4:	e1899280 	orr	r9, r9, r0, lsl #5
    a6f8:	ee1f3f3c 	mrc	15, 0, r3, cr15, cr12, {1}
    a6fc:	e0683003 	rsb	r3, r8, r3
    a700:	e1540003 	cmp	r4, r3
    a704:	8afffffb 	bhi	a6f8 <sw_uart_getc_timeout+0x130>
    a708:	e0888004 	add	r8, r8, r4
    a70c:	e1a00007 	mov	r0, r7
    a710:	eb0001d1 	bl	ae5c <gpio_read>
    a714:	e1a00750 	asr	r0, r0, r7
    a718:	e1899300 	orr	r9, r9, r0, lsl #6
    a71c:	ee1f3f3c 	mrc	15, 0, r3, cr15, cr12, {1}
    a720:	e0683003 	rsb	r3, r8, r3
    a724:	e1540003 	cmp	r4, r3
    a728:	8afffffb 	bhi	a71c <sw_uart_getc_timeout+0x154>
    a72c:	e1a00007 	mov	r0, r7
    a730:	eb0001c9 	bl	ae5c <gpio_read>
    a734:	e1a00750 	asr	r0, r0, r7
    a738:	e1899380 	orr	r9, r9, r0, lsl #7
    a73c:	ebfffeb7 	bl	a220 <timer_get_usec_raw>
    a740:	e1a04000 	mov	r4, r0
    a744:	e1a00005 	mov	r0, r5
    a748:	eb0001c3 	bl	ae5c <gpio_read>
    a74c:	e3500000 	cmp	r0, #0
    a750:	0a000005 	beq	a76c <sw_uart_getc_timeout+0x1a4>
    a754:	ebfffeb1 	bl	a220 <timer_get_usec_raw>
    a758:	e0640000 	rsb	r0, r4, r0
    a75c:	e1560000 	cmp	r6, r0
    a760:	2afffff7 	bcs	a744 <sw_uart_getc_timeout+0x17c>
    a764:	e3a03000 	mov	r3, #0
    a768:	ea000000 	b	a770 <sw_uart_getc_timeout+0x1a8>
    a76c:	e3a03001 	mov	r3, #1
    a770:	e3530000 	cmp	r3, #0
    a774:	0a000003 	beq	a788 <sw_uart_getc_timeout+0x1c0>
    a778:	e1a00009 	mov	r0, r9
    a77c:	e8bd83f8 	pop	{r3, r4, r5, r6, r7, r8, r9, pc}
    a780:	e3e00000 	mvn	r0, #0
    a784:	e8bd83f8 	pop	{r3, r4, r5, r6, r7, r8, r9, pc}
    a788:	e3e00000 	mvn	r0, #0
    a78c:	e8bd83f8 	pop	{r3, r4, r5, r6, r7, r8, r9, pc}

0000a790 <sw_uart_gets_until>:
    a790:	e92d47f0 	push	{r4, r5, r6, r7, r8, r9, sl, lr}
    a794:	e1a08000 	mov	r8, r0
    a798:	e1a06001 	mov	r6, r1
    a79c:	e1a09003 	mov	r9, r3
    a7a0:	e59da020 	ldr	sl, [sp, #32]
    a7a4:	e3520000 	cmp	r2, #0
    a7a8:	1a000006 	bne	a7c8 <sw_uart_gets_until+0x38>
    a7ac:	ebfffce5 	bl	9b48 <rpi_reset_putc>
    a7b0:	e59f005c 	ldr	r0, [pc, #92]	; a814 <sw_uart_gets_until+0x84>
    a7b4:	e59f105c 	ldr	r1, [pc, #92]	; a818 <sw_uart_gets_until+0x88>
    a7b8:	e59f205c 	ldr	r2, [pc, #92]	; a81c <sw_uart_gets_until+0x8c>
    a7bc:	e3a0306d 	mov	r3, #109	; 0x6d
    a7c0:	ebfffcc5 	bl	9adc <printk>
    a7c4:	ebfffe3b 	bl	a0b8 <clean_reboot>
    a7c8:	e3a04000 	mov	r4, #0
    a7cc:	e5c14000 	strb	r4, [r1]
    a7d0:	e2427001 	sub	r7, r2, #1
    a7d4:	ea000007 	b	a7f8 <sw_uart_gets_until+0x68>
    a7d8:	e1a00008 	mov	r0, r8
    a7dc:	e1a0100a 	mov	r1, sl
    a7e0:	ebffff78 	bl	a5c8 <sw_uart_getc_timeout>
    a7e4:	e6ef0070 	uxtb	r0, r0
    a7e8:	e1500009 	cmp	r0, r9
    a7ec:	0a000004 	beq	a804 <sw_uart_gets_until+0x74>
    a7f0:	e7c60005 	strb	r0, [r6, r5]
    a7f4:	e2844001 	add	r4, r4, #1
    a7f8:	e1a05004 	mov	r5, r4
    a7fc:	e1540007 	cmp	r4, r7
    a800:	3afffff4 	bcc	a7d8 <sw_uart_gets_until+0x48>
    a804:	e3a03000 	mov	r3, #0
    a808:	e7c63005 	strb	r3, [r6, r5]
    a80c:	e1a00004 	mov	r0, r4
    a810:	e8bd87f0 	pop	{r4, r5, r6, r7, r8, r9, sl, pc}
    a814:	0000be2c 	andeq	fp, r0, ip, lsr #28
    a818:	0000be48 	andeq	fp, r0, r8, asr #28
    a81c:	0000bdb4 			; <UNDEFINED> instruction: 0x0000bdb4

0000a820 <sw_uart_gets_timeout>:
    a820:	e92d41f0 	push	{r4, r5, r6, r7, r8, lr}
    a824:	e1a07000 	mov	r7, r0
    a828:	e1a05001 	mov	r5, r1
    a82c:	e1a08003 	mov	r8, r3
    a830:	e3520000 	cmp	r2, #0
    a834:	1a000006 	bne	a854 <sw_uart_gets_timeout+0x34>
    a838:	ebfffcc2 	bl	9b48 <rpi_reset_putc>
    a83c:	e59f004c 	ldr	r0, [pc, #76]	; a890 <sw_uart_gets_timeout+0x70>
    a840:	e59f104c 	ldr	r1, [pc, #76]	; a894 <sw_uart_gets_timeout+0x74>
    a844:	e59f204c 	ldr	r2, [pc, #76]	; a898 <sw_uart_gets_timeout+0x78>
    a848:	e3a03083 	mov	r3, #131	; 0x83
    a84c:	ebfffca2 	bl	9adc <printk>
    a850:	ebfffe18 	bl	a0b8 <clean_reboot>
    a854:	e3a04000 	mov	r4, #0
    a858:	e5c14000 	strb	r4, [r1]
    a85c:	e2426001 	sub	r6, r2, #1
    a860:	ea000004 	b	a878 <sw_uart_gets_timeout+0x58>
    a864:	e1a00007 	mov	r0, r7
    a868:	e1a01008 	mov	r1, r8
    a86c:	ebffff55 	bl	a5c8 <sw_uart_getc_timeout>
    a870:	e7c50004 	strb	r0, [r5, r4]
    a874:	e2844001 	add	r4, r4, #1
    a878:	e1540006 	cmp	r4, r6
    a87c:	3afffff8 	bcc	a864 <sw_uart_gets_timeout+0x44>
    a880:	e3a03000 	mov	r3, #0
    a884:	e7c53004 	strb	r3, [r5, r4]
    a888:	e1a00004 	mov	r0, r4
    a88c:	e8bd81f0 	pop	{r4, r5, r6, r7, r8, pc}
    a890:	0000be2c 	andeq	fp, r0, ip, lsr #28
    a894:	0000be48 	andeq	fp, r0, r8, asr #28
    a898:	0000bdc8 	andeq	fp, r0, r8, asr #27

0000a89c <sw_uart_init_helper>:
    a89c:	e92d41f0 	push	{r4, r5, r6, r7, r8, lr}
    a8a0:	e1a04000 	mov	r4, r0
    a8a4:	e1a06001 	mov	r6, r1
    a8a8:	e1a08002 	mov	r8, r2
    a8ac:	e1a05003 	mov	r5, r3
    a8b0:	e59d7018 	ldr	r7, [sp, #24]
    a8b4:	e1a00001 	mov	r0, r1
    a8b8:	eb0000e3 	bl	ac4c <gpio_set_output>
    a8bc:	e1a00008 	mov	r0, r8
    a8c0:	eb000132 	bl	ad90 <gpio_set_input>
    a8c4:	e3a03001 	mov	r3, #1
    a8c8:	ee0f3f1c 	mcr	15, 0, r3, cr15, cr12, {0}
    a8cc:	e1a00006 	mov	r0, r6
    a8d0:	e3a01001 	mov	r1, #1
    a8d4:	eb000173 	bl	aea8 <gpio_write>
    a8d8:	e0020795 	mul	r2, r5, r7
    a8dc:	e59f3068 	ldr	r3, [pc, #104]	; a94c <sw_uart_init_helper+0xb0>
    a8e0:	e0653003 	rsb	r3, r5, r3
    a8e4:	e1530002 	cmp	r3, r2
    a8e8:	8a000005 	bhi	a904 <sw_uart_init_helper+0x68>
    a8ec:	e59f3058 	ldr	r3, [pc, #88]	; a94c <sw_uart_init_helper+0xb0>
    a8f0:	e0853003 	add	r3, r5, r3
    a8f4:	e1530002 	cmp	r3, r2
    a8f8:	2a000003 	bcs	a90c <sw_uart_init_helper+0x70>
    a8fc:	e3a03000 	mov	r3, #0
    a900:	ea000002 	b	a910 <sw_uart_init_helper+0x74>
    a904:	e3a03000 	mov	r3, #0
    a908:	ea000000 	b	a910 <sw_uart_init_helper+0x74>
    a90c:	e3a03001 	mov	r3, #1
    a910:	e3530000 	cmp	r3, #0
    a914:	1a000006 	bne	a934 <sw_uart_init_helper+0x98>
    a918:	ebfffc8a 	bl	9b48 <rpi_reset_putc>
    a91c:	e59f002c 	ldr	r0, [pc, #44]	; a950 <sw_uart_init_helper+0xb4>
    a920:	e59f102c 	ldr	r1, [pc, #44]	; a954 <sw_uart_init_helper+0xb8>
    a924:	e59f202c 	ldr	r2, [pc, #44]	; a958 <sw_uart_init_helper+0xbc>
    a928:	e3a0309d 	mov	r3, #157	; 0x9d
    a92c:	ebfffc6a 	bl	9adc <printk>
    a930:	ebfffde0 	bl	a0b8 <clean_reboot>
    a934:	e5c46000 	strb	r6, [r4]
    a938:	e5c48001 	strb	r8, [r4, #1]
    a93c:	e5845004 	str	r5, [r4, #4]
    a940:	e5847008 	str	r7, [r4, #8]
    a944:	e1a00004 	mov	r0, r4
    a948:	e8bd81f0 	pop	{r4, r5, r6, r7, r8, pc}
    a94c:	29b92700 	ldmibcs	r9!, {r8, r9, sl, sp}
    a950:	0000be5c 	andeq	fp, r0, ip, asr lr
    a954:	0000be48 	andeq	fp, r0, r8, asr #28
    a958:	0000bde0 	andeq	fp, r0, r0, ror #27

0000a95c <sw_uart_getc>:
    a95c:	e92d4008 	push	{r3, lr}
    a960:	e3e01000 	mvn	r1, #0
    a964:	ebffff17 	bl	a5c8 <sw_uart_getc_timeout>
    a968:	e3500000 	cmp	r0, #0
    a96c:	a8bd8008 	popge	{r3, pc}
    a970:	ebfffc74 	bl	9b48 <rpi_reset_putc>
    a974:	e59f0010 	ldr	r0, [pc, #16]	; a98c <sw_uart_getc+0x30>
    a978:	e59f1010 	ldr	r1, [pc, #16]	; a990 <sw_uart_getc+0x34>
    a97c:	e59f2010 	ldr	r2, [pc, #16]	; a994 <sw_uart_getc+0x38>
    a980:	e3a030ac 	mov	r3, #172	; 0xac
    a984:	ebfffc54 	bl	9adc <printk>
    a988:	ebfffdca 	bl	a0b8 <clean_reboot>
    a98c:	0000bea0 	andeq	fp, r0, r0, lsr #29
    a990:	0000be48 	andeq	fp, r0, r8, asr #28
    a994:	0000bdf4 	strdeq	fp, [r0], -r4

0000a998 <sw_uart_putk>:
    a998:	e92d4038 	push	{r3, r4, r5, lr}
    a99c:	e1a05000 	mov	r5, r0
    a9a0:	e1a04001 	mov	r4, r1
    a9a4:	ea000002 	b	a9b4 <sw_uart_putk+0x1c>
    a9a8:	e1a00005 	mov	r0, r5
    a9ac:	ebfffeb0 	bl	a474 <sw_uart_putc>
    a9b0:	e2844001 	add	r4, r4, #1
    a9b4:	e5d41000 	ldrb	r1, [r4]
    a9b8:	e3510000 	cmp	r1, #0
    a9bc:	1afffff9 	bne	a9a8 <sw_uart_putk+0x10>
    a9c0:	e8bd8038 	pop	{r3, r4, r5, pc}

0000a9c4 <sw_uart_printk>:
    a9c4:	e92d000e 	push	{r1, r2, r3}
    a9c8:	e92d4030 	push	{r4, r5, lr}
    a9cc:	e24dde1d 	sub	sp, sp, #464	; 0x1d0
    a9d0:	e1a05000 	mov	r5, r0
    a9d4:	e28d3e1e 	add	r3, sp, #480	; 0x1e0
    a9d8:	e58d3000 	str	r3, [sp]
    a9dc:	e28d0004 	add	r0, sp, #4
    a9e0:	e3a01f73 	mov	r1, #460	; 0x1cc
    a9e4:	e59d21dc 	ldr	r2, [sp, #476]	; 0x1dc
    a9e8:	ebfffd10 	bl	9e30 <va_printk>
    a9ec:	e1a04000 	mov	r4, r0
    a9f0:	e59f3040 	ldr	r3, [pc, #64]	; aa38 <sw_uart_printk+0x74>
    a9f4:	e1500003 	cmp	r0, r3
    a9f8:	9a000006 	bls	aa18 <sw_uart_printk+0x54>
    a9fc:	ebfffc51 	bl	9b48 <rpi_reset_putc>
    aa00:	e59f0034 	ldr	r0, [pc, #52]	; aa3c <sw_uart_printk+0x78>
    aa04:	e59f1034 	ldr	r1, [pc, #52]	; aa40 <sw_uart_printk+0x7c>
    aa08:	e59f2034 	ldr	r2, [pc, #52]	; aa44 <sw_uart_printk+0x80>
    aa0c:	e3a030c0 	mov	r3, #192	; 0xc0
    aa10:	ebfffc31 	bl	9adc <printk>
    aa14:	ebfffda7 	bl	a0b8 <clean_reboot>
    aa18:	e1a00005 	mov	r0, r5
    aa1c:	e28d1004 	add	r1, sp, #4
    aa20:	ebffffdc 	bl	a998 <sw_uart_putk>
    aa24:	e1a00004 	mov	r0, r4
    aa28:	e28dde1d 	add	sp, sp, #464	; 0x1d0
    aa2c:	e8bd4030 	pop	{r4, r5, lr}
    aa30:	e28dd00c 	add	sp, sp, #12
    aa34:	e12fff1e 	bx	lr
    aa38:	000001ca 	andeq	r0, r0, sl, asr #3
    aa3c:	0000bed8 	ldrdeq	fp, [r0], -r8
    aa40:	0000be48 	andeq	fp, r0, r8, asr #28
    aa44:	0000be04 	andeq	fp, r0, r4, lsl #28

0000aa48 <sw_uart_gets_until_blk>:
    aa48:	e52de004 	push	{lr}		; (str lr, [sp, #-4]!)
    aa4c:	e24dd00c 	sub	sp, sp, #12
    aa50:	e3e0c000 	mvn	ip, #0
    aa54:	e58dc000 	str	ip, [sp]
    aa58:	ebffff4c 	bl	a790 <sw_uart_gets_until>
    aa5c:	e3500000 	cmp	r0, #0
    aa60:	aa000006 	bge	aa80 <sw_uart_gets_until_blk+0x38>
    aa64:	ebfffc37 	bl	9b48 <rpi_reset_putc>
    aa68:	e59f0018 	ldr	r0, [pc, #24]	; aa88 <sw_uart_gets_until_blk+0x40>
    aa6c:	e59f1018 	ldr	r1, [pc, #24]	; aa8c <sw_uart_gets_until_blk+0x44>
    aa70:	e59f2018 	ldr	r2, [pc, #24]	; aa90 <sw_uart_gets_until_blk+0x48>
    aa74:	e3a030c8 	mov	r3, #200	; 0xc8
    aa78:	ebfffc17 	bl	9adc <printk>
    aa7c:	ebfffd8d 	bl	a0b8 <clean_reboot>
    aa80:	e28dd00c 	add	sp, sp, #12
    aa84:	e49df004 	pop	{pc}		; (ldr pc, [sp], #4)
    aa88:	0000bea0 	andeq	fp, r0, r0, lsr #29
    aa8c:	0000be48 	andeq	fp, r0, r8, asr #28
    aa90:	0000be14 	andeq	fp, r0, r4, lsl lr

0000aa94 <uart_init>:
    aa94:	e92d4038 	push	{r3, r4, r5, lr}
    aa98:	eb000052 	bl	abe8 <dev_barrier>
    aa9c:	e3a0000e 	mov	r0, #14
    aaa0:	e3a01002 	mov	r1, #2
    aaa4:	eb000108 	bl	aecc <gpio_set_function>
    aaa8:	e3a0000f 	mov	r0, #15
    aaac:	e3a01002 	mov	r1, #2
    aab0:	eb000105 	bl	aecc <gpio_set_function>
    aab4:	eb00004b 	bl	abe8 <dev_barrier>
    aab8:	e59f4068 	ldr	r4, [pc, #104]	; ab28 <uart_init+0x94>
    aabc:	e5945000 	ldr	r5, [r4]
    aac0:	e1a00005 	mov	r0, r5
    aac4:	eb000059 	bl	ac30 <get32>
    aac8:	e3801001 	orr	r1, r0, #1
    aacc:	e1a00005 	mov	r0, r5
    aad0:	eb00004a 	bl	ac00 <put32>
    aad4:	eb000043 	bl	abe8 <dev_barrier>
    aad8:	e5940004 	ldr	r0, [r4, #4]
    aadc:	e3a01000 	mov	r1, #0
    aae0:	eb000046 	bl	ac00 <put32>
    aae4:	e5940008 	ldr	r0, [r4, #8]
    aae8:	e3a01000 	mov	r1, #0
    aaec:	eb000043 	bl	ac00 <put32>
    aaf0:	e594000c 	ldr	r0, [r4, #12]
    aaf4:	e3a01006 	mov	r1, #6
    aaf8:	eb000040 	bl	ac00 <put32>
    aafc:	e5940010 	ldr	r0, [r4, #16]
    ab00:	e3a01003 	mov	r1, #3
    ab04:	eb00003d 	bl	ac00 <put32>
    ab08:	e5940014 	ldr	r0, [r4, #20]
    ab0c:	e59f1018 	ldr	r1, [pc, #24]	; ab2c <uart_init+0x98>
    ab10:	eb00003a 	bl	ac00 <put32>
    ab14:	e5940004 	ldr	r0, [r4, #4]
    ab18:	e3a01003 	mov	r1, #3
    ab1c:	eb000037 	bl	ac00 <put32>
    ab20:	eb000030 	bl	abe8 <dev_barrier>
    ab24:	e8bd8038 	pop	{r3, r4, r5, pc}
    ab28:	0000b22c 	andeq	fp, r0, ip, lsr #4
    ab2c:	0000010e 	andeq	r0, r0, lr, lsl #2

0000ab30 <uart_can_getc>:
    ab30:	e92d4008 	push	{r3, lr}
    ab34:	e59f300c 	ldr	r3, [pc, #12]	; ab48 <uart_can_getc+0x18>
    ab38:	e5930018 	ldr	r0, [r3, #24]
    ab3c:	eb00003b 	bl	ac30 <get32>
    ab40:	e2000001 	and	r0, r0, #1
    ab44:	e8bd8008 	pop	{r3, pc}
    ab48:	0000b22c 	andeq	fp, r0, ip, lsr #4

0000ab4c <uart_getc>:
    ab4c:	e92d4008 	push	{r3, lr}
    ab50:	ebfffff6 	bl	ab30 <uart_can_getc>
    ab54:	e3500000 	cmp	r0, #0
    ab58:	0afffffc 	beq	ab50 <uart_getc+0x4>
    ab5c:	e59f300c 	ldr	r3, [pc, #12]	; ab70 <uart_getc+0x24>
    ab60:	e593001c 	ldr	r0, [r3, #28]
    ab64:	eb000031 	bl	ac30 <get32>
    ab68:	e6ef0070 	uxtb	r0, r0
    ab6c:	e8bd8008 	pop	{r3, pc}
    ab70:	0000b22c 	andeq	fp, r0, ip, lsr #4

0000ab74 <uart_can_putc>:
    ab74:	e92d4008 	push	{r3, lr}
    ab78:	e59f300c 	ldr	r3, [pc, #12]	; ab8c <uart_can_putc+0x18>
    ab7c:	e5930018 	ldr	r0, [r3, #24]
    ab80:	eb00002a 	bl	ac30 <get32>
    ab84:	e2000020 	and	r0, r0, #32
    ab88:	e8bd8008 	pop	{r3, pc}
    ab8c:	0000b22c 	andeq	fp, r0, ip, lsr #4

0000ab90 <uart_putc>:
    ab90:	e92d4010 	push	{r4, lr}
    ab94:	e1a04000 	mov	r4, r0
    ab98:	ebfffff5 	bl	ab74 <uart_can_putc>
    ab9c:	e3500000 	cmp	r0, #0
    aba0:	0afffffc 	beq	ab98 <uart_putc+0x8>
    aba4:	e59f300c 	ldr	r3, [pc, #12]	; abb8 <uart_putc+0x28>
    aba8:	e593001c 	ldr	r0, [r3, #28]
    abac:	e1a01004 	mov	r1, r4
    abb0:	eb000012 	bl	ac00 <put32>
    abb4:	e8bd8010 	pop	{r4, pc}
    abb8:	0000b22c 	andeq	fp, r0, ip, lsr #4

0000abbc <uart_has_data>:
    abbc:	e92d4008 	push	{r3, lr}
    abc0:	ebffffda 	bl	ab30 <uart_can_getc>
    abc4:	e8bd8008 	pop	{r3, pc}

0000abc8 <uart_getc_async>:
    abc8:	e92d4008 	push	{r3, lr}
    abcc:	ebfffffa 	bl	abbc <uart_has_data>
    abd0:	e3500000 	cmp	r0, #0
    abd4:	0a000001 	beq	abe0 <uart_getc_async+0x18>
    abd8:	ebffffdb 	bl	ab4c <uart_getc>
    abdc:	e8bd8008 	pop	{r3, pc}
    abe0:	e3e00000 	mvn	r0, #0
    abe4:	e8bd8008 	pop	{r3, pc}

0000abe8 <dev_barrier>:
    abe8:	ea000002 	b	abf8 <dsb>

0000abec <dmb>:
    abec:	e3a00000 	mov	r0, #0
    abf0:	ee070fba 	mcr	15, 0, r0, cr7, cr10, {5}
    abf4:	e12fff1e 	bx	lr

0000abf8 <dsb>:
    abf8:	ee070f9a 	mcr	15, 0, r0, cr7, cr10, {4}
    abfc:	e12fff1e 	bx	lr

0000ac00 <put32>:
    ac00:	e5801000 	str	r1, [r0]
    ac04:	e12fff1e 	bx	lr

0000ac08 <PUT32>:
    ac08:	e5801000 	str	r1, [r0]
    ac0c:	e12fff1e 	bx	lr

0000ac10 <put16>:
    ac10:	e1c010b0 	strh	r1, [r0]
    ac14:	e12fff1e 	bx	lr

0000ac18 <PUT16>:
    ac18:	e1c010b0 	strh	r1, [r0]
    ac1c:	e12fff1e 	bx	lr

0000ac20 <put8>:
    ac20:	e5c01000 	strb	r1, [r0]
    ac24:	e12fff1e 	bx	lr

0000ac28 <PUT8>:
    ac28:	e5c01000 	strb	r1, [r0]
    ac2c:	e12fff1e 	bx	lr

0000ac30 <get32>:
    ac30:	e5900000 	ldr	r0, [r0]
    ac34:	e12fff1e 	bx	lr

0000ac38 <GET32>:
    ac38:	e5900000 	ldr	r0, [r0]
    ac3c:	e12fff1e 	bx	lr

0000ac40 <GETPC>:
    ac40:	e1a0000e 	mov	r0, lr
    ac44:	e12fff1e 	bx	lr

0000ac48 <dummy>:
    ac48:	e12fff1e 	bx	lr

0000ac4c <gpio_set_output>:
    ac4c:	e92d4038 	push	{r3, r4, r5, lr}
    ac50:	e1a04000 	mov	r4, r0
    ac54:	e350001f 	cmp	r0, #31
    ac58:	88bd8038 	pophi	{r3, r4, r5, pc}
    ac5c:	e59f30b4 	ldr	r3, [pc, #180]	; ad18 <gpio_set_output+0xcc>
    ac60:	e0832093 	umull	r2, r3, r3, r0
    ac64:	e1a031a3 	lsr	r3, r3, #3
    ac68:	e3530005 	cmp	r3, #5
    ac6c:	979ff103 	ldrls	pc, [pc, r3, lsl #2]
    ac70:	ea000017 	b	acd4 <gpio_set_output+0x88>
    ac74:	0000ac8c 	andeq	sl, r0, ip, lsl #25
    ac78:	0000ac98 	muleq	r0, r8, ip
    ac7c:	0000aca4 	andeq	sl, r0, r4, lsr #25
    ac80:	0000acb0 			; <UNDEFINED> instruction: 0x0000acb0
    ac84:	0000acbc 			; <UNDEFINED> instruction: 0x0000acbc
    ac88:	0000acc8 	andeq	sl, r0, r8, asr #25
    ac8c:	e59f3088 	ldr	r3, [pc, #136]	; ad1c <gpio_set_output+0xd0>
    ac90:	e5935000 	ldr	r5, [r3]
    ac94:	ea00000f 	b	acd8 <gpio_set_output+0x8c>
    ac98:	e59f307c 	ldr	r3, [pc, #124]	; ad1c <gpio_set_output+0xd0>
    ac9c:	e5935004 	ldr	r5, [r3, #4]
    aca0:	ea00000c 	b	acd8 <gpio_set_output+0x8c>
    aca4:	e59f3070 	ldr	r3, [pc, #112]	; ad1c <gpio_set_output+0xd0>
    aca8:	e5935008 	ldr	r5, [r3, #8]
    acac:	ea000009 	b	acd8 <gpio_set_output+0x8c>
    acb0:	e59f3064 	ldr	r3, [pc, #100]	; ad1c <gpio_set_output+0xd0>
    acb4:	e593500c 	ldr	r5, [r3, #12]
    acb8:	ea000006 	b	acd8 <gpio_set_output+0x8c>
    acbc:	e59f3058 	ldr	r3, [pc, #88]	; ad1c <gpio_set_output+0xd0>
    acc0:	e5935010 	ldr	r5, [r3, #16]
    acc4:	ea000003 	b	acd8 <gpio_set_output+0x8c>
    acc8:	e59f304c 	ldr	r3, [pc, #76]	; ad1c <gpio_set_output+0xd0>
    accc:	e5935014 	ldr	r5, [r3, #20]
    acd0:	ea000000 	b	acd8 <gpio_set_output+0x8c>
    acd4:	e3a05000 	mov	r5, #0
    acd8:	e1a00005 	mov	r0, r5
    acdc:	ebffffd3 	bl	ac30 <get32>
    ace0:	e59f1030 	ldr	r1, [pc, #48]	; ad18 <gpio_set_output+0xcc>
    ace4:	e0813491 	umull	r3, r1, r1, r4
    ace8:	e1a011a1 	lsr	r1, r1, #3
    acec:	e0811101 	add	r1, r1, r1, lsl #2
    acf0:	e1a01081 	lsl	r1, r1, #1
    acf4:	e0611004 	rsb	r1, r1, r4
    acf8:	e0811081 	add	r1, r1, r1, lsl #1
    acfc:	e3a03007 	mov	r3, #7
    ad00:	e1c03113 	bic	r3, r0, r3, lsl r1
    ad04:	e1a00005 	mov	r0, r5
    ad08:	e3a02001 	mov	r2, #1
    ad0c:	e1831112 	orr	r1, r3, r2, lsl r1
    ad10:	ebffffba 	bl	ac00 <put32>
    ad14:	e8bd8038 	pop	{r3, r4, r5, pc}
    ad18:	cccccccd 	stclgt	12, cr12, [ip], {205}	; 0xcd
    ad1c:	0000b260 	andeq	fp, r0, r0, ror #4

0000ad20 <gpio_set_on>:
    ad20:	e92d4008 	push	{r3, lr}
    ad24:	e350001f 	cmp	r0, #31
    ad28:	88bd8008 	pophi	{r3, pc}
    ad2c:	959f3020 	ldrls	r3, [pc, #32]	; ad54 <gpio_set_on+0x34>
    ad30:	95932018 	ldrls	r2, [r3, #24]
    ad34:	859f3018 	ldrhi	r3, [pc, #24]	; ad54 <gpio_set_on+0x34>
    ad38:	8593201c 	ldrhi	r2, [r3, #28]
    ad3c:	e200301f 	and	r3, r0, #31
    ad40:	e1a00002 	mov	r0, r2
    ad44:	e3a01001 	mov	r1, #1
    ad48:	e1a01311 	lsl	r1, r1, r3
    ad4c:	ebffffab 	bl	ac00 <put32>
    ad50:	e8bd8008 	pop	{r3, pc}
    ad54:	0000b260 	andeq	fp, r0, r0, ror #4

0000ad58 <gpio_set_off>:
    ad58:	e92d4008 	push	{r3, lr}
    ad5c:	e350001f 	cmp	r0, #31
    ad60:	88bd8008 	pophi	{r3, pc}
    ad64:	959f3020 	ldrls	r3, [pc, #32]	; ad8c <gpio_set_off+0x34>
    ad68:	95932020 	ldrls	r2, [r3, #32]
    ad6c:	859f3018 	ldrhi	r3, [pc, #24]	; ad8c <gpio_set_off+0x34>
    ad70:	85932024 	ldrhi	r2, [r3, #36]	; 0x24
    ad74:	e200301f 	and	r3, r0, #31
    ad78:	e1a00002 	mov	r0, r2
    ad7c:	e3a01001 	mov	r1, #1
    ad80:	e1a01311 	lsl	r1, r1, r3
    ad84:	ebffff9d 	bl	ac00 <put32>
    ad88:	e8bd8008 	pop	{r3, pc}
    ad8c:	0000b260 	andeq	fp, r0, r0, ror #4

0000ad90 <gpio_set_input>:
    ad90:	e92d4038 	push	{r3, r4, r5, lr}
    ad94:	e1a04000 	mov	r4, r0
    ad98:	e350001f 	cmp	r0, #31
    ad9c:	88bd8038 	pophi	{r3, r4, r5, pc}
    ada0:	e59f30ac 	ldr	r3, [pc, #172]	; ae54 <gpio_set_input+0xc4>
    ada4:	e0832093 	umull	r2, r3, r3, r0
    ada8:	e1a031a3 	lsr	r3, r3, #3
    adac:	e3530005 	cmp	r3, #5
    adb0:	979ff103 	ldrls	pc, [pc, r3, lsl #2]
    adb4:	ea000017 	b	ae18 <gpio_set_input+0x88>
    adb8:	0000add0 	ldrdeq	sl, [r0], -r0
    adbc:	0000addc 	ldrdeq	sl, [r0], -ip
    adc0:	0000ade8 	andeq	sl, r0, r8, ror #27
    adc4:	0000adf4 	strdeq	sl, [r0], -r4
    adc8:	0000ae00 	andeq	sl, r0, r0, lsl #28
    adcc:	0000ae0c 	andeq	sl, r0, ip, lsl #28
    add0:	e59f3080 	ldr	r3, [pc, #128]	; ae58 <gpio_set_input+0xc8>
    add4:	e5935000 	ldr	r5, [r3]
    add8:	ea00000f 	b	ae1c <gpio_set_input+0x8c>
    addc:	e59f3074 	ldr	r3, [pc, #116]	; ae58 <gpio_set_input+0xc8>
    ade0:	e5935004 	ldr	r5, [r3, #4]
    ade4:	ea00000c 	b	ae1c <gpio_set_input+0x8c>
    ade8:	e59f3068 	ldr	r3, [pc, #104]	; ae58 <gpio_set_input+0xc8>
    adec:	e5935008 	ldr	r5, [r3, #8]
    adf0:	ea000009 	b	ae1c <gpio_set_input+0x8c>
    adf4:	e59f305c 	ldr	r3, [pc, #92]	; ae58 <gpio_set_input+0xc8>
    adf8:	e593500c 	ldr	r5, [r3, #12]
    adfc:	ea000006 	b	ae1c <gpio_set_input+0x8c>
    ae00:	e59f3050 	ldr	r3, [pc, #80]	; ae58 <gpio_set_input+0xc8>
    ae04:	e5935010 	ldr	r5, [r3, #16]
    ae08:	ea000003 	b	ae1c <gpio_set_input+0x8c>
    ae0c:	e59f3044 	ldr	r3, [pc, #68]	; ae58 <gpio_set_input+0xc8>
    ae10:	e5935014 	ldr	r5, [r3, #20]
    ae14:	ea000000 	b	ae1c <gpio_set_input+0x8c>
    ae18:	e3a05000 	mov	r5, #0
    ae1c:	e1a00005 	mov	r0, r5
    ae20:	ebffff82 	bl	ac30 <get32>
    ae24:	e59f1028 	ldr	r1, [pc, #40]	; ae54 <gpio_set_input+0xc4>
    ae28:	e0813491 	umull	r3, r1, r1, r4
    ae2c:	e1a011a1 	lsr	r1, r1, #3
    ae30:	e0811101 	add	r1, r1, r1, lsl #2
    ae34:	e1a01081 	lsl	r1, r1, #1
    ae38:	e0611004 	rsb	r1, r1, r4
    ae3c:	e0811081 	add	r1, r1, r1, lsl #1
    ae40:	e3a03007 	mov	r3, #7
    ae44:	e1c01113 	bic	r1, r0, r3, lsl r1
    ae48:	e1a00005 	mov	r0, r5
    ae4c:	ebffff6b 	bl	ac00 <put32>
    ae50:	e8bd8038 	pop	{r3, r4, r5, pc}
    ae54:	cccccccd 	stclgt	12, cr12, [ip], {205}	; 0xcd
    ae58:	0000b260 	andeq	fp, r0, r0, ror #4

0000ae5c <gpio_read>:
    ae5c:	e92d4010 	push	{r4, lr}
    ae60:	e1a04000 	mov	r4, r0
    ae64:	e350001f 	cmp	r0, #31
    ae68:	8a00000b 	bhi	ae9c <gpio_read+0x40>
    ae6c:	8a000003 	bhi	ae80 <gpio_read+0x24>
    ae70:	e59f302c 	ldr	r3, [pc, #44]	; aea4 <gpio_read+0x48>
    ae74:	e5930028 	ldr	r0, [r3, #40]	; 0x28
    ae78:	ebffff6c 	bl	ac30 <get32>
    ae7c:	ea000002 	b	ae8c <gpio_read+0x30>
    ae80:	e59f301c 	ldr	r3, [pc, #28]	; aea4 <gpio_read+0x48>
    ae84:	e593002c 	ldr	r0, [r3, #44]	; 0x2c
    ae88:	ebffff68 	bl	ac30 <get32>
    ae8c:	e204401f 	and	r4, r4, #31
    ae90:	e3a03001 	mov	r3, #1
    ae94:	e0000413 	and	r0, r0, r3, lsl r4
    ae98:	e8bd8010 	pop	{r4, pc}
    ae9c:	e3e00000 	mvn	r0, #0
    aea0:	e8bd8010 	pop	{r4, pc}
    aea4:	0000b260 	andeq	fp, r0, r0, ror #4

0000aea8 <gpio_write>:
    aea8:	e92d4008 	push	{r3, lr}
    aeac:	e350001f 	cmp	r0, #31
    aeb0:	88bd8008 	pophi	{r3, pc}
    aeb4:	e3510000 	cmp	r1, #0
    aeb8:	0a000001 	beq	aec4 <gpio_write+0x1c>
    aebc:	ebffff97 	bl	ad20 <gpio_set_on>
    aec0:	e8bd8008 	pop	{r3, pc}
    aec4:	ebffffa3 	bl	ad58 <gpio_set_off>
    aec8:	e8bd8008 	pop	{r3, pc}

0000aecc <gpio_set_function>:
    aecc:	e92d4070 	push	{r4, r5, r6, lr}
    aed0:	e1a04000 	mov	r4, r0
    aed4:	e1a05001 	mov	r5, r1
    aed8:	e3510007 	cmp	r1, #7
    aedc:	9350001f 	cmpls	r0, #31
    aee0:	88bd8070 	pophi	{r4, r5, r6, pc}
    aee4:	e59f30b0 	ldr	r3, [pc, #176]	; af9c <gpio_set_function+0xd0>
    aee8:	e0832093 	umull	r2, r3, r3, r0
    aeec:	e1a031a3 	lsr	r3, r3, #3
    aef0:	e3530005 	cmp	r3, #5
    aef4:	979ff103 	ldrls	pc, [pc, r3, lsl #2]
    aef8:	ea000017 	b	af5c <gpio_set_function+0x90>
    aefc:	0000af14 	andeq	sl, r0, r4, lsl pc
    af00:	0000af20 	andeq	sl, r0, r0, lsr #30
    af04:	0000af2c 	andeq	sl, r0, ip, lsr #30
    af08:	0000af38 	andeq	sl, r0, r8, lsr pc
    af0c:	0000af44 	andeq	sl, r0, r4, asr #30
    af10:	0000af50 	andeq	sl, r0, r0, asr pc
    af14:	e59f3084 	ldr	r3, [pc, #132]	; afa0 <gpio_set_function+0xd4>
    af18:	e5936000 	ldr	r6, [r3]
    af1c:	ea00000f 	b	af60 <gpio_set_function+0x94>
    af20:	e59f3078 	ldr	r3, [pc, #120]	; afa0 <gpio_set_function+0xd4>
    af24:	e5936004 	ldr	r6, [r3, #4]
    af28:	ea00000c 	b	af60 <gpio_set_function+0x94>
    af2c:	e59f306c 	ldr	r3, [pc, #108]	; afa0 <gpio_set_function+0xd4>
    af30:	e5936008 	ldr	r6, [r3, #8]
    af34:	ea000009 	b	af60 <gpio_set_function+0x94>
    af38:	e59f3060 	ldr	r3, [pc, #96]	; afa0 <gpio_set_function+0xd4>
    af3c:	e593600c 	ldr	r6, [r3, #12]
    af40:	ea000006 	b	af60 <gpio_set_function+0x94>
    af44:	e59f3054 	ldr	r3, [pc, #84]	; afa0 <gpio_set_function+0xd4>
    af48:	e5936010 	ldr	r6, [r3, #16]
    af4c:	ea000003 	b	af60 <gpio_set_function+0x94>
    af50:	e59f3048 	ldr	r3, [pc, #72]	; afa0 <gpio_set_function+0xd4>
    af54:	e5936014 	ldr	r6, [r3, #20]
    af58:	ea000000 	b	af60 <gpio_set_function+0x94>
    af5c:	e3a06000 	mov	r6, #0
    af60:	e1a00006 	mov	r0, r6
    af64:	ebffff31 	bl	ac30 <get32>
    af68:	e59f302c 	ldr	r3, [pc, #44]	; af9c <gpio_set_function+0xd0>
    af6c:	e0832493 	umull	r2, r3, r3, r4
    af70:	e1a031a3 	lsr	r3, r3, #3
    af74:	e0833103 	add	r3, r3, r3, lsl #2
    af78:	e1a03083 	lsl	r3, r3, #1
    af7c:	e0633004 	rsb	r3, r3, r4
    af80:	e0833083 	add	r3, r3, r3, lsl #1
    af84:	e3a01007 	mov	r1, #7
    af88:	e1c01311 	bic	r1, r0, r1, lsl r3
    af8c:	e1a00006 	mov	r0, r6
    af90:	e1811315 	orr	r1, r1, r5, lsl r3
    af94:	ebffff19 	bl	ac00 <put32>
    af98:	e8bd8070 	pop	{r4, r5, r6, pc}
    af9c:	cccccccd 	stclgt	12, cr12, [ip], {205}	; 0xcd
    afa0:	0000b260 	andeq	fp, r0, r0, ror #4

0000afa4 <is_gpio_int>:
    afa4:	e92d4008 	push	{r3, lr}
    afa8:	e59f301c 	ldr	r3, [pc, #28]	; afcc <is_gpio_int+0x28>
    afac:	e5930030 	ldr	r0, [r3, #48]	; 0x30
    afb0:	ebffff1e 	bl	ac30 <get32>
    afb4:	e3500000 	cmp	r0, #0
    afb8:	0a000001 	beq	afc4 <is_gpio_int+0x20>
    afbc:	e3a00001 	mov	r0, #1
    afc0:	e8bd8008 	pop	{r3, pc}
    afc4:	e3a00000 	mov	r0, #0
    afc8:	e8bd8008 	pop	{r3, pc}
    afcc:	0000b260 	andeq	fp, r0, r0, ror #4

0000afd0 <gpio_int_rising_edge>:
    afd0:	e92d4038 	push	{r3, r4, r5, lr}
    afd4:	e1a04000 	mov	r4, r0
    afd8:	e350001f 	cmp	r0, #31
    afdc:	88bd8038 	pophi	{r3, r4, r5, pc}
    afe0:	ebffff00 	bl	abe8 <dev_barrier>
    afe4:	e354001f 	cmp	r4, #31
    afe8:	8a000007 	bhi	b00c <gpio_int_rising_edge+0x3c>
    afec:	e59f505c 	ldr	r5, [pc, #92]	; b050 <gpio_int_rising_edge+0x80>
    aff0:	e5950034 	ldr	r0, [r5, #52]	; 0x34
    aff4:	ebffff0d 	bl	ac30 <get32>
    aff8:	e3a01001 	mov	r1, #1
    affc:	e1801411 	orr	r1, r0, r1, lsl r4
    b000:	e5950034 	ldr	r0, [r5, #52]	; 0x34
    b004:	ebfffefd 	bl	ac00 <put32>
    b008:	ea000007 	b	b02c <gpio_int_rising_edge+0x5c>
    b00c:	e59f503c 	ldr	r5, [pc, #60]	; b050 <gpio_int_rising_edge+0x80>
    b010:	e5950038 	ldr	r0, [r5, #56]	; 0x38
    b014:	ebffff05 	bl	ac30 <get32>
    b018:	e204401f 	and	r4, r4, #31
    b01c:	e3a01001 	mov	r1, #1
    b020:	e1801411 	orr	r1, r0, r1, lsl r4
    b024:	e5950038 	ldr	r0, [r5, #56]	; 0x38
    b028:	ebfffef4 	bl	ac00 <put32>
    b02c:	ebfffeed 	bl	abe8 <dev_barrier>
    b030:	e59f4018 	ldr	r4, [pc, #24]	; b050 <gpio_int_rising_edge+0x80>
    b034:	e594003c 	ldr	r0, [r4, #60]	; 0x3c
    b038:	ebfffefc 	bl	ac30 <get32>
    b03c:	e3801802 	orr	r1, r0, #131072	; 0x20000
    b040:	e594003c 	ldr	r0, [r4, #60]	; 0x3c
    b044:	ebfffeed 	bl	ac00 <put32>
    b048:	ebfffee6 	bl	abe8 <dev_barrier>
    b04c:	e8bd8038 	pop	{r3, r4, r5, pc}
    b050:	0000b260 	andeq	fp, r0, r0, ror #4

0000b054 <gpio_int_falling_edge>:
    b054:	e92d4038 	push	{r3, r4, r5, lr}
    b058:	e1a04000 	mov	r4, r0
    b05c:	e350001f 	cmp	r0, #31
    b060:	88bd8038 	pophi	{r3, r4, r5, pc}
    b064:	ebfffedf 	bl	abe8 <dev_barrier>
    b068:	e354001f 	cmp	r4, #31
    b06c:	8a000007 	bhi	b090 <gpio_int_falling_edge+0x3c>
    b070:	e59f505c 	ldr	r5, [pc, #92]	; b0d4 <gpio_int_falling_edge+0x80>
    b074:	e5950040 	ldr	r0, [r5, #64]	; 0x40
    b078:	ebfffeec 	bl	ac30 <get32>
    b07c:	e3a01001 	mov	r1, #1
    b080:	e1801411 	orr	r1, r0, r1, lsl r4
    b084:	e5950040 	ldr	r0, [r5, #64]	; 0x40
    b088:	ebfffedc 	bl	ac00 <put32>
    b08c:	ea000007 	b	b0b0 <gpio_int_falling_edge+0x5c>
    b090:	e59f503c 	ldr	r5, [pc, #60]	; b0d4 <gpio_int_falling_edge+0x80>
    b094:	e5950044 	ldr	r0, [r5, #68]	; 0x44
    b098:	ebfffee4 	bl	ac30 <get32>
    b09c:	e204401f 	and	r4, r4, #31
    b0a0:	e3a01001 	mov	r1, #1
    b0a4:	e1801411 	orr	r1, r0, r1, lsl r4
    b0a8:	e5950044 	ldr	r0, [r5, #68]	; 0x44
    b0ac:	ebfffed3 	bl	ac00 <put32>
    b0b0:	ebfffecc 	bl	abe8 <dev_barrier>
    b0b4:	e59f4018 	ldr	r4, [pc, #24]	; b0d4 <gpio_int_falling_edge+0x80>
    b0b8:	e594003c 	ldr	r0, [r4, #60]	; 0x3c
    b0bc:	ebfffedb 	bl	ac30 <get32>
    b0c0:	e3801601 	orr	r1, r0, #1048576	; 0x100000
    b0c4:	e594003c 	ldr	r0, [r4, #60]	; 0x3c
    b0c8:	ebfffecc 	bl	ac00 <put32>
    b0cc:	ebfffec5 	bl	abe8 <dev_barrier>
    b0d0:	e8bd8038 	pop	{r3, r4, r5, pc}
    b0d4:	0000b260 	andeq	fp, r0, r0, ror #4

0000b0d8 <gpio_event_detected>:
    b0d8:	e92d4010 	push	{r4, lr}
    b0dc:	e1a04000 	mov	r4, r0
    b0e0:	e350001f 	cmp	r0, #31
    b0e4:	8a000019 	bhi	b150 <gpio_event_detected+0x78>
    b0e8:	ebfffebe 	bl	abe8 <dev_barrier>
    b0ec:	e354001f 	cmp	r4, #31
    b0f0:	8a000008 	bhi	b118 <gpio_event_detected+0x40>
    b0f4:	e59f305c 	ldr	r3, [pc, #92]	; b158 <gpio_event_detected+0x80>
    b0f8:	e5930048 	ldr	r0, [r3, #72]	; 0x48
    b0fc:	ebfffecb 	bl	ac30 <get32>
    b100:	e3a03001 	mov	r3, #1
    b104:	e0103413 	ands	r3, r0, r3, lsl r4
    b108:	0a00000d 	beq	b144 <gpio_event_detected+0x6c>
    b10c:	ebfffeb5 	bl	abe8 <dev_barrier>
    b110:	e3a00001 	mov	r0, #1
    b114:	e8bd8010 	pop	{r4, pc}
    b118:	e59f3038 	ldr	r3, [pc, #56]	; b158 <gpio_event_detected+0x80>
    b11c:	e593004c 	ldr	r0, [r3, #76]	; 0x4c
    b120:	ebfffec2 	bl	ac30 <get32>
    b124:	e3a03001 	mov	r3, #1
    b128:	e0004413 	and	r4, r0, r3, lsl r4
    b12c:	ebfffead 	bl	abe8 <dev_barrier>
    b130:	e3540000 	cmp	r4, #0
    b134:	0a000002 	beq	b144 <gpio_event_detected+0x6c>
    b138:	ebfffeaa 	bl	abe8 <dev_barrier>
    b13c:	e3a00001 	mov	r0, #1
    b140:	e8bd8010 	pop	{r4, pc}
    b144:	ebfffea7 	bl	abe8 <dev_barrier>
    b148:	e3a00000 	mov	r0, #0
    b14c:	e8bd8010 	pop	{r4, pc}
    b150:	e3e00000 	mvn	r0, #0
    b154:	e8bd8010 	pop	{r4, pc}
    b158:	0000b260 	andeq	fp, r0, r0, ror #4

0000b15c <gpio_event_clear>:
    b15c:	e92d4010 	push	{r4, lr}
    b160:	e1a04000 	mov	r4, r0
    b164:	e350001f 	cmp	r0, #31
    b168:	88bd8010 	pophi	{r4, pc}
    b16c:	ebfffe9d 	bl	abe8 <dev_barrier>
    b170:	e354001f 	cmp	r4, #31
    b174:	8a000005 	bhi	b190 <gpio_event_clear+0x34>
    b178:	e59f3030 	ldr	r3, [pc, #48]	; b1b0 <gpio_event_clear+0x54>
    b17c:	e5930048 	ldr	r0, [r3, #72]	; 0x48
    b180:	e3a01001 	mov	r1, #1
    b184:	e1a01411 	lsl	r1, r1, r4
    b188:	ebfffe9c 	bl	ac00 <put32>
    b18c:	ea000005 	b	b1a8 <gpio_event_clear+0x4c>
    b190:	e204401f 	and	r4, r4, #31
    b194:	e59f3014 	ldr	r3, [pc, #20]	; b1b0 <gpio_event_clear+0x54>
    b198:	e593004c 	ldr	r0, [r3, #76]	; 0x4c
    b19c:	e3a01001 	mov	r1, #1
    b1a0:	e1a01411 	lsl	r1, r1, r4
    b1a4:	ebfffe95 	bl	ac00 <put32>
    b1a8:	ebfffe8e 	bl	abe8 <dev_barrier>
    b1ac:	e8bd8010 	pop	{r4, pc}
    b1b0:	0000b260 	andeq	fp, r0, r0, ror #4

0000b1b4 <memset>:
    b1b4:	e0802002 	add	r2, r0, r2
    b1b8:	e1a03000 	mov	r3, r0
    b1bc:	ea000001 	b	b1c8 <memset+0x14>
    b1c0:	e5c31000 	strb	r1, [r3]
    b1c4:	e2833001 	add	r3, r3, #1
    b1c8:	e1530002 	cmp	r3, r2
    b1cc:	3afffffb 	bcc	b1c0 <memset+0xc>
    b1d0:	e12fff1e 	bx	lr

0000b1d4 <cb_new>:
    b1d4:	e92d4008 	push	{r3, lr}
    b1d8:	e3a00409 	mov	r0, #150994944	; 0x9000000
    b1dc:	e3a01000 	mov	r1, #0
    b1e0:	e3a02004 	mov	r2, #4
    b1e4:	ebfffff2 	bl	b1b4 <memset>
    b1e8:	e3a00409 	mov	r0, #150994944	; 0x9000000
    b1ec:	e59f3004 	ldr	r3, [pc, #4]	; b1f8 <cb_new+0x24>
    b1f0:	e5803000 	str	r3, [r0]
    b1f4:	e8bd8008 	pop	{r3, pc}
    b1f8:	12345678 	eorsne	r5, r4, #120, 12	; 0x7800000

0000b1fc <cb_get_block>:
    b1fc:	e3a03409 	mov	r3, #150994944	; 0x9000000
    b200:	e5932000 	ldr	r2, [r3]
    b204:	e59f3014 	ldr	r3, [pc, #20]	; b220 <cb_get_block+0x24>
    b208:	e1520003 	cmp	r2, r3
    b20c:	0a000001 	beq	b218 <cb_get_block+0x1c>
    b210:	e3a00000 	mov	r0, #0
    b214:	e12fff1e 	bx	lr
    b218:	e3a00409 	mov	r0, #150994944	; 0x9000000
    b21c:	e12fff1e 	bx	lr
    b220:	12345678 	eorsne	r5, r4, #120, 12	; 0x7800000

Disassembly of section .data:

0000b224 <rpi_putchar>:
    b224:	00009b34 	andeq	r9, r0, r4, lsr fp

0000b228 <putk>:
    b228:	00009b70 	andeq	r9, r0, r0, ror fp

0000b22c <AUX_ENABLES>:
    b22c:	20215004 	eorcs	r5, r1, r4

0000b230 <AUX_MU_CNTL_REG>:
    b230:	20215060 	eorcs	r5, r1, r0, rrx

0000b234 <AUX_MU_IER_REG>:
    b234:	20215044 	eorcs	r5, r1, r4, asr #32

0000b238 <AUX_MU_IIR_REG>:
    b238:	20215048 	eorcs	r5, r1, r8, asr #32

0000b23c <AUX_MU_LCR_REG>:
    b23c:	2021504c 	eorcs	r5, r1, ip, asr #32

0000b240 <AUX_MU_BAUD_REG>:
    b240:	20215068 	eorcs	r5, r1, r8, rrx

0000b244 <AUX_MU_LSR_REG>:
    b244:	20215054 	eorcs	r5, r1, r4, asr r0

0000b248 <AUX_MU_IO_REG>:
    b248:	20215040 	eorcs	r5, r1, r0, asr #32

0000b24c <AUX_MU_STAT_REG>:
    b24c:	20215064 	eorcs	r5, r1, r4, rrx

0000b250 <AUX_MU_SCRATCH>:
    b250:	2021505c 	eorcs	r5, r1, ip, asr r0

0000b254 <AUX_MU_MSR_REG>:
    b254:	20215058 	eorcs	r5, r1, r8, asr r0

0000b258 <AUX_MU_MCR_REG>:
    b258:	20215050 	eorcs	r5, r1, r0, asr r0

0000b25c <AUX_IRQ>:
    b25c:	20215000 	eorcs	r5, r1, r0

0000b260 <GPFSEL0>:
    b260:	20200000 	eorcs	r0, r0, r0

0000b264 <GPFSEL1>:
    b264:	20200004 	eorcs	r0, r0, r4

0000b268 <GPFSEL2>:
    b268:	20200008 	eorcs	r0, r0, r8

0000b26c <GPFSEL3>:
    b26c:	2020000c 	eorcs	r0, r0, ip

0000b270 <GPFSEL4>:
    b270:	20200010 	eorcs	r0, r0, r0, lsl r0

0000b274 <GPFSEL5>:
    b274:	20200014 	eorcs	r0, r0, r4, lsl r0

0000b278 <GPSET0>:
    b278:	2020001c 	eorcs	r0, r0, ip, lsl r0

0000b27c <GPSET1>:
    b27c:	20200020 	eorcs	r0, r0, r0, lsr #32

0000b280 <GPCLR0>:
    b280:	20200028 	eorcs	r0, r0, r8, lsr #32

0000b284 <GPCLR1>:
    b284:	2020002c 	eorcs	r0, r0, ip, lsr #32

0000b288 <GPLEV0>:
    b288:	20200034 	eorcs	r0, r0, r4, lsr r0

0000b28c <GPLEV1>:
    b28c:	20200038 	eorcs	r0, r0, r8, lsr r0

0000b290 <IRQ_PENDING_2>:
    b290:	2000b208 	andcs	fp, r0, r8, lsl #4

0000b294 <GPREN0>:
    b294:	2020004c 	eorcs	r0, r0, ip, asr #32

0000b298 <GPREN1>:
    b298:	20200050 	eorcs	r0, r0, r0, asr r0

0000b29c <ENABLE_IRQS_2>:
    b29c:	2000b214 	andcs	fp, r0, r4, lsl r2

0000b2a0 <GPFEN0>:
    b2a0:	20200058 	eorcs	r0, r0, r8, asr r0

0000b2a4 <GPFEN1>:
    b2a4:	2020005c 	eorcs	r0, r0, ip, asr r0

0000b2a8 <GPEDS0>:
    b2a8:	20200040 	eorcs	r0, r0, r0, asr #32

0000b2ac <GPEDS1>:
    b2ac:	20200044 	eorcs	r0, r0, r4, asr #32

0000b2b0 <IRQ_PENDING_1>:
    b2b0:	2000b204 	andcs	fp, r0, r4, lsl #4

0000b2b4 <gpio_clr0>:
    b2b4:	20200028 	eorcs	r0, r0, r8, lsr #32

0000b2b8 <gpio_set0>:
    b2b8:	2020001c 	eorcs	r0, r0, ip, lsl r0

0000b2bc <gpio_fsel0>:
    b2bc:	20200000 	eorcs	r0, r0, r0

Disassembly of section .rodata:

0000b2c0 <__FUNCTION__.4349>:
    b2c0:	735f6970 	cmpvc	pc, #112, 18	; 0x1c0000
    b2c4:	65725f64 	ldrbvs	r5, [r2, #-3940]!	; 0xf64
    b2c8:	00006461 	andeq	r6, r0, r1, ror #8

0000b2cc <__FUNCTION__.4353>:
    b2cc:	735f6970 	cmpvc	pc, #112, 18	; 0x1c0000
    b2d0:	6e695f64 	cdpvs	15, 6, cr5, cr9, cr4, {3}
    b2d4:	00007469 	andeq	r7, r0, r9, ror #8

0000b2d8 <__FUNCTION__.4359>:
    b2d8:	5f636573 	svcpl	0x00636573
    b2dc:	64616572 	strbtvs	r6, [r1], #-1394	; 0x572
    b2e0:	00000000 	andeq	r0, r0, r0

0000b2e4 <__FUNCTION__.4365>:
    b2e4:	6d746f6e 	ldclvs	15, cr6, [r4, #-440]!	; 0xfffffe48
    b2e8:	006e6961 	rsbeq	r6, lr, r1, ror #18
    b2ec:	494e4150 	stmdbmi	lr, {r4, r6, r8, lr}^
    b2f0:	73253a43 	teqvc	r5, #274432	; 0x43000
    b2f4:	3a73253a 	bcc	1cd47e4 <__bss_end__+0x1cc84b4>
    b2f8:	633a6425 	teqvs	sl, #620756992	; 0x25000000
    b2fc:	646c756f 	strbtvs	r7, [ip], #-1391	; 0x56f
    b300:	746f6e20 	strbtvc	r6, [pc], #-3616	; b308 <__FUNCTION__.4365+0x24>
    b304:	61657220 	cmnvs	r5, r0, lsr #4
    b308:	72662064 	rsbvc	r2, r6, #100	; 0x64
    b30c:	73206d6f 	teqvc	r0, #7104	; 0x1bc0
    b310:	61632064 	cmnvs	r3, r4, rrx
    b314:	203a6472 	eorscs	r6, sl, r2, ror r4
    b318:	75736572 	ldrbvc	r6, [r3, #-1394]!	; 0x572
    b31c:	3d20746c 	cfstrscc	mvf7, [r0, #-432]!	; 0xfffffe50
    b320:	0a642520 	beq	19147a8 <__bss_end__+0x1908478>
    b324:	0000000a 	andeq	r0, r0, sl
    b328:	76697264 	strbtvc	r7, [r9], -r4, ror #4
    b32c:	632e7265 	teqvs	lr, #1342177286	; 0x50000006
    b330:	00000000 	andeq	r0, r0, r0
    b334:	494e4150 	stmdbmi	lr, {r4, r6, r8, lr}^
    b338:	73253a43 	teqvc	r5, #274432	; 0x43000
    b33c:	3a73253a 	bcc	1cd482c <__bss_end__+0x1cc84fc>
    b340:	733a6425 	teqvc	sl, #620756992	; 0x25000000
    b344:	6e695f64 	cdpvs	15, 6, cr5, cr9, cr4, {3}
    b348:	66207469 	strtvs	r7, [r0], -r9, ror #8
    b34c:	656c6961 	strbvs	r6, [ip, #-2401]!	; 0x961
    b350:	000a0a64 	andeq	r0, sl, r4, ror #20
    b354:	494e4150 	stmdbmi	lr, {r4, r6, r8, lr}^
    b358:	73253a43 	teqvc	r5, #274432	; 0x43000
    b35c:	3a73253a 	bcc	1cd484c <__bss_end__+0x1cc851c>
    b360:	633a6425 	teqvs	sl, #620756992	; 0x25000000
    b364:	646c756f 	strbtvs	r7, [ip], #-1391	; 0x56f
    b368:	746f6e20 	strbtvc	r6, [pc], #-3616	; b370 <__FUNCTION__.4365+0x8c>
    b36c:	61657220 	cmnvs	r5, r0, lsr #4
    b370:	72662064 	rsbvc	r2, r6, #100	; 0x64
    b374:	73206d6f 	teqvc	r0, #7104	; 0x1bc0
    b378:	61632064 	cmnvs	r3, r4, rrx
    b37c:	0a0a6472 	beq	2a454c <__bss_end__+0x29821c>
    b380:	00000000 	andeq	r0, r0, r0
    b384:	756f6261 	strbvc	r6, [pc, #-609]!	; b12b <gpio_event_detected+0x53>
    b388:	6f742074 	svcvs	0x00742074
    b38c:	696e6920 	stmdbvs	lr!, {r5, r8, fp, sp, lr}^
    b390:	00000a74 	andeq	r0, r0, r4, ror sl
    b394:	656e6f64 	strbvs	r6, [lr, #-3940]!	; 0xf64
    b398:	696e6920 	stmdbvs	lr!, {r5, r8, fp, sp, lr}^
    b39c:	00000a74 	andeq	r0, r0, r4, ror sl
    b3a0:	756f6261 	strbvc	r6, [pc, #-609]!	; b147 <gpio_event_detected+0x6f>
    b3a4:	6f742074 	svcvs	0x00742074
    b3a8:	61657220 	cmnvs	r5, r0, lsr #4
    b3ac:	6c622064 	stclvs	0, cr2, [r2], #-400	; 0xfffffe70
    b3b0:	206b636f 	rsbcs	r6, fp, pc, ror #6
    b3b4:	00000a30 	andeq	r0, r0, r0, lsr sl
    b3b8:	64616572 	strbtvs	r6, [r1], #-1394	; 0x572
    b3bc:	6f6c6220 	svcvs	0x006c6220
    b3c0:	30206b63 	eorcc	r6, r0, r3, ror #22
    b3c4:	0000000a 	andeq	r0, r0, sl
    b3c8:	74726170 	ldrbtvc	r6, [r2], #-368	; 0x170
    b3cc:	6f697469 	svcvs	0x00697469
    b3d0:	0031206e 	eorseq	r2, r1, lr, rrx
    b3d4:	494e4150 	stmdbmi	lr, {r4, r6, r8, lr}^
    b3d8:	73253a43 	teqvc	r5, #274432	; 0x43000
    b3dc:	3a73253a 	bcc	1cd48cc <__bss_end__+0x1cc859c>
    b3e0:	6d3a6425 	cfldrsvs	mvf6, [sl, #-148]!	; 0xffffff6c
    b3e4:	705f7262 	subsvc	r7, pc, r2, ror #4
    b3e8:	5f747261 	svcpl	0x00747261
    b3ec:	665f7369 	ldrbvs	r7, [pc], -r9, ror #6
    b3f0:	32337461 	eorscc	r7, r3, #1627389952	; 0x61000000
    b3f4:	702e7028 	eorvc	r7, lr, r8, lsr #32
    b3f8:	5f747261 	svcpl	0x00747261
    b3fc:	65707974 	ldrbvs	r7, [r0, #-2420]!	; 0x974
    b400:	00000a29 	andeq	r0, r0, r9, lsr #20
    b404:	494e4150 	stmdbmi	lr, {r4, r6, r8, lr}^
    b408:	73253a43 	teqvc	r5, #274432	; 0x43000
    b40c:	3a73253a 	bcc	1cd48fc <__bss_end__+0x1cc85cc>
    b410:	213a6425 	teqcs	sl, r5, lsr #8
    b414:	5f72626d 	svcpl	0x0072626d
    b418:	74726170 	ldrbtvc	r6, [r2], #-368	; 0x170
    b41c:	6f697469 	svcvs	0x00697469
    b420:	6d655f6e 	stclvs	15, cr5, [r5, #-440]!	; 0xfffffe48
    b424:	28797470 	ldmdacs	r9!, {r4, r5, r6, sl, ip, sp, lr}^
    b428:	6e697528 	cdpvs	5, 6, cr7, cr9, cr8, {1}
    b42c:	745f3874 	ldrbvc	r3, [pc], #-2164	; b434 <__FUNCTION__.4365+0x150>
    b430:	626d292a 	rsbvs	r2, sp, #688128	; 0xa8000
    b434:	703e2d72 	eorsvc	r2, lr, r2, ror sp
    b438:	5f747261 	svcpl	0x00747261
    b43c:	31626174 	smccc	9748	; 0x2614
    b440:	00000a29 	andeq	r0, r0, r9, lsr #20
    b444:	494e4150 	stmdbmi	lr, {r4, r6, r8, lr}^
    b448:	73253a43 	teqvc	r5, #274432	; 0x43000
    b44c:	3a73253a 	bcc	1cd493c <__bss_end__+0x1cc860c>
    b450:	6d3a6425 	cfldrsvs	mvf6, [sl, #-148]!	; 0xffffff6c
    b454:	705f7262 	subsvc	r7, pc, r2, ror #4
    b458:	69747261 	ldmdbvs	r4!, {r0, r5, r6, r9, ip, sp, lr}^
    b45c:	6e6f6974 	mcrvs	9, 3, r6, cr15, cr4, {3}
    b460:	706d655f 	rsbvc	r6, sp, pc, asr r5
    b464:	28287974 	stmdacs	r8!, {r2, r4, r5, r6, r8, fp, ip, sp, lr}
    b468:	746e6975 	strbtvc	r6, [lr], #-2421	; 0x975
    b46c:	2a745f38 	bcs	1d23154 <__bss_end__+0x1d16e24>
    b470:	72626d29 	rsbvc	r6, r2, #2624	; 0xa40
    b474:	61703e2d 	cmnvs	r0, sp, lsr #28
    b478:	745f7472 	ldrbvc	r7, [pc], #-1138	; b480 <__FUNCTION__.4365+0x19c>
    b47c:	29326261 	ldmdbcs	r2!, {r0, r5, r6, r9, sp, lr}
    b480:	0000000a 	andeq	r0, r0, sl
    b484:	494e4150 	stmdbmi	lr, {r4, r6, r8, lr}^
    b488:	73253a43 	teqvc	r5, #274432	; 0x43000
    b48c:	3a73253a 	bcc	1cd497c <__bss_end__+0x1cc864c>
    b490:	6d3a6425 	cfldrsvs	mvf6, [sl, #-148]!	; 0xffffff6c
    b494:	705f7262 	subsvc	r7, pc, r2, ror #4
    b498:	69747261 	ldmdbvs	r4!, {r0, r5, r6, r9, ip, sp, lr}^
    b49c:	6e6f6974 	mcrvs	9, 3, r6, cr15, cr4, {3}
    b4a0:	706d655f 	rsbvc	r6, sp, pc, asr r5
    b4a4:	28287974 	stmdacs	r8!, {r2, r4, r5, r6, r8, fp, ip, sp, lr}
    b4a8:	746e6975 	strbtvc	r6, [lr], #-2421	; 0x975
    b4ac:	2a745f38 	bcs	1d23194 <__bss_end__+0x1d16e64>
    b4b0:	72626d29 	rsbvc	r6, r2, #2624	; 0xa40
    b4b4:	61703e2d 	cmnvs	r0, sp, lsr #28
    b4b8:	745f7472 	ldrbvc	r7, [pc], #-1138	; b4c0 <__FUNCTION__.4365+0x1dc>
    b4bc:	29336261 	ldmdbcs	r3!, {r0, r5, r6, r9, sp, lr}
    b4c0:	0000000a 	andeq	r0, r0, sl
    b4c4:	494e4150 	stmdbmi	lr, {r4, r6, r8, lr}^
    b4c8:	73253a43 	teqvc	r5, #274432	; 0x43000
    b4cc:	3a73253a 	bcc	1cd49bc <__bss_end__+0x1cc868c>
    b4d0:	6d3a6425 	cfldrsvs	mvf6, [sl, #-148]!	; 0xffffff6c
    b4d4:	705f7262 	subsvc	r7, pc, r2, ror #4
    b4d8:	69747261 	ldmdbvs	r4!, {r0, r5, r6, r9, ip, sp, lr}^
    b4dc:	6e6f6974 	mcrvs	9, 3, r6, cr15, cr4, {3}
    b4e0:	706d655f 	rsbvc	r6, sp, pc, asr r5
    b4e4:	28287974 	stmdacs	r8!, {r2, r4, r5, r6, r8, fp, ip, sp, lr}
    b4e8:	746e6975 	strbtvc	r6, [lr], #-2421	; 0x975
    b4ec:	2a745f38 	bcs	1d231d4 <__bss_end__+0x1d16ea4>
    b4f0:	72626d29 	rsbvc	r6, r2, #2624	; 0xa40
    b4f4:	61703e2d 	cmnvs	r0, sp, lsr #28
    b4f8:	745f7472 	ldrbvc	r7, [pc], #-1138	; b500 <__FUNCTION__.4365+0x21c>
    b4fc:	29346261 	ldmdbcs	r4!, {r0, r5, r6, r9, sp, lr}
    b500:	0000000a 	andeq	r0, r0, sl
    b504:	4f525245 	svcmi	0x00525245
    b508:	66203a52 			; <UNDEFINED> instruction: 0x66203a52
    b50c:	656c6961 	strbvs	r6, [ip, #-2401]!	; 0x961
    b510:	6f742064 	svcvs	0x00742064
    b514:	6e657320 	cdpvs	3, 6, cr7, cr5, cr0, {1}
    b518:	44532064 	ldrbmi	r2, [r3], #-100	; 0x64
    b51c:	50504120 	subspl	r4, r0, r0, lsr #2
    b520:	6d6f6320 	stclvs	3, cr6, [pc, #-128]!	; b4a8 <__FUNCTION__.4365+0x1c4>
    b524:	646e616d 	strbtvs	r6, [lr], #-365	; 0x16d
    b528:	0000000a 	andeq	r0, r0, sl
    b52c:	4f525245 	svcmi	0x00525245
    b530:	45203a52 	strmi	r3, [r0, #-2642]!	; 0xa52
    b534:	20434d4d 	subcs	r4, r3, sp, asr #26
    b538:	79737562 	ldmdbvc	r3!, {r1, r5, r6, r8, sl, ip, sp, lr}^
    b53c:	0000000a 	andeq	r0, r0, sl
    b540:	434d4d45 	movtmi	r4, #56645	; 0xdd45
    b544:	6553203a 	ldrbvs	r2, [r3, #-58]	; 0x3a
    b548:	6e69646e 	cdpvs	4, 6, cr6, cr9, cr14, {3}
    b54c:	6f632067 	svcvs	0x00632067
    b550:	6e616d6d 	cdpvs	13, 6, cr6, cr1, cr13, {3}
    b554:	00002064 	andeq	r2, r0, r4, rrx
    b558:	67726120 	ldrbvs	r6, [r2, -r0, lsr #2]!
    b55c:	00000020 	andeq	r0, r0, r0, lsr #32
    b560:	4f525245 	svcmi	0x00525245
    b564:	66203a52 			; <UNDEFINED> instruction: 0x66203a52
    b568:	656c6961 	strbvs	r6, [ip, #-2401]!	; 0x961
    b56c:	6f742064 	svcvs	0x00742064
    b570:	6e657320 	cdpvs	3, 6, cr7, cr5, cr0, {1}
    b574:	4d452064 	stclmi	0, cr2, [r5, #-400]	; 0xfffffe70
    b578:	6320434d 	teqvs	r0, #872415233	; 0x34000001
    b57c:	616d6d6f 	cmnvs	sp, pc, ror #26
    b580:	000a646e 	andeq	r6, sl, lr, ror #8
    b584:	725f6473 	subsvc	r6, pc, #1929379840	; 0x73000000
    b588:	62646165 	rsbvs	r6, r4, #1073741849	; 0x40000019
    b58c:	6b636f6c 	blvs	18e7344 <__bss_end__+0x18db014>
    b590:	61626c20 	cmnvs	r2, r0, lsr #24
    b594:	00000020 	andeq	r0, r0, r0, lsr #32
    b598:	6d756e20 	ldclvs	14, cr6, [r5, #-128]!	; 0xffffff80
    b59c:	00000020 	andeq	r0, r0, r0, lsr #32
    b5a0:	5252450d 	subspl	r4, r2, #54525952	; 0x3400000
    b5a4:	203a524f 	eorscs	r5, sl, pc, asr #4
    b5a8:	656d6954 	strbvs	r6, [sp, #-2388]!	; 0x954
    b5ac:	2074756f 	rsbscs	r7, r4, pc, ror #10
    b5b0:	74696177 	strbtvc	r6, [r9], #-375	; 0x177
    b5b4:	20676e69 	rsbcs	r6, r7, r9, ror #28
    b5b8:	20726f66 	rsbscs	r6, r2, r6, ror #30
    b5bc:	64616572 	strbtvs	r6, [r1], #-1394	; 0x572
    b5c0:	6f742079 	svcvs	0x00742079
    b5c4:	61657220 	cmnvs	r5, r0, lsr #4
    b5c8:	00000a64 	andeq	r0, r0, r4, ror #20
    b5cc:	775f6473 			; <UNDEFINED> instruction: 0x775f6473
    b5d0:	65746972 	ldrbvs	r6, [r4, #-2418]!	; 0x972
    b5d4:	636f6c62 	cmnvs	pc, #25088	; 0x6200
    b5d8:	626c206b 	rsbvs	r2, ip, #107	; 0x6b
    b5dc:	00002061 	andeq	r2, r0, r1, rrx
    b5e0:	5252450d 	subspl	r4, r2, #54525952	; 0x3400000
    b5e4:	203a524f 	eorscs	r5, sl, pc, asr #4
    b5e8:	656d6954 	strbvs	r6, [sp, #-2388]!	; 0x954
    b5ec:	2074756f 	rsbscs	r7, r4, pc, ror #10
    b5f0:	74696177 	strbtvc	r6, [r9], #-375	; 0x177
    b5f4:	20676e69 	rsbcs	r6, r7, r9, ror #28
    b5f8:	20726f66 	rsbscs	r6, r2, r6, ror #30
    b5fc:	64616572 	strbtvs	r6, [r1], #-1394	; 0x572
    b600:	6f742079 	svcvs	0x00742079
    b604:	69727720 	ldmdbvs	r2!, {r5, r8, r9, sl, ip, sp, lr}^
    b608:	000a6574 	andeq	r6, sl, r4, ror r5
    b60c:	5252450d 	subspl	r4, r2, #54525952	; 0x3400000
    b610:	203a524f 	eorscs	r5, sl, pc, asr #4
    b614:	656d6954 	strbvs	r6, [sp, #-2388]!	; 0x954
    b618:	2074756f 	rsbscs	r7, r4, pc, ror #10
    b61c:	74696177 	strbtvc	r6, [r9], #-375	; 0x177
    b620:	20676e69 	rsbcs	r6, r7, r9, ror #28
    b624:	20726f66 	rsbscs	r6, r2, r6, ror #30
    b628:	61746164 	cmnvs	r4, r4, ror #2
    b62c:	6e6f6420 	cdpvs	4, 6, cr6, cr15, cr0, {1}
    b630:	00000a65 	andeq	r0, r0, r5, ror #20
    b634:	434d4d45 	movtmi	r4, #56645	; 0xdd45
    b638:	5047203a 	subpl	r2, r7, sl, lsr r0
    b63c:	73204f49 	teqvc	r0, #292	; 0x124
    b640:	75207465 	strvc	r7, [r0, #-1125]!	; 0x465
    b644:	00000a70 	andeq	r0, r0, r0, ror sl
    b648:	4f525245 	svcmi	0x00525245
    b64c:	66203a52 			; <UNDEFINED> instruction: 0x66203a52
    b650:	656c6961 	strbvs	r6, [ip, #-2401]!	; 0x961
    b654:	6f742064 	svcvs	0x00742064
    b658:	73657220 	cmnvc	r5, #32, 4
    b65c:	45207465 	strmi	r7, [r0, #-1125]!	; 0x465
    b660:	0a434d4d 	beq	10deb9c <__bss_end__+0x10d286c>
    b664:	00000000 	andeq	r0, r0, r0
    b668:	434d4d45 	movtmi	r4, #56645	; 0xdd45
    b66c:	6572203a 	ldrbvs	r2, [r2, #-58]!	; 0x3a
    b670:	20746573 	rsbscs	r6, r4, r3, ror r5
    b674:	000a4b4f 	andeq	r4, sl, pc, asr #22
    b678:	4f525245 	svcmi	0x00525245
    b67c:	74203a52 	strtvc	r3, [r0], #-2642	; 0xa52
    b680:	6f656d69 	svcvs	0x00656d69
    b684:	77207475 			; <UNDEFINED> instruction: 0x77207475
    b688:	69746961 	ldmdbvs	r4!, {r0, r5, r6, r8, fp, sp, lr}^
    b68c:	6620676e 	strtvs	r6, [r0], -lr, ror #14
    b690:	6920726f 	stmdbvs	r0!, {r0, r1, r2, r3, r5, r6, r9, ip, sp, lr}
    b694:	6269686e 	rsbvs	r6, r9, #7208960	; 0x6e0000
    b698:	66207469 	strtvs	r7, [r0], -r9, ror #8
    b69c:	0a67616c 	beq	19e3c54 <__bss_end__+0x19d7924>
    b6a0:	00000000 	andeq	r0, r0, r0
    b6a4:	635f6473 	cmpvs	pc, #1929379840	; 0x73000000
    b6a8:	64206b6c 	strtvs	r6, [r0], #-2924	; 0xb6c
    b6ac:	73697669 	cmnvc	r9, #110100480	; 0x6900000
    b6b0:	0020726f 	eoreq	r7, r0, pc, ror #4
    b6b4:	6873202c 	ldmdavs	r3!, {r2, r3, r5, sp}^
    b6b8:	20746669 	rsbscs	r6, r4, r9, ror #12
    b6bc:	00000000 	andeq	r0, r0, r0
    b6c0:	4f525245 	svcmi	0x00525245
    b6c4:	66203a52 			; <UNDEFINED> instruction: 0x66203a52
    b6c8:	656c6961 	strbvs	r6, [ip, #-2401]!	; 0x961
    b6cc:	6f742064 	svcvs	0x00742064
    b6d0:	74656720 	strbtvc	r6, [r5], #-1824	; 0x720
    b6d4:	61747320 	cmnvs	r4, r0, lsr #6
    b6d8:	20656c62 	rsbcs	r6, r5, r2, ror #24
    b6dc:	636f6c63 	cmnvs	pc, #25344	; 0x6300
    b6e0:	00000a6b 	andeq	r0, r0, fp, ror #20
    b6e4:	434d4d45 	movtmi	r4, #56645	; 0xdd45
    b6e8:	4d43203a 	stclmi	0, cr2, [r3, #-232]	; 0xffffff18
    b6ec:	45535f44 	ldrbmi	r5, [r3, #-3908]	; 0xf44
    b6f0:	4f5f444e 	svcmi	0x005f444e
    b6f4:	4f435f50 	svcmi	0x00435f50
    b6f8:	7220444e 	eorvc	r4, r0, #1308622848	; 0x4e000000
    b6fc:	72757465 	rsbsvc	r7, r5, #1694498816	; 0x65000000
    b700:	2064656e 	rsbcs	r6, r4, lr, ror #10
    b704:	00000000 	andeq	r0, r0, r0
    b708:	504d4f43 	subpl	r4, sp, r3, asr #30
    b70c:	4554454c 	ldrbmi	r4, [r4, #-1356]	; 0x54c
    b710:	00000020 	andeq	r0, r0, r0, lsr #32
    b714:	544c4f56 	strbpl	r4, [ip], #-3926	; 0xf56
    b718:	20454741 	subcs	r4, r5, r1, asr #14
    b71c:	00000000 	andeq	r0, r0, r0
    b720:	20534343 	subscs	r4, r3, r3, asr #6
    b724:	00000000 	andeq	r0, r0, r0
    b728:	4f525245 	svcmi	0x00525245
    b72c:	45203a52 	strmi	r3, [r0, #-2642]!	; 0xa52
    b730:	20434d4d 	subcs	r4, r3, sp, asr #26
    b734:	444d4341 	strbmi	r4, [sp], #-833	; 0x341
    b738:	72203134 	eorvc	r3, r0, #52, 2
    b73c:	72757465 	rsbsvc	r7, r5, #1694498816	; 0x65000000
    b740:	2064656e 	rsbcs	r6, r4, lr, ror #10
    b744:	6f727265 	svcvs	0x00727265
    b748:	00000a72 	andeq	r0, r0, r2, ror sl
    b74c:	434d4d45 	movtmi	r4, #56645	; 0xdd45
    b750:	4d43203a 	stclmi	0, cr2, [r3, #-232]	; 0xffffff18
    b754:	45535f44 	ldrbmi	r5, [r3, #-3908]	; 0xf44
    b758:	525f444e 	subspl	r4, pc, #1308622848	; 0x4e000000
    b75c:	415f4c45 	cmpmi	pc, r5, asr #24
    b760:	20524444 	subscs	r4, r2, r4, asr #8
    b764:	75746572 	ldrbvc	r6, [r4, #-1394]!	; 0x572
    b768:	64656e72 	strbtvs	r6, [r5], #-3698	; 0xe72
    b76c:	00000020 	andeq	r0, r0, r0, lsr #32
    b770:	434d4d45 	movtmi	r4, #56645	; 0xdd45
    b774:	7573203a 	ldrbvc	r2, [r3, #-58]!	; 0x3a
    b778:	726f7070 	rsbvc	r7, pc, #112	; 0x70
    b77c:	00207374 	eoreq	r7, r0, r4, ror r3
    b780:	5f544553 	svcpl	0x00544553
    b784:	434b4c42 	movtmi	r4, #48194	; 0xbc42
    b788:	0020544e 	eoreq	r5, r0, lr, asr #8

0000b78c <__FUNCTION__.4337>:
    b78c:	5f72626d 	svcpl	0x0072626d
    b790:	63656863 	cmnvs	r5, #6488064	; 0x630000
    b794:	0000006b 	andeq	r0, r0, fp, rrx

0000b798 <__FUNCTION__.4378>:
    b798:	5f72626d 	svcpl	0x0072626d
    b79c:	74726170 	ldrbtvc	r6, [r2], #-368	; 0x170
    b7a0:	7274735f 	rsbsvc	r7, r4, #2080374785	; 0x7c000001
    b7a4:	00000000 	andeq	r0, r0, r0

0000b7a8 <__FUNCTION__.4390>:
    b7a8:	5f72626d 	svcpl	0x0072626d
    b7ac:	74726170 	ldrbtvc	r6, [r2], #-368	; 0x170
    b7b0:	6f697469 	svcvs	0x00697469
    b7b4:	72705f6e 	rsbsvc	r5, r0, #440	; 0x1b8
    b7b8:	00746e69 	rsbseq	r6, r4, r9, ror #28
    b7bc:	494e4150 	stmdbmi	lr, {r4, r6, r8, lr}^
    b7c0:	73253a43 	teqvc	r5, #274432	; 0x43000
    b7c4:	3a73253a 	bcc	1cd4cb4 <__bss_end__+0x1cc8984>
    b7c8:	6d3a6425 	cfldrsvs	mvf6, [sl, #-148]!	; 0xffffff6c
    b7cc:	3e2d7262 	cdpcc	2, 2, cr7, cr13, cr2, {3}
    b7d0:	76676973 			; <UNDEFINED> instruction: 0x76676973
    b7d4:	3d206c61 	stccc	12, cr6, [r0, #-388]!	; 0xfffffe7c
    b7d8:	7830203d 	ldmdavc	r0!, {r0, r2, r3, r4, r5, sp}
    b7dc:	35354141 	ldrcc	r4, [r5, #-321]!	; 0x141
    b7e0:	0000000a 	andeq	r0, r0, sl
    b7e4:	33746166 	cmncc	r4, #-2147483623	; 0x80000019
    b7e8:	65682d32 	strbvs	r2, [r8, #-3378]!	; 0xd32
    b7ec:	7265706c 	rsbvc	r7, r5, #108	; 0x6c
    b7f0:	00632e73 	rsbeq	r2, r3, r3, ror lr
    b7f4:	74706d45 	ldrbtvc	r6, [r0], #-3397	; 0xd45
    b7f8:	00000079 	andeq	r0, r0, r9, ror r0
    b7fc:	31544146 	cmpcc	r4, r6, asr #2
    b800:	202d2032 	eorcs	r2, sp, r2, lsr r0
    b804:	00534843 	subseq	r4, r3, r3, asr #16
    b808:	31544146 	cmpcc	r4, r6, asr #2
    b80c:	202d2036 	eorcs	r2, sp, r6, lsr r0
    b810:	332d3631 	teqcc	sp, #51380224	; 0x3100000
    b814:	424d2032 	submi	r2, sp, #50	; 0x32
    b818:	43202d20 	teqmi	r0, #32, 26	; 0x800
    b81c:	00005348 	andeq	r5, r0, r8, asr #6
    b820:	7263694d 	rsbvc	r6, r3, #1261568	; 0x134000
    b824:	666f736f 	strbtvs	r7, [pc], -pc, ror #6
    b828:	78452074 	stmdavc	r5, {r2, r4, r5, r6, sp}^
    b82c:	646e6574 	strbtvs	r6, [lr], #-1396	; 0x574
    b830:	2d206465 	cfstrscs	mvf6, [r0, #-404]!	; 0xfffffe6c
    b834:	53484320 	movtpl	r4, #33568	; 0x8320
    b838:	00000000 	andeq	r0, r0, r0
    b83c:	31544146 	cmpcc	r4, r6, asr #2
    b840:	202d2036 	eorcs	r2, sp, r6, lsr r0
    b844:	4d203233 	sfmmi	f3, 4, [r0, #-204]!	; 0xffffff34
    b848:	20322d42 	eorscs	r2, r2, r2, asr #26
    b84c:	2d204247 	sfmcs	f4, 4, [r0, #-284]!	; 0xfffffee4
    b850:	53484320 	movtpl	r4, #33568	; 0x8320
    b854:	00000000 	andeq	r0, r0, r0
    b858:	5346544e 	movtpl	r5, #25678	; 0x644e
    b85c:	00000000 	andeq	r0, r0, r0
    b860:	33544146 	cmpcc	r4, #-2147483631	; 0x80000011
    b864:	202d2032 	eorcs	r2, sp, r2, lsr r0
    b868:	00534843 	subseq	r4, r3, r3, asr #16
    b86c:	33544146 	cmpcc	r4, #-2147483631	; 0x80000011
    b870:	202d2032 	eorcs	r2, sp, r2, lsr r0
    b874:	0041424c 	subeq	r4, r1, ip, asr #4
    b878:	31544146 	cmpcc	r4, r6, asr #2
    b87c:	202d2036 	eorcs	r2, sp, r6, lsr r0
    b880:	4d203233 	sfmmi	f3, 4, [r0, #-204]!	; 0xffffff34
    b884:	20322d42 	eorscs	r2, r2, r2, asr #26
    b888:	2d204247 	sfmcs	f4, 4, [r0, #-284]!	; 0xfffffee4
    b88c:	41424c20 	cmpmi	r2, r0, lsr #24
    b890:	00000000 	andeq	r0, r0, r0
    b894:	7263694d 	rsbvc	r6, r3, #1261568	; 0x134000
    b898:	666f736f 	strbtvs	r7, [pc], -pc, ror #6
    b89c:	78452074 	stmdavc	r5, {r2, r4, r5, r6, sp}^
    b8a0:	646e6574 	strbtvs	r6, [lr], #-1396	; 0x574
    b8a4:	2d206465 	cfstrscs	mvf6, [r0, #-404]!	; 0xfffffe6c
    b8a8:	41424c20 	cmpmi	r2, r0, lsr #24
    b8ac:	00000000 	andeq	r0, r0, r0
    b8b0:	64646948 	strbtvs	r6, [r4], #-2376	; 0x948
    b8b4:	46206e65 	strtmi	r6, [r0], -r5, ror #28
    b8b8:	32315441 	eorscc	r5, r1, #1090519040	; 0x41000000
    b8bc:	43202d20 	teqmi	r0, #32, 26	; 0x800
    b8c0:	00005348 	andeq	r5, r0, r8, asr #6
    b8c4:	64646948 	strbtvs	r6, [r4], #-2376	; 0x948
    b8c8:	46206e65 	strtmi	r6, [r0], -r5, ror #28
    b8cc:	36315441 	ldrtcc	r5, [r1], -r1, asr #8
    b8d0:	31202d20 	teqcc	r0, r0, lsr #26
    b8d4:	32332d36 	eorscc	r2, r3, #3456	; 0xd80
    b8d8:	20424d20 	subcs	r4, r2, r0, lsr #26
    b8dc:	4843202d 	stmdami	r3, {r0, r2, r3, r5, sp}^
    b8e0:	00000053 	andeq	r0, r0, r3, asr r0
    b8e4:	64646948 	strbtvs	r6, [r4], #-2376	; 0x948
    b8e8:	46206e65 	strtmi	r6, [r0], -r5, ror #28
    b8ec:	36315441 	ldrtcc	r5, [r1], -r1, asr #8
    b8f0:	33202d20 	teqcc	r0, #32, 26	; 0x800
    b8f4:	424d2032 	submi	r2, sp, #50	; 0x32
    b8f8:	4720322d 	strmi	r3, [r0, -sp, lsr #4]!
    b8fc:	202d2042 	eorcs	r2, sp, r2, asr #32
    b900:	00534843 	subseq	r4, r3, r3, asr #16
    b904:	64646948 	strbtvs	r6, [r4], #-2376	; 0x948
    b908:	46206e65 	strtmi	r6, [r0], -r5, ror #28
    b90c:	32335441 	eorscc	r5, r3, #1090519040	; 0x41000000
    b910:	43202d20 	teqmi	r0, #32, 26	; 0x800
    b914:	00005348 	andeq	r5, r0, r8, asr #6
    b918:	64646948 	strbtvs	r6, [r4], #-2376	; 0x948
    b91c:	46206e65 	strtmi	r6, [r0], -r5, ror #28
    b920:	32335441 	eorscc	r5, r3, #1090519040	; 0x41000000
    b924:	4c202d20 	stcmi	13, cr2, [r0], #-128	; 0xffffff80
    b928:	00004142 	andeq	r4, r0, r2, asr #2
    b92c:	64646948 	strbtvs	r6, [r4], #-2376	; 0x948
    b930:	46206e65 	strtmi	r6, [r0], -r5, ror #28
    b934:	36315441 	ldrtcc	r5, [r1], -r1, asr #8
    b938:	33202d20 	teqcc	r0, #32, 26	; 0x800
    b93c:	424d2032 	submi	r2, sp, #50	; 0x32
    b940:	4720322d 	strmi	r3, [r0, -sp, lsr #4]!
    b944:	202d2042 	eorcs	r2, sp, r2, asr #32
    b948:	0041424c 	subeq	r4, r1, ip, asr #4
    b94c:	7263694d 	rsbvc	r6, r3, #1261568	; 0x134000
    b950:	666f736f 	strbtvs	r7, [pc], -pc, ror #6
    b954:	424d2074 	submi	r2, sp, #116	; 0x74
    b958:	202d2052 	eorcs	r2, sp, r2, asr r0
    b95c:	616e7944 	cmnvs	lr, r4, asr #18
    b960:	2063696d 	rsbcs	r6, r3, sp, ror #18
    b964:	6b736944 	blvs	1ce5e7c <__bss_end__+0x1cd9b4c>
    b968:	00000000 	andeq	r0, r0, r0
    b96c:	616c6f53 	cmnvs	ip, r3, asr pc
    b970:	20736972 	rsbscs	r6, r3, r2, ror r9
    b974:	20363878 	eorscs	r3, r6, r8, ror r8
    b978:	4c20726f 	sfmmi	f7, 4, [r0], #-444	; 0xfffffe44
    b97c:	78756e69 	ldmdavc	r5!, {r0, r3, r5, r6, r9, sl, fp, sp, lr}^
    b980:	61777320 	cmnvs	r7, r0, lsr #6
    b984:	00003f70 	andeq	r3, r0, r0, ror pc
    b988:	756e694c 	strbvc	r6, [lr, #-2380]!	; 0x94c
    b98c:	00000078 	andeq	r0, r0, r8, ror r0
    b990:	65626948 	strbvs	r6, [r2, #-2376]!	; 0x948
    b994:	74616e72 	strbtvc	r6, [r1], #-3698	; 0xe72
    b998:	006e6f69 	rsbeq	r6, lr, r9, ror #30
    b99c:	756e694c 	strbvc	r6, [lr, #-2380]!	; 0x94c
    b9a0:	78452078 	stmdavc	r5, {r3, r4, r5, r6, sp}^
    b9a4:	646e6574 	strbtvs	r6, [lr], #-1396	; 0x574
    b9a8:	00006465 	andeq	r6, r0, r5, ror #8
    b9ac:	5346544e 	movtpl	r5, #25678	; 0x644e
    b9b0:	6c6f5620 	stclvs	6, cr5, [pc], #-128	; b938 <__FUNCTION__.4390+0x190>
    b9b4:	20656d75 	rsbcs	r6, r5, r5, ror sp
    b9b8:	00746553 	rsbseq	r6, r4, r3, asr r5
    b9bc:	65657246 	strbvs	r7, [r5, #-582]!	; 0x246
    b9c0:	00445342 	subeq	r5, r4, r2, asr #6
    b9c4:	6e65704f 	cdpvs	0, 6, cr7, cr5, cr15, {2}
    b9c8:	00445342 	subeq	r5, r4, r2, asr #6
    b9cc:	2063614d 	rsbcs	r6, r3, sp, asr #2
    b9d0:	0058534f 	subseq	r5, r8, pc, asr #6
    b9d4:	4274654e 	rsbsmi	r6, r4, #327155712	; 0x13800000
    b9d8:	00004453 	andeq	r4, r0, r3, asr r4
    b9dc:	2063614d 	rsbcs	r6, r3, sp, asr #2
    b9e0:	2058534f 	subscs	r5, r8, pc, asr #6
    b9e4:	746f6f42 	strbtvc	r6, [pc], #-3906	; b9ec <__FUNCTION__.4390+0x244>
    b9e8:	00000000 	andeq	r0, r0, r0
    b9ec:	49445342 	stmdbmi	r4, {r1, r6, r8, r9, ip, lr}^
    b9f0:	00000000 	andeq	r0, r0, r0
    b9f4:	49445342 	stmdbmi	r4, {r1, r6, r8, r9, ip, lr}^
    b9f8:	61777320 	cmnvs	r7, r0, lsr #6
    b9fc:	00000070 	andeq	r0, r0, r0, ror r0
    ba00:	20494645 	subcs	r4, r9, r5, asr #12
    ba04:	20545047 	subscs	r5, r4, r7, asr #32
    ba08:	6b736944 	blvs	1ce5f20 <__bss_end__+0x1cd9bf0>
    ba0c:	00000000 	andeq	r0, r0, r0
    ba10:	20494645 	subcs	r4, r9, r5, asr #12
    ba14:	74737953 	ldrbtvc	r7, [r3], #-2387	; 0x953
    ba18:	50206d65 	eorpl	r6, r0, r5, ror #26
    ba1c:	69747261 	ldmdbvs	r4!, {r0, r5, r6, r9, ip, sp, lr}^
    ba20:	6e6f6974 	mcrvs	9, 3, r6, cr15, cr4, {3}
    ba24:	00000000 	andeq	r0, r0, r0
    ba28:	61776d56 	cmnvs	r7, r6, asr sp
    ba2c:	46206572 			; <UNDEFINED> instruction: 0x46206572
    ba30:	20656c69 	rsbcs	r6, r5, r9, ror #24
    ba34:	74737953 	ldrbtvc	r7, [r3], #-2387	; 0x953
    ba38:	00006d65 	andeq	r6, r0, r5, ror #26
    ba3c:	61776d56 	cmnvs	r7, r6, asr sp
    ba40:	73206572 	teqvc	r0, #478150656	; 0x1c800000
    ba44:	00706177 	rsbseq	r6, r0, r7, ror r1
    ba48:	494e4150 	stmdbmi	lr, {r4, r6, r8, lr}^
    ba4c:	73253a43 	teqvc	r5, #274432	; 0x43000
    ba50:	3a73253a 	bcc	1cd4f40 <__bss_end__+0x1cc8c10>
    ba54:	753a6425 	ldrvc	r6, [sl, #-1061]!	; 0x425
    ba58:	6f6e6b6e 	svcvs	0x006e6b6e
    ba5c:	74206e77 	strtvc	r6, [r0], #-3703	; 0xe77
    ba60:	3a657079 	bcc	1967c4c <__bss_end__+0x195b91c>
    ba64:	0a782520 	beq	1e14eec <__bss_end__+0x1e08bbc>
    ba68:	0000000a 	andeq	r0, r0, sl
    ba6c:	65757274 	ldrbvs	r7, [r5, #-628]!	; 0x274
    ba70:	00000000 	andeq	r0, r0, r0
    ba74:	736c6166 	cmnvc	ip, #-2147483623	; 0x80000019
    ba78:	00000065 	andeq	r0, r0, r5, rrx
    ba7c:	0a3a7325 	beq	ea8718 <__bss_end__+0xe9c3e8>
    ba80:	00000000 	andeq	r0, r0, r0
    ba84:	6f6f6209 	svcvs	0x006f6209
    ba88:	6c626174 	stfvse	f6, [r2], #-464	; 0xfffffe30
    ba8c:	3d202065 	stccc	0, cr2, [r0, #-404]!	; 0xfffffe6c
    ba90:	0a732520 	beq	1cd4f18 <__bss_end__+0x1cc8be8>
    ba94:	00000000 	andeq	r0, r0, r0
    ba98:	73686309 	cmnvc	r8, #603979776	; 0x24000000
    ba9c:	6174735f 	cmnvs	r4, pc, asr r3
    baa0:	3d207472 	cfstrscc	mvf7, [r0, #-456]!	; 0xfffffe38
    baa4:	0a782520 	beq	1e14f2c <__bss_end__+0x1e08bfc>
    baa8:	00000000 	andeq	r0, r0, r0
    baac:	72617009 	rsbvc	r7, r1, #9
    bab0:	79742074 	ldmdbvc	r4!, {r2, r4, r5, r6, sp}^
    bab4:	3d206570 	cfstr32cc	mvfx6, [r0, #-448]!	; 0xfffffe40
    bab8:	20782520 	rsbscs	r2, r8, r0, lsr #10
    babc:	29732528 	ldmdbcs	r3!, {r3, r5, r8, sl, sp}^
    bac0:	0000000a 	andeq	r0, r0, sl
    bac4:	73686309 	cmnvc	r8, #603979776	; 0x24000000
    bac8:	646e655f 	strbtvs	r6, [lr], #-1375	; 0x55f
    bacc:	3d202020 	stccc	0, cr2, [r0, #-128]!	; 0xffffff80
    bad0:	0a782520 	beq	1e14f58 <__bss_end__+0x1e08c28>
    bad4:	00000000 	andeq	r0, r0, r0
    bad8:	61626c09 	cmnvs	r2, r9, lsl #24
    badc:	6174735f 	cmnvs	r4, pc, asr r3
    bae0:	3d207472 	cfstrscc	mvf7, [r0, #-456]!	; 0xfffffe38
    bae4:	0a782520 	beq	1e14f6c <__bss_end__+0x1e08c3c>
    bae8:	00000000 	andeq	r0, r0, r0
    baec:	65736e09 	ldrbvs	r6, [r3, #-3593]!	; 0xe09
    baf0:	726f7463 	rsbvc	r7, pc, #1660944384	; 0x63000000
    baf4:	2020203d 	eorcs	r2, r0, sp, lsr r0
    baf8:	6425203d 	strtvs	r2, [r5], #-61	; 0x3d
    bafc:	64252820 	strtvs	r2, [r5], #-2080	; 0x820
    bb00:	0a294247 	beq	a5c424 <__bss_end__+0xa500f4>
    bb04:	00000000 	andeq	r0, r0, r0
    bb08:	494e4150 	stmdbmi	lr, {r4, r6, r8, lr}^
    bb0c:	73253a43 	teqvc	r5, #274432	; 0x43000
    bb10:	3a73253a 	bcc	1cd5000 <__bss_end__+0x1cc8cd0>
    bb14:	703a6425 	eorsvc	r6, sl, r5, lsr #8
    bb18:	61703e2d 	cmnvs	r0, sp, lsr #28
    bb1c:	745f7472 	ldrbvc	r7, [pc], #-1138	; bb24 <__FUNCTION__.4390+0x37c>
    bb20:	20657079 	rsbcs	r7, r5, r9, ror r0
    bb24:	30203d3d 	eorcc	r3, r0, sp, lsr sp
    bb28:	7c206278 	sfmvc	f6, 4, [r0], #-480	; 0xfffffe20
    bb2c:	2d70207c 	ldclcs	0, cr2, [r0, #-496]!	; 0xfffffe10
    bb30:	7261703e 	rsbvc	r7, r1, #62	; 0x3e
    bb34:	79745f74 	ldmdbvc	r4!, {r2, r4, r5, r6, r8, r9, sl, fp, ip, lr}^
    bb38:	3d206570 	cfstr32cc	mvfx6, [r0, #-448]!	; 0xfffffe40
    bb3c:	7830203d 	ldmdavc	r0!, {r0, r2, r3, r4, r5, sp}
    bb40:	00000a63 	andeq	r0, r0, r3, ror #20
    bb44:	00007825 	andeq	r7, r0, r5, lsr #16

0000bb48 <__FUNCTION__.4228>:
    bb48:	74696d65 	strbtvc	r6, [r9], #-3429	; 0xd65
    bb4c:	00000000 	andeq	r0, r0, r0

0000bb50 <__FUNCTION__.4176>:
    bb50:	5f697072 	svcpl	0x00697072
    bb54:	5f746573 	svcpl	0x00746573
    bb58:	7074756f 	rsbsvc	r7, r4, pc, ror #10
    bb5c:	00007475 	andeq	r7, r0, r5, ror r4

0000bb60 <__FUNCTION__.4250>:
    bb60:	705f6176 	subsvc	r6, pc, r6, ror r1	; <UNPREDICTABLE>
    bb64:	746e6972 	strbtvc	r6, [lr], #-2418	; 0x972
    bb68:	0000006b 	andeq	r0, r0, fp, rrx
    bb6c:	494e4150 	stmdbmi	lr, {r4, r6, r8, lr}^
    bb70:	73253a43 	teqvc	r5, #274432	; 0x43000
    bb74:	3a73253a 	bcc	1cd5064 <__bss_end__+0x1cc8d34>
    bb78:	303a6425 	eorscc	r6, sl, r5, lsr #8
    bb7c:	0000000a 	andeq	r0, r0, sl
    bb80:	6362696c 	cmnvs	r2, #108, 18	; 0x1b0000
    bb84:	2d61762f 	stclcs	6, cr7, [r1, #-188]!	; 0xffffff44
    bb88:	6e697270 	mcrvs	2, 3, r7, cr9, cr0, {3}
    bb8c:	632e6b74 	teqvs	lr, #116, 22	; 0x1d000
    bb90:	00000000 	andeq	r0, r0, r0
    bb94:	33323130 	teqcc	r2, #48, 2
    bb98:	37363534 			; <UNDEFINED> instruction: 0x37363534
    bb9c:	00003938 	andeq	r3, r0, r8, lsr r9
    bba0:	33323130 	teqcc	r2, #48, 2
    bba4:	37363534 			; <UNDEFINED> instruction: 0x37363534
    bba8:	62613938 	rsbvs	r3, r1, #56, 18	; 0xe0000
    bbac:	66656463 	strbtvs	r6, [r5], -r3, ror #8
    bbb0:	00000000 	andeq	r0, r0, r0
    bbb4:	00003130 	andeq	r3, r0, r0, lsr r1
    bbb8:	494e4150 	stmdbmi	lr, {r4, r6, r8, lr}^
    bbbc:	73253a43 	teqvc	r5, #274432	; 0x43000
    bbc0:	3a73253a 	bcc	1cd50b0 <__bss_end__+0x1cc8d80>
    bbc4:	703a6425 	eorsvc	r6, sl, r5, lsr #8
    bbc8:	5f637475 	svcpl	0x00637475
    bbcc:	000a7066 	andeq	r7, sl, r6, rrx
    bbd0:	494e4150 	stmdbmi	lr, {r4, r6, r8, lr}^
    bbd4:	73253a43 	teqvc	r5, #274432	; 0x43000
    bbd8:	3a73253a 	bcc	1cd50c8 <__bss_end__+0x1cc8d98>
    bbdc:	773a6425 	ldrvc	r6, [sl, -r5, lsr #8]!
    bbe0:	68746469 	ldmdavs	r4!, {r0, r3, r5, r6, sl, sp, lr}^
    bbe4:	33203c20 	teqcc	r0, #32, 24	; 0x2000
    bbe8:	00000a32 	andeq	r0, r0, r2, lsr sl
    bbec:	494e4150 	stmdbmi	lr, {r4, r6, r8, lr}^
    bbf0:	73253a43 	teqvc	r5, #274432	; 0x43000
    bbf4:	3a73253a 	bcc	1cd50e4 <__bss_end__+0x1cc8db4>
    bbf8:	663a6425 	ldrtvs	r6, [sl], -r5, lsr #8
    bbfc:	74616f6c 	strbtvc	r6, [r1], #-3948	; 0xf6c
    bc00:	746f6e20 	strbtvc	r6, [pc], #-3616	; bc08 <__FUNCTION__.4250+0xa8>
    bc04:	616e6520 	cmnvs	lr, r0, lsr #10
    bc08:	64656c62 	strbtvs	r6, [r5], #-3170	; 0xc62
    bc0c:	0a212121 	beq	854098 <__bss_end__+0x847d68>
    bc10:	00000000 	andeq	r0, r0, r0
    bc14:	494e4150 	stmdbmi	lr, {r4, r6, r8, lr}^
    bc18:	73253a43 	teqvc	r5, #274432	; 0x43000
    bc1c:	3a73253a 	bcc	1cd510c <__bss_end__+0x1cc8ddc>
    bc20:	703a6425 	eorsvc	r6, sl, r5, lsr #8
    bc24:	746e6972 	strbtvc	r6, [lr], #-2418	; 0x972
    bc28:	6e203a6b 	vnmulvs.f32	s6, s0, s23
    bc2c:	6820746f 	stmdavs	r0!, {r0, r1, r2, r3, r5, r6, sl, ip, sp, lr}
    bc30:	6c646e61 	stclvs	14, cr6, [r4], #-388	; 0xfffffe7c
    bc34:	20676e69 	rsbcs	r6, r7, r9, ror #28
    bc38:	63657073 	cmnvs	r5, #115	; 0x73
    bc3c:	65696669 	strbvs	r6, [r9, #-1641]!	; 0x669
    bc40:	25272072 	strcs	r2, [r7, #-114]!	; 0x72
    bc44:	0a0a2763 	beq	2959d8 <__bss_end__+0x2896a8>
    bc48:	00000000 	andeq	r0, r0, r0
    bc4c:	454e4f44 	strbmi	r4, [lr, #-3908]	; 0xf44
    bc50:	0a212121 	beq	8540dc <__bss_end__+0x847dac>
    bc54:	00000000 	andeq	r0, r0, r0
    bc58:	756f6261 	strbvc	r6, [pc, #-609]!	; b9ff <__FUNCTION__.4390+0x257>
    bc5c:	6f742074 	svcvs	0x00742074
    bc60:	69727020 	ldmdbvs	r2!, {r5, ip, sp, lr}^
    bc64:	6f20746e 	svcvs	0x0020746e
    bc68:	6572206e 	ldrbvs	r2, [r2, #-110]!	; 0x6e
    bc6c:	616c7567 	cmnvs	ip, r7, ror #10
    bc70:	72702072 	rsbsvc	r2, r0, #114	; 0x72
    bc74:	66746e69 	ldrbtvs	r6, [r4], -r9, ror #28
    bc78:	0000000a 	andeq	r0, r0, sl
    bc7c:	63637573 	cmnvs	r3, #482344960	; 0x1cc00000
    bc80:	21737365 	cmncs	r3, r5, ror #6
    bc84:	0000000a 	andeq	r0, r0, sl

0000bc88 <__FUNCTION__.4172>:
    bc88:	6c616d6b 	stclvs	13, cr6, [r1], #-428	; 0xfffffe54
    bc8c:	00636f6c 	rsbeq	r6, r3, ip, ror #30

0000bc90 <__FUNCTION__.4179>:
    bc90:	6c616d6b 	stclvs	13, cr6, [r1], #-428	; 0xfffffe54
    bc94:	5f636f6c 	svcpl	0x00636f6c
    bc98:	67696c61 	strbvs	r6, [r9, -r1, ror #24]!
    bc9c:	0064656e 	rsbeq	r6, r4, lr, ror #10

0000bca0 <__FUNCTION__.4184>:
    bca0:	6c616d6b 	stclvs	13, cr6, [r1], #-428	; 0xfffffe54
    bca4:	5f636f6c 	svcpl	0x00636f6c
    bca8:	74696e69 	strbtvc	r6, [r9], #-3689	; 0xe69
    bcac:	00000000 	andeq	r0, r0, r0

0000bcb0 <__FUNCTION__.4194>:
    bcb0:	6c616d6b 	stclvs	13, cr6, [r1], #-428	; 0xfffffe54
    bcb4:	5f636f6c 	svcpl	0x00636f6c
    bcb8:	74696e69 	strbtvc	r6, [r9], #-3689	; 0xe69
    bcbc:	7465735f 	strbtvc	r7, [r5], #-863	; 0x35f
    bcc0:	6174735f 	cmnvs	r4, pc, asr r3
    bcc4:	00007472 	andeq	r7, r0, r2, ror r4
    bcc8:	4f525245 	svcmi	0x00525245
    bccc:	73253a52 	teqvc	r5, #335872	; 0x52000
    bcd0:	3a73253a 	bcc	1cd51c0 <__bss_end__+0x1cc8e90>
    bcd4:	203a6425 	eorscs	r6, sl, r5, lsr #8
    bcd8:	534c4146 	movtpl	r4, #49478	; 0xc146
    bcdc:	693c2845 	ldmdbvs	ip!, {r0, r2, r6, fp, sp}
    bce0:	5f74696e 	svcpl	0x0074696e
    bce4:	3a293e70 	bcc	a5b6ac <__bss_end__+0xa4f37c>
    bce8:	6c616320 	stclvs	3, cr6, [r1], #-128	; 0xffffff80
    bcec:	676e696c 	strbvs	r6, [lr, -ip, ror #18]!
    bcf0:	66656220 	strbtvs	r6, [r5], -r0, lsr #4
    bcf4:	2065726f 	rsbcs	r7, r5, pc, ror #4
    bcf8:	74696e69 	strbtvc	r6, [r9], #-3689	; 0xe69
    bcfc:	696c6169 	stmdbvs	ip!, {r0, r3, r5, r6, r8, sp, lr}^
    bd00:	0a64657a 	beq	19252f0 <__bss_end__+0x1918fc0>
    bd04:	00000000 	andeq	r0, r0, r0
    bd08:	732d796d 	teqvc	sp, #1785856	; 0x1b4000
    bd0c:	6b2f6372 	blvs	be4adc <__bss_end__+0xbd87ac>
    bd10:	6c6c616d 	stfvse	f6, [ip], #-436	; 0xfffffe4c
    bd14:	632e636f 	teqvs	lr, #-1140850687	; 0xbc000001
    bd18:	00000000 	andeq	r0, r0, r0
    bd1c:	4f525245 	svcmi	0x00525245
    bd20:	73253a52 	teqvc	r5, #335872	; 0x52000
    bd24:	3a73253a 	bcc	1cd5214 <__bss_end__+0x1cc8ee4>
    bd28:	203a6425 	eorscs	r6, sl, r5, lsr #8
    bd2c:	534c4146 	movtpl	r4, #49478	; 0xc146
    bd30:	613c2845 	teqvs	ip, r5, asr #16
    bd34:	6e67696c 	cdpvs	9, 6, cr6, cr7, cr12, {3}
    bd38:	746e656d 	strbtvc	r6, [lr], #-1389	; 0x56d
    bd3c:	38202520 	stmdacc	r0!, {r5, r8, sl, sp}
    bd40:	203d3d20 	eorscs	r3, sp, r0, lsr #26
    bd44:	3a293e30 	bcc	a5b60c <__bss_end__+0xa4f2dc>
    bd48:	65772220 	ldrbvs	r2, [r7, #-544]!	; 0x220
    bd4c:	20647269 	rsbcs	r7, r4, r9, ror #4
    bd50:	67696c61 	strbvs	r6, [r9, -r1, ror #24]!
    bd54:	6e656d6e 	cdpvs	13, 6, cr6, cr5, cr14, {3}
    bd58:	6e203a74 	mcrvs	10, 1, r3, cr0, cr4, {3}
    bd5c:	6120746f 	teqvs	r0, pc, ror #8
    bd60:	6c756d20 	ldclvs	13, cr6, [r5], #-128	; 0xffffff80
    bd64:	6c706974 	ldclvs	9, cr6, [r0], #-464	; 0xfffffe30
    bd68:	666f2065 	strbtvs	r2, [pc], -r5, rrx
    bd6c:	22213420 	eorcs	r3, r1, #32, 8	; 0x20000000
    bd70:	0000000a 	andeq	r0, r0, sl
    bd74:	4f525245 	svcmi	0x00525245
    bd78:	73253a52 	teqvc	r5, #335872	; 0x52000
    bd7c:	3a73253a 	bcc	1cd526c <__bss_end__+0x1cc8f3c>
    bd80:	203a6425 	eorscs	r6, sl, r5, lsr #8
    bd84:	534c4146 	movtpl	r4, #49478	; 0xc146
    bd88:	213c2845 	teqcs	ip, r5, asr #16
    bd8c:	74696e69 	strbtvc	r6, [r9], #-3689	; 0xe69
    bd90:	293e705f 	ldmdbcs	lr!, {r0, r1, r2, r3, r4, r6, ip, sp, lr}
    bd94:	6163203a 	cmnvs	r3, sl, lsr r0
    bd98:	746f6e6e 	strbtvc	r6, [pc], #-3694	; bda0 <__FUNCTION__.4194+0xf0>
    bd9c:	696e6920 	stmdbvs	lr!, {r5, r8, fp, sp, lr}^
    bda0:	6c616974 	stclvs	9, cr6, [r1], #-464	; 0xfffffe30
    bda4:	20657a69 	rsbcs	r7, r5, r9, ror #20
    bda8:	63697774 	cmnvs	r9, #116, 14	; 0x1d00000
    bdac:	0a0a2165 	beq	294348 <__bss_end__+0x288018>
    bdb0:	00000000 	andeq	r0, r0, r0

0000bdb4 <__FUNCTION__.4277>:
    bdb4:	755f7773 	ldrbvc	r7, [pc, #-1907]	; b649 <__FUNCTION__.4365+0x365>
    bdb8:	5f747261 	svcpl	0x00747261
    bdbc:	73746567 	cmnvc	r4, #432013312	; 0x19c00000
    bdc0:	746e755f 	strbtvc	r7, [lr], #-1375	; 0x55f
    bdc4:	00006c69 	andeq	r6, r0, r9, ror #24

0000bdc8 <__FUNCTION__.4289>:
    bdc8:	755f7773 	ldrbvc	r7, [pc, #-1907]	; b65d <__FUNCTION__.4365+0x379>
    bdcc:	5f747261 	svcpl	0x00747261
    bdd0:	73746567 	cmnvc	r4, #432013312	; 0x19c00000
    bdd4:	6d69745f 	cfstrdvs	mvd7, [r9, #-380]!	; 0xfffffe84
    bdd8:	74756f65 	ldrbtvc	r6, [r5], #-3941	; 0xf65
    bddc:	00000000 	andeq	r0, r0, r0

0000bde0 <__FUNCTION__.4303>:
    bde0:	755f7773 	ldrbvc	r7, [pc, #-1907]	; b675 <__FUNCTION__.4365+0x391>
    bde4:	5f747261 	svcpl	0x00747261
    bde8:	74696e69 	strbtvc	r6, [r9], #-3689	; 0xe69
    bdec:	6c65685f 	stclvs	8, cr6, [r5], #-380	; 0xfffffe84
    bdf0:	00726570 	rsbseq	r6, r2, r0, ror r5

0000bdf4 <__FUNCTION__.4309>:
    bdf4:	755f7773 	ldrbvc	r7, [pc, #-1907]	; b689 <__FUNCTION__.4365+0x3a5>
    bdf8:	5f747261 	svcpl	0x00747261
    bdfc:	63746567 	cmnvs	r4, #432013312	; 0x19c00000
    be00:	00000000 	andeq	r0, r0, r0

0000be04 <__FUNCTION__.4331>:
    be04:	755f7773 	ldrbvc	r7, [pc, #-1907]	; b699 <__FUNCTION__.4365+0x3b5>
    be08:	5f747261 	svcpl	0x00747261
    be0c:	6e697270 	mcrvs	2, 3, r7, cr9, cr0, {3}
    be10:	00006b74 	andeq	r6, r0, r4, ror fp

0000be14 <__FUNCTION__.4339>:
    be14:	755f7773 	ldrbvc	r7, [pc, #-1907]	; b6a9 <__FUNCTION__.4365+0x3c5>
    be18:	5f747261 	svcpl	0x00747261
    be1c:	73746567 	cmnvc	r4, #432013312	; 0x19c00000
    be20:	746e755f 	strbtvc	r7, [lr], #-1375	; 0x55f
    be24:	625f6c69 	subsvs	r6, pc, #26880	; 0x6900
    be28:	00006b6c 	andeq	r6, r0, ip, ror #22
    be2c:	494e4150 	stmdbmi	lr, {r4, r6, r8, lr}^
    be30:	73253a43 	teqvc	r5, #274432	; 0x43000
    be34:	3a73253a 	bcc	1cd5324 <__bss_end__+0x1cc8ff4>
    be38:	6e3a6425 	cdpvs	4, 3, cr6, cr10, cr5, {1}
    be3c:	65747962 	ldrbvs	r7, [r4, #-2402]!	; 0x962
    be40:	0a303e73 	beq	c1b814 <__bss_end__+0xc0f4e4>
    be44:	00000000 	andeq	r0, r0, r0
    be48:	732d796d 	teqvc	sp, #1785856	; 0x1b4000
    be4c:	732f6372 	teqvc	pc, #-939524095	; 0xc8000001
    be50:	61752d77 	cmnvs	r5, r7, ror sp
    be54:	632e7472 	teqvs	lr, #1912602624	; 0x72000000
    be58:	00000000 	andeq	r0, r0, r0
    be5c:	494e4150 	stmdbmi	lr, {r4, r6, r8, lr}^
    be60:	73253a43 	teqvc	r5, #274432	; 0x43000
    be64:	3a73253a 	bcc	1cd5354 <__bss_end__+0x1cc9024>
    be68:	283a6425 	ldmdacs	sl!, {r0, r2, r5, sl, sp, lr}
    be6c:	207a686d 	rsbscs	r6, sl, sp, ror #16
    be70:	6162202d 	cmnvs	r2, sp, lsr #32
    be74:	20296475 	eorcs	r6, r9, r5, ror r4
    be78:	64203d3c 	strtvs	r3, [r0], #-3388	; 0xd3c
    be7c:	76697265 	strbtvc	r7, [r9], -r5, ror #4
    be80:	26206465 	strtcs	r6, [r0], -r5, ror #8
    be84:	65642026 	strbvs	r2, [r4, #-38]!	; 0x26
    be88:	65766972 	ldrbvs	r6, [r6, #-2418]!	; 0x972
    be8c:	3d3c2064 	ldccc	0, cr2, [ip, #-400]!	; 0xfffffe70
    be90:	686d2820 	stmdavs	sp!, {r5, fp, sp}^
    be94:	202b207a 	eorcs	r2, fp, sl, ror r0
    be98:	64756162 	ldrbtvs	r6, [r5], #-354	; 0x162
    be9c:	00000a29 	andeq	r0, r0, r9, lsr #20
    bea0:	494e4150 	stmdbmi	lr, {r4, r6, r8, lr}^
    bea4:	73253a43 	teqvc	r5, #274432	; 0x43000
    bea8:	3a73253a 	bcc	1cd5398 <__bss_end__+0x1cc9068>
    beac:	693a6425 	ldmdbvs	sl!, {r0, r2, r5, sl, sp, lr}
    beb0:	736f706d 	cmnvc	pc, #109	; 0x6d
    beb4:	6c626973 	stclvs	9, cr6, [r2], #-460	; 0xfffffe34
    beb8:	68203a65 	stmdavs	r0!, {r0, r2, r5, r6, r9, fp, ip, sp}
    bebc:	20657661 	rsbcs	r7, r5, r1, ror #12
    bec0:	69206e61 	stmdbvs	r0!, {r0, r5, r6, r9, sl, fp, sp, lr}
    bec4:	6e69666e 	cdpvs	6, 6, cr6, cr9, cr14, {3}
    bec8:	20657469 	rsbcs	r7, r5, r9, ror #8
    becc:	656d6974 	strbvs	r6, [sp, #-2420]!	; 0x974
    bed0:	2174756f 	cmncs	r4, pc, ror #10
    bed4:	00000a0a 	andeq	r0, r0, sl, lsl #20
    bed8:	494e4150 	stmdbmi	lr, {r4, r6, r8, lr}^
    bedc:	73253a43 	teqvc	r5, #274432	; 0x43000
    bee0:	3a73253a 	bcc	1cd53d0 <__bss_end__+0x1cc90a0>
    bee4:	733a6425 	teqvc	sl, #620756992	; 0x25000000
    bee8:	203c207a 	eorscs	r2, ip, sl, ror r0
    beec:	657a6973 	ldrbvs	r6, [sl, #-2419]!	; 0x973
    bef0:	6220666f 	eorvs	r6, r0, #116391936	; 0x6f00000
    bef4:	312d6675 	teqcc	sp, r5, ror r6
    bef8:	0000000a 	andeq	r0, r0, sl

Disassembly of section .bss:

0000befc <__bss_start__>:
	...

0000c2fc <console_uart>:
	...

0000c308 <init_p>:
    c308:	00000000 	andeq	r0, r0, r0

0000c30c <heap_ptr>:
    c30c:	00000000 	andeq	r0, r0, r0

0000c310 <sd_ocr>:
    c310:	00000000 	andeq	r0, r0, r0

0000c314 <sd_err>:
    c314:	00000000 	andeq	r0, r0, r0

0000c318 <sd_rca>:
    c318:	00000000 	andeq	r0, r0, r0

0000c31c <sd_scr>:
	...

0000c324 <rpi_arm_timer_t>:
    c324:	00000000 	andeq	r0, r0, r0

0000c328 <sd_hv>:
	...

Disassembly of section .ARM.attributes:

00000000 <.ARM.attributes>:
   0:	00002a41 	andeq	r2, r0, r1, asr #20
   4:	61656100 	cmnvs	r5, r0, lsl #2
   8:	01006962 	tsteq	r0, r2, ror #18
   c:	00000020 	andeq	r0, r0, r0, lsr #32
  10:	4b5a3605 	blmi	168d82c <__bss_end__+0x16814fc>
  14:	08070600 	stmdaeq	r7, {r9, sl}
  18:	12010901 	andne	r0, r1, #16384	; 0x4000
  1c:	15011404 	strne	r1, [r1, #-1028]	; 0x404
  20:	18031701 	stmdane	r3, {r0, r8, r9, sl, ip}
  24:	22011a01 	andcs	r1, r1, #4096	; 0x1000
  28:	Address 0x0000000000000028 is out of bounds.


Disassembly of section .comment:

00000000 <.comment>:
   0:	3a434347 	bcc	10d0d24 <__bss_end__+0x10c49f4>
   4:	4e472820 	cdpmi	8, 4, cr2, cr7, cr0, {1}
   8:	34202955 	strtcc	r2, [r0], #-2389	; 0x955
   c:	332e382e 	teqcc	lr, #3014656	; 0x2e0000
	...

Disassembly of section .debug_info:

00000000 <.debug_info>:
       0:	000007c0 	andeq	r0, r0, r0, asr #15
       4:	00000004 	andeq	r0, r0, r4
       8:	01040000 	mrseq	r0, (UNDEF: 4)
       c:	00000047 	andeq	r0, r0, r7, asr #32
      10:	00019c01 	andeq	r9, r1, r1, lsl #24
      14:	00011500 	andeq	r1, r1, r0, lsl #10
      18:	00801000 	addeq	r1, r0, r0
      1c:	00028800 	andeq	r8, r2, r0, lsl #16
      20:	00000000 	andeq	r0, r0, r0
      24:	05040200 	streq	r0, [r4, #-512]	; 0x200
      28:	00746e69 	rsbseq	r6, r4, r9, ror #28
      2c:	00000003 	andeq	r0, r0, r3
      30:	37d40300 	ldrbcc	r0, [r4, r0, lsl #6]
      34:	04000000 	streq	r0, [r0], #-0
      38:	01af0704 			; <UNDEFINED> instruction: 0x01af0704
      3c:	01040000 	mrseq	r0, (UNDEF: 4)
      40:	00010906 	andeq	r0, r1, r6, lsl #18
      44:	05020400 	streq	r0, [r2, #-1024]	; 0x400
      48:	00000202 	andeq	r0, r0, r2, lsl #4
      4c:	e2050404 	and	r0, r5, #4, 8	; 0x4000000
      50:	04000001 	streq	r0, [r0], #-1
      54:	01dd0508 	bicseq	r0, sp, r8, lsl #10
      58:	bc030000 	stclt	0, cr0, [r3], {-0}
      5c:	04000001 	streq	r0, [r0], #-1
      60:	0000652e 	andeq	r6, r0, lr, lsr #10
      64:	08010400 	stmdaeq	r1, {sl}
      68:	00000107 	andeq	r0, r0, r7, lsl #2
      6c:	00020c03 	andeq	r0, r2, r3, lsl #24
      70:	77310400 	ldrvc	r0, [r1, -r0, lsl #8]!
      74:	04000000 	streq	r0, [r0], #-0
      78:	00ec0702 	rsceq	r0, ip, r2, lsl #14
      7c:	1f030000 	svcne	0x00030000
      80:	04000002 	streq	r0, [r0], #-2
      84:	00008934 	andeq	r8, r0, r4, lsr r9
      88:	07040400 	streq	r0, [r4, -r0, lsl #8]
      8c:	000001aa 	andeq	r0, r0, sl, lsr #3
      90:	a5070804 	strge	r0, [r7, #-2052]	; 0x804
      94:	04000001 	streq	r0, [r0], #-1
      98:	01d40704 	bicseq	r0, r4, r4, lsl #14
      9c:	04050000 	streq	r0, [r5], #-0
      a0:	00650406 	rsbeq	r0, r5, r6, lsl #8
      a4:	01040000 	mrseq	r0, (UNDEF: 4)
      a8:	00011008 	andeq	r1, r1, r8
      ac:	b3040600 	movwlt	r0, #17920	; 0x4600
      b0:	07000000 	streq	r0, [r0, -r0]
      b4:	000000a6 	andeq	r0, r0, r6, lsr #1
      b8:	0000a608 	andeq	sl, r0, r8, lsl #12
      bc:	0000c800 	andeq	ip, r0, r0, lsl #16
      c0:	00970900 	addseq	r0, r7, r0, lsl #18
      c4:	00070000 	andeq	r0, r7, r0
      c8:	72626d0a 	rsbvc	r6, r2, #640	; 0x280
      cc:	02020000 	andeq	r0, r2, #0
      d0:	00012337 	andeq	r2, r1, r7, lsr r3
      d4:	016d0b00 	cmneq	sp, r0, lsl #22
      d8:	38020000 	stmdacc	r2, {}	; <UNPREDICTABLE>
      dc:	00000123 	andeq	r0, r0, r3, lsr #2
      e0:	00d50c00 	sbcseq	r0, r5, r0, lsl #24
      e4:	39020000 	stmdbcc	r2, {}	; <UNPREDICTABLE>
      e8:	00000134 	andeq	r0, r0, r4, lsr r1
      ec:	4b0c01be 	blmi	3007ec <__bss_end__+0x2f44bc>
      f0:	02000002 	andeq	r0, r0, #2
      f4:	0001343a 	andeq	r3, r1, sl, lsr r4
      f8:	0c01ce00 	stceq	14, cr12, [r1], {-0}
      fc:	00000255 	andeq	r0, r0, r5, asr r2
     100:	01343b02 	teqeq	r4, r2, lsl #22
     104:	01de0000 	bicseq	r0, lr, r0
     108:	00025f0c 	andeq	r5, r2, ip, lsl #30
     10c:	343c0200 	ldrtcc	r0, [ip], #-512	; 0x200
     110:	ee000001 	cdp	0, 0, cr0, cr0, cr1, {0}
     114:	02280c01 	eoreq	r0, r8, #256	; 0x100
     118:	3d020000 	stccc	0, cr0, [r2, #-0]
     11c:	0000006c 	andeq	r0, r0, ip, rrx
     120:	080001fe 	stmdaeq	r0, {r1, r2, r3, r4, r5, r6, r7, r8}
     124:	0000005a 	andeq	r0, r0, sl, asr r0
     128:	00000134 	andeq	r0, r0, r4, lsr r1
     12c:	0000970d 	andeq	r9, r0, sp, lsl #14
     130:	0001bd00 	andeq	fp, r1, r0, lsl #26
     134:	00005a08 	andeq	r5, r0, r8, lsl #20
     138:	00014400 	andeq	r4, r1, r0, lsl #8
     13c:	00970900 	addseq	r0, r7, r0, lsl #18
     140:	000f0000 	andeq	r0, pc, r0
     144:	0001c40e 	andeq	ip, r1, lr, lsl #8
     148:	42021000 	andmi	r1, r2, #0
     14c:	000001a5 	andeq	r0, r0, r5, lsr #3
     150:	0001910f 	andeq	r9, r1, pc, lsl #2
     154:	7e430200 	cdpvc	2, 4, cr0, cr3, cr0, {0}
     158:	04000000 	streq	r0, [r0], #-0
     15c:	0f001808 	svceq	0x00001808
     160:	00000269 	andeq	r0, r0, r9, ror #4
     164:	007e4402 	rsbseq	r4, lr, r2, lsl #8
     168:	18040000 	stmdane	r4, {}	; <UNPREDICTABLE>
     16c:	110f0000 	mrsne	r0, CPSR
     170:	02000000 	andeq	r0, r0, #0
     174:	00007e45 	andeq	r7, r0, r5, asr #28
     178:	18080400 	stmdane	r8, {sl}
     17c:	00ba0f04 	adcseq	r0, sl, r4, lsl #30
     180:	46020000 	strmi	r0, [r2], -r0
     184:	0000007e 	andeq	r0, r0, lr, ror r0
     188:	04001804 	streq	r1, [r0], #-2052	; 0x804
     18c:	0000070b 	andeq	r0, r0, fp, lsl #14
     190:	7e470200 	cdpvc	2, 4, cr0, cr7, cr0, {0}
     194:	08000000 	stmdaeq	r0, {}	; <UNPREDICTABLE>
     198:	0001eb0b 	andeq	lr, r1, fp, lsl #22
     19c:	7e480200 	cdpvc	2, 4, cr0, cr8, cr0, {0}
     1a0:	0c000000 	stceq	0, cr0, [r0], {-0}
     1a4:	017f1000 	cmneq	pc, r0
     1a8:	4c020000 	stcmi	0, cr0, [r2], {-0}
     1ac:	00000025 	andeq	r0, r0, r5, lsr #32
     1b0:	0001bf03 	andeq	fp, r1, r3, lsl #30
     1b4:	00741100 	rsbseq	r1, r4, r0, lsl #2
     1b8:	00254c02 	eoreq	r4, r5, r2, lsl #24
     1bc:	12000000 	andne	r0, r0, #0
     1c0:	000001f0 	strdeq	r0, [r0], -r0	; <UNPREDICTABLE>
     1c4:	00250a01 	eoreq	r0, r5, r1, lsl #20
     1c8:	80100000 	andshi	r0, r0, r0
     1cc:	00600000 	rsbeq	r0, r0, r0
     1d0:	9c010000 	stcls	0, cr0, [r1], {-0}
     1d4:	0000028d 	andeq	r0, r0, sp, lsl #5
     1d8:	00096b13 	andeq	r6, r9, r3, lsl fp
     1dc:	9e0a0100 	adflse	f0, f2, f0
     1e0:	00000000 	andeq	r0, r0, r0
     1e4:	14000000 	strne	r0, [r0], #-0
     1e8:	0061626c 	rsbeq	r6, r1, ip, ror #4
     1ec:	007e0a01 	rsbseq	r0, lr, r1, lsl #20
     1f0:	002c0000 	eoreq	r0, ip, r0
     1f4:	eb130000 	bl	4c01fc <__bss_end__+0x4b3ecc>
     1f8:	01000001 	tsteq	r0, r1
     1fc:	00007e0a 	andeq	r7, r0, sl, lsl #28
     200:	00005800 	andeq	r5, r0, r0, lsl #16
     204:	65721500 	ldrbvs	r1, [r2, #-1280]!	; 0x500
     208:	0b010073 	bleq	403dc <__bss_end__+0x340ac>
     20c:	00000025 	andeq	r0, r0, r5, lsr #32
     210:	00000084 	andeq	r0, r0, r4, lsl #1
     214:	00017216 	andeq	r7, r1, r6, lsl r2
     218:	00029d00 	andeq	r9, r2, r0, lsl #26
     21c:	c0030500 	andgt	r0, r3, r0, lsl #10
     220:	170000b2 			; <UNDEFINED> instruction: 0x170000b2
     224:	0000802c 	andeq	r8, r0, ip, lsr #32
     228:	000006e8 	andeq	r0, r0, r8, ror #13
     22c:	00000245 	andeq	r0, r0, r5, asr #4
     230:	02520118 	subseq	r0, r2, #24, 2
     234:	01180075 	tsteq	r8, r5, ror r0
     238:	01f30351 	mvnseq	r0, r1, asr r3
     23c:	50011850 	andpl	r1, r1, r0, asr r8
     240:	5101f303 	tstpl	r1, r3, lsl #6
     244:	803c1900 	eorshi	r1, ip, r0, lsl #18
     248:	07070000 	streq	r0, [r7, -r0]
     24c:	54170000 	ldrpl	r0, [r7], #-0
     250:	0e000080 	cdpeq	0, 0, cr0, cr0, cr0, {4}
     254:	83000007 	movwhi	r0, #7
     258:	18000002 	stmdane	r0, {r1}
     25c:	3d015301 	stccc	3, cr5, [r1, #-4]
     260:	05520118 	ldrbeq	r0, [r2, #-280]	; 0x118
     264:	00b2c003 	adcseq	ip, r2, r3
     268:	51011800 	tstpl	r1, r0, lsl #16
     26c:	b3280305 	teqlt	r8, #335544320	; 0x14000000
     270:	01180000 	tsteq	r8, r0
     274:	ec030550 	cfstr32	mvfx0, [r3], {80}	; 0x50
     278:	180000b2 	stmdane	r0, {r1, r4, r5, r7}
     27c:	02007d02 	andeq	r7, r0, #2, 26	; 0x80
     280:	19000074 	stmdbne	r0, {r2, r4, r5, r6}
     284:	00008058 	andeq	r8, r0, r8, asr r0
     288:	00000724 	andeq	r0, r0, r4, lsr #14
     28c:	00a60800 	adceq	r0, r6, r0, lsl #16
     290:	029d0000 	addseq	r0, sp, #0
     294:	97090000 	strls	r0, [r9, -r0]
     298:	0a000000 	beq	2a0 <_start-0x7d60>
     29c:	028d0700 	addeq	r0, sp, #0, 14
     2a0:	1b120000 	blne	4802a8 <__bss_end__+0x473f78>
     2a4:	01000000 	mrseq	r0, (UNDEF: 0)
     2a8:	00002510 	andeq	r2, r0, r0, lsl r5
     2ac:	00807000 	addeq	r7, r0, r0
     2b0:	00004000 	andeq	r4, r0, r0
     2b4:	149c0100 	ldrne	r0, [ip], #256	; 0x100
     2b8:	16000003 	strne	r0, [r0], -r3
     2bc:	00000172 	andeq	r0, r0, r2, ror r1
     2c0:	00000314 	andeq	r0, r0, r4, lsl r3
     2c4:	b2cc0305 	sbclt	r0, ip, #335544320	; 0x14000000
     2c8:	78190000 	ldmdavc	r9, {}	; <UNPREDICTABLE>
     2cc:	2b000080 	blcs	4d4 <_start-0x7b2c>
     2d0:	19000007 	stmdbne	r0, {r0, r1, r2}
     2d4:	00008084 	andeq	r8, r0, r4, lsl #1
     2d8:	00000707 	andeq	r0, r0, r7, lsl #14
     2dc:	00809817 	addeq	r9, r0, r7, lsl r8
     2e0:	00070e00 	andeq	r0, r7, r0, lsl #28
     2e4:	00030a00 	andeq	r0, r3, r0, lsl #20
     2e8:	53011800 	movwpl	r1, #6144	; 0x1800
     2ec:	01184201 	tsteq	r8, r1, lsl #4
     2f0:	cc030552 	cfstr32gt	mvfx0, [r3], {82}	; 0x52
     2f4:	180000b2 	stmdane	r0, {r1, r4, r5, r7}
     2f8:	03055101 	movweq	r5, #20737	; 0x5101
     2fc:	0000b328 	andeq	fp, r0, r8, lsr #6
     300:	05500118 	ldrbeq	r0, [r0, #-280]	; 0x118
     304:	00b33403 	adcseq	r3, r3, r3, lsl #8
     308:	9c190000 	ldcls	0, cr0, [r9], {-0}
     30c:	24000080 	strcs	r0, [r0], #-128	; 0x80
     310:	00000007 	andeq	r0, r0, r7
     314:	00028d07 	andeq	r8, r2, r7, lsl #26
     318:	00cc1200 	sbceq	r1, ip, r0, lsl #4
     31c:	18010000 	stmdane	r1, {}	; <UNPREDICTABLE>
     320:	0000009e 	muleq	r0, lr, r0
     324:	000080b0 	strheq	r8, [r0], -r0
     328:	0000005c 	andeq	r0, r0, ip, asr r0
     32c:	03e59c01 	mvneq	r9, #256	; 0x100
     330:	6c140000 	ldcvs	0, cr0, [r4], {-0}
     334:	01006162 	tsteq	r0, r2, ror #2
     338:	00007e18 	andeq	r7, r0, r8, lsl lr
     33c:	0000b800 	andeq	fp, r0, r0, lsl #16
     340:	01eb1300 	mvneq	r1, r0, lsl #6
     344:	18010000 	stmdane	r1, {}	; <UNPREDICTABLE>
     348:	0000007e 	andeq	r0, r0, lr, ror r0
     34c:	000000d6 	ldrdeq	r0, [r0], -r6
     350:	00096b1a 	andeq	r6, r9, sl, lsl fp
     354:	e5190100 	ldr	r0, [r9, #-256]	; 0x100
     358:	f4000003 	vst4.8	{d0-d3}, [r0], r3
     35c:	16000000 	strne	r0, [r0], -r0
     360:	00000172 	andeq	r0, r0, r2, ror r1
     364:	000003fb 	strdeq	r0, [r0], -fp
     368:	b2d80305 	sbcslt	r0, r8, #335544320	; 0x14000000
     36c:	c4170000 	ldrgt	r0, [r7], #-0
     370:	3c000080 	stccc	0, cr0, [r0], {128}	; 0x80
     374:	84000007 	strhi	r0, [r0], #-7
     378:	18000003 	stmdane	r0, {r0, r1}
     37c:	74045001 	strvc	r5, [r4], #-1
     380:	00243900 	eoreq	r3, r4, r0, lsl #18
     384:	0080d417 	addeq	sp, r0, r7, lsl r4
     388:	0001bf00 	andeq	fp, r1, r0, lsl #30
     38c:	0003a400 	andeq	sl, r3, r0, lsl #8
     390:	52011800 	andpl	r1, r1, #0, 16
     394:	18007402 	stmdane	r0, {r1, sl, ip, sp, lr}
     398:	75025101 	strvc	r5, [r2, #-257]	; 0x101
     39c:	50011800 	andpl	r1, r1, r0, lsl #16
     3a0:	00007602 	andeq	r7, r0, r2, lsl #12
     3a4:	0080e019 	addeq	lr, r0, r9, lsl r0
     3a8:	00070700 	andeq	r0, r7, r0, lsl #14
     3ac:	80f41700 	rscshi	r1, r4, r0, lsl #14
     3b0:	070e0000 	streq	r0, [lr, -r0]
     3b4:	03db0000 	bicseq	r0, fp, #0
     3b8:	01180000 	tsteq	r8, r0
     3bc:	184b0153 	stmdane	fp, {r0, r1, r4, r6, r8}^
     3c0:	03055201 	movweq	r5, #20993	; 0x5201
     3c4:	0000b2d8 	ldrdeq	fp, [r0], -r8
     3c8:	05510118 	ldrbeq	r0, [r1, #-280]	; 0x118
     3cc:	00b32803 	adcseq	r2, r3, r3, lsl #16
     3d0:	50011800 	andpl	r1, r1, r0, lsl #16
     3d4:	b3540305 	cmplt	r4, #335544320	; 0x14000000
     3d8:	19000000 	stmdbne	r0, {}	; <UNPREDICTABLE>
     3dc:	000080f8 	strdeq	r8, [r0], -r8	; <UNPREDICTABLE>
     3e0:	00000724 	andeq	r0, r0, r4, lsr #14
     3e4:	5a040600 	bpl	101bec <__bss_end__+0xf58bc>
     3e8:	08000000 	stmdaeq	r0, {}	; <UNPREDICTABLE>
     3ec:	000000a6 	andeq	r0, r0, r6, lsr #1
     3f0:	000003fb 	strdeq	r0, [r0], -fp
     3f4:	00009709 	andeq	r9, r0, r9, lsl #14
     3f8:	07000800 	streq	r0, [r0, -r0, lsl #16]
     3fc:	000003eb 	andeq	r0, r0, fp, ror #7
     400:	00009e1b 	andeq	r9, r0, fp, lsl lr
     404:	0c1f0100 	ldfeqs	f0, [pc], {-0}
     408:	8c000081 	stchi	0, cr0, [r0], {129}	; 0x81
     40c:	01000001 	tsteq	r0, r1
     410:	0006dd9c 	muleq	r6, ip, sp
     414:	626d1500 	rsbvs	r1, sp, #0, 10
     418:	28010072 	stmdacs	r1, {r1, r4, r5, r6}
     41c:	000006dd 	ldrdeq	r0, [r0], -sp
     420:	00000112 	andeq	r0, r0, r2, lsl r1
     424:	0100701c 	tsteq	r0, ip, lsl r0
     428:	0001442e 	andeq	r4, r1, lr, lsr #8
     42c:	60910200 	addsvs	r0, r1, r0, lsl #4
     430:	00017216 	andeq	r7, r1, r6, lsl r2
     434:	0006e300 	andeq	lr, r6, r0, lsl #6
     438:	e4030500 	str	r0, [r3], #-1280	; 0x500
     43c:	1d0000b2 	stcne	0, cr0, [r0, #-712]	; 0xfffffd38
     440:	000001a5 	andeq	r0, r0, r5, lsr #3
     444:	00008180 	andeq	r8, r0, r0, lsl #3
     448:	00000004 	andeq	r0, r0, r4
     44c:	045c3101 	ldrbeq	r3, [ip], #-257	; 0x101
     450:	b51e0000 	ldrlt	r0, [lr, #-0]
     454:	30000001 	andcc	r0, r0, r1
     458:	00000001 	andeq	r0, r0, r1
     45c:	00811819 	addeq	r1, r1, r9, lsl r8
     460:	00075100 	andeq	r5, r7, r0, lsl #2
     464:	811c1900 	tsthi	ip, r0, lsl #18
     468:	07580000 	ldrbeq	r0, [r8, -r0]
     46c:	24170000 	ldrcs	r0, [r7], #-0
     470:	0e000081 	cdpeq	0, 0, cr0, cr0, cr1, {4}
     474:	85000007 	strhi	r0, [r0, #-7]
     478:	18000004 	stmdane	r0, {r2}
     47c:	03055001 	movweq	r5, #20481	; 0x5001
     480:	0000b384 	andeq	fp, r0, r4, lsl #7
     484:	81281900 	teqhi	r8, r0, lsl #18
     488:	02a20000 	adceq	r0, r2, #0
     48c:	30170000 	andscc	r0, r7, r0
     490:	0e000081 	cdpeq	0, 0, cr0, cr0, cr1, {4}
     494:	a5000007 	strge	r0, [r0, #-7]
     498:	18000004 	stmdane	r0, {r2}
     49c:	03055001 	movweq	r5, #20481	; 0x5001
     4a0:	0000b394 	muleq	r0, r4, r3
     4a4:	81381700 	teqhi	r8, r0, lsl #14
     4a8:	070e0000 	streq	r0, [lr, -r0]
     4ac:	04bc0000 	ldrteq	r0, [ip], #0
     4b0:	01180000 	tsteq	r8, r0
     4b4:	a0030550 	andge	r0, r3, r0, asr r5
     4b8:	000000b3 	strheq	r0, [r0], -r3
     4bc:	00814417 	addeq	r4, r1, r7, lsl r4
     4c0:	00031900 	andeq	r1, r3, r0, lsl #18
     4c4:	0004d400 	andeq	sp, r4, r0, lsl #8
     4c8:	51011800 	tstpl	r1, r0, lsl #16
     4cc:	01183101 	tsteq	r8, r1, lsl #2
     4d0:	00300150 	eorseq	r0, r0, r0, asr r1
     4d4:	00815017 	addeq	r5, r1, r7, lsl r0
     4d8:	00070e00 	andeq	r0, r7, r0, lsl #28
     4dc:	0004eb00 	andeq	lr, r4, r0, lsl #22
     4e0:	50011800 	andpl	r1, r1, r0, lsl #16
     4e4:	b3b80305 			; <UNDEFINED> instruction: 0xb3b80305
     4e8:	17000000 	strne	r0, [r0, -r0]
     4ec:	00008158 	andeq	r8, r0, r8, asr r1
     4f0:	0000075f 	andeq	r0, r0, pc, asr r7
     4f4:	000004ff 	strdeq	r0, [r0], -pc	; <UNPREDICTABLE>
     4f8:	02500118 	subseq	r0, r0, #24, 2
     4fc:	17000074 	smlsdxne	r0, r4, r0, r0
     500:	00008170 	andeq	r8, r0, r0, ror r1
     504:	00000770 	andeq	r0, r0, r0, ror r7
     508:	0000051e 	andeq	r0, r0, lr, lsl r5
     50c:	01520118 	cmpeq	r2, r8, lsl r1
     510:	51011840 	tstpl	r1, r0, asr #16
     514:	18007502 	stmdane	r0, {r1, r8, sl, ip, sp, lr}
     518:	7d025001 	stcvc	0, cr5, [r2, #-4]
     51c:	7c170000 	ldcvc	0, cr0, [r7], {-0}
     520:	96000081 	strls	r0, [r0], -r1, lsl #1
     524:	3b000007 	blcc	548 <_start-0x7ab8>
     528:	18000005 	stmdane	r0, {r0, r2}
     52c:	7d025101 	stfvcs	f5, [r2, #-4]
     530:	50011800 	andpl	r1, r1, r0, lsl #16
     534:	b3c80305 	biclt	r0, r8, #335544320	; 0x14000000
     538:	19000000 	stmdbne	r0, {}	; <UNPREDICTABLE>
     53c:	00008190 	muleq	r0, r0, r1
     540:	00000707 	andeq	r0, r0, r7, lsl #14
     544:	0081a417 	addeq	sl, r1, r7, lsl r4
     548:	00070e00 	andeq	r0, r7, r0, lsl #28
     54c:	00057300 	andeq	r7, r5, r0, lsl #6
     550:	53011800 	movwpl	r1, #6144	; 0x1800
     554:	18310802 	ldmdane	r1!, {r1, fp}
     558:	03055201 	movweq	r5, #20993	; 0x5201
     55c:	0000b2e4 	andeq	fp, r0, r4, ror #5
     560:	05510118 	ldrbeq	r0, [r1, #-280]	; 0x118
     564:	00b32803 	adcseq	r2, r3, r3, lsl #16
     568:	50011800 	andpl	r1, r1, r0, lsl #16
     56c:	b3d40305 	bicslt	r0, r4, #335544320	; 0x14000000
     570:	19000000 	stmdbne	r0, {}	; <UNPREDICTABLE>
     574:	000081a8 	andeq	r8, r0, r8, lsr #3
     578:	00000724 	andeq	r0, r0, r4, lsr #14
     57c:	0081b017 	addeq	fp, r1, r7, lsl r0
     580:	0007b200 	andeq	fp, r7, r0, lsl #4
     584:	00059000 	andeq	r9, r5, r0
     588:	50011800 	andpl	r1, r1, r0, lsl #16
     58c:	00007502 	andeq	r7, r0, r2, lsl #10
     590:	0081bc19 	addeq	fp, r1, r9, lsl ip
     594:	00070700 	andeq	r0, r7, r0, lsl #14
     598:	81d01700 	bicshi	r1, r0, r0, lsl #14
     59c:	070e0000 	streq	r0, [lr, -r0]
     5a0:	05c80000 	strbeq	r0, [r8]
     5a4:	01180000 	tsteq	r8, r0
     5a8:	37080253 	smlsdcc	r8, r3, r2, r0
     5ac:	05520118 	ldrbeq	r0, [r2, #-280]	; 0x118
     5b0:	00b2e403 	adcseq	lr, r2, r3, lsl #8
     5b4:	51011800 	tstpl	r1, r0, lsl #16
     5b8:	b3280305 	teqlt	r8, #335544320	; 0x14000000
     5bc:	01180000 	tsteq	r8, r0
     5c0:	04030550 	streq	r0, [r3], #-1360	; 0x550
     5c4:	000000b4 	strheq	r0, [r0], -r4
     5c8:	0081d419 	addeq	sp, r1, r9, lsl r4
     5cc:	00072400 	andeq	r2, r7, r0, lsl #8
     5d0:	81e01700 	mvnhi	r1, r0, lsl #14
     5d4:	07b20000 	ldreq	r0, [r2, r0]!
     5d8:	05e60000 	strbeq	r0, [r6, #0]!
     5dc:	01180000 	tsteq	r8, r0
     5e0:	ce740350 	mrcgt	3, 3, r0, cr4, cr0, {2}
     5e4:	ec190003 	ldc	0, cr0, [r9], {3}
     5e8:	07000081 	streq	r0, [r0, -r1, lsl #1]
     5ec:	17000007 	strne	r0, [r0, -r7]
     5f0:	00008200 	andeq	r8, r0, r0, lsl #4
     5f4:	0000070e 	andeq	r0, r0, lr, lsl #14
     5f8:	0000061e 	andeq	r0, r0, lr, lsl r6
     5fc:	02530118 	subseq	r0, r3, #24, 2
     600:	01183808 	tsteq	r8, r8, lsl #16
     604:	e4030552 	str	r0, [r3], #-1362	; 0x552
     608:	180000b2 	stmdane	r0, {r1, r4, r5, r7}
     60c:	03055101 	movweq	r5, #20737	; 0x5101
     610:	0000b328 	andeq	fp, r0, r8, lsr #6
     614:	05500118 	ldrbeq	r0, [r0, #-280]	; 0x118
     618:	00b44403 	adcseq	r4, r4, r3, lsl #8
     61c:	04190000 	ldreq	r0, [r9], #-0
     620:	24000082 	strcs	r0, [r0], #-130	; 0x82
     624:	17000007 	strne	r0, [r0, -r7]
     628:	00008210 	andeq	r8, r0, r0, lsl r2
     62c:	000007b2 			; <UNDEFINED> instruction: 0x000007b2
     630:	0000063c 	andeq	r0, r0, ip, lsr r6
     634:	03500118 	cmpeq	r0, #24, 2
     638:	0003de74 	andeq	sp, r3, r4, ror lr
     63c:	00821c19 	addeq	r1, r2, r9, lsl ip
     640:	00070700 	andeq	r0, r7, r0, lsl #14
     644:	82301700 	eorshi	r1, r0, #0, 14
     648:	070e0000 	streq	r0, [lr, -r0]
     64c:	06740000 	ldrbteq	r0, [r4], -r0
     650:	01180000 	tsteq	r8, r0
     654:	39080253 	stmdbcc	r8, {r0, r1, r4, r6, r9}
     658:	05520118 	ldrbeq	r0, [r2, #-280]	; 0x118
     65c:	00b2e403 	adcseq	lr, r2, r3, lsl #8
     660:	51011800 	tstpl	r1, r0, lsl #16
     664:	b3280305 	teqlt	r8, #335544320	; 0x14000000
     668:	01180000 	tsteq	r8, r0
     66c:	84030550 	strhi	r0, [r3], #-1360	; 0x550
     670:	000000b4 	strheq	r0, [r0], -r4
     674:	00823419 	addeq	r3, r2, r9, lsl r4
     678:	00072400 	andeq	r2, r7, r0, lsl #8
     67c:	82401700 	subhi	r1, r0, #0, 14
     680:	07b20000 	ldreq	r0, [r2, r0]!
     684:	06920000 	ldreq	r0, [r2], r0
     688:	01180000 	tsteq	r8, r0
     68c:	ee740350 	mrc	3, 3, r0, cr4, cr0, {2}
     690:	4c190003 	ldcmi	0, cr0, [r9], {3}
     694:	07000082 	streq	r0, [r0, -r2, lsl #1]
     698:	17000007 	strne	r0, [r0, -r7]
     69c:	00008260 	andeq	r8, r0, r0, ror #4
     6a0:	0000070e 	andeq	r0, r0, lr, lsl #14
     6a4:	000006ca 	andeq	r0, r0, sl, asr #13
     6a8:	02530118 	subseq	r0, r3, #24, 2
     6ac:	01183a08 	tsteq	r8, r8, lsl #20
     6b0:	e4030552 	str	r0, [r3], #-1362	; 0x552
     6b4:	180000b2 	stmdane	r0, {r1, r4, r5, r7}
     6b8:	03055101 	movweq	r5, #20737	; 0x5101
     6bc:	0000b328 	andeq	fp, r0, r8, lsr #6
     6c0:	05500118 	ldrbeq	r0, [r0, #-280]	; 0x118
     6c4:	00b4c403 	adcseq	ip, r4, r3, lsl #8
     6c8:	64190000 	ldrvs	r0, [r9], #-0
     6cc:	24000082 	strcs	r0, [r0], #-130	; 0x82
     6d0:	19000007 	stmdbne	r0, {r0, r1, r2}
     6d4:	00008268 	andeq	r8, r0, r8, ror #4
     6d8:	00000724 	andeq	r0, r0, r4, lsr #14
     6dc:	c8040600 	stmdagt	r4, {r9, sl}
     6e0:	07000000 	streq	r0, [r0, -r0]
     6e4:	000000b8 	strheq	r0, [r0], -r8
     6e8:	00003a1f 	andeq	r3, r0, pc, lsl sl
     6ec:	251f0500 	ldrcs	r0, [pc, #-1280]	; 1f4 <_start-0x7e0c>
     6f0:	07000000 	streq	r0, [r0, -r0]
     6f4:	20000007 	andcs	r0, r0, r7
     6f8:	00000037 	andeq	r0, r0, r7, lsr r0
     6fc:	0000a020 	andeq	sl, r0, r0, lsr #32
     700:	00372000 	eorseq	r2, r7, r0
     704:	21000000 	mrscs	r0, (UNDEF: 0)
     708:	0000023c 	andeq	r0, r0, ip, lsr r2
     70c:	5e1f1e06 	cdppl	14, 1, cr1, cr15, cr6, {0}
     710:	06000004 	streq	r0, [r0], -r4
     714:	00002529 	andeq	r2, r0, r9, lsr #10
     718:	00072400 	andeq	r2, r7, r0, lsl #8
     71c:	00ad2000 	adceq	r2, sp, r0
     720:	00220000 	eoreq	r0, r2, r0
     724:	0000df21 	andeq	sp, r0, r1, lsr #30
     728:	23660600 	cmncs	r6, #0, 12
     72c:	0000001e 	andeq	r0, r0, lr, lsl r0
     730:	00251e05 	eoreq	r1, r5, r5, lsl #28
     734:	073c0000 	ldreq	r0, [ip, -r0]!
     738:	00220000 	eoreq	r0, r2, r0
     73c:	0000ff1f 	andeq	pc, r0, pc, lsl pc	; <UNPREDICTABLE>
     740:	9e6d0600 	cdpls	6, 6, cr0, cr13, cr0, {0}
     744:	51000000 	mrspl	r0, (UNDEF: 0)
     748:	20000007 	andcs	r0, r0, r7
     74c:	00000037 	andeq	r0, r0, r7, lsr r0
     750:	022f2100 	eoreq	r2, pc, #0, 2
     754:	71060000 	mrsvc	r0, (UNDEF: 6)
     758:	0000c221 	andeq	ip, r0, r1, lsr #4
     75c:	243a0600 	ldrtcs	r0, [sl], #-1536	; 0x600
     760:	00000215 	andeq	r0, r0, r5, lsl r2
     764:	07705202 	ldrbeq	r5, [r0, -r2, lsl #4]!
     768:	dd200000 	stcle	0, cr0, [r0, #-0]
     76c:	00000006 	andeq	r0, r0, r6
     770:	0001fb1f 	andeq	pc, r1, pc, lsl fp	; <UNPREDICTABLE>
     774:	9e190700 	cdpls	7, 1, cr0, cr9, cr0, {0}
     778:	8f000000 	svchi	0x00000000
     77c:	20000007 	andcs	r0, r0, r7
     780:	0000009e 	muleq	r0, lr, r0
     784:	00078f20 	andeq	r8, r7, r0, lsr #30
     788:	002c2000 	eoreq	r2, ip, r0
     78c:	06000000 	streq	r0, [r0], -r0
     790:	00079504 	andeq	r9, r7, r4, lsl #10
     794:	a6242500 	strtge	r2, [r4], -r0, lsl #10
     798:	02000000 	andeq	r0, r0, #0
     79c:	0007ac55 	andeq	sl, r7, r5, asr ip
     7a0:	00ad2000 	adceq	r2, sp, r0
     7a4:	ac200000 	stcge	0, cr0, [r0], #-0
     7a8:	00000007 	andeq	r0, r0, r7
     7ac:	01440406 	cmpeq	r4, r6, lsl #8
     7b0:	26260000 	strtcs	r0, [r6], -r0
     7b4:	02000000 	andeq	r0, r0, #0
     7b8:	00002558 	andeq	r2, r0, r8, asr r5
     7bc:	03e52000 	mvneq	r2, #0
     7c0:	00000000 	andeq	r0, r0, r0
     7c4:	00000cd5 	ldrdeq	r0, [r0], -r5
     7c8:	02160004 	andseq	r0, r6, #4
     7cc:	01040000 	mrseq	r0, (UNDEF: 4)
     7d0:	00000047 	andeq	r0, r0, r7, asr #32
     7d4:	00028e01 	andeq	r8, r2, r1, lsl #28
     7d8:	00011500 	andeq	r1, r1, r0, lsl #10
     7dc:	00829800 	addeq	r9, r2, r0, lsl #16
     7e0:	00104c00 	andseq	r4, r0, r0, lsl #24
     7e4:	0001b100 	andeq	fp, r1, r0, lsl #2
     7e8:	05040200 	streq	r0, [r4, #-512]	; 0x200
     7ec:	00746e69 	rsbseq	r6, r4, r9, ror #28
     7f0:	af070403 	svcge	0x00070403
     7f4:	03000001 	movweq	r0, #1
     7f8:	01090601 	tsteq	r9, r1, lsl #12
     7fc:	02030000 	andeq	r0, r3, #0
     800:	00020205 	andeq	r0, r2, r5, lsl #4
     804:	05040300 	streq	r0, [r4, #-768]	; 0x300
     808:	000001e2 	andeq	r0, r0, r2, ror #3
     80c:	dd050803 	stcle	8, cr0, [r5, #-12]
     810:	03000001 	movweq	r0, #1
     814:	01070801 	tsteq	r7, r1, lsl #16
     818:	02030000 	andeq	r0, r3, #0
     81c:	0000ec07 	andeq	lr, r0, r7, lsl #24
     820:	07040300 	streq	r0, [r4, -r0, lsl #6]
     824:	000001aa 	andeq	r0, r0, sl, lsr #3
     828:	a5070803 	strge	r0, [r7, #-2051]	; 0x803
     82c:	03000001 	movweq	r0, #1
     830:	01d40704 	bicseq	r0, r4, r4, lsl #14
     834:	04040000 	streq	r0, [r4], #-0
     838:	0000004f 	andeq	r0, r0, pc, asr #32
     83c:	10080103 	andne	r0, r8, r3, lsl #2
     840:	04000001 	streq	r0, [r0], #-1
     844:	00008504 	andeq	r8, r0, r4, lsl #10
     848:	00780500 	rsbseq	r0, r8, r0, lsl #10
     84c:	04060000 	streq	r0, [r6], #-0
     850:	00f73303 	rscseq	r3, r7, r3, lsl #6
     854:	1c070000 	stcne	0, cr0, [r7], {-0}
     858:	80000003 	andhi	r0, r0, r3
     85c:	028082e8 	addeq	r8, r0, #232, 4	; 0x8000000e
     860:	0003aa07 	andeq	sl, r3, r7, lsl #20
     864:	82e88000 	rschi	r8, r8, #0
     868:	3c070280 	sfmcc	f0, 4, [r7], {128}	; 0x80
     86c:	84000003 	strhi	r0, [r0], #-3
     870:	028082e8 	addeq	r8, r0, #232, 4	; 0x8000000e
     874:	00037407 	andeq	r7, r3, r7, lsl #8
     878:	82e88800 	rschi	r8, r8, #0, 16
     87c:	4c070280 	sfmmi	f0, 4, [r7], {128}	; 0x80
     880:	8c000003 	stchi	0, cr0, [r0], {3}
     884:	028082e8 	addeq	r8, r0, #232, 4	; 0x8000000e
     888:	00032b07 	andeq	r2, r3, r7, lsl #22
     88c:	82e89000 	rschi	r9, r8, #0
     890:	ac070280 	sfmge	f0, 4, [r7], {128}	; 0x80
     894:	94000002 	strls	r0, [r0], #-2
     898:	028082e8 	addeq	r8, r0, #232, 4	; 0x8000000e
     89c:	0003b907 	andeq	fp, r3, r7, lsl #18
     8a0:	82e89800 	rschi	r9, r8, #0, 16
     8a4:	dd070280 	sfmle	f0, 4, [r7, #-512]	; 0xfffffe00
     8a8:	9c000002 	stcls	0, cr0, [r0], {2}
     8ac:	028082e8 	addeq	r8, r0, #232, 4	; 0x8000000e
     8b0:	0002c007 	andeq	ip, r2, r7
     8b4:	82e8a000 	rschi	sl, r8, #0
     8b8:	08000280 	stmdaeq	r0, {r7, r9}
     8bc:	000002a5 	andeq	r0, r0, r5, lsr #5
     8c0:	25010201 	strcs	r0, [r1, #-513]	; 0x201
     8c4:	03000000 	movweq	r0, #0
     8c8:	00000151 	andeq	r0, r0, r1, asr r1
     8cc:	01006609 	tsteq	r0, r9, lsl #12
     8d0:	002c0102 	eoreq	r0, ip, r2, lsl #2
     8d4:	640a0000 	strvs	r0, [sl], #-0
     8d8:	01040100 	mrseq	r0, (UNDEF: 20)
     8dc:	0000002c 	andeq	r0, r0, ip, lsr #32
     8e0:	0100630a 	tsteq	r0, sl, lsl #6
     8e4:	002c0104 	eoreq	r0, ip, r4, lsl #2
     8e8:	780a0000 	stmdavc	sl, {}	; <UNPREDICTABLE>
     8ec:	01040100 	mrseq	r0, (UNDEF: 20)
     8f0:	0000002c 	andeq	r0, r0, ip, lsr #32
     8f4:	0100730a 	tsteq	r0, sl, lsl #6
     8f8:	002c0104 	eoreq	r0, ip, r4, lsl #2
     8fc:	680a0000 	stmdavs	sl, {}	; <UNPREDICTABLE>
     900:	01040100 	mrseq	r0, (UNDEF: 20)
     904:	0000002c 	andeq	r0, r0, ip, lsr #32
     908:	746e630a 	strbtvc	r6, [lr], #-778	; 0x30a
     90c:	01050100 	mrseq	r0, (UNDEF: 21)
     910:	00000025 	andeq	r0, r0, r5, lsr #32
     914:	03020b00 	movweq	r0, #11008	; 0x2b00
     918:	83010000 	movwhi	r0, #4096	; 0x1000
     91c:	00000025 	andeq	r0, r0, r5, lsr #32
     920:	00008298 	muleq	r0, r8, r2
     924:	00000094 	muleq	r0, r4, r0
     928:	01999c01 	orrseq	r9, r9, r1, lsl #24
     92c:	190c0000 	stmdbne	ip, {}	; <UNPREDICTABLE>
     930:	0100000b 	tsteq	r0, fp
     934:	00002c83 	andeq	r2, r0, r3, lsl #25
     938:	00016800 	andeq	r6, r1, r0, lsl #16
     93c:	6e630d00 	cdpvs	13, 6, cr0, cr3, cr0, {0}
     940:	85010074 	strhi	r0, [r1, #-116]	; 0x74
     944:	00000025 	andeq	r0, r0, r5, lsr #32
     948:	00000186 	andeq	r0, r0, r6, lsl #3
     94c:	0082bc0e 	addeq	fp, r2, lr, lsl #24
     950:	000ca500 	andeq	sl, ip, r0, lsl #10
     954:	50010f00 	andpl	r0, r1, r0, lsl #30
     958:	00007802 	andeq	r7, r0, r2, lsl #16
     95c:	02fb0b00 	rscseq	r0, fp, #0, 22
     960:	8c010000 	stchi	0, cr0, [r1], {-0}
     964:	00000025 	andeq	r0, r0, r5, lsr #32
     968:	0000832c 	andeq	r8, r0, ip, lsr #6
     96c:	000000ac 	andeq	r0, r0, ip, lsr #1
     970:	01f79c01 	mvnseq	r9, r1, lsl #24
     974:	190c0000 	stmdbne	ip, {}	; <UNPREDICTABLE>
     978:	0100000b 	tsteq	r0, fp
     97c:	00002c8c 	andeq	r2, r0, ip, lsl #25
     980:	0001d500 	andeq	sp, r1, r0, lsl #10
     984:	00721000 	rsbseq	r1, r2, r0
     988:	002c8e01 	eoreq	r8, ip, r1, lsl #28
     98c:	52010000 	andpl	r0, r1, #0
     990:	01006d10 	tsteq	r0, r0, lsl sp
     994:	00002c8e 	andeq	r2, r0, lr, lsl #25
     998:	0d560100 	ldfeqe	f0, [r6, #-0]
     99c:	00746e63 	rsbseq	r6, r4, r3, ror #28
     9a0:	00258f01 	eoreq	r8, r5, r1, lsl #30
     9a4:	01f30000 	mvnseq	r0, r0
     9a8:	540e0000 	strpl	r0, [lr], #-0
     9ac:	a5000083 	strge	r0, [r0, #-131]	; 0x83
     9b0:	0f00000c 	svceq	0x0000000c
     9b4:	77025001 	strvc	r5, [r2, -r1]
     9b8:	0b000000 	bleq	9c0 <_start-0x7640>
     9bc:	0000036d 	andeq	r0, r0, sp, ror #6
     9c0:	00259a01 	eoreq	r9, r5, r1, lsl #20
     9c4:	83d80000 	bicshi	r0, r8, #0
     9c8:	02700000 	rsbseq	r0, r0, #0
     9cc:	9c010000 	stcls	0, cr0, [r1], {-0}
     9d0:	0000032a 	andeq	r0, r0, sl, lsr #6
     9d4:	00016d0c 	andeq	r6, r1, ip, lsl #26
     9d8:	2c9a0100 	ldfcss	f0, [sl], {0}
     9dc:	42000000 	andmi	r0, r0, #0
     9e0:	11000002 	tstne	r0, r2
     9e4:	00677261 	rsbeq	r7, r7, r1, ror #4
     9e8:	002c9a01 	eoreq	r9, ip, r1, lsl #20
     9ec:	02760000 	rsbseq	r0, r6, #0
     9f0:	720d0000 	andvc	r0, sp, #0
     9f4:	259c0100 	ldrcs	r0, [ip, #256]	; 0x100
     9f8:	94000000 	strls	r0, [r0], #-0
     9fc:	12000002 	andne	r0, r0, #2
     a00:	0000840c 	andeq	r8, r0, ip, lsl #8
     a04:	000001f7 	strdeq	r0, [r0], -r7
     a08:	00843413 	addeq	r3, r4, r3, lsl r4
     a0c:	00025700 	andeq	r5, r2, r0, lsl #14
     a10:	50010f00 	andpl	r0, r1, r0, lsl #30
     a14:	b5040305 	strlt	r0, [r4, #-773]	; 0x305
     a18:	14000000 	strne	r0, [r0], #-0
     a1c:	00008454 	andeq	r8, r0, r4, asr r4
     a20:	00000151 	andeq	r0, r0, r1, asr r1
     a24:	0000026a 	andeq	r0, r0, sl, ror #4
     a28:	0150010f 	cmpeq	r0, pc, lsl #2
     a2c:	6c130031 	ldcvs	0, cr0, [r3], {49}	; 0x31
     a30:	7d000084 	stcvc	0, cr0, [r0, #-528]	; 0xfffffdf0
     a34:	0f000002 	svceq	0x00000002
     a38:	03055001 	movweq	r5, #20481	; 0x5001
     a3c:	0000b52c 	andeq	fp, r0, ip, lsr #10
     a40:	84901300 	ldrhi	r1, [r0], #768	; 0x300
     a44:	02900000 	addseq	r0, r0, #0
     a48:	010f0000 	mrseq	r0, CPSR
     a4c:	40030550 	andmi	r0, r3, r0, asr r5
     a50:	000000b5 	strheq	r0, [r0], -r5
     a54:	00849814 	addeq	r9, r4, r4, lsl r8
     a58:	000cb600 	andeq	fp, ip, r0, lsl #12
     a5c:	0002a400 	andeq	sl, r2, r0, lsl #8
     a60:	50010f00 	andpl	r0, r1, r0, lsl #30
     a64:	00007402 	andeq	r7, r0, r2, lsl #8
     a68:	0084a413 	addeq	sl, r4, r3, lsl r4
     a6c:	0002b700 	andeq	fp, r2, r0, lsl #14
     a70:	50010f00 	andpl	r0, r1, r0, lsl #30
     a74:	b5580305 	ldrblt	r0, [r8, #-773]	; 0x305
     a78:	14000000 	strne	r0, [r0], #-0
     a7c:	000084ac 	andeq	r8, r0, ip, lsr #9
     a80:	00000cb6 			; <UNDEFINED> instruction: 0x00000cb6
     a84:	000002cb 	andeq	r0, r0, fp, asr #5
     a88:	0250010f 	subseq	r0, r0, #-1073741821	; 0xc0000003
     a8c:	13000077 	movwne	r0, #119	; 0x77
     a90:	000084b8 			; <UNDEFINED> instruction: 0x000084b8
     a94:	000002de 	ldrdeq	r0, [r0], -lr
     a98:	0550010f 	ldrbeq	r0, [r0, #-271]	; 0x10f
     a9c:	00b32403 	adcseq	r2, r3, r3, lsl #8
     aa0:	e0140000 	ands	r0, r4, r0
     aa4:	a5000084 	strge	r0, [r0, #-132]	; 0x84
     aa8:	f300000c 	vhadd.u8	d0, d0, d12
     aac:	0f000002 	svceq	0x00000002
     ab0:	0a035001 	beq	d4abc <__bss_end__+0xc878c>
     ab4:	140003e8 	strne	r0, [r0], #-1000	; 0x3e8
     ab8:	000084fc 	strdeq	r8, [r0], -ip
     abc:	00000ca5 	andeq	r0, r0, r5, lsr #25
     ac0:	00000307 	andeq	r0, r0, r7, lsl #6
     ac4:	0250010f 	subseq	r0, r0, #-1073741821	; 0xc0000003
     ac8:	14006408 	strne	r6, [r0], #-1032	; 0x408
     acc:	00008504 	andeq	r8, r0, r4, lsl #10
     ad0:	00000199 	muleq	r0, r9, r1
     ad4:	0000031a 	andeq	r0, r0, sl, lsl r3
     ad8:	0150010f 	cmpeq	r0, pc, lsl #2
     adc:	1c150031 	ldcne	0, cr0, [r5], {49}	; 0x31
     ae0:	0f000085 	svceq	0x00000085
     ae4:	03055001 	movweq	r5, #20481	; 0x5001
     ae8:	0000b560 	andeq	fp, r0, r0, ror #10
     aec:	3a0b0000 	bcc	2c0af4 <__bss_end__+0x2b47c4>
     af0:	01000000 	mrseq	r0, (UNDEF: 0)
     af4:	000025bc 			; <UNDEFINED> instruction: 0x000025bc
     af8:	00864800 	addeq	r4, r6, r0, lsl #16
     afc:	00023c00 	andeq	r3, r2, r0, lsl #24
     b00:	b09c0100 	addslt	r0, ip, r0, lsl #2
     b04:	11000004 	tstne	r0, r4
     b08:	0061626c 	rsbeq	r6, r1, ip, ror #4
     b0c:	002cbc01 	eoreq	fp, ip, r1, lsl #24
     b10:	030b0000 	movweq	r0, #45056	; 0xb000
     b14:	950c0000 	strls	r0, [ip, #-0]
     b18:	01000003 	tsteq	r0, r3
     b1c:	000072bc 			; <UNDEFINED> instruction: 0x000072bc
     b20:	00035200 	andeq	r5, r3, r0, lsl #4
     b24:	756e1100 	strbvc	r1, [lr, #-256]!	; 0x100
     b28:	bc01006d 	stclt	0, cr0, [r1], {109}	; 0x6d
     b2c:	0000002c 	andeq	r0, r0, ip, lsr #32
     b30:	0000037e 	andeq	r0, r0, lr, ror r3
     b34:	0100720d 	tsteq	r0, sp, lsl #4
     b38:	000025be 			; <UNDEFINED> instruction: 0x000025be
     b3c:	0003b200 	andeq	fp, r3, r0, lsl #4
     b40:	00630d00 	rsbeq	r0, r3, r0, lsl #26
     b44:	0025be01 	eoreq	fp, r5, r1, lsl #28
     b48:	03db0000 	bicseq	r0, fp, #0
     b4c:	640d0000 	strvs	r0, [sp], #-0
     b50:	25be0100 	ldrcs	r0, [lr, #256]!	; 0x100
     b54:	fa000000 	blx	b5c <_start-0x74a4>
     b58:	0d000003 	stceq	0, cr0, [r0, #-12]
     b5c:	00667562 	rsbeq	r7, r6, r2, ror #10
     b60:	04b0c201 	ldrteq	ip, [r0], #513	; 0x201
     b64:	04180000 	ldreq	r0, [r8], #-0
     b68:	70130000 	andsvc	r0, r3, r0
     b6c:	b9000086 	stmdblt	r0, {r1, r2, r7}
     b70:	0f000003 	svceq	0x00000003
     b74:	03055001 	movweq	r5, #20481	; 0x5001
     b78:	0000b584 	andeq	fp, r0, r4, lsl #11
     b7c:	86781400 	ldrbthi	r1, [r8], -r0, lsl #8
     b80:	0cb60000 	ldceq	0, cr0, [r6]
     b84:	03ce0000 	biceq	r0, lr, #0
     b88:	010f0000 	mrseq	r0, CPSR
     b8c:	007d0350 	rsbseq	r0, sp, r0, asr r3
     b90:	84130006 	ldrhi	r0, [r3], #-6
     b94:	e1000086 	smlabb	r0, r6, r0, r0
     b98:	0f000003 	svceq	0x00000003
     b9c:	03055001 	movweq	r5, #20481	; 0x5001
     ba0:	0000b598 	muleq	r0, r8, r5
     ba4:	868c1400 	strhi	r1, [ip], r0, lsl #8
     ba8:	0cb60000 	ldceq	0, cr0, [r6]
     bac:	03f50000 	mvnseq	r0, #0
     bb0:	010f0000 	mrseq	r0, CPSR
     bb4:	00770250 	rsbseq	r0, r7, r0, asr r2
     bb8:	86981300 	ldrhi	r1, [r8], r0, lsl #6
     bbc:	04080000 	streq	r0, [r8], #-0
     bc0:	010f0000 	mrseq	r0, CPSR
     bc4:	24030550 	strcs	r0, [r3], #-1360	; 0x550
     bc8:	000000b3 	strheq	r0, [r0], -r3
     bcc:	0086a014 	addeq	sl, r6, r4, lsl r0
     bd0:	00015100 	andeq	r5, r1, r0, lsl #2
     bd4:	00041b00 	andeq	r1, r4, r0, lsl #22
     bd8:	50010f00 	andpl	r0, r1, r0, lsl #30
     bdc:	14003201 	strne	r3, [r0], #-513	; 0x201
     be0:	000086f0 	strdeq	r8, [r0], -r0
     be4:	000001f7 	strdeq	r0, [r0], -r7
     be8:	00000438 	andeq	r0, r0, r8, lsr r4
     bec:	0251010f 	subseq	r0, r1, #-1073741821	; 0xc0000003
     bf0:	010f0077 	tsteq	pc, r7, ror r0	; <UNPREDICTABLE>
     bf4:	000c0550 	andeq	r0, ip, r0, asr r5
     bf8:	00170200 	andseq	r0, r7, r0, lsl #4
     bfc:	00872414 	addeq	r2, r7, r4, lsl r4
     c00:	0001f700 	andeq	pc, r1, r0, lsl #14
     c04:	00044d00 	andeq	r4, r4, r0, lsl #26
     c08:	51010f00 	tstpl	r1, r0, lsl #30
     c0c:	06007d03 	streq	r7, [r0], -r3, lsl #26
     c10:	877c1400 	ldrbhi	r1, [ip, -r0, lsl #8]!
     c14:	01f70000 	mvnseq	r0, r0
     c18:	04700000 	ldrbteq	r0, [r0], #-0
     c1c:	010f0000 	mrseq	r0, CPSR
     c20:	007d0851 	rsbseq	r0, sp, r1, asr r8
     c24:	22007606 	andcs	r7, r0, #6291456	; 0x600000
     c28:	010f2439 	tsteq	pc, r9, lsr r4	; <UNPREDICTABLE>
     c2c:	100c0550 	andne	r0, ip, r0, asr r5
     c30:	00112200 	andseq	r2, r1, r0, lsl #4
     c34:	00879014 	addeq	r9, r7, r4, lsl r0
     c38:	00019900 	andeq	r9, r1, r0, lsl #18
     c3c:	00048400 	andeq	r8, r4, r0, lsl #8
     c40:	50010f00 	andpl	r0, r1, r0, lsl #30
     c44:	00007902 	andeq	r7, r0, r2, lsl #18
     c48:	0087a813 	addeq	sl, r7, r3, lsl r8
     c4c:	00049700 	andeq	r9, r4, r0, lsl #14
     c50:	50010f00 	andpl	r0, r1, r0, lsl #30
     c54:	b5a00305 	strlt	r0, [r0, #773]!	; 0x305
     c58:	0e000000 	cdpeq	0, 0, cr0, cr0, cr0, {0}
     c5c:	00008810 	andeq	r8, r0, r0, lsl r8
     c60:	000001f7 	strdeq	r0, [r0], -r7
     c64:	0151010f 	cmpeq	r1, pc, lsl #2
     c68:	50010f30 	andpl	r0, r1, r0, lsr pc
     c6c:	00000c05 	andeq	r0, r0, r5, lsl #24
     c70:	00000c03 	andeq	r0, r0, r3, lsl #24
     c74:	002c0404 	eoreq	r0, ip, r4, lsl #8
     c78:	9c0b0000 	stcls	0, cr0, [fp], {-0}
     c7c:	01000003 	tsteq	r0, r3
     c80:	000025df 	ldrdeq	r2, [r0], -pc	; <UNPREDICTABLE>
     c84:	00888400 	addeq	r8, r8, r0, lsl #8
     c88:	00027000 	andeq	r7, r2, r0
     c8c:	649c0100 	ldrvs	r0, [ip], #256	; 0x100
     c90:	0c000006 	stceq	0, cr0, [r0], {6}
     c94:	00000395 	muleq	r0, r5, r3
     c98:	0072df01 	rsbseq	sp, r2, r1, lsl #30
     c9c:	042b0000 	strteq	r0, [fp], #-0
     ca0:	6c110000 	ldcvs	0, cr0, [r1], {-0}
     ca4:	01006162 	tsteq	r0, r2, ror #2
     ca8:	00002cdf 	ldrdeq	r2, [r0], -pc	; <UNPREDICTABLE>
     cac:	00045700 	andeq	r5, r4, r0, lsl #14
     cb0:	756e1100 	strbvc	r1, [lr, #-256]!	; 0x100
     cb4:	df01006d 	svcle	0x0001006d
     cb8:	0000002c 	andeq	r0, r0, ip, lsr #32
     cbc:	0000049e 	muleq	r0, lr, r4
     cc0:	0100720d 	tsteq	r0, sp, lsl #4
     cc4:	000025e1 	andeq	r2, r0, r1, ror #11
     cc8:	0004d200 	andeq	sp, r4, r0, lsl #4
     ccc:	00630d00 	rsbeq	r0, r3, r0, lsl #26
     cd0:	0025e101 	eoreq	lr, r5, r1, lsl #2
     cd4:	05270000 	streq	r0, [r7, #-0]!
     cd8:	640d0000 	strvs	r0, [sp], #-0
     cdc:	25e10100 	strbcs	r0, [r1, #256]!	; 0x100
     ce0:	46000000 	strmi	r0, [r0], -r0
     ce4:	0d000005 	stceq	0, cr0, [r0, #-20]	; 0xffffffec
     ce8:	00667562 	rsbeq	r7, r6, r2, ror #10
     cec:	04b0e501 	ldrteq	lr, [r0], #1281	; 0x501
     cf0:	05640000 	strbeq	r0, [r4, #-0]!
     cf4:	ac130000 	ldcge	0, cr0, [r3], {-0}
     cf8:	45000088 	strmi	r0, [r0, #-136]	; 0x88
     cfc:	0f000005 	svceq	0x00000005
     d00:	03055001 	movweq	r5, #20481	; 0x5001
     d04:	0000b5cc 	andeq	fp, r0, ip, asr #11
     d08:	88b41400 	ldmhi	r4!, {sl, ip}
     d0c:	0cb60000 	ldceq	0, cr0, [r6]
     d10:	055a0000 	ldrbeq	r0, [sl, #-0]
     d14:	010f0000 	mrseq	r0, CPSR
     d18:	007d0350 	rsbseq	r0, sp, r0, asr r3
     d1c:	c0130006 	andsgt	r0, r3, r6
     d20:	6d000088 	stcvs	0, cr0, [r0, #-544]	; 0xfffffde0
     d24:	0f000005 	svceq	0x00000005
     d28:	03055001 	movweq	r5, #20481	; 0x5001
     d2c:	0000b598 	muleq	r0, r8, r5
     d30:	88c81400 	stmiahi	r8, {sl, ip}^
     d34:	0cb60000 	ldceq	0, cr0, [r6]
     d38:	05810000 	streq	r0, [r1]
     d3c:	010f0000 	mrseq	r0, CPSR
     d40:	00770250 	rsbseq	r0, r7, r0, asr r2
     d44:	88d41300 	ldmhi	r4, {r8, r9, ip}^
     d48:	05940000 	ldreq	r0, [r4]
     d4c:	010f0000 	mrseq	r0, CPSR
     d50:	24030550 	strcs	r0, [r3], #-1360	; 0x550
     d54:	000000b3 	strheq	r0, [r0], -r3
     d58:	0088dc14 	addeq	sp, r8, r4, lsl ip
     d5c:	00015100 	andeq	r5, r1, r0, lsl #2
     d60:	0005a900 	andeq	sl, r5, r0, lsl #18
     d64:	50010f00 	andpl	r0, r1, r0, lsl #30
     d68:	04020a03 	streq	r0, [r2], #-2563	; 0xa03
     d6c:	892c1400 	stmdbhi	ip!, {sl, ip}
     d70:	01f70000 	mvnseq	r0, r0
     d74:	05c60000 	strbeq	r0, [r6]
     d78:	010f0000 	mrseq	r0, CPSR
     d7c:	00770251 	rsbseq	r0, r7, r1, asr r2
     d80:	0550010f 	ldrbeq	r0, [r0, #-271]	; 0x10f
     d84:	0200000c 	andeq	r0, r0, #12
     d88:	60140017 	andsvs	r0, r4, r7, lsl r0
     d8c:	f7000089 			; <UNDEFINED> instruction: 0xf7000089
     d90:	db000001 	blle	d9c <_start-0x7264>
     d94:	0f000005 	svceq	0x00000005
     d98:	7d035101 	stfvcs	f5, [r3, #-4]
     d9c:	14000600 	strne	r0, [r0], #-1536	; 0x600
     da0:	000089b8 			; <UNDEFINED> instruction: 0x000089b8
     da4:	000001f7 	strdeq	r0, [r0], -r7
     da8:	000005fe 	strdeq	r0, [r0], -lr
     dac:	0851010f 	ldmdaeq	r1, {r0, r1, r2, r3, r8}^
     db0:	7606007d 			; <UNDEFINED> instruction: 0x7606007d
     db4:	24392200 	ldrtcs	r2, [r9], #-512	; 0x200
     db8:	0550010f 	ldrbeq	r0, [r0, #-271]	; 0x10f
     dbc:	2200000c 	andcs	r0, r0, #12
     dc0:	cc140018 	ldcgt	0, cr0, [r4], {24}
     dc4:	99000089 	stmdbls	r0, {r0, r3, r7}
     dc8:	12000001 	andne	r0, r0, #1
     dcc:	0f000006 	svceq	0x00000006
     dd0:	79025001 	stmdbvc	r2, {r0, ip, lr}
     dd4:	e4130000 	ldr	r0, [r3], #-0
     dd8:	25000089 	strcs	r0, [r0, #-137]	; 0x89
     ddc:	0f000006 	svceq	0x00000006
     de0:	03055001 	movweq	r5, #20481	; 0x5001
     de4:	0000b5e0 	andeq	fp, r0, r0, ror #11
     de8:	8a281400 	bhi	a05df0 <__bss_end__+0x9f9ac0>
     dec:	01990000 	orrseq	r0, r9, r0
     df0:	06380000 	ldrteq	r0, [r8], -r0
     df4:	010f0000 	mrseq	r0, CPSR
     df8:	00320150 	eorseq	r0, r2, r0, asr r1
     dfc:	008a4013 	addeq	r4, sl, r3, lsl r0
     e00:	00064b00 	andeq	r4, r6, r0, lsl #22
     e04:	50010f00 	andpl	r0, r1, r0, lsl #30
     e08:	b60c0305 	strlt	r0, [ip], -r5, lsl #6
     e0c:	0e000000 	cdpeq	0, 0, cr0, cr0, cr0, {0}
     e10:	00008a78 	andeq	r8, r0, r8, ror sl
     e14:	000001f7 	strdeq	r0, [r0], -r7
     e18:	0151010f 	cmpeq	r1, pc, lsl #2
     e1c:	50010f30 	andpl	r0, r1, r0, lsr pc
     e20:	00000c05 	andeq	r0, r0, r5, lsl #24
     e24:	00000c03 	andeq	r0, r0, r3, lsl #24
     e28:	00001e16 	andeq	r1, r0, r6, lsl lr
     e2c:	01280100 	teqeq	r8, r0, lsl #2
     e30:	00000025 	andeq	r0, r0, r5, lsr #32
     e34:	00008af4 	strdeq	r8, [r0], -r4
     e38:	000007f0 	strdeq	r0, [r0], -r0	; <UNPREDICTABLE>
     e3c:	0c0f9c01 	stceq	12, cr9, [pc], {1}
     e40:	72170000 	andsvc	r0, r7, #0
     e44:	012a0100 	teqeq	sl, r0, lsl #2
     e48:	00000041 	andeq	r0, r0, r1, asr #32
     e4c:	00000577 	andeq	r0, r0, r7, ror r5
     e50:	746e6317 	strbtvc	r6, [lr], #-791	; 0x317
     e54:	012a0100 	teqeq	sl, r0, lsl #2
     e58:	00000041 	andeq	r0, r0, r1, asr #32
     e5c:	00000605 	andeq	r0, r0, r5, lsl #12
     e60:	73636317 	cmnvc	r3, #1543503872	; 0x5c000000
     e64:	012a0100 	teqeq	sl, r0, lsl #2
     e68:	00000041 	andeq	r0, r0, r1, asr #32
     e6c:	0000069f 	muleq	r0, pc, r6	; <UNPREDICTABLE>
     e70:	0000f718 	andeq	pc, r0, r8, lsl r7	; <UNPREDICTABLE>
     e74:	008c6000 	addeq	r6, ip, r0
     e78:	00014c00 	andeq	r4, r1, r0, lsl #24
     e7c:	01470100 	mrseq	r0, (UNDEF: 87)
     e80:	000007ec 	andeq	r0, r0, ip, ror #15
     e84:	00010819 	andeq	r0, r1, r9, lsl r8
     e88:	0006d500 	andeq	sp, r6, r0, lsl #10
     e8c:	8c601a00 	stclhi	10, cr1, [r0], #-0
     e90:	014c0000 	mrseq	r0, (UNDEF: 76)
     e94:	121b0000 	andsne	r0, fp, #0
     e98:	ed000001 	stc	0, cr0, [r0, #-4]
     e9c:	1b000006 	blne	ebc <_start-0x7144>
     ea0:	0000011c 	andeq	r0, r0, ip, lsl r1
     ea4:	0000070f 	andeq	r0, r0, pc, lsl #14
     ea8:	0001261b 	andeq	r2, r1, fp, lsl r6
     eac:	00072400 	andeq	r2, r7, r0, lsl #8
     eb0:	01301b00 	teqeq	r0, r0, lsl #22
     eb4:	073b0000 	ldreq	r0, [fp, -r0]!
     eb8:	3a1b0000 	bcc	6c0ec0 <__bss_end__+0x6b4b90>
     ebc:	5c000001 	stcpl	0, cr0, [r0], {1}
     ec0:	1b000007 	blne	ee4 <_start-0x711c>
     ec4:	00000144 	andeq	r0, r0, r4, asr #2
     ec8:	00000770 	andeq	r0, r0, r0, ror r7
     ecc:	008c7814 	addeq	r7, ip, r4, lsl r8
     ed0:	000ca500 	andeq	sl, ip, r0, lsl #10
     ed4:	00071c00 	andeq	r1, r7, r0, lsl #24
     ed8:	50010f00 	andpl	r0, r1, r0, lsl #30
     edc:	00007602 	andeq	r7, r0, r2, lsl #12
     ee0:	008cb013 	addeq	fp, ip, r3, lsl r0
     ee4:	00072f00 	andeq	r2, r7, r0, lsl #30
     ee8:	50010f00 	andpl	r0, r1, r0, lsl #30
     eec:	b6780305 	ldrbtlt	r0, [r8], -r5, lsl #6
     ef0:	14000000 	strne	r0, [r0], #-0
     ef4:	00008cd0 	ldrdeq	r8, [r0], -r0
     ef8:	00000ca5 	andeq	r0, r0, r5, lsr #25
     efc:	00000742 	andeq	r0, r0, r2, asr #14
     f00:	0150010f 	cmpeq	r0, pc, lsl #2
     f04:	f413003a 			; <UNDEFINED> instruction: 0xf413003a
     f08:	5500008c 	strpl	r0, [r0, #-140]	; 0x8c
     f0c:	0f000007 	svceq	0x00000007
     f10:	03055001 	movweq	r5, #20481	; 0x5001
     f14:	0000b6a4 	andeq	fp, r0, r4, lsr #13
     f18:	8cfc1400 	cfldrdhi	mvd1, [ip]
     f1c:	0cb60000 	ldceq	0, cr0, [r6]
     f20:	07690000 	strbeq	r0, [r9, -r0]!
     f24:	010f0000 	mrseq	r0, CPSR
     f28:	00750250 	rsbseq	r0, r5, r0, asr r2
     f2c:	8d081300 	stchi	3, cr1, [r8, #-0]
     f30:	077c0000 	ldrbeq	r0, [ip, -r0]!
     f34:	010f0000 	mrseq	r0, CPSR
     f38:	b4030550 	strlt	r0, [r3], #-1360	; 0x550
     f3c:	000000b6 	strheq	r0, [r0], -r6
     f40:	008d1014 	addeq	r1, sp, r4, lsl r0
     f44:	000cb600 	andeq	fp, ip, r0, lsl #12
     f48:	00078f00 	andeq	r8, r7, r0, lsl #30
     f4c:	50010f00 	andpl	r0, r1, r0, lsl #30
     f50:	13003601 	movwne	r3, #1537	; 0x601
     f54:	00008d1c 	andeq	r8, r0, ip, lsl sp
     f58:	000007a2 	andeq	r0, r0, r2, lsr #15
     f5c:	0550010f 	ldrbeq	r0, [r0, #-271]	; 0x10f
     f60:	00b32403 	adcseq	r2, r3, r3, lsl #8
     f64:	3c140000 	ldccc	0, cr0, [r4], {-0}
     f68:	a500008d 	strge	r0, [r0, #-141]	; 0x8d
     f6c:	b500000c 	strlt	r0, [r0, #-12]
     f70:	0f000007 	svceq	0x00000007
     f74:	3a015001 	bcc	54f80 <__bss_end__+0x48c50>
     f78:	8d501400 	cfldrdhi	mvd1, [r0, #-0]
     f7c:	0ca50000 	stceq	0, cr0, [r5]
     f80:	07c80000 	strbeq	r0, [r8, r0]
     f84:	010f0000 	mrseq	r0, CPSR
     f88:	003a0150 	eorseq	r0, sl, r0, asr r1
     f8c:	008d6814 	addeq	r6, sp, r4, lsl r8
     f90:	000ca500 	andeq	sl, ip, r0, lsl #10
     f94:	0007db00 	andeq	sp, r7, r0, lsl #22
     f98:	50010f00 	andpl	r0, r1, r0, lsl #30
     f9c:	15003a01 	strne	r3, [r0, #-2561]	; 0xa01
     fa0:	00008da0 	andeq	r8, r0, r0, lsr #27
     fa4:	0550010f 	ldrbeq	r0, [r0, #-271]	; 0x10f
     fa8:	00b6c003 	adcseq	ip, r6, r3
     fac:	00000000 	andeq	r0, r0, r0
     fb0:	0000f71c 	andeq	pc, r0, ip, lsl r7	; <UNPREDICTABLE>
     fb4:	008f9000 	addeq	r9, pc, r0
     fb8:	00000000 	andeq	r0, r0, r0
     fbc:	016f0100 	cmneq	pc, r0, lsl #2
     fc0:	0000091f 	andeq	r0, r0, pc, lsl r9
     fc4:	0001081d 	andeq	r0, r1, sp, lsl r8
     fc8:	00001e00 	andeq	r1, r0, r0, lsl #28
     fcc:	121b0000 	andsne	r0, fp, #0
     fd0:	04000001 	streq	r0, [r0], #-1
     fd4:	1f000008 	svcne	0x00000008
     fd8:	0000011c 	andeq	r0, r0, ip, lsl r1
     fdc:	0001261b 	andeq	r2, r1, fp, lsl r6
     fe0:	00082600 	andeq	r2, r8, r0, lsl #12
     fe4:	01301b00 	teqeq	r0, r0, lsl #22
     fe8:	08260000 	stmdaeq	r6!, {}	; <UNPREDICTABLE>
     fec:	3a1b0000 	bcc	6c0ff4 <__bss_end__+0x6b4cc4>
     ff0:	3a000001 	bcc	ffc <_start-0x7004>
     ff4:	1b000008 	blne	101c <_start-0x6fe4>
     ff8:	00000144 	andeq	r0, r0, r4, asr #2
     ffc:	0000084e 	andeq	r0, r0, lr, asr #16
    1000:	008f9814 	addeq	r9, pc, r4, lsl r8	; <UNPREDICTABLE>
    1004:	000ca500 	andeq	sl, ip, r0, lsl #10
    1008:	00085000 	andeq	r5, r8, r0
    100c:	50010f00 	andpl	r0, r1, r0, lsl #30
    1010:	00007802 	andeq	r7, r0, r2, lsl #16
    1014:	008fe013 	addeq	lr, pc, r3, lsl r0	; <UNPREDICTABLE>
    1018:	00086300 	andeq	r6, r8, r0, lsl #6
    101c:	50010f00 	andpl	r0, r1, r0, lsl #30
    1020:	b6780305 	ldrbtlt	r0, [r8], -r5, lsl #6
    1024:	14000000 	strne	r0, [r0], #-0
    1028:	00009000 	andeq	r9, r0, r0
    102c:	00000ca5 	andeq	r0, r0, r5, lsr #25
    1030:	00000876 	andeq	r0, r0, r6, ror r8
    1034:	0150010f 	cmpeq	r0, pc, lsl #2
    1038:	1013003a 	andsne	r0, r3, sl, lsr r0
    103c:	89000090 	stmdbhi	r0, {r4, r7}
    1040:	0f000008 	svceq	0x00000008
    1044:	03055001 	movweq	r5, #20481	; 0x5001
    1048:	0000b6a4 	andeq	fp, r0, r4, lsr #13
    104c:	90181400 	andsls	r1, r8, r0, lsl #8
    1050:	0cb60000 	ldceq	0, cr0, [r6]
    1054:	089c0000 	ldmeq	ip, {}	; <UNPREDICTABLE>
    1058:	010f0000 	mrseq	r0, CPSR
    105c:	00320150 	eorseq	r0, r2, r0, asr r1
    1060:	00902413 	addseq	r2, r0, r3, lsl r4
    1064:	0008af00 	andeq	sl, r8, r0, lsl #30
    1068:	50010f00 	andpl	r0, r1, r0, lsl #30
    106c:	b6b40305 	ldrtlt	r0, [r4], r5, lsl #6
    1070:	14000000 	strne	r0, [r0], #-0
    1074:	0000902c 	andeq	r9, r0, ip, lsr #32
    1078:	00000cb6 			; <UNDEFINED> instruction: 0x00000cb6
    107c:	000008c2 	andeq	r0, r0, r2, asr #17
    1080:	0150010f 	cmpeq	r0, pc, lsl #2
    1084:	38130030 	ldmdacc	r3, {r4, r5}
    1088:	d5000090 	strle	r0, [r0, #-144]	; 0x90
    108c:	0f000008 	svceq	0x00000008
    1090:	03055001 	movweq	r5, #20481	; 0x5001
    1094:	0000b324 	andeq	fp, r0, r4, lsr #6
    1098:	90541400 	subsls	r1, r4, r0, lsl #8
    109c:	0ca50000 	stceq	0, cr0, [r5]
    10a0:	08e80000 	stmiaeq	r8!, {}^	; <UNPREDICTABLE>
    10a4:	010f0000 	mrseq	r0, CPSR
    10a8:	003a0150 	eorseq	r0, sl, r0, asr r1
    10ac:	00906814 	addseq	r6, r0, r4, lsl r8
    10b0:	000ca500 	andeq	sl, ip, r0, lsl #10
    10b4:	0008fb00 	andeq	pc, r8, r0, lsl #22
    10b8:	50010f00 	andpl	r0, r1, r0, lsl #30
    10bc:	14003a01 	strne	r3, [r0], #-2561	; 0xa01
    10c0:	00009080 	andeq	r9, r0, r0, lsl #1
    10c4:	00000ca5 	andeq	r0, r0, r5, lsr #25
    10c8:	0000090e 	andeq	r0, r0, lr, lsl #18
    10cc:	0150010f 	cmpeq	r0, pc, lsl #2
    10d0:	b815003a 	ldmdalt	r5, {r1, r3, r4, r5}
    10d4:	0f000090 	svceq	0x00000090
    10d8:	03055001 	movweq	r5, #20481	; 0x5001
    10dc:	0000b6c0 	andeq	fp, r0, r0, asr #13
    10e0:	14000000 	strne	r0, [r0], #-0
    10e4:	00008b18 	andeq	r8, r0, r8, lsl fp
    10e8:	00000ccb 	andeq	r0, r0, fp, asr #25
    10ec:	00000933 	andeq	r0, r0, r3, lsr r9
    10f0:	0250010f 	subseq	r0, r0, #-1073741821	; 0xc0000003
    10f4:	14009608 	strne	r9, [r0], #-1544	; 0x608
    10f8:	00008b28 	andeq	r8, r0, r8, lsr #22
    10fc:	00000ccb 	andeq	r0, r0, fp, asr #25
    1100:	00000947 	andeq	r0, r0, r7, asr #18
    1104:	0250010f 	subseq	r0, r0, #-1073741821	; 0xc0000003
    1108:	14009608 	strne	r9, [r0], #-1544	; 0x608
    110c:	00008b58 	andeq	r8, r0, r8, asr fp
    1110:	00000ccb 	andeq	r0, r0, fp, asr #25
    1114:	0000095b 	andeq	r0, r0, fp, asr r9
    1118:	0250010f 	subseq	r0, r0, #-1073741821	; 0xc0000003
    111c:	14009608 	strne	r9, [r0], #-1544	; 0x608
    1120:	00008b68 	andeq	r8, r0, r8, ror #22
    1124:	00000ccb 	andeq	r0, r0, fp, asr #25
    1128:	0000096f 	andeq	r0, r0, pc, ror #18
    112c:	0250010f 	subseq	r0, r0, #-1073741821	; 0xc0000003
    1130:	14009608 	strne	r9, [r0], #-1544	; 0x608
    1134:	00008b8c 	andeq	r8, r0, ip, lsl #23
    1138:	00000ccb 	andeq	r0, r0, fp, asr #25
    113c:	00000983 	andeq	r0, r0, r3, lsl #19
    1140:	0250010f 	subseq	r0, r0, #-1073741821	; 0xc0000003
    1144:	14009608 	strne	r9, [r0], #-1544	; 0x608
    1148:	00008b9c 	muleq	r0, ip, fp
    114c:	00000ccb 	andeq	r0, r0, fp, asr #25
    1150:	00000997 	muleq	r0, r7, r9
    1154:	0250010f 	subseq	r0, r0, #-1073741821	; 0xc0000003
    1158:	13009608 	movwne	r9, #1544	; 0x608
    115c:	00008bcc 	andeq	r8, r0, ip, asr #23
    1160:	000009aa 	andeq	r0, r0, sl, lsr #19
    1164:	0550010f 	ldrbeq	r0, [r0, #-271]	; 0x10f
    1168:	00b63403 	adcseq	r3, r6, r3, lsl #8
    116c:	f8140000 			; <UNDEFINED> instruction: 0xf8140000
    1170:	a500008b 	strge	r0, [r0, #-139]	; 0x8b
    1174:	be00000c 	cdplt	0, 0, cr0, cr0, cr12, {0}
    1178:	0f000009 	svceq	0x00000009
    117c:	76025001 	strvc	r5, [r2], -r1
    1180:	2c130000 	ldccs	0, cr0, [r3], {-0}
    1184:	d100008c 	smlabble	r0, ip, r0, r0
    1188:	0f000009 	svceq	0x00000009
    118c:	03055001 	movweq	r5, #20481	; 0x5001
    1190:	0000b648 	andeq	fp, r0, r8, asr #12
    1194:	8c441300 	mcrrhi	3, 0, r1, r4, cr0
    1198:	09e40000 	stmibeq	r4!, {}^	; <UNPREDICTABLE>
    119c:	010f0000 	mrseq	r0, CPSR
    11a0:	68030550 	stmdavs	r3, {r4, r6, r8, sl}
    11a4:	000000b6 	strheq	r0, [r0], -r6
    11a8:	008c6014 	addeq	r6, ip, r4, lsl r0
    11ac:	000ca500 	andeq	sl, ip, r0, lsl #10
    11b0:	0009f800 	andeq	pc, r9, r0, lsl #16
    11b4:	50010f00 	andpl	r0, r1, r0, lsl #30
    11b8:	00007602 	andeq	r7, r0, r2, lsl #12
    11bc:	008dec14 	addeq	lr, sp, r4, lsl ip
    11c0:	0001f700 	andeq	pc, r1, r0, lsl #14
    11c4:	000a1000 	andeq	r1, sl, r0
    11c8:	51010f00 	tstpl	r1, r0, lsl #30
    11cc:	010f3001 	tsteq	pc, r1
    11d0:	00300150 	eorseq	r0, r0, r0, asr r1
    11d4:	008e0814 	addeq	r0, lr, r4, lsl r8
    11d8:	0001f700 	andeq	pc, r1, r0, lsl #14
    11dc:	000a2e00 	andeq	r2, sl, r0, lsl #28
    11e0:	51010f00 	tstpl	r1, r0, lsl #30
    11e4:	01aa0a03 			; <UNDEFINED> instruction: 0x01aa0a03
    11e8:	0550010f 	ldrbeq	r0, [r0, #-271]	; 0x10f
    11ec:	0200000c 	andeq	r0, r0, #12
    11f0:	28140008 	ldmdacs	r4, {r3}
    11f4:	cb00008e 	blgt	1434 <_start-0x6bcc>
    11f8:	4300000c 	movwmi	r0, #12
    11fc:	0f00000a 	svceq	0x0000000a
    1200:	0a035001 	beq	d520c <__bss_end__+0xc8edc>
    1204:	14000190 	strne	r0, [r0], #-400	; 0x190
    1208:	00008e34 	andeq	r8, r0, r4, lsr lr
    120c:	000001f7 	strdeq	r0, [r0], -r7
    1210:	00000a64 	andeq	r0, r0, r4, ror #20
    1214:	0551010f 	ldrbeq	r0, [r1, #-271]	; 0x10f
    1218:	ff80000c 			; <UNDEFINED> instruction: 0xff80000c
    121c:	50010f51 	andpl	r0, r1, r1, asr pc
    1220:	80801106 	addhi	r1, r0, r6, lsl #2
    1224:	007ac888 	rsbseq	ip, sl, r8, lsl #17
    1228:	008e4413 	addeq	r4, lr, r3, lsl r4
    122c:	000a7400 	andeq	r7, sl, r0, lsl #8
    1230:	50010f00 	andpl	r0, r1, r0, lsl #30
    1234:	00007902 	andeq	r7, r0, r2, lsl #18
    1238:	008e5813 	addeq	r5, lr, r3, lsl r8
    123c:	000a8700 	andeq	r8, sl, r0, lsl #14
    1240:	50010f00 	andpl	r0, r1, r0, lsl #30
    1244:	b7080305 	strlt	r0, [r8, -r5, lsl #6]
    1248:	13000000 	movwne	r0, #0
    124c:	00008e74 	andeq	r8, r0, r4, ror lr
    1250:	00000a97 	muleq	r0, r7, sl
    1254:	0250010f 	subseq	r0, r0, #-1073741821	; 0xc0000003
    1258:	1300007b 	movwne	r0, #123	; 0x7b
    125c:	00008e88 	andeq	r8, r0, r8, lsl #29
    1260:	00000aa7 	andeq	r0, r0, r7, lsr #21
    1264:	0250010f 	subseq	r0, r0, #-1073741821	; 0xc0000003
    1268:	1400007a 	strne	r0, [r0], #-122	; 0x7a
    126c:	00008e90 	muleq	r0, r0, lr
    1270:	00000cb6 			; <UNDEFINED> instruction: 0x00000cb6
    1274:	00000abb 			; <UNDEFINED> instruction: 0x00000abb
    1278:	0250010f 	subseq	r0, r0, #-1073741821	; 0xc0000003
    127c:	13000075 	movwne	r0, #117	; 0x75
    1280:	00008e9c 	muleq	r0, ip, lr
    1284:	00000acb 	andeq	r0, r0, fp, asr #21
    1288:	0250010f 	subseq	r0, r0, #-1073741821	; 0xc0000003
    128c:	13000078 	movwne	r0, #120	; 0x78
    1290:	00008ec0 	andeq	r8, r0, r0, asr #29
    1294:	00000ade 	ldrdeq	r0, [r0], -lr
    1298:	0550010f 	ldrbeq	r0, [r0, #-271]	; 0x10f
    129c:	00b72803 	adcseq	r2, r7, r3, lsl #16
    12a0:	40140000 	andsmi	r0, r4, r0
    12a4:	f700008f 			; <UNDEFINED> instruction: 0xf700008f
    12a8:	fa000001 	blx	12b4 <_start-0x6d4c>
    12ac:	0f00000a 	svceq	0x0000000a
    12b0:	30015101 	andcc	r5, r1, r1, lsl #2
    12b4:	0550010f 	ldrbeq	r0, [r0, #-271]	; 0x10f
    12b8:	0100000c 	tsteq	r0, ip
    12bc:	4c140002 	ldcmi	0, cr0, [r4], {2}
    12c0:	f700008f 			; <UNDEFINED> instruction: 0xf700008f
    12c4:	16000001 	strne	r0, [r0], -r1
    12c8:	0f00000b 	svceq	0x0000000b
    12cc:	30015101 	andcc	r5, r1, r1, lsl #2
    12d0:	0550010f 	ldrbeq	r0, [r0, #-271]	; 0x10f
    12d4:	0200000c 	andeq	r0, r0, #12
    12d8:	64130003 	ldrvs	r0, [r3], #-3
    12dc:	2900008f 	stmdbcs	r0, {r0, r1, r2, r3, r7}
    12e0:	0f00000b 	svceq	0x0000000b
    12e4:	03055001 	movweq	r5, #20481	; 0x5001
    12e8:	0000b74c 	andeq	fp, r0, ip, asr #14
    12ec:	8f6c1200 	svchi	0x006c1200
    12f0:	0cb60000 	ldceq	0, cr0, [r6]
    12f4:	78130000 	ldmdavc	r3, {}	; <UNPREDICTABLE>
    12f8:	4200008f 	andmi	r0, r0, #143	; 0x8f
    12fc:	0f00000b 	svceq	0x0000000b
    1300:	78025001 	stmdavc	r2, {r0, ip, lr}
    1304:	d4140000 	ldrle	r0, [r4], #-0
    1308:	f7000090 			; <UNDEFINED> instruction: 0xf7000090
    130c:	59000001 	stmdbpl	r0, {r0}
    1310:	0f00000b 	svceq	0x0000000b
    1314:	0c055001 	stceq	0, cr5, [r5], {1}
    1318:	07030000 	streq	r0, [r3, -r0]
    131c:	90ec1400 	rscls	r1, ip, r0, lsl #8
    1320:	01510000 	cmpeq	r1, r0
    1324:	0b6c0000 	bleq	1b0132c <__bss_end__+0x1af4ffc>
    1328:	010f0000 	mrseq	r0, CPSR
    132c:	00320150 	eorseq	r0, r2, r0, asr r1
    1330:	00910c14 	addseq	r0, r1, r4, lsl ip
    1334:	0001f700 	andeq	pc, r1, r0, lsl #14
    1338:	000b8900 	andeq	r8, fp, r0, lsl #18
    133c:	51010f00 	tstpl	r1, r0, lsl #30
    1340:	010f3001 	tsteq	pc, r1
    1344:	90110650 	andsls	r0, r1, r0, asr r6
    1348:	7b998880 	blvc	fe663550 <__bss_end__+0xfe657220>
    134c:	91241400 	teqls	r4, r0, lsl #8
    1350:	01990000 	orrseq	r0, r9, r0
    1354:	0b9d0000 	bleq	fe74135c <__bss_end__+0xfe73502c>
    1358:	010f0000 	mrseq	r0, CPSR
    135c:	20080250 	andcs	r0, r8, r0, asr r2
    1360:	91601400 	cmnls	r0, r0, lsl #8
    1364:	0ca50000 	stceq	0, cr0, [r5]
    1368:	0bb10000 	bleq	fec41370 <__bss_end__+0xfec35040>
    136c:	010f0000 	mrseq	r0, CPSR
    1370:	00790250 	rsbseq	r0, r9, r0, asr r2
    1374:	91941400 	orrsls	r1, r4, r0, lsl #8
    1378:	01f70000 	mvnseq	r0, r0
    137c:	0bc90000 	bleq	ff241384 <__bss_end__+0xff235054>
    1380:	010f0000 	mrseq	r0, CPSR
    1384:	80110650 	andshi	r0, r1, r0, asr r6
    1388:	78b08880 	ldmvc	r0!, {r7, fp, pc}
    138c:	91c81300 	bicls	r1, r8, r0, lsl #6
    1390:	0bdc0000 	bleq	ff701398 <__bss_end__+0xff6f5068>
    1394:	010f0000 	mrseq	r0, CPSR
    1398:	70030550 	andvc	r0, r3, r0, asr r5
    139c:	000000b7 	strheq	r0, [r0], -r7
    13a0:	0091e813 	addseq	lr, r1, r3, lsl r8
    13a4:	000bef00 	andeq	lr, fp, r0, lsl #30
    13a8:	50010f00 	andpl	r0, r1, r0, lsl #30
    13ac:	b7800305 	strlt	r0, [r0, r5, lsl #6]
    13b0:	13000000 	movwne	r0, #0
    13b4:	00009200 	andeq	r9, r0, r0, lsl #4
    13b8:	00000bff 	strdeq	r0, [r0], -pc	; <UNPREDICTABLE>
    13bc:	0250010f 	subseq	r0, r0, #-1073741821	; 0xc0000003
    13c0:	1500007a 	strne	r0, [r0, #-122]	; 0x7a
    13c4:	00009210 	andeq	r9, r0, r0, lsl r2
    13c8:	0550010f 	ldrbeq	r0, [r0, #-271]	; 0x10f
    13cc:	00b32403 	adcseq	r2, r3, r3, lsl #8
    13d0:	20000000 	andcs	r0, r0, r0
    13d4:	00000025 	andeq	r0, r0, r5, lsr #32
    13d8:	00000c1e 	andeq	r0, r0, lr, lsl ip
    13dc:	00007f21 	andeq	r7, r0, r1, lsr #30
    13e0:	c7220000 	strgt	r0, [r2, -r0]!
    13e4:	02000004 	andeq	r0, r0, #4
    13e8:	000c2922 	andeq	r2, ip, r2, lsr #18
    13ec:	0f040400 	svceq	0x00040400
    13f0:	2300000c 	movwcs	r0, #12
    13f4:	0000030c 	andeq	r0, r0, ip, lsl #6
    13f8:	008a8003 	addeq	r8, sl, r3
    13fc:	03050000 	movweq	r0, #20480	; 0x5000
    1400:	0000c324 	andeq	ip, r0, r4, lsr #6
    1404:	00005d24 	andeq	r5, r0, r4, lsr #26
    1408:	000c5000 	andeq	r5, ip, r0
    140c:	006b2500 	rsbeq	r2, fp, r0, lsl #10
    1410:	00010000 	andeq	r0, r1, r0
    1414:	00035f23 	andeq	r5, r3, r3, lsr #30
    1418:	407e0100 	rsbsmi	r0, lr, r0, lsl #2
    141c:	0500000c 	streq	r0, [r0, #-12]
    1420:	00c31c03 	sbceq	r1, r3, r3, lsl #24
    1424:	03662300 	cmneq	r6, #0, 6
    1428:	7e010000 	cdpvc	0, 0, cr0, cr1, cr0, {0}
    142c:	0000005d 	andeq	r0, r0, sp, asr r0
    1430:	c3100305 	tstgt	r0, #335544320	; 0x14000000
    1434:	80230000 	eorhi	r0, r3, r0
    1438:	01000002 	tsteq	r0, r2
    143c:	00005d7e 	andeq	r5, r0, lr, ror sp
    1440:	18030500 	stmdane	r3, {r8, sl}
    1444:	230000c3 	movwcs	r0, #195	; 0xc3
    1448:	00000287 	andeq	r0, r0, r7, lsl #5
    144c:	005d7e01 	subseq	r7, sp, r1, lsl #28
    1450:	03050000 	movweq	r0, #20480	; 0x5000
    1454:	0000c314 	andeq	ip, r0, r4, lsl r3
    1458:	00038623 	andeq	r8, r3, r3, lsr #12
    145c:	5d7e0100 	ldfple	f0, [lr, #-0]
    1460:	05000000 	streq	r0, [r0, #-0]
    1464:	00c32803 	sbceq	r2, r3, r3, lsl #16
    1468:	02f22600 	rscseq	r2, r2, #0, 12
    146c:	50020000 	andpl	r0, r2, r0
    1470:	00000cb6 			; <UNDEFINED> instruction: 0x00000cb6
    1474:	00002c21 	andeq	r2, r0, r1, lsr #24
    1478:	8c270000 	stchi	0, cr0, [r7], #-0
    147c:	02000003 	andeq	r0, r0, #3
    1480:	0000252e 	andeq	r2, r0, lr, lsr #10
    1484:	000ccb00 	andeq	ip, ip, r0, lsl #22
    1488:	002c2100 	eoreq	r2, ip, r0, lsl #2
    148c:	28000000 	stmdacs	r0, {}	; <UNPREDICTABLE>
    1490:	00000273 	andeq	r0, r0, r3, ror r2
    1494:	2c214c02 	stccs	12, cr4, [r1], #-8
    1498:	00000000 	andeq	r0, r0, r0
    149c:	00046600 	andeq	r6, r4, r0, lsl #12
    14a0:	2a000400 	bcs	24a8 <_start-0x5b58>
    14a4:	04000004 	streq	r0, [r0], #-4
    14a8:	00004701 	andeq	r4, r0, r1, lsl #14
    14ac:	03d70100 	bicseq	r0, r7, #0, 2
    14b0:	01150000 	tsteq	r5, r0
    14b4:	92e40000 	rscls	r0, r4, #0
    14b8:	078c0000 	streq	r0, [ip, r0]
    14bc:	051e0000 	ldreq	r0, [lr, #-0]
    14c0:	04020000 	streq	r0, [r2], #-0
    14c4:	746e6905 	strbtvc	r6, [lr], #-2309	; 0x905
    14c8:	07040300 	streq	r0, [r4, -r0, lsl #6]
    14cc:	000001af 	andeq	r0, r0, pc, lsr #3
    14d0:	09060103 	stmdbeq	r6, {r0, r1, r8}
    14d4:	03000001 	movweq	r0, #1
    14d8:	02020502 	andeq	r0, r2, #8388608	; 0x800000
    14dc:	04030000 	streq	r0, [r3], #-0
    14e0:	0001e205 	andeq	lr, r1, r5, lsl #4
    14e4:	05080300 	streq	r0, [r8, #-768]	; 0x300
    14e8:	000001dd 	ldrdeq	r0, [r0], -sp
    14ec:	0001bc04 	andeq	fp, r1, r4, lsl #24
    14f0:	5a2e0200 	bpl	b81cf8 <__bss_end__+0xb759c8>
    14f4:	03000000 	movweq	r0, #0
    14f8:	01070801 	tsteq	r7, r1, lsl #16
    14fc:	0c040000 	stceq	0, cr0, [r4], {-0}
    1500:	02000002 	andeq	r0, r0, #2
    1504:	00006c31 	andeq	r6, r0, r1, lsr ip
    1508:	07020300 	streq	r0, [r2, -r0, lsl #6]
    150c:	000000ec 	andeq	r0, r0, ip, ror #1
    1510:	00021f04 	andeq	r1, r2, r4, lsl #30
    1514:	7e340200 	cdpvc	2, 3, cr0, cr4, cr0, {0}
    1518:	03000000 	movweq	r0, #0
    151c:	01aa0704 			; <UNDEFINED> instruction: 0x01aa0704
    1520:	08030000 	stmdaeq	r3, {}	; <UNPREDICTABLE>
    1524:	0001a507 	andeq	sl, r1, r7, lsl #10
    1528:	07040300 	streq	r0, [r4, -r0, lsl #6]
    152c:	000001d4 	ldrdeq	r0, [r0], -r4
    1530:	10080103 	andne	r0, r8, r3, lsl #2
    1534:	05000001 	streq	r0, [r0, #-1]
    1538:	0000a004 	andeq	sl, r0, r4
    153c:	00930600 	addseq	r0, r3, r0, lsl #12
    1540:	6d070000 	stcvs	0, cr0, [r7, #-0]
    1544:	00007262 	andeq	r7, r0, r2, ror #4
    1548:	00370302 	eorseq	r0, r7, r2, lsl #6
    154c:	08000001 	stmdaeq	r0, {r0}
    1550:	0000016d 	andeq	r0, r0, sp, ror #2
    1554:	01003803 	tsteq	r0, r3, lsl #16
    1558:	09000000 	stmdbeq	r0, {}	; <UNPREDICTABLE>
    155c:	000000d5 	ldrdeq	r0, [r0], -r5
    1560:	01113903 	tsteq	r1, r3, lsl #18
    1564:	01be0000 			; <UNDEFINED> instruction: 0x01be0000
    1568:	00024b09 	andeq	r4, r2, r9, lsl #22
    156c:	113a0300 	teqne	sl, r0, lsl #6
    1570:	ce000001 	cdpgt	0, 0, cr0, cr0, cr1, {0}
    1574:	02550901 	subseq	r0, r5, #16384	; 0x4000
    1578:	3b030000 	blcc	c1580 <__bss_end__+0xb5250>
    157c:	00000111 	andeq	r0, r0, r1, lsl r1
    1580:	5f0901de 	svcpl	0x000901de
    1584:	03000002 	movweq	r0, #2
    1588:	0001113c 	andeq	r1, r1, ip, lsr r1
    158c:	0901ee00 	stmdbeq	r1, {r9, sl, fp, sp, lr, pc}
    1590:	00000228 	andeq	r0, r0, r8, lsr #4
    1594:	00613d03 	rsbeq	r3, r1, r3, lsl #26
    1598:	01fe0000 	mvnseq	r0, r0
    159c:	004f0a00 	subeq	r0, pc, r0, lsl #20
    15a0:	01110000 	tsteq	r1, r0
    15a4:	8c0b0000 	stchi	0, cr0, [fp], {-0}
    15a8:	bd000000 	stclt	0, cr0, [r0, #-0]
    15ac:	4f0a0001 	svcmi	0x000a0001
    15b0:	21000000 	mrscs	r0, (UNDEF: 0)
    15b4:	0c000001 	stceq	0, cr0, [r0], {1}
    15b8:	0000008c 	andeq	r0, r0, ip, lsl #1
    15bc:	c40d000f 	strgt	r0, [sp], #-15
    15c0:	10000001 	andne	r0, r0, r1
    15c4:	01824203 	orreq	r4, r2, r3, lsl #4
    15c8:	910e0000 	mrsls	r0, (UNDEF: 14)
    15cc:	03000001 	movweq	r0, #1
    15d0:	00007343 	andeq	r7, r0, r3, asr #6
    15d4:	18080400 	stmdane	r8, {sl}
    15d8:	02690e00 	rsbeq	r0, r9, #0, 28
    15dc:	44030000 	strmi	r0, [r3], #-0
    15e0:	00000073 	andeq	r0, r0, r3, ror r0
    15e4:	00001804 	andeq	r1, r0, r4, lsl #16
    15e8:	0000110e 	andeq	r1, r0, lr, lsl #2
    15ec:	73450300 	movtvc	r0, #21248	; 0x5300
    15f0:	04000000 	streq	r0, [r0], #-0
    15f4:	0e041808 	cdpeq	8, 0, cr1, cr4, cr8, {0}
    15f8:	000000ba 	strheq	r0, [r0], -sl
    15fc:	00734603 	rsbseq	r4, r3, r3, lsl #12
    1600:	18040000 	stmdane	r4, {}	; <UNPREDICTABLE>
    1604:	07080400 	streq	r0, [r8, -r0, lsl #8]
    1608:	03000000 	movweq	r0, #0
    160c:	00007347 	andeq	r7, r0, r7, asr #6
    1610:	eb080800 	bl	203618 <__bss_end__+0x1f72e8>
    1614:	03000001 	movweq	r0, #1
    1618:	00007348 	andeq	r7, r0, r8, asr #6
    161c:	0f000c00 	svceq	0x00000c00
    1620:	00000215 	andeq	r0, r0, r5, lsl r2
    1624:	92e40601 	rscls	r0, r4, #1048576	; 0x100000
    1628:	00480000 	subeq	r0, r8, r0
    162c:	9c010000 	stcls	0, cr0, [r1], {-0}
    1630:	000001f6 	strdeq	r0, [r0], -r6
    1634:	72626d10 	rsbvc	r6, r2, #16, 26	; 0x400
    1638:	f6060100 			; <UNDEFINED> instruction: 0xf6060100
    163c:	c7000001 	strgt	r0, [r0, -r1]
    1640:	11000008 	tstne	r0, r8
    1644:	00000172 	andeq	r0, r0, r2, ror r1
    1648:	0000020c 	andeq	r0, r0, ip, lsl #4
    164c:	b78c0305 	strlt	r0, [ip, r5, lsl #6]
    1650:	00120000 	andseq	r0, r2, r0
    1654:	45000093 	strmi	r0, [r0, #-147]	; 0x93
    1658:	13000004 	movwne	r0, #4
    165c:	00009314 	andeq	r9, r0, r4, lsl r3
    1660:	0000044c 	andeq	r0, r0, ip, asr #8
    1664:	000001ec 	andeq	r0, r0, ip, ror #3
    1668:	01530114 	cmpeq	r3, r4, lsl r1
    166c:	52011437 	andpl	r1, r1, #922746880	; 0x37000000
    1670:	b78c0305 	strlt	r0, [ip, r5, lsl #6]
    1674:	01140000 	tsteq	r4, r0
    1678:	e4030551 	str	r0, [r3], #-1361	; 0x551
    167c:	140000b7 	strne	r0, [r0], #-183	; 0xb7
    1680:	03055001 	movweq	r5, #20481	; 0x5001
    1684:	0000b7bc 			; <UNDEFINED> instruction: 0x0000b7bc
    1688:	93181200 	tstls	r8, #0, 4
    168c:	04620000 	strbteq	r0, [r2], #-0
    1690:	05000000 	streq	r0, [r0, #-0]
    1694:	0000a504 	andeq	sl, r0, r4, lsl #10
    1698:	00930a00 	addseq	r0, r3, r0, lsl #20
    169c:	020c0000 	andeq	r0, ip, #0
    16a0:	8c0c0000 	stchi	0, cr0, [ip], {-0}
    16a4:	09000000 	stmdbeq	r0, {}	; <UNPREDICTABLE>
    16a8:	01fc0600 	mvnseq	r0, r0, lsl #12
    16ac:	ca150000 	bgt	5416b4 <__bss_end__+0x535384>
    16b0:	01000003 	tsteq	r0, r3
    16b4:	00009a0b 	andeq	r9, r0, fp, lsl #20
    16b8:	00932c00 	addseq	r2, r3, r0, lsl #24
    16bc:	0005e000 	andeq	lr, r5, r0
    16c0:	8f9c0100 	svchi	0x009c0100
    16c4:	10000002 	andne	r0, r0, r2
    16c8:	0b010078 	bleq	418b0 <__bss_end__+0x35580>
    16cc:	00000025 	andeq	r0, r0, r5, lsr #32
    16d0:	000008e8 	andeq	r0, r0, r8, ror #17
    16d4:	00017211 	andeq	r7, r1, r1, lsl r2
    16d8:	00029f00 	andeq	r9, r2, r0, lsl #30
    16dc:	98030500 	stmdals	r3, {r8, sl}
    16e0:	120000b7 	andne	r0, r0, #183	; 0xb7
    16e4:	0000984c 	andeq	r9, r0, ip, asr #16
    16e8:	00000445 	andeq	r0, r0, r5, asr #8
    16ec:	00986413 	addseq	r6, r8, r3, lsl r4
    16f0:	00044c00 	andeq	r4, r4, r0, lsl #24
    16f4:	00028500 	andeq	r8, r2, r0, lsl #10
    16f8:	53011400 	movwpl	r1, #5120	; 0x1400
    16fc:	14320802 	ldrtne	r0, [r2], #-2050	; 0x802
    1700:	03055201 	movweq	r5, #20993	; 0x5201
    1704:	0000b798 	muleq	r0, r8, r7
    1708:	05510114 	ldrbeq	r0, [r1, #-276]	; 0x114
    170c:	00b7e403 	adcseq	lr, r7, r3, lsl #8
    1710:	50011400 	andpl	r1, r1, r0, lsl #8
    1714:	ba480305 	blt	1202330 <__bss_end__+0x11f6000>
    1718:	02140000 	andseq	r0, r4, #0
    171c:	7402007d 	strvc	r0, [r2], #-125	; 0x7d
    1720:	68120000 	ldmdavs	r2, {}	; <UNPREDICTABLE>
    1724:	62000098 	andvs	r0, r0, #152	; 0x98
    1728:	00000004 	andeq	r0, r0, r4
    172c:	0000930a 	andeq	r9, r0, sl, lsl #6
    1730:	00029f00 	andeq	r9, r2, r0, lsl #30
    1734:	008c0c00 	addeq	r0, ip, r0, lsl #24
    1738:	000c0000 	andeq	r0, ip, r0
    173c:	00028f06 	andeq	r8, r2, r6, lsl #30
    1740:	00261500 	eoreq	r1, r6, r0, lsl #10
    1744:	36010000 	strcc	r0, [r1], -r0
    1748:	00000025 	andeq	r0, r0, r5, lsr #32
    174c:	0000990c 	andeq	r9, r0, ip, lsl #18
    1750:	00000030 	andeq	r0, r0, r0, lsr r0
    1754:	02e09c01 	rsceq	r9, r0, #256	; 0x100
    1758:	e7160000 	ldr	r0, [r6, -r0]
    175c:	01000003 	tsteq	r0, r3
    1760:	0002e036 	andeq	lr, r2, r6, lsr r0
    1764:	000c2c00 	andeq	r2, ip, r0, lsl #24
    1768:	00181700 	andseq	r1, r8, r0, lsl #14
    176c:	69180000 	ldmdbvs	r8, {}	; <UNPREDICTABLE>
    1770:	25370100 	ldrcs	r0, [r7, #-256]!	; 0x100
    1774:	66000000 	strvs	r0, [r0], -r0
    1778:	0000000c 	andeq	r0, r0, ip
    177c:	4f040500 	svcmi	0x00040500
    1780:	0f000000 	svceq	0x00000000
    1784:	000000a6 	andeq	r0, r0, r6, lsr #1
    1788:	993c3d01 	ldmdbls	ip!, {r0, r8, sl, fp, ip, sp}
    178c:	01340000 	teqeq	r4, r0
    1790:	9c010000 	stcls	0, cr0, [r1], {-0}
    1794:	0000042a 	andeq	r0, r0, sl, lsr #8
    1798:	67736d10 			; <UNDEFINED> instruction: 0x67736d10
    179c:	9a3d0100 	bls	f41ba4 <__bss_end__+0xf35874>
    17a0:	85000000 	strhi	r0, [r0, #-0]
    17a4:	1000000c 	andne	r0, r0, ip
    17a8:	3d010070 	stccc	0, cr0, [r1, #-448]	; 0xfffffe40
    17ac:	0000042a 	andeq	r0, r0, sl, lsr #8
    17b0:	00000cb1 			; <UNDEFINED> instruction: 0x00000cb1
    17b4:	00017211 	andeq	r7, r1, r1, lsl r2
    17b8:	00044000 	andeq	r4, r4, r0
    17bc:	a8030500 	stmdage	r3, {r8, sl}
    17c0:	130000b7 	movwne	r0, #183	; 0xb7
    17c4:	00009954 	andeq	r9, r0, r4, asr r9
    17c8:	0000044c 	andeq	r0, r0, ip, asr #8
    17cc:	00000344 	andeq	r0, r0, r4, asr #6
    17d0:	03510114 	cmpeq	r1, #20, 2
    17d4:	145001f3 	ldrbne	r0, [r0], #-499	; 0x1f3
    17d8:	03055001 	movweq	r5, #20481	; 0x5001
    17dc:	0000ba7c 	andeq	fp, r0, ip, ror sl
    17e0:	996c1300 	stmdbls	ip!, {r8, r9, ip}^
    17e4:	044c0000 	strbeq	r0, [ip], #-0
    17e8:	035b0000 	cmpeq	fp, #0
    17ec:	01140000 	tsteq	r4, r0
    17f0:	84030550 	strhi	r0, [r3], #-1360	; 0x550
    17f4:	000000ba 	strheq	r0, [r0], -sl
    17f8:	00998813 	addseq	r8, r9, r3, lsl r8
    17fc:	00044c00 	andeq	r4, r4, r0, lsl #24
    1800:	00037200 	andeq	r7, r3, r0, lsl #4
    1804:	50011400 	andpl	r1, r1, r0, lsl #8
    1808:	ba980305 	blt	fe602424 <__bss_end__+0xfe5f60f4>
    180c:	13000000 	movwne	r0, #0
    1810:	00009994 	muleq	r0, r4, r9
    1814:	00000211 	andeq	r0, r0, r1, lsl r2
    1818:	00000386 	andeq	r0, r0, r6, lsl #7
    181c:	02500114 	subseq	r0, r0, #20, 2
    1820:	13000075 	movwne	r0, #117	; 0x75
    1824:	000099a4 	andeq	r9, r0, r4, lsr #19
    1828:	0000044c 	andeq	r0, r0, ip, asr #8
    182c:	000003a3 	andeq	r0, r0, r3, lsr #7
    1830:	02510114 	subseq	r0, r1, #20, 2
    1834:	01140075 	tsteq	r4, r5, ror r0
    1838:	ac030550 	cfstr32ge	mvfx0, [r3], {80}	; 0x50
    183c:	000000ba 	strheq	r0, [r0], -sl
    1840:	0099c013 	addseq	ip, r9, r3, lsl r0
    1844:	00044c00 	andeq	r4, r4, r0, lsl #24
    1848:	0003ba00 	andeq	fp, r3, r0, lsl #20
    184c:	50011400 	andpl	r1, r1, r0, lsl #8
    1850:	bac40305 	blt	ff10246c <__bss_end__+0xff0f613c>
    1854:	13000000 	movwne	r0, #0
    1858:	000099e4 	andeq	r9, r0, r4, ror #19
    185c:	0000044c 	andeq	r0, r0, ip, asr #8
    1860:	000003d1 	ldrdeq	r0, [r0], -r1
    1864:	05500114 	ldrbeq	r0, [r0, #-276]	; 0x114
    1868:	00bad803 	adcseq	sp, sl, r3, lsl #16
    186c:	10130000 	andsne	r0, r3, r0
    1870:	4c00009a 	stcmi	0, cr0, [r0], {154}	; 0x9a
    1874:	e8000004 	stmda	r0, {r2}
    1878:	14000003 	strne	r0, [r0], #-3
    187c:	03055001 	movweq	r5, #20481	; 0x5001
    1880:	0000baec 	andeq	fp, r0, ip, ror #21
    1884:	9a281200 	bls	a0608c <__bss_end__+0x9f9d5c>
    1888:	04450000 	strbeq	r0, [r5], #-0
    188c:	3c130000 	ldccc	0, cr0, [r3], {-0}
    1890:	4c00009a 	stcmi	0, cr0, [r0], {154}	; 0x9a
    1894:	20000004 	andcs	r0, r0, r4
    1898:	14000004 	strne	r0, [r0], #-4
    189c:	08025301 	stmdaeq	r2, {r0, r8, r9, ip, lr}
    18a0:	52011445 	andpl	r1, r1, #1157627904	; 0x45000000
    18a4:	b7a80305 	strlt	r0, [r8, r5, lsl #6]!
    18a8:	01140000 	tsteq	r4, r0
    18ac:	e4030551 	str	r0, [r3], #-1361	; 0x551
    18b0:	140000b7 	strne	r0, [r0], #-183	; 0xb7
    18b4:	03055001 	movweq	r5, #20481	; 0x5001
    18b8:	0000bb08 	andeq	fp, r0, r8, lsl #22
    18bc:	9a401200 	bls	10060c4 <__bss_end__+0xff9d94>
    18c0:	04620000 	strbteq	r0, [r2], #-0
    18c4:	05000000 	streq	r0, [r0, #-0]
    18c8:	00012104 	andeq	r2, r1, r4, lsl #2
    18cc:	00930a00 	addseq	r0, r3, r0, lsl #20
    18d0:	04400000 	strbeq	r0, [r0], #-0
    18d4:	8c0c0000 	stchi	0, cr0, [ip], {-0}
    18d8:	13000000 	movwne	r0, #0
    18dc:	04300600 	ldrteq	r0, [r0], #-1536	; 0x600
    18e0:	3c190000 	ldccc	0, cr0, [r9], {-0}
    18e4:	04000002 	streq	r0, [r0], #-2
    18e8:	045e1a1e 	ldrbeq	r1, [lr], #-2590	; 0xa1e
    18ec:	29040000 	stmdbcs	r4, {}	; <UNPREDICTABLE>
    18f0:	00000025 	andeq	r0, r0, r5, lsr #32
    18f4:	00000462 	andeq	r0, r0, r2, ror #8
    18f8:	00009a1b 	andeq	r9, r0, fp, lsl sl
    18fc:	19001c00 	stmdbne	r0, {sl, fp, ip}
    1900:	000000df 	ldrdeq	r0, [r0], -pc	; <UNPREDICTABLE>
    1904:	66006604 	strvs	r6, [r0], -r4, lsl #12
    1908:	04000001 	streq	r0, [r0], #-1
    190c:	0005aa00 	andeq	sl, r5, r0, lsl #20
    1910:	47010400 	strmi	r0, [r1, -r0, lsl #8]
    1914:	01000000 	mrseq	r0, (UNDEF: 0)
    1918:	000003ec 	andeq	r0, r0, ip, ror #7
    191c:	000003fa 	strdeq	r0, [r0], -sl
    1920:	00009a70 	andeq	r9, r0, r0, ror sl
    1924:	0000006c 	andeq	r0, r0, ip, rrx
    1928:	0000068c 	andeq	r0, r0, ip, lsl #13
    192c:	09060102 	stmdbeq	r6, {r1, r8}
    1930:	02000001 	andeq	r0, r0, #1
    1934:	01070801 	tsteq	r7, r1, lsl #16
    1938:	02020000 	andeq	r0, r2, #0
    193c:	00020205 	andeq	r0, r2, r5, lsl #4
    1940:	07020200 	streq	r0, [r2, -r0, lsl #4]
    1944:	000000ec 	andeq	r0, r0, ip, ror #1
    1948:	69050403 	stmdbvs	r5, {r0, r1, sl}
    194c:	0200746e 	andeq	r7, r0, #1845493760	; 0x6e000000
    1950:	01af0704 			; <UNDEFINED> instruction: 0x01af0704
    1954:	08020000 	stmdaeq	r2, {}	; <UNPREDICTABLE>
    1958:	0001dd05 	andeq	sp, r1, r5, lsl #26
    195c:	07080200 	streq	r0, [r8, -r0, lsl #4]
    1960:	000001a5 	andeq	r0, r0, r5, lsr #3
    1964:	e2050402 	and	r0, r5, #33554432	; 0x2000000
    1968:	02000001 	andeq	r0, r0, #1
    196c:	01d40704 	bicseq	r0, r4, r4, lsl #14
    1970:	04040000 	streq	r0, [r4], #-0
    1974:	aa070402 	bge	1c2984 <__bss_end__+0x1b6654>
    1978:	05000001 	streq	r0, [r0, #-1]
    197c:	00002c04 	andeq	r2, r0, r4, lsl #24
    1980:	08010200 	stmdaeq	r1, {r9}
    1984:	00000110 	andeq	r0, r0, r0, lsl r1
    1988:	00000006 	andeq	r0, r0, r6
    198c:	48d40200 	ldmmi	r4, {r9}^
    1990:	07000000 	streq	r0, [r0, -r0]
    1994:	000001fb 	strdeq	r0, [r0], -fp
    1998:	006b1903 	rsbeq	r1, fp, r3, lsl #18
    199c:	9a700000 	bls	1c019a4 <__bss_end__+0x1bf5674>
    19a0:	006c0000 	rsbeq	r0, ip, r0
    19a4:	9c010000 	stcls	0, cr0, [r1], {-0}
    19a8:	00000146 	andeq	r0, r0, r6, asr #2
    19ac:	74736408 	ldrbtvc	r6, [r3], #-1032	; 0x408
    19b0:	6b060100 	blvs	181db8 <__bss_end__+0x175a88>
    19b4:	01000000 	mrseq	r0, (UNDEF: 0)
    19b8:	72730850 	rsbsvc	r0, r3, #80, 16	; 0x500000
    19bc:	06010063 	streq	r0, [r1], -r3, rrx
    19c0:	00000146 	andeq	r0, r0, r6, asr #2
    19c4:	8f095101 	svchi	0x00095101
    19c8:	01000007 	tsteq	r0, r7
    19cc:	00008106 	andeq	r8, r0, r6, lsl #2
    19d0:	000ccf00 	andeq	ip, ip, r0, lsl #30
    19d4:	9a880a00 	bls	fe2041dc <__bss_end__+0xfe1f7eac>
    19d8:	00240000 	eoreq	r0, r4, r0
    19dc:	011a0000 	tsteq	sl, r0
    19e0:	6e0b0000 	cdpvs	0, 0, cr0, cr11, cr0, {0}
    19e4:	480c0100 	stmdami	ip, {r8}
    19e8:	fb000000 	blx	19f2 <_start-0x660e>
    19ec:	0b00000c 	bleq	1a24 <_start-0x65dc>
    19f0:	0d010064 	stceq	0, cr0, [r1, #-400]	; 0xfffffe70
    19f4:	0000014d 	andeq	r0, r0, sp, asr #2
    19f8:	00000d0e 	andeq	r0, r0, lr, lsl #26
    19fc:	0100730b 	tsteq	r0, fp, lsl #6
    1a00:	0001530e 	andeq	r5, r1, lr, lsl #6
    1a04:	000d2100 	andeq	r2, sp, r0, lsl #2
    1a08:	9a8c0c00 	bls	fe304a10 <__bss_end__+0xfe2f86e0>
    1a0c:	00200000 	eoreq	r0, r0, r0
    1a10:	690b0000 	stmdbvs	fp, {}	; <UNPREDICTABLE>
    1a14:	48100100 	ldmdami	r0, {r8}
    1a18:	34000000 	strcc	r0, [r0], #-0
    1a1c:	0000000d 	andeq	r0, r0, sp
    1a20:	00300d00 	eorseq	r0, r0, r0, lsl #26
    1a24:	640e0000 	strvs	r0, [lr], #-0
    1a28:	74130100 	ldrvc	r0, [r3], #-256	; 0x100
    1a2c:	0e000000 	cdpeq	0, 0, cr0, cr0, cr0, {0}
    1a30:	14010073 	strne	r0, [r1], #-115	; 0x73
    1a34:	0000015e 	andeq	r0, r0, lr, asr r1
    1a38:	0000300d 	andeq	r3, r0, sp
    1a3c:	00690b00 	rsbeq	r0, r9, r0, lsl #22
    1a40:	00481501 	subeq	r1, r8, r1, lsl #10
    1a44:	0d530000 	ldcleq	0, cr0, [r3, #-0]
    1a48:	00000000 	andeq	r0, r0, r0
    1a4c:	4c040500 	cfstr32mi	mvfx0, [r4], {-0}
    1a50:	0f000001 	svceq	0x00000001
    1a54:	00480405 	subeq	r0, r8, r5, lsl #8
    1a58:	04050000 	streq	r0, [r5], #-0
    1a5c:	00000159 	andeq	r0, r0, r9, asr r1
    1a60:	00004810 	andeq	r4, r0, r0, lsl r8
    1a64:	64040500 	strvs	r0, [r4], #-1280	; 0x500
    1a68:	10000001 	andne	r0, r0, r1
    1a6c:	0000002c 	andeq	r0, r0, ip, lsr #32
    1a70:	00019100 	andeq	r9, r1, r0, lsl #2
    1a74:	6e000400 	cfcpysvs	mvf0, mvf0
    1a78:	04000006 	streq	r0, [r0], #-6
    1a7c:	00004701 	andeq	r4, r0, r1, lsl #14
    1a80:	044d0100 	strbeq	r0, [sp], #-256	; 0x100
    1a84:	03fa0000 	mvnseq	r0, #0
    1a88:	9adc0000 	bls	ff701a90 <__bss_end__+0xff6f5760>
    1a8c:	00580000 	subseq	r0, r8, r0
    1a90:	07a00000 	streq	r0, [r0, r0]!
    1a94:	3e020000 	cdpcc	0, 0, cr0, cr2, cr0, {0}
    1a98:	02000004 	andeq	r0, r0, #4
    1a9c:	00003028 	andeq	r3, r0, r8, lsr #32
    1aa0:	04650300 	strbteq	r0, [r5], #-768	; 0x300
    1aa4:	03040000 	movweq	r0, #16384	; 0x4000
    1aa8:	00004700 	andeq	r4, r0, r0, lsl #14
    1aac:	04740400 	ldrbteq	r0, [r4], #-1024	; 0x400
    1ab0:	00470000 	subeq	r0, r7, r0
    1ab4:	00000000 	andeq	r0, r0, r0
    1ab8:	67020405 	strvs	r0, [r2, -r5, lsl #8]
    1abc:	02000004 	andeq	r0, r0, #4
    1ac0:	00002562 	andeq	r2, r0, r2, ror #10
    1ac4:	05040600 	streq	r0, [r4, #-1536]	; 0x600
    1ac8:	00746e69 	rsbseq	r6, r4, r9, ror #28
    1acc:	af070407 	svcge	0x00070407
    1ad0:	07000001 	streq	r0, [r0, -r1]
    1ad4:	01090601 	tsteq	r9, r1, lsl #12
    1ad8:	02070000 	andeq	r0, r7, #0
    1adc:	00020205 	andeq	r0, r2, r5, lsl #4
    1ae0:	05040700 	streq	r0, [r4, #-1792]	; 0x700
    1ae4:	000001e2 	andeq	r0, r0, r2, ror #3
    1ae8:	dd050807 	stcle	8, cr0, [r5, #-28]	; 0xffffffe4
    1aec:	07000001 	streq	r0, [r0, -r1]
    1af0:	01070801 	tsteq	r7, r1, lsl #16
    1af4:	02070000 	andeq	r0, r7, #0
    1af8:	0000ec07 	andeq	lr, r0, r7, lsl #24
    1afc:	07040700 	streq	r0, [r4, -r0, lsl #14]
    1b00:	000001aa 	andeq	r0, r0, sl, lsr #3
    1b04:	a5070807 	strge	r0, [r7, #-2055]	; 0x807
    1b08:	07000001 	streq	r0, [r0, -r1]
    1b0c:	01d40704 	bicseq	r0, r4, r4, lsl #14
    1b10:	04080000 	streq	r0, [r8], #-0
    1b14:	000000a7 	andeq	r0, r0, r7, lsr #1
    1b18:	10080107 	andne	r0, r8, r7, lsl #2
    1b1c:	08000001 	stmdaeq	r0, {r0}
    1b20:	0000b404 	andeq	fp, r0, r4, lsl #8
    1b24:	00a70900 	adceq	r0, r7, r0, lsl #18
    1b28:	5e0a0000 	cdppl	0, 0, cr0, cr10, cr0, {0}
    1b2c:	01000004 	tsteq	r0, r4
    1b30:	00005406 	andeq	r5, r0, r6, lsl #8
    1b34:	009adc00 	addseq	sp, sl, r0, lsl #24
    1b38:	00005800 	andeq	r5, r0, r0, lsl #16
    1b3c:	439c0100 	orrsmi	r0, ip, #0, 2
    1b40:	0b000001 	bleq	1b4c <_start-0x64b4>
    1b44:	00746d66 	rsbseq	r6, r4, r6, ror #26
    1b48:	00ae0601 	adceq	r0, lr, r1, lsl #12
    1b4c:	91020000 	mrsls	r0, (UNDEF: 2)
    1b50:	620d0c70 	andvs	r0, sp, #112, 24	; 0x7000
    1b54:	01006675 	tsteq	r0, r5, ror r6
    1b58:	00014308 	andeq	r4, r1, r8, lsl #6
    1b5c:	fc030500 	stc2	5, cr0, [r3], {-0}
    1b60:	0e0000be 	mcreq	0, 0, r0, cr0, cr14, {5}
    1b64:	0000046f 	andeq	r0, r0, pc, ror #8
    1b68:	00490901 	subeq	r0, r9, r1, lsl #18
    1b6c:	91020000 	mrsls	r0, (UNDEF: 2)
    1b70:	7a730f5c 	bvc	1cc58e8 <__bss_end__+0x1cb95b8>
    1b74:	540c0100 	strpl	r0, [ip], #-256	; 0x100
    1b78:	71000000 	mrsvc	r0, (UNDEF: 0)
    1b7c:	1000000d 	andne	r0, r0, sp
    1b80:	00009b04 	andeq	r9, r0, r4, lsl #22
    1b84:	00000174 	andeq	r0, r0, r4, ror r1
    1b88:	00000136 	andeq	r0, r0, r6, lsr r1
    1b8c:	02530111 	subseq	r0, r3, #1073741828	; 0x40000004
    1b90:	01114c91 			; <UNDEFINED> instruction: 0x01114c91
    1b94:	48910352 	ldmmi	r1, {r1, r4, r6, r8, r9}
    1b98:	51011106 	tstpl	r1, r6, lsl #2
    1b9c:	04000a03 	streq	r0, [r0], #-2563	; 0xa03
    1ba0:	02500111 	subseq	r0, r0, #1073741828	; 0x40000004
    1ba4:	12000074 	andne	r0, r0, #116	; 0x74
    1ba8:	00009b18 	andeq	r9, r0, r8, lsl fp
    1bac:	02500111 	subseq	r0, r0, #1073741828	; 0x40000004
    1bb0:	00000074 	andeq	r0, r0, r4, ror r0
    1bb4:	0000a713 	andeq	sl, r0, r3, lsl r7
    1bb8:	00015400 	andeq	r5, r1, r0, lsl #8
    1bbc:	009a1400 	addseq	r1, sl, r0, lsl #8
    1bc0:	03ff0000 	mvnseq	r0, #0
    1bc4:	00541500 	subseq	r1, r4, r0, lsl #10
    1bc8:	01630000 	cmneq	r3, r0
    1bcc:	ae160000 	cdpge	0, 1, cr0, cr6, cr0, {0}
    1bd0:	00000000 	andeq	r0, r0, r0
    1bd4:	0004c717 	andeq	ip, r4, r7, lsl r7
    1bd8:	6e220400 	cdpvs	4, 2, cr0, cr2, cr0, {0}
    1bdc:	08000001 	stmdaeq	r0, {r0}
    1be0:	00015404 	andeq	r5, r1, r4, lsl #8
    1be4:	045b1800 	ldrbeq	r1, [fp], #-2048	; 0x800
    1be8:	02050000 	andeq	r0, r5, #0
    1bec:	00000054 	andeq	r0, r0, r4, asr r0
    1bf0:	0000a116 	andeq	sl, r0, r6, lsl r1
    1bf4:	00541600 	subseq	r1, r4, r0, lsl #12
    1bf8:	ae160000 	cdpge	0, 1, cr0, cr6, cr0, {0}
    1bfc:	16000000 	strne	r0, [r0], -r0
    1c00:	00000049 	andeq	r0, r0, r9, asr #32
    1c04:	01130000 	tsteq	r3, r0
    1c08:	00040000 	andeq	r0, r4, r0
    1c0c:	0000079f 	muleq	r0, pc, r7	; <UNPREDICTABLE>
    1c10:	00470104 	subeq	r0, r7, r4, lsl #2
    1c14:	96010000 	strls	r0, [r1], -r0
    1c18:	fa000004 	blx	1c30 <_start-0x63d0>
    1c1c:	34000003 	strcc	r0, [r0], #-3
    1c20:	3c00009b 	stccc	0, cr0, [r0], {155}	; 0x9b
    1c24:	a6000000 	strge	r0, [r0], -r0
    1c28:	02000008 	andeq	r0, r0, #8
    1c2c:	6e690504 	cdpvs	5, 6, cr0, cr9, cr4, {0}
    1c30:	04030074 	streq	r0, [r3], #-116	; 0x74
    1c34:	0001af07 	andeq	sl, r1, r7, lsl #30
    1c38:	06010300 	streq	r0, [r1], -r0, lsl #6
    1c3c:	00000109 	andeq	r0, r0, r9, lsl #2
    1c40:	02050203 	andeq	r0, r5, #805306368	; 0x30000000
    1c44:	03000002 	movweq	r0, #2
    1c48:	01e20504 	mvneq	r0, r4, lsl #10
    1c4c:	08030000 	stmdaeq	r3, {}	; <UNPREDICTABLE>
    1c50:	0001dd05 	andeq	sp, r1, r5, lsl #26
    1c54:	08010300 	stmdaeq	r1, {r8, r9}
    1c58:	00000107 	andeq	r0, r0, r7, lsl #2
    1c5c:	ec070203 	sfm	f0, 4, [r7], {3}
    1c60:	03000000 	movweq	r0, #0
    1c64:	01aa0704 			; <UNDEFINED> instruction: 0x01aa0704
    1c68:	08030000 	stmdaeq	r3, {}	; <UNPREDICTABLE>
    1c6c:	0001a507 	andeq	sl, r1, r7, lsl #10
    1c70:	07040300 	streq	r0, [r4, -r0, lsl #6]
    1c74:	000001d4 	ldrdeq	r0, [r0], -r4
    1c78:	10080103 	andne	r0, r8, r3, lsl #2
    1c7c:	04000001 	streq	r0, [r0], #-1
    1c80:	00000479 	andeq	r0, r0, r9, ror r4
    1c84:	00250301 	eoreq	r0, r5, r1, lsl #6
    1c88:	9b340000 	blls	d01c90 <__bss_end__+0xcf5960>
    1c8c:	00140000 	andseq	r0, r4, r0
    1c90:	9c010000 	stcls	0, cr0, [r1], {-0}
    1c94:	000000b0 	strheq	r0, [r0], -r0	; <UNPREDICTABLE>
    1c98:	01006305 	tsteq	r0, r5, lsl #6
    1c9c:	00002503 	andeq	r2, r0, r3, lsl #10
    1ca0:	000d9a00 	andeq	r9, sp, r0, lsl #20
    1ca4:	9b400600 	blls	10034ac <__bss_end__+0xff717c>
    1ca8:	01090000 	mrseq	r0, (UNDEF: 9)
    1cac:	01070000 	mrseq	r0, (UNDEF: 7)
    1cb0:	00740250 	rsbseq	r0, r4, r0, asr r2
    1cb4:	3c080000 	stccc	0, cr0, [r8], {-0}
    1cb8:	01000002 	tsteq	r0, r2
    1cbc:	009b4808 	addseq	r4, fp, r8, lsl #16
    1cc0:	00001800 	andeq	r1, r0, r0, lsl #16
    1cc4:	099c0100 	ldmibeq	ip, {r8}
    1cc8:	000004a5 	andeq	r0, r0, r5, lsr #9
    1ccc:	9b600b01 	blls	18048d8 <__bss_end__+0x17f85a8>
    1cd0:	00100000 	andseq	r0, r0, r0
    1cd4:	9c010000 	stcls	0, cr0, [r1], {-0}
    1cd8:	000000e3 	andeq	r0, r0, r3, ror #1
    1cdc:	0070660a 	rsbseq	r6, r0, sl, lsl #12
    1ce0:	00f20b01 	rscseq	r0, r2, r1, lsl #22
    1ce4:	50010000 	andpl	r0, r1, r0
    1ce8:	00250b00 	eoreq	r0, r5, r0, lsl #22
    1cec:	00f20000 	rscseq	r0, r2, r0
    1cf0:	250c0000 	strcs	r0, [ip, #-0]
    1cf4:	00000000 	andeq	r0, r0, r0
    1cf8:	00e3040d 	rsceq	r0, r3, sp, lsl #8
    1cfc:	8a0e0000 	bhi	381d04 <__bss_end__+0x3759d4>
    1d00:	01000004 	tsteq	r0, r4
    1d04:	0000f206 	andeq	pc, r0, r6, lsl #4
    1d08:	24030500 	strcs	r0, [r3], #-1280	; 0x500
    1d0c:	0f0000b2 	svceq	0x000000b2
    1d10:	00000601 	andeq	r0, r0, r1, lsl #12
    1d14:	2c0c3c02 	stccs	12, cr3, [ip], {2}
    1d18:	00000000 	andeq	r0, r0, r0
    1d1c:	0000ee00 	andeq	lr, r0, r0, lsl #28
    1d20:	87000400 	strhi	r0, [r0, -r0, lsl #8]
    1d24:	04000008 	streq	r0, [r0], #-8
    1d28:	00004701 	andeq	r4, r0, r1, lsl #14
    1d2c:	04b20100 	ldrteq	r0, [r2], #256	; 0x100
    1d30:	03fa0000 	mvnseq	r0, #0
    1d34:	9b700000 	blls	1c01d3c <__bss_end__+0x1bf5a0c>
    1d38:	00340000 	eorseq	r0, r4, r0
    1d3c:	09340000 	ldmdbeq	r4!, {}	; <UNPREDICTABLE>
    1d40:	04020000 	streq	r0, [r2], #-0
    1d44:	746e6905 	strbtvc	r6, [lr], #-2309	; 0x905
    1d48:	07040300 	streq	r0, [r4, -r0, lsl #6]
    1d4c:	000001af 	andeq	r0, r0, pc, lsr #3
    1d50:	09060103 	stmdbeq	r6, {r0, r1, r8}
    1d54:	03000001 	movweq	r0, #1
    1d58:	02020502 	andeq	r0, r2, #8388608	; 0x800000
    1d5c:	04030000 	streq	r0, [r3], #-0
    1d60:	0001e205 	andeq	lr, r1, r5, lsl #4
    1d64:	05080300 	streq	r0, [r8, #-768]	; 0x300
    1d68:	000001dd 	ldrdeq	r0, [r0], -sp
    1d6c:	07080103 	streq	r0, [r8, -r3, lsl #2]
    1d70:	03000001 	movweq	r0, #1
    1d74:	00ec0702 	rsceq	r0, ip, r2, lsl #14
    1d78:	04030000 	streq	r0, [r3], #-0
    1d7c:	0001aa07 	andeq	sl, r1, r7, lsl #20
    1d80:	07080300 	streq	r0, [r8, -r0, lsl #6]
    1d84:	000001a5 	andeq	r0, r0, r5, lsr #3
    1d88:	d4070403 	strle	r0, [r7], #-1027	; 0x403
    1d8c:	03000001 	movweq	r0, #1
    1d90:	01100801 	tsteq	r0, r1, lsl #16
    1d94:	04040000 	streq	r0, [r4], #-0
    1d98:	0000007f 	andeq	r0, r0, pc, ror r0
    1d9c:	00007205 	andeq	r7, r0, r5, lsl #4
    1da0:	04be0600 	ldrteq	r0, [lr], #1536	; 0x600
    1da4:	04010000 	streq	r0, [r1], #-0
    1da8:	00000025 	andeq	r0, r0, r5, lsr #32
    1dac:	00009b70 	andeq	r9, r0, r0, ror fp
    1db0:	00000034 	andeq	r0, r0, r4, lsr r0
    1db4:	00ab9c01 	adceq	r9, fp, r1, lsl #24
    1db8:	70070000 	andvc	r0, r7, r0
    1dbc:	79040100 	stmdbvc	r4, {r8}
    1dc0:	b8000000 	stmdalt	r0, {}	; <UNPREDICTABLE>
    1dc4:	0000000d 	andeq	r0, r0, sp
    1dc8:	00002508 	andeq	r2, r0, r8, lsl #10
    1dcc:	0000ba00 	andeq	fp, r0, r0, lsl #20
    1dd0:	00250900 	eoreq	r0, r5, r0, lsl #18
    1dd4:	0a000000 	beq	1ddc <_start-0x6224>
    1dd8:	0000048a 	andeq	r0, r0, sl, lsl #9
    1ddc:	00c51d02 	sbceq	r1, r5, r2, lsl #26
    1de0:	04040000 	streq	r0, [r4], #-0
    1de4:	000000ab 	andeq	r0, r0, fp, lsr #1
    1de8:	00002508 	andeq	r2, r0, r8, lsl #10
    1dec:	0000da00 	andeq	sp, r0, r0, lsl #20
    1df0:	00790900 	rsbseq	r0, r9, r0, lsl #18
    1df4:	0b000000 	bleq	1dfc <_start-0x6204>
    1df8:	000004c7 	andeq	r0, r0, r7, asr #9
    1dfc:	00eb0c01 	rsceq	r0, fp, r1, lsl #24
    1e00:	03050000 	movweq	r0, #20480	; 0x5000
    1e04:	0000b228 	andeq	fp, r0, r8, lsr #4
    1e08:	00cb0404 	sbceq	r0, fp, r4, lsl #8
    1e0c:	d4000000 	strle	r0, [r0], #-0
    1e10:	04000000 	streq	r0, [r0], #-0
    1e14:	00092000 	andeq	r2, r9, r0
    1e18:	47010400 	strmi	r0, [r1, -r0, lsl #8]
    1e1c:	01000000 	mrseq	r0, (UNDEF: 0)
    1e20:	000004cc 	andeq	r0, r0, ip, asr #9
    1e24:	000003fa 	strdeq	r0, [r0], -sl
    1e28:	00009ba4 	andeq	r9, r0, r4, lsr #23
    1e2c:	0000001c 	andeq	r0, r0, ip, lsl r0
    1e30:	000009ce 	andeq	r0, r0, lr, asr #19
    1e34:	69050402 	stmdbvs	r5, {r1, sl}
    1e38:	0300746e 	movweq	r7, #1134	; 0x46e
    1e3c:	01af0704 			; <UNDEFINED> instruction: 0x01af0704
    1e40:	01030000 	mrseq	r0, (UNDEF: 3)
    1e44:	00010906 	andeq	r0, r1, r6, lsl #18
    1e48:	05020300 	streq	r0, [r2, #-768]	; 0x300
    1e4c:	00000202 	andeq	r0, r0, r2, lsl #4
    1e50:	e2050403 	and	r0, r5, #50331648	; 0x3000000
    1e54:	03000001 	movweq	r0, #1
    1e58:	01dd0508 	bicseq	r0, sp, r8, lsl #10
    1e5c:	01030000 	mrseq	r0, (UNDEF: 3)
    1e60:	00010708 	andeq	r0, r1, r8, lsl #14
    1e64:	07020300 	streq	r0, [r2, -r0, lsl #6]
    1e68:	000000ec 	andeq	r0, r0, ip, ror #1
    1e6c:	aa070403 	bge	1c2e80 <__bss_end__+0x1b6b50>
    1e70:	03000001 	movweq	r0, #1
    1e74:	01a50708 			; <UNDEFINED> instruction: 0x01a50708
    1e78:	04030000 	streq	r0, [r3], #-0
    1e7c:	0001d407 	andeq	sp, r1, r7, lsl #8
    1e80:	08010300 	stmdaeq	r1, {r8, r9}
    1e84:	00000110 	andeq	r0, r0, r0, lsl r1
    1e88:	007f0404 	rsbseq	r0, pc, r4, lsl #8
    1e8c:	72050000 	andvc	r0, r5, #0
    1e90:	06000000 	streq	r0, [r0], -r0
    1e94:	0000038c 	andeq	r0, r0, ip, lsl #7
    1e98:	00250401 	eoreq	r0, r5, r1, lsl #8
    1e9c:	9ba40000 	blls	fe901ea4 <__bss_end__+0xfe8f5b74>
    1ea0:	001c0000 	andseq	r0, ip, r0
    1ea4:	9c010000 	stcls	0, cr0, [r1], {-0}
    1ea8:	000000c5 	andeq	r0, r0, r5, asr #1
    1eac:	01006807 	tsteq	r0, r7, lsl #16
    1eb0:	00002c04 	andeq	r2, r0, r4, lsl #24
    1eb4:	000dd600 	andeq	sp, sp, r0, lsl #12
    1eb8:	9bb40800 	blls	fed03ec0 <__bss_end__+0xfecf7b90>
    1ebc:	00c50000 	sbceq	r0, r5, r0
    1ec0:	01090000 	mrseq	r0, (UNDEF: 9)
    1ec4:	01f30351 	mvnseq	r0, r1, asr r3
    1ec8:	50010950 	andpl	r0, r1, r0, asr r9
    1ecc:	bb440305 	bllt	1102ae8 <__bss_end__+0x10f67b8>
    1ed0:	00000000 	andeq	r0, r0, r0
    1ed4:	00045e0a 	andeq	r5, r4, sl, lsl #28
    1ed8:	25290200 	strcs	r0, [r9, #-512]!	; 0x200
    1edc:	0b000000 	bleq	1ee4 <_start-0x611c>
    1ee0:	00000079 	andeq	r0, r0, r9, ror r0
    1ee4:	8100000c 	tsthi	r0, ip
    1ee8:	04000006 	streq	r0, [r0], #-6
    1eec:	0009bb00 	andeq	fp, r9, r0, lsl #22
    1ef0:	47010400 	strmi	r0, [r1, -r0, lsl #8]
    1ef4:	01000000 	mrseq	r0, (UNDEF: 0)
    1ef8:	00000508 	andeq	r0, r0, r8, lsl #10
    1efc:	000003fa 	strdeq	r0, [r0], -sl
    1f00:	00009bc0 	andeq	r9, r0, r0, asr #23
    1f04:	000004f8 	strdeq	r0, [r0], -r8
    1f08:	00000a5a 	andeq	r0, r0, sl, asr sl
    1f0c:	69050402 	stmdbvs	r5, {r1, sl}
    1f10:	0300746e 	movweq	r7, #1134	; 0x46e
    1f14:	01af0704 			; <UNDEFINED> instruction: 0x01af0704
    1f18:	01030000 	mrseq	r0, (UNDEF: 3)
    1f1c:	00010906 	andeq	r0, r1, r6, lsl #18
    1f20:	05020300 	streq	r0, [r2, #-768]	; 0x300
    1f24:	00000202 	andeq	r0, r0, r2, lsl #4
    1f28:	e2050403 	and	r0, r5, #50331648	; 0x3000000
    1f2c:	03000001 	movweq	r0, #1
    1f30:	01dd0508 	bicseq	r0, sp, r8, lsl #10
    1f34:	01030000 	mrseq	r0, (UNDEF: 3)
    1f38:	00010708 	andeq	r0, r1, r8, lsl #14
    1f3c:	07020300 	streq	r0, [r2, -r0, lsl #6]
    1f40:	000000ec 	andeq	r0, r0, ip, ror #1
    1f44:	aa070403 	bge	1c2f58 <__bss_end__+0x1b6c28>
    1f48:	03000001 	movweq	r0, #1
    1f4c:	01a50708 			; <UNDEFINED> instruction: 0x01a50708
    1f50:	04030000 	streq	r0, [r3], #-0
    1f54:	0001d407 	andeq	sp, r1, r7, lsl #8
    1f58:	05040400 	streq	r0, [r4, #-1024]	; 0x400
    1f5c:	00007a04 	andeq	r7, r0, r4, lsl #20
    1f60:	08010300 	stmdaeq	r1, {r8, r9}
    1f64:	00000110 	andeq	r0, r0, r0, lsl r1
    1f68:	00870405 	addeq	r0, r7, r5, lsl #8
    1f6c:	7a060000 	bvc	181f74 <__bss_end__+0x175c44>
    1f70:	07000000 	streq	r0, [r0, -r0]
    1f74:	0000043e 	andeq	r0, r0, lr, lsr r4
    1f78:	00972802 	addseq	r2, r7, r2, lsl #16
    1f7c:	65080000 	strvs	r0, [r8, #-0]
    1f80:	04000004 	streq	r0, [r0], #-4
    1f84:	00ae0004 	adceq	r0, lr, r4
    1f88:	74090000 	strvc	r0, [r9], #-0
    1f8c:	72000004 	andvc	r0, r0, #4
    1f90:	00000000 	andeq	r0, r0, r0
    1f94:	04670700 	strbteq	r0, [r7], #-1792	; 0x700
    1f98:	62020000 	andvs	r0, r2, #0
    1f9c:	0000008c 	andeq	r0, r0, ip, lsl #1
    1fa0:	0004ea0a 	andeq	lr, r4, sl, lsl #20
    1fa4:	25270100 	strcs	r0, [r7, #-256]!	; 0x100
    1fa8:	c0000000 	andgt	r0, r0, r0
    1fac:	1400009b 	strne	r0, [r0], #-155	; 0x9b
    1fb0:	01000000 	mrseq	r0, (UNDEF: 0)
    1fb4:	0000e09c 	muleq	r0, ip, r0
    1fb8:	00630b00 	rsbeq	r0, r3, r0, lsl #22
    1fbc:	00252701 	eoreq	r2, r5, r1, lsl #14
    1fc0:	0e020000 	cdpeq	0, 0, cr0, cr2, cr0, {0}
    1fc4:	0c000000 	stceq	0, cr0, [r0], {-0}
    1fc8:	00646170 	rsbeq	r6, r4, r0, ror r1
    1fcc:	00742e01 	rsbseq	r2, r4, r1, lsl #28
    1fd0:	9bd40000 	blls	ff501fd8 <__bss_end__+0xff4f5ca8>
    1fd4:	002c0000 	eoreq	r0, ip, r0
    1fd8:	9c010000 	stcls	0, cr0, [r1], {-0}
    1fdc:	00000130 	andeq	r0, r0, r0, lsr r1
    1fe0:	0100700b 	tsteq	r0, fp
    1fe4:	0000742e 	andeq	r7, r0, lr, lsr #8
    1fe8:	000e3000 	andeq	r3, lr, r0
    1fec:	04fa0d00 	ldrbteq	r0, [sl], #3328	; 0xd00
    1ff0:	2e010000 	cdpcs	0, 0, cr0, cr1, cr0, {0}
    1ff4:	00000074 	andeq	r0, r0, r4, ror r0
    1ff8:	00000e5b 	andeq	r0, r0, fp, asr lr
    1ffc:	0005280e 	andeq	r2, r5, lr, lsl #16
    2000:	252e0100 	strcs	r0, [lr, #-256]!	; 0x100
    2004:	01000000 	mrseq	r0, (UNDEF: 0)
    2008:	656c0f52 	strbvs	r0, [ip, #-3922]!	; 0xf52
    200c:	2f01006e 	svccs	0x0001006e
    2010:	00000025 	andeq	r0, r0, r5, lsr #32
    2014:	0a005101 	beq	16420 <__bss_end__+0xa0f0>
    2018:	000004e2 	andeq	r0, r0, r2, ror #9
    201c:	00743701 	rsbseq	r3, r4, r1, lsl #14
    2020:	9c000000 	stcls	0, cr0, [r0], {-0}
    2024:	00400000 	subeq	r0, r0, r0
    2028:	9c010000 	stcls	0, cr0, [r1], {-0}
    202c:	0000019c 	muleq	r0, ip, r1
    2030:	7473640b 	ldrbtvc	r6, [r3], #-1035	; 0x40b
    2034:	74370100 	ldrtvc	r0, [r7], #-256	; 0x100
    2038:	7c000000 	stcvc	0, cr0, [r0], {-0}
    203c:	0b00000e 	bleq	207c <_start-0x5f84>
    2040:	3701006e 	strcc	r0, [r1, -lr, rrx]
    2044:	00000025 	andeq	r0, r0, r5, lsr #32
    2048:	00000eb4 			; <UNDEFINED> instruction: 0x00000eb4
    204c:	0100700b 	tsteq	r0, fp
    2050:	00007437 	andeq	r7, r0, r7, lsr r4
    2054:	000ed500 	andeq	sp, lr, r0, lsl #10
    2058:	000b0d00 	andeq	r0, fp, r0, lsl #26
    205c:	37010000 	strcc	r0, [r1, -r0]
    2060:	00000074 	andeq	r0, r0, r4, ror r0
    2064:	00000f0b 	andeq	r0, r0, fp, lsl #30
    2068:	6e656c10 	mcrvs	12, 3, r6, cr5, cr0, {0}
    206c:	25390100 	ldrcs	r0, [r9, #-256]!	; 0x100
    2070:	29000000 	stmdbcs	r0, {}	; <UNPREDICTABLE>
    2074:	0f00000f 	svceq	0x0000000f
    2078:	3d010073 	stccc	0, cr0, [r1, #-460]	; 0xfffffe34
    207c:	00000074 	andeq	r0, r0, r4, ror r0
    2080:	0a005001 	beq	1608c <__bss_end__+0x9d5c>
    2084:	00000536 	andeq	r0, r0, r6, lsr r5
    2088:	00744701 	rsbseq	r4, r4, r1, lsl #14
    208c:	9c400000 	marls	acc0, r0, r0
    2090:	019c0000 	orrseq	r0, ip, r0
    2094:	9c010000 	stcls	0, cr0, [r1], {-0}
    2098:	000002d3 	ldrdeq	r0, [r0], -r3
    209c:	0004fa0d 	andeq	pc, r4, sp, lsl #20
    20a0:	2c470100 	stfcse	f0, [r7], {-0}
    20a4:	50000000 	andpl	r0, r0, r0
    20a8:	0b00000f 	bleq	20ec <_start-0x5f14>
    20ac:	00747364 	rsbseq	r7, r4, r4, ror #6
    20b0:	00744701 	rsbseq	r4, r4, r1, lsl #14
    20b4:	0f7e0000 	svceq	0x007e0000
    20b8:	6e0b0000 	cdpvs	0, 0, cr0, cr11, cr0, {0}
    20bc:	25470100 	strbcs	r0, [r7, #-256]	; 0x100
    20c0:	ec000000 	stc	0, cr0, [r0], {-0}
    20c4:	0b00000f 	bleq	2108 <_start-0x5ef8>
    20c8:	006c6176 	rsbeq	r6, ip, r6, ror r1
    20cc:	00254701 	eoreq	r4, r5, r1, lsl #14
    20d0:	10180000 	andsne	r0, r8, r0
    20d4:	280d0000 	stmdacs	sp, {}	; <UNPREDICTABLE>
    20d8:	01000005 	tsteq	r0, r5
    20dc:	00002547 	andeq	r2, r0, r7, asr #10
    20e0:	00109700 	andseq	r9, r0, r0, lsl #14
    20e4:	04ff0e00 	ldrbteq	r0, [pc], #3584	; 20ec <_start-0x5f14>
    20e8:	47010000 	strmi	r0, [r1, -r0]
    20ec:	00000025 	andeq	r0, r0, r5, lsr #32
    20f0:	0f049102 	svceq	0x00049102
    20f4:	00667562 	rsbeq	r7, r6, r2, ror #10
    20f8:	02d34c01 	sbcseq	r4, r3, #256	; 0x100
    20fc:	91030000 	mrsls	r0, (UNDEF: 3)
    2100:	70107fa8 	andsvc	r7, r0, r8, lsr #31
    2104:	744c0100 	strbvc	r0, [ip], #-256	; 0x100
    2108:	c1000000 	mrsgt	r0, (UNDEF: 0)
    210c:	10000010 	andne	r0, r0, r0, lsl r0
    2110:	4d010075 	stcmi	0, cr0, [r1, #-468]	; 0xfffffe2c
    2114:	0000002c 	andeq	r0, r0, ip, lsr #32
    2118:	00001166 	andeq	r1, r0, r6, ror #2
    211c:	00017211 	andeq	r7, r1, r1, lsl r2
    2120:	0002f300 	andeq	pc, r2, r0, lsl #6
    2124:	48030500 	stmdami	r3, {r8, sl}
    2128:	120000bb 	andne	r0, r0, #187	; 0xbb
    212c:	00009cac 	andeq	r9, r0, ip, lsr #25
    2130:	00000074 	andeq	r0, r0, r4, ror r0
    2134:	00000261 	andeq	r0, r0, r1, ror #4
    2138:	0004dc13 	andeq	sp, r4, r3, lsl ip
    213c:	2c520100 	ldfcse	f0, [r2], {-0}
    2140:	6b000000 	blvs	2148 <_start-0x5eb8>
    2144:	00000012 	andeq	r0, r0, r2, lsl r0
    2148:	009d8014 	addseq	r8, sp, r4, lsl r0
    214c:	00066000 	andeq	r6, r6, r0
    2150:	9d941500 	cfldr32ls	mvfx1, [r4]
    2154:	06670000 	strbteq	r0, [r7], -r0
    2158:	02990000 	addseq	r0, r9, #0
    215c:	01160000 	tsteq	r6, r0
    2160:	75080253 	strvc	r0, [r8, #-595]	; 0x253
    2164:	05520116 	ldrbeq	r0, [r2, #-278]	; 0x116
    2168:	00bb4803 	adcseq	r4, fp, r3, lsl #16
    216c:	51011600 	tstpl	r1, r0, lsl #12
    2170:	bb800305 	bllt	fe002d8c <__bss_end__+0xfdff6a5c>
    2174:	01160000 	tsteq	r6, r0
    2178:	6c030550 	cfstr32vs	mvfx0, [r3], {80}	; 0x50
    217c:	000000bb 	strheq	r0, [r0], -fp
    2180:	009d9814 	addseq	r9, sp, r4, lsl r8
    2184:	00067d00 	andeq	r7, r6, r0, lsl #26
    2188:	9da41500 	cfstr32ls	mvfx1, [r4]
    218c:	00e00000 	rsceq	r0, r0, r0
    2190:	02b60000 	adcseq	r0, r6, #0
    2194:	01160000 	tsteq	r6, r0
    2198:	007d0251 	rsbseq	r0, sp, r1, asr r2
    219c:	9db81700 	ldcls	7, cr1, [r8]
    21a0:	01300000 	teqeq	r0, r0
    21a4:	01160000 	tsteq	r6, r0
    21a8:	007d0253 	rsbseq	r0, sp, r3, asr r2
    21ac:	02510116 	subseq	r0, r1, #-2147483643	; 0x80000005
    21b0:	01160074 	tsteq	r6, r4, ror r0
    21b4:	00750250 	rsbseq	r0, r5, r0, asr r2
    21b8:	7a180000 	bvc	6021c0 <__bss_end__+0x5f5e90>
    21bc:	e3000000 	movw	r0, #0
    21c0:	19000002 	stmdbne	r0, {r1}
    21c4:	0000006b 	andeq	r0, r0, fp, rrx
    21c8:	7a18003f 	bvc	6022cc <__bss_end__+0x5f5f9c>
    21cc:	f3000000 	vhadd.u8	d0, d0, d0
    21d0:	19000002 	stmdbne	r0, {r1}
    21d4:	0000006b 	andeq	r0, r0, fp, rrx
    21d8:	e3060004 	movw	r0, #24580	; 0x6004
    21dc:	1a000002 	bne	21ec <_start-0x5e14>
    21e0:	00000519 	andeq	r0, r0, r9, lsl r5
    21e4:	9ddc1f01 	ldclls	15, cr1, [ip, #4]
    21e8:	00540000 	subseq	r0, r4, r0
    21ec:	9c010000 	stcls	0, cr0, [r1], {-0}
    21f0:	0000037c 	andeq	r0, r0, ip, ror r3
    21f4:	00052e0d 	andeq	r2, r5, sp, lsl #28
    21f8:	8b1f0100 	blhi	7c2600 <__bss_end__+0x7b62d0>
    21fc:	97000003 	strls	r0, [r0, -r3]
    2200:	0d000012 	stceq	0, cr0, [r0, #-72]	; 0xffffffb8
    2204:	000004f2 	strdeq	r0, [r0], -r2
    2208:	03a01f01 	moveq	r1, #1, 30
    220c:	12c30000 	sbcne	r0, r3, #0
    2210:	72110000 	andsvc	r0, r1, #0
    2214:	b6000001 	strlt	r0, [r0], -r1
    2218:	05000003 	streq	r0, [r0, #-3]
    221c:	00bb5003 	adcseq	r5, fp, r3
    2220:	9dec1400 	cfstrdls	mvd1, [ip]
    2224:	06600000 	strbteq	r0, [r0], -r0
    2228:	00150000 	andseq	r0, r5, r0
    222c:	6700009e 			; <UNDEFINED> instruction: 0x6700009e
    2230:	72000006 	andvc	r0, r0, #6
    2234:	16000003 	strne	r0, [r0], -r3
    2238:	08025301 	stmdaeq	r2, {r0, r8, r9, ip, lr}
    223c:	52011620 	andpl	r1, r1, #32, 12	; 0x2000000
    2240:	bb500305 	bllt	1402e5c <__bss_end__+0x13f6b2c>
    2244:	01160000 	tsteq	r6, r0
    2248:	80030551 	andhi	r0, r3, r1, asr r5
    224c:	160000bb 			; <UNDEFINED> instruction: 0x160000bb
    2250:	03055001 	movweq	r5, #20481	; 0x5001
    2254:	0000bbb8 			; <UNDEFINED> instruction: 0x0000bbb8
    2258:	9e041400 	cfcpysls	mvf1, mvf4
    225c:	067d0000 	ldrbteq	r0, [sp], -r0
    2260:	1b000000 	blne	2268 <_start-0x5d98>
    2264:	00000025 	andeq	r0, r0, r5, lsr #32
    2268:	0000038b 	andeq	r0, r0, fp, lsl #7
    226c:	0000251c 	andeq	r2, r0, ip, lsl r5
    2270:	04050000 	streq	r0, [r5], #-0
    2274:	0000037c 	andeq	r0, r0, ip, ror r3
    2278:	0000251b 	andeq	r2, r0, fp, lsl r5
    227c:	0003a000 	andeq	sl, r3, r0
    2280:	00811c00 	addeq	r1, r1, r0, lsl #24
    2284:	05000000 	streq	r0, [r0, #-0]
    2288:	00039104 	andeq	r9, r3, r4, lsl #2
    228c:	007a1800 	rsbseq	r1, sl, r0, lsl #16
    2290:	03b60000 			; <UNDEFINED> instruction: 0x03b60000
    2294:	6b190000 	blvs	64229c <__bss_end__+0x635f6c>
    2298:	0e000000 	cdpeq	0, 0, cr0, cr0, cr0, {0}
    229c:	03a60600 			; <UNDEFINED> instruction: 0x03a60600
    22a0:	5b1d0000 	blpl	7422a8 <__bss_end__+0x735f78>
    22a4:	01000004 	tsteq	r0, r4
    22a8:	0000257d 	andeq	r2, r0, sp, ror r5
    22ac:	009e3000 	addseq	r3, lr, r0
    22b0:	00028800 	andeq	r8, r2, r0, lsl #16
    22b4:	259c0100 	ldrcs	r0, [ip, #256]	; 0x100
    22b8:	0b000006 	bleq	22d8 <_start-0x5d28>
    22bc:	00667562 	rsbeq	r7, r6, r2, ror #10
    22c0:	00747d01 	rsbseq	r7, r4, r1, lsl #26
    22c4:	12ef0000 	rscne	r0, pc, #0
    22c8:	6e0b0000 	cdpvs	0, 0, cr0, cr11, cr0, {0}
    22cc:	257d0100 	ldrbcs	r0, [sp, #-256]!	; 0x100
    22d0:	1b000000 	blne	22d8 <_start-0x5d28>
    22d4:	0b000013 	bleq	2328 <_start-0x5cd8>
    22d8:	00746d66 	rsbseq	r6, r4, r6, ror #26
    22dc:	00817d01 	addeq	r7, r1, r1, lsl #26
    22e0:	13490000 	movtne	r0, #36864	; 0x9000
    22e4:	6f0d0000 	svcvs	0x000d0000
    22e8:	01000004 	tsteq	r0, r4
    22ec:	0000ae7d 	andeq	sl, r0, sp, ror lr
    22f0:	00137d00 	andseq	r7, r3, r0, lsl #26
    22f4:	00701000 	rsbseq	r1, r0, r0
    22f8:	00747e01 	rsbseq	r7, r4, r1, lsl #28
    22fc:	13900000 	orrsne	r0, r0, #0
    2300:	65100000 	ldrvs	r0, [r0, #-0]
    2304:	747e0100 	ldrbtvc	r0, [lr], #-256	; 0x100
    2308:	0e000000 	cdpeq	0, 0, cr0, cr0, cr0, {0}
    230c:	11000014 	tstne	r0, r4, lsl r0
    2310:	00000172 	andeq	r0, r0, r2, ror r1
    2314:	00000635 	andeq	r0, r0, r5, lsr r6
    2318:	bb600305 	bllt	1802f34 <__bss_end__+0x17f6c04>
    231c:	481e0000 	ldmdami	lr, {}	; <UNPREDICTABLE>
    2320:	10000000 	andne	r0, r0, r0
    2324:	8b010073 	blhi	424f8 <__bss_end__+0x361c8>
    2328:	00000074 	andeq	r0, r0, r4, ror r0
    232c:	00001435 	andeq	r1, r0, r5, lsr r4
    2330:	6d756e0f 	ldclvs	14, cr6, [r5, #-60]!	; 0xffffffc4
    2334:	3a8b0100 	bcc	fe2c273c <__bss_end__+0xfe2b640c>
    2338:	03000006 	movweq	r0, #6
    233c:	137ed891 	cmnne	lr, #9502720	; 0x910000
    2340:	00000528 	andeq	r0, r0, r8, lsr #10
    2344:	002c8c01 	eoreq	r8, ip, r1, lsl #24
    2348:	148a0000 	strne	r0, [sl], #0
    234c:	b4150000 	ldrlt	r0, [r5], #-0
    2350:	b900009e 	stmdblt	r0, {r1, r2, r3, r4, r7}
    2354:	7b000000 	blvc	235c <_start-0x5ca4>
    2358:	16000004 	strne	r0, [r0], -r4
    235c:	75025001 	strvc	r5, [r2, #-1]
    2360:	c8140000 	ldmdagt	r4, {}	; <UNPREDICTABLE>
    2364:	6000009e 	mulvs	r0, lr, r0
    2368:	15000006 	strne	r0, [r0, #-6]
    236c:	00009edc 	ldrdeq	r9, [r0], -ip
    2370:	00000667 	andeq	r0, r0, r7, ror #12
    2374:	000004b3 			; <UNDEFINED> instruction: 0x000004b3
    2378:	02530116 	subseq	r0, r3, #-2147483643	; 0x80000005
    237c:	01169208 	tsteq	r6, r8, lsl #4
    2380:	60030552 	andvs	r0, r3, r2, asr r5
    2384:	160000bb 			; <UNDEFINED> instruction: 0x160000bb
    2388:	03055101 	movweq	r5, #20737	; 0x5101
    238c:	0000bb80 	andeq	fp, r0, r0, lsl #23
    2390:	05500116 	ldrbeq	r0, [r0, #-278]	; 0x116
    2394:	00bbd003 	adcseq	sp, fp, r3
    2398:	e0140000 	ands	r0, r4, r0
    239c:	7d00009e 	stcvc	0, cr0, [r0, #-632]	; 0xfffffd88
    23a0:	14000006 	strne	r0, [r0], #-6
    23a4:	00009f50 	andeq	r9, r0, r0, asr pc
    23a8:	00000660 	andeq	r0, r0, r0, ror #12
    23ac:	009f6415 	addseq	r6, pc, r5, lsl r4	; <UNPREDICTABLE>
    23b0:	00066700 	andeq	r6, r6, r0, lsl #14
    23b4:	0004f400 	andeq	pc, r4, r0, lsl #8
    23b8:	53011600 	movwpl	r1, #5632	; 0x1600
    23bc:	16980802 	ldrne	r0, [r8], r2, lsl #16
    23c0:	03055201 	movweq	r5, #20993	; 0x5201
    23c4:	0000bb60 	andeq	fp, r0, r0, ror #22
    23c8:	05510116 	ldrbeq	r0, [r1, #-278]	; 0x116
    23cc:	00bb8003 	adcseq	r8, fp, r3
    23d0:	50011600 	andpl	r1, r1, r0, lsl #12
    23d4:	bbec0305 	bllt	ffb02ff0 <__bss_end__+0xffaf6cc0>
    23d8:	14000000 	strne	r0, [r0], #-0
    23dc:	00009f68 	andeq	r9, r0, r8, ror #30
    23e0:	0000067d 	andeq	r0, r0, sp, ror r6
    23e4:	009f8c15 	addseq	r8, pc, r5, lsl ip	; <UNPREDICTABLE>
    23e8:	00019c00 	andeq	r9, r1, r0, lsl #24
    23ec:	00052a00 	andeq	r2, r5, r0, lsl #20
    23f0:	52011600 	andpl	r1, r1, #0, 12
    23f4:	16800802 	strne	r0, [r0], r2, lsl #16
    23f8:	91035101 	tstls	r3, r1, lsl #2
    23fc:	01167ed0 			; <UNDEFINED> instruction: 0x01167ed0
    2400:	163a0150 			; <UNDEFINED> instruction: 0x163a0150
    2404:	01047d02 	tsteq	r4, r2, lsl #26
    2408:	7d021631 	stcvc	6, cr1, [r2, #-196]	; 0xffffff3c
    240c:	00770200 	rsbseq	r0, r7, r0, lsl #4
    2410:	9fb01500 	svcls	0x00b01500
    2414:	019c0000 	orrseq	r0, ip, r0
    2418:	05580000 	ldrbeq	r0, [r8, #-0]
    241c:	01160000 	tsteq	r6, r0
    2420:	80080252 	andhi	r0, r8, r2, asr r2
    2424:	03510116 	cmpeq	r1, #-2147483643	; 0x80000005
    2428:	167ed091 			; <UNDEFINED> instruction: 0x167ed091
    242c:	3a015001 	bcc	56438 <__bss_end__+0x4a108>
    2430:	047d0216 	ldrbteq	r0, [sp], #-534	; 0x216
    2434:	16007b02 	strne	r7, [r0], -r2, lsl #22
    2438:	02007d02 	andeq	r7, r0, #2, 26	; 0x80
    243c:	15000077 	strne	r0, [r0, #-119]	; 0x77
    2440:	00009fd4 	ldrdeq	r9, [r0], -r4
    2444:	0000019c 	muleq	r0, ip, r1
    2448:	00000586 	andeq	r0, r0, r6, lsl #11
    244c:	02520116 	subseq	r0, r2, #-2147483643	; 0x80000005
    2450:	01168008 	tsteq	r6, r8
    2454:	d0910351 	addsle	r0, r1, r1, asr r3
    2458:	5001167e 	andpl	r1, r1, lr, ror r6
    245c:	02164001 	andseq	r4, r6, #1
    2460:	7b02047d 	blvc	8365c <__bss_end__+0x7732c>
    2464:	7d021600 	stcvc	6, cr1, [r2, #-0]
    2468:	00770200 	rsbseq	r0, r7, r0, lsl #4
    246c:	9ff81500 	svcls	0x00f81500
    2470:	019c0000 	orrseq	r0, ip, r0
    2474:	05b40000 	ldreq	r0, [r4, #0]!
    2478:	01160000 	tsteq	r6, r0
    247c:	80080252 	andhi	r0, r8, r2, asr r2
    2480:	03510116 	cmpeq	r1, #-2147483643	; 0x80000005
    2484:	167ed091 			; <UNDEFINED> instruction: 0x167ed091
    2488:	32015001 	andcc	r5, r1, #1
    248c:	047d0216 	ldrbteq	r0, [sp], #-534	; 0x216
    2490:	16007b02 	strne	r7, [r0], -r2, lsl #22
    2494:	02007d02 	andeq	r7, r0, #2, 26	; 0x80
    2498:	15000077 	strne	r0, [r0, #-119]	; 0x77
    249c:	0000a028 	andeq	sl, r0, r8, lsr #32
    24a0:	0000019c 	muleq	r0, ip, r1
    24a4:	000005e2 	andeq	r0, r0, r2, ror #11
    24a8:	02520116 	subseq	r0, r2, #-2147483643	; 0x80000005
    24ac:	01168008 	tsteq	r6, r8
    24b0:	d0910351 	addsle	r0, r1, r1, asr r3
    24b4:	5001167e 	andpl	r1, r1, lr, ror r6
    24b8:	02163801 	andseq	r3, r6, #65536	; 0x10000
    24bc:	7b02047d 	blvc	836b8 <__bss_end__+0x77388>
    24c0:	7d021600 	stcvc	6, cr1, [r2, #-0]
    24c4:	00770200 	rsbseq	r0, r7, r0, lsl #4
    24c8:	a0301400 	eorsge	r1, r0, r0, lsl #8
    24cc:	06600000 	strbteq	r0, [r0], -r0
    24d0:	4c150000 	ldcmi	0, cr0, [r5], {-0}
    24d4:	670000a0 	strvs	r0, [r0, -r0, lsr #1]
    24d8:	1a000006 	bne	24f8 <_start-0x5b08>
    24dc:	16000006 	strne	r0, [r0], -r6
    24e0:	08025301 	stmdaeq	r2, {r0, r8, r9, ip, lr}
    24e4:	520116b9 	andpl	r1, r1, #193986560	; 0xb900000
    24e8:	bb600305 	bllt	1803104 <__bss_end__+0x17f6dd4>
    24ec:	01160000 	tsteq	r6, r0
    24f0:	80030551 	andhi	r0, r3, r1, asr r5
    24f4:	160000bb 			; <UNDEFINED> instruction: 0x160000bb
    24f8:	03055001 	movweq	r5, #20481	; 0x5001
    24fc:	0000bc14 	andeq	fp, r0, r4, lsl ip
    2500:	a0501400 	subsge	r1, r0, r0, lsl #8
    2504:	067d0000 	ldrbteq	r0, [sp], -r0
    2508:	00000000 	andeq	r0, r0, r0
    250c:	00007a18 	andeq	r7, r0, r8, lsl sl
    2510:	00063500 	andeq	r3, r6, r0, lsl #10
    2514:	006b1900 	rsbeq	r1, fp, r0, lsl #18
    2518:	00090000 	andeq	r0, r9, r0
    251c:	00062506 	andeq	r2, r6, r6, lsl #10
    2520:	007a1800 	rsbseq	r1, sl, r0, lsl #16
    2524:	064a0000 	strbeq	r0, [sl], -r0
    2528:	6b190000 	blvs	642530 <__bss_end__+0x636200>
    252c:	7f000000 	svcvc	0x00000000
    2530:	048a1f00 	streq	r1, [sl], #3840	; 0xf00
    2534:	1d030000 	stcne	0, cr0, [r3, #-0]
    2538:	0000038b 	andeq	r0, r0, fp, lsl #7
    253c:	0004c71f 	andeq	ip, r4, pc, lsl r7
    2540:	a0220300 	eorge	r0, r2, r0, lsl #6
    2544:	20000003 	andcs	r0, r0, r3
    2548:	0000023c 	andeq	r0, r0, ip, lsr r2
    254c:	5e211e03 	cdppl	14, 2, cr1, cr1, cr3, {0}
    2550:	03000004 	movweq	r0, #4
    2554:	00002529 	andeq	r2, r0, r9, lsr #10
    2558:	00067d00 	andeq	r7, r6, r0, lsl #26
    255c:	00811c00 	addeq	r1, r1, r0, lsl #24
    2560:	00220000 	eoreq	r0, r2, r0
    2564:	0000df20 	andeq	sp, r0, r0, lsr #30
    2568:	00660300 	rsbeq	r0, r6, r0, lsl #6
    256c:	000000ff 	strdeq	r0, [r0], -pc	; <UNPREDICTABLE>
    2570:	0b970004 	bleq	fe5c2588 <__bss_end__+0xfe5b6258>
    2574:	01040000 	mrseq	r0, (UNDEF: 4)
    2578:	00000047 	andeq	r0, r0, r7, asr #32
    257c:	00054601 	andeq	r4, r5, r1, lsl #12
    2580:	0003fa00 	andeq	pc, r3, r0, lsl #20
    2584:	00a0b800 	adceq	fp, r0, r0, lsl #16
    2588:	00002800 	andeq	r2, r0, r0, lsl #16
    258c:	000c3c00 	andeq	r3, ip, r0, lsl #24
    2590:	05040200 	streq	r0, [r4, #-512]	; 0x200
    2594:	00746e69 	rsbseq	r6, r4, r9, ror #28
    2598:	af070403 	svcge	0x00070403
    259c:	03000001 	movweq	r0, #1
    25a0:	01090601 	tsteq	r9, r1, lsl #12
    25a4:	02030000 	andeq	r0, r3, #0
    25a8:	00020205 	andeq	r0, r2, r5, lsl #4
    25ac:	05040300 	streq	r0, [r4, #-768]	; 0x300
    25b0:	000001e2 	andeq	r0, r0, r2, ror #3
    25b4:	dd050803 	stcle	8, cr0, [r5, #-12]
    25b8:	03000001 	movweq	r0, #1
    25bc:	01070801 	tsteq	r7, r1, lsl #16
    25c0:	02030000 	andeq	r0, r3, #0
    25c4:	0000ec07 	andeq	lr, r0, r7, lsl #24
    25c8:	07040300 	streq	r0, [r4, -r0, lsl #6]
    25cc:	000001aa 	andeq	r0, r0, sl, lsr #3
    25d0:	a5070803 	strge	r0, [r7, #-2051]	; 0x803
    25d4:	03000001 	movweq	r0, #1
    25d8:	01d40704 	bicseq	r0, r4, r4, lsl #14
    25dc:	01030000 	mrseq	r0, (UNDEF: 3)
    25e0:	00011008 	andeq	r1, r1, r8
    25e4:	7f040400 	svcvc	0x00040400
    25e8:	05000000 	streq	r0, [r0, #-0]
    25ec:	00000072 	andeq	r0, r0, r2, ror r0
    25f0:	0000df06 	andeq	sp, r0, r6, lsl #30
    25f4:	b8040100 	stmdalt	r4, {r8}
    25f8:	280000a0 	stmdacs	r0, {r5, r7}
    25fc:	01000000 	mrseq	r0, (UNDEF: 0)
    2600:	0000ca9c 	muleq	r0, ip, sl
    2604:	a0cc0700 	sbcge	r0, ip, r0, lsl #14
    2608:	00ac0000 	adceq	r0, ip, r0
    260c:	01080000 	mrseq	r0, (UNDEF: 8)
    2610:	4c030550 	cfstr32mi	mvfx0, [r3], {80}	; 0x50
    2614:	000000bc 	strheq	r0, [r0], -ip
    2618:	00a0d409 	adceq	sp, r0, r9, lsl #8
    261c:	0000ea00 	andeq	lr, r0, r0, lsl #20
    2620:	0000c000 	andeq	ip, r0, r0
    2624:	50010800 	andpl	r0, r1, r0, lsl #16
    2628:	00640802 	rsbeq	r0, r4, r2, lsl #16
    262c:	00a0d80a 	adceq	sp, r0, sl, lsl #16
    2630:	0000fb00 	andeq	pc, r0, r0, lsl #22
    2634:	250b0000 	strcs	r0, [fp, #-0]
    2638:	d9000000 	stmdble	r0, {}	; <UNPREDICTABLE>
    263c:	0c000000 	stceq	0, cr0, [r0], {-0}
    2640:	00000079 	andeq	r0, r0, r9, ror r0
    2644:	04c70d00 	strbeq	r0, [r7], #3328	; 0xd00
    2648:	22020000 	andcs	r0, r2, #0
    264c:	000000e4 	andeq	r0, r0, r4, ror #1
    2650:	00ca0404 	sbceq	r0, sl, r4, lsl #8
    2654:	f20e0000 	vhadd.s8	d0, d14, d0
    2658:	02000002 	andeq	r0, r0, #2
    265c:	0000fb50 	andeq	pc, r0, r0, asr fp	; <UNPREDICTABLE>
    2660:	002c0c00 	eoreq	r0, ip, r0, lsl #24
    2664:	0f000000 	svceq	0x00000000
    2668:	0000053b 	andeq	r0, r0, fp, lsr r5
    266c:	dd006302 	stcle	3, cr6, [r0, #-8]
    2670:	04000002 	streq	r0, [r0], #-2
    2674:	000c6100 	andeq	r6, ip, r0, lsl #2
    2678:	47010400 	strmi	r0, [r1, -r0, lsl #8]
    267c:	01000000 	mrseq	r0, (UNDEF: 0)
    2680:	0000063a 	andeq	r0, r0, sl, lsr r6
    2684:	000003fa 	strdeq	r0, [r0], -sl
    2688:	0000a0e0 	andeq	sl, r0, r0, ror #1
    268c:	000000b0 	strheq	r0, [r0], -r0	; <UNPREDICTABLE>
    2690:	00000cd3 	ldrdeq	r0, [r0], -r3
    2694:	69050402 	stmdbvs	r5, {r1, sl}
    2698:	0300746e 	movweq	r7, #1134	; 0x46e
    269c:	01af0704 			; <UNDEFINED> instruction: 0x01af0704
    26a0:	01030000 	mrseq	r0, (UNDEF: 3)
    26a4:	00010906 	andeq	r0, r1, r6, lsl #18
    26a8:	05020300 	streq	r0, [r2, #-768]	; 0x300
    26ac:	00000202 	andeq	r0, r0, r2, lsl #4
    26b0:	e2050403 	and	r0, r5, #50331648	; 0x3000000
    26b4:	03000001 	movweq	r0, #1
    26b8:	01dd0508 	bicseq	r0, sp, r8, lsl #10
    26bc:	bc040000 	stclt	0, cr0, [r4], {-0}
    26c0:	02000001 	andeq	r0, r0, #1
    26c4:	00005a2e 	andeq	r5, r0, lr, lsr #20
    26c8:	08010300 	stmdaeq	r1, {r8, r9}
    26cc:	00000107 	andeq	r0, r0, r7, lsl #2
    26d0:	ec070203 	sfm	f0, 4, [r7], {3}
    26d4:	04000000 	streq	r0, [r0], #-0
    26d8:	0000021f 	andeq	r0, r0, pc, lsl r2
    26dc:	00733402 	rsbseq	r3, r3, r2, lsl #8
    26e0:	04030000 	streq	r0, [r3], #-0
    26e4:	0001aa07 	andeq	sl, r1, r7, lsl #20
    26e8:	07080300 	streq	r0, [r8, -r0, lsl #6]
    26ec:	000001a5 	andeq	r0, r0, r5, lsr #3
    26f0:	d4070403 	strle	r0, [r7], #-1027	; 0x403
    26f4:	03000001 	movweq	r0, #1
    26f8:	01100801 	tsteq	r0, r1, lsl #16
    26fc:	04050000 	streq	r0, [r5], #-0
    2700:	00000095 	muleq	r0, r5, r0
    2704:	00008806 	andeq	r8, r0, r6, lsl #16
    2708:	030c0700 	movweq	r0, #50944	; 0xc700
    270c:	0000d10e 	andeq	sp, r0, lr, lsl #2
    2710:	78740800 	ldmdavc	r4!, {fp}^
    2714:	4f0f0300 	svcmi	0x000f0300
    2718:	00000000 	andeq	r0, r0, r0
    271c:	00787208 	rsbseq	r7, r8, r8, lsl #4
    2720:	004f0f03 	subeq	r0, pc, r3, lsl #30
    2724:	09010000 	stmdbeq	r1, {}	; <UNPREDICTABLE>
    2728:	000005d9 	ldrdeq	r0, [r0], -r9
    272c:	00681003 	rsbeq	r1, r8, r3
    2730:	09040000 	stmdbeq	r4, {}	; <UNPREDICTABLE>
    2734:	0000058a 	andeq	r0, r0, sl, lsl #11
    2738:	00681103 	rsbeq	r1, r8, r3, lsl #2
    273c:	00080000 	andeq	r0, r8, r0
    2740:	0005c204 	andeq	ip, r5, r4, lsl #4
    2744:	9a120300 	bls	48334c <__bss_end__+0x47701c>
    2748:	0a000000 	beq	2750 <_start-0x58b0>
    274c:	f7100401 			; <UNDEFINED> instruction: 0xf7100401
    2750:	0b000000 	bleq	2758 <_start-0x58a8>
    2754:	000005de 	ldrdeq	r0, [r0], -lr
    2758:	05cc0b01 	strbeq	r0, [ip, #2817]	; 0xb01
    275c:	0b020000 	bleq	82764 <__bss_end__+0x76434>
    2760:	000005b4 			; <UNDEFINED> instruction: 0x000005b4
    2764:	f3040003 	vhadd.u8	d0, d4, d3
    2768:	04000005 	streq	r0, [r0], #-5
    276c:	0000dc10 	andeq	sp, r0, r0, lsl ip
    2770:	04140700 	ldreq	r0, [r4], #-1792	; 0x700
    2774:	00012f14 	andeq	r2, r1, r4, lsl pc
    2778:	065a0900 	ldrbeq	r0, [sl], -r0, lsl #18
    277c:	15040000 	strne	r0, [r4, #-0]
    2780:	0000002c 	andeq	r0, r0, ip, lsr #32
    2784:	064e0900 	strbeq	r0, [lr], -r0, lsl #18
    2788:	18040000 	stmdane	r4, {}	; <UNPREDICTABLE>
    278c:	000000f7 	strdeq	r0, [r0], -r7
    2790:	06190904 	ldreq	r0, [r9], -r4, lsl #18
    2794:	1b040000 	blne	10279c <__bss_end__+0xf646c>
    2798:	000000d1 	ldrdeq	r0, [r0], -r1
    279c:	0b040008 	bleq	1027c4 <__bss_end__+0xf6494>
    27a0:	04000006 	streq	r0, [r0], #-6
    27a4:	00010220 	andeq	r0, r1, r0, lsr #4
    27a8:	05600c00 	strbeq	r0, [r0, #-3072]!	; 0xc00
    27ac:	06010000 	streq	r0, [r1], -r0
    27b0:	00000025 	andeq	r0, r0, r5, lsr #32
    27b4:	0000a0e0 	andeq	sl, r0, r0, ror #1
    27b8:	00000020 	andeq	r0, r0, r0, lsr #32
    27bc:	017a9c01 	cmneq	sl, r1, lsl #24
    27c0:	630d0000 	movwvs	r0, #53248	; 0xd000
    27c4:	25060100 	strcs	r0, [r6, #-256]	; 0x100
    27c8:	b4000000 	strlt	r0, [r0], #-0
    27cc:	0e000014 	mcreq	0, 0, r0, cr0, cr4, {0}
    27d0:	0000a0f4 	strdeq	sl, [r0], -r4
    27d4:	0000027a 	andeq	r0, r0, sl, ror r2
    27d8:	0251010f 	subseq	r0, r1, #-1073741821	; 0xc0000003
    27dc:	010f0074 	tsteq	pc, r4, ror r0	; <UNPREDICTABLE>
    27e0:	fc030550 	stc2	5, cr0, [r3], {80}	; 0x50
    27e4:	000000c2 	andeq	r0, r0, r2, asr #1
    27e8:	05eb1000 	strbeq	r1, [fp, #0]!
    27ec:	0b010000 	bleq	427f4 <__bss_end__+0x364c4>
    27f0:	0000a100 	andeq	sl, r0, r0, lsl #2
    27f4:	00000090 	muleq	r0, r0, r0
    27f8:	02279c01 	eoreq	r9, r7, #256	; 0x100
    27fc:	74110000 	ldrvc	r0, [r1], #-0
    2800:	01000005 	tsteq	r0, r5
    2804:	0000250c 	andeq	r2, r0, ip, lsl #10
    2808:	062e1100 	strteq	r1, [lr], -r0, lsl #2
    280c:	0c010000 	stceq	0, cr0, [r1], {-0}
    2810:	00000025 	andeq	r0, r0, r5, lsr #32
    2814:	00009e12 	andeq	r9, r0, r2, lsl lr
    2818:	130d0100 	movwne	r0, #53504	; 0xd100
    281c:	00737362 	rsbseq	r7, r3, r2, ror #6
    2820:	02270f01 	eoreq	r0, r7, #1, 30
    2824:	14d20000 	ldrbne	r0, [r2], #0
    2828:	82140000 	andshi	r0, r4, #0
    282c:	01000005 	tsteq	r0, r5
    2830:	00022710 	andeq	r2, r2, r0, lsl r7
    2834:	62631300 	rsbvs	r1, r3, #0, 6
    2838:	2d170100 	ldfcss	f0, [r7, #-0]
    283c:	f2000002 	vhadd.s8	d0, d0, d2
    2840:	15000014 	strne	r0, [r0, #-20]
    2844:	0000a128 	andeq	sl, r0, r8, lsr #2
    2848:	00000296 	muleq	r0, r6, r2
    284c:	00a16416 	adceq	r6, r1, r6, lsl r4
    2850:	0002a100 	andeq	sl, r2, r0, lsl #2
    2854:	0001fd00 	andeq	pc, r1, r0, lsl #26
    2858:	51010f00 	tstpl	r1, r0, lsl #30
    285c:	bc580305 	mrrclt	3, 0, r0, r8, cr5
    2860:	010f0000 	mrseq	r0, CPSR
    2864:	fc030550 	stc2	5, cr0, [r3], {80}	; 0x50
    2868:	000000c2 	andeq	r0, r0, r2, asr #1
    286c:	00a16c16 	adceq	r6, r1, r6, lsl ip
    2870:	0002bc00 	andeq	fp, r2, r0, lsl #24
    2874:	00021400 	andeq	r1, r2, r0, lsl #8
    2878:	50010f00 	andpl	r0, r1, r0, lsl #30
    287c:	bc7c0305 	ldcllt	3, cr0, [ip], #-20	; 0xffffffec
    2880:	15000000 	strne	r0, [r0, #-0]
    2884:	0000a170 	andeq	sl, r0, r0, ror r1
    2888:	000002d2 	ldrdeq	r0, [r0], -r2
    288c:	00a17415 	adceq	r7, r1, r5, lsl r4
    2890:	0002d900 	andeq	sp, r2, r0, lsl #18
    2894:	04050000 	streq	r0, [r5], #-0
    2898:	00000025 	andeq	r0, r0, r5, lsr #32
    289c:	012f0405 	teqeq	pc, r5, lsl #8
    28a0:	98170000 	ldmdals	r7, {}	; <UNPREDICTABLE>
    28a4:	01000005 	tsteq	r0, r5
    28a8:	0000d105 	andeq	sp, r0, r5, lsl #2
    28ac:	fc030500 	stc2	5, cr0, [r3], {-0}
    28b0:	180000c2 	stmdane	r0, {r1, r6, r7}
    28b4:	00000025 	andeq	r0, r0, r5, lsr #32
    28b8:	00000253 	andeq	r0, r0, r3, asr r2
    28bc:	00002519 	andeq	r2, r0, r9, lsl r5
    28c0:	8a110000 	bhi	4428c8 <__bss_end__+0x436598>
    28c4:	05000004 	streq	r0, [r0, #-4]
    28c8:	00025e1d 	andeq	r5, r2, sp, lsl lr
    28cc:	44040500 	strmi	r0, [r4], #-1280	; 0x500
    28d0:	11000002 	tstne	r0, r2
    28d4:	00000574 	andeq	r0, r0, r4, ror r5
    28d8:	00250c01 	eoreq	r0, r5, r1, lsl #24
    28dc:	2e110000 	cdpcs	0, 1, cr0, cr1, cr0, {0}
    28e0:	01000006 	tsteq	r0, r6
    28e4:	0000250c 	andeq	r2, r0, ip, lsl #10
    28e8:	05fe1a00 	ldrbeq	r1, [lr, #2560]!	; 0xa00
    28ec:	44030000 	strmi	r0, [r3], #-0
    28f0:	00000290 	muleq	r0, r0, r2
    28f4:	00029019 	andeq	r9, r2, r9, lsl r0
    28f8:	005a1900 	subseq	r1, sl, r0, lsl #18
    28fc:	05000000 	streq	r0, [r0, #-0]
    2900:	0000d104 	andeq	sp, r0, r4, lsl #2
    2904:	06211b00 	strteq	r1, [r1], -r0, lsl #22
    2908:	2a040000 	bcs	102910 <__bss_end__+0xf65e0>
    290c:	0000022d 	andeq	r0, r0, sp, lsr #4
    2910:	0005a51c 	andeq	sl, r5, ip, lsl r5
    2914:	25150300 	ldrcs	r0, [r5, #-768]	; 0x300
    2918:	bc000000 	stclt	0, cr0, [r0], {-0}
    291c:	19000002 	stmdbne	r0, {r1}
    2920:	00000290 	muleq	r0, r0, r2
    2924:	00008f19 	andeq	r8, r0, r9, lsl pc
    2928:	1c001d00 	stcne	13, cr1, [r0], {-0}
    292c:	0000045e 	andeq	r0, r0, lr, asr r4
    2930:	00252905 	eoreq	r2, r5, r5, lsl #18
    2934:	02d20000 	sbcseq	r0, r2, #0
    2938:	8f190000 	svchi	0x00190000
    293c:	1d000000 	stcne	0, cr0, [r0, #-0]
    2940:	009e1200 	addseq	r1, lr, r0, lsl #4
    2944:	d1050000 	mrsle	r0, (UNDEF: 5)
    2948:	00053b12 	andeq	r3, r5, r2, lsl fp
    294c:	00630500 	rsbeq	r0, r3, r0, lsl #10
    2950:	000001ad 	andeq	r0, r0, sp, lsr #3
    2954:	0df80004 	ldcleq	0, cr0, [r8, #16]!
    2958:	01040000 	mrseq	r0, (UNDEF: 4)
    295c:	00000047 	andeq	r0, r0, r7, asr #32
    2960:	00067a01 	andeq	r7, r6, r1, lsl #20
    2964:	0003fa00 	andeq	pc, r3, r0, lsl #20
    2968:	00006000 	andeq	r6, r0, r0
    296c:	00000000 	andeq	r0, r0, r0
    2970:	000df800 	andeq	pc, sp, r0, lsl #16
    2974:	05040200 	streq	r0, [r4, #-512]	; 0x200
    2978:	00746e69 	rsbseq	r6, r4, r9, ror #28
    297c:	af070403 	svcge	0x00070403
    2980:	03000001 	movweq	r0, #1
    2984:	01090601 	tsteq	r9, r1, lsl #12
    2988:	02030000 	andeq	r0, r3, #0
    298c:	00020205 	andeq	r0, r2, r5, lsl #4
    2990:	05040300 	streq	r0, [r4, #-768]	; 0x300
    2994:	000001e2 	andeq	r0, r0, r2, ror #3
    2998:	dd050803 	stcle	8, cr0, [r5, #-12]
    299c:	03000001 	movweq	r0, #1
    29a0:	01070801 	tsteq	r7, r1, lsl #16
    29a4:	02030000 	andeq	r0, r3, #0
    29a8:	0000ec07 	andeq	lr, r0, r7, lsl #24
    29ac:	07040300 	streq	r0, [r4, -r0, lsl #6]
    29b0:	000001aa 	andeq	r0, r0, sl, lsr #3
    29b4:	a5070803 	strge	r0, [r7, #-2051]	; 0x803
    29b8:	03000001 	movweq	r0, #1
    29bc:	01d40704 	bicseq	r0, r4, r4, lsl #14
    29c0:	01030000 	mrseq	r0, (UNDEF: 3)
    29c4:	00011008 	andeq	r1, r1, r8
    29c8:	06600400 	strbteq	r0, [r0], -r0, lsl #8
    29cc:	0e010000 	cdpeq	0, 0, cr0, cr1, cr0, {0}
    29d0:	00000025 	andeq	r0, r0, r5, lsr #32
    29d4:	0000a190 	muleq	r0, r0, r1
    29d8:	00000018 	andeq	r0, r0, r8, lsl r0
    29dc:	00a29c01 	adceq	r9, r2, r1, lsl #24
    29e0:	cc050000 	stcgt	0, cr0, [r5], {-0}
    29e4:	01000006 	tsteq	r0, r6
    29e8:	00002c0f 	andeq	r2, r0, pc, lsl #24
    29ec:	00151200 	andseq	r1, r5, r0, lsl #4
    29f0:	af060000 	svcge	0x00060000
    29f4:	01000006 	tsteq	r0, r6
    29f8:	00a1a817 	adceq	sl, r1, r7, lsl r8
    29fc:	00001400 	andeq	r1, r0, r0, lsl #8
    2a00:	c79c0100 	ldrgt	r0, [ip, r0, lsl #2]
    2a04:	05000000 	streq	r0, [r0, #-0]
    2a08:	000006cc 	andeq	r0, r0, ip, asr #13
    2a0c:	002c1801 	eoreq	r1, ip, r1, lsl #16
    2a10:	15310000 	ldrne	r0, [r1, #-0]!
    2a14:	06000000 	streq	r0, [r0], -r0
    2a18:	0000053b 	andeq	r0, r0, fp, lsr r5
    2a1c:	a1bc1f01 			; <UNDEFINED> instruction: 0xa1bc1f01
    2a20:	00480000 	subeq	r0, r8, r0
    2a24:	9c010000 	stcls	0, cr0, [r1], {-0}
    2a28:	00000177 	andeq	r0, r0, r7, ror r1
    2a2c:	0006c407 	andeq	ip, r6, r7, lsl #8
    2a30:	772a0100 	strvc	r0, [sl, -r0, lsl #2]!
    2a34:	1c000001 	stcne	0, cr0, [r0], {1}
    2a38:	07201000 	streq	r1, [r0, -r0]!
    2a3c:	000006a7 	andeq	r0, r0, r7, lsr #13
    2a40:	01772b01 	cmneq	r7, r1, lsl #22
    2a44:	00240000 	eoreq	r0, r4, r0
    2a48:	6e072010 	mcrvs	0, 0, r2, cr7, cr0, {0}
    2a4c:	01000006 	tsteq	r0, r6
    2a50:	0001772c 	andeq	r7, r1, ip, lsr #14
    2a54:	00000000 	andeq	r0, r0, r0
    2a58:	068e085a 	pkhtbeq	r0, lr, sl, asr #16
    2a5c:	2d010000 	stccs	0, cr0, [r1, #-0]
    2a60:	00000177 	andeq	r0, r0, r7, ror r1
    2a64:	a1c40920 	bicge	r0, r4, r0, lsr #18
    2a68:	00790000 	rsbseq	r0, r9, r0
    2a6c:	d0090000 	andle	r0, r9, r0
    2a70:	a20000a1 	andge	r0, r0, #161	; 0xa1
    2a74:	0a000000 	beq	2a7c <_start-0x5584>
    2a78:	0000a1d8 	ldrdeq	sl, [r0], -r8
    2a7c:	0000018d 	andeq	r0, r0, sp, lsl #3
    2a80:	0000013a 	andeq	r0, r0, sl, lsr r1
    2a84:	0150010b 	cmpeq	r0, fp, lsl #2
    2a88:	e40a004e 	str	r0, [sl], #-78	; 0x4e
    2a8c:	9e0000a1 	cdpls	0, 0, cr0, cr0, cr1, {5}
    2a90:	5a000001 	bpl	2a9c <_start-0x5564>
    2a94:	0b000001 	bleq	2aa0 <_start-0x5560>
    2a98:	0c055101 	stfeqs	f5, [r5], {1}
    2a9c:	5a000001 	bpl	2aa8 <_start-0x5558>
    2aa0:	0550010b 	ldrbeq	r0, [r0, #-267]	; 0x10b
    2aa4:	1000240c 	andne	r2, r0, ip, lsl #8
    2aa8:	f00c0020 			; <UNDEFINED> instruction: 0xf00c0020
    2aac:	9e0000a1 	cdpls	0, 0, cr0, cr0, cr1, {5}
    2ab0:	0b000001 	bleq	2abc <_start-0x5544>
    2ab4:	0c055101 	stfeqs	f5, [r5], {1}
    2ab8:	5a000020 	bpl	2b40 <_start-0x54c0>
    2abc:	0550010b 	ldrbeq	r0, [r0, #-267]	; 0x10b
    2ac0:	10001c0c 	andne	r1, r0, ip, lsl #24
    2ac4:	0d000020 	stceq	0, cr0, [r0, #-128]	; 0xffffff80
    2ac8:	00000025 	andeq	r0, r0, r5, lsr #32
    2acc:	00066308 	andeq	r6, r6, r8, lsl #6
    2ad0:	880d0100 	stmdahi	sp, {r8}
    2ad4:	10000001 	andne	r0, r0, r1
    2ad8:	00002c0d 	andeq	r2, r0, sp, lsl #24
    2adc:	02f20e00 	rscseq	r0, r2, #0, 28
    2ae0:	50020000 	andpl	r0, r2, r0
    2ae4:	0000019e 	muleq	r0, lr, r1
    2ae8:	00002c0f 	andeq	r2, r0, pc, lsl #24
    2aec:	be100000 	cdplt	0, 1, cr0, cr0, cr0, {0}
    2af0:	02000006 	andeq	r0, r0, #6
    2af4:	002c0f9c 	mlaeq	ip, ip, pc, r0	; <UNPREDICTABLE>
    2af8:	2c0f0000 	stccs	0, cr0, [pc], {-0}
    2afc:	00000000 	andeq	r0, r0, r0
    2b00:	0001d800 	andeq	sp, r1, r0, lsl #16
    2b04:	e6000400 	str	r0, [r0], -r0, lsl #8
    2b08:	0400000e 	streq	r0, [r0], #-14
    2b0c:	00004701 	andeq	r4, r0, r1, lsl #14
    2b10:	06ee0100 	strbteq	r0, [lr], r0, lsl #2
    2b14:	03fa0000 	mvnseq	r0, #0
    2b18:	a2040000 	andge	r0, r4, #0
    2b1c:	00880000 	addeq	r0, r8, r0
    2b20:	0e950000 	cdpeq	0, 9, cr0, cr5, cr0, {0}
    2b24:	04020000 	streq	r0, [r2], #-0
    2b28:	746e6905 	strbtvc	r6, [lr], #-2309	; 0x905
    2b2c:	07040300 	streq	r0, [r4, -r0, lsl #6]
    2b30:	000001af 	andeq	r0, r0, pc, lsr #3
    2b34:	09060103 	stmdbeq	r6, {r0, r1, r8}
    2b38:	03000001 	movweq	r0, #1
    2b3c:	02020502 	andeq	r0, r2, #8388608	; 0x800000
    2b40:	04030000 	streq	r0, [r3], #-0
    2b44:	0001e205 	andeq	lr, r1, r5, lsl #4
    2b48:	05080300 	streq	r0, [r8, #-768]	; 0x300
    2b4c:	000001dd 	ldrdeq	r0, [r0], -sp
    2b50:	07080103 	streq	r0, [r8, -r3, lsl #2]
    2b54:	03000001 	movweq	r0, #1
    2b58:	00ec0702 	rsceq	r0, ip, r2, lsl #14
    2b5c:	04030000 	streq	r0, [r3], #-0
    2b60:	0001aa07 	andeq	sl, r1, r7, lsl #20
    2b64:	07080300 	streq	r0, [r8, -r0, lsl #6]
    2b68:	000001a5 	andeq	r0, r0, r5, lsr #3
    2b6c:	d4070403 	strle	r0, [r7], #-1027	; 0x403
    2b70:	03000001 	movweq	r0, #1
    2b74:	01100801 	tsteq	r0, r1, lsl #16
    2b78:	73040000 	movwvc	r0, #16384	; 0x4000
    2b7c:	01000002 	tsteq	r0, r2
    2b80:	00a20405 	adceq	r0, r2, r5, lsl #8
    2b84:	00001c00 	andeq	r1, r0, r0, lsl #24
    2b88:	9e9c0100 	fmllse	f0, f4, f0
    2b8c:	05000000 	streq	r0, [r0, #-0]
    2b90:	00000707 	andeq	r0, r0, r7, lsl #14
    2b94:	002c0501 	eoreq	r0, ip, r1, lsl #10
    2b98:	155b0000 	ldrbne	r0, [fp, #-0]
    2b9c:	06000000 	streq	r0, [r0], -r0
    2ba0:	000006d1 	ldrdeq	r0, [r0], -r1
    2ba4:	002c0b01 	eoreq	r0, ip, r1, lsl #22
    2ba8:	a2200000 	eorge	r0, r0, #0
    2bac:	00140000 	andseq	r0, r4, r0
    2bb0:	9c010000 	stcls	0, cr0, [r1], {-0}
    2bb4:	000000cb 	andeq	r0, r0, fp, asr #1
    2bb8:	00a22c07 	adceq	r2, r2, r7, lsl #24
    2bbc:	0001ca00 	andeq	ip, r1, r0, lsl #20
    2bc0:	50010800 	andpl	r0, r1, r0, lsl #16
    2bc4:	30040c05 	andcc	r0, r4, r5, lsl #24
    2bc8:	00002000 	andeq	r2, r0, r0
    2bcc:	00071606 	andeq	r1, r7, r6, lsl #12
    2bd0:	2c100100 	ldfcss	f0, [r0], {-0}
    2bd4:	34000000 	strcc	r0, [r0], #-0
    2bd8:	0c0000a2 	stceq	0, cr0, [r0], {162}	; 0xa2
    2bdc:	01000000 	mrseq	r0, (UNDEF: 0)
    2be0:	0000f99c 	muleq	r0, ip, r9
    2be4:	00750900 	rsbseq	r0, r5, r0, lsl #18
    2be8:	002c1401 	eoreq	r1, ip, r1, lsl #8
    2bec:	50010000 	andpl	r0, r1, r0
    2bf0:	00a23c0a 	adceq	r3, r2, sl, lsl #24
    2bf4:	00009e00 	andeq	r9, r0, r0, lsl #28
    2bf8:	0d040000 	stceq	0, cr0, [r4, #-0]
    2bfc:	01000007 	tsteq	r0, r7
    2c00:	00a24019 	adceq	r4, r2, r9, lsl r0
    2c04:	00002400 	andeq	r2, r0, r0, lsl #8
    2c08:	579c0100 	ldrpl	r0, [ip, r0, lsl #2]
    2c0c:	0b000001 	bleq	2c18 <_start-0x53e8>
    2c10:	01007375 	tsteq	r0, r5, ror r3
    2c14:	00002c19 	andeq	r2, r0, r9, lsl ip
    2c18:	00158f00 	andseq	r8, r5, r0, lsl #30
    2c1c:	62720900 	rsbsvs	r0, r2, #0, 18
    2c20:	2c1a0100 	ldfcss	f0, [sl], {-0}
    2c24:	01000000 	mrseq	r0, (UNDEF: 0)
    2c28:	a2500c54 	subsge	r0, r0, #84, 24	; 0x5400
    2c2c:	00100000 	andseq	r0, r0, r0
    2c30:	014d0000 	mrseq	r0, (UNDEF: 77)
    2c34:	720d0000 	andvc	r0, sp, #0
    2c38:	1c010061 	stcne	0, cr0, [r1], {97}	; 0x61
    2c3c:	0000002c 	andeq	r0, r0, ip, lsr #32
    2c40:	000015ad 	andeq	r1, r0, sp, lsr #11
    2c44:	00a2540a 	adceq	r5, r2, sl, lsl #8
    2c48:	0000cb00 	andeq	ip, r0, r0, lsl #22
    2c4c:	4c0a0000 	stcmi	0, cr0, [sl], {-0}
    2c50:	cb0000a2 	blgt	2ee0 <_start-0x5120>
    2c54:	00000000 	andeq	r0, r0, r0
    2c58:	0002f204 	andeq	pc, r2, r4, lsl #4
    2c5c:	64220100 	strtvs	r0, [r2], #-256	; 0x100
    2c60:	140000a2 	strne	r0, [r0], #-162	; 0xa2
    2c64:	01000000 	mrseq	r0, (UNDEF: 0)
    2c68:	0001909c 	muleq	r1, ip, r0
    2c6c:	736d0b00 	cmnvc	sp, #0, 22
    2c70:	2c220100 	stfcss	f0, [r2], #-0
    2c74:	c0000000 	andgt	r0, r0, r0
    2c78:	07000015 	smladeq	r0, r5, r0, r0
    2c7c:	0000a274 	andeq	sl, r0, r4, ror r2
    2c80:	000000f9 	strdeq	r0, [r0], -r9
    2c84:	07500108 	ldrbeq	r0, [r0, -r8, lsl #2]
    2c88:	0a5001f3 	beq	140345c <__bss_end__+0x13f712c>
    2c8c:	001e03e8 	andseq	r0, lr, r8, ror #7
    2c90:	06e40400 	strbteq	r0, [r4], r0, lsl #8
    2c94:	25010000 	strcs	r0, [r1, #-0]
    2c98:	0000a278 	andeq	sl, r0, r8, ror r2
    2c9c:	00000014 	andeq	r0, r0, r4, lsl r0
    2ca0:	01ca9c01 	biceq	r9, sl, r1, lsl #24
    2ca4:	730b0000 	movwvc	r0, #45056	; 0xb000
    2ca8:	01006365 	tsteq	r0, r5, ror #6
    2cac:	00002c25 	andeq	r2, r0, r5, lsr #24
    2cb0:	0015e100 	andseq	lr, r5, r0, lsl #2
    2cb4:	a2880700 	addge	r0, r8, #0, 14
    2cb8:	01570000 	cmpeq	r7, r0
    2cbc:	01080000 	mrseq	r0, (UNDEF: 8)
    2cc0:	01f30750 	mvnseq	r0, r0, asr r7
    2cc4:	03e80a50 	mvneq	r0, #80, 20	; 0x50000
    2cc8:	0e00001e 	mcreq	0, 0, r0, cr0, cr14, {0}
    2ccc:	00000701 	andeq	r0, r0, r1, lsl #14
    2cd0:	002ca802 	eoreq	sl, ip, r2, lsl #16
    2cd4:	2c0f0000 	stccs	0, cr0, [pc], {-0}
    2cd8:	00000000 	andeq	r0, r0, r0
    2cdc:	0003ee00 	andeq	lr, r3, r0, lsl #28
    2ce0:	c9000400 	stmdbgt	r0, {sl}
    2ce4:	0400000f 	streq	r0, [r0], #-15
    2ce8:	00004701 	andeq	r4, r0, r1, lsl #14
    2cec:	07570100 	ldrbeq	r0, [r7, -r0, lsl #2]
    2cf0:	03fa0000 	mvnseq	r0, #0
    2cf4:	a28c0000 	addge	r0, ip, #0
    2cf8:	01e80000 	mvneq	r0, r0
    2cfc:	0f3c0000 	svceq	0x003c0000
    2d00:	04020000 	streq	r0, [r2], #-0
    2d04:	746e6905 	strbtvc	r6, [lr], #-2309	; 0x905
    2d08:	00000300 	andeq	r0, r0, r0, lsl #6
    2d0c:	d4030000 	strle	r0, [r3], #-0
    2d10:	00000037 	andeq	r0, r0, r7, lsr r0
    2d14:	af070404 	svcge	0x00070404
    2d18:	04000001 	streq	r0, [r0], #-1
    2d1c:	01090601 	tsteq	r9, r1, lsl #12
    2d20:	02040000 	andeq	r0, r4, #0
    2d24:	00020205 	andeq	r0, r2, r5, lsl #4
    2d28:	05040400 	streq	r0, [r4, #-1024]	; 0x400
    2d2c:	000001e2 	andeq	r0, r0, r2, ror #3
    2d30:	dd050804 	stcle	8, cr0, [r5, #-16]
    2d34:	04000001 	streq	r0, [r0], #-1
    2d38:	01070801 	tsteq	r7, r1, lsl #16
    2d3c:	02040000 	andeq	r0, r4, #0
    2d40:	0000ec07 	andeq	lr, r0, r7, lsl #24
    2d44:	07040400 	streq	r0, [r4, -r0, lsl #8]
    2d48:	000001aa 	andeq	r0, r0, sl, lsr #3
    2d4c:	a5070804 	strge	r0, [r7, #-2052]	; 0x804
    2d50:	04000001 	streq	r0, [r0], #-1
    2d54:	01d40704 	bicseq	r0, r4, r4, lsl #14
    2d58:	04050000 	streq	r0, [r5], #-0
    2d5c:	00850406 	addeq	r0, r5, r6, lsl #8
    2d60:	01040000 	mrseq	r0, (UNDEF: 4)
    2d64:	00011008 	andeq	r1, r1, r8
    2d68:	92040600 	andls	r0, r4, #0, 12
    2d6c:	07000000 	streq	r0, [r0, -r0]
    2d70:	00000085 	andeq	r0, r0, r5, lsl #1
    2d74:	00008508 	andeq	r8, r0, r8, lsl #10
    2d78:	0000a700 	andeq	sl, r0, r0, lsl #14
    2d7c:	00760900 	rsbseq	r0, r6, r0, lsl #18
    2d80:	00070000 	andeq	r0, r7, r0
    2d84:	0000ff0a 	andeq	pc, r0, sl, lsl #30
    2d88:	7d190100 	ldfvcs	f0, [r9, #-0]
    2d8c:	8c000000 	stchi	0, cr0, [r0], {-0}
    2d90:	740000a2 	strvc	r0, [r0], #-162	; 0xa2
    2d94:	01000000 	mrseq	r0, (UNDEF: 0)
    2d98:	0001569c 	muleq	r1, ip, r6
    2d9c:	078f0b00 	streq	r0, [pc, r0, lsl #22]
    2da0:	19010000 	stmdbne	r1, {}	; <UNPREDICTABLE>
    2da4:	00000037 	andeq	r0, r0, r7, lsr r0
    2da8:	00001602 	andeq	r1, r0, r2, lsl #12
    2dac:	0001720c 	andeq	r7, r1, ip, lsl #4
    2db0:	00015600 	andeq	r5, r1, r0, lsl #12
    2db4:	88030500 	stmdahi	r3, {r8, sl}
    2db8:	0d0000bc 	stceq	0, cr0, [r0, #-752]	; 0xfffffd10
    2dbc:	000007be 			; <UNDEFINED> instruction: 0x000007be
    2dc0:	007d1c01 	rsbseq	r1, sp, r1, lsl #24
    2dc4:	55010000 	strpl	r0, [r1, #-0]
    2dc8:	0007870e 	andeq	r8, r7, lr, lsl #14
    2dcc:	371d0100 	ldrcc	r0, [sp, -r0, lsl #2]
    2dd0:	3c000000 	stccc	0, cr0, [r0], {-0}
    2dd4:	0f000016 	svceq	0x00000016
    2dd8:	0000a2a4 	andeq	sl, r0, r4, lsr #5
    2ddc:	000003b2 			; <UNDEFINED> instruction: 0x000003b2
    2de0:	00a2b810 	adceq	fp, r2, r0, lsl r8
    2de4:	0003b900 	andeq	fp, r3, r0, lsl #18
    2de8:	00013100 	andeq	r3, r1, r0, lsl #2
    2dec:	53011100 	movwpl	r1, #4352	; 0x1100
    2df0:	01114a01 	tsteq	r1, r1, lsl #20
    2df4:	88030552 	stmdahi	r3, {r1, r4, r6, r8, sl}
    2df8:	110000bc 	strhne	r0, [r0, -ip]
    2dfc:	03055101 	movweq	r5, #20737	; 0x5101
    2e00:	0000bd08 	andeq	fp, r0, r8, lsl #26
    2e04:	05500111 	ldrbeq	r0, [r0, #-273]	; 0x111
    2e08:	00bcc803 	adcseq	ip, ip, r3, lsl #16
    2e0c:	bc0f0000 	stclt	0, cr0, [pc], {-0}
    2e10:	cf0000a2 	svcgt	0x000000a2
    2e14:	12000003 	andne	r0, r0, #3
    2e18:	0000a2dc 	ldrdeq	sl, [r0], -ip
    2e1c:	000003d6 	ldrdeq	r0, [r0], -r6
    2e20:	02520111 	subseq	r0, r2, #1073741828	; 0x40000004
    2e24:	01110076 	tsteq	r1, r6, ror r0
    2e28:	11300151 	teqne	r0, r1, asr r1
    2e2c:	75025001 	strvc	r5, [r2, #-1]
    2e30:	07000000 	streq	r0, [r0, -r0]
    2e34:	00000097 	muleq	r0, r7, r0
    2e38:	0007250a 	andeq	r2, r7, sl, lsl #10
    2e3c:	7d270100 	stfvcs	f0, [r7, #-0]
    2e40:	00000000 	andeq	r0, r0, r0
    2e44:	9c0000a3 	stcls	0, cr0, [r0], {163}	; 0xa3
    2e48:	01000000 	mrseq	r0, (UNDEF: 0)
    2e4c:	0002459c 	muleq	r2, ip, r5
    2e50:	078f0b00 	streq	r0, [pc, r0, lsl #22]
    2e54:	27010000 	strcs	r0, [r1, -r0]
    2e58:	00000037 	andeq	r0, r0, r7, lsr r0
    2e5c:	00001662 	andeq	r1, r0, r2, ror #12
    2e60:	00077d0b 	andeq	r7, r7, fp, lsl #26
    2e64:	37270100 	strcc	r0, [r7, -r0, lsl #2]!
    2e68:	ce000000 	cdpgt	0, 0, cr0, cr0, cr0, {0}
    2e6c:	0c000016 	stceq	0, cr0, [r0], {22}
    2e70:	00000172 	andeq	r0, r0, r2, ror r1
    2e74:	00000255 	andeq	r0, r0, r5, asr r2
    2e78:	bc900305 	ldclt	3, cr0, [r0], {5}
    2e7c:	3f0e0000 	svccc	0x000e0000
    2e80:	01000007 	tsteq	r0, r7
    2e84:	0000372d 	andeq	r3, r0, sp, lsr #14
    2e88:	00174800 	andseq	r4, r7, r0, lsl #16
    2e8c:	a3180f00 	tstge	r8, #0, 30
    2e90:	03b20000 			; <UNDEFINED> instruction: 0x03b20000
    2e94:	2c100000 	ldccs	0, cr0, [r0], {-0}
    2e98:	b90000a3 	stmdblt	r0, {r0, r1, r5, r7}
    2e9c:	e8000003 	stmda	r0, {r0, r1}
    2ea0:	11000001 	tstne	r0, r1
    2ea4:	08025301 	stmdaeq	r2, {r0, r8, r9, ip, lr}
    2ea8:	52011128 	andpl	r1, r1, #40, 2
    2eac:	bc900305 	ldclt	3, cr0, [r0], {5}
    2eb0:	01110000 	tsteq	r1, r0
    2eb4:	08030551 	stmdaeq	r3, {r0, r4, r6, r8, sl}
    2eb8:	110000bd 	strhne	r0, [r0, -sp]
    2ebc:	03055001 	movweq	r5, #20481	; 0x5001
    2ec0:	0000bcc8 	andeq	fp, r0, r8, asr #25
    2ec4:	a3300f00 	teqge	r0, #0, 30
    2ec8:	03cf0000 	biceq	r0, pc, #0
    2ecc:	3c0f0000 	stccc	0, cr0, [pc], {-0}
    2ed0:	a70000a3 	strge	r0, [r0, -r3, lsr #1]
    2ed4:	0f000000 	svceq	0x00000000
    2ed8:	0000a34c 	andeq	sl, r0, ip, asr #6
    2edc:	000003b2 			; <UNDEFINED> instruction: 0x000003b2
    2ee0:	00a36010 	adceq	r6, r3, r0, lsl r0
    2ee4:	0003b900 	andeq	fp, r3, r0, lsl #18
    2ee8:	00023200 	andeq	r3, r2, r0, lsl #4
    2eec:	53011100 	movwpl	r1, #4352	; 0x1100
    2ef0:	112c0802 	teqne	ip, r2, lsl #16
    2ef4:	03055201 	movweq	r5, #20993	; 0x5201
    2ef8:	0000bc90 	muleq	r0, r0, ip
    2efc:	05510111 	ldrbeq	r0, [r1, #-273]	; 0x111
    2f00:	00bd0803 	adcseq	r0, sp, r3, lsl #16
    2f04:	50011100 	andpl	r1, r1, r0, lsl #2
    2f08:	bd1c0305 	ldclt	3, cr0, [ip, #-20]	; 0xffffffec
    2f0c:	0f000000 	svceq	0x00000000
    2f10:	0000a364 	andeq	sl, r0, r4, ror #6
    2f14:	000003cf 	andeq	r0, r0, pc, asr #7
    2f18:	00a3840f 	adceq	r8, r3, pc, lsl #8
    2f1c:	0000a700 	andeq	sl, r0, r0, lsl #14
    2f20:	85080000 	strhi	r0, [r8, #-0]
    2f24:	55000000 	strpl	r0, [r0, #-0]
    2f28:	09000002 	stmdbeq	r0, {r1}
    2f2c:	00000076 	andeq	r0, r0, r6, ror r0
    2f30:	4507000f 	strmi	r0, [r7, #-15]
    2f34:	13000002 	movwne	r0, #2
    2f38:	0000022f 	andeq	r0, r0, pc, lsr #4
    2f3c:	a39c3c01 	orrsge	r3, ip, #256	; 0x100
    2f40:	005c0000 	subseq	r0, ip, r0
    2f44:	9c010000 	stcls	0, cr0, [r1], {-0}
    2f48:	000002c0 	andeq	r0, r0, r0, asr #5
    2f4c:	0001720c 	andeq	r7, r1, ip, lsl #4
    2f50:	0002d000 	andeq	sp, r2, r0
    2f54:	a0030500 	andge	r0, r3, r0, lsl #10
    2f58:	0f0000bc 	svceq	0x000000bc
    2f5c:	0000a3b4 			; <UNDEFINED> instruction: 0x0000a3b4
    2f60:	000003b2 			; <UNDEFINED> instruction: 0x000003b2
    2f64:	00a3c810 	adceq	ip, r3, r0, lsl r8
    2f68:	0003b900 	andeq	fp, r3, r0, lsl #18
    2f6c:	0002b600 	andeq	fp, r2, r0, lsl #12
    2f70:	53011100 	movwpl	r1, #4352	; 0x1100
    2f74:	113d0802 	teqne	sp, r2, lsl #16
    2f78:	03055201 	movweq	r5, #20993	; 0x5201
    2f7c:	0000bca0 	andeq	fp, r0, r0, lsr #25
    2f80:	05510111 	ldrbeq	r0, [r1, #-273]	; 0x111
    2f84:	00bd0803 	adcseq	r0, sp, r3, lsl #16
    2f88:	50011100 	andpl	r1, r1, r0, lsl #2
    2f8c:	bd740305 	ldcllt	3, cr0, [r4, #-20]!	; 0xffffffec
    2f90:	0f000000 	svceq	0x00000000
    2f94:	0000a3cc 	andeq	sl, r0, ip, asr #7
    2f98:	000003cf 	andeq	r0, r0, pc, asr #7
    2f9c:	00850800 	addeq	r0, r5, r0, lsl #16
    2fa0:	02d00000 	sbcseq	r0, r0, #0
    2fa4:	76090000 	strvc	r0, [r9], -r0
    2fa8:	0c000000 	stceq	0, cr0, [r0], {-0}
    2fac:	02c00700 	sbceq	r0, r0, #0, 14
    2fb0:	35140000 	ldrcc	r0, [r4, #-0]
    2fb4:	01000007 	tsteq	r0, r7
    2fb8:	00a3f846 	adceq	pc, r3, r6, asr #16
    2fbc:	00001800 	andeq	r1, r0, r0, lsl #16
    2fc0:	159c0100 	ldrne	r0, [ip, #256]	; 0x100
    2fc4:	00000796 	muleq	r0, r6, r7
    2fc8:	007d4f01 	rsbseq	r4, sp, r1, lsl #30
    2fcc:	a4100000 	ldrge	r0, [r0], #-0
    2fd0:	00100000 	andseq	r0, r0, r0
    2fd4:	9c010000 	stcls	0, cr0, [r1], {-0}
    2fd8:	0007a713 	andeq	sl, r7, r3, lsl r7
    2fdc:	20530100 	subscs	r0, r3, r0, lsl #2
    2fe0:	540000a4 	strpl	r0, [r0], #-164	; 0xa4
    2fe4:	01000000 	mrseq	r0, (UNDEF: 0)
    2fe8:	0003709c 	muleq	r3, ip, r0
    2fec:	07680b00 	strbeq	r0, [r8, -r0, lsl #22]!
    2ff0:	53010000 	movwpl	r0, #4096	; 0x1000
    2ff4:	00000037 	andeq	r0, r0, r7, lsr r0
    2ff8:	00001775 	andeq	r1, r0, r5, ror r7
    2ffc:	0001720c 	andeq	r7, r1, ip, lsl #4
    3000:	00038000 	andeq	r8, r3, r0
    3004:	b0030500 	andlt	r0, r3, r0, lsl #10
    3008:	0f0000bc 	svceq	0x000000bc
    300c:	0000a438 	andeq	sl, r0, r8, lsr r4
    3010:	000003b2 			; <UNDEFINED> instruction: 0x000003b2
    3014:	00a44c10 	adceq	r4, r4, r0, lsl ip
    3018:	0003b900 	andeq	fp, r3, r0, lsl #18
    301c:	00036600 	andeq	r6, r3, r0, lsl #12
    3020:	53011100 	movwpl	r1, #4352	; 0x1100
    3024:	11540802 	cmpne	r4, r2, lsl #16
    3028:	03055201 	movweq	r5, #20993	; 0x5201
    302c:	0000bcb0 			; <UNDEFINED> instruction: 0x0000bcb0
    3030:	05510111 	ldrbeq	r0, [r1, #-273]	; 0x111
    3034:	00bd0803 	adcseq	r0, sp, r3, lsl #16
    3038:	50011100 	andpl	r1, r1, r0, lsl #2
    303c:	bd740305 	ldcllt	3, cr0, [r4, #-20]!	; 0xffffffec
    3040:	0f000000 	svceq	0x00000000
    3044:	0000a450 	andeq	sl, r0, r0, asr r4
    3048:	000003cf 	andeq	r0, r0, pc, asr #7
    304c:	00850800 	addeq	r0, r5, r0, lsl #16
    3050:	03800000 	orreq	r0, r0, #0
    3054:	76090000 	strvc	r0, [r9], -r0
    3058:	16000000 	strne	r0, [r0], -r0
    305c:	03700700 	cmneq	r0, #0, 14
    3060:	760d0000 	strvc	r0, [sp], -r0
    3064:	01000007 	tsteq	r0, r7
    3068:	00002508 	andeq	r2, r0, r8, lsl #10
    306c:	08030500 	stmdaeq	r3, {r8, sl}
    3070:	0d0000c3 	stceq	0, cr0, [r0, #-780]	; 0xfffffcf4
    3074:	0000079e 	muleq	r0, lr, r7
    3078:	007f0b01 	rsbseq	r0, pc, r1, lsl #22
    307c:	03050000 	movweq	r0, #20480	; 0x5000
    3080:	0000c30c 	andeq	ip, r0, ip, lsl #6
    3084:	0007ca16 	andeq	ip, r7, r6, lsl sl
    3088:	85050100 	strhi	r0, [r5, #-256]	; 0x100
    308c:	17000000 	strne	r0, [r0, -r0]
    3090:	0000023c 	andeq	r0, r0, ip, lsr r2
    3094:	5e181e02 	cdppl	14, 1, cr1, cr8, cr2, {0}
    3098:	02000004 	andeq	r0, r0, #4
    309c:	00002529 	andeq	r2, r0, r9, lsr #10
    30a0:	0003cf00 	andeq	ip, r3, r0, lsl #30
    30a4:	008c1900 	addeq	r1, ip, r0, lsl #18
    30a8:	001a0000 	andseq	r0, sl, r0
    30ac:	0000df17 	andeq	sp, r0, r7, lsl pc
    30b0:	1b660200 	blne	19838b8 <__bss_end__+0x1977588>
    30b4:	00000750 	andeq	r0, r0, r0, asr r7
    30b8:	007d1b04 	rsbseq	r1, sp, r4, lsl #22
    30bc:	7d190000 	ldcvc	0, cr0, [r9, #-0]
    30c0:	19000000 	stmdbne	r0, {}	; <UNPREDICTABLE>
    30c4:	00000025 	andeq	r0, r0, r5, lsr #32
    30c8:	00002c19 	andeq	r2, r0, r9, lsl ip
    30cc:	ca000000 	bgt	30d4 <_start-0x4f2c>
    30d0:	04000011 	streq	r0, [r0], #-17
    30d4:	00115000 	andseq	r5, r1, r0
    30d8:	47010400 	strmi	r0, [r1, -r0, lsl #8]
    30dc:	01000000 	mrseq	r0, (UNDEF: 0)
    30e0:	00000878 	andeq	r0, r0, r8, ror r8
    30e4:	000003fa 	strdeq	r0, [r0], -sl
    30e8:	0000a474 	andeq	sl, r0, r4, ror r4
    30ec:	00000620 	andeq	r0, r0, r0, lsr #12
    30f0:	000010b6 	strheq	r1, [r0], -r6
    30f4:	69050402 	stmdbvs	r5, {r1, sl}
    30f8:	0300746e 	movweq	r7, #1134	; 0x46e
    30fc:	01af0704 			; <UNDEFINED> instruction: 0x01af0704
    3100:	01030000 	mrseq	r0, (UNDEF: 3)
    3104:	00010906 	andeq	r0, r1, r6, lsl #18
    3108:	05020300 	streq	r0, [r2, #-768]	; 0x300
    310c:	00000202 	andeq	r0, r0, r2, lsl #4
    3110:	e2050403 	and	r0, r5, #50331648	; 0x3000000
    3114:	03000001 	movweq	r0, #1
    3118:	01dd0508 	bicseq	r0, sp, r8, lsl #10
    311c:	bc040000 	stclt	0, cr0, [r4], {-0}
    3120:	03000001 	movweq	r0, #1
    3124:	00005a2e 	andeq	r5, r0, lr, lsr #20
    3128:	08010300 	stmdaeq	r1, {r8, r9}
    312c:	00000107 	andeq	r0, r0, r7, lsl #2
    3130:	ec070203 	sfm	f0, 4, [r7], {3}
    3134:	04000000 	streq	r0, [r0], #-0
    3138:	0000021f 	andeq	r0, r0, pc, lsl r2
    313c:	00733403 	rsbseq	r3, r3, r3, lsl #8
    3140:	04030000 	streq	r0, [r3], #-0
    3144:	0001aa07 	andeq	sl, r1, r7, lsl #20
    3148:	07080300 	streq	r0, [r8, -r0, lsl #6]
    314c:	000001a5 	andeq	r0, r0, r5, lsr #3
    3150:	d4070403 	strle	r0, [r7], #-1027	; 0x403
    3154:	05000001 	streq	r0, [r0, #-1]
    3158:	90040604 	andls	r0, r4, r4, lsl #12
    315c:	03000000 	movweq	r0, #0
    3160:	01100801 	tsteq	r0, r1, lsl #16
    3164:	04060000 	streq	r0, [r6], #-0
    3168:	0000009d 	muleq	r0, sp, r0
    316c:	00009007 	andeq	r9, r0, r7
    3170:	040c0800 	streq	r0, [ip], #-2048	; 0x800
    3174:	0000d90e 	andeq	sp, r0, lr, lsl #18
    3178:	78740900 	ldmdavc	r4!, {r8, fp}^
    317c:	4f0f0400 	svcmi	0x000f0400
    3180:	00000000 	andeq	r0, r0, r0
    3184:	00787209 	rsbseq	r7, r8, r9, lsl #4
    3188:	004f0f04 	subeq	r0, pc, r4, lsl #30
    318c:	0a010000 	beq	43194 <__bss_end__+0x36e64>
    3190:	000005d9 	ldrdeq	r0, [r0], -r9
    3194:	00681004 	rsbeq	r1, r8, r4
    3198:	0a040000 	beq	1031a0 <__bss_end__+0xf6e70>
    319c:	0000058a 	andeq	r0, r0, sl, lsl #11
    31a0:	00681104 	rsbeq	r1, r8, r4, lsl #2
    31a4:	00080000 	andeq	r0, r8, r0
    31a8:	0005c204 	andeq	ip, r5, r4, lsl #4
    31ac:	a2120400 	andsge	r0, r2, #0, 8
    31b0:	04000000 	streq	r0, [r0], #-0
    31b4:	0000043e 	andeq	r0, r0, lr, lsr r4
    31b8:	00ef2805 	rsceq	r2, pc, r5, lsl #16
    31bc:	650b0000 	strvs	r0, [fp, #-0]
    31c0:	04000004 	streq	r0, [r0], #-4
    31c4:	01060009 	tsteq	r6, r9
    31c8:	740c0000 	strvc	r0, [ip], #-0
    31cc:	88000004 	stmdahi	r0, {r2}
    31d0:	00000000 	andeq	r0, r0, r0
    31d4:	04670400 	strbteq	r0, [r7], #-1024	; 0x400
    31d8:	62050000 	andvs	r0, r5, #0
    31dc:	000000e4 	andeq	r0, r0, r4, ror #1
    31e0:	0008320d 	andeq	r3, r8, sp, lsl #4
    31e4:	03090200 	movweq	r0, #37376	; 0x9200
    31e8:	0000013f 	andeq	r0, r0, pc, lsr r1
    31ec:	00000b0e 	andeq	r0, r0, lr, lsl #22
    31f0:	2c090200 	sfmcs	f0, 4, [r9], {-0}
    31f4:	0f000000 	svceq	0x00000000
    31f8:	0902006e 	stmdbeq	r2, {r1, r2, r3, r5, r6}
    31fc:	0000002c 	andeq	r0, r0, ip, lsr #32
    3200:	08a61110 	stmiaeq	r6!, {r4, r8, ip}
    3204:	0c020000 	stceq	0, cr0, [r2], {-0}
    3208:	0000002c 	andeq	r0, r0, ip, lsr #32
    320c:	e50d0000 	str	r0, [sp, #-0]
    3210:	02000007 	andeq	r0, r0, #7
    3214:	01760317 	cmneq	r6, r7, lsl r3
    3218:	700f0000 	andvc	r0, pc, r0
    321c:	02006e69 	andeq	r6, r0, #1680	; 0x690
    3220:	00002c17 	andeq	r2, r0, r7, lsl ip
    3224:	00760f00 	rsbseq	r0, r6, r0, lsl #30
    3228:	002c1702 	eoreq	r1, ip, r2, lsl #14
    322c:	0b0e0000 	bleq	383234 <__bss_end__+0x376f04>
    3230:	02000000 	andeq	r0, r0, #0
    3234:	00002c17 	andeq	r2, r0, r7, lsl ip
    3238:	08380e00 	ldmdaeq	r8!, {r9, sl, fp}
    323c:	17020000 	strne	r0, [r2, -r0]
    3240:	0000002c 	andeq	r0, r0, ip, lsr #32
    3244:	05fe1200 	ldrbeq	r1, [lr, #512]!	; 0x200
    3248:	09010000 	stmdbeq	r1, {}	; <UNPREDICTABLE>
    324c:	0000a474 	andeq	sl, r0, r4, ror r4
    3250:	00000154 	andeq	r0, r0, r4, asr r1
    3254:	07229c01 	streq	r9, [r2, -r1, lsl #24]!
    3258:	a0130000 	andsge	r0, r3, r0
    325c:	01000005 	tsteq	r0, r5
    3260:	00072209 	andeq	r2, r7, r9, lsl #4
    3264:	0017a100 	andseq	sl, r7, r0, lsl #2
    3268:	00631400 	rsbeq	r1, r3, r0, lsl #8
    326c:	005a0901 	subseq	r0, sl, r1, lsl #18
    3270:	17c20000 	strbne	r0, [r2, r0]
    3274:	74150000 	ldrvc	r0, [r5], #-0
    3278:	0b010078 	bleq	43460 <__bss_end__+0x37130>
    327c:	00000025 	andeq	r0, r0, r5, lsr #32
    3280:	08007606 	stmdaeq	r0, {r1, r2, r9, sl, ip, sp, lr}
    3284:	169f1aff 			; <UNDEFINED> instruction: 0x169f1aff
    3288:	0c01006e 	stceq	0, cr0, [r1], {110}	; 0x6e
    328c:	00000068 	andeq	r0, r0, r8, rrx
    3290:	000017e3 	andeq	r1, r0, r3, ror #15
    3294:	01007516 	tsteq	r0, r6, lsl r5
    3298:	0000680d 	andeq	r6, r0, sp, lsl #16
    329c:	0017f600 	andseq	pc, r7, r0, lsl #12
    32a0:	00731500 	rsbseq	r1, r3, r0, lsl #10
    32a4:	00680e01 	rsbeq	r0, r8, r1, lsl #28
    32a8:	54010000 	strpl	r0, [r1], #-0
    32ac:	00a48417 	adceq	r8, r4, r7, lsl r4
    32b0:	00000400 	andeq	r0, r0, r0, lsl #8
    32b4:	0001f800 	andeq	pc, r1, r0, lsl #16
    32b8:	08a61800 	stmiaeq	r6!, {fp, ip}
    32bc:	0e010000 	cdpeq	0, 0, cr0, cr1, cr0, {0}
    32c0:	0000002c 	andeq	r0, r0, ip, lsr #32
    32c4:	19005401 	stmdbne	r0, {r0, sl, ip, lr}
    32c8:	0000013f 	andeq	r0, r0, pc, lsr r1
    32cc:	0000a488 	andeq	sl, r0, r8, lsl #9
    32d0:	0000001c 	andeq	r0, r0, ip, lsl r0
    32d4:	02751101 	rsbseq	r1, r5, #1073741824	; 0x40000000
    32d8:	6a1a0000 	bvs	6832e0 <__bss_end__+0x676fb0>
    32dc:	1f000001 	svcne	0x00000001
    32e0:	1b000018 	blne	3348 <_start-0x4cb8>
    32e4:	0000015f 	andeq	r0, r0, pc, asr r1
    32e8:	561c5401 	ldrpl	r5, [ip], -r1, lsl #8
    32ec:	00000001 	andeq	r0, r0, r1
    32f0:	00014b1b 	andeq	r4, r1, fp, lsl fp
    32f4:	19560100 	ldmdbne	r6, {r8}^
    32f8:	00000111 	andeq	r0, r0, r1, lsl r1
    32fc:	0000a494 	muleq	r0, r4, r4
    3300:	00000010 	andeq	r0, r0, r0, lsl r0
    3304:	025f1a02 	subseq	r1, pc, #8192	; 0x2000
    3308:	281a0000 	ldmdacs	sl, {}	; <UNPREDICTABLE>
    330c:	32000001 	andcc	r0, r0, #1
    3310:	1b000018 	blne	3378 <_start-0x4c88>
    3314:	0000011d 	andeq	r0, r0, sp, lsl r1
    3318:	941d5401 	ldrls	r5, [sp], #-1025	; 0x401
    331c:	040000a4 	streq	r0, [r0], #-164	; 0xa4
    3320:	1e000000 	cdpne	0, 0, cr0, cr0, cr0, {0}
    3324:	00000132 	andeq	r0, r0, r2, lsr r1
    3328:	00001845 	andeq	r1, r0, r5, asr #16
    332c:	941f0000 	ldrls	r0, [pc], #-0	; 3334 <_start-0x4ccc>
    3330:	310000a4 	smlatbcc	r0, r4, r0, r0
    3334:	20000011 	andcs	r0, r0, r1, lsl r0
    3338:	30015101 	andcc	r5, r1, r1, lsl #2
    333c:	02500120 	subseq	r0, r0, #32, 2
    3340:	00000076 	andeq	r0, r0, r6, ror r0
    3344:	00013f19 	andeq	r3, r1, r9, lsl pc
    3348:	00a4a800 	adceq	sl, r4, r0, lsl #16
    334c:	00001c00 	andeq	r1, r0, r0, lsl #24
    3350:	f8130100 			; <UNDEFINED> instruction: 0xf8130100
    3354:	1a000002 	bne	3364 <_start-0x4c9c>
    3358:	0000016a 	andeq	r0, r0, sl, ror #2
    335c:	00001858 	andeq	r1, r0, r8, asr r8
    3360:	00015f1b 	andeq	r5, r1, fp, lsl pc
    3364:	1a540100 	bne	150376c <__bss_end__+0x14f743c>
    3368:	00000156 	andeq	r0, r0, r6, asr r1
    336c:	0000187a 	andeq	r1, r0, sl, ror r8
    3370:	00014b1b 	andeq	r4, r1, fp, lsl fp
    3374:	19560100 	ldmdbne	r6, {r8}^
    3378:	00000111 	andeq	r0, r0, r1, lsl r1
    337c:	0000a4b4 			; <UNDEFINED> instruction: 0x0000a4b4
    3380:	00000010 	andeq	r0, r0, r0, lsl r0
    3384:	02df1a02 	sbcseq	r1, pc, #8192	; 0x2000
    3388:	281a0000 	ldmdacs	sl, {}	; <UNPREDICTABLE>
    338c:	ab000001 	blge	3398 <_start-0x4c68>
    3390:	1b000018 	blne	33f8 <_start-0x4c08>
    3394:	0000011d 	andeq	r0, r0, sp, lsl r1
    3398:	b41d5401 	ldrlt	r5, [sp], #-1025	; 0x401
    339c:	040000a4 	streq	r0, [r0], #-164	; 0xa4
    33a0:	1e000000 	cdpne	0, 0, cr0, cr0, cr0, {0}
    33a4:	00000132 	andeq	r0, r0, r2, lsr r1
    33a8:	000018cd 	andeq	r1, r0, sp, asr #17
    33ac:	b41f0000 	ldrlt	r0, [pc], #-0	; 33b4 <_start-0x4c4c>
    33b0:	310000a4 	smlatbcc	r0, r4, r0, r0
    33b4:	20000011 	andcs	r0, r0, r1, lsl r0
    33b8:	77045101 	strvc	r5, [r4, -r1, lsl #2]
    33bc:	201a3100 	andscs	r3, sl, r0, lsl #2
    33c0:	76025001 	strvc	r5, [r2], -r1
    33c4:	19000000 	stmdbne	r0, {}	; <UNPREDICTABLE>
    33c8:	0000013f 	andeq	r0, r0, pc, lsr r1
    33cc:	0000a4c8 	andeq	sl, r0, r8, asr #9
    33d0:	0000001c 	andeq	r0, r0, ip, lsl r0
    33d4:	03801501 	orreq	r1, r0, #4194304	; 0x400000
    33d8:	6a1a0000 	bvs	6833e0 <__bss_end__+0x6770b0>
    33dc:	e0000001 	and	r0, r0, r1
    33e0:	1b000018 	blne	3448 <_start-0x4bb8>
    33e4:	0000015f 	andeq	r0, r0, pc, asr r1
    33e8:	561b5401 	ldrpl	r5, [fp], -r1, lsl #8
    33ec:	08000001 	stmdaeq	r0, {r0}
    33f0:	1a320077 	bne	c835d4 <__bss_end__+0xc772a4>
    33f4:	9f1aff08 	svcls	0x001aff08
    33f8:	00014b1b 	andeq	r4, r1, fp, lsl fp
    33fc:	19560100 	ldmdbne	r6, {r8}^
    3400:	00000111 	andeq	r0, r0, r1, lsl r1
    3404:	0000a4d4 	ldrdeq	sl, [r0], -r4
    3408:	00000010 	andeq	r0, r0, r0, lsl r0
    340c:	03671a02 	cmneq	r7, #8192	; 0x2000
    3410:	281a0000 	ldmdacs	sl, {}	; <UNPREDICTABLE>
    3414:	05000001 	streq	r0, [r0, #-1]
    3418:	1b000019 	blne	3484 <_start-0x4b7c>
    341c:	0000011d 	andeq	r0, r0, sp, lsl r1
    3420:	d41d5401 	ldrle	r5, [sp], #-1025	; 0x401
    3424:	040000a4 	streq	r0, [r0], #-164	; 0xa4
    3428:	1e000000 	cdpne	0, 0, cr0, cr0, cr0, {0}
    342c:	00000132 	andeq	r0, r0, r2, lsr r1
    3430:	0000192a 	andeq	r1, r0, sl, lsr #18
    3434:	d41f0000 	ldrle	r0, [pc], #-0	; 343c <_start-0x4bc4>
    3438:	310000a4 	smlatbcc	r0, r4, r0, r0
    343c:	20000011 	andcs	r0, r0, r1, lsl r0
    3440:	77045101 	strvc	r5, [r4, -r1, lsl #2]
    3444:	201a3200 	andscs	r3, sl, r0, lsl #4
    3448:	76025001 	strvc	r5, [r2], -r1
    344c:	19000000 	stmdbne	r0, {}	; <UNPREDICTABLE>
    3450:	0000013f 	andeq	r0, r0, pc, lsr r1
    3454:	0000a4e8 	andeq	sl, r0, r8, ror #9
    3458:	0000001c 	andeq	r0, r0, ip, lsl r0
    345c:	04081701 	streq	r1, [r8], #-1793	; 0x701
    3460:	6a1a0000 	bvs	683468 <__bss_end__+0x677138>
    3464:	3d000001 	stccc	0, cr0, [r0, #-4]
    3468:	1b000019 	blne	34d4 <_start-0x4b2c>
    346c:	0000015f 	andeq	r0, r0, pc, asr r1
    3470:	561b5401 	ldrpl	r5, [fp], -r1, lsl #8
    3474:	08000001 	stmdaeq	r0, {r0}
    3478:	1a340077 	bne	d0365c <__bss_end__+0xcf732c>
    347c:	9f1aff08 	svcls	0x001aff08
    3480:	00014b1b 	andeq	r4, r1, fp, lsl fp
    3484:	19560100 	ldmdbne	r6, {r8}^
    3488:	00000111 	andeq	r0, r0, r1, lsl r1
    348c:	0000a4f4 	strdeq	sl, [r0], -r4
    3490:	00000010 	andeq	r0, r0, r0, lsl r0
    3494:	03ef1a02 	mvneq	r1, #8192	; 0x2000
    3498:	281a0000 	ldmdacs	sl, {}	; <UNPREDICTABLE>
    349c:	5f000001 	svcpl	0x00000001
    34a0:	1b000019 	blne	350c <_start-0x4af4>
    34a4:	0000011d 	andeq	r0, r0, sp, lsl r1
    34a8:	f41d5401 			; <UNDEFINED> instruction: 0xf41d5401
    34ac:	040000a4 	streq	r0, [r0], #-164	; 0xa4
    34b0:	1e000000 	cdpne	0, 0, cr0, cr0, cr0, {0}
    34b4:	00000132 	andeq	r0, r0, r2, lsr r1
    34b8:	00001981 	andeq	r1, r0, r1, lsl #19
    34bc:	f41f0000 			; <UNDEFINED> instruction: 0xf41f0000
    34c0:	310000a4 	smlatbcc	r0, r4, r0, r0
    34c4:	20000011 	andcs	r0, r0, r1, lsl r0
    34c8:	77045101 	strvc	r5, [r4, -r1, lsl #2]
    34cc:	201a3400 	andscs	r3, sl, r0, lsl #8
    34d0:	76025001 	strvc	r5, [r2], -r1
    34d4:	19000000 	stmdbne	r0, {}	; <UNPREDICTABLE>
    34d8:	0000013f 	andeq	r0, r0, pc, lsr r1
    34dc:	0000a508 	andeq	sl, r0, r8, lsl #10
    34e0:	0000001c 	andeq	r0, r0, ip, lsl r0
    34e4:	04901901 	ldreq	r1, [r0], #2305	; 0x901
    34e8:	6a1a0000 	bvs	6834f0 <__bss_end__+0x6771c0>
    34ec:	94000001 	strls	r0, [r0], #-1
    34f0:	1b000019 	blne	355c <_start-0x4aa4>
    34f4:	0000015f 	andeq	r0, r0, pc, asr r1
    34f8:	561b5401 	ldrpl	r5, [fp], -r1, lsl #8
    34fc:	08000001 	stmdaeq	r0, {r0}
    3500:	1a380077 	bne	e036e4 <__bss_end__+0xdf73b4>
    3504:	9f1aff08 	svcls	0x001aff08
    3508:	00014b1b 	andeq	r4, r1, fp, lsl fp
    350c:	19560100 	ldmdbne	r6, {r8}^
    3510:	00000111 	andeq	r0, r0, r1, lsl r1
    3514:	0000a514 	andeq	sl, r0, r4, lsl r5
    3518:	00000010 	andeq	r0, r0, r0, lsl r0
    351c:	04771a02 	ldrbteq	r1, [r7], #-2562	; 0xa02
    3520:	281a0000 	ldmdacs	sl, {}	; <UNPREDICTABLE>
    3524:	b9000001 	stmdblt	r0, {r0}
    3528:	1b000019 	blne	3594 <_start-0x4a6c>
    352c:	0000011d 	andeq	r0, r0, sp, lsl r1
    3530:	141d5401 	ldrne	r5, [sp], #-1025	; 0x401
    3534:	040000a5 	streq	r0, [r0], #-165	; 0xa5
    3538:	1e000000 	cdpne	0, 0, cr0, cr0, cr0, {0}
    353c:	00000132 	andeq	r0, r0, r2, lsr r1
    3540:	000019de 	ldrdeq	r1, [r0], -lr
    3544:	141f0000 	ldrne	r0, [pc], #-0	; 354c <_start-0x4ab4>
    3548:	310000a5 	smlatbcc	r0, r5, r0, r0
    354c:	20000011 	andcs	r0, r0, r1, lsl r0
    3550:	77045101 	strvc	r5, [r4, -r1, lsl #2]
    3554:	201a3800 	andscs	r3, sl, r0, lsl #16
    3558:	76025001 	strvc	r5, [r2], -r1
    355c:	19000000 	stmdbne	r0, {}	; <UNPREDICTABLE>
    3560:	0000013f 	andeq	r0, r0, pc, lsr r1
    3564:	0000a528 	andeq	sl, r0, r8, lsr #10
    3568:	0000001c 	andeq	r0, r0, ip, lsl r0
    356c:	05181b01 	ldreq	r1, [r8, #-2817]	; 0xb01
    3570:	6a1a0000 	bvs	683578 <__bss_end__+0x677248>
    3574:	f1000001 	cps	#1
    3578:	1b000019 	blne	35e4 <_start-0x4a1c>
    357c:	0000015f 	andeq	r0, r0, pc, asr r1
    3580:	561b5401 	ldrpl	r5, [fp], -r1, lsl #8
    3584:	08000001 	stmdaeq	r0, {r0}
    3588:	1a400077 	bne	100376c <__bss_end__+0xff743c>
    358c:	9f1aff08 	svcls	0x001aff08
    3590:	00014b1b 	andeq	r4, r1, fp, lsl fp
    3594:	19560100 	ldmdbne	r6, {r8}^
    3598:	00000111 	andeq	r0, r0, r1, lsl r1
    359c:	0000a534 	andeq	sl, r0, r4, lsr r5
    35a0:	00000010 	andeq	r0, r0, r0, lsl r0
    35a4:	04ff1a02 	ldrbteq	r1, [pc], #2562	; 35ac <_start-0x4a54>
    35a8:	281a0000 	ldmdacs	sl, {}	; <UNPREDICTABLE>
    35ac:	18000001 	stmdane	r0, {r0}
    35b0:	1b00001a 	blne	3620 <_start-0x49e0>
    35b4:	0000011d 	andeq	r0, r0, sp, lsl r1
    35b8:	341d5401 	ldrcc	r5, [sp], #-1025	; 0x401
    35bc:	040000a5 	streq	r0, [r0], #-165	; 0xa5
    35c0:	1e000000 	cdpne	0, 0, cr0, cr0, cr0, {0}
    35c4:	00000132 	andeq	r0, r0, r2, lsr r1
    35c8:	00001a3f 	andeq	r1, r0, pc, lsr sl
    35cc:	341f0000 	ldrcc	r0, [pc], #-0	; 35d4 <_start-0x4a2c>
    35d0:	310000a5 	smlatbcc	r0, r5, r0, r0
    35d4:	20000011 	andcs	r0, r0, r1, lsl r0
    35d8:	77045101 	strvc	r5, [r4, -r1, lsl #2]
    35dc:	201a4000 	andscs	r4, sl, r0
    35e0:	76025001 	strvc	r5, [r2], -r1
    35e4:	19000000 	stmdbne	r0, {}	; <UNPREDICTABLE>
    35e8:	0000013f 	andeq	r0, r0, pc, lsr r1
    35ec:	0000a548 	andeq	sl, r0, r8, asr #10
    35f0:	0000001c 	andeq	r0, r0, ip, lsl r0
    35f4:	05a21d01 	streq	r1, [r2, #3329]!	; 0xd01
    35f8:	6a1a0000 	bvs	683600 <__bss_end__+0x6772d0>
    35fc:	52000001 	andpl	r0, r0, #1
    3600:	1b00001a 	blne	3670 <_start-0x4990>
    3604:	0000015f 	andeq	r0, r0, pc, asr r1
    3608:	561b5401 	ldrpl	r5, [fp], -r1, lsl #8
    360c:	09000001 	stmdbeq	r0, {r0}
    3610:	20080077 	andcs	r0, r8, r7, ror r0
    3614:	1aff081a 	bne	fffc5684 <__bss_end__+0xfffb9354>
    3618:	014b1b9f 			; <UNDEFINED> instruction: 0x014b1b9f
    361c:	56010000 	strpl	r0, [r1], -r0
    3620:	00011119 	andeq	r1, r1, r9, lsl r1
    3624:	00a55400 	adceq	r5, r5, r0, lsl #8
    3628:	00001000 	andeq	r1, r0, r0
    362c:	881a0200 	ldmdahi	sl, {r9}
    3630:	1a000005 	bne	364c <_start-0x49b4>
    3634:	00000128 	andeq	r0, r0, r8, lsr #2
    3638:	00001a7c 	andeq	r1, r0, ip, ror sl
    363c:	00011d1b 	andeq	r1, r1, fp, lsl sp
    3640:	1d540100 	ldfnee	f0, [r4, #-0]
    3644:	0000a554 	andeq	sl, r0, r4, asr r5
    3648:	00000004 	andeq	r0, r0, r4
    364c:	0001321e 	andeq	r3, r1, lr, lsl r2
    3650:	001aa600 	andseq	sl, sl, r0, lsl #12
    3654:	1f000000 	svcne	0x00000000
    3658:	0000a554 	andeq	sl, r0, r4, asr r5
    365c:	00001131 	andeq	r1, r0, r1, lsr r1
    3660:	05510120 	ldrbeq	r0, [r1, #-288]	; 0x120
    3664:	20080077 	andcs	r0, r8, r7, ror r0
    3668:	5001201a 	andpl	r2, r1, sl, lsl r0
    366c:	00007602 	andeq	r7, r0, r2, lsl #12
    3670:	013f1900 	teqeq	pc, r0, lsl #18
    3674:	a5680000 	strbge	r0, [r8, #-0]!
    3678:	001c0000 	andseq	r0, ip, r0
    367c:	1f010000 	svcne	0x00010000
    3680:	0000062c 	andeq	r0, r0, ip, lsr #12
    3684:	00016a1a 	andeq	r6, r1, sl, lsl sl
    3688:	001ab900 	andseq	fp, sl, r0, lsl #18
    368c:	015f1b00 	cmpeq	pc, r0, lsl #22
    3690:	54010000 	strpl	r0, [r1], #-0
    3694:	0001561b 	andeq	r5, r1, fp, lsl r6
    3698:	00770900 	rsbseq	r0, r7, r0, lsl #18
    369c:	081a4008 	ldmdaeq	sl, {r3, lr}
    36a0:	1b9f1aff 	blne	fe7ca2a4 <__bss_end__+0xfe7bdf74>
    36a4:	0000014b 	andeq	r0, r0, fp, asr #2
    36a8:	11195601 	tstne	r9, r1, lsl #12
    36ac:	74000001 	strvc	r0, [r0], #-1
    36b0:	100000a5 	andne	r0, r0, r5, lsr #1
    36b4:	02000000 	andeq	r0, r0, #0
    36b8:	0006121a 	andeq	r1, r6, sl, lsl r2
    36bc:	01281a00 	teqeq	r8, r0, lsl #20
    36c0:	1adb0000 	bne	ff6c36c8 <__bss_end__+0xff6b7398>
    36c4:	1d1b0000 	ldcne	0, cr0, [fp, #-0]
    36c8:	01000001 	tsteq	r0, r1
    36cc:	a5741d54 	ldrbge	r1, [r4, #-3412]!	; 0xd54
    36d0:	00040000 	andeq	r0, r4, r0
    36d4:	321e0000 	andscc	r0, lr, #0
    36d8:	fd000001 	stc2	0, cr0, [r0, #-4]
    36dc:	0000001a 	andeq	r0, r0, sl, lsl r0
    36e0:	a5741f00 	ldrbge	r1, [r4, #-3840]!	; 0xf00
    36e4:	11310000 	teqne	r1, r0
    36e8:	01200000 	teqeq	r0, r0
    36ec:	00770551 	rsbseq	r0, r7, r1, asr r5
    36f0:	201a4008 	andscs	r4, sl, r8
    36f4:	76025001 	strvc	r5, [r2], -r1
    36f8:	19000000 	stmdbne	r0, {}	; <UNPREDICTABLE>
    36fc:	0000013f 	andeq	r0, r0, pc, lsr r1
    3700:	0000a588 	andeq	sl, r0, r8, lsl #11
    3704:	0000001c 	andeq	r0, r0, ip, lsl r0
    3708:	06ac2101 	strteq	r2, [ip], r1, lsl #2
    370c:	6a1b0000 	bvs	6c3714 <__bss_end__+0x6b73e4>
    3710:	01000001 	tsteq	r0, r1
    3714:	015f1b58 	cmpeq	pc, r8, asr fp	; <UNPREDICTABLE>
    3718:	54010000 	strpl	r0, [r1], #-0
    371c:	0001561a 	andeq	r5, r1, sl, lsl r6
    3720:	001b1000 	andseq	r1, fp, r0
    3724:	014b1b00 	cmpeq	fp, r0, lsl #22
    3728:	56010000 	strpl	r0, [r1], -r0
    372c:	00011119 	andeq	r1, r1, r9, lsl r1
    3730:	00a59400 	adceq	r9, r5, r0, lsl #8
    3734:	00001000 	andeq	r1, r0, r0
    3738:	921a0200 	andsls	r0, sl, #0, 4
    373c:	1b000006 	blne	375c <_start-0x48a4>
    3740:	00000128 	andeq	r0, r0, r8, lsr #2
    3744:	1d1b5801 	ldcne	8, cr5, [fp, #-4]
    3748:	01000001 	tsteq	r0, r1
    374c:	a5941d54 	ldrge	r1, [r4, #3412]	; 0xd54
    3750:	00040000 	andeq	r0, r4, r0
    3754:	321e0000 	andscc	r0, lr, #0
    3758:	43000001 	movwmi	r0, #1
    375c:	0000001b 	andeq	r0, r0, fp, lsl r0
    3760:	a5941f00 	ldrge	r1, [r4, #3840]	; 0xf00
    3764:	11310000 	teqne	r1, r0
    3768:	01200000 	teqeq	r0, r0
    376c:	00770551 	rsbseq	r0, r7, r1, asr r5
    3770:	201a8008 	andscs	r8, sl, r8
    3774:	76025001 	strvc	r5, [r2], -r1
    3778:	21000000 	mrscs	r0, (UNDEF: 0)
    377c:	0000013f 	andeq	r0, r0, pc, lsr r1
    3780:	0000a5a8 	andeq	sl, r0, r8, lsr #11
    3784:	0000001c 	andeq	r0, r0, ip, lsl r0
    3788:	6a1b2301 	bvs	6cc394 <__bss_end__+0x6c0064>
    378c:	01000001 	tsteq	r0, r1
    3790:	015f1b55 	cmpeq	pc, r5, asr fp	; <UNPREDICTABLE>
    3794:	54010000 	strpl	r0, [r1], #-0
    3798:	0001561c 	andeq	r5, r1, ip, lsl r6
    379c:	4b1b0100 	blmi	6c3ba4 <__bss_end__+0x6b7874>
    37a0:	01000001 	tsteq	r0, r1
    37a4:	01111956 	tsteq	r1, r6, asr r9
    37a8:	a5b40000 	ldrge	r0, [r4, #0]!
    37ac:	00100000 	andseq	r0, r0, r0
    37b0:	1a020000 	bne	837b8 <__bss_end__+0x77488>
    37b4:	0000070b 	andeq	r0, r0, fp, lsl #14
    37b8:	0001281b 	andeq	r2, r1, fp, lsl r8
    37bc:	1b550100 	blne	1543bc4 <__bss_end__+0x1537894>
    37c0:	0000011d 	andeq	r0, r0, sp, lsl r1
    37c4:	b41d5401 	ldrlt	r5, [sp], #-1025	; 0x401
    37c8:	040000a5 	streq	r0, [r0], #-165	; 0xa5
    37cc:	1e000000 	cdpne	0, 0, cr0, cr0, cr0, {0}
    37d0:	00000132 	andeq	r0, r0, r2, lsr r1
    37d4:	00001b56 	andeq	r1, r0, r6, asr fp
    37d8:	b41f0000 	ldrlt	r0, [pc], #-0	; 37e0 <_start-0x4820>
    37dc:	310000a5 	smlatbcc	r0, r5, r0, r0
    37e0:	20000011 	andcs	r0, r0, r1, lsl r0
    37e4:	31015101 	tstcc	r1, r1, lsl #2
    37e8:	02500120 	subseq	r0, r0, #32, 2
    37ec:	00000076 	andeq	r0, r0, r6, ror r0
    37f0:	d9040600 	stmdble	r4, {r9, sl}
    37f4:	22000000 	andcs	r0, r0, #0
    37f8:	000008f9 	strdeq	r0, [r0], -r9
    37fc:	00252701 	eoreq	r2, r5, r1, lsl #14
    3800:	62030000 	andvs	r0, r3, #0
    3804:	0f000007 	svceq	0x00000007
    3808:	01007872 	tsteq	r0, r2, ror r8
    380c:	00002527 	andeq	r2, r0, r7, lsr #10
    3810:	00760f00 	rsbseq	r0, r6, r0, lsl #30
    3814:	00252701 	eoreq	r2, r5, r1, lsl #14
    3818:	540e0000 	strpl	r0, [lr], #-0
    381c:	01000008 	tsteq	r0, r8
    3820:	00002c27 	andeq	r2, r0, r7, lsr #24
    3824:	000b1100 	andeq	r1, fp, r0, lsl #2
    3828:	28010000 	stmdacs	r1, {}	; <UNPREDICTABLE>
    382c:	0000002c 	andeq	r0, r0, ip, lsr #32
    3830:	07f52300 	ldrbeq	r2, [r5, r0, lsl #6]!
    3834:	34010000 	strcc	r0, [r1], #-0
    3838:	00000025 	andeq	r0, r0, r5, lsr #32
    383c:	0000a5c8 	andeq	sl, r0, r8, asr #11
    3840:	000001c8 	andeq	r0, r0, r8, asr #3
    3844:	0b1e9c01 	bleq	7aa850 <__bss_end__+0x79e520>
    3848:	a0130000 	andsge	r0, r3, r0
    384c:	01000005 	tsteq	r0, r5
    3850:	00072234 	andeq	r2, r7, r4, lsr r2
    3854:	001b6900 	andseq	r6, fp, r0, lsl #18
    3858:	08541300 	ldmdaeq	r4, {r8, r9, ip}^
    385c:	34010000 	strcc	r0, [r1], #-0
    3860:	00000025 	andeq	r0, r0, r5, lsr #32
    3864:	00001bae 	andeq	r1, r0, lr, lsr #23
    3868:	00787215 	rsbseq	r7, r8, r5, lsl r2
    386c:	00253501 	eoreq	r3, r5, r1, lsl #10
    3870:	55010000 	strpl	r0, [r1, #-0]
    3874:	01007316 	tsteq	r0, r6, lsl r3
    3878:	00002c3c 	andeq	r2, r0, ip, lsr ip
    387c:	001bcc00 	andseq	ip, fp, r0, lsl #24
    3880:	00751600 	rsbseq	r1, r5, r0, lsl #12
    3884:	00683f01 	rsbeq	r3, r8, r1, lsl #30
    3888:	1bdf0000 	blne	ff7c3890 <__bss_end__+0xff7b7560>
    388c:	6e160000 	cdpvs	0, 1, cr0, cr6, cr0, {0}
    3890:	2c400100 	stfcse	f0, [r0], {-0}
    3894:	f2000000 	vhadd.s8	d0, d0, d0
    3898:	1600001b 			; <UNDEFINED> instruction: 0x1600001b
    389c:	41010063 	tstmi	r1, r3, rrx
    38a0:	0000002c 	andeq	r0, r0, ip, lsr #32
    38a4:	00001c09 	andeq	r1, r0, r9, lsl #24
    38a8:	00072819 	andeq	r2, r7, r9, lsl r8
    38ac:	00a5dc00 	adceq	sp, r5, r0, lsl #24
    38b0:	00003400 	andeq	r3, r0, r0, lsl #8
    38b4:	3c380100 	ldfccs	f0, [r8], #-0
    38b8:	1a000008 	bne	38e0 <_start-0x4720>
    38bc:	0000074b 	andeq	r0, r0, fp, asr #14
    38c0:	00001c33 	andeq	r1, r0, r3, lsr ip
    38c4:	0007421c 	andeq	r4, r7, ip, lsl r2
    38c8:	381b0000 	ldmdacc	fp, {}	; <UNPREDICTABLE>
    38cc:	01000007 	tsteq	r0, r7
    38d0:	a5dc1d55 	ldrbge	r1, [ip, #3413]	; 0xd55
    38d4:	00340000 	eorseq	r0, r4, r0
    38d8:	561e0000 	ldrpl	r0, [lr], -r0
    38dc:	51000007 	tstpl	r0, r7
    38e0:	2400001c 	strcs	r0, [r0], #-28
    38e4:	0000a5e0 	andeq	sl, r0, r0, ror #11
    38e8:	00001147 	andeq	r1, r0, r7, asr #2
    38ec:	00a5ec25 	adceq	lr, r5, r5, lsr #24
    38f0:	00115200 	andseq	r5, r1, r0, lsl #4
    38f4:	00083100 	andeq	r3, r8, r0, lsl #2
    38f8:	50012000 	andpl	r2, r1, r0
    38fc:	00007502 	andeq	r7, r0, r2, lsl #10
    3900:	00a5f824 	adceq	pc, r5, r4, lsr #16
    3904:	00114700 	andseq	r4, r1, r0, lsl #14
    3908:	17000000 	strne	r0, [r0, -r0]
    390c:	0000a618 	andeq	sl, r0, r8, lsl r6
    3910:	00000004 	andeq	r0, r0, r4
    3914:	00000859 	andeq	r0, r0, r9, asr r8
    3918:	0008a626 	andeq	sl, r8, r6, lsr #12
    391c:	2c3c0100 	ldfcss	f0, [ip], #-0
    3920:	6f000000 	svcvs	0x00000000
    3924:	0000001c 	andeq	r0, r0, ip, lsl r0
    3928:	00011119 	andeq	r1, r1, r9, lsl r1
    392c:	00a62400 	adceq	r2, r6, r0, lsl #8
    3930:	00001000 	andeq	r1, r0, r0
    3934:	92440100 	subls	r0, r4, #0, 2
    3938:	1a000008 	bne	3960 <_start-0x46a0>
    393c:	00000128 	andeq	r0, r0, r8, lsr #2
    3940:	00001c82 	andeq	r1, r0, r2, lsl #25
    3944:	00011d1a 	andeq	r1, r1, sl, lsl sp
    3948:	001ca700 	andseq	sl, ip, r0, lsl #14
    394c:	a6241d00 	strtge	r1, [r4], -r0, lsl #26
    3950:	00040000 	andeq	r0, r4, r0
    3954:	321e0000 	andscc	r0, lr, #0
    3958:	ba000001 	blt	3964 <_start-0x469c>
    395c:	0000001c 	andeq	r0, r0, ip, lsl r0
    3960:	01111900 	tsteq	r1, r0, lsl #18
    3964:	a6440000 	strbge	r0, [r4], -r0
    3968:	00100000 	andseq	r0, r0, r0
    396c:	48010000 	stmdami	r1, {}	; <UNPREDICTABLE>
    3970:	000008cb 	andeq	r0, r0, fp, asr #17
    3974:	0001281a 	andeq	r2, r1, sl, lsl r8
    3978:	001ccd00 	andseq	ip, ip, r0, lsl #26
    397c:	011d1a00 	tsteq	sp, r0, lsl #20
    3980:	1ce00000 	stclne	0, cr0, [r0]
    3984:	441d0000 	ldrmi	r0, [sp], #-0
    3988:	040000a6 	streq	r0, [r0], #-166	; 0xa6
    398c:	1e000000 	cdpne	0, 0, cr0, cr0, cr0, {0}
    3990:	00000132 	andeq	r0, r0, r2, lsr r1
    3994:	00001cf3 	strdeq	r1, [r0], -r3
    3998:	11190000 	tstne	r9, r0
    399c:	68000001 	stmdavs	r0, {r0}
    39a0:	100000a6 	andne	r0, r0, r6, lsr #1
    39a4:	01000000 	mrseq	r0, (UNDEF: 0)
    39a8:	0009044b 	andeq	r0, r9, fp, asr #8
    39ac:	01281a00 	teqeq	r8, r0, lsl #20
    39b0:	1d060000 	stcne	0, cr0, [r6, #-0]
    39b4:	1d1a0000 	ldcne	0, cr0, [sl, #-0]
    39b8:	19000001 	stmdbne	r0, {r0}
    39bc:	1d00001d 	stcne	0, cr0, [r0, #-116]	; 0xffffff8c
    39c0:	0000a668 	andeq	sl, r0, r8, ror #12
    39c4:	00000004 	andeq	r0, r0, r4
    39c8:	0001321e 	andeq	r3, r1, lr, lsl r2
    39cc:	001d2c00 	andseq	r2, sp, r0, lsl #24
    39d0:	19000000 	stmdbne	r0, {}	; <UNPREDICTABLE>
    39d4:	00000111 	andeq	r0, r0, r1, lsl r1
    39d8:	0000a68c 	andeq	sl, r0, ip, lsl #13
    39dc:	00000010 	andeq	r0, r0, r0, lsl r0
    39e0:	093d4e01 	ldmdbeq	sp!, {r0, r9, sl, fp, lr}
    39e4:	281a0000 	ldmdacs	sl, {}	; <UNPREDICTABLE>
    39e8:	3f000001 	svccc	0x00000001
    39ec:	1a00001d 	bne	3a68 <_start-0x4598>
    39f0:	0000011d 	andeq	r0, r0, sp, lsl r1
    39f4:	00001d52 	andeq	r1, r0, r2, asr sp
    39f8:	00a68c1d 	adceq	r8, r6, sp, lsl ip
    39fc:	00000400 	andeq	r0, r0, r0, lsl #8
    3a00:	01321e00 	teqeq	r2, r0, lsl #28
    3a04:	1d650000 	stclne	0, cr0, [r5, #-0]
    3a08:	00000000 	andeq	r0, r0, r0
    3a0c:	00011119 	andeq	r1, r1, r9, lsl r1
    3a10:	00a6b000 	adceq	fp, r6, r0
    3a14:	00001000 	andeq	r1, r0, r0
    3a18:	76510100 	ldrbvc	r0, [r1], -r0, lsl #2
    3a1c:	1a000009 	bne	3a48 <_start-0x45b8>
    3a20:	00000128 	andeq	r0, r0, r8, lsr #2
    3a24:	00001d78 	andeq	r1, r0, r8, ror sp
    3a28:	00011d1a 	andeq	r1, r1, sl, lsl sp
    3a2c:	001d8b00 	andseq	r8, sp, r0, lsl #22
    3a30:	a6b01d00 	ldrtge	r1, [r0], r0, lsl #26
    3a34:	00040000 	andeq	r0, r4, r0
    3a38:	321e0000 	andscc	r0, lr, #0
    3a3c:	9e000001 	cdpls	0, 0, cr0, cr0, cr1, {0}
    3a40:	0000001d 	andeq	r0, r0, sp, lsl r0
    3a44:	01111900 	tsteq	r1, r0, lsl #18
    3a48:	a6d40000 	ldrbge	r0, [r4], r0
    3a4c:	00100000 	andseq	r0, r0, r0
    3a50:	54010000 	strpl	r0, [r1], #-0
    3a54:	000009af 	andeq	r0, r0, pc, lsr #19
    3a58:	0001281a 	andeq	r2, r1, sl, lsl r8
    3a5c:	001db100 	andseq	fp, sp, r0, lsl #2
    3a60:	011d1a00 	tsteq	sp, r0, lsl #20
    3a64:	1dc40000 	stclne	0, cr0, [r4]
    3a68:	d41d0000 	ldrle	r0, [sp], #-0
    3a6c:	040000a6 	streq	r0, [r0], #-166	; 0xa6
    3a70:	1e000000 	cdpne	0, 0, cr0, cr0, cr0, {0}
    3a74:	00000132 	andeq	r0, r0, r2, lsr r1
    3a78:	00001dd7 	ldrdeq	r1, [r0], -r7
    3a7c:	11190000 	tstne	r9, r0
    3a80:	f8000001 			; <UNDEFINED> instruction: 0xf8000001
    3a84:	100000a6 	andne	r0, r0, r6, lsr #1
    3a88:	01000000 	mrseq	r0, (UNDEF: 0)
    3a8c:	0009e857 	andeq	lr, r9, r7, asr r8
    3a90:	01281a00 	teqeq	r8, r0, lsl #20
    3a94:	1dea0000 	stclne	0, cr0, [sl]
    3a98:	1d1a0000 	ldcne	0, cr0, [sl, #-0]
    3a9c:	fd000001 	stc2	0, cr0, [r0, #-4]
    3aa0:	1d00001d 	stcne	0, cr0, [r0, #-116]	; 0xffffff8c
    3aa4:	0000a6f8 	strdeq	sl, [r0], -r8
    3aa8:	00000004 	andeq	r0, r0, r4
    3aac:	0001321e 	andeq	r3, r1, lr, lsl r2
    3ab0:	001e1000 	andseq	r1, lr, r0
    3ab4:	19000000 	stmdbne	r0, {}	; <UNPREDICTABLE>
    3ab8:	00000111 	andeq	r0, r0, r1, lsl r1
    3abc:	0000a71c 	andeq	sl, r0, ip, lsl r7
    3ac0:	00000010 	andeq	r0, r0, r0, lsl r0
    3ac4:	0a1d5a01 	beq	75a2d0 <__bss_end__+0x74dfa0>
    3ac8:	281a0000 	ldmdacs	sl, {}	; <UNPREDICTABLE>
    3acc:	23000001 	movwcs	r0, #1
    3ad0:	2700001e 	smladcs	r0, lr, r0, r0
    3ad4:	0000011d 	andeq	r0, r0, sp, lsl r1
    3ad8:	00a71c1d 	adceq	r1, r7, sp, lsl ip
    3adc:	00000400 	andeq	r0, r0, r0, lsl #8
    3ae0:	01321e00 	teqeq	r2, r0, lsl #28
    3ae4:	1e360000 	cdpne	0, 3, cr0, cr6, cr0, {0}
    3ae8:	00000000 	andeq	r0, r0, r0
    3aec:	00072819 	andeq	r2, r7, r9, lsl r8
    3af0:	00a73c00 	adceq	r3, r7, r0, lsl #24
    3af4:	00003400 	andeq	r3, r0, r0, lsl #8
    3af8:	81610100 	cmnhi	r1, r0, lsl #2
    3afc:	2700000a 	strcs	r0, [r0, -sl]
    3b00:	0000074b 	andeq	r0, r0, fp, asr #14
    3b04:	0007421a 	andeq	r4, r7, sl, lsl r2
    3b08:	001e4900 	andseq	r4, lr, r0, lsl #18
    3b0c:	07381a00 	ldreq	r1, [r8, -r0, lsl #20]!
    3b10:	1e690000 	cdpne	0, 6, cr0, cr9, cr0, {0}
    3b14:	3c1d0000 	ldccc	0, cr0, [sp], {-0}
    3b18:	340000a7 	strcc	r0, [r0], #-167	; 0xa7
    3b1c:	1e000000 	cdpne	0, 0, cr0, cr0, cr0, {0}
    3b20:	00000756 	andeq	r0, r0, r6, asr r7
    3b24:	00001e87 	andeq	r1, r0, r7, lsl #29
    3b28:	00a74024 	adceq	r4, r7, r4, lsr #32
    3b2c:	00114700 	andseq	r4, r1, r0, lsl #14
    3b30:	a74c2500 	strbge	r2, [ip, -r0, lsl #10]
    3b34:	11520000 	cmpne	r2, r0
    3b38:	0a760000 	beq	1d83b40 <__bss_end__+0x1d77810>
    3b3c:	01200000 	teqeq	r0, r0
    3b40:	00750250 	rsbseq	r0, r5, r0, asr r2
    3b44:	a7582400 	ldrbge	r2, [r8, -r0, lsl #8]
    3b48:	11470000 	mrsne	r0, (UNDEF: 71)
    3b4c:	00000000 	andeq	r0, r0, r0
    3b50:	00a64025 	adceq	r4, r6, r5, lsr #32
    3b54:	00115200 	andseq	r5, r1, r0, lsl #4
    3b58:	000a9500 	andeq	r9, sl, r0, lsl #10
    3b5c:	50012000 	andpl	r2, r1, r0
    3b60:	00007502 	andeq	r7, r0, r2, lsl #10
    3b64:	00a66025 	adceq	r6, r6, r5, lsr #32
    3b68:	00115200 	andseq	r5, r1, r0, lsl #4
    3b6c:	000aa900 	andeq	sl, sl, r0, lsl #18
    3b70:	50012000 	andpl	r2, r1, r0
    3b74:	00007502 	andeq	r7, r0, r2, lsl #10
    3b78:	00a68425 	adceq	r8, r6, r5, lsr #8
    3b7c:	00115200 	andseq	r5, r1, r0, lsl #4
    3b80:	000abd00 	andeq	fp, sl, r0, lsl #26
    3b84:	50012000 	andpl	r2, r1, r0
    3b88:	00007502 	andeq	r7, r0, r2, lsl #10
    3b8c:	00a6a825 	adceq	sl, r6, r5, lsr #16
    3b90:	00115200 	andseq	r5, r1, r0, lsl #4
    3b94:	000ad100 	andeq	sp, sl, r0, lsl #2
    3b98:	50012000 	andpl	r2, r1, r0
    3b9c:	00007502 	andeq	r7, r0, r2, lsl #10
    3ba0:	00a6cc25 	adceq	ip, r6, r5, lsr #24
    3ba4:	00115200 	andseq	r5, r1, r0, lsl #4
    3ba8:	000ae500 	andeq	lr, sl, r0, lsl #10
    3bac:	50012000 	andpl	r2, r1, r0
    3bb0:	00007502 	andeq	r7, r0, r2, lsl #10
    3bb4:	00a6f025 	adceq	pc, r6, r5, lsr #32
    3bb8:	00115200 	andseq	r5, r1, r0, lsl #4
    3bbc:	000af900 	andeq	pc, sl, r0, lsl #18
    3bc0:	50012000 	andpl	r2, r1, r0
    3bc4:	00007502 	andeq	r7, r0, r2, lsl #10
    3bc8:	00a71425 	adceq	r1, r7, r5, lsr #8
    3bcc:	00115200 	andseq	r5, r1, r0, lsl #4
    3bd0:	000b0d00 	andeq	r0, fp, r0, lsl #26
    3bd4:	50012000 	andpl	r2, r1, r0
    3bd8:	00007502 	andeq	r7, r0, r2, lsl #10
    3bdc:	00a7341f 	adceq	r3, r7, pc, lsl r4
    3be0:	00115200 	andseq	r5, r1, r0, lsl #4
    3be4:	50012000 	andpl	r2, r1, r0
    3be8:	00007502 	andeq	r7, r0, r2, lsl #10
    3bec:	080a2300 	stmdaeq	sl, {r8, r9, sp}
    3bf0:	6c010000 	stcvs	0, cr0, [r1], {-0}
    3bf4:	00000025 	andeq	r0, r0, r5, lsr #32
    3bf8:	0000a790 	muleq	r0, r0, r7
    3bfc:	00000090 	muleq	r0, r0, r0
    3c00:	0c029c01 	stceq	12, cr9, [r2], {1}
    3c04:	75140000 	ldrvc	r0, [r4, #-0]
    3c08:	226c0100 	rsbcs	r0, ip, #0, 2
    3c0c:	a5000007 	strge	r0, [r0, #-7]
    3c10:	1400001e 	strne	r0, [r0], #-30
    3c14:	00667562 	rsbeq	r7, r6, r2, ror #10
    3c18:	0c026c01 	stceq	12, cr6, [r2], {1}
    3c1c:	1ed90000 	cdpne	0, 13, cr0, cr9, cr0, {0}
    3c20:	8f130000 	svchi	0x00130000
    3c24:	01000007 	tsteq	r0, r7
    3c28:	0000686c 	andeq	r6, r0, ip, ror #16
    3c2c:	001f0d00 	andseq	r0, pc, r0, lsl #26
    3c30:	6e651400 	cdpvs	4, 6, cr1, cr5, cr0, {0}
    3c34:	6c010064 	stcvs	0, cr0, [r1], {100}	; 0x64
    3c38:	0000004f 	andeq	r0, r0, pc, asr #32
    3c3c:	00001f46 	andeq	r1, r0, r6, asr #30
    3c40:	0008b628 	andeq	fp, r8, r8, lsr #12
    3c44:	686c0100 	stmdavs	ip!, {r8}^
    3c48:	02000000 	andeq	r0, r0, #0
    3c4c:	72290091 	eorvc	r0, r9, #145	; 0x91
    3c50:	18000001 	stmdane	r0, {r0}
    3c54:	0500000c 	streq	r0, [r0, #-12]
    3c58:	00bdb403 	adcseq	fp, sp, r3, lsl #8
    3c5c:	00691600 	rsbeq	r1, r9, r0, lsl #12
    3c60:	00257001 	eoreq	r7, r5, r1
    3c64:	1f800000 	svcne	0x00800000
    3c68:	89260000 	stmdbhi	r6!, {}	; <UNPREDICTABLE>
    3c6c:	01000008 	tsteq	r0, r8
    3c70:	00004f71 	andeq	r4, r0, r1, ror pc
    3c74:	001f9f00 	andseq	r9, pc, r0, lsl #30
    3c78:	a7b02400 	ldrge	r2, [r0, r0, lsl #8]!
    3c7c:	11670000 	cmnne	r7, r0
    3c80:	c4250000 	strtgt	r0, [r5], #-0
    3c84:	6e0000a7 	cdpvs	0, 0, cr0, cr0, cr7, {5}
    3c88:	e2000011 	and	r0, r0, #17
    3c8c:	2000000b 	andcs	r0, r0, fp
    3c90:	08025301 	stmdaeq	r2, {r0, r8, r9, ip, lr}
    3c94:	5201206d 	andpl	r2, r1, #109	; 0x6d
    3c98:	bdb40305 	ldclt	3, cr0, [r4, #20]!
    3c9c:	01200000 	teqeq	r0, r0
    3ca0:	48030551 	stmdami	r3, {r0, r4, r6, r8, sl}
    3ca4:	200000be 	strhcs	r0, [r0], -lr
    3ca8:	03055001 	movweq	r5, #20481	; 0x5001
    3cac:	0000be2c 	andeq	fp, r0, ip, lsr #28
    3cb0:	a7c82400 	strbge	r2, [r8, r0, lsl #8]
    3cb4:	11840000 	orrne	r0, r4, r0
    3cb8:	e41f0000 	ldr	r0, [pc], #-0	; 3cc0 <_start-0x4340>
    3cbc:	620000a7 	andvs	r0, r0, #167	; 0xa7
    3cc0:	20000007 	andcs	r0, r0, r7
    3cc4:	7a025101 	bvc	980d0 <__bss_end__+0x8bda0>
    3cc8:	50012000 	andpl	r2, r1, r0
    3ccc:	00007802 	andeq	r7, r0, r2, lsl #16
    3cd0:	4f040600 	svcmi	0x00040600
    3cd4:	2a000000 	bcs	3cdc <_start-0x4324>
    3cd8:	00000090 	muleq	r0, r0, r0
    3cdc:	00000c18 	andeq	r0, r0, r8, lsl ip
    3ce0:	0000812b 	andeq	r8, r0, fp, lsr #2
    3ce4:	07001200 	streq	r1, [r0, -r0, lsl #4]
    3ce8:	00000c08 	andeq	r0, r0, r8, lsl #24
    3cec:	00089123 	andeq	r9, r8, r3, lsr #2
    3cf0:	25800100 	strcs	r0, [r0, #256]	; 0x100
    3cf4:	20000000 	andcs	r0, r0, r0
    3cf8:	7c0000a8 	stcvc	0, cr0, [r0], {168}	; 0xa8
    3cfc:	01000000 	mrseq	r0, (UNDEF: 0)
    3d00:	000ce49c 	muleq	ip, ip, r4
    3d04:	00751400 	rsbseq	r1, r5, r0, lsl #8
    3d08:	07228001 	streq	r8, [r2, -r1]!
    3d0c:	1fb20000 	svcne	0x00b20000
    3d10:	62140000 	andsvs	r0, r4, #0
    3d14:	01006675 	tsteq	r0, r5, ror r6
    3d18:	000c0280 	andeq	r0, ip, r0, lsl #5
    3d1c:	001fe600 	andseq	lr, pc, r0, lsl #12
    3d20:	078f1300 	streq	r1, [pc, r0, lsl #6]
    3d24:	81010000 	mrshi	r0, (UNDEF: 1)
    3d28:	00000068 	andeq	r0, r0, r8, rrx
    3d2c:	0000201a 	andeq	r2, r0, sl, lsl r0
    3d30:	0008b613 	andeq	fp, r8, r3, lsl r6
    3d34:	68810100 	stmvs	r1, {r8}
    3d38:	53000000 	movwpl	r0, #0
    3d3c:	29000020 	stmdbcs	r0, {r5}
    3d40:	00000172 	andeq	r0, r0, r2, ror r1
    3d44:	00000cf4 	strdeq	r0, [r0], -r4
    3d48:	bdc80305 	stcllt	3, cr0, [r8, #20]
    3d4c:	69160000 	ldmdbvs	r6, {}	; <UNPREDICTABLE>
    3d50:	25860100 	strcs	r0, [r6, #256]	; 0x100
    3d54:	87000000 	strhi	r0, [r0, -r0]
    3d58:	24000020 	strcs	r0, [r0], #-32
    3d5c:	0000a83c 	andeq	sl, r0, ip, lsr r8
    3d60:	00001167 	andeq	r1, r0, r7, ror #2
    3d64:	00a85025 	adceq	r5, r8, r5, lsr #32
    3d68:	00116e00 	andseq	r6, r1, r0, lsl #28
    3d6c:	000cc400 	andeq	ip, ip, r0, lsl #8
    3d70:	53012000 	movwpl	r2, #4096	; 0x1000
    3d74:	20830802 	addcs	r0, r3, r2, lsl #16
    3d78:	03055201 	movweq	r5, #20993	; 0x5201
    3d7c:	0000bdc8 	andeq	fp, r0, r8, asr #27
    3d80:	05510120 	ldrbeq	r0, [r1, #-288]	; 0x120
    3d84:	00be4803 	adcseq	r4, lr, r3, lsl #16
    3d88:	50012000 	andpl	r2, r1, r0
    3d8c:	be2c0305 	cdplt	3, 2, cr0, cr12, cr5, {0}
    3d90:	24000000 	strcs	r0, [r0], #-0
    3d94:	0000a854 	andeq	sl, r0, r4, asr r8
    3d98:	00001184 	andeq	r1, r0, r4, lsl #3
    3d9c:	00a8701f 	adceq	r7, r8, pc, lsl r0
    3da0:	00076200 	andeq	r6, r7, r0, lsl #4
    3da4:	51012000 	mrspl	r2, (UNDEF: 1)
    3da8:	20007802 	andcs	r7, r0, r2, lsl #16
    3dac:	77025001 	strvc	r5, [r2, -r1]
    3db0:	2a000000 	bcs	3db8 <_start-0x4248>
    3db4:	00000090 	muleq	r0, r0, r0
    3db8:	00000cf4 	strdeq	r0, [r0], -r4
    3dbc:	0000812b 	andeq	r8, r0, fp, lsr #2
    3dc0:	07001400 	streq	r1, [r0, -r0, lsl #8]
    3dc4:	00000ce4 	andeq	r0, r0, r4, ror #25
    3dc8:	00084023 	andeq	r4, r8, r3, lsr #32
    3dcc:	d9930100 	ldmible	r3, {r8}
    3dd0:	9c000000 	stcls	0, cr0, [r0], {-0}
    3dd4:	c00000a8 	andgt	r0, r0, r8, lsr #1
    3dd8:	01000000 	mrseq	r0, (UNDEF: 0)
    3ddc:	000e149c 	muleq	lr, ip, r4
    3de0:	78741400 	ldmdavc	r4!, {sl, ip}^
    3de4:	4f930100 	svcmi	0x00930100
    3de8:	a6000000 	strge	r0, [r0], -r0
    3dec:	14000020 	strne	r0, [r0], #-32
    3df0:	01007872 	tsteq	r0, r2, ror r8
    3df4:	00004f93 	muleq	r0, r3, pc	; <UNPREDICTABLE>
    3df8:	0020c700 	eoreq	ip, r0, r0, lsl #14
    3dfc:	05d91300 	ldrbeq	r1, [r9, #768]	; 0x300
    3e00:	93010000 	movwls	r0, #4096	; 0x1000
    3e04:	00000068 	andeq	r0, r0, r8, rrx
    3e08:	000020e8 	andeq	r2, r0, r8, ror #1
    3e0c:	0007d928 	andeq	sp, r7, r8, lsr #18
    3e10:	68930100 	ldmvs	r3, {r8}
    3e14:	02000000 	andeq	r0, r0, #0
    3e18:	6d2c0091 	stcvs	0, cr0, [ip, #-580]!	; 0xfffffdbc
    3e1c:	01007a68 	tsteq	r0, r8, ror #20
    3e20:	00002c9b 	muleq	r0, fp, ip
    3e24:	b9270000 	stmdblt	r7!, {}	; <UNPREDICTABLE>
    3e28:	082a2629 	stmdaeq	sl!, {r0, r3, r5, r9, sl, sp}
    3e2c:	9c010000 	stcls	0, cr0, [r1], {-0}
    3e30:	0000002c 	andeq	r0, r0, ip, lsr #32
    3e34:	00002106 	andeq	r2, r0, r6, lsl #2
    3e38:	00017229 	andeq	r7, r1, r9, lsr #4
    3e3c:	000e2400 	andeq	r2, lr, r0, lsl #8
    3e40:	e0030500 	and	r0, r3, r0, lsl #10
    3e44:	170000bd 			; <UNDEFINED> instruction: 0x170000bd
    3e48:	0000a8c4 	andeq	sl, r0, r4, asr #17
    3e4c:	00000008 	andeq	r0, r0, r8
    3e50:	00000d91 	muleq	r0, r1, sp
    3e54:	006e692d 	rsbeq	r6, lr, sp, lsr #18
    3e58:	002c9701 	eoreq	r9, ip, r1, lsl #14
    3e5c:	00010000 	andeq	r0, r1, r0
    3e60:	00a8bc25 	adceq	fp, r8, r5, lsr #24
    3e64:	00118b00 	andseq	r8, r1, r0, lsl #22
    3e68:	000da500 	andeq	sl, sp, r0, lsl #10
    3e6c:	50012000 	andpl	r2, r1, r0
    3e70:	00007602 	andeq	r7, r0, r2, lsl #12
    3e74:	00a8c425 	adceq	ip, r8, r5, lsr #8
    3e78:	00119c00 	andseq	r9, r1, r0, lsl #24
    3e7c:	000db900 	andeq	fp, sp, r0, lsl #18
    3e80:	50012000 	andpl	r2, r1, r0
    3e84:	00007802 	andeq	r7, r0, r2, lsl #16
    3e88:	00a8d825 	adceq	sp, r8, r5, lsr #16
    3e8c:	00113100 	andseq	r3, r1, r0, lsl #2
    3e90:	000dd200 	andeq	sp, sp, r0, lsl #4
    3e94:	51012000 	mrspl	r2, (UNDEF: 1)
    3e98:	01203101 	teqeq	r0, r1, lsl #2
    3e9c:	00760250 	rsbseq	r0, r6, r0, asr r2
    3ea0:	a91c2400 	ldmdbge	ip, {sl, sp}
    3ea4:	11670000 	cmnne	r7, r0
    3ea8:	30250000 	eorcc	r0, r5, r0
    3eac:	6e0000a9 	cdpvs	0, 0, cr0, cr0, cr9, {5}
    3eb0:	0a000011 	beq	3efc <_start-0x4104>
    3eb4:	2000000e 	andcs	r0, r0, lr
    3eb8:	08025301 	stmdaeq	r2, {r0, r8, r9, ip, lr}
    3ebc:	5201209d 	andpl	r2, r1, #157	; 0x9d
    3ec0:	bde00305 	stcllt	3, cr0, [r0, #20]!
    3ec4:	01200000 	teqeq	r0, r0
    3ec8:	48030551 	stmdami	r3, {r0, r4, r6, r8, sl}
    3ecc:	200000be 	strhcs	r0, [r0], -lr
    3ed0:	03055001 	movweq	r5, #20481	; 0x5001
    3ed4:	0000be5c 	andeq	fp, r0, ip, asr lr
    3ed8:	a9342400 	ldmdbge	r4!, {sl, sp}
    3edc:	11840000 	orrne	r0, r4, r0
    3ee0:	2a000000 	bcs	3ee8 <_start-0x4118>
    3ee4:	00000090 	muleq	r0, r0, r0
    3ee8:	00000e24 	andeq	r0, r0, r4, lsr #28
    3eec:	0000812b 	andeq	r8, r0, fp, lsr #2
    3ef0:	07001300 	streq	r1, [r0, -r0, lsl #6]
    3ef4:	00000e14 	andeq	r0, r0, r4, lsl lr
    3ef8:	00081d23 	andeq	r1, r8, r3, lsr #26
    3efc:	25a90100 	strcs	r0, [r9, #256]!	; 0x100
    3f00:	5c000000 	stcpl	0, cr0, [r0], {-0}
    3f04:	3c0000a9 	stccc	0, cr0, [r0], {169}	; 0xa9
    3f08:	01000000 	mrseq	r0, (UNDEF: 0)
    3f0c:	000ecc9c 	muleq	lr, ip, ip
    3f10:	05a01300 	streq	r1, [r0, #768]!	; 0x300
    3f14:	a9010000 	stmdbge	r1, {}	; <UNPREDICTABLE>
    3f18:	00000722 	andeq	r0, r0, r2, lsr #14
    3f1c:	00002134 	andeq	r2, r0, r4, lsr r1
    3f20:	73657216 	cmnvc	r5, #1610612737	; 0x60000001
    3f24:	25aa0100 	strcs	r0, [sl, #256]!	; 0x100
    3f28:	55000000 	strpl	r0, [r0, #-0]
    3f2c:	29000021 	stmdbcs	r0, {r0, r5}
    3f30:	00000172 	andeq	r0, r0, r2, ror r1
    3f34:	00000edc 	ldrdeq	r0, [r0], -ip
    3f38:	bdf40305 	ldcllt	3, cr0, [r4, #20]!
    3f3c:	68250000 	stmdavs	r5!, {}	; <UNPREDICTABLE>
    3f40:	620000a9 	andvs	r0, r0, #169	; 0xa9
    3f44:	8a000007 	bhi	3f68 <_start-0x4098>
    3f48:	2000000e 	andcs	r0, r0, lr
    3f4c:	09025101 	stmdbeq	r2, {r0, r8, ip, lr}
    3f50:	500120ff 	strdpl	r2, [r1], -pc	; <UNPREDICTABLE>
    3f54:	5001f303 	andpl	pc, r1, r3, lsl #6
    3f58:	a9742400 	ldmdbge	r4!, {sl, sp}^
    3f5c:	11670000 	cmnne	r7, r0
    3f60:	88250000 	stmdahi	r5!, {}	; <UNPREDICTABLE>
    3f64:	6e0000a9 	cdpvs	0, 0, cr0, cr0, cr9, {5}
    3f68:	c2000011 	andgt	r0, r0, #17
    3f6c:	2000000e 	andcs	r0, r0, lr
    3f70:	08025301 	stmdaeq	r2, {r0, r8, r9, ip, lr}
    3f74:	520120ac 	andpl	r2, r1, #172	; 0xac
    3f78:	bdf40305 	ldcllt	3, cr0, [r4, #20]!
    3f7c:	01200000 	teqeq	r0, r0
    3f80:	48030551 	stmdami	r3, {r0, r4, r6, r8, sl}
    3f84:	200000be 	strhcs	r0, [r0], -lr
    3f88:	03055001 	movweq	r5, #20481	; 0x5001
    3f8c:	0000bea0 	andeq	fp, r0, r0, lsr #29
    3f90:	a98c2400 	stmibge	ip, {sl, sp}
    3f94:	11840000 	orrne	r0, r4, r0
    3f98:	2a000000 	bcs	3fa0 <_start-0x4060>
    3f9c:	00000090 	muleq	r0, r0, r0
    3fa0:	00000edc 	ldrdeq	r0, [r0], -ip
    3fa4:	0000812b 	andeq	r8, r0, fp, lsr #2
    3fa8:	07000c00 	streq	r0, [r0, -r0, lsl #24]
    3fac:	00000ecc 	andeq	r0, r0, ip, asr #29
    3fb0:	00086112 	andeq	r6, r8, r2, lsl r1
    3fb4:	98b00100 	ldmls	r0!, {r8}
    3fb8:	2c0000a9 	stccs	0, cr0, [r0], {169}	; 0xa9
    3fbc:	01000000 	mrseq	r0, (UNDEF: 0)
    3fc0:	000f259c 	muleq	pc, ip, r5	; <UNPREDICTABLE>
    3fc4:	05a01300 	streq	r1, [r0, #768]!	; 0x300
    3fc8:	b0010000 	andlt	r0, r1, r0
    3fcc:	00000722 	andeq	r0, r0, r2, lsr #14
    3fd0:	00002168 	andeq	r2, r0, r8, ror #2
    3fd4:	67736d14 			; <UNDEFINED> instruction: 0x67736d14
    3fd8:	97b00100 	ldrls	r0, [r0, r0, lsl #2]!
    3fdc:	86000000 	strhi	r0, [r0], -r0
    3fe0:	1f000021 	svcne	0x00000021
    3fe4:	0000a9b0 			; <UNDEFINED> instruction: 0x0000a9b0
    3fe8:	00000176 	andeq	r0, r0, r6, ror r1
    3fec:	02500120 	subseq	r0, r0, #32, 2
    3ff0:	00000075 	andeq	r0, r0, r5, ror r0
    3ff4:	0005a523 	andeq	sl, r5, r3, lsr #10
    3ff8:	25b90100 	ldrcs	r0, [r9, #256]!	; 0x100
    3ffc:	c4000000 	strgt	r0, [r0], #-0
    4000:	840000a9 	strhi	r0, [r0], #-169	; 0xa9
    4004:	01000000 	mrseq	r0, (UNDEF: 0)
    4008:	0010199c 	mulseq	r0, ip, r9
    400c:	05a01300 	streq	r1, [r0, #768]!	; 0x300
    4010:	b9010000 	stmdblt	r1, {}	; <UNPREDICTABLE>
    4014:	00000722 	andeq	r0, r0, r2, lsr #14
    4018:	000021a4 	andeq	r2, r0, r4, lsr #3
    401c:	746d662e 	strbtvc	r6, [sp], #-1582	; 0x62e
    4020:	97b90100 	ldrls	r0, [r9, r0, lsl #2]!
    4024:	02000000 	andeq	r0, r0, #0
    4028:	152f7491 	strne	r7, [pc, #-1169]!	; 3b9f <_start-0x4461>
    402c:	00667562 	rsbeq	r7, r6, r2, ror #10
    4030:	1019ba01 	andsne	fp, r9, r1, lsl #20
    4034:	91030000 	mrsls	r0, (UNDEF: 3)
    4038:	6f187c9c 	svcvs	0x00187c9c
    403c:	01000004 	tsteq	r0, r4
    4040:	000106bc 			; <UNDEFINED> instruction: 0x000106bc
    4044:	98910300 	ldmls	r1, {r8, r9}
    4048:	7a73167c 	bvc	1cc9a40 <__bss_end__+0x1cbd710>
    404c:	25be0100 	ldrcs	r0, [lr, #256]!	; 0x100
    4050:	d0000000 	andle	r0, r0, r0
    4054:	29000021 	stmdbcs	r0, {r0, r5}
    4058:	00000172 	andeq	r0, r0, r2, ror r1
    405c:	0000103a 	andeq	r1, r0, sl, lsr r0
    4060:	be040305 	cdplt	3, 0, cr0, cr4, cr5, {0}
    4064:	ec250000 	stc	0, cr0, [r5], #-0
    4068:	ad0000a9 	stcge	0, cr0, [r0, #-676]	; 0xfffffd5c
    406c:	c0000011 	andgt	r0, r0, r1, lsl r0
    4070:	2000000f 	andcs	r0, r0, pc
    4074:	91025301 	tstls	r2, r1, lsl #6
    4078:	52012058 	andpl	r2, r1, #88	; 0x58
    407c:	06549103 	ldrbeq	r9, [r4], -r3, lsl #2
    4080:	03510120 	cmpeq	r1, #32, 2
    4084:	2001cc0a 	andcs	ip, r1, sl, lsl #24
    4088:	91035001 	tstls	r3, r1
    408c:	24007bfc 	strcs	r7, [r0], #-3068	; 0xbfc
    4090:	0000aa00 	andeq	sl, r0, r0, lsl #20
    4094:	00001167 	andeq	r1, r0, r7, ror #2
    4098:	00aa1425 	adceq	r1, sl, r5, lsr #8
    409c:	00116e00 	andseq	r6, r1, r0, lsl #28
    40a0:	000ff800 	andeq	pc, pc, r0, lsl #16
    40a4:	53012000 	movwpl	r2, #4096	; 0x1000
    40a8:	20c00802 	sbccs	r0, r0, r2, lsl #16
    40ac:	03055201 	movweq	r5, #20993	; 0x5201
    40b0:	0000be04 	andeq	fp, r0, r4, lsl #28
    40b4:	05510120 	ldrbeq	r0, [r1, #-288]	; 0x120
    40b8:	00be4803 	adcseq	r4, lr, r3, lsl #16
    40bc:	50012000 	andpl	r2, r1, r0
    40c0:	bed80305 	cdplt	3, 13, cr0, cr8, cr5, {0}
    40c4:	24000000 	strcs	r0, [r0], #-0
    40c8:	0000aa18 	andeq	sl, r0, r8, lsl sl
    40cc:	00001184 	andeq	r1, r0, r4, lsl #3
    40d0:	00aa241f 	adceq	r2, sl, pc, lsl r4
    40d4:	000ee100 	andeq	lr, lr, r0, lsl #2
    40d8:	51012000 	mrspl	r2, (UNDEF: 1)
    40dc:	7bfc9103 	blvc	fff284f0 <__bss_end__+0xfff1c1c0>
    40e0:	02500120 	subseq	r0, r0, #32, 2
    40e4:	00000075 	andeq	r0, r0, r5, ror r0
    40e8:	0000902a 	andeq	r9, r0, sl, lsr #32
    40ec:	00102a00 	andseq	r2, r0, r0, lsl #20
    40f0:	00813000 	addeq	r3, r1, r0
    40f4:	01cb0000 	biceq	r0, fp, r0
    40f8:	00902a00 	addseq	r2, r0, r0, lsl #20
    40fc:	103a0000 	eorsne	r0, sl, r0
    4100:	812b0000 	teqhi	fp, r0
    4104:	0e000000 	cdpeq	0, 0, cr0, cr0, cr0, {0}
    4108:	102a0700 	eorne	r0, sl, r0, lsl #14
    410c:	d2230000 	eorle	r0, r3, #0
    4110:	01000008 	tsteq	r0, r8
    4114:	000025c5 	andeq	r2, r0, r5, asr #11
    4118:	00aa4800 	adceq	r4, sl, r0, lsl #16
    411c:	00004c00 	andeq	r4, r0, r0, lsl #24
    4120:	1c9c0100 	ldfnes	f0, [ip], {0}
    4124:	14000011 	strne	r0, [r0], #-17
    4128:	c5010075 	strgt	r0, [r1, #-117]	; 0x75
    412c:	00000722 	andeq	r0, r0, r2, lsr #14
    4130:	0000220f 	andeq	r2, r0, pc, lsl #4
    4134:	66756214 			; <UNDEFINED> instruction: 0x66756214
    4138:	02c50100 	sbceq	r0, r5, #0, 2
    413c:	3000000c 	andcc	r0, r0, ip
    4140:	13000022 	movwne	r0, #34	; 0x22
    4144:	0000078f 	andeq	r0, r0, pc, lsl #15
    4148:	0068c501 	rsbeq	ip, r8, r1, lsl #10
    414c:	22510000 	subscs	r0, r1, #0
    4150:	65140000 	ldrvs	r0, [r4, #-0]
    4154:	0100646e 	tsteq	r0, lr, ror #8
    4158:	00004fc5 	andeq	r4, r0, r5, asr #31
    415c:	00227200 	eoreq	r7, r2, r0, lsl #4
    4160:	65721600 	ldrbvs	r1, [r2, #-1536]!	; 0x600
    4164:	c6010073 			; <UNDEFINED> instruction: 0xc6010073
    4168:	00000025 	andeq	r0, r0, r5, lsr #32
    416c:	00002293 	muleq	r0, r3, r2
    4170:	00017229 	andeq	r7, r1, r9, lsr #4
    4174:	00112c00 	andseq	r2, r1, r0, lsl #24
    4178:	14030500 	strne	r0, [r3], #-1280	; 0x500
    417c:	250000be 	strcs	r0, [r0, #-190]	; 0xbe
    4180:	0000aa5c 	andeq	sl, r0, ip, asr sl
    4184:	00000b1e 	andeq	r0, r0, lr, lsl fp
    4188:	000010da 	ldrdeq	r1, [r0], -sl
    418c:	03520120 	cmpeq	r2, #32, 2
    4190:	205201f3 	ldrshcs	r0, [r2], #-19	; 0xffffffed
    4194:	f3035101 	vrhadd.u8	d5, d3, d1
    4198:	01205101 	teqeq	r0, r1, lsl #2
    419c:	01f30350 	mvnseq	r0, r0, asr r3
    41a0:	7d022050 	stcvc	0, cr2, [r2, #-320]	; 0xfffffec0
    41a4:	ff090200 			; <UNDEFINED> instruction: 0xff090200
    41a8:	aa682400 	bge	1a0d1b0 <__bss_end__+0x1a00e80>
    41ac:	11670000 	cmnne	r7, r0
    41b0:	7c250000 	stcvc	0, cr0, [r5], #-0
    41b4:	6e0000aa 	cdpvs	0, 0, cr0, cr0, cr10, {5}
    41b8:	12000011 	andne	r0, r0, #17
    41bc:	20000011 	andcs	r0, r0, r1, lsl r0
    41c0:	08025301 	stmdaeq	r2, {r0, r8, r9, ip, lr}
    41c4:	520120c8 	andpl	r2, r1, #200	; 0xc8
    41c8:	be140305 	cdplt	3, 1, cr0, cr4, cr5, {0}
    41cc:	01200000 	teqeq	r0, r0
    41d0:	48030551 	stmdami	r3, {r0, r4, r6, r8, sl}
    41d4:	200000be 	strhcs	r0, [r0], -lr
    41d8:	03055001 	movweq	r5, #20481	; 0x5001
    41dc:	0000bea0 	andeq	fp, r0, r0, lsr #29
    41e0:	aa802400 	bge	fe00d1e8 <__bss_end__+0xfe000eb8>
    41e4:	11840000 	orrne	r0, r4, r0
    41e8:	2a000000 	bcs	41f0 <_start-0x3e10>
    41ec:	00000090 	muleq	r0, r0, r0
    41f0:	0000112c 	andeq	r1, r0, ip, lsr #2
    41f4:	0000812b 	andeq	r8, r0, fp, lsr #2
    41f8:	07001600 	streq	r1, [r0, -r0, lsl #12]
    41fc:	0000111c 	andeq	r1, r0, ip, lsl r1
    4200:	0008ab31 	andeq	sl, r8, r1, lsr fp
    4204:	47210600 	strmi	r0, [r1, -r0, lsl #12]!
    4208:	32000011 	andcc	r0, r0, #17
    420c:	0000002c 	andeq	r0, r0, ip, lsr #32
    4210:	00002c32 	andeq	r2, r0, r2, lsr ip
    4214:	d1330000 	teqle	r3, r0
    4218:	07000006 	streq	r0, [r0, -r6]
    421c:	00002c57 	andeq	r2, r0, r7, asr ip
    4220:	086e3400 	stmdaeq	lr!, {sl, ip, sp}^
    4224:	24060000 	strcs	r0, [r6], #-0
    4228:	00000025 	andeq	r0, r0, r5, lsr #32
    422c:	00001167 	andeq	r1, r0, r7, ror #2
    4230:	00002c32 	andeq	r2, r0, r2, lsr ip
    4234:	3c350000 	ldccc	0, cr0, [r5], #-0
    4238:	07000002 	streq	r0, [r0, -r2]
    423c:	045e341e 	ldrbeq	r3, [lr], #-1054	; 0x41e
    4240:	29070000 	stmdbcs	r7, {}	; <UNPREDICTABLE>
    4244:	00000025 	andeq	r0, r0, r5, lsr #32
    4248:	00001184 	andeq	r1, r0, r4, lsl #3
    424c:	00009732 	andeq	r9, r0, r2, lsr r7
    4250:	35002f00 	strcc	r2, [r0, #-3840]	; 0xf00
    4254:	000000df 	ldrdeq	r0, [r0], -pc	; <UNPREDICTABLE>
    4258:	e9316607 	ldmdb	r1!, {r0, r1, r2, r9, sl, sp, lr}
    425c:	06000008 	streq	r0, [r0], -r8
    4260:	00119c1d 	andseq	r9, r1, sp, lsl ip
    4264:	002c3200 	eoreq	r3, ip, r0, lsl #4
    4268:	31000000 	mrscc	r0, (UNDEF: 0)
    426c:	000008c3 	andeq	r0, r0, r3, asr #17
    4270:	11ad1c06 			; <UNDEFINED> instruction: 0x11ad1c06
    4274:	2c320000 	ldccs	0, cr0, [r2], #-0
    4278:	00000000 	andeq	r0, r0, r0
    427c:	00045b36 	andeq	r5, r4, r6, lsr fp
    4280:	25020800 	strcs	r0, [r2, #-2048]	; 0x800
    4284:	32000000 	andcc	r0, r0, #0
    4288:	0000008a 	andeq	r0, r0, sl, lsl #1
    428c:	00002532 	andeq	r2, r0, r2, lsr r5
    4290:	00973200 	addseq	r3, r7, r0, lsl #4
    4294:	06320000 	ldrteq	r0, [r2], -r0
    4298:	00000001 	andeq	r0, r0, r1
    429c:	0003ff00 	andeq	pc, r3, r0, lsl #30
    42a0:	22000400 	andcs	r0, r0, #0, 8
    42a4:	04000014 	streq	r0, [r0], #-20
    42a8:	00004701 	andeq	r4, r0, r1, lsl #14
    42ac:	0a6b0100 	beq	1ac46b4 <__bss_end__+0x1ab8384>
    42b0:	03fa0000 	mvnseq	r0, #0
    42b4:	aa940000 	bge	fe5042bc <__bss_end__+0xfe4f7f8c>
    42b8:	01540000 	cmpeq	r4, r0
    42bc:	13ff0000 	mvnsne	r0, #0
    42c0:	04020000 	streq	r0, [r2], #-0
    42c4:	746e6905 	strbtvc	r6, [lr], #-2309	; 0x905
    42c8:	07040300 	streq	r0, [r4, -r0, lsl #6]
    42cc:	000001af 	andeq	r0, r0, pc, lsr #3
    42d0:	09060103 	stmdbeq	r6, {r0, r1, r8}
    42d4:	03000001 	movweq	r0, #1
    42d8:	02020502 	andeq	r0, r2, #8388608	; 0x800000
    42dc:	04030000 	streq	r0, [r3], #-0
    42e0:	0001e205 	andeq	lr, r1, r5, lsl #4
    42e4:	05080300 	streq	r0, [r8, #-768]	; 0x300
    42e8:	000001dd 	ldrdeq	r0, [r0], -sp
    42ec:	07080103 	streq	r0, [r8, -r3, lsl #2]
    42f0:	03000001 	movweq	r0, #1
    42f4:	00ec0702 	rsceq	r0, ip, r2, lsl #14
    42f8:	04030000 	streq	r0, [r3], #-0
    42fc:	0001aa07 	andeq	sl, r1, r7, lsl #20
    4300:	07080300 	streq	r0, [r8, -r0, lsl #6]
    4304:	000001a5 	andeq	r0, r0, r5, lsr #3
    4308:	d4070403 	strle	r0, [r7], #-1027	; 0x403
    430c:	03000001 	movweq	r0, #1
    4310:	01100801 	tsteq	r0, r1, lsl #16
    4314:	01040000 	mrseq	r0, (UNDEF: 4)
    4318:	00b20c02 	adcseq	r0, r2, r2, lsl #24
    431c:	88050000 	stmdahi	r5, {}	; <UNPREDICTABLE>
    4320:	0000000a 	andeq	r0, r0, sl
    4324:	00097c05 	andeq	r7, r9, r5, lsl #24
    4328:	35050100 	strcc	r0, [r5, #-256]	; 0x100
    432c:	04000009 	streq	r0, [r0], #-9
    4330:	00098d05 	andeq	r8, r9, r5, lsl #26
    4334:	9c050500 	cfstr32ls	mvfx0, [r5], {-0}
    4338:	06000009 	streq	r0, [r0], -r9
    433c:	0009ab05 	andeq	sl, r9, r5, lsl #22
    4340:	3b050700 	blcc	145f48 <__bss_end__+0x139c18>
    4344:	0300000a 	movweq	r0, #10
    4348:	0009ba05 	andeq	fp, r9, r5, lsl #20
    434c:	06000200 	streq	r0, [r0], -r0, lsl #4
    4350:	000009ed 	andeq	r0, r0, sp, ror #19
    4354:	00791502 	rsbseq	r1, r9, r2, lsl #10
    4358:	c2070000 	andgt	r0, r7, #0
    435c:	01000000 	mrseq	r0, (UNDEF: 0)
    4360:	00aa9437 	adceq	r9, sl, r7, lsr r4
    4364:	00009c00 	andeq	r9, r0, r0, lsl #24
    4368:	c39c0100 	orrsgt	r0, ip, #0, 2
    436c:	08000001 	stmdaeq	r0, {r0}
    4370:	0000aa9c 	muleq	r0, ip, sl
    4374:	000003a8 	andeq	r0, r0, r8, lsr #7
    4378:	00aaa809 	adceq	sl, sl, r9, lsl #16
    437c:	0003af00 	andeq	sl, r3, r0, lsl #30
    4380:	0000f300 	andeq	pc, r0, r0, lsl #6
    4384:	51010a00 	tstpl	r1, r0, lsl #20
    4388:	010a3201 	tsteq	sl, r1, lsl #4
    438c:	003e0150 	eorseq	r0, lr, r0, asr r1
    4390:	00aab409 	adceq	fp, sl, r9, lsl #8
    4394:	0003af00 	andeq	sl, r3, r0, lsl #30
    4398:	00010b00 	andeq	r0, r1, r0, lsl #22
    439c:	51010a00 	tstpl	r1, r0, lsl #20
    43a0:	010a3201 	tsteq	sl, r1, lsl #4
    43a4:	003f0150 	eorseq	r0, pc, r0, asr r1	; <UNPREDICTABLE>
    43a8:	00aab808 	adceq	fp, sl, r8, lsl #16
    43ac:	0003a800 	andeq	sl, r3, r0, lsl #16
    43b0:	aac80900 	bge	ff2067b8 <__bss_end__+0xff1fa488>
    43b4:	03c50000 	biceq	r0, r5, #0
    43b8:	01280000 	teqeq	r8, r0
    43bc:	010a0000 	mrseq	r0, (UNDEF: 10)
    43c0:	00750250 	rsbseq	r0, r5, r0, asr r2
    43c4:	aad40900 	bge	ff5067cc <__bss_end__+0xff4fa49c>
    43c8:	03e60000 	mvneq	r0, #0
    43cc:	013c0000 	teqeq	ip, r0
    43d0:	010a0000 	mrseq	r0, (UNDEF: 10)
    43d4:	00750250 	rsbseq	r0, r5, r0, asr r2
    43d8:	aad80800 	bge	ff6063e0 <__bss_end__+0xff5fa0b0>
    43dc:	03a80000 			; <UNDEFINED> instruction: 0x03a80000
    43e0:	e4090000 	str	r0, [r9], #-0
    43e4:	e60000aa 	str	r0, [r0], -sl, lsr #1
    43e8:	58000003 	stmdapl	r0, {r0, r1}
    43ec:	0a000001 	beq	43f8 <_start-0x3c08>
    43f0:	30015101 	andcc	r5, r1, r1, lsl #2
    43f4:	aaf00900 	bge	ffc067fc <__bss_end__+0xffbfa4cc>
    43f8:	03e60000 	mvneq	r0, #0
    43fc:	016b0000 	cmneq	fp, r0
    4400:	010a0000 	mrseq	r0, (UNDEF: 10)
    4404:	00300151 	eorseq	r0, r0, r1, asr r1
    4408:	00aafc09 	adceq	pc, sl, r9, lsl #24
    440c:	0003e600 	andeq	lr, r3, r0, lsl #12
    4410:	00017e00 	andeq	r7, r1, r0, lsl #28
    4414:	51010a00 	tstpl	r1, r0, lsl #20
    4418:	09003601 	stmdbeq	r0, {r0, r9, sl, ip, sp}
    441c:	0000ab08 	andeq	sl, r0, r8, lsl #22
    4420:	000003e6 	andeq	r0, r0, r6, ror #7
    4424:	00000191 	muleq	r0, r1, r1
    4428:	0151010a 	cmpeq	r1, sl, lsl #2
    442c:	14090033 	strne	r0, [r9], #-51	; 0x33
    4430:	e60000ab 	str	r0, [r0], -fp, lsr #1
    4434:	a6000003 	strge	r0, [r0], -r3
    4438:	0a000001 	beq	4444 <_start-0x3bbc>
    443c:	0a035101 	beq	d8848 <__bss_end__+0xcc518>
    4440:	0900010e 	stmdbeq	r0, {r1, r2, r3, r8}
    4444:	0000ab20 	andeq	sl, r0, r0, lsr #22
    4448:	000003e6 	andeq	r0, r0, r6, ror #7
    444c:	000001b9 			; <UNDEFINED> instruction: 0x000001b9
    4450:	0151010a 	cmpeq	r1, sl, lsl #2
    4454:	24080033 	strcs	r0, [r8], #-51	; 0x33
    4458:	a80000ab 	stmdage	r0, {r0, r1, r3, r5, r7}
    445c:	00000003 	andeq	r0, r0, r3
    4460:	0009440b 	andeq	r4, r9, fp, lsl #8
    4464:	25570100 	ldrbcs	r0, [r7, #-256]	; 0x100
    4468:	30000000 	andcc	r0, r0, r0
    446c:	1c0000ab 	stcne	0, cr0, [r0], {171}	; 0xab
    4470:	01000000 	mrseq	r0, (UNDEF: 0)
    4474:	0001e69c 	muleq	r1, ip, r6
    4478:	ab400800 	blge	1006480 <__bss_end__+0xffa150>
    447c:	03c50000 	biceq	r0, r5, #0
    4480:	0b000000 	bleq	4488 <_start-0x3b78>
    4484:	00000820 	andeq	r0, r0, r0, lsr #16
    4488:	00255d01 	eoreq	r5, r5, r1, lsl #26
    448c:	ab4c0000 	blge	1304494 <__bss_end__+0x12f8164>
    4490:	00280000 	eoreq	r0, r8, r0
    4494:	9c010000 	stcls	0, cr0, [r1], {-0}
    4498:	00000212 	andeq	r0, r0, r2, lsl r2
    449c:	00ab5408 	adceq	r5, fp, r8, lsl #8
    44a0:	0001c300 	andeq	ip, r1, r0, lsl #6
    44a4:	ab680800 	blge	1a064ac <__bss_end__+0x19fa17c>
    44a8:	03c50000 	biceq	r0, r5, #0
    44ac:	0b000000 	bleq	44b4 <_start-0x3b4c>
    44b0:	000009f9 	strdeq	r0, [r0], -r9
    44b4:	00256401 	eoreq	r6, r5, r1, lsl #8
    44b8:	ab740000 	blge	1d044c0 <__bss_end__+0x1cf8190>
    44bc:	001c0000 	andseq	r0, ip, r0
    44c0:	9c010000 	stcls	0, cr0, [r1], {-0}
    44c4:	00000235 	andeq	r0, r0, r5, lsr r2
    44c8:	00ab8408 	adceq	r8, fp, r8, lsl #8
    44cc:	0003c500 	andeq	ip, r3, r0, lsl #10
    44d0:	01070000 	mrseq	r0, (UNDEF: 7)
    44d4:	01000006 	tsteq	r0, r6
    44d8:	00ab906a 	adceq	r9, fp, sl, rrx
    44dc:	00002c00 	andeq	r2, r0, r0, lsl #24
    44e0:	719c0100 	orrsvc	r0, ip, r0, lsl #2
    44e4:	0c000002 	stceq	0, cr0, [r0], {2}
    44e8:	6a010063 	bvs	4467c <__bss_end__+0x3834c>
    44ec:	0000002c 	andeq	r0, r0, ip, lsr #32
    44f0:	000022b1 			; <UNDEFINED> instruction: 0x000022b1
    44f4:	00ab9c08 	adceq	r9, fp, r8, lsl #24
    44f8:	00021200 	andeq	r1, r2, r0, lsl #4
    44fc:	abb40d00 	blge	fed07904 <__bss_end__+0xfecfb5d4>
    4500:	03e60000 	mvneq	r0, #0
    4504:	010a0000 	mrseq	r0, (UNDEF: 10)
    4508:	00740251 	rsbseq	r0, r4, r1, asr r2
    450c:	620b0000 	andvs	r0, fp, #0
    4510:	01000009 	tsteq	r0, r9
    4514:	00002574 	andeq	r2, r0, r4, ror r5
    4518:	00abbc00 	adceq	fp, fp, r0, lsl #24
    451c:	00000c00 	andeq	r0, r0, r0, lsl #24
    4520:	949c0100 	ldrls	r0, [ip], #256	; 0x100
    4524:	08000002 	stmdaeq	r0, {r1}
    4528:	0000abc4 	andeq	sl, r0, r4, asr #23
    452c:	000001c3 	andeq	r0, r0, r3, asr #3
    4530:	0aa70b00 	beq	fe9c7138 <__bss_end__+0xfe9bae08>
    4534:	78010000 	stmdavc	r1, {}	; <UNPREDICTABLE>
    4538:	00000025 	andeq	r0, r0, r5, lsr #32
    453c:	0000abc8 	andeq	sl, r0, r8, asr #23
    4540:	00000020 	andeq	r0, r0, r0, lsr #32
    4544:	02c09c01 	sbceq	r9, r0, #256	; 0x100
    4548:	d0080000 	andle	r0, r8, r0
    454c:	710000ab 	smlatbvc	r0, fp, r0, r0
    4550:	08000002 	stmdaeq	r0, {r1}
    4554:	0000abdc 	ldrdeq	sl, [r0], -ip
    4558:	000001e6 	andeq	r0, r0, r6, ror #3
    455c:	0a130e00 	beq	4c7d64 <__bss_end__+0x4bba34>
    4560:	16010000 	strne	r0, [r1], -r0
    4564:	000002d1 	ldrdeq	r0, [r0], -r1
    4568:	b25c0305 	subslt	r0, ip, #335544320	; 0x14000000
    456c:	040f0000 	streq	r0, [pc], #-0	; 4574 <_start-0x3a8c>
    4570:	000002d7 	ldrdeq	r0, [r0], -r7
    4574:	00002c10 	andeq	r2, r0, r0, lsl ip
    4578:	0a070e00 	beq	1c7d80 <__bss_end__+0x1bba50>
    457c:	17010000 	strne	r0, [r1, -r0]
    4580:	000002d1 	ldrdeq	r0, [r0], -r1
    4584:	b22c0305 	eorlt	r0, ip, #335544320	; 0x14000000
    4588:	180e0000 	stmdane	lr, {}	; <UNPREDICTABLE>
    458c:	01000009 	tsteq	r0, r9
    4590:	0002d11a 	andeq	sp, r2, sl, lsl r1
    4594:	48030500 	stmdami	r3, {r8, sl}
    4598:	0e0000b2 	mcreq	0, 0, r0, cr0, cr2, {5}
    459c:	000009c9 	andeq	r0, r0, r9, asr #19
    45a0:	02d11b01 	sbcseq	r1, r1, #1024	; 0x400
    45a4:	03050000 	movweq	r0, #20480	; 0x5000
    45a8:	0000b234 	andeq	fp, r0, r4, lsr r2
    45ac:	0009de0e 	andeq	sp, r9, lr, lsl #28
    45b0:	d11c0100 	tstle	ip, r0, lsl #2
    45b4:	05000002 	streq	r0, [r0, #-2]
    45b8:	00b23803 	adcseq	r3, r2, r3, lsl #16
    45bc:	0a790e00 	beq	1e47dc4 <__bss_end__+0x1e3ba94>
    45c0:	1d010000 	stcne	0, cr0, [r1, #-0]
    45c4:	000002d1 	ldrdeq	r0, [r0], -r1
    45c8:	b23c0305 	eorslt	r0, ip, #335544320	; 0x14000000
    45cc:	090e0000 	stmdbeq	lr, {}	; <UNPREDICTABLE>
    45d0:	01000009 	tsteq	r0, r9
    45d4:	0002d11e 	andeq	sp, r2, lr, lsl r1
    45d8:	58030500 	stmdapl	r3, {r8, sl}
    45dc:	0e0000b2 	mcreq	0, 0, r0, cr0, cr2, {5}
    45e0:	00000a98 	muleq	r0, r8, sl
    45e4:	02d11f01 	sbcseq	r1, r1, #1, 30
    45e8:	03050000 	movweq	r0, #20480	; 0x5000
    45ec:	0000b244 	andeq	fp, r0, r4, asr #4
    45f0:	0009260e 	andeq	r2, r9, lr, lsl #12
    45f4:	d1200100 	teqle	r0, r0, lsl #2
    45f8:	05000002 	streq	r0, [r0, #-2]
    45fc:	00b25403 	adcseq	r5, r2, r3, lsl #8
    4600:	0a5c0e00 	beq	1707e08 <__bss_end__+0x16fbad8>
    4604:	21010000 	mrscs	r0, (UNDEF: 1)
    4608:	000002d1 	ldrdeq	r0, [r0], -r1
    460c:	b2500305 	subslt	r0, r0, #335544320	; 0x14000000
    4610:	520e0000 	andpl	r0, lr, #0
    4614:	01000009 	tsteq	r0, r9
    4618:	0002d122 	andeq	sp, r2, r2, lsr #2
    461c:	30030500 	andcc	r0, r3, r0, lsl #10
    4620:	0e0000b2 	mcreq	0, 0, r0, cr0, cr2, {5}
    4624:	00000a2b 	andeq	r0, r0, fp, lsr #20
    4628:	02d12301 	sbcseq	r2, r1, #67108864	; 0x4000000
    462c:	03050000 	movweq	r0, #20480	; 0x5000
    4630:	0000b24c 	andeq	fp, r0, ip, asr #4
    4634:	000a1b0e 	andeq	r1, sl, lr, lsl #22
    4638:	d1240100 	teqle	r4, r0, lsl #2
    463c:	05000002 	streq	r0, [r0, #-2]
    4640:	00b24003 	adcseq	r4, r2, r3
    4644:	09701100 	ldmdbeq	r0!, {r8, ip}^
    4648:	8a030000 	bhi	c4650 <__bss_end__+0xb8320>
    464c:	000a4a12 	andeq	r4, sl, r2, lsl sl
    4650:	c5190200 	ldrgt	r0, [r9, #-512]	; 0x200
    4654:	13000003 	movwne	r0, #3
    4658:	0000002c 	andeq	r0, r0, ip, lsr #32
    465c:	0000b213 	andeq	fp, r0, r3, lsl r2
    4660:	b7140000 	ldrlt	r0, [r4, -r0]
    4664:	0300000a 	movweq	r0, #10
    4668:	00002ca9 	andeq	r2, r0, r9, lsr #25
    466c:	0003da00 	andeq	sp, r3, r0, lsl #20
    4670:	03da1300 	bicseq	r1, sl, #0, 6
    4674:	0f000000 	svceq	0x00000000
    4678:	0003e004 	andeq	lr, r3, r4
    467c:	03e51500 	mvneq	r1, #0, 10
    4680:	12160000 	andsne	r0, r6, #0
    4684:	000009d8 	ldrdeq	r0, [r0], -r8
    4688:	03fc9d03 	mvnseq	r9, #3, 26	; 0xc0
    468c:	fc130000 	ldc2	0, cr0, [r3], {-0}
    4690:	13000003 	movwne	r0, #3
    4694:	0000002c 	andeq	r0, r0, ip, lsr #32
    4698:	e5040f00 	str	r0, [r4, #-3840]	; 0xf00
    469c:	00000003 	andeq	r0, r0, r3
    46a0:	00000821 	andeq	r0, r0, r1, lsr #16
    46a4:	15500004 	ldrbne	r0, [r0, #-4]
    46a8:	01040000 	mrseq	r0, (UNDEF: 4)
    46ac:	00000047 	andeq	r0, r0, r7, asr #32
    46b0:	000b0701 	andeq	r0, fp, r1, lsl #14
    46b4:	0003fa00 	andeq	pc, r3, r0, lsl #20
    46b8:	00ac4c00 	adceq	r4, ip, r0, lsl #24
    46bc:	00056800 	andeq	r6, r5, r0, lsl #16
    46c0:	00150400 	andseq	r0, r5, r0, lsl #8
    46c4:	07080200 	streq	r0, [r8, -r0, lsl #4]
    46c8:	000001a5 	andeq	r0, r0, r5, lsr #3
    46cc:	af070402 	svcge	0x00070402
    46d0:	02000001 	andeq	r0, r0, #1
    46d4:	01090601 	tsteq	r9, r1, lsl #12
    46d8:	02020000 	andeq	r0, r2, #0
    46dc:	00020205 	andeq	r0, r2, r5, lsl #4
    46e0:	05040200 	streq	r0, [r4, #-512]	; 0x200
    46e4:	000001e2 	andeq	r0, r0, r2, ror #3
    46e8:	dd050802 	stcle	8, cr0, [r5, #-8]
    46ec:	02000001 	andeq	r0, r0, #1
    46f0:	01070801 	tsteq	r7, r1, lsl #16
    46f4:	02020000 	andeq	r0, r2, #0
    46f8:	0000ec07 	andeq	lr, r0, r7, lsl #24
    46fc:	07040200 	streq	r0, [r4, -r0, lsl #4]
    4700:	000001aa 	andeq	r0, r0, sl, lsr #3
    4704:	69050403 	stmdbvs	r5, {r0, r1, sl}
    4708:	0200746e 	andeq	r7, r0, #1845493760	; 0x6e000000
    470c:	01d40704 	bicseq	r0, r4, r4, lsl #14
    4710:	01020000 	mrseq	r0, (UNDEF: 2)
    4714:	00011008 	andeq	r1, r1, r8
    4718:	02010400 	andeq	r0, r1, #0, 8
    471c:	0000b20c 	andeq	fp, r0, ip, lsl #4
    4720:	0a880500 	beq	fe205b28 <__bss_end__+0xfe1f97f8>
    4724:	05000000 	streq	r0, [r0, #-0]
    4728:	0000097c 	andeq	r0, r0, ip, ror r9
    472c:	09350501 	ldmdbeq	r5!, {r0, r8, sl}
    4730:	05040000 	streq	r0, [r4, #-0]
    4734:	0000098d 	andeq	r0, r0, sp, lsl #19
    4738:	099c0505 	ldmibeq	ip, {r0, r2, r8, sl}
    473c:	05060000 	streq	r0, [r6, #-0]
    4740:	000009ab 	andeq	r0, r0, fp, lsr #19
    4744:	0a3b0507 	beq	ec5b68 <__bss_end__+0xeb9838>
    4748:	05030000 	streq	r0, [r3, #-0]
    474c:	000009ba 			; <UNDEFINED> instruction: 0x000009ba
    4750:	ed060002 	stc	0, cr0, [r6, #-8]
    4754:	02000009 	andeq	r0, r0, #9
    4758:	00007915 	andeq	r7, r0, r5, lsl r9
    475c:	08e90700 	stmiaeq	r9!, {r8, r9, sl}^
    4760:	3f010000 	svccc	0x00010000
    4764:	0000ac4c 	andeq	sl, r0, ip, asr #24
    4768:	000000d4 	ldrdeq	r0, [r0], -r4
    476c:	01339c01 	teqeq	r3, r1, lsl #24
    4770:	70080000 	andvc	r0, r8, r0
    4774:	01006e69 	tsteq	r0, r9, ror #28
    4778:	00002c3f 	andeq	r2, r0, pc, lsr ip
    477c:	0022cf00 	eoreq	ip, r2, r0, lsl #30
    4780:	0b430900 	bleq	10c6b88 <__bss_end__+0x10ba858>
    4784:	47010000 	strmi	r0, [r1, -r0]
    4788:	00000133 	andeq	r0, r0, r3, lsr r1
    478c:	000022ed 	andeq	r2, r0, sp, ror #5
    4790:	000c2b09 	andeq	r2, ip, r9, lsl #22
    4794:	2c490100 	stfcse	f0, [r9], {-0}
    4798:	42000000 	andmi	r0, r0, #0
    479c:	09000023 	stmdbeq	r0, {r0, r1, r5}
    47a0:	00000bd6 	ldrdeq	r0, [r0], -r6
    47a4:	002c5701 	eoreq	r5, ip, r1, lsl #14
    47a8:	250e0000 	strcs	r0, [lr, #-0]
    47ac:	e00a0000 	and	r0, sl, r0
    47b0:	e00000ac 	and	r0, r0, ip, lsr #1
    47b4:	22000007 	andcs	r0, r0, #7
    47b8:	0b000001 	bleq	47c4 <_start-0x383c>
    47bc:	75025001 	strvc	r5, [r2, #-1]
    47c0:	140c0000 	strne	r0, [ip], #-0
    47c4:	010000ad 	smlatbeq	r0, sp, r0, r0
    47c8:	0b000008 	bleq	47f0 <_start-0x3810>
    47cc:	75025001 	strvc	r5, [r2, #-1]
    47d0:	0d000000 	stceq	0, cr0, [r0, #-0]
    47d4:	00013904 	andeq	r3, r1, r4, lsl #18
    47d8:	002c0e00 	eoreq	r0, ip, r0, lsl #28
    47dc:	fb070000 	blx	1c47e6 <__bss_end__+0x1b84b6>
    47e0:	0100000b 	tsteq	r0, fp
    47e4:	00ad2060 	adceq	r2, sp, r0, rrx
    47e8:	00003800 	andeq	r3, r0, r0, lsl #16
    47ec:	969c0100 	ldrls	r0, [ip], r0, lsl #2
    47f0:	08000001 	stmdaeq	r0, {r0}
    47f4:	006e6970 	rsbeq	r6, lr, r0, ror r9
    47f8:	002c6001 	eoreq	r6, ip, r1
    47fc:	253e0000 	ldrcs	r0, [lr, #-0]!
    4800:	43090000 	movwmi	r0, #36864	; 0x9000
    4804:	0100000b 	tsteq	r0, fp
    4808:	00013367 	andeq	r3, r1, r7, ror #6
    480c:	00255f00 	eoreq	r5, r5, r0, lsl #30
    4810:	0bd60900 	bleq	ff586c18 <__bss_end__+0xff57a8e8>
    4814:	68010000 	stmdavs	r1, {}	; <UNPREDICTABLE>
    4818:	0000002c 	andeq	r0, r0, ip, lsr #32
    481c:	00002595 	muleq	r0, r5, r5
    4820:	00ad500c 	adceq	r5, sp, ip
    4824:	00080100 	andeq	r0, r8, r0, lsl #2
    4828:	51010b00 	tstpl	r1, r0, lsl #22
    482c:	01f33107 	mvnseq	r3, r7, lsl #2
    4830:	241a4f50 	ldrcs	r4, [sl], #-3920	; 0xf50
    4834:	fa070000 	blx	1c483c <__bss_end__+0x1b850c>
    4838:	0100000a 	tsteq	r0, sl
    483c:	00ad587b 	adceq	r5, sp, fp, ror r8
    4840:	00003800 	andeq	r3, r0, r0, lsl #16
    4844:	ee9c0100 	fmle	f0, f4, f0
    4848:	08000001 	stmdaeq	r0, {r0}
    484c:	006e6970 	rsbeq	r6, lr, r0, ror r9
    4850:	002c7b01 	eoreq	r7, ip, r1, lsl #22
    4854:	25d50000 	ldrbcs	r0, [r5]
    4858:	43090000 	movwmi	r0, #36864	; 0x9000
    485c:	0100000b 	tsteq	r0, fp
    4860:	00013381 	andeq	r3, r1, r1, lsl #7
    4864:	0025f600 	eoreq	pc, r5, r0, lsl #12
    4868:	0bd60900 	bleq	ff586c70 <__bss_end__+0xff57a940>
    486c:	82010000 	andhi	r0, r1, #0
    4870:	0000002c 	andeq	r0, r0, ip, lsr #32
    4874:	0000262c 	andeq	r2, r0, ip, lsr #12
    4878:	00ad880c 	adceq	r8, sp, ip, lsl #16
    487c:	00080100 	andeq	r0, r8, r0, lsl #2
    4880:	51010b00 	tstpl	r1, r0, lsl #22
    4884:	01f33107 	mvnseq	r3, r7, lsl #2
    4888:	241a4f50 	ldrcs	r4, [sl], #-3920	; 0xf50
    488c:	c3070000 	movwgt	r0, #28672	; 0x7000
    4890:	01000008 	tsteq	r0, r8
    4894:	00ad9095 	umlaleq	r9, sp, r5, r0
    4898:	0000cc00 	andeq	ip, r0, r0, lsl #24
    489c:	649c0100 	ldrvs	r0, [ip], #256	; 0x100
    48a0:	08000002 	stmdaeq	r0, {r1}
    48a4:	006e6970 	rsbeq	r6, lr, r0, ror r9
    48a8:	002c9501 	eoreq	r9, ip, r1, lsl #10
    48ac:	266c0000 	strbtcs	r0, [ip], -r0
    48b0:	43090000 	movwmi	r0, #36864	; 0x9000
    48b4:	0100000b 	tsteq	r0, fp
    48b8:	0001339b 	muleq	r1, fp, r3
    48bc:	00268a00 	eoreq	r8, r6, r0, lsl #20
    48c0:	0c2b0900 	stceq	9, cr0, [fp], #-0
    48c4:	9d010000 	stcls	0, cr0, [r1, #-0]
    48c8:	0000002c 	andeq	r0, r0, ip, lsr #32
    48cc:	000026df 	ldrdeq	r2, [r0], -pc	; <UNPREDICTABLE>
    48d0:	000bd609 	andeq	sp, fp, r9, lsl #12
    48d4:	2cab0100 	stfcss	f0, [fp]
    48d8:	ab000000 	blge	48e0 <_start-0x3720>
    48dc:	0a000028 	beq	4984 <_start-0x367c>
    48e0:	0000ae24 	andeq	sl, r0, r4, lsr #28
    48e4:	000007e0 	andeq	r0, r0, r0, ror #15
    48e8:	00000253 	andeq	r0, r0, r3, asr r2
    48ec:	0250010b 	subseq	r0, r0, #-1073741822	; 0xc0000002
    48f0:	0c000075 	stceq	0, cr0, [r0], {117}	; 0x75
    48f4:	0000ae50 	andeq	sl, r0, r0, asr lr
    48f8:	00000801 	andeq	r0, r0, r1, lsl #16
    48fc:	0250010b 	subseq	r0, r0, #-1073741822	; 0xc0000002
    4900:	00000075 	andeq	r0, r0, r5, ror r0
    4904:	00086e0f 	andeq	r6, r8, pc, lsl #28
    4908:	64b30100 	ldrtvs	r0, [r3], #256	; 0x100
    490c:	5c000000 	stcpl	0, cr0, [r0], {-0}
    4910:	4c0000ae 	stcmi	0, cr0, [r0], {174}	; 0xae
    4914:	01000000 	mrseq	r0, (UNDEF: 0)
    4918:	0002ac9c 	muleq	r2, ip, ip
    491c:	69700800 	ldmdbvs	r0!, {fp}^
    4920:	b301006e 	movwlt	r0, #4206	; 0x106e
    4924:	0000002c 	andeq	r0, r0, ip, lsr #32
    4928:	000028c9 	andeq	r2, r0, r9, asr #17
    492c:	01007610 	tsteq	r0, r0, lsl r6
    4930:	00002cb9 			; <UNDEFINED> instruction: 0x00002cb9
    4934:	00292100 	eoreq	r2, r9, r0, lsl #2
    4938:	ae7c1100 	rpwgee	f1, f4, f0
    493c:	07e00000 	strbeq	r0, [r0, r0]!
    4940:	8c110000 	ldchi	0, cr0, [r1], {-0}
    4944:	e00000ae 	and	r0, r0, lr, lsr #1
    4948:	00000007 	andeq	r0, r0, r7
    494c:	0008ab07 	andeq	sl, r8, r7, lsl #22
    4950:	a8c50100 	stmiage	r5, {r8}^
    4954:	240000ae 	strcs	r0, [r0], #-174	; 0xae
    4958:	01000000 	mrseq	r0, (UNDEF: 0)
    495c:	0002fc9c 	muleq	r2, ip, ip
    4960:	69700800 	ldmdbvs	r0!, {fp}^
    4964:	c501006e 	strgt	r0, [r1, #-110]	; 0x6e
    4968:	0000002c 	andeq	r0, r0, ip, lsr #32
    496c:	00002957 	andeq	r2, r0, r7, asr r9
    4970:	01007608 	tsteq	r0, r8, lsl #12
    4974:	00002cc5 	andeq	r2, r0, r5, asr #25
    4978:	00299100 	eoreq	r9, r9, r0, lsl #2
    497c:	aec00a00 	vdivge.f32	s1, s0, s0
    4980:	013e0000 	teqeq	lr, r0
    4984:	02f20000 	rscseq	r0, r2, #0
    4988:	010b0000 	mrseq	r0, (UNDEF: 11)
    498c:	01f30350 	mvnseq	r0, r0, asr r3
    4990:	c8110050 	ldmdagt	r1, {r4, r6}
    4994:	960000ae 	strls	r0, [r0], -lr, lsr #1
    4998:	00000001 	andeq	r0, r0, r1
    499c:	000a4a07 	andeq	r4, sl, r7, lsl #20
    49a0:	ccd10100 	ldfgte	f0, [r1], {0}
    49a4:	d80000ae 	stmdale	r0, {r1, r2, r3, r5, r7}
    49a8:	01000000 	mrseq	r0, (UNDEF: 0)
    49ac:	0003819c 	muleq	r3, ip, r1
    49b0:	69700800 	ldmdbvs	r0!, {fp}^
    49b4:	d101006e 	tstle	r1, lr, rrx
    49b8:	0000002c 	andeq	r0, r0, ip, lsr #32
    49bc:	000029cb 	andeq	r2, r0, fp, asr #19
    49c0:	000be812 	andeq	lr, fp, r2, lsl r8
    49c4:	b2d10100 	sbcslt	r0, r1, #0, 2
    49c8:	e9000000 	stmdb	r0, {}	; <UNPREDICTABLE>
    49cc:	09000029 	stmdbeq	r0, {r0, r3, r5}
    49d0:	00000b43 	andeq	r0, r0, r3, asr #22
    49d4:	0133d901 	teqeq	r3, r1, lsl #18
    49d8:	2a0a0000 	bcs	2849e0 <__bss_end__+0x2786b0>
    49dc:	2b090000 	blcs	2449e4 <__bss_end__+0x2386b4>
    49e0:	0100000c 	tsteq	r0, ip
    49e4:	00002cda 	ldrdeq	r2, [r0], -sl
    49e8:	002a5f00 	eoreq	r5, sl, r0, lsl #30
    49ec:	0bd60900 	bleq	ff586df4 <__bss_end__+0xff57aac4>
    49f0:	e8010000 	stmda	r1, {}	; <UNPREDICTABLE>
    49f4:	0000002c 	andeq	r0, r0, ip, lsr #32
    49f8:	00002c2b 	andeq	r2, r0, fp, lsr #24
    49fc:	00af680a 	adceq	r6, pc, sl, lsl #16
    4a00:	0007e000 	andeq	lr, r7, r0
    4a04:	00037000 	andeq	r7, r3, r0
    4a08:	50010b00 	andpl	r0, r1, r0, lsl #22
    4a0c:	00007602 	andeq	r7, r0, r2, lsl #12
    4a10:	00af980c 	adceq	r9, pc, ip, lsl #16
    4a14:	00080100 	andeq	r0, r8, r0, lsl #2
    4a18:	50010b00 	andpl	r0, r1, r0, lsl #22
    4a1c:	00007602 	andeq	r7, r0, r2, lsl #12
    4a20:	0aee1300 	beq	ffb89628 <__bss_end__+0xffb7d2f8>
    4a24:	05010000 	streq	r0, [r1, #-0]
    4a28:	00006401 	andeq	r6, r0, r1, lsl #8
    4a2c:	00afa400 	adceq	sl, pc, r0, lsl #8
    4a30:	00002c00 	andeq	r2, r0, r0, lsl #24
    4a34:	b59c0100 	ldrlt	r0, [ip, #256]	; 0x100
    4a38:	14000003 	strne	r0, [r0], #-3
    4a3c:	00000af1 	strdeq	r0, [r0], -r1
    4a40:	2c010501 	cfstr32cs	mvfx0, [r1], {1}
    4a44:	5c000000 	stcpl	0, cr0, [r0], {-0}
    4a48:	1100002c 	tstne	r0, ip, lsr #32
    4a4c:	0000afb4 			; <UNDEFINED> instruction: 0x0000afb4
    4a50:	000007e0 	andeq	r0, r0, r0, ror #15
    4a54:	0b861500 	bleq	fe189e5c <__bss_end__+0xfe17db2c>
    4a58:	14010000 	strne	r0, [r1], #-0
    4a5c:	00afd001 	adceq	sp, pc, r1
    4a60:	00008400 	andeq	r8, r0, r0, lsl #8
    4a64:	799c0100 	ldmibvc	ip, {r8}
    4a68:	16000004 	strne	r0, [r0], -r4
    4a6c:	006e6970 	rsbeq	r6, lr, r0, ror r9
    4a70:	2c011401 	cfstrscs	mvf1, [r1], {1}
    4a74:	7d000000 	stcvc	0, cr0, [r0, #-0]
    4a78:	1700002c 	strne	r0, [r0, -ip, lsr #32]
    4a7c:	00000b15 	andeq	r0, r0, r5, lsl fp
    4a80:	2c012601 	stccs	6, cr2, [r1], {1}
    4a84:	a9000000 	stmdbge	r0, {}	; <UNPREDICTABLE>
    4a88:	1800002c 	stmdane	r0, {r2, r3, r5}
    4a8c:	0000afec 	andeq	sl, r0, ip, ror #31
    4a90:	0000001c 	andeq	r0, r0, ip, lsl r0
    4a94:	0000041b 	andeq	r0, r0, fp, lsl r4
    4a98:	000bd617 	andeq	sp, fp, r7, lsl r6
    4a9c:	011d0100 	tsteq	sp, r0, lsl #2
    4aa0:	0000002c 	andeq	r0, r0, ip, lsr #32
    4aa4:	00002cc7 	andeq	r2, r0, r7, asr #25
    4aa8:	00aff811 	adceq	pc, pc, r1, lsl r8	; <UNPREDICTABLE>
    4aac:	0007e000 	andeq	lr, r7, r0
    4ab0:	b0081100 	andlt	r1, r8, r0, lsl #2
    4ab4:	08010000 	stmdaeq	r1, {}	; <UNPREDICTABLE>
    4ab8:	18000000 	stmdane	r0, {}	; <UNPREDICTABLE>
    4abc:	0000b00c 	andeq	fp, r0, ip
    4ac0:	00000020 	andeq	r0, r0, r0, lsr #32
    4ac4:	0000044b 	andeq	r0, r0, fp, asr #8
    4ac8:	000bd617 	andeq	sp, fp, r7, lsl r6
    4acc:	01210100 	teqeq	r1, r0, lsl #2
    4ad0:	0000002c 	andeq	r0, r0, ip, lsr #32
    4ad4:	00002ce5 	andeq	r2, r0, r5, ror #25
    4ad8:	00b01811 	adcseq	r1, r0, r1, lsl r8
    4adc:	0007e000 	andeq	lr, r7, r0
    4ae0:	b02c1100 	eorlt	r1, ip, r0, lsl #2
    4ae4:	08010000 	stmdaeq	r1, {}	; <UNPREDICTABLE>
    4ae8:	11000000 	mrsne	r0, (UNDEF: 0)
    4aec:	0000afe4 	andeq	sl, r0, r4, ror #31
    4af0:	0000081d 	andeq	r0, r0, sp, lsl r8
    4af4:	00b03011 	adcseq	r3, r0, r1, lsl r0
    4af8:	00081d00 	andeq	r1, r8, r0, lsl #26
    4afc:	b03c1100 	eorslt	r1, ip, r0, lsl #2
    4b00:	07e00000 	strbeq	r0, [r0, r0]!
    4b04:	48110000 	ldmdami	r1, {}	; <UNPREDICTABLE>
    4b08:	010000b0 	strheq	r0, [r0, -r0]
    4b0c:	11000008 	tstne	r0, r8
    4b10:	0000b04c 	andeq	fp, r0, ip, asr #32
    4b14:	0000081d 	andeq	r0, r0, sp, lsl r8
    4b18:	0c151500 	cfldr32eq	mvfx1, [r5], {-0}
    4b1c:	31010000 	mrscc	r0, (UNDEF: 1)
    4b20:	00b05401 	adcseq	r5, r0, r1, lsl #8
    4b24:	00008400 	andeq	r8, r0, r0, lsl #8
    4b28:	3d9c0100 	ldfccs	f0, [ip]
    4b2c:	16000005 	strne	r0, [r0], -r5
    4b30:	006e6970 	rsbeq	r6, lr, r0, ror r9
    4b34:	2c013101 	stfcss	f3, [r1], {1}
    4b38:	03000000 	movweq	r0, #0
    4b3c:	1700002d 	strne	r0, [r0, -sp, lsr #32]
    4b40:	00000b15 	andeq	r0, r0, r5, lsl fp
    4b44:	2c014201 	sfmcs	f4, 4, [r1], {1}
    4b48:	2f000000 	svccs	0x00000000
    4b4c:	1800002d 	stmdane	r0, {r0, r2, r3, r5}
    4b50:	0000b070 	andeq	fp, r0, r0, ror r0
    4b54:	0000001c 	andeq	r0, r0, ip, lsl r0
    4b58:	000004df 	ldrdeq	r0, [r0], -pc	; <UNPREDICTABLE>
    4b5c:	000bd617 	andeq	sp, fp, r7, lsl r6
    4b60:	01390100 	teqeq	r9, r0, lsl #2
    4b64:	0000002c 	andeq	r0, r0, ip, lsr #32
    4b68:	00002d4d 	andeq	r2, r0, sp, asr #26
    4b6c:	00b07c11 	adcseq	r7, r0, r1, lsl ip
    4b70:	0007e000 	andeq	lr, r7, r0
    4b74:	b08c1100 	addlt	r1, ip, r0, lsl #2
    4b78:	08010000 	stmdaeq	r1, {}	; <UNPREDICTABLE>
    4b7c:	18000000 	stmdane	r0, {}	; <UNPREDICTABLE>
    4b80:	0000b090 	muleq	r0, r0, r0
    4b84:	00000020 	andeq	r0, r0, r0, lsr #32
    4b88:	0000050f 	andeq	r0, r0, pc, lsl #10
    4b8c:	000bd617 	andeq	sp, fp, r7, lsl r6
    4b90:	013d0100 	teqeq	sp, r0, lsl #2
    4b94:	0000002c 	andeq	r0, r0, ip, lsr #32
    4b98:	00002d6b 	andeq	r2, r0, fp, ror #26
    4b9c:	00b09c11 	adcseq	r9, r0, r1, lsl ip
    4ba0:	0007e000 	andeq	lr, r7, r0
    4ba4:	b0b01100 	adcslt	r1, r0, r0, lsl #2
    4ba8:	08010000 	stmdaeq	r1, {}	; <UNPREDICTABLE>
    4bac:	11000000 	mrsne	r0, (UNDEF: 0)
    4bb0:	0000b068 	andeq	fp, r0, r8, rrx
    4bb4:	0000081d 	andeq	r0, r0, sp, lsl r8
    4bb8:	00b0b411 	adcseq	fp, r0, r1, lsl r4
    4bbc:	00081d00 	andeq	r1, r8, r0, lsl #26
    4bc0:	b0c01100 	sbclt	r1, r0, r0, lsl #2
    4bc4:	07e00000 	strbeq	r0, [r0, r0]!
    4bc8:	cc110000 	ldcgt	0, cr0, [r1], {-0}
    4bcc:	010000b0 	strheq	r0, [r0, -r0]
    4bd0:	11000008 	tstne	r0, r8
    4bd4:	0000b0d0 	ldrdeq	fp, [r0], -r0
    4bd8:	0000081d 	andeq	r0, r0, sp, lsl r8
    4bdc:	0abd1300 	beq	fef497e4 <__bss_end__+0xfef3d4b4>
    4be0:	4c010000 	stcmi	0, cr0, [r1], {-0}
    4be4:	00006401 	andeq	r6, r0, r1, lsl #8
    4be8:	00b0d800 	adcseq	sp, r0, r0, lsl #16
    4bec:	00008400 	andeq	r8, r0, r0, lsl #8
    4bf0:	e39c0100 	orrs	r0, ip, #0, 2
    4bf4:	16000005 	strne	r0, [r0], -r5
    4bf8:	006e6970 	rsbeq	r6, lr, r0, ror r9
    4bfc:	2c014c01 	stccs	12, cr4, [r1], {1}
    4c00:	89000000 	stmdbhi	r0, {}	; <UNPREDICTABLE>
    4c04:	1800002d 	stmdane	r0, {r0, r2, r3, r5}
    4c08:	0000b0f4 	strdeq	fp, [r0], -r4
    4c0c:	00000024 	andeq	r0, r0, r4, lsr #32
    4c10:	00000597 	muleq	r0, r7, r5
    4c14:	000b2c17 	andeq	r2, fp, r7, lsl ip
    4c18:	01530100 	cmpeq	r3, r0, lsl #2
    4c1c:	0000002c 	andeq	r0, r0, ip, lsr #32
    4c20:	00002dcb 	andeq	r2, r0, fp, asr #27
    4c24:	00b10011 	adcseq	r0, r1, r1, lsl r0
    4c28:	0007e000 	andeq	lr, r7, r0
    4c2c:	b1101100 	tstlt	r0, r0, lsl #2
    4c30:	081d0000 	ldmdaeq	sp, {}	; <UNPREDICTABLE>
    4c34:	18000000 	stmdane	r0, {}	; <UNPREDICTABLE>
    4c38:	0000b118 	andeq	fp, r0, r8, lsl r1
    4c3c:	0000002c 	andeq	r0, r0, ip, lsr #32
    4c40:	000005d0 	ldrdeq	r0, [r0], -r0	; <UNPREDICTABLE>
    4c44:	000b2c17 	andeq	r2, fp, r7, lsl ip
    4c48:	01560100 	cmpeq	r6, r0, lsl #2
    4c4c:	0000002c 	andeq	r0, r0, ip, lsr #32
    4c50:	00002de5 	andeq	r2, r0, r5, ror #27
    4c54:	00b12411 	adcseq	r2, r1, r1, lsl r4
    4c58:	0007e000 	andeq	lr, r7, r0
    4c5c:	b1301100 	teqlt	r0, r0, lsl #2
    4c60:	081d0000 	ldmdaeq	sp, {}	; <UNPREDICTABLE>
    4c64:	3c110000 	ldccc	0, cr0, [r1], {-0}
    4c68:	1d0000b1 	stcne	0, cr0, [r0, #-708]	; 0xfffffd3c
    4c6c:	00000008 	andeq	r0, r0, r8
    4c70:	00b0ec11 	adcseq	lr, r0, r1, lsl ip
    4c74:	00081d00 	andeq	r1, r8, r0, lsl #26
    4c78:	b1481100 	mrslt	r1, (UNDEF: 88)
    4c7c:	081d0000 	ldmdaeq	sp, {}	; <UNPREDICTABLE>
    4c80:	15000000 	strne	r0, [r0, #-0]
    4c84:	00000ba9 	andeq	r0, r0, r9, lsr #23
    4c88:	5c015f01 	stcpl	15, cr5, [r1], {1}
    4c8c:	580000b1 	stmdapl	r0, {r0, r4, r5, r7}
    4c90:	01000000 	mrseq	r0, (UNDEF: 0)
    4c94:	0006489c 	muleq	r6, ip, r8
    4c98:	69701600 	ldmdbvs	r0!, {r9, sl, ip}^
    4c9c:	5f01006e 	svcpl	0x0001006e
    4ca0:	00002c01 	andeq	r2, r0, r1, lsl #24
    4ca4:	002df800 	eoreq	pc, sp, r0, lsl #16
    4ca8:	b1701100 	cmnlt	r0, r0, lsl #2
    4cac:	081d0000 	ldmdaeq	sp, {}	; <UNPREDICTABLE>
    4cb0:	8c0a0000 	stchi	0, cr0, [sl], {-0}
    4cb4:	010000b1 	strheq	r0, [r0, -r1]
    4cb8:	28000008 	stmdacs	r0, {r3}
    4cbc:	0b000006 	bleq	4cdc <_start-0x3324>
    4cc0:	31045101 	tstcc	r4, r1, lsl #2
    4cc4:	00240074 	eoreq	r0, r4, r4, ror r0
    4cc8:	00b1a80a 	adcseq	sl, r1, sl, lsl #16
    4ccc:	00080100 	andeq	r0, r8, r0, lsl #2
    4cd0:	00063e00 	andeq	r3, r6, r0, lsl #28
    4cd4:	51010b00 	tstpl	r1, r0, lsl #22
    4cd8:	00743104 	rsbseq	r3, r4, r4, lsl #2
    4cdc:	ac110024 	ldcge	0, cr0, [r1], {36}	; 0x24
    4ce0:	1d0000b1 	stcne	0, cr0, [r0, #-708]	; 0xfffffd3c
    4ce4:	00000008 	andeq	r0, r0, r8
    4ce8:	000b7419 	andeq	r7, fp, r9, lsl r4
    4cec:	33280100 	teqcc	r8, #0, 2
    4cf0:	05000001 	streq	r0, [r0, #-1]
    4cf4:	00b2bc03 	adcseq	fp, r2, r3, lsl #24
    4cf8:	0bde1900 	bleq	ff78b100 <__bss_end__+0xff77edd0>
    4cfc:	29010000 	stmdbcs	r1, {}	; <UNPREDICTABLE>
    4d00:	00000133 	andeq	r0, r0, r3, lsr r1
    4d04:	b2b80305 	adcslt	r0, r8, #335544320	; 0x14000000
    4d08:	36190000 	ldrcc	r0, [r9], -r0
    4d0c:	0100000c 	tsteq	r0, ip
    4d10:	0001332a 	andeq	r3, r1, sl, lsr #6
    4d14:	b4030500 	strlt	r0, [r3], #-1280	; 0x500
    4d18:	190000b2 	stmdbne	r0, {r1, r4, r5, r7}
    4d1c:	00000b4c 	andeq	r0, r0, ip, asr #22
    4d20:	01332c01 	teqeq	r3, r1, lsl #24
    4d24:	03050000 	movweq	r0, #20480	; 0x5000
    4d28:	0000b260 	andeq	fp, r0, r0, ror #4
    4d2c:	000b5419 	andeq	r5, fp, r9, lsl r4
    4d30:	332d0100 	teqcc	sp, #0, 2
    4d34:	05000001 	streq	r0, [r0, #-1]
    4d38:	00b26403 	adcseq	r6, r2, r3, lsl #8
    4d3c:	0ad11900 	beq	ff44b144 <__bss_end__+0xff43ee14>
    4d40:	2e010000 	cdpcs	0, 0, cr0, cr1, cr0, {0}
    4d44:	00000133 	andeq	r0, r0, r3, lsr r1
    4d48:	b2680305 	rsblt	r0, r8, #335544320	; 0x14000000
    4d4c:	5c190000 	ldcpl	0, cr0, [r9], {-0}
    4d50:	0100000b 	tsteq	r0, fp
    4d54:	0001332f 	andeq	r3, r1, pc, lsr #6
    4d58:	6c030500 	cfstr32vs	mvfx0, [r3], {-0}
    4d5c:	190000b2 	stmdbne	r0, {r1, r4, r5, r7}
    4d60:	00000b64 	andeq	r0, r0, r4, ror #22
    4d64:	01333001 	teqeq	r3, r1
    4d68:	03050000 	movweq	r0, #20480	; 0x5000
    4d6c:	0000b270 	andeq	fp, r0, r0, ror r2
    4d70:	000b6c19 	andeq	r6, fp, r9, lsl ip
    4d74:	33310100 	teqcc	r1, #0, 2
    4d78:	05000001 	streq	r0, [r0, #-1]
    4d7c:	00b27403 	adcseq	r7, r2, r3, lsl #8
    4d80:	0b1e1900 	bleq	78b188 <__bss_end__+0x77ee58>
    4d84:	33010000 	movwcc	r0, #4096	; 0x1000
    4d88:	00000133 	andeq	r0, r0, r3, lsr r1
    4d8c:	b2780305 	rsbslt	r0, r8, #335544320	; 0x14000000
    4d90:	25190000 	ldrcs	r0, [r9, #-0]
    4d94:	0100000b 	tsteq	r0, fp
    4d98:	00013334 	andeq	r3, r1, r4, lsr r3
    4d9c:	7c030500 	cfstr32vc	mvfx0, [r3], {-0}
    4da0:	190000b2 	stmdbne	r0, {r1, r4, r5, r7}
    4da4:	00000ad9 	ldrdeq	r0, [r0], -r9
    4da8:	01333601 	teqeq	r3, r1, lsl #12
    4dac:	03050000 	movweq	r0, #20480	; 0x5000
    4db0:	0000b280 	andeq	fp, r0, r0, lsl #5
    4db4:	000b7f19 	andeq	r7, fp, r9, lsl pc
    4db8:	33370100 	teqcc	r7, #0, 2
    4dbc:	05000001 	streq	r0, [r0, #-1]
    4dc0:	00b28403 	adcseq	r8, r2, r3, lsl #8
    4dc4:	0b351900 	bleq	d4b1cc <__bss_end__+0xd3ee9c>
    4dc8:	39010000 	stmdbcc	r1, {}	; <UNPREDICTABLE>
    4dcc:	00000133 	andeq	r0, r0, r3, lsr r1
    4dd0:	b2880305 	addlt	r0, r8, #335544320	; 0x14000000
    4dd4:	3c190000 	ldccc	0, cr0, [r9], {-0}
    4dd8:	0100000b 	tsteq	r0, fp
    4ddc:	0001333a 	andeq	r3, r1, sl, lsr r3
    4de0:	8c030500 	cfstr32hi	mvfx0, [r3], {-0}
    4de4:	190000b2 	stmdbne	r0, {r1, r4, r5, r7}
    4de8:	00000bba 			; <UNDEFINED> instruction: 0x00000bba
    4dec:	0133f001 	teqeq	r3, r1
    4df0:	03050000 	movweq	r0, #20480	; 0x5000
    4df4:	0000b2b0 			; <UNDEFINED> instruction: 0x0000b2b0
    4df8:	000bc819 	andeq	ip, fp, r9, lsl r8
    4dfc:	33f10100 	mvnscc	r0, #0, 2
    4e00:	05000001 	streq	r0, [r0, #-1]
    4e04:	00b29003 	adcseq	r9, r2, r3
    4e08:	0bed1900 	bleq	ffb4b210 <__bss_end__+0xffb3eee0>
    4e0c:	f3010000 	vhadd.u8	d0, d1, d0
    4e10:	00000133 	andeq	r0, r0, r3, lsr r1
    4e14:	b2a80305 	adclt	r0, r8, #335544320	; 0x14000000
    4e18:	f4190000 			; <UNDEFINED> instruction: 0xf4190000
    4e1c:	0100000b 	tsteq	r0, fp
    4e20:	000133f4 	strdeq	r3, [r1], -r4
    4e24:	ac030500 	cfstr32ge	mvfx0, [r3], {-0}
    4e28:	190000b2 	stmdbne	r0, {r1, r4, r5, r7}
    4e2c:	00000b9b 	muleq	r0, fp, fp
    4e30:	0133f601 	teqeq	r3, r1, lsl #12
    4e34:	03050000 	movweq	r0, #20480	; 0x5000
    4e38:	0000b294 	muleq	r0, r4, r2
    4e3c:	000ba219 	andeq	sl, fp, r9, lsl r2
    4e40:	33f70100 	mvnscc	r0, #0, 2
    4e44:	05000001 	streq	r0, [r0, #-1]
    4e48:	00b29803 	adcseq	r9, r2, r3, lsl #16
    4e4c:	0c071900 	stceq	9, cr1, [r7], {-0}
    4e50:	f9010000 			; <UNDEFINED> instruction: 0xf9010000
    4e54:	00000133 	andeq	r0, r0, r3, lsr r1
    4e58:	b2a00305 	adclt	r0, r0, #335544320	; 0x14000000
    4e5c:	0e190000 	cdpeq	0, 1, cr0, cr9, cr0, {0}
    4e60:	0100000c 	tsteq	r0, ip
    4e64:	000133fa 	strdeq	r3, [r1], -sl
    4e68:	a4030500 	strge	r0, [r3], #-1280	; 0x500
    4e6c:	190000b2 	stmdbne	r0, {r1, r4, r5, r7}
    4e70:	00000ae0 	andeq	r0, r0, r0, ror #21
    4e74:	0133fc01 	teqeq	r3, r1, lsl #24
    4e78:	03050000 	movweq	r0, #20480	; 0x5000
    4e7c:	0000b29c 	muleq	r0, ip, r2
    4e80:	000ab71a 	andeq	fp, sl, sl, lsl r7
    4e84:	2c200100 	stfcss	f0, [r0], #-0
    4e88:	f5000000 			; <UNDEFINED> instruction: 0xf5000000
    4e8c:	1b000007 	blne	4eb0 <_start-0x3150>
    4e90:	000007f5 	strdeq	r0, [r0], -r5
    4e94:	fb040d00 	blx	10829e <__bss_end__+0xfbf6e>
    4e98:	1c000007 	stcne	0, cr0, [r0], {7}
    4e9c:	00000800 	andeq	r0, r0, r0, lsl #16
    4ea0:	09d81e1d 	ldmibeq	r8, {r0, r2, r3, r4, r9, sl, fp, ip}^
    4ea4:	1e010000 	cdpne	0, 0, cr0, cr1, cr0, {0}
    4ea8:	00000817 	andeq	r0, r0, r7, lsl r8
    4eac:	0008171b 	andeq	r1, r8, fp, lsl r7
    4eb0:	002c1b00 	eoreq	r1, ip, r0, lsl #22
    4eb4:	0d000000 	stceq	0, cr0, [r0, #-0]
    4eb8:	00080004 	andeq	r0, r8, r4
    4ebc:	09701f00 	ldmdbeq	r0!, {r8, r9, sl, fp, ip}^
    4ec0:	8a030000 	bhi	c4ec8 <__bss_end__+0xb8b98>
    4ec4:	0000db00 	andeq	sp, r0, r0, lsl #22
    4ec8:	19000400 	stmdbne	r0, {sl}
    4ecc:	04000017 	streq	r0, [r0], #-23
    4ed0:	00004701 	andeq	r4, r0, r1, lsl #14
    4ed4:	0c400100 	stfeqe	f0, [r0], {-0}
    4ed8:	03fa0000 	mvnseq	r0, #0
    4edc:	b1b40000 			; <UNDEFINED> instruction: 0xb1b40000
    4ee0:	00200000 	eoreq	r0, r0, r0
    4ee4:	16800000 	strne	r0, [r0], r0
    4ee8:	01020000 	mrseq	r0, (UNDEF: 2)
    4eec:	00010906 	andeq	r0, r1, r6, lsl #18
    4ef0:	08010200 	stmdaeq	r1, {r9}
    4ef4:	00000107 	andeq	r0, r0, r7, lsl #2
    4ef8:	02050202 	andeq	r0, r5, #536870912	; 0x20000000
    4efc:	02000002 	andeq	r0, r0, #2
    4f00:	00ec0702 	rsceq	r0, ip, r2, lsl #14
    4f04:	04030000 	streq	r0, [r3], #-0
    4f08:	746e6905 	strbtvc	r6, [lr], #-2309	; 0x905
    4f0c:	07040200 	streq	r0, [r4, -r0, lsl #4]
    4f10:	000001af 	andeq	r0, r0, pc, lsr #3
    4f14:	dd050802 	stcle	8, cr0, [r5, #-8]
    4f18:	02000001 	andeq	r0, r0, #1
    4f1c:	01a50708 			; <UNDEFINED> instruction: 0x01a50708
    4f20:	04020000 	streq	r0, [r2], #-0
    4f24:	0001e205 	andeq	lr, r1, r5, lsl #4
    4f28:	07040200 	streq	r0, [r4, -r0, lsl #4]
    4f2c:	000001d4 	ldrdeq	r0, [r0], -r4
    4f30:	04020404 	streq	r0, [r2], #-1028	; 0x404
    4f34:	0001aa07 	andeq	sl, r1, r7, lsl #20
    4f38:	7a040500 	bvc	106340 <__bss_end__+0xfa010>
    4f3c:	02000000 	andeq	r0, r0, #0
    4f40:	01100801 	tsteq	r0, r1, lsl #16
    4f44:	00060000 	andeq	r0, r6, r0
    4f48:	02000000 	andeq	r0, r0, #0
    4f4c:	000048d4 	ldrdeq	r4, [r0], -r4	; <UNPREDICTABLE>
    4f50:	07500700 	ldrbeq	r0, [r0, -r0, lsl #14]
    4f54:	1b030000 	blne	c4f5c <__bss_end__+0xb8c2c>
    4f58:	0000006b 	andeq	r0, r0, fp, rrx
    4f5c:	0000b1b4 			; <UNDEFINED> instruction: 0x0000b1b4
    4f60:	00000020 	andeq	r0, r0, r0, lsr #32
    4f64:	5f089c01 	svcpl	0x00089c01
    4f68:	03010070 	movweq	r0, #4208	; 0x1070
    4f6c:	0000006b 	andeq	r0, r0, fp, rrx
    4f70:	63085001 	movwvs	r5, #32769	; 0x8001
    4f74:	41030100 	mrsmi	r0, (UNDEF: 19)
    4f78:	01000000 	mrseq	r0, (UNDEF: 0)
    4f7c:	006e0951 	rsbeq	r0, lr, r1, asr r9
    4f80:	00810301 	addeq	r0, r1, r1, lsl #6
    4f84:	2e240000 	cdpcs	0, 2, cr0, cr4, cr0, {0}
    4f88:	700a0000 	andvc	r0, sl, r0
    4f8c:	74040100 	strvc	r0, [r4], #-256	; 0x100
    4f90:	45000000 	strmi	r0, [r0, #-0]
    4f94:	0b00002e 	bleq	5054 <_start-0x2fac>
    4f98:	04010065 	streq	r0, [r1], #-101	; 0x65
    4f9c:	00000074 	andeq	r0, r0, r4, ror r0
    4fa0:	00005201 	andeq	r5, r0, r1, lsl #4
    4fa4:	000001c3 	andeq	r0, r0, r3, asr #3
    4fa8:	17b60004 	ldrne	r0, [r6, r4]!
    4fac:	01040000 	mrseq	r0, (UNDEF: 4)
    4fb0:	00000047 	andeq	r0, r0, r7, asr #32
    4fb4:	000c5501 	andeq	r5, ip, r1, lsl #10
    4fb8:	0003fa00 	andeq	pc, r3, r0, lsl #20
    4fbc:	00b1d400 	adcseq	sp, r1, r0, lsl #8
    4fc0:	00005000 	andeq	r5, r0, r0
    4fc4:	00177000 	andseq	r7, r7, r0
    4fc8:	05040200 	streq	r0, [r4, #-512]	; 0x200
    4fcc:	00746e69 	rsbseq	r6, r4, r9, ror #28
    4fd0:	00000003 	andeq	r0, r0, r3
    4fd4:	37d40200 	ldrbcc	r0, [r4, r0, lsl #4]
    4fd8:	04000000 	streq	r0, [r0], #-0
    4fdc:	01af0704 			; <UNDEFINED> instruction: 0x01af0704
    4fe0:	01040000 	mrseq	r0, (UNDEF: 4)
    4fe4:	00010906 	andeq	r0, r1, r6, lsl #18
    4fe8:	05020400 	streq	r0, [r2, #-1024]	; 0x400
    4fec:	00000202 	andeq	r0, r0, r2, lsl #4
    4ff0:	e2050404 	and	r0, r5, #4, 8	; 0x4000000
    4ff4:	04000001 	streq	r0, [r0], #-1
    4ff8:	01dd0508 	bicseq	r0, sp, r8, lsl #10
    4ffc:	bc030000 	stclt	0, cr0, [r3], {-0}
    5000:	03000001 	movweq	r0, #1
    5004:	0000652e 	andeq	r6, r0, lr, lsr #10
    5008:	08010400 	stmdaeq	r1, {sl}
    500c:	00000107 	andeq	r0, r0, r7, lsl #2
    5010:	ec070204 	sfm	f0, 4, [r7], {4}
    5014:	03000000 	movweq	r0, #0
    5018:	0000021f 	andeq	r0, r0, pc, lsl r2
    501c:	007e3403 	rsbseq	r3, lr, r3, lsl #8
    5020:	04040000 	streq	r0, [r4], #-0
    5024:	0001aa07 	andeq	sl, r1, r7, lsl #20
    5028:	07080400 	streq	r0, [r8, -r0, lsl #8]
    502c:	000001a5 	andeq	r0, r0, r5, lsr #3
    5030:	d4070404 	strle	r0, [r7], #-1028	; 0x404
    5034:	05000001 	streq	r0, [r0, #-1]
    5038:	08010404 	stmdaeq	r1, {r2, sl}
    503c:	00000110 	andeq	r0, r0, r0, lsl r1
    5040:	0e040c06 	cdpeq	12, 0, cr0, cr4, cr6, {0}
    5044:	000000d3 	ldrdeq	r0, [r0], -r3
    5048:	00787407 	rsbseq	r7, r8, r7, lsl #8
    504c:	005a0f04 	subseq	r0, sl, r4, lsl #30
    5050:	07000000 	streq	r0, [r0, -r0]
    5054:	04007872 	streq	r7, [r0], #-2162	; 0x872
    5058:	00005a0f 	andeq	r5, r0, pc, lsl #20
    505c:	d9080100 	stmdble	r8, {r8}
    5060:	04000005 	streq	r0, [r0], #-5
    5064:	00007310 	andeq	r7, r0, r0, lsl r3
    5068:	8a080400 	bhi	206070 <__bss_end__+0x1f9d40>
    506c:	04000005 	streq	r0, [r0], #-5
    5070:	00007311 	andeq	r7, r0, r1, lsl r3
    5074:	03000800 	movweq	r0, #2048	; 0x800
    5078:	000005c2 	andeq	r0, r0, r2, asr #11
    507c:	009c1204 	addseq	r1, ip, r4, lsl #4
    5080:	01090000 	mrseq	r0, (UNDEF: 9)
    5084:	00f91005 	rscseq	r1, r9, r5
    5088:	de0a0000 	cdple	0, 0, cr0, cr10, cr0, {0}
    508c:	01000005 	tsteq	r0, r5
    5090:	0005cc0a 	andeq	ip, r5, sl, lsl #24
    5094:	b40a0200 	strlt	r0, [sl], #-512	; 0x200
    5098:	03000005 	movweq	r0, #5
    509c:	05f30300 	ldrbeq	r0, [r3, #768]!	; 0x300
    50a0:	10050000 	andne	r0, r5, r0
    50a4:	000000de 	ldrdeq	r0, [r0], -lr
    50a8:	14051406 	strne	r1, [r5], #-1030	; 0x406
    50ac:	00000131 	andeq	r0, r0, r1, lsr r1
    50b0:	00065a08 	andeq	r5, r6, r8, lsl #20
    50b4:	37150500 	ldrcc	r0, [r5, -r0, lsl #10]
    50b8:	00000000 	andeq	r0, r0, r0
    50bc:	00064e08 	andeq	r4, r6, r8, lsl #28
    50c0:	f9180500 			; <UNDEFINED> instruction: 0xf9180500
    50c4:	04000000 	streq	r0, [r0], #-0
    50c8:	00061908 	andeq	r1, r6, r8, lsl #18
    50cc:	d31b0500 	tstle	fp, #0, 10
    50d0:	08000000 	stmdaeq	r0, {}	; <UNPREDICTABLE>
    50d4:	060b0300 	streq	r0, [fp], -r0, lsl #6
    50d8:	20050000 	andcs	r0, r5, r0
    50dc:	00000104 	andeq	r0, r0, r4, lsl #2
    50e0:	000c4e0b 	andeq	r4, ip, fp, lsl #28
    50e4:	7e050100 	adfvcs	f0, f5, f0
    50e8:	d4000001 	strle	r0, [r0], #-1
    50ec:	280000b1 	stmdacs	r0, {r0, r4, r5, r7}
    50f0:	01000000 	mrseq	r0, (UNDEF: 0)
    50f4:	00017e9c 	muleq	r1, ip, lr
    50f8:	00630c00 	rsbeq	r0, r3, r0, lsl #24
    50fc:	017e0601 	cmneq	lr, r1, lsl #12
    5100:	00000000 	andeq	r0, r0, r0
    5104:	e80d0900 	stmda	sp, {r8, fp}
    5108:	ab0000b1 	blge	53d4 <_start-0x2c2c>
    510c:	0e000001 	cdpeq	0, 0, cr0, cr0, cr1, {0}
    5110:	34015201 	strcc	r5, [r1], #-513	; 0x201
    5114:	0151010e 	cmpeq	r1, lr, lsl #2
    5118:	50010e30 	andpl	r0, r1, r0, lsr lr
    511c:	24474203 	strbcs	r4, [r7], #-515	; 0x203
    5120:	040f0000 	streq	r0, [pc], #-0	; 5128 <_start-0x2ed8>
    5124:	00000131 	andeq	r0, r0, r1, lsr r1
    5128:	0006210b 	andeq	r2, r6, fp, lsl #2
    512c:	7e0c0100 	adfvce	f0, f4, f0
    5130:	fc000001 	stc2	0, cr0, [r0], {1}
    5134:	280000b1 	stmdacs	r0, {r0, r4, r5, r7}
    5138:	01000000 	mrseq	r0, (UNDEF: 0)
    513c:	0001ab9c 	muleq	r1, ip, fp
    5140:	00630c00 	rsbeq	r0, r3, r0, lsl #24
    5144:	017e0d01 	cmneq	lr, r1, lsl #26
    5148:	00000000 	andeq	r0, r0, r0
    514c:	10000900 	andne	r0, r0, r0, lsl #18
    5150:	00000750 	andeq	r0, r0, r0, asr r7
    5154:	00931b06 	addseq	r1, r3, r6, lsl #22
    5158:	93110000 	tstls	r1, #0
    515c:	11000000 	mrsne	r0, (UNDEF: 0)
    5160:	00000025 	andeq	r0, r0, r5, lsr #32
    5164:	00002c11 	andeq	r2, r0, r1, lsl ip
    5168:	Address 0x0000000000005168 is out of bounds.


Disassembly of section .debug_abbrev:

00000000 <.debug_abbrev>:
       0:	25011101 	strcs	r1, [r1, #-257]	; 0x101
       4:	030b130e 	movweq	r1, #45838	; 0xb30e
       8:	110e1b0e 	tstne	lr, lr, lsl #22
       c:	10061201 	andne	r1, r6, r1, lsl #4
      10:	02000017 	andeq	r0, r0, #23
      14:	0b0b0024 	bleq	2c00ac <__bss_end__+0x2b3d7c>
      18:	08030b3e 	stmdaeq	r3, {r1, r2, r3, r4, r5, r8, r9, fp}
      1c:	16030000 	strne	r0, [r3], -r0
      20:	3a0e0300 	bcc	380c28 <__bss_end__+0x3748f8>
      24:	490b3b0b 	stmdbmi	fp, {r0, r1, r3, r8, r9, fp, ip, sp}
      28:	04000013 	streq	r0, [r0], #-19
      2c:	0b0b0024 	bleq	2c00c4 <__bss_end__+0x2b3d94>
      30:	0e030b3e 	vmoveq.16	d3[0], r0
      34:	0f050000 	svceq	0x00050000
      38:	000b0b00 	andeq	r0, fp, r0, lsl #22
      3c:	000f0600 	andeq	r0, pc, r0, lsl #12
      40:	13490b0b 	movtne	r0, #39691	; 0x9b0b
      44:	26070000 	strcs	r0, [r7], -r0
      48:	00134900 	andseq	r4, r3, r0, lsl #18
      4c:	01010800 	tsteq	r1, r0, lsl #16
      50:	13011349 	movwne	r1, #4937	; 0x1349
      54:	21090000 	mrscs	r0, (UNDEF: 9)
      58:	2f134900 	svccs	0x00134900
      5c:	0a00000b 	beq	90 <_start-0x7f70>
      60:	08030113 	stmdaeq	r3, {r0, r1, r4, r8}
      64:	0b3a050b 	bleq	e81498 <__bss_end__+0xe75168>
      68:	13010b3b 	movwne	r0, #6971	; 0x1b3b
      6c:	0d0b0000 	stceq	0, cr0, [fp, #-0]
      70:	3a0e0300 	bcc	380c78 <__bss_end__+0x374948>
      74:	490b3b0b 	stmdbmi	fp, {r0, r1, r3, r8, r9, fp, ip, sp}
      78:	000b3813 	andeq	r3, fp, r3, lsl r8
      7c:	000d0c00 	andeq	r0, sp, r0, lsl #24
      80:	0b3a0e03 	bleq	e83894 <__bss_end__+0xe77564>
      84:	13490b3b 	movtne	r0, #39739	; 0x9b3b
      88:	00000538 	andeq	r0, r0, r8, lsr r5
      8c:	4900210d 	stmdbmi	r0, {r0, r2, r3, r8, sp}
      90:	00052f13 	andeq	r2, r5, r3, lsl pc
      94:	01130e00 	tsteq	r3, r0, lsl #28
      98:	0b0b0e03 	bleq	2c38ac <__bss_end__+0x2b757c>
      9c:	0b3b0b3a 	bleq	ec2d8c <__bss_end__+0xeb6a5c>
      a0:	00001301 	andeq	r1, r0, r1, lsl #6
      a4:	03000d0f 	movweq	r0, #3343	; 0xd0f
      a8:	3b0b3a0e 	blcc	2ce8e8 <__bss_end__+0x2c25b8>
      ac:	0b13490b 	bleq	4d24e0 <__bss_end__+0x4c61b0>
      b0:	0c0b0d0b 	stceq	13, cr0, [fp], {11}
      b4:	000b380b 	andeq	r3, fp, fp, lsl #16
      b8:	012e1000 	teqeq	lr, r0
      bc:	0b3a0e03 	bleq	e838d0 <__bss_end__+0xe775a0>
      c0:	19270b3b 	stmdbne	r7!, {r0, r1, r3, r4, r5, r8, r9, fp}
      c4:	0b201349 	bleq	804df0 <__bss_end__+0x7f8ac0>
      c8:	00001301 	andeq	r1, r0, r1, lsl #6
      cc:	03000511 	movweq	r0, #1297	; 0x511
      d0:	3b0b3a08 	blcc	2ce8f8 <__bss_end__+0x2c25c8>
      d4:	0013490b 	andseq	r4, r3, fp, lsl #18
      d8:	012e1200 	teqeq	lr, r0, lsl #4
      dc:	0e03193f 	mcreq	9, 0, r1, cr3, cr15, {1}
      e0:	0b3b0b3a 	bleq	ec2dd0 <__bss_end__+0xeb6aa0>
      e4:	13491927 	movtne	r1, #39207	; 0x9927
      e8:	06120111 			; <UNDEFINED> instruction: 0x06120111
      ec:	42971840 	addsmi	r1, r7, #64, 16	; 0x400000
      f0:	00130119 	andseq	r0, r3, r9, lsl r1
      f4:	00051300 	andeq	r1, r5, r0, lsl #6
      f8:	0b3a0e03 	bleq	e8390c <__bss_end__+0xe775dc>
      fc:	13490b3b 	movtne	r0, #39739	; 0x9b3b
     100:	00001702 	andeq	r1, r0, r2, lsl #14
     104:	03000514 	movweq	r0, #1300	; 0x514
     108:	3b0b3a08 	blcc	2ce930 <__bss_end__+0x2c2600>
     10c:	0213490b 	andseq	r4, r3, #180224	; 0x2c000
     110:	15000017 	strne	r0, [r0, #-23]
     114:	08030034 	stmdaeq	r3, {r2, r4, r5}
     118:	0b3b0b3a 	bleq	ec2e08 <__bss_end__+0xeb6ad8>
     11c:	17021349 	strne	r1, [r2, -r9, asr #6]
     120:	34160000 	ldrcc	r0, [r6], #-0
     124:	490e0300 	stmdbmi	lr, {r8, r9}
     128:	02193413 	andseq	r3, r9, #318767104	; 0x13000000
     12c:	17000018 	smladne	r0, r8, r0, r0
     130:	01018289 	smlabbeq	r1, r9, r2, r8
     134:	13310111 	teqne	r1, #1073741828	; 0x40000004
     138:	00001301 	andeq	r1, r0, r1, lsl #6
     13c:	01828a18 	orreq	r8, r2, r8, lsl sl
     140:	91180200 	tstls	r8, r0, lsl #4
     144:	00001842 	andeq	r1, r0, r2, asr #16
     148:	01828919 	orreq	r8, r2, r9, lsl r9
     14c:	31011100 	mrscc	r1, (UNDEF: 17)
     150:	1a000013 	bne	1a4 <_start-0x7e5c>
     154:	0e030034 	mcreq	0, 0, r0, cr3, cr4, {1}
     158:	0b3b0b3a 	bleq	ec2e48 <__bss_end__+0xeb6b18>
     15c:	17021349 	strne	r1, [r2, -r9, asr #6]
     160:	2e1b0000 	cdpcs	0, 1, cr0, cr11, cr0, {0}
     164:	03193f01 	tsteq	r9, #1, 30
     168:	3b0b3a0e 	blcc	2ce9a8 <__bss_end__+0x2c2678>
     16c:	1119270b 	tstne	r9, fp, lsl #14
     170:	40061201 	andmi	r1, r6, r1, lsl #4
     174:	19429718 	stmdbne	r2, {r3, r4, r8, r9, sl, ip, pc}^
     178:	00001301 	andeq	r1, r0, r1, lsl #6
     17c:	0300341c 	movweq	r3, #1052	; 0x41c
     180:	3b0b3a08 	blcc	2ce9a8 <__bss_end__+0x2c2678>
     184:	0213490b 	andseq	r4, r3, #180224	; 0x2c000
     188:	1d000018 	stcne	0, cr0, [r0, #-96]	; 0xffffffa0
     18c:	1331011d 	teqne	r1, #1073741831	; 0x40000007
     190:	06120111 			; <UNDEFINED> instruction: 0x06120111
     194:	0b590b58 	bleq	1642efc <__bss_end__+0x1636bcc>
     198:	00001301 	andeq	r1, r0, r1, lsl #6
     19c:	3100051e 	tstcc	r0, lr, lsl r5
     1a0:	00170213 	andseq	r0, r7, r3, lsl r2
     1a4:	012e1f00 	teqeq	lr, r0, lsl #30
     1a8:	0e03193f 	mcreq	9, 0, r1, cr3, cr15, {1}
     1ac:	0b3b0b3a 	bleq	ec2e9c <__bss_end__+0xeb6b6c>
     1b0:	13491927 	movtne	r1, #39207	; 0x9927
     1b4:	1301193c 	movwne	r1, #6460	; 0x193c
     1b8:	05200000 	streq	r0, [r0, #-0]!
     1bc:	00134900 	andseq	r4, r3, r0, lsl #18
     1c0:	002e2100 	eoreq	r2, lr, r0, lsl #2
     1c4:	0e03193f 	mcreq	9, 0, r1, cr3, cr15, {1}
     1c8:	0b3b0b3a 	bleq	ec2eb8 <__bss_end__+0xeb6b88>
     1cc:	193c1927 	ldmdbne	ip!, {r0, r1, r2, r5, r8, fp, ip}
     1d0:	18220000 	stmdane	r2!, {}	; <UNPREDICTABLE>
     1d4:	23000000 	movwcs	r0, #0
     1d8:	193f012e 	ldmdbne	pc!, {r1, r2, r3, r5, r8}	; <UNPREDICTABLE>
     1dc:	0b3a0e03 	bleq	e839f0 <__bss_end__+0xe776c0>
     1e0:	13490b3b 	movtne	r0, #39739	; 0x9b3b
     1e4:	1301193c 	movwne	r1, #6460	; 0x193c
     1e8:	2e240000 	cdpcs	0, 2, cr0, cr4, cr0, {0}
     1ec:	03193f01 	tsteq	r9, #1, 30
     1f0:	3b0b3a0e 	blcc	2cea30 <__bss_end__+0x2c2700>
     1f4:	3c19270b 	ldccc	7, cr2, [r9], {11}
     1f8:	00130119 	andseq	r0, r3, r9, lsl r1
     1fc:	00262500 	eoreq	r2, r6, r0, lsl #10
     200:	2e260000 	cdpcs	0, 2, cr0, cr6, cr0, {0}
     204:	03193f01 	tsteq	r9, #1, 30
     208:	3b0b3a0e 	blcc	2cea48 <__bss_end__+0x2c2718>
     20c:	4919270b 	ldmdbmi	r9, {r0, r1, r3, r8, r9, sl, sp}
     210:	00193c13 	andseq	r3, r9, r3, lsl ip
     214:	11010000 	mrsne	r0, (UNDEF: 1)
     218:	130e2501 	movwne	r2, #58625	; 0xe501
     21c:	1b0e030b 	blne	380e50 <__bss_end__+0x374b20>
     220:	1201110e 	andne	r1, r1, #-2147483645	; 0x80000003
     224:	00171006 	andseq	r1, r7, r6
     228:	00240200 	eoreq	r0, r4, r0, lsl #4
     22c:	0b3e0b0b 	bleq	f82e60 <__bss_end__+0xf76b30>
     230:	00000803 	andeq	r0, r0, r3, lsl #16
     234:	0b002403 	bleq	9248 <sd_init+0x754>
     238:	030b3e0b 	movweq	r3, #48651	; 0xbe0b
     23c:	0400000e 	streq	r0, [r0], #-14
     240:	0b0b000f 	bleq	2c0284 <__bss_end__+0x2b3f54>
     244:	00001349 	andeq	r1, r0, r9, asr #6
     248:	49002605 	stmdbmi	r0, {r0, r2, r9, sl, sp}
     24c:	06000013 			; <UNDEFINED> instruction: 0x06000013
     250:	0b0b0104 	bleq	2c0668 <__bss_end__+0x2b4338>
     254:	0b3b0b3a 	bleq	ec2f44 <__bss_end__+0xeb6c14>
     258:	00001301 	andeq	r1, r0, r1, lsl #6
     25c:	03002807 	movweq	r2, #2055	; 0x807
     260:	000d1c0e 	andeq	r1, sp, lr, lsl #24
     264:	012e0800 	teqeq	lr, r0, lsl #16
     268:	0e03193f 	mcreq	9, 0, r1, cr3, cr15, {1}
     26c:	053b0b3a 	ldreq	r0, [fp, #-2874]!	; 0xb3a
     270:	13491927 	movtne	r1, #39207	; 0x9927
     274:	13010b20 	movwne	r0, #6944	; 0x1b20
     278:	05090000 	streq	r0, [r9, #-0]
     27c:	3a080300 	bcc	200e84 <__bss_end__+0x1f4b54>
     280:	49053b0b 	stmdbmi	r5, {r0, r1, r3, r8, r9, fp, ip, sp}
     284:	0a000013 	beq	2d8 <_start-0x7d28>
     288:	08030034 	stmdaeq	r3, {r2, r4, r5}
     28c:	053b0b3a 	ldreq	r0, [fp, #-2874]!	; 0xb3a
     290:	00001349 	andeq	r1, r0, r9, asr #6
     294:	3f012e0b 	svccc	0x00012e0b
     298:	3a0e0319 	bcc	380f04 <__bss_end__+0x374bd4>
     29c:	270b3b0b 	strcs	r3, [fp, -fp, lsl #22]
     2a0:	11134919 	tstne	r3, r9, lsl r9
     2a4:	40061201 	andmi	r1, r6, r1, lsl #4
     2a8:	19429718 	stmdbne	r2, {r3, r4, r8, r9, sl, ip, pc}^
     2ac:	00001301 	andeq	r1, r0, r1, lsl #6
     2b0:	0300050c 	movweq	r0, #1292	; 0x50c
     2b4:	3b0b3a0e 	blcc	2ceaf4 <__bss_end__+0x2c27c4>
     2b8:	0213490b 	andseq	r4, r3, #180224	; 0x2c000
     2bc:	0d000017 	stceq	0, cr0, [r0, #-92]	; 0xffffffa4
     2c0:	08030034 	stmdaeq	r3, {r2, r4, r5}
     2c4:	0b3b0b3a 	bleq	ec2fb4 <__bss_end__+0xeb6c84>
     2c8:	17021349 	strne	r1, [r2, -r9, asr #6]
     2cc:	890e0000 	stmdbhi	lr, {}	; <UNPREDICTABLE>
     2d0:	11010182 	smlabbne	r1, r2, r1, r0
     2d4:	00133101 	andseq	r3, r3, r1, lsl #2
     2d8:	828a0f00 	addhi	r0, sl, #0, 30
     2dc:	18020001 	stmdane	r2, {r0}
     2e0:	00184291 	mulseq	r8, r1, r2
     2e4:	00341000 	eorseq	r1, r4, r0
     2e8:	0b3a0803 	bleq	e822fc <__bss_end__+0xe75fcc>
     2ec:	13490b3b 	movtne	r0, #39739	; 0x9b3b
     2f0:	00001802 	andeq	r1, r0, r2, lsl #16
     2f4:	03000511 	movweq	r0, #1297	; 0x511
     2f8:	3b0b3a08 	blcc	2ceb20 <__bss_end__+0x2c27f0>
     2fc:	0213490b 	andseq	r4, r3, #180224	; 0x2c000
     300:	12000017 	andne	r0, r0, #23
     304:	00018289 	andeq	r8, r1, r9, lsl #5
     308:	13310111 	teqne	r1, #1073741828	; 0x40000004
     30c:	89130000 	ldmdbhi	r3, {}	; <UNPREDICTABLE>
     310:	11010182 	smlabbne	r1, r2, r1, r0
     314:	00130101 	andseq	r0, r3, r1, lsl #2
     318:	82891400 	addhi	r1, r9, #0, 8
     31c:	01110101 	tsteq	r1, r1, lsl #2
     320:	13011331 	movwne	r1, #4913	; 0x1331
     324:	89150000 	ldmdbhi	r5, {}	; <UNPREDICTABLE>
     328:	11010182 	smlabbne	r1, r2, r1, r0
     32c:	16000001 	strne	r0, [r0], -r1
     330:	193f012e 	ldmdbne	pc!, {r1, r2, r3, r5, r8}	; <UNPREDICTABLE>
     334:	0b3a0e03 	bleq	e83b48 <__bss_end__+0xe77818>
     338:	1349053b 	movtne	r0, #38203	; 0x953b
     33c:	06120111 			; <UNDEFINED> instruction: 0x06120111
     340:	42971840 	addsmi	r1, r7, #64, 16	; 0x400000
     344:	00130119 	andseq	r0, r3, r9, lsl r1
     348:	00341700 	eorseq	r1, r4, r0, lsl #14
     34c:	0b3a0803 	bleq	e82360 <__bss_end__+0xe76030>
     350:	1349053b 	movtne	r0, #38203	; 0x953b
     354:	00001702 	andeq	r1, r0, r2, lsl #14
     358:	31011d18 	tstcc	r1, r8, lsl sp
     35c:	12011113 	andne	r1, r1, #-1073741820	; 0xc0000004
     360:	590b5806 	stmdbpl	fp, {r1, r2, fp, ip, lr}
     364:	00130105 	andseq	r0, r3, r5, lsl #2
     368:	00051900 	andeq	r1, r5, r0, lsl #18
     36c:	17021331 	smladxne	r2, r1, r3, r1
     370:	0b1a0000 	bleq	680378 <__bss_end__+0x674048>
     374:	12011101 	andne	r1, r1, #1073741824	; 0x40000000
     378:	1b000006 	blne	398 <_start-0x7c68>
     37c:	13310034 	teqne	r1, #52	; 0x34
     380:	00001702 	andeq	r1, r0, r2, lsl #14
     384:	31011d1c 	tstcc	r1, ip, lsl sp
     388:	55015213 	strpl	r5, [r1, #-531]	; 0x213
     38c:	590b5817 	stmdbpl	fp, {r0, r1, r2, r4, fp, ip, lr}
     390:	00130105 	andseq	r0, r3, r5, lsl #2
     394:	00051d00 	andeq	r1, r5, r0, lsl #26
     398:	00001331 	andeq	r1, r0, r1, lsr r3
     39c:	55010b1e 	strpl	r0, [r1, #-2846]	; 0xb1e
     3a0:	1f000017 	svcne	0x00000017
     3a4:	13310034 	teqne	r1, #52	; 0x34
     3a8:	15200000 	strne	r0, [r0, #-0]!
     3ac:	49192701 	ldmdbmi	r9, {r0, r8, r9, sl, sp}
     3b0:	00130113 	andseq	r0, r3, r3, lsl r1
     3b4:	00052100 	andeq	r2, r5, r0, lsl #2
     3b8:	00001349 	andeq	r1, r0, r9, asr #6
     3bc:	03003422 	movweq	r3, #1058	; 0x422
     3c0:	3b0b3a0e 	blcc	2cec00 <__bss_end__+0x2c28d0>
     3c4:	3f13490b 	svccc	0x0013490b
     3c8:	00193c19 	andseq	r3, r9, r9, lsl ip
     3cc:	00342300 	eorseq	r2, r4, r0, lsl #6
     3d0:	0b3a0e03 	bleq	e83be4 <__bss_end__+0xe778b4>
     3d4:	13490b3b 	movtne	r0, #39739	; 0x9b3b
     3d8:	1802193f 	stmdane	r2, {r0, r1, r2, r3, r4, r5, r8, fp, ip}
     3dc:	01240000 	teqeq	r4, r0
     3e0:	01134901 	tsteq	r3, r1, lsl #18
     3e4:	25000013 	strcs	r0, [r0, #-19]
     3e8:	13490021 	movtne	r0, #36897	; 0x9021
     3ec:	00000b2f 	andeq	r0, r0, pc, lsr #22
     3f0:	3f012e26 	svccc	0x00012e26
     3f4:	3a0e0319 	bcc	381060 <__bss_end__+0x374d30>
     3f8:	270b3b0b 	strcs	r3, [fp, -fp, lsl #22]
     3fc:	01193c19 	tsteq	r9, r9, lsl ip
     400:	27000013 	smladcs	r0, r3, r0, r0
     404:	193f012e 	ldmdbne	pc!, {r1, r2, r3, r5, r8}	; <UNPREDICTABLE>
     408:	0b3a0e03 	bleq	e83c1c <__bss_end__+0xe778ec>
     40c:	19270b3b 	stmdbne	r7!, {r0, r1, r3, r4, r5, r8, r9, fp}
     410:	193c1349 	ldmdbne	ip!, {r0, r3, r6, r8, r9, ip}
     414:	00001301 	andeq	r1, r0, r1, lsl #6
     418:	3f012e28 	svccc	0x00012e28
     41c:	3a0e0319 	bcc	381088 <__bss_end__+0x374d58>
     420:	270b3b0b 	strcs	r3, [fp, -fp, lsl #22]
     424:	00193c19 	andseq	r3, r9, r9, lsl ip
     428:	11010000 	mrsne	r0, (UNDEF: 1)
     42c:	130e2501 	movwne	r2, #58625	; 0xe501
     430:	1b0e030b 	blne	381064 <__bss_end__+0x374d34>
     434:	1201110e 	andne	r1, r1, #-2147483645	; 0x80000003
     438:	00171006 	andseq	r1, r7, r6
     43c:	00240200 	eoreq	r0, r4, r0, lsl #4
     440:	0b3e0b0b 	bleq	f83074 <__bss_end__+0xf76d44>
     444:	00000803 	andeq	r0, r0, r3, lsl #16
     448:	0b002403 	bleq	945c <mbr_part_str+0x130>
     44c:	030b3e0b 	movweq	r3, #48651	; 0xbe0b
     450:	0400000e 	streq	r0, [r0], #-14
     454:	0e030016 	mcreq	0, 0, r0, cr3, cr6, {0}
     458:	0b3b0b3a 	bleq	ec3148 <__bss_end__+0xeb6e18>
     45c:	00001349 	andeq	r1, r0, r9, asr #6
     460:	0b000f05 	bleq	407c <_start-0x3f84>
     464:	0013490b 	andseq	r4, r3, fp, lsl #18
     468:	00260600 	eoreq	r0, r6, r0, lsl #12
     46c:	00001349 	andeq	r1, r0, r9, asr #6
     470:	03011307 	movweq	r1, #4871	; 0x1307
     474:	3a050b08 	bcc	14309c <__bss_end__+0x136d6c>
     478:	010b3b0b 	tsteq	fp, fp, lsl #22
     47c:	08000013 	stmdaeq	r0, {r0, r1, r4}
     480:	0e03000d 	cdpeq	0, 0, cr0, cr3, cr13, {0}
     484:	0b3b0b3a 	bleq	ec3174 <__bss_end__+0xeb6e44>
     488:	0b381349 	bleq	e051b4 <__bss_end__+0xdf8e84>
     48c:	0d090000 	stceq	0, cr0, [r9, #-0]
     490:	3a0e0300 	bcc	381098 <__bss_end__+0x374d68>
     494:	490b3b0b 	stmdbmi	fp, {r0, r1, r3, r8, r9, fp, ip, sp}
     498:	00053813 	andeq	r3, r5, r3, lsl r8
     49c:	01010a00 	tsteq	r1, r0, lsl #20
     4a0:	13011349 	movwne	r1, #4937	; 0x1349
     4a4:	210b0000 	mrscs	r0, (UNDEF: 11)
     4a8:	2f134900 	svccs	0x00134900
     4ac:	0c000005 	stceq	0, cr0, [r0], {5}
     4b0:	13490021 	movtne	r0, #36897	; 0x9021
     4b4:	00000b2f 	andeq	r0, r0, pc, lsr #22
     4b8:	0301130d 	movweq	r1, #4877	; 0x130d
     4bc:	3a0b0b0e 	bcc	2c30fc <__bss_end__+0x2b6dcc>
     4c0:	010b3b0b 	tsteq	fp, fp, lsl #22
     4c4:	0e000013 	mcreq	0, 0, r0, cr0, cr3, {0}
     4c8:	0e03000d 	cdpeq	0, 0, cr0, cr3, cr13, {0}
     4cc:	0b3b0b3a 	bleq	ec31bc <__bss_end__+0xeb6e8c>
     4d0:	0b0b1349 	bleq	2c51fc <__bss_end__+0x2b8ecc>
     4d4:	0b0c0b0d 	bleq	303110 <__bss_end__+0x2f6de0>
     4d8:	00000b38 	andeq	r0, r0, r8, lsr fp
     4dc:	3f012e0f 	svccc	0x00012e0f
     4e0:	3a0e0319 	bcc	38114c <__bss_end__+0x374e1c>
     4e4:	270b3b0b 	strcs	r3, [fp, -fp, lsl #22]
     4e8:	12011119 	andne	r1, r1, #1073741830	; 0x40000006
     4ec:	97184006 	ldrls	r4, [r8, -r6]
     4f0:	13011942 	movwne	r1, #6466	; 0x1942
     4f4:	05100000 	ldreq	r0, [r0, #-0]
     4f8:	3a080300 	bcc	201100 <__bss_end__+0x1f4dd0>
     4fc:	490b3b0b 	stmdbmi	fp, {r0, r1, r3, r8, r9, fp, ip, sp}
     500:	00170213 	andseq	r0, r7, r3, lsl r2
     504:	00341100 	eorseq	r1, r4, r0, lsl #2
     508:	13490e03 	movtne	r0, #40451	; 0x9e03
     50c:	18021934 	stmdane	r2, {r2, r4, r5, r8, fp, ip}
     510:	89120000 	ldmdbhi	r2, {}	; <UNPREDICTABLE>
     514:	11000182 	smlabbne	r0, r2, r1, r0
     518:	00133101 	andseq	r3, r3, r1, lsl #2
     51c:	82891300 	addhi	r1, r9, #0, 6
     520:	01110101 	tsteq	r1, r1, lsl #2
     524:	13011331 	movwne	r1, #4913	; 0x1331
     528:	8a140000 	bhi	500530 <__bss_end__+0x4f4200>
     52c:	02000182 	andeq	r0, r0, #-2147483616	; 0x80000020
     530:	18429118 	stmdane	r2, {r3, r4, r8, ip, pc}^
     534:	2e150000 	cdpcs	0, 1, cr0, cr5, cr0, {0}
     538:	03193f01 	tsteq	r9, #1, 30
     53c:	3b0b3a0e 	blcc	2ced7c <__bss_end__+0x2c2a4c>
     540:	4919270b 	ldmdbmi	r9, {r0, r1, r3, r8, r9, sl, sp}
     544:	12011113 	andne	r1, r1, #-1073741820	; 0xc0000004
     548:	97184006 	ldrls	r4, [r8, -r6]
     54c:	13011942 	movwne	r1, #6466	; 0x1942
     550:	05160000 	ldreq	r0, [r6, #-0]
     554:	3a0e0300 	bcc	38115c <__bss_end__+0x374e2c>
     558:	490b3b0b 	stmdbmi	fp, {r0, r1, r3, r8, r9, fp, ip, sp}
     55c:	00170213 	andseq	r0, r7, r3, lsl r2
     560:	010b1700 	tsteq	fp, r0, lsl #14
     564:	00001755 	andeq	r1, r0, r5, asr r7
     568:	03003418 	movweq	r3, #1048	; 0x418
     56c:	3b0b3a08 	blcc	2ced94 <__bss_end__+0x2c2a64>
     570:	0213490b 	andseq	r4, r3, #180224	; 0x2c000
     574:	19000017 	stmdbne	r0, {r0, r1, r2, r4}
     578:	193f002e 	ldmdbne	pc!, {r1, r2, r3, r5}	; <UNPREDICTABLE>
     57c:	0b3a0e03 	bleq	e83d90 <__bss_end__+0xe77a60>
     580:	19270b3b 	stmdbne	r7!, {r0, r1, r3, r4, r5, r8, r9, fp}
     584:	0000193c 	andeq	r1, r0, ip, lsr r9
     588:	3f012e1a 	svccc	0x00012e1a
     58c:	3a0e0319 	bcc	3811f8 <__bss_end__+0x374ec8>
     590:	270b3b0b 	strcs	r3, [fp, -fp, lsl #22]
     594:	3c134919 	ldccc	9, cr4, [r3], {25}
     598:	00130119 	andseq	r0, r3, r9, lsl r1
     59c:	00051b00 	andeq	r1, r5, r0, lsl #22
     5a0:	00001349 	andeq	r1, r0, r9, asr #6
     5a4:	0000181c 	andeq	r1, r0, ip, lsl r8
     5a8:	11010000 	mrsne	r0, (UNDEF: 1)
     5ac:	130e2501 	movwne	r2, #58625	; 0xe501
     5b0:	1b0e030b 	blne	3811e4 <__bss_end__+0x374eb4>
     5b4:	1201110e 	andne	r1, r1, #-2147483645	; 0x80000003
     5b8:	00171006 	andseq	r1, r7, r6
     5bc:	00240200 	eoreq	r0, r4, r0, lsl #4
     5c0:	0b3e0b0b 	bleq	f831f4 <__bss_end__+0xf76ec4>
     5c4:	00000e03 	andeq	r0, r0, r3, lsl #28
     5c8:	0b002403 	bleq	95dc <mbr_part_str+0x2b0>
     5cc:	030b3e0b 	movweq	r3, #48651	; 0xbe0b
     5d0:	04000008 	streq	r0, [r0], #-8
     5d4:	0b0b000f 	bleq	2c0618 <__bss_end__+0x2b42e8>
     5d8:	0f050000 	svceq	0x00050000
     5dc:	490b0b00 	stmdbmi	fp, {r8, r9, fp}
     5e0:	06000013 			; <UNDEFINED> instruction: 0x06000013
     5e4:	0e030016 	mcreq	0, 0, r0, cr3, cr6, {0}
     5e8:	0b3b0b3a 	bleq	ec32d8 <__bss_end__+0xeb6fa8>
     5ec:	00001349 	andeq	r1, r0, r9, asr #6
     5f0:	3f012e07 	svccc	0x00012e07
     5f4:	3a0e0319 	bcc	381260 <__bss_end__+0x374f30>
     5f8:	270b3b0b 	strcs	r3, [fp, -fp, lsl #22]
     5fc:	11134919 	tstne	r3, r9, lsl r9
     600:	40061201 	andmi	r1, r6, r1, lsl #4
     604:	19429718 	stmdbne	r2, {r3, r4, r8, r9, sl, ip, pc}^
     608:	00001301 	andeq	r1, r0, r1, lsl #6
     60c:	03000508 	movweq	r0, #1288	; 0x508
     610:	3b0b3a08 	blcc	2cee38 <__bss_end__+0x2c2b08>
     614:	0213490b 	andseq	r4, r3, #180224	; 0x2c000
     618:	09000018 	stmdbeq	r0, {r3, r4}
     61c:	0e030005 	cdpeq	0, 0, cr0, cr3, cr5, {0}
     620:	0b3b0b3a 	bleq	ec3310 <__bss_end__+0xeb6fe0>
     624:	17021349 	strne	r1, [r2, -r9, asr #6]
     628:	0b0a0000 	bleq	280630 <__bss_end__+0x274300>
     62c:	12011101 	andne	r1, r1, #1073741824	; 0x40000000
     630:	00130106 	andseq	r0, r3, r6, lsl #2
     634:	00340b00 	eorseq	r0, r4, r0, lsl #22
     638:	0b3a0803 	bleq	e8264c <__bss_end__+0xe7631c>
     63c:	13490b3b 	movtne	r0, #39739	; 0x9b3b
     640:	00001702 	andeq	r1, r0, r2, lsl #14
     644:	11010b0c 	tstne	r1, ip, lsl #22
     648:	00061201 	andeq	r1, r6, r1, lsl #4
     64c:	010b0d00 	tsteq	fp, r0, lsl #26
     650:	00001755 	andeq	r1, r0, r5, asr r7
     654:	0300340e 	movweq	r3, #1038	; 0x40e
     658:	3b0b3a08 	blcc	2cee80 <__bss_end__+0x2c2b50>
     65c:	0013490b 	andseq	r4, r3, fp, lsl #18
     660:	00260f00 	eoreq	r0, r6, r0, lsl #30
     664:	26100000 	ldrcs	r0, [r0], -r0
     668:	00134900 	andseq	r4, r3, r0, lsl #18
     66c:	11010000 	mrsne	r0, (UNDEF: 1)
     670:	130e2501 	movwne	r2, #58625	; 0xe501
     674:	1b0e030b 	blne	3812a8 <__bss_end__+0x374f78>
     678:	1201110e 	andne	r1, r1, #-2147483645	; 0x80000003
     67c:	00171006 	andseq	r1, r7, r6
     680:	00160200 	andseq	r0, r6, r0, lsl #4
     684:	0b3a0e03 	bleq	e83e98 <__bss_end__+0xe77b68>
     688:	13490b3b 	movtne	r0, #39739	; 0x9b3b
     68c:	13030000 	movwne	r0, #12288	; 0x3000
     690:	0b0e0301 	bleq	38129c <__bss_end__+0x374f6c>
     694:	3b0b3a0b 	blcc	2ceec8 <__bss_end__+0x2c2b98>
     698:	0013010b 	andseq	r0, r3, fp, lsl #2
     69c:	000d0400 	andeq	r0, sp, r0, lsl #8
     6a0:	13490e03 	movtne	r0, #40451	; 0x9e03
     6a4:	19340b38 	ldmdbne	r4!, {r3, r4, r5, r8, r9, fp}
     6a8:	0f050000 	svceq	0x00050000
     6ac:	000b0b00 	andeq	r0, fp, r0, lsl #22
     6b0:	00240600 	eoreq	r0, r4, r0, lsl #12
     6b4:	0b3e0b0b 	bleq	f832e8 <__bss_end__+0xf76fb8>
     6b8:	00000803 	andeq	r0, r0, r3, lsl #16
     6bc:	0b002407 	bleq	96e0 <mbr_part_str+0x3b4>
     6c0:	030b3e0b 	movweq	r3, #48651	; 0xbe0b
     6c4:	0800000e 	stmdaeq	r0, {r1, r2, r3}
     6c8:	0b0b000f 	bleq	2c070c <__bss_end__+0x2b43dc>
     6cc:	00001349 	andeq	r1, r0, r9, asr #6
     6d0:	49002609 	stmdbmi	r0, {r0, r3, r9, sl, sp}
     6d4:	0a000013 	beq	728 <_start-0x78d8>
     6d8:	193f012e 	ldmdbne	pc!, {r1, r2, r3, r5, r8}	; <UNPREDICTABLE>
     6dc:	0b3a0e03 	bleq	e83ef0 <__bss_end__+0xe77bc0>
     6e0:	19270b3b 	stmdbne	r7!, {r0, r1, r3, r4, r5, r8, r9, fp}
     6e4:	01111349 	tsteq	r1, r9, asr #6
     6e8:	18400612 	stmdane	r0, {r1, r4, r9, sl}^
     6ec:	01194297 			; <UNDEFINED> instruction: 0x01194297
     6f0:	0b000013 	bleq	744 <_start-0x78bc>
     6f4:	08030005 	stmdaeq	r3, {r0, r2}
     6f8:	0b3b0b3a 	bleq	ec33e8 <__bss_end__+0xeb70b8>
     6fc:	18021349 	stmdane	r2, {r0, r3, r6, r8, r9, ip}
     700:	180c0000 	stmdane	ip, {}	; <UNPREDICTABLE>
     704:	0d000000 	stceq	0, cr0, [r0, #-0]
     708:	08030034 	stmdaeq	r3, {r2, r4, r5}
     70c:	0b3b0b3a 	bleq	ec33fc <__bss_end__+0xeb70cc>
     710:	18021349 	stmdane	r2, {r0, r3, r6, r8, r9, ip}
     714:	340e0000 	strcc	r0, [lr], #-0
     718:	3a0e0300 	bcc	381320 <__bss_end__+0x374ff0>
     71c:	490b3b0b 	stmdbmi	fp, {r0, r1, r3, r8, r9, fp, ip, sp}
     720:	00180213 	andseq	r0, r8, r3, lsl r2
     724:	00340f00 	eorseq	r0, r4, r0, lsl #30
     728:	0b3a0803 	bleq	e8273c <__bss_end__+0xe7640c>
     72c:	13490b3b 	movtne	r0, #39739	; 0x9b3b
     730:	00001702 	andeq	r1, r0, r2, lsl #14
     734:	01828910 	orreq	r8, r2, r0, lsl r9
     738:	31011101 	tstcc	r1, r1, lsl #2
     73c:	00130113 	andseq	r0, r3, r3, lsl r1
     740:	828a1100 	addhi	r1, sl, #0, 2
     744:	18020001 	stmdane	r2, {r0}
     748:	00184291 	mulseq	r8, r1, r2
     74c:	82891200 	addhi	r1, r9, #0, 4
     750:	01110101 	tsteq	r1, r1, lsl #2
     754:	01130000 	tsteq	r3, r0
     758:	01134901 	tsteq	r3, r1, lsl #18
     75c:	14000013 	strne	r0, [r0], #-19
     760:	13490021 	movtne	r0, #36897	; 0x9021
     764:	0000052f 	andeq	r0, r0, pc, lsr #10
     768:	27011515 	smladcs	r1, r5, r5, r1
     76c:	01134919 	tsteq	r3, r9, lsl r9
     770:	16000013 			; <UNDEFINED> instruction: 0x16000013
     774:	13490005 	movtne	r0, #36869	; 0x9005
     778:	34170000 	ldrcc	r0, [r7], #-0
     77c:	3a0e0300 	bcc	381384 <__bss_end__+0x375054>
     780:	490b3b0b 	stmdbmi	fp, {r0, r1, r3, r8, r9, fp, ip, sp}
     784:	3c193f13 	ldccc	15, cr3, [r9], {19}
     788:	18000019 	stmdane	r0, {r0, r3, r4}
     78c:	193f012e 	ldmdbne	pc!, {r1, r2, r3, r5, r8}	; <UNPREDICTABLE>
     790:	0b3a0e03 	bleq	e83fa4 <__bss_end__+0xe77c74>
     794:	19270b3b 	stmdbne	r7!, {r0, r1, r3, r4, r5, r8, r9, fp}
     798:	193c1349 	ldmdbne	ip!, {r0, r3, r6, r8, r9, ip}
     79c:	01000000 	mrseq	r0, (UNDEF: 0)
     7a0:	0e250111 	mcreq	1, 1, r0, cr5, cr1, {0}
     7a4:	0e030b13 	vmoveq.32	d3[0], r0
     7a8:	01110e1b 	tsteq	r1, fp, lsl lr
     7ac:	17100612 			; <UNDEFINED> instruction: 0x17100612
     7b0:	24020000 	strcs	r0, [r2], #-0
     7b4:	3e0b0b00 	vmlacc.f64	d0, d11, d0
     7b8:	0008030b 	andeq	r0, r8, fp, lsl #6
     7bc:	00240300 	eoreq	r0, r4, r0, lsl #6
     7c0:	0b3e0b0b 	bleq	f833f4 <__bss_end__+0xf770c4>
     7c4:	00000e03 	andeq	r0, r0, r3, lsl #28
     7c8:	03012e04 	movweq	r2, #7684	; 0x1e04
     7cc:	3b0b3a0e 	blcc	2cf00c <__bss_end__+0x2c2cdc>
     7d0:	4919270b 	ldmdbmi	r9, {r0, r1, r3, r8, r9, sl, sp}
     7d4:	12011113 	andne	r1, r1, #-1073741820	; 0xc0000004
     7d8:	97184006 	ldrls	r4, [r8, -r6]
     7dc:	13011942 	movwne	r1, #6466	; 0x1942
     7e0:	05050000 	streq	r0, [r5, #-0]
     7e4:	3a080300 	bcc	2013ec <__bss_end__+0x1f50bc>
     7e8:	490b3b0b 	stmdbmi	fp, {r0, r1, r3, r8, r9, fp, ip, sp}
     7ec:	00170213 	andseq	r0, r7, r3, lsl r2
     7f0:	82890600 	addhi	r0, r9, #0, 12
     7f4:	01110101 	tsteq	r1, r1, lsl #2
     7f8:	00001331 	andeq	r1, r0, r1, lsr r3
     7fc:	01828a07 	orreq	r8, r2, r7, lsl #20
     800:	91180200 	tstls	r8, r0, lsl #4
     804:	00001842 	andeq	r1, r0, r2, asr #16
     808:	3f002e08 	svccc	0x00002e08
     80c:	3a0e0319 	bcc	381478 <__bss_end__+0x375148>
     810:	270b3b0b 	strcs	r3, [fp, -fp, lsl #22]
     814:	12011119 	andne	r1, r1, #1073741830	; 0x40000006
     818:	97184006 	ldrls	r4, [r8, -r6]
     81c:	00001942 	andeq	r1, r0, r2, asr #18
     820:	3f012e09 	svccc	0x00012e09
     824:	3a0e0319 	bcc	381490 <__bss_end__+0x375160>
     828:	270b3b0b 	strcs	r3, [fp, -fp, lsl #22]
     82c:	12011119 	andne	r1, r1, #1073741830	; 0x40000006
     830:	97184006 	ldrls	r4, [r8, -r6]
     834:	13011942 	movwne	r1, #6466	; 0x1942
     838:	050a0000 	streq	r0, [sl, #-0]
     83c:	3a080300 	bcc	201444 <__bss_end__+0x1f5114>
     840:	490b3b0b 	stmdbmi	fp, {r0, r1, r3, r8, r9, fp, ip, sp}
     844:	00180213 	andseq	r0, r8, r3, lsl r2
     848:	01150b00 	tsteq	r5, r0, lsl #22
     84c:	13491927 	movtne	r1, #39207	; 0x9927
     850:	00001301 	andeq	r1, r0, r1, lsl #6
     854:	4900050c 	stmdbmi	r0, {r2, r3, r8, sl}
     858:	0d000013 	stceq	0, cr0, [r0, #-76]	; 0xffffffb4
     85c:	0b0b000f 	bleq	2c08a0 <__bss_end__+0x2b4570>
     860:	00001349 	andeq	r1, r0, r9, asr #6
     864:	0300340e 	movweq	r3, #1038	; 0x40e
     868:	3b0b3a0e 	blcc	2cf0a8 <__bss_end__+0x2c2d78>
     86c:	3f13490b 	svccc	0x0013490b
     870:	00180219 	andseq	r0, r8, r9, lsl r2
     874:	012e0f00 	teqeq	lr, r0, lsl #30
     878:	0e03193f 	mcreq	9, 0, r1, cr3, cr15, {1}
     87c:	0b3b0b3a 	bleq	ec356c <__bss_end__+0xeb723c>
     880:	193c1927 	ldmdbne	ip!, {r0, r1, r2, r5, r8, fp, ip}
     884:	01000000 	mrseq	r0, (UNDEF: 0)
     888:	0e250111 	mcreq	1, 1, r0, cr5, cr1, {0}
     88c:	0e030b13 	vmoveq.32	d3[0], r0
     890:	01110e1b 	tsteq	r1, fp, lsl lr
     894:	17100612 			; <UNDEFINED> instruction: 0x17100612
     898:	24020000 	strcs	r0, [r2], #-0
     89c:	3e0b0b00 	vmlacc.f64	d0, d11, d0
     8a0:	0008030b 	andeq	r0, r8, fp, lsl #6
     8a4:	00240300 	eoreq	r0, r4, r0, lsl #6
     8a8:	0b3e0b0b 	bleq	f834dc <__bss_end__+0xf771ac>
     8ac:	00000e03 	andeq	r0, r0, r3, lsl #28
     8b0:	0b000f04 	bleq	44c8 <_start-0x3b38>
     8b4:	0013490b 	andseq	r4, r3, fp, lsl #18
     8b8:	00260500 	eoreq	r0, r6, r0, lsl #10
     8bc:	00001349 	andeq	r1, r0, r9, asr #6
     8c0:	3f012e06 	svccc	0x00012e06
     8c4:	3a0e0319 	bcc	381530 <__bss_end__+0x375200>
     8c8:	270b3b0b 	strcs	r3, [fp, -fp, lsl #22]
     8cc:	11134919 	tstne	r3, r9, lsl r9
     8d0:	40061201 	andmi	r1, r6, r1, lsl #4
     8d4:	19429618 	stmdbne	r2, {r3, r4, r9, sl, ip, pc}^
     8d8:	00001301 	andeq	r1, r0, r1, lsl #6
     8dc:	03000507 	movweq	r0, #1287	; 0x507
     8e0:	3b0b3a08 	blcc	2cf108 <__bss_end__+0x2c2dd8>
     8e4:	0213490b 	andseq	r4, r3, #180224	; 0x2c000
     8e8:	08000017 	stmdaeq	r0, {r0, r1, r2, r4}
     8ec:	19270115 	stmdbne	r7!, {r0, r2, r4, r8}
     8f0:	13011349 	movwne	r1, #4937	; 0x1349
     8f4:	05090000 	streq	r0, [r9, #-0]
     8f8:	00134900 	andseq	r4, r3, r0, lsl #18
     8fc:	00340a00 	eorseq	r0, r4, r0, lsl #20
     900:	0b3a0e03 	bleq	e84114 <__bss_end__+0xe77de4>
     904:	13490b3b 	movtne	r0, #39739	; 0x9b3b
     908:	193c193f 	ldmdbne	ip!, {r0, r1, r2, r3, r4, r5, r8, fp, ip}
     90c:	340b0000 	strcc	r0, [fp], #-0
     910:	3a0e0300 	bcc	381518 <__bss_end__+0x3751e8>
     914:	490b3b0b 	stmdbmi	fp, {r0, r1, r3, r8, r9, fp, ip, sp}
     918:	02193f13 	andseq	r3, r9, #19, 30	; 0x4c
     91c:	00000018 	andeq	r0, r0, r8, lsl r0
     920:	25011101 	strcs	r1, [r1, #-257]	; 0x101
     924:	030b130e 	movweq	r1, #45838	; 0xb30e
     928:	110e1b0e 	tstne	lr, lr, lsl #22
     92c:	10061201 	andne	r1, r6, r1, lsl #4
     930:	02000017 	andeq	r0, r0, #23
     934:	0b0b0024 	bleq	2c09cc <__bss_end__+0x2b469c>
     938:	08030b3e 	stmdaeq	r3, {r1, r2, r3, r4, r5, r8, r9, fp}
     93c:	24030000 	strcs	r0, [r3], #-0
     940:	3e0b0b00 	vmlacc.f64	d0, d11, d0
     944:	000e030b 	andeq	r0, lr, fp, lsl #6
     948:	000f0400 	andeq	r0, pc, r0, lsl #8
     94c:	13490b0b 	movtne	r0, #39691	; 0x9b0b
     950:	26050000 	strcs	r0, [r5], -r0
     954:	00134900 	andseq	r4, r3, r0, lsl #18
     958:	012e0600 	teqeq	lr, r0, lsl #12
     95c:	0e03193f 	mcreq	9, 0, r1, cr3, cr15, {1}
     960:	0b3b0b3a 	bleq	ec3650 <__bss_end__+0xeb7320>
     964:	13491927 	movtne	r1, #39207	; 0x9927
     968:	06120111 			; <UNDEFINED> instruction: 0x06120111
     96c:	42971840 	addsmi	r1, r7, #64, 16	; 0x400000
     970:	00130119 	andseq	r0, r3, r9, lsl r1
     974:	00050700 	andeq	r0, r5, r0, lsl #14
     978:	0b3a0803 	bleq	e8298c <__bss_end__+0xe7665c>
     97c:	13490b3b 	movtne	r0, #39739	; 0x9b3b
     980:	00001702 	andeq	r1, r0, r2, lsl #14
     984:	01828908 	orreq	r8, r2, r8, lsl #18
     988:	31011101 	tstcc	r1, r1, lsl #2
     98c:	09000013 	stmdbeq	r0, {r0, r1, r4}
     990:	0001828a 	andeq	r8, r1, sl, lsl #5
     994:	42911802 	addsmi	r1, r1, #131072	; 0x20000
     998:	0a000018 	beq	a00 <_start-0x7600>
     99c:	193f012e 	ldmdbne	pc!, {r1, r2, r3, r5, r8}	; <UNPREDICTABLE>
     9a0:	0b3a0e03 	bleq	e841b4 <__bss_end__+0xe77e84>
     9a4:	19270b3b 	stmdbne	r7!, {r0, r1, r3, r4, r5, r8, r9, fp}
     9a8:	193c1349 	ldmdbne	ip!, {r0, r3, r6, r8, r9, ip}
     9ac:	050b0000 	streq	r0, [fp, #-0]
     9b0:	00134900 	andseq	r4, r3, r0, lsl #18
     9b4:	00180c00 	andseq	r0, r8, r0, lsl #24
     9b8:	01000000 	mrseq	r0, (UNDEF: 0)
     9bc:	0e250111 	mcreq	1, 1, r0, cr5, cr1, {0}
     9c0:	0e030b13 	vmoveq.32	d3[0], r0
     9c4:	01110e1b 	tsteq	r1, fp, lsl lr
     9c8:	17100612 			; <UNDEFINED> instruction: 0x17100612
     9cc:	24020000 	strcs	r0, [r2], #-0
     9d0:	3e0b0b00 	vmlacc.f64	d0, d11, d0
     9d4:	0008030b 	andeq	r0, r8, fp, lsl #6
     9d8:	00240300 	eoreq	r0, r4, r0, lsl #6
     9dc:	0b3e0b0b 	bleq	f83610 <__bss_end__+0xf772e0>
     9e0:	00000e03 	andeq	r0, r0, r3, lsl #28
     9e4:	0b000f04 	bleq	45fc <_start-0x3a04>
     9e8:	0500000b 	streq	r0, [r0, #-11]
     9ec:	0b0b000f 	bleq	2c0a30 <__bss_end__+0x2b4700>
     9f0:	00001349 	andeq	r1, r0, r9, asr #6
     9f4:	49002606 	stmdbmi	r0, {r1, r2, r9, sl, sp}
     9f8:	07000013 	smladeq	r0, r3, r0, r0
     9fc:	0e030016 	mcreq	0, 0, r0, cr3, cr6, {0}
     a00:	0b3b0b3a 	bleq	ec36f0 <__bss_end__+0xeb73c0>
     a04:	00001349 	andeq	r1, r0, r9, asr #6
     a08:	03011308 	movweq	r1, #4872	; 0x1308
     a0c:	3a0b0b0e 	bcc	2c364c <__bss_end__+0x2b731c>
     a10:	010b3b0b 	tsteq	fp, fp, lsl #22
     a14:	09000013 	stmdbeq	r0, {r0, r1, r4}
     a18:	0e03000d 	cdpeq	0, 0, cr0, cr3, cr13, {0}
     a1c:	0b381349 	bleq	e05748 <__bss_end__+0xdf9418>
     a20:	00001934 	andeq	r1, r0, r4, lsr r9
     a24:	03012e0a 	movweq	r2, #7690	; 0x1e0a
     a28:	3b0b3a0e 	blcc	2cf268 <__bss_end__+0x2c2f38>
     a2c:	4919270b 	ldmdbmi	r9, {r0, r1, r3, r8, r9, sl, sp}
     a30:	12011113 	andne	r1, r1, #-1073741820	; 0xc0000004
     a34:	97184006 	ldrls	r4, [r8, -r6]
     a38:	13011942 	movwne	r1, #6466	; 0x1942
     a3c:	050b0000 	streq	r0, [fp, #-0]
     a40:	3a080300 	bcc	201648 <__bss_end__+0x1f5318>
     a44:	490b3b0b 	stmdbmi	fp, {r0, r1, r3, r8, r9, fp, ip, sp}
     a48:	00170213 	andseq	r0, r7, r3, lsl r2
     a4c:	012e0c00 	teqeq	lr, r0, lsl #24
     a50:	0b3a0803 	bleq	e82a64 <__bss_end__+0xe76734>
     a54:	19270b3b 	stmdbne	r7!, {r0, r1, r3, r4, r5, r8, r9, fp}
     a58:	01111349 	tsteq	r1, r9, asr #6
     a5c:	18400612 	stmdane	r0, {r1, r4, r9, sl}^
     a60:	01194297 			; <UNDEFINED> instruction: 0x01194297
     a64:	0d000013 	stceq	0, cr0, [r0, #-76]	; 0xffffffb4
     a68:	0e030005 	cdpeq	0, 0, cr0, cr3, cr5, {0}
     a6c:	0b3b0b3a 	bleq	ec375c <__bss_end__+0xeb742c>
     a70:	17021349 	strne	r1, [r2, -r9, asr #6]
     a74:	050e0000 	streq	r0, [lr, #-0]
     a78:	3a0e0300 	bcc	381680 <__bss_end__+0x375350>
     a7c:	490b3b0b 	stmdbmi	fp, {r0, r1, r3, r8, r9, fp, ip, sp}
     a80:	00180213 	andseq	r0, r8, r3, lsl r2
     a84:	00340f00 	eorseq	r0, r4, r0, lsl #30
     a88:	0b3a0803 	bleq	e82a9c <__bss_end__+0xe7676c>
     a8c:	13490b3b 	movtne	r0, #39739	; 0x9b3b
     a90:	00001802 	andeq	r1, r0, r2, lsl #16
     a94:	03003410 	movweq	r3, #1040	; 0x410
     a98:	3b0b3a08 	blcc	2cf2c0 <__bss_end__+0x2c2f90>
     a9c:	0213490b 	andseq	r4, r3, #180224	; 0x2c000
     aa0:	11000017 	tstne	r0, r7, lsl r0
     aa4:	0e030034 	mcreq	0, 0, r0, cr3, cr4, {1}
     aa8:	19341349 	ldmdbne	r4!, {r0, r3, r6, r8, r9, ip}
     aac:	00001802 	andeq	r1, r0, r2, lsl #16
     ab0:	11010b12 	tstne	r1, r2, lsl fp
     ab4:	01061201 	tsteq	r6, r1, lsl #4
     ab8:	13000013 	movwne	r0, #19
     abc:	0e030034 	mcreq	0, 0, r0, cr3, cr4, {1}
     ac0:	0b3b0b3a 	bleq	ec37b0 <__bss_end__+0xeb7480>
     ac4:	17021349 	strne	r1, [r2, -r9, asr #6]
     ac8:	89140000 	ldmdbhi	r4, {}	; <UNPREDICTABLE>
     acc:	11000182 	smlabbne	r0, r2, r1, r0
     ad0:	00133101 	andseq	r3, r3, r1, lsl #2
     ad4:	82891500 	addhi	r1, r9, #0, 10
     ad8:	01110101 	tsteq	r1, r1, lsl #2
     adc:	13011331 	movwne	r1, #4913	; 0x1331
     ae0:	8a160000 	bhi	580ae8 <__bss_end__+0x5747b8>
     ae4:	02000182 	andeq	r0, r0, #-2147483616	; 0x80000020
     ae8:	18429118 	stmdane	r2, {r3, r4, r8, ip, pc}^
     aec:	89170000 	ldmdbhi	r7, {}	; <UNPREDICTABLE>
     af0:	11010182 	smlabbne	r1, r2, r1, r0
     af4:	00133101 	andseq	r3, r3, r1, lsl #2
     af8:	01011800 	tsteq	r1, r0, lsl #16
     afc:	13011349 	movwne	r1, #4937	; 0x1349
     b00:	21190000 	tstcs	r9, r0
     b04:	2f134900 	svccs	0x00134900
     b08:	1a00000b 	bne	b3c <_start-0x74c4>
     b0c:	193f012e 	ldmdbne	pc!, {r1, r2, r3, r5, r8}	; <UNPREDICTABLE>
     b10:	0b3a0e03 	bleq	e84324 <__bss_end__+0xe77ff4>
     b14:	19270b3b 	stmdbne	r7!, {r0, r1, r3, r4, r5, r8, r9, fp}
     b18:	06120111 			; <UNDEFINED> instruction: 0x06120111
     b1c:	42971840 	addsmi	r1, r7, #64, 16	; 0x400000
     b20:	00130119 	andseq	r0, r3, r9, lsl r1
     b24:	01151b00 	tsteq	r5, r0, lsl #22
     b28:	13491927 	movtne	r1, #39207	; 0x9927
     b2c:	00001301 	andeq	r1, r0, r1, lsl #6
     b30:	4900051c 	stmdbmi	r0, {r2, r3, r4, r8, sl}
     b34:	1d000013 	stcne	0, cr0, [r0, #-76]	; 0xffffffb4
     b38:	193f012e 	ldmdbne	pc!, {r1, r2, r3, r5, r8}	; <UNPREDICTABLE>
     b3c:	0b3a0e03 	bleq	e84350 <__bss_end__+0xe78020>
     b40:	19270b3b 	stmdbne	r7!, {r0, r1, r3, r4, r5, r8, r9, fp}
     b44:	01111349 	tsteq	r1, r9, asr #6
     b48:	18400612 	stmdane	r0, {r1, r4, r9, sl}^
     b4c:	01194297 			; <UNDEFINED> instruction: 0x01194297
     b50:	1e000013 	mcrne	0, 0, r0, cr0, cr3, {0}
     b54:	1755010b 	ldrbne	r0, [r5, -fp, lsl #2]
     b58:	341f0000 	ldrcc	r0, [pc], #-0	; b60 <_start-0x74a0>
     b5c:	3a0e0300 	bcc	381764 <__bss_end__+0x375434>
     b60:	490b3b0b 	stmdbmi	fp, {r0, r1, r3, r8, r9, fp, ip, sp}
     b64:	3c193f13 	ldccc	15, cr3, [r9], {19}
     b68:	20000019 	andcs	r0, r0, r9, lsl r0
     b6c:	193f002e 	ldmdbne	pc!, {r1, r2, r3, r5}	; <UNPREDICTABLE>
     b70:	0b3a0e03 	bleq	e84384 <__bss_end__+0xe78054>
     b74:	19270b3b 	stmdbne	r7!, {r0, r1, r3, r4, r5, r8, r9, fp}
     b78:	0000193c 	andeq	r1, r0, ip, lsr r9
     b7c:	3f012e21 	svccc	0x00012e21
     b80:	3a0e0319 	bcc	3817ec <__bss_end__+0x3754bc>
     b84:	270b3b0b 	strcs	r3, [fp, -fp, lsl #22]
     b88:	3c134919 	ldccc	9, cr4, [r3], {25}
     b8c:	00130119 	andseq	r0, r3, r9, lsl r1
     b90:	00182200 	andseq	r2, r8, r0, lsl #4
     b94:	01000000 	mrseq	r0, (UNDEF: 0)
     b98:	0e250111 	mcreq	1, 1, r0, cr5, cr1, {0}
     b9c:	0e030b13 	vmoveq.32	d3[0], r0
     ba0:	01110e1b 	tsteq	r1, fp, lsl lr
     ba4:	17100612 			; <UNDEFINED> instruction: 0x17100612
     ba8:	24020000 	strcs	r0, [r2], #-0
     bac:	3e0b0b00 	vmlacc.f64	d0, d11, d0
     bb0:	0008030b 	andeq	r0, r8, fp, lsl #6
     bb4:	00240300 	eoreq	r0, r4, r0, lsl #6
     bb8:	0b3e0b0b 	bleq	f837ec <__bss_end__+0xf774bc>
     bbc:	00000e03 	andeq	r0, r0, r3, lsl #28
     bc0:	0b000f04 	bleq	47d8 <_start-0x3828>
     bc4:	0013490b 	andseq	r4, r3, fp, lsl #18
     bc8:	00260500 	eoreq	r0, r6, r0, lsl #10
     bcc:	00001349 	andeq	r1, r0, r9, asr #6
     bd0:	3f012e06 	svccc	0x00012e06
     bd4:	3a0e0319 	bcc	381840 <__bss_end__+0x375510>
     bd8:	270b3b0b 	strcs	r3, [fp, -fp, lsl #22]
     bdc:	12011119 	andne	r1, r1, #1073741830	; 0x40000006
     be0:	97184006 	ldrls	r4, [r8, -r6]
     be4:	13011942 	movwne	r1, #6466	; 0x1942
     be8:	89070000 	stmdbhi	r7, {}	; <UNPREDICTABLE>
     bec:	11010182 	smlabbne	r1, r2, r1, r0
     bf0:	00130101 	andseq	r0, r3, r1, lsl #2
     bf4:	828a0800 	addhi	r0, sl, #0, 16
     bf8:	18020001 	stmdane	r2, {r0}
     bfc:	00184291 	mulseq	r8, r1, r2
     c00:	82890900 	addhi	r0, r9, #0, 18
     c04:	01110101 	tsteq	r1, r1, lsl #2
     c08:	13011331 	movwne	r1, #4913	; 0x1331
     c0c:	890a0000 	stmdbhi	sl, {}	; <UNPREDICTABLE>
     c10:	11000182 	smlabbne	r0, r2, r1, r0
     c14:	00133101 	andseq	r3, r3, r1, lsl #2
     c18:	01150b00 	tsteq	r5, r0, lsl #22
     c1c:	13491927 	movtne	r1, #39207	; 0x9927
     c20:	00001301 	andeq	r1, r0, r1, lsl #6
     c24:	4900050c 	stmdbmi	r0, {r2, r3, r8, sl}
     c28:	0d000013 	stceq	0, cr0, [r0, #-76]	; 0xffffffb4
     c2c:	0e030034 	mcreq	0, 0, r0, cr3, cr4, {1}
     c30:	0b3b0b3a 	bleq	ec3920 <__bss_end__+0xeb75f0>
     c34:	193f1349 	ldmdbne	pc!, {r0, r3, r6, r8, r9, ip}	; <UNPREDICTABLE>
     c38:	0000193c 	andeq	r1, r0, ip, lsr r9
     c3c:	3f012e0e 	svccc	0x00012e0e
     c40:	3a0e0319 	bcc	3818ac <__bss_end__+0x37557c>
     c44:	270b3b0b 	strcs	r3, [fp, -fp, lsl #22]
     c48:	01193c19 	tsteq	r9, r9, lsl ip
     c4c:	0f000013 	svceq	0x00000013
     c50:	193f002e 	ldmdbne	pc!, {r1, r2, r3, r5}	; <UNPREDICTABLE>
     c54:	0b3a0e03 	bleq	e84468 <__bss_end__+0xe78138>
     c58:	19270b3b 	stmdbne	r7!, {r0, r1, r3, r4, r5, r8, r9, fp}
     c5c:	0000193c 	andeq	r1, r0, ip, lsr r9
     c60:	01110100 	tsteq	r1, r0, lsl #2
     c64:	0b130e25 	bleq	4c4500 <__bss_end__+0x4b81d0>
     c68:	0e1b0e03 	cdpeq	14, 1, cr0, cr11, cr3, {0}
     c6c:	06120111 			; <UNDEFINED> instruction: 0x06120111
     c70:	00001710 	andeq	r1, r0, r0, lsl r7
     c74:	0b002402 	bleq	9c84 <emit+0x44>
     c78:	030b3e0b 	movweq	r3, #48651	; 0xbe0b
     c7c:	03000008 	movweq	r0, #8
     c80:	0b0b0024 	bleq	2c0d18 <__bss_end__+0x2b49e8>
     c84:	0e030b3e 	vmoveq.16	d3[0], r0
     c88:	16040000 	strne	r0, [r4], -r0
     c8c:	3a0e0300 	bcc	381894 <__bss_end__+0x375564>
     c90:	490b3b0b 	stmdbmi	fp, {r0, r1, r3, r8, r9, fp, ip, sp}
     c94:	05000013 	streq	r0, [r0, #-19]
     c98:	0b0b000f 	bleq	2c0cdc <__bss_end__+0x2b49ac>
     c9c:	00001349 	andeq	r1, r0, r9, asr #6
     ca0:	49002606 	stmdbmi	r0, {r1, r2, r9, sl, sp}
     ca4:	07000013 	smladeq	r0, r3, r0, r0
     ca8:	0b0b0113 	bleq	2c10fc <__bss_end__+0x2b4dcc>
     cac:	0b3b0b3a 	bleq	ec399c <__bss_end__+0xeb766c>
     cb0:	00001301 	andeq	r1, r0, r1, lsl #6
     cb4:	03000d08 	movweq	r0, #3336	; 0xd08
     cb8:	3b0b3a08 	blcc	2cf4e0 <__bss_end__+0x2c31b0>
     cbc:	3813490b 	ldmdacc	r3, {r0, r1, r3, r8, fp, lr}
     cc0:	0900000b 	stmdbeq	r0, {r0, r1, r3}
     cc4:	0e03000d 	cdpeq	0, 0, cr0, cr3, cr13, {0}
     cc8:	0b3b0b3a 	bleq	ec39b8 <__bss_end__+0xeb7688>
     ccc:	0b381349 	bleq	e059f8 <__bss_end__+0xdf96c8>
     cd0:	040a0000 	streq	r0, [sl], #-0
     cd4:	3a0b0b01 	bcc	2c38e0 <__bss_end__+0x2b75b0>
     cd8:	010b3b0b 	tsteq	fp, fp, lsl #22
     cdc:	0b000013 	bleq	d30 <_start-0x72d0>
     ce0:	0e030028 	cdpeq	0, 0, cr0, cr3, cr8, {1}
     ce4:	00000d1c 	andeq	r0, r0, ip, lsl sp
     ce8:	03012e0c 	movweq	r2, #7692	; 0x1e0c
     cec:	3b0b3a0e 	blcc	2cf52c <__bss_end__+0x2c31fc>
     cf0:	4919270b 	ldmdbmi	r9, {r0, r1, r3, r8, r9, sl, sp}
     cf4:	12011113 	andne	r1, r1, #-1073741820	; 0xc0000004
     cf8:	97184006 	ldrls	r4, [r8, -r6]
     cfc:	13011942 	movwne	r1, #6466	; 0x1942
     d00:	050d0000 	streq	r0, [sp, #-0]
     d04:	3a080300 	bcc	20190c <__bss_end__+0x1f55dc>
     d08:	490b3b0b 	stmdbmi	fp, {r0, r1, r3, r8, r9, fp, ip, sp}
     d0c:	00170213 	andseq	r0, r7, r3, lsl r2
     d10:	82890e00 	addhi	r0, r9, #0, 28
     d14:	01110101 	tsteq	r1, r1, lsl #2
     d18:	00001331 	andeq	r1, r0, r1, lsr r3
     d1c:	01828a0f 	orreq	r8, r2, pc, lsl #20
     d20:	91180200 	tstls	r8, r0, lsl #4
     d24:	00001842 	andeq	r1, r0, r2, asr #16
     d28:	3f012e10 	svccc	0x00012e10
     d2c:	3a0e0319 	bcc	381998 <__bss_end__+0x375668>
     d30:	110b3b0b 	tstne	fp, fp, lsl #22
     d34:	40061201 	andmi	r1, r6, r1, lsl #4
     d38:	19429718 	stmdbne	r2, {r3, r4, r8, r9, sl, ip, pc}^
     d3c:	00001301 	andeq	r1, r0, r1, lsl #6
     d40:	03003411 	movweq	r3, #1041	; 0x411
     d44:	3b0b3a0e 	blcc	2cf584 <__bss_end__+0x2c3254>
     d48:	3f13490b 	svccc	0x0013490b
     d4c:	00193c19 	andseq	r3, r9, r9, lsl ip
     d50:	002e1200 	eoreq	r1, lr, r0, lsl #4
     d54:	0e03193f 	mcreq	9, 0, r1, cr3, cr15, {1}
     d58:	0b3b0b3a 	bleq	ec3a48 <__bss_end__+0xeb7718>
     d5c:	193c1927 	ldmdbne	ip!, {r0, r1, r2, r5, r8, fp, ip}
     d60:	34130000 	ldrcc	r0, [r3], #-0
     d64:	3a080300 	bcc	20196c <__bss_end__+0x1f563c>
     d68:	490b3b0b 	stmdbmi	fp, {r0, r1, r3, r8, r9, fp, ip, sp}
     d6c:	00170213 	andseq	r0, r7, r3, lsl r2
     d70:	00341400 	eorseq	r1, r4, r0, lsl #8
     d74:	0b3a0e03 	bleq	e84588 <__bss_end__+0xe78258>
     d78:	13490b3b 	movtne	r0, #39739	; 0x9b3b
     d7c:	89150000 	ldmdbhi	r5, {}	; <UNPREDICTABLE>
     d80:	11000182 	smlabbne	r0, r2, r1, r0
     d84:	00133101 	andseq	r3, r3, r1, lsl #2
     d88:	82891600 	addhi	r1, r9, #0, 12
     d8c:	01110101 	tsteq	r1, r1, lsl #2
     d90:	13011331 	movwne	r1, #4913	; 0x1331
     d94:	34170000 	ldrcc	r0, [r7], #-0
     d98:	3a0e0300 	bcc	3819a0 <__bss_end__+0x375670>
     d9c:	490b3b0b 	stmdbmi	fp, {r0, r1, r3, r8, r9, fp, ip, sp}
     da0:	00180213 	andseq	r0, r8, r3, lsl r2
     da4:	01151800 	tsteq	r5, r0, lsl #16
     da8:	13491927 	movtne	r1, #39207	; 0x9927
     dac:	00001301 	andeq	r1, r0, r1, lsl #6
     db0:	49000519 	stmdbmi	r0, {r0, r3, r4, r8, sl}
     db4:	1a000013 	bne	e08 <_start-0x71f8>
     db8:	193f012e 	ldmdbne	pc!, {r1, r2, r3, r5, r8}	; <UNPREDICTABLE>
     dbc:	0b3a0e03 	bleq	e845d0 <__bss_end__+0xe782a0>
     dc0:	19270b3b 	stmdbne	r7!, {r0, r1, r3, r4, r5, r8, r9, fp}
     dc4:	1301193c 	movwne	r1, #6460	; 0x193c
     dc8:	2e1b0000 	cdpcs	0, 1, cr0, cr11, cr0, {0}
     dcc:	03193f00 	tsteq	r9, #0, 30
     dd0:	3b0b3a0e 	blcc	2cf610 <__bss_end__+0x2c32e0>
     dd4:	4919270b 	ldmdbmi	r9, {r0, r1, r3, r8, r9, sl, sp}
     dd8:	00193c13 	andseq	r3, r9, r3, lsl ip
     ddc:	012e1c00 	teqeq	lr, r0, lsl #24
     de0:	0e03193f 	mcreq	9, 0, r1, cr3, cr15, {1}
     de4:	0b3b0b3a 	bleq	ec3ad4 <__bss_end__+0xeb77a4>
     de8:	13491927 	movtne	r1, #39207	; 0x9927
     dec:	1301193c 	movwne	r1, #6460	; 0x193c
     df0:	181d0000 	ldmdane	sp, {}	; <UNPREDICTABLE>
     df4:	00000000 	andeq	r0, r0, r0
     df8:	25011101 	strcs	r1, [r1, #-257]	; 0x101
     dfc:	030b130e 	movweq	r1, #45838	; 0xb30e
     e00:	550e1b0e 	strpl	r1, [lr, #-2830]	; 0xb0e
     e04:	10011117 	andne	r1, r1, r7, lsl r1
     e08:	02000017 	andeq	r0, r0, #23
     e0c:	0b0b0024 	bleq	2c0ea4 <__bss_end__+0x2b4b74>
     e10:	08030b3e 	stmdaeq	r3, {r1, r2, r3, r4, r5, r8, r9, fp}
     e14:	24030000 	strcs	r0, [r3], #-0
     e18:	3e0b0b00 	vmlacc.f64	d0, d11, d0
     e1c:	000e030b 	andeq	r0, lr, fp, lsl #6
     e20:	012e0400 	teqeq	lr, r0, lsl #8
     e24:	0e03193f 	mcreq	9, 0, r1, cr3, cr15, {1}
     e28:	0b3b0b3a 	bleq	ec3b18 <__bss_end__+0xeb77e8>
     e2c:	13491927 	movtne	r1, #39207	; 0x9927
     e30:	06120111 			; <UNDEFINED> instruction: 0x06120111
     e34:	42971840 	addsmi	r1, r7, #64, 16	; 0x400000
     e38:	00130119 	andseq	r0, r3, r9, lsl r1
     e3c:	00340500 	eorseq	r0, r4, r0, lsl #10
     e40:	0b3a0e03 	bleq	e84654 <__bss_end__+0xe78324>
     e44:	13490b3b 	movtne	r0, #39739	; 0x9b3b
     e48:	00001702 	andeq	r1, r0, r2, lsl #14
     e4c:	3f012e06 	svccc	0x00012e06
     e50:	3a0e0319 	bcc	381abc <__bss_end__+0x37578c>
     e54:	270b3b0b 	strcs	r3, [fp, -fp, lsl #22]
     e58:	12011119 	andne	r1, r1, #1073741830	; 0x40000006
     e5c:	97184006 	ldrls	r4, [r8, -r6]
     e60:	13011942 	movwne	r1, #6466	; 0x1942
     e64:	34070000 	strcc	r0, [r7], #-0
     e68:	3a0e0300 	bcc	381a70 <__bss_end__+0x375740>
     e6c:	490b3b0b 	stmdbmi	fp, {r0, r1, r3, r8, r9, fp, ip, sp}
     e70:	00061c13 	andeq	r1, r6, r3, lsl ip
     e74:	00340800 	eorseq	r0, r4, r0, lsl #16
     e78:	0b3a0e03 	bleq	e8468c <__bss_end__+0xe7835c>
     e7c:	13490b3b 	movtne	r0, #39739	; 0x9b3b
     e80:	00000b1c 	andeq	r0, r0, ip, lsl fp
     e84:	01828909 	orreq	r8, r2, r9, lsl #18
     e88:	31011100 	mrscc	r1, (UNDEF: 17)
     e8c:	0a000013 	beq	ee0 <_start-0x7120>
     e90:	01018289 	smlabbeq	r1, r9, r2, r8
     e94:	13310111 	teqne	r1, #1073741828	; 0x40000004
     e98:	00001301 	andeq	r1, r0, r1, lsl #6
     e9c:	01828a0b 	orreq	r8, r2, fp, lsl #20
     ea0:	91180200 	tstls	r8, r0, lsl #4
     ea4:	00001842 	andeq	r1, r0, r2, asr #16
     ea8:	0182890c 	orreq	r8, r2, ip, lsl #18
     eac:	31011101 	tstcc	r1, r1, lsl #2
     eb0:	0d000013 	stceq	0, cr0, [r0, #-76]	; 0xffffffb4
     eb4:	13490026 	movtne	r0, #36902	; 0x9026
     eb8:	2e0e0000 	cdpcs	0, 0, cr0, cr14, cr0, {0}
     ebc:	03193f01 	tsteq	r9, #1, 30
     ec0:	3b0b3a0e 	blcc	2cf700 <__bss_end__+0x2c33d0>
     ec4:	3c19270b 	ldccc	7, cr2, [r9], {11}
     ec8:	00130119 	andseq	r0, r3, r9, lsl r1
     ecc:	00050f00 	andeq	r0, r5, r0, lsl #30
     ed0:	00001349 	andeq	r1, r0, r9, asr #6
     ed4:	3f012e10 	svccc	0x00012e10
     ed8:	3a0e0319 	bcc	381b44 <__bss_end__+0x375814>
     edc:	270b3b0b 	strcs	r3, [fp, -fp, lsl #22]
     ee0:	00193c19 	andseq	r3, r9, r9, lsl ip
     ee4:	11010000 	mrsne	r0, (UNDEF: 1)
     ee8:	130e2501 	movwne	r2, #58625	; 0xe501
     eec:	1b0e030b 	blne	381b20 <__bss_end__+0x3757f0>
     ef0:	1201110e 	andne	r1, r1, #-2147483645	; 0x80000003
     ef4:	00171006 	andseq	r1, r7, r6
     ef8:	00240200 	eoreq	r0, r4, r0, lsl #4
     efc:	0b3e0b0b 	bleq	f83b30 <__bss_end__+0xf77800>
     f00:	00000803 	andeq	r0, r0, r3, lsl #16
     f04:	0b002403 	bleq	9f18 <va_printk+0xe8>
     f08:	030b3e0b 	movweq	r3, #48651	; 0xbe0b
     f0c:	0400000e 	streq	r0, [r0], #-14
     f10:	193f012e 	ldmdbne	pc!, {r1, r2, r3, r5, r8}	; <UNPREDICTABLE>
     f14:	0b3a0e03 	bleq	e84728 <__bss_end__+0xe783f8>
     f18:	19270b3b 	stmdbne	r7!, {r0, r1, r3, r4, r5, r8, r9, fp}
     f1c:	06120111 			; <UNDEFINED> instruction: 0x06120111
     f20:	42971840 	addsmi	r1, r7, #64, 16	; 0x400000
     f24:	00130119 	andseq	r0, r3, r9, lsl r1
     f28:	00050500 	andeq	r0, r5, r0, lsl #10
     f2c:	0b3a0e03 	bleq	e84740 <__bss_end__+0xe78410>
     f30:	13490b3b 	movtne	r0, #39739	; 0x9b3b
     f34:	00001702 	andeq	r1, r0, r2, lsl #14
     f38:	3f012e06 	svccc	0x00012e06
     f3c:	3a0e0319 	bcc	381ba8 <__bss_end__+0x375878>
     f40:	270b3b0b 	strcs	r3, [fp, -fp, lsl #22]
     f44:	11134919 	tstne	r3, r9, lsl r9
     f48:	40061201 	andmi	r1, r6, r1, lsl #4
     f4c:	19429718 	stmdbne	r2, {r3, r4, r8, r9, sl, ip, pc}^
     f50:	00001301 	andeq	r1, r0, r1, lsl #6
     f54:	01828907 	orreq	r8, r2, r7, lsl #18
     f58:	31011101 	tstcc	r1, r1, lsl #2
     f5c:	08000013 	stmdaeq	r0, {r0, r1, r4}
     f60:	0001828a 	andeq	r8, r1, sl, lsl #5
     f64:	42911802 	addsmi	r1, r1, #131072	; 0x20000
     f68:	09000018 	stmdbeq	r0, {r3, r4}
     f6c:	08030034 	stmdaeq	r3, {r2, r4, r5}
     f70:	0b3b0b3a 	bleq	ec3c60 <__bss_end__+0xeb7930>
     f74:	18021349 	stmdane	r2, {r0, r3, r6, r8, r9, ip}
     f78:	890a0000 	stmdbhi	sl, {}	; <UNPREDICTABLE>
     f7c:	11000182 	smlabbne	r0, r2, r1, r0
     f80:	00133101 	andseq	r3, r3, r1, lsl #2
     f84:	00050b00 	andeq	r0, r5, r0, lsl #22
     f88:	0b3a0803 	bleq	e82f9c <__bss_end__+0xe76c6c>
     f8c:	13490b3b 	movtne	r0, #39739	; 0x9b3b
     f90:	00001702 	andeq	r1, r0, r2, lsl #14
     f94:	11010b0c 	tstne	r1, ip, lsl #22
     f98:	01061201 	tsteq	r6, r1, lsl #4
     f9c:	0d000013 	stceq	0, cr0, [r0, #-76]	; 0xffffffb4
     fa0:	08030034 	stmdaeq	r3, {r2, r4, r5}
     fa4:	0b3b0b3a 	bleq	ec3c94 <__bss_end__+0xeb7964>
     fa8:	17021349 	strne	r1, [r2, -r9, asr #6]
     fac:	2e0e0000 	cdpcs	0, 0, cr0, cr14, cr0, {0}
     fb0:	03193f01 	tsteq	r9, #1, 30
     fb4:	3b0b3a0e 	blcc	2cf7f4 <__bss_end__+0x2c34c4>
     fb8:	4919270b 	ldmdbmi	r9, {r0, r1, r3, r8, r9, sl, sp}
     fbc:	00193c13 	andseq	r3, r9, r3, lsl ip
     fc0:	00050f00 	andeq	r0, r5, r0, lsl #30
     fc4:	00001349 	andeq	r1, r0, r9, asr #6
     fc8:	01110100 	tsteq	r1, r0, lsl #2
     fcc:	0b130e25 	bleq	4c4868 <__bss_end__+0x4b8538>
     fd0:	0e1b0e03 	cdpeq	14, 1, cr0, cr11, cr3, {0}
     fd4:	06120111 			; <UNDEFINED> instruction: 0x06120111
     fd8:	00001710 	andeq	r1, r0, r0, lsl r7
     fdc:	0b002402 	bleq	9fec <va_printk+0x1bc>
     fe0:	030b3e0b 	movweq	r3, #48651	; 0xbe0b
     fe4:	03000008 	movweq	r0, #8
     fe8:	0e030016 	mcreq	0, 0, r0, cr3, cr6, {0}
     fec:	0b3b0b3a 	bleq	ec3cdc <__bss_end__+0xeb79ac>
     ff0:	00001349 	andeq	r1, r0, r9, asr #6
     ff4:	0b002404 	bleq	a00c <va_printk+0x1dc>
     ff8:	030b3e0b 	movweq	r3, #48651	; 0xbe0b
     ffc:	0500000e 	streq	r0, [r0, #-14]
    1000:	0b0b000f 	bleq	2c1044 <__bss_end__+0x2b4d14>
    1004:	0f060000 	svceq	0x00060000
    1008:	490b0b00 	stmdbmi	fp, {r8, r9, fp}
    100c:	07000013 	smladeq	r0, r3, r0, r0
    1010:	13490026 	movtne	r0, #36902	; 0x9026
    1014:	01080000 	mrseq	r0, (UNDEF: 8)
    1018:	01134901 	tsteq	r3, r1, lsl #18
    101c:	09000013 	stmdbeq	r0, {r0, r1, r4}
    1020:	13490021 	movtne	r0, #36897	; 0x9021
    1024:	00000b2f 	andeq	r0, r0, pc, lsr #22
    1028:	3f012e0a 	svccc	0x00012e0a
    102c:	3a0e0319 	bcc	381c98 <__bss_end__+0x375968>
    1030:	270b3b0b 	strcs	r3, [fp, -fp, lsl #22]
    1034:	11134919 	tstne	r3, r9, lsl r9
    1038:	40061201 	andmi	r1, r6, r1, lsl #4
    103c:	19429718 	stmdbne	r2, {r3, r4, r8, r9, sl, ip, pc}^
    1040:	00001301 	andeq	r1, r0, r1, lsl #6
    1044:	0300050b 	movweq	r0, #1291	; 0x50b
    1048:	3b0b3a0e 	blcc	2cf888 <__bss_end__+0x2c3558>
    104c:	0213490b 	andseq	r4, r3, #180224	; 0x2c000
    1050:	0c000017 	stceq	0, cr0, [r0], {23}
    1054:	0e030034 	mcreq	0, 0, r0, cr3, cr4, {1}
    1058:	19341349 	ldmdbne	r4!, {r0, r3, r6, r8, r9, ip}
    105c:	00001802 	andeq	r1, r0, r2, lsl #16
    1060:	0300340d 	movweq	r3, #1037	; 0x40d
    1064:	3b0b3a0e 	blcc	2cf8a4 <__bss_end__+0x2c3574>
    1068:	0213490b 	andseq	r4, r3, #180224	; 0x2c000
    106c:	0e000018 	mcreq	0, 0, r0, cr0, cr8, {0}
    1070:	0e030034 	mcreq	0, 0, r0, cr3, cr4, {1}
    1074:	0b3b0b3a 	bleq	ec3d64 <__bss_end__+0xeb7a34>
    1078:	17021349 	strne	r1, [r2, -r9, asr #6]
    107c:	890f0000 	stmdbhi	pc, {}	; <UNPREDICTABLE>
    1080:	11000182 	smlabbne	r0, r2, r1, r0
    1084:	00133101 	andseq	r3, r3, r1, lsl #2
    1088:	82891000 	addhi	r1, r9, #0
    108c:	01110101 	tsteq	r1, r1, lsl #2
    1090:	13011331 	movwne	r1, #4913	; 0x1331
    1094:	8a110000 	bhi	44109c <__bss_end__+0x434d6c>
    1098:	02000182 	andeq	r0, r0, #-2147483616	; 0x80000020
    109c:	18429118 	stmdane	r2, {r3, r4, r8, ip, pc}^
    10a0:	89120000 	ldmdbhi	r2, {}	; <UNPREDICTABLE>
    10a4:	11010182 	smlabbne	r1, r2, r1, r0
    10a8:	00133101 	andseq	r3, r3, r1, lsl #2
    10ac:	012e1300 	teqeq	lr, r0, lsl #6
    10b0:	0e03193f 	mcreq	9, 0, r1, cr3, cr15, {1}
    10b4:	0b3b0b3a 	bleq	ec3da4 <__bss_end__+0xeb7a74>
    10b8:	01111927 	tsteq	r1, r7, lsr #18
    10bc:	18400612 	stmdane	r0, {r1, r4, r9, sl}^
    10c0:	01194297 			; <UNDEFINED> instruction: 0x01194297
    10c4:	14000013 	strne	r0, [r0], #-19
    10c8:	193f002e 	ldmdbne	pc!, {r1, r2, r3, r5}	; <UNPREDICTABLE>
    10cc:	0b3a0e03 	bleq	e848e0 <__bss_end__+0xe785b0>
    10d0:	19270b3b 	stmdbne	r7!, {r0, r1, r3, r4, r5, r8, r9, fp}
    10d4:	06120111 			; <UNDEFINED> instruction: 0x06120111
    10d8:	42971840 	addsmi	r1, r7, #64, 16	; 0x400000
    10dc:	15000019 	strne	r0, [r0, #-25]
    10e0:	193f002e 	ldmdbne	pc!, {r1, r2, r3, r5}	; <UNPREDICTABLE>
    10e4:	0b3a0e03 	bleq	e848f8 <__bss_end__+0xe785c8>
    10e8:	19270b3b 	stmdbne	r7!, {r0, r1, r3, r4, r5, r8, r9, fp}
    10ec:	01111349 	tsteq	r1, r9, asr #6
    10f0:	18400612 	stmdane	r0, {r1, r4, r9, sl}^
    10f4:	00194297 	mulseq	r9, r7, r2
    10f8:	00341600 	eorseq	r1, r4, r0, lsl #12
    10fc:	0b3a0e03 	bleq	e84910 <__bss_end__+0xe785e0>
    1100:	13490b3b 	movtne	r0, #39739	; 0x9b3b
    1104:	193c193f 	ldmdbne	ip!, {r0, r1, r2, r3, r4, r5, r8, fp, ip}
    1108:	2e170000 	cdpcs	0, 1, cr0, cr7, cr0, {0}
    110c:	03193f00 	tsteq	r9, #0, 30
    1110:	3b0b3a0e 	blcc	2cf950 <__bss_end__+0x2c3620>
    1114:	3c19270b 	ldccc	7, cr2, [r9], {11}
    1118:	18000019 	stmdane	r0, {r0, r3, r4}
    111c:	193f012e 	ldmdbne	pc!, {r1, r2, r3, r5, r8}	; <UNPREDICTABLE>
    1120:	0b3a0e03 	bleq	e84934 <__bss_end__+0xe78604>
    1124:	19270b3b 	stmdbne	r7!, {r0, r1, r3, r4, r5, r8, r9, fp}
    1128:	193c1349 	ldmdbne	ip!, {r0, r3, r6, r8, r9, ip}
    112c:	00001301 	andeq	r1, r0, r1, lsl #6
    1130:	49000519 	stmdbmi	r0, {r0, r3, r4, r8, sl}
    1134:	1a000013 	bne	1188 <_start-0x6e78>
    1138:	00000018 	andeq	r0, r0, r8, lsl r0
    113c:	3f012e1b 	svccc	0x00012e1b
    1140:	3a0e0319 	bcc	381dac <__bss_end__+0x375a7c>
    1144:	270b3b0b 	strcs	r3, [fp, -fp, lsl #22]
    1148:	3c134919 	ldccc	9, cr4, [r3], {25}
    114c:	00000019 	andeq	r0, r0, r9, lsl r0
    1150:	25011101 	strcs	r1, [r1, #-257]	; 0x101
    1154:	030b130e 	movweq	r1, #45838	; 0xb30e
    1158:	110e1b0e 	tstne	lr, lr, lsl #22
    115c:	10061201 	andne	r1, r6, r1, lsl #4
    1160:	02000017 	andeq	r0, r0, #23
    1164:	0b0b0024 	bleq	2c11fc <__bss_end__+0x2b4ecc>
    1168:	08030b3e 	stmdaeq	r3, {r1, r2, r3, r4, r5, r8, r9, fp}
    116c:	24030000 	strcs	r0, [r3], #-0
    1170:	3e0b0b00 	vmlacc.f64	d0, d11, d0
    1174:	000e030b 	andeq	r0, lr, fp, lsl #6
    1178:	00160400 	andseq	r0, r6, r0, lsl #8
    117c:	0b3a0e03 	bleq	e84990 <__bss_end__+0xe78660>
    1180:	13490b3b 	movtne	r0, #39739	; 0x9b3b
    1184:	0f050000 	svceq	0x00050000
    1188:	000b0b00 	andeq	r0, fp, r0, lsl #22
    118c:	000f0600 	andeq	r0, pc, r0, lsl #12
    1190:	13490b0b 	movtne	r0, #39691	; 0x9b0b
    1194:	26070000 	strcs	r0, [r7], -r0
    1198:	00134900 	andseq	r4, r3, r0, lsl #18
    119c:	01130800 	tsteq	r3, r0, lsl #16
    11a0:	0b3a0b0b 	bleq	e83dd4 <__bss_end__+0xe77aa4>
    11a4:	13010b3b 	movwne	r0, #6971	; 0x1b3b
    11a8:	0d090000 	stceq	0, cr0, [r9, #-0]
    11ac:	3a080300 	bcc	201db4 <__bss_end__+0x1f5a84>
    11b0:	490b3b0b 	stmdbmi	fp, {r0, r1, r3, r8, r9, fp, ip, sp}
    11b4:	000b3813 	andeq	r3, fp, r3, lsl r8
    11b8:	000d0a00 	andeq	r0, sp, r0, lsl #20
    11bc:	0b3a0e03 	bleq	e849d0 <__bss_end__+0xe786a0>
    11c0:	13490b3b 	movtne	r0, #39739	; 0x9b3b
    11c4:	00000b38 	andeq	r0, r0, r8, lsr fp
    11c8:	0301130b 	movweq	r1, #4875	; 0x130b
    11cc:	3a0b0b0e 	bcc	2c3e0c <__bss_end__+0x2b7adc>
    11d0:	010b3b0b 	tsteq	fp, fp, lsl #22
    11d4:	0c000013 	stceq	0, cr0, [r0], {19}
    11d8:	0e03000d 	cdpeq	0, 0, cr0, cr3, cr13, {0}
    11dc:	0b381349 	bleq	e05f08 <__bss_end__+0xdf9bd8>
    11e0:	00001934 	andeq	r1, r0, r4, lsr r9
    11e4:	03012e0d 	movweq	r2, #7693	; 0x1e0d
    11e8:	3b0b3a0e 	blcc	2cfa28 <__bss_end__+0x2c36f8>
    11ec:	2019270b 	andscs	r2, r9, fp, lsl #14
    11f0:	0013010b 	andseq	r0, r3, fp, lsl #2
    11f4:	00050e00 	andeq	r0, r5, r0, lsl #28
    11f8:	0b3a0e03 	bleq	e84a0c <__bss_end__+0xe786dc>
    11fc:	13490b3b 	movtne	r0, #39739	; 0x9b3b
    1200:	050f0000 	streq	r0, [pc, #-0]	; 1208 <_start-0x6df8>
    1204:	3a080300 	bcc	201e0c <__bss_end__+0x1f5adc>
    1208:	490b3b0b 	stmdbmi	fp, {r0, r1, r3, r8, r9, fp, ip, sp}
    120c:	10000013 	andne	r0, r0, r3, lsl r0
    1210:	0000010b 	andeq	r0, r0, fp, lsl #2
    1214:	03003411 	movweq	r3, #1041	; 0x411
    1218:	3b0b3a0e 	blcc	2cfa58 <__bss_end__+0x2c3728>
    121c:	0013490b 	andseq	r4, r3, fp, lsl #18
    1220:	012e1200 	teqeq	lr, r0, lsl #4
    1224:	0e03193f 	mcreq	9, 0, r1, cr3, cr15, {1}
    1228:	0b3b0b3a 	bleq	ec3f18 <__bss_end__+0xeb7be8>
    122c:	01111927 	tsteq	r1, r7, lsr #18
    1230:	18400612 	stmdane	r0, {r1, r4, r9, sl}^
    1234:	01194297 			; <UNDEFINED> instruction: 0x01194297
    1238:	13000013 	movwne	r0, #19
    123c:	0e030005 	cdpeq	0, 0, cr0, cr3, cr5, {0}
    1240:	0b3b0b3a 	bleq	ec3f30 <__bss_end__+0xeb7c00>
    1244:	17021349 	strne	r1, [r2, -r9, asr #6]
    1248:	05140000 	ldreq	r0, [r4, #-0]
    124c:	3a080300 	bcc	201e54 <__bss_end__+0x1f5b24>
    1250:	490b3b0b 	stmdbmi	fp, {r0, r1, r3, r8, r9, fp, ip, sp}
    1254:	00170213 	andseq	r0, r7, r3, lsl r2
    1258:	00341500 	eorseq	r1, r4, r0, lsl #10
    125c:	0b3a0803 	bleq	e83270 <__bss_end__+0xe76f40>
    1260:	13490b3b 	movtne	r0, #39739	; 0x9b3b
    1264:	00001802 	andeq	r1, r0, r2, lsl #16
    1268:	03003416 	movweq	r3, #1046	; 0x416
    126c:	3b0b3a08 	blcc	2cfa94 <__bss_end__+0x2c3764>
    1270:	0213490b 	andseq	r4, r3, #180224	; 0x2c000
    1274:	17000017 	smladne	r0, r7, r0, r0
    1278:	0111010b 	tsteq	r1, fp, lsl #2
    127c:	13010612 	movwne	r0, #5650	; 0x1612
    1280:	34180000 	ldrcc	r0, [r8], #-0
    1284:	3a0e0300 	bcc	381e8c <__bss_end__+0x375b5c>
    1288:	490b3b0b 	stmdbmi	fp, {r0, r1, r3, r8, r9, fp, ip, sp}
    128c:	00180213 	andseq	r0, r8, r3, lsl r2
    1290:	011d1900 	tsteq	sp, r0, lsl #18
    1294:	01111331 	tsteq	r1, r1, lsr r3
    1298:	0b580612 	bleq	1602ae8 <__bss_end__+0x15f67b8>
    129c:	13010b59 	movwne	r0, #7001	; 0x1b59
    12a0:	051a0000 	ldreq	r0, [sl, #-0]
    12a4:	02133100 	andseq	r3, r3, #0, 2
    12a8:	1b000017 	blne	130c <_start-0x6cf4>
    12ac:	13310005 	teqne	r1, #5
    12b0:	00001802 	andeq	r1, r0, r2, lsl #16
    12b4:	3100051c 	tstcc	r0, ip, lsl r5
    12b8:	000b1c13 	andeq	r1, fp, r3, lsl ip
    12bc:	010b1d00 	tsteq	fp, r0, lsl #26
    12c0:	06120111 			; <UNDEFINED> instruction: 0x06120111
    12c4:	341e0000 	ldrcc	r0, [lr], #-0
    12c8:	02133100 	andseq	r3, r3, #0, 2
    12cc:	1f000017 	svcne	0x00000017
    12d0:	01018289 	smlabbeq	r1, r9, r2, r8
    12d4:	13310111 	teqne	r1, #1073741828	; 0x40000004
    12d8:	8a200000 	bhi	8012e0 <__bss_end__+0x7f4fb0>
    12dc:	02000182 	andeq	r0, r0, #-2147483616	; 0x80000020
    12e0:	18429118 	stmdane	r2, {r3, r4, r8, ip, pc}^
    12e4:	1d210000 	stcne	0, cr0, [r1, #-0]
    12e8:	11133101 	tstne	r3, r1, lsl #2
    12ec:	58061201 	stmdapl	r6, {r0, r9, ip}
    12f0:	000b590b 	andeq	r5, fp, fp, lsl #18
    12f4:	012e2200 	teqeq	lr, r0, lsl #4
    12f8:	0b3a0e03 	bleq	e84b0c <__bss_end__+0xe787dc>
    12fc:	19270b3b 	stmdbne	r7!, {r0, r1, r3, r4, r5, r8, r9, fp}
    1300:	0b201349 	bleq	80602c <__bss_end__+0x7f9cfc>
    1304:	00001301 	andeq	r1, r0, r1, lsl #6
    1308:	3f012e23 	svccc	0x00012e23
    130c:	3a0e0319 	bcc	381f78 <__bss_end__+0x375c48>
    1310:	270b3b0b 	strcs	r3, [fp, -fp, lsl #22]
    1314:	11134919 	tstne	r3, r9, lsl r9
    1318:	40061201 	andmi	r1, r6, r1, lsl #4
    131c:	19429718 	stmdbne	r2, {r3, r4, r8, r9, sl, ip, pc}^
    1320:	00001301 	andeq	r1, r0, r1, lsl #6
    1324:	01828924 	orreq	r8, r2, r4, lsr #18
    1328:	31011100 	mrscc	r1, (UNDEF: 17)
    132c:	25000013 	strcs	r0, [r0, #-19]
    1330:	01018289 	smlabbeq	r1, r9, r2, r8
    1334:	13310111 	teqne	r1, #1073741828	; 0x40000004
    1338:	00001301 	andeq	r1, r0, r1, lsl #6
    133c:	03003426 	movweq	r3, #1062	; 0x426
    1340:	3b0b3a0e 	blcc	2cfb80 <__bss_end__+0x2c3850>
    1344:	0213490b 	andseq	r4, r3, #180224	; 0x2c000
    1348:	27000017 	smladcs	r0, r7, r0, r0
    134c:	13310005 	teqne	r1, #5
    1350:	05280000 	streq	r0, [r8, #-0]!
    1354:	3a0e0300 	bcc	381f5c <__bss_end__+0x375c2c>
    1358:	490b3b0b 	stmdbmi	fp, {r0, r1, r3, r8, r9, fp, ip, sp}
    135c:	00180213 	andseq	r0, r8, r3, lsl r2
    1360:	00342900 	eorseq	r2, r4, r0, lsl #18
    1364:	13490e03 	movtne	r0, #40451	; 0x9e03
    1368:	18021934 	stmdane	r2, {r2, r4, r5, r8, fp, ip}
    136c:	012a0000 	teqeq	sl, r0
    1370:	01134901 	tsteq	r3, r1, lsl #18
    1374:	2b000013 	blcs	13c8 <_start-0x6c38>
    1378:	13490021 	movtne	r0, #36897	; 0x9021
    137c:	00000b2f 	andeq	r0, r0, pc, lsr #22
    1380:	0300342c 	movweq	r3, #1068	; 0x42c
    1384:	3b0b3a08 	blcc	2cfbac <__bss_end__+0x2c387c>
    1388:	1c13490b 	ldcne	9, cr4, [r3], {11}
    138c:	2d000006 	stccs	0, cr0, [r0, #-24]	; 0xffffffe8
    1390:	08030034 	stmdaeq	r3, {r2, r4, r5}
    1394:	0b3b0b3a 	bleq	ec4084 <__bss_end__+0xeb7d54>
    1398:	0b1c1349 	bleq	7060c4 <__bss_end__+0x6f9d94>
    139c:	052e0000 	streq	r0, [lr, #-0]!
    13a0:	3a080300 	bcc	201fa8 <__bss_end__+0x1f5c78>
    13a4:	490b3b0b 	stmdbmi	fp, {r0, r1, r3, r8, r9, fp, ip, sp}
    13a8:	00180213 	andseq	r0, r8, r3, lsl r2
    13ac:	00182f00 	andseq	r2, r8, r0, lsl #30
    13b0:	21300000 	teqcs	r0, r0
    13b4:	2f134900 	svccs	0x00134900
    13b8:	31000005 	tstcc	r0, r5
    13bc:	193f012e 	ldmdbne	pc!, {r1, r2, r3, r5, r8}	; <UNPREDICTABLE>
    13c0:	0b3a0e03 	bleq	e84bd4 <__bss_end__+0xe788a4>
    13c4:	19270b3b 	stmdbne	r7!, {r0, r1, r3, r4, r5, r8, r9, fp}
    13c8:	1301193c 	movwne	r1, #6460	; 0x193c
    13cc:	05320000 	ldreq	r0, [r2, #-0]!
    13d0:	00134900 	andseq	r4, r3, r0, lsl #18
    13d4:	002e3300 	eoreq	r3, lr, r0, lsl #6
    13d8:	0e03193f 	mcreq	9, 0, r1, cr3, cr15, {1}
    13dc:	0b3b0b3a 	bleq	ec40cc <__bss_end__+0xeb7d9c>
    13e0:	13491927 	movtne	r1, #39207	; 0x9927
    13e4:	0000193c 	andeq	r1, r0, ip, lsr r9
    13e8:	3f012e34 	svccc	0x00012e34
    13ec:	3a0e0319 	bcc	382058 <__bss_end__+0x375d28>
    13f0:	270b3b0b 	strcs	r3, [fp, -fp, lsl #22]
    13f4:	3c134919 	ldccc	9, cr4, [r3], {25}
    13f8:	00130119 	andseq	r0, r3, r9, lsl r1
    13fc:	002e3500 	eoreq	r3, lr, r0, lsl #10
    1400:	0e03193f 	mcreq	9, 0, r1, cr3, cr15, {1}
    1404:	0b3b0b3a 	bleq	ec40f4 <__bss_end__+0xeb7dc4>
    1408:	193c1927 	ldmdbne	ip!, {r0, r1, r2, r5, r8, fp, ip}
    140c:	2e360000 	cdpcs	0, 3, cr0, cr6, cr0, {0}
    1410:	03193f01 	tsteq	r9, #1, 30
    1414:	3b0b3a0e 	blcc	2cfc54 <__bss_end__+0x2c3924>
    1418:	4919270b 	ldmdbmi	r9, {r0, r1, r3, r8, r9, sl, sp}
    141c:	00193c13 	andseq	r3, r9, r3, lsl ip
    1420:	11010000 	mrsne	r0, (UNDEF: 1)
    1424:	130e2501 	movwne	r2, #58625	; 0xe501
    1428:	1b0e030b 	blne	38205c <__bss_end__+0x375d2c>
    142c:	1201110e 	andne	r1, r1, #-2147483645	; 0x80000003
    1430:	00171006 	andseq	r1, r7, r6
    1434:	00240200 	eoreq	r0, r4, r0, lsl #4
    1438:	0b3e0b0b 	bleq	f8406c <__bss_end__+0xf77d3c>
    143c:	00000803 	andeq	r0, r0, r3, lsl #16
    1440:	0b002403 	bleq	a454 <kmalloc_init_set_start+0x34>
    1444:	030b3e0b 	movweq	r3, #48651	; 0xbe0b
    1448:	0400000e 	streq	r0, [r0], #-14
    144c:	0b0b0104 	bleq	2c1864 <__bss_end__+0x2b5534>
    1450:	0b3b0b3a 	bleq	ec4140 <__bss_end__+0xeb7e10>
    1454:	00001301 	andeq	r1, r0, r1, lsl #6
    1458:	03002805 	movweq	r2, #2053	; 0x805
    145c:	000d1c0e 	andeq	r1, sp, lr, lsl #24
    1460:	00160600 	andseq	r0, r6, r0, lsl #12
    1464:	0b3a0e03 	bleq	e84c78 <__bss_end__+0xe78948>
    1468:	13490b3b 	movtne	r0, #39739	; 0x9b3b
    146c:	2e070000 	cdpcs	0, 0, cr0, cr7, cr0, {0}
    1470:	03193f01 	tsteq	r9, #1, 30
    1474:	3b0b3a0e 	blcc	2cfcb4 <__bss_end__+0x2c3984>
    1478:	1119270b 	tstne	r9, fp, lsl #14
    147c:	40061201 	andmi	r1, r6, r1, lsl #4
    1480:	19429718 	stmdbne	r2, {r3, r4, r8, r9, sl, ip, pc}^
    1484:	00001301 	andeq	r1, r0, r1, lsl #6
    1488:	01828908 	orreq	r8, r2, r8, lsl #18
    148c:	31011100 	mrscc	r1, (UNDEF: 17)
    1490:	09000013 	stmdbeq	r0, {r0, r1, r4}
    1494:	01018289 	smlabbeq	r1, r9, r2, r8
    1498:	13310111 	teqne	r1, #1073741828	; 0x40000004
    149c:	00001301 	andeq	r1, r0, r1, lsl #6
    14a0:	01828a0a 	orreq	r8, r2, sl, lsl #20
    14a4:	91180200 	tstls	r8, r0, lsl #4
    14a8:	00001842 	andeq	r1, r0, r2, asr #16
    14ac:	3f012e0b 	svccc	0x00012e0b
    14b0:	3a0e0319 	bcc	38211c <__bss_end__+0x375dec>
    14b4:	270b3b0b 	strcs	r3, [fp, -fp, lsl #22]
    14b8:	11134919 	tstne	r3, r9, lsl r9
    14bc:	40061201 	andmi	r1, r6, r1, lsl #4
    14c0:	19429718 	stmdbne	r2, {r3, r4, r8, r9, sl, ip, pc}^
    14c4:	00001301 	andeq	r1, r0, r1, lsl #6
    14c8:	0300050c 	movweq	r0, #1292	; 0x50c
    14cc:	3b0b3a08 	blcc	2cfcf4 <__bss_end__+0x2c39c4>
    14d0:	0213490b 	andseq	r4, r3, #180224	; 0x2c000
    14d4:	0d000017 	stceq	0, cr0, [r0, #-92]	; 0xffffffa4
    14d8:	01018289 	smlabbeq	r1, r9, r2, r8
    14dc:	13310111 	teqne	r1, #1073741828	; 0x40000004
    14e0:	340e0000 	strcc	r0, [lr], #-0
    14e4:	3a0e0300 	bcc	3820ec <__bss_end__+0x375dbc>
    14e8:	490b3b0b 	stmdbmi	fp, {r0, r1, r3, r8, r9, fp, ip, sp}
    14ec:	02193f13 	andseq	r3, r9, #19, 30	; 0x4c
    14f0:	0f000018 	svceq	0x00000018
    14f4:	0b0b000f 	bleq	2c1538 <__bss_end__+0x2b5208>
    14f8:	00001349 	andeq	r1, r0, r9, asr #6
    14fc:	49003510 	stmdbmi	r0, {r4, r8, sl, ip, sp}
    1500:	11000013 	tstne	r0, r3, lsl r0
    1504:	193f002e 	ldmdbne	pc!, {r1, r2, r3, r5}	; <UNPREDICTABLE>
    1508:	0b3a0e03 	bleq	e84d1c <__bss_end__+0xe789ec>
    150c:	19270b3b 	stmdbne	r7!, {r0, r1, r3, r4, r5, r8, r9, fp}
    1510:	0000193c 	andeq	r1, r0, ip, lsr r9
    1514:	3f012e12 	svccc	0x00012e12
    1518:	3a0e0319 	bcc	382184 <__bss_end__+0x375e54>
    151c:	270b3b0b 	strcs	r3, [fp, -fp, lsl #22]
    1520:	01193c19 	tsteq	r9, r9, lsl ip
    1524:	13000013 	movwne	r0, #19
    1528:	13490005 	movtne	r0, #36869	; 0x9005
    152c:	2e140000 	cdpcs	0, 1, cr0, cr4, cr0, {0}
    1530:	03193f01 	tsteq	r9, #1, 30
    1534:	3b0b3a0e 	blcc	2cfd74 <__bss_end__+0x2c3a44>
    1538:	4919270b 	ldmdbmi	r9, {r0, r1, r3, r8, r9, sl, sp}
    153c:	01193c13 	tsteq	r9, r3, lsl ip
    1540:	15000013 	strne	r0, [r0, #-19]
    1544:	13490026 	movtne	r0, #36902	; 0x9026
    1548:	35160000 	ldrcc	r0, [r6, #-0]
    154c:	00000000 	andeq	r0, r0, r0
    1550:	25011101 	strcs	r1, [r1, #-257]	; 0x101
    1554:	030b130e 	movweq	r1, #45838	; 0xb30e
    1558:	110e1b0e 	tstne	lr, lr, lsl #22
    155c:	10061201 	andne	r1, r6, r1, lsl #4
    1560:	02000017 	andeq	r0, r0, #23
    1564:	0b0b0024 	bleq	2c15fc <__bss_end__+0x2b52cc>
    1568:	0e030b3e 	vmoveq.16	d3[0], r0
    156c:	24030000 	strcs	r0, [r3], #-0
    1570:	3e0b0b00 	vmlacc.f64	d0, d11, d0
    1574:	0008030b 	andeq	r0, r8, fp, lsl #6
    1578:	01040400 	tsteq	r4, r0, lsl #8
    157c:	0b3a0b0b 	bleq	e841b0 <__bss_end__+0xe77e80>
    1580:	13010b3b 	movwne	r0, #6971	; 0x1b3b
    1584:	28050000 	stmdacs	r5, {}	; <UNPREDICTABLE>
    1588:	1c0e0300 	stcne	3, cr0, [lr], {-0}
    158c:	0600000d 	streq	r0, [r0], -sp
    1590:	0e030016 	mcreq	0, 0, r0, cr3, cr6, {0}
    1594:	0b3b0b3a 	bleq	ec4284 <__bss_end__+0xeb7f54>
    1598:	00001349 	andeq	r1, r0, r9, asr #6
    159c:	3f012e07 	svccc	0x00012e07
    15a0:	3a0e0319 	bcc	38220c <__bss_end__+0x375edc>
    15a4:	270b3b0b 	strcs	r3, [fp, -fp, lsl #22]
    15a8:	12011119 	andne	r1, r1, #1073741830	; 0x40000006
    15ac:	97184006 	ldrls	r4, [r8, -r6]
    15b0:	13011942 	movwne	r1, #6466	; 0x1942
    15b4:	05080000 	streq	r0, [r8, #-0]
    15b8:	3a080300 	bcc	2021c0 <__bss_end__+0x1f5e90>
    15bc:	490b3b0b 	stmdbmi	fp, {r0, r1, r3, r8, r9, fp, ip, sp}
    15c0:	00170213 	andseq	r0, r7, r3, lsl r2
    15c4:	00340900 	eorseq	r0, r4, r0, lsl #18
    15c8:	0b3a0e03 	bleq	e84ddc <__bss_end__+0xe78aac>
    15cc:	13490b3b 	movtne	r0, #39739	; 0x9b3b
    15d0:	00001702 	andeq	r1, r0, r2, lsl #14
    15d4:	0182890a 	orreq	r8, r2, sl, lsl #18
    15d8:	31011101 	tstcc	r1, r1, lsl #2
    15dc:	00130113 	andseq	r0, r3, r3, lsl r1
    15e0:	828a0b00 	addhi	r0, sl, #0, 22
    15e4:	18020001 	stmdane	r2, {r0}
    15e8:	00184291 	mulseq	r8, r1, r2
    15ec:	82890c00 	addhi	r0, r9, #0, 24
    15f0:	01110101 	tsteq	r1, r1, lsl #2
    15f4:	00001331 	andeq	r1, r0, r1, lsr r3
    15f8:	0b000f0d 	bleq	5234 <_start-0x2dcc>
    15fc:	0013490b 	andseq	r4, r3, fp, lsl #18
    1600:	00350e00 	eorseq	r0, r5, r0, lsl #28
    1604:	00001349 	andeq	r1, r0, r9, asr #6
    1608:	3f012e0f 	svccc	0x00012e0f
    160c:	3a0e0319 	bcc	382278 <__bss_end__+0x375f48>
    1610:	270b3b0b 	strcs	r3, [fp, -fp, lsl #22]
    1614:	11134919 	tstne	r3, r9, lsl r9
    1618:	40061201 	andmi	r1, r6, r1, lsl #4
    161c:	19429718 	stmdbne	r2, {r3, r4, r8, r9, sl, ip, pc}^
    1620:	00001301 	andeq	r1, r0, r1, lsl #6
    1624:	03003410 	movweq	r3, #1040	; 0x410
    1628:	3b0b3a08 	blcc	2cfe50 <__bss_end__+0x2c3b20>
    162c:	0213490b 	andseq	r4, r3, #180224	; 0x2c000
    1630:	11000017 	tstne	r0, r7, lsl r0
    1634:	00018289 	andeq	r8, r1, r9, lsl #5
    1638:	13310111 	teqne	r1, #1073741828	; 0x40000004
    163c:	05120000 	ldreq	r0, [r2, #-0]
    1640:	3a0e0300 	bcc	382248 <__bss_end__+0x375f18>
    1644:	490b3b0b 	stmdbmi	fp, {r0, r1, r3, r8, r9, fp, ip, sp}
    1648:	00170213 	andseq	r0, r7, r3, lsl r2
    164c:	012e1300 	teqeq	lr, r0, lsl #6
    1650:	0e03193f 	mcreq	9, 0, r1, cr3, cr15, {1}
    1654:	053b0b3a 	ldreq	r0, [fp, #-2874]!	; 0xb3a
    1658:	13491927 	movtne	r1, #39207	; 0x9927
    165c:	06120111 			; <UNDEFINED> instruction: 0x06120111
    1660:	42971840 	addsmi	r1, r7, #64, 16	; 0x400000
    1664:	00130119 	andseq	r0, r3, r9, lsl r1
    1668:	00051400 	andeq	r1, r5, r0, lsl #8
    166c:	0b3a0e03 	bleq	e84e80 <__bss_end__+0xe78b50>
    1670:	1349053b 	movtne	r0, #38203	; 0x953b
    1674:	00001702 	andeq	r1, r0, r2, lsl #14
    1678:	3f012e15 	svccc	0x00012e15
    167c:	3a0e0319 	bcc	3822e8 <__bss_end__+0x375fb8>
    1680:	27053b0b 	strcs	r3, [r5, -fp, lsl #22]
    1684:	12011119 	andne	r1, r1, #1073741830	; 0x40000006
    1688:	97184006 	ldrls	r4, [r8, -r6]
    168c:	13011942 	movwne	r1, #6466	; 0x1942
    1690:	05160000 	ldreq	r0, [r6, #-0]
    1694:	3a080300 	bcc	20229c <__bss_end__+0x1f5f6c>
    1698:	49053b0b 	stmdbmi	r5, {r0, r1, r3, r8, r9, fp, ip, sp}
    169c:	00170213 	andseq	r0, r7, r3, lsl r2
    16a0:	00341700 	eorseq	r1, r4, r0, lsl #14
    16a4:	0b3a0e03 	bleq	e84eb8 <__bss_end__+0xe78b88>
    16a8:	1349053b 	movtne	r0, #38203	; 0x953b
    16ac:	00001702 	andeq	r1, r0, r2, lsl #14
    16b0:	11010b18 	tstne	r1, r8, lsl fp
    16b4:	01061201 	tsteq	r6, r1, lsl #4
    16b8:	19000013 	stmdbne	r0, {r0, r1, r4}
    16bc:	0e030034 	mcreq	0, 0, r0, cr3, cr4, {1}
    16c0:	0b3b0b3a 	bleq	ec43b0 <__bss_end__+0xeb8080>
    16c4:	193f1349 	ldmdbne	pc!, {r0, r3, r6, r8, r9, ip}	; <UNPREDICTABLE>
    16c8:	00001802 	andeq	r1, r0, r2, lsl #16
    16cc:	3f012e1a 	svccc	0x00012e1a
    16d0:	3a0e0319 	bcc	38233c <__bss_end__+0x37600c>
    16d4:	270b3b0b 	strcs	r3, [fp, -fp, lsl #22]
    16d8:	3c134919 	ldccc	9, cr4, [r3], {25}
    16dc:	00130119 	andseq	r0, r3, r9, lsl r1
    16e0:	00051b00 	andeq	r1, r5, r0, lsl #22
    16e4:	00001349 	andeq	r1, r0, r9, asr #6
    16e8:	4900261c 	stmdbmi	r0, {r2, r3, r4, r9, sl, sp}
    16ec:	1d000013 	stcne	0, cr0, [r0, #-76]	; 0xffffffb4
    16f0:	00000035 	andeq	r0, r0, r5, lsr r0
    16f4:	3f012e1e 	svccc	0x00012e1e
    16f8:	3a0e0319 	bcc	382364 <__bss_end__+0x376034>
    16fc:	270b3b0b 	strcs	r3, [fp, -fp, lsl #22]
    1700:	01193c19 	tsteq	r9, r9, lsl ip
    1704:	1f000013 	svcne	0x00000013
    1708:	193f002e 	ldmdbne	pc!, {r1, r2, r3, r5}	; <UNPREDICTABLE>
    170c:	0b3a0e03 	bleq	e84f20 <__bss_end__+0xe78bf0>
    1710:	19270b3b 	stmdbne	r7!, {r0, r1, r3, r4, r5, r8, r9, fp}
    1714:	0000193c 	andeq	r1, r0, ip, lsr r9
    1718:	01110100 	tsteq	r1, r0, lsl #2
    171c:	0b130e25 	bleq	4c4fb8 <__bss_end__+0x4b8c88>
    1720:	0e1b0e03 	cdpeq	14, 1, cr0, cr11, cr3, {0}
    1724:	06120111 			; <UNDEFINED> instruction: 0x06120111
    1728:	00001710 	andeq	r1, r0, r0, lsl r7
    172c:	0b002402 	bleq	a73c <sw_uart_getc_timeout+0x174>
    1730:	030b3e0b 	movweq	r3, #48651	; 0xbe0b
    1734:	0300000e 	movweq	r0, #14
    1738:	0b0b0024 	bleq	2c17d0 <__bss_end__+0x2b54a0>
    173c:	08030b3e 	stmdaeq	r3, {r1, r2, r3, r4, r5, r8, r9, fp}
    1740:	0f040000 	svceq	0x00040000
    1744:	000b0b00 	andeq	r0, fp, r0, lsl #22
    1748:	000f0500 	andeq	r0, pc, r0, lsl #10
    174c:	13490b0b 	movtne	r0, #39691	; 0x9b0b
    1750:	16060000 	strne	r0, [r6], -r0
    1754:	3a0e0300 	bcc	38235c <__bss_end__+0x37602c>
    1758:	490b3b0b 	stmdbmi	fp, {r0, r1, r3, r8, r9, fp, ip, sp}
    175c:	07000013 	smladeq	r0, r3, r0, r0
    1760:	193f012e 	ldmdbne	pc!, {r1, r2, r3, r5, r8}	; <UNPREDICTABLE>
    1764:	0b3a0e03 	bleq	e84f78 <__bss_end__+0xe78c48>
    1768:	19270b3b 	stmdbne	r7!, {r0, r1, r3, r4, r5, r8, r9, fp}
    176c:	01111349 	tsteq	r1, r9, asr #6
    1770:	18400612 	stmdane	r0, {r1, r4, r9, sl}^
    1774:	00194297 	mulseq	r9, r7, r2
    1778:	00050800 	andeq	r0, r5, r0, lsl #16
    177c:	0b3a0803 	bleq	e83790 <__bss_end__+0xe77460>
    1780:	13490b3b 	movtne	r0, #39739	; 0x9b3b
    1784:	00001802 	andeq	r1, r0, r2, lsl #16
    1788:	03000509 	movweq	r0, #1289	; 0x509
    178c:	3b0b3a08 	blcc	2cffb4 <__bss_end__+0x2c3c84>
    1790:	0213490b 	andseq	r4, r3, #180224	; 0x2c000
    1794:	0a000017 	beq	17f8 <_start-0x6808>
    1798:	08030034 	stmdaeq	r3, {r2, r4, r5}
    179c:	0b3b0b3a 	bleq	ec448c <__bss_end__+0xeb815c>
    17a0:	17021349 	strne	r1, [r2, -r9, asr #6]
    17a4:	340b0000 	strcc	r0, [fp], #-0
    17a8:	3a080300 	bcc	2023b0 <__bss_end__+0x1f6080>
    17ac:	490b3b0b 	stmdbmi	fp, {r0, r1, r3, r8, r9, fp, ip, sp}
    17b0:	00180213 	andseq	r0, r8, r3, lsl r2
    17b4:	11010000 	mrsne	r0, (UNDEF: 1)
    17b8:	130e2501 	movwne	r2, #58625	; 0xe501
    17bc:	1b0e030b 	blne	3823f0 <__bss_end__+0x3760c0>
    17c0:	1201110e 	andne	r1, r1, #-2147483645	; 0x80000003
    17c4:	00171006 	andseq	r1, r7, r6
    17c8:	00240200 	eoreq	r0, r4, r0, lsl #4
    17cc:	0b3e0b0b 	bleq	f84400 <__bss_end__+0xf780d0>
    17d0:	00000803 	andeq	r0, r0, r3, lsl #16
    17d4:	03001603 	movweq	r1, #1539	; 0x603
    17d8:	3b0b3a0e 	blcc	2d0018 <__bss_end__+0x2c3ce8>
    17dc:	0013490b 	andseq	r4, r3, fp, lsl #18
    17e0:	00240400 	eoreq	r0, r4, r0, lsl #8
    17e4:	0b3e0b0b 	bleq	f84418 <__bss_end__+0xf780e8>
    17e8:	00000e03 	andeq	r0, r0, r3, lsl #28
    17ec:	0b000f05 	bleq	5408 <_start-0x2bf8>
    17f0:	0600000b 	streq	r0, [r0], -fp
    17f4:	0b0b0113 	bleq	2c1c48 <__bss_end__+0x2b5918>
    17f8:	0b3b0b3a 	bleq	ec44e8 <__bss_end__+0xeb81b8>
    17fc:	00001301 	andeq	r1, r0, r1, lsl #6
    1800:	03000d07 	movweq	r0, #3335	; 0xd07
    1804:	3b0b3a08 	blcc	2d002c <__bss_end__+0x2c3cfc>
    1808:	3813490b 	ldmdacc	r3, {r0, r1, r3, r8, fp, lr}
    180c:	0800000b 	stmdaeq	r0, {r0, r1, r3}
    1810:	0e03000d 	cdpeq	0, 0, cr0, cr3, cr13, {0}
    1814:	0b3b0b3a 	bleq	ec4504 <__bss_end__+0xeb81d4>
    1818:	0b381349 	bleq	e06544 <__bss_end__+0xdfa214>
    181c:	04090000 	streq	r0, [r9], #-0
    1820:	3a0b0b01 	bcc	2c442c <__bss_end__+0x2b80fc>
    1824:	010b3b0b 	tsteq	fp, fp, lsl #22
    1828:	0a000013 	beq	187c <_start-0x6784>
    182c:	0e030028 	cdpeq	0, 0, cr0, cr3, cr8, {1}
    1830:	00000d1c 	andeq	r0, r0, ip, lsl sp
    1834:	3f012e0b 	svccc	0x00012e0b
    1838:	3a0e0319 	bcc	3824a4 <__bss_end__+0x376174>
    183c:	270b3b0b 	strcs	r3, [fp, -fp, lsl #22]
    1840:	11134919 	tstne	r3, r9, lsl r9
    1844:	40061201 	andmi	r1, r6, r1, lsl #4
    1848:	19429718 	stmdbne	r2, {r3, r4, r8, r9, sl, ip, pc}^
    184c:	00001301 	andeq	r1, r0, r1, lsl #6
    1850:	0300340c 	movweq	r3, #1036	; 0x40c
    1854:	3b0b3a08 	blcc	2d007c <__bss_end__+0x2c3d4c>
    1858:	1c13490b 	ldcne	9, cr4, [r3], {11}
    185c:	0d000006 	stceq	0, cr0, [r0, #-24]	; 0xffffffe8
    1860:	01018289 	smlabbeq	r1, r9, r2, r8
    1864:	13310111 	teqne	r1, #1073741828	; 0x40000004
    1868:	8a0e0000 	bhi	381870 <__bss_end__+0x375540>
    186c:	02000182 	andeq	r0, r0, #-2147483616	; 0x80000020
    1870:	18429118 	stmdane	r2, {r3, r4, r8, ip, pc}^
    1874:	0f0f0000 	svceq	0x000f0000
    1878:	490b0b00 	stmdbmi	fp, {r8, r9, fp}
    187c:	10000013 	andne	r0, r0, r3, lsl r0
    1880:	193f012e 	ldmdbne	pc!, {r1, r2, r3, r5, r8}	; <UNPREDICTABLE>
    1884:	0b3a0e03 	bleq	e85098 <__bss_end__+0xe78d68>
    1888:	19270b3b 	stmdbne	r7!, {r0, r1, r3, r4, r5, r8, r9, fp}
    188c:	193c1349 	ldmdbne	ip!, {r0, r3, r6, r8, r9, ip}
    1890:	05110000 	ldreq	r0, [r1, #-0]
    1894:	00134900 	andseq	r4, r3, r0, lsl #18
	...

Disassembly of section .debug_loc:

00000000 <.debug_loc>:
       0:	00000000 	andeq	r0, r0, r0
       4:	00000014 	andeq	r0, r0, r4, lsl r0
       8:	14500001 	ldrbne	r0, [r0], #-1
       c:	1b000000 	blne	14 <_start-0x7fec>
      10:	01000000 	mrseq	r0, (UNDEF: 0)
      14:	001b5300 	andseq	r5, fp, r0, lsl #6
      18:	00600000 	rsbeq	r0, r0, r0
      1c:	00040000 	andeq	r0, r4, r0
      20:	9f5001f3 	svcls	0x005001f3
	...
      30:	00000018 	andeq	r0, r0, r8, lsl r0
      34:	18510001 	ldmdane	r1, {r0}^
      38:	1b000000 	blne	40 <_start-0x7fc0>
      3c:	01000000 	mrseq	r0, (UNDEF: 0)
      40:	001b5000 	andseq	r5, fp, r0
      44:	00600000 	rsbeq	r0, r0, r0
      48:	00040000 	andeq	r0, r4, r0
      4c:	9f5101f3 	svcls	0x005101f3
	...
      5c:	0000001b 	andeq	r0, r0, fp, lsl r0
      60:	1b520001 	blne	148006c <__bss_end__+0x1473d3c>
      64:	54000000 	strpl	r0, [r0], #-0
      68:	01000000 	mrseq	r0, (UNDEF: 0)
      6c:	00545500 	subseq	r5, r4, r0, lsl #10
      70:	00600000 	rsbeq	r0, r0, r0
      74:	00040000 	andeq	r0, r4, r0
      78:	9f5201f3 	svcls	0x005201f3
	...
      84:	00000020 	andeq	r0, r0, r0, lsr #32
      88:	0000002b 	andeq	r0, r0, fp, lsr #32
      8c:	2b500001 	blcs	1400098 <__bss_end__+0x13f3d68>
      90:	48000000 	stmdami	r0, {}	; <UNPREDICTABLE>
      94:	01000000 	mrseq	r0, (UNDEF: 0)
      98:	00485400 	subeq	r5, r8, r0, lsl #8
      9c:	004c0000 	subeq	r0, ip, r0
      a0:	00010000 	andeq	r0, r1, r0
      a4:	00004c50 	andeq	r4, r0, r0, asr ip
      a8:	00005400 	andeq	r5, r0, r0, lsl #8
      ac:	54000100 	strpl	r0, [r0], #-256	; 0x100
	...
      b8:	000000a0 	andeq	r0, r0, r0, lsr #1
      bc:	000000b0 	strheq	r0, [r0], -r0	; <UNPREDICTABLE>
      c0:	b0500001 	subslt	r0, r0, r1
      c4:	fc000000 	stc2	0, cr0, [r0], {-0}
      c8:	01000000 	mrseq	r0, (UNDEF: 0)
      cc:	00005500 	andeq	r5, r0, r0, lsl #10
      d0:	00000000 	andeq	r0, r0, r0
      d4:	00a00000 	adceq	r0, r0, r0
      d8:	00b30000 	adcseq	r0, r3, r0
      dc:	00010000 	andeq	r0, r1, r0
      e0:	0000b351 	andeq	fp, r0, r1, asr r3
      e4:	0000fc00 	andeq	pc, r0, r0, lsl #24
      e8:	54000100 	strpl	r0, [r0], #-256	; 0x100
	...
      f4:	000000b8 	strheq	r0, [r0], -r8
      f8:	000000c3 	andeq	r0, r0, r3, asr #1
      fc:	c3500001 	cmpgt	r0, #1
     100:	fc000000 	stc2	0, cr0, [r0], {-0}
     104:	01000000 	mrseq	r0, (UNDEF: 0)
     108:	00005600 	andeq	r5, r0, r0, lsl #12
     10c:	00000000 	andeq	r0, r0, r0
     110:	01380000 	teqeq	r8, r0
     114:	013c0000 	teqeq	ip, r0
     118:	00010000 	andeq	r0, r1, r0
     11c:	00013c50 	andeq	r3, r1, r0, asr ip
     120:	00028800 	andeq	r8, r2, r0, lsl #16
     124:	54000100 	strpl	r0, [r0], #-256	; 0x100
	...
     130:	00000170 	andeq	r0, r0, r0, ror r1
     134:	00000174 	andeq	r0, r0, r4, ror r1
     138:	00730006 	rsbseq	r0, r3, r6
     13c:	9f1aff08 	svcls	0x001aff08
     140:	00000174 	andeq	r0, r0, r4, ror r1
     144:	0000017f 	andeq	r0, r0, pc, ror r1
     148:	0b730006 	bleq	1cc0168 <__bss_end__+0x1cb3e38>
     14c:	9f1aff08 	svcls	0x001aff08
     150:	00000198 	muleq	r0, r8, r1
     154:	0000019f 	muleq	r0, pc, r1	; <UNPREDICTABLE>
     158:	0b730006 	bleq	1cc0178 <__bss_end__+0x1cb3e48>
     15c:	9f1aff08 	svcls	0x001aff08
	...
     16c:	0000001c 	andeq	r0, r0, ip, lsl r0
     170:	1c500001 	mrrcne	0, 0, r0, r0, cr1	; <UNPREDICTABLE>
     174:	94000000 	strls	r0, [r0], #-0
     178:	01000000 	mrseq	r0, (UNDEF: 0)
     17c:	00005600 	andeq	r5, r0, r0, lsl #12
     180:	00000000 	andeq	r0, r0, r0
     184:	00080000 	andeq	r0, r8, r0
     188:	001c0000 	andseq	r0, ip, r0
     18c:	00060000 	andeq	r0, r6, r0
     190:	0f42400c 	svceq	0x0042400c
     194:	001c9f00 	andseq	r9, ip, r0, lsl #30
     198:	00280000 	eoreq	r0, r8, r0
     19c:	00010000 	andeq	r0, r1, r0
     1a0:	00002855 	andeq	r2, r0, r5, asr r8
     1a4:	00004400 	andeq	r4, r0, r0, lsl #8
     1a8:	53000100 	movwpl	r0, #256	; 0x100
     1ac:	00000044 	andeq	r0, r0, r4, asr #32
     1b0:	00000050 	andeq	r0, r0, r0, asr r0
     1b4:	50550001 	subspl	r0, r5, r1
     1b8:	5c000000 	stcpl	0, cr0, [r0], {-0}
     1bc:	01000000 	mrseq	r0, (UNDEF: 0)
     1c0:	00785300 	rsbseq	r5, r8, r0, lsl #6
     1c4:	00800000 	addeq	r0, r0, r0
     1c8:	00010000 	andeq	r0, r1, r0
     1cc:	00000053 	andeq	r0, r0, r3, asr r0
     1d0:	00000000 	andeq	r0, r0, r0
     1d4:	00009400 	andeq	r9, r0, r0, lsl #8
     1d8:	0000b400 	andeq	fp, r0, r0, lsl #8
     1dc:	50000100 	andpl	r0, r0, r0, lsl #2
     1e0:	000000b4 	strheq	r0, [r0], -r4
     1e4:	00000140 	andeq	r0, r0, r0, asr #2
     1e8:	00580001 	subseq	r0, r8, r1
     1ec:	00000000 	andeq	r0, r0, r0
     1f0:	a4000000 	strge	r0, [r0], #-0
     1f4:	b4000000 	strlt	r0, [r0], #-0
     1f8:	06000000 	streq	r0, [r0], -r0
     1fc:	42400c00 	submi	r0, r0, #0, 24
     200:	b49f000f 	ldrlt	r0, [pc], #15	; 208 <_start-0x7df8>
     204:	c0000000 	andgt	r0, r0, r0
     208:	01000000 	mrseq	r0, (UNDEF: 0)
     20c:	00c05400 	sbceq	r5, r0, r0, lsl #8
     210:	00d00000 	sbcseq	r0, r0, r0
     214:	00010000 	andeq	r0, r1, r0
     218:	0000d053 	andeq	sp, r0, r3, asr r0
     21c:	0000dc00 	andeq	sp, r0, r0, lsl #24
     220:	54000100 	strpl	r0, [r0], #-256	; 0x100
     224:	000000dc 	ldrdeq	r0, [r0], -ip
     228:	000000f8 	strdeq	r0, [r0], -r8
     22c:	04530001 	ldrbeq	r0, [r3], #-1
     230:	08000001 	stmdaeq	r0, {r0}
     234:	01000001 	tsteq	r0, r1
     238:	00005300 	andeq	r5, r0, r0, lsl #6
     23c:	00000000 	andeq	r0, r0, r0
     240:	01400000 	mrseq	r0, (UNDEF: 64)
     244:	016c0000 	cmneq	ip, r0
     248:	00010000 	andeq	r0, r1, r0
     24c:	00016c50 	andeq	r6, r1, r0, asr ip
     250:	00016c00 	andeq	r6, r1, r0, lsl #24
     254:	54000100 	strpl	r0, [r0], #-256	; 0x100
     258:	0000016c 	andeq	r0, r0, ip, ror #2
     25c:	00000170 	andeq	r0, r0, r0, ror r1
     260:	70500001 	subsvc	r0, r0, r1
     264:	b0000001 	andlt	r0, r0, r1
     268:	01000003 	tsteq	r0, r3
     26c:	00005400 	andeq	r5, r0, r0, lsl #8
     270:	00000000 	andeq	r0, r0, r0
     274:	01400000 	mrseq	r0, (UNDEF: 64)
     278:	01640000 	cmneq	r4, r0
     27c:	00010000 	andeq	r0, r1, r0
     280:	00016451 	andeq	r6, r1, r1, asr r4
     284:	0003b000 	andeq	fp, r3, r0
     288:	57000100 	strpl	r0, [r0, -r0, lsl #2]
	...
     294:	00000148 	andeq	r0, r0, r8, asr #2
     298:	00000174 	andeq	r0, r0, r4, ror r1
     29c:	9f300002 	svcls	0x00300002
     2a0:	00000174 	andeq	r0, r0, r4, ror r1
     2a4:	00000198 	muleq	r0, r8, r1
     2a8:	b0500001 	subslt	r0, r0, r1
     2ac:	b4000001 	strlt	r0, [r0], #-1
     2b0:	01000001 	tsteq	r0, r1
     2b4:	026c5000 	rsbeq	r5, ip, #0
     2b8:	02800000 	addeq	r0, r0, #0
     2bc:	00010000 	andeq	r0, r1, r0
     2c0:	00028050 	andeq	r8, r2, r0, asr r0
     2c4:	00029000 	andeq	r9, r2, r0
     2c8:	56000100 	strpl	r0, [r0], -r0, lsl #2
     2cc:	00000290 	muleq	r0, r0, r2
     2d0:	00000298 	muleq	r0, r8, r2
     2d4:	98500001 	ldmdals	r0, {r0}^
     2d8:	f8000002 			; <UNDEFINED> instruction: 0xf8000002
     2dc:	01000002 	tsteq	r0, r2
     2e0:	02f85300 	rscseq	r5, r8, #0, 6
     2e4:	03080000 	movweq	r0, #32768	; 0x8000
     2e8:	00010000 	andeq	r0, r1, r0
     2ec:	00030c55 	andeq	r0, r3, r5, asr ip
     2f0:	00034c00 	andeq	r4, r3, r0, lsl #24
     2f4:	53000100 	movwpl	r0, #256	; 0x100
     2f8:	00000354 	andeq	r0, r0, r4, asr r3
     2fc:	00000364 	andeq	r0, r0, r4, ror #6
     300:	00530001 	subseq	r0, r3, r1
     304:	00000000 	andeq	r0, r0, r0
     308:	b0000000 	andlt	r0, r0, r0
     30c:	d4000003 	strle	r0, [r0], #-3
     310:	01000003 	tsteq	r0, r3
     314:	03d45000 	bicseq	r5, r4, #0
     318:	04780000 	ldrbteq	r0, [r8], #-0
     31c:	00020000 	andeq	r0, r2, r0
     320:	0478007d 	ldrbteq	r0, [r8], #-125	; 0x7d
     324:	04a00000 	strteq	r0, [r0], #0
     328:	00040000 	andeq	r0, r4, r0
     32c:	9f5001f3 	svcls	0x005001f3
     330:	000004a0 	andeq	r0, r0, r0, lsr #9
     334:	000004ac 	andeq	r0, r0, ip, lsr #9
     338:	007d0002 	rsbseq	r0, sp, r2
     33c:	000004ac 	andeq	r0, r0, ip, lsr #9
     340:	000005ec 	andeq	r0, r0, ip, ror #11
     344:	01f30004 	mvnseq	r0, r4
     348:	00009f50 	andeq	r9, r0, r0, asr pc
     34c:	00000000 	andeq	r0, r0, r0
     350:	03b00000 	movseq	r0, #0
     354:	03d70000 	bicseq	r0, r7, #0
     358:	00010000 	andeq	r0, r1, r0
     35c:	0003d751 	andeq	sp, r3, r1, asr r7
     360:	0004c400 	andeq	ip, r4, r0, lsl #8
     364:	54000100 	strpl	r0, [r0], #-256	; 0x100
     368:	000004c4 	andeq	r0, r0, r4, asr #9
     36c:	000005ec 	andeq	r0, r0, ip, ror #11
     370:	01f30004 	mvnseq	r0, r4
     374:	00009f51 	andeq	r9, r0, r1, asr pc
     378:	00000000 	andeq	r0, r0, r0
     37c:	03b00000 	movseq	r0, #0
     380:	03c80000 	biceq	r0, r8, #0
     384:	00010000 	andeq	r0, r1, r0
     388:	0003c852 	andeq	ip, r3, r2, asr r8
     38c:	00059400 	andeq	r9, r5, r0, lsl #8
     390:	57000100 	strpl	r0, [r0, -r0, lsl #2]
     394:	00000598 	muleq	r0, r8, r5
     398:	0000059c 	muleq	r0, ip, r5
     39c:	a0570001 	subsge	r0, r7, r1
     3a0:	a4000005 	strge	r0, [r0], #-5
     3a4:	01000005 	tsteq	r0, r5
     3a8:	00005700 	andeq	r5, r0, r0, lsl #14
     3ac:	00000000 	andeq	r0, r0, r0
     3b0:	04f80000 	ldrbteq	r0, [r8], #0
     3b4:	050c0000 	streq	r0, [ip, #-0]
     3b8:	00010000 	andeq	r0, r1, r0
     3bc:	00050c50 	andeq	r0, r5, r0, asr ip
     3c0:	00051c00 	andeq	r1, r5, r0, lsl #24
     3c4:	58000100 	stmdapl	r0, {r8}
     3c8:	0000051c 	andeq	r0, r0, ip, lsl r5
     3cc:	00000540 	andeq	r0, r0, r0, asr #10
     3d0:	00500001 	subseq	r0, r0, r1
     3d4:	00000000 	andeq	r0, r0, r0
     3d8:	c0000000 	andgt	r0, r0, r0
     3dc:	c4000003 	strgt	r0, [r0], #-3
     3e0:	02000004 	andeq	r0, r0, #4
     3e4:	c49f3000 	ldrgt	r3, [pc], #0	; 3ec <_start-0x7c14>
     3e8:	a8000004 	stmdage	r0, {r2}
     3ec:	01000005 	tsteq	r0, r5
     3f0:	00005600 	andeq	r5, r0, r0, lsl #12
     3f4:	00000000 	andeq	r0, r0, r0
     3f8:	051c0000 	ldreq	r0, [ip, #-0]
     3fc:	052c0000 	streq	r0, [ip, #-0]!
     400:	00010000 	andeq	r0, r1, r0
     404:	00053053 	andeq	r3, r5, r3, asr r0
     408:	00054000 	andeq	r4, r5, r0
     40c:	53000100 	movwpl	r0, #256	; 0x100
	...
     418:	0000042c 	andeq	r0, r0, ip, lsr #8
     41c:	000005a8 	andeq	r0, r0, r8, lsr #11
     420:	00540001 	subseq	r0, r4, r1
     424:	00000000 	andeq	r0, r0, r0
     428:	ec000000 	stc	0, cr0, [r0], {-0}
     42c:	10000005 	andne	r0, r0, r5
     430:	01000006 	tsteq	r0, r6
     434:	06105000 	ldreq	r5, [r0], -r0
     438:	07000000 	streq	r0, [r0, -r0]
     43c:	00010000 	andeq	r0, r1, r0
     440:	00070054 	andeq	r0, r7, r4, asr r0
     444:	00085c00 	andeq	r5, r8, r0, lsl #24
     448:	f3000400 	vshl.u8	d0, d0, d0
     44c:	009f5001 	addseq	r5, pc, r1
     450:	00000000 	andeq	r0, r0, r0
     454:	ec000000 	stc	0, cr0, [r0], {-0}
     458:	13000005 	movwne	r0, #5
     45c:	01000006 	tsteq	r0, r6
     460:	06135100 	ldreq	r5, [r3], -r0, lsl #2
     464:	06b40000 	ldrteq	r0, [r4], r0
     468:	00020000 	andeq	r0, r2, r0
     46c:	06b4007d 	sxtaheq	r0, r4, sp
     470:	06dc0000 	ldrbeq	r0, [ip], r0
     474:	00040000 	andeq	r0, r4, r0
     478:	9f5101f3 	svcls	0x005101f3
     47c:	000006dc 	ldrdeq	r0, [r0], -ip
     480:	000006e8 	andeq	r0, r0, r8, ror #13
     484:	007d0002 	rsbseq	r0, sp, r2
     488:	000006e8 	andeq	r0, r0, r8, ror #13
     48c:	0000085c 	andeq	r0, r0, ip, asr r8
     490:	01f30004 	mvnseq	r0, r4
     494:	00009f51 	andeq	r9, r0, r1, asr pc
     498:	00000000 	andeq	r0, r0, r0
     49c:	05ec0000 	strbeq	r0, [ip, #0]!
     4a0:	06040000 	streq	r0, [r4], -r0
     4a4:	00010000 	andeq	r0, r1, r0
     4a8:	00060452 	andeq	r0, r6, r2, asr r4
     4ac:	0007fc00 	andeq	pc, r7, r0, lsl #24
     4b0:	57000100 	strpl	r0, [r0, -r0, lsl #2]
     4b4:	00000800 	andeq	r0, r0, r0, lsl #16
     4b8:	00000804 	andeq	r0, r0, r4, lsl #16
     4bc:	08570001 	ldmdaeq	r7, {r0}^
     4c0:	0c000008 	stceq	0, cr0, [r0], {8}
     4c4:	01000008 	tsteq	r0, r8
     4c8:	00005700 	andeq	r5, r0, r0, lsl #14
     4cc:	00000000 	andeq	r0, r0, r0
     4d0:	07340000 	ldreq	r0, [r4, -r0]!
     4d4:	07480000 	strbeq	r0, [r8, -r0]
     4d8:	00010000 	andeq	r0, r1, r0
     4dc:	00074850 	andeq	r4, r7, r0, asr r8
     4e0:	00075800 	andeq	r5, r7, r0, lsl #16
     4e4:	58000100 	stmdapl	r0, {r8}
     4e8:	00000758 	andeq	r0, r0, r8, asr r7
     4ec:	0000077c 	andeq	r0, r0, ip, ror r7
     4f0:	90500001 	subsls	r0, r0, r1
     4f4:	a4000007 	strge	r0, [r0], #-7
     4f8:	01000007 	tsteq	r0, r7
     4fc:	07a45000 	streq	r5, [r4, r0]!
     500:	07b40000 	ldreq	r0, [r4, r0]!
     504:	00010000 	andeq	r0, r1, r0
     508:	0007b454 	andeq	fp, r7, r4, asr r4
     50c:	0007d800 	andeq	sp, r7, r0, lsl #16
     510:	50000100 	andpl	r0, r0, r0, lsl #2
     514:	000007d8 	ldrdeq	r0, [r0], -r8
     518:	00000810 	andeq	r0, r0, r0, lsl r8
     51c:	00540001 	subseq	r0, r4, r1
     520:	00000000 	andeq	r0, r0, r0
     524:	fc000000 	stc2	0, cr0, [r0], {-0}
     528:	00000005 	andeq	r0, r0, r5
     52c:	02000007 	andeq	r0, r0, #7
     530:	009f3000 	addseq	r3, pc, r0
     534:	10000007 	andne	r0, r0, r7
     538:	01000008 	tsteq	r0, r8
     53c:	00005600 	andeq	r5, r0, r0, lsl #12
     540:	00000000 	andeq	r0, r0, r0
     544:	07580000 	ldrbeq	r0, [r8, -r0]
     548:	07680000 	strbeq	r0, [r8, -r0]!
     54c:	00010000 	andeq	r0, r1, r0
     550:	00076c53 	andeq	r6, r7, r3, asr ip
     554:	00077c00 	andeq	r7, r7, r0, lsl #24
     558:	53000100 	movwpl	r0, #256	; 0x100
	...
     564:	00000668 	andeq	r0, r0, r8, ror #12
     568:	00000794 	muleq	r0, r4, r7
     56c:	00540001 	subseq	r0, r4, r1
     570:	00000000 	andeq	r0, r0, r0
     574:	68000000 	stmdavs	r0, {}	; <UNPREDICTABLE>
     578:	7f000008 	svcvc	0x00000008
     57c:	01000008 	tsteq	r0, r8
     580:	08a05300 	stmiaeq	r0!, {r8, r9, ip, lr}
     584:	08bf0000 	ldmeq	pc!, {}	; <UNPREDICTABLE>
     588:	00010000 	andeq	r0, r1, r0
     58c:	0008dc53 	andeq	sp, r8, r3, asr ip
     590:	0008e000 	andeq	lr, r8, r0
     594:	53000100 	movwpl	r0, #256	; 0x100
     598:	000008e4 	andeq	r0, r0, r4, ror #17
     59c:	000008f3 	strdeq	r0, [r0], -r3
     5a0:	88530001 	ldmdahi	r3, {r0}^
     5a4:	a000000b 	andge	r0, r0, fp
     5a8:	0100000b 	tsteq	r0, fp
     5ac:	0ba05500 	bleq	fe8159b4 <__bss_end__+0xfe809684>
     5b0:	0ba80000 	bleq	fea005b8 <__bss_end__+0xfe9f4288>
     5b4:	00010000 	andeq	r0, r1, r0
     5b8:	000ba850 	andeq	sl, fp, r0, asr r8
     5bc:	000c3400 	andeq	r3, ip, r0, lsl #8
     5c0:	55000100 	strpl	r0, [r0, #-256]	; 0x100
     5c4:	00000c54 	andeq	r0, r0, r4, asr ip
     5c8:	00000cc0 	andeq	r0, r0, r0, asr #25
     5cc:	a8550001 	ldmdage	r5, {r0}^
     5d0:	b000000e 	andlt	r0, r0, lr
     5d4:	0100000e 	tsteq	r0, lr
     5d8:	0eb05500 	cdpeq	5, 11, cr5, cr0, cr0, {0}
     5dc:	0ebc0000 	cdpeq	0, 11, cr0, cr12, cr0, {0}
     5e0:	00030000 	andeq	r0, r3, r0
     5e4:	bc9f0175 	ldflts	f0, [pc], {117}	; 0x75
     5e8:	a000000e 	andge	r0, r0, lr
     5ec:	0100000f 	tsteq	r0, pc
     5f0:	0fb05500 	svceq	0x00b05500
     5f4:	0fb40000 	svceq	0x00b40000
     5f8:	00010000 	andeq	r0, r1, r0
     5fc:	00000055 	andeq	r0, r0, r5, asr r0
     600:	00000000 	andeq	r0, r0, r0
     604:	00094400 	andeq	r4, r9, r0, lsl #8
     608:	00095400 	andeq	r5, r9, r0, lsl #8
     60c:	0a000400 	beq	1614 <_start-0x69ec>
     610:	549f2710 	ldrpl	r2, [pc], #1808	; 618 <_start-0x79e8>
     614:	58000009 	stmdapl	r0, {r0, r3}
     618:	01000009 	tsteq	r0, r9
     61c:	09585300 	ldmdbeq	r8, {r8, r9, ip, lr}^
     620:	09700000 	ldmdbeq	r0!, {}^	; <UNPREDICTABLE>
     624:	00010000 	andeq	r0, r1, r0
     628:	00097054 	andeq	r7, r9, r4, asr r0
     62c:	00097c00 	andeq	r7, r9, r0, lsl #24
     630:	53000100 	movwpl	r0, #256	; 0x100
     634:	0000097c 	andeq	r0, r0, ip, ror r9
     638:	00000998 	muleq	r0, r8, r9
     63c:	9c540001 	mrrcls	0, 0, r0, r4, cr1
     640:	d8000009 	stmdale	r0, {r0, r3}
     644:	01000009 	tsteq	r0, r9
     648:	0b885400 	bleq	fe215650 <__bss_end__+0xfe209320>
     64c:	0c340000 	ldceq	0, cr0, [r4], #-0
     650:	00010000 	andeq	r0, r1, r0
     654:	000c5457 	andeq	r5, ip, r7, asr r4
     658:	000c5800 	andeq	r5, ip, r0, lsl #16
     65c:	57000100 	strpl	r0, [r0, -r0, lsl #2]
     660:	00000c58 	andeq	r0, r0, r8, asr ip
     664:	00000c64 	andeq	r0, r0, r4, ror #24
     668:	64530001 	ldrbvs	r0, [r3], #-1
     66c:	7000000c 	andvc	r0, r0, ip
     670:	0100000c 	tsteq	r0, ip
     674:	0c705700 	ldcleq	7, cr5, [r0], #-0
     678:	0c740000 	ldcleq	0, cr0, [r4], #-0
     67c:	00010000 	andeq	r0, r1, r0
     680:	000c7453 	andeq	r7, ip, r3, asr r4
     684:	000cb800 	andeq	fp, ip, r0, lsl #16
     688:	57000100 	strpl	r0, [r0, -r0, lsl #2]
     68c:	00000f90 	muleq	r0, r0, pc	; <UNPREDICTABLE>
     690:	00000fa0 	andeq	r0, r0, r0, lsr #31
     694:	00570001 	subseq	r0, r7, r1
     698:	00000000 	andeq	r0, r0, r0
     69c:	60000000 	andvs	r0, r0, r0
     6a0:	9c000008 	stcls	0, cr0, [r0], {8}
     6a4:	0200000c 	andeq	r0, r0, #12
     6a8:	9c9f3000 	ldcls	0, cr3, [pc], {0}
     6ac:	8800000c 	stmdahi	r0, {r2, r3}
     6b0:	0100000f 	tsteq	r0, pc
     6b4:	0f905600 	svceq	0x00905600
     6b8:	0fa00000 	svceq	0x00a00000
     6bc:	00020000 	andeq	r0, r2, r0
     6c0:	0fa09f30 	svceq	0x00a09f30
     6c4:	0fb40000 	svceq	0x00b40000
     6c8:	00010000 	andeq	r0, r1, r0
     6cc:	00000056 	andeq	r0, r0, r6, asr r0
     6d0:	00000000 	andeq	r0, r0, r0
     6d4:	0009c800 	andeq	ip, r9, r0, lsl #16
     6d8:	000fb400 	andeq	fp, pc, r0, lsl #8
     6dc:	0c000600 	stceq	6, cr0, [r0], {-0}
     6e0:	00061a80 	andeq	r1, r6, r0, lsl #21
     6e4:	0000009f 	muleq	r0, pc, r0	; <UNPREDICTABLE>
     6e8:	00000000 	andeq	r0, r0, r0
     6ec:	000a4c00 	andeq	r4, sl, r0, lsl #24
     6f0:	000a8400 	andeq	r8, sl, r0, lsl #8
     6f4:	55000100 	strpl	r0, [r0, #-256]	; 0x100
     6f8:	00000a84 	andeq	r0, r0, r4, lsl #21
     6fc:	00000a98 	muleq	r0, r8, sl
     700:	00750005 	rsbseq	r0, r5, r5
     704:	009f2438 	addseq	r2, pc, r8, lsr r4	; <UNPREDICTABLE>
     708:	00000000 	andeq	r0, r0, r0
     70c:	c8000000 	stmdagt	r0, {}	; <UNPREDICTABLE>
     710:	b4000009 	strlt	r0, [r0], #-9
     714:	0300000f 	movweq	r0, #15
     718:	9f680800 	svcls	0x00680800
	...
     724:	00000a38 	andeq	r0, r0, r8, lsr sl
     728:	00000b14 	andeq	r0, r0, r4, lsl fp
     72c:	49490005 	stmdbmi	r9, {r0, r2}^
     730:	009f1f24 	addseq	r1, pc, r4, lsr #30
     734:	00000000 	andeq	r0, r0, r0
     738:	c8000000 	stmdagt	r0, {}	; <UNPREDICTABLE>
     73c:	38000009 	stmdacc	r0, {r0, r3}
     740:	0300000a 	movweq	r0, #10
     744:	9f200800 	svcls	0x00200800
     748:	00000a38 	andeq	r0, r0, r8, lsr sl
     74c:	00000b14 	andeq	r0, r0, r4, lsl fp
     750:	9f360002 	svcls	0x00360002
	...
     75c:	000009c8 	andeq	r0, r0, r8, asr #19
     760:	00000fb4 			; <UNDEFINED> instruction: 0x00000fb4
     764:	9f300002 	svcls	0x00300002
	...
     770:	000009c8 	andeq	r0, r0, r8, asr #19
     774:	000009d8 	ldrdeq	r0, [r0], -r8
     778:	a00c0006 	andge	r0, ip, r6
     77c:	9f000186 	svcls	0x00000186
     780:	000009d8 	ldrdeq	r0, [r0], -r8
     784:	000009e4 	andeq	r0, r0, r4, ror #19
     788:	e4540001 	ldrb	r0, [r4], #-1
     78c:	f4000009 	vst4.8	{d0-d3}, [r0], r9
     790:	01000009 	tsteq	r0, r9
     794:	09f45300 	ldmibeq	r4!, {r8, r9, ip, lr}^
     798:	0a000000 	beq	7a0 <_start-0x7860>
     79c:	00010000 	andeq	r0, r1, r0
     7a0:	000a0054 	andeq	r0, sl, r4, asr r0
     7a4:	000a0c00 	andeq	r0, sl, r0, lsl #24
     7a8:	53000100 	movwpl	r0, #256	; 0x100
     7ac:	00000a20 	andeq	r0, r0, r0, lsr #20
     7b0:	00000a24 	andeq	r0, r0, r4, lsr #20
     7b4:	b8530001 	ldmdalt	r3, {r0}^
     7b8:	c800000a 	stmdagt	r0, {r1, r3}
     7bc:	0400000a 	streq	r0, [r0], #-10
     7c0:	27100a00 	ldrcs	r0, [r0, -r0, lsl #20]
     7c4:	000ac89f 	muleq	sl, pc, r8	; <UNPREDICTABLE>
     7c8:	000ad400 	andeq	sp, sl, r0, lsl #8
     7cc:	54000100 	strpl	r0, [r0], #-256	; 0x100
     7d0:	00000ad4 	ldrdeq	r0, [r0], -r4
     7d4:	00000ae4 	andeq	r0, r0, r4, ror #21
     7d8:	e4530001 	ldrb	r0, [r3], #-1
     7dc:	f000000a 			; <UNDEFINED> instruction: 0xf000000a
     7e0:	0100000a 	tsteq	r0, sl
     7e4:	0af05400 	beq	ffc157ec <__bss_end__+0xffc094bc>
     7e8:	0afc0000 	beq	fff007f0 <__bss_end__+0xffef44c0>
     7ec:	00010000 	andeq	r0, r1, r0
     7f0:	000b1053 	andeq	r1, fp, r3, asr r0
     7f4:	000b1400 	andeq	r1, fp, r0, lsl #8
     7f8:	53000100 	movwpl	r0, #256	; 0x100
	...
     804:	00000d68 	andeq	r0, r0, r8, ror #26
     808:	00000da0 	andeq	r0, r0, r0, lsr #27
     80c:	9f320002 	svcls	0x00320002
     810:	00000da0 	andeq	r0, r0, r0, lsr #27
     814:	00000e24 	andeq	r0, r0, r4, lsr #28
     818:	000a0004 	andeq	r0, sl, r4
     81c:	00009f02 	andeq	r9, r0, r2, lsl #30
     820:	00000000 	andeq	r0, r0, r0
     824:	0d680000 	stcleq	0, cr0, [r8, #-0]
     828:	0e240000 	cdpeq	0, 2, cr0, cr4, cr0, {0}
     82c:	00020000 	andeq	r0, r2, r0
     830:	00009f30 	andeq	r9, r0, r0, lsr pc
     834:	00000000 	andeq	r0, r0, r0
     838:	0da00000 	stceq	0, cr0, [r0]
     83c:	0e240000 	cdpeq	0, 2, cr0, cr4, cr0, {0}
     840:	00020000 	andeq	r0, r2, r0
     844:	00009f30 	andeq	r9, r0, r0, lsr pc
     848:	00000000 	andeq	r0, r0, r0
     84c:	0cf80000 	ldcleq	0, cr0, [r8]
     850:	0d080000 	stceq	0, cr0, [r8, #-0]
     854:	00010000 	andeq	r0, r1, r0
     858:	000d1455 	andeq	r1, sp, r5, asr r4
     85c:	000d2400 	andeq	r2, sp, r0, lsl #8
     860:	53000100 	movwpl	r0, #256	; 0x100
     864:	00000d24 	andeq	r0, r0, r4, lsr #26
     868:	00000d30 	andeq	r0, r0, r0, lsr sp
     86c:	30550001 	subscc	r0, r5, r1
     870:	3c00000d 	stccc	0, cr0, [r0], {13}
     874:	0100000d 	tsteq	r0, sp
     878:	0d505300 	ldcleq	3, cr5, [r0, #-0]
     87c:	0d580000 	ldcleq	0, cr0, [r8, #-0]
     880:	00010000 	andeq	r0, r1, r0
     884:	000dd053 	andeq	sp, sp, r3, asr r0
     888:	000de000 	andeq	lr, sp, r0
     88c:	0a000400 	beq	1894 <_start-0x676c>
     890:	e09f2710 	adds	r2, pc, r0, lsl r7	; <UNPREDICTABLE>
     894:	ec00000d 	stc	0, cr0, [r0], {13}
     898:	0100000d 	tsteq	r0, sp
     89c:	0dec5500 	cfstr64eq	mvdx5, [ip]
     8a0:	0dfc0000 	ldcleq	0, cr0, [ip]
     8a4:	00010000 	andeq	r0, r1, r0
     8a8:	000dfc53 	andeq	pc, sp, r3, asr ip	; <UNPREDICTABLE>
     8ac:	000e0800 	andeq	r0, lr, r0, lsl #16
     8b0:	55000100 	strpl	r0, [r0, #-256]	; 0x100
     8b4:	00000e08 	andeq	r0, r0, r8, lsl #28
     8b8:	00000e14 	andeq	r0, r0, r4, lsl lr
     8bc:	00530001 	subseq	r0, r3, r1
	...
     8c8:	1b000000 	blne	8d0 <_start-0x7730>
     8cc:	01000000 	mrseq	r0, (UNDEF: 0)
     8d0:	001b5000 	andseq	r5, fp, r0
     8d4:	00480000 	subeq	r0, r8, r0
     8d8:	00040000 	andeq	r0, r4, r0
     8dc:	9f5001f3 	svcls	0x005001f3
	...
     8e8:	00000048 	andeq	r0, r0, r8, asr #32
     8ec:	00000458 	andeq	r0, r0, r8, asr r4
     8f0:	58500001 	ldmdapl	r0, {r0}^
     8f4:	5c000004 	stcpl	0, cr0, [r0], {4}
     8f8:	01000004 	tsteq	r0, r4
     8fc:	045c5400 	ldrbeq	r5, [ip], #-1024	; 0x400
     900:	04600000 	strbteq	r0, [r0], #-0
     904:	00010000 	andeq	r0, r1, r0
     908:	00046050 	andeq	r6, r4, r0, asr r0
     90c:	00046400 	andeq	r6, r4, r0, lsl #8
     910:	54000100 	strpl	r0, [r0], #-256	; 0x100
     914:	00000464 	andeq	r0, r0, r4, ror #8
     918:	00000468 	andeq	r0, r0, r8, ror #8
     91c:	68500001 	ldmdavs	r0, {r0}^
     920:	6c000004 	stcvs	0, cr0, [r0], {4}
     924:	01000004 	tsteq	r0, r4
     928:	046c5400 	strbteq	r5, [ip], #-1024	; 0x400
     92c:	04700000 	ldrbteq	r0, [r0], #-0
     930:	00010000 	andeq	r0, r1, r0
     934:	00047050 	andeq	r7, r4, r0, asr r0
     938:	00047400 	andeq	r7, r4, r0, lsl #8
     93c:	54000100 	strpl	r0, [r0], #-256	; 0x100
     940:	00000474 	andeq	r0, r0, r4, ror r4
     944:	00000478 	andeq	r0, r0, r8, ror r4
     948:	78500001 	ldmdavc	r0, {r0}^
     94c:	7c000004 	stcvc	0, cr0, [r0], {4}
     950:	01000004 	tsteq	r0, r4
     954:	047c5400 	ldrbteq	r5, [ip], #-1024	; 0x400
     958:	04800000 	streq	r0, [r0], #0
     95c:	00010000 	andeq	r0, r1, r0
     960:	00048050 	andeq	r8, r4, r0, asr r0
     964:	00048400 	andeq	r8, r4, r0, lsl #8
     968:	54000100 	strpl	r0, [r0], #-256	; 0x100
     96c:	00000484 	andeq	r0, r0, r4, lsl #9
     970:	00000488 	andeq	r0, r0, r8, lsl #9
     974:	88500001 	ldmdahi	r0, {r0}^
     978:	8c000004 	stchi	0, cr0, [r0], {4}
     97c:	01000004 	tsteq	r0, r4
     980:	048c5400 	streq	r5, [ip], #1024	; 0x400
     984:	04900000 	ldreq	r0, [r0], #0
     988:	00010000 	andeq	r0, r1, r0
     98c:	00049050 	andeq	r9, r4, r0, asr r0
     990:	00049400 	andeq	r9, r4, r0, lsl #8
     994:	54000100 	strpl	r0, [r0], #-256	; 0x100
     998:	00000494 	muleq	r0, r4, r4
     99c:	00000498 	muleq	r0, r8, r4
     9a0:	98500001 	ldmdals	r0, {r0}^
     9a4:	9c000004 	stcls	0, cr0, [r0], {4}
     9a8:	01000004 	tsteq	r0, r4
     9ac:	049c5400 	ldreq	r5, [ip], #1024	; 0x400
     9b0:	04a00000 	strteq	r0, [r0], #0
     9b4:	00010000 	andeq	r0, r1, r0
     9b8:	0004a050 	andeq	sl, r4, r0, asr r0
     9bc:	0004a400 	andeq	sl, r4, r0, lsl #8
     9c0:	54000100 	strpl	r0, [r0], #-256	; 0x100
     9c4:	000004a4 	andeq	r0, r0, r4, lsr #9
     9c8:	000004a8 	andeq	r0, r0, r8, lsr #9
     9cc:	a8500001 	ldmdage	r0, {r0}^
     9d0:	ac000004 	stcge	0, cr0, [r0], {4}
     9d4:	01000004 	tsteq	r0, r4
     9d8:	04ac5400 	strteq	r5, [ip], #1024	; 0x400
     9dc:	04b00000 	ldrteq	r0, [r0], #0
     9e0:	00010000 	andeq	r0, r1, r0
     9e4:	0004b050 	andeq	fp, r4, r0, asr r0
     9e8:	0004b400 	andeq	fp, r4, r0, lsl #8
     9ec:	54000100 	strpl	r0, [r0], #-256	; 0x100
     9f0:	000004b4 			; <UNDEFINED> instruction: 0x000004b4
     9f4:	000004b8 			; <UNDEFINED> instruction: 0x000004b8
     9f8:	b8500001 	ldmdalt	r0, {r0}^
     9fc:	bc000004 	stclt	0, cr0, [r0], {4}
     a00:	01000004 	tsteq	r0, r4
     a04:	04bc5400 	ldrteq	r5, [ip], #1024	; 0x400
     a08:	04c00000 	strbeq	r0, [r0], #0
     a0c:	00010000 	andeq	r0, r1, r0
     a10:	0004c050 	andeq	ip, r4, r0, asr r0
     a14:	0004c400 	andeq	ip, r4, r0, lsl #8
     a18:	54000100 	strpl	r0, [r0], #-256	; 0x100
     a1c:	000004c4 	andeq	r0, r0, r4, asr #9
     a20:	000004c8 	andeq	r0, r0, r8, asr #9
     a24:	c8500001 	ldmdagt	r0, {r0}^
     a28:	cc000004 	stcgt	0, cr0, [r0], {4}
     a2c:	01000004 	tsteq	r0, r4
     a30:	04cc5400 	strbeq	r5, [ip], #1024	; 0x400
     a34:	04d00000 	ldrbeq	r0, [r0], #0
     a38:	00010000 	andeq	r0, r1, r0
     a3c:	0004d050 	andeq	sp, r4, r0, asr r0
     a40:	0004d400 	andeq	sp, r4, r0, lsl #8
     a44:	54000100 	strpl	r0, [r0], #-256	; 0x100
     a48:	000004d4 	ldrdeq	r0, [r0], -r4
     a4c:	000004d8 	ldrdeq	r0, [r0], -r8
     a50:	d8500001 	ldmdale	r0, {r0}^
     a54:	dc000004 	stcle	0, cr0, [r0], {4}
     a58:	01000004 	tsteq	r0, r4
     a5c:	04dc5400 	ldrbeq	r5, [ip], #1024	; 0x400
     a60:	04e00000 	strbteq	r0, [r0], #0
     a64:	00010000 	andeq	r0, r1, r0
     a68:	0004e050 	andeq	lr, r4, r0, asr r0
     a6c:	0004e400 	andeq	lr, r4, r0, lsl #8
     a70:	54000100 	strpl	r0, [r0], #-256	; 0x100
     a74:	000004e4 	andeq	r0, r0, r4, ror #9
     a78:	000004e8 	andeq	r0, r0, r8, ror #9
     a7c:	e8500001 	ldmda	r0, {r0}^
     a80:	ec000004 	stc	0, cr0, [r0], {4}
     a84:	01000004 	tsteq	r0, r4
     a88:	04ec5400 	strbteq	r5, [ip], #1024	; 0x400
     a8c:	04f00000 	ldrbteq	r0, [r0], #0
     a90:	00010000 	andeq	r0, r1, r0
     a94:	0004f050 	andeq	pc, r4, r0, asr r0	; <UNPREDICTABLE>
     a98:	0004f400 	andeq	pc, r4, r0, lsl #8
     a9c:	54000100 	strpl	r0, [r0], #-256	; 0x100
     aa0:	000004f4 	strdeq	r0, [r0], -r4
     aa4:	000004f8 	strdeq	r0, [r0], -r8
     aa8:	f8500001 			; <UNDEFINED> instruction: 0xf8500001
     aac:	fc000004 	stc2	0, cr0, [r0], {4}
     ab0:	01000004 	tsteq	r0, r4
     ab4:	04fc5400 	ldrbteq	r5, [ip], #1024	; 0x400
     ab8:	05000000 	streq	r0, [r0, #-0]
     abc:	00010000 	andeq	r0, r1, r0
     ac0:	00050050 	andeq	r0, r5, r0, asr r0
     ac4:	00050400 	andeq	r0, r5, r0, lsl #8
     ac8:	54000100 	strpl	r0, [r0], #-256	; 0x100
     acc:	00000504 	andeq	r0, r0, r4, lsl #10
     ad0:	00000508 	andeq	r0, r0, r8, lsl #10
     ad4:	08500001 	ldmdaeq	r0, {r0}^
     ad8:	0c000005 	stceq	0, cr0, [r0], {5}
     adc:	01000005 	tsteq	r0, r5
     ae0:	050c5400 	streq	r5, [ip, #-1024]	; 0x400
     ae4:	05100000 	ldreq	r0, [r0, #-0]
     ae8:	00010000 	andeq	r0, r1, r0
     aec:	00051050 	andeq	r1, r5, r0, asr r0
     af0:	00051400 	andeq	r1, r5, r0, lsl #8
     af4:	54000100 	strpl	r0, [r0], #-256	; 0x100
     af8:	00000514 	andeq	r0, r0, r4, lsl r5
     afc:	00000518 	andeq	r0, r0, r8, lsl r5
     b00:	18500001 	ldmdane	r0, {r0}^
     b04:	1c000005 	stcne	0, cr0, [r0], {5}
     b08:	01000005 	tsteq	r0, r5
     b0c:	051c5400 	ldreq	r5, [ip, #-1024]	; 0x400
     b10:	05200000 	streq	r0, [r0, #-0]!
     b14:	00010000 	andeq	r0, r1, r0
     b18:	00052050 	andeq	r2, r5, r0, asr r0
     b1c:	00052400 	andeq	r2, r5, r0, lsl #8
     b20:	54000100 	strpl	r0, [r0], #-256	; 0x100
     b24:	00000524 	andeq	r0, r0, r4, lsr #10
     b28:	00000528 	andeq	r0, r0, r8, lsr #10
     b2c:	28500001 	ldmdacs	r0, {r0}^
     b30:	2c000005 	stccs	0, cr0, [r0], {5}
     b34:	01000005 	tsteq	r0, r5
     b38:	052c5400 	streq	r5, [ip, #-1024]!	; 0x400
     b3c:	05300000 	ldreq	r0, [r0, #-0]!
     b40:	00010000 	andeq	r0, r1, r0
     b44:	00053050 	andeq	r3, r5, r0, asr r0
     b48:	00053400 	andeq	r3, r5, r0, lsl #8
     b4c:	54000100 	strpl	r0, [r0], #-256	; 0x100
     b50:	00000534 	andeq	r0, r0, r4, lsr r5
     b54:	00000538 	andeq	r0, r0, r8, lsr r5
     b58:	38500001 	ldmdacc	r0, {r0}^
     b5c:	3c000005 	stccc	0, cr0, [r0], {5}
     b60:	01000005 	tsteq	r0, r5
     b64:	053c5400 	ldreq	r5, [ip, #-1024]!	; 0x400
     b68:	05400000 	strbeq	r0, [r0, #-0]
     b6c:	00010000 	andeq	r0, r1, r0
     b70:	00054050 	andeq	r4, r5, r0, asr r0
     b74:	00054400 	andeq	r4, r5, r0, lsl #8
     b78:	54000100 	strpl	r0, [r0], #-256	; 0x100
     b7c:	00000544 	andeq	r0, r0, r4, asr #10
     b80:	00000548 	andeq	r0, r0, r8, asr #10
     b84:	48500001 	ldmdami	r0, {r0}^
     b88:	4c000005 	stcmi	0, cr0, [r0], {5}
     b8c:	01000005 	tsteq	r0, r5
     b90:	054c5400 	strbeq	r5, [ip, #-1024]	; 0x400
     b94:	05500000 	ldrbeq	r0, [r0, #-0]
     b98:	00010000 	andeq	r0, r1, r0
     b9c:	00055050 	andeq	r5, r5, r0, asr r0
     ba0:	00055400 	andeq	r5, r5, r0, lsl #8
     ba4:	54000100 	strpl	r0, [r0], #-256	; 0x100
     ba8:	00000554 	andeq	r0, r0, r4, asr r5
     bac:	00000558 	andeq	r0, r0, r8, asr r5
     bb0:	58500001 	ldmdapl	r0, {r0}^
     bb4:	5c000005 	stcpl	0, cr0, [r0], {5}
     bb8:	01000005 	tsteq	r0, r5
     bbc:	055c5400 	ldrbeq	r5, [ip, #-1024]	; 0x400
     bc0:	05600000 	strbeq	r0, [r0, #-0]!
     bc4:	00010000 	andeq	r0, r1, r0
     bc8:	00056050 	andeq	r6, r5, r0, asr r0
     bcc:	00056400 	andeq	r6, r5, r0, lsl #8
     bd0:	54000100 	strpl	r0, [r0], #-256	; 0x100
     bd4:	00000564 	andeq	r0, r0, r4, ror #10
     bd8:	00000567 	andeq	r0, r0, r7, ror #10
     bdc:	67500001 	ldrbvs	r0, [r0, -r1]
     be0:	84000005 	strhi	r0, [r0], #-5
     be4:	01000005 	tsteq	r0, r5
     be8:	05845400 	streq	r5, [r4, #1024]	; 0x400
     bec:	05880000 	streq	r0, [r8]
     bf0:	00010000 	andeq	r0, r1, r0
     bf4:	00058850 	andeq	r8, r5, r0, asr r8
     bf8:	00058c00 	andeq	r8, r5, r0, lsl #24
     bfc:	54000100 	strpl	r0, [r0], #-256	; 0x100
     c00:	0000058c 	andeq	r0, r0, ip, lsl #11
     c04:	00000590 	muleq	r0, r0, r5
     c08:	90500001 	subsls	r0, r0, r1
     c0c:	98000005 	stmdals	r0, {r0, r2}
     c10:	01000005 	tsteq	r0, r5
     c14:	05985400 	ldreq	r5, [r8, #1024]	; 0x400
     c18:	06280000 	strteq	r0, [r8], -r0
     c1c:	00040000 	andeq	r0, r4, r0
     c20:	9f5001f3 	svcls	0x005001f3
	...
     c2c:	00000628 	andeq	r0, r0, r8, lsr #12
     c30:	0000064c 	andeq	r0, r0, ip, asr #12
     c34:	4c500001 	mrrcmi	0, 0, r0, r0, cr1	; <UNPREDICTABLE>
     c38:	50000006 	andpl	r0, r0, r6
     c3c:	04000006 	streq	r0, [r0], #-6
     c40:	5001f300 	andpl	pc, r1, r0, lsl #6
     c44:	0006509f 	muleq	r6, pc, r0	; <UNPREDICTABLE>
     c48:	00065400 	andeq	r5, r6, r0, lsl #8
     c4c:	50000100 	andpl	r0, r0, r0, lsl #2
     c50:	00000654 	andeq	r0, r0, r4, asr r6
     c54:	00000658 	andeq	r0, r0, r8, asr r6
     c58:	01f30004 	mvnseq	r0, r4
     c5c:	00009f50 	andeq	r9, r0, r0, asr pc
     c60:	00000000 	andeq	r0, r0, r0
     c64:	06280000 	strteq	r0, [r8], -r0
     c68:	06300000 	ldrteq	r0, [r0], -r0
     c6c:	00020000 	andeq	r0, r2, r0
     c70:	06309f30 	shasxeq	r9, r0, r0
     c74:	06580000 	ldrbeq	r0, [r8], -r0
     c78:	00010000 	andeq	r0, r1, r0
     c7c:	00000053 	andeq	r0, r0, r3, asr r0
     c80:	00000000 	andeq	r0, r0, r0
     c84:	00065800 	andeq	r5, r6, r0, lsl #16
     c88:	00066800 	andeq	r6, r6, r0, lsl #16
     c8c:	50000100 	andpl	r0, r0, r0, lsl #2
     c90:	00000668 	andeq	r0, r0, r8, ror #12
     c94:	0000066f 	andeq	r0, r0, pc, ror #12
     c98:	6f530001 	svcvs	0x00530001
     c9c:	8c000006 	stchi	0, cr0, [r0], {6}
     ca0:	04000007 	streq	r0, [r0], #-7
     ca4:	5001f300 	andpl	pc, r1, r0, lsl #6
     ca8:	0000009f 	muleq	r0, pc, r0	; <UNPREDICTABLE>
     cac:	00000000 	andeq	r0, r0, r0
     cb0:	00065800 	andeq	r5, r6, r0, lsl #16
     cb4:	00066c00 	andeq	r6, r6, r0, lsl #24
     cb8:	51000100 	mrspl	r0, (UNDEF: 16)
     cbc:	0000066c 	andeq	r0, r0, ip, ror #12
     cc0:	0000078c 	andeq	r0, r0, ip, lsl #15
     cc4:	00540001 	subseq	r0, r4, r1
	...
     cd0:	1c000000 	stcne	0, cr0, [r0], {-0}
     cd4:	01000000 	mrseq	r0, (UNDEF: 0)
     cd8:	001c5200 	andseq	r5, ip, r0, lsl #4
     cdc:	003c0000 	eorseq	r0, ip, r0
     ce0:	00040000 	andeq	r0, r4, r0
     ce4:	9f5201f3 	svcls	0x005201f3
     ce8:	0000003c 	andeq	r0, r0, ip, lsr r0
     cec:	0000006c 	andeq	r0, r0, ip, rrx
     cf0:	00520001 	subseq	r0, r2, r1
     cf4:	00000000 	andeq	r0, r0, r0
     cf8:	1c000000 	stcne	0, cr0, [r0], {-0}
     cfc:	3c000000 	stccc	0, cr0, [r0], {-0}
     d00:	01000000 	mrseq	r0, (UNDEF: 0)
     d04:	00005200 	andeq	r5, r0, r0, lsl #4
     d08:	00000000 	andeq	r0, r0, r0
     d0c:	001c0000 	andseq	r0, ip, r0
     d10:	003c0000 	eorseq	r0, ip, r0
     d14:	00010000 	andeq	r0, r1, r0
     d18:	00000050 	andeq	r0, r0, r0, asr r0
     d1c:	00000000 	andeq	r0, r0, r0
     d20:	00001c00 	andeq	r1, r0, r0, lsl #24
     d24:	00003c00 	andeq	r3, r0, r0, lsl #24
     d28:	51000100 	mrspl	r0, (UNDEF: 16)
	...
     d34:	0000001c 	andeq	r0, r0, ip, lsl r0
     d38:	00000024 	andeq	r0, r0, r4, lsr #32
     d3c:	9f300002 	svcls	0x00300002
     d40:	00000024 	andeq	r0, r0, r4, lsr #32
     d44:	0000003c 	andeq	r0, r0, ip, lsr r0
     d48:	00530001 	subseq	r0, r3, r1
     d4c:	00000000 	andeq	r0, r0, r0
     d50:	3c000000 	stccc	0, cr0, [r0], {-0}
     d54:	4c000000 	stcmi	0, cr0, [r0], {-0}
     d58:	01000000 	mrseq	r0, (UNDEF: 0)
     d5c:	00605300 	rsbeq	r5, r0, r0, lsl #6
     d60:	006c0000 	rsbeq	r0, ip, r0
     d64:	00010000 	andeq	r0, r1, r0
     d68:	00000053 	andeq	r0, r0, r3, asr r0
     d6c:	00000000 	andeq	r0, r0, r0
     d70:	00002c00 	andeq	r2, r0, r0, lsl #24
     d74:	00003800 	andeq	r3, r0, r0, lsl #16
     d78:	50000100 	andpl	r0, r0, r0, lsl #2
     d7c:	00000038 	andeq	r0, r0, r8, lsr r0
     d80:	00000048 	andeq	r0, r0, r8, asr #32
     d84:	48550001 	ldmdami	r5, {r0}^
     d88:	58000000 	stmdapl	r0, {}	; <UNPREDICTABLE>
     d8c:	01000000 	mrseq	r0, (UNDEF: 0)
     d90:	00005000 	andeq	r5, r0, r0
	...
     d9c:	000b0000 	andeq	r0, fp, r0
     da0:	00010000 	andeq	r0, r1, r0
     da4:	00000b50 	andeq	r0, r0, r0, asr fp
     da8:	00001400 	andeq	r1, r0, r0, lsl #8
     dac:	54000100 	strpl	r0, [r0], #-256	; 0x100
	...
     dbc:	00000010 	andeq	r0, r0, r0, lsl r0
     dc0:	10500001 	subsne	r0, r0, r1
     dc4:	34000000 	strcc	r0, [r0], #-0
     dc8:	01000000 	mrseq	r0, (UNDEF: 0)
     dcc:	00005400 	andeq	r5, r0, r0, lsl #8
	...
     dd8:	000c0000 	andeq	r0, ip, r0
     ddc:	00010000 	andeq	r0, r1, r0
     de0:	00000c50 	andeq	r0, r0, r0, asr ip
     de4:	00000f00 	andeq	r0, r0, r0, lsl #30
     de8:	51000100 	mrspl	r0, (UNDEF: 16)
     dec:	0000000f 	andeq	r0, r0, pc
     df0:	0000001c 	andeq	r0, r0, ip, lsl r0
     df4:	01f30004 	mvnseq	r0, r4
     df8:	00009f50 	andeq	r9, r0, r0, asr pc
	...
     e04:	00040000 	andeq	r0, r4, r0
     e08:	00010000 	andeq	r0, r1, r0
     e0c:	00000450 	andeq	r0, r0, r0, asr r4
     e10:	00000c00 	andeq	r0, r0, r0, lsl #24
     e14:	70000300 	andvc	r0, r0, r0, lsl #6
     e18:	000c9f30 	andeq	r9, ip, r0, lsr pc
     e1c:	00140000 	andseq	r0, r4, r0
     e20:	00040000 	andeq	r0, r4, r0
     e24:	9f5001f3 	svcls	0x005001f3
	...
     e30:	00000014 	andeq	r0, r0, r4, lsl r0
     e34:	00000020 	andeq	r0, r0, r0, lsr #32
     e38:	20500001 	subscs	r0, r0, r1
     e3c:	2c000000 	stccs	0, cr0, [r0], {-0}
     e40:	03000000 	movweq	r0, #0
     e44:	9f017000 	svcls	0x00017000
     e48:	0000002c 	andeq	r0, r0, ip, lsr #32
     e4c:	00000040 	andeq	r0, r0, r0, asr #32
     e50:	00500001 	subseq	r0, r0, r1
     e54:	00000000 	andeq	r0, r0, r0
     e58:	14000000 	strne	r0, [r0], #-0
     e5c:	18000000 	stmdane	r0, {}	; <UNPREDICTABLE>
     e60:	01000000 	mrseq	r0, (UNDEF: 0)
     e64:	00185100 	andseq	r5, r8, r0, lsl #2
     e68:	00400000 	subeq	r0, r0, r0
     e6c:	00040000 	andeq	r0, r4, r0
     e70:	9f5101f3 	svcls	0x005101f3
	...
     e7c:	00000040 	andeq	r0, r0, r0, asr #32
     e80:	00000060 	andeq	r0, r0, r0, rrx
     e84:	60500001 	subsvs	r0, r0, r1
     e88:	6c000000 	stcvs	0, cr0, [r0], {-0}
     e8c:	03000000 	movweq	r0, #0
     e90:	9f017100 	svcls	0x00017100
     e94:	0000006c 	andeq	r0, r0, ip, rrx
     e98:	00000074 	andeq	r0, r0, r4, ror r0
     e9c:	74510001 	ldrbvc	r0, [r1], #-1
     ea0:	80000000 	andhi	r0, r0, r0
     ea4:	03000000 	movweq	r0, #0
     ea8:	9f017100 	svcls	0x00017100
	...
     eb4:	00000040 	andeq	r0, r0, r0, asr #32
     eb8:	00000050 	andeq	r0, r0, r0, asr r0
     ebc:	50510001 	subspl	r0, r1, r1
     ec0:	80000000 	andhi	r0, r0, r0
     ec4:	04000000 	streq	r0, [r0], #-0
     ec8:	5101f300 	mrspl	pc, SP_irq	; <UNPREDICTABLE>
     ecc:	0000009f 	muleq	r0, pc, r0	; <UNPREDICTABLE>
     ed0:	00000000 	andeq	r0, r0, r0
     ed4:	00004000 	andeq	r4, r0, r0
     ed8:	00005800 	andeq	r5, r0, r0, lsl #16
     edc:	52000100 	andpl	r0, r0, #0, 2
     ee0:	00000058 	andeq	r0, r0, r8, asr r0
     ee4:	00000064 	andeq	r0, r0, r4, rrx
     ee8:	64520001 	ldrbvs	r0, [r2], #-1
     eec:	68000000 	stmdavs	r0, {}	; <UNPREDICTABLE>
     ef0:	03000000 	movweq	r0, #0
     ef4:	9f017200 	svcls	0x00017200
     ef8:	00000068 	andeq	r0, r0, r8, rrx
     efc:	00000080 	andeq	r0, r0, r0, lsl #1
     f00:	00520001 	subseq	r0, r2, r1
     f04:	00000000 	andeq	r0, r0, r0
     f08:	40000000 	andmi	r0, r0, r0
     f0c:	54000000 	strpl	r0, [r0], #-0
     f10:	01000000 	mrseq	r0, (UNDEF: 0)
     f14:	00545300 	subseq	r5, r4, r0, lsl #6
     f18:	00780000 	rsbseq	r0, r8, r0
     f1c:	00010000 	andeq	r0, r1, r0
     f20:	00000053 	andeq	r0, r0, r3, asr r0
     f24:	00000000 	andeq	r0, r0, r0
     f28:	00004800 	andeq	r4, r0, r0, lsl #16
     f2c:	00006000 	andeq	r6, r0, r0
     f30:	5c000100 	stfpls	f0, [r0], {-0}
     f34:	00000060 	andeq	r0, r0, r0, rrx
     f38:	00000080 	andeq	r0, r0, r0, lsl #1
     f3c:	01f3000a 	mvnseq	r0, sl
     f40:	5301f352 	movwpl	pc, #4946	; 0x1352	; <UNPREDICTABLE>
     f44:	9f01231c 	svcls	0x0001231c
	...
     f50:	00000080 	andeq	r0, r0, r0, lsl #1
     f54:	000000a4 	andeq	r0, r0, r4, lsr #1
     f58:	a4500001 	ldrbge	r0, [r0], #-1
     f5c:	18000000 	stmdane	r0, {}	; <UNPREDICTABLE>
     f60:	03000001 	movweq	r0, #1
     f64:	9f027000 	svcls	0x00027000
     f68:	00000118 	andeq	r0, r0, r8, lsl r1
     f6c:	0000021c 	andeq	r0, r0, ip, lsl r2
     f70:	01f30004 	mvnseq	r0, r4
     f74:	00009f50 	andeq	r9, r0, r0, asr pc
     f78:	00000000 	andeq	r0, r0, r0
     f7c:	00800000 	addeq	r0, r0, r0
     f80:	00f00000 	rscseq	r0, r0, r0
     f84:	00010000 	andeq	r0, r1, r0
     f88:	0000f051 	andeq	pc, r0, r1, asr r0	; <UNPREDICTABLE>
     f8c:	00016000 	andeq	r6, r1, r0
     f90:	55000100 	strpl	r0, [r0, #-256]	; 0x100
     f94:	00000160 	andeq	r0, r0, r0, ror #2
     f98:	00000168 	andeq	r0, r0, r8, ror #2
     f9c:	68510001 	ldmdavs	r1, {r0}^
     fa0:	88000001 	stmdahi	r0, {r0}
     fa4:	01000001 	tsteq	r0, r1
     fa8:	01885500 	orreq	r5, r8, r0, lsl #10
     fac:	019c0000 	orrseq	r0, ip, r0
     fb0:	00010000 	andeq	r0, r1, r0
     fb4:	00019c51 	andeq	r9, r1, r1, asr ip
     fb8:	0001bc00 	andeq	fp, r1, r0, lsl #24
     fbc:	55000100 	strpl	r0, [r0, #-256]	; 0x100
     fc0:	000001bc 			; <UNDEFINED> instruction: 0x000001bc
     fc4:	000001bf 			; <UNDEFINED> instruction: 0x000001bf
     fc8:	bf510001 	svclt	0x00510001
     fcc:	00000001 	andeq	r0, r0, r1
     fd0:	01000002 	tsteq	r0, r2
     fd4:	02005500 	andeq	r5, r0, #0, 10
     fd8:	021c0000 	andseq	r0, ip, #0
     fdc:	00040000 	andeq	r0, r4, r0
     fe0:	9f5101f3 	svcls	0x005101f3
	...
     fec:	00000080 	andeq	r0, r0, r0, lsl #1
     ff0:	00000094 	muleq	r0, r4, r0
     ff4:	94520001 	ldrbls	r0, [r2], #-1
     ff8:	00000000 	andeq	r0, r0, r0
     ffc:	01000002 	tsteq	r0, r2
    1000:	02005400 	andeq	r5, r0, #0, 8
    1004:	021c0000 	andseq	r0, ip, #0
    1008:	00040000 	andeq	r0, r4, r0
    100c:	9f5201f3 	svcls	0x005201f3
	...
    1018:	00000080 	andeq	r0, r0, r0, lsl #1
    101c:	00000100 	andeq	r0, r0, r0, lsl #2
    1020:	04530001 	ldrbeq	r0, [r3], #-1
    1024:	08000001 	stmdaeq	r0, {r0}
    1028:	01000001 	tsteq	r0, r1
    102c:	01605300 	cmneq	r0, r0, lsl #6
    1030:	01680000 	cmneq	r8, r0
    1034:	00010000 	andeq	r0, r1, r0
    1038:	00016853 	andeq	r6, r1, r3, asr r8
    103c:	00018800 	andeq	r8, r1, r0, lsl #16
    1040:	f3000400 	vshl.u8	d0, d0, d0
    1044:	889f5301 	ldmhi	pc, {r0, r8, r9, ip, lr}	; <UNPREDICTABLE>
    1048:	90000001 	andls	r0, r0, r1
    104c:	01000001 	tsteq	r0, r1
    1050:	01905300 	orrseq	r5, r0, r0, lsl #6
    1054:	01940000 	orrseq	r0, r4, r0
    1058:	00010000 	andeq	r0, r1, r0
    105c:	0001945c 	andeq	r9, r1, ip, asr r4
    1060:	00019c00 	andeq	r9, r1, r0, lsl #24
    1064:	53000100 	movwpl	r0, #256	; 0x100
    1068:	0000019c 	muleq	r0, ip, r1
    106c:	000001bc 			; <UNDEFINED> instruction: 0x000001bc
    1070:	01f30004 	mvnseq	r0, r4
    1074:	01bc9f53 			; <UNDEFINED> instruction: 0x01bc9f53
    1078:	01bf0000 			; <UNDEFINED> instruction: 0x01bf0000
    107c:	00010000 	andeq	r0, r1, r0
    1080:	0001bf53 	andeq	fp, r1, r3, asr pc
    1084:	0001d800 	andeq	sp, r1, r0, lsl #16
    1088:	f3000400 	vshl.u8	d0, d0, d0
    108c:	009f5301 	addseq	r5, pc, r1, lsl #6
    1090:	00000000 	andeq	r0, r0, r0
    1094:	80000000 	andhi	r0, r0, r0
    1098:	9c000000 	stcls	0, cr0, [r0], {-0}
    109c:	02000000 	andeq	r0, r0, #0
    10a0:	9c009100 	stflsd	f1, [r0], {-0}
    10a4:	bf000000 	svclt	0x00000000
    10a8:	01000001 	tsteq	r0, r1
    10ac:	01d85200 	bicseq	r5, r8, r0, lsl #4
    10b0:	01e30000 	mvneq	r0, r0
    10b4:	00010000 	andeq	r0, r1, r0
    10b8:	00000052 	andeq	r0, r0, r2, asr r0
    10bc:	00000000 	andeq	r0, r0, r0
    10c0:	00009c00 	andeq	r9, r0, r0, lsl #24
    10c4:	00011800 	andeq	r1, r1, r0, lsl #16
    10c8:	5d000100 	stfpls	f0, [r0, #-0]
    10cc:	00000118 	andeq	r0, r0, r8, lsl r1
    10d0:	0000011c 	andeq	r0, r0, ip, lsl r1
    10d4:	1c530001 	mrrcne	0, 0, r0, r3, cr1
    10d8:	20000001 	andcs	r0, r0, r1
    10dc:	01000001 	tsteq	r0, r1
    10e0:	01205100 	teqeq	r0, r0, lsl #2
    10e4:	01600000 	cmneq	r0, r0
    10e8:	00010000 	andeq	r0, r1, r0
    10ec:	00016053 	andeq	r6, r1, r3, asr r0
    10f0:	00016800 	andeq	r6, r1, r0, lsl #16
    10f4:	5d000100 	stfpls	f0, [r0, #-0]
    10f8:	00000168 	andeq	r0, r0, r8, ror #2
    10fc:	0000016c 	andeq	r0, r0, ip, ror #2
    1100:	6c5e0001 	mrrcvs	0, 0, r0, lr, cr1
    1104:	88000001 	stmdahi	r0, {r0}
    1108:	01000001 	tsteq	r0, r1
    110c:	01885300 	orreq	r5, r8, r0, lsl #6
    1110:	01900000 	orrseq	r0, r0, r0
    1114:	00040000 	andeq	r0, r4, r0
    1118:	9f7fa191 	svcls	0x007fa191
    111c:	00000190 	muleq	r0, r0, r1
    1120:	00000194 	muleq	r0, r4, r1
    1124:	94530001 	ldrbls	r0, [r3], #-1
    1128:	9c000001 	stcls	0, cr0, [r0], {1}
    112c:	01000001 	tsteq	r0, r1
    1130:	019c5d00 	orrseq	r5, ip, r0, lsl #26
    1134:	01a00000 	moveq	r0, r0
    1138:	00010000 	andeq	r0, r1, r0
    113c:	0001a05e 	andeq	sl, r1, lr, asr r0
    1140:	0001bc00 	andeq	fp, r1, r0, lsl #24
    1144:	53000100 	movwpl	r0, #256	; 0x100
    1148:	000001bc 			; <UNDEFINED> instruction: 0x000001bc
    114c:	000001d8 	ldrdeq	r0, [r0], -r8
    1150:	d85d0001 	ldmdale	sp, {r0}^
    1154:	e3000001 	movw	r0, #1
    1158:	01000001 	tsteq	r0, r1
    115c:	00005300 	andeq	r5, r0, r0, lsl #6
    1160:	00000000 	andeq	r0, r0, r0
    1164:	00a00000 	adceq	r0, r0, r0
    1168:	00ec0000 	rsceq	r0, ip, r0
    116c:	00010000 	andeq	r0, r1, r0
    1170:	0000ec5c 	andeq	lr, r0, ip, asr ip
    1174:	00010000 	andeq	r0, r1, r0
    1178:	53000100 	movwpl	r0, #256	; 0x100
    117c:	00000100 	andeq	r0, r0, r0, lsl #2
    1180:	00000104 	andeq	r0, r0, r4, lsl #2
    1184:	045c0001 	ldrbeq	r0, [ip], #-1
    1188:	08000001 	stmdaeq	r0, {r0}
    118c:	01000001 	tsteq	r0, r1
    1190:	01085300 	mrseq	r5, (UNDEF: 56)
    1194:	01180000 	tsteq	r8, r0
    1198:	00010000 	andeq	r0, r1, r0
    119c:	0001185c 	andeq	r1, r1, ip, asr r8
    11a0:	00011c00 	andeq	r1, r1, r0, lsl #24
    11a4:	50000100 	andpl	r0, r0, r0, lsl #2
    11a8:	0000011c 	andeq	r0, r0, ip, lsl r1
    11ac:	0000013c 	andeq	r0, r0, ip, lsr r1
    11b0:	445c0001 	ldrbmi	r0, [ip], #-1
    11b4:	58000001 	stmdapl	r0, {r0}
    11b8:	01000001 	tsteq	r0, r1
    11bc:	01585000 	cmpeq	r8, r0
    11c0:	01600000 	cmneq	r0, r0
    11c4:	00010000 	andeq	r0, r1, r0
    11c8:	0001605c 	andeq	r6, r1, ip, asr r0
    11cc:	00016800 	andeq	r6, r1, r0, lsl #16
    11d0:	53000100 	movwpl	r0, #256	; 0x100
    11d4:	00000168 	andeq	r0, r0, r8, ror #2
    11d8:	00000178 	andeq	r0, r0, r8, ror r1
    11dc:	785c0001 	ldmdavc	ip, {r0}^
    11e0:	80000001 	andhi	r0, r0, r1
    11e4:	05000001 	streq	r0, [r0, #-1]
    11e8:	34007c00 	strcc	r7, [r0], #-3072	; 0xc00
    11ec:	01809f25 	orreq	r9, r0, r5, lsr #30
    11f0:	01880000 	orreq	r0, r8, r0
    11f4:	00010000 	andeq	r0, r1, r0
    11f8:	0001885c 	andeq	r8, r1, ip, asr r8
    11fc:	00019000 	andeq	r9, r1, r0
    1200:	53000100 	movwpl	r0, #256	; 0x100
    1204:	00000190 	muleq	r0, r0, r1
    1208:	00000194 	muleq	r0, r4, r1
    120c:	945c0001 	ldrbls	r0, [ip], #-1
    1210:	9c000001 	stcls	0, cr0, [r0], {1}
    1214:	01000001 	tsteq	r0, r1
    1218:	019c5300 	orrseq	r5, ip, r0, lsl #6
    121c:	01ac0000 			; <UNDEFINED> instruction: 0x01ac0000
    1220:	00010000 	andeq	r0, r1, r0
    1224:	0001ac5c 	andeq	sl, r1, ip, asr ip
    1228:	0001b400 	andeq	fp, r1, r0, lsl #8
    122c:	7c000500 	cfstr32vc	mvfx0, [r0], {-0}
    1230:	9f253100 	svcls	0x00253100
    1234:	000001b4 			; <UNDEFINED> instruction: 0x000001b4
    1238:	000001bc 			; <UNDEFINED> instruction: 0x000001bc
    123c:	bc5c0001 	mrrclt	0, 0, r0, ip, cr1
    1240:	bf000001 	svclt	0x00000001
    1244:	01000001 	tsteq	r0, r1
    1248:	01bf5300 			; <UNDEFINED> instruction: 0x01bf5300
    124c:	01d80000 	bicseq	r0, r8, r0
    1250:	00040000 	andeq	r0, r4, r0
    1254:	9f5301f3 	svcls	0x005301f3
    1258:	000001d8 	ldrdeq	r0, [r0], -r8
    125c:	000001e3 	andeq	r0, r0, r3, ror #3
    1260:	005c0001 	subseq	r0, ip, r1
    1264:	00000000 	andeq	r0, r0, r0
    1268:	ec000000 	stc	0, cr0, [r0], {-0}
    126c:	fc000000 	stc2	0, cr0, [r0], {-0}
    1270:	02000000 	andeq	r0, r0, #0
    1274:	fc9f3000 	ldc2	0, cr3, [pc], {0}
    1278:	04000000 	streq	r0, [r0], #-0
    127c:	02000001 	andeq	r0, r0, #1
    1280:	049f3100 	ldreq	r3, [pc], #256	; 1288 <_start-0x6d78>
    1284:	08000001 	stmdaeq	r0, {r0}
    1288:	02000001 	andeq	r0, r0, #1
    128c:	009f3000 	addseq	r3, pc, r0
    1290:	00000000 	andeq	r0, r0, r0
    1294:	1c000000 	stcne	0, cr0, [r0], {-0}
    1298:	2b000002 	blcs	12a8 <_start-0x6d58>
    129c:	01000002 	tsteq	r0, r2
    12a0:	022b5000 	eoreq	r5, fp, #0
    12a4:	02440000 	subeq	r0, r4, #0
    12a8:	00040000 	andeq	r0, r4, r0
    12ac:	9f5001f3 	svcls	0x005001f3
    12b0:	00000244 	andeq	r0, r0, r4, asr #4
    12b4:	00000270 	andeq	r0, r0, r0, ror r2
    12b8:	00500001 	subseq	r0, r0, r1
    12bc:	00000000 	andeq	r0, r0, r0
    12c0:	1c000000 	stcne	0, cr0, [r0], {-0}
    12c4:	2b000002 	blcs	12d4 <_start-0x6d2c>
    12c8:	01000002 	tsteq	r0, r2
    12cc:	022b5100 	eoreq	r5, fp, #0, 2
    12d0:	02440000 	subeq	r0, r4, #0
    12d4:	00040000 	andeq	r0, r4, r0
    12d8:	9f5101f3 	svcls	0x005101f3
    12dc:	00000244 	andeq	r0, r0, r4, asr #4
    12e0:	00000270 	andeq	r0, r0, r0, ror r2
    12e4:	00510001 	subseq	r0, r1, r1
    12e8:	00000000 	andeq	r0, r0, r0
    12ec:	70000000 	andvc	r0, r0, r0
    12f0:	9c000002 	stcls	0, cr0, [r0], {2}
    12f4:	01000002 	tsteq	r0, r2
    12f8:	029c5000 	addseq	r5, ip, #0
    12fc:	04e40000 	strbteq	r0, [r4], #0
    1300:	00010000 	andeq	r0, r1, r0
    1304:	0004e45a 	andeq	lr, r4, sl, asr r4
    1308:	0004f800 	andeq	pc, r4, r0, lsl #16
    130c:	f3000400 	vshl.u8	d0, d0, d0
    1310:	009f5001 	addseq	r5, pc, r1
    1314:	00000000 	andeq	r0, r0, r0
    1318:	70000000 	andvc	r0, r0, r0
    131c:	84000002 	strhi	r0, [r0], #-2
    1320:	01000002 	tsteq	r0, r2
    1324:	02845100 	addeq	r5, r4, #0, 2
    1328:	029c0000 	addseq	r0, ip, #0
    132c:	00030000 	andeq	r0, r3, r0
    1330:	9c9f0171 	ldflss	f0, [pc], {113}	; 0x71
    1334:	f8000002 			; <UNDEFINED> instruction: 0xf8000002
    1338:	04000004 	streq	r0, [r0], #-4
    133c:	5101f300 	mrspl	pc, SP_irq	; <UNPREDICTABLE>
    1340:	0000009f 	muleq	r0, pc, r0	; <UNPREDICTABLE>
    1344:	00000000 	andeq	r0, r0, r0
    1348:	00027000 	andeq	r7, r2, r0
    134c:	0002a400 	andeq	sl, r2, r0, lsl #8
    1350:	52000100 	andpl	r0, r0, #0, 2
    1354:	000002a4 	andeq	r0, r0, r4, lsr #5
    1358:	000002cc 	andeq	r0, r0, ip, asr #5
    135c:	cc520001 	mrrcgt	0, 0, r0, r2, cr1
    1360:	94000002 	strls	r0, [r0], #-2
    1364:	01000004 	tsteq	r0, r4
    1368:	04945600 	ldreq	r5, [r4], #1536	; 0x600
    136c:	04f80000 	ldrbteq	r0, [r8], #0
    1370:	00010000 	andeq	r0, r1, r0
    1374:	00000052 	andeq	r0, r0, r2, asr r0
    1378:	00000000 	andeq	r0, r0, r0
    137c:	00027000 	andeq	r7, r2, r0
    1380:	00028c00 	andeq	r8, r2, r0, lsl #24
    1384:	53000100 	movwpl	r0, #256	; 0x100
	...
    1390:	00000280 	andeq	r0, r0, r0, lsl #5
    1394:	0000029c 	muleq	r0, ip, r2
    1398:	9c500001 	mrrcls	0, 0, r0, r0, cr1	; <UNPREDICTABLE>
    139c:	a0000002 	andge	r0, r0, r2
    13a0:	01000002 	tsteq	r0, r2
    13a4:	02a05400 	adceq	r5, r0, #0, 8
    13a8:	02ac0000 	adceq	r0, ip, #0
    13ac:	00030000 	andeq	r0, r3, r0
    13b0:	ac9f0174 	ldfges	f0, [pc], {116}	; 0x74
    13b4:	b8000002 	stmdalt	r0, {r1}
    13b8:	01000002 	tsteq	r0, r2
    13bc:	02b85400 	adcseq	r5, r8, #0, 8
    13c0:	02c40000 	sbceq	r0, r4, #0
    13c4:	00030000 	andeq	r0, r3, r0
    13c8:	c49f0174 	ldrgt	r0, [pc], #372	; 13d0 <_start-0x6c30>
    13cc:	98000002 	stmdals	r0, {r1}
    13d0:	01000004 	tsteq	r0, r4
    13d4:	04985400 	ldreq	r5, [r8], #1024	; 0x400
    13d8:	04a40000 	strteq	r0, [r4], #0
    13dc:	00030000 	andeq	r0, r3, r0
    13e0:	a49f0174 	ldrge	r0, [pc], #372	; 13e8 <_start-0x6c18>
    13e4:	d0000004 	andle	r0, r0, r4
    13e8:	01000004 	tsteq	r0, r4
    13ec:	04d05400 	ldrbeq	r5, [r0], #1024	; 0x400
    13f0:	04dc0000 	ldrbeq	r0, [ip], #0
    13f4:	00010000 	andeq	r0, r1, r0
    13f8:	0004dc50 	andeq	sp, r4, r0, asr ip
    13fc:	0004e400 	andeq	lr, r4, r0, lsl #8
    1400:	74000300 	strvc	r0, [r0], #-768	; 0x300
    1404:	00009f01 	andeq	r9, r0, r1, lsl #30
    1408:	00000000 	andeq	r0, r0, r0
    140c:	02880000 	addeq	r0, r8, #0
    1410:	04e40000 	strbteq	r0, [r4], #0
    1414:	00010000 	andeq	r0, r1, r0
    1418:	0004e458 	andeq	lr, r4, r8, asr r4
    141c:	0004f800 	andeq	pc, r4, r0, lsl #16
    1420:	f3000a00 	vpmax.u8	d0, d0, d0
    1424:	01f35101 	mvnseq	r5, r1, lsl #2
    1428:	1c312250 	lfmne	f2, 4, [r1], #-320	; 0xfffffec0
    142c:	0000009f 	muleq	r0, pc, r0	; <UNPREDICTABLE>
    1430:	00000000 	andeq	r0, r0, r0
    1434:	0003cc00 	andeq	ip, r3, r0, lsl #24
    1438:	0003d000 	andeq	sp, r3, r0
    143c:	50000100 	andpl	r0, r0, r0, lsl #2
    1440:	000003f0 	strdeq	r0, [r0], -r0	; <UNPREDICTABLE>
    1444:	000003f4 	strdeq	r0, [r0], -r4
    1448:	14500001 	ldrbne	r0, [r0], #-1
    144c:	18000004 	stmdane	r0, {r2}
    1450:	01000004 	tsteq	r0, r4
    1454:	04385000 	ldrteq	r5, [r8], #-0
    1458:	043c0000 	ldrteq	r0, [ip], #-0
    145c:	00010000 	andeq	r0, r1, r0
    1460:	00044450 	andeq	r4, r4, r0, asr r4
    1464:	00044800 	andeq	r4, r4, r0, lsl #16
    1468:	50000100 	andpl	r0, r0, r0, lsl #2
    146c:	00000468 	andeq	r0, r0, r8, ror #8
    1470:	0000046c 	andeq	r0, r0, ip, ror #8
    1474:	90500001 	subsls	r0, r0, r1
    1478:	b8000004 	stmdalt	r0, {r2}
    147c:	01000004 	tsteq	r0, r4
    1480:	00005000 	andeq	r5, r0, r0
    1484:	00000000 	andeq	r0, r0, r0
    1488:	02cc0000 	sbceq	r0, ip, #0
    148c:	02d40000 	sbcseq	r0, r4, #0
    1490:	00020000 	andeq	r0, r2, r0
    1494:	02d49f30 	sbcseq	r9, r4, #48, 30	; 0xc0
    1498:	02d80000 	sbcseq	r0, r8, #0
    149c:	00010000 	andeq	r0, r1, r0
    14a0:	0002e457 	andeq	lr, r2, r7, asr r4
    14a4:	0004b800 	andeq	fp, r4, r0, lsl #16
    14a8:	57000100 	strpl	r0, [r0, -r0, lsl #2]
	...
    14b8:	0000000c 	andeq	r0, r0, ip
    14bc:	0c500001 	mrrceq	0, 0, r0, r0, cr1	; <UNPREDICTABLE>
    14c0:	20000000 	andcs	r0, r0, r0
    14c4:	01000000 	mrseq	r0, (UNDEF: 0)
    14c8:	00005400 	andeq	r5, r0, r0, lsl #8
    14cc:	00000000 	andeq	r0, r0, r0
    14d0:	00340000 	eorseq	r0, r4, r0
    14d4:	003c0000 	eorseq	r0, ip, r0
    14d8:	00030000 	andeq	r0, r3, r0
    14dc:	3c9f0473 	cfldrscc	mvf0, [pc], {115}	; 0x73
    14e0:	47000000 	strmi	r0, [r0, -r0]
    14e4:	01000000 	mrseq	r0, (UNDEF: 0)
    14e8:	00005300 	andeq	r5, r0, r0, lsl #6
    14ec:	00000000 	andeq	r0, r0, r0
    14f0:	00480000 	subeq	r0, r8, r0
    14f4:	00740000 	rsbseq	r0, r4, r0
    14f8:	00010000 	andeq	r0, r1, r0
    14fc:	00007450 	andeq	r7, r0, r0, asr r4
    1500:	00008300 	andeq	r8, r0, r0, lsl #6
    1504:	73000300 	movwvc	r0, #768	; 0x300
    1508:	00009f78 	andeq	r9, r0, r8, ror pc
    150c:	00000000 	andeq	r0, r0, r0
    1510:	a1900000 	orrsge	r0, r0, r0
    1514:	a1940000 	orrsge	r0, r4, r0
    1518:	00020000 	andeq	r0, r2, r0
    151c:	a1949f30 	orrsge	r9, r4, r0, lsr pc
    1520:	a1980000 	orrsge	r0, r8, r0
    1524:	00010000 	andeq	r0, r1, r0
    1528:	00000050 	andeq	r0, r0, r0, asr r0
    152c:	00000000 	andeq	r0, r0, r0
    1530:	00a1a800 	adceq	sl, r1, r0, lsl #16
    1534:	00a1ac00 	adceq	sl, r1, r0, lsl #24
    1538:	30000200 	andcc	r0, r0, r0, lsl #4
    153c:	00a1ac9f 	umlaleq	sl, r1, pc, ip	; <UNPREDICTABLE>
    1540:	00a1b000 	adceq	fp, r1, r0
    1544:	53000100 	movwpl	r0, #256	; 0x100
    1548:	0000a1b4 			; <UNDEFINED> instruction: 0x0000a1b4
    154c:	0000a1bc 			; <UNDEFINED> instruction: 0x0000a1bc
    1550:	00530001 	subseq	r0, r3, r1
	...
    155c:	04000000 	streq	r0, [r0], #-0
    1560:	01000000 	mrseq	r0, (UNDEF: 0)
    1564:	00045000 	andeq	r5, r4, r0
    1568:	000c0000 	andeq	r0, ip, r0
    156c:	00010000 	andeq	r0, r1, r0
    1570:	00000c53 	andeq	r0, r0, r3, asr ip
    1574:	00001000 	andeq	r1, r0, r0
    1578:	50000100 	andpl	r0, r0, r0, lsl #2
    157c:	00000010 	andeq	r0, r0, r0, lsl r0
    1580:	0000001c 	andeq	r0, r0, ip, lsl r0
    1584:	00530001 	subseq	r0, r3, r1
    1588:	00000000 	andeq	r0, r0, r0
    158c:	3c000000 	stccc	0, cr0, [r0], {-0}
    1590:	47000000 	strmi	r0, [r0, -r0]
    1594:	01000000 	mrseq	r0, (UNDEF: 0)
    1598:	00475000 	subeq	r5, r7, r0
    159c:	00600000 	rsbeq	r0, r0, r0
    15a0:	00010000 	andeq	r0, r1, r0
    15a4:	00000055 	andeq	r0, r0, r5, asr r0
    15a8:	00000000 	andeq	r0, r0, r0
    15ac:	00005000 	andeq	r5, r0, r0
    15b0:	00005400 	andeq	r5, r0, r0, lsl #8
    15b4:	50000100 	andpl	r0, r0, r0, lsl #2
	...
    15c0:	00000060 	andeq	r0, r0, r0, rrx
    15c4:	0000006c 	andeq	r0, r0, ip, rrx
    15c8:	6c500001 	mrrcvs	0, 0, r0, r0, cr1	; <UNPREDICTABLE>
    15cc:	74000000 	strvc	r0, [r0], #-0
    15d0:	04000000 	streq	r0, [r0], #-0
    15d4:	5001f300 	andpl	pc, r1, r0, lsl #6
    15d8:	0000009f 	muleq	r0, pc, r0	; <UNPREDICTABLE>
    15dc:	00000000 	andeq	r0, r0, r0
    15e0:	00007400 	andeq	r7, r0, r0, lsl #8
    15e4:	00008000 	andeq	r8, r0, r0
    15e8:	50000100 	andpl	r0, r0, r0, lsl #2
    15ec:	00000080 	andeq	r0, r0, r0, lsl #1
    15f0:	00000088 	andeq	r0, r0, r8, lsl #1
    15f4:	01f30004 	mvnseq	r0, r4
    15f8:	00009f50 	andeq	r9, r0, r0, asr pc
	...
    1604:	00170000 	andseq	r0, r7, r0
    1608:	00010000 	andeq	r0, r1, r0
    160c:	00001750 	andeq	r1, r0, r0, asr r7
    1610:	00003000 	andeq	r3, r0, r0
    1614:	f3000400 	vshl.u8	d0, d0, d0
    1618:	309f5001 	addscc	r5, pc, r1
    161c:	44000000 	strmi	r0, [r0], #-0
    1620:	01000000 	mrseq	r0, (UNDEF: 0)
    1624:	00445000 	subeq	r5, r4, r0
    1628:	00740000 	rsbseq	r0, r4, r0
    162c:	00040000 	andeq	r0, r4, r0
    1630:	9f5001f3 	svcls	0x005001f3
	...
    163c:	00000040 	andeq	r0, r0, r0, asr #32
    1640:	00000058 	andeq	r0, r0, r8, asr r0
    1644:	58560001 	ldmdapl	r6, {r0}^
    1648:	74000000 	strvc	r0, [r0], #-0
    164c:	09000000 	stmdbeq	r0, {}	; <UNPREDICTABLE>
    1650:	5001f300 	andpl	pc, r1, r0, lsl #6
    1654:	f8090723 			; <UNDEFINED> instruction: 0xf8090723
    1658:	00009f1a 	andeq	r9, r0, sl, lsl pc
    165c:	00000000 	andeq	r0, r0, r0
    1660:	00740000 	rsbseq	r0, r4, r0
    1664:	008b0000 	addeq	r0, fp, r0
    1668:	00010000 	andeq	r0, r1, r0
    166c:	00008b50 	andeq	r8, r0, r0, asr fp
    1670:	0000a400 	andeq	sl, r0, r0, lsl #8
    1674:	f3000400 	vshl.u8	d0, d0, d0
    1678:	a49f5001 	ldrge	r5, [pc], #1	; 1680 <_start-0x6980>
    167c:	af000000 	svcge	0x00000000
    1680:	01000000 	mrseq	r0, (UNDEF: 0)
    1684:	00af5000 	adceq	r5, pc, r0
    1688:	00b40000 	adcseq	r0, r4, r0
    168c:	00040000 	andeq	r0, r4, r0
    1690:	9f5001f3 	svcls	0x005001f3
    1694:	000000b4 	strheq	r0, [r0], -r4
    1698:	000000bf 	strheq	r0, [r0], -pc	; <UNPREDICTABLE>
    169c:	bf500001 	svclt	0x00500001
    16a0:	d8000000 	stmdale	r0, {}	; <UNPREDICTABLE>
    16a4:	04000000 	streq	r0, [r0], #-0
    16a8:	5001f300 	andpl	pc, r1, r0, lsl #6
    16ac:	0000d89f 	muleq	r0, pc, r8	; <UNPREDICTABLE>
    16b0:	0000f700 	andeq	pc, r0, r0, lsl #14
    16b4:	50000100 	andpl	r0, r0, r0, lsl #2
    16b8:	000000f7 	strdeq	r0, [r0], -r7
    16bc:	00000110 	andeq	r0, r0, r0, lsl r1
    16c0:	01f30004 	mvnseq	r0, r4
    16c4:	00009f50 	andeq	r9, r0, r0, asr pc
    16c8:	00000000 	andeq	r0, r0, r0
    16cc:	00740000 	rsbseq	r0, r4, r0
    16d0:	008b0000 	addeq	r0, fp, r0
    16d4:	00010000 	andeq	r0, r1, r0
    16d8:	00008b51 	andeq	r8, r0, r1, asr fp
    16dc:	0000a400 	andeq	sl, r0, r0, lsl #8
    16e0:	f3000400 	vshl.u8	d0, d0, d0
    16e4:	a49f5101 	ldrge	r5, [pc], #257	; 16ec <_start-0x6914>
    16e8:	af000000 	svcge	0x00000000
    16ec:	01000000 	mrseq	r0, (UNDEF: 0)
    16f0:	00af5100 	adceq	r5, pc, r0, lsl #2
    16f4:	00b40000 	adcseq	r0, r4, r0
    16f8:	00040000 	andeq	r0, r4, r0
    16fc:	9f5101f3 	svcls	0x005101f3
    1700:	000000b4 	strheq	r0, [r0], -r4
    1704:	000000bf 	strheq	r0, [r0], -pc	; <UNPREDICTABLE>
    1708:	bf510001 	svclt	0x00510001
    170c:	d8000000 	stmdale	r0, {}	; <UNPREDICTABLE>
    1710:	04000000 	streq	r0, [r0], #-0
    1714:	5101f300 	mrspl	pc, SP_irq	; <UNPREDICTABLE>
    1718:	0000d89f 	muleq	r0, pc, r8	; <UNPREDICTABLE>
    171c:	0000ec00 	andeq	lr, r0, r0, lsl #24
    1720:	51000100 	mrspl	r0, (UNDEF: 16)
    1724:	000000ec 	andeq	r0, r0, ip, ror #1
    1728:	000000f0 	strdeq	r0, [r0], -r0	; <UNPREDICTABLE>
    172c:	00710004 	rsbseq	r0, r1, r4
    1730:	00f09f1f 	rscseq	r9, r0, pc, lsl pc
    1734:	01100000 	tsteq	r0, r0
    1738:	00040000 	andeq	r0, r4, r0
    173c:	9f5101f3 	svcls	0x005101f3
	...
    1748:	000000e0 	andeq	r0, r0, r0, ror #1
    174c:	000000e4 	andeq	r0, r0, r4, ror #1
    1750:	e4520001 	ldrb	r0, [r2], #-1
    1754:	f0000000 			; <UNDEFINED> instruction: 0xf0000000
    1758:	05000000 	streq	r0, [r0, #-0]
    175c:	c30c0300 	movwgt	r0, #49920	; 0xc300
    1760:	00f00000 	rscseq	r0, r0, r0
    1764:	00f70000 	rscseq	r0, r7, r0
    1768:	00010000 	andeq	r0, r1, r0
    176c:	00000051 	andeq	r0, r0, r1, asr r0
    1770:	00000000 	andeq	r0, r0, r0
    1774:	00019400 	andeq	r9, r1, r0, lsl #8
    1778:	0001ab00 	andeq	sl, r1, r0, lsl #22
    177c:	50000100 	andpl	r0, r0, r0, lsl #2
    1780:	000001ab 	andeq	r0, r0, fp, lsr #3
    1784:	000001c4 	andeq	r0, r0, r4, asr #3
    1788:	01f30004 	mvnseq	r0, r4
    178c:	01c49f50 	biceq	r9, r4, r0, asr pc
    1790:	01e80000 	mvneq	r0, r0
    1794:	00010000 	andeq	r0, r1, r0
    1798:	00000050 	andeq	r0, r0, r0, asr r0
	...
    17a4:	00001800 	andeq	r1, r0, r0, lsl #16
    17a8:	50000100 	andpl	r0, r0, r0, lsl #2
    17ac:	00000018 	andeq	r0, r0, r8, lsl r0
    17b0:	00000154 	andeq	r0, r0, r4, asr r1
    17b4:	01f30004 	mvnseq	r0, r4
    17b8:	00009f50 	andeq	r9, r0, r0, asr pc
	...
    17c4:	001c0000 	andseq	r0, ip, r0
    17c8:	00010000 	andeq	r0, r1, r0
    17cc:	00001c51 	andeq	r1, r0, r1, asr ip
    17d0:	00015400 	andeq	r5, r1, r0, lsl #8
    17d4:	f3000400 	vshl.u8	d0, d0, d0
    17d8:	009f5101 	addseq	r5, pc, r1, lsl #2
    17dc:	00000000 	andeq	r0, r0, r0
    17e0:	10000000 	andne	r0, r0, r0
    17e4:	34000000 	strcc	r0, [r0], #-0
    17e8:	01000001 	tsteq	r0, r1
    17ec:	00005500 	andeq	r5, r0, r0, lsl #10
    17f0:	00000000 	andeq	r0, r0, r0
    17f4:	00100000 	andseq	r0, r0, r0
    17f8:	00340000 	eorseq	r0, r4, r0
    17fc:	00010000 	andeq	r0, r1, r0
    1800:	00003455 	andeq	r3, r0, r5, asr r4
    1804:	00013400 	andeq	r3, r1, r0, lsl #8
    1808:	58000100 	stmdapl	r0, {r8}
    180c:	00000134 	andeq	r0, r0, r4, lsr r1
    1810:	00000154 	andeq	r0, r0, r4, asr r1
    1814:	00550001 	subseq	r0, r5, r1
    1818:	00000000 	andeq	r0, r0, r0
    181c:	14000000 	strne	r0, [r0], #-0
    1820:	34000000 	strcc	r0, [r0], #-0
    1824:	01000001 	tsteq	r0, r1
    1828:	00005500 	andeq	r5, r0, r0, lsl #10
    182c:	00000000 	andeq	r0, r0, r0
    1830:	00200000 	eoreq	r0, r0, r0
    1834:	01340000 	teqeq	r4, r0
    1838:	00010000 	andeq	r0, r1, r0
    183c:	00000055 	andeq	r0, r0, r5, asr r0
    1840:	00000000 	andeq	r0, r0, r0
    1844:	00002400 	andeq	r2, r0, r0, lsl #8
    1848:	00002800 	andeq	r2, r0, r0, lsl #16
    184c:	53000100 	movwpl	r0, #256	; 0x100
	...
    1858:	00000034 	andeq	r0, r0, r4, lsr r0
    185c:	00000054 	andeq	r0, r0, r4, asr r0
    1860:	54580001 	ldrbpl	r0, [r8], #-1
    1864:	34000000 	strcc	r0, [r0], #-0
    1868:	05000001 	streq	r0, [r0, #-1]
    186c:	31007500 	tstcc	r0, r0, lsl #10
    1870:	00009f24 	andeq	r9, r0, r4, lsr #30
    1874:	00000000 	andeq	r0, r0, r0
    1878:	00340000 	eorseq	r0, r4, r0
    187c:	003c0000 	eorseq	r0, ip, r0
    1880:	00050000 	andeq	r0, r5, r0
    1884:	1a310077 	bne	c41a68 <__bss_end__+0xc35738>
    1888:	00003c9f 	muleq	r0, pc, ip	; <UNPREDICTABLE>
    188c:	00003f00 	andeq	r3, r0, r0, lsl #30
    1890:	51000100 	mrspl	r0, (UNDEF: 16)
    1894:	0000003f 	andeq	r0, r0, pc, lsr r0
    1898:	00000154 	andeq	r0, r0, r4, asr r1
    189c:	00770005 	rsbseq	r0, r7, r5
    18a0:	009f1a31 	addseq	r1, pc, r1, lsr sl	; <UNPREDICTABLE>
    18a4:	00000000 	andeq	r0, r0, r0
    18a8:	40000000 	andmi	r0, r0, r0
    18ac:	54000000 	strpl	r0, [r0], #-0
    18b0:	01000000 	mrseq	r0, (UNDEF: 0)
    18b4:	00545800 	subseq	r5, r4, r0, lsl #16
    18b8:	01340000 	teqeq	r4, r0
    18bc:	00050000 	andeq	r0, r5, r0
    18c0:	24310075 	ldrtcs	r0, [r1], #-117	; 0x75
    18c4:	0000009f 	muleq	r0, pc, r0	; <UNPREDICTABLE>
    18c8:	00000000 	andeq	r0, r0, r0
    18cc:	00004400 	andeq	r4, r0, r0, lsl #8
    18d0:	00004800 	andeq	r4, r0, r0, lsl #16
    18d4:	53000100 	movwpl	r0, #256	; 0x100
	...
    18e0:	00000054 	andeq	r0, r0, r4, asr r0
    18e4:	00000074 	andeq	r0, r0, r4, ror r0
    18e8:	74580001 	ldrbvc	r0, [r8], #-1
    18ec:	34000000 	strcc	r0, [r0], #-0
    18f0:	08000001 	stmdaeq	r0, {r0}
    18f4:	31007500 	tstcc	r0, r0, lsl #10
    18f8:	22007524 	andcs	r7, r0, #36, 10	; 0x9000000
    18fc:	0000009f 	muleq	r0, pc, r0	; <UNPREDICTABLE>
    1900:	00000000 	andeq	r0, r0, r0
    1904:	00006000 	andeq	r6, r0, r0
    1908:	00007400 	andeq	r7, r0, r0, lsl #8
    190c:	58000100 	stmdapl	r0, {r8}
    1910:	00000074 	andeq	r0, r0, r4, ror r0
    1914:	00000134 	andeq	r0, r0, r4, lsr r1
    1918:	00750008 	rsbseq	r0, r5, r8
    191c:	00752431 	rsbseq	r2, r5, r1, lsr r4
    1920:	00009f22 	andeq	r9, r0, r2, lsr #30
    1924:	00000000 	andeq	r0, r0, r0
    1928:	00640000 	rsbeq	r0, r4, r0
    192c:	00680000 	rsbeq	r0, r8, r0
    1930:	00010000 	andeq	r0, r1, r0
    1934:	00000053 	andeq	r0, r0, r3, asr r0
    1938:	00000000 	andeq	r0, r0, r0
    193c:	00007400 	andeq	r7, r0, r0, lsl #8
    1940:	00009400 	andeq	r9, r0, r0, lsl #8
    1944:	58000100 	stmdapl	r0, {r8}
    1948:	00000094 	muleq	r0, r4, r0
    194c:	00000134 	andeq	r0, r0, r4, lsr r1
    1950:	00750005 	rsbseq	r0, r5, r5
    1954:	009f2432 	addseq	r2, pc, r2, lsr r4	; <UNPREDICTABLE>
    1958:	00000000 	andeq	r0, r0, r0
    195c:	80000000 	andhi	r0, r0, r0
    1960:	94000000 	strls	r0, [r0], #-0
    1964:	01000000 	mrseq	r0, (UNDEF: 0)
    1968:	00945800 	addseq	r5, r4, r0, lsl #16
    196c:	01340000 	teqeq	r4, r0
    1970:	00050000 	andeq	r0, r5, r0
    1974:	24320075 	ldrtcs	r0, [r2], #-117	; 0x75
    1978:	0000009f 	muleq	r0, pc, r0	; <UNPREDICTABLE>
    197c:	00000000 	andeq	r0, r0, r0
    1980:	00008400 	andeq	r8, r0, r0, lsl #8
    1984:	00008800 	andeq	r8, r0, r0, lsl #16
    1988:	53000100 	movwpl	r0, #256	; 0x100
	...
    1994:	00000094 	muleq	r0, r4, r0
    1998:	000000b4 	strheq	r0, [r0], -r4
    199c:	b4580001 	ldrblt	r0, [r8], #-1
    19a0:	34000000 	strcc	r0, [r0], #-0
    19a4:	08000001 	stmdaeq	r0, {r0}
    19a8:	32007500 	andcc	r7, r0, #0, 10
    19ac:	22007524 	andcs	r7, r0, #36, 10	; 0x9000000
    19b0:	0000009f 	muleq	r0, pc, r0	; <UNPREDICTABLE>
    19b4:	00000000 	andeq	r0, r0, r0
    19b8:	0000a000 	andeq	sl, r0, r0
    19bc:	0000b400 	andeq	fp, r0, r0, lsl #8
    19c0:	58000100 	stmdapl	r0, {r8}
    19c4:	000000b4 	strheq	r0, [r0], -r4
    19c8:	00000134 	andeq	r0, r0, r4, lsr r1
    19cc:	00750008 	rsbseq	r0, r5, r8
    19d0:	00752432 	rsbseq	r2, r5, r2, lsr r4
    19d4:	00009f22 	andeq	r9, r0, r2, lsr #30
    19d8:	00000000 	andeq	r0, r0, r0
    19dc:	00a40000 	adceq	r0, r4, r0
    19e0:	00a80000 	adceq	r0, r8, r0
    19e4:	00010000 	andeq	r0, r1, r0
    19e8:	00000053 	andeq	r0, r0, r3, asr r0
    19ec:	00000000 	andeq	r0, r0, r0
    19f0:	0000b400 	andeq	fp, r0, r0, lsl #8
    19f4:	0000d400 	andeq	sp, r0, r0, lsl #8
    19f8:	58000100 	stmdapl	r0, {r8}
    19fc:	000000d4 	ldrdeq	r0, [r0], -r4
    1a00:	00000134 	andeq	r0, r0, r4, lsr r1
    1a04:	0075000a 	rsbseq	r0, r5, sl
    1a08:	00752432 	rsbseq	r2, r5, r2, lsr r4
    1a0c:	9f222431 	svcls	0x00222431
	...
    1a18:	000000c0 	andeq	r0, r0, r0, asr #1
    1a1c:	000000d4 	ldrdeq	r0, [r0], -r4
    1a20:	d4580001 	ldrble	r0, [r8], #-1
    1a24:	34000000 	strcc	r0, [r0], #-0
    1a28:	0a000001 	beq	1a34 <_start-0x65cc>
    1a2c:	32007500 	andcc	r7, r0, #0, 10
    1a30:	31007524 	tstcc	r0, r4, lsr #10
    1a34:	009f2224 	addseq	r2, pc, r4, lsr #4
    1a38:	00000000 	andeq	r0, r0, r0
    1a3c:	c4000000 	strgt	r0, [r0], #-0
    1a40:	c8000000 	stmdagt	r0, {}	; <UNPREDICTABLE>
    1a44:	01000000 	mrseq	r0, (UNDEF: 0)
    1a48:	00005300 	andeq	r5, r0, r0, lsl #6
    1a4c:	00000000 	andeq	r0, r0, r0
    1a50:	00d40000 	sbcseq	r0, r4, r0
    1a54:	00f40000 	rscseq	r0, r4, r0
    1a58:	00010000 	andeq	r0, r1, r0
    1a5c:	0000f458 	andeq	pc, r0, r8, asr r4	; <UNPREDICTABLE>
    1a60:	00013400 	andeq	r3, r1, r0, lsl #8
    1a64:	75000d00 	strvc	r0, [r0, #-3328]	; 0xd00
    1a68:	75243200 	strvc	r3, [r4, #-512]!	; 0x200
    1a6c:	22243100 	eorcs	r3, r4, #0, 2
    1a70:	9f220075 	svcls	0x00220075
	...
    1a7c:	000000e0 	andeq	r0, r0, r0, ror #1
    1a80:	000000f4 	strdeq	r0, [r0], -r4
    1a84:	f4580001 			; <UNDEFINED> instruction: 0xf4580001
    1a88:	34000000 	strcc	r0, [r0], #-0
    1a8c:	0d000001 	stceq	0, cr0, [r0, #-4]
    1a90:	32007500 	andcc	r7, r0, #0, 10
    1a94:	31007524 	tstcc	r0, r4, lsr #10
    1a98:	00752224 	rsbseq	r2, r5, r4, lsr #4
    1a9c:	00009f22 	andeq	r9, r0, r2, lsr #30
    1aa0:	00000000 	andeq	r0, r0, r0
    1aa4:	00e40000 	rsceq	r0, r4, r0
    1aa8:	00e80000 	rsceq	r0, r8, r0
    1aac:	00010000 	andeq	r0, r1, r0
    1ab0:	00000053 	andeq	r0, r0, r3, asr r0
    1ab4:	00000000 	andeq	r0, r0, r0
    1ab8:	0000f400 	andeq	pc, r0, r0, lsl #8
    1abc:	00011400 	andeq	r1, r1, r0, lsl #8
    1ac0:	58000100 	stmdapl	r0, {r8}
    1ac4:	00000114 	andeq	r0, r0, r4, lsl r1
    1ac8:	00000134 	andeq	r0, r0, r4, lsr r1
    1acc:	00750005 	rsbseq	r0, r5, r5
    1ad0:	009f2433 	addseq	r2, pc, r3, lsr r4	; <UNPREDICTABLE>
	...
    1adc:	14000001 	strne	r0, [r0], #-1
    1ae0:	01000001 	tsteq	r0, r1
    1ae4:	01145800 	tsteq	r4, r0, lsl #16
    1ae8:	01340000 	teqeq	r4, r0
    1aec:	00050000 	andeq	r0, r5, r0
    1af0:	24330075 	ldrtcs	r0, [r3], #-117	; 0x75
    1af4:	0000009f 	muleq	r0, pc, r0	; <UNPREDICTABLE>
    1af8:	00000000 	andeq	r0, r0, r0
    1afc:	00010400 	andeq	r0, r1, r0, lsl #8
    1b00:	00010800 	andeq	r0, r1, r0, lsl #16
    1b04:	53000100 	movwpl	r0, #256	; 0x100
	...
    1b10:	00000114 	andeq	r0, r0, r4, lsl r1
    1b14:	0000011c 	andeq	r0, r0, ip, lsl r1
    1b18:	00770006 	rsbseq	r0, r7, r6
    1b1c:	9f1a8008 	svcls	0x001a8008
    1b20:	0000011c 	andeq	r0, r0, ip, lsl r1
    1b24:	0000011f 	andeq	r0, r0, pc, lsl r1
    1b28:	1f510001 	svcne	0x00510001
    1b2c:	54000001 	strpl	r0, [r0], #-1
    1b30:	06000001 	streq	r0, [r0], -r1
    1b34:	08007700 	stmdaeq	r0, {r8, r9, sl, ip, sp, lr}
    1b38:	009f1a80 	addseq	r1, pc, r0, lsl #21
    1b3c:	00000000 	andeq	r0, r0, r0
    1b40:	24000000 	strcs	r0, [r0], #-0
    1b44:	28000001 	stmdacs	r0, {r0}
    1b48:	01000001 	tsteq	r0, r1
    1b4c:	00005300 	andeq	r5, r0, r0, lsl #6
    1b50:	00000000 	andeq	r0, r0, r0
    1b54:	01440000 	mrseq	r0, (UNDEF: 68)
    1b58:	01480000 	mrseq	r0, (UNDEF: 72)
    1b5c:	00010000 	andeq	r0, r1, r0
    1b60:	00000053 	andeq	r0, r0, r3, asr r0
    1b64:	00000000 	andeq	r0, r0, r0
    1b68:	00015400 	andeq	r5, r1, r0, lsl #8
    1b6c:	00016b00 	andeq	r6, r1, r0, lsl #22
    1b70:	50000100 	andpl	r0, r0, r0, lsl #2
    1b74:	0000016b 	andeq	r0, r0, fp, ror #2
    1b78:	000001d0 	ldrdeq	r0, [r0], -r0	; <UNPREDICTABLE>
    1b7c:	d0590001 	subsle	r0, r9, r1
    1b80:	0c000001 	stceq	0, cr0, [r0], {1}
    1b84:	04000003 	streq	r0, [r0], #-3
    1b88:	5001f300 	andpl	pc, r1, r0, lsl #6
    1b8c:	00030c9f 	muleq	r3, pc, ip	; <UNPREDICTABLE>
    1b90:	00031400 	andeq	r1, r3, r0, lsl #8
    1b94:	59000100 	stmdbpl	r0, {r8}
    1b98:	00000314 	andeq	r0, r0, r4, lsl r3
    1b9c:	0000031c 	andeq	r0, r0, ip, lsl r3
    1ba0:	01f30004 	mvnseq	r0, r4
    1ba4:	00009f50 	andeq	r9, r0, r0, asr pc
    1ba8:	00000000 	andeq	r0, r0, r0
    1bac:	01540000 	cmpeq	r4, r0
    1bb0:	016b0000 	cmneq	fp, r0
    1bb4:	00010000 	andeq	r0, r1, r0
    1bb8:	00016b51 	andeq	r6, r1, r1, asr fp
    1bbc:	00031c00 	andeq	r1, r3, r0, lsl #24
    1bc0:	56000100 	strpl	r0, [r0], -r0, lsl #2
	...
    1bcc:	000001a8 	andeq	r0, r0, r8, lsr #3
    1bd0:	00000298 	muleq	r0, r8, r2
    1bd4:	00580001 	subseq	r0, r8, r1
    1bd8:	00000000 	andeq	r0, r0, r0
    1bdc:	ac000000 	stcge	0, cr0, [r0], {-0}
    1be0:	d0000001 	andle	r0, r0, r1
    1be4:	01000002 	tsteq	r0, r2
    1be8:	00005400 	andeq	r5, r0, r0, lsl #8
    1bec:	00000000 	andeq	r0, r0, r0
    1bf0:	01ac0000 			; <UNDEFINED> instruction: 0x01ac0000
    1bf4:	02d00000 	sbcseq	r0, r0, #0
    1bf8:	00050000 	andeq	r0, r5, r0
    1bfc:	25310074 	ldrcs	r0, [r1, #-116]!	; 0x74
    1c00:	0000009f 	muleq	r0, pc, r0	; <UNPREDICTABLE>
    1c04:	00000000 	andeq	r0, r0, r0
    1c08:	0001ac00 	andeq	sl, r1, r0, lsl #24
    1c0c:	0001d000 	andeq	sp, r1, r0
    1c10:	30000200 	andcc	r0, r0, r0, lsl #4
    1c14:	0001d09f 	muleq	r1, pc, r0	; <UNPREDICTABLE>
    1c18:	00030c00 	andeq	r0, r3, r0, lsl #24
    1c1c:	59000100 	stmdbpl	r0, {r8}
    1c20:	00000314 	andeq	r0, r0, r4, lsl r3
    1c24:	0000031c 	andeq	r0, r0, ip, lsl r3
    1c28:	00590001 	subseq	r0, r9, r1
    1c2c:	00000000 	andeq	r0, r0, r0
    1c30:	68000000 	stmdavs	r0, {}	; <UNPREDICTABLE>
    1c34:	6b000001 	blvs	1c40 <_start-0x63c0>
    1c38:	01000001 	tsteq	r0, r1
    1c3c:	016b5100 	cmneq	fp, r0, lsl #2
    1c40:	031c0000 	tsteq	ip, #0
    1c44:	00010000 	andeq	r0, r1, r0
    1c48:	00000056 	andeq	r0, r0, r6, asr r0
    1c4c:	00000000 	andeq	r0, r0, r0
    1c50:	00017000 	andeq	r7, r1, r0
    1c54:	0001ac00 	andeq	sl, r1, r0, lsl #24
    1c58:	54000100 	strpl	r0, [r0], #-256	; 0x100
    1c5c:	0000030c 	andeq	r0, r0, ip, lsl #6
    1c60:	00000314 	andeq	r0, r0, r4, lsl r3
    1c64:	00540001 	subseq	r0, r4, r1
    1c68:	00000000 	andeq	r0, r0, r0
    1c6c:	a8000000 	stmdage	r0, {}	; <UNPREDICTABLE>
    1c70:	c4000001 	strgt	r0, [r0], #-1
    1c74:	01000001 	tsteq	r0, r1
    1c78:	00005800 	andeq	r5, r0, r0, lsl #16
    1c7c:	00000000 	andeq	r0, r0, r0
    1c80:	01b00000 	movseq	r0, r0
    1c84:	01cb0000 	biceq	r0, fp, r0
    1c88:	00010000 	andeq	r0, r1, r0
    1c8c:	0001cb52 	andeq	ip, r1, r2, asr fp
    1c90:	0002d000 	andeq	sp, r2, r0
    1c94:	74000800 	strvc	r0, [r0], #-2048	; 0x800
    1c98:	74253100 	strtvc	r3, [r5], #-256	; 0x100
    1c9c:	009f2200 	addseq	r2, pc, r0, lsl #4
    1ca0:	00000000 	andeq	r0, r0, r0
    1ca4:	b0000000 	andlt	r0, r0, r0
    1ca8:	c4000001 	strgt	r0, [r0], #-1
    1cac:	01000001 	tsteq	r0, r1
    1cb0:	00005800 	andeq	r5, r0, r0, lsl #16
    1cb4:	00000000 	andeq	r0, r0, r0
    1cb8:	01b40000 			; <UNDEFINED> instruction: 0x01b40000
    1cbc:	01b80000 			; <UNDEFINED> instruction: 0x01b80000
    1cc0:	00010000 	andeq	r0, r1, r0
    1cc4:	00000053 	andeq	r0, r0, r3, asr r0
    1cc8:	00000000 	andeq	r0, r0, r0
    1ccc:	0001d000 	andeq	sp, r1, r0
    1cd0:	0002d000 	andeq	sp, r2, r0
    1cd4:	54000100 	strpl	r0, [r0], #-256	; 0x100
	...
    1ce0:	000001d0 	ldrdeq	r0, [r0], -r0	; <UNPREDICTABLE>
    1ce4:	000001e4 	andeq	r0, r0, r4, ror #3
    1ce8:	00580001 	subseq	r0, r8, r1
    1cec:	00000000 	andeq	r0, r0, r0
    1cf0:	d4000000 	strle	r0, [r0], #-0
    1cf4:	d8000001 	stmdale	r0, {r0}
    1cf8:	01000001 	tsteq	r0, r1
    1cfc:	00005300 	andeq	r5, r0, r0, lsl #6
    1d00:	00000000 	andeq	r0, r0, r0
    1d04:	01f40000 	mvnseq	r0, r0
    1d08:	02d00000 	sbcseq	r0, r0, #0
    1d0c:	00010000 	andeq	r0, r1, r0
    1d10:	00000054 	andeq	r0, r0, r4, asr r0
    1d14:	00000000 	andeq	r0, r0, r0
    1d18:	0001f400 	andeq	pc, r1, r0, lsl #8
    1d1c:	00020800 	andeq	r0, r2, r0, lsl #16
    1d20:	58000100 	stmdapl	r0, {r8}
	...
    1d2c:	000001f8 	strdeq	r0, [r0], -r8
    1d30:	000001fc 	strdeq	r0, [r0], -ip
    1d34:	00530001 	subseq	r0, r3, r1
    1d38:	00000000 	andeq	r0, r0, r0
    1d3c:	18000000 	stmdane	r0, {}	; <UNPREDICTABLE>
    1d40:	d0000002 	andle	r0, r0, r2
    1d44:	01000002 	tsteq	r0, r2
    1d48:	00005400 	andeq	r5, r0, r0, lsl #8
    1d4c:	00000000 	andeq	r0, r0, r0
    1d50:	02180000 	andseq	r0, r8, #0
    1d54:	022c0000 	eoreq	r0, ip, #0
    1d58:	00010000 	andeq	r0, r1, r0
    1d5c:	00000058 	andeq	r0, r0, r8, asr r0
    1d60:	00000000 	andeq	r0, r0, r0
    1d64:	00021c00 	andeq	r1, r2, r0, lsl #24
    1d68:	00022000 	andeq	r2, r2, r0
    1d6c:	53000100 	movwpl	r0, #256	; 0x100
	...
    1d78:	0000023c 	andeq	r0, r0, ip, lsr r2
    1d7c:	000002d0 	ldrdeq	r0, [r0], -r0	; <UNPREDICTABLE>
    1d80:	00540001 	subseq	r0, r4, r1
    1d84:	00000000 	andeq	r0, r0, r0
    1d88:	3c000000 	stccc	0, cr0, [r0], {-0}
    1d8c:	50000002 	andpl	r0, r0, r2
    1d90:	01000002 	tsteq	r0, r2
    1d94:	00005800 	andeq	r5, r0, r0, lsl #16
    1d98:	00000000 	andeq	r0, r0, r0
    1d9c:	02400000 	subeq	r0, r0, #0
    1da0:	02440000 	subeq	r0, r4, #0
    1da4:	00010000 	andeq	r0, r1, r0
    1da8:	00000053 	andeq	r0, r0, r3, asr r0
    1dac:	00000000 	andeq	r0, r0, r0
    1db0:	00026000 	andeq	r6, r2, r0
    1db4:	0002d000 	andeq	sp, r2, r0
    1db8:	54000100 	strpl	r0, [r0], #-256	; 0x100
	...
    1dc4:	00000260 	andeq	r0, r0, r0, ror #4
    1dc8:	00000274 	andeq	r0, r0, r4, ror r2
    1dcc:	00580001 	subseq	r0, r8, r1
    1dd0:	00000000 	andeq	r0, r0, r0
    1dd4:	64000000 	strvs	r0, [r0], #-0
    1dd8:	68000002 	stmdavs	r0, {r1}
    1ddc:	01000002 	tsteq	r0, r2
    1de0:	00005300 	andeq	r5, r0, r0, lsl #6
    1de4:	00000000 	andeq	r0, r0, r0
    1de8:	02840000 	addeq	r0, r4, #0
    1dec:	02d00000 	sbcseq	r0, r0, #0
    1df0:	00010000 	andeq	r0, r1, r0
    1df4:	00000054 	andeq	r0, r0, r4, asr r0
    1df8:	00000000 	andeq	r0, r0, r0
    1dfc:	00028400 	andeq	r8, r2, r0, lsl #8
    1e00:	00029800 	andeq	r9, r2, r0, lsl #16
    1e04:	58000100 	stmdapl	r0, {r8}
	...
    1e10:	00000288 	andeq	r0, r0, r8, lsl #5
    1e14:	0000028c 	andeq	r0, r0, ip, lsl #5
    1e18:	00530001 	subseq	r0, r3, r1
    1e1c:	00000000 	andeq	r0, r0, r0
    1e20:	a8000000 	stmdage	r0, {}	; <UNPREDICTABLE>
    1e24:	d0000002 	andle	r0, r0, r2
    1e28:	01000002 	tsteq	r0, r2
    1e2c:	00005400 	andeq	r5, r0, r0, lsl #8
    1e30:	00000000 	andeq	r0, r0, r0
    1e34:	02ac0000 	adceq	r0, ip, #0
    1e38:	02b00000 	adcseq	r0, r0, #0
    1e3c:	00010000 	andeq	r0, r1, r0
    1e40:	00000053 	andeq	r0, r0, r3, asr r0
    1e44:	00000000 	andeq	r0, r0, r0
    1e48:	0002c800 	andeq	ip, r2, r0, lsl #16
    1e4c:	00030c00 	andeq	r0, r3, r0, lsl #24
    1e50:	30000200 	andcc	r0, r0, r0, lsl #4
    1e54:	0003149f 	muleq	r3, pc, r4	; <UNPREDICTABLE>
    1e58:	00031c00 	andeq	r1, r3, r0, lsl #24
    1e5c:	30000200 	andcc	r0, r0, r0, lsl #4
    1e60:	0000009f 	muleq	r0, pc, r0	; <UNPREDICTABLE>
    1e64:	00000000 	andeq	r0, r0, r0
    1e68:	0002c800 	andeq	ip, r2, r0, lsl #16
    1e6c:	00030c00 	andeq	r0, r3, r0, lsl #24
    1e70:	55000100 	strpl	r0, [r0, #-256]	; 0x100
    1e74:	00000314 	andeq	r0, r0, r4, lsl r3
    1e78:	0000031c 	andeq	r0, r0, ip, lsl r3
    1e7c:	00550001 	subseq	r0, r5, r1
    1e80:	00000000 	andeq	r0, r0, r0
    1e84:	d0000000 	andle	r0, r0, r0
    1e88:	0c000002 	stceq	0, cr0, [r0], {2}
    1e8c:	01000003 	tsteq	r0, r3
    1e90:	03145400 	tsteq	r4, #0, 8
    1e94:	031c0000 	tsteq	ip, #0
    1e98:	00010000 	andeq	r0, r1, r0
    1e9c:	00000054 	andeq	r0, r0, r4, asr r0
    1ea0:	00000000 	andeq	r0, r0, r0
    1ea4:	00031c00 	andeq	r1, r3, r0, lsl #24
    1ea8:	00033b00 	andeq	r3, r3, r0, lsl #22
    1eac:	50000100 	andpl	r0, r0, r0, lsl #2
    1eb0:	0000033b 	andeq	r0, r0, fp, lsr r3
    1eb4:	00000354 	andeq	r0, r0, r4, asr r3
    1eb8:	54580001 	ldrbpl	r0, [r8], #-1
    1ebc:	64000003 	strvs	r0, [r0], #-3
    1ec0:	01000003 	tsteq	r0, r3
    1ec4:	03645000 	cmneq	r4, #0
    1ec8:	03ac0000 			; <UNDEFINED> instruction: 0x03ac0000
    1ecc:	00010000 	andeq	r0, r1, r0
    1ed0:	00000058 	andeq	r0, r0, r8, asr r0
    1ed4:	00000000 	andeq	r0, r0, r0
    1ed8:	00031c00 	andeq	r1, r3, r0, lsl #24
    1edc:	00033b00 	andeq	r3, r3, r0, lsl #22
    1ee0:	51000100 	mrspl	r0, (UNDEF: 16)
    1ee4:	0000033b 	andeq	r0, r0, fp, lsr r3
    1ee8:	00000354 	andeq	r0, r0, r4, asr r3
    1eec:	54560001 	ldrbpl	r0, [r6], #-1
    1ef0:	64000003 	strvs	r0, [r0], #-3
    1ef4:	01000003 	tsteq	r0, r3
    1ef8:	03645100 	cmneq	r4, #0, 2
    1efc:	03ac0000 			; <UNDEFINED> instruction: 0x03ac0000
    1f00:	00010000 	andeq	r0, r1, r0
    1f04:	00000056 	andeq	r0, r0, r6, asr r0
    1f08:	00000000 	andeq	r0, r0, r0
    1f0c:	00031c00 	andeq	r1, r3, r0, lsl #24
    1f10:	00033b00 	andeq	r3, r3, r0, lsl #22
    1f14:	52000100 	andpl	r0, r0, #0, 2
    1f18:	0000033b 	andeq	r0, r0, fp, lsr r3
    1f1c:	00000354 	andeq	r0, r0, r4, asr r3
    1f20:	01f30004 	mvnseq	r0, r4
    1f24:	03549f52 	cmpeq	r4, #328	; 0x148
    1f28:	03640000 	cmneq	r4, #0
    1f2c:	00010000 	andeq	r0, r1, r0
    1f30:	00036452 	andeq	r6, r3, r2, asr r4
    1f34:	0003ac00 	andeq	sl, r3, r0, lsl #24
    1f38:	77000300 	strvc	r0, [r0, -r0, lsl #6]
    1f3c:	00009f01 	andeq	r9, r0, r1, lsl #30
    1f40:	00000000 	andeq	r0, r0, r0
    1f44:	031c0000 	tsteq	ip, #0
    1f48:	033b0000 	teqeq	fp, #0
    1f4c:	00010000 	andeq	r0, r1, r0
    1f50:	00033b53 	andeq	r3, r3, r3, asr fp
    1f54:	00035400 	andeq	r5, r3, r0, lsl #8
    1f58:	f3000400 	vshl.u8	d0, d0, d0
    1f5c:	549f5301 	ldrpl	r5, [pc], #769	; 1f64 <_start-0x609c>
    1f60:	64000003 	strvs	r0, [r0], #-3
    1f64:	01000003 	tsteq	r0, r3
    1f68:	03645300 	cmneq	r4, #0, 6
    1f6c:	03ac0000 			; <UNDEFINED> instruction: 0x03ac0000
    1f70:	00040000 	andeq	r0, r4, r0
    1f74:	9f5301f3 	svcls	0x005301f3
	...
    1f80:	0000035c 	andeq	r0, r0, ip, asr r3
    1f84:	00000364 	andeq	r0, r0, r4, ror #6
    1f88:	9f300002 	svcls	0x00300002
    1f8c:	00000364 	andeq	r0, r0, r4, ror #6
    1f90:	000003ac 	andeq	r0, r0, ip, lsr #7
    1f94:	00540001 	subseq	r0, r4, r1
    1f98:	00000000 	andeq	r0, r0, r0
    1f9c:	74000000 	strvc	r0, [r0], #-0
    1fa0:	84000003 	strhi	r0, [r0], #-3
    1fa4:	01000003 	tsteq	r0, r3
    1fa8:	00005000 	andeq	r5, r0, r0
    1fac:	00000000 	andeq	r0, r0, r0
    1fb0:	03ac0000 			; <UNDEFINED> instruction: 0x03ac0000
    1fb4:	03c70000 	biceq	r0, r7, #0
    1fb8:	00010000 	andeq	r0, r1, r0
    1fbc:	0003c750 	andeq	ip, r3, r0, asr r7
    1fc0:	0003e000 	andeq	lr, r3, r0
    1fc4:	57000100 	strpl	r0, [r0, -r0, lsl #2]
    1fc8:	000003e0 	andeq	r0, r0, r0, ror #7
    1fcc:	000003f0 	strdeq	r0, [r0], -r0	; <UNPREDICTABLE>
    1fd0:	f0500001 			; <UNDEFINED> instruction: 0xf0500001
    1fd4:	28000003 	stmdacs	r0, {r0, r1}
    1fd8:	01000004 	tsteq	r0, r4
    1fdc:	00005700 	andeq	r5, r0, r0, lsl #14
    1fe0:	00000000 	andeq	r0, r0, r0
    1fe4:	03ac0000 			; <UNDEFINED> instruction: 0x03ac0000
    1fe8:	03c70000 	biceq	r0, r7, #0
    1fec:	00010000 	andeq	r0, r1, r0
    1ff0:	0003c751 	andeq	ip, r3, r1, asr r7
    1ff4:	0003e000 	andeq	lr, r3, r0
    1ff8:	55000100 	strpl	r0, [r0, #-256]	; 0x100
    1ffc:	000003e0 	andeq	r0, r0, r0, ror #7
    2000:	000003f0 	strdeq	r0, [r0], -r0	; <UNPREDICTABLE>
    2004:	f0510001 			; <UNDEFINED> instruction: 0xf0510001
    2008:	28000003 	stmdacs	r0, {r0, r1}
    200c:	01000004 	tsteq	r0, r4
    2010:	00005500 	andeq	r5, r0, r0, lsl #10
    2014:	00000000 	andeq	r0, r0, r0
    2018:	03ac0000 			; <UNDEFINED> instruction: 0x03ac0000
    201c:	03c70000 	biceq	r0, r7, #0
    2020:	00010000 	andeq	r0, r1, r0
    2024:	0003c752 	andeq	ip, r3, r2, asr r7
    2028:	0003e000 	andeq	lr, r3, r0
    202c:	f3000400 	vshl.u8	d0, d0, d0
    2030:	e09f5201 	adds	r5, pc, r1, lsl #4
    2034:	f0000003 			; <UNDEFINED> instruction: 0xf0000003
    2038:	01000003 	tsteq	r0, r3
    203c:	03f05200 	mvnseq	r5, #0, 4
    2040:	04280000 	strteq	r0, [r8], #-0
    2044:	00030000 	andeq	r0, r3, r0
    2048:	009f0176 	addseq	r0, pc, r6, ror r1	; <UNPREDICTABLE>
    204c:	00000000 	andeq	r0, r0, r0
    2050:	ac000000 	stcge	0, cr0, [r0], {-0}
    2054:	c7000003 	strgt	r0, [r0, -r3]
    2058:	01000003 	tsteq	r0, r3
    205c:	03c75300 	biceq	r5, r7, #0, 6
    2060:	03e00000 	mvneq	r0, #0
    2064:	00010000 	andeq	r0, r1, r0
    2068:	0003e058 	andeq	lr, r3, r8, asr r0
    206c:	0003f000 	andeq	pc, r3, r0
    2070:	53000100 	movwpl	r0, #256	; 0x100
    2074:	000003f0 	strdeq	r0, [r0], -r0	; <UNPREDICTABLE>
    2078:	00000428 	andeq	r0, r0, r8, lsr #8
    207c:	00580001 	subseq	r0, r8, r1
    2080:	00000000 	andeq	r0, r0, r0
    2084:	e8000000 	stmda	r0, {}	; <UNPREDICTABLE>
    2088:	f0000003 			; <UNDEFINED> instruction: 0xf0000003
    208c:	02000003 	andeq	r0, r0, #3
    2090:	f09f3000 			; <UNDEFINED> instruction: 0xf09f3000
    2094:	28000003 	stmdacs	r0, {r0, r1}
    2098:	01000004 	tsteq	r0, r4
    209c:	00005400 	andeq	r5, r0, r0, lsl #8
    20a0:	00000000 	andeq	r0, r0, r0
    20a4:	04280000 	strteq	r0, [r8], #-0
    20a8:	04470000 	strbeq	r0, [r7], #-0
    20ac:	00010000 	andeq	r0, r1, r0
    20b0:	00044751 	andeq	r4, r4, r1, asr r7
    20b4:	0004e800 	andeq	lr, r4, r0, lsl #16
    20b8:	f3000400 	vshl.u8	d0, d0, d0
    20bc:	009f5101 	addseq	r5, pc, r1, lsl #2
    20c0:	00000000 	andeq	r0, r0, r0
    20c4:	28000000 	stmdacs	r0, {}	; <UNPREDICTABLE>
    20c8:	47000004 	strmi	r0, [r0, -r4]
    20cc:	01000004 	tsteq	r0, r4
    20d0:	04475200 	strbeq	r5, [r7], #-512	; 0x200
    20d4:	04e80000 	strbteq	r0, [r8], #0
    20d8:	00040000 	andeq	r0, r4, r0
    20dc:	9f5201f3 	svcls	0x005201f3
	...
    20e8:	00000428 	andeq	r0, r0, r8, lsr #8
    20ec:	00000447 	andeq	r0, r0, r7, asr #8
    20f0:	47530001 	ldrbmi	r0, [r3, -r1]
    20f4:	e8000004 	stmda	r0, {r2}
    20f8:	01000004 	tsteq	r0, r4
    20fc:	00005500 	andeq	r5, r0, r0, lsl #10
    2100:	00000000 	andeq	r0, r0, r0
    2104:	04680000 	strbteq	r0, [r8], #-0
    2108:	04a70000 	strteq	r0, [r7], #0
    210c:	00010000 	andeq	r0, r1, r0
    2110:	0004a752 	andeq	sl, r4, r2, asr r7
    2114:	0004c000 	andeq	ip, r4, r0
    2118:	75000600 	strvc	r0, [r0, #-1536]	; 0x600
    211c:	1e007700 	cdpne	7, 0, cr7, cr0, cr0, {0}
    2120:	0004c09f 	muleq	r4, pc, r0	; <UNPREDICTABLE>
    2124:	0004e800 	andeq	lr, r4, r0, lsl #16
    2128:	52000100 	andpl	r0, r0, #0, 2
	...
    2134:	000004e8 	andeq	r0, r0, r8, ror #9
    2138:	000004f3 	strdeq	r0, [r0], -r3
    213c:	f3500001 	vhadd.u16	d16, d0, d1
    2140:	24000004 	strcs	r0, [r0], #-4
    2144:	04000005 	streq	r0, [r0], #-5
    2148:	5001f300 	andpl	pc, r1, r0, lsl #6
    214c:	0000009f 	muleq	r0, pc, r0	; <UNPREDICTABLE>
    2150:	00000000 	andeq	r0, r0, r0
    2154:	0004f400 	andeq	pc, r4, r0, lsl #8
    2158:	0004ff00 	andeq	pc, r4, r0, lsl #30
    215c:	50000100 	andpl	r0, r0, r0, lsl #2
	...
    2168:	00000524 	andeq	r0, r0, r4, lsr #10
    216c:	00000534 	andeq	r0, r0, r4, lsr r5
    2170:	34500001 	ldrbcc	r0, [r0], #-1
    2174:	50000005 	andpl	r0, r0, r5
    2178:	01000005 	tsteq	r0, r5
    217c:	00005500 	andeq	r5, r0, r0, lsl #10
    2180:	00000000 	andeq	r0, r0, r0
    2184:	05240000 	streq	r0, [r4, #-0]!
    2188:	05340000 	ldreq	r0, [r4, #-0]!
    218c:	00010000 	andeq	r0, r1, r0
    2190:	00053451 	andeq	r3, r5, r1, asr r4
    2194:	00055000 	andeq	r5, r5, r0
    2198:	54000100 	strpl	r0, [r0], #-256	; 0x100
	...
    21a4:	00000550 	andeq	r0, r0, r0, asr r5
    21a8:	0000056c 	andeq	r0, r0, ip, ror #10
    21ac:	6c500001 	mrrcvs	0, 0, r0, r0, cr1	; <UNPREDICTABLE>
    21b0:	bc000005 	stclt	0, cr0, [r0], {5}
    21b4:	01000005 	tsteq	r0, r5
    21b8:	05bc5500 	ldreq	r5, [ip, #1280]!	; 0x500
    21bc:	05d40000 	ldrbeq	r0, [r4]
    21c0:	00040000 	andeq	r0, r4, r0
    21c4:	9f5001f3 	svcls	0x005001f3
	...
    21d0:	0000057c 	andeq	r0, r0, ip, ror r5
    21d4:	0000058b 	andeq	r0, r0, fp, lsl #11
    21d8:	8b500001 	blhi	14021e4 <__bss_end__+0x13f5eb4>
    21dc:	a4000005 	strge	r0, [r0], #-5
    21e0:	01000005 	tsteq	r0, r5
    21e4:	05a45400 	streq	r5, [r4, #1024]!	; 0x400
    21e8:	05a80000 	streq	r0, [r8, #0]!
    21ec:	00010000 	andeq	r0, r1, r0
    21f0:	0005a850 	andeq	sl, r5, r0, asr r8
    21f4:	0005bc00 	andeq	fp, r5, r0, lsl #24
    21f8:	54000100 	strpl	r0, [r0], #-256	; 0x100
    21fc:	000005bc 			; <UNDEFINED> instruction: 0x000005bc
    2200:	000005d4 	ldrdeq	r0, [r0], -r4
    2204:	00500001 	subseq	r0, r0, r1
    2208:	00000000 	andeq	r0, r0, r0
    220c:	d4000000 	strle	r0, [r0], #-0
    2210:	e7000005 	str	r0, [r0, -r5]
    2214:	01000005 	tsteq	r0, r5
    2218:	05e75000 	strbeq	r5, [r7, #0]!
    221c:	06200000 	strteq	r0, [r0], -r0
    2220:	00040000 	andeq	r0, r4, r0
    2224:	9f5001f3 	svcls	0x005001f3
	...
    2230:	000005d4 	ldrdeq	r0, [r0], -r4
    2234:	000005e7 	andeq	r0, r0, r7, ror #11
    2238:	e7510001 	ldrb	r0, [r1, -r1]
    223c:	20000005 	andcs	r0, r0, r5
    2240:	04000006 	streq	r0, [r0], #-6
    2244:	5101f300 	mrspl	pc, SP_irq	; <UNPREDICTABLE>
    2248:	0000009f 	muleq	r0, pc, r0	; <UNPREDICTABLE>
    224c:	00000000 	andeq	r0, r0, r0
    2250:	0005d400 	andeq	sp, r5, r0, lsl #8
    2254:	0005e700 	andeq	lr, r5, r0, lsl #14
    2258:	52000100 	andpl	r0, r0, #0, 2
    225c:	000005e7 	andeq	r0, r0, r7, ror #11
    2260:	00000620 	andeq	r0, r0, r0, lsr #12
    2264:	01f30004 	mvnseq	r0, r4
    2268:	00009f52 	andeq	r9, r0, r2, asr pc
    226c:	00000000 	andeq	r0, r0, r0
    2270:	05d40000 	ldrbeq	r0, [r4]
    2274:	05e70000 	strbeq	r0, [r7, #0]!
    2278:	00010000 	andeq	r0, r1, r0
    227c:	0005e753 	andeq	lr, r5, r3, asr r7
    2280:	00062000 	andeq	r2, r6, r0
    2284:	f3000400 	vshl.u8	d0, d0, d0
    2288:	009f5301 	addseq	r5, pc, r1, lsl #6
    228c:	00000000 	andeq	r0, r0, r0
    2290:	e8000000 	stmda	r0, {}	; <UNPREDICTABLE>
    2294:	f3000005 	vhadd.u8	d0, d0, d5
    2298:	01000005 	tsteq	r0, r5
    229c:	060c5000 	streq	r5, [ip], -r0
    22a0:	06200000 	strteq	r0, [r0], -r0
    22a4:	00010000 	andeq	r0, r1, r0
    22a8:	00000050 	andeq	r0, r0, r0, asr r0
    22ac:	00000000 	andeq	r0, r0, r0
    22b0:	0000fc00 	andeq	pc, r0, r0, lsl #24
    22b4:	00010400 	andeq	r0, r1, r0, lsl #8
    22b8:	50000100 	andpl	r0, r0, r0, lsl #2
    22bc:	00000104 	andeq	r0, r0, r4, lsl #2
    22c0:	00000128 	andeq	r0, r0, r8, lsr #2
    22c4:	00540001 	subseq	r0, r4, r1
	...
    22d0:	90000000 	andls	r0, r0, r0
    22d4:	01000000 	mrseq	r0, (UNDEF: 0)
    22d8:	00905000 	addseq	r5, r0, r0
    22dc:	00d40000 	sbcseq	r0, r4, r0
    22e0:	00010000 	andeq	r0, r1, r0
    22e4:	00000054 	andeq	r0, r0, r4, asr r0
    22e8:	00000000 	andeq	r0, r0, r0
    22ec:	00004800 	andeq	r4, r0, r0, lsl #16
    22f0:	00004c00 	andeq	r4, r0, r0, lsl #24
    22f4:	55000100 	strpl	r0, [r0, #-256]	; 0x100
    22f8:	00000054 	andeq	r0, r0, r4, asr r0
    22fc:	00000058 	andeq	r0, r0, r8, asr r0
    2300:	60550001 	subsvs	r0, r5, r1
    2304:	64000000 	strvs	r0, [r0], #-0
    2308:	01000000 	mrseq	r0, (UNDEF: 0)
    230c:	006c5500 	rsbeq	r5, ip, r0, lsl #10
    2310:	00700000 	rsbseq	r0, r0, r0
    2314:	00010000 	andeq	r0, r1, r0
    2318:	00007855 	andeq	r7, r0, r5, asr r8
    231c:	00007c00 	andeq	r7, r0, r0, lsl #24
    2320:	55000100 	strpl	r0, [r0, #-256]	; 0x100
    2324:	00000084 	andeq	r0, r0, r4, lsl #1
    2328:	00000088 	andeq	r0, r0, r8, lsl #1
    232c:	8c550001 	mrrchi	0, 0, r0, r5, cr1
    2330:	d4000000 	strle	r0, [r0], #-0
    2334:	01000000 	mrseq	r0, (UNDEF: 0)
    2338:	00005500 	andeq	r5, r0, r0, lsl #10
    233c:	00000000 	andeq	r0, r0, r0
    2340:	001c0000 	andseq	r0, ip, r0
    2344:	00440000 	subeq	r0, r4, r0
    2348:	00010000 	andeq	r0, r1, r0
    234c:	00004453 	andeq	r4, r0, r3, asr r4
    2350:	00004c00 	andeq	r4, r0, r0, lsl #24
    2354:	70001c00 	andvc	r1, r0, r0, lsl #24
    2358:	f72cf700 			; <UNDEFINED> instruction: 0xf72cf700
    235c:	0825f425 	stmdaeq	r5!, {r0, r2, r5, sl, ip, sp, lr, pc}
    2360:	cccccccd 	stclgt	12, cr12, [ip], {205}	; 0xcd
    2364:	00000000 	andeq	r0, r0, r0
    2368:	f720081e 			; <UNDEFINED> instruction: 0xf720081e
    236c:	2cf72525 	cfldr64cs	mvdx2, [r7], #148	; 0x94
    2370:	4c9f2533 	cfldr32mi	mvfx2, [pc], {51}	; 0x33
    2374:	50000000 	andpl	r0, r0, r0
    2378:	01000000 	mrseq	r0, (UNDEF: 0)
    237c:	00505300 	subseq	r5, r0, r0, lsl #6
    2380:	00580000 	subseq	r0, r8, r0
    2384:	001c0000 	andseq	r0, ip, r0
    2388:	2cf70070 	ldclcs	0, cr0, [r7], #448	; 0x1c0
    238c:	25f425f7 	ldrbcs	r2, [r4, #1527]!	; 0x5f7
    2390:	cccccd08 	stclgt	13, cr12, [ip], {8}
    2394:	000000cc 	andeq	r0, r0, ip, asr #1
    2398:	20081e00 	andcs	r1, r8, r0, lsl #28
    239c:	f72525f7 			; <UNDEFINED> instruction: 0xf72525f7
    23a0:	9f25332c 	svcls	0x0025332c
    23a4:	00000058 	andeq	r0, r0, r8, asr r0
    23a8:	0000005c 	andeq	r0, r0, ip, asr r0
    23ac:	5c530001 	mrrcpl	0, 0, r0, r3, cr1
    23b0:	64000000 	strvs	r0, [r0], #-0
    23b4:	1c000000 	stcne	0, cr0, [r0], {-0}
    23b8:	f7007000 			; <UNDEFINED> instruction: 0xf7007000
    23bc:	f425f72c 	vld1.8	{d15}, [r5 :128], ip
    23c0:	cccd0825 	stclgt	8, cr0, [sp], {37}	; 0x25
    23c4:	0000cccc 	andeq	ip, r0, ip, asr #25
    23c8:	081e0000 	ldmdaeq	lr, {}	; <UNPREDICTABLE>
    23cc:	2525f720 	strcs	pc, [r5, #-1824]!	; 0x720
    23d0:	25332cf7 	ldrcs	r2, [r3, #-3319]!	; 0xcf7
    23d4:	0000649f 	muleq	r0, pc, r4	; <UNPREDICTABLE>
    23d8:	00006800 	andeq	r6, r0, r0, lsl #16
    23dc:	53000100 	movwpl	r0, #256	; 0x100
    23e0:	00000068 	andeq	r0, r0, r8, rrx
    23e4:	00000070 	andeq	r0, r0, r0, ror r0
    23e8:	0070001c 	rsbseq	r0, r0, ip, lsl r0
    23ec:	25f72cf7 	ldrbcs	r2, [r7, #3319]!	; 0xcf7
    23f0:	cd0825f4 	cfstr32gt	mvfx2, [r8, #-976]	; 0xfffffc30
    23f4:	00cccccc 	sbceq	ip, ip, ip, asr #25
    23f8:	1e000000 	cdpne	0, 0, cr0, cr0, cr0, {0}
    23fc:	25f72008 	ldrbcs	r2, [r7, #8]!
    2400:	332cf725 	msrcc	CPSR_fs, #9699328	; 0x940000
    2404:	00709f25 	rsbseq	r9, r0, r5, lsr #30
    2408:	00740000 	rsbseq	r0, r4, r0
    240c:	00010000 	andeq	r0, r1, r0
    2410:	00007453 	andeq	r7, r0, r3, asr r4
    2414:	00007c00 	andeq	r7, r0, r0, lsl #24
    2418:	70001c00 	andvc	r1, r0, r0, lsl #24
    241c:	f72cf700 			; <UNDEFINED> instruction: 0xf72cf700
    2420:	0825f425 	stmdaeq	r5!, {r0, r2, r5, sl, ip, sp, lr, pc}
    2424:	cccccccd 	stclgt	12, cr12, [ip], {205}	; 0xcd
    2428:	00000000 	andeq	r0, r0, r0
    242c:	f720081e 			; <UNDEFINED> instruction: 0xf720081e
    2430:	2cf72525 	cfldr64cs	mvdx2, [r7], #148	; 0x94
    2434:	7c9f2533 	cfldr32vc	mvfx2, [pc], {51}	; 0x33
    2438:	80000000 	andhi	r0, r0, r0
    243c:	01000000 	mrseq	r0, (UNDEF: 0)
    2440:	00805300 	addeq	r5, r0, r0, lsl #6
    2444:	00880000 	addeq	r0, r8, r0
    2448:	001c0000 	andseq	r0, ip, r0
    244c:	2cf70070 	ldclcs	0, cr0, [r7], #448	; 0x1c0
    2450:	25f425f7 	ldrbcs	r2, [r4, #1527]!	; 0x5f7
    2454:	cccccd08 	stclgt	13, cr12, [ip], {8}
    2458:	000000cc 	andeq	r0, r0, ip, asr #1
    245c:	20081e00 	andcs	r1, r8, r0, lsl #28
    2460:	f72525f7 			; <UNDEFINED> instruction: 0xf72525f7
    2464:	9f25332c 	svcls	0x0025332c
    2468:	00000088 	andeq	r0, r0, r8, lsl #1
    246c:	0000008c 	andeq	r0, r0, ip, lsl #1
    2470:	8c530001 	mrrchi	0, 0, r0, r3, cr1
    2474:	90000000 	andls	r0, r0, r0
    2478:	1c000000 	stcne	0, cr0, [r0], {-0}
    247c:	f7007000 			; <UNDEFINED> instruction: 0xf7007000
    2480:	f425f72c 	vld1.8	{d15}, [r5 :128], ip
    2484:	cccd0825 	stclgt	8, cr0, [sp], {37}	; 0x25
    2488:	0000cccc 	andeq	ip, r0, ip, asr #25
    248c:	081e0000 	ldmdaeq	lr, {}	; <UNPREDICTABLE>
    2490:	2525f720 	strcs	pc, [r5, #-1824]!	; 0x720
    2494:	25332cf7 	ldrcs	r2, [r3, #-3319]!	; 0xcf7
    2498:	0000909f 	muleq	r0, pc, r0	; <UNPREDICTABLE>
    249c:	00009800 	andeq	r9, r0, r0, lsl #16
    24a0:	74001c00 	strvc	r1, [r0], #-3072	; 0xc00
    24a4:	f72cf700 			; <UNDEFINED> instruction: 0xf72cf700
    24a8:	0825f425 	stmdaeq	r5!, {r0, r2, r5, sl, ip, sp, lr, pc}
    24ac:	cccccccd 	stclgt	12, cr12, [ip], {205}	; 0xcd
    24b0:	00000000 	andeq	r0, r0, r0
    24b4:	f720081e 			; <UNDEFINED> instruction: 0xf720081e
    24b8:	2cf72525 	cfldr64cs	mvdx2, [r7], #148	; 0x94
    24bc:	989f2533 	ldmls	pc, {r0, r1, r4, r5, r8, sl, sp}	; <UNPREDICTABLE>
    24c0:	9c000000 	stcls	0, cr0, [r0], {-0}
    24c4:	17000000 	strne	r0, [r0, -r0]
    24c8:	f7007400 			; <UNDEFINED> instruction: 0xf7007400
    24cc:	7125f72c 	msrvc	SP_abt, ip
    24d0:	f72cf700 			; <UNDEFINED> instruction: 0xf72cf700
    24d4:	20081e25 	andcs	r1, r8, r5, lsr #28
    24d8:	f72525f7 			; <UNDEFINED> instruction: 0xf72525f7
    24dc:	9f25332c 	svcls	0x0025332c
    24e0:	0000009c 	muleq	r0, ip, r0
    24e4:	000000d4 	ldrdeq	r0, [r0], -r4
    24e8:	0074001c 	rsbseq	r0, r4, ip, lsl r0
    24ec:	25f72cf7 	ldrbcs	r2, [r7, #3319]!	; 0xcf7
    24f0:	cd0825f4 	cfstr32gt	mvfx2, [r8, #-976]	; 0xfffffc30
    24f4:	00cccccc 	sbceq	ip, ip, ip, asr #25
    24f8:	1e000000 	cdpne	0, 0, cr0, cr0, cr0, {0}
    24fc:	25f72008 	ldrbcs	r2, [r7, #8]!
    2500:	332cf725 	msrcc	CPSR_fs, #9699328	; 0x940000
    2504:	00009f25 	andeq	r9, r0, r5, lsr #30
    2508:	00000000 	andeq	r0, r0, r0
    250c:	00940000 	addseq	r0, r4, r0
    2510:	00b80000 	adcseq	r0, r8, r0
    2514:	00010000 	andeq	r0, r1, r0
    2518:	0000b850 	andeq	fp, r0, r0, asr r8
    251c:	0000c400 	andeq	ip, r0, r0, lsl #8
    2520:	31000800 	tstcc	r0, r0, lsl #16
    2524:	73240071 	teqvc	r4, #113	; 0x71
    2528:	c49f2100 	ldrgt	r2, [pc], #256	; 2530 <_start-0x5ad0>
    252c:	c7000000 	strgt	r0, [r0, -r0]
    2530:	01000000 	mrseq	r0, (UNDEF: 0)
    2534:	00005100 	andeq	r5, r0, r0, lsl #2
    2538:	00000000 	andeq	r0, r0, r0
    253c:	00d40000 	sbcseq	r0, r4, r0
    2540:	00f80000 	rscseq	r0, r8, r0
    2544:	00010000 	andeq	r0, r1, r0
    2548:	0000f850 	andeq	pc, r0, r0, asr r8	; <UNPREDICTABLE>
    254c:	00010c00 	andeq	r0, r1, r0, lsl #24
    2550:	f3000400 	vshl.u8	d0, d0, d0
    2554:	009f5001 	addseq	r5, pc, r1
    2558:	00000000 	andeq	r0, r0, r0
    255c:	e0000000 	and	r0, r0, r0
    2560:	e8000000 	stmda	r0, {}	; <UNPREDICTABLE>
    2564:	02000000 	andeq	r0, r0, #0
    2568:	e89f3000 	ldm	pc, {ip, sp}	; <UNPREDICTABLE>
    256c:	e8000000 	stmda	r0, {}	; <UNPREDICTABLE>
    2570:	01000000 	mrseq	r0, (UNDEF: 0)
    2574:	00e85200 	rsceq	r5, r8, r0, lsl #4
    2578:	00f00000 	rscseq	r0, r0, r0
    257c:	00020000 	andeq	r0, r2, r0
    2580:	00f09f30 	rscseq	r9, r0, r0, lsr pc
    2584:	01030000 	mrseq	r0, (UNDEF: 3)
    2588:	00010000 	andeq	r0, r1, r0
    258c:	00000052 	andeq	r0, r0, r2, asr r0
    2590:	00000000 	andeq	r0, r0, r0
    2594:	0000e000 	andeq	lr, r0, r0
    2598:	0000f400 	andeq	pc, r0, r0, lsl #8
    259c:	30000200 	andcc	r0, r0, r0, lsl #4
    25a0:	0000f49f 	muleq	r0, pc, r4	; <UNPREDICTABLE>
    25a4:	00010000 	andeq	r0, r1, r0
    25a8:	31000500 	tstcc	r0, r0, lsl #10
    25ac:	9f240073 	svcls	0x00240073
    25b0:	00000100 	andeq	r0, r0, r0, lsl #2
    25b4:	00000103 	andeq	r0, r0, r3, lsl #2
    25b8:	03510001 	cmpeq	r1, #1
    25bc:	0c000001 	stceq	0, cr0, [r0], {1}
    25c0:	08000001 	stmdaeq	r0, {r0}
    25c4:	01f33100 	mvnseq	r3, r0, lsl #2
    25c8:	241a4f50 	ldrcs	r4, [sl], #-3920	; 0xf50
    25cc:	0000009f 	muleq	r0, pc, r0	; <UNPREDICTABLE>
    25d0:	00000000 	andeq	r0, r0, r0
    25d4:	00010c00 	andeq	r0, r1, r0, lsl #24
    25d8:	00013000 	andeq	r3, r1, r0
    25dc:	50000100 	andpl	r0, r0, r0, lsl #2
    25e0:	00000130 	andeq	r0, r0, r0, lsr r1
    25e4:	00000144 	andeq	r0, r0, r4, asr #2
    25e8:	01f30004 	mvnseq	r0, r4
    25ec:	00009f50 	andeq	r9, r0, r0, asr pc
    25f0:	00000000 	andeq	r0, r0, r0
    25f4:	01180000 	tsteq	r8, r0
    25f8:	01200000 	teqeq	r0, r0
    25fc:	00020000 	andeq	r0, r2, r0
    2600:	01209f30 	teqeq	r0, r0, lsr pc
    2604:	01200000 	teqeq	r0, r0
    2608:	00010000 	andeq	r0, r1, r0
    260c:	00012052 	andeq	r2, r1, r2, asr r0
    2610:	00012800 	andeq	r2, r1, r0, lsl #16
    2614:	30000200 	andcc	r0, r0, r0, lsl #4
    2618:	0001289f 	muleq	r1, pc, r8	; <UNPREDICTABLE>
    261c:	00013b00 	andeq	r3, r1, r0, lsl #22
    2620:	52000100 	andpl	r0, r0, #0, 2
	...
    262c:	00000118 	andeq	r0, r0, r8, lsl r1
    2630:	0000012c 	andeq	r0, r0, ip, lsr #2
    2634:	9f300002 	svcls	0x00300002
    2638:	0000012c 	andeq	r0, r0, ip, lsr #2
    263c:	00000138 	andeq	r0, r0, r8, lsr r1
    2640:	73310005 	teqvc	r1, #5
    2644:	389f2400 	ldmcc	pc, {sl, sp}	; <UNPREDICTABLE>
    2648:	3b000001 	blcc	2654 <_start-0x59ac>
    264c:	01000001 	tsteq	r0, r1
    2650:	013b5100 	teqeq	fp, r0, lsl #2
    2654:	01440000 	mrseq	r0, (UNDEF: 68)
    2658:	00080000 	andeq	r0, r8, r0
    265c:	5001f331 	andpl	pc, r1, r1, lsr r3	; <UNPREDICTABLE>
    2660:	9f241a4f 	svcls	0x00241a4f
	...
    266c:	00000144 	andeq	r0, r0, r4, asr #2
    2670:	000001d4 	ldrdeq	r0, [r0], -r4
    2674:	d4500001 	ldrble	r0, [r0], #-1
    2678:	10000001 	andne	r0, r0, r1
    267c:	01000002 	tsteq	r0, r2
    2680:	00005400 	andeq	r5, r0, r0, lsl #8
    2684:	00000000 	andeq	r0, r0, r0
    2688:	018c0000 	orreq	r0, ip, r0
    268c:	01900000 	orrseq	r0, r0, r0
    2690:	00010000 	andeq	r0, r1, r0
    2694:	00019855 	andeq	r9, r1, r5, asr r8
    2698:	00019c00 	andeq	r9, r1, r0, lsl #24
    269c:	55000100 	strpl	r0, [r0, #-256]	; 0x100
    26a0:	000001a4 	andeq	r0, r0, r4, lsr #3
    26a4:	000001a8 	andeq	r0, r0, r8, lsr #3
    26a8:	b0550001 	subslt	r0, r5, r1
    26ac:	b4000001 	strlt	r0, [r0], #-1
    26b0:	01000001 	tsteq	r0, r1
    26b4:	01bc5500 			; <UNDEFINED> instruction: 0x01bc5500
    26b8:	01c00000 	biceq	r0, r0, r0
    26bc:	00010000 	andeq	r0, r1, r0
    26c0:	0001c855 	andeq	ip, r1, r5, asr r8
    26c4:	0001cc00 	andeq	ip, r1, r0, lsl #24
    26c8:	55000100 	strpl	r0, [r0, #-256]	; 0x100
    26cc:	000001d0 	ldrdeq	r0, [r0], -r0	; <UNPREDICTABLE>
    26d0:	00000210 	andeq	r0, r0, r0, lsl r2
    26d4:	00550001 	subseq	r0, r5, r1
    26d8:	00000000 	andeq	r0, r0, r0
    26dc:	60000000 	andvs	r0, r0, r0
    26e0:	88000001 	stmdahi	r0, {r0}
    26e4:	01000001 	tsteq	r0, r1
    26e8:	01885300 	orreq	r5, r8, r0, lsl #6
    26ec:	01900000 	orrseq	r0, r0, r0
    26f0:	001c0000 	andseq	r0, ip, r0
    26f4:	2cf70070 	ldclcs	0, cr0, [r7], #448	; 0x1c0
    26f8:	25f425f7 	ldrbcs	r2, [r4, #1527]!	; 0x5f7
    26fc:	cccccd08 	stclgt	13, cr12, [ip], {8}
    2700:	000000cc 	andeq	r0, r0, ip, asr #1
    2704:	20081e00 	andcs	r1, r8, r0, lsl #28
    2708:	f72525f7 			; <UNDEFINED> instruction: 0xf72525f7
    270c:	9f25332c 	svcls	0x0025332c
    2710:	00000190 	muleq	r0, r0, r1
    2714:	00000194 	muleq	r0, r4, r1
    2718:	94530001 	ldrbls	r0, [r3], #-1
    271c:	9c000001 	stcls	0, cr0, [r0], {1}
    2720:	1c000001 	stcne	0, cr0, [r0], {1}
    2724:	f7007000 			; <UNDEFINED> instruction: 0xf7007000
    2728:	f425f72c 	vld1.8	{d15}, [r5 :128], ip
    272c:	cccd0825 	stclgt	8, cr0, [sp], {37}	; 0x25
    2730:	0000cccc 	andeq	ip, r0, ip, asr #25
    2734:	081e0000 	ldmdaeq	lr, {}	; <UNPREDICTABLE>
    2738:	2525f720 	strcs	pc, [r5, #-1824]!	; 0x720
    273c:	25332cf7 	ldrcs	r2, [r3, #-3319]!	; 0xcf7
    2740:	00019c9f 	muleq	r1, pc, ip	; <UNPREDICTABLE>
    2744:	0001a000 	andeq	sl, r1, r0
    2748:	53000100 	movwpl	r0, #256	; 0x100
    274c:	000001a0 	andeq	r0, r0, r0, lsr #3
    2750:	000001a8 	andeq	r0, r0, r8, lsr #3
    2754:	0070001c 	rsbseq	r0, r0, ip, lsl r0
    2758:	25f72cf7 	ldrbcs	r2, [r7, #3319]!	; 0xcf7
    275c:	cd0825f4 	cfstr32gt	mvfx2, [r8, #-976]	; 0xfffffc30
    2760:	00cccccc 	sbceq	ip, ip, ip, asr #25
    2764:	1e000000 	cdpne	0, 0, cr0, cr0, cr0, {0}
    2768:	25f72008 	ldrbcs	r2, [r7, #8]!
    276c:	332cf725 	msrcc	CPSR_fs, #9699328	; 0x940000
    2770:	01a89f25 			; <UNDEFINED> instruction: 0x01a89f25
    2774:	01ac0000 			; <UNDEFINED> instruction: 0x01ac0000
    2778:	00010000 	andeq	r0, r1, r0
    277c:	0001ac53 	andeq	sl, r1, r3, asr ip
    2780:	0001b400 	andeq	fp, r1, r0, lsl #8
    2784:	70001c00 	andvc	r1, r0, r0, lsl #24
    2788:	f72cf700 			; <UNDEFINED> instruction: 0xf72cf700
    278c:	0825f425 	stmdaeq	r5!, {r0, r2, r5, sl, ip, sp, lr, pc}
    2790:	cccccccd 	stclgt	12, cr12, [ip], {205}	; 0xcd
    2794:	00000000 	andeq	r0, r0, r0
    2798:	f720081e 			; <UNDEFINED> instruction: 0xf720081e
    279c:	2cf72525 	cfldr64cs	mvdx2, [r7], #148	; 0x94
    27a0:	b49f2533 	ldrlt	r2, [pc], #1331	; 27a8 <_start-0x5858>
    27a4:	b8000001 	stmdalt	r0, {r0}
    27a8:	01000001 	tsteq	r0, r1
    27ac:	01b85300 			; <UNDEFINED> instruction: 0x01b85300
    27b0:	01c00000 	biceq	r0, r0, r0
    27b4:	001c0000 	andseq	r0, ip, r0
    27b8:	2cf70070 	ldclcs	0, cr0, [r7], #448	; 0x1c0
    27bc:	25f425f7 	ldrbcs	r2, [r4, #1527]!	; 0x5f7
    27c0:	cccccd08 	stclgt	13, cr12, [ip], {8}
    27c4:	000000cc 	andeq	r0, r0, ip, asr #1
    27c8:	20081e00 	andcs	r1, r8, r0, lsl #28
    27cc:	f72525f7 			; <UNDEFINED> instruction: 0xf72525f7
    27d0:	9f25332c 	svcls	0x0025332c
    27d4:	000001c0 	andeq	r0, r0, r0, asr #3
    27d8:	000001c4 	andeq	r0, r0, r4, asr #3
    27dc:	c4530001 	ldrbgt	r0, [r3], #-1
    27e0:	cc000001 	stcgt	0, cr0, [r0], {1}
    27e4:	1c000001 	stcne	0, cr0, [r0], {1}
    27e8:	f7007000 			; <UNDEFINED> instruction: 0xf7007000
    27ec:	f425f72c 	vld1.8	{d15}, [r5 :128], ip
    27f0:	cccd0825 	stclgt	8, cr0, [sp], {37}	; 0x25
    27f4:	0000cccc 	andeq	ip, r0, ip, asr #25
    27f8:	081e0000 	ldmdaeq	lr, {}	; <UNPREDICTABLE>
    27fc:	2525f720 	strcs	pc, [r5, #-1824]!	; 0x720
    2800:	25332cf7 	ldrcs	r2, [r3, #-3319]!	; 0xcf7
    2804:	0001cc9f 	muleq	r1, pc, ip	; <UNPREDICTABLE>
    2808:	0001d000 	andeq	sp, r1, r0
    280c:	53000100 	movwpl	r0, #256	; 0x100
    2810:	000001d0 	ldrdeq	r0, [r0], -r0	; <UNPREDICTABLE>
    2814:	000001d4 	ldrdeq	r0, [r0], -r4
    2818:	0070001c 	rsbseq	r0, r0, ip, lsl r0
    281c:	25f72cf7 	ldrbcs	r2, [r7, #3319]!	; 0xcf7
    2820:	cd0825f4 	cfstr32gt	mvfx2, [r8, #-976]	; 0xfffffc30
    2824:	00cccccc 	sbceq	ip, ip, ip, asr #25
    2828:	1e000000 	cdpne	0, 0, cr0, cr0, cr0, {0}
    282c:	25f72008 	ldrbcs	r2, [r7, #8]!
    2830:	332cf725 	msrcc	CPSR_fs, #9699328	; 0x940000
    2834:	01d49f25 	bicseq	r9, r4, r5, lsr #30
    2838:	01dc0000 	bicseq	r0, ip, r0
    283c:	001c0000 	andseq	r0, ip, r0
    2840:	2cf70074 	ldclcs	0, cr0, [r7], #464	; 0x1d0
    2844:	25f425f7 	ldrbcs	r2, [r4, #1527]!	; 0x5f7
    2848:	cccccd08 	stclgt	13, cr12, [ip], {8}
    284c:	000000cc 	andeq	r0, r0, ip, asr #1
    2850:	20081e00 	andcs	r1, r8, r0, lsl #28
    2854:	f72525f7 			; <UNDEFINED> instruction: 0xf72525f7
    2858:	9f25332c 	svcls	0x0025332c
    285c:	000001dc 	ldrdeq	r0, [r0], -ip
    2860:	000001e0 	andeq	r0, r0, r0, ror #3
    2864:	00740017 	rsbseq	r0, r4, r7, lsl r0
    2868:	25f72cf7 	ldrbcs	r2, [r7, #3319]!	; 0xcf7
    286c:	2cf70071 	ldclcs	0, cr0, [r7], #452	; 0x1c4
    2870:	081e25f7 	ldmdaeq	lr, {r0, r1, r2, r4, r5, r6, r7, r8, sl, sp}
    2874:	2525f720 	strcs	pc, [r5, #-1824]!	; 0x720
    2878:	25332cf7 	ldrcs	r2, [r3, #-3319]!	; 0xcf7
    287c:	0001e09f 	muleq	r1, pc, r0	; <UNPREDICTABLE>
    2880:	00021000 	andeq	r1, r2, r0
    2884:	74001c00 	strvc	r1, [r0], #-3072	; 0xc00
    2888:	f72cf700 			; <UNDEFINED> instruction: 0xf72cf700
    288c:	0825f425 	stmdaeq	r5!, {r0, r2, r5, sl, ip, sp, lr, pc}
    2890:	cccccccd 	stclgt	12, cr12, [ip], {205}	; 0xcd
    2894:	00000000 	andeq	r0, r0, r0
    2898:	f720081e 			; <UNDEFINED> instruction: 0xf720081e
    289c:	2cf72525 	cfldr64cs	mvdx2, [r7], #148	; 0x94
    28a0:	009f2533 	addseq	r2, pc, r3, lsr r5	; <UNPREDICTABLE>
    28a4:	00000000 	andeq	r0, r0, r0
    28a8:	d8000000 	stmdale	r0, {}	; <UNPREDICTABLE>
    28ac:	fc000001 	stc2	0, cr0, [r0], {1}
    28b0:	01000001 	tsteq	r0, r1
    28b4:	01fc5000 	mvnseq	r5, r0
    28b8:	02030000 	andeq	r0, r3, #0
    28bc:	00010000 	andeq	r0, r1, r0
    28c0:	00000051 	andeq	r0, r0, r1, asr r0
    28c4:	00000000 	andeq	r0, r0, r0
    28c8:	00021000 	andeq	r1, r2, r0
    28cc:	00022c00 	andeq	r2, r2, r0, lsl #24
    28d0:	50000100 	andpl	r0, r0, r0, lsl #2
    28d4:	0000022c 	andeq	r0, r0, ip, lsr #4
    28d8:	00000234 	andeq	r0, r0, r4, lsr r2
    28dc:	34540001 	ldrbcc	r0, [r4], #-1
    28e0:	3c000002 	stccc	0, cr0, [r0], {2}
    28e4:	01000002 	tsteq	r0, r2
    28e8:	023c5000 	eorseq	r5, ip, #0
    28ec:	02440000 	subeq	r0, r4, #0
    28f0:	00010000 	andeq	r0, r1, r0
    28f4:	00024454 	andeq	r4, r2, r4, asr r4
    28f8:	00025000 	andeq	r5, r2, r0
    28fc:	f3000400 	vshl.u8	d0, d0, d0
    2900:	509f5001 	addspl	r5, pc, r1
    2904:	54000002 	strpl	r0, [r0], #-2
    2908:	01000002 	tsteq	r0, r2
    290c:	02545000 	subseq	r5, r4, #0
    2910:	025c0000 	subseq	r0, ip, #0
    2914:	00010000 	andeq	r0, r1, r0
    2918:	00000054 	andeq	r0, r0, r4, asr r0
    291c:	00000000 	andeq	r0, r0, r0
    2920:	00022000 	andeq	r2, r2, r0
    2924:	00023000 	andeq	r3, r2, r0
    2928:	30000200 	andcc	r0, r0, r0, lsl #4
    292c:	0002309f 	muleq	r2, pc, r0	; <UNPREDICTABLE>
    2930:	00023400 	andeq	r3, r2, r0, lsl #8
    2934:	50000100 	andpl	r0, r0, r0, lsl #2
    2938:	00000234 	andeq	r0, r0, r4, lsr r2
    293c:	00000240 	andeq	r0, r0, r0, asr #4
    2940:	9f300002 	svcls	0x00300002
    2944:	00000240 	andeq	r0, r0, r0, asr #4
    2948:	0000024c 	andeq	r0, r0, ip, asr #4
    294c:	00500001 	subseq	r0, r0, r1
    2950:	00000000 	andeq	r0, r0, r0
    2954:	5c000000 	stcpl	0, cr0, [r0], {-0}
    2958:	73000002 	movwvc	r0, #2
    295c:	01000002 	tsteq	r0, r2
    2960:	02735000 	rsbseq	r5, r3, #0
    2964:	02780000 	rsbseq	r0, r8, #0
    2968:	00040000 	andeq	r0, r4, r0
    296c:	9f5001f3 	svcls	0x005001f3
    2970:	00000278 	andeq	r0, r0, r8, ror r2
    2974:	0000027b 	andeq	r0, r0, fp, ror r2
    2978:	7b500001 	blvc	1402984 <__bss_end__+0x13f6654>
    297c:	80000002 	andhi	r0, r0, r2
    2980:	04000002 	streq	r0, [r0], #-2
    2984:	5001f300 	andpl	pc, r1, r0, lsl #6
    2988:	0000009f 	muleq	r0, pc, r0	; <UNPREDICTABLE>
    298c:	00000000 	andeq	r0, r0, r0
    2990:	00025c00 	andeq	r5, r2, r0, lsl #24
    2994:	00027300 	andeq	r7, r2, r0, lsl #6
    2998:	51000100 	mrspl	r0, (UNDEF: 16)
    299c:	00000273 	andeq	r0, r0, r3, ror r2
    29a0:	00000278 	andeq	r0, r0, r8, ror r2
    29a4:	01f30004 	mvnseq	r0, r4
    29a8:	02789f51 	rsbseq	r9, r8, #324	; 0x144
    29ac:	027b0000 	rsbseq	r0, fp, #0
    29b0:	00010000 	andeq	r0, r1, r0
    29b4:	00027b51 	andeq	r7, r2, r1, asr fp
    29b8:	00028000 	andeq	r8, r2, r0
    29bc:	f3000400 	vshl.u8	d0, d0, d0
    29c0:	009f5101 	addseq	r5, pc, r1, lsl #2
    29c4:	00000000 	andeq	r0, r0, r0
    29c8:	80000000 	andhi	r0, r0, r0
    29cc:	18000002 	stmdane	r0, {r1}
    29d0:	01000003 	tsteq	r0, r3
    29d4:	03185000 	tsteq	r8, #0
    29d8:	03580000 	cmpeq	r8, #0
    29dc:	00010000 	andeq	r0, r1, r0
    29e0:	00000054 	andeq	r0, r0, r4, asr r0
    29e4:	00000000 	andeq	r0, r0, r0
    29e8:	00028000 	andeq	r8, r2, r0
    29ec:	00031b00 	andeq	r1, r3, r0, lsl #22
    29f0:	51000100 	mrspl	r0, (UNDEF: 16)
    29f4:	0000031b 	andeq	r0, r0, fp, lsl r3
    29f8:	00000358 	andeq	r0, r0, r8, asr r3
    29fc:	01f30004 	mvnseq	r0, r4
    2a00:	00009f51 	andeq	r9, r0, r1, asr pc
    2a04:	00000000 	andeq	r0, r0, r0
    2a08:	02d00000 	sbcseq	r0, r0, #0
    2a0c:	02d40000 	sbcseq	r0, r4, #0
    2a10:	00010000 	andeq	r0, r1, r0
    2a14:	0002dc56 	andeq	sp, r2, r6, asr ip
    2a18:	0002e000 	andeq	lr, r2, r0
    2a1c:	56000100 	strpl	r0, [r0], -r0, lsl #2
    2a20:	000002e8 	andeq	r0, r0, r8, ror #5
    2a24:	000002ec 	andeq	r0, r0, ip, ror #5
    2a28:	f4560001 			; <UNDEFINED> instruction: 0xf4560001
    2a2c:	f8000002 			; <UNDEFINED> instruction: 0xf8000002
    2a30:	01000002 	tsteq	r0, r2
    2a34:	03005600 	movweq	r5, #1536	; 0x600
    2a38:	03040000 	movweq	r0, #16384	; 0x4000
    2a3c:	00010000 	andeq	r0, r1, r0
    2a40:	00030c56 	andeq	r0, r3, r6, asr ip
    2a44:	00031000 	andeq	r1, r3, r0
    2a48:	56000100 	strpl	r0, [r0], -r0, lsl #2
    2a4c:	00000314 	andeq	r0, r0, r4, lsl r3
    2a50:	00000358 	andeq	r0, r0, r8, asr r3
    2a54:	00560001 	subseq	r0, r6, r1
    2a58:	00000000 	andeq	r0, r0, r0
    2a5c:	a4000000 	strge	r0, [r0], #-0
    2a60:	cc000002 	stcgt	0, cr0, [r0], {2}
    2a64:	01000002 	tsteq	r0, r2
    2a68:	02cc5300 	sbceq	r5, ip, #0, 6
    2a6c:	02d40000 	sbcseq	r0, r4, #0
    2a70:	001c0000 	andseq	r0, ip, r0
    2a74:	2cf70070 	ldclcs	0, cr0, [r7], #448	; 0x1c0
    2a78:	25f425f7 	ldrbcs	r2, [r4, #1527]!	; 0x5f7
    2a7c:	cccccd08 	stclgt	13, cr12, [ip], {8}
    2a80:	000000cc 	andeq	r0, r0, ip, asr #1
    2a84:	20081e00 	andcs	r1, r8, r0, lsl #28
    2a88:	f72525f7 			; <UNDEFINED> instruction: 0xf72525f7
    2a8c:	9f25332c 	svcls	0x0025332c
    2a90:	000002d4 	ldrdeq	r0, [r0], -r4
    2a94:	000002d8 	ldrdeq	r0, [r0], -r8
    2a98:	d8530001 	ldmdale	r3, {r0}^
    2a9c:	e0000002 	and	r0, r0, r2
    2aa0:	1c000002 	stcne	0, cr0, [r0], {2}
    2aa4:	f7007000 			; <UNDEFINED> instruction: 0xf7007000
    2aa8:	f425f72c 	vld1.8	{d15}, [r5 :128], ip
    2aac:	cccd0825 	stclgt	8, cr0, [sp], {37}	; 0x25
    2ab0:	0000cccc 	andeq	ip, r0, ip, asr #25
    2ab4:	081e0000 	ldmdaeq	lr, {}	; <UNPREDICTABLE>
    2ab8:	2525f720 	strcs	pc, [r5, #-1824]!	; 0x720
    2abc:	25332cf7 	ldrcs	r2, [r3, #-3319]!	; 0xcf7
    2ac0:	0002e09f 	muleq	r2, pc, r0	; <UNPREDICTABLE>
    2ac4:	0002e400 	andeq	lr, r2, r0, lsl #8
    2ac8:	53000100 	movwpl	r0, #256	; 0x100
    2acc:	000002e4 	andeq	r0, r0, r4, ror #5
    2ad0:	000002ec 	andeq	r0, r0, ip, ror #5
    2ad4:	0070001c 	rsbseq	r0, r0, ip, lsl r0
    2ad8:	25f72cf7 	ldrbcs	r2, [r7, #3319]!	; 0xcf7
    2adc:	cd0825f4 	cfstr32gt	mvfx2, [r8, #-976]	; 0xfffffc30
    2ae0:	00cccccc 	sbceq	ip, ip, ip, asr #25
    2ae4:	1e000000 	cdpne	0, 0, cr0, cr0, cr0, {0}
    2ae8:	25f72008 	ldrbcs	r2, [r7, #8]!
    2aec:	332cf725 	msrcc	CPSR_fs, #9699328	; 0x940000
    2af0:	02ec9f25 	rsceq	r9, ip, #37, 30	; 0x94
    2af4:	02f00000 	rscseq	r0, r0, #0
    2af8:	00010000 	andeq	r0, r1, r0
    2afc:	0002f053 	andeq	pc, r2, r3, asr r0	; <UNPREDICTABLE>
    2b00:	0002f800 	andeq	pc, r2, r0, lsl #16
    2b04:	70001c00 	andvc	r1, r0, r0, lsl #24
    2b08:	f72cf700 			; <UNDEFINED> instruction: 0xf72cf700
    2b0c:	0825f425 	stmdaeq	r5!, {r0, r2, r5, sl, ip, sp, lr, pc}
    2b10:	cccccccd 	stclgt	12, cr12, [ip], {205}	; 0xcd
    2b14:	00000000 	andeq	r0, r0, r0
    2b18:	f720081e 			; <UNDEFINED> instruction: 0xf720081e
    2b1c:	2cf72525 	cfldr64cs	mvdx2, [r7], #148	; 0x94
    2b20:	f89f2533 			; <UNDEFINED> instruction: 0xf89f2533
    2b24:	fc000002 	stc2	0, cr0, [r0], {2}
    2b28:	01000002 	tsteq	r0, r2
    2b2c:	02fc5300 	rscseq	r5, ip, #0, 6
    2b30:	03040000 	movweq	r0, #16384	; 0x4000
    2b34:	001c0000 	andseq	r0, ip, r0
    2b38:	2cf70070 	ldclcs	0, cr0, [r7], #448	; 0x1c0
    2b3c:	25f425f7 	ldrbcs	r2, [r4, #1527]!	; 0x5f7
    2b40:	cccccd08 	stclgt	13, cr12, [ip], {8}
    2b44:	000000cc 	andeq	r0, r0, ip, asr #1
    2b48:	20081e00 	andcs	r1, r8, r0, lsl #28
    2b4c:	f72525f7 			; <UNDEFINED> instruction: 0xf72525f7
    2b50:	9f25332c 	svcls	0x0025332c
    2b54:	00000304 	andeq	r0, r0, r4, lsl #6
    2b58:	00000308 	andeq	r0, r0, r8, lsl #6
    2b5c:	08530001 	ldmdaeq	r3, {r0}^
    2b60:	10000003 	andne	r0, r0, r3
    2b64:	1c000003 	stcne	0, cr0, [r0], {3}
    2b68:	f7007000 			; <UNDEFINED> instruction: 0xf7007000
    2b6c:	f425f72c 	vld1.8	{d15}, [r5 :128], ip
    2b70:	cccd0825 	stclgt	8, cr0, [sp], {37}	; 0x25
    2b74:	0000cccc 	andeq	ip, r0, ip, asr #25
    2b78:	081e0000 	ldmdaeq	lr, {}	; <UNPREDICTABLE>
    2b7c:	2525f720 	strcs	pc, [r5, #-1824]!	; 0x720
    2b80:	25332cf7 	ldrcs	r2, [r3, #-3319]!	; 0xcf7
    2b84:	0003109f 	muleq	r3, pc, r0	; <UNPREDICTABLE>
    2b88:	00031400 	andeq	r1, r3, r0, lsl #8
    2b8c:	53000100 	movwpl	r0, #256	; 0x100
    2b90:	00000314 	andeq	r0, r0, r4, lsl r3
    2b94:	00000318 	andeq	r0, r0, r8, lsl r3
    2b98:	0070001c 	rsbseq	r0, r0, ip, lsl r0
    2b9c:	25f72cf7 	ldrbcs	r2, [r7, #3319]!	; 0xcf7
    2ba0:	cd0825f4 	cfstr32gt	mvfx2, [r8, #-976]	; 0xfffffc30
    2ba4:	00cccccc 	sbceq	ip, ip, ip, asr #25
    2ba8:	1e000000 	cdpne	0, 0, cr0, cr0, cr0, {0}
    2bac:	25f72008 	ldrbcs	r2, [r7, #8]!
    2bb0:	332cf725 	msrcc	CPSR_fs, #9699328	; 0x940000
    2bb4:	03189f25 	tsteq	r8, #37, 30	; 0x94
    2bb8:	03200000 	teqeq	r0, #0
    2bbc:	001c0000 	andseq	r0, ip, r0
    2bc0:	2cf70074 	ldclcs	0, cr0, [r7], #464	; 0x1d0
    2bc4:	25f425f7 	ldrbcs	r2, [r4, #1527]!	; 0x5f7
    2bc8:	cccccd08 	stclgt	13, cr12, [ip], {8}
    2bcc:	000000cc 	andeq	r0, r0, ip, asr #1
    2bd0:	20081e00 	andcs	r1, r8, r0, lsl #28
    2bd4:	f72525f7 			; <UNDEFINED> instruction: 0xf72525f7
    2bd8:	9f25332c 	svcls	0x0025332c
    2bdc:	00000320 	andeq	r0, r0, r0, lsr #6
    2be0:	00000324 	andeq	r0, r0, r4, lsr #6
    2be4:	00740017 	rsbseq	r0, r4, r7, lsl r0
    2be8:	25f72cf7 	ldrbcs	r2, [r7, #3319]!	; 0xcf7
    2bec:	2cf70073 	ldclcs	0, cr0, [r7], #460	; 0x1cc
    2bf0:	081e25f7 	ldmdaeq	lr, {r0, r1, r2, r4, r5, r6, r7, r8, sl, sp}
    2bf4:	2525f720 	strcs	pc, [r5, #-1824]!	; 0x720
    2bf8:	25332cf7 	ldrcs	r2, [r3, #-3319]!	; 0xcf7
    2bfc:	0003249f 	muleq	r3, pc, r4	; <UNPREDICTABLE>
    2c00:	00035800 	andeq	r5, r3, r0, lsl #16
    2c04:	74001c00 	strvc	r1, [r0], #-3072	; 0xc00
    2c08:	f72cf700 			; <UNDEFINED> instruction: 0xf72cf700
    2c0c:	0825f425 	stmdaeq	r5!, {r0, r2, r5, sl, ip, sp, lr, pc}
    2c10:	cccccccd 	stclgt	12, cr12, [ip], {205}	; 0xcd
    2c14:	00000000 	andeq	r0, r0, r0
    2c18:	f720081e 			; <UNDEFINED> instruction: 0xf720081e
    2c1c:	2cf72525 	cfldr64cs	mvdx2, [r7], #148	; 0x94
    2c20:	009f2533 	addseq	r2, pc, r3, lsr r5	; <UNPREDICTABLE>
    2c24:	00000000 	andeq	r0, r0, r0
    2c28:	1c000000 	stcne	0, cr0, [r0], {-0}
    2c2c:	40000003 	andmi	r0, r0, r3
    2c30:	01000003 	tsteq	r0, r3
    2c34:	03405000 	movteq	r5, #0
    2c38:	03480000 	movteq	r0, #32768	; 0x8000
    2c3c:	00090000 	andeq	r0, r9, r0
    2c40:	00730075 	rsbseq	r0, r3, r5, ror r0
    2c44:	21007124 	tstcs	r0, r4, lsr #2
    2c48:	0003489f 	muleq	r3, pc, r8	; <UNPREDICTABLE>
    2c4c:	00034b00 	andeq	r4, r3, r0, lsl #22
    2c50:	51000100 	mrspl	r0, (UNDEF: 16)
	...
    2c5c:	00000358 	andeq	r0, r0, r8, asr r3
    2c60:	00000364 	andeq	r0, r0, r4, ror #6
    2c64:	64500001 	ldrbvs	r0, [r0], #-1
    2c68:	84000003 	strhi	r0, [r0], #-3
    2c6c:	04000003 	streq	r0, [r0], #-3
    2c70:	5001f300 	andpl	pc, r1, r0, lsl #6
    2c74:	0000009f 	muleq	r0, pc, r0	; <UNPREDICTABLE>
    2c78:	00000000 	andeq	r0, r0, r0
    2c7c:	00038400 	andeq	r8, r3, r0, lsl #8
    2c80:	00039700 	andeq	r9, r3, r0, lsl #14
    2c84:	50000100 	andpl	r0, r0, r0, lsl #2
    2c88:	00000397 	muleq	r0, r7, r3
    2c8c:	000003d0 	ldrdeq	r0, [r0], -r0	; <UNPREDICTABLE>
    2c90:	d0540001 	subsle	r0, r4, r1
    2c94:	08000003 	stmdaeq	r0, {r0, r1}
    2c98:	04000004 	streq	r0, [r0], #-4
    2c9c:	5001f300 	andpl	pc, r1, r0, lsl #6
    2ca0:	0000009f 	muleq	r0, pc, r0	; <UNPREDICTABLE>
    2ca4:	00000000 	andeq	r0, r0, r0
    2ca8:	0003f000 	andeq	pc, r3, r0
    2cac:	0003f400 	andeq	pc, r3, r0, lsl #8
    2cb0:	50000100 	andpl	r0, r0, r0, lsl #2
    2cb4:	000003f4 	strdeq	r0, [r0], -r4
    2cb8:	000003fb 	strdeq	r0, [r0], -fp
    2cbc:	00510001 	subseq	r0, r1, r1
    2cc0:	00000000 	andeq	r0, r0, r0
    2cc4:	ac000000 	stcge	0, cr0, [r0], {-0}
    2cc8:	b4000003 	strlt	r0, [r0], #-3
    2ccc:	01000003 	tsteq	r0, r3
    2cd0:	03b45000 			; <UNDEFINED> instruction: 0x03b45000
    2cd4:	03bb0000 			; <UNDEFINED> instruction: 0x03bb0000
    2cd8:	00010000 	andeq	r0, r1, r0
    2cdc:	00000051 	andeq	r0, r0, r1, asr r0
    2ce0:	00000000 	andeq	r0, r0, r0
    2ce4:	0003cc00 	andeq	ip, r3, r0, lsl #24
    2ce8:	0003d800 	andeq	sp, r3, r0, lsl #16
    2cec:	50000100 	andpl	r0, r0, r0, lsl #2
    2cf0:	000003d8 	ldrdeq	r0, [r0], -r8
    2cf4:	000003df 	ldrdeq	r0, [r0], -pc	; <UNPREDICTABLE>
    2cf8:	00510001 	subseq	r0, r1, r1
    2cfc:	00000000 	andeq	r0, r0, r0
    2d00:	08000000 	stmdaeq	r0, {}	; <UNPREDICTABLE>
    2d04:	1b000004 	blne	2d1c <_start-0x52e4>
    2d08:	01000004 	tsteq	r0, r4
    2d0c:	041b5000 	ldreq	r5, [fp], #-0
    2d10:	04540000 	ldrbeq	r0, [r4], #-0
    2d14:	00010000 	andeq	r0, r1, r0
    2d18:	00045454 	andeq	r5, r4, r4, asr r4
    2d1c:	00048c00 	andeq	r8, r4, r0, lsl #24
    2d20:	f3000400 	vshl.u8	d0, d0, d0
    2d24:	009f5001 	addseq	r5, pc, r1
    2d28:	00000000 	andeq	r0, r0, r0
    2d2c:	74000000 	strvc	r0, [r0], #-0
    2d30:	78000004 	stmdavc	r0, {r2}
    2d34:	01000004 	tsteq	r0, r4
    2d38:	04785000 	ldrbteq	r5, [r8], #-0
    2d3c:	047f0000 	ldrbteq	r0, [pc], #-0	; 2d44 <_start-0x52bc>
    2d40:	00010000 	andeq	r0, r1, r0
    2d44:	00000051 	andeq	r0, r0, r1, asr r0
    2d48:	00000000 	andeq	r0, r0, r0
    2d4c:	00043000 	andeq	r3, r4, r0
    2d50:	00043800 	andeq	r3, r4, r0, lsl #16
    2d54:	50000100 	andpl	r0, r0, r0, lsl #2
    2d58:	00000438 	andeq	r0, r0, r8, lsr r4
    2d5c:	0000043f 	andeq	r0, r0, pc, lsr r4
    2d60:	00510001 	subseq	r0, r1, r1
    2d64:	00000000 	andeq	r0, r0, r0
    2d68:	50000000 	andpl	r0, r0, r0
    2d6c:	5c000004 	stcpl	0, cr0, [r0], {4}
    2d70:	01000004 	tsteq	r0, r4
    2d74:	045c5000 	ldrbeq	r5, [ip], #-0
    2d78:	04630000 	strbteq	r0, [r3], #-0
    2d7c:	00010000 	andeq	r0, r1, r0
    2d80:	00000051 	andeq	r0, r0, r1, asr r0
    2d84:	00000000 	andeq	r0, r0, r0
    2d88:	00048c00 	andeq	r8, r4, r0, lsl #24
    2d8c:	00049f00 	andeq	r9, r4, r0, lsl #30
    2d90:	50000100 	andpl	r0, r0, r0, lsl #2
    2d94:	0000049f 	muleq	r0, pc, r4	; <UNPREDICTABLE>
    2d98:	000004e0 	andeq	r0, r0, r0, ror #9
    2d9c:	e0540001 	subs	r0, r4, r1
    2da0:	04000004 	streq	r0, [r0], #-4
    2da4:	04000005 	streq	r0, [r0], #-5
    2da8:	5001f300 	andpl	pc, r1, r0, lsl #6
    2dac:	0005049f 	muleq	r5, pc, r4	; <UNPREDICTABLE>
    2db0:	00050800 	andeq	r0, r5, r0, lsl #16
    2db4:	50000100 	andpl	r0, r0, r0, lsl #2
    2db8:	00000508 	andeq	r0, r0, r8, lsl #10
    2dbc:	00000510 	andeq	r0, r0, r0, lsl r5
    2dc0:	00540001 	subseq	r0, r4, r1
    2dc4:	00000000 	andeq	r0, r0, r0
    2dc8:	b4000000 	strlt	r0, [r0], #-0
    2dcc:	c3000004 	movwgt	r0, #4
    2dd0:	08000004 	stmdaeq	r0, {r2}
    2dd4:	00743100 	rsbseq	r3, r4, r0, lsl #2
    2dd8:	1a007024 	bne	1ee70 <__bss_end__+0x12b40>
    2ddc:	0000009f 	muleq	r0, pc, r0	; <UNPREDICTABLE>
    2de0:	00000000 	andeq	r0, r0, r0
    2de4:	0004e000 	andeq	lr, r4, r0
    2de8:	0004f800 	andeq	pc, r4, r0, lsl #16
    2dec:	54000100 	strpl	r0, [r0], #-256	; 0x100
	...
    2df8:	00000510 	andeq	r0, r0, r0, lsl r5
    2dfc:	00000523 	andeq	r0, r0, r3, lsr #10
    2e00:	23500001 	cmpcs	r0, #1
    2e04:	48000005 	stmdami	r0, {r0, r2}
    2e08:	01000005 	tsteq	r0, r5
    2e0c:	05485400 	strbeq	r5, [r8, #-1024]	; 0x400
    2e10:	05680000 	strbeq	r0, [r8, #-0]!
    2e14:	00040000 	andeq	r0, r4, r0
    2e18:	9f5001f3 	svcls	0x005001f3
	...
    2e28:	00000004 	andeq	r0, r0, r4
    2e2c:	04520001 	ldrbeq	r0, [r2], #-1
    2e30:	20000000 	andcs	r0, r0, r0
    2e34:	04000000 	streq	r0, [r0], #-0
    2e38:	5201f300 	andpl	pc, r1, #0, 6
    2e3c:	0000009f 	muleq	r0, pc, r0	; <UNPREDICTABLE>
	...
    2e48:	00000c00 	andeq	r0, r0, r0, lsl #24
    2e4c:	50000100 	andpl	r0, r0, r0, lsl #2
    2e50:	0000000c 	andeq	r0, r0, ip
    2e54:	00000014 	andeq	r0, r0, r4, lsl r0
    2e58:	01730003 	cmneq	r3, r3
    2e5c:	0000149f 	muleq	r0, pc, r4	; <UNPREDICTABLE>
    2e60:	00002000 	andeq	r2, r0, r0
    2e64:	53000100 	movwpl	r0, #256	; 0x100
	...

Disassembly of section .debug_aranges:

00000000 <.debug_aranges>:
   0:	0000001c 	andeq	r0, r0, ip, lsl r0
   4:	00000002 	andeq	r0, r0, r2
   8:	00040000 	andeq	r0, r4, r0
   c:	00000000 	andeq	r0, r0, r0
  10:	00008010 	andeq	r8, r0, r0, lsl r0
  14:	00000288 	andeq	r0, r0, r8, lsl #5
	...
  20:	0000001c 	andeq	r0, r0, ip, lsl r0
  24:	07c40002 	strbeq	r0, [r4, r2]
  28:	00040000 	andeq	r0, r4, r0
  2c:	00000000 	andeq	r0, r0, r0
  30:	00008298 	muleq	r0, r8, r2
  34:	0000104c 	andeq	r1, r0, ip, asr #32
	...
  40:	0000001c 	andeq	r0, r0, ip, lsl r0
  44:	149d0002 	ldrne	r0, [sp], #2
  48:	00040000 	andeq	r0, r4, r0
  4c:	00000000 	andeq	r0, r0, r0
  50:	000092e4 	andeq	r9, r0, r4, ror #5
  54:	0000078c 	andeq	r0, r0, ip, lsl #15
	...
  60:	0000001c 	andeq	r0, r0, ip, lsl r0
  64:	19070002 	stmdbne	r7, {r1}
  68:	00040000 	andeq	r0, r4, r0
  6c:	00000000 	andeq	r0, r0, r0
  70:	00009a70 	andeq	r9, r0, r0, ror sl
  74:	0000006c 	andeq	r0, r0, ip, rrx
	...
  80:	0000001c 	andeq	r0, r0, ip, lsl r0
  84:	1a710002 	bne	1c40094 <__bss_end__+0x1c33d64>
  88:	00040000 	andeq	r0, r4, r0
  8c:	00000000 	andeq	r0, r0, r0
  90:	00009adc 	ldrdeq	r9, [r0], -ip
  94:	00000058 	andeq	r0, r0, r8, asr r0
	...
  a0:	0000001c 	andeq	r0, r0, ip, lsl r0
  a4:	1c060002 	stcne	0, cr0, [r6], {2}
  a8:	00040000 	andeq	r0, r4, r0
  ac:	00000000 	andeq	r0, r0, r0
  b0:	00009b34 	andeq	r9, r0, r4, lsr fp
  b4:	0000003c 	andeq	r0, r0, ip, lsr r0
	...
  c0:	0000001c 	andeq	r0, r0, ip, lsl r0
  c4:	1d1d0002 	ldcne	0, cr0, [sp, #-8]
  c8:	00040000 	andeq	r0, r4, r0
  cc:	00000000 	andeq	r0, r0, r0
  d0:	00009b70 	andeq	r9, r0, r0, ror fp
  d4:	00000034 	andeq	r0, r0, r4, lsr r0
	...
  e0:	0000001c 	andeq	r0, r0, ip, lsl r0
  e4:	1e0f0002 	cdpne	0, 0, cr0, cr15, cr2, {0}
  e8:	00040000 	andeq	r0, r4, r0
  ec:	00000000 	andeq	r0, r0, r0
  f0:	00009ba4 	andeq	r9, r0, r4, lsr #23
  f4:	0000001c 	andeq	r0, r0, ip, lsl r0
	...
 100:	0000001c 	andeq	r0, r0, ip, lsl r0
 104:	1ee70002 	cdpne	0, 14, cr0, cr7, cr2, {0}
 108:	00040000 	andeq	r0, r4, r0
 10c:	00000000 	andeq	r0, r0, r0
 110:	00009bc0 	andeq	r9, r0, r0, asr #23
 114:	000004f8 	strdeq	r0, [r0], -r8
	...
 120:	0000001c 	andeq	r0, r0, ip, lsl r0
 124:	256c0002 	strbcs	r0, [ip, #-2]!
 128:	00040000 	andeq	r0, r4, r0
 12c:	00000000 	andeq	r0, r0, r0
 130:	0000a0b8 	strheq	sl, [r0], -r8
 134:	00000028 	andeq	r0, r0, r8, lsr #32
	...
 140:	0000001c 	andeq	r0, r0, ip, lsl r0
 144:	266f0002 	strbtcs	r0, [pc], -r2
 148:	00040000 	andeq	r0, r4, r0
 14c:	00000000 	andeq	r0, r0, r0
 150:	0000a0e0 	andeq	sl, r0, r0, ror #1
 154:	000000b0 	strheq	r0, [r0], -r0	; <UNPREDICTABLE>
	...
 160:	0000001c 	andeq	r0, r0, ip, lsl r0
 164:	29500002 	ldmdbcs	r0, {r1}^
 168:	00040000 	andeq	r0, r4, r0
 16c:	00000000 	andeq	r0, r0, r0
 170:	0000a190 	muleq	r0, r0, r1
 174:	00000074 	andeq	r0, r0, r4, ror r0
	...
 180:	0000001c 	andeq	r0, r0, ip, lsl r0
 184:	2b010002 	blcs	40194 <__bss_end__+0x33e64>
 188:	00040000 	andeq	r0, r4, r0
 18c:	00000000 	andeq	r0, r0, r0
 190:	0000a204 	andeq	sl, r0, r4, lsl #4
 194:	00000088 	andeq	r0, r0, r8, lsl #1
	...
 1a0:	0000001c 	andeq	r0, r0, ip, lsl r0
 1a4:	2cdd0002 	ldclcs	0, cr0, [sp], {2}
 1a8:	00040000 	andeq	r0, r4, r0
 1ac:	00000000 	andeq	r0, r0, r0
 1b0:	0000a28c 	andeq	sl, r0, ip, lsl #5
 1b4:	000001e8 	andeq	r0, r0, r8, ror #3
	...
 1c0:	0000001c 	andeq	r0, r0, ip, lsl r0
 1c4:	30cf0002 	sbccc	r0, pc, r2
 1c8:	00040000 	andeq	r0, r4, r0
 1cc:	00000000 	andeq	r0, r0, r0
 1d0:	0000a474 	andeq	sl, r0, r4, ror r4
 1d4:	00000620 	andeq	r0, r0, r0, lsr #12
	...
 1e0:	0000001c 	andeq	r0, r0, ip, lsl r0
 1e4:	429d0002 	addsmi	r0, sp, #2
 1e8:	00040000 	andeq	r0, r4, r0
 1ec:	00000000 	andeq	r0, r0, r0
 1f0:	0000aa94 	muleq	r0, r4, sl
 1f4:	00000154 	andeq	r0, r0, r4, asr r1
	...
 200:	0000001c 	andeq	r0, r0, ip, lsl r0
 204:	46a00002 	strtmi	r0, [r0], r2
 208:	00040000 	andeq	r0, r4, r0
 20c:	00000000 	andeq	r0, r0, r0
 210:	0000ac4c 	andeq	sl, r0, ip, asr #24
 214:	00000568 	andeq	r0, r0, r8, ror #10
	...
 220:	0000001c 	andeq	r0, r0, ip, lsl r0
 224:	4ec50002 	cdpmi	0, 12, cr0, cr5, cr2, {0}
 228:	00040000 	andeq	r0, r4, r0
 22c:	00000000 	andeq	r0, r0, r0
 230:	0000b1b4 			; <UNDEFINED> instruction: 0x0000b1b4
 234:	00000020 	andeq	r0, r0, r0, lsr #32
	...
 240:	0000001c 	andeq	r0, r0, ip, lsl r0
 244:	4fa40002 	svcmi	0x00a40002
 248:	00040000 	andeq	r0, r4, r0
 24c:	00000000 	andeq	r0, r0, r0
 250:	0000b1d4 	ldrdeq	fp, [r0], -r4
 254:	00000050 	andeq	r0, r0, r0, asr r0
	...

Disassembly of section .debug_line:

00000000 <.debug_line>:
       0:	000001ad 	andeq	r0, r0, sp, lsr #3
       4:	014d0002 	cmpeq	sp, r2
       8:	01020000 	mrseq	r0, (UNDEF: 2)
       c:	000d0efb 	strdeq	r0, [sp], -fp
      10:	01010101 	tsteq	r1, r1, lsl #2
      14:	01000000 	mrseq	r0, (UNDEF: 0)
      18:	2f010000 	svccs	0x00010000
      1c:	2f727375 	svccs	0x00727375
      20:	61636f6c 	cmnvs	r3, ip, ror #30
      24:	65432f6c 	strbvs	r2, [r3, #-3948]	; 0xf6c
      28:	72616c6c 	rsbvc	r6, r1, #108, 24	; 0x6c00
      2c:	6d72612f 	ldfvse	f6, [r2, #-188]!	; 0xffffff44
      30:	6e6f6e2d 	cdpvs	14, 6, cr6, cr15, cr13, {1}
      34:	61652d65 	cmnvs	r5, r5, ror #26
      38:	342f6962 	strtcc	r6, [pc], #-2402	; 40 <_start-0x7fc0>
      3c:	332e382e 	teqcc	lr, #3014656	; 0x2e0000
      40:	3173632d 	cmncc	r3, sp, lsr #6
      44:	2f653037 	svccs	0x00653037
      48:	2f62696c 	svccs	0x0062696c
      4c:	2f636367 	svccs	0x00636367
      50:	2d6d7261 	sfmcs	f7, 2, [sp, #-388]!	; 0xfffffe7c
      54:	656e6f6e 	strbvs	r6, [lr, #-3950]!	; 0xf6e
      58:	6261652d 	rsbvs	r6, r1, #188743680	; 0xb400000
      5c:	2e342f69 	cdpcs	15, 3, cr2, cr4, cr9, {3}
      60:	2f332e38 	svccs	0x00332e38
      64:	6c636e69 	stclvs	14, cr6, [r3], #-420	; 0xfffffe5c
      68:	00656475 	rsbeq	r6, r5, r5, ror r4
      6c:	65747865 	ldrbvs	r7, [r4, #-2149]!	; 0x865
      70:	6c616e72 	stclvs	14, cr6, [r1], #-456	; 0xfffffe38
      74:	646f632d 	strbtvs	r6, [pc], #-813	; 7c <_start-0x7f84>
      78:	552f0065 	strpl	r0, [pc, #-101]!	; 1b <_start-0x7fe5>
      7c:	73726573 	cmnvc	r2, #482344960	; 0x1cc00000
      80:	6972622f 	ldmdbvs	r2!, {r0, r1, r2, r3, r5, r9, sp, lr}^
      84:	756a6e61 	strbvc	r6, [sl, #-3681]!	; 0xe61
      88:	65442f6e 	strbvs	r2, [r4, #-3950]	; 0xf6e
      8c:	6f746b73 	svcvs	0x00746b73
      90:	63732f70 	cmnvs	r3, #112, 30	; 0x1c0
      94:	6c6f6f68 	stclvs	15, cr6, [pc], #-416	; fffffefc <__bss_end__+0xffff3bcc>
      98:	6e69572f 	cdpvs	7, 6, cr5, cr9, cr15, {1}
      9c:	31726574 	cmncc	r2, r4, ror r5
      a0:	2f303239 	svccs	0x00303239
      a4:	34315343 	ldrtcc	r5, [r1], #-835	; 0x343
      a8:	632f4530 	teqvs	pc, #48, 10	; 0xc000000
      ac:	30343173 	eorscc	r3, r4, r3, ror r1
      b0:	30322d65 	eorscc	r2, r2, r5, ror #26
      b4:	2f6e6977 	svccs	0x006e6977
      b8:	7062696c 	rsbvc	r6, r2, ip, ror #18
      bc:	752f0069 	strvc	r0, [pc, #-105]!	; 5b <_start-0x7fa5>
      c0:	6c2f7273 	sfmvs	f7, 4, [pc], #-460	; fffffefc <__bss_end__+0xffff3bcc>
      c4:	6c61636f 	stclvs	3, cr6, [r1], #-444	; 0xfffffe44
      c8:	6c65432f 	stclvs	3, cr4, [r5], #-188	; 0xffffff44
      cc:	2f72616c 	svccs	0x0072616c
      d0:	2d6d7261 	sfmcs	f7, 2, [sp, #-388]!	; 0xfffffe7c
      d4:	656e6f6e 	strbvs	r6, [lr, #-3950]!	; 0xf6e
      d8:	6261652d 	rsbvs	r6, r1, #188743680	; 0xb400000
      dc:	2e342f69 	cdpcs	15, 3, cr2, cr4, cr9, {3}
      e0:	2d332e38 	ldccs	14, cr2, [r3, #-224]!	; 0xffffff20
      e4:	37317363 	ldrcc	r7, [r1, -r3, ror #6]!
      e8:	612f6530 	teqvs	pc, r0, lsr r5	; <UNPREDICTABLE>
      ec:	6e2d6d72 	mcrvs	13, 1, r6, cr13, cr2, {3}
      f0:	2d656e6f 	stclcs	14, cr6, [r5, #-444]!	; 0xfffffe44
      f4:	69626165 	stmdbvs	r2!, {r0, r2, r5, r6, r8, sp, lr}^
      f8:	636e692f 	cmnvs	lr, #770048	; 0xbc000
      fc:	6564756c 	strbvs	r7, [r4, #-1388]!	; 0x56c
     100:	72640000 	rsbvc	r0, r4, #0
     104:	72657669 	rsbvc	r7, r5, #110100480	; 0x6900000
     108:	0000632e 	andeq	r6, r0, lr, lsr #6
     10c:	61660000 	cmnvs	r6, r0
     110:	2e323374 	mrccs	3, 1, r3, cr2, cr4, {3}
     114:	00000068 	andeq	r0, r0, r8, rrx
     118:	64747300 	ldrbtvs	r7, [r4], #-768	; 0x300
     11c:	2e666564 	cdpcs	5, 6, cr6, cr6, cr4, {3}
     120:	00010068 	andeq	r0, r1, r8, rrx
     124:	64747300 	ldrbtvs	r7, [r4], #-768	; 0x300
     128:	2d746e69 	ldclcs	14, cr6, [r4, #-420]!	; 0xfffffe5c
     12c:	2e636367 	cdpcs	3, 6, cr6, cr3, cr7, {3}
     130:	00010068 	andeq	r0, r1, r8, rrx
     134:	747a6200 	ldrbtvc	r6, [sl], #-512	; 0x200
     138:	2e64732d 	cdpcs	3, 6, cr7, cr4, cr13, {1}
     13c:	00020068 	andeq	r0, r2, r8, rrx
     140:	69707200 	ldmdbvs	r0!, {r9, ip, sp, lr}^
     144:	0300682e 	movweq	r6, #2094	; 0x82e
     148:	74730000 	ldrbtvc	r0, [r3], #-0
     14c:	676e6972 			; <UNDEFINED> instruction: 0x676e6972
     150:	0400682e 	streq	r6, [r0], #-2094	; 0x82e
     154:	00000000 	andeq	r0, r0, r0
     158:	80100205 	andshi	r0, r0, r5, lsl #4
     15c:	09030000 	stmdbeq	r3, {}	; <UNPREDICTABLE>
     160:	f4bb8401 			; <UNDEFINED> instruction: 0xf4bb8401
     164:	d8672fbb 	stmdale	r7!, {r0, r1, r3, r4, r5, r7, r8, r9, sl, fp, sp}^
     168:	9f6767a2 	svcls	0x006767a2
     16c:	2f4ba0d8 	svccs	0x004ba0d8
     170:	4c2f4b30 	stcmi	11, cr4, [pc], #-192	; b8 <_start-0x7f48>
     174:	4e4c834b 	cdpmi	3, 4, cr8, cr12, cr11, {2}
     178:	020467bb 	andeq	r6, r4, #49020928	; 0x2ec0000
     17c:	042e1b03 	strteq	r1, [lr], #-2819	; 0xb03
     180:	2e650301 	cdpcs	3, 6, cr0, cr5, cr1, {0}
     184:	01040200 	mrseq	r0, R12_usr
     188:	dc064a06 	stcle	10, cr4, [r6], {6}
     18c:	01040200 	mrseq	r0, R12_usr
     190:	d7068206 	strle	r8, [r6, -r6, lsl #4]
     194:	01040200 	mrseq	r0, R12_usr
     198:	d7069e06 	strle	r9, [r6, -r6, lsl #28]
     19c:	01040200 	mrseq	r0, R12_usr
     1a0:	d7069e06 	strle	r9, [r6, -r6, lsl #28]
     1a4:	01040200 	mrseq	r0, R12_usr
     1a8:	d8069e06 	stmdale	r6, {r1, r2, r9, sl, fp, ip, pc}
     1ac:	01001a02 	tsteq	r0, r2, lsl #20
     1b0:	00036901 	andeq	r6, r3, r1, lsl #18
     1b4:	e1000200 	mrs	r0, R8_usr
     1b8:	02000000 	andeq	r0, r0, #0
     1bc:	0d0efb01 	vstreq	d15, [lr, #-4]
     1c0:	01010100 	mrseq	r0, (UNDEF: 17)
     1c4:	00000001 	andeq	r0, r0, r1
     1c8:	01000001 	tsteq	r0, r1
     1cc:	65747865 	ldrbvs	r7, [r4, #-2149]!	; 0x865
     1d0:	6c616e72 	stclvs	14, cr6, [r1], #-456	; 0xfffffe38
     1d4:	646f632d 	strbtvs	r6, [pc], #-813	; 1dc <_start-0x7e24>
     1d8:	552f0065 	strpl	r0, [pc, #-101]!	; 17b <_start-0x7e85>
     1dc:	73726573 	cmnvc	r2, #482344960	; 0x1cc00000
     1e0:	6972622f 	ldmdbvs	r2!, {r0, r1, r2, r3, r5, r9, sp, lr}^
     1e4:	756a6e61 	strbvc	r6, [sl, #-3681]!	; 0xe61
     1e8:	65442f6e 	strbvs	r2, [r4, #-3950]	; 0xf6e
     1ec:	6f746b73 	svcvs	0x00746b73
     1f0:	63732f70 	cmnvs	r3, #112, 30	; 0x1c0
     1f4:	6c6f6f68 	stclvs	15, cr6, [pc], #-416	; 5c <_start-0x7fa4>
     1f8:	6e69572f 	cdpvs	7, 6, cr5, cr9, cr15, {1}
     1fc:	31726574 	cmncc	r2, r4, ror r5
     200:	2f303239 	svccs	0x00303239
     204:	34315343 	ldrtcc	r5, [r1], #-835	; 0x343
     208:	632f4530 	teqvs	pc, #48, 10	; 0xc000000
     20c:	30343173 	eorscc	r3, r4, r3, ror r1
     210:	30322d65 	eorscc	r2, r2, r5, ror #26
     214:	2f6e6977 	svccs	0x006e6977
     218:	7062696c 	rsbvc	r6, r2, ip, ror #18
     21c:	552f0069 	strpl	r0, [pc, #-105]!	; 1bb <_start-0x7e45>
     220:	73726573 	cmnvc	r2, #482344960	; 0x1cc00000
     224:	6972622f 	ldmdbvs	r2!, {r0, r1, r2, r3, r5, r9, sp, lr}^
     228:	756a6e61 	strbvc	r6, [sl, #-3681]!	; 0xe61
     22c:	65442f6e 	strbvs	r2, [r4, #-3950]	; 0xf6e
     230:	6f746b73 	svcvs	0x00746b73
     234:	63732f70 	cmnvs	r3, #112, 30	; 0x1c0
     238:	6c6f6f68 	stclvs	15, cr6, [pc], #-416	; a0 <_start-0x7f60>
     23c:	6e69572f 	cdpvs	7, 6, cr5, cr9, cr15, {1}
     240:	31726574 	cmncc	r2, r4, ror r5
     244:	2f303239 	svccs	0x00303239
     248:	34315343 	ldrtcc	r5, [r1], #-835	; 0x343
     24c:	632f4530 	teqvs	pc, #48, 10	; 0xc000000
     250:	30343173 	eorscc	r3, r4, r3, ror r1
     254:	30322d65 	eorscc	r2, r2, r5, ror #26
     258:	2f6e6977 	svccs	0x006e6977
     25c:	7062696c 	rsbvc	r6, r2, ip, ror #18
     260:	73632f69 	cmnvc	r3, #420	; 0x1a4
     264:	65303431 	ldrvs	r3, [r0, #-1073]!	; 0x431
     268:	746e692d 	strbtvc	r6, [lr], #-2349	; 0x92d
     26c:	75727265 	ldrbvc	r7, [r2, #-613]!	; 0x265
     270:	00007470 	andeq	r7, r0, r0, ror r4
     274:	2d747a62 	vldmdbcs	r4!, {s15-s112}
     278:	632e6473 	teqvs	lr, #1929379840	; 0x73000000
     27c:	00000100 	andeq	r0, r0, r0, lsl #2
     280:	2e697072 	mcrcs	0, 3, r7, cr9, cr2, {3}
     284:	00020068 	andeq	r0, r2, r8, rrx
     288:	69707200 	ldmdbvs	r0!, {r9, ip, sp, lr}^
     28c:	6d72612d 	ldfvse	f6, [r2, #-180]!	; 0xffffff4c
     290:	656d6974 	strbvs	r6, [sp, #-2420]!	; 0x974
     294:	00682e72 	rsbeq	r2, r8, r2, ror lr
     298:	00000003 	andeq	r0, r0, r3
     29c:	98020500 	stmdals	r2, {r8, sl}
     2a0:	03000082 	movweq	r0, #130	; 0x82
     2a4:	4b010183 	blmi	408b8 <__bss_end__+0x34588>
     2a8:	01040200 	mrseq	r0, R12_usr
     2ac:	02009e06 	andeq	r9, r0, #6, 28	; 0x60
     2b0:	00ba0204 	adcseq	r0, sl, r4, lsl #4
     2b4:	66010402 	strvs	r0, [r1], -r2, lsl #8
     2b8:	002f0666 	eoreq	r0, pc, r6, ror #12
     2bc:	06020402 	streq	r0, [r2], -r2, lsl #8
     2c0:	9f06ba4a 	svcls	0x0006ba4a
     2c4:	004b4b88 	subeq	r4, fp, r8, lsl #23
     2c8:	06010402 	streq	r0, [r1], -r2, lsl #8
     2cc:	04020082 	streq	r0, [r2], #-130	; 0x82
     2d0:	0666ba02 	strbteq	fp, [r6], -r2, lsl #20
     2d4:	02004b2f 	andeq	r4, r0, #48128	; 0xbc00
     2d8:	4a060204 	bmi	180af0 <__bss_end__+0x1747c0>
     2dc:	01040200 	mrseq	r0, R12_usr
     2e0:	0083064a 	addeq	r0, r3, sl, asr #12
     2e4:	06010402 	streq	r0, [r1], -r2, lsl #8
     2e8:	4b830682 	blmi	fe0c1cf8 <__bss_end__+0xfe0b59c8>
     2ec:	674c882f 	strbvs	r8, [ip, -pc, lsr #16]
     2f0:	0402004b 	streq	r0, [r2], #-75	; 0x4b
     2f4:	009e0603 	addseq	r0, lr, r3, lsl #12
     2f8:	06030402 	streq	r0, [r3], -r2, lsl #8
     2fc:	0402002f 	streq	r0, [r2], #-47	; 0x2f
     300:	06820601 	streq	r0, [r2], r1, lsl #12
     304:	00305908 	eorseq	r5, r0, r8, lsl #18
     308:	06010402 	streq	r0, [r1], -r2, lsl #8
     30c:	21080682 	smlabbcs	r8, r2, r6, r0
     310:	009fad08 	addseq	sl, pc, r8, lsl #26
     314:	06010402 	streq	r0, [r1], -r2, lsl #8
     318:	00670666 	rsbeq	r0, r7, r6, ror #12
     31c:	06010402 	streq	r0, [r1], -r2, lsl #8
     320:	004b0682 	subeq	r0, fp, r2, lsl #13
     324:	06010402 	streq	r0, [r1], -r2, lsl #8
     328:	4bd70682 	blmi	ff5c1d38 <__bss_end__+0xff5b5a08>
     32c:	04020067 	streq	r0, [r2], #-103	; 0x67
     330:	064a0601 	strbeq	r0, [sl], -r1, lsl #12
     334:	0200674b 	andeq	r6, r0, #19660800	; 0x12c0000
     338:	66060104 	strvs	r0, [r6], -r4, lsl #2
     33c:	0083062e 	addeq	r0, r3, lr, lsr #12
     340:	06010402 	streq	r0, [r1], -r2, lsl #8
     344:	67f30666 	ldrbvs	r0, [r3, r6, ror #12]!
     348:	03687508 	cmneq	r8, #8, 10	; 0x2000000
     34c:	0a036679 	beq	d9d38 <__bss_end__+0xcda08>
     350:	1926022e 	stmdbne	r6!, {r1, r2, r3, r5, r9}
     354:	ad084b84 	vstrge	d4, [r8, #-528]	; 0xfffffdf0
     358:	01040200 	mrseq	r0, R12_usr
     35c:	bc069e06 	stclt	14, cr9, [r6], {6}
     360:	04020083 	streq	r0, [r2], #-131	; 0x83
     364:	064a0601 	strbeq	r0, [sl], -r1, lsl #12
     368:	8384674b 	orrhi	r6, r4, #19660800	; 0x12c0000
     36c:	03040200 	movweq	r0, #16896	; 0x4200
     370:	02006606 	andeq	r6, r0, #6291456	; 0x600000
     374:	4b060304 	blmi	180f8c <__bss_end__+0x174c5c>
     378:	040200a0 	streq	r0, [r2], #-160	; 0xa0
     37c:	02008501 	andeq	r8, r0, #4194304	; 0x400000
     380:	00300104 	eorseq	r0, r0, r4, lsl #2
     384:	30010402 	andcc	r0, r1, r2, lsl #8
     388:	01040200 	mrseq	r0, R12_usr
     38c:	9f67452f 	svcls	0x0067452f
     390:	04020068 	streq	r0, [r2], #-104	; 0x68
     394:	00820601 	addeq	r0, r2, r1, lsl #12
     398:	06020402 	streq	r0, [r2], -r2, lsl #8
     39c:	040200d7 	streq	r0, [r2], #-215	; 0xd7
     3a0:	069e0601 	ldreq	r0, [lr], r1, lsl #12
     3a4:	0402004b 	streq	r0, [r2], #-75	; 0x4b
     3a8:	4a790301 	bmi	1e40fb4 <__bss_end__+0x1e34c84>
     3ac:	00660903 	rsbeq	r0, r6, r3, lsl #18
     3b0:	06010402 	streq	r0, [r1], -r2, lsl #8
     3b4:	2108064a 	tstcs	r8, sl, asr #12
     3b8:	01040200 	mrseq	r0, R12_usr
     3bc:	00828206 	addeq	r8, r2, r6, lsl #4
     3c0:	66030402 	strvs	r0, [r3], -r2, lsl #8
     3c4:	22022f06 	andcs	r2, r2, #6, 30
     3c8:	084b8419 	stmdaeq	fp, {r0, r3, r4, sl, pc}^
     3cc:	040200ad 	streq	r0, [r2], #-173	; 0xad
     3d0:	069e0601 	ldreq	r0, [lr], r1, lsl #12
     3d4:	020083bc 	andeq	r8, r0, #188, 6	; 0xf0000002
     3d8:	4a060104 	bmi	1807f0 <__bss_end__+0x1744c0>
     3dc:	84674b06 	strbthi	r4, [r7], #-2822	; 0xb06
     3e0:	04020083 	streq	r0, [r2], #-131	; 0x83
     3e4:	00660603 	rsbeq	r0, r6, r3, lsl #12
     3e8:	06030402 	streq	r0, [r3], -r2, lsl #8
     3ec:	0200a04b 	andeq	sl, r0, #75	; 0x4b
     3f0:	00850104 	addeq	r0, r5, r4, lsl #2
     3f4:	30010402 	andcc	r0, r1, r2, lsl #8
     3f8:	01040200 	mrseq	r0, R12_usr
     3fc:	04020030 	streq	r0, [r2], #-48	; 0x30
     400:	67452f01 	strbvs	r2, [r5, -r1, lsl #30]
     404:	0200689f 	andeq	r6, r0, #10420224	; 0x9f0000
     408:	82060104 	andhi	r0, r6, #4, 2
     40c:	02040200 	andeq	r0, r4, #0, 4
     410:	0200d706 	andeq	sp, r0, #1572864	; 0x180000
     414:	9e060104 	adflss	f0, f6, f4
     418:	02004b06 	andeq	r4, r0, #6144	; 0x1800
     41c:	79030104 	stmdbvc	r3, {r2, r8}
     420:	6609034a 	strvs	r0, [r9], -sl, asr #6
     424:	01040200 	mrseq	r0, R12_usr
     428:	d7068206 	strle	r8, [r6, -r6, lsl #4]
     42c:	01040200 	mrseq	r0, R12_usr
     430:	08064a06 	stmdaeq	r6, {r1, r2, r9, fp, lr}
     434:	04020021 	streq	r0, [r2], #-33	; 0x21
     438:	82820601 	addhi	r0, r2, #1048576	; 0x100000
     43c:	03040200 	movweq	r0, #16896	; 0x4200
     440:	032f0666 	teqeq	pc, #106954752	; 0x6600000
     444:	0126022c 	teqeq	r6, ip, lsr #4
     448:	59088331 	stmdbpl	r8, {r0, r4, r5, r8, r9, pc}
     44c:	23086769 	movwcs	r6, #34665	; 0x8769
     450:	844b6783 	strbhi	r6, [fp], #-1923	; 0x783
     454:	008384bb 			; <UNDEFINED> instruction: 0x008384bb
     458:	06010402 	streq	r0, [r1], -r2, lsl #8
     45c:	2f06f29e 	svccs	0x0006f29e
     460:	834c834b 	movthi	r8, #49995	; 0xc34b
     464:	4a40039f 	bmi	10012e8 <__bss_end__+0xff4fb8>
     468:	4b91082f 	blmi	fe44252c <__bss_end__+0xfe4361fc>
     46c:	0a034d83 	beq	d3a80 <__bss_end__+0xc7750>
     470:	af08a0ba 	svcge	0x0008a0ba
     474:	ad089ff3 	stcge	15, cr9, [r8, #-972]	; 0xfffffc34
     478:	034c834b 	movteq	r8, #49995	; 0xc34b
     47c:	674b2e25 	strbvs	r2, [fp, -r5, lsr #28]
     480:	004bf32f 	subeq	pc, fp, pc, lsr #6
     484:	06010402 	streq	r0, [r1], -r2, lsl #8
     488:	674c064a 	strbvs	r0, [ip, -sl, asr #12]
     48c:	01040200 	mrseq	r0, R12_usr
     490:	4c068206 	sfmmi	f0, 1, [r6], {6}
     494:	4b67834b 	blmi	19e11c8 <__bss_end__+0x19d4e98>
     498:	4b678367 	blmi	19e123c <__bss_end__+0x19d4f0c>
     49c:	9f674b68 	svcls	0x00674b68
     4a0:	9e740383 	cdpls	3, 7, cr0, cr4, cr3, {4}
     4a4:	0331304e 	teqeq	r1, #78	; 0x4e
     4a8:	02004a74 	andeq	r4, r0, #116, 20	; 0x74000
     4ac:	2e060104 	adfcss	f0, f6, f4
     4b0:	02040200 	andeq	r0, r4, #0, 4
     4b4:	1203064a 	andne	r0, r3, #77594624	; 0x4a00000
     4b8:	0383679e 	orreq	r6, r3, #41418752	; 0x2780000
     4bc:	3a032e46 	bcc	cbddc <__bss_end__+0xbfaac>
     4c0:	9f68302e 	svcls	0x0068302e
     4c4:	00674b84 	rsbeq	r4, r7, r4, lsl #23
     4c8:	06010402 	streq	r0, [r1], -r2, lsl #8
     4cc:	99030682 	stmdbls	r3, {r1, r7, r9, sl}
     4d0:	ad084a7f 	vstrge	s8, [r8, #-508]	; 0xfffffe04
     4d4:	034d834b 	movteq	r8, #54091	; 0xd34b
     4d8:	af08ba0c 	svcge	0x0008ba0c
     4dc:	ad089fd7 	stcge	15, cr9, [r8, #-860]	; 0xfffffca4
     4e0:	cf03834b 	svcgt	0x0003834b
     4e4:	834c2e00 	movthi	r2, #52736	; 0xce00
     4e8:	67678384 	strbvs	r8, [r7, -r4, lsl #7]!
     4ec:	2c31a183 	ldfcsd	f2, [r1], #-524	; 0xfffffdf4
     4f0:	00844b49 	addeq	r4, r4, r9, asr #22
     4f4:	46010402 	strmi	r0, [r1], -r2, lsl #8
     4f8:	9f834b50 	svcls	0x00834b50
     4fc:	01040200 	mrseq	r0, R12_usr
     500:	4b066606 	blmi	199d20 <__bss_end__+0x18d9f0>
     504:	83838385 	orrhi	r8, r3, #335544322	; 0x14000002
     508:	6783834b 	strvs	r8, [r3, fp, asr #6]
     50c:	2e53034b 	cdpcs	3, 5, cr0, cr3, cr11, {2}
     510:	4a11034b 	bmi	441244 <__bss_end__+0x434f14>
     514:	1003524e 	andne	r5, r3, lr, asr #4
     518:	004c022e 	subeq	r0, ip, lr, lsr #4
     51c:	016a0101 	cmneq	sl, r1, lsl #2
     520:	00020000 	andeq	r0, r2, r0
     524:	000000df 	ldrdeq	r0, [r0], -pc	; <UNPREDICTABLE>
     528:	0efb0102 	cdpeq	1, 15, cr0, cr11, cr2, {0}
     52c:	0101000d 	tsteq	r1, sp
     530:	00000101 	andeq	r0, r0, r1, lsl #2
     534:	00000100 	andeq	r0, r0, r0, lsl #2
     538:	73752f01 	cmnvc	r5, #1, 30
     53c:	6f6c2f72 	svcvs	0x006c2f72
     540:	2f6c6163 	svccs	0x006c6163
     544:	6c6c6543 	cfstr64vs	mvdx6, [ip], #-268	; 0xfffffef4
     548:	612f7261 	teqvs	pc, r1, ror #4
     54c:	6e2d6d72 	mcrvs	13, 1, r6, cr13, cr2, {3}
     550:	2d656e6f 	stclcs	14, cr6, [r5, #-444]!	; 0xfffffe44
     554:	69626165 	stmdbvs	r2!, {r0, r2, r5, r6, r8, sp, lr}^
     558:	382e342f 	stmdacc	lr!, {r0, r1, r2, r3, r5, sl, ip, sp}
     55c:	632d332e 	teqvs	sp, #-1207959552	; 0xb8000000
     560:	30373173 	eorscc	r3, r7, r3, ror r1
     564:	696c2f65 	stmdbvs	ip!, {r0, r2, r5, r6, r8, r9, sl, fp, sp}^
     568:	63672f62 	cmnvs	r7, #392	; 0x188
     56c:	72612f63 	rsbvc	r2, r1, #396	; 0x18c
     570:	6f6e2d6d 	svcvs	0x006e2d6d
     574:	652d656e 	strvs	r6, [sp, #-1390]!	; 0x56e
     578:	2f696261 	svccs	0x00696261
     57c:	2e382e34 	mrccs	14, 1, r2, cr8, cr4, {1}
     580:	6e692f33 	mcrvs	15, 3, r2, cr9, cr3, {1}
     584:	64756c63 	ldrbtvs	r6, [r5], #-3171	; 0xc63
     588:	552f0065 	strpl	r0, [pc, #-101]!	; 52b <_start-0x7ad5>
     58c:	73726573 	cmnvc	r2, #482344960	; 0x1cc00000
     590:	6972622f 	ldmdbvs	r2!, {r0, r1, r2, r3, r5, r9, sp, lr}^
     594:	756a6e61 	strbvc	r6, [sl, #-3681]!	; 0xe61
     598:	65442f6e 	strbvs	r2, [r4, #-3950]	; 0xf6e
     59c:	6f746b73 	svcvs	0x00746b73
     5a0:	63732f70 	cmnvs	r3, #112, 30	; 0x1c0
     5a4:	6c6f6f68 	stclvs	15, cr6, [pc], #-416	; 40c <_start-0x7bf4>
     5a8:	6e69572f 	cdpvs	7, 6, cr5, cr9, cr15, {1}
     5ac:	31726574 	cmncc	r2, r4, ror r5
     5b0:	2f303239 	svccs	0x00303239
     5b4:	34315343 	ldrtcc	r5, [r1], #-835	; 0x343
     5b8:	632f4530 	teqvs	pc, #48, 10	; 0xc000000
     5bc:	30343173 	eorscc	r3, r4, r3, ror r1
     5c0:	30322d65 	eorscc	r2, r2, r5, ror #26
     5c4:	2f6e6977 	svccs	0x006e6977
     5c8:	7062696c 	rsbvc	r6, r2, ip, ror #18
     5cc:	66000069 	strvs	r0, [r0], -r9, rrx
     5d0:	32337461 	eorscc	r7, r3, #1627389952	; 0x61000000
     5d4:	6c65682d 	stclvs	8, cr6, [r5], #-180	; 0xffffff4c
     5d8:	73726570 	cmnvc	r2, #112, 10	; 0x1c000000
     5dc:	0000632e 	andeq	r6, r0, lr, lsr #6
     5e0:	74730000 	ldrbtvc	r0, [r3], #-0
     5e4:	746e6964 	strbtvc	r6, [lr], #-2404	; 0x964
     5e8:	6363672d 	cmnvs	r3, #11796480	; 0xb40000
     5ec:	0100682e 	tsteq	r0, lr, lsr #16
     5f0:	61660000 	cmnvs	r6, r0
     5f4:	2e323374 	mrccs	3, 1, r3, cr2, cr4, {3}
     5f8:	00000068 	andeq	r0, r0, r8, rrx
     5fc:	69707200 	ldmdbvs	r0!, {r9, ip, sp, lr}^
     600:	0200682e 	andeq	r6, r0, #3014656	; 0x2e0000
     604:	00000000 	andeq	r0, r0, r0
     608:	92e40205 	rscls	r0, r4, #1342177280	; 0x50000000
     60c:	2f170000 	svccs	0x00170000
     610:	01040200 	mrseq	r0, R12_usr
     614:	08069e06 	stmdaeq	r6, {r1, r2, r9, sl, fp, ip, pc}
     618:	80026878 	andhi	r6, r2, r8, ror r8
     61c:	4b4b1504 	blmi	12c5a34 <__bss_end__+0x12b9704>
     620:	4b4b4b4b 	blmi	12d3354 <__bss_end__+0x12c7024>
     624:	4b4b4b4b 	blmi	12d3358 <__bss_end__+0x12c7028>
     628:	4b4b4b4b 	blmi	12d335c <__bss_end__+0x12c702c>
     62c:	4b4b4b4b 	blmi	12d3360 <__bss_end__+0x12c7030>
     630:	4b4b4b4b 	blmi	12d3364 <__bss_end__+0x12c7034>
     634:	4b4b4b4b 	blmi	12d3368 <__bss_end__+0x12c7038>
     638:	4b4b4b4b 	blmi	12d336c <__bss_end__+0x12c703c>
     63c:	4b4b4b4b 	blmi	12d3370 <__bss_end__+0x12c7040>
     640:	4bf25c03 	blmi	ffc97654 <__bss_end__+0xffc8b324>
     644:	022e2503 	eoreq	r2, lr, #12582912	; 0xc00000
     648:	4b13144c 	blmi	4c5780 <__bss_end__+0x4b9450>
     64c:	04020065 	streq	r0, [r2], #-101	; 0x65
     650:	062e0601 	strteq	r0, [lr], -r1, lsl #12
     654:	3030494d 	eorscc	r4, r0, sp, asr #18
     658:	02006767 	andeq	r6, r0, #27000832	; 0x19c0000
     65c:	82060304 	andhi	r0, r6, #4, 6	; 0x10000000
     660:	03040200 	movweq	r0, #16896	; 0x4200
     664:	02004b06 	andeq	r4, r0, #6144	; 0x1800
     668:	00d70304 	sbcseq	r0, r7, r4, lsl #6
     66c:	d7030402 	strle	r0, [r3, -r2, lsl #8]
     670:	03040200 	movweq	r0, #16896	; 0x4200
     674:	040200d7 	streq	r0, [r2], #-215	; 0xd7
     678:	00210803 	eoreq	r0, r1, r3, lsl #16
     67c:	08030402 	stmdaeq	r3, {r1, sl}
     680:	04020059 	streq	r0, [r2], #-89	; 0x59
     684:	029e0601 	addseq	r0, lr, #1048576	; 0x100000
     688:	01010026 	tsteq	r1, r6, lsr #32
     68c:	00000110 	andeq	r0, r0, r0, lsl r1
     690:	00d00002 	sbcseq	r0, r0, r2
     694:	01020000 	mrseq	r0, (UNDEF: 2)
     698:	000d0efb 	strdeq	r0, [sp], -fp
     69c:	01010101 	tsteq	r1, r1, lsl #2
     6a0:	01000000 	mrseq	r0, (UNDEF: 0)
     6a4:	6c010000 	stcvs	0, cr0, [r1], {-0}
     6a8:	00636269 	rsbeq	r6, r3, r9, ror #4
     6ac:	7273752f 	rsbsvc	r7, r3, #197132288	; 0xbc00000
     6b0:	636f6c2f 	cmnvs	pc, #12032	; 0x2f00
     6b4:	432f6c61 	teqmi	pc, #24832	; 0x6100
     6b8:	616c6c65 	cmnvs	ip, r5, ror #24
     6bc:	72612f72 	rsbvc	r2, r1, #456	; 0x1c8
     6c0:	6f6e2d6d 	svcvs	0x006e2d6d
     6c4:	652d656e 	strvs	r6, [sp, #-1390]!	; 0x56e
     6c8:	2f696261 	svccs	0x00696261
     6cc:	2e382e34 	mrccs	14, 1, r2, cr8, cr4, {1}
     6d0:	73632d33 	cmnvc	r3, #3264	; 0xcc0
     6d4:	65303731 	ldrvs	r3, [r0, #-1841]!	; 0x731
     6d8:	62696c2f 	rsbvs	r6, r9, #12032	; 0x2f00
     6dc:	6363672f 	cmnvs	r3, #12320768	; 0xbc0000
     6e0:	6d72612f 	ldfvse	f6, [r2, #-188]!	; 0xffffff44
     6e4:	6e6f6e2d 	cdpvs	14, 6, cr6, cr15, cr13, {1}
     6e8:	61652d65 	cmnvs	r5, r5, ror #26
     6ec:	342f6962 	strtcc	r6, [pc], #-2402	; 6f4 <_start-0x790c>
     6f0:	332e382e 	teqcc	lr, #3014656	; 0x2e0000
     6f4:	636e692f 	cmnvs	lr, #770048	; 0xbc000
     6f8:	6564756c 	strbvs	r7, [r4, #-1388]!	; 0x56c
     6fc:	73752f00 	cmnvc	r5, #0, 30
     700:	6f6c2f72 	svcvs	0x006c2f72
     704:	2f6c6163 	svccs	0x006c6163
     708:	6c6c6543 	cfstr64vs	mvdx6, [ip], #-268	; 0xfffffef4
     70c:	612f7261 	teqvs	pc, r1, ror #4
     710:	6e2d6d72 	mcrvs	13, 1, r6, cr13, cr2, {3}
     714:	2d656e6f 	stclcs	14, cr6, [r5, #-444]!	; 0xfffffe44
     718:	69626165 	stmdbvs	r2!, {r0, r2, r5, r6, r8, sp, lr}^
     71c:	382e342f 	stmdacc	lr!, {r0, r1, r2, r3, r5, sl, ip, sp}
     720:	632d332e 	teqvs	sp, #-1207959552	; 0xb8000000
     724:	30373173 	eorscc	r3, r7, r3, ror r1
     728:	72612f65 	rsbvc	r2, r1, #404	; 0x194
     72c:	6f6e2d6d 	svcvs	0x006e2d6d
     730:	652d656e 	strvs	r6, [sp, #-1390]!	; 0x56e
     734:	2f696261 	svccs	0x00696261
     738:	6c636e69 	stclvs	14, cr6, [r3], #-420	; 0xfffffe5c
     73c:	00656475 	rsbeq	r6, r5, r5, ror r4
     740:	6d656d00 	stclvs	13, cr6, [r5, #-0]
     744:	2e797063 	cdpcs	0, 7, cr7, cr9, cr3, {3}
     748:	00010063 	andeq	r0, r1, r3, rrx
     74c:	64747300 	ldrbtvs	r7, [r4], #-768	; 0x300
     750:	2e666564 	cdpcs	5, 6, cr6, cr6, cr4, {3}
     754:	00020068 	andeq	r0, r2, r8, rrx
     758:	72747300 	rsbsvc	r7, r4, #0, 6
     75c:	2e676e69 	cdpcs	14, 6, cr6, cr7, cr9, {3}
     760:	00030068 	andeq	r0, r3, r8, rrx
     764:	05000000 	streq	r0, [r0, #-0]
     768:	009a7002 	addseq	r7, sl, r2
     76c:	00171700 	andseq	r1, r7, r0, lsl #14
     770:	06010402 	streq	r0, [r1], -r2, lsl #8
     774:	3283064a 	addcc	r0, r3, #77594624	; 0x4a00000
     778:	02040200 	andeq	r0, r4, #0, 4
     77c:	0402004b 	streq	r0, [r2], #-75	; 0x4b
     780:	02004902 	andeq	r4, r0, #32768	; 0x8000
     784:	2e060104 	adfcss	f0, f6, f4
     788:	02040200 	andeq	r0, r4, #0, 4
     78c:	02006c06 	andeq	r6, r0, #1536	; 0x600
     790:	00490204 	subeq	r0, r9, r4, lsl #4
     794:	06010402 	streq	r0, [r1], -r2, lsl #8
     798:	024e06d6 	subeq	r0, lr, #224395264	; 0xd600000
     79c:	01010002 	tsteq	r1, r2
     7a0:	00000102 	andeq	r0, r0, r2, lsl #2
     7a4:	00eb0002 	rsceq	r0, fp, r2
     7a8:	01020000 	mrseq	r0, (UNDEF: 2)
     7ac:	000d0efb 	strdeq	r0, [sp], -fp
     7b0:	01010101 	tsteq	r1, r1, lsl #2
     7b4:	01000000 	mrseq	r0, (UNDEF: 0)
     7b8:	6c010000 	stcvs	0, cr0, [r1], {-0}
     7bc:	00636269 	rsbeq	r6, r3, r9, ror #4
     7c0:	7273752f 	rsbsvc	r7, r3, #197132288	; 0xbc00000
     7c4:	636f6c2f 	cmnvs	pc, #12032	; 0x2f00
     7c8:	432f6c61 	teqmi	pc, #24832	; 0x6100
     7cc:	616c6c65 	cmnvs	ip, r5, ror #24
     7d0:	72612f72 	rsbvc	r2, r1, #456	; 0x1c8
     7d4:	6f6e2d6d 	svcvs	0x006e2d6d
     7d8:	652d656e 	strvs	r6, [sp, #-1390]!	; 0x56e
     7dc:	2f696261 	svccs	0x00696261
     7e0:	2e382e34 	mrccs	14, 1, r2, cr8, cr4, {1}
     7e4:	73632d33 	cmnvc	r3, #3264	; 0xcc0
     7e8:	65303731 	ldrvs	r3, [r0, #-1841]!	; 0x731
     7ec:	62696c2f 	rsbvs	r6, r9, #12032	; 0x2f00
     7f0:	6363672f 	cmnvs	r3, #12320768	; 0xbc0000
     7f4:	6d72612f 	ldfvse	f6, [r2, #-188]!	; 0xffffff44
     7f8:	6e6f6e2d 	cdpvs	14, 6, cr6, cr15, cr13, {1}
     7fc:	61652d65 	cmnvs	r5, r5, ror #26
     800:	342f6962 	strtcc	r6, [pc], #-2402	; 808 <_start-0x77f8>
     804:	332e382e 	teqcc	lr, #3014656	; 0x2e0000
     808:	636e692f 	cmnvs	lr, #770048	; 0xbc000
     80c:	6564756c 	strbvs	r7, [r4, #-1388]!	; 0x56c
     810:	73552f00 	cmpvc	r5, #0, 30
     814:	2f737265 	svccs	0x00737265
     818:	61697262 	cmnvs	r9, r2, ror #4
     81c:	6e756a6e 	vsubvs.f32	s13, s10, s29
     820:	7365442f 	cmnvc	r5, #788529152	; 0x2f000000
     824:	706f746b 	rsbvc	r7, pc, fp, ror #8
     828:	6863732f 	stmdavs	r3!, {r0, r1, r2, r3, r5, r8, r9, ip, sp, lr}^
     82c:	2f6c6f6f 	svccs	0x006c6f6f
     830:	746e6957 	strbtvc	r6, [lr], #-2391	; 0x957
     834:	39317265 	ldmdbcc	r1!, {r0, r2, r5, r6, r9, ip, sp, lr}
     838:	432f3032 	teqmi	pc, #50	; 0x32
     83c:	30343153 	eorscc	r3, r4, r3, asr r1
     840:	73632f45 	cmnvc	r3, #276	; 0x114
     844:	65303431 	ldrvs	r3, [r0, #-1073]!	; 0x431
     848:	7730322d 	ldrvc	r3, [r0, -sp, lsr #4]!
     84c:	6c2f6e69 	stcvs	14, cr6, [pc], #-420	; 6b0 <_start-0x7950>
     850:	69706269 	ldmdbvs	r0!, {r0, r3, r5, r6, r9, sp, lr}^
     854:	72700000 	rsbsvc	r0, r0, #0
     858:	6b746e69 	blvs	1d1c204 <__bss_end__+0x1d0fed4>
     85c:	0100632e 	tsteq	r0, lr, lsr #6
     860:	74730000 	ldrbtvc	r0, [r3], #-0
     864:	67726164 	ldrbvs	r6, [r2, -r4, ror #2]!
     868:	0200682e 	andeq	r6, r0, #3014656	; 0x2e0000
     86c:	623c0000 	eorsvs	r0, ip, #0
     870:	746c6975 	strbtvc	r6, [ip], #-2421	; 0x975
     874:	3e6e692d 	cdpcc	9, 6, cr6, cr14, cr13, {1}
     878:	00000000 	andeq	r0, r0, r0
     87c:	2e697072 	mcrcs	0, 3, r7, cr9, cr2, {3}
     880:	00030068 	andeq	r0, r3, r8, rrx
     884:	2d617600 	stclcs	6, cr7, [r1, #-0]
     888:	6e697270 	mcrvs	2, 3, r7, cr9, cr0, {3}
     88c:	682e6b74 	stmdavs	lr!, {r2, r4, r5, r6, r8, r9, fp, sp, lr}
     890:	00000100 	andeq	r0, r0, r0, lsl #2
     894:	02050000 	andeq	r0, r5, #0
     898:	00009adc 	ldrdeq	r9, [r0], -ip
     89c:	bf4b6b17 	svclt	0x004b6b17
     8a0:	000e0289 	andeq	r0, lr, r9, lsl #5
     8a4:	008a0101 	addeq	r0, sl, r1, lsl #2
     8a8:	00020000 	andeq	r0, r2, r0
     8ac:	00000072 	andeq	r0, r0, r2, ror r0
     8b0:	0efb0102 	cdpeq	1, 15, cr0, cr11, cr2, {0}
     8b4:	0101000d 	tsteq	r1, sp
     8b8:	00000101 	andeq	r0, r0, r1, lsl #2
     8bc:	00000100 	andeq	r0, r0, r0, lsl #2
     8c0:	62696c01 	rsbvs	r6, r9, #256	; 0x100
     8c4:	552f0063 	strpl	r0, [pc, #-99]!	; 869 <_start-0x7797>
     8c8:	73726573 	cmnvc	r2, #482344960	; 0x1cc00000
     8cc:	6972622f 	ldmdbvs	r2!, {r0, r1, r2, r3, r5, r9, sp, lr}^
     8d0:	756a6e61 	strbvc	r6, [sl, #-3681]!	; 0xe61
     8d4:	65442f6e 	strbvs	r2, [r4, #-3950]	; 0xf6e
     8d8:	6f746b73 	svcvs	0x00746b73
     8dc:	63732f70 	cmnvs	r3, #112, 30	; 0x1c0
     8e0:	6c6f6f68 	stclvs	15, cr6, [pc], #-416	; 748 <_start-0x78b8>
     8e4:	6e69572f 	cdpvs	7, 6, cr5, cr9, cr15, {1}
     8e8:	31726574 	cmncc	r2, r4, ror r5
     8ec:	2f303239 	svccs	0x00303239
     8f0:	34315343 	ldrtcc	r5, [r1], #-835	; 0x343
     8f4:	632f4530 	teqvs	pc, #48, 10	; 0xc000000
     8f8:	30343173 	eorscc	r3, r4, r3, ror r1
     8fc:	30322d65 	eorscc	r2, r2, r5, ror #26
     900:	2f6e6977 	svccs	0x006e6977
     904:	7062696c 	rsbvc	r6, r2, ip, ror #18
     908:	70000069 	andvc	r0, r0, r9, rrx
     90c:	68637475 	stmdavs	r3!, {r0, r2, r4, r5, r6, sl, ip, sp, lr}^
     910:	632e7261 	teqvs	lr, #268435462	; 0x10000006
     914:	00000100 	andeq	r0, r0, r0, lsl #2
     918:	2e697072 	mcrcs	0, 3, r7, cr9, cr2, {3}
     91c:	00020068 	andeq	r0, r2, r8, rrx
     920:	05000000 	streq	r0, [r0, #-0]
     924:	009b3402 	addseq	r3, fp, r2, lsl #8
     928:	6b4a1400 	blvs	1285930 <__bss_end__+0x1279600>
     92c:	0213bc13 	andseq	fp, r3, #4864	; 0x1300
     930:	01010008 	tsteq	r1, r8
     934:	00000096 	muleq	r0, r6, r0
     938:	006f0002 	rsbeq	r0, pc, r2
     93c:	01020000 	mrseq	r0, (UNDEF: 2)
     940:	000d0efb 	strdeq	r0, [sp], -fp
     944:	01010101 	tsteq	r1, r1, lsl #2
     948:	01000000 	mrseq	r0, (UNDEF: 0)
     94c:	6c010000 	stcvs	0, cr0, [r1], {-0}
     950:	00636269 	rsbeq	r6, r3, r9, ror #4
     954:	6573552f 	ldrbvs	r5, [r3, #-1327]!	; 0x52f
     958:	622f7372 	eorvs	r7, pc, #-939524095	; 0xc8000001
     95c:	6e616972 	mcrvs	9, 3, r6, cr1, cr2, {3}
     960:	2f6e756a 	svccs	0x006e756a
     964:	6b736544 	blvs	1cd9e7c <__bss_end__+0x1ccdb4c>
     968:	2f706f74 	svccs	0x00706f74
     96c:	6f686373 	svcvs	0x00686373
     970:	572f6c6f 	strpl	r6, [pc, -pc, ror #24]!
     974:	65746e69 	ldrbvs	r6, [r4, #-3689]!	; 0xe69
     978:	32393172 	eorscc	r3, r9, #-2147483620	; 0x8000001c
     97c:	53432f30 	movtpl	r2, #16176	; 0x3f30
     980:	45303431 	ldrmi	r3, [r0, #-1073]!	; 0x431
     984:	3173632f 	cmncc	r3, pc, lsr #6
     988:	2d653034 	stclcs	0, cr3, [r5, #-208]!	; 0xffffff30
     98c:	69773032 	ldmdbvs	r7!, {r1, r4, r5, ip, sp}^
     990:	696c2f6e 	stmdbvs	ip!, {r1, r2, r3, r5, r6, r8, r9, sl, fp, sp}^
     994:	00697062 	rsbeq	r7, r9, r2, rrx
     998:	74757000 	ldrbtvc	r7, [r5], #-0
     99c:	00632e6b 	rsbeq	r2, r3, fp, ror #28
     9a0:	72000001 	andvc	r0, r0, #1
     9a4:	682e6970 	stmdavs	lr!, {r4, r5, r6, r8, fp, sp, lr}
     9a8:	00000200 	andeq	r0, r0, r0, lsl #4
     9ac:	02050000 	andeq	r0, r5, #0
     9b0:	00009b70 	andeq	r9, r0, r0, ror fp
     9b4:	002d4c15 	eoreq	r4, sp, r5, lsl ip
     9b8:	2f020402 	svccs	0x00020402
     9bc:	02040200 	andeq	r0, r4, #0, 4
     9c0:	04020049 	streq	r0, [r2], #-73	; 0x49
     9c4:	062e0601 	strteq	r0, [lr], -r1, lsl #12
     9c8:	0006026b 	andeq	r0, r6, fp, ror #4
     9cc:	00880101 	addeq	r0, r8, r1, lsl #2
     9d0:	00020000 	andeq	r0, r2, r0
     9d4:	00000073 	andeq	r0, r0, r3, ror r0
     9d8:	0efb0102 	cdpeq	1, 15, cr0, cr11, cr2, {0}
     9dc:	0101000d 	tsteq	r1, sp
     9e0:	00000101 	andeq	r0, r0, r1, lsl #2
     9e4:	00000100 	andeq	r0, r0, r0, lsl #2
     9e8:	62696c01 	rsbvs	r6, r9, #256	; 0x100
     9ec:	552f0063 	strpl	r0, [pc, #-99]!	; 991 <_start-0x766f>
     9f0:	73726573 	cmnvc	r2, #482344960	; 0x1cc00000
     9f4:	6972622f 	ldmdbvs	r2!, {r0, r1, r2, r3, r5, r9, sp, lr}^
     9f8:	756a6e61 	strbvc	r6, [sl, #-3681]!	; 0xe61
     9fc:	65442f6e 	strbvs	r2, [r4, #-3950]	; 0xf6e
     a00:	6f746b73 	svcvs	0x00746b73
     a04:	63732f70 	cmnvs	r3, #112, 30	; 0x1c0
     a08:	6c6f6f68 	stclvs	15, cr6, [pc], #-416	; 870 <_start-0x7790>
     a0c:	6e69572f 	cdpvs	7, 6, cr5, cr9, cr15, {1}
     a10:	31726574 	cmncc	r2, r4, ror r5
     a14:	2f303239 	svccs	0x00303239
     a18:	34315343 	ldrtcc	r5, [r1], #-835	; 0x343
     a1c:	632f4530 	teqvs	pc, #48, 10	; 0xc000000
     a20:	30343173 	eorscc	r3, r4, r3, ror r1
     a24:	30322d65 	eorscc	r2, r2, r5, ror #26
     a28:	2f6e6977 	svccs	0x006e6977
     a2c:	7062696c 	rsbvc	r6, r2, ip, ror #18
     a30:	75000069 	strvc	r0, [r0, #-105]	; 0x69
     a34:	2d747261 	lfmcs	f7, 2, [r4, #-388]!	; 0xfffffe7c
     a38:	2e786568 	cdpcs	5, 7, cr6, cr8, cr8, {3}
     a3c:	00010063 	andeq	r0, r1, r3, rrx
     a40:	69707200 	ldmdbvs	r0!, {r9, ip, sp, lr}^
     a44:	0200682e 	andeq	r6, r0, #3014656	; 0x2e0000
     a48:	00000000 	andeq	r0, r0, r0
     a4c:	9ba40205 	blls	fe901268 <__bss_end__+0xfe8f4f38>
     a50:	4b150000 	blmi	540a58 <__bss_end__+0x534728>
     a54:	0006024c 	andeq	r0, r6, ip, asr #4
     a58:	01de0101 	bicseq	r0, lr, r1, lsl #2
     a5c:	00020000 	andeq	r0, r2, r0
     a60:	000000df 	ldrdeq	r0, [r0], -pc	; <UNPREDICTABLE>
     a64:	0efb0102 	cdpeq	1, 15, cr0, cr11, cr2, {0}
     a68:	0101000d 	tsteq	r1, sp
     a6c:	00000101 	andeq	r0, r0, r1, lsl #2
     a70:	00000100 	andeq	r0, r0, r0, lsl #2
     a74:	62696c01 	rsbvs	r6, r9, #256	; 0x100
     a78:	752f0063 	strvc	r0, [pc, #-99]!	; a1d <_start-0x75e3>
     a7c:	6c2f7273 	sfmvs	f7, 4, [pc], #-460	; 8b8 <_start-0x7748>
     a80:	6c61636f 	stclvs	3, cr6, [r1], #-444	; 0xfffffe44
     a84:	6c65432f 	stclvs	3, cr4, [r5], #-188	; 0xffffff44
     a88:	2f72616c 	svccs	0x0072616c
     a8c:	2d6d7261 	sfmcs	f7, 2, [sp, #-388]!	; 0xfffffe7c
     a90:	656e6f6e 	strbvs	r6, [lr, #-3950]!	; 0xf6e
     a94:	6261652d 	rsbvs	r6, r1, #188743680	; 0xb400000
     a98:	2e342f69 	cdpcs	15, 3, cr2, cr4, cr9, {3}
     a9c:	2d332e38 	ldccs	14, cr2, [r3, #-224]!	; 0xffffff20
     aa0:	37317363 	ldrcc	r7, [r1, -r3, ror #6]!
     aa4:	6c2f6530 	cfstr32vs	mvfx6, [pc], #-192	; 9ec <_start-0x7614>
     aa8:	672f6269 	strvs	r6, [pc, -r9, ror #4]!
     aac:	612f6363 	teqvs	pc, r3, ror #6
     ab0:	6e2d6d72 	mcrvs	13, 1, r6, cr13, cr2, {3}
     ab4:	2d656e6f 	stclcs	14, cr6, [r5, #-444]!	; 0xfffffe44
     ab8:	69626165 	stmdbvs	r2!, {r0, r2, r5, r6, r8, sp, lr}^
     abc:	382e342f 	stmdacc	lr!, {r0, r1, r2, r3, r5, sl, ip, sp}
     ac0:	692f332e 	stmdbvs	pc!, {r1, r2, r3, r5, r8, r9, ip, sp}	; <UNPREDICTABLE>
     ac4:	756c636e 	strbvc	r6, [ip, #-878]!	; 0x36e
     ac8:	2f006564 	svccs	0x00006564
     acc:	72657355 	rsbvc	r7, r5, #1409286145	; 0x54000001
     ad0:	72622f73 	rsbvc	r2, r2, #460	; 0x1cc
     ad4:	6a6e6169 	bvs	1b99080 <__bss_end__+0x1b8cd50>
     ad8:	442f6e75 	strtmi	r6, [pc], #-3701	; ae0 <_start-0x7520>
     adc:	746b7365 	strbtvc	r7, [fp], #-869	; 0x365
     ae0:	732f706f 	teqvc	pc, #111	; 0x6f
     ae4:	6f6f6863 	svcvs	0x006f6863
     ae8:	69572f6c 	ldmdbvs	r7, {r2, r3, r5, r6, r8, r9, sl, fp, sp}^
     aec:	7265746e 	rsbvc	r7, r5, #1845493760	; 0x6e000000
     af0:	30323931 	eorscc	r3, r2, r1, lsr r9
     af4:	3153432f 	cmpcc	r3, pc, lsr #6
     af8:	2f453034 	svccs	0x00453034
     afc:	34317363 	ldrtcc	r7, [r1], #-867	; 0x363
     b00:	322d6530 	eorcc	r6, sp, #48, 10	; 0xc000000
     b04:	6e697730 	mcrvs	7, 3, r7, cr9, cr0, {1}
     b08:	62696c2f 	rsbvs	r6, r9, #12032	; 0x2f00
     b0c:	00006970 	andeq	r6, r0, r0, ror r9
     b10:	702d6176 	eorvc	r6, sp, r6, ror r1
     b14:	746e6972 	strbtvc	r6, [lr], #-2418	; 0x972
     b18:	00632e6b 	rsbeq	r2, r3, fp, ror #28
     b1c:	73000001 	movwvc	r0, #1
     b20:	72616474 	rsbvc	r6, r1, #116, 8	; 0x74000000
     b24:	00682e67 	rsbeq	r2, r8, r7, ror #28
     b28:	72000002 	andvc	r0, r0, #2
     b2c:	682e6970 	stmdavs	lr!, {r4, r5, r6, r8, fp, sp, lr}
     b30:	00000300 	andeq	r0, r0, r0, lsl #6
     b34:	6975623c 	ldmdbvs	r5!, {r2, r3, r4, r5, r9, sp, lr}^
     b38:	692d746c 	pushvs	{r2, r3, r5, r6, sl, ip, sp, lr}
     b3c:	00003e6e 	andeq	r3, r0, lr, ror #28
     b40:	00000000 	andeq	r0, r0, r0
     b44:	9bc00205 	blls	ff001360 <__bss_end__+0xfeff5030>
     b48:	26030000 	strcs	r0, [r3], -r0
     b4c:	13a50101 			; <UNDEFINED> instruction: 0x13a50101
     b50:	02002d31 	andeq	r2, r0, #3136	; 0xc40
     b54:	002f0204 	eoreq	r0, pc, r4, lsl #4
     b58:	2d020402 	cfstrscs	mvf0, [r2, #-8]
     b5c:	02040200 	andeq	r0, r4, #0, 4
     b60:	0402002f 	streq	r0, [r2], #-47	; 0x2f
     b64:	4c4c2d01 	mcrrmi	13, 0, r2, ip, cr1
     b68:	2f4b1430 	svccs	0x004b1430
     b6c:	0402004f 	streq	r0, [r2], #-79	; 0x4f
     b70:	02006702 	andeq	r6, r0, #524288	; 0x80000
     b74:	4c650104 	stfmie	f0, [r5], #-16
     b78:	2fa0304d 	svccs	0x00a0304d
     b7c:	26023031 			; <UNDEFINED> instruction: 0x26023031
     b80:	2c2d8416 	cfstrscs	mvf8, [sp], #-88	; 0xffffffa8
     b84:	01040200 	mrseq	r0, R12_usr
     b88:	04020030 	streq	r0, [r2], #-48	; 0x30
     b8c:	66063301 	strvs	r3, [r6], -r1, lsl #6
     b90:	01040200 	mrseq	r0, R12_usr
     b94:	0402002e 	streq	r0, [r2], #-46	; 0x2e
     b98:	21080601 	tstcs	r8, r1, lsl #12
     b9c:	73032f67 	movwvc	r2, #16231	; 0x3f67
     ba0:	2e130382 	cdpcs	3, 1, cr0, cr3, cr2, {4}
     ba4:	01040200 	mrseq	r0, R12_usr
     ba8:	02002e06 	andeq	r2, r0, #6, 28	; 0x60
     bac:	9f060104 	svcls	0x00060104
     bb0:	67034b6a 	strvs	r4, [r3, -sl, ror #22]
     bb4:	2e21032e 	cdpcs	3, 2, cr0, cr1, cr14, {1}
     bb8:	01040200 	mrseq	r0, R12_usr
     bbc:	02002e06 	andeq	r2, r0, #6, 28	; 0x60
     bc0:	9f060104 	svcls	0x00060104
     bc4:	01040200 	mrseq	r0, R12_usr
     bc8:	03f3d96a 	mvnseq	sp, #1736704	; 0x1a8000
     bcc:	20087fa6 	andcs	r7, r8, r6, lsr #31
     bd0:	0402002f 	streq	r0, [r2], #-47	; 0x2f
     bd4:	064a0601 	strbeq	r0, [sl], -r1, lsl #12
     bd8:	032f4bd7 	teqeq	pc, #220160	; 0x35c00
     bdc:	83f200da 	mvnshi	r0, #218	; 0xda
     be0:	0e03484c 	cdpeq	8, 0, cr4, cr3, cr12, {2}
     be4:	2e75032e 	cdpcs	3, 7, cr0, cr5, cr14, {1}
     be8:	4b842f2f 	blmi	fe10c8ac <__bss_end__+0xfe10057c>
     bec:	314d2d2f 	cmpcc	sp, pc, lsr #26
     bf0:	00832f30 	addeq	r2, r3, r0, lsr pc
     bf4:	2c010402 	cfstrscs	mvf0, [r1], {2}
     bf8:	040200a2 	streq	r0, [r2], #-162	; 0xa2
     bfc:	064a0601 	strbeq	r0, [sl], -r1, lsl #12
     c00:	163602d8 			; <UNDEFINED> instruction: 0x163602d8
     c04:	08d60e03 	ldmeq	r6, {r0, r1, r9, sl, fp}^
     c08:	31f33021 	mvnscc	r3, r1, lsr #32
     c0c:	30f330f3 	ldrshtcc	r3, [r3], #3
     c10:	30f3304b 	rscscc	r3, r3, fp, asr #32
     c14:	2f312308 	svccs	0x00312308
     c18:	01040200 	mrseq	r0, R12_usr
     c1c:	04020065 	streq	r0, [r2], #-101	; 0x65
     c20:	004a0602 	subeq	r0, sl, r2, lsl #12
     c24:	06010402 	streq	r0, [r1], -r2, lsl #8
     c28:	00664203 	rsbeq	r4, r6, r3, lsl #4
     c2c:	06020402 	streq	r0, [r2], -r2, lsl #8
     c30:	c2030666 	andgt	r0, r3, #106954752	; 0x6600000
     c34:	02684a00 	rsbeq	r4, r8, #0, 20
     c38:	01010010 	tsteq	r1, r0, lsl r0
     c3c:	00000093 	muleq	r0, r3, r0
     c40:	007d0002 	rsbseq	r0, sp, r2
     c44:	01020000 	mrseq	r0, (UNDEF: 2)
     c48:	000d0efb 	strdeq	r0, [sp], -fp
     c4c:	01010101 	tsteq	r1, r1, lsl #2
     c50:	01000000 	mrseq	r0, (UNDEF: 0)
     c54:	63010000 	movwvs	r0, #4096	; 0x1000
     c58:	30343173 	eorscc	r3, r4, r3, ror r1
     c5c:	72732d65 	rsbsvc	r2, r3, #6464	; 0x1940
     c60:	552f0063 	strpl	r0, [pc, #-99]!	; c05 <_start-0x73fb>
     c64:	73726573 	cmnvc	r2, #482344960	; 0x1cc00000
     c68:	6972622f 	ldmdbvs	r2!, {r0, r1, r2, r3, r5, r9, sp, lr}^
     c6c:	756a6e61 	strbvc	r6, [sl, #-3681]!	; 0xe61
     c70:	65442f6e 	strbvs	r2, [r4, #-3950]	; 0xf6e
     c74:	6f746b73 	svcvs	0x00746b73
     c78:	63732f70 	cmnvs	r3, #112, 30	; 0x1c0
     c7c:	6c6f6f68 	stclvs	15, cr6, [pc], #-416	; ae4 <_start-0x751c>
     c80:	6e69572f 	cdpvs	7, 6, cr5, cr9, cr15, {1}
     c84:	31726574 	cmncc	r2, r4, ror r5
     c88:	2f303239 	svccs	0x00303239
     c8c:	34315343 	ldrtcc	r5, [r1], #-835	; 0x343
     c90:	632f4530 	teqvs	pc, #48, 10	; 0xc000000
     c94:	30343173 	eorscc	r3, r4, r3, ror r1
     c98:	30322d65 	eorscc	r2, r2, r5, ror #26
     c9c:	2f6e6977 	svccs	0x006e6977
     ca0:	7062696c 	rsbvc	r6, r2, ip, ror #18
     ca4:	63000069 	movwvs	r0, #105	; 0x69
     ca8:	6e61656c 	cdpvs	5, 6, cr6, cr1, cr12, {3}
     cac:	6265722d 	rsbvs	r7, r5, #-805306366	; 0xd0000002
     cb0:	2e746f6f 	cdpcs	15, 7, cr6, cr4, cr15, {3}
     cb4:	00010063 	andeq	r0, r1, r3, rrx
     cb8:	69707200 	ldmdbvs	r0!, {r9, ip, sp, lr}^
     cbc:	0200682e 	andeq	r6, r0, #3014656	; 0x2e0000
     cc0:	00000000 	andeq	r0, r0, r0
     cc4:	a0b80205 	adcsge	r0, r8, r5, lsl #4
     cc8:	2f150000 	svccs	0x00150000
     ccc:	06024b83 	streq	r4, [r2], -r3, lsl #23
     cd0:	21010100 	mrscs	r0, (UNDEF: 17)
     cd4:	02000001 	andeq	r0, r0, #1
     cd8:	0000f800 	andeq	pc, r0, r0, lsl #16
     cdc:	fb010200 	blx	414e6 <__bss_end__+0x351b6>
     ce0:	01000d0e 	tsteq	r0, lr, lsl #26
     ce4:	00010101 	andeq	r0, r1, r1, lsl #2
     ce8:	00010000 	andeq	r0, r1, r0
     cec:	73630100 	cmnvc	r3, #0, 2
     cf0:	65303431 	ldrvs	r3, [r0, #-1073]!	; 0x431
     cf4:	6372732d 	cmnvs	r2, #-1275068416	; 0xb4000000
     cf8:	73752f00 	cmnvc	r5, #0, 30
     cfc:	6f6c2f72 	svcvs	0x006c2f72
     d00:	2f6c6163 	svccs	0x006c6163
     d04:	6c6c6543 	cfstr64vs	mvdx6, [ip], #-268	; 0xfffffef4
     d08:	612f7261 	teqvs	pc, r1, ror #4
     d0c:	6e2d6d72 	mcrvs	13, 1, r6, cr13, cr2, {3}
     d10:	2d656e6f 	stclcs	14, cr6, [r5, #-444]!	; 0xfffffe44
     d14:	69626165 	stmdbvs	r2!, {r0, r2, r5, r6, r8, sp, lr}^
     d18:	382e342f 	stmdacc	lr!, {r0, r1, r2, r3, r5, sl, ip, sp}
     d1c:	632d332e 	teqvs	sp, #-1207959552	; 0xb8000000
     d20:	30373173 	eorscc	r3, r7, r3, ror r1
     d24:	696c2f65 	stmdbvs	ip!, {r0, r2, r5, r6, r8, r9, sl, fp, sp}^
     d28:	63672f62 	cmnvs	r7, #392	; 0x188
     d2c:	72612f63 	rsbvc	r2, r1, #396	; 0x18c
     d30:	6f6e2d6d 	svcvs	0x006e2d6d
     d34:	652d656e 	strvs	r6, [sp, #-1390]!	; 0x56e
     d38:	2f696261 	svccs	0x00696261
     d3c:	2e382e34 	mrccs	14, 1, r2, cr8, cr4, {1}
     d40:	6e692f33 	mcrvs	15, 3, r2, cr9, cr3, {1}
     d44:	64756c63 	ldrbtvs	r6, [r5], #-3171	; 0xc63
     d48:	552f0065 	strpl	r0, [pc, #-101]!	; ceb <_start-0x7315>
     d4c:	73726573 	cmnvc	r2, #482344960	; 0x1cc00000
     d50:	6972622f 	ldmdbvs	r2!, {r0, r1, r2, r3, r5, r9, sp, lr}^
     d54:	756a6e61 	strbvc	r6, [sl, #-3681]!	; 0xe61
     d58:	65442f6e 	strbvs	r2, [r4, #-3950]	; 0xf6e
     d5c:	6f746b73 	svcvs	0x00746b73
     d60:	63732f70 	cmnvs	r3, #112, 30	; 0x1c0
     d64:	6c6f6f68 	stclvs	15, cr6, [pc], #-416	; bcc <_start-0x7434>
     d68:	6e69572f 	cdpvs	7, 6, cr5, cr9, cr15, {1}
     d6c:	31726574 	cmncc	r2, r4, ror r5
     d70:	2f303239 	svccs	0x00303239
     d74:	34315343 	ldrtcc	r5, [r1], #-835	; 0x343
     d78:	632f4530 	teqvs	pc, #48, 10	; 0xc000000
     d7c:	30343173 	eorscc	r3, r4, r3, ror r1
     d80:	30322d65 	eorscc	r2, r2, r5, ror #26
     d84:	2f6e6977 	svccs	0x006e6977
     d88:	7062696c 	rsbvc	r6, r2, ip, ror #18
     d8c:	63000069 	movwvs	r0, #105	; 0x69
     d90:	72617473 	rsbvc	r7, r1, #1929379840	; 0x73000000
     d94:	00632e74 	rsbeq	r2, r3, r4, ror lr
     d98:	73000001 	movwvc	r0, #1
     d9c:	6e696474 	mcrvs	4, 3, r6, cr9, cr4, {3}
     da0:	63672d74 	cmnvs	r7, #116, 26	; 0x1d00
     da4:	00682e63 	rsbeq	r2, r8, r3, ror #28
     da8:	73000002 	movwvc	r0, #2
     dac:	61752d77 	cmnvs	r5, r7, ror sp
     db0:	682e7472 	stmdavs	lr!, {r1, r4, r5, r6, sl, ip, sp, lr}
     db4:	00000100 	andeq	r0, r0, r0, lsl #2
     db8:	746e6f63 	strbtvc	r6, [lr], #-3939	; 0xf63
     dbc:	2d6c6f72 	stclcs	15, cr6, [ip, #-456]!	; 0xfffffe38
     dc0:	636f6c62 	cmnvs	pc, #25088	; 0x6200
     dc4:	00682e6b 	rsbeq	r2, r8, fp, ror #28
     dc8:	72000001 	andvc	r0, r0, #1
     dcc:	682e6970 	stmdavs	lr!, {r4, r5, r6, r8, fp, sp, lr}
     dd0:	00000300 	andeq	r0, r0, r0, lsl #6
     dd4:	02050000 	andeq	r0, r5, #0
     dd8:	0000a0e0 	andeq	sl, r0, r0, ror #1
     ddc:	68684b17 	stmdavs	r8!, {r0, r1, r2, r4, r8, r9, fp, lr}^
     de0:	2d2f3132 	stfcss	f3, [pc, #-200]!	; d20 <_start-0x72e0>
     de4:	0402002f 	streq	r0, [r2], #-47	; 0x2f
     de8:	2f4f4901 	svccs	0x004f4901
     dec:	8367674b 	cmnhi	r7, #19660800	; 0x12c0000
     df0:	022f4e67 	eoreq	r4, pc, #1648	; 0x670
     df4:	01010010 	tsteq	r1, r0, lsl r0
     df8:	00000099 	muleq	r0, r9, r0
     dfc:	00770002 	rsbseq	r0, r7, r2
     e00:	01020000 	mrseq	r0, (UNDEF: 2)
     e04:	000d0efb 	strdeq	r0, [sp], -fp
     e08:	01010101 	tsteq	r1, r1, lsl #2
     e0c:	01000000 	mrseq	r0, (UNDEF: 0)
     e10:	63010000 	movwvs	r0, #4096	; 0x1000
     e14:	30343173 	eorscc	r3, r4, r3, ror r1
     e18:	72732d65 	rsbsvc	r2, r3, #6464	; 0x1940
     e1c:	552f0063 	strpl	r0, [pc, #-99]!	; dc1 <_start-0x723f>
     e20:	73726573 	cmnvc	r2, #482344960	; 0x1cc00000
     e24:	6972622f 	ldmdbvs	r2!, {r0, r1, r2, r3, r5, r9, sp, lr}^
     e28:	756a6e61 	strbvc	r6, [sl, #-3681]!	; 0xe61
     e2c:	65442f6e 	strbvs	r2, [r4, #-3950]	; 0xf6e
     e30:	6f746b73 	svcvs	0x00746b73
     e34:	63732f70 	cmnvs	r3, #112, 30	; 0x1c0
     e38:	6c6f6f68 	stclvs	15, cr6, [pc], #-416	; ca0 <_start-0x7360>
     e3c:	6e69572f 	cdpvs	7, 6, cr5, cr9, cr15, {1}
     e40:	31726574 	cmncc	r2, r4, ror r5
     e44:	2f303239 	svccs	0x00303239
     e48:	34315343 	ldrtcc	r5, [r1], #-835	; 0x343
     e4c:	632f4530 	teqvs	pc, #48, 10	; 0xc000000
     e50:	30343173 	eorscc	r3, r4, r3, ror r1
     e54:	30322d65 	eorscc	r2, r2, r5, ror #26
     e58:	2f6e6977 	svccs	0x006e6977
     e5c:	7062696c 	rsbvc	r6, r2, ip, ror #18
     e60:	72000069 	andvc	r0, r0, #105	; 0x69
     e64:	6f6f6265 	svcvs	0x006f6265
     e68:	00632e74 	rsbeq	r2, r3, r4, ror lr
     e6c:	72000001 	andvc	r0, r0, #1
     e70:	682e6970 	stmdavs	lr!, {r4, r5, r6, r8, fp, sp, lr}
     e74:	00000200 	andeq	r0, r0, r0, lsl #4
     e78:	02050000 	andeq	r0, r5, #0
     e7c:	0000a190 	muleq	r0, r0, r1
     e80:	14010d03 	strne	r0, [r1], #-3331	; 0xd03
     e84:	15852f31 	strne	r2, [r5, #3889]	; 0xf31
     e88:	2f4d4b2f 	svccs	0x004d4b2f
     e8c:	67523567 	ldrbvs	r3, [r2, -r7, ror #10]
     e90:	01001002 	tsteq	r0, r2
     e94:	0000a301 	andeq	sl, r0, r1, lsl #6
     e98:	76000200 	strvc	r0, [r0], -r0, lsl #4
     e9c:	02000000 	andeq	r0, r0, #0
     ea0:	0d0efb01 	vstreq	d15, [lr, #-4]
     ea4:	01010100 	mrseq	r0, (UNDEF: 17)
     ea8:	00000001 	andeq	r0, r0, r1
     eac:	01000001 	tsteq	r0, r1
     eb0:	34317363 	ldrtcc	r7, [r1], #-867	; 0x363
     eb4:	732d6530 	teqvc	sp, #48, 10	; 0xc000000
     eb8:	2f006372 	svccs	0x00006372
     ebc:	72657355 	rsbvc	r7, r5, #1409286145	; 0x54000001
     ec0:	72622f73 	rsbvc	r2, r2, #460	; 0x1cc
     ec4:	6a6e6169 	bvs	1b99470 <__bss_end__+0x1b8d140>
     ec8:	442f6e75 	strtmi	r6, [pc], #-3701	; ed0 <_start-0x7130>
     ecc:	746b7365 	strbtvc	r7, [fp], #-869	; 0x365
     ed0:	732f706f 	teqvc	pc, #111	; 0x6f
     ed4:	6f6f6863 	svcvs	0x006f6863
     ed8:	69572f6c 	ldmdbvs	r7, {r2, r3, r5, r6, r8, r9, sl, fp, sp}^
     edc:	7265746e 	rsbvc	r7, r5, #1845493760	; 0x6e000000
     ee0:	30323931 	eorscc	r3, r2, r1, lsr r9
     ee4:	3153432f 	cmpcc	r3, pc, lsr #6
     ee8:	2f453034 	svccs	0x00453034
     eec:	34317363 	ldrtcc	r7, [r1], #-867	; 0x363
     ef0:	322d6530 	eorcc	r6, sp, #48, 10	; 0xc000000
     ef4:	6e697730 	mcrvs	7, 3, r7, cr9, cr0, {1}
     ef8:	62696c2f 	rsbvs	r6, r9, #12032	; 0x2f00
     efc:	00006970 	andeq	r6, r0, r0, ror r9
     f00:	656d6974 	strbvs	r6, [sp, #-2420]!	; 0x974
     f04:	00632e72 	rsbeq	r2, r3, r2, ror lr
     f08:	72000001 	andvc	r0, r0, #1
     f0c:	682e6970 	stmdavs	lr!, {r4, r5, r6, r8, fp, sp, lr}
     f10:	00000200 	andeq	r0, r0, r0, lsl #4
     f14:	02050000 	andeq	r0, r5, #0
     f18:	0000a204 	andeq	sl, r0, r4, lsl #4
     f1c:	2d2f1316 	stccs	3, cr1, [pc, #-88]!	; ecc <_start-0x7134>
     f20:	01040200 	mrseq	r0, R12_usr
     f24:	68062e06 	stmdavs	r6, {r1, r2, r9, sl, fp, sp}
     f28:	4d4b2f31 	stclmi	15, cr2, [fp, #-196]	; 0xffffff3c
     f2c:	4b303132 	blmi	c0d3fc <__bss_end__+0xc010cc>
     f30:	2f6a2f4c 	svccs	0x006a2f4c
     f34:	022f842f 	eoreq	r8, pc, #788529152	; 0x2f000000
     f38:	01010008 	tsteq	r1, r8
     f3c:	00000176 	andeq	r0, r0, r6, ror r1
     f40:	01200002 	teqeq	r0, r2
     f44:	01020000 	mrseq	r0, (UNDEF: 2)
     f48:	000d0efb 	strdeq	r0, [sp], -fp
     f4c:	01010101 	tsteq	r1, r1, lsl #2
     f50:	01000000 	mrseq	r0, (UNDEF: 0)
     f54:	6d010000 	stcvs	0, cr0, [r1, #-0]
     f58:	72732d79 	rsbsvc	r2, r3, #7744	; 0x1e40
     f5c:	552f0063 	strpl	r0, [pc, #-99]!	; f01 <_start-0x70ff>
     f60:	73726573 	cmnvc	r2, #482344960	; 0x1cc00000
     f64:	6972622f 	ldmdbvs	r2!, {r0, r1, r2, r3, r5, r9, sp, lr}^
     f68:	756a6e61 	strbvc	r6, [sl, #-3681]!	; 0xe61
     f6c:	65442f6e 	strbvs	r2, [r4, #-3950]	; 0xf6e
     f70:	6f746b73 	svcvs	0x00746b73
     f74:	63732f70 	cmnvs	r3, #112, 30	; 0x1c0
     f78:	6c6f6f68 	stclvs	15, cr6, [pc], #-416	; de0 <_start-0x7220>
     f7c:	6e69572f 	cdpvs	7, 6, cr5, cr9, cr15, {1}
     f80:	31726574 	cmncc	r2, r4, ror r5
     f84:	2f303239 	svccs	0x00303239
     f88:	34315343 	ldrtcc	r5, [r1], #-835	; 0x343
     f8c:	632f4530 	teqvs	pc, #48, 10	; 0xc000000
     f90:	30343173 	eorscc	r3, r4, r3, ror r1
     f94:	30322d65 	eorscc	r2, r2, r5, ror #26
     f98:	2f6e6977 	svccs	0x006e6977
     f9c:	7062696c 	rsbvc	r6, r2, ip, ror #18
     fa0:	752f0069 	strvc	r0, [pc, #-105]!	; f3f <_start-0x70c1>
     fa4:	6c2f7273 	sfmvs	f7, 4, [pc], #-460	; de0 <_start-0x7220>
     fa8:	6c61636f 	stclvs	3, cr6, [r1], #-444	; 0xfffffe44
     fac:	6c65432f 	stclvs	3, cr4, [r5], #-188	; 0xffffff44
     fb0:	2f72616c 	svccs	0x0072616c
     fb4:	2d6d7261 	sfmcs	f7, 2, [sp, #-388]!	; 0xfffffe7c
     fb8:	656e6f6e 	strbvs	r6, [lr, #-3950]!	; 0xf6e
     fbc:	6261652d 	rsbvs	r6, r1, #188743680	; 0xb400000
     fc0:	2e342f69 	cdpcs	15, 3, cr2, cr4, cr9, {3}
     fc4:	2d332e38 	ldccs	14, cr2, [r3, #-224]!	; 0xffffff20
     fc8:	37317363 	ldrcc	r7, [r1, -r3, ror #6]!
     fcc:	6c2f6530 	cfstr32vs	mvfx6, [pc], #-192	; f14 <_start-0x70ec>
     fd0:	672f6269 	strvs	r6, [pc, -r9, ror #4]!
     fd4:	612f6363 	teqvs	pc, r3, ror #6
     fd8:	6e2d6d72 	mcrvs	13, 1, r6, cr13, cr2, {3}
     fdc:	2d656e6f 	stclcs	14, cr6, [r5, #-444]!	; 0xfffffe44
     fe0:	69626165 	stmdbvs	r2!, {r0, r2, r5, r6, r8, sp, lr}^
     fe4:	382e342f 	stmdacc	lr!, {r0, r1, r2, r3, r5, sl, ip, sp}
     fe8:	692f332e 	stmdbvs	pc!, {r1, r2, r3, r5, r8, r9, ip, sp}	; <UNPREDICTABLE>
     fec:	756c636e 	strbvc	r6, [ip, #-878]!	; 0x36e
     ff0:	2f006564 	svccs	0x00006564
     ff4:	2f727375 	svccs	0x00727375
     ff8:	61636f6c 	cmnvs	r3, ip, ror #30
     ffc:	65432f6c 	strbvs	r2, [r3, #-3948]	; 0xf6c
    1000:	72616c6c 	rsbvc	r6, r1, #108, 24	; 0x6c00
    1004:	6d72612f 	ldfvse	f6, [r2, #-188]!	; 0xffffff44
    1008:	6e6f6e2d 	cdpvs	14, 6, cr6, cr15, cr13, {1}
    100c:	61652d65 	cmnvs	r5, r5, ror #26
    1010:	342f6962 	strtcc	r6, [pc], #-2402	; 1018 <_start-0x6fe8>
    1014:	332e382e 	teqcc	lr, #3014656	; 0x2e0000
    1018:	3173632d 	cmncc	r3, sp, lsr #6
    101c:	2f653037 	svccs	0x00653037
    1020:	2d6d7261 	sfmcs	f7, 2, [sp, #-388]!	; 0xfffffe7c
    1024:	656e6f6e 	strbvs	r6, [lr, #-3950]!	; 0xf6e
    1028:	6261652d 	rsbvs	r6, r1, #188743680	; 0xb400000
    102c:	6e692f69 	cdpvs	15, 6, cr2, cr9, cr9, {3}
    1030:	64756c63 	ldrbtvs	r6, [r5], #-3171	; 0xc63
    1034:	6b000065 	blvs	11d0 <_start-0x6e30>
    1038:	6c6c616d 	stfvse	f6, [ip], #-436	; 0xfffffe4c
    103c:	632e636f 	teqvs	lr, #-1140850687	; 0xbc000001
    1040:	00000100 	andeq	r0, r0, r0, lsl #2
    1044:	2e697072 	mcrcs	0, 3, r7, cr9, cr2, {3}
    1048:	00020068 	andeq	r0, r2, r8, rrx
    104c:	64747300 	ldrbtvs	r7, [r4], #-768	; 0x300
    1050:	2e666564 	cdpcs	5, 6, cr6, cr6, cr4, {3}
    1054:	00030068 	andeq	r0, r3, r8, rrx
    1058:	72747300 	rsbsvc	r7, r4, #0, 6
    105c:	2e676e69 	cdpcs	14, 6, cr6, cr7, cr9, {3}
    1060:	00040068 	andeq	r0, r4, r8, rrx
    1064:	05000000 	streq	r0, [r0, #-0]
    1068:	00a28c02 	adceq	r8, r2, r2, lsl #24
    106c:	01180300 	tsteq	r8, r0, lsl #6
    1070:	0402002f 	streq	r0, [r2], #-47	; 0x2f
    1074:	06820601 	streq	r0, [r2], r1, lsl #12
    1078:	834b4bd8 	movthi	r4, #48088	; 0xbbd8
    107c:	002fbe6a 	eoreq	fp, pc, sl, ror #28
    1080:	06010402 	streq	r0, [r1], -r2, lsl #8
    1084:	4bd80682 	blmi	ff602a94 <__bss_end__+0xff5f6764>
    1088:	0402004b 	streq	r0, [r2], #-75	; 0x4b
    108c:	064a0601 	strbeq	r0, [sl], -r1, lsl #12
    1090:	30834bd7 	ldrdcc	r4, [r3], r7
    1094:	ba0a032f 	blt	281d58 <__bss_end__+0x275a28>
    1098:	0402002f 	streq	r0, [r2], #-47	; 0x2f
    109c:	06820601 	streq	r0, [r2], r1, lsl #12
    10a0:	13f967d7 	mvnsne	r6, #56360960	; 0x35c0000
    10a4:	2f8414c2 	svccs	0x008414c2
    10a8:	01040200 	mrseq	r0, R12_usr
    10ac:	d7068206 	strle	r8, [r6, -r6, lsl #4]
    10b0:	000c0267 	andeq	r0, ip, r7, ror #4
    10b4:	03450101 	movteq	r0, #20737	; 0x5101
    10b8:	00020000 	andeq	r0, r2, r0
    10bc:	000001bd 			; <UNDEFINED> instruction: 0x000001bd
    10c0:	0efb0102 	cdpeq	1, 15, cr0, cr11, cr2, {0}
    10c4:	0101000d 	tsteq	r1, sp
    10c8:	00000101 	andeq	r0, r0, r1, lsl #2
    10cc:	00000100 	andeq	r0, r0, r0, lsl #2
    10d0:	2d796d01 	ldclcs	13, cr6, [r9, #-4]!
    10d4:	00637273 	rsbeq	r7, r3, r3, ror r2
    10d8:	6573552f 	ldrbvs	r5, [r3, #-1327]!	; 0x52f
    10dc:	622f7372 	eorvs	r7, pc, #-939524095	; 0xc8000001
    10e0:	6e616972 	mcrvs	9, 3, r6, cr1, cr2, {3}
    10e4:	2f6e756a 	svccs	0x006e756a
    10e8:	6b736544 	blvs	1cda600 <__bss_end__+0x1cce2d0>
    10ec:	2f706f74 	svccs	0x00706f74
    10f0:	6f686373 	svcvs	0x00686373
    10f4:	572f6c6f 	strpl	r6, [pc, -pc, ror #24]!
    10f8:	65746e69 	ldrbvs	r6, [r4, #-3689]!	; 0xe69
    10fc:	32393172 	eorscc	r3, r9, #-2147483620	; 0x8000001c
    1100:	53432f30 	movtpl	r2, #16176	; 0x3f30
    1104:	45303431 	ldrmi	r3, [r0, #-1073]!	; 0x431
    1108:	3173632f 	cmncc	r3, pc, lsr #6
    110c:	2d653034 	stclcs	0, cr3, [r5, #-208]!	; 0xffffff30
    1110:	69773032 	ldmdbvs	r7!, {r1, r4, r5, ip, sp}^
    1114:	696c2f6e 	stmdbvs	ip!, {r1, r2, r3, r5, r6, r8, r9, sl, fp, sp}^
    1118:	2f697062 	svccs	0x00697062
    111c:	34317363 	ldrtcc	r7, [r1], #-867	; 0x363
    1120:	732d6530 	teqvc	sp, #48, 10	; 0xc000000
    1124:	2f006372 	svccs	0x00006372
    1128:	2f727375 	svccs	0x00727375
    112c:	61636f6c 	cmnvs	r3, ip, ror #30
    1130:	65432f6c 	strbvs	r2, [r3, #-3948]	; 0xf6c
    1134:	72616c6c 	rsbvc	r6, r1, #108, 24	; 0x6c00
    1138:	6d72612f 	ldfvse	f6, [r2, #-188]!	; 0xffffff44
    113c:	6e6f6e2d 	cdpvs	14, 6, cr6, cr15, cr13, {1}
    1140:	61652d65 	cmnvs	r5, r5, ror #26
    1144:	342f6962 	strtcc	r6, [pc], #-2402	; 114c <_start-0x6eb4>
    1148:	332e382e 	teqcc	lr, #3014656	; 0x2e0000
    114c:	3173632d 	cmncc	r3, sp, lsr #6
    1150:	2f653037 	svccs	0x00653037
    1154:	2f62696c 	svccs	0x0062696c
    1158:	2f636367 	svccs	0x00636367
    115c:	2d6d7261 	sfmcs	f7, 2, [sp, #-388]!	; 0xfffffe7c
    1160:	656e6f6e 	strbvs	r6, [lr, #-3950]!	; 0xf6e
    1164:	6261652d 	rsbvs	r6, r1, #188743680	; 0xb400000
    1168:	2e342f69 	cdpcs	15, 3, cr2, cr4, cr9, {3}
    116c:	2f332e38 	svccs	0x00332e38
    1170:	6c636e69 	stclvs	14, cr6, [r3], #-420	; 0xfffffe5c
    1174:	00656475 	rsbeq	r6, r5, r5, ror r4
    1178:	6573552f 	ldrbvs	r5, [r3, #-1327]!	; 0x52f
    117c:	622f7372 	eorvs	r7, pc, #-939524095	; 0xc8000001
    1180:	6e616972 	mcrvs	9, 3, r6, cr1, cr2, {3}
    1184:	2f6e756a 	svccs	0x006e756a
    1188:	6b736544 	blvs	1cda6a0 <__bss_end__+0x1cce370>
    118c:	2f706f74 	svccs	0x00706f74
    1190:	6f686373 	svcvs	0x00686373
    1194:	572f6c6f 	strpl	r6, [pc, -pc, ror #24]!
    1198:	65746e69 	ldrbvs	r6, [r4, #-3689]!	; 0xe69
    119c:	32393172 	eorscc	r3, r9, #-2147483620	; 0x8000001c
    11a0:	53432f30 	movtpl	r2, #16176	; 0x3f30
    11a4:	45303431 	ldrmi	r3, [r0, #-1073]!	; 0x431
    11a8:	3173632f 	cmncc	r3, pc, lsr #6
    11ac:	2d653034 	stclcs	0, cr3, [r5, #-208]!	; 0xffffff30
    11b0:	69773032 	ldmdbvs	r7!, {r1, r4, r5, ip, sp}^
    11b4:	696c2f6e 	stmdbvs	ip!, {r1, r2, r3, r5, r6, r8, r9, sl, fp, sp}^
    11b8:	00697062 	rsbeq	r7, r9, r2, rrx
    11bc:	6573552f 	ldrbvs	r5, [r3, #-1327]!	; 0x52f
    11c0:	622f7372 	eorvs	r7, pc, #-939524095	; 0xc8000001
    11c4:	6e616972 	mcrvs	9, 3, r6, cr1, cr2, {3}
    11c8:	2f6e756a 	svccs	0x006e756a
    11cc:	6b736544 	blvs	1cda6e4 <__bss_end__+0x1cce3b4>
    11d0:	2f706f74 	svccs	0x00706f74
    11d4:	6f686373 	svcvs	0x00686373
    11d8:	572f6c6f 	strpl	r6, [pc, -pc, ror #24]!
    11dc:	65746e69 	ldrbvs	r6, [r4, #-3689]!	; 0xe69
    11e0:	32393172 	eorscc	r3, r9, #-2147483620	; 0x8000001c
    11e4:	53432f30 	movtpl	r2, #16176	; 0x3f30
    11e8:	45303431 	ldrmi	r3, [r0, #-1073]!	; 0x431
    11ec:	3173632f 	cmncc	r3, pc, lsr #6
    11f0:	2d653034 	stclcs	0, cr3, [r5, #-208]!	; 0xffffff30
    11f4:	69773032 	ldmdbvs	r7!, {r1, r4, r5, ip, sp}^
    11f8:	696c2f6e 	stmdbvs	ip!, {r1, r2, r3, r5, r6, r8, r9, sl, fp, sp}^
    11fc:	2f697062 	svccs	0x00697062
    1200:	6362696c 	cmnvs	r2, #108, 18	; 0x1b0000
    1204:	77730000 	ldrbvc	r0, [r3, -r0]!
    1208:	7261752d 	rsbvc	r7, r1, #188743680	; 0xb400000
    120c:	00632e74 	rsbeq	r2, r3, r4, ror lr
    1210:	63000001 	movwvs	r0, #1
    1214:	656c6379 	strbvs	r6, [ip, #-889]!	; 0x379
    1218:	6974752d 	ldmdbvs	r4!, {r0, r2, r3, r5, r8, sl, ip, sp, lr}^
    121c:	00682e6c 	rsbeq	r2, r8, ip, ror #28
    1220:	73000002 	movwvc	r0, #2
    1224:	6e696474 	mcrvs	4, 3, r6, cr9, cr4, {3}
    1228:	63672d74 	cmnvs	r7, #116, 26	; 0x1d00
    122c:	00682e63 	rsbeq	r2, r8, r3, ror #28
    1230:	73000003 	movwvc	r0, #3
    1234:	61752d77 	cmnvs	r5, r7, ror sp
    1238:	682e7472 	stmdavs	lr!, {r1, r4, r5, r6, sl, ip, sp, lr}
    123c:	00000200 	andeq	r0, r0, r0, lsl #4
    1240:	61647473 	smcvs	18243	; 0x4743
    1244:	682e6772 	stmdavs	lr!, {r1, r4, r5, r6, r8, r9, sl, sp, lr}
    1248:	00000300 	andeq	r0, r0, r0, lsl #6
    124c:	6f697067 	svcvs	0x00697067
    1250:	0200682e 	andeq	r6, r0, #3014656	; 0x2e0000
    1254:	70720000 	rsbsvc	r0, r2, r0
    1258:	00682e69 	rsbeq	r2, r8, r9, ror #28
    125c:	76000004 	strvc	r0, [r0], -r4
    1260:	72702d61 	rsbsvc	r2, r0, #6208	; 0x1840
    1264:	6b746e69 	blvs	1d1cc10 <__bss_end__+0x1d108e0>
    1268:	0500682e 	streq	r6, [r0, #-2094]	; 0x82e
    126c:	623c0000 	eorsvs	r0, ip, #0
    1270:	746c6975 	strbtvc	r6, [ip], #-2421	; 0x975
    1274:	3e6e692d 	cdpcc	9, 6, cr6, cr14, cr13, {1}
    1278:	00000000 	andeq	r0, r0, r0
    127c:	02050000 	andeq	r0, r5, #0
    1280:	0000a474 	andeq	sl, r0, r4, ror r4
    1284:	302f4c1a 	eorcc	r4, pc, sl, lsl ip	; <UNPREDICTABLE>
    1288:	0b030204 	bleq	c1aa0 <__bss_end__+0xb5770>
    128c:	6673032e 	ldrbtvs	r0, [r3], -lr, lsr #6
    1290:	04880104 	streq	r0, [r8], #260	; 0x104
    1294:	73033502 	movwvc	r3, #13570	; 0x3502
    1298:	8a010466 	bhi	42438 <__bss_end__+0x36108>
    129c:	03330204 	teqeq	r3, #4, 4	; 0x40000000
    12a0:	01046673 	tsteq	r4, r3, ror r6
    12a4:	04820a03 	streq	r0, [r2], #2563	; 0xa03
    12a8:	73033102 	movwvc	r3, #12546	; 0x3102
    12ac:	03010466 	movweq	r0, #5222	; 0x1466
    12b0:	0204820c 	andeq	r8, r4, #12, 4	; 0xc0000000
    12b4:	6673032f 	ldrbtvs	r0, [r3], -pc, lsr #6
    12b8:	0e030104 	adfeqs	f0, f3, f4
    12bc:	2d020482 	cfstrscs	mvf0, [r2, #-520]	; 0xfffffdf8
    12c0:	04667303 	strbteq	r7, [r6], #-771	; 0x303
    12c4:	82100301 	andshi	r0, r0, #67108864	; 0x4000000
    12c8:	032b0204 	teqeq	fp, #4, 4	; 0x40000000
    12cc:	01046673 	tsteq	r4, r3, ror r6
    12d0:	04821203 	streq	r1, [r2], #515	; 0x203
    12d4:	73032902 	movwvc	r2, #14594	; 0x3902
    12d8:	03010466 	movweq	r0, #5222	; 0x1466
    12dc:	02048214 	andeq	r8, r4, #20, 4	; 0x40000001
    12e0:	032e7903 	teqeq	lr, #49152	; 0xc000
    12e4:	01046673 	tsteq	r4, r3, ror r6
    12e8:	04821603 	streq	r1, [r2], #1539	; 0x603
    12ec:	2e770302 	cdpcs	3, 7, cr0, cr7, cr2, {0}
    12f0:	04667303 	strbteq	r7, [r6], #-771	; 0x303
    12f4:	82180301 	andshi	r0, r8, #67108864	; 0x4000000
    12f8:	4b2e1003 	blmi	b8530c <__bss_end__+0xb78fdc>
    12fc:	2e70034d 	cdpcs	3, 7, cr0, cr0, cr13, {2}
    1300:	4883844c 	stmmi	r3, {r2, r3, r6, sl, pc}
    1304:	4e2e0d03 	cdpmi	13, 2, cr0, cr14, cr3, {0}
    1308:	02043331 	andeq	r3, r4, #-1006632960	; 0xc4000000
    130c:	042e4803 	strteq	r4, [lr], #-2051	; 0x803
    1310:	823a0301 	eorshi	r0, sl, #67108864	; 0x4000000
    1314:	0302042f 	movweq	r0, #9263	; 0x242f
    1318:	01046645 	tsteq	r4, r5, asr #12
    131c:	2f823d03 	svccs	0x00823d03
    1320:	42030204 	andmi	r0, r3, #4, 4	; 0x40000000
    1324:	03010482 	movweq	r0, #5250	; 0x1482
    1328:	2f8200c0 	svccs	0x008200c0
    132c:	bf030204 	svclt	0x00030204
    1330:	0104827f 	tsteq	r4, pc, ror r2
    1334:	8200c303 	andhi	ip, r0, #201326592	; 0xc000000
    1338:	0302042f 	movweq	r0, #9263	; 0x242f
    133c:	04827fbc 	streq	r7, [r2], #4028	; 0xfbc
    1340:	00c60301 	sbceq	r0, r6, r1, lsl #6
    1344:	02042f82 	andeq	r2, r4, #520	; 0x208
    1348:	827fb903 	rsbshi	fp, pc, #49152	; 0xc000
    134c:	c9030104 	stmdbgt	r3, {r2, r8}
    1350:	042f8200 	strteq	r8, [pc], #-512	; 1358 <_start-0x6ca8>
    1354:	7fb60302 	svcvc	0x00b60302
    1358:	03010482 	movweq	r0, #5250	; 0x1482
    135c:	2f8200cc 	svccs	0x008200cc
    1360:	b3030204 	movwlt	r0, #12804	; 0x3204
    1364:	0104827f 	tsteq	r4, pc, ror r2
    1368:	8200d003 	andhi	sp, r0, #3
    136c:	4c824c03 	stcmi	12, cr4, [r2], {3}
    1370:	03488384 	movteq	r8, #33668	; 0x8384
    1374:	034e2e36 	movteq	r2, #60982	; 0xee36
    1378:	29034a54 	stmdbcs	r3, {r2, r4, r6, r9, fp, lr}
    137c:	9f34324a 	svcls	0x0034324a
    1380:	01040200 	mrseq	r0, R12_usr
    1384:	d7064a06 	strle	r4, [r6, -r6, lsl #20]
    1388:	2cbb4b4e 	vldmiacs	fp!, {d4-<overflow reg d42>}
    138c:	01040200 	mrseq	r0, R12_usr
    1390:	6d062e06 	stcvs	14, cr2, [r6, #-24]	; 0xffffffe8
    1394:	0084a44c 	addeq	sl, r4, ip, asr #8
    1398:	06010402 	streq	r0, [r1], -r2, lsl #8
    139c:	4dd7064a 	ldclmi	6, cr0, [r7, #296]	; 0x128
    13a0:	02040200 	andeq	r0, r4, #0, 4
    13a4:	0402004b 	streq	r0, [r2], #-75	; 0x4b
    13a8:	02008102 	andeq	r8, r0, #-2147483648	; 0x80000000
    13ac:	2e060104 	adfcss	f0, f6, f4
    13b0:	a54c4d06 	strbge	r4, [ip, #-3334]	; 0xd06
    13b4:	4b4b4bbc 	blmi	12d42ac <__bss_end__+0x12c7f7c>
    13b8:	02002f6a 	andeq	r2, r0, #424	; 0x1a8
    13bc:	82060104 	andhi	r0, r6, #4, 2
    13c0:	04020082 	streq	r0, [r2], #-130	; 0x82
    13c4:	02009e04 	andeq	r9, r0, #4, 28	; 0x40
    13c8:	064a0104 	strbeq	r0, [sl], -r4, lsl #2
    13cc:	2fbd88d9 	svccs	0x00bd88d9
    13d0:	40084b4b 	andmi	r4, r8, fp, asr #22
    13d4:	04020067 	streq	r0, [r2], #-103	; 0x67
    13d8:	02002f02 	andeq	r2, r0, #2, 30
    13dc:	00490204 	subeq	r0, r9, r4, lsl #4
    13e0:	06010402 	streq	r0, [r1], -r2, lsl #8
    13e4:	3468062e 	strbtcc	r0, [r8], #-1582	; 0x62e
    13e8:	00a04b86 	adceq	r4, r0, r6, lsl #23
    13ec:	06010402 	streq	r0, [r1], -r2, lsl #8
    13f0:	68d70666 	ldmvs	r7, {r1, r2, r5, r6, r9, sl}^
    13f4:	674b2208 	strbvs	r2, [fp, -r8, lsl #4]
    13f8:	0a02d84b 	beq	b752c <__bss_end__+0xab1fc>
    13fc:	01010100 	mrseq	r0, (UNDEF: 17)
    1400:	02000001 	andeq	r0, r0, #1
    1404:	0000ca00 	andeq	ip, r0, r0, lsl #20
    1408:	fb010200 	blx	41c12 <__bss_end__+0x358e2>
    140c:	01000d0e 	tsteq	r0, lr, lsl #26
    1410:	00010101 	andeq	r0, r1, r1, lsl #2
    1414:	00010000 	andeq	r0, r1, r0
    1418:	796d0100 	stmdbvc	sp!, {r8}^
    141c:	6372732d 	cmnvs	r2, #-1275068416	; 0xb4000000
    1420:	73552f00 	cmpvc	r5, #0, 30
    1424:	2f737265 	svccs	0x00737265
    1428:	61697262 	cmnvs	r9, r2, ror #4
    142c:	6e756a6e 	vsubvs.f32	s13, s10, s29
    1430:	7365442f 	cmnvc	r5, #788529152	; 0x2f000000
    1434:	706f746b 	rsbvc	r7, pc, fp, ror #8
    1438:	6863732f 	stmdavs	r3!, {r0, r1, r2, r3, r5, r8, r9, ip, sp, lr}^
    143c:	2f6c6f6f 	svccs	0x006c6f6f
    1440:	746e6957 	strbtvc	r6, [lr], #-2391	; 0x957
    1444:	39317265 	ldmdbcc	r1!, {r0, r2, r5, r6, r9, ip, sp, lr}
    1448:	432f3032 	teqmi	pc, #50	; 0x32
    144c:	30343153 	eorscc	r3, r4, r3, asr r1
    1450:	73632f45 	cmnvc	r3, #276	; 0x114
    1454:	65303431 	ldrvs	r3, [r0, #-1073]!	; 0x431
    1458:	7730322d 	ldrvc	r3, [r0, -sp, lsr #4]!
    145c:	6c2f6e69 	stcvs	14, cr6, [pc], #-420	; 12c0 <_start-0x6d40>
    1460:	69706269 	ldmdbvs	r0!, {r0, r3, r5, r6, r9, sp, lr}^
    1464:	3173632f 	cmncc	r3, pc, lsr #6
    1468:	2d653034 	stclcs	0, cr3, [r5, #-208]!	; 0xffffff30
    146c:	00637273 	rsbeq	r7, r3, r3, ror r2
    1470:	6573552f 	ldrbvs	r5, [r3, #-1327]!	; 0x52f
    1474:	622f7372 	eorvs	r7, pc, #-939524095	; 0xc8000001
    1478:	6e616972 	mcrvs	9, 3, r6, cr1, cr2, {3}
    147c:	2f6e756a 	svccs	0x006e756a
    1480:	6b736544 	blvs	1cda998 <__bss_end__+0x1cce668>
    1484:	2f706f74 	svccs	0x00706f74
    1488:	6f686373 	svcvs	0x00686373
    148c:	572f6c6f 	strpl	r6, [pc, -pc, ror #24]!
    1490:	65746e69 	ldrbvs	r6, [r4, #-3689]!	; 0xe69
    1494:	32393172 	eorscc	r3, r9, #-2147483620	; 0x8000001c
    1498:	53432f30 	movtpl	r2, #16176	; 0x3f30
    149c:	45303431 	ldrmi	r3, [r0, #-1073]!	; 0x431
    14a0:	3173632f 	cmncc	r3, pc, lsr #6
    14a4:	2d653034 	stclcs	0, cr3, [r5, #-208]!	; 0xffffff30
    14a8:	69773032 	ldmdbvs	r7!, {r1, r4, r5, ip, sp}^
    14ac:	696c2f6e 	stmdbvs	ip!, {r1, r2, r3, r5, r6, r8, r9, sl, fp, sp}^
    14b0:	00697062 	rsbeq	r7, r9, r2, rrx
    14b4:	72617500 	rsbvc	r7, r1, #0, 10
    14b8:	00632e74 	rsbeq	r2, r3, r4, ror lr
    14bc:	67000001 	strvs	r0, [r0, -r1]
    14c0:	2e6f6970 	mcrcs	9, 3, r6, cr15, cr0, {3}
    14c4:	00020068 	andeq	r0, r2, r8, rrx
    14c8:	69707200 	ldmdbvs	r0!, {r9, ip, sp, lr}^
    14cc:	0300682e 	movweq	r6, #2094	; 0x82e
    14d0:	00000000 	andeq	r0, r0, r0
    14d4:	aa940205 	bge	fe501cf0 <__bss_end__+0xfe4f59c0>
    14d8:	36030000 	strcc	r0, [r3], -r0
    14dc:	67333001 	ldrvs	r3, [r3, -r1]!
    14e0:	30d8306d 	sbcscc	r3, r8, sp, rrx
    14e4:	67676767 	strbvs	r6, [r7, -r7, ror #14]!
    14e8:	2f866867 	svccs	0x00866867
    14ec:	67306a67 	ldrvs	r6, [r0, -r7, ror #20]!
    14f0:	672f6967 	strvs	r6, [pc, -r7, ror #18]!
    14f4:	c1674c6a 	cmngt	r7, sl, ror #24
    14f8:	2f302f2f 	svccs	0x00302f2f
    14fc:	02304968 	eorseq	r4, r0, #104, 18	; 0x1a0000
    1500:	01010002 	tsteq	r1, r2
    1504:	00000178 	andeq	r0, r0, r8, ror r1
    1508:	00ca0002 	sbceq	r0, sl, r2
    150c:	01020000 	mrseq	r0, (UNDEF: 2)
    1510:	000d0efb 	strdeq	r0, [sp], -fp
    1514:	01010101 	tsteq	r1, r1, lsl #2
    1518:	01000000 	mrseq	r0, (UNDEF: 0)
    151c:	6d010000 	stcvs	0, cr0, [r1, #-0]
    1520:	72732d79 	rsbsvc	r2, r3, #7744	; 0x1e40
    1524:	552f0063 	strpl	r0, [pc, #-99]!	; 14c9 <_start-0x6b37>
    1528:	73726573 	cmnvc	r2, #482344960	; 0x1cc00000
    152c:	6972622f 	ldmdbvs	r2!, {r0, r1, r2, r3, r5, r9, sp, lr}^
    1530:	756a6e61 	strbvc	r6, [sl, #-3681]!	; 0xe61
    1534:	65442f6e 	strbvs	r2, [r4, #-3950]	; 0xf6e
    1538:	6f746b73 	svcvs	0x00746b73
    153c:	63732f70 	cmnvs	r3, #112, 30	; 0x1c0
    1540:	6c6f6f68 	stclvs	15, cr6, [pc], #-416	; 13a8 <_start-0x6c58>
    1544:	6e69572f 	cdpvs	7, 6, cr5, cr9, cr15, {1}
    1548:	31726574 	cmncc	r2, r4, ror r5
    154c:	2f303239 	svccs	0x00303239
    1550:	34315343 	ldrtcc	r5, [r1], #-835	; 0x343
    1554:	632f4530 	teqvs	pc, #48, 10	; 0xc000000
    1558:	30343173 	eorscc	r3, r4, r3, ror r1
    155c:	30322d65 	eorscc	r2, r2, r5, ror #26
    1560:	2f6e6977 	svccs	0x006e6977
    1564:	7062696c 	rsbvc	r6, r2, ip, ror #18
    1568:	73632f69 	cmnvc	r3, #420	; 0x1a4
    156c:	65303431 	ldrvs	r3, [r0, #-1073]!	; 0x431
    1570:	6372732d 	cmnvs	r2, #-1275068416	; 0xb4000000
    1574:	73552f00 	cmpvc	r5, #0, 30
    1578:	2f737265 	svccs	0x00737265
    157c:	61697262 	cmnvs	r9, r2, ror #4
    1580:	6e756a6e 	vsubvs.f32	s13, s10, s29
    1584:	7365442f 	cmnvc	r5, #788529152	; 0x2f000000
    1588:	706f746b 	rsbvc	r7, pc, fp, ror #8
    158c:	6863732f 	stmdavs	r3!, {r0, r1, r2, r3, r5, r8, r9, ip, sp, lr}^
    1590:	2f6c6f6f 	svccs	0x006c6f6f
    1594:	746e6957 	strbtvc	r6, [lr], #-2391	; 0x957
    1598:	39317265 	ldmdbcc	r1!, {r0, r2, r5, r6, r9, ip, sp, lr}
    159c:	432f3032 	teqmi	pc, #50	; 0x32
    15a0:	30343153 	eorscc	r3, r4, r3, asr r1
    15a4:	73632f45 	cmnvc	r3, #276	; 0x114
    15a8:	65303431 	ldrvs	r3, [r0, #-1073]!	; 0x431
    15ac:	7730322d 	ldrvc	r3, [r0, -sp, lsr #4]!
    15b0:	6c2f6e69 	stcvs	14, cr6, [pc], #-420	; 1414 <_start-0x6bec>
    15b4:	69706269 	ldmdbvs	r0!, {r0, r3, r5, r6, r9, sp, lr}^
    15b8:	70670000 	rsbvc	r0, r7, r0
    15bc:	632e6f69 	teqvs	lr, #420	; 0x1a4
    15c0:	00000100 	andeq	r0, r0, r0, lsl #2
    15c4:	6f697067 	svcvs	0x00697067
    15c8:	0200682e 	andeq	r6, r0, #3014656	; 0x2e0000
    15cc:	70720000 	rsbsvc	r0, r2, r0
    15d0:	00682e69 	rsbeq	r2, r8, r9, ror #28
    15d4:	00000003 	andeq	r0, r0, r3
    15d8:	4c020500 	cfstr32mi	mvfx0, [r2], {-0}
    15dc:	030000ac 	movweq	r0, #172	; 0xac
    15e0:	504e013e 	subpl	r0, lr, lr, lsr r1
    15e4:	67210869 	strvs	r0, [r1, -r9, ror #16]!
    15e8:	67676767 	strbvs	r6, [r7, -r7, ror #14]!
    15ec:	084b3267 	stmdaeq	fp, {r0, r1, r2, r5, r6, r9, ip, sp}^
    15f0:	5131dc22 	teqpl	r1, r2, lsr #24
    15f4:	30504e13 	subscc	r4, r0, r3, lsl lr
    15f8:	135031be 	cmpne	r0, #-2147483601	; 0x8000002f
    15fc:	c0304f4d 	eorsgt	r4, r0, sp, asr #30
    1600:	0869504c 	stmdaeq	r9!, {r2, r3, r6, ip, lr}^
    1604:	67676721 	strbvs	r6, [r7, -r1, lsr #14]!
    1608:	32676767 	rsbcc	r6, r7, #27000832	; 0x19c0000
    160c:	a421084b 	strtge	r0, [r1], #-2123	; 0x84b
    1610:	842f504c 	strthi	r5, [pc], #-76	; 1618 <_start-0x69e8>
    1614:	82750369 	rsbshi	r0, r5, #-1543503871	; 0xa4000001
    1618:	4d2e0c03 	stcmi	12, cr0, [lr, #-12]!
    161c:	4c4b4e30 	mcrrmi	14, 3, r4, fp, cr0
    1620:	696b6a4d 	stmdbvs	fp!, {r0, r2, r3, r6, r9, fp, sp, lr}^
    1624:	67672108 	strbvs	r2, [r7, -r8, lsl #2]!
    1628:	67676767 	strbvs	r6, [r7, -r7, ror #14]!
    162c:	22084b32 	andcs	r4, r8, #51200	; 0xc800
    1630:	31ba1a03 			; <UNDEFINED> instruction: 0x31ba1a03
    1634:	522f4c9f 	eorpl	r4, pc, #40704	; 0x9f00
    1638:	4b2f4e4d 	blmi	bd4f74 <__bss_end__+0xbc8c44>
    163c:	67684b67 	strbvs	r4, [r8, -r7, ror #22]!
    1640:	672f4c67 	strvs	r4, [pc, -r7, ror #24]!
    1644:	4c6e4b2f 	stclmi	11, cr4, [lr], #-188	; 0xffffff44
    1648:	674b2f4e 	strbvs	r2, [fp, -lr, asr #30]
    164c:	6767684b 	strbvs	r6, [r7, -fp, asr #16]!
    1650:	2f672f4c 	svccs	0x00672f4c
    1654:	4e4b6d4b 	cdpmi	13, 4, cr6, cr11, cr11, {2}
    1658:	00674b2f 	rsbeq	r4, r7, pc, lsr #22
    165c:	06010402 	streq	r0, [r1], -r2, lsl #8
    1660:	9f680666 	svcls	0x00680666
    1664:	0402002f 	streq	r0, [r2], #-47	; 0x2f
    1668:	064a0601 	strbeq	r0, [sl], -r1, lsl #12
    166c:	73032f68 	movwvc	r2, #16232	; 0x3f68
    1670:	2e0e034a 	cdpcs	3, 0, cr0, cr14, cr10, {2}
    1674:	2f4e4c4d 	svccs	0x004e4c4d
    1678:	02bcbc4b 	adcseq	fp, ip, #19200	; 0x4b00
    167c:	01010006 	tsteq	r1, r6
    1680:	000000ec 	andeq	r0, r0, ip, ror #1
    1684:	00d00002 	sbcseq	r0, r0, r2
    1688:	01020000 	mrseq	r0, (UNDEF: 2)
    168c:	000d0efb 	strdeq	r0, [sp], -fp
    1690:	01010101 	tsteq	r1, r1, lsl #2
    1694:	01000000 	mrseq	r0, (UNDEF: 0)
    1698:	6c010000 	stcvs	0, cr0, [r1], {-0}
    169c:	00636269 	rsbeq	r6, r3, r9, ror #4
    16a0:	7273752f 	rsbsvc	r7, r3, #197132288	; 0xbc00000
    16a4:	636f6c2f 	cmnvs	pc, #12032	; 0x2f00
    16a8:	432f6c61 	teqmi	pc, #24832	; 0x6100
    16ac:	616c6c65 	cmnvs	ip, r5, ror #24
    16b0:	72612f72 	rsbvc	r2, r1, #456	; 0x1c8
    16b4:	6f6e2d6d 	svcvs	0x006e2d6d
    16b8:	652d656e 	strvs	r6, [sp, #-1390]!	; 0x56e
    16bc:	2f696261 	svccs	0x00696261
    16c0:	2e382e34 	mrccs	14, 1, r2, cr8, cr4, {1}
    16c4:	73632d33 	cmnvc	r3, #3264	; 0xcc0
    16c8:	65303731 	ldrvs	r3, [r0, #-1841]!	; 0x731
    16cc:	62696c2f 	rsbvs	r6, r9, #12032	; 0x2f00
    16d0:	6363672f 	cmnvs	r3, #12320768	; 0xbc0000
    16d4:	6d72612f 	ldfvse	f6, [r2, #-188]!	; 0xffffff44
    16d8:	6e6f6e2d 	cdpvs	14, 6, cr6, cr15, cr13, {1}
    16dc:	61652d65 	cmnvs	r5, r5, ror #26
    16e0:	342f6962 	strtcc	r6, [pc], #-2402	; 16e8 <_start-0x6918>
    16e4:	332e382e 	teqcc	lr, #3014656	; 0x2e0000
    16e8:	636e692f 	cmnvs	lr, #770048	; 0xbc000
    16ec:	6564756c 	strbvs	r7, [r4, #-1388]!	; 0x56c
    16f0:	73752f00 	cmnvc	r5, #0, 30
    16f4:	6f6c2f72 	svcvs	0x006c2f72
    16f8:	2f6c6163 	svccs	0x006c6163
    16fc:	6c6c6543 	cfstr64vs	mvdx6, [ip], #-268	; 0xfffffef4
    1700:	612f7261 	teqvs	pc, r1, ror #4
    1704:	6e2d6d72 	mcrvs	13, 1, r6, cr13, cr2, {3}
    1708:	2d656e6f 	stclcs	14, cr6, [r5, #-444]!	; 0xfffffe44
    170c:	69626165 	stmdbvs	r2!, {r0, r2, r5, r6, r8, sp, lr}^
    1710:	382e342f 	stmdacc	lr!, {r0, r1, r2, r3, r5, sl, ip, sp}
    1714:	632d332e 	teqvs	sp, #-1207959552	; 0xb8000000
    1718:	30373173 	eorscc	r3, r7, r3, ror r1
    171c:	72612f65 	rsbvc	r2, r1, #404	; 0x194
    1720:	6f6e2d6d 	svcvs	0x006e2d6d
    1724:	652d656e 	strvs	r6, [sp, #-1390]!	; 0x56e
    1728:	2f696261 	svccs	0x00696261
    172c:	6c636e69 	stclvs	14, cr6, [r3], #-420	; 0xfffffe5c
    1730:	00656475 	rsbeq	r6, r5, r5, ror r4
    1734:	6d656d00 	stclvs	13, cr6, [r5, #-0]
    1738:	2e746573 	mrccs	5, 3, r6, cr4, cr3, {3}
    173c:	00010063 	andeq	r0, r1, r3, rrx
    1740:	64747300 	ldrbtvs	r7, [r4], #-768	; 0x300
    1744:	2e666564 	cdpcs	5, 6, cr6, cr6, cr4, {3}
    1748:	00020068 	andeq	r0, r2, r8, rrx
    174c:	72747300 	rsbsvc	r7, r4, #0, 6
    1750:	2e676e69 	cdpcs	14, 6, cr6, cr7, cr9, {3}
    1754:	00030068 	andeq	r0, r3, r8, rrx
    1758:	05000000 	streq	r0, [r0, #-0]
    175c:	00b1b402 	adcseq	fp, r1, r2, lsl #8
    1760:	4c131400 	cfldrsmi	mvf1, [r3], {-0}
    1764:	0402002f 	streq	r0, [r2], #-47	; 0x2f
    1768:	024d4901 	subeq	r4, sp, #16384	; 0x4000
    176c:	01010002 	tsteq	r1, r2
    1770:	00000128 	andeq	r0, r0, r8, lsr #2
    1774:	010d0002 	tsteq	sp, r2
    1778:	01020000 	mrseq	r0, (UNDEF: 2)
    177c:	000d0efb 	strdeq	r0, [sp], -fp
    1780:	01010101 	tsteq	r1, r1, lsl #2
    1784:	01000000 	mrseq	r0, (UNDEF: 0)
    1788:	63010000 	movwvs	r0, #4096	; 0x1000
    178c:	30343173 	eorscc	r3, r4, r3, ror r1
    1790:	72732d65 	rsbsvc	r2, r3, #6464	; 0x1940
    1794:	752f0063 	strvc	r0, [pc, #-99]!	; 1739 <_start-0x68c7>
    1798:	6c2f7273 	sfmvs	f7, 4, [pc], #-460	; 15d4 <_start-0x6a2c>
    179c:	6c61636f 	stclvs	3, cr6, [r1], #-444	; 0xfffffe44
    17a0:	6c65432f 	stclvs	3, cr4, [r5], #-188	; 0xffffff44
    17a4:	2f72616c 	svccs	0x0072616c
    17a8:	2d6d7261 	sfmcs	f7, 2, [sp, #-388]!	; 0xfffffe7c
    17ac:	656e6f6e 	strbvs	r6, [lr, #-3950]!	; 0xf6e
    17b0:	6261652d 	rsbvs	r6, r1, #188743680	; 0xb400000
    17b4:	2e342f69 	cdpcs	15, 3, cr2, cr4, cr9, {3}
    17b8:	2d332e38 	ldccs	14, cr2, [r3, #-224]!	; 0xffffff20
    17bc:	37317363 	ldrcc	r7, [r1, -r3, ror #6]!
    17c0:	6c2f6530 	cfstr32vs	mvfx6, [pc], #-192	; 1708 <_start-0x68f8>
    17c4:	672f6269 	strvs	r6, [pc, -r9, ror #4]!
    17c8:	612f6363 	teqvs	pc, r3, ror #6
    17cc:	6e2d6d72 	mcrvs	13, 1, r6, cr13, cr2, {3}
    17d0:	2d656e6f 	stclcs	14, cr6, [r5, #-444]!	; 0xfffffe44
    17d4:	69626165 	stmdbvs	r2!, {r0, r2, r5, r6, r8, sp, lr}^
    17d8:	382e342f 	stmdacc	lr!, {r0, r1, r2, r3, r5, sl, ip, sp}
    17dc:	692f332e 	stmdbvs	pc!, {r1, r2, r3, r5, r8, r9, ip, sp}	; <UNPREDICTABLE>
    17e0:	756c636e 	strbvc	r6, [ip, #-878]!	; 0x36e
    17e4:	2f006564 	svccs	0x00006564
    17e8:	2f727375 	svccs	0x00727375
    17ec:	61636f6c 	cmnvs	r3, ip, ror #30
    17f0:	65432f6c 	strbvs	r2, [r3, #-3948]	; 0xf6c
    17f4:	72616c6c 	rsbvc	r6, r1, #108, 24	; 0x6c00
    17f8:	6d72612f 	ldfvse	f6, [r2, #-188]!	; 0xffffff44
    17fc:	6e6f6e2d 	cdpvs	14, 6, cr6, cr15, cr13, {1}
    1800:	61652d65 	cmnvs	r5, r5, ror #26
    1804:	342f6962 	strtcc	r6, [pc], #-2402	; 180c <_start-0x67f4>
    1808:	332e382e 	teqcc	lr, #3014656	; 0x2e0000
    180c:	3173632d 	cmncc	r3, sp, lsr #6
    1810:	2f653037 	svccs	0x00653037
    1814:	2d6d7261 	sfmcs	f7, 2, [sp, #-388]!	; 0xfffffe7c
    1818:	656e6f6e 	strbvs	r6, [lr, #-3950]!	; 0xf6e
    181c:	6261652d 	rsbvs	r6, r1, #188743680	; 0xb400000
    1820:	6e692f69 	cdpvs	15, 6, cr2, cr9, cr9, {3}
    1824:	64756c63 	ldrbtvs	r6, [r5], #-3171	; 0xc63
    1828:	63000065 	movwvs	r0, #101	; 0x65
    182c:	72746e6f 	rsbsvc	r6, r4, #1776	; 0x6f0
    1830:	622d6c6f 	eorvs	r6, sp, #28416	; 0x6f00
    1834:	6b636f6c 	blvs	18dd5ec <__bss_end__+0x18d12bc>
    1838:	0100632e 	tsteq	r0, lr, lsr #6
    183c:	74730000 	ldrbtvc	r0, [r3], #-0
    1840:	66656464 	strbtvs	r6, [r5], -r4, ror #8
    1844:	0200682e 	andeq	r6, r0, #3014656	; 0x2e0000
    1848:	74730000 	ldrbtvc	r0, [r3], #-0
    184c:	746e6964 	strbtvc	r6, [lr], #-2404	; 0x964
    1850:	6363672d 	cmnvs	r3, #11796480	; 0xb40000
    1854:	0200682e 	andeq	r6, r0, #3014656	; 0x2e0000
    1858:	77730000 	ldrbvc	r0, [r3, -r0]!
    185c:	7261752d 	rsbvc	r7, r1, #188743680	; 0xb400000
    1860:	00682e74 	rsbeq	r2, r8, r4, ror lr
    1864:	63000001 	movwvs	r0, #1
    1868:	72746e6f 	rsbsvc	r6, r4, #1776	; 0x6f0
    186c:	622d6c6f 	eorvs	r6, sp, #28416	; 0x6f00
    1870:	6b636f6c 	blvs	18dd628 <__bss_end__+0x18d12f8>
    1874:	0100682e 	tsteq	r0, lr, lsr #16
    1878:	74730000 	ldrbtvc	r0, [r3], #-0
    187c:	676e6972 			; <UNDEFINED> instruction: 0x676e6972
    1880:	0300682e 	movweq	r6, #2094	; 0x82e
    1884:	00000000 	andeq	r0, r0, r0
    1888:	b1d40205 	bicslt	r0, r4, r5, lsl #4
    188c:	30160000 	andscc	r0, r6, r0
    1890:	144c6883 	strbne	r6, [ip], #-2179	; 0x883
    1894:	022f4b9f 	eoreq	r4, pc, #162816	; 0x27c00
    1898:	01010004 	tsteq	r1, r4

Disassembly of section .debug_str:

00000000 <.debug_str>:
   0:	657a6973 	ldrbvs	r6, [sl, #-2419]!	; 0x973
   4:	6c00745f 	cfstrsvs	mvf7, [r0], {95}	; 0x5f
   8:	735f6162 	cmpvc	pc, #-2147483624	; 0x80000018
   c:	74726174 	ldrbtvc	r6, [r2], #-372	; 0x174
  10:	72617000 	rsbvc	r7, r1, #0
  14:	79745f74 	ldmdbvc	r4!, {r2, r4, r5, r6, r8, r9, sl, fp, ip, lr}^
  18:	70006570 	andvc	r6, r0, r0, ror r5
  1c:	64735f69 	ldrbtvs	r5, [r3], #-3945	; 0xf69
  20:	696e695f 	stmdbvs	lr!, {r0, r1, r2, r3, r4, r6, r8, fp, sp, lr}^
  24:	626d0074 	rsbvs	r0, sp, #116	; 0x74
  28:	61705f72 	cmnvs	r0, r2, ror pc
  2c:	74697472 	strbtvc	r7, [r9], #-1138	; 0x472
  30:	5f6e6f69 	svcpl	0x006e6f69
  34:	74706d65 	ldrbtvc	r6, [r0], #-3429	; 0xd65
  38:	64730079 	ldrbtvs	r0, [r3], #-121	; 0x79
  3c:	6165725f 	cmnvs	r5, pc, asr r2
  40:	6f6c6264 	svcvs	0x006c6264
  44:	47006b63 	strmi	r6, [r0, -r3, ror #22]
  48:	4320554e 	teqmi	r0, #327155712	; 0x13800000
  4c:	382e3420 	stmdacc	lr!, {r5, sl, ip, sp}
  50:	2d20332e 	stccs	3, cr3, [r0, #-184]!	; 0xffffff48
  54:	7570636d 	ldrbvc	r6, [r0, #-877]!	; 0x36d
  58:	6d72613d 	ldfvse	f6, [r2, #-244]!	; 0xffffff0c
  5c:	36373131 			; <UNDEFINED> instruction: 0x36373131
  60:	2d667a6a 	vstmdbcs	r6!, {s15-s120}
  64:	6d2d2073 	stcvs	0, cr2, [sp, #-460]!	; 0xfffffe34
  68:	656e7574 	strbvs	r7, [lr, #-1396]!	; 0x574
  6c:	6d72613d 	ldfvse	f6, [r2, #-244]!	; 0xffffff0c
  70:	36373131 			; <UNDEFINED> instruction: 0x36373131
  74:	2d667a6a 	vstmdbcs	r6!, {s15-s120}
  78:	672d2073 			; <UNDEFINED> instruction: 0x672d2073
  7c:	20626467 	rsbcs	r6, r2, r7, ror #8
  80:	20674f2d 	rsbcs	r4, r7, sp, lsr #30
  84:	6474732d 	ldrbtvs	r7, [r4], #-813	; 0x32d
  88:	756e673d 	strbvc	r6, [lr, #-1853]!	; 0x73d
  8c:	2d203939 	stccs	9, cr3, [r0, #-228]!	; 0xffffff1c
  90:	65726666 	ldrbvs	r6, [r2, #-1638]!	; 0x666
  94:	61747365 	cmnvs	r4, r5, ror #6
  98:	6e69646e 	cdpvs	4, 6, cr6, cr9, cr14, {3}
  9c:	6f6e0067 	svcvs	0x006e0067
  a0:	69616d74 	stmdbvs	r1!, {r2, r4, r5, r6, r8, sl, fp, sp, lr}^
  a4:	626d006e 	rsbvs	r0, sp, #110	; 0x6e
  a8:	61705f72 	cmnvs	r0, r2, ror pc
  ac:	74697472 	strbtvc	r7, [r9], #-1138	; 0x472
  b0:	5f6e6f69 	svcpl	0x006e6f69
  b4:	6e697270 	mcrvs	2, 3, r7, cr9, cr0, {3}
  b8:	68630074 	stmdavs	r3!, {r2, r4, r5, r6}^
  bc:	6e655f73 	mcrvs	15, 3, r5, cr5, cr3, {3}
  c0:	61750064 	cmnvs	r5, r4, rrx
  c4:	695f7472 	ldmdbvs	pc, {r1, r4, r5, r6, sl, ip, sp, lr}^	; <UNPREDICTABLE>
  c8:	0074696e 	rsbseq	r6, r4, lr, ror #18
  cc:	5f636573 	svcpl	0x00636573
  d0:	64616572 	strbtvs	r6, [r1], #-1394	; 0x572
  d4:	72617000 	rsbvc	r7, r1, #0
  d8:	61745f74 	cmnvs	r4, r4, ror pc
  dc:	63003162 	movwvs	r3, #354	; 0x162
  e0:	6e61656c 	cdpvs	5, 6, cr6, cr1, cr12, {3}
  e4:	6265725f 	rsbvs	r7, r5, #-268435451	; 0xf0000005
  e8:	00746f6f 	rsbseq	r6, r4, pc, ror #30
  ec:	726f6873 	rsbvc	r6, pc, #7536640	; 0x730000
  f0:	6e752074 	mrcvs	0, 3, r2, cr5, cr4, {3}
  f4:	6e676973 	mcrvs	9, 3, r6, cr7, cr3, {3}
  f8:	69206465 	stmdbvs	r0!, {r0, r2, r5, r6, sl, sp, lr}
  fc:	6b00746e 	blvs	1d2bc <__bss_end__+0x10f8c>
 100:	6c6c616d 	stfvse	f6, [ip], #-436	; 0xfffffe4c
 104:	7500636f 	strvc	r6, [r0, #-879]	; 0x36f
 108:	6769736e 	strbvs	r7, [r9, -lr, ror #6]!
 10c:	2064656e 	rsbcs	r6, r4, lr, ror #10
 110:	72616863 	rsbvc	r6, r1, #6488064	; 0x630000
 114:	73552f00 	cmpvc	r5, #0, 30
 118:	2f737265 	svccs	0x00737265
 11c:	61697262 	cmnvs	r9, r2, ror #4
 120:	6e756a6e 	vsubvs.f32	s13, s10, s29
 124:	7365442f 	cmnvc	r5, #788529152	; 0x2f000000
 128:	706f746b 	rsbvc	r7, pc, fp, ror #8
 12c:	6863732f 	stmdavs	r3!, {r0, r1, r2, r3, r5, r8, r9, ip, sp, lr}^
 130:	2f6c6f6f 	svccs	0x006c6f6f
 134:	746e6957 	strbtvc	r6, [lr], #-2391	; 0x957
 138:	39317265 	ldmdbcc	r1!, {r0, r2, r5, r6, r9, ip, sp, lr}
 13c:	432f3032 	teqmi	pc, #50	; 0x32
 140:	30343153 	eorscc	r3, r4, r3, asr r1
 144:	73632f45 	cmnvc	r3, #276	; 0x114
 148:	65303431 	ldrvs	r3, [r0, #-1073]!	; 0x431
 14c:	7730322d 	ldrvc	r3, [r0, -sp, lsr #4]!
 150:	6c2f6e69 	stcvs	14, cr6, [pc], #-420	; ffffffb4 <__bss_end__+0xffff3c84>
 154:	2f736261 	svccs	0x00736261
 158:	662d3331 			; <UNDEFINED> instruction: 0x662d3331
 15c:	32337461 	eorscc	r7, r3, #1627389952	; 0x61000000
 160:	732d302f 	teqvc	sp, #47	; 0x2f
 164:	72642d64 	rsbvc	r2, r4, #100, 26	; 0x1900
 168:	72657669 	rsbvc	r7, r5, #110100480	; 0x6900000
 16c:	646f6300 	strbtvs	r6, [pc], #-768	; 174 <_start-0x7e8c>
 170:	5f5f0065 	svcpl	0x005f0065
 174:	434e5546 	movtmi	r5, #58694	; 0xe546
 178:	4e4f4954 	mcrmi	9, 2, r4, cr15, cr4, {2}
 17c:	6d005f5f 	stcvs	15, cr5, [r0, #-380]	; 0xfffffe84
 180:	705f7262 	subsvc	r7, pc, r2, ror #4
 184:	5f747261 	svcpl	0x00747261
 188:	665f7369 	ldrbvs	r7, [pc], -r9, ror #6
 18c:	32337461 	eorscc	r7, r3, #1627389952	; 0x61000000
 190:	6f6f6200 	svcvs	0x006f6200
 194:	6c626174 	stfvse	f6, [r2], #-464	; 0xfffffe30
 198:	00705f65 	rsbseq	r5, r0, r5, ror #30
 19c:	76697264 	strbtvc	r7, [r9], -r4, ror #4
 1a0:	632e7265 	teqvs	lr, #1342177286	; 0x50000006
 1a4:	6e6f6c00 	cdpvs	12, 6, cr6, cr15, cr0, {0}
 1a8:	6f6c2067 	svcvs	0x006c2067
 1ac:	7520676e 	strvc	r6, [r0, #-1902]!	; 0x76e
 1b0:	6769736e 	strbvs	r7, [r9, -lr, ror #6]!
 1b4:	2064656e 	rsbcs	r6, r4, lr, ror #10
 1b8:	00746e69 	rsbseq	r6, r4, r9, ror #28
 1bc:	746e6975 	strbtvc	r6, [lr], #-2421	; 0x975
 1c0:	00745f38 	rsbseq	r5, r4, r8, lsr pc
 1c4:	74726170 	ldrbtvc	r6, [r2], #-368	; 0x170
 1c8:	6f697469 	svcvs	0x00697469
 1cc:	6e655f6e 	cdpvs	15, 6, cr5, cr5, cr14, {3}
 1d0:	00797274 	rsbseq	r7, r9, r4, ror r2
 1d4:	657a6973 	ldrbvs	r6, [sl, #-2419]!	; 0x973
 1d8:	65707974 	ldrbvs	r7, [r0, #-2420]!	; 0x974
 1dc:	6e6f6c00 	cdpvs	12, 6, cr6, cr15, cr0, {0}
 1e0:	6f6c2067 	svcvs	0x006c2067
 1e4:	6920676e 	stmdbvs	r0!, {r1, r2, r3, r5, r6, r8, r9, sl, sp, lr}
 1e8:	6e00746e 	cdpvs	4, 0, cr7, cr0, cr14, {3}
 1ec:	00636573 	rsbeq	r6, r3, r3, ror r5
 1f0:	735f6970 	cmpvc	pc, #112, 18	; 0x1c0000
 1f4:	65725f64 	ldrbvs	r5, [r2, #-3940]!	; 0xf64
 1f8:	6d006461 	cfstrsvs	mvf6, [r0, #-388]	; 0xfffffe7c
 1fc:	70636d65 	rsbvc	r6, r3, r5, ror #26
 200:	68730079 	ldmdavs	r3!, {r0, r3, r4, r5, r6}^
 204:	2074726f 	rsbscs	r7, r4, pc, ror #4
 208:	00746e69 	rsbseq	r6, r4, r9, ror #28
 20c:	746e6975 	strbtvc	r6, [lr], #-2421	; 0x975
 210:	745f3631 	ldrbvc	r3, [pc], #-1585	; 218 <_start-0x7de8>
 214:	72626d00 	rsbvc	r6, r2, #0, 26
 218:	6568635f 	strbvs	r6, [r8, #-863]!	; 0x35f
 21c:	75006b63 	strvc	r6, [r0, #-2915]	; 0xb63
 220:	33746e69 	cmncc	r4, #1680	; 0x690
 224:	00745f32 	rsbseq	r5, r4, r2, lsr pc
 228:	76676973 			; <UNDEFINED> instruction: 0x76676973
 22c:	6b006c61 	blvs	1b3b8 <__bss_end__+0xf088>
 230:	6c6c616d 	stfvse	f6, [ip], #-436	; 0xfffffe4c
 234:	695f636f 	ldmdbvs	pc, {r0, r1, r2, r3, r5, r6, r8, r9, sp, lr}^	; <UNPREDICTABLE>
 238:	0074696e 	rsbseq	r6, r4, lr, ror #18
 23c:	5f697072 	svcpl	0x00697072
 240:	65736572 	ldrbvs	r6, [r3, #-1394]!	; 0x572
 244:	75705f74 	ldrbvc	r5, [r0, #-3956]!	; 0xf74
 248:	70006374 	andvc	r6, r0, r4, ror r3
 24c:	5f747261 	svcpl	0x00747261
 250:	32626174 	rsbcc	r6, r2, #116, 2
 254:	72617000 	rsbvc	r7, r1, #0
 258:	61745f74 	cmnvs	r4, r4, ror pc
 25c:	70003362 	andvc	r3, r0, r2, ror #6
 260:	5f747261 	svcpl	0x00747261
 264:	34626174 	strbtcc	r6, [r2], #-372	; 0x174
 268:	73686300 	cmnvc	r8, #0, 6
 26c:	6174735f 	cmnvs	r4, pc, asr r3
 270:	64007472 	strvs	r7, [r0], #-1138	; 0x472
 274:	79616c65 	stmdbvc	r1!, {r0, r2, r5, r6, sl, fp, sp, lr}^
 278:	6379635f 	cmnvs	r9, #2080374785	; 0x7c000001
 27c:	0073656c 	rsbseq	r6, r3, ip, ror #10
 280:	725f6473 	subsvc	r6, pc, #1929379840	; 0x73000000
 284:	73006163 	movwvc	r6, #355	; 0x163
 288:	72655f64 	rsbvc	r5, r5, #100, 30	; 0x190
 28c:	78650072 	stmdavc	r5!, {r1, r4, r5, r6}^
 290:	6e726574 	mrcvs	5, 3, r6, cr2, cr4, {3}
 294:	632d6c61 	teqvs	sp, #24832	; 0x6100
 298:	2f65646f 	svccs	0x0065646f
 29c:	2d747a62 	vldmdbcs	r4!, {s15-s112}
 2a0:	632e6473 	teqvs	lr, #1929379840	; 0x73000000
 2a4:	5f647300 	svcpl	0x00647300
 2a8:	006b6c63 	rsbeq	r6, fp, r3, ror #24
 2ac:	5f6d7261 	svcpl	0x006d7261
 2b0:	656d6974 	strbvs	r6, [sp, #-2420]!	; 0x974
 2b4:	614d5f72 	hvcvs	54770	; 0xd5f2
 2b8:	64656b73 	strbtvs	r6, [r5], #-2931	; 0xb73
 2bc:	00515249 	subseq	r5, r1, r9, asr #4
 2c0:	5f6d7261 	svcpl	0x006d7261
 2c4:	656d6974 	strbvs	r6, [sp, #-2420]!	; 0x974
 2c8:	72465f72 	subvc	r5, r6, #456	; 0x1c8
 2cc:	75526565 	ldrbvc	r6, [r2, #-1381]	; 0x565
 2d0:	6e696e6e 	cdpvs	14, 6, cr6, cr9, cr14, {3}
 2d4:	756f4367 	strbvc	r4, [pc, #-871]!	; ffffff75 <__bss_end__+0xffff3c45>
 2d8:	7265746e 	rsbvc	r7, r5, #1845493760	; 0x6e000000
 2dc:	6d726100 	ldfvse	f6, [r2, #-0]
 2e0:	6d69745f 	cfstrdvs	mvd7, [r9, #-380]!	; 0xfffffe84
 2e4:	505f7265 	subspl	r7, pc, r5, ror #4
 2e8:	69446572 	stmdbvs	r4, {r1, r4, r5, r6, r8, sl, sp, lr}^
 2ec:	65646976 	strbvs	r6, [r4, #-2422]!	; 0x976
 2f0:	65640072 	strbvs	r0, [r4, #-114]!	; 0x72
 2f4:	5f79616c 	svcpl	0x0079616c
 2f8:	7300736d 	movwvc	r7, #877	; 0x36d
 2fc:	6e695f64 	cdpvs	15, 6, cr5, cr9, cr4, {3}
 300:	64730074 	ldrbtvs	r0, [r3], #-116	; 0x74
 304:	6174735f 	cmnvs	r4, pc, asr r3
 308:	00737574 	rsbseq	r7, r3, r4, ror r5
 30c:	5f697072 	svcpl	0x00697072
 310:	5f6d7261 	svcpl	0x006d7261
 314:	656d6974 	strbvs	r6, [sp, #-2420]!	; 0x974
 318:	00745f72 	rsbseq	r5, r4, r2, ror pc
 31c:	5f6d7261 	svcpl	0x006d7261
 320:	656d6974 	strbvs	r6, [sp, #-2420]!	; 0x974
 324:	61425f72 	hvcvs	9714	; 0x25f2
 328:	61006573 	tstvs	r0, r3, ror r5
 32c:	745f6d72 	ldrbvc	r6, [pc], #-3442	; 334 <_start-0x7ccc>
 330:	72656d69 	rsbvc	r6, r5, #6720	; 0x1a40
 334:	5741525f 	smlsldpl	r5, r1, pc, r2	; <UNPREDICTABLE>
 338:	00515249 	subseq	r5, r1, r9, asr #4
 33c:	5f6d7261 	svcpl	0x006d7261
 340:	656d6974 	strbvs	r6, [sp, #-2420]!	; 0x974
 344:	61565f72 	cmpvs	r6, r2, ror pc
 348:	0065756c 	rsbeq	r7, r5, ip, ror #10
 34c:	5f6d7261 	svcpl	0x006d7261
 350:	656d6974 	strbvs	r6, [sp, #-2420]!	; 0x974
 354:	52495f72 	subpl	r5, r9, #456	; 0x1c8
 358:	656c4351 	strbvs	r4, [ip, #-849]!	; 0x351
 35c:	73007261 	movwvc	r7, #609	; 0x261
 360:	63735f64 	cmnvs	r3, #100, 30	; 0x190
 364:	64730072 	ldrbtvs	r0, [r3], #-114	; 0x72
 368:	72636f5f 	rsbvc	r6, r3, #380	; 0x17c
 36c:	5f647300 	svcpl	0x00647300
 370:	00646d63 	rsbeq	r6, r4, r3, ror #26
 374:	5f6d7261 	svcpl	0x006d7261
 378:	656d6974 	strbvs	r6, [sp, #-2420]!	; 0x974
 37c:	6f435f72 	svcvs	0x00435f72
 380:	6f72746e 	svcvs	0x0072746e
 384:	6473006c 	ldrbtvs	r0, [r3], #-108	; 0x6c
 388:	0076685f 	rsbseq	r6, r6, pc, asr r8
 38c:	74726175 	ldrbtvc	r6, [r2], #-373	; 0x175
 390:	7865685f 	stmdavc	r5!, {r0, r1, r2, r3, r4, r6, fp, sp, lr}^
 394:	66756200 	ldrbtvs	r6, [r5], -r0, lsl #4
 398:	00726566 	rsbseq	r6, r2, r6, ror #10
 39c:	775f6473 			; <UNDEFINED> instruction: 0x775f6473
 3a0:	65746972 	ldrbvs	r6, [r4, #-2418]!	; 0x972
 3a4:	636f6c62 	cmnvs	pc, #25088	; 0x6200
 3a8:	7261006b 	rsbvc	r0, r1, #107	; 0x6b
 3ac:	69745f6d 	ldmdbvs	r4!, {r0, r2, r3, r5, r6, r8, r9, sl, fp, ip, lr}^
 3b0:	5f72656d 	svcpl	0x0072656d
 3b4:	64616f4c 	strbtvs	r6, [r1], #-3916	; 0xf4c
 3b8:	6d726100 	ldfvse	f6, [r2, #-0]
 3bc:	6d69745f 	cfstrdvs	mvd7, [r9, #-380]!	; 0xfffffe84
 3c0:	525f7265 	subspl	r7, pc, #1342177286	; 0x50000006
 3c4:	616f6c65 	cmnvs	pc, r5, ror #24
 3c8:	626d0064 	rsbvs	r0, sp, #100	; 0x64
 3cc:	61705f72 	cmnvs	r0, r2, ror pc
 3d0:	735f7472 	cmpvc	pc, #1912602624	; 0x72000000
 3d4:	66007274 			; <UNDEFINED> instruction: 0x66007274
 3d8:	32337461 	eorscc	r7, r3, #1627389952	; 0x61000000
 3dc:	6c65682d 	stclvs	8, cr6, [r5], #-180	; 0xffffff4c
 3e0:	73726570 	cmnvc	r2, #112, 10	; 0x1c000000
 3e4:	7000632e 	andvc	r6, r0, lr, lsr #6
 3e8:	00747261 	rsbseq	r7, r4, r1, ror #4
 3ec:	6362696c 	cmnvs	r2, #108, 18	; 0x1b0000
 3f0:	6d656d2f 	stclvs	13, cr6, [r5, #-188]!	; 0xffffff44
 3f4:	2e797063 	cdpcs	0, 7, cr7, cr9, cr3, {3}
 3f8:	552f0063 	strpl	r0, [pc, #-99]!	; 39d <_start-0x7c63>
 3fc:	73726573 	cmnvc	r2, #482344960	; 0x1cc00000
 400:	6972622f 	ldmdbvs	r2!, {r0, r1, r2, r3, r5, r9, sp, lr}^
 404:	756a6e61 	strbvc	r6, [sl, #-3681]!	; 0xe61
 408:	65442f6e 	strbvs	r2, [r4, #-3950]	; 0xf6e
 40c:	6f746b73 	svcvs	0x00746b73
 410:	63732f70 	cmnvs	r3, #112, 30	; 0x1c0
 414:	6c6f6f68 	stclvs	15, cr6, [pc], #-416	; 27c <_start-0x7d84>
 418:	6e69572f 	cdpvs	7, 6, cr5, cr9, cr15, {1}
 41c:	31726574 	cmncc	r2, r4, ror r5
 420:	2f303239 	svccs	0x00303239
 424:	34315343 	ldrtcc	r5, [r1], #-835	; 0x343
 428:	632f4530 	teqvs	pc, #48, 10	; 0xc000000
 42c:	30343173 	eorscc	r3, r4, r3, ror r1
 430:	30322d65 	eorscc	r2, r2, r5, ror #26
 434:	2f6e6977 	svccs	0x006e6977
 438:	7062696c 	rsbvc	r6, r2, ip, ror #18
 43c:	5f5f0069 	svcpl	0x005f0069
 440:	63756e67 	cmnvs	r5, #1648	; 0x670
 444:	5f61765f 	svcpl	0x0061765f
 448:	7473696c 	ldrbtvc	r6, [r3], #-2412	; 0x96c
 44c:	62696c00 	rsbvs	r6, r9, #0, 24
 450:	72702f63 	rsbsvc	r2, r0, #396	; 0x18c
 454:	6b746e69 	blvs	1d1be00 <__bss_end__+0x1d0fad0>
 458:	7600632e 	strvc	r6, [r0], -lr, lsr #6
 45c:	72705f61 	rsbsvc	r5, r0, #388	; 0x184
 460:	6b746e69 	blvs	1d1be0c <__bss_end__+0x1d0fadc>
 464:	765f5f00 	ldrbvc	r5, [pc], -r0, lsl #30
 468:	696c5f61 	stmdbvs	ip!, {r0, r5, r6, r8, r9, sl, fp, ip, lr}^
 46c:	61007473 	tstvs	r0, r3, ror r4
 470:	00736772 	rsbseq	r6, r3, r2, ror r7
 474:	70615f5f 	rsbvc	r5, r1, pc, asr pc
 478:	746e6900 	strbtvc	r6, [lr], #-2304	; 0x900
 47c:	616e7265 	cmnvs	lr, r5, ror #4
 480:	75705f6c 	ldrbvc	r5, [r0, #-3948]!	; 0xf6c
 484:	61686374 	smcvs	34356	; 0x8634
 488:	70720072 	rsbsvc	r0, r2, r2, ror r0
 48c:	75705f69 	ldrbvc	r5, [r0, #-3945]!	; 0xf69
 490:	61686374 	smcvs	34356	; 0x8634
 494:	696c0072 	stmdbvs	ip!, {r1, r4, r5, r6}^
 498:	702f6362 	eorvc	r6, pc, r2, ror #6
 49c:	68637475 	stmdavs	r3!, {r0, r2, r4, r5, r6, sl, ip, sp, lr}^
 4a0:	632e7261 	teqvs	lr, #268435462	; 0x10000006
 4a4:	69707200 	ldmdbvs	r0!, {r9, ip, sp, lr}^
 4a8:	7465735f 	strbtvc	r7, [r5], #-863	; 0x35f
 4ac:	7475705f 	ldrbtvc	r7, [r5], #-95	; 0x5f
 4b0:	696c0063 	stmdbvs	ip!, {r0, r1, r5, r6}^
 4b4:	702f6362 	eorvc	r6, pc, r2, ror #6
 4b8:	2e6b7475 	mcrcs	4, 3, r7, cr11, cr5, {3}
 4bc:	6e690063 	cdpvs	0, 6, cr0, cr9, cr3, {3}
 4c0:	6e726574 	mrcvs	5, 3, r6, cr2, cr4, {3}
 4c4:	705f6c61 	subsvc	r6, pc, r1, ror #24
 4c8:	006b7475 	rsbeq	r7, fp, r5, ror r4
 4cc:	6362696c 	cmnvs	r2, #108, 18	; 0x1b0000
 4d0:	7261752f 	rsbvc	r7, r1, #197132288	; 0xbc00000
 4d4:	65682d74 	strbvs	r2, [r8, #-3444]!	; 0xd74
 4d8:	00632e78 	rsbeq	r2, r3, r8, ror lr
 4dc:	5f67656e 	svcpl	0x0067656e
 4e0:	65720070 	ldrbvs	r0, [r2, #-112]!	; 0x70
 4e4:	73726576 	cmnvc	r2, #494927872	; 0x1d800000
 4e8:	73690065 	cmnvc	r9, #101	; 0x65
 4ec:	69676964 	stmdbvs	r7!, {r2, r5, r6, r8, fp, sp, lr}^
 4f0:	75700074 	ldrbvc	r0, [r0, #-116]!	; 0x74
 4f4:	665f7374 			; <UNDEFINED> instruction: 0x665f7374
 4f8:	61620070 	smcvs	8192	; 0x2000
 4fc:	73006573 	movwvc	r6, #1395	; 0x573
 500:	656e6769 	strbvs	r6, [lr, #-1897]!	; 0x769
 504:	00705f64 	rsbseq	r5, r0, r4, ror #30
 508:	6362696c 	cmnvs	r2, #108, 18	; 0x1b0000
 50c:	2d61762f 	stclcs	6, cr7, [r1, #-188]!	; 0xffffff44
 510:	6e697270 	mcrvs	2, 3, r7, cr9, cr0, {3}
 514:	632e6b74 	teqvs	lr, #116, 22	; 0x1d000
 518:	69707200 	ldmdbvs	r0!, {r9, ip, sp, lr}^
 51c:	7465735f 	strbtvc	r7, [r5], #-863	; 0x35f
 520:	74756f5f 	ldrbtvc	r6, [r5], #-3935	; 0xf5f
 524:	00747570 	rsbseq	r7, r4, r0, ror r5
 528:	74646977 	strbtvc	r6, [r4], #-2423	; 0x977
 52c:	75700068 	ldrbvc	r0, [r0, #-104]!	; 0x68
 530:	665f6374 			; <UNDEFINED> instruction: 0x665f6374
 534:	6d650070 	stclvs	0, cr0, [r5, #-448]!	; 0xfffffe40
 538:	72007469 	andvc	r7, r0, #1761607680	; 0x69000000
 53c:	725f6970 	subsvc	r6, pc, #112, 18	; 0x1c0000
 540:	6f6f6265 	svcvs	0x006f6265
 544:	73630074 	cmnvc	r3, #116	; 0x74
 548:	65303431 	ldrvs	r3, [r0, #-1073]!	; 0x431
 54c:	6372732d 	cmnvs	r2, #-1275068416	; 0xb4000000
 550:	656c632f 	strbvs	r6, [ip, #-815]!	; 0x32f
 554:	722d6e61 	eorvc	r6, sp, #1552	; 0x610
 558:	6f6f6265 	svcvs	0x006f6265
 55c:	00632e74 	rsbeq	r2, r3, r4, ror lr
 560:	65746e69 	ldrbvs	r6, [r4, #-3689]!	; 0xe69
 564:	6c616e72 	stclvs	14, cr6, [r1], #-456	; 0xfffffe38
 568:	5f77735f 	svcpl	0x0077735f
 56c:	63747570 	cmnvs	r4, #112, 10	; 0x1c000000
 570:	00726168 	rsbseq	r6, r2, r8, ror #2
 574:	73625f5f 	cmnvc	r2, #380	; 0x17c
 578:	74735f73 	ldrbtvc	r5, [r3], #-3955	; 0xf73
 57c:	5f747261 	svcpl	0x00747261
 580:	7362005f 	cmnvc	r2, #95	; 0x5f
 584:	6e655f73 	mcrvs	15, 3, r5, cr5, cr3, {3}
 588:	79630064 	stmdbvc	r3!, {r2, r5, r6}^
 58c:	5f656c63 	svcpl	0x00656c63
 590:	5f726570 	svcpl	0x00726570
 594:	00746962 	rsbseq	r6, r4, r2, ror #18
 598:	736e6f63 	cmnvc	lr, #396	; 0x18c
 59c:	5f656c6f 	svcpl	0x00656c6f
 5a0:	74726175 	ldrbtvc	r6, [r2], #-373	; 0x175
 5a4:	5f777300 	svcpl	0x00777300
 5a8:	74726175 	ldrbtvc	r6, [r2], #-373	; 0x175
 5ac:	6972705f 	ldmdbvs	r2!, {r0, r1, r2, r3, r4, r6, ip, sp, lr}^
 5b0:	006b746e 	rsbeq	r7, fp, lr, ror #8
 5b4:	43545550 	cmpmi	r4, #80, 10	; 0x14000000
 5b8:	5053455f 	subspl	r4, r3, pc, asr r5
 5bc:	5241555f 	subpl	r5, r1, #398458880	; 0x17c00000
 5c0:	77730054 			; <UNDEFINED> instruction: 0x77730054
 5c4:	7261755f 	rsbvc	r7, r1, #398458880	; 0x17c00000
 5c8:	00745f74 	rsbseq	r5, r4, r4, ror pc
 5cc:	43545550 	cmpmi	r4, #80, 10	; 0x14000000
 5d0:	5f57535f 	svcpl	0x0057535f
 5d4:	54524155 	ldrbpl	r4, [r2], #-341	; 0x155
 5d8:	75616200 	strbvc	r6, [r1, #-512]!	; 0x200
 5dc:	55500064 	ldrbpl	r0, [r0, #-100]	; 0x64
 5e0:	485f4354 	ldmdami	pc, {r2, r4, r6, r8, r9, lr}^	; <UNPREDICTABLE>
 5e4:	41555f57 	cmpmi	r5, r7, asr pc
 5e8:	5f005452 	svcpl	0x00005452
 5ec:	61747363 	cmnvs	r4, r3, ror #6
 5f0:	75007472 	strvc	r7, [r0, #-1138]	; 0x472
 5f4:	5f747261 	svcpl	0x00747261
 5f8:	5f766564 	svcpl	0x00766564
 5fc:	77730074 			; <UNDEFINED> instruction: 0x77730074
 600:	7261755f 	rsbvc	r7, r1, #398458880	; 0x17c00000
 604:	75705f74 	ldrbvc	r5, [r0, #-3956]!	; 0xf74
 608:	63006374 	movwvs	r6, #884	; 0x374
 60c:	72746e6f 	rsbsvc	r6, r4, #1776	; 0x6f0
 610:	625f6c6f 	subsvs	r6, pc, #28416	; 0x6f00
 614:	745f6b6c 	ldrbvc	r6, [pc], #-2924	; 61c <_start-0x79e4>
 618:	5f777300 	svcpl	0x00777300
 61c:	74726175 	ldrbtvc	r6, [r2], #-373	; 0x175
 620:	5f626300 	svcpl	0x00626300
 624:	5f746567 	svcpl	0x00746567
 628:	636f6c62 	cmnvs	pc, #25088	; 0x6200
 62c:	5f5f006b 	svcpl	0x005f006b
 630:	5f737362 	svcpl	0x00737362
 634:	5f646e65 	svcpl	0x00646e65
 638:	7363005f 	cmnvc	r3, #95	; 0x5f
 63c:	65303431 	ldrvs	r3, [r0, #-1073]!	; 0x431
 640:	6372732d 	cmnvs	r2, #-1275068416	; 0xb4000000
 644:	7473632f 	ldrbtvc	r6, [r3], #-815	; 0x32f
 648:	2e747261 	cdpcs	2, 7, cr7, cr4, cr1, {3}
 64c:	6f630063 	svcvs	0x00630063
 650:	6c6f736e 	stclvs	3, cr7, [pc], #-440	; 4a0 <_start-0x7b60>
 654:	65645f65 	strbvs	r5, [r4, #-3941]!	; 0xf65
 658:	616d0076 	smcvs	53254	; 0xd006
 65c:	00636967 	rsbeq	r6, r3, r7, ror #18
 660:	755f7461 	ldrbvc	r7, [pc, #-1121]	; 207 <_start-0x7df9>
 664:	5f726573 	svcpl	0x00726573
 668:	6576656c 	ldrbvs	r6, [r6, #-1388]!	; 0x56c
 66c:	4d50006c 	ldclmi	0, cr0, [r0, #-432]	; 0xfffffe50
 670:	5341505f 	movtpl	r5, #4191	; 0x105f
 674:	524f5753 	subpl	r5, pc, #21757952	; 0x14c0000
 678:	73630044 	cmnvc	r3, #68	; 0x44
 67c:	65303431 	ldrvs	r3, [r0, #-1073]!	; 0x431
 680:	6372732d 	cmnvs	r2, #-1275068416	; 0xb4000000
 684:	6265722f 	rsbvs	r7, r5, #-268435454	; 0xf0000002
 688:	2e746f6f 	cdpcs	15, 7, cr6, cr4, cr15, {3}
 68c:	4d500063 	ldclmi	0, cr0, [r0, #-396]	; 0xfffffe74
 690:	5453525f 	ldrbpl	r5, [r3], #-607	; 0x25f
 694:	52575f43 	subspl	r5, r7, #268	; 0x10c
 698:	5f474643 	svcpl	0x00474643
 69c:	4c4c5546 	cfstr64mi	mvdx5, [ip], {70}	; 0x46
 6a0:	5345525f 	movtpl	r5, #21087	; 0x525f
 6a4:	50005445 	andpl	r5, r0, r5, asr #8
 6a8:	44575f4d 	ldrbmi	r5, [r7], #-3917	; 0xf4d
 6ac:	7300474f 	movwvc	r4, #1871	; 0x74f
 6b0:	755f7465 	ldrbvc	r7, [pc, #-1125]	; 253 <_start-0x7dad>
 6b4:	5f726573 	svcpl	0x00726573
 6b8:	6576656c 	ldrbvs	r6, [r6, #-1388]!	; 0x56c
 6bc:	5550006c 	ldrbpl	r0, [r0, #-108]	; 0x6c
 6c0:	00323354 	eorseq	r3, r2, r4, asr r3
 6c4:	525f4d50 	subspl	r4, pc, #80, 26	; 0x1400
 6c8:	00435453 	subeq	r5, r3, r3, asr r4
 6cc:	72737063 	rsbsvc	r7, r3, #99	; 0x63
 6d0:	6d697400 	cfstrdvs	mvd7, [r9, #-0]
 6d4:	675f7265 	ldrbvs	r7, [pc, -r5, ror #4]
 6d8:	755f7465 	ldrbvc	r7, [pc, #-1125]	; 27b <_start-0x7d85>
 6dc:	5f636573 	svcpl	0x00636573
 6e0:	00776172 	rsbseq	r6, r7, r2, ror r1
 6e4:	616c6564 	cmnvs	ip, r4, ror #10
 6e8:	65735f79 	ldrbvs	r5, [r3, #-3961]!	; 0xf79
 6ec:	73630063 	cmnvc	r3, #99	; 0x63
 6f0:	65303431 	ldrvs	r3, [r0, #-1073]!	; 0x431
 6f4:	6372732d 	cmnvs	r2, #-1275068416	; 0xb4000000
 6f8:	6d69742f 	cfstrdvs	mvd7, [r9, #-188]!	; 0xffffff44
 6fc:	632e7265 	teqvs	lr, #1342177286	; 0x50000006
 700:	54454700 	strbpl	r4, [r5], #-1792	; 0x700
 704:	74003233 	strvc	r3, [r0], #-563	; 0x233
 708:	736b6369 	cmnvc	fp, #-1543503871	; 0xa4000001
 70c:	6c656400 	cfstrdvs	mvd6, [r5], #-0
 710:	755f7961 	ldrbvc	r7, [pc, #-2401]	; fffffdb7 <__bss_end__+0xffff3a87>
 714:	69740073 	ldmdbvs	r4!, {r0, r1, r4, r5, r6}^
 718:	5f72656d 	svcpl	0x0072656d
 71c:	5f746567 	svcpl	0x00746567
 720:	63657375 	cmnvs	r5, #-738197503	; 0xd4000001
 724:	616d6b00 	cmnvs	sp, r0, lsl #22
 728:	636f6c6c 	cmnvs	pc, #108, 24	; 0x6c00
 72c:	696c615f 	stmdbvs	ip!, {r0, r1, r2, r3, r4, r6, r8, sp, lr}^
 730:	64656e67 	strbtvs	r6, [r5], #-3687	; 0xe67
 734:	72666b00 	rsbvc	r6, r6, #0, 22
 738:	615f6565 	cmpvs	pc, r5, ror #10
 73c:	61006c6c 	tstvs	r0, ip, ror #24
 740:	6e67696c 	cdpvs	9, 6, cr6, cr7, cr12, {3}
 744:	685f6465 	ldmdavs	pc, {r0, r2, r5, r6, sl, sp, lr}^	; <UNPREDICTABLE>
 748:	5f706165 	svcpl	0x00706165
 74c:	00727470 	rsbseq	r7, r2, r0, ror r4
 750:	736d656d 	cmnvc	sp, #457179136	; 0x1b400000
 754:	6d007465 	cfstrsvs	mvf7, [r0, #-404]	; 0xfffffe6c
 758:	72732d79 	rsbsvc	r2, r3, #7744	; 0x1e40
 75c:	6d6b2f63 	stclvs	15, cr2, [fp, #-396]!	; 0xfffffe74
 760:	6f6c6c61 	svcvs	0x006c6c61
 764:	00632e63 	rsbeq	r2, r3, r3, ror #28
 768:	72617473 	rsbvc	r7, r1, #1929379840	; 0x73000000
 76c:	64615f74 	strbtvs	r5, [r1], #-3956	; 0xf74
 770:	73657264 	cmnvc	r5, #100, 4	; 0x40000006
 774:	6e690073 	mcrvs	0, 3, r0, cr9, cr3, {3}
 778:	705f7469 	subsvc	r7, pc, r9, ror #8
 77c:	696c6100 	stmdbvs	ip!, {r8, sp, lr}^
 780:	656d6e67 	strbvs	r6, [sp, #-3687]!	; 0xe67
 784:	7200746e 	andvc	r7, r0, #1845493760	; 0x6e000000
 788:	646e756f 	strbtvs	r7, [lr], #-1391	; 0x56f
 78c:	6e5f6465 	cdpvs	4, 5, cr6, cr15, cr5, {3}
 790:	65747962 	ldrbvs	r7, [r4, #-2402]!	; 0x962
 794:	6d6b0073 	stclvs	0, cr0, [fp, #-460]!	; 0xfffffe34
 798:	6f6c6c61 	svcvs	0x006c6c61
 79c:	65685f63 	strbvs	r5, [r8, #-3939]!	; 0xf63
 7a0:	705f7061 	subsvc	r7, pc, r1, rrx
 7a4:	6b007274 	blvs	1d17c <__bss_end__+0x10e4c>
 7a8:	6c6c616d 	stfvse	f6, [ip], #-436	; 0xfffffe4c
 7ac:	695f636f 	ldmdbvs	pc, {r0, r1, r2, r3, r5, r6, r8, r9, sp, lr}^	; <UNPREDICTABLE>
 7b0:	5f74696e 	svcpl	0x0074696e
 7b4:	5f746573 	svcpl	0x00746573
 7b8:	72617473 	rsbvc	r7, r1, #1929379840	; 0x73000000
 7bc:	6f740074 	svcvs	0x00740074
 7c0:	6c6c615f 	stfvse	f6, [ip], #-380	; 0xfffffe84
 7c4:	7461636f 	strbtvc	r6, [r1], #-879	; 0x36f
 7c8:	5f5f0065 	svcpl	0x005f0065
 7cc:	70616568 	rsbvc	r6, r1, r8, ror #10
 7d0:	6174735f 	cmnvs	r4, pc, asr r3
 7d4:	5f5f7472 	svcpl	0x005f7472
 7d8:	63796300 	cmnvs	r9, #0, 6
 7dc:	7265705f 	rsbvc	r7, r5, #95	; 0x5f
 7e0:	7469625f 	strbtvc	r6, [r9], #-607	; 0x25f
 7e4:	69727700 	ldmdbvs	r2!, {r8, r9, sl, ip, sp, lr}^
 7e8:	635f6574 	cmpvs	pc, #116, 10	; 0x1d000000
 7ec:	755f6379 	ldrbvc	r6, [pc, #-889]	; 47b <_start-0x7b85>
 7f0:	6c69746e 	cfstrdvs	mvd7, [r9], #-440	; 0xfffffe48
 7f4:	5f777300 	svcpl	0x00777300
 7f8:	74726175 	ldrbtvc	r6, [r2], #-373	; 0x175
 7fc:	7465675f 	strbtvc	r6, [r5], #-1887	; 0x75f
 800:	69745f63 	ldmdbvs	r4!, {r0, r1, r5, r6, r8, r9, sl, fp, ip, lr}^
 804:	756f656d 	strbvc	r6, [pc, #-1389]!	; 29f <_start-0x7d61>
 808:	77730074 			; <UNDEFINED> instruction: 0x77730074
 80c:	7261755f 	rsbvc	r7, r1, #398458880	; 0x17c00000
 810:	65675f74 	strbvs	r5, [r7, #-3956]!	; 0xf74
 814:	755f7374 	ldrbvc	r7, [pc, #-884]	; 4a8 <_start-0x7b58>
 818:	6c69746e 	cfstrdvs	mvd7, [r9], #-440	; 0xfffffe48
 81c:	5f777300 	svcpl	0x00777300
 820:	74726175 	ldrbtvc	r6, [r2], #-373	; 0x175
 824:	7465675f 	strbtvc	r6, [r5], #-1887	; 0x75f
 828:	65640063 	strbvs	r0, [r4, #-99]!	; 0x63
 82c:	65766972 	ldrbvs	r6, [r6, #-2418]!	; 0x972
 830:	65640064 	strbvs	r0, [r4, #-100]!	; 0x64
 834:	5f79616c 	svcpl	0x0079616c
 838:	6379636e 	cmnvs	r9, #-1207959551	; 0xb8000001
 83c:	0073656c 	rsbseq	r6, r3, ip, ror #10
 840:	755f7773 	ldrbvc	r7, [pc, #-1907]	; d5 <_start-0x7f2b>
 844:	5f747261 	svcpl	0x00747261
 848:	74696e69 	strbtvc	r6, [r9], #-3689	; 0xe69
 84c:	6c65685f 	stclvs	8, cr6, [r5], #-380	; 0xfffffe84
 850:	00726570 	rsbseq	r6, r2, r0, ror r5
 854:	656d6974 	strbvs	r6, [sp, #-2420]!	; 0x974
 858:	5f74756f 	svcpl	0x0074756f
 85c:	63657375 	cmnvs	r5, #-738197503	; 0xd4000001
 860:	5f777300 	svcpl	0x00777300
 864:	74726175 	ldrbtvc	r6, [r2], #-373	; 0x175
 868:	7475705f 	ldrbtvc	r7, [r5], #-95	; 0x5f
 86c:	7067006b 	rsbvc	r0, r7, fp, rrx
 870:	725f6f69 	subsvc	r6, pc, #420	; 0x1a4
 874:	00646165 	rsbeq	r6, r4, r5, ror #2
 878:	732d796d 	teqvc	sp, #1785856	; 0x1b4000
 87c:	732f6372 	teqvc	pc, #-939524095	; 0xc8000001
 880:	61752d77 	cmnvs	r5, r7, ror sp
 884:	632e7472 	teqvs	lr, #1912602624	; 0x72000000
 888:	61686300 	cmnvs	r8, r0, lsl #6
 88c:	6e695f72 	mcrvs	15, 3, r5, cr9, cr2, {3}
 890:	5f777300 	svcpl	0x00777300
 894:	74726175 	ldrbtvc	r6, [r2], #-373	; 0x175
 898:	7465675f 	strbtvc	r6, [r5], #-1887	; 0x75f
 89c:	69745f73 	ldmdbvs	r4!, {r0, r1, r4, r5, r6, r8, r9, sl, fp, ip, lr}^
 8a0:	756f656d 	strbvc	r6, [pc, #-1389]!	; 33b <_start-0x7cc5>
 8a4:	6f5f0074 	svcvs	0x005f0074
 8a8:	67007475 	smlsdxvs	r0, r5, r4, r7
 8ac:	5f6f6970 	svcpl	0x006f6970
 8b0:	74697277 	strbtvc	r7, [r9], #-631	; 0x277
 8b4:	73750065 	cmnvc	r5, #101	; 0x65
 8b8:	745f6365 	ldrbvc	r6, [pc], #-869	; 8c0 <_start-0x7740>
 8bc:	6f656d69 	svcvs	0x00656d69
 8c0:	67007475 	smlsdxvs	r0, r5, r4, r7
 8c4:	5f6f6970 	svcpl	0x006f6970
 8c8:	5f746573 	svcpl	0x00746573
 8cc:	75706e69 	ldrbvc	r6, [r0, #-3689]!	; 0xe69
 8d0:	77730074 			; <UNDEFINED> instruction: 0x77730074
 8d4:	7261755f 	rsbvc	r7, r1, #398458880	; 0x17c00000
 8d8:	65675f74 	strbvs	r5, [r7, #-3956]!	; 0xf74
 8dc:	755f7374 	ldrbvc	r7, [pc, #-884]	; 570 <_start-0x7a90>
 8e0:	6c69746e 	cfstrdvs	mvd7, [r9], #-440	; 0xfffffe48
 8e4:	6b6c625f 	blvs	1b19268 <__bss_end__+0x1b0cf38>
 8e8:	69706700 	ldmdbvs	r0!, {r8, r9, sl, sp, lr}^
 8ec:	65735f6f 	ldrbvs	r5, [r3, #-3951]!	; 0xf6f
 8f0:	756f5f74 	strbvc	r5, [pc, #-3956]!	; fffff984 <__bss_end__+0xffff3654>
 8f4:	74757074 	ldrbtvc	r7, [r5], #-116	; 0x74
 8f8:	69617700 	stmdbvs	r1!, {r8, r9, sl, ip, sp, lr}^
 8fc:	6e755f74 	mrcvs	15, 3, r5, cr5, cr4, {3}
 900:	5f6c6974 	svcpl	0x006c6974
 904:	63657375 	cmnvs	r5, #-738197503	; 0xd4000001
 908:	58554100 	ldmdapl	r5, {r8, lr}^
 90c:	5f554d5f 	svcpl	0x00554d5f
 910:	5f52434d 	svcpl	0x0052434d
 914:	00474552 	subeq	r4, r7, r2, asr r5
 918:	5f585541 	svcpl	0x00585541
 91c:	495f554d 	ldmdbmi	pc, {r0, r2, r3, r6, r8, sl, ip, lr}^	; <UNPREDICTABLE>
 920:	45525f4f 	ldrbmi	r5, [r2, #-3919]	; 0xf4f
 924:	55410047 	strbpl	r0, [r1, #-71]	; 0x47
 928:	554d5f58 	strbpl	r5, [sp, #-3928]	; 0xf58
 92c:	52534d5f 	subspl	r4, r3, #6080	; 0x17c0
 930:	4745525f 	smlsldmi	r5, r5, pc, r2	; <UNPREDICTABLE>
 934:	49504700 	ldmdbmi	r0, {r8, r9, sl, lr}^
 938:	55465f4f 	strbpl	r5, [r6, #-3919]	; 0xf4f
 93c:	415f434e 	cmpmi	pc, lr, asr #6
 940:	0030544c 	eorseq	r5, r0, ip, asr #8
 944:	74726175 	ldrbtvc	r6, [r2], #-373	; 0x175
 948:	6e61635f 	mcrvs	3, 3, r6, cr1, cr15, {2}
 94c:	7465675f 	strbtvc	r6, [r5], #-1887	; 0x75f
 950:	55410063 	strbpl	r0, [r1, #-99]	; 0x63
 954:	554d5f58 	strbpl	r5, [sp, #-3928]	; 0xf58
 958:	544e435f 	strbpl	r4, [lr], #-863	; 0x35f
 95c:	45525f4c 	ldrbmi	r5, [r2, #-3916]	; 0xf4c
 960:	61750047 	cmnvs	r5, r7, asr #32
 964:	685f7472 	ldmdavs	pc, {r1, r4, r5, r6, sl, ip, sp, lr}^	; <UNPREDICTABLE>
 968:	645f7361 	ldrbvs	r7, [pc], #-865	; 970 <_start-0x7690>
 96c:	00617461 	rsbeq	r7, r1, r1, ror #8
 970:	5f766564 	svcpl	0x00766564
 974:	72726162 	rsbsvc	r6, r2, #-2147483624	; 0x80000018
 978:	00726569 	rsbseq	r6, r2, r9, ror #10
 97c:	4f495047 	svcmi	0x00495047
 980:	4e55465f 	mrcmi	6, 2, r4, cr5, cr15, {2}
 984:	554f5f43 	strbpl	r5, [pc, #-3907]	; fffffa49 <__bss_end__+0xffff3719>
 988:	54555054 	ldrbpl	r5, [r5], #-84	; 0x54
 98c:	49504700 	ldmdbmi	r0, {r8, r9, sl, lr}^
 990:	55465f4f 	strbpl	r5, [r6, #-3919]	; 0xf4f
 994:	415f434e 	cmpmi	pc, lr, asr #6
 998:	0031544c 	eorseq	r5, r1, ip, asr #8
 99c:	4f495047 	svcmi	0x00495047
 9a0:	4e55465f 	mrcmi	6, 2, r4, cr5, cr15, {2}
 9a4:	4c415f43 	mcrrmi	15, 4, r5, r1, cr3
 9a8:	47003254 	smlsdmi	r0, r4, r2, r3
 9ac:	5f4f4950 	svcpl	0x004f4950
 9b0:	434e5546 	movtmi	r5, #58694	; 0xe546
 9b4:	544c415f 	strbpl	r4, [ip], #-351	; 0x15f
 9b8:	50470033 	subpl	r0, r7, r3, lsr r0
 9bc:	465f4f49 	ldrbmi	r4, [pc], -r9, asr #30
 9c0:	5f434e55 	svcpl	0x00434e55
 9c4:	35544c41 	ldrbcc	r4, [r4, #-3137]	; 0xc41
 9c8:	58554100 	ldmdapl	r5, {r8, lr}^
 9cc:	5f554d5f 	svcpl	0x00554d5f
 9d0:	5f524549 	svcpl	0x00524549
 9d4:	00474552 	subeq	r4, r7, r2, asr r5
 9d8:	33747570 	cmncc	r4, #112, 10	; 0x1c000000
 9dc:	55410032 	strbpl	r0, [r1, #-50]	; 0x32
 9e0:	554d5f58 	strbpl	r5, [sp, #-3928]	; 0xf58
 9e4:	5249495f 	subpl	r4, r9, #1556480	; 0x17c000
 9e8:	4745525f 	smlsldmi	r5, r5, pc, r2	; <UNPREDICTABLE>
 9ec:	69706700 	ldmdbvs	r0!, {r8, r9, sl, sp, lr}^
 9f0:	75665f6f 	strbvc	r5, [r6, #-3951]!	; 0xf6f
 9f4:	745f636e 	ldrbvc	r6, [pc], #-878	; 9fc <_start-0x7604>
 9f8:	72617500 	rsbvc	r7, r1, #0, 10
 9fc:	61635f74 	smcvs	13812	; 0x35f4
 a00:	75705f6e 	ldrbvc	r5, [r0, #-3950]!	; 0xf6e
 a04:	41006374 	tstmi	r0, r4, ror r3
 a08:	455f5855 	ldrbmi	r5, [pc, #-2133]	; 1bb <_start-0x7e45>
 a0c:	4c42414e 	stfmie	f4, [r2], {78}	; 0x4e
 a10:	41005345 	tstmi	r0, r5, asr #6
 a14:	495f5855 	ldmdbmi	pc, {r0, r2, r4, r6, fp, ip, lr}^	; <UNPREDICTABLE>
 a18:	41005152 	tstmi	r0, r2, asr r1
 a1c:	4d5f5855 	ldclmi	8, cr5, [pc, #-340]	; 8d0 <_start-0x7730>
 a20:	41425f55 	cmpmi	r2, r5, asr pc
 a24:	525f4455 	subspl	r4, pc, #1426063360	; 0x55000000
 a28:	41004745 	tstmi	r0, r5, asr #14
 a2c:	4d5f5855 	ldclmi	8, cr5, [pc, #-340]	; 8e0 <_start-0x7720>
 a30:	54535f55 	ldrbpl	r5, [r3], #-3925	; 0xf55
 a34:	525f5441 	subspl	r5, pc, #1090519040	; 0x41000000
 a38:	47004745 	strmi	r4, [r0, -r5, asr #14]
 a3c:	5f4f4950 	svcpl	0x004f4950
 a40:	434e5546 	movtmi	r5, #58694	; 0xe546
 a44:	544c415f 	strbpl	r4, [ip], #-351	; 0x15f
 a48:	70670034 	rsbvc	r0, r7, r4, lsr r0
 a4c:	735f6f69 	cmpvc	pc, #420	; 0x1a4
 a50:	665f7465 	ldrbvs	r7, [pc], -r5, ror #8
 a54:	74636e75 	strbtvc	r6, [r3], #-3701	; 0xe75
 a58:	006e6f69 	rsbeq	r6, lr, r9, ror #30
 a5c:	5f585541 	svcpl	0x00585541
 a60:	535f554d 	cmppl	pc, #322961408	; 0x13400000
 a64:	54415243 	strbpl	r5, [r1], #-579	; 0x243
 a68:	6d004843 	stcvs	8, cr4, [r0, #-268]	; 0xfffffef4
 a6c:	72732d79 	rsbsvc	r2, r3, #7744	; 0x1e40
 a70:	61752f63 	cmnvs	r5, r3, ror #30
 a74:	632e7472 	teqvs	lr, #1912602624	; 0x72000000
 a78:	58554100 	ldmdapl	r5, {r8, lr}^
 a7c:	5f554d5f 	svcpl	0x00554d5f
 a80:	5f52434c 	svcpl	0x0052434c
 a84:	00474552 	subeq	r4, r7, r2, asr r5
 a88:	4f495047 	svcmi	0x00495047
 a8c:	4e55465f 	mrcmi	6, 2, r4, cr5, cr15, {2}
 a90:	4e495f43 	cdpmi	15, 4, cr5, cr9, cr3, {2}
 a94:	00545550 	subseq	r5, r4, r0, asr r5
 a98:	5f585541 	svcpl	0x00585541
 a9c:	4c5f554d 	cfldr64mi	mvdx5, [pc], {77}	; 0x4d
 aa0:	525f5253 	subspl	r5, pc, #805306373	; 0x30000005
 aa4:	75004745 	strvc	r4, [r0, #-1861]	; 0x745
 aa8:	5f747261 	svcpl	0x00747261
 aac:	63746567 	cmnvs	r4, #432013312	; 0x19c00000
 ab0:	7973615f 	ldmdbvc	r3!, {r0, r1, r2, r3, r4, r6, r8, sp, lr}^
 ab4:	6700636e 	strvs	r6, [r0, -lr, ror #6]
 ab8:	32337465 	eorscc	r7, r3, #1694498816	; 0x65000000
 abc:	69706700 	ldmdbvs	r0!, {r8, r9, sl, sp, lr}^
 ac0:	76655f6f 	strbtvc	r5, [r5], -pc, ror #30
 ac4:	5f746e65 	svcpl	0x00746e65
 ac8:	65746564 	ldrbvs	r6, [r4, #-1380]!	; 0x564
 acc:	64657463 	strbtvs	r7, [r5], #-1123	; 0x463
 ad0:	46504700 	ldrbmi	r4, [r0], -r0, lsl #14
 ad4:	324c4553 	subcc	r4, ip, #348127232	; 0x14c00000
 ad8:	43504700 	cmpmi	r0, #0, 14
 adc:	0030524c 	eorseq	r5, r0, ip, asr #4
 ae0:	42414e45 	submi	r4, r1, #1104	; 0x450
 ae4:	495f454c 	ldmdbmi	pc, {r2, r3, r6, r8, sl, lr}^	; <UNPREDICTABLE>
 ae8:	5f535152 	svcpl	0x00535152
 aec:	73690032 	cmnvc	r9, #50	; 0x32
 af0:	6970675f 	ldmdbvs	r0!, {r0, r1, r2, r3, r4, r6, r8, r9, sl, sp, lr}^
 af4:	6e695f6f 	cdpvs	15, 6, cr5, cr9, cr15, {3}
 af8:	70670074 	rsbvc	r0, r7, r4, ror r0
 afc:	735f6f69 	cmpvc	pc, #420	; 0x1a4
 b00:	6f5f7465 	svcvs	0x005f7465
 b04:	6d006666 	stcvs	6, cr6, [r0, #-408]	; 0xfffffe68
 b08:	72732d79 	rsbsvc	r2, r3, #7744	; 0x1e40
 b0c:	70672f63 	rsbvc	r2, r7, r3, ror #30
 b10:	632e6f69 	teqvs	lr, #420	; 0x1a4
 b14:	746e6900 	strbtvc	r6, [lr], #-2304	; 0x900
 b18:	73616d5f 	cmnvc	r1, #6080	; 0x17c0
 b1c:	5047006b 	subpl	r0, r7, fp, rrx
 b20:	30544553 	subscc	r4, r4, r3, asr r5
 b24:	53504700 	cmppl	r0, #0, 14
 b28:	00315445 	eorseq	r5, r1, r5, asr #8
 b2c:	5f676572 	svcpl	0x00676572
 b30:	74617473 	strbtvc	r7, [r1], #-1139	; 0x473
 b34:	4c504700 	mrrcmi	7, 0, r4, r0, cr0
 b38:	00305645 	eorseq	r5, r0, r5, asr #12
 b3c:	454c5047 	strbmi	r5, [ip, #-71]	; 0x47
 b40:	67003156 	smlsdvs	r0, r6, r1, r3
 b44:	5f6f6970 	svcpl	0x006f6970
 b48:	00676572 	rsbeq	r6, r7, r2, ror r5
 b4c:	53465047 	movtpl	r5, #24647	; 0x6047
 b50:	00304c45 	eorseq	r4, r0, r5, asr #24
 b54:	53465047 	movtpl	r5, #24647	; 0x6047
 b58:	00314c45 	eorseq	r4, r1, r5, asr #24
 b5c:	53465047 	movtpl	r5, #24647	; 0x6047
 b60:	00334c45 	eorseq	r4, r3, r5, asr #24
 b64:	53465047 	movtpl	r5, #24647	; 0x6047
 b68:	00344c45 	eorseq	r4, r4, r5, asr #24
 b6c:	53465047 	movtpl	r5, #24647	; 0x6047
 b70:	00354c45 	eorseq	r4, r5, r5, asr #24
 b74:	6f697067 	svcvs	0x00697067
 b78:	6573665f 	ldrbvs	r6, [r3, #-1631]!	; 0x65f
 b7c:	4700306c 	strmi	r3, [r0, -ip, rrx]
 b80:	524c4350 	subpl	r4, ip, #80, 6	; 0x40000001
 b84:	70670031 	rsbvc	r0, r7, r1, lsr r0
 b88:	695f6f69 	ldmdbvs	pc, {r0, r3, r5, r6, r8, r9, sl, fp, sp, lr}^	; <UNPREDICTABLE>
 b8c:	725f746e 	subsvc	r7, pc, #1845493760	; 0x6e000000
 b90:	6e697369 	cdpvs	3, 6, cr7, cr9, cr9, {3}
 b94:	64655f67 	strbtvs	r5, [r5], #-3943	; 0xf67
 b98:	47006567 	strmi	r6, [r0, -r7, ror #10]
 b9c:	4e455250 	mcrmi	2, 2, r5, cr5, cr0, {2}
 ba0:	50470030 	subpl	r0, r7, r0, lsr r0
 ba4:	314e4552 	cmpcc	lr, r2, asr r5
 ba8:	69706700 	ldmdbvs	r0!, {r8, r9, sl, sp, lr}^
 bac:	76655f6f 	strbtvc	r5, [r5], -pc, ror #30
 bb0:	5f746e65 	svcpl	0x00746e65
 bb4:	61656c63 	cmnvs	r5, r3, ror #24
 bb8:	52490072 	subpl	r0, r9, #114	; 0x72
 bbc:	45505f51 	ldrbmi	r5, [r0, #-3921]	; 0xf51
 bc0:	4e49444e 	cdpmi	4, 4, cr4, cr9, cr14, {2}
 bc4:	00315f47 	eorseq	r5, r1, r7, asr #30
 bc8:	5f515249 	svcpl	0x00515249
 bcc:	444e4550 	strbmi	r4, [lr], #-1360	; 0x550
 bd0:	5f474e49 	svcpl	0x00474e49
 bd4:	69620032 	stmdbvs	r2!, {r1, r4, r5}^
 bd8:	73616d74 	cmnvc	r1, #116, 26	; 0x1d00
 bdc:	7067006b 	rsbvc	r0, r7, fp, rrx
 be0:	735f6f69 	cmpvc	pc, #420	; 0x1a4
 be4:	00307465 	eorseq	r7, r0, r5, ror #8
 be8:	636e7566 	cmnvs	lr, #427819008	; 0x19800000
 bec:	45504700 	ldrbmi	r4, [r0, #-1792]	; 0x700
 bf0:	00305344 	eorseq	r5, r0, r4, asr #6
 bf4:	44455047 	strbmi	r5, [r5], #-71	; 0x47
 bf8:	67003153 	smlsdvs	r0, r3, r1, r3
 bfc:	5f6f6970 	svcpl	0x006f6970
 c00:	5f746573 	svcpl	0x00746573
 c04:	47006e6f 	strmi	r6, [r0, -pc, ror #28]
 c08:	4e454650 	mcrmi	6, 2, r4, cr5, cr0, {2}
 c0c:	50470030 	subpl	r0, r7, r0, lsr r0
 c10:	314e4546 	cmpcc	lr, r6, asr #10
 c14:	69706700 	ldmdbvs	r0!, {r8, r9, sl, sp, lr}^
 c18:	6e695f6f 	cdpvs	15, 6, cr5, cr9, cr15, {3}
 c1c:	61665f74 	smcvs	26100	; 0x65f4
 c20:	6e696c6c 	cdpvs	12, 6, cr6, cr9, cr12, {3}
 c24:	64655f67 	strbtvs	r5, [r5], #-3943	; 0xf67
 c28:	72006567 	andvc	r6, r0, #432013312	; 0x19c00000
 c2c:	735f6765 	cmpvc	pc, #26476544	; 0x1940000
 c30:	63656c65 	cmnvs	r5, #25856	; 0x6500
 c34:	70670074 	rsbvc	r0, r7, r4, ror r0
 c38:	635f6f69 	cmpvs	pc, #420	; 0x1a4
 c3c:	0030726c 	eorseq	r7, r0, ip, ror #4
 c40:	6362696c 	cmnvs	r2, #108, 18	; 0x1b0000
 c44:	6d656d2f 	stclvs	13, cr6, [r5, #-188]!	; 0xffffff44
 c48:	2e746573 	mrccs	5, 3, r6, cr4, cr3, {3}
 c4c:	62630063 	rsbvs	r0, r3, #99	; 0x63
 c50:	77656e5f 			; <UNDEFINED> instruction: 0x77656e5f
 c54:	31736300 	cmncc	r3, r0, lsl #6
 c58:	2d653034 	stclcs	0, cr3, [r5, #-208]!	; 0xffffff30
 c5c:	2f637273 	svccs	0x00637273
 c60:	746e6f63 	strbtvc	r6, [lr], #-3939	; 0xf63
 c64:	2d6c6f72 	stclcs	15, cr6, [ip, #-456]!	; 0xfffffe38
 c68:	636f6c62 	cmnvs	pc, #25088	; 0x6200
 c6c:	00632e6b 	rsbeq	r2, r3, fp, ror #28

Disassembly of section .debug_frame:

00000000 <.debug_frame>:
   0:	0000000c 	andeq	r0, r0, ip
   4:	ffffffff 			; <UNDEFINED> instruction: 0xffffffff
   8:	7c020001 	stcvc	0, cr0, [r2], {1}
   c:	000d0c0e 	andeq	r0, sp, lr, lsl #24
  10:	00000018 	andeq	r0, r0, r8, lsl r0
  14:	00000000 	andeq	r0, r0, r0
  18:	00008010 	andeq	r8, r0, r0, lsl r0
  1c:	00000060 	andeq	r0, r0, r0, rrx
  20:	840c0e42 	strhi	r0, [ip], #-3650	; 0xe42
  24:	8e028503 	cfsh32hi	mvfx8, mvfx2, #3
  28:	180e4201 	stmdane	lr, {r0, r9, lr}
  2c:	00000014 	andeq	r0, r0, r4, lsl r0
  30:	00000000 	andeq	r0, r0, r0
  34:	00008070 	andeq	r8, r0, r0, ror r0
  38:	00000040 	andeq	r0, r0, r0, asr #32
  3c:	83080e42 	movwhi	r0, #36418	; 0x8e42
  40:	00018e02 	andeq	r8, r1, r2, lsl #28
  44:	00000018 	andeq	r0, r0, r8, lsl r0
  48:	00000000 	andeq	r0, r0, r0
  4c:	000080b0 	strheq	r8, [r0], -r0
  50:	0000005c 	andeq	r0, r0, ip, asr r0
  54:	84100e42 	ldrhi	r0, [r0], #-3650	; 0xe42
  58:	86038504 	strhi	r8, [r3], -r4, lsl #10
  5c:	00018e02 	andeq	r8, r1, r2, lsl #28
  60:	00000018 	andeq	r0, r0, r8, lsl r0
  64:	00000000 	andeq	r0, r0, r0
  68:	0000810c 	andeq	r8, r0, ip, lsl #2
  6c:	0000018c 	andeq	r0, r0, ip, lsl #3
  70:	840c0e42 	strhi	r0, [ip], #-3650	; 0xe42
  74:	8e028503 	cfsh32hi	mvfx8, mvfx2, #3
  78:	200e4201 	andcs	r4, lr, r1, lsl #4
  7c:	0000000c 	andeq	r0, r0, ip
  80:	ffffffff 			; <UNDEFINED> instruction: 0xffffffff
  84:	7c020001 	stcvc	0, cr0, [r2], {1}
  88:	000d0c0e 	andeq	r0, sp, lr, lsl #24
  8c:	0000001c 	andeq	r0, r0, ip, lsl r0
  90:	0000007c 	andeq	r0, r0, ip, ror r0
  94:	00008298 	muleq	r0, r8, r2
  98:	00000094 	muleq	r0, r4, r0
  9c:	84180e42 	ldrhi	r0, [r8], #-3650	; 0xe42
  a0:	86058506 	strhi	r8, [r5], -r6, lsl #10
  a4:	88038704 	stmdahi	r3, {r2, r8, r9, sl, pc}
  a8:	00018e02 	andeq	r8, r1, r2, lsl #28
  ac:	0000001c 	andeq	r0, r0, ip, lsl r0
  b0:	0000007c 	andeq	r0, r0, ip, ror r0
  b4:	0000832c 	andeq	r8, r0, ip, lsr #6
  b8:	000000ac 	andeq	r0, r0, ip, lsr #1
  bc:	84180e42 	ldrhi	r0, [r8], #-3650	; 0xe42
  c0:	86058506 	strhi	r8, [r5], -r6, lsl #10
  c4:	88038704 	stmdahi	r3, {r2, r8, r9, sl, pc}
  c8:	00018e02 	andeq	r8, r1, r2, lsl #28
  cc:	0000001c 	andeq	r0, r0, ip, lsl r0
  d0:	0000007c 	andeq	r0, r0, ip, ror r0
  d4:	000083d8 	ldrdeq	r8, [r0], -r8	; <UNPREDICTABLE>
  d8:	00000270 	andeq	r0, r0, r0, ror r2
  dc:	83180e42 	tsthi	r8, #1056	; 0x420
  e0:	85058406 	strhi	r8, [r5, #-1030]	; 0x406
  e4:	87038604 	strhi	r8, [r3, -r4, lsl #12]
  e8:	00018e02 	andeq	r8, r1, r2, lsl #28
  ec:	00000024 	andeq	r0, r0, r4, lsr #32
  f0:	0000007c 	andeq	r0, r0, ip, ror r0
  f4:	00008648 	andeq	r8, r0, r8, asr #12
  f8:	0000023c 	andeq	r0, r0, ip, lsr r2
  fc:	84240e42 	strthi	r0, [r4], #-3650	; 0xe42
 100:	86088509 	strhi	r8, [r8], -r9, lsl #10
 104:	88068707 	stmdahi	r6, {r0, r1, r2, r8, r9, sl, pc}
 108:	8a048905 	bhi	122524 <__bss_end__+0x1161f4>
 10c:	8e028b03 	vmlahi.f64	d8, d2, d3
 110:	300e4201 	andcc	r4, lr, r1, lsl #4
 114:	00000024 	andeq	r0, r0, r4, lsr #32
 118:	0000007c 	andeq	r0, r0, ip, ror r0
 11c:	00008884 	andeq	r8, r0, r4, lsl #17
 120:	00000270 	andeq	r0, r0, r0, ror r2
 124:	84240e42 	strthi	r0, [r4], #-3650	; 0xe42
 128:	86088509 	strhi	r8, [r8], -r9, lsl #10
 12c:	88068707 	stmdahi	r6, {r0, r1, r2, r8, r9, sl, pc}
 130:	8a048905 	bhi	12254c <__bss_end__+0x11621c>
 134:	8e028b03 	vmlahi.f64	d8, d2, d3
 138:	300e4201 	andcc	r4, lr, r1, lsl #4
 13c:	00000024 	andeq	r0, r0, r4, lsr #32
 140:	0000007c 	andeq	r0, r0, ip, ror r0
 144:	00008af4 	strdeq	r8, [r0], -r4
 148:	000007f0 	strdeq	r0, [r0], -r0	; <UNPREDICTABLE>
 14c:	83280e42 	teqhi	r8, #1056	; 0x420
 150:	8509840a 	strhi	r8, [r9, #-1034]	; 0x40a
 154:	87078608 	strhi	r8, [r7, -r8, lsl #12]
 158:	89058806 	stmdbhi	r5, {r1, r2, fp, pc}
 15c:	8b038a04 	blhi	e2974 <__bss_end__+0xd6644>
 160:	00018e02 	andeq	r8, r1, r2, lsl #28
 164:	0000000c 	andeq	r0, r0, ip
 168:	ffffffff 			; <UNDEFINED> instruction: 0xffffffff
 16c:	7c020001 	stcvc	0, cr0, [r2], {1}
 170:	000d0c0e 	andeq	r0, sp, lr, lsl #24
 174:	00000014 	andeq	r0, r0, r4, lsl r0
 178:	00000164 	andeq	r0, r0, r4, ror #2
 17c:	000092e4 	andeq	r9, r0, r4, ror #5
 180:	00000048 	andeq	r0, r0, r8, asr #32
 184:	83080e42 	movwhi	r0, #36418	; 0x8e42
 188:	00018e02 	andeq	r8, r1, r2, lsl #28
 18c:	00000018 	andeq	r0, r0, r8, lsl r0
 190:	00000164 	andeq	r0, r0, r4, ror #2
 194:	0000932c 	andeq	r9, r0, ip, lsr #6
 198:	000005e0 	andeq	r0, r0, r0, ror #11
 19c:	84080e42 	strhi	r0, [r8], #-3650	; 0xe42
 1a0:	42018e02 	andmi	r8, r1, #2, 28
 1a4:	0000100e 	andeq	r1, r0, lr
 1a8:	0000000c 	andeq	r0, r0, ip
 1ac:	00000164 	andeq	r0, r0, r4, ror #2
 1b0:	0000990c 	andeq	r9, r0, ip, lsl #18
 1b4:	00000030 	andeq	r0, r0, r0, lsr r0
 1b8:	00000018 	andeq	r0, r0, r8, lsl r0
 1bc:	00000164 	andeq	r0, r0, r4, ror #2
 1c0:	0000993c 	andeq	r9, r0, ip, lsr r9
 1c4:	00000134 	andeq	r0, r0, r4, lsr r1
 1c8:	83100e42 	tsthi	r0, #1056	; 0x420
 1cc:	85038404 	strhi	r8, [r3, #-1028]	; 0x404
 1d0:	00018e02 	andeq	r8, r1, r2, lsl #28
 1d4:	0000000c 	andeq	r0, r0, ip
 1d8:	ffffffff 			; <UNDEFINED> instruction: 0xffffffff
 1dc:	7c020001 	stcvc	0, cr0, [r2], {1}
 1e0:	000d0c0e 	andeq	r0, sp, lr, lsl #24
 1e4:	0000000c 	andeq	r0, r0, ip
 1e8:	000001d4 	ldrdeq	r0, [r0], -r4
 1ec:	00009a70 	andeq	r9, r0, r0, ror sl
 1f0:	0000006c 	andeq	r0, r0, ip, rrx
 1f4:	0000000c 	andeq	r0, r0, ip
 1f8:	ffffffff 			; <UNDEFINED> instruction: 0xffffffff
 1fc:	7c020001 	stcvc	0, cr0, [r2], {1}
 200:	000d0c0e 	andeq	r0, sp, lr, lsl #24
 204:	00000024 	andeq	r0, r0, r4, lsr #32
 208:	000001f4 	strdeq	r0, [r0], -r4
 20c:	00009adc 	ldrdeq	r9, [r0], -ip
 210:	00000058 	andeq	r0, r0, r8, asr r0
 214:	80100e42 	andshi	r0, r0, r2, asr #28
 218:	82038104 	andhi	r8, r3, #4, 2
 21c:	42018302 	andmi	r8, r1, #134217728	; 0x8000000
 220:	07841c0e 	streq	r1, [r4, lr, lsl #24]
 224:	058e0685 	streq	r0, [lr, #1669]	; 0x685
 228:	00280e42 	eoreq	r0, r8, r2, asr #28
 22c:	0000000c 	andeq	r0, r0, ip
 230:	ffffffff 			; <UNDEFINED> instruction: 0xffffffff
 234:	7c020001 	stcvc	0, cr0, [r2], {1}
 238:	000d0c0e 	andeq	r0, sp, lr, lsl #24
 23c:	00000014 	andeq	r0, r0, r4, lsl r0
 240:	0000022c 	andeq	r0, r0, ip, lsr #4
 244:	00009b34 	andeq	r9, r0, r4, lsr fp
 248:	00000014 	andeq	r0, r0, r4, lsl r0
 24c:	84080e42 	strhi	r0, [r8], #-3650	; 0xe42
 250:	00018e02 	andeq	r8, r1, r2, lsl #28
 254:	0000000c 	andeq	r0, r0, ip
 258:	0000022c 	andeq	r0, r0, ip, lsr #4
 25c:	00009b48 	andeq	r9, r0, r8, asr #22
 260:	00000018 	andeq	r0, r0, r8, lsl r0
 264:	0000000c 	andeq	r0, r0, ip
 268:	0000022c 	andeq	r0, r0, ip, lsr #4
 26c:	00009b60 	andeq	r9, r0, r0, ror #22
 270:	00000010 	andeq	r0, r0, r0, lsl r0
 274:	0000000c 	andeq	r0, r0, ip
 278:	ffffffff 			; <UNDEFINED> instruction: 0xffffffff
 27c:	7c020001 	stcvc	0, cr0, [r2], {1}
 280:	000d0c0e 	andeq	r0, sp, lr, lsl #24
 284:	00000018 	andeq	r0, r0, r8, lsl r0
 288:	00000274 	andeq	r0, r0, r4, ror r2
 28c:	00009b70 	andeq	r9, r0, r0, ror fp
 290:	00000034 	andeq	r0, r0, r4, lsr r0
 294:	83100e42 	tsthi	r0, #1056	; 0x420
 298:	85038404 	strhi	r8, [r3, #-1028]	; 0x404
 29c:	00018e02 	andeq	r8, r1, r2, lsl #28
 2a0:	0000000c 	andeq	r0, r0, ip
 2a4:	ffffffff 			; <UNDEFINED> instruction: 0xffffffff
 2a8:	7c020001 	stcvc	0, cr0, [r2], {1}
 2ac:	000d0c0e 	andeq	r0, sp, lr, lsl #24
 2b0:	00000014 	andeq	r0, r0, r4, lsl r0
 2b4:	000002a0 	andeq	r0, r0, r0, lsr #5
 2b8:	00009ba4 	andeq	r9, r0, r4, lsr #23
 2bc:	0000001c 	andeq	r0, r0, ip, lsl r0
 2c0:	83080e42 	movwhi	r0, #36418	; 0x8e42
 2c4:	00018e02 	andeq	r8, r1, r2, lsl #28
 2c8:	0000000c 	andeq	r0, r0, ip
 2cc:	ffffffff 			; <UNDEFINED> instruction: 0xffffffff
 2d0:	7c020001 	stcvc	0, cr0, [r2], {1}
 2d4:	000d0c0e 	andeq	r0, sp, lr, lsl #24
 2d8:	0000000c 	andeq	r0, r0, ip
 2dc:	000002c8 	andeq	r0, r0, r8, asr #5
 2e0:	00009bc0 	andeq	r9, r0, r0, asr #23
 2e4:	00000014 	andeq	r0, r0, r4, lsl r0
 2e8:	0000000c 	andeq	r0, r0, ip
 2ec:	000002c8 	andeq	r0, r0, r8, asr #5
 2f0:	00009bd4 	ldrdeq	r9, [r0], -r4
 2f4:	0000002c 	andeq	r0, r0, ip, lsr #32
 2f8:	0000000c 	andeq	r0, r0, ip
 2fc:	000002c8 	andeq	r0, r0, r8, asr #5
 300:	00009c00 	andeq	r9, r0, r0, lsl #24
 304:	00000040 	andeq	r0, r0, r0, asr #32
 308:	00000020 	andeq	r0, r0, r0, lsr #32
 30c:	000002c8 	andeq	r0, r0, r8, asr #5
 310:	00009c40 	andeq	r9, r0, r0, asr #24
 314:	0000019c 	muleq	r0, ip, r1
 318:	84180e42 	ldrhi	r0, [r8], #-3650	; 0xe42
 31c:	86058506 	strhi	r8, [r5], -r6, lsl #10
 320:	88038704 	stmdahi	r3, {r2, r8, r9, sl, pc}
 324:	42018e02 	andmi	r8, r1, #2, 28
 328:	0000580e 	andeq	r5, r0, lr, lsl #16
 32c:	00000014 	andeq	r0, r0, r4, lsl r0
 330:	000002c8 	andeq	r0, r0, r8, asr #5
 334:	00009ddc 	ldrdeq	r9, [r0], -ip
 338:	00000054 	andeq	r0, r0, r4, asr r0
 33c:	83080e42 	movwhi	r0, #36418	; 0x8e42
 340:	00018e02 	andeq	r8, r1, r2, lsl #28
 344:	00000028 	andeq	r0, r0, r8, lsr #32
 348:	000002c8 	andeq	r0, r0, r8, asr #5
 34c:	00009e30 	andeq	r9, r0, r0, lsr lr
 350:	00000288 	andeq	r0, r0, r8, lsl #5
 354:	84240e42 	strthi	r0, [r4], #-3650	; 0xe42
 358:	86088509 	strhi	r8, [r8], -r9, lsl #10
 35c:	88068707 	stmdahi	r6, {r0, r1, r2, r8, r9, sl, pc}
 360:	8a048905 	bhi	12277c <__bss_end__+0x11644c>
 364:	8e028b03 	vmlahi.f64	d8, d2, d3
 368:	b00e4201 	andlt	r4, lr, r1, lsl #4
 36c:	00000001 	andeq	r0, r0, r1
 370:	0000000c 	andeq	r0, r0, ip
 374:	ffffffff 			; <UNDEFINED> instruction: 0xffffffff
 378:	7c020001 	stcvc	0, cr0, [r2], {1}
 37c:	000d0c0e 	andeq	r0, sp, lr, lsl #24
 380:	00000014 	andeq	r0, r0, r4, lsl r0
 384:	00000370 	andeq	r0, r0, r0, ror r3
 388:	0000a0b8 	strheq	sl, [r0], -r8
 38c:	00000028 	andeq	r0, r0, r8, lsr #32
 390:	83080e42 	movwhi	r0, #36418	; 0x8e42
 394:	00018e02 	andeq	r8, r1, r2, lsl #28
 398:	0000000c 	andeq	r0, r0, ip
 39c:	ffffffff 			; <UNDEFINED> instruction: 0xffffffff
 3a0:	7c020001 	stcvc	0, cr0, [r2], {1}
 3a4:	000d0c0e 	andeq	r0, sp, lr, lsl #24
 3a8:	00000014 	andeq	r0, r0, r4, lsl r0
 3ac:	00000398 	muleq	r0, r8, r3
 3b0:	0000a0e0 	andeq	sl, r0, r0, ror #1
 3b4:	00000020 	andeq	r0, r0, r0, lsr #32
 3b8:	84080e42 	strhi	r0, [r8], #-3650	; 0xe42
 3bc:	00018e02 	andeq	r8, r1, r2, lsl #28
 3c0:	00000014 	andeq	r0, r0, r4, lsl r0
 3c4:	00000398 	muleq	r0, r8, r3
 3c8:	0000a100 	andeq	sl, r0, r0, lsl #2
 3cc:	00000090 	muleq	r0, r0, r0
 3d0:	83080e42 	movwhi	r0, #36418	; 0x8e42
 3d4:	00018e02 	andeq	r8, r1, r2, lsl #28
 3d8:	0000000c 	andeq	r0, r0, ip
 3dc:	ffffffff 			; <UNDEFINED> instruction: 0xffffffff
 3e0:	7c020001 	stcvc	0, cr0, [r2], {1}
 3e4:	000d0c0e 	andeq	r0, sp, lr, lsl #24
 3e8:	0000000c 	andeq	r0, r0, ip
 3ec:	000003d8 	ldrdeq	r0, [r0], -r8
 3f0:	0000a190 	muleq	r0, r0, r1
 3f4:	00000018 	andeq	r0, r0, r8, lsl r0
 3f8:	0000000c 	andeq	r0, r0, ip
 3fc:	000003d8 	ldrdeq	r0, [r0], -r8
 400:	0000a1a8 	andeq	sl, r0, r8, lsr #3
 404:	00000014 	andeq	r0, r0, r4, lsl r0
 408:	00000014 	andeq	r0, r0, r4, lsl r0
 40c:	000003d8 	ldrdeq	r0, [r0], -r8
 410:	0000a1bc 			; <UNDEFINED> instruction: 0x0000a1bc
 414:	00000048 	andeq	r0, r0, r8, asr #32
 418:	83080e42 	movwhi	r0, #36418	; 0x8e42
 41c:	00018e02 	andeq	r8, r1, r2, lsl #28
 420:	0000000c 	andeq	r0, r0, ip
 424:	ffffffff 			; <UNDEFINED> instruction: 0xffffffff
 428:	7c020001 	stcvc	0, cr0, [r2], {1}
 42c:	000d0c0e 	andeq	r0, sp, lr, lsl #24
 430:	0000000c 	andeq	r0, r0, ip
 434:	00000420 	andeq	r0, r0, r0, lsr #8
 438:	0000a204 	andeq	sl, r0, r4, lsl #4
 43c:	0000001c 	andeq	r0, r0, ip, lsl r0
 440:	00000014 	andeq	r0, r0, r4, lsl r0
 444:	00000420 	andeq	r0, r0, r0, lsr #8
 448:	0000a220 	andeq	sl, r0, r0, lsr #4
 44c:	00000014 	andeq	r0, r0, r4, lsl r0
 450:	83080e42 	movwhi	r0, #36418	; 0x8e42
 454:	00018e02 	andeq	r8, r1, r2, lsl #28
 458:	00000014 	andeq	r0, r0, r4, lsl r0
 45c:	00000420 	andeq	r0, r0, r0, lsr #8
 460:	0000a234 	andeq	sl, r0, r4, lsr r2
 464:	0000000c 	andeq	r0, r0, ip
 468:	83080e42 	movwhi	r0, #36418	; 0x8e42
 46c:	00018e02 	andeq	r8, r1, r2, lsl #28
 470:	00000018 	andeq	r0, r0, r8, lsl r0
 474:	00000420 	andeq	r0, r0, r0, lsr #8
 478:	0000a240 	andeq	sl, r0, r0, asr #4
 47c:	00000024 	andeq	r0, r0, r4, lsr #32
 480:	83100e42 	tsthi	r0, #1056	; 0x420
 484:	85038404 	strhi	r8, [r3, #-1028]	; 0x404
 488:	00018e02 	andeq	r8, r1, r2, lsl #28
 48c:	00000014 	andeq	r0, r0, r4, lsl r0
 490:	00000420 	andeq	r0, r0, r0, lsr #8
 494:	0000a264 	andeq	sl, r0, r4, ror #4
 498:	00000014 	andeq	r0, r0, r4, lsl r0
 49c:	83080e42 	movwhi	r0, #36418	; 0x8e42
 4a0:	00018e02 	andeq	r8, r1, r2, lsl #28
 4a4:	00000014 	andeq	r0, r0, r4, lsl r0
 4a8:	00000420 	andeq	r0, r0, r0, lsr #8
 4ac:	0000a278 	andeq	sl, r0, r8, ror r2
 4b0:	00000014 	andeq	r0, r0, r4, lsl r0
 4b4:	83080e42 	movwhi	r0, #36418	; 0x8e42
 4b8:	00018e02 	andeq	r8, r1, r2, lsl #28
 4bc:	0000000c 	andeq	r0, r0, ip
 4c0:	ffffffff 			; <UNDEFINED> instruction: 0xffffffff
 4c4:	7c020001 	stcvc	0, cr0, [r2], {1}
 4c8:	000d0c0e 	andeq	r0, sp, lr, lsl #24
 4cc:	00000018 	andeq	r0, r0, r8, lsl r0
 4d0:	000004bc 			; <UNDEFINED> instruction: 0x000004bc
 4d4:	0000a28c 	andeq	sl, r0, ip, lsl #5
 4d8:	00000074 	andeq	r0, r0, r4, ror r0
 4dc:	84100e42 	ldrhi	r0, [r0], #-3650	; 0xe42
 4e0:	86038504 	strhi	r8, [r3], -r4, lsl #10
 4e4:	00018e02 	andeq	r8, r1, r2, lsl #28
 4e8:	00000014 	andeq	r0, r0, r4, lsl r0
 4ec:	000004bc 			; <UNDEFINED> instruction: 0x000004bc
 4f0:	0000a300 	andeq	sl, r0, r0, lsl #6
 4f4:	0000009c 	muleq	r0, ip, r0
 4f8:	83080e42 	movwhi	r0, #36418	; 0x8e42
 4fc:	00018e02 	andeq	r8, r1, r2, lsl #28
 500:	00000014 	andeq	r0, r0, r4, lsl r0
 504:	000004bc 			; <UNDEFINED> instruction: 0x000004bc
 508:	0000a39c 	muleq	r0, ip, r3
 50c:	0000005c 	andeq	r0, r0, ip, asr r0
 510:	83080e42 	movwhi	r0, #36418	; 0x8e42
 514:	00018e02 	andeq	r8, r1, r2, lsl #28
 518:	0000000c 	andeq	r0, r0, ip
 51c:	000004bc 			; <UNDEFINED> instruction: 0x000004bc
 520:	0000a3f8 	strdeq	sl, [r0], -r8
 524:	00000018 	andeq	r0, r0, r8, lsl r0
 528:	0000000c 	andeq	r0, r0, ip
 52c:	000004bc 			; <UNDEFINED> instruction: 0x000004bc
 530:	0000a410 	andeq	sl, r0, r0, lsl r4
 534:	00000010 	andeq	r0, r0, r0, lsl r0
 538:	00000014 	andeq	r0, r0, r4, lsl r0
 53c:	000004bc 			; <UNDEFINED> instruction: 0x000004bc
 540:	0000a420 	andeq	sl, r0, r0, lsr #8
 544:	00000054 	andeq	r0, r0, r4, asr r0
 548:	83080e42 	movwhi	r0, #36418	; 0x8e42
 54c:	00018e02 	andeq	r8, r1, r2, lsl #28
 550:	0000000c 	andeq	r0, r0, ip
 554:	ffffffff 			; <UNDEFINED> instruction: 0xffffffff
 558:	7c020001 	stcvc	0, cr0, [r2], {1}
 55c:	000d0c0e 	andeq	r0, sp, lr, lsl #24
 560:	0000001c 	andeq	r0, r0, ip, lsl r0
 564:	00000550 	andeq	r0, r0, r0, asr r5
 568:	0000a474 	andeq	sl, r0, r4, ror r4
 56c:	00000154 	andeq	r0, r0, r4, asr r1
 570:	84180e42 	ldrhi	r0, [r8], #-3650	; 0xe42
 574:	86058506 	strhi	r8, [r5], -r6, lsl #10
 578:	88038704 	stmdahi	r3, {r2, r8, r9, sl, pc}
 57c:	00018e02 	andeq	r8, r1, r2, lsl #28
 580:	00000020 	andeq	r0, r0, r0, lsr #32
 584:	00000550 	andeq	r0, r0, r0, asr r5
 588:	0000a5c8 	andeq	sl, r0, r8, asr #11
 58c:	000001c8 	andeq	r0, r0, r8, asr #3
 590:	83200e42 	teqhi	r0, #1056	; 0x420
 594:	85078408 	strhi	r8, [r7, #-1032]	; 0x408
 598:	87058606 	strhi	r8, [r5, -r6, lsl #12]
 59c:	89038804 	stmdbhi	r3, {r2, fp, pc}
 5a0:	00018e02 	andeq	r8, r1, r2, lsl #28
 5a4:	00000020 	andeq	r0, r0, r0, lsr #32
 5a8:	00000550 	andeq	r0, r0, r0, asr r5
 5ac:	0000a790 	muleq	r0, r0, r7
 5b0:	00000090 	muleq	r0, r0, r0
 5b4:	84200e42 	strthi	r0, [r0], #-3650	; 0xe42
 5b8:	86078508 	strhi	r8, [r7], -r8, lsl #10
 5bc:	88058706 	stmdahi	r5, {r1, r2, r8, r9, sl, pc}
 5c0:	8a038904 	bhi	e29d8 <__bss_end__+0xd66a8>
 5c4:	00018e02 	andeq	r8, r1, r2, lsl #28
 5c8:	0000001c 	andeq	r0, r0, ip, lsl r0
 5cc:	00000550 	andeq	r0, r0, r0, asr r5
 5d0:	0000a820 	andeq	sl, r0, r0, lsr #16
 5d4:	0000007c 	andeq	r0, r0, ip, ror r0
 5d8:	84180e42 	ldrhi	r0, [r8], #-3650	; 0xe42
 5dc:	86058506 	strhi	r8, [r5], -r6, lsl #10
 5e0:	88038704 	stmdahi	r3, {r2, r8, r9, sl, pc}
 5e4:	00018e02 	andeq	r8, r1, r2, lsl #28
 5e8:	0000001c 	andeq	r0, r0, ip, lsl r0
 5ec:	00000550 	andeq	r0, r0, r0, asr r5
 5f0:	0000a89c 	muleq	r0, ip, r8
 5f4:	000000c0 	andeq	r0, r0, r0, asr #1
 5f8:	84180e42 	ldrhi	r0, [r8], #-3650	; 0xe42
 5fc:	86058506 	strhi	r8, [r5], -r6, lsl #10
 600:	88038704 	stmdahi	r3, {r2, r8, r9, sl, pc}
 604:	00018e02 	andeq	r8, r1, r2, lsl #28
 608:	00000014 	andeq	r0, r0, r4, lsl r0
 60c:	00000550 	andeq	r0, r0, r0, asr r5
 610:	0000a95c 	andeq	sl, r0, ip, asr r9
 614:	0000003c 	andeq	r0, r0, ip, lsr r0
 618:	83080e42 	movwhi	r0, #36418	; 0x8e42
 61c:	00018e02 	andeq	r8, r1, r2, lsl #28
 620:	00000018 	andeq	r0, r0, r8, lsl r0
 624:	00000550 	andeq	r0, r0, r0, asr r5
 628:	0000a998 	muleq	r0, r8, r9
 62c:	0000002c 	andeq	r0, r0, ip, lsr #32
 630:	83100e42 	tsthi	r0, #1056	; 0x420
 634:	85038404 	strhi	r8, [r3, #-1028]	; 0x404
 638:	00018e02 	andeq	r8, r1, r2, lsl #28
 63c:	00000024 	andeq	r0, r0, r4, lsr #32
 640:	00000550 	andeq	r0, r0, r0, asr r5
 644:	0000a9c4 	andeq	sl, r0, r4, asr #19
 648:	00000084 	andeq	r0, r0, r4, lsl #1
 64c:	810c0e42 	tsthi	ip, r2, asr #28
 650:	83028203 	movwhi	r8, #8707	; 0x2203
 654:	180e4201 	stmdane	lr, {r0, r9, lr}
 658:	05850684 	streq	r0, [r5, #1668]	; 0x684
 65c:	0e42048e 	cdpeq	4, 4, cr0, cr2, cr14, {4}
 660:	000003e8 	andeq	r0, r0, r8, ror #7
 664:	00000014 	andeq	r0, r0, r4, lsl r0
 668:	00000550 	andeq	r0, r0, r0, asr r5
 66c:	0000aa48 	andeq	sl, r0, r8, asr #20
 670:	0000004c 	andeq	r0, r0, ip, asr #32
 674:	8e040e42 	cdphi	14, 0, cr0, cr4, cr2, {2}
 678:	100e4201 	andne	r4, lr, r1, lsl #4
 67c:	0000000c 	andeq	r0, r0, ip
 680:	ffffffff 			; <UNDEFINED> instruction: 0xffffffff
 684:	7c020001 	stcvc	0, cr0, [r2], {1}
 688:	000d0c0e 	andeq	r0, sp, lr, lsl #24
 68c:	00000018 	andeq	r0, r0, r8, lsl r0
 690:	0000067c 	andeq	r0, r0, ip, ror r6
 694:	0000aa94 	muleq	r0, r4, sl
 698:	0000009c 	muleq	r0, ip, r0
 69c:	83100e42 	tsthi	r0, #1056	; 0x420
 6a0:	85038404 	strhi	r8, [r3, #-1028]	; 0x404
 6a4:	00018e02 	andeq	r8, r1, r2, lsl #28
 6a8:	00000014 	andeq	r0, r0, r4, lsl r0
 6ac:	0000067c 	andeq	r0, r0, ip, ror r6
 6b0:	0000ab30 	andeq	sl, r0, r0, lsr fp
 6b4:	0000001c 	andeq	r0, r0, ip, lsl r0
 6b8:	83080e42 	movwhi	r0, #36418	; 0x8e42
 6bc:	00018e02 	andeq	r8, r1, r2, lsl #28
 6c0:	00000014 	andeq	r0, r0, r4, lsl r0
 6c4:	0000067c 	andeq	r0, r0, ip, ror r6
 6c8:	0000ab4c 	andeq	sl, r0, ip, asr #22
 6cc:	00000028 	andeq	r0, r0, r8, lsr #32
 6d0:	83080e42 	movwhi	r0, #36418	; 0x8e42
 6d4:	00018e02 	andeq	r8, r1, r2, lsl #28
 6d8:	00000014 	andeq	r0, r0, r4, lsl r0
 6dc:	0000067c 	andeq	r0, r0, ip, ror r6
 6e0:	0000ab74 	andeq	sl, r0, r4, ror fp
 6e4:	0000001c 	andeq	r0, r0, ip, lsl r0
 6e8:	83080e42 	movwhi	r0, #36418	; 0x8e42
 6ec:	00018e02 	andeq	r8, r1, r2, lsl #28
 6f0:	00000014 	andeq	r0, r0, r4, lsl r0
 6f4:	0000067c 	andeq	r0, r0, ip, ror r6
 6f8:	0000ab90 	muleq	r0, r0, fp
 6fc:	0000002c 	andeq	r0, r0, ip, lsr #32
 700:	84080e42 	strhi	r0, [r8], #-3650	; 0xe42
 704:	00018e02 	andeq	r8, r1, r2, lsl #28
 708:	00000014 	andeq	r0, r0, r4, lsl r0
 70c:	0000067c 	andeq	r0, r0, ip, ror r6
 710:	0000abbc 			; <UNDEFINED> instruction: 0x0000abbc
 714:	0000000c 	andeq	r0, r0, ip
 718:	83080e42 	movwhi	r0, #36418	; 0x8e42
 71c:	00018e02 	andeq	r8, r1, r2, lsl #28
 720:	00000014 	andeq	r0, r0, r4, lsl r0
 724:	0000067c 	andeq	r0, r0, ip, ror r6
 728:	0000abc8 	andeq	sl, r0, r8, asr #23
 72c:	00000020 	andeq	r0, r0, r0, lsr #32
 730:	83080e42 	movwhi	r0, #36418	; 0x8e42
 734:	00018e02 	andeq	r8, r1, r2, lsl #28
 738:	0000000c 	andeq	r0, r0, ip
 73c:	ffffffff 			; <UNDEFINED> instruction: 0xffffffff
 740:	7c020001 	stcvc	0, cr0, [r2], {1}
 744:	000d0c0e 	andeq	r0, sp, lr, lsl #24
 748:	00000018 	andeq	r0, r0, r8, lsl r0
 74c:	00000738 	andeq	r0, r0, r8, lsr r7
 750:	0000ac4c 	andeq	sl, r0, ip, asr #24
 754:	000000d4 	ldrdeq	r0, [r0], -r4
 758:	83100e42 	tsthi	r0, #1056	; 0x420
 75c:	85038404 	strhi	r8, [r3, #-1028]	; 0x404
 760:	00018e02 	andeq	r8, r1, r2, lsl #28
 764:	00000014 	andeq	r0, r0, r4, lsl r0
 768:	00000738 	andeq	r0, r0, r8, lsr r7
 76c:	0000ad20 	andeq	sl, r0, r0, lsr #26
 770:	00000038 	andeq	r0, r0, r8, lsr r0
 774:	83080e42 	movwhi	r0, #36418	; 0x8e42
 778:	00018e02 	andeq	r8, r1, r2, lsl #28
 77c:	00000014 	andeq	r0, r0, r4, lsl r0
 780:	00000738 	andeq	r0, r0, r8, lsr r7
 784:	0000ad58 	andeq	sl, r0, r8, asr sp
 788:	00000038 	andeq	r0, r0, r8, lsr r0
 78c:	83080e42 	movwhi	r0, #36418	; 0x8e42
 790:	00018e02 	andeq	r8, r1, r2, lsl #28
 794:	00000018 	andeq	r0, r0, r8, lsl r0
 798:	00000738 	andeq	r0, r0, r8, lsr r7
 79c:	0000ad90 	muleq	r0, r0, sp
 7a0:	000000cc 	andeq	r0, r0, ip, asr #1
 7a4:	83100e42 	tsthi	r0, #1056	; 0x420
 7a8:	85038404 	strhi	r8, [r3, #-1028]	; 0x404
 7ac:	00018e02 	andeq	r8, r1, r2, lsl #28
 7b0:	00000014 	andeq	r0, r0, r4, lsl r0
 7b4:	00000738 	andeq	r0, r0, r8, lsr r7
 7b8:	0000ae5c 	andeq	sl, r0, ip, asr lr
 7bc:	0000004c 	andeq	r0, r0, ip, asr #32
 7c0:	84080e42 	strhi	r0, [r8], #-3650	; 0xe42
 7c4:	00018e02 	andeq	r8, r1, r2, lsl #28
 7c8:	00000014 	andeq	r0, r0, r4, lsl r0
 7cc:	00000738 	andeq	r0, r0, r8, lsr r7
 7d0:	0000aea8 	andeq	sl, r0, r8, lsr #29
 7d4:	00000024 	andeq	r0, r0, r4, lsr #32
 7d8:	83080e42 	movwhi	r0, #36418	; 0x8e42
 7dc:	00018e02 	andeq	r8, r1, r2, lsl #28
 7e0:	00000018 	andeq	r0, r0, r8, lsl r0
 7e4:	00000738 	andeq	r0, r0, r8, lsr r7
 7e8:	0000aecc 	andeq	sl, r0, ip, asr #29
 7ec:	000000d8 	ldrdeq	r0, [r0], -r8
 7f0:	84100e42 	ldrhi	r0, [r0], #-3650	; 0xe42
 7f4:	86038504 	strhi	r8, [r3], -r4, lsl #10
 7f8:	00018e02 	andeq	r8, r1, r2, lsl #28
 7fc:	00000014 	andeq	r0, r0, r4, lsl r0
 800:	00000738 	andeq	r0, r0, r8, lsr r7
 804:	0000afa4 	andeq	sl, r0, r4, lsr #31
 808:	0000002c 	andeq	r0, r0, ip, lsr #32
 80c:	83080e42 	movwhi	r0, #36418	; 0x8e42
 810:	00018e02 	andeq	r8, r1, r2, lsl #28
 814:	00000018 	andeq	r0, r0, r8, lsl r0
 818:	00000738 	andeq	r0, r0, r8, lsr r7
 81c:	0000afd0 	ldrdeq	sl, [r0], -r0
 820:	00000084 	andeq	r0, r0, r4, lsl #1
 824:	83100e42 	tsthi	r0, #1056	; 0x420
 828:	85038404 	strhi	r8, [r3, #-1028]	; 0x404
 82c:	00018e02 	andeq	r8, r1, r2, lsl #28
 830:	00000018 	andeq	r0, r0, r8, lsl r0
 834:	00000738 	andeq	r0, r0, r8, lsr r7
 838:	0000b054 	andeq	fp, r0, r4, asr r0
 83c:	00000084 	andeq	r0, r0, r4, lsl #1
 840:	83100e42 	tsthi	r0, #1056	; 0x420
 844:	85038404 	strhi	r8, [r3, #-1028]	; 0x404
 848:	00018e02 	andeq	r8, r1, r2, lsl #28
 84c:	00000014 	andeq	r0, r0, r4, lsl r0
 850:	00000738 	andeq	r0, r0, r8, lsr r7
 854:	0000b0d8 	ldrdeq	fp, [r0], -r8
 858:	00000084 	andeq	r0, r0, r4, lsl #1
 85c:	84080e42 	strhi	r0, [r8], #-3650	; 0xe42
 860:	00018e02 	andeq	r8, r1, r2, lsl #28
 864:	00000014 	andeq	r0, r0, r4, lsl r0
 868:	00000738 	andeq	r0, r0, r8, lsr r7
 86c:	0000b15c 	andeq	fp, r0, ip, asr r1
 870:	00000058 	andeq	r0, r0, r8, asr r0
 874:	84080e42 	strhi	r0, [r8], #-3650	; 0xe42
 878:	00018e02 	andeq	r8, r1, r2, lsl #28
 87c:	0000000c 	andeq	r0, r0, ip
 880:	ffffffff 			; <UNDEFINED> instruction: 0xffffffff
 884:	7c020001 	stcvc	0, cr0, [r2], {1}
 888:	000d0c0e 	andeq	r0, sp, lr, lsl #24
 88c:	0000000c 	andeq	r0, r0, ip
 890:	0000087c 	andeq	r0, r0, ip, ror r8
 894:	0000b1b4 			; <UNDEFINED> instruction: 0x0000b1b4
 898:	00000020 	andeq	r0, r0, r0, lsr #32
 89c:	0000000c 	andeq	r0, r0, ip
 8a0:	ffffffff 			; <UNDEFINED> instruction: 0xffffffff
 8a4:	7c020001 	stcvc	0, cr0, [r2], {1}
 8a8:	000d0c0e 	andeq	r0, sp, lr, lsl #24
 8ac:	00000014 	andeq	r0, r0, r4, lsl r0
 8b0:	0000089c 	muleq	r0, ip, r8
 8b4:	0000b1d4 	ldrdeq	fp, [r0], -r4
 8b8:	00000028 	andeq	r0, r0, r8, lsr #32
 8bc:	83080e42 	movwhi	r0, #36418	; 0x8e42
 8c0:	00018e02 	andeq	r8, r1, r2, lsl #28
 8c4:	0000000c 	andeq	r0, r0, ip
 8c8:	0000089c 	muleq	r0, ip, r8
 8cc:	0000b1fc 	strdeq	fp, [r0], -ip
 8d0:	00000028 	andeq	r0, r0, r8, lsr #32

Disassembly of section .debug_ranges:

00000000 <.debug_ranges>:
   0:	00000cf8 	strdeq	r0, [r0], -r8
   4:	00000d08 	andeq	r0, r0, r8, lsl #26
   8:	00000d0c 	andeq	r0, r0, ip, lsl #26
   c:	00000e24 	andeq	r0, r0, r4, lsr #28
	...
  18:	00000628 	andeq	r0, r0, r8, lsr #12
  1c:	00000648 	andeq	r0, r0, r8, asr #12
  20:	0000064c 	andeq	r0, r0, ip, asr #12
  24:	00000654 	andeq	r0, r0, r4, asr r6
	...
  30:	0000003c 	andeq	r0, r0, ip, lsr r0
  34:	0000004c 	andeq	r0, r0, ip, asr #32
  38:	00000060 	andeq	r0, r0, r0, rrx
  3c:	00000068 	andeq	r0, r0, r8, rrx
	...
  48:	00000294 	muleq	r0, r4, r2
  4c:	00000298 	muleq	r0, r8, r2
  50:	000002c8 	andeq	r0, r0, r8, asr #5
  54:	000004b8 			; <UNDEFINED> instruction: 0x000004b8
	...
  60:	0000a190 	muleq	r0, r0, r1
  64:	0000a204 	andeq	sl, r0, r4, lsl #4
	...
