
0-reboot.elf:     file format elf32-littlearm


Disassembly of section .text:

00008000 <_start>:
    8000:	e3a0d302 	mov	sp, #134217728	; 0x8000000
    8004:	e3a0b000 	mov	fp, #0
    8008:	eb000179 	bl	85f4 <_cstart>
    800c:	eb0001a7 	bl	86b0 <rpi_reboot>

00008010 <notmain>:
    8010:	e92d4008 	push	{r3, lr}
    8014:	eb000361 	bl	8da0 <uart_init>
    8018:	e59f0004 	ldr	r0, [pc, #4]	; 8024 <notmain+0x14>
    801c:	eb000001 	bl	8028 <printk>
    8020:	eb000161 	bl	85ac <clean_reboot>
    8024:	0000965c 	andeq	r9, r0, ip, asr r6

00008028 <printk>:
    8028:	e92d000f 	push	{r0, r1, r2, r3}
    802c:	e92d4030 	push	{r4, r5, lr}
    8030:	e24dd00c 	sub	sp, sp, #12
    8034:	e28d301c 	add	r3, sp, #28
    8038:	e58d3004 	str	r3, [sp, #4]
    803c:	e59f4034 	ldr	r4, [pc, #52]	; 8078 <printk+0x50>
    8040:	e1a00004 	mov	r0, r4
    8044:	e3a01b01 	mov	r1, #1024	; 0x400
    8048:	e59d2018 	ldr	r2, [sp, #24]
    804c:	eb0000b4 	bl	8324 <va_printk>
    8050:	e1a05000 	mov	r5, r0
    8054:	e59f3020 	ldr	r3, [pc, #32]	; 807c <printk+0x54>
    8058:	e5933000 	ldr	r3, [r3]
    805c:	e1a00004 	mov	r0, r4
    8060:	e12fff33 	blx	r3
    8064:	e1a00005 	mov	r0, r5
    8068:	e28dd00c 	add	sp, sp, #12
    806c:	e8bd4030 	pop	{r4, r5, lr}
    8070:	e28dd010 	add	sp, sp, #16
    8074:	e12fff1e 	bx	lr
    8078:	000098fc 	strdeq	r9, [r0], -ip
    807c:	000095c0 	andeq	r9, r0, r0, asr #11

00008080 <internal_putk>:
    8080:	e92d4038 	push	{r3, r4, r5, lr}
    8084:	e1a04000 	mov	r4, r0
    8088:	e59f5020 	ldr	r5, [pc, #32]	; 80b0 <internal_putk+0x30>
    808c:	ea000002 	b	809c <internal_putk+0x1c>
    8090:	e5953000 	ldr	r3, [r5]
    8094:	e12fff33 	blx	r3
    8098:	e2844001 	add	r4, r4, #1
    809c:	e5d40000 	ldrb	r0, [r4]
    80a0:	e3500000 	cmp	r0, #0
    80a4:	1afffff9 	bne	8090 <internal_putk+0x10>
    80a8:	e3a00001 	mov	r0, #1
    80ac:	e8bd8038 	pop	{r3, r4, r5, pc}
    80b0:	00009658 	andeq	r9, r0, r8, asr r6

000080b4 <isdigit>:
    80b4:	e2400030 	sub	r0, r0, #48	; 0x30
    80b8:	e3500009 	cmp	r0, #9
    80bc:	83a00000 	movhi	r0, #0
    80c0:	93a00001 	movls	r0, #1
    80c4:	e12fff1e 	bx	lr

000080c8 <pad>:
    80c8:	e0611000 	rsb	r1, r1, r0
    80cc:	e3a03020 	mov	r3, #32
    80d0:	ea000002 	b	80e0 <pad+0x18>
    80d4:	e5c03000 	strb	r3, [r0]
    80d8:	e2811001 	add	r1, r1, #1
    80dc:	e2800001 	add	r0, r0, #1
    80e0:	e1510002 	cmp	r1, r2
    80e4:	bafffffa 	blt	80d4 <pad+0xc>
    80e8:	e3a03000 	mov	r3, #0
    80ec:	e5c03000 	strb	r3, [r0]
    80f0:	e12fff1e 	bx	lr

000080f4 <reverse>:
    80f4:	e063c002 	rsb	ip, r3, r2
    80f8:	e28cc001 	add	ip, ip, #1
    80fc:	e15c0001 	cmp	ip, r1
    8100:	c061100c 	rsbgt	r1, r1, ip
    8104:	c0833001 	addgt	r3, r3, r1
    8108:	e2422001 	sub	r2, r2, #1
    810c:	e1a01000 	mov	r1, r0
    8110:	ea000002 	b	8120 <reverse+0x2c>
    8114:	e452c001 	ldrb	ip, [r2], #-1
    8118:	e5c1c000 	strb	ip, [r1]
    811c:	e2811001 	add	r1, r1, #1
    8120:	e1520003 	cmp	r2, r3
    8124:	2afffffa 	bcs	8114 <reverse+0x20>
    8128:	e3a03000 	mov	r3, #0
    812c:	e5c13000 	strb	r3, [r1]
    8130:	e12fff1e 	bx	lr

00008134 <emit>:
    8134:	e92d41f0 	push	{r4, r5, r6, r7, r8, lr}
    8138:	e24dd040 	sub	sp, sp, #64	; 0x40
    813c:	e1a05001 	mov	r5, r1
    8140:	e1a04002 	mov	r4, r2
    8144:	e59d2058 	ldr	r2, [sp, #88]	; 0x58
    8148:	e1520004 	cmp	r2, r4
    814c:	c2442001 	subgt	r2, r4, #1
    8150:	e1a0c003 	mov	ip, r3
    8154:	e2400002 	sub	r0, r0, #2
    8158:	e350000e 	cmp	r0, #14
    815c:	979ff100 	ldrls	pc, [pc, r0, lsl #2]
    8160:	ea000042 	b	8270 <emit+0x13c>
    8164:	00008248 	andeq	r8, r0, r8, asr #4
    8168:	00008270 	andeq	r8, r0, r0, ror r2
    816c:	00008270 	andeq	r8, r0, r0, ror r2
    8170:	00008270 	andeq	r8, r0, r0, ror r2
    8174:	00008270 	andeq	r8, r0, r0, ror r2
    8178:	00008270 	andeq	r8, r0, r0, ror r2
    817c:	0000823c 	andeq	r8, r0, ip, lsr r2
    8180:	00008270 	andeq	r8, r0, r0, ror r2
    8184:	000081a0 	andeq	r8, r0, r0, lsr #3
    8188:	00008270 	andeq	r8, r0, r0, ror r2
    818c:	00008270 	andeq	r8, r0, r0, ror r2
    8190:	00008270 	andeq	r8, r0, r0, ror r2
    8194:	00008270 	andeq	r8, r0, r0, ror r2
    8198:	00008270 	andeq	r8, r0, r0, ror r2
    819c:	00008214 	andeq	r8, r0, r4, lsl r2
    81a0:	e59d105c 	ldr	r1, [sp, #92]	; 0x5c
    81a4:	e2911000 	adds	r1, r1, #0
    81a8:	13a01001 	movne	r1, #1
    81ac:	e0111fa3 	ands	r1, r1, r3, lsr #31
    81b0:	1263c000 	rsbne	ip, r3, #0
    81b4:	13a08001 	movne	r8, #1
    81b8:	03a08000 	moveq	r8, #0
    81bc:	e1a0100d 	mov	r1, sp
    81c0:	e59f70ec 	ldr	r7, [pc, #236]	; 82b4 <emit+0x180>
    81c4:	e59f60ec 	ldr	r6, [pc, #236]	; 82b8 <emit+0x184>
    81c8:	ea000000 	b	81d0 <emit+0x9c>
    81cc:	e1a01003 	mov	r1, r3
    81d0:	e2813001 	add	r3, r1, #1
    81d4:	e08e0c97 	umull	r0, lr, r7, ip
    81d8:	e1a0e1ae 	lsr	lr, lr, #3
    81dc:	e1a0000e 	mov	r0, lr
    81e0:	e08ee10e 	add	lr, lr, lr, lsl #2
    81e4:	e1a0e08e 	lsl	lr, lr, #1
    81e8:	e06ee00c 	rsb	lr, lr, ip
    81ec:	e7d6c00e 	ldrb	ip, [r6, lr]
    81f0:	e5c1c000 	strb	ip, [r1]
    81f4:	e1a0c000 	mov	ip, r0
    81f8:	e3500000 	cmp	r0, #0
    81fc:	1afffff2 	bne	81cc <emit+0x98>
    8200:	e3580000 	cmp	r8, #0
    8204:	12813002 	addne	r3, r1, #2
    8208:	13a0002d 	movne	r0, #45	; 0x2d
    820c:	15c10001 	strbne	r0, [r1, #1]
    8210:	ea00001d 	b	828c <emit+0x158>
    8214:	e1a0e00d 	mov	lr, sp
    8218:	e59f009c 	ldr	r0, [pc, #156]	; 82bc <emit+0x188>
    821c:	e28e3001 	add	r3, lr, #1
    8220:	e20c100f 	and	r1, ip, #15
    8224:	e7d01001 	ldrb	r1, [r0, r1]
    8228:	e5ce1000 	strb	r1, [lr]
    822c:	e1a0e003 	mov	lr, r3
    8230:	e1b0c22c 	lsrs	ip, ip, #4
    8234:	1afffff8 	bne	821c <emit+0xe8>
    8238:	ea000013 	b	828c <emit+0x158>
    823c:	e5cd3000 	strb	r3, [sp]
    8240:	e28d3001 	add	r3, sp, #1
    8244:	ea000010 	b	828c <emit+0x158>
    8248:	e1a0e00d 	mov	lr, sp
    824c:	e59f006c 	ldr	r0, [pc, #108]	; 82c0 <emit+0x18c>
    8250:	e28e3001 	add	r3, lr, #1
    8254:	e20c1001 	and	r1, ip, #1
    8258:	e7d01001 	ldrb	r1, [r0, r1]
    825c:	e5ce1000 	strb	r1, [lr]
    8260:	e1a0e003 	mov	lr, r3
    8264:	e1b0c0ac 	lsrs	ip, ip, #1
    8268:	1afffff8 	bne	8250 <emit+0x11c>
    826c:	ea000006 	b	828c <emit+0x158>
    8270:	eb0004ac 	bl	9528 <rpi_reset_putc>
    8274:	e59f0048 	ldr	r0, [pc, #72]	; 82c4 <emit+0x190>
    8278:	e59f1048 	ldr	r1, [pc, #72]	; 82c8 <emit+0x194>
    827c:	e59f2048 	ldr	r2, [pc, #72]	; 82cc <emit+0x198>
    8280:	e3a03075 	mov	r3, #117	; 0x75
    8284:	ebffff67 	bl	8028 <printk>
    8288:	eb0000c7 	bl	85ac <clean_reboot>
    828c:	e1a00003 	mov	r0, r3
    8290:	e1a0100d 	mov	r1, sp
    8294:	ebffff8b 	bl	80c8 <pad>
    8298:	e1a02000 	mov	r2, r0
    829c:	e1a00005 	mov	r0, r5
    82a0:	e1a01004 	mov	r1, r4
    82a4:	e1a0300d 	mov	r3, sp
    82a8:	ebffff91 	bl	80f4 <reverse>
    82ac:	e28dd040 	add	sp, sp, #64	; 0x40
    82b0:	e8bd81f0 	pop	{r4, r5, r6, r7, r8, pc}
    82b4:	cccccccd 	stclgt	12, cr12, [ip], {205}	; 0xcd
    82b8:	000096c0 	andeq	r9, r0, r0, asr #13
    82bc:	000096cc 	andeq	r9, r0, ip, asr #13
    82c0:	000096e0 	andeq	r9, r0, r0, ror #13
    82c4:	00009698 	muleq	r0, r8, r6
    82c8:	000096ac 	andeq	r9, r0, ip, lsr #13
    82cc:	00009674 	andeq	r9, r0, r4, ror r6

000082d0 <rpi_set_output>:
    82d0:	e92d4008 	push	{r3, lr}
    82d4:	e3500000 	cmp	r0, #0
    82d8:	1a000006 	bne	82f8 <rpi_set_output+0x28>
    82dc:	eb000491 	bl	9528 <rpi_reset_putc>
    82e0:	e59f0028 	ldr	r0, [pc, #40]	; 8310 <rpi_set_output+0x40>
    82e4:	e59f1028 	ldr	r1, [pc, #40]	; 8314 <rpi_set_output+0x44>
    82e8:	e59f2028 	ldr	r2, [pc, #40]	; 8318 <rpi_set_output+0x48>
    82ec:	e3a03020 	mov	r3, #32
    82f0:	ebffff4c 	bl	8028 <printk>
    82f4:	eb0000ac 	bl	85ac <clean_reboot>
    82f8:	e59f301c 	ldr	r3, [pc, #28]	; 831c <rpi_set_output+0x4c>
    82fc:	e5830000 	str	r0, [r3]
    8300:	e3510000 	cmp	r1, #0
    8304:	159f3014 	ldrne	r3, [pc, #20]	; 8320 <rpi_set_output+0x50>
    8308:	15831000 	strne	r1, [r3]
    830c:	e8bd8008 	pop	{r3, pc}
    8310:	000096e4 	andeq	r9, r0, r4, ror #13
    8314:	000096ac 	andeq	r9, r0, ip, lsr #13
    8318:	0000967c 	andeq	r9, r0, ip, ror r6
    831c:	00009658 	andeq	r9, r0, r8, asr r6
    8320:	000095c0 	andeq	r9, r0, r0, asr #11

00008324 <va_printk>:
    8324:	e92d4ff0 	push	{r4, r5, r6, r7, r8, r9, sl, fp, lr}
    8328:	e24dd08c 	sub	sp, sp, #140	; 0x8c
    832c:	e1a0a000 	mov	sl, r0
    8330:	e1a09003 	mov	r9, r3
    8334:	e2411001 	sub	r1, r1, #1
    8338:	e0808001 	add	r8, r0, r1
    833c:	e3a03000 	mov	r3, #0
    8340:	e5c03000 	strb	r3, [r0]
    8344:	e1a04000 	mov	r4, r0
    8348:	e1a0b003 	mov	fp, r3
    834c:	ea000086 	b	856c <va_printk+0x248>
    8350:	e3530025 	cmp	r3, #37	; 0x25
    8354:	12822001 	addne	r2, r2, #1
    8358:	15c43000 	strbne	r3, [r4]
    835c:	12844001 	addne	r4, r4, #1
    8360:	1a000081 	bne	856c <va_printk+0x248>
    8364:	e5d21001 	ldrb	r1, [r2, #1]
    8368:	e3510025 	cmp	r1, #37	; 0x25
    836c:	05c43000 	strbeq	r3, [r4]
    8370:	02822002 	addeq	r2, r2, #2
    8374:	02844001 	addeq	r4, r4, #1
    8378:	0a00007b 	beq	856c <va_printk+0x248>
    837c:	e2826001 	add	r6, r2, #1
    8380:	e1a0700b 	mov	r7, fp
    8384:	ea000004 	b	839c <va_printk+0x78>
    8388:	e0877107 	add	r7, r7, r7, lsl #2
    838c:	e1a07087 	lsl	r7, r7, #1
    8390:	e0877005 	add	r7, r7, r5
    8394:	e2477030 	sub	r7, r7, #48	; 0x30
    8398:	e2866001 	add	r6, r6, #1
    839c:	e5d65000 	ldrb	r5, [r6]
    83a0:	e1a00005 	mov	r0, r5
    83a4:	ebffff42 	bl	80b4 <isdigit>
    83a8:	e3500000 	cmp	r0, #0
    83ac:	1afffff5 	bne	8388 <va_printk+0x64>
    83b0:	e357001f 	cmp	r7, #31
    83b4:	9a000006 	bls	83d4 <va_printk+0xb0>
    83b8:	eb00045a 	bl	9528 <rpi_reset_putc>
    83bc:	e59f01d4 	ldr	r0, [pc, #468]	; 8598 <va_printk+0x274>
    83c0:	e59f11d4 	ldr	r1, [pc, #468]	; 859c <va_printk+0x278>
    83c4:	e59f21d4 	ldr	r2, [pc, #468]	; 85a0 <va_printk+0x27c>
    83c8:	e3a03092 	mov	r3, #146	; 0x92
    83cc:	ebffff15 	bl	8028 <printk>
    83d0:	eb000075 	bl	85ac <clean_reboot>
    83d4:	e2455062 	sub	r5, r5, #98	; 0x62
    83d8:	e3550016 	cmp	r5, #22
    83dc:	979ff105 	ldrls	pc, [pc, r5, lsl #2]
    83e0:	ea00004e 	b	8520 <va_printk+0x1fc>
    83e4:	000084cc 	andeq	r8, r0, ip, asr #9
    83e8:	000084fc 	strdeq	r8, [r0], -ip
    83ec:	0000845c 	andeq	r8, r0, ip, asr r4
    83f0:	00008520 	andeq	r8, r0, r0, lsr #10
    83f4:	00008440 	andeq	r8, r0, r0, asr #8
    83f8:	00008520 	andeq	r8, r0, r0, lsr #10
    83fc:	00008520 	andeq	r8, r0, r0, lsr #10
    8400:	00008520 	andeq	r8, r0, r0, lsr #10
    8404:	00008520 	andeq	r8, r0, r0, lsr #10
    8408:	00008520 	andeq	r8, r0, r0, lsr #10
    840c:	00008520 	andeq	r8, r0, r0, lsr #10
    8410:	00008520 	andeq	r8, r0, r0, lsr #10
    8414:	00008520 	andeq	r8, r0, r0, lsr #10
    8418:	00008520 	andeq	r8, r0, r0, lsr #10
    841c:	000084a8 	andeq	r8, r0, r8, lsr #9
    8420:	00008520 	andeq	r8, r0, r0, lsr #10
    8424:	00008520 	andeq	r8, r0, r0, lsr #10
    8428:	000084f0 	strdeq	r8, [r0], -r0
    842c:	00008520 	andeq	r8, r0, r0, lsr #10
    8430:	00008484 	andeq	r8, r0, r4, lsl #9
    8434:	00008520 	andeq	r8, r0, r0, lsr #10
    8438:	00008520 	andeq	r8, r0, r0, lsr #10
    843c:	000084a8 	andeq	r8, r0, r8, lsr #9
    8440:	eb000438 	bl	9528 <rpi_reset_putc>
    8444:	e59f0158 	ldr	r0, [pc, #344]	; 85a4 <va_printk+0x280>
    8448:	e59f114c 	ldr	r1, [pc, #332]	; 859c <va_printk+0x278>
    844c:	e59f214c 	ldr	r2, [pc, #332]	; 85a0 <va_printk+0x27c>
    8450:	e3a03098 	mov	r3, #152	; 0x98
    8454:	ebfffef3 	bl	8028 <printk>
    8458:	eb000053 	bl	85ac <clean_reboot>
    845c:	e5993000 	ldr	r3, [r9]
    8460:	e2899004 	add	r9, r9, #4
    8464:	e58d7000 	str	r7, [sp]
    8468:	e3a02001 	mov	r2, #1
    846c:	e58d2004 	str	r2, [sp, #4]
    8470:	e3a0000a 	mov	r0, #10
    8474:	e28d1008 	add	r1, sp, #8
    8478:	e3a02080 	mov	r2, #128	; 0x80
    847c:	ebffff2c 	bl	8134 <emit>
    8480:	ea00002f 	b	8544 <va_printk+0x220>
    8484:	e5993000 	ldr	r3, [r9]
    8488:	e2899004 	add	r9, r9, #4
    848c:	e58d7000 	str	r7, [sp]
    8490:	e58db004 	str	fp, [sp, #4]
    8494:	e3a0000a 	mov	r0, #10
    8498:	e28d1008 	add	r1, sp, #8
    849c:	e3a02080 	mov	r2, #128	; 0x80
    84a0:	ebffff23 	bl	8134 <emit>
    84a4:	ea000026 	b	8544 <va_printk+0x220>
    84a8:	e5993000 	ldr	r3, [r9]
    84ac:	e2899004 	add	r9, r9, #4
    84b0:	e58d7000 	str	r7, [sp]
    84b4:	e58db004 	str	fp, [sp, #4]
    84b8:	e3a00010 	mov	r0, #16
    84bc:	e28d1008 	add	r1, sp, #8
    84c0:	e3a02080 	mov	r2, #128	; 0x80
    84c4:	ebffff1a 	bl	8134 <emit>
    84c8:	ea00001d 	b	8544 <va_printk+0x220>
    84cc:	e5993000 	ldr	r3, [r9]
    84d0:	e2899004 	add	r9, r9, #4
    84d4:	e58d7000 	str	r7, [sp]
    84d8:	e58db004 	str	fp, [sp, #4]
    84dc:	e3a00002 	mov	r0, #2
    84e0:	e28d1008 	add	r1, sp, #8
    84e4:	e3a02080 	mov	r2, #128	; 0x80
    84e8:	ebffff11 	bl	8134 <emit>
    84ec:	ea000014 	b	8544 <va_printk+0x220>
    84f0:	e5990000 	ldr	r0, [r9]
    84f4:	e2899004 	add	r9, r9, #4
    84f8:	ea000011 	b	8544 <va_printk+0x220>
    84fc:	e5993000 	ldr	r3, [r9]
    8500:	e2899004 	add	r9, r9, #4
    8504:	e58d7000 	str	r7, [sp]
    8508:	e58db004 	str	fp, [sp, #4]
    850c:	e3a00008 	mov	r0, #8
    8510:	e08d1000 	add	r1, sp, r0
    8514:	e3a02080 	mov	r2, #128	; 0x80
    8518:	ebffff05 	bl	8134 <emit>
    851c:	ea000008 	b	8544 <va_printk+0x220>
    8520:	eb000400 	bl	9528 <rpi_reset_putc>
    8524:	e5d63000 	ldrb	r3, [r6]
    8528:	e58d3000 	str	r3, [sp]
    852c:	e59f0074 	ldr	r0, [pc, #116]	; 85a8 <va_printk+0x284>
    8530:	e59f1064 	ldr	r1, [pc, #100]	; 859c <va_printk+0x278>
    8534:	e59f2064 	ldr	r2, [pc, #100]	; 85a0 <va_printk+0x27c>
    8538:	e3a030b9 	mov	r3, #185	; 0xb9
    853c:	ebfffeb9 	bl	8028 <printk>
    8540:	eb000019 	bl	85ac <clean_reboot>
    8544:	e2862001 	add	r2, r6, #1
    8548:	ea000002 	b	8558 <va_printk+0x234>
    854c:	e2800001 	add	r0, r0, #1
    8550:	e5c43000 	strb	r3, [r4]
    8554:	e2844001 	add	r4, r4, #1
    8558:	e1540008 	cmp	r4, r8
    855c:	2a000002 	bcs	856c <va_printk+0x248>
    8560:	e5d03000 	ldrb	r3, [r0]
    8564:	e3530000 	cmp	r3, #0
    8568:	1afffff7 	bne	854c <va_printk+0x228>
    856c:	e5d23000 	ldrb	r3, [r2]
    8570:	e3530000 	cmp	r3, #0
    8574:	0a000001 	beq	8580 <va_printk+0x25c>
    8578:	e1540008 	cmp	r4, r8
    857c:	3affff73 	bcc	8350 <va_printk+0x2c>
    8580:	e2840001 	add	r0, r4, #1
    8584:	e3a03000 	mov	r3, #0
    8588:	e5c43000 	strb	r3, [r4]
    858c:	e06a0000 	rsb	r0, sl, r0
    8590:	e28dd08c 	add	sp, sp, #140	; 0x8c
    8594:	e8bd8ff0 	pop	{r4, r5, r6, r7, r8, r9, sl, fp, pc}
    8598:	000096fc 	strdeq	r9, [r0], -ip
    859c:	000096ac 	andeq	r9, r0, ip, lsr #13
    85a0:	0000968c 	andeq	r9, r0, ip, lsl #13
    85a4:	00009718 	andeq	r9, r0, r8, lsl r7
    85a8:	00009740 	andeq	r9, r0, r0, asr #14

000085ac <clean_reboot>:
    85ac:	e92d4008 	push	{r3, lr}
    85b0:	e59f3014 	ldr	r3, [pc, #20]	; 85cc <clean_reboot+0x20>
    85b4:	e5933000 	ldr	r3, [r3]
    85b8:	e59f0010 	ldr	r0, [pc, #16]	; 85d0 <clean_reboot+0x24>
    85bc:	e12fff33 	blx	r3
    85c0:	e3a00064 	mov	r0, #100	; 0x64
    85c4:	eb000063 	bl	8758 <delay_ms>
    85c8:	eb000038 	bl	86b0 <rpi_reboot>
    85cc:	000095c0 	andeq	r9, r0, r0, asr #11
    85d0:	00009778 	andeq	r9, r0, r8, ror r7

000085d4 <internal_sw_putchar>:
    85d4:	e92d4010 	push	{r4, lr}
    85d8:	e1a04000 	mov	r4, r0
    85dc:	e59f000c 	ldr	r0, [pc, #12]	; 85f0 <internal_sw_putchar+0x1c>
    85e0:	e6ef1074 	uxtb	r1, r4
    85e4:	eb000065 	bl	8780 <sw_uart_putc>
    85e8:	e1a00004 	mov	r0, r4
    85ec:	e8bd8010 	pop	{r4, pc}
    85f0:	00009cfc 	strdeq	r9, [r0], -ip

000085f4 <_cstart>:
    85f4:	e92d4008 	push	{r3, lr}
    85f8:	e59f3068 	ldr	r3, [pc, #104]	; 8668 <_cstart+0x74>
    85fc:	e59f2068 	ldr	r2, [pc, #104]	; 866c <_cstart+0x78>
    8600:	e3a01000 	mov	r1, #0
    8604:	ea000001 	b	8610 <_cstart+0x1c>
    8608:	e5831000 	str	r1, [r3]
    860c:	e2833004 	add	r3, r3, #4
    8610:	e1530002 	cmp	r3, r2
    8614:	3afffffb 	bcc	8608 <_cstart+0x14>
    8618:	eb0003d6 	bl	9578 <cb_get_block>
    861c:	e3500000 	cmp	r0, #0
    8620:	0a00000e 	beq	8660 <_cstart+0x6c>
    8624:	e5d02004 	ldrb	r2, [r0, #4]
    8628:	e3520002 	cmp	r2, #2
    862c:	1a00000b 	bne	8660 <_cstart+0x6c>
    8630:	e59f1038 	ldr	r1, [pc, #56]	; 8670 <_cstart+0x7c>
    8634:	e59f2038 	ldr	r2, [pc, #56]	; 8674 <_cstart+0x80>
    8638:	e5821000 	str	r1, [r2]
    863c:	e59fc034 	ldr	ip, [pc, #52]	; 8678 <_cstart+0x84>
    8640:	e2803008 	add	r3, r0, #8
    8644:	e8930007 	ldm	r3, {r0, r1, r2}
    8648:	e88c0007 	stm	ip, {r0, r1, r2}
    864c:	e1a0000c 	mov	r0, ip
    8650:	e59f1024 	ldr	r1, [pc, #36]	; 867c <_cstart+0x88>
    8654:	eb00019d 	bl	8cd0 <sw_uart_printk>
    8658:	e59f0020 	ldr	r0, [pc, #32]	; 8680 <_cstart+0x8c>
    865c:	ebfffe71 	bl	8028 <printk>
    8660:	ebfffe6a 	bl	8010 <notmain>
    8664:	eb000011 	bl	86b0 <rpi_reboot>
    8668:	000098fc 	strdeq	r9, [r0], -ip
    866c:	00009d08 	andeq	r9, r0, r8, lsl #26
    8670:	000085d4 	ldrdeq	r8, [r0], -r4
    8674:	00009658 	andeq	r9, r0, r8, asr r6
    8678:	00009cfc 	strdeq	r9, [r0], -ip
    867c:	00009784 	andeq	r9, r0, r4, lsl #15
    8680:	000097a8 	andeq	r9, r0, r8, lsr #15

00008684 <at_user_level>:
    8684:	e10f0000 	mrs	r0, CPSR
    8688:	e200001f 	and	r0, r0, #31
    868c:	e3500010 	cmp	r0, #16
    8690:	13a00000 	movne	r0, #0
    8694:	03a00001 	moveq	r0, #1
    8698:	e12fff1e 	bx	lr

0000869c <set_user_level>:
    869c:	e10f3000 	mrs	r3, CPSR
    86a0:	e3c3301f 	bic	r3, r3, #31
    86a4:	e3833010 	orr	r3, r3, #16
    86a8:	e129f003 	msr	CPSR_fc, r3
    86ac:	e12fff1e 	bx	lr

000086b0 <rpi_reboot>:
    86b0:	e92d4008 	push	{r3, lr}
    86b4:	ebfffff2 	bl	8684 <at_user_level>
    86b8:	e3500000 	cmp	r0, #0
    86bc:	0a000000 	beq	86c4 <rpi_reboot+0x14>
    86c0:	ebfffff5 	bl	869c <set_user_level>
    86c4:	e3a0001e 	mov	r0, #30
    86c8:	eb000022 	bl	8758 <delay_ms>
    86cc:	e59f0014 	ldr	r0, [pc, #20]	; 86e8 <rpi_reboot+0x38>
    86d0:	e59f1014 	ldr	r1, [pc, #20]	; 86ec <rpi_reboot+0x3c>
    86d4:	eb00020e 	bl	8f14 <PUT32>
    86d8:	e59f0010 	ldr	r0, [pc, #16]	; 86f0 <rpi_reboot+0x40>
    86dc:	e59f1010 	ldr	r1, [pc, #16]	; 86f4 <rpi_reboot+0x44>
    86e0:	eb00020b 	bl	8f14 <PUT32>
    86e4:	eafffffe 	b	86e4 <rpi_reboot+0x34>
    86e8:	20100024 	andscs	r0, r0, r4, lsr #32
    86ec:	5a000001 	bpl	86f8 <delay_cycles>
    86f0:	2010001c 	andscs	r0, r0, ip, lsl r0
    86f4:	5a000020 	bpl	877c <delay_sec+0x10>

000086f8 <delay_cycles>:
    86f8:	ea000001 	b	8704 <delay_cycles+0xc>
    86fc:	e2811000 	add	r1, r1, #0
    8700:	e1a00003 	mov	r0, r3
    8704:	e2403001 	sub	r3, r0, #1
    8708:	e3500000 	cmp	r0, #0
    870c:	1afffffa 	bne	86fc <delay_cycles+0x4>
    8710:	e12fff1e 	bx	lr

00008714 <timer_get_usec_raw>:
    8714:	e92d4008 	push	{r3, lr}
    8718:	e59f0004 	ldr	r0, [pc, #4]	; 8724 <timer_get_usec_raw+0x10>
    871c:	eb000208 	bl	8f44 <GET32>
    8720:	e8bd8008 	pop	{r3, pc}
    8724:	20003004 	andcs	r3, r0, r4

00008728 <timer_get_usec>:
    8728:	e92d4008 	push	{r3, lr}
    872c:	ebfffff8 	bl	8714 <timer_get_usec_raw>
    8730:	e8bd8008 	pop	{r3, pc}

00008734 <delay_us>:
    8734:	e92d4038 	push	{r3, r4, r5, lr}
    8738:	e1a05000 	mov	r5, r0
    873c:	ebfffff9 	bl	8728 <timer_get_usec>
    8740:	e1a04000 	mov	r4, r0
    8744:	ebfffff7 	bl	8728 <timer_get_usec>
    8748:	e0640000 	rsb	r0, r4, r0
    874c:	e1500005 	cmp	r0, r5
    8750:	3afffffb 	bcc	8744 <delay_us+0x10>
    8754:	e8bd8038 	pop	{r3, r4, r5, pc}

00008758 <delay_ms>:
    8758:	e92d4008 	push	{r3, lr}
    875c:	e3a03ffa 	mov	r3, #1000	; 0x3e8
    8760:	e0000093 	mul	r0, r3, r0
    8764:	ebfffff2 	bl	8734 <delay_us>
    8768:	e8bd8008 	pop	{r3, pc}

0000876c <delay_sec>:
    876c:	e92d4008 	push	{r3, lr}
    8770:	e3a03ffa 	mov	r3, #1000	; 0x3e8
    8774:	e0000093 	mul	r0, r3, r0
    8778:	ebfffff6 	bl	8758 <delay_ms>
    877c:	e8bd8008 	pop	{r3, pc}

00008780 <sw_uart_putc>:
    8780:	e92d41f0 	push	{r4, r5, r6, r7, r8, lr}
    8784:	e1a07001 	mov	r7, r1
    8788:	e5d06000 	ldrb	r6, [r0]
    878c:	e5905008 	ldr	r5, [r0, #8]
    8790:	ee1f4f3c 	mrc	15, 0, r4, cr15, cr12, {1}
    8794:	e1a00006 	mov	r0, r6
    8798:	e3a01000 	mov	r1, #0
    879c:	eb000284 	bl	91b4 <gpio_write>
    87a0:	ee1f3f3c 	mrc	15, 0, r3, cr15, cr12, {1}
    87a4:	e0643003 	rsb	r3, r4, r3
    87a8:	e1550003 	cmp	r5, r3
    87ac:	8afffffb 	bhi	87a0 <sw_uart_putc+0x20>
    87b0:	e1a08085 	lsl	r8, r5, #1
    87b4:	e1a00006 	mov	r0, r6
    87b8:	e2071001 	and	r1, r7, #1
    87bc:	eb00027c 	bl	91b4 <gpio_write>
    87c0:	ee1f3f3c 	mrc	15, 0, r3, cr15, cr12, {1}
    87c4:	e0643003 	rsb	r3, r4, r3
    87c8:	e1580003 	cmp	r8, r3
    87cc:	8afffffb 	bhi	87c0 <sw_uart_putc+0x40>
    87d0:	e0888005 	add	r8, r8, r5
    87d4:	e1a00006 	mov	r0, r6
    87d8:	e2071002 	and	r1, r7, #2
    87dc:	eb000274 	bl	91b4 <gpio_write>
    87e0:	ee1f3f3c 	mrc	15, 0, r3, cr15, cr12, {1}
    87e4:	e0643003 	rsb	r3, r4, r3
    87e8:	e1580003 	cmp	r8, r3
    87ec:	8afffffb 	bhi	87e0 <sw_uart_putc+0x60>
    87f0:	e0888005 	add	r8, r8, r5
    87f4:	e1a00006 	mov	r0, r6
    87f8:	e2071004 	and	r1, r7, #4
    87fc:	eb00026c 	bl	91b4 <gpio_write>
    8800:	ee1f3f3c 	mrc	15, 0, r3, cr15, cr12, {1}
    8804:	e0643003 	rsb	r3, r4, r3
    8808:	e1580003 	cmp	r8, r3
    880c:	8afffffb 	bhi	8800 <sw_uart_putc+0x80>
    8810:	e0888005 	add	r8, r8, r5
    8814:	e1a00006 	mov	r0, r6
    8818:	e2071008 	and	r1, r7, #8
    881c:	eb000264 	bl	91b4 <gpio_write>
    8820:	ee1f3f3c 	mrc	15, 0, r3, cr15, cr12, {1}
    8824:	e0643003 	rsb	r3, r4, r3
    8828:	e1580003 	cmp	r8, r3
    882c:	8afffffb 	bhi	8820 <sw_uart_putc+0xa0>
    8830:	e0888005 	add	r8, r8, r5
    8834:	e1a00006 	mov	r0, r6
    8838:	e2071010 	and	r1, r7, #16
    883c:	eb00025c 	bl	91b4 <gpio_write>
    8840:	ee1f3f3c 	mrc	15, 0, r3, cr15, cr12, {1}
    8844:	e0643003 	rsb	r3, r4, r3
    8848:	e1580003 	cmp	r8, r3
    884c:	8afffffb 	bhi	8840 <sw_uart_putc+0xc0>
    8850:	e0888005 	add	r8, r8, r5
    8854:	e1a00006 	mov	r0, r6
    8858:	e2071020 	and	r1, r7, #32
    885c:	eb000254 	bl	91b4 <gpio_write>
    8860:	ee1f3f3c 	mrc	15, 0, r3, cr15, cr12, {1}
    8864:	e0643003 	rsb	r3, r4, r3
    8868:	e1580003 	cmp	r8, r3
    886c:	8afffffb 	bhi	8860 <sw_uart_putc+0xe0>
    8870:	e0888005 	add	r8, r8, r5
    8874:	e1a00006 	mov	r0, r6
    8878:	e2071040 	and	r1, r7, #64	; 0x40
    887c:	eb00024c 	bl	91b4 <gpio_write>
    8880:	ee1f3f3c 	mrc	15, 0, r3, cr15, cr12, {1}
    8884:	e0643003 	rsb	r3, r4, r3
    8888:	e1580003 	cmp	r8, r3
    888c:	8afffffb 	bhi	8880 <sw_uart_putc+0x100>
    8890:	e0888005 	add	r8, r8, r5
    8894:	e1a00006 	mov	r0, r6
    8898:	e2071080 	and	r1, r7, #128	; 0x80
    889c:	eb000244 	bl	91b4 <gpio_write>
    88a0:	ee1f3f3c 	mrc	15, 0, r3, cr15, cr12, {1}
    88a4:	e0643003 	rsb	r3, r4, r3
    88a8:	e1580003 	cmp	r8, r3
    88ac:	8afffffb 	bhi	88a0 <sw_uart_putc+0x120>
    88b0:	e0885005 	add	r5, r8, r5
    88b4:	e1a00006 	mov	r0, r6
    88b8:	e3a01001 	mov	r1, #1
    88bc:	eb00023c 	bl	91b4 <gpio_write>
    88c0:	ee1f3f3c 	mrc	15, 0, r3, cr15, cr12, {1}
    88c4:	e0643003 	rsb	r3, r4, r3
    88c8:	e1550003 	cmp	r5, r3
    88cc:	8afffffb 	bhi	88c0 <sw_uart_putc+0x140>
    88d0:	e8bd81f0 	pop	{r4, r5, r6, r7, r8, pc}

000088d4 <sw_uart_getc_timeout>:
    88d4:	e92d43f8 	push	{r3, r4, r5, r6, r7, r8, r9, lr}
    88d8:	e1a09000 	mov	r9, r0
    88dc:	e5d07001 	ldrb	r7, [r0, #1]
    88e0:	e1a05007 	mov	r5, r7
    88e4:	e1a06001 	mov	r6, r1
    88e8:	ebffff89 	bl	8714 <timer_get_usec_raw>
    88ec:	e1a04000 	mov	r4, r0
    88f0:	e1a00005 	mov	r0, r5
    88f4:	eb00021b 	bl	9168 <gpio_read>
    88f8:	e3500000 	cmp	r0, #0
    88fc:	0a000005 	beq	8918 <sw_uart_getc_timeout+0x44>
    8900:	ebffff83 	bl	8714 <timer_get_usec_raw>
    8904:	e0640000 	rsb	r0, r4, r0
    8908:	e1560000 	cmp	r6, r0
    890c:	2afffff7 	bcs	88f0 <sw_uart_getc_timeout+0x1c>
    8910:	e3a03000 	mov	r3, #0
    8914:	ea000000 	b	891c <sw_uart_getc_timeout+0x48>
    8918:	e3a03001 	mov	r3, #1
    891c:	e3530000 	cmp	r3, #0
    8920:	0a000059 	beq	8a8c <sw_uart_getc_timeout+0x1b8>
    8924:	ee1f8f3c 	mrc	15, 0, r8, cr15, cr12, {1}
    8928:	e5994008 	ldr	r4, [r9, #8]
    892c:	e08420a4 	add	r2, r4, r4, lsr #1
    8930:	ee1f3f3c 	mrc	15, 0, r3, cr15, cr12, {1}
    8934:	e0683003 	rsb	r3, r8, r3
    8938:	e1520003 	cmp	r2, r3
    893c:	8afffffb 	bhi	8930 <sw_uart_getc_timeout+0x5c>
    8940:	e0888004 	add	r8, r8, r4
    8944:	e1a00007 	mov	r0, r7
    8948:	eb000206 	bl	9168 <gpio_read>
    894c:	e1a09750 	asr	r9, r0, r7
    8950:	ee1f3f3c 	mrc	15, 0, r3, cr15, cr12, {1}
    8954:	e0683003 	rsb	r3, r8, r3
    8958:	e1540003 	cmp	r4, r3
    895c:	8afffffb 	bhi	8950 <sw_uart_getc_timeout+0x7c>
    8960:	e0888004 	add	r8, r8, r4
    8964:	e1a00007 	mov	r0, r7
    8968:	eb0001fe 	bl	9168 <gpio_read>
    896c:	e1a00750 	asr	r0, r0, r7
    8970:	e1899080 	orr	r9, r9, r0, lsl #1
    8974:	ee1f3f3c 	mrc	15, 0, r3, cr15, cr12, {1}
    8978:	e0683003 	rsb	r3, r8, r3
    897c:	e1540003 	cmp	r4, r3
    8980:	8afffffb 	bhi	8974 <sw_uart_getc_timeout+0xa0>
    8984:	e0888004 	add	r8, r8, r4
    8988:	e1a00007 	mov	r0, r7
    898c:	eb0001f5 	bl	9168 <gpio_read>
    8990:	e1a00750 	asr	r0, r0, r7
    8994:	e1899100 	orr	r9, r9, r0, lsl #2
    8998:	ee1f3f3c 	mrc	15, 0, r3, cr15, cr12, {1}
    899c:	e0683003 	rsb	r3, r8, r3
    89a0:	e1540003 	cmp	r4, r3
    89a4:	8afffffb 	bhi	8998 <sw_uart_getc_timeout+0xc4>
    89a8:	e0888004 	add	r8, r8, r4
    89ac:	e1a00007 	mov	r0, r7
    89b0:	eb0001ec 	bl	9168 <gpio_read>
    89b4:	e1a00750 	asr	r0, r0, r7
    89b8:	e1899180 	orr	r9, r9, r0, lsl #3
    89bc:	ee1f3f3c 	mrc	15, 0, r3, cr15, cr12, {1}
    89c0:	e0683003 	rsb	r3, r8, r3
    89c4:	e1540003 	cmp	r4, r3
    89c8:	8afffffb 	bhi	89bc <sw_uart_getc_timeout+0xe8>
    89cc:	e0888004 	add	r8, r8, r4
    89d0:	e1a00007 	mov	r0, r7
    89d4:	eb0001e3 	bl	9168 <gpio_read>
    89d8:	e1a00750 	asr	r0, r0, r7
    89dc:	e1899200 	orr	r9, r9, r0, lsl #4
    89e0:	ee1f3f3c 	mrc	15, 0, r3, cr15, cr12, {1}
    89e4:	e0683003 	rsb	r3, r8, r3
    89e8:	e1540003 	cmp	r4, r3
    89ec:	8afffffb 	bhi	89e0 <sw_uart_getc_timeout+0x10c>
    89f0:	e0888004 	add	r8, r8, r4
    89f4:	e1a00007 	mov	r0, r7
    89f8:	eb0001da 	bl	9168 <gpio_read>
    89fc:	e1a00750 	asr	r0, r0, r7
    8a00:	e1899280 	orr	r9, r9, r0, lsl #5
    8a04:	ee1f3f3c 	mrc	15, 0, r3, cr15, cr12, {1}
    8a08:	e0683003 	rsb	r3, r8, r3
    8a0c:	e1540003 	cmp	r4, r3
    8a10:	8afffffb 	bhi	8a04 <sw_uart_getc_timeout+0x130>
    8a14:	e0888004 	add	r8, r8, r4
    8a18:	e1a00007 	mov	r0, r7
    8a1c:	eb0001d1 	bl	9168 <gpio_read>
    8a20:	e1a00750 	asr	r0, r0, r7
    8a24:	e1899300 	orr	r9, r9, r0, lsl #6
    8a28:	ee1f3f3c 	mrc	15, 0, r3, cr15, cr12, {1}
    8a2c:	e0683003 	rsb	r3, r8, r3
    8a30:	e1540003 	cmp	r4, r3
    8a34:	8afffffb 	bhi	8a28 <sw_uart_getc_timeout+0x154>
    8a38:	e1a00007 	mov	r0, r7
    8a3c:	eb0001c9 	bl	9168 <gpio_read>
    8a40:	e1a00750 	asr	r0, r0, r7
    8a44:	e1899380 	orr	r9, r9, r0, lsl #7
    8a48:	ebffff31 	bl	8714 <timer_get_usec_raw>
    8a4c:	e1a04000 	mov	r4, r0
    8a50:	e1a00005 	mov	r0, r5
    8a54:	eb0001c3 	bl	9168 <gpio_read>
    8a58:	e3500000 	cmp	r0, #0
    8a5c:	0a000005 	beq	8a78 <sw_uart_getc_timeout+0x1a4>
    8a60:	ebffff2b 	bl	8714 <timer_get_usec_raw>
    8a64:	e0640000 	rsb	r0, r4, r0
    8a68:	e1560000 	cmp	r6, r0
    8a6c:	2afffff7 	bcs	8a50 <sw_uart_getc_timeout+0x17c>
    8a70:	e3a03000 	mov	r3, #0
    8a74:	ea000000 	b	8a7c <sw_uart_getc_timeout+0x1a8>
    8a78:	e3a03001 	mov	r3, #1
    8a7c:	e3530000 	cmp	r3, #0
    8a80:	0a000003 	beq	8a94 <sw_uart_getc_timeout+0x1c0>
    8a84:	e1a00009 	mov	r0, r9
    8a88:	e8bd83f8 	pop	{r3, r4, r5, r6, r7, r8, r9, pc}
    8a8c:	e3e00000 	mvn	r0, #0
    8a90:	e8bd83f8 	pop	{r3, r4, r5, r6, r7, r8, r9, pc}
    8a94:	e3e00000 	mvn	r0, #0
    8a98:	e8bd83f8 	pop	{r3, r4, r5, r6, r7, r8, r9, pc}

00008a9c <sw_uart_gets_until>:
    8a9c:	e92d47f0 	push	{r4, r5, r6, r7, r8, r9, sl, lr}
    8aa0:	e1a08000 	mov	r8, r0
    8aa4:	e1a06001 	mov	r6, r1
    8aa8:	e1a09003 	mov	r9, r3
    8aac:	e59da020 	ldr	sl, [sp, #32]
    8ab0:	e3520000 	cmp	r2, #0
    8ab4:	1a000006 	bne	8ad4 <sw_uart_gets_until+0x38>
    8ab8:	eb00029a 	bl	9528 <rpi_reset_putc>
    8abc:	e59f005c 	ldr	r0, [pc, #92]	; 8b20 <sw_uart_gets_until+0x84>
    8ac0:	e59f105c 	ldr	r1, [pc, #92]	; 8b24 <sw_uart_gets_until+0x88>
    8ac4:	e59f205c 	ldr	r2, [pc, #92]	; 8b28 <sw_uart_gets_until+0x8c>
    8ac8:	e3a0306d 	mov	r3, #109	; 0x6d
    8acc:	ebfffd55 	bl	8028 <printk>
    8ad0:	ebfffeb5 	bl	85ac <clean_reboot>
    8ad4:	e3a04000 	mov	r4, #0
    8ad8:	e5c14000 	strb	r4, [r1]
    8adc:	e2427001 	sub	r7, r2, #1
    8ae0:	ea000007 	b	8b04 <sw_uart_gets_until+0x68>
    8ae4:	e1a00008 	mov	r0, r8
    8ae8:	e1a0100a 	mov	r1, sl
    8aec:	ebffff78 	bl	88d4 <sw_uart_getc_timeout>
    8af0:	e6ef0070 	uxtb	r0, r0
    8af4:	e1500009 	cmp	r0, r9
    8af8:	0a000004 	beq	8b10 <sw_uart_gets_until+0x74>
    8afc:	e7c60005 	strb	r0, [r6, r5]
    8b00:	e2844001 	add	r4, r4, #1
    8b04:	e1a05004 	mov	r5, r4
    8b08:	e1540007 	cmp	r4, r7
    8b0c:	3afffff4 	bcc	8ae4 <sw_uart_gets_until+0x48>
    8b10:	e3a03000 	mov	r3, #0
    8b14:	e7c63005 	strb	r3, [r6, r5]
    8b18:	e1a00004 	mov	r0, r4
    8b1c:	e8bd87f0 	pop	{r4, r5, r6, r7, r8, r9, sl, pc}
    8b20:	0000982c 	andeq	r9, r0, ip, lsr #16
    8b24:	00009848 	andeq	r9, r0, r8, asr #16
    8b28:	000097b4 			; <UNDEFINED> instruction: 0x000097b4

00008b2c <sw_uart_gets_timeout>:
    8b2c:	e92d41f0 	push	{r4, r5, r6, r7, r8, lr}
    8b30:	e1a07000 	mov	r7, r0
    8b34:	e1a05001 	mov	r5, r1
    8b38:	e1a08003 	mov	r8, r3
    8b3c:	e3520000 	cmp	r2, #0
    8b40:	1a000006 	bne	8b60 <sw_uart_gets_timeout+0x34>
    8b44:	eb000277 	bl	9528 <rpi_reset_putc>
    8b48:	e59f004c 	ldr	r0, [pc, #76]	; 8b9c <sw_uart_gets_timeout+0x70>
    8b4c:	e59f104c 	ldr	r1, [pc, #76]	; 8ba0 <sw_uart_gets_timeout+0x74>
    8b50:	e59f204c 	ldr	r2, [pc, #76]	; 8ba4 <sw_uart_gets_timeout+0x78>
    8b54:	e3a03083 	mov	r3, #131	; 0x83
    8b58:	ebfffd32 	bl	8028 <printk>
    8b5c:	ebfffe92 	bl	85ac <clean_reboot>
    8b60:	e3a04000 	mov	r4, #0
    8b64:	e5c14000 	strb	r4, [r1]
    8b68:	e2426001 	sub	r6, r2, #1
    8b6c:	ea000004 	b	8b84 <sw_uart_gets_timeout+0x58>
    8b70:	e1a00007 	mov	r0, r7
    8b74:	e1a01008 	mov	r1, r8
    8b78:	ebffff55 	bl	88d4 <sw_uart_getc_timeout>
    8b7c:	e7c50004 	strb	r0, [r5, r4]
    8b80:	e2844001 	add	r4, r4, #1
    8b84:	e1540006 	cmp	r4, r6
    8b88:	3afffff8 	bcc	8b70 <sw_uart_gets_timeout+0x44>
    8b8c:	e3a03000 	mov	r3, #0
    8b90:	e7c53004 	strb	r3, [r5, r4]
    8b94:	e1a00004 	mov	r0, r4
    8b98:	e8bd81f0 	pop	{r4, r5, r6, r7, r8, pc}
    8b9c:	0000982c 	andeq	r9, r0, ip, lsr #16
    8ba0:	00009848 	andeq	r9, r0, r8, asr #16
    8ba4:	000097c8 	andeq	r9, r0, r8, asr #15

00008ba8 <sw_uart_init_helper>:
    8ba8:	e92d41f0 	push	{r4, r5, r6, r7, r8, lr}
    8bac:	e1a04000 	mov	r4, r0
    8bb0:	e1a06001 	mov	r6, r1
    8bb4:	e1a08002 	mov	r8, r2
    8bb8:	e1a05003 	mov	r5, r3
    8bbc:	e59d7018 	ldr	r7, [sp, #24]
    8bc0:	e1a00001 	mov	r0, r1
    8bc4:	eb0000e3 	bl	8f58 <gpio_set_output>
    8bc8:	e1a00008 	mov	r0, r8
    8bcc:	eb000132 	bl	909c <gpio_set_input>
    8bd0:	e3a03001 	mov	r3, #1
    8bd4:	ee0f3f1c 	mcr	15, 0, r3, cr15, cr12, {0}
    8bd8:	e1a00006 	mov	r0, r6
    8bdc:	e3a01001 	mov	r1, #1
    8be0:	eb000173 	bl	91b4 <gpio_write>
    8be4:	e0020795 	mul	r2, r5, r7
    8be8:	e59f3068 	ldr	r3, [pc, #104]	; 8c58 <sw_uart_init_helper+0xb0>
    8bec:	e0653003 	rsb	r3, r5, r3
    8bf0:	e1530002 	cmp	r3, r2
    8bf4:	8a000005 	bhi	8c10 <sw_uart_init_helper+0x68>
    8bf8:	e59f3058 	ldr	r3, [pc, #88]	; 8c58 <sw_uart_init_helper+0xb0>
    8bfc:	e0853003 	add	r3, r5, r3
    8c00:	e1530002 	cmp	r3, r2
    8c04:	2a000003 	bcs	8c18 <sw_uart_init_helper+0x70>
    8c08:	e3a03000 	mov	r3, #0
    8c0c:	ea000002 	b	8c1c <sw_uart_init_helper+0x74>
    8c10:	e3a03000 	mov	r3, #0
    8c14:	ea000000 	b	8c1c <sw_uart_init_helper+0x74>
    8c18:	e3a03001 	mov	r3, #1
    8c1c:	e3530000 	cmp	r3, #0
    8c20:	1a000006 	bne	8c40 <sw_uart_init_helper+0x98>
    8c24:	eb00023f 	bl	9528 <rpi_reset_putc>
    8c28:	e59f002c 	ldr	r0, [pc, #44]	; 8c5c <sw_uart_init_helper+0xb4>
    8c2c:	e59f102c 	ldr	r1, [pc, #44]	; 8c60 <sw_uart_init_helper+0xb8>
    8c30:	e59f202c 	ldr	r2, [pc, #44]	; 8c64 <sw_uart_init_helper+0xbc>
    8c34:	e3a0309d 	mov	r3, #157	; 0x9d
    8c38:	ebfffcfa 	bl	8028 <printk>
    8c3c:	ebfffe5a 	bl	85ac <clean_reboot>
    8c40:	e5c46000 	strb	r6, [r4]
    8c44:	e5c48001 	strb	r8, [r4, #1]
    8c48:	e5845004 	str	r5, [r4, #4]
    8c4c:	e5847008 	str	r7, [r4, #8]
    8c50:	e1a00004 	mov	r0, r4
    8c54:	e8bd81f0 	pop	{r4, r5, r6, r7, r8, pc}
    8c58:	29b92700 	ldmibcs	r9!, {r8, r9, sl, sp}
    8c5c:	0000985c 	andeq	r9, r0, ip, asr r8
    8c60:	00009848 	andeq	r9, r0, r8, asr #16
    8c64:	000097e0 	andeq	r9, r0, r0, ror #15

00008c68 <sw_uart_getc>:
    8c68:	e92d4008 	push	{r3, lr}
    8c6c:	e3e01000 	mvn	r1, #0
    8c70:	ebffff17 	bl	88d4 <sw_uart_getc_timeout>
    8c74:	e3500000 	cmp	r0, #0
    8c78:	a8bd8008 	popge	{r3, pc}
    8c7c:	eb000229 	bl	9528 <rpi_reset_putc>
    8c80:	e59f0010 	ldr	r0, [pc, #16]	; 8c98 <sw_uart_getc+0x30>
    8c84:	e59f1010 	ldr	r1, [pc, #16]	; 8c9c <sw_uart_getc+0x34>
    8c88:	e59f2010 	ldr	r2, [pc, #16]	; 8ca0 <sw_uart_getc+0x38>
    8c8c:	e3a030ac 	mov	r3, #172	; 0xac
    8c90:	ebfffce4 	bl	8028 <printk>
    8c94:	ebfffe44 	bl	85ac <clean_reboot>
    8c98:	000098a0 	andeq	r9, r0, r0, lsr #17
    8c9c:	00009848 	andeq	r9, r0, r8, asr #16
    8ca0:	000097f4 	strdeq	r9, [r0], -r4

00008ca4 <sw_uart_putk>:
    8ca4:	e92d4038 	push	{r3, r4, r5, lr}
    8ca8:	e1a05000 	mov	r5, r0
    8cac:	e1a04001 	mov	r4, r1
    8cb0:	ea000002 	b	8cc0 <sw_uart_putk+0x1c>
    8cb4:	e1a00005 	mov	r0, r5
    8cb8:	ebfffeb0 	bl	8780 <sw_uart_putc>
    8cbc:	e2844001 	add	r4, r4, #1
    8cc0:	e5d41000 	ldrb	r1, [r4]
    8cc4:	e3510000 	cmp	r1, #0
    8cc8:	1afffff9 	bne	8cb4 <sw_uart_putk+0x10>
    8ccc:	e8bd8038 	pop	{r3, r4, r5, pc}

00008cd0 <sw_uart_printk>:
    8cd0:	e92d000e 	push	{r1, r2, r3}
    8cd4:	e92d4030 	push	{r4, r5, lr}
    8cd8:	e24dde1d 	sub	sp, sp, #464	; 0x1d0
    8cdc:	e1a05000 	mov	r5, r0
    8ce0:	e28d3e1e 	add	r3, sp, #480	; 0x1e0
    8ce4:	e58d3000 	str	r3, [sp]
    8ce8:	e28d0004 	add	r0, sp, #4
    8cec:	e3a01f73 	mov	r1, #460	; 0x1cc
    8cf0:	e59d21dc 	ldr	r2, [sp, #476]	; 0x1dc
    8cf4:	ebfffd8a 	bl	8324 <va_printk>
    8cf8:	e1a04000 	mov	r4, r0
    8cfc:	e59f3040 	ldr	r3, [pc, #64]	; 8d44 <sw_uart_printk+0x74>
    8d00:	e1500003 	cmp	r0, r3
    8d04:	9a000006 	bls	8d24 <sw_uart_printk+0x54>
    8d08:	eb000206 	bl	9528 <rpi_reset_putc>
    8d0c:	e59f0034 	ldr	r0, [pc, #52]	; 8d48 <sw_uart_printk+0x78>
    8d10:	e59f1034 	ldr	r1, [pc, #52]	; 8d4c <sw_uart_printk+0x7c>
    8d14:	e59f2034 	ldr	r2, [pc, #52]	; 8d50 <sw_uart_printk+0x80>
    8d18:	e3a030c0 	mov	r3, #192	; 0xc0
    8d1c:	ebfffcc1 	bl	8028 <printk>
    8d20:	ebfffe21 	bl	85ac <clean_reboot>
    8d24:	e1a00005 	mov	r0, r5
    8d28:	e28d1004 	add	r1, sp, #4
    8d2c:	ebffffdc 	bl	8ca4 <sw_uart_putk>
    8d30:	e1a00004 	mov	r0, r4
    8d34:	e28dde1d 	add	sp, sp, #464	; 0x1d0
    8d38:	e8bd4030 	pop	{r4, r5, lr}
    8d3c:	e28dd00c 	add	sp, sp, #12
    8d40:	e12fff1e 	bx	lr
    8d44:	000001ca 	andeq	r0, r0, sl, asr #3
    8d48:	000098d8 	ldrdeq	r9, [r0], -r8
    8d4c:	00009848 	andeq	r9, r0, r8, asr #16
    8d50:	00009804 	andeq	r9, r0, r4, lsl #16

00008d54 <sw_uart_gets_until_blk>:
    8d54:	e52de004 	push	{lr}		; (str lr, [sp, #-4]!)
    8d58:	e24dd00c 	sub	sp, sp, #12
    8d5c:	e3e0c000 	mvn	ip, #0
    8d60:	e58dc000 	str	ip, [sp]
    8d64:	ebffff4c 	bl	8a9c <sw_uart_gets_until>
    8d68:	e3500000 	cmp	r0, #0
    8d6c:	aa000006 	bge	8d8c <sw_uart_gets_until_blk+0x38>
    8d70:	eb0001ec 	bl	9528 <rpi_reset_putc>
    8d74:	e59f0018 	ldr	r0, [pc, #24]	; 8d94 <sw_uart_gets_until_blk+0x40>
    8d78:	e59f1018 	ldr	r1, [pc, #24]	; 8d98 <sw_uart_gets_until_blk+0x44>
    8d7c:	e59f2018 	ldr	r2, [pc, #24]	; 8d9c <sw_uart_gets_until_blk+0x48>
    8d80:	e3a030c8 	mov	r3, #200	; 0xc8
    8d84:	ebfffca7 	bl	8028 <printk>
    8d88:	ebfffe07 	bl	85ac <clean_reboot>
    8d8c:	e28dd00c 	add	sp, sp, #12
    8d90:	e49df004 	pop	{pc}		; (ldr pc, [sp], #4)
    8d94:	000098a0 	andeq	r9, r0, r0, lsr #17
    8d98:	00009848 	andeq	r9, r0, r8, asr #16
    8d9c:	00009814 	andeq	r9, r0, r4, lsl r8

00008da0 <uart_init>:
    8da0:	e92d4038 	push	{r3, r4, r5, lr}
    8da4:	eb000052 	bl	8ef4 <dev_barrier>
    8da8:	e3a0000e 	mov	r0, #14
    8dac:	e3a01002 	mov	r1, #2
    8db0:	eb00011d 	bl	922c <gpio_set_function>
    8db4:	e3a0000f 	mov	r0, #15
    8db8:	e3a01002 	mov	r1, #2
    8dbc:	eb00011a 	bl	922c <gpio_set_function>
    8dc0:	eb00004b 	bl	8ef4 <dev_barrier>
    8dc4:	e59f4068 	ldr	r4, [pc, #104]	; 8e34 <uart_init+0x94>
    8dc8:	e5945000 	ldr	r5, [r4]
    8dcc:	e1a00005 	mov	r0, r5
    8dd0:	eb000059 	bl	8f3c <get32>
    8dd4:	e3801001 	orr	r1, r0, #1
    8dd8:	e1a00005 	mov	r0, r5
    8ddc:	eb00004a 	bl	8f0c <put32>
    8de0:	eb000043 	bl	8ef4 <dev_barrier>
    8de4:	e5940004 	ldr	r0, [r4, #4]
    8de8:	e3a01000 	mov	r1, #0
    8dec:	eb000046 	bl	8f0c <put32>
    8df0:	e5940008 	ldr	r0, [r4, #8]
    8df4:	e3a01000 	mov	r1, #0
    8df8:	eb000043 	bl	8f0c <put32>
    8dfc:	e594000c 	ldr	r0, [r4, #12]
    8e00:	e3a01006 	mov	r1, #6
    8e04:	eb000040 	bl	8f0c <put32>
    8e08:	e5940010 	ldr	r0, [r4, #16]
    8e0c:	e3a01003 	mov	r1, #3
    8e10:	eb00003d 	bl	8f0c <put32>
    8e14:	e5940014 	ldr	r0, [r4, #20]
    8e18:	e59f1018 	ldr	r1, [pc, #24]	; 8e38 <uart_init+0x98>
    8e1c:	eb00003a 	bl	8f0c <put32>
    8e20:	e5940004 	ldr	r0, [r4, #4]
    8e24:	e3a01003 	mov	r1, #3
    8e28:	eb000037 	bl	8f0c <put32>
    8e2c:	eb000030 	bl	8ef4 <dev_barrier>
    8e30:	e8bd8038 	pop	{r3, r4, r5, pc}
    8e34:	000095c4 	andeq	r9, r0, r4, asr #11
    8e38:	0000010e 	andeq	r0, r0, lr, lsl #2

00008e3c <uart_can_getc>:
    8e3c:	e92d4008 	push	{r3, lr}
    8e40:	e59f300c 	ldr	r3, [pc, #12]	; 8e54 <uart_can_getc+0x18>
    8e44:	e5930018 	ldr	r0, [r3, #24]
    8e48:	eb00003b 	bl	8f3c <get32>
    8e4c:	e2000001 	and	r0, r0, #1
    8e50:	e8bd8008 	pop	{r3, pc}
    8e54:	000095c4 	andeq	r9, r0, r4, asr #11

00008e58 <uart_getc>:
    8e58:	e92d4008 	push	{r3, lr}
    8e5c:	ebfffff6 	bl	8e3c <uart_can_getc>
    8e60:	e3500000 	cmp	r0, #0
    8e64:	0afffffc 	beq	8e5c <uart_getc+0x4>
    8e68:	e59f300c 	ldr	r3, [pc, #12]	; 8e7c <uart_getc+0x24>
    8e6c:	e593001c 	ldr	r0, [r3, #28]
    8e70:	eb000031 	bl	8f3c <get32>
    8e74:	e6ef0070 	uxtb	r0, r0
    8e78:	e8bd8008 	pop	{r3, pc}
    8e7c:	000095c4 	andeq	r9, r0, r4, asr #11

00008e80 <uart_can_putc>:
    8e80:	e92d4008 	push	{r3, lr}
    8e84:	e59f300c 	ldr	r3, [pc, #12]	; 8e98 <uart_can_putc+0x18>
    8e88:	e5930018 	ldr	r0, [r3, #24]
    8e8c:	eb00002a 	bl	8f3c <get32>
    8e90:	e2000020 	and	r0, r0, #32
    8e94:	e8bd8008 	pop	{r3, pc}
    8e98:	000095c4 	andeq	r9, r0, r4, asr #11

00008e9c <uart_putc>:
    8e9c:	e92d4010 	push	{r4, lr}
    8ea0:	e1a04000 	mov	r4, r0
    8ea4:	ebfffff5 	bl	8e80 <uart_can_putc>
    8ea8:	e3500000 	cmp	r0, #0
    8eac:	0afffffc 	beq	8ea4 <uart_putc+0x8>
    8eb0:	e59f300c 	ldr	r3, [pc, #12]	; 8ec4 <uart_putc+0x28>
    8eb4:	e593001c 	ldr	r0, [r3, #28]
    8eb8:	e1a01004 	mov	r1, r4
    8ebc:	eb000012 	bl	8f0c <put32>
    8ec0:	e8bd8010 	pop	{r4, pc}
    8ec4:	000095c4 	andeq	r9, r0, r4, asr #11

00008ec8 <uart_has_data>:
    8ec8:	e92d4008 	push	{r3, lr}
    8ecc:	ebffffda 	bl	8e3c <uart_can_getc>
    8ed0:	e8bd8008 	pop	{r3, pc}

00008ed4 <uart_getc_async>:
    8ed4:	e92d4008 	push	{r3, lr}
    8ed8:	ebfffffa 	bl	8ec8 <uart_has_data>
    8edc:	e3500000 	cmp	r0, #0
    8ee0:	0a000001 	beq	8eec <uart_getc_async+0x18>
    8ee4:	ebffffdb 	bl	8e58 <uart_getc>
    8ee8:	e8bd8008 	pop	{r3, pc}
    8eec:	e3e00000 	mvn	r0, #0
    8ef0:	e8bd8008 	pop	{r3, pc}

00008ef4 <dev_barrier>:
    8ef4:	ea000002 	b	8f04 <dsb>

00008ef8 <dmb>:
    8ef8:	e3a00000 	mov	r0, #0
    8efc:	ee070fba 	mcr	15, 0, r0, cr7, cr10, {5}
    8f00:	e12fff1e 	bx	lr

00008f04 <dsb>:
    8f04:	ee070f9a 	mcr	15, 0, r0, cr7, cr10, {4}
    8f08:	e12fff1e 	bx	lr

00008f0c <put32>:
    8f0c:	e5801000 	str	r1, [r0]
    8f10:	e12fff1e 	bx	lr

00008f14 <PUT32>:
    8f14:	e5801000 	str	r1, [r0]
    8f18:	e12fff1e 	bx	lr

00008f1c <put16>:
    8f1c:	e1c010b0 	strh	r1, [r0]
    8f20:	e12fff1e 	bx	lr

00008f24 <PUT16>:
    8f24:	e1c010b0 	strh	r1, [r0]
    8f28:	e12fff1e 	bx	lr

00008f2c <put8>:
    8f2c:	e5c01000 	strb	r1, [r0]
    8f30:	e12fff1e 	bx	lr

00008f34 <PUT8>:
    8f34:	e5c01000 	strb	r1, [r0]
    8f38:	e12fff1e 	bx	lr

00008f3c <get32>:
    8f3c:	e5900000 	ldr	r0, [r0]
    8f40:	e12fff1e 	bx	lr

00008f44 <GET32>:
    8f44:	e5900000 	ldr	r0, [r0]
    8f48:	e12fff1e 	bx	lr

00008f4c <GETPC>:
    8f4c:	e1a0000e 	mov	r0, lr
    8f50:	e12fff1e 	bx	lr

00008f54 <dummy>:
    8f54:	e12fff1e 	bx	lr

00008f58 <gpio_set_output>:
    8f58:	e92d4038 	push	{r3, r4, r5, lr}
    8f5c:	e1a04000 	mov	r4, r0
    8f60:	e350001f 	cmp	r0, #31
    8f64:	88bd8038 	pophi	{r3, r4, r5, pc}
    8f68:	e59f30b4 	ldr	r3, [pc, #180]	; 9024 <gpio_set_output+0xcc>
    8f6c:	e0832093 	umull	r2, r3, r3, r0
    8f70:	e1a031a3 	lsr	r3, r3, #3
    8f74:	e3530005 	cmp	r3, #5
    8f78:	979ff103 	ldrls	pc, [pc, r3, lsl #2]
    8f7c:	ea000017 	b	8fe0 <gpio_set_output+0x88>
    8f80:	00008f98 	muleq	r0, r8, pc	; <UNPREDICTABLE>
    8f84:	00008fa4 	andeq	r8, r0, r4, lsr #31
    8f88:	00008fb0 			; <UNDEFINED> instruction: 0x00008fb0
    8f8c:	00008fbc 			; <UNDEFINED> instruction: 0x00008fbc
    8f90:	00008fc8 	andeq	r8, r0, r8, asr #31
    8f94:	00008fd4 	ldrdeq	r8, [r0], -r4
    8f98:	e59f3088 	ldr	r3, [pc, #136]	; 9028 <gpio_set_output+0xd0>
    8f9c:	e5935000 	ldr	r5, [r3]
    8fa0:	ea00000f 	b	8fe4 <gpio_set_output+0x8c>
    8fa4:	e59f307c 	ldr	r3, [pc, #124]	; 9028 <gpio_set_output+0xd0>
    8fa8:	e5935004 	ldr	r5, [r3, #4]
    8fac:	ea00000c 	b	8fe4 <gpio_set_output+0x8c>
    8fb0:	e59f3070 	ldr	r3, [pc, #112]	; 9028 <gpio_set_output+0xd0>
    8fb4:	e5935008 	ldr	r5, [r3, #8]
    8fb8:	ea000009 	b	8fe4 <gpio_set_output+0x8c>
    8fbc:	e59f3064 	ldr	r3, [pc, #100]	; 9028 <gpio_set_output+0xd0>
    8fc0:	e593500c 	ldr	r5, [r3, #12]
    8fc4:	ea000006 	b	8fe4 <gpio_set_output+0x8c>
    8fc8:	e59f3058 	ldr	r3, [pc, #88]	; 9028 <gpio_set_output+0xd0>
    8fcc:	e5935010 	ldr	r5, [r3, #16]
    8fd0:	ea000003 	b	8fe4 <gpio_set_output+0x8c>
    8fd4:	e59f304c 	ldr	r3, [pc, #76]	; 9028 <gpio_set_output+0xd0>
    8fd8:	e5935014 	ldr	r5, [r3, #20]
    8fdc:	ea000000 	b	8fe4 <gpio_set_output+0x8c>
    8fe0:	e3a05000 	mov	r5, #0
    8fe4:	e1a00005 	mov	r0, r5
    8fe8:	ebffffd3 	bl	8f3c <get32>
    8fec:	e59f1030 	ldr	r1, [pc, #48]	; 9024 <gpio_set_output+0xcc>
    8ff0:	e0813491 	umull	r3, r1, r1, r4
    8ff4:	e1a011a1 	lsr	r1, r1, #3
    8ff8:	e0811101 	add	r1, r1, r1, lsl #2
    8ffc:	e1a01081 	lsl	r1, r1, #1
    9000:	e0611004 	rsb	r1, r1, r4
    9004:	e0811081 	add	r1, r1, r1, lsl #1
    9008:	e3a03007 	mov	r3, #7
    900c:	e1c03113 	bic	r3, r0, r3, lsl r1
    9010:	e1a00005 	mov	r0, r5
    9014:	e3a02001 	mov	r2, #1
    9018:	e1831112 	orr	r1, r3, r2, lsl r1
    901c:	ebffffba 	bl	8f0c <put32>
    9020:	e8bd8038 	pop	{r3, r4, r5, pc}
    9024:	cccccccd 	stclgt	12, cr12, [ip], {205}	; 0xcd
    9028:	000095f8 	strdeq	r9, [r0], -r8

0000902c <gpio_set_on>:
    902c:	e92d4008 	push	{r3, lr}
    9030:	e350001f 	cmp	r0, #31
    9034:	88bd8008 	pophi	{r3, pc}
    9038:	959f3020 	ldrls	r3, [pc, #32]	; 9060 <gpio_set_on+0x34>
    903c:	95932018 	ldrls	r2, [r3, #24]
    9040:	859f3018 	ldrhi	r3, [pc, #24]	; 9060 <gpio_set_on+0x34>
    9044:	8593201c 	ldrhi	r2, [r3, #28]
    9048:	e200301f 	and	r3, r0, #31
    904c:	e1a00002 	mov	r0, r2
    9050:	e3a01001 	mov	r1, #1
    9054:	e1a01311 	lsl	r1, r1, r3
    9058:	ebffffab 	bl	8f0c <put32>
    905c:	e8bd8008 	pop	{r3, pc}
    9060:	000095f8 	strdeq	r9, [r0], -r8

00009064 <gpio_set_off>:
    9064:	e92d4008 	push	{r3, lr}
    9068:	e350001f 	cmp	r0, #31
    906c:	88bd8008 	pophi	{r3, pc}
    9070:	959f3020 	ldrls	r3, [pc, #32]	; 9098 <gpio_set_off+0x34>
    9074:	95932020 	ldrls	r2, [r3, #32]
    9078:	859f3018 	ldrhi	r3, [pc, #24]	; 9098 <gpio_set_off+0x34>
    907c:	85932024 	ldrhi	r2, [r3, #36]	; 0x24
    9080:	e200301f 	and	r3, r0, #31
    9084:	e1a00002 	mov	r0, r2
    9088:	e3a01001 	mov	r1, #1
    908c:	e1a01311 	lsl	r1, r1, r3
    9090:	ebffff9d 	bl	8f0c <put32>
    9094:	e8bd8008 	pop	{r3, pc}
    9098:	000095f8 	strdeq	r9, [r0], -r8

0000909c <gpio_set_input>:
    909c:	e92d4038 	push	{r3, r4, r5, lr}
    90a0:	e1a04000 	mov	r4, r0
    90a4:	e350001f 	cmp	r0, #31
    90a8:	88bd8038 	pophi	{r3, r4, r5, pc}
    90ac:	e59f30ac 	ldr	r3, [pc, #172]	; 9160 <gpio_set_input+0xc4>
    90b0:	e0832093 	umull	r2, r3, r3, r0
    90b4:	e1a031a3 	lsr	r3, r3, #3
    90b8:	e3530005 	cmp	r3, #5
    90bc:	979ff103 	ldrls	pc, [pc, r3, lsl #2]
    90c0:	ea000017 	b	9124 <gpio_set_input+0x88>
    90c4:	000090dc 	ldrdeq	r9, [r0], -ip
    90c8:	000090e8 	andeq	r9, r0, r8, ror #1
    90cc:	000090f4 	strdeq	r9, [r0], -r4
    90d0:	00009100 	andeq	r9, r0, r0, lsl #2
    90d4:	0000910c 	andeq	r9, r0, ip, lsl #2
    90d8:	00009118 	andeq	r9, r0, r8, lsl r1
    90dc:	e59f3080 	ldr	r3, [pc, #128]	; 9164 <gpio_set_input+0xc8>
    90e0:	e5935000 	ldr	r5, [r3]
    90e4:	ea00000f 	b	9128 <gpio_set_input+0x8c>
    90e8:	e59f3074 	ldr	r3, [pc, #116]	; 9164 <gpio_set_input+0xc8>
    90ec:	e5935004 	ldr	r5, [r3, #4]
    90f0:	ea00000c 	b	9128 <gpio_set_input+0x8c>
    90f4:	e59f3068 	ldr	r3, [pc, #104]	; 9164 <gpio_set_input+0xc8>
    90f8:	e5935008 	ldr	r5, [r3, #8]
    90fc:	ea000009 	b	9128 <gpio_set_input+0x8c>
    9100:	e59f305c 	ldr	r3, [pc, #92]	; 9164 <gpio_set_input+0xc8>
    9104:	e593500c 	ldr	r5, [r3, #12]
    9108:	ea000006 	b	9128 <gpio_set_input+0x8c>
    910c:	e59f3050 	ldr	r3, [pc, #80]	; 9164 <gpio_set_input+0xc8>
    9110:	e5935010 	ldr	r5, [r3, #16]
    9114:	ea000003 	b	9128 <gpio_set_input+0x8c>
    9118:	e59f3044 	ldr	r3, [pc, #68]	; 9164 <gpio_set_input+0xc8>
    911c:	e5935014 	ldr	r5, [r3, #20]
    9120:	ea000000 	b	9128 <gpio_set_input+0x8c>
    9124:	e3a05000 	mov	r5, #0
    9128:	e1a00005 	mov	r0, r5
    912c:	ebffff82 	bl	8f3c <get32>
    9130:	e59f1028 	ldr	r1, [pc, #40]	; 9160 <gpio_set_input+0xc4>
    9134:	e0813491 	umull	r3, r1, r1, r4
    9138:	e1a011a1 	lsr	r1, r1, #3
    913c:	e0811101 	add	r1, r1, r1, lsl #2
    9140:	e1a01081 	lsl	r1, r1, #1
    9144:	e0611004 	rsb	r1, r1, r4
    9148:	e0811081 	add	r1, r1, r1, lsl #1
    914c:	e3a03007 	mov	r3, #7
    9150:	e1c01113 	bic	r1, r0, r3, lsl r1
    9154:	e1a00005 	mov	r0, r5
    9158:	ebffff6b 	bl	8f0c <put32>
    915c:	e8bd8038 	pop	{r3, r4, r5, pc}
    9160:	cccccccd 	stclgt	12, cr12, [ip], {205}	; 0xcd
    9164:	000095f8 	strdeq	r9, [r0], -r8

00009168 <gpio_read>:
    9168:	e92d4010 	push	{r4, lr}
    916c:	e1a04000 	mov	r4, r0
    9170:	e350001f 	cmp	r0, #31
    9174:	8a00000b 	bhi	91a8 <gpio_read+0x40>
    9178:	8a000003 	bhi	918c <gpio_read+0x24>
    917c:	e59f302c 	ldr	r3, [pc, #44]	; 91b0 <gpio_read+0x48>
    9180:	e5930028 	ldr	r0, [r3, #40]	; 0x28
    9184:	ebffff6c 	bl	8f3c <get32>
    9188:	ea000002 	b	9198 <gpio_read+0x30>
    918c:	e59f301c 	ldr	r3, [pc, #28]	; 91b0 <gpio_read+0x48>
    9190:	e593002c 	ldr	r0, [r3, #44]	; 0x2c
    9194:	ebffff68 	bl	8f3c <get32>
    9198:	e204401f 	and	r4, r4, #31
    919c:	e3a03001 	mov	r3, #1
    91a0:	e0000413 	and	r0, r0, r3, lsl r4
    91a4:	e8bd8010 	pop	{r4, pc}
    91a8:	e3e00000 	mvn	r0, #0
    91ac:	e8bd8010 	pop	{r4, pc}
    91b0:	000095f8 	strdeq	r9, [r0], -r8

000091b4 <gpio_write>:
    91b4:	e92d4008 	push	{r3, lr}
    91b8:	e350001f 	cmp	r0, #31
    91bc:	88bd8008 	pophi	{r3, pc}
    91c0:	e3510000 	cmp	r1, #0
    91c4:	0a00000b 	beq	91f8 <gpio_write+0x44>
    91c8:	e350001f 	cmp	r0, #31
    91cc:	88bd8008 	pophi	{r3, pc}
    91d0:	959f3050 	ldrls	r3, [pc, #80]	; 9228 <gpio_write+0x74>
    91d4:	95932018 	ldrls	r2, [r3, #24]
    91d8:	859f3048 	ldrhi	r3, [pc, #72]	; 9228 <gpio_write+0x74>
    91dc:	8593201c 	ldrhi	r2, [r3, #28]
    91e0:	e200301f 	and	r3, r0, #31
    91e4:	e1a00002 	mov	r0, r2
    91e8:	e3a01001 	mov	r1, #1
    91ec:	e1a01311 	lsl	r1, r1, r3
    91f0:	ebffff45 	bl	8f0c <put32>
    91f4:	e8bd8008 	pop	{r3, pc}
    91f8:	e350001f 	cmp	r0, #31
    91fc:	88bd8008 	pophi	{r3, pc}
    9200:	959f3020 	ldrls	r3, [pc, #32]	; 9228 <gpio_write+0x74>
    9204:	95932020 	ldrls	r2, [r3, #32]
    9208:	859f3018 	ldrhi	r3, [pc, #24]	; 9228 <gpio_write+0x74>
    920c:	85932024 	ldrhi	r2, [r3, #36]	; 0x24
    9210:	e200301f 	and	r3, r0, #31
    9214:	e1a00002 	mov	r0, r2
    9218:	e3a01001 	mov	r1, #1
    921c:	e1a01311 	lsl	r1, r1, r3
    9220:	ebffff39 	bl	8f0c <put32>
    9224:	e8bd8008 	pop	{r3, pc}
    9228:	000095f8 	strdeq	r9, [r0], -r8

0000922c <gpio_set_function>:
    922c:	e92d4070 	push	{r4, r5, r6, lr}
    9230:	e1a04000 	mov	r4, r0
    9234:	e1a05001 	mov	r5, r1
    9238:	e3510007 	cmp	r1, #7
    923c:	9350001f 	cmpls	r0, #31
    9240:	88bd8070 	pophi	{r4, r5, r6, pc}
    9244:	e59f30b0 	ldr	r3, [pc, #176]	; 92fc <gpio_set_function+0xd0>
    9248:	e0832093 	umull	r2, r3, r3, r0
    924c:	e1a031a3 	lsr	r3, r3, #3
    9250:	e3530005 	cmp	r3, #5
    9254:	979ff103 	ldrls	pc, [pc, r3, lsl #2]
    9258:	ea000017 	b	92bc <gpio_set_function+0x90>
    925c:	00009274 	andeq	r9, r0, r4, ror r2
    9260:	00009280 	andeq	r9, r0, r0, lsl #5
    9264:	0000928c 	andeq	r9, r0, ip, lsl #5
    9268:	00009298 	muleq	r0, r8, r2
    926c:	000092a4 	andeq	r9, r0, r4, lsr #5
    9270:	000092b0 			; <UNDEFINED> instruction: 0x000092b0
    9274:	e59f3084 	ldr	r3, [pc, #132]	; 9300 <gpio_set_function+0xd4>
    9278:	e5936000 	ldr	r6, [r3]
    927c:	ea00000f 	b	92c0 <gpio_set_function+0x94>
    9280:	e59f3078 	ldr	r3, [pc, #120]	; 9300 <gpio_set_function+0xd4>
    9284:	e5936004 	ldr	r6, [r3, #4]
    9288:	ea00000c 	b	92c0 <gpio_set_function+0x94>
    928c:	e59f306c 	ldr	r3, [pc, #108]	; 9300 <gpio_set_function+0xd4>
    9290:	e5936008 	ldr	r6, [r3, #8]
    9294:	ea000009 	b	92c0 <gpio_set_function+0x94>
    9298:	e59f3060 	ldr	r3, [pc, #96]	; 9300 <gpio_set_function+0xd4>
    929c:	e593600c 	ldr	r6, [r3, #12]
    92a0:	ea000006 	b	92c0 <gpio_set_function+0x94>
    92a4:	e59f3054 	ldr	r3, [pc, #84]	; 9300 <gpio_set_function+0xd4>
    92a8:	e5936010 	ldr	r6, [r3, #16]
    92ac:	ea000003 	b	92c0 <gpio_set_function+0x94>
    92b0:	e59f3048 	ldr	r3, [pc, #72]	; 9300 <gpio_set_function+0xd4>
    92b4:	e5936014 	ldr	r6, [r3, #20]
    92b8:	ea000000 	b	92c0 <gpio_set_function+0x94>
    92bc:	e3a06000 	mov	r6, #0
    92c0:	e1a00006 	mov	r0, r6
    92c4:	ebffff1c 	bl	8f3c <get32>
    92c8:	e59f302c 	ldr	r3, [pc, #44]	; 92fc <gpio_set_function+0xd0>
    92cc:	e0832493 	umull	r2, r3, r3, r4
    92d0:	e1a031a3 	lsr	r3, r3, #3
    92d4:	e0833103 	add	r3, r3, r3, lsl #2
    92d8:	e1a03083 	lsl	r3, r3, #1
    92dc:	e0633004 	rsb	r3, r3, r4
    92e0:	e0833083 	add	r3, r3, r3, lsl #1
    92e4:	e3a01007 	mov	r1, #7
    92e8:	e1c01311 	bic	r1, r0, r1, lsl r3
    92ec:	e1a00006 	mov	r0, r6
    92f0:	e1811315 	orr	r1, r1, r5, lsl r3
    92f4:	ebffff04 	bl	8f0c <put32>
    92f8:	e8bd8070 	pop	{r4, r5, r6, pc}
    92fc:	cccccccd 	stclgt	12, cr12, [ip], {205}	; 0xcd
    9300:	000095f8 	strdeq	r9, [r0], -r8

00009304 <is_gpio_int>:
    9304:	e92d4008 	push	{r3, lr}
    9308:	e59f301c 	ldr	r3, [pc, #28]	; 932c <is_gpio_int+0x28>
    930c:	e5930030 	ldr	r0, [r3, #48]	; 0x30
    9310:	ebffff09 	bl	8f3c <get32>
    9314:	e3500000 	cmp	r0, #0
    9318:	0a000001 	beq	9324 <is_gpio_int+0x20>
    931c:	e3a00001 	mov	r0, #1
    9320:	e8bd8008 	pop	{r3, pc}
    9324:	e3a00000 	mov	r0, #0
    9328:	e8bd8008 	pop	{r3, pc}
    932c:	000095f8 	strdeq	r9, [r0], -r8

00009330 <gpio_int_rising_edge>:
    9330:	e92d4038 	push	{r3, r4, r5, lr}
    9334:	e1a04000 	mov	r4, r0
    9338:	e350001f 	cmp	r0, #31
    933c:	88bd8038 	pophi	{r3, r4, r5, pc}
    9340:	ebfffeeb 	bl	8ef4 <dev_barrier>
    9344:	e354001f 	cmp	r4, #31
    9348:	8a000007 	bhi	936c <gpio_int_rising_edge+0x3c>
    934c:	e59f505c 	ldr	r5, [pc, #92]	; 93b0 <gpio_int_rising_edge+0x80>
    9350:	e5950034 	ldr	r0, [r5, #52]	; 0x34
    9354:	ebfffef8 	bl	8f3c <get32>
    9358:	e3a01001 	mov	r1, #1
    935c:	e1801411 	orr	r1, r0, r1, lsl r4
    9360:	e5950034 	ldr	r0, [r5, #52]	; 0x34
    9364:	ebfffee8 	bl	8f0c <put32>
    9368:	ea000007 	b	938c <gpio_int_rising_edge+0x5c>
    936c:	e59f503c 	ldr	r5, [pc, #60]	; 93b0 <gpio_int_rising_edge+0x80>
    9370:	e5950038 	ldr	r0, [r5, #56]	; 0x38
    9374:	ebfffef0 	bl	8f3c <get32>
    9378:	e204401f 	and	r4, r4, #31
    937c:	e3a01001 	mov	r1, #1
    9380:	e1801411 	orr	r1, r0, r1, lsl r4
    9384:	e5950038 	ldr	r0, [r5, #56]	; 0x38
    9388:	ebfffedf 	bl	8f0c <put32>
    938c:	ebfffed8 	bl	8ef4 <dev_barrier>
    9390:	e59f4018 	ldr	r4, [pc, #24]	; 93b0 <gpio_int_rising_edge+0x80>
    9394:	e594003c 	ldr	r0, [r4, #60]	; 0x3c
    9398:	ebfffee7 	bl	8f3c <get32>
    939c:	e3801802 	orr	r1, r0, #131072	; 0x20000
    93a0:	e594003c 	ldr	r0, [r4, #60]	; 0x3c
    93a4:	ebfffed8 	bl	8f0c <put32>
    93a8:	ebfffed1 	bl	8ef4 <dev_barrier>
    93ac:	e8bd8038 	pop	{r3, r4, r5, pc}
    93b0:	000095f8 	strdeq	r9, [r0], -r8

000093b4 <gpio_int_falling_edge>:
    93b4:	e92d4038 	push	{r3, r4, r5, lr}
    93b8:	e1a04000 	mov	r4, r0
    93bc:	e350001f 	cmp	r0, #31
    93c0:	88bd8038 	pophi	{r3, r4, r5, pc}
    93c4:	ebfffeca 	bl	8ef4 <dev_barrier>
    93c8:	e354001f 	cmp	r4, #31
    93cc:	8a000007 	bhi	93f0 <gpio_int_falling_edge+0x3c>
    93d0:	e59f505c 	ldr	r5, [pc, #92]	; 9434 <gpio_int_falling_edge+0x80>
    93d4:	e5950040 	ldr	r0, [r5, #64]	; 0x40
    93d8:	ebfffed7 	bl	8f3c <get32>
    93dc:	e3a01001 	mov	r1, #1
    93e0:	e1801411 	orr	r1, r0, r1, lsl r4
    93e4:	e5950040 	ldr	r0, [r5, #64]	; 0x40
    93e8:	ebfffec7 	bl	8f0c <put32>
    93ec:	ea000007 	b	9410 <gpio_int_falling_edge+0x5c>
    93f0:	e59f503c 	ldr	r5, [pc, #60]	; 9434 <gpio_int_falling_edge+0x80>
    93f4:	e5950044 	ldr	r0, [r5, #68]	; 0x44
    93f8:	ebfffecf 	bl	8f3c <get32>
    93fc:	e204401f 	and	r4, r4, #31
    9400:	e3a01001 	mov	r1, #1
    9404:	e1801411 	orr	r1, r0, r1, lsl r4
    9408:	e5950044 	ldr	r0, [r5, #68]	; 0x44
    940c:	ebfffebe 	bl	8f0c <put32>
    9410:	ebfffeb7 	bl	8ef4 <dev_barrier>
    9414:	e59f4018 	ldr	r4, [pc, #24]	; 9434 <gpio_int_falling_edge+0x80>
    9418:	e594003c 	ldr	r0, [r4, #60]	; 0x3c
    941c:	ebfffec6 	bl	8f3c <get32>
    9420:	e3801601 	orr	r1, r0, #1048576	; 0x100000
    9424:	e594003c 	ldr	r0, [r4, #60]	; 0x3c
    9428:	ebfffeb7 	bl	8f0c <put32>
    942c:	ebfffeb0 	bl	8ef4 <dev_barrier>
    9430:	e8bd8038 	pop	{r3, r4, r5, pc}
    9434:	000095f8 	strdeq	r9, [r0], -r8

00009438 <gpio_event_detected>:
    9438:	e92d4010 	push	{r4, lr}
    943c:	e1a04000 	mov	r4, r0
    9440:	e350001f 	cmp	r0, #31
    9444:	8a000019 	bhi	94b0 <gpio_event_detected+0x78>
    9448:	ebfffea9 	bl	8ef4 <dev_barrier>
    944c:	e354001f 	cmp	r4, #31
    9450:	8a000008 	bhi	9478 <gpio_event_detected+0x40>
    9454:	e59f305c 	ldr	r3, [pc, #92]	; 94b8 <gpio_event_detected+0x80>
    9458:	e5930048 	ldr	r0, [r3, #72]	; 0x48
    945c:	ebfffeb6 	bl	8f3c <get32>
    9460:	e3a03001 	mov	r3, #1
    9464:	e0103413 	ands	r3, r0, r3, lsl r4
    9468:	0a00000d 	beq	94a4 <gpio_event_detected+0x6c>
    946c:	ebfffea0 	bl	8ef4 <dev_barrier>
    9470:	e3a00001 	mov	r0, #1
    9474:	e8bd8010 	pop	{r4, pc}
    9478:	e59f3038 	ldr	r3, [pc, #56]	; 94b8 <gpio_event_detected+0x80>
    947c:	e593004c 	ldr	r0, [r3, #76]	; 0x4c
    9480:	ebfffead 	bl	8f3c <get32>
    9484:	e3a03001 	mov	r3, #1
    9488:	e0004413 	and	r4, r0, r3, lsl r4
    948c:	ebfffe98 	bl	8ef4 <dev_barrier>
    9490:	e3540000 	cmp	r4, #0
    9494:	0a000002 	beq	94a4 <gpio_event_detected+0x6c>
    9498:	ebfffe95 	bl	8ef4 <dev_barrier>
    949c:	e3a00001 	mov	r0, #1
    94a0:	e8bd8010 	pop	{r4, pc}
    94a4:	ebfffe92 	bl	8ef4 <dev_barrier>
    94a8:	e3a00000 	mov	r0, #0
    94ac:	e8bd8010 	pop	{r4, pc}
    94b0:	e3e00000 	mvn	r0, #0
    94b4:	e8bd8010 	pop	{r4, pc}
    94b8:	000095f8 	strdeq	r9, [r0], -r8

000094bc <gpio_event_clear>:
    94bc:	e92d4010 	push	{r4, lr}
    94c0:	e1a04000 	mov	r4, r0
    94c4:	e350001f 	cmp	r0, #31
    94c8:	88bd8010 	pophi	{r4, pc}
    94cc:	ebfffe88 	bl	8ef4 <dev_barrier>
    94d0:	e354001f 	cmp	r4, #31
    94d4:	8a000005 	bhi	94f0 <gpio_event_clear+0x34>
    94d8:	e59f3030 	ldr	r3, [pc, #48]	; 9510 <gpio_event_clear+0x54>
    94dc:	e5930048 	ldr	r0, [r3, #72]	; 0x48
    94e0:	e3a01001 	mov	r1, #1
    94e4:	e1a01411 	lsl	r1, r1, r4
    94e8:	ebfffe87 	bl	8f0c <put32>
    94ec:	ea000005 	b	9508 <gpio_event_clear+0x4c>
    94f0:	e204401f 	and	r4, r4, #31
    94f4:	e59f3014 	ldr	r3, [pc, #20]	; 9510 <gpio_event_clear+0x54>
    94f8:	e593004c 	ldr	r0, [r3, #76]	; 0x4c
    94fc:	e3a01001 	mov	r1, #1
    9500:	e1a01411 	lsl	r1, r1, r4
    9504:	ebfffe80 	bl	8f0c <put32>
    9508:	ebfffe79 	bl	8ef4 <dev_barrier>
    950c:	e8bd8010 	pop	{r4, pc}
    9510:	000095f8 	strdeq	r9, [r0], -r8

00009514 <internal_putchar>:
    9514:	e92d4010 	push	{r4, lr}
    9518:	e1a04000 	mov	r4, r0
    951c:	ebfffe5e 	bl	8e9c <uart_putc>
    9520:	e1a00004 	mov	r0, r4
    9524:	e8bd8010 	pop	{r4, pc}

00009528 <rpi_reset_putc>:
    9528:	e59f2008 	ldr	r2, [pc, #8]	; 9538 <rpi_reset_putc+0x10>
    952c:	e59f3008 	ldr	r3, [pc, #8]	; 953c <rpi_reset_putc+0x14>
    9530:	e5832000 	str	r2, [r3]
    9534:	e12fff1e 	bx	lr
    9538:	00009514 	andeq	r9, r0, r4, lsl r5
    953c:	00009658 	andeq	r9, r0, r8, asr r6

00009540 <rpi_set_putc>:
    9540:	e59f3004 	ldr	r3, [pc, #4]	; 954c <rpi_set_putc+0xc>
    9544:	e5830000 	str	r0, [r3]
    9548:	e12fff1e 	bx	lr
    954c:	00009658 	andeq	r9, r0, r8, asr r6

00009550 <cb_new>:
    9550:	e92d4008 	push	{r3, lr}
    9554:	e3a00409 	mov	r0, #150994944	; 0x9000000
    9558:	e3a01000 	mov	r1, #0
    955c:	e3a02004 	mov	r2, #4
    9560:	eb00000e 	bl	95a0 <memset>
    9564:	e3a00409 	mov	r0, #150994944	; 0x9000000
    9568:	e59f3004 	ldr	r3, [pc, #4]	; 9574 <cb_new+0x24>
    956c:	e5803000 	str	r3, [r0]
    9570:	e8bd8008 	pop	{r3, pc}
    9574:	12345678 	eorsne	r5, r4, #120, 12	; 0x7800000

00009578 <cb_get_block>:
    9578:	e3a03409 	mov	r3, #150994944	; 0x9000000
    957c:	e5932000 	ldr	r2, [r3]
    9580:	e59f3014 	ldr	r3, [pc, #20]	; 959c <cb_get_block+0x24>
    9584:	e1520003 	cmp	r2, r3
    9588:	0a000001 	beq	9594 <cb_get_block+0x1c>
    958c:	e3a00000 	mov	r0, #0
    9590:	e12fff1e 	bx	lr
    9594:	e3a00409 	mov	r0, #150994944	; 0x9000000
    9598:	e12fff1e 	bx	lr
    959c:	12345678 	eorsne	r5, r4, #120, 12	; 0x7800000

000095a0 <memset>:
    95a0:	e0802002 	add	r2, r0, r2
    95a4:	e1a03000 	mov	r3, r0
    95a8:	ea000001 	b	95b4 <memset+0x14>
    95ac:	e5c31000 	strb	r1, [r3]
    95b0:	e2833001 	add	r3, r3, #1
    95b4:	e1530002 	cmp	r3, r2
    95b8:	3afffffb 	bcc	95ac <memset+0xc>
    95bc:	e12fff1e 	bx	lr

Disassembly of section .data:

000095c0 <putk>:
    95c0:	00008080 	andeq	r8, r0, r0, lsl #1

000095c4 <AUX_ENABLES>:
    95c4:	20215004 	eorcs	r5, r1, r4

000095c8 <AUX_MU_CNTL_REG>:
    95c8:	20215060 	eorcs	r5, r1, r0, rrx

000095cc <AUX_MU_IER_REG>:
    95cc:	20215044 	eorcs	r5, r1, r4, asr #32

000095d0 <AUX_MU_IIR_REG>:
    95d0:	20215048 	eorcs	r5, r1, r8, asr #32

000095d4 <AUX_MU_LCR_REG>:
    95d4:	2021504c 	eorcs	r5, r1, ip, asr #32

000095d8 <AUX_MU_BAUD_REG>:
    95d8:	20215068 	eorcs	r5, r1, r8, rrx

000095dc <AUX_MU_LSR_REG>:
    95dc:	20215054 	eorcs	r5, r1, r4, asr r0

000095e0 <AUX_MU_IO_REG>:
    95e0:	20215040 	eorcs	r5, r1, r0, asr #32

000095e4 <AUX_MU_STAT_REG>:
    95e4:	20215064 	eorcs	r5, r1, r4, rrx

000095e8 <AUX_MU_SCRATCH>:
    95e8:	2021505c 	eorcs	r5, r1, ip, asr r0

000095ec <AUX_MU_MSR_REG>:
    95ec:	20215058 	eorcs	r5, r1, r8, asr r0

000095f0 <AUX_MU_MCR_REG>:
    95f0:	20215050 	eorcs	r5, r1, r0, asr r0

000095f4 <AUX_IRQ>:
    95f4:	20215000 	eorcs	r5, r1, r0

000095f8 <GPFSEL0>:
    95f8:	20200000 	eorcs	r0, r0, r0

000095fc <GPFSEL1>:
    95fc:	20200004 	eorcs	r0, r0, r4

00009600 <GPFSEL2>:
    9600:	20200008 	eorcs	r0, r0, r8

00009604 <GPFSEL3>:
    9604:	2020000c 	eorcs	r0, r0, ip

00009608 <GPFSEL4>:
    9608:	20200010 	eorcs	r0, r0, r0, lsl r0

0000960c <GPFSEL5>:
    960c:	20200014 	eorcs	r0, r0, r4, lsl r0

00009610 <GPSET0>:
    9610:	2020001c 	eorcs	r0, r0, ip, lsl r0

00009614 <GPSET1>:
    9614:	20200020 	eorcs	r0, r0, r0, lsr #32

00009618 <GPCLR0>:
    9618:	20200028 	eorcs	r0, r0, r8, lsr #32

0000961c <GPCLR1>:
    961c:	2020002c 	eorcs	r0, r0, ip, lsr #32

00009620 <GPLEV0>:
    9620:	20200034 	eorcs	r0, r0, r4, lsr r0

00009624 <GPLEV1>:
    9624:	20200038 	eorcs	r0, r0, r8, lsr r0

00009628 <IRQ_PENDING_2>:
    9628:	2000b208 	andcs	fp, r0, r8, lsl #4

0000962c <GPREN0>:
    962c:	2020004c 	eorcs	r0, r0, ip, asr #32

00009630 <GPREN1>:
    9630:	20200050 	eorcs	r0, r0, r0, asr r0

00009634 <ENABLE_IRQS_2>:
    9634:	2000b214 	andcs	fp, r0, r4, lsl r2

00009638 <GPFEN0>:
    9638:	20200058 	eorcs	r0, r0, r8, asr r0

0000963c <GPFEN1>:
    963c:	2020005c 	eorcs	r0, r0, ip, asr r0

00009640 <GPEDS0>:
    9640:	20200040 	eorcs	r0, r0, r0, asr #32

00009644 <GPEDS1>:
    9644:	20200044 	eorcs	r0, r0, r4, asr #32

00009648 <IRQ_PENDING_1>:
    9648:	2000b204 	andcs	fp, r0, r4, lsl #4

0000964c <gpio_clr0>:
    964c:	20200028 	eorcs	r0, r0, r8, lsr #32

00009650 <gpio_set0>:
    9650:	2020001c 	eorcs	r0, r0, ip, lsl r0

00009654 <gpio_fsel0>:
    9654:	20200000 	eorcs	r0, r0, r0

00009658 <rpi_putchar>:
    9658:	00009514 	andeq	r9, r0, r4, lsl r5

Disassembly of section .rodata:

0000965c <__FUNCTION__.4216-0x18>:
    965c:	6c6c6568 	cfstr64vs	mvdx6, [ip], #-416	; 0xfffffe60
    9660:	67203a6f 	strvs	r3, [r0, -pc, ror #20]!
    9664:	616e6e6f 	cmnvs	lr, pc, ror #28
    9668:	62657220 	rsbvs	r7, r5, #32, 4
    966c:	0a746f6f 	beq	1d25430 <__bss_end__+0x1d1b728>
    9670:	00000000 	andeq	r0, r0, r0

00009674 <__FUNCTION__.4216>:
    9674:	74696d65 	strbtvc	r6, [r9], #-3429	; 0xd65
    9678:	00000000 	andeq	r0, r0, r0

0000967c <__FUNCTION__.4164>:
    967c:	5f697072 	svcpl	0x00697072
    9680:	5f746573 	svcpl	0x00746573
    9684:	7074756f 	rsbsvc	r7, r4, pc, ror #10
    9688:	00007475 	andeq	r7, r0, r5, ror r4

0000968c <__FUNCTION__.4238>:
    968c:	705f6176 	subsvc	r6, pc, r6, ror r1	; <UNPREDICTABLE>
    9690:	746e6972 	strbtvc	r6, [lr], #-2418	; 0x972
    9694:	0000006b 	andeq	r0, r0, fp, rrx
    9698:	494e4150 	stmdbmi	lr, {r4, r6, r8, lr}^
    969c:	73253a43 	teqvc	r5, #274432	; 0x43000
    96a0:	3a73253a 	bcc	1cd2b90 <__bss_end__+0x1cc8e88>
    96a4:	303a6425 	eorscc	r6, sl, r5, lsr #8
    96a8:	0000000a 	andeq	r0, r0, sl
    96ac:	6362696c 	cmnvs	r2, #108, 18	; 0x1b0000
    96b0:	2d61762f 	stclcs	6, cr7, [r1, #-188]!	; 0xffffff44
    96b4:	6e697270 	mcrvs	2, 3, r7, cr9, cr0, {3}
    96b8:	632e6b74 	teqvs	lr, #116, 22	; 0x1d000
    96bc:	00000000 	andeq	r0, r0, r0
    96c0:	33323130 	teqcc	r2, #48, 2
    96c4:	37363534 			; <UNDEFINED> instruction: 0x37363534
    96c8:	00003938 	andeq	r3, r0, r8, lsr r9
    96cc:	33323130 	teqcc	r2, #48, 2
    96d0:	37363534 			; <UNDEFINED> instruction: 0x37363534
    96d4:	62613938 	rsbvs	r3, r1, #56, 18	; 0xe0000
    96d8:	66656463 	strbtvs	r6, [r5], -r3, ror #8
    96dc:	00000000 	andeq	r0, r0, r0
    96e0:	00003130 	andeq	r3, r0, r0, lsr r1
    96e4:	494e4150 	stmdbmi	lr, {r4, r6, r8, lr}^
    96e8:	73253a43 	teqvc	r5, #274432	; 0x43000
    96ec:	3a73253a 	bcc	1cd2bdc <__bss_end__+0x1cc8ed4>
    96f0:	703a6425 	eorsvc	r6, sl, r5, lsr #8
    96f4:	5f637475 	svcpl	0x00637475
    96f8:	000a7066 	andeq	r7, sl, r6, rrx
    96fc:	494e4150 	stmdbmi	lr, {r4, r6, r8, lr}^
    9700:	73253a43 	teqvc	r5, #274432	; 0x43000
    9704:	3a73253a 	bcc	1cd2bf4 <__bss_end__+0x1cc8eec>
    9708:	773a6425 	ldrvc	r6, [sl, -r5, lsr #8]!
    970c:	68746469 	ldmdavs	r4!, {r0, r3, r5, r6, sl, sp, lr}^
    9710:	33203c20 	teqcc	r0, #32, 24	; 0x2000
    9714:	00000a32 	andeq	r0, r0, r2, lsr sl
    9718:	494e4150 	stmdbmi	lr, {r4, r6, r8, lr}^
    971c:	73253a43 	teqvc	r5, #274432	; 0x43000
    9720:	3a73253a 	bcc	1cd2c10 <__bss_end__+0x1cc8f08>
    9724:	663a6425 	ldrtvs	r6, [sl], -r5, lsr #8
    9728:	74616f6c 	strbtvc	r6, [r1], #-3948	; 0xf6c
    972c:	746f6e20 	strbtvc	r6, [pc], #-3616	; 9734 <__FUNCTION__.4238+0xa8>
    9730:	616e6520 	cmnvs	lr, r0, lsr #10
    9734:	64656c62 	strbtvs	r6, [r5], #-3170	; 0xc62
    9738:	0a212121 	beq	851bc4 <__bss_end__+0x847ebc>
    973c:	00000000 	andeq	r0, r0, r0
    9740:	494e4150 	stmdbmi	lr, {r4, r6, r8, lr}^
    9744:	73253a43 	teqvc	r5, #274432	; 0x43000
    9748:	3a73253a 	bcc	1cd2c38 <__bss_end__+0x1cc8f30>
    974c:	703a6425 	eorsvc	r6, sl, r5, lsr #8
    9750:	746e6972 	strbtvc	r6, [lr], #-2418	; 0x972
    9754:	6e203a6b 	vnmulvs.f32	s6, s0, s23
    9758:	6820746f 	stmdavs	r0!, {r0, r1, r2, r3, r5, r6, sl, ip, sp, lr}
    975c:	6c646e61 	stclvs	14, cr6, [r4], #-388	; 0xfffffe7c
    9760:	20676e69 	rsbcs	r6, r7, r9, ror #28
    9764:	63657073 	cmnvs	r5, #115	; 0x73
    9768:	65696669 	strbvs	r6, [r9, #-1641]!	; 0x669
    976c:	25272072 	strcs	r2, [r7, #-114]!	; 0x72
    9770:	0a0a2763 	beq	293504 <__bss_end__+0x2897fc>
    9774:	00000000 	andeq	r0, r0, r0
    9778:	454e4f44 	strbmi	r4, [lr, #-3908]	; 0xf44
    977c:	0a212121 	beq	851c08 <__bss_end__+0x847f00>
    9780:	00000000 	andeq	r0, r0, r0
    9784:	756f6261 	strbvc	r6, [pc, #-609]!	; 952b <rpi_reset_putc+0x3>
    9788:	6f742074 	svcvs	0x00742074
    978c:	69727020 	ldmdbvs	r2!, {r5, ip, sp, lr}^
    9790:	6f20746e 	svcvs	0x0020746e
    9794:	6572206e 	ldrbvs	r2, [r2, #-110]!	; 0x6e
    9798:	616c7567 	cmnvs	ip, r7, ror #10
    979c:	72702072 	rsbsvc	r2, r0, #114	; 0x72
    97a0:	66746e69 	ldrbtvs	r6, [r4], -r9, ror #28
    97a4:	0000000a 	andeq	r0, r0, sl
    97a8:	63637573 	cmnvs	r3, #482344960	; 0x1cc00000
    97ac:	21737365 	cmncs	r3, r5, ror #6
    97b0:	0000000a 	andeq	r0, r0, sl

000097b4 <__FUNCTION__.4265>:
    97b4:	755f7773 	ldrbvc	r7, [pc, #-1907]	; 9049 <gpio_set_on+0x1d>
    97b8:	5f747261 	svcpl	0x00747261
    97bc:	73746567 	cmnvc	r4, #432013312	; 0x19c00000
    97c0:	746e755f 	strbtvc	r7, [lr], #-1375	; 0x55f
    97c4:	00006c69 	andeq	r6, r0, r9, ror #24

000097c8 <__FUNCTION__.4277>:
    97c8:	755f7773 	ldrbvc	r7, [pc, #-1907]	; 905d <gpio_set_on+0x31>
    97cc:	5f747261 	svcpl	0x00747261
    97d0:	73746567 	cmnvc	r4, #432013312	; 0x19c00000
    97d4:	6d69745f 	cfstrdvs	mvd7, [r9, #-380]!	; 0xfffffe84
    97d8:	74756f65 	ldrbtvc	r6, [r5], #-3941	; 0xf65
    97dc:	00000000 	andeq	r0, r0, r0

000097e0 <__FUNCTION__.4291>:
    97e0:	755f7773 	ldrbvc	r7, [pc, #-1907]	; 9075 <gpio_set_off+0x11>
    97e4:	5f747261 	svcpl	0x00747261
    97e8:	74696e69 	strbtvc	r6, [r9], #-3689	; 0xe69
    97ec:	6c65685f 	stclvs	8, cr6, [r5], #-380	; 0xfffffe84
    97f0:	00726570 	rsbseq	r6, r2, r0, ror r5

000097f4 <__FUNCTION__.4297>:
    97f4:	755f7773 	ldrbvc	r7, [pc, #-1907]	; 9089 <gpio_set_off+0x25>
    97f8:	5f747261 	svcpl	0x00747261
    97fc:	63746567 	cmnvs	r4, #432013312	; 0x19c00000
    9800:	00000000 	andeq	r0, r0, r0

00009804 <__FUNCTION__.4319>:
    9804:	755f7773 	ldrbvc	r7, [pc, #-1907]	; 9099 <gpio_set_off+0x35>
    9808:	5f747261 	svcpl	0x00747261
    980c:	6e697270 	mcrvs	2, 3, r7, cr9, cr0, {3}
    9810:	00006b74 	andeq	r6, r0, r4, ror fp

00009814 <__FUNCTION__.4327>:
    9814:	755f7773 	ldrbvc	r7, [pc, #-1907]	; 90a9 <gpio_set_input+0xd>
    9818:	5f747261 	svcpl	0x00747261
    981c:	73746567 	cmnvc	r4, #432013312	; 0x19c00000
    9820:	746e755f 	strbtvc	r7, [lr], #-1375	; 0x55f
    9824:	625f6c69 	subsvs	r6, pc, #26880	; 0x6900
    9828:	00006b6c 	andeq	r6, r0, ip, ror #22
    982c:	494e4150 	stmdbmi	lr, {r4, r6, r8, lr}^
    9830:	73253a43 	teqvc	r5, #274432	; 0x43000
    9834:	3a73253a 	bcc	1cd2d24 <__bss_end__+0x1cc901c>
    9838:	6e3a6425 	cdpvs	4, 3, cr6, cr10, cr5, {1}
    983c:	65747962 	ldrbvs	r7, [r4, #-2402]!	; 0x962
    9840:	0a303e73 	beq	c19214 <__bss_end__+0xc0f50c>
    9844:	00000000 	andeq	r0, r0, r0
    9848:	732d796d 	teqvc	sp, #1785856	; 0x1b4000
    984c:	732f6372 	teqvc	pc, #-939524095	; 0xc8000001
    9850:	61752d77 	cmnvs	r5, r7, ror sp
    9854:	632e7472 	teqvs	lr, #1912602624	; 0x72000000
    9858:	00000000 	andeq	r0, r0, r0
    985c:	494e4150 	stmdbmi	lr, {r4, r6, r8, lr}^
    9860:	73253a43 	teqvc	r5, #274432	; 0x43000
    9864:	3a73253a 	bcc	1cd2d54 <__bss_end__+0x1cc904c>
    9868:	283a6425 	ldmdacs	sl!, {r0, r2, r5, sl, sp, lr}
    986c:	207a686d 	rsbscs	r6, sl, sp, ror #16
    9870:	6162202d 	cmnvs	r2, sp, lsr #32
    9874:	20296475 	eorcs	r6, r9, r5, ror r4
    9878:	64203d3c 	strtvs	r3, [r0], #-3388	; 0xd3c
    987c:	76697265 	strbtvc	r7, [r9], -r5, ror #4
    9880:	26206465 	strtcs	r6, [r0], -r5, ror #8
    9884:	65642026 	strbvs	r2, [r4, #-38]!	; 0x26
    9888:	65766972 	ldrbvs	r6, [r6, #-2418]!	; 0x972
    988c:	3d3c2064 	ldccc	0, cr2, [ip, #-400]!	; 0xfffffe70
    9890:	686d2820 	stmdavs	sp!, {r5, fp, sp}^
    9894:	202b207a 	eorcs	r2, fp, sl, ror r0
    9898:	64756162 	ldrbtvs	r6, [r5], #-354	; 0x162
    989c:	00000a29 	andeq	r0, r0, r9, lsr #20
    98a0:	494e4150 	stmdbmi	lr, {r4, r6, r8, lr}^
    98a4:	73253a43 	teqvc	r5, #274432	; 0x43000
    98a8:	3a73253a 	bcc	1cd2d98 <__bss_end__+0x1cc9090>
    98ac:	693a6425 	ldmdbvs	sl!, {r0, r2, r5, sl, sp, lr}
    98b0:	736f706d 	cmnvc	pc, #109	; 0x6d
    98b4:	6c626973 	stclvs	9, cr6, [r2], #-460	; 0xfffffe34
    98b8:	68203a65 	stmdavs	r0!, {r0, r2, r5, r6, r9, fp, ip, sp}
    98bc:	20657661 	rsbcs	r7, r5, r1, ror #12
    98c0:	69206e61 	stmdbvs	r0!, {r0, r5, r6, r9, sl, fp, sp, lr}
    98c4:	6e69666e 	cdpvs	6, 6, cr6, cr9, cr14, {3}
    98c8:	20657469 	rsbcs	r7, r5, r9, ror #8
    98cc:	656d6974 	strbvs	r6, [sp, #-2420]!	; 0x974
    98d0:	2174756f 	cmncs	r4, pc, ror #10
    98d4:	00000a0a 	andeq	r0, r0, sl, lsl #20
    98d8:	494e4150 	stmdbmi	lr, {r4, r6, r8, lr}^
    98dc:	73253a43 	teqvc	r5, #274432	; 0x43000
    98e0:	3a73253a 	bcc	1cd2dd0 <__bss_end__+0x1cc90c8>
    98e4:	733a6425 	teqvc	sl, #620756992	; 0x25000000
    98e8:	203c207a 	eorscs	r2, ip, sl, ror r0
    98ec:	657a6973 	ldrbvs	r6, [sl, #-2419]!	; 0x973
    98f0:	6220666f 	eorvs	r6, r0, #116391936	; 0x6f00000
    98f4:	312d6675 	teqcc	sp, r5, ror r6
    98f8:	0000000a 	andeq	r0, r0, sl

Disassembly of section .bss:

000098fc <__bss_start__>:
	...

00009cfc <console_uart>:
	...

Disassembly of section .ARM.attributes:

00000000 <.ARM.attributes>:
   0:	00002a41 	andeq	r2, r0, r1, asr #20
   4:	61656100 	cmnvs	r5, r0, lsl #2
   8:	01006962 	tsteq	r0, r2, ror #18
   c:	00000020 	andeq	r0, r0, r0, lsr #32
  10:	4b5a3605 	blmi	168d82c <__bss_end__+0x1683b24>
  14:	08070600 	stmdaeq	r7, {r9, sl}
  18:	12010901 	andne	r0, r1, #16384	; 0x4000
  1c:	15011404 	strne	r1, [r1, #-1028]	; 0x404
  20:	18031701 	stmdane	r3, {r0, r8, r9, sl, ip}
  24:	22011a01 	andcs	r1, r1, #4096	; 0x1000
  28:	Address 0x0000000000000028 is out of bounds.


Disassembly of section .comment:

00000000 <.comment>:
   0:	3a434347 	bcc	10d0d24 <__bss_end__+0x10c701c>
   4:	4e472820 	cdpmi	8, 4, cr2, cr7, cr0, {1}
   8:	34202955 	strtcc	r2, [r0], #-2389	; 0x955
   c:	332e382e 	teqcc	lr, #3014656	; 0x2e0000
	...

Disassembly of section .debug_info:

00000000 <.debug_info>:
       0:	000000e4 	andeq	r0, r0, r4, ror #1
       4:	00000004 	andeq	r0, r0, r4
       8:	01040000 	mrseq	r0, (UNDEF: 4)
       c:	000000a3 	andeq	r0, r0, r3, lsr #1
      10:	00000e01 	andeq	r0, r0, r1, lsl #28
      14:	00001900 	andeq	r1, r0, r0, lsl #18
      18:	00801000 	addeq	r1, r0, r0
      1c:	00001800 	andeq	r1, r0, r0, lsl #16
      20:	00000000 	andeq	r0, r0, r0
      24:	05040200 	streq	r0, [r4, #-512]	; 0x200
      28:	00746e69 	rsbseq	r6, r4, r9, ror #28
      2c:	96070403 	strls	r0, [r7], -r3, lsl #8
      30:	03000000 	movweq	r0, #0
      34:	00fc0601 	rscseq	r0, ip, r1, lsl #12
      38:	02030000 	andeq	r0, r3, #0
      3c:	00013a05 	andeq	r3, r1, r5, lsl #20
      40:	05040300 	streq	r0, [r4, #-768]	; 0x300
      44:	00000005 	andeq	r0, r0, r5
      48:	00050803 	andeq	r0, r5, r3, lsl #16
      4c:	03000000 	movweq	r0, #0
      50:	00fa0801 	rscseq	r0, sl, r1, lsl #16
      54:	02030000 	andeq	r0, r3, #0
      58:	00012707 	andeq	r2, r1, r7, lsl #14
      5c:	07040300 	streq	r0, [r4, -r0, lsl #6]
      60:	00000091 	muleq	r0, r1, r0
      64:	8c070803 	stchi	8, cr0, [r7], {3}
      68:	03000000 	movweq	r0, #0
      6c:	01440704 	cmpeq	r4, r4, lsl #14
      70:	01030000 	mrseq	r0, (UNDEF: 3)
      74:	00010308 	andeq	r0, r1, r8, lsl #6
      78:	7f040400 	svcvc	0x00040400
      7c:	05000000 	streq	r0, [r0, #-0]
      80:	00000072 	andeq	r0, r0, r2, ror r0
      84:	00011f06 	andeq	r1, r1, r6, lsl #30
      88:	10040100 	andne	r0, r4, r0, lsl #2
      8c:	18000080 	stmdane	r0, {r7}
      90:	01000000 	mrseq	r0, (UNDEF: 0)
      94:	0000c39c 	muleq	r0, ip, r3
      98:	80180700 	andshi	r0, r8, r0, lsl #14
      9c:	00c30000 	sbceq	r0, r3, r0
      a0:	20080000 	andcs	r0, r8, r0
      a4:	ca000080 	bgt	2ac <_start-0x7d54>
      a8:	b9000000 	stmdblt	r0, {}	; <UNPREDICTABLE>
      ac:	09000000 	stmdbeq	r0, {}	; <UNPREDICTABLE>
      b0:	03055001 	movweq	r5, #20481	; 0x5001
      b4:	0000965c 	andeq	r9, r0, ip, asr r6
      b8:	80240700 	eorhi	r0, r4, r0, lsl #14
      bc:	00e00000 	rsceq	r0, r0, r0
      c0:	0a000000 	beq	c8 <_start-0x7f38>
      c4:	00000108 	andeq	r0, r0, r8, lsl #2
      c8:	6d0b3a02 	vstrvs	s6, [fp, #-8]
      cc:	02000001 	andeq	r0, r0, #1
      d0:	00002529 	andeq	r2, r0, r9, lsr #10
      d4:	0000e000 	andeq	lr, r0, r0
      d8:	00790c00 	rsbseq	r0, r9, r0, lsl #24
      dc:	000d0000 	andeq	r0, sp, r0
      e0:	0001120a 	andeq	r1, r1, sl, lsl #4
      e4:	00660200 	rsbeq	r0, r6, r0, lsl #4
      e8:	00000191 	muleq	r0, r1, r1
      ec:	00aa0004 	adceq	r0, sl, r4
      f0:	01040000 	mrseq	r0, (UNDEF: 4)
      f4:	000000a3 	andeq	r0, r0, r3, lsr #1
      f8:	00015c01 	andeq	r5, r1, r1, lsl #24
      fc:	00017e00 	andeq	r7, r1, r0, lsl #28
     100:	00802800 	addeq	r2, r0, r0, lsl #16
     104:	00005800 	andeq	r5, r0, r0, lsl #16
     108:	00008800 	andeq	r8, r0, r0, lsl #16
     10c:	014d0200 	mrseq	r0, (UNDEF: 109)
     110:	28020000 	stmdacs	r2, {}	; <UNPREDICTABLE>
     114:	00000030 	andeq	r0, r0, r0, lsr r0
     118:	00017403 	andeq	r7, r1, r3, lsl #8
     11c:	00030400 	andeq	r0, r3, r0, lsl #8
     120:	00000047 	andeq	r0, r0, r7, asr #32
     124:	0001c704 	andeq	ip, r1, r4, lsl #14
     128:	00004700 	andeq	r4, r0, r0, lsl #14
     12c:	05000000 	streq	r0, [r0, #-0]
     130:	01760204 	cmneq	r6, r4, lsl #4
     134:	62020000 	andvs	r0, r2, #0
     138:	00000025 	andeq	r0, r0, r5, lsr #32
     13c:	69050406 	stmdbvs	r5, {r1, r2, sl}
     140:	0700746e 	streq	r7, [r0, -lr, ror #8]
     144:	00960704 	addseq	r0, r6, r4, lsl #14
     148:	01070000 	mrseq	r0, (UNDEF: 7)
     14c:	0000fc06 	andeq	pc, r0, r6, lsl #24
     150:	05020700 	streq	r0, [r2, #-1792]	; 0x700
     154:	0000013a 	andeq	r0, r0, sl, lsr r1
     158:	05050407 	streq	r0, [r5, #-1031]	; 0x407
     15c:	07000000 	streq	r0, [r0, -r0]
     160:	00000508 	andeq	r0, r0, r8, lsl #10
     164:	01070000 	mrseq	r0, (UNDEF: 7)
     168:	0000fa08 	andeq	pc, r0, r8, lsl #20
     16c:	07020700 	streq	r0, [r2, -r0, lsl #14]
     170:	00000127 	andeq	r0, r0, r7, lsr #2
     174:	91070407 	tstls	r7, r7, lsl #8
     178:	07000000 	streq	r0, [r0, -r0]
     17c:	008c0708 	addeq	r0, ip, r8, lsl #14
     180:	04070000 	streq	r0, [r7], #-0
     184:	00014407 	andeq	r4, r1, r7, lsl #8
     188:	a7040800 	strge	r0, [r4, -r0, lsl #16]
     18c:	07000000 	streq	r0, [r0, -r0]
     190:	01030801 	tsteq	r3, r1, lsl #16
     194:	04080000 	streq	r0, [r8], #-0
     198:	000000b4 	strheq	r0, [r0], -r4
     19c:	0000a709 	andeq	sl, r0, r9, lsl #14
     1a0:	016d0a00 	cmneq	sp, r0, lsl #20
     1a4:	06010000 	streq	r0, [r1], -r0
     1a8:	00000054 	andeq	r0, r0, r4, asr r0
     1ac:	00008028 	andeq	r8, r0, r8, lsr #32
     1b0:	00000058 	andeq	r0, r0, r8, asr r0
     1b4:	01439c01 	cmpeq	r3, r1, lsl #24
     1b8:	660b0000 	strvs	r0, [fp], -r0
     1bc:	0100746d 	tsteq	r0, sp, ror #8
     1c0:	0000ae06 	andeq	sl, r0, r6, lsl #28
     1c4:	70910200 	addsvc	r0, r1, r0, lsl #4
     1c8:	75620d0c 	strbvc	r0, [r2, #-3340]!	; 0xd0c
     1cc:	08010066 	stmdaeq	r1, {r1, r2, r5, r6}
     1d0:	00000143 	andeq	r0, r0, r3, asr #2
     1d4:	98fc0305 	ldmls	ip!, {r0, r2, r8, r9}^
     1d8:	c20e0000 	andgt	r0, lr, #0
     1dc:	01000001 	tsteq	r0, r1
     1e0:	00004909 	andeq	r4, r0, r9, lsl #18
     1e4:	5c910200 	lfmpl	f0, 4, [r1], {0}
     1e8:	007a730f 	rsbseq	r7, sl, pc, lsl #6
     1ec:	00540c01 	subseq	r0, r4, r1, lsl #24
     1f0:	00000000 	andeq	r0, r0, r0
     1f4:	50100000 	andspl	r0, r0, r0
     1f8:	74000080 	strvc	r0, [r0], #-128	; 0x80
     1fc:	36000001 	strcc	r0, [r0], -r1
     200:	11000001 	tstne	r0, r1
     204:	91025301 	tstls	r2, r1, lsl #6
     208:	5201114c 	andpl	r1, r1, #76, 2
     20c:	06489103 	strbeq	r9, [r8], -r3, lsl #2
     210:	03510111 	cmpeq	r1, #1073741828	; 0x40000004
     214:	1104000a 	tstne	r4, sl
     218:	74025001 	strvc	r5, [r2], #-1
     21c:	64120000 	ldrvs	r0, [r2], #-0
     220:	11000080 	smlabbne	r0, r0, r0, r0
     224:	74025001 	strvc	r5, [r2], #-1
     228:	13000000 	movwne	r0, #0
     22c:	000000a7 	andeq	r0, r0, r7, lsr #1
     230:	00000154 	andeq	r0, r0, r4, asr r1
     234:	00009a14 	andeq	r9, r0, r4, lsl sl
     238:	0003ff00 	andeq	pc, r3, r0, lsl #30
     23c:	00005415 	andeq	r5, r0, r5, lsl r4
     240:	00016300 	andeq	r6, r1, r0, lsl #6
     244:	00ae1600 	adceq	r1, lr, r0, lsl #12
     248:	17000000 	strne	r0, [r0, -r0]
     24c:	000001e1 	andeq	r0, r0, r1, ror #3
     250:	016e2204 	cmneq	lr, r4, lsl #4
     254:	04080000 	streq	r0, [r8], #-0
     258:	00000154 	andeq	r0, r0, r4, asr r1
     25c:	00016a18 	andeq	r6, r1, r8, lsl sl
     260:	54020500 	strpl	r0, [r2], #-1280	; 0x500
     264:	16000000 	strne	r0, [r0], -r0
     268:	000000a1 	andeq	r0, r0, r1, lsr #1
     26c:	00005416 	andeq	r5, r0, r6, lsl r4
     270:	00ae1600 	adceq	r1, lr, r0, lsl #12
     274:	49160000 	ldmdbmi	r6, {}	; <UNPREDICTABLE>
     278:	00000000 	andeq	r0, r0, r0
     27c:	0000ee00 	andeq	lr, r0, r0, lsl #28
     280:	db000400 	blle	1288 <_start-0x6d78>
     284:	04000001 	streq	r0, [r0], #-1
     288:	0000a301 	andeq	sl, r0, r1, lsl #6
     28c:	01cc0100 	biceq	r0, ip, r0, lsl #2
     290:	017e0000 	cmneq	lr, r0
     294:	80800000 	addhi	r0, r0, r0
     298:	00340000 	eorseq	r0, r4, r0
     29c:	018e0000 	orreq	r0, lr, r0
     2a0:	04020000 	streq	r0, [r2], #-0
     2a4:	746e6905 	strbtvc	r6, [lr], #-2309	; 0x905
     2a8:	07040300 	streq	r0, [r4, -r0, lsl #6]
     2ac:	00000096 	muleq	r0, r6, r0
     2b0:	fc060103 	stc2	1, cr0, [r6], {3}
     2b4:	03000000 	movweq	r0, #0
     2b8:	013a0502 	teqeq	sl, r2, lsl #10
     2bc:	04030000 	streq	r0, [r3], #-0
     2c0:	00000505 	andeq	r0, r0, r5, lsl #10
     2c4:	05080300 	streq	r0, [r8, #-768]	; 0x300
     2c8:	00000000 	andeq	r0, r0, r0
     2cc:	fa080103 	blx	2006e0 <__bss_end__+0x1f69d8>
     2d0:	03000000 	movweq	r0, #0
     2d4:	01270702 	teqeq	r7, r2, lsl #14
     2d8:	04030000 	streq	r0, [r3], #-0
     2dc:	00009107 	andeq	r9, r0, r7, lsl #2
     2e0:	07080300 	streq	r0, [r8, -r0, lsl #6]
     2e4:	0000008c 	andeq	r0, r0, ip, lsl #1
     2e8:	44070403 	strmi	r0, [r7], #-1027	; 0x403
     2ec:	03000001 	movweq	r0, #1
     2f0:	01030801 	tsteq	r3, r1, lsl #16
     2f4:	04040000 	streq	r0, [r4], #-0
     2f8:	0000007f 	andeq	r0, r0, pc, ror r0
     2fc:	00007205 	andeq	r7, r0, r5, lsl #4
     300:	01d80600 	bicseq	r0, r8, r0, lsl #12
     304:	04010000 	streq	r0, [r1], #-0
     308:	00000025 	andeq	r0, r0, r5, lsr #32
     30c:	00008080 	andeq	r8, r0, r0, lsl #1
     310:	00000034 	andeq	r0, r0, r4, lsr r0
     314:	00ab9c01 	adceq	r9, fp, r1, lsl #24
     318:	70070000 	andvc	r0, r7, r0
     31c:	79040100 	stmdbvc	r4, {r8}
     320:	29000000 	stmdbcs	r0, {}	; <UNPREDICTABLE>
     324:	00000000 	andeq	r0, r0, r0
     328:	00002508 	andeq	r2, r0, r8, lsl #10
     32c:	0000ba00 	andeq	fp, r0, r0, lsl #20
     330:	00250900 	eoreq	r0, r5, r0, lsl #18
     334:	0a000000 	beq	33c <_start-0x7cc4>
     338:	000001e6 	andeq	r0, r0, r6, ror #3
     33c:	00c51d02 	sbceq	r1, r5, r2, lsl #26
     340:	04040000 	streq	r0, [r4], #-0
     344:	000000ab 	andeq	r0, r0, fp, lsr #1
     348:	00002508 	andeq	r2, r0, r8, lsl #10
     34c:	0000da00 	andeq	sp, r0, r0, lsl #20
     350:	00790900 	rsbseq	r0, r9, r0, lsl #18
     354:	0b000000 	bleq	35c <_start-0x7ca4>
     358:	000001e1 	andeq	r0, r0, r1, ror #3
     35c:	00eb0c01 	rsceq	r0, fp, r1, lsl #24
     360:	03050000 	movweq	r0, #20480	; 0x5000
     364:	000095c0 	andeq	r9, r0, r0, asr #11
     368:	00cb0404 	sbceq	r0, fp, r4, lsl #8
     36c:	81000000 	mrshi	r0, (UNDEF: 0)
     370:	04000006 	streq	r0, [r0], #-6
     374:	00027400 	andeq	r7, r2, r0, lsl #8
     378:	a3010400 	movwge	r0, #5120	; 0x1400
     37c:	01000000 	mrseq	r0, (UNDEF: 0)
     380:	0000022b 	andeq	r0, r0, fp, lsr #4
     384:	0000017e 	andeq	r0, r0, lr, ror r1
     388:	000080b4 	strheq	r8, [r0], -r4
     38c:	000004f8 	strdeq	r0, [r0], -r8
     390:	00000228 	andeq	r0, r0, r8, lsr #4
     394:	69050402 	stmdbvs	r5, {r1, sl}
     398:	0300746e 	movweq	r7, #1134	; 0x46e
     39c:	00960704 	addseq	r0, r6, r4, lsl #14
     3a0:	01030000 	mrseq	r0, (UNDEF: 3)
     3a4:	0000fc06 	andeq	pc, r0, r6, lsl #24
     3a8:	05020300 	streq	r0, [r2, #-768]	; 0x300
     3ac:	0000013a 	andeq	r0, r0, sl, lsr r1
     3b0:	05050403 	streq	r0, [r5, #-1027]	; 0x403
     3b4:	03000000 	movweq	r0, #0
     3b8:	00000508 	andeq	r0, r0, r8, lsl #10
     3bc:	01030000 	mrseq	r0, (UNDEF: 3)
     3c0:	0000fa08 	andeq	pc, r0, r8, lsl #20
     3c4:	07020300 	streq	r0, [r2, -r0, lsl #6]
     3c8:	00000127 	andeq	r0, r0, r7, lsr #2
     3cc:	91070403 	tstls	r7, r3, lsl #8
     3d0:	03000000 	movweq	r0, #0
     3d4:	008c0708 	addeq	r0, ip, r8, lsl #14
     3d8:	04030000 	streq	r0, [r3], #-0
     3dc:	00014407 	andeq	r4, r1, r7, lsl #8
     3e0:	05040400 	streq	r0, [r4, #-1024]	; 0x400
     3e4:	00007a04 	andeq	r7, r0, r4, lsl #20
     3e8:	08010300 	stmdaeq	r1, {r8, r9}
     3ec:	00000103 	andeq	r0, r0, r3, lsl #2
     3f0:	00870405 	addeq	r0, r7, r5, lsl #8
     3f4:	7a060000 	bvc	1803fc <__bss_end__+0x1766f4>
     3f8:	07000000 	streq	r0, [r0, -r0]
     3fc:	0000014d 	andeq	r0, r0, sp, asr #2
     400:	00972802 	addseq	r2, r7, r2, lsl #16
     404:	74080000 	strvc	r0, [r8], #-0
     408:	04000001 	streq	r0, [r0], #-1
     40c:	00ae0004 	adceq	r0, lr, r4
     410:	c7090000 	strgt	r0, [r9, -r0]
     414:	72000001 	andvc	r0, r0, #1
     418:	00000000 	andeq	r0, r0, r0
     41c:	01760700 	cmneq	r6, r0, lsl #14
     420:	62020000 	andvs	r0, r2, #0
     424:	0000008c 	andeq	r0, r0, ip, lsl #1
     428:	0002000a 	andeq	r0, r2, sl
     42c:	25270100 	strcs	r0, [r7, #-256]!	; 0x100
     430:	b4000000 	strlt	r0, [r0], #-0
     434:	14000080 	strne	r0, [r0], #-128	; 0x80
     438:	01000000 	mrseq	r0, (UNDEF: 0)
     43c:	0000e09c 	muleq	r0, ip, r0
     440:	00630b00 	rsbeq	r0, r3, r0, lsl #22
     444:	00252701 	eoreq	r2, r5, r1, lsl #14
     448:	00470000 	subeq	r0, r7, r0
     44c:	0c000000 	stceq	0, cr0, [r0], {-0}
     450:	00646170 	rsbeq	r6, r4, r0, ror r1
     454:	00742e01 	rsbseq	r2, r4, r1, lsl #28
     458:	80c80000 	sbchi	r0, r8, r0
     45c:	002c0000 	eoreq	r0, ip, r0
     460:	9c010000 	stcls	0, cr0, [r1], {-0}
     464:	00000130 	andeq	r0, r0, r0, lsr r1
     468:	0100700b 	tsteq	r0, fp
     46c:	0000742e 	andeq	r7, r0, lr, lsr #8
     470:	00007500 	andeq	r7, r0, r0, lsl #10
     474:	021d0d00 	andseq	r0, sp, #0, 26
     478:	2e010000 	cdpcs	0, 0, cr0, cr1, cr0, {0}
     47c:	00000074 	andeq	r0, r0, r4, ror r0
     480:	000000a0 	andeq	r0, r0, r0, lsr #1
     484:	00024b0e 	andeq	r4, r2, lr, lsl #22
     488:	252e0100 	strcs	r0, [lr, #-256]!	; 0x100
     48c:	01000000 	mrseq	r0, (UNDEF: 0)
     490:	656c0f52 	strbvs	r0, [ip, #-3922]!	; 0xf52
     494:	2f01006e 	svccs	0x0001006e
     498:	00000025 	andeq	r0, r0, r5, lsr #32
     49c:	0a005101 	beq	148a8 <__bss_end__+0xaba0>
     4a0:	000001f8 	strdeq	r0, [r0], -r8
     4a4:	00743701 	rsbseq	r3, r4, r1, lsl #14
     4a8:	80f40000 	rscshi	r0, r4, r0
     4ac:	00400000 	subeq	r0, r0, r0
     4b0:	9c010000 	stcls	0, cr0, [r1], {-0}
     4b4:	0000019c 	muleq	r0, ip, r1
     4b8:	7473640b 	ldrbtvc	r6, [r3], #-1035	; 0x40b
     4bc:	74370100 	ldrtvc	r0, [r7], #-256	; 0x100
     4c0:	c1000000 	mrsgt	r0, (UNDEF: 0)
     4c4:	0b000000 	bleq	4cc <_start-0x7b34>
     4c8:	3701006e 	strcc	r0, [r1, -lr, rrx]
     4cc:	00000025 	andeq	r0, r0, r5, lsr #32
     4d0:	000000f9 	strdeq	r0, [r0], -r9
     4d4:	0100700b 	tsteq	r0, fp
     4d8:	00007437 	andeq	r7, r0, r7, lsr r4
     4dc:	00011a00 	andeq	r1, r1, r0, lsl #20
     4e0:	03280d00 	teqeq	r8, #0, 26
     4e4:	37010000 	strcc	r0, [r1, -r0]
     4e8:	00000074 	andeq	r0, r0, r4, ror r0
     4ec:	00000150 	andeq	r0, r0, r0, asr r1
     4f0:	6e656c10 	mcrvs	12, 3, r6, cr5, cr0, {0}
     4f4:	25390100 	ldrcs	r0, [r9, #-256]!	; 0x100
     4f8:	6e000000 	cdpvs	0, 0, cr0, cr0, cr0, {0}
     4fc:	0f000001 	svceq	0x00000001
     500:	3d010073 	stccc	0, cr0, [r1, #-460]	; 0xfffffe34
     504:	00000074 	andeq	r0, r0, r4, ror r0
     508:	0a005001 	beq	14514 <__bss_end__+0xa80c>
     50c:	00000268 	andeq	r0, r0, r8, ror #4
     510:	00744701 	rsbseq	r4, r4, r1, lsl #14
     514:	81340000 	teqhi	r4, r0
     518:	019c0000 	orrseq	r0, ip, r0
     51c:	9c010000 	stcls	0, cr0, [r1], {-0}
     520:	000002d3 	ldrdeq	r0, [r0], -r3
     524:	00021d0d 	andeq	r1, r2, sp, lsl #26
     528:	2c470100 	stfcse	f0, [r7], {-0}
     52c:	95000000 	strls	r0, [r0, #-0]
     530:	0b000001 	bleq	53c <_start-0x7ac4>
     534:	00747364 	rsbseq	r7, r4, r4, ror #6
     538:	00744701 	rsbseq	r4, r4, r1, lsl #14
     53c:	01c30000 	biceq	r0, r3, r0
     540:	6e0b0000 	cdpvs	0, 0, cr0, cr11, cr0, {0}
     544:	25470100 	strbcs	r0, [r7, #-256]	; 0x100
     548:	31000000 	mrscc	r0, (UNDEF: 0)
     54c:	0b000002 	bleq	55c <_start-0x7aa4>
     550:	006c6176 	rsbeq	r6, ip, r6, ror r1
     554:	00254701 	eoreq	r4, r5, r1, lsl #14
     558:	025d0000 	subseq	r0, sp, #0
     55c:	4b0d0000 	blmi	340564 <__bss_end__+0x33685c>
     560:	01000002 	tsteq	r0, r2
     564:	00002547 	andeq	r2, r0, r7, asr #10
     568:	0002dc00 	andeq	sp, r2, r0, lsl #24
     56c:	02220e00 	eoreq	r0, r2, #0, 28
     570:	47010000 	strmi	r0, [r1, -r0]
     574:	00000025 	andeq	r0, r0, r5, lsr #32
     578:	0f049102 	svceq	0x00049102
     57c:	00667562 	rsbeq	r7, r6, r2, ror #10
     580:	02d34c01 	sbcseq	r4, r3, #256	; 0x100
     584:	91030000 	mrsls	r0, (UNDEF: 3)
     588:	70107fa8 	andsvc	r7, r0, r8, lsr #31
     58c:	744c0100 	strbvc	r0, [ip], #-256	; 0x100
     590:	06000000 	streq	r0, [r0], -r0
     594:	10000003 	andne	r0, r0, r3
     598:	4d010075 	stcmi	0, cr0, [r1, #-468]	; 0xfffffe2c
     59c:	0000002c 	andeq	r0, r0, ip, lsr #32
     5a0:	000003ab 	andeq	r0, r0, fp, lsr #7
     5a4:	00020811 	andeq	r0, r2, r1, lsl r8
     5a8:	0002f300 	andeq	pc, r2, r0, lsl #6
     5ac:	74030500 	strvc	r0, [r3], #-1280	; 0x500
     5b0:	12000096 	andne	r0, r0, #150	; 0x96
     5b4:	000081a0 	andeq	r8, r0, r0, lsr #3
     5b8:	00000074 	andeq	r0, r0, r4, ror r0
     5bc:	00000261 	andeq	r0, r0, r1, ror #4
     5c0:	0001f213 	andeq	pc, r1, r3, lsl r2	; <UNPREDICTABLE>
     5c4:	2c520100 	ldfcse	f0, [r2], {-0}
     5c8:	b0000000 	andlt	r0, r0, r0
     5cc:	00000004 	andeq	r0, r0, r4
     5d0:	00827414 	addeq	r7, r2, r4, lsl r4
     5d4:	00066000 	andeq	r6, r6, r0
     5d8:	82881500 	addhi	r1, r8, #0, 10
     5dc:	06670000 	strbteq	r0, [r7], -r0
     5e0:	02990000 	addseq	r0, r9, #0
     5e4:	01160000 	tsteq	r6, r0
     5e8:	75080253 	strvc	r0, [r8, #-595]	; 0x253
     5ec:	05520116 	ldrbeq	r0, [r2, #-278]	; 0x116
     5f0:	00967403 	addseq	r7, r6, r3, lsl #8
     5f4:	51011600 	tstpl	r1, r0, lsl #12
     5f8:	96ac0305 	strtls	r0, [ip], r5, lsl #6
     5fc:	01160000 	tsteq	r6, r0
     600:	98030550 	stmdals	r3, {r4, r6, r8, sl}
     604:	00000096 	muleq	r0, r6, r0
     608:	00828c14 	addeq	r8, r2, r4, lsl ip
     60c:	00067d00 	andeq	r7, r6, r0, lsl #26
     610:	82981500 	addshi	r1, r8, #0, 10
     614:	00e00000 	rsceq	r0, r0, r0
     618:	02b60000 	adcseq	r0, r6, #0
     61c:	01160000 	tsteq	r6, r0
     620:	007d0251 	rsbseq	r0, sp, r1, asr r2
     624:	82ac1700 	adchi	r1, ip, #0, 14
     628:	01300000 	teqeq	r0, r0
     62c:	01160000 	tsteq	r6, r0
     630:	007d0253 	rsbseq	r0, sp, r3, asr r2
     634:	02510116 	subseq	r0, r1, #-2147483643	; 0x80000005
     638:	01160074 	tsteq	r6, r4, ror r0
     63c:	00750250 	rsbseq	r0, r5, r0, asr r2
     640:	7a180000 	bvc	600648 <__bss_end__+0x5f6940>
     644:	e3000000 	movw	r0, #0
     648:	19000002 	stmdbne	r0, {r1}
     64c:	0000006b 	andeq	r0, r0, fp, rrx
     650:	7a18003f 	bvc	600754 <__bss_end__+0x5f6a4c>
     654:	f3000000 	vhadd.u8	d0, d0, d0
     658:	19000002 	stmdbne	r0, {r1}
     65c:	0000006b 	andeq	r0, r0, fp, rrx
     660:	e3060004 	movw	r0, #24580	; 0x6004
     664:	1a000002 	bne	674 <_start-0x798c>
     668:	0000023c 	andeq	r0, r0, ip, lsr r2
     66c:	82d01f01 	sbcshi	r1, r0, #1, 30
     670:	00540000 	subseq	r0, r4, r0
     674:	9c010000 	stcls	0, cr0, [r1], {-0}
     678:	0000037c 	andeq	r0, r0, ip, ror r3
     67c:	0002510d 	andeq	r5, r2, sp, lsl #2
     680:	8b1f0100 	blhi	7c0a88 <__bss_end__+0x7b6d80>
     684:	dc000003 	stcle	0, cr0, [r0], {3}
     688:	0d000004 	stceq	0, cr0, [r0, #-16]
     68c:	00000215 	andeq	r0, r0, r5, lsl r2
     690:	03a01f01 	moveq	r1, #1, 30
     694:	05080000 	streq	r0, [r8, #-0]
     698:	08110000 	ldmdaeq	r1, {}	; <UNPREDICTABLE>
     69c:	b6000002 	strlt	r0, [r0], -r2
     6a0:	05000003 	streq	r0, [r0, #-3]
     6a4:	00967c03 	addseq	r7, r6, r3, lsl #24
     6a8:	82e01400 	rschi	r1, r0, #0, 8
     6ac:	06600000 	strbteq	r0, [r0], -r0
     6b0:	f4150000 			; <UNDEFINED> instruction: 0xf4150000
     6b4:	67000082 	strvs	r0, [r0, -r2, lsl #1]
     6b8:	72000006 	andvc	r0, r0, #6
     6bc:	16000003 	strne	r0, [r0], -r3
     6c0:	08025301 	stmdaeq	r2, {r0, r8, r9, ip, lr}
     6c4:	52011620 	andpl	r1, r1, #32, 12	; 0x2000000
     6c8:	967c0305 	ldrbtls	r0, [ip], -r5, lsl #6
     6cc:	01160000 	tsteq	r6, r0
     6d0:	ac030551 	cfstr32ge	mvfx0, [r3], {81}	; 0x51
     6d4:	16000096 			; <UNDEFINED> instruction: 0x16000096
     6d8:	03055001 	movweq	r5, #20481	; 0x5001
     6dc:	000096e4 	andeq	r9, r0, r4, ror #13
     6e0:	82f81400 	rscshi	r1, r8, #0, 8
     6e4:	067d0000 	ldrbteq	r0, [sp], -r0
     6e8:	1b000000 	blne	6f0 <_start-0x7910>
     6ec:	00000025 	andeq	r0, r0, r5, lsr #32
     6f0:	0000038b 	andeq	r0, r0, fp, lsl #7
     6f4:	0000251c 	andeq	r2, r0, ip, lsl r5
     6f8:	04050000 	streq	r0, [r5], #-0
     6fc:	0000037c 	andeq	r0, r0, ip, ror r3
     700:	0000251b 	andeq	r2, r0, fp, lsl r5
     704:	0003a000 	andeq	sl, r3, r0
     708:	00811c00 	addeq	r1, r1, r0, lsl #24
     70c:	05000000 	streq	r0, [r0, #-0]
     710:	00039104 	andeq	r9, r3, r4, lsl #2
     714:	007a1800 	rsbseq	r1, sl, r0, lsl #16
     718:	03b60000 			; <UNDEFINED> instruction: 0x03b60000
     71c:	6b190000 	blvs	640724 <__bss_end__+0x636a1c>
     720:	0e000000 	cdpeq	0, 0, cr0, cr0, cr0, {0}
     724:	03a60600 			; <UNDEFINED> instruction: 0x03a60600
     728:	6a1d0000 	bvs	740730 <__bss_end__+0x736a28>
     72c:	01000001 	tsteq	r0, r1
     730:	0000257d 	andeq	r2, r0, sp, ror r5
     734:	00832400 	addeq	r2, r3, r0, lsl #8
     738:	00028800 	andeq	r8, r2, r0, lsl #16
     73c:	259c0100 	ldrcs	r0, [ip, #256]	; 0x100
     740:	0b000006 	bleq	760 <_start-0x78a0>
     744:	00667562 	rsbeq	r7, r6, r2, ror #10
     748:	00747d01 	rsbseq	r7, r4, r1, lsl #26
     74c:	05340000 	ldreq	r0, [r4, #-0]!
     750:	6e0b0000 	cdpvs	0, 0, cr0, cr11, cr0, {0}
     754:	257d0100 	ldrbcs	r0, [sp, #-256]!	; 0x100
     758:	60000000 	andvs	r0, r0, r0
     75c:	0b000005 	bleq	778 <_start-0x7888>
     760:	00746d66 	rsbseq	r6, r4, r6, ror #26
     764:	00817d01 	addeq	r7, r1, r1, lsl #26
     768:	058e0000 	streq	r0, [lr]
     76c:	c20d0000 	andgt	r0, sp, #0
     770:	01000001 	tsteq	r0, r1
     774:	0000ae7d 	andeq	sl, r0, sp, ror lr
     778:	0005c200 	andeq	ip, r5, r0, lsl #4
     77c:	00701000 	rsbseq	r1, r0, r0
     780:	00747e01 	rsbseq	r7, r4, r1, lsl #28
     784:	05d50000 	ldrbeq	r0, [r5]
     788:	65100000 	ldrvs	r0, [r0, #-0]
     78c:	747e0100 	ldrbtvc	r0, [lr], #-256	; 0x100
     790:	53000000 	movwpl	r0, #0
     794:	11000006 	tstne	r0, r6
     798:	00000208 	andeq	r0, r0, r8, lsl #4
     79c:	00000635 	andeq	r0, r0, r5, lsr r6
     7a0:	968c0305 	strls	r0, [ip], r5, lsl #6
     7a4:	001e0000 	andseq	r0, lr, r0
     7a8:	10000000 	andne	r0, r0, r0
     7ac:	8b010073 	blhi	40980 <__bss_end__+0x36c78>
     7b0:	00000074 	andeq	r0, r0, r4, ror r0
     7b4:	0000067a 	andeq	r0, r0, sl, ror r6
     7b8:	6d756e0f 	ldclvs	14, cr6, [r5, #-60]!	; 0xffffffc4
     7bc:	3a8b0100 	bcc	fe2c0bc4 <__bss_end__+0xfe2b6ebc>
     7c0:	03000006 	movweq	r0, #6
     7c4:	137ed891 	cmnne	lr, #9502720	; 0x910000
     7c8:	0000024b 	andeq	r0, r0, fp, asr #4
     7cc:	002c8c01 	eoreq	r8, ip, r1, lsl #24
     7d0:	06cf0000 	strbeq	r0, [pc], r0
     7d4:	a8150000 	ldmdage	r5, {}	; <UNPREDICTABLE>
     7d8:	b9000083 	stmdblt	r0, {r0, r1, r7}
     7dc:	7b000000 	blvc	7e4 <_start-0x781c>
     7e0:	16000004 	strne	r0, [r0], -r4
     7e4:	75025001 	strvc	r5, [r2, #-1]
     7e8:	bc140000 	ldclt	0, cr0, [r4], {-0}
     7ec:	60000083 	andvs	r0, r0, r3, lsl #1
     7f0:	15000006 	strne	r0, [r0, #-6]
     7f4:	000083d0 	ldrdeq	r8, [r0], -r0
     7f8:	00000667 	andeq	r0, r0, r7, ror #12
     7fc:	000004b3 			; <UNDEFINED> instruction: 0x000004b3
     800:	02530116 	subseq	r0, r3, #-2147483643	; 0x80000005
     804:	01169208 	tsteq	r6, r8, lsl #4
     808:	8c030552 	cfstr32hi	mvfx0, [r3], {82}	; 0x52
     80c:	16000096 			; <UNDEFINED> instruction: 0x16000096
     810:	03055101 	movweq	r5, #20737	; 0x5101
     814:	000096ac 	andeq	r9, r0, ip, lsr #13
     818:	05500116 	ldrbeq	r0, [r0, #-278]	; 0x116
     81c:	0096fc03 	addseq	pc, r6, r3, lsl #24
     820:	d4140000 	ldrle	r0, [r4], #-0
     824:	7d000083 	stcvc	0, cr0, [r0, #-524]	; 0xfffffdf4
     828:	14000006 	strne	r0, [r0], #-6
     82c:	00008444 	andeq	r8, r0, r4, asr #8
     830:	00000660 	andeq	r0, r0, r0, ror #12
     834:	00845815 	addeq	r5, r4, r5, lsl r8
     838:	00066700 	andeq	r6, r6, r0, lsl #14
     83c:	0004f400 	andeq	pc, r4, r0, lsl #8
     840:	53011600 	movwpl	r1, #5632	; 0x1600
     844:	16980802 	ldrne	r0, [r8], r2, lsl #16
     848:	03055201 	movweq	r5, #20993	; 0x5201
     84c:	0000968c 	andeq	r9, r0, ip, lsl #13
     850:	05510116 	ldrbeq	r0, [r1, #-278]	; 0x116
     854:	0096ac03 	addseq	sl, r6, r3, lsl #24
     858:	50011600 	andpl	r1, r1, r0, lsl #12
     85c:	97180305 	ldrls	r0, [r8, -r5, lsl #6]
     860:	14000000 	strne	r0, [r0], #-0
     864:	0000845c 	andeq	r8, r0, ip, asr r4
     868:	0000067d 	andeq	r0, r0, sp, ror r6
     86c:	00848015 	addeq	r8, r4, r5, lsl r0
     870:	00019c00 	andeq	r9, r1, r0, lsl #24
     874:	00052a00 	andeq	r2, r5, r0, lsl #20
     878:	52011600 	andpl	r1, r1, #0, 12
     87c:	16800802 	strne	r0, [r0], r2, lsl #16
     880:	91035101 	tstls	r3, r1, lsl #2
     884:	01167ed0 			; <UNDEFINED> instruction: 0x01167ed0
     888:	163a0150 			; <UNDEFINED> instruction: 0x163a0150
     88c:	01047d02 	tsteq	r4, r2, lsl #26
     890:	7d021631 	stcvc	6, cr1, [r2, #-196]	; 0xffffff3c
     894:	00770200 	rsbseq	r0, r7, r0, lsl #4
     898:	84a41500 	strthi	r1, [r4], #1280	; 0x500
     89c:	019c0000 	orrseq	r0, ip, r0
     8a0:	05580000 	ldrbeq	r0, [r8, #-0]
     8a4:	01160000 	tsteq	r6, r0
     8a8:	80080252 	andhi	r0, r8, r2, asr r2
     8ac:	03510116 	cmpeq	r1, #-2147483643	; 0x80000005
     8b0:	167ed091 			; <UNDEFINED> instruction: 0x167ed091
     8b4:	3a015001 	bcc	548c0 <__bss_end__+0x4abb8>
     8b8:	047d0216 	ldrbteq	r0, [sp], #-534	; 0x216
     8bc:	16007b02 	strne	r7, [r0], -r2, lsl #22
     8c0:	02007d02 	andeq	r7, r0, #2, 26	; 0x80
     8c4:	15000077 	strne	r0, [r0, #-119]	; 0x77
     8c8:	000084c8 	andeq	r8, r0, r8, asr #9
     8cc:	0000019c 	muleq	r0, ip, r1
     8d0:	00000586 	andeq	r0, r0, r6, lsl #11
     8d4:	02520116 	subseq	r0, r2, #-2147483643	; 0x80000005
     8d8:	01168008 	tsteq	r6, r8
     8dc:	d0910351 	addsle	r0, r1, r1, asr r3
     8e0:	5001167e 	andpl	r1, r1, lr, ror r6
     8e4:	02164001 	andseq	r4, r6, #1
     8e8:	7b02047d 	blvc	81ae4 <__bss_end__+0x77ddc>
     8ec:	7d021600 	stcvc	6, cr1, [r2, #-0]
     8f0:	00770200 	rsbseq	r0, r7, r0, lsl #4
     8f4:	84ec1500 	strbthi	r1, [ip], #1280	; 0x500
     8f8:	019c0000 	orrseq	r0, ip, r0
     8fc:	05b40000 	ldreq	r0, [r4, #0]!
     900:	01160000 	tsteq	r6, r0
     904:	80080252 	andhi	r0, r8, r2, asr r2
     908:	03510116 	cmpeq	r1, #-2147483643	; 0x80000005
     90c:	167ed091 			; <UNDEFINED> instruction: 0x167ed091
     910:	32015001 	andcc	r5, r1, #1
     914:	047d0216 	ldrbteq	r0, [sp], #-534	; 0x216
     918:	16007b02 	strne	r7, [r0], -r2, lsl #22
     91c:	02007d02 	andeq	r7, r0, #2, 26	; 0x80
     920:	15000077 	strne	r0, [r0, #-119]	; 0x77
     924:	0000851c 	andeq	r8, r0, ip, lsl r5
     928:	0000019c 	muleq	r0, ip, r1
     92c:	000005e2 	andeq	r0, r0, r2, ror #11
     930:	02520116 	subseq	r0, r2, #-2147483643	; 0x80000005
     934:	01168008 	tsteq	r6, r8
     938:	d0910351 	addsle	r0, r1, r1, asr r3
     93c:	5001167e 	andpl	r1, r1, lr, ror r6
     940:	02163801 	andseq	r3, r6, #65536	; 0x10000
     944:	7b02047d 	blvc	81b40 <__bss_end__+0x77e38>
     948:	7d021600 	stcvc	6, cr1, [r2, #-0]
     94c:	00770200 	rsbseq	r0, r7, r0, lsl #4
     950:	85241400 	strhi	r1, [r4, #-1024]!	; 0x400
     954:	06600000 	strbteq	r0, [r0], -r0
     958:	40150000 	andsmi	r0, r5, r0
     95c:	67000085 	strvs	r0, [r0, -r5, lsl #1]
     960:	1a000006 	bne	980 <_start-0x7680>
     964:	16000006 	strne	r0, [r0], -r6
     968:	08025301 	stmdaeq	r2, {r0, r8, r9, ip, lr}
     96c:	520116b9 	andpl	r1, r1, #193986560	; 0xb900000
     970:	968c0305 	strls	r0, [ip], r5, lsl #6
     974:	01160000 	tsteq	r6, r0
     978:	ac030551 	cfstr32ge	mvfx0, [r3], {81}	; 0x51
     97c:	16000096 			; <UNDEFINED> instruction: 0x16000096
     980:	03055001 	movweq	r5, #20481	; 0x5001
     984:	00009740 	andeq	r9, r0, r0, asr #14
     988:	85441400 	strbhi	r1, [r4, #-1024]	; 0x400
     98c:	067d0000 	ldrbteq	r0, [sp], -r0
     990:	00000000 	andeq	r0, r0, r0
     994:	00007a18 	andeq	r7, r0, r8, lsl sl
     998:	00063500 	andeq	r3, r6, r0, lsl #10
     99c:	006b1900 	rsbeq	r1, fp, r0, lsl #18
     9a0:	00090000 	andeq	r0, r9, r0
     9a4:	00062506 	andeq	r2, r6, r6, lsl #10
     9a8:	007a1800 	rsbseq	r1, sl, r0, lsl #16
     9ac:	064a0000 	strbeq	r0, [sl], -r0
     9b0:	6b190000 	blvs	6409b8 <__bss_end__+0x636cb0>
     9b4:	7f000000 	svcvc	0x00000000
     9b8:	01e61f00 	mvneq	r1, r0, lsl #30
     9bc:	1d030000 	stcne	0, cr0, [r3, #-0]
     9c0:	0000038b 	andeq	r0, r0, fp, lsl #7
     9c4:	0001e11f 	andeq	lr, r1, pc, lsl r1
     9c8:	a0220300 	eorge	r0, r2, r0, lsl #6
     9cc:	20000003 	andcs	r0, r0, r3
     9d0:	00000259 	andeq	r0, r0, r9, asr r2
     9d4:	6d211e03 	stcvs	14, cr1, [r1, #-12]!
     9d8:	03000001 	movweq	r0, #1
     9dc:	00002529 	andeq	r2, r0, r9, lsr #10
     9e0:	00067d00 	andeq	r7, r6, r0, lsl #26
     9e4:	00811c00 	addeq	r1, r1, r0, lsl #24
     9e8:	00220000 	eoreq	r0, r2, r0
     9ec:	00011220 	andeq	r1, r1, r0, lsr #4
     9f0:	00660300 	rsbeq	r0, r6, r0, lsl #6
     9f4:	000000ff 	strdeq	r0, [r0], -pc	; <UNPREDICTABLE>
     9f8:	04500004 	ldrbeq	r0, [r0], #-4
     9fc:	01040000 	mrseq	r0, (UNDEF: 4)
     a00:	000000a3 	andeq	r0, r0, r3, lsr #1
     a04:	00027801 	andeq	r7, r2, r1, lsl #16
     a08:	00017e00 	andeq	r7, r1, r0, lsl #28
     a0c:	0085ac00 	addeq	sl, r5, r0, lsl #24
     a10:	00002800 	andeq	r2, r0, r0, lsl #16
     a14:	00040a00 	andeq	r0, r4, r0, lsl #20
     a18:	05040200 	streq	r0, [r4, #-512]	; 0x200
     a1c:	00746e69 	rsbseq	r6, r4, r9, ror #28
     a20:	96070403 	strls	r0, [r7], -r3, lsl #8
     a24:	03000000 	movweq	r0, #0
     a28:	00fc0601 	rscseq	r0, ip, r1, lsl #12
     a2c:	02030000 	andeq	r0, r3, #0
     a30:	00013a05 	andeq	r3, r1, r5, lsl #20
     a34:	05040300 	streq	r0, [r4, #-768]	; 0x300
     a38:	00000005 	andeq	r0, r0, r5
     a3c:	00050803 	andeq	r0, r5, r3, lsl #16
     a40:	03000000 	movweq	r0, #0
     a44:	00fa0801 	rscseq	r0, sl, r1, lsl #16
     a48:	02030000 	andeq	r0, r3, #0
     a4c:	00012707 	andeq	r2, r1, r7, lsl #14
     a50:	07040300 	streq	r0, [r4, -r0, lsl #6]
     a54:	00000091 	muleq	r0, r1, r0
     a58:	8c070803 	stchi	8, cr0, [r7], {3}
     a5c:	03000000 	movweq	r0, #0
     a60:	01440704 	cmpeq	r4, r4, lsl #14
     a64:	01030000 	mrseq	r0, (UNDEF: 3)
     a68:	00010308 	andeq	r0, r1, r8, lsl #6
     a6c:	7f040400 	svcvc	0x00040400
     a70:	05000000 	streq	r0, [r0, #-0]
     a74:	00000072 	andeq	r0, r0, r2, ror r0
     a78:	00011206 	andeq	r1, r1, r6, lsl #4
     a7c:	ac040100 	stfges	f0, [r4], {-0}
     a80:	28000085 	stmdacs	r0, {r0, r2, r7}
     a84:	01000000 	mrseq	r0, (UNDEF: 0)
     a88:	0000ca9c 	muleq	r0, ip, sl
     a8c:	85c00700 	strbhi	r0, [r0, #1792]	; 0x700
     a90:	00ac0000 	adceq	r0, ip, r0
     a94:	01080000 	mrseq	r0, (UNDEF: 8)
     a98:	78030550 	stmdavc	r3, {r4, r6, r8, sl}
     a9c:	00000097 	muleq	r0, r7, r0
     aa0:	0085c809 	addeq	ip, r5, r9, lsl #16
     aa4:	0000ea00 	andeq	lr, r0, r0, lsl #20
     aa8:	0000c000 	andeq	ip, r0, r0
     aac:	50010800 	andpl	r0, r1, r0, lsl #16
     ab0:	00640802 	rsbeq	r0, r4, r2, lsl #16
     ab4:	0085cc0a 	addeq	ip, r5, sl, lsl #24
     ab8:	0000fb00 	andeq	pc, r0, r0, lsl #22
     abc:	250b0000 	strcs	r0, [fp, #-0]
     ac0:	d9000000 	stmdble	r0, {}	; <UNPREDICTABLE>
     ac4:	0c000000 	stceq	0, cr0, [r0], {-0}
     ac8:	00000079 	andeq	r0, r0, r9, ror r0
     acc:	01e10d00 	mvneq	r0, r0, lsl #26
     ad0:	22020000 	andcs	r0, r2, #0
     ad4:	000000e4 	andeq	r0, r0, r4, ror #1
     ad8:	00ca0404 	sbceq	r0, sl, r4, lsl #8
     adc:	920e0000 	andls	r0, lr, #0
     ae0:	02000002 	andeq	r0, r0, #2
     ae4:	0000fb50 	andeq	pc, r0, r0, asr fp	; <UNPREDICTABLE>
     ae8:	002c0c00 	eoreq	r0, ip, r0, lsl #24
     aec:	0f000000 	svceq	0x00000000
     af0:	0000026d 	andeq	r0, r0, sp, ror #4
     af4:	dd006302 	stcle	3, cr6, [r0, #-8]
     af8:	04000002 	streq	r0, [r0], #-2
     afc:	00051a00 	andeq	r1, r5, r0, lsl #20
     b00:	a3010400 	movwge	r0, #5120	; 0x1400
     b04:	01000000 	mrseq	r0, (UNDEF: 0)
     b08:	0000037d 	andeq	r0, r0, sp, ror r3
     b0c:	0000017e 	andeq	r0, r0, lr, ror r1
     b10:	000085d4 	ldrdeq	r8, [r0], -r4
     b14:	000000b0 	strheq	r0, [r0], -r0	; <UNPREDICTABLE>
     b18:	000004a1 	andeq	r0, r0, r1, lsr #9
     b1c:	69050402 	stmdbvs	r5, {r1, sl}
     b20:	0300746e 	movweq	r7, #1134	; 0x46e
     b24:	00960704 	addseq	r0, r6, r4, lsl #14
     b28:	01030000 	mrseq	r0, (UNDEF: 3)
     b2c:	0000fc06 	andeq	pc, r0, r6, lsl #24
     b30:	05020300 	streq	r0, [r2, #-768]	; 0x300
     b34:	0000013a 	andeq	r0, r0, sl, lsr r1
     b38:	05050403 	streq	r0, [r5, #-1027]	; 0x403
     b3c:	03000000 	movweq	r0, #0
     b40:	00000508 	andeq	r0, r0, r8, lsl #10
     b44:	46040000 	strmi	r0, [r4], -r0
     b48:	02000003 	andeq	r0, r0, #3
     b4c:	00005a2e 	andeq	r5, r0, lr, lsr #20
     b50:	08010300 	stmdaeq	r1, {r8, r9}
     b54:	000000fa 	strdeq	r0, [r0], -sl
     b58:	27070203 	strcs	r0, [r7, -r3, lsl #4]
     b5c:	04000001 	streq	r0, [r0], #-1
     b60:	0000039d 	muleq	r0, sp, r3
     b64:	00733402 	rsbseq	r3, r3, r2, lsl #8
     b68:	04030000 	streq	r0, [r3], #-0
     b6c:	00009107 	andeq	r9, r0, r7, lsl #2
     b70:	07080300 	streq	r0, [r8, -r0, lsl #6]
     b74:	0000008c 	andeq	r0, r0, ip, lsl #1
     b78:	44070403 	strmi	r0, [r7], #-1027	; 0x403
     b7c:	03000001 	movweq	r0, #1
     b80:	01030801 	tsteq	r3, r1, lsl #16
     b84:	04050000 	streq	r0, [r5], #-0
     b88:	00000095 	muleq	r0, r5, r0
     b8c:	00008806 	andeq	r8, r0, r6, lsl #16
     b90:	030c0700 	movweq	r0, #50944	; 0xc700
     b94:	0000d10e 	andeq	sp, r0, lr, lsl #2
     b98:	78740800 	ldmdavc	r4!, {fp}^
     b9c:	4f0f0300 	svcmi	0x000f0300
     ba0:	00000000 	andeq	r0, r0, r0
     ba4:	00787208 	rsbseq	r7, r8, r8, lsl #4
     ba8:	004f0f03 	subeq	r0, pc, r3, lsl #30
     bac:	09010000 	stmdbeq	r1, {}	; <UNPREDICTABLE>
     bb0:	00000314 	andeq	r0, r0, r4, lsl r3
     bb4:	00681003 	rsbeq	r1, r8, r3
     bb8:	09040000 	stmdbeq	r4, {}	; <UNPREDICTABLE>
     bbc:	000002c5 	andeq	r0, r0, r5, asr #5
     bc0:	00681103 	rsbeq	r1, r8, r3, lsl #2
     bc4:	00080000 	andeq	r0, r8, r0
     bc8:	0002fd04 	andeq	pc, r2, r4, lsl #26
     bcc:	9a120300 	bls	4817d4 <__bss_end__+0x477acc>
     bd0:	0a000000 	beq	bd8 <_start-0x7428>
     bd4:	f7100401 			; <UNDEFINED> instruction: 0xf7100401
     bd8:	0b000000 	bleq	be0 <_start-0x7420>
     bdc:	00000319 	andeq	r0, r0, r9, lsl r3
     be0:	03070b01 	movweq	r0, #31489	; 0x7b01
     be4:	0b020000 	bleq	80bec <__bss_end__+0x76ee4>
     be8:	000002ef 	andeq	r0, r0, pc, ror #5
     bec:	2e040003 	cdpcs	0, 0, cr0, cr4, cr3, {0}
     bf0:	04000003 	streq	r0, [r0], #-3
     bf4:	0000dc10 	andeq	sp, r0, r0, lsl ip
     bf8:	04140700 	ldreq	r0, [r4], #-1792	; 0x700
     bfc:	00012f14 	andeq	r2, r1, r4, lsl pc
     c00:	03a60900 			; <UNDEFINED> instruction: 0x03a60900
     c04:	15040000 	strne	r0, [r4, #-0]
     c08:	0000002c 	andeq	r0, r0, ip, lsr #32
     c0c:	03910900 	orrseq	r0, r1, #0, 18
     c10:	18040000 	stmdane	r4, {}	; <UNPREDICTABLE>
     c14:	000000f7 	strdeq	r0, [r0], -r7
     c18:	035c0904 	cmpeq	ip, #4, 18	; 0x10000
     c1c:	1b040000 	blne	100c24 <__bss_end__+0xf6f1c>
     c20:	000000d1 	ldrdeq	r0, [r0], -r1
     c24:	4e040008 	cdpmi	0, 0, cr0, cr4, cr8, {0}
     c28:	04000003 	streq	r0, [r0], #-3
     c2c:	00010220 	andeq	r0, r1, r0, lsr #4
     c30:	029b0c00 	addseq	r0, fp, #0, 24
     c34:	06010000 	streq	r0, [r1], -r0
     c38:	00000025 	andeq	r0, r0, r5, lsr #32
     c3c:	000085d4 	ldrdeq	r8, [r0], -r4
     c40:	00000020 	andeq	r0, r0, r0, lsr #32
     c44:	017a9c01 	cmneq	sl, r1, lsl #24
     c48:	630d0000 	movwvs	r0, #53248	; 0xd000
     c4c:	25060100 	strcs	r0, [r6, #-256]	; 0x100
     c50:	f9000000 			; <UNDEFINED> instruction: 0xf9000000
     c54:	0e000006 	cdpeq	0, 0, cr0, cr0, cr6, {0}
     c58:	000085e8 	andeq	r8, r0, r8, ror #11
     c5c:	0000027a 	andeq	r0, r0, sl, ror r2
     c60:	0251010f 	subseq	r0, r1, #-1073741821	; 0xc0000003
     c64:	010f0074 	tsteq	pc, r4, ror r0	; <UNPREDICTABLE>
     c68:	fc030550 	stc2	5, cr0, [r3], {80}	; 0x50
     c6c:	0000009c 	muleq	r0, ip, r0
     c70:	03261000 	teqeq	r6, #0
     c74:	0b010000 	bleq	40c7c <__bss_end__+0x36f74>
     c78:	000085f4 	strdeq	r8, [r0], -r4
     c7c:	00000090 	muleq	r0, r0, r0
     c80:	02279c01 	eoreq	r9, r7, #256	; 0x100
     c84:	af110000 	svcge	0x00110000
     c88:	01000002 	tsteq	r0, r2
     c8c:	0000250c 	andeq	r2, r0, ip, lsl #10
     c90:	03711100 	cmneq	r1, #0, 2
     c94:	0c010000 	stceq	0, cr0, [r1], {-0}
     c98:	00000025 	andeq	r0, r0, r5, lsr #32
     c9c:	00011f12 	andeq	r1, r1, r2, lsl pc
     ca0:	130d0100 	movwne	r0, #53504	; 0xd100
     ca4:	00737362 	rsbseq	r7, r3, r2, ror #6
     ca8:	02270f01 	eoreq	r0, r7, #1, 30
     cac:	07170000 	ldreq	r0, [r7, -r0]
     cb0:	bd140000 	ldclt	0, cr0, [r4, #-0]
     cb4:	01000002 	tsteq	r0, r2
     cb8:	00022710 	andeq	r2, r2, r0, lsl r7
     cbc:	62631300 	rsbvs	r1, r3, #0, 6
     cc0:	2d170100 	ldfcss	f0, [r7, #-0]
     cc4:	37000002 	strcc	r0, [r0, -r2]
     cc8:	15000007 	strne	r0, [r0, #-7]
     ccc:	0000861c 	andeq	r8, r0, ip, lsl r6
     cd0:	00000296 	muleq	r0, r6, r2
     cd4:	00865816 	addeq	r5, r6, r6, lsl r8
     cd8:	0002a100 	andeq	sl, r2, r0, lsl #2
     cdc:	0001fd00 	andeq	pc, r1, r0, lsl #26
     ce0:	51010f00 	tstpl	r1, r0, lsl #30
     ce4:	97840305 	strls	r0, [r4, r5, lsl #6]
     ce8:	010f0000 	mrseq	r0, CPSR
     cec:	fc030550 	stc2	5, cr0, [r3], {80}	; 0x50
     cf0:	0000009c 	muleq	r0, ip, r0
     cf4:	00866016 	addeq	r6, r6, r6, lsl r0
     cf8:	0002bc00 	andeq	fp, r2, r0, lsl #24
     cfc:	00021400 	andeq	r1, r2, r0, lsl #8
     d00:	50010f00 	andpl	r0, r1, r0, lsl #30
     d04:	97a80305 	strls	r0, [r8, r5, lsl #6]!
     d08:	15000000 	strne	r0, [r0, #-0]
     d0c:	00008664 	andeq	r8, r0, r4, ror #12
     d10:	000002d2 	ldrdeq	r0, [r0], -r2
     d14:	00866815 	addeq	r6, r6, r5, lsl r8
     d18:	0002d900 	andeq	sp, r2, r0, lsl #18
     d1c:	04050000 	streq	r0, [r5], #-0
     d20:	00000025 	andeq	r0, r0, r5, lsr #32
     d24:	012f0405 	teqeq	pc, r5, lsl #8
     d28:	d3170000 	tstle	r7, #0
     d2c:	01000002 	tsteq	r0, r2
     d30:	0000d105 	andeq	sp, r0, r5, lsl #2
     d34:	fc030500 	stc2	5, cr0, [r3], {-0}
     d38:	1800009c 	stmdane	r0, {r2, r3, r4, r7}
     d3c:	00000025 	andeq	r0, r0, r5, lsr #32
     d40:	00000253 	andeq	r0, r0, r3, asr r2
     d44:	00002519 	andeq	r2, r0, r9, lsl r5
     d48:	e6110000 	ldr	r0, [r1], -r0
     d4c:	05000001 	streq	r0, [r0, #-1]
     d50:	00025e1d 	andeq	r5, r2, sp, lsl lr
     d54:	44040500 	strmi	r0, [r4], #-1280	; 0x500
     d58:	11000002 	tstne	r0, r2
     d5c:	000002af 	andeq	r0, r0, pc, lsr #5
     d60:	00250c01 	eoreq	r0, r5, r1, lsl #24
     d64:	71110000 	tstvc	r1, r0
     d68:	01000003 	tsteq	r0, r3
     d6c:	0000250c 	andeq	r2, r0, ip, lsl #10
     d70:	03391a00 	teqeq	r9, #0, 20
     d74:	44030000 	strmi	r0, [r3], #-0
     d78:	00000290 	muleq	r0, r0, r2
     d7c:	00029019 	andeq	r9, r2, r9, lsl r0
     d80:	005a1900 	subseq	r1, sl, r0, lsl #18
     d84:	05000000 	streq	r0, [r0, #-0]
     d88:	0000d104 	andeq	sp, r0, r4, lsl #2
     d8c:	03641b00 	cmneq	r4, #0, 22
     d90:	2a040000 	bcs	100d98 <__bss_end__+0xf7090>
     d94:	0000022d 	andeq	r0, r0, sp, lsr #4
     d98:	0002e01c 	andeq	lr, r2, ip, lsl r0
     d9c:	25150300 	ldrcs	r0, [r5, #-768]	; 0x300
     da0:	bc000000 	stclt	0, cr0, [r0], {-0}
     da4:	19000002 	stmdbne	r0, {r1}
     da8:	00000290 	muleq	r0, r0, r2
     dac:	00008f19 	andeq	r8, r0, r9, lsl pc
     db0:	1c001d00 	stcne	13, cr1, [r0], {-0}
     db4:	0000016d 	andeq	r0, r0, sp, ror #2
     db8:	00252905 	eoreq	r2, r5, r5, lsl #18
     dbc:	02d20000 	sbcseq	r0, r2, #0
     dc0:	8f190000 	svchi	0x00190000
     dc4:	1d000000 	stcne	0, cr0, [r0, #-0]
     dc8:	011f1200 	tsteq	pc, r0, lsl #4
     dcc:	ce050000 	cdpgt	0, 0, cr0, cr5, cr0, {0}
     dd0:	00026d12 	andeq	r6, r2, r2, lsl sp
     dd4:	00630500 	rsbeq	r0, r3, r0, lsl #10
     dd8:	000001ad 	andeq	r0, r0, sp, lsr #3
     ddc:	06b10004 	ldrteq	r0, [r1], r4
     de0:	01040000 	mrseq	r0, (UNDEF: 4)
     de4:	000000a3 	andeq	r0, r0, r3, lsr #1
     de8:	0003c601 	andeq	ip, r3, r1, lsl #12
     dec:	00017e00 	andeq	r7, r1, r0, lsl #28
     df0:	00001800 	andeq	r1, r0, r0, lsl #16
     df4:	00000000 	andeq	r0, r0, r0
     df8:	0005c600 	andeq	ip, r5, r0, lsl #12
     dfc:	05040200 	streq	r0, [r4, #-512]	; 0x200
     e00:	00746e69 	rsbseq	r6, r4, r9, ror #28
     e04:	96070403 	strls	r0, [r7], -r3, lsl #8
     e08:	03000000 	movweq	r0, #0
     e0c:	00fc0601 	rscseq	r0, ip, r1, lsl #12
     e10:	02030000 	andeq	r0, r3, #0
     e14:	00013a05 	andeq	r3, r1, r5, lsl #20
     e18:	05040300 	streq	r0, [r4, #-768]	; 0x300
     e1c:	00000005 	andeq	r0, r0, r5
     e20:	00050803 	andeq	r0, r5, r3, lsl #16
     e24:	03000000 	movweq	r0, #0
     e28:	00fa0801 	rscseq	r0, sl, r1, lsl #16
     e2c:	02030000 	andeq	r0, r3, #0
     e30:	00012707 	andeq	r2, r1, r7, lsl #14
     e34:	07040300 	streq	r0, [r4, -r0, lsl #6]
     e38:	00000091 	muleq	r0, r1, r0
     e3c:	8c070803 	stchi	8, cr0, [r7], {3}
     e40:	03000000 	movweq	r0, #0
     e44:	01440704 	cmpeq	r4, r4, lsl #14
     e48:	01030000 	mrseq	r0, (UNDEF: 3)
     e4c:	00010308 	andeq	r0, r1, r8, lsl #6
     e50:	03ac0400 			; <UNDEFINED> instruction: 0x03ac0400
     e54:	0e010000 	cdpeq	0, 0, cr0, cr1, cr0, {0}
     e58:	00000025 	andeq	r0, r0, r5, lsr #32
     e5c:	00008684 	andeq	r8, r0, r4, lsl #13
     e60:	00000018 	andeq	r0, r0, r8, lsl r0
     e64:	00a29c01 	adceq	r9, r2, r1, lsl #24
     e68:	18050000 	stmdane	r5, {}	; <UNPREDICTABLE>
     e6c:	01000004 	tsteq	r0, r4
     e70:	00002c0f 	andeq	r2, r0, pc, lsl #24
     e74:	00075700 	andeq	r5, r7, r0, lsl #14
     e78:	fb060000 	blx	180e82 <__bss_end__+0x17717a>
     e7c:	01000003 	tsteq	r0, r3
     e80:	00869c17 	addeq	r9, r6, r7, lsl ip
     e84:	00001400 	andeq	r1, r0, r0, lsl #8
     e88:	c79c0100 	ldrgt	r0, [ip, r0, lsl #2]
     e8c:	05000000 	streq	r0, [r0, #-0]
     e90:	00000418 	andeq	r0, r0, r8, lsl r4
     e94:	002c1801 	eoreq	r1, ip, r1, lsl #16
     e98:	07760000 	ldrbeq	r0, [r6, -r0]!
     e9c:	06000000 	streq	r0, [r0], -r0
     ea0:	0000026d 	andeq	r0, r0, sp, ror #4
     ea4:	86b01f01 	ldrthi	r1, [r0], r1, lsl #30
     ea8:	00480000 	subeq	r0, r8, r0
     eac:	9c010000 	stcls	0, cr0, [r1], {-0}
     eb0:	00000177 	andeq	r0, r0, r7, ror r1
     eb4:	00041007 	andeq	r1, r4, r7
     eb8:	772a0100 	strvc	r0, [sl, -r0, lsl #2]!
     ebc:	1c000001 	stcne	0, cr0, [r0], {1}
     ec0:	07201000 	streq	r1, [r0, -r0]!
     ec4:	000003f3 	strdeq	r0, [r0], -r3
     ec8:	01772b01 	cmneq	r7, r1, lsl #22
     ecc:	00240000 	eoreq	r0, r4, r0
     ed0:	ba072010 	blt	1c8f18 <__bss_end__+0x1bf210>
     ed4:	01000003 	tsteq	r0, r3
     ed8:	0001772c 	andeq	r7, r1, ip, lsr #14
     edc:	00000000 	andeq	r0, r0, r0
     ee0:	03da085a 	bicseq	r0, sl, #5898240	; 0x5a0000
     ee4:	2d010000 	stccs	0, cr0, [r1, #-0]
     ee8:	00000177 	andeq	r0, r0, r7, ror r1
     eec:	86b80920 	ldrthi	r0, [r8], r0, lsr #18
     ef0:	00790000 	rsbseq	r0, r9, r0
     ef4:	c4090000 	strgt	r0, [r9], #-0
     ef8:	a2000086 	andge	r0, r0, #134	; 0x86
     efc:	0a000000 	beq	f04 <_start-0x70fc>
     f00:	000086cc 	andeq	r8, r0, ip, asr #13
     f04:	0000018d 	andeq	r0, r0, sp, lsl #3
     f08:	0000013a 	andeq	r0, r0, sl, lsr r1
     f0c:	0150010b 	cmpeq	r0, fp, lsl #2
     f10:	d80a004e 	stmdale	sl, {r1, r2, r3, r6}
     f14:	9e000086 	cdpls	0, 0, cr0, cr0, cr6, {4}
     f18:	5a000001 	bpl	f24 <_start-0x70dc>
     f1c:	0b000001 	bleq	f28 <_start-0x70d8>
     f20:	0c055101 	stfeqs	f5, [r5], {1}
     f24:	5a000001 	bpl	f30 <_start-0x70d0>
     f28:	0550010b 	ldrbeq	r0, [r0, #-267]	; 0x10b
     f2c:	1000240c 	andne	r2, r0, ip, lsl #8
     f30:	e40c0020 	str	r0, [ip], #-32
     f34:	9e000086 	cdpls	0, 0, cr0, cr0, cr6, {4}
     f38:	0b000001 	bleq	f44 <_start-0x70bc>
     f3c:	0c055101 	stfeqs	f5, [r5], {1}
     f40:	5a000020 	bpl	fc8 <_start-0x7038>
     f44:	0550010b 	ldrbeq	r0, [r0, #-267]	; 0x10b
     f48:	10001c0c 	andne	r1, r0, ip, lsl #24
     f4c:	0d000020 	stceq	0, cr0, [r0, #-128]	; 0xffffff80
     f50:	00000025 	andeq	r0, r0, r5, lsr #32
     f54:	0003af08 	andeq	sl, r3, r8, lsl #30
     f58:	880d0100 	stmdahi	sp, {r8}
     f5c:	10000001 	andne	r0, r0, r1
     f60:	00002c0d 	andeq	r2, r0, sp, lsl #24
     f64:	02920e00 	addseq	r0, r2, #0, 28
     f68:	50020000 	andpl	r0, r2, r0
     f6c:	0000019e 	muleq	r0, lr, r1
     f70:	00002c0f 	andeq	r2, r0, pc, lsl #24
     f74:	0a100000 	beq	400f7c <__bss_end__+0x3f7274>
     f78:	02000004 	andeq	r0, r0, #4
     f7c:	002c0f99 	mlaeq	ip, r9, pc, r0	; <UNPREDICTABLE>
     f80:	2c0f0000 	stccs	0, cr0, [pc], {-0}
     f84:	00000000 	andeq	r0, r0, r0
     f88:	0001d800 	andeq	sp, r1, r0, lsl #16
     f8c:	9f000400 	svcls	0x00000400
     f90:	04000007 	streq	r0, [r0], #-7
     f94:	0000a301 	andeq	sl, r0, r1, lsl #6
     f98:	043a0100 	ldrteq	r0, [sl], #-256	; 0x100
     f9c:	017e0000 	cmneq	lr, r0
     fa0:	86f80000 	ldrbthi	r0, [r8], r0
     fa4:	00880000 	addeq	r0, r8, r0
     fa8:	06630000 	strbteq	r0, [r3], -r0
     fac:	04020000 	streq	r0, [r2], #-0
     fb0:	746e6905 	strbtvc	r6, [lr], #-2309	; 0x905
     fb4:	07040300 	streq	r0, [r4, -r0, lsl #6]
     fb8:	00000096 	muleq	r0, r6, r0
     fbc:	fc060103 	stc2	1, cr0, [r6], {3}
     fc0:	03000000 	movweq	r0, #0
     fc4:	013a0502 	teqeq	sl, r2, lsl #10
     fc8:	04030000 	streq	r0, [r3], #-0
     fcc:	00000505 	andeq	r0, r0, r5, lsl #10
     fd0:	05080300 	streq	r0, [r8, #-768]	; 0x300
     fd4:	00000000 	andeq	r0, r0, r0
     fd8:	fa080103 	blx	2013ec <__bss_end__+0x1f76e4>
     fdc:	03000000 	movweq	r0, #0
     fe0:	01270702 	teqeq	r7, r2, lsl #14
     fe4:	04030000 	streq	r0, [r3], #-0
     fe8:	00009107 	andeq	r9, r0, r7, lsl #2
     fec:	07080300 	streq	r0, [r8, -r0, lsl #6]
     ff0:	0000008c 	andeq	r0, r0, ip, lsl #1
     ff4:	44070403 	strmi	r0, [r7], #-1027	; 0x403
     ff8:	03000001 	movweq	r0, #1
     ffc:	01030801 	tsteq	r3, r1, lsl #16
    1000:	59040000 	stmdbpl	r4, {}	; <UNPREDICTABLE>
    1004:	01000004 	tsteq	r0, r4
    1008:	0086f805 	addeq	pc, r6, r5, lsl #16
    100c:	00001c00 	andeq	r1, r0, r0, lsl #24
    1010:	9e9c0100 	fmllse	f0, f4, f0
    1014:	05000000 	streq	r0, [r0, #-0]
    1018:	00000453 	andeq	r0, r0, r3, asr r4
    101c:	002c0501 	eoreq	r0, ip, r1, lsl #10
    1020:	07a00000 	streq	r0, [r0, r0]!
    1024:	06000000 	streq	r0, [r0], -r0
    1028:	0000041d 	andeq	r0, r0, sp, lsl r4
    102c:	002c0b01 	eoreq	r0, ip, r1, lsl #22
    1030:	87140000 	ldrhi	r0, [r4, -r0]
    1034:	00140000 	andseq	r0, r4, r0
    1038:	9c010000 	stcls	0, cr0, [r1], {-0}
    103c:	000000cb 	andeq	r0, r0, fp, asr #1
    1040:	00872007 	addeq	r2, r7, r7
    1044:	0001ca00 	andeq	ip, r1, r0, lsl #20
    1048:	50010800 	andpl	r0, r1, r0, lsl #16
    104c:	30040c05 	andcc	r0, r4, r5, lsl #24
    1050:	00002000 	andeq	r2, r0, r0
    1054:	00046f06 	andeq	r6, r4, r6, lsl #30
    1058:	2c100100 	ldfcss	f0, [r0], {-0}
    105c:	28000000 	stmdacs	r0, {}	; <UNPREDICTABLE>
    1060:	0c000087 	stceq	0, cr0, [r0], {135}	; 0x87
    1064:	01000000 	mrseq	r0, (UNDEF: 0)
    1068:	0000f99c 	muleq	r0, ip, r9
    106c:	00750900 	rsbseq	r0, r5, r0, lsl #18
    1070:	002c1401 	eoreq	r1, ip, r1, lsl #8
    1074:	50010000 	andpl	r0, r1, r0
    1078:	0087300a 	addeq	r3, r7, sl
    107c:	00009e00 	andeq	r9, r0, r0, lsl #28
    1080:	66040000 	strvs	r0, [r4], -r0
    1084:	01000004 	tsteq	r0, r4
    1088:	00873419 	addeq	r3, r7, r9, lsl r4
    108c:	00002400 	andeq	r2, r0, r0, lsl #8
    1090:	579c0100 	ldrpl	r0, [ip, r0, lsl #2]
    1094:	0b000001 	bleq	10a0 <_start-0x6f60>
    1098:	01007375 	tsteq	r0, r5, ror r3
    109c:	00002c19 	andeq	r2, r0, r9, lsl ip
    10a0:	0007d400 	andeq	sp, r7, r0, lsl #8
    10a4:	62720900 	rsbsvs	r0, r2, #0, 18
    10a8:	2c1a0100 	ldfcss	f0, [sl], {-0}
    10ac:	01000000 	mrseq	r0, (UNDEF: 0)
    10b0:	87440c54 	smlsldhi	r0, r4, r4, ip
    10b4:	00100000 	andseq	r0, r0, r0
    10b8:	014d0000 	mrseq	r0, (UNDEF: 77)
    10bc:	720d0000 	andvc	r0, sp, #0
    10c0:	1c010061 	stcne	0, cr0, [r1], {97}	; 0x61
    10c4:	0000002c 	andeq	r0, r0, ip, lsr #32
    10c8:	000007f2 	strdeq	r0, [r0], -r2
    10cc:	0087480a 	addeq	r4, r7, sl, lsl #16
    10d0:	0000cb00 	andeq	ip, r0, r0, lsl #22
    10d4:	400a0000 	andmi	r0, sl, r0
    10d8:	cb000087 	blgt	12fc <_start-0x6d04>
    10dc:	00000000 	andeq	r0, r0, r0
    10e0:	00029204 	andeq	r9, r2, r4, lsl #4
    10e4:	58220100 	stmdapl	r2!, {r8}
    10e8:	14000087 	strne	r0, [r0], #-135	; 0x87
    10ec:	01000000 	mrseq	r0, (UNDEF: 0)
    10f0:	0001909c 	muleq	r1, ip, r0
    10f4:	736d0b00 	cmnvc	sp, #0, 22
    10f8:	2c220100 	stfcss	f0, [r2], #-0
    10fc:	05000000 	streq	r0, [r0, #-0]
    1100:	07000008 	streq	r0, [r0, -r8]
    1104:	00008768 	andeq	r8, r0, r8, ror #14
    1108:	000000f9 	strdeq	r0, [r0], -r9
    110c:	07500108 	ldrbeq	r0, [r0, -r8, lsl #2]
    1110:	0a5001f3 	beq	14018e4 <__bss_end__+0x13f7bdc>
    1114:	001e03e8 	andseq	r0, lr, r8, ror #7
    1118:	04300400 	ldrteq	r0, [r0], #-1024	; 0x400
    111c:	25010000 	strcs	r0, [r1, #-0]
    1120:	0000876c 	andeq	r8, r0, ip, ror #14
    1124:	00000014 	andeq	r0, r0, r4, lsl r0
    1128:	01ca9c01 	biceq	r9, sl, r1, lsl #24
    112c:	730b0000 	movwvc	r0, #45056	; 0xb000
    1130:	01006365 	tsteq	r0, r5, ror #6
    1134:	00002c25 	andeq	r2, r0, r5, lsr #24
    1138:	00082600 	andeq	r2, r8, r0, lsl #12
    113c:	877c0700 	ldrbhi	r0, [ip, -r0, lsl #14]!
    1140:	01570000 	cmpeq	r7, r0
    1144:	01080000 	mrseq	r0, (UNDEF: 8)
    1148:	01f30750 	mvnseq	r0, r0, asr r7
    114c:	03e80a50 	mvneq	r0, #80, 20	; 0x50000
    1150:	0e00001e 	mcreq	0, 0, r0, cr0, cr14, {0}
    1154:	0000044d 	andeq	r0, r0, sp, asr #8
    1158:	002ca502 	eoreq	sl, ip, r2, lsl #10
    115c:	2c0f0000 	stccs	0, cr0, [pc], {-0}
    1160:	00000000 	andeq	r0, r0, r0
    1164:	0011ca00 	andseq	ip, r1, r0, lsl #20
    1168:	82000400 	andhi	r0, r0, #0, 8
    116c:	04000008 	streq	r0, [r0], #-8
    1170:	0000a301 	andeq	sl, r0, r1, lsl #6
    1174:	051d0100 	ldreq	r0, [sp, #-256]	; 0x100
    1178:	017e0000 	cmneq	lr, r0
    117c:	87800000 	strhi	r0, [r0, r0]
    1180:	06200000 	strteq	r0, [r0], -r0
    1184:	070a0000 	streq	r0, [sl, -r0]
    1188:	04020000 	streq	r0, [r2], #-0
    118c:	746e6905 	strbtvc	r6, [lr], #-2309	; 0x905
    1190:	07040300 	streq	r0, [r4, -r0, lsl #6]
    1194:	00000096 	muleq	r0, r6, r0
    1198:	fc060103 	stc2	1, cr0, [r6], {3}
    119c:	03000000 	movweq	r0, #0
    11a0:	013a0502 	teqeq	sl, r2, lsl #10
    11a4:	04030000 	streq	r0, [r3], #-0
    11a8:	00000505 	andeq	r0, r0, r5, lsl #10
    11ac:	05080300 	streq	r0, [r8, #-768]	; 0x300
    11b0:	00000000 	andeq	r0, r0, r0
    11b4:	00034604 	andeq	r4, r3, r4, lsl #12
    11b8:	5a2e0300 	bpl	b81dc0 <__bss_end__+0xb780b8>
    11bc:	03000000 	movweq	r0, #0
    11c0:	00fa0801 	rscseq	r0, sl, r1, lsl #16
    11c4:	02030000 	andeq	r0, r3, #0
    11c8:	00012707 	andeq	r2, r1, r7, lsl #14
    11cc:	039d0400 	orrseq	r0, sp, #0, 8
    11d0:	34030000 	strcc	r0, [r3], #-0
    11d4:	00000073 	andeq	r0, r0, r3, ror r0
    11d8:	91070403 	tstls	r7, r3, lsl #8
    11dc:	03000000 	movweq	r0, #0
    11e0:	008c0708 	addeq	r0, ip, r8, lsl #14
    11e4:	04030000 	streq	r0, [r3], #-0
    11e8:	00014407 	andeq	r4, r1, r7, lsl #8
    11ec:	06040500 	streq	r0, [r4], -r0, lsl #10
    11f0:	00009004 	andeq	r9, r0, r4
    11f4:	08010300 	stmdaeq	r1, {r8, r9}
    11f8:	00000103 	andeq	r0, r0, r3, lsl #2
    11fc:	009d0406 	addseq	r0, sp, r6, lsl #8
    1200:	90070000 	andls	r0, r7, r0
    1204:	08000000 	stmdaeq	r0, {}	; <UNPREDICTABLE>
    1208:	d90e040c 	stmdble	lr, {r2, r3, sl}
    120c:	09000000 	stmdbeq	r0, {}	; <UNPREDICTABLE>
    1210:	04007874 	streq	r7, [r0], #-2164	; 0x874
    1214:	00004f0f 	andeq	r4, r0, pc, lsl #30
    1218:	72090000 	andvc	r0, r9, #0
    121c:	0f040078 	svceq	0x00040078
    1220:	0000004f 	andeq	r0, r0, pc, asr #32
    1224:	03140a01 	tsteq	r4, #4096	; 0x1000
    1228:	10040000 	andne	r0, r4, r0
    122c:	00000068 	andeq	r0, r0, r8, rrx
    1230:	02c50a04 	sbceq	r0, r5, #4, 20	; 0x4000
    1234:	11040000 	mrsne	r0, (UNDEF: 4)
    1238:	00000068 	andeq	r0, r0, r8, rrx
    123c:	fd040008 	stc2	0, cr0, [r4, #-32]	; 0xffffffe0
    1240:	04000002 	streq	r0, [r0], #-2
    1244:	0000a212 	andeq	sl, r0, r2, lsl r2
    1248:	014d0400 	cmpeq	sp, r0, lsl #8
    124c:	28050000 	stmdacs	r5, {}	; <UNPREDICTABLE>
    1250:	000000ef 	andeq	r0, r0, pc, ror #1
    1254:	0001740b 	andeq	r7, r1, fp, lsl #8
    1258:	00090400 	andeq	r0, r9, r0, lsl #8
    125c:	00000106 	andeq	r0, r0, r6, lsl #2
    1260:	0001c70c 	andeq	ip, r1, ip, lsl #14
    1264:	00008800 	andeq	r8, r0, r0, lsl #16
    1268:	04000000 	streq	r0, [r0], #-0
    126c:	00000176 	andeq	r0, r0, r6, ror r1
    1270:	00e46205 	rsceq	r6, r4, r5, lsl #4
    1274:	d70d0000 	strle	r0, [sp, -r0]
    1278:	02000004 	andeq	r0, r0, #4
    127c:	013f0309 	teqeq	pc, r9, lsl #6
    1280:	280e0000 	stmdacs	lr, {}	; <UNPREDICTABLE>
    1284:	02000003 	andeq	r0, r0, #3
    1288:	00002c09 	andeq	r2, r0, r9, lsl #24
    128c:	006e0f00 	rsbeq	r0, lr, r0, lsl #30
    1290:	002c0902 	eoreq	r0, ip, r2, lsl #18
    1294:	11100000 	tstne	r0, r0
    1298:	0000054b 	andeq	r0, r0, fp, asr #10
    129c:	002c0c02 	eoreq	r0, ip, r2, lsl #24
    12a0:	00000000 	andeq	r0, r0, r0
    12a4:	00048a0d 	andeq	r8, r4, sp, lsl #20
    12a8:	03170200 	tsteq	r7, #0, 4
    12ac:	00000176 	andeq	r0, r0, r6, ror r1
    12b0:	6e69700f 	cdpvs	0, 6, cr7, cr9, cr15, {0}
    12b4:	2c170200 	lfmcs	f0, 4, [r7], {-0}
    12b8:	0f000000 	svceq	0x00000000
    12bc:	17020076 	smlsdxne	r2, r6, r0, r0
    12c0:	0000002c 	andeq	r0, r0, ip, lsr #32
    12c4:	0003280e 	andeq	r2, r3, lr, lsl #16
    12c8:	2c170200 	lfmcs	f0, 4, [r7], {-0}
    12cc:	0e000000 	cdpeq	0, 0, cr0, cr0, cr0, {0}
    12d0:	000004dd 	ldrdeq	r0, [r0], -sp
    12d4:	002c1702 	eoreq	r1, ip, r2, lsl #14
    12d8:	12000000 	andne	r0, r0, #0
    12dc:	00000339 	andeq	r0, r0, r9, lsr r3
    12e0:	87800901 	strhi	r0, [r0, r1, lsl #18]
    12e4:	01540000 	cmpeq	r4, r0
    12e8:	9c010000 	stcls	0, cr0, [r1], {-0}
    12ec:	00000722 	andeq	r0, r0, r2, lsr #14
    12f0:	0002db13 	andeq	sp, r2, r3, lsl fp
    12f4:	22090100 	andcs	r0, r9, #0, 2
    12f8:	47000007 	strmi	r0, [r0, -r7]
    12fc:	14000008 	strne	r0, [r0], #-8
    1300:	09010063 	stmdbeq	r1, {r0, r1, r5, r6}
    1304:	0000005a 	andeq	r0, r0, sl, asr r0
    1308:	00000868 	andeq	r0, r0, r8, ror #16
    130c:	00787415 	rsbseq	r7, r8, r5, lsl r4
    1310:	00250b01 	eoreq	r0, r5, r1, lsl #22
    1314:	76060000 	strvc	r0, [r6], -r0
    1318:	1aff0800 	bne	fffc3320 <__bss_end__+0xfffb9618>
    131c:	006e169f 	mlseq	lr, pc, r6, r1	; <UNPREDICTABLE>
    1320:	00680c01 	rsbeq	r0, r8, r1, lsl #24
    1324:	08890000 	stmeq	r9, {}	; <UNPREDICTABLE>
    1328:	75160000 	ldrvc	r0, [r6, #-0]
    132c:	680d0100 	stmdavs	sp, {r8}
    1330:	9c000000 	stcls	0, cr0, [r0], {-0}
    1334:	15000008 	strne	r0, [r0, #-8]
    1338:	0e010073 	mcreq	0, 0, r0, cr1, cr3, {3}
    133c:	00000068 	andeq	r0, r0, r8, rrx
    1340:	90175401 	andsls	r5, r7, r1, lsl #8
    1344:	04000087 	streq	r0, [r0], #-135	; 0x87
    1348:	f8000000 			; <UNDEFINED> instruction: 0xf8000000
    134c:	18000001 	stmdane	r0, {r0}
    1350:	0000054b 	andeq	r0, r0, fp, asr #10
    1354:	002c0e01 	eoreq	r0, ip, r1, lsl #28
    1358:	54010000 	strpl	r0, [r1], #-0
    135c:	013f1900 	teqeq	pc, r0, lsl #18
    1360:	87940000 	ldrhi	r0, [r4, r0]
    1364:	001c0000 	andseq	r0, ip, r0
    1368:	11010000 	mrsne	r0, (UNDEF: 1)
    136c:	00000275 	andeq	r0, r0, r5, ror r2
    1370:	00016a1a 	andeq	r6, r1, sl, lsl sl
    1374:	0008c500 	andeq	ip, r8, r0, lsl #10
    1378:	015f1b00 	cmpeq	pc, r0, lsl #22
    137c:	54010000 	strpl	r0, [r1], #-0
    1380:	0001561c 	andeq	r5, r1, ip, lsl r6
    1384:	4b1b0000 	blmi	6c138c <__bss_end__+0x6b7684>
    1388:	01000001 	tsteq	r0, r1
    138c:	01111956 	tsteq	r1, r6, asr r9
    1390:	87a00000 	strhi	r0, [r0, r0]!
    1394:	00100000 	andseq	r0, r0, r0
    1398:	1a020000 	bne	813a0 <__bss_end__+0x77698>
    139c:	0000025f 	andeq	r0, r0, pc, asr r2
    13a0:	0001281a 	andeq	r2, r1, sl, lsl r8
    13a4:	0008d800 	andeq	sp, r8, r0, lsl #16
    13a8:	011d1b00 	tsteq	sp, r0, lsl #22
    13ac:	54010000 	strpl	r0, [r1], #-0
    13b0:	0087a01d 	addeq	sl, r7, sp, lsl r0
    13b4:	00000400 	andeq	r0, r0, r0, lsl #8
    13b8:	01321e00 	teqeq	r2, r0, lsl #28
    13bc:	08eb0000 	stmiaeq	fp!, {}^	; <UNPREDICTABLE>
    13c0:	00000000 	andeq	r0, r0, r0
    13c4:	0087a01f 	addeq	sl, r7, pc, lsl r0
    13c8:	00113100 	andseq	r3, r1, r0, lsl #2
    13cc:	51012000 	mrspl	r2, (UNDEF: 1)
    13d0:	01203001 	teqeq	r0, r1
    13d4:	00760250 	rsbseq	r0, r6, r0, asr r2
    13d8:	3f190000 	svccc	0x00190000
    13dc:	b4000001 	strlt	r0, [r0], #-1
    13e0:	1c000087 	stcne	0, cr0, [r0], {135}	; 0x87
    13e4:	01000000 	mrseq	r0, (UNDEF: 0)
    13e8:	0002f813 	andeq	pc, r2, r3, lsl r8	; <UNPREDICTABLE>
    13ec:	016a1a00 	cmneq	sl, r0, lsl #20
    13f0:	08fe0000 	ldmeq	lr!, {}^	; <UNPREDICTABLE>
    13f4:	5f1b0000 	svcpl	0x001b0000
    13f8:	01000001 	tsteq	r0, r1
    13fc:	01561a54 	cmpeq	r6, r4, asr sl
    1400:	09200000 	stmdbeq	r0!, {}	; <UNPREDICTABLE>
    1404:	4b1b0000 	blmi	6c140c <__bss_end__+0x6b7704>
    1408:	01000001 	tsteq	r0, r1
    140c:	01111956 	tsteq	r1, r6, asr r9
    1410:	87c00000 	strbhi	r0, [r0, r0]
    1414:	00100000 	andseq	r0, r0, r0
    1418:	1a020000 	bne	81420 <__bss_end__+0x77718>
    141c:	000002df 	ldrdeq	r0, [r0], -pc	; <UNPREDICTABLE>
    1420:	0001281a 	andeq	r2, r1, sl, lsl r8
    1424:	00095100 	andeq	r5, r9, r0, lsl #2
    1428:	011d1b00 	tsteq	sp, r0, lsl #22
    142c:	54010000 	strpl	r0, [r1], #-0
    1430:	0087c01d 	addeq	ip, r7, sp, lsl r0
    1434:	00000400 	andeq	r0, r0, r0, lsl #8
    1438:	01321e00 	teqeq	r2, r0, lsl #28
    143c:	09730000 	ldmdbeq	r3!, {}^	; <UNPREDICTABLE>
    1440:	00000000 	andeq	r0, r0, r0
    1444:	0087c01f 	addeq	ip, r7, pc, lsl r0
    1448:	00113100 	andseq	r3, r1, r0, lsl #2
    144c:	51012000 	mrspl	r2, (UNDEF: 1)
    1450:	31007704 	tstcc	r0, r4, lsl #14
    1454:	5001201a 	andpl	r2, r1, sl, lsl r0
    1458:	00007602 	andeq	r7, r0, r2, lsl #12
    145c:	013f1900 	teqeq	pc, r0, lsl #18
    1460:	87d40000 	ldrbhi	r0, [r4, r0]
    1464:	001c0000 	andseq	r0, ip, r0
    1468:	15010000 	strne	r0, [r1, #-0]
    146c:	00000380 	andeq	r0, r0, r0, lsl #7
    1470:	00016a1a 	andeq	r6, r1, sl, lsl sl
    1474:	00098600 	andeq	r8, r9, r0, lsl #12
    1478:	015f1b00 	cmpeq	pc, r0, lsl #22
    147c:	54010000 	strpl	r0, [r1], #-0
    1480:	0001561b 	andeq	r5, r1, fp, lsl r6
    1484:	00770800 	rsbseq	r0, r7, r0, lsl #16
    1488:	ff081a32 			; <UNDEFINED> instruction: 0xff081a32
    148c:	4b1b9f1a 	blmi	6e90fc <__bss_end__+0x6df3f4>
    1490:	01000001 	tsteq	r0, r1
    1494:	01111956 	tsteq	r1, r6, asr r9
    1498:	87e00000 	strbhi	r0, [r0, r0]!
    149c:	00100000 	andseq	r0, r0, r0
    14a0:	1a020000 	bne	814a8 <__bss_end__+0x777a0>
    14a4:	00000367 	andeq	r0, r0, r7, ror #6
    14a8:	0001281a 	andeq	r2, r1, sl, lsl r8
    14ac:	0009ab00 	andeq	sl, r9, r0, lsl #22
    14b0:	011d1b00 	tsteq	sp, r0, lsl #22
    14b4:	54010000 	strpl	r0, [r1], #-0
    14b8:	0087e01d 	addeq	lr, r7, sp, lsl r0
    14bc:	00000400 	andeq	r0, r0, r0, lsl #8
    14c0:	01321e00 	teqeq	r2, r0, lsl #28
    14c4:	09d00000 	ldmibeq	r0, {}^	; <UNPREDICTABLE>
    14c8:	00000000 	andeq	r0, r0, r0
    14cc:	0087e01f 	addeq	lr, r7, pc, lsl r0
    14d0:	00113100 	andseq	r3, r1, r0, lsl #2
    14d4:	51012000 	mrspl	r2, (UNDEF: 1)
    14d8:	32007704 	andcc	r7, r0, #4, 14	; 0x100000
    14dc:	5001201a 	andpl	r2, r1, sl, lsl r0
    14e0:	00007602 	andeq	r7, r0, r2, lsl #12
    14e4:	013f1900 	teqeq	pc, r0, lsl #18
    14e8:	87f40000 	ldrbhi	r0, [r4, r0]!
    14ec:	001c0000 	andseq	r0, ip, r0
    14f0:	17010000 	strne	r0, [r1, -r0]
    14f4:	00000408 	andeq	r0, r0, r8, lsl #8
    14f8:	00016a1a 	andeq	r6, r1, sl, lsl sl
    14fc:	0009e300 	andeq	lr, r9, r0, lsl #6
    1500:	015f1b00 	cmpeq	pc, r0, lsl #22
    1504:	54010000 	strpl	r0, [r1], #-0
    1508:	0001561b 	andeq	r5, r1, fp, lsl r6
    150c:	00770800 	rsbseq	r0, r7, r0, lsl #16
    1510:	ff081a34 			; <UNDEFINED> instruction: 0xff081a34
    1514:	4b1b9f1a 	blmi	6e9184 <__bss_end__+0x6df47c>
    1518:	01000001 	tsteq	r0, r1
    151c:	01111956 	tsteq	r1, r6, asr r9
    1520:	88000000 	stmdahi	r0, {}	; <UNPREDICTABLE>
    1524:	00100000 	andseq	r0, r0, r0
    1528:	1a020000 	bne	81530 <__bss_end__+0x77828>
    152c:	000003ef 	andeq	r0, r0, pc, ror #7
    1530:	0001281a 	andeq	r2, r1, sl, lsl r8
    1534:	000a0500 	andeq	r0, sl, r0, lsl #10
    1538:	011d1b00 	tsteq	sp, r0, lsl #22
    153c:	54010000 	strpl	r0, [r1], #-0
    1540:	0088001d 	addeq	r0, r8, sp, lsl r0
    1544:	00000400 	andeq	r0, r0, r0, lsl #8
    1548:	01321e00 	teqeq	r2, r0, lsl #28
    154c:	0a270000 	beq	9c1554 <__bss_end__+0x9b784c>
    1550:	00000000 	andeq	r0, r0, r0
    1554:	0088001f 	addeq	r0, r8, pc, lsl r0
    1558:	00113100 	andseq	r3, r1, r0, lsl #2
    155c:	51012000 	mrspl	r2, (UNDEF: 1)
    1560:	34007704 	strcc	r7, [r0], #-1796	; 0x704
    1564:	5001201a 	andpl	r2, r1, sl, lsl r0
    1568:	00007602 	andeq	r7, r0, r2, lsl #12
    156c:	013f1900 	teqeq	pc, r0, lsl #18
    1570:	88140000 	ldmdahi	r4, {}	; <UNPREDICTABLE>
    1574:	001c0000 	andseq	r0, ip, r0
    1578:	19010000 	stmdbne	r1, {}	; <UNPREDICTABLE>
    157c:	00000490 	muleq	r0, r0, r4
    1580:	00016a1a 	andeq	r6, r1, sl, lsl sl
    1584:	000a3a00 	andeq	r3, sl, r0, lsl #20
    1588:	015f1b00 	cmpeq	pc, r0, lsl #22
    158c:	54010000 	strpl	r0, [r1], #-0
    1590:	0001561b 	andeq	r5, r1, fp, lsl r6
    1594:	00770800 	rsbseq	r0, r7, r0, lsl #16
    1598:	ff081a38 			; <UNDEFINED> instruction: 0xff081a38
    159c:	4b1b9f1a 	blmi	6e920c <__bss_end__+0x6df504>
    15a0:	01000001 	tsteq	r0, r1
    15a4:	01111956 	tsteq	r1, r6, asr r9
    15a8:	88200000 	stmdahi	r0!, {}	; <UNPREDICTABLE>
    15ac:	00100000 	andseq	r0, r0, r0
    15b0:	1a020000 	bne	815b8 <__bss_end__+0x778b0>
    15b4:	00000477 	andeq	r0, r0, r7, ror r4
    15b8:	0001281a 	andeq	r2, r1, sl, lsl r8
    15bc:	000a5f00 	andeq	r5, sl, r0, lsl #30
    15c0:	011d1b00 	tsteq	sp, r0, lsl #22
    15c4:	54010000 	strpl	r0, [r1], #-0
    15c8:	0088201d 	addeq	r2, r8, sp, lsl r0
    15cc:	00000400 	andeq	r0, r0, r0, lsl #8
    15d0:	01321e00 	teqeq	r2, r0, lsl #28
    15d4:	0a840000 	beq	fe1015dc <__bss_end__+0xfe0f78d4>
    15d8:	00000000 	andeq	r0, r0, r0
    15dc:	0088201f 	addeq	r2, r8, pc, lsl r0
    15e0:	00113100 	andseq	r3, r1, r0, lsl #2
    15e4:	51012000 	mrspl	r2, (UNDEF: 1)
    15e8:	38007704 	stmdacc	r0, {r2, r8, r9, sl, ip, sp, lr}
    15ec:	5001201a 	andpl	r2, r1, sl, lsl r0
    15f0:	00007602 	andeq	r7, r0, r2, lsl #12
    15f4:	013f1900 	teqeq	pc, r0, lsl #18
    15f8:	88340000 	ldmdahi	r4!, {}	; <UNPREDICTABLE>
    15fc:	001c0000 	andseq	r0, ip, r0
    1600:	1b010000 	blne	41608 <__bss_end__+0x37900>
    1604:	00000518 	andeq	r0, r0, r8, lsl r5
    1608:	00016a1a 	andeq	r6, r1, sl, lsl sl
    160c:	000a9700 	andeq	r9, sl, r0, lsl #14
    1610:	015f1b00 	cmpeq	pc, r0, lsl #22
    1614:	54010000 	strpl	r0, [r1], #-0
    1618:	0001561b 	andeq	r5, r1, fp, lsl r6
    161c:	00770800 	rsbseq	r0, r7, r0, lsl #16
    1620:	ff081a40 			; <UNDEFINED> instruction: 0xff081a40
    1624:	4b1b9f1a 	blmi	6e9294 <__bss_end__+0x6df58c>
    1628:	01000001 	tsteq	r0, r1
    162c:	01111956 	tsteq	r1, r6, asr r9
    1630:	88400000 	stmdahi	r0, {}^	; <UNPREDICTABLE>
    1634:	00100000 	andseq	r0, r0, r0
    1638:	1a020000 	bne	81640 <__bss_end__+0x77938>
    163c:	000004ff 	strdeq	r0, [r0], -pc	; <UNPREDICTABLE>
    1640:	0001281a 	andeq	r2, r1, sl, lsl r8
    1644:	000abe00 	andeq	fp, sl, r0, lsl #28
    1648:	011d1b00 	tsteq	sp, r0, lsl #22
    164c:	54010000 	strpl	r0, [r1], #-0
    1650:	0088401d 	addeq	r4, r8, sp, lsl r0
    1654:	00000400 	andeq	r0, r0, r0, lsl #8
    1658:	01321e00 	teqeq	r2, r0, lsl #28
    165c:	0ae50000 	beq	ff941664 <__bss_end__+0xff93795c>
    1660:	00000000 	andeq	r0, r0, r0
    1664:	0088401f 	addeq	r4, r8, pc, lsl r0
    1668:	00113100 	andseq	r3, r1, r0, lsl #2
    166c:	51012000 	mrspl	r2, (UNDEF: 1)
    1670:	40007704 	andmi	r7, r0, r4, lsl #14
    1674:	5001201a 	andpl	r2, r1, sl, lsl r0
    1678:	00007602 	andeq	r7, r0, r2, lsl #12
    167c:	013f1900 	teqeq	pc, r0, lsl #18
    1680:	88540000 	ldmdahi	r4, {}^	; <UNPREDICTABLE>
    1684:	001c0000 	andseq	r0, ip, r0
    1688:	1d010000 	stcne	0, cr0, [r1, #-0]
    168c:	000005a2 	andeq	r0, r0, r2, lsr #11
    1690:	00016a1a 	andeq	r6, r1, sl, lsl sl
    1694:	000af800 	andeq	pc, sl, r0, lsl #16
    1698:	015f1b00 	cmpeq	pc, r0, lsl #22
    169c:	54010000 	strpl	r0, [r1], #-0
    16a0:	0001561b 	andeq	r5, r1, fp, lsl r6
    16a4:	00770900 	rsbseq	r0, r7, r0, lsl #18
    16a8:	081a2008 	ldmdaeq	sl, {r3, sp}
    16ac:	1b9f1aff 	blne	fe7c82b0 <__bss_end__+0xfe7be5a8>
    16b0:	0000014b 	andeq	r0, r0, fp, asr #2
    16b4:	11195601 	tstne	r9, r1, lsl #12
    16b8:	60000001 	andvs	r0, r0, r1
    16bc:	10000088 	andne	r0, r0, r8, lsl #1
    16c0:	02000000 	andeq	r0, r0, #0
    16c4:	0005881a 	andeq	r8, r5, sl, lsl r8
    16c8:	01281a00 	teqeq	r8, r0, lsl #20
    16cc:	0b220000 	bleq	8816d4 <__bss_end__+0x8779cc>
    16d0:	1d1b0000 	ldcne	0, cr0, [fp, #-0]
    16d4:	01000001 	tsteq	r0, r1
    16d8:	88601d54 	stmdahi	r0!, {r2, r4, r6, r8, sl, fp, ip}^
    16dc:	00040000 	andeq	r0, r4, r0
    16e0:	321e0000 	andscc	r0, lr, #0
    16e4:	4c000001 	stcmi	0, cr0, [r0], {1}
    16e8:	0000000b 	andeq	r0, r0, fp
    16ec:	88601f00 	stmdahi	r0!, {r8, r9, sl, fp, ip}^
    16f0:	11310000 	teqne	r1, r0
    16f4:	01200000 	teqeq	r0, r0
    16f8:	00770551 	rsbseq	r0, r7, r1, asr r5
    16fc:	201a2008 	andscs	r2, sl, r8
    1700:	76025001 	strvc	r5, [r2], -r1
    1704:	19000000 	stmdbne	r0, {}	; <UNPREDICTABLE>
    1708:	0000013f 	andeq	r0, r0, pc, lsr r1
    170c:	00008874 	andeq	r8, r0, r4, ror r8
    1710:	0000001c 	andeq	r0, r0, ip, lsl r0
    1714:	062c1f01 	strteq	r1, [ip], -r1, lsl #30
    1718:	6a1a0000 	bvs	681720 <__bss_end__+0x677a18>
    171c:	5f000001 	svcpl	0x00000001
    1720:	1b00000b 	blne	1754 <_start-0x68ac>
    1724:	0000015f 	andeq	r0, r0, pc, asr r1
    1728:	561b5401 	ldrpl	r5, [fp], -r1, lsl #8
    172c:	09000001 	stmdbeq	r0, {r0}
    1730:	40080077 	andmi	r0, r8, r7, ror r0
    1734:	1aff081a 	bne	fffc37a4 <__bss_end__+0xfffb9a9c>
    1738:	014b1b9f 			; <UNDEFINED> instruction: 0x014b1b9f
    173c:	56010000 	strpl	r0, [r1], -r0
    1740:	00011119 	andeq	r1, r1, r9, lsl r1
    1744:	00888000 	addeq	r8, r8, r0
    1748:	00001000 	andeq	r1, r0, r0
    174c:	121a0200 	andsne	r0, sl, #0, 4
    1750:	1a000006 	bne	1770 <_start-0x6890>
    1754:	00000128 	andeq	r0, r0, r8, lsr #2
    1758:	00000b81 	andeq	r0, r0, r1, lsl #23
    175c:	00011d1b 	andeq	r1, r1, fp, lsl sp
    1760:	1d540100 	ldfnee	f0, [r4, #-0]
    1764:	00008880 	andeq	r8, r0, r0, lsl #17
    1768:	00000004 	andeq	r0, r0, r4
    176c:	0001321e 	andeq	r3, r1, lr, lsl r2
    1770:	000ba300 	andeq	sl, fp, r0, lsl #6
    1774:	1f000000 	svcne	0x00000000
    1778:	00008880 	andeq	r8, r0, r0, lsl #17
    177c:	00001131 	andeq	r1, r0, r1, lsr r1
    1780:	05510120 	ldrbeq	r0, [r1, #-288]	; 0x120
    1784:	40080077 	andmi	r0, r8, r7, ror r0
    1788:	5001201a 	andpl	r2, r1, sl, lsl r0
    178c:	00007602 	andeq	r7, r0, r2, lsl #12
    1790:	013f1900 	teqeq	pc, r0, lsl #18
    1794:	88940000 	ldmhi	r4, {}	; <UNPREDICTABLE>
    1798:	001c0000 	andseq	r0, ip, r0
    179c:	21010000 	mrscs	r0, (UNDEF: 1)
    17a0:	000006ac 	andeq	r0, r0, ip, lsr #13
    17a4:	00016a1b 	andeq	r6, r1, fp, lsl sl
    17a8:	1b580100 	blne	1601bb0 <__bss_end__+0x15f7ea8>
    17ac:	0000015f 	andeq	r0, r0, pc, asr r1
    17b0:	561a5401 	ldrpl	r5, [sl], -r1, lsl #8
    17b4:	b6000001 	strlt	r0, [r0], -r1
    17b8:	1b00000b 	blne	17ec <_start-0x6814>
    17bc:	0000014b 	andeq	r0, r0, fp, asr #2
    17c0:	11195601 	tstne	r9, r1, lsl #12
    17c4:	a0000001 	andge	r0, r0, r1
    17c8:	10000088 	andne	r0, r0, r8, lsl #1
    17cc:	02000000 	andeq	r0, r0, #0
    17d0:	0006921a 	andeq	r9, r6, sl, lsl r2
    17d4:	01281b00 	teqeq	r8, r0, lsl #22
    17d8:	58010000 	stmdapl	r1, {}	; <UNPREDICTABLE>
    17dc:	00011d1b 	andeq	r1, r1, fp, lsl sp
    17e0:	1d540100 	ldfnee	f0, [r4, #-0]
    17e4:	000088a0 	andeq	r8, r0, r0, lsr #17
    17e8:	00000004 	andeq	r0, r0, r4
    17ec:	0001321e 	andeq	r3, r1, lr, lsl r2
    17f0:	000be900 	andeq	lr, fp, r0, lsl #18
    17f4:	1f000000 	svcne	0x00000000
    17f8:	000088a0 	andeq	r8, r0, r0, lsr #17
    17fc:	00001131 	andeq	r1, r0, r1, lsr r1
    1800:	05510120 	ldrbeq	r0, [r1, #-288]	; 0x120
    1804:	80080077 	andhi	r0, r8, r7, ror r0
    1808:	5001201a 	andpl	r2, r1, sl, lsl r0
    180c:	00007602 	andeq	r7, r0, r2, lsl #12
    1810:	013f2100 	teqeq	pc, r0, lsl #2
    1814:	88b40000 	ldmhi	r4!, {}	; <UNPREDICTABLE>
    1818:	001c0000 	andseq	r0, ip, r0
    181c:	23010000 	movwcs	r0, #4096	; 0x1000
    1820:	00016a1b 	andeq	r6, r1, fp, lsl sl
    1824:	1b550100 	blne	1541c2c <__bss_end__+0x1537f24>
    1828:	0000015f 	andeq	r0, r0, pc, asr r1
    182c:	561c5401 	ldrpl	r5, [ip], -r1, lsl #8
    1830:	01000001 	tsteq	r0, r1
    1834:	00014b1b 	andeq	r4, r1, fp, lsl fp
    1838:	19560100 	ldmdbne	r6, {r8}^
    183c:	00000111 	andeq	r0, r0, r1, lsl r1
    1840:	000088c0 	andeq	r8, r0, r0, asr #17
    1844:	00000010 	andeq	r0, r0, r0, lsl r0
    1848:	070b1a02 	streq	r1, [fp, -r2, lsl #20]
    184c:	281b0000 	ldmdacs	fp, {}	; <UNPREDICTABLE>
    1850:	01000001 	tsteq	r0, r1
    1854:	011d1b55 	tsteq	sp, r5, asr fp
    1858:	54010000 	strpl	r0, [r1], #-0
    185c:	0088c01d 	addeq	ip, r8, sp, lsl r0
    1860:	00000400 	andeq	r0, r0, r0, lsl #8
    1864:	01321e00 	teqeq	r2, r0, lsl #28
    1868:	0bfc0000 	bleq	fff01870 <__bss_end__+0xffef7b68>
    186c:	00000000 	andeq	r0, r0, r0
    1870:	0088c01f 	addeq	ip, r8, pc, lsl r0
    1874:	00113100 	andseq	r3, r1, r0, lsl #2
    1878:	51012000 	mrspl	r2, (UNDEF: 1)
    187c:	01203101 	teqeq	r0, r1, lsl #2
    1880:	00760250 	rsbseq	r0, r6, r0, asr r2
    1884:	06000000 	streq	r0, [r0], -r0
    1888:	0000d904 	andeq	sp, r0, r4, lsl #18
    188c:	05a52200 	streq	r2, [r5, #512]!	; 0x200
    1890:	27010000 	strcs	r0, [r1, -r0]
    1894:	00000025 	andeq	r0, r0, r5, lsr #32
    1898:	00076203 	andeq	r6, r7, r3, lsl #4
    189c:	78720f00 	ldmdavc	r2!, {r8, r9, sl, fp}^
    18a0:	25270100 	strcs	r0, [r7, #-256]!	; 0x100
    18a4:	0f000000 	svceq	0x00000000
    18a8:	27010076 	smlsdxcs	r1, r6, r0, r0
    18ac:	00000025 	andeq	r0, r0, r5, lsr #32
    18b0:	0004f90e 	andeq	pc, r4, lr, lsl #18
    18b4:	2c270100 	stfcss	f0, [r7], #-0
    18b8:	11000000 	mrsne	r0, (UNDEF: 0)
    18bc:	00000328 	andeq	r0, r0, r8, lsr #6
    18c0:	002c2801 	eoreq	r2, ip, r1, lsl #16
    18c4:	23000000 	movwcs	r0, #0
    18c8:	0000049a 	muleq	r0, sl, r4
    18cc:	00253401 	eoreq	r3, r5, r1, lsl #8
    18d0:	88d40000 	ldmhi	r4, {}^	; <UNPREDICTABLE>
    18d4:	01c80000 	biceq	r0, r8, r0
    18d8:	9c010000 	stcls	0, cr0, [r1], {-0}
    18dc:	00000b1e 	andeq	r0, r0, lr, lsl fp
    18e0:	0002db13 	andeq	sp, r2, r3, lsl fp
    18e4:	22340100 	eorscs	r0, r4, #0, 2
    18e8:	0f000007 	svceq	0x00000007
    18ec:	1300000c 	movwne	r0, #12
    18f0:	000004f9 	strdeq	r0, [r0], -r9
    18f4:	00253401 	eoreq	r3, r5, r1, lsl #8
    18f8:	0c540000 	mraeq	r0, r4, acc0
    18fc:	72150000 	andsvc	r0, r5, #0
    1900:	35010078 	strcc	r0, [r1, #-120]	; 0x78
    1904:	00000025 	andeq	r0, r0, r5, lsr #32
    1908:	73165501 	tstvc	r6, #4194304	; 0x400000
    190c:	2c3c0100 	ldfcss	f0, [ip], #-0
    1910:	72000000 	andvc	r0, r0, #0
    1914:	1600000c 	strne	r0, [r0], -ip
    1918:	3f010075 	svccc	0x00010075
    191c:	00000068 	andeq	r0, r0, r8, rrx
    1920:	00000c85 	andeq	r0, r0, r5, lsl #25
    1924:	01006e16 	tsteq	r0, r6, lsl lr
    1928:	00002c40 	andeq	r2, r0, r0, asr #24
    192c:	000c9800 	andeq	r9, ip, r0, lsl #16
    1930:	00631600 	rsbeq	r1, r3, r0, lsl #12
    1934:	002c4101 	eoreq	r4, ip, r1, lsl #2
    1938:	0caf0000 	stceq	0, cr0, [pc]	; 1940 <_start-0x66c0>
    193c:	28190000 	ldmdacs	r9, {}	; <UNPREDICTABLE>
    1940:	e8000007 	stmda	r0, {r0, r1, r2}
    1944:	34000088 	strcc	r0, [r0], #-136	; 0x88
    1948:	01000000 	mrseq	r0, (UNDEF: 0)
    194c:	00083c38 	andeq	r3, r8, r8, lsr ip
    1950:	074b1a00 	strbeq	r1, [fp, -r0, lsl #20]
    1954:	0cd90000 	ldcleq	0, cr0, [r9], {0}
    1958:	421c0000 	andsmi	r0, ip, #0
    195c:	00000007 	andeq	r0, r0, r7
    1960:	0007381b 	andeq	r3, r7, fp, lsl r8
    1964:	1d550100 	ldfnee	f0, [r5, #-0]
    1968:	000088e8 	andeq	r8, r0, r8, ror #17
    196c:	00000034 	andeq	r0, r0, r4, lsr r0
    1970:	0007561e 	andeq	r5, r7, lr, lsl r6
    1974:	000cf700 	andeq	pc, ip, r0, lsl #14
    1978:	88ec2400 	stmiahi	ip!, {sl, sp}^
    197c:	11470000 	mrsne	r0, (UNDEF: 71)
    1980:	f8250000 			; <UNDEFINED> instruction: 0xf8250000
    1984:	52000088 	andpl	r0, r0, #136	; 0x88
    1988:	31000011 	tstcc	r0, r1, lsl r0
    198c:	20000008 	andcs	r0, r0, r8
    1990:	75025001 	strvc	r5, [r2, #-1]
    1994:	04240000 	strteq	r0, [r4], #-0
    1998:	47000089 	strmi	r0, [r0, -r9, lsl #1]
    199c:	00000011 	andeq	r0, r0, r1, lsl r0
    19a0:	89241700 	stmdbhi	r4!, {r8, r9, sl, ip}
    19a4:	00040000 	andeq	r0, r4, r0
    19a8:	08590000 	ldmdaeq	r9, {}^	; <UNPREDICTABLE>
    19ac:	4b260000 	blmi	9819b4 <__bss_end__+0x977cac>
    19b0:	01000005 	tsteq	r0, r5
    19b4:	00002c3c 	andeq	r2, r0, ip, lsr ip
    19b8:	000d1500 	andeq	r1, sp, r0, lsl #10
    19bc:	11190000 	tstne	r9, r0
    19c0:	30000001 	andcc	r0, r0, r1
    19c4:	10000089 	andne	r0, r0, r9, lsl #1
    19c8:	01000000 	mrseq	r0, (UNDEF: 0)
    19cc:	00089244 	andeq	r9, r8, r4, asr #4
    19d0:	01281a00 	teqeq	r8, r0, lsl #20
    19d4:	0d280000 	stceq	0, cr0, [r8, #-0]
    19d8:	1d1a0000 	ldcne	0, cr0, [sl, #-0]
    19dc:	4d000001 	stcmi	0, cr0, [r0, #-4]
    19e0:	1d00000d 	stcne	0, cr0, [r0, #-52]	; 0xffffffcc
    19e4:	00008930 	andeq	r8, r0, r0, lsr r9
    19e8:	00000004 	andeq	r0, r0, r4
    19ec:	0001321e 	andeq	r3, r1, lr, lsl r2
    19f0:	000d6000 	andeq	r6, sp, r0
    19f4:	19000000 	stmdbne	r0, {}	; <UNPREDICTABLE>
    19f8:	00000111 	andeq	r0, r0, r1, lsl r1
    19fc:	00008950 	andeq	r8, r0, r0, asr r9
    1a00:	00000010 	andeq	r0, r0, r0, lsl r0
    1a04:	08cb4801 	stmiaeq	fp, {r0, fp, lr}^
    1a08:	281a0000 	ldmdacs	sl, {}	; <UNPREDICTABLE>
    1a0c:	73000001 	movwvc	r0, #1
    1a10:	1a00000d 	bne	1a4c <_start-0x65b4>
    1a14:	0000011d 	andeq	r0, r0, sp, lsl r1
    1a18:	00000d86 	andeq	r0, r0, r6, lsl #27
    1a1c:	0089501d 	addeq	r5, r9, sp, lsl r0
    1a20:	00000400 	andeq	r0, r0, r0, lsl #8
    1a24:	01321e00 	teqeq	r2, r0, lsl #28
    1a28:	0d990000 	ldceq	0, cr0, [r9]
    1a2c:	00000000 	andeq	r0, r0, r0
    1a30:	00011119 	andeq	r1, r1, r9, lsl r1
    1a34:	00897400 	addeq	r7, r9, r0, lsl #8
    1a38:	00001000 	andeq	r1, r0, r0
    1a3c:	044b0100 	strbeq	r0, [fp], #-256	; 0x100
    1a40:	1a000009 	bne	1a6c <_start-0x6594>
    1a44:	00000128 	andeq	r0, r0, r8, lsr #2
    1a48:	00000dac 	andeq	r0, r0, ip, lsr #27
    1a4c:	00011d1a 	andeq	r1, r1, sl, lsl sp
    1a50:	000dbf00 	andeq	fp, sp, r0, lsl #30
    1a54:	89741d00 	ldmdbhi	r4!, {r8, sl, fp, ip}^
    1a58:	00040000 	andeq	r0, r4, r0
    1a5c:	321e0000 	andscc	r0, lr, #0
    1a60:	d2000001 	andle	r0, r0, #1
    1a64:	0000000d 	andeq	r0, r0, sp
    1a68:	01111900 	tsteq	r1, r0, lsl #18
    1a6c:	89980000 	ldmibhi	r8, {}	; <UNPREDICTABLE>
    1a70:	00100000 	andseq	r0, r0, r0
    1a74:	4e010000 	cdpmi	0, 0, cr0, cr1, cr0, {0}
    1a78:	0000093d 	andeq	r0, r0, sp, lsr r9
    1a7c:	0001281a 	andeq	r2, r1, sl, lsl r8
    1a80:	000de500 	andeq	lr, sp, r0, lsl #10
    1a84:	011d1a00 	tsteq	sp, r0, lsl #20
    1a88:	0df80000 	ldcleq	0, cr0, [r8]
    1a8c:	981d0000 	ldmdals	sp, {}	; <UNPREDICTABLE>
    1a90:	04000089 	streq	r0, [r0], #-137	; 0x89
    1a94:	1e000000 	cdpne	0, 0, cr0, cr0, cr0, {0}
    1a98:	00000132 	andeq	r0, r0, r2, lsr r1
    1a9c:	00000e0b 	andeq	r0, r0, fp, lsl #28
    1aa0:	11190000 	tstne	r9, r0
    1aa4:	bc000001 	stclt	0, cr0, [r0], {1}
    1aa8:	10000089 	andne	r0, r0, r9, lsl #1
    1aac:	01000000 	mrseq	r0, (UNDEF: 0)
    1ab0:	00097651 	andeq	r7, r9, r1, asr r6
    1ab4:	01281a00 	teqeq	r8, r0, lsl #20
    1ab8:	0e1e0000 	cdpeq	0, 1, cr0, cr14, cr0, {0}
    1abc:	1d1a0000 	ldcne	0, cr0, [sl, #-0]
    1ac0:	31000001 	tstcc	r0, r1
    1ac4:	1d00000e 	stcne	0, cr0, [r0, #-56]	; 0xffffffc8
    1ac8:	000089bc 			; <UNDEFINED> instruction: 0x000089bc
    1acc:	00000004 	andeq	r0, r0, r4
    1ad0:	0001321e 	andeq	r3, r1, lr, lsl r2
    1ad4:	000e4400 	andeq	r4, lr, r0, lsl #8
    1ad8:	19000000 	stmdbne	r0, {}	; <UNPREDICTABLE>
    1adc:	00000111 	andeq	r0, r0, r1, lsl r1
    1ae0:	000089e0 	andeq	r8, r0, r0, ror #19
    1ae4:	00000010 	andeq	r0, r0, r0, lsl r0
    1ae8:	09af5401 	stmibeq	pc!, {r0, sl, ip, lr}	; <UNPREDICTABLE>
    1aec:	281a0000 	ldmdacs	sl, {}	; <UNPREDICTABLE>
    1af0:	57000001 	strpl	r0, [r0, -r1]
    1af4:	1a00000e 	bne	1b34 <_start-0x64cc>
    1af8:	0000011d 	andeq	r0, r0, sp, lsl r1
    1afc:	00000e6a 	andeq	r0, r0, sl, ror #28
    1b00:	0089e01d 	addeq	lr, r9, sp, lsl r0
    1b04:	00000400 	andeq	r0, r0, r0, lsl #8
    1b08:	01321e00 	teqeq	r2, r0, lsl #28
    1b0c:	0e7d0000 	cdpeq	0, 7, cr0, cr13, cr0, {0}
    1b10:	00000000 	andeq	r0, r0, r0
    1b14:	00011119 	andeq	r1, r1, r9, lsl r1
    1b18:	008a0400 	addeq	r0, sl, r0, lsl #8
    1b1c:	00001000 	andeq	r1, r0, r0
    1b20:	e8570100 	ldmda	r7, {r8}^
    1b24:	1a000009 	bne	1b50 <_start-0x64b0>
    1b28:	00000128 	andeq	r0, r0, r8, lsr #2
    1b2c:	00000e90 	muleq	r0, r0, lr
    1b30:	00011d1a 	andeq	r1, r1, sl, lsl sp
    1b34:	000ea300 	andeq	sl, lr, r0, lsl #6
    1b38:	8a041d00 	bhi	108f40 <__bss_end__+0xff238>
    1b3c:	00040000 	andeq	r0, r4, r0
    1b40:	321e0000 	andscc	r0, lr, #0
    1b44:	b6000001 	strlt	r0, [r0], -r1
    1b48:	0000000e 	andeq	r0, r0, lr
    1b4c:	01111900 	tsteq	r1, r0, lsl #18
    1b50:	8a280000 	bhi	a01b58 <__bss_end__+0x9f7e50>
    1b54:	00100000 	andseq	r0, r0, r0
    1b58:	5a010000 	bpl	41b60 <__bss_end__+0x37e58>
    1b5c:	00000a1d 	andeq	r0, r0, sp, lsl sl
    1b60:	0001281a 	andeq	r2, r1, sl, lsl r8
    1b64:	000ec900 	andeq	ip, lr, r0, lsl #18
    1b68:	011d2700 	tsteq	sp, r0, lsl #14
    1b6c:	281d0000 	ldmdacs	sp, {}	; <UNPREDICTABLE>
    1b70:	0400008a 	streq	r0, [r0], #-138	; 0x8a
    1b74:	1e000000 	cdpne	0, 0, cr0, cr0, cr0, {0}
    1b78:	00000132 	andeq	r0, r0, r2, lsr r1
    1b7c:	00000edc 	ldrdeq	r0, [r0], -ip
    1b80:	28190000 	ldmdacs	r9, {}	; <UNPREDICTABLE>
    1b84:	48000007 	stmdami	r0, {r0, r1, r2}
    1b88:	3400008a 	strcc	r0, [r0], #-138	; 0x8a
    1b8c:	01000000 	mrseq	r0, (UNDEF: 0)
    1b90:	000a8161 	andeq	r8, sl, r1, ror #2
    1b94:	074b2700 	strbeq	r2, [fp, -r0, lsl #14]
    1b98:	421a0000 	andsmi	r0, sl, #0
    1b9c:	ef000007 	svc	0x00000007
    1ba0:	1a00000e 	bne	1be0 <_start-0x6420>
    1ba4:	00000738 	andeq	r0, r0, r8, lsr r7
    1ba8:	00000f0f 	andeq	r0, r0, pc, lsl #30
    1bac:	008a481d 	addeq	r4, sl, sp, lsl r8
    1bb0:	00003400 	andeq	r3, r0, r0, lsl #8
    1bb4:	07561e00 	ldrbeq	r1, [r6, -r0, lsl #28]
    1bb8:	0f2d0000 	svceq	0x002d0000
    1bbc:	4c240000 	stcmi	0, cr0, [r4], #-0
    1bc0:	4700008a 	strmi	r0, [r0, -sl, lsl #1]
    1bc4:	25000011 	strcs	r0, [r0, #-17]
    1bc8:	00008a58 	andeq	r8, r0, r8, asr sl
    1bcc:	00001152 	andeq	r1, r0, r2, asr r1
    1bd0:	00000a76 	andeq	r0, r0, r6, ror sl
    1bd4:	02500120 	subseq	r0, r0, #32, 2
    1bd8:	24000075 	strcs	r0, [r0], #-117	; 0x75
    1bdc:	00008a64 	andeq	r8, r0, r4, ror #20
    1be0:	00001147 	andeq	r1, r0, r7, asr #2
    1be4:	4c250000 	stcmi	0, cr0, [r5], #-0
    1be8:	52000089 	andpl	r0, r0, #137	; 0x89
    1bec:	95000011 	strls	r0, [r0, #-17]
    1bf0:	2000000a 	andcs	r0, r0, sl
    1bf4:	75025001 	strvc	r5, [r2, #-1]
    1bf8:	6c250000 	stcvs	0, cr0, [r5], #-0
    1bfc:	52000089 	andpl	r0, r0, #137	; 0x89
    1c00:	a9000011 	stmdbge	r0, {r0, r4}
    1c04:	2000000a 	andcs	r0, r0, sl
    1c08:	75025001 	strvc	r5, [r2, #-1]
    1c0c:	90250000 	eorls	r0, r5, r0
    1c10:	52000089 	andpl	r0, r0, #137	; 0x89
    1c14:	bd000011 	stclt	0, cr0, [r0, #-68]	; 0xffffffbc
    1c18:	2000000a 	andcs	r0, r0, sl
    1c1c:	75025001 	strvc	r5, [r2, #-1]
    1c20:	b4250000 	strtlt	r0, [r5], #-0
    1c24:	52000089 	andpl	r0, r0, #137	; 0x89
    1c28:	d1000011 	tstle	r0, r1, lsl r0
    1c2c:	2000000a 	andcs	r0, r0, sl
    1c30:	75025001 	strvc	r5, [r2, #-1]
    1c34:	d8250000 	stmdale	r5!, {}	; <UNPREDICTABLE>
    1c38:	52000089 	andpl	r0, r0, #137	; 0x89
    1c3c:	e5000011 	str	r0, [r0, #-17]
    1c40:	2000000a 	andcs	r0, r0, sl
    1c44:	75025001 	strvc	r5, [r2, #-1]
    1c48:	fc250000 	stc2	0, cr0, [r5], #-0
    1c4c:	52000089 	andpl	r0, r0, #137	; 0x89
    1c50:	f9000011 			; <UNDEFINED> instruction: 0xf9000011
    1c54:	2000000a 	andcs	r0, r0, sl
    1c58:	75025001 	strvc	r5, [r2, #-1]
    1c5c:	20250000 	eorcs	r0, r5, r0
    1c60:	5200008a 	andpl	r0, r0, #138	; 0x8a
    1c64:	0d000011 	stceq	0, cr0, [r0, #-68]	; 0xffffffbc
    1c68:	2000000b 	andcs	r0, r0, fp
    1c6c:	75025001 	strvc	r5, [r2, #-1]
    1c70:	401f0000 	andsmi	r0, pc, r0
    1c74:	5200008a 	andpl	r0, r0, #138	; 0x8a
    1c78:	20000011 	andcs	r0, r0, r1, lsl r0
    1c7c:	75025001 	strvc	r5, [r2, #-1]
    1c80:	23000000 	movwcs	r0, #0
    1c84:	000004af 	andeq	r0, r0, pc, lsr #9
    1c88:	00256c01 	eoreq	r6, r5, r1, lsl #24
    1c8c:	8a9c0000 	bhi	fe701c94 <__bss_end__+0xfe6f7f8c>
    1c90:	00900000 	addseq	r0, r0, r0
    1c94:	9c010000 	stcls	0, cr0, [r1], {-0}
    1c98:	00000c02 	andeq	r0, r0, r2, lsl #24
    1c9c:	01007514 	tsteq	r0, r4, lsl r5
    1ca0:	0007226c 	andeq	r2, r7, ip, ror #4
    1ca4:	000f4b00 	andeq	r4, pc, r0, lsl #22
    1ca8:	75621400 	strbvc	r1, [r2, #-1024]!	; 0x400
    1cac:	6c010066 	stcvs	0, cr0, [r1], {102}	; 0x66
    1cb0:	00000c02 	andeq	r0, r0, r2, lsl #24
    1cb4:	00000f7f 	andeq	r0, r0, pc, ror pc
    1cb8:	00055013 	andeq	r5, r5, r3, lsl r0
    1cbc:	686c0100 	stmdavs	ip!, {r8}^
    1cc0:	b3000000 	movwlt	r0, #0
    1cc4:	1400000f 	strne	r0, [r0], #-15
    1cc8:	00646e65 	rsbeq	r6, r4, r5, ror #28
    1ccc:	004f6c01 	subeq	r6, pc, r1, lsl #24
    1cd0:	0fec0000 	svceq	0x00ec0000
    1cd4:	62280000 	eorvs	r0, r8, #0
    1cd8:	01000005 	tsteq	r0, r5
    1cdc:	0000686c 	andeq	r6, r0, ip, ror #16
    1ce0:	00910200 	addseq	r0, r1, r0, lsl #4
    1ce4:	00020829 	andeq	r0, r2, r9, lsr #16
    1ce8:	000c1800 	andeq	r1, ip, r0, lsl #16
    1cec:	b4030500 	strlt	r0, [r3], #-1280	; 0x500
    1cf0:	16000097 			; <UNDEFINED> instruction: 0x16000097
    1cf4:	70010069 	andvc	r0, r1, r9, rrx
    1cf8:	00000025 	andeq	r0, r0, r5, lsr #32
    1cfc:	00001026 	andeq	r1, r0, r6, lsr #32
    1d00:	00052e26 	andeq	r2, r5, r6, lsr #28
    1d04:	4f710100 	svcmi	0x00710100
    1d08:	45000000 	strmi	r0, [r0, #-0]
    1d0c:	24000010 	strcs	r0, [r0], #-16
    1d10:	00008abc 			; <UNDEFINED> instruction: 0x00008abc
    1d14:	00001167 	andeq	r1, r0, r7, ror #2
    1d18:	008ad025 	addeq	sp, sl, r5, lsr #32
    1d1c:	00116e00 	andseq	r6, r1, r0, lsl #28
    1d20:	000be200 	andeq	lr, fp, r0, lsl #4
    1d24:	53012000 	movwpl	r2, #4096	; 0x1000
    1d28:	206d0802 	rsbcs	r0, sp, r2, lsl #16
    1d2c:	03055201 	movweq	r5, #20993	; 0x5201
    1d30:	000097b4 			; <UNDEFINED> instruction: 0x000097b4
    1d34:	05510120 	ldrbeq	r0, [r1, #-288]	; 0x120
    1d38:	00984803 	addseq	r4, r8, r3, lsl #16
    1d3c:	50012000 	andpl	r2, r1, r0
    1d40:	982c0305 	stmdals	ip!, {r0, r2, r8, r9}
    1d44:	24000000 	strcs	r0, [r0], #-0
    1d48:	00008ad4 	ldrdeq	r8, [r0], -r4
    1d4c:	00001184 	andeq	r1, r0, r4, lsl #3
    1d50:	008af01f 	addeq	pc, sl, pc, lsl r0	; <UNPREDICTABLE>
    1d54:	00076200 	andeq	r6, r7, r0, lsl #4
    1d58:	51012000 	mrspl	r2, (UNDEF: 1)
    1d5c:	20007a02 	andcs	r7, r0, r2, lsl #20
    1d60:	78025001 	stmdavc	r2, {r0, ip, lr}
    1d64:	06000000 	streq	r0, [r0], -r0
    1d68:	00004f04 	andeq	r4, r0, r4, lsl #30
    1d6c:	00902a00 	addseq	r2, r0, r0, lsl #20
    1d70:	0c180000 	ldceq	0, cr0, [r8], {-0}
    1d74:	812b0000 	teqhi	fp, r0
    1d78:	12000000 	andne	r0, r0, #0
    1d7c:	0c080700 	stceq	7, cr0, [r8], {-0}
    1d80:	36230000 	strtcc	r0, [r3], -r0
    1d84:	01000005 	tsteq	r0, r5
    1d88:	00002580 	andeq	r2, r0, r0, lsl #11
    1d8c:	008b2c00 	addeq	r2, fp, r0, lsl #24
    1d90:	00007c00 	andeq	r7, r0, r0, lsl #24
    1d94:	e49c0100 	ldr	r0, [ip], #256	; 0x100
    1d98:	1400000c 	strne	r0, [r0], #-12
    1d9c:	80010075 	andhi	r0, r1, r5, ror r0
    1da0:	00000722 	andeq	r0, r0, r2, lsr #14
    1da4:	00001058 	andeq	r1, r0, r8, asr r0
    1da8:	66756214 			; <UNDEFINED> instruction: 0x66756214
    1dac:	02800100 	addeq	r0, r0, #0, 2
    1db0:	8c00000c 	stchi	0, cr0, [r0], {12}
    1db4:	13000010 	movwne	r0, #16
    1db8:	00000550 	andeq	r0, r0, r0, asr r5
    1dbc:	00688101 	rsbeq	r8, r8, r1, lsl #2
    1dc0:	10c00000 	sbcne	r0, r0, r0
    1dc4:	62130000 	andsvs	r0, r3, #0
    1dc8:	01000005 	tsteq	r0, r5
    1dcc:	00006881 	andeq	r6, r0, r1, lsl #17
    1dd0:	0010f900 	andseq	pc, r0, r0, lsl #18
    1dd4:	02082900 	andeq	r2, r8, #0, 18
    1dd8:	0cf40000 	ldcleq	0, cr0, [r4]
    1ddc:	03050000 	movweq	r0, #20480	; 0x5000
    1de0:	000097c8 	andeq	r9, r0, r8, asr #15
    1de4:	01006916 	tsteq	r0, r6, lsl r9
    1de8:	00002586 	andeq	r2, r0, r6, lsl #11
    1dec:	00112d00 	andseq	r2, r1, r0, lsl #26
    1df0:	8b482400 	blhi	120adf8 <__bss_end__+0x12010f0>
    1df4:	11670000 	cmnne	r7, r0
    1df8:	5c250000 	stcpl	0, cr0, [r5], #-0
    1dfc:	6e00008b 	cdpvs	0, 0, cr0, cr0, cr11, {4}
    1e00:	c4000011 	strgt	r0, [r0], #-17
    1e04:	2000000c 	andcs	r0, r0, ip
    1e08:	08025301 	stmdaeq	r2, {r0, r8, r9, ip, lr}
    1e0c:	52012083 	andpl	r2, r1, #131	; 0x83
    1e10:	97c80305 	strbls	r0, [r8, r5, lsl #6]
    1e14:	01200000 	teqeq	r0, r0
    1e18:	48030551 	stmdami	r3, {r0, r4, r6, r8, sl}
    1e1c:	20000098 	mulcs	r0, r8, r0
    1e20:	03055001 	movweq	r5, #20481	; 0x5001
    1e24:	0000982c 	andeq	r9, r0, ip, lsr #16
    1e28:	8b602400 	blhi	180ae30 <__bss_end__+0x1801128>
    1e2c:	11840000 	orrne	r0, r4, r0
    1e30:	7c1f0000 	ldcvc	0, cr0, [pc], {-0}
    1e34:	6200008b 	andvs	r0, r0, #139	; 0x8b
    1e38:	20000007 	andcs	r0, r0, r7
    1e3c:	78025101 	stmdavc	r2, {r0, r8, ip, lr}
    1e40:	50012000 	andpl	r2, r1, r0
    1e44:	00007702 	andeq	r7, r0, r2, lsl #14
    1e48:	00902a00 	addseq	r2, r0, r0, lsl #20
    1e4c:	0cf40000 	ldcleq	0, cr0, [r4]
    1e50:	812b0000 	teqhi	fp, r0
    1e54:	14000000 	strne	r0, [r0], #-0
    1e58:	0ce40700 	stcleq	7, cr0, [r4]
    1e5c:	e5230000 	str	r0, [r3, #-0]!
    1e60:	01000004 	tsteq	r0, r4
    1e64:	0000d993 	muleq	r0, r3, r9
    1e68:	008ba800 	addeq	sl, fp, r0, lsl #16
    1e6c:	0000c000 	andeq	ip, r0, r0
    1e70:	149c0100 	ldrne	r0, [ip], #256	; 0x100
    1e74:	1400000e 	strne	r0, [r0], #-14
    1e78:	01007874 	tsteq	r0, r4, ror r8
    1e7c:	00004f93 	muleq	r0, r3, pc	; <UNPREDICTABLE>
    1e80:	00114c00 	andseq	r4, r1, r0, lsl #24
    1e84:	78721400 	ldmdavc	r2!, {sl, ip}^
    1e88:	4f930100 	svcmi	0x00930100
    1e8c:	6d000000 	stcvs	0, cr0, [r0, #-0]
    1e90:	13000011 	movwne	r0, #17
    1e94:	00000314 	andeq	r0, r0, r4, lsl r3
    1e98:	00689301 	rsbeq	r9, r8, r1, lsl #6
    1e9c:	118e0000 	orrne	r0, lr, r0
    1ea0:	7e280000 	cdpvc	0, 2, cr0, cr8, cr0, {0}
    1ea4:	01000004 	tsteq	r0, r4
    1ea8:	00006893 	muleq	r0, r3, r8
    1eac:	00910200 	addseq	r0, r1, r0, lsl #4
    1eb0:	7a686d2c 	bvc	1a1d368 <__bss_end__+0x1a13660>
    1eb4:	2c9b0100 	ldfcss	f0, [fp], {0}
    1eb8:	00000000 	andeq	r0, r0, r0
    1ebc:	2629b927 	strtcs	fp, [r9], -r7, lsr #18
    1ec0:	000004cf 	andeq	r0, r0, pc, asr #9
    1ec4:	002c9c01 	eoreq	r9, ip, r1, lsl #24
    1ec8:	11ac0000 			; <UNDEFINED> instruction: 0x11ac0000
    1ecc:	08290000 	stmdaeq	r9!, {}	; <UNPREDICTABLE>
    1ed0:	24000002 	strcs	r0, [r0], #-2
    1ed4:	0500000e 	streq	r0, [r0, #-14]
    1ed8:	0097e003 	addseq	lr, r7, r3
    1edc:	8bd01700 	blhi	ff407ae4 <__bss_end__+0xff3fdddc>
    1ee0:	00080000 	andeq	r0, r8, r0
    1ee4:	0d910000 	ldceq	0, cr0, [r1]
    1ee8:	692d0000 	pushvs	{}	; <UNPREDICTABLE>
    1eec:	9701006e 	strls	r0, [r1, -lr, rrx]
    1ef0:	0000002c 	andeq	r0, r0, ip, lsr #32
    1ef4:	c8250001 	stmdagt	r5!, {r0}
    1ef8:	8b00008b 	blhi	212c <_start-0x5ed4>
    1efc:	a5000011 	strge	r0, [r0, #-17]
    1f00:	2000000d 	andcs	r0, r0, sp
    1f04:	76025001 	strvc	r5, [r2], -r1
    1f08:	d0250000 	eorle	r0, r5, r0
    1f0c:	9c00008b 	stcls	0, cr0, [r0], {139}	; 0x8b
    1f10:	b9000011 	stmdblt	r0, {r0, r4}
    1f14:	2000000d 	andcs	r0, r0, sp
    1f18:	78025001 	stmdavc	r2, {r0, ip, lr}
    1f1c:	e4250000 	strt	r0, [r5], #-0
    1f20:	3100008b 	smlabbcc	r0, fp, r0, r0
    1f24:	d2000011 	andle	r0, r0, #17
    1f28:	2000000d 	andcs	r0, r0, sp
    1f2c:	31015101 	tstcc	r1, r1, lsl #2
    1f30:	02500120 	subseq	r0, r0, #32, 2
    1f34:	24000076 	strcs	r0, [r0], #-118	; 0x76
    1f38:	00008c28 	andeq	r8, r0, r8, lsr #24
    1f3c:	00001167 	andeq	r1, r0, r7, ror #2
    1f40:	008c3c25 	addeq	r3, ip, r5, lsr #24
    1f44:	00116e00 	andseq	r6, r1, r0, lsl #28
    1f48:	000e0a00 	andeq	r0, lr, r0, lsl #20
    1f4c:	53012000 	movwpl	r2, #4096	; 0x1000
    1f50:	209d0802 	addscs	r0, sp, r2, lsl #16
    1f54:	03055201 	movweq	r5, #20993	; 0x5201
    1f58:	000097e0 	andeq	r9, r0, r0, ror #15
    1f5c:	05510120 	ldrbeq	r0, [r1, #-288]	; 0x120
    1f60:	00984803 	addseq	r4, r8, r3, lsl #16
    1f64:	50012000 	andpl	r2, r1, r0
    1f68:	985c0305 	ldmdals	ip, {r0, r2, r8, r9}^
    1f6c:	24000000 	strcs	r0, [r0], #-0
    1f70:	00008c40 	andeq	r8, r0, r0, asr #24
    1f74:	00001184 	andeq	r1, r0, r4, lsl #3
    1f78:	00902a00 	addseq	r2, r0, r0, lsl #20
    1f7c:	0e240000 	cdpeq	0, 2, cr0, cr4, cr0, {0}
    1f80:	812b0000 	teqhi	fp, r0
    1f84:	13000000 	movwne	r0, #0
    1f88:	0e140700 	cdpeq	7, 1, cr0, cr4, cr0, {0}
    1f8c:	c2230000 	eorgt	r0, r3, #0
    1f90:	01000004 	tsteq	r0, r4
    1f94:	000025a9 	andeq	r2, r0, r9, lsr #11
    1f98:	008c6800 	addeq	r6, ip, r0, lsl #16
    1f9c:	00003c00 	andeq	r3, r0, r0, lsl #24
    1fa0:	cc9c0100 	ldfgts	f0, [ip], {0}
    1fa4:	1300000e 	movwne	r0, #14
    1fa8:	000002db 	ldrdeq	r0, [r0], -fp
    1fac:	0722a901 	streq	sl, [r2, -r1, lsl #18]!
    1fb0:	11da0000 	bicsne	r0, sl, r0
    1fb4:	72160000 	andsvc	r0, r6, #0
    1fb8:	01007365 	tsteq	r0, r5, ror #6
    1fbc:	000025aa 	andeq	r2, r0, sl, lsr #11
    1fc0:	0011fb00 	andseq	pc, r1, r0, lsl #22
    1fc4:	02082900 	andeq	r2, r8, #0, 18
    1fc8:	0edc0000 	cdpeq	0, 13, cr0, cr12, cr0, {0}
    1fcc:	03050000 	movweq	r0, #20480	; 0x5000
    1fd0:	000097f4 	strdeq	r9, [r0], -r4
    1fd4:	008c7425 	addeq	r7, ip, r5, lsr #8
    1fd8:	00076200 	andeq	r6, r7, r0, lsl #4
    1fdc:	000e8a00 	andeq	r8, lr, r0, lsl #20
    1fe0:	51012000 	mrspl	r2, (UNDEF: 1)
    1fe4:	20ff0902 	rscscs	r0, pc, r2, lsl #18
    1fe8:	f3035001 	vhadd.u8	d5, d3, d1
    1fec:	24005001 	strcs	r5, [r0], #-1
    1ff0:	00008c80 	andeq	r8, r0, r0, lsl #25
    1ff4:	00001167 	andeq	r1, r0, r7, ror #2
    1ff8:	008c9425 	addeq	r9, ip, r5, lsr #8
    1ffc:	00116e00 	andseq	r6, r1, r0, lsl #28
    2000:	000ec200 	andeq	ip, lr, r0, lsl #4
    2004:	53012000 	movwpl	r2, #4096	; 0x1000
    2008:	20ac0802 	adccs	r0, ip, r2, lsl #16
    200c:	03055201 	movweq	r5, #20993	; 0x5201
    2010:	000097f4 	strdeq	r9, [r0], -r4
    2014:	05510120 	ldrbeq	r0, [r1, #-288]	; 0x120
    2018:	00984803 	addseq	r4, r8, r3, lsl #16
    201c:	50012000 	andpl	r2, r1, r0
    2020:	98a00305 	stmials	r0!, {r0, r2, r8, r9}
    2024:	24000000 	strcs	r0, [r0], #-0
    2028:	00008c98 	muleq	r0, r8, ip
    202c:	00001184 	andeq	r1, r0, r4, lsl #3
    2030:	00902a00 	addseq	r2, r0, r0, lsl #20
    2034:	0edc0000 	cdpeq	0, 13, cr0, cr12, cr0, {0}
    2038:	812b0000 	teqhi	fp, r0
    203c:	0c000000 	stceq	0, cr0, [r0], {-0}
    2040:	0ecc0700 	cdpeq	7, 12, cr0, cr12, cr0, {0}
    2044:	06120000 	ldreq	r0, [r2], -r0
    2048:	01000005 	tsteq	r0, r5
    204c:	008ca4b0 			; <UNDEFINED> instruction: 0x008ca4b0
    2050:	00002c00 	andeq	r2, r0, r0, lsl #24
    2054:	259c0100 	ldrcs	r0, [ip, #256]	; 0x100
    2058:	1300000f 	movwne	r0, #15
    205c:	000002db 	ldrdeq	r0, [r0], -fp
    2060:	0722b001 	streq	fp, [r2, -r1]!
    2064:	120e0000 	andne	r0, lr, #0
    2068:	6d140000 	ldcvs	0, cr0, [r4, #-0]
    206c:	01006773 	tsteq	r0, r3, ror r7
    2070:	000097b0 			; <UNDEFINED> instruction: 0x000097b0
    2074:	00122c00 	andseq	r2, r2, r0, lsl #24
    2078:	8cbc1f00 	ldchi	15, cr1, [ip]
    207c:	01760000 	cmneq	r6, r0
    2080:	01200000 	teqeq	r0, r0
    2084:	00750250 	rsbseq	r0, r5, r0, asr r2
    2088:	e0230000 	eor	r0, r3, r0
    208c:	01000002 	tsteq	r0, r2
    2090:	000025b9 			; <UNDEFINED> instruction: 0x000025b9
    2094:	008cd000 	addeq	sp, ip, r0
    2098:	00008400 	andeq	r8, r0, r0, lsl #8
    209c:	199c0100 	ldmibne	ip, {r8}
    20a0:	13000010 	movwne	r0, #16
    20a4:	000002db 	ldrdeq	r0, [r0], -fp
    20a8:	0722b901 	streq	fp, [r2, -r1, lsl #18]!
    20ac:	124a0000 	subne	r0, sl, #0
    20b0:	662e0000 	strtvs	r0, [lr], -r0
    20b4:	0100746d 	tsteq	r0, sp, ror #8
    20b8:	000097b9 			; <UNDEFINED> instruction: 0x000097b9
    20bc:	74910200 	ldrvc	r0, [r1], #512	; 0x200
    20c0:	7562152f 	strbvc	r1, [r2, #-1327]!	; 0x52f
    20c4:	ba010066 	blt	42264 <__bss_end__+0x3855c>
    20c8:	00001019 	andeq	r1, r0, r9, lsl r0
    20cc:	7c9c9103 	ldfvcd	f1, [ip], {3}
    20d0:	0001c218 	andeq	ip, r1, r8, lsl r2
    20d4:	06bc0100 	ldrteq	r0, [ip], r0, lsl #2
    20d8:	03000001 	movweq	r0, #1
    20dc:	167c9891 			; <UNDEFINED> instruction: 0x167c9891
    20e0:	01007a73 	tsteq	r0, r3, ror sl
    20e4:	000025be 			; <UNDEFINED> instruction: 0x000025be
    20e8:	00127600 	andseq	r7, r2, r0, lsl #12
    20ec:	02082900 	andeq	r2, r8, #0, 18
    20f0:	103a0000 	eorsne	r0, sl, r0
    20f4:	03050000 	movweq	r0, #20480	; 0x5000
    20f8:	00009804 	andeq	r9, r0, r4, lsl #16
    20fc:	008cf825 	addeq	pc, ip, r5, lsr #16
    2100:	0011ad00 	andseq	sl, r1, r0, lsl #26
    2104:	000fc000 	andeq	ip, pc, r0
    2108:	53012000 	movwpl	r2, #4096	; 0x1000
    210c:	20589102 	subscs	r9, r8, r2, lsl #2
    2110:	91035201 	tstls	r3, r1, lsl #4
    2114:	01200654 	teqeq	r0, r4, asr r6
    2118:	cc0a0351 	stcgt	3, cr0, [sl], {81}	; 0x51
    211c:	50012001 	andpl	r2, r1, r1
    2120:	7bfc9103 	blvc	fff26534 <__bss_end__+0xfff1c82c>
    2124:	8d0c2400 	cfstrshi	mvf2, [ip, #-0]
    2128:	11670000 	cmnne	r7, r0
    212c:	20250000 	eorcs	r0, r5, r0
    2130:	6e00008d 	cdpvs	0, 0, cr0, cr0, cr13, {4}
    2134:	f8000011 			; <UNDEFINED> instruction: 0xf8000011
    2138:	2000000f 	andcs	r0, r0, pc
    213c:	08025301 	stmdaeq	r2, {r0, r8, r9, ip, lr}
    2140:	520120c0 	andpl	r2, r1, #192	; 0xc0
    2144:	98040305 	stmdals	r4, {r0, r2, r8, r9}
    2148:	01200000 	teqeq	r0, r0
    214c:	48030551 	stmdami	r3, {r0, r4, r6, r8, sl}
    2150:	20000098 	mulcs	r0, r8, r0
    2154:	03055001 	movweq	r5, #20481	; 0x5001
    2158:	000098d8 	ldrdeq	r9, [r0], -r8
    215c:	8d242400 	cfstrshi	mvf2, [r4, #-0]
    2160:	11840000 	orrne	r0, r4, r0
    2164:	301f0000 	andscc	r0, pc, r0
    2168:	e100008d 	smlabb	r0, sp, r0, r0
    216c:	2000000e 	andcs	r0, r0, lr
    2170:	91035101 	tstls	r3, r1, lsl #2
    2174:	01207bfc 	strdeq	r7, [r0, -ip]!
    2178:	00750250 	rsbseq	r0, r5, r0, asr r2
    217c:	902a0000 	eorls	r0, sl, r0
    2180:	2a000000 	bcs	2188 <_start-0x5e78>
    2184:	30000010 	andcc	r0, r0, r0, lsl r0
    2188:	00000081 	andeq	r0, r0, r1, lsl #1
    218c:	2a0001cb 	bcs	28c0 <_start-0x5740>
    2190:	00000090 	muleq	r0, r0, r0
    2194:	0000103a 	andeq	r1, r0, sl, lsr r0
    2198:	0000812b 	andeq	r8, r0, fp, lsr #2
    219c:	07000e00 	streq	r0, [r0, -r0, lsl #28]
    21a0:	0000102a 	andeq	r1, r0, sl, lsr #32
    21a4:	00057e23 	andeq	r7, r5, r3, lsr #28
    21a8:	25c50100 	strbcs	r0, [r5, #256]	; 0x100
    21ac:	54000000 	strpl	r0, [r0], #-0
    21b0:	4c00008d 	stcmi	0, cr0, [r0], {141}	; 0x8d
    21b4:	01000000 	mrseq	r0, (UNDEF: 0)
    21b8:	00111c9c 	mulseq	r1, ip, ip
    21bc:	00751400 	rsbseq	r1, r5, r0, lsl #8
    21c0:	0722c501 	streq	ip, [r2, -r1, lsl #10]!
    21c4:	12b50000 	adcsne	r0, r5, #0
    21c8:	62140000 	andsvs	r0, r4, #0
    21cc:	01006675 	tsteq	r0, r5, ror r6
    21d0:	000c02c5 	andeq	r0, ip, r5, asr #5
    21d4:	0012d600 	andseq	sp, r2, r0, lsl #12
    21d8:	05501300 	ldrbeq	r1, [r0, #-768]	; 0x300
    21dc:	c5010000 	strgt	r0, [r1, #-0]
    21e0:	00000068 	andeq	r0, r0, r8, rrx
    21e4:	000012f7 	strdeq	r1, [r0], -r7
    21e8:	646e6514 	strbtvs	r6, [lr], #-1300	; 0x514
    21ec:	4fc50100 	svcmi	0x00c50100
    21f0:	18000000 	stmdane	r0, {}	; <UNPREDICTABLE>
    21f4:	16000013 			; <UNDEFINED> instruction: 0x16000013
    21f8:	00736572 	rsbseq	r6, r3, r2, ror r5
    21fc:	0025c601 	eoreq	ip, r5, r1, lsl #12
    2200:	13390000 	teqne	r9, #0
    2204:	08290000 	stmdaeq	r9!, {}	; <UNPREDICTABLE>
    2208:	2c000002 	stccs	0, cr0, [r0], {2}
    220c:	05000011 	streq	r0, [r0, #-17]
    2210:	00981403 	addseq	r1, r8, r3, lsl #8
    2214:	8d682500 	cfstr64hi	mvdx2, [r8, #-0]
    2218:	0b1e0000 	bleq	782220 <__bss_end__+0x778518>
    221c:	10da0000 	sbcsne	r0, sl, r0
    2220:	01200000 	teqeq	r0, r0
    2224:	01f30352 	mvnseq	r0, r2, asr r3
    2228:	51012052 	qaddpl	r2, r2, r1
    222c:	5101f303 	tstpl	r1, r3, lsl #6
    2230:	03500120 	cmpeq	r0, #32, 2
    2234:	205001f3 	ldrshcs	r0, [r0], #-19	; 0xffffffed
    2238:	02007d02 	andeq	r7, r0, #2, 26	; 0x80
    223c:	2400ff09 	strcs	pc, [r0], #-3849	; 0xf09
    2240:	00008d74 	andeq	r8, r0, r4, ror sp
    2244:	00001167 	andeq	r1, r0, r7, ror #2
    2248:	008d8825 	addeq	r8, sp, r5, lsr #16
    224c:	00116e00 	andseq	r6, r1, r0, lsl #28
    2250:	00111200 	andseq	r1, r1, r0, lsl #4
    2254:	53012000 	movwpl	r2, #4096	; 0x1000
    2258:	20c80802 	sbccs	r0, r8, r2, lsl #16
    225c:	03055201 	movweq	r5, #20993	; 0x5201
    2260:	00009814 	andeq	r9, r0, r4, lsl r8
    2264:	05510120 	ldrbeq	r0, [r1, #-288]	; 0x120
    2268:	00984803 	addseq	r4, r8, r3, lsl #16
    226c:	50012000 	andpl	r2, r1, r0
    2270:	98a00305 	stmials	r0!, {r0, r2, r8, r9}
    2274:	24000000 	strcs	r0, [r0], #-0
    2278:	00008d8c 	andeq	r8, r0, ip, lsl #27
    227c:	00001184 	andeq	r1, r0, r4, lsl #3
    2280:	00902a00 	addseq	r2, r0, r0, lsl #20
    2284:	112c0000 	teqne	ip, r0
    2288:	812b0000 	teqhi	fp, r0
    228c:	16000000 	strne	r0, [r0], -r0
    2290:	111c0700 	tstne	ip, r0, lsl #14
    2294:	57310000 	ldrpl	r0, [r1, -r0]!
    2298:	06000005 	streq	r0, [r0], -r5
    229c:	00114721 	andseq	r4, r1, r1, lsr #14
    22a0:	002c3200 	eoreq	r3, ip, r0, lsl #4
    22a4:	2c320000 	ldccs	0, cr0, [r2], #-0
    22a8:	00000000 	andeq	r0, r0, r0
    22ac:	00041d33 	andeq	r1, r4, r3, lsr sp
    22b0:	2c570700 	mrrccs	7, 0, r0, r7, cr0
    22b4:	34000000 	strcc	r0, [r0], #-0
    22b8:	00000513 	andeq	r0, r0, r3, lsl r5
    22bc:	00252406 	eoreq	r2, r5, r6, lsl #8
    22c0:	11670000 	cmnne	r7, r0
    22c4:	2c320000 	ldccs	0, cr0, [r2], #-0
    22c8:	00000000 	andeq	r0, r0, r0
    22cc:	00025935 	andeq	r5, r2, r5, lsr r9
    22d0:	341e0700 	ldrcc	r0, [lr], #-1792	; 0x700
    22d4:	0000016d 	andeq	r0, r0, sp, ror #2
    22d8:	00252907 	eoreq	r2, r5, r7, lsl #18
    22dc:	11840000 	orrne	r0, r4, r0
    22e0:	97320000 	ldrls	r0, [r2, -r0]!
    22e4:	2f000000 	svccs	0x00000000
    22e8:	01123500 	tsteq	r2, r0, lsl #10
    22ec:	66070000 	strvs	r0, [r7], -r0
    22f0:	00059531 	andeq	r9, r5, r1, lsr r5
    22f4:	9c1d0600 	ldcls	6, cr0, [sp], {-0}
    22f8:	32000011 	andcc	r0, r0, #17
    22fc:	0000002c 	andeq	r0, r0, ip, lsr #32
    2300:	056f3100 	strbeq	r3, [pc, #-256]!	; 2208 <_start-0x5df8>
    2304:	1c060000 	stcne	0, cr0, [r6], {-0}
    2308:	000011ad 	andeq	r1, r0, sp, lsr #3
    230c:	00002c32 	andeq	r2, r0, r2, lsr ip
    2310:	6a360000 	bvs	d82318 <__bss_end__+0xd78610>
    2314:	08000001 	stmdaeq	r0, {r0}
    2318:	00002502 	andeq	r2, r0, r2, lsl #10
    231c:	008a3200 	addeq	r3, sl, r0, lsl #4
    2320:	25320000 	ldrcs	r0, [r2, #-0]!
    2324:	32000000 	andcc	r0, r0, #0
    2328:	00000097 	muleq	r0, r7, r0
    232c:	00010632 	andeq	r0, r1, r2, lsr r6
    2330:	ff000000 			; <UNDEFINED> instruction: 0xff000000
    2334:	04000003 	streq	r0, [r0], #-3
    2338:	000b5400 	andeq	r5, fp, r0, lsl #8
    233c:	a3010400 	movwge	r0, #5120	; 0x1400
    2340:	01000000 	mrseq	r0, (UNDEF: 0)
    2344:	00000717 	andeq	r0, r0, r7, lsl r7
    2348:	0000017e 	andeq	r0, r0, lr, ror r1
    234c:	00008da0 	andeq	r8, r0, r0, lsr #27
    2350:	00000154 	andeq	r0, r0, r4, asr r1
    2354:	00000a53 	andeq	r0, r0, r3, asr sl
    2358:	69050402 	stmdbvs	r5, {r1, sl}
    235c:	0300746e 	movweq	r7, #1134	; 0x46e
    2360:	00960704 	addseq	r0, r6, r4, lsl #14
    2364:	01030000 	mrseq	r0, (UNDEF: 3)
    2368:	0000fc06 	andeq	pc, r0, r6, lsl #24
    236c:	05020300 	streq	r0, [r2, #-768]	; 0x300
    2370:	0000013a 	andeq	r0, r0, sl, lsr r1
    2374:	05050403 	streq	r0, [r5, #-1027]	; 0x403
    2378:	03000000 	movweq	r0, #0
    237c:	00000508 	andeq	r0, r0, r8, lsl #10
    2380:	01030000 	mrseq	r0, (UNDEF: 3)
    2384:	0000fa08 	andeq	pc, r0, r8, lsl #20
    2388:	07020300 	streq	r0, [r2, -r0, lsl #6]
    238c:	00000127 	andeq	r0, r0, r7, lsr #2
    2390:	91070403 	tstls	r7, r3, lsl #8
    2394:	03000000 	movweq	r0, #0
    2398:	008c0708 	addeq	r0, ip, r8, lsl #14
    239c:	04030000 	streq	r0, [r3], #-0
    23a0:	00014407 	andeq	r4, r1, r7, lsl #8
    23a4:	08010300 	stmdaeq	r1, {r8, r9}
    23a8:	00000103 	andeq	r0, r0, r3, lsl #2
    23ac:	0c020104 	stfeqs	f0, [r2], {4}
    23b0:	000000b2 	strheq	r0, [r0], -r2
    23b4:	00073405 	andeq	r3, r7, r5, lsl #8
    23b8:	28050000 	stmdacs	r5, {}	; <UNPREDICTABLE>
    23bc:	01000006 	tsteq	r0, r6
    23c0:	0005e105 	andeq	lr, r5, r5, lsl #2
    23c4:	39050400 	stmdbcc	r5, {sl}
    23c8:	05000006 	streq	r0, [r0, #-6]
    23cc:	00064805 	andeq	r4, r6, r5, lsl #16
    23d0:	57050600 	strpl	r0, [r5, -r0, lsl #12]
    23d4:	07000006 	streq	r0, [r0, -r6]
    23d8:	0006e705 	andeq	lr, r6, r5, lsl #14
    23dc:	66050300 	strvs	r0, [r5], -r0, lsl #6
    23e0:	02000006 	andeq	r0, r0, #6
    23e4:	06990600 	ldreq	r0, [r9], r0, lsl #12
    23e8:	15020000 	strne	r0, [r2, #-0]
    23ec:	00000079 	andeq	r0, r0, r9, ror r0
    23f0:	00010807 	andeq	r0, r1, r7, lsl #16
    23f4:	a0370100 	eorsge	r0, r7, r0, lsl #2
    23f8:	9c00008d 	stcls	0, cr0, [r0], {141}	; 0x8d
    23fc:	01000000 	mrseq	r0, (UNDEF: 0)
    2400:	0001c39c 	muleq	r1, ip, r3
    2404:	8da80800 	stchi	8, cr0, [r8]
    2408:	03a80000 			; <UNDEFINED> instruction: 0x03a80000
    240c:	b4090000 	strlt	r0, [r9], #-0
    2410:	af00008d 	svcge	0x0000008d
    2414:	f3000003 	vhadd.u8	d0, d0, d3
    2418:	0a000000 	beq	2420 <_start-0x5be0>
    241c:	32015101 	andcc	r5, r1, #1073741824	; 0x40000000
    2420:	0150010a 	cmpeq	r0, sl, lsl #2
    2424:	c009003e 	andgt	r0, r9, lr, lsr r0
    2428:	af00008d 	svcge	0x0000008d
    242c:	0b000003 	bleq	2440 <_start-0x5bc0>
    2430:	0a000001 	beq	243c <_start-0x5bc4>
    2434:	32015101 	andcc	r5, r1, #1073741824	; 0x40000000
    2438:	0150010a 	cmpeq	r0, sl, lsl #2
    243c:	c408003f 	strgt	r0, [r8], #-63	; 0x3f
    2440:	a800008d 	stmdage	r0, {r0, r2, r3, r7}
    2444:	09000003 	stmdbeq	r0, {r0, r1}
    2448:	00008dd4 	ldrdeq	r8, [r0], -r4
    244c:	000003c5 	andeq	r0, r0, r5, asr #7
    2450:	00000128 	andeq	r0, r0, r8, lsr #2
    2454:	0250010a 	subseq	r0, r0, #-2147483646	; 0x80000002
    2458:	09000075 	stmdbeq	r0, {r0, r2, r4, r5, r6}
    245c:	00008de0 	andeq	r8, r0, r0, ror #27
    2460:	000003e6 	andeq	r0, r0, r6, ror #7
    2464:	0000013c 	andeq	r0, r0, ip, lsr r1
    2468:	0250010a 	subseq	r0, r0, #-2147483646	; 0x80000002
    246c:	08000075 	stmdaeq	r0, {r0, r2, r4, r5, r6}
    2470:	00008de4 	andeq	r8, r0, r4, ror #27
    2474:	000003a8 	andeq	r0, r0, r8, lsr #7
    2478:	008df009 	addeq	pc, sp, r9
    247c:	0003e600 	andeq	lr, r3, r0, lsl #12
    2480:	00015800 	andeq	r5, r1, r0, lsl #16
    2484:	51010a00 	tstpl	r1, r0, lsl #20
    2488:	09003001 	stmdbeq	r0, {r0, ip, sp}
    248c:	00008dfc 	strdeq	r8, [r0], -ip
    2490:	000003e6 	andeq	r0, r0, r6, ror #7
    2494:	0000016b 	andeq	r0, r0, fp, ror #2
    2498:	0151010a 	cmpeq	r1, sl, lsl #2
    249c:	08090030 	stmdaeq	r9, {r4, r5}
    24a0:	e600008e 	str	r0, [r0], -lr, lsl #1
    24a4:	7e000003 	cdpvc	0, 0, cr0, cr0, cr3, {0}
    24a8:	0a000001 	beq	24b4 <_start-0x5b4c>
    24ac:	36015101 	strcc	r5, [r1], -r1, lsl #2
    24b0:	8e140900 	cdphi	9, 1, cr0, cr4, cr0, {0}
    24b4:	03e60000 	mvneq	r0, #0
    24b8:	01910000 	orrseq	r0, r1, r0
    24bc:	010a0000 	mrseq	r0, (UNDEF: 10)
    24c0:	00330151 	eorseq	r0, r3, r1, asr r1
    24c4:	008e2009 	addeq	r2, lr, r9
    24c8:	0003e600 	andeq	lr, r3, r0, lsl #12
    24cc:	0001a600 	andeq	sl, r1, r0, lsl #12
    24d0:	51010a00 	tstpl	r1, r0, lsl #20
    24d4:	010e0a03 	tsteq	lr, r3, lsl #20
    24d8:	8e2c0900 	cdphi	9, 2, cr0, cr12, cr0, {0}
    24dc:	03e60000 	mvneq	r0, #0
    24e0:	01b90000 			; <UNDEFINED> instruction: 0x01b90000
    24e4:	010a0000 	mrseq	r0, (UNDEF: 10)
    24e8:	00330151 	eorseq	r0, r3, r1, asr r1
    24ec:	008e3008 	addeq	r3, lr, r8
    24f0:	0003a800 	andeq	sl, r3, r0, lsl #16
    24f4:	f00b0000 			; <UNDEFINED> instruction: 0xf00b0000
    24f8:	01000005 	tsteq	r0, r5
    24fc:	00002557 	andeq	r2, r0, r7, asr r5
    2500:	008e3c00 	addeq	r3, lr, r0, lsl #24
    2504:	00001c00 	andeq	r1, r0, r0, lsl #24
    2508:	e69c0100 	ldr	r0, [ip], r0, lsl #2
    250c:	08000001 	stmdaeq	r0, {r0}
    2510:	00008e4c 	andeq	r8, r0, ip, asr #28
    2514:	000003c5 	andeq	r0, r0, r5, asr #7
    2518:	04c50b00 	strbeq	r0, [r5], #2816	; 0xb00
    251c:	5d010000 	stcpl	0, cr0, [r1, #-0]
    2520:	00000025 	andeq	r0, r0, r5, lsr #32
    2524:	00008e58 	andeq	r8, r0, r8, asr lr
    2528:	00000028 	andeq	r0, r0, r8, lsr #32
    252c:	02129c01 	andseq	r9, r2, #256	; 0x100
    2530:	60080000 	andvs	r0, r8, r0
    2534:	c300008e 	movwgt	r0, #142	; 0x8e
    2538:	08000001 	stmdaeq	r0, {r0}
    253c:	00008e74 	andeq	r8, r0, r4, ror lr
    2540:	000003c5 	andeq	r0, r0, r5, asr #7
    2544:	06a50b00 	strteq	r0, [r5], r0, lsl #22
    2548:	64010000 	strvs	r0, [r1], #-0
    254c:	00000025 	andeq	r0, r0, r5, lsr #32
    2550:	00008e80 	andeq	r8, r0, r0, lsl #29
    2554:	0000001c 	andeq	r0, r0, ip, lsl r0
    2558:	02359c01 	eorseq	r9, r5, #256	; 0x100
    255c:	90080000 	andls	r0, r8, r0
    2560:	c500008e 	strgt	r0, [r0, #-142]	; 0x8e
    2564:	00000003 	andeq	r0, r0, r3
    2568:	00033c07 	andeq	r3, r3, r7, lsl #24
    256c:	9c6a0100 	stflse	f0, [sl], #-0
    2570:	2c00008e 	stccs	0, cr0, [r0], {142}	; 0x8e
    2574:	01000000 	mrseq	r0, (UNDEF: 0)
    2578:	0002719c 	muleq	r2, ip, r1
    257c:	00630c00 	rsbeq	r0, r3, r0, lsl #24
    2580:	002c6a01 	eoreq	r6, ip, r1, lsl #20
    2584:	13570000 	cmpne	r7, #0
    2588:	a8080000 	stmdage	r8, {}	; <UNPREDICTABLE>
    258c:	1200008e 	andne	r0, r0, #142	; 0x8e
    2590:	0d000002 	stceq	0, cr0, [r0, #-8]
    2594:	00008ec0 	andeq	r8, r0, r0, asr #29
    2598:	000003e6 	andeq	r0, r0, r6, ror #7
    259c:	0251010a 	subseq	r0, r1, #-2147483646	; 0x80000002
    25a0:	00000074 	andeq	r0, r0, r4, ror r0
    25a4:	00060e0b 	andeq	r0, r6, fp, lsl #28
    25a8:	25740100 	ldrbcs	r0, [r4, #-256]!	; 0x100
    25ac:	c8000000 	stmdagt	r0, {}	; <UNPREDICTABLE>
    25b0:	0c00008e 	stceq	0, cr0, [r0], {142}	; 0x8e
    25b4:	01000000 	mrseq	r0, (UNDEF: 0)
    25b8:	0002949c 	muleq	r2, ip, r4
    25bc:	8ed00800 	cdphi	8, 13, cr0, cr0, cr0, {0}
    25c0:	01c30000 	biceq	r0, r3, r0
    25c4:	0b000000 	bleq	25cc <_start-0x5a34>
    25c8:	00000753 	andeq	r0, r0, r3, asr r7
    25cc:	00257801 	eoreq	r7, r5, r1, lsl #16
    25d0:	8ed40000 	cdphi	0, 13, cr0, cr4, cr0, {0}
    25d4:	00200000 	eoreq	r0, r0, r0
    25d8:	9c010000 	stcls	0, cr0, [r1], {-0}
    25dc:	000002c0 	andeq	r0, r0, r0, asr #5
    25e0:	008edc08 	addeq	sp, lr, r8, lsl #24
    25e4:	00027100 	andeq	r7, r2, r0, lsl #2
    25e8:	8ee80800 	cdphi	8, 14, cr0, cr8, cr0, {0}
    25ec:	01e60000 	mvneq	r0, r0
    25f0:	0e000000 	cdpeq	0, 0, cr0, cr0, cr0, {0}
    25f4:	000006bf 			; <UNDEFINED> instruction: 0x000006bf
    25f8:	02d11601 	sbcseq	r1, r1, #1048576	; 0x100000
    25fc:	03050000 	movweq	r0, #20480	; 0x5000
    2600:	000095f4 	strdeq	r9, [r0], -r4
    2604:	02d7040f 	sbcseq	r0, r7, #251658240	; 0xf000000
    2608:	2c100000 	ldccs	0, cr0, [r0], {-0}
    260c:	0e000000 	cdpeq	0, 0, cr0, cr0, cr0, {0}
    2610:	000006b3 			; <UNDEFINED> instruction: 0x000006b3
    2614:	02d11701 	sbcseq	r1, r1, #262144	; 0x40000
    2618:	03050000 	movweq	r0, #20480	; 0x5000
    261c:	000095c4 	andeq	r9, r0, r4, asr #11
    2620:	0005c40e 	andeq	ip, r5, lr, lsl #8
    2624:	d11a0100 	tstle	sl, r0, lsl #2
    2628:	05000002 	streq	r0, [r0, #-2]
    262c:	0095e003 	addseq	lr, r5, r3
    2630:	06750e00 	ldrbteq	r0, [r5], -r0, lsl #28
    2634:	1b010000 	blne	4263c <__bss_end__+0x38934>
    2638:	000002d1 	ldrdeq	r0, [r0], -r1
    263c:	95cc0305 	strbls	r0, [ip, #773]	; 0x305
    2640:	8a0e0000 	bhi	382648 <__bss_end__+0x378940>
    2644:	01000006 	tsteq	r0, r6
    2648:	0002d11c 	andeq	sp, r2, ip, lsl r1
    264c:	d0030500 	andle	r0, r3, r0, lsl #10
    2650:	0e000095 	mcreq	0, 0, r0, cr0, cr5, {4}
    2654:	00000725 	andeq	r0, r0, r5, lsr #14
    2658:	02d11d01 	sbcseq	r1, r1, #1, 26	; 0x40
    265c:	03050000 	movweq	r0, #20480	; 0x5000
    2660:	000095d4 	ldrdeq	r9, [r0], -r4
    2664:	0005b50e 	andeq	fp, r5, lr, lsl #10
    2668:	d11e0100 	tstle	lr, r0, lsl #2
    266c:	05000002 	streq	r0, [r0, #-2]
    2670:	0095f003 	addseq	pc, r5, r3
    2674:	07440e00 	strbeq	r0, [r4, -r0, lsl #28]
    2678:	1f010000 	svcne	0x00010000
    267c:	000002d1 	ldrdeq	r0, [r0], -r1
    2680:	95dc0305 	ldrbls	r0, [ip, #773]	; 0x305
    2684:	d20e0000 	andle	r0, lr, #0
    2688:	01000005 	tsteq	r0, r5
    268c:	0002d120 	andeq	sp, r2, r0, lsr #2
    2690:	ec030500 	cfstr32	mvfx0, [r3], {-0}
    2694:	0e000095 	mcreq	0, 0, r0, cr0, cr5, {4}
    2698:	00000708 	andeq	r0, r0, r8, lsl #14
    269c:	02d12101 	sbcseq	r2, r1, #1073741824	; 0x40000000
    26a0:	03050000 	movweq	r0, #20480	; 0x5000
    26a4:	000095e8 	andeq	r9, r0, r8, ror #11
    26a8:	0005fe0e 	andeq	pc, r5, lr, lsl #28
    26ac:	d1220100 	teqle	r2, r0, lsl #2
    26b0:	05000002 	streq	r0, [r0, #-2]
    26b4:	0095c803 	addseq	ip, r5, r3, lsl #16
    26b8:	06d70e00 	ldrbeq	r0, [r7], r0, lsl #28
    26bc:	23010000 	movwcs	r0, #4096	; 0x1000
    26c0:	000002d1 	ldrdeq	r0, [r0], -r1
    26c4:	95e40305 	strbls	r0, [r4, #773]!	; 0x305
    26c8:	c70e0000 	strgt	r0, [lr, -r0]
    26cc:	01000006 	tsteq	r0, r6
    26d0:	0002d124 	andeq	sp, r2, r4, lsr #2
    26d4:	d8030500 	stmdale	r3, {r8, sl}
    26d8:	11000095 	swpne	r0, r5, [r0]	; <UNPREDICTABLE>
    26dc:	0000061c 	andeq	r0, r0, ip, lsl r6
    26e0:	f6128703 			; <UNDEFINED> instruction: 0xf6128703
    26e4:	02000006 	andeq	r0, r0, #6
    26e8:	0003c519 	andeq	ip, r3, r9, lsl r5
    26ec:	002c1300 	eoreq	r1, ip, r0, lsl #6
    26f0:	b2130000 	andslt	r0, r3, #0
    26f4:	00000000 	andeq	r0, r0, r0
    26f8:	00076314 	andeq	r6, r7, r4, lsl r3
    26fc:	2ca60300 	stccs	3, cr0, [r6]
    2700:	da000000 	ble	2708 <_start-0x58f8>
    2704:	13000003 	movwne	r0, #3
    2708:	000003da 	ldrdeq	r0, [r0], -sl
    270c:	e0040f00 	and	r0, r4, r0, lsl #30
    2710:	15000003 	strne	r0, [r0, #-3]
    2714:	000003e5 	andeq	r0, r0, r5, ror #7
    2718:	06841216 	pkhbteq	r1, r4, r6, lsl #4
    271c:	9a030000 	bls	c2724 <__bss_end__+0xb8a1c>
    2720:	000003fc 	strdeq	r0, [r0], -ip
    2724:	0003fc13 	andeq	pc, r3, r3, lsl ip	; <UNPREDICTABLE>
    2728:	002c1300 	eoreq	r1, ip, r0, lsl #6
    272c:	0f000000 	svceq	0x00000000
    2730:	0003e504 	andeq	lr, r3, r4, lsl #10
    2734:	08cf0000 	stmiaeq	pc, {}^	; <UNPREDICTABLE>
    2738:	00040000 	andeq	r0, r4, r0
    273c:	00000c82 	andeq	r0, r0, r2, lsl #25
    2740:	00a30104 	adceq	r0, r3, r4, lsl #2
    2744:	b3010000 	movwlt	r0, #4096	; 0x1000
    2748:	7e000007 	cdpvc	0, 0, cr0, cr0, cr7, {0}
    274c:	58000001 	stmdapl	r0, {r0}
    2750:	bc00008f 	stclt	0, cr0, [r0], {143}	; 0x8f
    2754:	58000005 	stmdapl	r0, {r0, r2}
    2758:	0200000b 	andeq	r0, r0, #11
    275c:	008c0708 	addeq	r0, ip, r8, lsl #14
    2760:	04020000 	streq	r0, [r2], #-0
    2764:	00009607 	andeq	r9, r0, r7, lsl #12
    2768:	06010200 	streq	r0, [r1], -r0, lsl #4
    276c:	000000fc 	strdeq	r0, [r0], -ip
    2770:	3a050202 	bcc	142f80 <__bss_end__+0x139278>
    2774:	02000001 	andeq	r0, r0, #1
    2778:	00050504 	andeq	r0, r5, r4, lsl #10
    277c:	08020000 	stmdaeq	r2, {}	; <UNPREDICTABLE>
    2780:	00000005 	andeq	r0, r0, r5
    2784:	08010200 	stmdaeq	r1, {r9}
    2788:	000000fa 	strdeq	r0, [r0], -sl
    278c:	27070202 	strcs	r0, [r7, -r2, lsl #4]
    2790:	02000001 	andeq	r0, r0, #1
    2794:	00910704 	addseq	r0, r1, r4, lsl #14
    2798:	04030000 	streq	r0, [r3], #-0
    279c:	746e6905 	strbtvc	r6, [lr], #-2309	; 0x905
    27a0:	07040200 	streq	r0, [r4, -r0, lsl #4]
    27a4:	00000144 	andeq	r0, r0, r4, asr #2
    27a8:	03080102 	movweq	r0, #33026	; 0x8102
    27ac:	04000001 	streq	r0, [r0], #-1
    27b0:	b20c0201 	andlt	r0, ip, #268435456	; 0x10000000
    27b4:	05000000 	streq	r0, [r0, #-0]
    27b8:	00000734 	andeq	r0, r0, r4, lsr r7
    27bc:	06280500 	strteq	r0, [r8], -r0, lsl #10
    27c0:	05010000 	streq	r0, [r1, #-0]
    27c4:	000005e1 	andeq	r0, r0, r1, ror #11
    27c8:	06390504 	ldrteq	r0, [r9], -r4, lsl #10
    27cc:	05050000 	streq	r0, [r5, #-0]
    27d0:	00000648 	andeq	r0, r0, r8, asr #12
    27d4:	06570506 	ldrbeq	r0, [r7], -r6, lsl #10
    27d8:	05070000 	streq	r0, [r7, #-0]
    27dc:	000006e7 	andeq	r0, r0, r7, ror #13
    27e0:	06660503 	strbteq	r0, [r6], -r3, lsl #10
    27e4:	00020000 	andeq	r0, r2, r0
    27e8:	00069906 	andeq	r9, r6, r6, lsl #18
    27ec:	79150200 	ldmdbvc	r5, {r9}
    27f0:	07000000 	streq	r0, [r0, -r0]
    27f4:	00000595 	muleq	r0, r5, r5
    27f8:	8f583f01 	svchi	0x00583f01
    27fc:	00d40000 	sbcseq	r0, r4, r0
    2800:	9c010000 	stcls	0, cr0, [r1], {-0}
    2804:	00000133 	andeq	r0, r0, r3, lsr r1
    2808:	6e697008 	cdpvs	0, 6, cr7, cr9, cr8, {0}
    280c:	2c3f0100 	ldfcss	f0, [pc], #-0	; 2814 <_start-0x57ec>
    2810:	75000000 	strvc	r0, [r0, #-0]
    2814:	09000013 	stmdbeq	r0, {r0, r1, r4}
    2818:	000007ef 	andeq	r0, r0, pc, ror #15
    281c:	01334701 	teqeq	r3, r1, lsl #14
    2820:	13930000 	orrsne	r0, r3, #0
    2824:	d7090000 	strle	r0, [r9, -r0]
    2828:	01000008 	tsteq	r0, r8
    282c:	00002c49 	andeq	r2, r0, r9, asr #24
    2830:	0013e800 	andseq	lr, r3, r0, lsl #16
    2834:	08820900 	stmeq	r2, {r8, fp}
    2838:	57010000 	strpl	r0, [r1, -r0]
    283c:	0000002c 	andeq	r0, r0, ip, lsr #32
    2840:	000015b4 			; <UNDEFINED> instruction: 0x000015b4
    2844:	008fec0a 	addeq	lr, pc, sl, lsl #24
    2848:	00088e00 	andeq	r8, r8, r0, lsl #28
    284c:	00012200 	andeq	r2, r1, r0, lsl #4
    2850:	50010b00 	andpl	r0, r1, r0, lsl #22
    2854:	00007502 	andeq	r7, r0, r2, lsl #10
    2858:	0090200c 	addseq	r2, r0, ip
    285c:	0008af00 	andeq	sl, r8, r0, lsl #30
    2860:	50010b00 	andpl	r0, r1, r0, lsl #22
    2864:	00007502 	andeq	r7, r0, r2, lsl #10
    2868:	39040d00 	stmdbcc	r4, {r8, sl, fp}
    286c:	0e000001 	cdpeq	0, 0, cr0, cr0, cr1, {0}
    2870:	0000002c 	andeq	r0, r0, ip, lsr #32
    2874:	0008a70f 	andeq	sl, r8, pc, lsl #14
    2878:	03600100 	cmneq	r0, #0, 2
    287c:	0000016c 	andeq	r0, r0, ip, ror #2
    2880:	6e697010 	mcrvs	0, 3, r7, cr9, cr0, {0}
    2884:	2c600100 	stfcse	f0, [r0], #-0
    2888:	11000000 	mrsne	r0, (UNDEF: 0)
    288c:	000007ef 	andeq	r0, r0, pc, ror #15
    2890:	01336701 	teqeq	r3, r1, lsl #14
    2894:	82110000 	andshi	r0, r1, #0
    2898:	01000008 	tsteq	r0, r8
    289c:	00002c68 	andeq	r2, r0, r8, ror #24
    28a0:	3e120000 	cdpcc	0, 1, cr0, cr2, cr0, {0}
    28a4:	2c000001 	stccs	0, cr0, [r0], {1}
    28a8:	38000090 	stmdacc	r0, {r4, r7}
    28ac:	01000000 	mrseq	r0, (UNDEF: 0)
    28b0:	0001b09c 	muleq	r1, ip, r0
    28b4:	014a1300 	mrseq	r1, (UNDEF: 122)
    28b8:	15e40000 	strbne	r0, [r4, #0]!
    28bc:	55140000 	ldrpl	r0, [r4, #-0]
    28c0:	05000001 	streq	r0, [r0, #-1]
    28c4:	14000016 	strne	r0, [r0], #-22
    28c8:	00000160 	andeq	r0, r0, r0, ror #2
    28cc:	0000163b 	andeq	r1, r0, fp, lsr r6
    28d0:	00905c0c 	addseq	r5, r0, ip, lsl #24
    28d4:	0008af00 	andeq	sl, r8, r0, lsl #30
    28d8:	51010b00 	tstpl	r1, r0, lsl #22
    28dc:	01f33107 	mvnseq	r3, r7, lsl #2
    28e0:	241a4f50 	ldrcs	r4, [sl], #-3920	; 0xf50
    28e4:	a60f0000 	strge	r0, [pc], -r0
    28e8:	01000007 	tsteq	r0, r7
    28ec:	01de037b 	bicseq	r0, lr, fp, ror r3
    28f0:	70100000 	andsvc	r0, r0, r0
    28f4:	01006e69 	tsteq	r0, r9, ror #28
    28f8:	00002c7b 	andeq	r2, r0, fp, ror ip
    28fc:	07ef1100 	strbeq	r1, [pc, r0, lsl #2]!
    2900:	81010000 	mrshi	r0, (UNDEF: 1)
    2904:	00000133 	andeq	r0, r0, r3, lsr r1
    2908:	00088211 	andeq	r8, r8, r1, lsl r2
    290c:	2c820100 	stfcss	f0, [r2], {0}
    2910:	00000000 	andeq	r0, r0, r0
    2914:	0001b012 	andeq	fp, r1, r2, lsl r0
    2918:	00906400 	addseq	r6, r0, r0, lsl #8
    291c:	00003800 	andeq	r3, r0, r0, lsl #16
    2920:	229c0100 	addscs	r0, ip, #0, 2
    2924:	13000002 	movwne	r0, #2
    2928:	000001bc 			; <UNDEFINED> instruction: 0x000001bc
    292c:	0000167b 	andeq	r1, r0, fp, ror r6
    2930:	0001c714 	andeq	ip, r1, r4, lsl r7
    2934:	00169c00 	andseq	r9, r6, r0, lsl #24
    2938:	01d21400 	bicseq	r1, r2, r0, lsl #8
    293c:	16d20000 	ldrbne	r0, [r2], r0
    2940:	940c0000 	strls	r0, [ip], #-0
    2944:	af000090 	svcge	0x00000090
    2948:	0b000008 	bleq	2970 <_start-0x5690>
    294c:	31075101 	tstcc	r7, r1, lsl #2
    2950:	4f5001f3 	svcmi	0x005001f3
    2954:	0000241a 	andeq	r2, r0, sl, lsl r4
    2958:	00056f07 	andeq	r6, r5, r7, lsl #30
    295c:	9c950100 	ldflss	f0, [r5], {0}
    2960:	cc000090 	stcgt	0, cr0, [r0], {144}	; 0x90
    2964:	01000000 	mrseq	r0, (UNDEF: 0)
    2968:	0002989c 	muleq	r2, ip, r8
    296c:	69700800 	ldmdbvs	r0!, {fp}^
    2970:	9501006e 	strls	r0, [r1, #-110]	; 0x6e
    2974:	0000002c 	andeq	r0, r0, ip, lsr #32
    2978:	00001712 	andeq	r1, r0, r2, lsl r7
    297c:	0007ef09 	andeq	lr, r7, r9, lsl #30
    2980:	339b0100 	orrscc	r0, fp, #0, 2
    2984:	30000001 	andcc	r0, r0, r1
    2988:	09000017 	stmdbeq	r0, {r0, r1, r2, r4}
    298c:	000008d7 	ldrdeq	r0, [r0], -r7
    2990:	002c9d01 	eoreq	r9, ip, r1, lsl #26
    2994:	17850000 	strne	r0, [r5, r0]
    2998:	82090000 	andhi	r0, r9, #0
    299c:	01000008 	tsteq	r0, r8
    29a0:	00002cab 	andeq	r2, r0, fp, lsr #25
    29a4:	00195100 	andseq	r5, r9, r0, lsl #2
    29a8:	91300a00 	teqls	r0, r0, lsl #20
    29ac:	088e0000 	stmeq	lr, {}	; <UNPREDICTABLE>
    29b0:	02870000 	addeq	r0, r7, #0
    29b4:	010b0000 	mrseq	r0, (UNDEF: 11)
    29b8:	00750250 	rsbseq	r0, r5, r0, asr r2
    29bc:	915c0c00 	cmpls	ip, r0, lsl #24
    29c0:	08af0000 	stmiaeq	pc!, {}	; <UNPREDICTABLE>
    29c4:	010b0000 	mrseq	r0, (UNDEF: 11)
    29c8:	00750250 	rsbseq	r0, r5, r0, asr r2
    29cc:	13150000 	tstne	r5, #0
    29d0:	01000005 	tsteq	r0, r5
    29d4:	000064b3 			; <UNDEFINED> instruction: 0x000064b3
    29d8:	00916800 	addseq	r6, r1, r0, lsl #16
    29dc:	00004c00 	andeq	r4, r0, r0, lsl #24
    29e0:	e09c0100 	adds	r0, ip, r0, lsl #2
    29e4:	08000002 	stmdaeq	r0, {r1}
    29e8:	006e6970 	rsbeq	r6, lr, r0, ror r9
    29ec:	002cb301 	eoreq	fp, ip, r1, lsl #6
    29f0:	196f0000 	stmdbne	pc!, {}^	; <UNPREDICTABLE>
    29f4:	76160000 	ldrvc	r0, [r6], -r0
    29f8:	2cb90100 	ldfcss	f0, [r9]
    29fc:	c7000000 	strgt	r0, [r0, -r0]
    2a00:	17000019 	smladne	r0, r9, r0, r0
    2a04:	00009188 	andeq	r9, r0, r8, lsl #3
    2a08:	0000088e 	andeq	r0, r0, lr, lsl #17
    2a0c:	00919817 	addseq	r9, r1, r7, lsl r8
    2a10:	00088e00 	andeq	r8, r8, r0, lsl #28
    2a14:	57070000 	strpl	r0, [r7, -r0]
    2a18:	01000005 	tsteq	r0, r5
    2a1c:	0091b4c5 	addseq	fp, r1, r5, asr #9
    2a20:	00007800 	andeq	r7, r0, r0, lsl #16
    2a24:	aa9c0100 	bge	fe702e2c <__bss_end__+0xfe6f9124>
    2a28:	08000003 	stmdaeq	r0, {r0, r1}
    2a2c:	006e6970 	rsbeq	r6, lr, r0, ror r9
    2a30:	002cc501 	eoreq	ip, ip, r1, lsl #10
    2a34:	19fd0000 	ldmibne	sp!, {}^	; <UNPREDICTABLE>
    2a38:	76080000 	strvc	r0, [r8], -r0
    2a3c:	2cc50100 	stfcse	f0, [r5], {0}
    2a40:	37000000 	strcc	r0, [r0, -r0]
    2a44:	1800001a 	stmdane	r0, {r1, r3, r4}
    2a48:	0000013e 	andeq	r0, r0, lr, lsr r1
    2a4c:	000091c8 	andeq	r9, r0, r8, asr #3
    2a50:	00000030 	andeq	r0, r0, r0, lsr r0
    2a54:	035fcc01 	cmpeq	pc, #256	; 0x100
    2a58:	4a130000 	bmi	4c2a60 <__bss_end__+0x4b8d58>
    2a5c:	71000001 	tstvc	r0, r1
    2a60:	1900001a 	stmdbne	r0, {r1, r3, r4}
    2a64:	000091c8 	andeq	r9, r0, r8, asr #3
    2a68:	00000030 	andeq	r0, r0, r0, lsr r0
    2a6c:	00015514 	andeq	r5, r1, r4, lsl r5
    2a70:	001a9200 	andseq	r9, sl, r0, lsl #4
    2a74:	01601400 	cmneq	r0, r0, lsl #8
    2a78:	1ac80000 	bne	ff202a80 <__bss_end__+0xff1f8d78>
    2a7c:	f40c0000 	vst4.8	{d0-d3}, [ip], r0
    2a80:	af000091 	svcge	0x00000091
    2a84:	0b000008 	bleq	2aac <_start-0x5554>
    2a88:	31075101 	tstcc	r7, r1, lsl #2
    2a8c:	4f5001f3 	svcmi	0x005001f3
    2a90:	0000241a 	andeq	r2, r0, sl, lsl r4
    2a94:	01b01a00 	lslseq	r1, r0, #20
    2a98:	91f80000 	mvnsls	r0, r0
    2a9c:	00340000 	eorseq	r0, r4, r0
    2aa0:	ce010000 	cdpgt	0, 0, cr0, cr1, cr0, {0}
    2aa4:	0001bc13 	andeq	fp, r1, r3, lsl ip
    2aa8:	001b0800 	andseq	r0, fp, r0, lsl #16
    2aac:	91f81900 	mvnsls	r1, r0, lsl #18
    2ab0:	00340000 	eorseq	r0, r4, r0
    2ab4:	c7140000 	ldrgt	r0, [r4, -r0]
    2ab8:	29000001 	stmdbcs	r0, {r0}
    2abc:	1400001b 	strne	r0, [r0], #-27
    2ac0:	000001d2 	ldrdeq	r0, [r0], -r2
    2ac4:	00001b5f 	andeq	r1, r0, pc, asr fp
    2ac8:	0092240c 	addseq	r2, r2, ip, lsl #8
    2acc:	0008af00 	andeq	sl, r8, r0, lsl #30
    2ad0:	51010b00 	tstpl	r1, r0, lsl #22
    2ad4:	01f33107 	mvnseq	r3, r7, lsl #2
    2ad8:	241a4f50 	ldrcs	r4, [sl], #-3920	; 0xf50
    2adc:	00000000 	andeq	r0, r0, r0
    2ae0:	0006f607 	andeq	pc, r6, r7, lsl #12
    2ae4:	2cd10100 	ldfcse	f0, [r1], {0}
    2ae8:	d8000092 	stmdale	r0, {r1, r4, r7}
    2aec:	01000000 	mrseq	r0, (UNDEF: 0)
    2af0:	00042f9c 	muleq	r4, ip, pc	; <UNPREDICTABLE>
    2af4:	69700800 	ldmdbvs	r0!, {fp}^
    2af8:	d101006e 	tstle	r1, lr, rrx
    2afc:	0000002c 	andeq	r0, r0, ip, lsr #32
    2b00:	00001b9f 	muleq	r0, pc, fp	; <UNPREDICTABLE>
    2b04:	0008941b 	andeq	r9, r8, fp, lsl r4
    2b08:	b2d10100 	sbcslt	r0, r1, #0, 2
    2b0c:	bd000000 	stclt	0, cr0, [r0, #-0]
    2b10:	0900001b 	stmdbeq	r0, {r0, r1, r3, r4}
    2b14:	000007ef 	andeq	r0, r0, pc, ror #15
    2b18:	0133d901 	teqeq	r3, r1, lsl #18
    2b1c:	1bde0000 	blne	ff782b24 <__bss_end__+0xff778e1c>
    2b20:	d7090000 	strle	r0, [r9, -r0]
    2b24:	01000008 	tsteq	r0, r8
    2b28:	00002cda 	ldrdeq	r2, [r0], -sl
    2b2c:	001c3300 	andseq	r3, ip, r0, lsl #6
    2b30:	08820900 	stmeq	r2, {r8, fp}
    2b34:	e8010000 	stmda	r1, {}	; <UNPREDICTABLE>
    2b38:	0000002c 	andeq	r0, r0, ip, lsr #32
    2b3c:	00001dff 	strdeq	r1, [r0], -pc	; <UNPREDICTABLE>
    2b40:	0092c80a 	addseq	ip, r2, sl, lsl #16
    2b44:	00088e00 	andeq	r8, r8, r0, lsl #28
    2b48:	00041e00 	andeq	r1, r4, r0, lsl #28
    2b4c:	50010b00 	andpl	r0, r1, r0, lsl #22
    2b50:	00007602 	andeq	r7, r0, r2, lsl #12
    2b54:	0092f80c 	addseq	pc, r2, ip, lsl #16
    2b58:	0008af00 	andeq	sl, r8, r0, lsl #30
    2b5c:	50010b00 	andpl	r0, r1, r0, lsl #22
    2b60:	00007602 	andeq	r7, r0, r2, lsl #12
    2b64:	079a1c00 	ldreq	r1, [sl, r0, lsl #24]
    2b68:	05010000 	streq	r0, [r1, #-0]
    2b6c:	00006401 	andeq	r6, r0, r1, lsl #8
    2b70:	00930400 	addseq	r0, r3, r0, lsl #8
    2b74:	00002c00 	andeq	r2, r0, r0, lsl #24
    2b78:	639c0100 	orrsvs	r0, ip, #0, 2
    2b7c:	1d000004 	stcne	0, cr0, [r0, #-16]
    2b80:	0000079d 	muleq	r0, sp, r7
    2b84:	2c010501 	cfstr32cs	mvfx0, [r1], {1}
    2b88:	30000000 	andcc	r0, r0, r0
    2b8c:	1700001e 	smladne	r0, lr, r0, r0
    2b90:	00009314 	andeq	r9, r0, r4, lsl r3
    2b94:	0000088e 	andeq	r0, r0, lr, lsl #17
    2b98:	08321e00 	ldmdaeq	r2!, {r9, sl, fp, ip}
    2b9c:	14010000 	strne	r0, [r1], #-0
    2ba0:	00933001 	addseq	r3, r3, r1
    2ba4:	00008400 	andeq	r8, r0, r0, lsl #8
    2ba8:	279c0100 	ldrcs	r0, [ip, r0, lsl #2]
    2bac:	1f000005 	svcne	0x00000005
    2bb0:	006e6970 	rsbeq	r6, lr, r0, ror r9
    2bb4:	2c011401 	cfstrscs	mvf1, [r1], {1}
    2bb8:	51000000 	mrspl	r0, (UNDEF: 0)
    2bbc:	2000001e 	andcs	r0, r0, lr, lsl r0
    2bc0:	000007c1 	andeq	r0, r0, r1, asr #15
    2bc4:	2c012601 	stccs	6, cr2, [r1], {1}
    2bc8:	7d000000 	stcvc	0, cr0, [r0, #-0]
    2bcc:	2100001e 	tstcs	r0, lr, lsl r0
    2bd0:	0000934c 	andeq	r9, r0, ip, asr #6
    2bd4:	0000001c 	andeq	r0, r0, ip, lsl r0
    2bd8:	000004c9 	andeq	r0, r0, r9, asr #9
    2bdc:	00088220 	andeq	r8, r8, r0, lsr #4
    2be0:	011d0100 	tsteq	sp, r0, lsl #2
    2be4:	0000002c 	andeq	r0, r0, ip, lsr #32
    2be8:	00001e9b 	muleq	r0, fp, lr
    2bec:	00935817 	addseq	r5, r3, r7, lsl r8
    2bf0:	00088e00 	andeq	r8, r8, r0, lsl #28
    2bf4:	93681700 	cmnls	r8, #0, 14
    2bf8:	08af0000 	stmiaeq	pc!, {}	; <UNPREDICTABLE>
    2bfc:	21000000 	mrscs	r0, (UNDEF: 0)
    2c00:	0000936c 	andeq	r9, r0, ip, ror #6
    2c04:	00000020 	andeq	r0, r0, r0, lsr #32
    2c08:	000004f9 	strdeq	r0, [r0], -r9
    2c0c:	00088220 	andeq	r8, r8, r0, lsr #4
    2c10:	01210100 	teqeq	r1, r0, lsl #2
    2c14:	0000002c 	andeq	r0, r0, ip, lsr #32
    2c18:	00001eb9 			; <UNDEFINED> instruction: 0x00001eb9
    2c1c:	00937817 	addseq	r7, r3, r7, lsl r8
    2c20:	00088e00 	andeq	r8, r8, r0, lsl #28
    2c24:	938c1700 	orrls	r1, ip, #0, 14
    2c28:	08af0000 	stmiaeq	pc!, {}	; <UNPREDICTABLE>
    2c2c:	17000000 	strne	r0, [r0, -r0]
    2c30:	00009344 	andeq	r9, r0, r4, asr #6
    2c34:	000008cb 	andeq	r0, r0, fp, asr #17
    2c38:	00939017 	addseq	r9, r3, r7, lsl r0
    2c3c:	0008cb00 	andeq	ip, r8, r0, lsl #22
    2c40:	939c1700 	orrsls	r1, ip, #0, 14
    2c44:	088e0000 	stmeq	lr, {}	; <UNPREDICTABLE>
    2c48:	a8170000 	ldmdage	r7, {}	; <UNPREDICTABLE>
    2c4c:	af000093 	svcge	0x00000093
    2c50:	17000008 	strne	r0, [r0, -r8]
    2c54:	000093ac 	andeq	r9, r0, ip, lsr #7
    2c58:	000008cb 	andeq	r0, r0, fp, asr #17
    2c5c:	08c11e00 	stmiaeq	r1, {r9, sl, fp, ip}^
    2c60:	31010000 	mrscc	r0, (UNDEF: 1)
    2c64:	0093b401 	addseq	fp, r3, r1, lsl #8
    2c68:	00008400 	andeq	r8, r0, r0, lsl #8
    2c6c:	eb9c0100 	bl	fe703074 <__bss_end__+0xfe6f936c>
    2c70:	1f000005 	svcne	0x00000005
    2c74:	006e6970 	rsbeq	r6, lr, r0, ror r9
    2c78:	2c013101 	stfcss	f3, [r1], {1}
    2c7c:	d7000000 	strle	r0, [r0, -r0]
    2c80:	2000001e 	andcs	r0, r0, lr, lsl r0
    2c84:	000007c1 	andeq	r0, r0, r1, asr #15
    2c88:	2c014201 	sfmcs	f4, 4, [r1], {1}
    2c8c:	03000000 	movweq	r0, #0
    2c90:	2100001f 	tstcs	r0, pc, lsl r0
    2c94:	000093d0 	ldrdeq	r9, [r0], -r0
    2c98:	0000001c 	andeq	r0, r0, ip, lsl r0
    2c9c:	0000058d 	andeq	r0, r0, sp, lsl #11
    2ca0:	00088220 	andeq	r8, r8, r0, lsr #4
    2ca4:	01390100 	teqeq	r9, r0, lsl #2
    2ca8:	0000002c 	andeq	r0, r0, ip, lsr #32
    2cac:	00001f21 	andeq	r1, r0, r1, lsr #30
    2cb0:	0093dc17 	addseq	sp, r3, r7, lsl ip
    2cb4:	00088e00 	andeq	r8, r8, r0, lsl #28
    2cb8:	93ec1700 	mvnls	r1, #0, 14
    2cbc:	08af0000 	stmiaeq	pc!, {}	; <UNPREDICTABLE>
    2cc0:	21000000 	mrscs	r0, (UNDEF: 0)
    2cc4:	000093f0 	strdeq	r9, [r0], -r0
    2cc8:	00000020 	andeq	r0, r0, r0, lsr #32
    2ccc:	000005bd 			; <UNDEFINED> instruction: 0x000005bd
    2cd0:	00088220 	andeq	r8, r8, r0, lsr #4
    2cd4:	013d0100 	teqeq	sp, r0, lsl #2
    2cd8:	0000002c 	andeq	r0, r0, ip, lsr #32
    2cdc:	00001f3f 	andeq	r1, r0, pc, lsr pc
    2ce0:	0093fc17 	addseq	pc, r3, r7, lsl ip	; <UNPREDICTABLE>
    2ce4:	00088e00 	andeq	r8, r8, r0, lsl #28
    2ce8:	94101700 	ldrls	r1, [r0], #-1792	; 0x700
    2cec:	08af0000 	stmiaeq	pc!, {}	; <UNPREDICTABLE>
    2cf0:	17000000 	strne	r0, [r0, -r0]
    2cf4:	000093c8 	andeq	r9, r0, r8, asr #7
    2cf8:	000008cb 	andeq	r0, r0, fp, asr #17
    2cfc:	00941417 	addseq	r1, r4, r7, lsl r4
    2d00:	0008cb00 	andeq	ip, r8, r0, lsl #22
    2d04:	94201700 	strtls	r1, [r0], #-1792	; 0x700
    2d08:	088e0000 	stmeq	lr, {}	; <UNPREDICTABLE>
    2d0c:	2c170000 	ldccs	0, cr0, [r7], {-0}
    2d10:	af000094 	svcge	0x00000094
    2d14:	17000008 	strne	r0, [r0, -r8]
    2d18:	00009430 	andeq	r9, r0, r0, lsr r4
    2d1c:	000008cb 	andeq	r0, r0, fp, asr #17
    2d20:	07691c00 	strbeq	r1, [r9, -r0, lsl #24]!
    2d24:	4c010000 	stcmi	0, cr0, [r1], {-0}
    2d28:	00006401 	andeq	r6, r0, r1, lsl #8
    2d2c:	00943800 	addseq	r3, r4, r0, lsl #16
    2d30:	00008400 	andeq	r8, r0, r0, lsl #8
    2d34:	919c0100 	orrsls	r0, ip, r0, lsl #2
    2d38:	1f000006 	svcne	0x00000006
    2d3c:	006e6970 	rsbeq	r6, lr, r0, ror r9
    2d40:	2c014c01 	stccs	12, cr4, [r1], {1}
    2d44:	5d000000 	stcpl	0, cr0, [r0, #-0]
    2d48:	2100001f 	tstcs	r0, pc, lsl r0
    2d4c:	00009454 	andeq	r9, r0, r4, asr r4
    2d50:	00000024 	andeq	r0, r0, r4, lsr #32
    2d54:	00000645 	andeq	r0, r0, r5, asr #12
    2d58:	0007d820 	andeq	sp, r7, r0, lsr #16
    2d5c:	01530100 	cmpeq	r3, r0, lsl #2
    2d60:	0000002c 	andeq	r0, r0, ip, lsr #32
    2d64:	00001f9f 	muleq	r0, pc, pc	; <UNPREDICTABLE>
    2d68:	00946017 	addseq	r6, r4, r7, lsl r0
    2d6c:	00088e00 	andeq	r8, r8, r0, lsl #28
    2d70:	94701700 	ldrbtls	r1, [r0], #-1792	; 0x700
    2d74:	08cb0000 	stmiaeq	fp, {}^	; <UNPREDICTABLE>
    2d78:	21000000 	mrscs	r0, (UNDEF: 0)
    2d7c:	00009478 	andeq	r9, r0, r8, ror r4
    2d80:	0000002c 	andeq	r0, r0, ip, lsr #32
    2d84:	0000067e 	andeq	r0, r0, lr, ror r6
    2d88:	0007d820 	andeq	sp, r7, r0, lsr #16
    2d8c:	01560100 	cmpeq	r6, r0, lsl #2
    2d90:	0000002c 	andeq	r0, r0, ip, lsr #32
    2d94:	00001fb9 			; <UNDEFINED> instruction: 0x00001fb9
    2d98:	00948417 	addseq	r8, r4, r7, lsl r4
    2d9c:	00088e00 	andeq	r8, r8, r0, lsl #28
    2da0:	94901700 	ldrls	r1, [r0], #1792	; 0x700
    2da4:	08cb0000 	stmiaeq	fp, {}^	; <UNPREDICTABLE>
    2da8:	9c170000 	ldcls	0, cr0, [r7], {-0}
    2dac:	cb000094 	blgt	3004 <_start-0x4ffc>
    2db0:	00000008 	andeq	r0, r0, r8
    2db4:	00944c17 	addseq	r4, r4, r7, lsl ip
    2db8:	0008cb00 	andeq	ip, r8, r0, lsl #22
    2dbc:	94a81700 	strtls	r1, [r8], #1792	; 0x700
    2dc0:	08cb0000 	stmiaeq	fp, {}^	; <UNPREDICTABLE>
    2dc4:	1e000000 	cdpne	0, 0, cr0, cr0, cr0, {0}
    2dc8:	00000855 	andeq	r0, r0, r5, asr r8
    2dcc:	bc015f01 	stclt	15, cr5, [r1], {1}
    2dd0:	58000094 	stmdapl	r0, {r2, r4, r7}
    2dd4:	01000000 	mrseq	r0, (UNDEF: 0)
    2dd8:	0006f69c 	muleq	r6, ip, r6
    2ddc:	69701f00 	ldmdbvs	r0!, {r8, r9, sl, fp, ip}^
    2de0:	5f01006e 	svcpl	0x0001006e
    2de4:	00002c01 	andeq	r2, r0, r1, lsl #24
    2de8:	001fcc00 	andseq	ip, pc, r0, lsl #24
    2dec:	94d01700 	ldrbls	r1, [r0], #1792	; 0x700
    2df0:	08cb0000 	stmiaeq	fp, {}^	; <UNPREDICTABLE>
    2df4:	ec0a0000 	stc	0, cr0, [sl], {-0}
    2df8:	af000094 	svcge	0x00000094
    2dfc:	d6000008 	strle	r0, [r0], -r8
    2e00:	0b000006 	bleq	2e20 <_start-0x51e0>
    2e04:	31045101 	tstcc	r4, r1, lsl #2
    2e08:	00240074 	eoreq	r0, r4, r4, ror r0
    2e0c:	0095080a 	addseq	r0, r5, sl, lsl #16
    2e10:	0008af00 	andeq	sl, r8, r0, lsl #30
    2e14:	0006ec00 	andeq	lr, r6, r0, lsl #24
    2e18:	51010b00 	tstpl	r1, r0, lsl #22
    2e1c:	00743104 	rsbseq	r3, r4, r4, lsl #2
    2e20:	0c170024 	ldceq	0, cr0, [r7], {36}	; 0x24
    2e24:	cb000095 	blgt	3080 <_start-0x4f80>
    2e28:	00000008 	andeq	r0, r0, r8
    2e2c:	00082022 	andeq	r2, r8, r2, lsr #32
    2e30:	33280100 	teqcc	r8, #0, 2
    2e34:	05000001 	streq	r0, [r0, #-1]
    2e38:	00965403 	addseq	r5, r6, r3, lsl #8
    2e3c:	088a2200 	stmeq	sl, {r9, sp}
    2e40:	29010000 	stmdbcs	r1, {}	; <UNPREDICTABLE>
    2e44:	00000133 	andeq	r0, r0, r3, lsr r1
    2e48:	96500305 	ldrbls	r0, [r0], -r5, lsl #6
    2e4c:	e2220000 	eor	r0, r2, #0
    2e50:	01000008 	tsteq	r0, r8
    2e54:	0001332a 	andeq	r3, r1, sl, lsr #6
    2e58:	4c030500 	cfstr32mi	mvfx0, [r3], {-0}
    2e5c:	22000096 	andcs	r0, r0, #150	; 0x96
    2e60:	000007f8 	strdeq	r0, [r0], -r8
    2e64:	01332c01 	teqeq	r3, r1, lsl #24
    2e68:	03050000 	movweq	r0, #20480	; 0x5000
    2e6c:	000095f8 	strdeq	r9, [r0], -r8
    2e70:	00080022 	andeq	r0, r8, r2, lsr #32
    2e74:	332d0100 	teqcc	sp, #0, 2
    2e78:	05000001 	streq	r0, [r0, #-1]
    2e7c:	0095fc03 	addseq	pc, r5, r3, lsl #24
    2e80:	077d2200 	ldrbeq	r2, [sp, -r0, lsl #4]!
    2e84:	2e010000 	cdpcs	0, 0, cr0, cr1, cr0, {0}
    2e88:	00000133 	andeq	r0, r0, r3, lsr r1
    2e8c:	96000305 	strls	r0, [r0], -r5, lsl #6
    2e90:	08220000 	stmdaeq	r2!, {}	; <UNPREDICTABLE>
    2e94:	01000008 	tsteq	r0, r8
    2e98:	0001332f 	andeq	r3, r1, pc, lsr #6
    2e9c:	04030500 	streq	r0, [r3], #-1280	; 0x500
    2ea0:	22000096 	andcs	r0, r0, #150	; 0x96
    2ea4:	00000810 	andeq	r0, r0, r0, lsl r8
    2ea8:	01333001 	teqeq	r3, r1
    2eac:	03050000 	movweq	r0, #20480	; 0x5000
    2eb0:	00009608 	andeq	r9, r0, r8, lsl #12
    2eb4:	00081822 	andeq	r1, r8, r2, lsr #16
    2eb8:	33310100 	teqcc	r1, #0, 2
    2ebc:	05000001 	streq	r0, [r0, #-1]
    2ec0:	00960c03 	addseq	r0, r6, r3, lsl #24
    2ec4:	07ca2200 	strbeq	r2, [sl, r0, lsl #4]
    2ec8:	33010000 	movwcc	r0, #4096	; 0x1000
    2ecc:	00000133 	andeq	r0, r0, r3, lsr r1
    2ed0:	96100305 	ldrls	r0, [r0], -r5, lsl #6
    2ed4:	d1220000 	teqle	r2, r0
    2ed8:	01000007 	tsteq	r0, r7
    2edc:	00013334 	andeq	r3, r1, r4, lsr r3
    2ee0:	14030500 	strne	r0, [r3], #-1280	; 0x500
    2ee4:	22000096 	andcs	r0, r0, #150	; 0x96
    2ee8:	00000785 	andeq	r0, r0, r5, lsl #15
    2eec:	01333601 	teqeq	r3, r1, lsl #12
    2ef0:	03050000 	movweq	r0, #20480	; 0x5000
    2ef4:	00009618 	andeq	r9, r0, r8, lsl r6
    2ef8:	00082b22 	andeq	r2, r8, r2, lsr #22
    2efc:	33370100 	teqcc	r7, #0, 2
    2f00:	05000001 	streq	r0, [r0, #-1]
    2f04:	00961c03 	addseq	r1, r6, r3, lsl #24
    2f08:	07e12200 	strbeq	r2, [r1, r0, lsl #4]!
    2f0c:	39010000 	stmdbcc	r1, {}	; <UNPREDICTABLE>
    2f10:	00000133 	andeq	r0, r0, r3, lsr r1
    2f14:	96200305 	strtls	r0, [r0], -r5, lsl #6
    2f18:	e8220000 	stmda	r2!, {}	; <UNPREDICTABLE>
    2f1c:	01000007 	tsteq	r0, r7
    2f20:	0001333a 	andeq	r3, r1, sl, lsr r3
    2f24:	24030500 	strcs	r0, [r3], #-1280	; 0x500
    2f28:	22000096 	andcs	r0, r0, #150	; 0x96
    2f2c:	00000866 	andeq	r0, r0, r6, ror #16
    2f30:	0133f001 	teqeq	r3, r1
    2f34:	03050000 	movweq	r0, #20480	; 0x5000
    2f38:	00009648 	andeq	r9, r0, r8, asr #12
    2f3c:	00087422 	andeq	r7, r8, r2, lsr #8
    2f40:	33f10100 	mvnscc	r0, #0, 2
    2f44:	05000001 	streq	r0, [r0, #-1]
    2f48:	00962803 	addseq	r2, r6, r3, lsl #16
    2f4c:	08992200 	ldmeq	r9, {r9, sp}
    2f50:	f3010000 	vhadd.u8	d0, d1, d0
    2f54:	00000133 	andeq	r0, r0, r3, lsr r1
    2f58:	96400305 	strbls	r0, [r0], -r5, lsl #6
    2f5c:	a0220000 	eorge	r0, r2, r0
    2f60:	01000008 	tsteq	r0, r8
    2f64:	000133f4 	strdeq	r3, [r1], -r4
    2f68:	44030500 	strmi	r0, [r3], #-1280	; 0x500
    2f6c:	22000096 	andcs	r0, r0, #150	; 0x96
    2f70:	00000847 	andeq	r0, r0, r7, asr #16
    2f74:	0133f601 	teqeq	r3, r1, lsl #12
    2f78:	03050000 	movweq	r0, #20480	; 0x5000
    2f7c:	0000962c 	andeq	r9, r0, ip, lsr #12
    2f80:	00084e22 	andeq	r4, r8, r2, lsr #28
    2f84:	33f70100 	mvnscc	r0, #0, 2
    2f88:	05000001 	streq	r0, [r0, #-1]
    2f8c:	00963003 	addseq	r3, r6, r3
    2f90:	08b32200 	ldmeq	r3!, {r9, sp}
    2f94:	f9010000 			; <UNDEFINED> instruction: 0xf9010000
    2f98:	00000133 	andeq	r0, r0, r3, lsr r1
    2f9c:	96380305 	ldrtls	r0, [r8], -r5, lsl #6
    2fa0:	ba220000 	blt	882fa8 <__bss_end__+0x8792a0>
    2fa4:	01000008 	tsteq	r0, r8
    2fa8:	000133fa 	strdeq	r3, [r1], -sl
    2fac:	3c030500 	cfstr32cc	mvfx0, [r3], {-0}
    2fb0:	22000096 	andcs	r0, r0, #150	; 0x96
    2fb4:	0000078c 	andeq	r0, r0, ip, lsl #15
    2fb8:	0133fc01 	teqeq	r3, r1, lsl #24
    2fbc:	03050000 	movweq	r0, #20480	; 0x5000
    2fc0:	00009634 	andeq	r9, r0, r4, lsr r6
    2fc4:	00076323 	andeq	r6, r7, r3, lsr #6
    2fc8:	2c200100 	stfcss	f0, [r0], #-0
    2fcc:	a3000000 	movwge	r0, #0
    2fd0:	24000008 	strcs	r0, [r0], #-8
    2fd4:	000008a3 	andeq	r0, r0, r3, lsr #17
    2fd8:	a9040d00 	stmdbge	r4, {r8, sl, fp}
    2fdc:	25000008 	strcs	r0, [r0, #-8]
    2fe0:	000008ae 	andeq	r0, r0, lr, lsr #17
    2fe4:	06842726 	streq	r2, [r4], r6, lsr #14
    2fe8:	1e010000 	cdpne	0, 0, cr0, cr1, cr0, {0}
    2fec:	000008c5 	andeq	r0, r0, r5, asr #17
    2ff0:	0008c524 	andeq	ip, r8, r4, lsr #10
    2ff4:	002c2400 	eoreq	r2, ip, r0, lsl #8
    2ff8:	0d000000 	stceq	0, cr0, [r0, #-0]
    2ffc:	0008ae04 	andeq	sl, r8, r4, lsl #28
    3000:	061c2800 	ldreq	r2, [ip], -r0, lsl #16
    3004:	87030000 	strhi	r0, [r3, -r0]
    3008:	00011300 	andeq	r1, r1, r0, lsl #6
    300c:	c5000400 	strgt	r0, [r0, #-1024]	; 0x400
    3010:	0400000e 	streq	r0, [r0], #-14
    3014:	0000a301 	andeq	sl, r0, r1, lsl #6
    3018:	08fd0100 	ldmeq	sp!, {r8}^
    301c:	017e0000 	cmneq	lr, r0
    3020:	95140000 	ldrls	r0, [r4, #-0]
    3024:	003c0000 	eorseq	r0, ip, r0
    3028:	0ce40000 	stcleq	0, cr0, [r4]
    302c:	04020000 	streq	r0, [r2], #-0
    3030:	746e6905 	strbtvc	r6, [lr], #-2309	; 0x905
    3034:	07040300 	streq	r0, [r4, -r0, lsl #6]
    3038:	00000096 	muleq	r0, r6, r0
    303c:	fc060103 	stc2	1, cr0, [r6], {3}
    3040:	03000000 	movweq	r0, #0
    3044:	013a0502 	teqeq	sl, r2, lsl #10
    3048:	04030000 	streq	r0, [r3], #-0
    304c:	00000505 	andeq	r0, r0, r5, lsl #10
    3050:	05080300 	streq	r0, [r8, #-768]	; 0x300
    3054:	00000000 	andeq	r0, r0, r0
    3058:	fa080103 	blx	20346c <__bss_end__+0x1f9764>
    305c:	03000000 	movweq	r0, #0
    3060:	01270702 	teqeq	r7, r2, lsl #14
    3064:	04030000 	streq	r0, [r3], #-0
    3068:	00009107 	andeq	r9, r0, r7, lsl #2
    306c:	07080300 	streq	r0, [r8, -r0, lsl #6]
    3070:	0000008c 	andeq	r0, r0, ip, lsl #1
    3074:	44070403 	strmi	r0, [r7], #-1027	; 0x403
    3078:	03000001 	movweq	r0, #1
    307c:	01030801 	tsteq	r3, r1, lsl #16
    3080:	ec040000 	stc	0, cr0, [r4], {-0}
    3084:	01000008 	tsteq	r0, r8
    3088:	00002503 	andeq	r2, r0, r3, lsl #10
    308c:	00951400 	addseq	r1, r5, r0, lsl #8
    3090:	00001400 	andeq	r1, r0, r0, lsl #8
    3094:	b09c0100 	addslt	r0, ip, r0, lsl #2
    3098:	05000000 	streq	r0, [r0, #-0]
    309c:	03010063 	movweq	r0, #4195	; 0x1063
    30a0:	00000025 	andeq	r0, r0, r5, lsr #32
    30a4:	00001ff8 	strdeq	r1, [r0], -r8
    30a8:	00952006 	addseq	r2, r5, r6
    30ac:	00010900 	andeq	r0, r1, r0, lsl #18
    30b0:	50010700 	andpl	r0, r1, r0, lsl #14
    30b4:	00007402 	andeq	r7, r0, r2, lsl #8
    30b8:	02590800 	subseq	r0, r9, #0, 16
    30bc:	08010000 	stmdaeq	r1, {}	; <UNPREDICTABLE>
    30c0:	00009528 	andeq	r9, r0, r8, lsr #10
    30c4:	00000018 	andeq	r0, r0, r8, lsl r0
    30c8:	0c099c01 	stceq	12, cr9, [r9], {1}
    30cc:	01000009 	tsteq	r0, r9
    30d0:	0095400b 	addseq	r4, r5, fp
    30d4:	00001000 	andeq	r1, r0, r0
    30d8:	e39c0100 	orrs	r0, ip, #0, 2
    30dc:	0a000000 	beq	30e4 <_start-0x4f1c>
    30e0:	01007066 	tsteq	r0, r6, rrx
    30e4:	0000f20b 	andeq	pc, r0, fp, lsl #4
    30e8:	00500100 	subseq	r0, r0, r0, lsl #2
    30ec:	0000250b 	andeq	r2, r0, fp, lsl #10
    30f0:	0000f200 	andeq	pc, r0, r0, lsl #4
    30f4:	00250c00 	eoreq	r0, r5, r0, lsl #24
    30f8:	0d000000 	stceq	0, cr0, [r0, #-0]
    30fc:	0000e304 	andeq	lr, r0, r4, lsl #6
    3100:	01e60e00 	mvneq	r0, r0, lsl #28
    3104:	06010000 	streq	r0, [r1], -r0
    3108:	000000f2 	strdeq	r0, [r0], -r2
    310c:	96580305 	ldrbls	r0, [r8], -r5, lsl #6
    3110:	3c0f0000 	stccc	0, cr0, [pc], {-0}
    3114:	02000003 	andeq	r0, r0, #3
    3118:	002c0c3c 	eoreq	r0, ip, ip, lsr ip
    311c:	00000000 	andeq	r0, r0, r0
    3120:	000001c3 	andeq	r0, r0, r3, asr #3
    3124:	0fad0004 	svceq	0x00ad0004
    3128:	01040000 	mrseq	r0, (UNDEF: 4)
    312c:	000000a3 	andeq	r0, r0, r3, lsr #1
    3130:	00092e01 	andeq	r2, r9, r1, lsl #28
    3134:	00017e00 	andeq	r7, r1, r0, lsl #28
    3138:	00955000 	addseq	r5, r5, r0
    313c:	00005000 	andeq	r5, r0, r0
    3140:	000d7200 	andeq	r7, sp, r0, lsl #4
    3144:	05040200 	streq	r0, [r4, #-512]	; 0x200
    3148:	00746e69 	rsbseq	r6, r4, r9, ror #28
    314c:	00091903 	andeq	r1, r9, r3, lsl #18
    3150:	37d40200 	ldrbcc	r0, [r4, r0, lsl #4]
    3154:	04000000 	streq	r0, [r0], #-0
    3158:	00960704 	addseq	r0, r6, r4, lsl #14
    315c:	01040000 	mrseq	r0, (UNDEF: 4)
    3160:	0000fc06 	andeq	pc, r0, r6, lsl #24
    3164:	05020400 	streq	r0, [r2, #-1024]	; 0x400
    3168:	0000013a 	andeq	r0, r0, sl, lsr r1
    316c:	05050404 	streq	r0, [r5, #-1028]	; 0x404
    3170:	04000000 	streq	r0, [r0], #-0
    3174:	00000508 	andeq	r0, r0, r8, lsl #10
    3178:	46030000 	strmi	r0, [r3], -r0
    317c:	03000003 	movweq	r0, #3
    3180:	0000652e 	andeq	r6, r0, lr, lsr #10
    3184:	08010400 	stmdaeq	r1, {sl}
    3188:	000000fa 	strdeq	r0, [r0], -sl
    318c:	27070204 	strcs	r0, [r7, -r4, lsl #4]
    3190:	03000001 	movweq	r0, #1
    3194:	0000039d 	muleq	r0, sp, r3
    3198:	007e3403 	rsbseq	r3, lr, r3, lsl #8
    319c:	04040000 	streq	r0, [r4], #-0
    31a0:	00009107 	andeq	r9, r0, r7, lsl #2
    31a4:	07080400 	streq	r0, [r8, -r0, lsl #8]
    31a8:	0000008c 	andeq	r0, r0, ip, lsl #1
    31ac:	44070404 	strmi	r0, [r7], #-1028	; 0x404
    31b0:	05000001 	streq	r0, [r0, #-1]
    31b4:	08010404 	stmdaeq	r1, {r2, sl}
    31b8:	00000103 	andeq	r0, r0, r3, lsl #2
    31bc:	0e040c06 	cdpeq	12, 0, cr0, cr4, cr6, {0}
    31c0:	000000d3 	ldrdeq	r0, [r0], -r3
    31c4:	00787407 	rsbseq	r7, r8, r7, lsl #8
    31c8:	005a0f04 	subseq	r0, sl, r4, lsl #30
    31cc:	07000000 	streq	r0, [r0, -r0]
    31d0:	04007872 	streq	r7, [r0], #-2162	; 0x872
    31d4:	00005a0f 	andeq	r5, r0, pc, lsl #20
    31d8:	14080100 	strne	r0, [r8], #-256	; 0x100
    31dc:	04000003 	streq	r0, [r0], #-3
    31e0:	00007310 	andeq	r7, r0, r0, lsl r3
    31e4:	c5080400 	strgt	r0, [r8, #-1024]	; 0x400
    31e8:	04000002 	streq	r0, [r0], #-2
    31ec:	00007311 	andeq	r7, r0, r1, lsl r3
    31f0:	03000800 	movweq	r0, #2048	; 0x800
    31f4:	000002fd 	strdeq	r0, [r0], -sp
    31f8:	009c1204 	addseq	r1, ip, r4, lsl #4
    31fc:	01090000 	mrseq	r0, (UNDEF: 9)
    3200:	00f91005 	rscseq	r1, r9, r5
    3204:	190a0000 	stmdbne	sl, {}	; <UNPREDICTABLE>
    3208:	01000003 	tsteq	r0, r3
    320c:	0003070a 	andeq	r0, r3, sl, lsl #14
    3210:	ef0a0200 	svc	0x000a0200
    3214:	03000002 	movweq	r0, #2
    3218:	032e0300 	teqeq	lr, #0, 6
    321c:	10050000 	andne	r0, r5, r0
    3220:	000000de 	ldrdeq	r0, [r0], -lr
    3224:	14051406 	strne	r1, [r5], #-1030	; 0x406
    3228:	00000131 	andeq	r0, r0, r1, lsr r1
    322c:	0003a608 	andeq	sl, r3, r8, lsl #12
    3230:	37150500 	ldrcc	r0, [r5, -r0, lsl #10]
    3234:	00000000 	andeq	r0, r0, r0
    3238:	00039108 	andeq	r9, r3, r8, lsl #2
    323c:	f9180500 			; <UNDEFINED> instruction: 0xf9180500
    3240:	04000000 	streq	r0, [r0], #-0
    3244:	00035c08 	andeq	r5, r3, r8, lsl #24
    3248:	d31b0500 	tstle	fp, #0, 10
    324c:	08000000 	stmdaeq	r0, {}	; <UNPREDICTABLE>
    3250:	034e0300 	movteq	r0, #58112	; 0xe300
    3254:	20050000 	andcs	r0, r5, r0
    3258:	00000104 	andeq	r0, r0, r4, lsl #2
    325c:	0009270b 	andeq	r2, r9, fp, lsl #14
    3260:	7e050100 	adfvcs	f0, f5, f0
    3264:	50000001 	andpl	r0, r0, r1
    3268:	28000095 	stmdacs	r0, {r0, r2, r4, r7}
    326c:	01000000 	mrseq	r0, (UNDEF: 0)
    3270:	00017e9c 	muleq	r1, ip, lr
    3274:	00630c00 	rsbeq	r0, r3, r0, lsl #24
    3278:	017e0601 	cmneq	lr, r1, lsl #12
    327c:	00000000 	andeq	r0, r0, r0
    3280:	640d0900 	strvs	r0, [sp], #-2304	; 0x900
    3284:	ab000095 	blge	34e0 <_start-0x4b20>
    3288:	0e000001 	cdpeq	0, 0, cr0, cr0, cr1, {0}
    328c:	34015201 	strcc	r5, [r1], #-513	; 0x201
    3290:	0151010e 	cmpeq	r1, lr, lsl #2
    3294:	50010e30 	andpl	r0, r1, r0, lsr lr
    3298:	24474203 	strbcs	r4, [r7], #-515	; 0x203
    329c:	040f0000 	streq	r0, [pc], #-0	; 32a4 <_start-0x4d5c>
    32a0:	00000131 	andeq	r0, r0, r1, lsr r1
    32a4:	0003640b 	andeq	r6, r3, fp, lsl #8
    32a8:	7e0c0100 	adfvce	f0, f4, f0
    32ac:	78000001 	stmdavc	r0, {r0}
    32b0:	28000095 	stmdacs	r0, {r0, r2, r4, r7}
    32b4:	01000000 	mrseq	r0, (UNDEF: 0)
    32b8:	0001ab9c 	muleq	r1, ip, fp
    32bc:	00630c00 	rsbeq	r0, r3, r0, lsl #24
    32c0:	017e0d01 	cmneq	lr, r1, lsl #26
    32c4:	00000000 	andeq	r0, r0, r0
    32c8:	10000900 	andne	r0, r0, r0, lsl #18
    32cc:	00000920 	andeq	r0, r0, r0, lsr #18
    32d0:	00931b06 	addseq	r1, r3, r6, lsl #22
    32d4:	93110000 	tstls	r1, #0
    32d8:	11000000 	mrsne	r0, (UNDEF: 0)
    32dc:	00000025 	andeq	r0, r0, r5, lsr #32
    32e0:	00002c11 	andeq	r2, r0, r1, lsl ip
    32e4:	db000000 	blle	32ec <_start-0x4d14>
    32e8:	04000000 	streq	r0, [r0], #-0
    32ec:	00109100 	andseq	r9, r0, r0, lsl #2
    32f0:	a3010400 	movwge	r0, #5120	; 0x1400
    32f4:	01000000 	mrseq	r0, (UNDEF: 0)
    32f8:	00000949 	andeq	r0, r0, r9, asr #18
    32fc:	0000017e 	andeq	r0, r0, lr, ror r1
    3300:	000095a0 	andeq	r9, r0, r0, lsr #11
    3304:	00000020 	andeq	r0, r0, r0, lsr #32
    3308:	00000e9e 	muleq	r0, lr, lr
    330c:	fc060102 	stc2	1, cr0, [r6], {2}
    3310:	02000000 	andeq	r0, r0, #0
    3314:	00fa0801 	rscseq	r0, sl, r1, lsl #16
    3318:	02020000 	andeq	r0, r2, #0
    331c:	00013a05 	andeq	r3, r1, r5, lsl #20
    3320:	07020200 	streq	r0, [r2, -r0, lsl #4]
    3324:	00000127 	andeq	r0, r0, r7, lsr #2
    3328:	69050403 	stmdbvs	r5, {r0, r1, sl}
    332c:	0200746e 	andeq	r7, r0, #1845493760	; 0x6e000000
    3330:	00960704 	addseq	r0, r6, r4, lsl #14
    3334:	08020000 	stmdaeq	r2, {}	; <UNPREDICTABLE>
    3338:	00000005 	andeq	r0, r0, r5
    333c:	07080200 	streq	r0, [r8, -r0, lsl #4]
    3340:	0000008c 	andeq	r0, r0, ip, lsl #1
    3344:	05050402 	streq	r0, [r5, #-1026]	; 0x402
    3348:	02000000 	andeq	r0, r0, #0
    334c:	01440704 	cmpeq	r4, r4, lsl #14
    3350:	04040000 	streq	r0, [r4], #-0
    3354:	91070402 	tstls	r7, r2, lsl #8
    3358:	05000000 	streq	r0, [r0, #-0]
    335c:	00007a04 	andeq	r7, r0, r4, lsl #20
    3360:	08010200 	stmdaeq	r1, {r9}
    3364:	00000103 	andeq	r0, r0, r3, lsl #2
    3368:	00091906 	andeq	r1, r9, r6, lsl #18
    336c:	48d40200 	ldmmi	r4, {r9}^
    3370:	07000000 	streq	r0, [r0, -r0]
    3374:	00000920 	andeq	r0, r0, r0, lsr #18
    3378:	006b1b03 	rsbeq	r1, fp, r3, lsl #22
    337c:	95a00000 	strls	r0, [r0, #0]!
    3380:	00200000 	eoreq	r0, r0, r0
    3384:	9c010000 	stcls	0, cr0, [r1], {-0}
    3388:	00705f08 	rsbseq	r5, r0, r8, lsl #30
    338c:	006b0301 	rsbeq	r0, fp, r1, lsl #6
    3390:	50010000 	andpl	r0, r1, r0
    3394:	01006308 	tsteq	r0, r8, lsl #6
    3398:	00004103 	andeq	r4, r0, r3, lsl #2
    339c:	09510100 	ldmdbeq	r1, {r8}^
    33a0:	0301006e 	movweq	r0, #4206	; 0x106e
    33a4:	00000081 	andeq	r0, r0, r1, lsl #1
    33a8:	00002016 	andeq	r2, r0, r6, lsl r0
    33ac:	0100700a 	tsteq	r0, sl
    33b0:	00007404 	andeq	r7, r0, r4, lsl #8
    33b4:	00203700 	eoreq	r3, r0, r0, lsl #14
    33b8:	00650b00 	rsbeq	r0, r5, r0, lsl #22
    33bc:	00740401 	rsbseq	r0, r4, r1, lsl #8
    33c0:	52010000 	andpl	r0, r1, #0
	...

Disassembly of section .debug_abbrev:

00000000 <.debug_abbrev>:
       0:	25011101 	strcs	r1, [r1, #-257]	; 0x101
       4:	030b130e 	movweq	r1, #45838	; 0xb30e
       8:	110e1b0e 	tstne	lr, lr, lsl #22
       c:	10061201 	andne	r1, r6, r1, lsl #4
      10:	02000017 	andeq	r0, r0, #23
      14:	0b0b0024 	bleq	2c00ac <__bss_end__+0x2b63a4>
      18:	08030b3e 	stmdaeq	r3, {r1, r2, r3, r4, r5, r8, r9, fp}
      1c:	24030000 	strcs	r0, [r3], #-0
      20:	3e0b0b00 	vmlacc.f64	d0, d11, d0
      24:	000e030b 	andeq	r0, lr, fp, lsl #6
      28:	000f0400 	andeq	r0, pc, r0, lsl #8
      2c:	13490b0b 	movtne	r0, #39691	; 0x9b0b
      30:	26050000 	strcs	r0, [r5], -r0
      34:	00134900 	andseq	r4, r3, r0, lsl #18
      38:	012e0600 	teqeq	lr, r0, lsl #12
      3c:	0e03193f 	mcreq	9, 0, r1, cr3, cr15, {1}
      40:	0b3b0b3a 	bleq	ec2d30 <__bss_end__+0xeb9028>
      44:	01111927 	tsteq	r1, r7, lsr #18
      48:	18400612 	stmdane	r0, {r1, r4, r9, sl}^
      4c:	01194297 			; <UNDEFINED> instruction: 0x01194297
      50:	07000013 	smladeq	r0, r3, r0, r0
      54:	00018289 	andeq	r8, r1, r9, lsl #5
      58:	13310111 	teqne	r1, #1073741828	; 0x40000004
      5c:	89080000 	stmdbhi	r8, {}	; <UNPREDICTABLE>
      60:	11010182 	smlabbne	r1, r2, r1, r0
      64:	01133101 	tsteq	r3, r1, lsl #2
      68:	09000013 	stmdbeq	r0, {r0, r1, r4}
      6c:	0001828a 	andeq	r8, r1, sl, lsl #5
      70:	42911802 	addsmi	r1, r1, #131072	; 0x20000
      74:	0a000018 	beq	dc <_start-0x7f24>
      78:	193f002e 	ldmdbne	pc!, {r1, r2, r3, r5}	; <UNPREDICTABLE>
      7c:	0b3a0e03 	bleq	e83890 <__bss_end__+0xe79b88>
      80:	19270b3b 	stmdbne	r7!, {r0, r1, r3, r4, r5, r8, r9, fp}
      84:	0000193c 	andeq	r1, r0, ip, lsr r9
      88:	3f012e0b 	svccc	0x00012e0b
      8c:	3a0e0319 	bcc	380cf8 <__bss_end__+0x376ff0>
      90:	270b3b0b 	strcs	r3, [fp, -fp, lsl #22]
      94:	3c134919 	ldccc	9, cr4, [r3], {25}
      98:	00130119 	andseq	r0, r3, r9, lsl r1
      9c:	00050c00 	andeq	r0, r5, r0, lsl #24
      a0:	00001349 	andeq	r1, r0, r9, asr #6
      a4:	0000180d 	andeq	r1, r0, sp, lsl #16
      a8:	11010000 	mrsne	r0, (UNDEF: 1)
      ac:	130e2501 	movwne	r2, #58625	; 0xe501
      b0:	1b0e030b 	blne	380ce4 <__bss_end__+0x376fdc>
      b4:	1201110e 	andne	r1, r1, #-2147483645	; 0x80000003
      b8:	00171006 	andseq	r1, r7, r6
      bc:	00160200 	andseq	r0, r6, r0, lsl #4
      c0:	0b3a0e03 	bleq	e838d4 <__bss_end__+0xe79bcc>
      c4:	13490b3b 	movtne	r0, #39739	; 0x9b3b
      c8:	13030000 	movwne	r0, #12288	; 0x3000
      cc:	0b0e0301 	bleq	380cd8 <__bss_end__+0x376fd0>
      d0:	3b0b3a0b 	blcc	2ce904 <__bss_end__+0x2c4bfc>
      d4:	0013010b 	andseq	r0, r3, fp, lsl #2
      d8:	000d0400 	andeq	r0, sp, r0, lsl #8
      dc:	13490e03 	movtne	r0, #40451	; 0x9e03
      e0:	19340b38 	ldmdbne	r4!, {r3, r4, r5, r8, r9, fp}
      e4:	0f050000 	svceq	0x00050000
      e8:	000b0b00 	andeq	r0, fp, r0, lsl #22
      ec:	00240600 	eoreq	r0, r4, r0, lsl #12
      f0:	0b3e0b0b 	bleq	f82d24 <__bss_end__+0xf7901c>
      f4:	00000803 	andeq	r0, r0, r3, lsl #16
      f8:	0b002407 	bleq	911c <gpio_set_input+0x80>
      fc:	030b3e0b 	movweq	r3, #48651	; 0xbe0b
     100:	0800000e 	stmdaeq	r0, {r1, r2, r3}
     104:	0b0b000f 	bleq	2c0148 <__bss_end__+0x2b6440>
     108:	00001349 	andeq	r1, r0, r9, asr #6
     10c:	49002609 	stmdbmi	r0, {r0, r3, r9, sl, sp}
     110:	0a000013 	beq	164 <_start-0x7e9c>
     114:	193f012e 	ldmdbne	pc!, {r1, r2, r3, r5, r8}	; <UNPREDICTABLE>
     118:	0b3a0e03 	bleq	e8392c <__bss_end__+0xe79c24>
     11c:	19270b3b 	stmdbne	r7!, {r0, r1, r3, r4, r5, r8, r9, fp}
     120:	01111349 	tsteq	r1, r9, asr #6
     124:	18400612 	stmdane	r0, {r1, r4, r9, sl}^
     128:	01194297 			; <UNDEFINED> instruction: 0x01194297
     12c:	0b000013 	bleq	180 <_start-0x7e80>
     130:	08030005 	stmdaeq	r3, {r0, r2}
     134:	0b3b0b3a 	bleq	ec2e24 <__bss_end__+0xeb911c>
     138:	18021349 	stmdane	r2, {r0, r3, r6, r8, r9, ip}
     13c:	180c0000 	stmdane	ip, {}	; <UNPREDICTABLE>
     140:	0d000000 	stceq	0, cr0, [r0, #-0]
     144:	08030034 	stmdaeq	r3, {r2, r4, r5}
     148:	0b3b0b3a 	bleq	ec2e38 <__bss_end__+0xeb9130>
     14c:	18021349 	stmdane	r2, {r0, r3, r6, r8, r9, ip}
     150:	340e0000 	strcc	r0, [lr], #-0
     154:	3a0e0300 	bcc	380d5c <__bss_end__+0x377054>
     158:	490b3b0b 	stmdbmi	fp, {r0, r1, r3, r8, r9, fp, ip, sp}
     15c:	00180213 	andseq	r0, r8, r3, lsl r2
     160:	00340f00 	eorseq	r0, r4, r0, lsl #30
     164:	0b3a0803 	bleq	e82178 <__bss_end__+0xe78470>
     168:	13490b3b 	movtne	r0, #39739	; 0x9b3b
     16c:	00001702 	andeq	r1, r0, r2, lsl #14
     170:	01828910 	orreq	r8, r2, r0, lsl r9
     174:	31011101 	tstcc	r1, r1, lsl #2
     178:	00130113 	andseq	r0, r3, r3, lsl r1
     17c:	828a1100 	addhi	r1, sl, #0, 2
     180:	18020001 	stmdane	r2, {r0}
     184:	00184291 	mulseq	r8, r1, r2
     188:	82891200 	addhi	r1, r9, #0, 4
     18c:	01110101 	tsteq	r1, r1, lsl #2
     190:	01130000 	tsteq	r3, r0
     194:	01134901 	tsteq	r3, r1, lsl #18
     198:	14000013 	strne	r0, [r0], #-19
     19c:	13490021 	movtne	r0, #36897	; 0x9021
     1a0:	0000052f 	andeq	r0, r0, pc, lsr #10
     1a4:	27011515 	smladcs	r1, r5, r5, r1
     1a8:	01134919 	tsteq	r3, r9, lsl r9
     1ac:	16000013 			; <UNDEFINED> instruction: 0x16000013
     1b0:	13490005 	movtne	r0, #36869	; 0x9005
     1b4:	34170000 	ldrcc	r0, [r7], #-0
     1b8:	3a0e0300 	bcc	380dc0 <__bss_end__+0x3770b8>
     1bc:	490b3b0b 	stmdbmi	fp, {r0, r1, r3, r8, r9, fp, ip, sp}
     1c0:	3c193f13 	ldccc	15, cr3, [r9], {19}
     1c4:	18000019 	stmdane	r0, {r0, r3, r4}
     1c8:	193f012e 	ldmdbne	pc!, {r1, r2, r3, r5, r8}	; <UNPREDICTABLE>
     1cc:	0b3a0e03 	bleq	e839e0 <__bss_end__+0xe79cd8>
     1d0:	19270b3b 	stmdbne	r7!, {r0, r1, r3, r4, r5, r8, r9, fp}
     1d4:	193c1349 	ldmdbne	ip!, {r0, r3, r6, r8, r9, ip}
     1d8:	01000000 	mrseq	r0, (UNDEF: 0)
     1dc:	0e250111 	mcreq	1, 1, r0, cr5, cr1, {0}
     1e0:	0e030b13 	vmoveq.32	d3[0], r0
     1e4:	01110e1b 	tsteq	r1, fp, lsl lr
     1e8:	17100612 			; <UNDEFINED> instruction: 0x17100612
     1ec:	24020000 	strcs	r0, [r2], #-0
     1f0:	3e0b0b00 	vmlacc.f64	d0, d11, d0
     1f4:	0008030b 	andeq	r0, r8, fp, lsl #6
     1f8:	00240300 	eoreq	r0, r4, r0, lsl #6
     1fc:	0b3e0b0b 	bleq	f82e30 <__bss_end__+0xf79128>
     200:	00000e03 	andeq	r0, r0, r3, lsl #28
     204:	0b000f04 	bleq	3e1c <_start-0x41e4>
     208:	0013490b 	andseq	r4, r3, fp, lsl #18
     20c:	00260500 	eoreq	r0, r6, r0, lsl #10
     210:	00001349 	andeq	r1, r0, r9, asr #6
     214:	3f012e06 	svccc	0x00012e06
     218:	3a0e0319 	bcc	380e84 <__bss_end__+0x37717c>
     21c:	270b3b0b 	strcs	r3, [fp, -fp, lsl #22]
     220:	11134919 	tstne	r3, r9, lsl r9
     224:	40061201 	andmi	r1, r6, r1, lsl #4
     228:	19429618 	stmdbne	r2, {r3, r4, r9, sl, ip, pc}^
     22c:	00001301 	andeq	r1, r0, r1, lsl #6
     230:	03000507 	movweq	r0, #1287	; 0x507
     234:	3b0b3a08 	blcc	2cea5c <__bss_end__+0x2c4d54>
     238:	0213490b 	andseq	r4, r3, #180224	; 0x2c000
     23c:	08000017 	stmdaeq	r0, {r0, r1, r2, r4}
     240:	19270115 	stmdbne	r7!, {r0, r2, r4, r8}
     244:	13011349 	movwne	r1, #4937	; 0x1349
     248:	05090000 	streq	r0, [r9, #-0]
     24c:	00134900 	andseq	r4, r3, r0, lsl #18
     250:	00340a00 	eorseq	r0, r4, r0, lsl #20
     254:	0b3a0e03 	bleq	e83a68 <__bss_end__+0xe79d60>
     258:	13490b3b 	movtne	r0, #39739	; 0x9b3b
     25c:	193c193f 	ldmdbne	ip!, {r0, r1, r2, r3, r4, r5, r8, fp, ip}
     260:	340b0000 	strcc	r0, [fp], #-0
     264:	3a0e0300 	bcc	380e6c <__bss_end__+0x377164>
     268:	490b3b0b 	stmdbmi	fp, {r0, r1, r3, r8, r9, fp, ip, sp}
     26c:	02193f13 	andseq	r3, r9, #19, 30	; 0x4c
     270:	00000018 	andeq	r0, r0, r8, lsl r0
     274:	25011101 	strcs	r1, [r1, #-257]	; 0x101
     278:	030b130e 	movweq	r1, #45838	; 0xb30e
     27c:	110e1b0e 	tstne	lr, lr, lsl #22
     280:	10061201 	andne	r1, r6, r1, lsl #4
     284:	02000017 	andeq	r0, r0, #23
     288:	0b0b0024 	bleq	2c0320 <__bss_end__+0x2b6618>
     28c:	08030b3e 	stmdaeq	r3, {r1, r2, r3, r4, r5, r8, r9, fp}
     290:	24030000 	strcs	r0, [r3], #-0
     294:	3e0b0b00 	vmlacc.f64	d0, d11, d0
     298:	000e030b 	andeq	r0, lr, fp, lsl #6
     29c:	000f0400 	andeq	r0, pc, r0, lsl #8
     2a0:	00000b0b 	andeq	r0, r0, fp, lsl #22
     2a4:	0b000f05 	bleq	3ec0 <_start-0x4140>
     2a8:	0013490b 	andseq	r4, r3, fp, lsl #18
     2ac:	00260600 	eoreq	r0, r6, r0, lsl #12
     2b0:	00001349 	andeq	r1, r0, r9, asr #6
     2b4:	03001607 	movweq	r1, #1543	; 0x607
     2b8:	3b0b3a0e 	blcc	2ceaf8 <__bss_end__+0x2c4df0>
     2bc:	0013490b 	andseq	r4, r3, fp, lsl #18
     2c0:	01130800 	tsteq	r3, r0, lsl #16
     2c4:	0b0b0e03 	bleq	2c3ad8 <__bss_end__+0x2b9dd0>
     2c8:	0b3b0b3a 	bleq	ec2fb8 <__bss_end__+0xeb92b0>
     2cc:	00001301 	andeq	r1, r0, r1, lsl #6
     2d0:	03000d09 	movweq	r0, #3337	; 0xd09
     2d4:	3813490e 	ldmdacc	r3, {r1, r2, r3, r8, fp, lr}
     2d8:	0019340b 	andseq	r3, r9, fp, lsl #8
     2dc:	012e0a00 	teqeq	lr, r0, lsl #20
     2e0:	0b3a0e03 	bleq	e83af4 <__bss_end__+0xe79dec>
     2e4:	19270b3b 	stmdbne	r7!, {r0, r1, r3, r4, r5, r8, r9, fp}
     2e8:	01111349 	tsteq	r1, r9, asr #6
     2ec:	18400612 	stmdane	r0, {r1, r4, r9, sl}^
     2f0:	01194297 			; <UNDEFINED> instruction: 0x01194297
     2f4:	0b000013 	bleq	348 <_start-0x7cb8>
     2f8:	08030005 	stmdaeq	r3, {r0, r2}
     2fc:	0b3b0b3a 	bleq	ec2fec <__bss_end__+0xeb92e4>
     300:	17021349 	strne	r1, [r2, -r9, asr #6]
     304:	2e0c0000 	cdpcs	0, 0, cr0, cr12, cr0, {0}
     308:	3a080301 	bcc	200f14 <__bss_end__+0x1f720c>
     30c:	270b3b0b 	strcs	r3, [fp, -fp, lsl #22]
     310:	11134919 	tstne	r3, r9, lsl r9
     314:	40061201 	andmi	r1, r6, r1, lsl #4
     318:	19429718 	stmdbne	r2, {r3, r4, r8, r9, sl, ip, pc}^
     31c:	00001301 	andeq	r1, r0, r1, lsl #6
     320:	0300050d 	movweq	r0, #1293	; 0x50d
     324:	3b0b3a0e 	blcc	2ceb64 <__bss_end__+0x2c4e5c>
     328:	0213490b 	andseq	r4, r3, #180224	; 0x2c000
     32c:	0e000017 	mcreq	0, 0, r0, cr0, cr7, {0}
     330:	0e030005 	cdpeq	0, 0, cr0, cr3, cr5, {0}
     334:	0b3b0b3a 	bleq	ec3024 <__bss_end__+0xeb931c>
     338:	18021349 	stmdane	r2, {r0, r3, r6, r8, r9, ip}
     33c:	340f0000 	strcc	r0, [pc], #-0	; 344 <_start-0x7cbc>
     340:	3a080300 	bcc	200f48 <__bss_end__+0x1f7240>
     344:	490b3b0b 	stmdbmi	fp, {r0, r1, r3, r8, r9, fp, ip, sp}
     348:	00180213 	andseq	r0, r8, r3, lsl r2
     34c:	00341000 	eorseq	r1, r4, r0
     350:	0b3a0803 	bleq	e82364 <__bss_end__+0xe7865c>
     354:	13490b3b 	movtne	r0, #39739	; 0x9b3b
     358:	00001702 	andeq	r1, r0, r2, lsl #14
     35c:	03003411 	movweq	r3, #1041	; 0x411
     360:	3413490e 	ldrcc	r4, [r3], #-2318	; 0x90e
     364:	00180219 	andseq	r0, r8, r9, lsl r2
     368:	010b1200 	mrseq	r1, R11_fiq
     36c:	06120111 			; <UNDEFINED> instruction: 0x06120111
     370:	00001301 	andeq	r1, r0, r1, lsl #6
     374:	03003413 	movweq	r3, #1043	; 0x413
     378:	3b0b3a0e 	blcc	2cebb8 <__bss_end__+0x2c4eb0>
     37c:	0213490b 	andseq	r4, r3, #180224	; 0x2c000
     380:	14000017 	strne	r0, [r0], #-23
     384:	00018289 	andeq	r8, r1, r9, lsl #5
     388:	13310111 	teqne	r1, #1073741828	; 0x40000004
     38c:	89150000 	ldmdbhi	r5, {}	; <UNPREDICTABLE>
     390:	11010182 	smlabbne	r1, r2, r1, r0
     394:	01133101 	tsteq	r3, r1, lsl #2
     398:	16000013 			; <UNDEFINED> instruction: 0x16000013
     39c:	0001828a 	andeq	r8, r1, sl, lsl #5
     3a0:	42911802 	addsmi	r1, r1, #131072	; 0x20000
     3a4:	17000018 	smladne	r0, r8, r0, r0
     3a8:	01018289 	smlabbeq	r1, r9, r2, r8
     3ac:	13310111 	teqne	r1, #1073741828	; 0x40000004
     3b0:	01180000 	tsteq	r8, r0
     3b4:	01134901 	tsteq	r3, r1, lsl #18
     3b8:	19000013 	stmdbne	r0, {r0, r1, r4}
     3bc:	13490021 	movtne	r0, #36897	; 0x9021
     3c0:	00000b2f 	andeq	r0, r0, pc, lsr #22
     3c4:	3f012e1a 	svccc	0x00012e1a
     3c8:	3a0e0319 	bcc	381034 <__bss_end__+0x37732c>
     3cc:	270b3b0b 	strcs	r3, [fp, -fp, lsl #22]
     3d0:	12011119 	andne	r1, r1, #1073741830	; 0x40000006
     3d4:	97184006 	ldrls	r4, [r8, -r6]
     3d8:	13011942 	movwne	r1, #6466	; 0x1942
     3dc:	151b0000 	ldrne	r0, [fp, #-0]
     3e0:	49192701 	ldmdbmi	r9, {r0, r8, r9, sl, sp}
     3e4:	00130113 	andseq	r0, r3, r3, lsl r1
     3e8:	00051c00 	andeq	r1, r5, r0, lsl #24
     3ec:	00001349 	andeq	r1, r0, r9, asr #6
     3f0:	3f012e1d 	svccc	0x00012e1d
     3f4:	3a0e0319 	bcc	381060 <__bss_end__+0x377358>
     3f8:	270b3b0b 	strcs	r3, [fp, -fp, lsl #22]
     3fc:	11134919 	tstne	r3, r9, lsl r9
     400:	40061201 	andmi	r1, r6, r1, lsl #4
     404:	19429718 	stmdbne	r2, {r3, r4, r8, r9, sl, ip, pc}^
     408:	00001301 	andeq	r1, r0, r1, lsl #6
     40c:	55010b1e 	strpl	r0, [r1, #-2846]	; 0xb1e
     410:	1f000017 	svcne	0x00000017
     414:	0e030034 	mcreq	0, 0, r0, cr3, cr4, {1}
     418:	0b3b0b3a 	bleq	ec3108 <__bss_end__+0xeb9400>
     41c:	193f1349 	ldmdbne	pc!, {r0, r3, r6, r8, r9, ip}	; <UNPREDICTABLE>
     420:	0000193c 	andeq	r1, r0, ip, lsr r9
     424:	3f002e20 	svccc	0x00002e20
     428:	3a0e0319 	bcc	381094 <__bss_end__+0x37738c>
     42c:	270b3b0b 	strcs	r3, [fp, -fp, lsl #22]
     430:	00193c19 	andseq	r3, r9, r9, lsl ip
     434:	012e2100 	teqeq	lr, r0, lsl #2
     438:	0e03193f 	mcreq	9, 0, r1, cr3, cr15, {1}
     43c:	0b3b0b3a 	bleq	ec312c <__bss_end__+0xeb9424>
     440:	13491927 	movtne	r1, #39207	; 0x9927
     444:	1301193c 	movwne	r1, #6460	; 0x193c
     448:	18220000 	stmdane	r2!, {}	; <UNPREDICTABLE>
     44c:	00000000 	andeq	r0, r0, r0
     450:	25011101 	strcs	r1, [r1, #-257]	; 0x101
     454:	030b130e 	movweq	r1, #45838	; 0xb30e
     458:	110e1b0e 	tstne	lr, lr, lsl #22
     45c:	10061201 	andne	r1, r6, r1, lsl #4
     460:	02000017 	andeq	r0, r0, #23
     464:	0b0b0024 	bleq	2c04fc <__bss_end__+0x2b67f4>
     468:	08030b3e 	stmdaeq	r3, {r1, r2, r3, r4, r5, r8, r9, fp}
     46c:	24030000 	strcs	r0, [r3], #-0
     470:	3e0b0b00 	vmlacc.f64	d0, d11, d0
     474:	000e030b 	andeq	r0, lr, fp, lsl #6
     478:	000f0400 	andeq	r0, pc, r0, lsl #8
     47c:	13490b0b 	movtne	r0, #39691	; 0x9b0b
     480:	26050000 	strcs	r0, [r5], -r0
     484:	00134900 	andseq	r4, r3, r0, lsl #18
     488:	012e0600 	teqeq	lr, r0, lsl #12
     48c:	0e03193f 	mcreq	9, 0, r1, cr3, cr15, {1}
     490:	0b3b0b3a 	bleq	ec3180 <__bss_end__+0xeb9478>
     494:	01111927 	tsteq	r1, r7, lsr #18
     498:	18400612 	stmdane	r0, {r1, r4, r9, sl}^
     49c:	01194297 			; <UNDEFINED> instruction: 0x01194297
     4a0:	07000013 	smladeq	r0, r3, r0, r0
     4a4:	01018289 	smlabbeq	r1, r9, r2, r8
     4a8:	13010111 	movwne	r0, #4369	; 0x1111
     4ac:	8a080000 	bhi	2004b4 <__bss_end__+0x1f67ac>
     4b0:	02000182 	andeq	r0, r0, #-2147483616	; 0x80000020
     4b4:	18429118 	stmdane	r2, {r3, r4, r8, ip, pc}^
     4b8:	89090000 	stmdbhi	r9, {}	; <UNPREDICTABLE>
     4bc:	11010182 	smlabbne	r1, r2, r1, r0
     4c0:	01133101 	tsteq	r3, r1, lsl #2
     4c4:	0a000013 	beq	518 <_start-0x7ae8>
     4c8:	00018289 	andeq	r8, r1, r9, lsl #5
     4cc:	13310111 	teqne	r1, #1073741828	; 0x40000004
     4d0:	150b0000 	strne	r0, [fp, #-0]
     4d4:	49192701 	ldmdbmi	r9, {r0, r8, r9, sl, sp}
     4d8:	00130113 	andseq	r0, r3, r3, lsl r1
     4dc:	00050c00 	andeq	r0, r5, r0, lsl #24
     4e0:	00001349 	andeq	r1, r0, r9, asr #6
     4e4:	0300340d 	movweq	r3, #1037	; 0x40d
     4e8:	3b0b3a0e 	blcc	2ced28 <__bss_end__+0x2c5020>
     4ec:	3f13490b 	svccc	0x0013490b
     4f0:	00193c19 	andseq	r3, r9, r9, lsl ip
     4f4:	012e0e00 	teqeq	lr, r0, lsl #28
     4f8:	0e03193f 	mcreq	9, 0, r1, cr3, cr15, {1}
     4fc:	0b3b0b3a 	bleq	ec31ec <__bss_end__+0xeb94e4>
     500:	193c1927 	ldmdbne	ip!, {r0, r1, r2, r5, r8, fp, ip}
     504:	00001301 	andeq	r1, r0, r1, lsl #6
     508:	3f002e0f 	svccc	0x00002e0f
     50c:	3a0e0319 	bcc	381178 <__bss_end__+0x377470>
     510:	270b3b0b 	strcs	r3, [fp, -fp, lsl #22]
     514:	00193c19 	andseq	r3, r9, r9, lsl ip
     518:	11010000 	mrsne	r0, (UNDEF: 1)
     51c:	130e2501 	movwne	r2, #58625	; 0xe501
     520:	1b0e030b 	blne	381154 <__bss_end__+0x37744c>
     524:	1201110e 	andne	r1, r1, #-2147483645	; 0x80000003
     528:	00171006 	andseq	r1, r7, r6
     52c:	00240200 	eoreq	r0, r4, r0, lsl #4
     530:	0b3e0b0b 	bleq	f83164 <__bss_end__+0xf7945c>
     534:	00000803 	andeq	r0, r0, r3, lsl #16
     538:	0b002403 	bleq	954c <rpi_set_putc+0xc>
     53c:	030b3e0b 	movweq	r3, #48651	; 0xbe0b
     540:	0400000e 	streq	r0, [r0], #-14
     544:	0e030016 	mcreq	0, 0, r0, cr3, cr6, {0}
     548:	0b3b0b3a 	bleq	ec3238 <__bss_end__+0xeb9530>
     54c:	00001349 	andeq	r1, r0, r9, asr #6
     550:	0b000f05 	bleq	416c <_start-0x3e94>
     554:	0013490b 	andseq	r4, r3, fp, lsl #18
     558:	00260600 	eoreq	r0, r6, r0, lsl #12
     55c:	00001349 	andeq	r1, r0, r9, asr #6
     560:	0b011307 	bleq	45184 <__bss_end__+0x3b47c>
     564:	3b0b3a0b 	blcc	2ced98 <__bss_end__+0x2c5090>
     568:	0013010b 	andseq	r0, r3, fp, lsl #2
     56c:	000d0800 	andeq	r0, sp, r0, lsl #16
     570:	0b3a0803 	bleq	e82584 <__bss_end__+0xe7887c>
     574:	13490b3b 	movtne	r0, #39739	; 0x9b3b
     578:	00000b38 	andeq	r0, r0, r8, lsr fp
     57c:	03000d09 	movweq	r0, #3337	; 0xd09
     580:	3b0b3a0e 	blcc	2cedc0 <__bss_end__+0x2c50b8>
     584:	3813490b 	ldmdacc	r3, {r0, r1, r3, r8, fp, lr}
     588:	0a00000b 	beq	5bc <_start-0x7a44>
     58c:	0b0b0104 	bleq	2c09a4 <__bss_end__+0x2b6c9c>
     590:	0b3b0b3a 	bleq	ec3280 <__bss_end__+0xeb9578>
     594:	00001301 	andeq	r1, r0, r1, lsl #6
     598:	0300280b 	movweq	r2, #2059	; 0x80b
     59c:	000d1c0e 	andeq	r1, sp, lr, lsl #24
     5a0:	012e0c00 	teqeq	lr, r0, lsl #24
     5a4:	0b3a0e03 	bleq	e83db8 <__bss_end__+0xe7a0b0>
     5a8:	19270b3b 	stmdbne	r7!, {r0, r1, r3, r4, r5, r8, r9, fp}
     5ac:	01111349 	tsteq	r1, r9, asr #6
     5b0:	18400612 	stmdane	r0, {r1, r4, r9, sl}^
     5b4:	01194297 			; <UNDEFINED> instruction: 0x01194297
     5b8:	0d000013 	stceq	0, cr0, [r0, #-76]	; 0xffffffb4
     5bc:	08030005 	stmdaeq	r3, {r0, r2}
     5c0:	0b3b0b3a 	bleq	ec32b0 <__bss_end__+0xeb95a8>
     5c4:	17021349 	strne	r1, [r2, -r9, asr #6]
     5c8:	890e0000 	stmdbhi	lr, {}	; <UNPREDICTABLE>
     5cc:	11010182 	smlabbne	r1, r2, r1, r0
     5d0:	00133101 	andseq	r3, r3, r1, lsl #2
     5d4:	828a0f00 	addhi	r0, sl, #0, 30
     5d8:	18020001 	stmdane	r2, {r0}
     5dc:	00184291 	mulseq	r8, r1, r2
     5e0:	012e1000 	teqeq	lr, r0
     5e4:	0e03193f 	mcreq	9, 0, r1, cr3, cr15, {1}
     5e8:	0b3b0b3a 	bleq	ec32d8 <__bss_end__+0xeb95d0>
     5ec:	06120111 			; <UNDEFINED> instruction: 0x06120111
     5f0:	42971840 	addsmi	r1, r7, #64, 16	; 0x400000
     5f4:	00130119 	andseq	r0, r3, r9, lsl r1
     5f8:	00341100 	eorseq	r1, r4, r0, lsl #2
     5fc:	0b3a0e03 	bleq	e83e10 <__bss_end__+0xe7a108>
     600:	13490b3b 	movtne	r0, #39739	; 0x9b3b
     604:	193c193f 	ldmdbne	ip!, {r0, r1, r2, r3, r4, r5, r8, fp, ip}
     608:	2e120000 	cdpcs	0, 1, cr0, cr2, cr0, {0}
     60c:	03193f00 	tsteq	r9, #0, 30
     610:	3b0b3a0e 	blcc	2cee50 <__bss_end__+0x2c5148>
     614:	3c19270b 	ldccc	7, cr2, [r9], {11}
     618:	13000019 	movwne	r0, #25
     61c:	08030034 	stmdaeq	r3, {r2, r4, r5}
     620:	0b3b0b3a 	bleq	ec3310 <__bss_end__+0xeb9608>
     624:	17021349 	strne	r1, [r2, -r9, asr #6]
     628:	34140000 	ldrcc	r0, [r4], #-0
     62c:	3a0e0300 	bcc	381234 <__bss_end__+0x37752c>
     630:	490b3b0b 	stmdbmi	fp, {r0, r1, r3, r8, r9, fp, ip, sp}
     634:	15000013 	strne	r0, [r0, #-19]
     638:	00018289 	andeq	r8, r1, r9, lsl #5
     63c:	13310111 	teqne	r1, #1073741828	; 0x40000004
     640:	89160000 	ldmdbhi	r6, {}	; <UNPREDICTABLE>
     644:	11010182 	smlabbne	r1, r2, r1, r0
     648:	01133101 	tsteq	r3, r1, lsl #2
     64c:	17000013 	smladne	r0, r3, r0, r0
     650:	0e030034 	mcreq	0, 0, r0, cr3, cr4, {1}
     654:	0b3b0b3a 	bleq	ec3344 <__bss_end__+0xeb963c>
     658:	18021349 	stmdane	r2, {r0, r3, r6, r8, r9, ip}
     65c:	15180000 	ldrne	r0, [r8, #-0]
     660:	49192701 	ldmdbmi	r9, {r0, r8, r9, sl, sp}
     664:	00130113 	andseq	r0, r3, r3, lsl r1
     668:	00051900 	andeq	r1, r5, r0, lsl #18
     66c:	00001349 	andeq	r1, r0, r9, asr #6
     670:	3f012e1a 	svccc	0x00012e1a
     674:	3a0e0319 	bcc	3812e0 <__bss_end__+0x3775d8>
     678:	270b3b0b 	strcs	r3, [fp, -fp, lsl #22]
     67c:	01193c19 	tsteq	r9, r9, lsl ip
     680:	1b000013 	blne	6d4 <_start-0x792c>
     684:	193f002e 	ldmdbne	pc!, {r1, r2, r3, r5}	; <UNPREDICTABLE>
     688:	0b3a0e03 	bleq	e83e9c <__bss_end__+0xe7a194>
     68c:	19270b3b 	stmdbne	r7!, {r0, r1, r3, r4, r5, r8, r9, fp}
     690:	193c1349 	ldmdbne	ip!, {r0, r3, r6, r8, r9, ip}
     694:	2e1c0000 	cdpcs	0, 1, cr0, cr12, cr0, {0}
     698:	03193f01 	tsteq	r9, #1, 30
     69c:	3b0b3a0e 	blcc	2ceedc <__bss_end__+0x2c51d4>
     6a0:	4919270b 	ldmdbmi	r9, {r0, r1, r3, r8, r9, sl, sp}
     6a4:	01193c13 	tsteq	r9, r3, lsl ip
     6a8:	1d000013 	stcne	0, cr0, [r0, #-76]	; 0xffffffb4
     6ac:	00000018 	andeq	r0, r0, r8, lsl r0
     6b0:	01110100 	tsteq	r1, r0, lsl #2
     6b4:	0b130e25 	bleq	4c3f50 <__bss_end__+0x4ba248>
     6b8:	0e1b0e03 	cdpeq	14, 1, cr0, cr11, cr3, {0}
     6bc:	01111755 	tsteq	r1, r5, asr r7
     6c0:	00001710 	andeq	r1, r0, r0, lsl r7
     6c4:	0b002402 	bleq	96d4 <__FUNCTION__.4238+0x48>
     6c8:	030b3e0b 	movweq	r3, #48651	; 0xbe0b
     6cc:	03000008 	movweq	r0, #8
     6d0:	0b0b0024 	bleq	2c0768 <__bss_end__+0x2b6a60>
     6d4:	0e030b3e 	vmoveq.16	d3[0], r0
     6d8:	2e040000 	cdpcs	0, 0, cr0, cr4, cr0, {0}
     6dc:	03193f01 	tsteq	r9, #1, 30
     6e0:	3b0b3a0e 	blcc	2cef20 <__bss_end__+0x2c5218>
     6e4:	4919270b 	ldmdbmi	r9, {r0, r1, r3, r8, r9, sl, sp}
     6e8:	12011113 	andne	r1, r1, #-1073741820	; 0xc0000004
     6ec:	97184006 	ldrls	r4, [r8, -r6]
     6f0:	13011942 	movwne	r1, #6466	; 0x1942
     6f4:	34050000 	strcc	r0, [r5], #-0
     6f8:	3a0e0300 	bcc	381300 <__bss_end__+0x3775f8>
     6fc:	490b3b0b 	stmdbmi	fp, {r0, r1, r3, r8, r9, fp, ip, sp}
     700:	00170213 	andseq	r0, r7, r3, lsl r2
     704:	012e0600 	teqeq	lr, r0, lsl #12
     708:	0e03193f 	mcreq	9, 0, r1, cr3, cr15, {1}
     70c:	0b3b0b3a 	bleq	ec33fc <__bss_end__+0xeb96f4>
     710:	01111927 	tsteq	r1, r7, lsr #18
     714:	18400612 	stmdane	r0, {r1, r4, r9, sl}^
     718:	01194297 			; <UNDEFINED> instruction: 0x01194297
     71c:	07000013 	smladeq	r0, r3, r0, r0
     720:	0e030034 	mcreq	0, 0, r0, cr3, cr4, {1}
     724:	0b3b0b3a 	bleq	ec3414 <__bss_end__+0xeb970c>
     728:	061c1349 	ldreq	r1, [ip], -r9, asr #6
     72c:	34080000 	strcc	r0, [r8], #-0
     730:	3a0e0300 	bcc	381338 <__bss_end__+0x377630>
     734:	490b3b0b 	stmdbmi	fp, {r0, r1, r3, r8, r9, fp, ip, sp}
     738:	000b1c13 	andeq	r1, fp, r3, lsl ip
     73c:	82890900 	addhi	r0, r9, #0, 18
     740:	01110001 	tsteq	r1, r1
     744:	00001331 	andeq	r1, r0, r1, lsr r3
     748:	0182890a 	orreq	r8, r2, sl, lsl #18
     74c:	31011101 	tstcc	r1, r1, lsl #2
     750:	00130113 	andseq	r0, r3, r3, lsl r1
     754:	828a0b00 	addhi	r0, sl, #0, 22
     758:	18020001 	stmdane	r2, {r0}
     75c:	00184291 	mulseq	r8, r1, r2
     760:	82890c00 	addhi	r0, r9, #0, 24
     764:	01110101 	tsteq	r1, r1, lsl #2
     768:	00001331 	andeq	r1, r0, r1, lsr r3
     76c:	4900260d 	stmdbmi	r0, {r0, r2, r3, r9, sl, sp}
     770:	0e000013 	mcreq	0, 0, r0, cr0, cr3, {0}
     774:	193f012e 	ldmdbne	pc!, {r1, r2, r3, r5, r8}	; <UNPREDICTABLE>
     778:	0b3a0e03 	bleq	e83f8c <__bss_end__+0xe7a284>
     77c:	19270b3b 	stmdbne	r7!, {r0, r1, r3, r4, r5, r8, r9, fp}
     780:	1301193c 	movwne	r1, #6460	; 0x193c
     784:	050f0000 	streq	r0, [pc, #-0]	; 78c <_start-0x7874>
     788:	00134900 	andseq	r4, r3, r0, lsl #18
     78c:	012e1000 	teqeq	lr, r0
     790:	0e03193f 	mcreq	9, 0, r1, cr3, cr15, {1}
     794:	0b3b0b3a 	bleq	ec3484 <__bss_end__+0xeb977c>
     798:	193c1927 	ldmdbne	ip!, {r0, r1, r2, r5, r8, fp, ip}
     79c:	01000000 	mrseq	r0, (UNDEF: 0)
     7a0:	0e250111 	mcreq	1, 1, r0, cr5, cr1, {0}
     7a4:	0e030b13 	vmoveq.32	d3[0], r0
     7a8:	01110e1b 	tsteq	r1, fp, lsl lr
     7ac:	17100612 			; <UNDEFINED> instruction: 0x17100612
     7b0:	24020000 	strcs	r0, [r2], #-0
     7b4:	3e0b0b00 	vmlacc.f64	d0, d11, d0
     7b8:	0008030b 	andeq	r0, r8, fp, lsl #6
     7bc:	00240300 	eoreq	r0, r4, r0, lsl #6
     7c0:	0b3e0b0b 	bleq	f833f4 <__bss_end__+0xf796ec>
     7c4:	00000e03 	andeq	r0, r0, r3, lsl #28
     7c8:	3f012e04 	svccc	0x00012e04
     7cc:	3a0e0319 	bcc	381438 <__bss_end__+0x377730>
     7d0:	270b3b0b 	strcs	r3, [fp, -fp, lsl #22]
     7d4:	12011119 	andne	r1, r1, #1073741830	; 0x40000006
     7d8:	97184006 	ldrls	r4, [r8, -r6]
     7dc:	13011942 	movwne	r1, #6466	; 0x1942
     7e0:	05050000 	streq	r0, [r5, #-0]
     7e4:	3a0e0300 	bcc	3813ec <__bss_end__+0x3776e4>
     7e8:	490b3b0b 	stmdbmi	fp, {r0, r1, r3, r8, r9, fp, ip, sp}
     7ec:	00170213 	andseq	r0, r7, r3, lsl r2
     7f0:	012e0600 	teqeq	lr, r0, lsl #12
     7f4:	0e03193f 	mcreq	9, 0, r1, cr3, cr15, {1}
     7f8:	0b3b0b3a 	bleq	ec34e8 <__bss_end__+0xeb97e0>
     7fc:	13491927 	movtne	r1, #39207	; 0x9927
     800:	06120111 			; <UNDEFINED> instruction: 0x06120111
     804:	42971840 	addsmi	r1, r7, #64, 16	; 0x400000
     808:	00130119 	andseq	r0, r3, r9, lsl r1
     80c:	82890700 	addhi	r0, r9, #0, 14
     810:	01110101 	tsteq	r1, r1, lsl #2
     814:	00001331 	andeq	r1, r0, r1, lsr r3
     818:	01828a08 	orreq	r8, r2, r8, lsl #20
     81c:	91180200 	tstls	r8, r0, lsl #4
     820:	00001842 	andeq	r1, r0, r2, asr #16
     824:	03003409 	movweq	r3, #1033	; 0x409
     828:	3b0b3a08 	blcc	2cf050 <__bss_end__+0x2c5348>
     82c:	0213490b 	andseq	r4, r3, #180224	; 0x2c000
     830:	0a000018 	beq	898 <_start-0x7768>
     834:	00018289 	andeq	r8, r1, r9, lsl #5
     838:	13310111 	teqne	r1, #1073741828	; 0x40000004
     83c:	050b0000 	streq	r0, [fp, #-0]
     840:	3a080300 	bcc	201448 <__bss_end__+0x1f7740>
     844:	490b3b0b 	stmdbmi	fp, {r0, r1, r3, r8, r9, fp, ip, sp}
     848:	00170213 	andseq	r0, r7, r3, lsl r2
     84c:	010b0c00 	tsteq	fp, r0, lsl #24
     850:	06120111 			; <UNDEFINED> instruction: 0x06120111
     854:	00001301 	andeq	r1, r0, r1, lsl #6
     858:	0300340d 	movweq	r3, #1037	; 0x40d
     85c:	3b0b3a08 	blcc	2cf084 <__bss_end__+0x2c537c>
     860:	0213490b 	andseq	r4, r3, #180224	; 0x2c000
     864:	0e000017 	mcreq	0, 0, r0, cr0, cr7, {0}
     868:	193f012e 	ldmdbne	pc!, {r1, r2, r3, r5, r8}	; <UNPREDICTABLE>
     86c:	0b3a0e03 	bleq	e84080 <__bss_end__+0xe7a378>
     870:	19270b3b 	stmdbne	r7!, {r0, r1, r3, r4, r5, r8, r9, fp}
     874:	193c1349 	ldmdbne	ip!, {r0, r3, r6, r8, r9, ip}
     878:	050f0000 	streq	r0, [pc, #-0]	; 880 <_start-0x7780>
     87c:	00134900 	andseq	r4, r3, r0, lsl #18
     880:	11010000 	mrsne	r0, (UNDEF: 1)
     884:	130e2501 	movwne	r2, #58625	; 0xe501
     888:	1b0e030b 	blne	3814bc <__bss_end__+0x3777b4>
     88c:	1201110e 	andne	r1, r1, #-2147483645	; 0x80000003
     890:	00171006 	andseq	r1, r7, r6
     894:	00240200 	eoreq	r0, r4, r0, lsl #4
     898:	0b3e0b0b 	bleq	f834cc <__bss_end__+0xf797c4>
     89c:	00000803 	andeq	r0, r0, r3, lsl #16
     8a0:	0b002403 	bleq	98b4 <__FUNCTION__.4327+0xa0>
     8a4:	030b3e0b 	movweq	r3, #48651	; 0xbe0b
     8a8:	0400000e 	streq	r0, [r0], #-14
     8ac:	0e030016 	mcreq	0, 0, r0, cr3, cr6, {0}
     8b0:	0b3b0b3a 	bleq	ec35a0 <__bss_end__+0xeb9898>
     8b4:	00001349 	andeq	r1, r0, r9, asr #6
     8b8:	0b000f05 	bleq	44d4 <_start-0x3b2c>
     8bc:	0600000b 	streq	r0, [r0], -fp
     8c0:	0b0b000f 	bleq	2c0904 <__bss_end__+0x2b6bfc>
     8c4:	00001349 	andeq	r1, r0, r9, asr #6
     8c8:	49002607 	stmdbmi	r0, {r0, r1, r2, r9, sl, sp}
     8cc:	08000013 	stmdaeq	r0, {r0, r1, r4}
     8d0:	0b0b0113 	bleq	2c0d24 <__bss_end__+0x2b701c>
     8d4:	0b3b0b3a 	bleq	ec35c4 <__bss_end__+0xeb98bc>
     8d8:	00001301 	andeq	r1, r0, r1, lsl #6
     8dc:	03000d09 	movweq	r0, #3337	; 0xd09
     8e0:	3b0b3a08 	blcc	2cf108 <__bss_end__+0x2c5400>
     8e4:	3813490b 	ldmdacc	r3, {r0, r1, r3, r8, fp, lr}
     8e8:	0a00000b 	beq	91c <_start-0x76e4>
     8ec:	0e03000d 	cdpeq	0, 0, cr0, cr3, cr13, {0}
     8f0:	0b3b0b3a 	bleq	ec35e0 <__bss_end__+0xeb98d8>
     8f4:	0b381349 	bleq	e05620 <__bss_end__+0xdfb918>
     8f8:	130b0000 	movwne	r0, #45056	; 0xb000
     8fc:	0b0e0301 	bleq	381508 <__bss_end__+0x377800>
     900:	3b0b3a0b 	blcc	2cf134 <__bss_end__+0x2c542c>
     904:	0013010b 	andseq	r0, r3, fp, lsl #2
     908:	000d0c00 	andeq	r0, sp, r0, lsl #24
     90c:	13490e03 	movtne	r0, #40451	; 0x9e03
     910:	19340b38 	ldmdbne	r4!, {r3, r4, r5, r8, r9, fp}
     914:	2e0d0000 	cdpcs	0, 0, cr0, cr13, cr0, {0}
     918:	3a0e0301 	bcc	381524 <__bss_end__+0x37781c>
     91c:	270b3b0b 	strcs	r3, [fp, -fp, lsl #22]
     920:	010b2019 	tsteq	fp, r9, lsl r0
     924:	0e000013 	mcreq	0, 0, r0, cr0, cr3, {0}
     928:	0e030005 	cdpeq	0, 0, cr0, cr3, cr5, {0}
     92c:	0b3b0b3a 	bleq	ec361c <__bss_end__+0xeb9914>
     930:	00001349 	andeq	r1, r0, r9, asr #6
     934:	0300050f 	movweq	r0, #1295	; 0x50f
     938:	3b0b3a08 	blcc	2cf160 <__bss_end__+0x2c5458>
     93c:	0013490b 	andseq	r4, r3, fp, lsl #18
     940:	010b1000 	mrseq	r1, (UNDEF: 11)
     944:	34110000 	ldrcc	r0, [r1], #-0
     948:	3a0e0300 	bcc	381550 <__bss_end__+0x377848>
     94c:	490b3b0b 	stmdbmi	fp, {r0, r1, r3, r8, r9, fp, ip, sp}
     950:	12000013 	andne	r0, r0, #19
     954:	193f012e 	ldmdbne	pc!, {r1, r2, r3, r5, r8}	; <UNPREDICTABLE>
     958:	0b3a0e03 	bleq	e8416c <__bss_end__+0xe7a464>
     95c:	19270b3b 	stmdbne	r7!, {r0, r1, r3, r4, r5, r8, r9, fp}
     960:	06120111 			; <UNDEFINED> instruction: 0x06120111
     964:	42971840 	addsmi	r1, r7, #64, 16	; 0x400000
     968:	00130119 	andseq	r0, r3, r9, lsl r1
     96c:	00051300 	andeq	r1, r5, r0, lsl #6
     970:	0b3a0e03 	bleq	e84184 <__bss_end__+0xe7a47c>
     974:	13490b3b 	movtne	r0, #39739	; 0x9b3b
     978:	00001702 	andeq	r1, r0, r2, lsl #14
     97c:	03000514 	movweq	r0, #1300	; 0x514
     980:	3b0b3a08 	blcc	2cf1a8 <__bss_end__+0x2c54a0>
     984:	0213490b 	andseq	r4, r3, #180224	; 0x2c000
     988:	15000017 	strne	r0, [r0, #-23]
     98c:	08030034 	stmdaeq	r3, {r2, r4, r5}
     990:	0b3b0b3a 	bleq	ec3680 <__bss_end__+0xeb9978>
     994:	18021349 	stmdane	r2, {r0, r3, r6, r8, r9, ip}
     998:	34160000 	ldrcc	r0, [r6], #-0
     99c:	3a080300 	bcc	2015a4 <__bss_end__+0x1f789c>
     9a0:	490b3b0b 	stmdbmi	fp, {r0, r1, r3, r8, r9, fp, ip, sp}
     9a4:	00170213 	andseq	r0, r7, r3, lsl r2
     9a8:	010b1700 	tsteq	fp, r0, lsl #14
     9ac:	06120111 			; <UNDEFINED> instruction: 0x06120111
     9b0:	00001301 	andeq	r1, r0, r1, lsl #6
     9b4:	03003418 	movweq	r3, #1048	; 0x418
     9b8:	3b0b3a0e 	blcc	2cf1f8 <__bss_end__+0x2c54f0>
     9bc:	0213490b 	andseq	r4, r3, #180224	; 0x2c000
     9c0:	19000018 	stmdbne	r0, {r3, r4}
     9c4:	1331011d 	teqne	r1, #1073741831	; 0x40000007
     9c8:	06120111 			; <UNDEFINED> instruction: 0x06120111
     9cc:	0b590b58 	bleq	1643734 <__bss_end__+0x1639a2c>
     9d0:	00001301 	andeq	r1, r0, r1, lsl #6
     9d4:	3100051a 	tstcc	r0, sl, lsl r5
     9d8:	00170213 	andseq	r0, r7, r3, lsl r2
     9dc:	00051b00 	andeq	r1, r5, r0, lsl #22
     9e0:	18021331 	stmdane	r2, {r0, r4, r5, r8, r9, ip}
     9e4:	051c0000 	ldreq	r0, [ip, #-0]
     9e8:	1c133100 	ldfnes	f3, [r3], {-0}
     9ec:	1d00000b 	stcne	0, cr0, [r0, #-44]	; 0xffffffd4
     9f0:	0111010b 	tsteq	r1, fp, lsl #2
     9f4:	00000612 	andeq	r0, r0, r2, lsl r6
     9f8:	3100341e 	tstcc	r0, lr, lsl r4
     9fc:	00170213 	andseq	r0, r7, r3, lsl r2
     a00:	82891f00 	addhi	r1, r9, #0, 30
     a04:	01110101 	tsteq	r1, r1, lsl #2
     a08:	00001331 	andeq	r1, r0, r1, lsr r3
     a0c:	01828a20 	orreq	r8, r2, r0, lsr #20
     a10:	91180200 	tstls	r8, r0, lsl #4
     a14:	00001842 	andeq	r1, r0, r2, asr #16
     a18:	31011d21 	tstcc	r1, r1, lsr #26
     a1c:	12011113 	andne	r1, r1, #-1073741820	; 0xc0000004
     a20:	590b5806 	stmdbpl	fp, {r1, r2, fp, ip, lr}
     a24:	2200000b 	andcs	r0, r0, #11
     a28:	0e03012e 	adfeqsp	f0, f3, #0.5
     a2c:	0b3b0b3a 	bleq	ec371c <__bss_end__+0xeb9a14>
     a30:	13491927 	movtne	r1, #39207	; 0x9927
     a34:	13010b20 	movwne	r0, #6944	; 0x1b20
     a38:	2e230000 	cdpcs	0, 2, cr0, cr3, cr0, {0}
     a3c:	03193f01 	tsteq	r9, #1, 30
     a40:	3b0b3a0e 	blcc	2cf280 <__bss_end__+0x2c5578>
     a44:	4919270b 	ldmdbmi	r9, {r0, r1, r3, r8, r9, sl, sp}
     a48:	12011113 	andne	r1, r1, #-1073741820	; 0xc0000004
     a4c:	97184006 	ldrls	r4, [r8, -r6]
     a50:	13011942 	movwne	r1, #6466	; 0x1942
     a54:	89240000 	stmdbhi	r4!, {}	; <UNPREDICTABLE>
     a58:	11000182 	smlabbne	r0, r2, r1, r0
     a5c:	00133101 	andseq	r3, r3, r1, lsl #2
     a60:	82892500 	addhi	r2, r9, #0, 10
     a64:	01110101 	tsteq	r1, r1, lsl #2
     a68:	13011331 	movwne	r1, #4913	; 0x1331
     a6c:	34260000 	strtcc	r0, [r6], #-0
     a70:	3a0e0300 	bcc	381678 <__bss_end__+0x377970>
     a74:	490b3b0b 	stmdbmi	fp, {r0, r1, r3, r8, r9, fp, ip, sp}
     a78:	00170213 	andseq	r0, r7, r3, lsl r2
     a7c:	00052700 	andeq	r2, r5, r0, lsl #14
     a80:	00001331 	andeq	r1, r0, r1, lsr r3
     a84:	03000528 	movweq	r0, #1320	; 0x528
     a88:	3b0b3a0e 	blcc	2cf2c8 <__bss_end__+0x2c55c0>
     a8c:	0213490b 	andseq	r4, r3, #180224	; 0x2c000
     a90:	29000018 	stmdbcs	r0, {r3, r4}
     a94:	0e030034 	mcreq	0, 0, r0, cr3, cr4, {1}
     a98:	19341349 	ldmdbne	r4!, {r0, r3, r6, r8, r9, ip}
     a9c:	00001802 	andeq	r1, r0, r2, lsl #16
     aa0:	4901012a 	stmdbmi	r1, {r1, r3, r5, r8}
     aa4:	00130113 	andseq	r0, r3, r3, lsl r1
     aa8:	00212b00 	eoreq	r2, r1, r0, lsl #22
     aac:	0b2f1349 	bleq	bc57d8 <__bss_end__+0xbbbad0>
     ab0:	342c0000 	strtcc	r0, [ip], #-0
     ab4:	3a080300 	bcc	2016bc <__bss_end__+0x1f79b4>
     ab8:	490b3b0b 	stmdbmi	fp, {r0, r1, r3, r8, r9, fp, ip, sp}
     abc:	00061c13 	andeq	r1, r6, r3, lsl ip
     ac0:	00342d00 	eorseq	r2, r4, r0, lsl #26
     ac4:	0b3a0803 	bleq	e82ad8 <__bss_end__+0xe78dd0>
     ac8:	13490b3b 	movtne	r0, #39739	; 0x9b3b
     acc:	00000b1c 	andeq	r0, r0, ip, lsl fp
     ad0:	0300052e 	movweq	r0, #1326	; 0x52e
     ad4:	3b0b3a08 	blcc	2cf2fc <__bss_end__+0x2c55f4>
     ad8:	0213490b 	andseq	r4, r3, #180224	; 0x2c000
     adc:	2f000018 	svccs	0x00000018
     ae0:	00000018 	andeq	r0, r0, r8, lsl r0
     ae4:	49002130 	stmdbmi	r0, {r4, r5, r8, sp}
     ae8:	00052f13 	andeq	r2, r5, r3, lsl pc
     aec:	012e3100 	teqeq	lr, r0, lsl #2
     af0:	0e03193f 	mcreq	9, 0, r1, cr3, cr15, {1}
     af4:	0b3b0b3a 	bleq	ec37e4 <__bss_end__+0xeb9adc>
     af8:	193c1927 	ldmdbne	ip!, {r0, r1, r2, r5, r8, fp, ip}
     afc:	00001301 	andeq	r1, r0, r1, lsl #6
     b00:	49000532 	stmdbmi	r0, {r1, r4, r5, r8, sl}
     b04:	33000013 	movwcc	r0, #19
     b08:	193f002e 	ldmdbne	pc!, {r1, r2, r3, r5}	; <UNPREDICTABLE>
     b0c:	0b3a0e03 	bleq	e84320 <__bss_end__+0xe7a618>
     b10:	19270b3b 	stmdbne	r7!, {r0, r1, r3, r4, r5, r8, r9, fp}
     b14:	193c1349 	ldmdbne	ip!, {r0, r3, r6, r8, r9, ip}
     b18:	2e340000 	cdpcs	0, 3, cr0, cr4, cr0, {0}
     b1c:	03193f01 	tsteq	r9, #1, 30
     b20:	3b0b3a0e 	blcc	2cf360 <__bss_end__+0x2c5658>
     b24:	4919270b 	ldmdbmi	r9, {r0, r1, r3, r8, r9, sl, sp}
     b28:	01193c13 	tsteq	r9, r3, lsl ip
     b2c:	35000013 	strcc	r0, [r0, #-19]
     b30:	193f002e 	ldmdbne	pc!, {r1, r2, r3, r5}	; <UNPREDICTABLE>
     b34:	0b3a0e03 	bleq	e84348 <__bss_end__+0xe7a640>
     b38:	19270b3b 	stmdbne	r7!, {r0, r1, r3, r4, r5, r8, r9, fp}
     b3c:	0000193c 	andeq	r1, r0, ip, lsr r9
     b40:	3f012e36 	svccc	0x00012e36
     b44:	3a0e0319 	bcc	3817b0 <__bss_end__+0x377aa8>
     b48:	270b3b0b 	strcs	r3, [fp, -fp, lsl #22]
     b4c:	3c134919 	ldccc	9, cr4, [r3], {25}
     b50:	00000019 	andeq	r0, r0, r9, lsl r0
     b54:	25011101 	strcs	r1, [r1, #-257]	; 0x101
     b58:	030b130e 	movweq	r1, #45838	; 0xb30e
     b5c:	110e1b0e 	tstne	lr, lr, lsl #22
     b60:	10061201 	andne	r1, r6, r1, lsl #4
     b64:	02000017 	andeq	r0, r0, #23
     b68:	0b0b0024 	bleq	2c0c00 <__bss_end__+0x2b6ef8>
     b6c:	08030b3e 	stmdaeq	r3, {r1, r2, r3, r4, r5, r8, r9, fp}
     b70:	24030000 	strcs	r0, [r3], #-0
     b74:	3e0b0b00 	vmlacc.f64	d0, d11, d0
     b78:	000e030b 	andeq	r0, lr, fp, lsl #6
     b7c:	01040400 	tsteq	r4, r0, lsl #8
     b80:	0b3a0b0b 	bleq	e837b4 <__bss_end__+0xe79aac>
     b84:	13010b3b 	movwne	r0, #6971	; 0x1b3b
     b88:	28050000 	stmdacs	r5, {}	; <UNPREDICTABLE>
     b8c:	1c0e0300 	stcne	3, cr0, [lr], {-0}
     b90:	0600000d 	streq	r0, [r0], -sp
     b94:	0e030016 	mcreq	0, 0, r0, cr3, cr6, {0}
     b98:	0b3b0b3a 	bleq	ec3888 <__bss_end__+0xeb9b80>
     b9c:	00001349 	andeq	r1, r0, r9, asr #6
     ba0:	3f012e07 	svccc	0x00012e07
     ba4:	3a0e0319 	bcc	381810 <__bss_end__+0x377b08>
     ba8:	270b3b0b 	strcs	r3, [fp, -fp, lsl #22]
     bac:	12011119 	andne	r1, r1, #1073741830	; 0x40000006
     bb0:	97184006 	ldrls	r4, [r8, -r6]
     bb4:	13011942 	movwne	r1, #6466	; 0x1942
     bb8:	89080000 	stmdbhi	r8, {}	; <UNPREDICTABLE>
     bbc:	11000182 	smlabbne	r0, r2, r1, r0
     bc0:	00133101 	andseq	r3, r3, r1, lsl #2
     bc4:	82890900 	addhi	r0, r9, #0, 18
     bc8:	01110101 	tsteq	r1, r1, lsl #2
     bcc:	13011331 	movwne	r1, #4913	; 0x1331
     bd0:	8a0a0000 	bhi	280bd8 <__bss_end__+0x276ed0>
     bd4:	02000182 	andeq	r0, r0, #-2147483616	; 0x80000020
     bd8:	18429118 	stmdane	r2, {r3, r4, r8, ip, pc}^
     bdc:	2e0b0000 	cdpcs	0, 0, cr0, cr11, cr0, {0}
     be0:	03193f01 	tsteq	r9, #1, 30
     be4:	3b0b3a0e 	blcc	2cf424 <__bss_end__+0x2c571c>
     be8:	4919270b 	ldmdbmi	r9, {r0, r1, r3, r8, r9, sl, sp}
     bec:	12011113 	andne	r1, r1, #-1073741820	; 0xc0000004
     bf0:	97184006 	ldrls	r4, [r8, -r6]
     bf4:	13011942 	movwne	r1, #6466	; 0x1942
     bf8:	050c0000 	streq	r0, [ip, #-0]
     bfc:	3a080300 	bcc	201804 <__bss_end__+0x1f7afc>
     c00:	490b3b0b 	stmdbmi	fp, {r0, r1, r3, r8, r9, fp, ip, sp}
     c04:	00170213 	andseq	r0, r7, r3, lsl r2
     c08:	82890d00 	addhi	r0, r9, #0, 26
     c0c:	01110101 	tsteq	r1, r1, lsl #2
     c10:	00001331 	andeq	r1, r0, r1, lsr r3
     c14:	0300340e 	movweq	r3, #1038	; 0x40e
     c18:	3b0b3a0e 	blcc	2cf458 <__bss_end__+0x2c5750>
     c1c:	3f13490b 	svccc	0x0013490b
     c20:	00180219 	andseq	r0, r8, r9, lsl r2
     c24:	000f0f00 	andeq	r0, pc, r0, lsl #30
     c28:	13490b0b 	movtne	r0, #39691	; 0x9b0b
     c2c:	35100000 	ldrcc	r0, [r0, #-0]
     c30:	00134900 	andseq	r4, r3, r0, lsl #18
     c34:	002e1100 	eoreq	r1, lr, r0, lsl #2
     c38:	0e03193f 	mcreq	9, 0, r1, cr3, cr15, {1}
     c3c:	0b3b0b3a 	bleq	ec392c <__bss_end__+0xeb9c24>
     c40:	193c1927 	ldmdbne	ip!, {r0, r1, r2, r5, r8, fp, ip}
     c44:	2e120000 	cdpcs	0, 1, cr0, cr2, cr0, {0}
     c48:	03193f01 	tsteq	r9, #1, 30
     c4c:	3b0b3a0e 	blcc	2cf48c <__bss_end__+0x2c5784>
     c50:	3c19270b 	ldccc	7, cr2, [r9], {11}
     c54:	00130119 	andseq	r0, r3, r9, lsl r1
     c58:	00051300 	andeq	r1, r5, r0, lsl #6
     c5c:	00001349 	andeq	r1, r0, r9, asr #6
     c60:	3f012e14 	svccc	0x00012e14
     c64:	3a0e0319 	bcc	3818d0 <__bss_end__+0x377bc8>
     c68:	270b3b0b 	strcs	r3, [fp, -fp, lsl #22]
     c6c:	3c134919 	ldccc	9, cr4, [r3], {25}
     c70:	00130119 	andseq	r0, r3, r9, lsl r1
     c74:	00261500 	eoreq	r1, r6, r0, lsl #10
     c78:	00001349 	andeq	r1, r0, r9, asr #6
     c7c:	00003516 	andeq	r3, r0, r6, lsl r5
     c80:	11010000 	mrsne	r0, (UNDEF: 1)
     c84:	130e2501 	movwne	r2, #58625	; 0xe501
     c88:	1b0e030b 	blne	3818bc <__bss_end__+0x377bb4>
     c8c:	1201110e 	andne	r1, r1, #-2147483645	; 0x80000003
     c90:	00171006 	andseq	r1, r7, r6
     c94:	00240200 	eoreq	r0, r4, r0, lsl #4
     c98:	0b3e0b0b 	bleq	f838cc <__bss_end__+0xf79bc4>
     c9c:	00000e03 	andeq	r0, r0, r3, lsl #28
     ca0:	0b002403 	bleq	9cb4 <__bss_start__+0x3b8>
     ca4:	030b3e0b 	movweq	r3, #48651	; 0xbe0b
     ca8:	04000008 	streq	r0, [r0], #-8
     cac:	0b0b0104 	bleq	2c10c4 <__bss_end__+0x2b73bc>
     cb0:	0b3b0b3a 	bleq	ec39a0 <__bss_end__+0xeb9c98>
     cb4:	00001301 	andeq	r1, r0, r1, lsl #6
     cb8:	03002805 	movweq	r2, #2053	; 0x805
     cbc:	000d1c0e 	andeq	r1, sp, lr, lsl #24
     cc0:	00160600 	andseq	r0, r6, r0, lsl #12
     cc4:	0b3a0e03 	bleq	e844d8 <__bss_end__+0xe7a7d0>
     cc8:	13490b3b 	movtne	r0, #39739	; 0x9b3b
     ccc:	2e070000 	cdpcs	0, 0, cr0, cr7, cr0, {0}
     cd0:	03193f01 	tsteq	r9, #1, 30
     cd4:	3b0b3a0e 	blcc	2cf514 <__bss_end__+0x2c580c>
     cd8:	1119270b 	tstne	r9, fp, lsl #14
     cdc:	40061201 	andmi	r1, r6, r1, lsl #4
     ce0:	19429718 	stmdbne	r2, {r3, r4, r8, r9, sl, ip, pc}^
     ce4:	00001301 	andeq	r1, r0, r1, lsl #6
     ce8:	03000508 	movweq	r0, #1288	; 0x508
     cec:	3b0b3a08 	blcc	2cf514 <__bss_end__+0x2c580c>
     cf0:	0213490b 	andseq	r4, r3, #180224	; 0x2c000
     cf4:	09000017 	stmdbeq	r0, {r0, r1, r2, r4}
     cf8:	0e030034 	mcreq	0, 0, r0, cr3, cr4, {1}
     cfc:	0b3b0b3a 	bleq	ec39ec <__bss_end__+0xeb9ce4>
     d00:	17021349 	strne	r1, [r2, -r9, asr #6]
     d04:	890a0000 	stmdbhi	sl, {}	; <UNPREDICTABLE>
     d08:	11010182 	smlabbne	r1, r2, r1, r0
     d0c:	01133101 	tsteq	r3, r1, lsl #2
     d10:	0b000013 	bleq	d64 <_start-0x729c>
     d14:	0001828a 	andeq	r8, r1, sl, lsl #5
     d18:	42911802 	addsmi	r1, r1, #131072	; 0x20000
     d1c:	0c000018 	stceq	0, cr0, [r0], {24}
     d20:	01018289 	smlabbeq	r1, r9, r2, r8
     d24:	13310111 	teqne	r1, #1073741828	; 0x40000004
     d28:	0f0d0000 	svceq	0x000d0000
     d2c:	490b0b00 	stmdbmi	fp, {r8, r9, fp}
     d30:	0e000013 	mcreq	0, 0, r0, cr0, cr3, {0}
     d34:	13490035 	movtne	r0, #36917	; 0x9035
     d38:	2e0f0000 	cdpcs	0, 0, cr0, cr15, cr0, {0}
     d3c:	03193f01 	tsteq	r9, #1, 30
     d40:	3b0b3a0e 	blcc	2cf580 <__bss_end__+0x2c5878>
     d44:	2019270b 	andscs	r2, r9, fp, lsl #14
     d48:	0013010b 	andseq	r0, r3, fp, lsl #2
     d4c:	00051000 	andeq	r1, r5, r0
     d50:	0b3a0803 	bleq	e82d64 <__bss_end__+0xe7905c>
     d54:	13490b3b 	movtne	r0, #39739	; 0x9b3b
     d58:	34110000 	ldrcc	r0, [r1], #-0
     d5c:	3a0e0300 	bcc	381964 <__bss_end__+0x377c5c>
     d60:	490b3b0b 	stmdbmi	fp, {r0, r1, r3, r8, r9, fp, ip, sp}
     d64:	12000013 	andne	r0, r0, #19
     d68:	1331012e 	teqne	r1, #-2147483637	; 0x8000000b
     d6c:	06120111 			; <UNDEFINED> instruction: 0x06120111
     d70:	42971840 	addsmi	r1, r7, #64, 16	; 0x400000
     d74:	00130119 	andseq	r0, r3, r9, lsl r1
     d78:	00051300 	andeq	r1, r5, r0, lsl #6
     d7c:	17021331 	smladxne	r2, r1, r3, r1
     d80:	34140000 	ldrcc	r0, [r4], #-0
     d84:	02133100 	andseq	r3, r3, #0, 2
     d88:	15000017 	strne	r0, [r0, #-23]
     d8c:	193f012e 	ldmdbne	pc!, {r1, r2, r3, r5, r8}	; <UNPREDICTABLE>
     d90:	0b3a0e03 	bleq	e845a4 <__bss_end__+0xe7a89c>
     d94:	19270b3b 	stmdbne	r7!, {r0, r1, r3, r4, r5, r8, r9, fp}
     d98:	01111349 	tsteq	r1, r9, asr #6
     d9c:	18400612 	stmdane	r0, {r1, r4, r9, sl}^
     da0:	01194297 			; <UNDEFINED> instruction: 0x01194297
     da4:	16000013 			; <UNDEFINED> instruction: 0x16000013
     da8:	08030034 	stmdaeq	r3, {r2, r4, r5}
     dac:	0b3b0b3a 	bleq	ec3a9c <__bss_end__+0xeb9d94>
     db0:	17021349 	strne	r1, [r2, -r9, asr #6]
     db4:	89170000 	ldmdbhi	r7, {}	; <UNPREDICTABLE>
     db8:	11000182 	smlabbne	r0, r2, r1, r0
     dbc:	00133101 	andseq	r3, r3, r1, lsl #2
     dc0:	011d1800 	tsteq	sp, r0, lsl #16
     dc4:	01111331 	tsteq	r1, r1, lsr r3
     dc8:	0b580612 	bleq	1602618 <__bss_end__+0x15f8910>
     dcc:	13010b59 	movwne	r0, #7001	; 0x1b59
     dd0:	0b190000 	bleq	640dd8 <__bss_end__+0x6370d0>
     dd4:	12011101 	andne	r1, r1, #1073741824	; 0x40000000
     dd8:	1a000006 	bne	df8 <_start-0x7208>
     ddc:	1331011d 	teqne	r1, #1073741831	; 0x40000007
     de0:	06120111 			; <UNDEFINED> instruction: 0x06120111
     de4:	0b590b58 	bleq	1643b4c <__bss_end__+0x1639e44>
     de8:	051b0000 	ldreq	r0, [fp, #-0]
     dec:	3a0e0300 	bcc	3819f4 <__bss_end__+0x377cec>
     df0:	490b3b0b 	stmdbmi	fp, {r0, r1, r3, r8, r9, fp, ip, sp}
     df4:	00170213 	andseq	r0, r7, r3, lsl r2
     df8:	012e1c00 	teqeq	lr, r0, lsl #24
     dfc:	0e03193f 	mcreq	9, 0, r1, cr3, cr15, {1}
     e00:	053b0b3a 	ldreq	r0, [fp, #-2874]!	; 0xb3a
     e04:	13491927 	movtne	r1, #39207	; 0x9927
     e08:	06120111 			; <UNDEFINED> instruction: 0x06120111
     e0c:	42971840 	addsmi	r1, r7, #64, 16	; 0x400000
     e10:	00130119 	andseq	r0, r3, r9, lsl r1
     e14:	00051d00 	andeq	r1, r5, r0, lsl #26
     e18:	0b3a0e03 	bleq	e8462c <__bss_end__+0xe7a924>
     e1c:	1349053b 	movtne	r0, #38203	; 0x953b
     e20:	00001702 	andeq	r1, r0, r2, lsl #14
     e24:	3f012e1e 	svccc	0x00012e1e
     e28:	3a0e0319 	bcc	381a94 <__bss_end__+0x377d8c>
     e2c:	27053b0b 	strcs	r3, [r5, -fp, lsl #22]
     e30:	12011119 	andne	r1, r1, #1073741830	; 0x40000006
     e34:	97184006 	ldrls	r4, [r8, -r6]
     e38:	13011942 	movwne	r1, #6466	; 0x1942
     e3c:	051f0000 	ldreq	r0, [pc, #-0]	; e44 <_start-0x71bc>
     e40:	3a080300 	bcc	201a48 <__bss_end__+0x1f7d40>
     e44:	49053b0b 	stmdbmi	r5, {r0, r1, r3, r8, r9, fp, ip, sp}
     e48:	00170213 	andseq	r0, r7, r3, lsl r2
     e4c:	00342000 	eorseq	r2, r4, r0
     e50:	0b3a0e03 	bleq	e84664 <__bss_end__+0xe7a95c>
     e54:	1349053b 	movtne	r0, #38203	; 0x953b
     e58:	00001702 	andeq	r1, r0, r2, lsl #14
     e5c:	11010b21 	tstne	r1, r1, lsr #22
     e60:	01061201 	tsteq	r6, r1, lsl #4
     e64:	22000013 	andcs	r0, r0, #19
     e68:	0e030034 	mcreq	0, 0, r0, cr3, cr4, {1}
     e6c:	0b3b0b3a 	bleq	ec3b5c <__bss_end__+0xeb9e54>
     e70:	193f1349 	ldmdbne	pc!, {r0, r3, r6, r8, r9, ip}	; <UNPREDICTABLE>
     e74:	00001802 	andeq	r1, r0, r2, lsl #16
     e78:	3f012e23 	svccc	0x00012e23
     e7c:	3a0e0319 	bcc	381ae8 <__bss_end__+0x377de0>
     e80:	270b3b0b 	strcs	r3, [fp, -fp, lsl #22]
     e84:	3c134919 	ldccc	9, cr4, [r3], {25}
     e88:	00130119 	andseq	r0, r3, r9, lsl r1
     e8c:	00052400 	andeq	r2, r5, r0, lsl #8
     e90:	00001349 	andeq	r1, r0, r9, asr #6
     e94:	49002625 	stmdbmi	r0, {r0, r2, r5, r9, sl, sp}
     e98:	26000013 			; <UNDEFINED> instruction: 0x26000013
     e9c:	00000035 	andeq	r0, r0, r5, lsr r0
     ea0:	3f012e27 	svccc	0x00012e27
     ea4:	3a0e0319 	bcc	381b10 <__bss_end__+0x377e08>
     ea8:	270b3b0b 	strcs	r3, [fp, -fp, lsl #22]
     eac:	01193c19 	tsteq	r9, r9, lsl ip
     eb0:	28000013 	stmdacs	r0, {r0, r1, r4}
     eb4:	193f002e 	ldmdbne	pc!, {r1, r2, r3, r5}	; <UNPREDICTABLE>
     eb8:	0b3a0e03 	bleq	e846cc <__bss_end__+0xe7a9c4>
     ebc:	19270b3b 	stmdbne	r7!, {r0, r1, r3, r4, r5, r8, r9, fp}
     ec0:	0000193c 	andeq	r1, r0, ip, lsr r9
     ec4:	01110100 	tsteq	r1, r0, lsl #2
     ec8:	0b130e25 	bleq	4c4764 <__bss_end__+0x4baa5c>
     ecc:	0e1b0e03 	cdpeq	14, 1, cr0, cr11, cr3, {0}
     ed0:	06120111 			; <UNDEFINED> instruction: 0x06120111
     ed4:	00001710 	andeq	r1, r0, r0, lsl r7
     ed8:	0b002402 	bleq	9ee8 <__bss_end__+0x1e0>
     edc:	030b3e0b 	movweq	r3, #48651	; 0xbe0b
     ee0:	03000008 	movweq	r0, #8
     ee4:	0b0b0024 	bleq	2c0f7c <__bss_end__+0x2b7274>
     ee8:	0e030b3e 	vmoveq.16	d3[0], r0
     eec:	2e040000 	cdpcs	0, 0, cr0, cr4, cr0, {0}
     ef0:	3a0e0301 	bcc	381afc <__bss_end__+0x377df4>
     ef4:	270b3b0b 	strcs	r3, [fp, -fp, lsl #22]
     ef8:	11134919 	tstne	r3, r9, lsl r9
     efc:	40061201 	andmi	r1, r6, r1, lsl #4
     f00:	19429718 	stmdbne	r2, {r3, r4, r8, r9, sl, ip, pc}^
     f04:	00001301 	andeq	r1, r0, r1, lsl #6
     f08:	03000505 	movweq	r0, #1285	; 0x505
     f0c:	3b0b3a08 	blcc	2cf734 <__bss_end__+0x2c5a2c>
     f10:	0213490b 	andseq	r4, r3, #180224	; 0x2c000
     f14:	06000017 			; <UNDEFINED> instruction: 0x06000017
     f18:	01018289 	smlabbeq	r1, r9, r2, r8
     f1c:	13310111 	teqne	r1, #1073741828	; 0x40000004
     f20:	8a070000 	bhi	1c0f28 <__bss_end__+0x1b7220>
     f24:	02000182 	andeq	r0, r0, #-2147483616	; 0x80000020
     f28:	18429118 	stmdane	r2, {r3, r4, r8, ip, pc}^
     f2c:	2e080000 	cdpcs	0, 0, cr0, cr8, cr0, {0}
     f30:	03193f00 	tsteq	r9, #0, 30
     f34:	3b0b3a0e 	blcc	2cf774 <__bss_end__+0x2c5a6c>
     f38:	1119270b 	tstne	r9, fp, lsl #14
     f3c:	40061201 	andmi	r1, r6, r1, lsl #4
     f40:	19429718 	stmdbne	r2, {r3, r4, r8, r9, sl, ip, pc}^
     f44:	2e090000 	cdpcs	0, 0, cr0, cr9, cr0, {0}
     f48:	03193f01 	tsteq	r9, #1, 30
     f4c:	3b0b3a0e 	blcc	2cf78c <__bss_end__+0x2c5a84>
     f50:	1119270b 	tstne	r9, fp, lsl #14
     f54:	40061201 	andmi	r1, r6, r1, lsl #4
     f58:	19429718 	stmdbne	r2, {r3, r4, r8, r9, sl, ip, pc}^
     f5c:	00001301 	andeq	r1, r0, r1, lsl #6
     f60:	0300050a 	movweq	r0, #1290	; 0x50a
     f64:	3b0b3a08 	blcc	2cf78c <__bss_end__+0x2c5a84>
     f68:	0213490b 	andseq	r4, r3, #180224	; 0x2c000
     f6c:	0b000018 	bleq	fd4 <_start-0x702c>
     f70:	19270115 	stmdbne	r7!, {r0, r2, r4, r8}
     f74:	13011349 	movwne	r1, #4937	; 0x1349
     f78:	050c0000 	streq	r0, [ip, #-0]
     f7c:	00134900 	andseq	r4, r3, r0, lsl #18
     f80:	000f0d00 	andeq	r0, pc, r0, lsl #26
     f84:	13490b0b 	movtne	r0, #39691	; 0x9b0b
     f88:	340e0000 	strcc	r0, [lr], #-0
     f8c:	3a0e0300 	bcc	381b94 <__bss_end__+0x377e8c>
     f90:	490b3b0b 	stmdbmi	fp, {r0, r1, r3, r8, r9, fp, ip, sp}
     f94:	02193f13 	andseq	r3, r9, #19, 30	; 0x4c
     f98:	0f000018 	svceq	0x00000018
     f9c:	193f012e 	ldmdbne	pc!, {r1, r2, r3, r5, r8}	; <UNPREDICTABLE>
     fa0:	0b3a0e03 	bleq	e847b4 <__bss_end__+0xe7aaac>
     fa4:	19270b3b 	stmdbne	r7!, {r0, r1, r3, r4, r5, r8, r9, fp}
     fa8:	0000193c 	andeq	r1, r0, ip, lsr r9
     fac:	01110100 	tsteq	r1, r0, lsl #2
     fb0:	0b130e25 	bleq	4c484c <__bss_end__+0x4bab44>
     fb4:	0e1b0e03 	cdpeq	14, 1, cr0, cr11, cr3, {0}
     fb8:	06120111 			; <UNDEFINED> instruction: 0x06120111
     fbc:	00001710 	andeq	r1, r0, r0, lsl r7
     fc0:	0b002402 	bleq	9fd0 <__bss_end__+0x2c8>
     fc4:	030b3e0b 	movweq	r3, #48651	; 0xbe0b
     fc8:	03000008 	movweq	r0, #8
     fcc:	0e030016 	mcreq	0, 0, r0, cr3, cr6, {0}
     fd0:	0b3b0b3a 	bleq	ec3cc0 <__bss_end__+0xeb9fb8>
     fd4:	00001349 	andeq	r1, r0, r9, asr #6
     fd8:	0b002404 	bleq	9ff0 <__bss_end__+0x2e8>
     fdc:	030b3e0b 	movweq	r3, #48651	; 0xbe0b
     fe0:	0500000e 	streq	r0, [r0, #-14]
     fe4:	0b0b000f 	bleq	2c1028 <__bss_end__+0x2b7320>
     fe8:	13060000 	movwne	r0, #24576	; 0x6000
     fec:	3a0b0b01 	bcc	2c3bf8 <__bss_end__+0x2b9ef0>
     ff0:	010b3b0b 	tsteq	fp, fp, lsl #22
     ff4:	07000013 	smladeq	r0, r3, r0, r0
     ff8:	0803000d 	stmdaeq	r3, {r0, r2, r3}
     ffc:	0b3b0b3a 	bleq	ec3cec <__bss_end__+0xeb9fe4>
    1000:	0b381349 	bleq	e05d2c <__bss_end__+0xdfc024>
    1004:	0d080000 	stceq	0, cr0, [r8, #-0]
    1008:	3a0e0300 	bcc	381c10 <__bss_end__+0x377f08>
    100c:	490b3b0b 	stmdbmi	fp, {r0, r1, r3, r8, r9, fp, ip, sp}
    1010:	000b3813 	andeq	r3, fp, r3, lsl r8
    1014:	01040900 	tsteq	r4, r0, lsl #18
    1018:	0b3a0b0b 	bleq	e83c4c <__bss_end__+0xe79f44>
    101c:	13010b3b 	movwne	r0, #6971	; 0x1b3b
    1020:	280a0000 	stmdacs	sl, {}	; <UNPREDICTABLE>
    1024:	1c0e0300 	stcne	3, cr0, [lr], {-0}
    1028:	0b00000d 	bleq	1064 <_start-0x6f9c>
    102c:	193f012e 	ldmdbne	pc!, {r1, r2, r3, r5, r8}	; <UNPREDICTABLE>
    1030:	0b3a0e03 	bleq	e84844 <__bss_end__+0xe7ab3c>
    1034:	19270b3b 	stmdbne	r7!, {r0, r1, r3, r4, r5, r8, r9, fp}
    1038:	01111349 	tsteq	r1, r9, asr #6
    103c:	18400612 	stmdane	r0, {r1, r4, r9, sl}^
    1040:	01194297 			; <UNDEFINED> instruction: 0x01194297
    1044:	0c000013 	stceq	0, cr0, [r0], {19}
    1048:	08030034 	stmdaeq	r3, {r2, r4, r5}
    104c:	0b3b0b3a 	bleq	ec3d3c <__bss_end__+0xeba034>
    1050:	061c1349 	ldreq	r1, [ip], -r9, asr #6
    1054:	890d0000 	stmdbhi	sp, {}	; <UNPREDICTABLE>
    1058:	11010182 	smlabbne	r1, r2, r1, r0
    105c:	00133101 	andseq	r3, r3, r1, lsl #2
    1060:	828a0e00 	addhi	r0, sl, #0, 28
    1064:	18020001 	stmdane	r2, {r0}
    1068:	00184291 	mulseq	r8, r1, r2
    106c:	000f0f00 	andeq	r0, pc, r0, lsl #30
    1070:	13490b0b 	movtne	r0, #39691	; 0x9b0b
    1074:	2e100000 	cdpcs	0, 1, cr0, cr0, cr0, {0}
    1078:	03193f01 	tsteq	r9, #1, 30
    107c:	3b0b3a0e 	blcc	2cf8bc <__bss_end__+0x2c5bb4>
    1080:	4919270b 	ldmdbmi	r9, {r0, r1, r3, r8, r9, sl, sp}
    1084:	00193c13 	andseq	r3, r9, r3, lsl ip
    1088:	00051100 	andeq	r1, r5, r0, lsl #2
    108c:	00001349 	andeq	r1, r0, r9, asr #6
    1090:	01110100 	tsteq	r1, r0, lsl #2
    1094:	0b130e25 	bleq	4c4930 <__bss_end__+0x4bac28>
    1098:	0e1b0e03 	cdpeq	14, 1, cr0, cr11, cr3, {0}
    109c:	06120111 			; <UNDEFINED> instruction: 0x06120111
    10a0:	00001710 	andeq	r1, r0, r0, lsl r7
    10a4:	0b002402 	bleq	a0b4 <__bss_end__+0x3ac>
    10a8:	030b3e0b 	movweq	r3, #48651	; 0xbe0b
    10ac:	0300000e 	movweq	r0, #14
    10b0:	0b0b0024 	bleq	2c1148 <__bss_end__+0x2b7440>
    10b4:	08030b3e 	stmdaeq	r3, {r1, r2, r3, r4, r5, r8, r9, fp}
    10b8:	0f040000 	svceq	0x00040000
    10bc:	000b0b00 	andeq	r0, fp, r0, lsl #22
    10c0:	000f0500 	andeq	r0, pc, r0, lsl #10
    10c4:	13490b0b 	movtne	r0, #39691	; 0x9b0b
    10c8:	16060000 	strne	r0, [r6], -r0
    10cc:	3a0e0300 	bcc	381cd4 <__bss_end__+0x377fcc>
    10d0:	490b3b0b 	stmdbmi	fp, {r0, r1, r3, r8, r9, fp, ip, sp}
    10d4:	07000013 	smladeq	r0, r3, r0, r0
    10d8:	193f012e 	ldmdbne	pc!, {r1, r2, r3, r5, r8}	; <UNPREDICTABLE>
    10dc:	0b3a0e03 	bleq	e848f0 <__bss_end__+0xe7abe8>
    10e0:	19270b3b 	stmdbne	r7!, {r0, r1, r3, r4, r5, r8, r9, fp}
    10e4:	01111349 	tsteq	r1, r9, asr #6
    10e8:	18400612 	stmdane	r0, {r1, r4, r9, sl}^
    10ec:	00194297 	mulseq	r9, r7, r2
    10f0:	00050800 	andeq	r0, r5, r0, lsl #16
    10f4:	0b3a0803 	bleq	e83108 <__bss_end__+0xe79400>
    10f8:	13490b3b 	movtne	r0, #39739	; 0x9b3b
    10fc:	00001802 	andeq	r1, r0, r2, lsl #16
    1100:	03000509 	movweq	r0, #1289	; 0x509
    1104:	3b0b3a08 	blcc	2cf92c <__bss_end__+0x2c5c24>
    1108:	0213490b 	andseq	r4, r3, #180224	; 0x2c000
    110c:	0a000017 	beq	1170 <_start-0x6e90>
    1110:	08030034 	stmdaeq	r3, {r2, r4, r5}
    1114:	0b3b0b3a 	bleq	ec3e04 <__bss_end__+0xeba0fc>
    1118:	17021349 	strne	r1, [r2, -r9, asr #6]
    111c:	340b0000 	strcc	r0, [fp], #-0
    1120:	3a080300 	bcc	201d28 <__bss_end__+0x1f8020>
    1124:	490b3b0b 	stmdbmi	fp, {r0, r1, r3, r8, r9, fp, ip, sp}
    1128:	00180213 	andseq	r0, r8, r3, lsl r2
	...

Disassembly of section .debug_aranges:

00000000 <.debug_aranges>:
   0:	0000001c 	andeq	r0, r0, ip, lsl r0
   4:	00000002 	andeq	r0, r0, r2
   8:	00040000 	andeq	r0, r4, r0
   c:	00000000 	andeq	r0, r0, r0
  10:	00008010 	andeq	r8, r0, r0, lsl r0
  14:	00000018 	andeq	r0, r0, r8, lsl r0
	...
  20:	0000001c 	andeq	r0, r0, ip, lsl r0
  24:	00e80002 	rsceq	r0, r8, r2
  28:	00040000 	andeq	r0, r4, r0
  2c:	00000000 	andeq	r0, r0, r0
  30:	00008028 	andeq	r8, r0, r8, lsr #32
  34:	00000058 	andeq	r0, r0, r8, asr r0
	...
  40:	0000001c 	andeq	r0, r0, ip, lsl r0
  44:	027d0002 	rsbseq	r0, sp, #2
  48:	00040000 	andeq	r0, r4, r0
  4c:	00000000 	andeq	r0, r0, r0
  50:	00008080 	andeq	r8, r0, r0, lsl #1
  54:	00000034 	andeq	r0, r0, r4, lsr r0
	...
  60:	0000001c 	andeq	r0, r0, ip, lsl r0
  64:	036f0002 	cmneq	pc, #2
  68:	00040000 	andeq	r0, r4, r0
  6c:	00000000 	andeq	r0, r0, r0
  70:	000080b4 	strheq	r8, [r0], -r4
  74:	000004f8 	strdeq	r0, [r0], -r8
	...
  80:	0000001c 	andeq	r0, r0, ip, lsl r0
  84:	09f40002 	ldmibeq	r4!, {r1}^
  88:	00040000 	andeq	r0, r4, r0
  8c:	00000000 	andeq	r0, r0, r0
  90:	000085ac 	andeq	r8, r0, ip, lsr #11
  94:	00000028 	andeq	r0, r0, r8, lsr #32
	...
  a0:	0000001c 	andeq	r0, r0, ip, lsl r0
  a4:	0af70002 	beq	ffdc00b4 <__bss_end__+0xffdb63ac>
  a8:	00040000 	andeq	r0, r4, r0
  ac:	00000000 	andeq	r0, r0, r0
  b0:	000085d4 	ldrdeq	r8, [r0], -r4
  b4:	000000b0 	strheq	r0, [r0], -r0	; <UNPREDICTABLE>
	...
  c0:	0000001c 	andeq	r0, r0, ip, lsl r0
  c4:	0dd80002 	ldcleq	0, cr0, [r8, #8]
  c8:	00040000 	andeq	r0, r4, r0
  cc:	00000000 	andeq	r0, r0, r0
  d0:	00008684 	andeq	r8, r0, r4, lsl #13
  d4:	00000074 	andeq	r0, r0, r4, ror r0
	...
  e0:	0000001c 	andeq	r0, r0, ip, lsl r0
  e4:	0f890002 	svceq	0x00890002
  e8:	00040000 	andeq	r0, r4, r0
  ec:	00000000 	andeq	r0, r0, r0
  f0:	000086f8 	strdeq	r8, [r0], -r8	; <UNPREDICTABLE>
  f4:	00000088 	andeq	r0, r0, r8, lsl #1
	...
 100:	0000001c 	andeq	r0, r0, ip, lsl r0
 104:	11650002 	cmnne	r5, r2
 108:	00040000 	andeq	r0, r4, r0
 10c:	00000000 	andeq	r0, r0, r0
 110:	00008780 	andeq	r8, r0, r0, lsl #15
 114:	00000620 	andeq	r0, r0, r0, lsr #12
	...
 120:	0000001c 	andeq	r0, r0, ip, lsl r0
 124:	23330002 	teqcs	r3, #2
 128:	00040000 	andeq	r0, r4, r0
 12c:	00000000 	andeq	r0, r0, r0
 130:	00008da0 	andeq	r8, r0, r0, lsr #27
 134:	00000154 	andeq	r0, r0, r4, asr r1
	...
 140:	0000001c 	andeq	r0, r0, ip, lsl r0
 144:	27360002 	ldrcs	r0, [r6, -r2]!
 148:	00040000 	andeq	r0, r4, r0
 14c:	00000000 	andeq	r0, r0, r0
 150:	00008f58 	andeq	r8, r0, r8, asr pc
 154:	000005bc 			; <UNDEFINED> instruction: 0x000005bc
	...
 160:	0000001c 	andeq	r0, r0, ip, lsl r0
 164:	30090002 	andcc	r0, r9, r2
 168:	00040000 	andeq	r0, r4, r0
 16c:	00000000 	andeq	r0, r0, r0
 170:	00009514 	andeq	r9, r0, r4, lsl r5
 174:	0000003c 	andeq	r0, r0, ip, lsr r0
	...
 180:	0000001c 	andeq	r0, r0, ip, lsl r0
 184:	31200002 	teqcc	r0, r2
 188:	00040000 	andeq	r0, r4, r0
 18c:	00000000 	andeq	r0, r0, r0
 190:	00009550 	andeq	r9, r0, r0, asr r5
 194:	00000050 	andeq	r0, r0, r0, asr r0
	...
 1a0:	0000001c 	andeq	r0, r0, ip, lsl r0
 1a4:	32e70002 	rsccc	r0, r7, #2
 1a8:	00040000 	andeq	r0, r4, r0
 1ac:	00000000 	andeq	r0, r0, r0
 1b0:	000095a0 	andeq	r9, r0, r0, lsr #11
 1b4:	00000020 	andeq	r0, r0, r0, lsr #32
	...

Disassembly of section .debug_line:

00000000 <.debug_line>:
   0:	00000084 	andeq	r0, r0, r4, lsl #1
   4:	006e0002 	rsbeq	r0, lr, r2
   8:	01020000 	mrseq	r0, (UNDEF: 2)
   c:	000d0efb 	strdeq	r0, [sp], -fp
  10:	01010101 	tsteq	r1, r1, lsl #2
  14:	01000000 	mrseq	r0, (UNDEF: 0)
  18:	2f010000 	svccs	0x00010000
  1c:	72657355 	rsbvc	r7, r5, #1409286145	; 0x54000001
  20:	72622f73 	rsbvc	r2, r2, #460	; 0x1cc
  24:	6a6e6169 	bvs	1b985d0 <__bss_end__+0x1b8e8c8>
  28:	442f6e75 	strtmi	r6, [pc], #-3701	; 30 <_start-0x7fd0>
  2c:	746b7365 	strbtvc	r7, [fp], #-869	; 0x365
  30:	732f706f 	teqvc	pc, #111	; 0x6f
  34:	6f6f6863 	svcvs	0x006f6863
  38:	69572f6c 	ldmdbvs	r7, {r2, r3, r5, r6, r8, r9, sl, fp, sp}^
  3c:	7265746e 	rsbvc	r7, r5, #1845493760	; 0x6e000000
  40:	30323931 	eorscc	r3, r2, r1, lsr r9
  44:	3153432f 	cmpcc	r3, pc, lsr #6
  48:	2f453034 	svccs	0x00453034
  4c:	34317363 	ldrtcc	r7, [r1], #-867	; 0x363
  50:	322d6530 	eorcc	r6, sp, #48, 10	; 0xc000000
  54:	6e697730 	mcrvs	7, 3, r7, cr9, cr0, {1}
  58:	62696c2f 	rsbvs	r6, r9, #12032	; 0x2f00
  5c:	00006970 	andeq	r6, r0, r0, ror r9
  60:	65722d30 	ldrbvs	r2, [r2, #-3376]!	; 0xd30
  64:	746f6f62 	strbtvc	r6, [pc], #-3938	; 6c <_start-0x7f94>
  68:	0000632e 	andeq	r6, r0, lr, lsr #6
  6c:	70720000 	rsbsvc	r0, r2, r0
  70:	00682e69 	rsbeq	r2, r8, r9, ror #28
  74:	00000001 	andeq	r0, r0, r1
  78:	10020500 	andne	r0, r2, r0, lsl #10
  7c:	15000080 	strne	r0, [r0, #-128]	; 0x80
  80:	024b2f2f 	subeq	r2, fp, #47, 30	; 0xbc
  84:	01010004 	tsteq	r1, r4
  88:	00000102 	andeq	r0, r0, r2, lsl #2
  8c:	00eb0002 	rsceq	r0, fp, r2
  90:	01020000 	mrseq	r0, (UNDEF: 2)
  94:	000d0efb 	strdeq	r0, [sp], -fp
  98:	01010101 	tsteq	r1, r1, lsl #2
  9c:	01000000 	mrseq	r0, (UNDEF: 0)
  a0:	6c010000 	stcvs	0, cr0, [r1], {-0}
  a4:	00636269 	rsbeq	r6, r3, r9, ror #4
  a8:	7273752f 	rsbsvc	r7, r3, #197132288	; 0xbc00000
  ac:	636f6c2f 	cmnvs	pc, #12032	; 0x2f00
  b0:	432f6c61 	teqmi	pc, #24832	; 0x6100
  b4:	616c6c65 	cmnvs	ip, r5, ror #24
  b8:	72612f72 	rsbvc	r2, r1, #456	; 0x1c8
  bc:	6f6e2d6d 	svcvs	0x006e2d6d
  c0:	652d656e 	strvs	r6, [sp, #-1390]!	; 0x56e
  c4:	2f696261 	svccs	0x00696261
  c8:	2e382e34 	mrccs	14, 1, r2, cr8, cr4, {1}
  cc:	73632d33 	cmnvc	r3, #3264	; 0xcc0
  d0:	65303731 	ldrvs	r3, [r0, #-1841]!	; 0x731
  d4:	62696c2f 	rsbvs	r6, r9, #12032	; 0x2f00
  d8:	6363672f 	cmnvs	r3, #12320768	; 0xbc0000
  dc:	6d72612f 	ldfvse	f6, [r2, #-188]!	; 0xffffff44
  e0:	6e6f6e2d 	cdpvs	14, 6, cr6, cr15, cr13, {1}
  e4:	61652d65 	cmnvs	r5, r5, ror #26
  e8:	342f6962 	strtcc	r6, [pc], #-2402	; f0 <_start-0x7f10>
  ec:	332e382e 	teqcc	lr, #3014656	; 0x2e0000
  f0:	636e692f 	cmnvs	lr, #770048	; 0xbc000
  f4:	6564756c 	strbvs	r7, [r4, #-1388]!	; 0x56c
  f8:	73552f00 	cmpvc	r5, #0, 30
  fc:	2f737265 	svccs	0x00737265
 100:	61697262 	cmnvs	r9, r2, ror #4
 104:	6e756a6e 	vsubvs.f32	s13, s10, s29
 108:	7365442f 	cmnvc	r5, #788529152	; 0x2f000000
 10c:	706f746b 	rsbvc	r7, pc, fp, ror #8
 110:	6863732f 	stmdavs	r3!, {r0, r1, r2, r3, r5, r8, r9, ip, sp, lr}^
 114:	2f6c6f6f 	svccs	0x006c6f6f
 118:	746e6957 	strbtvc	r6, [lr], #-2391	; 0x957
 11c:	39317265 	ldmdbcc	r1!, {r0, r2, r5, r6, r9, ip, sp, lr}
 120:	432f3032 	teqmi	pc, #50	; 0x32
 124:	30343153 	eorscc	r3, r4, r3, asr r1
 128:	73632f45 	cmnvc	r3, #276	; 0x114
 12c:	65303431 	ldrvs	r3, [r0, #-1073]!	; 0x431
 130:	7730322d 	ldrvc	r3, [r0, -sp, lsr #4]!
 134:	6c2f6e69 	stcvs	14, cr6, [pc], #-420	; ffffff98 <__bss_end__+0xffff6290>
 138:	69706269 	ldmdbvs	r0!, {r0, r3, r5, r6, r9, sp, lr}^
 13c:	72700000 	rsbsvc	r0, r0, #0
 140:	6b746e69 	blvs	1d1baec <__bss_end__+0x1d11de4>
 144:	0100632e 	tsteq	r0, lr, lsr #6
 148:	74730000 	ldrbtvc	r0, [r3], #-0
 14c:	67726164 	ldrbvs	r6, [r2, -r4, ror #2]!
 150:	0200682e 	andeq	r6, r0, #3014656	; 0x2e0000
 154:	623c0000 	eorsvs	r0, ip, #0
 158:	746c6975 	strbtvc	r6, [ip], #-2421	; 0x975
 15c:	3e6e692d 	cdpcc	9, 6, cr6, cr14, cr13, {1}
 160:	00000000 	andeq	r0, r0, r0
 164:	2e697072 	mcrcs	0, 3, r7, cr9, cr2, {3}
 168:	00030068 	andeq	r0, r3, r8, rrx
 16c:	2d617600 	stclcs	6, cr7, [r1, #-0]
 170:	6e697270 	mcrvs	2, 3, r7, cr9, cr0, {3}
 174:	682e6b74 	stmdavs	lr!, {r2, r4, r5, r6, r8, r9, fp, sp, lr}
 178:	00000100 	andeq	r0, r0, r0, lsl #2
 17c:	02050000 	andeq	r0, r5, #0
 180:	00008028 	andeq	r8, r0, r8, lsr #32
 184:	bf4b6b17 	svclt	0x004b6b17
 188:	000e0289 	andeq	r0, lr, r9, lsl #5
 18c:	00960101 	addseq	r0, r6, r1, lsl #2
 190:	00020000 	andeq	r0, r2, r0
 194:	0000006f 	andeq	r0, r0, pc, rrx
 198:	0efb0102 	cdpeq	1, 15, cr0, cr11, cr2, {0}
 19c:	0101000d 	tsteq	r1, sp
 1a0:	00000101 	andeq	r0, r0, r1, lsl #2
 1a4:	00000100 	andeq	r0, r0, r0, lsl #2
 1a8:	62696c01 	rsbvs	r6, r9, #256	; 0x100
 1ac:	552f0063 	strpl	r0, [pc, #-99]!	; 151 <_start-0x7eaf>
 1b0:	73726573 	cmnvc	r2, #482344960	; 0x1cc00000
 1b4:	6972622f 	ldmdbvs	r2!, {r0, r1, r2, r3, r5, r9, sp, lr}^
 1b8:	756a6e61 	strbvc	r6, [sl, #-3681]!	; 0xe61
 1bc:	65442f6e 	strbvs	r2, [r4, #-3950]	; 0xf6e
 1c0:	6f746b73 	svcvs	0x00746b73
 1c4:	63732f70 	cmnvs	r3, #112, 30	; 0x1c0
 1c8:	6c6f6f68 	stclvs	15, cr6, [pc], #-416	; 30 <_start-0x7fd0>
 1cc:	6e69572f 	cdpvs	7, 6, cr5, cr9, cr15, {1}
 1d0:	31726574 	cmncc	r2, r4, ror r5
 1d4:	2f303239 	svccs	0x00303239
 1d8:	34315343 	ldrtcc	r5, [r1], #-835	; 0x343
 1dc:	632f4530 	teqvs	pc, #48, 10	; 0xc000000
 1e0:	30343173 	eorscc	r3, r4, r3, ror r1
 1e4:	30322d65 	eorscc	r2, r2, r5, ror #26
 1e8:	2f6e6977 	svccs	0x006e6977
 1ec:	7062696c 	rsbvc	r6, r2, ip, ror #18
 1f0:	70000069 	andvc	r0, r0, r9, rrx
 1f4:	2e6b7475 	mcrcs	4, 3, r7, cr11, cr5, {3}
 1f8:	00010063 	andeq	r0, r1, r3, rrx
 1fc:	69707200 	ldmdbvs	r0!, {r9, ip, sp, lr}^
 200:	0200682e 	andeq	r6, r0, #3014656	; 0x2e0000
 204:	00000000 	andeq	r0, r0, r0
 208:	80800205 	addhi	r0, r0, r5, lsl #4
 20c:	4c150000 	ldcmi	0, cr0, [r5], {-0}
 210:	0402002d 	streq	r0, [r2], #-45	; 0x2d
 214:	02002f02 	andeq	r2, r0, #2, 30
 218:	00490204 	subeq	r0, r9, r4, lsl #4
 21c:	06010402 	streq	r0, [r1], -r2, lsl #8
 220:	026b062e 	rsbeq	r0, fp, #48234496	; 0x2e00000
 224:	01010006 	tsteq	r1, r6
 228:	000001de 	ldrdeq	r0, [r0], -lr
 22c:	00df0002 	sbcseq	r0, pc, r2
 230:	01020000 	mrseq	r0, (UNDEF: 2)
 234:	000d0efb 	strdeq	r0, [sp], -fp
 238:	01010101 	tsteq	r1, r1, lsl #2
 23c:	01000000 	mrseq	r0, (UNDEF: 0)
 240:	6c010000 	stcvs	0, cr0, [r1], {-0}
 244:	00636269 	rsbeq	r6, r3, r9, ror #4
 248:	7273752f 	rsbsvc	r7, r3, #197132288	; 0xbc00000
 24c:	636f6c2f 	cmnvs	pc, #12032	; 0x2f00
 250:	432f6c61 	teqmi	pc, #24832	; 0x6100
 254:	616c6c65 	cmnvs	ip, r5, ror #24
 258:	72612f72 	rsbvc	r2, r1, #456	; 0x1c8
 25c:	6f6e2d6d 	svcvs	0x006e2d6d
 260:	652d656e 	strvs	r6, [sp, #-1390]!	; 0x56e
 264:	2f696261 	svccs	0x00696261
 268:	2e382e34 	mrccs	14, 1, r2, cr8, cr4, {1}
 26c:	73632d33 	cmnvc	r3, #3264	; 0xcc0
 270:	65303731 	ldrvs	r3, [r0, #-1841]!	; 0x731
 274:	62696c2f 	rsbvs	r6, r9, #12032	; 0x2f00
 278:	6363672f 	cmnvs	r3, #12320768	; 0xbc0000
 27c:	6d72612f 	ldfvse	f6, [r2, #-188]!	; 0xffffff44
 280:	6e6f6e2d 	cdpvs	14, 6, cr6, cr15, cr13, {1}
 284:	61652d65 	cmnvs	r5, r5, ror #26
 288:	342f6962 	strtcc	r6, [pc], #-2402	; 290 <_start-0x7d70>
 28c:	332e382e 	teqcc	lr, #3014656	; 0x2e0000
 290:	636e692f 	cmnvs	lr, #770048	; 0xbc000
 294:	6564756c 	strbvs	r7, [r4, #-1388]!	; 0x56c
 298:	73552f00 	cmpvc	r5, #0, 30
 29c:	2f737265 	svccs	0x00737265
 2a0:	61697262 	cmnvs	r9, r2, ror #4
 2a4:	6e756a6e 	vsubvs.f32	s13, s10, s29
 2a8:	7365442f 	cmnvc	r5, #788529152	; 0x2f000000
 2ac:	706f746b 	rsbvc	r7, pc, fp, ror #8
 2b0:	6863732f 	stmdavs	r3!, {r0, r1, r2, r3, r5, r8, r9, ip, sp, lr}^
 2b4:	2f6c6f6f 	svccs	0x006c6f6f
 2b8:	746e6957 	strbtvc	r6, [lr], #-2391	; 0x957
 2bc:	39317265 	ldmdbcc	r1!, {r0, r2, r5, r6, r9, ip, sp, lr}
 2c0:	432f3032 	teqmi	pc, #50	; 0x32
 2c4:	30343153 	eorscc	r3, r4, r3, asr r1
 2c8:	73632f45 	cmnvc	r3, #276	; 0x114
 2cc:	65303431 	ldrvs	r3, [r0, #-1073]!	; 0x431
 2d0:	7730322d 	ldrvc	r3, [r0, -sp, lsr #4]!
 2d4:	6c2f6e69 	stcvs	14, cr6, [pc], #-420	; 138 <_start-0x7ec8>
 2d8:	69706269 	ldmdbvs	r0!, {r0, r3, r5, r6, r9, sp, lr}^
 2dc:	61760000 	cmnvs	r6, r0
 2e0:	6972702d 	ldmdbvs	r2!, {r0, r2, r3, r5, ip, sp, lr}^
 2e4:	2e6b746e 	cdpcs	4, 6, cr7, cr11, cr14, {3}
 2e8:	00010063 	andeq	r0, r1, r3, rrx
 2ec:	64747300 	ldrbtvs	r7, [r4], #-768	; 0x300
 2f0:	2e677261 	cdpcs	2, 6, cr7, cr7, cr1, {3}
 2f4:	00020068 	andeq	r0, r2, r8, rrx
 2f8:	69707200 	ldmdbvs	r0!, {r9, ip, sp, lr}^
 2fc:	0300682e 	movweq	r6, #2094	; 0x82e
 300:	623c0000 	eorsvs	r0, ip, #0
 304:	746c6975 	strbtvc	r6, [ip], #-2421	; 0x975
 308:	3e6e692d 	cdpcc	9, 6, cr6, cr14, cr13, {1}
 30c:	00000000 	andeq	r0, r0, r0
 310:	02050000 	andeq	r0, r5, #0
 314:	000080b4 	strheq	r8, [r0], -r4
 318:	01012603 	tsteq	r1, r3, lsl #12
 31c:	2d3113a5 	ldccs	3, cr1, [r1, #-660]!	; 0xfffffd6c
 320:	02040200 	andeq	r0, r4, #0, 4
 324:	0402002f 	streq	r0, [r2], #-47	; 0x2f
 328:	02002d02 	andeq	r2, r0, #2, 26	; 0x80
 32c:	002f0204 	eoreq	r0, pc, r4, lsl #4
 330:	2d010402 	cfstrscs	mvf0, [r1, #-8]
 334:	14304c4c 	ldrtne	r4, [r0], #-3148	; 0xc4c
 338:	004f2f4b 	subeq	r2, pc, fp, asr #30
 33c:	67020402 	strvs	r0, [r2, -r2, lsl #8]
 340:	01040200 	mrseq	r0, R12_usr
 344:	304d4c65 	subcc	r4, sp, r5, ror #24
 348:	30312fa0 	eorscc	r2, r1, r0, lsr #31
 34c:	84162602 	ldrhi	r2, [r6], #-1538	; 0x602
 350:	02002c2d 	andeq	r2, r0, #11520	; 0x2d00
 354:	00300104 	eorseq	r0, r0, r4, lsl #2
 358:	33010402 	movwcc	r0, #5122	; 0x1402
 35c:	02006606 	andeq	r6, r0, #6291456	; 0x600000
 360:	002e0104 	eoreq	r0, lr, r4, lsl #2
 364:	06010402 	streq	r0, [r1], -r2, lsl #8
 368:	2f672108 	svccs	0x00672108
 36c:	03827303 	orreq	r7, r2, #201326592	; 0xc000000
 370:	02002e13 	andeq	r2, r0, #304	; 0x130
 374:	2e060104 	adfcss	f0, f6, f4
 378:	01040200 	mrseq	r0, R12_usr
 37c:	4b6a9f06 	blmi	1aa7f9c <__bss_end__+0x1a9e294>
 380:	032e6703 	teqeq	lr, #786432	; 0xc0000
 384:	02002e21 	andeq	r2, r0, #528	; 0x210
 388:	2e060104 	adfcss	f0, f6, f4
 38c:	01040200 	mrseq	r0, R12_usr
 390:	02009f06 	andeq	r9, r0, #6, 30
 394:	d96a0104 	stmdble	sl!, {r2, r8}^
 398:	7fa603f3 	svcvc	0x00a603f3
 39c:	002f2008 	eoreq	r2, pc, r8
 3a0:	06010402 	streq	r0, [r1], -r2, lsl #8
 3a4:	4bd7064a 	blmi	ff5c1cd4 <__bss_end__+0xff5b7fcc>
 3a8:	00da032f 	sbcseq	r0, sl, pc, lsr #6
 3ac:	484c83f2 	stmdami	ip, {r1, r4, r5, r6, r7, r8, r9, pc}^
 3b0:	032e0e03 	teqeq	lr, #3, 28	; 0x30
 3b4:	2f2f2e75 	svccs	0x002f2e75
 3b8:	2d2f4b84 	vstmdbcs	pc!, {d4-d5}
 3bc:	2f30314d 	svccs	0x0030314d
 3c0:	04020083 	streq	r0, [r2], #-131	; 0x83
 3c4:	00a22c01 	adceq	r2, r2, r1, lsl #24
 3c8:	06010402 	streq	r0, [r1], -r2, lsl #8
 3cc:	02d8064a 	sbcseq	r0, r8, #77594624	; 0x4a00000
 3d0:	0e031636 	mcreq	6, 0, r1, cr3, cr6, {1}
 3d4:	302108d6 	ldrdcc	r0, [r1], -r6	; <UNPREDICTABLE>
 3d8:	30f331f3 	ldrshtcc	r3, [r3], #19
 3dc:	304b30f3 	strdcc	r3, [fp], #-3
 3e0:	230830f3 	movwcs	r3, #33011	; 0x80f3
 3e4:	02002f31 	andeq	r2, r0, #49, 30	; 0xc4
 3e8:	00650104 	rsbeq	r0, r5, r4, lsl #2
 3ec:	06020402 	streq	r0, [r2], -r2, lsl #8
 3f0:	0402004a 	streq	r0, [r2], #-74	; 0x4a
 3f4:	42030601 	andmi	r0, r3, #1048576	; 0x100000
 3f8:	04020066 	streq	r0, [r2], #-102	; 0x66
 3fc:	06660602 	strbteq	r0, [r6], -r2, lsl #12
 400:	4a00c203 	bmi	30c14 <__bss_end__+0x26f0c>
 404:	00100268 	andseq	r0, r0, r8, ror #4
 408:	00930101 	addseq	r0, r3, r1, lsl #2
 40c:	00020000 	andeq	r0, r2, r0
 410:	0000007d 	andeq	r0, r0, sp, ror r0
 414:	0efb0102 	cdpeq	1, 15, cr0, cr11, cr2, {0}
 418:	0101000d 	tsteq	r1, sp
 41c:	00000101 	andeq	r0, r0, r1, lsl #2
 420:	00000100 	andeq	r0, r0, r0, lsl #2
 424:	31736301 	cmncc	r3, r1, lsl #6
 428:	2d653034 	stclcs	0, cr3, [r5, #-208]!	; 0xffffff30
 42c:	00637273 	rsbeq	r7, r3, r3, ror r2
 430:	6573552f 	ldrbvs	r5, [r3, #-1327]!	; 0x52f
 434:	622f7372 	eorvs	r7, pc, #-939524095	; 0xc8000001
 438:	6e616972 	mcrvs	9, 3, r6, cr1, cr2, {3}
 43c:	2f6e756a 	svccs	0x006e756a
 440:	6b736544 	blvs	1cd9958 <__bss_end__+0x1ccfc50>
 444:	2f706f74 	svccs	0x00706f74
 448:	6f686373 	svcvs	0x00686373
 44c:	572f6c6f 	strpl	r6, [pc, -pc, ror #24]!
 450:	65746e69 	ldrbvs	r6, [r4, #-3689]!	; 0xe69
 454:	32393172 	eorscc	r3, r9, #-2147483620	; 0x8000001c
 458:	53432f30 	movtpl	r2, #16176	; 0x3f30
 45c:	45303431 	ldrmi	r3, [r0, #-1073]!	; 0x431
 460:	3173632f 	cmncc	r3, pc, lsr #6
 464:	2d653034 	stclcs	0, cr3, [r5, #-208]!	; 0xffffff30
 468:	69773032 	ldmdbvs	r7!, {r1, r4, r5, ip, sp}^
 46c:	696c2f6e 	stmdbvs	ip!, {r1, r2, r3, r5, r6, r8, r9, sl, fp, sp}^
 470:	00697062 	rsbeq	r7, r9, r2, rrx
 474:	656c6300 	strbvs	r6, [ip, #-768]!	; 0x300
 478:	722d6e61 	eorvc	r6, sp, #1552	; 0x610
 47c:	6f6f6265 	svcvs	0x006f6265
 480:	00632e74 	rsbeq	r2, r3, r4, ror lr
 484:	72000001 	andvc	r0, r0, #1
 488:	682e6970 	stmdavs	lr!, {r4, r5, r6, r8, fp, sp, lr}
 48c:	00000200 	andeq	r0, r0, r0, lsl #4
 490:	02050000 	andeq	r0, r5, #0
 494:	000085ac 	andeq	r8, r0, ip, lsr #11
 498:	4b832f15 	blmi	fe0cc0f4 <__bss_end__+0xfe0c23ec>
 49c:	01000602 	tsteq	r0, r2, lsl #12
 4a0:	00012101 	andeq	r2, r1, r1, lsl #2
 4a4:	f8000200 			; <UNDEFINED> instruction: 0xf8000200
 4a8:	02000000 	andeq	r0, r0, #0
 4ac:	0d0efb01 	vstreq	d15, [lr, #-4]
 4b0:	01010100 	mrseq	r0, (UNDEF: 17)
 4b4:	00000001 	andeq	r0, r0, r1
 4b8:	01000001 	tsteq	r0, r1
 4bc:	34317363 	ldrtcc	r7, [r1], #-867	; 0x363
 4c0:	732d6530 	teqvc	sp, #48, 10	; 0xc000000
 4c4:	2f006372 	svccs	0x00006372
 4c8:	2f727375 	svccs	0x00727375
 4cc:	61636f6c 	cmnvs	r3, ip, ror #30
 4d0:	65432f6c 	strbvs	r2, [r3, #-3948]	; 0xf6c
 4d4:	72616c6c 	rsbvc	r6, r1, #108, 24	; 0x6c00
 4d8:	6d72612f 	ldfvse	f6, [r2, #-188]!	; 0xffffff44
 4dc:	6e6f6e2d 	cdpvs	14, 6, cr6, cr15, cr13, {1}
 4e0:	61652d65 	cmnvs	r5, r5, ror #26
 4e4:	342f6962 	strtcc	r6, [pc], #-2402	; 4ec <_start-0x7b14>
 4e8:	332e382e 	teqcc	lr, #3014656	; 0x2e0000
 4ec:	3173632d 	cmncc	r3, sp, lsr #6
 4f0:	2f653037 	svccs	0x00653037
 4f4:	2f62696c 	svccs	0x0062696c
 4f8:	2f636367 	svccs	0x00636367
 4fc:	2d6d7261 	sfmcs	f7, 2, [sp, #-388]!	; 0xfffffe7c
 500:	656e6f6e 	strbvs	r6, [lr, #-3950]!	; 0xf6e
 504:	6261652d 	rsbvs	r6, r1, #188743680	; 0xb400000
 508:	2e342f69 	cdpcs	15, 3, cr2, cr4, cr9, {3}
 50c:	2f332e38 	svccs	0x00332e38
 510:	6c636e69 	stclvs	14, cr6, [r3], #-420	; 0xfffffe5c
 514:	00656475 	rsbeq	r6, r5, r5, ror r4
 518:	6573552f 	ldrbvs	r5, [r3, #-1327]!	; 0x52f
 51c:	622f7372 	eorvs	r7, pc, #-939524095	; 0xc8000001
 520:	6e616972 	mcrvs	9, 3, r6, cr1, cr2, {3}
 524:	2f6e756a 	svccs	0x006e756a
 528:	6b736544 	blvs	1cd9a40 <__bss_end__+0x1ccfd38>
 52c:	2f706f74 	svccs	0x00706f74
 530:	6f686373 	svcvs	0x00686373
 534:	572f6c6f 	strpl	r6, [pc, -pc, ror #24]!
 538:	65746e69 	ldrbvs	r6, [r4, #-3689]!	; 0xe69
 53c:	32393172 	eorscc	r3, r9, #-2147483620	; 0x8000001c
 540:	53432f30 	movtpl	r2, #16176	; 0x3f30
 544:	45303431 	ldrmi	r3, [r0, #-1073]!	; 0x431
 548:	3173632f 	cmncc	r3, pc, lsr #6
 54c:	2d653034 	stclcs	0, cr3, [r5, #-208]!	; 0xffffff30
 550:	69773032 	ldmdbvs	r7!, {r1, r4, r5, ip, sp}^
 554:	696c2f6e 	stmdbvs	ip!, {r1, r2, r3, r5, r6, r8, r9, sl, fp, sp}^
 558:	00697062 	rsbeq	r7, r9, r2, rrx
 55c:	74736300 	ldrbtvc	r6, [r3], #-768	; 0x300
 560:	2e747261 	cdpcs	2, 7, cr7, cr4, cr1, {3}
 564:	00010063 	andeq	r0, r1, r3, rrx
 568:	64747300 	ldrbtvs	r7, [r4], #-768	; 0x300
 56c:	2d746e69 	ldclcs	14, cr6, [r4, #-420]!	; 0xfffffe5c
 570:	2e636367 	cdpcs	3, 6, cr6, cr3, cr7, {3}
 574:	00020068 	andeq	r0, r2, r8, rrx
 578:	2d777300 	ldclcs	3, cr7, [r7, #-0]
 57c:	74726175 	ldrbtvc	r6, [r2], #-373	; 0x175
 580:	0100682e 	tsteq	r0, lr, lsr #16
 584:	6f630000 	svcvs	0x00630000
 588:	6f72746e 	svcvs	0x0072746e
 58c:	6c622d6c 	stclvs	13, cr2, [r2], #-432	; 0xfffffe50
 590:	2e6b636f 	cdpcs	3, 6, cr6, cr11, cr15, {3}
 594:	00010068 	andeq	r0, r1, r8, rrx
 598:	69707200 	ldmdbvs	r0!, {r9, ip, sp, lr}^
 59c:	0300682e 	movweq	r6, #2094	; 0x82e
 5a0:	00000000 	andeq	r0, r0, r0
 5a4:	85d40205 	ldrbhi	r0, [r4, #517]	; 0x205
 5a8:	4b170000 	blmi	5c05b0 <__bss_end__+0x5b68a8>
 5ac:	31326868 	teqcc	r2, r8, ror #16
 5b0:	002f2d2f 	eoreq	r2, pc, pc, lsr #26
 5b4:	49010402 	stmdbmi	r1, {r1, sl}
 5b8:	674b2f4f 	strbvs	r2, [fp, -pc, asr #30]
 5bc:	4e678367 	cdpmi	3, 6, cr8, cr7, cr7, {3}
 5c0:	0010022f 	andseq	r0, r0, pc, lsr #4
 5c4:	00990101 	addseq	r0, r9, r1, lsl #2
 5c8:	00020000 	andeq	r0, r2, r0
 5cc:	00000077 	andeq	r0, r0, r7, ror r0
 5d0:	0efb0102 	cdpeq	1, 15, cr0, cr11, cr2, {0}
 5d4:	0101000d 	tsteq	r1, sp
 5d8:	00000101 	andeq	r0, r0, r1, lsl #2
 5dc:	00000100 	andeq	r0, r0, r0, lsl #2
 5e0:	31736301 	cmncc	r3, r1, lsl #6
 5e4:	2d653034 	stclcs	0, cr3, [r5, #-208]!	; 0xffffff30
 5e8:	00637273 	rsbeq	r7, r3, r3, ror r2
 5ec:	6573552f 	ldrbvs	r5, [r3, #-1327]!	; 0x52f
 5f0:	622f7372 	eorvs	r7, pc, #-939524095	; 0xc8000001
 5f4:	6e616972 	mcrvs	9, 3, r6, cr1, cr2, {3}
 5f8:	2f6e756a 	svccs	0x006e756a
 5fc:	6b736544 	blvs	1cd9b14 <__bss_end__+0x1ccfe0c>
 600:	2f706f74 	svccs	0x00706f74
 604:	6f686373 	svcvs	0x00686373
 608:	572f6c6f 	strpl	r6, [pc, -pc, ror #24]!
 60c:	65746e69 	ldrbvs	r6, [r4, #-3689]!	; 0xe69
 610:	32393172 	eorscc	r3, r9, #-2147483620	; 0x8000001c
 614:	53432f30 	movtpl	r2, #16176	; 0x3f30
 618:	45303431 	ldrmi	r3, [r0, #-1073]!	; 0x431
 61c:	3173632f 	cmncc	r3, pc, lsr #6
 620:	2d653034 	stclcs	0, cr3, [r5, #-208]!	; 0xffffff30
 624:	69773032 	ldmdbvs	r7!, {r1, r4, r5, ip, sp}^
 628:	696c2f6e 	stmdbvs	ip!, {r1, r2, r3, r5, r6, r8, r9, sl, fp, sp}^
 62c:	00697062 	rsbeq	r7, r9, r2, rrx
 630:	62657200 	rsbvs	r7, r5, #0, 4
 634:	2e746f6f 	cdpcs	15, 7, cr6, cr4, cr15, {3}
 638:	00010063 	andeq	r0, r1, r3, rrx
 63c:	69707200 	ldmdbvs	r0!, {r9, ip, sp, lr}^
 640:	0200682e 	andeq	r6, r0, #3014656	; 0x2e0000
 644:	00000000 	andeq	r0, r0, r0
 648:	86840205 	strhi	r0, [r4], r5, lsl #4
 64c:	0d030000 	stceq	0, cr0, [r3, #-0]
 650:	2f311401 	svccs	0x00311401
 654:	4b2f1585 	blmi	bc5c70 <__bss_end__+0xbbbf68>
 658:	35672f4d 	strbcc	r2, [r7, #-3917]!	; 0xf4d
 65c:	10026752 	andne	r6, r2, r2, asr r7
 660:	a3010100 	movwge	r0, #4352	; 0x1100
 664:	02000000 	andeq	r0, r0, #0
 668:	00007600 	andeq	r7, r0, r0, lsl #12
 66c:	fb010200 	blx	40e76 <__bss_end__+0x3716e>
 670:	01000d0e 	tsteq	r0, lr, lsl #26
 674:	00010101 	andeq	r0, r1, r1, lsl #2
 678:	00010000 	andeq	r0, r1, r0
 67c:	73630100 	cmnvc	r3, #0, 2
 680:	65303431 	ldrvs	r3, [r0, #-1073]!	; 0x431
 684:	6372732d 	cmnvs	r2, #-1275068416	; 0xb4000000
 688:	73552f00 	cmpvc	r5, #0, 30
 68c:	2f737265 	svccs	0x00737265
 690:	61697262 	cmnvs	r9, r2, ror #4
 694:	6e756a6e 	vsubvs.f32	s13, s10, s29
 698:	7365442f 	cmnvc	r5, #788529152	; 0x2f000000
 69c:	706f746b 	rsbvc	r7, pc, fp, ror #8
 6a0:	6863732f 	stmdavs	r3!, {r0, r1, r2, r3, r5, r8, r9, ip, sp, lr}^
 6a4:	2f6c6f6f 	svccs	0x006c6f6f
 6a8:	746e6957 	strbtvc	r6, [lr], #-2391	; 0x957
 6ac:	39317265 	ldmdbcc	r1!, {r0, r2, r5, r6, r9, ip, sp, lr}
 6b0:	432f3032 	teqmi	pc, #50	; 0x32
 6b4:	30343153 	eorscc	r3, r4, r3, asr r1
 6b8:	73632f45 	cmnvc	r3, #276	; 0x114
 6bc:	65303431 	ldrvs	r3, [r0, #-1073]!	; 0x431
 6c0:	7730322d 	ldrvc	r3, [r0, -sp, lsr #4]!
 6c4:	6c2f6e69 	stcvs	14, cr6, [pc], #-420	; 528 <_start-0x7ad8>
 6c8:	69706269 	ldmdbvs	r0!, {r0, r3, r5, r6, r9, sp, lr}^
 6cc:	69740000 	ldmdbvs	r4!, {}^	; <UNPREDICTABLE>
 6d0:	2e72656d 	cdpcs	5, 7, cr6, cr2, cr13, {3}
 6d4:	00010063 	andeq	r0, r1, r3, rrx
 6d8:	69707200 	ldmdbvs	r0!, {r9, ip, sp, lr}^
 6dc:	0200682e 	andeq	r6, r0, #3014656	; 0x2e0000
 6e0:	00000000 	andeq	r0, r0, r0
 6e4:	86f80205 	ldrbthi	r0, [r8], r5, lsl #4
 6e8:	13160000 	tstne	r6, #0
 6ec:	02002d2f 	andeq	r2, r0, #3008	; 0xbc0
 6f0:	2e060104 	adfcss	f0, f6, f4
 6f4:	2f316806 	svccs	0x00316806
 6f8:	31324d4b 	teqcc	r2, fp, asr #26
 6fc:	2f4c4b30 	svccs	0x004c4b30
 700:	842f2f6a 	strthi	r2, [pc], #-3946	; 708 <_start-0x78f8>
 704:	0008022f 	andeq	r0, r8, pc, lsr #4
 708:	03450101 	movteq	r0, #20737	; 0x5101
 70c:	00020000 	andeq	r0, r2, r0
 710:	000001bd 			; <UNDEFINED> instruction: 0x000001bd
 714:	0efb0102 	cdpeq	1, 15, cr0, cr11, cr2, {0}
 718:	0101000d 	tsteq	r1, sp
 71c:	00000101 	andeq	r0, r0, r1, lsl #2
 720:	00000100 	andeq	r0, r0, r0, lsl #2
 724:	2d796d01 	ldclcs	13, cr6, [r9, #-4]!
 728:	00637273 	rsbeq	r7, r3, r3, ror r2
 72c:	6573552f 	ldrbvs	r5, [r3, #-1327]!	; 0x52f
 730:	622f7372 	eorvs	r7, pc, #-939524095	; 0xc8000001
 734:	6e616972 	mcrvs	9, 3, r6, cr1, cr2, {3}
 738:	2f6e756a 	svccs	0x006e756a
 73c:	6b736544 	blvs	1cd9c54 <__bss_end__+0x1ccff4c>
 740:	2f706f74 	svccs	0x00706f74
 744:	6f686373 	svcvs	0x00686373
 748:	572f6c6f 	strpl	r6, [pc, -pc, ror #24]!
 74c:	65746e69 	ldrbvs	r6, [r4, #-3689]!	; 0xe69
 750:	32393172 	eorscc	r3, r9, #-2147483620	; 0x8000001c
 754:	53432f30 	movtpl	r2, #16176	; 0x3f30
 758:	45303431 	ldrmi	r3, [r0, #-1073]!	; 0x431
 75c:	3173632f 	cmncc	r3, pc, lsr #6
 760:	2d653034 	stclcs	0, cr3, [r5, #-208]!	; 0xffffff30
 764:	69773032 	ldmdbvs	r7!, {r1, r4, r5, ip, sp}^
 768:	696c2f6e 	stmdbvs	ip!, {r1, r2, r3, r5, r6, r8, r9, sl, fp, sp}^
 76c:	2f697062 	svccs	0x00697062
 770:	34317363 	ldrtcc	r7, [r1], #-867	; 0x363
 774:	732d6530 	teqvc	sp, #48, 10	; 0xc000000
 778:	2f006372 	svccs	0x00006372
 77c:	2f727375 	svccs	0x00727375
 780:	61636f6c 	cmnvs	r3, ip, ror #30
 784:	65432f6c 	strbvs	r2, [r3, #-3948]	; 0xf6c
 788:	72616c6c 	rsbvc	r6, r1, #108, 24	; 0x6c00
 78c:	6d72612f 	ldfvse	f6, [r2, #-188]!	; 0xffffff44
 790:	6e6f6e2d 	cdpvs	14, 6, cr6, cr15, cr13, {1}
 794:	61652d65 	cmnvs	r5, r5, ror #26
 798:	342f6962 	strtcc	r6, [pc], #-2402	; 7a0 <_start-0x7860>
 79c:	332e382e 	teqcc	lr, #3014656	; 0x2e0000
 7a0:	3173632d 	cmncc	r3, sp, lsr #6
 7a4:	2f653037 	svccs	0x00653037
 7a8:	2f62696c 	svccs	0x0062696c
 7ac:	2f636367 	svccs	0x00636367
 7b0:	2d6d7261 	sfmcs	f7, 2, [sp, #-388]!	; 0xfffffe7c
 7b4:	656e6f6e 	strbvs	r6, [lr, #-3950]!	; 0xf6e
 7b8:	6261652d 	rsbvs	r6, r1, #188743680	; 0xb400000
 7bc:	2e342f69 	cdpcs	15, 3, cr2, cr4, cr9, {3}
 7c0:	2f332e38 	svccs	0x00332e38
 7c4:	6c636e69 	stclvs	14, cr6, [r3], #-420	; 0xfffffe5c
 7c8:	00656475 	rsbeq	r6, r5, r5, ror r4
 7cc:	6573552f 	ldrbvs	r5, [r3, #-1327]!	; 0x52f
 7d0:	622f7372 	eorvs	r7, pc, #-939524095	; 0xc8000001
 7d4:	6e616972 	mcrvs	9, 3, r6, cr1, cr2, {3}
 7d8:	2f6e756a 	svccs	0x006e756a
 7dc:	6b736544 	blvs	1cd9cf4 <__bss_end__+0x1ccffec>
 7e0:	2f706f74 	svccs	0x00706f74
 7e4:	6f686373 	svcvs	0x00686373
 7e8:	572f6c6f 	strpl	r6, [pc, -pc, ror #24]!
 7ec:	65746e69 	ldrbvs	r6, [r4, #-3689]!	; 0xe69
 7f0:	32393172 	eorscc	r3, r9, #-2147483620	; 0x8000001c
 7f4:	53432f30 	movtpl	r2, #16176	; 0x3f30
 7f8:	45303431 	ldrmi	r3, [r0, #-1073]!	; 0x431
 7fc:	3173632f 	cmncc	r3, pc, lsr #6
 800:	2d653034 	stclcs	0, cr3, [r5, #-208]!	; 0xffffff30
 804:	69773032 	ldmdbvs	r7!, {r1, r4, r5, ip, sp}^
 808:	696c2f6e 	stmdbvs	ip!, {r1, r2, r3, r5, r6, r8, r9, sl, fp, sp}^
 80c:	00697062 	rsbeq	r7, r9, r2, rrx
 810:	6573552f 	ldrbvs	r5, [r3, #-1327]!	; 0x52f
 814:	622f7372 	eorvs	r7, pc, #-939524095	; 0xc8000001
 818:	6e616972 	mcrvs	9, 3, r6, cr1, cr2, {3}
 81c:	2f6e756a 	svccs	0x006e756a
 820:	6b736544 	blvs	1cd9d38 <__bss_end__+0x1cd0030>
 824:	2f706f74 	svccs	0x00706f74
 828:	6f686373 	svcvs	0x00686373
 82c:	572f6c6f 	strpl	r6, [pc, -pc, ror #24]!
 830:	65746e69 	ldrbvs	r6, [r4, #-3689]!	; 0xe69
 834:	32393172 	eorscc	r3, r9, #-2147483620	; 0x8000001c
 838:	53432f30 	movtpl	r2, #16176	; 0x3f30
 83c:	45303431 	ldrmi	r3, [r0, #-1073]!	; 0x431
 840:	3173632f 	cmncc	r3, pc, lsr #6
 844:	2d653034 	stclcs	0, cr3, [r5, #-208]!	; 0xffffff30
 848:	69773032 	ldmdbvs	r7!, {r1, r4, r5, ip, sp}^
 84c:	696c2f6e 	stmdbvs	ip!, {r1, r2, r3, r5, r6, r8, r9, sl, fp, sp}^
 850:	2f697062 	svccs	0x00697062
 854:	6362696c 	cmnvs	r2, #108, 18	; 0x1b0000
 858:	77730000 	ldrbvc	r0, [r3, -r0]!
 85c:	7261752d 	rsbvc	r7, r1, #188743680	; 0xb400000
 860:	00632e74 	rsbeq	r2, r3, r4, ror lr
 864:	63000001 	movwvs	r0, #1
 868:	656c6379 	strbvs	r6, [ip, #-889]!	; 0x379
 86c:	6974752d 	ldmdbvs	r4!, {r0, r2, r3, r5, r8, sl, ip, sp, lr}^
 870:	00682e6c 	rsbeq	r2, r8, ip, ror #28
 874:	73000002 	movwvc	r0, #2
 878:	6e696474 	mcrvs	4, 3, r6, cr9, cr4, {3}
 87c:	63672d74 	cmnvs	r7, #116, 26	; 0x1d00
 880:	00682e63 	rsbeq	r2, r8, r3, ror #28
 884:	73000003 	movwvc	r0, #3
 888:	61752d77 	cmnvs	r5, r7, ror sp
 88c:	682e7472 	stmdavs	lr!, {r1, r4, r5, r6, sl, ip, sp, lr}
 890:	00000200 	andeq	r0, r0, r0, lsl #4
 894:	61647473 	smcvs	18243	; 0x4743
 898:	682e6772 	stmdavs	lr!, {r1, r4, r5, r6, r8, r9, sl, sp, lr}
 89c:	00000300 	andeq	r0, r0, r0, lsl #6
 8a0:	6f697067 	svcvs	0x00697067
 8a4:	0200682e 	andeq	r6, r0, #3014656	; 0x2e0000
 8a8:	70720000 	rsbsvc	r0, r2, r0
 8ac:	00682e69 	rsbeq	r2, r8, r9, ror #28
 8b0:	76000004 	strvc	r0, [r0], -r4
 8b4:	72702d61 	rsbsvc	r2, r0, #6208	; 0x1840
 8b8:	6b746e69 	blvs	1d1c264 <__bss_end__+0x1d1255c>
 8bc:	0500682e 	streq	r6, [r0, #-2094]	; 0x82e
 8c0:	623c0000 	eorsvs	r0, ip, #0
 8c4:	746c6975 	strbtvc	r6, [ip], #-2421	; 0x975
 8c8:	3e6e692d 	cdpcc	9, 6, cr6, cr14, cr13, {1}
 8cc:	00000000 	andeq	r0, r0, r0
 8d0:	02050000 	andeq	r0, r5, #0
 8d4:	00008780 	andeq	r8, r0, r0, lsl #15
 8d8:	302f4c1a 	eorcc	r4, pc, sl, lsl ip	; <UNPREDICTABLE>
 8dc:	0b030204 	bleq	c10f4 <__bss_end__+0xb73ec>
 8e0:	6673032e 	ldrbtvs	r0, [r3], -lr, lsr #6
 8e4:	04880104 	streq	r0, [r8], #260	; 0x104
 8e8:	73033502 	movwvc	r3, #13570	; 0x3502
 8ec:	8a010466 	bhi	41a8c <__bss_end__+0x37d84>
 8f0:	03330204 	teqeq	r3, #4, 4	; 0x40000000
 8f4:	01046673 	tsteq	r4, r3, ror r6
 8f8:	04820a03 	streq	r0, [r2], #2563	; 0xa03
 8fc:	73033102 	movwvc	r3, #12546	; 0x3102
 900:	03010466 	movweq	r0, #5222	; 0x1466
 904:	0204820c 	andeq	r8, r4, #12, 4	; 0xc0000000
 908:	6673032f 	ldrbtvs	r0, [r3], -pc, lsr #6
 90c:	0e030104 	adfeqs	f0, f3, f4
 910:	2d020482 	cfstrscs	mvf0, [r2, #-520]	; 0xfffffdf8
 914:	04667303 	strbteq	r7, [r6], #-771	; 0x303
 918:	82100301 	andshi	r0, r0, #67108864	; 0x4000000
 91c:	032b0204 	teqeq	fp, #4, 4	; 0x40000000
 920:	01046673 	tsteq	r4, r3, ror r6
 924:	04821203 	streq	r1, [r2], #515	; 0x203
 928:	73032902 	movwvc	r2, #14594	; 0x3902
 92c:	03010466 	movweq	r0, #5222	; 0x1466
 930:	02048214 	andeq	r8, r4, #20, 4	; 0x40000001
 934:	032e7903 	teqeq	lr, #49152	; 0xc000
 938:	01046673 	tsteq	r4, r3, ror r6
 93c:	04821603 	streq	r1, [r2], #1539	; 0x603
 940:	2e770302 	cdpcs	3, 7, cr0, cr7, cr2, {0}
 944:	04667303 	strbteq	r7, [r6], #-771	; 0x303
 948:	82180301 	andshi	r0, r8, #67108864	; 0x4000000
 94c:	4b2e1003 	blmi	b84960 <__bss_end__+0xb7ac58>
 950:	2e70034d 	cdpcs	3, 7, cr0, cr0, cr13, {2}
 954:	4883844c 	stmmi	r3, {r2, r3, r6, sl, pc}
 958:	4e2e0d03 	cdpmi	13, 2, cr0, cr14, cr3, {0}
 95c:	02043331 	andeq	r3, r4, #-1006632960	; 0xc4000000
 960:	042e4803 	strteq	r4, [lr], #-2051	; 0x803
 964:	823a0301 	eorshi	r0, sl, #67108864	; 0x4000000
 968:	0302042f 	movweq	r0, #9263	; 0x242f
 96c:	01046645 	tsteq	r4, r5, asr #12
 970:	2f823d03 	svccs	0x00823d03
 974:	42030204 	andmi	r0, r3, #4, 4	; 0x40000000
 978:	03010482 	movweq	r0, #5250	; 0x1482
 97c:	2f8200c0 	svccs	0x008200c0
 980:	bf030204 	svclt	0x00030204
 984:	0104827f 	tsteq	r4, pc, ror r2
 988:	8200c303 	andhi	ip, r0, #201326592	; 0xc000000
 98c:	0302042f 	movweq	r0, #9263	; 0x242f
 990:	04827fbc 	streq	r7, [r2], #4028	; 0xfbc
 994:	00c60301 	sbceq	r0, r6, r1, lsl #6
 998:	02042f82 	andeq	r2, r4, #520	; 0x208
 99c:	827fb903 	rsbshi	fp, pc, #49152	; 0xc000
 9a0:	c9030104 	stmdbgt	r3, {r2, r8}
 9a4:	042f8200 	strteq	r8, [pc], #-512	; 9ac <_start-0x7654>
 9a8:	7fb60302 	svcvc	0x00b60302
 9ac:	03010482 	movweq	r0, #5250	; 0x1482
 9b0:	2f8200cc 	svccs	0x008200cc
 9b4:	b3030204 	movwlt	r0, #12804	; 0x3204
 9b8:	0104827f 	tsteq	r4, pc, ror r2
 9bc:	8200d003 	andhi	sp, r0, #3
 9c0:	4c824c03 	stcmi	12, cr4, [r2], {3}
 9c4:	03488384 	movteq	r8, #33668	; 0x8384
 9c8:	034e2e36 	movteq	r2, #60982	; 0xee36
 9cc:	29034a54 	stmdbcs	r3, {r2, r4, r6, r9, fp, lr}
 9d0:	9f34324a 	svcls	0x0034324a
 9d4:	01040200 	mrseq	r0, R12_usr
 9d8:	d7064a06 	strle	r4, [r6, -r6, lsl #20]
 9dc:	2cbb4b4e 	vldmiacs	fp!, {d4-<overflow reg d42>}
 9e0:	01040200 	mrseq	r0, R12_usr
 9e4:	6d062e06 	stcvs	14, cr2, [r6, #-24]	; 0xffffffe8
 9e8:	0084a44c 	addeq	sl, r4, ip, asr #8
 9ec:	06010402 	streq	r0, [r1], -r2, lsl #8
 9f0:	4dd7064a 	ldclmi	6, cr0, [r7, #296]	; 0x128
 9f4:	02040200 	andeq	r0, r4, #0, 4
 9f8:	0402004b 	streq	r0, [r2], #-75	; 0x4b
 9fc:	02008102 	andeq	r8, r0, #-2147483648	; 0x80000000
 a00:	2e060104 	adfcss	f0, f6, f4
 a04:	a54c4d06 	strbge	r4, [ip, #-3334]	; 0xd06
 a08:	4b4b4bbc 	blmi	12d3900 <__bss_end__+0x12c9bf8>
 a0c:	02002f6a 	andeq	r2, r0, #424	; 0x1a8
 a10:	82060104 	andhi	r0, r6, #4, 2
 a14:	04020082 	streq	r0, [r2], #-130	; 0x82
 a18:	02009e04 	andeq	r9, r0, #4, 28	; 0x40
 a1c:	064a0104 	strbeq	r0, [sl], -r4, lsl #2
 a20:	2fbd88d9 	svccs	0x00bd88d9
 a24:	40084b4b 	andmi	r4, r8, fp, asr #22
 a28:	04020067 	streq	r0, [r2], #-103	; 0x67
 a2c:	02002f02 	andeq	r2, r0, #2, 30
 a30:	00490204 	subeq	r0, r9, r4, lsl #4
 a34:	06010402 	streq	r0, [r1], -r2, lsl #8
 a38:	3468062e 	strbtcc	r0, [r8], #-1582	; 0x62e
 a3c:	00a04b86 	adceq	r4, r0, r6, lsl #23
 a40:	06010402 	streq	r0, [r1], -r2, lsl #8
 a44:	68d70666 	ldmvs	r7, {r1, r2, r5, r6, r9, sl}^
 a48:	674b2208 	strbvs	r2, [fp, -r8, lsl #4]
 a4c:	0a02d84b 	beq	b6b80 <__bss_end__+0xace78>
 a50:	01010100 	mrseq	r0, (UNDEF: 17)
 a54:	02000001 	andeq	r0, r0, #1
 a58:	0000ca00 	andeq	ip, r0, r0, lsl #20
 a5c:	fb010200 	blx	41266 <__bss_end__+0x3755e>
 a60:	01000d0e 	tsteq	r0, lr, lsl #26
 a64:	00010101 	andeq	r0, r1, r1, lsl #2
 a68:	00010000 	andeq	r0, r1, r0
 a6c:	796d0100 	stmdbvc	sp!, {r8}^
 a70:	6372732d 	cmnvs	r2, #-1275068416	; 0xb4000000
 a74:	73552f00 	cmpvc	r5, #0, 30
 a78:	2f737265 	svccs	0x00737265
 a7c:	61697262 	cmnvs	r9, r2, ror #4
 a80:	6e756a6e 	vsubvs.f32	s13, s10, s29
 a84:	7365442f 	cmnvc	r5, #788529152	; 0x2f000000
 a88:	706f746b 	rsbvc	r7, pc, fp, ror #8
 a8c:	6863732f 	stmdavs	r3!, {r0, r1, r2, r3, r5, r8, r9, ip, sp, lr}^
 a90:	2f6c6f6f 	svccs	0x006c6f6f
 a94:	746e6957 	strbtvc	r6, [lr], #-2391	; 0x957
 a98:	39317265 	ldmdbcc	r1!, {r0, r2, r5, r6, r9, ip, sp, lr}
 a9c:	432f3032 	teqmi	pc, #50	; 0x32
 aa0:	30343153 	eorscc	r3, r4, r3, asr r1
 aa4:	73632f45 	cmnvc	r3, #276	; 0x114
 aa8:	65303431 	ldrvs	r3, [r0, #-1073]!	; 0x431
 aac:	7730322d 	ldrvc	r3, [r0, -sp, lsr #4]!
 ab0:	6c2f6e69 	stcvs	14, cr6, [pc], #-420	; 914 <_start-0x76ec>
 ab4:	69706269 	ldmdbvs	r0!, {r0, r3, r5, r6, r9, sp, lr}^
 ab8:	3173632f 	cmncc	r3, pc, lsr #6
 abc:	2d653034 	stclcs	0, cr3, [r5, #-208]!	; 0xffffff30
 ac0:	00637273 	rsbeq	r7, r3, r3, ror r2
 ac4:	6573552f 	ldrbvs	r5, [r3, #-1327]!	; 0x52f
 ac8:	622f7372 	eorvs	r7, pc, #-939524095	; 0xc8000001
 acc:	6e616972 	mcrvs	9, 3, r6, cr1, cr2, {3}
 ad0:	2f6e756a 	svccs	0x006e756a
 ad4:	6b736544 	blvs	1cd9fec <__bss_end__+0x1cd02e4>
 ad8:	2f706f74 	svccs	0x00706f74
 adc:	6f686373 	svcvs	0x00686373
 ae0:	572f6c6f 	strpl	r6, [pc, -pc, ror #24]!
 ae4:	65746e69 	ldrbvs	r6, [r4, #-3689]!	; 0xe69
 ae8:	32393172 	eorscc	r3, r9, #-2147483620	; 0x8000001c
 aec:	53432f30 	movtpl	r2, #16176	; 0x3f30
 af0:	45303431 	ldrmi	r3, [r0, #-1073]!	; 0x431
 af4:	3173632f 	cmncc	r3, pc, lsr #6
 af8:	2d653034 	stclcs	0, cr3, [r5, #-208]!	; 0xffffff30
 afc:	69773032 	ldmdbvs	r7!, {r1, r4, r5, ip, sp}^
 b00:	696c2f6e 	stmdbvs	ip!, {r1, r2, r3, r5, r6, r8, r9, sl, fp, sp}^
 b04:	00697062 	rsbeq	r7, r9, r2, rrx
 b08:	72617500 	rsbvc	r7, r1, #0, 10
 b0c:	00632e74 	rsbeq	r2, r3, r4, ror lr
 b10:	67000001 	strvs	r0, [r0, -r1]
 b14:	2e6f6970 	mcrcs	9, 3, r6, cr15, cr0, {3}
 b18:	00020068 	andeq	r0, r2, r8, rrx
 b1c:	69707200 	ldmdbvs	r0!, {r9, ip, sp, lr}^
 b20:	0300682e 	movweq	r6, #2094	; 0x82e
 b24:	00000000 	andeq	r0, r0, r0
 b28:	8da00205 	sfmhi	f0, 4, [r0, #20]!
 b2c:	36030000 	strcc	r0, [r3], -r0
 b30:	67333001 	ldrvs	r3, [r3, -r1]!
 b34:	30d8306d 	sbcscc	r3, r8, sp, rrx
 b38:	67676767 	strbvs	r6, [r7, -r7, ror #14]!
 b3c:	2f866867 	svccs	0x00866867
 b40:	67306a67 	ldrvs	r6, [r0, -r7, ror #20]!
 b44:	672f6967 	strvs	r6, [pc, -r7, ror #18]!
 b48:	c1674c6a 	cmngt	r7, sl, ror #24
 b4c:	2f302f2f 	svccs	0x00302f2f
 b50:	02304968 	eorseq	r4, r0, #104, 18	; 0x1a0000
 b54:	01010002 	tsteq	r1, r2
 b58:	00000188 	andeq	r0, r0, r8, lsl #3
 b5c:	00ca0002 	sbceq	r0, sl, r2
 b60:	01020000 	mrseq	r0, (UNDEF: 2)
 b64:	000d0efb 	strdeq	r0, [sp], -fp
 b68:	01010101 	tsteq	r1, r1, lsl #2
 b6c:	01000000 	mrseq	r0, (UNDEF: 0)
 b70:	6d010000 	stcvs	0, cr0, [r1, #-0]
 b74:	72732d79 	rsbsvc	r2, r3, #7744	; 0x1e40
 b78:	552f0063 	strpl	r0, [pc, #-99]!	; b1d <_start-0x74e3>
 b7c:	73726573 	cmnvc	r2, #482344960	; 0x1cc00000
 b80:	6972622f 	ldmdbvs	r2!, {r0, r1, r2, r3, r5, r9, sp, lr}^
 b84:	756a6e61 	strbvc	r6, [sl, #-3681]!	; 0xe61
 b88:	65442f6e 	strbvs	r2, [r4, #-3950]	; 0xf6e
 b8c:	6f746b73 	svcvs	0x00746b73
 b90:	63732f70 	cmnvs	r3, #112, 30	; 0x1c0
 b94:	6c6f6f68 	stclvs	15, cr6, [pc], #-416	; 9fc <_start-0x7604>
 b98:	6e69572f 	cdpvs	7, 6, cr5, cr9, cr15, {1}
 b9c:	31726574 	cmncc	r2, r4, ror r5
 ba0:	2f303239 	svccs	0x00303239
 ba4:	34315343 	ldrtcc	r5, [r1], #-835	; 0x343
 ba8:	632f4530 	teqvs	pc, #48, 10	; 0xc000000
 bac:	30343173 	eorscc	r3, r4, r3, ror r1
 bb0:	30322d65 	eorscc	r2, r2, r5, ror #26
 bb4:	2f6e6977 	svccs	0x006e6977
 bb8:	7062696c 	rsbvc	r6, r2, ip, ror #18
 bbc:	73632f69 	cmnvc	r3, #420	; 0x1a4
 bc0:	65303431 	ldrvs	r3, [r0, #-1073]!	; 0x431
 bc4:	6372732d 	cmnvs	r2, #-1275068416	; 0xb4000000
 bc8:	73552f00 	cmpvc	r5, #0, 30
 bcc:	2f737265 	svccs	0x00737265
 bd0:	61697262 	cmnvs	r9, r2, ror #4
 bd4:	6e756a6e 	vsubvs.f32	s13, s10, s29
 bd8:	7365442f 	cmnvc	r5, #788529152	; 0x2f000000
 bdc:	706f746b 	rsbvc	r7, pc, fp, ror #8
 be0:	6863732f 	stmdavs	r3!, {r0, r1, r2, r3, r5, r8, r9, ip, sp, lr}^
 be4:	2f6c6f6f 	svccs	0x006c6f6f
 be8:	746e6957 	strbtvc	r6, [lr], #-2391	; 0x957
 bec:	39317265 	ldmdbcc	r1!, {r0, r2, r5, r6, r9, ip, sp, lr}
 bf0:	432f3032 	teqmi	pc, #50	; 0x32
 bf4:	30343153 	eorscc	r3, r4, r3, asr r1
 bf8:	73632f45 	cmnvc	r3, #276	; 0x114
 bfc:	65303431 	ldrvs	r3, [r0, #-1073]!	; 0x431
 c00:	7730322d 	ldrvc	r3, [r0, -sp, lsr #4]!
 c04:	6c2f6e69 	stcvs	14, cr6, [pc], #-420	; a68 <_start-0x7598>
 c08:	69706269 	ldmdbvs	r0!, {r0, r3, r5, r6, r9, sp, lr}^
 c0c:	70670000 	rsbvc	r0, r7, r0
 c10:	632e6f69 	teqvs	lr, #420	; 0x1a4
 c14:	00000100 	andeq	r0, r0, r0, lsl #2
 c18:	6f697067 	svcvs	0x00697067
 c1c:	0200682e 	andeq	r6, r0, #3014656	; 0x2e0000
 c20:	70720000 	rsbsvc	r0, r2, r0
 c24:	00682e69 	rsbeq	r2, r8, r9, ror #28
 c28:	00000003 	andeq	r0, r0, r3
 c2c:	58020500 	stmdapl	r2, {r8, sl}
 c30:	0300008f 	movweq	r0, #143	; 0x8f
 c34:	504e013e 	subpl	r0, lr, lr, lsr r1
 c38:	67210869 	strvs	r0, [r1, -r9, ror #16]!
 c3c:	67676767 	strbvs	r6, [r7, -r7, ror #14]!
 c40:	084b3267 	stmdaeq	fp, {r0, r1, r2, r5, r6, r9, ip, sp}^
 c44:	5131dc22 	teqpl	r1, r2, lsr #24
 c48:	30504e13 	subscc	r4, r0, r3, lsl lr
 c4c:	135031be 	cmpne	r0, #-2147483601	; 0x8000002f
 c50:	c0304f4d 	eorsgt	r4, r0, sp, asr #30
 c54:	0869504c 	stmdaeq	r9!, {r2, r3, r6, ip, lr}^
 c58:	67676721 	strbvs	r6, [r7, -r1, lsr #14]!
 c5c:	32676767 	rsbcc	r6, r7, #27000832	; 0x19c0000
 c60:	a421084b 	strtge	r0, [r1], #-2123	; 0x84b
 c64:	842f504c 	strthi	r5, [pc], #-76	; c6c <_start-0x7394>
 c68:	82750369 	rsbshi	r0, r5, #-1543503871	; 0xa4000001
 c6c:	4d2e0c03 	stcmi	12, cr0, [lr, #-12]!
 c70:	98034e30 	stmdals	r3, {r4, r5, r9, sl, fp, lr}
 c74:	13514a7f 	cmpne	r1, #520192	; 0x7f000
 c78:	a530504e 	ldrge	r5, [r0, #-78]!	; 0x4e
 c7c:	4f4d1350 	svcmi	0x004d1350
 c80:	00c20330 	sbceq	r0, r2, r0, lsr r3
 c84:	696b6aba 	stmdbvs	fp!, {r1, r3, r4, r5, r7, r9, fp, sp, lr}^
 c88:	67672108 	strbvs	r2, [r7, -r8, lsl #2]!
 c8c:	67676767 	strbvs	r6, [r7, -r7, ror #14]!
 c90:	22084b32 	andcs	r4, r8, #51200	; 0xc800
 c94:	31ba1a03 			; <UNDEFINED> instruction: 0x31ba1a03
 c98:	522f4c9f 	eorpl	r4, pc, #40704	; 0x9f00
 c9c:	4b2f4e4d 	blmi	bd45d8 <__bss_end__+0xbca8d0>
 ca0:	67684b67 	strbvs	r4, [r8, -r7, ror #22]!
 ca4:	672f4c67 	strvs	r4, [pc, -r7, ror #24]!
 ca8:	4c6e4b2f 	stclmi	11, cr4, [lr], #-188	; 0xffffff44
 cac:	674b2f4e 	strbvs	r2, [fp, -lr, asr #30]
 cb0:	6767684b 	strbvs	r6, [r7, -fp, asr #16]!
 cb4:	2f672f4c 	svccs	0x00672f4c
 cb8:	4e4b6d4b 	cdpmi	13, 4, cr6, cr11, cr11, {2}
 cbc:	00674b2f 	rsbeq	r4, r7, pc, lsr #22
 cc0:	06010402 	streq	r0, [r1], -r2, lsl #8
 cc4:	9f680666 	svcls	0x00680666
 cc8:	0402002f 	streq	r0, [r2], #-47	; 0x2f
 ccc:	064a0601 	strbeq	r0, [sl], -r1, lsl #12
 cd0:	73032f68 	movwvc	r2, #16232	; 0x3f68
 cd4:	2e0e034a 	cdpcs	3, 0, cr0, cr14, cr10, {2}
 cd8:	2f4e4c4d 	svccs	0x004e4c4d
 cdc:	02bcbc4b 	adcseq	fp, ip, #19200	; 0x4b00
 ce0:	01010006 	tsteq	r1, r6
 ce4:	0000008a 	andeq	r0, r0, sl, lsl #1
 ce8:	00720002 	rsbseq	r0, r2, r2
 cec:	01020000 	mrseq	r0, (UNDEF: 2)
 cf0:	000d0efb 	strdeq	r0, [sp], -fp
 cf4:	01010101 	tsteq	r1, r1, lsl #2
 cf8:	01000000 	mrseq	r0, (UNDEF: 0)
 cfc:	6c010000 	stcvs	0, cr0, [r1], {-0}
 d00:	00636269 	rsbeq	r6, r3, r9, ror #4
 d04:	6573552f 	ldrbvs	r5, [r3, #-1327]!	; 0x52f
 d08:	622f7372 	eorvs	r7, pc, #-939524095	; 0xc8000001
 d0c:	6e616972 	mcrvs	9, 3, r6, cr1, cr2, {3}
 d10:	2f6e756a 	svccs	0x006e756a
 d14:	6b736544 	blvs	1cda22c <__bss_end__+0x1cd0524>
 d18:	2f706f74 	svccs	0x00706f74
 d1c:	6f686373 	svcvs	0x00686373
 d20:	572f6c6f 	strpl	r6, [pc, -pc, ror #24]!
 d24:	65746e69 	ldrbvs	r6, [r4, #-3689]!	; 0xe69
 d28:	32393172 	eorscc	r3, r9, #-2147483620	; 0x8000001c
 d2c:	53432f30 	movtpl	r2, #16176	; 0x3f30
 d30:	45303431 	ldrmi	r3, [r0, #-1073]!	; 0x431
 d34:	3173632f 	cmncc	r3, pc, lsr #6
 d38:	2d653034 	stclcs	0, cr3, [r5, #-208]!	; 0xffffff30
 d3c:	69773032 	ldmdbvs	r7!, {r1, r4, r5, ip, sp}^
 d40:	696c2f6e 	stmdbvs	ip!, {r1, r2, r3, r5, r6, r8, r9, sl, fp, sp}^
 d44:	00697062 	rsbeq	r7, r9, r2, rrx
 d48:	74757000 	ldrbtvc	r7, [r5], #-0
 d4c:	72616863 	rsbvc	r6, r1, #6488064	; 0x630000
 d50:	0100632e 	tsteq	r0, lr, lsr #6
 d54:	70720000 	rsbsvc	r0, r2, r0
 d58:	00682e69 	rsbeq	r2, r8, r9, ror #28
 d5c:	00000002 	andeq	r0, r0, r2
 d60:	14020500 	strne	r0, [r2], #-1280	; 0x500
 d64:	14000095 	strne	r0, [r0], #-149	; 0x95
 d68:	bc136b4a 	ldclt	11, cr6, [r3], {74}	; 0x4a
 d6c:	00080213 	andeq	r0, r8, r3, lsl r2
 d70:	01280101 	teqeq	r8, r1, lsl #2
 d74:	00020000 	andeq	r0, r2, r0
 d78:	0000010d 	andeq	r0, r0, sp, lsl #2
 d7c:	0efb0102 	cdpeq	1, 15, cr0, cr11, cr2, {0}
 d80:	0101000d 	tsteq	r1, sp
 d84:	00000101 	andeq	r0, r0, r1, lsl #2
 d88:	00000100 	andeq	r0, r0, r0, lsl #2
 d8c:	31736301 	cmncc	r3, r1, lsl #6
 d90:	2d653034 	stclcs	0, cr3, [r5, #-208]!	; 0xffffff30
 d94:	00637273 	rsbeq	r7, r3, r3, ror r2
 d98:	7273752f 	rsbsvc	r7, r3, #197132288	; 0xbc00000
 d9c:	636f6c2f 	cmnvs	pc, #12032	; 0x2f00
 da0:	432f6c61 	teqmi	pc, #24832	; 0x6100
 da4:	616c6c65 	cmnvs	ip, r5, ror #24
 da8:	72612f72 	rsbvc	r2, r1, #456	; 0x1c8
 dac:	6f6e2d6d 	svcvs	0x006e2d6d
 db0:	652d656e 	strvs	r6, [sp, #-1390]!	; 0x56e
 db4:	2f696261 	svccs	0x00696261
 db8:	2e382e34 	mrccs	14, 1, r2, cr8, cr4, {1}
 dbc:	73632d33 	cmnvc	r3, #3264	; 0xcc0
 dc0:	65303731 	ldrvs	r3, [r0, #-1841]!	; 0x731
 dc4:	62696c2f 	rsbvs	r6, r9, #12032	; 0x2f00
 dc8:	6363672f 	cmnvs	r3, #12320768	; 0xbc0000
 dcc:	6d72612f 	ldfvse	f6, [r2, #-188]!	; 0xffffff44
 dd0:	6e6f6e2d 	cdpvs	14, 6, cr6, cr15, cr13, {1}
 dd4:	61652d65 	cmnvs	r5, r5, ror #26
 dd8:	342f6962 	strtcc	r6, [pc], #-2402	; de0 <_start-0x7220>
 ddc:	332e382e 	teqcc	lr, #3014656	; 0x2e0000
 de0:	636e692f 	cmnvs	lr, #770048	; 0xbc000
 de4:	6564756c 	strbvs	r7, [r4, #-1388]!	; 0x56c
 de8:	73752f00 	cmnvc	r5, #0, 30
 dec:	6f6c2f72 	svcvs	0x006c2f72
 df0:	2f6c6163 	svccs	0x006c6163
 df4:	6c6c6543 	cfstr64vs	mvdx6, [ip], #-268	; 0xfffffef4
 df8:	612f7261 	teqvs	pc, r1, ror #4
 dfc:	6e2d6d72 	mcrvs	13, 1, r6, cr13, cr2, {3}
 e00:	2d656e6f 	stclcs	14, cr6, [r5, #-444]!	; 0xfffffe44
 e04:	69626165 	stmdbvs	r2!, {r0, r2, r5, r6, r8, sp, lr}^
 e08:	382e342f 	stmdacc	lr!, {r0, r1, r2, r3, r5, sl, ip, sp}
 e0c:	632d332e 	teqvs	sp, #-1207959552	; 0xb8000000
 e10:	30373173 	eorscc	r3, r7, r3, ror r1
 e14:	72612f65 	rsbvc	r2, r1, #404	; 0x194
 e18:	6f6e2d6d 	svcvs	0x006e2d6d
 e1c:	652d656e 	strvs	r6, [sp, #-1390]!	; 0x56e
 e20:	2f696261 	svccs	0x00696261
 e24:	6c636e69 	stclvs	14, cr6, [r3], #-420	; 0xfffffe5c
 e28:	00656475 	rsbeq	r6, r5, r5, ror r4
 e2c:	6e6f6300 	cdpvs	3, 6, cr6, cr15, cr0, {0}
 e30:	6c6f7274 	sfmvs	f7, 2, [pc], #-464	; c68 <_start-0x7398>
 e34:	6f6c622d 	svcvs	0x006c622d
 e38:	632e6b63 	teqvs	lr, #101376	; 0x18c00
 e3c:	00000100 	andeq	r0, r0, r0, lsl #2
 e40:	64647473 	strbtvs	r7, [r4], #-1139	; 0x473
 e44:	682e6665 	stmdavs	lr!, {r0, r2, r5, r6, r9, sl, sp, lr}
 e48:	00000200 	andeq	r0, r0, r0, lsl #4
 e4c:	69647473 	stmdbvs	r4!, {r0, r1, r4, r5, r6, sl, ip, sp, lr}^
 e50:	672d746e 	strvs	r7, [sp, -lr, ror #8]!
 e54:	682e6363 	stmdavs	lr!, {r0, r1, r5, r6, r8, r9, sp, lr}
 e58:	00000200 	andeq	r0, r0, r0, lsl #4
 e5c:	752d7773 	strvc	r7, [sp, #-1907]!	; 0x773
 e60:	2e747261 	cdpcs	2, 7, cr7, cr4, cr1, {3}
 e64:	00010068 	andeq	r0, r1, r8, rrx
 e68:	6e6f6300 	cdpvs	3, 6, cr6, cr15, cr0, {0}
 e6c:	6c6f7274 	sfmvs	f7, 2, [pc], #-464	; ca4 <_start-0x735c>
 e70:	6f6c622d 	svcvs	0x006c622d
 e74:	682e6b63 	stmdavs	lr!, {r0, r1, r5, r6, r8, r9, fp, sp, lr}
 e78:	00000100 	andeq	r0, r0, r0, lsl #2
 e7c:	69727473 	ldmdbvs	r2!, {r0, r1, r4, r5, r6, sl, ip, sp, lr}^
 e80:	682e676e 	stmdavs	lr!, {r1, r2, r3, r5, r6, r8, r9, sl, sp, lr}
 e84:	00000300 	andeq	r0, r0, r0, lsl #6
 e88:	02050000 	andeq	r0, r5, #0
 e8c:	00009550 	andeq	r9, r0, r0, asr r5
 e90:	68833016 	stmvs	r3, {r1, r2, r4, ip, sp}
 e94:	4b9f144c 	blmi	fe7c5fcc <__bss_end__+0xfe7bc2c4>
 e98:	0004022f 	andeq	r0, r4, pc, lsr #4
 e9c:	00ec0101 	rsceq	r0, ip, r1, lsl #2
 ea0:	00020000 	andeq	r0, r2, r0
 ea4:	000000d0 	ldrdeq	r0, [r0], -r0	; <UNPREDICTABLE>
 ea8:	0efb0102 	cdpeq	1, 15, cr0, cr11, cr2, {0}
 eac:	0101000d 	tsteq	r1, sp
 eb0:	00000101 	andeq	r0, r0, r1, lsl #2
 eb4:	00000100 	andeq	r0, r0, r0, lsl #2
 eb8:	62696c01 	rsbvs	r6, r9, #256	; 0x100
 ebc:	752f0063 	strvc	r0, [pc, #-99]!	; e61 <_start-0x719f>
 ec0:	6c2f7273 	sfmvs	f7, 4, [pc], #-460	; cfc <_start-0x7304>
 ec4:	6c61636f 	stclvs	3, cr6, [r1], #-444	; 0xfffffe44
 ec8:	6c65432f 	stclvs	3, cr4, [r5], #-188	; 0xffffff44
 ecc:	2f72616c 	svccs	0x0072616c
 ed0:	2d6d7261 	sfmcs	f7, 2, [sp, #-388]!	; 0xfffffe7c
 ed4:	656e6f6e 	strbvs	r6, [lr, #-3950]!	; 0xf6e
 ed8:	6261652d 	rsbvs	r6, r1, #188743680	; 0xb400000
 edc:	2e342f69 	cdpcs	15, 3, cr2, cr4, cr9, {3}
 ee0:	2d332e38 	ldccs	14, cr2, [r3, #-224]!	; 0xffffff20
 ee4:	37317363 	ldrcc	r7, [r1, -r3, ror #6]!
 ee8:	6c2f6530 	cfstr32vs	mvfx6, [pc], #-192	; e30 <_start-0x71d0>
 eec:	672f6269 	strvs	r6, [pc, -r9, ror #4]!
 ef0:	612f6363 	teqvs	pc, r3, ror #6
 ef4:	6e2d6d72 	mcrvs	13, 1, r6, cr13, cr2, {3}
 ef8:	2d656e6f 	stclcs	14, cr6, [r5, #-444]!	; 0xfffffe44
 efc:	69626165 	stmdbvs	r2!, {r0, r2, r5, r6, r8, sp, lr}^
 f00:	382e342f 	stmdacc	lr!, {r0, r1, r2, r3, r5, sl, ip, sp}
 f04:	692f332e 	stmdbvs	pc!, {r1, r2, r3, r5, r8, r9, ip, sp}	; <UNPREDICTABLE>
 f08:	756c636e 	strbvc	r6, [ip, #-878]!	; 0x36e
 f0c:	2f006564 	svccs	0x00006564
 f10:	2f727375 	svccs	0x00727375
 f14:	61636f6c 	cmnvs	r3, ip, ror #30
 f18:	65432f6c 	strbvs	r2, [r3, #-3948]	; 0xf6c
 f1c:	72616c6c 	rsbvc	r6, r1, #108, 24	; 0x6c00
 f20:	6d72612f 	ldfvse	f6, [r2, #-188]!	; 0xffffff44
 f24:	6e6f6e2d 	cdpvs	14, 6, cr6, cr15, cr13, {1}
 f28:	61652d65 	cmnvs	r5, r5, ror #26
 f2c:	342f6962 	strtcc	r6, [pc], #-2402	; f34 <_start-0x70cc>
 f30:	332e382e 	teqcc	lr, #3014656	; 0x2e0000
 f34:	3173632d 	cmncc	r3, sp, lsr #6
 f38:	2f653037 	svccs	0x00653037
 f3c:	2d6d7261 	sfmcs	f7, 2, [sp, #-388]!	; 0xfffffe7c
 f40:	656e6f6e 	strbvs	r6, [lr, #-3950]!	; 0xf6e
 f44:	6261652d 	rsbvs	r6, r1, #188743680	; 0xb400000
 f48:	6e692f69 	cdpvs	15, 6, cr2, cr9, cr9, {3}
 f4c:	64756c63 	ldrbtvs	r6, [r5], #-3171	; 0xc63
 f50:	6d000065 	stcvs	0, cr0, [r0, #-404]	; 0xfffffe6c
 f54:	65736d65 	ldrbvs	r6, [r3, #-3429]!	; 0xd65
 f58:	00632e74 	rsbeq	r2, r3, r4, ror lr
 f5c:	73000001 	movwvc	r0, #1
 f60:	65646474 	strbvs	r6, [r4, #-1140]!	; 0x474
 f64:	00682e66 	rsbeq	r2, r8, r6, ror #28
 f68:	73000002 	movwvc	r0, #2
 f6c:	6e697274 	mcrvs	2, 3, r7, cr9, cr4, {3}
 f70:	00682e67 	rsbeq	r2, r8, r7, ror #28
 f74:	00000003 	andeq	r0, r0, r3
 f78:	a0020500 	andge	r0, r2, r0, lsl #10
 f7c:	14000095 	strne	r0, [r0], #-149	; 0x95
 f80:	002f4c13 	eoreq	r4, pc, r3, lsl ip	; <UNPREDICTABLE>
 f84:	49010402 	stmdbmi	r1, {r1, sl}
 f88:	0002024d 	andeq	r0, r2, sp, asr #4
 f8c:	Address 0x0000000000000f8c is out of bounds.


Disassembly of section .debug_str:

00000000 <.debug_str>:
   0:	676e6f6c 	strbvs	r6, [lr, -ip, ror #30]!
   4:	6e6f6c20 	cdpvs	12, 6, cr6, cr15, cr0, {1}
   8:	6e692067 	cdpvs	0, 6, cr2, cr9, cr7, {3}
   c:	2d300074 	ldccs	0, cr0, [r0, #-464]!	; 0xfffffe30
  10:	6f626572 	svcvs	0x00626572
  14:	632e746f 	teqvs	lr, #1862270976	; 0x6f000000
  18:	73552f00 	cmpvc	r5, #0, 30
  1c:	2f737265 	svccs	0x00737265
  20:	61697262 	cmnvs	r9, r2, ror #4
  24:	6e756a6e 	vsubvs.f32	s13, s10, s29
  28:	7365442f 	cmnvc	r5, #788529152	; 0x2f000000
  2c:	706f746b 	rsbvc	r7, pc, fp, ror #8
  30:	6863732f 	stmdavs	r3!, {r0, r1, r2, r3, r5, r8, r9, ip, sp, lr}^
  34:	2f6c6f6f 	svccs	0x006c6f6f
  38:	746e6957 	strbtvc	r6, [lr], #-2391	; 0x957
  3c:	39317265 	ldmdbcc	r1!, {r0, r2, r5, r6, r9, ip, sp, lr}
  40:	432f3032 	teqmi	pc, #50	; 0x32
  44:	30343153 	eorscc	r3, r4, r3, asr r1
  48:	73632f45 	cmnvc	r3, #276	; 0x114
  4c:	65303431 	ldrvs	r3, [r0, #-1073]!	; 0x431
  50:	7730322d 	ldrvc	r3, [r0, -sp, lsr #4]!
  54:	6c2f6e69 	stcvs	14, cr6, [pc], #-420	; fffffeb8 <__bss_end__+0xffff61b0>
  58:	2f736261 	svccs	0x00736261
  5c:	662d3131 			; <UNDEFINED> instruction: 0x662d3131
  60:	2f657375 	svccs	0x00657375
  64:	61662d32 	cmnvs	r6, r2, lsr sp
  68:	702d656b 	eorvc	r6, sp, fp, ror #10
  6c:	6e752f69 	cdpvs	15, 7, cr2, cr5, cr9, {3}
  70:	732d7869 	teqvc	sp, #6881280	; 0x690000
  74:	2f656469 	svccs	0x00656469
  78:	6d617865 	stclvs	8, cr7, [r1, #-404]!	; 0xfffffe6c
  7c:	2d656c70 	stclcs	12, cr6, [r5, #-448]!	; 0xfffffe40
  80:	702d6970 	eorvc	r6, sp, r0, ror r9
  84:	72676f72 	rsbvc	r6, r7, #456	; 0x1c8
  88:	00736d61 	rsbseq	r6, r3, r1, ror #26
  8c:	676e6f6c 	strbvs	r6, [lr, -ip, ror #30]!
  90:	6e6f6c20 	cdpvs	12, 6, cr6, cr15, cr0, {1}
  94:	6e752067 	cdpvs	0, 7, cr2, cr5, cr7, {3}
  98:	6e676973 	mcrvs	9, 3, r6, cr7, cr3, {3}
  9c:	69206465 	stmdbvs	r0!, {r0, r2, r5, r6, sl, sp, lr}
  a0:	4700746e 	strmi	r7, [r0, -lr, ror #8]
  a4:	4320554e 	teqmi	r0, #327155712	; 0x13800000
  a8:	382e3420 	stmdacc	lr!, {r5, sl, ip, sp}
  ac:	2d20332e 	stccs	3, cr3, [r0, #-184]!	; 0xffffff48
  b0:	7570636d 	ldrbvc	r6, [r0, #-877]!	; 0x36d
  b4:	6d72613d 	ldfvse	f6, [r2, #-244]!	; 0xffffff0c
  b8:	36373131 			; <UNDEFINED> instruction: 0x36373131
  bc:	2d667a6a 	vstmdbcs	r6!, {s15-s120}
  c0:	6d2d2073 	stcvs	0, cr2, [sp, #-460]!	; 0xfffffe34
  c4:	656e7574 	strbvs	r7, [lr, #-1396]!	; 0x574
  c8:	6d72613d 	ldfvse	f6, [r2, #-244]!	; 0xffffff0c
  cc:	36373131 			; <UNDEFINED> instruction: 0x36373131
  d0:	2d667a6a 	vstmdbcs	r6!, {s15-s120}
  d4:	672d2073 			; <UNDEFINED> instruction: 0x672d2073
  d8:	20626467 	rsbcs	r6, r2, r7, ror #8
  dc:	20674f2d 	rsbcs	r4, r7, sp, lsr #30
  e0:	6474732d 	ldrbtvs	r7, [r4], #-813	; 0x32d
  e4:	756e673d 	strbvc	r6, [lr, #-1853]!	; 0x73d
  e8:	2d203939 	stccs	9, cr3, [r0, #-228]!	; 0xffffff1c
  ec:	65726666 	ldrbvs	r6, [r2, #-1638]!	; 0x666
  f0:	61747365 	cmnvs	r4, r5, ror #6
  f4:	6e69646e 	cdpvs	4, 6, cr6, cr9, cr14, {3}
  f8:	6e750067 	cdpvs	0, 7, cr0, cr5, cr7, {3}
  fc:	6e676973 	mcrvs	9, 3, r6, cr7, cr3, {3}
 100:	63206465 	teqvs	r0, #1694498816	; 0x65000000
 104:	00726168 	rsbseq	r6, r2, r8, ror #2
 108:	74726175 	ldrbtvc	r6, [r2], #-373	; 0x175
 10c:	696e695f 	stmdbvs	lr!, {r0, r1, r2, r3, r4, r6, r8, fp, sp, lr}^
 110:	6c630074 	stclvs	0, cr0, [r3], #-464	; 0xfffffe30
 114:	5f6e6165 	svcpl	0x006e6165
 118:	6f626572 	svcvs	0x00626572
 11c:	6e00746f 	cdpvs	4, 0, cr7, cr0, cr15, {3}
 120:	616d746f 	cmnvs	sp, pc, ror #8
 124:	73006e69 	movwvc	r6, #3689	; 0xe69
 128:	74726f68 	ldrbtvc	r6, [r2], #-3944	; 0xf68
 12c:	736e7520 	cmnvc	lr, #32, 10	; 0x8000000
 130:	656e6769 	strbvs	r6, [lr, #-1897]!	; 0x769
 134:	6e692064 	cdpvs	0, 6, cr2, cr9, cr4, {3}
 138:	68730074 	ldmdavs	r3!, {r2, r4, r5, r6}^
 13c:	2074726f 	rsbscs	r7, r4, pc, ror #4
 140:	00746e69 	rsbseq	r6, r4, r9, ror #28
 144:	657a6973 	ldrbvs	r6, [sl, #-2419]!	; 0x973
 148:	65707974 	ldrbvs	r7, [r0, #-2420]!	; 0x974
 14c:	675f5f00 	ldrbvs	r5, [pc, -r0, lsl #30]
 150:	5f63756e 	svcpl	0x0063756e
 154:	6c5f6176 	ldfvse	f6, [pc], {118}	; 0x76
 158:	00747369 	rsbseq	r7, r4, r9, ror #6
 15c:	6362696c 	cmnvs	r2, #108, 18	; 0x1b0000
 160:	6972702f 	ldmdbvs	r2!, {r0, r1, r2, r3, r5, ip, sp, lr}^
 164:	2e6b746e 	cdpcs	4, 6, cr7, cr11, cr14, {3}
 168:	61760063 	cmnvs	r6, r3, rrx
 16c:	6972705f 	ldmdbvs	r2!, {r0, r1, r2, r3, r4, r6, ip, sp, lr}^
 170:	006b746e 	rsbeq	r7, fp, lr, ror #8
 174:	61765f5f 	cmnvs	r6, pc, asr pc
 178:	73696c5f 	cmnvc	r9, #24320	; 0x5f00
 17c:	552f0074 	strpl	r0, [pc, #-116]!	; 110 <_start-0x7ef0>
 180:	73726573 	cmnvc	r2, #482344960	; 0x1cc00000
 184:	6972622f 	ldmdbvs	r2!, {r0, r1, r2, r3, r5, r9, sp, lr}^
 188:	756a6e61 	strbvc	r6, [sl, #-3681]!	; 0xe61
 18c:	65442f6e 	strbvs	r2, [r4, #-3950]	; 0xf6e
 190:	6f746b73 	svcvs	0x00746b73
 194:	63732f70 	cmnvs	r3, #112, 30	; 0x1c0
 198:	6c6f6f68 	stclvs	15, cr6, [pc], #-416	; 0 <_start-0x8000>
 19c:	6e69572f 	cdpvs	7, 6, cr5, cr9, cr15, {1}
 1a0:	31726574 	cmncc	r2, r4, ror r5
 1a4:	2f303239 	svccs	0x00303239
 1a8:	34315343 	ldrtcc	r5, [r1], #-835	; 0x343
 1ac:	632f4530 	teqvs	pc, #48, 10	; 0xc000000
 1b0:	30343173 	eorscc	r3, r4, r3, ror r1
 1b4:	30322d65 	eorscc	r2, r2, r5, ror #26
 1b8:	2f6e6977 	svccs	0x006e6977
 1bc:	7062696c 	rsbvc	r6, r2, ip, ror #18
 1c0:	72610069 	rsbvc	r0, r1, #105	; 0x69
 1c4:	5f007367 	svcpl	0x00007367
 1c8:	0070615f 	rsbseq	r6, r0, pc, asr r1
 1cc:	6362696c 	cmnvs	r2, #108, 18	; 0x1b0000
 1d0:	7475702f 	ldrbtvc	r7, [r5], #-47	; 0x2f
 1d4:	00632e6b 	rsbeq	r2, r3, fp, ror #28
 1d8:	65746e69 	ldrbvs	r6, [r4, #-3689]!	; 0xe69
 1dc:	6c616e72 	stclvs	14, cr6, [r1], #-456	; 0xfffffe38
 1e0:	7475705f 	ldrbtvc	r7, [r5], #-95	; 0x5f
 1e4:	7072006b 	rsbsvc	r0, r2, fp, rrx
 1e8:	75705f69 	ldrbvc	r5, [r0, #-3945]!	; 0xf69
 1ec:	61686374 	smcvs	34356	; 0x8634
 1f0:	656e0072 	strbvs	r0, [lr, #-114]!	; 0x72
 1f4:	00705f67 	rsbseq	r5, r0, r7, ror #30
 1f8:	65766572 	ldrbvs	r6, [r6, #-1394]!	; 0x572
 1fc:	00657372 	rsbeq	r7, r5, r2, ror r3
 200:	69647369 	stmdbvs	r4!, {r0, r3, r5, r6, r8, r9, ip, sp, lr}^
 204:	00746967 	rsbseq	r6, r4, r7, ror #18
 208:	55465f5f 	strbpl	r5, [r6, #-3935]	; 0xf5f
 20c:	4954434e 	ldmdbmi	r4, {r1, r2, r3, r6, r8, r9, lr}^
 210:	5f5f4e4f 	svcpl	0x005f4e4f
 214:	74757000 	ldrbtvc	r7, [r5], #-0
 218:	70665f73 	rsbvc	r5, r6, r3, ror pc
 21c:	73616200 	cmnvc	r1, #0, 4
 220:	69730065 	ldmdbvs	r3!, {r0, r2, r5, r6}^
 224:	64656e67 	strbtvs	r6, [r5], #-3687	; 0xe67
 228:	6c00705f 	stcvs	0, cr7, [r0], {95}	; 0x5f
 22c:	2f636269 	svccs	0x00636269
 230:	702d6176 	eorvc	r6, sp, r6, ror r1
 234:	746e6972 	strbtvc	r6, [lr], #-2418	; 0x972
 238:	00632e6b 	rsbeq	r2, r3, fp, ror #28
 23c:	5f697072 	svcpl	0x00697072
 240:	5f746573 	svcpl	0x00746573
 244:	7074756f 	rsbsvc	r7, r4, pc, ror #10
 248:	77007475 	smlsdxvc	r0, r5, r4, r7
 24c:	68746469 	ldmdavs	r4!, {r0, r3, r5, r6, sl, sp, lr}^
 250:	74757000 	ldrbtvc	r7, [r5], #-0
 254:	70665f63 	rsbvc	r5, r6, r3, ror #30
 258:	69707200 	ldmdbvs	r0!, {r9, ip, sp, lr}^
 25c:	7365725f 	cmnvc	r5, #-268435451	; 0xf0000005
 260:	705f7465 	subsvc	r7, pc, r5, ror #8
 264:	00637475 	rsbeq	r7, r3, r5, ror r4
 268:	74696d65 	strbtvc	r6, [r9], #-3429	; 0xd65
 26c:	69707200 	ldmdbvs	r0!, {r9, ip, sp, lr}^
 270:	6265725f 	rsbvs	r7, r5, #-268435451	; 0xf0000005
 274:	00746f6f 	rsbseq	r6, r4, pc, ror #30
 278:	34317363 	ldrtcc	r7, [r1], #-867	; 0x363
 27c:	732d6530 	teqvc	sp, #48, 10	; 0xc000000
 280:	632f6372 	teqvs	pc, #-939524095	; 0xc8000001
 284:	6e61656c 	cdpvs	5, 6, cr6, cr1, cr12, {3}
 288:	6265722d 	rsbvs	r7, r5, #-805306366	; 0xd0000002
 28c:	2e746f6f 	cdpcs	15, 7, cr6, cr4, cr15, {3}
 290:	65640063 	strbvs	r0, [r4, #-99]!	; 0x63
 294:	5f79616c 	svcpl	0x0079616c
 298:	6900736d 	stmdbvs	r0, {r0, r2, r3, r5, r6, r8, r9, ip, sp, lr}
 29c:	7265746e 	rsbvc	r7, r5, #1845493760	; 0x6e000000
 2a0:	5f6c616e 	svcpl	0x006c616e
 2a4:	705f7773 	subsvc	r7, pc, r3, ror r7	; <UNPREDICTABLE>
 2a8:	68637475 	stmdavs	r3!, {r0, r2, r4, r5, r6, sl, ip, sp, lr}^
 2ac:	5f007261 	svcpl	0x00007261
 2b0:	7373625f 	cmnvc	r3, #-268435451	; 0xf0000005
 2b4:	6174735f 	cmnvs	r4, pc, asr r3
 2b8:	5f5f7472 	svcpl	0x005f7472
 2bc:	73736200 	cmnvc	r3, #0, 4
 2c0:	646e655f 	strbtvs	r6, [lr], #-1375	; 0x55f
 2c4:	63796300 	cmnvs	r9, #0, 6
 2c8:	705f656c 	subsvc	r6, pc, ip, ror #10
 2cc:	625f7265 	subsvs	r7, pc, #1342177286	; 0x50000006
 2d0:	63007469 	movwvs	r7, #1129	; 0x469
 2d4:	6f736e6f 	svcvs	0x00736e6f
 2d8:	755f656c 	ldrbvc	r6, [pc, #-1388]	; fffffd74 <__bss_end__+0xffff606c>
 2dc:	00747261 	rsbseq	r7, r4, r1, ror #4
 2e0:	755f7773 	ldrbvc	r7, [pc, #-1907]	; fffffb75 <__bss_end__+0xffff5e6d>
 2e4:	5f747261 	svcpl	0x00747261
 2e8:	6e697270 	mcrvs	2, 3, r7, cr9, cr0, {3}
 2ec:	50006b74 	andpl	r6, r0, r4, ror fp
 2f0:	5f435455 	svcpl	0x00435455
 2f4:	5f505345 	svcpl	0x00505345
 2f8:	54524155 	ldrbpl	r4, [r2], #-341	; 0x155
 2fc:	5f777300 	svcpl	0x00777300
 300:	74726175 	ldrbtvc	r6, [r2], #-373	; 0x175
 304:	5000745f 	andpl	r7, r0, pc, asr r4
 308:	5f435455 	svcpl	0x00435455
 30c:	555f5753 	ldrbpl	r5, [pc, #-1875]	; fffffbc1 <__bss_end__+0xffff5eb9>
 310:	00545241 	subseq	r5, r4, r1, asr #4
 314:	64756162 	ldrbtvs	r6, [r5], #-354	; 0x162
 318:	54555000 	ldrbpl	r5, [r5], #-0
 31c:	57485f43 	strbpl	r5, [r8, -r3, asr #30]
 320:	5241555f 	subpl	r5, r1, #398458880	; 0x17c00000
 324:	635f0054 	cmpvs	pc, #84	; 0x54
 328:	72617473 	rsbvc	r7, r1, #1929379840	; 0x73000000
 32c:	61750074 	cmnvs	r5, r4, ror r0
 330:	645f7472 	ldrbvs	r7, [pc], #-1138	; 338 <_start-0x7cc8>
 334:	745f7665 	ldrbvc	r7, [pc], #-1637	; 33c <_start-0x7cc4>
 338:	5f777300 	svcpl	0x00777300
 33c:	74726175 	ldrbtvc	r6, [r2], #-373	; 0x175
 340:	7475705f 	ldrbtvc	r7, [r5], #-95	; 0x5f
 344:	69750063 	ldmdbvs	r5!, {r0, r1, r5, r6}^
 348:	5f38746e 	svcpl	0x0038746e
 34c:	6f630074 	svcvs	0x00630074
 350:	6f72746e 	svcvs	0x0072746e
 354:	6c625f6c 	stclvs	15, cr5, [r2], #-432	; 0xfffffe50
 358:	00745f6b 	rsbseq	r5, r4, fp, ror #30
 35c:	755f7773 	ldrbvc	r7, [pc, #-1907]	; fffffbf1 <__bss_end__+0xffff5ee9>
 360:	00747261 	rsbseq	r7, r4, r1, ror #4
 364:	675f6263 	ldrbvs	r6, [pc, -r3, ror #4]
 368:	625f7465 	subsvs	r7, pc, #1694498816	; 0x65000000
 36c:	6b636f6c 	blvs	18dc124 <__bss_end__+0x18d241c>
 370:	625f5f00 	subsvs	r5, pc, #0, 30
 374:	655f7373 	ldrbvs	r7, [pc, #-883]	; 9 <_start-0x7ff7>
 378:	5f5f646e 	svcpl	0x005f646e
 37c:	31736300 	cmncc	r3, r0, lsl #6
 380:	2d653034 	stclcs	0, cr3, [r5, #-208]!	; 0xffffff30
 384:	2f637273 	svccs	0x00637273
 388:	61747363 	cmnvs	r4, r3, ror #6
 38c:	632e7472 	teqvs	lr, #1912602624	; 0x72000000
 390:	6e6f6300 	cdpvs	3, 6, cr6, cr15, cr0, {0}
 394:	656c6f73 	strbvs	r6, [ip, #-3955]!	; 0xf73
 398:	7665645f 			; <UNDEFINED> instruction: 0x7665645f
 39c:	6e697500 	cdpvs	5, 6, cr7, cr9, cr0, {0}
 3a0:	5f323374 	svcpl	0x00323374
 3a4:	616d0074 	smcvs	53252	; 0xd004
 3a8:	00636967 	rsbeq	r6, r3, r7, ror #18
 3ac:	755f7461 	ldrbvc	r7, [pc, #-1121]	; ffffff53 <__bss_end__+0xffff624b>
 3b0:	5f726573 	svcpl	0x00726573
 3b4:	6576656c 	ldrbvs	r6, [r6, #-1388]!	; 0x56c
 3b8:	4d50006c 	ldclmi	0, cr0, [r0, #-432]	; 0xfffffe50
 3bc:	5341505f 	movtpl	r5, #4191	; 0x105f
 3c0:	524f5753 	subpl	r5, pc, #21757952	; 0x14c0000
 3c4:	73630044 	cmnvc	r3, #68	; 0x44
 3c8:	65303431 	ldrvs	r3, [r0, #-1073]!	; 0x431
 3cc:	6372732d 	cmnvs	r2, #-1275068416	; 0xb4000000
 3d0:	6265722f 	rsbvs	r7, r5, #-268435454	; 0xf0000002
 3d4:	2e746f6f 	cdpcs	15, 7, cr6, cr4, cr15, {3}
 3d8:	4d500063 	ldclmi	0, cr0, [r0, #-396]	; 0xfffffe74
 3dc:	5453525f 	ldrbpl	r5, [r3], #-607	; 0x25f
 3e0:	52575f43 	subspl	r5, r7, #268	; 0x10c
 3e4:	5f474643 	svcpl	0x00474643
 3e8:	4c4c5546 	cfstr64mi	mvdx5, [ip], {70}	; 0x46
 3ec:	5345525f 	movtpl	r5, #21087	; 0x525f
 3f0:	50005445 	andpl	r5, r0, r5, asr #8
 3f4:	44575f4d 	ldrbmi	r5, [r7], #-3917	; 0xf4d
 3f8:	7300474f 	movwvc	r4, #1871	; 0x74f
 3fc:	755f7465 	ldrbvc	r7, [pc, #-1125]	; ffffff9f <__bss_end__+0xffff6297>
 400:	5f726573 	svcpl	0x00726573
 404:	6576656c 	ldrbvs	r6, [r6, #-1388]!	; 0x56c
 408:	5550006c 	ldrbpl	r0, [r0, #-108]	; 0x6c
 40c:	00323354 	eorseq	r3, r2, r4, asr r3
 410:	525f4d50 	subspl	r4, pc, #80, 26	; 0x1400
 414:	00435453 	subeq	r5, r3, r3, asr r4
 418:	72737063 	rsbsvc	r7, r3, #99	; 0x63
 41c:	6d697400 	cfstrdvs	mvd7, [r9, #-0]
 420:	675f7265 	ldrbvs	r7, [pc, -r5, ror #4]
 424:	755f7465 	ldrbvc	r7, [pc, #-1125]	; ffffffc7 <__bss_end__+0xffff62bf>
 428:	5f636573 	svcpl	0x00636573
 42c:	00776172 	rsbseq	r6, r7, r2, ror r1
 430:	616c6564 	cmnvs	ip, r4, ror #10
 434:	65735f79 	ldrbvs	r5, [r3, #-3961]!	; 0xf79
 438:	73630063 	cmnvc	r3, #99	; 0x63
 43c:	65303431 	ldrvs	r3, [r0, #-1073]!	; 0x431
 440:	6372732d 	cmnvs	r2, #-1275068416	; 0xb4000000
 444:	6d69742f 	cfstrdvs	mvd7, [r9, #-188]!	; 0xffffff44
 448:	632e7265 	teqvs	lr, #1342177286	; 0x50000006
 44c:	54454700 	strbpl	r4, [r5], #-1792	; 0x700
 450:	74003233 	strvc	r3, [r0], #-563	; 0x233
 454:	736b6369 	cmnvc	fp, #-1543503871	; 0xa4000001
 458:	6c656400 	cfstrdvs	mvd6, [r5], #-0
 45c:	635f7961 	cmpvs	pc, #1589248	; 0x184000
 460:	656c6379 	strbvs	r6, [ip, #-889]!	; 0x379
 464:	65640073 	strbvs	r0, [r4, #-115]!	; 0x73
 468:	5f79616c 	svcpl	0x0079616c
 46c:	74007375 	strvc	r7, [r0], #-885	; 0x375
 470:	72656d69 	rsbvc	r6, r5, #6720	; 0x1a40
 474:	7465675f 	strbtvc	r6, [r5], #-1887	; 0x75f
 478:	6573755f 	ldrbvs	r7, [r3, #-1375]!	; 0x55f
 47c:	79630063 	stmdbvc	r3!, {r0, r1, r5, r6}^
 480:	65705f63 	ldrbvs	r5, [r0, #-3939]!	; 0xf63
 484:	69625f72 	stmdbvs	r2!, {r1, r4, r5, r6, r8, r9, sl, fp, ip, lr}^
 488:	72770074 	rsbsvc	r0, r7, #116	; 0x74
 48c:	5f657469 	svcpl	0x00657469
 490:	5f637963 	svcpl	0x00637963
 494:	69746e75 	ldmdbvs	r4!, {r0, r2, r4, r5, r6, r9, sl, fp, sp, lr}^
 498:	7773006c 	ldrbvc	r0, [r3, -ip, rrx]!
 49c:	7261755f 	rsbvc	r7, r1, #398458880	; 0x17c00000
 4a0:	65675f74 	strbvs	r5, [r7, #-3956]!	; 0xf74
 4a4:	745f6374 	ldrbvc	r6, [pc], #-884	; 4ac <_start-0x7b54>
 4a8:	6f656d69 	svcvs	0x00656d69
 4ac:	73007475 	movwvc	r7, #1141	; 0x475
 4b0:	61755f77 	cmnvs	r5, r7, ror pc
 4b4:	675f7472 			; <UNDEFINED> instruction: 0x675f7472
 4b8:	5f737465 	svcpl	0x00737465
 4bc:	69746e75 	ldmdbvs	r4!, {r0, r2, r4, r5, r6, r9, sl, fp, sp, lr}^
 4c0:	7773006c 	ldrbvc	r0, [r3, -ip, rrx]!
 4c4:	7261755f 	rsbvc	r7, r1, #398458880	; 0x17c00000
 4c8:	65675f74 	strbvs	r5, [r7, #-3956]!	; 0xf74
 4cc:	64006374 	strvs	r6, [r0], #-884	; 0x374
 4d0:	76697265 	strbtvc	r7, [r9], -r5, ror #4
 4d4:	64006465 	strvs	r6, [r0], #-1125	; 0x465
 4d8:	79616c65 	stmdbvc	r1!, {r0, r2, r5, r6, sl, fp, sp, lr}^
 4dc:	79636e5f 	stmdbvc	r3!, {r0, r1, r2, r3, r4, r6, r9, sl, fp, sp, lr}^
 4e0:	73656c63 	cmnvc	r5, #25344	; 0x6300
 4e4:	5f777300 	svcpl	0x00777300
 4e8:	74726175 	ldrbtvc	r6, [r2], #-373	; 0x175
 4ec:	696e695f 	stmdbvs	lr!, {r0, r1, r2, r3, r4, r6, r8, fp, sp, lr}^
 4f0:	65685f74 	strbvs	r5, [r8, #-3956]!	; 0xf74
 4f4:	7265706c 	rsbvc	r7, r5, #108	; 0x6c
 4f8:	6d697400 	cfstrdvs	mvd7, [r9, #-0]
 4fc:	74756f65 	ldrbtvc	r6, [r5], #-3941	; 0xf65
 500:	6573755f 	ldrbvs	r7, [r3, #-1375]!	; 0x55f
 504:	77730063 	ldrbvc	r0, [r3, -r3, rrx]!
 508:	7261755f 	rsbvc	r7, r1, #398458880	; 0x17c00000
 50c:	75705f74 	ldrbvc	r5, [r0, #-3956]!	; 0xf74
 510:	67006b74 	smlsdxvs	r0, r4, fp, r6
 514:	5f6f6970 	svcpl	0x006f6970
 518:	64616572 	strbtvs	r6, [r1], #-1394	; 0x572
 51c:	2d796d00 	ldclcs	13, cr6, [r9, #-0]
 520:	2f637273 	svccs	0x00637273
 524:	752d7773 	strvc	r7, [sp, #-1907]!	; 0x773
 528:	2e747261 	cdpcs	2, 7, cr7, cr4, cr1, {3}
 52c:	68630063 	stmdavs	r3!, {r0, r1, r5, r6}^
 530:	695f7261 	ldmdbvs	pc, {r0, r5, r6, r9, ip, sp, lr}^	; <UNPREDICTABLE>
 534:	7773006e 	ldrbvc	r0, [r3, -lr, rrx]!
 538:	7261755f 	rsbvc	r7, r1, #398458880	; 0x17c00000
 53c:	65675f74 	strbvs	r5, [r7, #-3956]!	; 0xf74
 540:	745f7374 	ldrbvc	r7, [pc], #-884	; 548 <_start-0x7ab8>
 544:	6f656d69 	svcvs	0x00656d69
 548:	5f007475 	svcpl	0x00007475
 54c:	0074756f 	rsbseq	r7, r4, pc, ror #10
 550:	7479626e 	ldrbtvc	r6, [r9], #-622	; 0x26e
 554:	67007365 	strvs	r7, [r0, -r5, ror #6]
 558:	5f6f6970 	svcpl	0x006f6970
 55c:	74697277 	strbtvc	r7, [r9], #-631	; 0x277
 560:	73750065 	cmnvc	r5, #101	; 0x65
 564:	745f6365 	ldrbvc	r6, [pc], #-869	; 56c <_start-0x7a94>
 568:	6f656d69 	svcvs	0x00656d69
 56c:	67007475 	smlsdxvs	r0, r5, r4, r7
 570:	5f6f6970 	svcpl	0x006f6970
 574:	5f746573 	svcpl	0x00746573
 578:	75706e69 	ldrbvc	r6, [r0, #-3689]!	; 0xe69
 57c:	77730074 			; <UNDEFINED> instruction: 0x77730074
 580:	7261755f 	rsbvc	r7, r1, #398458880	; 0x17c00000
 584:	65675f74 	strbvs	r5, [r7, #-3956]!	; 0xf74
 588:	755f7374 	ldrbvc	r7, [pc, #-884]	; 21c <_start-0x7de4>
 58c:	6c69746e 	cfstrdvs	mvd7, [r9], #-440	; 0xfffffe48
 590:	6b6c625f 	blvs	1b18f14 <__bss_end__+0x1b0f20c>
 594:	69706700 	ldmdbvs	r0!, {r8, r9, sl, sp, lr}^
 598:	65735f6f 	ldrbvs	r5, [r3, #-3951]!	; 0xf6f
 59c:	756f5f74 	strbvc	r5, [pc, #-3956]!	; fffff630 <__bss_end__+0xffff5928>
 5a0:	74757074 	ldrbtvc	r7, [r5], #-116	; 0x74
 5a4:	69617700 	stmdbvs	r1!, {r8, r9, sl, ip, sp, lr}^
 5a8:	6e755f74 	mrcvs	15, 3, r5, cr5, cr4, {3}
 5ac:	5f6c6974 	svcpl	0x006c6974
 5b0:	63657375 	cmnvs	r5, #-738197503	; 0xd4000001
 5b4:	58554100 	ldmdapl	r5, {r8, lr}^
 5b8:	5f554d5f 	svcpl	0x00554d5f
 5bc:	5f52434d 	svcpl	0x0052434d
 5c0:	00474552 	subeq	r4, r7, r2, asr r5
 5c4:	5f585541 	svcpl	0x00585541
 5c8:	495f554d 	ldmdbmi	pc, {r0, r2, r3, r6, r8, sl, ip, lr}^	; <UNPREDICTABLE>
 5cc:	45525f4f 	ldrbmi	r5, [r2, #-3919]	; 0xf4f
 5d0:	55410047 	strbpl	r0, [r1, #-71]	; 0x47
 5d4:	554d5f58 	strbpl	r5, [sp, #-3928]	; 0xf58
 5d8:	52534d5f 	subspl	r4, r3, #6080	; 0x17c0
 5dc:	4745525f 	smlsldmi	r5, r5, pc, r2	; <UNPREDICTABLE>
 5e0:	49504700 	ldmdbmi	r0, {r8, r9, sl, lr}^
 5e4:	55465f4f 	strbpl	r5, [r6, #-3919]	; 0xf4f
 5e8:	415f434e 	cmpmi	pc, lr, asr #6
 5ec:	0030544c 	eorseq	r5, r0, ip, asr #8
 5f0:	74726175 	ldrbtvc	r6, [r2], #-373	; 0x175
 5f4:	6e61635f 	mcrvs	3, 3, r6, cr1, cr15, {2}
 5f8:	7465675f 	strbtvc	r6, [r5], #-1887	; 0x75f
 5fc:	55410063 	strbpl	r0, [r1, #-99]	; 0x63
 600:	554d5f58 	strbpl	r5, [sp, #-3928]	; 0xf58
 604:	544e435f 	strbpl	r4, [lr], #-863	; 0x35f
 608:	45525f4c 	ldrbmi	r5, [r2, #-3916]	; 0xf4c
 60c:	61750047 	cmnvs	r5, r7, asr #32
 610:	685f7472 	ldmdavs	pc, {r1, r4, r5, r6, sl, ip, sp, lr}^	; <UNPREDICTABLE>
 614:	645f7361 	ldrbvs	r7, [pc], #-865	; 61c <_start-0x79e4>
 618:	00617461 	rsbeq	r7, r1, r1, ror #8
 61c:	5f766564 	svcpl	0x00766564
 620:	72726162 	rsbsvc	r6, r2, #-2147483624	; 0x80000018
 624:	00726569 	rsbseq	r6, r2, r9, ror #10
 628:	4f495047 	svcmi	0x00495047
 62c:	4e55465f 	mrcmi	6, 2, r4, cr5, cr15, {2}
 630:	554f5f43 	strbpl	r5, [pc, #-3907]	; fffff6f5 <__bss_end__+0xffff59ed>
 634:	54555054 	ldrbpl	r5, [r5], #-84	; 0x54
 638:	49504700 	ldmdbmi	r0, {r8, r9, sl, lr}^
 63c:	55465f4f 	strbpl	r5, [r6, #-3919]	; 0xf4f
 640:	415f434e 	cmpmi	pc, lr, asr #6
 644:	0031544c 	eorseq	r5, r1, ip, asr #8
 648:	4f495047 	svcmi	0x00495047
 64c:	4e55465f 	mrcmi	6, 2, r4, cr5, cr15, {2}
 650:	4c415f43 	mcrrmi	15, 4, r5, r1, cr3
 654:	47003254 	smlsdmi	r0, r4, r2, r3
 658:	5f4f4950 	svcpl	0x004f4950
 65c:	434e5546 	movtmi	r5, #58694	; 0xe546
 660:	544c415f 	strbpl	r4, [ip], #-351	; 0x15f
 664:	50470033 	subpl	r0, r7, r3, lsr r0
 668:	465f4f49 	ldrbmi	r4, [pc], -r9, asr #30
 66c:	5f434e55 	svcpl	0x00434e55
 670:	35544c41 	ldrbcc	r4, [r4, #-3137]	; 0xc41
 674:	58554100 	ldmdapl	r5, {r8, lr}^
 678:	5f554d5f 	svcpl	0x00554d5f
 67c:	5f524549 	svcpl	0x00524549
 680:	00474552 	subeq	r4, r7, r2, asr r5
 684:	33747570 	cmncc	r4, #112, 10	; 0x1c000000
 688:	55410032 	strbpl	r0, [r1, #-50]	; 0x32
 68c:	554d5f58 	strbpl	r5, [sp, #-3928]	; 0xf58
 690:	5249495f 	subpl	r4, r9, #1556480	; 0x17c000
 694:	4745525f 	smlsldmi	r5, r5, pc, r2	; <UNPREDICTABLE>
 698:	69706700 	ldmdbvs	r0!, {r8, r9, sl, sp, lr}^
 69c:	75665f6f 	strbvc	r5, [r6, #-3951]!	; 0xf6f
 6a0:	745f636e 	ldrbvc	r6, [pc], #-878	; 6a8 <_start-0x7958>
 6a4:	72617500 	rsbvc	r7, r1, #0, 10
 6a8:	61635f74 	smcvs	13812	; 0x35f4
 6ac:	75705f6e 	ldrbvc	r5, [r0, #-3950]!	; 0xf6e
 6b0:	41006374 	tstmi	r0, r4, ror r3
 6b4:	455f5855 	ldrbmi	r5, [pc, #-2133]	; fffffe67 <__bss_end__+0xffff615f>
 6b8:	4c42414e 	stfmie	f4, [r2], {78}	; 0x4e
 6bc:	41005345 	tstmi	r0, r5, asr #6
 6c0:	495f5855 	ldmdbmi	pc, {r0, r2, r4, r6, fp, ip, lr}^	; <UNPREDICTABLE>
 6c4:	41005152 	tstmi	r0, r2, asr r1
 6c8:	4d5f5855 	ldclmi	8, cr5, [pc, #-340]	; 57c <_start-0x7a84>
 6cc:	41425f55 	cmpmi	r2, r5, asr pc
 6d0:	525f4455 	subspl	r4, pc, #1426063360	; 0x55000000
 6d4:	41004745 	tstmi	r0, r5, asr #14
 6d8:	4d5f5855 	ldclmi	8, cr5, [pc, #-340]	; 58c <_start-0x7a74>
 6dc:	54535f55 	ldrbpl	r5, [r3], #-3925	; 0xf55
 6e0:	525f5441 	subspl	r5, pc, #1090519040	; 0x41000000
 6e4:	47004745 	strmi	r4, [r0, -r5, asr #14]
 6e8:	5f4f4950 	svcpl	0x004f4950
 6ec:	434e5546 	movtmi	r5, #58694	; 0xe546
 6f0:	544c415f 	strbpl	r4, [ip], #-351	; 0x15f
 6f4:	70670034 	rsbvc	r0, r7, r4, lsr r0
 6f8:	735f6f69 	cmpvc	pc, #420	; 0x1a4
 6fc:	665f7465 	ldrbvs	r7, [pc], -r5, ror #8
 700:	74636e75 	strbtvc	r6, [r3], #-3701	; 0xe75
 704:	006e6f69 	rsbeq	r6, lr, r9, ror #30
 708:	5f585541 	svcpl	0x00585541
 70c:	535f554d 	cmppl	pc, #322961408	; 0x13400000
 710:	54415243 	strbpl	r5, [r1], #-579	; 0x243
 714:	6d004843 	stcvs	8, cr4, [r0, #-268]	; 0xfffffef4
 718:	72732d79 	rsbsvc	r2, r3, #7744	; 0x1e40
 71c:	61752f63 	cmnvs	r5, r3, ror #30
 720:	632e7472 	teqvs	lr, #1912602624	; 0x72000000
 724:	58554100 	ldmdapl	r5, {r8, lr}^
 728:	5f554d5f 	svcpl	0x00554d5f
 72c:	5f52434c 	svcpl	0x0052434c
 730:	00474552 	subeq	r4, r7, r2, asr r5
 734:	4f495047 	svcmi	0x00495047
 738:	4e55465f 	mrcmi	6, 2, r4, cr5, cr15, {2}
 73c:	4e495f43 	cdpmi	15, 4, cr5, cr9, cr3, {2}
 740:	00545550 	subseq	r5, r4, r0, asr r5
 744:	5f585541 	svcpl	0x00585541
 748:	4c5f554d 	cfldr64mi	mvdx5, [pc], {77}	; 0x4d
 74c:	525f5253 	subspl	r5, pc, #805306373	; 0x30000005
 750:	75004745 	strvc	r4, [r0, #-1861]	; 0x745
 754:	5f747261 	svcpl	0x00747261
 758:	63746567 	cmnvs	r4, #432013312	; 0x19c00000
 75c:	7973615f 	ldmdbvc	r3!, {r0, r1, r2, r3, r4, r6, r8, sp, lr}^
 760:	6700636e 	strvs	r6, [r0, -lr, ror #6]
 764:	32337465 	eorscc	r7, r3, #1694498816	; 0x65000000
 768:	69706700 	ldmdbvs	r0!, {r8, r9, sl, sp, lr}^
 76c:	76655f6f 	strbtvc	r5, [r5], -pc, ror #30
 770:	5f746e65 	svcpl	0x00746e65
 774:	65746564 	ldrbvs	r6, [r4, #-1380]!	; 0x564
 778:	64657463 	strbtvs	r7, [r5], #-1123	; 0x463
 77c:	46504700 	ldrbmi	r4, [r0], -r0, lsl #14
 780:	324c4553 	subcc	r4, ip, #348127232	; 0x14c00000
 784:	43504700 	cmpmi	r0, #0, 14
 788:	0030524c 	eorseq	r5, r0, ip, asr #4
 78c:	42414e45 	submi	r4, r1, #1104	; 0x450
 790:	495f454c 	ldmdbmi	pc, {r2, r3, r6, r8, sl, lr}^	; <UNPREDICTABLE>
 794:	5f535152 	svcpl	0x00535152
 798:	73690032 	cmnvc	r9, #50	; 0x32
 79c:	6970675f 	ldmdbvs	r0!, {r0, r1, r2, r3, r4, r6, r8, r9, sl, sp, lr}^
 7a0:	6e695f6f 	cdpvs	15, 6, cr5, cr9, cr15, {3}
 7a4:	70670074 	rsbvc	r0, r7, r4, ror r0
 7a8:	735f6f69 	cmpvc	pc, #420	; 0x1a4
 7ac:	6f5f7465 	svcvs	0x005f7465
 7b0:	6d006666 	stcvs	6, cr6, [r0, #-408]	; 0xfffffe68
 7b4:	72732d79 	rsbsvc	r2, r3, #7744	; 0x1e40
 7b8:	70672f63 	rsbvc	r2, r7, r3, ror #30
 7bc:	632e6f69 	teqvs	lr, #420	; 0x1a4
 7c0:	746e6900 	strbtvc	r6, [lr], #-2304	; 0x900
 7c4:	73616d5f 	cmnvc	r1, #6080	; 0x17c0
 7c8:	5047006b 	subpl	r0, r7, fp, rrx
 7cc:	30544553 	subscc	r4, r4, r3, asr r5
 7d0:	53504700 	cmppl	r0, #0, 14
 7d4:	00315445 	eorseq	r5, r1, r5, asr #8
 7d8:	5f676572 	svcpl	0x00676572
 7dc:	74617473 	strbtvc	r7, [r1], #-1139	; 0x473
 7e0:	4c504700 	mrrcmi	7, 0, r4, r0, cr0
 7e4:	00305645 	eorseq	r5, r0, r5, asr #12
 7e8:	454c5047 	strbmi	r5, [ip, #-71]	; 0x47
 7ec:	67003156 	smlsdvs	r0, r6, r1, r3
 7f0:	5f6f6970 	svcpl	0x006f6970
 7f4:	00676572 	rsbeq	r6, r7, r2, ror r5
 7f8:	53465047 	movtpl	r5, #24647	; 0x6047
 7fc:	00304c45 	eorseq	r4, r0, r5, asr #24
 800:	53465047 	movtpl	r5, #24647	; 0x6047
 804:	00314c45 	eorseq	r4, r1, r5, asr #24
 808:	53465047 	movtpl	r5, #24647	; 0x6047
 80c:	00334c45 	eorseq	r4, r3, r5, asr #24
 810:	53465047 	movtpl	r5, #24647	; 0x6047
 814:	00344c45 	eorseq	r4, r4, r5, asr #24
 818:	53465047 	movtpl	r5, #24647	; 0x6047
 81c:	00354c45 	eorseq	r4, r5, r5, asr #24
 820:	6f697067 	svcvs	0x00697067
 824:	6573665f 	ldrbvs	r6, [r3, #-1631]!	; 0x65f
 828:	4700306c 	strmi	r3, [r0, -ip, rrx]
 82c:	524c4350 	subpl	r4, ip, #80, 6	; 0x40000001
 830:	70670031 	rsbvc	r0, r7, r1, lsr r0
 834:	695f6f69 	ldmdbvs	pc, {r0, r3, r5, r6, r8, r9, sl, fp, sp, lr}^	; <UNPREDICTABLE>
 838:	725f746e 	subsvc	r7, pc, #1845493760	; 0x6e000000
 83c:	6e697369 	cdpvs	3, 6, cr7, cr9, cr9, {3}
 840:	64655f67 	strbtvs	r5, [r5], #-3943	; 0xf67
 844:	47006567 	strmi	r6, [r0, -r7, ror #10]
 848:	4e455250 	mcrmi	2, 2, r5, cr5, cr0, {2}
 84c:	50470030 	subpl	r0, r7, r0, lsr r0
 850:	314e4552 	cmpcc	lr, r2, asr r5
 854:	69706700 	ldmdbvs	r0!, {r8, r9, sl, sp, lr}^
 858:	76655f6f 	strbtvc	r5, [r5], -pc, ror #30
 85c:	5f746e65 	svcpl	0x00746e65
 860:	61656c63 	cmnvs	r5, r3, ror #24
 864:	52490072 	subpl	r0, r9, #114	; 0x72
 868:	45505f51 	ldrbmi	r5, [r0, #-3921]	; 0xf51
 86c:	4e49444e 	cdpmi	4, 4, cr4, cr9, cr14, {2}
 870:	00315f47 	eorseq	r5, r1, r7, asr #30
 874:	5f515249 	svcpl	0x00515249
 878:	444e4550 	strbmi	r4, [lr], #-1360	; 0x550
 87c:	5f474e49 	svcpl	0x00474e49
 880:	69620032 	stmdbvs	r2!, {r1, r4, r5}^
 884:	73616d74 	cmnvc	r1, #116, 26	; 0x1d00
 888:	7067006b 	rsbvc	r0, r7, fp, rrx
 88c:	735f6f69 	cmpvc	pc, #420	; 0x1a4
 890:	00307465 	eorseq	r7, r0, r5, ror #8
 894:	636e7566 	cmnvs	lr, #427819008	; 0x19800000
 898:	45504700 	ldrbmi	r4, [r0, #-1792]	; 0x700
 89c:	00305344 	eorseq	r5, r0, r4, asr #6
 8a0:	44455047 	strbmi	r5, [r5], #-71	; 0x47
 8a4:	67003153 	smlsdvs	r0, r3, r1, r3
 8a8:	5f6f6970 	svcpl	0x006f6970
 8ac:	5f746573 	svcpl	0x00746573
 8b0:	47006e6f 	strmi	r6, [r0, -pc, ror #28]
 8b4:	4e454650 	mcrmi	6, 2, r4, cr5, cr0, {2}
 8b8:	50470030 	subpl	r0, r7, r0, lsr r0
 8bc:	314e4546 	cmpcc	lr, r6, asr #10
 8c0:	69706700 	ldmdbvs	r0!, {r8, r9, sl, sp, lr}^
 8c4:	6e695f6f 	cdpvs	15, 6, cr5, cr9, cr15, {3}
 8c8:	61665f74 	smcvs	26100	; 0x65f4
 8cc:	6e696c6c 	cdpvs	12, 6, cr6, cr9, cr12, {3}
 8d0:	64655f67 	strbtvs	r5, [r5], #-3943	; 0xf67
 8d4:	72006567 	andvc	r6, r0, #432013312	; 0x19c00000
 8d8:	735f6765 	cmpvc	pc, #26476544	; 0x1940000
 8dc:	63656c65 	cmnvs	r5, #25856	; 0x6500
 8e0:	70670074 	rsbvc	r0, r7, r4, ror r0
 8e4:	635f6f69 	cmpvs	pc, #420	; 0x1a4
 8e8:	0030726c 	eorseq	r7, r0, ip, ror #4
 8ec:	65746e69 	ldrbvs	r6, [r4, #-3689]!	; 0xe69
 8f0:	6c616e72 	stclvs	14, cr6, [r1], #-456	; 0xfffffe38
 8f4:	7475705f 	ldrbtvc	r7, [r5], #-95	; 0x5f
 8f8:	72616863 	rsbvc	r6, r1, #6488064	; 0x630000
 8fc:	62696c00 	rsbvs	r6, r9, #0, 24
 900:	75702f63 	ldrbvc	r2, [r0, #-3939]!	; 0xf63
 904:	61686374 	smcvs	34356	; 0x8634
 908:	00632e72 	rsbeq	r2, r3, r2, ror lr
 90c:	5f697072 	svcpl	0x00697072
 910:	5f746573 	svcpl	0x00746573
 914:	63747570 	cmnvs	r4, #112, 10	; 0x1c000000
 918:	7a697300 	bvc	1a5d520 <__bss_end__+0x1a53818>
 91c:	00745f65 	rsbseq	r5, r4, r5, ror #30
 920:	736d656d 	cmnvc	sp, #457179136	; 0x1b400000
 924:	63007465 	movwvs	r7, #1125	; 0x465
 928:	656e5f62 	strbvs	r5, [lr, #-3938]!	; 0xf62
 92c:	73630077 	cmnvc	r3, #119	; 0x77
 930:	65303431 	ldrvs	r3, [r0, #-1073]!	; 0x431
 934:	6372732d 	cmnvs	r2, #-1275068416	; 0xb4000000
 938:	6e6f632f 	cdpvs	3, 6, cr6, cr15, cr15, {1}
 93c:	6c6f7274 	sfmvs	f7, 2, [pc], #-464	; 774 <_start-0x788c>
 940:	6f6c622d 	svcvs	0x006c622d
 944:	632e6b63 	teqvs	lr, #101376	; 0x18c00
 948:	62696c00 	rsbvs	r6, r9, #0, 24
 94c:	656d2f63 	strbvs	r2, [sp, #-3939]!	; 0xf63
 950:	7465736d 	strbtvc	r7, [r5], #-877	; 0x36d
 954:	Address 0x0000000000000954 is out of bounds.


Disassembly of section .debug_frame:

00000000 <.debug_frame>:
   0:	0000000c 	andeq	r0, r0, ip
   4:	ffffffff 			; <UNDEFINED> instruction: 0xffffffff
   8:	7c020001 	stcvc	0, cr0, [r2], {1}
   c:	000d0c0e 	andeq	r0, sp, lr, lsl #24
  10:	00000014 	andeq	r0, r0, r4, lsl r0
  14:	00000000 	andeq	r0, r0, r0
  18:	00008010 	andeq	r8, r0, r0, lsl r0
  1c:	00000018 	andeq	r0, r0, r8, lsl r0
  20:	83080e42 	movwhi	r0, #36418	; 0x8e42
  24:	00018e02 	andeq	r8, r1, r2, lsl #28
  28:	0000000c 	andeq	r0, r0, ip
  2c:	ffffffff 			; <UNDEFINED> instruction: 0xffffffff
  30:	7c020001 	stcvc	0, cr0, [r2], {1}
  34:	000d0c0e 	andeq	r0, sp, lr, lsl #24
  38:	00000024 	andeq	r0, r0, r4, lsr #32
  3c:	00000028 	andeq	r0, r0, r8, lsr #32
  40:	00008028 	andeq	r8, r0, r8, lsr #32
  44:	00000058 	andeq	r0, r0, r8, asr r0
  48:	80100e42 	andshi	r0, r0, r2, asr #28
  4c:	82038104 	andhi	r8, r3, #4, 2
  50:	42018302 	andmi	r8, r1, #134217728	; 0x8000000
  54:	07841c0e 	streq	r1, [r4, lr, lsl #24]
  58:	058e0685 	streq	r0, [lr, #1669]	; 0x685
  5c:	00280e42 	eoreq	r0, r8, r2, asr #28
  60:	0000000c 	andeq	r0, r0, ip
  64:	ffffffff 			; <UNDEFINED> instruction: 0xffffffff
  68:	7c020001 	stcvc	0, cr0, [r2], {1}
  6c:	000d0c0e 	andeq	r0, sp, lr, lsl #24
  70:	00000018 	andeq	r0, r0, r8, lsl r0
  74:	00000060 	andeq	r0, r0, r0, rrx
  78:	00008080 	andeq	r8, r0, r0, lsl #1
  7c:	00000034 	andeq	r0, r0, r4, lsr r0
  80:	83100e42 	tsthi	r0, #1056	; 0x420
  84:	85038404 	strhi	r8, [r3, #-1028]	; 0x404
  88:	00018e02 	andeq	r8, r1, r2, lsl #28
  8c:	0000000c 	andeq	r0, r0, ip
  90:	ffffffff 			; <UNDEFINED> instruction: 0xffffffff
  94:	7c020001 	stcvc	0, cr0, [r2], {1}
  98:	000d0c0e 	andeq	r0, sp, lr, lsl #24
  9c:	0000000c 	andeq	r0, r0, ip
  a0:	0000008c 	andeq	r0, r0, ip, lsl #1
  a4:	000080b4 	strheq	r8, [r0], -r4
  a8:	00000014 	andeq	r0, r0, r4, lsl r0
  ac:	0000000c 	andeq	r0, r0, ip
  b0:	0000008c 	andeq	r0, r0, ip, lsl #1
  b4:	000080c8 	andeq	r8, r0, r8, asr #1
  b8:	0000002c 	andeq	r0, r0, ip, lsr #32
  bc:	0000000c 	andeq	r0, r0, ip
  c0:	0000008c 	andeq	r0, r0, ip, lsl #1
  c4:	000080f4 	strdeq	r8, [r0], -r4
  c8:	00000040 	andeq	r0, r0, r0, asr #32
  cc:	00000020 	andeq	r0, r0, r0, lsr #32
  d0:	0000008c 	andeq	r0, r0, ip, lsl #1
  d4:	00008134 	andeq	r8, r0, r4, lsr r1
  d8:	0000019c 	muleq	r0, ip, r1
  dc:	84180e42 	ldrhi	r0, [r8], #-3650	; 0xe42
  e0:	86058506 	strhi	r8, [r5], -r6, lsl #10
  e4:	88038704 	stmdahi	r3, {r2, r8, r9, sl, pc}
  e8:	42018e02 	andmi	r8, r1, #2, 28
  ec:	0000580e 	andeq	r5, r0, lr, lsl #16
  f0:	00000014 	andeq	r0, r0, r4, lsl r0
  f4:	0000008c 	andeq	r0, r0, ip, lsl #1
  f8:	000082d0 	ldrdeq	r8, [r0], -r0
  fc:	00000054 	andeq	r0, r0, r4, asr r0
 100:	83080e42 	movwhi	r0, #36418	; 0x8e42
 104:	00018e02 	andeq	r8, r1, r2, lsl #28
 108:	00000028 	andeq	r0, r0, r8, lsr #32
 10c:	0000008c 	andeq	r0, r0, ip, lsl #1
 110:	00008324 	andeq	r8, r0, r4, lsr #6
 114:	00000288 	andeq	r0, r0, r8, lsl #5
 118:	84240e42 	strthi	r0, [r4], #-3650	; 0xe42
 11c:	86088509 	strhi	r8, [r8], -r9, lsl #10
 120:	88068707 	stmdahi	r6, {r0, r1, r2, r8, r9, sl, pc}
 124:	8a048905 	bhi	122540 <__bss_end__+0x118838>
 128:	8e028b03 	vmlahi.f64	d8, d2, d3
 12c:	b00e4201 	andlt	r4, lr, r1, lsl #4
 130:	00000001 	andeq	r0, r0, r1
 134:	0000000c 	andeq	r0, r0, ip
 138:	ffffffff 			; <UNDEFINED> instruction: 0xffffffff
 13c:	7c020001 	stcvc	0, cr0, [r2], {1}
 140:	000d0c0e 	andeq	r0, sp, lr, lsl #24
 144:	00000014 	andeq	r0, r0, r4, lsl r0
 148:	00000134 	andeq	r0, r0, r4, lsr r1
 14c:	000085ac 	andeq	r8, r0, ip, lsr #11
 150:	00000028 	andeq	r0, r0, r8, lsr #32
 154:	83080e42 	movwhi	r0, #36418	; 0x8e42
 158:	00018e02 	andeq	r8, r1, r2, lsl #28
 15c:	0000000c 	andeq	r0, r0, ip
 160:	ffffffff 			; <UNDEFINED> instruction: 0xffffffff
 164:	7c020001 	stcvc	0, cr0, [r2], {1}
 168:	000d0c0e 	andeq	r0, sp, lr, lsl #24
 16c:	00000014 	andeq	r0, r0, r4, lsl r0
 170:	0000015c 	andeq	r0, r0, ip, asr r1
 174:	000085d4 	ldrdeq	r8, [r0], -r4
 178:	00000020 	andeq	r0, r0, r0, lsr #32
 17c:	84080e42 	strhi	r0, [r8], #-3650	; 0xe42
 180:	00018e02 	andeq	r8, r1, r2, lsl #28
 184:	00000014 	andeq	r0, r0, r4, lsl r0
 188:	0000015c 	andeq	r0, r0, ip, asr r1
 18c:	000085f4 	strdeq	r8, [r0], -r4
 190:	00000090 	muleq	r0, r0, r0
 194:	83080e42 	movwhi	r0, #36418	; 0x8e42
 198:	00018e02 	andeq	r8, r1, r2, lsl #28
 19c:	0000000c 	andeq	r0, r0, ip
 1a0:	ffffffff 			; <UNDEFINED> instruction: 0xffffffff
 1a4:	7c020001 	stcvc	0, cr0, [r2], {1}
 1a8:	000d0c0e 	andeq	r0, sp, lr, lsl #24
 1ac:	0000000c 	andeq	r0, r0, ip
 1b0:	0000019c 	muleq	r0, ip, r1
 1b4:	00008684 	andeq	r8, r0, r4, lsl #13
 1b8:	00000018 	andeq	r0, r0, r8, lsl r0
 1bc:	0000000c 	andeq	r0, r0, ip
 1c0:	0000019c 	muleq	r0, ip, r1
 1c4:	0000869c 	muleq	r0, ip, r6
 1c8:	00000014 	andeq	r0, r0, r4, lsl r0
 1cc:	00000014 	andeq	r0, r0, r4, lsl r0
 1d0:	0000019c 	muleq	r0, ip, r1
 1d4:	000086b0 			; <UNDEFINED> instruction: 0x000086b0
 1d8:	00000048 	andeq	r0, r0, r8, asr #32
 1dc:	83080e42 	movwhi	r0, #36418	; 0x8e42
 1e0:	00018e02 	andeq	r8, r1, r2, lsl #28
 1e4:	0000000c 	andeq	r0, r0, ip
 1e8:	ffffffff 			; <UNDEFINED> instruction: 0xffffffff
 1ec:	7c020001 	stcvc	0, cr0, [r2], {1}
 1f0:	000d0c0e 	andeq	r0, sp, lr, lsl #24
 1f4:	0000000c 	andeq	r0, r0, ip
 1f8:	000001e4 	andeq	r0, r0, r4, ror #3
 1fc:	000086f8 	strdeq	r8, [r0], -r8	; <UNPREDICTABLE>
 200:	0000001c 	andeq	r0, r0, ip, lsl r0
 204:	00000014 	andeq	r0, r0, r4, lsl r0
 208:	000001e4 	andeq	r0, r0, r4, ror #3
 20c:	00008714 	andeq	r8, r0, r4, lsl r7
 210:	00000014 	andeq	r0, r0, r4, lsl r0
 214:	83080e42 	movwhi	r0, #36418	; 0x8e42
 218:	00018e02 	andeq	r8, r1, r2, lsl #28
 21c:	00000014 	andeq	r0, r0, r4, lsl r0
 220:	000001e4 	andeq	r0, r0, r4, ror #3
 224:	00008728 	andeq	r8, r0, r8, lsr #14
 228:	0000000c 	andeq	r0, r0, ip
 22c:	83080e42 	movwhi	r0, #36418	; 0x8e42
 230:	00018e02 	andeq	r8, r1, r2, lsl #28
 234:	00000018 	andeq	r0, r0, r8, lsl r0
 238:	000001e4 	andeq	r0, r0, r4, ror #3
 23c:	00008734 	andeq	r8, r0, r4, lsr r7
 240:	00000024 	andeq	r0, r0, r4, lsr #32
 244:	83100e42 	tsthi	r0, #1056	; 0x420
 248:	85038404 	strhi	r8, [r3, #-1028]	; 0x404
 24c:	00018e02 	andeq	r8, r1, r2, lsl #28
 250:	00000014 	andeq	r0, r0, r4, lsl r0
 254:	000001e4 	andeq	r0, r0, r4, ror #3
 258:	00008758 	andeq	r8, r0, r8, asr r7
 25c:	00000014 	andeq	r0, r0, r4, lsl r0
 260:	83080e42 	movwhi	r0, #36418	; 0x8e42
 264:	00018e02 	andeq	r8, r1, r2, lsl #28
 268:	00000014 	andeq	r0, r0, r4, lsl r0
 26c:	000001e4 	andeq	r0, r0, r4, ror #3
 270:	0000876c 	andeq	r8, r0, ip, ror #14
 274:	00000014 	andeq	r0, r0, r4, lsl r0
 278:	83080e42 	movwhi	r0, #36418	; 0x8e42
 27c:	00018e02 	andeq	r8, r1, r2, lsl #28
 280:	0000000c 	andeq	r0, r0, ip
 284:	ffffffff 			; <UNDEFINED> instruction: 0xffffffff
 288:	7c020001 	stcvc	0, cr0, [r2], {1}
 28c:	000d0c0e 	andeq	r0, sp, lr, lsl #24
 290:	0000001c 	andeq	r0, r0, ip, lsl r0
 294:	00000280 	andeq	r0, r0, r0, lsl #5
 298:	00008780 	andeq	r8, r0, r0, lsl #15
 29c:	00000154 	andeq	r0, r0, r4, asr r1
 2a0:	84180e42 	ldrhi	r0, [r8], #-3650	; 0xe42
 2a4:	86058506 	strhi	r8, [r5], -r6, lsl #10
 2a8:	88038704 	stmdahi	r3, {r2, r8, r9, sl, pc}
 2ac:	00018e02 	andeq	r8, r1, r2, lsl #28
 2b0:	00000020 	andeq	r0, r0, r0, lsr #32
 2b4:	00000280 	andeq	r0, r0, r0, lsl #5
 2b8:	000088d4 	ldrdeq	r8, [r0], -r4
 2bc:	000001c8 	andeq	r0, r0, r8, asr #3
 2c0:	83200e42 	teqhi	r0, #1056	; 0x420
 2c4:	85078408 	strhi	r8, [r7, #-1032]	; 0x408
 2c8:	87058606 	strhi	r8, [r5, -r6, lsl #12]
 2cc:	89038804 	stmdbhi	r3, {r2, fp, pc}
 2d0:	00018e02 	andeq	r8, r1, r2, lsl #28
 2d4:	00000020 	andeq	r0, r0, r0, lsr #32
 2d8:	00000280 	andeq	r0, r0, r0, lsl #5
 2dc:	00008a9c 	muleq	r0, ip, sl
 2e0:	00000090 	muleq	r0, r0, r0
 2e4:	84200e42 	strthi	r0, [r0], #-3650	; 0xe42
 2e8:	86078508 	strhi	r8, [r7], -r8, lsl #10
 2ec:	88058706 	stmdahi	r5, {r1, r2, r8, r9, sl, pc}
 2f0:	8a038904 	bhi	e2708 <__bss_end__+0xd8a00>
 2f4:	00018e02 	andeq	r8, r1, r2, lsl #28
 2f8:	0000001c 	andeq	r0, r0, ip, lsl r0
 2fc:	00000280 	andeq	r0, r0, r0, lsl #5
 300:	00008b2c 	andeq	r8, r0, ip, lsr #22
 304:	0000007c 	andeq	r0, r0, ip, ror r0
 308:	84180e42 	ldrhi	r0, [r8], #-3650	; 0xe42
 30c:	86058506 	strhi	r8, [r5], -r6, lsl #10
 310:	88038704 	stmdahi	r3, {r2, r8, r9, sl, pc}
 314:	00018e02 	andeq	r8, r1, r2, lsl #28
 318:	0000001c 	andeq	r0, r0, ip, lsl r0
 31c:	00000280 	andeq	r0, r0, r0, lsl #5
 320:	00008ba8 	andeq	r8, r0, r8, lsr #23
 324:	000000c0 	andeq	r0, r0, r0, asr #1
 328:	84180e42 	ldrhi	r0, [r8], #-3650	; 0xe42
 32c:	86058506 	strhi	r8, [r5], -r6, lsl #10
 330:	88038704 	stmdahi	r3, {r2, r8, r9, sl, pc}
 334:	00018e02 	andeq	r8, r1, r2, lsl #28
 338:	00000014 	andeq	r0, r0, r4, lsl r0
 33c:	00000280 	andeq	r0, r0, r0, lsl #5
 340:	00008c68 	andeq	r8, r0, r8, ror #24
 344:	0000003c 	andeq	r0, r0, ip, lsr r0
 348:	83080e42 	movwhi	r0, #36418	; 0x8e42
 34c:	00018e02 	andeq	r8, r1, r2, lsl #28
 350:	00000018 	andeq	r0, r0, r8, lsl r0
 354:	00000280 	andeq	r0, r0, r0, lsl #5
 358:	00008ca4 	andeq	r8, r0, r4, lsr #25
 35c:	0000002c 	andeq	r0, r0, ip, lsr #32
 360:	83100e42 	tsthi	r0, #1056	; 0x420
 364:	85038404 	strhi	r8, [r3, #-1028]	; 0x404
 368:	00018e02 	andeq	r8, r1, r2, lsl #28
 36c:	00000024 	andeq	r0, r0, r4, lsr #32
 370:	00000280 	andeq	r0, r0, r0, lsl #5
 374:	00008cd0 	ldrdeq	r8, [r0], -r0
 378:	00000084 	andeq	r0, r0, r4, lsl #1
 37c:	810c0e42 	tsthi	ip, r2, asr #28
 380:	83028203 	movwhi	r8, #8707	; 0x2203
 384:	180e4201 	stmdane	lr, {r0, r9, lr}
 388:	05850684 	streq	r0, [r5, #1668]	; 0x684
 38c:	0e42048e 	cdpeq	4, 4, cr0, cr2, cr14, {4}
 390:	000003e8 	andeq	r0, r0, r8, ror #7
 394:	00000014 	andeq	r0, r0, r4, lsl r0
 398:	00000280 	andeq	r0, r0, r0, lsl #5
 39c:	00008d54 	andeq	r8, r0, r4, asr sp
 3a0:	0000004c 	andeq	r0, r0, ip, asr #32
 3a4:	8e040e42 	cdphi	14, 0, cr0, cr4, cr2, {2}
 3a8:	100e4201 	andne	r4, lr, r1, lsl #4
 3ac:	0000000c 	andeq	r0, r0, ip
 3b0:	ffffffff 			; <UNDEFINED> instruction: 0xffffffff
 3b4:	7c020001 	stcvc	0, cr0, [r2], {1}
 3b8:	000d0c0e 	andeq	r0, sp, lr, lsl #24
 3bc:	00000018 	andeq	r0, r0, r8, lsl r0
 3c0:	000003ac 	andeq	r0, r0, ip, lsr #7
 3c4:	00008da0 	andeq	r8, r0, r0, lsr #27
 3c8:	0000009c 	muleq	r0, ip, r0
 3cc:	83100e42 	tsthi	r0, #1056	; 0x420
 3d0:	85038404 	strhi	r8, [r3, #-1028]	; 0x404
 3d4:	00018e02 	andeq	r8, r1, r2, lsl #28
 3d8:	00000014 	andeq	r0, r0, r4, lsl r0
 3dc:	000003ac 	andeq	r0, r0, ip, lsr #7
 3e0:	00008e3c 	andeq	r8, r0, ip, lsr lr
 3e4:	0000001c 	andeq	r0, r0, ip, lsl r0
 3e8:	83080e42 	movwhi	r0, #36418	; 0x8e42
 3ec:	00018e02 	andeq	r8, r1, r2, lsl #28
 3f0:	00000014 	andeq	r0, r0, r4, lsl r0
 3f4:	000003ac 	andeq	r0, r0, ip, lsr #7
 3f8:	00008e58 	andeq	r8, r0, r8, asr lr
 3fc:	00000028 	andeq	r0, r0, r8, lsr #32
 400:	83080e42 	movwhi	r0, #36418	; 0x8e42
 404:	00018e02 	andeq	r8, r1, r2, lsl #28
 408:	00000014 	andeq	r0, r0, r4, lsl r0
 40c:	000003ac 	andeq	r0, r0, ip, lsr #7
 410:	00008e80 	andeq	r8, r0, r0, lsl #29
 414:	0000001c 	andeq	r0, r0, ip, lsl r0
 418:	83080e42 	movwhi	r0, #36418	; 0x8e42
 41c:	00018e02 	andeq	r8, r1, r2, lsl #28
 420:	00000014 	andeq	r0, r0, r4, lsl r0
 424:	000003ac 	andeq	r0, r0, ip, lsr #7
 428:	00008e9c 	muleq	r0, ip, lr
 42c:	0000002c 	andeq	r0, r0, ip, lsr #32
 430:	84080e42 	strhi	r0, [r8], #-3650	; 0xe42
 434:	00018e02 	andeq	r8, r1, r2, lsl #28
 438:	00000014 	andeq	r0, r0, r4, lsl r0
 43c:	000003ac 	andeq	r0, r0, ip, lsr #7
 440:	00008ec8 	andeq	r8, r0, r8, asr #29
 444:	0000000c 	andeq	r0, r0, ip
 448:	83080e42 	movwhi	r0, #36418	; 0x8e42
 44c:	00018e02 	andeq	r8, r1, r2, lsl #28
 450:	00000014 	andeq	r0, r0, r4, lsl r0
 454:	000003ac 	andeq	r0, r0, ip, lsr #7
 458:	00008ed4 	ldrdeq	r8, [r0], -r4
 45c:	00000020 	andeq	r0, r0, r0, lsr #32
 460:	83080e42 	movwhi	r0, #36418	; 0x8e42
 464:	00018e02 	andeq	r8, r1, r2, lsl #28
 468:	0000000c 	andeq	r0, r0, ip
 46c:	ffffffff 			; <UNDEFINED> instruction: 0xffffffff
 470:	7c020001 	stcvc	0, cr0, [r2], {1}
 474:	000d0c0e 	andeq	r0, sp, lr, lsl #24
 478:	00000018 	andeq	r0, r0, r8, lsl r0
 47c:	00000468 	andeq	r0, r0, r8, ror #8
 480:	00008f58 	andeq	r8, r0, r8, asr pc
 484:	000000d4 	ldrdeq	r0, [r0], -r4
 488:	83100e42 	tsthi	r0, #1056	; 0x420
 48c:	85038404 	strhi	r8, [r3, #-1028]	; 0x404
 490:	00018e02 	andeq	r8, r1, r2, lsl #28
 494:	00000014 	andeq	r0, r0, r4, lsl r0
 498:	00000468 	andeq	r0, r0, r8, ror #8
 49c:	0000902c 	andeq	r9, r0, ip, lsr #32
 4a0:	00000038 	andeq	r0, r0, r8, lsr r0
 4a4:	83080e42 	movwhi	r0, #36418	; 0x8e42
 4a8:	00018e02 	andeq	r8, r1, r2, lsl #28
 4ac:	00000014 	andeq	r0, r0, r4, lsl r0
 4b0:	00000468 	andeq	r0, r0, r8, ror #8
 4b4:	00009064 	andeq	r9, r0, r4, rrx
 4b8:	00000038 	andeq	r0, r0, r8, lsr r0
 4bc:	83080e42 	movwhi	r0, #36418	; 0x8e42
 4c0:	00018e02 	andeq	r8, r1, r2, lsl #28
 4c4:	00000018 	andeq	r0, r0, r8, lsl r0
 4c8:	00000468 	andeq	r0, r0, r8, ror #8
 4cc:	0000909c 	muleq	r0, ip, r0
 4d0:	000000cc 	andeq	r0, r0, ip, asr #1
 4d4:	83100e42 	tsthi	r0, #1056	; 0x420
 4d8:	85038404 	strhi	r8, [r3, #-1028]	; 0x404
 4dc:	00018e02 	andeq	r8, r1, r2, lsl #28
 4e0:	00000014 	andeq	r0, r0, r4, lsl r0
 4e4:	00000468 	andeq	r0, r0, r8, ror #8
 4e8:	00009168 	andeq	r9, r0, r8, ror #2
 4ec:	0000004c 	andeq	r0, r0, ip, asr #32
 4f0:	84080e42 	strhi	r0, [r8], #-3650	; 0xe42
 4f4:	00018e02 	andeq	r8, r1, r2, lsl #28
 4f8:	00000014 	andeq	r0, r0, r4, lsl r0
 4fc:	00000468 	andeq	r0, r0, r8, ror #8
 500:	000091b4 			; <UNDEFINED> instruction: 0x000091b4
 504:	00000078 	andeq	r0, r0, r8, ror r0
 508:	83080e42 	movwhi	r0, #36418	; 0x8e42
 50c:	00018e02 	andeq	r8, r1, r2, lsl #28
 510:	00000018 	andeq	r0, r0, r8, lsl r0
 514:	00000468 	andeq	r0, r0, r8, ror #8
 518:	0000922c 	andeq	r9, r0, ip, lsr #4
 51c:	000000d8 	ldrdeq	r0, [r0], -r8
 520:	84100e42 	ldrhi	r0, [r0], #-3650	; 0xe42
 524:	86038504 	strhi	r8, [r3], -r4, lsl #10
 528:	00018e02 	andeq	r8, r1, r2, lsl #28
 52c:	00000014 	andeq	r0, r0, r4, lsl r0
 530:	00000468 	andeq	r0, r0, r8, ror #8
 534:	00009304 	andeq	r9, r0, r4, lsl #6
 538:	0000002c 	andeq	r0, r0, ip, lsr #32
 53c:	83080e42 	movwhi	r0, #36418	; 0x8e42
 540:	00018e02 	andeq	r8, r1, r2, lsl #28
 544:	00000018 	andeq	r0, r0, r8, lsl r0
 548:	00000468 	andeq	r0, r0, r8, ror #8
 54c:	00009330 	andeq	r9, r0, r0, lsr r3
 550:	00000084 	andeq	r0, r0, r4, lsl #1
 554:	83100e42 	tsthi	r0, #1056	; 0x420
 558:	85038404 	strhi	r8, [r3, #-1028]	; 0x404
 55c:	00018e02 	andeq	r8, r1, r2, lsl #28
 560:	00000018 	andeq	r0, r0, r8, lsl r0
 564:	00000468 	andeq	r0, r0, r8, ror #8
 568:	000093b4 			; <UNDEFINED> instruction: 0x000093b4
 56c:	00000084 	andeq	r0, r0, r4, lsl #1
 570:	83100e42 	tsthi	r0, #1056	; 0x420
 574:	85038404 	strhi	r8, [r3, #-1028]	; 0x404
 578:	00018e02 	andeq	r8, r1, r2, lsl #28
 57c:	00000014 	andeq	r0, r0, r4, lsl r0
 580:	00000468 	andeq	r0, r0, r8, ror #8
 584:	00009438 	andeq	r9, r0, r8, lsr r4
 588:	00000084 	andeq	r0, r0, r4, lsl #1
 58c:	84080e42 	strhi	r0, [r8], #-3650	; 0xe42
 590:	00018e02 	andeq	r8, r1, r2, lsl #28
 594:	00000014 	andeq	r0, r0, r4, lsl r0
 598:	00000468 	andeq	r0, r0, r8, ror #8
 59c:	000094bc 			; <UNDEFINED> instruction: 0x000094bc
 5a0:	00000058 	andeq	r0, r0, r8, asr r0
 5a4:	84080e42 	strhi	r0, [r8], #-3650	; 0xe42
 5a8:	00018e02 	andeq	r8, r1, r2, lsl #28
 5ac:	0000000c 	andeq	r0, r0, ip
 5b0:	ffffffff 			; <UNDEFINED> instruction: 0xffffffff
 5b4:	7c020001 	stcvc	0, cr0, [r2], {1}
 5b8:	000d0c0e 	andeq	r0, sp, lr, lsl #24
 5bc:	00000014 	andeq	r0, r0, r4, lsl r0
 5c0:	000005ac 	andeq	r0, r0, ip, lsr #11
 5c4:	00009514 	andeq	r9, r0, r4, lsl r5
 5c8:	00000014 	andeq	r0, r0, r4, lsl r0
 5cc:	84080e42 	strhi	r0, [r8], #-3650	; 0xe42
 5d0:	00018e02 	andeq	r8, r1, r2, lsl #28
 5d4:	0000000c 	andeq	r0, r0, ip
 5d8:	000005ac 	andeq	r0, r0, ip, lsr #11
 5dc:	00009528 	andeq	r9, r0, r8, lsr #10
 5e0:	00000018 	andeq	r0, r0, r8, lsl r0
 5e4:	0000000c 	andeq	r0, r0, ip
 5e8:	000005ac 	andeq	r0, r0, ip, lsr #11
 5ec:	00009540 	andeq	r9, r0, r0, asr #10
 5f0:	00000010 	andeq	r0, r0, r0, lsl r0
 5f4:	0000000c 	andeq	r0, r0, ip
 5f8:	ffffffff 			; <UNDEFINED> instruction: 0xffffffff
 5fc:	7c020001 	stcvc	0, cr0, [r2], {1}
 600:	000d0c0e 	andeq	r0, sp, lr, lsl #24
 604:	00000014 	andeq	r0, r0, r4, lsl r0
 608:	000005f4 	strdeq	r0, [r0], -r4
 60c:	00009550 	andeq	r9, r0, r0, asr r5
 610:	00000028 	andeq	r0, r0, r8, lsr #32
 614:	83080e42 	movwhi	r0, #36418	; 0x8e42
 618:	00018e02 	andeq	r8, r1, r2, lsl #28
 61c:	0000000c 	andeq	r0, r0, ip
 620:	000005f4 	strdeq	r0, [r0], -r4
 624:	00009578 	andeq	r9, r0, r8, ror r5
 628:	00000028 	andeq	r0, r0, r8, lsr #32
 62c:	0000000c 	andeq	r0, r0, ip
 630:	ffffffff 			; <UNDEFINED> instruction: 0xffffffff
 634:	7c020001 	stcvc	0, cr0, [r2], {1}
 638:	000d0c0e 	andeq	r0, sp, lr, lsl #24
 63c:	0000000c 	andeq	r0, r0, ip
 640:	0000062c 	andeq	r0, r0, ip, lsr #12
 644:	000095a0 	andeq	r9, r0, r0, lsr #11
 648:	00000020 	andeq	r0, r0, r0, lsr #32

Disassembly of section .debug_loc:

00000000 <.debug_loc>:
       0:	0000002c 	andeq	r0, r0, ip, lsr #32
       4:	00000038 	andeq	r0, r0, r8, lsr r0
       8:	38500001 	ldmdacc	r0, {r0}^
       c:	48000000 	stmdami	r0, {}	; <UNPREDICTABLE>
      10:	01000000 	mrseq	r0, (UNDEF: 0)
      14:	00485500 	subeq	r5, r8, r0, lsl #10
      18:	00580000 	subseq	r0, r8, r0
      1c:	00010000 	andeq	r0, r1, r0
      20:	00000050 	andeq	r0, r0, r0, asr r0
	...
      2c:	00001000 	andeq	r1, r0, r0
      30:	50000100 	andpl	r0, r0, r0, lsl #2
      34:	00000010 	andeq	r0, r0, r0, lsl r0
      38:	00000034 	andeq	r0, r0, r4, lsr r0
      3c:	00540001 	subseq	r0, r4, r1
	...
      48:	04000000 	streq	r0, [r0], #-0
      4c:	01000000 	mrseq	r0, (UNDEF: 0)
      50:	00045000 	andeq	r5, r4, r0
      54:	000c0000 	andeq	r0, ip, r0
      58:	00030000 	andeq	r0, r3, r0
      5c:	0c9f3070 	ldceq	0, cr3, [pc], {112}	; 0x70
      60:	14000000 	strne	r0, [r0], #-0
      64:	04000000 	streq	r0, [r0], #-0
      68:	5001f300 	andpl	pc, r1, r0, lsl #6
      6c:	0000009f 	muleq	r0, pc, r0	; <UNPREDICTABLE>
      70:	00000000 	andeq	r0, r0, r0
      74:	00001400 	andeq	r1, r0, r0, lsl #8
      78:	00002000 	andeq	r2, r0, r0
      7c:	50000100 	andpl	r0, r0, r0, lsl #2
      80:	00000020 	andeq	r0, r0, r0, lsr #32
      84:	0000002c 	andeq	r0, r0, ip, lsr #32
      88:	01700003 	cmneq	r0, r3
      8c:	00002c9f 	muleq	r0, pc, ip	; <UNPREDICTABLE>
      90:	00004000 	andeq	r4, r0, r0
      94:	50000100 	andpl	r0, r0, r0, lsl #2
	...
      a0:	00000014 	andeq	r0, r0, r4, lsl r0
      a4:	00000018 	andeq	r0, r0, r8, lsl r0
      a8:	18510001 	ldmdane	r1, {r0}^
      ac:	40000000 	andmi	r0, r0, r0
      b0:	04000000 	streq	r0, [r0], #-0
      b4:	5101f300 	mrspl	pc, SP_irq	; <UNPREDICTABLE>
      b8:	0000009f 	muleq	r0, pc, r0	; <UNPREDICTABLE>
      bc:	00000000 	andeq	r0, r0, r0
      c0:	00004000 	andeq	r4, r0, r0
      c4:	00006000 	andeq	r6, r0, r0
      c8:	50000100 	andpl	r0, r0, r0, lsl #2
      cc:	00000060 	andeq	r0, r0, r0, rrx
      d0:	0000006c 	andeq	r0, r0, ip, rrx
      d4:	01710003 	cmneq	r1, r3
      d8:	00006c9f 	muleq	r0, pc, ip	; <UNPREDICTABLE>
      dc:	00007400 	andeq	r7, r0, r0, lsl #8
      e0:	51000100 	mrspl	r0, (UNDEF: 16)
      e4:	00000074 	andeq	r0, r0, r4, ror r0
      e8:	00000080 	andeq	r0, r0, r0, lsl #1
      ec:	01710003 	cmneq	r1, r3
      f0:	0000009f 	muleq	r0, pc, r0	; <UNPREDICTABLE>
      f4:	00000000 	andeq	r0, r0, r0
      f8:	00004000 	andeq	r4, r0, r0
      fc:	00005000 	andeq	r5, r0, r0
     100:	51000100 	mrspl	r0, (UNDEF: 16)
     104:	00000050 	andeq	r0, r0, r0, asr r0
     108:	00000080 	andeq	r0, r0, r0, lsl #1
     10c:	01f30004 	mvnseq	r0, r4
     110:	00009f51 	andeq	r9, r0, r1, asr pc
     114:	00000000 	andeq	r0, r0, r0
     118:	00400000 	subeq	r0, r0, r0
     11c:	00580000 	subseq	r0, r8, r0
     120:	00010000 	andeq	r0, r1, r0
     124:	00005852 	andeq	r5, r0, r2, asr r8
     128:	00006400 	andeq	r6, r0, r0, lsl #8
     12c:	52000100 	andpl	r0, r0, #0, 2
     130:	00000064 	andeq	r0, r0, r4, rrx
     134:	00000068 	andeq	r0, r0, r8, rrx
     138:	01720003 	cmneq	r2, r3
     13c:	0000689f 	muleq	r0, pc, r8	; <UNPREDICTABLE>
     140:	00008000 	andeq	r8, r0, r0
     144:	52000100 	andpl	r0, r0, #0, 2
	...
     150:	00000040 	andeq	r0, r0, r0, asr #32
     154:	00000054 	andeq	r0, r0, r4, asr r0
     158:	54530001 	ldrbpl	r0, [r3], #-1
     15c:	78000000 	stmdavc	r0, {}	; <UNPREDICTABLE>
     160:	01000000 	mrseq	r0, (UNDEF: 0)
     164:	00005300 	andeq	r5, r0, r0, lsl #6
     168:	00000000 	andeq	r0, r0, r0
     16c:	00480000 	subeq	r0, r8, r0
     170:	00600000 	rsbeq	r0, r0, r0
     174:	00010000 	andeq	r0, r1, r0
     178:	0000605c 	andeq	r6, r0, ip, asr r0
     17c:	00008000 	andeq	r8, r0, r0
     180:	f3000a00 	vpmax.u8	d0, d0, d0
     184:	01f35201 	mvnseq	r5, r1, lsl #4
     188:	01231c53 	teqeq	r3, r3, asr ip
     18c:	0000009f 	muleq	r0, pc, r0	; <UNPREDICTABLE>
     190:	00000000 	andeq	r0, r0, r0
     194:	00008000 	andeq	r8, r0, r0
     198:	0000a400 	andeq	sl, r0, r0, lsl #8
     19c:	50000100 	andpl	r0, r0, r0, lsl #2
     1a0:	000000a4 	andeq	r0, r0, r4, lsr #1
     1a4:	00000118 	andeq	r0, r0, r8, lsl r1
     1a8:	02700003 	rsbseq	r0, r0, #3
     1ac:	0001189f 	muleq	r1, pc, r8	; <UNPREDICTABLE>
     1b0:	00021c00 	andeq	r1, r2, r0, lsl #24
     1b4:	f3000400 	vshl.u8	d0, d0, d0
     1b8:	009f5001 	addseq	r5, pc, r1
     1bc:	00000000 	andeq	r0, r0, r0
     1c0:	80000000 	andhi	r0, r0, r0
     1c4:	f0000000 			; <UNDEFINED> instruction: 0xf0000000
     1c8:	01000000 	mrseq	r0, (UNDEF: 0)
     1cc:	00f05100 	rscseq	r5, r0, r0, lsl #2
     1d0:	01600000 	cmneq	r0, r0
     1d4:	00010000 	andeq	r0, r1, r0
     1d8:	00016055 	andeq	r6, r1, r5, asr r0
     1dc:	00016800 	andeq	r6, r1, r0, lsl #16
     1e0:	51000100 	mrspl	r0, (UNDEF: 16)
     1e4:	00000168 	andeq	r0, r0, r8, ror #2
     1e8:	00000188 	andeq	r0, r0, r8, lsl #3
     1ec:	88550001 	ldmdahi	r5, {r0}^
     1f0:	9c000001 	stcls	0, cr0, [r0], {1}
     1f4:	01000001 	tsteq	r0, r1
     1f8:	019c5100 	orrseq	r5, ip, r0, lsl #2
     1fc:	01bc0000 			; <UNDEFINED> instruction: 0x01bc0000
     200:	00010000 	andeq	r0, r1, r0
     204:	0001bc55 	andeq	fp, r1, r5, asr ip
     208:	0001bf00 	andeq	fp, r1, r0, lsl #30
     20c:	51000100 	mrspl	r0, (UNDEF: 16)
     210:	000001bf 			; <UNDEFINED> instruction: 0x000001bf
     214:	00000200 	andeq	r0, r0, r0, lsl #4
     218:	00550001 	subseq	r0, r5, r1
     21c:	1c000002 	stcne	0, cr0, [r0], {2}
     220:	04000002 	streq	r0, [r0], #-2
     224:	5101f300 	mrspl	pc, SP_irq	; <UNPREDICTABLE>
     228:	0000009f 	muleq	r0, pc, r0	; <UNPREDICTABLE>
     22c:	00000000 	andeq	r0, r0, r0
     230:	00008000 	andeq	r8, r0, r0
     234:	00009400 	andeq	r9, r0, r0, lsl #8
     238:	52000100 	andpl	r0, r0, #0, 2
     23c:	00000094 	muleq	r0, r4, r0
     240:	00000200 	andeq	r0, r0, r0, lsl #4
     244:	00540001 	subseq	r0, r4, r1
     248:	1c000002 	stcne	0, cr0, [r0], {2}
     24c:	04000002 	streq	r0, [r0], #-2
     250:	5201f300 	andpl	pc, r1, #0, 6
     254:	0000009f 	muleq	r0, pc, r0	; <UNPREDICTABLE>
     258:	00000000 	andeq	r0, r0, r0
     25c:	00008000 	andeq	r8, r0, r0
     260:	00010000 	andeq	r0, r1, r0
     264:	53000100 	movwpl	r0, #256	; 0x100
     268:	00000104 	andeq	r0, r0, r4, lsl #2
     26c:	00000108 	andeq	r0, r0, r8, lsl #2
     270:	60530001 	subsvs	r0, r3, r1
     274:	68000001 	stmdavs	r0, {r0}
     278:	01000001 	tsteq	r0, r1
     27c:	01685300 	cmneq	r8, r0, lsl #6
     280:	01880000 	orreq	r0, r8, r0
     284:	00040000 	andeq	r0, r4, r0
     288:	9f5301f3 	svcls	0x005301f3
     28c:	00000188 	andeq	r0, r0, r8, lsl #3
     290:	00000190 	muleq	r0, r0, r1
     294:	90530001 	subsls	r0, r3, r1
     298:	94000001 	strls	r0, [r0], #-1
     29c:	01000001 	tsteq	r0, r1
     2a0:	01945c00 	orrseq	r5, r4, r0, lsl #24
     2a4:	019c0000 	orrseq	r0, ip, r0
     2a8:	00010000 	andeq	r0, r1, r0
     2ac:	00019c53 	andeq	r9, r1, r3, asr ip
     2b0:	0001bc00 	andeq	fp, r1, r0, lsl #24
     2b4:	f3000400 	vshl.u8	d0, d0, d0
     2b8:	bc9f5301 	ldclt	3, cr5, [pc], {1}
     2bc:	bf000001 	svclt	0x00000001
     2c0:	01000001 	tsteq	r0, r1
     2c4:	01bf5300 			; <UNDEFINED> instruction: 0x01bf5300
     2c8:	01d80000 	bicseq	r0, r8, r0
     2cc:	00040000 	andeq	r0, r4, r0
     2d0:	9f5301f3 	svcls	0x005301f3
	...
     2dc:	00000080 	andeq	r0, r0, r0, lsl #1
     2e0:	0000009c 	muleq	r0, ip, r0
     2e4:	00910002 	addseq	r0, r1, r2
     2e8:	0000009c 	muleq	r0, ip, r0
     2ec:	000001bf 			; <UNDEFINED> instruction: 0x000001bf
     2f0:	d8520001 	ldmdale	r2, {r0}^
     2f4:	e3000001 	movw	r0, #1
     2f8:	01000001 	tsteq	r0, r1
     2fc:	00005200 	andeq	r5, r0, r0, lsl #4
     300:	00000000 	andeq	r0, r0, r0
     304:	009c0000 	addseq	r0, ip, r0
     308:	01180000 	tsteq	r8, r0
     30c:	00010000 	andeq	r0, r1, r0
     310:	0001185d 	andeq	r1, r1, sp, asr r8
     314:	00011c00 	andeq	r1, r1, r0, lsl #24
     318:	53000100 	movwpl	r0, #256	; 0x100
     31c:	0000011c 	andeq	r0, r0, ip, lsl r1
     320:	00000120 	andeq	r0, r0, r0, lsr #2
     324:	20510001 	subscs	r0, r1, r1
     328:	60000001 	andvs	r0, r0, r1
     32c:	01000001 	tsteq	r0, r1
     330:	01605300 	cmneq	r0, r0, lsl #6
     334:	01680000 	cmneq	r8, r0
     338:	00010000 	andeq	r0, r1, r0
     33c:	0001685d 	andeq	r6, r1, sp, asr r8
     340:	00016c00 	andeq	r6, r1, r0, lsl #24
     344:	5e000100 	adfpls	f0, f0, f0
     348:	0000016c 	andeq	r0, r0, ip, ror #2
     34c:	00000188 	andeq	r0, r0, r8, lsl #3
     350:	88530001 	ldmdahi	r3, {r0}^
     354:	90000001 	andls	r0, r0, r1
     358:	04000001 	streq	r0, [r0], #-1
     35c:	7fa19100 	svcvc	0x00a19100
     360:	0001909f 	muleq	r1, pc, r0	; <UNPREDICTABLE>
     364:	00019400 	andeq	r9, r1, r0, lsl #8
     368:	53000100 	movwpl	r0, #256	; 0x100
     36c:	00000194 	muleq	r0, r4, r1
     370:	0000019c 	muleq	r0, ip, r1
     374:	9c5d0001 	mrrcls	0, 0, r0, sp, cr1
     378:	a0000001 	andge	r0, r0, r1
     37c:	01000001 	tsteq	r0, r1
     380:	01a05e00 	lsleq	r5, r0, #28
     384:	01bc0000 			; <UNDEFINED> instruction: 0x01bc0000
     388:	00010000 	andeq	r0, r1, r0
     38c:	0001bc53 	andeq	fp, r1, r3, asr ip
     390:	0001d800 	andeq	sp, r1, r0, lsl #16
     394:	5d000100 	stfpls	f0, [r0, #-0]
     398:	000001d8 	ldrdeq	r0, [r0], -r8
     39c:	000001e3 	andeq	r0, r0, r3, ror #3
     3a0:	00530001 	subseq	r0, r3, r1
     3a4:	00000000 	andeq	r0, r0, r0
     3a8:	a0000000 	andge	r0, r0, r0
     3ac:	ec000000 	stc	0, cr0, [r0], {-0}
     3b0:	01000000 	mrseq	r0, (UNDEF: 0)
     3b4:	00ec5c00 	rsceq	r5, ip, r0, lsl #24
     3b8:	01000000 	mrseq	r0, (UNDEF: 0)
     3bc:	00010000 	andeq	r0, r1, r0
     3c0:	00010053 	andeq	r0, r1, r3, asr r0
     3c4:	00010400 	andeq	r0, r1, r0, lsl #8
     3c8:	5c000100 	stfpls	f0, [r0], {-0}
     3cc:	00000104 	andeq	r0, r0, r4, lsl #2
     3d0:	00000108 	andeq	r0, r0, r8, lsl #2
     3d4:	08530001 	ldmdaeq	r3, {r0}^
     3d8:	18000001 	stmdane	r0, {r0}
     3dc:	01000001 	tsteq	r0, r1
     3e0:	01185c00 	tsteq	r8, r0, lsl #24
     3e4:	011c0000 	tsteq	ip, r0
     3e8:	00010000 	andeq	r0, r1, r0
     3ec:	00011c50 	andeq	r1, r1, r0, asr ip
     3f0:	00013c00 	andeq	r3, r1, r0, lsl #24
     3f4:	5c000100 	stfpls	f0, [r0], {-0}
     3f8:	00000144 	andeq	r0, r0, r4, asr #2
     3fc:	00000158 	andeq	r0, r0, r8, asr r1
     400:	58500001 	ldmdapl	r0, {r0}^
     404:	60000001 	andvs	r0, r0, r1
     408:	01000001 	tsteq	r0, r1
     40c:	01605c00 	cmneq	r0, r0, lsl #24
     410:	01680000 	cmneq	r8, r0
     414:	00010000 	andeq	r0, r1, r0
     418:	00016853 	andeq	r6, r1, r3, asr r8
     41c:	00017800 	andeq	r7, r1, r0, lsl #16
     420:	5c000100 	stfpls	f0, [r0], {-0}
     424:	00000178 	andeq	r0, r0, r8, ror r1
     428:	00000180 	andeq	r0, r0, r0, lsl #3
     42c:	007c0005 	rsbseq	r0, ip, r5
     430:	809f2534 	addshi	r2, pc, r4, lsr r5	; <UNPREDICTABLE>
     434:	88000001 	stmdahi	r0, {r0}
     438:	01000001 	tsteq	r0, r1
     43c:	01885c00 	orreq	r5, r8, r0, lsl #24
     440:	01900000 	orrseq	r0, r0, r0
     444:	00010000 	andeq	r0, r1, r0
     448:	00019053 	andeq	r9, r1, r3, asr r0
     44c:	00019400 	andeq	r9, r1, r0, lsl #8
     450:	5c000100 	stfpls	f0, [r0], {-0}
     454:	00000194 	muleq	r0, r4, r1
     458:	0000019c 	muleq	r0, ip, r1
     45c:	9c530001 	mrrcls	0, 0, r0, r3, cr1
     460:	ac000001 	stcge	0, cr0, [r0], {1}
     464:	01000001 	tsteq	r0, r1
     468:	01ac5c00 			; <UNDEFINED> instruction: 0x01ac5c00
     46c:	01b40000 			; <UNDEFINED> instruction: 0x01b40000
     470:	00050000 	andeq	r0, r5, r0
     474:	2531007c 	ldrcs	r0, [r1, #-124]!	; 0x7c
     478:	0001b49f 	muleq	r1, pc, r4	; <UNPREDICTABLE>
     47c:	0001bc00 	andeq	fp, r1, r0, lsl #24
     480:	5c000100 	stfpls	f0, [r0], {-0}
     484:	000001bc 			; <UNDEFINED> instruction: 0x000001bc
     488:	000001bf 			; <UNDEFINED> instruction: 0x000001bf
     48c:	bf530001 	svclt	0x00530001
     490:	d8000001 	stmdale	r0, {r0}
     494:	04000001 	streq	r0, [r0], #-1
     498:	5301f300 	movwpl	pc, #4864	; 0x1300	; <UNPREDICTABLE>
     49c:	0001d89f 	muleq	r1, pc, r8	; <UNPREDICTABLE>
     4a0:	0001e300 	andeq	lr, r1, r0, lsl #6
     4a4:	5c000100 	stfpls	f0, [r0], {-0}
	...
     4b0:	000000ec 	andeq	r0, r0, ip, ror #1
     4b4:	000000fc 	strdeq	r0, [r0], -ip
     4b8:	9f300002 	svcls	0x00300002
     4bc:	000000fc 	strdeq	r0, [r0], -ip
     4c0:	00000104 	andeq	r0, r0, r4, lsl #2
     4c4:	9f310002 	svcls	0x00310002
     4c8:	00000104 	andeq	r0, r0, r4, lsl #2
     4cc:	00000108 	andeq	r0, r0, r8, lsl #2
     4d0:	9f300002 	svcls	0x00300002
	...
     4dc:	0000021c 	andeq	r0, r0, ip, lsl r2
     4e0:	0000022b 	andeq	r0, r0, fp, lsr #4
     4e4:	2b500001 	blcs	14004f0 <__bss_end__+0x13f67e8>
     4e8:	44000002 	strmi	r0, [r0], #-2
     4ec:	04000002 	streq	r0, [r0], #-2
     4f0:	5001f300 	andpl	pc, r1, r0, lsl #6
     4f4:	0002449f 	muleq	r2, pc, r4	; <UNPREDICTABLE>
     4f8:	00027000 	andeq	r7, r2, r0
     4fc:	50000100 	andpl	r0, r0, r0, lsl #2
	...
     508:	0000021c 	andeq	r0, r0, ip, lsl r2
     50c:	0000022b 	andeq	r0, r0, fp, lsr #4
     510:	2b510001 	blcs	144051c <__bss_end__+0x1436814>
     514:	44000002 	strmi	r0, [r0], #-2
     518:	04000002 	streq	r0, [r0], #-2
     51c:	5101f300 	mrspl	pc, SP_irq	; <UNPREDICTABLE>
     520:	0002449f 	muleq	r2, pc, r4	; <UNPREDICTABLE>
     524:	00027000 	andeq	r7, r2, r0
     528:	51000100 	mrspl	r0, (UNDEF: 16)
	...
     534:	00000270 	andeq	r0, r0, r0, ror r2
     538:	0000029c 	muleq	r0, ip, r2
     53c:	9c500001 	mrrcls	0, 0, r0, r0, cr1	; <UNPREDICTABLE>
     540:	e4000002 	str	r0, [r0], #-2
     544:	01000004 	tsteq	r0, r4
     548:	04e45a00 	strbteq	r5, [r4], #2560	; 0xa00
     54c:	04f80000 	ldrbteq	r0, [r8], #0
     550:	00040000 	andeq	r0, r4, r0
     554:	9f5001f3 	svcls	0x005001f3
	...
     560:	00000270 	andeq	r0, r0, r0, ror r2
     564:	00000284 	andeq	r0, r0, r4, lsl #5
     568:	84510001 	ldrbhi	r0, [r1], #-1
     56c:	9c000002 	stcls	0, cr0, [r0], {2}
     570:	03000002 	movweq	r0, #2
     574:	9f017100 	svcls	0x00017100
     578:	0000029c 	muleq	r0, ip, r2
     57c:	000004f8 	strdeq	r0, [r0], -r8
     580:	01f30004 	mvnseq	r0, r4
     584:	00009f51 	andeq	r9, r0, r1, asr pc
     588:	00000000 	andeq	r0, r0, r0
     58c:	02700000 	rsbseq	r0, r0, #0
     590:	02a40000 	adceq	r0, r4, #0
     594:	00010000 	andeq	r0, r1, r0
     598:	0002a452 	andeq	sl, r2, r2, asr r4
     59c:	0002cc00 	andeq	ip, r2, r0, lsl #24
     5a0:	52000100 	andpl	r0, r0, #0, 2
     5a4:	000002cc 	andeq	r0, r0, ip, asr #5
     5a8:	00000494 	muleq	r0, r4, r4
     5ac:	94560001 	ldrbls	r0, [r6], #-1
     5b0:	f8000004 			; <UNDEFINED> instruction: 0xf8000004
     5b4:	01000004 	tsteq	r0, r4
     5b8:	00005200 	andeq	r5, r0, r0, lsl #4
     5bc:	00000000 	andeq	r0, r0, r0
     5c0:	02700000 	rsbseq	r0, r0, #0
     5c4:	028c0000 	addeq	r0, ip, #0
     5c8:	00010000 	andeq	r0, r1, r0
     5cc:	00000053 	andeq	r0, r0, r3, asr r0
     5d0:	00000000 	andeq	r0, r0, r0
     5d4:	00028000 	andeq	r8, r2, r0
     5d8:	00029c00 	andeq	r9, r2, r0, lsl #24
     5dc:	50000100 	andpl	r0, r0, r0, lsl #2
     5e0:	0000029c 	muleq	r0, ip, r2
     5e4:	000002a0 	andeq	r0, r0, r0, lsr #5
     5e8:	a0540001 	subsge	r0, r4, r1
     5ec:	ac000002 	stcge	0, cr0, [r0], {2}
     5f0:	03000002 	movweq	r0, #2
     5f4:	9f017400 	svcls	0x00017400
     5f8:	000002ac 	andeq	r0, r0, ip, lsr #5
     5fc:	000002b8 			; <UNDEFINED> instruction: 0x000002b8
     600:	b8540001 	ldmdalt	r4, {r0}^
     604:	c4000002 	strgt	r0, [r0], #-2
     608:	03000002 	movweq	r0, #2
     60c:	9f017400 	svcls	0x00017400
     610:	000002c4 	andeq	r0, r0, r4, asr #5
     614:	00000498 	muleq	r0, r8, r4
     618:	98540001 	ldmdals	r4, {r0}^
     61c:	a4000004 	strge	r0, [r0], #-4
     620:	03000004 	movweq	r0, #4
     624:	9f017400 	svcls	0x00017400
     628:	000004a4 	andeq	r0, r0, r4, lsr #9
     62c:	000004d0 	ldrdeq	r0, [r0], -r0	; <UNPREDICTABLE>
     630:	d0540001 	subsle	r0, r4, r1
     634:	dc000004 	stcle	0, cr0, [r0], {4}
     638:	01000004 	tsteq	r0, r4
     63c:	04dc5000 	ldrbeq	r5, [ip], #0
     640:	04e40000 	strbteq	r0, [r4], #0
     644:	00030000 	andeq	r0, r3, r0
     648:	009f0174 	addseq	r0, pc, r4, ror r1	; <UNPREDICTABLE>
     64c:	00000000 	andeq	r0, r0, r0
     650:	88000000 	stmdahi	r0, {}	; <UNPREDICTABLE>
     654:	e4000002 	str	r0, [r0], #-2
     658:	01000004 	tsteq	r0, r4
     65c:	04e45800 	strbteq	r5, [r4], #2048	; 0x800
     660:	04f80000 	ldrbteq	r0, [r8], #0
     664:	000a0000 	andeq	r0, sl, r0
     668:	f35101f3 	vbsl	q8, <illegal reg q8.5>, <illegal reg q9.5>
     66c:	31225001 	teqcc	r2, r1
     670:	00009f1c 	andeq	r9, r0, ip, lsl pc
     674:	00000000 	andeq	r0, r0, r0
     678:	03cc0000 	biceq	r0, ip, #0
     67c:	03d00000 	bicseq	r0, r0, #0
     680:	00010000 	andeq	r0, r1, r0
     684:	0003f050 	andeq	pc, r3, r0, asr r0	; <UNPREDICTABLE>
     688:	0003f400 	andeq	pc, r3, r0, lsl #8
     68c:	50000100 	andpl	r0, r0, r0, lsl #2
     690:	00000414 	andeq	r0, r0, r4, lsl r4
     694:	00000418 	andeq	r0, r0, r8, lsl r4
     698:	38500001 	ldmdacc	r0, {r0}^
     69c:	3c000004 	stccc	0, cr0, [r0], {4}
     6a0:	01000004 	tsteq	r0, r4
     6a4:	04445000 	strbeq	r5, [r4], #-0
     6a8:	04480000 	strbeq	r0, [r8], #-0
     6ac:	00010000 	andeq	r0, r1, r0
     6b0:	00046850 	andeq	r6, r4, r0, asr r8
     6b4:	00046c00 	andeq	r6, r4, r0, lsl #24
     6b8:	50000100 	andpl	r0, r0, r0, lsl #2
     6bc:	00000490 	muleq	r0, r0, r4
     6c0:	000004b8 			; <UNDEFINED> instruction: 0x000004b8
     6c4:	00500001 	subseq	r0, r0, r1
     6c8:	00000000 	andeq	r0, r0, r0
     6cc:	cc000000 	stcgt	0, cr0, [r0], {-0}
     6d0:	d4000002 	strle	r0, [r0], #-2
     6d4:	02000002 	andeq	r0, r0, #2
     6d8:	d49f3000 	ldrle	r3, [pc], #0	; 6e0 <_start-0x7920>
     6dc:	d8000002 	stmdale	r0, {r1}
     6e0:	01000002 	tsteq	r0, r2
     6e4:	02e45700 	rsceq	r5, r4, #0, 14
     6e8:	04b80000 	ldrteq	r0, [r8], #0
     6ec:	00010000 	andeq	r0, r1, r0
     6f0:	00000057 	andeq	r0, r0, r7, asr r0
	...
     6fc:	00000c00 	andeq	r0, r0, r0, lsl #24
     700:	50000100 	andpl	r0, r0, r0, lsl #2
     704:	0000000c 	andeq	r0, r0, ip
     708:	00000020 	andeq	r0, r0, r0, lsr #32
     70c:	00540001 	subseq	r0, r4, r1
     710:	00000000 	andeq	r0, r0, r0
     714:	34000000 	strcc	r0, [r0], #-0
     718:	3c000000 	stccc	0, cr0, [r0], {-0}
     71c:	03000000 	movweq	r0, #0
     720:	9f047300 	svcls	0x00047300
     724:	0000003c 	andeq	r0, r0, ip, lsr r0
     728:	00000047 	andeq	r0, r0, r7, asr #32
     72c:	00530001 	subseq	r0, r3, r1
     730:	00000000 	andeq	r0, r0, r0
     734:	48000000 	stmdami	r0, {}	; <UNPREDICTABLE>
     738:	74000000 	strvc	r0, [r0], #-0
     73c:	01000000 	mrseq	r0, (UNDEF: 0)
     740:	00745000 	rsbseq	r5, r4, r0
     744:	00830000 	addeq	r0, r3, r0
     748:	00030000 	andeq	r0, r3, r0
     74c:	009f7873 	addseq	r7, pc, r3, ror r8	; <UNPREDICTABLE>
     750:	00000000 	andeq	r0, r0, r0
     754:	84000000 	strhi	r0, [r0], #-0
     758:	88000086 	stmdahi	r0, {r1, r2, r7}
     75c:	02000086 	andeq	r0, r0, #134	; 0x86
     760:	889f3000 	ldmhi	pc, {ip, sp}	; <UNPREDICTABLE>
     764:	8c000086 	stchi	0, cr0, [r0], {134}	; 0x86
     768:	01000086 	smlabbeq	r0, r6, r0, r0
     76c:	00005000 	andeq	r5, r0, r0
     770:	00000000 	andeq	r0, r0, r0
     774:	869c0000 	ldrhi	r0, [ip], r0
     778:	86a00000 	strthi	r0, [r0], r0
     77c:	00020000 	andeq	r0, r2, r0
     780:	86a09f30 	ssat16hi	r9, #1, r0
     784:	86a40000 	strthi	r0, [r4], r0
     788:	00010000 	andeq	r0, r1, r0
     78c:	0086a853 	addeq	sl, r6, r3, asr r8
     790:	0086b000 	addeq	fp, r6, r0
     794:	53000100 	movwpl	r0, #256	; 0x100
	...
     7a4:	00000004 	andeq	r0, r0, r4
     7a8:	04500001 	ldrbeq	r0, [r0], #-1
     7ac:	0c000000 	stceq	0, cr0, [r0], {-0}
     7b0:	01000000 	mrseq	r0, (UNDEF: 0)
     7b4:	000c5300 	andeq	r5, ip, r0, lsl #6
     7b8:	00100000 	andseq	r0, r0, r0
     7bc:	00010000 	andeq	r0, r1, r0
     7c0:	00001050 	andeq	r1, r0, r0, asr r0
     7c4:	00001c00 	andeq	r1, r0, r0, lsl #24
     7c8:	53000100 	movwpl	r0, #256	; 0x100
	...
     7d4:	0000003c 	andeq	r0, r0, ip, lsr r0
     7d8:	00000047 	andeq	r0, r0, r7, asr #32
     7dc:	47500001 	ldrbmi	r0, [r0, -r1]
     7e0:	60000000 	andvs	r0, r0, r0
     7e4:	01000000 	mrseq	r0, (UNDEF: 0)
     7e8:	00005500 	andeq	r5, r0, r0, lsl #10
     7ec:	00000000 	andeq	r0, r0, r0
     7f0:	00500000 	subseq	r0, r0, r0
     7f4:	00540000 	subseq	r0, r4, r0
     7f8:	00010000 	andeq	r0, r1, r0
     7fc:	00000050 	andeq	r0, r0, r0, asr r0
     800:	00000000 	andeq	r0, r0, r0
     804:	00006000 	andeq	r6, r0, r0
     808:	00006c00 	andeq	r6, r0, r0, lsl #24
     80c:	50000100 	andpl	r0, r0, r0, lsl #2
     810:	0000006c 	andeq	r0, r0, ip, rrx
     814:	00000074 	andeq	r0, r0, r4, ror r0
     818:	01f30004 	mvnseq	r0, r4
     81c:	00009f50 	andeq	r9, r0, r0, asr pc
     820:	00000000 	andeq	r0, r0, r0
     824:	00740000 	rsbseq	r0, r4, r0
     828:	00800000 	addeq	r0, r0, r0
     82c:	00010000 	andeq	r0, r1, r0
     830:	00008050 	andeq	r8, r0, r0, asr r0
     834:	00008800 	andeq	r8, r0, r0, lsl #16
     838:	f3000400 	vshl.u8	d0, d0, d0
     83c:	009f5001 	addseq	r5, pc, r1
	...
     848:	18000000 	stmdane	r0, {}	; <UNPREDICTABLE>
     84c:	01000000 	mrseq	r0, (UNDEF: 0)
     850:	00185000 	andseq	r5, r8, r0
     854:	01540000 	cmpeq	r4, r0
     858:	00040000 	andeq	r0, r4, r0
     85c:	9f5001f3 	svcls	0x005001f3
	...
     86c:	0000001c 	andeq	r0, r0, ip, lsl r0
     870:	1c510001 	mrrcne	0, 0, r0, r1, cr1
     874:	54000000 	strpl	r0, [r0], #-0
     878:	04000001 	streq	r0, [r0], #-1
     87c:	5101f300 	mrspl	pc, SP_irq	; <UNPREDICTABLE>
     880:	0000009f 	muleq	r0, pc, r0	; <UNPREDICTABLE>
     884:	00000000 	andeq	r0, r0, r0
     888:	00001000 	andeq	r1, r0, r0
     88c:	00013400 	andeq	r3, r1, r0, lsl #8
     890:	55000100 	strpl	r0, [r0, #-256]	; 0x100
	...
     89c:	00000010 	andeq	r0, r0, r0, lsl r0
     8a0:	00000034 	andeq	r0, r0, r4, lsr r0
     8a4:	34550001 	ldrbcc	r0, [r5], #-1
     8a8:	34000000 	strcc	r0, [r0], #-0
     8ac:	01000001 	tsteq	r0, r1
     8b0:	01345800 	teqeq	r4, r0, lsl #16
     8b4:	01540000 	cmpeq	r4, r0
     8b8:	00010000 	andeq	r0, r1, r0
     8bc:	00000055 	andeq	r0, r0, r5, asr r0
     8c0:	00000000 	andeq	r0, r0, r0
     8c4:	00001400 	andeq	r1, r0, r0, lsl #8
     8c8:	00013400 	andeq	r3, r1, r0, lsl #8
     8cc:	55000100 	strpl	r0, [r0, #-256]	; 0x100
	...
     8d8:	00000020 	andeq	r0, r0, r0, lsr #32
     8dc:	00000134 	andeq	r0, r0, r4, lsr r1
     8e0:	00550001 	subseq	r0, r5, r1
     8e4:	00000000 	andeq	r0, r0, r0
     8e8:	24000000 	strcs	r0, [r0], #-0
     8ec:	28000000 	stmdacs	r0, {}	; <UNPREDICTABLE>
     8f0:	01000000 	mrseq	r0, (UNDEF: 0)
     8f4:	00005300 	andeq	r5, r0, r0, lsl #6
     8f8:	00000000 	andeq	r0, r0, r0
     8fc:	00340000 	eorseq	r0, r4, r0
     900:	00540000 	subseq	r0, r4, r0
     904:	00010000 	andeq	r0, r1, r0
     908:	00005458 	andeq	r5, r0, r8, asr r4
     90c:	00013400 	andeq	r3, r1, r0, lsl #8
     910:	75000500 	strvc	r0, [r0, #-1280]	; 0x500
     914:	9f243100 	svcls	0x00243100
	...
     920:	00000034 	andeq	r0, r0, r4, lsr r0
     924:	0000003c 	andeq	r0, r0, ip, lsr r0
     928:	00770005 	rsbseq	r0, r7, r5
     92c:	3c9f1a31 	vldmiacc	pc, {s2-s50}
     930:	3f000000 	svccc	0x00000000
     934:	01000000 	mrseq	r0, (UNDEF: 0)
     938:	003f5100 	eorseq	r5, pc, r0, lsl #2
     93c:	01540000 	cmpeq	r4, r0
     940:	00050000 	andeq	r0, r5, r0
     944:	1a310077 	bne	c40b28 <__bss_end__+0xc36e20>
     948:	0000009f 	muleq	r0, pc, r0	; <UNPREDICTABLE>
     94c:	00000000 	andeq	r0, r0, r0
     950:	00004000 	andeq	r4, r0, r0
     954:	00005400 	andeq	r5, r0, r0, lsl #8
     958:	58000100 	stmdapl	r0, {r8}
     95c:	00000054 	andeq	r0, r0, r4, asr r0
     960:	00000134 	andeq	r0, r0, r4, lsr r1
     964:	00750005 	rsbseq	r0, r5, r5
     968:	009f2431 	addseq	r2, pc, r1, lsr r4	; <UNPREDICTABLE>
     96c:	00000000 	andeq	r0, r0, r0
     970:	44000000 	strmi	r0, [r0], #-0
     974:	48000000 	stmdami	r0, {}	; <UNPREDICTABLE>
     978:	01000000 	mrseq	r0, (UNDEF: 0)
     97c:	00005300 	andeq	r5, r0, r0, lsl #6
     980:	00000000 	andeq	r0, r0, r0
     984:	00540000 	subseq	r0, r4, r0
     988:	00740000 	rsbseq	r0, r4, r0
     98c:	00010000 	andeq	r0, r1, r0
     990:	00007458 	andeq	r7, r0, r8, asr r4
     994:	00013400 	andeq	r3, r1, r0, lsl #8
     998:	75000800 	strvc	r0, [r0, #-2048]	; 0x800
     99c:	75243100 	strvc	r3, [r4, #-256]!	; 0x100
     9a0:	009f2200 	addseq	r2, pc, r0, lsl #4
     9a4:	00000000 	andeq	r0, r0, r0
     9a8:	60000000 	andvs	r0, r0, r0
     9ac:	74000000 	strvc	r0, [r0], #-0
     9b0:	01000000 	mrseq	r0, (UNDEF: 0)
     9b4:	00745800 	rsbseq	r5, r4, r0, lsl #16
     9b8:	01340000 	teqeq	r4, r0
     9bc:	00080000 	andeq	r0, r8, r0
     9c0:	24310075 	ldrtcs	r0, [r1], #-117	; 0x75
     9c4:	9f220075 	svcls	0x00220075
	...
     9d0:	00000064 	andeq	r0, r0, r4, rrx
     9d4:	00000068 	andeq	r0, r0, r8, rrx
     9d8:	00530001 	subseq	r0, r3, r1
     9dc:	00000000 	andeq	r0, r0, r0
     9e0:	74000000 	strvc	r0, [r0], #-0
     9e4:	94000000 	strls	r0, [r0], #-0
     9e8:	01000000 	mrseq	r0, (UNDEF: 0)
     9ec:	00945800 	addseq	r5, r4, r0, lsl #16
     9f0:	01340000 	teqeq	r4, r0
     9f4:	00050000 	andeq	r0, r5, r0
     9f8:	24320075 	ldrtcs	r0, [r2], #-117	; 0x75
     9fc:	0000009f 	muleq	r0, pc, r0	; <UNPREDICTABLE>
     a00:	00000000 	andeq	r0, r0, r0
     a04:	00008000 	andeq	r8, r0, r0
     a08:	00009400 	andeq	r9, r0, r0, lsl #8
     a0c:	58000100 	stmdapl	r0, {r8}
     a10:	00000094 	muleq	r0, r4, r0
     a14:	00000134 	andeq	r0, r0, r4, lsr r1
     a18:	00750005 	rsbseq	r0, r5, r5
     a1c:	009f2432 	addseq	r2, pc, r2, lsr r4	; <UNPREDICTABLE>
     a20:	00000000 	andeq	r0, r0, r0
     a24:	84000000 	strhi	r0, [r0], #-0
     a28:	88000000 	stmdahi	r0, {}	; <UNPREDICTABLE>
     a2c:	01000000 	mrseq	r0, (UNDEF: 0)
     a30:	00005300 	andeq	r5, r0, r0, lsl #6
     a34:	00000000 	andeq	r0, r0, r0
     a38:	00940000 	addseq	r0, r4, r0
     a3c:	00b40000 	adcseq	r0, r4, r0
     a40:	00010000 	andeq	r0, r1, r0
     a44:	0000b458 	andeq	fp, r0, r8, asr r4
     a48:	00013400 	andeq	r3, r1, r0, lsl #8
     a4c:	75000800 	strvc	r0, [r0, #-2048]	; 0x800
     a50:	75243200 	strvc	r3, [r4, #-512]!	; 0x200
     a54:	009f2200 	addseq	r2, pc, r0, lsl #4
     a58:	00000000 	andeq	r0, r0, r0
     a5c:	a0000000 	andge	r0, r0, r0
     a60:	b4000000 	strlt	r0, [r0], #-0
     a64:	01000000 	mrseq	r0, (UNDEF: 0)
     a68:	00b45800 	adcseq	r5, r4, r0, lsl #16
     a6c:	01340000 	teqeq	r4, r0
     a70:	00080000 	andeq	r0, r8, r0
     a74:	24320075 	ldrtcs	r0, [r2], #-117	; 0x75
     a78:	9f220075 	svcls	0x00220075
	...
     a84:	000000a4 	andeq	r0, r0, r4, lsr #1
     a88:	000000a8 	andeq	r0, r0, r8, lsr #1
     a8c:	00530001 	subseq	r0, r3, r1
     a90:	00000000 	andeq	r0, r0, r0
     a94:	b4000000 	strlt	r0, [r0], #-0
     a98:	d4000000 	strle	r0, [r0], #-0
     a9c:	01000000 	mrseq	r0, (UNDEF: 0)
     aa0:	00d45800 	sbcseq	r5, r4, r0, lsl #16
     aa4:	01340000 	teqeq	r4, r0
     aa8:	000a0000 	andeq	r0, sl, r0
     aac:	24320075 	ldrtcs	r0, [r2], #-117	; 0x75
     ab0:	24310075 	ldrtcs	r0, [r1], #-117	; 0x75
     ab4:	00009f22 	andeq	r9, r0, r2, lsr #30
     ab8:	00000000 	andeq	r0, r0, r0
     abc:	00c00000 	sbceq	r0, r0, r0
     ac0:	00d40000 	sbcseq	r0, r4, r0
     ac4:	00010000 	andeq	r0, r1, r0
     ac8:	0000d458 	andeq	sp, r0, r8, asr r4
     acc:	00013400 	andeq	r3, r1, r0, lsl #8
     ad0:	75000a00 	strvc	r0, [r0, #-2560]	; 0xa00
     ad4:	75243200 	strvc	r3, [r4, #-512]!	; 0x200
     ad8:	22243100 	eorcs	r3, r4, #0, 2
     adc:	0000009f 	muleq	r0, pc, r0	; <UNPREDICTABLE>
     ae0:	00000000 	andeq	r0, r0, r0
     ae4:	0000c400 	andeq	ip, r0, r0, lsl #8
     ae8:	0000c800 	andeq	ip, r0, r0, lsl #16
     aec:	53000100 	movwpl	r0, #256	; 0x100
	...
     af8:	000000d4 	ldrdeq	r0, [r0], -r4
     afc:	000000f4 	strdeq	r0, [r0], -r4
     b00:	f4580001 			; <UNDEFINED> instruction: 0xf4580001
     b04:	34000000 	strcc	r0, [r0], #-0
     b08:	0d000001 	stceq	0, cr0, [r0, #-4]
     b0c:	32007500 	andcc	r7, r0, #0, 10
     b10:	31007524 	tstcc	r0, r4, lsr #10
     b14:	00752224 	rsbseq	r2, r5, r4, lsr #4
     b18:	00009f22 	andeq	r9, r0, r2, lsr #30
     b1c:	00000000 	andeq	r0, r0, r0
     b20:	00e00000 	rsceq	r0, r0, r0
     b24:	00f40000 	rscseq	r0, r4, r0
     b28:	00010000 	andeq	r0, r1, r0
     b2c:	0000f458 	andeq	pc, r0, r8, asr r4	; <UNPREDICTABLE>
     b30:	00013400 	andeq	r3, r1, r0, lsl #8
     b34:	75000d00 	strvc	r0, [r0, #-3328]	; 0xd00
     b38:	75243200 	strvc	r3, [r4, #-512]!	; 0x200
     b3c:	22243100 	eorcs	r3, r4, #0, 2
     b40:	9f220075 	svcls	0x00220075
	...
     b4c:	000000e4 	andeq	r0, r0, r4, ror #1
     b50:	000000e8 	andeq	r0, r0, r8, ror #1
     b54:	00530001 	subseq	r0, r3, r1
     b58:	00000000 	andeq	r0, r0, r0
     b5c:	f4000000 	vst4.8	{d0-d3}, [r0], r0
     b60:	14000000 	strne	r0, [r0], #-0
     b64:	01000001 	tsteq	r0, r1
     b68:	01145800 	tsteq	r4, r0, lsl #16
     b6c:	01340000 	teqeq	r4, r0
     b70:	00050000 	andeq	r0, r5, r0
     b74:	24330075 	ldrtcs	r0, [r3], #-117	; 0x75
     b78:	0000009f 	muleq	r0, pc, r0	; <UNPREDICTABLE>
     b7c:	00000000 	andeq	r0, r0, r0
     b80:	00010000 	andeq	r0, r1, r0
     b84:	00011400 	andeq	r1, r1, r0, lsl #8
     b88:	58000100 	stmdapl	r0, {r8}
     b8c:	00000114 	andeq	r0, r0, r4, lsl r1
     b90:	00000134 	andeq	r0, r0, r4, lsr r1
     b94:	00750005 	rsbseq	r0, r5, r5
     b98:	009f2433 	addseq	r2, pc, r3, lsr r4	; <UNPREDICTABLE>
     b9c:	00000000 	andeq	r0, r0, r0
     ba0:	04000000 	streq	r0, [r0], #-0
     ba4:	08000001 	stmdaeq	r0, {r0}
     ba8:	01000001 	tsteq	r0, r1
     bac:	00005300 	andeq	r5, r0, r0, lsl #6
     bb0:	00000000 	andeq	r0, r0, r0
     bb4:	01140000 	tsteq	r4, r0
     bb8:	011c0000 	tsteq	ip, r0
     bbc:	00060000 	andeq	r0, r6, r0
     bc0:	80080077 	andhi	r0, r8, r7, ror r0
     bc4:	011c9f1a 	tsteq	ip, sl, lsl pc
     bc8:	011f0000 	tsteq	pc, r0
     bcc:	00010000 	andeq	r0, r1, r0
     bd0:	00011f51 	andeq	r1, r1, r1, asr pc
     bd4:	00015400 	andeq	r5, r1, r0, lsl #8
     bd8:	77000600 	strvc	r0, [r0, -r0, lsl #12]
     bdc:	1a800800 	bne	fe002be4 <__bss_end__+0xfdff8edc>
     be0:	0000009f 	muleq	r0, pc, r0	; <UNPREDICTABLE>
     be4:	00000000 	andeq	r0, r0, r0
     be8:	00012400 	andeq	r2, r1, r0, lsl #8
     bec:	00012800 	andeq	r2, r1, r0, lsl #16
     bf0:	53000100 	movwpl	r0, #256	; 0x100
	...
     bfc:	00000144 	andeq	r0, r0, r4, asr #2
     c00:	00000148 	andeq	r0, r0, r8, asr #2
     c04:	00530001 	subseq	r0, r3, r1
     c08:	00000000 	andeq	r0, r0, r0
     c0c:	54000000 	strpl	r0, [r0], #-0
     c10:	6b000001 	blvs	c1c <_start-0x73e4>
     c14:	01000001 	tsteq	r0, r1
     c18:	016b5000 	cmneq	fp, r0
     c1c:	01d00000 	bicseq	r0, r0, r0
     c20:	00010000 	andeq	r0, r1, r0
     c24:	0001d059 	andeq	sp, r1, r9, asr r0
     c28:	00030c00 	andeq	r0, r3, r0, lsl #24
     c2c:	f3000400 	vshl.u8	d0, d0, d0
     c30:	0c9f5001 	ldceq	0, cr5, [pc], {1}
     c34:	14000003 	strne	r0, [r0], #-3
     c38:	01000003 	tsteq	r0, r3
     c3c:	03145900 	tsteq	r4, #0, 18
     c40:	031c0000 	tsteq	ip, #0
     c44:	00040000 	andeq	r0, r4, r0
     c48:	9f5001f3 	svcls	0x005001f3
	...
     c54:	00000154 	andeq	r0, r0, r4, asr r1
     c58:	0000016b 	andeq	r0, r0, fp, ror #2
     c5c:	6b510001 	blvs	1440c68 <__bss_end__+0x1436f60>
     c60:	1c000001 	stcne	0, cr0, [r0], {1}
     c64:	01000003 	tsteq	r0, r3
     c68:	00005600 	andeq	r5, r0, r0, lsl #12
     c6c:	00000000 	andeq	r0, r0, r0
     c70:	01a80000 			; <UNDEFINED> instruction: 0x01a80000
     c74:	02980000 	addseq	r0, r8, #0
     c78:	00010000 	andeq	r0, r1, r0
     c7c:	00000058 	andeq	r0, r0, r8, asr r0
     c80:	00000000 	andeq	r0, r0, r0
     c84:	0001ac00 	andeq	sl, r1, r0, lsl #24
     c88:	0002d000 	andeq	sp, r2, r0
     c8c:	54000100 	strpl	r0, [r0], #-256	; 0x100
	...
     c98:	000001ac 	andeq	r0, r0, ip, lsr #3
     c9c:	000002d0 	ldrdeq	r0, [r0], -r0	; <UNPREDICTABLE>
     ca0:	00740005 	rsbseq	r0, r4, r5
     ca4:	009f2531 	addseq	r2, pc, r1, lsr r5	; <UNPREDICTABLE>
     ca8:	00000000 	andeq	r0, r0, r0
     cac:	ac000000 	stcge	0, cr0, [r0], {-0}
     cb0:	d0000001 	andle	r0, r0, r1
     cb4:	02000001 	andeq	r0, r0, #1
     cb8:	d09f3000 	addsle	r3, pc, r0
     cbc:	0c000001 	stceq	0, cr0, [r0], {1}
     cc0:	01000003 	tsteq	r0, r3
     cc4:	03145900 	tsteq	r4, #0, 18
     cc8:	031c0000 	tsteq	ip, #0
     ccc:	00010000 	andeq	r0, r1, r0
     cd0:	00000059 	andeq	r0, r0, r9, asr r0
     cd4:	00000000 	andeq	r0, r0, r0
     cd8:	00016800 	andeq	r6, r1, r0, lsl #16
     cdc:	00016b00 	andeq	r6, r1, r0, lsl #22
     ce0:	51000100 	mrspl	r0, (UNDEF: 16)
     ce4:	0000016b 	andeq	r0, r0, fp, ror #2
     ce8:	0000031c 	andeq	r0, r0, ip, lsl r3
     cec:	00560001 	subseq	r0, r6, r1
     cf0:	00000000 	andeq	r0, r0, r0
     cf4:	70000000 	andvc	r0, r0, r0
     cf8:	ac000001 	stcge	0, cr0, [r0], {1}
     cfc:	01000001 	tsteq	r0, r1
     d00:	030c5400 	movweq	r5, #50176	; 0xc400
     d04:	03140000 	tsteq	r4, #0
     d08:	00010000 	andeq	r0, r1, r0
     d0c:	00000054 	andeq	r0, r0, r4, asr r0
     d10:	00000000 	andeq	r0, r0, r0
     d14:	0001a800 	andeq	sl, r1, r0, lsl #16
     d18:	0001c400 	andeq	ip, r1, r0, lsl #8
     d1c:	58000100 	stmdapl	r0, {r8}
	...
     d28:	000001b0 			; <UNDEFINED> instruction: 0x000001b0
     d2c:	000001cb 	andeq	r0, r0, fp, asr #3
     d30:	cb520001 	blgt	1480d3c <__bss_end__+0x1477034>
     d34:	d0000001 	andle	r0, r0, r1
     d38:	08000002 	stmdaeq	r0, {r1}
     d3c:	31007400 	tstcc	r0, r0, lsl #8
     d40:	22007425 	andcs	r7, r0, #620756992	; 0x25000000
     d44:	0000009f 	muleq	r0, pc, r0	; <UNPREDICTABLE>
     d48:	00000000 	andeq	r0, r0, r0
     d4c:	0001b000 	andeq	fp, r1, r0
     d50:	0001c400 	andeq	ip, r1, r0, lsl #8
     d54:	58000100 	stmdapl	r0, {r8}
	...
     d60:	000001b4 			; <UNDEFINED> instruction: 0x000001b4
     d64:	000001b8 			; <UNDEFINED> instruction: 0x000001b8
     d68:	00530001 	subseq	r0, r3, r1
     d6c:	00000000 	andeq	r0, r0, r0
     d70:	d0000000 	andle	r0, r0, r0
     d74:	d0000001 	andle	r0, r0, r1
     d78:	01000002 	tsteq	r0, r2
     d7c:	00005400 	andeq	r5, r0, r0, lsl #8
     d80:	00000000 	andeq	r0, r0, r0
     d84:	01d00000 	bicseq	r0, r0, r0
     d88:	01e40000 	mvneq	r0, r0
     d8c:	00010000 	andeq	r0, r1, r0
     d90:	00000058 	andeq	r0, r0, r8, asr r0
     d94:	00000000 	andeq	r0, r0, r0
     d98:	0001d400 	andeq	sp, r1, r0, lsl #8
     d9c:	0001d800 	andeq	sp, r1, r0, lsl #16
     da0:	53000100 	movwpl	r0, #256	; 0x100
	...
     dac:	000001f4 	strdeq	r0, [r0], -r4
     db0:	000002d0 	ldrdeq	r0, [r0], -r0	; <UNPREDICTABLE>
     db4:	00540001 	subseq	r0, r4, r1
     db8:	00000000 	andeq	r0, r0, r0
     dbc:	f4000000 	vst4.8	{d0-d3}, [r0], r0
     dc0:	08000001 	stmdaeq	r0, {r0}
     dc4:	01000002 	tsteq	r0, r2
     dc8:	00005800 	andeq	r5, r0, r0, lsl #16
     dcc:	00000000 	andeq	r0, r0, r0
     dd0:	01f80000 	mvnseq	r0, r0
     dd4:	01fc0000 	mvnseq	r0, r0
     dd8:	00010000 	andeq	r0, r1, r0
     ddc:	00000053 	andeq	r0, r0, r3, asr r0
     de0:	00000000 	andeq	r0, r0, r0
     de4:	00021800 	andeq	r1, r2, r0, lsl #16
     de8:	0002d000 	andeq	sp, r2, r0
     dec:	54000100 	strpl	r0, [r0], #-256	; 0x100
	...
     df8:	00000218 	andeq	r0, r0, r8, lsl r2
     dfc:	0000022c 	andeq	r0, r0, ip, lsr #4
     e00:	00580001 	subseq	r0, r8, r1
     e04:	00000000 	andeq	r0, r0, r0
     e08:	1c000000 	stcne	0, cr0, [r0], {-0}
     e0c:	20000002 	andcs	r0, r0, r2
     e10:	01000002 	tsteq	r0, r2
     e14:	00005300 	andeq	r5, r0, r0, lsl #6
     e18:	00000000 	andeq	r0, r0, r0
     e1c:	023c0000 	eorseq	r0, ip, #0
     e20:	02d00000 	sbcseq	r0, r0, #0
     e24:	00010000 	andeq	r0, r1, r0
     e28:	00000054 	andeq	r0, r0, r4, asr r0
     e2c:	00000000 	andeq	r0, r0, r0
     e30:	00023c00 	andeq	r3, r2, r0, lsl #24
     e34:	00025000 	andeq	r5, r2, r0
     e38:	58000100 	stmdapl	r0, {r8}
	...
     e44:	00000240 	andeq	r0, r0, r0, asr #4
     e48:	00000244 	andeq	r0, r0, r4, asr #4
     e4c:	00530001 	subseq	r0, r3, r1
     e50:	00000000 	andeq	r0, r0, r0
     e54:	60000000 	andvs	r0, r0, r0
     e58:	d0000002 	andle	r0, r0, r2
     e5c:	01000002 	tsteq	r0, r2
     e60:	00005400 	andeq	r5, r0, r0, lsl #8
     e64:	00000000 	andeq	r0, r0, r0
     e68:	02600000 	rsbeq	r0, r0, #0
     e6c:	02740000 	rsbseq	r0, r4, #0
     e70:	00010000 	andeq	r0, r1, r0
     e74:	00000058 	andeq	r0, r0, r8, asr r0
     e78:	00000000 	andeq	r0, r0, r0
     e7c:	00026400 	andeq	r6, r2, r0, lsl #8
     e80:	00026800 	andeq	r6, r2, r0, lsl #16
     e84:	53000100 	movwpl	r0, #256	; 0x100
	...
     e90:	00000284 	andeq	r0, r0, r4, lsl #5
     e94:	000002d0 	ldrdeq	r0, [r0], -r0	; <UNPREDICTABLE>
     e98:	00540001 	subseq	r0, r4, r1
     e9c:	00000000 	andeq	r0, r0, r0
     ea0:	84000000 	strhi	r0, [r0], #-0
     ea4:	98000002 	stmdals	r0, {r1}
     ea8:	01000002 	tsteq	r0, r2
     eac:	00005800 	andeq	r5, r0, r0, lsl #16
     eb0:	00000000 	andeq	r0, r0, r0
     eb4:	02880000 	addeq	r0, r8, #0
     eb8:	028c0000 	addeq	r0, ip, #0
     ebc:	00010000 	andeq	r0, r1, r0
     ec0:	00000053 	andeq	r0, r0, r3, asr r0
     ec4:	00000000 	andeq	r0, r0, r0
     ec8:	0002a800 	andeq	sl, r2, r0, lsl #16
     ecc:	0002d000 	andeq	sp, r2, r0
     ed0:	54000100 	strpl	r0, [r0], #-256	; 0x100
	...
     edc:	000002ac 	andeq	r0, r0, ip, lsr #5
     ee0:	000002b0 			; <UNDEFINED> instruction: 0x000002b0
     ee4:	00530001 	subseq	r0, r3, r1
     ee8:	00000000 	andeq	r0, r0, r0
     eec:	c8000000 	stmdagt	r0, {}	; <UNPREDICTABLE>
     ef0:	0c000002 	stceq	0, cr0, [r0], {2}
     ef4:	02000003 	andeq	r0, r0, #3
     ef8:	149f3000 	ldrne	r3, [pc], #0	; f00 <_start-0x7100>
     efc:	1c000003 	stcne	0, cr0, [r0], {3}
     f00:	02000003 	andeq	r0, r0, #3
     f04:	009f3000 	addseq	r3, pc, r0
     f08:	00000000 	andeq	r0, r0, r0
     f0c:	c8000000 	stmdagt	r0, {}	; <UNPREDICTABLE>
     f10:	0c000002 	stceq	0, cr0, [r0], {2}
     f14:	01000003 	tsteq	r0, r3
     f18:	03145500 	tsteq	r4, #0, 10
     f1c:	031c0000 	tsteq	ip, #0
     f20:	00010000 	andeq	r0, r1, r0
     f24:	00000055 	andeq	r0, r0, r5, asr r0
     f28:	00000000 	andeq	r0, r0, r0
     f2c:	0002d000 	andeq	sp, r2, r0
     f30:	00030c00 	andeq	r0, r3, r0, lsl #24
     f34:	54000100 	strpl	r0, [r0], #-256	; 0x100
     f38:	00000314 	andeq	r0, r0, r4, lsl r3
     f3c:	0000031c 	andeq	r0, r0, ip, lsl r3
     f40:	00540001 	subseq	r0, r4, r1
     f44:	00000000 	andeq	r0, r0, r0
     f48:	1c000000 	stcne	0, cr0, [r0], {-0}
     f4c:	3b000003 	blcc	f60 <_start-0x70a0>
     f50:	01000003 	tsteq	r0, r3
     f54:	033b5000 	teqeq	fp, #0
     f58:	03540000 	cmpeq	r4, #0
     f5c:	00010000 	andeq	r0, r1, r0
     f60:	00035458 	andeq	r5, r3, r8, asr r4
     f64:	00036400 	andeq	r6, r3, r0, lsl #8
     f68:	50000100 	andpl	r0, r0, r0, lsl #2
     f6c:	00000364 	andeq	r0, r0, r4, ror #6
     f70:	000003ac 	andeq	r0, r0, ip, lsr #7
     f74:	00580001 	subseq	r0, r8, r1
     f78:	00000000 	andeq	r0, r0, r0
     f7c:	1c000000 	stcne	0, cr0, [r0], {-0}
     f80:	3b000003 	blcc	f94 <_start-0x706c>
     f84:	01000003 	tsteq	r0, r3
     f88:	033b5100 	teqeq	fp, #0, 2
     f8c:	03540000 	cmpeq	r4, #0
     f90:	00010000 	andeq	r0, r1, r0
     f94:	00035456 	andeq	r5, r3, r6, asr r4
     f98:	00036400 	andeq	r6, r3, r0, lsl #8
     f9c:	51000100 	mrspl	r0, (UNDEF: 16)
     fa0:	00000364 	andeq	r0, r0, r4, ror #6
     fa4:	000003ac 	andeq	r0, r0, ip, lsr #7
     fa8:	00560001 	subseq	r0, r6, r1
     fac:	00000000 	andeq	r0, r0, r0
     fb0:	1c000000 	stcne	0, cr0, [r0], {-0}
     fb4:	3b000003 	blcc	fc8 <_start-0x7038>
     fb8:	01000003 	tsteq	r0, r3
     fbc:	033b5200 	teqeq	fp, #0, 4
     fc0:	03540000 	cmpeq	r4, #0
     fc4:	00040000 	andeq	r0, r4, r0
     fc8:	9f5201f3 	svcls	0x005201f3
     fcc:	00000354 	andeq	r0, r0, r4, asr r3
     fd0:	00000364 	andeq	r0, r0, r4, ror #6
     fd4:	64520001 	ldrbvs	r0, [r2], #-1
     fd8:	ac000003 	stcge	0, cr0, [r0], {3}
     fdc:	03000003 	movweq	r0, #3
     fe0:	9f017700 	svcls	0x00017700
	...
     fec:	0000031c 	andeq	r0, r0, ip, lsl r3
     ff0:	0000033b 	andeq	r0, r0, fp, lsr r3
     ff4:	3b530001 	blcc	14c1000 <__bss_end__+0x14b72f8>
     ff8:	54000003 	strpl	r0, [r0], #-3
     ffc:	04000003 	streq	r0, [r0], #-3
    1000:	5301f300 	movwpl	pc, #4864	; 0x1300	; <UNPREDICTABLE>
    1004:	0003549f 	muleq	r3, pc, r4	; <UNPREDICTABLE>
    1008:	00036400 	andeq	r6, r3, r0, lsl #8
    100c:	53000100 	movwpl	r0, #256	; 0x100
    1010:	00000364 	andeq	r0, r0, r4, ror #6
    1014:	000003ac 	andeq	r0, r0, ip, lsr #7
    1018:	01f30004 	mvnseq	r0, r4
    101c:	00009f53 	andeq	r9, r0, r3, asr pc
    1020:	00000000 	andeq	r0, r0, r0
    1024:	035c0000 	cmpeq	ip, #0
    1028:	03640000 	cmneq	r4, #0
    102c:	00020000 	andeq	r0, r2, r0
    1030:	03649f30 	cmneq	r4, #48, 30	; 0xc0
    1034:	03ac0000 			; <UNDEFINED> instruction: 0x03ac0000
    1038:	00010000 	andeq	r0, r1, r0
    103c:	00000054 	andeq	r0, r0, r4, asr r0
    1040:	00000000 	andeq	r0, r0, r0
    1044:	00037400 	andeq	r7, r3, r0, lsl #8
    1048:	00038400 	andeq	r8, r3, r0, lsl #8
    104c:	50000100 	andpl	r0, r0, r0, lsl #2
	...
    1058:	000003ac 	andeq	r0, r0, ip, lsr #7
    105c:	000003c7 	andeq	r0, r0, r7, asr #7
    1060:	c7500001 	ldrbgt	r0, [r0, -r1]
    1064:	e0000003 	and	r0, r0, r3
    1068:	01000003 	tsteq	r0, r3
    106c:	03e05700 	mvneq	r5, #0, 14
    1070:	03f00000 	mvnseq	r0, #0
    1074:	00010000 	andeq	r0, r1, r0
    1078:	0003f050 	andeq	pc, r3, r0, asr r0	; <UNPREDICTABLE>
    107c:	00042800 	andeq	r2, r4, r0, lsl #16
    1080:	57000100 	strpl	r0, [r0, -r0, lsl #2]
	...
    108c:	000003ac 	andeq	r0, r0, ip, lsr #7
    1090:	000003c7 	andeq	r0, r0, r7, asr #7
    1094:	c7510001 	ldrbgt	r0, [r1, -r1]
    1098:	e0000003 	and	r0, r0, r3
    109c:	01000003 	tsteq	r0, r3
    10a0:	03e05500 	mvneq	r5, #0, 10
    10a4:	03f00000 	mvnseq	r0, #0
    10a8:	00010000 	andeq	r0, r1, r0
    10ac:	0003f051 	andeq	pc, r3, r1, asr r0	; <UNPREDICTABLE>
    10b0:	00042800 	andeq	r2, r4, r0, lsl #16
    10b4:	55000100 	strpl	r0, [r0, #-256]	; 0x100
	...
    10c0:	000003ac 	andeq	r0, r0, ip, lsr #7
    10c4:	000003c7 	andeq	r0, r0, r7, asr #7
    10c8:	c7520001 	ldrbgt	r0, [r2, -r1]
    10cc:	e0000003 	and	r0, r0, r3
    10d0:	04000003 	streq	r0, [r0], #-3
    10d4:	5201f300 	andpl	pc, r1, #0, 6
    10d8:	0003e09f 	muleq	r3, pc, r0	; <UNPREDICTABLE>
    10dc:	0003f000 	andeq	pc, r3, r0
    10e0:	52000100 	andpl	r0, r0, #0, 2
    10e4:	000003f0 	strdeq	r0, [r0], -r0	; <UNPREDICTABLE>
    10e8:	00000428 	andeq	r0, r0, r8, lsr #8
    10ec:	01760003 	cmneq	r6, r3
    10f0:	0000009f 	muleq	r0, pc, r0	; <UNPREDICTABLE>
    10f4:	00000000 	andeq	r0, r0, r0
    10f8:	0003ac00 	andeq	sl, r3, r0, lsl #24
    10fc:	0003c700 	andeq	ip, r3, r0, lsl #14
    1100:	53000100 	movwpl	r0, #256	; 0x100
    1104:	000003c7 	andeq	r0, r0, r7, asr #7
    1108:	000003e0 	andeq	r0, r0, r0, ror #7
    110c:	e0580001 	subs	r0, r8, r1
    1110:	f0000003 			; <UNDEFINED> instruction: 0xf0000003
    1114:	01000003 	tsteq	r0, r3
    1118:	03f05300 	mvnseq	r5, #0, 6
    111c:	04280000 	strteq	r0, [r8], #-0
    1120:	00010000 	andeq	r0, r1, r0
    1124:	00000058 	andeq	r0, r0, r8, asr r0
    1128:	00000000 	andeq	r0, r0, r0
    112c:	0003e800 	andeq	lr, r3, r0, lsl #16
    1130:	0003f000 	andeq	pc, r3, r0
    1134:	30000200 	andcc	r0, r0, r0, lsl #4
    1138:	0003f09f 	muleq	r3, pc, r0	; <UNPREDICTABLE>
    113c:	00042800 	andeq	r2, r4, r0, lsl #16
    1140:	54000100 	strpl	r0, [r0], #-256	; 0x100
	...
    114c:	00000428 	andeq	r0, r0, r8, lsr #8
    1150:	00000447 	andeq	r0, r0, r7, asr #8
    1154:	47510001 	ldrbmi	r0, [r1, -r1]
    1158:	e8000004 	stmda	r0, {r2}
    115c:	04000004 	streq	r0, [r0], #-4
    1160:	5101f300 	mrspl	pc, SP_irq	; <UNPREDICTABLE>
    1164:	0000009f 	muleq	r0, pc, r0	; <UNPREDICTABLE>
    1168:	00000000 	andeq	r0, r0, r0
    116c:	00042800 	andeq	r2, r4, r0, lsl #16
    1170:	00044700 	andeq	r4, r4, r0, lsl #14
    1174:	52000100 	andpl	r0, r0, #0, 2
    1178:	00000447 	andeq	r0, r0, r7, asr #8
    117c:	000004e8 	andeq	r0, r0, r8, ror #9
    1180:	01f30004 	mvnseq	r0, r4
    1184:	00009f52 	andeq	r9, r0, r2, asr pc
    1188:	00000000 	andeq	r0, r0, r0
    118c:	04280000 	strteq	r0, [r8], #-0
    1190:	04470000 	strbeq	r0, [r7], #-0
    1194:	00010000 	andeq	r0, r1, r0
    1198:	00044753 	andeq	r4, r4, r3, asr r7
    119c:	0004e800 	andeq	lr, r4, r0, lsl #16
    11a0:	55000100 	strpl	r0, [r0, #-256]	; 0x100
	...
    11ac:	00000468 	andeq	r0, r0, r8, ror #8
    11b0:	000004a7 	andeq	r0, r0, r7, lsr #9
    11b4:	a7520001 	ldrbge	r0, [r2, -r1]
    11b8:	c0000004 	andgt	r0, r0, r4
    11bc:	06000004 	streq	r0, [r0], -r4
    11c0:	77007500 	strvc	r7, [r0, -r0, lsl #10]
    11c4:	c09f1e00 	addsgt	r1, pc, r0, lsl #28
    11c8:	e8000004 	stmda	r0, {r2}
    11cc:	01000004 	tsteq	r0, r4
    11d0:	00005200 	andeq	r5, r0, r0, lsl #4
    11d4:	00000000 	andeq	r0, r0, r0
    11d8:	04e80000 	strbteq	r0, [r8], #0
    11dc:	04f30000 	ldrbteq	r0, [r3], #0
    11e0:	00010000 	andeq	r0, r1, r0
    11e4:	0004f350 	andeq	pc, r4, r0, asr r3	; <UNPREDICTABLE>
    11e8:	00052400 	andeq	r2, r5, r0, lsl #8
    11ec:	f3000400 	vshl.u8	d0, d0, d0
    11f0:	009f5001 	addseq	r5, pc, r1
    11f4:	00000000 	andeq	r0, r0, r0
    11f8:	f4000000 	vst4.8	{d0-d3}, [r0], r0
    11fc:	ff000004 			; <UNDEFINED> instruction: 0xff000004
    1200:	01000004 	tsteq	r0, r4
    1204:	00005000 	andeq	r5, r0, r0
    1208:	00000000 	andeq	r0, r0, r0
    120c:	05240000 	streq	r0, [r4, #-0]!
    1210:	05340000 	ldreq	r0, [r4, #-0]!
    1214:	00010000 	andeq	r0, r1, r0
    1218:	00053450 	andeq	r3, r5, r0, asr r4
    121c:	00055000 	andeq	r5, r5, r0
    1220:	55000100 	strpl	r0, [r0, #-256]	; 0x100
	...
    122c:	00000524 	andeq	r0, r0, r4, lsr #10
    1230:	00000534 	andeq	r0, r0, r4, lsr r5
    1234:	34510001 	ldrbcc	r0, [r1], #-1
    1238:	50000005 	andpl	r0, r0, r5
    123c:	01000005 	tsteq	r0, r5
    1240:	00005400 	andeq	r5, r0, r0, lsl #8
    1244:	00000000 	andeq	r0, r0, r0
    1248:	05500000 	ldrbeq	r0, [r0, #-0]
    124c:	056c0000 	strbeq	r0, [ip, #-0]!
    1250:	00010000 	andeq	r0, r1, r0
    1254:	00056c50 	andeq	r6, r5, r0, asr ip
    1258:	0005bc00 	andeq	fp, r5, r0, lsl #24
    125c:	55000100 	strpl	r0, [r0, #-256]	; 0x100
    1260:	000005bc 			; <UNDEFINED> instruction: 0x000005bc
    1264:	000005d4 	ldrdeq	r0, [r0], -r4
    1268:	01f30004 	mvnseq	r0, r4
    126c:	00009f50 	andeq	r9, r0, r0, asr pc
    1270:	00000000 	andeq	r0, r0, r0
    1274:	057c0000 	ldrbeq	r0, [ip, #-0]!
    1278:	058b0000 	streq	r0, [fp]
    127c:	00010000 	andeq	r0, r1, r0
    1280:	00058b50 	andeq	r8, r5, r0, asr fp
    1284:	0005a400 	andeq	sl, r5, r0, lsl #8
    1288:	54000100 	strpl	r0, [r0], #-256	; 0x100
    128c:	000005a4 	andeq	r0, r0, r4, lsr #11
    1290:	000005a8 	andeq	r0, r0, r8, lsr #11
    1294:	a8500001 	ldmdage	r0, {r0}^
    1298:	bc000005 	stclt	0, cr0, [r0], {5}
    129c:	01000005 	tsteq	r0, r5
    12a0:	05bc5400 	ldreq	r5, [ip, #1024]!	; 0x400
    12a4:	05d40000 	ldrbeq	r0, [r4]
    12a8:	00010000 	andeq	r0, r1, r0
    12ac:	00000050 	andeq	r0, r0, r0, asr r0
    12b0:	00000000 	andeq	r0, r0, r0
    12b4:	0005d400 	andeq	sp, r5, r0, lsl #8
    12b8:	0005e700 	andeq	lr, r5, r0, lsl #14
    12bc:	50000100 	andpl	r0, r0, r0, lsl #2
    12c0:	000005e7 	andeq	r0, r0, r7, ror #11
    12c4:	00000620 	andeq	r0, r0, r0, lsr #12
    12c8:	01f30004 	mvnseq	r0, r4
    12cc:	00009f50 	andeq	r9, r0, r0, asr pc
    12d0:	00000000 	andeq	r0, r0, r0
    12d4:	05d40000 	ldrbeq	r0, [r4]
    12d8:	05e70000 	strbeq	r0, [r7, #0]!
    12dc:	00010000 	andeq	r0, r1, r0
    12e0:	0005e751 	andeq	lr, r5, r1, asr r7
    12e4:	00062000 	andeq	r2, r6, r0
    12e8:	f3000400 	vshl.u8	d0, d0, d0
    12ec:	009f5101 	addseq	r5, pc, r1, lsl #2
    12f0:	00000000 	andeq	r0, r0, r0
    12f4:	d4000000 	strle	r0, [r0], #-0
    12f8:	e7000005 	str	r0, [r0, -r5]
    12fc:	01000005 	tsteq	r0, r5
    1300:	05e75200 	strbeq	r5, [r7, #512]!	; 0x200
    1304:	06200000 	strteq	r0, [r0], -r0
    1308:	00040000 	andeq	r0, r4, r0
    130c:	9f5201f3 	svcls	0x005201f3
	...
    1318:	000005d4 	ldrdeq	r0, [r0], -r4
    131c:	000005e7 	andeq	r0, r0, r7, ror #11
    1320:	e7530001 	ldrb	r0, [r3, -r1]
    1324:	20000005 	andcs	r0, r0, r5
    1328:	04000006 	streq	r0, [r0], #-6
    132c:	5301f300 	movwpl	pc, #4864	; 0x1300	; <UNPREDICTABLE>
    1330:	0000009f 	muleq	r0, pc, r0	; <UNPREDICTABLE>
    1334:	00000000 	andeq	r0, r0, r0
    1338:	0005e800 	andeq	lr, r5, r0, lsl #16
    133c:	0005f300 	andeq	pc, r5, r0, lsl #6
    1340:	50000100 	andpl	r0, r0, r0, lsl #2
    1344:	0000060c 	andeq	r0, r0, ip, lsl #12
    1348:	00000620 	andeq	r0, r0, r0, lsr #12
    134c:	00500001 	subseq	r0, r0, r1
    1350:	00000000 	andeq	r0, r0, r0
    1354:	fc000000 	stc2	0, cr0, [r0], {-0}
    1358:	04000000 	streq	r0, [r0], #-0
    135c:	01000001 	tsteq	r0, r1
    1360:	01045000 	mrseq	r5, (UNDEF: 4)
    1364:	01280000 	teqeq	r8, r0
    1368:	00010000 	andeq	r0, r1, r0
    136c:	00000054 	andeq	r0, r0, r4, asr r0
	...
    1378:	00009000 	andeq	r9, r0, r0
    137c:	50000100 	andpl	r0, r0, r0, lsl #2
    1380:	00000090 	muleq	r0, r0, r0
    1384:	000000d4 	ldrdeq	r0, [r0], -r4
    1388:	00540001 	subseq	r0, r4, r1
    138c:	00000000 	andeq	r0, r0, r0
    1390:	48000000 	stmdami	r0, {}	; <UNPREDICTABLE>
    1394:	4c000000 	stcmi	0, cr0, [r0], {-0}
    1398:	01000000 	mrseq	r0, (UNDEF: 0)
    139c:	00545500 	subseq	r5, r4, r0, lsl #10
    13a0:	00580000 	subseq	r0, r8, r0
    13a4:	00010000 	andeq	r0, r1, r0
    13a8:	00006055 	andeq	r6, r0, r5, asr r0
    13ac:	00006400 	andeq	r6, r0, r0, lsl #8
    13b0:	55000100 	strpl	r0, [r0, #-256]	; 0x100
    13b4:	0000006c 	andeq	r0, r0, ip, rrx
    13b8:	00000070 	andeq	r0, r0, r0, ror r0
    13bc:	78550001 	ldmdavc	r5, {r0}^
    13c0:	7c000000 	stcvc	0, cr0, [r0], {-0}
    13c4:	01000000 	mrseq	r0, (UNDEF: 0)
    13c8:	00845500 	addeq	r5, r4, r0, lsl #10
    13cc:	00880000 	addeq	r0, r8, r0
    13d0:	00010000 	andeq	r0, r1, r0
    13d4:	00008c55 	andeq	r8, r0, r5, asr ip
    13d8:	0000d400 	andeq	sp, r0, r0, lsl #8
    13dc:	55000100 	strpl	r0, [r0, #-256]	; 0x100
	...
    13e8:	0000001c 	andeq	r0, r0, ip, lsl r0
    13ec:	00000044 	andeq	r0, r0, r4, asr #32
    13f0:	44530001 	ldrbmi	r0, [r3], #-1
    13f4:	4c000000 	stcmi	0, cr0, [r0], {-0}
    13f8:	1c000000 	stcne	0, cr0, [r0], {-0}
    13fc:	f7007000 			; <UNDEFINED> instruction: 0xf7007000
    1400:	f425f72c 	vld1.8	{d15}, [r5 :128], ip
    1404:	cccd0825 	stclgt	8, cr0, [sp], {37}	; 0x25
    1408:	0000cccc 	andeq	ip, r0, ip, asr #25
    140c:	081e0000 	ldmdaeq	lr, {}	; <UNPREDICTABLE>
    1410:	2525f720 	strcs	pc, [r5, #-1824]!	; 0x720
    1414:	25332cf7 	ldrcs	r2, [r3, #-3319]!	; 0xcf7
    1418:	00004c9f 	muleq	r0, pc, ip	; <UNPREDICTABLE>
    141c:	00005000 	andeq	r5, r0, r0
    1420:	53000100 	movwpl	r0, #256	; 0x100
    1424:	00000050 	andeq	r0, r0, r0, asr r0
    1428:	00000058 	andeq	r0, r0, r8, asr r0
    142c:	0070001c 	rsbseq	r0, r0, ip, lsl r0
    1430:	25f72cf7 	ldrbcs	r2, [r7, #3319]!	; 0xcf7
    1434:	cd0825f4 	cfstr32gt	mvfx2, [r8, #-976]	; 0xfffffc30
    1438:	00cccccc 	sbceq	ip, ip, ip, asr #25
    143c:	1e000000 	cdpne	0, 0, cr0, cr0, cr0, {0}
    1440:	25f72008 	ldrbcs	r2, [r7, #8]!
    1444:	332cf725 	msrcc	CPSR_fs, #9699328	; 0x940000
    1448:	00589f25 	subseq	r9, r8, r5, lsr #30
    144c:	005c0000 	subseq	r0, ip, r0
    1450:	00010000 	andeq	r0, r1, r0
    1454:	00005c53 	andeq	r5, r0, r3, asr ip
    1458:	00006400 	andeq	r6, r0, r0, lsl #8
    145c:	70001c00 	andvc	r1, r0, r0, lsl #24
    1460:	f72cf700 			; <UNDEFINED> instruction: 0xf72cf700
    1464:	0825f425 	stmdaeq	r5!, {r0, r2, r5, sl, ip, sp, lr, pc}
    1468:	cccccccd 	stclgt	12, cr12, [ip], {205}	; 0xcd
    146c:	00000000 	andeq	r0, r0, r0
    1470:	f720081e 			; <UNDEFINED> instruction: 0xf720081e
    1474:	2cf72525 	cfldr64cs	mvdx2, [r7], #148	; 0x94
    1478:	649f2533 	ldrvs	r2, [pc], #1331	; 1480 <_start-0x6b80>
    147c:	68000000 	stmdavs	r0, {}	; <UNPREDICTABLE>
    1480:	01000000 	mrseq	r0, (UNDEF: 0)
    1484:	00685300 	rsbeq	r5, r8, r0, lsl #6
    1488:	00700000 	rsbseq	r0, r0, r0
    148c:	001c0000 	andseq	r0, ip, r0
    1490:	2cf70070 	ldclcs	0, cr0, [r7], #448	; 0x1c0
    1494:	25f425f7 	ldrbcs	r2, [r4, #1527]!	; 0x5f7
    1498:	cccccd08 	stclgt	13, cr12, [ip], {8}
    149c:	000000cc 	andeq	r0, r0, ip, asr #1
    14a0:	20081e00 	andcs	r1, r8, r0, lsl #28
    14a4:	f72525f7 			; <UNDEFINED> instruction: 0xf72525f7
    14a8:	9f25332c 	svcls	0x0025332c
    14ac:	00000070 	andeq	r0, r0, r0, ror r0
    14b0:	00000074 	andeq	r0, r0, r4, ror r0
    14b4:	74530001 	ldrbvc	r0, [r3], #-1
    14b8:	7c000000 	stcvc	0, cr0, [r0], {-0}
    14bc:	1c000000 	stcne	0, cr0, [r0], {-0}
    14c0:	f7007000 			; <UNDEFINED> instruction: 0xf7007000
    14c4:	f425f72c 	vld1.8	{d15}, [r5 :128], ip
    14c8:	cccd0825 	stclgt	8, cr0, [sp], {37}	; 0x25
    14cc:	0000cccc 	andeq	ip, r0, ip, asr #25
    14d0:	081e0000 	ldmdaeq	lr, {}	; <UNPREDICTABLE>
    14d4:	2525f720 	strcs	pc, [r5, #-1824]!	; 0x720
    14d8:	25332cf7 	ldrcs	r2, [r3, #-3319]!	; 0xcf7
    14dc:	00007c9f 	muleq	r0, pc, ip	; <UNPREDICTABLE>
    14e0:	00008000 	andeq	r8, r0, r0
    14e4:	53000100 	movwpl	r0, #256	; 0x100
    14e8:	00000080 	andeq	r0, r0, r0, lsl #1
    14ec:	00000088 	andeq	r0, r0, r8, lsl #1
    14f0:	0070001c 	rsbseq	r0, r0, ip, lsl r0
    14f4:	25f72cf7 	ldrbcs	r2, [r7, #3319]!	; 0xcf7
    14f8:	cd0825f4 	cfstr32gt	mvfx2, [r8, #-976]	; 0xfffffc30
    14fc:	00cccccc 	sbceq	ip, ip, ip, asr #25
    1500:	1e000000 	cdpne	0, 0, cr0, cr0, cr0, {0}
    1504:	25f72008 	ldrbcs	r2, [r7, #8]!
    1508:	332cf725 	msrcc	CPSR_fs, #9699328	; 0x940000
    150c:	00889f25 	addeq	r9, r8, r5, lsr #30
    1510:	008c0000 	addeq	r0, ip, r0
    1514:	00010000 	andeq	r0, r1, r0
    1518:	00008c53 	andeq	r8, r0, r3, asr ip
    151c:	00009000 	andeq	r9, r0, r0
    1520:	70001c00 	andvc	r1, r0, r0, lsl #24
    1524:	f72cf700 			; <UNDEFINED> instruction: 0xf72cf700
    1528:	0825f425 	stmdaeq	r5!, {r0, r2, r5, sl, ip, sp, lr, pc}
    152c:	cccccccd 	stclgt	12, cr12, [ip], {205}	; 0xcd
    1530:	00000000 	andeq	r0, r0, r0
    1534:	f720081e 			; <UNDEFINED> instruction: 0xf720081e
    1538:	2cf72525 	cfldr64cs	mvdx2, [r7], #148	; 0x94
    153c:	909f2533 	addsls	r2, pc, r3, lsr r5	; <UNPREDICTABLE>
    1540:	98000000 	stmdals	r0, {}	; <UNPREDICTABLE>
    1544:	1c000000 	stcne	0, cr0, [r0], {-0}
    1548:	f7007400 			; <UNDEFINED> instruction: 0xf7007400
    154c:	f425f72c 	vld1.8	{d15}, [r5 :128], ip
    1550:	cccd0825 	stclgt	8, cr0, [sp], {37}	; 0x25
    1554:	0000cccc 	andeq	ip, r0, ip, asr #25
    1558:	081e0000 	ldmdaeq	lr, {}	; <UNPREDICTABLE>
    155c:	2525f720 	strcs	pc, [r5, #-1824]!	; 0x720
    1560:	25332cf7 	ldrcs	r2, [r3, #-3319]!	; 0xcf7
    1564:	0000989f 	muleq	r0, pc, r8	; <UNPREDICTABLE>
    1568:	00009c00 	andeq	r9, r0, r0, lsl #24
    156c:	74001700 	strvc	r1, [r0], #-1792	; 0x700
    1570:	f72cf700 			; <UNDEFINED> instruction: 0xf72cf700
    1574:	f7007125 			; <UNDEFINED> instruction: 0xf7007125
    1578:	1e25f72c 	cdpne	7, 2, cr15, cr5, cr12, {1}
    157c:	25f72008 	ldrbcs	r2, [r7, #8]!
    1580:	332cf725 	msrcc	CPSR_fs, #9699328	; 0x940000
    1584:	009c9f25 	addseq	r9, ip, r5, lsr #30
    1588:	00d40000 	sbcseq	r0, r4, r0
    158c:	001c0000 	andseq	r0, ip, r0
    1590:	2cf70074 	ldclcs	0, cr0, [r7], #464	; 0x1d0
    1594:	25f425f7 	ldrbcs	r2, [r4, #1527]!	; 0x5f7
    1598:	cccccd08 	stclgt	13, cr12, [ip], {8}
    159c:	000000cc 	andeq	r0, r0, ip, asr #1
    15a0:	20081e00 	andcs	r1, r8, r0, lsl #28
    15a4:	f72525f7 			; <UNDEFINED> instruction: 0xf72525f7
    15a8:	9f25332c 	svcls	0x0025332c
	...
    15b4:	00000094 	muleq	r0, r4, r0
    15b8:	000000b8 	strheq	r0, [r0], -r8
    15bc:	b8500001 	ldmdalt	r0, {r0}^
    15c0:	c4000000 	strgt	r0, [r0], #-0
    15c4:	08000000 	stmdaeq	r0, {}	; <UNPREDICTABLE>
    15c8:	00713100 	rsbseq	r3, r1, r0, lsl #2
    15cc:	21007324 	tstcs	r0, r4, lsr #6
    15d0:	0000c49f 	muleq	r0, pc, r4	; <UNPREDICTABLE>
    15d4:	0000c700 	andeq	ip, r0, r0, lsl #14
    15d8:	51000100 	mrspl	r0, (UNDEF: 16)
	...
    15e4:	000000d4 	ldrdeq	r0, [r0], -r4
    15e8:	000000f8 	strdeq	r0, [r0], -r8
    15ec:	f8500001 			; <UNDEFINED> instruction: 0xf8500001
    15f0:	0c000000 	stceq	0, cr0, [r0], {-0}
    15f4:	04000001 	streq	r0, [r0], #-1
    15f8:	5001f300 	andpl	pc, r1, r0, lsl #6
    15fc:	0000009f 	muleq	r0, pc, r0	; <UNPREDICTABLE>
    1600:	00000000 	andeq	r0, r0, r0
    1604:	0000e000 	andeq	lr, r0, r0
    1608:	0000e800 	andeq	lr, r0, r0, lsl #16
    160c:	30000200 	andcc	r0, r0, r0, lsl #4
    1610:	0000e89f 	muleq	r0, pc, r8	; <UNPREDICTABLE>
    1614:	0000e800 	andeq	lr, r0, r0, lsl #16
    1618:	52000100 	andpl	r0, r0, #0, 2
    161c:	000000e8 	andeq	r0, r0, r8, ror #1
    1620:	000000f0 	strdeq	r0, [r0], -r0	; <UNPREDICTABLE>
    1624:	9f300002 	svcls	0x00300002
    1628:	000000f0 	strdeq	r0, [r0], -r0	; <UNPREDICTABLE>
    162c:	00000103 	andeq	r0, r0, r3, lsl #2
    1630:	00520001 	subseq	r0, r2, r1
    1634:	00000000 	andeq	r0, r0, r0
    1638:	e0000000 	and	r0, r0, r0
    163c:	f4000000 	vst4.8	{d0-d3}, [r0], r0
    1640:	02000000 	andeq	r0, r0, #0
    1644:	f49f3000 			; <UNDEFINED> instruction: 0xf49f3000
    1648:	00000000 	andeq	r0, r0, r0
    164c:	05000001 	streq	r0, [r0, #-1]
    1650:	00733100 	rsbseq	r3, r3, r0, lsl #2
    1654:	01009f24 	tsteq	r0, r4, lsr #30
    1658:	01030000 	mrseq	r0, (UNDEF: 3)
    165c:	00010000 	andeq	r0, r1, r0
    1660:	00010351 	andeq	r0, r1, r1, asr r3
    1664:	00010c00 	andeq	r0, r1, r0, lsl #24
    1668:	31000800 	tstcc	r0, r0, lsl #16
    166c:	4f5001f3 	svcmi	0x005001f3
    1670:	009f241a 	addseq	r2, pc, sl, lsl r4	; <UNPREDICTABLE>
    1674:	00000000 	andeq	r0, r0, r0
    1678:	0c000000 	stceq	0, cr0, [r0], {-0}
    167c:	30000001 	andcc	r0, r0, r1
    1680:	01000001 	tsteq	r0, r1
    1684:	01305000 	teqeq	r0, r0
    1688:	01440000 	mrseq	r0, (UNDEF: 68)
    168c:	00040000 	andeq	r0, r4, r0
    1690:	9f5001f3 	svcls	0x005001f3
	...
    169c:	00000118 	andeq	r0, r0, r8, lsl r1
    16a0:	00000120 	andeq	r0, r0, r0, lsr #2
    16a4:	9f300002 	svcls	0x00300002
    16a8:	00000120 	andeq	r0, r0, r0, lsr #2
    16ac:	00000120 	andeq	r0, r0, r0, lsr #2
    16b0:	20520001 	subscs	r0, r2, r1
    16b4:	28000001 	stmdacs	r0, {r0}
    16b8:	02000001 	andeq	r0, r0, #1
    16bc:	289f3000 	ldmcs	pc, {ip, sp}	; <UNPREDICTABLE>
    16c0:	3b000001 	blcc	16cc <_start-0x6934>
    16c4:	01000001 	tsteq	r0, r1
    16c8:	00005200 	andeq	r5, r0, r0, lsl #4
    16cc:	00000000 	andeq	r0, r0, r0
    16d0:	01180000 	tsteq	r8, r0
    16d4:	012c0000 	teqeq	ip, r0
    16d8:	00020000 	andeq	r0, r2, r0
    16dc:	012c9f30 	teqeq	ip, r0, lsr pc
    16e0:	01380000 	teqeq	r8, r0
    16e4:	00050000 	andeq	r0, r5, r0
    16e8:	24007331 	strcs	r7, [r0], #-817	; 0x331
    16ec:	0001389f 	muleq	r1, pc, r8	; <UNPREDICTABLE>
    16f0:	00013b00 	andeq	r3, r1, r0, lsl #22
    16f4:	51000100 	mrspl	r0, (UNDEF: 16)
    16f8:	0000013b 	andeq	r0, r0, fp, lsr r1
    16fc:	00000144 	andeq	r0, r0, r4, asr #2
    1700:	f3310008 	vhadd.u<illegal width 64>	d0, d1, d8
    1704:	1a4f5001 	bne	13d5710 <__bss_end__+0x13cba08>
    1708:	00009f24 	andeq	r9, r0, r4, lsr #30
    170c:	00000000 	andeq	r0, r0, r0
    1710:	01440000 	mrseq	r0, (UNDEF: 68)
    1714:	01d40000 	bicseq	r0, r4, r0
    1718:	00010000 	andeq	r0, r1, r0
    171c:	0001d450 	andeq	sp, r1, r0, asr r4
    1720:	00021000 	andeq	r1, r2, r0
    1724:	54000100 	strpl	r0, [r0], #-256	; 0x100
	...
    1730:	0000018c 	andeq	r0, r0, ip, lsl #3
    1734:	00000190 	muleq	r0, r0, r1
    1738:	98550001 	ldmdals	r5, {r0}^
    173c:	9c000001 	stcls	0, cr0, [r0], {1}
    1740:	01000001 	tsteq	r0, r1
    1744:	01a45500 			; <UNDEFINED> instruction: 0x01a45500
    1748:	01a80000 			; <UNDEFINED> instruction: 0x01a80000
    174c:	00010000 	andeq	r0, r1, r0
    1750:	0001b055 	andeq	fp, r1, r5, asr r0
    1754:	0001b400 	andeq	fp, r1, r0, lsl #8
    1758:	55000100 	strpl	r0, [r0, #-256]	; 0x100
    175c:	000001bc 			; <UNDEFINED> instruction: 0x000001bc
    1760:	000001c0 	andeq	r0, r0, r0, asr #3
    1764:	c8550001 	ldmdagt	r5, {r0}^
    1768:	cc000001 	stcgt	0, cr0, [r0], {1}
    176c:	01000001 	tsteq	r0, r1
    1770:	01d05500 	bicseq	r5, r0, r0, lsl #10
    1774:	02100000 	andseq	r0, r0, #0
    1778:	00010000 	andeq	r0, r1, r0
    177c:	00000055 	andeq	r0, r0, r5, asr r0
    1780:	00000000 	andeq	r0, r0, r0
    1784:	00016000 	andeq	r6, r1, r0
    1788:	00018800 	andeq	r8, r1, r0, lsl #16
    178c:	53000100 	movwpl	r0, #256	; 0x100
    1790:	00000188 	andeq	r0, r0, r8, lsl #3
    1794:	00000190 	muleq	r0, r0, r1
    1798:	0070001c 	rsbseq	r0, r0, ip, lsl r0
    179c:	25f72cf7 	ldrbcs	r2, [r7, #3319]!	; 0xcf7
    17a0:	cd0825f4 	cfstr32gt	mvfx2, [r8, #-976]	; 0xfffffc30
    17a4:	00cccccc 	sbceq	ip, ip, ip, asr #25
    17a8:	1e000000 	cdpne	0, 0, cr0, cr0, cr0, {0}
    17ac:	25f72008 	ldrbcs	r2, [r7, #8]!
    17b0:	332cf725 	msrcc	CPSR_fs, #9699328	; 0x940000
    17b4:	01909f25 	orrseq	r9, r0, r5, lsr #30
    17b8:	01940000 	orrseq	r0, r4, r0
    17bc:	00010000 	andeq	r0, r1, r0
    17c0:	00019453 	andeq	r9, r1, r3, asr r4
    17c4:	00019c00 	andeq	r9, r1, r0, lsl #24
    17c8:	70001c00 	andvc	r1, r0, r0, lsl #24
    17cc:	f72cf700 			; <UNDEFINED> instruction: 0xf72cf700
    17d0:	0825f425 	stmdaeq	r5!, {r0, r2, r5, sl, ip, sp, lr, pc}
    17d4:	cccccccd 	stclgt	12, cr12, [ip], {205}	; 0xcd
    17d8:	00000000 	andeq	r0, r0, r0
    17dc:	f720081e 			; <UNDEFINED> instruction: 0xf720081e
    17e0:	2cf72525 	cfldr64cs	mvdx2, [r7], #148	; 0x94
    17e4:	9c9f2533 	cfldr32ls	mvfx2, [pc], {51}	; 0x33
    17e8:	a0000001 	andge	r0, r0, r1
    17ec:	01000001 	tsteq	r0, r1
    17f0:	01a05300 	lsleq	r5, r0, #6
    17f4:	01a80000 			; <UNDEFINED> instruction: 0x01a80000
    17f8:	001c0000 	andseq	r0, ip, r0
    17fc:	2cf70070 	ldclcs	0, cr0, [r7], #448	; 0x1c0
    1800:	25f425f7 	ldrbcs	r2, [r4, #1527]!	; 0x5f7
    1804:	cccccd08 	stclgt	13, cr12, [ip], {8}
    1808:	000000cc 	andeq	r0, r0, ip, asr #1
    180c:	20081e00 	andcs	r1, r8, r0, lsl #28
    1810:	f72525f7 			; <UNDEFINED> instruction: 0xf72525f7
    1814:	9f25332c 	svcls	0x0025332c
    1818:	000001a8 	andeq	r0, r0, r8, lsr #3
    181c:	000001ac 	andeq	r0, r0, ip, lsr #3
    1820:	ac530001 	mrrcge	0, 0, r0, r3, cr1
    1824:	b4000001 	strlt	r0, [r0], #-1
    1828:	1c000001 	stcne	0, cr0, [r0], {1}
    182c:	f7007000 			; <UNDEFINED> instruction: 0xf7007000
    1830:	f425f72c 	vld1.8	{d15}, [r5 :128], ip
    1834:	cccd0825 	stclgt	8, cr0, [sp], {37}	; 0x25
    1838:	0000cccc 	andeq	ip, r0, ip, asr #25
    183c:	081e0000 	ldmdaeq	lr, {}	; <UNPREDICTABLE>
    1840:	2525f720 	strcs	pc, [r5, #-1824]!	; 0x720
    1844:	25332cf7 	ldrcs	r2, [r3, #-3319]!	; 0xcf7
    1848:	0001b49f 	muleq	r1, pc, r4	; <UNPREDICTABLE>
    184c:	0001b800 	andeq	fp, r1, r0, lsl #16
    1850:	53000100 	movwpl	r0, #256	; 0x100
    1854:	000001b8 			; <UNDEFINED> instruction: 0x000001b8
    1858:	000001c0 	andeq	r0, r0, r0, asr #3
    185c:	0070001c 	rsbseq	r0, r0, ip, lsl r0
    1860:	25f72cf7 	ldrbcs	r2, [r7, #3319]!	; 0xcf7
    1864:	cd0825f4 	cfstr32gt	mvfx2, [r8, #-976]	; 0xfffffc30
    1868:	00cccccc 	sbceq	ip, ip, ip, asr #25
    186c:	1e000000 	cdpne	0, 0, cr0, cr0, cr0, {0}
    1870:	25f72008 	ldrbcs	r2, [r7, #8]!
    1874:	332cf725 	msrcc	CPSR_fs, #9699328	; 0x940000
    1878:	01c09f25 	biceq	r9, r0, r5, lsr #30
    187c:	01c40000 	biceq	r0, r4, r0
    1880:	00010000 	andeq	r0, r1, r0
    1884:	0001c453 	andeq	ip, r1, r3, asr r4
    1888:	0001cc00 	andeq	ip, r1, r0, lsl #24
    188c:	70001c00 	andvc	r1, r0, r0, lsl #24
    1890:	f72cf700 			; <UNDEFINED> instruction: 0xf72cf700
    1894:	0825f425 	stmdaeq	r5!, {r0, r2, r5, sl, ip, sp, lr, pc}
    1898:	cccccccd 	stclgt	12, cr12, [ip], {205}	; 0xcd
    189c:	00000000 	andeq	r0, r0, r0
    18a0:	f720081e 			; <UNDEFINED> instruction: 0xf720081e
    18a4:	2cf72525 	cfldr64cs	mvdx2, [r7], #148	; 0x94
    18a8:	cc9f2533 	cfldr32gt	mvfx2, [pc], {51}	; 0x33
    18ac:	d0000001 	andle	r0, r0, r1
    18b0:	01000001 	tsteq	r0, r1
    18b4:	01d05300 	bicseq	r5, r0, r0, lsl #6
    18b8:	01d40000 	bicseq	r0, r4, r0
    18bc:	001c0000 	andseq	r0, ip, r0
    18c0:	2cf70070 	ldclcs	0, cr0, [r7], #448	; 0x1c0
    18c4:	25f425f7 	ldrbcs	r2, [r4, #1527]!	; 0x5f7
    18c8:	cccccd08 	stclgt	13, cr12, [ip], {8}
    18cc:	000000cc 	andeq	r0, r0, ip, asr #1
    18d0:	20081e00 	andcs	r1, r8, r0, lsl #28
    18d4:	f72525f7 			; <UNDEFINED> instruction: 0xf72525f7
    18d8:	9f25332c 	svcls	0x0025332c
    18dc:	000001d4 	ldrdeq	r0, [r0], -r4
    18e0:	000001dc 	ldrdeq	r0, [r0], -ip
    18e4:	0074001c 	rsbseq	r0, r4, ip, lsl r0
    18e8:	25f72cf7 	ldrbcs	r2, [r7, #3319]!	; 0xcf7
    18ec:	cd0825f4 	cfstr32gt	mvfx2, [r8, #-976]	; 0xfffffc30
    18f0:	00cccccc 	sbceq	ip, ip, ip, asr #25
    18f4:	1e000000 	cdpne	0, 0, cr0, cr0, cr0, {0}
    18f8:	25f72008 	ldrbcs	r2, [r7, #8]!
    18fc:	332cf725 	msrcc	CPSR_fs, #9699328	; 0x940000
    1900:	01dc9f25 	bicseq	r9, ip, r5, lsr #30
    1904:	01e00000 	mvneq	r0, r0
    1908:	00170000 	andseq	r0, r7, r0
    190c:	2cf70074 	ldclcs	0, cr0, [r7], #464	; 0x1d0
    1910:	007125f7 	ldrshteq	r2, [r1], #-87	; 0xffffffa9
    1914:	25f72cf7 	ldrbcs	r2, [r7, #3319]!	; 0xcf7
    1918:	f720081e 			; <UNDEFINED> instruction: 0xf720081e
    191c:	2cf72525 	cfldr64cs	mvdx2, [r7], #148	; 0x94
    1920:	e09f2533 	adds	r2, pc, r3, lsr r5	; <UNPREDICTABLE>
    1924:	10000001 	andne	r0, r0, r1
    1928:	1c000002 	stcne	0, cr0, [r0], {2}
    192c:	f7007400 			; <UNDEFINED> instruction: 0xf7007400
    1930:	f425f72c 	vld1.8	{d15}, [r5 :128], ip
    1934:	cccd0825 	stclgt	8, cr0, [sp], {37}	; 0x25
    1938:	0000cccc 	andeq	ip, r0, ip, asr #25
    193c:	081e0000 	ldmdaeq	lr, {}	; <UNPREDICTABLE>
    1940:	2525f720 	strcs	pc, [r5, #-1824]!	; 0x720
    1944:	25332cf7 	ldrcs	r2, [r3, #-3319]!	; 0xcf7
    1948:	0000009f 	muleq	r0, pc, r0	; <UNPREDICTABLE>
    194c:	00000000 	andeq	r0, r0, r0
    1950:	0001d800 	andeq	sp, r1, r0, lsl #16
    1954:	0001fc00 	andeq	pc, r1, r0, lsl #24
    1958:	50000100 	andpl	r0, r0, r0, lsl #2
    195c:	000001fc 	strdeq	r0, [r0], -ip
    1960:	00000203 	andeq	r0, r0, r3, lsl #4
    1964:	00510001 	subseq	r0, r1, r1
    1968:	00000000 	andeq	r0, r0, r0
    196c:	10000000 	andne	r0, r0, r0
    1970:	2c000002 	stccs	0, cr0, [r0], {2}
    1974:	01000002 	tsteq	r0, r2
    1978:	022c5000 	eoreq	r5, ip, #0
    197c:	02340000 	eorseq	r0, r4, #0
    1980:	00010000 	andeq	r0, r1, r0
    1984:	00023454 	andeq	r3, r2, r4, asr r4
    1988:	00023c00 	andeq	r3, r2, r0, lsl #24
    198c:	50000100 	andpl	r0, r0, r0, lsl #2
    1990:	0000023c 	andeq	r0, r0, ip, lsr r2
    1994:	00000244 	andeq	r0, r0, r4, asr #4
    1998:	44540001 	ldrbmi	r0, [r4], #-1
    199c:	50000002 	andpl	r0, r0, r2
    19a0:	04000002 	streq	r0, [r0], #-2
    19a4:	5001f300 	andpl	pc, r1, r0, lsl #6
    19a8:	0002509f 	muleq	r2, pc, r0	; <UNPREDICTABLE>
    19ac:	00025400 	andeq	r5, r2, r0, lsl #8
    19b0:	50000100 	andpl	r0, r0, r0, lsl #2
    19b4:	00000254 	andeq	r0, r0, r4, asr r2
    19b8:	0000025c 	andeq	r0, r0, ip, asr r2
    19bc:	00540001 	subseq	r0, r4, r1
    19c0:	00000000 	andeq	r0, r0, r0
    19c4:	20000000 	andcs	r0, r0, r0
    19c8:	30000002 	andcc	r0, r0, r2
    19cc:	02000002 	andeq	r0, r0, #2
    19d0:	309f3000 	addscc	r3, pc, r0
    19d4:	34000002 	strcc	r0, [r0], #-2
    19d8:	01000002 	tsteq	r0, r2
    19dc:	02345000 	eorseq	r5, r4, #0
    19e0:	02400000 	subeq	r0, r0, #0
    19e4:	00020000 	andeq	r0, r2, r0
    19e8:	02409f30 	subeq	r9, r0, #48, 30	; 0xc0
    19ec:	024c0000 	subeq	r0, ip, #0
    19f0:	00010000 	andeq	r0, r1, r0
    19f4:	00000050 	andeq	r0, r0, r0, asr r0
    19f8:	00000000 	andeq	r0, r0, r0
    19fc:	00025c00 	andeq	r5, r2, r0, lsl #24
    1a00:	00029000 	andeq	r9, r2, r0
    1a04:	50000100 	andpl	r0, r0, r0, lsl #2
    1a08:	00000290 	muleq	r0, r0, r2
    1a0c:	000002a0 	andeq	r0, r0, r0, lsr #5
    1a10:	01f30004 	mvnseq	r0, r4
    1a14:	02a09f50 	adceq	r9, r0, #80, 30	; 0x140
    1a18:	02c00000 	sbceq	r0, r0, #0
    1a1c:	00010000 	andeq	r0, r1, r0
    1a20:	0002c050 	andeq	ip, r2, r0, asr r0
    1a24:	0002d400 	andeq	sp, r2, r0, lsl #8
    1a28:	f3000400 	vshl.u8	d0, d0, d0
    1a2c:	009f5001 	addseq	r5, pc, r1
    1a30:	00000000 	andeq	r0, r0, r0
    1a34:	5c000000 	stcpl	0, cr0, [r0], {-0}
    1a38:	94000002 	strls	r0, [r0], #-2
    1a3c:	01000002 	tsteq	r0, r2
    1a40:	02945100 	addseq	r5, r4, #0, 2
    1a44:	02a00000 	adceq	r0, r0, #0
    1a48:	00040000 	andeq	r0, r4, r0
    1a4c:	9f5101f3 	svcls	0x005101f3
    1a50:	000002a0 	andeq	r0, r0, r0, lsr #5
    1a54:	000002c4 	andeq	r0, r0, r4, asr #5
    1a58:	c4510001 	ldrbgt	r0, [r1], #-1
    1a5c:	d4000002 	strle	r0, [r0], #-2
    1a60:	04000002 	streq	r0, [r0], #-2
    1a64:	5101f300 	mrspl	pc, SP_irq	; <UNPREDICTABLE>
    1a68:	0000009f 	muleq	r0, pc, r0	; <UNPREDICTABLE>
    1a6c:	00000000 	andeq	r0, r0, r0
    1a70:	00027000 	andeq	r7, r2, r0
    1a74:	00029000 	andeq	r9, r2, r0
    1a78:	50000100 	andpl	r0, r0, r0, lsl #2
    1a7c:	00000290 	muleq	r0, r0, r2
    1a80:	000002a0 	andeq	r0, r0, r0, lsr #5
    1a84:	01f30004 	mvnseq	r0, r4
    1a88:	00009f50 	andeq	r9, r0, r0, asr pc
    1a8c:	00000000 	andeq	r0, r0, r0
    1a90:	02780000 	rsbseq	r0, r8, #0
    1a94:	02800000 	addeq	r0, r0, #0
    1a98:	00020000 	andeq	r0, r2, r0
    1a9c:	02809f30 	addeq	r9, r0, #48, 30	; 0xc0
    1aa0:	02800000 	addeq	r0, r0, #0
    1aa4:	00010000 	andeq	r0, r1, r0
    1aa8:	00028052 	andeq	r8, r2, r2, asr r0
    1aac:	00028800 	andeq	r8, r2, r0, lsl #16
    1ab0:	30000200 	andcc	r0, r0, r0, lsl #4
    1ab4:	0002889f 	muleq	r2, pc, r8	; <UNPREDICTABLE>
    1ab8:	00029b00 	andeq	r9, r2, r0, lsl #22
    1abc:	52000100 	andpl	r0, r0, #0, 2
	...
    1ac8:	00000278 	andeq	r0, r0, r8, ror r2
    1acc:	0000028c 	andeq	r0, r0, ip, lsl #5
    1ad0:	9f300002 	svcls	0x00300002
    1ad4:	0000028c 	andeq	r0, r0, ip, lsl #5
    1ad8:	00000298 	muleq	r0, r8, r2
    1adc:	73310005 	teqvc	r1, #5
    1ae0:	989f2400 	ldmls	pc, {sl, sp}	; <UNPREDICTABLE>
    1ae4:	9b000002 	blls	1af4 <_start-0x650c>
    1ae8:	01000002 	tsteq	r0, r2
    1aec:	029b5100 	addseq	r5, fp, #0, 2
    1af0:	02a00000 	adceq	r0, r0, #0
    1af4:	00080000 	andeq	r0, r8, r0
    1af8:	5001f331 	andpl	pc, r1, r1, lsr r3	; <UNPREDICTABLE>
    1afc:	9f241a4f 	svcls	0x00241a4f
	...
    1b08:	000002a0 	andeq	r0, r0, r0, lsr #5
    1b0c:	000002c0 	andeq	r0, r0, r0, asr #5
    1b10:	c0500001 	subsgt	r0, r0, r1
    1b14:	d4000002 	strle	r0, [r0], #-2
    1b18:	04000002 	streq	r0, [r0], #-2
    1b1c:	5001f300 	andpl	pc, r1, r0, lsl #6
    1b20:	0000009f 	muleq	r0, pc, r0	; <UNPREDICTABLE>
    1b24:	00000000 	andeq	r0, r0, r0
    1b28:	0002a800 	andeq	sl, r2, r0, lsl #16
    1b2c:	0002b000 	andeq	fp, r2, r0
    1b30:	30000200 	andcc	r0, r0, r0, lsl #4
    1b34:	0002b09f 	muleq	r2, pc, r0	; <UNPREDICTABLE>
    1b38:	0002b000 	andeq	fp, r2, r0
    1b3c:	52000100 	andpl	r0, r0, #0, 2
    1b40:	000002b0 			; <UNDEFINED> instruction: 0x000002b0
    1b44:	000002b8 			; <UNDEFINED> instruction: 0x000002b8
    1b48:	9f300002 	svcls	0x00300002
    1b4c:	000002b8 			; <UNDEFINED> instruction: 0x000002b8
    1b50:	000002cb 	andeq	r0, r0, fp, asr #5
    1b54:	00520001 	subseq	r0, r2, r1
    1b58:	00000000 	andeq	r0, r0, r0
    1b5c:	a8000000 	stmdage	r0, {}	; <UNPREDICTABLE>
    1b60:	bc000002 	stclt	0, cr0, [r0], {2}
    1b64:	02000002 	andeq	r0, r0, #2
    1b68:	bc9f3000 	ldclt	0, cr3, [pc], {0}
    1b6c:	c8000002 	stmdagt	r0, {r1}
    1b70:	05000002 	streq	r0, [r0, #-2]
    1b74:	00733100 	rsbseq	r3, r3, r0, lsl #2
    1b78:	02c89f24 	sbceq	r9, r8, #36, 30	; 0x90
    1b7c:	02cb0000 	sbceq	r0, fp, #0
    1b80:	00010000 	andeq	r0, r1, r0
    1b84:	0002cb51 	andeq	ip, r2, r1, asr fp
    1b88:	0002d400 	andeq	sp, r2, r0, lsl #8
    1b8c:	31000800 	tstcc	r0, r0, lsl #16
    1b90:	4f5001f3 	svcmi	0x005001f3
    1b94:	009f241a 	addseq	r2, pc, sl, lsl r4	; <UNPREDICTABLE>
    1b98:	00000000 	andeq	r0, r0, r0
    1b9c:	d4000000 	strle	r0, [r0], #-0
    1ba0:	6c000002 	stcvs	0, cr0, [r0], {2}
    1ba4:	01000003 	tsteq	r0, r3
    1ba8:	036c5000 	cmneq	ip, #0
    1bac:	03ac0000 			; <UNDEFINED> instruction: 0x03ac0000
    1bb0:	00010000 	andeq	r0, r1, r0
    1bb4:	00000054 	andeq	r0, r0, r4, asr r0
    1bb8:	00000000 	andeq	r0, r0, r0
    1bbc:	0002d400 	andeq	sp, r2, r0, lsl #8
    1bc0:	00036f00 	andeq	r6, r3, r0, lsl #30
    1bc4:	51000100 	mrspl	r0, (UNDEF: 16)
    1bc8:	0000036f 	andeq	r0, r0, pc, ror #6
    1bcc:	000003ac 	andeq	r0, r0, ip, lsr #7
    1bd0:	01f30004 	mvnseq	r0, r4
    1bd4:	00009f51 	andeq	r9, r0, r1, asr pc
    1bd8:	00000000 	andeq	r0, r0, r0
    1bdc:	03240000 	teqeq	r4, #0
    1be0:	03280000 	teqeq	r8, #0
    1be4:	00010000 	andeq	r0, r1, r0
    1be8:	00033056 	andeq	r3, r3, r6, asr r0
    1bec:	00033400 	andeq	r3, r3, r0, lsl #8
    1bf0:	56000100 	strpl	r0, [r0], -r0, lsl #2
    1bf4:	0000033c 	andeq	r0, r0, ip, lsr r3
    1bf8:	00000340 	andeq	r0, r0, r0, asr #6
    1bfc:	48560001 	ldmdami	r6, {r0}^
    1c00:	4c000003 	stcmi	0, cr0, [r0], {3}
    1c04:	01000003 	tsteq	r0, r3
    1c08:	03545600 	cmpeq	r4, #0, 12
    1c0c:	03580000 	cmpeq	r8, #0
    1c10:	00010000 	andeq	r0, r1, r0
    1c14:	00036056 	andeq	r6, r3, r6, asr r0
    1c18:	00036400 	andeq	r6, r3, r0, lsl #8
    1c1c:	56000100 	strpl	r0, [r0], -r0, lsl #2
    1c20:	00000368 	andeq	r0, r0, r8, ror #6
    1c24:	000003ac 	andeq	r0, r0, ip, lsr #7
    1c28:	00560001 	subseq	r0, r6, r1
    1c2c:	00000000 	andeq	r0, r0, r0
    1c30:	f8000000 			; <UNDEFINED> instruction: 0xf8000000
    1c34:	20000002 	andcs	r0, r0, r2
    1c38:	01000003 	tsteq	r0, r3
    1c3c:	03205300 	teqeq	r0, #0, 6
    1c40:	03280000 	teqeq	r8, #0
    1c44:	001c0000 	andseq	r0, ip, r0
    1c48:	2cf70070 	ldclcs	0, cr0, [r7], #448	; 0x1c0
    1c4c:	25f425f7 	ldrbcs	r2, [r4, #1527]!	; 0x5f7
    1c50:	cccccd08 	stclgt	13, cr12, [ip], {8}
    1c54:	000000cc 	andeq	r0, r0, ip, asr #1
    1c58:	20081e00 	andcs	r1, r8, r0, lsl #28
    1c5c:	f72525f7 			; <UNDEFINED> instruction: 0xf72525f7
    1c60:	9f25332c 	svcls	0x0025332c
    1c64:	00000328 	andeq	r0, r0, r8, lsr #6
    1c68:	0000032c 	andeq	r0, r0, ip, lsr #6
    1c6c:	2c530001 	mrrccs	0, 0, r0, r3, cr1
    1c70:	34000003 	strcc	r0, [r0], #-3
    1c74:	1c000003 	stcne	0, cr0, [r0], {3}
    1c78:	f7007000 			; <UNDEFINED> instruction: 0xf7007000
    1c7c:	f425f72c 	vld1.8	{d15}, [r5 :128], ip
    1c80:	cccd0825 	stclgt	8, cr0, [sp], {37}	; 0x25
    1c84:	0000cccc 	andeq	ip, r0, ip, asr #25
    1c88:	081e0000 	ldmdaeq	lr, {}	; <UNPREDICTABLE>
    1c8c:	2525f720 	strcs	pc, [r5, #-1824]!	; 0x720
    1c90:	25332cf7 	ldrcs	r2, [r3, #-3319]!	; 0xcf7
    1c94:	0003349f 	muleq	r3, pc, r4	; <UNPREDICTABLE>
    1c98:	00033800 	andeq	r3, r3, r0, lsl #16
    1c9c:	53000100 	movwpl	r0, #256	; 0x100
    1ca0:	00000338 	andeq	r0, r0, r8, lsr r3
    1ca4:	00000340 	andeq	r0, r0, r0, asr #6
    1ca8:	0070001c 	rsbseq	r0, r0, ip, lsl r0
    1cac:	25f72cf7 	ldrbcs	r2, [r7, #3319]!	; 0xcf7
    1cb0:	cd0825f4 	cfstr32gt	mvfx2, [r8, #-976]	; 0xfffffc30
    1cb4:	00cccccc 	sbceq	ip, ip, ip, asr #25
    1cb8:	1e000000 	cdpne	0, 0, cr0, cr0, cr0, {0}
    1cbc:	25f72008 	ldrbcs	r2, [r7, #8]!
    1cc0:	332cf725 	msrcc	CPSR_fs, #9699328	; 0x940000
    1cc4:	03409f25 	movteq	r9, #3877	; 0xf25
    1cc8:	03440000 	movteq	r0, #16384	; 0x4000
    1ccc:	00010000 	andeq	r0, r1, r0
    1cd0:	00034453 	andeq	r4, r3, r3, asr r4
    1cd4:	00034c00 	andeq	r4, r3, r0, lsl #24
    1cd8:	70001c00 	andvc	r1, r0, r0, lsl #24
    1cdc:	f72cf700 			; <UNDEFINED> instruction: 0xf72cf700
    1ce0:	0825f425 	stmdaeq	r5!, {r0, r2, r5, sl, ip, sp, lr, pc}
    1ce4:	cccccccd 	stclgt	12, cr12, [ip], {205}	; 0xcd
    1ce8:	00000000 	andeq	r0, r0, r0
    1cec:	f720081e 			; <UNDEFINED> instruction: 0xf720081e
    1cf0:	2cf72525 	cfldr64cs	mvdx2, [r7], #148	; 0x94
    1cf4:	4c9f2533 	cfldr32mi	mvfx2, [pc], {51}	; 0x33
    1cf8:	50000003 	andpl	r0, r0, r3
    1cfc:	01000003 	tsteq	r0, r3
    1d00:	03505300 	cmpeq	r0, #0, 6
    1d04:	03580000 	cmpeq	r8, #0
    1d08:	001c0000 	andseq	r0, ip, r0
    1d0c:	2cf70070 	ldclcs	0, cr0, [r7], #448	; 0x1c0
    1d10:	25f425f7 	ldrbcs	r2, [r4, #1527]!	; 0x5f7
    1d14:	cccccd08 	stclgt	13, cr12, [ip], {8}
    1d18:	000000cc 	andeq	r0, r0, ip, asr #1
    1d1c:	20081e00 	andcs	r1, r8, r0, lsl #28
    1d20:	f72525f7 			; <UNDEFINED> instruction: 0xf72525f7
    1d24:	9f25332c 	svcls	0x0025332c
    1d28:	00000358 	andeq	r0, r0, r8, asr r3
    1d2c:	0000035c 	andeq	r0, r0, ip, asr r3
    1d30:	5c530001 	mrrcpl	0, 0, r0, r3, cr1
    1d34:	64000003 	strvs	r0, [r0], #-3
    1d38:	1c000003 	stcne	0, cr0, [r0], {3}
    1d3c:	f7007000 			; <UNDEFINED> instruction: 0xf7007000
    1d40:	f425f72c 	vld1.8	{d15}, [r5 :128], ip
    1d44:	cccd0825 	stclgt	8, cr0, [sp], {37}	; 0x25
    1d48:	0000cccc 	andeq	ip, r0, ip, asr #25
    1d4c:	081e0000 	ldmdaeq	lr, {}	; <UNPREDICTABLE>
    1d50:	2525f720 	strcs	pc, [r5, #-1824]!	; 0x720
    1d54:	25332cf7 	ldrcs	r2, [r3, #-3319]!	; 0xcf7
    1d58:	0003649f 	muleq	r3, pc, r4	; <UNPREDICTABLE>
    1d5c:	00036800 	andeq	r6, r3, r0, lsl #16
    1d60:	53000100 	movwpl	r0, #256	; 0x100
    1d64:	00000368 	andeq	r0, r0, r8, ror #6
    1d68:	0000036c 	andeq	r0, r0, ip, ror #6
    1d6c:	0070001c 	rsbseq	r0, r0, ip, lsl r0
    1d70:	25f72cf7 	ldrbcs	r2, [r7, #3319]!	; 0xcf7
    1d74:	cd0825f4 	cfstr32gt	mvfx2, [r8, #-976]	; 0xfffffc30
    1d78:	00cccccc 	sbceq	ip, ip, ip, asr #25
    1d7c:	1e000000 	cdpne	0, 0, cr0, cr0, cr0, {0}
    1d80:	25f72008 	ldrbcs	r2, [r7, #8]!
    1d84:	332cf725 	msrcc	CPSR_fs, #9699328	; 0x940000
    1d88:	036c9f25 	cmneq	ip, #37, 30	; 0x94
    1d8c:	03740000 	cmneq	r4, #0
    1d90:	001c0000 	andseq	r0, ip, r0
    1d94:	2cf70074 	ldclcs	0, cr0, [r7], #464	; 0x1d0
    1d98:	25f425f7 	ldrbcs	r2, [r4, #1527]!	; 0x5f7
    1d9c:	cccccd08 	stclgt	13, cr12, [ip], {8}
    1da0:	000000cc 	andeq	r0, r0, ip, asr #1
    1da4:	20081e00 	andcs	r1, r8, r0, lsl #28
    1da8:	f72525f7 			; <UNDEFINED> instruction: 0xf72525f7
    1dac:	9f25332c 	svcls	0x0025332c
    1db0:	00000374 	andeq	r0, r0, r4, ror r3
    1db4:	00000378 	andeq	r0, r0, r8, ror r3
    1db8:	00740017 	rsbseq	r0, r4, r7, lsl r0
    1dbc:	25f72cf7 	ldrbcs	r2, [r7, #3319]!	; 0xcf7
    1dc0:	2cf70073 	ldclcs	0, cr0, [r7], #460	; 0x1cc
    1dc4:	081e25f7 	ldmdaeq	lr, {r0, r1, r2, r4, r5, r6, r7, r8, sl, sp}
    1dc8:	2525f720 	strcs	pc, [r5, #-1824]!	; 0x720
    1dcc:	25332cf7 	ldrcs	r2, [r3, #-3319]!	; 0xcf7
    1dd0:	0003789f 	muleq	r3, pc, r8	; <UNPREDICTABLE>
    1dd4:	0003ac00 	andeq	sl, r3, r0, lsl #24
    1dd8:	74001c00 	strvc	r1, [r0], #-3072	; 0xc00
    1ddc:	f72cf700 			; <UNDEFINED> instruction: 0xf72cf700
    1de0:	0825f425 	stmdaeq	r5!, {r0, r2, r5, sl, ip, sp, lr, pc}
    1de4:	cccccccd 	stclgt	12, cr12, [ip], {205}	; 0xcd
    1de8:	00000000 	andeq	r0, r0, r0
    1dec:	f720081e 			; <UNDEFINED> instruction: 0xf720081e
    1df0:	2cf72525 	cfldr64cs	mvdx2, [r7], #148	; 0x94
    1df4:	009f2533 	addseq	r2, pc, r3, lsr r5	; <UNPREDICTABLE>
    1df8:	00000000 	andeq	r0, r0, r0
    1dfc:	70000000 	andvc	r0, r0, r0
    1e00:	94000003 	strls	r0, [r0], #-3
    1e04:	01000003 	tsteq	r0, r3
    1e08:	03945000 	orrseq	r5, r4, #0
    1e0c:	039c0000 	orrseq	r0, ip, #0
    1e10:	00090000 	andeq	r0, r9, r0
    1e14:	00730075 	rsbseq	r0, r3, r5, ror r0
    1e18:	21007124 	tstcs	r0, r4, lsr #2
    1e1c:	00039c9f 	muleq	r3, pc, ip	; <UNPREDICTABLE>
    1e20:	00039f00 	andeq	r9, r3, r0, lsl #30
    1e24:	51000100 	mrspl	r0, (UNDEF: 16)
	...
    1e30:	000003ac 	andeq	r0, r0, ip, lsr #7
    1e34:	000003b8 			; <UNDEFINED> instruction: 0x000003b8
    1e38:	b8500001 	ldmdalt	r0, {r0}^
    1e3c:	d8000003 	stmdale	r0, {r0, r1}
    1e40:	04000003 	streq	r0, [r0], #-3
    1e44:	5001f300 	andpl	pc, r1, r0, lsl #6
    1e48:	0000009f 	muleq	r0, pc, r0	; <UNPREDICTABLE>
    1e4c:	00000000 	andeq	r0, r0, r0
    1e50:	0003d800 	andeq	sp, r3, r0, lsl #16
    1e54:	0003eb00 	andeq	lr, r3, r0, lsl #22
    1e58:	50000100 	andpl	r0, r0, r0, lsl #2
    1e5c:	000003eb 	andeq	r0, r0, fp, ror #7
    1e60:	00000424 	andeq	r0, r0, r4, lsr #8
    1e64:	24540001 	ldrbcs	r0, [r4], #-1
    1e68:	5c000004 	stcpl	0, cr0, [r0], {4}
    1e6c:	04000004 	streq	r0, [r0], #-4
    1e70:	5001f300 	andpl	pc, r1, r0, lsl #6
    1e74:	0000009f 	muleq	r0, pc, r0	; <UNPREDICTABLE>
    1e78:	00000000 	andeq	r0, r0, r0
    1e7c:	00044400 	andeq	r4, r4, r0, lsl #8
    1e80:	00044800 	andeq	r4, r4, r0, lsl #16
    1e84:	50000100 	andpl	r0, r0, r0, lsl #2
    1e88:	00000448 	andeq	r0, r0, r8, asr #8
    1e8c:	0000044f 	andeq	r0, r0, pc, asr #8
    1e90:	00510001 	subseq	r0, r1, r1
	...
    1e9c:	08000004 	stmdaeq	r0, {r2}
    1ea0:	01000004 	tsteq	r0, r4
    1ea4:	04085000 	streq	r5, [r8], #-0
    1ea8:	040f0000 	streq	r0, [pc], #-0	; 1eb0 <_start-0x6150>
    1eac:	00010000 	andeq	r0, r1, r0
    1eb0:	00000051 	andeq	r0, r0, r1, asr r0
    1eb4:	00000000 	andeq	r0, r0, r0
    1eb8:	00042000 	andeq	r2, r4, r0
    1ebc:	00042c00 	andeq	r2, r4, r0, lsl #24
    1ec0:	50000100 	andpl	r0, r0, r0, lsl #2
    1ec4:	0000042c 	andeq	r0, r0, ip, lsr #8
    1ec8:	00000433 	andeq	r0, r0, r3, lsr r4
    1ecc:	00510001 	subseq	r0, r1, r1
    1ed0:	00000000 	andeq	r0, r0, r0
    1ed4:	5c000000 	stcpl	0, cr0, [r0], {-0}
    1ed8:	6f000004 	svcvs	0x00000004
    1edc:	01000004 	tsteq	r0, r4
    1ee0:	046f5000 	strbteq	r5, [pc], #-0	; 1ee8 <_start-0x6118>
    1ee4:	04a80000 	strteq	r0, [r8], #0
    1ee8:	00010000 	andeq	r0, r1, r0
    1eec:	0004a854 	andeq	sl, r4, r4, asr r8
    1ef0:	0004e000 	andeq	lr, r4, r0
    1ef4:	f3000400 	vshl.u8	d0, d0, d0
    1ef8:	009f5001 	addseq	r5, pc, r1
    1efc:	00000000 	andeq	r0, r0, r0
    1f00:	c8000000 	stmdagt	r0, {}	; <UNPREDICTABLE>
    1f04:	cc000004 	stcgt	0, cr0, [r0], {4}
    1f08:	01000004 	tsteq	r0, r4
    1f0c:	04cc5000 	strbeq	r5, [ip], #0
    1f10:	04d30000 	ldrbeq	r0, [r3], #0
    1f14:	00010000 	andeq	r0, r1, r0
    1f18:	00000051 	andeq	r0, r0, r1, asr r0
    1f1c:	00000000 	andeq	r0, r0, r0
    1f20:	00048400 	andeq	r8, r4, r0, lsl #8
    1f24:	00048c00 	andeq	r8, r4, r0, lsl #24
    1f28:	50000100 	andpl	r0, r0, r0, lsl #2
    1f2c:	0000048c 	andeq	r0, r0, ip, lsl #9
    1f30:	00000493 	muleq	r0, r3, r4
    1f34:	00510001 	subseq	r0, r1, r1
    1f38:	00000000 	andeq	r0, r0, r0
    1f3c:	a4000000 	strge	r0, [r0], #-0
    1f40:	b0000004 	andlt	r0, r0, r4
    1f44:	01000004 	tsteq	r0, r4
    1f48:	04b05000 	ldrteq	r5, [r0], #0
    1f4c:	04b70000 	ldrteq	r0, [r7], #0
    1f50:	00010000 	andeq	r0, r1, r0
    1f54:	00000051 	andeq	r0, r0, r1, asr r0
    1f58:	00000000 	andeq	r0, r0, r0
    1f5c:	0004e000 	andeq	lr, r4, r0
    1f60:	0004f300 	andeq	pc, r4, r0, lsl #6
    1f64:	50000100 	andpl	r0, r0, r0, lsl #2
    1f68:	000004f3 	strdeq	r0, [r0], -r3
    1f6c:	00000534 	andeq	r0, r0, r4, lsr r5
    1f70:	34540001 	ldrbcc	r0, [r4], #-1
    1f74:	58000005 	stmdapl	r0, {r0, r2}
    1f78:	04000005 	streq	r0, [r0], #-5
    1f7c:	5001f300 	andpl	pc, r1, r0, lsl #6
    1f80:	0005589f 	muleq	r5, pc, r8	; <UNPREDICTABLE>
    1f84:	00055c00 	andeq	r5, r5, r0, lsl #24
    1f88:	50000100 	andpl	r0, r0, r0, lsl #2
    1f8c:	0000055c 	andeq	r0, r0, ip, asr r5
    1f90:	00000564 	andeq	r0, r0, r4, ror #10
    1f94:	00540001 	subseq	r0, r4, r1
    1f98:	00000000 	andeq	r0, r0, r0
    1f9c:	08000000 	stmdaeq	r0, {}	; <UNPREDICTABLE>
    1fa0:	17000005 	strne	r0, [r0, -r5]
    1fa4:	08000005 	stmdaeq	r0, {r0, r2}
    1fa8:	00743100 	rsbseq	r3, r4, r0, lsl #2
    1fac:	1a007024 	bne	1e044 <__bss_end__+0x1433c>
    1fb0:	0000009f 	muleq	r0, pc, r0	; <UNPREDICTABLE>
    1fb4:	00000000 	andeq	r0, r0, r0
    1fb8:	00053400 	andeq	r3, r5, r0, lsl #8
    1fbc:	00054c00 	andeq	r4, r5, r0, lsl #24
    1fc0:	54000100 	strpl	r0, [r0], #-256	; 0x100
	...
    1fcc:	00000564 	andeq	r0, r0, r4, ror #10
    1fd0:	00000577 	andeq	r0, r0, r7, ror r5
    1fd4:	77500001 	ldrbvc	r0, [r0, -r1]
    1fd8:	9c000005 	stcls	0, cr0, [r0], {5}
    1fdc:	01000005 	tsteq	r0, r5
    1fe0:	059c5400 	ldreq	r5, [ip, #1024]	; 0x400
    1fe4:	05bc0000 	ldreq	r0, [ip, #0]!
    1fe8:	00040000 	andeq	r0, r4, r0
    1fec:	9f5001f3 	svcls	0x005001f3
	...
    1ffc:	0000000b 	andeq	r0, r0, fp
    2000:	0b500001 	bleq	140200c <__bss_end__+0x13f8304>
    2004:	14000000 	strne	r0, [r0], #-0
    2008:	01000000 	mrseq	r0, (UNDEF: 0)
    200c:	00005400 	andeq	r5, r0, r0, lsl #8
	...
    2018:	00040000 	andeq	r0, r4, r0
    201c:	00010000 	andeq	r0, r1, r0
    2020:	00000452 	andeq	r0, r0, r2, asr r4
    2024:	00002000 	andeq	r2, r0, r0
    2028:	f3000400 	vshl.u8	d0, d0, d0
    202c:	009f5201 	addseq	r5, pc, r1, lsl #4
	...
    2038:	0c000000 	stceq	0, cr0, [r0], {-0}
    203c:	01000000 	mrseq	r0, (UNDEF: 0)
    2040:	000c5000 	andeq	r5, ip, r0
    2044:	00140000 	andseq	r0, r4, r0
    2048:	00030000 	andeq	r0, r3, r0
    204c:	149f0173 	ldrne	r0, [pc], #371	; 2054 <_start-0x5fac>
    2050:	20000000 	andcs	r0, r0, r0
    2054:	01000000 	mrseq	r0, (UNDEF: 0)
    2058:	00005300 	andeq	r5, r0, r0, lsl #6
    205c:	00000000 	andeq	r0, r0, r0
	...

Disassembly of section .debug_ranges:

00000000 <.debug_ranges>:
   0:	00000294 	muleq	r0, r4, r2
   4:	00000298 	muleq	r0, r8, r2
   8:	000002c8 	andeq	r0, r0, r8, asr #5
   c:	000004b8 			; <UNDEFINED> instruction: 0x000004b8
	...
  18:	00008684 	andeq	r8, r0, r4, lsl #13
  1c:	000086f8 	strdeq	r8, [r0], -r8	; <UNPREDICTABLE>
	...
