
1-gpio-int-ex.elf:     file format elf32-littlearm


Disassembly of section .text:

00008000 <_start>:
    8000:	e3a0d302 	mov	sp, #134217728	; 0x8000000
    8004:	e3a0b000 	mov	fp, #0
    8008:	eb00024f 	bl	894c <_cstart>
    800c:	eb00027d 	bl	8a08 <rpi_reboot>

00008010 <cq_init>:
    8010:	e92d4038 	push	{r3, r4, r5, lr}
    8014:	e1a04000 	mov	r4, r0
    8018:	e1a05001 	mov	r5, r1
    801c:	e3a01000 	mov	r1, #0
    8020:	e59f216c 	ldr	r2, [pc, #364]	; 8194 <cq_init+0x184>
    8024:	eb0000b6 	bl	8304 <memset>
    8028:	e59f2168 	ldr	r2, [pc, #360]	; 8198 <cq_init+0x188>
    802c:	e3a03a02 	mov	r3, #8192	; 0x2000
    8030:	e7842003 	str	r2, [r4, r3]
    8034:	e59f2160 	ldr	r2, [pc, #352]	; 819c <cq_init+0x18c>
    8038:	e3a03000 	mov	r3, #0
    803c:	e7843002 	str	r3, [r4, r2]
    8040:	e59f0158 	ldr	r0, [pc, #344]	; 81a0 <cq_init+0x190>
    8044:	e7843000 	str	r3, [r4, r0]
    8048:	e59f1154 	ldr	r1, [pc, #340]	; 81a4 <cq_init+0x194>
    804c:	e7843001 	str	r3, [r4, r1]
    8050:	e59f3150 	ldr	r3, [pc, #336]	; 81a8 <cq_init+0x198>
    8054:	e7d41003 	ldrb	r1, [r4, r3]
    8058:	e2055001 	and	r5, r5, #1
    805c:	e3c11001 	bic	r1, r1, #1
    8060:	e1855001 	orr	r5, r5, r1
    8064:	e7c45003 	strb	r5, [r4, r3]
    8068:	e7941000 	ldr	r1, [r4, r0]
    806c:	e7943002 	ldr	r3, [r4, r2]
    8070:	e1510003 	cmp	r1, r3
    8074:	0a000006 	beq	8094 <cq_init+0x84>
    8078:	eb0000c4 	bl	8390 <rpi_reset_putc>
    807c:	e59f0128 	ldr	r0, [pc, #296]	; 81ac <cq_init+0x19c>
    8080:	e59f1128 	ldr	r1, [pc, #296]	; 81b0 <cq_init+0x1a0>
    8084:	e59f2128 	ldr	r2, [pc, #296]	; 81b4 <cq_init+0x1a4>
    8088:	e3a0309f 	mov	r3, #159	; 0x9f
    808c:	eb0000a4 	bl	8324 <printk>
    8090:	eb00021b 	bl	8904 <clean_reboot>
    8094:	e59f3104 	ldr	r3, [pc, #260]	; 81a0 <cq_init+0x190>
    8098:	e7942003 	ldr	r2, [r4, r3]
    809c:	e2822001 	add	r2, r2, #1
    80a0:	e1a02982 	lsl	r2, r2, #19
    80a4:	e2833004 	add	r3, r3, #4
    80a8:	e7943003 	ldr	r3, [r4, r3]
    80ac:	e15309a2 	cmp	r3, r2, lsr #19
    80b0:	1a000006 	bne	80d0 <cq_init+0xc0>
    80b4:	eb0000b5 	bl	8390 <rpi_reset_putc>
    80b8:	e59f00f8 	ldr	r0, [pc, #248]	; 81b8 <cq_init+0x1a8>
    80bc:	e59f10ec 	ldr	r1, [pc, #236]	; 81b0 <cq_init+0x1a0>
    80c0:	e59f20ec 	ldr	r2, [pc, #236]	; 81b4 <cq_init+0x1a4>
    80c4:	e3a030a0 	mov	r3, #160	; 0xa0
    80c8:	eb000095 	bl	8324 <printk>
    80cc:	eb00020c 	bl	8904 <clean_reboot>
    80d0:	e59f30c8 	ldr	r3, [pc, #200]	; 81a0 <cq_init+0x190>
    80d4:	e7942003 	ldr	r2, [r4, r3]
    80d8:	e2833004 	add	r3, r3, #4
    80dc:	e7943003 	ldr	r3, [r4, r3]
    80e0:	e0633002 	rsb	r3, r3, r2
    80e4:	e1b03983 	lsls	r3, r3, #19
    80e8:	0a000006 	beq	8108 <cq_init+0xf8>
    80ec:	eb0000a7 	bl	8390 <rpi_reset_putc>
    80f0:	e59f00c4 	ldr	r0, [pc, #196]	; 81bc <cq_init+0x1ac>
    80f4:	e59f10b4 	ldr	r1, [pc, #180]	; 81b0 <cq_init+0x1a0>
    80f8:	e59f20b4 	ldr	r2, [pc, #180]	; 81b4 <cq_init+0x1a4>
    80fc:	e3a030a1 	mov	r3, #161	; 0xa1
    8100:	eb000087 	bl	8324 <printk>
    8104:	eb0001fe 	bl	8904 <clean_reboot>
    8108:	e59f3090 	ldr	r3, [pc, #144]	; 81a0 <cq_init+0x190>
    810c:	e7942003 	ldr	r2, [r4, r3]
    8110:	e2833004 	add	r3, r3, #4
    8114:	e7943003 	ldr	r3, [r4, r3]
    8118:	e1520003 	cmp	r2, r3
    811c:	0a000009 	beq	8148 <cq_init+0x138>
    8120:	e59f3074 	ldr	r3, [pc, #116]	; 819c <cq_init+0x18c>
    8124:	e7942003 	ldr	r2, [r4, r3]
    8128:	e7d41002 	ldrb	r1, [r4, r2]
    812c:	e6ef1071 	uxtb	r1, r1
    8130:	e2822001 	add	r2, r2, #1
    8134:	e1a02982 	lsl	r2, r2, #19
    8138:	e1a029a2 	lsr	r2, r2, #19
    813c:	e7842003 	str	r2, [r4, r3]
    8140:	e3a03001 	mov	r3, #1
    8144:	ea000001 	b	8150 <cq_init+0x140>
    8148:	e3a01012 	mov	r1, #18
    814c:	e3a03000 	mov	r3, #0
    8150:	e3530000 	cmp	r3, #0
    8154:	1a000002 	bne	8164 <cq_init+0x154>
    8158:	e3510012 	cmp	r1, #18
    815c:	0a000002 	beq	816c <cq_init+0x15c>
    8160:	ea000002 	b	8170 <cq_init+0x160>
    8164:	e3a03000 	mov	r3, #0
    8168:	ea000000 	b	8170 <cq_init+0x160>
    816c:	e3a03001 	mov	r3, #1
    8170:	e3530000 	cmp	r3, #0
    8174:	18bd8038 	popne	{r3, r4, r5, pc}
    8178:	eb000084 	bl	8390 <rpi_reset_putc>
    817c:	e59f003c 	ldr	r0, [pc, #60]	; 81c0 <cq_init+0x1b0>
    8180:	e59f1028 	ldr	r1, [pc, #40]	; 81b0 <cq_init+0x1a0>
    8184:	e59f2028 	ldr	r2, [pc, #40]	; 81b4 <cq_init+0x1a4>
    8188:	e3a030a3 	mov	r3, #163	; 0xa3
    818c:	eb000064 	bl	8324 <printk>
    8190:	eb0001db 	bl	8904 <clean_reboot>
    8194:	00002014 	andeq	r2, r0, r4, lsl r0
    8198:	12345678 	eorsne	r5, r4, #120, 12	; 0x7800000
    819c:	00002008 	andeq	r2, r0, r8
    81a0:	00002004 	andeq	r2, r0, r4
    81a4:	0000200c 	andeq	r2, r0, ip
    81a8:	00002010 	andeq	r2, r0, r0, lsl r0
    81ac:	00009be4 	andeq	r9, r0, r4, ror #23
    81b0:	00009c00 	andeq	r9, r0, r0, lsl #24
    81b4:	00009bdc 	ldrdeq	r9, [r0], -ip
    81b8:	00009c54 	andeq	r9, r0, r4, asr ip
    81bc:	00009c70 	andeq	r9, r0, r0, ror ip
    81c0:	00009c94 	muleq	r0, r4, ip

000081c4 <interrupt_vector>:
    81c4:	e92d4008 	push	{r3, lr}
    81c8:	eb0005f9 	bl	99b4 <dev_barrier>
    81cc:	e3a00006 	mov	r0, #6
    81d0:	eb0002c4 	bl	8ce8 <gpio_read>
    81d4:	e3500000 	cmp	r0, #0
    81d8:	1a000003 	bne	81ec <interrupt_vector+0x28>
    81dc:	e3a00010 	mov	r0, #16
    81e0:	e3a01000 	mov	r1, #0
    81e4:	eb0002d2 	bl	8d34 <gpio_write>
    81e8:	ea000002 	b	81f8 <interrupt_vector+0x34>
    81ec:	e3a00010 	mov	r0, #16
    81f0:	e3a01001 	mov	r1, #1
    81f4:	eb0002ce 	bl	8d34 <gpio_write>
    81f8:	e3a00006 	mov	r0, #6
    81fc:	eb000379 	bl	8fe8 <gpio_event_clear>
    8200:	e3a00005 	mov	r0, #5
    8204:	eb0002b7 	bl	8ce8 <gpio_read>
    8208:	e3500000 	cmp	r0, #0
    820c:	1a000003 	bne	8220 <interrupt_vector+0x5c>
    8210:	e3a0000c 	mov	r0, #12
    8214:	e3a01000 	mov	r1, #0
    8218:	eb0002c5 	bl	8d34 <gpio_write>
    821c:	ea000002 	b	822c <interrupt_vector+0x68>
    8220:	e3a0000c 	mov	r0, #12
    8224:	e3a01001 	mov	r1, #1
    8228:	eb0002c1 	bl	8d34 <gpio_write>
    822c:	e3a00005 	mov	r0, #5
    8230:	eb00036c 	bl	8fe8 <gpio_event_clear>
    8234:	eb0005de 	bl	99b4 <dev_barrier>
    8238:	e8bd8008 	pop	{r3, pc}

0000823c <init_recording>:
    823c:	e92d4008 	push	{r3, lr}
    8240:	e3a00006 	mov	r0, #6
    8244:	eb000274 	bl	8c1c <gpio_set_input>
    8248:	e3a00005 	mov	r0, #5
    824c:	eb000272 	bl	8c1c <gpio_set_input>
    8250:	e3a00010 	mov	r0, #16
    8254:	eb00021f 	bl	8ad8 <gpio_set_output>
    8258:	e3a0000c 	mov	r0, #12
    825c:	eb00021d 	bl	8ad8 <gpio_set_output>
    8260:	e3a00006 	mov	r0, #6
    8264:	eb0002fc 	bl	8e5c <gpio_int_rising_edge>
    8268:	e3a00006 	mov	r0, #6
    826c:	eb00031b 	bl	8ee0 <gpio_int_falling_edge>
    8270:	e3a00005 	mov	r0, #5
    8274:	eb0002f8 	bl	8e5c <gpio_int_rising_edge>
    8278:	e3a00005 	mov	r0, #5
    827c:	eb000317 	bl	8ee0 <gpio_int_falling_edge>
    8280:	e3a00010 	mov	r0, #16
    8284:	e3a01001 	mov	r1, #1
    8288:	eb0002a9 	bl	8d34 <gpio_write>
    828c:	e3a0000c 	mov	r0, #12
    8290:	e3a01001 	mov	r1, #1
    8294:	eb0002a6 	bl	8d34 <gpio_write>
    8298:	e8bd8008 	pop	{r3, pc}

0000829c <notmain>:
    829c:	e92d4008 	push	{r3, lr}
    82a0:	eb0004ee 	bl	9660 <uart_init>
    82a4:	eb00018e 	bl	88e4 <enable_cache>
    82a8:	eb000541 	bl	97b4 <int_init>
    82ac:	ebffffe2 	bl	823c <init_recording>
    82b0:	e59f0038 	ldr	r0, [pc, #56]	; 82f0 <notmain+0x54>
    82b4:	e3a01001 	mov	r1, #1
    82b8:	ebffff54 	bl	8010 <cq_init>
    82bc:	e59f0030 	ldr	r0, [pc, #48]	; 82f4 <notmain+0x58>
    82c0:	e3a01001 	mov	r1, #1
    82c4:	ebffff51 	bl	8010 <cq_init>
    82c8:	e59f0028 	ldr	r0, [pc, #40]	; 82f8 <notmain+0x5c>
    82cc:	e3a01001 	mov	r1, #1
    82d0:	ebffff4e 	bl	8010 <cq_init>
    82d4:	e59f0020 	ldr	r0, [pc, #32]	; 82fc <notmain+0x60>
    82d8:	e3a01001 	mov	r1, #1
    82dc:	ebffff4b 	bl	8010 <cq_init>
    82e0:	e59f0018 	ldr	r0, [pc, #24]	; 8300 <notmain+0x64>
    82e4:	eb00000e 	bl	8324 <printk>
    82e8:	eb0005ca 	bl	9a18 <system_enable_interrupts>
    82ec:	eafffffe 	b	82ec <notmain+0x50>
    82f0:	0000a0b4 	strheq	sl, [r0], -r4
    82f4:	0000c0c8 	andeq	ip, r0, r8, asr #1
    82f8:	0000e0dc 	ldrdeq	lr, [r0], -ip
    82fc:	000100f0 	strdeq	r0, [r1], -r0	; <UNPREDICTABLE>
    8300:	00009ccc 	andeq	r9, r0, ip, asr #25

00008304 <memset>:
    8304:	e0802002 	add	r2, r0, r2
    8308:	e1a03000 	mov	r3, r0
    830c:	ea000001 	b	8318 <memset+0x14>
    8310:	e5c31000 	strb	r1, [r3]
    8314:	e2833001 	add	r3, r3, #1
    8318:	e1530002 	cmp	r3, r2
    831c:	3afffffb 	bcc	8310 <memset+0xc>
    8320:	e12fff1e 	bx	lr

00008324 <printk>:
    8324:	e92d000f 	push	{r0, r1, r2, r3}
    8328:	e92d4030 	push	{r4, r5, lr}
    832c:	e24dd00c 	sub	sp, sp, #12
    8330:	e28d301c 	add	r3, sp, #28
    8334:	e58d3004 	str	r3, [sp, #4]
    8338:	e59f4034 	ldr	r4, [pc, #52]	; 8374 <printk+0x50>
    833c:	e1a00004 	mov	r0, r4
    8340:	e3a01b01 	mov	r1, #1024	; 0x400
    8344:	e59d2018 	ldr	r2, [sp, #24]
    8348:	eb0000c3 	bl	865c <va_printk>
    834c:	e1a05000 	mov	r5, r0
    8350:	e59f3020 	ldr	r3, [pc, #32]	; 8378 <printk+0x54>
    8354:	e5933000 	ldr	r3, [r3]
    8358:	e1a00004 	mov	r0, r4
    835c:	e12fff33 	blx	r3
    8360:	e1a00005 	mov	r0, r5
    8364:	e28dd00c 	add	sp, sp, #12
    8368:	e8bd4030 	pop	{r4, r5, lr}
    836c:	e28dd010 	add	sp, sp, #16
    8370:	e12fff1e 	bx	lr
    8374:	00012110 	andeq	r2, r1, r0, lsl r1
    8378:	00009b44 	andeq	r9, r0, r4, asr #22

0000837c <internal_putchar>:
    837c:	e92d4010 	push	{r4, lr}
    8380:	e1a04000 	mov	r4, r0
    8384:	eb0004f4 	bl	975c <uart_putc>
    8388:	e1a00004 	mov	r0, r4
    838c:	e8bd8010 	pop	{r4, pc}

00008390 <rpi_reset_putc>:
    8390:	e59f2008 	ldr	r2, [pc, #8]	; 83a0 <rpi_reset_putc+0x10>
    8394:	e59f3008 	ldr	r3, [pc, #8]	; 83a4 <rpi_reset_putc+0x14>
    8398:	e5832000 	str	r2, [r3]
    839c:	e12fff1e 	bx	lr
    83a0:	0000837c 	andeq	r8, r0, ip, ror r3
    83a4:	00009b40 	andeq	r9, r0, r0, asr #22

000083a8 <rpi_set_putc>:
    83a8:	e59f3004 	ldr	r3, [pc, #4]	; 83b4 <rpi_set_putc+0xc>
    83ac:	e5830000 	str	r0, [r3]
    83b0:	e12fff1e 	bx	lr
    83b4:	00009b40 	andeq	r9, r0, r0, asr #22

000083b8 <internal_putk>:
    83b8:	e92d4038 	push	{r3, r4, r5, lr}
    83bc:	e1a04000 	mov	r4, r0
    83c0:	e59f5020 	ldr	r5, [pc, #32]	; 83e8 <internal_putk+0x30>
    83c4:	ea000002 	b	83d4 <internal_putk+0x1c>
    83c8:	e5953000 	ldr	r3, [r5]
    83cc:	e12fff33 	blx	r3
    83d0:	e2844001 	add	r4, r4, #1
    83d4:	e5d40000 	ldrb	r0, [r4]
    83d8:	e3500000 	cmp	r0, #0
    83dc:	1afffff9 	bne	83c8 <internal_putk+0x10>
    83e0:	e3a00001 	mov	r0, #1
    83e4:	e8bd8038 	pop	{r3, r4, r5, pc}
    83e8:	00009b40 	andeq	r9, r0, r0, asr #22

000083ec <isdigit>:
    83ec:	e2400030 	sub	r0, r0, #48	; 0x30
    83f0:	e3500009 	cmp	r0, #9
    83f4:	83a00000 	movhi	r0, #0
    83f8:	93a00001 	movls	r0, #1
    83fc:	e12fff1e 	bx	lr

00008400 <pad>:
    8400:	e0611000 	rsb	r1, r1, r0
    8404:	e3a03020 	mov	r3, #32
    8408:	ea000002 	b	8418 <pad+0x18>
    840c:	e5c03000 	strb	r3, [r0]
    8410:	e2811001 	add	r1, r1, #1
    8414:	e2800001 	add	r0, r0, #1
    8418:	e1510002 	cmp	r1, r2
    841c:	bafffffa 	blt	840c <pad+0xc>
    8420:	e3a03000 	mov	r3, #0
    8424:	e5c03000 	strb	r3, [r0]
    8428:	e12fff1e 	bx	lr

0000842c <reverse>:
    842c:	e063c002 	rsb	ip, r3, r2
    8430:	e28cc001 	add	ip, ip, #1
    8434:	e15c0001 	cmp	ip, r1
    8438:	c061100c 	rsbgt	r1, r1, ip
    843c:	c0833001 	addgt	r3, r3, r1
    8440:	e2422001 	sub	r2, r2, #1
    8444:	e1a01000 	mov	r1, r0
    8448:	ea000002 	b	8458 <reverse+0x2c>
    844c:	e452c001 	ldrb	ip, [r2], #-1
    8450:	e5c1c000 	strb	ip, [r1]
    8454:	e2811001 	add	r1, r1, #1
    8458:	e1520003 	cmp	r2, r3
    845c:	2afffffa 	bcs	844c <reverse+0x20>
    8460:	e3a03000 	mov	r3, #0
    8464:	e5c13000 	strb	r3, [r1]
    8468:	e12fff1e 	bx	lr

0000846c <emit>:
    846c:	e92d41f0 	push	{r4, r5, r6, r7, r8, lr}
    8470:	e24dd040 	sub	sp, sp, #64	; 0x40
    8474:	e1a05001 	mov	r5, r1
    8478:	e1a04002 	mov	r4, r2
    847c:	e59d2058 	ldr	r2, [sp, #88]	; 0x58
    8480:	e1520004 	cmp	r2, r4
    8484:	c2442001 	subgt	r2, r4, #1
    8488:	e1a0c003 	mov	ip, r3
    848c:	e2400002 	sub	r0, r0, #2
    8490:	e350000e 	cmp	r0, #14
    8494:	979ff100 	ldrls	pc, [pc, r0, lsl #2]
    8498:	ea000042 	b	85a8 <emit+0x13c>
    849c:	00008580 	andeq	r8, r0, r0, lsl #11
    84a0:	000085a8 	andeq	r8, r0, r8, lsr #11
    84a4:	000085a8 	andeq	r8, r0, r8, lsr #11
    84a8:	000085a8 	andeq	r8, r0, r8, lsr #11
    84ac:	000085a8 	andeq	r8, r0, r8, lsr #11
    84b0:	000085a8 	andeq	r8, r0, r8, lsr #11
    84b4:	00008574 	andeq	r8, r0, r4, ror r5
    84b8:	000085a8 	andeq	r8, r0, r8, lsr #11
    84bc:	000084d8 	ldrdeq	r8, [r0], -r8	; <UNPREDICTABLE>
    84c0:	000085a8 	andeq	r8, r0, r8, lsr #11
    84c4:	000085a8 	andeq	r8, r0, r8, lsr #11
    84c8:	000085a8 	andeq	r8, r0, r8, lsr #11
    84cc:	000085a8 	andeq	r8, r0, r8, lsr #11
    84d0:	000085a8 	andeq	r8, r0, r8, lsr #11
    84d4:	0000854c 	andeq	r8, r0, ip, asr #10
    84d8:	e59d105c 	ldr	r1, [sp, #92]	; 0x5c
    84dc:	e2911000 	adds	r1, r1, #0
    84e0:	13a01001 	movne	r1, #1
    84e4:	e0111fa3 	ands	r1, r1, r3, lsr #31
    84e8:	1263c000 	rsbne	ip, r3, #0
    84ec:	13a08001 	movne	r8, #1
    84f0:	03a08000 	moveq	r8, #0
    84f4:	e1a0100d 	mov	r1, sp
    84f8:	e59f70ec 	ldr	r7, [pc, #236]	; 85ec <emit+0x180>
    84fc:	e59f60ec 	ldr	r6, [pc, #236]	; 85f0 <emit+0x184>
    8500:	ea000000 	b	8508 <emit+0x9c>
    8504:	e1a01003 	mov	r1, r3
    8508:	e2813001 	add	r3, r1, #1
    850c:	e08e0c97 	umull	r0, lr, r7, ip
    8510:	e1a0e1ae 	lsr	lr, lr, #3
    8514:	e1a0000e 	mov	r0, lr
    8518:	e08ee10e 	add	lr, lr, lr, lsl #2
    851c:	e1a0e08e 	lsl	lr, lr, #1
    8520:	e06ee00c 	rsb	lr, lr, ip
    8524:	e7d6c00e 	ldrb	ip, [r6, lr]
    8528:	e5c1c000 	strb	ip, [r1]
    852c:	e1a0c000 	mov	ip, r0
    8530:	e3500000 	cmp	r0, #0
    8534:	1afffff2 	bne	8504 <emit+0x98>
    8538:	e3580000 	cmp	r8, #0
    853c:	12813002 	addne	r3, r1, #2
    8540:	13a0002d 	movne	r0, #45	; 0x2d
    8544:	15c10001 	strbne	r0, [r1, #1]
    8548:	ea00001d 	b	85c4 <emit+0x158>
    854c:	e1a0e00d 	mov	lr, sp
    8550:	e59f009c 	ldr	r0, [pc, #156]	; 85f4 <emit+0x188>
    8554:	e28e3001 	add	r3, lr, #1
    8558:	e20c100f 	and	r1, ip, #15
    855c:	e7d01001 	ldrb	r1, [r0, r1]
    8560:	e5ce1000 	strb	r1, [lr]
    8564:	e1a0e003 	mov	lr, r3
    8568:	e1b0c22c 	lsrs	ip, ip, #4
    856c:	1afffff8 	bne	8554 <emit+0xe8>
    8570:	ea000013 	b	85c4 <emit+0x158>
    8574:	e5cd3000 	strb	r3, [sp]
    8578:	e28d3001 	add	r3, sp, #1
    857c:	ea000010 	b	85c4 <emit+0x158>
    8580:	e1a0e00d 	mov	lr, sp
    8584:	e59f006c 	ldr	r0, [pc, #108]	; 85f8 <emit+0x18c>
    8588:	e28e3001 	add	r3, lr, #1
    858c:	e20c1001 	and	r1, ip, #1
    8590:	e7d01001 	ldrb	r1, [r0, r1]
    8594:	e5ce1000 	strb	r1, [lr]
    8598:	e1a0e003 	mov	lr, r3
    859c:	e1b0c0ac 	lsrs	ip, ip, #1
    85a0:	1afffff8 	bne	8588 <emit+0x11c>
    85a4:	ea000006 	b	85c4 <emit+0x158>
    85a8:	ebffff78 	bl	8390 <rpi_reset_putc>
    85ac:	e59f0048 	ldr	r0, [pc, #72]	; 85fc <emit+0x190>
    85b0:	e59f1048 	ldr	r1, [pc, #72]	; 8600 <emit+0x194>
    85b4:	e59f2048 	ldr	r2, [pc, #72]	; 8604 <emit+0x198>
    85b8:	e3a03075 	mov	r3, #117	; 0x75
    85bc:	ebffff58 	bl	8324 <printk>
    85c0:	eb0000cf 	bl	8904 <clean_reboot>
    85c4:	e1a00003 	mov	r0, r3
    85c8:	e1a0100d 	mov	r1, sp
    85cc:	ebffff8b 	bl	8400 <pad>
    85d0:	e1a02000 	mov	r2, r0
    85d4:	e1a00005 	mov	r0, r5
    85d8:	e1a01004 	mov	r1, r4
    85dc:	e1a0300d 	mov	r3, sp
    85e0:	ebffff91 	bl	842c <reverse>
    85e4:	e28dd040 	add	sp, sp, #64	; 0x40
    85e8:	e8bd81f0 	pop	{r4, r5, r6, r7, r8, pc}
    85ec:	cccccccd 	stclgt	12, cr12, [ip], {205}	; 0xcd
    85f0:	00009d30 	andeq	r9, r0, r0, lsr sp
    85f4:	00009d3c 	andeq	r9, r0, ip, lsr sp
    85f8:	00009d50 	andeq	r9, r0, r0, asr sp
    85fc:	00009d08 	andeq	r9, r0, r8, lsl #26
    8600:	00009d1c 	andeq	r9, r0, ip, lsl sp
    8604:	00009ce4 	andeq	r9, r0, r4, ror #25

00008608 <rpi_set_output>:
    8608:	e92d4008 	push	{r3, lr}
    860c:	e3500000 	cmp	r0, #0
    8610:	1a000006 	bne	8630 <rpi_set_output+0x28>
    8614:	ebffff5d 	bl	8390 <rpi_reset_putc>
    8618:	e59f0028 	ldr	r0, [pc, #40]	; 8648 <rpi_set_output+0x40>
    861c:	e59f1028 	ldr	r1, [pc, #40]	; 864c <rpi_set_output+0x44>
    8620:	e59f2028 	ldr	r2, [pc, #40]	; 8650 <rpi_set_output+0x48>
    8624:	e3a03020 	mov	r3, #32
    8628:	ebffff3d 	bl	8324 <printk>
    862c:	eb0000b4 	bl	8904 <clean_reboot>
    8630:	e59f301c 	ldr	r3, [pc, #28]	; 8654 <rpi_set_output+0x4c>
    8634:	e5830000 	str	r0, [r3]
    8638:	e3510000 	cmp	r1, #0
    863c:	159f3014 	ldrne	r3, [pc, #20]	; 8658 <rpi_set_output+0x50>
    8640:	15831000 	strne	r1, [r3]
    8644:	e8bd8008 	pop	{r3, pc}
    8648:	00009d54 	andeq	r9, r0, r4, asr sp
    864c:	00009d1c 	andeq	r9, r0, ip, lsl sp
    8650:	00009cec 	andeq	r9, r0, ip, ror #25
    8654:	00009b40 	andeq	r9, r0, r0, asr #22
    8658:	00009b44 	andeq	r9, r0, r4, asr #22

0000865c <va_printk>:
    865c:	e92d4ff0 	push	{r4, r5, r6, r7, r8, r9, sl, fp, lr}
    8660:	e24dd08c 	sub	sp, sp, #140	; 0x8c
    8664:	e1a0a000 	mov	sl, r0
    8668:	e1a09003 	mov	r9, r3
    866c:	e2411001 	sub	r1, r1, #1
    8670:	e0808001 	add	r8, r0, r1
    8674:	e3a03000 	mov	r3, #0
    8678:	e5c03000 	strb	r3, [r0]
    867c:	e1a04000 	mov	r4, r0
    8680:	e1a0b003 	mov	fp, r3
    8684:	ea000086 	b	88a4 <va_printk+0x248>
    8688:	e3530025 	cmp	r3, #37	; 0x25
    868c:	12822001 	addne	r2, r2, #1
    8690:	15c43000 	strbne	r3, [r4]
    8694:	12844001 	addne	r4, r4, #1
    8698:	1a000081 	bne	88a4 <va_printk+0x248>
    869c:	e5d21001 	ldrb	r1, [r2, #1]
    86a0:	e3510025 	cmp	r1, #37	; 0x25
    86a4:	05c43000 	strbeq	r3, [r4]
    86a8:	02822002 	addeq	r2, r2, #2
    86ac:	02844001 	addeq	r4, r4, #1
    86b0:	0a00007b 	beq	88a4 <va_printk+0x248>
    86b4:	e2826001 	add	r6, r2, #1
    86b8:	e1a0700b 	mov	r7, fp
    86bc:	ea000004 	b	86d4 <va_printk+0x78>
    86c0:	e0877107 	add	r7, r7, r7, lsl #2
    86c4:	e1a07087 	lsl	r7, r7, #1
    86c8:	e0877005 	add	r7, r7, r5
    86cc:	e2477030 	sub	r7, r7, #48	; 0x30
    86d0:	e2866001 	add	r6, r6, #1
    86d4:	e5d65000 	ldrb	r5, [r6]
    86d8:	e1a00005 	mov	r0, r5
    86dc:	ebffff42 	bl	83ec <isdigit>
    86e0:	e3500000 	cmp	r0, #0
    86e4:	1afffff5 	bne	86c0 <va_printk+0x64>
    86e8:	e357001f 	cmp	r7, #31
    86ec:	9a000006 	bls	870c <va_printk+0xb0>
    86f0:	ebffff26 	bl	8390 <rpi_reset_putc>
    86f4:	e59f01d4 	ldr	r0, [pc, #468]	; 88d0 <va_printk+0x274>
    86f8:	e59f11d4 	ldr	r1, [pc, #468]	; 88d4 <va_printk+0x278>
    86fc:	e59f21d4 	ldr	r2, [pc, #468]	; 88d8 <va_printk+0x27c>
    8700:	e3a03092 	mov	r3, #146	; 0x92
    8704:	ebffff06 	bl	8324 <printk>
    8708:	eb00007d 	bl	8904 <clean_reboot>
    870c:	e2455062 	sub	r5, r5, #98	; 0x62
    8710:	e3550016 	cmp	r5, #22
    8714:	979ff105 	ldrls	pc, [pc, r5, lsl #2]
    8718:	ea00004e 	b	8858 <va_printk+0x1fc>
    871c:	00008804 	andeq	r8, r0, r4, lsl #16
    8720:	00008834 	andeq	r8, r0, r4, lsr r8
    8724:	00008794 	muleq	r0, r4, r7
    8728:	00008858 	andeq	r8, r0, r8, asr r8
    872c:	00008778 	andeq	r8, r0, r8, ror r7
    8730:	00008858 	andeq	r8, r0, r8, asr r8
    8734:	00008858 	andeq	r8, r0, r8, asr r8
    8738:	00008858 	andeq	r8, r0, r8, asr r8
    873c:	00008858 	andeq	r8, r0, r8, asr r8
    8740:	00008858 	andeq	r8, r0, r8, asr r8
    8744:	00008858 	andeq	r8, r0, r8, asr r8
    8748:	00008858 	andeq	r8, r0, r8, asr r8
    874c:	00008858 	andeq	r8, r0, r8, asr r8
    8750:	00008858 	andeq	r8, r0, r8, asr r8
    8754:	000087e0 	andeq	r8, r0, r0, ror #15
    8758:	00008858 	andeq	r8, r0, r8, asr r8
    875c:	00008858 	andeq	r8, r0, r8, asr r8
    8760:	00008828 	andeq	r8, r0, r8, lsr #16
    8764:	00008858 	andeq	r8, r0, r8, asr r8
    8768:	000087bc 			; <UNDEFINED> instruction: 0x000087bc
    876c:	00008858 	andeq	r8, r0, r8, asr r8
    8770:	00008858 	andeq	r8, r0, r8, asr r8
    8774:	000087e0 	andeq	r8, r0, r0, ror #15
    8778:	ebffff04 	bl	8390 <rpi_reset_putc>
    877c:	e59f0158 	ldr	r0, [pc, #344]	; 88dc <va_printk+0x280>
    8780:	e59f114c 	ldr	r1, [pc, #332]	; 88d4 <va_printk+0x278>
    8784:	e59f214c 	ldr	r2, [pc, #332]	; 88d8 <va_printk+0x27c>
    8788:	e3a03098 	mov	r3, #152	; 0x98
    878c:	ebfffee4 	bl	8324 <printk>
    8790:	eb00005b 	bl	8904 <clean_reboot>
    8794:	e5993000 	ldr	r3, [r9]
    8798:	e2899004 	add	r9, r9, #4
    879c:	e58d7000 	str	r7, [sp]
    87a0:	e3a02001 	mov	r2, #1
    87a4:	e58d2004 	str	r2, [sp, #4]
    87a8:	e3a0000a 	mov	r0, #10
    87ac:	e28d1008 	add	r1, sp, #8
    87b0:	e3a02080 	mov	r2, #128	; 0x80
    87b4:	ebffff2c 	bl	846c <emit>
    87b8:	ea00002f 	b	887c <va_printk+0x220>
    87bc:	e5993000 	ldr	r3, [r9]
    87c0:	e2899004 	add	r9, r9, #4
    87c4:	e58d7000 	str	r7, [sp]
    87c8:	e58db004 	str	fp, [sp, #4]
    87cc:	e3a0000a 	mov	r0, #10
    87d0:	e28d1008 	add	r1, sp, #8
    87d4:	e3a02080 	mov	r2, #128	; 0x80
    87d8:	ebffff23 	bl	846c <emit>
    87dc:	ea000026 	b	887c <va_printk+0x220>
    87e0:	e5993000 	ldr	r3, [r9]
    87e4:	e2899004 	add	r9, r9, #4
    87e8:	e58d7000 	str	r7, [sp]
    87ec:	e58db004 	str	fp, [sp, #4]
    87f0:	e3a00010 	mov	r0, #16
    87f4:	e28d1008 	add	r1, sp, #8
    87f8:	e3a02080 	mov	r2, #128	; 0x80
    87fc:	ebffff1a 	bl	846c <emit>
    8800:	ea00001d 	b	887c <va_printk+0x220>
    8804:	e5993000 	ldr	r3, [r9]
    8808:	e2899004 	add	r9, r9, #4
    880c:	e58d7000 	str	r7, [sp]
    8810:	e58db004 	str	fp, [sp, #4]
    8814:	e3a00002 	mov	r0, #2
    8818:	e28d1008 	add	r1, sp, #8
    881c:	e3a02080 	mov	r2, #128	; 0x80
    8820:	ebffff11 	bl	846c <emit>
    8824:	ea000014 	b	887c <va_printk+0x220>
    8828:	e5990000 	ldr	r0, [r9]
    882c:	e2899004 	add	r9, r9, #4
    8830:	ea000011 	b	887c <va_printk+0x220>
    8834:	e5993000 	ldr	r3, [r9]
    8838:	e2899004 	add	r9, r9, #4
    883c:	e58d7000 	str	r7, [sp]
    8840:	e58db004 	str	fp, [sp, #4]
    8844:	e3a00008 	mov	r0, #8
    8848:	e08d1000 	add	r1, sp, r0
    884c:	e3a02080 	mov	r2, #128	; 0x80
    8850:	ebffff05 	bl	846c <emit>
    8854:	ea000008 	b	887c <va_printk+0x220>
    8858:	ebfffecc 	bl	8390 <rpi_reset_putc>
    885c:	e5d63000 	ldrb	r3, [r6]
    8860:	e58d3000 	str	r3, [sp]
    8864:	e59f0074 	ldr	r0, [pc, #116]	; 88e0 <va_printk+0x284>
    8868:	e59f1064 	ldr	r1, [pc, #100]	; 88d4 <va_printk+0x278>
    886c:	e59f2064 	ldr	r2, [pc, #100]	; 88d8 <va_printk+0x27c>
    8870:	e3a030b9 	mov	r3, #185	; 0xb9
    8874:	ebfffeaa 	bl	8324 <printk>
    8878:	eb000021 	bl	8904 <clean_reboot>
    887c:	e2862001 	add	r2, r6, #1
    8880:	ea000002 	b	8890 <va_printk+0x234>
    8884:	e2800001 	add	r0, r0, #1
    8888:	e5c43000 	strb	r3, [r4]
    888c:	e2844001 	add	r4, r4, #1
    8890:	e1540008 	cmp	r4, r8
    8894:	2a000002 	bcs	88a4 <va_printk+0x248>
    8898:	e5d03000 	ldrb	r3, [r0]
    889c:	e3530000 	cmp	r3, #0
    88a0:	1afffff7 	bne	8884 <va_printk+0x228>
    88a4:	e5d23000 	ldrb	r3, [r2]
    88a8:	e3530000 	cmp	r3, #0
    88ac:	0a000001 	beq	88b8 <va_printk+0x25c>
    88b0:	e1540008 	cmp	r4, r8
    88b4:	3affff73 	bcc	8688 <va_printk+0x2c>
    88b8:	e2840001 	add	r0, r4, #1
    88bc:	e3a03000 	mov	r3, #0
    88c0:	e5c43000 	strb	r3, [r4]
    88c4:	e06a0000 	rsb	r0, sl, r0
    88c8:	e28dd08c 	add	sp, sp, #140	; 0x8c
    88cc:	e8bd8ff0 	pop	{r4, r5, r6, r7, r8, r9, sl, fp, pc}
    88d0:	00009d6c 	andeq	r9, r0, ip, ror #26
    88d4:	00009d1c 	andeq	r9, r0, ip, lsl sp
    88d8:	00009cfc 	strdeq	r9, [r0], -ip
    88dc:	00009d88 	andeq	r9, r0, r8, lsl #27
    88e0:	00009db0 			; <UNDEFINED> instruction: 0x00009db0

000088e4 <enable_cache>:
    88e4:	ee113f10 	mrc	15, 0, r3, cr1, cr0, {0}
    88e8:	e3833b06 	orr	r3, r3, #6144	; 0x1800
    88ec:	ee013f10 	mcr	15, 0, r3, cr1, cr0, {0}
    88f0:	e12fff1e 	bx	lr

000088f4 <disable_cache>:
    88f4:	ee113f10 	mrc	15, 0, r3, cr1, cr0, {0}
    88f8:	e3c33b06 	bic	r3, r3, #6144	; 0x1800
    88fc:	ee013f10 	mcr	15, 0, r3, cr1, cr0, {0}
    8900:	e12fff1e 	bx	lr

00008904 <clean_reboot>:
    8904:	e92d4008 	push	{r3, lr}
    8908:	e59f3014 	ldr	r3, [pc, #20]	; 8924 <clean_reboot+0x20>
    890c:	e5933000 	ldr	r3, [r3]
    8910:	e59f0010 	ldr	r0, [pc, #16]	; 8928 <clean_reboot+0x24>
    8914:	e12fff33 	blx	r3
    8918:	e3a00064 	mov	r0, #100	; 0x64
    891c:	eb000063 	bl	8ab0 <delay_ms>
    8920:	eb000038 	bl	8a08 <rpi_reboot>
    8924:	00009b44 	andeq	r9, r0, r4, asr #22
    8928:	00009de8 	andeq	r9, r0, r8, ror #27

0000892c <internal_sw_putchar>:
    892c:	e92d4010 	push	{r4, lr}
    8930:	e1a04000 	mov	r4, r0
    8934:	e59f000c 	ldr	r0, [pc, #12]	; 8948 <internal_sw_putchar+0x1c>
    8938:	e6ef1074 	uxtb	r1, r4
    893c:	eb0001bf 	bl	9040 <sw_uart_putc>
    8940:	e1a00004 	mov	r0, r4
    8944:	e8bd8010 	pop	{r4, pc}
    8948:	00012510 	andeq	r2, r1, r0, lsl r5

0000894c <_cstart>:
    894c:	e92d4008 	push	{r3, lr}
    8950:	e59f3068 	ldr	r3, [pc, #104]	; 89c0 <_cstart+0x74>
    8954:	e59f2068 	ldr	r2, [pc, #104]	; 89c4 <_cstart+0x78>
    8958:	e3a01000 	mov	r1, #0
    895c:	ea000001 	b	8968 <_cstart+0x1c>
    8960:	e5831000 	str	r1, [r3]
    8964:	e2833004 	add	r3, r3, #4
    8968:	e1530002 	cmp	r3, r2
    896c:	3afffffb 	bcc	8960 <_cstart+0x14>
    8970:	eb000468 	bl	9b18 <cb_get_block>
    8974:	e3500000 	cmp	r0, #0
    8978:	0a00000e 	beq	89b8 <_cstart+0x6c>
    897c:	e5d02004 	ldrb	r2, [r0, #4]
    8980:	e3520002 	cmp	r2, #2
    8984:	1a00000b 	bne	89b8 <_cstart+0x6c>
    8988:	e59f1038 	ldr	r1, [pc, #56]	; 89c8 <_cstart+0x7c>
    898c:	e59f2038 	ldr	r2, [pc, #56]	; 89cc <_cstart+0x80>
    8990:	e5821000 	str	r1, [r2]
    8994:	e59fc034 	ldr	ip, [pc, #52]	; 89d0 <_cstart+0x84>
    8998:	e2803008 	add	r3, r0, #8
    899c:	e8930007 	ldm	r3, {r0, r1, r2}
    89a0:	e88c0007 	stm	ip, {r0, r1, r2}
    89a4:	e1a0000c 	mov	r0, ip
    89a8:	e59f1024 	ldr	r1, [pc, #36]	; 89d4 <_cstart+0x88>
    89ac:	eb0002f7 	bl	9590 <sw_uart_printk>
    89b0:	e59f0020 	ldr	r0, [pc, #32]	; 89d8 <_cstart+0x8c>
    89b4:	ebfffe5a 	bl	8324 <printk>
    89b8:	ebfffe37 	bl	829c <notmain>
    89bc:	eb000011 	bl	8a08 <rpi_reboot>
    89c0:	0000a0b4 	strheq	sl, [r0], -r4
    89c4:	00012520 	andeq	r2, r1, r0, lsr #10
    89c8:	0000892c 	andeq	r8, r0, ip, lsr #18
    89cc:	00009b40 	andeq	r9, r0, r0, asr #22
    89d0:	00012510 	andeq	r2, r1, r0, lsl r5
    89d4:	00009df4 	strdeq	r9, [r0], -r4
    89d8:	00009e18 	andeq	r9, r0, r8, lsl lr

000089dc <at_user_level>:
    89dc:	e10f0000 	mrs	r0, CPSR
    89e0:	e200001f 	and	r0, r0, #31
    89e4:	e3500010 	cmp	r0, #16
    89e8:	13a00000 	movne	r0, #0
    89ec:	03a00001 	moveq	r0, #1
    89f0:	e12fff1e 	bx	lr

000089f4 <set_user_level>:
    89f4:	e10f3000 	mrs	r3, CPSR
    89f8:	e3c3301f 	bic	r3, r3, #31
    89fc:	e3833010 	orr	r3, r3, #16
    8a00:	e129f003 	msr	CPSR_fc, r3
    8a04:	e12fff1e 	bx	lr

00008a08 <rpi_reboot>:
    8a08:	e92d4008 	push	{r3, lr}
    8a0c:	ebfffff2 	bl	89dc <at_user_level>
    8a10:	e3500000 	cmp	r0, #0
    8a14:	0a000000 	beq	8a1c <rpi_reboot+0x14>
    8a18:	ebfffff5 	bl	89f4 <set_user_level>
    8a1c:	e3a0001e 	mov	r0, #30
    8a20:	eb000022 	bl	8ab0 <delay_ms>
    8a24:	e59f0014 	ldr	r0, [pc, #20]	; 8a40 <rpi_reboot+0x38>
    8a28:	e59f1014 	ldr	r1, [pc, #20]	; 8a44 <rpi_reboot+0x3c>
    8a2c:	eb0003e8 	bl	99d4 <PUT32>
    8a30:	e59f0010 	ldr	r0, [pc, #16]	; 8a48 <rpi_reboot+0x40>
    8a34:	e59f1010 	ldr	r1, [pc, #16]	; 8a4c <rpi_reboot+0x44>
    8a38:	eb0003e5 	bl	99d4 <PUT32>
    8a3c:	eafffffe 	b	8a3c <rpi_reboot+0x34>
    8a40:	20100024 	andscs	r0, r0, r4, lsr #32
    8a44:	5a000001 	bpl	8a50 <delay_cycles>
    8a48:	2010001c 	andscs	r0, r0, ip, lsl r0
    8a4c:	5a000020 	bpl	8ad4 <delay_sec+0x10>

00008a50 <delay_cycles>:
    8a50:	ea000001 	b	8a5c <delay_cycles+0xc>
    8a54:	e2811000 	add	r1, r1, #0
    8a58:	e1a00003 	mov	r0, r3
    8a5c:	e2403001 	sub	r3, r0, #1
    8a60:	e3500000 	cmp	r0, #0
    8a64:	1afffffa 	bne	8a54 <delay_cycles+0x4>
    8a68:	e12fff1e 	bx	lr

00008a6c <timer_get_usec_raw>:
    8a6c:	e92d4008 	push	{r3, lr}
    8a70:	e59f0004 	ldr	r0, [pc, #4]	; 8a7c <timer_get_usec_raw+0x10>
    8a74:	eb0003e2 	bl	9a04 <GET32>
    8a78:	e8bd8008 	pop	{r3, pc}
    8a7c:	20003004 	andcs	r3, r0, r4

00008a80 <timer_get_usec>:
    8a80:	e92d4008 	push	{r3, lr}
    8a84:	ebfffff8 	bl	8a6c <timer_get_usec_raw>
    8a88:	e8bd8008 	pop	{r3, pc}

00008a8c <delay_us>:
    8a8c:	e92d4038 	push	{r3, r4, r5, lr}
    8a90:	e1a05000 	mov	r5, r0
    8a94:	ebfffff9 	bl	8a80 <timer_get_usec>
    8a98:	e1a04000 	mov	r4, r0
    8a9c:	ebfffff7 	bl	8a80 <timer_get_usec>
    8aa0:	e0640000 	rsb	r0, r4, r0
    8aa4:	e1500005 	cmp	r0, r5
    8aa8:	3afffffb 	bcc	8a9c <delay_us+0x10>
    8aac:	e8bd8038 	pop	{r3, r4, r5, pc}

00008ab0 <delay_ms>:
    8ab0:	e92d4008 	push	{r3, lr}
    8ab4:	e3a03ffa 	mov	r3, #1000	; 0x3e8
    8ab8:	e0000093 	mul	r0, r3, r0
    8abc:	ebfffff2 	bl	8a8c <delay_us>
    8ac0:	e8bd8008 	pop	{r3, pc}

00008ac4 <delay_sec>:
    8ac4:	e92d4008 	push	{r3, lr}
    8ac8:	e3a03ffa 	mov	r3, #1000	; 0x3e8
    8acc:	e0000093 	mul	r0, r3, r0
    8ad0:	ebfffff6 	bl	8ab0 <delay_ms>
    8ad4:	e8bd8008 	pop	{r3, pc}

00008ad8 <gpio_set_output>:
    8ad8:	e92d4038 	push	{r3, r4, r5, lr}
    8adc:	e1a04000 	mov	r4, r0
    8ae0:	e350001f 	cmp	r0, #31
    8ae4:	88bd8038 	pophi	{r3, r4, r5, pc}
    8ae8:	e59f30b4 	ldr	r3, [pc, #180]	; 8ba4 <gpio_set_output+0xcc>
    8aec:	e0832093 	umull	r2, r3, r3, r0
    8af0:	e1a031a3 	lsr	r3, r3, #3
    8af4:	e3530005 	cmp	r3, #5
    8af8:	979ff103 	ldrls	pc, [pc, r3, lsl #2]
    8afc:	ea000017 	b	8b60 <gpio_set_output+0x88>
    8b00:	00008b18 	andeq	r8, r0, r8, lsl fp
    8b04:	00008b24 	andeq	r8, r0, r4, lsr #22
    8b08:	00008b30 	andeq	r8, r0, r0, lsr fp
    8b0c:	00008b3c 	andeq	r8, r0, ip, lsr fp
    8b10:	00008b48 	andeq	r8, r0, r8, asr #22
    8b14:	00008b54 	andeq	r8, r0, r4, asr fp
    8b18:	e59f3088 	ldr	r3, [pc, #136]	; 8ba8 <gpio_set_output+0xd0>
    8b1c:	e5935000 	ldr	r5, [r3]
    8b20:	ea00000f 	b	8b64 <gpio_set_output+0x8c>
    8b24:	e59f307c 	ldr	r3, [pc, #124]	; 8ba8 <gpio_set_output+0xd0>
    8b28:	e5935004 	ldr	r5, [r3, #4]
    8b2c:	ea00000c 	b	8b64 <gpio_set_output+0x8c>
    8b30:	e59f3070 	ldr	r3, [pc, #112]	; 8ba8 <gpio_set_output+0xd0>
    8b34:	e5935008 	ldr	r5, [r3, #8]
    8b38:	ea000009 	b	8b64 <gpio_set_output+0x8c>
    8b3c:	e59f3064 	ldr	r3, [pc, #100]	; 8ba8 <gpio_set_output+0xd0>
    8b40:	e593500c 	ldr	r5, [r3, #12]
    8b44:	ea000006 	b	8b64 <gpio_set_output+0x8c>
    8b48:	e59f3058 	ldr	r3, [pc, #88]	; 8ba8 <gpio_set_output+0xd0>
    8b4c:	e5935010 	ldr	r5, [r3, #16]
    8b50:	ea000003 	b	8b64 <gpio_set_output+0x8c>
    8b54:	e59f304c 	ldr	r3, [pc, #76]	; 8ba8 <gpio_set_output+0xd0>
    8b58:	e5935014 	ldr	r5, [r3, #20]
    8b5c:	ea000000 	b	8b64 <gpio_set_output+0x8c>
    8b60:	e3a05000 	mov	r5, #0
    8b64:	e1a00005 	mov	r0, r5
    8b68:	eb0003a3 	bl	99fc <get32>
    8b6c:	e59f1030 	ldr	r1, [pc, #48]	; 8ba4 <gpio_set_output+0xcc>
    8b70:	e0813491 	umull	r3, r1, r1, r4
    8b74:	e1a011a1 	lsr	r1, r1, #3
    8b78:	e0811101 	add	r1, r1, r1, lsl #2
    8b7c:	e1a01081 	lsl	r1, r1, #1
    8b80:	e0611004 	rsb	r1, r1, r4
    8b84:	e0811081 	add	r1, r1, r1, lsl #1
    8b88:	e3a03007 	mov	r3, #7
    8b8c:	e1c03113 	bic	r3, r0, r3, lsl r1
    8b90:	e1a00005 	mov	r0, r5
    8b94:	e3a02001 	mov	r2, #1
    8b98:	e1831112 	orr	r1, r3, r2, lsl r1
    8b9c:	eb00038a 	bl	99cc <put32>
    8ba0:	e8bd8038 	pop	{r3, r4, r5, pc}
    8ba4:	cccccccd 	stclgt	12, cr12, [ip], {205}	; 0xcd
    8ba8:	00009b48 	andeq	r9, r0, r8, asr #22

00008bac <gpio_set_on>:
    8bac:	e92d4008 	push	{r3, lr}
    8bb0:	e350001f 	cmp	r0, #31
    8bb4:	88bd8008 	pophi	{r3, pc}
    8bb8:	959f3020 	ldrls	r3, [pc, #32]	; 8be0 <gpio_set_on+0x34>
    8bbc:	95932018 	ldrls	r2, [r3, #24]
    8bc0:	859f3018 	ldrhi	r3, [pc, #24]	; 8be0 <gpio_set_on+0x34>
    8bc4:	8593201c 	ldrhi	r2, [r3, #28]
    8bc8:	e200301f 	and	r3, r0, #31
    8bcc:	e1a00002 	mov	r0, r2
    8bd0:	e3a01001 	mov	r1, #1
    8bd4:	e1a01311 	lsl	r1, r1, r3
    8bd8:	eb00037b 	bl	99cc <put32>
    8bdc:	e8bd8008 	pop	{r3, pc}
    8be0:	00009b48 	andeq	r9, r0, r8, asr #22

00008be4 <gpio_set_off>:
    8be4:	e92d4008 	push	{r3, lr}
    8be8:	e350001f 	cmp	r0, #31
    8bec:	88bd8008 	pophi	{r3, pc}
    8bf0:	959f3020 	ldrls	r3, [pc, #32]	; 8c18 <gpio_set_off+0x34>
    8bf4:	95932020 	ldrls	r2, [r3, #32]
    8bf8:	859f3018 	ldrhi	r3, [pc, #24]	; 8c18 <gpio_set_off+0x34>
    8bfc:	85932024 	ldrhi	r2, [r3, #36]	; 0x24
    8c00:	e200301f 	and	r3, r0, #31
    8c04:	e1a00002 	mov	r0, r2
    8c08:	e3a01001 	mov	r1, #1
    8c0c:	e1a01311 	lsl	r1, r1, r3
    8c10:	eb00036d 	bl	99cc <put32>
    8c14:	e8bd8008 	pop	{r3, pc}
    8c18:	00009b48 	andeq	r9, r0, r8, asr #22

00008c1c <gpio_set_input>:
    8c1c:	e92d4038 	push	{r3, r4, r5, lr}
    8c20:	e1a04000 	mov	r4, r0
    8c24:	e350001f 	cmp	r0, #31
    8c28:	88bd8038 	pophi	{r3, r4, r5, pc}
    8c2c:	e59f30ac 	ldr	r3, [pc, #172]	; 8ce0 <gpio_set_input+0xc4>
    8c30:	e0832093 	umull	r2, r3, r3, r0
    8c34:	e1a031a3 	lsr	r3, r3, #3
    8c38:	e3530005 	cmp	r3, #5
    8c3c:	979ff103 	ldrls	pc, [pc, r3, lsl #2]
    8c40:	ea000017 	b	8ca4 <gpio_set_input+0x88>
    8c44:	00008c5c 	andeq	r8, r0, ip, asr ip
    8c48:	00008c68 	andeq	r8, r0, r8, ror #24
    8c4c:	00008c74 	andeq	r8, r0, r4, ror ip
    8c50:	00008c80 	andeq	r8, r0, r0, lsl #25
    8c54:	00008c8c 	andeq	r8, r0, ip, lsl #25
    8c58:	00008c98 	muleq	r0, r8, ip
    8c5c:	e59f3080 	ldr	r3, [pc, #128]	; 8ce4 <gpio_set_input+0xc8>
    8c60:	e5935000 	ldr	r5, [r3]
    8c64:	ea00000f 	b	8ca8 <gpio_set_input+0x8c>
    8c68:	e59f3074 	ldr	r3, [pc, #116]	; 8ce4 <gpio_set_input+0xc8>
    8c6c:	e5935004 	ldr	r5, [r3, #4]
    8c70:	ea00000c 	b	8ca8 <gpio_set_input+0x8c>
    8c74:	e59f3068 	ldr	r3, [pc, #104]	; 8ce4 <gpio_set_input+0xc8>
    8c78:	e5935008 	ldr	r5, [r3, #8]
    8c7c:	ea000009 	b	8ca8 <gpio_set_input+0x8c>
    8c80:	e59f305c 	ldr	r3, [pc, #92]	; 8ce4 <gpio_set_input+0xc8>
    8c84:	e593500c 	ldr	r5, [r3, #12]
    8c88:	ea000006 	b	8ca8 <gpio_set_input+0x8c>
    8c8c:	e59f3050 	ldr	r3, [pc, #80]	; 8ce4 <gpio_set_input+0xc8>
    8c90:	e5935010 	ldr	r5, [r3, #16]
    8c94:	ea000003 	b	8ca8 <gpio_set_input+0x8c>
    8c98:	e59f3044 	ldr	r3, [pc, #68]	; 8ce4 <gpio_set_input+0xc8>
    8c9c:	e5935014 	ldr	r5, [r3, #20]
    8ca0:	ea000000 	b	8ca8 <gpio_set_input+0x8c>
    8ca4:	e3a05000 	mov	r5, #0
    8ca8:	e1a00005 	mov	r0, r5
    8cac:	eb000352 	bl	99fc <get32>
    8cb0:	e59f1028 	ldr	r1, [pc, #40]	; 8ce0 <gpio_set_input+0xc4>
    8cb4:	e0813491 	umull	r3, r1, r1, r4
    8cb8:	e1a011a1 	lsr	r1, r1, #3
    8cbc:	e0811101 	add	r1, r1, r1, lsl #2
    8cc0:	e1a01081 	lsl	r1, r1, #1
    8cc4:	e0611004 	rsb	r1, r1, r4
    8cc8:	e0811081 	add	r1, r1, r1, lsl #1
    8ccc:	e3a03007 	mov	r3, #7
    8cd0:	e1c01113 	bic	r1, r0, r3, lsl r1
    8cd4:	e1a00005 	mov	r0, r5
    8cd8:	eb00033b 	bl	99cc <put32>
    8cdc:	e8bd8038 	pop	{r3, r4, r5, pc}
    8ce0:	cccccccd 	stclgt	12, cr12, [ip], {205}	; 0xcd
    8ce4:	00009b48 	andeq	r9, r0, r8, asr #22

00008ce8 <gpio_read>:
    8ce8:	e92d4010 	push	{r4, lr}
    8cec:	e1a04000 	mov	r4, r0
    8cf0:	e350001f 	cmp	r0, #31
    8cf4:	8a00000b 	bhi	8d28 <gpio_read+0x40>
    8cf8:	8a000003 	bhi	8d0c <gpio_read+0x24>
    8cfc:	e59f302c 	ldr	r3, [pc, #44]	; 8d30 <gpio_read+0x48>
    8d00:	e5930028 	ldr	r0, [r3, #40]	; 0x28
    8d04:	eb00033c 	bl	99fc <get32>
    8d08:	ea000002 	b	8d18 <gpio_read+0x30>
    8d0c:	e59f301c 	ldr	r3, [pc, #28]	; 8d30 <gpio_read+0x48>
    8d10:	e593002c 	ldr	r0, [r3, #44]	; 0x2c
    8d14:	eb000338 	bl	99fc <get32>
    8d18:	e204401f 	and	r4, r4, #31
    8d1c:	e3a03001 	mov	r3, #1
    8d20:	e0000413 	and	r0, r0, r3, lsl r4
    8d24:	e8bd8010 	pop	{r4, pc}
    8d28:	e3e00000 	mvn	r0, #0
    8d2c:	e8bd8010 	pop	{r4, pc}
    8d30:	00009b48 	andeq	r9, r0, r8, asr #22

00008d34 <gpio_write>:
    8d34:	e92d4008 	push	{r3, lr}
    8d38:	e350001f 	cmp	r0, #31
    8d3c:	88bd8008 	pophi	{r3, pc}
    8d40:	e3510000 	cmp	r1, #0
    8d44:	0a000001 	beq	8d50 <gpio_write+0x1c>
    8d48:	ebffff97 	bl	8bac <gpio_set_on>
    8d4c:	e8bd8008 	pop	{r3, pc}
    8d50:	ebffffa3 	bl	8be4 <gpio_set_off>
    8d54:	e8bd8008 	pop	{r3, pc}

00008d58 <gpio_set_function>:
    8d58:	e92d4070 	push	{r4, r5, r6, lr}
    8d5c:	e1a04000 	mov	r4, r0
    8d60:	e1a05001 	mov	r5, r1
    8d64:	e3510007 	cmp	r1, #7
    8d68:	9350001f 	cmpls	r0, #31
    8d6c:	88bd8070 	pophi	{r4, r5, r6, pc}
    8d70:	e59f30b0 	ldr	r3, [pc, #176]	; 8e28 <gpio_set_function+0xd0>
    8d74:	e0832093 	umull	r2, r3, r3, r0
    8d78:	e1a031a3 	lsr	r3, r3, #3
    8d7c:	e3530005 	cmp	r3, #5
    8d80:	979ff103 	ldrls	pc, [pc, r3, lsl #2]
    8d84:	ea000017 	b	8de8 <gpio_set_function+0x90>
    8d88:	00008da0 	andeq	r8, r0, r0, lsr #27
    8d8c:	00008dac 	andeq	r8, r0, ip, lsr #27
    8d90:	00008db8 			; <UNDEFINED> instruction: 0x00008db8
    8d94:	00008dc4 	andeq	r8, r0, r4, asr #27
    8d98:	00008dd0 	ldrdeq	r8, [r0], -r0
    8d9c:	00008ddc 	ldrdeq	r8, [r0], -ip
    8da0:	e59f3084 	ldr	r3, [pc, #132]	; 8e2c <gpio_set_function+0xd4>
    8da4:	e5936000 	ldr	r6, [r3]
    8da8:	ea00000f 	b	8dec <gpio_set_function+0x94>
    8dac:	e59f3078 	ldr	r3, [pc, #120]	; 8e2c <gpio_set_function+0xd4>
    8db0:	e5936004 	ldr	r6, [r3, #4]
    8db4:	ea00000c 	b	8dec <gpio_set_function+0x94>
    8db8:	e59f306c 	ldr	r3, [pc, #108]	; 8e2c <gpio_set_function+0xd4>
    8dbc:	e5936008 	ldr	r6, [r3, #8]
    8dc0:	ea000009 	b	8dec <gpio_set_function+0x94>
    8dc4:	e59f3060 	ldr	r3, [pc, #96]	; 8e2c <gpio_set_function+0xd4>
    8dc8:	e593600c 	ldr	r6, [r3, #12]
    8dcc:	ea000006 	b	8dec <gpio_set_function+0x94>
    8dd0:	e59f3054 	ldr	r3, [pc, #84]	; 8e2c <gpio_set_function+0xd4>
    8dd4:	e5936010 	ldr	r6, [r3, #16]
    8dd8:	ea000003 	b	8dec <gpio_set_function+0x94>
    8ddc:	e59f3048 	ldr	r3, [pc, #72]	; 8e2c <gpio_set_function+0xd4>
    8de0:	e5936014 	ldr	r6, [r3, #20]
    8de4:	ea000000 	b	8dec <gpio_set_function+0x94>
    8de8:	e3a06000 	mov	r6, #0
    8dec:	e1a00006 	mov	r0, r6
    8df0:	eb000301 	bl	99fc <get32>
    8df4:	e59f302c 	ldr	r3, [pc, #44]	; 8e28 <gpio_set_function+0xd0>
    8df8:	e0832493 	umull	r2, r3, r3, r4
    8dfc:	e1a031a3 	lsr	r3, r3, #3
    8e00:	e0833103 	add	r3, r3, r3, lsl #2
    8e04:	e1a03083 	lsl	r3, r3, #1
    8e08:	e0633004 	rsb	r3, r3, r4
    8e0c:	e0833083 	add	r3, r3, r3, lsl #1
    8e10:	e3a01007 	mov	r1, #7
    8e14:	e1c01311 	bic	r1, r0, r1, lsl r3
    8e18:	e1a00006 	mov	r0, r6
    8e1c:	e1811315 	orr	r1, r1, r5, lsl r3
    8e20:	eb0002e9 	bl	99cc <put32>
    8e24:	e8bd8070 	pop	{r4, r5, r6, pc}
    8e28:	cccccccd 	stclgt	12, cr12, [ip], {205}	; 0xcd
    8e2c:	00009b48 	andeq	r9, r0, r8, asr #22

00008e30 <is_gpio_int>:
    8e30:	e92d4008 	push	{r3, lr}
    8e34:	e59f301c 	ldr	r3, [pc, #28]	; 8e58 <is_gpio_int+0x28>
    8e38:	e5930030 	ldr	r0, [r3, #48]	; 0x30
    8e3c:	eb0002ee 	bl	99fc <get32>
    8e40:	e3500000 	cmp	r0, #0
    8e44:	0a000001 	beq	8e50 <is_gpio_int+0x20>
    8e48:	e3a00001 	mov	r0, #1
    8e4c:	e8bd8008 	pop	{r3, pc}
    8e50:	e3a00000 	mov	r0, #0
    8e54:	e8bd8008 	pop	{r3, pc}
    8e58:	00009b48 	andeq	r9, r0, r8, asr #22

00008e5c <gpio_int_rising_edge>:
    8e5c:	e92d4038 	push	{r3, r4, r5, lr}
    8e60:	e1a04000 	mov	r4, r0
    8e64:	e350001f 	cmp	r0, #31
    8e68:	88bd8038 	pophi	{r3, r4, r5, pc}
    8e6c:	eb0002d0 	bl	99b4 <dev_barrier>
    8e70:	e354001f 	cmp	r4, #31
    8e74:	8a000007 	bhi	8e98 <gpio_int_rising_edge+0x3c>
    8e78:	e59f505c 	ldr	r5, [pc, #92]	; 8edc <gpio_int_rising_edge+0x80>
    8e7c:	e5950034 	ldr	r0, [r5, #52]	; 0x34
    8e80:	eb0002dd 	bl	99fc <get32>
    8e84:	e3a01001 	mov	r1, #1
    8e88:	e1801411 	orr	r1, r0, r1, lsl r4
    8e8c:	e5950034 	ldr	r0, [r5, #52]	; 0x34
    8e90:	eb0002cd 	bl	99cc <put32>
    8e94:	ea000007 	b	8eb8 <gpio_int_rising_edge+0x5c>
    8e98:	e59f503c 	ldr	r5, [pc, #60]	; 8edc <gpio_int_rising_edge+0x80>
    8e9c:	e5950038 	ldr	r0, [r5, #56]	; 0x38
    8ea0:	eb0002d5 	bl	99fc <get32>
    8ea4:	e204401f 	and	r4, r4, #31
    8ea8:	e3a01001 	mov	r1, #1
    8eac:	e1801411 	orr	r1, r0, r1, lsl r4
    8eb0:	e5950038 	ldr	r0, [r5, #56]	; 0x38
    8eb4:	eb0002c4 	bl	99cc <put32>
    8eb8:	eb0002bd 	bl	99b4 <dev_barrier>
    8ebc:	e59f4018 	ldr	r4, [pc, #24]	; 8edc <gpio_int_rising_edge+0x80>
    8ec0:	e594003c 	ldr	r0, [r4, #60]	; 0x3c
    8ec4:	eb0002cc 	bl	99fc <get32>
    8ec8:	e3801802 	orr	r1, r0, #131072	; 0x20000
    8ecc:	e594003c 	ldr	r0, [r4, #60]	; 0x3c
    8ed0:	eb0002bd 	bl	99cc <put32>
    8ed4:	eb0002b6 	bl	99b4 <dev_barrier>
    8ed8:	e8bd8038 	pop	{r3, r4, r5, pc}
    8edc:	00009b48 	andeq	r9, r0, r8, asr #22

00008ee0 <gpio_int_falling_edge>:
    8ee0:	e92d4038 	push	{r3, r4, r5, lr}
    8ee4:	e1a04000 	mov	r4, r0
    8ee8:	e350001f 	cmp	r0, #31
    8eec:	88bd8038 	pophi	{r3, r4, r5, pc}
    8ef0:	eb0002af 	bl	99b4 <dev_barrier>
    8ef4:	e354001f 	cmp	r4, #31
    8ef8:	8a000007 	bhi	8f1c <gpio_int_falling_edge+0x3c>
    8efc:	e59f505c 	ldr	r5, [pc, #92]	; 8f60 <gpio_int_falling_edge+0x80>
    8f00:	e5950040 	ldr	r0, [r5, #64]	; 0x40
    8f04:	eb0002bc 	bl	99fc <get32>
    8f08:	e3a01001 	mov	r1, #1
    8f0c:	e1801411 	orr	r1, r0, r1, lsl r4
    8f10:	e5950040 	ldr	r0, [r5, #64]	; 0x40
    8f14:	eb0002ac 	bl	99cc <put32>
    8f18:	ea000007 	b	8f3c <gpio_int_falling_edge+0x5c>
    8f1c:	e59f503c 	ldr	r5, [pc, #60]	; 8f60 <gpio_int_falling_edge+0x80>
    8f20:	e5950044 	ldr	r0, [r5, #68]	; 0x44
    8f24:	eb0002b4 	bl	99fc <get32>
    8f28:	e204401f 	and	r4, r4, #31
    8f2c:	e3a01001 	mov	r1, #1
    8f30:	e1801411 	orr	r1, r0, r1, lsl r4
    8f34:	e5950044 	ldr	r0, [r5, #68]	; 0x44
    8f38:	eb0002a3 	bl	99cc <put32>
    8f3c:	eb00029c 	bl	99b4 <dev_barrier>
    8f40:	e59f4018 	ldr	r4, [pc, #24]	; 8f60 <gpio_int_falling_edge+0x80>
    8f44:	e594003c 	ldr	r0, [r4, #60]	; 0x3c
    8f48:	eb0002ab 	bl	99fc <get32>
    8f4c:	e3801601 	orr	r1, r0, #1048576	; 0x100000
    8f50:	e594003c 	ldr	r0, [r4, #60]	; 0x3c
    8f54:	eb00029c 	bl	99cc <put32>
    8f58:	eb000295 	bl	99b4 <dev_barrier>
    8f5c:	e8bd8038 	pop	{r3, r4, r5, pc}
    8f60:	00009b48 	andeq	r9, r0, r8, asr #22

00008f64 <gpio_event_detected>:
    8f64:	e92d4010 	push	{r4, lr}
    8f68:	e1a04000 	mov	r4, r0
    8f6c:	e350001f 	cmp	r0, #31
    8f70:	8a000019 	bhi	8fdc <gpio_event_detected+0x78>
    8f74:	eb00028e 	bl	99b4 <dev_barrier>
    8f78:	e354001f 	cmp	r4, #31
    8f7c:	8a000008 	bhi	8fa4 <gpio_event_detected+0x40>
    8f80:	e59f305c 	ldr	r3, [pc, #92]	; 8fe4 <gpio_event_detected+0x80>
    8f84:	e5930048 	ldr	r0, [r3, #72]	; 0x48
    8f88:	eb00029b 	bl	99fc <get32>
    8f8c:	e3a03001 	mov	r3, #1
    8f90:	e0103413 	ands	r3, r0, r3, lsl r4
    8f94:	0a00000d 	beq	8fd0 <gpio_event_detected+0x6c>
    8f98:	eb000285 	bl	99b4 <dev_barrier>
    8f9c:	e3a00001 	mov	r0, #1
    8fa0:	e8bd8010 	pop	{r4, pc}
    8fa4:	e59f3038 	ldr	r3, [pc, #56]	; 8fe4 <gpio_event_detected+0x80>
    8fa8:	e593004c 	ldr	r0, [r3, #76]	; 0x4c
    8fac:	eb000292 	bl	99fc <get32>
    8fb0:	e3a03001 	mov	r3, #1
    8fb4:	e0004413 	and	r4, r0, r3, lsl r4
    8fb8:	eb00027d 	bl	99b4 <dev_barrier>
    8fbc:	e3540000 	cmp	r4, #0
    8fc0:	0a000002 	beq	8fd0 <gpio_event_detected+0x6c>
    8fc4:	eb00027a 	bl	99b4 <dev_barrier>
    8fc8:	e3a00001 	mov	r0, #1
    8fcc:	e8bd8010 	pop	{r4, pc}
    8fd0:	eb000277 	bl	99b4 <dev_barrier>
    8fd4:	e3a00000 	mov	r0, #0
    8fd8:	e8bd8010 	pop	{r4, pc}
    8fdc:	e3e00000 	mvn	r0, #0
    8fe0:	e8bd8010 	pop	{r4, pc}
    8fe4:	00009b48 	andeq	r9, r0, r8, asr #22

00008fe8 <gpio_event_clear>:
    8fe8:	e92d4010 	push	{r4, lr}
    8fec:	e1a04000 	mov	r4, r0
    8ff0:	e350001f 	cmp	r0, #31
    8ff4:	88bd8010 	pophi	{r4, pc}
    8ff8:	eb00026d 	bl	99b4 <dev_barrier>
    8ffc:	e354001f 	cmp	r4, #31
    9000:	8a000005 	bhi	901c <gpio_event_clear+0x34>
    9004:	e59f3030 	ldr	r3, [pc, #48]	; 903c <gpio_event_clear+0x54>
    9008:	e5930048 	ldr	r0, [r3, #72]	; 0x48
    900c:	e3a01001 	mov	r1, #1
    9010:	e1a01411 	lsl	r1, r1, r4
    9014:	eb00026c 	bl	99cc <put32>
    9018:	ea000005 	b	9034 <gpio_event_clear+0x4c>
    901c:	e204401f 	and	r4, r4, #31
    9020:	e59f3014 	ldr	r3, [pc, #20]	; 903c <gpio_event_clear+0x54>
    9024:	e593004c 	ldr	r0, [r3, #76]	; 0x4c
    9028:	e3a01001 	mov	r1, #1
    902c:	e1a01411 	lsl	r1, r1, r4
    9030:	eb000265 	bl	99cc <put32>
    9034:	eb00025e 	bl	99b4 <dev_barrier>
    9038:	e8bd8010 	pop	{r4, pc}
    903c:	00009b48 	andeq	r9, r0, r8, asr #22

00009040 <sw_uart_putc>:
    9040:	e92d41f0 	push	{r4, r5, r6, r7, r8, lr}
    9044:	e1a07001 	mov	r7, r1
    9048:	e5d06000 	ldrb	r6, [r0]
    904c:	e5905008 	ldr	r5, [r0, #8]
    9050:	ee1f4f3c 	mrc	15, 0, r4, cr15, cr12, {1}
    9054:	e1a00006 	mov	r0, r6
    9058:	e3a01000 	mov	r1, #0
    905c:	ebffff34 	bl	8d34 <gpio_write>
    9060:	ee1f3f3c 	mrc	15, 0, r3, cr15, cr12, {1}
    9064:	e0643003 	rsb	r3, r4, r3
    9068:	e1550003 	cmp	r5, r3
    906c:	8afffffb 	bhi	9060 <sw_uart_putc+0x20>
    9070:	e1a08085 	lsl	r8, r5, #1
    9074:	e1a00006 	mov	r0, r6
    9078:	e2071001 	and	r1, r7, #1
    907c:	ebffff2c 	bl	8d34 <gpio_write>
    9080:	ee1f3f3c 	mrc	15, 0, r3, cr15, cr12, {1}
    9084:	e0643003 	rsb	r3, r4, r3
    9088:	e1580003 	cmp	r8, r3
    908c:	8afffffb 	bhi	9080 <sw_uart_putc+0x40>
    9090:	e0888005 	add	r8, r8, r5
    9094:	e1a00006 	mov	r0, r6
    9098:	e2071002 	and	r1, r7, #2
    909c:	ebffff24 	bl	8d34 <gpio_write>
    90a0:	ee1f3f3c 	mrc	15, 0, r3, cr15, cr12, {1}
    90a4:	e0643003 	rsb	r3, r4, r3
    90a8:	e1580003 	cmp	r8, r3
    90ac:	8afffffb 	bhi	90a0 <sw_uart_putc+0x60>
    90b0:	e0888005 	add	r8, r8, r5
    90b4:	e1a00006 	mov	r0, r6
    90b8:	e2071004 	and	r1, r7, #4
    90bc:	ebffff1c 	bl	8d34 <gpio_write>
    90c0:	ee1f3f3c 	mrc	15, 0, r3, cr15, cr12, {1}
    90c4:	e0643003 	rsb	r3, r4, r3
    90c8:	e1580003 	cmp	r8, r3
    90cc:	8afffffb 	bhi	90c0 <sw_uart_putc+0x80>
    90d0:	e0888005 	add	r8, r8, r5
    90d4:	e1a00006 	mov	r0, r6
    90d8:	e2071008 	and	r1, r7, #8
    90dc:	ebffff14 	bl	8d34 <gpio_write>
    90e0:	ee1f3f3c 	mrc	15, 0, r3, cr15, cr12, {1}
    90e4:	e0643003 	rsb	r3, r4, r3
    90e8:	e1580003 	cmp	r8, r3
    90ec:	8afffffb 	bhi	90e0 <sw_uart_putc+0xa0>
    90f0:	e0888005 	add	r8, r8, r5
    90f4:	e1a00006 	mov	r0, r6
    90f8:	e2071010 	and	r1, r7, #16
    90fc:	ebffff0c 	bl	8d34 <gpio_write>
    9100:	ee1f3f3c 	mrc	15, 0, r3, cr15, cr12, {1}
    9104:	e0643003 	rsb	r3, r4, r3
    9108:	e1580003 	cmp	r8, r3
    910c:	8afffffb 	bhi	9100 <sw_uart_putc+0xc0>
    9110:	e0888005 	add	r8, r8, r5
    9114:	e1a00006 	mov	r0, r6
    9118:	e2071020 	and	r1, r7, #32
    911c:	ebffff04 	bl	8d34 <gpio_write>
    9120:	ee1f3f3c 	mrc	15, 0, r3, cr15, cr12, {1}
    9124:	e0643003 	rsb	r3, r4, r3
    9128:	e1580003 	cmp	r8, r3
    912c:	8afffffb 	bhi	9120 <sw_uart_putc+0xe0>
    9130:	e0888005 	add	r8, r8, r5
    9134:	e1a00006 	mov	r0, r6
    9138:	e2071040 	and	r1, r7, #64	; 0x40
    913c:	ebfffefc 	bl	8d34 <gpio_write>
    9140:	ee1f3f3c 	mrc	15, 0, r3, cr15, cr12, {1}
    9144:	e0643003 	rsb	r3, r4, r3
    9148:	e1580003 	cmp	r8, r3
    914c:	8afffffb 	bhi	9140 <sw_uart_putc+0x100>
    9150:	e0888005 	add	r8, r8, r5
    9154:	e1a00006 	mov	r0, r6
    9158:	e2071080 	and	r1, r7, #128	; 0x80
    915c:	ebfffef4 	bl	8d34 <gpio_write>
    9160:	ee1f3f3c 	mrc	15, 0, r3, cr15, cr12, {1}
    9164:	e0643003 	rsb	r3, r4, r3
    9168:	e1580003 	cmp	r8, r3
    916c:	8afffffb 	bhi	9160 <sw_uart_putc+0x120>
    9170:	e0885005 	add	r5, r8, r5
    9174:	e1a00006 	mov	r0, r6
    9178:	e3a01001 	mov	r1, #1
    917c:	ebfffeec 	bl	8d34 <gpio_write>
    9180:	ee1f3f3c 	mrc	15, 0, r3, cr15, cr12, {1}
    9184:	e0643003 	rsb	r3, r4, r3
    9188:	e1550003 	cmp	r5, r3
    918c:	8afffffb 	bhi	9180 <sw_uart_putc+0x140>
    9190:	e8bd81f0 	pop	{r4, r5, r6, r7, r8, pc}

00009194 <sw_uart_getc_timeout>:
    9194:	e92d43f8 	push	{r3, r4, r5, r6, r7, r8, r9, lr}
    9198:	e1a09000 	mov	r9, r0
    919c:	e5d07001 	ldrb	r7, [r0, #1]
    91a0:	e1a05007 	mov	r5, r7
    91a4:	e1a06001 	mov	r6, r1
    91a8:	ebfffe2f 	bl	8a6c <timer_get_usec_raw>
    91ac:	e1a04000 	mov	r4, r0
    91b0:	e1a00005 	mov	r0, r5
    91b4:	ebfffecb 	bl	8ce8 <gpio_read>
    91b8:	e3500000 	cmp	r0, #0
    91bc:	0a000005 	beq	91d8 <sw_uart_getc_timeout+0x44>
    91c0:	ebfffe29 	bl	8a6c <timer_get_usec_raw>
    91c4:	e0640000 	rsb	r0, r4, r0
    91c8:	e1560000 	cmp	r6, r0
    91cc:	2afffff7 	bcs	91b0 <sw_uart_getc_timeout+0x1c>
    91d0:	e3a03000 	mov	r3, #0
    91d4:	ea000000 	b	91dc <sw_uart_getc_timeout+0x48>
    91d8:	e3a03001 	mov	r3, #1
    91dc:	e3530000 	cmp	r3, #0
    91e0:	0a000059 	beq	934c <sw_uart_getc_timeout+0x1b8>
    91e4:	ee1f8f3c 	mrc	15, 0, r8, cr15, cr12, {1}
    91e8:	e5994008 	ldr	r4, [r9, #8]
    91ec:	e08420a4 	add	r2, r4, r4, lsr #1
    91f0:	ee1f3f3c 	mrc	15, 0, r3, cr15, cr12, {1}
    91f4:	e0683003 	rsb	r3, r8, r3
    91f8:	e1520003 	cmp	r2, r3
    91fc:	8afffffb 	bhi	91f0 <sw_uart_getc_timeout+0x5c>
    9200:	e0888004 	add	r8, r8, r4
    9204:	e1a00007 	mov	r0, r7
    9208:	ebfffeb6 	bl	8ce8 <gpio_read>
    920c:	e1a09750 	asr	r9, r0, r7
    9210:	ee1f3f3c 	mrc	15, 0, r3, cr15, cr12, {1}
    9214:	e0683003 	rsb	r3, r8, r3
    9218:	e1540003 	cmp	r4, r3
    921c:	8afffffb 	bhi	9210 <sw_uart_getc_timeout+0x7c>
    9220:	e0888004 	add	r8, r8, r4
    9224:	e1a00007 	mov	r0, r7
    9228:	ebfffeae 	bl	8ce8 <gpio_read>
    922c:	e1a00750 	asr	r0, r0, r7
    9230:	e1899080 	orr	r9, r9, r0, lsl #1
    9234:	ee1f3f3c 	mrc	15, 0, r3, cr15, cr12, {1}
    9238:	e0683003 	rsb	r3, r8, r3
    923c:	e1540003 	cmp	r4, r3
    9240:	8afffffb 	bhi	9234 <sw_uart_getc_timeout+0xa0>
    9244:	e0888004 	add	r8, r8, r4
    9248:	e1a00007 	mov	r0, r7
    924c:	ebfffea5 	bl	8ce8 <gpio_read>
    9250:	e1a00750 	asr	r0, r0, r7
    9254:	e1899100 	orr	r9, r9, r0, lsl #2
    9258:	ee1f3f3c 	mrc	15, 0, r3, cr15, cr12, {1}
    925c:	e0683003 	rsb	r3, r8, r3
    9260:	e1540003 	cmp	r4, r3
    9264:	8afffffb 	bhi	9258 <sw_uart_getc_timeout+0xc4>
    9268:	e0888004 	add	r8, r8, r4
    926c:	e1a00007 	mov	r0, r7
    9270:	ebfffe9c 	bl	8ce8 <gpio_read>
    9274:	e1a00750 	asr	r0, r0, r7
    9278:	e1899180 	orr	r9, r9, r0, lsl #3
    927c:	ee1f3f3c 	mrc	15, 0, r3, cr15, cr12, {1}
    9280:	e0683003 	rsb	r3, r8, r3
    9284:	e1540003 	cmp	r4, r3
    9288:	8afffffb 	bhi	927c <sw_uart_getc_timeout+0xe8>
    928c:	e0888004 	add	r8, r8, r4
    9290:	e1a00007 	mov	r0, r7
    9294:	ebfffe93 	bl	8ce8 <gpio_read>
    9298:	e1a00750 	asr	r0, r0, r7
    929c:	e1899200 	orr	r9, r9, r0, lsl #4
    92a0:	ee1f3f3c 	mrc	15, 0, r3, cr15, cr12, {1}
    92a4:	e0683003 	rsb	r3, r8, r3
    92a8:	e1540003 	cmp	r4, r3
    92ac:	8afffffb 	bhi	92a0 <sw_uart_getc_timeout+0x10c>
    92b0:	e0888004 	add	r8, r8, r4
    92b4:	e1a00007 	mov	r0, r7
    92b8:	ebfffe8a 	bl	8ce8 <gpio_read>
    92bc:	e1a00750 	asr	r0, r0, r7
    92c0:	e1899280 	orr	r9, r9, r0, lsl #5
    92c4:	ee1f3f3c 	mrc	15, 0, r3, cr15, cr12, {1}
    92c8:	e0683003 	rsb	r3, r8, r3
    92cc:	e1540003 	cmp	r4, r3
    92d0:	8afffffb 	bhi	92c4 <sw_uart_getc_timeout+0x130>
    92d4:	e0888004 	add	r8, r8, r4
    92d8:	e1a00007 	mov	r0, r7
    92dc:	ebfffe81 	bl	8ce8 <gpio_read>
    92e0:	e1a00750 	asr	r0, r0, r7
    92e4:	e1899300 	orr	r9, r9, r0, lsl #6
    92e8:	ee1f3f3c 	mrc	15, 0, r3, cr15, cr12, {1}
    92ec:	e0683003 	rsb	r3, r8, r3
    92f0:	e1540003 	cmp	r4, r3
    92f4:	8afffffb 	bhi	92e8 <sw_uart_getc_timeout+0x154>
    92f8:	e1a00007 	mov	r0, r7
    92fc:	ebfffe79 	bl	8ce8 <gpio_read>
    9300:	e1a00750 	asr	r0, r0, r7
    9304:	e1899380 	orr	r9, r9, r0, lsl #7
    9308:	ebfffdd7 	bl	8a6c <timer_get_usec_raw>
    930c:	e1a04000 	mov	r4, r0
    9310:	e1a00005 	mov	r0, r5
    9314:	ebfffe73 	bl	8ce8 <gpio_read>
    9318:	e3500000 	cmp	r0, #0
    931c:	0a000005 	beq	9338 <sw_uart_getc_timeout+0x1a4>
    9320:	ebfffdd1 	bl	8a6c <timer_get_usec_raw>
    9324:	e0640000 	rsb	r0, r4, r0
    9328:	e1560000 	cmp	r6, r0
    932c:	2afffff7 	bcs	9310 <sw_uart_getc_timeout+0x17c>
    9330:	e3a03000 	mov	r3, #0
    9334:	ea000000 	b	933c <sw_uart_getc_timeout+0x1a8>
    9338:	e3a03001 	mov	r3, #1
    933c:	e3530000 	cmp	r3, #0
    9340:	0a000003 	beq	9354 <sw_uart_getc_timeout+0x1c0>
    9344:	e1a00009 	mov	r0, r9
    9348:	e8bd83f8 	pop	{r3, r4, r5, r6, r7, r8, r9, pc}
    934c:	e3e00000 	mvn	r0, #0
    9350:	e8bd83f8 	pop	{r3, r4, r5, r6, r7, r8, r9, pc}
    9354:	e3e00000 	mvn	r0, #0
    9358:	e8bd83f8 	pop	{r3, r4, r5, r6, r7, r8, r9, pc}

0000935c <sw_uart_gets_until>:
    935c:	e92d47f0 	push	{r4, r5, r6, r7, r8, r9, sl, lr}
    9360:	e1a08000 	mov	r8, r0
    9364:	e1a06001 	mov	r6, r1
    9368:	e1a09003 	mov	r9, r3
    936c:	e59da020 	ldr	sl, [sp, #32]
    9370:	e3520000 	cmp	r2, #0
    9374:	1a000006 	bne	9394 <sw_uart_gets_until+0x38>
    9378:	ebfffc04 	bl	8390 <rpi_reset_putc>
    937c:	e59f005c 	ldr	r0, [pc, #92]	; 93e0 <sw_uart_gets_until+0x84>
    9380:	e59f105c 	ldr	r1, [pc, #92]	; 93e4 <sw_uart_gets_until+0x88>
    9384:	e59f205c 	ldr	r2, [pc, #92]	; 93e8 <sw_uart_gets_until+0x8c>
    9388:	e3a0306d 	mov	r3, #109	; 0x6d
    938c:	ebfffbe4 	bl	8324 <printk>
    9390:	ebfffd5b 	bl	8904 <clean_reboot>
    9394:	e3a04000 	mov	r4, #0
    9398:	e5c14000 	strb	r4, [r1]
    939c:	e2427001 	sub	r7, r2, #1
    93a0:	ea000007 	b	93c4 <sw_uart_gets_until+0x68>
    93a4:	e1a00008 	mov	r0, r8
    93a8:	e1a0100a 	mov	r1, sl
    93ac:	ebffff78 	bl	9194 <sw_uart_getc_timeout>
    93b0:	e6ef0070 	uxtb	r0, r0
    93b4:	e1500009 	cmp	r0, r9
    93b8:	0a000004 	beq	93d0 <sw_uart_gets_until+0x74>
    93bc:	e7c60005 	strb	r0, [r6, r5]
    93c0:	e2844001 	add	r4, r4, #1
    93c4:	e1a05004 	mov	r5, r4
    93c8:	e1540007 	cmp	r4, r7
    93cc:	3afffff4 	bcc	93a4 <sw_uart_gets_until+0x48>
    93d0:	e3a03000 	mov	r3, #0
    93d4:	e7c63005 	strb	r3, [r6, r5]
    93d8:	e1a00004 	mov	r0, r4
    93dc:	e8bd87f0 	pop	{r4, r5, r6, r7, r8, r9, sl, pc}
    93e0:	00009e9c 	muleq	r0, ip, lr
    93e4:	00009eb8 			; <UNDEFINED> instruction: 0x00009eb8
    93e8:	00009e24 	andeq	r9, r0, r4, lsr #28

000093ec <sw_uart_gets_timeout>:
    93ec:	e92d41f0 	push	{r4, r5, r6, r7, r8, lr}
    93f0:	e1a07000 	mov	r7, r0
    93f4:	e1a05001 	mov	r5, r1
    93f8:	e1a08003 	mov	r8, r3
    93fc:	e3520000 	cmp	r2, #0
    9400:	1a000006 	bne	9420 <sw_uart_gets_timeout+0x34>
    9404:	ebfffbe1 	bl	8390 <rpi_reset_putc>
    9408:	e59f004c 	ldr	r0, [pc, #76]	; 945c <sw_uart_gets_timeout+0x70>
    940c:	e59f104c 	ldr	r1, [pc, #76]	; 9460 <sw_uart_gets_timeout+0x74>
    9410:	e59f204c 	ldr	r2, [pc, #76]	; 9464 <sw_uart_gets_timeout+0x78>
    9414:	e3a03083 	mov	r3, #131	; 0x83
    9418:	ebfffbc1 	bl	8324 <printk>
    941c:	ebfffd38 	bl	8904 <clean_reboot>
    9420:	e3a04000 	mov	r4, #0
    9424:	e5c14000 	strb	r4, [r1]
    9428:	e2426001 	sub	r6, r2, #1
    942c:	ea000004 	b	9444 <sw_uart_gets_timeout+0x58>
    9430:	e1a00007 	mov	r0, r7
    9434:	e1a01008 	mov	r1, r8
    9438:	ebffff55 	bl	9194 <sw_uart_getc_timeout>
    943c:	e7c50004 	strb	r0, [r5, r4]
    9440:	e2844001 	add	r4, r4, #1
    9444:	e1540006 	cmp	r4, r6
    9448:	3afffff8 	bcc	9430 <sw_uart_gets_timeout+0x44>
    944c:	e3a03000 	mov	r3, #0
    9450:	e7c53004 	strb	r3, [r5, r4]
    9454:	e1a00004 	mov	r0, r4
    9458:	e8bd81f0 	pop	{r4, r5, r6, r7, r8, pc}
    945c:	00009e9c 	muleq	r0, ip, lr
    9460:	00009eb8 			; <UNDEFINED> instruction: 0x00009eb8
    9464:	00009e38 	andeq	r9, r0, r8, lsr lr

00009468 <sw_uart_init_helper>:
    9468:	e92d41f0 	push	{r4, r5, r6, r7, r8, lr}
    946c:	e1a04000 	mov	r4, r0
    9470:	e1a06001 	mov	r6, r1
    9474:	e1a08002 	mov	r8, r2
    9478:	e1a05003 	mov	r5, r3
    947c:	e59d7018 	ldr	r7, [sp, #24]
    9480:	e1a00001 	mov	r0, r1
    9484:	ebfffd93 	bl	8ad8 <gpio_set_output>
    9488:	e1a00008 	mov	r0, r8
    948c:	ebfffde2 	bl	8c1c <gpio_set_input>
    9490:	e3a03001 	mov	r3, #1
    9494:	ee0f3f1c 	mcr	15, 0, r3, cr15, cr12, {0}
    9498:	e1a00006 	mov	r0, r6
    949c:	e3a01001 	mov	r1, #1
    94a0:	ebfffe23 	bl	8d34 <gpio_write>
    94a4:	e0020795 	mul	r2, r5, r7
    94a8:	e59f3068 	ldr	r3, [pc, #104]	; 9518 <sw_uart_init_helper+0xb0>
    94ac:	e0653003 	rsb	r3, r5, r3
    94b0:	e1530002 	cmp	r3, r2
    94b4:	8a000005 	bhi	94d0 <sw_uart_init_helper+0x68>
    94b8:	e59f3058 	ldr	r3, [pc, #88]	; 9518 <sw_uart_init_helper+0xb0>
    94bc:	e0853003 	add	r3, r5, r3
    94c0:	e1530002 	cmp	r3, r2
    94c4:	2a000003 	bcs	94d8 <sw_uart_init_helper+0x70>
    94c8:	e3a03000 	mov	r3, #0
    94cc:	ea000002 	b	94dc <sw_uart_init_helper+0x74>
    94d0:	e3a03000 	mov	r3, #0
    94d4:	ea000000 	b	94dc <sw_uart_init_helper+0x74>
    94d8:	e3a03001 	mov	r3, #1
    94dc:	e3530000 	cmp	r3, #0
    94e0:	1a000006 	bne	9500 <sw_uart_init_helper+0x98>
    94e4:	ebfffba9 	bl	8390 <rpi_reset_putc>
    94e8:	e59f002c 	ldr	r0, [pc, #44]	; 951c <sw_uart_init_helper+0xb4>
    94ec:	e59f102c 	ldr	r1, [pc, #44]	; 9520 <sw_uart_init_helper+0xb8>
    94f0:	e59f202c 	ldr	r2, [pc, #44]	; 9524 <sw_uart_init_helper+0xbc>
    94f4:	e3a0309d 	mov	r3, #157	; 0x9d
    94f8:	ebfffb89 	bl	8324 <printk>
    94fc:	ebfffd00 	bl	8904 <clean_reboot>
    9500:	e5c46000 	strb	r6, [r4]
    9504:	e5c48001 	strb	r8, [r4, #1]
    9508:	e5845004 	str	r5, [r4, #4]
    950c:	e5847008 	str	r7, [r4, #8]
    9510:	e1a00004 	mov	r0, r4
    9514:	e8bd81f0 	pop	{r4, r5, r6, r7, r8, pc}
    9518:	29b92700 	ldmibcs	r9!, {r8, r9, sl, sp}
    951c:	00009ecc 	andeq	r9, r0, ip, asr #29
    9520:	00009eb8 			; <UNDEFINED> instruction: 0x00009eb8
    9524:	00009e50 	andeq	r9, r0, r0, asr lr

00009528 <sw_uart_getc>:
    9528:	e92d4008 	push	{r3, lr}
    952c:	e3e01000 	mvn	r1, #0
    9530:	ebffff17 	bl	9194 <sw_uart_getc_timeout>
    9534:	e3500000 	cmp	r0, #0
    9538:	a8bd8008 	popge	{r3, pc}
    953c:	ebfffb93 	bl	8390 <rpi_reset_putc>
    9540:	e59f0010 	ldr	r0, [pc, #16]	; 9558 <sw_uart_getc+0x30>
    9544:	e59f1010 	ldr	r1, [pc, #16]	; 955c <sw_uart_getc+0x34>
    9548:	e59f2010 	ldr	r2, [pc, #16]	; 9560 <sw_uart_getc+0x38>
    954c:	e3a030ac 	mov	r3, #172	; 0xac
    9550:	ebfffb73 	bl	8324 <printk>
    9554:	ebfffcea 	bl	8904 <clean_reboot>
    9558:	00009f10 	andeq	r9, r0, r0, lsl pc
    955c:	00009eb8 			; <UNDEFINED> instruction: 0x00009eb8
    9560:	00009e64 	andeq	r9, r0, r4, ror #28

00009564 <sw_uart_putk>:
    9564:	e92d4038 	push	{r3, r4, r5, lr}
    9568:	e1a05000 	mov	r5, r0
    956c:	e1a04001 	mov	r4, r1
    9570:	ea000002 	b	9580 <sw_uart_putk+0x1c>
    9574:	e1a00005 	mov	r0, r5
    9578:	ebfffeb0 	bl	9040 <sw_uart_putc>
    957c:	e2844001 	add	r4, r4, #1
    9580:	e5d41000 	ldrb	r1, [r4]
    9584:	e3510000 	cmp	r1, #0
    9588:	1afffff9 	bne	9574 <sw_uart_putk+0x10>
    958c:	e8bd8038 	pop	{r3, r4, r5, pc}

00009590 <sw_uart_printk>:
    9590:	e92d000e 	push	{r1, r2, r3}
    9594:	e92d4030 	push	{r4, r5, lr}
    9598:	e24dde1d 	sub	sp, sp, #464	; 0x1d0
    959c:	e1a05000 	mov	r5, r0
    95a0:	e28d3e1e 	add	r3, sp, #480	; 0x1e0
    95a4:	e58d3000 	str	r3, [sp]
    95a8:	e28d0004 	add	r0, sp, #4
    95ac:	e3a01f73 	mov	r1, #460	; 0x1cc
    95b0:	e59d21dc 	ldr	r2, [sp, #476]	; 0x1dc
    95b4:	ebfffc28 	bl	865c <va_printk>
    95b8:	e1a04000 	mov	r4, r0
    95bc:	e59f3040 	ldr	r3, [pc, #64]	; 9604 <sw_uart_printk+0x74>
    95c0:	e1500003 	cmp	r0, r3
    95c4:	9a000006 	bls	95e4 <sw_uart_printk+0x54>
    95c8:	ebfffb70 	bl	8390 <rpi_reset_putc>
    95cc:	e59f0034 	ldr	r0, [pc, #52]	; 9608 <sw_uart_printk+0x78>
    95d0:	e59f1034 	ldr	r1, [pc, #52]	; 960c <sw_uart_printk+0x7c>
    95d4:	e59f2034 	ldr	r2, [pc, #52]	; 9610 <sw_uart_printk+0x80>
    95d8:	e3a030c0 	mov	r3, #192	; 0xc0
    95dc:	ebfffb50 	bl	8324 <printk>
    95e0:	ebfffcc7 	bl	8904 <clean_reboot>
    95e4:	e1a00005 	mov	r0, r5
    95e8:	e28d1004 	add	r1, sp, #4
    95ec:	ebffffdc 	bl	9564 <sw_uart_putk>
    95f0:	e1a00004 	mov	r0, r4
    95f4:	e28dde1d 	add	sp, sp, #464	; 0x1d0
    95f8:	e8bd4030 	pop	{r4, r5, lr}
    95fc:	e28dd00c 	add	sp, sp, #12
    9600:	e12fff1e 	bx	lr
    9604:	000001ca 	andeq	r0, r0, sl, asr #3
    9608:	00009f48 	andeq	r9, r0, r8, asr #30
    960c:	00009eb8 			; <UNDEFINED> instruction: 0x00009eb8
    9610:	00009e74 	andeq	r9, r0, r4, ror lr

00009614 <sw_uart_gets_until_blk>:
    9614:	e52de004 	push	{lr}		; (str lr, [sp, #-4]!)
    9618:	e24dd00c 	sub	sp, sp, #12
    961c:	e3e0c000 	mvn	ip, #0
    9620:	e58dc000 	str	ip, [sp]
    9624:	ebffff4c 	bl	935c <sw_uart_gets_until>
    9628:	e3500000 	cmp	r0, #0
    962c:	aa000006 	bge	964c <sw_uart_gets_until_blk+0x38>
    9630:	ebfffb56 	bl	8390 <rpi_reset_putc>
    9634:	e59f0018 	ldr	r0, [pc, #24]	; 9654 <sw_uart_gets_until_blk+0x40>
    9638:	e59f1018 	ldr	r1, [pc, #24]	; 9658 <sw_uart_gets_until_blk+0x44>
    963c:	e59f2018 	ldr	r2, [pc, #24]	; 965c <sw_uart_gets_until_blk+0x48>
    9640:	e3a030c8 	mov	r3, #200	; 0xc8
    9644:	ebfffb36 	bl	8324 <printk>
    9648:	ebfffcad 	bl	8904 <clean_reboot>
    964c:	e28dd00c 	add	sp, sp, #12
    9650:	e49df004 	pop	{pc}		; (ldr pc, [sp], #4)
    9654:	00009f10 	andeq	r9, r0, r0, lsl pc
    9658:	00009eb8 			; <UNDEFINED> instruction: 0x00009eb8
    965c:	00009e84 	andeq	r9, r0, r4, lsl #29

00009660 <uart_init>:
    9660:	e92d4038 	push	{r3, r4, r5, lr}
    9664:	eb0000d2 	bl	99b4 <dev_barrier>
    9668:	e3a0000e 	mov	r0, #14
    966c:	e3a01002 	mov	r1, #2
    9670:	ebfffdb8 	bl	8d58 <gpio_set_function>
    9674:	e3a0000f 	mov	r0, #15
    9678:	e3a01002 	mov	r1, #2
    967c:	ebfffdb5 	bl	8d58 <gpio_set_function>
    9680:	eb0000cb 	bl	99b4 <dev_barrier>
    9684:	e59f4068 	ldr	r4, [pc, #104]	; 96f4 <uart_init+0x94>
    9688:	e5945000 	ldr	r5, [r4]
    968c:	e1a00005 	mov	r0, r5
    9690:	eb0000d9 	bl	99fc <get32>
    9694:	e3801001 	orr	r1, r0, #1
    9698:	e1a00005 	mov	r0, r5
    969c:	eb0000ca 	bl	99cc <put32>
    96a0:	eb0000c3 	bl	99b4 <dev_barrier>
    96a4:	e5940004 	ldr	r0, [r4, #4]
    96a8:	e3a01000 	mov	r1, #0
    96ac:	eb0000c6 	bl	99cc <put32>
    96b0:	e5940008 	ldr	r0, [r4, #8]
    96b4:	e3a01000 	mov	r1, #0
    96b8:	eb0000c3 	bl	99cc <put32>
    96bc:	e594000c 	ldr	r0, [r4, #12]
    96c0:	e3a01006 	mov	r1, #6
    96c4:	eb0000c0 	bl	99cc <put32>
    96c8:	e5940010 	ldr	r0, [r4, #16]
    96cc:	e3a01003 	mov	r1, #3
    96d0:	eb0000bd 	bl	99cc <put32>
    96d4:	e5940014 	ldr	r0, [r4, #20]
    96d8:	e59f1018 	ldr	r1, [pc, #24]	; 96f8 <uart_init+0x98>
    96dc:	eb0000ba 	bl	99cc <put32>
    96e0:	e5940004 	ldr	r0, [r4, #4]
    96e4:	e3a01003 	mov	r1, #3
    96e8:	eb0000b7 	bl	99cc <put32>
    96ec:	eb0000b0 	bl	99b4 <dev_barrier>
    96f0:	e8bd8038 	pop	{r3, r4, r5, pc}
    96f4:	00009ba8 	andeq	r9, r0, r8, lsr #23
    96f8:	0000010e 	andeq	r0, r0, lr, lsl #2

000096fc <uart_can_getc>:
    96fc:	e92d4008 	push	{r3, lr}
    9700:	e59f300c 	ldr	r3, [pc, #12]	; 9714 <uart_can_getc+0x18>
    9704:	e5930018 	ldr	r0, [r3, #24]
    9708:	eb0000bb 	bl	99fc <get32>
    970c:	e2000001 	and	r0, r0, #1
    9710:	e8bd8008 	pop	{r3, pc}
    9714:	00009ba8 	andeq	r9, r0, r8, lsr #23

00009718 <uart_getc>:
    9718:	e92d4008 	push	{r3, lr}
    971c:	ebfffff6 	bl	96fc <uart_can_getc>
    9720:	e3500000 	cmp	r0, #0
    9724:	0afffffc 	beq	971c <uart_getc+0x4>
    9728:	e59f300c 	ldr	r3, [pc, #12]	; 973c <uart_getc+0x24>
    972c:	e593001c 	ldr	r0, [r3, #28]
    9730:	eb0000b1 	bl	99fc <get32>
    9734:	e6ef0070 	uxtb	r0, r0
    9738:	e8bd8008 	pop	{r3, pc}
    973c:	00009ba8 	andeq	r9, r0, r8, lsr #23

00009740 <uart_can_putc>:
    9740:	e92d4008 	push	{r3, lr}
    9744:	e59f300c 	ldr	r3, [pc, #12]	; 9758 <uart_can_putc+0x18>
    9748:	e5930018 	ldr	r0, [r3, #24]
    974c:	eb0000aa 	bl	99fc <get32>
    9750:	e2000020 	and	r0, r0, #32
    9754:	e8bd8008 	pop	{r3, pc}
    9758:	00009ba8 	andeq	r9, r0, r8, lsr #23

0000975c <uart_putc>:
    975c:	e92d4010 	push	{r4, lr}
    9760:	e1a04000 	mov	r4, r0
    9764:	ebfffff5 	bl	9740 <uart_can_putc>
    9768:	e3500000 	cmp	r0, #0
    976c:	0afffffc 	beq	9764 <uart_putc+0x8>
    9770:	e59f300c 	ldr	r3, [pc, #12]	; 9784 <uart_putc+0x28>
    9774:	e593001c 	ldr	r0, [r3, #28]
    9778:	e1a01004 	mov	r1, r4
    977c:	eb000092 	bl	99cc <put32>
    9780:	e8bd8010 	pop	{r4, pc}
    9784:	00009ba8 	andeq	r9, r0, r8, lsr #23

00009788 <uart_has_data>:
    9788:	e92d4008 	push	{r3, lr}
    978c:	ebffffda 	bl	96fc <uart_can_getc>
    9790:	e8bd8008 	pop	{r3, pc}

00009794 <uart_getc_async>:
    9794:	e92d4008 	push	{r3, lr}
    9798:	ebfffffa 	bl	9788 <uart_has_data>
    979c:	e3500000 	cmp	r0, #0
    97a0:	0a000001 	beq	97ac <uart_getc_async+0x18>
    97a4:	ebffffdb 	bl	9718 <uart_getc>
    97a8:	e8bd8008 	pop	{r3, pc}
    97ac:	e3e00000 	mvn	r0, #0
    97b0:	e8bd8008 	pop	{r3, pc}

000097b4 <int_init>:
    97b4:	e92d4008 	push	{r3, lr}
    97b8:	e59f004c 	ldr	r0, [pc, #76]	; 980c <int_init+0x58>
    97bc:	e3e01000 	mvn	r1, #0
    97c0:	eb000083 	bl	99d4 <PUT32>
    97c4:	e59f0044 	ldr	r0, [pc, #68]	; 9810 <int_init+0x5c>
    97c8:	e3e01000 	mvn	r1, #0
    97cc:	eb000080 	bl	99d4 <PUT32>
    97d0:	eb000077 	bl	99b4 <dev_barrier>
    97d4:	e59f3038 	ldr	r3, [pc, #56]	; 9814 <int_init+0x60>
    97d8:	e59f0038 	ldr	r0, [pc, #56]	; 9818 <int_init+0x64>
    97dc:	e0630000 	rsb	r0, r3, r0
    97e0:	e1a00140 	asr	r0, r0, #2
    97e4:	e3a03000 	mov	r3, #0
    97e8:	e59fc024 	ldr	ip, [pc, #36]	; 9814 <int_init+0x60>
    97ec:	ea000003 	b	9800 <int_init+0x4c>
    97f0:	e1a02103 	lsl	r2, r3, #2
    97f4:	e79c1103 	ldr	r1, [ip, r3, lsl #2]
    97f8:	e5821000 	str	r1, [r2]
    97fc:	e2833001 	add	r3, r3, #1
    9800:	e1530000 	cmp	r3, r0
    9804:	3afffff9 	bcc	97f0 <int_init+0x3c>
    9808:	e8bd8008 	pop	{r3, pc}
    980c:	2000b21c 	andcs	fp, r0, ip, lsl r2
    9810:	2000b220 	andcs	fp, r0, r0, lsr #4
    9814:	00009a38 	andeq	r9, r0, r8, lsr sl
    9818:	00009a88 	andeq	r9, r0, r8, lsl #21

0000981c <fast_interrupt_vector>:
    981c:	e52de004 	push	{lr}		; (str lr, [sp, #-4]!)
    9820:	e24dd00c 	sub	sp, sp, #12
    9824:	e1a04000 	mov	r4, r0
    9828:	ebfffad8 	bl	8390 <rpi_reset_putc>
    982c:	e59f301c 	ldr	r3, [pc, #28]	; 9850 <fast_interrupt_vector+0x34>
    9830:	e58d3000 	str	r3, [sp]
    9834:	e58d4004 	str	r4, [sp, #4]
    9838:	e59f0014 	ldr	r0, [pc, #20]	; 9854 <fast_interrupt_vector+0x38>
    983c:	e59f1014 	ldr	r1, [pc, #20]	; 9858 <fast_interrupt_vector+0x3c>
    9840:	e59f2014 	ldr	r2, [pc, #20]	; 985c <fast_interrupt_vector+0x40>
    9844:	e3a03020 	mov	r3, #32
    9848:	ebfffab5 	bl	8324 <printk>
    984c:	ebfffc2c 	bl	8904 <clean_reboot>
    9850:	0000a058 	andeq	sl, r0, r8, asr r0
    9854:	00009ffc 	strdeq	r9, [r0], -ip
    9858:	0000a038 	andeq	sl, r0, r8, lsr r0
    985c:	00009f6c 	andeq	r9, r0, ip, ror #30

00009860 <software_interrupt_vector>:
    9860:	e52de004 	push	{lr}		; (str lr, [sp, #-4]!)
    9864:	e24dd00c 	sub	sp, sp, #12
    9868:	e1a04000 	mov	r4, r0
    986c:	ebfffac7 	bl	8390 <rpi_reset_putc>
    9870:	e59f301c 	ldr	r3, [pc, #28]	; 9894 <software_interrupt_vector+0x34>
    9874:	e58d3000 	str	r3, [sp]
    9878:	e58d4004 	str	r4, [sp, #4]
    987c:	e59f0014 	ldr	r0, [pc, #20]	; 9898 <software_interrupt_vector+0x38>
    9880:	e59f1014 	ldr	r1, [pc, #20]	; 989c <software_interrupt_vector+0x3c>
    9884:	e59f2014 	ldr	r2, [pc, #20]	; 98a0 <software_interrupt_vector+0x40>
    9888:	e3a03025 	mov	r3, #37	; 0x25
    988c:	ebfffaa4 	bl	8324 <printk>
    9890:	ebfffc1b 	bl	8904 <clean_reboot>
    9894:	0000a060 	andeq	sl, r0, r0, rrx
    9898:	00009ffc 	strdeq	r9, [r0], -ip
    989c:	0000a038 	andeq	sl, r0, r8, lsr r0
    98a0:	00009f84 	andeq	r9, r0, r4, lsl #31

000098a4 <reset_vector>:
    98a4:	e52de004 	push	{lr}		; (str lr, [sp, #-4]!)
    98a8:	e24dd00c 	sub	sp, sp, #12
    98ac:	e1a04000 	mov	r4, r0
    98b0:	ebfffab6 	bl	8390 <rpi_reset_putc>
    98b4:	e59f301c 	ldr	r3, [pc, #28]	; 98d8 <reset_vector+0x34>
    98b8:	e58d3000 	str	r3, [sp]
    98bc:	e58d4004 	str	r4, [sp, #4]
    98c0:	e59f0014 	ldr	r0, [pc, #20]	; 98dc <reset_vector+0x38>
    98c4:	e59f1014 	ldr	r1, [pc, #20]	; 98e0 <reset_vector+0x3c>
    98c8:	e59f2014 	ldr	r2, [pc, #20]	; 98e4 <reset_vector+0x40>
    98cc:	e3a03028 	mov	r3, #40	; 0x28
    98d0:	ebfffa93 	bl	8324 <printk>
    98d4:	ebfffc0a 	bl	8904 <clean_reboot>
    98d8:	0000a070 	andeq	sl, r0, r0, ror r0
    98dc:	00009ffc 	strdeq	r9, [r0], -ip
    98e0:	0000a038 	andeq	sl, r0, r8, lsr r0
    98e4:	00009fa0 	andeq	r9, r0, r0, lsr #31

000098e8 <undefined_instruction_vector>:
    98e8:	e52de004 	push	{lr}		; (str lr, [sp, #-4]!)
    98ec:	e24dd00c 	sub	sp, sp, #12
    98f0:	e1a04000 	mov	r4, r0
    98f4:	ebfffaa5 	bl	8390 <rpi_reset_putc>
    98f8:	e59f301c 	ldr	r3, [pc, #28]	; 991c <undefined_instruction_vector+0x34>
    98fc:	e58d3000 	str	r3, [sp]
    9900:	e58d4004 	str	r4, [sp, #4]
    9904:	e59f0014 	ldr	r0, [pc, #20]	; 9920 <undefined_instruction_vector+0x38>
    9908:	e59f1014 	ldr	r1, [pc, #20]	; 9924 <undefined_instruction_vector+0x3c>
    990c:	e59f2014 	ldr	r2, [pc, #20]	; 9928 <undefined_instruction_vector+0x40>
    9910:	e3a0302b 	mov	r3, #43	; 0x2b
    9914:	ebfffa82 	bl	8324 <printk>
    9918:	ebfffbf9 	bl	8904 <clean_reboot>
    991c:	0000a080 	andeq	sl, r0, r0, lsl #1
    9920:	00009ffc 	strdeq	r9, [r0], -ip
    9924:	0000a038 	andeq	sl, r0, r8, lsr r0
    9928:	00009fb0 			; <UNDEFINED> instruction: 0x00009fb0

0000992c <prefetch_abort_vector>:
    992c:	e52de004 	push	{lr}		; (str lr, [sp, #-4]!)
    9930:	e24dd00c 	sub	sp, sp, #12
    9934:	e1a04000 	mov	r4, r0
    9938:	ebfffa94 	bl	8390 <rpi_reset_putc>
    993c:	e59f301c 	ldr	r3, [pc, #28]	; 9960 <prefetch_abort_vector+0x34>
    9940:	e58d3000 	str	r3, [sp]
    9944:	e58d4004 	str	r4, [sp, #4]
    9948:	e59f0014 	ldr	r0, [pc, #20]	; 9964 <prefetch_abort_vector+0x38>
    994c:	e59f1014 	ldr	r1, [pc, #20]	; 9968 <prefetch_abort_vector+0x3c>
    9950:	e59f2014 	ldr	r2, [pc, #20]	; 996c <prefetch_abort_vector+0x40>
    9954:	e3a0302e 	mov	r3, #46	; 0x2e
    9958:	ebfffa71 	bl	8324 <printk>
    995c:	ebfffbe8 	bl	8904 <clean_reboot>
    9960:	0000a098 	muleq	r0, r8, r0
    9964:	00009ffc 	strdeq	r9, [r0], -ip
    9968:	0000a038 	andeq	sl, r0, r8, lsr r0
    996c:	00009fd0 	ldrdeq	r9, [r0], -r0

00009970 <data_abort_vector>:
    9970:	e52de004 	push	{lr}		; (str lr, [sp, #-4]!)
    9974:	e24dd00c 	sub	sp, sp, #12
    9978:	e1a04000 	mov	r4, r0
    997c:	ebfffa83 	bl	8390 <rpi_reset_putc>
    9980:	e59f301c 	ldr	r3, [pc, #28]	; 99a4 <data_abort_vector+0x34>
    9984:	e58d3000 	str	r3, [sp]
    9988:	e58d4004 	str	r4, [sp, #4]
    998c:	e59f0014 	ldr	r0, [pc, #20]	; 99a8 <data_abort_vector+0x38>
    9990:	e59f1014 	ldr	r1, [pc, #20]	; 99ac <data_abort_vector+0x3c>
    9994:	e59f2014 	ldr	r2, [pc, #20]	; 99b0 <data_abort_vector+0x40>
    9998:	e3a03031 	mov	r3, #49	; 0x31
    999c:	ebfffa60 	bl	8324 <printk>
    99a0:	ebfffbd7 	bl	8904 <clean_reboot>
    99a4:	0000a0a8 	andeq	sl, r0, r8, lsr #1
    99a8:	00009ffc 	strdeq	r9, [r0], -ip
    99ac:	0000a038 	andeq	sl, r0, r8, lsr r0
    99b0:	00009fe8 	andeq	r9, r0, r8, ror #31

000099b4 <dev_barrier>:
    99b4:	ea000002 	b	99c4 <dsb>

000099b8 <dmb>:
    99b8:	e3a00000 	mov	r0, #0
    99bc:	ee070fba 	mcr	15, 0, r0, cr7, cr10, {5}
    99c0:	e12fff1e 	bx	lr

000099c4 <dsb>:
    99c4:	ee070f9a 	mcr	15, 0, r0, cr7, cr10, {4}
    99c8:	e12fff1e 	bx	lr

000099cc <put32>:
    99cc:	e5801000 	str	r1, [r0]
    99d0:	e12fff1e 	bx	lr

000099d4 <PUT32>:
    99d4:	e5801000 	str	r1, [r0]
    99d8:	e12fff1e 	bx	lr

000099dc <put16>:
    99dc:	e1c010b0 	strh	r1, [r0]
    99e0:	e12fff1e 	bx	lr

000099e4 <PUT16>:
    99e4:	e1c010b0 	strh	r1, [r0]
    99e8:	e12fff1e 	bx	lr

000099ec <put8>:
    99ec:	e5c01000 	strb	r1, [r0]
    99f0:	e12fff1e 	bx	lr

000099f4 <PUT8>:
    99f4:	e5c01000 	strb	r1, [r0]
    99f8:	e12fff1e 	bx	lr

000099fc <get32>:
    99fc:	e5900000 	ldr	r0, [r0]
    9a00:	e12fff1e 	bx	lr

00009a04 <GET32>:
    9a04:	e5900000 	ldr	r0, [r0]
    9a08:	e12fff1e 	bx	lr

00009a0c <GETPC>:
    9a0c:	e1a0000e 	mov	r0, lr
    9a10:	e12fff1e 	bx	lr

00009a14 <dummy>:
    9a14:	e12fff1e 	bx	lr

00009a18 <system_enable_interrupts>:
    9a18:	e10f0000 	mrs	r0, CPSR
    9a1c:	e3c00080 	bic	r0, r0, #128	; 0x80
    9a20:	e121f000 	msr	CPSR_c, r0
    9a24:	e12fff1e 	bx	lr

00009a28 <system_disable_interrupts>:
    9a28:	e10f0000 	mrs	r0, CPSR
    9a2c:	e3800080 	orr	r0, r0, #128	; 0x80
    9a30:	e121f000 	msr	CPSR_c, r0
    9a34:	e12fff1e 	bx	lr

00009a38 <_interrupt_table>:
    9a38:	e59ff030 	ldr	pc, [pc, #48]	; 9a70 <_reset_asm>
    9a3c:	e59ff030 	ldr	pc, [pc, #48]	; 9a74 <_undefined_instruction_asm>
    9a40:	e59ff030 	ldr	pc, [pc, #48]	; 9a78 <_software_interrupt_asm>
    9a44:	e59ff030 	ldr	pc, [pc, #48]	; 9a7c <_prefetch_abort_asm>
    9a48:	e59ff030 	ldr	pc, [pc, #48]	; 9a80 <_data_abort_asm>
    9a4c:	e59ff01c 	ldr	pc, [pc, #28]	; 9a70 <_reset_asm>
    9a50:	e59ff02c 	ldr	pc, [pc, #44]	; 9a84 <_interrupt_asm>

00009a54 <fast_interrupt_asm>:
    9a54:	e24ee004 	sub	lr, lr, #4
    9a58:	e52de004 	push	{lr}		; (str lr, [sp, #-4]!)
    9a5c:	e92d1fff 	push	{r0, r1, r2, r3, r4, r5, r6, r7, r8, r9, sl, fp, ip}
    9a60:	e1a0000e 	mov	r0, lr
    9a64:	ebffff6c 	bl	981c <fast_interrupt_vector>
    9a68:	e8bd1fff 	pop	{r0, r1, r2, r3, r4, r5, r6, r7, r8, r9, sl, fp, ip}
    9a6c:	e8fd8000 	ldm	sp!, {pc}^

00009a70 <_reset_asm>:
    9a70:	00009ad0 	ldrdeq	r9, [r0], -r0

00009a74 <_undefined_instruction_asm>:
    9a74:	00009ad8 	ldrdeq	r9, [r0], -r8

00009a78 <_software_interrupt_asm>:
    9a78:	00009aa4 	andeq	r9, r0, r4, lsr #21

00009a7c <_prefetch_abort_asm>:
    9a7c:	00009ae0 	andeq	r9, r0, r0, ror #21

00009a80 <_data_abort_asm>:
    9a80:	00009ae8 	andeq	r9, r0, r8, ror #21

00009a84 <_interrupt_asm>:
    9a84:	00009a88 	andeq	r9, r0, r8, lsl #21

00009a88 <_interrupt_table_end>:
    9a88:	e3a0d409 	mov	sp, #150994944	; 0x9000000
    9a8c:	e24ee004 	sub	lr, lr, #4
    9a90:	e92d5fff 	push	{r0, r1, r2, r3, r4, r5, r6, r7, r8, r9, sl, fp, ip, lr}
    9a94:	e1a0000e 	mov	r0, lr
    9a98:	ebfff9c9 	bl	81c4 <interrupt_vector>
    9a9c:	e8bd5fff 	pop	{r0, r1, r2, r3, r4, r5, r6, r7, r8, r9, sl, fp, ip, lr}
    9aa0:	e1b0f00e 	movs	pc, lr

00009aa4 <software_interrupt_asm>:
    9aa4:	e52de004 	push	{lr}		; (str lr, [sp, #-4]!)
    9aa8:	e92d1ffe 	push	{r1, r2, r3, r4, r5, r6, r7, r8, r9, sl, fp, ip}
    9aac:	e24ee004 	sub	lr, lr, #4
    9ab0:	e1a0200e 	mov	r2, lr
    9ab4:	e1a01000 	mov	r1, r0
    9ab8:	e1a0000e 	mov	r0, lr
    9abc:	eb000003 	bl	9ad0 <reset_asm>
    9ac0:	e8bd1ffe 	pop	{r1, r2, r3, r4, r5, r6, r7, r8, r9, sl, fp, ip}
    9ac4:	e49de004 	pop	{lr}		; (ldr lr, [sp], #4)
    9ac8:	e8fd8000 	ldm	sp!, {pc}^
    9acc:	e1b0f00e 	movs	pc, lr

00009ad0 <reset_asm>:
    9ad0:	e24ee004 	sub	lr, lr, #4
    9ad4:	ebffff72 	bl	98a4 <reset_vector>

00009ad8 <undefined_instruction_asm>:
    9ad8:	e24ee004 	sub	lr, lr, #4
    9adc:	ebffff81 	bl	98e8 <undefined_instruction_vector>

00009ae0 <prefetch_abort_asm>:
    9ae0:	e24ee004 	sub	lr, lr, #4
    9ae4:	ebffff90 	bl	992c <prefetch_abort_vector>

00009ae8 <data_abort_asm>:
    9ae8:	e24ee004 	sub	lr, lr, #4
    9aec:	ebffff9f 	bl	9970 <data_abort_vector>

00009af0 <cb_new>:
    9af0:	e92d4008 	push	{r3, lr}
    9af4:	e3a00409 	mov	r0, #150994944	; 0x9000000
    9af8:	e3a01000 	mov	r1, #0
    9afc:	e3a02004 	mov	r2, #4
    9b00:	ebfff9ff 	bl	8304 <memset>
    9b04:	e3a00409 	mov	r0, #150994944	; 0x9000000
    9b08:	e59f3004 	ldr	r3, [pc, #4]	; 9b14 <cb_new+0x24>
    9b0c:	e5803000 	str	r3, [r0]
    9b10:	e8bd8008 	pop	{r3, pc}
    9b14:	12345678 	eorsne	r5, r4, #120, 12	; 0x7800000

00009b18 <cb_get_block>:
    9b18:	e3a03409 	mov	r3, #150994944	; 0x9000000
    9b1c:	e5932000 	ldr	r2, [r3]
    9b20:	e59f3014 	ldr	r3, [pc, #20]	; 9b3c <cb_get_block+0x24>
    9b24:	e1520003 	cmp	r2, r3
    9b28:	0a000001 	beq	9b34 <cb_get_block+0x1c>
    9b2c:	e3a00000 	mov	r0, #0
    9b30:	e12fff1e 	bx	lr
    9b34:	e3a00409 	mov	r0, #150994944	; 0x9000000
    9b38:	e12fff1e 	bx	lr
    9b3c:	12345678 	eorsne	r5, r4, #120, 12	; 0x7800000

Disassembly of section .data:

00009b40 <rpi_putchar>:
    9b40:	0000837c 	andeq	r8, r0, ip, ror r3

00009b44 <putk>:
    9b44:	000083b8 			; <UNDEFINED> instruction: 0x000083b8

00009b48 <GPFSEL0>:
    9b48:	20200000 	eorcs	r0, r0, r0

00009b4c <GPFSEL1>:
    9b4c:	20200004 	eorcs	r0, r0, r4

00009b50 <GPFSEL2>:
    9b50:	20200008 	eorcs	r0, r0, r8

00009b54 <GPFSEL3>:
    9b54:	2020000c 	eorcs	r0, r0, ip

00009b58 <GPFSEL4>:
    9b58:	20200010 	eorcs	r0, r0, r0, lsl r0

00009b5c <GPFSEL5>:
    9b5c:	20200014 	eorcs	r0, r0, r4, lsl r0

00009b60 <GPSET0>:
    9b60:	2020001c 	eorcs	r0, r0, ip, lsl r0

00009b64 <GPSET1>:
    9b64:	20200020 	eorcs	r0, r0, r0, lsr #32

00009b68 <GPCLR0>:
    9b68:	20200028 	eorcs	r0, r0, r8, lsr #32

00009b6c <GPCLR1>:
    9b6c:	2020002c 	eorcs	r0, r0, ip, lsr #32

00009b70 <GPLEV0>:
    9b70:	20200034 	eorcs	r0, r0, r4, lsr r0

00009b74 <GPLEV1>:
    9b74:	20200038 	eorcs	r0, r0, r8, lsr r0

00009b78 <IRQ_PENDING_2>:
    9b78:	2000b208 	andcs	fp, r0, r8, lsl #4

00009b7c <GPREN0>:
    9b7c:	2020004c 	eorcs	r0, r0, ip, asr #32

00009b80 <GPREN1>:
    9b80:	20200050 	eorcs	r0, r0, r0, asr r0

00009b84 <ENABLE_IRQS_2>:
    9b84:	2000b214 	andcs	fp, r0, r4, lsl r2

00009b88 <GPFEN0>:
    9b88:	20200058 	eorcs	r0, r0, r8, asr r0

00009b8c <GPFEN1>:
    9b8c:	2020005c 	eorcs	r0, r0, ip, asr r0

00009b90 <GPEDS0>:
    9b90:	20200040 	eorcs	r0, r0, r0, asr #32

00009b94 <GPEDS1>:
    9b94:	20200044 	eorcs	r0, r0, r4, asr #32

00009b98 <IRQ_PENDING_1>:
    9b98:	2000b204 	andcs	fp, r0, r4, lsl #4

00009b9c <gpio_clr0>:
    9b9c:	20200028 	eorcs	r0, r0, r8, lsr #32

00009ba0 <gpio_set0>:
    9ba0:	2020001c 	eorcs	r0, r0, ip, lsl r0

00009ba4 <gpio_fsel0>:
    9ba4:	20200000 	eorcs	r0, r0, r0

00009ba8 <AUX_ENABLES>:
    9ba8:	20215004 	eorcs	r5, r1, r4

00009bac <AUX_MU_CNTL_REG>:
    9bac:	20215060 	eorcs	r5, r1, r0, rrx

00009bb0 <AUX_MU_IER_REG>:
    9bb0:	20215044 	eorcs	r5, r1, r4, asr #32

00009bb4 <AUX_MU_IIR_REG>:
    9bb4:	20215048 	eorcs	r5, r1, r8, asr #32

00009bb8 <AUX_MU_LCR_REG>:
    9bb8:	2021504c 	eorcs	r5, r1, ip, asr #32

00009bbc <AUX_MU_BAUD_REG>:
    9bbc:	20215068 	eorcs	r5, r1, r8, rrx

00009bc0 <AUX_MU_LSR_REG>:
    9bc0:	20215054 	eorcs	r5, r1, r4, asr r0

00009bc4 <AUX_MU_IO_REG>:
    9bc4:	20215040 	eorcs	r5, r1, r0, asr #32

00009bc8 <AUX_MU_STAT_REG>:
    9bc8:	20215064 	eorcs	r5, r1, r4, rrx

00009bcc <AUX_MU_SCRATCH>:
    9bcc:	2021505c 	eorcs	r5, r1, ip, asr r0

00009bd0 <AUX_MU_MSR_REG>:
    9bd0:	20215058 	eorcs	r5, r1, r8, asr r0

00009bd4 <AUX_MU_MCR_REG>:
    9bd4:	20215050 	eorcs	r5, r1, r0, asr r0

00009bd8 <AUX_IRQ>:
    9bd8:	20215000 	eorcs	r5, r1, r0

Disassembly of section .rodata:

00009bdc <__FUNCTION__.4299>:
    9bdc:	695f7163 	ldmdbvs	pc, {r0, r1, r5, r6, r8, ip, sp, lr}^	; <UNPREDICTABLE>
    9be0:	0074696e 	rsbseq	r6, r4, lr, ror #18
    9be4:	494e4150 	stmdbmi	lr, {r4, r6, r8, lr}^
    9be8:	73253a43 	teqvc	r5, #274432	; 0x43000
    9bec:	3a73253a 	bcc	1cd30dc <__bss_end__+0x1cc0bbc>
    9bf0:	633a6425 	teqvs	sl, #620756992	; 0x25000000
    9bf4:	6d655f71 	stclvs	15, cr5, [r5, #-452]!	; 0xfffffe3c
    9bf8:	28797470 	ldmdacs	r9!, {r4, r5, r6, sl, ip, sp, lr}^
    9bfc:	000a2963 	andeq	r2, sl, r3, ror #18
    9c00:	6573552f 	ldrbvs	r5, [r3, #-1327]!	; 0x52f
    9c04:	622f7372 	eorvs	r7, pc, #-939524095	; 0xc8000001
    9c08:	6e616972 	mcrvs	9, 3, r6, cr1, cr2, {3}
    9c0c:	2f6e756a 	svccs	0x006e756a
    9c10:	6b736544 	blvs	1ce3128 <__bss_end__+0x1cd0c08>
    9c14:	2f706f74 	svccs	0x00706f74
    9c18:	6f686373 	svcvs	0x00686373
    9c1c:	572f6c6f 	strpl	r6, [pc, -pc, ror #24]!
    9c20:	65746e69 	ldrbvs	r6, [r4, #-3689]!	; 0xe69
    9c24:	32393172 	eorscc	r3, r9, #-2147483620	; 0x8000001c
    9c28:	53432f30 	movtpl	r2, #16176	; 0x3f30
    9c2c:	45303431 	ldrmi	r3, [r0, #-1073]!	; 0x431
    9c30:	3173632f 	cmncc	r3, pc, lsr #6
    9c34:	2d653034 	stclcs	0, cr3, [r5, #-208]!	; 0xffffff30
    9c38:	69773032 	ldmdbvs	r7!, {r1, r4, r5, ip, sp}^
    9c3c:	696c2f6e 	stmdbvs	ip!, {r1, r2, r3, r5, r6, r8, r9, sl, fp, sp}^
    9c40:	2f697062 	svccs	0x00697062
    9c44:	6362696c 	cmnvs	r2, #108, 18	; 0x1b0000
    9c48:	7269632f 	rsbvc	r6, r9, #-1140850688	; 0xbc000000
    9c4c:	616c7563 	cmnvs	ip, r3, ror #10
    9c50:	00682e72 	rsbeq	r2, r8, r2, ror lr
    9c54:	494e4150 	stmdbmi	lr, {r4, r6, r8, lr}^
    9c58:	73253a43 	teqvc	r5, #274432	; 0x43000
    9c5c:	3a73253a 	bcc	1cd314c <__bss_end__+0x1cc0c2c>
    9c60:	213a6425 	teqcs	sl, r5, lsr #8
    9c64:	665f7163 	ldrbvs	r7, [pc], -r3, ror #2
    9c68:	286c6c75 	stmdacs	ip!, {r0, r2, r4, r5, r6, sl, fp, sp, lr}^
    9c6c:	000a2963 	andeq	r2, sl, r3, ror #18
    9c70:	494e4150 	stmdbmi	lr, {r4, r6, r8, lr}^
    9c74:	73253a43 	teqvc	r5, #274432	; 0x43000
    9c78:	3a73253a 	bcc	1cd3168 <__bss_end__+0x1cc0c48>
    9c7c:	633a6425 	teqvs	sl, #620756992	; 0x25000000
    9c80:	656e5f71 	strbvs	r5, [lr, #-3953]!	; 0xf71
    9c84:	286d656c 	stmdacs	sp!, {r2, r3, r5, r6, r8, sl, sp, lr}^
    9c88:	3d202963 	stccc	9, cr2, [r0, #-396]!	; 0xfffffe74
    9c8c:	0a30203d 	beq	c11d88 <__bss_end__+0xbff868>
    9c90:	00000000 	andeq	r0, r0, r0
    9c94:	494e4150 	stmdbmi	lr, {r4, r6, r8, lr}^
    9c98:	73253a43 	teqvc	r5, #274432	; 0x43000
    9c9c:	3a73253a 	bcc	1cd318c <__bss_end__+0x1cc0c6c>
    9ca0:	633a6425 	teqvs	sl, #620756992	; 0x25000000
    9ca4:	6f705f71 	svcvs	0x00705f71
    9ca8:	6f6e5f70 	svcvs	0x006e5f70
    9cac:	6f6c626e 	svcvs	0x006c626e
    9cb0:	63286b63 	teqvs	r8, #101376	; 0x18c00
    9cb4:	2965262c 	stmdbcs	r5!, {r2, r3, r5, r9, sl, sp}^
    9cb8:	203d3d20 	eorscs	r3, sp, r0, lsr #26
    9cbc:	26262030 			; <UNDEFINED> instruction: 0x26262030
    9cc0:	3d206520 	cfstr32cc	mvfx6, [r0, #-128]!	; 0xffffff80
    9cc4:	7830203d 	ldmdavc	r0!, {r0, r2, r3, r4, r5, sp}
    9cc8:	000a3231 	andeq	r3, sl, r1, lsr r2
    9ccc:	756f6853 	strbvc	r6, [pc, #-2131]!	; 9481 <sw_uart_init_helper+0x19>
    9cd0:	7320646c 	teqvc	r0, #108, 8	; 0x6c000000
    9cd4:	73206565 	teqvc	r0, #423624704	; 0x19400000
    9cd8:	20656d6f 	rsbcs	r6, r5, pc, ror #26
    9cdc:	7074756f 	rsbsvc	r7, r4, pc, ror #10
    9ce0:	000a7475 	andeq	r7, sl, r5, ror r4

00009ce4 <__FUNCTION__.4216>:
    9ce4:	74696d65 	strbtvc	r6, [r9], #-3429	; 0xd65
    9ce8:	00000000 	andeq	r0, r0, r0

00009cec <__FUNCTION__.4164>:
    9cec:	5f697072 	svcpl	0x00697072
    9cf0:	5f746573 	svcpl	0x00746573
    9cf4:	7074756f 	rsbsvc	r7, r4, pc, ror #10
    9cf8:	00007475 	andeq	r7, r0, r5, ror r4

00009cfc <__FUNCTION__.4238>:
    9cfc:	705f6176 	subsvc	r6, pc, r6, ror r1	; <UNPREDICTABLE>
    9d00:	746e6972 	strbtvc	r6, [lr], #-2418	; 0x972
    9d04:	0000006b 	andeq	r0, r0, fp, rrx
    9d08:	494e4150 	stmdbmi	lr, {r4, r6, r8, lr}^
    9d0c:	73253a43 	teqvc	r5, #274432	; 0x43000
    9d10:	3a73253a 	bcc	1cd3200 <__bss_end__+0x1cc0ce0>
    9d14:	303a6425 	eorscc	r6, sl, r5, lsr #8
    9d18:	0000000a 	andeq	r0, r0, sl
    9d1c:	6362696c 	cmnvs	r2, #108, 18	; 0x1b0000
    9d20:	2d61762f 	stclcs	6, cr7, [r1, #-188]!	; 0xffffff44
    9d24:	6e697270 	mcrvs	2, 3, r7, cr9, cr0, {3}
    9d28:	632e6b74 	teqvs	lr, #116, 22	; 0x1d000
    9d2c:	00000000 	andeq	r0, r0, r0
    9d30:	33323130 	teqcc	r2, #48, 2
    9d34:	37363534 			; <UNDEFINED> instruction: 0x37363534
    9d38:	00003938 	andeq	r3, r0, r8, lsr r9
    9d3c:	33323130 	teqcc	r2, #48, 2
    9d40:	37363534 			; <UNDEFINED> instruction: 0x37363534
    9d44:	62613938 	rsbvs	r3, r1, #56, 18	; 0xe0000
    9d48:	66656463 	strbtvs	r6, [r5], -r3, ror #8
    9d4c:	00000000 	andeq	r0, r0, r0
    9d50:	00003130 	andeq	r3, r0, r0, lsr r1
    9d54:	494e4150 	stmdbmi	lr, {r4, r6, r8, lr}^
    9d58:	73253a43 	teqvc	r5, #274432	; 0x43000
    9d5c:	3a73253a 	bcc	1cd324c <__bss_end__+0x1cc0d2c>
    9d60:	703a6425 	eorsvc	r6, sl, r5, lsr #8
    9d64:	5f637475 	svcpl	0x00637475
    9d68:	000a7066 	andeq	r7, sl, r6, rrx
    9d6c:	494e4150 	stmdbmi	lr, {r4, r6, r8, lr}^
    9d70:	73253a43 	teqvc	r5, #274432	; 0x43000
    9d74:	3a73253a 	bcc	1cd3264 <__bss_end__+0x1cc0d44>
    9d78:	773a6425 	ldrvc	r6, [sl, -r5, lsr #8]!
    9d7c:	68746469 	ldmdavs	r4!, {r0, r3, r5, r6, sl, sp, lr}^
    9d80:	33203c20 	teqcc	r0, #32, 24	; 0x2000
    9d84:	00000a32 	andeq	r0, r0, r2, lsr sl
    9d88:	494e4150 	stmdbmi	lr, {r4, r6, r8, lr}^
    9d8c:	73253a43 	teqvc	r5, #274432	; 0x43000
    9d90:	3a73253a 	bcc	1cd3280 <__bss_end__+0x1cc0d60>
    9d94:	663a6425 	ldrtvs	r6, [sl], -r5, lsr #8
    9d98:	74616f6c 	strbtvc	r6, [r1], #-3948	; 0xf6c
    9d9c:	746f6e20 	strbtvc	r6, [pc], #-3616	; 9da4 <__FUNCTION__.4238+0xa8>
    9da0:	616e6520 	cmnvs	lr, r0, lsr #10
    9da4:	64656c62 	strbtvs	r6, [r5], #-3170	; 0xc62
    9da8:	0a212121 	beq	852234 <__bss_end__+0x83fd14>
    9dac:	00000000 	andeq	r0, r0, r0
    9db0:	494e4150 	stmdbmi	lr, {r4, r6, r8, lr}^
    9db4:	73253a43 	teqvc	r5, #274432	; 0x43000
    9db8:	3a73253a 	bcc	1cd32a8 <__bss_end__+0x1cc0d88>
    9dbc:	703a6425 	eorsvc	r6, sl, r5, lsr #8
    9dc0:	746e6972 	strbtvc	r6, [lr], #-2418	; 0x972
    9dc4:	6e203a6b 	vnmulvs.f32	s6, s0, s23
    9dc8:	6820746f 	stmdavs	r0!, {r0, r1, r2, r3, r5, r6, sl, ip, sp, lr}
    9dcc:	6c646e61 	stclvs	14, cr6, [r4], #-388	; 0xfffffe7c
    9dd0:	20676e69 	rsbcs	r6, r7, r9, ror #28
    9dd4:	63657073 	cmnvs	r5, #115	; 0x73
    9dd8:	65696669 	strbvs	r6, [r9, #-1641]!	; 0x669
    9ddc:	25272072 	strcs	r2, [r7, #-114]!	; 0x72
    9de0:	0a0a2763 	beq	293b74 <__bss_end__+0x281654>
    9de4:	00000000 	andeq	r0, r0, r0
    9de8:	454e4f44 	strbmi	r4, [lr, #-3908]	; 0xf44
    9dec:	0a212121 	beq	852278 <__bss_end__+0x83fd58>
    9df0:	00000000 	andeq	r0, r0, r0
    9df4:	756f6261 	strbvc	r6, [pc, #-609]!	; 9b9b <IRQ_PENDING_1+0x3>
    9df8:	6f742074 	svcvs	0x00742074
    9dfc:	69727020 	ldmdbvs	r2!, {r5, ip, sp, lr}^
    9e00:	6f20746e 	svcvs	0x0020746e
    9e04:	6572206e 	ldrbvs	r2, [r2, #-110]!	; 0x6e
    9e08:	616c7567 	cmnvs	ip, r7, ror #10
    9e0c:	72702072 	rsbsvc	r2, r0, #114	; 0x72
    9e10:	66746e69 	ldrbtvs	r6, [r4], -r9, ror #28
    9e14:	0000000a 	andeq	r0, r0, sl
    9e18:	63637573 	cmnvs	r3, #482344960	; 0x1cc00000
    9e1c:	21737365 	cmncs	r3, r5, ror #6
    9e20:	0000000a 	andeq	r0, r0, sl

00009e24 <__FUNCTION__.4265>:
    9e24:	755f7773 	ldrbvc	r7, [pc, #-1907]	; 96b9 <uart_init+0x59>
    9e28:	5f747261 	svcpl	0x00747261
    9e2c:	73746567 	cmnvc	r4, #432013312	; 0x19c00000
    9e30:	746e755f 	strbtvc	r7, [lr], #-1375	; 0x55f
    9e34:	00006c69 	andeq	r6, r0, r9, ror #24

00009e38 <__FUNCTION__.4277>:
    9e38:	755f7773 	ldrbvc	r7, [pc, #-1907]	; 96cd <uart_init+0x6d>
    9e3c:	5f747261 	svcpl	0x00747261
    9e40:	73746567 	cmnvc	r4, #432013312	; 0x19c00000
    9e44:	6d69745f 	cfstrdvs	mvd7, [r9, #-380]!	; 0xfffffe84
    9e48:	74756f65 	ldrbtvc	r6, [r5], #-3941	; 0xf65
    9e4c:	00000000 	andeq	r0, r0, r0

00009e50 <__FUNCTION__.4291>:
    9e50:	755f7773 	ldrbvc	r7, [pc, #-1907]	; 96e5 <uart_init+0x85>
    9e54:	5f747261 	svcpl	0x00747261
    9e58:	74696e69 	strbtvc	r6, [r9], #-3689	; 0xe69
    9e5c:	6c65685f 	stclvs	8, cr6, [r5], #-380	; 0xfffffe84
    9e60:	00726570 	rsbseq	r6, r2, r0, ror r5

00009e64 <__FUNCTION__.4297>:
    9e64:	755f7773 	ldrbvc	r7, [pc, #-1907]	; 96f9 <uart_init+0x99>
    9e68:	5f747261 	svcpl	0x00747261
    9e6c:	63746567 	cmnvs	r4, #432013312	; 0x19c00000
    9e70:	00000000 	andeq	r0, r0, r0

00009e74 <__FUNCTION__.4319>:
    9e74:	755f7773 	ldrbvc	r7, [pc, #-1907]	; 9709 <uart_can_getc+0xd>
    9e78:	5f747261 	svcpl	0x00747261
    9e7c:	6e697270 	mcrvs	2, 3, r7, cr9, cr0, {3}
    9e80:	00006b74 	andeq	r6, r0, r4, ror fp

00009e84 <__FUNCTION__.4327>:
    9e84:	755f7773 	ldrbvc	r7, [pc, #-1907]	; 9719 <uart_getc+0x1>
    9e88:	5f747261 	svcpl	0x00747261
    9e8c:	73746567 	cmnvc	r4, #432013312	; 0x19c00000
    9e90:	746e755f 	strbtvc	r7, [lr], #-1375	; 0x55f
    9e94:	625f6c69 	subsvs	r6, pc, #26880	; 0x6900
    9e98:	00006b6c 	andeq	r6, r0, ip, ror #22
    9e9c:	494e4150 	stmdbmi	lr, {r4, r6, r8, lr}^
    9ea0:	73253a43 	teqvc	r5, #274432	; 0x43000
    9ea4:	3a73253a 	bcc	1cd3394 <__bss_end__+0x1cc0e74>
    9ea8:	6e3a6425 	cdpvs	4, 3, cr6, cr10, cr5, {1}
    9eac:	65747962 	ldrbvs	r7, [r4, #-2402]!	; 0x962
    9eb0:	0a303e73 	beq	c19884 <__bss_end__+0xc07364>
    9eb4:	00000000 	andeq	r0, r0, r0
    9eb8:	732d796d 	teqvc	sp, #1785856	; 0x1b4000
    9ebc:	732f6372 	teqvc	pc, #-939524095	; 0xc8000001
    9ec0:	61752d77 	cmnvs	r5, r7, ror sp
    9ec4:	632e7472 	teqvs	lr, #1912602624	; 0x72000000
    9ec8:	00000000 	andeq	r0, r0, r0
    9ecc:	494e4150 	stmdbmi	lr, {r4, r6, r8, lr}^
    9ed0:	73253a43 	teqvc	r5, #274432	; 0x43000
    9ed4:	3a73253a 	bcc	1cd33c4 <__bss_end__+0x1cc0ea4>
    9ed8:	283a6425 	ldmdacs	sl!, {r0, r2, r5, sl, sp, lr}
    9edc:	207a686d 	rsbscs	r6, sl, sp, ror #16
    9ee0:	6162202d 	cmnvs	r2, sp, lsr #32
    9ee4:	20296475 	eorcs	r6, r9, r5, ror r4
    9ee8:	64203d3c 	strtvs	r3, [r0], #-3388	; 0xd3c
    9eec:	76697265 	strbtvc	r7, [r9], -r5, ror #4
    9ef0:	26206465 	strtcs	r6, [r0], -r5, ror #8
    9ef4:	65642026 	strbvs	r2, [r4, #-38]!	; 0x26
    9ef8:	65766972 	ldrbvs	r6, [r6, #-2418]!	; 0x972
    9efc:	3d3c2064 	ldccc	0, cr2, [ip, #-400]!	; 0xfffffe70
    9f00:	686d2820 	stmdavs	sp!, {r5, fp, sp}^
    9f04:	202b207a 	eorcs	r2, fp, sl, ror r0
    9f08:	64756162 	ldrbtvs	r6, [r5], #-354	; 0x162
    9f0c:	00000a29 	andeq	r0, r0, r9, lsr #20
    9f10:	494e4150 	stmdbmi	lr, {r4, r6, r8, lr}^
    9f14:	73253a43 	teqvc	r5, #274432	; 0x43000
    9f18:	3a73253a 	bcc	1cd3408 <__bss_end__+0x1cc0ee8>
    9f1c:	693a6425 	ldmdbvs	sl!, {r0, r2, r5, sl, sp, lr}
    9f20:	736f706d 	cmnvc	pc, #109	; 0x6d
    9f24:	6c626973 	stclvs	9, cr6, [r2], #-460	; 0xfffffe34
    9f28:	68203a65 	stmdavs	r0!, {r0, r2, r5, r6, r9, fp, ip, sp}
    9f2c:	20657661 	rsbcs	r7, r5, r1, ror #12
    9f30:	69206e61 	stmdbvs	r0!, {r0, r5, r6, r9, sl, fp, sp, lr}
    9f34:	6e69666e 	cdpvs	6, 6, cr6, cr9, cr14, {3}
    9f38:	20657469 	rsbcs	r7, r5, r9, ror #8
    9f3c:	656d6974 	strbvs	r6, [sp, #-2420]!	; 0x974
    9f40:	2174756f 	cmncs	r4, pc, ror #10
    9f44:	00000a0a 	andeq	r0, r0, sl, lsl #20
    9f48:	494e4150 	stmdbmi	lr, {r4, r6, r8, lr}^
    9f4c:	73253a43 	teqvc	r5, #274432	; 0x43000
    9f50:	3a73253a 	bcc	1cd3440 <__bss_end__+0x1cc0f20>
    9f54:	733a6425 	teqvc	sl, #620756992	; 0x25000000
    9f58:	203c207a 	eorscs	r2, ip, sl, ror r0
    9f5c:	657a6973 	ldrbvs	r6, [sl, #-2419]!	; 0x973
    9f60:	6220666f 	eorvs	r6, r0, #116391936	; 0x6f00000
    9f64:	312d6675 	teqcc	sp, r5, ror r6
    9f68:	0000000a 	andeq	r0, r0, sl

00009f6c <__FUNCTION__.4196>:
    9f6c:	74736166 	ldrbtvc	r6, [r3], #-358	; 0x166
    9f70:	746e695f 	strbtvc	r6, [lr], #-2399	; 0x95f
    9f74:	75727265 	ldrbvc	r7, [r2, #-613]!	; 0x265
    9f78:	765f7470 			; <UNDEFINED> instruction: 0x765f7470
    9f7c:	6f746365 	svcvs	0x00746365
    9f80:	00000072 	andeq	r0, r0, r2, ror r0

00009f84 <__FUNCTION__.4200>:
    9f84:	74666f73 	strbtvc	r6, [r6], #-3955	; 0xf73
    9f88:	65726177 	ldrbvs	r6, [r2, #-375]!	; 0x177
    9f8c:	746e695f 	strbtvc	r6, [lr], #-2399	; 0x95f
    9f90:	75727265 	ldrbvc	r7, [r2, #-613]!	; 0x265
    9f94:	765f7470 			; <UNDEFINED> instruction: 0x765f7470
    9f98:	6f746365 	svcvs	0x00746365
    9f9c:	00000072 	andeq	r0, r0, r2, ror r0

00009fa0 <__FUNCTION__.4204>:
    9fa0:	65736572 	ldrbvs	r6, [r3, #-1394]!	; 0x572
    9fa4:	65765f74 	ldrbvs	r5, [r6, #-3956]!	; 0xf74
    9fa8:	726f7463 	rsbvc	r7, pc, #1660944384	; 0x63000000
    9fac:	00000000 	andeq	r0, r0, r0

00009fb0 <__FUNCTION__.4208>:
    9fb0:	65646e75 	strbvs	r6, [r4, #-3701]!	; 0xe75
    9fb4:	656e6966 	strbvs	r6, [lr, #-2406]!	; 0x966
    9fb8:	6e695f64 	cdpvs	15, 6, cr5, cr9, cr4, {3}
    9fbc:	75727473 	ldrbvc	r7, [r2, #-1139]!	; 0x473
    9fc0:	6f697463 	svcvs	0x00697463
    9fc4:	65765f6e 	ldrbvs	r5, [r6, #-3950]!	; 0xf6e
    9fc8:	726f7463 	rsbvc	r7, pc, #1660944384	; 0x63000000
    9fcc:	00000000 	andeq	r0, r0, r0

00009fd0 <__FUNCTION__.4212>:
    9fd0:	66657270 			; <UNDEFINED> instruction: 0x66657270
    9fd4:	68637465 	stmdavs	r3!, {r0, r2, r5, r6, sl, ip, sp, lr}^
    9fd8:	6f62615f 	svcvs	0x0062615f
    9fdc:	765f7472 			; <UNDEFINED> instruction: 0x765f7472
    9fe0:	6f746365 	svcvs	0x00746365
    9fe4:	00000072 	andeq	r0, r0, r2, ror r0

00009fe8 <__FUNCTION__.4216>:
    9fe8:	61746164 	cmnvs	r4, r4, ror #2
    9fec:	6f62615f 	svcvs	0x0062615f
    9ff0:	765f7472 			; <UNDEFINED> instruction: 0x765f7472
    9ff4:	6f746365 	svcvs	0x00746365
    9ff8:	00000072 	andeq	r0, r0, r2, ror r0
    9ffc:	494e4150 	stmdbmi	lr, {r4, r6, r8, lr}^
    a000:	73253a43 	teqvc	r5, #274432	; 0x43000
    a004:	3a73253a 	bcc	1cd34f4 <__bss_end__+0x1cc0fd4>
    a008:	453a6425 	ldrmi	r6, [sl, #-1061]!	; 0x425
    a00c:	524f5252 	subpl	r5, pc, #536870917	; 0x20000005
    a010:	6e75203a 	mrcvs	0, 3, r2, cr5, cr10, {1}
    a014:	646e6168 	strbtvs	r6, [lr], #-360	; 0x168
    a018:	2064656c 	rsbcs	r6, r4, ip, ror #10
    a01c:	65637865 	strbvs	r7, [r3, #-2149]!	; 0x865
    a020:	6f697470 	svcvs	0x00697470
    a024:	253c206e 	ldrcs	r2, [ip, #-110]!	; 0x6e
    a028:	61203e73 	teqvs	r0, r3, ror lr
    a02c:	43502074 	cmpmi	r0, #116	; 0x74
    a030:	0a78253d 	beq	1e1352c <__bss_end__+0x1e0100c>
    a034:	0000000a 	andeq	r0, r0, sl
    a038:	34317363 	ldrtcc	r7, [r1], #-867	; 0x363
    a03c:	692d6530 	pushvs	{r4, r5, r8, sl, sp, lr}
    a040:	7265746e 	rsbvc	r7, r5, #1845493760	; 0x6e000000
    a044:	74707572 	ldrbtvc	r7, [r0], #-1394	; 0x572
    a048:	746e692f 	strbtvc	r6, [lr], #-2351	; 0x92f
    a04c:	75727265 	ldrbvc	r7, [r2, #-613]!	; 0x265
    a050:	2d737470 	cfldrdcs	mvd7, [r3, #-448]!	; 0xfffffe40
    a054:	00632e63 	rsbeq	r2, r3, r3, ror #28
    a058:	74736166 	ldrbtvc	r6, [r3], #-358	; 0x166
    a05c:	00000000 	andeq	r0, r0, r0
    a060:	74666f73 	strbtvc	r6, [r6], #-3955	; 0xf73
    a064:	746e6920 	strbtvc	r6, [lr], #-2336	; 0x920
    a068:	75727265 	ldrbvc	r7, [r2, #-613]!	; 0x265
    a06c:	00007470 	andeq	r7, r0, r0, ror r4
    a070:	65736572 	ldrbvs	r6, [r3, #-1394]!	; 0x572
    a074:	65762074 	ldrbvs	r2, [r6, #-116]!	; 0x74
    a078:	726f7463 	rsbvc	r7, pc, #1660944384	; 0x63000000
    a07c:	00000000 	andeq	r0, r0, r0
    a080:	65646e75 	strbvs	r6, [r4, #-3701]!	; 0xe75
    a084:	656e6966 	strbvs	r6, [lr, #-2406]!	; 0x966
    a088:	6e692064 	cdpvs	0, 6, cr2, cr9, cr4, {3}
    a08c:	75727473 	ldrbvc	r7, [r2, #-1139]!	; 0x473
    a090:	6f697463 	svcvs	0x00697463
    a094:	0000006e 	andeq	r0, r0, lr, rrx
    a098:	66657270 			; <UNDEFINED> instruction: 0x66657270
    a09c:	68637465 	stmdavs	r3!, {r0, r2, r5, r6, sl, ip, sp, lr}^
    a0a0:	6f626120 	svcvs	0x00626120
    a0a4:	00007472 	andeq	r7, r0, r2, ror r4
    a0a8:	61746164 	cmnvs	r4, r4, ror #2
    a0ac:	6f626120 	svcvs	0x00626120
    a0b0:	00007472 	andeq	r7, r0, r2, ror r4

Disassembly of section .bss:

0000a0b4 <__bss_start__>:
	...

0000c0c8 <recordClkQ>:
	...

0000e0dc <replayDataQ>:
	...

000100f0 <replayClkQ>:
	...

00012104 <in_write>:
   12104:	00000000 	andeq	r0, r0, r0

00012108 <timeout>:
   12108:	00000000 	andeq	r0, r0, r0

0001210c <ninterrupt>:
   1210c:	00000000 	andeq	r0, r0, r0

00012110 <buf.4164>:
	...

00012510 <console_uart>:
	...

0001251c <rpi_arm_timer_t>:
   1251c:	00000000 	andeq	r0, r0, r0

Disassembly of section .ARM.attributes:

00000000 <.ARM.attributes>:
   0:	00002a41 	andeq	r2, r0, r1, asr #20
   4:	61656100 	cmnvs	r5, r0, lsl #2
   8:	01006962 	tsteq	r0, r2, ror #18
   c:	00000020 	andeq	r0, r0, r0, lsr #32
  10:	4b5a3605 	blmi	168d82c <__bss_end__+0x167b30c>
  14:	08070600 	stmdaeq	r7, {r9, sl}
  18:	12010901 	andne	r0, r1, #16384	; 0x4000
  1c:	15011404 	strne	r1, [r1, #-1028]	; 0x404
  20:	18031701 	stmdane	r3, {r0, r8, r9, sl, ip}
  24:	22011a01 	andcs	r1, r1, #4096	; 0x1000
  28:	Address 0x0000000000000028 is out of bounds.


Disassembly of section .comment:

00000000 <.comment>:
   0:	3a434347 	bcc	10d0d24 <__bss_end__+0x10be804>
   4:	4e472820 	cdpmi	8, 4, cr2, cr7, cr0, {1}
   8:	34202955 	strtcc	r2, [r0], #-2389	; 0x955
   c:	332e382e 	teqcc	lr, #3014656	; 0x2e0000
	...

Disassembly of section .debug_info:

00000000 <.debug_info>:
       0:	00000870 	andeq	r0, r0, r0, ror r8
       4:	00000004 	andeq	r0, r0, r4
       8:	01040000 	mrseq	r0, (UNDEF: 4)
       c:	0000027c 	andeq	r0, r0, ip, ror r2
      10:	00038301 	andeq	r8, r3, r1, lsl #6
      14:	0001f200 	andeq	pc, r1, r0, lsl #4
      18:	00801000 	addeq	r1, r0, r0
      1c:	0002f400 	andeq	pc, r2, r0, lsl #8
      20:	00000000 	andeq	r0, r0, r0
      24:	05040200 	streq	r0, [r4, #-512]	; 0x200
      28:	00746e69 	rsbseq	r6, r4, r9, ror #28
      2c:	00000003 	andeq	r0, r0, r3
      30:	37d40300 	ldrbcc	r0, [r4, r0, lsl #6]
      34:	04000000 	streq	r0, [r0], #-0
      38:	00620704 	rsbeq	r0, r2, r4, lsl #14
      3c:	01040000 	mrseq	r0, (UNDEF: 4)
      40:	00025006 	andeq	r5, r2, r6
      44:	05020400 	streq	r0, [r2, #-1024]	; 0x400
      48:	0000025c 	andeq	r0, r0, ip, asr r2
      4c:	83050404 	movwhi	r0, #21508	; 0x5404
      50:	04000000 	streq	r0, [r0], #-0
      54:	007e0508 	rsbseq	r0, lr, r8, lsl #10
      58:	01040000 	mrseq	r0, (UNDEF: 4)
      5c:	00024e08 	andeq	r4, r2, r8, lsl #28
      60:	07020400 	streq	r0, [r2, -r0, lsl #8]
      64:	0000011c 	andeq	r0, r0, ip, lsl r1
      68:	5d070404 	cfstrspl	mvf0, [r7, #-16]
      6c:	04000000 	streq	r0, [r0], #-0
      70:	00580708 	subseq	r0, r8, r8, lsl #14
      74:	04040000 	streq	r0, [r4], #-0
      78:	00018407 	andeq	r8, r1, r7, lsl #8
      7c:	04040500 	streq	r0, [r4], #-1280	; 0x500
      80:	02570801 	subseq	r0, r7, #65536	; 0x10000
      84:	04060000 	streq	r0, [r6], #-0
      88:	0000008c 	andeq	r0, r0, ip, lsl #1
      8c:	00007f07 	andeq	r7, r0, r7, lsl #30
      90:	007f0800 	rsbseq	r0, pc, r0, lsl #16
      94:	00a10000 	adceq	r0, r1, r0
      98:	76090000 	strvc	r0, [r9], -r0
      9c:	07000000 	streq	r0, [r0, -r0]
      a0:	08040a00 	stmdaeq	r4, {r9, fp}
      a4:	00010e33 	andeq	r0, r1, r3, lsr lr
      a8:	00ad0b00 	adceq	r0, sp, r0, lsl #22
      ac:	e8800000 	stm	r0, {}	; <UNPREDICTABLE>
      b0:	0b028082 	bleq	a02c0 <__bss_end__+0x8dda0>
      b4:	0000009e 	muleq	r0, lr, r0
      b8:	8082e880 	addhi	lr, r2, r0, lsl #17
      bc:	03060b02 	movweq	r0, #27394	; 0x6b02
      c0:	e8840000 	stm	r4, {}	; <UNPREDICTABLE>
      c4:	0b028082 	bleq	a02d4 <__bss_end__+0x8ddb4>
      c8:	0000008c 	andeq	r0, r0, ip, lsl #1
      cc:	8082e888 	addhi	lr, r2, r8, lsl #17
      d0:	03160b02 	tsteq	r6, #2048	; 0x800
      d4:	e88c0000 	stm	ip, {}	; <UNPREDICTABLE>
      d8:	0b028082 	bleq	a02e8 <__bss_end__+0x8ddc8>
      dc:	00000032 	andeq	r0, r0, r2, lsr r0
      e0:	8082e890 	umullhi	lr, r2, r0, r8
      e4:	00c70b02 	sbceq	r0, r7, r2, lsl #22
      e8:	e8940000 	ldm	r4, {}	; <UNPREDICTABLE>
      ec:	0b028082 	bleq	a02fc <__bss_end__+0x8dddc>
      f0:	000001a8 	andeq	r0, r0, r8, lsr #3
      f4:	8082e898 	umullhi	lr, r2, r8, r8
      f8:	02f10b02 	rscseq	r0, r1, #2048	; 0x800
      fc:	e89c0000 	ldm	ip, {}	; <UNPREDICTABLE>
     100:	0b028082 	bleq	a0310 <__bss_end__+0x8ddf0>
     104:	0000039b 	muleq	r0, fp, r3
     108:	8082e8a0 	addhi	lr, r2, r0, lsr #17
     10c:	71030002 	tstvc	r3, r2
     110:	01000002 	tsteq	r0, r2
     114:	00005a1c 	andeq	r5, r0, ip, lsl sl
     118:	20140c00 	andscs	r0, r4, r0, lsl #24
     11c:	01732801 	cmneq	r3, r1, lsl #16
     120:	6f0d0000 	svcvs	0x000d0000
     124:	01000000 	mrseq	r0, (UNDEF: 0)
     128:	0001842a 	andeq	r8, r1, sl, lsr #8
     12c:	d30e0000 	movwle	r0, #57344	; 0xe000
     130:	01000002 	tsteq	r0, r2
     134:	0000372b 	andeq	r3, r0, fp, lsr #14
     138:	0e200000 	cdpeq	0, 2, cr0, cr0, cr0, {0}
     13c:	00000277 	andeq	r0, r0, r7, ror r2
     140:	01892c01 	orreq	r2, r9, r1, lsl #24
     144:	20040000 	andcs	r0, r4, r0
     148:	00017f0e 	andeq	r7, r1, lr, lsl #30
     14c:	892c0100 	stmdbhi	ip!, {r8}
     150:	08000001 	stmdaeq	r0, {r0}
     154:	02e80e20 	rsceq	r0, r8, #32, 28	; 0x200
     158:	2f010000 	svccs	0x00010000
     15c:	00000189 	andeq	r0, r0, r9, lsl #3
     160:	100f200c 	andne	r2, pc, ip
     164:	01000000 	mrseq	r0, (UNDEF: 0)
     168:	00003731 	andeq	r3, r0, r1, lsr r7
     16c:	1f010400 	svcne	0x00010400
     170:	08002010 	stmdaeq	r0, {r4, sp}
     174:	0000010e 	andeq	r0, r0, lr, lsl #2
     178:	00000184 	andeq	r0, r0, r4, lsl #3
     17c:	00007610 	andeq	r7, r0, r0, lsl r6
     180:	001fff00 	andseq	pc, pc, r0, lsl #30
     184:	00017311 	andeq	r7, r1, r1, lsl r3
     188:	00371100 	eorseq	r1, r7, r0, lsl #2
     18c:	40030000 	andmi	r0, r3, r0
     190:	01000003 	tsteq	r0, r3
     194:	00011932 	andeq	r1, r1, r2, lsr r9
     198:	00751200 	rsbseq	r1, r5, r0, lsl #4
     19c:	39010000 	stmdbcc	r1, {}	; <UNPREDICTABLE>
     1a0:	00000025 	andeq	r0, r0, r5, lsr #32
     1a4:	0001b303 	andeq	fp, r1, r3, lsl #6
     1a8:	00711300 	rsbseq	r1, r1, r0, lsl #6
     1ac:	01b33901 			; <UNDEFINED> instruction: 0x01b33901
     1b0:	06000000 	streq	r0, [r0], -r0
     1b4:	00018e04 	andeq	r8, r1, r4, lsl #28
     1b8:	03931200 	orrseq	r1, r3, #0, 4
     1bc:	3c010000 	stccc	0, cr0, [r1], {-0}
     1c0:	00000025 	andeq	r0, r0, r5, lsr #32
     1c4:	0001d303 	andeq	sp, r1, r3, lsl #6
     1c8:	00711300 	rsbseq	r1, r1, r0, lsl #6
     1cc:	01b33c01 			; <UNDEFINED> instruction: 0x01b33c01
     1d0:	12000000 	andne	r0, r0, #0
     1d4:	00000113 	andeq	r0, r0, r3, lsl r1
     1d8:	00373e01 	eorseq	r3, r7, r1, lsl #28
     1dc:	ed030000 	stc	0, cr0, [r3, #-0]
     1e0:	13000001 	movwne	r0, #1
     1e4:	3e010071 	mcrcc	0, 0, r0, cr1, cr1, {3}
     1e8:	000001b3 			; <UNDEFINED> instruction: 0x000001b3
     1ec:	01981200 	orrseq	r1, r8, r0, lsl #4
     1f0:	42010000 	andmi	r0, r1, #0
     1f4:	00000025 	andeq	r0, r0, r5, lsr #32
     1f8:	00021b03 	andeq	r1, r2, r3, lsl #22
     1fc:	00631300 	rsbeq	r1, r3, r0, lsl #6
     200:	01b34201 			; <UNDEFINED> instruction: 0x01b34201
     204:	65130000 	ldrvs	r0, [r3, #-0]
     208:	1b420100 	blne	1080610 <__bss_end__+0x106e0f0>
     20c:	14000002 	strne	r0, [r0], #-2
     210:	0000017f 	andeq	r0, r0, pc, ror r1
     214:	00374501 	eorseq	r4, r7, r1, lsl #10
     218:	06000000 	streq	r0, [r0], -r0
     21c:	00010e04 	andeq	r0, r1, r4, lsl #28
     220:	01b91500 			; <UNDEFINED> instruction: 0x01b91500
     224:	99010000 	stmdbls	r1, {}	; <UNPREDICTABLE>
     228:	00008010 	andeq	r8, r0, r0, lsl r0
     22c:	000001b4 			; <UNDEFINED> instruction: 0x000001b4
     230:	04319c01 	ldrteq	r9, [r1], #-3073	; 0xc01
     234:	63160000 	tstvs	r6, #0
     238:	b3990100 	orrslt	r0, r9, #0, 2
     23c:	00000001 	andeq	r0, r0, r1
     240:	17000000 	strne	r0, [r0, -r0]
     244:	00000010 	andeq	r0, r0, r0, lsl r0
     248:	00379901 	eorseq	r9, r7, r1, lsl #18
     24c:	001e0000 	andseq	r0, lr, r0
     250:	06180000 	ldreq	r0, [r8], -r0
     254:	31000001 	tstcc	r0, r1
     258:	05000004 	streq	r0, [r0, #-4]
     25c:	009bdc03 	addseq	sp, fp, r3, lsl #24
     260:	00651900 	rsbeq	r1, r5, r0, lsl #18
     264:	010ea201 	tsteq	lr, r1, lsl #4
     268:	004a0000 	subeq	r0, sl, r0
     26c:	991a0000 	ldmdbls	sl, {}	; <UNPREDICTABLE>
     270:	68000001 	stmdavs	r0, {r0}
     274:	08000080 	stmdaeq	r0, {r7}
     278:	01000000 	mrseq	r0, (UNDEF: 0)
     27c:	0002899f 	muleq	r2, pc, r9	; <UNPREDICTABLE>
     280:	01a91b00 			; <UNDEFINED> instruction: 0x01a91b00
     284:	54010000 	strpl	r0, [r1], #-0
     288:	01b91a00 			; <UNDEFINED> instruction: 0x01b91a00
     28c:	80940000 	addshi	r0, r4, r0
     290:	00180000 	andseq	r0, r8, r0
     294:	a0010000 	andge	r0, r1, r0
     298:	000002a4 	andeq	r0, r0, r4, lsr #5
     29c:	0001c91b 	andeq	ip, r1, fp, lsl r9
     2a0:	00540100 	subseq	r0, r4, r0, lsl #2
     2a4:	0001d31a 	andeq	sp, r1, sl, lsl r3
     2a8:	0080d000 	addeq	sp, r0, r0
     2ac:	00001400 	andeq	r1, r0, r0, lsl #8
     2b0:	bfa10100 	svclt	0x00a10100
     2b4:	1b000002 	blne	2c4 <_start-0x7d3c>
     2b8:	000001e3 	andeq	r0, r0, r3, ror #3
     2bc:	1c005401 	cfstrsne	mvf5, [r0], {1}
     2c0:	000001ed 	andeq	r0, r0, sp, ror #3
     2c4:	00008108 	andeq	r8, r0, r8, lsl #2
     2c8:	00000000 	andeq	r0, r0, r0
     2cc:	030ca301 	movweq	sl, #49921	; 0xc301
     2d0:	061b0000 	ldreq	r0, [fp], -r0
     2d4:	06000002 	streq	r0, [r0], -r2
     2d8:	000261f2 	strdeq	r6, [r2], -r2
     2dc:	fd1b0000 	ldc2	0, cr0, [fp, #-0]
     2e0:	01000001 	tsteq	r0, r1
     2e4:	00001d54 	andeq	r1, r0, r4, asr sp
     2e8:	0f1e0000 	svceq	0x001e0000
     2ec:	80000002 	andhi	r0, r0, r2
     2f0:	1f000000 	svcne	0x00000000
     2f4:	00000199 	muleq	r0, r9, r1
     2f8:	00008108 	andeq	r8, r0, r8, lsl #2
     2fc:	00000010 	andeq	r0, r0, r0, lsl r0
     300:	a91b4301 	ldmdbge	fp, {r0, r8, r9, lr}
     304:	01000001 	tsteq	r0, r1
     308:	00000054 	andeq	r0, r0, r4, asr r0
     30c:	00802820 	addeq	r2, r0, r0, lsr #16
     310:	00078d00 	andeq	r8, r7, r0, lsl #26
     314:	00032c00 	andeq	r2, r3, r0, lsl #24
     318:	52012100 	andpl	r2, r1, #0, 2
     31c:	20140a03 	andscs	r0, r4, r3, lsl #20
     320:	01510121 	cmpeq	r1, r1, lsr #2
     324:	50012130 	andpl	r2, r1, r0, lsr r1
     328:	00007402 	andeq	r7, r0, r2, lsl #8
     32c:	00807c22 	addeq	r7, r0, r2, lsr #24
     330:	0007ac00 	andeq	sl, r7, r0, lsl #24
     334:	80902000 	addshi	r2, r0, r0
     338:	07b30000 	ldreq	r0, [r3, r0]!
     33c:	03640000 	cmneq	r4, #0
     340:	01210000 	teqeq	r1, r0
     344:	9f080253 	svcls	0x00080253
     348:	05520121 	ldrbeq	r0, [r2, #-289]	; 0x121
     34c:	009bdc03 	addseq	sp, fp, r3, lsl #24
     350:	51012100 	mrspl	r2, (UNDEF: 17)
     354:	9c000305 	stcls	3, cr0, [r0], {5}
     358:	01210000 	teqeq	r1, r0
     35c:	e4030550 	str	r0, [r3], #-1360	; 0x550
     360:	0000009b 	muleq	r0, fp, r0
     364:	00809422 	addeq	r9, r0, r2, lsr #8
     368:	0007c900 	andeq	ip, r7, r0, lsl #18
     36c:	80b82200 	adcshi	r2, r8, r0, lsl #4
     370:	07ac0000 	streq	r0, [ip, r0]!
     374:	cc200000 	stcgt	0, cr0, [r0], #-0
     378:	b3000080 	movwlt	r0, #128	; 0x80
     37c:	a5000007 	strge	r0, [r0, #-7]
     380:	21000003 	tstcs	r0, r3
     384:	08025301 	stmdaeq	r2, {r0, r8, r9, ip, lr}
     388:	520121a0 	andpl	r2, r1, #160, 2	; 0x28
     38c:	9bdc0305 	blls	ff700fa8 <__bss_end__+0xff6eea88>
     390:	01210000 	teqeq	r1, r0
     394:	00030551 	andeq	r0, r3, r1, asr r5
     398:	2100009c 	swpcs	r0, ip, [r0]	; <UNPREDICTABLE>
     39c:	03055001 	movweq	r5, #20481	; 0x5001
     3a0:	00009c54 	andeq	r9, r0, r4, asr ip
     3a4:	80d02200 	sbcshi	r2, r0, r0, lsl #4
     3a8:	07c90000 	strbeq	r0, [r9, r0]
     3ac:	f0220000 			; <UNDEFINED> instruction: 0xf0220000
     3b0:	ac000080 	stcge	0, cr0, [r0], {128}	; 0x80
     3b4:	20000007 	andcs	r0, r0, r7
     3b8:	00008104 	andeq	r8, r0, r4, lsl #2
     3bc:	000007b3 			; <UNDEFINED> instruction: 0x000007b3
     3c0:	000003e6 	andeq	r0, r0, r6, ror #7
     3c4:	02530121 	subseq	r0, r3, #1073741832	; 0x40000008
     3c8:	0121a108 	teqeq	r1, r8, lsl #2
     3cc:	dc030552 	cfstr32le	mvfx0, [r3], {82}	; 0x52
     3d0:	2100009b 	swpcs	r0, fp, [r0]	; <UNPREDICTABLE>
     3d4:	03055101 	movweq	r5, #20737	; 0x5101
     3d8:	00009c00 	andeq	r9, r0, r0, lsl #24
     3dc:	05500121 	ldrbeq	r0, [r0, #-289]	; 0x121
     3e0:	009c7003 	addseq	r7, ip, r3
     3e4:	08220000 	stmdaeq	r2!, {}	; <UNPREDICTABLE>
     3e8:	c9000081 	stmdbgt	r0, {r0, r7}
     3ec:	22000007 	andcs	r0, r0, #7
     3f0:	0000817c 	andeq	r8, r0, ip, ror r1
     3f4:	000007ac 	andeq	r0, r0, ip, lsr #15
     3f8:	00819020 	addeq	r9, r1, r0, lsr #32
     3fc:	0007b300 	andeq	fp, r7, r0, lsl #6
     400:	00042700 	andeq	r2, r4, r0, lsl #14
     404:	53012100 	movwpl	r2, #4352	; 0x1100
     408:	21a30802 			; <UNDEFINED> instruction: 0x21a30802
     40c:	03055201 	movweq	r5, #20993	; 0x5201
     410:	00009bdc 	ldrdeq	r9, [r0], -ip
     414:	05510121 	ldrbeq	r0, [r1, #-289]	; 0x121
     418:	009c0003 	addseq	r0, ip, r3
     41c:	50012100 	andpl	r2, r1, r0, lsl #2
     420:	9c940305 	ldcls	3, cr0, [r4], {5}
     424:	22000000 	andcs	r0, r0, #0
     428:	00008194 	muleq	r0, r4, r1
     42c:	000007c9 	andeq	r0, r0, r9, asr #15
     430:	00910700 	addseq	r0, r1, r0, lsl #14
     434:	37230000 	strcc	r0, [r3, -r0]!
     438:	0200000c 	andeq	r0, r0, #12
     43c:	0081c423 	addeq	ip, r1, r3, lsr #8
     440:	00007800 	andeq	r7, r0, r0, lsl #16
     444:	189c0100 	ldmne	ip, {r8}
     448:	16000005 	strne	r0, [r0], -r5
     44c:	02006370 	andeq	r6, r0, #112, 6	; 0xc0000001
     450:	00003723 	andeq	r3, r0, r3, lsr #14
     454:	0000a000 	andeq	sl, r0, r0
     458:	81cc2200 	bichi	r2, ip, r0, lsl #4
     45c:	07d00000 	ldrbeq	r0, [r0, r0]
     460:	d4200000 	strtle	r0, [r0], #-0
     464:	d7000081 	strle	r0, [r0, -r1, lsl #1]
     468:	75000007 	strvc	r0, [r0, #-7]
     46c:	21000004 	tstcs	r0, r4
     470:	36015001 	strcc	r5, [r1], -r1
     474:	81e82000 	mvnhi	r2, r0
     478:	07ec0000 	strbeq	r0, [ip, r0]!
     47c:	048d0000 	streq	r0, [sp], #0
     480:	01210000 	teqeq	r1, r0
     484:	21300151 	teqcs	r0, r1, asr r1
     488:	40015001 	andmi	r5, r1, r1
     48c:	81f82000 	mvnshi	r2, r0
     490:	07ec0000 	strbeq	r0, [ip, r0]!
     494:	04a50000 	strteq	r0, [r5], #0
     498:	01210000 	teqeq	r1, r0
     49c:	21310151 	teqcs	r1, r1, asr r1
     4a0:	40015001 	andmi	r5, r1, r1
     4a4:	82002000 	andhi	r2, r0, #0
     4a8:	08020000 	stmdaeq	r2, {}	; <UNPREDICTABLE>
     4ac:	04b80000 	ldrteq	r0, [r8], #0
     4b0:	01210000 	teqeq	r1, r0
     4b4:	00360150 	eorseq	r0, r6, r0, asr r1
     4b8:	00820820 	addeq	r0, r2, r0, lsr #16
     4bc:	0007d700 	andeq	sp, r7, r0, lsl #14
     4c0:	0004cb00 	andeq	ip, r4, r0, lsl #22
     4c4:	50012100 	andpl	r2, r1, r0, lsl #2
     4c8:	20003501 	andcs	r3, r0, r1, lsl #10
     4cc:	0000821c 	andeq	r8, r0, ip, lsl r2
     4d0:	000007ec 	andeq	r0, r0, ip, ror #15
     4d4:	000004e3 	andeq	r0, r0, r3, ror #9
     4d8:	01510121 	cmpeq	r1, r1, lsr #2
     4dc:	50012130 	andpl	r2, r1, r0, lsr r1
     4e0:	20003c01 	andcs	r3, r0, r1, lsl #24
     4e4:	0000822c 	andeq	r8, r0, ip, lsr #4
     4e8:	000007ec 	andeq	r0, r0, ip, ror #15
     4ec:	000004fb 	strdeq	r0, [r0], -fp
     4f0:	01510121 	cmpeq	r1, r1, lsr #2
     4f4:	50012131 	andpl	r2, r1, r1, lsr r1
     4f8:	20003c01 	andcs	r3, r0, r1, lsl #24
     4fc:	00008234 	andeq	r8, r0, r4, lsr r2
     500:	00000802 	andeq	r0, r0, r2, lsl #16
     504:	0000050e 	andeq	r0, r0, lr, lsl #10
     508:	01500121 	cmpeq	r0, r1, lsr #2
     50c:	38220035 	stmdacc	r2!, {r0, r2, r4, r5}
     510:	d0000082 	andle	r0, r0, r2, lsl #1
     514:	00000007 	andeq	r0, r0, r7
     518:	0001c123 	andeq	ip, r1, r3, lsr #2
     51c:	3c3a0200 	lfmcc	f0, 4, [sl], #-0
     520:	60000082 	andvs	r0, r0, r2, lsl #1
     524:	01000000 	mrseq	r0, (UNDEF: 0)
     528:	0005f29c 	muleq	r5, ip, r2
     52c:	82482000 	subhi	r2, r8, #0
     530:	08130000 	ldmdaeq	r3, {}	; <UNPREDICTABLE>
     534:	05400000 	strbeq	r0, [r0, #-0]
     538:	01210000 	teqeq	r1, r0
     53c:	00360150 	eorseq	r0, r6, r0, asr r1
     540:	00825020 	addeq	r5, r2, r0, lsr #32
     544:	00081300 	andeq	r1, r8, r0, lsl #6
     548:	00055300 	andeq	r5, r5, r0, lsl #6
     54c:	50012100 	andpl	r2, r1, r0, lsl #2
     550:	20003501 	andcs	r3, r0, r1, lsl #10
     554:	00008258 	andeq	r8, r0, r8, asr r2
     558:	00000824 	andeq	r0, r0, r4, lsr #16
     55c:	00000566 	andeq	r0, r0, r6, ror #10
     560:	01500121 	cmpeq	r0, r1, lsr #2
     564:	60200040 	eorvs	r0, r0, r0, asr #32
     568:	24000082 	strcs	r0, [r0], #-130	; 0x82
     56c:	79000008 	stmdbvc	r0, {r3}
     570:	21000005 	tstcs	r0, r5
     574:	3c015001 	stccc	0, cr5, [r1], {1}
     578:	82682000 	rsbhi	r2, r8, #0
     57c:	08350000 	ldmdaeq	r5!, {}	; <UNPREDICTABLE>
     580:	058c0000 	streq	r0, [ip]
     584:	01210000 	teqeq	r1, r0
     588:	00360150 	eorseq	r0, r6, r0, asr r1
     58c:	00827020 	addeq	r7, r2, r0, lsr #32
     590:	00084600 	andeq	r4, r8, r0, lsl #12
     594:	00059f00 	andeq	r9, r5, r0, lsl #30
     598:	50012100 	andpl	r2, r1, r0, lsl #2
     59c:	20003601 	andcs	r3, r0, r1, lsl #12
     5a0:	00008278 	andeq	r8, r0, r8, ror r2
     5a4:	00000835 	andeq	r0, r0, r5, lsr r8
     5a8:	000005b2 			; <UNDEFINED> instruction: 0x000005b2
     5ac:	01500121 	cmpeq	r0, r1, lsr #2
     5b0:	80200035 	eorhi	r0, r0, r5, lsr r0
     5b4:	46000082 	strmi	r0, [r0], -r2, lsl #1
     5b8:	c5000008 	strgt	r0, [r0, #-8]
     5bc:	21000005 	tstcs	r0, r5
     5c0:	35015001 	strcc	r5, [r1, #-1]
     5c4:	828c2000 	addhi	r2, ip, #0
     5c8:	07ec0000 	strbeq	r0, [ip, r0]!
     5cc:	05dd0000 	ldrbeq	r0, [sp]
     5d0:	01210000 	teqeq	r1, r0
     5d4:	21310151 	teqcs	r1, r1, asr r1
     5d8:	40015001 	andmi	r5, r1, r1
     5dc:	82982400 	addshi	r2, r8, #0, 8
     5e0:	07ec0000 	strbeq	r0, [ip, r0]!
     5e4:	01210000 	teqeq	r1, r0
     5e8:	21310151 	teqcs	r1, r1, asr r1
     5ec:	3c015001 	stccc	0, cr5, [r1], {1}
     5f0:	2a230000 	bcs	8c05f8 <__bss_end__+0x8ae0d8>
     5f4:	02000000 	andeq	r0, r0, #0
     5f8:	00829c4a 	addeq	r9, r2, sl, asr #24
     5fc:	00006800 	andeq	r6, r0, r0, lsl #16
     600:	bc9c0100 	ldflts	f0, [ip], {0}
     604:	22000006 	andcs	r0, r0, #6
     608:	000082a4 	andeq	r8, r0, r4, lsr #5
     60c:	00000857 	andeq	r0, r0, r7, asr r8
     610:	0082a822 	addeq	sl, r2, r2, lsr #16
     614:	00085e00 	andeq	r5, r8, r0, lsl #28
     618:	82ac2200 	adchi	r2, ip, #0, 4
     61c:	08650000 	stmdaeq	r5!, {}^	; <UNPREDICTABLE>
     620:	b0220000 	eorlt	r0, r2, r0
     624:	18000082 	stmdane	r0, {r1, r7}
     628:	20000005 	andcs	r0, r0, r5
     62c:	000082bc 			; <UNDEFINED> instruction: 0x000082bc
     630:	00000221 	andeq	r0, r0, r1, lsr #4
     634:	00000647 	andeq	r0, r0, r7, asr #12
     638:	01510121 	cmpeq	r1, r1, lsr #2
     63c:	50012131 	andpl	r2, r1, r1, lsr r1
     640:	a0b40305 	adcsge	r0, r4, r5, lsl #6
     644:	20000000 	andcs	r0, r0, r0
     648:	000082c8 	andeq	r8, r0, r8, asr #5
     64c:	00000221 	andeq	r0, r0, r1, lsr #4
     650:	00000663 	andeq	r0, r0, r3, ror #12
     654:	01510121 	cmpeq	r1, r1, lsr #2
     658:	50012131 	andpl	r2, r1, r1, lsr r1
     65c:	c0c80305 	sbcgt	r0, r8, r5, lsl #6
     660:	20000000 	andcs	r0, r0, r0
     664:	000082d4 	ldrdeq	r8, [r0], -r4
     668:	00000221 	andeq	r0, r0, r1, lsr #4
     66c:	0000067f 	andeq	r0, r0, pc, ror r6
     670:	01510121 	cmpeq	r1, r1, lsr #2
     674:	50012131 	andpl	r2, r1, r1, lsr r1
     678:	e0dc0305 	sbcs	r0, ip, r5, lsl #6
     67c:	20000000 	andcs	r0, r0, r0
     680:	000082e0 	andeq	r8, r0, r0, ror #5
     684:	00000221 	andeq	r0, r0, r1, lsr #4
     688:	0000069b 	muleq	r0, fp, r6
     68c:	01510121 	cmpeq	r1, r1, lsr #2
     690:	50012131 	andpl	r2, r1, r1, lsr r1
     694:	00f00305 	rscseq	r0, r0, r5, lsl #6
     698:	20000001 	andcs	r0, r0, r1
     69c:	000082e8 	andeq	r8, r0, r8, ror #5
     6a0:	000007b3 			; <UNDEFINED> instruction: 0x000007b3
     6a4:	000006b2 			; <UNDEFINED> instruction: 0x000006b2
     6a8:	05500121 	ldrbeq	r0, [r0, #-289]	; 0x121
     6ac:	009ccc03 	addseq	ip, ip, r3, lsl #24
     6b0:	ec220000 	stc	0, cr0, [r2], #-0
     6b4:	6c000082 	stcvs	0, cr0, [r0], {130}	; 0x82
     6b8:	00000008 	andeq	r0, r0, r8
     6bc:	0000bc25 	andeq	fp, r0, r5, lsr #24
     6c0:	cd120200 	lfmgt	f0, 4, [r2, #-0]
     6c4:	05000006 	streq	r0, [r0, #-6]
     6c8:	01210c03 	teqeq	r1, r3, lsl #24
     6cc:	00251100 	eoreq	r1, r5, r0, lsl #2
     6d0:	2f250000 	svccs	0x00250000
     6d4:	02000001 	andeq	r0, r0, #1
     6d8:	00018e14 	andeq	r8, r1, r4, lsl lr
     6dc:	b4030500 	strlt	r0, [r3], #-1280	; 0x500
     6e0:	250000a0 	strcs	r0, [r0, #-160]	; 0xa0
     6e4:	00000266 	andeq	r0, r0, r6, ror #4
     6e8:	018e1502 	orreq	r1, lr, r2, lsl #10
     6ec:	03050000 	movweq	r0, #20480	; 0x5000
     6f0:	0000c0c8 	andeq	ip, r0, r8, asr #1
     6f4:	00015125 	andeq	r5, r1, r5, lsr #2
     6f8:	8e160200 	cdphi	2, 1, cr0, cr6, cr0, {0}
     6fc:	05000001 	streq	r0, [r0, #-1]
     700:	00e0dc03 	rsceq	sp, r0, r3, lsl #24
     704:	00db2500 	sbcseq	r2, fp, r0, lsl #10
     708:	17020000 	strne	r0, [r2, -r0]
     70c:	0000018e 	andeq	r0, r0, lr, lsl #3
     710:	00f00305 	rscseq	r0, r0, r5, lsl #6
     714:	e9250001 	stmdb	r5!, {r0}
     718:	02000009 	andeq	r0, r0, #9
     71c:	00018919 	andeq	r8, r1, r9, lsl r9
     720:	08030500 	stmdaeq	r3, {r8, sl}
     724:	25000121 	strcs	r0, [r0, #-289]	; 0x121
     728:	00000007 	andeq	r0, r0, r7
     72c:	06cd1a02 	strbeq	r1, [sp], r2, lsl #20
     730:	03050000 	movweq	r0, #20480	; 0x5000
     734:	00012104 	andeq	r2, r1, r4, lsl #2
     738:	00018d26 	andeq	r8, r1, r6, lsr #26
     73c:	441c0200 	ldrmi	r0, [ip], #-512	; 0x200
     740:	06000007 	streq	r0, [r0], -r7
     744:	00002507 	andeq	r2, r0, r7, lsl #10
     748:	02432600 	subeq	r2, r3, #0, 12
     74c:	1d020000 	stcne	0, cr0, [r2, #-0]
     750:	00000755 	andeq	r0, r0, r5, asr r7
     754:	00250705 	eoreq	r0, r5, r5, lsl #14
     758:	78260000 	stmdavc	r6!, {}	; <UNPREDICTABLE>
     75c:	02000003 	andeq	r0, r0, #3
     760:	0007661e 	andeq	r6, r7, lr, lsl r6
     764:	25071000 	strcs	r1, [r7, #-0]
     768:	26000000 	strcs	r0, [r0], -r0
     76c:	0000004d 	andeq	r0, r0, sp, asr #32
     770:	07771f02 	ldrbeq	r1, [r7, -r2, lsl #30]!
     774:	070c0000 	streq	r0, [ip, -r0]
     778:	00000025 	andeq	r0, r0, r5, lsr #32
     77c:	00035227 	andeq	r5, r3, r7, lsr #4
     780:	a1800800 	orrge	r0, r0, r0, lsl #16
     784:	05000000 	streq	r0, [r0, #-0]
     788:	01251c03 	teqeq	r5, r3, lsl #24
     78c:	03292800 	teqeq	r9, #0, 16
     790:	1b040000 	blne	100798 <__bss_end__+0xee278>
     794:	0000007d 	andeq	r0, r0, sp, ror r0
     798:	000007ac 	andeq	r0, r0, ip, lsr #15
     79c:	00007d29 	andeq	r7, r0, r9, lsr #26
     7a0:	00252900 	eoreq	r2, r5, r0, lsl #18
     7a4:	2c290000 	stccs	0, cr0, [r9], #-0
     7a8:	00000000 	andeq	r0, r0, r0
     7ac:	0000e62a 	andeq	lr, r0, sl, lsr #12
     7b0:	281e0500 	ldmdacs	lr, {r8, sl}
     7b4:	0000042a 	andeq	r0, r0, sl, lsr #8
     7b8:	00252905 	eoreq	r2, r5, r5, lsl #18
     7bc:	07c90000 	strbeq	r0, [r9, r0]
     7c0:	86290000 	strthi	r0, [r9], -r0
     7c4:	2b000000 	blcs	7cc <_start-0x7834>
     7c8:	015d2a00 	cmpeq	sp, r0, lsl #20
     7cc:	66050000 	strvs	r0, [r5], -r0
     7d0:	00013b2a 	andeq	r3, r1, sl, lsr #22
     7d4:	28870500 	stmcs	r7, {r8, sl}
     7d8:	00000147 	andeq	r0, r0, r7, asr #2
     7dc:	00252406 	eoreq	r2, r5, r6, lsl #8
     7e0:	07ec0000 	strbeq	r0, [ip, r0]!
     7e4:	37290000 	strcc	r0, [r9, -r0]!
     7e8:	00000000 	andeq	r0, r0, r0
     7ec:	00001f2c 	andeq	r1, r0, ip, lsr #30
     7f0:	02210600 	eoreq	r0, r1, #0, 12
     7f4:	29000008 	stmdbcs	r0, {r3}
     7f8:	00000037 	andeq	r0, r0, r7, lsr r0
     7fc:	00003729 	andeq	r3, r0, r9, lsr #14
     800:	f52c0000 			; <UNDEFINED> instruction: 0xf52c0000
     804:	06000000 	streq	r0, [r0], -r0
     808:	0008134e 	andeq	r1, r8, lr, asr #6
     80c:	00372900 	eorseq	r2, r7, r0, lsl #18
     810:	2c000000 	stccs	0, cr0, [r0], {-0}
     814:	000002d9 	ldrdeq	r0, [r0], -r9
     818:	08241c06 	stmdaeq	r4!, {r1, r2, sl, fp, ip}
     81c:	37290000 	strcc	r0, [r9, -r0]!
     820:	00000000 	andeq	r0, r0, r0
     824:	0003302c 	andeq	r3, r3, ip, lsr #32
     828:	351d0600 	ldrcc	r0, [sp, #-1536]	; 0x600
     82c:	29000008 	stmdbcs	r0, {r3}
     830:	00000037 	andeq	r0, r0, r7, lsr r0
     834:	016a2c00 	cmneq	sl, r0, lsl #24
     838:	3f060000 	svccc	0x00060000
     83c:	00000846 	andeq	r0, r0, r6, asr #16
     840:	00003729 	andeq	r3, r0, r9, lsr #14
     844:	622c0000 	eorvs	r0, ip, #0
     848:	06000003 	streq	r0, [r0], -r3
     84c:	00085746 	andeq	r5, r8, r6, asr #14
     850:	00372900 	eorseq	r2, r7, r0, lsl #18
     854:	2a000000 	bcs	85c <_start-0x77a4>
     858:	00000043 	andeq	r0, r0, r3, asr #32
     85c:	452a3a05 	strmi	r3, [sl, #-2565]!	; 0xa05
     860:	05000003 	streq	r0, [r0, #-3]
     864:	01d02a8b 	bicseq	r2, r0, fp, lsl #21
     868:	33070000 	movwcc	r0, #28672	; 0x7000
     86c:	0001d92a 	andeq	sp, r1, sl, lsr #18
     870:	00310700 	eorseq	r0, r1, r0, lsl #14
     874:	000000db 	ldrdeq	r0, [r0], -fp
     878:	024c0004 	subeq	r0, ip, #4
     87c:	01040000 	mrseq	r0, (UNDEF: 4)
     880:	0000027c 	andeq	r0, r0, ip, ror r2
     884:	0003b801 	andeq	fp, r3, r1, lsl #16
     888:	0003c600 	andeq	ip, r3, r0, lsl #12
     88c:	00830400 	addeq	r0, r3, r0, lsl #8
     890:	00002000 	andeq	r2, r0, r0
     894:	0002e700 	andeq	lr, r2, r0, lsl #14
     898:	06010200 	streq	r0, [r1], -r0, lsl #4
     89c:	00000250 	andeq	r0, r0, r0, asr r2
     8a0:	4e080102 	adfmie	f0, f0, f2
     8a4:	02000002 	andeq	r0, r0, #2
     8a8:	025c0502 	subseq	r0, ip, #8388608	; 0x800000
     8ac:	02020000 	andeq	r0, r2, #0
     8b0:	00011c07 	andeq	r1, r1, r7, lsl #24
     8b4:	05040300 	streq	r0, [r4, #-768]	; 0x300
     8b8:	00746e69 	rsbseq	r6, r4, r9, ror #28
     8bc:	62070402 	andvs	r0, r7, #33554432	; 0x2000000
     8c0:	02000000 	andeq	r0, r0, #0
     8c4:	007e0508 	rsbseq	r0, lr, r8, lsl #10
     8c8:	08020000 	stmdaeq	r2, {}	; <UNPREDICTABLE>
     8cc:	00005807 	andeq	r5, r0, r7, lsl #16
     8d0:	05040200 	streq	r0, [r4, #-512]	; 0x200
     8d4:	00000083 	andeq	r0, r0, r3, lsl #1
     8d8:	84070402 	strhi	r0, [r7], #-1026	; 0x402
     8dc:	04000001 	streq	r0, [r0], #-1
     8e0:	07040204 	streq	r0, [r4, -r4, lsl #4]
     8e4:	0000005d 	andeq	r0, r0, sp, asr r0
     8e8:	007a0405 	rsbseq	r0, sl, r5, lsl #8
     8ec:	01020000 	mrseq	r0, (UNDEF: 2)
     8f0:	00025708 	andeq	r5, r2, r8, lsl #14
     8f4:	00000600 	andeq	r0, r0, r0, lsl #12
     8f8:	d4020000 	strle	r0, [r2], #-0
     8fc:	00000048 	andeq	r0, r0, r8, asr #32
     900:	00032907 	andeq	r2, r3, r7, lsl #18
     904:	6b1b0300 	blvs	6c150c <__bss_end__+0x6aefec>
     908:	04000000 	streq	r0, [r0], #-0
     90c:	20000083 	andcs	r0, r0, r3, lsl #1
     910:	01000000 	mrseq	r0, (UNDEF: 0)
     914:	705f089c 			; <UNDEFINED> instruction: 0x705f089c
     918:	6b030100 	blvs	c0d20 <__bss_end__+0xae800>
     91c:	01000000 	mrseq	r0, (UNDEF: 0)
     920:	00630850 	rsbeq	r0, r3, r0, asr r8
     924:	00410301 	subeq	r0, r1, r1, lsl #6
     928:	51010000 	mrspl	r0, (UNDEF: 1)
     92c:	01006e09 	tsteq	r0, r9, lsl #28
     930:	00008103 	andeq	r8, r0, r3, lsl #2
     934:	0000c100 	andeq	ip, r0, r0, lsl #2
     938:	00700a00 	rsbseq	r0, r0, r0, lsl #20
     93c:	00740401 	rsbseq	r0, r4, r1, lsl #8
     940:	00e20000 	rsceq	r0, r2, r0
     944:	650b0000 	strvs	r0, [fp, #-0]
     948:	74040100 	strvc	r0, [r4], #-256	; 0x100
     94c:	01000000 	mrseq	r0, (UNDEF: 0)
     950:	91000052 	qaddls	r0, r2, r0
     954:	04000001 	streq	r0, [r0], #-1
     958:	0002e900 	andeq	lr, r2, r0, lsl #18
     95c:	7c010400 	cfstrsvc	mvf0, [r1], {-0}
     960:	01000002 	tsteq	r0, r2
     964:	00000419 	andeq	r0, r0, r9, lsl r4
     968:	000003c6 	andeq	r0, r0, r6, asr #7
     96c:	00008324 	andeq	r8, r0, r4, lsr #6
     970:	00000058 	andeq	r0, r0, r8, asr r0
     974:	000003d7 	ldrdeq	r0, [r0], -r7
     978:	00040a02 	andeq	r0, r4, r2, lsl #20
     97c:	30280200 	eorcc	r0, r8, r0, lsl #4
     980:	03000000 	movweq	r0, #0
     984:	00000431 	andeq	r0, r0, r1, lsr r4
     988:	47000304 	strmi	r0, [r0, -r4, lsl #6]
     98c:	04000000 	streq	r0, [r0], #-0
     990:	00000440 	andeq	r0, r0, r0, asr #8
     994:	00000047 	andeq	r0, r0, r7, asr #32
     998:	04050000 	streq	r0, [r5], #-0
     99c:	00043302 	andeq	r3, r4, r2, lsl #6
     9a0:	25620200 	strbcs	r0, [r2, #-512]!	; 0x200
     9a4:	06000000 	streq	r0, [r0], -r0
     9a8:	6e690504 	cdpvs	5, 6, cr0, cr9, cr4, {0}
     9ac:	04070074 	streq	r0, [r7], #-116	; 0x74
     9b0:	00006207 	andeq	r6, r0, r7, lsl #4
     9b4:	06010700 	streq	r0, [r1], -r0, lsl #14
     9b8:	00000250 	andeq	r0, r0, r0, asr r2
     9bc:	5c050207 	sfmpl	f0, 4, [r5], {7}
     9c0:	07000002 	streq	r0, [r0, -r2]
     9c4:	00830504 	addeq	r0, r3, r4, lsl #10
     9c8:	08070000 	stmdaeq	r7, {}	; <UNPREDICTABLE>
     9cc:	00007e05 	andeq	r7, r0, r5, lsl #28
     9d0:	08010700 	stmdaeq	r1, {r8, r9, sl}
     9d4:	0000024e 	andeq	r0, r0, lr, asr #4
     9d8:	1c070207 	sfmne	f0, 4, [r7], {7}
     9dc:	07000001 	streq	r0, [r0, -r1]
     9e0:	005d0704 	subseq	r0, sp, r4, lsl #14
     9e4:	08070000 	stmdaeq	r7, {}	; <UNPREDICTABLE>
     9e8:	00005807 	andeq	r5, r0, r7, lsl #16
     9ec:	07040700 	streq	r0, [r4, -r0, lsl #14]
     9f0:	00000184 	andeq	r0, r0, r4, lsl #3
     9f4:	00a70408 	adceq	r0, r7, r8, lsl #8
     9f8:	01070000 	mrseq	r0, (UNDEF: 7)
     9fc:	00025708 	andeq	r5, r2, r8, lsl #14
     a00:	b4040800 	strlt	r0, [r4], #-2048	; 0x800
     a04:	09000000 	stmdbeq	r0, {}	; <UNPREDICTABLE>
     a08:	000000a7 	andeq	r0, r0, r7, lsr #1
     a0c:	00042a0a 	andeq	r2, r4, sl, lsl #20
     a10:	54060100 	strpl	r0, [r6], #-256	; 0x100
     a14:	24000000 	strcs	r0, [r0], #-0
     a18:	58000083 	stmdapl	r0, {r0, r1, r7}
     a1c:	01000000 	mrseq	r0, (UNDEF: 0)
     a20:	0001439c 	muleq	r1, ip, r3
     a24:	6d660b00 	vstmdbvs	r6!, {d16-d15}
     a28:	06010074 			; <UNDEFINED> instruction: 0x06010074
     a2c:	000000ae 	andeq	r0, r0, lr, lsr #1
     a30:	0c709102 	ldfeqp	f1, [r0], #-8
     a34:	6675620d 	ldrbtvs	r6, [r5], -sp, lsl #4
     a38:	43080100 	movwmi	r0, #33024	; 0x8100
     a3c:	05000001 	streq	r0, [r0, #-1]
     a40:	01211003 	teqeq	r1, r3
     a44:	043b0e00 	ldrteq	r0, [fp], #-3584	; 0xe00
     a48:	09010000 	stmdbeq	r1, {}	; <UNPREDICTABLE>
     a4c:	00000049 	andeq	r0, r0, r9, asr #32
     a50:	0f5c9102 	svceq	0x005c9102
     a54:	01007a73 	tsteq	r0, r3, ror sl
     a58:	0000540c 	andeq	r5, r0, ip, lsl #8
     a5c:	00010d00 	andeq	r0, r1, r0, lsl #26
     a60:	834c1000 	movthi	r1, #49152	; 0xc000
     a64:	01740000 	cmneq	r4, r0
     a68:	01360000 	teqeq	r6, r0
     a6c:	01110000 	tsteq	r1, r0
     a70:	4c910253 	lfmmi	f0, 4, [r1], {83}	; 0x53
     a74:	03520111 	cmpeq	r2, #1073741828	; 0x40000004
     a78:	11064891 			; <UNDEFINED> instruction: 0x11064891
     a7c:	0a035101 	beq	d4e88 <__bss_end__+0xc2968>
     a80:	01110400 	tsteq	r1, r0, lsl #8
     a84:	00740250 	rsbseq	r0, r4, r0, asr r2
     a88:	83601200 	cmnhi	r0, #0, 4
     a8c:	01110000 	tsteq	r1, r0
     a90:	00740250 	rsbseq	r0, r4, r0, asr r2
     a94:	a7130000 	ldrge	r0, [r3, -r0]
     a98:	54000000 	strpl	r0, [r0], #-0
     a9c:	14000001 	strne	r0, [r0], #-1
     aa0:	0000009a 	muleq	r0, sl, r0
     aa4:	150003ff 	strne	r0, [r0, #-1023]	; 0x3ff
     aa8:	00000054 	andeq	r0, r0, r4, asr r0
     aac:	00000163 	andeq	r0, r0, r3, ror #2
     ab0:	0000ae16 	andeq	sl, r0, r6, lsl lr
     ab4:	93170000 	tstls	r7, #0
     ab8:	04000004 	streq	r0, [r0], #-4
     abc:	00016e22 	andeq	r6, r1, r2, lsr #28
     ac0:	54040800 	strpl	r0, [r4], #-2048	; 0x800
     ac4:	18000001 	stmdane	r0, {r0}
     ac8:	00000427 	andeq	r0, r0, r7, lsr #8
     acc:	00540205 	subseq	r0, r4, r5, lsl #4
     ad0:	a1160000 	tstge	r6, r0
     ad4:	16000000 	strne	r0, [r0], -r0
     ad8:	00000054 	andeq	r0, r0, r4, asr r0
     adc:	0000ae16 	andeq	sl, r0, r6, lsl lr
     ae0:	00491600 	subeq	r1, r9, r0, lsl #12
     ae4:	00000000 	andeq	r0, r0, r0
     ae8:	00000113 	andeq	r0, r0, r3, lsl r1
     aec:	041a0004 	ldreq	r0, [sl], #-4
     af0:	01040000 	mrseq	r0, (UNDEF: 4)
     af4:	0000027c 	andeq	r0, r0, ip, ror r2
     af8:	00046201 	andeq	r6, r4, r1, lsl #4
     afc:	0003c600 	andeq	ip, r3, r0, lsl #12
     b00:	00837c00 	addeq	r7, r3, r0, lsl #24
     b04:	00003c00 	andeq	r3, r0, r0, lsl #24
     b08:	0004dd00 	andeq	sp, r4, r0, lsl #26
     b0c:	05040200 	streq	r0, [r4, #-512]	; 0x200
     b10:	00746e69 	rsbseq	r6, r4, r9, ror #28
     b14:	62070403 	andvs	r0, r7, #50331648	; 0x3000000
     b18:	03000000 	movweq	r0, #0
     b1c:	02500601 	subseq	r0, r0, #1048576	; 0x100000
     b20:	02030000 	andeq	r0, r3, #0
     b24:	00025c05 	andeq	r5, r2, r5, lsl #24
     b28:	05040300 	streq	r0, [r4, #-768]	; 0x300
     b2c:	00000083 	andeq	r0, r0, r3, lsl #1
     b30:	7e050803 	cdpvc	8, 0, cr0, cr5, cr3, {0}
     b34:	03000000 	movweq	r0, #0
     b38:	024e0801 	subeq	r0, lr, #65536	; 0x10000
     b3c:	02030000 	andeq	r0, r3, #0
     b40:	00011c07 	andeq	r1, r1, r7, lsl #24
     b44:	07040300 	streq	r0, [r4, -r0, lsl #6]
     b48:	0000005d 	andeq	r0, r0, sp, asr r0
     b4c:	58070803 	stmdapl	r7, {r0, r1, fp}
     b50:	03000000 	movweq	r0, #0
     b54:	01840704 	orreq	r0, r4, r4, lsl #14
     b58:	01030000 	mrseq	r0, (UNDEF: 3)
     b5c:	00025708 	andeq	r5, r2, r8, lsl #14
     b60:	04450400 	strbeq	r0, [r5], #-1024	; 0x400
     b64:	03010000 	movweq	r0, #4096	; 0x1000
     b68:	00000025 	andeq	r0, r0, r5, lsr #32
     b6c:	0000837c 	andeq	r8, r0, ip, ror r3
     b70:	00000014 	andeq	r0, r0, r4, lsl r0
     b74:	00b09c01 	adcseq	r9, r0, r1, lsl #24
     b78:	63050000 	movwvs	r0, #20480	; 0x5000
     b7c:	25030100 	strcs	r0, [r3, #-256]	; 0x100
     b80:	36000000 	strcc	r0, [r0], -r0
     b84:	06000001 	streq	r0, [r0], -r1
     b88:	00008388 	andeq	r8, r0, r8, lsl #7
     b8c:	00000109 	andeq	r0, r0, r9, lsl #2
     b90:	02500107 	subseq	r0, r0, #-1073741823	; 0xc0000001
     b94:	00000074 	andeq	r0, r0, r4, ror r0
     b98:	0000e608 	andeq	lr, r0, r8, lsl #12
     b9c:	90080100 	andls	r0, r8, r0, lsl #2
     ba0:	18000083 	stmdane	r0, {r0, r1, r7}
     ba4:	01000000 	mrseq	r0, (UNDEF: 0)
     ba8:	0471099c 	ldrbteq	r0, [r1], #-2460	; 0x99c
     bac:	0b010000 	bleq	40bb4 <__bss_end__+0x2e694>
     bb0:	000083a8 	andeq	r8, r0, r8, lsr #7
     bb4:	00000010 	andeq	r0, r0, r0, lsl r0
     bb8:	00e39c01 	rsceq	r9, r3, r1, lsl #24
     bbc:	660a0000 	strvs	r0, [sl], -r0
     bc0:	0b010070 	bleq	40d88 <__bss_end__+0x2e868>
     bc4:	000000f2 	strdeq	r0, [r0], -r2
     bc8:	0b005001 	bleq	14bd4 <__bss_end__+0x26b4>
     bcc:	00000025 	andeq	r0, r0, r5, lsr #32
     bd0:	000000f2 	strdeq	r0, [r0], -r2
     bd4:	0000250c 	andeq	r2, r0, ip, lsl #10
     bd8:	040d0000 	streq	r0, [sp], #-0
     bdc:	000000e3 	andeq	r0, r0, r3, ror #1
     be0:	0004560e 	andeq	r5, r4, lr, lsl #12
     be4:	f2060100 	vrhadd.s8	d0, d6, d0
     be8:	05000000 	streq	r0, [r0, #-0]
     bec:	009b4003 	addseq	r4, fp, r3
     bf0:	05e70f00 	strbeq	r0, [r7, #3840]!	; 0xf00
     bf4:	3c020000 	stccc	0, cr0, [r2], {-0}
     bf8:	00002c0c 	andeq	r2, r0, ip, lsl #24
     bfc:	ee000000 	cdp	0, 0, cr0, cr0, cr0, {0}
     c00:	04000000 	streq	r0, [r0], #-0
     c04:	00050200 	andeq	r0, r5, r0, lsl #4
     c08:	7c010400 	cfstrsvc	mvf0, [r1], {-0}
     c0c:	01000002 	tsteq	r0, r2
     c10:	0000047e 	andeq	r0, r0, lr, ror r4
     c14:	000003c6 	andeq	r0, r0, r6, asr #7
     c18:	000083b8 			; <UNDEFINED> instruction: 0x000083b8
     c1c:	00000034 	andeq	r0, r0, r4, lsr r0
     c20:	0000056b 	andeq	r0, r0, fp, ror #10
     c24:	69050402 	stmdbvs	r5, {r1, sl}
     c28:	0300746e 	movweq	r7, #1134	; 0x46e
     c2c:	00620704 	rsbeq	r0, r2, r4, lsl #14
     c30:	01030000 	mrseq	r0, (UNDEF: 3)
     c34:	00025006 	andeq	r5, r2, r6
     c38:	05020300 	streq	r0, [r2, #-768]	; 0x300
     c3c:	0000025c 	andeq	r0, r0, ip, asr r2
     c40:	83050403 	movwhi	r0, #21507	; 0x5403
     c44:	03000000 	movweq	r0, #0
     c48:	007e0508 	rsbseq	r0, lr, r8, lsl #10
     c4c:	01030000 	mrseq	r0, (UNDEF: 3)
     c50:	00024e08 	andeq	r4, r2, r8, lsl #28
     c54:	07020300 	streq	r0, [r2, -r0, lsl #6]
     c58:	0000011c 	andeq	r0, r0, ip, lsl r1
     c5c:	5d070403 	cfstrspl	mvf0, [r7, #-12]
     c60:	03000000 	movweq	r0, #0
     c64:	00580708 	subseq	r0, r8, r8, lsl #14
     c68:	04030000 	streq	r0, [r3], #-0
     c6c:	00018407 	andeq	r8, r1, r7, lsl #8
     c70:	08010300 	stmdaeq	r1, {r8, r9}
     c74:	00000257 	andeq	r0, r0, r7, asr r2
     c78:	007f0404 	rsbseq	r0, pc, r4, lsl #8
     c7c:	72050000 	andvc	r0, r5, #0
     c80:	06000000 	streq	r0, [r0], -r0
     c84:	0000048a 	andeq	r0, r0, sl, lsl #9
     c88:	00250401 	eoreq	r0, r5, r1, lsl #8
     c8c:	83b80000 			; <UNDEFINED> instruction: 0x83b80000
     c90:	00340000 	eorseq	r0, r4, r0
     c94:	9c010000 	stcls	0, cr0, [r1], {-0}
     c98:	000000ab 	andeq	r0, r0, fp, lsr #1
     c9c:	01007007 	tsteq	r0, r7
     ca0:	00007904 	andeq	r7, r0, r4, lsl #18
     ca4:	00015400 	andeq	r5, r1, r0, lsl #8
     ca8:	25080000 	strcs	r0, [r8, #-0]
     cac:	ba000000 	blt	cb4 <_start-0x734c>
     cb0:	09000000 	stmdbeq	r0, {}	; <UNPREDICTABLE>
     cb4:	00000025 	andeq	r0, r0, r5, lsr #32
     cb8:	04560a00 	ldrbeq	r0, [r6], #-2560	; 0xa00
     cbc:	1d020000 	stcne	0, cr0, [r2, #-0]
     cc0:	000000c5 	andeq	r0, r0, r5, asr #1
     cc4:	00ab0404 	adceq	r0, fp, r4, lsl #8
     cc8:	25080000 	strcs	r0, [r8, #-0]
     ccc:	da000000 	ble	cd4 <_start-0x732c>
     cd0:	09000000 	stmdbeq	r0, {}	; <UNPREDICTABLE>
     cd4:	00000079 	andeq	r0, r0, r9, ror r0
     cd8:	04930b00 	ldreq	r0, [r3], #2816	; 0xb00
     cdc:	0c010000 	stceq	0, cr0, [r1], {-0}
     ce0:	000000eb 	andeq	r0, r0, fp, ror #1
     ce4:	9b440305 	blls	1101900 <__bss_end__+0x10ef3e0>
     ce8:	04040000 	streq	r0, [r4], #-0
     cec:	000000cb 	andeq	r0, r0, fp, asr #1
     cf0:	00068100 	andeq	r8, r6, r0, lsl #2
     cf4:	9b000400 	blls	1cfc <_start-0x6304>
     cf8:	04000005 	streq	r0, [r0], #-5
     cfc:	00027c01 	andeq	r7, r2, r1, lsl #24
     d00:	04c40100 	strbeq	r0, [r4], #256	; 0x100
     d04:	03c60000 	biceq	r0, r6, #0
     d08:	83ec0000 	mvnhi	r0, #0
     d0c:	04f80000 	ldrbteq	r0, [r8], #0
     d10:	06050000 	streq	r0, [r5], -r0
     d14:	04020000 	streq	r0, [r2], #-0
     d18:	746e6905 	strbtvc	r6, [lr], #-2309	; 0x905
     d1c:	07040300 	streq	r0, [r4, -r0, lsl #6]
     d20:	00000062 	andeq	r0, r0, r2, rrx
     d24:	50060103 	andpl	r0, r6, r3, lsl #2
     d28:	03000002 	movweq	r0, #2
     d2c:	025c0502 	subseq	r0, ip, #8388608	; 0x800000
     d30:	04030000 	streq	r0, [r3], #-0
     d34:	00008305 	andeq	r8, r0, r5, lsl #6
     d38:	05080300 	streq	r0, [r8, #-768]	; 0x300
     d3c:	0000007e 	andeq	r0, r0, lr, ror r0
     d40:	4e080103 	adfmie	f0, f0, f3
     d44:	03000002 	movweq	r0, #2
     d48:	011c0702 	tsteq	ip, r2, lsl #14
     d4c:	04030000 	streq	r0, [r3], #-0
     d50:	00005d07 	andeq	r5, r0, r7, lsl #26
     d54:	07080300 	streq	r0, [r8, -r0, lsl #6]
     d58:	00000058 	andeq	r0, r0, r8, asr r0
     d5c:	84070403 	strhi	r0, [r7], #-1027	; 0x403
     d60:	04000001 	streq	r0, [r0], #-1
     d64:	7a040504 	bvc	10217c <__bss_end__+0xefc5c>
     d68:	03000000 	movweq	r0, #0
     d6c:	02570801 	subseq	r0, r7, #65536	; 0x10000
     d70:	04050000 	streq	r0, [r5], #-0
     d74:	00000087 	andeq	r0, r0, r7, lsl #1
     d78:	00007a06 	andeq	r7, r0, r6, lsl #20
     d7c:	040a0700 	streq	r0, [sl], #-1792	; 0x700
     d80:	28020000 	stmdacs	r2, {}	; <UNPREDICTABLE>
     d84:	00000097 	muleq	r0, r7, r0
     d88:	00043108 	andeq	r3, r4, r8, lsl #2
     d8c:	00040400 	andeq	r0, r4, r0, lsl #8
     d90:	000000ae 	andeq	r0, r0, lr, lsr #1
     d94:	00044009 	andeq	r4, r4, r9
     d98:	00007200 	andeq	r7, r0, r0, lsl #4
     d9c:	07000000 	streq	r0, [r0, -r0]
     da0:	00000433 	andeq	r0, r0, r3, lsr r4
     da4:	008c6202 	addeq	r6, ip, r2, lsl #4
     da8:	a60a0000 	strge	r0, [sl], -r0
     dac:	01000004 	tsteq	r0, r4
     db0:	00002527 	andeq	r2, r0, r7, lsr #10
     db4:	0083ec00 	addeq	lr, r3, r0, lsl #24
     db8:	00001400 	andeq	r1, r0, r0, lsl #8
     dbc:	e09c0100 	adds	r0, ip, r0, lsl #2
     dc0:	0b000000 	bleq	dc8 <_start-0x7238>
     dc4:	27010063 	strcs	r0, [r1, -r3, rrx]
     dc8:	00000025 	andeq	r0, r0, r5, lsr #32
     dcc:	00000172 	andeq	r0, r0, r2, ror r1
     dd0:	61700c00 	cmnvs	r0, r0, lsl #24
     dd4:	2e010064 	cdpcs	0, 0, cr0, cr1, cr4, {3}
     dd8:	00000074 	andeq	r0, r0, r4, ror r0
     ddc:	00008400 	andeq	r8, r0, r0, lsl #8
     de0:	0000002c 	andeq	r0, r0, ip, lsr #32
     de4:	01309c01 	teqeq	r0, r1, lsl #24
     de8:	700b0000 	andvc	r0, fp, r0
     dec:	742e0100 	strtvc	r0, [lr], #-256	; 0x100
     df0:	a0000000 	andge	r0, r0, r0
     df4:	0d000001 	stceq	0, cr0, [r0, #-4]
     df8:	000004b6 			; <UNDEFINED> instruction: 0x000004b6
     dfc:	00742e01 	rsbseq	r2, r4, r1, lsl #28
     e00:	01cb0000 	biceq	r0, fp, r0
     e04:	e40e0000 	str	r0, [lr], #-0
     e08:	01000004 	tsteq	r0, r4
     e0c:	0000252e 	andeq	r2, r0, lr, lsr #10
     e10:	0f520100 	svceq	0x00520100
     e14:	006e656c 	rsbeq	r6, lr, ip, ror #10
     e18:	00252f01 	eoreq	r2, r5, r1, lsl #30
     e1c:	51010000 	mrspl	r0, (UNDEF: 1)
     e20:	049e0a00 	ldreq	r0, [lr], #2560	; 0xa00
     e24:	37010000 	strcc	r0, [r1, -r0]
     e28:	00000074 	andeq	r0, r0, r4, ror r0
     e2c:	0000842c 	andeq	r8, r0, ip, lsr #8
     e30:	00000040 	andeq	r0, r0, r0, asr #32
     e34:	019c9c01 	orrseq	r9, ip, r1, lsl #24
     e38:	640b0000 	strvs	r0, [fp], #-0
     e3c:	01007473 	tsteq	r0, r3, ror r4
     e40:	00007437 	andeq	r7, r0, r7, lsr r4
     e44:	0001ec00 	andeq	lr, r1, r0, lsl #24
     e48:	006e0b00 	rsbeq	r0, lr, r0, lsl #22
     e4c:	00253701 	eoreq	r3, r5, r1, lsl #14
     e50:	02240000 	eoreq	r0, r4, #0
     e54:	700b0000 	andvc	r0, fp, r0
     e58:	74370100 	ldrtvc	r0, [r7], #-256	; 0x100
     e5c:	45000000 	strmi	r0, [r0, #-0]
     e60:	0d000002 	stceq	0, cr0, [r0, #-8]
     e64:	000005d3 	ldrdeq	r0, [r0], -r3
     e68:	00743701 	rsbseq	r3, r4, r1, lsl #14
     e6c:	027b0000 	rsbseq	r0, fp, #0
     e70:	6c100000 	ldcvs	0, cr0, [r0], {-0}
     e74:	01006e65 	tsteq	r0, r5, ror #28
     e78:	00002539 	andeq	r2, r0, r9, lsr r5
     e7c:	00029900 	andeq	r9, r2, r0, lsl #18
     e80:	00730f00 	rsbseq	r0, r3, r0, lsl #30
     e84:	00743d01 	rsbseq	r3, r4, r1, lsl #26
     e88:	50010000 	andpl	r0, r1, r0
     e8c:	04f20a00 	ldrbteq	r0, [r2], #2560	; 0xa00
     e90:	47010000 	strmi	r0, [r1, -r0]
     e94:	00000074 	andeq	r0, r0, r4, ror r0
     e98:	0000846c 	andeq	r8, r0, ip, ror #8
     e9c:	0000019c 	muleq	r0, ip, r1
     ea0:	02d39c01 	sbcseq	r9, r3, #256	; 0x100
     ea4:	b60d0000 	strlt	r0, [sp], -r0
     ea8:	01000004 	tsteq	r0, r4
     eac:	00002c47 	andeq	r2, r0, r7, asr #24
     eb0:	0002c000 	andeq	ip, r2, r0
     eb4:	73640b00 	cmnvc	r4, #0, 22
     eb8:	47010074 	smlsdxmi	r1, r4, r0, r0
     ebc:	00000074 	andeq	r0, r0, r4, ror r0
     ec0:	000002ee 	andeq	r0, r0, lr, ror #5
     ec4:	01006e0b 	tsteq	r0, fp, lsl #28
     ec8:	00002547 	andeq	r2, r0, r7, asr #10
     ecc:	00035c00 	andeq	r5, r3, r0, lsl #24
     ed0:	61760b00 	cmnvs	r6, r0, lsl #22
     ed4:	4701006c 	strmi	r0, [r1, -ip, rrx]
     ed8:	00000025 	andeq	r0, r0, r5, lsr #32
     edc:	00000388 	andeq	r0, r0, r8, lsl #7
     ee0:	0004e40d 	andeq	lr, r4, sp, lsl #8
     ee4:	25470100 	strbcs	r0, [r7, #-256]	; 0x100
     ee8:	07000000 	streq	r0, [r0, -r0]
     eec:	0e000004 	cdpeq	0, 0, cr0, cr0, cr4, {0}
     ef0:	000004bb 			; <UNDEFINED> instruction: 0x000004bb
     ef4:	00254701 	eoreq	r4, r5, r1, lsl #14
     ef8:	91020000 	mrsls	r0, (UNDEF: 2)
     efc:	75620f04 	strbvc	r0, [r2, #-3844]!	; 0xf04
     f00:	4c010066 	stcmi	0, cr0, [r1], {102}	; 0x66
     f04:	000002d3 	ldrdeq	r0, [r0], -r3
     f08:	7fa89103 	svcvc	0x00a89103
     f0c:	01007010 	tsteq	r0, r0, lsl r0
     f10:	0000744c 	andeq	r7, r0, ip, asr #8
     f14:	00043100 	andeq	r3, r4, r0, lsl #2
     f18:	00751000 	rsbseq	r1, r5, r0
     f1c:	002c4d01 	eoreq	r4, ip, r1, lsl #26
     f20:	04d60000 	ldrbeq	r0, [r6], #0
     f24:	06110000 	ldreq	r0, [r1], -r0
     f28:	f3000001 	vhadd.u8	d0, d0, d1
     f2c:	05000002 	streq	r0, [r0, #-2]
     f30:	009ce403 	addseq	lr, ip, r3, lsl #8
     f34:	84d81200 	ldrbhi	r1, [r8], #512	; 0x200
     f38:	00740000 	rsbseq	r0, r4, r0
     f3c:	02610000 	rsbeq	r0, r1, #0
     f40:	98130000 	ldmdals	r3, {}	; <UNPREDICTABLE>
     f44:	01000004 	tsteq	r0, r4
     f48:	00002c52 	andeq	r2, r0, r2, asr ip
     f4c:	0005db00 	andeq	sp, r5, r0, lsl #22
     f50:	ac140000 	ldcge	0, cr0, [r4], {-0}
     f54:	60000085 	andvs	r0, r0, r5, lsl #1
     f58:	15000006 	strne	r0, [r0, #-6]
     f5c:	000085c0 	andeq	r8, r0, r0, asr #11
     f60:	00000667 	andeq	r0, r0, r7, ror #12
     f64:	00000299 	muleq	r0, r9, r2
     f68:	02530116 	subseq	r0, r3, #-2147483643	; 0x80000005
     f6c:	01167508 	tsteq	r6, r8, lsl #10
     f70:	e4030552 	str	r0, [r3], #-1362	; 0x552
     f74:	1600009c 			; <UNDEFINED> instruction: 0x1600009c
     f78:	03055101 	movweq	r5, #20737	; 0x5101
     f7c:	00009d1c 	andeq	r9, r0, ip, lsl sp
     f80:	05500116 	ldrbeq	r0, [r0, #-278]	; 0x116
     f84:	009d0803 	addseq	r0, sp, r3, lsl #16
     f88:	c4140000 	ldrgt	r0, [r4], #-0
     f8c:	7d000085 	stcvc	0, cr0, [r0, #-532]	; 0xfffffdec
     f90:	15000006 	strne	r0, [r0, #-6]
     f94:	000085d0 	ldrdeq	r8, [r0], -r0
     f98:	000000e0 	andeq	r0, r0, r0, ror #1
     f9c:	000002b6 			; <UNDEFINED> instruction: 0x000002b6
     fa0:	02510116 	subseq	r0, r1, #-2147483643	; 0x80000005
     fa4:	1700007d 	smlsdxne	r0, sp, r0, r0
     fa8:	000085e4 	andeq	r8, r0, r4, ror #11
     fac:	00000130 	andeq	r0, r0, r0, lsr r1
     fb0:	02530116 	subseq	r0, r3, #-2147483643	; 0x80000005
     fb4:	0116007d 	tsteq	r6, sp, ror r0
     fb8:	00740251 	rsbseq	r0, r4, r1, asr r2
     fbc:	02500116 	subseq	r0, r0, #-2147483643	; 0x80000005
     fc0:	00000075 	andeq	r0, r0, r5, ror r0
     fc4:	00007a18 	andeq	r7, r0, r8, lsl sl
     fc8:	0002e300 	andeq	lr, r2, r0, lsl #6
     fcc:	006b1900 	rsbeq	r1, fp, r0, lsl #18
     fd0:	003f0000 	eorseq	r0, pc, r0
     fd4:	00007a18 	andeq	r7, r0, r8, lsl sl
     fd8:	0002f300 	andeq	pc, r2, r0, lsl #6
     fdc:	006b1900 	rsbeq	r1, fp, r0, lsl #18
     fe0:	00040000 	andeq	r0, r4, r0
     fe4:	0002e306 	andeq	lr, r2, r6, lsl #6
     fe8:	04d51a00 	ldrbeq	r1, [r5], #2560	; 0xa00
     fec:	1f010000 	svcne	0x00010000
     ff0:	00008608 	andeq	r8, r0, r8, lsl #12
     ff4:	00000054 	andeq	r0, r0, r4, asr r0
     ff8:	037c9c01 	cmneq	ip, #256	; 0x100
     ffc:	ea0d0000 	b	341004 <__bss_end__+0x32eae4>
    1000:	01000004 	tsteq	r0, r4
    1004:	00038b1f 	andeq	r8, r3, pc, lsl fp
    1008:	00060700 	andeq	r0, r6, r0, lsl #14
    100c:	04ae0d00 	strteq	r0, [lr], #3328	; 0xd00
    1010:	1f010000 	svcne	0x00010000
    1014:	000003a0 	andeq	r0, r0, r0, lsr #7
    1018:	00000633 	andeq	r0, r0, r3, lsr r6
    101c:	00010611 	andeq	r0, r1, r1, lsl r6
    1020:	0003b600 	andeq	fp, r3, r0, lsl #12
    1024:	ec030500 	cfstr32	mvfx0, [r3], {-0}
    1028:	1400009c 	strne	r0, [r0], #-156	; 0x9c
    102c:	00008618 	andeq	r8, r0, r8, lsl r6
    1030:	00000660 	andeq	r0, r0, r0, ror #12
    1034:	00862c15 	addeq	r2, r6, r5, lsl ip
    1038:	00066700 	andeq	r6, r6, r0, lsl #14
    103c:	00037200 	andeq	r7, r3, r0, lsl #4
    1040:	53011600 	movwpl	r1, #5632	; 0x1600
    1044:	16200802 	strtne	r0, [r0], -r2, lsl #16
    1048:	03055201 	movweq	r5, #20993	; 0x5201
    104c:	00009cec 	andeq	r9, r0, ip, ror #25
    1050:	05510116 	ldrbeq	r0, [r1, #-278]	; 0x116
    1054:	009d1c03 	addseq	r1, sp, r3, lsl #24
    1058:	50011600 	andpl	r1, r1, r0, lsl #12
    105c:	9d540305 	ldclls	3, cr0, [r4, #-20]	; 0xffffffec
    1060:	14000000 	strne	r0, [r0], #-0
    1064:	00008630 	andeq	r8, r0, r0, lsr r6
    1068:	0000067d 	andeq	r0, r0, sp, ror r6
    106c:	00251b00 	eoreq	r1, r5, r0, lsl #22
    1070:	038b0000 	orreq	r0, fp, #0
    1074:	251c0000 	ldrcs	r0, [ip, #-0]
    1078:	00000000 	andeq	r0, r0, r0
    107c:	037c0405 	cmneq	ip, #83886080	; 0x5000000
    1080:	251b0000 	ldrcs	r0, [fp, #-0]
    1084:	a0000000 	andge	r0, r0, r0
    1088:	1c000003 	stcne	0, cr0, [r0], {3}
    108c:	00000081 	andeq	r0, r0, r1, lsl #1
    1090:	91040500 	tstls	r4, r0, lsl #10
    1094:	18000003 	stmdane	r0, {r0, r1}
    1098:	0000007a 	andeq	r0, r0, sl, ror r0
    109c:	000003b6 			; <UNDEFINED> instruction: 0x000003b6
    10a0:	00006b19 	andeq	r6, r0, r9, lsl fp
    10a4:	06000e00 	streq	r0, [r0], -r0, lsl #28
    10a8:	000003a6 	andeq	r0, r0, r6, lsr #7
    10ac:	0004271d 	andeq	r2, r4, sp, lsl r7
    10b0:	257d0100 	ldrbcs	r0, [sp, #-256]!	; 0x100
    10b4:	5c000000 	stcpl	0, cr0, [r0], {-0}
    10b8:	88000086 	stmdahi	r0, {r1, r2, r7}
    10bc:	01000002 	tsteq	r0, r2
    10c0:	0006259c 	muleq	r6, ip, r5
    10c4:	75620b00 	strbvc	r0, [r2, #-2816]!	; 0xb00
    10c8:	7d010066 	stcvc	0, cr0, [r1, #-408]	; 0xfffffe68
    10cc:	00000074 	andeq	r0, r0, r4, ror r0
    10d0:	0000065f 	andeq	r0, r0, pc, asr r6
    10d4:	01006e0b 	tsteq	r0, fp, lsl #28
    10d8:	0000257d 	andeq	r2, r0, sp, ror r5
    10dc:	00068b00 	andeq	r8, r6, r0, lsl #22
    10e0:	6d660b00 	vstmdbvs	r6!, {d16-d15}
    10e4:	7d010074 	stcvc	0, cr0, [r1, #-464]	; 0xfffffe30
    10e8:	00000081 	andeq	r0, r0, r1, lsl #1
    10ec:	000006b9 			; <UNDEFINED> instruction: 0x000006b9
    10f0:	00043b0d 	andeq	r3, r4, sp, lsl #22
    10f4:	ae7d0100 	rpwgee	f0, f5, f0
    10f8:	ed000000 	stc	0, cr0, [r0, #-0]
    10fc:	10000006 	andne	r0, r0, r6
    1100:	7e010070 	mcrvc	0, 0, r0, cr1, cr0, {3}
    1104:	00000074 	andeq	r0, r0, r4, ror r0
    1108:	00000700 	andeq	r0, r0, r0, lsl #14
    110c:	01006510 	tsteq	r0, r0, lsl r5
    1110:	0000747e 	andeq	r7, r0, lr, ror r4
    1114:	00077e00 	andeq	r7, r7, r0, lsl #28
    1118:	01061100 	mrseq	r1, (UNDEF: 22)
    111c:	06350000 	ldrteq	r0, [r5], -r0
    1120:	03050000 	movweq	r0, #20480	; 0x5000
    1124:	00009cfc 	strdeq	r9, [r0], -ip
    1128:	0000181e 	andeq	r1, r0, lr, lsl r8
    112c:	00731000 	rsbseq	r1, r3, r0
    1130:	00748b01 	rsbseq	r8, r4, r1, lsl #22
    1134:	07a50000 	streq	r0, [r5, r0]!
    1138:	6e0f0000 	cdpvs	0, 0, cr0, cr15, cr0, {0}
    113c:	01006d75 	tsteq	r0, r5, ror sp
    1140:	00063a8b 	andeq	r3, r6, fp, lsl #21
    1144:	d8910300 	ldmle	r1, {r8, r9}
    1148:	04e4137e 	strbteq	r1, [r4], #894	; 0x37e
    114c:	8c010000 	stchi	0, cr0, [r1], {-0}
    1150:	0000002c 	andeq	r0, r0, ip, lsr #32
    1154:	000007fa 	strdeq	r0, [r0], -sl
    1158:	0086e015 	addeq	lr, r6, r5, lsl r0
    115c:	0000b900 	andeq	fp, r0, r0, lsl #18
    1160:	00047b00 	andeq	r7, r4, r0, lsl #22
    1164:	50011600 	andpl	r1, r1, r0, lsl #12
    1168:	00007502 	andeq	r7, r0, r2, lsl #10
    116c:	0086f414 	addeq	pc, r6, r4, lsl r4	; <UNPREDICTABLE>
    1170:	00066000 	andeq	r6, r6, r0
    1174:	87081500 	strhi	r1, [r8, -r0, lsl #10]
    1178:	06670000 	strbteq	r0, [r7], -r0
    117c:	04b30000 	ldrteq	r0, [r3], #0
    1180:	01160000 	tsteq	r6, r0
    1184:	92080253 	andls	r0, r8, #805306373	; 0x30000005
    1188:	05520116 	ldrbeq	r0, [r2, #-278]	; 0x116
    118c:	009cfc03 	addseq	pc, ip, r3, lsl #24
    1190:	51011600 	tstpl	r1, r0, lsl #12
    1194:	9d1c0305 	ldcls	3, cr0, [ip, #-20]	; 0xffffffec
    1198:	01160000 	tsteq	r6, r0
    119c:	6c030550 	cfstr32vs	mvfx0, [r3], {80}	; 0x50
    11a0:	0000009d 	muleq	r0, sp, r0
    11a4:	00870c14 	addeq	r0, r7, r4, lsl ip
    11a8:	00067d00 	andeq	r7, r6, r0, lsl #26
    11ac:	877c1400 	ldrbhi	r1, [ip, -r0, lsl #8]!
    11b0:	06600000 	strbteq	r0, [r0], -r0
    11b4:	90150000 	andsls	r0, r5, r0
    11b8:	67000087 	strvs	r0, [r0, -r7, lsl #1]
    11bc:	f4000006 	vst4.8	{d0-d3}, [r0], r6
    11c0:	16000004 	strne	r0, [r0], -r4
    11c4:	08025301 	stmdaeq	r2, {r0, r8, r9, ip, lr}
    11c8:	52011698 	andpl	r1, r1, #152, 12	; 0x9800000
    11cc:	9cfc0305 	ldclls	3, cr0, [ip], #20
    11d0:	01160000 	tsteq	r6, r0
    11d4:	1c030551 	cfstr32ne	mvfx0, [r3], {81}	; 0x51
    11d8:	1600009d 			; <UNDEFINED> instruction: 0x1600009d
    11dc:	03055001 	movweq	r5, #20481	; 0x5001
    11e0:	00009d88 	andeq	r9, r0, r8, lsl #27
    11e4:	87941400 	ldrhi	r1, [r4, r0, lsl #8]
    11e8:	067d0000 	ldrbteq	r0, [sp], -r0
    11ec:	b8150000 	ldmdalt	r5, {}	; <UNPREDICTABLE>
    11f0:	9c000087 	stcls	0, cr0, [r0], {135}	; 0x87
    11f4:	2a000001 	bcs	1200 <_start-0x6e00>
    11f8:	16000005 	strne	r0, [r0], -r5
    11fc:	08025201 	stmdaeq	r2, {r0, r9, ip, lr}
    1200:	51011680 	smlabbpl	r1, r0, r6, r1
    1204:	7ed09103 	atnvcs	f1, f3
    1208:	01500116 	cmpeq	r0, r6, lsl r1
    120c:	7d02163a 	stcvc	6, cr1, [r2, #-232]	; 0xffffff18
    1210:	16310104 	ldrtne	r0, [r1], -r4, lsl #2
    1214:	02007d02 	andeq	r7, r0, #2, 26	; 0x80
    1218:	15000077 	strne	r0, [r0, #-119]	; 0x77
    121c:	000087dc 	ldrdeq	r8, [r0], -ip
    1220:	0000019c 	muleq	r0, ip, r1
    1224:	00000558 	andeq	r0, r0, r8, asr r5
    1228:	02520116 	subseq	r0, r2, #-2147483643	; 0x80000005
    122c:	01168008 	tsteq	r6, r8
    1230:	d0910351 	addsle	r0, r1, r1, asr r3
    1234:	5001167e 	andpl	r1, r1, lr, ror r6
    1238:	02163a01 	andseq	r3, r6, #4096	; 0x1000
    123c:	7b02047d 	blvc	82438 <__bss_end__+0x6ff18>
    1240:	7d021600 	stcvc	6, cr1, [r2, #-0]
    1244:	00770200 	rsbseq	r0, r7, r0, lsl #4
    1248:	88001500 	stmdahi	r0, {r8, sl, ip}
    124c:	019c0000 	orrseq	r0, ip, r0
    1250:	05860000 	streq	r0, [r6]
    1254:	01160000 	tsteq	r6, r0
    1258:	80080252 	andhi	r0, r8, r2, asr r2
    125c:	03510116 	cmpeq	r1, #-2147483643	; 0x80000005
    1260:	167ed091 			; <UNDEFINED> instruction: 0x167ed091
    1264:	40015001 	andmi	r5, r1, r1
    1268:	047d0216 	ldrbteq	r0, [sp], #-534	; 0x216
    126c:	16007b02 	strne	r7, [r0], -r2, lsl #22
    1270:	02007d02 	andeq	r7, r0, #2, 26	; 0x80
    1274:	15000077 	strne	r0, [r0, #-119]	; 0x77
    1278:	00008824 	andeq	r8, r0, r4, lsr #16
    127c:	0000019c 	muleq	r0, ip, r1
    1280:	000005b4 			; <UNDEFINED> instruction: 0x000005b4
    1284:	02520116 	subseq	r0, r2, #-2147483643	; 0x80000005
    1288:	01168008 	tsteq	r6, r8
    128c:	d0910351 	addsle	r0, r1, r1, asr r3
    1290:	5001167e 	andpl	r1, r1, lr, ror r6
    1294:	02163201 	andseq	r3, r6, #268435456	; 0x10000000
    1298:	7b02047d 	blvc	82494 <__bss_end__+0x6ff74>
    129c:	7d021600 	stcvc	6, cr1, [r2, #-0]
    12a0:	00770200 	rsbseq	r0, r7, r0, lsl #4
    12a4:	88541500 	ldmdahi	r4, {r8, sl, ip}^
    12a8:	019c0000 	orrseq	r0, ip, r0
    12ac:	05e20000 	strbeq	r0, [r2, #0]!
    12b0:	01160000 	tsteq	r6, r0
    12b4:	80080252 	andhi	r0, r8, r2, asr r2
    12b8:	03510116 	cmpeq	r1, #-2147483643	; 0x80000005
    12bc:	167ed091 			; <UNDEFINED> instruction: 0x167ed091
    12c0:	38015001 	stmdacc	r1, {r0, ip, lr}
    12c4:	047d0216 	ldrbteq	r0, [sp], #-534	; 0x216
    12c8:	16007b02 	strne	r7, [r0], -r2, lsl #22
    12cc:	02007d02 	andeq	r7, r0, #2, 26	; 0x80
    12d0:	14000077 	strne	r0, [r0], #-119	; 0x77
    12d4:	0000885c 	andeq	r8, r0, ip, asr r8
    12d8:	00000660 	andeq	r0, r0, r0, ror #12
    12dc:	00887815 	addeq	r7, r8, r5, lsl r8
    12e0:	00066700 	andeq	r6, r6, r0, lsl #14
    12e4:	00061a00 	andeq	r1, r6, r0, lsl #20
    12e8:	53011600 	movwpl	r1, #5632	; 0x1600
    12ec:	16b90802 	ldrtne	r0, [r9], r2, lsl #16
    12f0:	03055201 	movweq	r5, #20993	; 0x5201
    12f4:	00009cfc 	strdeq	r9, [r0], -ip
    12f8:	05510116 	ldrbeq	r0, [r1, #-278]	; 0x116
    12fc:	009d1c03 	addseq	r1, sp, r3, lsl #24
    1300:	50011600 	andpl	r1, r1, r0, lsl #12
    1304:	9db00305 	ldcls	3, cr0, [r0, #20]!
    1308:	14000000 	strne	r0, [r0], #-0
    130c:	0000887c 	andeq	r8, r0, ip, ror r8
    1310:	0000067d 	andeq	r0, r0, sp, ror r6
    1314:	7a180000 	bvc	60131c <__bss_end__+0x5eedfc>
    1318:	35000000 	strcc	r0, [r0, #-0]
    131c:	19000006 	stmdbne	r0, {r1, r2}
    1320:	0000006b 	andeq	r0, r0, fp, rrx
    1324:	25060009 	strcs	r0, [r6, #-9]
    1328:	18000006 	stmdane	r0, {r1, r2}
    132c:	0000007a 	andeq	r0, r0, sl, ror r0
    1330:	0000064a 	andeq	r0, r0, sl, asr #12
    1334:	00006b19 	andeq	r6, r0, r9, lsl fp
    1338:	1f007f00 	svcne	0x00007f00
    133c:	00000456 	andeq	r0, r0, r6, asr r4
    1340:	038b1d03 	orreq	r1, fp, #3, 26	; 0xc0
    1344:	931f0000 	tstls	pc, #0
    1348:	03000004 	movweq	r0, #4
    134c:	0003a022 	andeq	sl, r3, r2, lsr #32
    1350:	00e62000 	rsceq	r2, r6, r0
    1354:	1e030000 	cdpne	0, 0, cr0, cr3, cr0, {0}
    1358:	00042a21 	andeq	r2, r4, r1, lsr #20
    135c:	25290300 	strcs	r0, [r9, #-768]!	; 0x300
    1360:	7d000000 	stcvc	0, cr0, [r0, #-0]
    1364:	1c000006 	stcne	0, cr0, [r0], {6}
    1368:	00000081 	andeq	r0, r0, r1, lsl #1
    136c:	5d200022 	stcpl	0, cr0, [r0, #-136]!	; 0xffffff78
    1370:	03000001 	movweq	r0, #1
    1374:	00b80066 	adcseq	r0, r8, r6, rrx
    1378:	00040000 	andeq	r0, r4, r0
    137c:	00000777 	andeq	r0, r0, r7, ror r7
    1380:	027c0104 	rsbseq	r0, ip, #4, 2
    1384:	05010000 	streq	r0, [r1, #-0]
    1388:	c6000005 	strgt	r0, [r0], -r5
    138c:	e4000003 	str	r0, [r0], #-3
    1390:	20000088 	andcs	r0, r0, r8, lsl #1
    1394:	e7000000 	str	r0, [r0, -r0]
    1398:	02000007 	andeq	r0, r0, #7
    139c:	6e690504 	cdpvs	5, 6, cr0, cr9, cr4, {0}
    13a0:	04030074 	streq	r0, [r3], #-116	; 0x74
    13a4:	00006207 	andeq	r6, r0, r7, lsl #4
    13a8:	06010300 	streq	r0, [r1], -r0, lsl #6
    13ac:	00000250 	andeq	r0, r0, r0, asr r2
    13b0:	5c050203 	sfmpl	f0, 4, [r5], {3}
    13b4:	03000002 	movweq	r0, #2
    13b8:	00830504 	addeq	r0, r3, r4, lsl #10
    13bc:	08030000 	stmdaeq	r3, {}	; <UNPREDICTABLE>
    13c0:	00007e05 	andeq	r7, r0, r5, lsl #28
    13c4:	08010300 	stmdaeq	r1, {r8, r9}
    13c8:	0000024e 	andeq	r0, r0, lr, asr #4
    13cc:	1c070203 	sfmne	f0, 4, [r7], {3}
    13d0:	03000001 	movweq	r0, #1
    13d4:	005d0704 	subseq	r0, sp, r4, lsl #14
    13d8:	08030000 	stmdaeq	r3, {}	; <UNPREDICTABLE>
    13dc:	00005807 	andeq	r5, r0, r7, lsl #16
    13e0:	07040300 	streq	r0, [r4, -r0, lsl #6]
    13e4:	00000184 	andeq	r0, r0, r4, lsl #3
    13e8:	57080103 	strpl	r0, [r8, -r3, lsl #2]
    13ec:	04000002 	streq	r0, [r0], #-2
    13f0:	00000345 	andeq	r0, r0, r5, asr #6
    13f4:	88e40301 	stmiahi	r4!, {r0, r8, r9}^
    13f8:	00100000 	andseq	r0, r0, r0
    13fc:	9c010000 	stcls	0, cr0, [r1], {-0}
    1400:	0000009c 	muleq	r0, ip, r0
    1404:	01007205 	tsteq	r0, r5, lsl #4
    1408:	00002c04 	andeq	r2, r0, r4, lsl #24
    140c:	00082400 	andeq	r2, r8, r0, lsl #8
    1410:	f7060000 			; <UNDEFINED> instruction: 0xf7060000
    1414:	01000004 	tsteq	r0, r4
    1418:	0088f40c 	addeq	pc, r8, ip, lsl #8
    141c:	00001000 	andeq	r1, r0, r0
    1420:	059c0100 	ldreq	r0, [ip, #256]	; 0x100
    1424:	0d010072 	stceq	0, cr0, [r1, #-456]	; 0xfffffe38
    1428:	0000002c 	andeq	r0, r0, ip, lsr #32
    142c:	00000848 	andeq	r0, r0, r8, asr #16
    1430:	00ff0000 	rscseq	r0, pc, r0
    1434:	00040000 	andeq	r0, r4, r0
    1438:	000007e2 	andeq	r0, r0, r2, ror #15
    143c:	027c0104 	rsbseq	r0, ip, #4, 2
    1440:	23010000 	movwcs	r0, #4096	; 0x1000
    1444:	c6000005 	strgt	r0, [r0], -r5
    1448:	04000003 	streq	r0, [r0], #-3
    144c:	28000089 	stmdacs	r0, {r0, r3, r7}
    1450:	2e000000 	cdpcs	0, 0, cr0, cr0, cr0, {0}
    1454:	02000008 	andeq	r0, r0, #8
    1458:	6e690504 	cdpvs	5, 6, cr0, cr9, cr4, {0}
    145c:	04030074 	streq	r0, [r3], #-116	; 0x74
    1460:	00006207 	andeq	r6, r0, r7, lsl #4
    1464:	06010300 	streq	r0, [r1], -r0, lsl #6
    1468:	00000250 	andeq	r0, r0, r0, asr r2
    146c:	5c050203 	sfmpl	f0, 4, [r5], {3}
    1470:	03000002 	movweq	r0, #2
    1474:	00830504 	addeq	r0, r3, r4, lsl #10
    1478:	08030000 	stmdaeq	r3, {}	; <UNPREDICTABLE>
    147c:	00007e05 	andeq	r7, r0, r5, lsl #28
    1480:	08010300 	stmdaeq	r1, {r8, r9}
    1484:	0000024e 	andeq	r0, r0, lr, asr #4
    1488:	1c070203 	sfmne	f0, 4, [r7], {3}
    148c:	03000001 	movweq	r0, #1
    1490:	005d0704 	subseq	r0, sp, r4, lsl #14
    1494:	08030000 	stmdaeq	r3, {}	; <UNPREDICTABLE>
    1498:	00005807 	andeq	r5, r0, r7, lsl #16
    149c:	07040300 	streq	r0, [r4, -r0, lsl #6]
    14a0:	00000184 	andeq	r0, r0, r4, lsl #3
    14a4:	57080103 	strpl	r0, [r8, -r3, lsl #2]
    14a8:	04000002 	streq	r0, [r0], #-2
    14ac:	00007f04 	andeq	r7, r0, r4, lsl #30
    14b0:	00720500 	rsbseq	r0, r2, r0, lsl #10
    14b4:	5d060000 	stcpl	0, cr0, [r6, #-0]
    14b8:	01000001 	tsteq	r0, r1
    14bc:	00890404 	addeq	r0, r9, r4, lsl #8
    14c0:	00002800 	andeq	r2, r0, r0, lsl #16
    14c4:	ca9c0100 	bgt	fe7018cc <__bss_end__+0xfe6ef3ac>
    14c8:	07000000 	streq	r0, [r0, -r0]
    14cc:	00008918 	andeq	r8, r0, r8, lsl r9
    14d0:	000000ac 	andeq	r0, r0, ip, lsr #1
    14d4:	05500108 	ldrbeq	r0, [r0, #-264]	; 0x108
    14d8:	009de803 	addseq	lr, sp, r3, lsl #16
    14dc:	20090000 	andcs	r0, r9, r0
    14e0:	ea000089 	b	170c <_start-0x68f4>
    14e4:	c0000000 	andgt	r0, r0, r0
    14e8:	08000000 	stmdaeq	r0, {}	; <UNPREDICTABLE>
    14ec:	08025001 	stmdaeq	r2, {r0, ip, lr}
    14f0:	240a0064 	strcs	r0, [sl], #-100	; 0x64
    14f4:	fb000089 	blx	1722 <_start-0x68de>
    14f8:	00000000 	andeq	r0, r0, r0
    14fc:	0000250b 	andeq	r2, r0, fp, lsl #10
    1500:	0000d900 	andeq	sp, r0, r0, lsl #18
    1504:	00790c00 	rsbseq	r0, r9, r0, lsl #24
    1508:	0d000000 	stceq	0, cr0, [r0, #-0]
    150c:	00000493 	muleq	r0, r3, r4
    1510:	00e42202 	rsceq	r2, r4, r2, lsl #4
    1514:	04040000 	streq	r0, [r4], #-0
    1518:	000000ca 	andeq	r0, r0, sl, asr #1
    151c:	00053d0e 	andeq	r3, r5, lr, lsl #26
    1520:	fb500200 	blx	1401d2a <__bss_end__+0x13ef80a>
    1524:	0c000000 	stceq	0, cr0, [r0], {-0}
    1528:	0000002c 	andeq	r0, r0, ip, lsr #32
    152c:	05180f00 	ldreq	r0, [r8, #-3840]	; 0xf00
    1530:	63020000 	movwvs	r0, #8192	; 0x2000
    1534:	0002dd00 	andeq	sp, r2, r0, lsl #26
    1538:	ac000400 	cfstrsge	mvf0, [r0], {-0}
    153c:	04000008 	streq	r0, [r0], #-8
    1540:	00027c01 	andeq	r7, r2, r1, lsl #24
    1544:	06280100 	strteq	r0, [r8], -r0, lsl #2
    1548:	03c60000 	biceq	r0, r6, #0
    154c:	892c0000 	stmdbhi	ip!, {}	; <UNPREDICTABLE>
    1550:	00b00000 	adcseq	r0, r0, r0
    1554:	08c50000 	stmiaeq	r5, {}^	; <UNPREDICTABLE>
    1558:	04020000 	streq	r0, [r2], #-0
    155c:	746e6905 	strbtvc	r6, [lr], #-2309	; 0x905
    1560:	07040300 	streq	r0, [r4, -r0, lsl #6]
    1564:	00000062 	andeq	r0, r0, r2, rrx
    1568:	50060103 	andpl	r0, r6, r3, lsl #2
    156c:	03000002 	movweq	r0, #2
    1570:	025c0502 	subseq	r0, ip, #8388608	; 0x800000
    1574:	04030000 	streq	r0, [r3], #-0
    1578:	00008305 	andeq	r8, r0, r5, lsl #6
    157c:	05080300 	streq	r0, [r8, #-768]	; 0x300
    1580:	0000007e 	andeq	r0, r0, lr, ror r0
    1584:	0005f104 	andeq	pc, r5, r4, lsl #2
    1588:	5a2e0200 	bpl	b81d90 <__bss_end__+0xb6f870>
    158c:	03000000 	movweq	r0, #0
    1590:	024e0801 	subeq	r0, lr, #65536	; 0x10000
    1594:	02030000 	andeq	r0, r3, #0
    1598:	00011c07 	andeq	r1, r1, r7, lsl #24
    159c:	06480400 	strbeq	r0, [r8], -r0, lsl #8
    15a0:	34020000 	strcc	r0, [r2], #-0
    15a4:	00000073 	andeq	r0, r0, r3, ror r0
    15a8:	5d070403 	cfstrspl	mvf0, [r7, #-12]
    15ac:	03000000 	movweq	r0, #0
    15b0:	00580708 	subseq	r0, r8, r8, lsl #14
    15b4:	04030000 	streq	r0, [r3], #-0
    15b8:	00018407 	andeq	r8, r1, r7, lsl #8
    15bc:	08010300 	stmdaeq	r1, {r8, r9}
    15c0:	00000257 	andeq	r0, r0, r7, asr r2
    15c4:	00950405 	addseq	r0, r5, r5, lsl #8
    15c8:	88060000 	stmdahi	r6, {}	; <UNPREDICTABLE>
    15cc:	07000000 	streq	r0, [r0, -r0]
    15d0:	d10e030c 	tstle	lr, ip, lsl #6
    15d4:	08000000 	stmdaeq	r0, {}	; <UNPREDICTABLE>
    15d8:	03007874 	movweq	r7, #2164	; 0x874
    15dc:	00004f0f 	andeq	r4, r0, pc, lsl #30
    15e0:	72080000 	andvc	r0, r8, #0
    15e4:	0f030078 	svceq	0x00030078
    15e8:	0000004f 	andeq	r0, r0, pc, asr #32
    15ec:	05bf0901 	ldreq	r0, [pc, #2305]!	; 1ef5 <_start-0x610b>
    15f0:	10030000 	andne	r0, r3, r0
    15f4:	00000068 	andeq	r0, r0, r8, rrx
    15f8:	05700904 	ldrbeq	r0, [r0, #-2308]!	; 0x904
    15fc:	11030000 	mrsne	r0, (UNDEF: 3)
    1600:	00000068 	andeq	r0, r0, r8, rrx
    1604:	a8040008 	stmdage	r4, {r3}
    1608:	03000005 	movweq	r0, #5
    160c:	00009a12 	andeq	r9, r0, r2, lsl sl
    1610:	04010a00 	streq	r0, [r1], #-2560	; 0xa00
    1614:	0000f710 	andeq	pc, r0, r0, lsl r7	; <UNPREDICTABLE>
    1618:	05c40b00 	strbeq	r0, [r4, #2816]	; 0xb00
    161c:	0b010000 	bleq	41624 <__bss_end__+0x2f104>
    1620:	000005b2 			; <UNDEFINED> instruction: 0x000005b2
    1624:	059a0b02 	ldreq	r0, [sl, #2818]	; 0xb02
    1628:	00030000 	andeq	r0, r3, r0
    162c:	0005d904 	andeq	sp, r5, r4, lsl #18
    1630:	dc100400 	cfldrsle	mvf0, [r0], {-0}
    1634:	07000000 	streq	r0, [r0, -r0]
    1638:	2f140414 	svccs	0x00140414
    163c:	09000001 	stmdbeq	r0, {r0}
    1640:	00000651 	andeq	r0, r0, r1, asr r6
    1644:	002c1504 	eoreq	r1, ip, r4, lsl #10
    1648:	09000000 	stmdbeq	r0, {}	; <UNPREDICTABLE>
    164c:	0000063c 	andeq	r0, r0, ip, lsr r6
    1650:	00f71804 	rscseq	r1, r7, r4, lsl #16
    1654:	09040000 	stmdbeq	r4, {}	; <UNPREDICTABLE>
    1658:	00000607 	andeq	r0, r0, r7, lsl #12
    165c:	00d11b04 	sbcseq	r1, r1, r4, lsl #22
    1660:	00080000 	andeq	r0, r8, r0
    1664:	0005f904 	andeq	pc, r5, r4, lsl #18
    1668:	02200400 	eoreq	r0, r0, #0, 8
    166c:	0c000001 	stceq	0, cr0, [r0], {1}
    1670:	00000546 	andeq	r0, r0, r6, asr #10
    1674:	00250601 	eoreq	r0, r5, r1, lsl #12
    1678:	892c0000 	stmdbhi	ip!, {}	; <UNPREDICTABLE>
    167c:	00200000 	eoreq	r0, r0, r0
    1680:	9c010000 	stcls	0, cr0, [r1], {-0}
    1684:	0000017a 	andeq	r0, r0, sl, ror r1
    1688:	0100630d 	tsteq	r0, sp, lsl #6
    168c:	00002506 	andeq	r2, r0, r6, lsl #10
    1690:	00086c00 	andeq	r6, r8, r0, lsl #24
    1694:	89400e00 	stmdbhi	r0, {r9, sl, fp}^
    1698:	027a0000 	rsbseq	r0, sl, #0
    169c:	010f0000 	mrseq	r0, CPSR
    16a0:	00740251 	rsbseq	r0, r4, r1, asr r2
    16a4:	0550010f 	ldrbeq	r0, [r0, #-271]	; 0x10f
    16a8:	01251003 	teqeq	r5, r3
    16ac:	10000000 	andne	r0, r0, r0
    16b0:	000005d1 	ldrdeq	r0, [r0], -r1
    16b4:	894c0b01 	stmdbhi	ip, {r0, r8, r9, fp}^
    16b8:	00900000 	addseq	r0, r0, r0
    16bc:	9c010000 	stcls	0, cr0, [r1], {-0}
    16c0:	00000227 	andeq	r0, r0, r7, lsr #4
    16c4:	00055a11 	andeq	r5, r5, r1, lsl sl
    16c8:	250c0100 	strcs	r0, [ip, #-256]	; 0x100
    16cc:	11000000 	mrsne	r0, (UNDEF: 0)
    16d0:	0000061c 	andeq	r0, r0, ip, lsl r6
    16d4:	00250c01 	eoreq	r0, r5, r1, lsl #24
    16d8:	2a120000 	bcs	4816e0 <__bss_end__+0x46f1c0>
    16dc:	01000000 	mrseq	r0, (UNDEF: 0)
    16e0:	7362130d 	cmnvc	r2, #872415232	; 0x34000000
    16e4:	0f010073 	svceq	0x00010073
    16e8:	00000227 	andeq	r0, r0, r7, lsr #4
    16ec:	0000088a 	andeq	r0, r0, sl, lsl #17
    16f0:	00056814 	andeq	r6, r5, r4, lsl r8
    16f4:	27100100 	ldrcs	r0, [r0, -r0, lsl #2]
    16f8:	13000002 	movwne	r0, #2
    16fc:	01006263 	tsteq	r0, r3, ror #4
    1700:	00022d17 	andeq	r2, r2, r7, lsl sp
    1704:	0008aa00 	andeq	sl, r8, r0, lsl #20
    1708:	89741500 	ldmdbhi	r4!, {r8, sl, ip}^
    170c:	02960000 	addseq	r0, r6, #0
    1710:	b0160000 	andslt	r0, r6, r0
    1714:	a1000089 	smlabbge	r0, r9, r0, r0
    1718:	fd000002 	stc2	0, cr0, [r0, #-8]
    171c:	0f000001 	svceq	0x00000001
    1720:	03055101 	movweq	r5, #20737	; 0x5101
    1724:	00009df4 	strdeq	r9, [r0], -r4
    1728:	0550010f 	ldrbeq	r0, [r0, #-271]	; 0x10f
    172c:	01251003 	teqeq	r5, r3
    1730:	b8160000 	ldmdalt	r6, {}	; <UNPREDICTABLE>
    1734:	bc000089 	stclt	0, cr0, [r0], {137}	; 0x89
    1738:	14000002 	strne	r0, [r0], #-2
    173c:	0f000002 	svceq	0x00000002
    1740:	03055001 	movweq	r5, #20481	; 0x5001
    1744:	00009e18 	andeq	r9, r0, r8, lsl lr
    1748:	89bc1500 	ldmibhi	ip!, {r8, sl, ip}
    174c:	02d20000 	sbcseq	r0, r2, #0
    1750:	c0150000 	andsgt	r0, r5, r0
    1754:	d9000089 	stmdble	r0, {r0, r3, r7}
    1758:	00000002 	andeq	r0, r0, r2
    175c:	00250405 	eoreq	r0, r5, r5, lsl #8
    1760:	04050000 	streq	r0, [r5], #-0
    1764:	0000012f 	andeq	r0, r0, pc, lsr #2
    1768:	00057e17 	andeq	r7, r5, r7, lsl lr
    176c:	d1050100 	mrsle	r0, (UNDEF: 21)
    1770:	05000000 	streq	r0, [r0, #-0]
    1774:	01251003 	teqeq	r5, r3
    1778:	00251800 	eoreq	r1, r5, r0, lsl #16
    177c:	02530000 	subseq	r0, r3, #0
    1780:	25190000 	ldrcs	r0, [r9, #-0]
    1784:	00000000 	andeq	r0, r0, r0
    1788:	00045611 	andeq	r5, r4, r1, lsl r6
    178c:	5e1d0500 	cfmul32pl	mvfx0, mvfx13, mvfx0
    1790:	05000002 	streq	r0, [r0, #-2]
    1794:	00024404 	andeq	r4, r2, r4, lsl #8
    1798:	055a1100 	ldrbeq	r1, [sl, #-256]	; 0x100
    179c:	0c010000 	stceq	0, cr0, [r1], {-0}
    17a0:	00000025 	andeq	r0, r0, r5, lsr #32
    17a4:	00061c11 	andeq	r1, r6, r1, lsl ip
    17a8:	250c0100 	strcs	r0, [ip, #-256]	; 0x100
    17ac:	1a000000 	bne	17b4 <_start-0x684c>
    17b0:	000005e4 	andeq	r0, r0, r4, ror #11
    17b4:	02904403 	addseq	r4, r0, #50331648	; 0x3000000
    17b8:	90190000 	andsls	r0, r9, r0
    17bc:	19000002 	stmdbne	r0, {r1}
    17c0:	0000005a 	andeq	r0, r0, sl, asr r0
    17c4:	d1040500 	tstle	r4, r0, lsl #10
    17c8:	1b000000 	blne	17d0 <_start-0x6830>
    17cc:	0000060f 	andeq	r0, r0, pc, lsl #12
    17d0:	022d2a04 	eoreq	r2, sp, #4, 20	; 0x4000
    17d4:	8b1c0000 	blhi	7017dc <__bss_end__+0x6ef2bc>
    17d8:	03000005 	movweq	r0, #5
    17dc:	00002515 	andeq	r2, r0, r5, lsl r5
    17e0:	0002bc00 	andeq	fp, r2, r0, lsl #24
    17e4:	02901900 	addseq	r1, r0, #0, 18
    17e8:	8f190000 	svchi	0x00190000
    17ec:	1d000000 	stcne	0, cr0, [r0, #-0]
    17f0:	042a1c00 	strteq	r1, [sl], #-3072	; 0xc00
    17f4:	29050000 	stmdbcs	r5, {}	; <UNPREDICTABLE>
    17f8:	00000025 	andeq	r0, r0, r5, lsr #32
    17fc:	000002d2 	ldrdeq	r0, [r0], -r2
    1800:	00008f19 	andeq	r8, r0, r9, lsl pc
    1804:	12001d00 	andne	r1, r0, #0, 26
    1808:	0000002a 	andeq	r0, r0, sl, lsr #32
    180c:	1812ce05 	ldmdane	r2, {r0, r2, r9, sl, fp, lr, pc}
    1810:	05000005 	streq	r0, [r0, #-5]
    1814:	01ad0063 			; <UNDEFINED> instruction: 0x01ad0063
    1818:	00040000 	andeq	r0, r4, r0
    181c:	00000a43 	andeq	r0, r0, r3, asr #20
    1820:	027c0104 	rsbseq	r0, ip, #4, 2
    1824:	71010000 	mrsvc	r0, (UNDEF: 1)
    1828:	c6000006 	strgt	r0, [r0], -r6
    182c:	30000003 	andcc	r0, r0, r3
    1830:	00000000 	andeq	r0, r0, r0
    1834:	ea000000 	b	183c <_start-0x67c4>
    1838:	02000009 	andeq	r0, r0, #9
    183c:	6e690504 	cdpvs	5, 6, cr0, cr9, cr4, {0}
    1840:	04030074 	streq	r0, [r3], #-116	; 0x74
    1844:	00006207 	andeq	r6, r0, r7, lsl #4
    1848:	06010300 	streq	r0, [r1], -r0, lsl #6
    184c:	00000250 	andeq	r0, r0, r0, asr r2
    1850:	5c050203 	sfmpl	f0, 4, [r5], {3}
    1854:	03000002 	movweq	r0, #2
    1858:	00830504 	addeq	r0, r3, r4, lsl #10
    185c:	08030000 	stmdaeq	r3, {}	; <UNPREDICTABLE>
    1860:	00007e05 	andeq	r7, r0, r5, lsl #28
    1864:	08010300 	stmdaeq	r1, {r8, r9}
    1868:	0000024e 	andeq	r0, r0, lr, asr #4
    186c:	1c070203 	sfmne	f0, 4, [r7], {3}
    1870:	03000001 	movweq	r0, #1
    1874:	005d0704 	subseq	r0, sp, r4, lsl #14
    1878:	08030000 	stmdaeq	r3, {}	; <UNPREDICTABLE>
    187c:	00005807 	andeq	r5, r0, r7, lsl #16
    1880:	07040300 	streq	r0, [r4, -r0, lsl #6]
    1884:	00000184 	andeq	r0, r0, r4, lsl #3
    1888:	57080103 	strpl	r0, [r8, -r3, lsl #2]
    188c:	04000002 	streq	r0, [r0], #-2
    1890:	00000657 	andeq	r0, r0, r7, asr r6
    1894:	00250e01 	eoreq	r0, r5, r1, lsl #28
    1898:	89dc0000 	ldmibhi	ip, {}^	; <UNPREDICTABLE>
    189c:	00180000 	andseq	r0, r8, r0
    18a0:	9c010000 	stcls	0, cr0, [r1], {-0}
    18a4:	000000a2 	andeq	r0, r0, r2, lsr #1
    18a8:	0006c305 	andeq	ip, r6, r5, lsl #6
    18ac:	2c0f0100 	stfcss	f0, [pc], {-0}
    18b0:	ca000000 	bgt	18b8 <_start-0x6748>
    18b4:	00000008 	andeq	r0, r0, r8
    18b8:	0006a606 	andeq	sl, r6, r6, lsl #12
    18bc:	f4170100 			; <UNDEFINED> instruction: 0xf4170100
    18c0:	14000089 	strne	r0, [r0], #-137	; 0x89
    18c4:	01000000 	mrseq	r0, (UNDEF: 0)
    18c8:	0000c79c 	muleq	r0, ip, r7
    18cc:	06c30500 	strbeq	r0, [r3], r0, lsl #10
    18d0:	18010000 	stmdane	r1, {}	; <UNPREDICTABLE>
    18d4:	0000002c 	andeq	r0, r0, ip, lsr #32
    18d8:	000008e9 	andeq	r0, r0, r9, ror #17
    18dc:	05180600 	ldreq	r0, [r8, #-1536]	; 0x600
    18e0:	1f010000 	svcne	0x00010000
    18e4:	00008a08 	andeq	r8, r0, r8, lsl #20
    18e8:	00000048 	andeq	r0, r0, r8, asr #32
    18ec:	01779c01 	cmneq	r7, r1, lsl #24
    18f0:	bb070000 	bllt	1c18f8 <__bss_end__+0x1af3d8>
    18f4:	01000006 	tsteq	r0, r6
    18f8:	0001772a 	andeq	r7, r1, sl, lsr #14
    18fc:	10001c00 	andne	r1, r0, r0, lsl #24
    1900:	069e0720 	ldreq	r0, [lr], r0, lsr #14
    1904:	2b010000 	blcs	4190c <__bss_end__+0x2f3ec>
    1908:	00000177 	andeq	r0, r0, r7, ror r1
    190c:	20100024 	andscs	r0, r0, r4, lsr #32
    1910:	00066507 	andeq	r6, r6, r7, lsl #10
    1914:	772c0100 	strvc	r0, [ip, -r0, lsl #2]!
    1918:	00000001 	andeq	r0, r0, r1
    191c:	085a0000 	ldmdaeq	sl, {}^	; <UNPREDICTABLE>
    1920:	00000685 	andeq	r0, r0, r5, lsl #13
    1924:	01772d01 	cmneq	r7, r1, lsl #26
    1928:	09200000 	stmdbeq	r0!, {}	; <UNPREDICTABLE>
    192c:	00008a10 	andeq	r8, r0, r0, lsl sl
    1930:	00000079 	andeq	r0, r0, r9, ror r0
    1934:	008a1c09 	addeq	r1, sl, r9, lsl #24
    1938:	0000a200 	andeq	sl, r0, r0, lsl #4
    193c:	8a240a00 	bhi	904144 <__bss_end__+0x8f1c24>
    1940:	018d0000 	orreq	r0, sp, r0
    1944:	013a0000 	teqeq	sl, r0
    1948:	010b0000 	mrseq	r0, (UNDEF: 11)
    194c:	004e0150 	subeq	r0, lr, r0, asr r1
    1950:	008a300a 	addeq	r3, sl, sl
    1954:	00019e00 	andeq	r9, r1, r0, lsl #28
    1958:	00015a00 	andeq	r5, r1, r0, lsl #20
    195c:	51010b00 	tstpl	r1, r0, lsl #22
    1960:	00010c05 	andeq	r0, r1, r5, lsl #24
    1964:	010b5a00 	tsteq	fp, r0, lsl #20
    1968:	240c0550 	strcs	r0, [ip], #-1360	; 0x550
    196c:	00201000 	eoreq	r1, r0, r0
    1970:	008a3c0c 	addeq	r3, sl, ip, lsl #24
    1974:	00019e00 	andeq	r9, r1, r0, lsl #28
    1978:	51010b00 	tstpl	r1, r0, lsl #22
    197c:	00200c05 	eoreq	r0, r0, r5, lsl #24
    1980:	010b5a00 	tsteq	fp, r0, lsl #20
    1984:	1c0c0550 	cfstr32ne	mvfx0, [ip], {80}	; 0x50
    1988:	00201000 	eoreq	r1, r0, r0
    198c:	00250d00 	eoreq	r0, r5, r0, lsl #26
    1990:	5a080000 	bpl	201998 <__bss_end__+0x1ef478>
    1994:	01000006 	tsteq	r0, r6
    1998:	0001880d 	andeq	r8, r1, sp, lsl #16
    199c:	2c0d1000 	stccs	0, cr1, [sp], {-0}
    19a0:	0e000000 	cdpeq	0, 0, cr0, cr0, cr0, {0}
    19a4:	0000053d 	andeq	r0, r0, sp, lsr r5
    19a8:	019e5002 	orrseq	r5, lr, r2
    19ac:	2c0f0000 	stccs	0, cr0, [pc], {-0}
    19b0:	00000000 	andeq	r0, r0, r0
    19b4:	0006b510 	andeq	fp, r6, r0, lsl r5
    19b8:	0f990200 	svceq	0x00990200
    19bc:	0000002c 	andeq	r0, r0, ip, lsr #32
    19c0:	00002c0f 	andeq	r2, r0, pc, lsl #24
    19c4:	d8000000 	stmdale	r0, {}	; <UNPREDICTABLE>
    19c8:	04000001 	streq	r0, [r0], #-1
    19cc:	000b3100 	andeq	r3, fp, r0, lsl #2
    19d0:	7c010400 	cfstrsvc	mvf0, [r1], {-0}
    19d4:	01000002 	tsteq	r0, r2
    19d8:	000006e5 	andeq	r0, r0, r5, ror #13
    19dc:	000003c6 	andeq	r0, r0, r6, asr #7
    19e0:	00008a50 	andeq	r8, r0, r0, asr sl
    19e4:	00000088 	andeq	r0, r0, r8, lsl #1
    19e8:	00000a87 	andeq	r0, r0, r7, lsl #21
    19ec:	69050402 	stmdbvs	r5, {r1, sl}
    19f0:	0300746e 	movweq	r7, #1134	; 0x46e
    19f4:	00620704 	rsbeq	r0, r2, r4, lsl #14
    19f8:	01030000 	mrseq	r0, (UNDEF: 3)
    19fc:	00025006 	andeq	r5, r2, r6
    1a00:	05020300 	streq	r0, [r2, #-768]	; 0x300
    1a04:	0000025c 	andeq	r0, r0, ip, asr r2
    1a08:	83050403 	movwhi	r0, #21507	; 0x5403
    1a0c:	03000000 	movweq	r0, #0
    1a10:	007e0508 	rsbseq	r0, lr, r8, lsl #10
    1a14:	01030000 	mrseq	r0, (UNDEF: 3)
    1a18:	00024e08 	andeq	r4, r2, r8, lsl #28
    1a1c:	07020300 	streq	r0, [r2, -r0, lsl #6]
    1a20:	0000011c 	andeq	r0, r0, ip, lsl r1
    1a24:	5d070403 	cfstrspl	mvf0, [r7, #-12]
    1a28:	03000000 	movweq	r0, #0
    1a2c:	00580708 	subseq	r0, r8, r8, lsl #14
    1a30:	04030000 	streq	r0, [r3], #-0
    1a34:	00018407 	andeq	r8, r1, r7, lsl #8
    1a38:	08010300 	stmdaeq	r1, {r8, r9}
    1a3c:	00000257 	andeq	r0, r0, r7, asr r2
    1a40:	00070404 	andeq	r0, r7, r4, lsl #8
    1a44:	50050100 	andpl	r0, r5, r0, lsl #2
    1a48:	1c00008a 	stcne	0, cr0, [r0], {138}	; 0x8a
    1a4c:	01000000 	mrseq	r0, (UNDEF: 0)
    1a50:	00009e9c 	muleq	r0, ip, lr
    1a54:	06fe0500 	ldrbteq	r0, [lr], r0, lsl #10
    1a58:	05010000 	streq	r0, [r1, #-0]
    1a5c:	0000002c 	andeq	r0, r0, ip, lsr #32
    1a60:	00000913 	andeq	r0, r0, r3, lsl r9
    1a64:	06c80600 	strbeq	r0, [r8], r0, lsl #12
    1a68:	0b010000 	bleq	41a70 <__bss_end__+0x2f550>
    1a6c:	0000002c 	andeq	r0, r0, ip, lsr #32
    1a70:	00008a6c 	andeq	r8, r0, ip, ror #20
    1a74:	00000014 	andeq	r0, r0, r4, lsl r0
    1a78:	00cb9c01 	sbceq	r9, fp, r1, lsl #24
    1a7c:	78070000 	stmdavc	r7, {}	; <UNPREDICTABLE>
    1a80:	ca00008a 	bgt	1cb0 <_start-0x6350>
    1a84:	08000001 	stmdaeq	r0, {r0}
    1a88:	0c055001 	stceq	0, cr5, [r5], {1}
    1a8c:	20003004 	andcs	r3, r0, r4
    1a90:	1a060000 	bne	181a98 <__bss_end__+0x16f578>
    1a94:	01000007 	tsteq	r0, r7
    1a98:	00002c10 	andeq	r2, r0, r0, lsl ip
    1a9c:	008a8000 	addeq	r8, sl, r0
    1aa0:	00000c00 	andeq	r0, r0, r0, lsl #24
    1aa4:	f99c0100 			; <UNDEFINED> instruction: 0xf99c0100
    1aa8:	09000000 	stmdbeq	r0, {}	; <UNPREDICTABLE>
    1aac:	14010075 	strne	r0, [r1], #-117	; 0x75
    1ab0:	0000002c 	andeq	r0, r0, ip, lsr #32
    1ab4:	880a5001 	stmdahi	sl, {r0, ip, lr}
    1ab8:	9e00008a 	cdpls	0, 0, cr0, cr0, cr10, {4}
    1abc:	00000000 	andeq	r0, r0, r0
    1ac0:	00071104 	andeq	r1, r7, r4, lsl #2
    1ac4:	8c190100 	ldfhis	f0, [r9], {-0}
    1ac8:	2400008a 	strcs	r0, [r0], #-138	; 0x8a
    1acc:	01000000 	mrseq	r0, (UNDEF: 0)
    1ad0:	0001579c 	muleq	r1, ip, r7
    1ad4:	73750b00 	cmnvc	r5, #0, 22
    1ad8:	2c190100 	ldfcss	f0, [r9], {-0}
    1adc:	47000000 	strmi	r0, [r0, -r0]
    1ae0:	09000009 	stmdbeq	r0, {r0, r3}
    1ae4:	01006272 	tsteq	r0, r2, ror r2
    1ae8:	00002c1a 	andeq	r2, r0, sl, lsl ip
    1aec:	0c540100 	ldfeqe	f0, [r4], {-0}
    1af0:	00008a9c 	muleq	r0, ip, sl
    1af4:	00000010 	andeq	r0, r0, r0, lsl r0
    1af8:	0000014d 	andeq	r0, r0, sp, asr #2
    1afc:	0061720d 	rsbeq	r7, r1, sp, lsl #4
    1b00:	002c1c01 	eoreq	r1, ip, r1, lsl #24
    1b04:	09650000 	stmdbeq	r5!, {}^	; <UNPREDICTABLE>
    1b08:	a00a0000 	andge	r0, sl, r0
    1b0c:	cb00008a 	blgt	1d3c <_start-0x62c4>
    1b10:	00000000 	andeq	r0, r0, r0
    1b14:	008a980a 	addeq	r9, sl, sl, lsl #16
    1b18:	0000cb00 	andeq	ip, r0, r0, lsl #22
    1b1c:	3d040000 	stccc	0, cr0, [r4, #-0]
    1b20:	01000005 	tsteq	r0, r5
    1b24:	008ab022 	addeq	fp, sl, r2, lsr #32
    1b28:	00001400 	andeq	r1, r0, r0, lsl #8
    1b2c:	909c0100 	addsls	r0, ip, r0, lsl #2
    1b30:	0b000001 	bleq	1b3c <_start-0x64c4>
    1b34:	0100736d 	tsteq	r0, sp, ror #6
    1b38:	00002c22 	andeq	r2, r0, r2, lsr #24
    1b3c:	00097800 	andeq	r7, r9, r0, lsl #16
    1b40:	8ac00700 	bhi	ff003748 <__bss_end__+0xfeff1228>
    1b44:	00f90000 	rscseq	r0, r9, r0
    1b48:	01080000 	mrseq	r0, (UNDEF: 8)
    1b4c:	01f30750 	mvnseq	r0, r0, asr r7
    1b50:	03e80a50 	mvneq	r0, #80, 20	; 0x50000
    1b54:	0400001e 	streq	r0, [r0], #-30
    1b58:	000006db 	ldrdeq	r0, [r0], -fp
    1b5c:	8ac42501 	bhi	ff10af68 <__bss_end__+0xff0f8a48>
    1b60:	00140000 	andseq	r0, r4, r0
    1b64:	9c010000 	stcls	0, cr0, [r1], {-0}
    1b68:	000001ca 	andeq	r0, r0, sl, asr #3
    1b6c:	6365730b 	cmnvs	r5, #738197504	; 0x2c000000
    1b70:	2c250100 	stfcss	f0, [r5], #-0
    1b74:	99000000 	stmdbls	r0, {}	; <UNPREDICTABLE>
    1b78:	07000009 	streq	r0, [r0, -r9]
    1b7c:	00008ad4 	ldrdeq	r8, [r0], -r4
    1b80:	00000157 	andeq	r0, r0, r7, asr r1
    1b84:	07500108 	ldrbeq	r0, [r0, -r8, lsl #2]
    1b88:	0a5001f3 	beq	140235c <__bss_end__+0x13efe3c>
    1b8c:	001e03e8 	andseq	r0, lr, r8, ror #7
    1b90:	06f80e00 	ldrbteq	r0, [r8], r0, lsl #28
    1b94:	a5020000 	strge	r0, [r2, #-0]
    1b98:	0000002c 	andeq	r0, r0, ip, lsr #32
    1b9c:	00002c0f 	andeq	r2, r0, pc, lsl #24
    1ba0:	21000000 	mrscs	r0, (UNDEF: 0)
    1ba4:	04000008 	streq	r0, [r0], #-8
    1ba8:	000c1400 	andeq	r1, ip, r0, lsl #8
    1bac:	7c010400 	cfstrsvc	mvf0, [r1], {-0}
    1bb0:	01000002 	tsteq	r0, r2
    1bb4:	00000789 	andeq	r0, r0, r9, lsl #15
    1bb8:	000003c6 	andeq	r0, r0, r6, asr #7
    1bbc:	00008ad8 	ldrdeq	r8, [r0], -r8	; <UNPREDICTABLE>
    1bc0:	00000568 	andeq	r0, r0, r8, ror #10
    1bc4:	00000b2e 	andeq	r0, r0, lr, lsr #22
    1bc8:	58070802 	stmdapl	r7, {r1, fp}
    1bcc:	02000000 	andeq	r0, r0, #0
    1bd0:	00620704 	rsbeq	r0, r2, r4, lsl #14
    1bd4:	01020000 	mrseq	r0, (UNDEF: 2)
    1bd8:	00025006 	andeq	r5, r2, r6
    1bdc:	05020200 	streq	r0, [r2, #-512]	; 0x200
    1be0:	0000025c 	andeq	r0, r0, ip, asr r2
    1be4:	83050402 	movwhi	r0, #21506	; 0x5402
    1be8:	02000000 	andeq	r0, r0, #0
    1bec:	007e0508 	rsbseq	r0, lr, r8, lsl #10
    1bf0:	01020000 	mrseq	r0, (UNDEF: 2)
    1bf4:	00024e08 	andeq	r4, r2, r8, lsl #28
    1bf8:	07020200 	streq	r0, [r2, -r0, lsl #4]
    1bfc:	0000011c 	andeq	r0, r0, ip, lsl r1
    1c00:	5d070402 	cfstrspl	mvf0, [r7, #-8]
    1c04:	03000000 	movweq	r0, #0
    1c08:	6e690504 	cdpvs	5, 6, cr0, cr9, cr4, {0}
    1c0c:	04020074 	streq	r0, [r2], #-116	; 0x74
    1c10:	00018407 	andeq	r8, r1, r7, lsl #8
    1c14:	08010200 	stmdaeq	r1, {r9}
    1c18:	00000257 	andeq	r0, r0, r7, asr r2
    1c1c:	0c020104 	stfeqs	f0, [r2], {4}
    1c20:	000000b2 	strheq	r0, [r0], -r2
    1c24:	00076c05 	andeq	r6, r7, r5, lsl #24
    1c28:	83050000 	movwhi	r0, #20480	; 0x5000
    1c2c:	01000008 	tsteq	r0, r8
    1c30:	0008a605 	andeq	sl, r8, r5, lsl #12
    1c34:	b5050400 	strlt	r0, [r5, #-1024]	; 0x400
    1c38:	05000008 	streq	r0, [r0, #-8]
    1c3c:	0008c405 	andeq	ip, r8, r5, lsl #8
    1c40:	d3050600 	movwle	r0, #22016	; 0x5600
    1c44:	07000008 	streq	r0, [r0, -r8]
    1c48:	0008e205 	andeq	lr, r8, r5, lsl #4
    1c4c:	f1050300 			; <UNDEFINED> instruction: 0xf1050300
    1c50:	02000008 	andeq	r0, r0, #8
    1c54:	089a0600 	ldmeq	sl, {r9, sl}
    1c58:	15020000 	strne	r0, [r2, #-0]
    1c5c:	00000079 	andeq	r0, r0, r9, ror r0
    1c60:	00033007 	andeq	r3, r3, r7
    1c64:	d83f0100 	ldmdale	pc!, {r8}	; <UNPREDICTABLE>
    1c68:	d400008a 	strle	r0, [r0], #-138	; 0x8a
    1c6c:	01000000 	mrseq	r0, (UNDEF: 0)
    1c70:	0001339c 	muleq	r1, ip, r3
    1c74:	69700800 	ldmdbvs	r0!, {fp}^
    1c78:	3f01006e 	svccc	0x0001006e
    1c7c:	0000002c 	andeq	r0, r0, ip, lsr #32
    1c80:	000009ba 			; <UNDEFINED> instruction: 0x000009ba
    1c84:	0007c509 	andeq	ip, r7, r9, lsl #10
    1c88:	33470100 	movtcc	r0, #28928	; 0x7100
    1c8c:	d8000001 	stmdale	r0, {r0}
    1c90:	09000009 	stmdbeq	r0, {r0, r3}
    1c94:	00000900 	andeq	r0, r0, r0, lsl #18
    1c98:	002c4901 	eoreq	r4, ip, r1, lsl #18
    1c9c:	0a2d0000 	beq	b41ca4 <__bss_end__+0xb2f784>
    1ca0:	44090000 	strmi	r0, [r9], #-0
    1ca4:	01000008 	tsteq	r0, r8
    1ca8:	00002c57 	andeq	r2, r0, r7, asr ip
    1cac:	000bf900 	andeq	pc, fp, r0, lsl #18
    1cb0:	8b6c0a00 	blhi	1b044b8 <__bss_end__+0x1af1f98>
    1cb4:	07e00000 	strbeq	r0, [r0, r0]!
    1cb8:	01220000 	teqeq	r2, r0
    1cbc:	010b0000 	mrseq	r0, (UNDEF: 11)
    1cc0:	00750250 	rsbseq	r0, r5, r0, asr r2
    1cc4:	8ba00c00 	blhi	fe804ccc <__bss_end__+0xfe7f27ac>
    1cc8:	08010000 	stmdaeq	r1, {}	; <UNPREDICTABLE>
    1ccc:	010b0000 	mrseq	r0, (UNDEF: 11)
    1cd0:	00750250 	rsbseq	r0, r5, r0, asr r2
    1cd4:	040d0000 	streq	r0, [sp], #-0
    1cd8:	00000139 	andeq	r0, r0, r9, lsr r1
    1cdc:	00002c0e 	andeq	r2, r0, lr, lsl #24
    1ce0:	08690700 	stmdaeq	r9!, {r8, r9, sl}^
    1ce4:	60010000 	andvs	r0, r1, r0
    1ce8:	00008bac 	andeq	r8, r0, ip, lsr #23
    1cec:	00000038 	andeq	r0, r0, r8, lsr r0
    1cf0:	01969c01 	orrseq	r9, r6, r1, lsl #24
    1cf4:	70080000 	andvc	r0, r8, r0
    1cf8:	01006e69 	tsteq	r0, r9, ror #28
    1cfc:	00002c60 	andeq	r2, r0, r0, ror #24
    1d00:	000c2900 	andeq	r2, ip, r0, lsl #18
    1d04:	07c50900 	strbeq	r0, [r5, r0, lsl #18]
    1d08:	67010000 	strvs	r0, [r1, -r0]
    1d0c:	00000133 	andeq	r0, r0, r3, lsr r1
    1d10:	00000c4a 	andeq	r0, r0, sl, asr #24
    1d14:	00084409 	andeq	r4, r8, r9, lsl #8
    1d18:	2c680100 	stfcse	f0, [r8], #-0
    1d1c:	80000000 	andhi	r0, r0, r0
    1d20:	0c00000c 	stceq	0, cr0, [r0], {12}
    1d24:	00008bdc 	ldrdeq	r8, [r0], -ip
    1d28:	00000801 	andeq	r0, r0, r1, lsl #16
    1d2c:	0751010b 	ldrbeq	r0, [r1, -fp, lsl #2]
    1d30:	5001f331 	andpl	pc, r1, r1, lsr r3	; <UNPREDICTABLE>
    1d34:	00241a4f 	eoreq	r1, r4, pc, asr #20
    1d38:	077c0700 	ldrbeq	r0, [ip, -r0, lsl #14]!
    1d3c:	7b010000 	blvc	41d44 <__bss_end__+0x2f824>
    1d40:	00008be4 	andeq	r8, r0, r4, ror #23
    1d44:	00000038 	andeq	r0, r0, r8, lsr r0
    1d48:	01ee9c01 	mvneq	r9, r1, lsl #24
    1d4c:	70080000 	andvc	r0, r8, r0
    1d50:	01006e69 	tsteq	r0, r9, ror #28
    1d54:	00002c7b 	andeq	r2, r0, fp, ror ip
    1d58:	000cc000 	andeq	ip, ip, r0
    1d5c:	07c50900 	strbeq	r0, [r5, r0, lsl #18]
    1d60:	81010000 	mrshi	r0, (UNDEF: 1)
    1d64:	00000133 	andeq	r0, r0, r3, lsr r1
    1d68:	00000ce1 	andeq	r0, r0, r1, ror #25
    1d6c:	00084409 	andeq	r4, r8, r9, lsl #8
    1d70:	2c820100 	stfcss	f0, [r2], {0}
    1d74:	17000000 	strne	r0, [r0, -r0]
    1d78:	0c00000d 	stceq	0, cr0, [r0], {13}
    1d7c:	00008c14 	andeq	r8, r0, r4, lsl ip
    1d80:	00000801 	andeq	r0, r0, r1, lsl #16
    1d84:	0751010b 	ldrbeq	r0, [r1, -fp, lsl #2]
    1d88:	5001f331 	andpl	pc, r1, r1, lsr r3	; <UNPREDICTABLE>
    1d8c:	00241a4f 	eoreq	r1, r4, pc, asr #20
    1d90:	02d90700 	sbcseq	r0, r9, #0, 14
    1d94:	95010000 	strls	r0, [r1, #-0]
    1d98:	00008c1c 	andeq	r8, r0, ip, lsl ip
    1d9c:	000000cc 	andeq	r0, r0, ip, asr #1
    1da0:	02649c01 	rsbeq	r9, r4, #256	; 0x100
    1da4:	70080000 	andvc	r0, r8, r0
    1da8:	01006e69 	tsteq	r0, r9, ror #28
    1dac:	00002c95 	muleq	r0, r5, ip
    1db0:	000d5700 	andeq	r5, sp, r0, lsl #14
    1db4:	07c50900 	strbeq	r0, [r5, r0, lsl #18]
    1db8:	9b010000 	blls	41dc0 <__bss_end__+0x2f8a0>
    1dbc:	00000133 	andeq	r0, r0, r3, lsr r1
    1dc0:	00000d75 	andeq	r0, r0, r5, ror sp
    1dc4:	00090009 	andeq	r0, r9, r9
    1dc8:	2c9d0100 	ldfcss	f0, [sp], {0}
    1dcc:	ca000000 	bgt	1dd4 <_start-0x622c>
    1dd0:	0900000d 	stmdbeq	r0, {r0, r2, r3}
    1dd4:	00000844 	andeq	r0, r0, r4, asr #16
    1dd8:	002cab01 	eoreq	sl, ip, r1, lsl #22
    1ddc:	0f960000 	svceq	0x00960000
    1de0:	b00a0000 	andlt	r0, sl, r0
    1de4:	e000008c 	and	r0, r0, ip, lsl #1
    1de8:	53000007 	movwpl	r0, #7
    1dec:	0b000002 	bleq	1dfc <_start-0x6204>
    1df0:	75025001 	strvc	r5, [r2, #-1]
    1df4:	dc0c0000 	stcle	0, cr0, [ip], {-0}
    1df8:	0100008c 	smlabbeq	r0, ip, r0, r0
    1dfc:	0b000008 	bleq	1e24 <_start-0x61dc>
    1e00:	75025001 	strvc	r5, [r2, #-1]
    1e04:	0f000000 	svceq	0x00000000
    1e08:	00000147 	andeq	r0, r0, r7, asr #2
    1e0c:	0064b301 	rsbeq	fp, r4, r1, lsl #6
    1e10:	8ce80000 	stclhi	0, cr0, [r8]
    1e14:	004c0000 	subeq	r0, ip, r0
    1e18:	9c010000 	stcls	0, cr0, [r1], {-0}
    1e1c:	000002ac 	andeq	r0, r0, ip, lsr #5
    1e20:	6e697008 	cdpvs	0, 6, cr7, cr9, cr8, {0}
    1e24:	2cb30100 	ldfcss	f0, [r3]
    1e28:	b4000000 	strlt	r0, [r0], #-0
    1e2c:	1000000f 	andne	r0, r0, pc
    1e30:	b9010076 	stmdblt	r1, {r1, r2, r4, r5, r6}
    1e34:	0000002c 	andeq	r0, r0, ip, lsr #32
    1e38:	0000100c 	andeq	r1, r0, ip
    1e3c:	008d0811 	addeq	r0, sp, r1, lsl r8
    1e40:	0007e000 	andeq	lr, r7, r0
    1e44:	8d181100 	ldfhis	f1, [r8, #-0]
    1e48:	07e00000 	strbeq	r0, [r0, r0]!
    1e4c:	07000000 	streq	r0, [r0, -r0]
    1e50:	0000001f 	andeq	r0, r0, pc, lsl r0
    1e54:	8d34c501 	cfldr32hi	mvfx12, [r4, #-4]!
    1e58:	00240000 	eoreq	r0, r4, r0
    1e5c:	9c010000 	stcls	0, cr0, [r1], {-0}
    1e60:	000002fc 	strdeq	r0, [r0], -ip
    1e64:	6e697008 	cdpvs	0, 6, cr7, cr9, cr8, {0}
    1e68:	2cc50100 	stfcse	f0, [r5], {0}
    1e6c:	42000000 	andmi	r0, r0, #0
    1e70:	08000010 	stmdaeq	r0, {r4}
    1e74:	c5010076 	strgt	r0, [r1, #-118]	; 0x76
    1e78:	0000002c 	andeq	r0, r0, ip, lsr #32
    1e7c:	0000107c 	andeq	r1, r0, ip, ror r0
    1e80:	008d4c0a 	addeq	r4, sp, sl, lsl #24
    1e84:	00013e00 	andeq	r3, r1, r0, lsl #28
    1e88:	0002f200 	andeq	pc, r2, r0, lsl #4
    1e8c:	50010b00 	andpl	r0, r1, r0, lsl #22
    1e90:	5001f303 	andpl	pc, r1, r3, lsl #6
    1e94:	8d541100 	ldfhie	f1, [r4, #-0]
    1e98:	01960000 	orrseq	r0, r6, r0
    1e9c:	07000000 	streq	r0, [r0, -r0]
    1ea0:	00000808 	andeq	r0, r0, r8, lsl #16
    1ea4:	8d58d101 	ldfhip	f5, [r8, #-4]
    1ea8:	00d80000 	sbcseq	r0, r8, r0
    1eac:	9c010000 	stcls	0, cr0, [r1], {-0}
    1eb0:	00000381 	andeq	r0, r0, r1, lsl #7
    1eb4:	6e697008 	cdpvs	0, 6, cr7, cr9, cr8, {0}
    1eb8:	2cd10100 	ldfcse	f0, [r1], {0}
    1ebc:	b6000000 	strlt	r0, [r0], -r0
    1ec0:	12000010 	andne	r0, r0, #16
    1ec4:	00000856 	andeq	r0, r0, r6, asr r8
    1ec8:	00b2d101 	adcseq	sp, r2, r1, lsl #2
    1ecc:	10d40000 	sbcsne	r0, r4, r0
    1ed0:	c5090000 	strgt	r0, [r9, #-0]
    1ed4:	01000007 	tsteq	r0, r7
    1ed8:	000133d9 	ldrdeq	r3, [r1], -r9
    1edc:	0010f500 	andseq	pc, r0, r0, lsl #10
    1ee0:	09000900 	stmdbeq	r0, {r8, fp}
    1ee4:	da010000 	ble	41eec <__bss_end__+0x2f9cc>
    1ee8:	0000002c 	andeq	r0, r0, ip, lsr #32
    1eec:	0000114a 	andeq	r1, r0, sl, asr #2
    1ef0:	00084409 	andeq	r4, r8, r9, lsl #8
    1ef4:	2ce80100 	stfcse	f0, [r8]
    1ef8:	16000000 	strne	r0, [r0], -r0
    1efc:	0a000013 	beq	1f50 <_start-0x60b0>
    1f00:	00008df4 	strdeq	r8, [r0], -r4
    1f04:	000007e0 	andeq	r0, r0, r0, ror #15
    1f08:	00000370 	andeq	r0, r0, r0, ror r3
    1f0c:	0250010b 	subseq	r0, r0, #-1073741822	; 0xc0000002
    1f10:	0c000076 	stceq	0, cr0, [r0], {118}	; 0x76
    1f14:	00008e24 	andeq	r8, r0, r4, lsr #28
    1f18:	00000801 	andeq	r0, r0, r1, lsl #16
    1f1c:	0250010b 	subseq	r0, r0, #-1073741822	; 0xc0000002
    1f20:	00000076 	andeq	r0, r0, r6, ror r0
    1f24:	00076013 	andeq	r6, r7, r3, lsl r0
    1f28:	01050100 	mrseq	r0, (UNDEF: 21)
    1f2c:	00000064 	andeq	r0, r0, r4, rrx
    1f30:	00008e30 	andeq	r8, r0, r0, lsr lr
    1f34:	0000002c 	andeq	r0, r0, ip, lsr #32
    1f38:	03b59c01 			; <UNDEFINED> instruction: 0x03b59c01
    1f3c:	63140000 	tstvs	r4, #0
    1f40:	01000007 	tsteq	r0, r7
    1f44:	002c0105 	eoreq	r0, ip, r5, lsl #2
    1f48:	13470000 	movtne	r0, #28672	; 0x7000
    1f4c:	40110000 	andsmi	r0, r1, r0
    1f50:	e000008e 	and	r0, r0, lr, lsl #1
    1f54:	00000007 	andeq	r0, r0, r7
    1f58:	00016a15 	andeq	r6, r1, r5, lsl sl
    1f5c:	01140100 	tsteq	r4, r0, lsl #2
    1f60:	00008e5c 	andeq	r8, r0, ip, asr lr
    1f64:	00000084 	andeq	r0, r0, r4, lsl #1
    1f68:	04799c01 	ldrbteq	r9, [r9], #-3073	; 0xc01
    1f6c:	70160000 	andsvc	r0, r6, r0
    1f70:	01006e69 	tsteq	r0, r9, ror #28
    1f74:	002c0114 	eoreq	r0, ip, r4, lsl r1
    1f78:	13680000 	cmnne	r8, #0
    1f7c:	97170000 	ldrls	r0, [r7, -r0]
    1f80:	01000007 	tsteq	r0, r7
    1f84:	002c0126 	eoreq	r0, ip, r6, lsr #2
    1f88:	13940000 	orrsne	r0, r4, #0
    1f8c:	78180000 	ldmdavc	r8, {}	; <UNPREDICTABLE>
    1f90:	1c00008e 	stcne	0, cr0, [r0], {142}	; 0x8e
    1f94:	1b000000 	blne	1f9c <_start-0x6064>
    1f98:	17000004 	strne	r0, [r0, -r4]
    1f9c:	00000844 	andeq	r0, r0, r4, asr #16
    1fa0:	2c011d01 	stccs	13, cr1, [r1], {1}
    1fa4:	b2000000 	andlt	r0, r0, #0
    1fa8:	11000013 	tstne	r0, r3, lsl r0
    1fac:	00008e84 	andeq	r8, r0, r4, lsl #29
    1fb0:	000007e0 	andeq	r0, r0, r0, ror #15
    1fb4:	008e9411 	addeq	r9, lr, r1, lsl r4
    1fb8:	00080100 	andeq	r0, r8, r0, lsl #2
    1fbc:	98180000 	ldmdals	r8, {}	; <UNPREDICTABLE>
    1fc0:	2000008e 	andcs	r0, r0, lr, lsl #1
    1fc4:	4b000000 	blmi	1fcc <_start-0x6034>
    1fc8:	17000004 	strne	r0, [r0, -r4]
    1fcc:	00000844 	andeq	r0, r0, r4, asr #16
    1fd0:	2c012101 	stfcss	f2, [r1], {1}
    1fd4:	d0000000 	andle	r0, r0, r0
    1fd8:	11000013 	tstne	r0, r3, lsl r0
    1fdc:	00008ea4 	andeq	r8, r0, r4, lsr #29
    1fe0:	000007e0 	andeq	r0, r0, r0, ror #15
    1fe4:	008eb811 	addeq	fp, lr, r1, lsl r8
    1fe8:	00080100 	andeq	r0, r8, r0, lsl #2
    1fec:	70110000 	andsvc	r0, r1, r0
    1ff0:	1d00008e 	stcne	0, cr0, [r0, #-568]	; 0xfffffdc8
    1ff4:	11000008 	tstne	r0, r8
    1ff8:	00008ebc 			; <UNDEFINED> instruction: 0x00008ebc
    1ffc:	0000081d 	andeq	r0, r0, sp, lsl r8
    2000:	008ec811 	addeq	ip, lr, r1, lsl r8
    2004:	0007e000 	andeq	lr, r7, r0
    2008:	8ed41100 	cdphi	1, 13, cr1, cr4, cr0, {0}
    200c:	08010000 	stmdaeq	r1, {}	; <UNPREDICTABLE>
    2010:	d8110000 	ldmdale	r1, {}	; <UNPREDICTABLE>
    2014:	1d00008e 	stcne	0, cr0, [r0, #-568]	; 0xfffffdc8
    2018:	00000008 	andeq	r0, r0, r8
    201c:	00036215 	andeq	r6, r3, r5, lsl r2
    2020:	01310100 	teqeq	r1, r0, lsl #2
    2024:	00008ee0 	andeq	r8, r0, r0, ror #29
    2028:	00000084 	andeq	r0, r0, r4, lsl #1
    202c:	053d9c01 	ldreq	r9, [sp, #-3073]!	; 0xc01
    2030:	70160000 	andsvc	r0, r6, r0
    2034:	01006e69 	tsteq	r0, r9, ror #28
    2038:	002c0131 	eoreq	r0, ip, r1, lsr r1
    203c:	13ee0000 	mvnne	r0, #0
    2040:	97170000 	ldrls	r0, [r7, -r0]
    2044:	01000007 	tsteq	r0, r7
    2048:	002c0142 	eoreq	r0, ip, r2, asr #2
    204c:	141a0000 	ldrne	r0, [sl], #-0
    2050:	fc180000 	ldc2	0, cr0, [r8], {-0}
    2054:	1c00008e 	stcne	0, cr0, [r0], {142}	; 0x8e
    2058:	df000000 	svcle	0x00000000
    205c:	17000004 	strne	r0, [r0, -r4]
    2060:	00000844 	andeq	r0, r0, r4, asr #16
    2064:	2c013901 	stccs	9, cr3, [r1], {1}
    2068:	38000000 	stmdacc	r0, {}	; <UNPREDICTABLE>
    206c:	11000014 	tstne	r0, r4, lsl r0
    2070:	00008f08 	andeq	r8, r0, r8, lsl #30
    2074:	000007e0 	andeq	r0, r0, r0, ror #15
    2078:	008f1811 	addeq	r1, pc, r1, lsl r8	; <UNPREDICTABLE>
    207c:	00080100 	andeq	r0, r8, r0, lsl #2
    2080:	1c180000 	ldcne	0, cr0, [r8], {-0}
    2084:	2000008f 	andcs	r0, r0, pc, lsl #1
    2088:	0f000000 	svceq	0x00000000
    208c:	17000005 	strne	r0, [r0, -r5]
    2090:	00000844 	andeq	r0, r0, r4, asr #16
    2094:	2c013d01 	stccs	13, cr3, [r1], {1}
    2098:	56000000 	strpl	r0, [r0], -r0
    209c:	11000014 	tstne	r0, r4, lsl r0
    20a0:	00008f28 	andeq	r8, r0, r8, lsr #30
    20a4:	000007e0 	andeq	r0, r0, r0, ror #15
    20a8:	008f3c11 	addeq	r3, pc, r1, lsl ip	; <UNPREDICTABLE>
    20ac:	00080100 	andeq	r0, r8, r0, lsl #2
    20b0:	f4110000 			; <UNDEFINED> instruction: 0xf4110000
    20b4:	1d00008e 	stcne	0, cr0, [r0, #-568]	; 0xfffffdc8
    20b8:	11000008 	tstne	r0, r8
    20bc:	00008f40 	andeq	r8, r0, r0, asr #30
    20c0:	0000081d 	andeq	r0, r0, sp, lsl r8
    20c4:	008f4c11 	addeq	r4, pc, r1, lsl ip	; <UNPREDICTABLE>
    20c8:	0007e000 	andeq	lr, r7, r0
    20cc:	8f581100 	svchi	0x00581100
    20d0:	08010000 	stmdaeq	r1, {}	; <UNPREDICTABLE>
    20d4:	5c110000 	ldcpl	0, cr0, [r1], {-0}
    20d8:	1d00008f 	stcne	0, cr0, [r0, #-572]	; 0xfffffdc4
    20dc:	00000008 	andeq	r0, r0, r8
    20e0:	00072913 	andeq	r2, r7, r3, lsl r9
    20e4:	014c0100 	mrseq	r0, (UNDEF: 92)
    20e8:	00000064 	andeq	r0, r0, r4, rrx
    20ec:	00008f64 	andeq	r8, r0, r4, ror #30
    20f0:	00000084 	andeq	r0, r0, r4, lsl #1
    20f4:	05e39c01 	strbeq	r9, [r3, #3073]!	; 0xc01
    20f8:	70160000 	andsvc	r0, r6, r0
    20fc:	01006e69 	tsteq	r0, r9, ror #28
    2100:	002c014c 	eoreq	r0, ip, ip, asr #2
    2104:	14740000 	ldrbtne	r0, [r4], #-0
    2108:	80180000 	andshi	r0, r8, r0
    210c:	2400008f 	strcs	r0, [r0], #-143	; 0x8f
    2110:	97000000 	strls	r0, [r0, -r0]
    2114:	17000005 	strne	r0, [r0, -r5]
    2118:	000007ae 	andeq	r0, r0, lr, lsr #15
    211c:	2c015301 	stccs	3, cr5, [r1], {1}
    2120:	b6000000 	strlt	r0, [r0], -r0
    2124:	11000014 	tstne	r0, r4, lsl r0
    2128:	00008f8c 	andeq	r8, r0, ip, lsl #31
    212c:	000007e0 	andeq	r0, r0, r0, ror #15
    2130:	008f9c11 	addeq	r9, pc, r1, lsl ip	; <UNPREDICTABLE>
    2134:	00081d00 	andeq	r1, r8, r0, lsl #26
    2138:	a4180000 	ldrge	r0, [r8], #-0
    213c:	2c00008f 	stccs	0, cr0, [r0], {143}	; 0x8f
    2140:	d0000000 	andle	r0, r0, r0
    2144:	17000005 	strne	r0, [r0, -r5]
    2148:	000007ae 	andeq	r0, r0, lr, lsr #15
    214c:	2c015601 	stccs	6, cr5, [r1], {1}
    2150:	d0000000 	andle	r0, r0, r0
    2154:	11000014 	tstne	r0, r4, lsl r0
    2158:	00008fb0 			; <UNDEFINED> instruction: 0x00008fb0
    215c:	000007e0 	andeq	r0, r0, r0, ror #15
    2160:	008fbc11 	addeq	fp, pc, r1, lsl ip	; <UNPREDICTABLE>
    2164:	00081d00 	andeq	r1, r8, r0, lsl #26
    2168:	8fc81100 	svchi	0x00c81100
    216c:	081d0000 	ldmdaeq	sp, {}	; <UNPREDICTABLE>
    2170:	11000000 	mrsne	r0, (UNDEF: 0)
    2174:	00008f78 	andeq	r8, r0, r8, ror pc
    2178:	0000081d 	andeq	r0, r0, sp, lsl r8
    217c:	008fd411 	addeq	sp, pc, r1, lsl r4	; <UNPREDICTABLE>
    2180:	00081d00 	andeq	r1, r8, r0, lsl #26
    2184:	f5150000 			; <UNDEFINED> instruction: 0xf5150000
    2188:	01000000 	mrseq	r0, (UNDEF: 0)
    218c:	8fe8015f 	svchi	0x00e8015f
    2190:	00580000 	subseq	r0, r8, r0
    2194:	9c010000 	stcls	0, cr0, [r1], {-0}
    2198:	00000648 	andeq	r0, r0, r8, asr #12
    219c:	6e697016 	mcrvs	0, 3, r7, cr9, cr6, {0}
    21a0:	015f0100 	cmpeq	pc, r0, lsl #2
    21a4:	0000002c 	andeq	r0, r0, ip, lsr #32
    21a8:	000014e3 	andeq	r1, r0, r3, ror #9
    21ac:	008ffc11 	addeq	pc, pc, r1, lsl ip	; <UNPREDICTABLE>
    21b0:	00081d00 	andeq	r1, r8, r0, lsl #26
    21b4:	90180a00 	andsls	r0, r8, r0, lsl #20
    21b8:	08010000 	stmdaeq	r1, {}	; <UNPREDICTABLE>
    21bc:	06280000 	strteq	r0, [r8], -r0
    21c0:	010b0000 	mrseq	r0, (UNDEF: 11)
    21c4:	74310451 	ldrtvc	r0, [r1], #-1105	; 0x451
    21c8:	0a002400 	beq	b1d0 <__bss_start__+0x111c>
    21cc:	00009034 	andeq	r9, r0, r4, lsr r0
    21d0:	00000801 	andeq	r0, r0, r1, lsl #16
    21d4:	0000063e 	andeq	r0, r0, lr, lsr r6
    21d8:	0451010b 	ldrbeq	r0, [r1], #-267	; 0x10b
    21dc:	24007431 	strcs	r7, [r0], #-1073	; 0x431
    21e0:	90381100 	eorsls	r1, r8, r0, lsl #2
    21e4:	081d0000 	ldmdaeq	sp, {}	; <UNPREDICTABLE>
    21e8:	19000000 	stmdbne	r0, {}	; <UNPREDICTABLE>
    21ec:	000007f6 	strdeq	r0, [r0], -r6
    21f0:	01332801 	teqeq	r3, r1, lsl #16
    21f4:	03050000 	movweq	r0, #20480	; 0x5000
    21f8:	00009ba4 	andeq	r9, r0, r4, lsr #23
    21fc:	00084c19 	andeq	r4, r8, r9, lsl ip
    2200:	33290100 	teqcc	r9, #0, 2
    2204:	05000001 	streq	r0, [r0, #-1]
    2208:	009ba003 	addseq	sl, fp, r3
    220c:	090b1900 	stmdbeq	fp, {r8, fp, ip}
    2210:	2a010000 	bcs	42218 <__bss_end__+0x2fcf8>
    2214:	00000133 	andeq	r0, r0, r3, lsr r1
    2218:	9b9c0305 	blls	fe702e34 <__bss_end__+0xfe6f0914>
    221c:	ce190000 	cdpgt	0, 1, cr0, cr9, cr0, {0}
    2220:	01000007 	tsteq	r0, r7
    2224:	0001332c 	andeq	r3, r1, ip, lsr #6
    2228:	48030500 	stmdami	r3, {r8, sl}
    222c:	1900009b 	stmdbne	r0, {r0, r1, r3, r4, r7}
    2230:	000007d6 	ldrdeq	r0, [r0], -r6
    2234:	01332d01 	teqeq	r3, r1, lsl #26
    2238:	03050000 	movweq	r0, #20480	; 0x5000
    223c:	00009b4c 	andeq	r9, r0, ip, asr #22
    2240:	00074319 	andeq	r4, r7, r9, lsl r3
    2244:	332e0100 	teqcc	lr, #0, 2
    2248:	05000001 	streq	r0, [r0, #-1]
    224c:	009b5003 	addseq	r5, fp, r3
    2250:	07de1900 	ldrbeq	r1, [lr, r0, lsl #18]
    2254:	2f010000 	svccs	0x00010000
    2258:	00000133 	andeq	r0, r0, r3, lsr r1
    225c:	9b540305 	blls	1502e78 <__bss_end__+0x14f0958>
    2260:	e6190000 	ldr	r0, [r9], -r0
    2264:	01000007 	tsteq	r0, r7
    2268:	00013330 	andeq	r3, r1, r0, lsr r3
    226c:	58030500 	stmdapl	r3, {r8, sl}
    2270:	1900009b 	stmdbne	r0, {r0, r1, r3, r4, r7}
    2274:	000007ee 	andeq	r0, r0, lr, ror #15
    2278:	01333101 	teqeq	r3, r1, lsl #2
    227c:	03050000 	movweq	r0, #20480	; 0x5000
    2280:	00009b5c 	andeq	r9, r0, ip, asr fp
    2284:	0007a019 	andeq	sl, r7, r9, lsl r0
    2288:	33330100 	teqcc	r3, #0, 2
    228c:	05000001 	streq	r0, [r0, #-1]
    2290:	009b6003 	addseq	r6, fp, r3
    2294:	07a71900 	streq	r1, [r7, r0, lsl #18]!
    2298:	34010000 	strcc	r0, [r1], #-0
    229c:	00000133 	andeq	r0, r0, r3, lsr r1
    22a0:	9b640305 	blls	1902ebc <__bss_end__+0x18f099c>
    22a4:	4b190000 	blmi	6422ac <__bss_end__+0x62fd8c>
    22a8:	01000007 	tsteq	r0, r7
    22ac:	00013336 	andeq	r3, r1, r6, lsr r3
    22b0:	68030500 	stmdavs	r3, {r8, sl}
    22b4:	1900009b 	stmdbne	r0, {r0, r1, r3, r4, r7}
    22b8:	00000801 	andeq	r0, r0, r1, lsl #16
    22bc:	01333701 	teqeq	r3, r1, lsl #14
    22c0:	03050000 	movweq	r0, #20480	; 0x5000
    22c4:	00009b6c 	andeq	r9, r0, ip, ror #22
    22c8:	0007b719 	andeq	fp, r7, r9, lsl r7
    22cc:	33390100 	teqcc	r9, #0, 2
    22d0:	05000001 	streq	r0, [r0, #-1]
    22d4:	009b7003 	addseq	r7, fp, r3
    22d8:	07be1900 	ldreq	r1, [lr, r0, lsl #18]!
    22dc:	3a010000 	bcc	422e4 <__bss_end__+0x2fdc4>
    22e0:	00000133 	andeq	r0, r0, r3, lsr r1
    22e4:	9b740305 	blls	1d02f00 <__bss_end__+0x1cf09e0>
    22e8:	28190000 	ldmdacs	r9, {}	; <UNPREDICTABLE>
    22ec:	01000008 	tsteq	r0, r8
    22f0:	000133f0 	strdeq	r3, [r1], -r0
    22f4:	98030500 	stmdals	r3, {r8, sl}
    22f8:	1900009b 	stmdbne	r0, {r0, r1, r3, r4, r7}
    22fc:	00000836 	andeq	r0, r0, r6, lsr r8
    2300:	0133f101 	teqeq	r3, r1, lsl #2
    2304:	03050000 	movweq	r0, #20480	; 0x5000
    2308:	00009b78 	andeq	r9, r0, r8, ror fp
    230c:	00085b19 	andeq	r5, r8, r9, lsl fp
    2310:	33f30100 	mvnscc	r0, #0, 2
    2314:	05000001 	streq	r0, [r0, #-1]
    2318:	009b9003 	addseq	r9, fp, r3
    231c:	08621900 	stmdaeq	r2!, {r8, fp, ip}^
    2320:	f4010000 	vst4.8	{d0-d3}, [r1], r0
    2324:	00000133 	andeq	r0, r0, r3, lsr r1
    2328:	9b940305 	blls	fe502f44 <__bss_end__+0xfe4f0a24>
    232c:	1a190000 	bne	642334 <__bss_end__+0x62fe14>
    2330:	01000008 	tsteq	r0, r8
    2334:	000133f6 	strdeq	r3, [r1], -r6
    2338:	7c030500 	cfstr32vc	mvfx0, [r3], {-0}
    233c:	1900009b 	stmdbne	r0, {r0, r1, r3, r4, r7}
    2340:	00000821 	andeq	r0, r0, r1, lsr #16
    2344:	0133f701 	teqeq	r3, r1, lsl #14
    2348:	03050000 	movweq	r0, #20480	; 0x5000
    234c:	00009b80 	andeq	r9, r0, r0, lsl #23
    2350:	00087519 	andeq	r7, r8, r9, lsl r5
    2354:	33f90100 	mvnscc	r0, #0, 2
    2358:	05000001 	streq	r0, [r0, #-1]
    235c:	009b8803 	addseq	r8, fp, r3, lsl #16
    2360:	087c1900 	ldmdaeq	ip!, {r8, fp, ip}^
    2364:	fa010000 	blx	4236c <__bss_end__+0x2fe4c>
    2368:	00000133 	andeq	r0, r0, r3, lsr r1
    236c:	9b8c0305 	blls	fe302f88 <__bss_end__+0xfe2f0a68>
    2370:	52190000 	andspl	r0, r9, #0
    2374:	01000007 	tsteq	r0, r7
    2378:	000133fc 	strdeq	r3, [r1], -ip
    237c:	84030500 	strhi	r0, [r3], #-1280	; 0x500
    2380:	1a00009b 	bne	25f4 <_start-0x5a0c>
    2384:	00000894 	muleq	r0, r4, r8
    2388:	002c2001 	eoreq	r2, ip, r1
    238c:	07f50000 	ldrbeq	r0, [r5, r0]!
    2390:	f51b0000 			; <UNDEFINED> instruction: 0xf51b0000
    2394:	00000007 	andeq	r0, r0, r7
    2398:	07fb040d 	ldrbeq	r0, [fp, sp, lsl #8]!
    239c:	001c0000 	andseq	r0, ip, r0
    23a0:	1d000008 	stcne	0, cr0, [r0, #-32]	; 0xffffffe0
    23a4:	00073d1e 	andeq	r3, r7, lr, lsl sp
    23a8:	171e0100 	ldrne	r0, [lr, -r0, lsl #2]
    23ac:	1b000008 	blne	23d4 <_start-0x5c2c>
    23b0:	00000817 	andeq	r0, r0, r7, lsl r8
    23b4:	00002c1b 	andeq	r2, r0, fp, lsl ip
    23b8:	040d0000 	streq	r0, [sp], #-0
    23bc:	00000800 	andeq	r0, r0, r0, lsl #16
    23c0:	00013b1f 	andeq	r3, r1, pc, lsl fp
    23c4:	00870300 	addeq	r0, r7, r0, lsl #6
    23c8:	000011ca 	andeq	r1, r0, sl, asr #3
    23cc:	0ddd0004 	ldcleq	0, cr0, [sp, #16]
    23d0:	01040000 	mrseq	r0, (UNDEF: 4)
    23d4:	0000027c 	andeq	r0, r0, ip, ror r2
    23d8:	0009aa01 	andeq	sl, r9, r1, lsl #20
    23dc:	0003c600 	andeq	ip, r3, r0, lsl #12
    23e0:	00904000 	addseq	r4, r0, r0
    23e4:	00062000 	andeq	r2, r6, r0
    23e8:	000caa00 	andeq	sl, ip, r0, lsl #20
    23ec:	05040200 	streq	r0, [r4, #-512]	; 0x200
    23f0:	00746e69 	rsbseq	r6, r4, r9, ror #28
    23f4:	62070403 	andvs	r0, r7, #50331648	; 0x3000000
    23f8:	03000000 	movweq	r0, #0
    23fc:	02500601 	subseq	r0, r0, #1048576	; 0x100000
    2400:	02030000 	andeq	r0, r3, #0
    2404:	00025c05 	andeq	r5, r2, r5, lsl #24
    2408:	05040300 	streq	r0, [r4, #-768]	; 0x300
    240c:	00000083 	andeq	r0, r0, r3, lsl #1
    2410:	7e050803 	cdpvc	8, 0, cr0, cr5, cr3, {0}
    2414:	04000000 	streq	r0, [r0], #-0
    2418:	000005f1 	strdeq	r0, [r0], -r1
    241c:	005a2e03 	subseq	r2, sl, r3, lsl #28
    2420:	01030000 	mrseq	r0, (UNDEF: 3)
    2424:	00024e08 	andeq	r4, r2, r8, lsl #28
    2428:	07020300 	streq	r0, [r2, -r0, lsl #6]
    242c:	0000011c 	andeq	r0, r0, ip, lsl r1
    2430:	00064804 	andeq	r4, r6, r4, lsl #16
    2434:	73340300 	teqvc	r4, #0, 6
    2438:	03000000 	movweq	r0, #0
    243c:	005d0704 	subseq	r0, sp, r4, lsl #14
    2440:	08030000 	stmdaeq	r3, {}	; <UNPREDICTABLE>
    2444:	00005807 	andeq	r5, r0, r7, lsl #16
    2448:	07040300 	streq	r0, [r4, -r0, lsl #6]
    244c:	00000184 	andeq	r0, r0, r4, lsl #3
    2450:	04060405 	streq	r0, [r6], #-1029	; 0x405
    2454:	00000090 	muleq	r0, r0, r0
    2458:	57080103 	strpl	r0, [r8, -r3, lsl #2]
    245c:	06000002 	streq	r0, [r0], -r2
    2460:	00009d04 	andeq	r9, r0, r4, lsl #26
    2464:	00900700 	addseq	r0, r0, r0, lsl #14
    2468:	0c080000 	stceq	0, cr0, [r8], {-0}
    246c:	00d90e04 	sbcseq	r0, r9, r4, lsl #28
    2470:	74090000 	strvc	r0, [r9], #-0
    2474:	0f040078 	svceq	0x00040078
    2478:	0000004f 	andeq	r0, r0, pc, asr #32
    247c:	78720900 	ldmdavc	r2!, {r8, fp}^
    2480:	4f0f0400 	svcmi	0x000f0400
    2484:	01000000 	mrseq	r0, (UNDEF: 0)
    2488:	0005bf0a 	andeq	fp, r5, sl, lsl #30
    248c:	68100400 	ldmdavs	r0, {sl}
    2490:	04000000 	streq	r0, [r0], #-0
    2494:	0005700a 	andeq	r7, r5, sl
    2498:	68110400 	ldmdavs	r1, {sl}
    249c:	08000000 	stmdaeq	r0, {}	; <UNPREDICTABLE>
    24a0:	05a80400 	streq	r0, [r8, #1024]!	; 0x400
    24a4:	12040000 	andne	r0, r4, #0
    24a8:	000000a2 	andeq	r0, r0, r2, lsr #1
    24ac:	00040a04 	andeq	r0, r4, r4, lsl #20
    24b0:	ef280500 	svc	0x00280500
    24b4:	0b000000 	bleq	24bc <_start-0x5b44>
    24b8:	00000431 	andeq	r0, r0, r1, lsr r4
    24bc:	06000904 	streq	r0, [r0], -r4, lsl #18
    24c0:	0c000001 	stceq	0, cr0, [r0], {1}
    24c4:	00000440 	andeq	r0, r0, r0, asr #8
    24c8:	00000088 	andeq	r0, r0, r8, lsl #1
    24cc:	33040000 	movwcc	r0, #16384	; 0x4000
    24d0:	05000004 	streq	r0, [r0, #-4]
    24d4:	0000e462 	andeq	lr, r0, r2, ror #8
    24d8:	096e0d00 	stmdbeq	lr!, {r8, sl, fp}^
    24dc:	09020000 	stmdbeq	r2, {}	; <UNPREDICTABLE>
    24e0:	00013f03 	andeq	r3, r1, r3, lsl #30
    24e4:	05d30e00 	ldrbeq	r0, [r3, #3584]	; 0xe00
    24e8:	09020000 	stmdbeq	r2, {}	; <UNPREDICTABLE>
    24ec:	0000002c 	andeq	r0, r0, ip, lsr #32
    24f0:	02006e0f 	andeq	r6, r0, #15, 28	; 0xf0
    24f4:	00002c09 	andeq	r2, r0, r9, lsl #24
    24f8:	d8111000 	ldmdale	r1, {ip}
    24fc:	02000009 	andeq	r0, r0, #9
    2500:	00002c0c 	andeq	r2, r0, ip, lsl #24
    2504:	0d000000 	stceq	0, cr0, [r0, #-0]
    2508:	00000921 	andeq	r0, r0, r1, lsr #18
    250c:	76031702 	strvc	r1, [r3], -r2, lsl #14
    2510:	0f000001 	svceq	0x00000001
    2514:	006e6970 	rsbeq	r6, lr, r0, ror r9
    2518:	002c1702 	eoreq	r1, ip, r2, lsl #14
    251c:	760f0000 	strvc	r0, [pc], -r0
    2520:	2c170200 	lfmcs	f0, 4, [r7], {-0}
    2524:	0e000000 	cdpeq	0, 0, cr0, cr0, cr0, {0}
    2528:	000005d3 	ldrdeq	r0, [r0], -r3
    252c:	002c1702 	eoreq	r1, ip, r2, lsl #14
    2530:	740e0000 	strvc	r0, [lr], #-0
    2534:	02000009 	andeq	r0, r0, #9
    2538:	00002c17 	andeq	r2, r0, r7, lsl ip
    253c:	e4120000 	ldr	r0, [r2], #-0
    2540:	01000005 	tsteq	r0, r5
    2544:	00904009 	addseq	r4, r0, r9
    2548:	00015400 	andeq	r5, r1, r0, lsl #8
    254c:	229c0100 	addscs	r0, ip, #0, 2
    2550:	13000007 	movwne	r0, #7
    2554:	00000586 	andeq	r0, r0, r6, lsl #11
    2558:	07220901 	streq	r0, [r2, -r1, lsl #18]!
    255c:	150f0000 	strne	r0, [pc, #-0]	; 2564 <_start-0x5a9c>
    2560:	63140000 	tstvs	r4, #0
    2564:	5a090100 	bpl	24296c <__bss_end__+0x23044c>
    2568:	30000000 	andcc	r0, r0, r0
    256c:	15000015 	strne	r0, [r0, #-21]
    2570:	01007874 	tsteq	r0, r4, ror r8
    2574:	0000250b 	andeq	r2, r0, fp, lsl #10
    2578:	00760600 	rsbseq	r0, r6, r0, lsl #12
    257c:	9f1aff08 	svcls	0x001aff08
    2580:	01006e16 	tsteq	r0, r6, lsl lr
    2584:	0000680c 	andeq	r6, r0, ip, lsl #16
    2588:	00155100 	andseq	r5, r5, r0, lsl #2
    258c:	00751600 	rsbseq	r1, r5, r0, lsl #12
    2590:	00680d01 	rsbeq	r0, r8, r1, lsl #26
    2594:	15640000 	strbne	r0, [r4, #-0]!
    2598:	73150000 	tstvc	r5, #0
    259c:	680e0100 	stmdavs	lr, {r8}
    25a0:	01000000 	mrseq	r0, (UNDEF: 0)
    25a4:	90501754 	subsls	r1, r0, r4, asr r7
    25a8:	00040000 	andeq	r0, r4, r0
    25ac:	01f80000 	mvnseq	r0, r0
    25b0:	d8180000 	ldmdale	r8, {}	; <UNPREDICTABLE>
    25b4:	01000009 	tsteq	r0, r9
    25b8:	00002c0e 	andeq	r2, r0, lr, lsl #24
    25bc:	00540100 	subseq	r0, r4, r0, lsl #2
    25c0:	00013f19 	andeq	r3, r1, r9, lsl pc
    25c4:	00905400 	addseq	r5, r0, r0, lsl #8
    25c8:	00001c00 	andeq	r1, r0, r0, lsl #24
    25cc:	75110100 	ldrvc	r0, [r1, #-256]	; 0x100
    25d0:	1a000002 	bne	25e0 <_start-0x5a20>
    25d4:	0000016a 	andeq	r0, r0, sl, ror #2
    25d8:	0000158d 	andeq	r1, r0, sp, lsl #11
    25dc:	00015f1b 	andeq	r5, r1, fp, lsl pc
    25e0:	1c540100 	ldfnee	f0, [r4], {-0}
    25e4:	00000156 	andeq	r0, r0, r6, asr r1
    25e8:	014b1b00 	cmpeq	fp, r0, lsl #22
    25ec:	56010000 	strpl	r0, [r1], -r0
    25f0:	00011119 	andeq	r1, r1, r9, lsl r1
    25f4:	00906000 	addseq	r6, r0, r0
    25f8:	00001000 	andeq	r1, r0, r0
    25fc:	5f1a0200 	svcpl	0x001a0200
    2600:	1a000002 	bne	2610 <_start-0x59f0>
    2604:	00000128 	andeq	r0, r0, r8, lsr #2
    2608:	000015a0 	andeq	r1, r0, r0, lsr #11
    260c:	00011d1b 	andeq	r1, r1, fp, lsl sp
    2610:	1d540100 	ldfnee	f0, [r4, #-0]
    2614:	00009060 	andeq	r9, r0, r0, rrx
    2618:	00000004 	andeq	r0, r0, r4
    261c:	0001321e 	andeq	r3, r1, lr, lsl r2
    2620:	0015b300 	andseq	fp, r5, r0, lsl #6
    2624:	1f000000 	svcne	0x00000000
    2628:	00009060 	andeq	r9, r0, r0, rrx
    262c:	00001131 	andeq	r1, r0, r1, lsr r1
    2630:	01510120 	cmpeq	r1, r0, lsr #2
    2634:	50012030 	andpl	r2, r1, r0, lsr r0
    2638:	00007602 	andeq	r7, r0, r2, lsl #12
    263c:	013f1900 	teqeq	pc, r0, lsl #18
    2640:	90740000 	rsbsls	r0, r4, r0
    2644:	001c0000 	andseq	r0, ip, r0
    2648:	13010000 	movwne	r0, #4096	; 0x1000
    264c:	000002f8 	strdeq	r0, [r0], -r8
    2650:	00016a1a 	andeq	r6, r1, sl, lsl sl
    2654:	0015c600 	andseq	ip, r5, r0, lsl #12
    2658:	015f1b00 	cmpeq	pc, r0, lsl #22
    265c:	54010000 	strpl	r0, [r1], #-0
    2660:	0001561a 	andeq	r5, r1, sl, lsl r6
    2664:	0015e800 	andseq	lr, r5, r0, lsl #16
    2668:	014b1b00 	cmpeq	fp, r0, lsl #22
    266c:	56010000 	strpl	r0, [r1], -r0
    2670:	00011119 	andeq	r1, r1, r9, lsl r1
    2674:	00908000 	addseq	r8, r0, r0
    2678:	00001000 	andeq	r1, r0, r0
    267c:	df1a0200 	svcle	0x001a0200
    2680:	1a000002 	bne	2690 <_start-0x5970>
    2684:	00000128 	andeq	r0, r0, r8, lsr #2
    2688:	00001619 	andeq	r1, r0, r9, lsl r6
    268c:	00011d1b 	andeq	r1, r1, fp, lsl sp
    2690:	1d540100 	ldfnee	f0, [r4, #-0]
    2694:	00009080 	andeq	r9, r0, r0, lsl #1
    2698:	00000004 	andeq	r0, r0, r4
    269c:	0001321e 	andeq	r3, r1, lr, lsl r2
    26a0:	00163b00 	andseq	r3, r6, r0, lsl #22
    26a4:	1f000000 	svcne	0x00000000
    26a8:	00009080 	andeq	r9, r0, r0, lsl #1
    26ac:	00001131 	andeq	r1, r0, r1, lsr r1
    26b0:	04510120 	ldrbeq	r0, [r1], #-288	; 0x120
    26b4:	1a310077 	bne	c42898 <__bss_end__+0xc30378>
    26b8:	02500120 	subseq	r0, r0, #32, 2
    26bc:	00000076 	andeq	r0, r0, r6, ror r0
    26c0:	00013f19 	andeq	r3, r1, r9, lsl pc
    26c4:	00909400 	addseq	r9, r0, r0, lsl #8
    26c8:	00001c00 	andeq	r1, r0, r0, lsl #24
    26cc:	80150100 	andshi	r0, r5, r0, lsl #2
    26d0:	1a000003 	bne	26e4 <_start-0x591c>
    26d4:	0000016a 	andeq	r0, r0, sl, ror #2
    26d8:	0000164e 	andeq	r1, r0, lr, asr #12
    26dc:	00015f1b 	andeq	r5, r1, fp, lsl pc
    26e0:	1b540100 	blne	1502ae8 <__bss_end__+0x14f05c8>
    26e4:	00000156 	andeq	r0, r0, r6, asr r1
    26e8:	32007708 	andcc	r7, r0, #8, 14	; 0x200000
    26ec:	1aff081a 	bne	fffc475c <__bss_end__+0xfffb223c>
    26f0:	014b1b9f 			; <UNDEFINED> instruction: 0x014b1b9f
    26f4:	56010000 	strpl	r0, [r1], -r0
    26f8:	00011119 	andeq	r1, r1, r9, lsl r1
    26fc:	0090a000 	addseq	sl, r0, r0
    2700:	00001000 	andeq	r1, r0, r0
    2704:	671a0200 	ldrvs	r0, [sl, -r0, lsl #4]
    2708:	1a000003 	bne	271c <_start-0x58e4>
    270c:	00000128 	andeq	r0, r0, r8, lsr #2
    2710:	00001673 	andeq	r1, r0, r3, ror r6
    2714:	00011d1b 	andeq	r1, r1, fp, lsl sp
    2718:	1d540100 	ldfnee	f0, [r4, #-0]
    271c:	000090a0 	andeq	r9, r0, r0, lsr #1
    2720:	00000004 	andeq	r0, r0, r4
    2724:	0001321e 	andeq	r3, r1, lr, lsl r2
    2728:	00169800 	andseq	r9, r6, r0, lsl #16
    272c:	1f000000 	svcne	0x00000000
    2730:	000090a0 	andeq	r9, r0, r0, lsr #1
    2734:	00001131 	andeq	r1, r0, r1, lsr r1
    2738:	04510120 	ldrbeq	r0, [r1], #-288	; 0x120
    273c:	1a320077 	bne	c82920 <__bss_end__+0xc70400>
    2740:	02500120 	subseq	r0, r0, #32, 2
    2744:	00000076 	andeq	r0, r0, r6, ror r0
    2748:	00013f19 	andeq	r3, r1, r9, lsl pc
    274c:	0090b400 	addseq	fp, r0, r0, lsl #8
    2750:	00001c00 	andeq	r1, r0, r0, lsl #24
    2754:	08170100 	ldmdaeq	r7, {r8}
    2758:	1a000004 	bne	2770 <_start-0x5890>
    275c:	0000016a 	andeq	r0, r0, sl, ror #2
    2760:	000016ab 	andeq	r1, r0, fp, lsr #13
    2764:	00015f1b 	andeq	r5, r1, fp, lsl pc
    2768:	1b540100 	blne	1502b70 <__bss_end__+0x14f0650>
    276c:	00000156 	andeq	r0, r0, r6, asr r1
    2770:	34007708 	strcc	r7, [r0], #-1800	; 0x708
    2774:	1aff081a 	bne	fffc47e4 <__bss_end__+0xfffb22c4>
    2778:	014b1b9f 			; <UNDEFINED> instruction: 0x014b1b9f
    277c:	56010000 	strpl	r0, [r1], -r0
    2780:	00011119 	andeq	r1, r1, r9, lsl r1
    2784:	0090c000 	addseq	ip, r0, r0
    2788:	00001000 	andeq	r1, r0, r0
    278c:	ef1a0200 	svc	0x001a0200
    2790:	1a000003 	bne	27a4 <_start-0x585c>
    2794:	00000128 	andeq	r0, r0, r8, lsr #2
    2798:	000016cd 	andeq	r1, r0, sp, asr #13
    279c:	00011d1b 	andeq	r1, r1, fp, lsl sp
    27a0:	1d540100 	ldfnee	f0, [r4, #-0]
    27a4:	000090c0 	andeq	r9, r0, r0, asr #1
    27a8:	00000004 	andeq	r0, r0, r4
    27ac:	0001321e 	andeq	r3, r1, lr, lsl r2
    27b0:	0016ef00 	andseq	lr, r6, r0, lsl #30
    27b4:	1f000000 	svcne	0x00000000
    27b8:	000090c0 	andeq	r9, r0, r0, asr #1
    27bc:	00001131 	andeq	r1, r0, r1, lsr r1
    27c0:	04510120 	ldrbeq	r0, [r1], #-288	; 0x120
    27c4:	1a340077 	bne	d029a8 <__bss_end__+0xcf0488>
    27c8:	02500120 	subseq	r0, r0, #32, 2
    27cc:	00000076 	andeq	r0, r0, r6, ror r0
    27d0:	00013f19 	andeq	r3, r1, r9, lsl pc
    27d4:	0090d400 	addseq	sp, r0, r0, lsl #8
    27d8:	00001c00 	andeq	r1, r0, r0, lsl #24
    27dc:	90190100 	andsls	r0, r9, r0, lsl #2
    27e0:	1a000004 	bne	27f8 <_start-0x5808>
    27e4:	0000016a 	andeq	r0, r0, sl, ror #2
    27e8:	00001702 	andeq	r1, r0, r2, lsl #14
    27ec:	00015f1b 	andeq	r5, r1, fp, lsl pc
    27f0:	1b540100 	blne	1502bf8 <__bss_end__+0x14f06d8>
    27f4:	00000156 	andeq	r0, r0, r6, asr r1
    27f8:	38007708 	stmdacc	r0, {r3, r8, r9, sl, ip, sp, lr}
    27fc:	1aff081a 	bne	fffc486c <__bss_end__+0xfffb234c>
    2800:	014b1b9f 			; <UNDEFINED> instruction: 0x014b1b9f
    2804:	56010000 	strpl	r0, [r1], -r0
    2808:	00011119 	andeq	r1, r1, r9, lsl r1
    280c:	0090e000 	addseq	lr, r0, r0
    2810:	00001000 	andeq	r1, r0, r0
    2814:	771a0200 	ldrvc	r0, [sl, -r0, lsl #4]
    2818:	1a000004 	bne	2830 <_start-0x57d0>
    281c:	00000128 	andeq	r0, r0, r8, lsr #2
    2820:	00001727 	andeq	r1, r0, r7, lsr #14
    2824:	00011d1b 	andeq	r1, r1, fp, lsl sp
    2828:	1d540100 	ldfnee	f0, [r4, #-0]
    282c:	000090e0 	andeq	r9, r0, r0, ror #1
    2830:	00000004 	andeq	r0, r0, r4
    2834:	0001321e 	andeq	r3, r1, lr, lsl r2
    2838:	00174c00 	andseq	r4, r7, r0, lsl #24
    283c:	1f000000 	svcne	0x00000000
    2840:	000090e0 	andeq	r9, r0, r0, ror #1
    2844:	00001131 	andeq	r1, r0, r1, lsr r1
    2848:	04510120 	ldrbeq	r0, [r1], #-288	; 0x120
    284c:	1a380077 	bne	e02a30 <__bss_end__+0xdf0510>
    2850:	02500120 	subseq	r0, r0, #32, 2
    2854:	00000076 	andeq	r0, r0, r6, ror r0
    2858:	00013f19 	andeq	r3, r1, r9, lsl pc
    285c:	0090f400 	addseq	pc, r0, r0, lsl #8
    2860:	00001c00 	andeq	r1, r0, r0, lsl #24
    2864:	181b0100 	ldmdane	fp, {r8}
    2868:	1a000005 	bne	2884 <_start-0x577c>
    286c:	0000016a 	andeq	r0, r0, sl, ror #2
    2870:	0000175f 	andeq	r1, r0, pc, asr r7
    2874:	00015f1b 	andeq	r5, r1, fp, lsl pc
    2878:	1b540100 	blne	1502c80 <__bss_end__+0x14f0760>
    287c:	00000156 	andeq	r0, r0, r6, asr r1
    2880:	40007708 	andmi	r7, r0, r8, lsl #14
    2884:	1aff081a 	bne	fffc48f4 <__bss_end__+0xfffb23d4>
    2888:	014b1b9f 			; <UNDEFINED> instruction: 0x014b1b9f
    288c:	56010000 	strpl	r0, [r1], -r0
    2890:	00011119 	andeq	r1, r1, r9, lsl r1
    2894:	00910000 	addseq	r0, r1, r0
    2898:	00001000 	andeq	r1, r0, r0
    289c:	ff1a0200 			; <UNDEFINED> instruction: 0xff1a0200
    28a0:	1a000004 	bne	28b8 <_start-0x5748>
    28a4:	00000128 	andeq	r0, r0, r8, lsr #2
    28a8:	00001786 	andeq	r1, r0, r6, lsl #15
    28ac:	00011d1b 	andeq	r1, r1, fp, lsl sp
    28b0:	1d540100 	ldfnee	f0, [r4, #-0]
    28b4:	00009100 	andeq	r9, r0, r0, lsl #2
    28b8:	00000004 	andeq	r0, r0, r4
    28bc:	0001321e 	andeq	r3, r1, lr, lsl r2
    28c0:	0017ad00 	andseq	sl, r7, r0, lsl #26
    28c4:	1f000000 	svcne	0x00000000
    28c8:	00009100 	andeq	r9, r0, r0, lsl #2
    28cc:	00001131 	andeq	r1, r0, r1, lsr r1
    28d0:	04510120 	ldrbeq	r0, [r1], #-288	; 0x120
    28d4:	1a400077 	bne	1002ab8 <__bss_end__+0xff0598>
    28d8:	02500120 	subseq	r0, r0, #32, 2
    28dc:	00000076 	andeq	r0, r0, r6, ror r0
    28e0:	00013f19 	andeq	r3, r1, r9, lsl pc
    28e4:	00911400 	addseq	r1, r1, r0, lsl #8
    28e8:	00001c00 	andeq	r1, r0, r0, lsl #24
    28ec:	a21d0100 	andsge	r0, sp, #0, 2
    28f0:	1a000005 	bne	290c <_start-0x56f4>
    28f4:	0000016a 	andeq	r0, r0, sl, ror #2
    28f8:	000017c0 	andeq	r1, r0, r0, asr #15
    28fc:	00015f1b 	andeq	r5, r1, fp, lsl pc
    2900:	1b540100 	blne	1502d08 <__bss_end__+0x14f07e8>
    2904:	00000156 	andeq	r0, r0, r6, asr r1
    2908:	08007709 	stmdaeq	r0, {r0, r3, r8, r9, sl, ip, sp, lr}
    290c:	ff081a20 			; <UNDEFINED> instruction: 0xff081a20
    2910:	4b1b9f1a 	blmi	6ea580 <__bss_end__+0x6d8060>
    2914:	01000001 	tsteq	r0, r1
    2918:	01111956 	tsteq	r1, r6, asr r9
    291c:	91200000 	teqls	r0, r0
    2920:	00100000 	andseq	r0, r0, r0
    2924:	1a020000 	bne	8292c <__bss_end__+0x7040c>
    2928:	00000588 	andeq	r0, r0, r8, lsl #11
    292c:	0001281a 	andeq	r2, r1, sl, lsl r8
    2930:	0017ea00 	andseq	lr, r7, r0, lsl #20
    2934:	011d1b00 	tsteq	sp, r0, lsl #22
    2938:	54010000 	strpl	r0, [r1], #-0
    293c:	0091201d 	addseq	r2, r1, sp, lsl r0
    2940:	00000400 	andeq	r0, r0, r0, lsl #8
    2944:	01321e00 	teqeq	r2, r0, lsl #28
    2948:	18140000 	ldmdane	r4, {}	; <UNPREDICTABLE>
    294c:	00000000 	andeq	r0, r0, r0
    2950:	0091201f 	addseq	r2, r1, pc, lsl r0
    2954:	00113100 	andseq	r3, r1, r0, lsl #2
    2958:	51012000 	mrspl	r2, (UNDEF: 1)
    295c:	08007705 	stmdaeq	r0, {r0, r2, r8, r9, sl, ip, sp, lr}
    2960:	01201a20 	teqeq	r0, r0, lsr #20
    2964:	00760250 	rsbseq	r0, r6, r0, asr r2
    2968:	3f190000 	svccc	0x00190000
    296c:	34000001 	strcc	r0, [r0], #-1
    2970:	1c000091 	stcne	0, cr0, [r0], {145}	; 0x91
    2974:	01000000 	mrseq	r0, (UNDEF: 0)
    2978:	00062c1f 	andeq	r2, r6, pc, lsl ip
    297c:	016a1a00 	cmneq	sl, r0, lsl #20
    2980:	18270000 	stmdane	r7!, {}	; <UNPREDICTABLE>
    2984:	5f1b0000 	svcpl	0x001b0000
    2988:	01000001 	tsteq	r0, r1
    298c:	01561b54 	cmpeq	r6, r4, asr fp
    2990:	77090000 	strvc	r0, [r9, -r0]
    2994:	1a400800 	bne	100499c <__bss_end__+0xff247c>
    2998:	9f1aff08 	svcls	0x001aff08
    299c:	00014b1b 	andeq	r4, r1, fp, lsl fp
    29a0:	19560100 	ldmdbne	r6, {r8}^
    29a4:	00000111 	andeq	r0, r0, r1, lsl r1
    29a8:	00009140 	andeq	r9, r0, r0, asr #2
    29ac:	00000010 	andeq	r0, r0, r0, lsl r0
    29b0:	06121a02 	ldreq	r1, [r2], -r2, lsl #20
    29b4:	281a0000 	ldmdacs	sl, {}	; <UNPREDICTABLE>
    29b8:	49000001 	stmdbmi	r0, {r0}
    29bc:	1b000018 	blne	2a24 <_start-0x55dc>
    29c0:	0000011d 	andeq	r0, r0, sp, lsl r1
    29c4:	401d5401 	andsmi	r5, sp, r1, lsl #8
    29c8:	04000091 	streq	r0, [r0], #-145	; 0x91
    29cc:	1e000000 	cdpne	0, 0, cr0, cr0, cr0, {0}
    29d0:	00000132 	andeq	r0, r0, r2, lsr r1
    29d4:	0000186b 	andeq	r1, r0, fp, ror #16
    29d8:	401f0000 	andsmi	r0, pc, r0
    29dc:	31000091 	swpcc	r0, r1, [r0]	; <UNPREDICTABLE>
    29e0:	20000011 	andcs	r0, r0, r1, lsl r0
    29e4:	77055101 	strvc	r5, [r5, -r1, lsl #2]
    29e8:	1a400800 	bne	10049f0 <__bss_end__+0xff24d0>
    29ec:	02500120 	subseq	r0, r0, #32, 2
    29f0:	00000076 	andeq	r0, r0, r6, ror r0
    29f4:	00013f19 	andeq	r3, r1, r9, lsl pc
    29f8:	00915400 	addseq	r5, r1, r0, lsl #8
    29fc:	00001c00 	andeq	r1, r0, r0, lsl #24
    2a00:	ac210100 	stfges	f0, [r1], #-0
    2a04:	1b000006 	blne	2a24 <_start-0x55dc>
    2a08:	0000016a 	andeq	r0, r0, sl, ror #2
    2a0c:	5f1b5801 	svcpl	0x001b5801
    2a10:	01000001 	tsteq	r0, r1
    2a14:	01561a54 	cmpeq	r6, r4, asr sl
    2a18:	187e0000 	ldmdane	lr!, {}^	; <UNPREDICTABLE>
    2a1c:	4b1b0000 	blmi	6c2a24 <__bss_end__+0x6b0504>
    2a20:	01000001 	tsteq	r0, r1
    2a24:	01111956 	tsteq	r1, r6, asr r9
    2a28:	91600000 	cmnls	r0, r0
    2a2c:	00100000 	andseq	r0, r0, r0
    2a30:	1a020000 	bne	82a38 <__bss_end__+0x70518>
    2a34:	00000692 	muleq	r0, r2, r6
    2a38:	0001281b 	andeq	r2, r1, fp, lsl r8
    2a3c:	1b580100 	blne	1602e44 <__bss_end__+0x15f0924>
    2a40:	0000011d 	andeq	r0, r0, sp, lsl r1
    2a44:	601d5401 	andsvs	r5, sp, r1, lsl #8
    2a48:	04000091 	streq	r0, [r0], #-145	; 0x91
    2a4c:	1e000000 	cdpne	0, 0, cr0, cr0, cr0, {0}
    2a50:	00000132 	andeq	r0, r0, r2, lsr r1
    2a54:	000018b1 			; <UNDEFINED> instruction: 0x000018b1
    2a58:	601f0000 	andsvs	r0, pc, r0
    2a5c:	31000091 	swpcc	r0, r1, [r0]	; <UNPREDICTABLE>
    2a60:	20000011 	andcs	r0, r0, r1, lsl r0
    2a64:	77055101 	strvc	r5, [r5, -r1, lsl #2]
    2a68:	1a800800 	bne	fe004a70 <__bss_end__+0xfdff2550>
    2a6c:	02500120 	subseq	r0, r0, #32, 2
    2a70:	00000076 	andeq	r0, r0, r6, ror r0
    2a74:	00013f21 	andeq	r3, r1, r1, lsr #30
    2a78:	00917400 	addseq	r7, r1, r0, lsl #8
    2a7c:	00001c00 	andeq	r1, r0, r0, lsl #24
    2a80:	1b230100 	blne	8c2e88 <__bss_end__+0x8b0968>
    2a84:	0000016a 	andeq	r0, r0, sl, ror #2
    2a88:	5f1b5501 	svcpl	0x001b5501
    2a8c:	01000001 	tsteq	r0, r1
    2a90:	01561c54 	cmpeq	r6, r4, asr ip
    2a94:	1b010000 	blne	42a9c <__bss_end__+0x3057c>
    2a98:	0000014b 	andeq	r0, r0, fp, asr #2
    2a9c:	11195601 	tstne	r9, r1, lsl #12
    2aa0:	80000001 	andhi	r0, r0, r1
    2aa4:	10000091 	mulne	r0, r1, r0
    2aa8:	02000000 	andeq	r0, r0, #0
    2aac:	00070b1a 	andeq	r0, r7, sl, lsl fp
    2ab0:	01281b00 	teqeq	r8, r0, lsl #22
    2ab4:	55010000 	strpl	r0, [r1, #-0]
    2ab8:	00011d1b 	andeq	r1, r1, fp, lsl sp
    2abc:	1d540100 	ldfnee	f0, [r4, #-0]
    2ac0:	00009180 	andeq	r9, r0, r0, lsl #3
    2ac4:	00000004 	andeq	r0, r0, r4
    2ac8:	0001321e 	andeq	r3, r1, lr, lsl r2
    2acc:	0018c400 	andseq	ip, r8, r0, lsl #8
    2ad0:	1f000000 	svcne	0x00000000
    2ad4:	00009180 	andeq	r9, r0, r0, lsl #3
    2ad8:	00001131 	andeq	r1, r0, r1, lsr r1
    2adc:	01510120 	cmpeq	r1, r0, lsr #2
    2ae0:	50012031 	andpl	r2, r1, r1, lsr r0
    2ae4:	00007602 	andeq	r7, r0, r2, lsl #12
    2ae8:	04060000 	streq	r0, [r6], #-0
    2aec:	000000d9 	ldrdeq	r0, [r0], -r9
    2af0:	000a0822 	andeq	r0, sl, r2, lsr #16
    2af4:	25270100 	strcs	r0, [r7, #-256]!	; 0x100
    2af8:	03000000 	movweq	r0, #0
    2afc:	00000762 	andeq	r0, r0, r2, ror #14
    2b00:	0078720f 	rsbseq	r7, r8, pc, lsl #4
    2b04:	00252701 	eoreq	r2, r5, r1, lsl #14
    2b08:	760f0000 	strvc	r0, [pc], -r0
    2b0c:	25270100 	strcs	r0, [r7, #-256]!	; 0x100
    2b10:	0e000000 	cdpeq	0, 0, cr0, cr0, cr0, {0}
    2b14:	00000990 	muleq	r0, r0, r9
    2b18:	002c2701 	eoreq	r2, ip, r1, lsl #14
    2b1c:	d3110000 	tstle	r1, #0
    2b20:	01000005 	tsteq	r0, r5
    2b24:	00002c28 	andeq	r2, r0, r8, lsr #24
    2b28:	31230000 	teqcc	r3, r0
    2b2c:	01000009 	tsteq	r0, r9
    2b30:	00002534 	andeq	r2, r0, r4, lsr r5
    2b34:	00919400 	addseq	r9, r1, r0, lsl #8
    2b38:	0001c800 	andeq	ip, r1, r0, lsl #16
    2b3c:	1e9c0100 	fmlnee	f0, f4, f0
    2b40:	1300000b 	movwne	r0, #11
    2b44:	00000586 	andeq	r0, r0, r6, lsl #11
    2b48:	07223401 	streq	r3, [r2, -r1, lsl #8]!
    2b4c:	18d70000 	ldmne	r7, {}^	; <UNPREDICTABLE>
    2b50:	90130000 	andsls	r0, r3, r0
    2b54:	01000009 	tsteq	r0, r9
    2b58:	00002534 	andeq	r2, r0, r4, lsr r5
    2b5c:	00191c00 	andseq	r1, r9, r0, lsl #24
    2b60:	78721500 	ldmdavc	r2!, {r8, sl, ip}^
    2b64:	25350100 	ldrcs	r0, [r5, #-256]!	; 0x100
    2b68:	01000000 	mrseq	r0, (UNDEF: 0)
    2b6c:	00731655 	rsbseq	r1, r3, r5, asr r6
    2b70:	002c3c01 	eoreq	r3, ip, r1, lsl #24
    2b74:	193a0000 	ldmdbne	sl!, {}	; <UNPREDICTABLE>
    2b78:	75160000 	ldrvc	r0, [r6, #-0]
    2b7c:	683f0100 	ldmdavs	pc!, {r8}	; <UNPREDICTABLE>
    2b80:	4d000000 	stcmi	0, cr0, [r0, #-0]
    2b84:	16000019 			; <UNDEFINED> instruction: 0x16000019
    2b88:	4001006e 	andmi	r0, r1, lr, rrx
    2b8c:	0000002c 	andeq	r0, r0, ip, lsr #32
    2b90:	00001960 	andeq	r1, r0, r0, ror #18
    2b94:	01006316 	tsteq	r0, r6, lsl r3
    2b98:	00002c41 	andeq	r2, r0, r1, asr #24
    2b9c:	00197700 	andseq	r7, r9, r0, lsl #14
    2ba0:	07281900 	streq	r1, [r8, -r0, lsl #18]!
    2ba4:	91a80000 			; <UNDEFINED> instruction: 0x91a80000
    2ba8:	00340000 	eorseq	r0, r4, r0
    2bac:	38010000 	stmdacc	r1, {}	; <UNPREDICTABLE>
    2bb0:	0000083c 	andeq	r0, r0, ip, lsr r8
    2bb4:	00074b1a 	andeq	r4, r7, sl, lsl fp
    2bb8:	0019a100 	andseq	sl, r9, r0, lsl #2
    2bbc:	07421c00 	strbeq	r1, [r2, -r0, lsl #24]
    2bc0:	1b000000 	blne	2bc8 <_start-0x5438>
    2bc4:	00000738 	andeq	r0, r0, r8, lsr r7
    2bc8:	a81d5501 	ldmdage	sp, {r0, r8, sl, ip, lr}
    2bcc:	34000091 	strcc	r0, [r0], #-145	; 0x91
    2bd0:	1e000000 	cdpne	0, 0, cr0, cr0, cr0, {0}
    2bd4:	00000756 	andeq	r0, r0, r6, asr r7
    2bd8:	000019bf 			; <UNDEFINED> instruction: 0x000019bf
    2bdc:	0091ac24 	addseq	sl, r1, r4, lsr #24
    2be0:	00114700 	andseq	r4, r1, r0, lsl #14
    2be4:	91b82500 			; <UNDEFINED> instruction: 0x91b82500
    2be8:	11520000 	cmpne	r2, r0
    2bec:	08310000 	ldmdaeq	r1!, {}	; <UNPREDICTABLE>
    2bf0:	01200000 	teqeq	r0, r0
    2bf4:	00750250 	rsbseq	r0, r5, r0, asr r2
    2bf8:	91c42400 	bicls	r2, r4, r0, lsl #8
    2bfc:	11470000 	mrsne	r0, (UNDEF: 71)
    2c00:	00000000 	andeq	r0, r0, r0
    2c04:	0091e417 	addseq	lr, r1, r7, lsl r4
    2c08:	00000400 	andeq	r0, r0, r0, lsl #8
    2c0c:	00085900 	andeq	r5, r8, r0, lsl #18
    2c10:	09d82600 	ldmibeq	r8, {r9, sl, sp}^
    2c14:	3c010000 	stccc	0, cr0, [r1], {-0}
    2c18:	0000002c 	andeq	r0, r0, ip, lsr #32
    2c1c:	000019dd 	ldrdeq	r1, [r0], -sp
    2c20:	01111900 	tsteq	r1, r0, lsl #18
    2c24:	91f00000 	mvnsls	r0, r0
    2c28:	00100000 	andseq	r0, r0, r0
    2c2c:	44010000 	strmi	r0, [r1], #-0
    2c30:	00000892 	muleq	r0, r2, r8
    2c34:	0001281a 	andeq	r2, r1, sl, lsl r8
    2c38:	0019f000 	andseq	pc, r9, r0
    2c3c:	011d1a00 	tsteq	sp, r0, lsl #20
    2c40:	1a150000 	bne	542c48 <__bss_end__+0x530728>
    2c44:	f01d0000 			; <UNDEFINED> instruction: 0xf01d0000
    2c48:	04000091 	streq	r0, [r0], #-145	; 0x91
    2c4c:	1e000000 	cdpne	0, 0, cr0, cr0, cr0, {0}
    2c50:	00000132 	andeq	r0, r0, r2, lsr r1
    2c54:	00001a28 	andeq	r1, r0, r8, lsr #20
    2c58:	11190000 	tstne	r9, r0
    2c5c:	10000001 	andne	r0, r0, r1
    2c60:	10000092 	mulne	r0, r2, r0
    2c64:	01000000 	mrseq	r0, (UNDEF: 0)
    2c68:	0008cb48 	andeq	ip, r8, r8, asr #22
    2c6c:	01281a00 	teqeq	r8, r0, lsl #20
    2c70:	1a3b0000 	bne	ec2c78 <__bss_end__+0xeb0758>
    2c74:	1d1a0000 	ldcne	0, cr0, [sl, #-0]
    2c78:	4e000001 	cdpmi	0, 0, cr0, cr0, cr1, {0}
    2c7c:	1d00001a 	stcne	0, cr0, [r0, #-104]	; 0xffffff98
    2c80:	00009210 	andeq	r9, r0, r0, lsl r2
    2c84:	00000004 	andeq	r0, r0, r4
    2c88:	0001321e 	andeq	r3, r1, lr, lsl r2
    2c8c:	001a6100 	andseq	r6, sl, r0, lsl #2
    2c90:	19000000 	stmdbne	r0, {}	; <UNPREDICTABLE>
    2c94:	00000111 	andeq	r0, r0, r1, lsl r1
    2c98:	00009234 	andeq	r9, r0, r4, lsr r2
    2c9c:	00000010 	andeq	r0, r0, r0, lsl r0
    2ca0:	09044b01 	stmdbeq	r4, {r0, r8, r9, fp, lr}
    2ca4:	281a0000 	ldmdacs	sl, {}	; <UNPREDICTABLE>
    2ca8:	74000001 	strvc	r0, [r0], #-1
    2cac:	1a00001a 	bne	2d1c <_start-0x52e4>
    2cb0:	0000011d 	andeq	r0, r0, sp, lsl r1
    2cb4:	00001a87 	andeq	r1, r0, r7, lsl #21
    2cb8:	0092341d 	addseq	r3, r2, sp, lsl r4
    2cbc:	00000400 	andeq	r0, r0, r0, lsl #8
    2cc0:	01321e00 	teqeq	r2, r0, lsl #28
    2cc4:	1a9a0000 	bne	fe682ccc <__bss_end__+0xfe6707ac>
    2cc8:	00000000 	andeq	r0, r0, r0
    2ccc:	00011119 	andeq	r1, r1, r9, lsl r1
    2cd0:	00925800 	addseq	r5, r2, r0, lsl #16
    2cd4:	00001000 	andeq	r1, r0, r0
    2cd8:	3d4e0100 	stfcce	f0, [lr, #-0]
    2cdc:	1a000009 	bne	2d08 <_start-0x52f8>
    2ce0:	00000128 	andeq	r0, r0, r8, lsr #2
    2ce4:	00001aad 	andeq	r1, r0, sp, lsr #21
    2ce8:	00011d1a 	andeq	r1, r1, sl, lsl sp
    2cec:	001ac000 	andseq	ip, sl, r0
    2cf0:	92581d00 	subsls	r1, r8, #0, 26
    2cf4:	00040000 	andeq	r0, r4, r0
    2cf8:	321e0000 	andscc	r0, lr, #0
    2cfc:	d3000001 	movwle	r0, #1
    2d00:	0000001a 	andeq	r0, r0, sl, lsl r0
    2d04:	01111900 	tsteq	r1, r0, lsl #18
    2d08:	927c0000 	rsbsls	r0, ip, #0
    2d0c:	00100000 	andseq	r0, r0, r0
    2d10:	51010000 	mrspl	r0, (UNDEF: 1)
    2d14:	00000976 	andeq	r0, r0, r6, ror r9
    2d18:	0001281a 	andeq	r2, r1, sl, lsl r8
    2d1c:	001ae600 	andseq	lr, sl, r0, lsl #12
    2d20:	011d1a00 	tsteq	sp, r0, lsl #20
    2d24:	1af90000 	bne	ffe42d2c <__bss_end__+0xffe3080c>
    2d28:	7c1d0000 	ldcvc	0, cr0, [sp], {-0}
    2d2c:	04000092 	streq	r0, [r0], #-146	; 0x92
    2d30:	1e000000 	cdpne	0, 0, cr0, cr0, cr0, {0}
    2d34:	00000132 	andeq	r0, r0, r2, lsr r1
    2d38:	00001b0c 	andeq	r1, r0, ip, lsl #22
    2d3c:	11190000 	tstne	r9, r0
    2d40:	a0000001 	andge	r0, r0, r1
    2d44:	10000092 	mulne	r0, r2, r0
    2d48:	01000000 	mrseq	r0, (UNDEF: 0)
    2d4c:	0009af54 	andeq	sl, r9, r4, asr pc
    2d50:	01281a00 	teqeq	r8, r0, lsl #20
    2d54:	1b1f0000 	blne	7c2d5c <__bss_end__+0x7b083c>
    2d58:	1d1a0000 	ldcne	0, cr0, [sl, #-0]
    2d5c:	32000001 	andcc	r0, r0, #1
    2d60:	1d00001b 	stcne	0, cr0, [r0, #-108]	; 0xffffff94
    2d64:	000092a0 	andeq	r9, r0, r0, lsr #5
    2d68:	00000004 	andeq	r0, r0, r4
    2d6c:	0001321e 	andeq	r3, r1, lr, lsl r2
    2d70:	001b4500 	andseq	r4, fp, r0, lsl #10
    2d74:	19000000 	stmdbne	r0, {}	; <UNPREDICTABLE>
    2d78:	00000111 	andeq	r0, r0, r1, lsl r1
    2d7c:	000092c4 	andeq	r9, r0, r4, asr #5
    2d80:	00000010 	andeq	r0, r0, r0, lsl r0
    2d84:	09e85701 	stmibeq	r8!, {r0, r8, r9, sl, ip, lr}^
    2d88:	281a0000 	ldmdacs	sl, {}	; <UNPREDICTABLE>
    2d8c:	58000001 	stmdapl	r0, {r0}
    2d90:	1a00001b 	bne	2e04 <_start-0x51fc>
    2d94:	0000011d 	andeq	r0, r0, sp, lsl r1
    2d98:	00001b6b 	andeq	r1, r0, fp, ror #22
    2d9c:	0092c41d 	addseq	ip, r2, sp, lsl r4
    2da0:	00000400 	andeq	r0, r0, r0, lsl #8
    2da4:	01321e00 	teqeq	r2, r0, lsl #28
    2da8:	1b7e0000 	blne	1f82db0 <__bss_end__+0x1f70890>
    2dac:	00000000 	andeq	r0, r0, r0
    2db0:	00011119 	andeq	r1, r1, r9, lsl r1
    2db4:	0092e800 	addseq	lr, r2, r0, lsl #16
    2db8:	00001000 	andeq	r1, r0, r0
    2dbc:	1d5a0100 	ldfnee	f0, [sl, #-0]
    2dc0:	1a00000a 	bne	2df0 <_start-0x5210>
    2dc4:	00000128 	andeq	r0, r0, r8, lsr #2
    2dc8:	00001b91 	muleq	r0, r1, fp
    2dcc:	00011d27 	andeq	r1, r1, r7, lsr #26
    2dd0:	92e81d00 	rscls	r1, r8, #0, 26
    2dd4:	00040000 	andeq	r0, r4, r0
    2dd8:	321e0000 	andscc	r0, lr, #0
    2ddc:	a4000001 	strge	r0, [r0], #-1
    2de0:	0000001b 	andeq	r0, r0, fp, lsl r0
    2de4:	07281900 	streq	r1, [r8, -r0, lsl #18]!
    2de8:	93080000 	movwls	r0, #32768	; 0x8000
    2dec:	00340000 	eorseq	r0, r4, r0
    2df0:	61010000 	mrsvs	r0, (UNDEF: 1)
    2df4:	00000a81 	andeq	r0, r0, r1, lsl #21
    2df8:	00074b27 	andeq	r4, r7, r7, lsr #22
    2dfc:	07421a00 	strbeq	r1, [r2, -r0, lsl #20]
    2e00:	1bb70000 	blne	fedc2e08 <__bss_end__+0xfedb08e8>
    2e04:	381a0000 	ldmdacc	sl, {}	; <UNPREDICTABLE>
    2e08:	d7000007 	strle	r0, [r0, -r7]
    2e0c:	1d00001b 	stcne	0, cr0, [r0, #-108]	; 0xffffff94
    2e10:	00009308 	andeq	r9, r0, r8, lsl #6
    2e14:	00000034 	andeq	r0, r0, r4, lsr r0
    2e18:	0007561e 	andeq	r5, r7, lr, lsl r6
    2e1c:	001bf500 	andseq	pc, fp, r0, lsl #10
    2e20:	930c2400 	movwls	r2, #50176	; 0xc400
    2e24:	11470000 	mrsne	r0, (UNDEF: 71)
    2e28:	18250000 	stmdane	r5!, {}	; <UNPREDICTABLE>
    2e2c:	52000093 	andpl	r0, r0, #147	; 0x93
    2e30:	76000011 			; <UNDEFINED> instruction: 0x76000011
    2e34:	2000000a 	andcs	r0, r0, sl
    2e38:	75025001 	strvc	r5, [r2, #-1]
    2e3c:	24240000 	strtcs	r0, [r4], #-0
    2e40:	47000093 			; <UNDEFINED> instruction: 0x47000093
    2e44:	00000011 	andeq	r0, r0, r1, lsl r0
    2e48:	920c2500 	andls	r2, ip, #0, 10
    2e4c:	11520000 	cmpne	r2, r0
    2e50:	0a950000 	beq	fe542e58 <__bss_end__+0xfe530938>
    2e54:	01200000 	teqeq	r0, r0
    2e58:	00750250 	rsbseq	r0, r5, r0, asr r2
    2e5c:	922c2500 	eorls	r2, ip, #0, 10
    2e60:	11520000 	cmpne	r2, r0
    2e64:	0aa90000 	beq	fea42e6c <__bss_end__+0xfea3094c>
    2e68:	01200000 	teqeq	r0, r0
    2e6c:	00750250 	rsbseq	r0, r5, r0, asr r2
    2e70:	92502500 	subsls	r2, r0, #0, 10
    2e74:	11520000 	cmpne	r2, r0
    2e78:	0abd0000 	beq	fef42e80 <__bss_end__+0xfef30960>
    2e7c:	01200000 	teqeq	r0, r0
    2e80:	00750250 	rsbseq	r0, r5, r0, asr r2
    2e84:	92742500 	rsbsls	r2, r4, #0, 10
    2e88:	11520000 	cmpne	r2, r0
    2e8c:	0ad10000 	beq	ff442e94 <__bss_end__+0xff430974>
    2e90:	01200000 	teqeq	r0, r0
    2e94:	00750250 	rsbseq	r0, r5, r0, asr r2
    2e98:	92982500 	addsls	r2, r8, #0, 10
    2e9c:	11520000 	cmpne	r2, r0
    2ea0:	0ae50000 	beq	ff942ea8 <__bss_end__+0xff930988>
    2ea4:	01200000 	teqeq	r0, r0
    2ea8:	00750250 	rsbseq	r0, r5, r0, asr r2
    2eac:	92bc2500 	adcsls	r2, ip, #0, 10
    2eb0:	11520000 	cmpne	r2, r0
    2eb4:	0af90000 	beq	ffe42ebc <__bss_end__+0xffe3099c>
    2eb8:	01200000 	teqeq	r0, r0
    2ebc:	00750250 	rsbseq	r0, r5, r0, asr r2
    2ec0:	92e02500 	rscls	r2, r0, #0, 10
    2ec4:	11520000 	cmpne	r2, r0
    2ec8:	0b0d0000 	bleq	342ed0 <__bss_end__+0x3309b0>
    2ecc:	01200000 	teqeq	r0, r0
    2ed0:	00750250 	rsbseq	r0, r5, r0, asr r2
    2ed4:	93001f00 	movwls	r1, #3840	; 0xf00
    2ed8:	11520000 	cmpne	r2, r0
    2edc:	01200000 	teqeq	r0, r0
    2ee0:	00750250 	rsbseq	r0, r5, r0, asr r2
    2ee4:	46230000 	strtmi	r0, [r3], -r0
    2ee8:	01000009 	tsteq	r0, r9
    2eec:	0000256c 	andeq	r2, r0, ip, ror #10
    2ef0:	00935c00 	addseq	r5, r3, r0, lsl #24
    2ef4:	00009000 	andeq	r9, r0, r0
    2ef8:	029c0100 	addseq	r0, ip, #0, 2
    2efc:	1400000c 	strne	r0, [r0], #-12
    2f00:	6c010075 	stcvs	0, cr0, [r1], {117}	; 0x75
    2f04:	00000722 	andeq	r0, r0, r2, lsr #14
    2f08:	00001c13 	andeq	r1, r0, r3, lsl ip
    2f0c:	66756214 			; <UNDEFINED> instruction: 0x66756214
    2f10:	026c0100 	rsbeq	r0, ip, #0, 2
    2f14:	4700000c 	strmi	r0, [r0, -ip]
    2f18:	1300001c 	movwne	r0, #28
    2f1c:	000009dd 	ldrdeq	r0, [r0], -sp
    2f20:	00686c01 	rsbeq	r6, r8, r1, lsl #24
    2f24:	1c7b0000 	ldclne	0, cr0, [fp], #-0
    2f28:	65140000 	ldrvs	r0, [r4, #-0]
    2f2c:	0100646e 	tsteq	r0, lr, ror #8
    2f30:	00004f6c 	andeq	r4, r0, ip, ror #30
    2f34:	001cb400 	andseq	fp, ip, r0, lsl #8
    2f38:	09e42800 	stmibeq	r4!, {fp, sp}^
    2f3c:	6c010000 	stcvs	0, cr0, [r1], {-0}
    2f40:	00000068 	andeq	r0, r0, r8, rrx
    2f44:	29009102 	stmdbcs	r0, {r1, r8, ip, pc}
    2f48:	00000106 	andeq	r0, r0, r6, lsl #2
    2f4c:	00000c18 	andeq	r0, r0, r8, lsl ip
    2f50:	9e240305 	cdpls	3, 2, cr0, cr4, cr5, {0}
    2f54:	69160000 	ldmdbvs	r6, {}	; <UNPREDICTABLE>
    2f58:	25700100 	ldrbcs	r0, [r0, #-256]!	; 0x100
    2f5c:	ee000000 	cdp	0, 0, cr0, cr0, cr0, {0}
    2f60:	2600001c 			; <UNDEFINED> instruction: 0x2600001c
    2f64:	000009bb 			; <UNDEFINED> instruction: 0x000009bb
    2f68:	004f7101 	subeq	r7, pc, r1, lsl #2
    2f6c:	1d0d0000 	stcne	0, cr0, [sp, #-0]
    2f70:	7c240000 	stcvc	0, cr0, [r4], #-0
    2f74:	67000093 			; <UNDEFINED> instruction: 0x67000093
    2f78:	25000011 	strcs	r0, [r0, #-17]
    2f7c:	00009390 	muleq	r0, r0, r3
    2f80:	0000116e 	andeq	r1, r0, lr, ror #2
    2f84:	00000be2 	andeq	r0, r0, r2, ror #23
    2f88:	02530120 	subseq	r0, r3, #32, 2
    2f8c:	01206d08 	teqeq	r0, r8, lsl #26
    2f90:	24030552 	strcs	r0, [r3], #-1362	; 0x552
    2f94:	2000009e 	mulcs	r0, lr, r0
    2f98:	03055101 	movweq	r5, #20737	; 0x5101
    2f9c:	00009eb8 			; <UNDEFINED> instruction: 0x00009eb8
    2fa0:	05500120 	ldrbeq	r0, [r0, #-288]	; 0x120
    2fa4:	009e9c03 	addseq	r9, lr, r3, lsl #24
    2fa8:	94240000 	strtls	r0, [r4], #-0
    2fac:	84000093 	strhi	r0, [r0], #-147	; 0x93
    2fb0:	1f000011 	svcne	0x00000011
    2fb4:	000093b0 			; <UNDEFINED> instruction: 0x000093b0
    2fb8:	00000762 	andeq	r0, r0, r2, ror #14
    2fbc:	02510120 	subseq	r0, r1, #32, 2
    2fc0:	0120007a 	teqeq	r0, sl, ror r0
    2fc4:	00780250 	rsbseq	r0, r8, r0, asr r2
    2fc8:	04060000 	streq	r0, [r6], #-0
    2fcc:	0000004f 	andeq	r0, r0, pc, asr #32
    2fd0:	0000902a 	andeq	r9, r0, sl, lsr #32
    2fd4:	000c1800 	andeq	r1, ip, r0, lsl #16
    2fd8:	00812b00 	addeq	r2, r1, r0, lsl #22
    2fdc:	00120000 	andseq	r0, r2, r0
    2fe0:	000c0807 	andeq	r0, ip, r7, lsl #16
    2fe4:	09c32300 	stmibeq	r3, {r8, r9, sp}^
    2fe8:	80010000 	andhi	r0, r1, r0
    2fec:	00000025 	andeq	r0, r0, r5, lsr #32
    2ff0:	000093ec 	andeq	r9, r0, ip, ror #7
    2ff4:	0000007c 	andeq	r0, r0, ip, ror r0
    2ff8:	0ce49c01 	stcleq	12, cr9, [r4], #4
    2ffc:	75140000 	ldrvc	r0, [r4, #-0]
    3000:	22800100 	addcs	r0, r0, #0, 2
    3004:	20000007 	andcs	r0, r0, r7
    3008:	1400001d 	strne	r0, [r0], #-29
    300c:	00667562 	rsbeq	r7, r6, r2, ror #10
    3010:	0c028001 	stceq	0, cr8, [r2], {1}
    3014:	1d540000 	ldclne	0, cr0, [r4, #-0]
    3018:	dd130000 	ldcle	0, cr0, [r3, #-0]
    301c:	01000009 	tsteq	r0, r9
    3020:	00006881 	andeq	r6, r0, r1, lsl #17
    3024:	001d8800 	andseq	r8, sp, r0, lsl #16
    3028:	09e41300 	stmibeq	r4!, {r8, r9, ip}^
    302c:	81010000 	mrshi	r0, (UNDEF: 1)
    3030:	00000068 	andeq	r0, r0, r8, rrx
    3034:	00001dc1 	andeq	r1, r0, r1, asr #27
    3038:	00010629 	andeq	r0, r1, r9, lsr #12
    303c:	000cf400 	andeq	pc, ip, r0, lsl #8
    3040:	38030500 	stmdacc	r3, {r8, sl}
    3044:	1600009e 			; <UNDEFINED> instruction: 0x1600009e
    3048:	86010069 	strhi	r0, [r1], -r9, rrx
    304c:	00000025 	andeq	r0, r0, r5, lsr #32
    3050:	00001df5 	strdeq	r1, [r0], -r5
    3054:	00940824 	addseq	r0, r4, r4, lsr #16
    3058:	00116700 	andseq	r6, r1, r0, lsl #14
    305c:	941c2500 	ldrls	r2, [ip], #-1280	; 0x500
    3060:	116e0000 	cmnne	lr, r0
    3064:	0cc40000 	stcleq	0, cr0, [r4], {0}
    3068:	01200000 	teqeq	r0, r0
    306c:	83080253 	movwhi	r0, #33363	; 0x8253
    3070:	05520120 	ldrbeq	r0, [r2, #-288]	; 0x120
    3074:	009e3803 	addseq	r3, lr, r3, lsl #16
    3078:	51012000 	mrspl	r2, (UNDEF: 1)
    307c:	9eb80305 	cdpls	3, 11, cr0, cr8, cr5, {0}
    3080:	01200000 	teqeq	r0, r0
    3084:	9c030550 	cfstr32ls	mvfx0, [r3], {80}	; 0x50
    3088:	0000009e 	muleq	r0, lr, r0
    308c:	00942024 	addseq	r2, r4, r4, lsr #32
    3090:	00118400 	andseq	r8, r1, r0, lsl #8
    3094:	943c1f00 	ldrtls	r1, [ip], #-3840	; 0xf00
    3098:	07620000 	strbeq	r0, [r2, -r0]!
    309c:	01200000 	teqeq	r0, r0
    30a0:	00780251 	rsbseq	r0, r8, r1, asr r2
    30a4:	02500120 	subseq	r0, r0, #32, 2
    30a8:	00000077 	andeq	r0, r0, r7, ror r0
    30ac:	0000902a 	andeq	r9, r0, sl, lsr #32
    30b0:	000cf400 	andeq	pc, ip, r0, lsl #8
    30b4:	00812b00 	addeq	r2, r1, r0, lsl #22
    30b8:	00140000 	andseq	r0, r4, r0
    30bc:	000ce407 	andeq	lr, ip, r7, lsl #8
    30c0:	097c2300 	ldmdbeq	ip!, {r8, r9, sp}^
    30c4:	93010000 	movwls	r0, #4096	; 0x1000
    30c8:	000000d9 	ldrdeq	r0, [r0], -r9
    30cc:	00009468 	andeq	r9, r0, r8, ror #8
    30d0:	000000c0 	andeq	r0, r0, r0, asr #1
    30d4:	0e149c01 	cdpeq	12, 1, cr9, cr4, cr1, {0}
    30d8:	74140000 	ldrvc	r0, [r4], #-0
    30dc:	93010078 	movwls	r0, #4216	; 0x1078
    30e0:	0000004f 	andeq	r0, r0, pc, asr #32
    30e4:	00001e14 	andeq	r1, r0, r4, lsl lr
    30e8:	00787214 	rsbseq	r7, r8, r4, lsl r2
    30ec:	004f9301 	subeq	r9, pc, r1, lsl #6
    30f0:	1e350000 	cdpne	0, 3, cr0, cr5, cr0, {0}
    30f4:	bf130000 	svclt	0x00130000
    30f8:	01000005 	tsteq	r0, r5
    30fc:	00006893 	muleq	r0, r3, r8
    3100:	001e5600 	andseq	r5, lr, r0, lsl #12
    3104:	09152800 	ldmdbeq	r5, {fp, sp}
    3108:	93010000 	movwls	r0, #4096	; 0x1000
    310c:	00000068 	andeq	r0, r0, r8, rrx
    3110:	2c009102 	stfcsd	f1, [r0], {2}
    3114:	007a686d 	rsbseq	r6, sl, sp, ror #16
    3118:	002c9b01 	eoreq	r9, ip, r1, lsl #22
    311c:	27000000 	strcs	r0, [r0, -r0]
    3120:	662629b9 			; <UNDEFINED> instruction: 0x662629b9
    3124:	01000009 	tsteq	r0, r9
    3128:	00002c9c 	muleq	r0, ip, ip
    312c:	001e7400 	andseq	r7, lr, r0, lsl #8
    3130:	01062900 	tsteq	r6, r0, lsl #18
    3134:	0e240000 	cdpeq	0, 2, cr0, cr4, cr0, {0}
    3138:	03050000 	movweq	r0, #20480	; 0x5000
    313c:	00009e50 	andeq	r9, r0, r0, asr lr
    3140:	00949017 	addseq	r9, r4, r7, lsl r0
    3144:	00000800 	andeq	r0, r0, r0, lsl #16
    3148:	000d9100 	andeq	r9, sp, r0, lsl #2
    314c:	6e692d00 	cdpvs	13, 6, cr2, cr9, cr0, {0}
    3150:	2c970100 	ldfcss	f0, [r7], {0}
    3154:	01000000 	mrseq	r0, (UNDEF: 0)
    3158:	94882500 	strls	r2, [r8], #1280	; 0x500
    315c:	118b0000 	orrne	r0, fp, r0
    3160:	0da50000 	stceq	0, cr0, [r5]
    3164:	01200000 	teqeq	r0, r0
    3168:	00760250 	rsbseq	r0, r6, r0, asr r2
    316c:	94902500 	ldrls	r2, [r0], #1280	; 0x500
    3170:	119c0000 	orrsne	r0, ip, r0
    3174:	0db90000 	ldceq	0, cr0, [r9]
    3178:	01200000 	teqeq	r0, r0
    317c:	00780250 	rsbseq	r0, r8, r0, asr r2
    3180:	94a42500 	strtls	r2, [r4], #1280	; 0x500
    3184:	11310000 	teqne	r1, r0
    3188:	0dd20000 	ldcleq	0, cr0, [r2]
    318c:	01200000 	teqeq	r0, r0
    3190:	20310151 	eorscs	r0, r1, r1, asr r1
    3194:	76025001 	strvc	r5, [r2], -r1
    3198:	e8240000 	stmda	r4!, {}	; <UNPREDICTABLE>
    319c:	67000094 			; <UNDEFINED> instruction: 0x67000094
    31a0:	25000011 	strcs	r0, [r0, #-17]
    31a4:	000094fc 	strdeq	r9, [r0], -ip
    31a8:	0000116e 	andeq	r1, r0, lr, ror #2
    31ac:	00000e0a 	andeq	r0, r0, sl, lsl #28
    31b0:	02530120 	subseq	r0, r3, #32, 2
    31b4:	01209d08 	teqeq	r0, r8, lsl #26
    31b8:	50030552 	andpl	r0, r3, r2, asr r5
    31bc:	2000009e 	mulcs	r0, lr, r0
    31c0:	03055101 	movweq	r5, #20737	; 0x5101
    31c4:	00009eb8 			; <UNDEFINED> instruction: 0x00009eb8
    31c8:	05500120 	ldrbeq	r0, [r0, #-288]	; 0x120
    31cc:	009ecc03 	addseq	ip, lr, r3, lsl #24
    31d0:	00240000 	eoreq	r0, r4, r0
    31d4:	84000095 	strhi	r0, [r0], #-149	; 0x95
    31d8:	00000011 	andeq	r0, r0, r1, lsl r0
    31dc:	0000902a 	andeq	r9, r0, sl, lsr #32
    31e0:	000e2400 	andeq	r2, lr, r0, lsl #8
    31e4:	00812b00 	addeq	r2, r1, r0, lsl #22
    31e8:	00130000 	andseq	r0, r3, r0
    31ec:	000e1407 	andeq	r1, lr, r7, lsl #8
    31f0:	09592300 	ldmdbeq	r9, {r8, r9, sp}^
    31f4:	a9010000 	stmdbge	r1, {}	; <UNPREDICTABLE>
    31f8:	00000025 	andeq	r0, r0, r5, lsr #32
    31fc:	00009528 	andeq	r9, r0, r8, lsr #10
    3200:	0000003c 	andeq	r0, r0, ip, lsr r0
    3204:	0ecc9c01 	cdpeq	12, 12, cr9, cr12, cr1, {0}
    3208:	86130000 	ldrhi	r0, [r3], -r0
    320c:	01000005 	tsteq	r0, r5
    3210:	000722a9 	andeq	r2, r7, r9, lsr #5
    3214:	001ea200 	andseq	sl, lr, r0, lsl #4
    3218:	65721600 	ldrbvs	r1, [r2, #-1536]!	; 0x600
    321c:	aa010073 	bge	433f0 <__bss_end__+0x30ed0>
    3220:	00000025 	andeq	r0, r0, r5, lsr #32
    3224:	00001ec3 	andeq	r1, r0, r3, asr #29
    3228:	00010629 	andeq	r0, r1, r9, lsr #12
    322c:	000edc00 	andeq	sp, lr, r0, lsl #24
    3230:	64030500 	strvs	r0, [r3], #-1280	; 0x500
    3234:	2500009e 	strcs	r0, [r0, #-158]	; 0x9e
    3238:	00009534 	andeq	r9, r0, r4, lsr r5
    323c:	00000762 	andeq	r0, r0, r2, ror #14
    3240:	00000e8a 	andeq	r0, r0, sl, lsl #29
    3244:	02510120 	subseq	r0, r1, #32, 2
    3248:	0120ff09 	msreq	LR_irq, r9
    324c:	01f30350 	mvnseq	r0, r0, asr r3
    3250:	40240050 	eormi	r0, r4, r0, asr r0
    3254:	67000095 			; <UNDEFINED> instruction: 0x67000095
    3258:	25000011 	strcs	r0, [r0, #-17]
    325c:	00009554 	andeq	r9, r0, r4, asr r5
    3260:	0000116e 	andeq	r1, r0, lr, ror #2
    3264:	00000ec2 	andeq	r0, r0, r2, asr #29
    3268:	02530120 	subseq	r0, r3, #32, 2
    326c:	0120ac08 	teqeq	r0, r8, lsl #24
    3270:	64030552 	strvs	r0, [r3], #-1362	; 0x552
    3274:	2000009e 	mulcs	r0, lr, r0
    3278:	03055101 	movweq	r5, #20737	; 0x5101
    327c:	00009eb8 			; <UNDEFINED> instruction: 0x00009eb8
    3280:	05500120 	ldrbeq	r0, [r0, #-288]	; 0x120
    3284:	009f1003 	addseq	r1, pc, r3
    3288:	58240000 	stmdapl	r4!, {}	; <UNPREDICTABLE>
    328c:	84000095 	strhi	r0, [r0], #-149	; 0x95
    3290:	00000011 	andeq	r0, r0, r1, lsl r0
    3294:	0000902a 	andeq	r9, r0, sl, lsr #32
    3298:	000edc00 	andeq	sp, lr, r0, lsl #24
    329c:	00812b00 	addeq	r2, r1, r0, lsl #22
    32a0:	000c0000 	andeq	r0, ip, r0
    32a4:	000ecc07 	andeq	ip, lr, r7, lsl #24
    32a8:	099d1200 	ldmibeq	sp, {r9, ip}
    32ac:	b0010000 	andlt	r0, r1, r0
    32b0:	00009564 	andeq	r9, r0, r4, ror #10
    32b4:	0000002c 	andeq	r0, r0, ip, lsr #32
    32b8:	0f259c01 	svceq	0x00259c01
    32bc:	86130000 	ldrhi	r0, [r3], -r0
    32c0:	01000005 	tsteq	r0, r5
    32c4:	000722b0 			; <UNDEFINED> instruction: 0x000722b0
    32c8:	001ed600 	andseq	sp, lr, r0, lsl #12
    32cc:	736d1400 	cmnvc	sp, #0, 8
    32d0:	b0010067 	andlt	r0, r1, r7, rrx
    32d4:	00000097 	muleq	r0, r7, r0
    32d8:	00001ef4 	strdeq	r1, [r0], -r4
    32dc:	00957c1f 	addseq	r7, r5, pc, lsl ip
    32e0:	00017600 	andeq	r7, r1, r0, lsl #12
    32e4:	50012000 	andpl	r2, r1, r0
    32e8:	00007502 	andeq	r7, r0, r2, lsl #10
    32ec:	058b2300 	streq	r2, [fp, #768]	; 0x300
    32f0:	b9010000 	stmdblt	r1, {}	; <UNPREDICTABLE>
    32f4:	00000025 	andeq	r0, r0, r5, lsr #32
    32f8:	00009590 	muleq	r0, r0, r5
    32fc:	00000084 	andeq	r0, r0, r4, lsl #1
    3300:	10199c01 	andsne	r9, r9, r1, lsl #24
    3304:	86130000 	ldrhi	r0, [r3], -r0
    3308:	01000005 	tsteq	r0, r5
    330c:	000722b9 			; <UNDEFINED> instruction: 0x000722b9
    3310:	001f1200 	andseq	r1, pc, r0, lsl #4
    3314:	6d662e00 	stclvs	14, cr2, [r6, #-0]
    3318:	b9010074 	stmdblt	r1, {r2, r4, r5, r6}
    331c:	00000097 	muleq	r0, r7, r0
    3320:	2f749102 	svccs	0x00749102
    3324:	66756215 			; <UNDEFINED> instruction: 0x66756215
    3328:	19ba0100 	ldmibne	sl!, {r8}
    332c:	03000010 	movweq	r0, #16
    3330:	187c9c91 	ldmdane	ip!, {r0, r4, r7, sl, fp, ip, pc}^
    3334:	0000043b 	andeq	r0, r0, fp, lsr r4
    3338:	0106bc01 	tsteq	r6, r1, lsl #24
    333c:	91030000 	mrsls	r0, (UNDEF: 3)
    3340:	73167c98 	tstvc	r6, #152, 24	; 0x9800
    3344:	be01007a 	mcrlt	0, 0, r0, cr1, cr10, {3}
    3348:	00000025 	andeq	r0, r0, r5, lsr #32
    334c:	00001f3e 	andeq	r1, r0, lr, lsr pc
    3350:	00010629 	andeq	r0, r1, r9, lsr #12
    3354:	00103a00 	andseq	r3, r0, r0, lsl #20
    3358:	74030500 	strvc	r0, [r3], #-1280	; 0x500
    335c:	2500009e 	strcs	r0, [r0, #-158]	; 0x9e
    3360:	000095b8 			; <UNDEFINED> instruction: 0x000095b8
    3364:	000011ad 	andeq	r1, r0, sp, lsr #3
    3368:	00000fc0 	andeq	r0, r0, r0, asr #31
    336c:	02530120 	subseq	r0, r3, #32, 2
    3370:	01205891 			; <UNDEFINED> instruction: 0x01205891
    3374:	54910352 	ldrpl	r0, [r1], #850	; 0x352
    3378:	51012006 	tstpl	r1, r6
    337c:	01cc0a03 	biceq	r0, ip, r3, lsl #20
    3380:	03500120 	cmpeq	r0, #32, 2
    3384:	007bfc91 			; <UNDEFINED> instruction: 0x007bfc91
    3388:	0095cc24 	addseq	ip, r5, r4, lsr #24
    338c:	00116700 	andseq	r6, r1, r0, lsl #14
    3390:	95e02500 	strbls	r2, [r0, #1280]!	; 0x500
    3394:	116e0000 	cmnne	lr, r0
    3398:	0ff80000 	svceq	0x00f80000
    339c:	01200000 	teqeq	r0, r0
    33a0:	c0080253 	andgt	r0, r8, r3, asr r2
    33a4:	05520120 	ldrbeq	r0, [r2, #-288]	; 0x120
    33a8:	009e7403 	addseq	r7, lr, r3, lsl #8
    33ac:	51012000 	mrspl	r2, (UNDEF: 1)
    33b0:	9eb80305 	cdpls	3, 11, cr0, cr8, cr5, {0}
    33b4:	01200000 	teqeq	r0, r0
    33b8:	48030550 	stmdami	r3, {r4, r6, r8, sl}
    33bc:	0000009f 	muleq	r0, pc, r0	; <UNPREDICTABLE>
    33c0:	0095e424 	addseq	lr, r5, r4, lsr #8
    33c4:	00118400 	andseq	r8, r1, r0, lsl #8
    33c8:	95f01f00 	ldrbls	r1, [r0, #3840]!	; 0xf00
    33cc:	0ee10000 	cdpeq	0, 14, cr0, cr1, cr0, {0}
    33d0:	01200000 	teqeq	r0, r0
    33d4:	fc910351 	ldc2	3, cr0, [r1], {81}	; 0x51
    33d8:	5001207b 	andpl	r2, r1, fp, ror r0
    33dc:	00007502 	andeq	r7, r0, r2, lsl #10
    33e0:	00902a00 	addseq	r2, r0, r0, lsl #20
    33e4:	102a0000 	eorne	r0, sl, r0
    33e8:	81300000 	teqhi	r0, r0
    33ec:	cb000000 	blgt	33f4 <_start-0x4c0c>
    33f0:	902a0001 	eorls	r0, sl, r1
    33f4:	3a000000 	bcc	33fc <_start-0x4c04>
    33f8:	2b000010 	blcs	3440 <_start-0x4bc0>
    33fc:	00000081 	andeq	r0, r0, r1, lsl #1
    3400:	2a07000e 	bcs	1c3440 <__bss_end__+0x1b0f20>
    3404:	23000010 	movwcs	r0, #16
    3408:	000009f1 	strdeq	r0, [r0], -r1
    340c:	0025c501 	eoreq	ip, r5, r1, lsl #10
    3410:	96140000 	ldrls	r0, [r4], -r0
    3414:	004c0000 	subeq	r0, ip, r0
    3418:	9c010000 	stcls	0, cr0, [r1], {-0}
    341c:	0000111c 	andeq	r1, r0, ip, lsl r1
    3420:	01007514 	tsteq	r0, r4, lsl r5
    3424:	000722c5 	andeq	r2, r7, r5, asr #5
    3428:	001f7d00 	andseq	r7, pc, r0, lsl #26
    342c:	75621400 	strbvc	r1, [r2, #-1024]!	; 0x400
    3430:	c5010066 	strgt	r0, [r1, #-102]	; 0x66
    3434:	00000c02 	andeq	r0, r0, r2, lsl #24
    3438:	00001f9e 	muleq	r0, lr, pc	; <UNPREDICTABLE>
    343c:	0009dd13 	andeq	sp, r9, r3, lsl sp
    3440:	68c50100 	stmiavs	r5, {r8}^
    3444:	bf000000 	svclt	0x00000000
    3448:	1400001f 	strne	r0, [r0], #-31
    344c:	00646e65 	rsbeq	r6, r4, r5, ror #28
    3450:	004fc501 	subeq	ip, pc, r1, lsl #10
    3454:	1fe00000 	svcne	0x00e00000
    3458:	72160000 	andsvc	r0, r6, #0
    345c:	01007365 	tsteq	r0, r5, ror #6
    3460:	000025c6 	andeq	r2, r0, r6, asr #11
    3464:	00200100 	eoreq	r0, r0, r0, lsl #2
    3468:	01062900 	tsteq	r6, r0, lsl #18
    346c:	112c0000 	teqne	ip, r0
    3470:	03050000 	movweq	r0, #20480	; 0x5000
    3474:	00009e84 	andeq	r9, r0, r4, lsl #29
    3478:	00962825 	addseq	r2, r6, r5, lsr #16
    347c:	000b1e00 	andeq	r1, fp, r0, lsl #28
    3480:	0010da00 	andseq	sp, r0, r0, lsl #20
    3484:	52012000 	andpl	r2, r1, #0
    3488:	5201f303 	andpl	pc, r1, #201326592	; 0xc000000
    348c:	03510120 	cmpeq	r1, #32, 2
    3490:	205101f3 	ldrshcs	r0, [r1], #-19	; 0xffffffed
    3494:	f3035001 	vhadd.u8	d5, d3, d1
    3498:	02205001 	eoreq	r5, r0, #1
    349c:	0902007d 	stmdbeq	r2, {r0, r2, r3, r4, r5, r6}
    34a0:	342400ff 	strtcc	r0, [r4], #-255	; 0xff
    34a4:	67000096 			; <UNDEFINED> instruction: 0x67000096
    34a8:	25000011 	strcs	r0, [r0, #-17]
    34ac:	00009648 	andeq	r9, r0, r8, asr #12
    34b0:	0000116e 	andeq	r1, r0, lr, ror #2
    34b4:	00001112 	andeq	r1, r0, r2, lsl r1
    34b8:	02530120 	subseq	r0, r3, #32, 2
    34bc:	0120c808 	teqeq	r0, r8, lsl #16
    34c0:	84030552 	strhi	r0, [r3], #-1362	; 0x552
    34c4:	2000009e 	mulcs	r0, lr, r0
    34c8:	03055101 	movweq	r5, #20737	; 0x5101
    34cc:	00009eb8 			; <UNDEFINED> instruction: 0x00009eb8
    34d0:	05500120 	ldrbeq	r0, [r0, #-288]	; 0x120
    34d4:	009f1003 	addseq	r1, pc, r3
    34d8:	4c240000 	stcmi	0, cr0, [r4], #-0
    34dc:	84000096 	strhi	r0, [r0], #-150	; 0x96
    34e0:	00000011 	andeq	r0, r0, r1, lsl r0
    34e4:	0000902a 	andeq	r9, r0, sl, lsr #32
    34e8:	00112c00 	andseq	r2, r1, r0, lsl #24
    34ec:	00812b00 	addeq	r2, r1, r0, lsl #22
    34f0:	00160000 	andseq	r0, r6, r0
    34f4:	00111c07 	andseq	r1, r1, r7, lsl #24
    34f8:	001f3100 	andseq	r3, pc, r0, lsl #2
    34fc:	21060000 	mrscs	r0, (UNDEF: 6)
    3500:	00001147 	andeq	r1, r0, r7, asr #2
    3504:	00002c32 	andeq	r2, r0, r2, lsr ip
    3508:	002c3200 	eoreq	r3, ip, r0, lsl #4
    350c:	33000000 	movwcc	r0, #0
    3510:	000006c8 	andeq	r0, r0, r8, asr #13
    3514:	002c5707 	eoreq	r5, ip, r7, lsl #14
    3518:	47340000 	ldrmi	r0, [r4, -r0]!
    351c:	06000001 	streq	r0, [r0], -r1
    3520:	00002524 	andeq	r2, r0, r4, lsr #10
    3524:	00116700 	andseq	r6, r1, r0, lsl #14
    3528:	002c3200 	eoreq	r3, ip, r0, lsl #4
    352c:	35000000 	strcc	r0, [r0, #-0]
    3530:	000000e6 	andeq	r0, r0, r6, ror #1
    3534:	2a341e07 	bcs	d0ad58 <__bss_end__+0xcf8838>
    3538:	07000004 	streq	r0, [r0, -r4]
    353c:	00002529 	andeq	r2, r0, r9, lsr #10
    3540:	00118400 	andseq	r8, r1, r0, lsl #8
    3544:	00973200 	addseq	r3, r7, r0, lsl #4
    3548:	002f0000 	eoreq	r0, pc, r0
    354c:	00015d35 	andeq	r5, r1, r5, lsr sp
    3550:	31660700 	cmncc	r6, r0, lsl #14
    3554:	00000330 	andeq	r0, r0, r0, lsr r3
    3558:	119c1d06 	orrsne	r1, ip, r6, lsl #26
    355c:	2c320000 	ldccs	0, cr0, [r2], #-0
    3560:	00000000 	andeq	r0, r0, r0
    3564:	0002d931 	andeq	sp, r2, r1, lsr r9
    3568:	ad1c0600 	ldcge	6, cr0, [ip, #-0]
    356c:	32000011 	andcc	r0, r0, #17
    3570:	0000002c 	andeq	r0, r0, ip, lsr #32
    3574:	04273600 	strteq	r3, [r7], #-1536	; 0x600
    3578:	02080000 	andeq	r0, r8, #0
    357c:	00000025 	andeq	r0, r0, r5, lsr #32
    3580:	00008a32 	andeq	r8, r0, r2, lsr sl
    3584:	00253200 	eoreq	r3, r5, r0, lsl #4
    3588:	97320000 	ldrls	r0, [r2, -r0]!
    358c:	32000000 	andcc	r0, r0, #0
    3590:	00000106 	andeq	r0, r0, r6, lsl #2
    3594:	03ff0000 	mvnseq	r0, #0
    3598:	00040000 	andeq	r0, r4, r0
    359c:	000010af 	andeq	r1, r0, pc, lsr #1
    35a0:	027c0104 	rsbseq	r0, ip, #4, 2
    35a4:	df010000 	svcle	0x00010000
    35a8:	c600000a 	strgt	r0, [r0], -sl
    35ac:	60000003 	andvs	r0, r0, r3
    35b0:	54000096 	strpl	r0, [r0], #-150	; 0x96
    35b4:	f3000001 	vhadd.u8	d0, d0, d1
    35b8:	0200000f 	andeq	r0, r0, #15
    35bc:	6e690504 	cdpvs	5, 6, cr0, cr9, cr4, {0}
    35c0:	04030074 	streq	r0, [r3], #-116	; 0x74
    35c4:	00006207 	andeq	r6, r0, r7, lsl #4
    35c8:	06010300 	streq	r0, [r1], -r0, lsl #6
    35cc:	00000250 	andeq	r0, r0, r0, asr r2
    35d0:	5c050203 	sfmpl	f0, 4, [r5], {3}
    35d4:	03000002 	movweq	r0, #2
    35d8:	00830504 	addeq	r0, r3, r4, lsl #10
    35dc:	08030000 	stmdaeq	r3, {}	; <UNPREDICTABLE>
    35e0:	00007e05 	andeq	r7, r0, r5, lsl #28
    35e4:	08010300 	stmdaeq	r1, {r8, r9}
    35e8:	0000024e 	andeq	r0, r0, lr, asr #4
    35ec:	1c070203 	sfmne	f0, 4, [r7], {3}
    35f0:	03000001 	movweq	r0, #1
    35f4:	005d0704 	subseq	r0, sp, r4, lsl #14
    35f8:	08030000 	stmdaeq	r3, {}	; <UNPREDICTABLE>
    35fc:	00005807 	andeq	r5, r0, r7, lsl #16
    3600:	07040300 	streq	r0, [r4, -r0, lsl #6]
    3604:	00000184 	andeq	r0, r0, r4, lsl #3
    3608:	57080103 	strpl	r0, [r8, -r3, lsl #2]
    360c:	04000002 	streq	r0, [r0], #-2
    3610:	b20c0201 	andlt	r0, ip, #268435456	; 0x10000000
    3614:	05000000 	streq	r0, [r0, #-0]
    3618:	0000076c 	andeq	r0, r0, ip, ror #14
    361c:	08830500 	stmeq	r3, {r8, sl}
    3620:	05010000 	streq	r0, [r1, #-0]
    3624:	000008a6 	andeq	r0, r0, r6, lsr #17
    3628:	08b50504 	ldmeq	r5!, {r2, r8, sl}
    362c:	05050000 	streq	r0, [r5, #-0]
    3630:	000008c4 	andeq	r0, r0, r4, asr #17
    3634:	08d30506 	ldmeq	r3, {r1, r2, r8, sl}^
    3638:	05070000 	streq	r0, [r7, #-0]
    363c:	000008e2 	andeq	r0, r0, r2, ror #17
    3640:	08f10503 	ldmeq	r1!, {r0, r1, r8, sl}^
    3644:	00020000 	andeq	r0, r2, r0
    3648:	00089a06 	andeq	r9, r8, r6, lsl #20
    364c:	79150200 	ldmdbvc	r5, {r9}
    3650:	07000000 	streq	r0, [r0, -r0]
    3654:	00000043 	andeq	r0, r0, r3, asr #32
    3658:	96603701 	strbtls	r3, [r0], -r1, lsl #14
    365c:	009c0000 	addseq	r0, ip, r0
    3660:	9c010000 	stcls	0, cr0, [r1], {-0}
    3664:	000001c3 	andeq	r0, r0, r3, asr #3
    3668:	00966808 	addseq	r6, r6, r8, lsl #16
    366c:	0003a800 	andeq	sl, r3, r0, lsl #16
    3670:	96740900 	ldrbtls	r0, [r4], -r0, lsl #18
    3674:	03af0000 			; <UNDEFINED> instruction: 0x03af0000
    3678:	00f30000 	rscseq	r0, r3, r0
    367c:	010a0000 	mrseq	r0, (UNDEF: 10)
    3680:	0a320151 	beq	c83bcc <__bss_end__+0xc716ac>
    3684:	3e015001 	cdpcc	0, 0, cr5, cr1, cr1, {0}
    3688:	96800900 	strls	r0, [r0], r0, lsl #18
    368c:	03af0000 			; <UNDEFINED> instruction: 0x03af0000
    3690:	010b0000 	mrseq	r0, (UNDEF: 11)
    3694:	010a0000 	mrseq	r0, (UNDEF: 10)
    3698:	0a320151 	beq	c83be4 <__bss_end__+0xc716c4>
    369c:	3f015001 	svccc	0x00015001
    36a0:	96840800 	strls	r0, [r4], r0, lsl #16
    36a4:	03a80000 			; <UNDEFINED> instruction: 0x03a80000
    36a8:	94090000 	strls	r0, [r9], #-0
    36ac:	c5000096 	strgt	r0, [r0, #-150]	; 0x96
    36b0:	28000003 	stmdacs	r0, {r0, r1}
    36b4:	0a000001 	beq	36c0 <_start-0x4940>
    36b8:	75025001 	strvc	r5, [r2, #-1]
    36bc:	a0090000 	andge	r0, r9, r0
    36c0:	e6000096 			; <UNDEFINED> instruction: 0xe6000096
    36c4:	3c000003 	stccc	0, cr0, [r0], {3}
    36c8:	0a000001 	beq	36d4 <_start-0x492c>
    36cc:	75025001 	strvc	r5, [r2, #-1]
    36d0:	a4080000 	strge	r0, [r8], #-0
    36d4:	a8000096 	stmdage	r0, {r1, r2, r4, r7}
    36d8:	09000003 	stmdbeq	r0, {r0, r1}
    36dc:	000096b0 			; <UNDEFINED> instruction: 0x000096b0
    36e0:	000003e6 	andeq	r0, r0, r6, ror #7
    36e4:	00000158 	andeq	r0, r0, r8, asr r1
    36e8:	0151010a 	cmpeq	r1, sl, lsl #2
    36ec:	bc090030 	stclt	0, cr0, [r9], {48}	; 0x30
    36f0:	e6000096 			; <UNDEFINED> instruction: 0xe6000096
    36f4:	6b000003 	blvs	3708 <_start-0x48f8>
    36f8:	0a000001 	beq	3704 <_start-0x48fc>
    36fc:	30015101 	andcc	r5, r1, r1, lsl #2
    3700:	96c80900 	strbls	r0, [r8], r0, lsl #18
    3704:	03e60000 	mvneq	r0, #0
    3708:	017e0000 	cmneq	lr, r0
    370c:	010a0000 	mrseq	r0, (UNDEF: 10)
    3710:	00360151 	eorseq	r0, r6, r1, asr r1
    3714:	0096d409 	addseq	sp, r6, r9, lsl #8
    3718:	0003e600 	andeq	lr, r3, r0, lsl #12
    371c:	00019100 	andeq	r9, r1, r0, lsl #2
    3720:	51010a00 	tstpl	r1, r0, lsl #20
    3724:	09003301 	stmdbeq	r0, {r0, r8, r9, ip, sp}
    3728:	000096e0 	andeq	r9, r0, r0, ror #13
    372c:	000003e6 	andeq	r0, r0, r6, ror #7
    3730:	000001a6 	andeq	r0, r0, r6, lsr #3
    3734:	0351010a 	cmpeq	r1, #-2147483646	; 0x80000002
    3738:	00010e0a 	andeq	r0, r1, sl, lsl #28
    373c:	0096ec09 	addseq	lr, r6, r9, lsl #24
    3740:	0003e600 	andeq	lr, r3, r0, lsl #12
    3744:	0001b900 	andeq	fp, r1, r0, lsl #18
    3748:	51010a00 	tstpl	r1, r0, lsl #20
    374c:	08003301 	stmdaeq	r0, {r0, r8, r9, ip, sp}
    3750:	000096f0 	strdeq	r9, [r0], -r0
    3754:	000003a8 	andeq	r0, r0, r8, lsr #7
    3758:	0a440b00 	beq	1106360 <__bss_end__+0x10f3e40>
    375c:	57010000 	strpl	r0, [r1, -r0]
    3760:	00000025 	andeq	r0, r0, r5, lsr #32
    3764:	000096fc 	strdeq	r9, [r0], -ip
    3768:	0000001c 	andeq	r0, r0, ip, lsl r0
    376c:	01e69c01 	mvneq	r9, r1, lsl #24
    3770:	0c080000 	stceq	0, cr0, [r8], {-0}
    3774:	c5000097 	strgt	r0, [r0, #-151]	; 0x97
    3778:	00000003 	andeq	r0, r0, r3
    377c:	00095c0b 	andeq	r5, r9, fp, lsl #24
    3780:	255d0100 	ldrbcs	r0, [sp, #-256]	; 0x100
    3784:	18000000 	stmdane	r0, {}	; <UNPREDICTABLE>
    3788:	28000097 	stmdacs	r0, {r0, r1, r2, r4, r7}
    378c:	01000000 	mrseq	r0, (UNDEF: 0)
    3790:	0002129c 	muleq	r2, ip, r2
    3794:	97200800 	strls	r0, [r0, -r0, lsl #16]!
    3798:	01c30000 	biceq	r0, r3, r0
    379c:	34080000 	strcc	r0, [r8], #-0
    37a0:	c5000097 	strgt	r0, [r0, #-151]	; 0x97
    37a4:	00000003 	andeq	r0, r0, r3
    37a8:	000a8e0b 	andeq	r8, sl, fp, lsl #28
    37ac:	25640100 	strbcs	r0, [r4, #-256]!	; 0x100
    37b0:	40000000 	andmi	r0, r0, r0
    37b4:	1c000097 	stcne	0, cr0, [r0], {151}	; 0x97
    37b8:	01000000 	mrseq	r0, (UNDEF: 0)
    37bc:	0002359c 	muleq	r2, ip, r5
    37c0:	97500800 	ldrbls	r0, [r0, -r0, lsl #16]
    37c4:	03c50000 	biceq	r0, r5, #0
    37c8:	07000000 	streq	r0, [r0, -r0]
    37cc:	000005e7 	andeq	r0, r0, r7, ror #11
    37d0:	975c6a01 	ldrbls	r6, [ip, -r1, lsl #20]
    37d4:	002c0000 	eoreq	r0, ip, r0
    37d8:	9c010000 	stcls	0, cr0, [r1], {-0}
    37dc:	00000271 	andeq	r0, r0, r1, ror r2
    37e0:	0100630c 	tsteq	r0, ip, lsl #6
    37e4:	00002c6a 	andeq	r2, r0, sl, ror #24
    37e8:	00201f00 	eoreq	r1, r0, r0, lsl #30
    37ec:	97680800 	strbls	r0, [r8, -r0, lsl #16]!
    37f0:	02120000 	andseq	r0, r2, #0
    37f4:	800d0000 	andhi	r0, sp, r0
    37f8:	e6000097 			; <UNDEFINED> instruction: 0xe6000097
    37fc:	0a000003 	beq	3810 <_start-0x47f0>
    3800:	74025101 	strvc	r5, [r2], #-257	; 0x101
    3804:	0b000000 	bleq	380c <_start-0x47f4>
    3808:	00000a62 	andeq	r0, r0, r2, ror #20
    380c:	00257401 	eoreq	r7, r5, r1, lsl #8
    3810:	97880000 	strls	r0, [r8, r0]
    3814:	000c0000 	andeq	r0, ip, r0
    3818:	9c010000 	stcls	0, cr0, [r1], {-0}
    381c:	00000294 	muleq	r0, r4, r2
    3820:	00979008 	addseq	r9, r7, r8
    3824:	0001c300 	andeq	ip, r1, r0, lsl #6
    3828:	0b0b0000 	bleq	2c3830 <__bss_end__+0x2b1310>
    382c:	0100000b 	tsteq	r0, fp
    3830:	00002578 	andeq	r2, r0, r8, ror r5
    3834:	00979400 	addseq	r9, r7, r0, lsl #8
    3838:	00002000 	andeq	r2, r0, r0
    383c:	c09c0100 	addsgt	r0, ip, r0, lsl #2
    3840:	08000002 	stmdaeq	r0, {r1}
    3844:	0000979c 	muleq	r0, ip, r7
    3848:	00000271 	andeq	r0, r0, r1, ror r2
    384c:	0097a808 	addseq	sl, r7, r8, lsl #16
    3850:	0001e600 	andeq	lr, r1, r0, lsl #12
    3854:	a80e0000 	stmdage	lr, {}	; <UNPREDICTABLE>
    3858:	0100000a 	tsteq	r0, sl
    385c:	0002d116 	andeq	sp, r2, r6, lsl r1
    3860:	d8030500 	stmdale	r3, {r8, sl}
    3864:	0f00009b 	svceq	0x0000009b
    3868:	0002d704 	andeq	sp, r2, r4, lsl #14
    386c:	002c1000 	eoreq	r1, ip, r0
    3870:	9c0e0000 	stcls	0, cr0, [lr], {-0}
    3874:	0100000a 	tsteq	r0, sl
    3878:	0002d117 	andeq	sp, r2, r7, lsl r1
    387c:	a8030500 	stmdage	r3, {r8, sl}
    3880:	0e00009b 	mcreq	0, 0, r0, cr0, cr11, {4}
    3884:	00000a27 	andeq	r0, r0, r7, lsr #20
    3888:	02d11a01 	sbcseq	r1, r1, #4096	; 0x1000
    388c:	03050000 	movweq	r0, #20480	; 0x5000
    3890:	00009bc4 	andeq	r9, r0, r4, asr #23
    3894:	000a700e 	andeq	r7, sl, lr
    3898:	d11b0100 	tstle	fp, r0, lsl #2
    389c:	05000002 	streq	r0, [r0, #-2]
    38a0:	009bb003 	addseq	fp, fp, r3
    38a4:	0a7f0e00 	beq	1fc70ac <__bss_end__+0x1fb4b8c>
    38a8:	1c010000 	stcne	0, cr0, [r1], {-0}
    38ac:	000002d1 	ldrdeq	r0, [r0], -r1
    38b0:	9bb40305 	blls	fed044cc <__bss_end__+0xfecf1fac>
    38b4:	ed0e0000 	stc	0, cr0, [lr, #-0]
    38b8:	0100000a 	tsteq	r0, sl
    38bc:	0002d11d 	andeq	sp, r2, sp, lsl r1
    38c0:	b8030500 	stmdalt	r3, {r8, sl}
    38c4:	0e00009b 	mcreq	0, 0, r0, cr0, cr11, {4}
    38c8:	00000a18 	andeq	r0, r0, r8, lsl sl
    38cc:	02d11e01 	sbcseq	r1, r1, #1, 28
    38d0:	03050000 	movweq	r0, #20480	; 0x5000
    38d4:	00009bd4 	ldrdeq	r9, [r0], -r4
    38d8:	000afc0e 	andeq	pc, sl, lr, lsl #24
    38dc:	d11f0100 	tstle	pc, r0, lsl #2
    38e0:	05000002 	streq	r0, [r0, #-2]
    38e4:	009bc003 	addseq	ip, fp, r3
    38e8:	0a350e00 	beq	d470f0 <__bss_end__+0xd34bd0>
    38ec:	20010000 	andcs	r0, r1, r0
    38f0:	000002d1 	ldrdeq	r0, [r0], -r1
    38f4:	9bd00305 	blls	ff404510 <__bss_end__+0xff3f1ff0>
    38f8:	d00e0000 	andle	r0, lr, r0
    38fc:	0100000a 	tsteq	r0, sl
    3900:	0002d121 	andeq	sp, r2, r1, lsr #2
    3904:	cc030500 	cfstr32gt	mvfx0, [r3], {-0}
    3908:	0e00009b 	mcreq	0, 0, r0, cr0, cr11, {4}
    390c:	00000a52 	andeq	r0, r0, r2, asr sl
    3910:	02d12201 	sbcseq	r2, r1, #268435456	; 0x10000000
    3914:	03050000 	movweq	r0, #20480	; 0x5000
    3918:	00009bac 	andeq	r9, r0, ip, lsr #23
    391c:	000ac00e 	andeq	ip, sl, lr
    3920:	d1230100 	teqle	r3, r0, lsl #2
    3924:	05000002 	streq	r0, [r0, #-2]
    3928:	009bc803 	addseq	ip, fp, r3, lsl #16
    392c:	0ab00e00 	beq	fec07134 <__bss_end__+0xfebf4c14>
    3930:	24010000 	strcs	r0, [r1], #-0
    3934:	000002d1 	ldrdeq	r0, [r0], -r1
    3938:	9bbc0305 	blls	fef04554 <__bss_end__+0xfeef2034>
    393c:	3b110000 	blcc	443944 <__bss_end__+0x431424>
    3940:	03000001 	movweq	r0, #1
    3944:	08081287 	stmdaeq	r8, {r0, r1, r2, r7, r9, ip}
    3948:	19020000 	stmdbne	r2, {}	; <UNPREDICTABLE>
    394c:	000003c5 	andeq	r0, r0, r5, asr #7
    3950:	00002c13 	andeq	r2, r0, r3, lsl ip
    3954:	00b21300 	adcseq	r1, r2, r0, lsl #6
    3958:	14000000 	strne	r0, [r0], #-0
    395c:	00000894 	muleq	r0, r4, r8
    3960:	002ca603 	eoreq	sl, ip, r3, lsl #12
    3964:	03da0000 	bicseq	r0, sl, #0
    3968:	da130000 	ble	4c3970 <__bss_end__+0x4b1450>
    396c:	00000003 	andeq	r0, r0, r3
    3970:	03e0040f 	mvneq	r0, #251658240	; 0xf000000
    3974:	e5150000 	ldr	r0, [r5, #-0]
    3978:	16000003 	strne	r0, [r0], -r3
    397c:	00073d12 	andeq	r3, r7, r2, lsl sp
    3980:	fc9a0300 	ldc2	3, cr0, [sl], {0}
    3984:	13000003 	movwne	r0, #3
    3988:	000003fc 	strdeq	r0, [r0], -ip
    398c:	00002c13 	andeq	r2, r0, r3, lsl ip
    3990:	040f0000 	streq	r0, [pc], #-0	; 3998 <_start-0x4668>
    3994:	000003e5 	andeq	r0, r0, r5, ror #7
    3998:	00058d00 	andeq	r8, r5, r0, lsl #26
    399c:	dd000400 	cfstrsle	mvf0, [r0, #-0]
    39a0:	04000011 	streq	r0, [r0], #-17
    39a4:	00027c01 	andeq	r7, r2, r1, lsl #24
    39a8:	0bd60100 	bleq	ff583db0 <__bss_end__+0xff571890>
    39ac:	03c60000 	biceq	r0, r6, #0
    39b0:	97b40000 	ldrls	r0, [r4, r0]!
    39b4:	02000000 	andeq	r0, r0, #0
    39b8:	10f80000 	rscsne	r0, r8, r0
    39bc:	04020000 	streq	r0, [r2], #-0
    39c0:	746e6905 	strbtvc	r6, [lr], #-2309	; 0x905
    39c4:	07040300 	streq	r0, [r4, -r0, lsl #6]
    39c8:	00000062 	andeq	r0, r0, r2, rrx
    39cc:	50060103 	andpl	r0, r6, r3, lsl #2
    39d0:	03000002 	movweq	r0, #2
    39d4:	025c0502 	subseq	r0, ip, #8388608	; 0x800000
    39d8:	04030000 	streq	r0, [r3], #-0
    39dc:	00008305 	andeq	r8, r0, r5, lsl #6
    39e0:	05080300 	streq	r0, [r8, #-768]	; 0x300
    39e4:	0000007e 	andeq	r0, r0, lr, ror r0
    39e8:	4e080103 	adfmie	f0, f0, f3
    39ec:	03000002 	movweq	r0, #2
    39f0:	011c0702 	tsteq	ip, r2, lsl #14
    39f4:	04030000 	streq	r0, [r3], #-0
    39f8:	00005d07 	andeq	r5, r0, r7, lsl #26
    39fc:	07080300 	streq	r0, [r8, -r0, lsl #6]
    3a00:	00000058 	andeq	r0, r0, r8, asr r0
    3a04:	84070403 	strhi	r0, [r7], #-1027	; 0x403
    3a08:	03000001 	movweq	r0, #1
    3a0c:	02570801 	subseq	r0, r7, #65536	; 0x10000
    3a10:	04040000 	streq	r0, [r4], #-0
    3a14:	0000007f 	andeq	r0, r0, pc, ror r0
    3a18:	00007205 	andeq	r7, r0, r5, lsl #4
    3a1c:	00720600 	rsbseq	r0, r2, r0, lsl #12
    3a20:	00940000 	addseq	r0, r4, r0
    3a24:	6b070000 	blvs	1c3a2c <__bss_end__+0x1b150c>
    3a28:	19000000 	stmdbne	r0, {}	; <UNPREDICTABLE>
    3a2c:	03040800 	movweq	r0, #18432	; 0x4800
    3a30:	00010b14 	andeq	r0, r1, r4, lsl fp
    3a34:	0c7c0900 	ldcleq	9, cr0, [ip], #-0
    3a38:	e4800000 	str	r0, [r0], #0
    3a3c:	09028082 	stmdbeq	r2, {r1, r7, pc}
    3a40:	00000b61 	andeq	r0, r0, r1, ror #22
    3a44:	8082e480 	addhi	lr, r2, r0, lsl #9
    3a48:	0bf60902 	bleq	ffd85e58 <__bss_end__+0xffd73938>
    3a4c:	e4840000 	str	r0, [r4], #0
    3a50:	09028082 	stmdbeq	r2, {r1, r7, pc}
    3a54:	00000bc8 	andeq	r0, r0, r8, asr #23
    3a58:	8082e488 	addhi	lr, r2, r8, lsl #9
    3a5c:	0b440902 	bleq	1105e6c <__bss_end__+0x10f394c>
    3a60:	e48c0000 	str	r0, [ip], #0
    3a64:	09028082 	stmdbeq	r2, {r1, r7, pc}
    3a68:	00000b85 	andeq	r0, r0, r5, lsl #23
    3a6c:	8082e490 	umullhi	lr, r2, r0, r4
    3a70:	0b930902 	bleq	fe4c5e80 <__bss_end__+0xfe4b3960>
    3a74:	e4940000 	ldr	r0, [r4], #0
    3a78:	09028082 	stmdbeq	r2, {r1, r7, pc}
    3a7c:	00000b73 	andeq	r0, r0, r3, ror fp
    3a80:	8082e498 	umullhi	lr, r2, r8, r4
    3a84:	0c480902 	mcrreq	9, 0, r0, r8, cr2
    3a88:	e49c0000 	ldr	r0, [ip], #0
    3a8c:	09028082 	stmdbeq	r2, {r1, r7, pc}
    3a90:	00000c57 	andeq	r0, r0, r7, asr ip
    3a94:	8082e4a0 	addhi	lr, r2, r0, lsr #9
    3a98:	0b310902 	bleq	c45ea8 <__bss_end__+0xc33988>
    3a9c:	e4a40000 	strt	r0, [r4], #0
    3aa0:	00028082 	andeq	r8, r2, r2, lsl #1
    3aa4:	0001d00a 	andeq	sp, r1, sl
    3aa8:	b4050100 	strlt	r0, [r5], #-256	; 0x100
    3aac:	68000097 	stmdavs	r0, {r0, r1, r2, r4, r7}
    3ab0:	01000000 	mrseq	r0, (UNDEF: 0)
    3ab4:	0001b79c 	muleq	r1, ip, r7
    3ab8:	0b500b00 	bleq	14066c0 <__bss_end__+0x13f41a0>
    3abc:	11010000 	mrsne	r0, (UNDEF: 1)
    3ac0:	0000002c 	andeq	r0, r0, ip, lsr #32
    3ac4:	000ba10b 	andeq	sl, fp, fp, lsl #2
    3ac8:	2c120100 	ldfcss	f0, [r2], {-0}
    3acc:	0c000000 	stceq	0, cr0, [r0], {-0}
    3ad0:	00747364 	rsbseq	r7, r4, r4, ror #6
    3ad4:	01b71601 			; <UNDEFINED> instruction: 0x01b71601
    3ad8:	0d000000 	stceq	0, cr0, [r0, #-0]
    3adc:	00637273 	rsbeq	r7, r3, r3, ror r2
    3ae0:	01b71701 			; <UNDEFINED> instruction: 0x01b71701
    3ae4:	6e0e0000 	cdpvs	0, 0, cr0, cr14, cr0, {0}
    3ae8:	2c180100 	ldfcss	f0, [r8], {-0}
    3aec:	01000000 	mrseq	r0, (UNDEF: 0)
    3af0:	97e40f50 	ubfxls	r0, r0, #30, #5
    3af4:	00240000 	eoreq	r0, r4, r0
    3af8:	01730000 	cmneq	r3, r0
    3afc:	69100000 	ldmdbvs	r0, {}	; <UNPREDICTABLE>
    3b00:	25190100 	ldrcs	r0, [r9, #-256]	; 0x100
    3b04:	3d000000 	stccc	0, cr0, [r0, #-0]
    3b08:	00000020 	andeq	r0, r0, r0, lsr #32
    3b0c:	0097c411 	addseq	ip, r7, r1, lsl r4
    3b10:	00054f00 	andeq	r4, r5, r0, lsl #30
    3b14:	00019000 	andeq	r9, r1, r0
    3b18:	51011200 	mrspl	r1, R9_usr
    3b1c:	12ff0902 	rscsne	r0, pc, #32768	; 0x8000
    3b20:	0c055001 	stceq	0, cr5, [r5], {1}
    3b24:	2000b21c 	andcs	fp, r0, ip, lsl r2
    3b28:	97d01100 	ldrbls	r1, [r0, r0, lsl #2]
    3b2c:	054f0000 	strbeq	r0, [pc, #-0]	; 3b34 <_start-0x44cc>
    3b30:	01ad0000 			; <UNDEFINED> instruction: 0x01ad0000
    3b34:	01120000 	tsteq	r2, r0
    3b38:	ff090251 			; <UNDEFINED> instruction: 0xff090251
    3b3c:	05500112 	ldrbeq	r0, [r0, #-274]	; 0x112
    3b40:	00b2200c 	adcseq	r2, r2, ip
    3b44:	d4130020 	ldrle	r0, [r3], #-32
    3b48:	65000097 	strvs	r0, [r0, #-151]	; 0x97
    3b4c:	00000005 	andeq	r0, r0, r5
    3b50:	002c0404 	eoreq	r0, ip, r4, lsl #8
    3b54:	660a0000 	strvs	r0, [sl], -r0
    3b58:	0100000c 	tsteq	r0, ip
    3b5c:	00981c1f 	addseq	r1, r8, pc, lsl ip
    3b60:	00004400 	andeq	r4, r0, r0, lsl #8
    3b64:	429c0100 	addsmi	r0, ip, #0, 2
    3b68:	14000002 	strne	r0, [r0], #-2
    3b6c:	01006370 	tsteq	r0, r0, ror r3
    3b70:	00002c1f 	andeq	r2, r0, pc, lsl ip
    3b74:	00205c00 	eoreq	r5, r0, r0, lsl #24
    3b78:	01061500 	tsteq	r6, r0, lsl #10
    3b7c:	02520000 	subseq	r0, r2, #0
    3b80:	03050000 	movweq	r0, #20480	; 0x5000
    3b84:	00009f6c 	andeq	r9, r0, ip, ror #30
    3b88:	00982c13 	addseq	r2, r8, r3, lsl ip
    3b8c:	00056c00 	andeq	r6, r5, r0, lsl #24
    3b90:	984c1100 	stmdals	ip, {r8, ip}^
    3b94:	05730000 	ldrbeq	r0, [r3, #-0]!
    3b98:	02380000 	eorseq	r0, r8, #0
    3b9c:	01120000 	tsteq	r2, r0
    3ba0:	20080253 	andcs	r0, r8, r3, asr r2
    3ba4:	05520112 	ldrbeq	r0, [r2, #-274]	; 0x112
    3ba8:	009f6c03 	addseq	r6, pc, r3, lsl #24
    3bac:	51011200 	mrspl	r1, R9_usr
    3bb0:	a0380305 	eorsge	r0, r8, r5, lsl #6
    3bb4:	01120000 	tsteq	r2, r0
    3bb8:	fc030550 	stc2	5, cr0, [r3], {80}	; 0x50
    3bbc:	1200009f 	andne	r0, r0, #159	; 0x9f
    3bc0:	02047d02 	andeq	r7, r4, #2, 26	; 0x80
    3bc4:	02120074 	andseq	r0, r2, #116	; 0x74
    3bc8:	0305007d 	movweq	r0, #20605	; 0x507d
    3bcc:	0000a058 	andeq	sl, r0, r8, asr r0
    3bd0:	98501300 	ldmdals	r0, {r8, r9, ip}^
    3bd4:	05890000 	streq	r0, [r9]
    3bd8:	06000000 	streq	r0, [r0], -r0
    3bdc:	00000072 	andeq	r0, r0, r2, ror r0
    3be0:	00000252 	andeq	r0, r0, r2, asr r2
    3be4:	00006b07 	andeq	r6, r0, r7, lsl #22
    3be8:	05001500 	streq	r1, [r0, #-1280]	; 0x500
    3bec:	00000242 	andeq	r0, r0, r2, asr #4
    3bf0:	000c2e0a 	andeq	r2, ip, sl, lsl #28
    3bf4:	60240100 	eorvs	r0, r4, r0, lsl #2
    3bf8:	44000098 	strmi	r0, [r0], #-152	; 0x98
    3bfc:	01000000 	mrseq	r0, (UNDEF: 0)
    3c00:	0002dc9c 	muleq	r2, ip, ip
    3c04:	63701400 	cmnvs	r0, #0, 8
    3c08:	2c240100 	stfcss	f0, [r4], #-0
    3c0c:	7a000000 	bvc	3c14 <_start-0x43ec>
    3c10:	15000020 	strne	r0, [r0, #-32]
    3c14:	00000106 	andeq	r0, r0, r6, lsl #2
    3c18:	000002dc 	ldrdeq	r0, [r0], -ip
    3c1c:	9f840305 	svcls	0x00840305
    3c20:	70130000 	andsvc	r0, r3, r0
    3c24:	6c000098 	stcvs	0, cr0, [r0], {152}	; 0x98
    3c28:	11000005 	tstne	r0, r5
    3c2c:	00009890 	muleq	r0, r0, r8
    3c30:	00000573 	andeq	r0, r0, r3, ror r5
    3c34:	000002d2 	ldrdeq	r0, [r0], -r2
    3c38:	02530112 	subseq	r0, r3, #-2147483644	; 0x80000004
    3c3c:	01122508 	tsteq	r2, r8, lsl #10
    3c40:	84030552 	strhi	r0, [r3], #-1362	; 0x552
    3c44:	1200009f 	andne	r0, r0, #159	; 0x9f
    3c48:	03055101 	movweq	r5, #20737	; 0x5101
    3c4c:	0000a038 	andeq	sl, r0, r8, lsr r0
    3c50:	05500112 	ldrbeq	r0, [r0, #-274]	; 0x112
    3c54:	009ffc03 	addseq	pc, pc, r3, lsl #24
    3c58:	7d021200 	sfmvc	f1, 4, [r2, #-0]
    3c5c:	00740204 	rsbseq	r0, r4, r4, lsl #4
    3c60:	007d0212 	rsbseq	r0, sp, r2, lsl r2
    3c64:	a0600305 	rsbge	r0, r0, r5, lsl #6
    3c68:	13000000 	movwne	r0, #0
    3c6c:	00009894 	muleq	r0, r4, r8
    3c70:	00000589 	andeq	r0, r0, r9, lsl #11
    3c74:	00840500 	addeq	r0, r4, r0, lsl #10
    3c78:	210a0000 	mrscs	r0, (UNDEF: 10)
    3c7c:	0100000c 	tsteq	r0, ip
    3c80:	0098a427 	addseq	sl, r8, r7, lsr #8
    3c84:	00004400 	andeq	r4, r0, r0, lsl #8
    3c88:	669c0100 	ldrvs	r0, [ip], r0, lsl #2
    3c8c:	14000003 	strne	r0, [r0], #-3
    3c90:	01006370 	tsteq	r0, r0, ror r3
    3c94:	00002c27 	andeq	r2, r0, r7, lsr #24
    3c98:	00209800 	eoreq	r9, r0, r0, lsl #16
    3c9c:	01061500 	tsteq	r6, r0, lsl #10
    3ca0:	03760000 	cmneq	r6, #0
    3ca4:	03050000 	movweq	r0, #20480	; 0x5000
    3ca8:	00009fa0 	andeq	r9, r0, r0, lsr #31
    3cac:	0098b413 	addseq	fp, r8, r3, lsl r4
    3cb0:	00056c00 	andeq	r6, r5, r0, lsl #24
    3cb4:	98d41100 	ldmls	r4, {r8, ip}^
    3cb8:	05730000 	ldrbeq	r0, [r3, #-0]!
    3cbc:	035c0000 	cmpeq	ip, #0
    3cc0:	01120000 	tsteq	r2, r0
    3cc4:	28080253 	stmdacs	r8, {r0, r1, r4, r6, r9}
    3cc8:	05520112 	ldrbeq	r0, [r2, #-274]	; 0x112
    3ccc:	009fa003 	addseq	sl, pc, r3
    3cd0:	51011200 	mrspl	r1, R9_usr
    3cd4:	a0380305 	eorsge	r0, r8, r5, lsl #6
    3cd8:	01120000 	tsteq	r2, r0
    3cdc:	fc030550 	stc2	5, cr0, [r3], {80}	; 0x50
    3ce0:	1200009f 	andne	r0, r0, #159	; 0x9f
    3ce4:	02047d02 	andeq	r7, r4, #2, 26	; 0x80
    3ce8:	02120074 	andseq	r0, r2, #116	; 0x74
    3cec:	0305007d 	movweq	r0, #20605	; 0x507d
    3cf0:	0000a070 	andeq	sl, r0, r0, ror r0
    3cf4:	98d81300 	ldmls	r8, {r8, r9, ip}^
    3cf8:	05890000 	streq	r0, [r9]
    3cfc:	06000000 	streq	r0, [r0], -r0
    3d00:	00000072 	andeq	r0, r0, r2, ror r0
    3d04:	00000376 	andeq	r0, r0, r6, ror r3
    3d08:	00006b07 	andeq	r6, r0, r7, lsl #22
    3d0c:	05000c00 	streq	r0, [r0, #-3072]	; 0xc00
    3d10:	00000366 	andeq	r0, r0, r6, ror #6
    3d14:	000c040a 	andeq	r0, ip, sl, lsl #8
    3d18:	e82a0100 	stmda	sl!, {r8}
    3d1c:	44000098 	strmi	r0, [r0], #-152	; 0x98
    3d20:	01000000 	mrseq	r0, (UNDEF: 0)
    3d24:	0004009c 	muleq	r4, ip, r0
    3d28:	63701400 	cmnvs	r0, #0, 8
    3d2c:	2c2a0100 	stfcss	f0, [sl], #-0
    3d30:	b6000000 	strlt	r0, [r0], -r0
    3d34:	15000020 	strne	r0, [r0, #-32]
    3d38:	00000106 	andeq	r0, r0, r6, lsl #2
    3d3c:	00000410 	andeq	r0, r0, r0, lsl r4
    3d40:	9fb00305 	svcls	0x00b00305
    3d44:	f8130000 			; <UNDEFINED> instruction: 0xf8130000
    3d48:	6c000098 	stcvs	0, cr0, [r0], {152}	; 0x98
    3d4c:	11000005 	tstne	r0, r5
    3d50:	00009918 	andeq	r9, r0, r8, lsl r9
    3d54:	00000573 	andeq	r0, r0, r3, ror r5
    3d58:	000003f6 	strdeq	r0, [r0], -r6
    3d5c:	02530112 	subseq	r0, r3, #-2147483644	; 0x80000004
    3d60:	01122b08 	tsteq	r2, r8, lsl #22
    3d64:	b0030552 	andlt	r0, r3, r2, asr r5
    3d68:	1200009f 	andne	r0, r0, #159	; 0x9f
    3d6c:	03055101 	movweq	r5, #20737	; 0x5101
    3d70:	0000a038 	andeq	sl, r0, r8, lsr r0
    3d74:	05500112 	ldrbeq	r0, [r0, #-274]	; 0x112
    3d78:	009ffc03 	addseq	pc, pc, r3, lsl #24
    3d7c:	7d021200 	sfmvc	f1, 4, [r2, #-0]
    3d80:	00740204 	rsbseq	r0, r4, r4, lsl #4
    3d84:	007d0212 	rsbseq	r0, sp, r2, lsl r2
    3d88:	a0800305 	addge	r0, r0, r5, lsl #6
    3d8c:	13000000 	movwne	r0, #0
    3d90:	0000991c 	andeq	r9, r0, ip, lsl r9
    3d94:	00000589 	andeq	r0, r0, r9, lsl #11
    3d98:	00720600 	rsbseq	r0, r2, r0, lsl #12
    3d9c:	04100000 	ldreq	r0, [r0], #-0
    3da0:	6b070000 	blvs	1c3da8 <__bss_end__+0x1b1888>
    3da4:	1c000000 	stcne	0, cr0, [r0], {-0}
    3da8:	04000500 	streq	r0, [r0], #-1280	; 0x500
    3dac:	1b0a0000 	blne	283db4 <__bss_end__+0x271894>
    3db0:	0100000b 	tsteq	r0, fp
    3db4:	00992c2d 	addseq	r2, r9, sp, lsr #24
    3db8:	00004400 	andeq	r4, r0, r0, lsl #8
    3dbc:	9a9c0100 	bls	fe7041c4 <__bss_end__+0xfe6f1ca4>
    3dc0:	14000004 	strne	r0, [r0], #-4
    3dc4:	01006370 	tsteq	r0, r0, ror r3
    3dc8:	00002c2d 	andeq	r2, r0, sp, lsr #24
    3dcc:	0020d400 	eoreq	sp, r0, r0, lsl #8
    3dd0:	01061500 	tsteq	r6, r0, lsl #10
    3dd4:	049a0000 	ldreq	r0, [sl], #0
    3dd8:	03050000 	movweq	r0, #20480	; 0x5000
    3ddc:	00009fd0 	ldrdeq	r9, [r0], -r0
    3de0:	00993c13 	addseq	r3, r9, r3, lsl ip
    3de4:	00056c00 	andeq	r6, r5, r0, lsl #24
    3de8:	995c1100 	ldmdbls	ip, {r8, ip}^
    3dec:	05730000 	ldrbeq	r0, [r3, #-0]!
    3df0:	04900000 	ldreq	r0, [r0], #0
    3df4:	01120000 	tsteq	r2, r0
    3df8:	2e080253 	mcrcs	2, 0, r0, cr8, cr3, {2}
    3dfc:	05520112 	ldrbeq	r0, [r2, #-274]	; 0x112
    3e00:	009fd003 	addseq	sp, pc, r3
    3e04:	51011200 	mrspl	r1, R9_usr
    3e08:	a0380305 	eorsge	r0, r8, r5, lsl #6
    3e0c:	01120000 	tsteq	r2, r0
    3e10:	fc030550 	stc2	5, cr0, [r3], {80}	; 0x50
    3e14:	1200009f 	andne	r0, r0, #159	; 0x9f
    3e18:	02047d02 	andeq	r7, r4, #2, 26	; 0x80
    3e1c:	02120074 	andseq	r0, r2, #116	; 0x74
    3e20:	0305007d 	movweq	r0, #20605	; 0x507d
    3e24:	0000a098 	muleq	r0, r8, r0
    3e28:	99601300 	stmdbls	r0!, {r8, r9, ip}^
    3e2c:	05890000 	streq	r0, [r9]
    3e30:	05000000 	streq	r0, [r0, #-0]
    3e34:	00000242 	andeq	r0, r0, r2, asr #4
    3e38:	000bb60a 	andeq	fp, fp, sl, lsl #12
    3e3c:	70300100 	eorsvc	r0, r0, r0, lsl #2
    3e40:	44000099 	strmi	r0, [r0], #-153	; 0x99
    3e44:	01000000 	mrseq	r0, (UNDEF: 0)
    3e48:	0005249c 	muleq	r5, ip, r4
    3e4c:	63701400 	cmnvs	r0, #0, 8
    3e50:	2c300100 	ldfcss	f0, [r0], #-0
    3e54:	f2000000 	vhadd.s8	d0, d0, d0
    3e58:	15000020 	strne	r0, [r0, #-32]
    3e5c:	00000106 	andeq	r0, r0, r6, lsl #2
    3e60:	00000534 	andeq	r0, r0, r4, lsr r5
    3e64:	9fe80305 	svcls	0x00e80305
    3e68:	80130000 	andshi	r0, r3, r0
    3e6c:	6c000099 	stcvs	0, cr0, [r0], {153}	; 0x99
    3e70:	11000005 	tstne	r0, r5
    3e74:	000099a0 	andeq	r9, r0, r0, lsr #19
    3e78:	00000573 	andeq	r0, r0, r3, ror r5
    3e7c:	0000051a 	andeq	r0, r0, sl, lsl r5
    3e80:	02530112 	subseq	r0, r3, #-2147483644	; 0x80000004
    3e84:	01123108 	tsteq	r2, r8, lsl #2
    3e88:	e8030552 	stmda	r3, {r1, r4, r6, r8, sl}
    3e8c:	1200009f 	andne	r0, r0, #159	; 0x9f
    3e90:	03055101 	movweq	r5, #20737	; 0x5101
    3e94:	0000a038 	andeq	sl, r0, r8, lsr r0
    3e98:	05500112 	ldrbeq	r0, [r0, #-274]	; 0x112
    3e9c:	009ffc03 	addseq	pc, pc, r3, lsl #24
    3ea0:	7d021200 	sfmvc	f1, 4, [r2, #-0]
    3ea4:	00740204 	rsbseq	r0, r4, r4, lsl #4
    3ea8:	007d0212 	rsbseq	r0, sp, r2, lsl r2
    3eac:	a0a80305 	adcge	r0, r8, r5, lsl #6
    3eb0:	13000000 	movwne	r0, #0
    3eb4:	000099a4 	andeq	r9, r0, r4, lsr #19
    3eb8:	00000589 	andeq	r0, r0, r9, lsl #11
    3ebc:	00720600 	rsbseq	r0, r2, r0, lsl #12
    3ec0:	05340000 	ldreq	r0, [r4, #-0]!
    3ec4:	6b070000 	blvs	1c3ecc <__bss_end__+0x1b19ac>
    3ec8:	11000000 	mrsne	r0, (UNDEF: 0)
    3ecc:	05240500 	streq	r0, [r4, #-1280]!	; 0x500
    3ed0:	500b0000 	andpl	r0, fp, r0
    3ed4:	0100000b 	tsteq	r0, fp
    3ed8:	00002c11 	andeq	r2, r0, r1, lsl ip
    3edc:	0ba10b00 	bleq	fe846ae4 <__bss_end__+0xfe8345c4>
    3ee0:	12010000 	andne	r0, r1, #0
    3ee4:	0000002c 	andeq	r0, r0, ip, lsr #32
    3ee8:	0006b516 	andeq	fp, r6, r6, lsl r5
    3eec:	65990200 	ldrvs	r0, [r9, #512]	; 0x200
    3ef0:	17000005 	strne	r0, [r0, -r5]
    3ef4:	0000002c 	andeq	r0, r0, ip, lsr #32
    3ef8:	00002c17 	andeq	r2, r0, r7, lsl ip
    3efc:	3b180000 	blcc	603f04 <__bss_end__+0x5f19e4>
    3f00:	02000001 	andeq	r0, r0, #1
    3f04:	00e61887 	rsceq	r1, r6, r7, lsl #17
    3f08:	1e020000 	cdpne	0, 0, cr0, cr2, cr0, {0}
    3f0c:	00042a19 	andeq	r2, r4, r9, lsl sl
    3f10:	25290200 	strcs	r0, [r9, #-512]!	; 0x200
    3f14:	89000000 	stmdbhi	r0, {}	; <UNPREDICTABLE>
    3f18:	17000005 	strne	r0, [r0, -r5]
    3f1c:	00000079 	andeq	r0, r0, r9, ror r0
    3f20:	5d18001a 	ldcpl	0, cr0, [r8, #-104]	; 0xffffff98
    3f24:	02000001 	andeq	r0, r0, #1
    3f28:	01c30066 	biceq	r0, r3, r6, rrx
    3f2c:	00040000 	andeq	r0, r4, r0
    3f30:	00001334 	andeq	r1, r0, r4, lsr r3
    3f34:	027c0104 	rsbseq	r0, ip, #4, 2
    3f38:	8c010000 	stchi	0, cr0, [r1], {-0}
    3f3c:	c600000c 	strgt	r0, [r0], -ip
    3f40:	f0000003 			; <UNDEFINED> instruction: 0xf0000003
    3f44:	5000009a 	mulpl	r0, sl, r0
    3f48:	d2000000 	andle	r0, r0, #0
    3f4c:	02000011 	andeq	r0, r0, #17
    3f50:	6e690504 	cdpvs	5, 6, cr0, cr9, cr4, {0}
    3f54:	00030074 	andeq	r0, r3, r4, ror r0
    3f58:	02000000 	andeq	r0, r0, #0
    3f5c:	000037d4 	ldrdeq	r3, [r0], -r4
    3f60:	07040400 	streq	r0, [r4, -r0, lsl #8]
    3f64:	00000062 	andeq	r0, r0, r2, rrx
    3f68:	50060104 	andpl	r0, r6, r4, lsl #2
    3f6c:	04000002 	streq	r0, [r0], #-2
    3f70:	025c0502 	subseq	r0, ip, #8388608	; 0x800000
    3f74:	04040000 	streq	r0, [r4], #-0
    3f78:	00008305 	andeq	r8, r0, r5, lsl #6
    3f7c:	05080400 	streq	r0, [r8, #-1024]	; 0x400
    3f80:	0000007e 	andeq	r0, r0, lr, ror r0
    3f84:	0005f103 	andeq	pc, r5, r3, lsl #2
    3f88:	652e0300 	strvs	r0, [lr, #-768]!	; 0x300
    3f8c:	04000000 	streq	r0, [r0], #-0
    3f90:	024e0801 	subeq	r0, lr, #65536	; 0x10000
    3f94:	02040000 	andeq	r0, r4, #0
    3f98:	00011c07 	andeq	r1, r1, r7, lsl #24
    3f9c:	06480300 	strbeq	r0, [r8], -r0, lsl #6
    3fa0:	34030000 	strcc	r0, [r3], #-0
    3fa4:	0000007e 	andeq	r0, r0, lr, ror r0
    3fa8:	5d070404 	cfstrspl	mvf0, [r7, #-16]
    3fac:	04000000 	streq	r0, [r0], #-0
    3fb0:	00580708 	subseq	r0, r8, r8, lsl #14
    3fb4:	04040000 	streq	r0, [r4], #-0
    3fb8:	00018407 	andeq	r8, r1, r7, lsl #8
    3fbc:	04040500 	streq	r0, [r4], #-1280	; 0x500
    3fc0:	02570801 	subseq	r0, r7, #65536	; 0x10000
    3fc4:	0c060000 	stceq	0, cr0, [r6], {-0}
    3fc8:	00d30e04 	sbcseq	r0, r3, r4, lsl #28
    3fcc:	74070000 	strvc	r0, [r7], #-0
    3fd0:	0f040078 	svceq	0x00040078
    3fd4:	0000005a 	andeq	r0, r0, sl, asr r0
    3fd8:	78720700 	ldmdavc	r2!, {r8, r9, sl}^
    3fdc:	5a0f0400 	bpl	3c4fe4 <__bss_end__+0x3b2ac4>
    3fe0:	01000000 	mrseq	r0, (UNDEF: 0)
    3fe4:	0005bf08 	andeq	fp, r5, r8, lsl #30
    3fe8:	73100400 	tstvc	r0, #0, 8
    3fec:	04000000 	streq	r0, [r0], #-0
    3ff0:	00057008 	andeq	r7, r5, r8
    3ff4:	73110400 	tstvc	r1, #0, 8
    3ff8:	08000000 	stmdaeq	r0, {}	; <UNPREDICTABLE>
    3ffc:	05a80300 	streq	r0, [r8, #768]!	; 0x300
    4000:	12040000 	andne	r0, r4, #0
    4004:	0000009c 	muleq	r0, ip, r0
    4008:	10050109 	andne	r0, r5, r9, lsl #2
    400c:	000000f9 	strdeq	r0, [r0], -r9
    4010:	0005c40a 	andeq	ip, r5, sl, lsl #8
    4014:	b20a0100 	andlt	r0, sl, #0, 2
    4018:	02000005 	andeq	r0, r0, #5
    401c:	00059a0a 	andeq	r9, r5, sl, lsl #20
    4020:	03000300 	movweq	r0, #768	; 0x300
    4024:	000005d9 	ldrdeq	r0, [r0], -r9
    4028:	00de1005 	sbcseq	r1, lr, r5
    402c:	14060000 	strne	r0, [r6], #-0
    4030:	01311405 	teqeq	r1, r5, lsl #8
    4034:	51080000 	mrspl	r0, (UNDEF: 8)
    4038:	05000006 	streq	r0, [r0, #-6]
    403c:	00003715 	andeq	r3, r0, r5, lsl r7
    4040:	3c080000 	stccc	0, cr0, [r8], {-0}
    4044:	05000006 	streq	r0, [r0, #-6]
    4048:	0000f918 	andeq	pc, r0, r8, lsl r9	; <UNPREDICTABLE>
    404c:	07080400 	streq	r0, [r8, -r0, lsl #8]
    4050:	05000006 	streq	r0, [r0, #-6]
    4054:	0000d31b 	andeq	sp, r0, fp, lsl r3
    4058:	03000800 	movweq	r0, #2048	; 0x800
    405c:	000005f9 	strdeq	r0, [r0], -r9
    4060:	01042005 	tsteq	r4, r5
    4064:	850b0000 	strhi	r0, [fp, #-0]
    4068:	0100000c 	tsteq	r0, ip
    406c:	00017e05 	andeq	r7, r1, r5, lsl #28
    4070:	009af000 	addseq	pc, sl, r0
    4074:	00002800 	andeq	r2, r0, r0, lsl #16
    4078:	7e9c0100 	fmlvce	f0, f4, f0
    407c:	0c000001 	stceq	0, cr0, [r0], {1}
    4080:	06010063 	streq	r0, [r1], -r3, rrx
    4084:	0000017e 	andeq	r0, r0, lr, ror r1
    4088:	09000000 	stmdbeq	r0, {}	; <UNPREDICTABLE>
    408c:	009b040d 	addseq	r0, fp, sp, lsl #8
    4090:	0001ab00 	andeq	sl, r1, r0, lsl #22
    4094:	52010e00 	andpl	r0, r1, #0, 28
    4098:	010e3401 	tsteq	lr, r1, lsl #8
    409c:	0e300151 	mrceq	1, 1, r0, cr0, cr1, {2}
    40a0:	42035001 	andmi	r5, r3, #1
    40a4:	00002447 	andeq	r2, r0, r7, asr #8
    40a8:	0131040f 	teqeq	r1, pc, lsl #8
    40ac:	0f0b0000 	svceq	0x000b0000
    40b0:	01000006 	tsteq	r0, r6
    40b4:	00017e0c 	andeq	r7, r1, ip, lsl #28
    40b8:	009b1800 	addseq	r1, fp, r0, lsl #16
    40bc:	00002800 	andeq	r2, r0, r0, lsl #16
    40c0:	ab9c0100 	blge	fe7044c8 <__bss_end__+0xfe6f1fa8>
    40c4:	0c000001 	stceq	0, cr0, [r0], {1}
    40c8:	0d010063 	stceq	0, cr0, [r1, #-396]	; 0xfffffe74
    40cc:	0000017e 	andeq	r0, r0, lr, ror r1
    40d0:	09000000 	stmdbeq	r0, {}	; <UNPREDICTABLE>
    40d4:	03291000 	teqeq	r9, #0
    40d8:	1b060000 	blne	1840e0 <__bss_end__+0x171bc0>
    40dc:	00000093 	muleq	r0, r3, r0
    40e0:	00009311 	andeq	r9, r0, r1, lsl r3
    40e4:	00251100 	eoreq	r1, r5, r0, lsl #2
    40e8:	2c110000 	ldccs	0, cr0, [r1], {-0}
    40ec:	00000000 	andeq	r0, r0, r0
	...

Disassembly of section .debug_abbrev:

00000000 <.debug_abbrev>:
       0:	25011101 	strcs	r1, [r1, #-257]	; 0x101
       4:	030b130e 	movweq	r1, #45838	; 0xb30e
       8:	110e1b0e 	tstne	lr, lr, lsl #22
       c:	10061201 	andne	r1, r6, r1, lsl #4
      10:	02000017 	andeq	r0, r0, #23
      14:	0b0b0024 	bleq	2c00ac <__bss_end__+0x2adb8c>
      18:	08030b3e 	stmdaeq	r3, {r1, r2, r3, r4, r5, r8, r9, fp}
      1c:	16030000 	strne	r0, [r3], -r0
      20:	3a0e0300 	bcc	380c28 <__bss_end__+0x36e708>
      24:	490b3b0b 	stmdbmi	fp, {r0, r1, r3, r8, r9, fp, ip, sp}
      28:	04000013 	streq	r0, [r0], #-19
      2c:	0b0b0024 	bleq	2c00c4 <__bss_end__+0x2adba4>
      30:	0e030b3e 	vmoveq.16	d3[0], r0
      34:	0f050000 	svceq	0x00050000
      38:	000b0b00 	andeq	r0, fp, r0, lsl #22
      3c:	000f0600 	andeq	r0, pc, r0, lsl #12
      40:	13490b0b 	movtne	r0, #39691	; 0x9b0b
      44:	26070000 	strcs	r0, [r7], -r0
      48:	00134900 	andseq	r4, r3, r0, lsl #18
      4c:	01010800 	tsteq	r1, r0, lsl #16
      50:	13011349 	movwne	r1, #4937	; 0x1349
      54:	21090000 	mrscs	r0, (UNDEF: 9)
      58:	2f134900 	svccs	0x00134900
      5c:	0a00000b 	beq	90 <_start-0x7f70>
      60:	0b0b0104 	bleq	2c0478 <__bss_end__+0x2adf58>
      64:	0b3b0b3a 	bleq	ec2d54 <__bss_end__+0xeb0834>
      68:	00001301 	andeq	r1, r0, r1, lsl #6
      6c:	0300280b 	movweq	r2, #2059	; 0x80b
      70:	000d1c0e 	andeq	r1, sp, lr, lsl #24
      74:	01130c00 	tsteq	r3, r0, lsl #24
      78:	0b3a050b 	bleq	e814ac <__bss_end__+0xe6ef8c>
      7c:	13010b3b 	movwne	r0, #6971	; 0x1b3b
      80:	0d0d0000 	stceq	0, cr0, [sp, #-0]
      84:	3a0e0300 	bcc	380c8c <__bss_end__+0x36e76c>
      88:	490b3b0b 	stmdbmi	fp, {r0, r1, r3, r8, r9, fp, ip, sp}
      8c:	000b3813 	andeq	r3, fp, r3, lsl r8
      90:	000d0e00 	andeq	r0, sp, r0, lsl #28
      94:	0b3a0e03 	bleq	e838a8 <__bss_end__+0xe71388>
      98:	13490b3b 	movtne	r0, #39739	; 0x9b3b
      9c:	00000538 	andeq	r0, r0, r8, lsr r5
      a0:	03000d0f 	movweq	r0, #3343	; 0xd0f
      a4:	3b0b3a0e 	blcc	2ce8e4 <__bss_end__+0x2bc3c4>
      a8:	0b13490b 	bleq	4d24dc <__bss_end__+0x4bffbc>
      ac:	0c0b0d0b 	stceq	13, cr0, [fp], {11}
      b0:	0005380b 	andeq	r3, r5, fp, lsl #16
      b4:	00211000 	eoreq	r1, r1, r0
      b8:	052f1349 	streq	r1, [pc, #-841]!	; fffffd77 <__bss_end__+0xfffed857>
      bc:	35110000 	ldrcc	r0, [r1, #-0]
      c0:	00134900 	andseq	r4, r3, r0, lsl #18
      c4:	012e1200 	teqeq	lr, r0, lsl #4
      c8:	0b3a0e03 	bleq	e838dc <__bss_end__+0xe713bc>
      cc:	19270b3b 	stmdbne	r7!, {r0, r1, r3, r4, r5, r8, r9, fp}
      d0:	0b201349 	bleq	804dfc <__bss_end__+0x7f28dc>
      d4:	00001301 	andeq	r1, r0, r1, lsl #6
      d8:	03000513 	movweq	r0, #1299	; 0x513
      dc:	3b0b3a08 	blcc	2ce904 <__bss_end__+0x2bc3e4>
      e0:	0013490b 	andseq	r4, r3, fp, lsl #18
      e4:	00341400 	eorseq	r1, r4, r0, lsl #8
      e8:	0b3a0e03 	bleq	e838fc <__bss_end__+0xe713dc>
      ec:	13490b3b 	movtne	r0, #39739	; 0x9b3b
      f0:	2e150000 	cdpcs	0, 1, cr0, cr5, cr0, {0}
      f4:	3a0e0301 	bcc	380d00 <__bss_end__+0x36e7e0>
      f8:	270b3b0b 	strcs	r3, [fp, -fp, lsl #22]
      fc:	12011119 	andne	r1, r1, #1073741830	; 0x40000006
     100:	97184006 	ldrls	r4, [r8, -r6]
     104:	13011942 	movwne	r1, #6466	; 0x1942
     108:	05160000 	ldreq	r0, [r6, #-0]
     10c:	3a080300 	bcc	200d14 <__bss_end__+0x1ee7f4>
     110:	490b3b0b 	stmdbmi	fp, {r0, r1, r3, r8, r9, fp, ip, sp}
     114:	00170213 	andseq	r0, r7, r3, lsl r2
     118:	00051700 	andeq	r1, r5, r0, lsl #14
     11c:	0b3a0e03 	bleq	e83930 <__bss_end__+0xe71410>
     120:	13490b3b 	movtne	r0, #39739	; 0x9b3b
     124:	00001702 	andeq	r1, r0, r2, lsl #14
     128:	03003418 	movweq	r3, #1048	; 0x418
     12c:	3413490e 	ldrcc	r4, [r3], #-2318	; 0x90e
     130:	00180219 	andseq	r0, r8, r9, lsl r2
     134:	00341900 	eorseq	r1, r4, r0, lsl #18
     138:	0b3a0803 	bleq	e8214c <__bss_end__+0xe6fc2c>
     13c:	13490b3b 	movtne	r0, #39739	; 0x9b3b
     140:	00001702 	andeq	r1, r0, r2, lsl #14
     144:	31011d1a 	tstcc	r1, sl, lsl sp
     148:	12011113 	andne	r1, r1, #-1073741820	; 0xc0000004
     14c:	590b5806 	stmdbpl	fp, {r1, r2, fp, ip, lr}
     150:	0013010b 	andseq	r0, r3, fp, lsl #2
     154:	00051b00 	andeq	r1, r5, r0, lsl #22
     158:	18021331 	stmdane	r2, {r0, r4, r5, r8, r9, ip}
     15c:	1d1c0000 	ldcne	0, cr0, [ip, #-0]
     160:	52133101 	andspl	r3, r3, #1073741824	; 0x40000000
     164:	58175501 	ldmdapl	r7, {r0, r8, sl, ip, lr}
     168:	010b590b 	tsteq	fp, fp, lsl #18
     16c:	1d000013 	stcne	0, cr0, [r0, #-76]	; 0xffffffb4
     170:	1755010b 	ldrbne	r0, [r5, -fp, lsl #2]
     174:	341e0000 	ldrcc	r0, [lr], #-0
     178:	02133100 	andseq	r3, r3, #0, 2
     17c:	1f000017 	svcne	0x00000017
     180:	1331011d 	teqne	r1, #1073741831	; 0x40000007
     184:	06120111 			; <UNDEFINED> instruction: 0x06120111
     188:	0b590b58 	bleq	1642ef0 <__bss_end__+0x16309d0>
     18c:	89200000 	stmdbhi	r0!, {}	; <UNPREDICTABLE>
     190:	11010182 	smlabbne	r1, r2, r1, r0
     194:	01133101 	tsteq	r3, r1, lsl #2
     198:	21000013 	tstcs	r0, r3, lsl r0
     19c:	0001828a 	andeq	r8, r1, sl, lsl #5
     1a0:	42911802 	addsmi	r1, r1, #131072	; 0x20000
     1a4:	22000018 	andcs	r0, r0, #24
     1a8:	00018289 	andeq	r8, r1, r9, lsl #5
     1ac:	13310111 	teqne	r1, #1073741828	; 0x40000004
     1b0:	2e230000 	cdpcs	0, 2, cr0, cr3, cr0, {0}
     1b4:	03193f01 	tsteq	r9, #1, 30
     1b8:	3b0b3a0e 	blcc	2ce9f8 <__bss_end__+0x2bc4d8>
     1bc:	1119270b 	tstne	r9, fp, lsl #14
     1c0:	40061201 	andmi	r1, r6, r1, lsl #4
     1c4:	19429718 	stmdbne	r2, {r3, r4, r8, r9, sl, ip, pc}^
     1c8:	00001301 	andeq	r1, r0, r1, lsl #6
     1cc:	01828924 	orreq	r8, r2, r4, lsr #18
     1d0:	31011101 	tstcc	r1, r1, lsl #2
     1d4:	25000013 	strcs	r0, [r0, #-19]
     1d8:	0e030034 	mcreq	0, 0, r0, cr3, cr4, {1}
     1dc:	0b3b0b3a 	bleq	ec2ecc <__bss_end__+0xeb09ac>
     1e0:	18021349 	stmdane	r2, {r0, r3, r6, r8, r9, ip}
     1e4:	34260000 	strtcc	r0, [r6], #-0
     1e8:	3a0e0300 	bcc	380df0 <__bss_end__+0x36e8d0>
     1ec:	490b3b0b 	stmdbmi	fp, {r0, r1, r3, r8, r9, fp, ip, sp}
     1f0:	000b1c13 	andeq	r1, fp, r3, lsl ip
     1f4:	00342700 	eorseq	r2, r4, r0, lsl #14
     1f8:	0b3a0e03 	bleq	e83a0c <__bss_end__+0xe714ec>
     1fc:	13490b3b 	movtne	r0, #39739	; 0x9b3b
     200:	1802193f 	stmdane	r2, {r0, r1, r2, r3, r4, r5, r8, fp, ip}
     204:	2e280000 	cdpcs	0, 2, cr0, cr8, cr0, {0}
     208:	03193f01 	tsteq	r9, #1, 30
     20c:	3b0b3a0e 	blcc	2cea4c <__bss_end__+0x2bc52c>
     210:	4919270b 	ldmdbmi	r9, {r0, r1, r3, r8, r9, sl, sp}
     214:	01193c13 	tsteq	r9, r3, lsl ip
     218:	29000013 	stmdbcs	r0, {r0, r1, r4}
     21c:	13490005 	movtne	r0, #36869	; 0x9005
     220:	2e2a0000 	cdpcs	0, 2, cr0, cr10, cr0, {0}
     224:	03193f00 	tsteq	r9, #0, 30
     228:	3b0b3a0e 	blcc	2cea68 <__bss_end__+0x2bc548>
     22c:	3c19270b 	ldccc	7, cr2, [r9], {11}
     230:	2b000019 	blcs	29c <_start-0x7d64>
     234:	00000018 	andeq	r0, r0, r8, lsl r0
     238:	3f012e2c 	svccc	0x00012e2c
     23c:	3a0e0319 	bcc	380ea8 <__bss_end__+0x36e988>
     240:	270b3b0b 	strcs	r3, [fp, -fp, lsl #22]
     244:	01193c19 	tsteq	r9, r9, lsl ip
     248:	00000013 	andeq	r0, r0, r3, lsl r0
     24c:	25011101 	strcs	r1, [r1, #-257]	; 0x101
     250:	030b130e 	movweq	r1, #45838	; 0xb30e
     254:	110e1b0e 	tstne	lr, lr, lsl #22
     258:	10061201 	andne	r1, r6, r1, lsl #4
     25c:	02000017 	andeq	r0, r0, #23
     260:	0b0b0024 	bleq	2c02f8 <__bss_end__+0x2addd8>
     264:	0e030b3e 	vmoveq.16	d3[0], r0
     268:	24030000 	strcs	r0, [r3], #-0
     26c:	3e0b0b00 	vmlacc.f64	d0, d11, d0
     270:	0008030b 	andeq	r0, r8, fp, lsl #6
     274:	000f0400 	andeq	r0, pc, r0, lsl #8
     278:	00000b0b 	andeq	r0, r0, fp, lsl #22
     27c:	0b000f05 	bleq	3e98 <_start-0x4168>
     280:	0013490b 	andseq	r4, r3, fp, lsl #18
     284:	00160600 	andseq	r0, r6, r0, lsl #12
     288:	0b3a0e03 	bleq	e83a9c <__bss_end__+0xe7157c>
     28c:	13490b3b 	movtne	r0, #39739	; 0x9b3b
     290:	2e070000 	cdpcs	0, 0, cr0, cr7, cr0, {0}
     294:	03193f01 	tsteq	r9, #1, 30
     298:	3b0b3a0e 	blcc	2cead8 <__bss_end__+0x2bc5b8>
     29c:	4919270b 	ldmdbmi	r9, {r0, r1, r3, r8, r9, sl, sp}
     2a0:	12011113 	andne	r1, r1, #-1073741820	; 0xc0000004
     2a4:	97184006 	ldrls	r4, [r8, -r6]
     2a8:	00001942 	andeq	r1, r0, r2, asr #18
     2ac:	03000508 	movweq	r0, #1288	; 0x508
     2b0:	3b0b3a08 	blcc	2cead8 <__bss_end__+0x2bc5b8>
     2b4:	0213490b 	andseq	r4, r3, #180224	; 0x2c000
     2b8:	09000018 	stmdbeq	r0, {r3, r4}
     2bc:	08030005 	stmdaeq	r3, {r0, r2}
     2c0:	0b3b0b3a 	bleq	ec2fb0 <__bss_end__+0xeb0a90>
     2c4:	17021349 	strne	r1, [r2, -r9, asr #6]
     2c8:	340a0000 	strcc	r0, [sl], #-0
     2cc:	3a080300 	bcc	200ed4 <__bss_end__+0x1ee9b4>
     2d0:	490b3b0b 	stmdbmi	fp, {r0, r1, r3, r8, r9, fp, ip, sp}
     2d4:	00170213 	andseq	r0, r7, r3, lsl r2
     2d8:	00340b00 	eorseq	r0, r4, r0, lsl #22
     2dc:	0b3a0803 	bleq	e822f0 <__bss_end__+0xe6fdd0>
     2e0:	13490b3b 	movtne	r0, #39739	; 0x9b3b
     2e4:	00001802 	andeq	r1, r0, r2, lsl #16
     2e8:	01110100 	tsteq	r1, r0, lsl #2
     2ec:	0b130e25 	bleq	4c3b88 <__bss_end__+0x4b1668>
     2f0:	0e1b0e03 	cdpeq	14, 1, cr0, cr11, cr3, {0}
     2f4:	06120111 			; <UNDEFINED> instruction: 0x06120111
     2f8:	00001710 	andeq	r1, r0, r0, lsl r7
     2fc:	03001602 	movweq	r1, #1538	; 0x602
     300:	3b0b3a0e 	blcc	2ceb40 <__bss_end__+0x2bc620>
     304:	0013490b 	andseq	r4, r3, fp, lsl #18
     308:	01130300 	tsteq	r3, r0, lsl #6
     30c:	0b0b0e03 	bleq	2c3b20 <__bss_end__+0x2b1600>
     310:	0b3b0b3a 	bleq	ec3000 <__bss_end__+0xeb0ae0>
     314:	00001301 	andeq	r1, r0, r1, lsl #6
     318:	03000d04 	movweq	r0, #3332	; 0xd04
     31c:	3813490e 	ldmdacc	r3, {r1, r2, r3, r8, fp, lr}
     320:	0019340b 	andseq	r3, r9, fp, lsl #8
     324:	000f0500 	andeq	r0, pc, r0, lsl #10
     328:	00000b0b 	andeq	r0, r0, fp, lsl #22
     32c:	0b002406 	bleq	934c <sw_uart_getc_timeout+0x1b8>
     330:	030b3e0b 	movweq	r3, #48651	; 0xbe0b
     334:	07000008 	streq	r0, [r0, -r8]
     338:	0b0b0024 	bleq	2c03d0 <__bss_end__+0x2adeb0>
     33c:	0e030b3e 	vmoveq.16	d3[0], r0
     340:	0f080000 	svceq	0x00080000
     344:	490b0b00 	stmdbmi	fp, {r8, r9, fp}
     348:	09000013 	stmdbeq	r0, {r0, r1, r4}
     34c:	13490026 	movtne	r0, #36902	; 0x9026
     350:	2e0a0000 	cdpcs	0, 0, cr0, cr10, cr0, {0}
     354:	03193f01 	tsteq	r9, #1, 30
     358:	3b0b3a0e 	blcc	2ceb98 <__bss_end__+0x2bc678>
     35c:	4919270b 	ldmdbmi	r9, {r0, r1, r3, r8, r9, sl, sp}
     360:	12011113 	andne	r1, r1, #-1073741820	; 0xc0000004
     364:	97184006 	ldrls	r4, [r8, -r6]
     368:	13011942 	movwne	r1, #6466	; 0x1942
     36c:	050b0000 	streq	r0, [fp, #-0]
     370:	3a080300 	bcc	200f78 <__bss_end__+0x1eea58>
     374:	490b3b0b 	stmdbmi	fp, {r0, r1, r3, r8, r9, fp, ip, sp}
     378:	00180213 	andseq	r0, r8, r3, lsl r2
     37c:	00180c00 	andseq	r0, r8, r0, lsl #24
     380:	340d0000 	strcc	r0, [sp], #-0
     384:	3a080300 	bcc	200f8c <__bss_end__+0x1eea6c>
     388:	490b3b0b 	stmdbmi	fp, {r0, r1, r3, r8, r9, fp, ip, sp}
     38c:	00180213 	andseq	r0, r8, r3, lsl r2
     390:	00340e00 	eorseq	r0, r4, r0, lsl #28
     394:	0b3a0e03 	bleq	e83ba8 <__bss_end__+0xe71688>
     398:	13490b3b 	movtne	r0, #39739	; 0x9b3b
     39c:	00001802 	andeq	r1, r0, r2, lsl #16
     3a0:	0300340f 	movweq	r3, #1039	; 0x40f
     3a4:	3b0b3a08 	blcc	2cebcc <__bss_end__+0x2bc6ac>
     3a8:	0213490b 	andseq	r4, r3, #180224	; 0x2c000
     3ac:	10000017 	andne	r0, r0, r7, lsl r0
     3b0:	01018289 	smlabbeq	r1, r9, r2, r8
     3b4:	13310111 	teqne	r1, #1073741828	; 0x40000004
     3b8:	00001301 	andeq	r1, r0, r1, lsl #6
     3bc:	01828a11 	orreq	r8, r2, r1, lsl sl
     3c0:	91180200 	tstls	r8, r0, lsl #4
     3c4:	00001842 	andeq	r1, r0, r2, asr #16
     3c8:	01828912 	orreq	r8, r2, r2, lsl r9
     3cc:	00011101 	andeq	r1, r1, r1, lsl #2
     3d0:	01011300 	mrseq	r1, SP_irq
     3d4:	13011349 	movwne	r1, #4937	; 0x1349
     3d8:	21140000 	tstcs	r4, r0
     3dc:	2f134900 	svccs	0x00134900
     3e0:	15000005 	strne	r0, [r0, #-5]
     3e4:	19270115 	stmdbne	r7!, {r0, r2, r4, r8}
     3e8:	13011349 	movwne	r1, #4937	; 0x1349
     3ec:	05160000 	ldreq	r0, [r6, #-0]
     3f0:	00134900 	andseq	r4, r3, r0, lsl #18
     3f4:	00341700 	eorseq	r1, r4, r0, lsl #14
     3f8:	0b3a0e03 	bleq	e83c0c <__bss_end__+0xe716ec>
     3fc:	13490b3b 	movtne	r0, #39739	; 0x9b3b
     400:	193c193f 	ldmdbne	ip!, {r0, r1, r2, r3, r4, r5, r8, fp, ip}
     404:	2e180000 	cdpcs	0, 1, cr0, cr8, cr0, {0}
     408:	03193f01 	tsteq	r9, #1, 30
     40c:	3b0b3a0e 	blcc	2cec4c <__bss_end__+0x2bc72c>
     410:	4919270b 	ldmdbmi	r9, {r0, r1, r3, r8, r9, sl, sp}
     414:	00193c13 	andseq	r3, r9, r3, lsl ip
     418:	11010000 	mrsne	r0, (UNDEF: 1)
     41c:	130e2501 	movwne	r2, #58625	; 0xe501
     420:	1b0e030b 	blne	381054 <__bss_end__+0x36eb34>
     424:	1201110e 	andne	r1, r1, #-2147483645	; 0x80000003
     428:	00171006 	andseq	r1, r7, r6
     42c:	00240200 	eoreq	r0, r4, r0, lsl #4
     430:	0b3e0b0b 	bleq	f83064 <__bss_end__+0xf70b44>
     434:	00000803 	andeq	r0, r0, r3, lsl #16
     438:	0b002403 	bleq	944c <sw_uart_gets_timeout+0x60>
     43c:	030b3e0b 	movweq	r3, #48651	; 0xbe0b
     440:	0400000e 	streq	r0, [r0], #-14
     444:	0e03012e 	adfeqsp	f0, f3, #0.5
     448:	0b3b0b3a 	bleq	ec3138 <__bss_end__+0xeb0c18>
     44c:	13491927 	movtne	r1, #39207	; 0x9927
     450:	06120111 			; <UNDEFINED> instruction: 0x06120111
     454:	42971840 	addsmi	r1, r7, #64, 16	; 0x400000
     458:	00130119 	andseq	r0, r3, r9, lsl r1
     45c:	00050500 	andeq	r0, r5, r0, lsl #10
     460:	0b3a0803 	bleq	e82474 <__bss_end__+0xe6ff54>
     464:	13490b3b 	movtne	r0, #39739	; 0x9b3b
     468:	00001702 	andeq	r1, r0, r2, lsl #14
     46c:	01828906 	orreq	r8, r2, r6, lsl #18
     470:	31011101 	tstcc	r1, r1, lsl #2
     474:	07000013 	smladeq	r0, r3, r0, r0
     478:	0001828a 	andeq	r8, r1, sl, lsl #5
     47c:	42911802 	addsmi	r1, r1, #131072	; 0x20000
     480:	08000018 	stmdaeq	r0, {r3, r4}
     484:	193f002e 	ldmdbne	pc!, {r1, r2, r3, r5}	; <UNPREDICTABLE>
     488:	0b3a0e03 	bleq	e83c9c <__bss_end__+0xe7177c>
     48c:	19270b3b 	stmdbne	r7!, {r0, r1, r3, r4, r5, r8, r9, fp}
     490:	06120111 			; <UNDEFINED> instruction: 0x06120111
     494:	42971840 	addsmi	r1, r7, #64, 16	; 0x400000
     498:	09000019 	stmdbeq	r0, {r0, r3, r4}
     49c:	193f012e 	ldmdbne	pc!, {r1, r2, r3, r5, r8}	; <UNPREDICTABLE>
     4a0:	0b3a0e03 	bleq	e83cb4 <__bss_end__+0xe71794>
     4a4:	19270b3b 	stmdbne	r7!, {r0, r1, r3, r4, r5, r8, r9, fp}
     4a8:	06120111 			; <UNDEFINED> instruction: 0x06120111
     4ac:	42971840 	addsmi	r1, r7, #64, 16	; 0x400000
     4b0:	00130119 	andseq	r0, r3, r9, lsl r1
     4b4:	00050a00 	andeq	r0, r5, r0, lsl #20
     4b8:	0b3a0803 	bleq	e824cc <__bss_end__+0xe6ffac>
     4bc:	13490b3b 	movtne	r0, #39739	; 0x9b3b
     4c0:	00001802 	andeq	r1, r0, r2, lsl #16
     4c4:	2701150b 	strcs	r1, [r1, -fp, lsl #10]
     4c8:	01134919 	tsteq	r3, r9, lsl r9
     4cc:	0c000013 	stceq	0, cr0, [r0], {19}
     4d0:	13490005 	movtne	r0, #36869	; 0x9005
     4d4:	0f0d0000 	svceq	0x000d0000
     4d8:	490b0b00 	stmdbmi	fp, {r8, r9, fp}
     4dc:	0e000013 	mcreq	0, 0, r0, cr0, cr3, {0}
     4e0:	0e030034 	mcreq	0, 0, r0, cr3, cr4, {1}
     4e4:	0b3b0b3a 	bleq	ec31d4 <__bss_end__+0xeb0cb4>
     4e8:	193f1349 	ldmdbne	pc!, {r0, r3, r6, r8, r9, ip}	; <UNPREDICTABLE>
     4ec:	00001802 	andeq	r1, r0, r2, lsl #16
     4f0:	3f012e0f 	svccc	0x00012e0f
     4f4:	3a0e0319 	bcc	381160 <__bss_end__+0x36ec40>
     4f8:	270b3b0b 	strcs	r3, [fp, -fp, lsl #22]
     4fc:	00193c19 	andseq	r3, r9, r9, lsl ip
     500:	11010000 	mrsne	r0, (UNDEF: 1)
     504:	130e2501 	movwne	r2, #58625	; 0xe501
     508:	1b0e030b 	blne	38113c <__bss_end__+0x36ec1c>
     50c:	1201110e 	andne	r1, r1, #-2147483645	; 0x80000003
     510:	00171006 	andseq	r1, r7, r6
     514:	00240200 	eoreq	r0, r4, r0, lsl #4
     518:	0b3e0b0b 	bleq	f8314c <__bss_end__+0xf70c2c>
     51c:	00000803 	andeq	r0, r0, r3, lsl #16
     520:	0b002403 	bleq	9534 <sw_uart_getc+0xc>
     524:	030b3e0b 	movweq	r3, #48651	; 0xbe0b
     528:	0400000e 	streq	r0, [r0], #-14
     52c:	0b0b000f 	bleq	2c0570 <__bss_end__+0x2ae050>
     530:	00001349 	andeq	r1, r0, r9, asr #6
     534:	49002605 	stmdbmi	r0, {r0, r2, r9, sl, sp}
     538:	06000013 			; <UNDEFINED> instruction: 0x06000013
     53c:	193f012e 	ldmdbne	pc!, {r1, r2, r3, r5, r8}	; <UNPREDICTABLE>
     540:	0b3a0e03 	bleq	e83d54 <__bss_end__+0xe71834>
     544:	19270b3b 	stmdbne	r7!, {r0, r1, r3, r4, r5, r8, r9, fp}
     548:	01111349 	tsteq	r1, r9, asr #6
     54c:	18400612 	stmdane	r0, {r1, r4, r9, sl}^
     550:	01194296 			; <UNDEFINED> instruction: 0x01194296
     554:	07000013 	smladeq	r0, r3, r0, r0
     558:	08030005 	stmdaeq	r3, {r0, r2}
     55c:	0b3b0b3a 	bleq	ec324c <__bss_end__+0xeb0d2c>
     560:	17021349 	strne	r1, [r2, -r9, asr #6]
     564:	15080000 	strne	r0, [r8, #-0]
     568:	49192701 	ldmdbmi	r9, {r0, r8, r9, sl, sp}
     56c:	00130113 	andseq	r0, r3, r3, lsl r1
     570:	00050900 	andeq	r0, r5, r0, lsl #18
     574:	00001349 	andeq	r1, r0, r9, asr #6
     578:	0300340a 	movweq	r3, #1034	; 0x40a
     57c:	3b0b3a0e 	blcc	2cedbc <__bss_end__+0x2bc89c>
     580:	3f13490b 	svccc	0x0013490b
     584:	00193c19 	andseq	r3, r9, r9, lsl ip
     588:	00340b00 	eorseq	r0, r4, r0, lsl #22
     58c:	0b3a0e03 	bleq	e83da0 <__bss_end__+0xe71880>
     590:	13490b3b 	movtne	r0, #39739	; 0x9b3b
     594:	1802193f 	stmdane	r2, {r0, r1, r2, r3, r4, r5, r8, fp, ip}
     598:	01000000 	mrseq	r0, (UNDEF: 0)
     59c:	0e250111 	mcreq	1, 1, r0, cr5, cr1, {0}
     5a0:	0e030b13 	vmoveq.32	d3[0], r0
     5a4:	01110e1b 	tsteq	r1, fp, lsl lr
     5a8:	17100612 			; <UNDEFINED> instruction: 0x17100612
     5ac:	24020000 	strcs	r0, [r2], #-0
     5b0:	3e0b0b00 	vmlacc.f64	d0, d11, d0
     5b4:	0008030b 	andeq	r0, r8, fp, lsl #6
     5b8:	00240300 	eoreq	r0, r4, r0, lsl #6
     5bc:	0b3e0b0b 	bleq	f831f0 <__bss_end__+0xf70cd0>
     5c0:	00000e03 	andeq	r0, r0, r3, lsl #28
     5c4:	0b000f04 	bleq	41dc <_start-0x3e24>
     5c8:	0500000b 	streq	r0, [r0, #-11]
     5cc:	0b0b000f 	bleq	2c0610 <__bss_end__+0x2ae0f0>
     5d0:	00001349 	andeq	r1, r0, r9, asr #6
     5d4:	49002606 	stmdbmi	r0, {r1, r2, r9, sl, sp}
     5d8:	07000013 	smladeq	r0, r3, r0, r0
     5dc:	0e030016 	mcreq	0, 0, r0, cr3, cr6, {0}
     5e0:	0b3b0b3a 	bleq	ec32d0 <__bss_end__+0xeb0db0>
     5e4:	00001349 	andeq	r1, r0, r9, asr #6
     5e8:	03011308 	movweq	r1, #4872	; 0x1308
     5ec:	3a0b0b0e 	bcc	2c322c <__bss_end__+0x2b0d0c>
     5f0:	010b3b0b 	tsteq	fp, fp, lsl #22
     5f4:	09000013 	stmdbeq	r0, {r0, r1, r4}
     5f8:	0e03000d 	cdpeq	0, 0, cr0, cr3, cr13, {0}
     5fc:	0b381349 	bleq	e05328 <__bss_end__+0xdf2e08>
     600:	00001934 	andeq	r1, r0, r4, lsr r9
     604:	03012e0a 	movweq	r2, #7690	; 0x1e0a
     608:	3b0b3a0e 	blcc	2cee48 <__bss_end__+0x2bc928>
     60c:	4919270b 	ldmdbmi	r9, {r0, r1, r3, r8, r9, sl, sp}
     610:	12011113 	andne	r1, r1, #-1073741820	; 0xc0000004
     614:	97184006 	ldrls	r4, [r8, -r6]
     618:	13011942 	movwne	r1, #6466	; 0x1942
     61c:	050b0000 	streq	r0, [fp, #-0]
     620:	3a080300 	bcc	201228 <__bss_end__+0x1eed08>
     624:	490b3b0b 	stmdbmi	fp, {r0, r1, r3, r8, r9, fp, ip, sp}
     628:	00170213 	andseq	r0, r7, r3, lsl r2
     62c:	012e0c00 	teqeq	lr, r0, lsl #24
     630:	0b3a0803 	bleq	e82644 <__bss_end__+0xe70124>
     634:	19270b3b 	stmdbne	r7!, {r0, r1, r3, r4, r5, r8, r9, fp}
     638:	01111349 	tsteq	r1, r9, asr #6
     63c:	18400612 	stmdane	r0, {r1, r4, r9, sl}^
     640:	01194297 			; <UNDEFINED> instruction: 0x01194297
     644:	0d000013 	stceq	0, cr0, [r0, #-76]	; 0xffffffb4
     648:	0e030005 	cdpeq	0, 0, cr0, cr3, cr5, {0}
     64c:	0b3b0b3a 	bleq	ec333c <__bss_end__+0xeb0e1c>
     650:	17021349 	strne	r1, [r2, -r9, asr #6]
     654:	050e0000 	streq	r0, [lr, #-0]
     658:	3a0e0300 	bcc	381260 <__bss_end__+0x36ed40>
     65c:	490b3b0b 	stmdbmi	fp, {r0, r1, r3, r8, r9, fp, ip, sp}
     660:	00180213 	andseq	r0, r8, r3, lsl r2
     664:	00340f00 	eorseq	r0, r4, r0, lsl #30
     668:	0b3a0803 	bleq	e8267c <__bss_end__+0xe7015c>
     66c:	13490b3b 	movtne	r0, #39739	; 0x9b3b
     670:	00001802 	andeq	r1, r0, r2, lsl #16
     674:	03003410 	movweq	r3, #1040	; 0x410
     678:	3b0b3a08 	blcc	2ceea0 <__bss_end__+0x2bc980>
     67c:	0213490b 	andseq	r4, r3, #180224	; 0x2c000
     680:	11000017 	tstne	r0, r7, lsl r0
     684:	0e030034 	mcreq	0, 0, r0, cr3, cr4, {1}
     688:	19341349 	ldmdbne	r4!, {r0, r3, r6, r8, r9, ip}
     68c:	00001802 	andeq	r1, r0, r2, lsl #16
     690:	11010b12 	tstne	r1, r2, lsl fp
     694:	01061201 	tsteq	r6, r1, lsl #4
     698:	13000013 	movwne	r0, #19
     69c:	0e030034 	mcreq	0, 0, r0, cr3, cr4, {1}
     6a0:	0b3b0b3a 	bleq	ec3390 <__bss_end__+0xeb0e70>
     6a4:	17021349 	strne	r1, [r2, -r9, asr #6]
     6a8:	89140000 	ldmdbhi	r4, {}	; <UNPREDICTABLE>
     6ac:	11000182 	smlabbne	r0, r2, r1, r0
     6b0:	00133101 	andseq	r3, r3, r1, lsl #2
     6b4:	82891500 	addhi	r1, r9, #0, 10
     6b8:	01110101 	tsteq	r1, r1, lsl #2
     6bc:	13011331 	movwne	r1, #4913	; 0x1331
     6c0:	8a160000 	bhi	5806c8 <__bss_end__+0x56e1a8>
     6c4:	02000182 	andeq	r0, r0, #-2147483616	; 0x80000020
     6c8:	18429118 	stmdane	r2, {r3, r4, r8, ip, pc}^
     6cc:	89170000 	ldmdbhi	r7, {}	; <UNPREDICTABLE>
     6d0:	11010182 	smlabbne	r1, r2, r1, r0
     6d4:	00133101 	andseq	r3, r3, r1, lsl #2
     6d8:	01011800 	tsteq	r1, r0, lsl #16
     6dc:	13011349 	movwne	r1, #4937	; 0x1349
     6e0:	21190000 	tstcs	r9, r0
     6e4:	2f134900 	svccs	0x00134900
     6e8:	1a00000b 	bne	71c <_start-0x78e4>
     6ec:	193f012e 	ldmdbne	pc!, {r1, r2, r3, r5, r8}	; <UNPREDICTABLE>
     6f0:	0b3a0e03 	bleq	e83f04 <__bss_end__+0xe719e4>
     6f4:	19270b3b 	stmdbne	r7!, {r0, r1, r3, r4, r5, r8, r9, fp}
     6f8:	06120111 			; <UNDEFINED> instruction: 0x06120111
     6fc:	42971840 	addsmi	r1, r7, #64, 16	; 0x400000
     700:	00130119 	andseq	r0, r3, r9, lsl r1
     704:	01151b00 	tsteq	r5, r0, lsl #22
     708:	13491927 	movtne	r1, #39207	; 0x9927
     70c:	00001301 	andeq	r1, r0, r1, lsl #6
     710:	4900051c 	stmdbmi	r0, {r2, r3, r4, r8, sl}
     714:	1d000013 	stcne	0, cr0, [r0, #-76]	; 0xffffffb4
     718:	193f012e 	ldmdbne	pc!, {r1, r2, r3, r5, r8}	; <UNPREDICTABLE>
     71c:	0b3a0e03 	bleq	e83f30 <__bss_end__+0xe71a10>
     720:	19270b3b 	stmdbne	r7!, {r0, r1, r3, r4, r5, r8, r9, fp}
     724:	01111349 	tsteq	r1, r9, asr #6
     728:	18400612 	stmdane	r0, {r1, r4, r9, sl}^
     72c:	01194297 			; <UNDEFINED> instruction: 0x01194297
     730:	1e000013 	mcrne	0, 0, r0, cr0, cr3, {0}
     734:	1755010b 	ldrbne	r0, [r5, -fp, lsl #2]
     738:	341f0000 	ldrcc	r0, [pc], #-0	; 740 <_start-0x78c0>
     73c:	3a0e0300 	bcc	381344 <__bss_end__+0x36ee24>
     740:	490b3b0b 	stmdbmi	fp, {r0, r1, r3, r8, r9, fp, ip, sp}
     744:	3c193f13 	ldccc	15, cr3, [r9], {19}
     748:	20000019 	andcs	r0, r0, r9, lsl r0
     74c:	193f002e 	ldmdbne	pc!, {r1, r2, r3, r5}	; <UNPREDICTABLE>
     750:	0b3a0e03 	bleq	e83f64 <__bss_end__+0xe71a44>
     754:	19270b3b 	stmdbne	r7!, {r0, r1, r3, r4, r5, r8, r9, fp}
     758:	0000193c 	andeq	r1, r0, ip, lsr r9
     75c:	3f012e21 	svccc	0x00012e21
     760:	3a0e0319 	bcc	3813cc <__bss_end__+0x36eeac>
     764:	270b3b0b 	strcs	r3, [fp, -fp, lsl #22]
     768:	3c134919 	ldccc	9, cr4, [r3], {25}
     76c:	00130119 	andseq	r0, r3, r9, lsl r1
     770:	00182200 	andseq	r2, r8, r0, lsl #4
     774:	01000000 	mrseq	r0, (UNDEF: 0)
     778:	0e250111 	mcreq	1, 1, r0, cr5, cr1, {0}
     77c:	0e030b13 	vmoveq.32	d3[0], r0
     780:	01110e1b 	tsteq	r1, fp, lsl lr
     784:	17100612 			; <UNDEFINED> instruction: 0x17100612
     788:	24020000 	strcs	r0, [r2], #-0
     78c:	3e0b0b00 	vmlacc.f64	d0, d11, d0
     790:	0008030b 	andeq	r0, r8, fp, lsl #6
     794:	00240300 	eoreq	r0, r4, r0, lsl #6
     798:	0b3e0b0b 	bleq	f833cc <__bss_end__+0xf70eac>
     79c:	00000e03 	andeq	r0, r0, r3, lsl #28
     7a0:	3f012e04 	svccc	0x00012e04
     7a4:	3a0e0319 	bcc	381410 <__bss_end__+0x36eef0>
     7a8:	270b3b0b 	strcs	r3, [fp, -fp, lsl #22]
     7ac:	12011119 	andne	r1, r1, #1073741830	; 0x40000006
     7b0:	97184006 	ldrls	r4, [r8, -r6]
     7b4:	13011942 	movwne	r1, #6466	; 0x1942
     7b8:	34050000 	strcc	r0, [r5], #-0
     7bc:	3a080300 	bcc	2013c4 <__bss_end__+0x1eeea4>
     7c0:	490b3b0b 	stmdbmi	fp, {r0, r1, r3, r8, r9, fp, ip, sp}
     7c4:	00170213 	andseq	r0, r7, r3, lsl r2
     7c8:	012e0600 	teqeq	lr, r0, lsl #12
     7cc:	0e03193f 	mcreq	9, 0, r1, cr3, cr15, {1}
     7d0:	0b3b0b3a 	bleq	ec34c0 <__bss_end__+0xeb0fa0>
     7d4:	01111927 	tsteq	r1, r7, lsr #18
     7d8:	18400612 	stmdane	r0, {r1, r4, r9, sl}^
     7dc:	00194297 	mulseq	r9, r7, r2
     7e0:	11010000 	mrsne	r0, (UNDEF: 1)
     7e4:	130e2501 	movwne	r2, #58625	; 0xe501
     7e8:	1b0e030b 	blne	38141c <__bss_end__+0x36eefc>
     7ec:	1201110e 	andne	r1, r1, #-2147483645	; 0x80000003
     7f0:	00171006 	andseq	r1, r7, r6
     7f4:	00240200 	eoreq	r0, r4, r0, lsl #4
     7f8:	0b3e0b0b 	bleq	f8342c <__bss_end__+0xf70f0c>
     7fc:	00000803 	andeq	r0, r0, r3, lsl #16
     800:	0b002403 	bleq	9814 <int_init+0x60>
     804:	030b3e0b 	movweq	r3, #48651	; 0xbe0b
     808:	0400000e 	streq	r0, [r0], #-14
     80c:	0b0b000f 	bleq	2c0850 <__bss_end__+0x2ae330>
     810:	00001349 	andeq	r1, r0, r9, asr #6
     814:	49002605 	stmdbmi	r0, {r0, r2, r9, sl, sp}
     818:	06000013 			; <UNDEFINED> instruction: 0x06000013
     81c:	193f012e 	ldmdbne	pc!, {r1, r2, r3, r5, r8}	; <UNPREDICTABLE>
     820:	0b3a0e03 	bleq	e84034 <__bss_end__+0xe71b14>
     824:	19270b3b 	stmdbne	r7!, {r0, r1, r3, r4, r5, r8, r9, fp}
     828:	06120111 			; <UNDEFINED> instruction: 0x06120111
     82c:	42971840 	addsmi	r1, r7, #64, 16	; 0x400000
     830:	00130119 	andseq	r0, r3, r9, lsl r1
     834:	82890700 	addhi	r0, r9, #0, 14
     838:	01110101 	tsteq	r1, r1, lsl #2
     83c:	00001301 	andeq	r1, r0, r1, lsl #6
     840:	01828a08 	orreq	r8, r2, r8, lsl #20
     844:	91180200 	tstls	r8, r0, lsl #4
     848:	00001842 	andeq	r1, r0, r2, asr #16
     84c:	01828909 	orreq	r8, r2, r9, lsl #18
     850:	31011101 	tstcc	r1, r1, lsl #2
     854:	00130113 	andseq	r0, r3, r3, lsl r1
     858:	82890a00 	addhi	r0, r9, #0, 20
     85c:	01110001 	tsteq	r1, r1
     860:	00001331 	andeq	r1, r0, r1, lsr r3
     864:	2701150b 	strcs	r1, [r1, -fp, lsl #10]
     868:	01134919 	tsteq	r3, r9, lsl r9
     86c:	0c000013 	stceq	0, cr0, [r0], {19}
     870:	13490005 	movtne	r0, #36869	; 0x9005
     874:	340d0000 	strcc	r0, [sp], #-0
     878:	3a0e0300 	bcc	381480 <__bss_end__+0x36ef60>
     87c:	490b3b0b 	stmdbmi	fp, {r0, r1, r3, r8, r9, fp, ip, sp}
     880:	3c193f13 	ldccc	15, cr3, [r9], {19}
     884:	0e000019 	mcreq	0, 0, r0, cr0, cr9, {0}
     888:	193f012e 	ldmdbne	pc!, {r1, r2, r3, r5, r8}	; <UNPREDICTABLE>
     88c:	0b3a0e03 	bleq	e840a0 <__bss_end__+0xe71b80>
     890:	19270b3b 	stmdbne	r7!, {r0, r1, r3, r4, r5, r8, r9, fp}
     894:	1301193c 	movwne	r1, #6460	; 0x193c
     898:	2e0f0000 	cdpcs	0, 0, cr0, cr15, cr0, {0}
     89c:	03193f00 	tsteq	r9, #0, 30
     8a0:	3b0b3a0e 	blcc	2cf0e0 <__bss_end__+0x2bcbc0>
     8a4:	3c19270b 	ldccc	7, cr2, [r9], {11}
     8a8:	00000019 	andeq	r0, r0, r9, lsl r0
     8ac:	25011101 	strcs	r1, [r1, #-257]	; 0x101
     8b0:	030b130e 	movweq	r1, #45838	; 0xb30e
     8b4:	110e1b0e 	tstne	lr, lr, lsl #22
     8b8:	10061201 	andne	r1, r6, r1, lsl #4
     8bc:	02000017 	andeq	r0, r0, #23
     8c0:	0b0b0024 	bleq	2c0958 <__bss_end__+0x2ae438>
     8c4:	08030b3e 	stmdaeq	r3, {r1, r2, r3, r4, r5, r8, r9, fp}
     8c8:	24030000 	strcs	r0, [r3], #-0
     8cc:	3e0b0b00 	vmlacc.f64	d0, d11, d0
     8d0:	000e030b 	andeq	r0, lr, fp, lsl #6
     8d4:	00160400 	andseq	r0, r6, r0, lsl #8
     8d8:	0b3a0e03 	bleq	e840ec <__bss_end__+0xe71bcc>
     8dc:	13490b3b 	movtne	r0, #39739	; 0x9b3b
     8e0:	0f050000 	svceq	0x00050000
     8e4:	490b0b00 	stmdbmi	fp, {r8, r9, fp}
     8e8:	06000013 			; <UNDEFINED> instruction: 0x06000013
     8ec:	13490026 	movtne	r0, #36902	; 0x9026
     8f0:	13070000 	movwne	r0, #28672	; 0x7000
     8f4:	3a0b0b01 	bcc	2c3500 <__bss_end__+0x2b0fe0>
     8f8:	010b3b0b 	tsteq	fp, fp, lsl #22
     8fc:	08000013 	stmdaeq	r0, {r0, r1, r4}
     900:	0803000d 	stmdaeq	r3, {r0, r2, r3}
     904:	0b3b0b3a 	bleq	ec35f4 <__bss_end__+0xeb10d4>
     908:	0b381349 	bleq	e05634 <__bss_end__+0xdf3114>
     90c:	0d090000 	stceq	0, cr0, [r9, #-0]
     910:	3a0e0300 	bcc	381518 <__bss_end__+0x36eff8>
     914:	490b3b0b 	stmdbmi	fp, {r0, r1, r3, r8, r9, fp, ip, sp}
     918:	000b3813 	andeq	r3, fp, r3, lsl r8
     91c:	01040a00 	tsteq	r4, r0, lsl #20
     920:	0b3a0b0b 	bleq	e83554 <__bss_end__+0xe71034>
     924:	13010b3b 	movwne	r0, #6971	; 0x1b3b
     928:	280b0000 	stmdacs	fp, {}	; <UNPREDICTABLE>
     92c:	1c0e0300 	stcne	3, cr0, [lr], {-0}
     930:	0c00000d 	stceq	0, cr0, [r0], {13}
     934:	0e03012e 	adfeqsp	f0, f3, #0.5
     938:	0b3b0b3a 	bleq	ec3628 <__bss_end__+0xeb1108>
     93c:	13491927 	movtne	r1, #39207	; 0x9927
     940:	06120111 			; <UNDEFINED> instruction: 0x06120111
     944:	42971840 	addsmi	r1, r7, #64, 16	; 0x400000
     948:	00130119 	andseq	r0, r3, r9, lsl r1
     94c:	00050d00 	andeq	r0, r5, r0, lsl #26
     950:	0b3a0803 	bleq	e82964 <__bss_end__+0xe70444>
     954:	13490b3b 	movtne	r0, #39739	; 0x9b3b
     958:	00001702 	andeq	r1, r0, r2, lsl #14
     95c:	0182890e 	orreq	r8, r2, lr, lsl #18
     960:	31011101 	tstcc	r1, r1, lsl #2
     964:	0f000013 	svceq	0x00000013
     968:	0001828a 	andeq	r8, r1, sl, lsl #5
     96c:	42911802 	addsmi	r1, r1, #131072	; 0x20000
     970:	10000018 	andne	r0, r0, r8, lsl r0
     974:	193f012e 	ldmdbne	pc!, {r1, r2, r3, r5, r8}	; <UNPREDICTABLE>
     978:	0b3a0e03 	bleq	e8418c <__bss_end__+0xe71c6c>
     97c:	01110b3b 	tsteq	r1, fp, lsr fp
     980:	18400612 	stmdane	r0, {r1, r4, r9, sl}^
     984:	01194297 			; <UNDEFINED> instruction: 0x01194297
     988:	11000013 	tstne	r0, r3, lsl r0
     98c:	0e030034 	mcreq	0, 0, r0, cr3, cr4, {1}
     990:	0b3b0b3a 	bleq	ec3680 <__bss_end__+0xeb1160>
     994:	193f1349 	ldmdbne	pc!, {r0, r3, r6, r8, r9, ip}	; <UNPREDICTABLE>
     998:	0000193c 	andeq	r1, r0, ip, lsr r9
     99c:	3f002e12 	svccc	0x00002e12
     9a0:	3a0e0319 	bcc	38160c <__bss_end__+0x36f0ec>
     9a4:	270b3b0b 	strcs	r3, [fp, -fp, lsl #22]
     9a8:	00193c19 	andseq	r3, r9, r9, lsl ip
     9ac:	00341300 	eorseq	r1, r4, r0, lsl #6
     9b0:	0b3a0803 	bleq	e829c4 <__bss_end__+0xe704a4>
     9b4:	13490b3b 	movtne	r0, #39739	; 0x9b3b
     9b8:	00001702 	andeq	r1, r0, r2, lsl #14
     9bc:	03003414 	movweq	r3, #1044	; 0x414
     9c0:	3b0b3a0e 	blcc	2cf200 <__bss_end__+0x2bcce0>
     9c4:	0013490b 	andseq	r4, r3, fp, lsl #18
     9c8:	82891500 	addhi	r1, r9, #0, 10
     9cc:	01110001 	tsteq	r1, r1
     9d0:	00001331 	andeq	r1, r0, r1, lsr r3
     9d4:	01828916 	orreq	r8, r2, r6, lsl r9
     9d8:	31011101 	tstcc	r1, r1, lsl #2
     9dc:	00130113 	andseq	r0, r3, r3, lsl r1
     9e0:	00341700 	eorseq	r1, r4, r0, lsl #14
     9e4:	0b3a0e03 	bleq	e841f8 <__bss_end__+0xe71cd8>
     9e8:	13490b3b 	movtne	r0, #39739	; 0x9b3b
     9ec:	00001802 	andeq	r1, r0, r2, lsl #16
     9f0:	27011518 	smladcs	r1, r8, r5, r1
     9f4:	01134919 	tsteq	r3, r9, lsl r9
     9f8:	19000013 	stmdbne	r0, {r0, r1, r4}
     9fc:	13490005 	movtne	r0, #36869	; 0x9005
     a00:	2e1a0000 	cdpcs	0, 1, cr0, cr10, cr0, {0}
     a04:	03193f01 	tsteq	r9, #1, 30
     a08:	3b0b3a0e 	blcc	2cf248 <__bss_end__+0x2bcd28>
     a0c:	3c19270b 	ldccc	7, cr2, [r9], {11}
     a10:	00130119 	andseq	r0, r3, r9, lsl r1
     a14:	002e1b00 	eoreq	r1, lr, r0, lsl #22
     a18:	0e03193f 	mcreq	9, 0, r1, cr3, cr15, {1}
     a1c:	0b3b0b3a 	bleq	ec370c <__bss_end__+0xeb11ec>
     a20:	13491927 	movtne	r1, #39207	; 0x9927
     a24:	0000193c 	andeq	r1, r0, ip, lsr r9
     a28:	3f012e1c 	svccc	0x00012e1c
     a2c:	3a0e0319 	bcc	381698 <__bss_end__+0x36f178>
     a30:	270b3b0b 	strcs	r3, [fp, -fp, lsl #22]
     a34:	3c134919 	ldccc	9, cr4, [r3], {25}
     a38:	00130119 	andseq	r0, r3, r9, lsl r1
     a3c:	00181d00 	andseq	r1, r8, r0, lsl #26
     a40:	01000000 	mrseq	r0, (UNDEF: 0)
     a44:	0e250111 	mcreq	1, 1, r0, cr5, cr1, {0}
     a48:	0e030b13 	vmoveq.32	d3[0], r0
     a4c:	17550e1b 	smmlane	r5, fp, lr, r0
     a50:	17100111 			; <UNDEFINED> instruction: 0x17100111
     a54:	24020000 	strcs	r0, [r2], #-0
     a58:	3e0b0b00 	vmlacc.f64	d0, d11, d0
     a5c:	0008030b 	andeq	r0, r8, fp, lsl #6
     a60:	00240300 	eoreq	r0, r4, r0, lsl #6
     a64:	0b3e0b0b 	bleq	f83698 <__bss_end__+0xf71178>
     a68:	00000e03 	andeq	r0, r0, r3, lsl #28
     a6c:	3f012e04 	svccc	0x00012e04
     a70:	3a0e0319 	bcc	3816dc <__bss_end__+0x36f1bc>
     a74:	270b3b0b 	strcs	r3, [fp, -fp, lsl #22]
     a78:	11134919 	tstne	r3, r9, lsl r9
     a7c:	40061201 	andmi	r1, r6, r1, lsl #4
     a80:	19429718 	stmdbne	r2, {r3, r4, r8, r9, sl, ip, pc}^
     a84:	00001301 	andeq	r1, r0, r1, lsl #6
     a88:	03003405 	movweq	r3, #1029	; 0x405
     a8c:	3b0b3a0e 	blcc	2cf2cc <__bss_end__+0x2bcdac>
     a90:	0213490b 	andseq	r4, r3, #180224	; 0x2c000
     a94:	06000017 			; <UNDEFINED> instruction: 0x06000017
     a98:	193f012e 	ldmdbne	pc!, {r1, r2, r3, r5, r8}	; <UNPREDICTABLE>
     a9c:	0b3a0e03 	bleq	e842b0 <__bss_end__+0xe71d90>
     aa0:	19270b3b 	stmdbne	r7!, {r0, r1, r3, r4, r5, r8, r9, fp}
     aa4:	06120111 			; <UNDEFINED> instruction: 0x06120111
     aa8:	42971840 	addsmi	r1, r7, #64, 16	; 0x400000
     aac:	00130119 	andseq	r0, r3, r9, lsl r1
     ab0:	00340700 	eorseq	r0, r4, r0, lsl #14
     ab4:	0b3a0e03 	bleq	e842c8 <__bss_end__+0xe71da8>
     ab8:	13490b3b 	movtne	r0, #39739	; 0x9b3b
     abc:	0000061c 	andeq	r0, r0, ip, lsl r6
     ac0:	03003408 	movweq	r3, #1032	; 0x408
     ac4:	3b0b3a0e 	blcc	2cf304 <__bss_end__+0x2bcde4>
     ac8:	1c13490b 	ldcne	9, cr4, [r3], {11}
     acc:	0900000b 	stmdbeq	r0, {r0, r1, r3}
     ad0:	00018289 	andeq	r8, r1, r9, lsl #5
     ad4:	13310111 	teqne	r1, #1073741828	; 0x40000004
     ad8:	890a0000 	stmdbhi	sl, {}	; <UNPREDICTABLE>
     adc:	11010182 	smlabbne	r1, r2, r1, r0
     ae0:	01133101 	tsteq	r3, r1, lsl #2
     ae4:	0b000013 	bleq	b38 <_start-0x74c8>
     ae8:	0001828a 	andeq	r8, r1, sl, lsl #5
     aec:	42911802 	addsmi	r1, r1, #131072	; 0x20000
     af0:	0c000018 	stceq	0, cr0, [r0], {24}
     af4:	01018289 	smlabbeq	r1, r9, r2, r8
     af8:	13310111 	teqne	r1, #1073741828	; 0x40000004
     afc:	260d0000 	strcs	r0, [sp], -r0
     b00:	00134900 	andseq	r4, r3, r0, lsl #18
     b04:	012e0e00 	teqeq	lr, r0, lsl #28
     b08:	0e03193f 	mcreq	9, 0, r1, cr3, cr15, {1}
     b0c:	0b3b0b3a 	bleq	ec37fc <__bss_end__+0xeb12dc>
     b10:	193c1927 	ldmdbne	ip!, {r0, r1, r2, r5, r8, fp, ip}
     b14:	00001301 	andeq	r1, r0, r1, lsl #6
     b18:	4900050f 	stmdbmi	r0, {r0, r1, r2, r3, r8, sl}
     b1c:	10000013 	andne	r0, r0, r3, lsl r0
     b20:	193f012e 	ldmdbne	pc!, {r1, r2, r3, r5, r8}	; <UNPREDICTABLE>
     b24:	0b3a0e03 	bleq	e84338 <__bss_end__+0xe71e18>
     b28:	19270b3b 	stmdbne	r7!, {r0, r1, r3, r4, r5, r8, r9, fp}
     b2c:	0000193c 	andeq	r1, r0, ip, lsr r9
     b30:	01110100 	tsteq	r1, r0, lsl #2
     b34:	0b130e25 	bleq	4c43d0 <__bss_end__+0x4b1eb0>
     b38:	0e1b0e03 	cdpeq	14, 1, cr0, cr11, cr3, {0}
     b3c:	06120111 			; <UNDEFINED> instruction: 0x06120111
     b40:	00001710 	andeq	r1, r0, r0, lsl r7
     b44:	0b002402 	bleq	9b54 <GPFSEL3>
     b48:	030b3e0b 	movweq	r3, #48651	; 0xbe0b
     b4c:	03000008 	movweq	r0, #8
     b50:	0b0b0024 	bleq	2c0be8 <__bss_end__+0x2ae6c8>
     b54:	0e030b3e 	vmoveq.16	d3[0], r0
     b58:	2e040000 	cdpcs	0, 0, cr0, cr4, cr0, {0}
     b5c:	03193f01 	tsteq	r9, #1, 30
     b60:	3b0b3a0e 	blcc	2cf3a0 <__bss_end__+0x2bce80>
     b64:	1119270b 	tstne	r9, fp, lsl #14
     b68:	40061201 	andmi	r1, r6, r1, lsl #4
     b6c:	19429718 	stmdbne	r2, {r3, r4, r8, r9, sl, ip, pc}^
     b70:	00001301 	andeq	r1, r0, r1, lsl #6
     b74:	03000505 	movweq	r0, #1285	; 0x505
     b78:	3b0b3a0e 	blcc	2cf3b8 <__bss_end__+0x2bce98>
     b7c:	0213490b 	andseq	r4, r3, #180224	; 0x2c000
     b80:	06000017 			; <UNDEFINED> instruction: 0x06000017
     b84:	193f012e 	ldmdbne	pc!, {r1, r2, r3, r5, r8}	; <UNPREDICTABLE>
     b88:	0b3a0e03 	bleq	e8439c <__bss_end__+0xe71e7c>
     b8c:	19270b3b 	stmdbne	r7!, {r0, r1, r3, r4, r5, r8, r9, fp}
     b90:	01111349 	tsteq	r1, r9, asr #6
     b94:	18400612 	stmdane	r0, {r1, r4, r9, sl}^
     b98:	01194297 			; <UNDEFINED> instruction: 0x01194297
     b9c:	07000013 	smladeq	r0, r3, r0, r0
     ba0:	01018289 	smlabbeq	r1, r9, r2, r8
     ba4:	13310111 	teqne	r1, #1073741828	; 0x40000004
     ba8:	8a080000 	bhi	200bb0 <__bss_end__+0x1ee690>
     bac:	02000182 	andeq	r0, r0, #-2147483616	; 0x80000020
     bb0:	18429118 	stmdane	r2, {r3, r4, r8, ip, pc}^
     bb4:	34090000 	strcc	r0, [r9], #-0
     bb8:	3a080300 	bcc	2017c0 <__bss_end__+0x1ef2a0>
     bbc:	490b3b0b 	stmdbmi	fp, {r0, r1, r3, r8, r9, fp, ip, sp}
     bc0:	00180213 	andseq	r0, r8, r3, lsl r2
     bc4:	82890a00 	addhi	r0, r9, #0, 20
     bc8:	01110001 	tsteq	r1, r1
     bcc:	00001331 	andeq	r1, r0, r1, lsr r3
     bd0:	0300050b 	movweq	r0, #1291	; 0x50b
     bd4:	3b0b3a08 	blcc	2cf3fc <__bss_end__+0x2bcedc>
     bd8:	0213490b 	andseq	r4, r3, #180224	; 0x2c000
     bdc:	0c000017 	stceq	0, cr0, [r0], {23}
     be0:	0111010b 	tsteq	r1, fp, lsl #2
     be4:	13010612 	movwne	r0, #5650	; 0x1612
     be8:	340d0000 	strcc	r0, [sp], #-0
     bec:	3a080300 	bcc	2017f4 <__bss_end__+0x1ef2d4>
     bf0:	490b3b0b 	stmdbmi	fp, {r0, r1, r3, r8, r9, fp, ip, sp}
     bf4:	00170213 	andseq	r0, r7, r3, lsl r2
     bf8:	012e0e00 	teqeq	lr, r0, lsl #28
     bfc:	0e03193f 	mcreq	9, 0, r1, cr3, cr15, {1}
     c00:	0b3b0b3a 	bleq	ec38f0 <__bss_end__+0xeb13d0>
     c04:	13491927 	movtne	r1, #39207	; 0x9927
     c08:	0000193c 	andeq	r1, r0, ip, lsr r9
     c0c:	4900050f 	stmdbmi	r0, {r0, r1, r2, r3, r8, sl}
     c10:	00000013 	andeq	r0, r0, r3, lsl r0
     c14:	25011101 	strcs	r1, [r1, #-257]	; 0x101
     c18:	030b130e 	movweq	r1, #45838	; 0xb30e
     c1c:	110e1b0e 	tstne	lr, lr, lsl #22
     c20:	10061201 	andne	r1, r6, r1, lsl #4
     c24:	02000017 	andeq	r0, r0, #23
     c28:	0b0b0024 	bleq	2c0cc0 <__bss_end__+0x2ae7a0>
     c2c:	0e030b3e 	vmoveq.16	d3[0], r0
     c30:	24030000 	strcs	r0, [r3], #-0
     c34:	3e0b0b00 	vmlacc.f64	d0, d11, d0
     c38:	0008030b 	andeq	r0, r8, fp, lsl #6
     c3c:	01040400 	tsteq	r4, r0, lsl #8
     c40:	0b3a0b0b 	bleq	e83874 <__bss_end__+0xe71354>
     c44:	13010b3b 	movwne	r0, #6971	; 0x1b3b
     c48:	28050000 	stmdacs	r5, {}	; <UNPREDICTABLE>
     c4c:	1c0e0300 	stcne	3, cr0, [lr], {-0}
     c50:	0600000d 	streq	r0, [r0], -sp
     c54:	0e030016 	mcreq	0, 0, r0, cr3, cr6, {0}
     c58:	0b3b0b3a 	bleq	ec3948 <__bss_end__+0xeb1428>
     c5c:	00001349 	andeq	r1, r0, r9, asr #6
     c60:	3f012e07 	svccc	0x00012e07
     c64:	3a0e0319 	bcc	3818d0 <__bss_end__+0x36f3b0>
     c68:	270b3b0b 	strcs	r3, [fp, -fp, lsl #22]
     c6c:	12011119 	andne	r1, r1, #1073741830	; 0x40000006
     c70:	97184006 	ldrls	r4, [r8, -r6]
     c74:	13011942 	movwne	r1, #6466	; 0x1942
     c78:	05080000 	streq	r0, [r8, #-0]
     c7c:	3a080300 	bcc	201884 <__bss_end__+0x1ef364>
     c80:	490b3b0b 	stmdbmi	fp, {r0, r1, r3, r8, r9, fp, ip, sp}
     c84:	00170213 	andseq	r0, r7, r3, lsl r2
     c88:	00340900 	eorseq	r0, r4, r0, lsl #18
     c8c:	0b3a0e03 	bleq	e844a0 <__bss_end__+0xe71f80>
     c90:	13490b3b 	movtne	r0, #39739	; 0x9b3b
     c94:	00001702 	andeq	r1, r0, r2, lsl #14
     c98:	0182890a 	orreq	r8, r2, sl, lsl #18
     c9c:	31011101 	tstcc	r1, r1, lsl #2
     ca0:	00130113 	andseq	r0, r3, r3, lsl r1
     ca4:	828a0b00 	addhi	r0, sl, #0, 22
     ca8:	18020001 	stmdane	r2, {r0}
     cac:	00184291 	mulseq	r8, r1, r2
     cb0:	82890c00 	addhi	r0, r9, #0, 24
     cb4:	01110101 	tsteq	r1, r1, lsl #2
     cb8:	00001331 	andeq	r1, r0, r1, lsr r3
     cbc:	0b000f0d 	bleq	48f8 <_start-0x3708>
     cc0:	0013490b 	andseq	r4, r3, fp, lsl #18
     cc4:	00350e00 	eorseq	r0, r5, r0, lsl #28
     cc8:	00001349 	andeq	r1, r0, r9, asr #6
     ccc:	3f012e0f 	svccc	0x00012e0f
     cd0:	3a0e0319 	bcc	38193c <__bss_end__+0x36f41c>
     cd4:	270b3b0b 	strcs	r3, [fp, -fp, lsl #22]
     cd8:	11134919 	tstne	r3, r9, lsl r9
     cdc:	40061201 	andmi	r1, r6, r1, lsl #4
     ce0:	19429718 	stmdbne	r2, {r3, r4, r8, r9, sl, ip, pc}^
     ce4:	00001301 	andeq	r1, r0, r1, lsl #6
     ce8:	03003410 	movweq	r3, #1040	; 0x410
     cec:	3b0b3a08 	blcc	2cf514 <__bss_end__+0x2bcff4>
     cf0:	0213490b 	andseq	r4, r3, #180224	; 0x2c000
     cf4:	11000017 	tstne	r0, r7, lsl r0
     cf8:	00018289 	andeq	r8, r1, r9, lsl #5
     cfc:	13310111 	teqne	r1, #1073741828	; 0x40000004
     d00:	05120000 	ldreq	r0, [r2, #-0]
     d04:	3a0e0300 	bcc	38190c <__bss_end__+0x36f3ec>
     d08:	490b3b0b 	stmdbmi	fp, {r0, r1, r3, r8, r9, fp, ip, sp}
     d0c:	00170213 	andseq	r0, r7, r3, lsl r2
     d10:	012e1300 	teqeq	lr, r0, lsl #6
     d14:	0e03193f 	mcreq	9, 0, r1, cr3, cr15, {1}
     d18:	053b0b3a 	ldreq	r0, [fp, #-2874]!	; 0xb3a
     d1c:	13491927 	movtne	r1, #39207	; 0x9927
     d20:	06120111 			; <UNDEFINED> instruction: 0x06120111
     d24:	42971840 	addsmi	r1, r7, #64, 16	; 0x400000
     d28:	00130119 	andseq	r0, r3, r9, lsl r1
     d2c:	00051400 	andeq	r1, r5, r0, lsl #8
     d30:	0b3a0e03 	bleq	e84544 <__bss_end__+0xe72024>
     d34:	1349053b 	movtne	r0, #38203	; 0x953b
     d38:	00001702 	andeq	r1, r0, r2, lsl #14
     d3c:	3f012e15 	svccc	0x00012e15
     d40:	3a0e0319 	bcc	3819ac <__bss_end__+0x36f48c>
     d44:	27053b0b 	strcs	r3, [r5, -fp, lsl #22]
     d48:	12011119 	andne	r1, r1, #1073741830	; 0x40000006
     d4c:	97184006 	ldrls	r4, [r8, -r6]
     d50:	13011942 	movwne	r1, #6466	; 0x1942
     d54:	05160000 	ldreq	r0, [r6, #-0]
     d58:	3a080300 	bcc	201960 <__bss_end__+0x1ef440>
     d5c:	49053b0b 	stmdbmi	r5, {r0, r1, r3, r8, r9, fp, ip, sp}
     d60:	00170213 	andseq	r0, r7, r3, lsl r2
     d64:	00341700 	eorseq	r1, r4, r0, lsl #14
     d68:	0b3a0e03 	bleq	e8457c <__bss_end__+0xe7205c>
     d6c:	1349053b 	movtne	r0, #38203	; 0x953b
     d70:	00001702 	andeq	r1, r0, r2, lsl #14
     d74:	11010b18 	tstne	r1, r8, lsl fp
     d78:	01061201 	tsteq	r6, r1, lsl #4
     d7c:	19000013 	stmdbne	r0, {r0, r1, r4}
     d80:	0e030034 	mcreq	0, 0, r0, cr3, cr4, {1}
     d84:	0b3b0b3a 	bleq	ec3a74 <__bss_end__+0xeb1554>
     d88:	193f1349 	ldmdbne	pc!, {r0, r3, r6, r8, r9, ip}	; <UNPREDICTABLE>
     d8c:	00001802 	andeq	r1, r0, r2, lsl #16
     d90:	3f012e1a 	svccc	0x00012e1a
     d94:	3a0e0319 	bcc	381a00 <__bss_end__+0x36f4e0>
     d98:	270b3b0b 	strcs	r3, [fp, -fp, lsl #22]
     d9c:	3c134919 	ldccc	9, cr4, [r3], {25}
     da0:	00130119 	andseq	r0, r3, r9, lsl r1
     da4:	00051b00 	andeq	r1, r5, r0, lsl #22
     da8:	00001349 	andeq	r1, r0, r9, asr #6
     dac:	4900261c 	stmdbmi	r0, {r2, r3, r4, r9, sl, sp}
     db0:	1d000013 	stcne	0, cr0, [r0, #-76]	; 0xffffffb4
     db4:	00000035 	andeq	r0, r0, r5, lsr r0
     db8:	3f012e1e 	svccc	0x00012e1e
     dbc:	3a0e0319 	bcc	381a28 <__bss_end__+0x36f508>
     dc0:	270b3b0b 	strcs	r3, [fp, -fp, lsl #22]
     dc4:	01193c19 	tsteq	r9, r9, lsl ip
     dc8:	1f000013 	svcne	0x00000013
     dcc:	193f002e 	ldmdbne	pc!, {r1, r2, r3, r5}	; <UNPREDICTABLE>
     dd0:	0b3a0e03 	bleq	e845e4 <__bss_end__+0xe720c4>
     dd4:	19270b3b 	stmdbne	r7!, {r0, r1, r3, r4, r5, r8, r9, fp}
     dd8:	0000193c 	andeq	r1, r0, ip, lsr r9
     ddc:	01110100 	tsteq	r1, r0, lsl #2
     de0:	0b130e25 	bleq	4c467c <__bss_end__+0x4b215c>
     de4:	0e1b0e03 	cdpeq	14, 1, cr0, cr11, cr3, {0}
     de8:	06120111 			; <UNDEFINED> instruction: 0x06120111
     dec:	00001710 	andeq	r1, r0, r0, lsl r7
     df0:	0b002402 	bleq	9e00 <__FUNCTION__.4238+0x104>
     df4:	030b3e0b 	movweq	r3, #48651	; 0xbe0b
     df8:	03000008 	movweq	r0, #8
     dfc:	0b0b0024 	bleq	2c0e94 <__bss_end__+0x2ae974>
     e00:	0e030b3e 	vmoveq.16	d3[0], r0
     e04:	16040000 	strne	r0, [r4], -r0
     e08:	3a0e0300 	bcc	381a10 <__bss_end__+0x36f4f0>
     e0c:	490b3b0b 	stmdbmi	fp, {r0, r1, r3, r8, r9, fp, ip, sp}
     e10:	05000013 	streq	r0, [r0, #-19]
     e14:	0b0b000f 	bleq	2c0e58 <__bss_end__+0x2ae938>
     e18:	0f060000 	svceq	0x00060000
     e1c:	490b0b00 	stmdbmi	fp, {r8, r9, fp}
     e20:	07000013 	smladeq	r0, r3, r0, r0
     e24:	13490026 	movtne	r0, #36902	; 0x9026
     e28:	13080000 	movwne	r0, #32768	; 0x8000
     e2c:	3a0b0b01 	bcc	2c3a38 <__bss_end__+0x2b1518>
     e30:	010b3b0b 	tsteq	fp, fp, lsl #22
     e34:	09000013 	stmdbeq	r0, {r0, r1, r4}
     e38:	0803000d 	stmdaeq	r3, {r0, r2, r3}
     e3c:	0b3b0b3a 	bleq	ec3b2c <__bss_end__+0xeb160c>
     e40:	0b381349 	bleq	e05b6c <__bss_end__+0xdf364c>
     e44:	0d0a0000 	stceq	0, cr0, [sl, #-0]
     e48:	3a0e0300 	bcc	381a50 <__bss_end__+0x36f530>
     e4c:	490b3b0b 	stmdbmi	fp, {r0, r1, r3, r8, r9, fp, ip, sp}
     e50:	000b3813 	andeq	r3, fp, r3, lsl r8
     e54:	01130b00 	tsteq	r3, r0, lsl #22
     e58:	0b0b0e03 	bleq	2c466c <__bss_end__+0x2b214c>
     e5c:	0b3b0b3a 	bleq	ec3b4c <__bss_end__+0xeb162c>
     e60:	00001301 	andeq	r1, r0, r1, lsl #6
     e64:	03000d0c 	movweq	r0, #3340	; 0xd0c
     e68:	3813490e 	ldmdacc	r3, {r1, r2, r3, r8, fp, lr}
     e6c:	0019340b 	andseq	r3, r9, fp, lsl #8
     e70:	012e0d00 	teqeq	lr, r0, lsl #26
     e74:	0b3a0e03 	bleq	e84688 <__bss_end__+0xe72168>
     e78:	19270b3b 	stmdbne	r7!, {r0, r1, r3, r4, r5, r8, r9, fp}
     e7c:	13010b20 	movwne	r0, #6944	; 0x1b20
     e80:	050e0000 	streq	r0, [lr, #-0]
     e84:	3a0e0300 	bcc	381a8c <__bss_end__+0x36f56c>
     e88:	490b3b0b 	stmdbmi	fp, {r0, r1, r3, r8, r9, fp, ip, sp}
     e8c:	0f000013 	svceq	0x00000013
     e90:	08030005 	stmdaeq	r3, {r0, r2}
     e94:	0b3b0b3a 	bleq	ec3b84 <__bss_end__+0xeb1664>
     e98:	00001349 	andeq	r1, r0, r9, asr #6
     e9c:	00010b10 	andeq	r0, r1, r0, lsl fp
     ea0:	00341100 	eorseq	r1, r4, r0, lsl #2
     ea4:	0b3a0e03 	bleq	e846b8 <__bss_end__+0xe72198>
     ea8:	13490b3b 	movtne	r0, #39739	; 0x9b3b
     eac:	2e120000 	cdpcs	0, 1, cr0, cr2, cr0, {0}
     eb0:	03193f01 	tsteq	r9, #1, 30
     eb4:	3b0b3a0e 	blcc	2cf6f4 <__bss_end__+0x2bd1d4>
     eb8:	1119270b 	tstne	r9, fp, lsl #14
     ebc:	40061201 	andmi	r1, r6, r1, lsl #4
     ec0:	19429718 	stmdbne	r2, {r3, r4, r8, r9, sl, ip, pc}^
     ec4:	00001301 	andeq	r1, r0, r1, lsl #6
     ec8:	03000513 	movweq	r0, #1299	; 0x513
     ecc:	3b0b3a0e 	blcc	2cf70c <__bss_end__+0x2bd1ec>
     ed0:	0213490b 	andseq	r4, r3, #180224	; 0x2c000
     ed4:	14000017 	strne	r0, [r0], #-23
     ed8:	08030005 	stmdaeq	r3, {r0, r2}
     edc:	0b3b0b3a 	bleq	ec3bcc <__bss_end__+0xeb16ac>
     ee0:	17021349 	strne	r1, [r2, -r9, asr #6]
     ee4:	34150000 	ldrcc	r0, [r5], #-0
     ee8:	3a080300 	bcc	201af0 <__bss_end__+0x1ef5d0>
     eec:	490b3b0b 	stmdbmi	fp, {r0, r1, r3, r8, r9, fp, ip, sp}
     ef0:	00180213 	andseq	r0, r8, r3, lsl r2
     ef4:	00341600 	eorseq	r1, r4, r0, lsl #12
     ef8:	0b3a0803 	bleq	e82f0c <__bss_end__+0xe709ec>
     efc:	13490b3b 	movtne	r0, #39739	; 0x9b3b
     f00:	00001702 	andeq	r1, r0, r2, lsl #14
     f04:	11010b17 	tstne	r1, r7, lsl fp
     f08:	01061201 	tsteq	r6, r1, lsl #4
     f0c:	18000013 	stmdane	r0, {r0, r1, r4}
     f10:	0e030034 	mcreq	0, 0, r0, cr3, cr4, {1}
     f14:	0b3b0b3a 	bleq	ec3c04 <__bss_end__+0xeb16e4>
     f18:	18021349 	stmdane	r2, {r0, r3, r6, r8, r9, ip}
     f1c:	1d190000 	ldcne	0, cr0, [r9, #-0]
     f20:	11133101 	tstne	r3, r1, lsl #2
     f24:	58061201 	stmdapl	r6, {r0, r9, ip}
     f28:	010b590b 	tsteq	fp, fp, lsl #18
     f2c:	1a000013 	bne	f80 <_start-0x7080>
     f30:	13310005 	teqne	r1, #5
     f34:	00001702 	andeq	r1, r0, r2, lsl #14
     f38:	3100051b 	tstcc	r0, fp, lsl r5
     f3c:	00180213 	andseq	r0, r8, r3, lsl r2
     f40:	00051c00 	andeq	r1, r5, r0, lsl #24
     f44:	0b1c1331 	bleq	705c10 <__bss_end__+0x6f36f0>
     f48:	0b1d0000 	bleq	740f50 <__bss_end__+0x72ea30>
     f4c:	12011101 	andne	r1, r1, #1073741824	; 0x40000000
     f50:	1e000006 	cdpne	0, 0, cr0, cr0, cr6, {0}
     f54:	13310034 	teqne	r1, #52	; 0x34
     f58:	00001702 	andeq	r1, r0, r2, lsl #14
     f5c:	0182891f 	orreq	r8, r2, pc, lsl r9
     f60:	31011101 	tstcc	r1, r1, lsl #2
     f64:	20000013 	andcs	r0, r0, r3, lsl r0
     f68:	0001828a 	andeq	r8, r1, sl, lsl #5
     f6c:	42911802 	addsmi	r1, r1, #131072	; 0x20000
     f70:	21000018 	tstcs	r0, r8, lsl r0
     f74:	1331011d 	teqne	r1, #1073741831	; 0x40000007
     f78:	06120111 			; <UNDEFINED> instruction: 0x06120111
     f7c:	0b590b58 	bleq	1643ce4 <__bss_end__+0x16317c4>
     f80:	2e220000 	cdpcs	0, 2, cr0, cr2, cr0, {0}
     f84:	3a0e0301 	bcc	381b90 <__bss_end__+0x36f670>
     f88:	270b3b0b 	strcs	r3, [fp, -fp, lsl #22]
     f8c:	20134919 	andscs	r4, r3, r9, lsl r9
     f90:	0013010b 	andseq	r0, r3, fp, lsl #2
     f94:	012e2300 	teqeq	lr, r0, lsl #6
     f98:	0e03193f 	mcreq	9, 0, r1, cr3, cr15, {1}
     f9c:	0b3b0b3a 	bleq	ec3c8c <__bss_end__+0xeb176c>
     fa0:	13491927 	movtne	r1, #39207	; 0x9927
     fa4:	06120111 			; <UNDEFINED> instruction: 0x06120111
     fa8:	42971840 	addsmi	r1, r7, #64, 16	; 0x400000
     fac:	00130119 	andseq	r0, r3, r9, lsl r1
     fb0:	82892400 	addhi	r2, r9, #0, 8
     fb4:	01110001 	tsteq	r1, r1
     fb8:	00001331 	andeq	r1, r0, r1, lsr r3
     fbc:	01828925 	orreq	r8, r2, r5, lsr #18
     fc0:	31011101 	tstcc	r1, r1, lsl #2
     fc4:	00130113 	andseq	r0, r3, r3, lsl r1
     fc8:	00342600 	eorseq	r2, r4, r0, lsl #12
     fcc:	0b3a0e03 	bleq	e847e0 <__bss_end__+0xe722c0>
     fd0:	13490b3b 	movtne	r0, #39739	; 0x9b3b
     fd4:	00001702 	andeq	r1, r0, r2, lsl #14
     fd8:	31000527 	tstcc	r0, r7, lsr #10
     fdc:	28000013 	stmdacs	r0, {r0, r1, r4}
     fe0:	0e030005 	cdpeq	0, 0, cr0, cr3, cr5, {0}
     fe4:	0b3b0b3a 	bleq	ec3cd4 <__bss_end__+0xeb17b4>
     fe8:	18021349 	stmdane	r2, {r0, r3, r6, r8, r9, ip}
     fec:	34290000 	strtcc	r0, [r9], #-0
     ff0:	490e0300 	stmdbmi	lr, {r8, r9}
     ff4:	02193413 	andseq	r3, r9, #318767104	; 0x13000000
     ff8:	2a000018 	bcs	1060 <_start-0x6fa0>
     ffc:	13490101 	movtne	r0, #37121	; 0x9101
    1000:	00001301 	andeq	r1, r0, r1, lsl #6
    1004:	4900212b 	stmdbmi	r0, {r0, r1, r3, r5, r8, sp}
    1008:	000b2f13 	andeq	r2, fp, r3, lsl pc
    100c:	00342c00 	eorseq	r2, r4, r0, lsl #24
    1010:	0b3a0803 	bleq	e83024 <__bss_end__+0xe70b04>
    1014:	13490b3b 	movtne	r0, #39739	; 0x9b3b
    1018:	0000061c 	andeq	r0, r0, ip, lsl r6
    101c:	0300342d 	movweq	r3, #1069	; 0x42d
    1020:	3b0b3a08 	blcc	2cf848 <__bss_end__+0x2bd328>
    1024:	1c13490b 	ldcne	9, cr4, [r3], {11}
    1028:	2e00000b 	cdpcs	0, 0, cr0, cr0, cr11, {0}
    102c:	08030005 	stmdaeq	r3, {r0, r2}
    1030:	0b3b0b3a 	bleq	ec3d20 <__bss_end__+0xeb1800>
    1034:	18021349 	stmdane	r2, {r0, r3, r6, r8, r9, ip}
    1038:	182f0000 	stmdane	pc!, {}	; <UNPREDICTABLE>
    103c:	30000000 	andcc	r0, r0, r0
    1040:	13490021 	movtne	r0, #36897	; 0x9021
    1044:	0000052f 	andeq	r0, r0, pc, lsr #10
    1048:	3f012e31 	svccc	0x00012e31
    104c:	3a0e0319 	bcc	381cb8 <__bss_end__+0x36f798>
    1050:	270b3b0b 	strcs	r3, [fp, -fp, lsl #22]
    1054:	01193c19 	tsteq	r9, r9, lsl ip
    1058:	32000013 	andcc	r0, r0, #19
    105c:	13490005 	movtne	r0, #36869	; 0x9005
    1060:	2e330000 	cdpcs	0, 3, cr0, cr3, cr0, {0}
    1064:	03193f00 	tsteq	r9, #0, 30
    1068:	3b0b3a0e 	blcc	2cf8a8 <__bss_end__+0x2bd388>
    106c:	4919270b 	ldmdbmi	r9, {r0, r1, r3, r8, r9, sl, sp}
    1070:	00193c13 	andseq	r3, r9, r3, lsl ip
    1074:	012e3400 	teqeq	lr, r0, lsl #8
    1078:	0e03193f 	mcreq	9, 0, r1, cr3, cr15, {1}
    107c:	0b3b0b3a 	bleq	ec3d6c <__bss_end__+0xeb184c>
    1080:	13491927 	movtne	r1, #39207	; 0x9927
    1084:	1301193c 	movwne	r1, #6460	; 0x193c
    1088:	2e350000 	cdpcs	0, 3, cr0, cr5, cr0, {0}
    108c:	03193f00 	tsteq	r9, #0, 30
    1090:	3b0b3a0e 	blcc	2cf8d0 <__bss_end__+0x2bd3b0>
    1094:	3c19270b 	ldccc	7, cr2, [r9], {11}
    1098:	36000019 			; <UNDEFINED> instruction: 0x36000019
    109c:	193f012e 	ldmdbne	pc!, {r1, r2, r3, r5, r8}	; <UNPREDICTABLE>
    10a0:	0b3a0e03 	bleq	e848b4 <__bss_end__+0xe72394>
    10a4:	19270b3b 	stmdbne	r7!, {r0, r1, r3, r4, r5, r8, r9, fp}
    10a8:	193c1349 	ldmdbne	ip!, {r0, r3, r6, r8, r9, ip}
    10ac:	01000000 	mrseq	r0, (UNDEF: 0)
    10b0:	0e250111 	mcreq	1, 1, r0, cr5, cr1, {0}
    10b4:	0e030b13 	vmoveq.32	d3[0], r0
    10b8:	01110e1b 	tsteq	r1, fp, lsl lr
    10bc:	17100612 			; <UNDEFINED> instruction: 0x17100612
    10c0:	24020000 	strcs	r0, [r2], #-0
    10c4:	3e0b0b00 	vmlacc.f64	d0, d11, d0
    10c8:	0008030b 	andeq	r0, r8, fp, lsl #6
    10cc:	00240300 	eoreq	r0, r4, r0, lsl #6
    10d0:	0b3e0b0b 	bleq	f83d04 <__bss_end__+0xf717e4>
    10d4:	00000e03 	andeq	r0, r0, r3, lsl #28
    10d8:	0b010404 	bleq	420f0 <__bss_end__+0x2fbd0>
    10dc:	3b0b3a0b 	blcc	2cf910 <__bss_end__+0x2bd3f0>
    10e0:	0013010b 	andseq	r0, r3, fp, lsl #2
    10e4:	00280500 	eoreq	r0, r8, r0, lsl #10
    10e8:	0d1c0e03 	ldceq	14, cr0, [ip, #-12]
    10ec:	16060000 	strne	r0, [r6], -r0
    10f0:	3a0e0300 	bcc	381cf8 <__bss_end__+0x36f7d8>
    10f4:	490b3b0b 	stmdbmi	fp, {r0, r1, r3, r8, r9, fp, ip, sp}
    10f8:	07000013 	smladeq	r0, r3, r0, r0
    10fc:	193f012e 	ldmdbne	pc!, {r1, r2, r3, r5, r8}	; <UNPREDICTABLE>
    1100:	0b3a0e03 	bleq	e84914 <__bss_end__+0xe723f4>
    1104:	19270b3b 	stmdbne	r7!, {r0, r1, r3, r4, r5, r8, r9, fp}
    1108:	06120111 			; <UNDEFINED> instruction: 0x06120111
    110c:	42971840 	addsmi	r1, r7, #64, 16	; 0x400000
    1110:	00130119 	andseq	r0, r3, r9, lsl r1
    1114:	82890800 	addhi	r0, r9, #0, 16
    1118:	01110001 	tsteq	r1, r1
    111c:	00001331 	andeq	r1, r0, r1, lsr r3
    1120:	01828909 	orreq	r8, r2, r9, lsl #18
    1124:	31011101 	tstcc	r1, r1, lsl #2
    1128:	00130113 	andseq	r0, r3, r3, lsl r1
    112c:	828a0a00 	addhi	r0, sl, #0, 20
    1130:	18020001 	stmdane	r2, {r0}
    1134:	00184291 	mulseq	r8, r1, r2
    1138:	012e0b00 	teqeq	lr, r0, lsl #22
    113c:	0e03193f 	mcreq	9, 0, r1, cr3, cr15, {1}
    1140:	0b3b0b3a 	bleq	ec3e30 <__bss_end__+0xeb1910>
    1144:	13491927 	movtne	r1, #39207	; 0x9927
    1148:	06120111 			; <UNDEFINED> instruction: 0x06120111
    114c:	42971840 	addsmi	r1, r7, #64, 16	; 0x400000
    1150:	00130119 	andseq	r0, r3, r9, lsl r1
    1154:	00050c00 	andeq	r0, r5, r0, lsl #24
    1158:	0b3a0803 	bleq	e8316c <__bss_end__+0xe70c4c>
    115c:	13490b3b 	movtne	r0, #39739	; 0x9b3b
    1160:	00001702 	andeq	r1, r0, r2, lsl #14
    1164:	0182890d 	orreq	r8, r2, sp, lsl #18
    1168:	31011101 	tstcc	r1, r1, lsl #2
    116c:	0e000013 	mcreq	0, 0, r0, cr0, cr3, {0}
    1170:	0e030034 	mcreq	0, 0, r0, cr3, cr4, {1}
    1174:	0b3b0b3a 	bleq	ec3e64 <__bss_end__+0xeb1944>
    1178:	193f1349 	ldmdbne	pc!, {r0, r3, r6, r8, r9, ip}	; <UNPREDICTABLE>
    117c:	00001802 	andeq	r1, r0, r2, lsl #16
    1180:	0b000f0f 	bleq	4dc4 <_start-0x323c>
    1184:	0013490b 	andseq	r4, r3, fp, lsl #18
    1188:	00351000 	eorseq	r1, r5, r0
    118c:	00001349 	andeq	r1, r0, r9, asr #6
    1190:	3f002e11 	svccc	0x00002e11
    1194:	3a0e0319 	bcc	381e00 <__bss_end__+0x36f8e0>
    1198:	270b3b0b 	strcs	r3, [fp, -fp, lsl #22]
    119c:	00193c19 	andseq	r3, r9, r9, lsl ip
    11a0:	012e1200 	teqeq	lr, r0, lsl #4
    11a4:	0e03193f 	mcreq	9, 0, r1, cr3, cr15, {1}
    11a8:	0b3b0b3a 	bleq	ec3e98 <__bss_end__+0xeb1978>
    11ac:	193c1927 	ldmdbne	ip!, {r0, r1, r2, r5, r8, fp, ip}
    11b0:	00001301 	andeq	r1, r0, r1, lsl #6
    11b4:	49000513 	stmdbmi	r0, {r0, r1, r4, r8, sl}
    11b8:	14000013 	strne	r0, [r0], #-19
    11bc:	193f012e 	ldmdbne	pc!, {r1, r2, r3, r5, r8}	; <UNPREDICTABLE>
    11c0:	0b3a0e03 	bleq	e849d4 <__bss_end__+0xe724b4>
    11c4:	19270b3b 	stmdbne	r7!, {r0, r1, r3, r4, r5, r8, r9, fp}
    11c8:	193c1349 	ldmdbne	ip!, {r0, r3, r6, r8, r9, ip}
    11cc:	00001301 	andeq	r1, r0, r1, lsl #6
    11d0:	49002615 	stmdbmi	r0, {r0, r2, r4, r9, sl, sp}
    11d4:	16000013 			; <UNDEFINED> instruction: 0x16000013
    11d8:	00000035 	andeq	r0, r0, r5, lsr r0
    11dc:	01110100 	tsteq	r1, r0, lsl #2
    11e0:	0b130e25 	bleq	4c4a7c <__bss_end__+0x4b255c>
    11e4:	0e1b0e03 	cdpeq	14, 1, cr0, cr11, cr3, {0}
    11e8:	06120111 			; <UNDEFINED> instruction: 0x06120111
    11ec:	00001710 	andeq	r1, r0, r0, lsl r7
    11f0:	0b002402 	bleq	a200 <__bss_start__+0x14c>
    11f4:	030b3e0b 	movweq	r3, #48651	; 0xbe0b
    11f8:	03000008 	movweq	r0, #8
    11fc:	0b0b0024 	bleq	2c1294 <__bss_end__+0x2aed74>
    1200:	0e030b3e 	vmoveq.16	d3[0], r0
    1204:	0f040000 	svceq	0x00040000
    1208:	490b0b00 	stmdbmi	fp, {r8, r9, fp}
    120c:	05000013 	streq	r0, [r0, #-19]
    1210:	13490026 	movtne	r0, #36902	; 0x9026
    1214:	01060000 	mrseq	r0, (UNDEF: 6)
    1218:	01134901 	tsteq	r3, r1, lsl #18
    121c:	07000013 	smladeq	r0, r3, r0, r0
    1220:	13490021 	movtne	r0, #36897	; 0x9021
    1224:	00000b2f 	andeq	r0, r0, pc, lsr #22
    1228:	0b010408 	bleq	42250 <__bss_end__+0x2fd30>
    122c:	3b0b3a0b 	blcc	2cfa60 <__bss_end__+0x2bd540>
    1230:	0013010b 	andseq	r0, r3, fp, lsl #2
    1234:	00280900 	eoreq	r0, r8, r0, lsl #18
    1238:	0d1c0e03 	ldceq	14, cr0, [ip, #-12]
    123c:	2e0a0000 	cdpcs	0, 0, cr0, cr10, cr0, {0}
    1240:	03193f01 	tsteq	r9, #1, 30
    1244:	3b0b3a0e 	blcc	2cfa84 <__bss_end__+0x2bd564>
    1248:	1119270b 	tstne	r9, fp, lsl #14
    124c:	40061201 	andmi	r1, r6, r1, lsl #4
    1250:	19429718 	stmdbne	r2, {r3, r4, r8, r9, sl, ip, pc}^
    1254:	00001301 	andeq	r1, r0, r1, lsl #6
    1258:	0300340b 	movweq	r3, #1035	; 0x40b
    125c:	3b0b3a0e 	blcc	2cfa9c <__bss_end__+0x2bd57c>
    1260:	3f13490b 	svccc	0x0013490b
    1264:	00193c19 	andseq	r3, r9, r9, lsl ip
    1268:	00340c00 	eorseq	r0, r4, r0, lsl #24
    126c:	0b3a0803 	bleq	e83280 <__bss_end__+0xe70d60>
    1270:	13490b3b 	movtne	r0, #39739	; 0x9b3b
    1274:	00000b1c 	andeq	r0, r0, ip, lsl fp
    1278:	0300340d 	movweq	r3, #1037	; 0x40d
    127c:	3b0b3a08 	blcc	2cfaa4 <__bss_end__+0x2bd584>
    1280:	0013490b 	andseq	r4, r3, fp, lsl #18
    1284:	00340e00 	eorseq	r0, r4, r0, lsl #28
    1288:	0b3a0803 	bleq	e8329c <__bss_end__+0xe70d7c>
    128c:	13490b3b 	movtne	r0, #39739	; 0x9b3b
    1290:	00001802 	andeq	r1, r0, r2, lsl #16
    1294:	11010b0f 	tstne	r1, pc, lsl #22
    1298:	01061201 	tsteq	r6, r1, lsl #4
    129c:	10000013 	andne	r0, r0, r3, lsl r0
    12a0:	08030034 	stmdaeq	r3, {r2, r4, r5}
    12a4:	0b3b0b3a 	bleq	ec3f94 <__bss_end__+0xeb1a74>
    12a8:	17021349 	strne	r1, [r2, -r9, asr #6]
    12ac:	89110000 	ldmdbhi	r1, {}	; <UNPREDICTABLE>
    12b0:	11010182 	smlabbne	r1, r2, r1, r0
    12b4:	01133101 	tsteq	r3, r1, lsl #2
    12b8:	12000013 	andne	r0, r0, #19
    12bc:	0001828a 	andeq	r8, r1, sl, lsl #5
    12c0:	42911802 	addsmi	r1, r1, #131072	; 0x20000
    12c4:	13000018 	movwne	r0, #24
    12c8:	00018289 	andeq	r8, r1, r9, lsl #5
    12cc:	13310111 	teqne	r1, #1073741828	; 0x40000004
    12d0:	05140000 	ldreq	r0, [r4, #-0]
    12d4:	3a080300 	bcc	201edc <__bss_end__+0x1ef9bc>
    12d8:	490b3b0b 	stmdbmi	fp, {r0, r1, r3, r8, r9, fp, ip, sp}
    12dc:	00170213 	andseq	r0, r7, r3, lsl r2
    12e0:	00341500 	eorseq	r1, r4, r0, lsl #10
    12e4:	13490e03 	movtne	r0, #40451	; 0x9e03
    12e8:	18021934 	stmdane	r2, {r2, r4, r5, r8, fp, ip}
    12ec:	2e160000 	cdpcs	0, 1, cr0, cr6, cr0, {0}
    12f0:	03193f01 	tsteq	r9, #1, 30
    12f4:	3b0b3a0e 	blcc	2cfb34 <__bss_end__+0x2bd614>
    12f8:	3c19270b 	ldccc	7, cr2, [r9], {11}
    12fc:	00130119 	andseq	r0, r3, r9, lsl r1
    1300:	00051700 	andeq	r1, r5, r0, lsl #14
    1304:	00001349 	andeq	r1, r0, r9, asr #6
    1308:	3f002e18 	svccc	0x00002e18
    130c:	3a0e0319 	bcc	381f78 <__bss_end__+0x36fa58>
    1310:	270b3b0b 	strcs	r3, [fp, -fp, lsl #22]
    1314:	00193c19 	andseq	r3, r9, r9, lsl ip
    1318:	012e1900 	teqeq	lr, r0, lsl #18
    131c:	0e03193f 	mcreq	9, 0, r1, cr3, cr15, {1}
    1320:	0b3b0b3a 	bleq	ec4010 <__bss_end__+0xeb1af0>
    1324:	13491927 	movtne	r1, #39207	; 0x9927
    1328:	1301193c 	movwne	r1, #6460	; 0x193c
    132c:	181a0000 	ldmdane	sl, {}	; <UNPREDICTABLE>
    1330:	00000000 	andeq	r0, r0, r0
    1334:	25011101 	strcs	r1, [r1, #-257]	; 0x101
    1338:	030b130e 	movweq	r1, #45838	; 0xb30e
    133c:	110e1b0e 	tstne	lr, lr, lsl #22
    1340:	10061201 	andne	r1, r6, r1, lsl #4
    1344:	02000017 	andeq	r0, r0, #23
    1348:	0b0b0024 	bleq	2c13e0 <__bss_end__+0x2aeec0>
    134c:	08030b3e 	stmdaeq	r3, {r1, r2, r3, r4, r5, r8, r9, fp}
    1350:	16030000 	strne	r0, [r3], -r0
    1354:	3a0e0300 	bcc	381f5c <__bss_end__+0x36fa3c>
    1358:	490b3b0b 	stmdbmi	fp, {r0, r1, r3, r8, r9, fp, ip, sp}
    135c:	04000013 	streq	r0, [r0], #-19
    1360:	0b0b0024 	bleq	2c13f8 <__bss_end__+0x2aeed8>
    1364:	0e030b3e 	vmoveq.16	d3[0], r0
    1368:	0f050000 	svceq	0x00050000
    136c:	000b0b00 	andeq	r0, fp, r0, lsl #22
    1370:	01130600 	tsteq	r3, r0, lsl #12
    1374:	0b3a0b0b 	bleq	e83fa8 <__bss_end__+0xe71a88>
    1378:	13010b3b 	movwne	r0, #6971	; 0x1b3b
    137c:	0d070000 	stceq	0, cr0, [r7, #-0]
    1380:	3a080300 	bcc	201f88 <__bss_end__+0x1efa68>
    1384:	490b3b0b 	stmdbmi	fp, {r0, r1, r3, r8, r9, fp, ip, sp}
    1388:	000b3813 	andeq	r3, fp, r3, lsl r8
    138c:	000d0800 	andeq	r0, sp, r0, lsl #16
    1390:	0b3a0e03 	bleq	e84ba4 <__bss_end__+0xe72684>
    1394:	13490b3b 	movtne	r0, #39739	; 0x9b3b
    1398:	00000b38 	andeq	r0, r0, r8, lsr fp
    139c:	0b010409 	bleq	423c8 <__bss_end__+0x2fea8>
    13a0:	3b0b3a0b 	blcc	2cfbd4 <__bss_end__+0x2bd6b4>
    13a4:	0013010b 	andseq	r0, r3, fp, lsl #2
    13a8:	00280a00 	eoreq	r0, r8, r0, lsl #20
    13ac:	0d1c0e03 	ldceq	14, cr0, [ip, #-12]
    13b0:	2e0b0000 	cdpcs	0, 0, cr0, cr11, cr0, {0}
    13b4:	03193f01 	tsteq	r9, #1, 30
    13b8:	3b0b3a0e 	blcc	2cfbf8 <__bss_end__+0x2bd6d8>
    13bc:	4919270b 	ldmdbmi	r9, {r0, r1, r3, r8, r9, sl, sp}
    13c0:	12011113 	andne	r1, r1, #-1073741820	; 0xc0000004
    13c4:	97184006 	ldrls	r4, [r8, -r6]
    13c8:	13011942 	movwne	r1, #6466	; 0x1942
    13cc:	340c0000 	strcc	r0, [ip], #-0
    13d0:	3a080300 	bcc	201fd8 <__bss_end__+0x1efab8>
    13d4:	490b3b0b 	stmdbmi	fp, {r0, r1, r3, r8, r9, fp, ip, sp}
    13d8:	00061c13 	andeq	r1, r6, r3, lsl ip
    13dc:	82890d00 	addhi	r0, r9, #0, 26
    13e0:	01110101 	tsteq	r1, r1, lsl #2
    13e4:	00001331 	andeq	r1, r0, r1, lsr r3
    13e8:	01828a0e 	orreq	r8, r2, lr, lsl #20
    13ec:	91180200 	tstls	r8, r0, lsl #4
    13f0:	00001842 	andeq	r1, r0, r2, asr #16
    13f4:	0b000f0f 	bleq	5038 <_start-0x2fc8>
    13f8:	0013490b 	andseq	r4, r3, fp, lsl #18
    13fc:	012e1000 	teqeq	lr, r0
    1400:	0e03193f 	mcreq	9, 0, r1, cr3, cr15, {1}
    1404:	0b3b0b3a 	bleq	ec40f4 <__bss_end__+0xeb1bd4>
    1408:	13491927 	movtne	r1, #39207	; 0x9927
    140c:	0000193c 	andeq	r1, r0, ip, lsr r9
    1410:	49000511 	stmdbmi	r0, {r0, r4, r8, sl}
    1414:	00000013 	andeq	r0, r0, r3, lsl r0

Disassembly of section .debug_loc:

00000000 <.debug_loc>:
       0:	00000000 	andeq	r0, r0, r0
       4:	00000017 	andeq	r0, r0, r7, lsl r0
       8:	17500001 	ldrbne	r0, [r0, -r1]
       c:	b4000000 	strlt	r0, [r0], #-0
      10:	01000001 	tsteq	r0, r1
      14:	00005400 	andeq	r5, r0, r0, lsl #8
	...
      20:	00100000 	andseq	r0, r0, r0
      24:	00010000 	andeq	r0, r1, r0
      28:	00001051 	andeq	r1, r0, r1, asr r0
      2c:	00004c00 	andeq	r4, r0, r0, lsl #24
      30:	55000100 	strpl	r0, [r0, #-256]	; 0x100
      34:	0000004c 	andeq	r0, r0, ip, asr #32
      38:	000001b4 			; <UNDEFINED> instruction: 0x000001b4
      3c:	01f30004 	mvnseq	r0, r4
      40:	00009f51 	andeq	r9, r0, r1, asr pc
      44:	00000000 	andeq	r0, r0, r0
      48:	00f80000 	rscseq	r0, r8, r0
      4c:	01200000 	teqeq	r0, r0
      50:	00020000 	andeq	r0, r2, r0
      54:	01209f42 	teqeq	r0, r2, asr #30
      58:	01380000 	teqeq	r8, r0
      5c:	00010000 	andeq	r0, r1, r0
      60:	00013851 	andeq	r3, r1, r1, asr r8
      64:	00014000 	andeq	r4, r1, r0
      68:	42000200 	andmi	r0, r0, #0, 4
      6c:	0001409f 	muleq	r1, pc, r0	; <UNPREDICTABLE>
      70:	00016b00 	andeq	r6, r1, r0, lsl #22
      74:	51000100 	mrspl	r0, (UNDEF: 16)
	...
      80:	00000118 	andeq	r0, r0, r8, lsl r1
      84:	00000124 	andeq	r0, r0, r4, lsr #2
      88:	24520001 	ldrbcs	r0, [r2], #-1
      8c:	28000001 	stmdacs	r0, {r0}
      90:	03000001 	movweq	r0, #1
      94:	9f7f7200 	svcls	0x007f7200
	...
      a0:	000001b4 			; <UNDEFINED> instruction: 0x000001b4
      a4:	000001bb 			; <UNDEFINED> instruction: 0x000001bb
      a8:	bb500001 	bllt	14000b4 <__bss_end__+0x13edb94>
      ac:	2c000001 	stccs	0, cr0, [r0], {1}
      b0:	04000002 	streq	r0, [r0], #-2
      b4:	5001f300 	andpl	pc, r1, r0, lsl #6
      b8:	0000009f 	muleq	r0, pc, r0	; <UNPREDICTABLE>
	...
      c4:	00000400 	andeq	r0, r0, r0, lsl #8
      c8:	52000100 	andpl	r0, r0, #0, 2
      cc:	00000004 	andeq	r0, r0, r4
      d0:	00000020 	andeq	r0, r0, r0, lsr #32
      d4:	01f30004 	mvnseq	r0, r4
      d8:	00009f52 	andeq	r9, r0, r2, asr pc
	...
      e4:	000c0000 	andeq	r0, ip, r0
      e8:	00010000 	andeq	r0, r1, r0
      ec:	00000c50 	andeq	r0, r0, r0, asr ip
      f0:	00001400 	andeq	r1, r0, r0, lsl #8
      f4:	73000300 	movwvc	r0, #768	; 0x300
      f8:	00149f01 	andseq	r9, r4, r1, lsl #30
      fc:	00200000 	eoreq	r0, r0, r0
     100:	00010000 	andeq	r0, r1, r0
     104:	00000053 	andeq	r0, r0, r3, asr r0
     108:	00000000 	andeq	r0, r0, r0
     10c:	00002c00 	andeq	r2, r0, r0, lsl #24
     110:	00003800 	andeq	r3, r0, r0, lsl #16
     114:	50000100 	andpl	r0, r0, r0, lsl #2
     118:	00000038 	andeq	r0, r0, r8, lsr r0
     11c:	00000048 	andeq	r0, r0, r8, asr #32
     120:	48550001 	ldmdami	r5, {r0}^
     124:	58000000 	stmdapl	r0, {}	; <UNPREDICTABLE>
     128:	01000000 	mrseq	r0, (UNDEF: 0)
     12c:	00005000 	andeq	r5, r0, r0
	...
     138:	000b0000 	andeq	r0, fp, r0
     13c:	00010000 	andeq	r0, r1, r0
     140:	00000b50 	andeq	r0, r0, r0, asr fp
     144:	00001400 	andeq	r1, r0, r0, lsl #8
     148:	54000100 	strpl	r0, [r0], #-256	; 0x100
	...
     158:	00000010 	andeq	r0, r0, r0, lsl r0
     15c:	10500001 	subsne	r0, r0, r1
     160:	34000000 	strcc	r0, [r0], #-0
     164:	01000000 	mrseq	r0, (UNDEF: 0)
     168:	00005400 	andeq	r5, r0, r0, lsl #8
	...
     174:	00040000 	andeq	r0, r4, r0
     178:	00010000 	andeq	r0, r1, r0
     17c:	00000450 	andeq	r0, r0, r0, asr r4
     180:	00000c00 	andeq	r0, r0, r0, lsl #24
     184:	70000300 	andvc	r0, r0, r0, lsl #6
     188:	000c9f30 	andeq	r9, ip, r0, lsr pc
     18c:	00140000 	andseq	r0, r4, r0
     190:	00040000 	andeq	r0, r4, r0
     194:	9f5001f3 	svcls	0x005001f3
	...
     1a0:	00000014 	andeq	r0, r0, r4, lsl r0
     1a4:	00000020 	andeq	r0, r0, r0, lsr #32
     1a8:	20500001 	subscs	r0, r0, r1
     1ac:	2c000000 	stccs	0, cr0, [r0], {-0}
     1b0:	03000000 	movweq	r0, #0
     1b4:	9f017000 	svcls	0x00017000
     1b8:	0000002c 	andeq	r0, r0, ip, lsr #32
     1bc:	00000040 	andeq	r0, r0, r0, asr #32
     1c0:	00500001 	subseq	r0, r0, r1
     1c4:	00000000 	andeq	r0, r0, r0
     1c8:	14000000 	strne	r0, [r0], #-0
     1cc:	18000000 	stmdane	r0, {}	; <UNPREDICTABLE>
     1d0:	01000000 	mrseq	r0, (UNDEF: 0)
     1d4:	00185100 	andseq	r5, r8, r0, lsl #2
     1d8:	00400000 	subeq	r0, r0, r0
     1dc:	00040000 	andeq	r0, r4, r0
     1e0:	9f5101f3 	svcls	0x005101f3
	...
     1ec:	00000040 	andeq	r0, r0, r0, asr #32
     1f0:	00000060 	andeq	r0, r0, r0, rrx
     1f4:	60500001 	subsvs	r0, r0, r1
     1f8:	6c000000 	stcvs	0, cr0, [r0], {-0}
     1fc:	03000000 	movweq	r0, #0
     200:	9f017100 	svcls	0x00017100
     204:	0000006c 	andeq	r0, r0, ip, rrx
     208:	00000074 	andeq	r0, r0, r4, ror r0
     20c:	74510001 	ldrbvc	r0, [r1], #-1
     210:	80000000 	andhi	r0, r0, r0
     214:	03000000 	movweq	r0, #0
     218:	9f017100 	svcls	0x00017100
	...
     224:	00000040 	andeq	r0, r0, r0, asr #32
     228:	00000050 	andeq	r0, r0, r0, asr r0
     22c:	50510001 	subspl	r0, r1, r1
     230:	80000000 	andhi	r0, r0, r0
     234:	04000000 	streq	r0, [r0], #-0
     238:	5101f300 	mrspl	pc, SP_irq	; <UNPREDICTABLE>
     23c:	0000009f 	muleq	r0, pc, r0	; <UNPREDICTABLE>
     240:	00000000 	andeq	r0, r0, r0
     244:	00004000 	andeq	r4, r0, r0
     248:	00005800 	andeq	r5, r0, r0, lsl #16
     24c:	52000100 	andpl	r0, r0, #0, 2
     250:	00000058 	andeq	r0, r0, r8, asr r0
     254:	00000064 	andeq	r0, r0, r4, rrx
     258:	64520001 	ldrbvs	r0, [r2], #-1
     25c:	68000000 	stmdavs	r0, {}	; <UNPREDICTABLE>
     260:	03000000 	movweq	r0, #0
     264:	9f017200 	svcls	0x00017200
     268:	00000068 	andeq	r0, r0, r8, rrx
     26c:	00000080 	andeq	r0, r0, r0, lsl #1
     270:	00520001 	subseq	r0, r2, r1
     274:	00000000 	andeq	r0, r0, r0
     278:	40000000 	andmi	r0, r0, r0
     27c:	54000000 	strpl	r0, [r0], #-0
     280:	01000000 	mrseq	r0, (UNDEF: 0)
     284:	00545300 	subseq	r5, r4, r0, lsl #6
     288:	00780000 	rsbseq	r0, r8, r0
     28c:	00010000 	andeq	r0, r1, r0
     290:	00000053 	andeq	r0, r0, r3, asr r0
     294:	00000000 	andeq	r0, r0, r0
     298:	00004800 	andeq	r4, r0, r0, lsl #16
     29c:	00006000 	andeq	r6, r0, r0
     2a0:	5c000100 	stfpls	f0, [r0], {-0}
     2a4:	00000060 	andeq	r0, r0, r0, rrx
     2a8:	00000080 	andeq	r0, r0, r0, lsl #1
     2ac:	01f3000a 	mvnseq	r0, sl
     2b0:	5301f352 	movwpl	pc, #4946	; 0x1352	; <UNPREDICTABLE>
     2b4:	9f01231c 	svcls	0x0001231c
	...
     2c0:	00000080 	andeq	r0, r0, r0, lsl #1
     2c4:	000000a4 	andeq	r0, r0, r4, lsr #1
     2c8:	a4500001 	ldrbge	r0, [r0], #-1
     2cc:	18000000 	stmdane	r0, {}	; <UNPREDICTABLE>
     2d0:	03000001 	movweq	r0, #1
     2d4:	9f027000 	svcls	0x00027000
     2d8:	00000118 	andeq	r0, r0, r8, lsl r1
     2dc:	0000021c 	andeq	r0, r0, ip, lsl r2
     2e0:	01f30004 	mvnseq	r0, r4
     2e4:	00009f50 	andeq	r9, r0, r0, asr pc
     2e8:	00000000 	andeq	r0, r0, r0
     2ec:	00800000 	addeq	r0, r0, r0
     2f0:	00f00000 	rscseq	r0, r0, r0
     2f4:	00010000 	andeq	r0, r1, r0
     2f8:	0000f051 	andeq	pc, r0, r1, asr r0	; <UNPREDICTABLE>
     2fc:	00016000 	andeq	r6, r1, r0
     300:	55000100 	strpl	r0, [r0, #-256]	; 0x100
     304:	00000160 	andeq	r0, r0, r0, ror #2
     308:	00000168 	andeq	r0, r0, r8, ror #2
     30c:	68510001 	ldmdavs	r1, {r0}^
     310:	88000001 	stmdahi	r0, {r0}
     314:	01000001 	tsteq	r0, r1
     318:	01885500 	orreq	r5, r8, r0, lsl #10
     31c:	019c0000 	orrseq	r0, ip, r0
     320:	00010000 	andeq	r0, r1, r0
     324:	00019c51 	andeq	r9, r1, r1, asr ip
     328:	0001bc00 	andeq	fp, r1, r0, lsl #24
     32c:	55000100 	strpl	r0, [r0, #-256]	; 0x100
     330:	000001bc 			; <UNDEFINED> instruction: 0x000001bc
     334:	000001bf 			; <UNDEFINED> instruction: 0x000001bf
     338:	bf510001 	svclt	0x00510001
     33c:	00000001 	andeq	r0, r0, r1
     340:	01000002 	tsteq	r0, r2
     344:	02005500 	andeq	r5, r0, #0, 10
     348:	021c0000 	andseq	r0, ip, #0
     34c:	00040000 	andeq	r0, r4, r0
     350:	9f5101f3 	svcls	0x005101f3
	...
     35c:	00000080 	andeq	r0, r0, r0, lsl #1
     360:	00000094 	muleq	r0, r4, r0
     364:	94520001 	ldrbls	r0, [r2], #-1
     368:	00000000 	andeq	r0, r0, r0
     36c:	01000002 	tsteq	r0, r2
     370:	02005400 	andeq	r5, r0, #0, 8
     374:	021c0000 	andseq	r0, ip, #0
     378:	00040000 	andeq	r0, r4, r0
     37c:	9f5201f3 	svcls	0x005201f3
	...
     388:	00000080 	andeq	r0, r0, r0, lsl #1
     38c:	00000100 	andeq	r0, r0, r0, lsl #2
     390:	04530001 	ldrbeq	r0, [r3], #-1
     394:	08000001 	stmdaeq	r0, {r0}
     398:	01000001 	tsteq	r0, r1
     39c:	01605300 	cmneq	r0, r0, lsl #6
     3a0:	01680000 	cmneq	r8, r0
     3a4:	00010000 	andeq	r0, r1, r0
     3a8:	00016853 	andeq	r6, r1, r3, asr r8
     3ac:	00018800 	andeq	r8, r1, r0, lsl #16
     3b0:	f3000400 	vshl.u8	d0, d0, d0
     3b4:	889f5301 	ldmhi	pc, {r0, r8, r9, ip, lr}	; <UNPREDICTABLE>
     3b8:	90000001 	andls	r0, r0, r1
     3bc:	01000001 	tsteq	r0, r1
     3c0:	01905300 	orrseq	r5, r0, r0, lsl #6
     3c4:	01940000 	orrseq	r0, r4, r0
     3c8:	00010000 	andeq	r0, r1, r0
     3cc:	0001945c 	andeq	r9, r1, ip, asr r4
     3d0:	00019c00 	andeq	r9, r1, r0, lsl #24
     3d4:	53000100 	movwpl	r0, #256	; 0x100
     3d8:	0000019c 	muleq	r0, ip, r1
     3dc:	000001bc 			; <UNDEFINED> instruction: 0x000001bc
     3e0:	01f30004 	mvnseq	r0, r4
     3e4:	01bc9f53 			; <UNDEFINED> instruction: 0x01bc9f53
     3e8:	01bf0000 			; <UNDEFINED> instruction: 0x01bf0000
     3ec:	00010000 	andeq	r0, r1, r0
     3f0:	0001bf53 	andeq	fp, r1, r3, asr pc
     3f4:	0001d800 	andeq	sp, r1, r0, lsl #16
     3f8:	f3000400 	vshl.u8	d0, d0, d0
     3fc:	009f5301 	addseq	r5, pc, r1, lsl #6
     400:	00000000 	andeq	r0, r0, r0
     404:	80000000 	andhi	r0, r0, r0
     408:	9c000000 	stcls	0, cr0, [r0], {-0}
     40c:	02000000 	andeq	r0, r0, #0
     410:	9c009100 	stflsd	f1, [r0], {-0}
     414:	bf000000 	svclt	0x00000000
     418:	01000001 	tsteq	r0, r1
     41c:	01d85200 	bicseq	r5, r8, r0, lsl #4
     420:	01e30000 	mvneq	r0, r0
     424:	00010000 	andeq	r0, r1, r0
     428:	00000052 	andeq	r0, r0, r2, asr r0
     42c:	00000000 	andeq	r0, r0, r0
     430:	00009c00 	andeq	r9, r0, r0, lsl #24
     434:	00011800 	andeq	r1, r1, r0, lsl #16
     438:	5d000100 	stfpls	f0, [r0, #-0]
     43c:	00000118 	andeq	r0, r0, r8, lsl r1
     440:	0000011c 	andeq	r0, r0, ip, lsl r1
     444:	1c530001 	mrrcne	0, 0, r0, r3, cr1
     448:	20000001 	andcs	r0, r0, r1
     44c:	01000001 	tsteq	r0, r1
     450:	01205100 	teqeq	r0, r0, lsl #2
     454:	01600000 	cmneq	r0, r0
     458:	00010000 	andeq	r0, r1, r0
     45c:	00016053 	andeq	r6, r1, r3, asr r0
     460:	00016800 	andeq	r6, r1, r0, lsl #16
     464:	5d000100 	stfpls	f0, [r0, #-0]
     468:	00000168 	andeq	r0, r0, r8, ror #2
     46c:	0000016c 	andeq	r0, r0, ip, ror #2
     470:	6c5e0001 	mrrcvs	0, 0, r0, lr, cr1
     474:	88000001 	stmdahi	r0, {r0}
     478:	01000001 	tsteq	r0, r1
     47c:	01885300 	orreq	r5, r8, r0, lsl #6
     480:	01900000 	orrseq	r0, r0, r0
     484:	00040000 	andeq	r0, r4, r0
     488:	9f7fa191 	svcls	0x007fa191
     48c:	00000190 	muleq	r0, r0, r1
     490:	00000194 	muleq	r0, r4, r1
     494:	94530001 	ldrbls	r0, [r3], #-1
     498:	9c000001 	stcls	0, cr0, [r0], {1}
     49c:	01000001 	tsteq	r0, r1
     4a0:	019c5d00 	orrseq	r5, ip, r0, lsl #26
     4a4:	01a00000 	moveq	r0, r0
     4a8:	00010000 	andeq	r0, r1, r0
     4ac:	0001a05e 	andeq	sl, r1, lr, asr r0
     4b0:	0001bc00 	andeq	fp, r1, r0, lsl #24
     4b4:	53000100 	movwpl	r0, #256	; 0x100
     4b8:	000001bc 			; <UNDEFINED> instruction: 0x000001bc
     4bc:	000001d8 	ldrdeq	r0, [r0], -r8
     4c0:	d85d0001 	ldmdale	sp, {r0}^
     4c4:	e3000001 	movw	r0, #1
     4c8:	01000001 	tsteq	r0, r1
     4cc:	00005300 	andeq	r5, r0, r0, lsl #6
     4d0:	00000000 	andeq	r0, r0, r0
     4d4:	00a00000 	adceq	r0, r0, r0
     4d8:	00ec0000 	rsceq	r0, ip, r0
     4dc:	00010000 	andeq	r0, r1, r0
     4e0:	0000ec5c 	andeq	lr, r0, ip, asr ip
     4e4:	00010000 	andeq	r0, r1, r0
     4e8:	53000100 	movwpl	r0, #256	; 0x100
     4ec:	00000100 	andeq	r0, r0, r0, lsl #2
     4f0:	00000104 	andeq	r0, r0, r4, lsl #2
     4f4:	045c0001 	ldrbeq	r0, [ip], #-1
     4f8:	08000001 	stmdaeq	r0, {r0}
     4fc:	01000001 	tsteq	r0, r1
     500:	01085300 	mrseq	r5, (UNDEF: 56)
     504:	01180000 	tsteq	r8, r0
     508:	00010000 	andeq	r0, r1, r0
     50c:	0001185c 	andeq	r1, r1, ip, asr r8
     510:	00011c00 	andeq	r1, r1, r0, lsl #24
     514:	50000100 	andpl	r0, r0, r0, lsl #2
     518:	0000011c 	andeq	r0, r0, ip, lsl r1
     51c:	0000013c 	andeq	r0, r0, ip, lsr r1
     520:	445c0001 	ldrbmi	r0, [ip], #-1
     524:	58000001 	stmdapl	r0, {r0}
     528:	01000001 	tsteq	r0, r1
     52c:	01585000 	cmpeq	r8, r0
     530:	01600000 	cmneq	r0, r0
     534:	00010000 	andeq	r0, r1, r0
     538:	0001605c 	andeq	r6, r1, ip, asr r0
     53c:	00016800 	andeq	r6, r1, r0, lsl #16
     540:	53000100 	movwpl	r0, #256	; 0x100
     544:	00000168 	andeq	r0, r0, r8, ror #2
     548:	00000178 	andeq	r0, r0, r8, ror r1
     54c:	785c0001 	ldmdavc	ip, {r0}^
     550:	80000001 	andhi	r0, r0, r1
     554:	05000001 	streq	r0, [r0, #-1]
     558:	34007c00 	strcc	r7, [r0], #-3072	; 0xc00
     55c:	01809f25 	orreq	r9, r0, r5, lsr #30
     560:	01880000 	orreq	r0, r8, r0
     564:	00010000 	andeq	r0, r1, r0
     568:	0001885c 	andeq	r8, r1, ip, asr r8
     56c:	00019000 	andeq	r9, r1, r0
     570:	53000100 	movwpl	r0, #256	; 0x100
     574:	00000190 	muleq	r0, r0, r1
     578:	00000194 	muleq	r0, r4, r1
     57c:	945c0001 	ldrbls	r0, [ip], #-1
     580:	9c000001 	stcls	0, cr0, [r0], {1}
     584:	01000001 	tsteq	r0, r1
     588:	019c5300 	orrseq	r5, ip, r0, lsl #6
     58c:	01ac0000 			; <UNDEFINED> instruction: 0x01ac0000
     590:	00010000 	andeq	r0, r1, r0
     594:	0001ac5c 	andeq	sl, r1, ip, asr ip
     598:	0001b400 	andeq	fp, r1, r0, lsl #8
     59c:	7c000500 	cfstr32vc	mvfx0, [r0], {-0}
     5a0:	9f253100 	svcls	0x00253100
     5a4:	000001b4 			; <UNDEFINED> instruction: 0x000001b4
     5a8:	000001bc 			; <UNDEFINED> instruction: 0x000001bc
     5ac:	bc5c0001 	mrrclt	0, 0, r0, ip, cr1
     5b0:	bf000001 	svclt	0x00000001
     5b4:	01000001 	tsteq	r0, r1
     5b8:	01bf5300 			; <UNDEFINED> instruction: 0x01bf5300
     5bc:	01d80000 	bicseq	r0, r8, r0
     5c0:	00040000 	andeq	r0, r4, r0
     5c4:	9f5301f3 	svcls	0x005301f3
     5c8:	000001d8 	ldrdeq	r0, [r0], -r8
     5cc:	000001e3 	andeq	r0, r0, r3, ror #3
     5d0:	005c0001 	subseq	r0, ip, r1
     5d4:	00000000 	andeq	r0, r0, r0
     5d8:	ec000000 	stc	0, cr0, [r0], {-0}
     5dc:	fc000000 	stc2	0, cr0, [r0], {-0}
     5e0:	02000000 	andeq	r0, r0, #0
     5e4:	fc9f3000 	ldc2	0, cr3, [pc], {0}
     5e8:	04000000 	streq	r0, [r0], #-0
     5ec:	02000001 	andeq	r0, r0, #1
     5f0:	049f3100 	ldreq	r3, [pc], #256	; 5f8 <_start-0x7a08>
     5f4:	08000001 	stmdaeq	r0, {r0}
     5f8:	02000001 	andeq	r0, r0, #1
     5fc:	009f3000 	addseq	r3, pc, r0
     600:	00000000 	andeq	r0, r0, r0
     604:	1c000000 	stcne	0, cr0, [r0], {-0}
     608:	2b000002 	blcs	618 <_start-0x79e8>
     60c:	01000002 	tsteq	r0, r2
     610:	022b5000 	eoreq	r5, fp, #0
     614:	02440000 	subeq	r0, r4, #0
     618:	00040000 	andeq	r0, r4, r0
     61c:	9f5001f3 	svcls	0x005001f3
     620:	00000244 	andeq	r0, r0, r4, asr #4
     624:	00000270 	andeq	r0, r0, r0, ror r2
     628:	00500001 	subseq	r0, r0, r1
     62c:	00000000 	andeq	r0, r0, r0
     630:	1c000000 	stcne	0, cr0, [r0], {-0}
     634:	2b000002 	blcs	644 <_start-0x79bc>
     638:	01000002 	tsteq	r0, r2
     63c:	022b5100 	eoreq	r5, fp, #0, 2
     640:	02440000 	subeq	r0, r4, #0
     644:	00040000 	andeq	r0, r4, r0
     648:	9f5101f3 	svcls	0x005101f3
     64c:	00000244 	andeq	r0, r0, r4, asr #4
     650:	00000270 	andeq	r0, r0, r0, ror r2
     654:	00510001 	subseq	r0, r1, r1
     658:	00000000 	andeq	r0, r0, r0
     65c:	70000000 	andvc	r0, r0, r0
     660:	9c000002 	stcls	0, cr0, [r0], {2}
     664:	01000002 	tsteq	r0, r2
     668:	029c5000 	addseq	r5, ip, #0
     66c:	04e40000 	strbteq	r0, [r4], #0
     670:	00010000 	andeq	r0, r1, r0
     674:	0004e45a 	andeq	lr, r4, sl, asr r4
     678:	0004f800 	andeq	pc, r4, r0, lsl #16
     67c:	f3000400 	vshl.u8	d0, d0, d0
     680:	009f5001 	addseq	r5, pc, r1
     684:	00000000 	andeq	r0, r0, r0
     688:	70000000 	andvc	r0, r0, r0
     68c:	84000002 	strhi	r0, [r0], #-2
     690:	01000002 	tsteq	r0, r2
     694:	02845100 	addeq	r5, r4, #0, 2
     698:	029c0000 	addseq	r0, ip, #0
     69c:	00030000 	andeq	r0, r3, r0
     6a0:	9c9f0171 	ldflss	f0, [pc], {113}	; 0x71
     6a4:	f8000002 			; <UNDEFINED> instruction: 0xf8000002
     6a8:	04000004 	streq	r0, [r0], #-4
     6ac:	5101f300 	mrspl	pc, SP_irq	; <UNPREDICTABLE>
     6b0:	0000009f 	muleq	r0, pc, r0	; <UNPREDICTABLE>
     6b4:	00000000 	andeq	r0, r0, r0
     6b8:	00027000 	andeq	r7, r2, r0
     6bc:	0002a400 	andeq	sl, r2, r0, lsl #8
     6c0:	52000100 	andpl	r0, r0, #0, 2
     6c4:	000002a4 	andeq	r0, r0, r4, lsr #5
     6c8:	000002cc 	andeq	r0, r0, ip, asr #5
     6cc:	cc520001 	mrrcgt	0, 0, r0, r2, cr1
     6d0:	94000002 	strls	r0, [r0], #-2
     6d4:	01000004 	tsteq	r0, r4
     6d8:	04945600 	ldreq	r5, [r4], #1536	; 0x600
     6dc:	04f80000 	ldrbteq	r0, [r8], #0
     6e0:	00010000 	andeq	r0, r1, r0
     6e4:	00000052 	andeq	r0, r0, r2, asr r0
     6e8:	00000000 	andeq	r0, r0, r0
     6ec:	00027000 	andeq	r7, r2, r0
     6f0:	00028c00 	andeq	r8, r2, r0, lsl #24
     6f4:	53000100 	movwpl	r0, #256	; 0x100
	...
     700:	00000280 	andeq	r0, r0, r0, lsl #5
     704:	0000029c 	muleq	r0, ip, r2
     708:	9c500001 	mrrcls	0, 0, r0, r0, cr1	; <UNPREDICTABLE>
     70c:	a0000002 	andge	r0, r0, r2
     710:	01000002 	tsteq	r0, r2
     714:	02a05400 	adceq	r5, r0, #0, 8
     718:	02ac0000 	adceq	r0, ip, #0
     71c:	00030000 	andeq	r0, r3, r0
     720:	ac9f0174 	ldfges	f0, [pc], {116}	; 0x74
     724:	b8000002 	stmdalt	r0, {r1}
     728:	01000002 	tsteq	r0, r2
     72c:	02b85400 	adcseq	r5, r8, #0, 8
     730:	02c40000 	sbceq	r0, r4, #0
     734:	00030000 	andeq	r0, r3, r0
     738:	c49f0174 	ldrgt	r0, [pc], #372	; 740 <_start-0x78c0>
     73c:	98000002 	stmdals	r0, {r1}
     740:	01000004 	tsteq	r0, r4
     744:	04985400 	ldreq	r5, [r8], #1024	; 0x400
     748:	04a40000 	strteq	r0, [r4], #0
     74c:	00030000 	andeq	r0, r3, r0
     750:	a49f0174 	ldrge	r0, [pc], #372	; 758 <_start-0x78a8>
     754:	d0000004 	andle	r0, r0, r4
     758:	01000004 	tsteq	r0, r4
     75c:	04d05400 	ldrbeq	r5, [r0], #1024	; 0x400
     760:	04dc0000 	ldrbeq	r0, [ip], #0
     764:	00010000 	andeq	r0, r1, r0
     768:	0004dc50 	andeq	sp, r4, r0, asr ip
     76c:	0004e400 	andeq	lr, r4, r0, lsl #8
     770:	74000300 	strvc	r0, [r0], #-768	; 0x300
     774:	00009f01 	andeq	r9, r0, r1, lsl #30
     778:	00000000 	andeq	r0, r0, r0
     77c:	02880000 	addeq	r0, r8, #0
     780:	04e40000 	strbteq	r0, [r4], #0
     784:	00010000 	andeq	r0, r1, r0
     788:	0004e458 	andeq	lr, r4, r8, asr r4
     78c:	0004f800 	andeq	pc, r4, r0, lsl #16
     790:	f3000a00 	vpmax.u8	d0, d0, d0
     794:	01f35101 	mvnseq	r5, r1, lsl #2
     798:	1c312250 	lfmne	f2, 4, [r1], #-320	; 0xfffffec0
     79c:	0000009f 	muleq	r0, pc, r0	; <UNPREDICTABLE>
     7a0:	00000000 	andeq	r0, r0, r0
     7a4:	0003cc00 	andeq	ip, r3, r0, lsl #24
     7a8:	0003d000 	andeq	sp, r3, r0
     7ac:	50000100 	andpl	r0, r0, r0, lsl #2
     7b0:	000003f0 	strdeq	r0, [r0], -r0	; <UNPREDICTABLE>
     7b4:	000003f4 	strdeq	r0, [r0], -r4
     7b8:	14500001 	ldrbne	r0, [r0], #-1
     7bc:	18000004 	stmdane	r0, {r2}
     7c0:	01000004 	tsteq	r0, r4
     7c4:	04385000 	ldrteq	r5, [r8], #-0
     7c8:	043c0000 	ldrteq	r0, [ip], #-0
     7cc:	00010000 	andeq	r0, r1, r0
     7d0:	00044450 	andeq	r4, r4, r0, asr r4
     7d4:	00044800 	andeq	r4, r4, r0, lsl #16
     7d8:	50000100 	andpl	r0, r0, r0, lsl #2
     7dc:	00000468 	andeq	r0, r0, r8, ror #8
     7e0:	0000046c 	andeq	r0, r0, ip, ror #8
     7e4:	90500001 	subsls	r0, r0, r1
     7e8:	b8000004 	stmdalt	r0, {r2}
     7ec:	01000004 	tsteq	r0, r4
     7f0:	00005000 	andeq	r5, r0, r0
     7f4:	00000000 	andeq	r0, r0, r0
     7f8:	02cc0000 	sbceq	r0, ip, #0
     7fc:	02d40000 	sbcseq	r0, r4, #0
     800:	00020000 	andeq	r0, r2, r0
     804:	02d49f30 	sbcseq	r9, r4, #48, 30	; 0xc0
     808:	02d80000 	sbcseq	r0, r8, #0
     80c:	00010000 	andeq	r0, r1, r0
     810:	0002e457 	andeq	lr, r2, r7, asr r4
     814:	0004b800 	andeq	fp, r4, r0, lsl #16
     818:	57000100 	strpl	r0, [r0, -r0, lsl #2]
	...
     824:	00000004 	andeq	r0, r0, r4
     828:	00000008 	andeq	r0, r0, r8
     82c:	00730007 	rsbseq	r0, r3, r7
     830:	2110000a 	tstcs	r0, sl
     834:	0000089f 	muleq	r0, pc, r8	; <UNPREDICTABLE>
     838:	00001000 	andeq	r1, r0, r0
     83c:	53000100 	movwpl	r0, #256	; 0x100
	...
     848:	00000014 	andeq	r0, r0, r4, lsl r0
     84c:	00000018 	andeq	r0, r0, r8, lsl r0
     850:	00730007 	rsbseq	r0, r3, r7
     854:	1aefff0b 	bne	ffc00488 <__bss_end__+0xffbedf68>
     858:	0000189f 	muleq	r0, pc, r8	; <UNPREDICTABLE>
     85c:	00002000 	andeq	r2, r0, r0
     860:	53000100 	movwpl	r0, #256	; 0x100
	...
     870:	0000000c 	andeq	r0, r0, ip
     874:	0c500001 	mrrceq	0, 0, r0, r0, cr1	; <UNPREDICTABLE>
     878:	20000000 	andcs	r0, r0, r0
     87c:	01000000 	mrseq	r0, (UNDEF: 0)
     880:	00005400 	andeq	r5, r0, r0, lsl #8
     884:	00000000 	andeq	r0, r0, r0
     888:	00340000 	eorseq	r0, r4, r0
     88c:	003c0000 	eorseq	r0, ip, r0
     890:	00030000 	andeq	r0, r3, r0
     894:	3c9f0473 	cfldrscc	mvf0, [pc], {115}	; 0x73
     898:	47000000 	strmi	r0, [r0, -r0]
     89c:	01000000 	mrseq	r0, (UNDEF: 0)
     8a0:	00005300 	andeq	r5, r0, r0, lsl #6
     8a4:	00000000 	andeq	r0, r0, r0
     8a8:	00480000 	subeq	r0, r8, r0
     8ac:	00740000 	rsbseq	r0, r4, r0
     8b0:	00010000 	andeq	r0, r1, r0
     8b4:	00007450 	andeq	r7, r0, r0, asr r4
     8b8:	00008300 	andeq	r8, r0, r0, lsl #6
     8bc:	73000300 	movwvc	r0, #768	; 0x300
     8c0:	00009f78 	andeq	r9, r0, r8, ror pc
     8c4:	00000000 	andeq	r0, r0, r0
     8c8:	89dc0000 	ldmibhi	ip, {}^	; <UNPREDICTABLE>
     8cc:	89e00000 	stmibhi	r0!, {}^	; <UNPREDICTABLE>
     8d0:	00020000 	andeq	r0, r2, r0
     8d4:	89e09f30 	stmibhi	r0!, {r4, r5, r8, r9, sl, fp, ip, pc}^
     8d8:	89e40000 	stmibhi	r4!, {}^	; <UNPREDICTABLE>
     8dc:	00010000 	andeq	r0, r1, r0
     8e0:	00000050 	andeq	r0, r0, r0, asr r0
     8e4:	00000000 	andeq	r0, r0, r0
     8e8:	0089f400 	addeq	pc, r9, r0, lsl #8
     8ec:	0089f800 	addeq	pc, r9, r0, lsl #16
     8f0:	30000200 	andcc	r0, r0, r0, lsl #4
     8f4:	0089f89f 	umulleq	pc, r9, pc, r8	; <UNPREDICTABLE>
     8f8:	0089fc00 	addeq	pc, r9, r0, lsl #24
     8fc:	53000100 	movwpl	r0, #256	; 0x100
     900:	00008a00 	andeq	r8, r0, r0, lsl #20
     904:	00008a08 	andeq	r8, r0, r8, lsl #20
     908:	00530001 	subseq	r0, r3, r1
	...
     914:	04000000 	streq	r0, [r0], #-0
     918:	01000000 	mrseq	r0, (UNDEF: 0)
     91c:	00045000 	andeq	r5, r4, r0
     920:	000c0000 	andeq	r0, ip, r0
     924:	00010000 	andeq	r0, r1, r0
     928:	00000c53 	andeq	r0, r0, r3, asr ip
     92c:	00001000 	andeq	r1, r0, r0
     930:	50000100 	andpl	r0, r0, r0, lsl #2
     934:	00000010 	andeq	r0, r0, r0, lsl r0
     938:	0000001c 	andeq	r0, r0, ip, lsl r0
     93c:	00530001 	subseq	r0, r3, r1
     940:	00000000 	andeq	r0, r0, r0
     944:	3c000000 	stccc	0, cr0, [r0], {-0}
     948:	47000000 	strmi	r0, [r0, -r0]
     94c:	01000000 	mrseq	r0, (UNDEF: 0)
     950:	00475000 	subeq	r5, r7, r0
     954:	00600000 	rsbeq	r0, r0, r0
     958:	00010000 	andeq	r0, r1, r0
     95c:	00000055 	andeq	r0, r0, r5, asr r0
     960:	00000000 	andeq	r0, r0, r0
     964:	00005000 	andeq	r5, r0, r0
     968:	00005400 	andeq	r5, r0, r0, lsl #8
     96c:	50000100 	andpl	r0, r0, r0, lsl #2
	...
     978:	00000060 	andeq	r0, r0, r0, rrx
     97c:	0000006c 	andeq	r0, r0, ip, rrx
     980:	6c500001 	mrrcvs	0, 0, r0, r0, cr1	; <UNPREDICTABLE>
     984:	74000000 	strvc	r0, [r0], #-0
     988:	04000000 	streq	r0, [r0], #-0
     98c:	5001f300 	andpl	pc, r1, r0, lsl #6
     990:	0000009f 	muleq	r0, pc, r0	; <UNPREDICTABLE>
     994:	00000000 	andeq	r0, r0, r0
     998:	00007400 	andeq	r7, r0, r0, lsl #8
     99c:	00008000 	andeq	r8, r0, r0
     9a0:	50000100 	andpl	r0, r0, r0, lsl #2
     9a4:	00000080 	andeq	r0, r0, r0, lsl #1
     9a8:	00000088 	andeq	r0, r0, r8, lsl #1
     9ac:	01f30004 	mvnseq	r0, r4
     9b0:	00009f50 	andeq	r9, r0, r0, asr pc
	...
     9bc:	00900000 	addseq	r0, r0, r0
     9c0:	00010000 	andeq	r0, r1, r0
     9c4:	00009050 	andeq	r9, r0, r0, asr r0
     9c8:	0000d400 	andeq	sp, r0, r0, lsl #8
     9cc:	54000100 	strpl	r0, [r0], #-256	; 0x100
	...
     9d8:	00000048 	andeq	r0, r0, r8, asr #32
     9dc:	0000004c 	andeq	r0, r0, ip, asr #32
     9e0:	54550001 	ldrbpl	r0, [r5], #-1
     9e4:	58000000 	stmdapl	r0, {}	; <UNPREDICTABLE>
     9e8:	01000000 	mrseq	r0, (UNDEF: 0)
     9ec:	00605500 	rsbeq	r5, r0, r0, lsl #10
     9f0:	00640000 	rsbeq	r0, r4, r0
     9f4:	00010000 	andeq	r0, r1, r0
     9f8:	00006c55 	andeq	r6, r0, r5, asr ip
     9fc:	00007000 	andeq	r7, r0, r0
     a00:	55000100 	strpl	r0, [r0, #-256]	; 0x100
     a04:	00000078 	andeq	r0, r0, r8, ror r0
     a08:	0000007c 	andeq	r0, r0, ip, ror r0
     a0c:	84550001 	ldrbhi	r0, [r5], #-1
     a10:	88000000 	stmdahi	r0, {}	; <UNPREDICTABLE>
     a14:	01000000 	mrseq	r0, (UNDEF: 0)
     a18:	008c5500 	addeq	r5, ip, r0, lsl #10
     a1c:	00d40000 	sbcseq	r0, r4, r0
     a20:	00010000 	andeq	r0, r1, r0
     a24:	00000055 	andeq	r0, r0, r5, asr r0
     a28:	00000000 	andeq	r0, r0, r0
     a2c:	00001c00 	andeq	r1, r0, r0, lsl #24
     a30:	00004400 	andeq	r4, r0, r0, lsl #8
     a34:	53000100 	movwpl	r0, #256	; 0x100
     a38:	00000044 	andeq	r0, r0, r4, asr #32
     a3c:	0000004c 	andeq	r0, r0, ip, asr #32
     a40:	0070001c 	rsbseq	r0, r0, ip, lsl r0
     a44:	25f72cf7 	ldrbcs	r2, [r7, #3319]!	; 0xcf7
     a48:	cd0825f4 	cfstr32gt	mvfx2, [r8, #-976]	; 0xfffffc30
     a4c:	00cccccc 	sbceq	ip, ip, ip, asr #25
     a50:	1e000000 	cdpne	0, 0, cr0, cr0, cr0, {0}
     a54:	25f72008 	ldrbcs	r2, [r7, #8]!
     a58:	332cf725 	msrcc	CPSR_fs, #9699328	; 0x940000
     a5c:	004c9f25 	subeq	r9, ip, r5, lsr #30
     a60:	00500000 	subseq	r0, r0, r0
     a64:	00010000 	andeq	r0, r1, r0
     a68:	00005053 	andeq	r5, r0, r3, asr r0
     a6c:	00005800 	andeq	r5, r0, r0, lsl #16
     a70:	70001c00 	andvc	r1, r0, r0, lsl #24
     a74:	f72cf700 			; <UNDEFINED> instruction: 0xf72cf700
     a78:	0825f425 	stmdaeq	r5!, {r0, r2, r5, sl, ip, sp, lr, pc}
     a7c:	cccccccd 	stclgt	12, cr12, [ip], {205}	; 0xcd
     a80:	00000000 	andeq	r0, r0, r0
     a84:	f720081e 			; <UNDEFINED> instruction: 0xf720081e
     a88:	2cf72525 	cfldr64cs	mvdx2, [r7], #148	; 0x94
     a8c:	589f2533 	ldmpl	pc, {r0, r1, r4, r5, r8, sl, sp}	; <UNPREDICTABLE>
     a90:	5c000000 	stcpl	0, cr0, [r0], {-0}
     a94:	01000000 	mrseq	r0, (UNDEF: 0)
     a98:	005c5300 	subseq	r5, ip, r0, lsl #6
     a9c:	00640000 	rsbeq	r0, r4, r0
     aa0:	001c0000 	andseq	r0, ip, r0
     aa4:	2cf70070 	ldclcs	0, cr0, [r7], #448	; 0x1c0
     aa8:	25f425f7 	ldrbcs	r2, [r4, #1527]!	; 0x5f7
     aac:	cccccd08 	stclgt	13, cr12, [ip], {8}
     ab0:	000000cc 	andeq	r0, r0, ip, asr #1
     ab4:	20081e00 	andcs	r1, r8, r0, lsl #28
     ab8:	f72525f7 			; <UNDEFINED> instruction: 0xf72525f7
     abc:	9f25332c 	svcls	0x0025332c
     ac0:	00000064 	andeq	r0, r0, r4, rrx
     ac4:	00000068 	andeq	r0, r0, r8, rrx
     ac8:	68530001 	ldmdavs	r3, {r0}^
     acc:	70000000 	andvc	r0, r0, r0
     ad0:	1c000000 	stcne	0, cr0, [r0], {-0}
     ad4:	f7007000 			; <UNDEFINED> instruction: 0xf7007000
     ad8:	f425f72c 	vld1.8	{d15}, [r5 :128], ip
     adc:	cccd0825 	stclgt	8, cr0, [sp], {37}	; 0x25
     ae0:	0000cccc 	andeq	ip, r0, ip, asr #25
     ae4:	081e0000 	ldmdaeq	lr, {}	; <UNPREDICTABLE>
     ae8:	2525f720 	strcs	pc, [r5, #-1824]!	; 0x720
     aec:	25332cf7 	ldrcs	r2, [r3, #-3319]!	; 0xcf7
     af0:	0000709f 	muleq	r0, pc, r0	; <UNPREDICTABLE>
     af4:	00007400 	andeq	r7, r0, r0, lsl #8
     af8:	53000100 	movwpl	r0, #256	; 0x100
     afc:	00000074 	andeq	r0, r0, r4, ror r0
     b00:	0000007c 	andeq	r0, r0, ip, ror r0
     b04:	0070001c 	rsbseq	r0, r0, ip, lsl r0
     b08:	25f72cf7 	ldrbcs	r2, [r7, #3319]!	; 0xcf7
     b0c:	cd0825f4 	cfstr32gt	mvfx2, [r8, #-976]	; 0xfffffc30
     b10:	00cccccc 	sbceq	ip, ip, ip, asr #25
     b14:	1e000000 	cdpne	0, 0, cr0, cr0, cr0, {0}
     b18:	25f72008 	ldrbcs	r2, [r7, #8]!
     b1c:	332cf725 	msrcc	CPSR_fs, #9699328	; 0x940000
     b20:	007c9f25 	rsbseq	r9, ip, r5, lsr #30
     b24:	00800000 	addeq	r0, r0, r0
     b28:	00010000 	andeq	r0, r1, r0
     b2c:	00008053 	andeq	r8, r0, r3, asr r0
     b30:	00008800 	andeq	r8, r0, r0, lsl #16
     b34:	70001c00 	andvc	r1, r0, r0, lsl #24
     b38:	f72cf700 			; <UNDEFINED> instruction: 0xf72cf700
     b3c:	0825f425 	stmdaeq	r5!, {r0, r2, r5, sl, ip, sp, lr, pc}
     b40:	cccccccd 	stclgt	12, cr12, [ip], {205}	; 0xcd
     b44:	00000000 	andeq	r0, r0, r0
     b48:	f720081e 			; <UNDEFINED> instruction: 0xf720081e
     b4c:	2cf72525 	cfldr64cs	mvdx2, [r7], #148	; 0x94
     b50:	889f2533 	ldmhi	pc, {r0, r1, r4, r5, r8, sl, sp}	; <UNPREDICTABLE>
     b54:	8c000000 	stchi	0, cr0, [r0], {-0}
     b58:	01000000 	mrseq	r0, (UNDEF: 0)
     b5c:	008c5300 	addeq	r5, ip, r0, lsl #6
     b60:	00900000 	addseq	r0, r0, r0
     b64:	001c0000 	andseq	r0, ip, r0
     b68:	2cf70070 	ldclcs	0, cr0, [r7], #448	; 0x1c0
     b6c:	25f425f7 	ldrbcs	r2, [r4, #1527]!	; 0x5f7
     b70:	cccccd08 	stclgt	13, cr12, [ip], {8}
     b74:	000000cc 	andeq	r0, r0, ip, asr #1
     b78:	20081e00 	andcs	r1, r8, r0, lsl #28
     b7c:	f72525f7 			; <UNDEFINED> instruction: 0xf72525f7
     b80:	9f25332c 	svcls	0x0025332c
     b84:	00000090 	muleq	r0, r0, r0
     b88:	00000098 	muleq	r0, r8, r0
     b8c:	0074001c 	rsbseq	r0, r4, ip, lsl r0
     b90:	25f72cf7 	ldrbcs	r2, [r7, #3319]!	; 0xcf7
     b94:	cd0825f4 	cfstr32gt	mvfx2, [r8, #-976]	; 0xfffffc30
     b98:	00cccccc 	sbceq	ip, ip, ip, asr #25
     b9c:	1e000000 	cdpne	0, 0, cr0, cr0, cr0, {0}
     ba0:	25f72008 	ldrbcs	r2, [r7, #8]!
     ba4:	332cf725 	msrcc	CPSR_fs, #9699328	; 0x940000
     ba8:	00989f25 	addseq	r9, r8, r5, lsr #30
     bac:	009c0000 	addseq	r0, ip, r0
     bb0:	00170000 	andseq	r0, r7, r0
     bb4:	2cf70074 	ldclcs	0, cr0, [r7], #464	; 0x1d0
     bb8:	007125f7 	ldrshteq	r2, [r1], #-87	; 0xffffffa9
     bbc:	25f72cf7 	ldrbcs	r2, [r7, #3319]!	; 0xcf7
     bc0:	f720081e 			; <UNDEFINED> instruction: 0xf720081e
     bc4:	2cf72525 	cfldr64cs	mvdx2, [r7], #148	; 0x94
     bc8:	9c9f2533 	cfldr32ls	mvfx2, [pc], {51}	; 0x33
     bcc:	d4000000 	strle	r0, [r0], #-0
     bd0:	1c000000 	stcne	0, cr0, [r0], {-0}
     bd4:	f7007400 			; <UNDEFINED> instruction: 0xf7007400
     bd8:	f425f72c 	vld1.8	{d15}, [r5 :128], ip
     bdc:	cccd0825 	stclgt	8, cr0, [sp], {37}	; 0x25
     be0:	0000cccc 	andeq	ip, r0, ip, asr #25
     be4:	081e0000 	ldmdaeq	lr, {}	; <UNPREDICTABLE>
     be8:	2525f720 	strcs	pc, [r5, #-1824]!	; 0x720
     bec:	25332cf7 	ldrcs	r2, [r3, #-3319]!	; 0xcf7
     bf0:	0000009f 	muleq	r0, pc, r0	; <UNPREDICTABLE>
     bf4:	00000000 	andeq	r0, r0, r0
     bf8:	00009400 	andeq	r9, r0, r0, lsl #8
     bfc:	0000b800 	andeq	fp, r0, r0, lsl #16
     c00:	50000100 	andpl	r0, r0, r0, lsl #2
     c04:	000000b8 	strheq	r0, [r0], -r8
     c08:	000000c4 	andeq	r0, r0, r4, asr #1
     c0c:	71310008 	teqvc	r1, r8
     c10:	00732400 	rsbseq	r2, r3, r0, lsl #8
     c14:	00c49f21 	sbceq	r9, r4, r1, lsr #30
     c18:	00c70000 	sbceq	r0, r7, r0
     c1c:	00010000 	andeq	r0, r1, r0
     c20:	00000051 	andeq	r0, r0, r1, asr r0
     c24:	00000000 	andeq	r0, r0, r0
     c28:	0000d400 	andeq	sp, r0, r0, lsl #8
     c2c:	0000f800 	andeq	pc, r0, r0, lsl #16
     c30:	50000100 	andpl	r0, r0, r0, lsl #2
     c34:	000000f8 	strdeq	r0, [r0], -r8
     c38:	0000010c 	andeq	r0, r0, ip, lsl #2
     c3c:	01f30004 	mvnseq	r0, r4
     c40:	00009f50 	andeq	r9, r0, r0, asr pc
     c44:	00000000 	andeq	r0, r0, r0
     c48:	00e00000 	rsceq	r0, r0, r0
     c4c:	00e80000 	rsceq	r0, r8, r0
     c50:	00020000 	andeq	r0, r2, r0
     c54:	00e89f30 	rsceq	r9, r8, r0, lsr pc
     c58:	00e80000 	rsceq	r0, r8, r0
     c5c:	00010000 	andeq	r0, r1, r0
     c60:	0000e852 	andeq	lr, r0, r2, asr r8
     c64:	0000f000 	andeq	pc, r0, r0
     c68:	30000200 	andcc	r0, r0, r0, lsl #4
     c6c:	0000f09f 	muleq	r0, pc, r0	; <UNPREDICTABLE>
     c70:	00010300 	andeq	r0, r1, r0, lsl #6
     c74:	52000100 	andpl	r0, r0, #0, 2
	...
     c80:	000000e0 	andeq	r0, r0, r0, ror #1
     c84:	000000f4 	strdeq	r0, [r0], -r4
     c88:	9f300002 	svcls	0x00300002
     c8c:	000000f4 	strdeq	r0, [r0], -r4
     c90:	00000100 	andeq	r0, r0, r0, lsl #2
     c94:	73310005 	teqvc	r1, #5
     c98:	009f2400 	addseq	r2, pc, r0, lsl #8
     c9c:	03000001 	movweq	r0, #1
     ca0:	01000001 	tsteq	r0, r1
     ca4:	01035100 	mrseq	r5, (UNDEF: 19)
     ca8:	010c0000 	mrseq	r0, (UNDEF: 12)
     cac:	00080000 	andeq	r0, r8, r0
     cb0:	5001f331 	andpl	pc, r1, r1, lsr r3	; <UNPREDICTABLE>
     cb4:	9f241a4f 	svcls	0x00241a4f
	...
     cc0:	0000010c 	andeq	r0, r0, ip, lsl #2
     cc4:	00000130 	andeq	r0, r0, r0, lsr r1
     cc8:	30500001 	subscc	r0, r0, r1
     ccc:	44000001 	strmi	r0, [r0], #-1
     cd0:	04000001 	streq	r0, [r0], #-1
     cd4:	5001f300 	andpl	pc, r1, r0, lsl #6
     cd8:	0000009f 	muleq	r0, pc, r0	; <UNPREDICTABLE>
     cdc:	00000000 	andeq	r0, r0, r0
     ce0:	00011800 	andeq	r1, r1, r0, lsl #16
     ce4:	00012000 	andeq	r2, r1, r0
     ce8:	30000200 	andcc	r0, r0, r0, lsl #4
     cec:	0001209f 	muleq	r1, pc, r0	; <UNPREDICTABLE>
     cf0:	00012000 	andeq	r2, r1, r0
     cf4:	52000100 	andpl	r0, r0, #0, 2
     cf8:	00000120 	andeq	r0, r0, r0, lsr #2
     cfc:	00000128 	andeq	r0, r0, r8, lsr #2
     d00:	9f300002 	svcls	0x00300002
     d04:	00000128 	andeq	r0, r0, r8, lsr #2
     d08:	0000013b 	andeq	r0, r0, fp, lsr r1
     d0c:	00520001 	subseq	r0, r2, r1
     d10:	00000000 	andeq	r0, r0, r0
     d14:	18000000 	stmdane	r0, {}	; <UNPREDICTABLE>
     d18:	2c000001 	stccs	0, cr0, [r0], {1}
     d1c:	02000001 	andeq	r0, r0, #1
     d20:	2c9f3000 	ldccs	0, cr3, [pc], {0}
     d24:	38000001 	stmdacc	r0, {r0}
     d28:	05000001 	streq	r0, [r0, #-1]
     d2c:	00733100 	rsbseq	r3, r3, r0, lsl #2
     d30:	01389f24 	teqeq	r8, r4, lsr #30
     d34:	013b0000 	teqeq	fp, r0
     d38:	00010000 	andeq	r0, r1, r0
     d3c:	00013b51 	andeq	r3, r1, r1, asr fp
     d40:	00014400 	andeq	r4, r1, r0, lsl #8
     d44:	31000800 	tstcc	r0, r0, lsl #16
     d48:	4f5001f3 	svcmi	0x005001f3
     d4c:	009f241a 	addseq	r2, pc, sl, lsl r4	; <UNPREDICTABLE>
     d50:	00000000 	andeq	r0, r0, r0
     d54:	44000000 	strmi	r0, [r0], #-0
     d58:	d4000001 	strle	r0, [r0], #-1
     d5c:	01000001 	tsteq	r0, r1
     d60:	01d45000 	bicseq	r5, r4, r0
     d64:	02100000 	andseq	r0, r0, #0
     d68:	00010000 	andeq	r0, r1, r0
     d6c:	00000054 	andeq	r0, r0, r4, asr r0
     d70:	00000000 	andeq	r0, r0, r0
     d74:	00018c00 	andeq	r8, r1, r0, lsl #24
     d78:	00019000 	andeq	r9, r1, r0
     d7c:	55000100 	strpl	r0, [r0, #-256]	; 0x100
     d80:	00000198 	muleq	r0, r8, r1
     d84:	0000019c 	muleq	r0, ip, r1
     d88:	a4550001 	ldrbge	r0, [r5], #-1
     d8c:	a8000001 	stmdage	r0, {r0}
     d90:	01000001 	tsteq	r0, r1
     d94:	01b05500 	lslseq	r5, r0, #10
     d98:	01b40000 			; <UNDEFINED> instruction: 0x01b40000
     d9c:	00010000 	andeq	r0, r1, r0
     da0:	0001bc55 	andeq	fp, r1, r5, asr ip
     da4:	0001c000 	andeq	ip, r1, r0
     da8:	55000100 	strpl	r0, [r0, #-256]	; 0x100
     dac:	000001c8 	andeq	r0, r0, r8, asr #3
     db0:	000001cc 	andeq	r0, r0, ip, asr #3
     db4:	d0550001 	subsle	r0, r5, r1
     db8:	10000001 	andne	r0, r0, r1
     dbc:	01000002 	tsteq	r0, r2
     dc0:	00005500 	andeq	r5, r0, r0, lsl #10
     dc4:	00000000 	andeq	r0, r0, r0
     dc8:	01600000 	cmneq	r0, r0
     dcc:	01880000 	orreq	r0, r8, r0
     dd0:	00010000 	andeq	r0, r1, r0
     dd4:	00018853 	andeq	r8, r1, r3, asr r8
     dd8:	00019000 	andeq	r9, r1, r0
     ddc:	70001c00 	andvc	r1, r0, r0, lsl #24
     de0:	f72cf700 			; <UNDEFINED> instruction: 0xf72cf700
     de4:	0825f425 	stmdaeq	r5!, {r0, r2, r5, sl, ip, sp, lr, pc}
     de8:	cccccccd 	stclgt	12, cr12, [ip], {205}	; 0xcd
     dec:	00000000 	andeq	r0, r0, r0
     df0:	f720081e 			; <UNDEFINED> instruction: 0xf720081e
     df4:	2cf72525 	cfldr64cs	mvdx2, [r7], #148	; 0x94
     df8:	909f2533 	addsls	r2, pc, r3, lsr r5	; <UNPREDICTABLE>
     dfc:	94000001 	strls	r0, [r0], #-1
     e00:	01000001 	tsteq	r0, r1
     e04:	01945300 	orrseq	r5, r4, r0, lsl #6
     e08:	019c0000 	orrseq	r0, ip, r0
     e0c:	001c0000 	andseq	r0, ip, r0
     e10:	2cf70070 	ldclcs	0, cr0, [r7], #448	; 0x1c0
     e14:	25f425f7 	ldrbcs	r2, [r4, #1527]!	; 0x5f7
     e18:	cccccd08 	stclgt	13, cr12, [ip], {8}
     e1c:	000000cc 	andeq	r0, r0, ip, asr #1
     e20:	20081e00 	andcs	r1, r8, r0, lsl #28
     e24:	f72525f7 			; <UNDEFINED> instruction: 0xf72525f7
     e28:	9f25332c 	svcls	0x0025332c
     e2c:	0000019c 	muleq	r0, ip, r1
     e30:	000001a0 	andeq	r0, r0, r0, lsr #3
     e34:	a0530001 	subsge	r0, r3, r1
     e38:	a8000001 	stmdage	r0, {r0}
     e3c:	1c000001 	stcne	0, cr0, [r0], {1}
     e40:	f7007000 			; <UNDEFINED> instruction: 0xf7007000
     e44:	f425f72c 	vld1.8	{d15}, [r5 :128], ip
     e48:	cccd0825 	stclgt	8, cr0, [sp], {37}	; 0x25
     e4c:	0000cccc 	andeq	ip, r0, ip, asr #25
     e50:	081e0000 	ldmdaeq	lr, {}	; <UNPREDICTABLE>
     e54:	2525f720 	strcs	pc, [r5, #-1824]!	; 0x720
     e58:	25332cf7 	ldrcs	r2, [r3, #-3319]!	; 0xcf7
     e5c:	0001a89f 	muleq	r1, pc, r8	; <UNPREDICTABLE>
     e60:	0001ac00 	andeq	sl, r1, r0, lsl #24
     e64:	53000100 	movwpl	r0, #256	; 0x100
     e68:	000001ac 	andeq	r0, r0, ip, lsr #3
     e6c:	000001b4 			; <UNDEFINED> instruction: 0x000001b4
     e70:	0070001c 	rsbseq	r0, r0, ip, lsl r0
     e74:	25f72cf7 	ldrbcs	r2, [r7, #3319]!	; 0xcf7
     e78:	cd0825f4 	cfstr32gt	mvfx2, [r8, #-976]	; 0xfffffc30
     e7c:	00cccccc 	sbceq	ip, ip, ip, asr #25
     e80:	1e000000 	cdpne	0, 0, cr0, cr0, cr0, {0}
     e84:	25f72008 	ldrbcs	r2, [r7, #8]!
     e88:	332cf725 	msrcc	CPSR_fs, #9699328	; 0x940000
     e8c:	01b49f25 			; <UNDEFINED> instruction: 0x01b49f25
     e90:	01b80000 			; <UNDEFINED> instruction: 0x01b80000
     e94:	00010000 	andeq	r0, r1, r0
     e98:	0001b853 	andeq	fp, r1, r3, asr r8
     e9c:	0001c000 	andeq	ip, r1, r0
     ea0:	70001c00 	andvc	r1, r0, r0, lsl #24
     ea4:	f72cf700 			; <UNDEFINED> instruction: 0xf72cf700
     ea8:	0825f425 	stmdaeq	r5!, {r0, r2, r5, sl, ip, sp, lr, pc}
     eac:	cccccccd 	stclgt	12, cr12, [ip], {205}	; 0xcd
     eb0:	00000000 	andeq	r0, r0, r0
     eb4:	f720081e 			; <UNDEFINED> instruction: 0xf720081e
     eb8:	2cf72525 	cfldr64cs	mvdx2, [r7], #148	; 0x94
     ebc:	c09f2533 	addsgt	r2, pc, r3, lsr r5	; <UNPREDICTABLE>
     ec0:	c4000001 	strgt	r0, [r0], #-1
     ec4:	01000001 	tsteq	r0, r1
     ec8:	01c45300 	biceq	r5, r4, r0, lsl #6
     ecc:	01cc0000 	biceq	r0, ip, r0
     ed0:	001c0000 	andseq	r0, ip, r0
     ed4:	2cf70070 	ldclcs	0, cr0, [r7], #448	; 0x1c0
     ed8:	25f425f7 	ldrbcs	r2, [r4, #1527]!	; 0x5f7
     edc:	cccccd08 	stclgt	13, cr12, [ip], {8}
     ee0:	000000cc 	andeq	r0, r0, ip, asr #1
     ee4:	20081e00 	andcs	r1, r8, r0, lsl #28
     ee8:	f72525f7 			; <UNDEFINED> instruction: 0xf72525f7
     eec:	9f25332c 	svcls	0x0025332c
     ef0:	000001cc 	andeq	r0, r0, ip, asr #3
     ef4:	000001d0 	ldrdeq	r0, [r0], -r0	; <UNPREDICTABLE>
     ef8:	d0530001 	subsle	r0, r3, r1
     efc:	d4000001 	strle	r0, [r0], #-1
     f00:	1c000001 	stcne	0, cr0, [r0], {1}
     f04:	f7007000 			; <UNDEFINED> instruction: 0xf7007000
     f08:	f425f72c 	vld1.8	{d15}, [r5 :128], ip
     f0c:	cccd0825 	stclgt	8, cr0, [sp], {37}	; 0x25
     f10:	0000cccc 	andeq	ip, r0, ip, asr #25
     f14:	081e0000 	ldmdaeq	lr, {}	; <UNPREDICTABLE>
     f18:	2525f720 	strcs	pc, [r5, #-1824]!	; 0x720
     f1c:	25332cf7 	ldrcs	r2, [r3, #-3319]!	; 0xcf7
     f20:	0001d49f 	muleq	r1, pc, r4	; <UNPREDICTABLE>
     f24:	0001dc00 	andeq	sp, r1, r0, lsl #24
     f28:	74001c00 	strvc	r1, [r0], #-3072	; 0xc00
     f2c:	f72cf700 			; <UNDEFINED> instruction: 0xf72cf700
     f30:	0825f425 	stmdaeq	r5!, {r0, r2, r5, sl, ip, sp, lr, pc}
     f34:	cccccccd 	stclgt	12, cr12, [ip], {205}	; 0xcd
     f38:	00000000 	andeq	r0, r0, r0
     f3c:	f720081e 			; <UNDEFINED> instruction: 0xf720081e
     f40:	2cf72525 	cfldr64cs	mvdx2, [r7], #148	; 0x94
     f44:	dc9f2533 	cfldr32le	mvfx2, [pc], {51}	; 0x33
     f48:	e0000001 	and	r0, r0, r1
     f4c:	17000001 	strne	r0, [r0, -r1]
     f50:	f7007400 			; <UNDEFINED> instruction: 0xf7007400
     f54:	7125f72c 	msrvc	SP_abt, ip
     f58:	f72cf700 			; <UNDEFINED> instruction: 0xf72cf700
     f5c:	20081e25 	andcs	r1, r8, r5, lsr #28
     f60:	f72525f7 			; <UNDEFINED> instruction: 0xf72525f7
     f64:	9f25332c 	svcls	0x0025332c
     f68:	000001e0 	andeq	r0, r0, r0, ror #3
     f6c:	00000210 	andeq	r0, r0, r0, lsl r2
     f70:	0074001c 	rsbseq	r0, r4, ip, lsl r0
     f74:	25f72cf7 	ldrbcs	r2, [r7, #3319]!	; 0xcf7
     f78:	cd0825f4 	cfstr32gt	mvfx2, [r8, #-976]	; 0xfffffc30
     f7c:	00cccccc 	sbceq	ip, ip, ip, asr #25
     f80:	1e000000 	cdpne	0, 0, cr0, cr0, cr0, {0}
     f84:	25f72008 	ldrbcs	r2, [r7, #8]!
     f88:	332cf725 	msrcc	CPSR_fs, #9699328	; 0x940000
     f8c:	00009f25 	andeq	r9, r0, r5, lsr #30
     f90:	00000000 	andeq	r0, r0, r0
     f94:	01d80000 	bicseq	r0, r8, r0
     f98:	01fc0000 	mvnseq	r0, r0
     f9c:	00010000 	andeq	r0, r1, r0
     fa0:	0001fc50 	andeq	pc, r1, r0, asr ip	; <UNPREDICTABLE>
     fa4:	00020300 	andeq	r0, r2, r0, lsl #6
     fa8:	51000100 	mrspl	r0, (UNDEF: 16)
	...
     fb4:	00000210 	andeq	r0, r0, r0, lsl r2
     fb8:	0000022c 	andeq	r0, r0, ip, lsr #4
     fbc:	2c500001 	mrrccs	0, 0, r0, r0, cr1	; <UNPREDICTABLE>
     fc0:	34000002 	strcc	r0, [r0], #-2
     fc4:	01000002 	tsteq	r0, r2
     fc8:	02345400 	eorseq	r5, r4, #0, 8
     fcc:	023c0000 	eorseq	r0, ip, #0
     fd0:	00010000 	andeq	r0, r1, r0
     fd4:	00023c50 	andeq	r3, r2, r0, asr ip
     fd8:	00024400 	andeq	r4, r2, r0, lsl #8
     fdc:	54000100 	strpl	r0, [r0], #-256	; 0x100
     fe0:	00000244 	andeq	r0, r0, r4, asr #4
     fe4:	00000250 	andeq	r0, r0, r0, asr r2
     fe8:	01f30004 	mvnseq	r0, r4
     fec:	02509f50 	subseq	r9, r0, #80, 30	; 0x140
     ff0:	02540000 	subseq	r0, r4, #0
     ff4:	00010000 	andeq	r0, r1, r0
     ff8:	00025450 	andeq	r5, r2, r0, asr r4
     ffc:	00025c00 	andeq	r5, r2, r0, lsl #24
    1000:	54000100 	strpl	r0, [r0], #-256	; 0x100
	...
    100c:	00000220 	andeq	r0, r0, r0, lsr #4
    1010:	00000230 	andeq	r0, r0, r0, lsr r2
    1014:	9f300002 	svcls	0x00300002
    1018:	00000230 	andeq	r0, r0, r0, lsr r2
    101c:	00000234 	andeq	r0, r0, r4, lsr r2
    1020:	34500001 	ldrbcc	r0, [r0], #-1
    1024:	40000002 	andmi	r0, r0, r2
    1028:	02000002 	andeq	r0, r0, #2
    102c:	409f3000 	addsmi	r3, pc, r0
    1030:	4c000002 	stcmi	0, cr0, [r0], {2}
    1034:	01000002 	tsteq	r0, r2
    1038:	00005000 	andeq	r5, r0, r0
    103c:	00000000 	andeq	r0, r0, r0
    1040:	025c0000 	subseq	r0, ip, #0
    1044:	02730000 	rsbseq	r0, r3, #0
    1048:	00010000 	andeq	r0, r1, r0
    104c:	00027350 	andeq	r7, r2, r0, asr r3
    1050:	00027800 	andeq	r7, r2, r0, lsl #16
    1054:	f3000400 	vshl.u8	d0, d0, d0
    1058:	789f5001 	ldmvc	pc, {r0, ip, lr}	; <UNPREDICTABLE>
    105c:	7b000002 	blvc	106c <_start-0x6f94>
    1060:	01000002 	tsteq	r0, r2
    1064:	027b5000 	rsbseq	r5, fp, #0
    1068:	02800000 	addeq	r0, r0, #0
    106c:	00040000 	andeq	r0, r4, r0
    1070:	9f5001f3 	svcls	0x005001f3
	...
    107c:	0000025c 	andeq	r0, r0, ip, asr r2
    1080:	00000273 	andeq	r0, r0, r3, ror r2
    1084:	73510001 	cmpvc	r1, #1
    1088:	78000002 	stmdavc	r0, {r1}
    108c:	04000002 	streq	r0, [r0], #-2
    1090:	5101f300 	mrspl	pc, SP_irq	; <UNPREDICTABLE>
    1094:	0002789f 	muleq	r2, pc, r8	; <UNPREDICTABLE>
    1098:	00027b00 	andeq	r7, r2, r0, lsl #22
    109c:	51000100 	mrspl	r0, (UNDEF: 16)
    10a0:	0000027b 	andeq	r0, r0, fp, ror r2
    10a4:	00000280 	andeq	r0, r0, r0, lsl #5
    10a8:	01f30004 	mvnseq	r0, r4
    10ac:	00009f51 	andeq	r9, r0, r1, asr pc
    10b0:	00000000 	andeq	r0, r0, r0
    10b4:	02800000 	addeq	r0, r0, #0
    10b8:	03180000 	tsteq	r8, #0
    10bc:	00010000 	andeq	r0, r1, r0
    10c0:	00031850 	andeq	r1, r3, r0, asr r8
    10c4:	00035800 	andeq	r5, r3, r0, lsl #16
    10c8:	54000100 	strpl	r0, [r0], #-256	; 0x100
	...
    10d4:	00000280 	andeq	r0, r0, r0, lsl #5
    10d8:	0000031b 	andeq	r0, r0, fp, lsl r3
    10dc:	1b510001 	blne	14410e8 <__bss_end__+0x142ebc8>
    10e0:	58000003 	stmdapl	r0, {r0, r1}
    10e4:	04000003 	streq	r0, [r0], #-3
    10e8:	5101f300 	mrspl	pc, SP_irq	; <UNPREDICTABLE>
    10ec:	0000009f 	muleq	r0, pc, r0	; <UNPREDICTABLE>
    10f0:	00000000 	andeq	r0, r0, r0
    10f4:	0002d000 	andeq	sp, r2, r0
    10f8:	0002d400 	andeq	sp, r2, r0, lsl #8
    10fc:	56000100 	strpl	r0, [r0], -r0, lsl #2
    1100:	000002dc 	ldrdeq	r0, [r0], -ip
    1104:	000002e0 	andeq	r0, r0, r0, ror #5
    1108:	e8560001 	ldmda	r6, {r0}^
    110c:	ec000002 	stc	0, cr0, [r0], {2}
    1110:	01000002 	tsteq	r0, r2
    1114:	02f45600 	rscseq	r5, r4, #0, 12
    1118:	02f80000 	rscseq	r0, r8, #0
    111c:	00010000 	andeq	r0, r1, r0
    1120:	00030056 	andeq	r0, r3, r6, asr r0
    1124:	00030400 	andeq	r0, r3, r0, lsl #8
    1128:	56000100 	strpl	r0, [r0], -r0, lsl #2
    112c:	0000030c 	andeq	r0, r0, ip, lsl #6
    1130:	00000310 	andeq	r0, r0, r0, lsl r3
    1134:	14560001 	ldrbne	r0, [r6], #-1
    1138:	58000003 	stmdapl	r0, {r0, r1}
    113c:	01000003 	tsteq	r0, r3
    1140:	00005600 	andeq	r5, r0, r0, lsl #12
    1144:	00000000 	andeq	r0, r0, r0
    1148:	02a40000 	adceq	r0, r4, #0
    114c:	02cc0000 	sbceq	r0, ip, #0
    1150:	00010000 	andeq	r0, r1, r0
    1154:	0002cc53 	andeq	ip, r2, r3, asr ip
    1158:	0002d400 	andeq	sp, r2, r0, lsl #8
    115c:	70001c00 	andvc	r1, r0, r0, lsl #24
    1160:	f72cf700 			; <UNDEFINED> instruction: 0xf72cf700
    1164:	0825f425 	stmdaeq	r5!, {r0, r2, r5, sl, ip, sp, lr, pc}
    1168:	cccccccd 	stclgt	12, cr12, [ip], {205}	; 0xcd
    116c:	00000000 	andeq	r0, r0, r0
    1170:	f720081e 			; <UNDEFINED> instruction: 0xf720081e
    1174:	2cf72525 	cfldr64cs	mvdx2, [r7], #148	; 0x94
    1178:	d49f2533 	ldrle	r2, [pc], #1331	; 1180 <_start-0x6e80>
    117c:	d8000002 	stmdale	r0, {r1}
    1180:	01000002 	tsteq	r0, r2
    1184:	02d85300 	sbcseq	r5, r8, #0, 6
    1188:	02e00000 	rsceq	r0, r0, #0
    118c:	001c0000 	andseq	r0, ip, r0
    1190:	2cf70070 	ldclcs	0, cr0, [r7], #448	; 0x1c0
    1194:	25f425f7 	ldrbcs	r2, [r4, #1527]!	; 0x5f7
    1198:	cccccd08 	stclgt	13, cr12, [ip], {8}
    119c:	000000cc 	andeq	r0, r0, ip, asr #1
    11a0:	20081e00 	andcs	r1, r8, r0, lsl #28
    11a4:	f72525f7 			; <UNDEFINED> instruction: 0xf72525f7
    11a8:	9f25332c 	svcls	0x0025332c
    11ac:	000002e0 	andeq	r0, r0, r0, ror #5
    11b0:	000002e4 	andeq	r0, r0, r4, ror #5
    11b4:	e4530001 	ldrb	r0, [r3], #-1
    11b8:	ec000002 	stc	0, cr0, [r0], {2}
    11bc:	1c000002 	stcne	0, cr0, [r0], {2}
    11c0:	f7007000 			; <UNDEFINED> instruction: 0xf7007000
    11c4:	f425f72c 	vld1.8	{d15}, [r5 :128], ip
    11c8:	cccd0825 	stclgt	8, cr0, [sp], {37}	; 0x25
    11cc:	0000cccc 	andeq	ip, r0, ip, asr #25
    11d0:	081e0000 	ldmdaeq	lr, {}	; <UNPREDICTABLE>
    11d4:	2525f720 	strcs	pc, [r5, #-1824]!	; 0x720
    11d8:	25332cf7 	ldrcs	r2, [r3, #-3319]!	; 0xcf7
    11dc:	0002ec9f 	muleq	r2, pc, ip	; <UNPREDICTABLE>
    11e0:	0002f000 	andeq	pc, r2, r0
    11e4:	53000100 	movwpl	r0, #256	; 0x100
    11e8:	000002f0 	strdeq	r0, [r0], -r0	; <UNPREDICTABLE>
    11ec:	000002f8 	strdeq	r0, [r0], -r8
    11f0:	0070001c 	rsbseq	r0, r0, ip, lsl r0
    11f4:	25f72cf7 	ldrbcs	r2, [r7, #3319]!	; 0xcf7
    11f8:	cd0825f4 	cfstr32gt	mvfx2, [r8, #-976]	; 0xfffffc30
    11fc:	00cccccc 	sbceq	ip, ip, ip, asr #25
    1200:	1e000000 	cdpne	0, 0, cr0, cr0, cr0, {0}
    1204:	25f72008 	ldrbcs	r2, [r7, #8]!
    1208:	332cf725 	msrcc	CPSR_fs, #9699328	; 0x940000
    120c:	02f89f25 	rscseq	r9, r8, #37, 30	; 0x94
    1210:	02fc0000 	rscseq	r0, ip, #0
    1214:	00010000 	andeq	r0, r1, r0
    1218:	0002fc53 	andeq	pc, r2, r3, asr ip	; <UNPREDICTABLE>
    121c:	00030400 	andeq	r0, r3, r0, lsl #8
    1220:	70001c00 	andvc	r1, r0, r0, lsl #24
    1224:	f72cf700 			; <UNDEFINED> instruction: 0xf72cf700
    1228:	0825f425 	stmdaeq	r5!, {r0, r2, r5, sl, ip, sp, lr, pc}
    122c:	cccccccd 	stclgt	12, cr12, [ip], {205}	; 0xcd
    1230:	00000000 	andeq	r0, r0, r0
    1234:	f720081e 			; <UNDEFINED> instruction: 0xf720081e
    1238:	2cf72525 	cfldr64cs	mvdx2, [r7], #148	; 0x94
    123c:	049f2533 	ldreq	r2, [pc], #1331	; 1244 <_start-0x6dbc>
    1240:	08000003 	stmdaeq	r0, {r0, r1}
    1244:	01000003 	tsteq	r0, r3
    1248:	03085300 	movweq	r5, #33536	; 0x8300
    124c:	03100000 	tsteq	r0, #0
    1250:	001c0000 	andseq	r0, ip, r0
    1254:	2cf70070 	ldclcs	0, cr0, [r7], #448	; 0x1c0
    1258:	25f425f7 	ldrbcs	r2, [r4, #1527]!	; 0x5f7
    125c:	cccccd08 	stclgt	13, cr12, [ip], {8}
    1260:	000000cc 	andeq	r0, r0, ip, asr #1
    1264:	20081e00 	andcs	r1, r8, r0, lsl #28
    1268:	f72525f7 			; <UNDEFINED> instruction: 0xf72525f7
    126c:	9f25332c 	svcls	0x0025332c
    1270:	00000310 	andeq	r0, r0, r0, lsl r3
    1274:	00000314 	andeq	r0, r0, r4, lsl r3
    1278:	14530001 	ldrbne	r0, [r3], #-1
    127c:	18000003 	stmdane	r0, {r0, r1}
    1280:	1c000003 	stcne	0, cr0, [r0], {3}
    1284:	f7007000 			; <UNDEFINED> instruction: 0xf7007000
    1288:	f425f72c 	vld1.8	{d15}, [r5 :128], ip
    128c:	cccd0825 	stclgt	8, cr0, [sp], {37}	; 0x25
    1290:	0000cccc 	andeq	ip, r0, ip, asr #25
    1294:	081e0000 	ldmdaeq	lr, {}	; <UNPREDICTABLE>
    1298:	2525f720 	strcs	pc, [r5, #-1824]!	; 0x720
    129c:	25332cf7 	ldrcs	r2, [r3, #-3319]!	; 0xcf7
    12a0:	0003189f 	muleq	r3, pc, r8	; <UNPREDICTABLE>
    12a4:	00032000 	andeq	r2, r3, r0
    12a8:	74001c00 	strvc	r1, [r0], #-3072	; 0xc00
    12ac:	f72cf700 			; <UNDEFINED> instruction: 0xf72cf700
    12b0:	0825f425 	stmdaeq	r5!, {r0, r2, r5, sl, ip, sp, lr, pc}
    12b4:	cccccccd 	stclgt	12, cr12, [ip], {205}	; 0xcd
    12b8:	00000000 	andeq	r0, r0, r0
    12bc:	f720081e 			; <UNDEFINED> instruction: 0xf720081e
    12c0:	2cf72525 	cfldr64cs	mvdx2, [r7], #148	; 0x94
    12c4:	209f2533 	addscs	r2, pc, r3, lsr r5	; <UNPREDICTABLE>
    12c8:	24000003 	strcs	r0, [r0], #-3
    12cc:	17000003 	strne	r0, [r0, -r3]
    12d0:	f7007400 			; <UNDEFINED> instruction: 0xf7007400
    12d4:	7325f72c 	msrvc	CPSR_sc, #44, 14	; 0xb00000
    12d8:	f72cf700 			; <UNDEFINED> instruction: 0xf72cf700
    12dc:	20081e25 	andcs	r1, r8, r5, lsr #28
    12e0:	f72525f7 			; <UNDEFINED> instruction: 0xf72525f7
    12e4:	9f25332c 	svcls	0x0025332c
    12e8:	00000324 	andeq	r0, r0, r4, lsr #6
    12ec:	00000358 	andeq	r0, r0, r8, asr r3
    12f0:	0074001c 	rsbseq	r0, r4, ip, lsl r0
    12f4:	25f72cf7 	ldrbcs	r2, [r7, #3319]!	; 0xcf7
    12f8:	cd0825f4 	cfstr32gt	mvfx2, [r8, #-976]	; 0xfffffc30
    12fc:	00cccccc 	sbceq	ip, ip, ip, asr #25
    1300:	1e000000 	cdpne	0, 0, cr0, cr0, cr0, {0}
    1304:	25f72008 	ldrbcs	r2, [r7, #8]!
    1308:	332cf725 	msrcc	CPSR_fs, #9699328	; 0x940000
    130c:	00009f25 	andeq	r9, r0, r5, lsr #30
    1310:	00000000 	andeq	r0, r0, r0
    1314:	031c0000 	tsteq	ip, #0
    1318:	03400000 	movteq	r0, #0
    131c:	00010000 	andeq	r0, r1, r0
    1320:	00034050 	andeq	r4, r3, r0, asr r0
    1324:	00034800 	andeq	r4, r3, r0, lsl #16
    1328:	75000900 	strvc	r0, [r0, #-2304]	; 0x900
    132c:	24007300 	strcs	r7, [r0], #-768	; 0x300
    1330:	9f210071 	svcls	0x00210071
    1334:	00000348 	andeq	r0, r0, r8, asr #6
    1338:	0000034b 	andeq	r0, r0, fp, asr #6
    133c:	00510001 	subseq	r0, r1, r1
    1340:	00000000 	andeq	r0, r0, r0
    1344:	58000000 	stmdapl	r0, {}	; <UNPREDICTABLE>
    1348:	64000003 	strvs	r0, [r0], #-3
    134c:	01000003 	tsteq	r0, r3
    1350:	03645000 	cmneq	r4, #0
    1354:	03840000 	orreq	r0, r4, #0
    1358:	00040000 	andeq	r0, r4, r0
    135c:	9f5001f3 	svcls	0x005001f3
	...
    1368:	00000384 	andeq	r0, r0, r4, lsl #7
    136c:	00000397 	muleq	r0, r7, r3
    1370:	97500001 	ldrbls	r0, [r0, -r1]
    1374:	d0000003 	andle	r0, r0, r3
    1378:	01000003 	tsteq	r0, r3
    137c:	03d05400 	bicseq	r5, r0, #0, 8
    1380:	04080000 	streq	r0, [r8], #-0
    1384:	00040000 	andeq	r0, r4, r0
    1388:	9f5001f3 	svcls	0x005001f3
	...
    1394:	000003f0 	strdeq	r0, [r0], -r0	; <UNPREDICTABLE>
    1398:	000003f4 	strdeq	r0, [r0], -r4
    139c:	f4500001 			; <UNDEFINED> instruction: 0xf4500001
    13a0:	fb000003 	blx	13b6 <_start-0x6c4a>
    13a4:	01000003 	tsteq	r0, r3
    13a8:	00005100 	andeq	r5, r0, r0, lsl #2
    13ac:	00000000 	andeq	r0, r0, r0
    13b0:	03ac0000 			; <UNDEFINED> instruction: 0x03ac0000
    13b4:	03b40000 			; <UNDEFINED> instruction: 0x03b40000
    13b8:	00010000 	andeq	r0, r1, r0
    13bc:	0003b450 	andeq	fp, r3, r0, asr r4
    13c0:	0003bb00 	andeq	fp, r3, r0, lsl #22
    13c4:	51000100 	mrspl	r0, (UNDEF: 16)
	...
    13d0:	000003cc 	andeq	r0, r0, ip, asr #7
    13d4:	000003d8 	ldrdeq	r0, [r0], -r8
    13d8:	d8500001 	ldmdale	r0, {r0}^
    13dc:	df000003 	svcle	0x00000003
    13e0:	01000003 	tsteq	r0, r3
    13e4:	00005100 	andeq	r5, r0, r0, lsl #2
    13e8:	00000000 	andeq	r0, r0, r0
    13ec:	04080000 	streq	r0, [r8], #-0
    13f0:	041b0000 	ldreq	r0, [fp], #-0
    13f4:	00010000 	andeq	r0, r1, r0
    13f8:	00041b50 	andeq	r1, r4, r0, asr fp
    13fc:	00045400 	andeq	r5, r4, r0, lsl #8
    1400:	54000100 	strpl	r0, [r0], #-256	; 0x100
    1404:	00000454 	andeq	r0, r0, r4, asr r4
    1408:	0000048c 	andeq	r0, r0, ip, lsl #9
    140c:	01f30004 	mvnseq	r0, r4
    1410:	00009f50 	andeq	r9, r0, r0, asr pc
    1414:	00000000 	andeq	r0, r0, r0
    1418:	04740000 	ldrbteq	r0, [r4], #-0
    141c:	04780000 	ldrbteq	r0, [r8], #-0
    1420:	00010000 	andeq	r0, r1, r0
    1424:	00047850 	andeq	r7, r4, r0, asr r8
    1428:	00047f00 	andeq	r7, r4, r0, lsl #30
    142c:	51000100 	mrspl	r0, (UNDEF: 16)
	...
    1438:	00000430 	andeq	r0, r0, r0, lsr r4
    143c:	00000438 	andeq	r0, r0, r8, lsr r4
    1440:	38500001 	ldmdacc	r0, {r0}^
    1444:	3f000004 	svccc	0x00000004
    1448:	01000004 	tsteq	r0, r4
    144c:	00005100 	andeq	r5, r0, r0, lsl #2
    1450:	00000000 	andeq	r0, r0, r0
    1454:	04500000 	ldrbeq	r0, [r0], #-0
    1458:	045c0000 	ldrbeq	r0, [ip], #-0
    145c:	00010000 	andeq	r0, r1, r0
    1460:	00045c50 	andeq	r5, r4, r0, asr ip
    1464:	00046300 	andeq	r6, r4, r0, lsl #6
    1468:	51000100 	mrspl	r0, (UNDEF: 16)
	...
    1474:	0000048c 	andeq	r0, r0, ip, lsl #9
    1478:	0000049f 	muleq	r0, pc, r4	; <UNPREDICTABLE>
    147c:	9f500001 	svcls	0x00500001
    1480:	e0000004 	and	r0, r0, r4
    1484:	01000004 	tsteq	r0, r4
    1488:	04e05400 	strbteq	r5, [r0], #1024	; 0x400
    148c:	05040000 	streq	r0, [r4, #-0]
    1490:	00040000 	andeq	r0, r4, r0
    1494:	9f5001f3 	svcls	0x005001f3
    1498:	00000504 	andeq	r0, r0, r4, lsl #10
    149c:	00000508 	andeq	r0, r0, r8, lsl #10
    14a0:	08500001 	ldmdaeq	r0, {r0}^
    14a4:	10000005 	andne	r0, r0, r5
    14a8:	01000005 	tsteq	r0, r5
    14ac:	00005400 	andeq	r5, r0, r0, lsl #8
    14b0:	00000000 	andeq	r0, r0, r0
    14b4:	04b40000 	ldrteq	r0, [r4], #0
    14b8:	04c30000 	strbeq	r0, [r3], #0
    14bc:	00080000 	andeq	r0, r8, r0
    14c0:	24007431 	strcs	r7, [r0], #-1073	; 0x431
    14c4:	9f1a0070 	svcls	0x001a0070
	...
    14d0:	000004e0 	andeq	r0, r0, r0, ror #9
    14d4:	000004f8 	strdeq	r0, [r0], -r8
    14d8:	00540001 	subseq	r0, r4, r1
    14dc:	00000000 	andeq	r0, r0, r0
    14e0:	10000000 	andne	r0, r0, r0
    14e4:	23000005 	movwcs	r0, #5
    14e8:	01000005 	tsteq	r0, r5
    14ec:	05235000 	streq	r5, [r3, #-0]!
    14f0:	05480000 	strbeq	r0, [r8, #-0]
    14f4:	00010000 	andeq	r0, r1, r0
    14f8:	00054854 	andeq	r4, r5, r4, asr r8
    14fc:	00056800 	andeq	r6, r5, r0, lsl #16
    1500:	f3000400 	vshl.u8	d0, d0, d0
    1504:	009f5001 	addseq	r5, pc, r1
	...
    1510:	18000000 	stmdane	r0, {}	; <UNPREDICTABLE>
    1514:	01000000 	mrseq	r0, (UNDEF: 0)
    1518:	00185000 	andseq	r5, r8, r0
    151c:	01540000 	cmpeq	r4, r0
    1520:	00040000 	andeq	r0, r4, r0
    1524:	9f5001f3 	svcls	0x005001f3
	...
    1534:	0000001c 	andeq	r0, r0, ip, lsl r0
    1538:	1c510001 	mrrcne	0, 0, r0, r1, cr1
    153c:	54000000 	strpl	r0, [r0], #-0
    1540:	04000001 	streq	r0, [r0], #-1
    1544:	5101f300 	mrspl	pc, SP_irq	; <UNPREDICTABLE>
    1548:	0000009f 	muleq	r0, pc, r0	; <UNPREDICTABLE>
    154c:	00000000 	andeq	r0, r0, r0
    1550:	00001000 	andeq	r1, r0, r0
    1554:	00013400 	andeq	r3, r1, r0, lsl #8
    1558:	55000100 	strpl	r0, [r0, #-256]	; 0x100
	...
    1564:	00000010 	andeq	r0, r0, r0, lsl r0
    1568:	00000034 	andeq	r0, r0, r4, lsr r0
    156c:	34550001 	ldrbcc	r0, [r5], #-1
    1570:	34000000 	strcc	r0, [r0], #-0
    1574:	01000001 	tsteq	r0, r1
    1578:	01345800 	teqeq	r4, r0, lsl #16
    157c:	01540000 	cmpeq	r4, r0
    1580:	00010000 	andeq	r0, r1, r0
    1584:	00000055 	andeq	r0, r0, r5, asr r0
    1588:	00000000 	andeq	r0, r0, r0
    158c:	00001400 	andeq	r1, r0, r0, lsl #8
    1590:	00013400 	andeq	r3, r1, r0, lsl #8
    1594:	55000100 	strpl	r0, [r0, #-256]	; 0x100
	...
    15a0:	00000020 	andeq	r0, r0, r0, lsr #32
    15a4:	00000134 	andeq	r0, r0, r4, lsr r1
    15a8:	00550001 	subseq	r0, r5, r1
    15ac:	00000000 	andeq	r0, r0, r0
    15b0:	24000000 	strcs	r0, [r0], #-0
    15b4:	28000000 	stmdacs	r0, {}	; <UNPREDICTABLE>
    15b8:	01000000 	mrseq	r0, (UNDEF: 0)
    15bc:	00005300 	andeq	r5, r0, r0, lsl #6
    15c0:	00000000 	andeq	r0, r0, r0
    15c4:	00340000 	eorseq	r0, r4, r0
    15c8:	00540000 	subseq	r0, r4, r0
    15cc:	00010000 	andeq	r0, r1, r0
    15d0:	00005458 	andeq	r5, r0, r8, asr r4
    15d4:	00013400 	andeq	r3, r1, r0, lsl #8
    15d8:	75000500 	strvc	r0, [r0, #-1280]	; 0x500
    15dc:	9f243100 	svcls	0x00243100
	...
    15e8:	00000034 	andeq	r0, r0, r4, lsr r0
    15ec:	0000003c 	andeq	r0, r0, ip, lsr r0
    15f0:	00770005 	rsbseq	r0, r7, r5
    15f4:	3c9f1a31 	vldmiacc	pc, {s2-s50}
    15f8:	3f000000 	svccc	0x00000000
    15fc:	01000000 	mrseq	r0, (UNDEF: 0)
    1600:	003f5100 	eorseq	r5, pc, r0, lsl #2
    1604:	01540000 	cmpeq	r4, r0
    1608:	00050000 	andeq	r0, r5, r0
    160c:	1a310077 	bne	c417f0 <__bss_end__+0xc2f2d0>
    1610:	0000009f 	muleq	r0, pc, r0	; <UNPREDICTABLE>
    1614:	00000000 	andeq	r0, r0, r0
    1618:	00004000 	andeq	r4, r0, r0
    161c:	00005400 	andeq	r5, r0, r0, lsl #8
    1620:	58000100 	stmdapl	r0, {r8}
    1624:	00000054 	andeq	r0, r0, r4, asr r0
    1628:	00000134 	andeq	r0, r0, r4, lsr r1
    162c:	00750005 	rsbseq	r0, r5, r5
    1630:	009f2431 	addseq	r2, pc, r1, lsr r4	; <UNPREDICTABLE>
    1634:	00000000 	andeq	r0, r0, r0
    1638:	44000000 	strmi	r0, [r0], #-0
    163c:	48000000 	stmdami	r0, {}	; <UNPREDICTABLE>
    1640:	01000000 	mrseq	r0, (UNDEF: 0)
    1644:	00005300 	andeq	r5, r0, r0, lsl #6
    1648:	00000000 	andeq	r0, r0, r0
    164c:	00540000 	subseq	r0, r4, r0
    1650:	00740000 	rsbseq	r0, r4, r0
    1654:	00010000 	andeq	r0, r1, r0
    1658:	00007458 	andeq	r7, r0, r8, asr r4
    165c:	00013400 	andeq	r3, r1, r0, lsl #8
    1660:	75000800 	strvc	r0, [r0, #-2048]	; 0x800
    1664:	75243100 	strvc	r3, [r4, #-256]!	; 0x100
    1668:	009f2200 	addseq	r2, pc, r0, lsl #4
    166c:	00000000 	andeq	r0, r0, r0
    1670:	60000000 	andvs	r0, r0, r0
    1674:	74000000 	strvc	r0, [r0], #-0
    1678:	01000000 	mrseq	r0, (UNDEF: 0)
    167c:	00745800 	rsbseq	r5, r4, r0, lsl #16
    1680:	01340000 	teqeq	r4, r0
    1684:	00080000 	andeq	r0, r8, r0
    1688:	24310075 	ldrtcs	r0, [r1], #-117	; 0x75
    168c:	9f220075 	svcls	0x00220075
	...
    1698:	00000064 	andeq	r0, r0, r4, rrx
    169c:	00000068 	andeq	r0, r0, r8, rrx
    16a0:	00530001 	subseq	r0, r3, r1
    16a4:	00000000 	andeq	r0, r0, r0
    16a8:	74000000 	strvc	r0, [r0], #-0
    16ac:	94000000 	strls	r0, [r0], #-0
    16b0:	01000000 	mrseq	r0, (UNDEF: 0)
    16b4:	00945800 	addseq	r5, r4, r0, lsl #16
    16b8:	01340000 	teqeq	r4, r0
    16bc:	00050000 	andeq	r0, r5, r0
    16c0:	24320075 	ldrtcs	r0, [r2], #-117	; 0x75
    16c4:	0000009f 	muleq	r0, pc, r0	; <UNPREDICTABLE>
    16c8:	00000000 	andeq	r0, r0, r0
    16cc:	00008000 	andeq	r8, r0, r0
    16d0:	00009400 	andeq	r9, r0, r0, lsl #8
    16d4:	58000100 	stmdapl	r0, {r8}
    16d8:	00000094 	muleq	r0, r4, r0
    16dc:	00000134 	andeq	r0, r0, r4, lsr r1
    16e0:	00750005 	rsbseq	r0, r5, r5
    16e4:	009f2432 	addseq	r2, pc, r2, lsr r4	; <UNPREDICTABLE>
    16e8:	00000000 	andeq	r0, r0, r0
    16ec:	84000000 	strhi	r0, [r0], #-0
    16f0:	88000000 	stmdahi	r0, {}	; <UNPREDICTABLE>
    16f4:	01000000 	mrseq	r0, (UNDEF: 0)
    16f8:	00005300 	andeq	r5, r0, r0, lsl #6
    16fc:	00000000 	andeq	r0, r0, r0
    1700:	00940000 	addseq	r0, r4, r0
    1704:	00b40000 	adcseq	r0, r4, r0
    1708:	00010000 	andeq	r0, r1, r0
    170c:	0000b458 	andeq	fp, r0, r8, asr r4
    1710:	00013400 	andeq	r3, r1, r0, lsl #8
    1714:	75000800 	strvc	r0, [r0, #-2048]	; 0x800
    1718:	75243200 	strvc	r3, [r4, #-512]!	; 0x200
    171c:	009f2200 	addseq	r2, pc, r0, lsl #4
    1720:	00000000 	andeq	r0, r0, r0
    1724:	a0000000 	andge	r0, r0, r0
    1728:	b4000000 	strlt	r0, [r0], #-0
    172c:	01000000 	mrseq	r0, (UNDEF: 0)
    1730:	00b45800 	adcseq	r5, r4, r0, lsl #16
    1734:	01340000 	teqeq	r4, r0
    1738:	00080000 	andeq	r0, r8, r0
    173c:	24320075 	ldrtcs	r0, [r2], #-117	; 0x75
    1740:	9f220075 	svcls	0x00220075
	...
    174c:	000000a4 	andeq	r0, r0, r4, lsr #1
    1750:	000000a8 	andeq	r0, r0, r8, lsr #1
    1754:	00530001 	subseq	r0, r3, r1
    1758:	00000000 	andeq	r0, r0, r0
    175c:	b4000000 	strlt	r0, [r0], #-0
    1760:	d4000000 	strle	r0, [r0], #-0
    1764:	01000000 	mrseq	r0, (UNDEF: 0)
    1768:	00d45800 	sbcseq	r5, r4, r0, lsl #16
    176c:	01340000 	teqeq	r4, r0
    1770:	000a0000 	andeq	r0, sl, r0
    1774:	24320075 	ldrtcs	r0, [r2], #-117	; 0x75
    1778:	24310075 	ldrtcs	r0, [r1], #-117	; 0x75
    177c:	00009f22 	andeq	r9, r0, r2, lsr #30
    1780:	00000000 	andeq	r0, r0, r0
    1784:	00c00000 	sbceq	r0, r0, r0
    1788:	00d40000 	sbcseq	r0, r4, r0
    178c:	00010000 	andeq	r0, r1, r0
    1790:	0000d458 	andeq	sp, r0, r8, asr r4
    1794:	00013400 	andeq	r3, r1, r0, lsl #8
    1798:	75000a00 	strvc	r0, [r0, #-2560]	; 0xa00
    179c:	75243200 	strvc	r3, [r4, #-512]!	; 0x200
    17a0:	22243100 	eorcs	r3, r4, #0, 2
    17a4:	0000009f 	muleq	r0, pc, r0	; <UNPREDICTABLE>
    17a8:	00000000 	andeq	r0, r0, r0
    17ac:	0000c400 	andeq	ip, r0, r0, lsl #8
    17b0:	0000c800 	andeq	ip, r0, r0, lsl #16
    17b4:	53000100 	movwpl	r0, #256	; 0x100
	...
    17c0:	000000d4 	ldrdeq	r0, [r0], -r4
    17c4:	000000f4 	strdeq	r0, [r0], -r4
    17c8:	f4580001 			; <UNDEFINED> instruction: 0xf4580001
    17cc:	34000000 	strcc	r0, [r0], #-0
    17d0:	0d000001 	stceq	0, cr0, [r0, #-4]
    17d4:	32007500 	andcc	r7, r0, #0, 10
    17d8:	31007524 	tstcc	r0, r4, lsr #10
    17dc:	00752224 	rsbseq	r2, r5, r4, lsr #4
    17e0:	00009f22 	andeq	r9, r0, r2, lsr #30
    17e4:	00000000 	andeq	r0, r0, r0
    17e8:	00e00000 	rsceq	r0, r0, r0
    17ec:	00f40000 	rscseq	r0, r4, r0
    17f0:	00010000 	andeq	r0, r1, r0
    17f4:	0000f458 	andeq	pc, r0, r8, asr r4	; <UNPREDICTABLE>
    17f8:	00013400 	andeq	r3, r1, r0, lsl #8
    17fc:	75000d00 	strvc	r0, [r0, #-3328]	; 0xd00
    1800:	75243200 	strvc	r3, [r4, #-512]!	; 0x200
    1804:	22243100 	eorcs	r3, r4, #0, 2
    1808:	9f220075 	svcls	0x00220075
	...
    1814:	000000e4 	andeq	r0, r0, r4, ror #1
    1818:	000000e8 	andeq	r0, r0, r8, ror #1
    181c:	00530001 	subseq	r0, r3, r1
    1820:	00000000 	andeq	r0, r0, r0
    1824:	f4000000 	vst4.8	{d0-d3}, [r0], r0
    1828:	14000000 	strne	r0, [r0], #-0
    182c:	01000001 	tsteq	r0, r1
    1830:	01145800 	tsteq	r4, r0, lsl #16
    1834:	01340000 	teqeq	r4, r0
    1838:	00050000 	andeq	r0, r5, r0
    183c:	24330075 	ldrtcs	r0, [r3], #-117	; 0x75
    1840:	0000009f 	muleq	r0, pc, r0	; <UNPREDICTABLE>
    1844:	00000000 	andeq	r0, r0, r0
    1848:	00010000 	andeq	r0, r1, r0
    184c:	00011400 	andeq	r1, r1, r0, lsl #8
    1850:	58000100 	stmdapl	r0, {r8}
    1854:	00000114 	andeq	r0, r0, r4, lsl r1
    1858:	00000134 	andeq	r0, r0, r4, lsr r1
    185c:	00750005 	rsbseq	r0, r5, r5
    1860:	009f2433 	addseq	r2, pc, r3, lsr r4	; <UNPREDICTABLE>
    1864:	00000000 	andeq	r0, r0, r0
    1868:	04000000 	streq	r0, [r0], #-0
    186c:	08000001 	stmdaeq	r0, {r0}
    1870:	01000001 	tsteq	r0, r1
    1874:	00005300 	andeq	r5, r0, r0, lsl #6
    1878:	00000000 	andeq	r0, r0, r0
    187c:	01140000 	tsteq	r4, r0
    1880:	011c0000 	tsteq	ip, r0
    1884:	00060000 	andeq	r0, r6, r0
    1888:	80080077 	andhi	r0, r8, r7, ror r0
    188c:	011c9f1a 	tsteq	ip, sl, lsl pc
    1890:	011f0000 	tsteq	pc, r0
    1894:	00010000 	andeq	r0, r1, r0
    1898:	00011f51 	andeq	r1, r1, r1, asr pc
    189c:	00015400 	andeq	r5, r1, r0, lsl #8
    18a0:	77000600 	strvc	r0, [r0, -r0, lsl #12]
    18a4:	1a800800 	bne	fe0038ac <__bss_end__+0xfdff138c>
    18a8:	0000009f 	muleq	r0, pc, r0	; <UNPREDICTABLE>
    18ac:	00000000 	andeq	r0, r0, r0
    18b0:	00012400 	andeq	r2, r1, r0, lsl #8
    18b4:	00012800 	andeq	r2, r1, r0, lsl #16
    18b8:	53000100 	movwpl	r0, #256	; 0x100
	...
    18c4:	00000144 	andeq	r0, r0, r4, asr #2
    18c8:	00000148 	andeq	r0, r0, r8, asr #2
    18cc:	00530001 	subseq	r0, r3, r1
    18d0:	00000000 	andeq	r0, r0, r0
    18d4:	54000000 	strpl	r0, [r0], #-0
    18d8:	6b000001 	blvs	18e4 <_start-0x671c>
    18dc:	01000001 	tsteq	r0, r1
    18e0:	016b5000 	cmneq	fp, r0
    18e4:	01d00000 	bicseq	r0, r0, r0
    18e8:	00010000 	andeq	r0, r1, r0
    18ec:	0001d059 	andeq	sp, r1, r9, asr r0
    18f0:	00030c00 	andeq	r0, r3, r0, lsl #24
    18f4:	f3000400 	vshl.u8	d0, d0, d0
    18f8:	0c9f5001 	ldceq	0, cr5, [pc], {1}
    18fc:	14000003 	strne	r0, [r0], #-3
    1900:	01000003 	tsteq	r0, r3
    1904:	03145900 	tsteq	r4, #0, 18
    1908:	031c0000 	tsteq	ip, #0
    190c:	00040000 	andeq	r0, r4, r0
    1910:	9f5001f3 	svcls	0x005001f3
	...
    191c:	00000154 	andeq	r0, r0, r4, asr r1
    1920:	0000016b 	andeq	r0, r0, fp, ror #2
    1924:	6b510001 	blvs	1441930 <__bss_end__+0x142f410>
    1928:	1c000001 	stcne	0, cr0, [r0], {1}
    192c:	01000003 	tsteq	r0, r3
    1930:	00005600 	andeq	r5, r0, r0, lsl #12
    1934:	00000000 	andeq	r0, r0, r0
    1938:	01a80000 			; <UNDEFINED> instruction: 0x01a80000
    193c:	02980000 	addseq	r0, r8, #0
    1940:	00010000 	andeq	r0, r1, r0
    1944:	00000058 	andeq	r0, r0, r8, asr r0
    1948:	00000000 	andeq	r0, r0, r0
    194c:	0001ac00 	andeq	sl, r1, r0, lsl #24
    1950:	0002d000 	andeq	sp, r2, r0
    1954:	54000100 	strpl	r0, [r0], #-256	; 0x100
	...
    1960:	000001ac 	andeq	r0, r0, ip, lsr #3
    1964:	000002d0 	ldrdeq	r0, [r0], -r0	; <UNPREDICTABLE>
    1968:	00740005 	rsbseq	r0, r4, r5
    196c:	009f2531 	addseq	r2, pc, r1, lsr r5	; <UNPREDICTABLE>
    1970:	00000000 	andeq	r0, r0, r0
    1974:	ac000000 	stcge	0, cr0, [r0], {-0}
    1978:	d0000001 	andle	r0, r0, r1
    197c:	02000001 	andeq	r0, r0, #1
    1980:	d09f3000 	addsle	r3, pc, r0
    1984:	0c000001 	stceq	0, cr0, [r0], {1}
    1988:	01000003 	tsteq	r0, r3
    198c:	03145900 	tsteq	r4, #0, 18
    1990:	031c0000 	tsteq	ip, #0
    1994:	00010000 	andeq	r0, r1, r0
    1998:	00000059 	andeq	r0, r0, r9, asr r0
    199c:	00000000 	andeq	r0, r0, r0
    19a0:	00016800 	andeq	r6, r1, r0, lsl #16
    19a4:	00016b00 	andeq	r6, r1, r0, lsl #22
    19a8:	51000100 	mrspl	r0, (UNDEF: 16)
    19ac:	0000016b 	andeq	r0, r0, fp, ror #2
    19b0:	0000031c 	andeq	r0, r0, ip, lsl r3
    19b4:	00560001 	subseq	r0, r6, r1
    19b8:	00000000 	andeq	r0, r0, r0
    19bc:	70000000 	andvc	r0, r0, r0
    19c0:	ac000001 	stcge	0, cr0, [r0], {1}
    19c4:	01000001 	tsteq	r0, r1
    19c8:	030c5400 	movweq	r5, #50176	; 0xc400
    19cc:	03140000 	tsteq	r4, #0
    19d0:	00010000 	andeq	r0, r1, r0
    19d4:	00000054 	andeq	r0, r0, r4, asr r0
    19d8:	00000000 	andeq	r0, r0, r0
    19dc:	0001a800 	andeq	sl, r1, r0, lsl #16
    19e0:	0001c400 	andeq	ip, r1, r0, lsl #8
    19e4:	58000100 	stmdapl	r0, {r8}
	...
    19f0:	000001b0 			; <UNDEFINED> instruction: 0x000001b0
    19f4:	000001cb 	andeq	r0, r0, fp, asr #3
    19f8:	cb520001 	blgt	1481a04 <__bss_end__+0x146f4e4>
    19fc:	d0000001 	andle	r0, r0, r1
    1a00:	08000002 	stmdaeq	r0, {r1}
    1a04:	31007400 	tstcc	r0, r0, lsl #8
    1a08:	22007425 	andcs	r7, r0, #620756992	; 0x25000000
    1a0c:	0000009f 	muleq	r0, pc, r0	; <UNPREDICTABLE>
    1a10:	00000000 	andeq	r0, r0, r0
    1a14:	0001b000 	andeq	fp, r1, r0
    1a18:	0001c400 	andeq	ip, r1, r0, lsl #8
    1a1c:	58000100 	stmdapl	r0, {r8}
	...
    1a28:	000001b4 			; <UNDEFINED> instruction: 0x000001b4
    1a2c:	000001b8 			; <UNDEFINED> instruction: 0x000001b8
    1a30:	00530001 	subseq	r0, r3, r1
    1a34:	00000000 	andeq	r0, r0, r0
    1a38:	d0000000 	andle	r0, r0, r0
    1a3c:	d0000001 	andle	r0, r0, r1
    1a40:	01000002 	tsteq	r0, r2
    1a44:	00005400 	andeq	r5, r0, r0, lsl #8
    1a48:	00000000 	andeq	r0, r0, r0
    1a4c:	01d00000 	bicseq	r0, r0, r0
    1a50:	01e40000 	mvneq	r0, r0
    1a54:	00010000 	andeq	r0, r1, r0
    1a58:	00000058 	andeq	r0, r0, r8, asr r0
    1a5c:	00000000 	andeq	r0, r0, r0
    1a60:	0001d400 	andeq	sp, r1, r0, lsl #8
    1a64:	0001d800 	andeq	sp, r1, r0, lsl #16
    1a68:	53000100 	movwpl	r0, #256	; 0x100
	...
    1a74:	000001f4 	strdeq	r0, [r0], -r4
    1a78:	000002d0 	ldrdeq	r0, [r0], -r0	; <UNPREDICTABLE>
    1a7c:	00540001 	subseq	r0, r4, r1
    1a80:	00000000 	andeq	r0, r0, r0
    1a84:	f4000000 	vst4.8	{d0-d3}, [r0], r0
    1a88:	08000001 	stmdaeq	r0, {r0}
    1a8c:	01000002 	tsteq	r0, r2
    1a90:	00005800 	andeq	r5, r0, r0, lsl #16
    1a94:	00000000 	andeq	r0, r0, r0
    1a98:	01f80000 	mvnseq	r0, r0
    1a9c:	01fc0000 	mvnseq	r0, r0
    1aa0:	00010000 	andeq	r0, r1, r0
    1aa4:	00000053 	andeq	r0, r0, r3, asr r0
    1aa8:	00000000 	andeq	r0, r0, r0
    1aac:	00021800 	andeq	r1, r2, r0, lsl #16
    1ab0:	0002d000 	andeq	sp, r2, r0
    1ab4:	54000100 	strpl	r0, [r0], #-256	; 0x100
	...
    1ac0:	00000218 	andeq	r0, r0, r8, lsl r2
    1ac4:	0000022c 	andeq	r0, r0, ip, lsr #4
    1ac8:	00580001 	subseq	r0, r8, r1
    1acc:	00000000 	andeq	r0, r0, r0
    1ad0:	1c000000 	stcne	0, cr0, [r0], {-0}
    1ad4:	20000002 	andcs	r0, r0, r2
    1ad8:	01000002 	tsteq	r0, r2
    1adc:	00005300 	andeq	r5, r0, r0, lsl #6
    1ae0:	00000000 	andeq	r0, r0, r0
    1ae4:	023c0000 	eorseq	r0, ip, #0
    1ae8:	02d00000 	sbcseq	r0, r0, #0
    1aec:	00010000 	andeq	r0, r1, r0
    1af0:	00000054 	andeq	r0, r0, r4, asr r0
    1af4:	00000000 	andeq	r0, r0, r0
    1af8:	00023c00 	andeq	r3, r2, r0, lsl #24
    1afc:	00025000 	andeq	r5, r2, r0
    1b00:	58000100 	stmdapl	r0, {r8}
	...
    1b0c:	00000240 	andeq	r0, r0, r0, asr #4
    1b10:	00000244 	andeq	r0, r0, r4, asr #4
    1b14:	00530001 	subseq	r0, r3, r1
    1b18:	00000000 	andeq	r0, r0, r0
    1b1c:	60000000 	andvs	r0, r0, r0
    1b20:	d0000002 	andle	r0, r0, r2
    1b24:	01000002 	tsteq	r0, r2
    1b28:	00005400 	andeq	r5, r0, r0, lsl #8
    1b2c:	00000000 	andeq	r0, r0, r0
    1b30:	02600000 	rsbeq	r0, r0, #0
    1b34:	02740000 	rsbseq	r0, r4, #0
    1b38:	00010000 	andeq	r0, r1, r0
    1b3c:	00000058 	andeq	r0, r0, r8, asr r0
    1b40:	00000000 	andeq	r0, r0, r0
    1b44:	00026400 	andeq	r6, r2, r0, lsl #8
    1b48:	00026800 	andeq	r6, r2, r0, lsl #16
    1b4c:	53000100 	movwpl	r0, #256	; 0x100
	...
    1b58:	00000284 	andeq	r0, r0, r4, lsl #5
    1b5c:	000002d0 	ldrdeq	r0, [r0], -r0	; <UNPREDICTABLE>
    1b60:	00540001 	subseq	r0, r4, r1
    1b64:	00000000 	andeq	r0, r0, r0
    1b68:	84000000 	strhi	r0, [r0], #-0
    1b6c:	98000002 	stmdals	r0, {r1}
    1b70:	01000002 	tsteq	r0, r2
    1b74:	00005800 	andeq	r5, r0, r0, lsl #16
    1b78:	00000000 	andeq	r0, r0, r0
    1b7c:	02880000 	addeq	r0, r8, #0
    1b80:	028c0000 	addeq	r0, ip, #0
    1b84:	00010000 	andeq	r0, r1, r0
    1b88:	00000053 	andeq	r0, r0, r3, asr r0
    1b8c:	00000000 	andeq	r0, r0, r0
    1b90:	0002a800 	andeq	sl, r2, r0, lsl #16
    1b94:	0002d000 	andeq	sp, r2, r0
    1b98:	54000100 	strpl	r0, [r0], #-256	; 0x100
	...
    1ba4:	000002ac 	andeq	r0, r0, ip, lsr #5
    1ba8:	000002b0 			; <UNDEFINED> instruction: 0x000002b0
    1bac:	00530001 	subseq	r0, r3, r1
    1bb0:	00000000 	andeq	r0, r0, r0
    1bb4:	c8000000 	stmdagt	r0, {}	; <UNPREDICTABLE>
    1bb8:	0c000002 	stceq	0, cr0, [r0], {2}
    1bbc:	02000003 	andeq	r0, r0, #3
    1bc0:	149f3000 	ldrne	r3, [pc], #0	; 1bc8 <_start-0x6438>
    1bc4:	1c000003 	stcne	0, cr0, [r0], {3}
    1bc8:	02000003 	andeq	r0, r0, #3
    1bcc:	009f3000 	addseq	r3, pc, r0
    1bd0:	00000000 	andeq	r0, r0, r0
    1bd4:	c8000000 	stmdagt	r0, {}	; <UNPREDICTABLE>
    1bd8:	0c000002 	stceq	0, cr0, [r0], {2}
    1bdc:	01000003 	tsteq	r0, r3
    1be0:	03145500 	tsteq	r4, #0, 10
    1be4:	031c0000 	tsteq	ip, #0
    1be8:	00010000 	andeq	r0, r1, r0
    1bec:	00000055 	andeq	r0, r0, r5, asr r0
    1bf0:	00000000 	andeq	r0, r0, r0
    1bf4:	0002d000 	andeq	sp, r2, r0
    1bf8:	00030c00 	andeq	r0, r3, r0, lsl #24
    1bfc:	54000100 	strpl	r0, [r0], #-256	; 0x100
    1c00:	00000314 	andeq	r0, r0, r4, lsl r3
    1c04:	0000031c 	andeq	r0, r0, ip, lsl r3
    1c08:	00540001 	subseq	r0, r4, r1
    1c0c:	00000000 	andeq	r0, r0, r0
    1c10:	1c000000 	stcne	0, cr0, [r0], {-0}
    1c14:	3b000003 	blcc	1c28 <_start-0x63d8>
    1c18:	01000003 	tsteq	r0, r3
    1c1c:	033b5000 	teqeq	fp, #0
    1c20:	03540000 	cmpeq	r4, #0
    1c24:	00010000 	andeq	r0, r1, r0
    1c28:	00035458 	andeq	r5, r3, r8, asr r4
    1c2c:	00036400 	andeq	r6, r3, r0, lsl #8
    1c30:	50000100 	andpl	r0, r0, r0, lsl #2
    1c34:	00000364 	andeq	r0, r0, r4, ror #6
    1c38:	000003ac 	andeq	r0, r0, ip, lsr #7
    1c3c:	00580001 	subseq	r0, r8, r1
    1c40:	00000000 	andeq	r0, r0, r0
    1c44:	1c000000 	stcne	0, cr0, [r0], {-0}
    1c48:	3b000003 	blcc	1c5c <_start-0x63a4>
    1c4c:	01000003 	tsteq	r0, r3
    1c50:	033b5100 	teqeq	fp, #0, 2
    1c54:	03540000 	cmpeq	r4, #0
    1c58:	00010000 	andeq	r0, r1, r0
    1c5c:	00035456 	andeq	r5, r3, r6, asr r4
    1c60:	00036400 	andeq	r6, r3, r0, lsl #8
    1c64:	51000100 	mrspl	r0, (UNDEF: 16)
    1c68:	00000364 	andeq	r0, r0, r4, ror #6
    1c6c:	000003ac 	andeq	r0, r0, ip, lsr #7
    1c70:	00560001 	subseq	r0, r6, r1
    1c74:	00000000 	andeq	r0, r0, r0
    1c78:	1c000000 	stcne	0, cr0, [r0], {-0}
    1c7c:	3b000003 	blcc	1c90 <_start-0x6370>
    1c80:	01000003 	tsteq	r0, r3
    1c84:	033b5200 	teqeq	fp, #0, 4
    1c88:	03540000 	cmpeq	r4, #0
    1c8c:	00040000 	andeq	r0, r4, r0
    1c90:	9f5201f3 	svcls	0x005201f3
    1c94:	00000354 	andeq	r0, r0, r4, asr r3
    1c98:	00000364 	andeq	r0, r0, r4, ror #6
    1c9c:	64520001 	ldrbvs	r0, [r2], #-1
    1ca0:	ac000003 	stcge	0, cr0, [r0], {3}
    1ca4:	03000003 	movweq	r0, #3
    1ca8:	9f017700 	svcls	0x00017700
	...
    1cb4:	0000031c 	andeq	r0, r0, ip, lsl r3
    1cb8:	0000033b 	andeq	r0, r0, fp, lsr r3
    1cbc:	3b530001 	blcc	14c1cc8 <__bss_end__+0x14af7a8>
    1cc0:	54000003 	strpl	r0, [r0], #-3
    1cc4:	04000003 	streq	r0, [r0], #-3
    1cc8:	5301f300 	movwpl	pc, #4864	; 0x1300	; <UNPREDICTABLE>
    1ccc:	0003549f 	muleq	r3, pc, r4	; <UNPREDICTABLE>
    1cd0:	00036400 	andeq	r6, r3, r0, lsl #8
    1cd4:	53000100 	movwpl	r0, #256	; 0x100
    1cd8:	00000364 	andeq	r0, r0, r4, ror #6
    1cdc:	000003ac 	andeq	r0, r0, ip, lsr #7
    1ce0:	01f30004 	mvnseq	r0, r4
    1ce4:	00009f53 	andeq	r9, r0, r3, asr pc
    1ce8:	00000000 	andeq	r0, r0, r0
    1cec:	035c0000 	cmpeq	ip, #0
    1cf0:	03640000 	cmneq	r4, #0
    1cf4:	00020000 	andeq	r0, r2, r0
    1cf8:	03649f30 	cmneq	r4, #48, 30	; 0xc0
    1cfc:	03ac0000 			; <UNDEFINED> instruction: 0x03ac0000
    1d00:	00010000 	andeq	r0, r1, r0
    1d04:	00000054 	andeq	r0, r0, r4, asr r0
    1d08:	00000000 	andeq	r0, r0, r0
    1d0c:	00037400 	andeq	r7, r3, r0, lsl #8
    1d10:	00038400 	andeq	r8, r3, r0, lsl #8
    1d14:	50000100 	andpl	r0, r0, r0, lsl #2
	...
    1d20:	000003ac 	andeq	r0, r0, ip, lsr #7
    1d24:	000003c7 	andeq	r0, r0, r7, asr #7
    1d28:	c7500001 	ldrbgt	r0, [r0, -r1]
    1d2c:	e0000003 	and	r0, r0, r3
    1d30:	01000003 	tsteq	r0, r3
    1d34:	03e05700 	mvneq	r5, #0, 14
    1d38:	03f00000 	mvnseq	r0, #0
    1d3c:	00010000 	andeq	r0, r1, r0
    1d40:	0003f050 	andeq	pc, r3, r0, asr r0	; <UNPREDICTABLE>
    1d44:	00042800 	andeq	r2, r4, r0, lsl #16
    1d48:	57000100 	strpl	r0, [r0, -r0, lsl #2]
	...
    1d54:	000003ac 	andeq	r0, r0, ip, lsr #7
    1d58:	000003c7 	andeq	r0, r0, r7, asr #7
    1d5c:	c7510001 	ldrbgt	r0, [r1, -r1]
    1d60:	e0000003 	and	r0, r0, r3
    1d64:	01000003 	tsteq	r0, r3
    1d68:	03e05500 	mvneq	r5, #0, 10
    1d6c:	03f00000 	mvnseq	r0, #0
    1d70:	00010000 	andeq	r0, r1, r0
    1d74:	0003f051 	andeq	pc, r3, r1, asr r0	; <UNPREDICTABLE>
    1d78:	00042800 	andeq	r2, r4, r0, lsl #16
    1d7c:	55000100 	strpl	r0, [r0, #-256]	; 0x100
	...
    1d88:	000003ac 	andeq	r0, r0, ip, lsr #7
    1d8c:	000003c7 	andeq	r0, r0, r7, asr #7
    1d90:	c7520001 	ldrbgt	r0, [r2, -r1]
    1d94:	e0000003 	and	r0, r0, r3
    1d98:	04000003 	streq	r0, [r0], #-3
    1d9c:	5201f300 	andpl	pc, r1, #0, 6
    1da0:	0003e09f 	muleq	r3, pc, r0	; <UNPREDICTABLE>
    1da4:	0003f000 	andeq	pc, r3, r0
    1da8:	52000100 	andpl	r0, r0, #0, 2
    1dac:	000003f0 	strdeq	r0, [r0], -r0	; <UNPREDICTABLE>
    1db0:	00000428 	andeq	r0, r0, r8, lsr #8
    1db4:	01760003 	cmneq	r6, r3
    1db8:	0000009f 	muleq	r0, pc, r0	; <UNPREDICTABLE>
    1dbc:	00000000 	andeq	r0, r0, r0
    1dc0:	0003ac00 	andeq	sl, r3, r0, lsl #24
    1dc4:	0003c700 	andeq	ip, r3, r0, lsl #14
    1dc8:	53000100 	movwpl	r0, #256	; 0x100
    1dcc:	000003c7 	andeq	r0, r0, r7, asr #7
    1dd0:	000003e0 	andeq	r0, r0, r0, ror #7
    1dd4:	e0580001 	subs	r0, r8, r1
    1dd8:	f0000003 			; <UNDEFINED> instruction: 0xf0000003
    1ddc:	01000003 	tsteq	r0, r3
    1de0:	03f05300 	mvnseq	r5, #0, 6
    1de4:	04280000 	strteq	r0, [r8], #-0
    1de8:	00010000 	andeq	r0, r1, r0
    1dec:	00000058 	andeq	r0, r0, r8, asr r0
    1df0:	00000000 	andeq	r0, r0, r0
    1df4:	0003e800 	andeq	lr, r3, r0, lsl #16
    1df8:	0003f000 	andeq	pc, r3, r0
    1dfc:	30000200 	andcc	r0, r0, r0, lsl #4
    1e00:	0003f09f 	muleq	r3, pc, r0	; <UNPREDICTABLE>
    1e04:	00042800 	andeq	r2, r4, r0, lsl #16
    1e08:	54000100 	strpl	r0, [r0], #-256	; 0x100
	...
    1e14:	00000428 	andeq	r0, r0, r8, lsr #8
    1e18:	00000447 	andeq	r0, r0, r7, asr #8
    1e1c:	47510001 	ldrbmi	r0, [r1, -r1]
    1e20:	e8000004 	stmda	r0, {r2}
    1e24:	04000004 	streq	r0, [r0], #-4
    1e28:	5101f300 	mrspl	pc, SP_irq	; <UNPREDICTABLE>
    1e2c:	0000009f 	muleq	r0, pc, r0	; <UNPREDICTABLE>
    1e30:	00000000 	andeq	r0, r0, r0
    1e34:	00042800 	andeq	r2, r4, r0, lsl #16
    1e38:	00044700 	andeq	r4, r4, r0, lsl #14
    1e3c:	52000100 	andpl	r0, r0, #0, 2
    1e40:	00000447 	andeq	r0, r0, r7, asr #8
    1e44:	000004e8 	andeq	r0, r0, r8, ror #9
    1e48:	01f30004 	mvnseq	r0, r4
    1e4c:	00009f52 	andeq	r9, r0, r2, asr pc
    1e50:	00000000 	andeq	r0, r0, r0
    1e54:	04280000 	strteq	r0, [r8], #-0
    1e58:	04470000 	strbeq	r0, [r7], #-0
    1e5c:	00010000 	andeq	r0, r1, r0
    1e60:	00044753 	andeq	r4, r4, r3, asr r7
    1e64:	0004e800 	andeq	lr, r4, r0, lsl #16
    1e68:	55000100 	strpl	r0, [r0, #-256]	; 0x100
	...
    1e74:	00000468 	andeq	r0, r0, r8, ror #8
    1e78:	000004a7 	andeq	r0, r0, r7, lsr #9
    1e7c:	a7520001 	ldrbge	r0, [r2, -r1]
    1e80:	c0000004 	andgt	r0, r0, r4
    1e84:	06000004 	streq	r0, [r0], -r4
    1e88:	77007500 	strvc	r7, [r0, -r0, lsl #10]
    1e8c:	c09f1e00 	addsgt	r1, pc, r0, lsl #28
    1e90:	e8000004 	stmda	r0, {r2}
    1e94:	01000004 	tsteq	r0, r4
    1e98:	00005200 	andeq	r5, r0, r0, lsl #4
    1e9c:	00000000 	andeq	r0, r0, r0
    1ea0:	04e80000 	strbteq	r0, [r8], #0
    1ea4:	04f30000 	ldrbteq	r0, [r3], #0
    1ea8:	00010000 	andeq	r0, r1, r0
    1eac:	0004f350 	andeq	pc, r4, r0, asr r3	; <UNPREDICTABLE>
    1eb0:	00052400 	andeq	r2, r5, r0, lsl #8
    1eb4:	f3000400 	vshl.u8	d0, d0, d0
    1eb8:	009f5001 	addseq	r5, pc, r1
    1ebc:	00000000 	andeq	r0, r0, r0
    1ec0:	f4000000 	vst4.8	{d0-d3}, [r0], r0
    1ec4:	ff000004 			; <UNDEFINED> instruction: 0xff000004
    1ec8:	01000004 	tsteq	r0, r4
    1ecc:	00005000 	andeq	r5, r0, r0
    1ed0:	00000000 	andeq	r0, r0, r0
    1ed4:	05240000 	streq	r0, [r4, #-0]!
    1ed8:	05340000 	ldreq	r0, [r4, #-0]!
    1edc:	00010000 	andeq	r0, r1, r0
    1ee0:	00053450 	andeq	r3, r5, r0, asr r4
    1ee4:	00055000 	andeq	r5, r5, r0
    1ee8:	55000100 	strpl	r0, [r0, #-256]	; 0x100
	...
    1ef4:	00000524 	andeq	r0, r0, r4, lsr #10
    1ef8:	00000534 	andeq	r0, r0, r4, lsr r5
    1efc:	34510001 	ldrbcc	r0, [r1], #-1
    1f00:	50000005 	andpl	r0, r0, r5
    1f04:	01000005 	tsteq	r0, r5
    1f08:	00005400 	andeq	r5, r0, r0, lsl #8
    1f0c:	00000000 	andeq	r0, r0, r0
    1f10:	05500000 	ldrbeq	r0, [r0, #-0]
    1f14:	056c0000 	strbeq	r0, [ip, #-0]!
    1f18:	00010000 	andeq	r0, r1, r0
    1f1c:	00056c50 	andeq	r6, r5, r0, asr ip
    1f20:	0005bc00 	andeq	fp, r5, r0, lsl #24
    1f24:	55000100 	strpl	r0, [r0, #-256]	; 0x100
    1f28:	000005bc 			; <UNDEFINED> instruction: 0x000005bc
    1f2c:	000005d4 	ldrdeq	r0, [r0], -r4
    1f30:	01f30004 	mvnseq	r0, r4
    1f34:	00009f50 	andeq	r9, r0, r0, asr pc
    1f38:	00000000 	andeq	r0, r0, r0
    1f3c:	057c0000 	ldrbeq	r0, [ip, #-0]!
    1f40:	058b0000 	streq	r0, [fp]
    1f44:	00010000 	andeq	r0, r1, r0
    1f48:	00058b50 	andeq	r8, r5, r0, asr fp
    1f4c:	0005a400 	andeq	sl, r5, r0, lsl #8
    1f50:	54000100 	strpl	r0, [r0], #-256	; 0x100
    1f54:	000005a4 	andeq	r0, r0, r4, lsr #11
    1f58:	000005a8 	andeq	r0, r0, r8, lsr #11
    1f5c:	a8500001 	ldmdage	r0, {r0}^
    1f60:	bc000005 	stclt	0, cr0, [r0], {5}
    1f64:	01000005 	tsteq	r0, r5
    1f68:	05bc5400 	ldreq	r5, [ip, #1024]!	; 0x400
    1f6c:	05d40000 	ldrbeq	r0, [r4]
    1f70:	00010000 	andeq	r0, r1, r0
    1f74:	00000050 	andeq	r0, r0, r0, asr r0
    1f78:	00000000 	andeq	r0, r0, r0
    1f7c:	0005d400 	andeq	sp, r5, r0, lsl #8
    1f80:	0005e700 	andeq	lr, r5, r0, lsl #14
    1f84:	50000100 	andpl	r0, r0, r0, lsl #2
    1f88:	000005e7 	andeq	r0, r0, r7, ror #11
    1f8c:	00000620 	andeq	r0, r0, r0, lsr #12
    1f90:	01f30004 	mvnseq	r0, r4
    1f94:	00009f50 	andeq	r9, r0, r0, asr pc
    1f98:	00000000 	andeq	r0, r0, r0
    1f9c:	05d40000 	ldrbeq	r0, [r4]
    1fa0:	05e70000 	strbeq	r0, [r7, #0]!
    1fa4:	00010000 	andeq	r0, r1, r0
    1fa8:	0005e751 	andeq	lr, r5, r1, asr r7
    1fac:	00062000 	andeq	r2, r6, r0
    1fb0:	f3000400 	vshl.u8	d0, d0, d0
    1fb4:	009f5101 	addseq	r5, pc, r1, lsl #2
    1fb8:	00000000 	andeq	r0, r0, r0
    1fbc:	d4000000 	strle	r0, [r0], #-0
    1fc0:	e7000005 	str	r0, [r0, -r5]
    1fc4:	01000005 	tsteq	r0, r5
    1fc8:	05e75200 	strbeq	r5, [r7, #512]!	; 0x200
    1fcc:	06200000 	strteq	r0, [r0], -r0
    1fd0:	00040000 	andeq	r0, r4, r0
    1fd4:	9f5201f3 	svcls	0x005201f3
	...
    1fe0:	000005d4 	ldrdeq	r0, [r0], -r4
    1fe4:	000005e7 	andeq	r0, r0, r7, ror #11
    1fe8:	e7530001 	ldrb	r0, [r3, -r1]
    1fec:	20000005 	andcs	r0, r0, r5
    1ff0:	04000006 	streq	r0, [r0], #-6
    1ff4:	5301f300 	movwpl	pc, #4864	; 0x1300	; <UNPREDICTABLE>
    1ff8:	0000009f 	muleq	r0, pc, r0	; <UNPREDICTABLE>
    1ffc:	00000000 	andeq	r0, r0, r0
    2000:	0005e800 	andeq	lr, r5, r0, lsl #16
    2004:	0005f300 	andeq	pc, r5, r0, lsl #6
    2008:	50000100 	andpl	r0, r0, r0, lsl #2
    200c:	0000060c 	andeq	r0, r0, ip, lsl #12
    2010:	00000620 	andeq	r0, r0, r0, lsr #12
    2014:	00500001 	subseq	r0, r0, r1
    2018:	00000000 	andeq	r0, r0, r0
    201c:	fc000000 	stc2	0, cr0, [r0], {-0}
    2020:	04000000 	streq	r0, [r0], #-0
    2024:	01000001 	tsteq	r0, r1
    2028:	01045000 	mrseq	r5, (UNDEF: 4)
    202c:	01280000 	teqeq	r8, r0
    2030:	00010000 	andeq	r0, r1, r0
    2034:	00000054 	andeq	r0, r0, r4, asr r0
    2038:	00000000 	andeq	r0, r0, r0
    203c:	00003000 	andeq	r3, r0, r0
    2040:	00003c00 	andeq	r3, r0, r0, lsl #24
    2044:	30000200 	andcc	r0, r0, r0, lsl #4
    2048:	00003c9f 	muleq	r0, pc, ip	; <UNPREDICTABLE>
    204c:	00006800 	andeq	r6, r0, r0, lsl #16
    2050:	53000100 	movwpl	r0, #256	; 0x100
	...
    205c:	00000068 	andeq	r0, r0, r8, rrx
    2060:	00000077 	andeq	r0, r0, r7, ror r0
    2064:	77500001 	ldrbvc	r0, [r0, -r1]
    2068:	ac000000 	stcge	0, cr0, [r0], {-0}
    206c:	01000000 	mrseq	r0, (UNDEF: 0)
    2070:	00005400 	andeq	r5, r0, r0, lsl #8
    2074:	00000000 	andeq	r0, r0, r0
    2078:	00ac0000 	adceq	r0, ip, r0
    207c:	00bb0000 	adcseq	r0, fp, r0
    2080:	00010000 	andeq	r0, r1, r0
    2084:	0000bb50 	andeq	fp, r0, r0, asr fp
    2088:	0000f000 	andeq	pc, r0, r0
    208c:	54000100 	strpl	r0, [r0], #-256	; 0x100
	...
    2098:	000000f0 	strdeq	r0, [r0], -r0	; <UNPREDICTABLE>
    209c:	000000ff 	strdeq	r0, [r0], -pc	; <UNPREDICTABLE>
    20a0:	ff500001 			; <UNDEFINED> instruction: 0xff500001
    20a4:	34000000 	strcc	r0, [r0], #-0
    20a8:	01000001 	tsteq	r0, r1
    20ac:	00005400 	andeq	r5, r0, r0, lsl #8
    20b0:	00000000 	andeq	r0, r0, r0
    20b4:	01340000 	teqeq	r4, r0
    20b8:	01430000 	mrseq	r0, (UNDEF: 67)
    20bc:	00010000 	andeq	r0, r1, r0
    20c0:	00014350 	andeq	r4, r1, r0, asr r3
    20c4:	00017800 	andeq	r7, r1, r0, lsl #16
    20c8:	54000100 	strpl	r0, [r0], #-256	; 0x100
	...
    20d4:	00000178 	andeq	r0, r0, r8, ror r1
    20d8:	00000187 	andeq	r0, r0, r7, lsl #3
    20dc:	87500001 	ldrbhi	r0, [r0, -r1]
    20e0:	bc000001 	stclt	0, cr0, [r0], {1}
    20e4:	01000001 	tsteq	r0, r1
    20e8:	00005400 	andeq	r5, r0, r0, lsl #8
    20ec:	00000000 	andeq	r0, r0, r0
    20f0:	01bc0000 			; <UNDEFINED> instruction: 0x01bc0000
    20f4:	01cb0000 	biceq	r0, fp, r0
    20f8:	00010000 	andeq	r0, r1, r0
    20fc:	0001cb50 	andeq	ip, r1, r0, asr fp
    2100:	00020000 	andeq	r0, r2, r0
    2104:	54000100 	strpl	r0, [r0], #-256	; 0x100
	...

Disassembly of section .debug_aranges:

00000000 <.debug_aranges>:
   0:	0000001c 	andeq	r0, r0, ip, lsl r0
   4:	00000002 	andeq	r0, r0, r2
   8:	00040000 	andeq	r0, r4, r0
   c:	00000000 	andeq	r0, r0, r0
  10:	00008010 	andeq	r8, r0, r0, lsl r0
  14:	000002f4 	strdeq	r0, [r0], -r4
	...
  20:	0000001c 	andeq	r0, r0, ip, lsl r0
  24:	08740002 	ldmdaeq	r4!, {r1}^
  28:	00040000 	andeq	r0, r4, r0
  2c:	00000000 	andeq	r0, r0, r0
  30:	00008304 	andeq	r8, r0, r4, lsl #6
  34:	00000020 	andeq	r0, r0, r0, lsr #32
	...
  40:	0000001c 	andeq	r0, r0, ip, lsl r0
  44:	09530002 	ldmdbeq	r3, {r1}^
  48:	00040000 	andeq	r0, r4, r0
  4c:	00000000 	andeq	r0, r0, r0
  50:	00008324 	andeq	r8, r0, r4, lsr #6
  54:	00000058 	andeq	r0, r0, r8, asr r0
	...
  60:	0000001c 	andeq	r0, r0, ip, lsl r0
  64:	0ae80002 	beq	ffa00074 <__bss_end__+0xff9edb54>
  68:	00040000 	andeq	r0, r4, r0
  6c:	00000000 	andeq	r0, r0, r0
  70:	0000837c 	andeq	r8, r0, ip, ror r3
  74:	0000003c 	andeq	r0, r0, ip, lsr r0
	...
  80:	0000001c 	andeq	r0, r0, ip, lsl r0
  84:	0bff0002 	bleq	fffc0094 <__bss_end__+0xfffadb74>
  88:	00040000 	andeq	r0, r4, r0
  8c:	00000000 	andeq	r0, r0, r0
  90:	000083b8 			; <UNDEFINED> instruction: 0x000083b8
  94:	00000034 	andeq	r0, r0, r4, lsr r0
	...
  a0:	0000001c 	andeq	r0, r0, ip, lsl r0
  a4:	0cf10002 	ldcleq	0, cr0, [r1], #8
  a8:	00040000 	andeq	r0, r4, r0
  ac:	00000000 	andeq	r0, r0, r0
  b0:	000083ec 	andeq	r8, r0, ip, ror #7
  b4:	000004f8 	strdeq	r0, [r0], -r8
	...
  c0:	0000001c 	andeq	r0, r0, ip, lsl r0
  c4:	13760002 	cmnne	r6, #2
  c8:	00040000 	andeq	r0, r4, r0
  cc:	00000000 	andeq	r0, r0, r0
  d0:	000088e4 	andeq	r8, r0, r4, ror #17
  d4:	00000020 	andeq	r0, r0, r0, lsr #32
	...
  e0:	0000001c 	andeq	r0, r0, ip, lsl r0
  e4:	14320002 	ldrtne	r0, [r2], #-2
  e8:	00040000 	andeq	r0, r4, r0
  ec:	00000000 	andeq	r0, r0, r0
  f0:	00008904 	andeq	r8, r0, r4, lsl #18
  f4:	00000028 	andeq	r0, r0, r8, lsr #32
	...
 100:	0000001c 	andeq	r0, r0, ip, lsl r0
 104:	15350002 	ldrne	r0, [r5, #-2]!
 108:	00040000 	andeq	r0, r4, r0
 10c:	00000000 	andeq	r0, r0, r0
 110:	0000892c 	andeq	r8, r0, ip, lsr #18
 114:	000000b0 	strheq	r0, [r0], -r0	; <UNPREDICTABLE>
	...
 120:	0000001c 	andeq	r0, r0, ip, lsl r0
 124:	18160002 	ldmdane	r6, {r1}
 128:	00040000 	andeq	r0, r4, r0
 12c:	00000000 	andeq	r0, r0, r0
 130:	000089dc 	ldrdeq	r8, [r0], -ip
 134:	00000074 	andeq	r0, r0, r4, ror r0
	...
 140:	0000001c 	andeq	r0, r0, ip, lsl r0
 144:	19c70002 	stmibne	r7, {r1}^
 148:	00040000 	andeq	r0, r4, r0
 14c:	00000000 	andeq	r0, r0, r0
 150:	00008a50 	andeq	r8, r0, r0, asr sl
 154:	00000088 	andeq	r0, r0, r8, lsl #1
	...
 160:	0000001c 	andeq	r0, r0, ip, lsl r0
 164:	1ba30002 	blne	fe8c0174 <__bss_end__+0xfe8adc54>
 168:	00040000 	andeq	r0, r4, r0
 16c:	00000000 	andeq	r0, r0, r0
 170:	00008ad8 	ldrdeq	r8, [r0], -r8	; <UNPREDICTABLE>
 174:	00000568 	andeq	r0, r0, r8, ror #10
	...
 180:	0000001c 	andeq	r0, r0, ip, lsl r0
 184:	23c80002 	biccs	r0, r8, #2
 188:	00040000 	andeq	r0, r4, r0
 18c:	00000000 	andeq	r0, r0, r0
 190:	00009040 	andeq	r9, r0, r0, asr #32
 194:	00000620 	andeq	r0, r0, r0, lsr #12
	...
 1a0:	0000001c 	andeq	r0, r0, ip, lsl r0
 1a4:	35960002 	ldrcc	r0, [r6, #2]
 1a8:	00040000 	andeq	r0, r4, r0
 1ac:	00000000 	andeq	r0, r0, r0
 1b0:	00009660 	andeq	r9, r0, r0, ror #12
 1b4:	00000154 	andeq	r0, r0, r4, asr r1
	...
 1c0:	0000001c 	andeq	r0, r0, ip, lsl r0
 1c4:	39990002 	ldmibcc	r9, {r1}
 1c8:	00040000 	andeq	r0, r4, r0
 1cc:	00000000 	andeq	r0, r0, r0
 1d0:	000097b4 			; <UNDEFINED> instruction: 0x000097b4
 1d4:	00000200 	andeq	r0, r0, r0, lsl #4
	...
 1e0:	0000001c 	andeq	r0, r0, ip, lsl r0
 1e4:	3f2a0002 	svccc	0x002a0002
 1e8:	00040000 	andeq	r0, r4, r0
 1ec:	00000000 	andeq	r0, r0, r0
 1f0:	00009af0 	strdeq	r9, [r0], -r0
 1f4:	00000050 	andeq	r0, r0, r0, asr r0
	...

Disassembly of section .debug_ranges:

00000000 <.debug_ranges>:
   0:	000000f8 	strdeq	r0, [r0], -r8
   4:	00000138 	andeq	r0, r0, r8, lsr r1
   8:	0000013c 	andeq	r0, r0, ip, lsr r1
   c:	00000140 	andeq	r0, r0, r0, asr #2
	...
  18:	00000294 	muleq	r0, r4, r2
  1c:	00000298 	muleq	r0, r8, r2
  20:	000002c8 	andeq	r0, r0, r8, asr #5
  24:	000004b8 			; <UNDEFINED> instruction: 0x000004b8
	...
  30:	000089dc 	ldrdeq	r8, [r0], -ip
  34:	00008a50 	andeq	r8, r0, r0, asr sl
	...

Disassembly of section .debug_line:

00000000 <.debug_line>:
       0:	000002e3 	andeq	r0, r0, r3, ror #5
       4:	024a0002 	subeq	r0, sl, #2
       8:	01020000 	mrseq	r0, (UNDEF: 2)
       c:	000d0efb 	strdeq	r0, [sp], -fp
      10:	01010101 	tsteq	r1, r1, lsl #2
      14:	01000000 	mrseq	r0, (UNDEF: 0)
      18:	2f010000 	svccs	0x00010000
      1c:	72657355 	rsbvc	r7, r5, #1409286145	; 0x54000001
      20:	72622f73 	rsbvc	r2, r2, #460	; 0x1cc
      24:	6a6e6169 	bvs	1b985d0 <__bss_end__+0x1b860b0>
      28:	442f6e75 	strtmi	r6, [pc], #-3701	; 30 <_start-0x7fd0>
      2c:	746b7365 	strbtvc	r7, [fp], #-869	; 0x365
      30:	732f706f 	teqvc	pc, #111	; 0x6f
      34:	6f6f6863 	svcvs	0x006f6863
      38:	69572f6c 	ldmdbvs	r7, {r2, r3, r5, r6, r8, r9, sl, fp, sp}^
      3c:	7265746e 	rsbvc	r7, r5, #1845493760	; 0x6e000000
      40:	30323931 	eorscc	r3, r2, r1, lsr r9
      44:	3153432f 	cmpcc	r3, pc, lsr #6
      48:	2f453034 	svccs	0x00453034
      4c:	34317363 	ldrtcc	r7, [r1], #-867	; 0x363
      50:	322d6530 	eorcc	r6, sp, #48, 10	; 0xc000000
      54:	6e697730 	mcrvs	7, 3, r7, cr9, cr0, {1}
      58:	62696c2f 	rsbvs	r6, r9, #12032	; 0x2f00
      5c:	6c2f6970 	stcvs	9, cr6, [pc], #-448	; fffffea4 <__bss_end__+0xfffed984>
      60:	00636269 	rsbeq	r6, r3, r9, ror #4
      64:	7273752f 	rsbsvc	r7, r3, #197132288	; 0xbc00000
      68:	636f6c2f 	cmnvs	pc, #12032	; 0x2f00
      6c:	432f6c61 	teqmi	pc, #24832	; 0x6100
      70:	616c6c65 	cmnvs	ip, r5, ror #24
      74:	72612f72 	rsbvc	r2, r1, #456	; 0x1c8
      78:	6f6e2d6d 	svcvs	0x006e2d6d
      7c:	652d656e 	strvs	r6, [sp, #-1390]!	; 0x56e
      80:	2f696261 	svccs	0x00696261
      84:	2e382e34 	mrccs	14, 1, r2, cr8, cr4, {1}
      88:	73632d33 	cmnvc	r3, #3264	; 0xcc0
      8c:	65303731 	ldrvs	r3, [r0, #-1841]!	; 0x731
      90:	62696c2f 	rsbvs	r6, r9, #12032	; 0x2f00
      94:	6363672f 	cmnvs	r3, #12320768	; 0xbc0000
      98:	6d72612f 	ldfvse	f6, [r2, #-188]!	; 0xffffff44
      9c:	6e6f6e2d 	cdpvs	14, 6, cr6, cr15, cr13, {1}
      a0:	61652d65 	cmnvs	r5, r5, ror #26
      a4:	342f6962 	strtcc	r6, [pc], #-2402	; ac <_start-0x7f54>
      a8:	332e382e 	teqcc	lr, #3014656	; 0x2e0000
      ac:	636e692f 	cmnvs	lr, #770048	; 0xbc000
      b0:	6564756c 	strbvs	r7, [r4, #-1388]!	; 0x56c
      b4:	73752f00 	cmnvc	r5, #0, 30
      b8:	6f6c2f72 	svcvs	0x006c2f72
      bc:	2f6c6163 	svccs	0x006c6163
      c0:	6c6c6543 	cfstr64vs	mvdx6, [ip], #-268	; 0xfffffef4
      c4:	612f7261 	teqvs	pc, r1, ror #4
      c8:	6e2d6d72 	mcrvs	13, 1, r6, cr13, cr2, {3}
      cc:	2d656e6f 	stclcs	14, cr6, [r5, #-444]!	; 0xfffffe44
      d0:	69626165 	stmdbvs	r2!, {r0, r2, r5, r6, r8, sp, lr}^
      d4:	382e342f 	stmdacc	lr!, {r0, r1, r2, r3, r5, sl, ip, sp}
      d8:	632d332e 	teqvs	sp, #-1207959552	; 0xb8000000
      dc:	30373173 	eorscc	r3, r7, r3, ror r1
      e0:	72612f65 	rsbvc	r2, r1, #404	; 0x194
      e4:	6f6e2d6d 	svcvs	0x006e2d6d
      e8:	652d656e 	strvs	r6, [sp, #-1390]!	; 0x56e
      ec:	2f696261 	svccs	0x00696261
      f0:	6c636e69 	stclvs	14, cr6, [r3], #-420	; 0xfffffe5c
      f4:	00656475 	rsbeq	r6, r5, r5, ror r4
      f8:	6573552f 	ldrbvs	r5, [r3, #-1327]!	; 0x52f
      fc:	622f7372 	eorvs	r7, pc, #-939524095	; 0xc8000001
     100:	6e616972 	mcrvs	9, 3, r6, cr1, cr2, {3}
     104:	2f6e756a 	svccs	0x006e756a
     108:	6b736544 	blvs	1cd9620 <__bss_end__+0x1cc7100>
     10c:	2f706f74 	svccs	0x00706f74
     110:	6f686373 	svcvs	0x00686373
     114:	572f6c6f 	strpl	r6, [pc, -pc, ror #24]!
     118:	65746e69 	ldrbvs	r6, [r4, #-3689]!	; 0xe69
     11c:	32393172 	eorscc	r3, r9, #-2147483620	; 0x8000001c
     120:	53432f30 	movtpl	r2, #16176	; 0x3f30
     124:	45303431 	ldrmi	r3, [r0, #-1073]!	; 0x431
     128:	3173632f 	cmncc	r3, pc, lsr #6
     12c:	2d653034 	stclcs	0, cr3, [r5, #-208]!	; 0xffffff30
     130:	69773032 	ldmdbvs	r7!, {r1, r4, r5, ip, sp}^
     134:	696c2f6e 	stmdbvs	ip!, {r1, r2, r3, r5, r6, r8, r9, sl, fp, sp}^
     138:	00697062 	rsbeq	r7, r9, r2, rrx
     13c:	6573552f 	ldrbvs	r5, [r3, #-1327]!	; 0x52f
     140:	622f7372 	eorvs	r7, pc, #-939524095	; 0xc8000001
     144:	6e616972 	mcrvs	9, 3, r6, cr1, cr2, {3}
     148:	2f6e756a 	svccs	0x006e756a
     14c:	6b736544 	blvs	1cd9664 <__bss_end__+0x1cc7144>
     150:	2f706f74 	svccs	0x00706f74
     154:	6f686373 	svcvs	0x00686373
     158:	572f6c6f 	strpl	r6, [pc, -pc, ror #24]!
     15c:	65746e69 	ldrbvs	r6, [r4, #-3689]!	; 0xe69
     160:	32393172 	eorscc	r3, r9, #-2147483620	; 0x8000001c
     164:	53432f30 	movtpl	r2, #16176	; 0x3f30
     168:	45303431 	ldrmi	r3, [r0, #-1073]!	; 0x431
     16c:	3173632f 	cmncc	r3, pc, lsr #6
     170:	2d653034 	stclcs	0, cr3, [r5, #-208]!	; 0xffffff30
     174:	69773032 	ldmdbvs	r7!, {r1, r4, r5, ip, sp}^
     178:	696c2f6e 	stmdbvs	ip!, {r1, r2, r3, r5, r6, r8, r9, sl, fp, sp}^
     17c:	2f697062 	svccs	0x00697062
     180:	34317363 	ldrtcc	r7, [r1], #-867	; 0x363
     184:	732d6530 	teqvc	sp, #48, 10	; 0xc000000
     188:	2f006372 	svccs	0x00006372
     18c:	72657355 	rsbvc	r7, r5, #1409286145	; 0x54000001
     190:	72622f73 	rsbvc	r2, r2, #460	; 0x1cc
     194:	6a6e6169 	bvs	1b98740 <__bss_end__+0x1b86220>
     198:	442f6e75 	strtmi	r6, [pc], #-3701	; 1a0 <_start-0x7e60>
     19c:	746b7365 	strbtvc	r7, [fp], #-869	; 0x365
     1a0:	732f706f 	teqvc	pc, #111	; 0x6f
     1a4:	6f6f6863 	svcvs	0x006f6863
     1a8:	69572f6c 	ldmdbvs	r7, {r2, r3, r5, r6, r8, r9, sl, fp, sp}^
     1ac:	7265746e 	rsbvc	r7, r5, #1845493760	; 0x6e000000
     1b0:	30323931 	eorscc	r3, r2, r1, lsr r9
     1b4:	3153432f 	cmpcc	r3, pc, lsr #6
     1b8:	2f453034 	svccs	0x00453034
     1bc:	34317363 	ldrtcc	r7, [r1], #-867	; 0x363
     1c0:	322d6530 	eorcc	r6, sp, #48, 10	; 0xc000000
     1c4:	6e697730 	mcrvs	7, 3, r7, cr9, cr0, {1}
     1c8:	62696c2f 	rsbvs	r6, r9, #12032	; 0x2f00
     1cc:	632f6970 	teqvs	pc, #112, 18	; 0x1c0000
     1d0:	30343173 	eorscc	r3, r4, r3, ror r1
     1d4:	6e692d65 	cdpvs	13, 6, cr2, cr9, cr5, {3}
     1d8:	72726574 	rsbsvc	r6, r2, #116, 10	; 0x1d000000
     1dc:	00747075 	rsbseq	r7, r4, r5, ror r0
     1e0:	72696300 	rsbvc	r6, r9, #0, 6
     1e4:	616c7563 	cmnvs	ip, r3, ror #10
     1e8:	00682e72 	rsbeq	r2, r8, r2, ror lr
     1ec:	31000001 	tstcc	r0, r1
     1f0:	6970672d 	ldmdbvs	r0!, {r0, r2, r3, r5, r8, r9, sl, sp, lr}^
     1f4:	6e692d6f 	cdpvs	13, 6, cr2, cr9, cr15, {3}
     1f8:	78652d74 	stmdavc	r5!, {r2, r4, r5, r6, r8, sl, fp, sp}^
     1fc:	0000632e 	andeq	r6, r0, lr, lsr #6
     200:	74730000 	ldrbtvc	r0, [r3], #-0
     204:	66656464 	strbtvs	r6, [r5], -r4, ror #8
     208:	0200682e 	andeq	r6, r0, #3014656	; 0x2e0000
     20c:	74730000 	ldrbtvc	r0, [r3], #-0
     210:	676e6972 			; <UNDEFINED> instruction: 0x676e6972
     214:	0300682e 	movweq	r6, #2094	; 0x82e
     218:	70720000 	rsbsvc	r0, r2, r0
     21c:	00682e69 	rsbeq	r2, r8, r9, ror #28
     220:	67000004 	strvs	r0, [r0, -r4]
     224:	2e6f6970 	mcrcs	9, 3, r6, cr15, cr0, {3}
     228:	00050068 	andeq	r0, r5, r8, rrx
     22c:	69707200 	ldmdbvs	r0!, {r9, ip, sp, lr}^
     230:	746e692d 	strbtvc	r6, [lr], #-2349	; 0x92d
     234:	75727265 	ldrbvc	r7, [r2, #-613]!	; 0x265
     238:	2e737470 	mrccs	4, 3, r7, cr3, cr0, {3}
     23c:	00060068 	andeq	r0, r6, r8, rrx
     240:	69707200 	ldmdbvs	r0!, {r9, ip, sp, lr}^
     244:	6d72612d 	ldfvse	f6, [r2, #-180]!	; 0xffffff4c
     248:	656d6974 	strbvs	r6, [sp, #-2420]!	; 0x974
     24c:	00682e72 	rsbeq	r2, r8, r2, ror lr
     250:	00000006 	andeq	r0, r0, r6
     254:	10020500 	andne	r0, r2, r0, lsl #10
     258:	03000080 	movweq	r0, #128	; 0x80
     25c:	67010198 			; <UNDEFINED> instruction: 0x67010198
     260:	4b9f6767 	blmi	fe7da004 <__bss_end__+0xfe7c7ae4>
     264:	ba7f9b03 	blt	1fe6e78 <__bss_end__+0x1fd4958>
     268:	4a00e603 	bmi	39a7c <__bss_end__+0x2755c>
     26c:	01040200 	mrseq	r0, R12_usr
     270:	03064a06 	movweq	r4, #27142	; 0x6a06
     274:	03d67f9d 	bicseq	r7, r6, #628	; 0x274
     278:	00ba00e4 	adcseq	r0, sl, r4, ror #1
     27c:	06010402 	streq	r0, [r1], -r2, lsl #8
     280:	9e03064a 	cfmadd32ls	mvax2, mvfx0, mvfx3, mvfx10
     284:	e303d67f 	movw	sp, #13951	; 0x367f
     288:	02009e00 	andeq	r9, r0, #0, 28
     28c:	4a060104 	bmi	1806a4 <__bss_end__+0x16e184>
     290:	7f980306 	svcvc	0x00980306
     294:	820a03d6 	andhi	r0, sl, #1476395011	; 0x58000003
     298:	834b4b4c 	movthi	r4, #47948	; 0xbb4c
     29c:	4a00da03 	bmi	36ab0 <__bss_end__+0x24590>
     2a0:	2e7fa203 	cdpcs	2, 7, cr10, cr15, cr3, {0}
     2a4:	2e00df03 	cdpcs	15, 0, cr13, cr0, cr3, {0}
     2a8:	01040200 	mrseq	r0, R12_usr
     2ac:	00664a06 	rsbeq	r4, r6, r6, lsl #20
     2b0:	66040402 	strvs	r0, [r4], -r2, lsl #8
     2b4:	01040200 	mrseq	r0, R12_usr
     2b8:	0602044a 	streq	r0, [r2], -sl, asr #8
     2bc:	027f8003 	rsbseq	r8, pc, #3
     2c0:	302f0126 	eorcc	r0, pc, r6, lsr #2
     2c4:	4e688483 	cdpmi	4, 6, cr8, cr8, cr3, {4}
     2c8:	4d688483 	cfstrdmi	mvd8, [r8, #-524]!	; 0xfffffdf4
     2cc:	4b4b2f4d 	blmi	12cc008 <__bss_end__+0x12b9ae8>
     2d0:	4b4b4c4b 	blmi	12d3404 <__bss_end__+0x12c0ee4>
     2d4:	86674c4b 	strbthi	r4, [r7], -fp, asr #24
     2d8:	3030302f 	eorscc	r3, r0, pc, lsr #32
     2dc:	67676730 			; <UNDEFINED> instruction: 0x67676730
     2e0:	0e024c68 	cdpeq	12, 0, cr4, cr2, cr8, {3}
     2e4:	ec010100 	stfs	f0, [r1], {-0}
     2e8:	02000000 	andeq	r0, r0, #0
     2ec:	0000d000 	andeq	sp, r0, r0
     2f0:	fb010200 	blx	40afa <__bss_end__+0x2e5da>
     2f4:	01000d0e 	tsteq	r0, lr, lsl #26
     2f8:	00010101 	andeq	r0, r1, r1, lsl #2
     2fc:	00010000 	andeq	r0, r1, r0
     300:	696c0100 	stmdbvs	ip!, {r8}^
     304:	2f006362 	svccs	0x00006362
     308:	2f727375 	svccs	0x00727375
     30c:	61636f6c 	cmnvs	r3, ip, ror #30
     310:	65432f6c 	strbvs	r2, [r3, #-3948]	; 0xf6c
     314:	72616c6c 	rsbvc	r6, r1, #108, 24	; 0x6c00
     318:	6d72612f 	ldfvse	f6, [r2, #-188]!	; 0xffffff44
     31c:	6e6f6e2d 	cdpvs	14, 6, cr6, cr15, cr13, {1}
     320:	61652d65 	cmnvs	r5, r5, ror #26
     324:	342f6962 	strtcc	r6, [pc], #-2402	; 32c <_start-0x7cd4>
     328:	332e382e 	teqcc	lr, #3014656	; 0x2e0000
     32c:	3173632d 	cmncc	r3, sp, lsr #6
     330:	2f653037 	svccs	0x00653037
     334:	2f62696c 	svccs	0x0062696c
     338:	2f636367 	svccs	0x00636367
     33c:	2d6d7261 	sfmcs	f7, 2, [sp, #-388]!	; 0xfffffe7c
     340:	656e6f6e 	strbvs	r6, [lr, #-3950]!	; 0xf6e
     344:	6261652d 	rsbvs	r6, r1, #188743680	; 0xb400000
     348:	2e342f69 	cdpcs	15, 3, cr2, cr4, cr9, {3}
     34c:	2f332e38 	svccs	0x00332e38
     350:	6c636e69 	stclvs	14, cr6, [r3], #-420	; 0xfffffe5c
     354:	00656475 	rsbeq	r6, r5, r5, ror r4
     358:	7273752f 	rsbsvc	r7, r3, #197132288	; 0xbc00000
     35c:	636f6c2f 	cmnvs	pc, #12032	; 0x2f00
     360:	432f6c61 	teqmi	pc, #24832	; 0x6100
     364:	616c6c65 	cmnvs	ip, r5, ror #24
     368:	72612f72 	rsbvc	r2, r1, #456	; 0x1c8
     36c:	6f6e2d6d 	svcvs	0x006e2d6d
     370:	652d656e 	strvs	r6, [sp, #-1390]!	; 0x56e
     374:	2f696261 	svccs	0x00696261
     378:	2e382e34 	mrccs	14, 1, r2, cr8, cr4, {1}
     37c:	73632d33 	cmnvc	r3, #3264	; 0xcc0
     380:	65303731 	ldrvs	r3, [r0, #-1841]!	; 0x731
     384:	6d72612f 	ldfvse	f6, [r2, #-188]!	; 0xffffff44
     388:	6e6f6e2d 	cdpvs	14, 6, cr6, cr15, cr13, {1}
     38c:	61652d65 	cmnvs	r5, r5, ror #26
     390:	692f6962 	stmdbvs	pc!, {r1, r5, r6, r8, fp, sp, lr}	; <UNPREDICTABLE>
     394:	756c636e 	strbvc	r6, [ip, #-878]!	; 0x36e
     398:	00006564 	andeq	r6, r0, r4, ror #10
     39c:	736d656d 	cmnvc	sp, #457179136	; 0x1b400000
     3a0:	632e7465 	teqvs	lr, #1694498816	; 0x65000000
     3a4:	00000100 	andeq	r0, r0, r0, lsl #2
     3a8:	64647473 	strbtvs	r7, [r4], #-1139	; 0x473
     3ac:	682e6665 	stmdavs	lr!, {r0, r2, r5, r6, r9, sl, sp, lr}
     3b0:	00000200 	andeq	r0, r0, r0, lsl #4
     3b4:	69727473 	ldmdbvs	r2!, {r0, r1, r4, r5, r6, sl, ip, sp, lr}^
     3b8:	682e676e 	stmdavs	lr!, {r1, r2, r3, r5, r6, r8, r9, sl, sp, lr}
     3bc:	00000300 	andeq	r0, r0, r0, lsl #6
     3c0:	02050000 	andeq	r0, r5, #0
     3c4:	00008304 	andeq	r8, r0, r4, lsl #6
     3c8:	2f4c1314 	svccs	0x004c1314
     3cc:	01040200 	mrseq	r0, R12_usr
     3d0:	02024d49 	andeq	r4, r2, #4672	; 0x1240
     3d4:	02010100 	andeq	r0, r1, #0, 2
     3d8:	02000001 	andeq	r0, r0, #1
     3dc:	0000eb00 	andeq	lr, r0, r0, lsl #22
     3e0:	fb010200 	blx	40bea <__bss_end__+0x2e6ca>
     3e4:	01000d0e 	tsteq	r0, lr, lsl #26
     3e8:	00010101 	andeq	r0, r1, r1, lsl #2
     3ec:	00010000 	andeq	r0, r1, r0
     3f0:	696c0100 	stmdbvs	ip!, {r8}^
     3f4:	2f006362 	svccs	0x00006362
     3f8:	2f727375 	svccs	0x00727375
     3fc:	61636f6c 	cmnvs	r3, ip, ror #30
     400:	65432f6c 	strbvs	r2, [r3, #-3948]	; 0xf6c
     404:	72616c6c 	rsbvc	r6, r1, #108, 24	; 0x6c00
     408:	6d72612f 	ldfvse	f6, [r2, #-188]!	; 0xffffff44
     40c:	6e6f6e2d 	cdpvs	14, 6, cr6, cr15, cr13, {1}
     410:	61652d65 	cmnvs	r5, r5, ror #26
     414:	342f6962 	strtcc	r6, [pc], #-2402	; 41c <_start-0x7be4>
     418:	332e382e 	teqcc	lr, #3014656	; 0x2e0000
     41c:	3173632d 	cmncc	r3, sp, lsr #6
     420:	2f653037 	svccs	0x00653037
     424:	2f62696c 	svccs	0x0062696c
     428:	2f636367 	svccs	0x00636367
     42c:	2d6d7261 	sfmcs	f7, 2, [sp, #-388]!	; 0xfffffe7c
     430:	656e6f6e 	strbvs	r6, [lr, #-3950]!	; 0xf6e
     434:	6261652d 	rsbvs	r6, r1, #188743680	; 0xb400000
     438:	2e342f69 	cdpcs	15, 3, cr2, cr4, cr9, {3}
     43c:	2f332e38 	svccs	0x00332e38
     440:	6c636e69 	stclvs	14, cr6, [r3], #-420	; 0xfffffe5c
     444:	00656475 	rsbeq	r6, r5, r5, ror r4
     448:	6573552f 	ldrbvs	r5, [r3, #-1327]!	; 0x52f
     44c:	622f7372 	eorvs	r7, pc, #-939524095	; 0xc8000001
     450:	6e616972 	mcrvs	9, 3, r6, cr1, cr2, {3}
     454:	2f6e756a 	svccs	0x006e756a
     458:	6b736544 	blvs	1cd9970 <__bss_end__+0x1cc7450>
     45c:	2f706f74 	svccs	0x00706f74
     460:	6f686373 	svcvs	0x00686373
     464:	572f6c6f 	strpl	r6, [pc, -pc, ror #24]!
     468:	65746e69 	ldrbvs	r6, [r4, #-3689]!	; 0xe69
     46c:	32393172 	eorscc	r3, r9, #-2147483620	; 0x8000001c
     470:	53432f30 	movtpl	r2, #16176	; 0x3f30
     474:	45303431 	ldrmi	r3, [r0, #-1073]!	; 0x431
     478:	3173632f 	cmncc	r3, pc, lsr #6
     47c:	2d653034 	stclcs	0, cr3, [r5, #-208]!	; 0xffffff30
     480:	69773032 	ldmdbvs	r7!, {r1, r4, r5, ip, sp}^
     484:	696c2f6e 	stmdbvs	ip!, {r1, r2, r3, r5, r6, r8, r9, sl, fp, sp}^
     488:	00697062 	rsbeq	r7, r9, r2, rrx
     48c:	69727000 	ldmdbvs	r2!, {ip, sp, lr}^
     490:	2e6b746e 	cdpcs	4, 6, cr7, cr11, cr14, {3}
     494:	00010063 	andeq	r0, r1, r3, rrx
     498:	64747300 	ldrbtvs	r7, [r4], #-768	; 0x300
     49c:	2e677261 	cdpcs	2, 6, cr7, cr7, cr1, {3}
     4a0:	00020068 	andeq	r0, r2, r8, rrx
     4a4:	75623c00 	strbvc	r3, [r2, #-3072]!	; 0xc00
     4a8:	2d746c69 	ldclcs	12, cr6, [r4, #-420]!	; 0xfffffe5c
     4ac:	003e6e69 	eorseq	r6, lr, r9, ror #28
     4b0:	72000000 	andvc	r0, r0, #0
     4b4:	682e6970 	stmdavs	lr!, {r4, r5, r6, r8, fp, sp, lr}
     4b8:	00000300 	andeq	r0, r0, r0, lsl #6
     4bc:	702d6176 	eorvc	r6, sp, r6, ror r1
     4c0:	746e6972 	strbtvc	r6, [lr], #-2418	; 0x972
     4c4:	00682e6b 	rsbeq	r2, r8, fp, ror #28
     4c8:	00000001 	andeq	r0, r0, r1
     4cc:	24020500 	strcs	r0, [r2], #-1280	; 0x500
     4d0:	17000083 	strne	r0, [r0, -r3, lsl #1]
     4d4:	89bf4b6b 	ldmibhi	pc!, {r0, r1, r3, r5, r6, r8, r9, fp, lr}	; <UNPREDICTABLE>
     4d8:	01000e02 	tsteq	r0, r2, lsl #28
     4dc:	00008a01 	andeq	r8, r0, r1, lsl #20
     4e0:	72000200 	andvc	r0, r0, #0, 4
     4e4:	02000000 	andeq	r0, r0, #0
     4e8:	0d0efb01 	vstreq	d15, [lr, #-4]
     4ec:	01010100 	mrseq	r0, (UNDEF: 17)
     4f0:	00000001 	andeq	r0, r0, r1
     4f4:	01000001 	tsteq	r0, r1
     4f8:	6362696c 	cmnvs	r2, #108, 18	; 0x1b0000
     4fc:	73552f00 	cmpvc	r5, #0, 30
     500:	2f737265 	svccs	0x00737265
     504:	61697262 	cmnvs	r9, r2, ror #4
     508:	6e756a6e 	vsubvs.f32	s13, s10, s29
     50c:	7365442f 	cmnvc	r5, #788529152	; 0x2f000000
     510:	706f746b 	rsbvc	r7, pc, fp, ror #8
     514:	6863732f 	stmdavs	r3!, {r0, r1, r2, r3, r5, r8, r9, ip, sp, lr}^
     518:	2f6c6f6f 	svccs	0x006c6f6f
     51c:	746e6957 	strbtvc	r6, [lr], #-2391	; 0x957
     520:	39317265 	ldmdbcc	r1!, {r0, r2, r5, r6, r9, ip, sp, lr}
     524:	432f3032 	teqmi	pc, #50	; 0x32
     528:	30343153 	eorscc	r3, r4, r3, asr r1
     52c:	73632f45 	cmnvc	r3, #276	; 0x114
     530:	65303431 	ldrvs	r3, [r0, #-1073]!	; 0x431
     534:	7730322d 	ldrvc	r3, [r0, -sp, lsr #4]!
     538:	6c2f6e69 	stcvs	14, cr6, [pc], #-420	; 39c <_start-0x7c64>
     53c:	69706269 	ldmdbvs	r0!, {r0, r3, r5, r6, r9, sp, lr}^
     540:	75700000 	ldrbvc	r0, [r0, #-0]!
     544:	61686374 	smcvs	34356	; 0x8634
     548:	00632e72 	rsbeq	r2, r3, r2, ror lr
     54c:	72000001 	andvc	r0, r0, #1
     550:	682e6970 	stmdavs	lr!, {r4, r5, r6, r8, fp, sp, lr}
     554:	00000200 	andeq	r0, r0, r0, lsl #4
     558:	02050000 	andeq	r0, r5, #0
     55c:	0000837c 	andeq	r8, r0, ip, ror r3
     560:	136b4a14 	cmnne	fp, #20, 20	; 0x14000
     564:	080213bc 	stmdaeq	r2, {r2, r3, r4, r5, r7, r8, r9, ip}
     568:	96010100 	strls	r0, [r1], -r0, lsl #2
     56c:	02000000 	andeq	r0, r0, #0
     570:	00006f00 	andeq	r6, r0, r0, lsl #30
     574:	fb010200 	blx	40d7e <__bss_end__+0x2e85e>
     578:	01000d0e 	tsteq	r0, lr, lsl #26
     57c:	00010101 	andeq	r0, r1, r1, lsl #2
     580:	00010000 	andeq	r0, r1, r0
     584:	696c0100 	stmdbvs	ip!, {r8}^
     588:	2f006362 	svccs	0x00006362
     58c:	72657355 	rsbvc	r7, r5, #1409286145	; 0x54000001
     590:	72622f73 	rsbvc	r2, r2, #460	; 0x1cc
     594:	6a6e6169 	bvs	1b98b40 <__bss_end__+0x1b86620>
     598:	442f6e75 	strtmi	r6, [pc], #-3701	; 5a0 <_start-0x7a60>
     59c:	746b7365 	strbtvc	r7, [fp], #-869	; 0x365
     5a0:	732f706f 	teqvc	pc, #111	; 0x6f
     5a4:	6f6f6863 	svcvs	0x006f6863
     5a8:	69572f6c 	ldmdbvs	r7, {r2, r3, r5, r6, r8, r9, sl, fp, sp}^
     5ac:	7265746e 	rsbvc	r7, r5, #1845493760	; 0x6e000000
     5b0:	30323931 	eorscc	r3, r2, r1, lsr r9
     5b4:	3153432f 	cmpcc	r3, pc, lsr #6
     5b8:	2f453034 	svccs	0x00453034
     5bc:	34317363 	ldrtcc	r7, [r1], #-867	; 0x363
     5c0:	322d6530 	eorcc	r6, sp, #48, 10	; 0xc000000
     5c4:	6e697730 	mcrvs	7, 3, r7, cr9, cr0, {1}
     5c8:	62696c2f 	rsbvs	r6, r9, #12032	; 0x2f00
     5cc:	00006970 	andeq	r6, r0, r0, ror r9
     5d0:	6b747570 	blvs	1d1db98 <__bss_end__+0x1d0b678>
     5d4:	0100632e 	tsteq	r0, lr, lsr #6
     5d8:	70720000 	rsbsvc	r0, r2, r0
     5dc:	00682e69 	rsbeq	r2, r8, r9, ror #28
     5e0:	00000002 	andeq	r0, r0, r2
     5e4:	b8020500 	stmdalt	r2, {r8, sl}
     5e8:	15000083 	strne	r0, [r0, #-131]	; 0x83
     5ec:	02002d4c 	andeq	r2, r0, #76, 26	; 0x1300
     5f0:	002f0204 	eoreq	r0, pc, r4, lsl #4
     5f4:	49020402 	stmdbmi	r2, {r1, sl}
     5f8:	01040200 	mrseq	r0, R12_usr
     5fc:	6b062e06 	blvs	18be1c <__bss_end__+0x1798fc>
     600:	01000602 	tsteq	r0, r2, lsl #12
     604:	0001de01 	andeq	sp, r1, r1, lsl #28
     608:	df000200 	svcle	0x00000200
     60c:	02000000 	andeq	r0, r0, #0
     610:	0d0efb01 	vstreq	d15, [lr, #-4]
     614:	01010100 	mrseq	r0, (UNDEF: 17)
     618:	00000001 	andeq	r0, r0, r1
     61c:	01000001 	tsteq	r0, r1
     620:	6362696c 	cmnvs	r2, #108, 18	; 0x1b0000
     624:	73752f00 	cmnvc	r5, #0, 30
     628:	6f6c2f72 	svcvs	0x006c2f72
     62c:	2f6c6163 	svccs	0x006c6163
     630:	6c6c6543 	cfstr64vs	mvdx6, [ip], #-268	; 0xfffffef4
     634:	612f7261 	teqvs	pc, r1, ror #4
     638:	6e2d6d72 	mcrvs	13, 1, r6, cr13, cr2, {3}
     63c:	2d656e6f 	stclcs	14, cr6, [r5, #-444]!	; 0xfffffe44
     640:	69626165 	stmdbvs	r2!, {r0, r2, r5, r6, r8, sp, lr}^
     644:	382e342f 	stmdacc	lr!, {r0, r1, r2, r3, r5, sl, ip, sp}
     648:	632d332e 	teqvs	sp, #-1207959552	; 0xb8000000
     64c:	30373173 	eorscc	r3, r7, r3, ror r1
     650:	696c2f65 	stmdbvs	ip!, {r0, r2, r5, r6, r8, r9, sl, fp, sp}^
     654:	63672f62 	cmnvs	r7, #392	; 0x188
     658:	72612f63 	rsbvc	r2, r1, #396	; 0x18c
     65c:	6f6e2d6d 	svcvs	0x006e2d6d
     660:	652d656e 	strvs	r6, [sp, #-1390]!	; 0x56e
     664:	2f696261 	svccs	0x00696261
     668:	2e382e34 	mrccs	14, 1, r2, cr8, cr4, {1}
     66c:	6e692f33 	mcrvs	15, 3, r2, cr9, cr3, {1}
     670:	64756c63 	ldrbtvs	r6, [r5], #-3171	; 0xc63
     674:	552f0065 	strpl	r0, [pc, #-101]!	; 617 <_start-0x79e9>
     678:	73726573 	cmnvc	r2, #482344960	; 0x1cc00000
     67c:	6972622f 	ldmdbvs	r2!, {r0, r1, r2, r3, r5, r9, sp, lr}^
     680:	756a6e61 	strbvc	r6, [sl, #-3681]!	; 0xe61
     684:	65442f6e 	strbvs	r2, [r4, #-3950]	; 0xf6e
     688:	6f746b73 	svcvs	0x00746b73
     68c:	63732f70 	cmnvs	r3, #112, 30	; 0x1c0
     690:	6c6f6f68 	stclvs	15, cr6, [pc], #-416	; 4f8 <_start-0x7b08>
     694:	6e69572f 	cdpvs	7, 6, cr5, cr9, cr15, {1}
     698:	31726574 	cmncc	r2, r4, ror r5
     69c:	2f303239 	svccs	0x00303239
     6a0:	34315343 	ldrtcc	r5, [r1], #-835	; 0x343
     6a4:	632f4530 	teqvs	pc, #48, 10	; 0xc000000
     6a8:	30343173 	eorscc	r3, r4, r3, ror r1
     6ac:	30322d65 	eorscc	r2, r2, r5, ror #26
     6b0:	2f6e6977 	svccs	0x006e6977
     6b4:	7062696c 	rsbvc	r6, r2, ip, ror #18
     6b8:	76000069 	strvc	r0, [r0], -r9, rrx
     6bc:	72702d61 	rsbsvc	r2, r0, #6208	; 0x1840
     6c0:	6b746e69 	blvs	1d1c06c <__bss_end__+0x1d09b4c>
     6c4:	0100632e 	tsteq	r0, lr, lsr #6
     6c8:	74730000 	ldrbtvc	r0, [r3], #-0
     6cc:	67726164 	ldrbvs	r6, [r2, -r4, ror #2]!
     6d0:	0200682e 	andeq	r6, r0, #3014656	; 0x2e0000
     6d4:	70720000 	rsbsvc	r0, r2, r0
     6d8:	00682e69 	rsbeq	r2, r8, r9, ror #28
     6dc:	3c000003 	stccc	0, cr0, [r0], {3}
     6e0:	6c697562 	cfstr64vs	mvdx7, [r9], #-392	; 0xfffffe78
     6e4:	6e692d74 	mcrvs	13, 3, r2, cr9, cr4, {3}
     6e8:	0000003e 	andeq	r0, r0, lr, lsr r0
     6ec:	05000000 	streq	r0, [r0, #-0]
     6f0:	0083ec02 	addeq	lr, r3, r2, lsl #24
     6f4:	01260300 	teqeq	r6, r0, lsl #6
     6f8:	3113a501 	tstcc	r3, r1, lsl #10
     6fc:	0402002d 	streq	r0, [r2], #-45	; 0x2d
     700:	02002f02 	andeq	r2, r0, #2, 30
     704:	002d0204 	eoreq	r0, sp, r4, lsl #4
     708:	2f020402 	svccs	0x00020402
     70c:	01040200 	mrseq	r0, R12_usr
     710:	304c4c2d 	subcc	r4, ip, sp, lsr #24
     714:	4f2f4b14 	svcmi	0x002f4b14
     718:	02040200 	andeq	r0, r4, #0, 4
     71c:	04020067 	streq	r0, [r2], #-103	; 0x67
     720:	4d4c6501 	cfstr64mi	mvdx6, [ip, #-4]
     724:	312fa030 	teqcc	pc, r0, lsr r0	; <UNPREDICTABLE>
     728:	16260230 			; <UNDEFINED> instruction: 0x16260230
     72c:	002c2d84 	eoreq	r2, ip, r4, lsl #27
     730:	30010402 	andcc	r0, r1, r2, lsl #8
     734:	01040200 	mrseq	r0, R12_usr
     738:	00660633 	rsbeq	r0, r6, r3, lsr r6
     73c:	2e010402 	cdpcs	4, 0, cr0, cr1, cr2, {0}
     740:	01040200 	mrseq	r0, R12_usr
     744:	67210806 	strvs	r0, [r1, -r6, lsl #16]!
     748:	8273032f 	rsbshi	r0, r3, #-1140850688	; 0xbc000000
     74c:	002e1303 	eoreq	r1, lr, r3, lsl #6
     750:	06010402 	streq	r0, [r1], -r2, lsl #8
     754:	0402002e 	streq	r0, [r2], #-46	; 0x2e
     758:	6a9f0601 	bvs	fe7c1f64 <__bss_end__+0xfe7afa44>
     75c:	2e67034b 	cdpcs	3, 6, cr0, cr7, cr11, {2}
     760:	002e2103 	eoreq	r2, lr, r3, lsl #2
     764:	06010402 	streq	r0, [r1], -r2, lsl #8
     768:	0402002e 	streq	r0, [r2], #-46	; 0x2e
     76c:	009f0601 	addseq	r0, pc, r1, lsl #12
     770:	6a010402 	bvs	41780 <__bss_end__+0x2f260>
     774:	a603f3d9 			; <UNDEFINED> instruction: 0xa603f3d9
     778:	2f20087f 	svccs	0x0020087f
     77c:	01040200 	mrseq	r0, R12_usr
     780:	d7064a06 	strle	r4, [r6, -r6, lsl #20]
     784:	da032f4b 	ble	cc4b8 <__bss_end__+0xb9f98>
     788:	4c83f200 	sfmmi	f7, 1, [r3], {0}
     78c:	2e0e0348 	cdpcs	3, 0, cr0, cr14, cr8, {2}
     790:	2f2e7503 	svccs	0x002e7503
     794:	2f4b842f 	svccs	0x004b842f
     798:	30314d2d 	eorscc	r4, r1, sp, lsr #26
     79c:	0200832f 	andeq	r8, r0, #-1140850688	; 0xbc000000
     7a0:	a22c0104 	eorge	r0, ip, #4, 2
     7a4:	01040200 	mrseq	r0, R12_usr
     7a8:	d8064a06 	stmdale	r6, {r1, r2, r9, fp, lr}
     7ac:	03163602 	tsteq	r6, #2097152	; 0x200000
     7b0:	2108d60e 	tstcs	r8, lr, lsl #12
     7b4:	f331f330 	vcge.u<illegal width 64>	d15, d1, d16
     7b8:	4b30f330 	blmi	c3d480 <__bss_end__+0xc2af60>
     7bc:	0830f330 	ldmdaeq	r0!, {r4, r5, r8, r9, ip, sp, lr, pc}
     7c0:	002f3123 	eoreq	r3, pc, r3, lsr #2
     7c4:	65010402 	strvs	r0, [r1, #-1026]	; 0x402
     7c8:	02040200 	andeq	r0, r4, #0, 4
     7cc:	02004a06 	andeq	r4, r0, #24576	; 0x6000
     7d0:	03060104 	movweq	r0, #24836	; 0x6104
     7d4:	02006642 	andeq	r6, r0, #69206016	; 0x4200000
     7d8:	66060204 	strvs	r0, [r6], -r4, lsl #4
     7dc:	00c20306 	sbceq	r0, r2, r6, lsl #6
     7e0:	1002684a 	andne	r6, r2, sl, asr #16
     7e4:	43010100 	movwmi	r0, #4352	; 0x1100
     7e8:	02000000 	andeq	r0, r0, #0
     7ec:	00002900 	andeq	r2, r0, r0, lsl #18
     7f0:	fb010200 	blx	40ffa <__bss_end__+0x2eada>
     7f4:	01000d0e 	tsteq	r0, lr, lsl #26
     7f8:	00010101 	andeq	r0, r1, r1, lsl #2
     7fc:	00010000 	andeq	r0, r1, r0
     800:	73630100 	cmnvc	r3, #0, 2
     804:	65303431 	ldrvs	r3, [r0, #-1073]!	; 0x431
     808:	6372732d 	cmnvs	r2, #-1275068416	; 0xb4000000
     80c:	61630000 	cmnvs	r3, r0
     810:	2e656863 	cdpcs	8, 6, cr6, cr5, cr3, {3}
     814:	00010063 	andeq	r0, r1, r3, rrx
     818:	05000000 	streq	r0, [r0, #-0]
     81c:	0088e402 	addeq	lr, r8, r2, lsl #8
     820:	30141400 	andscc	r1, r4, r0, lsl #8
     824:	31144e2f 	tstcc	r4, pc, lsr #28
     828:	0004022f 	andeq	r0, r4, pc, lsr #4
     82c:	00930101 	addseq	r0, r3, r1, lsl #2
     830:	00020000 	andeq	r0, r2, r0
     834:	0000007d 	andeq	r0, r0, sp, ror r0
     838:	0efb0102 	cdpeq	1, 15, cr0, cr11, cr2, {0}
     83c:	0101000d 	tsteq	r1, sp
     840:	00000101 	andeq	r0, r0, r1, lsl #2
     844:	00000100 	andeq	r0, r0, r0, lsl #2
     848:	31736301 	cmncc	r3, r1, lsl #6
     84c:	2d653034 	stclcs	0, cr3, [r5, #-208]!	; 0xffffff30
     850:	00637273 	rsbeq	r7, r3, r3, ror r2
     854:	6573552f 	ldrbvs	r5, [r3, #-1327]!	; 0x52f
     858:	622f7372 	eorvs	r7, pc, #-939524095	; 0xc8000001
     85c:	6e616972 	mcrvs	9, 3, r6, cr1, cr2, {3}
     860:	2f6e756a 	svccs	0x006e756a
     864:	6b736544 	blvs	1cd9d7c <__bss_end__+0x1cc785c>
     868:	2f706f74 	svccs	0x00706f74
     86c:	6f686373 	svcvs	0x00686373
     870:	572f6c6f 	strpl	r6, [pc, -pc, ror #24]!
     874:	65746e69 	ldrbvs	r6, [r4, #-3689]!	; 0xe69
     878:	32393172 	eorscc	r3, r9, #-2147483620	; 0x8000001c
     87c:	53432f30 	movtpl	r2, #16176	; 0x3f30
     880:	45303431 	ldrmi	r3, [r0, #-1073]!	; 0x431
     884:	3173632f 	cmncc	r3, pc, lsr #6
     888:	2d653034 	stclcs	0, cr3, [r5, #-208]!	; 0xffffff30
     88c:	69773032 	ldmdbvs	r7!, {r1, r4, r5, ip, sp}^
     890:	696c2f6e 	stmdbvs	ip!, {r1, r2, r3, r5, r6, r8, r9, sl, fp, sp}^
     894:	00697062 	rsbeq	r7, r9, r2, rrx
     898:	656c6300 	strbvs	r6, [ip, #-768]!	; 0x300
     89c:	722d6e61 	eorvc	r6, sp, #1552	; 0x610
     8a0:	6f6f6265 	svcvs	0x006f6265
     8a4:	00632e74 	rsbeq	r2, r3, r4, ror lr
     8a8:	72000001 	andvc	r0, r0, #1
     8ac:	682e6970 	stmdavs	lr!, {r4, r5, r6, r8, fp, sp, lr}
     8b0:	00000200 	andeq	r0, r0, r0, lsl #4
     8b4:	02050000 	andeq	r0, r5, #0
     8b8:	00008904 	andeq	r8, r0, r4, lsl #18
     8bc:	4b832f15 	blmi	fe0cc518 <__bss_end__+0xfe0b9ff8>
     8c0:	01000602 	tsteq	r0, r2, lsl #12
     8c4:	00012101 	andeq	r2, r1, r1, lsl #2
     8c8:	f8000200 			; <UNDEFINED> instruction: 0xf8000200
     8cc:	02000000 	andeq	r0, r0, #0
     8d0:	0d0efb01 	vstreq	d15, [lr, #-4]
     8d4:	01010100 	mrseq	r0, (UNDEF: 17)
     8d8:	00000001 	andeq	r0, r0, r1
     8dc:	01000001 	tsteq	r0, r1
     8e0:	34317363 	ldrtcc	r7, [r1], #-867	; 0x363
     8e4:	732d6530 	teqvc	sp, #48, 10	; 0xc000000
     8e8:	2f006372 	svccs	0x00006372
     8ec:	2f727375 	svccs	0x00727375
     8f0:	61636f6c 	cmnvs	r3, ip, ror #30
     8f4:	65432f6c 	strbvs	r2, [r3, #-3948]	; 0xf6c
     8f8:	72616c6c 	rsbvc	r6, r1, #108, 24	; 0x6c00
     8fc:	6d72612f 	ldfvse	f6, [r2, #-188]!	; 0xffffff44
     900:	6e6f6e2d 	cdpvs	14, 6, cr6, cr15, cr13, {1}
     904:	61652d65 	cmnvs	r5, r5, ror #26
     908:	342f6962 	strtcc	r6, [pc], #-2402	; 910 <_start-0x76f0>
     90c:	332e382e 	teqcc	lr, #3014656	; 0x2e0000
     910:	3173632d 	cmncc	r3, sp, lsr #6
     914:	2f653037 	svccs	0x00653037
     918:	2f62696c 	svccs	0x0062696c
     91c:	2f636367 	svccs	0x00636367
     920:	2d6d7261 	sfmcs	f7, 2, [sp, #-388]!	; 0xfffffe7c
     924:	656e6f6e 	strbvs	r6, [lr, #-3950]!	; 0xf6e
     928:	6261652d 	rsbvs	r6, r1, #188743680	; 0xb400000
     92c:	2e342f69 	cdpcs	15, 3, cr2, cr4, cr9, {3}
     930:	2f332e38 	svccs	0x00332e38
     934:	6c636e69 	stclvs	14, cr6, [r3], #-420	; 0xfffffe5c
     938:	00656475 	rsbeq	r6, r5, r5, ror r4
     93c:	6573552f 	ldrbvs	r5, [r3, #-1327]!	; 0x52f
     940:	622f7372 	eorvs	r7, pc, #-939524095	; 0xc8000001
     944:	6e616972 	mcrvs	9, 3, r6, cr1, cr2, {3}
     948:	2f6e756a 	svccs	0x006e756a
     94c:	6b736544 	blvs	1cd9e64 <__bss_end__+0x1cc7944>
     950:	2f706f74 	svccs	0x00706f74
     954:	6f686373 	svcvs	0x00686373
     958:	572f6c6f 	strpl	r6, [pc, -pc, ror #24]!
     95c:	65746e69 	ldrbvs	r6, [r4, #-3689]!	; 0xe69
     960:	32393172 	eorscc	r3, r9, #-2147483620	; 0x8000001c
     964:	53432f30 	movtpl	r2, #16176	; 0x3f30
     968:	45303431 	ldrmi	r3, [r0, #-1073]!	; 0x431
     96c:	3173632f 	cmncc	r3, pc, lsr #6
     970:	2d653034 	stclcs	0, cr3, [r5, #-208]!	; 0xffffff30
     974:	69773032 	ldmdbvs	r7!, {r1, r4, r5, ip, sp}^
     978:	696c2f6e 	stmdbvs	ip!, {r1, r2, r3, r5, r6, r8, r9, sl, fp, sp}^
     97c:	00697062 	rsbeq	r7, r9, r2, rrx
     980:	74736300 	ldrbtvc	r6, [r3], #-768	; 0x300
     984:	2e747261 	cdpcs	2, 7, cr7, cr4, cr1, {3}
     988:	00010063 	andeq	r0, r1, r3, rrx
     98c:	64747300 	ldrbtvs	r7, [r4], #-768	; 0x300
     990:	2d746e69 	ldclcs	14, cr6, [r4, #-420]!	; 0xfffffe5c
     994:	2e636367 	cdpcs	3, 6, cr6, cr3, cr7, {3}
     998:	00020068 	andeq	r0, r2, r8, rrx
     99c:	2d777300 	ldclcs	3, cr7, [r7, #-0]
     9a0:	74726175 	ldrbtvc	r6, [r2], #-373	; 0x175
     9a4:	0100682e 	tsteq	r0, lr, lsr #16
     9a8:	6f630000 	svcvs	0x00630000
     9ac:	6f72746e 	svcvs	0x0072746e
     9b0:	6c622d6c 	stclvs	13, cr2, [r2], #-432	; 0xfffffe50
     9b4:	2e6b636f 	cdpcs	3, 6, cr6, cr11, cr15, {3}
     9b8:	00010068 	andeq	r0, r1, r8, rrx
     9bc:	69707200 	ldmdbvs	r0!, {r9, ip, sp, lr}^
     9c0:	0300682e 	movweq	r6, #2094	; 0x82e
     9c4:	00000000 	andeq	r0, r0, r0
     9c8:	892c0205 	stmdbhi	ip!, {r0, r2, r9}
     9cc:	4b170000 	blmi	5c09d4 <__bss_end__+0x5ae4b4>
     9d0:	31326868 	teqcc	r2, r8, ror #16
     9d4:	002f2d2f 	eoreq	r2, pc, pc, lsr #26
     9d8:	49010402 	stmdbmi	r1, {r1, sl}
     9dc:	674b2f4f 	strbvs	r2, [fp, -pc, asr #30]
     9e0:	4e678367 	cdpmi	3, 6, cr8, cr7, cr7, {3}
     9e4:	0010022f 	andseq	r0, r0, pc, lsr #4
     9e8:	00990101 	addseq	r0, r9, r1, lsl #2
     9ec:	00020000 	andeq	r0, r2, r0
     9f0:	00000077 	andeq	r0, r0, r7, ror r0
     9f4:	0efb0102 	cdpeq	1, 15, cr0, cr11, cr2, {0}
     9f8:	0101000d 	tsteq	r1, sp
     9fc:	00000101 	andeq	r0, r0, r1, lsl #2
     a00:	00000100 	andeq	r0, r0, r0, lsl #2
     a04:	31736301 	cmncc	r3, r1, lsl #6
     a08:	2d653034 	stclcs	0, cr3, [r5, #-208]!	; 0xffffff30
     a0c:	00637273 	rsbeq	r7, r3, r3, ror r2
     a10:	6573552f 	ldrbvs	r5, [r3, #-1327]!	; 0x52f
     a14:	622f7372 	eorvs	r7, pc, #-939524095	; 0xc8000001
     a18:	6e616972 	mcrvs	9, 3, r6, cr1, cr2, {3}
     a1c:	2f6e756a 	svccs	0x006e756a
     a20:	6b736544 	blvs	1cd9f38 <__bss_end__+0x1cc7a18>
     a24:	2f706f74 	svccs	0x00706f74
     a28:	6f686373 	svcvs	0x00686373
     a2c:	572f6c6f 	strpl	r6, [pc, -pc, ror #24]!
     a30:	65746e69 	ldrbvs	r6, [r4, #-3689]!	; 0xe69
     a34:	32393172 	eorscc	r3, r9, #-2147483620	; 0x8000001c
     a38:	53432f30 	movtpl	r2, #16176	; 0x3f30
     a3c:	45303431 	ldrmi	r3, [r0, #-1073]!	; 0x431
     a40:	3173632f 	cmncc	r3, pc, lsr #6
     a44:	2d653034 	stclcs	0, cr3, [r5, #-208]!	; 0xffffff30
     a48:	69773032 	ldmdbvs	r7!, {r1, r4, r5, ip, sp}^
     a4c:	696c2f6e 	stmdbvs	ip!, {r1, r2, r3, r5, r6, r8, r9, sl, fp, sp}^
     a50:	00697062 	rsbeq	r7, r9, r2, rrx
     a54:	62657200 	rsbvs	r7, r5, #0, 4
     a58:	2e746f6f 	cdpcs	15, 7, cr6, cr4, cr15, {3}
     a5c:	00010063 	andeq	r0, r1, r3, rrx
     a60:	69707200 	ldmdbvs	r0!, {r9, ip, sp, lr}^
     a64:	0200682e 	andeq	r6, r0, #3014656	; 0x2e0000
     a68:	00000000 	andeq	r0, r0, r0
     a6c:	89dc0205 	ldmibhi	ip, {r0, r2, r9}^
     a70:	0d030000 	stceq	0, cr0, [r3, #-0]
     a74:	2f311401 	svccs	0x00311401
     a78:	4b2f1585 	blmi	bc6094 <__bss_end__+0xbb3b74>
     a7c:	35672f4d 	strbcc	r2, [r7, #-3917]!	; 0xf4d
     a80:	10026752 	andne	r6, r2, r2, asr r7
     a84:	a3010100 	movwge	r0, #4352	; 0x1100
     a88:	02000000 	andeq	r0, r0, #0
     a8c:	00007600 	andeq	r7, r0, r0, lsl #12
     a90:	fb010200 	blx	4129a <__bss_end__+0x2ed7a>
     a94:	01000d0e 	tsteq	r0, lr, lsl #26
     a98:	00010101 	andeq	r0, r1, r1, lsl #2
     a9c:	00010000 	andeq	r0, r1, r0
     aa0:	73630100 	cmnvc	r3, #0, 2
     aa4:	65303431 	ldrvs	r3, [r0, #-1073]!	; 0x431
     aa8:	6372732d 	cmnvs	r2, #-1275068416	; 0xb4000000
     aac:	73552f00 	cmpvc	r5, #0, 30
     ab0:	2f737265 	svccs	0x00737265
     ab4:	61697262 	cmnvs	r9, r2, ror #4
     ab8:	6e756a6e 	vsubvs.f32	s13, s10, s29
     abc:	7365442f 	cmnvc	r5, #788529152	; 0x2f000000
     ac0:	706f746b 	rsbvc	r7, pc, fp, ror #8
     ac4:	6863732f 	stmdavs	r3!, {r0, r1, r2, r3, r5, r8, r9, ip, sp, lr}^
     ac8:	2f6c6f6f 	svccs	0x006c6f6f
     acc:	746e6957 	strbtvc	r6, [lr], #-2391	; 0x957
     ad0:	39317265 	ldmdbcc	r1!, {r0, r2, r5, r6, r9, ip, sp, lr}
     ad4:	432f3032 	teqmi	pc, #50	; 0x32
     ad8:	30343153 	eorscc	r3, r4, r3, asr r1
     adc:	73632f45 	cmnvc	r3, #276	; 0x114
     ae0:	65303431 	ldrvs	r3, [r0, #-1073]!	; 0x431
     ae4:	7730322d 	ldrvc	r3, [r0, -sp, lsr #4]!
     ae8:	6c2f6e69 	stcvs	14, cr6, [pc], #-420	; 94c <_start-0x76b4>
     aec:	69706269 	ldmdbvs	r0!, {r0, r3, r5, r6, r9, sp, lr}^
     af0:	69740000 	ldmdbvs	r4!, {}^	; <UNPREDICTABLE>
     af4:	2e72656d 	cdpcs	5, 7, cr6, cr2, cr13, {3}
     af8:	00010063 	andeq	r0, r1, r3, rrx
     afc:	69707200 	ldmdbvs	r0!, {r9, ip, sp, lr}^
     b00:	0200682e 	andeq	r6, r0, #3014656	; 0x2e0000
     b04:	00000000 	andeq	r0, r0, r0
     b08:	8a500205 	bhi	1401324 <__bss_end__+0x13eee04>
     b0c:	13160000 	tstne	r6, #0
     b10:	02002d2f 	andeq	r2, r0, #3008	; 0xbc0
     b14:	2e060104 	adfcss	f0, f6, f4
     b18:	2f316806 	svccs	0x00316806
     b1c:	31324d4b 	teqcc	r2, fp, asr #26
     b20:	2f4c4b30 	svccs	0x004c4b30
     b24:	842f2f6a 	strthi	r2, [pc], #-3946	; b2c <_start-0x74d4>
     b28:	0008022f 	andeq	r0, r8, pc, lsr #4
     b2c:	01780101 	cmneq	r8, r1, lsl #2
     b30:	00020000 	andeq	r0, r2, r0
     b34:	000000ca 	andeq	r0, r0, sl, asr #1
     b38:	0efb0102 	cdpeq	1, 15, cr0, cr11, cr2, {0}
     b3c:	0101000d 	tsteq	r1, sp
     b40:	00000101 	andeq	r0, r0, r1, lsl #2
     b44:	00000100 	andeq	r0, r0, r0, lsl #2
     b48:	2d796d01 	ldclcs	13, cr6, [r9, #-4]!
     b4c:	00637273 	rsbeq	r7, r3, r3, ror r2
     b50:	6573552f 	ldrbvs	r5, [r3, #-1327]!	; 0x52f
     b54:	622f7372 	eorvs	r7, pc, #-939524095	; 0xc8000001
     b58:	6e616972 	mcrvs	9, 3, r6, cr1, cr2, {3}
     b5c:	2f6e756a 	svccs	0x006e756a
     b60:	6b736544 	blvs	1cda078 <__bss_end__+0x1cc7b58>
     b64:	2f706f74 	svccs	0x00706f74
     b68:	6f686373 	svcvs	0x00686373
     b6c:	572f6c6f 	strpl	r6, [pc, -pc, ror #24]!
     b70:	65746e69 	ldrbvs	r6, [r4, #-3689]!	; 0xe69
     b74:	32393172 	eorscc	r3, r9, #-2147483620	; 0x8000001c
     b78:	53432f30 	movtpl	r2, #16176	; 0x3f30
     b7c:	45303431 	ldrmi	r3, [r0, #-1073]!	; 0x431
     b80:	3173632f 	cmncc	r3, pc, lsr #6
     b84:	2d653034 	stclcs	0, cr3, [r5, #-208]!	; 0xffffff30
     b88:	69773032 	ldmdbvs	r7!, {r1, r4, r5, ip, sp}^
     b8c:	696c2f6e 	stmdbvs	ip!, {r1, r2, r3, r5, r6, r8, r9, sl, fp, sp}^
     b90:	2f697062 	svccs	0x00697062
     b94:	34317363 	ldrtcc	r7, [r1], #-867	; 0x363
     b98:	732d6530 	teqvc	sp, #48, 10	; 0xc000000
     b9c:	2f006372 	svccs	0x00006372
     ba0:	72657355 	rsbvc	r7, r5, #1409286145	; 0x54000001
     ba4:	72622f73 	rsbvc	r2, r2, #460	; 0x1cc
     ba8:	6a6e6169 	bvs	1b99154 <__bss_end__+0x1b86c34>
     bac:	442f6e75 	strtmi	r6, [pc], #-3701	; bb4 <_start-0x744c>
     bb0:	746b7365 	strbtvc	r7, [fp], #-869	; 0x365
     bb4:	732f706f 	teqvc	pc, #111	; 0x6f
     bb8:	6f6f6863 	svcvs	0x006f6863
     bbc:	69572f6c 	ldmdbvs	r7, {r2, r3, r5, r6, r8, r9, sl, fp, sp}^
     bc0:	7265746e 	rsbvc	r7, r5, #1845493760	; 0x6e000000
     bc4:	30323931 	eorscc	r3, r2, r1, lsr r9
     bc8:	3153432f 	cmpcc	r3, pc, lsr #6
     bcc:	2f453034 	svccs	0x00453034
     bd0:	34317363 	ldrtcc	r7, [r1], #-867	; 0x363
     bd4:	322d6530 	eorcc	r6, sp, #48, 10	; 0xc000000
     bd8:	6e697730 	mcrvs	7, 3, r7, cr9, cr0, {1}
     bdc:	62696c2f 	rsbvs	r6, r9, #12032	; 0x2f00
     be0:	00006970 	andeq	r6, r0, r0, ror r9
     be4:	6f697067 	svcvs	0x00697067
     be8:	0100632e 	tsteq	r0, lr, lsr #6
     bec:	70670000 	rsbvc	r0, r7, r0
     bf0:	682e6f69 	stmdavs	lr!, {r0, r3, r5, r6, r8, r9, sl, fp, sp, lr}
     bf4:	00000200 	andeq	r0, r0, r0, lsl #4
     bf8:	2e697072 	mcrcs	0, 3, r7, cr9, cr2, {3}
     bfc:	00030068 	andeq	r0, r3, r8, rrx
     c00:	05000000 	streq	r0, [r0, #-0]
     c04:	008ad802 	addeq	sp, sl, r2, lsl #16
     c08:	013e0300 	teqeq	lr, r0, lsl #6
     c0c:	0869504e 	stmdaeq	r9!, {r1, r2, r3, r6, ip, lr}^
     c10:	67676721 	strbvs	r6, [r7, -r1, lsr #14]!
     c14:	32676767 	rsbcc	r6, r7, #27000832	; 0x19c0000
     c18:	dc22084b 	stcle	8, cr0, [r2], #-300	; 0xfffffed4
     c1c:	4e135131 	mrcmi	1, 0, r5, cr3, cr1, {1}
     c20:	31be3050 			; <UNDEFINED> instruction: 0x31be3050
     c24:	4f4d1350 	svcmi	0x004d1350
     c28:	504cc030 	subpl	ip, ip, r0, lsr r0
     c2c:	67210869 	strvs	r0, [r1, -r9, ror #16]!
     c30:	67676767 	strbvs	r6, [r7, -r7, ror #14]!
     c34:	084b3267 	stmdaeq	fp, {r0, r1, r2, r5, r6, r9, ip, sp}^
     c38:	504ca421 	subpl	sl, ip, r1, lsr #8
     c3c:	0369842f 	cmneq	r9, #788529152	; 0x2f000000
     c40:	0c038275 	sfmeq	f0, 1, [r3], {117}	; 0x75
     c44:	4e304d2e 	cdpmi	13, 3, cr4, cr0, cr14, {1}
     c48:	6a4d4c4b 	bvs	1353d7c <__bss_end__+0x134185c>
     c4c:	2108696b 	tstcs	r8, fp, ror #18
     c50:	67676767 	strbvs	r6, [r7, -r7, ror #14]!
     c54:	4b326767 	blmi	c9a9f8 <__bss_end__+0xc884d8>
     c58:	1a032208 	bne	c9480 <__bss_end__+0xb6f60>
     c5c:	4c9f31ba 	ldfmis	f3, [pc], {186}	; 0xba
     c60:	4e4d522f 	cdpmi	2, 4, cr5, cr13, cr15, {1}
     c64:	4b674b2f 	blmi	19d3928 <__bss_end__+0x19c1408>
     c68:	4c676768 	stclmi	7, cr6, [r7], #-416	; 0xfffffe60
     c6c:	4b2f672f 	blmi	bda930 <__bss_end__+0xbc8410>
     c70:	2f4e4c6e 	svccs	0x004e4c6e
     c74:	684b674b 	stmdavs	fp, {r0, r1, r3, r6, r8, r9, sl, sp, lr}^
     c78:	2f4c6767 	svccs	0x004c6767
     c7c:	6d4b2f67 	stclvs	15, cr2, [fp, #-412]	; 0xfffffe64
     c80:	4b2f4e4b 	blmi	bd45b4 <__bss_end__+0xbc2094>
     c84:	04020067 	streq	r0, [r2], #-103	; 0x67
     c88:	06660601 	strbteq	r0, [r6], -r1, lsl #12
     c8c:	002f9f68 	eoreq	r9, pc, r8, ror #30
     c90:	06010402 	streq	r0, [r1], -r2, lsl #8
     c94:	2f68064a 	svccs	0x0068064a
     c98:	034a7303 	movteq	r7, #41731	; 0xa303
     c9c:	4c4d2e0e 	mcrrmi	14, 0, r2, sp, cr14
     ca0:	bc4b2f4e 	mcrrlt	15, 4, r2, fp, cr14
     ca4:	000602bc 			; <UNDEFINED> instruction: 0x000602bc
     ca8:	03450101 	movteq	r0, #20737	; 0x5101
     cac:	00020000 	andeq	r0, r2, r0
     cb0:	000001bd 			; <UNDEFINED> instruction: 0x000001bd
     cb4:	0efb0102 	cdpeq	1, 15, cr0, cr11, cr2, {0}
     cb8:	0101000d 	tsteq	r1, sp
     cbc:	00000101 	andeq	r0, r0, r1, lsl #2
     cc0:	00000100 	andeq	r0, r0, r0, lsl #2
     cc4:	2d796d01 	ldclcs	13, cr6, [r9, #-4]!
     cc8:	00637273 	rsbeq	r7, r3, r3, ror r2
     ccc:	6573552f 	ldrbvs	r5, [r3, #-1327]!	; 0x52f
     cd0:	622f7372 	eorvs	r7, pc, #-939524095	; 0xc8000001
     cd4:	6e616972 	mcrvs	9, 3, r6, cr1, cr2, {3}
     cd8:	2f6e756a 	svccs	0x006e756a
     cdc:	6b736544 	blvs	1cda1f4 <__bss_end__+0x1cc7cd4>
     ce0:	2f706f74 	svccs	0x00706f74
     ce4:	6f686373 	svcvs	0x00686373
     ce8:	572f6c6f 	strpl	r6, [pc, -pc, ror #24]!
     cec:	65746e69 	ldrbvs	r6, [r4, #-3689]!	; 0xe69
     cf0:	32393172 	eorscc	r3, r9, #-2147483620	; 0x8000001c
     cf4:	53432f30 	movtpl	r2, #16176	; 0x3f30
     cf8:	45303431 	ldrmi	r3, [r0, #-1073]!	; 0x431
     cfc:	3173632f 	cmncc	r3, pc, lsr #6
     d00:	2d653034 	stclcs	0, cr3, [r5, #-208]!	; 0xffffff30
     d04:	69773032 	ldmdbvs	r7!, {r1, r4, r5, ip, sp}^
     d08:	696c2f6e 	stmdbvs	ip!, {r1, r2, r3, r5, r6, r8, r9, sl, fp, sp}^
     d0c:	2f697062 	svccs	0x00697062
     d10:	34317363 	ldrtcc	r7, [r1], #-867	; 0x363
     d14:	732d6530 	teqvc	sp, #48, 10	; 0xc000000
     d18:	2f006372 	svccs	0x00006372
     d1c:	2f727375 	svccs	0x00727375
     d20:	61636f6c 	cmnvs	r3, ip, ror #30
     d24:	65432f6c 	strbvs	r2, [r3, #-3948]	; 0xf6c
     d28:	72616c6c 	rsbvc	r6, r1, #108, 24	; 0x6c00
     d2c:	6d72612f 	ldfvse	f6, [r2, #-188]!	; 0xffffff44
     d30:	6e6f6e2d 	cdpvs	14, 6, cr6, cr15, cr13, {1}
     d34:	61652d65 	cmnvs	r5, r5, ror #26
     d38:	342f6962 	strtcc	r6, [pc], #-2402	; d40 <_start-0x72c0>
     d3c:	332e382e 	teqcc	lr, #3014656	; 0x2e0000
     d40:	3173632d 	cmncc	r3, sp, lsr #6
     d44:	2f653037 	svccs	0x00653037
     d48:	2f62696c 	svccs	0x0062696c
     d4c:	2f636367 	svccs	0x00636367
     d50:	2d6d7261 	sfmcs	f7, 2, [sp, #-388]!	; 0xfffffe7c
     d54:	656e6f6e 	strbvs	r6, [lr, #-3950]!	; 0xf6e
     d58:	6261652d 	rsbvs	r6, r1, #188743680	; 0xb400000
     d5c:	2e342f69 	cdpcs	15, 3, cr2, cr4, cr9, {3}
     d60:	2f332e38 	svccs	0x00332e38
     d64:	6c636e69 	stclvs	14, cr6, [r3], #-420	; 0xfffffe5c
     d68:	00656475 	rsbeq	r6, r5, r5, ror r4
     d6c:	6573552f 	ldrbvs	r5, [r3, #-1327]!	; 0x52f
     d70:	622f7372 	eorvs	r7, pc, #-939524095	; 0xc8000001
     d74:	6e616972 	mcrvs	9, 3, r6, cr1, cr2, {3}
     d78:	2f6e756a 	svccs	0x006e756a
     d7c:	6b736544 	blvs	1cda294 <__bss_end__+0x1cc7d74>
     d80:	2f706f74 	svccs	0x00706f74
     d84:	6f686373 	svcvs	0x00686373
     d88:	572f6c6f 	strpl	r6, [pc, -pc, ror #24]!
     d8c:	65746e69 	ldrbvs	r6, [r4, #-3689]!	; 0xe69
     d90:	32393172 	eorscc	r3, r9, #-2147483620	; 0x8000001c
     d94:	53432f30 	movtpl	r2, #16176	; 0x3f30
     d98:	45303431 	ldrmi	r3, [r0, #-1073]!	; 0x431
     d9c:	3173632f 	cmncc	r3, pc, lsr #6
     da0:	2d653034 	stclcs	0, cr3, [r5, #-208]!	; 0xffffff30
     da4:	69773032 	ldmdbvs	r7!, {r1, r4, r5, ip, sp}^
     da8:	696c2f6e 	stmdbvs	ip!, {r1, r2, r3, r5, r6, r8, r9, sl, fp, sp}^
     dac:	00697062 	rsbeq	r7, r9, r2, rrx
     db0:	6573552f 	ldrbvs	r5, [r3, #-1327]!	; 0x52f
     db4:	622f7372 	eorvs	r7, pc, #-939524095	; 0xc8000001
     db8:	6e616972 	mcrvs	9, 3, r6, cr1, cr2, {3}
     dbc:	2f6e756a 	svccs	0x006e756a
     dc0:	6b736544 	blvs	1cda2d8 <__bss_end__+0x1cc7db8>
     dc4:	2f706f74 	svccs	0x00706f74
     dc8:	6f686373 	svcvs	0x00686373
     dcc:	572f6c6f 	strpl	r6, [pc, -pc, ror #24]!
     dd0:	65746e69 	ldrbvs	r6, [r4, #-3689]!	; 0xe69
     dd4:	32393172 	eorscc	r3, r9, #-2147483620	; 0x8000001c
     dd8:	53432f30 	movtpl	r2, #16176	; 0x3f30
     ddc:	45303431 	ldrmi	r3, [r0, #-1073]!	; 0x431
     de0:	3173632f 	cmncc	r3, pc, lsr #6
     de4:	2d653034 	stclcs	0, cr3, [r5, #-208]!	; 0xffffff30
     de8:	69773032 	ldmdbvs	r7!, {r1, r4, r5, ip, sp}^
     dec:	696c2f6e 	stmdbvs	ip!, {r1, r2, r3, r5, r6, r8, r9, sl, fp, sp}^
     df0:	2f697062 	svccs	0x00697062
     df4:	6362696c 	cmnvs	r2, #108, 18	; 0x1b0000
     df8:	77730000 	ldrbvc	r0, [r3, -r0]!
     dfc:	7261752d 	rsbvc	r7, r1, #188743680	; 0xb400000
     e00:	00632e74 	rsbeq	r2, r3, r4, ror lr
     e04:	63000001 	movwvs	r0, #1
     e08:	656c6379 	strbvs	r6, [ip, #-889]!	; 0x379
     e0c:	6974752d 	ldmdbvs	r4!, {r0, r2, r3, r5, r8, sl, ip, sp, lr}^
     e10:	00682e6c 	rsbeq	r2, r8, ip, ror #28
     e14:	73000002 	movwvc	r0, #2
     e18:	6e696474 	mcrvs	4, 3, r6, cr9, cr4, {3}
     e1c:	63672d74 	cmnvs	r7, #116, 26	; 0x1d00
     e20:	00682e63 	rsbeq	r2, r8, r3, ror #28
     e24:	73000003 	movwvc	r0, #3
     e28:	61752d77 	cmnvs	r5, r7, ror sp
     e2c:	682e7472 	stmdavs	lr!, {r1, r4, r5, r6, sl, ip, sp, lr}
     e30:	00000200 	andeq	r0, r0, r0, lsl #4
     e34:	61647473 	smcvs	18243	; 0x4743
     e38:	682e6772 	stmdavs	lr!, {r1, r4, r5, r6, r8, r9, sl, sp, lr}
     e3c:	00000300 	andeq	r0, r0, r0, lsl #6
     e40:	6f697067 	svcvs	0x00697067
     e44:	0200682e 	andeq	r6, r0, #3014656	; 0x2e0000
     e48:	70720000 	rsbsvc	r0, r2, r0
     e4c:	00682e69 	rsbeq	r2, r8, r9, ror #28
     e50:	76000004 	strvc	r0, [r0], -r4
     e54:	72702d61 	rsbsvc	r2, r0, #6208	; 0x1840
     e58:	6b746e69 	blvs	1d1c804 <__bss_end__+0x1d0a2e4>
     e5c:	0500682e 	streq	r6, [r0, #-2094]	; 0x82e
     e60:	623c0000 	eorsvs	r0, ip, #0
     e64:	746c6975 	strbtvc	r6, [ip], #-2421	; 0x975
     e68:	3e6e692d 	cdpcc	9, 6, cr6, cr14, cr13, {1}
     e6c:	00000000 	andeq	r0, r0, r0
     e70:	02050000 	andeq	r0, r5, #0
     e74:	00009040 	andeq	r9, r0, r0, asr #32
     e78:	302f4c1a 	eorcc	r4, pc, sl, lsl ip	; <UNPREDICTABLE>
     e7c:	0b030204 	bleq	c1694 <__bss_end__+0xaf174>
     e80:	6673032e 	ldrbtvs	r0, [r3], -lr, lsr #6
     e84:	04880104 	streq	r0, [r8], #260	; 0x104
     e88:	73033502 	movwvc	r3, #13570	; 0x3502
     e8c:	8a010466 	bhi	4202c <__bss_end__+0x2fb0c>
     e90:	03330204 	teqeq	r3, #4, 4	; 0x40000000
     e94:	01046673 	tsteq	r4, r3, ror r6
     e98:	04820a03 	streq	r0, [r2], #2563	; 0xa03
     e9c:	73033102 	movwvc	r3, #12546	; 0x3102
     ea0:	03010466 	movweq	r0, #5222	; 0x1466
     ea4:	0204820c 	andeq	r8, r4, #12, 4	; 0xc0000000
     ea8:	6673032f 	ldrbtvs	r0, [r3], -pc, lsr #6
     eac:	0e030104 	adfeqs	f0, f3, f4
     eb0:	2d020482 	cfstrscs	mvf0, [r2, #-520]	; 0xfffffdf8
     eb4:	04667303 	strbteq	r7, [r6], #-771	; 0x303
     eb8:	82100301 	andshi	r0, r0, #67108864	; 0x4000000
     ebc:	032b0204 	teqeq	fp, #4, 4	; 0x40000000
     ec0:	01046673 	tsteq	r4, r3, ror r6
     ec4:	04821203 	streq	r1, [r2], #515	; 0x203
     ec8:	73032902 	movwvc	r2, #14594	; 0x3902
     ecc:	03010466 	movweq	r0, #5222	; 0x1466
     ed0:	02048214 	andeq	r8, r4, #20, 4	; 0x40000001
     ed4:	032e7903 	teqeq	lr, #49152	; 0xc000
     ed8:	01046673 	tsteq	r4, r3, ror r6
     edc:	04821603 	streq	r1, [r2], #1539	; 0x603
     ee0:	2e770302 	cdpcs	3, 7, cr0, cr7, cr2, {0}
     ee4:	04667303 	strbteq	r7, [r6], #-771	; 0x303
     ee8:	82180301 	andshi	r0, r8, #67108864	; 0x4000000
     eec:	4b2e1003 	blmi	b84f00 <__bss_end__+0xb729e0>
     ef0:	2e70034d 	cdpcs	3, 7, cr0, cr0, cr13, {2}
     ef4:	4883844c 	stmmi	r3, {r2, r3, r6, sl, pc}
     ef8:	4e2e0d03 	cdpmi	13, 2, cr0, cr14, cr3, {0}
     efc:	02043331 	andeq	r3, r4, #-1006632960	; 0xc4000000
     f00:	042e4803 	strteq	r4, [lr], #-2051	; 0x803
     f04:	823a0301 	eorshi	r0, sl, #67108864	; 0x4000000
     f08:	0302042f 	movweq	r0, #9263	; 0x242f
     f0c:	01046645 	tsteq	r4, r5, asr #12
     f10:	2f823d03 	svccs	0x00823d03
     f14:	42030204 	andmi	r0, r3, #4, 4	; 0x40000000
     f18:	03010482 	movweq	r0, #5250	; 0x1482
     f1c:	2f8200c0 	svccs	0x008200c0
     f20:	bf030204 	svclt	0x00030204
     f24:	0104827f 	tsteq	r4, pc, ror r2
     f28:	8200c303 	andhi	ip, r0, #201326592	; 0xc000000
     f2c:	0302042f 	movweq	r0, #9263	; 0x242f
     f30:	04827fbc 	streq	r7, [r2], #4028	; 0xfbc
     f34:	00c60301 	sbceq	r0, r6, r1, lsl #6
     f38:	02042f82 	andeq	r2, r4, #520	; 0x208
     f3c:	827fb903 	rsbshi	fp, pc, #49152	; 0xc000
     f40:	c9030104 	stmdbgt	r3, {r2, r8}
     f44:	042f8200 	strteq	r8, [pc], #-512	; f4c <_start-0x70b4>
     f48:	7fb60302 	svcvc	0x00b60302
     f4c:	03010482 	movweq	r0, #5250	; 0x1482
     f50:	2f8200cc 	svccs	0x008200cc
     f54:	b3030204 	movwlt	r0, #12804	; 0x3204
     f58:	0104827f 	tsteq	r4, pc, ror r2
     f5c:	8200d003 	andhi	sp, r0, #3
     f60:	4c824c03 	stcmi	12, cr4, [r2], {3}
     f64:	03488384 	movteq	r8, #33668	; 0x8384
     f68:	034e2e36 	movteq	r2, #60982	; 0xee36
     f6c:	29034a54 	stmdbcs	r3, {r2, r4, r6, r9, fp, lr}
     f70:	9f34324a 	svcls	0x0034324a
     f74:	01040200 	mrseq	r0, R12_usr
     f78:	d7064a06 	strle	r4, [r6, -r6, lsl #20]
     f7c:	2cbb4b4e 	vldmiacs	fp!, {d4-<overflow reg d42>}
     f80:	01040200 	mrseq	r0, R12_usr
     f84:	6d062e06 	stcvs	14, cr2, [r6, #-24]	; 0xffffffe8
     f88:	0084a44c 	addeq	sl, r4, ip, asr #8
     f8c:	06010402 	streq	r0, [r1], -r2, lsl #8
     f90:	4dd7064a 	ldclmi	6, cr0, [r7, #296]	; 0x128
     f94:	02040200 	andeq	r0, r4, #0, 4
     f98:	0402004b 	streq	r0, [r2], #-75	; 0x4b
     f9c:	02008102 	andeq	r8, r0, #-2147483648	; 0x80000000
     fa0:	2e060104 	adfcss	f0, f6, f4
     fa4:	a54c4d06 	strbge	r4, [ip, #-3334]	; 0xd06
     fa8:	4b4b4bbc 	blmi	12d3ea0 <__bss_end__+0x12c1980>
     fac:	02002f6a 	andeq	r2, r0, #424	; 0x1a8
     fb0:	82060104 	andhi	r0, r6, #4, 2
     fb4:	04020082 	streq	r0, [r2], #-130	; 0x82
     fb8:	02009e04 	andeq	r9, r0, #4, 28	; 0x40
     fbc:	064a0104 	strbeq	r0, [sl], -r4, lsl #2
     fc0:	2fbd88d9 	svccs	0x00bd88d9
     fc4:	40084b4b 	andmi	r4, r8, fp, asr #22
     fc8:	04020067 	streq	r0, [r2], #-103	; 0x67
     fcc:	02002f02 	andeq	r2, r0, #2, 30
     fd0:	00490204 	subeq	r0, r9, r4, lsl #4
     fd4:	06010402 	streq	r0, [r1], -r2, lsl #8
     fd8:	3468062e 	strbtcc	r0, [r8], #-1582	; 0x62e
     fdc:	00a04b86 	adceq	r4, r0, r6, lsl #23
     fe0:	06010402 	streq	r0, [r1], -r2, lsl #8
     fe4:	68d70666 	ldmvs	r7, {r1, r2, r5, r6, r9, sl}^
     fe8:	674b2208 	strbvs	r2, [fp, -r8, lsl #4]
     fec:	0a02d84b 	beq	b7120 <__bss_end__+0xa4c00>
     ff0:	01010100 	mrseq	r0, (UNDEF: 17)
     ff4:	02000001 	andeq	r0, r0, #1
     ff8:	0000ca00 	andeq	ip, r0, r0, lsl #20
     ffc:	fb010200 	blx	41806 <__bss_end__+0x2f2e6>
    1000:	01000d0e 	tsteq	r0, lr, lsl #26
    1004:	00010101 	andeq	r0, r1, r1, lsl #2
    1008:	00010000 	andeq	r0, r1, r0
    100c:	796d0100 	stmdbvc	sp!, {r8}^
    1010:	6372732d 	cmnvs	r2, #-1275068416	; 0xb4000000
    1014:	73552f00 	cmpvc	r5, #0, 30
    1018:	2f737265 	svccs	0x00737265
    101c:	61697262 	cmnvs	r9, r2, ror #4
    1020:	6e756a6e 	vsubvs.f32	s13, s10, s29
    1024:	7365442f 	cmnvc	r5, #788529152	; 0x2f000000
    1028:	706f746b 	rsbvc	r7, pc, fp, ror #8
    102c:	6863732f 	stmdavs	r3!, {r0, r1, r2, r3, r5, r8, r9, ip, sp, lr}^
    1030:	2f6c6f6f 	svccs	0x006c6f6f
    1034:	746e6957 	strbtvc	r6, [lr], #-2391	; 0x957
    1038:	39317265 	ldmdbcc	r1!, {r0, r2, r5, r6, r9, ip, sp, lr}
    103c:	432f3032 	teqmi	pc, #50	; 0x32
    1040:	30343153 	eorscc	r3, r4, r3, asr r1
    1044:	73632f45 	cmnvc	r3, #276	; 0x114
    1048:	65303431 	ldrvs	r3, [r0, #-1073]!	; 0x431
    104c:	7730322d 	ldrvc	r3, [r0, -sp, lsr #4]!
    1050:	6c2f6e69 	stcvs	14, cr6, [pc], #-420	; eb4 <_start-0x714c>
    1054:	69706269 	ldmdbvs	r0!, {r0, r3, r5, r6, r9, sp, lr}^
    1058:	3173632f 	cmncc	r3, pc, lsr #6
    105c:	2d653034 	stclcs	0, cr3, [r5, #-208]!	; 0xffffff30
    1060:	00637273 	rsbeq	r7, r3, r3, ror r2
    1064:	6573552f 	ldrbvs	r5, [r3, #-1327]!	; 0x52f
    1068:	622f7372 	eorvs	r7, pc, #-939524095	; 0xc8000001
    106c:	6e616972 	mcrvs	9, 3, r6, cr1, cr2, {3}
    1070:	2f6e756a 	svccs	0x006e756a
    1074:	6b736544 	blvs	1cda58c <__bss_end__+0x1cc806c>
    1078:	2f706f74 	svccs	0x00706f74
    107c:	6f686373 	svcvs	0x00686373
    1080:	572f6c6f 	strpl	r6, [pc, -pc, ror #24]!
    1084:	65746e69 	ldrbvs	r6, [r4, #-3689]!	; 0xe69
    1088:	32393172 	eorscc	r3, r9, #-2147483620	; 0x8000001c
    108c:	53432f30 	movtpl	r2, #16176	; 0x3f30
    1090:	45303431 	ldrmi	r3, [r0, #-1073]!	; 0x431
    1094:	3173632f 	cmncc	r3, pc, lsr #6
    1098:	2d653034 	stclcs	0, cr3, [r5, #-208]!	; 0xffffff30
    109c:	69773032 	ldmdbvs	r7!, {r1, r4, r5, ip, sp}^
    10a0:	696c2f6e 	stmdbvs	ip!, {r1, r2, r3, r5, r6, r8, r9, sl, fp, sp}^
    10a4:	00697062 	rsbeq	r7, r9, r2, rrx
    10a8:	72617500 	rsbvc	r7, r1, #0, 10
    10ac:	00632e74 	rsbeq	r2, r3, r4, ror lr
    10b0:	67000001 	strvs	r0, [r0, -r1]
    10b4:	2e6f6970 	mcrcs	9, 3, r6, cr15, cr0, {3}
    10b8:	00020068 	andeq	r0, r2, r8, rrx
    10bc:	69707200 	ldmdbvs	r0!, {r9, ip, sp, lr}^
    10c0:	0300682e 	movweq	r6, #2094	; 0x82e
    10c4:	00000000 	andeq	r0, r0, r0
    10c8:	96600205 	strbtls	r0, [r0], -r5, lsl #4
    10cc:	36030000 	strcc	r0, [r3], -r0
    10d0:	67333001 	ldrvs	r3, [r3, -r1]!
    10d4:	30d8306d 	sbcscc	r3, r8, sp, rrx
    10d8:	67676767 	strbvs	r6, [r7, -r7, ror #14]!
    10dc:	2f866867 	svccs	0x00866867
    10e0:	67306a67 	ldrvs	r6, [r0, -r7, ror #20]!
    10e4:	672f6967 	strvs	r6, [pc, -r7, ror #18]!
    10e8:	c1674c6a 	cmngt	r7, sl, ror #24
    10ec:	2f302f2f 	svccs	0x00302f2f
    10f0:	02304968 	eorseq	r4, r0, #104, 18	; 0x1a0000
    10f4:	01010002 	tsteq	r1, r2
    10f8:	000000d6 	ldrdeq	r0, [r0], -r6
    10fc:	00970002 	addseq	r0, r7, r2
    1100:	01020000 	mrseq	r0, (UNDEF: 2)
    1104:	000d0efb 	strdeq	r0, [sp], -fp
    1108:	01010101 	tsteq	r1, r1, lsl #2
    110c:	01000000 	mrseq	r0, (UNDEF: 0)
    1110:	63010000 	movwvs	r0, #4096	; 0x1000
    1114:	30343173 	eorscc	r3, r4, r3, ror r1
    1118:	6e692d65 	cdpvs	13, 6, cr2, cr9, cr5, {3}
    111c:	72726574 	rsbsvc	r6, r2, #116, 10	; 0x1d000000
    1120:	00747075 	rsbseq	r7, r4, r5, ror r0
    1124:	6573552f 	ldrbvs	r5, [r3, #-1327]!	; 0x52f
    1128:	622f7372 	eorvs	r7, pc, #-939524095	; 0xc8000001
    112c:	6e616972 	mcrvs	9, 3, r6, cr1, cr2, {3}
    1130:	2f6e756a 	svccs	0x006e756a
    1134:	6b736544 	blvs	1cda64c <__bss_end__+0x1cc812c>
    1138:	2f706f74 	svccs	0x00706f74
    113c:	6f686373 	svcvs	0x00686373
    1140:	572f6c6f 	strpl	r6, [pc, -pc, ror #24]!
    1144:	65746e69 	ldrbvs	r6, [r4, #-3689]!	; 0xe69
    1148:	32393172 	eorscc	r3, r9, #-2147483620	; 0x8000001c
    114c:	53432f30 	movtpl	r2, #16176	; 0x3f30
    1150:	45303431 	ldrmi	r3, [r0, #-1073]!	; 0x431
    1154:	3173632f 	cmncc	r3, pc, lsr #6
    1158:	2d653034 	stclcs	0, cr3, [r5, #-208]!	; 0xffffff30
    115c:	69773032 	ldmdbvs	r7!, {r1, r4, r5, ip, sp}^
    1160:	696c2f6e 	stmdbvs	ip!, {r1, r2, r3, r5, r6, r8, r9, sl, fp, sp}^
    1164:	00697062 	rsbeq	r7, r9, r2, rrx
    1168:	746e6900 	strbtvc	r6, [lr], #-2304	; 0x900
    116c:	75727265 	ldrbvc	r7, [r2, #-613]!	; 0x265
    1170:	2d737470 	cfldrdcs	mvd7, [r3, #-448]!	; 0xfffffe40
    1174:	00632e63 	rsbeq	r2, r3, r3, ror #28
    1178:	72000001 	andvc	r0, r0, #1
    117c:	682e6970 	stmdavs	lr!, {r4, r5, r6, r8, fp, sp, lr}
    1180:	00000200 	andeq	r0, r0, r0, lsl #4
    1184:	2d697072 	stclcs	0, cr7, [r9, #-456]!	; 0xfffffe38
    1188:	65746e69 	ldrbvs	r6, [r4, #-3689]!	; 0xe69
    118c:	70757272 	rsbsvc	r7, r5, r2, ror r2
    1190:	682e7374 	stmdavs	lr!, {r2, r4, r5, r6, r8, r9, ip, sp, lr}
    1194:	00000100 	andeq	r0, r0, r0, lsl #2
    1198:	02050000 	andeq	r0, r5, #0
    119c:	000097b4 			; <UNDEFINED> instruction: 0x000097b4
    11a0:	67673116 			; <UNDEFINED> instruction: 0x67673116
    11a4:	832e0e03 	teqhi	lr, #3, 28	; 0x30
    11a8:	02002d2f 	andeq	r2, r0, #3008	; 0xbc0
    11ac:	002f0204 	eoreq	r0, pc, r4, lsl #4
    11b0:	65020402 	strvs	r0, [r2, #-1026]	; 0x402
    11b4:	01040200 	mrseq	r0, R12_usr
    11b8:	4c062e06 	stcmi	14, cr2, [r6], {6}
    11bc:	b00867a2 	andlt	r6, r8, r2, lsr #15
    11c0:	67ae0867 	strvs	r0, [lr, r7, ror #16]!
    11c4:	0867ae08 	stmdaeq	r7!, {r3, r9, sl, fp, sp, pc}^
    11c8:	ae0867ae 	cdpge	7, 0, cr6, cr8, cr14, {5}
    11cc:	001c0267 	andseq	r0, ip, r7, ror #4
    11d0:	01280101 	teqeq	r8, r1, lsl #2
    11d4:	00020000 	andeq	r0, r2, r0
    11d8:	0000010d 	andeq	r0, r0, sp, lsl #2
    11dc:	0efb0102 	cdpeq	1, 15, cr0, cr11, cr2, {0}
    11e0:	0101000d 	tsteq	r1, sp
    11e4:	00000101 	andeq	r0, r0, r1, lsl #2
    11e8:	00000100 	andeq	r0, r0, r0, lsl #2
    11ec:	31736301 	cmncc	r3, r1, lsl #6
    11f0:	2d653034 	stclcs	0, cr3, [r5, #-208]!	; 0xffffff30
    11f4:	00637273 	rsbeq	r7, r3, r3, ror r2
    11f8:	7273752f 	rsbsvc	r7, r3, #197132288	; 0xbc00000
    11fc:	636f6c2f 	cmnvs	pc, #12032	; 0x2f00
    1200:	432f6c61 	teqmi	pc, #24832	; 0x6100
    1204:	616c6c65 	cmnvs	ip, r5, ror #24
    1208:	72612f72 	rsbvc	r2, r1, #456	; 0x1c8
    120c:	6f6e2d6d 	svcvs	0x006e2d6d
    1210:	652d656e 	strvs	r6, [sp, #-1390]!	; 0x56e
    1214:	2f696261 	svccs	0x00696261
    1218:	2e382e34 	mrccs	14, 1, r2, cr8, cr4, {1}
    121c:	73632d33 	cmnvc	r3, #3264	; 0xcc0
    1220:	65303731 	ldrvs	r3, [r0, #-1841]!	; 0x731
    1224:	62696c2f 	rsbvs	r6, r9, #12032	; 0x2f00
    1228:	6363672f 	cmnvs	r3, #12320768	; 0xbc0000
    122c:	6d72612f 	ldfvse	f6, [r2, #-188]!	; 0xffffff44
    1230:	6e6f6e2d 	cdpvs	14, 6, cr6, cr15, cr13, {1}
    1234:	61652d65 	cmnvs	r5, r5, ror #26
    1238:	342f6962 	strtcc	r6, [pc], #-2402	; 1240 <_start-0x6dc0>
    123c:	332e382e 	teqcc	lr, #3014656	; 0x2e0000
    1240:	636e692f 	cmnvs	lr, #770048	; 0xbc000
    1244:	6564756c 	strbvs	r7, [r4, #-1388]!	; 0x56c
    1248:	73752f00 	cmnvc	r5, #0, 30
    124c:	6f6c2f72 	svcvs	0x006c2f72
    1250:	2f6c6163 	svccs	0x006c6163
    1254:	6c6c6543 	cfstr64vs	mvdx6, [ip], #-268	; 0xfffffef4
    1258:	612f7261 	teqvs	pc, r1, ror #4
    125c:	6e2d6d72 	mcrvs	13, 1, r6, cr13, cr2, {3}
    1260:	2d656e6f 	stclcs	14, cr6, [r5, #-444]!	; 0xfffffe44
    1264:	69626165 	stmdbvs	r2!, {r0, r2, r5, r6, r8, sp, lr}^
    1268:	382e342f 	stmdacc	lr!, {r0, r1, r2, r3, r5, sl, ip, sp}
    126c:	632d332e 	teqvs	sp, #-1207959552	; 0xb8000000
    1270:	30373173 	eorscc	r3, r7, r3, ror r1
    1274:	72612f65 	rsbvc	r2, r1, #404	; 0x194
    1278:	6f6e2d6d 	svcvs	0x006e2d6d
    127c:	652d656e 	strvs	r6, [sp, #-1390]!	; 0x56e
    1280:	2f696261 	svccs	0x00696261
    1284:	6c636e69 	stclvs	14, cr6, [r3], #-420	; 0xfffffe5c
    1288:	00656475 	rsbeq	r6, r5, r5, ror r4
    128c:	6e6f6300 	cdpvs	3, 6, cr6, cr15, cr0, {0}
    1290:	6c6f7274 	sfmvs	f7, 2, [pc], #-464	; 10c8 <_start-0x6f38>
    1294:	6f6c622d 	svcvs	0x006c622d
    1298:	632e6b63 	teqvs	lr, #101376	; 0x18c00
    129c:	00000100 	andeq	r0, r0, r0, lsl #2
    12a0:	64647473 	strbtvs	r7, [r4], #-1139	; 0x473
    12a4:	682e6665 	stmdavs	lr!, {r0, r2, r5, r6, r9, sl, sp, lr}
    12a8:	00000200 	andeq	r0, r0, r0, lsl #4
    12ac:	69647473 	stmdbvs	r4!, {r0, r1, r4, r5, r6, sl, ip, sp, lr}^
    12b0:	672d746e 	strvs	r7, [sp, -lr, ror #8]!
    12b4:	682e6363 	stmdavs	lr!, {r0, r1, r5, r6, r8, r9, sp, lr}
    12b8:	00000200 	andeq	r0, r0, r0, lsl #4
    12bc:	752d7773 	strvc	r7, [sp, #-1907]!	; 0x773
    12c0:	2e747261 	cdpcs	2, 7, cr7, cr4, cr1, {3}
    12c4:	00010068 	andeq	r0, r1, r8, rrx
    12c8:	6e6f6300 	cdpvs	3, 6, cr6, cr15, cr0, {0}
    12cc:	6c6f7274 	sfmvs	f7, 2, [pc], #-464	; 1104 <_start-0x6efc>
    12d0:	6f6c622d 	svcvs	0x006c622d
    12d4:	682e6b63 	stmdavs	lr!, {r0, r1, r5, r6, r8, r9, fp, sp, lr}
    12d8:	00000100 	andeq	r0, r0, r0, lsl #2
    12dc:	69727473 	ldmdbvs	r2!, {r0, r1, r4, r5, r6, sl, ip, sp, lr}^
    12e0:	682e676e 	stmdavs	lr!, {r1, r2, r3, r5, r6, r8, r9, sl, sp, lr}
    12e4:	00000300 	andeq	r0, r0, r0, lsl #6
    12e8:	02050000 	andeq	r0, r5, #0
    12ec:	00009af0 	strdeq	r9, [r0], -r0
    12f0:	68833016 	stmvs	r3, {r1, r2, r4, ip, sp}
    12f4:	4b9f144c 	blmi	fe7c642c <__bss_end__+0xfe7b3f0c>
    12f8:	0004022f 	andeq	r0, r4, pc, lsr #4
    12fc:	Address 0x00000000000012fc is out of bounds.


Disassembly of section .debug_str:

00000000 <.debug_str>:
   0:	657a6973 	ldrbvs	r6, [sl, #-2419]!	; 0x973
   4:	6900745f 	stmdbvs	r0, {r0, r1, r2, r3, r4, r6, sl, ip, sp, lr}
   8:	72775f6e 	rsbsvc	r5, r7, #440	; 0x1b8
   c:	00657469 	rsbeq	r7, r5, r9, ror #8
  10:	6f727265 	svcvs	0x00727265
  14:	665f7372 			; <UNDEFINED> instruction: 0x665f7372
  18:	6c617461 	cfstrdvs	mvd7, [r1], #-388	; 0xfffffe7c
  1c:	6700705f 	smlsdvs	r0, pc, r0, r7	; <UNPREDICTABLE>
  20:	5f6f6970 	svcpl	0x006f6970
  24:	74697277 	strbtvc	r7, [r9], #-631	; 0x277
  28:	6f6e0065 	svcvs	0x006e0065
  2c:	69616d74 	stmdbvs	r1!, {r2, r4, r5, r6, r8, sl, fp, sp, lr}^
  30:	7261006e 	rsbvc	r0, r1, #110	; 0x6e
  34:	69745f6d 	ldmdbvs	r4!, {r0, r2, r3, r5, r6, r8, r9, sl, fp, ip, lr}^
  38:	5f72656d 	svcpl	0x0072656d
  3c:	49574152 	ldmdbmi	r7, {r1, r4, r6, r8, lr}^
  40:	75005152 	strvc	r5, [r0, #-338]	; 0x152
  44:	5f747261 	svcpl	0x00747261
  48:	74696e69 	strbtvc	r6, [r9], #-3689	; 0xe69
  4c:	70657200 	rsbvc	r7, r5, r0, lsl #4
  50:	5f79616c 	svcpl	0x0079616c
  54:	00616473 	rsbeq	r6, r1, r3, ror r4
  58:	676e6f6c 	strbvs	r6, [lr, -ip, ror #30]!
  5c:	6e6f6c20 	cdpvs	12, 6, cr6, cr15, cr0, {1}
  60:	6e752067 	cdpvs	0, 7, cr2, cr5, cr7, {3}
  64:	6e676973 	mcrvs	9, 3, r6, cr7, cr3, {3}
  68:	69206465 	stmdbvs	r0!, {r0, r2, r5, r6, sl, sp, lr}
  6c:	6300746e 	movwvs	r7, #1134	; 0x46e
  70:	6675625f 			; <UNDEFINED> instruction: 0x6675625f
  74:	5f716300 	svcpl	0x00716300
  78:	74706d65 	ldrbtvc	r6, [r0], #-3429	; 0xd65
  7c:	6f6c0079 	svcvs	0x006c0079
  80:	6c20676e 	stcvs	7, cr6, [r0], #-440	; 0xfffffe48
  84:	20676e6f 	rsbcs	r6, r7, pc, ror #28
  88:	00746e69 	rsbseq	r6, r4, r9, ror #28
  8c:	5f6d7261 	svcpl	0x006d7261
  90:	656d6974 	strbvs	r6, [sp, #-2420]!	; 0x974
  94:	6f435f72 	svcvs	0x00435f72
  98:	6f72746e 	svcvs	0x0072746e
  9c:	7261006c 	rsbvc	r0, r1, #108	; 0x6c
  a0:	69745f6d 	ldmdbvs	r4!, {r0, r2, r3, r5, r6, r8, r9, sl, fp, ip, lr}^
  a4:	5f72656d 	svcpl	0x0072656d
  a8:	64616f4c 	strbtvs	r6, [r1], #-3916	; 0xf4c
  ac:	6d726100 	ldfvse	f6, [r2, #-0]
  b0:	6d69745f 	cfstrdvs	mvd7, [r9, #-380]!	; 0xfffffe84
  b4:	425f7265 	subsmi	r7, pc, #1342177286	; 0x50000006
  b8:	00657361 	rsbeq	r7, r5, r1, ror #6
  bc:	746e696e 	strbtvc	r6, [lr], #-2414	; 0x96e
  c0:	75727265 	ldrbvc	r7, [r2, #-613]!	; 0x265
  c4:	61007470 	tstvs	r0, r0, ror r4
  c8:	745f6d72 	ldrbvc	r6, [pc], #-3442	; d0 <_start-0x7f30>
  cc:	72656d69 	rsbvc	r6, r5, #6720	; 0x1a40
  d0:	73614d5f 	cmnvc	r1, #6080	; 0x17c0
  d4:	4964656b 	stmdbmi	r4!, {r0, r1, r3, r5, r6, r8, sl, sp, lr}^
  d8:	72005152 	andvc	r5, r0, #-2147483628	; 0x80000014
  dc:	616c7065 	cmnvs	ip, r5, rrx
  e0:	6b6c4379 	blvs	1b10ecc <__bss_end__+0x1afe9ac>
  e4:	70720051 	rsbsvc	r0, r2, r1, asr r0
  e8:	65725f69 	ldrbvs	r5, [r2, #-3945]!	; 0xf69
  ec:	5f746573 	svcpl	0x00746573
  f0:	63747570 	cmnvs	r4, #112, 10	; 0x1c000000
  f4:	69706700 	ldmdbvs	r0!, {r8, r9, sl, sp, lr}^
  f8:	76655f6f 	strbtvc	r5, [r5], -pc, ror #30
  fc:	5f746e65 	svcpl	0x00746e65
 100:	61656c63 	cmnvs	r5, r3, ror #24
 104:	5f5f0072 	svcpl	0x005f0072
 108:	434e5546 	movtmi	r5, #58694	; 0xe546
 10c:	4e4f4954 	mcrmi	9, 2, r4, cr15, cr4, {2}
 110:	63005f5f 	movwvs	r5, #3935	; 0xf5f
 114:	656e5f71 	strbvs	r5, [lr, #-3953]!	; 0xf71
 118:	006d656c 	rsbeq	r6, sp, ip, ror #10
 11c:	726f6873 	rsbvc	r6, pc, #7536640	; 0x730000
 120:	6e752074 	mrcvs	0, 3, r2, cr5, cr4, {3}
 124:	6e676973 	mcrvs	9, 3, r6, cr7, cr3, {3}
 128:	69206465 	stmdbvs	r0!, {r0, r2, r5, r6, sl, sp, lr}
 12c:	7200746e 	andvc	r7, r0, #1845493760	; 0x6e000000
 130:	726f6365 	rsbvc	r6, pc, #-1811939327	; 0x94000001
 134:	74614464 	strbtvc	r4, [r1], #-1124	; 0x464
 138:	64005161 	strvs	r5, [r0], #-353	; 0x161
 13c:	625f7665 	subsvs	r7, pc, #105906176	; 0x6500000
 140:	69727261 	ldmdbvs	r2!, {r0, r5, r6, r9, ip, sp, lr}^
 144:	67007265 	strvs	r7, [r0, -r5, ror #4]
 148:	5f6f6970 	svcpl	0x006f6970
 14c:	64616572 	strbtvs	r6, [r1], #-1394	; 0x572
 150:	70657200 	rsbvc	r7, r5, r0, lsl #4
 154:	4479616c 	ldrbtmi	r6, [r9], #-364	; 0x16c
 158:	51617461 	cmnpl	r1, r1, ror #8
 15c:	656c6300 	strbvs	r6, [ip, #-768]!	; 0x300
 160:	725f6e61 	subsvc	r6, pc, #1552	; 0x610
 164:	6f6f6265 	svcvs	0x006f6265
 168:	70670074 	rsbvc	r0, r7, r4, ror r0
 16c:	695f6f69 	ldmdbvs	pc, {r0, r3, r5, r6, r8, r9, sl, fp, sp, lr}^	; <UNPREDICTABLE>
 170:	725f746e 	subsvc	r7, pc, #1845493760	; 0x6e000000
 174:	6e697369 	cdpvs	3, 6, cr7, cr9, cr9, {3}
 178:	64655f67 	strbtvs	r5, [r5], #-3943	; 0xf67
 17c:	74006567 	strvc	r6, [r0], #-1383	; 0x567
 180:	006c6961 	rsbeq	r6, ip, r1, ror #18
 184:	657a6973 	ldrbvs	r6, [sl, #-2419]!	; 0x973
 188:	65707974 	ldrbvs	r7, [r0, #-2420]!	; 0x974
 18c:	63657200 	cmnvs	r5, #0, 4
 190:	5f64726f 	svcpl	0x0064726f
 194:	006c6373 	rsbeq	r6, ip, r3, ror r3
 198:	705f7163 	subsvc	r7, pc, r3, ror #2
 19c:	6e5f706f 	cdpvs	0, 5, cr7, cr15, cr15, {3}
 1a0:	6c626e6f 	stclvs	14, cr6, [r2], #-444	; 0xfffffe44
 1a4:	006b636f 	rsbeq	r6, fp, pc, ror #6
 1a8:	5f6d7261 	svcpl	0x006d7261
 1ac:	656d6974 	strbvs	r6, [sp, #-2420]!	; 0x974
 1b0:	65525f72 	ldrbvs	r5, [r2, #-3954]	; 0xf72
 1b4:	64616f6c 	strbtvs	r6, [r1], #-3948	; 0xf6c
 1b8:	5f716300 	svcpl	0x00716300
 1bc:	74696e69 	strbtvc	r6, [r9], #-3689	; 0xe69
 1c0:	696e6900 	stmdbvs	lr!, {r8, fp, sp, lr}^
 1c4:	65725f74 	ldrbvs	r5, [r2, #-3956]!	; 0xf74
 1c8:	64726f63 	ldrbtvs	r6, [r2], #-3939	; 0xf63
 1cc:	00676e69 	rsbeq	r6, r7, r9, ror #28
 1d0:	5f746e69 	svcpl	0x00746e69
 1d4:	74696e69 	strbtvc	r6, [r9], #-3689	; 0xe69
 1d8:	73797300 	cmnvc	r9, #0, 6
 1dc:	5f6d6574 	svcpl	0x006d6574
 1e0:	62616e65 	rsbvs	r6, r1, #1616	; 0x650
 1e4:	695f656c 	ldmdbvs	pc, {r2, r3, r5, r6, r8, sl, sp, lr}^	; <UNPREDICTABLE>
 1e8:	7265746e 	rsbvc	r7, r5, #1845493760	; 0x6e000000
 1ec:	74707572 	ldrbtvc	r7, [r0], #-1394	; 0x572
 1f0:	552f0073 	strpl	r0, [pc, #-115]!	; 185 <_start-0x7e7b>
 1f4:	73726573 	cmnvc	r2, #482344960	; 0x1cc00000
 1f8:	6972622f 	ldmdbvs	r2!, {r0, r1, r2, r3, r5, r9, sp, lr}^
 1fc:	756a6e61 	strbvc	r6, [sl, #-3681]!	; 0xe61
 200:	65442f6e 	strbvs	r2, [r4, #-3950]	; 0xf6e
 204:	6f746b73 	svcvs	0x00746b73
 208:	63732f70 	cmnvs	r3, #112, 30	; 0x1c0
 20c:	6c6f6f68 	stclvs	15, cr6, [pc], #-416	; 74 <_start-0x7f8c>
 210:	6e69572f 	cdpvs	7, 6, cr5, cr9, cr15, {1}
 214:	31726574 	cmncc	r2, r4, ror r5
 218:	2f303239 	svccs	0x00303239
 21c:	34315343 	ldrtcc	r5, [r1], #-835	; 0x343
 220:	632f4530 	teqvs	pc, #48, 10	; 0xc000000
 224:	30343173 	eorscc	r3, r4, r3, ror r1
 228:	30322d65 	eorscc	r2, r2, r5, ror #26
 22c:	2f6e6977 	svccs	0x006e6977
 230:	7362616c 	cmnvc	r2, #108, 2
 234:	6e65732f 	cdpvs	3, 6, cr7, cr5, cr15, {1}
 238:	2d726f73 	ldclcs	15, cr6, [r2, #-460]!	; 0xfffffe34
 23c:	6c706572 	cfldr64vs	mvdx6, [r0], #-456	; 0xfffffe38
 240:	72007961 	andvc	r7, r0, #1589248	; 0x184000
 244:	726f6365 	rsbvc	r6, pc, #-1811939327	; 0x94000001
 248:	64735f64 	ldrbtvs	r5, [r3], #-3940	; 0xf64
 24c:	6e750061 	cdpvs	0, 7, cr0, cr5, cr1, {3}
 250:	6e676973 	mcrvs	9, 3, r6, cr7, cr3, {3}
 254:	63206465 	teqvs	r0, #1694498816	; 0x65000000
 258:	00726168 	rsbseq	r6, r2, r8, ror #2
 25c:	726f6873 	rsbvc	r6, pc, #7536640	; 0x730000
 260:	6e692074 	mcrvs	0, 3, r2, cr9, cr4, {3}
 264:	65720074 	ldrbvs	r0, [r2, #-116]!	; 0x74
 268:	64726f63 	ldrbtvs	r6, [r2], #-3939	; 0xf63
 26c:	516b6c43 	cmnpl	fp, r3, asr #24
 270:	65716300 	ldrbvs	r6, [r1, #-768]!	; 0x300
 274:	6800745f 	stmdavs	r0, {r0, r1, r2, r3, r4, r6, sl, ip, sp, lr}
 278:	00646165 	rsbeq	r6, r4, r5, ror #2
 27c:	20554e47 	subscs	r4, r5, r7, asr #28
 280:	2e342043 	cdpcs	0, 3, cr2, cr4, cr3, {2}
 284:	20332e38 	eorscs	r2, r3, r8, lsr lr
 288:	70636d2d 	rsbvc	r6, r3, sp, lsr #26
 28c:	72613d75 	rsbvc	r3, r1, #7488	; 0x1d40
 290:	3731316d 	ldrcc	r3, [r1, -sp, ror #2]!
 294:	667a6a36 			; <UNDEFINED> instruction: 0x667a6a36
 298:	2d20732d 	stccs	3, cr7, [r0, #-180]!	; 0xffffff4c
 29c:	6e75746d 	cdpvs	4, 7, cr7, cr5, cr13, {3}
 2a0:	72613d65 	rsbvc	r3, r1, #6464	; 0x1940
 2a4:	3731316d 	ldrcc	r3, [r1, -sp, ror #2]!
 2a8:	667a6a36 			; <UNDEFINED> instruction: 0x667a6a36
 2ac:	2d20732d 	stccs	3, cr7, [r0, #-180]!	; 0xffffff4c
 2b0:	62646767 	rsbvs	r6, r4, #27000832	; 0x19c0000
 2b4:	674f2d20 	strbvs	r2, [pc, -r0, lsr #26]
 2b8:	74732d20 	ldrbtvc	r2, [r3], #-3360	; 0xd20
 2bc:	6e673d64 	cdpvs	13, 6, cr3, cr7, cr4, {3}
 2c0:	20393975 	eorscs	r3, r9, r5, ror r9
 2c4:	7266662d 	rsbvc	r6, r6, #47185920	; 0x2d00000
 2c8:	74736565 	ldrbtvc	r6, [r3], #-1381	; 0x565
 2cc:	69646e61 	stmdbvs	r4!, {r0, r5, r6, r9, sl, fp, sp, lr}^
 2d0:	6600676e 	strvs	r6, [r0], -lr, ror #14
 2d4:	65636e65 	strbvs	r6, [r3, #-3685]!	; 0xe65
 2d8:	69706700 	ldmdbvs	r0!, {r8, r9, sl, sp, lr}^
 2dc:	65735f6f 	ldrbvs	r5, [r3, #-3951]!	; 0xf6f
 2e0:	6e695f74 	mcrvs	15, 3, r5, cr9, cr4, {3}
 2e4:	00747570 	rsbseq	r7, r4, r0, ror r5
 2e8:	7265766f 	rsbvc	r7, r5, #116391936	; 0x6f00000
 2ec:	776f6c66 	strbvc	r6, [pc, -r6, ror #24]!
 2f0:	6d726100 	ldfvse	f6, [r2, #-0]
 2f4:	6d69745f 	cfstrdvs	mvd7, [r9, #-380]!	; 0xfffffe84
 2f8:	505f7265 	subspl	r7, pc, r5, ror #4
 2fc:	69446572 	stmdbvs	r4, {r1, r4, r5, r6, r8, sl, sp, lr}^
 300:	65646976 	strbvs	r6, [r4, #-2422]!	; 0x976
 304:	72610072 	rsbvc	r0, r1, #114	; 0x72
 308:	69745f6d 	ldmdbvs	r4!, {r0, r2, r3, r5, r6, r8, r9, sl, fp, ip, lr}^
 30c:	5f72656d 	svcpl	0x0072656d
 310:	756c6156 	strbvc	r6, [ip, #-342]!	; 0x156
 314:	72610065 	rsbvc	r0, r1, #101	; 0x65
 318:	69745f6d 	ldmdbvs	r4!, {r0, r2, r3, r5, r6, r8, r9, sl, fp, ip, lr}^
 31c:	5f72656d 	svcpl	0x0072656d
 320:	43515249 	cmpmi	r1, #-1879048188	; 0x90000004
 324:	7261656c 	rsbvc	r6, r1, #108, 10	; 0x1b000000
 328:	6d656d00 	stclvs	13, cr6, [r5, #-0]
 32c:	00746573 	rsbseq	r6, r4, r3, ror r5
 330:	6f697067 	svcvs	0x00697067
 334:	7465735f 	strbtvc	r7, [r5], #-863	; 0x35f
 338:	74756f5f 	ldrbtvc	r6, [r5], #-3935	; 0xf5f
 33c:	00747570 	rsbseq	r7, r4, r0, ror r5
 340:	745f7163 	ldrbvc	r7, [pc], #-355	; 348 <_start-0x7cb8>
 344:	616e6500 	cmnvs	lr, r0, lsl #10
 348:	5f656c62 	svcpl	0x00656c62
 34c:	68636163 	stmdavs	r3!, {r0, r1, r5, r6, r8, sp, lr}^
 350:	70720065 	rsbsvc	r0, r2, r5, rrx
 354:	72615f69 	rsbvc	r5, r1, #420	; 0x1a4
 358:	69745f6d 	ldmdbvs	r4!, {r0, r2, r3, r5, r6, r8, r9, sl, fp, ip, lr}^
 35c:	5f72656d 	svcpl	0x0072656d
 360:	70670074 	rsbvc	r0, r7, r4, ror r0
 364:	695f6f69 	ldmdbvs	pc, {r0, r3, r5, r6, r8, r9, sl, fp, sp, lr}^	; <UNPREDICTABLE>
 368:	665f746e 	ldrbvs	r7, [pc], -lr, ror #8
 36c:	696c6c61 	stmdbvs	ip!, {r0, r5, r6, sl, fp, sp, lr}^
 370:	655f676e 	ldrbvs	r6, [pc, #-1902]	; fffffc0a <__bss_end__+0xfffed6ea>
 374:	00656764 	rsbeq	r6, r5, r4, ror #14
 378:	6c706572 	cfldr64vs	mvdx6, [r0], #-456	; 0xfffffe38
 37c:	735f7961 	cmpvc	pc, #1589248	; 0x184000
 380:	31006c63 	tstcc	r0, r3, ror #24
 384:	6970672d 	ldmdbvs	r0!, {r0, r2, r3, r5, r8, r9, sl, sp, lr}^
 388:	6e692d6f 	cdpvs	13, 6, cr2, cr9, cr15, {3}
 38c:	78652d74 	stmdavc	r5!, {r2, r4, r5, r6, r8, sl, fp, sp}^
 390:	6300632e 	movwvs	r6, #814	; 0x32e
 394:	75665f71 	strbvc	r5, [r6, #-3953]!	; 0xf71
 398:	61006c6c 	tstvs	r0, ip, ror #24
 39c:	745f6d72 	ldrbvc	r6, [pc], #-3442	; 3a4 <_start-0x7c5c>
 3a0:	72656d69 	rsbvc	r6, r5, #6720	; 0x1a40
 3a4:	6572465f 	ldrbvs	r4, [r2, #-1631]!	; 0x65f
 3a8:	6e755265 	cdpvs	2, 7, cr5, cr5, cr5, {3}
 3ac:	676e696e 	strbvs	r6, [lr, -lr, ror #18]!
 3b0:	6e756f43 	cdpvs	15, 7, cr6, cr5, cr3, {2}
 3b4:	00726574 	rsbseq	r6, r2, r4, ror r5
 3b8:	6362696c 	cmnvs	r2, #108, 18	; 0x1b0000
 3bc:	6d656d2f 	stclvs	13, cr6, [r5, #-188]!	; 0xffffff44
 3c0:	2e746573 	mrccs	5, 3, r6, cr4, cr3, {3}
 3c4:	552f0063 	strpl	r0, [pc, #-99]!	; 369 <_start-0x7c97>
 3c8:	73726573 	cmnvc	r2, #482344960	; 0x1cc00000
 3cc:	6972622f 	ldmdbvs	r2!, {r0, r1, r2, r3, r5, r9, sp, lr}^
 3d0:	756a6e61 	strbvc	r6, [sl, #-3681]!	; 0xe61
 3d4:	65442f6e 	strbvs	r2, [r4, #-3950]	; 0xf6e
 3d8:	6f746b73 	svcvs	0x00746b73
 3dc:	63732f70 	cmnvs	r3, #112, 30	; 0x1c0
 3e0:	6c6f6f68 	stclvs	15, cr6, [pc], #-416	; 248 <_start-0x7db8>
 3e4:	6e69572f 	cdpvs	7, 6, cr5, cr9, cr15, {1}
 3e8:	31726574 	cmncc	r2, r4, ror r5
 3ec:	2f303239 	svccs	0x00303239
 3f0:	34315343 	ldrtcc	r5, [r1], #-835	; 0x343
 3f4:	632f4530 	teqvs	pc, #48, 10	; 0xc000000
 3f8:	30343173 	eorscc	r3, r4, r3, ror r1
 3fc:	30322d65 	eorscc	r2, r2, r5, ror #26
 400:	2f6e6977 	svccs	0x006e6977
 404:	7062696c 	rsbvc	r6, r2, ip, ror #18
 408:	5f5f0069 	svcpl	0x005f0069
 40c:	63756e67 	cmnvs	r5, #1648	; 0x670
 410:	5f61765f 	svcpl	0x0061765f
 414:	7473696c 	ldrbtvc	r6, [r3], #-2412	; 0x96c
 418:	62696c00 	rsbvs	r6, r9, #0, 24
 41c:	72702f63 	rsbsvc	r2, r0, #396	; 0x18c
 420:	6b746e69 	blvs	1d1bdcc <__bss_end__+0x1d098ac>
 424:	7600632e 	strvc	r6, [r0], -lr, lsr #6
 428:	72705f61 	rsbsvc	r5, r0, #388	; 0x184
 42c:	6b746e69 	blvs	1d1bdd8 <__bss_end__+0x1d098b8>
 430:	765f5f00 	ldrbvc	r5, [pc], -r0, lsl #30
 434:	696c5f61 	stmdbvs	ip!, {r0, r5, r6, r8, r9, sl, fp, ip, lr}^
 438:	61007473 	tstvs	r0, r3, ror r4
 43c:	00736772 	rsbseq	r6, r3, r2, ror r7
 440:	70615f5f 	rsbvc	r5, r1, pc, asr pc
 444:	746e6900 	strbtvc	r6, [lr], #-2304	; 0x900
 448:	616e7265 	cmnvs	lr, r5, ror #4
 44c:	75705f6c 	ldrbvc	r5, [r0, #-3948]!	; 0xf6c
 450:	61686374 	smcvs	34356	; 0x8634
 454:	70720072 	rsbsvc	r0, r2, r2, ror r0
 458:	75705f69 	ldrbvc	r5, [r0, #-3945]!	; 0xf69
 45c:	61686374 	smcvs	34356	; 0x8634
 460:	696c0072 	stmdbvs	ip!, {r1, r4, r5, r6}^
 464:	702f6362 	eorvc	r6, pc, r2, ror #6
 468:	68637475 	stmdavs	r3!, {r0, r2, r4, r5, r6, sl, ip, sp, lr}^
 46c:	632e7261 	teqvs	lr, #268435462	; 0x10000006
 470:	69707200 	ldmdbvs	r0!, {r9, ip, sp, lr}^
 474:	7465735f 	strbtvc	r7, [r5], #-863	; 0x35f
 478:	7475705f 	ldrbtvc	r7, [r5], #-95	; 0x5f
 47c:	696c0063 	stmdbvs	ip!, {r0, r1, r5, r6}^
 480:	702f6362 	eorvc	r6, pc, r2, ror #6
 484:	2e6b7475 	mcrcs	4, 3, r7, cr11, cr5, {3}
 488:	6e690063 	cdpvs	0, 6, cr0, cr9, cr3, {3}
 48c:	6e726574 	mrcvs	5, 3, r6, cr2, cr4, {3}
 490:	705f6c61 	subsvc	r6, pc, r1, ror #24
 494:	006b7475 	rsbeq	r7, fp, r5, ror r4
 498:	5f67656e 	svcpl	0x0067656e
 49c:	65720070 	ldrbvs	r0, [r2, #-112]!	; 0x70
 4a0:	73726576 	cmnvc	r2, #494927872	; 0x1d800000
 4a4:	73690065 	cmnvc	r9, #101	; 0x65
 4a8:	69676964 	stmdbvs	r7!, {r2, r5, r6, r8, fp, sp, lr}^
 4ac:	75700074 	ldrbvc	r0, [r0, #-116]!	; 0x74
 4b0:	665f7374 			; <UNDEFINED> instruction: 0x665f7374
 4b4:	61620070 	smcvs	8192	; 0x2000
 4b8:	73006573 	movwvc	r6, #1395	; 0x573
 4bc:	656e6769 	strbvs	r6, [lr, #-1897]!	; 0x769
 4c0:	00705f64 	rsbseq	r5, r0, r4, ror #30
 4c4:	6362696c 	cmnvs	r2, #108, 18	; 0x1b0000
 4c8:	2d61762f 	stclcs	6, cr7, [r1, #-188]!	; 0xffffff44
 4cc:	6e697270 	mcrvs	2, 3, r7, cr9, cr0, {3}
 4d0:	632e6b74 	teqvs	lr, #116, 22	; 0x1d000
 4d4:	69707200 	ldmdbvs	r0!, {r9, ip, sp, lr}^
 4d8:	7465735f 	strbtvc	r7, [r5], #-863	; 0x35f
 4dc:	74756f5f 	ldrbtvc	r6, [r5], #-3935	; 0xf5f
 4e0:	00747570 	rsbseq	r7, r4, r0, ror r5
 4e4:	74646977 	strbtvc	r6, [r4], #-2423	; 0x977
 4e8:	75700068 	ldrbvc	r0, [r0, #-104]!	; 0x68
 4ec:	665f6374 			; <UNDEFINED> instruction: 0x665f6374
 4f0:	6d650070 	stclvs	0, cr0, [r5, #-448]!	; 0xfffffe40
 4f4:	64007469 	strvs	r7, [r0], #-1129	; 0x469
 4f8:	62617369 	rsbvs	r7, r1, #-1543503871	; 0xa4000001
 4fc:	635f656c 	cmpvs	pc, #108, 10	; 0x1b000000
 500:	65686361 	strbvs	r6, [r8, #-865]!	; 0x361
 504:	31736300 	cmncc	r3, r0, lsl #6
 508:	2d653034 	stclcs	0, cr3, [r5, #-208]!	; 0xffffff30
 50c:	2f637273 	svccs	0x00637273
 510:	68636163 	stmdavs	r3!, {r0, r1, r5, r6, r8, sp, lr}^
 514:	00632e65 	rsbeq	r2, r3, r5, ror #28
 518:	5f697072 	svcpl	0x00697072
 51c:	6f626572 	svcvs	0x00626572
 520:	6300746f 	movwvs	r7, #1135	; 0x46f
 524:	30343173 	eorscc	r3, r4, r3, ror r1
 528:	72732d65 	rsbsvc	r2, r3, #6464	; 0x1940
 52c:	6c632f63 	stclvs	15, cr2, [r3], #-396	; 0xfffffe74
 530:	2d6e6165 	stfcse	f6, [lr, #-404]!	; 0xfffffe6c
 534:	6f626572 	svcvs	0x00626572
 538:	632e746f 	teqvs	lr, #1862270976	; 0x6f000000
 53c:	6c656400 	cfstrdvs	mvd6, [r5], #-0
 540:	6d5f7961 	ldclvs	9, cr7, [pc, #-388]	; 3c4 <_start-0x7c3c>
 544:	6e690073 	mcrvs	0, 3, r0, cr9, cr3, {3}
 548:	6e726574 	mrcvs	5, 3, r6, cr2, cr4, {3}
 54c:	735f6c61 	cmpvc	pc, #24832	; 0x6100
 550:	75705f77 	ldrbvc	r5, [r0, #-3959]!	; 0xf77
 554:	61686374 	smcvs	34356	; 0x8634
 558:	5f5f0072 	svcpl	0x005f0072
 55c:	5f737362 	svcpl	0x00737362
 560:	72617473 	rsbvc	r7, r1, #1929379840	; 0x73000000
 564:	005f5f74 	subseq	r5, pc, r4, ror pc	; <UNPREDICTABLE>
 568:	5f737362 	svcpl	0x00737362
 56c:	00646e65 	rsbeq	r6, r4, r5, ror #28
 570:	6c637963 	stclvs	9, cr7, [r3], #-396	; 0xfffffe74
 574:	65705f65 	ldrbvs	r5, [r0, #-3941]!	; 0xf65
 578:	69625f72 	stmdbvs	r2!, {r1, r4, r5, r6, r8, r9, sl, fp, ip, lr}^
 57c:	6f630074 	svcvs	0x00630074
 580:	6c6f736e 	stclvs	3, cr7, [pc], #-440	; 3d0 <_start-0x7c30>
 584:	61755f65 	cmnvs	r5, r5, ror #30
 588:	73007472 	movwvc	r7, #1138	; 0x472
 58c:	61755f77 	cmnvs	r5, r7, ror pc
 590:	705f7472 	subsvc	r7, pc, r2, ror r4	; <UNPREDICTABLE>
 594:	746e6972 	strbtvc	r6, [lr], #-2418	; 0x972
 598:	5550006b 	ldrbpl	r0, [r0, #-107]	; 0x6b
 59c:	455f4354 	ldrbmi	r4, [pc, #-852]	; 250 <_start-0x7db0>
 5a0:	555f5053 	ldrbpl	r5, [pc, #-83]	; 555 <_start-0x7aab>
 5a4:	00545241 	subseq	r5, r4, r1, asr #4
 5a8:	755f7773 	ldrbvc	r7, [pc, #-1907]	; fffffe3d <__bss_end__+0xfffed91d>
 5ac:	5f747261 	svcpl	0x00747261
 5b0:	55500074 	ldrbpl	r0, [r0, #-116]	; 0x74
 5b4:	535f4354 	cmppl	pc, #84, 6	; 0x50000001
 5b8:	41555f57 	cmpmi	r5, r7, asr pc
 5bc:	62005452 	andvs	r5, r0, #1375731712	; 0x52000000
 5c0:	00647561 	rsbeq	r7, r4, r1, ror #10
 5c4:	43545550 	cmpmi	r4, #80, 10	; 0x14000000
 5c8:	5f57485f 	svcpl	0x0057485f
 5cc:	54524155 	ldrbpl	r4, [r2], #-341	; 0x155
 5d0:	73635f00 	cmnvc	r3, #0, 30
 5d4:	74726174 	ldrbtvc	r6, [r2], #-372	; 0x174
 5d8:	72617500 	rsbvc	r7, r1, #0, 10
 5dc:	65645f74 	strbvs	r5, [r4, #-3956]!	; 0xf74
 5e0:	00745f76 	rsbseq	r5, r4, r6, ror pc
 5e4:	755f7773 	ldrbvc	r7, [pc, #-1907]	; fffffe79 <__bss_end__+0xfffed959>
 5e8:	5f747261 	svcpl	0x00747261
 5ec:	63747570 	cmnvs	r4, #112, 10	; 0x1c000000
 5f0:	6e697500 	cdpvs	5, 6, cr7, cr9, cr0, {0}
 5f4:	745f3874 	ldrbvc	r3, [pc], #-2164	; 5fc <_start-0x7a04>
 5f8:	6e6f6300 	cdpvs	3, 6, cr6, cr15, cr0, {0}
 5fc:	6c6f7274 	sfmvs	f7, 2, [pc], #-464	; 434 <_start-0x7bcc>
 600:	6b6c625f 	blvs	1b18f84 <__bss_end__+0x1b06a64>
 604:	7300745f 	movwvc	r7, #1119	; 0x45f
 608:	61755f77 	cmnvs	r5, r7, ror pc
 60c:	63007472 	movwvs	r7, #1138	; 0x472
 610:	65675f62 	strbvs	r5, [r7, #-3938]!	; 0xf62
 614:	6c625f74 	stclvs	15, cr5, [r2], #-464	; 0xfffffe30
 618:	006b636f 	rsbeq	r6, fp, pc, ror #6
 61c:	73625f5f 	cmnvc	r2, #380	; 0x17c
 620:	6e655f73 	mcrvs	15, 3, r5, cr5, cr3, {3}
 624:	005f5f64 	subseq	r5, pc, r4, ror #30
 628:	34317363 	ldrtcc	r7, [r1], #-867	; 0x363
 62c:	732d6530 	teqvc	sp, #48, 10	; 0xc000000
 630:	632f6372 	teqvs	pc, #-939524095	; 0xc8000001
 634:	72617473 	rsbvc	r7, r1, #1929379840	; 0x73000000
 638:	00632e74 	rsbeq	r2, r3, r4, ror lr
 63c:	736e6f63 	cmnvc	lr, #396	; 0x18c
 640:	5f656c6f 	svcpl	0x00656c6f
 644:	00766564 	rsbseq	r6, r6, r4, ror #10
 648:	746e6975 	strbtvc	r6, [lr], #-2421	; 0x975
 64c:	745f3233 	ldrbvc	r3, [pc], #-563	; 654 <_start-0x79ac>
 650:	67616d00 	strbvs	r6, [r1, -r0, lsl #26]!
 654:	61006369 	tstvs	r0, r9, ror #6
 658:	73755f74 	cmnvc	r5, #116, 30	; 0x1d0
 65c:	6c5f7265 	lfmvs	f7, 2, [pc], {101}	; 0x65
 660:	6c657665 	stclvs	6, cr7, [r5], #-404	; 0xfffffe6c
 664:	5f4d5000 	svcpl	0x004d5000
 668:	53534150 	cmppl	r3, #80, 2
 66c:	44524f57 	ldrbmi	r4, [r2], #-3927	; 0xf57
 670:	31736300 	cmncc	r3, r0, lsl #6
 674:	2d653034 	stclcs	0, cr3, [r5, #-208]!	; 0xffffff30
 678:	2f637273 	svccs	0x00637273
 67c:	6f626572 	svcvs	0x00626572
 680:	632e746f 	teqvs	lr, #1862270976	; 0x6f000000
 684:	5f4d5000 	svcpl	0x004d5000
 688:	43545352 	cmpmi	r4, #1207959553	; 0x48000001
 68c:	4352575f 	cmpmi	r2, #24903680	; 0x17c0000
 690:	465f4746 	ldrbmi	r4, [pc], -r6, asr #14
 694:	5f4c4c55 	svcpl	0x004c4c55
 698:	45534552 	ldrbmi	r4, [r3, #-1362]	; 0x552
 69c:	4d500054 	ldclmi	0, cr0, [r0, #-336]	; 0xfffffeb0
 6a0:	4f44575f 	svcmi	0x0044575f
 6a4:	65730047 	ldrbvs	r0, [r3, #-71]!	; 0x47
 6a8:	73755f74 	cmnvc	r5, #116, 30	; 0x1d0
 6ac:	6c5f7265 	lfmvs	f7, 2, [pc], {101}	; 0x65
 6b0:	6c657665 	stclvs	6, cr7, [r5], #-404	; 0xfffffe6c
 6b4:	54555000 	ldrbpl	r5, [r5], #-0
 6b8:	50003233 	andpl	r3, r0, r3, lsr r2
 6bc:	53525f4d 	cmppl	r2, #308	; 0x134
 6c0:	63004354 	movwvs	r4, #852	; 0x354
 6c4:	00727370 	rsbseq	r7, r2, r0, ror r3
 6c8:	656d6974 	strbvs	r6, [sp, #-2420]!	; 0x974
 6cc:	65675f72 	strbvs	r5, [r7, #-3954]!	; 0xf72
 6d0:	73755f74 	cmnvc	r5, #116, 30	; 0x1d0
 6d4:	725f6365 	subsvc	r6, pc, #-1811939327	; 0x94000001
 6d8:	64007761 	strvs	r7, [r0], #-1889	; 0x761
 6dc:	79616c65 	stmdbvc	r1!, {r0, r2, r5, r6, sl, fp, sp, lr}^
 6e0:	6365735f 	cmnvs	r5, #2080374785	; 0x7c000001
 6e4:	31736300 	cmncc	r3, r0, lsl #6
 6e8:	2d653034 	stclcs	0, cr3, [r5, #-208]!	; 0xffffff30
 6ec:	2f637273 	svccs	0x00637273
 6f0:	656d6974 	strbvs	r6, [sp, #-2420]!	; 0x974
 6f4:	00632e72 	rsbeq	r2, r3, r2, ror lr
 6f8:	33544547 	cmpcc	r4, #297795584	; 0x11c00000
 6fc:	69740032 	ldmdbvs	r4!, {r1, r4, r5}^
 700:	00736b63 	rsbseq	r6, r3, r3, ror #22
 704:	616c6564 	cmnvs	ip, r4, ror #10
 708:	79635f79 	stmdbvc	r3!, {r0, r3, r4, r5, r6, r8, r9, sl, fp, ip, lr}^
 70c:	73656c63 	cmnvc	r5, #25344	; 0x6300
 710:	6c656400 	cfstrdvs	mvd6, [r5], #-0
 714:	755f7961 	ldrbvc	r7, [pc, #-2401]	; fffffdbb <__bss_end__+0xfffed89b>
 718:	69740073 	ldmdbvs	r4!, {r0, r1, r4, r5, r6}^
 71c:	5f72656d 	svcpl	0x0072656d
 720:	5f746567 	svcpl	0x00746567
 724:	63657375 	cmnvs	r5, #-738197503	; 0xd4000001
 728:	69706700 	ldmdbvs	r0!, {r8, r9, sl, sp, lr}^
 72c:	76655f6f 	strbtvc	r5, [r5], -pc, ror #30
 730:	5f746e65 	svcpl	0x00746e65
 734:	65746564 	ldrbvs	r6, [r4, #-1380]!	; 0x564
 738:	64657463 	strbtvs	r7, [r5], #-1123	; 0x463
 73c:	74757000 	ldrbtvc	r7, [r5], #-0
 740:	47003233 	smladxmi	r0, r3, r2, r3
 744:	45534650 	ldrbmi	r4, [r3, #-1616]	; 0x650
 748:	4700324c 	strmi	r3, [r0, -ip, asr #4]
 74c:	524c4350 	subpl	r4, ip, #80, 6	; 0x40000001
 750:	4e450030 	mcrmi	0, 2, r0, cr5, cr0, {1}
 754:	454c4241 	strbmi	r4, [ip, #-577]	; 0x241
 758:	5152495f 	cmppl	r2, pc, asr r9
 75c:	00325f53 	eorseq	r5, r2, r3, asr pc
 760:	675f7369 	ldrbvs	r7, [pc, -r9, ror #6]
 764:	5f6f6970 	svcpl	0x006f6970
 768:	00746e69 	rsbseq	r6, r4, r9, ror #28
 76c:	4f495047 	svcmi	0x00495047
 770:	4e55465f 	mrcmi	6, 2, r4, cr5, cr15, {2}
 774:	4e495f43 	cdpmi	15, 4, cr5, cr9, cr3, {2}
 778:	00545550 	subseq	r5, r4, r0, asr r5
 77c:	6f697067 	svcvs	0x00697067
 780:	7465735f 	strbtvc	r7, [r5], #-863	; 0x35f
 784:	66666f5f 	uqsaxvs	r6, r6, pc	; <UNPREDICTABLE>
 788:	2d796d00 	ldclcs	13, cr6, [r9, #-0]
 78c:	2f637273 	svccs	0x00637273
 790:	6f697067 	svcvs	0x00697067
 794:	6900632e 	stmdbvs	r0, {r1, r2, r3, r5, r8, r9, sp, lr}
 798:	6d5f746e 	cfldrdvs	mvd7, [pc, #-440]	; 5e8 <_start-0x7a18>
 79c:	006b7361 	rsbeq	r7, fp, r1, ror #6
 7a0:	45535047 	ldrbmi	r5, [r3, #-71]	; 0x47
 7a4:	47003054 	smlsdmi	r0, r4, r0, r3
 7a8:	54455350 	strbpl	r5, [r5], #-848	; 0x350
 7ac:	65720031 	ldrbvs	r0, [r2, #-49]!	; 0x31
 7b0:	74735f67 	ldrbtvc	r5, [r3], #-3943	; 0xf67
 7b4:	47007461 	strmi	r7, [r0, -r1, ror #8]
 7b8:	56454c50 			; <UNDEFINED> instruction: 0x56454c50
 7bc:	50470030 	subpl	r0, r7, r0, lsr r0
 7c0:	3156454c 	cmpcc	r6, ip, asr #10
 7c4:	69706700 	ldmdbvs	r0!, {r8, r9, sl, sp, lr}^
 7c8:	65725f6f 	ldrbvs	r5, [r2, #-3951]!	; 0xf6f
 7cc:	50470067 	subpl	r0, r7, r7, rrx
 7d0:	4c455346 	mcrrmi	3, 4, r5, r5, cr6
 7d4:	50470030 	subpl	r0, r7, r0, lsr r0
 7d8:	4c455346 	mcrrmi	3, 4, r5, r5, cr6
 7dc:	50470031 	subpl	r0, r7, r1, lsr r0
 7e0:	4c455346 	mcrrmi	3, 4, r5, r5, cr6
 7e4:	50470033 	subpl	r0, r7, r3, lsr r0
 7e8:	4c455346 	mcrrmi	3, 4, r5, r5, cr6
 7ec:	50470034 	subpl	r0, r7, r4, lsr r0
 7f0:	4c455346 	mcrrmi	3, 4, r5, r5, cr6
 7f4:	70670035 	rsbvc	r0, r7, r5, lsr r0
 7f8:	665f6f69 	ldrbvs	r6, [pc], -r9, ror #30
 7fc:	306c6573 	rsbcc	r6, ip, r3, ror r5
 800:	43504700 	cmpmi	r0, #0, 14
 804:	0031524c 	eorseq	r5, r1, ip, asr #4
 808:	6f697067 	svcvs	0x00697067
 80c:	7465735f 	strbtvc	r7, [r5], #-863	; 0x35f
 810:	6e75665f 	mrcvs	6, 3, r6, cr5, cr15, {2}
 814:	6f697463 	svcvs	0x00697463
 818:	5047006e 	subpl	r0, r7, lr, rrx
 81c:	304e4552 	subcc	r4, lr, r2, asr r5
 820:	52504700 	subspl	r4, r0, #0, 14
 824:	00314e45 	eorseq	r4, r1, r5, asr #28
 828:	5f515249 	svcpl	0x00515249
 82c:	444e4550 	strbmi	r4, [lr], #-1360	; 0x550
 830:	5f474e49 	svcpl	0x00474e49
 834:	52490031 	subpl	r0, r9, #49	; 0x31
 838:	45505f51 	ldrbmi	r5, [r0, #-3921]	; 0xf51
 83c:	4e49444e 	cdpmi	4, 4, cr4, cr9, cr14, {2}
 840:	00325f47 	eorseq	r5, r2, r7, asr #30
 844:	6d746962 	ldclvs	9, cr6, [r4, #-392]!	; 0xfffffe78
 848:	006b7361 	rsbeq	r7, fp, r1, ror #6
 84c:	6f697067 	svcvs	0x00697067
 850:	7465735f 	strbtvc	r7, [r5], #-863	; 0x35f
 854:	75660030 	strbvc	r0, [r6, #-48]!	; 0x30
 858:	4700636e 	strmi	r6, [r0, -lr, ror #6]
 85c:	53444550 	movtpl	r4, #17744	; 0x4550
 860:	50470030 	subpl	r0, r7, r0, lsr r0
 864:	31534445 	cmpcc	r3, r5, asr #8
 868:	69706700 	ldmdbvs	r0!, {r8, r9, sl, sp, lr}^
 86c:	65735f6f 	ldrbvs	r5, [r3, #-3951]!	; 0xf6f
 870:	6e6f5f74 	mcrvs	15, 3, r5, cr15, cr4, {3}
 874:	46504700 	ldrbmi	r4, [r0], -r0, lsl #14
 878:	00304e45 	eorseq	r4, r0, r5, asr #28
 87c:	45465047 	strbmi	r5, [r6, #-71]	; 0x47
 880:	4700314e 	strmi	r3, [r0, -lr, asr #2]
 884:	5f4f4950 	svcpl	0x004f4950
 888:	434e5546 	movtmi	r5, #58694	; 0xe546
 88c:	54554f5f 	ldrbpl	r4, [r5], #-3935	; 0xf5f
 890:	00545550 	subseq	r5, r4, r0, asr r5
 894:	33746567 	cmncc	r4, #432013312	; 0x19c00000
 898:	70670032 	rsbvc	r0, r7, r2, lsr r0
 89c:	665f6f69 	ldrbvs	r6, [pc], -r9, ror #30
 8a0:	5f636e75 	svcpl	0x00636e75
 8a4:	50470074 	subpl	r0, r7, r4, ror r0
 8a8:	465f4f49 	ldrbmi	r4, [pc], -r9, asr #30
 8ac:	5f434e55 	svcpl	0x00434e55
 8b0:	30544c41 	subscc	r4, r4, r1, asr #24
 8b4:	49504700 	ldmdbmi	r0, {r8, r9, sl, lr}^
 8b8:	55465f4f 	strbpl	r5, [r6, #-3919]	; 0xf4f
 8bc:	415f434e 	cmpmi	pc, lr, asr #6
 8c0:	0031544c 	eorseq	r5, r1, ip, asr #8
 8c4:	4f495047 	svcmi	0x00495047
 8c8:	4e55465f 	mrcmi	6, 2, r4, cr5, cr15, {2}
 8cc:	4c415f43 	mcrrmi	15, 4, r5, r1, cr3
 8d0:	47003254 	smlsdmi	r0, r4, r2, r3
 8d4:	5f4f4950 	svcpl	0x004f4950
 8d8:	434e5546 	movtmi	r5, #58694	; 0xe546
 8dc:	544c415f 	strbpl	r4, [ip], #-351	; 0x15f
 8e0:	50470033 	subpl	r0, r7, r3, lsr r0
 8e4:	465f4f49 	ldrbmi	r4, [pc], -r9, asr #30
 8e8:	5f434e55 	svcpl	0x00434e55
 8ec:	34544c41 	ldrbcc	r4, [r4], #-3137	; 0xc41
 8f0:	49504700 	ldmdbmi	r0, {r8, r9, sl, lr}^
 8f4:	55465f4f 	strbpl	r5, [r6, #-3919]	; 0xf4f
 8f8:	415f434e 	cmpmi	pc, lr, asr #6
 8fc:	0035544c 	eorseq	r5, r5, ip, asr #8
 900:	5f676572 	svcpl	0x00676572
 904:	656c6573 	strbvs	r6, [ip, #-1395]!	; 0x573
 908:	67007463 	strvs	r7, [r0, -r3, ror #8]
 90c:	5f6f6970 	svcpl	0x006f6970
 910:	30726c63 	rsbscc	r6, r2, r3, ror #24
 914:	63796300 	cmnvs	r9, #0, 6
 918:	7265705f 	rsbvc	r7, r5, #95	; 0x5f
 91c:	7469625f 	strbtvc	r6, [r9], #-607	; 0x25f
 920:	69727700 	ldmdbvs	r2!, {r8, r9, sl, ip, sp, lr}^
 924:	635f6574 	cmpvs	pc, #116, 10	; 0x1d000000
 928:	755f6379 	ldrbvc	r6, [pc, #-889]	; 5b7 <_start-0x7a49>
 92c:	6c69746e 	cfstrdvs	mvd7, [r9], #-440	; 0xfffffe48
 930:	5f777300 	svcpl	0x00777300
 934:	74726175 	ldrbtvc	r6, [r2], #-373	; 0x175
 938:	7465675f 	strbtvc	r6, [r5], #-1887	; 0x75f
 93c:	69745f63 	ldmdbvs	r4!, {r0, r1, r5, r6, r8, r9, sl, fp, ip, lr}^
 940:	756f656d 	strbvc	r6, [pc, #-1389]!	; 3db <_start-0x7c25>
 944:	77730074 			; <UNDEFINED> instruction: 0x77730074
 948:	7261755f 	rsbvc	r7, r1, #398458880	; 0x17c00000
 94c:	65675f74 	strbvs	r5, [r7, #-3956]!	; 0xf74
 950:	755f7374 	ldrbvc	r7, [pc, #-884]	; 5e4 <_start-0x7a1c>
 954:	6c69746e 	cfstrdvs	mvd7, [r9], #-440	; 0xfffffe48
 958:	5f777300 	svcpl	0x00777300
 95c:	74726175 	ldrbtvc	r6, [r2], #-373	; 0x175
 960:	7465675f 	strbtvc	r6, [r5], #-1887	; 0x75f
 964:	65640063 	strbvs	r0, [r4, #-99]!	; 0x63
 968:	65766972 	ldrbvs	r6, [r6, #-2418]!	; 0x972
 96c:	65640064 	strbvs	r0, [r4, #-100]!	; 0x64
 970:	5f79616c 	svcpl	0x0079616c
 974:	6379636e 	cmnvs	r9, #-1207959551	; 0xb8000001
 978:	0073656c 	rsbseq	r6, r3, ip, ror #10
 97c:	755f7773 	ldrbvc	r7, [pc, #-1907]	; 211 <_start-0x7def>
 980:	5f747261 	svcpl	0x00747261
 984:	74696e69 	strbtvc	r6, [r9], #-3689	; 0xe69
 988:	6c65685f 	stclvs	8, cr6, [r5], #-380	; 0xfffffe84
 98c:	00726570 	rsbseq	r6, r2, r0, ror r5
 990:	656d6974 	strbvs	r6, [sp, #-2420]!	; 0x974
 994:	5f74756f 	svcpl	0x0074756f
 998:	63657375 	cmnvs	r5, #-738197503	; 0xd4000001
 99c:	5f777300 	svcpl	0x00777300
 9a0:	74726175 	ldrbtvc	r6, [r2], #-373	; 0x175
 9a4:	7475705f 	ldrbtvc	r7, [r5], #-95	; 0x5f
 9a8:	796d006b 	stmdbvc	sp!, {r0, r1, r3, r5, r6}^
 9ac:	6372732d 	cmnvs	r2, #-1275068416	; 0xb4000000
 9b0:	2d77732f 	ldclcs	3, cr7, [r7, #-188]!	; 0xffffff44
 9b4:	74726175 	ldrbtvc	r6, [r2], #-373	; 0x175
 9b8:	6300632e 	movwvs	r6, #814	; 0x32e
 9bc:	5f726168 	svcpl	0x00726168
 9c0:	73006e69 	movwvc	r6, #3689	; 0xe69
 9c4:	61755f77 	cmnvs	r5, r7, ror pc
 9c8:	675f7472 			; <UNDEFINED> instruction: 0x675f7472
 9cc:	5f737465 	svcpl	0x00737465
 9d0:	656d6974 	strbvs	r6, [sp, #-2420]!	; 0x974
 9d4:	0074756f 	rsbseq	r7, r4, pc, ror #10
 9d8:	74756f5f 	ldrbtvc	r6, [r5], #-3935	; 0xf5f
 9dc:	79626e00 	stmdbvc	r2!, {r9, sl, fp, sp, lr}^
 9e0:	00736574 	rsbseq	r6, r3, r4, ror r5
 9e4:	63657375 	cmnvs	r5, #-738197503	; 0xd4000001
 9e8:	6d69745f 	cfstrdvs	mvd7, [r9, #-380]!	; 0xfffffe84
 9ec:	74756f65 	ldrbtvc	r6, [r5], #-3941	; 0xf65
 9f0:	5f777300 	svcpl	0x00777300
 9f4:	74726175 	ldrbtvc	r6, [r2], #-373	; 0x175
 9f8:	7465675f 	strbtvc	r6, [r5], #-1887	; 0x75f
 9fc:	6e755f73 	mrcvs	15, 3, r5, cr5, cr3, {3}
 a00:	5f6c6974 	svcpl	0x006c6974
 a04:	006b6c62 	rsbeq	r6, fp, r2, ror #24
 a08:	74696177 	strbtvc	r6, [r9], #-375	; 0x177
 a0c:	746e755f 	strbtvc	r7, [lr], #-1375	; 0x55f
 a10:	755f6c69 	ldrbvc	r6, [pc, #-3177]	; fffffdaf <__bss_end__+0xfffed88f>
 a14:	00636573 	rsbeq	r6, r3, r3, ror r5
 a18:	5f585541 	svcpl	0x00585541
 a1c:	4d5f554d 	cfldr64mi	mvdx5, [pc, #-308]	; 8f0 <_start-0x7710>
 a20:	525f5243 	subspl	r5, pc, #805306372	; 0x30000004
 a24:	41004745 	tstmi	r0, r5, asr #14
 a28:	4d5f5855 	ldclmi	8, cr5, [pc, #-340]	; 8dc <_start-0x7724>
 a2c:	4f495f55 	svcmi	0x00495f55
 a30:	4745525f 	smlsldmi	r5, r5, pc, r2	; <UNPREDICTABLE>
 a34:	58554100 	ldmdapl	r5, {r8, lr}^
 a38:	5f554d5f 	svcpl	0x00554d5f
 a3c:	5f52534d 	svcpl	0x0052534d
 a40:	00474552 	subeq	r4, r7, r2, asr r5
 a44:	74726175 	ldrbtvc	r6, [r2], #-373	; 0x175
 a48:	6e61635f 	mcrvs	3, 3, r6, cr1, cr15, {2}
 a4c:	7465675f 	strbtvc	r6, [r5], #-1887	; 0x75f
 a50:	55410063 	strbpl	r0, [r1, #-99]	; 0x63
 a54:	554d5f58 	strbpl	r5, [sp, #-3928]	; 0xf58
 a58:	544e435f 	strbpl	r4, [lr], #-863	; 0x35f
 a5c:	45525f4c 	ldrbmi	r5, [r2, #-3916]	; 0xf4c
 a60:	61750047 	cmnvs	r5, r7, asr #32
 a64:	685f7472 	ldmdavs	pc, {r1, r4, r5, r6, sl, ip, sp, lr}^	; <UNPREDICTABLE>
 a68:	645f7361 	ldrbvs	r7, [pc], #-865	; a70 <_start-0x7590>
 a6c:	00617461 	rsbeq	r7, r1, r1, ror #8
 a70:	5f585541 	svcpl	0x00585541
 a74:	495f554d 	ldmdbmi	pc, {r0, r2, r3, r6, r8, sl, ip, lr}^	; <UNPREDICTABLE>
 a78:	525f5245 	subspl	r5, pc, #1342177284	; 0x50000004
 a7c:	41004745 	tstmi	r0, r5, asr #14
 a80:	4d5f5855 	ldclmi	8, cr5, [pc, #-340]	; 934 <_start-0x76cc>
 a84:	49495f55 	stmdbmi	r9, {r0, r2, r4, r6, r8, r9, sl, fp, ip, lr}^
 a88:	45525f52 	ldrbmi	r5, [r2, #-3922]	; 0xf52
 a8c:	61750047 	cmnvs	r5, r7, asr #32
 a90:	635f7472 	cmpvs	pc, #1912602624	; 0x72000000
 a94:	705f6e61 	subsvc	r6, pc, r1, ror #28
 a98:	00637475 	rsbeq	r7, r3, r5, ror r4
 a9c:	5f585541 	svcpl	0x00585541
 aa0:	42414e45 	submi	r4, r1, #1104	; 0x450
 aa4:	0053454c 	subseq	r4, r3, ip, asr #10
 aa8:	5f585541 	svcpl	0x00585541
 aac:	00515249 	subseq	r5, r1, r9, asr #4
 ab0:	5f585541 	svcpl	0x00585541
 ab4:	425f554d 	subsmi	r5, pc, #322961408	; 0x13400000
 ab8:	5f445541 	svcpl	0x00445541
 abc:	00474552 	subeq	r4, r7, r2, asr r5
 ac0:	5f585541 	svcpl	0x00585541
 ac4:	535f554d 	cmppl	pc, #322961408	; 0x13400000
 ac8:	5f544154 	svcpl	0x00544154
 acc:	00474552 	subeq	r4, r7, r2, asr r5
 ad0:	5f585541 	svcpl	0x00585541
 ad4:	535f554d 	cmppl	pc, #322961408	; 0x13400000
 ad8:	54415243 	strbpl	r5, [r1], #-579	; 0x243
 adc:	6d004843 	stcvs	8, cr4, [r0, #-268]	; 0xfffffef4
 ae0:	72732d79 	rsbsvc	r2, r3, #7744	; 0x1e40
 ae4:	61752f63 	cmnvs	r5, r3, ror #30
 ae8:	632e7472 	teqvs	lr, #1912602624	; 0x72000000
 aec:	58554100 	ldmdapl	r5, {r8, lr}^
 af0:	5f554d5f 	svcpl	0x00554d5f
 af4:	5f52434c 	svcpl	0x0052434c
 af8:	00474552 	subeq	r4, r7, r2, asr r5
 afc:	5f585541 	svcpl	0x00585541
 b00:	4c5f554d 	cfldr64mi	mvdx5, [pc], {77}	; 0x4d
 b04:	525f5253 	subspl	r5, pc, #805306373	; 0x30000005
 b08:	75004745 	strvc	r4, [r0, #-1861]	; 0x745
 b0c:	5f747261 	svcpl	0x00747261
 b10:	63746567 	cmnvs	r4, #432013312	; 0x19c00000
 b14:	7973615f 	ldmdbvc	r3!, {r0, r1, r2, r3, r4, r6, r8, sp, lr}^
 b18:	7000636e 	andvc	r6, r0, lr, ror #6
 b1c:	65666572 	strbvs	r6, [r6, #-1394]!	; 0x572
 b20:	5f686374 	svcpl	0x00686374
 b24:	726f6261 	rsbvc	r6, pc, #268435462	; 0x10000006
 b28:	65765f74 	ldrbvs	r5, [r6, #-3956]!	; 0xf74
 b2c:	726f7463 	rsbvc	r7, pc, #1660944384	; 0x63000000
 b30:	73694400 	cmnvc	r9, #0, 8
 b34:	656c6261 	strbvs	r6, [ip, #-609]!	; 0x261
 b38:	7361425f 	cmnvc	r1, #-268435451	; 0xf0000005
 b3c:	495f6369 	ldmdbmi	pc, {r0, r3, r5, r6, r8, r9, sp, lr}^	; <UNPREDICTABLE>
 b40:	00735152 	rsbseq	r5, r3, r2, asr r1
 b44:	5f514946 	svcpl	0x00514946
 b48:	746e6f63 	strbtvc	r6, [lr], #-3939	; 0xf63
 b4c:	006c6f72 	rsbeq	r6, ip, r2, ror pc
 b50:	746e695f 	strbtvc	r6, [lr], #-2399	; 0x95f
 b54:	75727265 	ldrbvc	r7, [r2, #-613]!	; 0x265
 b58:	745f7470 	ldrbvc	r7, [pc], #-1136	; b60 <_start-0x74a0>
 b5c:	656c6261 	strbvs	r6, [ip, #-609]!	; 0x261
 b60:	51524900 	cmppl	r2, r0, lsl #18
 b64:	7361625f 	cmnvc	r1, #-268435451	; 0xf0000005
 b68:	705f6369 	subsvc	r6, pc, r9, ror #6
 b6c:	69646e65 	stmdbvs	r4!, {r0, r2, r5, r6, r9, sl, fp, sp, lr}^
 b70:	4500676e 	strmi	r6, [r0, #-1902]	; 0x76e
 b74:	6c62616e 	stfvse	f6, [r2], #-440	; 0xfffffe48
 b78:	61425f65 	cmpvs	r2, r5, ror #30
 b7c:	5f636973 	svcpl	0x00636973
 b80:	73515249 	cmpvc	r1, #-1879048188	; 0x90000004
 b84:	616e4500 	cmnvs	lr, r0, lsl #10
 b88:	5f656c62 	svcpl	0x00656c62
 b8c:	73515249 	cmpvc	r1, #-1879048188	; 0x90000004
 b90:	4500315f 	strmi	r3, [r0, #-351]	; 0x15f
 b94:	6c62616e 	stfvse	f6, [r2], #-440	; 0xfffffe48
 b98:	52495f65 	subpl	r5, r9, #404	; 0x194
 b9c:	325f7351 	subscc	r7, pc, #1140850689	; 0x44000001
 ba0:	6e695f00 	cdpvs	15, 6, cr5, cr9, cr0, {0}
 ba4:	72726574 	rsbsvc	r6, r2, #116, 10	; 0x1d000000
 ba8:	5f747075 	svcpl	0x00747075
 bac:	6c626174 	stfvse	f6, [r2], #-464	; 0xfffffe30
 bb0:	6e655f65 	cdpvs	15, 6, cr5, cr5, cr5, {3}
 bb4:	61640064 	cmnvs	r4, r4, rrx
 bb8:	615f6174 	cmpvs	pc, r4, ror r1	; <UNPREDICTABLE>
 bbc:	74726f62 	ldrbtvc	r6, [r2], #-3938	; 0xf62
 bc0:	6365765f 	cmnvs	r5, #99614720	; 0x5f00000
 bc4:	00726f74 	rsbseq	r6, r2, r4, ror pc
 bc8:	5f515249 	svcpl	0x00515249
 bcc:	646e6570 	strbtvs	r6, [lr], #-1392	; 0x570
 bd0:	5f676e69 	svcpl	0x00676e69
 bd4:	73630032 	cmnvc	r3, #50	; 0x32
 bd8:	65303431 	ldrvs	r3, [r0, #-1073]!	; 0x431
 bdc:	746e692d 	strbtvc	r6, [lr], #-2349	; 0x92d
 be0:	75727265 	ldrbvc	r7, [r2, #-613]!	; 0x265
 be4:	692f7470 	stmdbvs	pc!, {r4, r5, r6, sl, ip, sp, lr}	; <UNPREDICTABLE>
 be8:	7265746e 	rsbvc	r7, r5, #1845493760	; 0x6e000000
 bec:	74707572 	ldrbtvc	r7, [r0], #-1394	; 0x572
 bf0:	2e632d73 	mcrcs	13, 3, r2, cr3, cr3, {3}
 bf4:	52490063 	subpl	r0, r9, #99	; 0x63
 bf8:	65705f51 	ldrbvs	r5, [r0, #-3921]!	; 0xf51
 bfc:	6e69646e 	cdpvs	4, 6, cr6, cr9, cr14, {3}
 c00:	00315f67 	eorseq	r5, r1, r7, ror #30
 c04:	65646e75 	strbvs	r6, [r4, #-3701]!	; 0xe75
 c08:	656e6966 	strbvs	r6, [lr, #-2406]!	; 0x966
 c0c:	6e695f64 	cdpvs	15, 6, cr5, cr9, cr4, {3}
 c10:	75727473 	ldrbvc	r7, [r2, #-1139]!	; 0x473
 c14:	6f697463 	svcvs	0x00697463
 c18:	65765f6e 	ldrbvs	r5, [r6, #-3950]!	; 0xf6e
 c1c:	726f7463 	rsbvc	r7, pc, #1660944384	; 0x63000000
 c20:	73657200 	cmnvc	r5, #0, 4
 c24:	765f7465 	ldrbvc	r7, [pc], -r5, ror #8
 c28:	6f746365 	svcvs	0x00746365
 c2c:	6f730072 	svcvs	0x00730072
 c30:	61777466 	cmnvs	r7, r6, ror #8
 c34:	695f6572 	ldmdbvs	pc, {r1, r4, r5, r6, r8, sl, sp, lr}^	; <UNPREDICTABLE>
 c38:	7265746e 	rsbvc	r7, r5, #1845493760	; 0x6e000000
 c3c:	74707572 	ldrbtvc	r7, [r0], #-1394	; 0x572
 c40:	6365765f 	cmnvs	r5, #99614720	; 0x5f00000
 c44:	00726f74 	rsbseq	r6, r2, r4, ror pc
 c48:	61736944 	cmnvs	r3, r4, asr #18
 c4c:	5f656c62 	svcpl	0x00656c62
 c50:	73515249 	cmpvc	r1, #-1879048188	; 0x90000004
 c54:	4400315f 	strmi	r3, [r0], #-351	; 0x15f
 c58:	62617369 	rsbvs	r7, r1, #-1543503871	; 0xa4000001
 c5c:	495f656c 	ldmdbmi	pc, {r2, r3, r5, r6, r8, sl, sp, lr}^	; <UNPREDICTABLE>
 c60:	5f735152 	svcpl	0x00735152
 c64:	61660032 	cmnvs	r6, r2, lsr r0
 c68:	695f7473 	ldmdbvs	pc, {r0, r1, r4, r5, r6, sl, ip, sp, lr}^	; <UNPREDICTABLE>
 c6c:	7265746e 	rsbvc	r7, r5, #1845493760	; 0x6e000000
 c70:	74707572 	ldrbtvc	r7, [r0], #-1394	; 0x572
 c74:	6365765f 	cmnvs	r5, #99614720	; 0x5f00000
 c78:	00726f74 	rsbseq	r6, r2, r4, ror pc
 c7c:	5f515249 	svcpl	0x00515249
 c80:	65736142 	ldrbvs	r6, [r3, #-322]!	; 0x142
 c84:	5f626300 	svcpl	0x00626300
 c88:	0077656e 	rsbseq	r6, r7, lr, ror #10
 c8c:	34317363 	ldrtcc	r7, [r1], #-867	; 0x363
 c90:	732d6530 	teqvc	sp, #48, 10	; 0xc000000
 c94:	632f6372 	teqvs	pc, #-939524095	; 0xc8000001
 c98:	72746e6f 	rsbsvc	r6, r4, #1776	; 0x6f0
 c9c:	622d6c6f 	eorvs	r6, sp, #28416	; 0x6f00
 ca0:	6b636f6c 	blvs	18dca58 <__bss_end__+0x18ca538>
 ca4:	Address 0x0000000000000ca4 is out of bounds.


Disassembly of section .debug_frame:

00000000 <.debug_frame>:
   0:	0000000c 	andeq	r0, r0, ip
   4:	ffffffff 			; <UNDEFINED> instruction: 0xffffffff
   8:	7c020001 	stcvc	0, cr0, [r2], {1}
   c:	000d0c0e 	andeq	r0, sp, lr, lsl #24
  10:	00000018 	andeq	r0, r0, r8, lsl r0
  14:	00000000 	andeq	r0, r0, r0
  18:	00008010 	andeq	r8, r0, r0, lsl r0
  1c:	000001b4 			; <UNDEFINED> instruction: 0x000001b4
  20:	83100e42 	tsthi	r0, #1056	; 0x420
  24:	85038404 	strhi	r8, [r3, #-1028]	; 0x404
  28:	00018e02 	andeq	r8, r1, r2, lsl #28
  2c:	00000014 	andeq	r0, r0, r4, lsl r0
  30:	00000000 	andeq	r0, r0, r0
  34:	000081c4 	andeq	r8, r0, r4, asr #3
  38:	00000078 	andeq	r0, r0, r8, ror r0
  3c:	83080e42 	movwhi	r0, #36418	; 0x8e42
  40:	00018e02 	andeq	r8, r1, r2, lsl #28
  44:	00000014 	andeq	r0, r0, r4, lsl r0
  48:	00000000 	andeq	r0, r0, r0
  4c:	0000823c 	andeq	r8, r0, ip, lsr r2
  50:	00000060 	andeq	r0, r0, r0, rrx
  54:	83080e42 	movwhi	r0, #36418	; 0x8e42
  58:	00018e02 	andeq	r8, r1, r2, lsl #28
  5c:	00000014 	andeq	r0, r0, r4, lsl r0
  60:	00000000 	andeq	r0, r0, r0
  64:	0000829c 	muleq	r0, ip, r2
  68:	00000068 	andeq	r0, r0, r8, rrx
  6c:	83080e42 	movwhi	r0, #36418	; 0x8e42
  70:	00018e02 	andeq	r8, r1, r2, lsl #28
  74:	0000000c 	andeq	r0, r0, ip
  78:	ffffffff 			; <UNDEFINED> instruction: 0xffffffff
  7c:	7c020001 	stcvc	0, cr0, [r2], {1}
  80:	000d0c0e 	andeq	r0, sp, lr, lsl #24
  84:	0000000c 	andeq	r0, r0, ip
  88:	00000074 	andeq	r0, r0, r4, ror r0
  8c:	00008304 	andeq	r8, r0, r4, lsl #6
  90:	00000020 	andeq	r0, r0, r0, lsr #32
  94:	0000000c 	andeq	r0, r0, ip
  98:	ffffffff 			; <UNDEFINED> instruction: 0xffffffff
  9c:	7c020001 	stcvc	0, cr0, [r2], {1}
  a0:	000d0c0e 	andeq	r0, sp, lr, lsl #24
  a4:	00000024 	andeq	r0, r0, r4, lsr #32
  a8:	00000094 	muleq	r0, r4, r0
  ac:	00008324 	andeq	r8, r0, r4, lsr #6
  b0:	00000058 	andeq	r0, r0, r8, asr r0
  b4:	80100e42 	andshi	r0, r0, r2, asr #28
  b8:	82038104 	andhi	r8, r3, #4, 2
  bc:	42018302 	andmi	r8, r1, #134217728	; 0x8000000
  c0:	07841c0e 	streq	r1, [r4, lr, lsl #24]
  c4:	058e0685 	streq	r0, [lr, #1669]	; 0x685
  c8:	00280e42 	eoreq	r0, r8, r2, asr #28
  cc:	0000000c 	andeq	r0, r0, ip
  d0:	ffffffff 			; <UNDEFINED> instruction: 0xffffffff
  d4:	7c020001 	stcvc	0, cr0, [r2], {1}
  d8:	000d0c0e 	andeq	r0, sp, lr, lsl #24
  dc:	00000014 	andeq	r0, r0, r4, lsl r0
  e0:	000000cc 	andeq	r0, r0, ip, asr #1
  e4:	0000837c 	andeq	r8, r0, ip, ror r3
  e8:	00000014 	andeq	r0, r0, r4, lsl r0
  ec:	84080e42 	strhi	r0, [r8], #-3650	; 0xe42
  f0:	00018e02 	andeq	r8, r1, r2, lsl #28
  f4:	0000000c 	andeq	r0, r0, ip
  f8:	000000cc 	andeq	r0, r0, ip, asr #1
  fc:	00008390 	muleq	r0, r0, r3
 100:	00000018 	andeq	r0, r0, r8, lsl r0
 104:	0000000c 	andeq	r0, r0, ip
 108:	000000cc 	andeq	r0, r0, ip, asr #1
 10c:	000083a8 	andeq	r8, r0, r8, lsr #7
 110:	00000010 	andeq	r0, r0, r0, lsl r0
 114:	0000000c 	andeq	r0, r0, ip
 118:	ffffffff 			; <UNDEFINED> instruction: 0xffffffff
 11c:	7c020001 	stcvc	0, cr0, [r2], {1}
 120:	000d0c0e 	andeq	r0, sp, lr, lsl #24
 124:	00000018 	andeq	r0, r0, r8, lsl r0
 128:	00000114 	andeq	r0, r0, r4, lsl r1
 12c:	000083b8 			; <UNDEFINED> instruction: 0x000083b8
 130:	00000034 	andeq	r0, r0, r4, lsr r0
 134:	83100e42 	tsthi	r0, #1056	; 0x420
 138:	85038404 	strhi	r8, [r3, #-1028]	; 0x404
 13c:	00018e02 	andeq	r8, r1, r2, lsl #28
 140:	0000000c 	andeq	r0, r0, ip
 144:	ffffffff 			; <UNDEFINED> instruction: 0xffffffff
 148:	7c020001 	stcvc	0, cr0, [r2], {1}
 14c:	000d0c0e 	andeq	r0, sp, lr, lsl #24
 150:	0000000c 	andeq	r0, r0, ip
 154:	00000140 	andeq	r0, r0, r0, asr #2
 158:	000083ec 	andeq	r8, r0, ip, ror #7
 15c:	00000014 	andeq	r0, r0, r4, lsl r0
 160:	0000000c 	andeq	r0, r0, ip
 164:	00000140 	andeq	r0, r0, r0, asr #2
 168:	00008400 	andeq	r8, r0, r0, lsl #8
 16c:	0000002c 	andeq	r0, r0, ip, lsr #32
 170:	0000000c 	andeq	r0, r0, ip
 174:	00000140 	andeq	r0, r0, r0, asr #2
 178:	0000842c 	andeq	r8, r0, ip, lsr #8
 17c:	00000040 	andeq	r0, r0, r0, asr #32
 180:	00000020 	andeq	r0, r0, r0, lsr #32
 184:	00000140 	andeq	r0, r0, r0, asr #2
 188:	0000846c 	andeq	r8, r0, ip, ror #8
 18c:	0000019c 	muleq	r0, ip, r1
 190:	84180e42 	ldrhi	r0, [r8], #-3650	; 0xe42
 194:	86058506 	strhi	r8, [r5], -r6, lsl #10
 198:	88038704 	stmdahi	r3, {r2, r8, r9, sl, pc}
 19c:	42018e02 	andmi	r8, r1, #2, 28
 1a0:	0000580e 	andeq	r5, r0, lr, lsl #16
 1a4:	00000014 	andeq	r0, r0, r4, lsl r0
 1a8:	00000140 	andeq	r0, r0, r0, asr #2
 1ac:	00008608 	andeq	r8, r0, r8, lsl #12
 1b0:	00000054 	andeq	r0, r0, r4, asr r0
 1b4:	83080e42 	movwhi	r0, #36418	; 0x8e42
 1b8:	00018e02 	andeq	r8, r1, r2, lsl #28
 1bc:	00000028 	andeq	r0, r0, r8, lsr #32
 1c0:	00000140 	andeq	r0, r0, r0, asr #2
 1c4:	0000865c 	andeq	r8, r0, ip, asr r6
 1c8:	00000288 	andeq	r0, r0, r8, lsl #5
 1cc:	84240e42 	strthi	r0, [r4], #-3650	; 0xe42
 1d0:	86088509 	strhi	r8, [r8], -r9, lsl #10
 1d4:	88068707 	stmdahi	r6, {r0, r1, r2, r8, r9, sl, pc}
 1d8:	8a048905 	bhi	1225f4 <__bss_end__+0x1100d4>
 1dc:	8e028b03 	vmlahi.f64	d8, d2, d3
 1e0:	b00e4201 	andlt	r4, lr, r1, lsl #4
 1e4:	00000001 	andeq	r0, r0, r1
 1e8:	0000000c 	andeq	r0, r0, ip
 1ec:	ffffffff 			; <UNDEFINED> instruction: 0xffffffff
 1f0:	7c020001 	stcvc	0, cr0, [r2], {1}
 1f4:	000d0c0e 	andeq	r0, sp, lr, lsl #24
 1f8:	0000000c 	andeq	r0, r0, ip
 1fc:	000001e8 	andeq	r0, r0, r8, ror #3
 200:	000088e4 	andeq	r8, r0, r4, ror #17
 204:	00000010 	andeq	r0, r0, r0, lsl r0
 208:	0000000c 	andeq	r0, r0, ip
 20c:	000001e8 	andeq	r0, r0, r8, ror #3
 210:	000088f4 	strdeq	r8, [r0], -r4
 214:	00000010 	andeq	r0, r0, r0, lsl r0
 218:	0000000c 	andeq	r0, r0, ip
 21c:	ffffffff 			; <UNDEFINED> instruction: 0xffffffff
 220:	7c020001 	stcvc	0, cr0, [r2], {1}
 224:	000d0c0e 	andeq	r0, sp, lr, lsl #24
 228:	00000014 	andeq	r0, r0, r4, lsl r0
 22c:	00000218 	andeq	r0, r0, r8, lsl r2
 230:	00008904 	andeq	r8, r0, r4, lsl #18
 234:	00000028 	andeq	r0, r0, r8, lsr #32
 238:	83080e42 	movwhi	r0, #36418	; 0x8e42
 23c:	00018e02 	andeq	r8, r1, r2, lsl #28
 240:	0000000c 	andeq	r0, r0, ip
 244:	ffffffff 			; <UNDEFINED> instruction: 0xffffffff
 248:	7c020001 	stcvc	0, cr0, [r2], {1}
 24c:	000d0c0e 	andeq	r0, sp, lr, lsl #24
 250:	00000014 	andeq	r0, r0, r4, lsl r0
 254:	00000240 	andeq	r0, r0, r0, asr #4
 258:	0000892c 	andeq	r8, r0, ip, lsr #18
 25c:	00000020 	andeq	r0, r0, r0, lsr #32
 260:	84080e42 	strhi	r0, [r8], #-3650	; 0xe42
 264:	00018e02 	andeq	r8, r1, r2, lsl #28
 268:	00000014 	andeq	r0, r0, r4, lsl r0
 26c:	00000240 	andeq	r0, r0, r0, asr #4
 270:	0000894c 	andeq	r8, r0, ip, asr #18
 274:	00000090 	muleq	r0, r0, r0
 278:	83080e42 	movwhi	r0, #36418	; 0x8e42
 27c:	00018e02 	andeq	r8, r1, r2, lsl #28
 280:	0000000c 	andeq	r0, r0, ip
 284:	ffffffff 			; <UNDEFINED> instruction: 0xffffffff
 288:	7c020001 	stcvc	0, cr0, [r2], {1}
 28c:	000d0c0e 	andeq	r0, sp, lr, lsl #24
 290:	0000000c 	andeq	r0, r0, ip
 294:	00000280 	andeq	r0, r0, r0, lsl #5
 298:	000089dc 	ldrdeq	r8, [r0], -ip
 29c:	00000018 	andeq	r0, r0, r8, lsl r0
 2a0:	0000000c 	andeq	r0, r0, ip
 2a4:	00000280 	andeq	r0, r0, r0, lsl #5
 2a8:	000089f4 	strdeq	r8, [r0], -r4
 2ac:	00000014 	andeq	r0, r0, r4, lsl r0
 2b0:	00000014 	andeq	r0, r0, r4, lsl r0
 2b4:	00000280 	andeq	r0, r0, r0, lsl #5
 2b8:	00008a08 	andeq	r8, r0, r8, lsl #20
 2bc:	00000048 	andeq	r0, r0, r8, asr #32
 2c0:	83080e42 	movwhi	r0, #36418	; 0x8e42
 2c4:	00018e02 	andeq	r8, r1, r2, lsl #28
 2c8:	0000000c 	andeq	r0, r0, ip
 2cc:	ffffffff 			; <UNDEFINED> instruction: 0xffffffff
 2d0:	7c020001 	stcvc	0, cr0, [r2], {1}
 2d4:	000d0c0e 	andeq	r0, sp, lr, lsl #24
 2d8:	0000000c 	andeq	r0, r0, ip
 2dc:	000002c8 	andeq	r0, r0, r8, asr #5
 2e0:	00008a50 	andeq	r8, r0, r0, asr sl
 2e4:	0000001c 	andeq	r0, r0, ip, lsl r0
 2e8:	00000014 	andeq	r0, r0, r4, lsl r0
 2ec:	000002c8 	andeq	r0, r0, r8, asr #5
 2f0:	00008a6c 	andeq	r8, r0, ip, ror #20
 2f4:	00000014 	andeq	r0, r0, r4, lsl r0
 2f8:	83080e42 	movwhi	r0, #36418	; 0x8e42
 2fc:	00018e02 	andeq	r8, r1, r2, lsl #28
 300:	00000014 	andeq	r0, r0, r4, lsl r0
 304:	000002c8 	andeq	r0, r0, r8, asr #5
 308:	00008a80 	andeq	r8, r0, r0, lsl #21
 30c:	0000000c 	andeq	r0, r0, ip
 310:	83080e42 	movwhi	r0, #36418	; 0x8e42
 314:	00018e02 	andeq	r8, r1, r2, lsl #28
 318:	00000018 	andeq	r0, r0, r8, lsl r0
 31c:	000002c8 	andeq	r0, r0, r8, asr #5
 320:	00008a8c 	andeq	r8, r0, ip, lsl #21
 324:	00000024 	andeq	r0, r0, r4, lsr #32
 328:	83100e42 	tsthi	r0, #1056	; 0x420
 32c:	85038404 	strhi	r8, [r3, #-1028]	; 0x404
 330:	00018e02 	andeq	r8, r1, r2, lsl #28
 334:	00000014 	andeq	r0, r0, r4, lsl r0
 338:	000002c8 	andeq	r0, r0, r8, asr #5
 33c:	00008ab0 			; <UNDEFINED> instruction: 0x00008ab0
 340:	00000014 	andeq	r0, r0, r4, lsl r0
 344:	83080e42 	movwhi	r0, #36418	; 0x8e42
 348:	00018e02 	andeq	r8, r1, r2, lsl #28
 34c:	00000014 	andeq	r0, r0, r4, lsl r0
 350:	000002c8 	andeq	r0, r0, r8, asr #5
 354:	00008ac4 	andeq	r8, r0, r4, asr #21
 358:	00000014 	andeq	r0, r0, r4, lsl r0
 35c:	83080e42 	movwhi	r0, #36418	; 0x8e42
 360:	00018e02 	andeq	r8, r1, r2, lsl #28
 364:	0000000c 	andeq	r0, r0, ip
 368:	ffffffff 			; <UNDEFINED> instruction: 0xffffffff
 36c:	7c020001 	stcvc	0, cr0, [r2], {1}
 370:	000d0c0e 	andeq	r0, sp, lr, lsl #24
 374:	00000018 	andeq	r0, r0, r8, lsl r0
 378:	00000364 	andeq	r0, r0, r4, ror #6
 37c:	00008ad8 	ldrdeq	r8, [r0], -r8	; <UNPREDICTABLE>
 380:	000000d4 	ldrdeq	r0, [r0], -r4
 384:	83100e42 	tsthi	r0, #1056	; 0x420
 388:	85038404 	strhi	r8, [r3, #-1028]	; 0x404
 38c:	00018e02 	andeq	r8, r1, r2, lsl #28
 390:	00000014 	andeq	r0, r0, r4, lsl r0
 394:	00000364 	andeq	r0, r0, r4, ror #6
 398:	00008bac 	andeq	r8, r0, ip, lsr #23
 39c:	00000038 	andeq	r0, r0, r8, lsr r0
 3a0:	83080e42 	movwhi	r0, #36418	; 0x8e42
 3a4:	00018e02 	andeq	r8, r1, r2, lsl #28
 3a8:	00000014 	andeq	r0, r0, r4, lsl r0
 3ac:	00000364 	andeq	r0, r0, r4, ror #6
 3b0:	00008be4 	andeq	r8, r0, r4, ror #23
 3b4:	00000038 	andeq	r0, r0, r8, lsr r0
 3b8:	83080e42 	movwhi	r0, #36418	; 0x8e42
 3bc:	00018e02 	andeq	r8, r1, r2, lsl #28
 3c0:	00000018 	andeq	r0, r0, r8, lsl r0
 3c4:	00000364 	andeq	r0, r0, r4, ror #6
 3c8:	00008c1c 	andeq	r8, r0, ip, lsl ip
 3cc:	000000cc 	andeq	r0, r0, ip, asr #1
 3d0:	83100e42 	tsthi	r0, #1056	; 0x420
 3d4:	85038404 	strhi	r8, [r3, #-1028]	; 0x404
 3d8:	00018e02 	andeq	r8, r1, r2, lsl #28
 3dc:	00000014 	andeq	r0, r0, r4, lsl r0
 3e0:	00000364 	andeq	r0, r0, r4, ror #6
 3e4:	00008ce8 	andeq	r8, r0, r8, ror #25
 3e8:	0000004c 	andeq	r0, r0, ip, asr #32
 3ec:	84080e42 	strhi	r0, [r8], #-3650	; 0xe42
 3f0:	00018e02 	andeq	r8, r1, r2, lsl #28
 3f4:	00000014 	andeq	r0, r0, r4, lsl r0
 3f8:	00000364 	andeq	r0, r0, r4, ror #6
 3fc:	00008d34 	andeq	r8, r0, r4, lsr sp
 400:	00000024 	andeq	r0, r0, r4, lsr #32
 404:	83080e42 	movwhi	r0, #36418	; 0x8e42
 408:	00018e02 	andeq	r8, r1, r2, lsl #28
 40c:	00000018 	andeq	r0, r0, r8, lsl r0
 410:	00000364 	andeq	r0, r0, r4, ror #6
 414:	00008d58 	andeq	r8, r0, r8, asr sp
 418:	000000d8 	ldrdeq	r0, [r0], -r8
 41c:	84100e42 	ldrhi	r0, [r0], #-3650	; 0xe42
 420:	86038504 	strhi	r8, [r3], -r4, lsl #10
 424:	00018e02 	andeq	r8, r1, r2, lsl #28
 428:	00000014 	andeq	r0, r0, r4, lsl r0
 42c:	00000364 	andeq	r0, r0, r4, ror #6
 430:	00008e30 	andeq	r8, r0, r0, lsr lr
 434:	0000002c 	andeq	r0, r0, ip, lsr #32
 438:	83080e42 	movwhi	r0, #36418	; 0x8e42
 43c:	00018e02 	andeq	r8, r1, r2, lsl #28
 440:	00000018 	andeq	r0, r0, r8, lsl r0
 444:	00000364 	andeq	r0, r0, r4, ror #6
 448:	00008e5c 	andeq	r8, r0, ip, asr lr
 44c:	00000084 	andeq	r0, r0, r4, lsl #1
 450:	83100e42 	tsthi	r0, #1056	; 0x420
 454:	85038404 	strhi	r8, [r3, #-1028]	; 0x404
 458:	00018e02 	andeq	r8, r1, r2, lsl #28
 45c:	00000018 	andeq	r0, r0, r8, lsl r0
 460:	00000364 	andeq	r0, r0, r4, ror #6
 464:	00008ee0 	andeq	r8, r0, r0, ror #29
 468:	00000084 	andeq	r0, r0, r4, lsl #1
 46c:	83100e42 	tsthi	r0, #1056	; 0x420
 470:	85038404 	strhi	r8, [r3, #-1028]	; 0x404
 474:	00018e02 	andeq	r8, r1, r2, lsl #28
 478:	00000014 	andeq	r0, r0, r4, lsl r0
 47c:	00000364 	andeq	r0, r0, r4, ror #6
 480:	00008f64 	andeq	r8, r0, r4, ror #30
 484:	00000084 	andeq	r0, r0, r4, lsl #1
 488:	84080e42 	strhi	r0, [r8], #-3650	; 0xe42
 48c:	00018e02 	andeq	r8, r1, r2, lsl #28
 490:	00000014 	andeq	r0, r0, r4, lsl r0
 494:	00000364 	andeq	r0, r0, r4, ror #6
 498:	00008fe8 	andeq	r8, r0, r8, ror #31
 49c:	00000058 	andeq	r0, r0, r8, asr r0
 4a0:	84080e42 	strhi	r0, [r8], #-3650	; 0xe42
 4a4:	00018e02 	andeq	r8, r1, r2, lsl #28
 4a8:	0000000c 	andeq	r0, r0, ip
 4ac:	ffffffff 			; <UNDEFINED> instruction: 0xffffffff
 4b0:	7c020001 	stcvc	0, cr0, [r2], {1}
 4b4:	000d0c0e 	andeq	r0, sp, lr, lsl #24
 4b8:	0000001c 	andeq	r0, r0, ip, lsl r0
 4bc:	000004a8 	andeq	r0, r0, r8, lsr #9
 4c0:	00009040 	andeq	r9, r0, r0, asr #32
 4c4:	00000154 	andeq	r0, r0, r4, asr r1
 4c8:	84180e42 	ldrhi	r0, [r8], #-3650	; 0xe42
 4cc:	86058506 	strhi	r8, [r5], -r6, lsl #10
 4d0:	88038704 	stmdahi	r3, {r2, r8, r9, sl, pc}
 4d4:	00018e02 	andeq	r8, r1, r2, lsl #28
 4d8:	00000020 	andeq	r0, r0, r0, lsr #32
 4dc:	000004a8 	andeq	r0, r0, r8, lsr #9
 4e0:	00009194 	muleq	r0, r4, r1
 4e4:	000001c8 	andeq	r0, r0, r8, asr #3
 4e8:	83200e42 	teqhi	r0, #1056	; 0x420
 4ec:	85078408 	strhi	r8, [r7, #-1032]	; 0x408
 4f0:	87058606 	strhi	r8, [r5, -r6, lsl #12]
 4f4:	89038804 	stmdbhi	r3, {r2, fp, pc}
 4f8:	00018e02 	andeq	r8, r1, r2, lsl #28
 4fc:	00000020 	andeq	r0, r0, r0, lsr #32
 500:	000004a8 	andeq	r0, r0, r8, lsr #9
 504:	0000935c 	andeq	r9, r0, ip, asr r3
 508:	00000090 	muleq	r0, r0, r0
 50c:	84200e42 	strthi	r0, [r0], #-3650	; 0xe42
 510:	86078508 	strhi	r8, [r7], -r8, lsl #10
 514:	88058706 	stmdahi	r5, {r1, r2, r8, r9, sl, pc}
 518:	8a038904 	bhi	e2930 <__bss_end__+0xd0410>
 51c:	00018e02 	andeq	r8, r1, r2, lsl #28
 520:	0000001c 	andeq	r0, r0, ip, lsl r0
 524:	000004a8 	andeq	r0, r0, r8, lsr #9
 528:	000093ec 	andeq	r9, r0, ip, ror #7
 52c:	0000007c 	andeq	r0, r0, ip, ror r0
 530:	84180e42 	ldrhi	r0, [r8], #-3650	; 0xe42
 534:	86058506 	strhi	r8, [r5], -r6, lsl #10
 538:	88038704 	stmdahi	r3, {r2, r8, r9, sl, pc}
 53c:	00018e02 	andeq	r8, r1, r2, lsl #28
 540:	0000001c 	andeq	r0, r0, ip, lsl r0
 544:	000004a8 	andeq	r0, r0, r8, lsr #9
 548:	00009468 	andeq	r9, r0, r8, ror #8
 54c:	000000c0 	andeq	r0, r0, r0, asr #1
 550:	84180e42 	ldrhi	r0, [r8], #-3650	; 0xe42
 554:	86058506 	strhi	r8, [r5], -r6, lsl #10
 558:	88038704 	stmdahi	r3, {r2, r8, r9, sl, pc}
 55c:	00018e02 	andeq	r8, r1, r2, lsl #28
 560:	00000014 	andeq	r0, r0, r4, lsl r0
 564:	000004a8 	andeq	r0, r0, r8, lsr #9
 568:	00009528 	andeq	r9, r0, r8, lsr #10
 56c:	0000003c 	andeq	r0, r0, ip, lsr r0
 570:	83080e42 	movwhi	r0, #36418	; 0x8e42
 574:	00018e02 	andeq	r8, r1, r2, lsl #28
 578:	00000018 	andeq	r0, r0, r8, lsl r0
 57c:	000004a8 	andeq	r0, r0, r8, lsr #9
 580:	00009564 	andeq	r9, r0, r4, ror #10
 584:	0000002c 	andeq	r0, r0, ip, lsr #32
 588:	83100e42 	tsthi	r0, #1056	; 0x420
 58c:	85038404 	strhi	r8, [r3, #-1028]	; 0x404
 590:	00018e02 	andeq	r8, r1, r2, lsl #28
 594:	00000024 	andeq	r0, r0, r4, lsr #32
 598:	000004a8 	andeq	r0, r0, r8, lsr #9
 59c:	00009590 	muleq	r0, r0, r5
 5a0:	00000084 	andeq	r0, r0, r4, lsl #1
 5a4:	810c0e42 	tsthi	ip, r2, asr #28
 5a8:	83028203 	movwhi	r8, #8707	; 0x2203
 5ac:	180e4201 	stmdane	lr, {r0, r9, lr}
 5b0:	05850684 	streq	r0, [r5, #1668]	; 0x684
 5b4:	0e42048e 	cdpeq	4, 4, cr0, cr2, cr14, {4}
 5b8:	000003e8 	andeq	r0, r0, r8, ror #7
 5bc:	00000014 	andeq	r0, r0, r4, lsl r0
 5c0:	000004a8 	andeq	r0, r0, r8, lsr #9
 5c4:	00009614 	andeq	r9, r0, r4, lsl r6
 5c8:	0000004c 	andeq	r0, r0, ip, asr #32
 5cc:	8e040e42 	cdphi	14, 0, cr0, cr4, cr2, {2}
 5d0:	100e4201 	andne	r4, lr, r1, lsl #4
 5d4:	0000000c 	andeq	r0, r0, ip
 5d8:	ffffffff 			; <UNDEFINED> instruction: 0xffffffff
 5dc:	7c020001 	stcvc	0, cr0, [r2], {1}
 5e0:	000d0c0e 	andeq	r0, sp, lr, lsl #24
 5e4:	00000018 	andeq	r0, r0, r8, lsl r0
 5e8:	000005d4 	ldrdeq	r0, [r0], -r4
 5ec:	00009660 	andeq	r9, r0, r0, ror #12
 5f0:	0000009c 	muleq	r0, ip, r0
 5f4:	83100e42 	tsthi	r0, #1056	; 0x420
 5f8:	85038404 	strhi	r8, [r3, #-1028]	; 0x404
 5fc:	00018e02 	andeq	r8, r1, r2, lsl #28
 600:	00000014 	andeq	r0, r0, r4, lsl r0
 604:	000005d4 	ldrdeq	r0, [r0], -r4
 608:	000096fc 	strdeq	r9, [r0], -ip
 60c:	0000001c 	andeq	r0, r0, ip, lsl r0
 610:	83080e42 	movwhi	r0, #36418	; 0x8e42
 614:	00018e02 	andeq	r8, r1, r2, lsl #28
 618:	00000014 	andeq	r0, r0, r4, lsl r0
 61c:	000005d4 	ldrdeq	r0, [r0], -r4
 620:	00009718 	andeq	r9, r0, r8, lsl r7
 624:	00000028 	andeq	r0, r0, r8, lsr #32
 628:	83080e42 	movwhi	r0, #36418	; 0x8e42
 62c:	00018e02 	andeq	r8, r1, r2, lsl #28
 630:	00000014 	andeq	r0, r0, r4, lsl r0
 634:	000005d4 	ldrdeq	r0, [r0], -r4
 638:	00009740 	andeq	r9, r0, r0, asr #14
 63c:	0000001c 	andeq	r0, r0, ip, lsl r0
 640:	83080e42 	movwhi	r0, #36418	; 0x8e42
 644:	00018e02 	andeq	r8, r1, r2, lsl #28
 648:	00000014 	andeq	r0, r0, r4, lsl r0
 64c:	000005d4 	ldrdeq	r0, [r0], -r4
 650:	0000975c 	andeq	r9, r0, ip, asr r7
 654:	0000002c 	andeq	r0, r0, ip, lsr #32
 658:	84080e42 	strhi	r0, [r8], #-3650	; 0xe42
 65c:	00018e02 	andeq	r8, r1, r2, lsl #28
 660:	00000014 	andeq	r0, r0, r4, lsl r0
 664:	000005d4 	ldrdeq	r0, [r0], -r4
 668:	00009788 	andeq	r9, r0, r8, lsl #15
 66c:	0000000c 	andeq	r0, r0, ip
 670:	83080e42 	movwhi	r0, #36418	; 0x8e42
 674:	00018e02 	andeq	r8, r1, r2, lsl #28
 678:	00000014 	andeq	r0, r0, r4, lsl r0
 67c:	000005d4 	ldrdeq	r0, [r0], -r4
 680:	00009794 	muleq	r0, r4, r7
 684:	00000020 	andeq	r0, r0, r0, lsr #32
 688:	83080e42 	movwhi	r0, #36418	; 0x8e42
 68c:	00018e02 	andeq	r8, r1, r2, lsl #28
 690:	0000000c 	andeq	r0, r0, ip
 694:	ffffffff 			; <UNDEFINED> instruction: 0xffffffff
 698:	7c020001 	stcvc	0, cr0, [r2], {1}
 69c:	000d0c0e 	andeq	r0, sp, lr, lsl #24
 6a0:	00000014 	andeq	r0, r0, r4, lsl r0
 6a4:	00000690 	muleq	r0, r0, r6
 6a8:	000097b4 			; <UNDEFINED> instruction: 0x000097b4
 6ac:	00000068 	andeq	r0, r0, r8, rrx
 6b0:	83080e42 	movwhi	r0, #36418	; 0x8e42
 6b4:	00018e02 	andeq	r8, r1, r2, lsl #28
 6b8:	00000014 	andeq	r0, r0, r4, lsl r0
 6bc:	00000690 	muleq	r0, r0, r6
 6c0:	0000981c 	andeq	r9, r0, ip, lsl r8
 6c4:	00000044 	andeq	r0, r0, r4, asr #32
 6c8:	8e040e42 	cdphi	14, 0, cr0, cr4, cr2, {2}
 6cc:	100e4201 	andne	r4, lr, r1, lsl #4
 6d0:	00000014 	andeq	r0, r0, r4, lsl r0
 6d4:	00000690 	muleq	r0, r0, r6
 6d8:	00009860 	andeq	r9, r0, r0, ror #16
 6dc:	00000044 	andeq	r0, r0, r4, asr #32
 6e0:	8e040e42 	cdphi	14, 0, cr0, cr4, cr2, {2}
 6e4:	100e4201 	andne	r4, lr, r1, lsl #4
 6e8:	00000014 	andeq	r0, r0, r4, lsl r0
 6ec:	00000690 	muleq	r0, r0, r6
 6f0:	000098a4 	andeq	r9, r0, r4, lsr #17
 6f4:	00000044 	andeq	r0, r0, r4, asr #32
 6f8:	8e040e42 	cdphi	14, 0, cr0, cr4, cr2, {2}
 6fc:	100e4201 	andne	r4, lr, r1, lsl #4
 700:	00000014 	andeq	r0, r0, r4, lsl r0
 704:	00000690 	muleq	r0, r0, r6
 708:	000098e8 	andeq	r9, r0, r8, ror #17
 70c:	00000044 	andeq	r0, r0, r4, asr #32
 710:	8e040e42 	cdphi	14, 0, cr0, cr4, cr2, {2}
 714:	100e4201 	andne	r4, lr, r1, lsl #4
 718:	00000014 	andeq	r0, r0, r4, lsl r0
 71c:	00000690 	muleq	r0, r0, r6
 720:	0000992c 	andeq	r9, r0, ip, lsr #18
 724:	00000044 	andeq	r0, r0, r4, asr #32
 728:	8e040e42 	cdphi	14, 0, cr0, cr4, cr2, {2}
 72c:	100e4201 	andne	r4, lr, r1, lsl #4
 730:	00000014 	andeq	r0, r0, r4, lsl r0
 734:	00000690 	muleq	r0, r0, r6
 738:	00009970 	andeq	r9, r0, r0, ror r9
 73c:	00000044 	andeq	r0, r0, r4, asr #32
 740:	8e040e42 	cdphi	14, 0, cr0, cr4, cr2, {2}
 744:	100e4201 	andne	r4, lr, r1, lsl #4
 748:	0000000c 	andeq	r0, r0, ip
 74c:	ffffffff 			; <UNDEFINED> instruction: 0xffffffff
 750:	7c020001 	stcvc	0, cr0, [r2], {1}
 754:	000d0c0e 	andeq	r0, sp, lr, lsl #24
 758:	00000014 	andeq	r0, r0, r4, lsl r0
 75c:	00000748 	andeq	r0, r0, r8, asr #14
 760:	00009af0 	strdeq	r9, [r0], -r0
 764:	00000028 	andeq	r0, r0, r8, lsr #32
 768:	83080e42 	movwhi	r0, #36418	; 0x8e42
 76c:	00018e02 	andeq	r8, r1, r2, lsl #28
 770:	0000000c 	andeq	r0, r0, ip
 774:	00000748 	andeq	r0, r0, r8, asr #14
 778:	00009b18 	andeq	r9, r0, r8, lsl fp
 77c:	00000028 	andeq	r0, r0, r8, lsr #32
