
1-gpio-int-ex.elf:     file format elf32-littlearm


Disassembly of section .text:

00008000 <_start>:
    8000:	e3a0d302 	mov	sp, #134217728	; 0x8000000
    8004:	e3a0b000 	mov	fp, #0
    8008:	eb00036e 	bl	8dc8 <_cstart>
    800c:	eb00039c 	bl	8e84 <rpi_reboot>

00008010 <cq_init>:
    8010:	e92d4038 	push	{r3, r4, r5, lr}
    8014:	e1a04000 	mov	r4, r0
    8018:	e1a05001 	mov	r5, r1
    801c:	e3a01000 	mov	r1, #0
    8020:	e59f216c 	ldr	r2, [pc, #364]	; 8194 <cq_init+0x184>
    8024:	eb0001d5 	bl	8780 <memset>
    8028:	e59f2168 	ldr	r2, [pc, #360]	; 8198 <cq_init+0x188>
    802c:	e3a03a02 	mov	r3, #8192	; 0x2000
    8030:	e7842003 	str	r2, [r4, r3]
    8034:	e59f2160 	ldr	r2, [pc, #352]	; 819c <cq_init+0x18c>
    8038:	e3a03000 	mov	r3, #0
    803c:	e7843002 	str	r3, [r4, r2]
    8040:	e59f0158 	ldr	r0, [pc, #344]	; 81a0 <cq_init+0x190>
    8044:	e7843000 	str	r3, [r4, r0]
    8048:	e59f1154 	ldr	r1, [pc, #340]	; 81a4 <cq_init+0x194>
    804c:	e7843001 	str	r3, [r4, r1]
    8050:	e59f3150 	ldr	r3, [pc, #336]	; 81a8 <cq_init+0x198>
    8054:	e7d41003 	ldrb	r1, [r4, r3]
    8058:	e2055001 	and	r5, r5, #1
    805c:	e3c11001 	bic	r1, r1, #1
    8060:	e1855001 	orr	r5, r5, r1
    8064:	e7c45003 	strb	r5, [r4, r3]
    8068:	e7941000 	ldr	r1, [r4, r0]
    806c:	e7943002 	ldr	r3, [r4, r2]
    8070:	e1510003 	cmp	r1, r3
    8074:	0a000006 	beq	8094 <cq_init+0x84>
    8078:	eb0001e3 	bl	880c <rpi_reset_putc>
    807c:	e59f0128 	ldr	r0, [pc, #296]	; 81ac <cq_init+0x19c>
    8080:	e59f1128 	ldr	r1, [pc, #296]	; 81b0 <cq_init+0x1a0>
    8084:	e59f2128 	ldr	r2, [pc, #296]	; 81b4 <cq_init+0x1a4>
    8088:	e3a0309f 	mov	r3, #159	; 0x9f
    808c:	eb0001c3 	bl	87a0 <printk>
    8090:	eb00033a 	bl	8d80 <clean_reboot>
    8094:	e59f3104 	ldr	r3, [pc, #260]	; 81a0 <cq_init+0x190>
    8098:	e7942003 	ldr	r2, [r4, r3]
    809c:	e2822001 	add	r2, r2, #1
    80a0:	e1a02982 	lsl	r2, r2, #19
    80a4:	e2833004 	add	r3, r3, #4
    80a8:	e7943003 	ldr	r3, [r4, r3]
    80ac:	e15309a2 	cmp	r3, r2, lsr #19
    80b0:	1a000006 	bne	80d0 <cq_init+0xc0>
    80b4:	eb0001d4 	bl	880c <rpi_reset_putc>
    80b8:	e59f00f8 	ldr	r0, [pc, #248]	; 81b8 <cq_init+0x1a8>
    80bc:	e59f10ec 	ldr	r1, [pc, #236]	; 81b0 <cq_init+0x1a0>
    80c0:	e59f20ec 	ldr	r2, [pc, #236]	; 81b4 <cq_init+0x1a4>
    80c4:	e3a030a0 	mov	r3, #160	; 0xa0
    80c8:	eb0001b4 	bl	87a0 <printk>
    80cc:	eb00032b 	bl	8d80 <clean_reboot>
    80d0:	e59f30c8 	ldr	r3, [pc, #200]	; 81a0 <cq_init+0x190>
    80d4:	e7942003 	ldr	r2, [r4, r3]
    80d8:	e2833004 	add	r3, r3, #4
    80dc:	e7943003 	ldr	r3, [r4, r3]
    80e0:	e0633002 	rsb	r3, r3, r2
    80e4:	e1b03983 	lsls	r3, r3, #19
    80e8:	0a000006 	beq	8108 <cq_init+0xf8>
    80ec:	eb0001c6 	bl	880c <rpi_reset_putc>
    80f0:	e59f00c4 	ldr	r0, [pc, #196]	; 81bc <cq_init+0x1ac>
    80f4:	e59f10b4 	ldr	r1, [pc, #180]	; 81b0 <cq_init+0x1a0>
    80f8:	e59f20b4 	ldr	r2, [pc, #180]	; 81b4 <cq_init+0x1a4>
    80fc:	e3a030a1 	mov	r3, #161	; 0xa1
    8100:	eb0001a6 	bl	87a0 <printk>
    8104:	eb00031d 	bl	8d80 <clean_reboot>
    8108:	e59f3090 	ldr	r3, [pc, #144]	; 81a0 <cq_init+0x190>
    810c:	e7942003 	ldr	r2, [r4, r3]
    8110:	e2833004 	add	r3, r3, #4
    8114:	e7943003 	ldr	r3, [r4, r3]
    8118:	e1520003 	cmp	r2, r3
    811c:	0a000009 	beq	8148 <cq_init+0x138>
    8120:	e59f3074 	ldr	r3, [pc, #116]	; 819c <cq_init+0x18c>
    8124:	e7942003 	ldr	r2, [r4, r3]
    8128:	e7d41002 	ldrb	r1, [r4, r2]
    812c:	e6ef1071 	uxtb	r1, r1
    8130:	e2822001 	add	r2, r2, #1
    8134:	e1a02982 	lsl	r2, r2, #19
    8138:	e1a029a2 	lsr	r2, r2, #19
    813c:	e7842003 	str	r2, [r4, r3]
    8140:	e3a03001 	mov	r3, #1
    8144:	ea000001 	b	8150 <cq_init+0x140>
    8148:	e3a01012 	mov	r1, #18
    814c:	e3a03000 	mov	r3, #0
    8150:	e3530000 	cmp	r3, #0
    8154:	1a000002 	bne	8164 <cq_init+0x154>
    8158:	e3510012 	cmp	r1, #18
    815c:	0a000002 	beq	816c <cq_init+0x15c>
    8160:	ea000002 	b	8170 <cq_init+0x160>
    8164:	e3a03000 	mov	r3, #0
    8168:	ea000000 	b	8170 <cq_init+0x160>
    816c:	e3a03001 	mov	r3, #1
    8170:	e3530000 	cmp	r3, #0
    8174:	18bd8038 	popne	{r3, r4, r5, pc}
    8178:	eb0001a3 	bl	880c <rpi_reset_putc>
    817c:	e59f003c 	ldr	r0, [pc, #60]	; 81c0 <cq_init+0x1b0>
    8180:	e59f1028 	ldr	r1, [pc, #40]	; 81b0 <cq_init+0x1a0>
    8184:	e59f2028 	ldr	r2, [pc, #40]	; 81b4 <cq_init+0x1a4>
    8188:	e3a030a3 	mov	r3, #163	; 0xa3
    818c:	eb000183 	bl	87a0 <printk>
    8190:	eb0002fa 	bl	8d80 <clean_reboot>
    8194:	00002014 	andeq	r2, r0, r4, lsl r0
    8198:	12345678 	eorsne	r5, r4, #120, 12	; 0x7800000
    819c:	00002008 	andeq	r2, r0, r8
    81a0:	00002004 	andeq	r2, r0, r4
    81a4:	0000200c 	andeq	r2, r0, ip
    81a8:	00002010 	andeq	r2, r0, r0, lsl r0
    81ac:	0000a0b4 	strheq	sl, [r0], -r4
    81b0:	0000a0d0 	ldrdeq	sl, [r0], -r0
    81b4:	0000a0ac 	andeq	sl, r0, ip, lsr #1
    81b8:	0000a124 	andeq	sl, r0, r4, lsr #2
    81bc:	0000a140 	andeq	sl, r0, r0, asr #2
    81c0:	0000a164 	andeq	sl, r0, r4, ror #2

000081c4 <is_uart_int>:
    81c4:	e92d4008 	push	{r3, lr}
    81c8:	e59f0018 	ldr	r0, [pc, #24]	; 81e8 <is_uart_int+0x24>
    81cc:	eb00073e 	bl	9ecc <get32>
    81d0:	e3100001 	tst	r0, #1
    81d4:	0a000001 	beq	81e0 <is_uart_int+0x1c>
    81d8:	e3a00001 	mov	r0, #1
    81dc:	e8bd8008 	pop	{r3, pc}
    81e0:	e3a00000 	mov	r0, #0
    81e4:	e8bd8008 	pop	{r3, pc}
    81e8:	20215048 	eorcs	r5, r1, r8, asr #32

000081ec <uart_can_getc_int>:
    81ec:	e59f302c 	ldr	r3, [pc, #44]	; 8220 <uart_can_getc_int+0x34>
    81f0:	e59f202c 	ldr	r2, [pc, #44]	; 8224 <uart_can_getc_int+0x38>
    81f4:	e7932002 	ldr	r2, [r3, r2]
    81f8:	e2822001 	add	r2, r2, #1
    81fc:	e1a02982 	lsl	r2, r2, #19
    8200:	e59f1020 	ldr	r1, [pc, #32]	; 8228 <uart_can_getc_int+0x3c>
    8204:	e7933001 	ldr	r3, [r3, r1]
    8208:	e15309a2 	cmp	r3, r2, lsr #19
    820c:	0a000001 	beq	8218 <uart_can_getc_int+0x2c>
    8210:	e3a00001 	mov	r0, #1
    8214:	e12fff1e 	bx	lr
    8218:	e3a00000 	mov	r0, #0
    821c:	e12fff1e 	bx	lr
    8220:	0000a56c 	andeq	sl, r0, ip, ror #10
    8224:	00002004 	andeq	r2, r0, r4
    8228:	00002008 	andeq	r2, r0, r8

0000822c <uart_init_int>:
    822c:	e92d4010 	push	{r4, lr}
    8230:	eb000713 	bl	9e84 <dev_barrier>
    8234:	e3a0000e 	mov	r0, #14
    8238:	e3a01002 	mov	r1, #2
    823c:	eb0003f9 	bl	9228 <gpio_set_function>
    8240:	e3a0000f 	mov	r0, #15
    8244:	e3a01002 	mov	r1, #2
    8248:	eb0003f6 	bl	9228 <gpio_set_function>
    824c:	eb00070c 	bl	9e84 <dev_barrier>
    8250:	e59f4074 	ldr	r4, [pc, #116]	; 82cc <uart_init_int+0xa0>
    8254:	e1a00004 	mov	r0, r4
    8258:	eb00071b 	bl	9ecc <get32>
    825c:	e3801001 	orr	r1, r0, #1
    8260:	e1a00004 	mov	r0, r4
    8264:	eb00070c 	bl	9e9c <put32>
    8268:	eb000705 	bl	9e84 <dev_barrier>
    826c:	e284405c 	add	r4, r4, #92	; 0x5c
    8270:	e1a00004 	mov	r0, r4
    8274:	e3a01000 	mov	r1, #0
    8278:	eb000707 	bl	9e9c <put32>
    827c:	e59f004c 	ldr	r0, [pc, #76]	; 82d0 <uart_init_int+0xa4>
    8280:	e3a01003 	mov	r1, #3
    8284:	eb000704 	bl	9e9c <put32>
    8288:	e59f0044 	ldr	r0, [pc, #68]	; 82d4 <uart_init_int+0xa8>
    828c:	e3a01006 	mov	r1, #6
    8290:	eb000701 	bl	9e9c <put32>
    8294:	e59f003c 	ldr	r0, [pc, #60]	; 82d8 <uart_init_int+0xac>
    8298:	e3a01003 	mov	r1, #3
    829c:	eb0006fe 	bl	9e9c <put32>
    82a0:	e59f0034 	ldr	r0, [pc, #52]	; 82dc <uart_init_int+0xb0>
    82a4:	e59f1034 	ldr	r1, [pc, #52]	; 82e0 <uart_init_int+0xb4>
    82a8:	eb0006fb 	bl	9e9c <put32>
    82ac:	e1a00004 	mov	r0, r4
    82b0:	e3a01003 	mov	r1, #3
    82b4:	eb0006f8 	bl	9e9c <put32>
    82b8:	e59f0024 	ldr	r0, [pc, #36]	; 82e4 <uart_init_int+0xb8>
    82bc:	e3a01202 	mov	r1, #536870912	; 0x20000000
    82c0:	eb0006f5 	bl	9e9c <put32>
    82c4:	eb0006ee 	bl	9e84 <dev_barrier>
    82c8:	e8bd8010 	pop	{r4, pc}
    82cc:	20215004 	eorcs	r5, r1, r4
    82d0:	20215044 	eorcs	r5, r1, r4, asr #32
    82d4:	20215048 	eorcs	r5, r1, r8, asr #32
    82d8:	2021504c 	eorcs	r5, r1, ip, asr #32
    82dc:	20215068 	eorcs	r5, r1, r8, rrx
    82e0:	0000010e 	andeq	r0, r0, lr, lsl #2
    82e4:	2000b210 	andcs	fp, r0, r0, lsl r2

000082e8 <mod_tx_interrupts>:
    82e8:	e92d4010 	push	{r4, lr}
    82ec:	e1a04000 	mov	r4, r0
    82f0:	eb0006e3 	bl	9e84 <dev_barrier>
    82f4:	e59f003c 	ldr	r0, [pc, #60]	; 8338 <mod_tx_interrupts+0x50>
    82f8:	eb0006f3 	bl	9ecc <get32>
    82fc:	e3801001 	orr	r1, r0, #1
    8300:	e3540000 	cmp	r4, #0
    8304:	0a000002 	beq	8314 <mod_tx_interrupts+0x2c>
    8308:	e59f0028 	ldr	r0, [pc, #40]	; 8338 <mod_tx_interrupts+0x50>
    830c:	eb0006e2 	bl	9e9c <put32>
    8310:	ea000006 	b	8330 <mod_tx_interrupts+0x48>
    8314:	e59f401c 	ldr	r4, [pc, #28]	; 8338 <mod_tx_interrupts+0x50>
    8318:	e1a00004 	mov	r0, r4
    831c:	e3a01000 	mov	r1, #0
    8320:	eb0006dd 	bl	9e9c <put32>
    8324:	e1a00004 	mov	r0, r4
    8328:	e3a01001 	mov	r1, #1
    832c:	eb0006da 	bl	9e9c <put32>
    8330:	eb0006d3 	bl	9e84 <dev_barrier>
    8334:	e8bd8010 	pop	{r4, pc}
    8338:	20215044 	eorcs	r5, r1, r4, asr #32

0000833c <uart_putc_int>:
    833c:	e92d43f8 	push	{r3, r4, r5, r6, r7, r8, r9, lr}
    8340:	e1a04000 	mov	r4, r0
    8344:	eb0006eb 	bl	9ef8 <system_disable_interrupts>
    8348:	e59f30c0 	ldr	r3, [pc, #192]	; 8410 <uart_putc_int+0xd4>
    834c:	e59f20c0 	ldr	r2, [pc, #192]	; 8414 <uart_putc_int+0xd8>
    8350:	e7931002 	ldr	r1, [r3, r2]
    8354:	e7932002 	ldr	r2, [r3, r2]
    8358:	e2822001 	add	r2, r2, #1
    835c:	e1a02982 	lsl	r2, r2, #19
    8360:	e59f00b0 	ldr	r0, [pc, #176]	; 8418 <uart_putc_int+0xdc>
    8364:	e7933000 	ldr	r3, [r3, r0]
    8368:	e15309a2 	cmp	r3, r2, lsr #19
    836c:	0a000007 	beq	8390 <uart_putc_int+0x54>
    8370:	e59f3098 	ldr	r3, [pc, #152]	; 8410 <uart_putc_int+0xd4>
    8374:	e0832001 	add	r2, r3, r1
    8378:	e5c2401c 	strb	r4, [r2, #28]
    837c:	e2811001 	add	r1, r1, #1
    8380:	e1a01981 	lsl	r1, r1, #19
    8384:	e1a019a1 	lsr	r1, r1, #19
    8388:	e59f2084 	ldr	r2, [pc, #132]	; 8414 <uart_putc_int+0xd8>
    838c:	e7831002 	str	r1, [r3, r2]
    8390:	e3a00001 	mov	r0, #1
    8394:	ebffffd3 	bl	82e8 <mod_tx_interrupts>
    8398:	e59f4070 	ldr	r4, [pc, #112]	; 8410 <uart_putc_int+0xd4>
    839c:	e59f7070 	ldr	r7, [pc, #112]	; 8414 <uart_putc_int+0xd8>
    83a0:	e59f5070 	ldr	r5, [pc, #112]	; 8418 <uart_putc_int+0xdc>
    83a4:	e3a09000 	mov	r9, #0
    83a8:	e3a08001 	mov	r8, #1
    83ac:	ea000001 	b	83b8 <uart_putc_int+0x7c>
    83b0:	e1a00006 	mov	r0, r6
    83b4:	eb00061c 	bl	9c2c <uart_putc>
    83b8:	eb000614 	bl	9c10 <uart_can_putc>
    83bc:	e3500000 	cmp	r0, #0
    83c0:	0a000010 	beq	8408 <uart_putc_int+0xcc>
    83c4:	e7942007 	ldr	r2, [r4, r7]
    83c8:	e7943005 	ldr	r3, [r4, r5]
    83cc:	e1520003 	cmp	r2, r3
    83d0:	0a000009 	beq	83fc <uart_putc_int+0xc0>
    83d4:	e7943005 	ldr	r3, [r4, r5]
    83d8:	e0842003 	add	r2, r4, r3
    83dc:	e5d2601c 	ldrb	r6, [r2, #28]
    83e0:	e6ef6076 	uxtb	r6, r6
    83e4:	e2833001 	add	r3, r3, #1
    83e8:	e1a03983 	lsl	r3, r3, #19
    83ec:	e1a039a3 	lsr	r3, r3, #19
    83f0:	e7843005 	str	r3, [r4, r5]
    83f4:	e1a03008 	mov	r3, r8
    83f8:	ea000000 	b	8400 <uart_putc_int+0xc4>
    83fc:	e1a03009 	mov	r3, r9
    8400:	e3530000 	cmp	r3, #0
    8404:	1affffe9 	bne	83b0 <uart_putc_int+0x74>
    8408:	eb0006b6 	bl	9ee8 <system_enable_interrupts>
    840c:	e8bd83f8 	pop	{r3, r4, r5, r6, r7, r8, r9, pc}
    8410:	0000c564 	andeq	ip, r0, r4, ror #10
    8414:	00002020 	andeq	r2, r0, r0, lsr #32
    8418:	00002024 	andeq	r2, r0, r4, lsr #32

0000841c <interrupt_vector>:
    841c:	e92d43f8 	push	{r3, r4, r5, r6, r7, r8, r9, lr}
    8420:	e59f0124 	ldr	r0, [pc, #292]	; 854c <interrupt_vector+0x130>
    8424:	eb0006a8 	bl	9ecc <get32>
    8428:	e3100004 	tst	r0, #4
    842c:	1a00000f 	bne	8470 <interrupt_vector+0x54>
    8430:	ea00001b 	b	84a4 <interrupt_vector+0x88>
    8434:	eb0005eb 	bl	9be8 <uart_getc>
    8438:	e6ef0070 	uxtb	r0, r0
    843c:	e7941005 	ldr	r1, [r4, r5]
    8440:	e7942005 	ldr	r2, [r4, r5]
    8444:	e2822001 	add	r2, r2, #1
    8448:	e1a02982 	lsl	r2, r2, #19
    844c:	e7943006 	ldr	r3, [r4, r6]
    8450:	e15309a2 	cmp	r3, r2, lsr #19
    8454:	0a000008 	beq	847c <interrupt_vector+0x60>
    8458:	e7c40001 	strb	r0, [r4, r1]
    845c:	e2813001 	add	r3, r1, #1
    8460:	e1a03983 	lsl	r3, r3, #19
    8464:	e1a039a3 	lsr	r3, r3, #19
    8468:	e7843005 	str	r3, [r4, r5]
    846c:	ea000002 	b	847c <interrupt_vector+0x60>
    8470:	e59f40d8 	ldr	r4, [pc, #216]	; 8550 <interrupt_vector+0x134>
    8474:	e59f50d8 	ldr	r5, [pc, #216]	; 8554 <interrupt_vector+0x138>
    8478:	e59f60d8 	ldr	r6, [pc, #216]	; 8558 <interrupt_vector+0x13c>
    847c:	e7942005 	ldr	r2, [r4, r5]
    8480:	e2822001 	add	r2, r2, #1
    8484:	e1a02982 	lsl	r2, r2, #19
    8488:	e7943006 	ldr	r3, [r4, r6]
    848c:	e15309a2 	cmp	r3, r2, lsr #19
    8490:	08bd83f8 	popeq	{r3, r4, r5, r6, r7, r8, r9, pc}
    8494:	eb0005cc 	bl	9bcc <uart_can_getc>
    8498:	e3500000 	cmp	r0, #0
    849c:	1affffe4 	bne	8434 <interrupt_vector+0x18>
    84a0:	e8bd83f8 	pop	{r3, r4, r5, r6, r7, r8, r9, pc}
    84a4:	e3100002 	tst	r0, #2
    84a8:	1a000003 	bne	84bc <interrupt_vector+0xa0>
    84ac:	e8bd83f8 	pop	{r3, r4, r5, r6, r7, r8, r9, pc}
    84b0:	e5d60038 	ldrb	r0, [r6, #56]	; 0x38
    84b4:	eb0005dc 	bl	9c2c <uart_putc>
    84b8:	ea000005 	b	84d4 <interrupt_vector+0xb8>
    84bc:	e59f4098 	ldr	r4, [pc, #152]	; 855c <interrupt_vector+0x140>
    84c0:	e59f7098 	ldr	r7, [pc, #152]	; 8560 <interrupt_vector+0x144>
    84c4:	e59f5098 	ldr	r5, [pc, #152]	; 8564 <interrupt_vector+0x148>
    84c8:	e3a09000 	mov	r9, #0
    84cc:	e59f6094 	ldr	r6, [pc, #148]	; 8568 <interrupt_vector+0x14c>
    84d0:	e3a08001 	mov	r8, #1
    84d4:	eb0005cd 	bl	9c10 <uart_can_putc>
    84d8:	e3500000 	cmp	r0, #0
    84dc:	0a000010 	beq	8524 <interrupt_vector+0x108>
    84e0:	e7942007 	ldr	r2, [r4, r7]
    84e4:	e7943005 	ldr	r3, [r4, r5]
    84e8:	e1520003 	cmp	r2, r3
    84ec:	0a000009 	beq	8518 <interrupt_vector+0xfc>
    84f0:	e7943005 	ldr	r3, [r4, r5]
    84f4:	e0842003 	add	r2, r4, r3
    84f8:	e5d2201c 	ldrb	r2, [r2, #28]
    84fc:	e5c62038 	strb	r2, [r6, #56]	; 0x38
    8500:	e2833001 	add	r3, r3, #1
    8504:	e1a03983 	lsl	r3, r3, #19
    8508:	e1a039a3 	lsr	r3, r3, #19
    850c:	e7843005 	str	r3, [r4, r5]
    8510:	e1a03008 	mov	r3, r8
    8514:	ea000000 	b	851c <interrupt_vector+0x100>
    8518:	e1a03009 	mov	r3, r9
    851c:	e3530000 	cmp	r3, #0
    8520:	1affffe2 	bne	84b0 <interrupt_vector+0x94>
    8524:	e59f3030 	ldr	r3, [pc, #48]	; 855c <interrupt_vector+0x140>
    8528:	e59f2030 	ldr	r2, [pc, #48]	; 8560 <interrupt_vector+0x144>
    852c:	e7932002 	ldr	r2, [r3, r2]
    8530:	e59f102c 	ldr	r1, [pc, #44]	; 8564 <interrupt_vector+0x148>
    8534:	e7933001 	ldr	r3, [r3, r1]
    8538:	e1520003 	cmp	r2, r3
    853c:	18bd83f8 	popne	{r3, r4, r5, r6, r7, r8, r9, pc}
    8540:	e3a00000 	mov	r0, #0
    8544:	ebffff67 	bl	82e8 <mod_tx_interrupts>
    8548:	e8bd83f8 	pop	{r3, r4, r5, r6, r7, r8, r9, pc}
    854c:	20215048 	eorcs	r5, r1, r8, asr #32
    8550:	0000a56c 	andeq	sl, r0, ip, ror #10
    8554:	00002004 	andeq	r2, r0, r4
    8558:	00002008 	andeq	r2, r0, r8
    855c:	0000c564 	andeq	ip, r0, r4, ror #10
    8560:	00002020 	andeq	r2, r0, r0, lsr #32
    8564:	00002024 	andeq	r2, r0, r4, lsr #32
    8568:	0000e55c 	andeq	lr, r0, ip, asr r5

0000856c <uart_getc_int>:
    856c:	e59f3064 	ldr	r3, [pc, #100]	; 85d8 <uart_getc_int+0x6c>
    8570:	e59f2064 	ldr	r2, [pc, #100]	; 85dc <uart_getc_int+0x70>
    8574:	e7932002 	ldr	r2, [r3, r2]
    8578:	e59f1060 	ldr	r1, [pc, #96]	; 85e0 <uart_getc_int+0x74>
    857c:	e7933001 	ldr	r3, [r3, r1]
    8580:	e1520003 	cmp	r2, r3
    8584:	0a00000f 	beq	85c8 <uart_getc_int+0x5c>
    8588:	e59f3048 	ldr	r3, [pc, #72]	; 85d8 <uart_getc_int+0x6c>
    858c:	e59f2048 	ldr	r2, [pc, #72]	; 85dc <uart_getc_int+0x70>
    8590:	e7932002 	ldr	r2, [r3, r2]
    8594:	e7933001 	ldr	r3, [r3, r1]
    8598:	e1520003 	cmp	r2, r3
    859c:	0a00000b 	beq	85d0 <uart_getc_int+0x64>
    85a0:	e59f3030 	ldr	r3, [pc, #48]	; 85d8 <uart_getc_int+0x6c>
    85a4:	e1a02001 	mov	r2, r1
    85a8:	e7931001 	ldr	r1, [r3, r1]
    85ac:	e7d30001 	ldrb	r0, [r3, r1]
    85b0:	e6ef0070 	uxtb	r0, r0
    85b4:	e2811001 	add	r1, r1, #1
    85b8:	e1a01981 	lsl	r1, r1, #19
    85bc:	e1a019a1 	lsr	r1, r1, #19
    85c0:	e7831002 	str	r1, [r3, r2]
    85c4:	e12fff1e 	bx	lr
    85c8:	e3a00082 	mov	r0, #130	; 0x82
    85cc:	e12fff1e 	bx	lr
    85d0:	e3a00082 	mov	r0, #130	; 0x82
    85d4:	e12fff1e 	bx	lr
    85d8:	0000a56c 	andeq	sl, r0, ip, ror #10
    85dc:	00002004 	andeq	r2, r0, r4
    85e0:	00002008 	andeq	r2, r0, r8

000085e4 <notmain>:
    85e4:	e92d4070 	push	{r4, r5, r6, lr}
    85e8:	e24dd018 	sub	sp, sp, #24
    85ec:	e28d5008 	add	r5, sp, #8
    85f0:	e59f3170 	ldr	r3, [pc, #368]	; 8768 <notmain+0x184>
    85f4:	e58d3000 	str	r3, [sp]
    85f8:	e1a00005 	mov	r0, r5
    85fc:	e3a01015 	mov	r1, #21
    8600:	e3a02014 	mov	r2, #20
    8604:	e59f3160 	ldr	r3, [pc, #352]	; 876c <notmain+0x188>
    8608:	eb0004ca 	bl	9938 <sw_uart_init_helper>
    860c:	e59f415c 	ldr	r4, [pc, #348]	; 8770 <notmain+0x18c>
    8610:	e8950007 	ldm	r5, {r0, r1, r2}
    8614:	e8840007 	stm	r4, {r0, r1, r2}
    8618:	e1a00004 	mov	r0, r4
    861c:	e3a01052 	mov	r1, #82	; 0x52
    8620:	eb0003ba 	bl	9510 <sw_uart_putc>
    8624:	e1a00004 	mov	r0, r4
    8628:	e3a01045 	mov	r1, #69	; 0x45
    862c:	eb0003b7 	bl	9510 <sw_uart_putc>
    8630:	e1a00004 	mov	r0, r4
    8634:	e3a01041 	mov	r1, #65	; 0x41
    8638:	eb0003b4 	bl	9510 <sw_uart_putc>
    863c:	e1a00004 	mov	r0, r4
    8640:	e3a01044 	mov	r1, #68	; 0x44
    8644:	eb0003b1 	bl	9510 <sw_uart_putc>
    8648:	e1a00004 	mov	r0, r4
    864c:	e3a01059 	mov	r1, #89	; 0x59
    8650:	eb0003ae 	bl	9510 <sw_uart_putc>
    8654:	e1a00004 	mov	r0, r4
    8658:	e3a0100a 	mov	r1, #10
    865c:	eb0003ab 	bl	9510 <sw_uart_putc>
    8660:	eb000587 	bl	9c84 <int_init>
    8664:	ebfffef0 	bl	822c <uart_init_int>
    8668:	eb0001bc 	bl	8d60 <enable_cache>
    866c:	e59f0100 	ldr	r0, [pc, #256]	; 8774 <notmain+0x190>
    8670:	e3a01001 	mov	r1, #1
    8674:	ebfffe65 	bl	8010 <cq_init>
    8678:	e59f00f8 	ldr	r0, [pc, #248]	; 8778 <notmain+0x194>
    867c:	e3a01001 	mov	r1, #1
    8680:	ebfffe62 	bl	8010 <cq_init>
    8684:	e59f00f0 	ldr	r0, [pc, #240]	; 877c <notmain+0x198>
    8688:	e3a0100d 	mov	r1, #13
    868c:	eb000602 	bl	9e9c <put32>
    8690:	eb0005fb 	bl	9e84 <dev_barrier>
    8694:	eb000613 	bl	9ee8 <system_enable_interrupts>
    8698:	eb0005f9 	bl	9e84 <dev_barrier>
    869c:	e3a00054 	mov	r0, #84	; 0x54
    86a0:	ebffff25 	bl	833c <uart_putc_int>
    86a4:	e3a00059 	mov	r0, #89	; 0x59
    86a8:	ebffff23 	bl	833c <uart_putc_int>
    86ac:	e3a00050 	mov	r0, #80	; 0x50
    86b0:	ebffff21 	bl	833c <uart_putc_int>
    86b4:	e3a00045 	mov	r0, #69	; 0x45
    86b8:	ebffff1f 	bl	833c <uart_putc_int>
    86bc:	e3a00020 	mov	r0, #32
    86c0:	ebffff1d 	bl	833c <uart_putc_int>
    86c4:	e3a00048 	mov	r0, #72	; 0x48
    86c8:	ebffff1b 	bl	833c <uart_putc_int>
    86cc:	e3a00045 	mov	r0, #69	; 0x45
    86d0:	ebffff19 	bl	833c <uart_putc_int>
    86d4:	e3a00052 	mov	r0, #82	; 0x52
    86d8:	ebffff17 	bl	833c <uart_putc_int>
    86dc:	e3a00045 	mov	r0, #69	; 0x45
    86e0:	ebffff15 	bl	833c <uart_putc_int>
    86e4:	e3a0000a 	mov	r0, #10
    86e8:	ebffff13 	bl	833c <uart_putc_int>
    86ec:	eb0005e4 	bl	9e84 <dev_barrier>
    86f0:	e1a00004 	mov	r0, r4
    86f4:	e3a01052 	mov	r1, #82	; 0x52
    86f8:	eb000384 	bl	9510 <sw_uart_putc>
    86fc:	e1a00004 	mov	r0, r4
    8700:	e3a01045 	mov	r1, #69	; 0x45
    8704:	eb000381 	bl	9510 <sw_uart_putc>
    8708:	e1a00004 	mov	r0, r4
    870c:	e3a01041 	mov	r1, #65	; 0x41
    8710:	eb00037e 	bl	9510 <sw_uart_putc>
    8714:	e1a00004 	mov	r0, r4
    8718:	e3a01044 	mov	r1, #68	; 0x44
    871c:	eb00037b 	bl	9510 <sw_uart_putc>
    8720:	e1a00004 	mov	r0, r4
    8724:	e3a0100a 	mov	r1, #10
    8728:	eb000378 	bl	9510 <sw_uart_putc>
    872c:	eb0005d4 	bl	9e84 <dev_barrier>
    8730:	e3a06023 	mov	r6, #35	; 0x23
    8734:	e1a05004 	mov	r5, r4
    8738:	ebffff8b 	bl	856c <uart_getc_int>
    873c:	e1a04000 	mov	r4, r0
    8740:	eb0005cf 	bl	9e84 <dev_barrier>
    8744:	e3540082 	cmp	r4, #130	; 0x82
    8748:	0afffffa 	beq	8738 <notmain+0x154>
    874c:	e1a00006 	mov	r0, r6
    8750:	ebfffef9 	bl	833c <uart_putc_int>
    8754:	eb0005ca 	bl	9e84 <dev_barrier>
    8758:	e1a00005 	mov	r0, r5
    875c:	e1a01004 	mov	r1, r4
    8760:	eb00036a 	bl	9510 <sw_uart_putc>
    8764:	eafffff3 	b	8738 <notmain+0x154>
    8768:	000017bc 			; <UNDEFINED> instruction: 0x000017bc
    876c:	0001c200 	andeq	ip, r1, r0, lsl #4
    8770:	0000e598 	muleq	r0, r8, r5
    8774:	0000a56c 	andeq	sl, r0, ip, ror #10
    8778:	0000c580 	andeq	ip, r0, r0, lsl #11
    877c:	20215040 	eorcs	r5, r1, r0, asr #32

00008780 <memset>:
    8780:	e0802002 	add	r2, r0, r2
    8784:	e1a03000 	mov	r3, r0
    8788:	ea000001 	b	8794 <memset+0x14>
    878c:	e5c31000 	strb	r1, [r3]
    8790:	e2833001 	add	r3, r3, #1
    8794:	e1530002 	cmp	r3, r2
    8798:	3afffffb 	bcc	878c <memset+0xc>
    879c:	e12fff1e 	bx	lr

000087a0 <printk>:
    87a0:	e92d000f 	push	{r0, r1, r2, r3}
    87a4:	e92d4030 	push	{r4, r5, lr}
    87a8:	e24dd00c 	sub	sp, sp, #12
    87ac:	e28d301c 	add	r3, sp, #28
    87b0:	e58d3004 	str	r3, [sp, #4]
    87b4:	e59f4034 	ldr	r4, [pc, #52]	; 87f0 <printk+0x50>
    87b8:	e1a00004 	mov	r0, r4
    87bc:	e3a01b01 	mov	r1, #1024	; 0x400
    87c0:	e59d2018 	ldr	r2, [sp, #24]
    87c4:	eb0000c3 	bl	8ad8 <va_printk>
    87c8:	e1a05000 	mov	r5, r0
    87cc:	e59f3020 	ldr	r3, [pc, #32]	; 87f4 <printk+0x54>
    87d0:	e5933000 	ldr	r3, [r3]
    87d4:	e1a00004 	mov	r0, r4
    87d8:	e12fff33 	blx	r3
    87dc:	e1a00005 	mov	r0, r5
    87e0:	e28dd00c 	add	sp, sp, #12
    87e4:	e8bd4030 	pop	{r4, r5, lr}
    87e8:	e28dd010 	add	sp, sp, #16
    87ec:	e12fff1e 	bx	lr
    87f0:	0000e5b8 			; <UNDEFINED> instruction: 0x0000e5b8
    87f4:	0000a014 	andeq	sl, r0, r4, lsl r0

000087f8 <internal_putchar>:
    87f8:	e92d4010 	push	{r4, lr}
    87fc:	e1a04000 	mov	r4, r0
    8800:	eb000509 	bl	9c2c <uart_putc>
    8804:	e1a00004 	mov	r0, r4
    8808:	e8bd8010 	pop	{r4, pc}

0000880c <rpi_reset_putc>:
    880c:	e59f2008 	ldr	r2, [pc, #8]	; 881c <rpi_reset_putc+0x10>
    8810:	e59f3008 	ldr	r3, [pc, #8]	; 8820 <rpi_reset_putc+0x14>
    8814:	e5832000 	str	r2, [r3]
    8818:	e12fff1e 	bx	lr
    881c:	000087f8 	strdeq	r8, [r0], -r8	; <UNPREDICTABLE>
    8820:	0000a010 	andeq	sl, r0, r0, lsl r0

00008824 <rpi_set_putc>:
    8824:	e59f3004 	ldr	r3, [pc, #4]	; 8830 <rpi_set_putc+0xc>
    8828:	e5830000 	str	r0, [r3]
    882c:	e12fff1e 	bx	lr
    8830:	0000a010 	andeq	sl, r0, r0, lsl r0

00008834 <internal_putk>:
    8834:	e92d4038 	push	{r3, r4, r5, lr}
    8838:	e1a04000 	mov	r4, r0
    883c:	e59f5020 	ldr	r5, [pc, #32]	; 8864 <internal_putk+0x30>
    8840:	ea000002 	b	8850 <internal_putk+0x1c>
    8844:	e5953000 	ldr	r3, [r5]
    8848:	e12fff33 	blx	r3
    884c:	e2844001 	add	r4, r4, #1
    8850:	e5d40000 	ldrb	r0, [r4]
    8854:	e3500000 	cmp	r0, #0
    8858:	1afffff9 	bne	8844 <internal_putk+0x10>
    885c:	e3a00001 	mov	r0, #1
    8860:	e8bd8038 	pop	{r3, r4, r5, pc}
    8864:	0000a010 	andeq	sl, r0, r0, lsl r0

00008868 <isdigit>:
    8868:	e2400030 	sub	r0, r0, #48	; 0x30
    886c:	e3500009 	cmp	r0, #9
    8870:	83a00000 	movhi	r0, #0
    8874:	93a00001 	movls	r0, #1
    8878:	e12fff1e 	bx	lr

0000887c <pad>:
    887c:	e0611000 	rsb	r1, r1, r0
    8880:	e3a03020 	mov	r3, #32
    8884:	ea000002 	b	8894 <pad+0x18>
    8888:	e5c03000 	strb	r3, [r0]
    888c:	e2811001 	add	r1, r1, #1
    8890:	e2800001 	add	r0, r0, #1
    8894:	e1510002 	cmp	r1, r2
    8898:	bafffffa 	blt	8888 <pad+0xc>
    889c:	e3a03000 	mov	r3, #0
    88a0:	e5c03000 	strb	r3, [r0]
    88a4:	e12fff1e 	bx	lr

000088a8 <reverse>:
    88a8:	e063c002 	rsb	ip, r3, r2
    88ac:	e28cc001 	add	ip, ip, #1
    88b0:	e15c0001 	cmp	ip, r1
    88b4:	c061100c 	rsbgt	r1, r1, ip
    88b8:	c0833001 	addgt	r3, r3, r1
    88bc:	e2422001 	sub	r2, r2, #1
    88c0:	e1a01000 	mov	r1, r0
    88c4:	ea000002 	b	88d4 <reverse+0x2c>
    88c8:	e452c001 	ldrb	ip, [r2], #-1
    88cc:	e5c1c000 	strb	ip, [r1]
    88d0:	e2811001 	add	r1, r1, #1
    88d4:	e1520003 	cmp	r2, r3
    88d8:	2afffffa 	bcs	88c8 <reverse+0x20>
    88dc:	e3a03000 	mov	r3, #0
    88e0:	e5c13000 	strb	r3, [r1]
    88e4:	e12fff1e 	bx	lr

000088e8 <emit>:
    88e8:	e92d41f0 	push	{r4, r5, r6, r7, r8, lr}
    88ec:	e24dd040 	sub	sp, sp, #64	; 0x40
    88f0:	e1a05001 	mov	r5, r1
    88f4:	e1a04002 	mov	r4, r2
    88f8:	e59d2058 	ldr	r2, [sp, #88]	; 0x58
    88fc:	e1520004 	cmp	r2, r4
    8900:	c2442001 	subgt	r2, r4, #1
    8904:	e1a0c003 	mov	ip, r3
    8908:	e2400002 	sub	r0, r0, #2
    890c:	e350000e 	cmp	r0, #14
    8910:	979ff100 	ldrls	pc, [pc, r0, lsl #2]
    8914:	ea000042 	b	8a24 <emit+0x13c>
    8918:	000089fc 	strdeq	r8, [r0], -ip
    891c:	00008a24 	andeq	r8, r0, r4, lsr #20
    8920:	00008a24 	andeq	r8, r0, r4, lsr #20
    8924:	00008a24 	andeq	r8, r0, r4, lsr #20
    8928:	00008a24 	andeq	r8, r0, r4, lsr #20
    892c:	00008a24 	andeq	r8, r0, r4, lsr #20
    8930:	000089f0 	strdeq	r8, [r0], -r0
    8934:	00008a24 	andeq	r8, r0, r4, lsr #20
    8938:	00008954 	andeq	r8, r0, r4, asr r9
    893c:	00008a24 	andeq	r8, r0, r4, lsr #20
    8940:	00008a24 	andeq	r8, r0, r4, lsr #20
    8944:	00008a24 	andeq	r8, r0, r4, lsr #20
    8948:	00008a24 	andeq	r8, r0, r4, lsr #20
    894c:	00008a24 	andeq	r8, r0, r4, lsr #20
    8950:	000089c8 	andeq	r8, r0, r8, asr #19
    8954:	e59d105c 	ldr	r1, [sp, #92]	; 0x5c
    8958:	e2911000 	adds	r1, r1, #0
    895c:	13a01001 	movne	r1, #1
    8960:	e0111fa3 	ands	r1, r1, r3, lsr #31
    8964:	1263c000 	rsbne	ip, r3, #0
    8968:	13a08001 	movne	r8, #1
    896c:	03a08000 	moveq	r8, #0
    8970:	e1a0100d 	mov	r1, sp
    8974:	e59f70ec 	ldr	r7, [pc, #236]	; 8a68 <emit+0x180>
    8978:	e59f60ec 	ldr	r6, [pc, #236]	; 8a6c <emit+0x184>
    897c:	ea000000 	b	8984 <emit+0x9c>
    8980:	e1a01003 	mov	r1, r3
    8984:	e2813001 	add	r3, r1, #1
    8988:	e08e0c97 	umull	r0, lr, r7, ip
    898c:	e1a0e1ae 	lsr	lr, lr, #3
    8990:	e1a0000e 	mov	r0, lr
    8994:	e08ee10e 	add	lr, lr, lr, lsl #2
    8998:	e1a0e08e 	lsl	lr, lr, #1
    899c:	e06ee00c 	rsb	lr, lr, ip
    89a0:	e7d6c00e 	ldrb	ip, [r6, lr]
    89a4:	e5c1c000 	strb	ip, [r1]
    89a8:	e1a0c000 	mov	ip, r0
    89ac:	e3500000 	cmp	r0, #0
    89b0:	1afffff2 	bne	8980 <emit+0x98>
    89b4:	e3580000 	cmp	r8, #0
    89b8:	12813002 	addne	r3, r1, #2
    89bc:	13a0002d 	movne	r0, #45	; 0x2d
    89c0:	15c10001 	strbne	r0, [r1, #1]
    89c4:	ea00001d 	b	8a40 <emit+0x158>
    89c8:	e1a0e00d 	mov	lr, sp
    89cc:	e59f009c 	ldr	r0, [pc, #156]	; 8a70 <emit+0x188>
    89d0:	e28e3001 	add	r3, lr, #1
    89d4:	e20c100f 	and	r1, ip, #15
    89d8:	e7d01001 	ldrb	r1, [r0, r1]
    89dc:	e5ce1000 	strb	r1, [lr]
    89e0:	e1a0e003 	mov	lr, r3
    89e4:	e1b0c22c 	lsrs	ip, ip, #4
    89e8:	1afffff8 	bne	89d0 <emit+0xe8>
    89ec:	ea000013 	b	8a40 <emit+0x158>
    89f0:	e5cd3000 	strb	r3, [sp]
    89f4:	e28d3001 	add	r3, sp, #1
    89f8:	ea000010 	b	8a40 <emit+0x158>
    89fc:	e1a0e00d 	mov	lr, sp
    8a00:	e59f006c 	ldr	r0, [pc, #108]	; 8a74 <emit+0x18c>
    8a04:	e28e3001 	add	r3, lr, #1
    8a08:	e20c1001 	and	r1, ip, #1
    8a0c:	e7d01001 	ldrb	r1, [r0, r1]
    8a10:	e5ce1000 	strb	r1, [lr]
    8a14:	e1a0e003 	mov	lr, r3
    8a18:	e1b0c0ac 	lsrs	ip, ip, #1
    8a1c:	1afffff8 	bne	8a04 <emit+0x11c>
    8a20:	ea000006 	b	8a40 <emit+0x158>
    8a24:	ebffff78 	bl	880c <rpi_reset_putc>
    8a28:	e59f0048 	ldr	r0, [pc, #72]	; 8a78 <emit+0x190>
    8a2c:	e59f1048 	ldr	r1, [pc, #72]	; 8a7c <emit+0x194>
    8a30:	e59f2048 	ldr	r2, [pc, #72]	; 8a80 <emit+0x198>
    8a34:	e3a03075 	mov	r3, #117	; 0x75
    8a38:	ebffff58 	bl	87a0 <printk>
    8a3c:	eb0000cf 	bl	8d80 <clean_reboot>
    8a40:	e1a00003 	mov	r0, r3
    8a44:	e1a0100d 	mov	r1, sp
    8a48:	ebffff8b 	bl	887c <pad>
    8a4c:	e1a02000 	mov	r2, r0
    8a50:	e1a00005 	mov	r0, r5
    8a54:	e1a01004 	mov	r1, r4
    8a58:	e1a0300d 	mov	r3, sp
    8a5c:	ebffff91 	bl	88a8 <reverse>
    8a60:	e28dd040 	add	sp, sp, #64	; 0x40
    8a64:	e8bd81f0 	pop	{r4, r5, r6, r7, r8, pc}
    8a68:	cccccccd 	stclgt	12, cr12, [ip], {205}	; 0xcd
    8a6c:	0000a1e8 	andeq	sl, r0, r8, ror #3
    8a70:	0000a1f4 	strdeq	sl, [r0], -r4
    8a74:	0000a208 	andeq	sl, r0, r8, lsl #4
    8a78:	0000a1c0 	andeq	sl, r0, r0, asr #3
    8a7c:	0000a1d4 	ldrdeq	sl, [r0], -r4
    8a80:	0000a19c 	muleq	r0, ip, r1

00008a84 <rpi_set_output>:
    8a84:	e92d4008 	push	{r3, lr}
    8a88:	e3500000 	cmp	r0, #0
    8a8c:	1a000006 	bne	8aac <rpi_set_output+0x28>
    8a90:	ebffff5d 	bl	880c <rpi_reset_putc>
    8a94:	e59f0028 	ldr	r0, [pc, #40]	; 8ac4 <rpi_set_output+0x40>
    8a98:	e59f1028 	ldr	r1, [pc, #40]	; 8ac8 <rpi_set_output+0x44>
    8a9c:	e59f2028 	ldr	r2, [pc, #40]	; 8acc <rpi_set_output+0x48>
    8aa0:	e3a03020 	mov	r3, #32
    8aa4:	ebffff3d 	bl	87a0 <printk>
    8aa8:	eb0000b4 	bl	8d80 <clean_reboot>
    8aac:	e59f301c 	ldr	r3, [pc, #28]	; 8ad0 <rpi_set_output+0x4c>
    8ab0:	e5830000 	str	r0, [r3]
    8ab4:	e3510000 	cmp	r1, #0
    8ab8:	159f3014 	ldrne	r3, [pc, #20]	; 8ad4 <rpi_set_output+0x50>
    8abc:	15831000 	strne	r1, [r3]
    8ac0:	e8bd8008 	pop	{r3, pc}
    8ac4:	0000a20c 	andeq	sl, r0, ip, lsl #4
    8ac8:	0000a1d4 	ldrdeq	sl, [r0], -r4
    8acc:	0000a1a4 	andeq	sl, r0, r4, lsr #3
    8ad0:	0000a010 	andeq	sl, r0, r0, lsl r0
    8ad4:	0000a014 	andeq	sl, r0, r4, lsl r0

00008ad8 <va_printk>:
    8ad8:	e92d4ff0 	push	{r4, r5, r6, r7, r8, r9, sl, fp, lr}
    8adc:	e24dd08c 	sub	sp, sp, #140	; 0x8c
    8ae0:	e1a0a000 	mov	sl, r0
    8ae4:	e1a09003 	mov	r9, r3
    8ae8:	e2411001 	sub	r1, r1, #1
    8aec:	e0808001 	add	r8, r0, r1
    8af0:	e3a03000 	mov	r3, #0
    8af4:	e5c03000 	strb	r3, [r0]
    8af8:	e1a04000 	mov	r4, r0
    8afc:	e1a0b003 	mov	fp, r3
    8b00:	ea000086 	b	8d20 <va_printk+0x248>
    8b04:	e3530025 	cmp	r3, #37	; 0x25
    8b08:	12822001 	addne	r2, r2, #1
    8b0c:	15c43000 	strbne	r3, [r4]
    8b10:	12844001 	addne	r4, r4, #1
    8b14:	1a000081 	bne	8d20 <va_printk+0x248>
    8b18:	e5d21001 	ldrb	r1, [r2, #1]
    8b1c:	e3510025 	cmp	r1, #37	; 0x25
    8b20:	05c43000 	strbeq	r3, [r4]
    8b24:	02822002 	addeq	r2, r2, #2
    8b28:	02844001 	addeq	r4, r4, #1
    8b2c:	0a00007b 	beq	8d20 <va_printk+0x248>
    8b30:	e2826001 	add	r6, r2, #1
    8b34:	e1a0700b 	mov	r7, fp
    8b38:	ea000004 	b	8b50 <va_printk+0x78>
    8b3c:	e0877107 	add	r7, r7, r7, lsl #2
    8b40:	e1a07087 	lsl	r7, r7, #1
    8b44:	e0877005 	add	r7, r7, r5
    8b48:	e2477030 	sub	r7, r7, #48	; 0x30
    8b4c:	e2866001 	add	r6, r6, #1
    8b50:	e5d65000 	ldrb	r5, [r6]
    8b54:	e1a00005 	mov	r0, r5
    8b58:	ebffff42 	bl	8868 <isdigit>
    8b5c:	e3500000 	cmp	r0, #0
    8b60:	1afffff5 	bne	8b3c <va_printk+0x64>
    8b64:	e357001f 	cmp	r7, #31
    8b68:	9a000006 	bls	8b88 <va_printk+0xb0>
    8b6c:	ebffff26 	bl	880c <rpi_reset_putc>
    8b70:	e59f01d4 	ldr	r0, [pc, #468]	; 8d4c <va_printk+0x274>
    8b74:	e59f11d4 	ldr	r1, [pc, #468]	; 8d50 <va_printk+0x278>
    8b78:	e59f21d4 	ldr	r2, [pc, #468]	; 8d54 <va_printk+0x27c>
    8b7c:	e3a03092 	mov	r3, #146	; 0x92
    8b80:	ebffff06 	bl	87a0 <printk>
    8b84:	eb00007d 	bl	8d80 <clean_reboot>
    8b88:	e2455062 	sub	r5, r5, #98	; 0x62
    8b8c:	e3550016 	cmp	r5, #22
    8b90:	979ff105 	ldrls	pc, [pc, r5, lsl #2]
    8b94:	ea00004e 	b	8cd4 <va_printk+0x1fc>
    8b98:	00008c80 	andeq	r8, r0, r0, lsl #25
    8b9c:	00008cb0 			; <UNDEFINED> instruction: 0x00008cb0
    8ba0:	00008c10 	andeq	r8, r0, r0, lsl ip
    8ba4:	00008cd4 	ldrdeq	r8, [r0], -r4
    8ba8:	00008bf4 	strdeq	r8, [r0], -r4
    8bac:	00008cd4 	ldrdeq	r8, [r0], -r4
    8bb0:	00008cd4 	ldrdeq	r8, [r0], -r4
    8bb4:	00008cd4 	ldrdeq	r8, [r0], -r4
    8bb8:	00008cd4 	ldrdeq	r8, [r0], -r4
    8bbc:	00008cd4 	ldrdeq	r8, [r0], -r4
    8bc0:	00008cd4 	ldrdeq	r8, [r0], -r4
    8bc4:	00008cd4 	ldrdeq	r8, [r0], -r4
    8bc8:	00008cd4 	ldrdeq	r8, [r0], -r4
    8bcc:	00008cd4 	ldrdeq	r8, [r0], -r4
    8bd0:	00008c5c 	andeq	r8, r0, ip, asr ip
    8bd4:	00008cd4 	ldrdeq	r8, [r0], -r4
    8bd8:	00008cd4 	ldrdeq	r8, [r0], -r4
    8bdc:	00008ca4 	andeq	r8, r0, r4, lsr #25
    8be0:	00008cd4 	ldrdeq	r8, [r0], -r4
    8be4:	00008c38 	andeq	r8, r0, r8, lsr ip
    8be8:	00008cd4 	ldrdeq	r8, [r0], -r4
    8bec:	00008cd4 	ldrdeq	r8, [r0], -r4
    8bf0:	00008c5c 	andeq	r8, r0, ip, asr ip
    8bf4:	ebffff04 	bl	880c <rpi_reset_putc>
    8bf8:	e59f0158 	ldr	r0, [pc, #344]	; 8d58 <va_printk+0x280>
    8bfc:	e59f114c 	ldr	r1, [pc, #332]	; 8d50 <va_printk+0x278>
    8c00:	e59f214c 	ldr	r2, [pc, #332]	; 8d54 <va_printk+0x27c>
    8c04:	e3a03098 	mov	r3, #152	; 0x98
    8c08:	ebfffee4 	bl	87a0 <printk>
    8c0c:	eb00005b 	bl	8d80 <clean_reboot>
    8c10:	e5993000 	ldr	r3, [r9]
    8c14:	e2899004 	add	r9, r9, #4
    8c18:	e58d7000 	str	r7, [sp]
    8c1c:	e3a02001 	mov	r2, #1
    8c20:	e58d2004 	str	r2, [sp, #4]
    8c24:	e3a0000a 	mov	r0, #10
    8c28:	e28d1008 	add	r1, sp, #8
    8c2c:	e3a02080 	mov	r2, #128	; 0x80
    8c30:	ebffff2c 	bl	88e8 <emit>
    8c34:	ea00002f 	b	8cf8 <va_printk+0x220>
    8c38:	e5993000 	ldr	r3, [r9]
    8c3c:	e2899004 	add	r9, r9, #4
    8c40:	e58d7000 	str	r7, [sp]
    8c44:	e58db004 	str	fp, [sp, #4]
    8c48:	e3a0000a 	mov	r0, #10
    8c4c:	e28d1008 	add	r1, sp, #8
    8c50:	e3a02080 	mov	r2, #128	; 0x80
    8c54:	ebffff23 	bl	88e8 <emit>
    8c58:	ea000026 	b	8cf8 <va_printk+0x220>
    8c5c:	e5993000 	ldr	r3, [r9]
    8c60:	e2899004 	add	r9, r9, #4
    8c64:	e58d7000 	str	r7, [sp]
    8c68:	e58db004 	str	fp, [sp, #4]
    8c6c:	e3a00010 	mov	r0, #16
    8c70:	e28d1008 	add	r1, sp, #8
    8c74:	e3a02080 	mov	r2, #128	; 0x80
    8c78:	ebffff1a 	bl	88e8 <emit>
    8c7c:	ea00001d 	b	8cf8 <va_printk+0x220>
    8c80:	e5993000 	ldr	r3, [r9]
    8c84:	e2899004 	add	r9, r9, #4
    8c88:	e58d7000 	str	r7, [sp]
    8c8c:	e58db004 	str	fp, [sp, #4]
    8c90:	e3a00002 	mov	r0, #2
    8c94:	e28d1008 	add	r1, sp, #8
    8c98:	e3a02080 	mov	r2, #128	; 0x80
    8c9c:	ebffff11 	bl	88e8 <emit>
    8ca0:	ea000014 	b	8cf8 <va_printk+0x220>
    8ca4:	e5990000 	ldr	r0, [r9]
    8ca8:	e2899004 	add	r9, r9, #4
    8cac:	ea000011 	b	8cf8 <va_printk+0x220>
    8cb0:	e5993000 	ldr	r3, [r9]
    8cb4:	e2899004 	add	r9, r9, #4
    8cb8:	e58d7000 	str	r7, [sp]
    8cbc:	e58db004 	str	fp, [sp, #4]
    8cc0:	e3a00008 	mov	r0, #8
    8cc4:	e08d1000 	add	r1, sp, r0
    8cc8:	e3a02080 	mov	r2, #128	; 0x80
    8ccc:	ebffff05 	bl	88e8 <emit>
    8cd0:	ea000008 	b	8cf8 <va_printk+0x220>
    8cd4:	ebfffecc 	bl	880c <rpi_reset_putc>
    8cd8:	e5d63000 	ldrb	r3, [r6]
    8cdc:	e58d3000 	str	r3, [sp]
    8ce0:	e59f0074 	ldr	r0, [pc, #116]	; 8d5c <va_printk+0x284>
    8ce4:	e59f1064 	ldr	r1, [pc, #100]	; 8d50 <va_printk+0x278>
    8ce8:	e59f2064 	ldr	r2, [pc, #100]	; 8d54 <va_printk+0x27c>
    8cec:	e3a030b9 	mov	r3, #185	; 0xb9
    8cf0:	ebfffeaa 	bl	87a0 <printk>
    8cf4:	eb000021 	bl	8d80 <clean_reboot>
    8cf8:	e2862001 	add	r2, r6, #1
    8cfc:	ea000002 	b	8d0c <va_printk+0x234>
    8d00:	e2800001 	add	r0, r0, #1
    8d04:	e5c43000 	strb	r3, [r4]
    8d08:	e2844001 	add	r4, r4, #1
    8d0c:	e1540008 	cmp	r4, r8
    8d10:	2a000002 	bcs	8d20 <va_printk+0x248>
    8d14:	e5d03000 	ldrb	r3, [r0]
    8d18:	e3530000 	cmp	r3, #0
    8d1c:	1afffff7 	bne	8d00 <va_printk+0x228>
    8d20:	e5d23000 	ldrb	r3, [r2]
    8d24:	e3530000 	cmp	r3, #0
    8d28:	0a000001 	beq	8d34 <va_printk+0x25c>
    8d2c:	e1540008 	cmp	r4, r8
    8d30:	3affff73 	bcc	8b04 <va_printk+0x2c>
    8d34:	e2840001 	add	r0, r4, #1
    8d38:	e3a03000 	mov	r3, #0
    8d3c:	e5c43000 	strb	r3, [r4]
    8d40:	e06a0000 	rsb	r0, sl, r0
    8d44:	e28dd08c 	add	sp, sp, #140	; 0x8c
    8d48:	e8bd8ff0 	pop	{r4, r5, r6, r7, r8, r9, sl, fp, pc}
    8d4c:	0000a224 	andeq	sl, r0, r4, lsr #4
    8d50:	0000a1d4 	ldrdeq	sl, [r0], -r4
    8d54:	0000a1b4 			; <UNDEFINED> instruction: 0x0000a1b4
    8d58:	0000a240 	andeq	sl, r0, r0, asr #4
    8d5c:	0000a268 	andeq	sl, r0, r8, ror #4

00008d60 <enable_cache>:
    8d60:	ee113f10 	mrc	15, 0, r3, cr1, cr0, {0}
    8d64:	e3833b06 	orr	r3, r3, #6144	; 0x1800
    8d68:	ee013f10 	mcr	15, 0, r3, cr1, cr0, {0}
    8d6c:	e12fff1e 	bx	lr

00008d70 <disable_cache>:
    8d70:	ee113f10 	mrc	15, 0, r3, cr1, cr0, {0}
    8d74:	e3c33b06 	bic	r3, r3, #6144	; 0x1800
    8d78:	ee013f10 	mcr	15, 0, r3, cr1, cr0, {0}
    8d7c:	e12fff1e 	bx	lr

00008d80 <clean_reboot>:
    8d80:	e92d4008 	push	{r3, lr}
    8d84:	e59f3014 	ldr	r3, [pc, #20]	; 8da0 <clean_reboot+0x20>
    8d88:	e5933000 	ldr	r3, [r3]
    8d8c:	e59f0010 	ldr	r0, [pc, #16]	; 8da4 <clean_reboot+0x24>
    8d90:	e12fff33 	blx	r3
    8d94:	e3a00064 	mov	r0, #100	; 0x64
    8d98:	eb000063 	bl	8f2c <delay_ms>
    8d9c:	eb000038 	bl	8e84 <rpi_reboot>
    8da0:	0000a014 	andeq	sl, r0, r4, lsl r0
    8da4:	0000a2a0 	andeq	sl, r0, r0, lsr #5

00008da8 <internal_sw_putchar>:
    8da8:	e92d4010 	push	{r4, lr}
    8dac:	e1a04000 	mov	r4, r0
    8db0:	e59f000c 	ldr	r0, [pc, #12]	; 8dc4 <internal_sw_putchar+0x1c>
    8db4:	e6ef1074 	uxtb	r1, r4
    8db8:	eb0001d4 	bl	9510 <sw_uart_putc>
    8dbc:	e1a00004 	mov	r0, r4
    8dc0:	e8bd8010 	pop	{r4, pc}
    8dc4:	0000e9b8 			; <UNDEFINED> instruction: 0x0000e9b8

00008dc8 <_cstart>:
    8dc8:	e92d4008 	push	{r3, lr}
    8dcc:	e59f3068 	ldr	r3, [pc, #104]	; 8e3c <_cstart+0x74>
    8dd0:	e59f2068 	ldr	r2, [pc, #104]	; 8e40 <_cstart+0x78>
    8dd4:	e3a01000 	mov	r1, #0
    8dd8:	ea000001 	b	8de4 <_cstart+0x1c>
    8ddc:	e5831000 	str	r1, [r3]
    8de0:	e2833004 	add	r3, r3, #4
    8de4:	e1530002 	cmp	r3, r2
    8de8:	3afffffb 	bcc	8ddc <_cstart+0x14>
    8dec:	eb00047d 	bl	9fe8 <cb_get_block>
    8df0:	e3500000 	cmp	r0, #0
    8df4:	0a00000e 	beq	8e34 <_cstart+0x6c>
    8df8:	e5d02004 	ldrb	r2, [r0, #4]
    8dfc:	e3520002 	cmp	r2, #2
    8e00:	1a00000b 	bne	8e34 <_cstart+0x6c>
    8e04:	e59f1038 	ldr	r1, [pc, #56]	; 8e44 <_cstart+0x7c>
    8e08:	e59f2038 	ldr	r2, [pc, #56]	; 8e48 <_cstart+0x80>
    8e0c:	e5821000 	str	r1, [r2]
    8e10:	e59fc034 	ldr	ip, [pc, #52]	; 8e4c <_cstart+0x84>
    8e14:	e2803008 	add	r3, r0, #8
    8e18:	e8930007 	ldm	r3, {r0, r1, r2}
    8e1c:	e88c0007 	stm	ip, {r0, r1, r2}
    8e20:	e1a0000c 	mov	r0, ip
    8e24:	e59f1024 	ldr	r1, [pc, #36]	; 8e50 <_cstart+0x88>
    8e28:	eb00030c 	bl	9a60 <sw_uart_printk>
    8e2c:	e59f0020 	ldr	r0, [pc, #32]	; 8e54 <_cstart+0x8c>
    8e30:	ebfffe5a 	bl	87a0 <printk>
    8e34:	ebfffdea 	bl	85e4 <notmain>
    8e38:	eb000011 	bl	8e84 <rpi_reboot>
    8e3c:	0000a56c 	andeq	sl, r0, ip, ror #10
    8e40:	0000e9c8 	andeq	lr, r0, r8, asr #19
    8e44:	00008da8 	andeq	r8, r0, r8, lsr #27
    8e48:	0000a010 	andeq	sl, r0, r0, lsl r0
    8e4c:	0000e9b8 			; <UNDEFINED> instruction: 0x0000e9b8
    8e50:	0000a2ac 	andeq	sl, r0, ip, lsr #5
    8e54:	0000a2d0 	ldrdeq	sl, [r0], -r0

00008e58 <at_user_level>:
    8e58:	e10f0000 	mrs	r0, CPSR
    8e5c:	e200001f 	and	r0, r0, #31
    8e60:	e3500010 	cmp	r0, #16
    8e64:	13a00000 	movne	r0, #0
    8e68:	03a00001 	moveq	r0, #1
    8e6c:	e12fff1e 	bx	lr

00008e70 <set_user_level>:
    8e70:	e10f3000 	mrs	r3, CPSR
    8e74:	e3c3301f 	bic	r3, r3, #31
    8e78:	e3833010 	orr	r3, r3, #16
    8e7c:	e129f003 	msr	CPSR_fc, r3
    8e80:	e12fff1e 	bx	lr

00008e84 <rpi_reboot>:
    8e84:	e92d4008 	push	{r3, lr}
    8e88:	ebfffff2 	bl	8e58 <at_user_level>
    8e8c:	e3500000 	cmp	r0, #0
    8e90:	0a000000 	beq	8e98 <rpi_reboot+0x14>
    8e94:	ebfffff5 	bl	8e70 <set_user_level>
    8e98:	e3a0001e 	mov	r0, #30
    8e9c:	eb000022 	bl	8f2c <delay_ms>
    8ea0:	e59f0014 	ldr	r0, [pc, #20]	; 8ebc <rpi_reboot+0x38>
    8ea4:	e59f1014 	ldr	r1, [pc, #20]	; 8ec0 <rpi_reboot+0x3c>
    8ea8:	eb0003fd 	bl	9ea4 <PUT32>
    8eac:	e59f0010 	ldr	r0, [pc, #16]	; 8ec4 <rpi_reboot+0x40>
    8eb0:	e59f1010 	ldr	r1, [pc, #16]	; 8ec8 <rpi_reboot+0x44>
    8eb4:	eb0003fa 	bl	9ea4 <PUT32>
    8eb8:	eafffffe 	b	8eb8 <rpi_reboot+0x34>
    8ebc:	20100024 	andscs	r0, r0, r4, lsr #32
    8ec0:	5a000001 	bpl	8ecc <delay_cycles>
    8ec4:	2010001c 	andscs	r0, r0, ip, lsl r0
    8ec8:	5a000020 	bpl	8f50 <delay_sec+0x10>

00008ecc <delay_cycles>:
    8ecc:	ea000001 	b	8ed8 <delay_cycles+0xc>
    8ed0:	e2811000 	add	r1, r1, #0
    8ed4:	e1a00003 	mov	r0, r3
    8ed8:	e2403001 	sub	r3, r0, #1
    8edc:	e3500000 	cmp	r0, #0
    8ee0:	1afffffa 	bne	8ed0 <delay_cycles+0x4>
    8ee4:	e12fff1e 	bx	lr

00008ee8 <timer_get_usec_raw>:
    8ee8:	e92d4008 	push	{r3, lr}
    8eec:	e59f0004 	ldr	r0, [pc, #4]	; 8ef8 <timer_get_usec_raw+0x10>
    8ef0:	eb0003f7 	bl	9ed4 <GET32>
    8ef4:	e8bd8008 	pop	{r3, pc}
    8ef8:	20003004 	andcs	r3, r0, r4

00008efc <timer_get_usec>:
    8efc:	e92d4008 	push	{r3, lr}
    8f00:	ebfffff8 	bl	8ee8 <timer_get_usec_raw>
    8f04:	e8bd8008 	pop	{r3, pc}

00008f08 <delay_us>:
    8f08:	e92d4038 	push	{r3, r4, r5, lr}
    8f0c:	e1a05000 	mov	r5, r0
    8f10:	ebfffff9 	bl	8efc <timer_get_usec>
    8f14:	e1a04000 	mov	r4, r0
    8f18:	ebfffff7 	bl	8efc <timer_get_usec>
    8f1c:	e0640000 	rsb	r0, r4, r0
    8f20:	e1500005 	cmp	r0, r5
    8f24:	3afffffb 	bcc	8f18 <delay_us+0x10>
    8f28:	e8bd8038 	pop	{r3, r4, r5, pc}

00008f2c <delay_ms>:
    8f2c:	e92d4008 	push	{r3, lr}
    8f30:	e3a03ffa 	mov	r3, #1000	; 0x3e8
    8f34:	e0000093 	mul	r0, r3, r0
    8f38:	ebfffff2 	bl	8f08 <delay_us>
    8f3c:	e8bd8008 	pop	{r3, pc}

00008f40 <delay_sec>:
    8f40:	e92d4008 	push	{r3, lr}
    8f44:	e3a03ffa 	mov	r3, #1000	; 0x3e8
    8f48:	e0000093 	mul	r0, r3, r0
    8f4c:	ebfffff6 	bl	8f2c <delay_ms>
    8f50:	e8bd8008 	pop	{r3, pc}

00008f54 <gpio_set_output>:
    8f54:	e92d4038 	push	{r3, r4, r5, lr}
    8f58:	e1a04000 	mov	r4, r0
    8f5c:	e350001f 	cmp	r0, #31
    8f60:	88bd8038 	pophi	{r3, r4, r5, pc}
    8f64:	e59f30b4 	ldr	r3, [pc, #180]	; 9020 <gpio_set_output+0xcc>
    8f68:	e0832093 	umull	r2, r3, r3, r0
    8f6c:	e1a031a3 	lsr	r3, r3, #3
    8f70:	e3530005 	cmp	r3, #5
    8f74:	979ff103 	ldrls	pc, [pc, r3, lsl #2]
    8f78:	ea000017 	b	8fdc <gpio_set_output+0x88>
    8f7c:	00008f94 	muleq	r0, r4, pc	; <UNPREDICTABLE>
    8f80:	00008fa0 	andeq	r8, r0, r0, lsr #31
    8f84:	00008fac 	andeq	r8, r0, ip, lsr #31
    8f88:	00008fb8 			; <UNDEFINED> instruction: 0x00008fb8
    8f8c:	00008fc4 	andeq	r8, r0, r4, asr #31
    8f90:	00008fd0 	ldrdeq	r8, [r0], -r0
    8f94:	e59f3088 	ldr	r3, [pc, #136]	; 9024 <gpio_set_output+0xd0>
    8f98:	e5935000 	ldr	r5, [r3]
    8f9c:	ea00000f 	b	8fe0 <gpio_set_output+0x8c>
    8fa0:	e59f307c 	ldr	r3, [pc, #124]	; 9024 <gpio_set_output+0xd0>
    8fa4:	e5935004 	ldr	r5, [r3, #4]
    8fa8:	ea00000c 	b	8fe0 <gpio_set_output+0x8c>
    8fac:	e59f3070 	ldr	r3, [pc, #112]	; 9024 <gpio_set_output+0xd0>
    8fb0:	e5935008 	ldr	r5, [r3, #8]
    8fb4:	ea000009 	b	8fe0 <gpio_set_output+0x8c>
    8fb8:	e59f3064 	ldr	r3, [pc, #100]	; 9024 <gpio_set_output+0xd0>
    8fbc:	e593500c 	ldr	r5, [r3, #12]
    8fc0:	ea000006 	b	8fe0 <gpio_set_output+0x8c>
    8fc4:	e59f3058 	ldr	r3, [pc, #88]	; 9024 <gpio_set_output+0xd0>
    8fc8:	e5935010 	ldr	r5, [r3, #16]
    8fcc:	ea000003 	b	8fe0 <gpio_set_output+0x8c>
    8fd0:	e59f304c 	ldr	r3, [pc, #76]	; 9024 <gpio_set_output+0xd0>
    8fd4:	e5935014 	ldr	r5, [r3, #20]
    8fd8:	ea000000 	b	8fe0 <gpio_set_output+0x8c>
    8fdc:	e3a05000 	mov	r5, #0
    8fe0:	e1a00005 	mov	r0, r5
    8fe4:	eb0003b8 	bl	9ecc <get32>
    8fe8:	e59f1030 	ldr	r1, [pc, #48]	; 9020 <gpio_set_output+0xcc>
    8fec:	e0813491 	umull	r3, r1, r1, r4
    8ff0:	e1a011a1 	lsr	r1, r1, #3
    8ff4:	e0811101 	add	r1, r1, r1, lsl #2
    8ff8:	e1a01081 	lsl	r1, r1, #1
    8ffc:	e0611004 	rsb	r1, r1, r4
    9000:	e0811081 	add	r1, r1, r1, lsl #1
    9004:	e3a03007 	mov	r3, #7
    9008:	e1c03113 	bic	r3, r0, r3, lsl r1
    900c:	e1a00005 	mov	r0, r5
    9010:	e3a02001 	mov	r2, #1
    9014:	e1831112 	orr	r1, r3, r2, lsl r1
    9018:	eb00039f 	bl	9e9c <put32>
    901c:	e8bd8038 	pop	{r3, r4, r5, pc}
    9020:	cccccccd 	stclgt	12, cr12, [ip], {205}	; 0xcd
    9024:	0000a018 	andeq	sl, r0, r8, lsl r0

00009028 <gpio_set_on>:
    9028:	e92d4008 	push	{r3, lr}
    902c:	e350001f 	cmp	r0, #31
    9030:	88bd8008 	pophi	{r3, pc}
    9034:	959f3020 	ldrls	r3, [pc, #32]	; 905c <gpio_set_on+0x34>
    9038:	95932018 	ldrls	r2, [r3, #24]
    903c:	859f3018 	ldrhi	r3, [pc, #24]	; 905c <gpio_set_on+0x34>
    9040:	8593201c 	ldrhi	r2, [r3, #28]
    9044:	e200301f 	and	r3, r0, #31
    9048:	e1a00002 	mov	r0, r2
    904c:	e3a01001 	mov	r1, #1
    9050:	e1a01311 	lsl	r1, r1, r3
    9054:	eb000390 	bl	9e9c <put32>
    9058:	e8bd8008 	pop	{r3, pc}
    905c:	0000a018 	andeq	sl, r0, r8, lsl r0

00009060 <gpio_set_off>:
    9060:	e92d4008 	push	{r3, lr}
    9064:	e350001f 	cmp	r0, #31
    9068:	88bd8008 	pophi	{r3, pc}
    906c:	959f3020 	ldrls	r3, [pc, #32]	; 9094 <gpio_set_off+0x34>
    9070:	95932020 	ldrls	r2, [r3, #32]
    9074:	859f3018 	ldrhi	r3, [pc, #24]	; 9094 <gpio_set_off+0x34>
    9078:	85932024 	ldrhi	r2, [r3, #36]	; 0x24
    907c:	e200301f 	and	r3, r0, #31
    9080:	e1a00002 	mov	r0, r2
    9084:	e3a01001 	mov	r1, #1
    9088:	e1a01311 	lsl	r1, r1, r3
    908c:	eb000382 	bl	9e9c <put32>
    9090:	e8bd8008 	pop	{r3, pc}
    9094:	0000a018 	andeq	sl, r0, r8, lsl r0

00009098 <gpio_set_input>:
    9098:	e92d4038 	push	{r3, r4, r5, lr}
    909c:	e1a04000 	mov	r4, r0
    90a0:	e350001f 	cmp	r0, #31
    90a4:	88bd8038 	pophi	{r3, r4, r5, pc}
    90a8:	e59f30ac 	ldr	r3, [pc, #172]	; 915c <gpio_set_input+0xc4>
    90ac:	e0832093 	umull	r2, r3, r3, r0
    90b0:	e1a031a3 	lsr	r3, r3, #3
    90b4:	e3530005 	cmp	r3, #5
    90b8:	979ff103 	ldrls	pc, [pc, r3, lsl #2]
    90bc:	ea000017 	b	9120 <gpio_set_input+0x88>
    90c0:	000090d8 	ldrdeq	r9, [r0], -r8
    90c4:	000090e4 	andeq	r9, r0, r4, ror #1
    90c8:	000090f0 	strdeq	r9, [r0], -r0
    90cc:	000090fc 	strdeq	r9, [r0], -ip
    90d0:	00009108 	andeq	r9, r0, r8, lsl #2
    90d4:	00009114 	andeq	r9, r0, r4, lsl r1
    90d8:	e59f3080 	ldr	r3, [pc, #128]	; 9160 <gpio_set_input+0xc8>
    90dc:	e5935000 	ldr	r5, [r3]
    90e0:	ea00000f 	b	9124 <gpio_set_input+0x8c>
    90e4:	e59f3074 	ldr	r3, [pc, #116]	; 9160 <gpio_set_input+0xc8>
    90e8:	e5935004 	ldr	r5, [r3, #4]
    90ec:	ea00000c 	b	9124 <gpio_set_input+0x8c>
    90f0:	e59f3068 	ldr	r3, [pc, #104]	; 9160 <gpio_set_input+0xc8>
    90f4:	e5935008 	ldr	r5, [r3, #8]
    90f8:	ea000009 	b	9124 <gpio_set_input+0x8c>
    90fc:	e59f305c 	ldr	r3, [pc, #92]	; 9160 <gpio_set_input+0xc8>
    9100:	e593500c 	ldr	r5, [r3, #12]
    9104:	ea000006 	b	9124 <gpio_set_input+0x8c>
    9108:	e59f3050 	ldr	r3, [pc, #80]	; 9160 <gpio_set_input+0xc8>
    910c:	e5935010 	ldr	r5, [r3, #16]
    9110:	ea000003 	b	9124 <gpio_set_input+0x8c>
    9114:	e59f3044 	ldr	r3, [pc, #68]	; 9160 <gpio_set_input+0xc8>
    9118:	e5935014 	ldr	r5, [r3, #20]
    911c:	ea000000 	b	9124 <gpio_set_input+0x8c>
    9120:	e3a05000 	mov	r5, #0
    9124:	e1a00005 	mov	r0, r5
    9128:	eb000367 	bl	9ecc <get32>
    912c:	e59f1028 	ldr	r1, [pc, #40]	; 915c <gpio_set_input+0xc4>
    9130:	e0813491 	umull	r3, r1, r1, r4
    9134:	e1a011a1 	lsr	r1, r1, #3
    9138:	e0811101 	add	r1, r1, r1, lsl #2
    913c:	e1a01081 	lsl	r1, r1, #1
    9140:	e0611004 	rsb	r1, r1, r4
    9144:	e0811081 	add	r1, r1, r1, lsl #1
    9148:	e3a03007 	mov	r3, #7
    914c:	e1c01113 	bic	r1, r0, r3, lsl r1
    9150:	e1a00005 	mov	r0, r5
    9154:	eb000350 	bl	9e9c <put32>
    9158:	e8bd8038 	pop	{r3, r4, r5, pc}
    915c:	cccccccd 	stclgt	12, cr12, [ip], {205}	; 0xcd
    9160:	0000a018 	andeq	sl, r0, r8, lsl r0

00009164 <gpio_read>:
    9164:	e92d4010 	push	{r4, lr}
    9168:	e1a04000 	mov	r4, r0
    916c:	e350001f 	cmp	r0, #31
    9170:	8a00000b 	bhi	91a4 <gpio_read+0x40>
    9174:	8a000003 	bhi	9188 <gpio_read+0x24>
    9178:	e59f302c 	ldr	r3, [pc, #44]	; 91ac <gpio_read+0x48>
    917c:	e5930028 	ldr	r0, [r3, #40]	; 0x28
    9180:	eb000351 	bl	9ecc <get32>
    9184:	ea000002 	b	9194 <gpio_read+0x30>
    9188:	e59f301c 	ldr	r3, [pc, #28]	; 91ac <gpio_read+0x48>
    918c:	e593002c 	ldr	r0, [r3, #44]	; 0x2c
    9190:	eb00034d 	bl	9ecc <get32>
    9194:	e204401f 	and	r4, r4, #31
    9198:	e3a03001 	mov	r3, #1
    919c:	e0000413 	and	r0, r0, r3, lsl r4
    91a0:	e8bd8010 	pop	{r4, pc}
    91a4:	e3e00000 	mvn	r0, #0
    91a8:	e8bd8010 	pop	{r4, pc}
    91ac:	0000a018 	andeq	sl, r0, r8, lsl r0

000091b0 <gpio_write>:
    91b0:	e92d4008 	push	{r3, lr}
    91b4:	e350001f 	cmp	r0, #31
    91b8:	88bd8008 	pophi	{r3, pc}
    91bc:	e3510000 	cmp	r1, #0
    91c0:	0a00000b 	beq	91f4 <gpio_write+0x44>
    91c4:	e350001f 	cmp	r0, #31
    91c8:	88bd8008 	pophi	{r3, pc}
    91cc:	959f3050 	ldrls	r3, [pc, #80]	; 9224 <gpio_write+0x74>
    91d0:	95932018 	ldrls	r2, [r3, #24]
    91d4:	859f3048 	ldrhi	r3, [pc, #72]	; 9224 <gpio_write+0x74>
    91d8:	8593201c 	ldrhi	r2, [r3, #28]
    91dc:	e200301f 	and	r3, r0, #31
    91e0:	e1a00002 	mov	r0, r2
    91e4:	e3a01001 	mov	r1, #1
    91e8:	e1a01311 	lsl	r1, r1, r3
    91ec:	eb00032a 	bl	9e9c <put32>
    91f0:	e8bd8008 	pop	{r3, pc}
    91f4:	e350001f 	cmp	r0, #31
    91f8:	88bd8008 	pophi	{r3, pc}
    91fc:	959f3020 	ldrls	r3, [pc, #32]	; 9224 <gpio_write+0x74>
    9200:	95932020 	ldrls	r2, [r3, #32]
    9204:	859f3018 	ldrhi	r3, [pc, #24]	; 9224 <gpio_write+0x74>
    9208:	85932024 	ldrhi	r2, [r3, #36]	; 0x24
    920c:	e200301f 	and	r3, r0, #31
    9210:	e1a00002 	mov	r0, r2
    9214:	e3a01001 	mov	r1, #1
    9218:	e1a01311 	lsl	r1, r1, r3
    921c:	eb00031e 	bl	9e9c <put32>
    9220:	e8bd8008 	pop	{r3, pc}
    9224:	0000a018 	andeq	sl, r0, r8, lsl r0

00009228 <gpio_set_function>:
    9228:	e92d4070 	push	{r4, r5, r6, lr}
    922c:	e1a04000 	mov	r4, r0
    9230:	e1a05001 	mov	r5, r1
    9234:	e3510007 	cmp	r1, #7
    9238:	9350001f 	cmpls	r0, #31
    923c:	88bd8070 	pophi	{r4, r5, r6, pc}
    9240:	e59f30b0 	ldr	r3, [pc, #176]	; 92f8 <gpio_set_function+0xd0>
    9244:	e0832093 	umull	r2, r3, r3, r0
    9248:	e1a031a3 	lsr	r3, r3, #3
    924c:	e3530005 	cmp	r3, #5
    9250:	979ff103 	ldrls	pc, [pc, r3, lsl #2]
    9254:	ea000017 	b	92b8 <gpio_set_function+0x90>
    9258:	00009270 	andeq	r9, r0, r0, ror r2
    925c:	0000927c 	andeq	r9, r0, ip, ror r2
    9260:	00009288 	andeq	r9, r0, r8, lsl #5
    9264:	00009294 	muleq	r0, r4, r2
    9268:	000092a0 	andeq	r9, r0, r0, lsr #5
    926c:	000092ac 	andeq	r9, r0, ip, lsr #5
    9270:	e59f3084 	ldr	r3, [pc, #132]	; 92fc <gpio_set_function+0xd4>
    9274:	e5936000 	ldr	r6, [r3]
    9278:	ea00000f 	b	92bc <gpio_set_function+0x94>
    927c:	e59f3078 	ldr	r3, [pc, #120]	; 92fc <gpio_set_function+0xd4>
    9280:	e5936004 	ldr	r6, [r3, #4]
    9284:	ea00000c 	b	92bc <gpio_set_function+0x94>
    9288:	e59f306c 	ldr	r3, [pc, #108]	; 92fc <gpio_set_function+0xd4>
    928c:	e5936008 	ldr	r6, [r3, #8]
    9290:	ea000009 	b	92bc <gpio_set_function+0x94>
    9294:	e59f3060 	ldr	r3, [pc, #96]	; 92fc <gpio_set_function+0xd4>
    9298:	e593600c 	ldr	r6, [r3, #12]
    929c:	ea000006 	b	92bc <gpio_set_function+0x94>
    92a0:	e59f3054 	ldr	r3, [pc, #84]	; 92fc <gpio_set_function+0xd4>
    92a4:	e5936010 	ldr	r6, [r3, #16]
    92a8:	ea000003 	b	92bc <gpio_set_function+0x94>
    92ac:	e59f3048 	ldr	r3, [pc, #72]	; 92fc <gpio_set_function+0xd4>
    92b0:	e5936014 	ldr	r6, [r3, #20]
    92b4:	ea000000 	b	92bc <gpio_set_function+0x94>
    92b8:	e3a06000 	mov	r6, #0
    92bc:	e1a00006 	mov	r0, r6
    92c0:	eb000301 	bl	9ecc <get32>
    92c4:	e59f302c 	ldr	r3, [pc, #44]	; 92f8 <gpio_set_function+0xd0>
    92c8:	e0832493 	umull	r2, r3, r3, r4
    92cc:	e1a031a3 	lsr	r3, r3, #3
    92d0:	e0833103 	add	r3, r3, r3, lsl #2
    92d4:	e1a03083 	lsl	r3, r3, #1
    92d8:	e0633004 	rsb	r3, r3, r4
    92dc:	e0833083 	add	r3, r3, r3, lsl #1
    92e0:	e3a01007 	mov	r1, #7
    92e4:	e1c01311 	bic	r1, r0, r1, lsl r3
    92e8:	e1a00006 	mov	r0, r6
    92ec:	e1811315 	orr	r1, r1, r5, lsl r3
    92f0:	eb0002e9 	bl	9e9c <put32>
    92f4:	e8bd8070 	pop	{r4, r5, r6, pc}
    92f8:	cccccccd 	stclgt	12, cr12, [ip], {205}	; 0xcd
    92fc:	0000a018 	andeq	sl, r0, r8, lsl r0

00009300 <is_gpio_int>:
    9300:	e92d4008 	push	{r3, lr}
    9304:	e59f301c 	ldr	r3, [pc, #28]	; 9328 <is_gpio_int+0x28>
    9308:	e5930030 	ldr	r0, [r3, #48]	; 0x30
    930c:	eb0002ee 	bl	9ecc <get32>
    9310:	e3500000 	cmp	r0, #0
    9314:	0a000001 	beq	9320 <is_gpio_int+0x20>
    9318:	e3a00001 	mov	r0, #1
    931c:	e8bd8008 	pop	{r3, pc}
    9320:	e3a00000 	mov	r0, #0
    9324:	e8bd8008 	pop	{r3, pc}
    9328:	0000a018 	andeq	sl, r0, r8, lsl r0

0000932c <gpio_int_rising_edge>:
    932c:	e92d4038 	push	{r3, r4, r5, lr}
    9330:	e1a04000 	mov	r4, r0
    9334:	e350001f 	cmp	r0, #31
    9338:	88bd8038 	pophi	{r3, r4, r5, pc}
    933c:	eb0002d0 	bl	9e84 <dev_barrier>
    9340:	e354001f 	cmp	r4, #31
    9344:	8a000007 	bhi	9368 <gpio_int_rising_edge+0x3c>
    9348:	e59f505c 	ldr	r5, [pc, #92]	; 93ac <gpio_int_rising_edge+0x80>
    934c:	e5950034 	ldr	r0, [r5, #52]	; 0x34
    9350:	eb0002dd 	bl	9ecc <get32>
    9354:	e3a01001 	mov	r1, #1
    9358:	e1801411 	orr	r1, r0, r1, lsl r4
    935c:	e5950034 	ldr	r0, [r5, #52]	; 0x34
    9360:	eb0002cd 	bl	9e9c <put32>
    9364:	ea000007 	b	9388 <gpio_int_rising_edge+0x5c>
    9368:	e59f503c 	ldr	r5, [pc, #60]	; 93ac <gpio_int_rising_edge+0x80>
    936c:	e5950038 	ldr	r0, [r5, #56]	; 0x38
    9370:	eb0002d5 	bl	9ecc <get32>
    9374:	e204401f 	and	r4, r4, #31
    9378:	e3a01001 	mov	r1, #1
    937c:	e1801411 	orr	r1, r0, r1, lsl r4
    9380:	e5950038 	ldr	r0, [r5, #56]	; 0x38
    9384:	eb0002c4 	bl	9e9c <put32>
    9388:	eb0002bd 	bl	9e84 <dev_barrier>
    938c:	e59f4018 	ldr	r4, [pc, #24]	; 93ac <gpio_int_rising_edge+0x80>
    9390:	e594003c 	ldr	r0, [r4, #60]	; 0x3c
    9394:	eb0002cc 	bl	9ecc <get32>
    9398:	e3801802 	orr	r1, r0, #131072	; 0x20000
    939c:	e594003c 	ldr	r0, [r4, #60]	; 0x3c
    93a0:	eb0002bd 	bl	9e9c <put32>
    93a4:	eb0002b6 	bl	9e84 <dev_barrier>
    93a8:	e8bd8038 	pop	{r3, r4, r5, pc}
    93ac:	0000a018 	andeq	sl, r0, r8, lsl r0

000093b0 <gpio_int_falling_edge>:
    93b0:	e92d4038 	push	{r3, r4, r5, lr}
    93b4:	e1a04000 	mov	r4, r0
    93b8:	e350001f 	cmp	r0, #31
    93bc:	88bd8038 	pophi	{r3, r4, r5, pc}
    93c0:	eb0002af 	bl	9e84 <dev_barrier>
    93c4:	e354001f 	cmp	r4, #31
    93c8:	8a000007 	bhi	93ec <gpio_int_falling_edge+0x3c>
    93cc:	e59f505c 	ldr	r5, [pc, #92]	; 9430 <gpio_int_falling_edge+0x80>
    93d0:	e5950040 	ldr	r0, [r5, #64]	; 0x40
    93d4:	eb0002bc 	bl	9ecc <get32>
    93d8:	e3a01001 	mov	r1, #1
    93dc:	e1801411 	orr	r1, r0, r1, lsl r4
    93e0:	e5950040 	ldr	r0, [r5, #64]	; 0x40
    93e4:	eb0002ac 	bl	9e9c <put32>
    93e8:	ea000007 	b	940c <gpio_int_falling_edge+0x5c>
    93ec:	e59f503c 	ldr	r5, [pc, #60]	; 9430 <gpio_int_falling_edge+0x80>
    93f0:	e5950044 	ldr	r0, [r5, #68]	; 0x44
    93f4:	eb0002b4 	bl	9ecc <get32>
    93f8:	e204401f 	and	r4, r4, #31
    93fc:	e3a01001 	mov	r1, #1
    9400:	e1801411 	orr	r1, r0, r1, lsl r4
    9404:	e5950044 	ldr	r0, [r5, #68]	; 0x44
    9408:	eb0002a3 	bl	9e9c <put32>
    940c:	eb00029c 	bl	9e84 <dev_barrier>
    9410:	e59f4018 	ldr	r4, [pc, #24]	; 9430 <gpio_int_falling_edge+0x80>
    9414:	e594003c 	ldr	r0, [r4, #60]	; 0x3c
    9418:	eb0002ab 	bl	9ecc <get32>
    941c:	e3801601 	orr	r1, r0, #1048576	; 0x100000
    9420:	e594003c 	ldr	r0, [r4, #60]	; 0x3c
    9424:	eb00029c 	bl	9e9c <put32>
    9428:	eb000295 	bl	9e84 <dev_barrier>
    942c:	e8bd8038 	pop	{r3, r4, r5, pc}
    9430:	0000a018 	andeq	sl, r0, r8, lsl r0

00009434 <gpio_event_detected>:
    9434:	e92d4010 	push	{r4, lr}
    9438:	e1a04000 	mov	r4, r0
    943c:	e350001f 	cmp	r0, #31
    9440:	8a000019 	bhi	94ac <gpio_event_detected+0x78>
    9444:	eb00028e 	bl	9e84 <dev_barrier>
    9448:	e354001f 	cmp	r4, #31
    944c:	8a000008 	bhi	9474 <gpio_event_detected+0x40>
    9450:	e59f305c 	ldr	r3, [pc, #92]	; 94b4 <gpio_event_detected+0x80>
    9454:	e5930048 	ldr	r0, [r3, #72]	; 0x48
    9458:	eb00029b 	bl	9ecc <get32>
    945c:	e3a03001 	mov	r3, #1
    9460:	e0103413 	ands	r3, r0, r3, lsl r4
    9464:	0a00000d 	beq	94a0 <gpio_event_detected+0x6c>
    9468:	eb000285 	bl	9e84 <dev_barrier>
    946c:	e3a00001 	mov	r0, #1
    9470:	e8bd8010 	pop	{r4, pc}
    9474:	e59f3038 	ldr	r3, [pc, #56]	; 94b4 <gpio_event_detected+0x80>
    9478:	e593004c 	ldr	r0, [r3, #76]	; 0x4c
    947c:	eb000292 	bl	9ecc <get32>
    9480:	e3a03001 	mov	r3, #1
    9484:	e0004413 	and	r4, r0, r3, lsl r4
    9488:	eb00027d 	bl	9e84 <dev_barrier>
    948c:	e3540000 	cmp	r4, #0
    9490:	0a000002 	beq	94a0 <gpio_event_detected+0x6c>
    9494:	eb00027a 	bl	9e84 <dev_barrier>
    9498:	e3a00001 	mov	r0, #1
    949c:	e8bd8010 	pop	{r4, pc}
    94a0:	eb000277 	bl	9e84 <dev_barrier>
    94a4:	e3a00000 	mov	r0, #0
    94a8:	e8bd8010 	pop	{r4, pc}
    94ac:	e3e00000 	mvn	r0, #0
    94b0:	e8bd8010 	pop	{r4, pc}
    94b4:	0000a018 	andeq	sl, r0, r8, lsl r0

000094b8 <gpio_event_clear>:
    94b8:	e92d4010 	push	{r4, lr}
    94bc:	e1a04000 	mov	r4, r0
    94c0:	e350001f 	cmp	r0, #31
    94c4:	88bd8010 	pophi	{r4, pc}
    94c8:	eb00026d 	bl	9e84 <dev_barrier>
    94cc:	e354001f 	cmp	r4, #31
    94d0:	8a000005 	bhi	94ec <gpio_event_clear+0x34>
    94d4:	e59f3030 	ldr	r3, [pc, #48]	; 950c <gpio_event_clear+0x54>
    94d8:	e5930048 	ldr	r0, [r3, #72]	; 0x48
    94dc:	e3a01001 	mov	r1, #1
    94e0:	e1a01411 	lsl	r1, r1, r4
    94e4:	eb00026c 	bl	9e9c <put32>
    94e8:	ea000005 	b	9504 <gpio_event_clear+0x4c>
    94ec:	e204401f 	and	r4, r4, #31
    94f0:	e59f3014 	ldr	r3, [pc, #20]	; 950c <gpio_event_clear+0x54>
    94f4:	e593004c 	ldr	r0, [r3, #76]	; 0x4c
    94f8:	e3a01001 	mov	r1, #1
    94fc:	e1a01411 	lsl	r1, r1, r4
    9500:	eb000265 	bl	9e9c <put32>
    9504:	eb00025e 	bl	9e84 <dev_barrier>
    9508:	e8bd8010 	pop	{r4, pc}
    950c:	0000a018 	andeq	sl, r0, r8, lsl r0

00009510 <sw_uart_putc>:
    9510:	e92d41f0 	push	{r4, r5, r6, r7, r8, lr}
    9514:	e1a07001 	mov	r7, r1
    9518:	e5d06000 	ldrb	r6, [r0]
    951c:	e5905008 	ldr	r5, [r0, #8]
    9520:	ee1f4f3c 	mrc	15, 0, r4, cr15, cr12, {1}
    9524:	e1a00006 	mov	r0, r6
    9528:	e3a01000 	mov	r1, #0
    952c:	ebffff1f 	bl	91b0 <gpio_write>
    9530:	ee1f3f3c 	mrc	15, 0, r3, cr15, cr12, {1}
    9534:	e0643003 	rsb	r3, r4, r3
    9538:	e1550003 	cmp	r5, r3
    953c:	8afffffb 	bhi	9530 <sw_uart_putc+0x20>
    9540:	e1a08085 	lsl	r8, r5, #1
    9544:	e1a00006 	mov	r0, r6
    9548:	e2071001 	and	r1, r7, #1
    954c:	ebffff17 	bl	91b0 <gpio_write>
    9550:	ee1f3f3c 	mrc	15, 0, r3, cr15, cr12, {1}
    9554:	e0643003 	rsb	r3, r4, r3
    9558:	e1580003 	cmp	r8, r3
    955c:	8afffffb 	bhi	9550 <sw_uart_putc+0x40>
    9560:	e0888005 	add	r8, r8, r5
    9564:	e1a00006 	mov	r0, r6
    9568:	e2071002 	and	r1, r7, #2
    956c:	ebffff0f 	bl	91b0 <gpio_write>
    9570:	ee1f3f3c 	mrc	15, 0, r3, cr15, cr12, {1}
    9574:	e0643003 	rsb	r3, r4, r3
    9578:	e1580003 	cmp	r8, r3
    957c:	8afffffb 	bhi	9570 <sw_uart_putc+0x60>
    9580:	e0888005 	add	r8, r8, r5
    9584:	e1a00006 	mov	r0, r6
    9588:	e2071004 	and	r1, r7, #4
    958c:	ebffff07 	bl	91b0 <gpio_write>
    9590:	ee1f3f3c 	mrc	15, 0, r3, cr15, cr12, {1}
    9594:	e0643003 	rsb	r3, r4, r3
    9598:	e1580003 	cmp	r8, r3
    959c:	8afffffb 	bhi	9590 <sw_uart_putc+0x80>
    95a0:	e0888005 	add	r8, r8, r5
    95a4:	e1a00006 	mov	r0, r6
    95a8:	e2071008 	and	r1, r7, #8
    95ac:	ebfffeff 	bl	91b0 <gpio_write>
    95b0:	ee1f3f3c 	mrc	15, 0, r3, cr15, cr12, {1}
    95b4:	e0643003 	rsb	r3, r4, r3
    95b8:	e1580003 	cmp	r8, r3
    95bc:	8afffffb 	bhi	95b0 <sw_uart_putc+0xa0>
    95c0:	e0888005 	add	r8, r8, r5
    95c4:	e1a00006 	mov	r0, r6
    95c8:	e2071010 	and	r1, r7, #16
    95cc:	ebfffef7 	bl	91b0 <gpio_write>
    95d0:	ee1f3f3c 	mrc	15, 0, r3, cr15, cr12, {1}
    95d4:	e0643003 	rsb	r3, r4, r3
    95d8:	e1580003 	cmp	r8, r3
    95dc:	8afffffb 	bhi	95d0 <sw_uart_putc+0xc0>
    95e0:	e0888005 	add	r8, r8, r5
    95e4:	e1a00006 	mov	r0, r6
    95e8:	e2071020 	and	r1, r7, #32
    95ec:	ebfffeef 	bl	91b0 <gpio_write>
    95f0:	ee1f3f3c 	mrc	15, 0, r3, cr15, cr12, {1}
    95f4:	e0643003 	rsb	r3, r4, r3
    95f8:	e1580003 	cmp	r8, r3
    95fc:	8afffffb 	bhi	95f0 <sw_uart_putc+0xe0>
    9600:	e0888005 	add	r8, r8, r5
    9604:	e1a00006 	mov	r0, r6
    9608:	e2071040 	and	r1, r7, #64	; 0x40
    960c:	ebfffee7 	bl	91b0 <gpio_write>
    9610:	ee1f3f3c 	mrc	15, 0, r3, cr15, cr12, {1}
    9614:	e0643003 	rsb	r3, r4, r3
    9618:	e1580003 	cmp	r8, r3
    961c:	8afffffb 	bhi	9610 <sw_uart_putc+0x100>
    9620:	e0888005 	add	r8, r8, r5
    9624:	e1a00006 	mov	r0, r6
    9628:	e2071080 	and	r1, r7, #128	; 0x80
    962c:	ebfffedf 	bl	91b0 <gpio_write>
    9630:	ee1f3f3c 	mrc	15, 0, r3, cr15, cr12, {1}
    9634:	e0643003 	rsb	r3, r4, r3
    9638:	e1580003 	cmp	r8, r3
    963c:	8afffffb 	bhi	9630 <sw_uart_putc+0x120>
    9640:	e0885005 	add	r5, r8, r5
    9644:	e1a00006 	mov	r0, r6
    9648:	e3a01001 	mov	r1, #1
    964c:	ebfffed7 	bl	91b0 <gpio_write>
    9650:	ee1f3f3c 	mrc	15, 0, r3, cr15, cr12, {1}
    9654:	e0643003 	rsb	r3, r4, r3
    9658:	e1550003 	cmp	r5, r3
    965c:	8afffffb 	bhi	9650 <sw_uart_putc+0x140>
    9660:	e8bd81f0 	pop	{r4, r5, r6, r7, r8, pc}

00009664 <sw_uart_getc_timeout>:
    9664:	e92d43f8 	push	{r3, r4, r5, r6, r7, r8, r9, lr}
    9668:	e1a09000 	mov	r9, r0
    966c:	e5d07001 	ldrb	r7, [r0, #1]
    9670:	e1a05007 	mov	r5, r7
    9674:	e1a06001 	mov	r6, r1
    9678:	ebfffe1a 	bl	8ee8 <timer_get_usec_raw>
    967c:	e1a04000 	mov	r4, r0
    9680:	e1a00005 	mov	r0, r5
    9684:	ebfffeb6 	bl	9164 <gpio_read>
    9688:	e3500000 	cmp	r0, #0
    968c:	0a000005 	beq	96a8 <sw_uart_getc_timeout+0x44>
    9690:	ebfffe14 	bl	8ee8 <timer_get_usec_raw>
    9694:	e0640000 	rsb	r0, r4, r0
    9698:	e1560000 	cmp	r6, r0
    969c:	2afffff7 	bcs	9680 <sw_uart_getc_timeout+0x1c>
    96a0:	e3a03000 	mov	r3, #0
    96a4:	ea000000 	b	96ac <sw_uart_getc_timeout+0x48>
    96a8:	e3a03001 	mov	r3, #1
    96ac:	e3530000 	cmp	r3, #0
    96b0:	0a000059 	beq	981c <sw_uart_getc_timeout+0x1b8>
    96b4:	ee1f8f3c 	mrc	15, 0, r8, cr15, cr12, {1}
    96b8:	e5994008 	ldr	r4, [r9, #8]
    96bc:	e08420a4 	add	r2, r4, r4, lsr #1
    96c0:	ee1f3f3c 	mrc	15, 0, r3, cr15, cr12, {1}
    96c4:	e0683003 	rsb	r3, r8, r3
    96c8:	e1520003 	cmp	r2, r3
    96cc:	8afffffb 	bhi	96c0 <sw_uart_getc_timeout+0x5c>
    96d0:	e0888004 	add	r8, r8, r4
    96d4:	e1a00007 	mov	r0, r7
    96d8:	ebfffea1 	bl	9164 <gpio_read>
    96dc:	e1a09750 	asr	r9, r0, r7
    96e0:	ee1f3f3c 	mrc	15, 0, r3, cr15, cr12, {1}
    96e4:	e0683003 	rsb	r3, r8, r3
    96e8:	e1540003 	cmp	r4, r3
    96ec:	8afffffb 	bhi	96e0 <sw_uart_getc_timeout+0x7c>
    96f0:	e0888004 	add	r8, r8, r4
    96f4:	e1a00007 	mov	r0, r7
    96f8:	ebfffe99 	bl	9164 <gpio_read>
    96fc:	e1a00750 	asr	r0, r0, r7
    9700:	e1899080 	orr	r9, r9, r0, lsl #1
    9704:	ee1f3f3c 	mrc	15, 0, r3, cr15, cr12, {1}
    9708:	e0683003 	rsb	r3, r8, r3
    970c:	e1540003 	cmp	r4, r3
    9710:	8afffffb 	bhi	9704 <sw_uart_getc_timeout+0xa0>
    9714:	e0888004 	add	r8, r8, r4
    9718:	e1a00007 	mov	r0, r7
    971c:	ebfffe90 	bl	9164 <gpio_read>
    9720:	e1a00750 	asr	r0, r0, r7
    9724:	e1899100 	orr	r9, r9, r0, lsl #2
    9728:	ee1f3f3c 	mrc	15, 0, r3, cr15, cr12, {1}
    972c:	e0683003 	rsb	r3, r8, r3
    9730:	e1540003 	cmp	r4, r3
    9734:	8afffffb 	bhi	9728 <sw_uart_getc_timeout+0xc4>
    9738:	e0888004 	add	r8, r8, r4
    973c:	e1a00007 	mov	r0, r7
    9740:	ebfffe87 	bl	9164 <gpio_read>
    9744:	e1a00750 	asr	r0, r0, r7
    9748:	e1899180 	orr	r9, r9, r0, lsl #3
    974c:	ee1f3f3c 	mrc	15, 0, r3, cr15, cr12, {1}
    9750:	e0683003 	rsb	r3, r8, r3
    9754:	e1540003 	cmp	r4, r3
    9758:	8afffffb 	bhi	974c <sw_uart_getc_timeout+0xe8>
    975c:	e0888004 	add	r8, r8, r4
    9760:	e1a00007 	mov	r0, r7
    9764:	ebfffe7e 	bl	9164 <gpio_read>
    9768:	e1a00750 	asr	r0, r0, r7
    976c:	e1899200 	orr	r9, r9, r0, lsl #4
    9770:	ee1f3f3c 	mrc	15, 0, r3, cr15, cr12, {1}
    9774:	e0683003 	rsb	r3, r8, r3
    9778:	e1540003 	cmp	r4, r3
    977c:	8afffffb 	bhi	9770 <sw_uart_getc_timeout+0x10c>
    9780:	e0888004 	add	r8, r8, r4
    9784:	e1a00007 	mov	r0, r7
    9788:	ebfffe75 	bl	9164 <gpio_read>
    978c:	e1a00750 	asr	r0, r0, r7
    9790:	e1899280 	orr	r9, r9, r0, lsl #5
    9794:	ee1f3f3c 	mrc	15, 0, r3, cr15, cr12, {1}
    9798:	e0683003 	rsb	r3, r8, r3
    979c:	e1540003 	cmp	r4, r3
    97a0:	8afffffb 	bhi	9794 <sw_uart_getc_timeout+0x130>
    97a4:	e0888004 	add	r8, r8, r4
    97a8:	e1a00007 	mov	r0, r7
    97ac:	ebfffe6c 	bl	9164 <gpio_read>
    97b0:	e1a00750 	asr	r0, r0, r7
    97b4:	e1899300 	orr	r9, r9, r0, lsl #6
    97b8:	ee1f3f3c 	mrc	15, 0, r3, cr15, cr12, {1}
    97bc:	e0683003 	rsb	r3, r8, r3
    97c0:	e1540003 	cmp	r4, r3
    97c4:	8afffffb 	bhi	97b8 <sw_uart_getc_timeout+0x154>
    97c8:	e1a00007 	mov	r0, r7
    97cc:	ebfffe64 	bl	9164 <gpio_read>
    97d0:	e1a00750 	asr	r0, r0, r7
    97d4:	e1899380 	orr	r9, r9, r0, lsl #7
    97d8:	ebfffdc2 	bl	8ee8 <timer_get_usec_raw>
    97dc:	e1a04000 	mov	r4, r0
    97e0:	e1a00005 	mov	r0, r5
    97e4:	ebfffe5e 	bl	9164 <gpio_read>
    97e8:	e3500000 	cmp	r0, #0
    97ec:	0a000005 	beq	9808 <sw_uart_getc_timeout+0x1a4>
    97f0:	ebfffdbc 	bl	8ee8 <timer_get_usec_raw>
    97f4:	e0640000 	rsb	r0, r4, r0
    97f8:	e1560000 	cmp	r6, r0
    97fc:	2afffff7 	bcs	97e0 <sw_uart_getc_timeout+0x17c>
    9800:	e3a03000 	mov	r3, #0
    9804:	ea000000 	b	980c <sw_uart_getc_timeout+0x1a8>
    9808:	e3a03001 	mov	r3, #1
    980c:	e3530000 	cmp	r3, #0
    9810:	0a000003 	beq	9824 <sw_uart_getc_timeout+0x1c0>
    9814:	e1a00009 	mov	r0, r9
    9818:	e8bd83f8 	pop	{r3, r4, r5, r6, r7, r8, r9, pc}
    981c:	e3e00000 	mvn	r0, #0
    9820:	e8bd83f8 	pop	{r3, r4, r5, r6, r7, r8, r9, pc}
    9824:	e3e00000 	mvn	r0, #0
    9828:	e8bd83f8 	pop	{r3, r4, r5, r6, r7, r8, r9, pc}

0000982c <sw_uart_gets_until>:
    982c:	e92d47f0 	push	{r4, r5, r6, r7, r8, r9, sl, lr}
    9830:	e1a08000 	mov	r8, r0
    9834:	e1a06001 	mov	r6, r1
    9838:	e1a09003 	mov	r9, r3
    983c:	e59da020 	ldr	sl, [sp, #32]
    9840:	e3520000 	cmp	r2, #0
    9844:	1a000006 	bne	9864 <sw_uart_gets_until+0x38>
    9848:	ebfffbef 	bl	880c <rpi_reset_putc>
    984c:	e59f005c 	ldr	r0, [pc, #92]	; 98b0 <sw_uart_gets_until+0x84>
    9850:	e59f105c 	ldr	r1, [pc, #92]	; 98b4 <sw_uart_gets_until+0x88>
    9854:	e59f205c 	ldr	r2, [pc, #92]	; 98b8 <sw_uart_gets_until+0x8c>
    9858:	e3a0306d 	mov	r3, #109	; 0x6d
    985c:	ebfffbcf 	bl	87a0 <printk>
    9860:	ebfffd46 	bl	8d80 <clean_reboot>
    9864:	e3a04000 	mov	r4, #0
    9868:	e5c14000 	strb	r4, [r1]
    986c:	e2427001 	sub	r7, r2, #1
    9870:	ea000007 	b	9894 <sw_uart_gets_until+0x68>
    9874:	e1a00008 	mov	r0, r8
    9878:	e1a0100a 	mov	r1, sl
    987c:	ebffff78 	bl	9664 <sw_uart_getc_timeout>
    9880:	e6ef0070 	uxtb	r0, r0
    9884:	e1500009 	cmp	r0, r9
    9888:	0a000004 	beq	98a0 <sw_uart_gets_until+0x74>
    988c:	e7c60005 	strb	r0, [r6, r5]
    9890:	e2844001 	add	r4, r4, #1
    9894:	e1a05004 	mov	r5, r4
    9898:	e1540007 	cmp	r4, r7
    989c:	3afffff4 	bcc	9874 <sw_uart_gets_until+0x48>
    98a0:	e3a03000 	mov	r3, #0
    98a4:	e7c63005 	strb	r3, [r6, r5]
    98a8:	e1a00004 	mov	r0, r4
    98ac:	e8bd87f0 	pop	{r4, r5, r6, r7, r8, r9, sl, pc}
    98b0:	0000a354 	andeq	sl, r0, r4, asr r3
    98b4:	0000a370 	andeq	sl, r0, r0, ror r3
    98b8:	0000a2dc 	ldrdeq	sl, [r0], -ip

000098bc <sw_uart_gets_timeout>:
    98bc:	e92d41f0 	push	{r4, r5, r6, r7, r8, lr}
    98c0:	e1a07000 	mov	r7, r0
    98c4:	e1a05001 	mov	r5, r1
    98c8:	e1a08003 	mov	r8, r3
    98cc:	e3520000 	cmp	r2, #0
    98d0:	1a000006 	bne	98f0 <sw_uart_gets_timeout+0x34>
    98d4:	ebfffbcc 	bl	880c <rpi_reset_putc>
    98d8:	e59f004c 	ldr	r0, [pc, #76]	; 992c <sw_uart_gets_timeout+0x70>
    98dc:	e59f104c 	ldr	r1, [pc, #76]	; 9930 <sw_uart_gets_timeout+0x74>
    98e0:	e59f204c 	ldr	r2, [pc, #76]	; 9934 <sw_uart_gets_timeout+0x78>
    98e4:	e3a03083 	mov	r3, #131	; 0x83
    98e8:	ebfffbac 	bl	87a0 <printk>
    98ec:	ebfffd23 	bl	8d80 <clean_reboot>
    98f0:	e3a04000 	mov	r4, #0
    98f4:	e5c14000 	strb	r4, [r1]
    98f8:	e2426001 	sub	r6, r2, #1
    98fc:	ea000004 	b	9914 <sw_uart_gets_timeout+0x58>
    9900:	e1a00007 	mov	r0, r7
    9904:	e1a01008 	mov	r1, r8
    9908:	ebffff55 	bl	9664 <sw_uart_getc_timeout>
    990c:	e7c50004 	strb	r0, [r5, r4]
    9910:	e2844001 	add	r4, r4, #1
    9914:	e1540006 	cmp	r4, r6
    9918:	3afffff8 	bcc	9900 <sw_uart_gets_timeout+0x44>
    991c:	e3a03000 	mov	r3, #0
    9920:	e7c53004 	strb	r3, [r5, r4]
    9924:	e1a00004 	mov	r0, r4
    9928:	e8bd81f0 	pop	{r4, r5, r6, r7, r8, pc}
    992c:	0000a354 	andeq	sl, r0, r4, asr r3
    9930:	0000a370 	andeq	sl, r0, r0, ror r3
    9934:	0000a2f0 	strdeq	sl, [r0], -r0

00009938 <sw_uart_init_helper>:
    9938:	e92d41f0 	push	{r4, r5, r6, r7, r8, lr}
    993c:	e1a04000 	mov	r4, r0
    9940:	e1a06001 	mov	r6, r1
    9944:	e1a08002 	mov	r8, r2
    9948:	e1a05003 	mov	r5, r3
    994c:	e59d7018 	ldr	r7, [sp, #24]
    9950:	e1a00001 	mov	r0, r1
    9954:	ebfffd7e 	bl	8f54 <gpio_set_output>
    9958:	e1a00008 	mov	r0, r8
    995c:	ebfffdcd 	bl	9098 <gpio_set_input>
    9960:	e3a03001 	mov	r3, #1
    9964:	ee0f3f1c 	mcr	15, 0, r3, cr15, cr12, {0}
    9968:	e1a00006 	mov	r0, r6
    996c:	e3a01001 	mov	r1, #1
    9970:	ebfffe0e 	bl	91b0 <gpio_write>
    9974:	e0020795 	mul	r2, r5, r7
    9978:	e59f3068 	ldr	r3, [pc, #104]	; 99e8 <sw_uart_init_helper+0xb0>
    997c:	e0653003 	rsb	r3, r5, r3
    9980:	e1530002 	cmp	r3, r2
    9984:	8a000005 	bhi	99a0 <sw_uart_init_helper+0x68>
    9988:	e59f3058 	ldr	r3, [pc, #88]	; 99e8 <sw_uart_init_helper+0xb0>
    998c:	e0853003 	add	r3, r5, r3
    9990:	e1530002 	cmp	r3, r2
    9994:	2a000003 	bcs	99a8 <sw_uart_init_helper+0x70>
    9998:	e3a03000 	mov	r3, #0
    999c:	ea000002 	b	99ac <sw_uart_init_helper+0x74>
    99a0:	e3a03000 	mov	r3, #0
    99a4:	ea000000 	b	99ac <sw_uart_init_helper+0x74>
    99a8:	e3a03001 	mov	r3, #1
    99ac:	e3530000 	cmp	r3, #0
    99b0:	1a000006 	bne	99d0 <sw_uart_init_helper+0x98>
    99b4:	ebfffb94 	bl	880c <rpi_reset_putc>
    99b8:	e59f002c 	ldr	r0, [pc, #44]	; 99ec <sw_uart_init_helper+0xb4>
    99bc:	e59f102c 	ldr	r1, [pc, #44]	; 99f0 <sw_uart_init_helper+0xb8>
    99c0:	e59f202c 	ldr	r2, [pc, #44]	; 99f4 <sw_uart_init_helper+0xbc>
    99c4:	e3a0309d 	mov	r3, #157	; 0x9d
    99c8:	ebfffb74 	bl	87a0 <printk>
    99cc:	ebfffceb 	bl	8d80 <clean_reboot>
    99d0:	e5c46000 	strb	r6, [r4]
    99d4:	e5c48001 	strb	r8, [r4, #1]
    99d8:	e5845004 	str	r5, [r4, #4]
    99dc:	e5847008 	str	r7, [r4, #8]
    99e0:	e1a00004 	mov	r0, r4
    99e4:	e8bd81f0 	pop	{r4, r5, r6, r7, r8, pc}
    99e8:	29b92700 	ldmibcs	r9!, {r8, r9, sl, sp}
    99ec:	0000a384 	andeq	sl, r0, r4, lsl #7
    99f0:	0000a370 	andeq	sl, r0, r0, ror r3
    99f4:	0000a308 	andeq	sl, r0, r8, lsl #6

000099f8 <sw_uart_getc>:
    99f8:	e92d4008 	push	{r3, lr}
    99fc:	e3e01000 	mvn	r1, #0
    9a00:	ebffff17 	bl	9664 <sw_uart_getc_timeout>
    9a04:	e3500000 	cmp	r0, #0
    9a08:	a8bd8008 	popge	{r3, pc}
    9a0c:	ebfffb7e 	bl	880c <rpi_reset_putc>
    9a10:	e59f0010 	ldr	r0, [pc, #16]	; 9a28 <sw_uart_getc+0x30>
    9a14:	e59f1010 	ldr	r1, [pc, #16]	; 9a2c <sw_uart_getc+0x34>
    9a18:	e59f2010 	ldr	r2, [pc, #16]	; 9a30 <sw_uart_getc+0x38>
    9a1c:	e3a030ac 	mov	r3, #172	; 0xac
    9a20:	ebfffb5e 	bl	87a0 <printk>
    9a24:	ebfffcd5 	bl	8d80 <clean_reboot>
    9a28:	0000a3c8 	andeq	sl, r0, r8, asr #7
    9a2c:	0000a370 	andeq	sl, r0, r0, ror r3
    9a30:	0000a31c 	andeq	sl, r0, ip, lsl r3

00009a34 <sw_uart_putk>:
    9a34:	e92d4038 	push	{r3, r4, r5, lr}
    9a38:	e1a05000 	mov	r5, r0
    9a3c:	e1a04001 	mov	r4, r1
    9a40:	ea000002 	b	9a50 <sw_uart_putk+0x1c>
    9a44:	e1a00005 	mov	r0, r5
    9a48:	ebfffeb0 	bl	9510 <sw_uart_putc>
    9a4c:	e2844001 	add	r4, r4, #1
    9a50:	e5d41000 	ldrb	r1, [r4]
    9a54:	e3510000 	cmp	r1, #0
    9a58:	1afffff9 	bne	9a44 <sw_uart_putk+0x10>
    9a5c:	e8bd8038 	pop	{r3, r4, r5, pc}

00009a60 <sw_uart_printk>:
    9a60:	e92d000e 	push	{r1, r2, r3}
    9a64:	e92d4030 	push	{r4, r5, lr}
    9a68:	e24dde1d 	sub	sp, sp, #464	; 0x1d0
    9a6c:	e1a05000 	mov	r5, r0
    9a70:	e28d3e1e 	add	r3, sp, #480	; 0x1e0
    9a74:	e58d3000 	str	r3, [sp]
    9a78:	e28d0004 	add	r0, sp, #4
    9a7c:	e3a01f73 	mov	r1, #460	; 0x1cc
    9a80:	e59d21dc 	ldr	r2, [sp, #476]	; 0x1dc
    9a84:	ebfffc13 	bl	8ad8 <va_printk>
    9a88:	e1a04000 	mov	r4, r0
    9a8c:	e59f3040 	ldr	r3, [pc, #64]	; 9ad4 <sw_uart_printk+0x74>
    9a90:	e1500003 	cmp	r0, r3
    9a94:	9a000006 	bls	9ab4 <sw_uart_printk+0x54>
    9a98:	ebfffb5b 	bl	880c <rpi_reset_putc>
    9a9c:	e59f0034 	ldr	r0, [pc, #52]	; 9ad8 <sw_uart_printk+0x78>
    9aa0:	e59f1034 	ldr	r1, [pc, #52]	; 9adc <sw_uart_printk+0x7c>
    9aa4:	e59f2034 	ldr	r2, [pc, #52]	; 9ae0 <sw_uart_printk+0x80>
    9aa8:	e3a030c0 	mov	r3, #192	; 0xc0
    9aac:	ebfffb3b 	bl	87a0 <printk>
    9ab0:	ebfffcb2 	bl	8d80 <clean_reboot>
    9ab4:	e1a00005 	mov	r0, r5
    9ab8:	e28d1004 	add	r1, sp, #4
    9abc:	ebffffdc 	bl	9a34 <sw_uart_putk>
    9ac0:	e1a00004 	mov	r0, r4
    9ac4:	e28dde1d 	add	sp, sp, #464	; 0x1d0
    9ac8:	e8bd4030 	pop	{r4, r5, lr}
    9acc:	e28dd00c 	add	sp, sp, #12
    9ad0:	e12fff1e 	bx	lr
    9ad4:	000001ca 	andeq	r0, r0, sl, asr #3
    9ad8:	0000a400 	andeq	sl, r0, r0, lsl #8
    9adc:	0000a370 	andeq	sl, r0, r0, ror r3
    9ae0:	0000a32c 	andeq	sl, r0, ip, lsr #6

00009ae4 <sw_uart_gets_until_blk>:
    9ae4:	e52de004 	push	{lr}		; (str lr, [sp, #-4]!)
    9ae8:	e24dd00c 	sub	sp, sp, #12
    9aec:	e3e0c000 	mvn	ip, #0
    9af0:	e58dc000 	str	ip, [sp]
    9af4:	ebffff4c 	bl	982c <sw_uart_gets_until>
    9af8:	e3500000 	cmp	r0, #0
    9afc:	aa000006 	bge	9b1c <sw_uart_gets_until_blk+0x38>
    9b00:	ebfffb41 	bl	880c <rpi_reset_putc>
    9b04:	e59f0018 	ldr	r0, [pc, #24]	; 9b24 <sw_uart_gets_until_blk+0x40>
    9b08:	e59f1018 	ldr	r1, [pc, #24]	; 9b28 <sw_uart_gets_until_blk+0x44>
    9b0c:	e59f2018 	ldr	r2, [pc, #24]	; 9b2c <sw_uart_gets_until_blk+0x48>
    9b10:	e3a030c8 	mov	r3, #200	; 0xc8
    9b14:	ebfffb21 	bl	87a0 <printk>
    9b18:	ebfffc98 	bl	8d80 <clean_reboot>
    9b1c:	e28dd00c 	add	sp, sp, #12
    9b20:	e49df004 	pop	{pc}		; (ldr pc, [sp], #4)
    9b24:	0000a3c8 	andeq	sl, r0, r8, asr #7
    9b28:	0000a370 	andeq	sl, r0, r0, ror r3
    9b2c:	0000a33c 	andeq	sl, r0, ip, lsr r3

00009b30 <uart_init>:
    9b30:	e92d4038 	push	{r3, r4, r5, lr}
    9b34:	eb0000d2 	bl	9e84 <dev_barrier>
    9b38:	e3a0000e 	mov	r0, #14
    9b3c:	e3a01002 	mov	r1, #2
    9b40:	ebfffdb8 	bl	9228 <gpio_set_function>
    9b44:	e3a0000f 	mov	r0, #15
    9b48:	e3a01002 	mov	r1, #2
    9b4c:	ebfffdb5 	bl	9228 <gpio_set_function>
    9b50:	eb0000cb 	bl	9e84 <dev_barrier>
    9b54:	e59f4068 	ldr	r4, [pc, #104]	; 9bc4 <uart_init+0x94>
    9b58:	e5945000 	ldr	r5, [r4]
    9b5c:	e1a00005 	mov	r0, r5
    9b60:	eb0000d9 	bl	9ecc <get32>
    9b64:	e3801001 	orr	r1, r0, #1
    9b68:	e1a00005 	mov	r0, r5
    9b6c:	eb0000ca 	bl	9e9c <put32>
    9b70:	eb0000c3 	bl	9e84 <dev_barrier>
    9b74:	e5940004 	ldr	r0, [r4, #4]
    9b78:	e3a01000 	mov	r1, #0
    9b7c:	eb0000c6 	bl	9e9c <put32>
    9b80:	e5940008 	ldr	r0, [r4, #8]
    9b84:	e3a01000 	mov	r1, #0
    9b88:	eb0000c3 	bl	9e9c <put32>
    9b8c:	e594000c 	ldr	r0, [r4, #12]
    9b90:	e3a01006 	mov	r1, #6
    9b94:	eb0000c0 	bl	9e9c <put32>
    9b98:	e5940010 	ldr	r0, [r4, #16]
    9b9c:	e3a01003 	mov	r1, #3
    9ba0:	eb0000bd 	bl	9e9c <put32>
    9ba4:	e5940014 	ldr	r0, [r4, #20]
    9ba8:	e59f1018 	ldr	r1, [pc, #24]	; 9bc8 <uart_init+0x98>
    9bac:	eb0000ba 	bl	9e9c <put32>
    9bb0:	e5940004 	ldr	r0, [r4, #4]
    9bb4:	e3a01003 	mov	r1, #3
    9bb8:	eb0000b7 	bl	9e9c <put32>
    9bbc:	eb0000b0 	bl	9e84 <dev_barrier>
    9bc0:	e8bd8038 	pop	{r3, r4, r5, pc}
    9bc4:	0000a078 	andeq	sl, r0, r8, ror r0
    9bc8:	0000010e 	andeq	r0, r0, lr, lsl #2

00009bcc <uart_can_getc>:
    9bcc:	e92d4008 	push	{r3, lr}
    9bd0:	e59f300c 	ldr	r3, [pc, #12]	; 9be4 <uart_can_getc+0x18>
    9bd4:	e5930018 	ldr	r0, [r3, #24]
    9bd8:	eb0000bb 	bl	9ecc <get32>
    9bdc:	e2000001 	and	r0, r0, #1
    9be0:	e8bd8008 	pop	{r3, pc}
    9be4:	0000a078 	andeq	sl, r0, r8, ror r0

00009be8 <uart_getc>:
    9be8:	e92d4008 	push	{r3, lr}
    9bec:	ebfffff6 	bl	9bcc <uart_can_getc>
    9bf0:	e3500000 	cmp	r0, #0
    9bf4:	0afffffc 	beq	9bec <uart_getc+0x4>
    9bf8:	e59f300c 	ldr	r3, [pc, #12]	; 9c0c <uart_getc+0x24>
    9bfc:	e593001c 	ldr	r0, [r3, #28]
    9c00:	eb0000b1 	bl	9ecc <get32>
    9c04:	e6ef0070 	uxtb	r0, r0
    9c08:	e8bd8008 	pop	{r3, pc}
    9c0c:	0000a078 	andeq	sl, r0, r8, ror r0

00009c10 <uart_can_putc>:
    9c10:	e92d4008 	push	{r3, lr}
    9c14:	e59f300c 	ldr	r3, [pc, #12]	; 9c28 <uart_can_putc+0x18>
    9c18:	e5930018 	ldr	r0, [r3, #24]
    9c1c:	eb0000aa 	bl	9ecc <get32>
    9c20:	e2000020 	and	r0, r0, #32
    9c24:	e8bd8008 	pop	{r3, pc}
    9c28:	0000a078 	andeq	sl, r0, r8, ror r0

00009c2c <uart_putc>:
    9c2c:	e92d4010 	push	{r4, lr}
    9c30:	e1a04000 	mov	r4, r0
    9c34:	ebfffff5 	bl	9c10 <uart_can_putc>
    9c38:	e3500000 	cmp	r0, #0
    9c3c:	0afffffc 	beq	9c34 <uart_putc+0x8>
    9c40:	e59f300c 	ldr	r3, [pc, #12]	; 9c54 <uart_putc+0x28>
    9c44:	e593001c 	ldr	r0, [r3, #28]
    9c48:	e1a01004 	mov	r1, r4
    9c4c:	eb000092 	bl	9e9c <put32>
    9c50:	e8bd8010 	pop	{r4, pc}
    9c54:	0000a078 	andeq	sl, r0, r8, ror r0

00009c58 <uart_has_data>:
    9c58:	e92d4008 	push	{r3, lr}
    9c5c:	ebffffda 	bl	9bcc <uart_can_getc>
    9c60:	e8bd8008 	pop	{r3, pc}

00009c64 <uart_getc_async>:
    9c64:	e92d4008 	push	{r3, lr}
    9c68:	ebfffffa 	bl	9c58 <uart_has_data>
    9c6c:	e3500000 	cmp	r0, #0
    9c70:	0a000001 	beq	9c7c <uart_getc_async+0x18>
    9c74:	ebffffdb 	bl	9be8 <uart_getc>
    9c78:	e8bd8008 	pop	{r3, pc}
    9c7c:	e3e00000 	mvn	r0, #0
    9c80:	e8bd8008 	pop	{r3, pc}

00009c84 <int_init>:
    9c84:	e92d4008 	push	{r3, lr}
    9c88:	e59f004c 	ldr	r0, [pc, #76]	; 9cdc <int_init+0x58>
    9c8c:	e3e01000 	mvn	r1, #0
    9c90:	eb000083 	bl	9ea4 <PUT32>
    9c94:	e59f0044 	ldr	r0, [pc, #68]	; 9ce0 <int_init+0x5c>
    9c98:	e3e01000 	mvn	r1, #0
    9c9c:	eb000080 	bl	9ea4 <PUT32>
    9ca0:	eb000077 	bl	9e84 <dev_barrier>
    9ca4:	e59f3038 	ldr	r3, [pc, #56]	; 9ce4 <int_init+0x60>
    9ca8:	e59f0038 	ldr	r0, [pc, #56]	; 9ce8 <int_init+0x64>
    9cac:	e0630000 	rsb	r0, r3, r0
    9cb0:	e1a00140 	asr	r0, r0, #2
    9cb4:	e3a03000 	mov	r3, #0
    9cb8:	e59fc024 	ldr	ip, [pc, #36]	; 9ce4 <int_init+0x60>
    9cbc:	ea000003 	b	9cd0 <int_init+0x4c>
    9cc0:	e1a02103 	lsl	r2, r3, #2
    9cc4:	e79c1103 	ldr	r1, [ip, r3, lsl #2]
    9cc8:	e5821000 	str	r1, [r2]
    9ccc:	e2833001 	add	r3, r3, #1
    9cd0:	e1530000 	cmp	r3, r0
    9cd4:	3afffff9 	bcc	9cc0 <int_init+0x3c>
    9cd8:	e8bd8008 	pop	{r3, pc}
    9cdc:	2000b21c 	andcs	fp, r0, ip, lsl r2
    9ce0:	2000b220 	andcs	fp, r0, r0, lsr #4
    9ce4:	00009f08 	andeq	r9, r0, r8, lsl #30
    9ce8:	00009f58 	andeq	r9, r0, r8, asr pc

00009cec <fast_interrupt_vector>:
    9cec:	e52de004 	push	{lr}		; (str lr, [sp, #-4]!)
    9cf0:	e24dd00c 	sub	sp, sp, #12
    9cf4:	e1a04000 	mov	r4, r0
    9cf8:	ebfffac3 	bl	880c <rpi_reset_putc>
    9cfc:	e59f301c 	ldr	r3, [pc, #28]	; 9d20 <fast_interrupt_vector+0x34>
    9d00:	e58d3000 	str	r3, [sp]
    9d04:	e58d4004 	str	r4, [sp, #4]
    9d08:	e59f0014 	ldr	r0, [pc, #20]	; 9d24 <fast_interrupt_vector+0x38>
    9d0c:	e59f1014 	ldr	r1, [pc, #20]	; 9d28 <fast_interrupt_vector+0x3c>
    9d10:	e59f2014 	ldr	r2, [pc, #20]	; 9d2c <fast_interrupt_vector+0x40>
    9d14:	e3a03020 	mov	r3, #32
    9d18:	ebfffaa0 	bl	87a0 <printk>
    9d1c:	ebfffc17 	bl	8d80 <clean_reboot>
    9d20:	0000a510 	andeq	sl, r0, r0, lsl r5
    9d24:	0000a4b4 			; <UNDEFINED> instruction: 0x0000a4b4
    9d28:	0000a4f0 	strdeq	sl, [r0], -r0
    9d2c:	0000a424 	andeq	sl, r0, r4, lsr #8

00009d30 <software_interrupt_vector>:
    9d30:	e52de004 	push	{lr}		; (str lr, [sp, #-4]!)
    9d34:	e24dd00c 	sub	sp, sp, #12
    9d38:	e1a04000 	mov	r4, r0
    9d3c:	ebfffab2 	bl	880c <rpi_reset_putc>
    9d40:	e59f301c 	ldr	r3, [pc, #28]	; 9d64 <software_interrupt_vector+0x34>
    9d44:	e58d3000 	str	r3, [sp]
    9d48:	e58d4004 	str	r4, [sp, #4]
    9d4c:	e59f0014 	ldr	r0, [pc, #20]	; 9d68 <software_interrupt_vector+0x38>
    9d50:	e59f1014 	ldr	r1, [pc, #20]	; 9d6c <software_interrupt_vector+0x3c>
    9d54:	e59f2014 	ldr	r2, [pc, #20]	; 9d70 <software_interrupt_vector+0x40>
    9d58:	e3a03025 	mov	r3, #37	; 0x25
    9d5c:	ebfffa8f 	bl	87a0 <printk>
    9d60:	ebfffc06 	bl	8d80 <clean_reboot>
    9d64:	0000a518 	andeq	sl, r0, r8, lsl r5
    9d68:	0000a4b4 			; <UNDEFINED> instruction: 0x0000a4b4
    9d6c:	0000a4f0 	strdeq	sl, [r0], -r0
    9d70:	0000a43c 	andeq	sl, r0, ip, lsr r4

00009d74 <reset_vector>:
    9d74:	e52de004 	push	{lr}		; (str lr, [sp, #-4]!)
    9d78:	e24dd00c 	sub	sp, sp, #12
    9d7c:	e1a04000 	mov	r4, r0
    9d80:	ebfffaa1 	bl	880c <rpi_reset_putc>
    9d84:	e59f301c 	ldr	r3, [pc, #28]	; 9da8 <reset_vector+0x34>
    9d88:	e58d3000 	str	r3, [sp]
    9d8c:	e58d4004 	str	r4, [sp, #4]
    9d90:	e59f0014 	ldr	r0, [pc, #20]	; 9dac <reset_vector+0x38>
    9d94:	e59f1014 	ldr	r1, [pc, #20]	; 9db0 <reset_vector+0x3c>
    9d98:	e59f2014 	ldr	r2, [pc, #20]	; 9db4 <reset_vector+0x40>
    9d9c:	e3a03028 	mov	r3, #40	; 0x28
    9da0:	ebfffa7e 	bl	87a0 <printk>
    9da4:	ebfffbf5 	bl	8d80 <clean_reboot>
    9da8:	0000a528 	andeq	sl, r0, r8, lsr #10
    9dac:	0000a4b4 			; <UNDEFINED> instruction: 0x0000a4b4
    9db0:	0000a4f0 	strdeq	sl, [r0], -r0
    9db4:	0000a458 	andeq	sl, r0, r8, asr r4

00009db8 <undefined_instruction_vector>:
    9db8:	e52de004 	push	{lr}		; (str lr, [sp, #-4]!)
    9dbc:	e24dd00c 	sub	sp, sp, #12
    9dc0:	e1a04000 	mov	r4, r0
    9dc4:	ebfffa90 	bl	880c <rpi_reset_putc>
    9dc8:	e59f301c 	ldr	r3, [pc, #28]	; 9dec <undefined_instruction_vector+0x34>
    9dcc:	e58d3000 	str	r3, [sp]
    9dd0:	e58d4004 	str	r4, [sp, #4]
    9dd4:	e59f0014 	ldr	r0, [pc, #20]	; 9df0 <undefined_instruction_vector+0x38>
    9dd8:	e59f1014 	ldr	r1, [pc, #20]	; 9df4 <undefined_instruction_vector+0x3c>
    9ddc:	e59f2014 	ldr	r2, [pc, #20]	; 9df8 <undefined_instruction_vector+0x40>
    9de0:	e3a0302b 	mov	r3, #43	; 0x2b
    9de4:	ebfffa6d 	bl	87a0 <printk>
    9de8:	ebfffbe4 	bl	8d80 <clean_reboot>
    9dec:	0000a538 	andeq	sl, r0, r8, lsr r5
    9df0:	0000a4b4 			; <UNDEFINED> instruction: 0x0000a4b4
    9df4:	0000a4f0 	strdeq	sl, [r0], -r0
    9df8:	0000a468 	andeq	sl, r0, r8, ror #8

00009dfc <prefetch_abort_vector>:
    9dfc:	e52de004 	push	{lr}		; (str lr, [sp, #-4]!)
    9e00:	e24dd00c 	sub	sp, sp, #12
    9e04:	e1a04000 	mov	r4, r0
    9e08:	ebfffa7f 	bl	880c <rpi_reset_putc>
    9e0c:	e59f301c 	ldr	r3, [pc, #28]	; 9e30 <prefetch_abort_vector+0x34>
    9e10:	e58d3000 	str	r3, [sp]
    9e14:	e58d4004 	str	r4, [sp, #4]
    9e18:	e59f0014 	ldr	r0, [pc, #20]	; 9e34 <prefetch_abort_vector+0x38>
    9e1c:	e59f1014 	ldr	r1, [pc, #20]	; 9e38 <prefetch_abort_vector+0x3c>
    9e20:	e59f2014 	ldr	r2, [pc, #20]	; 9e3c <prefetch_abort_vector+0x40>
    9e24:	e3a0302e 	mov	r3, #46	; 0x2e
    9e28:	ebfffa5c 	bl	87a0 <printk>
    9e2c:	ebfffbd3 	bl	8d80 <clean_reboot>
    9e30:	0000a550 	andeq	sl, r0, r0, asr r5
    9e34:	0000a4b4 			; <UNDEFINED> instruction: 0x0000a4b4
    9e38:	0000a4f0 	strdeq	sl, [r0], -r0
    9e3c:	0000a488 	andeq	sl, r0, r8, lsl #9

00009e40 <data_abort_vector>:
    9e40:	e52de004 	push	{lr}		; (str lr, [sp, #-4]!)
    9e44:	e24dd00c 	sub	sp, sp, #12
    9e48:	e1a04000 	mov	r4, r0
    9e4c:	ebfffa6e 	bl	880c <rpi_reset_putc>
    9e50:	e59f301c 	ldr	r3, [pc, #28]	; 9e74 <data_abort_vector+0x34>
    9e54:	e58d3000 	str	r3, [sp]
    9e58:	e58d4004 	str	r4, [sp, #4]
    9e5c:	e59f0014 	ldr	r0, [pc, #20]	; 9e78 <data_abort_vector+0x38>
    9e60:	e59f1014 	ldr	r1, [pc, #20]	; 9e7c <data_abort_vector+0x3c>
    9e64:	e59f2014 	ldr	r2, [pc, #20]	; 9e80 <data_abort_vector+0x40>
    9e68:	e3a03031 	mov	r3, #49	; 0x31
    9e6c:	ebfffa4b 	bl	87a0 <printk>
    9e70:	ebfffbc2 	bl	8d80 <clean_reboot>
    9e74:	0000a560 	andeq	sl, r0, r0, ror #10
    9e78:	0000a4b4 			; <UNDEFINED> instruction: 0x0000a4b4
    9e7c:	0000a4f0 	strdeq	sl, [r0], -r0
    9e80:	0000a4a0 	andeq	sl, r0, r0, lsr #9

00009e84 <dev_barrier>:
    9e84:	ea000002 	b	9e94 <dsb>

00009e88 <dmb>:
    9e88:	e3a00000 	mov	r0, #0
    9e8c:	ee070fba 	mcr	15, 0, r0, cr7, cr10, {5}
    9e90:	e12fff1e 	bx	lr

00009e94 <dsb>:
    9e94:	ee070f9a 	mcr	15, 0, r0, cr7, cr10, {4}
    9e98:	e12fff1e 	bx	lr

00009e9c <put32>:
    9e9c:	e5801000 	str	r1, [r0]
    9ea0:	e12fff1e 	bx	lr

00009ea4 <PUT32>:
    9ea4:	e5801000 	str	r1, [r0]
    9ea8:	e12fff1e 	bx	lr

00009eac <put16>:
    9eac:	e1c010b0 	strh	r1, [r0]
    9eb0:	e12fff1e 	bx	lr

00009eb4 <PUT16>:
    9eb4:	e1c010b0 	strh	r1, [r0]
    9eb8:	e12fff1e 	bx	lr

00009ebc <put8>:
    9ebc:	e5c01000 	strb	r1, [r0]
    9ec0:	e12fff1e 	bx	lr

00009ec4 <PUT8>:
    9ec4:	e5c01000 	strb	r1, [r0]
    9ec8:	e12fff1e 	bx	lr

00009ecc <get32>:
    9ecc:	e5900000 	ldr	r0, [r0]
    9ed0:	e12fff1e 	bx	lr

00009ed4 <GET32>:
    9ed4:	e5900000 	ldr	r0, [r0]
    9ed8:	e12fff1e 	bx	lr

00009edc <GETPC>:
    9edc:	e1a0000e 	mov	r0, lr
    9ee0:	e12fff1e 	bx	lr

00009ee4 <dummy>:
    9ee4:	e12fff1e 	bx	lr

00009ee8 <system_enable_interrupts>:
    9ee8:	e10f0000 	mrs	r0, CPSR
    9eec:	e3c00080 	bic	r0, r0, #128	; 0x80
    9ef0:	e121f000 	msr	CPSR_c, r0
    9ef4:	e12fff1e 	bx	lr

00009ef8 <system_disable_interrupts>:
    9ef8:	e10f0000 	mrs	r0, CPSR
    9efc:	e3800080 	orr	r0, r0, #128	; 0x80
    9f00:	e121f000 	msr	CPSR_c, r0
    9f04:	e12fff1e 	bx	lr

00009f08 <_interrupt_table>:
    9f08:	e59ff030 	ldr	pc, [pc, #48]	; 9f40 <_reset_asm>
    9f0c:	e59ff030 	ldr	pc, [pc, #48]	; 9f44 <_undefined_instruction_asm>
    9f10:	e59ff030 	ldr	pc, [pc, #48]	; 9f48 <_software_interrupt_asm>
    9f14:	e59ff030 	ldr	pc, [pc, #48]	; 9f4c <_prefetch_abort_asm>
    9f18:	e59ff030 	ldr	pc, [pc, #48]	; 9f50 <_data_abort_asm>
    9f1c:	e59ff01c 	ldr	pc, [pc, #28]	; 9f40 <_reset_asm>
    9f20:	e59ff02c 	ldr	pc, [pc, #44]	; 9f54 <_interrupt_asm>

00009f24 <fast_interrupt_asm>:
    9f24:	e24ee004 	sub	lr, lr, #4
    9f28:	e52de004 	push	{lr}		; (str lr, [sp, #-4]!)
    9f2c:	e92d1fff 	push	{r0, r1, r2, r3, r4, r5, r6, r7, r8, r9, sl, fp, ip}
    9f30:	e1a0000e 	mov	r0, lr
    9f34:	ebffff6c 	bl	9cec <fast_interrupt_vector>
    9f38:	e8bd1fff 	pop	{r0, r1, r2, r3, r4, r5, r6, r7, r8, r9, sl, fp, ip}
    9f3c:	e8fd8000 	ldm	sp!, {pc}^

00009f40 <_reset_asm>:
    9f40:	00009fa0 	andeq	r9, r0, r0, lsr #31

00009f44 <_undefined_instruction_asm>:
    9f44:	00009fa8 	andeq	r9, r0, r8, lsr #31

00009f48 <_software_interrupt_asm>:
    9f48:	00009f74 	andeq	r9, r0, r4, ror pc

00009f4c <_prefetch_abort_asm>:
    9f4c:	00009fb0 			; <UNDEFINED> instruction: 0x00009fb0

00009f50 <_data_abort_asm>:
    9f50:	00009fb8 			; <UNDEFINED> instruction: 0x00009fb8

00009f54 <_interrupt_asm>:
    9f54:	00009f58 	andeq	r9, r0, r8, asr pc

00009f58 <_interrupt_table_end>:
    9f58:	e3a0d409 	mov	sp, #150994944	; 0x9000000
    9f5c:	e24ee004 	sub	lr, lr, #4
    9f60:	e92d5fff 	push	{r0, r1, r2, r3, r4, r5, r6, r7, r8, r9, sl, fp, ip, lr}
    9f64:	e1a0000e 	mov	r0, lr
    9f68:	ebfff92b 	bl	841c <interrupt_vector>
    9f6c:	e8bd5fff 	pop	{r0, r1, r2, r3, r4, r5, r6, r7, r8, r9, sl, fp, ip, lr}
    9f70:	e1b0f00e 	movs	pc, lr

00009f74 <software_interrupt_asm>:
    9f74:	e52de004 	push	{lr}		; (str lr, [sp, #-4]!)
    9f78:	e92d1ffe 	push	{r1, r2, r3, r4, r5, r6, r7, r8, r9, sl, fp, ip}
    9f7c:	e24ee004 	sub	lr, lr, #4
    9f80:	e1a0200e 	mov	r2, lr
    9f84:	e1a01000 	mov	r1, r0
    9f88:	e1a0000e 	mov	r0, lr
    9f8c:	eb000003 	bl	9fa0 <reset_asm>
    9f90:	e8bd1ffe 	pop	{r1, r2, r3, r4, r5, r6, r7, r8, r9, sl, fp, ip}
    9f94:	e49de004 	pop	{lr}		; (ldr lr, [sp], #4)
    9f98:	e8fd8000 	ldm	sp!, {pc}^
    9f9c:	e1b0f00e 	movs	pc, lr

00009fa0 <reset_asm>:
    9fa0:	e24ee004 	sub	lr, lr, #4
    9fa4:	ebffff72 	bl	9d74 <reset_vector>

00009fa8 <undefined_instruction_asm>:
    9fa8:	e24ee004 	sub	lr, lr, #4
    9fac:	ebffff81 	bl	9db8 <undefined_instruction_vector>

00009fb0 <prefetch_abort_asm>:
    9fb0:	e24ee004 	sub	lr, lr, #4
    9fb4:	ebffff90 	bl	9dfc <prefetch_abort_vector>

00009fb8 <data_abort_asm>:
    9fb8:	e24ee004 	sub	lr, lr, #4
    9fbc:	ebffff9f 	bl	9e40 <data_abort_vector>

00009fc0 <cb_new>:
    9fc0:	e92d4008 	push	{r3, lr}
    9fc4:	e3a00409 	mov	r0, #150994944	; 0x9000000
    9fc8:	e3a01000 	mov	r1, #0
    9fcc:	e3a02004 	mov	r2, #4
    9fd0:	ebfff9ea 	bl	8780 <memset>
    9fd4:	e3a00409 	mov	r0, #150994944	; 0x9000000
    9fd8:	e59f3004 	ldr	r3, [pc, #4]	; 9fe4 <cb_new+0x24>
    9fdc:	e5803000 	str	r3, [r0]
    9fe0:	e8bd8008 	pop	{r3, pc}
    9fe4:	12345678 	eorsne	r5, r4, #120, 12	; 0x7800000

00009fe8 <cb_get_block>:
    9fe8:	e3a03409 	mov	r3, #150994944	; 0x9000000
    9fec:	e5932000 	ldr	r2, [r3]
    9ff0:	e59f3014 	ldr	r3, [pc, #20]	; a00c <cb_get_block+0x24>
    9ff4:	e1520003 	cmp	r2, r3
    9ff8:	0a000001 	beq	a004 <cb_get_block+0x1c>
    9ffc:	e3a00000 	mov	r0, #0
    a000:	e12fff1e 	bx	lr
    a004:	e3a00409 	mov	r0, #150994944	; 0x9000000
    a008:	e12fff1e 	bx	lr
    a00c:	12345678 	eorsne	r5, r4, #120, 12	; 0x7800000

Disassembly of section .data:

0000a010 <rpi_putchar>:
    a010:	000087f8 	strdeq	r8, [r0], -r8	; <UNPREDICTABLE>

0000a014 <putk>:
    a014:	00008834 	andeq	r8, r0, r4, lsr r8

0000a018 <GPFSEL0>:
    a018:	20200000 	eorcs	r0, r0, r0

0000a01c <GPFSEL1>:
    a01c:	20200004 	eorcs	r0, r0, r4

0000a020 <GPFSEL2>:
    a020:	20200008 	eorcs	r0, r0, r8

0000a024 <GPFSEL3>:
    a024:	2020000c 	eorcs	r0, r0, ip

0000a028 <GPFSEL4>:
    a028:	20200010 	eorcs	r0, r0, r0, lsl r0

0000a02c <GPFSEL5>:
    a02c:	20200014 	eorcs	r0, r0, r4, lsl r0

0000a030 <GPSET0>:
    a030:	2020001c 	eorcs	r0, r0, ip, lsl r0

0000a034 <GPSET1>:
    a034:	20200020 	eorcs	r0, r0, r0, lsr #32

0000a038 <GPCLR0>:
    a038:	20200028 	eorcs	r0, r0, r8, lsr #32

0000a03c <GPCLR1>:
    a03c:	2020002c 	eorcs	r0, r0, ip, lsr #32

0000a040 <GPLEV0>:
    a040:	20200034 	eorcs	r0, r0, r4, lsr r0

0000a044 <GPLEV1>:
    a044:	20200038 	eorcs	r0, r0, r8, lsr r0

0000a048 <IRQ_PENDING_2>:
    a048:	2000b208 	andcs	fp, r0, r8, lsl #4

0000a04c <GPREN0>:
    a04c:	2020004c 	eorcs	r0, r0, ip, asr #32

0000a050 <GPREN1>:
    a050:	20200050 	eorcs	r0, r0, r0, asr r0

0000a054 <ENABLE_IRQS_2>:
    a054:	2000b214 	andcs	fp, r0, r4, lsl r2

0000a058 <GPFEN0>:
    a058:	20200058 	eorcs	r0, r0, r8, asr r0

0000a05c <GPFEN1>:
    a05c:	2020005c 	eorcs	r0, r0, ip, asr r0

0000a060 <GPEDS0>:
    a060:	20200040 	eorcs	r0, r0, r0, asr #32

0000a064 <GPEDS1>:
    a064:	20200044 	eorcs	r0, r0, r4, asr #32

0000a068 <IRQ_PENDING_1>:
    a068:	2000b204 	andcs	fp, r0, r4, lsl #4

0000a06c <gpio_clr0>:
    a06c:	20200028 	eorcs	r0, r0, r8, lsr #32

0000a070 <gpio_set0>:
    a070:	2020001c 	eorcs	r0, r0, ip, lsl r0

0000a074 <gpio_fsel0>:
    a074:	20200000 	eorcs	r0, r0, r0

0000a078 <AUX_ENABLES>:
    a078:	20215004 	eorcs	r5, r1, r4

0000a07c <AUX_MU_CNTL_REG>:
    a07c:	20215060 	eorcs	r5, r1, r0, rrx

0000a080 <AUX_MU_IER_REG>:
    a080:	20215044 	eorcs	r5, r1, r4, asr #32

0000a084 <AUX_MU_IIR_REG>:
    a084:	20215048 	eorcs	r5, r1, r8, asr #32

0000a088 <AUX_MU_LCR_REG>:
    a088:	2021504c 	eorcs	r5, r1, ip, asr #32

0000a08c <AUX_MU_BAUD_REG>:
    a08c:	20215068 	eorcs	r5, r1, r8, rrx

0000a090 <AUX_MU_LSR_REG>:
    a090:	20215054 	eorcs	r5, r1, r4, asr r0

0000a094 <AUX_MU_IO_REG>:
    a094:	20215040 	eorcs	r5, r1, r0, asr #32

0000a098 <AUX_MU_STAT_REG>:
    a098:	20215064 	eorcs	r5, r1, r4, rrx

0000a09c <AUX_MU_SCRATCH>:
    a09c:	2021505c 	eorcs	r5, r1, ip, asr r0

0000a0a0 <AUX_MU_MSR_REG>:
    a0a0:	20215058 	eorcs	r5, r1, r8, asr r0

0000a0a4 <AUX_MU_MCR_REG>:
    a0a4:	20215050 	eorcs	r5, r1, r0, asr r0

0000a0a8 <AUX_IRQ>:
    a0a8:	20215000 	eorcs	r5, r1, r0

Disassembly of section .rodata:

0000a0ac <__FUNCTION__.4297>:
    a0ac:	695f7163 	ldmdbvs	pc, {r0, r1, r5, r6, r8, ip, sp, lr}^	; <UNPREDICTABLE>
    a0b0:	0074696e 	rsbseq	r6, r4, lr, ror #18
    a0b4:	494e4150 	stmdbmi	lr, {r4, r6, r8, lr}^
    a0b8:	73253a43 	teqvc	r5, #274432	; 0x43000
    a0bc:	3a73253a 	bcc	1cd35ac <__bss_end__+0x1cc4be4>
    a0c0:	633a6425 	teqvs	sl, #620756992	; 0x25000000
    a0c4:	6d655f71 	stclvs	15, cr5, [r5, #-452]!	; 0xfffffe3c
    a0c8:	28797470 	ldmdacs	r9!, {r4, r5, r6, sl, ip, sp, lr}^
    a0cc:	000a2963 	andeq	r2, sl, r3, ror #18
    a0d0:	6573552f 	ldrbvs	r5, [r3, #-1327]!	; 0x52f
    a0d4:	622f7372 	eorvs	r7, pc, #-939524095	; 0xc8000001
    a0d8:	6e616972 	mcrvs	9, 3, r6, cr1, cr2, {3}
    a0dc:	2f6e756a 	svccs	0x006e756a
    a0e0:	6b736544 	blvs	1ce35f8 <__bss_end__+0x1cd4c30>
    a0e4:	2f706f74 	svccs	0x00706f74
    a0e8:	6f686373 	svcvs	0x00686373
    a0ec:	572f6c6f 	strpl	r6, [pc, -pc, ror #24]!
    a0f0:	65746e69 	ldrbvs	r6, [r4, #-3689]!	; 0xe69
    a0f4:	32393172 	eorscc	r3, r9, #-2147483620	; 0x8000001c
    a0f8:	53432f30 	movtpl	r2, #16176	; 0x3f30
    a0fc:	45303431 	ldrmi	r3, [r0, #-1073]!	; 0x431
    a100:	3173632f 	cmncc	r3, pc, lsr #6
    a104:	2d653034 	stclcs	0, cr3, [r5, #-208]!	; 0xffffff30
    a108:	69773032 	ldmdbvs	r7!, {r1, r4, r5, ip, sp}^
    a10c:	696c2f6e 	stmdbvs	ip!, {r1, r2, r3, r5, r6, r8, r9, sl, fp, sp}^
    a110:	2f697062 	svccs	0x00697062
    a114:	6362696c 	cmnvs	r2, #108, 18	; 0x1b0000
    a118:	7269632f 	rsbvc	r6, r9, #-1140850688	; 0xbc000000
    a11c:	616c7563 	cmnvs	ip, r3, ror #10
    a120:	00682e72 	rsbeq	r2, r8, r2, ror lr
    a124:	494e4150 	stmdbmi	lr, {r4, r6, r8, lr}^
    a128:	73253a43 	teqvc	r5, #274432	; 0x43000
    a12c:	3a73253a 	bcc	1cd361c <__bss_end__+0x1cc4c54>
    a130:	213a6425 	teqcs	sl, r5, lsr #8
    a134:	665f7163 	ldrbvs	r7, [pc], -r3, ror #2
    a138:	286c6c75 	stmdacs	ip!, {r0, r2, r4, r5, r6, sl, fp, sp, lr}^
    a13c:	000a2963 	andeq	r2, sl, r3, ror #18
    a140:	494e4150 	stmdbmi	lr, {r4, r6, r8, lr}^
    a144:	73253a43 	teqvc	r5, #274432	; 0x43000
    a148:	3a73253a 	bcc	1cd3638 <__bss_end__+0x1cc4c70>
    a14c:	633a6425 	teqvs	sl, #620756992	; 0x25000000
    a150:	656e5f71 	strbvs	r5, [lr, #-3953]!	; 0xf71
    a154:	286d656c 	stmdacs	sp!, {r2, r3, r5, r6, r8, sl, sp, lr}^
    a158:	3d202963 	stccc	9, cr2, [r0, #-396]!	; 0xfffffe74
    a15c:	0a30203d 	beq	c12258 <__bss_end__+0xc03890>
    a160:	00000000 	andeq	r0, r0, r0
    a164:	494e4150 	stmdbmi	lr, {r4, r6, r8, lr}^
    a168:	73253a43 	teqvc	r5, #274432	; 0x43000
    a16c:	3a73253a 	bcc	1cd365c <__bss_end__+0x1cc4c94>
    a170:	633a6425 	teqvs	sl, #620756992	; 0x25000000
    a174:	6f705f71 	svcvs	0x00705f71
    a178:	6f6e5f70 	svcvs	0x006e5f70
    a17c:	6f6c626e 	svcvs	0x006c626e
    a180:	63286b63 	teqvs	r8, #101376	; 0x18c00
    a184:	2965262c 	stmdbcs	r5!, {r2, r3, r5, r9, sl, sp}^
    a188:	203d3d20 	eorscs	r3, sp, r0, lsr #26
    a18c:	26262030 			; <UNDEFINED> instruction: 0x26262030
    a190:	3d206520 	cfstr32cc	mvfx6, [r0, #-128]!	; 0xffffff80
    a194:	7830203d 	ldmdavc	r0!, {r0, r2, r3, r4, r5, sp}
    a198:	000a3231 	andeq	r3, sl, r1, lsr r2

0000a19c <__FUNCTION__.4214>:
    a19c:	74696d65 	strbtvc	r6, [r9], #-3429	; 0xd65
    a1a0:	00000000 	andeq	r0, r0, r0

0000a1a4 <__FUNCTION__.4162>:
    a1a4:	5f697072 	svcpl	0x00697072
    a1a8:	5f746573 	svcpl	0x00746573
    a1ac:	7074756f 	rsbsvc	r7, r4, pc, ror #10
    a1b0:	00007475 	andeq	r7, r0, r5, ror r4

0000a1b4 <__FUNCTION__.4236>:
    a1b4:	705f6176 	subsvc	r6, pc, r6, ror r1	; <UNPREDICTABLE>
    a1b8:	746e6972 	strbtvc	r6, [lr], #-2418	; 0x972
    a1bc:	0000006b 	andeq	r0, r0, fp, rrx
    a1c0:	494e4150 	stmdbmi	lr, {r4, r6, r8, lr}^
    a1c4:	73253a43 	teqvc	r5, #274432	; 0x43000
    a1c8:	3a73253a 	bcc	1cd36b8 <__bss_end__+0x1cc4cf0>
    a1cc:	303a6425 	eorscc	r6, sl, r5, lsr #8
    a1d0:	0000000a 	andeq	r0, r0, sl
    a1d4:	6362696c 	cmnvs	r2, #108, 18	; 0x1b0000
    a1d8:	2d61762f 	stclcs	6, cr7, [r1, #-188]!	; 0xffffff44
    a1dc:	6e697270 	mcrvs	2, 3, r7, cr9, cr0, {3}
    a1e0:	632e6b74 	teqvs	lr, #116, 22	; 0x1d000
    a1e4:	00000000 	andeq	r0, r0, r0
    a1e8:	33323130 	teqcc	r2, #48, 2
    a1ec:	37363534 			; <UNDEFINED> instruction: 0x37363534
    a1f0:	00003938 	andeq	r3, r0, r8, lsr r9
    a1f4:	33323130 	teqcc	r2, #48, 2
    a1f8:	37363534 			; <UNDEFINED> instruction: 0x37363534
    a1fc:	62613938 	rsbvs	r3, r1, #56, 18	; 0xe0000
    a200:	66656463 	strbtvs	r6, [r5], -r3, ror #8
    a204:	00000000 	andeq	r0, r0, r0
    a208:	00003130 	andeq	r3, r0, r0, lsr r1
    a20c:	494e4150 	stmdbmi	lr, {r4, r6, r8, lr}^
    a210:	73253a43 	teqvc	r5, #274432	; 0x43000
    a214:	3a73253a 	bcc	1cd3704 <__bss_end__+0x1cc4d3c>
    a218:	703a6425 	eorsvc	r6, sl, r5, lsr #8
    a21c:	5f637475 	svcpl	0x00637475
    a220:	000a7066 	andeq	r7, sl, r6, rrx
    a224:	494e4150 	stmdbmi	lr, {r4, r6, r8, lr}^
    a228:	73253a43 	teqvc	r5, #274432	; 0x43000
    a22c:	3a73253a 	bcc	1cd371c <__bss_end__+0x1cc4d54>
    a230:	773a6425 	ldrvc	r6, [sl, -r5, lsr #8]!
    a234:	68746469 	ldmdavs	r4!, {r0, r3, r5, r6, sl, sp, lr}^
    a238:	33203c20 	teqcc	r0, #32, 24	; 0x2000
    a23c:	00000a32 	andeq	r0, r0, r2, lsr sl
    a240:	494e4150 	stmdbmi	lr, {r4, r6, r8, lr}^
    a244:	73253a43 	teqvc	r5, #274432	; 0x43000
    a248:	3a73253a 	bcc	1cd3738 <__bss_end__+0x1cc4d70>
    a24c:	663a6425 	ldrtvs	r6, [sl], -r5, lsr #8
    a250:	74616f6c 	strbtvc	r6, [r1], #-3948	; 0xf6c
    a254:	746f6e20 	strbtvc	r6, [pc], #-3616	; a25c <__FUNCTION__.4236+0xa8>
    a258:	616e6520 	cmnvs	lr, r0, lsr #10
    a25c:	64656c62 	strbtvs	r6, [r5], #-3170	; 0xc62
    a260:	0a212121 	beq	8526ec <__bss_end__+0x843d24>
    a264:	00000000 	andeq	r0, r0, r0
    a268:	494e4150 	stmdbmi	lr, {r4, r6, r8, lr}^
    a26c:	73253a43 	teqvc	r5, #274432	; 0x43000
    a270:	3a73253a 	bcc	1cd3760 <__bss_end__+0x1cc4d98>
    a274:	703a6425 	eorsvc	r6, sl, r5, lsr #8
    a278:	746e6972 	strbtvc	r6, [lr], #-2418	; 0x972
    a27c:	6e203a6b 	vnmulvs.f32	s6, s0, s23
    a280:	6820746f 	stmdavs	r0!, {r0, r1, r2, r3, r5, r6, sl, ip, sp, lr}
    a284:	6c646e61 	stclvs	14, cr6, [r4], #-388	; 0xfffffe7c
    a288:	20676e69 	rsbcs	r6, r7, r9, ror #28
    a28c:	63657073 	cmnvs	r5, #115	; 0x73
    a290:	65696669 	strbvs	r6, [r9, #-1641]!	; 0x669
    a294:	25272072 	strcs	r2, [r7, #-114]!	; 0x72
    a298:	0a0a2763 	beq	29402c <__bss_end__+0x285664>
    a29c:	00000000 	andeq	r0, r0, r0
    a2a0:	454e4f44 	strbmi	r4, [lr, #-3908]	; 0xf44
    a2a4:	0a212121 	beq	852730 <__bss_end__+0x843d68>
    a2a8:	00000000 	andeq	r0, r0, r0
    a2ac:	756f6261 	strbvc	r6, [pc, #-609]!	; a053 <GPREN1+0x3>
    a2b0:	6f742074 	svcvs	0x00742074
    a2b4:	69727020 	ldmdbvs	r2!, {r5, ip, sp, lr}^
    a2b8:	6f20746e 	svcvs	0x0020746e
    a2bc:	6572206e 	ldrbvs	r2, [r2, #-110]!	; 0x6e
    a2c0:	616c7567 	cmnvs	ip, r7, ror #10
    a2c4:	72702072 	rsbsvc	r2, r0, #114	; 0x72
    a2c8:	66746e69 	ldrbtvs	r6, [r4], -r9, ror #28
    a2cc:	0000000a 	andeq	r0, r0, sl
    a2d0:	63637573 	cmnvs	r3, #482344960	; 0x1cc00000
    a2d4:	21737365 	cmncs	r3, r5, ror #6
    a2d8:	0000000a 	andeq	r0, r0, sl

0000a2dc <__FUNCTION__.4263>:
    a2dc:	755f7773 	ldrbvc	r7, [pc, #-1907]	; 9b71 <uart_init+0x41>
    a2e0:	5f747261 	svcpl	0x00747261
    a2e4:	73746567 	cmnvc	r4, #432013312	; 0x19c00000
    a2e8:	746e755f 	strbtvc	r7, [lr], #-1375	; 0x55f
    a2ec:	00006c69 	andeq	r6, r0, r9, ror #24

0000a2f0 <__FUNCTION__.4275>:
    a2f0:	755f7773 	ldrbvc	r7, [pc, #-1907]	; 9b85 <uart_init+0x55>
    a2f4:	5f747261 	svcpl	0x00747261
    a2f8:	73746567 	cmnvc	r4, #432013312	; 0x19c00000
    a2fc:	6d69745f 	cfstrdvs	mvd7, [r9, #-380]!	; 0xfffffe84
    a300:	74756f65 	ldrbtvc	r6, [r5], #-3941	; 0xf65
    a304:	00000000 	andeq	r0, r0, r0

0000a308 <__FUNCTION__.4289>:
    a308:	755f7773 	ldrbvc	r7, [pc, #-1907]	; 9b9d <uart_init+0x6d>
    a30c:	5f747261 	svcpl	0x00747261
    a310:	74696e69 	strbtvc	r6, [r9], #-3689	; 0xe69
    a314:	6c65685f 	stclvs	8, cr6, [r5], #-380	; 0xfffffe84
    a318:	00726570 	rsbseq	r6, r2, r0, ror r5

0000a31c <__FUNCTION__.4295>:
    a31c:	755f7773 	ldrbvc	r7, [pc, #-1907]	; 9bb1 <uart_init+0x81>
    a320:	5f747261 	svcpl	0x00747261
    a324:	63746567 	cmnvs	r4, #432013312	; 0x19c00000
    a328:	00000000 	andeq	r0, r0, r0

0000a32c <__FUNCTION__.4317>:
    a32c:	755f7773 	ldrbvc	r7, [pc, #-1907]	; 9bc1 <uart_init+0x91>
    a330:	5f747261 	svcpl	0x00747261
    a334:	6e697270 	mcrvs	2, 3, r7, cr9, cr0, {3}
    a338:	00006b74 	andeq	r6, r0, r4, ror fp

0000a33c <__FUNCTION__.4325>:
    a33c:	755f7773 	ldrbvc	r7, [pc, #-1907]	; 9bd1 <uart_can_getc+0x5>
    a340:	5f747261 	svcpl	0x00747261
    a344:	73746567 	cmnvc	r4, #432013312	; 0x19c00000
    a348:	746e755f 	strbtvc	r7, [lr], #-1375	; 0x55f
    a34c:	625f6c69 	subsvs	r6, pc, #26880	; 0x6900
    a350:	00006b6c 	andeq	r6, r0, ip, ror #22
    a354:	494e4150 	stmdbmi	lr, {r4, r6, r8, lr}^
    a358:	73253a43 	teqvc	r5, #274432	; 0x43000
    a35c:	3a73253a 	bcc	1cd384c <__bss_end__+0x1cc4e84>
    a360:	6e3a6425 	cdpvs	4, 3, cr6, cr10, cr5, {1}
    a364:	65747962 	ldrbvs	r7, [r4, #-2402]!	; 0x962
    a368:	0a303e73 	beq	c19d3c <__bss_end__+0xc0b374>
    a36c:	00000000 	andeq	r0, r0, r0
    a370:	732d796d 	teqvc	sp, #1785856	; 0x1b4000
    a374:	732f6372 	teqvc	pc, #-939524095	; 0xc8000001
    a378:	61752d77 	cmnvs	r5, r7, ror sp
    a37c:	632e7472 	teqvs	lr, #1912602624	; 0x72000000
    a380:	00000000 	andeq	r0, r0, r0
    a384:	494e4150 	stmdbmi	lr, {r4, r6, r8, lr}^
    a388:	73253a43 	teqvc	r5, #274432	; 0x43000
    a38c:	3a73253a 	bcc	1cd387c <__bss_end__+0x1cc4eb4>
    a390:	283a6425 	ldmdacs	sl!, {r0, r2, r5, sl, sp, lr}
    a394:	207a686d 	rsbscs	r6, sl, sp, ror #16
    a398:	6162202d 	cmnvs	r2, sp, lsr #32
    a39c:	20296475 	eorcs	r6, r9, r5, ror r4
    a3a0:	64203d3c 	strtvs	r3, [r0], #-3388	; 0xd3c
    a3a4:	76697265 	strbtvc	r7, [r9], -r5, ror #4
    a3a8:	26206465 	strtcs	r6, [r0], -r5, ror #8
    a3ac:	65642026 	strbvs	r2, [r4, #-38]!	; 0x26
    a3b0:	65766972 	ldrbvs	r6, [r6, #-2418]!	; 0x972
    a3b4:	3d3c2064 	ldccc	0, cr2, [ip, #-400]!	; 0xfffffe70
    a3b8:	686d2820 	stmdavs	sp!, {r5, fp, sp}^
    a3bc:	202b207a 	eorcs	r2, fp, sl, ror r0
    a3c0:	64756162 	ldrbtvs	r6, [r5], #-354	; 0x162
    a3c4:	00000a29 	andeq	r0, r0, r9, lsr #20
    a3c8:	494e4150 	stmdbmi	lr, {r4, r6, r8, lr}^
    a3cc:	73253a43 	teqvc	r5, #274432	; 0x43000
    a3d0:	3a73253a 	bcc	1cd38c0 <__bss_end__+0x1cc4ef8>
    a3d4:	693a6425 	ldmdbvs	sl!, {r0, r2, r5, sl, sp, lr}
    a3d8:	736f706d 	cmnvc	pc, #109	; 0x6d
    a3dc:	6c626973 	stclvs	9, cr6, [r2], #-460	; 0xfffffe34
    a3e0:	68203a65 	stmdavs	r0!, {r0, r2, r5, r6, r9, fp, ip, sp}
    a3e4:	20657661 	rsbcs	r7, r5, r1, ror #12
    a3e8:	69206e61 	stmdbvs	r0!, {r0, r5, r6, r9, sl, fp, sp, lr}
    a3ec:	6e69666e 	cdpvs	6, 6, cr6, cr9, cr14, {3}
    a3f0:	20657469 	rsbcs	r7, r5, r9, ror #8
    a3f4:	656d6974 	strbvs	r6, [sp, #-2420]!	; 0x974
    a3f8:	2174756f 	cmncs	r4, pc, ror #10
    a3fc:	00000a0a 	andeq	r0, r0, sl, lsl #20
    a400:	494e4150 	stmdbmi	lr, {r4, r6, r8, lr}^
    a404:	73253a43 	teqvc	r5, #274432	; 0x43000
    a408:	3a73253a 	bcc	1cd38f8 <__bss_end__+0x1cc4f30>
    a40c:	733a6425 	teqvc	sl, #620756992	; 0x25000000
    a410:	203c207a 	eorscs	r2, ip, sl, ror r0
    a414:	657a6973 	ldrbvs	r6, [sl, #-2419]!	; 0x973
    a418:	6220666f 	eorvs	r6, r0, #116391936	; 0x6f00000
    a41c:	312d6675 	teqcc	sp, r5, ror r6
    a420:	0000000a 	andeq	r0, r0, sl

0000a424 <__FUNCTION__.4194>:
    a424:	74736166 	ldrbtvc	r6, [r3], #-358	; 0x166
    a428:	746e695f 	strbtvc	r6, [lr], #-2399	; 0x95f
    a42c:	75727265 	ldrbvc	r7, [r2, #-613]!	; 0x265
    a430:	765f7470 			; <UNDEFINED> instruction: 0x765f7470
    a434:	6f746365 	svcvs	0x00746365
    a438:	00000072 	andeq	r0, r0, r2, ror r0

0000a43c <__FUNCTION__.4198>:
    a43c:	74666f73 	strbtvc	r6, [r6], #-3955	; 0xf73
    a440:	65726177 	ldrbvs	r6, [r2, #-375]!	; 0x177
    a444:	746e695f 	strbtvc	r6, [lr], #-2399	; 0x95f
    a448:	75727265 	ldrbvc	r7, [r2, #-613]!	; 0x265
    a44c:	765f7470 			; <UNDEFINED> instruction: 0x765f7470
    a450:	6f746365 	svcvs	0x00746365
    a454:	00000072 	andeq	r0, r0, r2, ror r0

0000a458 <__FUNCTION__.4202>:
    a458:	65736572 	ldrbvs	r6, [r3, #-1394]!	; 0x572
    a45c:	65765f74 	ldrbvs	r5, [r6, #-3956]!	; 0xf74
    a460:	726f7463 	rsbvc	r7, pc, #1660944384	; 0x63000000
    a464:	00000000 	andeq	r0, r0, r0

0000a468 <__FUNCTION__.4206>:
    a468:	65646e75 	strbvs	r6, [r4, #-3701]!	; 0xe75
    a46c:	656e6966 	strbvs	r6, [lr, #-2406]!	; 0x966
    a470:	6e695f64 	cdpvs	15, 6, cr5, cr9, cr4, {3}
    a474:	75727473 	ldrbvc	r7, [r2, #-1139]!	; 0x473
    a478:	6f697463 	svcvs	0x00697463
    a47c:	65765f6e 	ldrbvs	r5, [r6, #-3950]!	; 0xf6e
    a480:	726f7463 	rsbvc	r7, pc, #1660944384	; 0x63000000
    a484:	00000000 	andeq	r0, r0, r0

0000a488 <__FUNCTION__.4210>:
    a488:	66657270 			; <UNDEFINED> instruction: 0x66657270
    a48c:	68637465 	stmdavs	r3!, {r0, r2, r5, r6, sl, ip, sp, lr}^
    a490:	6f62615f 	svcvs	0x0062615f
    a494:	765f7472 			; <UNDEFINED> instruction: 0x765f7472
    a498:	6f746365 	svcvs	0x00746365
    a49c:	00000072 	andeq	r0, r0, r2, ror r0

0000a4a0 <__FUNCTION__.4214>:
    a4a0:	61746164 	cmnvs	r4, r4, ror #2
    a4a4:	6f62615f 	svcvs	0x0062615f
    a4a8:	765f7472 			; <UNDEFINED> instruction: 0x765f7472
    a4ac:	6f746365 	svcvs	0x00746365
    a4b0:	00000072 	andeq	r0, r0, r2, ror r0
    a4b4:	494e4150 	stmdbmi	lr, {r4, r6, r8, lr}^
    a4b8:	73253a43 	teqvc	r5, #274432	; 0x43000
    a4bc:	3a73253a 	bcc	1cd39ac <__bss_end__+0x1cc4fe4>
    a4c0:	453a6425 	ldrmi	r6, [sl, #-1061]!	; 0x425
    a4c4:	524f5252 	subpl	r5, pc, #536870917	; 0x20000005
    a4c8:	6e75203a 	mrcvs	0, 3, r2, cr5, cr10, {1}
    a4cc:	646e6168 	strbtvs	r6, [lr], #-360	; 0x168
    a4d0:	2064656c 	rsbcs	r6, r4, ip, ror #10
    a4d4:	65637865 	strbvs	r7, [r3, #-2149]!	; 0x865
    a4d8:	6f697470 	svcvs	0x00697470
    a4dc:	253c206e 	ldrcs	r2, [ip, #-110]!	; 0x6e
    a4e0:	61203e73 	teqvs	r0, r3, ror lr
    a4e4:	43502074 	cmpmi	r0, #116	; 0x74
    a4e8:	0a78253d 	beq	1e139e4 <__bss_end__+0x1e0501c>
    a4ec:	0000000a 	andeq	r0, r0, sl
    a4f0:	34317363 	ldrtcc	r7, [r1], #-867	; 0x363
    a4f4:	692d6530 	pushvs	{r4, r5, r8, sl, sp, lr}
    a4f8:	7265746e 	rsbvc	r7, r5, #1845493760	; 0x6e000000
    a4fc:	74707572 	ldrbtvc	r7, [r0], #-1394	; 0x572
    a500:	746e692f 	strbtvc	r6, [lr], #-2351	; 0x92f
    a504:	75727265 	ldrbvc	r7, [r2, #-613]!	; 0x265
    a508:	2d737470 	cfldrdcs	mvd7, [r3, #-448]!	; 0xfffffe40
    a50c:	00632e63 	rsbeq	r2, r3, r3, ror #28
    a510:	74736166 	ldrbtvc	r6, [r3], #-358	; 0x166
    a514:	00000000 	andeq	r0, r0, r0
    a518:	74666f73 	strbtvc	r6, [r6], #-3955	; 0xf73
    a51c:	746e6920 	strbtvc	r6, [lr], #-2336	; 0x920
    a520:	75727265 	ldrbvc	r7, [r2, #-613]!	; 0x265
    a524:	00007470 	andeq	r7, r0, r0, ror r4
    a528:	65736572 	ldrbvs	r6, [r3, #-1394]!	; 0x572
    a52c:	65762074 	ldrbvs	r2, [r6, #-116]!	; 0x74
    a530:	726f7463 	rsbvc	r7, pc, #1660944384	; 0x63000000
    a534:	00000000 	andeq	r0, r0, r0
    a538:	65646e75 	strbvs	r6, [r4, #-3701]!	; 0xe75
    a53c:	656e6966 	strbvs	r6, [lr, #-2406]!	; 0x966
    a540:	6e692064 	cdpvs	0, 6, cr2, cr9, cr4, {3}
    a544:	75727473 	ldrbvc	r7, [r2, #-1139]!	; 0x473
    a548:	6f697463 	svcvs	0x00697463
    a54c:	0000006e 	andeq	r0, r0, lr, rrx
    a550:	66657270 			; <UNDEFINED> instruction: 0x66657270
    a554:	68637465 	stmdavs	r3!, {r0, r2, r5, r6, sl, ip, sp, lr}^
    a558:	6f626120 	svcvs	0x00626120
    a55c:	00007472 	andeq	r7, r0, r2, ror r4
    a560:	61746164 	cmnvs	r4, r4, ror #2
    a564:	6f626120 	svcvs	0x00626120
    a568:	00007472 	andeq	r7, r0, r2, ror r4

Disassembly of section .bss:

0000a56c <__bss_start__>:
	...

0000c580 <putQ>:
	...

0000e594 <in_data>:
    e594:	00000000 	andeq	r0, r0, r0

0000e598 <sw_uart>:
	...

0000e5a4 <debug_flag>:
    e5a4:	00000000 	andeq	r0, r0, r0

0000e5a8 <timeout>:
    e5a8:	00000000 	andeq	r0, r0, r0

0000e5ac <ninterrupt>:
    e5ac:	00000000 	andeq	r0, r0, r0

0000e5b0 <num_tx>:
    e5b0:	00000000 	andeq	r0, r0, r0

0000e5b4 <tx_count>:
    e5b4:	00000000 	andeq	r0, r0, r0

0000e5b8 <buf.4162>:
	...

0000e9b8 <console_uart>:
	...

0000e9c4 <rpi_arm_timer_t>:
    e9c4:	00000000 	andeq	r0, r0, r0

Disassembly of section .ARM.attributes:

00000000 <.ARM.attributes>:
   0:	00002a41 	andeq	r2, r0, r1, asr #20
   4:	61656100 	cmnvs	r5, r0, lsl #2
   8:	01006962 	tsteq	r0, r2, ror #18
   c:	00000020 	andeq	r0, r0, r0, lsr #32
  10:	4b5a3605 	blmi	168d82c <__bss_end__+0x167ee64>
  14:	08070600 	stmdaeq	r7, {r9, sl}
  18:	12010901 	andne	r0, r1, #16384	; 0x4000
  1c:	15011404 	strne	r1, [r1, #-1028]	; 0x404
  20:	18031701 	stmdane	r3, {r0, r8, r9, sl, ip}
  24:	22011a01 	andcs	r1, r1, #4096	; 0x1000
  28:	Address 0x0000000000000028 is out of bounds.


Disassembly of section .comment:

00000000 <.comment>:
   0:	3a434347 	bcc	10d0d24 <__bss_end__+0x10c235c>
   4:	4e472820 	cdpmi	8, 4, cr2, cr7, cr0, {1}
   8:	34202955 	strtcc	r2, [r0], #-2389	; 0x955
   c:	332e382e 	teqcc	lr, #3014656	; 0x2e0000
	...

Disassembly of section .debug_info:

00000000 <.debug_info>:
       0:	000010a8 	andeq	r1, r0, r8, lsr #1
       4:	00000004 	andeq	r0, r0, r4
       8:	01040000 	mrseq	r0, (UNDEF: 4)
       c:	000003b1 			; <UNDEFINED> instruction: 0x000003b1
      10:	00054f01 	andeq	r4, r5, r1, lsl #30
      14:	0001c700 	andeq	ip, r1, r0, lsl #14
      18:	00801000 	addeq	r1, r0, r0
      1c:	00077000 	andeq	r7, r7, r0
      20:	00000000 	andeq	r0, r0, r0
      24:	05040200 	streq	r0, [r4, #-512]	; 0x200
      28:	00746e69 	rsbseq	r6, r4, r9, ror #28
      2c:	00000e03 	andeq	r0, r0, r3, lsl #28
      30:	37d40300 	ldrbcc	r0, [r4, r0, lsl #6]
      34:	04000000 	streq	r0, [r0], #-0
      38:	00640704 	rsbeq	r0, r4, r4, lsl #14
      3c:	01040000 	mrseq	r0, (UNDEF: 4)
      40:	00036506 	andeq	r6, r3, r6, lsl #10
      44:	05020400 	streq	r0, [r2, #-1024]	; 0x400
      48:	00000379 	andeq	r0, r0, r9, ror r3
      4c:	a3050404 	movwge	r0, #21508	; 0x5404
      50:	04000000 	streq	r0, [r0], #-0
      54:	009e0508 	addseq	r0, lr, r8, lsl #10
      58:	b3030000 	movwlt	r0, #12288	; 0x3000
      5c:	04000004 	streq	r0, [r0], #-4
      60:	0000652e 	andeq	r6, r0, lr, lsr #10
      64:	08010400 	stmdaeq	r1, {sl}
      68:	00000363 	andeq	r0, r0, r3, ror #6
      6c:	2e070204 	cdpcs	2, 0, cr0, cr7, cr4, {0}
      70:	03000002 	movweq	r0, #2
      74:	000003a3 	andeq	r0, r0, r3, lsr #7
      78:	007e3404 	rsbseq	r3, lr, r4, lsl #8
      7c:	04040000 	streq	r0, [r4], #-0
      80:	00005f07 	andeq	r5, r0, r7, lsl #30
      84:	07080400 	streq	r0, [r8, -r0, lsl #8]
      88:	0000005a 	andeq	r0, r0, sl, asr r0
      8c:	b7070404 	strlt	r0, [r7, -r4, lsl #8]
      90:	05000002 	streq	r0, [r0, #-2]
      94:	08010404 	stmdaeq	r1, {r2, sl}
      98:	0000036c 	andeq	r0, r0, ip, ror #6
      9c:	00a20406 	adceq	r0, r2, r6, lsl #8
      a0:	95070000 	strls	r0, [r7, #-0]
      a4:	08000000 	stmdaeq	r0, {}	; <UNPREDICTABLE>
      a8:	00000095 	muleq	r0, r5, r0
      ac:	000000b7 	strheq	r0, [r0], -r7
      b0:	00008c09 	andeq	r8, r0, r9, lsl #24
      b4:	0a000700 	beq	1cbc <_start-0x6344>
      b8:	f00c0501 			; <UNDEFINED> instruction: 0xf00c0501
      bc:	0b000000 	bleq	c4 <_start-0x7f3c>
      c0:	00000077 	andeq	r0, r0, r7, ror r0
      c4:	04a20b00 	strteq	r0, [r2], #2816	; 0xb00
      c8:	0b010000 	bleq	400d0 <__bss_end__+0x31708>
      cc:	000004df 	ldrdeq	r0, [r0], -pc	; <UNPREDICTABLE>
      d0:	04ee0b04 	strbteq	r0, [lr], #2820	; 0xb04
      d4:	0b050000 	bleq	1400dc <__bss_end__+0x131714>
      d8:	000004fd 	strdeq	r0, [r0], -sp
      dc:	050c0b06 	streq	r0, [ip, #-2822]	; 0xb06
      e0:	0b070000 	bleq	1c00e8 <__bss_end__+0x1b1720>
      e4:	0000051b 	andeq	r0, r0, fp, lsl r5
      e8:	052a0b03 	streq	r0, [sl, #-2819]!	; 0xb03
      ec:	00020000 	andeq	r0, r2, r0
      f0:	0004c103 	andeq	ip, r4, r3, lsl #2
      f4:	b7150500 	ldrlt	r0, [r5, -r0, lsl #10]
      f8:	0a000000 	beq	100 <_start-0x7f00>
      fc:	68330604 	ldmdavs	r3!, {r2, r9, sl}
     100:	0b000001 	bleq	10c <_start-0x7ef4>
     104:	000000f5 	strdeq	r0, [r0], -r5
     108:	8082e880 	addhi	lr, r2, r0, lsl #17
     10c:	00e60b02 	rsceq	r0, r6, r2, lsl #22
     110:	e8800000 	stm	r0, {}	; <UNPREDICTABLE>
     114:	0b028082 	bleq	a0324 <__bss_end__+0x9195c>
     118:	00000456 	andeq	r0, r0, r6, asr r4
     11c:	8082e884 	addhi	lr, r2, r4, lsl #17
     120:	00d40b02 	sbcseq	r0, r4, r2, lsl #22
     124:	e8880000 	stm	r8, {}	; <UNPREDICTABLE>
     128:	0b028082 	bleq	a0338 <__bss_end__+0x91970>
     12c:	00000466 	andeq	r0, r0, r6, ror #8
     130:	8082e88c 	addhi	lr, r2, ip, lsl #17
     134:	00490b02 	subeq	r0, r9, r2, lsl #22
     138:	e8900000 	ldm	r0, {}	; <UNPREDICTABLE>
     13c:	0b028082 	bleq	a034c <__bss_end__+0x91984>
     140:	00000159 	andeq	r0, r0, r9, asr r1
     144:	8082e894 	umullhi	lr, r2, r4, r8
     148:	02ea0b02 	rsceq	r0, sl, #2048	; 0x800
     14c:	e8980000 	ldm	r8, {}	; <UNPREDICTABLE>
     150:	0b028082 	bleq	a0360 <__bss_end__+0x91998>
     154:	00000441 	andeq	r0, r0, r1, asr #8
     158:	8082e89c 	umullhi	lr, r2, ip, r8
     15c:	05810b02 	streq	r0, [r1, #2818]	; 0xb02
     160:	e8a00000 	stmia	r0!, {}	; <UNPREDICTABLE>
     164:	00028082 	andeq	r8, r2, r2, lsl #1
     168:	00039303 	andeq	r9, r3, r3, lsl #6
     16c:	651c0100 	ldrvs	r0, [ip, #-256]	; 0x100
     170:	0c000000 	stceq	0, cr0, [r0], {-0}
     174:	28012014 	stmdacs	r1, {r2, r4, sp}
     178:	000001cd 	andeq	r0, r0, sp, asr #3
     17c:	0000710d 	andeq	r7, r0, sp, lsl #2
     180:	de2a0100 	suflee	f0, f2, f0
     184:	00000001 	andeq	r0, r0, r1
     188:	0004080e 	andeq	r0, r4, lr, lsl #16
     18c:	372b0100 	strcc	r0, [fp, -r0, lsl #2]!
     190:	00000000 	andeq	r0, r0, r0
     194:	039e0e20 	orrseq	r0, lr, #32, 28	; 0x200
     198:	2c010000 	stccs	0, cr0, [r1], {-0}
     19c:	000001e3 	andeq	r0, r0, r3, ror #3
     1a0:	b20e2004 	andlt	r2, lr, #4
     1a4:	01000002 	tsteq	r0, r2
     1a8:	0001e32c 	andeq	lr, r1, ip, lsr #6
     1ac:	0e200800 	cdpeq	8, 2, cr0, cr0, cr0, {0}
     1b0:	0000041e 	andeq	r0, r0, lr, lsl r4
     1b4:	01e32f01 	mvneq	r2, r1, lsl #30
     1b8:	200c0000 	andcs	r0, ip, r0
     1bc:	0000230f 	andeq	r2, r0, pc, lsl #6
     1c0:	37310100 	ldrcc	r0, [r1, -r0, lsl #2]!
     1c4:	04000000 	streq	r0, [r0], #-0
     1c8:	20101f01 	andscs	r1, r0, r1, lsl #30
     1cc:	01680800 	cmneq	r8, r0, lsl #16
     1d0:	01de0000 	bicseq	r0, lr, r0
     1d4:	8c100000 	ldchi	0, cr0, [r0], {-0}
     1d8:	ff000000 			; <UNDEFINED> instruction: 0xff000000
     1dc:	cd11001f 	ldcgt	0, cr0, [r1, #-124]	; 0xffffff84
     1e0:	11000001 	tstne	r0, r1
     1e4:	00000037 	andeq	r0, r0, r7, lsr r0
     1e8:	00048003 	andeq	r8, r4, r3
     1ec:	73320100 	teqvc	r2, #0, 2
     1f0:	12000001 	andne	r0, r0, #1
     1f4:	2a0e070c 	bcs	381e2c <__bss_end__+0x373464>
     1f8:	13000002 	movwne	r0, #2
     1fc:	07007874 	smlsdxeq	r0, r4, r8, r7
     200:	00005a0f 	andeq	r5, r0, pc, lsl #20
     204:	72130000 	andsvc	r0, r3, #0
     208:	0f070078 	svceq	0x00070078
     20c:	0000005a 	andeq	r0, r0, sl, asr r0
     210:	03ac0d01 			; <UNDEFINED> instruction: 0x03ac0d01
     214:	10070000 	andne	r0, r7, r0
     218:	00000073 	andeq	r0, r0, r3, ror r0
     21c:	00900d04 	addseq	r0, r0, r4, lsl #26
     220:	11070000 	mrsne	r0, (UNDEF: 7)
     224:	00000073 	andeq	r0, r0, r3, ror r0
     228:	47030008 	strmi	r0, [r3, -r8]
     22c:	07000003 	streq	r0, [r0, -r3]
     230:	0001f312 	andeq	pc, r1, r2, lsl r3	; <UNPREDICTABLE>
     234:	00871400 	addeq	r1, r7, r0, lsl #8
     238:	39010000 	stmdbcc	r1, {}	; <UNPREDICTABLE>
     23c:	00000025 	andeq	r0, r0, r5, lsr #32
     240:	00024f03 	andeq	r4, r2, r3, lsl #30
     244:	00711500 	rsbseq	r1, r1, r0, lsl #10
     248:	024f3901 	subeq	r3, pc, #16384	; 0x4000
     24c:	06000000 	streq	r0, [r0], -r0
     250:	0001e804 	andeq	lr, r1, r4, lsl #16
     254:	05791400 	ldrbeq	r1, [r9, #-1024]!	; 0x400
     258:	3c010000 	stccc	0, cr0, [r1], {-0}
     25c:	00000025 	andeq	r0, r0, r5, lsr #32
     260:	00026f03 	andeq	r6, r2, r3, lsl #30
     264:	00711500 	rsbseq	r1, r1, r0, lsl #10
     268:	024f3c01 	subeq	r3, pc, #256	; 0x100
     26c:	14000000 	strne	r0, [r0], #-0
     270:	000001be 			; <UNDEFINED> instruction: 0x000001be
     274:	00373e01 	eorseq	r3, r7, r1, lsl #28
     278:	89030000 	stmdbhi	r3, {}	; <UNPREDICTABLE>
     27c:	15000002 	strne	r0, [r0, #-2]
     280:	3e010071 	mcrcc	0, 0, r0, cr1, cr1, {3}
     284:	0000024f 	andeq	r0, r0, pc, asr #4
     288:	02da1400 	sbcseq	r1, sl, #0, 8
     28c:	42010000 	andmi	r0, r1, #0
     290:	00000025 	andeq	r0, r0, r5, lsr #32
     294:	0002b703 	andeq	fp, r2, r3, lsl #14
     298:	00631500 	rsbeq	r1, r3, r0, lsl #10
     29c:	024f4201 	subeq	r4, pc, #268435456	; 0x10000000
     2a0:	65150000 	ldrvs	r0, [r5, #-0]
     2a4:	b7420100 	strblt	r0, [r2, -r0, lsl #2]
     2a8:	16000002 	strne	r0, [r0], -r2
     2ac:	000002b2 			; <UNDEFINED> instruction: 0x000002b2
     2b0:	00374501 	eorseq	r4, r7, r1, lsl #10
     2b4:	06000000 	streq	r0, [r0], -r0
     2b8:	00016804 	andeq	r6, r1, r4, lsl #16
     2bc:	042d1400 	strteq	r1, [sp], #-1024	; 0x400
     2c0:	56010000 	strpl	r0, [r1], -r0
     2c4:	00000025 	andeq	r0, r0, r5, lsr #32
     2c8:	0002eb03 	andeq	lr, r2, r3, lsl #22
     2cc:	00631500 	rsbeq	r1, r3, r0, lsl #10
     2d0:	024f5601 	subeq	r5, pc, #1048576	; 0x100000
     2d4:	78150000 	ldmdavc	r5, {}	; <UNPREDICTABLE>
     2d8:	68560100 	ldmdavs	r6, {r8}^
     2dc:	16000001 	strne	r0, [r0], -r1
     2e0:	0000039e 	muleq	r0, lr, r3
     2e4:	00375701 	eorseq	r5, r7, r1, lsl #14
     2e8:	17000000 	strne	r0, [r0, -r0]
     2ec:	000002fb 	strdeq	r0, [r0], -fp
     2f0:	80109901 	andshi	r9, r0, r1, lsl #18
     2f4:	01b40000 			; <UNDEFINED> instruction: 0x01b40000
     2f8:	9c010000 	stcls	0, cr0, [r1], {-0}
     2fc:	000004fb 	strdeq	r0, [r0], -fp
     300:	01006318 	tsteq	r0, r8, lsl r3
     304:	00024f99 	muleq	r2, r9, pc	; <UNPREDICTABLE>
     308:	00000000 	andeq	r0, r0, r0
     30c:	00231900 	eoreq	r1, r3, r0, lsl #18
     310:	99010000 	stmdbls	r1, {}	; <UNPREDICTABLE>
     314:	00000037 	andeq	r0, r0, r7, lsr r0
     318:	0000001e 	andeq	r0, r0, lr, lsl r0
     31c:	0001a21a 	andeq	sl, r1, sl, lsl r2
     320:	0004fb00 	andeq	pc, r4, r0, lsl #22
     324:	ac030500 	cfstr32ge	mvfx0, [r3], {-0}
     328:	1b0000a0 	blne	5b0 <_start-0x7a50>
     32c:	a2010065 	andge	r0, r1, #101	; 0x65
     330:	00000168 	andeq	r0, r0, r8, ror #2
     334:	0000004a 	andeq	r0, r0, sl, asr #32
     338:	0002351c 	andeq	r3, r2, ip, lsl r5
     33c:	00806800 	addeq	r6, r0, r0, lsl #16
     340:	00000800 	andeq	r0, r0, r0, lsl #16
     344:	539f0100 	orrspl	r0, pc, #0, 2
     348:	1d000003 	stcne	0, cr0, [r0, #-12]
     34c:	00000245 	andeq	r0, r0, r5, asr #4
     350:	1c005401 	cfstrsne	mvf5, [r0], {1}
     354:	00000255 	andeq	r0, r0, r5, asr r2
     358:	00008094 	muleq	r0, r4, r0
     35c:	00000018 	andeq	r0, r0, r8, lsl r0
     360:	036ea001 	cmneq	lr, #1
     364:	651d0000 	ldrvs	r0, [sp, #-0]
     368:	01000002 	tsteq	r0, r2
     36c:	6f1c0054 	svcvs	0x001c0054
     370:	d0000002 	andle	r0, r0, r2
     374:	14000080 	strne	r0, [r0], #-128	; 0x80
     378:	01000000 	mrseq	r0, (UNDEF: 0)
     37c:	000389a1 	andeq	r8, r3, r1, lsr #19
     380:	027f1d00 	rsbseq	r1, pc, #0, 26
     384:	54010000 	strpl	r0, [r1], #-0
     388:	02891e00 	addeq	r1, r9, #0, 28
     38c:	81080000 	mrshi	r0, (UNDEF: 8)
     390:	00000000 	andeq	r0, r0, r0
     394:	a3010000 	movwge	r0, #4096	; 0x1000
     398:	000003d6 	ldrdeq	r0, [r0], -r6
     39c:	0002a21d 	andeq	sl, r2, sp, lsl r2
     3a0:	2bf20600 	blcs	ffc81ba8 <__bss_end__+0xffc731e0>
     3a4:	00000003 	andeq	r0, r0, r3
     3a8:	0002991d 	andeq	r9, r2, sp, lsl r9
     3ac:	1f540100 	svcne	0x00540100
     3b0:	00000000 	andeq	r0, r0, r0
     3b4:	0002ab20 	andeq	sl, r2, r0, lsr #22
     3b8:	00008000 	andeq	r8, r0, r0
     3bc:	02352100 	eorseq	r2, r5, #0, 2
     3c0:	81080000 	mrshi	r0, (UNDEF: 8)
     3c4:	00100000 	andseq	r0, r0, r0
     3c8:	43010000 	movwmi	r0, #4096	; 0x1000
     3cc:	0002451d 	andeq	r4, r2, sp, lsl r5
     3d0:	00540100 	subseq	r0, r4, r0, lsl #2
     3d4:	28220000 	stmdacs	r2!, {}	; <UNPREDICTABLE>
     3d8:	80000080 	andhi	r0, r0, r0, lsl #1
     3dc:	f600000f 			; <UNDEFINED> instruction: 0xf600000f
     3e0:	23000003 	movwcs	r0, #3
     3e4:	0a035201 	beq	d4bf0 <__bss_end__+0xc6228>
     3e8:	01232014 	teqeq	r3, r4, lsl r0
     3ec:	23300151 	teqcs	r0, #1073741844	; 0x40000014
     3f0:	74025001 	strvc	r5, [r2], #-1
     3f4:	7c240000 	stcvc	0, cr0, [r4], #-0
     3f8:	9f000080 	svcls	0x00000080
     3fc:	2200000f 	andcs	r0, r0, #15
     400:	00008090 	muleq	r0, r0, r0
     404:	00000fa6 	andeq	r0, r0, r6, lsr #31
     408:	0000042e 	andeq	r0, r0, lr, lsr #8
     40c:	02530123 	subseq	r0, r3, #-1073741816	; 0xc0000008
     410:	01239f08 	teqeq	r3, r8, lsl #30
     414:	ac030552 	cfstr32ge	mvfx0, [r3], {82}	; 0x52
     418:	230000a0 	movwcs	r0, #160	; 0xa0
     41c:	03055101 	movweq	r5, #20737	; 0x5101
     420:	0000a0d0 	ldrdeq	sl, [r0], -r0
     424:	05500123 	ldrbeq	r0, [r0, #-291]	; 0x123
     428:	00a0b403 	adceq	fp, r0, r3, lsl #8
     42c:	94240000 	strtls	r0, [r4], #-0
     430:	bc000080 	stclt	0, cr0, [r0], {128}	; 0x80
     434:	2400000f 	strcs	r0, [r0], #-15
     438:	000080b8 	strheq	r8, [r0], -r8	; <UNPREDICTABLE>
     43c:	00000f9f 	muleq	r0, pc, pc	; <UNPREDICTABLE>
     440:	0080cc22 	addeq	ip, r0, r2, lsr #24
     444:	000fa600 	andeq	sl, pc, r0, lsl #12
     448:	00046f00 	andeq	r6, r4, r0, lsl #30
     44c:	53012300 	movwpl	r2, #4864	; 0x1300
     450:	23a00802 	movcs	r0, #131072	; 0x20000
     454:	03055201 	movweq	r5, #20993	; 0x5201
     458:	0000a0ac 	andeq	sl, r0, ip, lsr #1
     45c:	05510123 	ldrbeq	r0, [r1, #-291]	; 0x123
     460:	00a0d003 	adceq	sp, r0, r3
     464:	50012300 	andpl	r2, r1, r0, lsl #6
     468:	a1240305 	teqge	r4, r5, lsl #6
     46c:	24000000 	strcs	r0, [r0], #-0
     470:	000080d0 	ldrdeq	r8, [r0], -r0
     474:	00000fbc 			; <UNDEFINED> instruction: 0x00000fbc
     478:	0080f024 	addeq	pc, r0, r4, lsr #32
     47c:	000f9f00 	andeq	r9, pc, r0, lsl #30
     480:	81042200 	mrshi	r2, R12_usr
     484:	0fa60000 	svceq	0x00a60000
     488:	04b00000 	ldrteq	r0, [r0], #0
     48c:	01230000 	teqeq	r3, r0
     490:	a1080253 	tstge	r8, r3, asr r2
     494:	05520123 	ldrbeq	r0, [r2, #-291]	; 0x123
     498:	00a0ac03 	adceq	sl, r0, r3, lsl #24
     49c:	51012300 	mrspl	r2, SP_irq
     4a0:	a0d00305 	sbcsge	r0, r0, r5, lsl #6
     4a4:	01230000 	teqeq	r3, r0
     4a8:	40030550 	andmi	r0, r3, r0, asr r5
     4ac:	000000a1 	andeq	r0, r0, r1, lsr #1
     4b0:	00810824 	addeq	r0, r1, r4, lsr #16
     4b4:	000fbc00 	andeq	fp, pc, r0, lsl #24
     4b8:	817c2400 	cmnhi	ip, r0, lsl #8
     4bc:	0f9f0000 	svceq	0x009f0000
     4c0:	90220000 	eorls	r0, r2, r0
     4c4:	a6000081 	strge	r0, [r0], -r1, lsl #1
     4c8:	f100000f 	cps	#15
     4cc:	23000004 	movwcs	r0, #4
     4d0:	08025301 	stmdaeq	r2, {r0, r8, r9, ip, lr}
     4d4:	520123a3 	andpl	r2, r1, #-1946157054	; 0x8c000002
     4d8:	a0ac0305 	adcge	r0, ip, r5, lsl #6
     4dc:	01230000 	teqeq	r3, r0
     4e0:	d0030551 	andle	r0, r3, r1, asr r5
     4e4:	230000a0 	movwcs	r0, #160	; 0xa0
     4e8:	03055001 	movweq	r5, #20481	; 0x5001
     4ec:	0000a164 	andeq	sl, r0, r4, ror #2
     4f0:	81942400 	orrshi	r2, r4, r0, lsl #8
     4f4:	0fbc0000 	svceq	0x00bc0000
     4f8:	07000000 	streq	r0, [r0, -r0]
     4fc:	000000a7 	andeq	r0, r0, r7, lsr #1
     500:	00027025 	andeq	r7, r2, r5, lsr #32
     504:	253c0200 	ldrcs	r0, [ip, #-512]!	; 0x200
     508:	c4000000 	strgt	r0, [r0], #-0
     50c:	28000081 	stmdacs	r0, {r0, r7}
     510:	01000000 	mrseq	r0, (UNDEF: 0)
     514:	00053c9c 	muleq	r5, ip, ip
     518:	012a2600 	teqeq	sl, r0, lsl #12
     51c:	3d020000 	stccc	0, cr0, [r2, #-0]
     520:	00000037 	andeq	r0, r0, r7, lsr r0
     524:	000000a0 	andeq	r0, r0, r0, lsr #1
     528:	0081d027 	addeq	sp, r1, r7, lsr #32
     52c:	000fc300 	andeq	ip, pc, r0, lsl #6
     530:	50012300 	andpl	r2, r1, r0, lsl #6
     534:	50480c05 	subpl	r0, r8, r5, lsl #24
     538:	00002021 	andeq	r2, r0, r1, lsr #32
     53c:	00035125 	andeq	r5, r3, r5, lsr #2
     540:	25440200 	strbcs	r0, [r4, #-512]	; 0x200
     544:	ec000000 	stc	0, cr0, [r0], {-0}
     548:	40000081 	andmi	r0, r0, r1, lsl #1
     54c:	01000000 	mrseq	r0, (UNDEF: 0)
     550:	0005729c 	muleq	r5, ip, r2
     554:	02552100 	subseq	r2, r5, #0, 2
     558:	81ec0000 	mvnhi	r0, r0
     55c:	001c0000 	andseq	r0, ip, r0
     560:	45020000 	strmi	r0, [r2, #-0]
     564:	0002651d 	andeq	r6, r2, sp, lsl r5
     568:	6c030600 	stcvs	6, cr0, [r3], {-0}
     56c:	9f0000a5 	svcls	0x000000a5
     570:	15280000 	strne	r0, [r8, #-0]!
     574:	02000000 	andeq	r0, r0, #0
     578:	00822c74 	addeq	r2, r2, r4, ror ip
     57c:	0000bc00 	andeq	fp, r0, r0, lsl #24
     580:	c69c0100 	ldrgt	r0, [ip], r0, lsl #2
     584:	24000006 	strcs	r0, [r0], #-6
     588:	00008234 	andeq	r8, r0, r4, lsr r2
     58c:	00000fe4 	andeq	r0, r0, r4, ror #31
     590:	00824022 	addeq	r4, r2, r2, lsr #32
     594:	000feb00 	andeq	lr, pc, r0, lsl #22
     598:	0005a800 	andeq	sl, r5, r0, lsl #16
     59c:	51012300 	mrspl	r2, SP_irq
     5a0:	01233201 	teqeq	r3, r1, lsl #4
     5a4:	003e0150 	eorseq	r0, lr, r0, asr r1
     5a8:	00824c22 	addeq	r4, r2, r2, lsr #24
     5ac:	000feb00 	andeq	lr, pc, r0, lsl #22
     5b0:	0005c000 	andeq	ip, r5, r0
     5b4:	51012300 	mrspl	r2, SP_irq
     5b8:	01233201 	teqeq	r3, r1, lsl #4
     5bc:	003f0150 	eorseq	r0, pc, r0, asr r1	; <UNPREDICTABLE>
     5c0:	00825024 	addeq	r5, r2, r4, lsr #32
     5c4:	000fe400 	andeq	lr, pc, r0, lsl #8
     5c8:	825c2200 	subshi	r2, ip, #0, 4
     5cc:	0fc30000 	svceq	0x00c30000
     5d0:	05dd0000 	ldrbeq	r0, [sp]
     5d4:	01230000 	teqeq	r3, r0
     5d8:	00740250 	rsbseq	r0, r4, r0, asr r2
     5dc:	82682200 	rsbhi	r2, r8, #0, 4
     5e0:	10010000 	andne	r0, r1, r0
     5e4:	05f10000 	ldrbeq	r0, [r1, #0]!
     5e8:	01230000 	teqeq	r3, r0
     5ec:	00740250 	rsbseq	r0, r4, r0, asr r2
     5f0:	826c2400 	rsbhi	r2, ip, #0, 8
     5f4:	0fe40000 	svceq	0x00e40000
     5f8:	7c220000 	stcvc	0, cr0, [r2], #-0
     5fc:	01000082 	smlabbeq	r0, r2, r0, r0
     600:	13000010 	movwne	r0, #16
     604:	23000006 	movwcs	r0, #6
     608:	30015101 	andcc	r5, r1, r1, lsl #2
     60c:	02500123 	subseq	r0, r0, #-1073741816	; 0xc0000008
     610:	22000074 	andcs	r0, r0, #116	; 0x74
     614:	00008288 	andeq	r8, r0, r8, lsl #5
     618:	00001001 	andeq	r1, r0, r1
     61c:	0000062f 	andeq	r0, r0, pc, lsr #12
     620:	01510123 	cmpeq	r1, r3, lsr #2
     624:	50012333 	andpl	r2, r1, r3, lsr r3
     628:	50440c05 	subpl	r0, r4, r5, lsl #24
     62c:	22002021 	andcs	r2, r0, #33	; 0x21
     630:	00008294 	muleq	r0, r4, r2
     634:	00001001 	andeq	r1, r0, r1
     638:	0000064b 	andeq	r0, r0, fp, asr #12
     63c:	01510123 	cmpeq	r1, r3, lsr #2
     640:	50012336 	andpl	r2, r1, r6, lsr r3
     644:	50480c05 	subpl	r0, r8, r5, lsl #24
     648:	22002021 	andcs	r2, r0, #33	; 0x21
     64c:	000082a0 	andeq	r8, r0, r0, lsr #5
     650:	00001001 	andeq	r1, r0, r1
     654:	00000667 	andeq	r0, r0, r7, ror #12
     658:	01510123 	cmpeq	r1, r3, lsr #2
     65c:	50012333 	andpl	r2, r1, r3, lsr r3
     660:	504c0c05 	subpl	r0, ip, r5, lsl #24
     664:	22002021 	andcs	r2, r0, #33	; 0x21
     668:	000082ac 	andeq	r8, r0, ip, lsr #5
     66c:	00001001 	andeq	r1, r0, r1
     670:	00000685 	andeq	r0, r0, r5, lsl #13
     674:	03510123 	cmpeq	r1, #-1073741816	; 0xc0000008
     678:	23010e0a 	movwcs	r0, #7690	; 0x1e0a
     67c:	0c055001 	stceq	0, cr5, [r5], {1}
     680:	20215068 	eorcs	r5, r1, r8, rrx
     684:	82b82200 	adcshi	r2, r8, #0, 4
     688:	10010000 	andne	r0, r1, r0
     68c:	069e0000 	ldreq	r0, [lr], r0
     690:	01230000 	teqeq	r3, r0
     694:	23330151 	teqcs	r3, #1073741844	; 0x40000014
     698:	74025001 	strvc	r5, [r2], #-1
     69c:	c4220000 	strtgt	r0, [r2], #-0
     6a0:	01000082 	smlabbeq	r0, r2, r0, r0
     6a4:	bc000010 	stclt	0, cr0, [r0], {16}
     6a8:	23000006 	movwcs	r0, #6
     6ac:	40035101 	andmi	r5, r3, r1, lsl #2
     6b0:	01232449 	teqeq	r3, r9, asr #8
     6b4:	100c0550 	andne	r0, ip, r0, asr r5
     6b8:	002000b2 	strhteq	r0, [r0], -r2
     6bc:	0082c824 	addeq	ip, r2, r4, lsr #16
     6c0:	000fe400 	andeq	lr, pc, r0, lsl #8
     6c4:	cd280000 	stcgt	0, cr0, [r8, #-0]
     6c8:	02000004 	andeq	r0, r0, #4
     6cc:	0082e892 	umulleq	lr, r2, r2, r8
     6d0:	00005400 	andeq	r5, r0, r0, lsl #8
     6d4:	6c9c0100 	ldfvss	f0, [ip], {0}
     6d8:	19000007 	stmdbne	r0, {r0, r1, r2}
     6dc:	000000ce 	andeq	r0, r0, lr, asr #1
     6e0:	00379202 	eorseq	r9, r7, r2, lsl #4
     6e4:	00be0000 	adcseq	r0, lr, r0
     6e8:	d2260000 	eorle	r0, r6, #0
     6ec:	02000002 	andeq	r0, r0, #2
     6f0:	00003794 	muleq	r0, r4, r7
     6f4:	0000ea00 	andeq	lr, r0, r0, lsl #20
     6f8:	82f42400 	rscshi	r2, r4, #0, 8
     6fc:	0fe40000 	svceq	0x00e40000
     700:	fc220000 	stc2	0, cr0, [r2], #-0
     704:	c3000082 	movwgt	r0, #130	; 0x82
     708:	1900000f 	stmdbne	r0, {r0, r1, r2, r3}
     70c:	23000007 	movwcs	r0, #7
     710:	0c055001 	stceq	0, cr5, [r5], {1}
     714:	20215044 	eorcs	r5, r1, r4, asr #32
     718:	83102200 	tsthi	r0, #0, 4
     71c:	10010000 	andne	r0, r1, r0
     720:	07300000 	ldreq	r0, [r0, -r0]!
     724:	01230000 	teqeq	r3, r0
     728:	440c0550 	strmi	r0, [ip], #-1360	; 0x550
     72c:	00202150 	eoreq	r2, r0, r0, asr r1
     730:	00832422 	addeq	r2, r3, r2, lsr #8
     734:	00100100 	andseq	r0, r0, r0, lsl #2
     738:	00074900 	andeq	r4, r7, r0, lsl #18
     73c:	51012300 	mrspl	r2, SP_irq
     740:	01233001 	teqeq	r3, r1
     744:	00740250 	rsbseq	r0, r4, r0, asr r2
     748:	83302200 	teqhi	r0, #0, 4
     74c:	10010000 	andne	r0, r1, r0
     750:	07620000 	strbeq	r0, [r2, -r0]!
     754:	01230000 	teqeq	r3, r0
     758:	23310151 	teqcs	r1, #1073741844	; 0x40000014
     75c:	74025001 	strvc	r5, [r2], #-1
     760:	34240000 	strtcc	r0, [r4], #-0
     764:	e4000083 	str	r0, [r0], #-131	; 0x83
     768:	0000000f 	andeq	r0, r0, pc
     76c:	00024128 	andeq	r4, r2, r8, lsr #2
     770:	3c4b0200 	sfmcc	f0, 2, [fp], {-0}
     774:	e0000083 	and	r0, r0, r3, lsl #1
     778:	01000000 	mrseq	r0, (UNDEF: 0)
     77c:	0008849c 	muleq	r8, ip, r4
     780:	00631800 	rsbeq	r1, r3, r0, lsl #16
     784:	00654b02 	rsbeq	r4, r5, r2, lsl #22
     788:	01130000 	tsteq	r3, r0
     78c:	641b0000 	ldrvs	r0, [fp], #-0
     790:	65500200 	ldrbvs	r0, [r0, #-512]	; 0x200
     794:	34000000 	strcc	r0, [r0], #-0
     798:	1c000001 	stcne	0, cr0, [r0], {1}
     79c:	000002bd 			; <UNDEFINED> instruction: 0x000002bd
     7a0:	00008348 	andeq	r8, r0, r8, asr #6
     7a4:	00000048 	andeq	r0, r0, r8, asr #32
     7a8:	07f34d02 	ldrbeq	r4, [r3, r2, lsl #26]!
     7ac:	d6290000 	strtle	r0, [r9], -r0
     7b0:	52000002 	andpl	r0, r0, #2
     7b4:	1d000001 	stcne	0, cr0, [r0, #-4]
     7b8:	000002cd 	andeq	r0, r0, sp, asr #5
     7bc:	c5800306 	strgt	r0, [r0, #774]	; 0x306
     7c0:	2a9f0000 	bcs	fe7c07c8 <__bss_end__+0xfe7b1e00>
     7c4:	00008348 	andeq	r8, r0, r8, asr #6
     7c8:	00000048 	andeq	r0, r0, r8, asr #32
     7cc:	0002df20 	andeq	sp, r2, r0, lsr #30
     7d0:	00016500 	andeq	r6, r1, r0, lsl #10
     7d4:	02552100 	subseq	r2, r5, #0, 2
     7d8:	83540000 	cmphi	r4, #0
     7dc:	00140000 	andseq	r0, r4, r0
     7e0:	58010000 	stmdapl	r1, {}	; <UNPREDICTABLE>
     7e4:	0002651d 	andeq	r6, r2, sp, lsl r5
     7e8:	80030600 	andhi	r0, r3, r0, lsl #12
     7ec:	9f0000c5 	svcls	0x000000c5
     7f0:	1e000000 	cdpne	0, 0, cr0, cr0, cr0, {0}
     7f4:	00000289 	andeq	r0, r0, r9, lsl #5
     7f8:	00008398 	muleq	r0, r8, r3
     7fc:	00000018 	andeq	r0, r0, r8, lsl r0
     800:	08415102 	stmdaeq	r1, {r1, r8, ip, lr}^
     804:	a2290000 	eorge	r0, r9, #0
     808:	87000002 	strhi	r0, [r0, -r2]
     80c:	29000001 	stmdbcs	r0, {r0}
     810:	00000299 	muleq	r0, r9, r2
     814:	000001af 	andeq	r0, r0, pc, lsr #3
     818:	0000181f 	andeq	r1, r0, pc, lsl r8
     81c:	02ab2000 	adceq	r2, fp, #0
     820:	01d70000 	bicseq	r0, r7, r0
     824:	352b0000 	strcc	r0, [fp, #-0]!
     828:	98000002 	stmdals	r0, {r1}
     82c:	30000083 	andcc	r0, r0, r3, lsl #1
     830:	01000000 	mrseq	r0, (UNDEF: 0)
     834:	02452943 	subeq	r2, r5, #1097728	; 0x10c000
     838:	01af0000 			; <UNDEFINED> instruction: 0x01af0000
     83c:	00000000 	andeq	r0, r0, r0
     840:	83482400 	movthi	r2, #33792	; 0x8400
     844:	101d0000 	andsne	r0, sp, r0
     848:	98220000 	stmdals	r2!, {}	; <UNPREDICTABLE>
     84c:	c6000083 	strgt	r0, [r0], -r3, lsl #1
     850:	5d000006 	stcpl	0, cr0, [r0, #-24]	; 0xffffffe8
     854:	23000008 	movwcs	r0, #8
     858:	31015001 	tstcc	r1, r1
     85c:	83b82200 			; <UNDEFINED> instruction: 0x83b82200
     860:	10240000 	eorne	r0, r4, r0
     864:	08710000 	ldmdaeq	r1!, {}^	; <UNPREDICTABLE>
     868:	01230000 	teqeq	r3, r0
     86c:	00760250 	rsbseq	r0, r6, r0, asr r2
     870:	83bc2400 			; <UNDEFINED> instruction: 0x83bc2400
     874:	10350000 	eorsne	r0, r5, r0
     878:	0c240000 	stceq	0, cr0, [r4], #-0
     87c:	40000084 	andmi	r0, r0, r4, lsl #1
     880:	00000010 	andeq	r0, r0, r0, lsl r0
     884:	000cc428 	andeq	ip, ip, r8, lsr #8
     888:	1c5c0200 	lfmne	f0, 2, [ip], {-0}
     88c:	50000084 	andpl	r0, r0, r4, lsl #1
     890:	01000001 	tsteq	r0, r1
     894:	0009fc9c 	muleq	r9, ip, ip
     898:	63701800 	cmnvs	r0, #0, 16
     89c:	375c0200 	ldrbcc	r0, [ip, -r0, lsl #4]
     8a0:	f9000000 			; <UNDEFINED> instruction: 0xf9000000
     8a4:	26000001 	strcs	r0, [r0], -r1
     8a8:	000002d2 	ldrdeq	r0, [r0], -r2
     8ac:	00375f02 	eorseq	r5, r7, r2, lsl #30
     8b0:	021a0000 	andseq	r0, sl, #0
     8b4:	342c0000 	strtcc	r0, [ip], #-0
     8b8:	3c000084 	stccc	0, cr0, [r0], {132}	; 0x84
     8bc:	2e000000 	cdpcs	0, 0, cr0, cr0, cr0, {0}
     8c0:	26000009 	strcs	r0, [r0], -r9
     8c4:	00000371 	andeq	r0, r0, r1, ror r3
     8c8:	00376302 	eorseq	r6, r7, r2, lsl #6
     8cc:	024e0000 	subeq	r0, lr, #0
     8d0:	bd1c0000 	ldclt	0, cr0, [ip, #-0]
     8d4:	3c000002 	stccc	0, cr0, [r0], {2}
     8d8:	34000084 	strcc	r0, [r0], #-132	; 0x84
     8dc:	02000000 	andeq	r0, r0, #0
     8e0:	00092465 	andeq	r2, r9, r5, ror #8
     8e4:	02d62900 	sbcseq	r2, r6, #0, 18
     8e8:	02610000 	rsbeq	r0, r1, #0
     8ec:	cd290000 	stcgt	0, cr0, [r9, #-0]
     8f0:	74000002 	strvc	r0, [r0], #-2
     8f4:	2a000002 	bcs	904 <_start-0x76fc>
     8f8:	0000843c 	andeq	r8, r0, ip, lsr r4
     8fc:	00000034 	andeq	r0, r0, r4, lsr r0
     900:	0002df20 	andeq	sp, r2, r0, lsr #30
     904:	00028c00 	andeq	r8, r2, r0, lsl #24
     908:	02552100 	subseq	r2, r5, #0, 2
     90c:	84400000 	strbhi	r0, [r0], #-0
     910:	00100000 	andseq	r0, r0, r0
     914:	58010000 	stmdapl	r1, {}	; <UNPREDICTABLE>
     918:	00026529 	andeq	r6, r2, r9, lsr #10
     91c:	00029f00 	andeq	r9, r2, r0, lsl #30
     920:	00000000 	andeq	r0, r0, r0
     924:	00843824 	addeq	r3, r4, r4, lsr #16
     928:	00104700 	andseq	r4, r0, r0, lsl #14
     92c:	551c0000 	ldrpl	r0, [ip, #-0]
     930:	70000002 	andvc	r0, r0, r2
     934:	1c000084 	stcne	0, cr0, [r0], {132}	; 0x84
     938:	02000000 	andeq	r0, r0, #0
     93c:	00094b62 	andeq	r4, r9, r2, ror #22
     940:	02652900 	rsbeq	r2, r5, #0, 18
     944:	02b70000 	adcseq	r0, r7, #0
     948:	1e000000 	cdpne	0, 0, cr0, cr0, cr0, {0}
     94c:	00000289 	andeq	r0, r0, r9, lsl #5
     950:	000084bc 			; <UNDEFINED> instruction: 0x000084bc
     954:	00000048 	andeq	r0, r0, r8, asr #32
     958:	09996a02 	ldmibeq	r9, {r1, r9, fp, sp, lr}
     95c:	a2290000 	eorge	r0, r9, #0
     960:	df000002 	svcle	0x00000002
     964:	29000002 	stmdbcs	r0, {r1}
     968:	00000299 	muleq	r0, r9, r2
     96c:	00000307 	andeq	r0, r0, r7, lsl #6
     970:	0000481f 	andeq	r4, r0, pc, lsl r8
     974:	02ab2000 	adceq	r2, fp, #0
     978:	032f0000 	teqeq	pc, #0
     97c:	352b0000 	strcc	r0, [fp, #-0]!
     980:	bc000002 	stclt	0, cr0, [r0], {2}
     984:	60000084 	andvs	r0, r0, r4, lsl #1
     988:	01000000 	mrseq	r0, (UNDEF: 0)
     98c:	02452943 	subeq	r2, r5, #1097728	; 0x10c000
     990:	03070000 	movweq	r0, #28672	; 0x7000
     994:	00000000 	andeq	r0, r0, r0
     998:	02351c00 	eorseq	r1, r5, #0, 24
     99c:	85240000 	strhi	r0, [r4, #-0]!
     9a0:	00140000 	andseq	r0, r4, r0
     9a4:	6e020000 	cdpvs	0, 0, cr0, cr2, cr0, {0}
     9a8:	000009b9 			; <UNDEFINED> instruction: 0x000009b9
     9ac:	0002451d 	andeq	r4, r2, sp, lsl r5
     9b0:	80030600 	andhi	r0, r3, r0, lsl #12
     9b4:	9f0000c5 	svcls	0x000000c5
     9b8:	84282200 	strthi	r2, [r8], #-512	; 0x200
     9bc:	0fc30000 	svceq	0x00c30000
     9c0:	09d00000 	ldmibeq	r0, {}^	; <UNPREDICTABLE>
     9c4:	01230000 	teqeq	r3, r0
     9c8:	480c0550 	stmdami	ip, {r4, r6, r8, sl}
     9cc:	00202150 	eoreq	r2, r0, r0, asr r1
     9d0:	00849824 	addeq	r9, r4, r4, lsr #16
     9d4:	00105200 	andseq	r5, r0, r0, lsl #4
     9d8:	84b82400 	ldrthi	r2, [r8], #1024	; 0x400
     9dc:	10240000 	eorne	r0, r4, r0
     9e0:	d8240000 	stmdale	r4!, {}	; <UNPREDICTABLE>
     9e4:	35000084 	strcc	r0, [r0, #-132]	; 0x84
     9e8:	27000010 	smladcs	r0, r0, r0, r0
     9ec:	00008548 	andeq	r8, r0, r8, asr #10
     9f0:	000006c6 	andeq	r0, r0, r6, asr #13
     9f4:	02500123 	subseq	r0, r0, #-1073741816	; 0xc0000008
     9f8:	00000079 	andeq	r0, r0, r9, ror r0
     9fc:	00000025 	andeq	r0, r0, r5, lsr #32
     a00:	65a00200 	strvs	r0, [r0, #512]!	; 0x200
     a04:	6c000000 	stcvs	0, cr0, [r0], {-0}
     a08:	78000085 	stmdavc	r0, {r0, r2, r7}
     a0c:	01000000 	mrseq	r0, (UNDEF: 0)
     a10:	000a939c 	muleq	sl, ip, r3
     a14:	03992600 	orrseq	r2, r9, #0, 12
     a18:	a2020000 	andge	r0, r2, #0
     a1c:	00000065 	andeq	r0, r0, r5, rrx
     a20:	00000351 	andeq	r0, r0, r1, asr r3
     a24:	0002351c 	andeq	r3, r2, ip, lsl r5
     a28:	00856c00 	addeq	r6, r5, r0, lsl #24
     a2c:	00001400 	andeq	r1, r0, r0, lsl #8
     a30:	44a30200 	strtmi	r0, [r3], #512	; 0x200
     a34:	1d00000a 	stcne	0, cr0, [r0, #-40]	; 0xffffffd8
     a38:	00000245 	andeq	r0, r0, r5, asr #4
     a3c:	a56c0306 	strbge	r0, [ip, #-774]!	; 0x306
     a40:	009f0000 	addseq	r0, pc, r0
     a44:	00028921 	andeq	r8, r2, r1, lsr #18
     a48:	00858800 	addeq	r8, r5, r0, lsl #16
     a4c:	00004000 	andeq	r4, r0, r0
     a50:	29a40200 	stmibcs	r4!, {r9}
     a54:	000002a2 	andeq	r0, r0, r2, lsr #5
     a58:	00000389 	andeq	r0, r0, r9, lsl #7
     a5c:	00029929 	andeq	r9, r2, r9, lsr #18
     a60:	0003b100 	andeq	fp, r3, r0, lsl #2
     a64:	85882a00 	strhi	r2, [r8, #2560]	; 0xa00
     a68:	00400000 	subeq	r0, r0, r0
     a6c:	ab200000 	blge	800a74 <__bss_end__+0x7f20ac>
     a70:	d9000002 	stmdble	r0, {r1}
     a74:	21000003 	tstcs	r0, r3
     a78:	00000235 	andeq	r0, r0, r5, lsr r2
     a7c:	00008588 	andeq	r8, r0, r8, lsl #11
     a80:	00000010 	andeq	r0, r0, r0, lsl r0
     a84:	45294301 	strmi	r4, [r9, #-769]!	; 0x301
     a88:	b1000002 	tstlt	r0, r2
     a8c:	00000003 	andeq	r0, r0, r3
     a90:	2d000000 	stccs	0, cr0, [r0, #-0]
     a94:	00000041 	andeq	r0, r0, r1, asr #32
     a98:	85e4ad02 	strbhi	sl, [r4, #3330]!	; 0xd02
     a9c:	019c0000 	orrseq	r0, ip, r0
     aa0:	9c010000 	stcls	0, cr0, [r1], {-0}
     aa4:	00000db6 			; <UNDEFINED> instruction: 0x00000db6
     aa8:	0087302c 	addeq	r3, r7, ip, lsr #32
     aac:	00005000 	andeq	r5, r0, r0
     ab0:	000b0800 	andeq	r0, fp, r0, lsl #16
     ab4:	00631b00 	rsbeq	r1, r3, r0, lsl #22
     ab8:	0065f002 	rsbeq	pc, r5, r2
     abc:	03fb0000 	mvnseq	r0, #0
     ac0:	3c240000 	stccc	0, cr0, [r4], #-0
     ac4:	fc000087 	stc2	0, cr0, [r0], {135}	; 0x87
     ac8:	24000009 	strcs	r0, [r0], #-9
     acc:	00008744 	andeq	r8, r0, r4, asr #14
     ad0:	00000fe4 	andeq	r0, r0, r4, ror #31
     ad4:	00875422 	addeq	r5, r7, r2, lsr #8
     ad8:	00076c00 	andeq	r6, r7, r0, lsl #24
     adc:	000ae800 	andeq	lr, sl, r0, lsl #16
     ae0:	50012300 	andpl	r2, r1, r0, lsl #6
     ae4:	00007602 	andeq	r7, r0, r2, lsl #12
     ae8:	00875824 	addeq	r5, r7, r4, lsr #16
     aec:	000fe400 	andeq	lr, pc, r0, lsl #8
     af0:	87642700 	strbhi	r2, [r4, -r0, lsl #14]!
     af4:	105d0000 	subsne	r0, sp, r0
     af8:	01230000 	teqeq	r3, r0
     afc:	00740251 	rsbseq	r0, r4, r1, asr r2
     b00:	02500123 	subseq	r0, r0, #-1073741816	; 0xc0000008
     b04:	00000075 	andeq	r0, r0, r5, ror r0
     b08:	00860c22 	addeq	r0, r6, r2, lsr #24
     b0c:	00107900 	andseq	r7, r0, r0, lsl #18
     b10:	000b3600 	andeq	r3, fp, r0, lsl #12
     b14:	53012300 	movwpl	r2, #4864	; 0x1300
     b18:	39e10804 	stmibcc	r1!, {r2, fp}^
     b1c:	52012324 	andpl	r2, r1, #36, 6	; 0x90000000
     b20:	01234401 	teqeq	r3, r1, lsl #8
     b24:	23450151 	movtcs	r0, #20817	; 0x5151
     b28:	75025001 	strvc	r5, [r2, #-1]
     b2c:	7d022300 	stcvc	3, cr2, [r2, #-0]
     b30:	bc0a0300 	stclt	3, cr0, [sl], {-0}
     b34:	24220017 	strtcs	r0, [r2], #-23
     b38:	5d000086 	stcpl	0, cr0, [r0, #-536]	; 0xfffffde8
     b3c:	50000010 	andpl	r0, r0, r0, lsl r0
     b40:	2300000b 	movwcs	r0, #11
     b44:	08025101 	stmdaeq	r2, {r0, r8, ip, lr}
     b48:	50012352 	andpl	r2, r1, r2, asr r3
     b4c:	00007402 	andeq	r7, r0, r2, lsl #8
     b50:	00863022 	addeq	r3, r6, r2, lsr #32
     b54:	00105d00 	andseq	r5, r0, r0, lsl #26
     b58:	000b6a00 	andeq	r6, fp, r0, lsl #20
     b5c:	51012300 	mrspl	r2, SP_irq
     b60:	23450802 	movtcs	r0, #22530	; 0x5802
     b64:	74025001 	strvc	r5, [r2], #-1
     b68:	3c220000 	stccc	0, cr0, [r2], #-0
     b6c:	5d000086 	stcpl	0, cr0, [r0, #-536]	; 0xfffffde8
     b70:	84000010 	strhi	r0, [r0], #-16
     b74:	2300000b 	movwcs	r0, #11
     b78:	08025101 	stmdaeq	r2, {r0, r8, ip, lr}
     b7c:	50012341 	andpl	r2, r1, r1, asr #6
     b80:	00007402 	andeq	r7, r0, r2, lsl #8
     b84:	00864822 	addeq	r4, r6, r2, lsr #16
     b88:	00105d00 	andseq	r5, r0, r0, lsl #26
     b8c:	000b9e00 	andeq	r9, fp, r0, lsl #28
     b90:	51012300 	mrspl	r2, SP_irq
     b94:	23440802 	movtcs	r0, #18434	; 0x4802
     b98:	74025001 	strvc	r5, [r2], #-1
     b9c:	54220000 	strtpl	r0, [r2], #-0
     ba0:	5d000086 	stcpl	0, cr0, [r0, #-536]	; 0xfffffde8
     ba4:	b8000010 	stmdalt	r0, {r4}
     ba8:	2300000b 	movwcs	r0, #11
     bac:	08025101 	stmdaeq	r2, {r0, r8, ip, lr}
     bb0:	50012359 	andpl	r2, r1, r9, asr r3
     bb4:	00007402 	andeq	r7, r0, r2, lsl #8
     bb8:	00866022 	addeq	r6, r6, r2, lsr #32
     bbc:	00105d00 	andseq	r5, r0, r0, lsl #26
     bc0:	000bd100 	andeq	sp, fp, r0, lsl #2
     bc4:	51012300 	mrspl	r2, SP_irq
     bc8:	01233a01 	teqeq	r3, r1, lsl #20
     bcc:	00740250 	rsbseq	r0, r4, r0, asr r2
     bd0:	86642400 	strbthi	r2, [r4], -r0, lsl #8
     bd4:	109d0000 	addsne	r0, sp, r0
     bd8:	68240000 	stmdavs	r4!, {}	; <UNPREDICTABLE>
     bdc:	72000086 	andvc	r0, r0, #134	; 0x86
     be0:	24000005 	strcs	r0, [r0], #-5
     be4:	0000866c 	andeq	r8, r0, ip, ror #12
     be8:	000010a4 	andeq	r1, r0, r4, lsr #1
     bec:	00867822 	addeq	r7, r6, r2, lsr #16
     bf0:	0002eb00 	andeq	lr, r2, r0, lsl #22
     bf4:	000c0800 	andeq	r0, ip, r0, lsl #16
     bf8:	51012300 	mrspl	r2, SP_irq
     bfc:	01233101 	teqeq	r3, r1, lsl #2
     c00:	6c030550 	cfstr32vs	mvfx0, [r3], {80}	; 0x50
     c04:	000000a5 	andeq	r0, r0, r5, lsr #1
     c08:	00868422 	addeq	r8, r6, r2, lsr #8
     c0c:	0002eb00 	andeq	lr, r2, r0, lsl #22
     c10:	000c2400 	andeq	r2, ip, r0, lsl #8
     c14:	51012300 	mrspl	r2, SP_irq
     c18:	01233101 	teqeq	r3, r1, lsl #2
     c1c:	80030550 	andhi	r0, r3, r0, asr r5
     c20:	000000c5 	andeq	r0, r0, r5, asr #1
     c24:	00869022 	addeq	r9, r6, r2, lsr #32
     c28:	00100100 	andseq	r0, r0, r0, lsl #2
     c2c:	000c4000 	andeq	r4, ip, r0
     c30:	51012300 	mrspl	r2, SP_irq
     c34:	01233d01 	teqeq	r3, r1, lsl #26
     c38:	400c0550 	andmi	r0, ip, r0, asr r5
     c3c:	00202150 	eoreq	r2, r0, r0, asr r1
     c40:	00869424 	addeq	r9, r6, r4, lsr #8
     c44:	000fe400 	andeq	lr, pc, r0, lsl #8
     c48:	86982400 	ldrhi	r2, [r8], r0, lsl #8
     c4c:	10400000 	subne	r0, r0, r0
     c50:	9c240000 	stcls	0, cr0, [r4], #-0
     c54:	e4000086 	str	r0, [r0], #-134	; 0x86
     c58:	2200000f 	andcs	r0, r0, #15
     c5c:	000086a4 	andeq	r8, r0, r4, lsr #13
     c60:	0000076c 	andeq	r0, r0, ip, ror #14
     c64:	00000c6f 	andeq	r0, r0, pc, ror #24
     c68:	02500123 	subseq	r0, r0, #-1073741816	; 0xc0000008
     c6c:	22005408 	andcs	r5, r0, #8, 8	; 0x8000000
     c70:	000086ac 	andeq	r8, r0, ip, lsr #13
     c74:	0000076c 	andeq	r0, r0, ip, ror #14
     c78:	00000c83 	andeq	r0, r0, r3, lsl #25
     c7c:	02500123 	subseq	r0, r0, #-1073741816	; 0xc0000008
     c80:	22005908 	andcs	r5, r0, #8, 18	; 0x20000
     c84:	000086b4 			; <UNDEFINED> instruction: 0x000086b4
     c88:	0000076c 	andeq	r0, r0, ip, ror #14
     c8c:	00000c97 	muleq	r0, r7, ip
     c90:	02500123 	subseq	r0, r0, #-1073741816	; 0xc0000008
     c94:	22005008 	andcs	r5, r0, #8
     c98:	000086bc 			; <UNDEFINED> instruction: 0x000086bc
     c9c:	0000076c 	andeq	r0, r0, ip, ror #14
     ca0:	00000cab 	andeq	r0, r0, fp, lsr #25
     ca4:	02500123 	subseq	r0, r0, #-1073741816	; 0xc0000008
     ca8:	22004508 	andcs	r4, r0, #8, 10	; 0x2000000
     cac:	000086c4 	andeq	r8, r0, r4, asr #13
     cb0:	0000076c 	andeq	r0, r0, ip, ror #14
     cb4:	00000cbf 			; <UNDEFINED> instruction: 0x00000cbf
     cb8:	02500123 	subseq	r0, r0, #-1073741816	; 0xc0000008
     cbc:	22002008 	andcs	r2, r0, #8
     cc0:	000086cc 	andeq	r8, r0, ip, asr #13
     cc4:	0000076c 	andeq	r0, r0, ip, ror #14
     cc8:	00000cd3 	ldrdeq	r0, [r0], -r3
     ccc:	02500123 	subseq	r0, r0, #-1073741816	; 0xc0000008
     cd0:	22004808 	andcs	r4, r0, #8, 16	; 0x80000
     cd4:	000086d4 	ldrdeq	r8, [r0], -r4
     cd8:	0000076c 	andeq	r0, r0, ip, ror #14
     cdc:	00000ce7 	andeq	r0, r0, r7, ror #25
     ce0:	02500123 	subseq	r0, r0, #-1073741816	; 0xc0000008
     ce4:	22004508 	andcs	r4, r0, #8, 10	; 0x2000000
     ce8:	000086dc 	ldrdeq	r8, [r0], -ip
     cec:	0000076c 	andeq	r0, r0, ip, ror #14
     cf0:	00000cfb 	strdeq	r0, [r0], -fp
     cf4:	02500123 	subseq	r0, r0, #-1073741816	; 0xc0000008
     cf8:	22005208 	andcs	r5, r0, #8, 4	; 0x80000000
     cfc:	000086e4 	andeq	r8, r0, r4, ror #13
     d00:	0000076c 	andeq	r0, r0, ip, ror #14
     d04:	00000d0f 	andeq	r0, r0, pc, lsl #26
     d08:	02500123 	subseq	r0, r0, #-1073741816	; 0xc0000008
     d0c:	22004508 	andcs	r4, r0, #8, 10	; 0x2000000
     d10:	000086ec 	andeq	r8, r0, ip, ror #13
     d14:	0000076c 	andeq	r0, r0, ip, ror #14
     d18:	00000d22 	andeq	r0, r0, r2, lsr #26
     d1c:	01500123 	cmpeq	r0, r3, lsr #2
     d20:	f024003a 			; <UNDEFINED> instruction: 0xf024003a
     d24:	e4000086 	str	r0, [r0], #-134	; 0x86
     d28:	2200000f 	andcs	r0, r0, #15
     d2c:	000086fc 	strdeq	r8, [r0], -ip
     d30:	0000105d 	andeq	r1, r0, sp, asr r0
     d34:	00000d45 	andeq	r0, r0, r5, asr #26
     d38:	02510123 	subseq	r0, r1, #-1073741816	; 0xc0000008
     d3c:	01235208 	teqeq	r3, r8, lsl #4
     d40:	00740250 	rsbseq	r0, r4, r0, asr r2
     d44:	87082200 	strhi	r2, [r8, -r0, lsl #4]
     d48:	105d0000 	subsne	r0, sp, r0
     d4c:	0d5f0000 	ldcleq	0, cr0, [pc, #-0]	; d54 <_start-0x72ac>
     d50:	01230000 	teqeq	r3, r0
     d54:	45080251 	strmi	r0, [r8, #-593]	; 0x251
     d58:	02500123 	subseq	r0, r0, #-1073741816	; 0xc0000008
     d5c:	22000074 	andcs	r0, r0, #116	; 0x74
     d60:	00008714 	andeq	r8, r0, r4, lsl r7
     d64:	0000105d 	andeq	r1, r0, sp, asr r0
     d68:	00000d79 	andeq	r0, r0, r9, ror sp
     d6c:	02510123 	subseq	r0, r1, #-1073741816	; 0xc0000008
     d70:	01234108 	teqeq	r3, r8, lsl #2
     d74:	00740250 	rsbseq	r0, r4, r0, asr r2
     d78:	87202200 	strhi	r2, [r0, -r0, lsl #4]!
     d7c:	105d0000 	subsne	r0, sp, r0
     d80:	0d930000 	ldceq	0, cr0, [r3]
     d84:	01230000 	teqeq	r3, r0
     d88:	44080251 	strmi	r0, [r8], #-593	; 0x251
     d8c:	02500123 	subseq	r0, r0, #-1073741816	; 0xc0000008
     d90:	22000074 	andcs	r0, r0, #116	; 0x74
     d94:	0000872c 	andeq	r8, r0, ip, lsr #14
     d98:	0000105d 	andeq	r1, r0, sp, asr r0
     d9c:	00000dac 	andeq	r0, r0, ip, lsr #27
     da0:	01510123 	cmpeq	r1, r3, lsr #2
     da4:	5001233a 	andpl	r2, r1, sl, lsr r3
     da8:	00007402 	andeq	r7, r0, r2, lsl #8
     dac:	00873024 	addeq	r3, r7, r4, lsr #32
     db0:	000fe400 	andeq	lr, pc, r0, lsl #8
     db4:	3f2e0000 	svccc	0x002e0000
     db8:	02000003 	andeq	r0, r0, #3
     dbc:	000dc50e 	andeq	ip, sp, lr, lsl #10
     dc0:	21500000 	cmpcs	r0, r0
     dc4:	e3040620 	movw	r0, #17952	; 0x4620
     dc8:	2e000001 	cdpcs	0, 0, cr0, cr0, cr1, {0}
     dcc:	0000011e 	andeq	r0, r0, lr, lsl r1
     dd0:	0dda0f02 	ldcleq	15, cr0, [sl, #8]
     dd4:	50040000 	andpl	r0, r4, r0
     dd8:	c5072021 	strgt	r2, [r7, #-33]	; 0x21
     ddc:	2e00000d 	cdpcs	0, 0, cr0, cr0, cr13, {0}
     de0:	0000016d 	andeq	r0, r0, sp, ror #2
     de4:	0dee1202 	sfmeq	f1, 2, [lr, #8]!
     de8:	50400000 	subpl	r0, r0, r0
     dec:	c5072021 	strgt	r2, [r7, #-33]	; 0x21
     df0:	2e00000d 	cdpcs	0, 0, cr0, cr0, cr13, {0}
     df4:	00000296 	muleq	r0, r6, r2
     df8:	0e021302 	cdpeq	3, 0, cr1, cr2, cr2, {0}
     dfc:	50440000 	subpl	r0, r4, r0
     e00:	c5072021 	strgt	r2, [r7, #-33]	; 0x21
     e04:	2e00000d 	cdpcs	0, 0, cr0, cr0, cr13, {0}
     e08:	00000317 	andeq	r0, r0, r7, lsl r3
     e0c:	0e161402 	cfmulseq	mvf1, mvf6, mvf2
     e10:	50480000 	subpl	r0, r8, r0
     e14:	c5072021 	strgt	r2, [r7, #-33]	; 0x21
     e18:	2e00000d 	cdpcs	0, 0, cr0, cr0, cr13, {0}
     e1c:	000001af 	andeq	r0, r0, pc, lsr #3
     e20:	0e2a1502 	cfsh64eq	mvdx1, mvdx10, #2
     e24:	504c0000 	subpl	r0, ip, r0
     e28:	c5072021 	strgt	r2, [r7, #-33]	; 0x21
     e2c:	2e00000d 	cdpcs	0, 0, cr0, cr0, cr13, {0}
     e30:	00000539 	andeq	r0, r0, r9, lsr r5
     e34:	0dc51602 	stcleq	6, cr1, [r5, #8]
     e38:	50500000 	subspl	r0, r0, r0
     e3c:	042e2021 	strteq	r2, [lr], #-33	; 0x21
     e40:	02000001 	andeq	r0, r0, #1
     e44:	000dc517 	andeq	ip, sp, r7, lsl r5
     e48:	21505400 	cmpcs	r0, r0, lsl #8
     e4c:	024f2e20 	subeq	r2, pc, #32, 28	; 0x200
     e50:	18020000 	stmdane	r2, {}	; <UNPREDICTABLE>
     e54:	00000dc5 	andeq	r0, r0, r5, asr #27
     e58:	20215058 	eorcs	r5, r1, r8, asr r0
     e5c:	0000322e 	andeq	r3, r0, lr, lsr #4
     e60:	c5190200 	ldrgt	r0, [r9, #-512]	; 0x200
     e64:	5c00000d 	stcpl	0, cr0, [r0], {13}
     e68:	2e202150 	mcrcs	1, 1, r2, cr0, cr0, {2}
     e6c:	0000040e 	andeq	r0, r0, lr, lsl #8
     e70:	0e7a1a02 	vaddeq.f32	s3, s20, s4
     e74:	50600000 	rsbpl	r0, r0, r0
     e78:	c5072021 	strgt	r2, [r7, #-33]	; 0x21
     e7c:	2e00000d 	cdpcs	0, 0, cr0, cr0, cr13, {0}
     e80:	00000383 	andeq	r0, r0, r3, lsl #7
     e84:	0dc51b02 	vstreq	d17, [r5, #8]
     e88:	50640000 	rsbpl	r0, r4, r0
     e8c:	922e2021 	eorls	r2, lr, #33	; 0x21
     e90:	02000001 	andeq	r0, r0, #1
     e94:	000e9d1c 	andeq	r9, lr, ip, lsl sp
     e98:	21506800 	cmpcs	r0, r0, lsl #16
     e9c:	0dc50720 	stcleq	7, cr0, [r5, #128]	; 0x80
     ea0:	7c2e0000 	stcvc	0, cr0, [lr], #-0
     ea4:	02000002 	andeq	r0, r0, #2
     ea8:	000eb11d 	andeq	fp, lr, sp, lsl r1
     eac:	00b21000 	adcseq	r1, r2, r0
     eb0:	0dc50720 	stcleq	7, cr0, [r5, #128]	; 0x80
     eb4:	892e0000 	stmdbhi	lr!, {}	; <UNPREDICTABLE>
     eb8:	02000002 	andeq	r0, r0, #2
     ebc:	000dc51e 	andeq	ip, sp, lr, lsl r5
     ec0:	00b21400 	adcseq	r1, r2, r0, lsl #8
     ec4:	014b2f20 	cmpeq	fp, r0, lsr #30
     ec8:	1f020000 	svcne	0x00020000
     ecc:	000001e3 	andeq	r0, r0, r3, ror #3
     ed0:	e5b40305 	ldr	r0, [r4, #773]!	; 0x305
     ed4:	8a2f0000 	bhi	bc0edc <__bss_end__+0xbb2514>
     ed8:	02000001 	andeq	r0, r0, #1
     edc:	00022a22 	andeq	r2, r2, r2, lsr #20
     ee0:	98030500 	stmdals	r3, {r8, sl}
     ee4:	2f0000e5 	svccs	0x000000e5
     ee8:	00000548 	andeq	r0, r0, r8, asr #10
     eec:	0ef83602 	cdpeq	6, 15, cr3, cr8, cr2, {0}
     ef0:	03050000 	movweq	r0, #20480	; 0x5000
     ef4:	0000e5b0 			; <UNDEFINED> instruction: 0x0000e5b0
     ef8:	00002511 	andeq	r2, r0, r1, lsl r5
     efc:	01132f00 	tsteq	r3, r0, lsl #30
     f00:	37020000 	strcc	r0, [r2, -r0]
     f04:	00000ef8 	strdeq	r0, [r0], -r8
     f08:	e5ac0305 	str	r0, [ip, #773]!	; 0x305
     f0c:	6b2f0000 	blvs	bc0f14 <__bss_end__+0xbb254c>
     f10:	02000002 	andeq	r0, r0, #2
     f14:	0001e838 	andeq	lr, r1, r8, lsr r8
     f18:	80030500 	andhi	r0, r3, r0, lsl #10
     f1c:	2f0000c5 	svccs	0x000000c5
     f20:	00000154 	andeq	r0, r0, r4, asr r1
     f24:	01e83902 	mvneq	r3, r2, lsl #18
     f28:	03050000 	movweq	r0, #20480	; 0x5000
     f2c:	0000a56c 	andeq	sl, r0, ip, ror #10
     f30:	000b432f 	andeq	r4, fp, pc, lsr #6
     f34:	e33a0200 	teq	sl, #0, 4
     f38:	05000001 	streq	r0, [r0, #-1]
     f3c:	00e5a803 	rsceq	sl, r5, r3, lsl #16
     f40:	03713000 	cmneq	r1, #0
     f44:	5a020000 	bpl	80f4c <__bss_end__+0x72584>
     f48:	00000065 	andeq	r0, r0, r5, rrx
     f4c:	01352f00 	teqeq	r5, r0, lsl #30
     f50:	5b020000 	blpl	80f58 <__bss_end__+0x72590>
     f54:	00000065 	andeq	r0, r0, r5, rrx
     f58:	e5940305 	ldr	r0, [r4, #773]	; 0x305
     f5c:	032f0000 	teqeq	pc, #0
     f60:	02000003 	andeq	r0, r0, #3
     f64:	000ef8ac 	andeq	pc, lr, ip, lsr #17
     f68:	a4030500 	strge	r0, [r3], #-1280	; 0x500
     f6c:	310000e5 	smlattcc	r0, r5, r0, r0
     f70:	00000492 	muleq	r0, r2, r4
     f74:	00fb8006 	rscseq	r8, fp, r6
     f78:	03050000 	movweq	r0, #20480	; 0x5000
     f7c:	0000e9c4 	andeq	lr, r0, r4, asr #19
     f80:	00047932 	andeq	r7, r4, r2, lsr r9
     f84:	931b0800 	tstls	fp, #0, 16
     f88:	9f000000 	svcls	0x00000000
     f8c:	3300000f 	movwcc	r0, #15
     f90:	00000093 	muleq	r0, r3, r0
     f94:	00002533 	andeq	r2, r0, r3, lsr r5
     f98:	002c3300 	eoreq	r3, ip, r0, lsl #6
     f9c:	34000000 	strcc	r0, [r0], #-0
     fa0:	0000017b 	andeq	r0, r0, fp, ror r1
     fa4:	10321e09 	eorsne	r1, r2, r9, lsl #28
     fa8:	09000006 	stmdbeq	r0, {r1, r2}
     fac:	00002529 	andeq	r2, r0, r9, lsr #10
     fb0:	000fbc00 	andeq	fp, pc, r0, lsl #24
     fb4:	009c3300 	addseq	r3, ip, r0, lsl #6
     fb8:	00350000 	eorseq	r0, r5, r0
     fbc:	0002a534 	andeq	sl, r2, r4, lsr r5
     fc0:	32660900 	rsbcc	r0, r6, #0, 18
     fc4:	000004bb 			; <UNDEFINED> instruction: 0x000004bb
     fc8:	0037a609 	eorseq	sl, r7, r9, lsl #12
     fcc:	0fd80000 	svceq	0x00d80000
     fd0:	d8330000 	ldmdale	r3!, {}	; <UNPREDICTABLE>
     fd4:	0000000f 	andeq	r0, r0, pc
     fd8:	0fde0406 	svceq	0x00de0406
     fdc:	e3070000 	movw	r0, #28672	; 0x7000
     fe0:	3600000f 	strcc	r0, [r0], -pc
     fe4:	00043534 	andeq	r3, r4, r4, lsr r5
     fe8:	37870900 	strcc	r0, [r7, r0, lsl #18]
     fec:	000002c0 	andeq	r0, r0, r0, asr #5
     ff0:	10011905 	andne	r1, r1, r5, lsl #18
     ff4:	37330000 	ldrcc	r0, [r3, -r0]!
     ff8:	33000000 	movwcc	r0, #0
     ffc:	000000f0 	strdeq	r0, [r0], -r0	; <UNPREDICTABLE>
    1000:	04273700 	strteq	r3, [r7], #-1792	; 0x700
    1004:	9a090000 	bls	24100c <__bss_end__+0x232644>
    1008:	00001017 	andeq	r1, r0, r7, lsl r0
    100c:	00101733 	andseq	r1, r0, r3, lsr r7
    1010:	00373300 	eorseq	r3, r7, r0, lsl #6
    1014:	06000000 	streq	r0, [r0], -r0
    1018:	000fe304 	andeq	lr, pc, r4, lsl #6
    101c:	055f3400 	ldrbeq	r3, [pc, #-1024]	; c24 <_start-0x73dc>
    1020:	320a0000 	andcc	r0, sl, #0
    1024:	00026137 	andeq	r6, r2, r7, lsr r1
    1028:	353c0900 	ldrcc	r0, [ip, #-2304]!	; 0x900
    102c:	33000010 	movwcc	r0, #16
    1030:	00000037 	andeq	r0, r0, r7, lsr r0
    1034:	013d3800 	teqeq	sp, r0, lsl #16
    1038:	44090000 	strmi	r0, [r9], #-0
    103c:	00000025 	andeq	r0, r0, r5, lsr #32
    1040:	00032634 	andeq	r2, r3, r4, lsr r6
    1044:	38310a00 	ldmdacc	r1!, {r9, fp}
    1048:	00000aca 	andeq	r0, r0, sl, asr #21
    104c:	00253b09 	eoreq	r3, r5, r9, lsl #22
    1050:	c0380000 	eorsgt	r0, r8, r0
    1054:	09000000 	stmdbeq	r0, {}	; <UNPREDICTABLE>
    1058:	00002546 	andeq	r2, r0, r6, asr #10
    105c:	025e3700 	subseq	r3, lr, #0, 14
    1060:	44070000 	strmi	r0, [r7], #-0
    1064:	00001073 	andeq	r1, r0, r3, ror r0
    1068:	00107333 	andseq	r7, r0, r3, lsr r3
    106c:	00653300 	rsbeq	r3, r5, r0, lsl #6
    1070:	06000000 	streq	r0, [r0], -r0
    1074:	00022a04 	andeq	r2, r2, r4, lsl #20
    1078:	00ac3200 	adceq	r3, ip, r0, lsl #4
    107c:	1d070000 	stcne	0, cr0, [r7, #-0]
    1080:	0000022a 	andeq	r0, r0, sl, lsr #4
    1084:	0000109d 	muleq	r0, sp, r0
    1088:	00005a33 	andeq	r5, r0, r3, lsr sl
    108c:	005a3300 	subseq	r3, sl, r0, lsl #6
    1090:	73330000 	teqvc	r3, #0
    1094:	33000000 	movwcc	r0, #0
    1098:	00000073 	andeq	r0, r0, r3, ror r0
    109c:	030e3400 	movweq	r3, #58368	; 0xe400
    10a0:	330a0000 	movwcc	r0, #40960	; 0xa000
    10a4:	00048534 	andeq	r8, r4, r4, lsr r5
    10a8:	008b0900 	addeq	r0, fp, r0, lsl #18
    10ac:	000000db 	ldrdeq	r0, [r0], -fp
    10b0:	02fe0004 	rscseq	r0, lr, #4
    10b4:	01040000 	mrseq	r0, (UNDEF: 4)
    10b8:	000003b1 			; <UNDEFINED> instruction: 0x000003b1
    10bc:	00059e01 	andeq	r9, r5, r1, lsl #28
    10c0:	0005ac00 	andeq	sl, r5, r0, lsl #24
    10c4:	00878000 	addeq	r8, r7, r0
    10c8:	00002000 	andeq	r2, r0, r0
    10cc:	00040b00 	andeq	r0, r4, r0, lsl #22
    10d0:	06010200 	streq	r0, [r1], -r0, lsl #4
    10d4:	00000365 	andeq	r0, r0, r5, ror #6
    10d8:	63080102 	movwvs	r0, #33026	; 0x8102
    10dc:	02000003 	andeq	r0, r0, #3
    10e0:	03790502 	cmneq	r9, #8388608	; 0x800000
    10e4:	02020000 	andeq	r0, r2, #0
    10e8:	00022e07 	andeq	r2, r2, r7, lsl #28
    10ec:	05040300 	streq	r0, [r4, #-768]	; 0x300
    10f0:	00746e69 	rsbseq	r6, r4, r9, ror #28
    10f4:	64070402 	strvs	r0, [r7], #-1026	; 0x402
    10f8:	02000000 	andeq	r0, r0, #0
    10fc:	009e0508 	addseq	r0, lr, r8, lsl #10
    1100:	08020000 	stmdaeq	r2, {}	; <UNPREDICTABLE>
    1104:	00005a07 	andeq	r5, r0, r7, lsl #20
    1108:	05040200 	streq	r0, [r4, #-512]	; 0x200
    110c:	000000a3 	andeq	r0, r0, r3, lsr #1
    1110:	b7070402 	strlt	r0, [r7, -r2, lsl #8]
    1114:	04000002 	streq	r0, [r0], #-2
    1118:	07040204 	streq	r0, [r4, -r4, lsl #4]
    111c:	0000005f 	andeq	r0, r0, pc, asr r0
    1120:	007a0405 	rsbseq	r0, sl, r5, lsl #8
    1124:	01020000 	mrseq	r0, (UNDEF: 2)
    1128:	00036c08 	andeq	r6, r3, r8, lsl #24
    112c:	000e0600 	andeq	r0, lr, r0, lsl #12
    1130:	d4020000 	strle	r0, [r2], #-0
    1134:	00000048 	andeq	r0, r0, r8, asr #32
    1138:	00047907 	andeq	r7, r4, r7, lsl #18
    113c:	6b1b0300 	blvs	6c1d44 <__bss_end__+0x6b337c>
    1140:	80000000 	andhi	r0, r0, r0
    1144:	20000087 	andcs	r0, r0, r7, lsl #1
    1148:	01000000 	mrseq	r0, (UNDEF: 0)
    114c:	705f089c 			; <UNDEFINED> instruction: 0x705f089c
    1150:	6b030100 	blvs	c1558 <__bss_end__+0xb2b90>
    1154:	01000000 	mrseq	r0, (UNDEF: 0)
    1158:	00630850 	rsbeq	r0, r3, r0, asr r8
    115c:	00410301 	subeq	r0, r1, r1, lsl #6
    1160:	51010000 	mrspl	r0, (UNDEF: 1)
    1164:	01006e09 	tsteq	r0, r9, lsl #28
    1168:	00008103 	andeq	r8, r0, r3, lsl #2
    116c:	00041900 	andeq	r1, r4, r0, lsl #18
    1170:	00700a00 	rsbseq	r0, r0, r0, lsl #20
    1174:	00740401 	rsbseq	r0, r4, r1, lsl #8
    1178:	043a0000 	ldrteq	r0, [sl], #-0
    117c:	650b0000 	strvs	r0, [fp, #-0]
    1180:	74040100 	strvc	r0, [r4], #-256	; 0x100
    1184:	01000000 	mrseq	r0, (UNDEF: 0)
    1188:	91000052 	qaddls	r0, r2, r0
    118c:	04000001 	streq	r0, [r0], #-1
    1190:	00039b00 	andeq	r9, r3, r0, lsl #22
    1194:	b1010400 	tstlt	r1, r0, lsl #8
    1198:	01000003 	tsteq	r0, r3
    119c:	000005ff 	strdeq	r0, [r0], -pc	; <UNPREDICTABLE>
    11a0:	000005ac 	andeq	r0, r0, ip, lsr #11
    11a4:	000087a0 	andeq	r8, r0, r0, lsr #15
    11a8:	00000058 	andeq	r0, r0, r8, asr r0
    11ac:	000004fb 	strdeq	r0, [r0], -fp
    11b0:	0005f002 	andeq	pc, r5, r2
    11b4:	30280200 	eorcc	r0, r8, r0, lsl #4
    11b8:	03000000 	movweq	r0, #0
    11bc:	00000617 	andeq	r0, r0, r7, lsl r6
    11c0:	47000304 	strmi	r0, [r0, -r4, lsl #6]
    11c4:	04000000 	streq	r0, [r0], #-0
    11c8:	00000626 	andeq	r0, r0, r6, lsr #12
    11cc:	00000047 	andeq	r0, r0, r7, asr #32
    11d0:	04050000 	streq	r0, [r5], #-0
    11d4:	00061902 	andeq	r1, r6, r2, lsl #18
    11d8:	25620200 	strbcs	r0, [r2, #-512]!	; 0x200
    11dc:	06000000 	streq	r0, [r0], -r0
    11e0:	6e690504 	cdpvs	5, 6, cr0, cr9, cr4, {0}
    11e4:	04070074 	streq	r0, [r7], #-116	; 0x74
    11e8:	00006407 	andeq	r6, r0, r7, lsl #8
    11ec:	06010700 	streq	r0, [r1], -r0, lsl #14
    11f0:	00000365 	andeq	r0, r0, r5, ror #6
    11f4:	79050207 	stmdbvc	r5, {r0, r1, r2, r9}
    11f8:	07000003 	streq	r0, [r0, -r3]
    11fc:	00a30504 	adceq	r0, r3, r4, lsl #10
    1200:	08070000 	stmdaeq	r7, {}	; <UNPREDICTABLE>
    1204:	00009e05 	andeq	r9, r0, r5, lsl #28
    1208:	08010700 	stmdaeq	r1, {r8, r9, sl}
    120c:	00000363 	andeq	r0, r0, r3, ror #6
    1210:	2e070207 	cdpcs	2, 0, cr0, cr7, cr7, {0}
    1214:	07000002 	streq	r0, [r0, -r2]
    1218:	005f0704 	subseq	r0, pc, r4, lsl #14
    121c:	08070000 	stmdaeq	r7, {}	; <UNPREDICTABLE>
    1220:	00005a07 	andeq	r5, r0, r7, lsl #20
    1224:	07040700 	streq	r0, [r4, -r0, lsl #14]
    1228:	000002b7 			; <UNDEFINED> instruction: 0x000002b7
    122c:	00a70408 	adceq	r0, r7, r8, lsl #8
    1230:	01070000 	mrseq	r0, (UNDEF: 7)
    1234:	00036c08 	andeq	r6, r3, r8, lsl #24
    1238:	b4040800 	strlt	r0, [r4], #-2048	; 0x800
    123c:	09000000 	stmdbeq	r0, {}	; <UNPREDICTABLE>
    1240:	000000a7 	andeq	r0, r0, r7, lsr #1
    1244:	0006100a 	andeq	r1, r6, sl
    1248:	54060100 	strpl	r0, [r6], #-256	; 0x100
    124c:	a0000000 	andge	r0, r0, r0
    1250:	58000087 	stmdapl	r0, {r0, r1, r2, r7}
    1254:	01000000 	mrseq	r0, (UNDEF: 0)
    1258:	0001439c 	muleq	r1, ip, r3
    125c:	6d660b00 	vstmdbvs	r6!, {d16-d15}
    1260:	06010074 			; <UNDEFINED> instruction: 0x06010074
    1264:	000000ae 	andeq	r0, r0, lr, lsr #1
    1268:	0c709102 	ldfeqp	f1, [r0], #-8
    126c:	6675620d 	ldrbtvs	r6, [r5], -sp, lsl #4
    1270:	43080100 	movwmi	r0, #33024	; 0x8100
    1274:	05000001 	streq	r0, [r0, #-1]
    1278:	00e5b803 	rsceq	fp, r5, r3, lsl #16
    127c:	06210e00 	strteq	r0, [r1], -r0, lsl #28
    1280:	09010000 	stmdbeq	r1, {}	; <UNPREDICTABLE>
    1284:	00000049 	andeq	r0, r0, r9, asr #32
    1288:	0f5c9102 	svceq	0x005c9102
    128c:	01007a73 	tsteq	r0, r3, ror sl
    1290:	0000540c 	andeq	r5, r0, ip, lsl #8
    1294:	00046500 	andeq	r6, r4, r0, lsl #10
    1298:	87c81000 	strbhi	r1, [r8, r0]
    129c:	01740000 	cmneq	r4, r0
    12a0:	01360000 	teqeq	r6, r0
    12a4:	01110000 	tsteq	r1, r0
    12a8:	4c910253 	lfmmi	f0, 4, [r1], {83}	; 0x53
    12ac:	03520111 	cmpeq	r2, #1073741828	; 0x40000004
    12b0:	11064891 			; <UNDEFINED> instruction: 0x11064891
    12b4:	0a035101 	beq	d56c0 <__bss_end__+0xc6cf8>
    12b8:	01110400 	tsteq	r1, r0, lsl #8
    12bc:	00740250 	rsbseq	r0, r4, r0, asr r2
    12c0:	87dc1200 	ldrbhi	r1, [ip, r0, lsl #4]
    12c4:	01110000 	tsteq	r1, r0
    12c8:	00740250 	rsbseq	r0, r4, r0, asr r2
    12cc:	a7130000 	ldrge	r0, [r3, -r0]
    12d0:	54000000 	strpl	r0, [r0], #-0
    12d4:	14000001 	strne	r0, [r0], #-1
    12d8:	0000009a 	muleq	r0, sl, r0
    12dc:	150003ff 	strne	r0, [r0, #-1023]	; 0x3ff
    12e0:	00000054 	andeq	r0, r0, r4, asr r0
    12e4:	00000163 	andeq	r0, r0, r3, ror #2
    12e8:	0000ae16 	andeq	sl, r0, r6, lsl lr
    12ec:	79170000 	ldmdbvc	r7, {}	; <UNPREDICTABLE>
    12f0:	04000006 	streq	r0, [r0], #-6
    12f4:	00016e22 	andeq	r6, r1, r2, lsr #28
    12f8:	54040800 	strpl	r0, [r4], #-2048	; 0x800
    12fc:	18000001 	stmdane	r0, {r0}
    1300:	0000060d 	andeq	r0, r0, sp, lsl #12
    1304:	00540205 	subseq	r0, r4, r5, lsl #4
    1308:	a1160000 	tstge	r6, r0
    130c:	16000000 	strne	r0, [r0], -r0
    1310:	00000054 	andeq	r0, r0, r4, asr r0
    1314:	0000ae16 	andeq	sl, r0, r6, lsl lr
    1318:	00491600 	subeq	r1, r9, r0, lsl #12
    131c:	00000000 	andeq	r0, r0, r0
    1320:	00000113 	andeq	r0, r0, r3, lsl r1
    1324:	04cc0004 	strbeq	r0, [ip], #4
    1328:	01040000 	mrseq	r0, (UNDEF: 4)
    132c:	000003b1 			; <UNDEFINED> instruction: 0x000003b1
    1330:	00064801 	andeq	r4, r6, r1, lsl #16
    1334:	0005ac00 	andeq	sl, r5, r0, lsl #24
    1338:	0087f800 	addeq	pc, r7, r0, lsl #16
    133c:	00003c00 	andeq	r3, r0, r0, lsl #24
    1340:	00060100 	andeq	r0, r6, r0, lsl #2
    1344:	05040200 	streq	r0, [r4, #-512]	; 0x200
    1348:	00746e69 	rsbseq	r6, r4, r9, ror #28
    134c:	64070403 	strvs	r0, [r7], #-1027	; 0x403
    1350:	03000000 	movweq	r0, #0
    1354:	03650601 	cmneq	r5, #1048576	; 0x100000
    1358:	02030000 	andeq	r0, r3, #0
    135c:	00037905 	andeq	r7, r3, r5, lsl #18
    1360:	05040300 	streq	r0, [r4, #-768]	; 0x300
    1364:	000000a3 	andeq	r0, r0, r3, lsr #1
    1368:	9e050803 	cdpls	8, 0, cr0, cr5, cr3, {0}
    136c:	03000000 	movweq	r0, #0
    1370:	03630801 	cmneq	r3, #65536	; 0x10000
    1374:	02030000 	andeq	r0, r3, #0
    1378:	00022e07 	andeq	r2, r2, r7, lsl #28
    137c:	07040300 	streq	r0, [r4, -r0, lsl #6]
    1380:	0000005f 	andeq	r0, r0, pc, asr r0
    1384:	5a070803 	bpl	1c3398 <__bss_end__+0x1b49d0>
    1388:	03000000 	movweq	r0, #0
    138c:	02b70704 	adcseq	r0, r7, #4, 14	; 0x100000
    1390:	01030000 	mrseq	r0, (UNDEF: 3)
    1394:	00036c08 	andeq	r6, r3, r8, lsl #24
    1398:	062b0400 	strteq	r0, [fp], -r0, lsl #8
    139c:	03010000 	movweq	r0, #4096	; 0x1000
    13a0:	00000025 	andeq	r0, r0, r5, lsr #32
    13a4:	000087f8 	strdeq	r8, [r0], -r8	; <UNPREDICTABLE>
    13a8:	00000014 	andeq	r0, r0, r4, lsl r0
    13ac:	00b09c01 	adcseq	r9, r0, r1, lsl #24
    13b0:	63050000 	movwvs	r0, #20480	; 0x5000
    13b4:	25030100 	strcs	r0, [r3, #-256]	; 0x100
    13b8:	8e000000 	cdphi	0, 0, cr0, cr0, cr0, {0}
    13bc:	06000004 	streq	r0, [r0], -r4
    13c0:	00008804 	andeq	r8, r0, r4, lsl #16
    13c4:	00000109 	andeq	r0, r0, r9, lsl #2
    13c8:	02500107 	subseq	r0, r0, #-1073741823	; 0xc0000001
    13cc:	00000074 	andeq	r0, r0, r4, ror r0
    13d0:	00017b08 	andeq	r7, r1, r8, lsl #22
    13d4:	0c080100 	stfeqs	f0, [r8], {-0}
    13d8:	18000088 	stmdane	r0, {r3, r7}
    13dc:	01000000 	mrseq	r0, (UNDEF: 0)
    13e0:	0657099c 			; <UNDEFINED> instruction: 0x0657099c
    13e4:	0b010000 	bleq	413ec <__bss_end__+0x32a24>
    13e8:	00008824 	andeq	r8, r0, r4, lsr #16
    13ec:	00000010 	andeq	r0, r0, r0, lsl r0
    13f0:	00e39c01 	rsceq	r9, r3, r1, lsl #24
    13f4:	660a0000 	strvs	r0, [sl], -r0
    13f8:	0b010070 	bleq	415c0 <__bss_end__+0x32bf8>
    13fc:	000000f2 	strdeq	r0, [r0], -r2
    1400:	0b005001 	bleq	1540c <__bss_end__+0x6a44>
    1404:	00000025 	andeq	r0, r0, r5, lsr #32
    1408:	000000f2 	strdeq	r0, [r0], -r2
    140c:	0000250c 	andeq	r2, r0, ip, lsl #10
    1410:	040d0000 	streq	r0, [sp], #-0
    1414:	000000e3 	andeq	r0, r0, r3, ror #1
    1418:	00063c0e 	andeq	r3, r6, lr, lsl #24
    141c:	f2060100 	vrhadd.s8	d0, d6, d0
    1420:	05000000 	streq	r0, [r0, #-0]
    1424:	00a01003 	adceq	r1, r0, r3
    1428:	02610f00 	rsbeq	r0, r1, #0, 30
    142c:	3c020000 	stccc	0, cr0, [r2], {-0}
    1430:	00002c0c 	andeq	r2, r0, ip, lsl #24
    1434:	ee000000 	cdp	0, 0, cr0, cr0, cr0, {0}
    1438:	04000000 	streq	r0, [r0], #-0
    143c:	0005b400 	andeq	fp, r5, r0, lsl #8
    1440:	b1010400 	tstlt	r1, r0, lsl #8
    1444:	01000003 	tsteq	r0, r3
    1448:	00000664 	andeq	r0, r0, r4, ror #12
    144c:	000005ac 	andeq	r0, r0, ip, lsr #11
    1450:	00008834 	andeq	r8, r0, r4, lsr r8
    1454:	00000034 	andeq	r0, r0, r4, lsr r0
    1458:	0000068f 	andeq	r0, r0, pc, lsl #13
    145c:	69050402 	stmdbvs	r5, {r1, sl}
    1460:	0300746e 	movweq	r7, #1134	; 0x46e
    1464:	00640704 	rsbeq	r0, r4, r4, lsl #14
    1468:	01030000 	mrseq	r0, (UNDEF: 3)
    146c:	00036506 	andeq	r6, r3, r6, lsl #10
    1470:	05020300 	streq	r0, [r2, #-768]	; 0x300
    1474:	00000379 	andeq	r0, r0, r9, ror r3
    1478:	a3050403 	movwge	r0, #21507	; 0x5403
    147c:	03000000 	movweq	r0, #0
    1480:	009e0508 	addseq	r0, lr, r8, lsl #10
    1484:	01030000 	mrseq	r0, (UNDEF: 3)
    1488:	00036308 	andeq	r6, r3, r8, lsl #6
    148c:	07020300 	streq	r0, [r2, -r0, lsl #6]
    1490:	0000022e 	andeq	r0, r0, lr, lsr #4
    1494:	5f070403 	svcpl	0x00070403
    1498:	03000000 	movweq	r0, #0
    149c:	005a0708 	subseq	r0, sl, r8, lsl #14
    14a0:	04030000 	streq	r0, [r3], #-0
    14a4:	0002b707 	andeq	fp, r2, r7, lsl #14
    14a8:	08010300 	stmdaeq	r1, {r8, r9}
    14ac:	0000036c 	andeq	r0, r0, ip, ror #6
    14b0:	007f0404 	rsbseq	r0, pc, r4, lsl #8
    14b4:	72050000 	andvc	r0, r5, #0
    14b8:	06000000 	streq	r0, [r0], -r0
    14bc:	00000670 	andeq	r0, r0, r0, ror r6
    14c0:	00250401 	eoreq	r0, r5, r1, lsl #8
    14c4:	88340000 	ldmdahi	r4!, {}	; <UNPREDICTABLE>
    14c8:	00340000 	eorseq	r0, r4, r0
    14cc:	9c010000 	stcls	0, cr0, [r1], {-0}
    14d0:	000000ab 	andeq	r0, r0, fp, lsr #1
    14d4:	01007007 	tsteq	r0, r7
    14d8:	00007904 	andeq	r7, r0, r4, lsl #18
    14dc:	0004ac00 	andeq	sl, r4, r0, lsl #24
    14e0:	25080000 	strcs	r0, [r8, #-0]
    14e4:	ba000000 	blt	14ec <_start-0x6b14>
    14e8:	09000000 	stmdbeq	r0, {}	; <UNPREDICTABLE>
    14ec:	00000025 	andeq	r0, r0, r5, lsr #32
    14f0:	063c0a00 	ldrteq	r0, [ip], -r0, lsl #20
    14f4:	1d020000 	stcne	0, cr0, [r2, #-0]
    14f8:	000000c5 	andeq	r0, r0, r5, asr #1
    14fc:	00ab0404 	adceq	r0, fp, r4, lsl #8
    1500:	25080000 	strcs	r0, [r8, #-0]
    1504:	da000000 	ble	150c <_start-0x6af4>
    1508:	09000000 	stmdbeq	r0, {}	; <UNPREDICTABLE>
    150c:	00000079 	andeq	r0, r0, r9, ror r0
    1510:	06790b00 	ldrbteq	r0, [r9], -r0, lsl #22
    1514:	0c010000 	stceq	0, cr0, [r1], {-0}
    1518:	000000eb 	andeq	r0, r0, fp, ror #1
    151c:	a0140305 	andsge	r0, r4, r5, lsl #6
    1520:	04040000 	streq	r0, [r4], #-0
    1524:	000000cb 	andeq	r0, r0, fp, asr #1
    1528:	00068100 	andeq	r8, r6, r0, lsl #2
    152c:	4d000400 	cfstrsmi	mvf0, [r0, #-0]
    1530:	04000006 	streq	r0, [r0], #-6
    1534:	0003b101 	andeq	fp, r3, r1, lsl #2
    1538:	06aa0100 	strteq	r0, [sl], r0, lsl #2
    153c:	05ac0000 	streq	r0, [ip, #0]!
    1540:	88680000 	stmdahi	r8!, {}^	; <UNPREDICTABLE>
    1544:	04f80000 	ldrbteq	r0, [r8], #0
    1548:	07290000 	streq	r0, [r9, -r0]!
    154c:	04020000 	streq	r0, [r2], #-0
    1550:	746e6905 	strbtvc	r6, [lr], #-2309	; 0x905
    1554:	07040300 	streq	r0, [r4, -r0, lsl #6]
    1558:	00000064 	andeq	r0, r0, r4, rrx
    155c:	65060103 	strvs	r0, [r6, #-259]	; 0x103
    1560:	03000003 	movweq	r0, #3
    1564:	03790502 	cmneq	r9, #8388608	; 0x800000
    1568:	04030000 	streq	r0, [r3], #-0
    156c:	0000a305 	andeq	sl, r0, r5, lsl #6
    1570:	05080300 	streq	r0, [r8, #-768]	; 0x300
    1574:	0000009e 	muleq	r0, lr, r0
    1578:	63080103 	movwvs	r0, #33027	; 0x8103
    157c:	03000003 	movweq	r0, #3
    1580:	022e0702 	eoreq	r0, lr, #524288	; 0x80000
    1584:	04030000 	streq	r0, [r3], #-0
    1588:	00005f07 	andeq	r5, r0, r7, lsl #30
    158c:	07080300 	streq	r0, [r8, -r0, lsl #6]
    1590:	0000005a 	andeq	r0, r0, sl, asr r0
    1594:	b7070403 	strlt	r0, [r7, -r3, lsl #8]
    1598:	04000002 	streq	r0, [r0], #-2
    159c:	7a040504 	bvc	1029b4 <__bss_end__+0xf3fec>
    15a0:	03000000 	movweq	r0, #0
    15a4:	036c0801 	cmneq	ip, #65536	; 0x10000
    15a8:	04050000 	streq	r0, [r5], #-0
    15ac:	00000087 	andeq	r0, r0, r7, lsl #1
    15b0:	00007a06 	andeq	r7, r0, r6, lsl #20
    15b4:	05f00700 	ldrbeq	r0, [r0, #1792]!	; 0x700
    15b8:	28020000 	stmdacs	r2, {}	; <UNPREDICTABLE>
    15bc:	00000097 	muleq	r0, r7, r0
    15c0:	00061708 	andeq	r1, r6, r8, lsl #14
    15c4:	00040400 	andeq	r0, r4, r0, lsl #8
    15c8:	000000ae 	andeq	r0, r0, lr, lsr #1
    15cc:	00062609 	andeq	r2, r6, r9, lsl #12
    15d0:	00007200 	andeq	r7, r0, r0, lsl #4
    15d4:	07000000 	streq	r0, [r0, -r0]
    15d8:	00000619 	andeq	r0, r0, r9, lsl r6
    15dc:	008c6202 	addeq	r6, ip, r2, lsl #4
    15e0:	8c0a0000 	stchi	0, cr0, [sl], {-0}
    15e4:	01000006 	tsteq	r0, r6
    15e8:	00002527 	andeq	r2, r0, r7, lsr #10
    15ec:	00886800 	addeq	r6, r8, r0, lsl #16
    15f0:	00001400 	andeq	r1, r0, r0, lsl #8
    15f4:	e09c0100 	adds	r0, ip, r0, lsl #2
    15f8:	0b000000 	bleq	1600 <_start-0x6a00>
    15fc:	27010063 	strcs	r0, [r1, -r3, rrx]
    1600:	00000025 	andeq	r0, r0, r5, lsr #32
    1604:	000004ca 	andeq	r0, r0, sl, asr #9
    1608:	61700c00 	cmnvs	r0, r0, lsl #24
    160c:	2e010064 	cdpcs	0, 0, cr0, cr1, cr4, {3}
    1610:	00000074 	andeq	r0, r0, r4, ror r0
    1614:	0000887c 	andeq	r8, r0, ip, ror r8
    1618:	0000002c 	andeq	r0, r0, ip, lsr #32
    161c:	01309c01 	teqeq	r0, r1, lsl #24
    1620:	700b0000 	andvc	r0, fp, r0
    1624:	742e0100 	strtvc	r0, [lr], #-256	; 0x100
    1628:	f8000000 			; <UNDEFINED> instruction: 0xf8000000
    162c:	0d000004 	stceq	0, cr0, [r0, #-16]
    1630:	0000069c 	muleq	r0, ip, r6
    1634:	00742e01 	rsbseq	r2, r4, r1, lsl #28
    1638:	05230000 	streq	r0, [r3, #-0]!
    163c:	ca0e0000 	bgt	381644 <__bss_end__+0x372c7c>
    1640:	01000006 	tsteq	r0, r6
    1644:	0000252e 	andeq	r2, r0, lr, lsr #10
    1648:	0f520100 	svceq	0x00520100
    164c:	006e656c 	rsbeq	r6, lr, ip, ror #10
    1650:	00252f01 	eoreq	r2, r5, r1, lsl #30
    1654:	51010000 	mrspl	r0, (UNDEF: 1)
    1658:	06840a00 	streq	r0, [r4], r0, lsl #20
    165c:	37010000 	strcc	r0, [r1, -r0]
    1660:	00000074 	andeq	r0, r0, r4, ror r0
    1664:	000088a8 	andeq	r8, r0, r8, lsr #17
    1668:	00000040 	andeq	r0, r0, r0, asr #32
    166c:	019c9c01 	orrseq	r9, ip, r1, lsl #24
    1670:	640b0000 	strvs	r0, [fp], #-0
    1674:	01007473 	tsteq	r0, r3, ror r4
    1678:	00007437 	andeq	r7, r0, r7, lsr r4
    167c:	00054400 	andeq	r4, r5, r0, lsl #8
    1680:	006e0b00 	rsbeq	r0, lr, r0, lsl #22
    1684:	00253701 	eoreq	r3, r5, r1, lsl #14
    1688:	057c0000 	ldrbeq	r0, [ip, #-0]!
    168c:	700b0000 	andvc	r0, fp, r0
    1690:	74370100 	ldrtvc	r0, [r7], #-256	; 0x100
    1694:	9d000000 	stcls	0, cr0, [r0, #-0]
    1698:	0d000005 	stceq	0, cr0, [r0, #-20]	; 0xffffffec
    169c:	0000079c 	muleq	r0, ip, r7
    16a0:	00743701 	rsbseq	r3, r4, r1, lsl #14
    16a4:	05d30000 	ldrbeq	r0, [r3]
    16a8:	6c100000 	ldcvs	0, cr0, [r0], {-0}
    16ac:	01006e65 	tsteq	r0, r5, ror #28
    16b0:	00002539 	andeq	r2, r0, r9, lsr r5
    16b4:	0005f100 	andeq	pc, r5, r0, lsl #2
    16b8:	00730f00 	rsbseq	r0, r3, r0, lsl #30
    16bc:	00743d01 	rsbseq	r3, r4, r1, lsl #26
    16c0:	50010000 	andpl	r0, r1, r0
    16c4:	06d80a00 	ldrbeq	r0, [r8], r0, lsl #20
    16c8:	47010000 	strmi	r0, [r1, -r0]
    16cc:	00000074 	andeq	r0, r0, r4, ror r0
    16d0:	000088e8 	andeq	r8, r0, r8, ror #17
    16d4:	0000019c 	muleq	r0, ip, r1
    16d8:	02d39c01 	sbcseq	r9, r3, #256	; 0x100
    16dc:	9c0d0000 	stcls	0, cr0, [sp], {-0}
    16e0:	01000006 	tsteq	r0, r6
    16e4:	00002c47 	andeq	r2, r0, r7, asr #24
    16e8:	00061800 	andeq	r1, r6, r0, lsl #16
    16ec:	73640b00 	cmnvc	r4, #0, 22
    16f0:	47010074 	smlsdxmi	r1, r4, r0, r0
    16f4:	00000074 	andeq	r0, r0, r4, ror r0
    16f8:	00000646 	andeq	r0, r0, r6, asr #12
    16fc:	01006e0b 	tsteq	r0, fp, lsl #28
    1700:	00002547 	andeq	r2, r0, r7, asr #10
    1704:	0006b400 	andeq	fp, r6, r0, lsl #8
    1708:	61760b00 	cmnvs	r6, r0, lsl #22
    170c:	4701006c 	strmi	r0, [r1, -ip, rrx]
    1710:	00000025 	andeq	r0, r0, r5, lsr #32
    1714:	000006e0 	andeq	r0, r0, r0, ror #13
    1718:	0006ca0d 	andeq	ip, r6, sp, lsl #20
    171c:	25470100 	strbcs	r0, [r7, #-256]	; 0x100
    1720:	5f000000 	svcpl	0x00000000
    1724:	0e000007 	cdpeq	0, 0, cr0, cr0, cr7, {0}
    1728:	000006a1 	andeq	r0, r0, r1, lsr #13
    172c:	00254701 	eoreq	r4, r5, r1, lsl #14
    1730:	91020000 	mrsls	r0, (UNDEF: 2)
    1734:	75620f04 	strbvc	r0, [r2, #-3844]!	; 0xf04
    1738:	4c010066 	stcmi	0, cr0, [r1], {102}	; 0x66
    173c:	000002d3 	ldrdeq	r0, [r0], -r3
    1740:	7fa89103 	svcvc	0x00a89103
    1744:	01007010 	tsteq	r0, r0, lsl r0
    1748:	0000744c 	andeq	r7, r0, ip, asr #8
    174c:	00078900 	andeq	r8, r7, r0, lsl #18
    1750:	00751000 	rsbseq	r1, r5, r0
    1754:	002c4d01 	eoreq	r4, ip, r1, lsl #26
    1758:	082e0000 	stmdaeq	lr!, {}	; <UNPREDICTABLE>
    175c:	a2110000 	andsge	r0, r1, #0
    1760:	f3000001 	vhadd.u8	d0, d0, d1
    1764:	05000002 	streq	r0, [r0, #-2]
    1768:	00a19c03 	adceq	r9, r1, r3, lsl #24
    176c:	89541200 	ldmdbhi	r4, {r9, ip}^
    1770:	00740000 	rsbseq	r0, r4, r0
    1774:	02610000 	rsbeq	r0, r1, #0
    1778:	7e130000 	cdpvc	0, 1, cr0, cr3, cr0, {0}
    177c:	01000006 	tsteq	r0, r6
    1780:	00002c52 	andeq	r2, r0, r2, asr ip
    1784:	00093300 	andeq	r3, r9, r0, lsl #6
    1788:	28140000 	ldmdacs	r4, {}	; <UNPREDICTABLE>
    178c:	6000008a 	andvs	r0, r0, sl, lsl #1
    1790:	15000006 	strne	r0, [r0, #-6]
    1794:	00008a3c 	andeq	r8, r0, ip, lsr sl
    1798:	00000667 	andeq	r0, r0, r7, ror #12
    179c:	00000299 	muleq	r0, r9, r2
    17a0:	02530116 	subseq	r0, r3, #-2147483643	; 0x80000005
    17a4:	01167508 	tsteq	r6, r8, lsl #10
    17a8:	9c030552 	cfstr32ls	mvfx0, [r3], {82}	; 0x52
    17ac:	160000a1 	strne	r0, [r0], -r1, lsr #1
    17b0:	03055101 	movweq	r5, #20737	; 0x5101
    17b4:	0000a1d4 	ldrdeq	sl, [r0], -r4
    17b8:	05500116 	ldrbeq	r0, [r0, #-278]	; 0x116
    17bc:	00a1c003 	adceq	ip, r1, r3
    17c0:	40140000 	andsmi	r0, r4, r0
    17c4:	7d00008a 	stcvc	0, cr0, [r0, #-552]	; 0xfffffdd8
    17c8:	15000006 	strne	r0, [r0, #-6]
    17cc:	00008a4c 	andeq	r8, r0, ip, asr #20
    17d0:	000000e0 	andeq	r0, r0, r0, ror #1
    17d4:	000002b6 			; <UNDEFINED> instruction: 0x000002b6
    17d8:	02510116 	subseq	r0, r1, #-2147483643	; 0x80000005
    17dc:	1700007d 	smlsdxne	r0, sp, r0, r0
    17e0:	00008a60 	andeq	r8, r0, r0, ror #20
    17e4:	00000130 	andeq	r0, r0, r0, lsr r1
    17e8:	02530116 	subseq	r0, r3, #-2147483643	; 0x80000005
    17ec:	0116007d 	tsteq	r6, sp, ror r0
    17f0:	00740251 	rsbseq	r0, r4, r1, asr r2
    17f4:	02500116 	subseq	r0, r0, #-2147483643	; 0x80000005
    17f8:	00000075 	andeq	r0, r0, r5, ror r0
    17fc:	00007a18 	andeq	r7, r0, r8, lsl sl
    1800:	0002e300 	andeq	lr, r2, r0, lsl #6
    1804:	006b1900 	rsbeq	r1, fp, r0, lsl #18
    1808:	003f0000 	eorseq	r0, pc, r0
    180c:	00007a18 	andeq	r7, r0, r8, lsl sl
    1810:	0002f300 	andeq	pc, r2, r0, lsl #6
    1814:	006b1900 	rsbeq	r1, fp, r0, lsl #18
    1818:	00040000 	andeq	r0, r4, r0
    181c:	0002e306 	andeq	lr, r2, r6, lsl #6
    1820:	06bb1a00 	ldrteq	r1, [fp], r0, lsl #20
    1824:	1f010000 	svcne	0x00010000
    1828:	00008a84 	andeq	r8, r0, r4, lsl #21
    182c:	00000054 	andeq	r0, r0, r4, asr r0
    1830:	037c9c01 	cmneq	ip, #256	; 0x100
    1834:	d00d0000 	andle	r0, sp, r0
    1838:	01000006 	tsteq	r0, r6
    183c:	00038b1f 	andeq	r8, r3, pc, lsl fp
    1840:	00095f00 	andeq	r5, r9, r0, lsl #30
    1844:	06940d00 	ldreq	r0, [r4], r0, lsl #26
    1848:	1f010000 	svcne	0x00010000
    184c:	000003a0 	andeq	r0, r0, r0, lsr #7
    1850:	0000098b 	andeq	r0, r0, fp, lsl #19
    1854:	0001a211 	andeq	sl, r1, r1, lsl r2
    1858:	0003b600 	andeq	fp, r3, r0, lsl #12
    185c:	a4030500 	strge	r0, [r3], #-1280	; 0x500
    1860:	140000a1 	strne	r0, [r0], #-161	; 0xa1
    1864:	00008a94 	muleq	r0, r4, sl
    1868:	00000660 	andeq	r0, r0, r0, ror #12
    186c:	008aa815 	addeq	sl, sl, r5, lsl r8
    1870:	00066700 	andeq	r6, r6, r0, lsl #14
    1874:	00037200 	andeq	r7, r3, r0, lsl #4
    1878:	53011600 	movwpl	r1, #5632	; 0x1600
    187c:	16200802 	strtne	r0, [r0], -r2, lsl #16
    1880:	03055201 	movweq	r5, #20993	; 0x5201
    1884:	0000a1a4 	andeq	sl, r0, r4, lsr #3
    1888:	05510116 	ldrbeq	r0, [r1, #-278]	; 0x116
    188c:	00a1d403 	adceq	sp, r1, r3, lsl #8
    1890:	50011600 	andpl	r1, r1, r0, lsl #12
    1894:	a20c0305 	andge	r0, ip, #335544320	; 0x14000000
    1898:	14000000 	strne	r0, [r0], #-0
    189c:	00008aac 	andeq	r8, r0, ip, lsr #21
    18a0:	0000067d 	andeq	r0, r0, sp, ror r6
    18a4:	00251b00 	eoreq	r1, r5, r0, lsl #22
    18a8:	038b0000 	orreq	r0, fp, #0
    18ac:	251c0000 	ldrcs	r0, [ip, #-0]
    18b0:	00000000 	andeq	r0, r0, r0
    18b4:	037c0405 	cmneq	ip, #83886080	; 0x5000000
    18b8:	251b0000 	ldrcs	r0, [fp, #-0]
    18bc:	a0000000 	andge	r0, r0, r0
    18c0:	1c000003 	stcne	0, cr0, [r0], {3}
    18c4:	00000081 	andeq	r0, r0, r1, lsl #1
    18c8:	91040500 	tstls	r4, r0, lsl #10
    18cc:	18000003 	stmdane	r0, {r0, r1}
    18d0:	0000007a 	andeq	r0, r0, sl, ror r0
    18d4:	000003b6 			; <UNDEFINED> instruction: 0x000003b6
    18d8:	00006b19 	andeq	r6, r0, r9, lsl fp
    18dc:	06000e00 	streq	r0, [r0], -r0, lsl #28
    18e0:	000003a6 	andeq	r0, r0, r6, lsr #7
    18e4:	00060d1d 	andeq	r0, r6, sp, lsl sp
    18e8:	257d0100 	ldrbcs	r0, [sp, #-256]!	; 0x100
    18ec:	d8000000 	stmdale	r0, {}	; <UNPREDICTABLE>
    18f0:	8800008a 	stmdahi	r0, {r1, r3, r7}
    18f4:	01000002 	tsteq	r0, r2
    18f8:	0006259c 	muleq	r6, ip, r5
    18fc:	75620b00 	strbvc	r0, [r2, #-2816]!	; 0xb00
    1900:	7d010066 	stcvc	0, cr0, [r1, #-408]	; 0xfffffe68
    1904:	00000074 	andeq	r0, r0, r4, ror r0
    1908:	000009b7 			; <UNDEFINED> instruction: 0x000009b7
    190c:	01006e0b 	tsteq	r0, fp, lsl #28
    1910:	0000257d 	andeq	r2, r0, sp, ror r5
    1914:	0009e300 	andeq	lr, r9, r0, lsl #6
    1918:	6d660b00 	vstmdbvs	r6!, {d16-d15}
    191c:	7d010074 	stcvc	0, cr0, [r1, #-464]	; 0xfffffe30
    1920:	00000081 	andeq	r0, r0, r1, lsl #1
    1924:	00000a11 	andeq	r0, r0, r1, lsl sl
    1928:	0006210d 	andeq	r2, r6, sp, lsl #2
    192c:	ae7d0100 	rpwgee	f0, f5, f0
    1930:	45000000 	strmi	r0, [r0, #-0]
    1934:	1000000a 	andne	r0, r0, sl
    1938:	7e010070 	mcrvc	0, 0, r0, cr1, cr0, {3}
    193c:	00000074 	andeq	r0, r0, r4, ror r0
    1940:	00000a58 	andeq	r0, r0, r8, asr sl
    1944:	01006510 	tsteq	r0, r0, lsl r5
    1948:	0000747e 	andeq	r7, r0, lr, ror r4
    194c:	000ad600 	andeq	sp, sl, r0, lsl #12
    1950:	01a21100 			; <UNDEFINED> instruction: 0x01a21100
    1954:	06350000 	ldrteq	r0, [r5], -r0
    1958:	03050000 	movweq	r0, #20480	; 0x5000
    195c:	0000a1b4 			; <UNDEFINED> instruction: 0x0000a1b4
    1960:	0000781e 	andeq	r7, r0, lr, lsl r8
    1964:	00731000 	rsbseq	r1, r3, r0
    1968:	00748b01 	rsbseq	r8, r4, r1, lsl #22
    196c:	0afd0000 	beq	fff41974 <__bss_end__+0xfff32fac>
    1970:	6e0f0000 	cdpvs	0, 0, cr0, cr15, cr0, {0}
    1974:	01006d75 	tsteq	r0, r5, ror sp
    1978:	00063a8b 	andeq	r3, r6, fp, lsl #21
    197c:	d8910300 	ldmle	r1, {r8, r9}
    1980:	06ca137e 			; <UNDEFINED> instruction: 0x06ca137e
    1984:	8c010000 	stchi	0, cr0, [r1], {-0}
    1988:	0000002c 	andeq	r0, r0, ip, lsr #32
    198c:	00000b52 	andeq	r0, r0, r2, asr fp
    1990:	008b5c15 	addeq	r5, fp, r5, lsl ip
    1994:	0000b900 	andeq	fp, r0, r0, lsl #18
    1998:	00047b00 	andeq	r7, r4, r0, lsl #22
    199c:	50011600 	andpl	r1, r1, r0, lsl #12
    19a0:	00007502 	andeq	r7, r0, r2, lsl #10
    19a4:	008b7014 	addeq	r7, fp, r4, lsl r0
    19a8:	00066000 	andeq	r6, r6, r0
    19ac:	8b841500 	blhi	fe106db4 <__bss_end__+0xfe0f83ec>
    19b0:	06670000 	strbteq	r0, [r7], -r0
    19b4:	04b30000 	ldrteq	r0, [r3], #0
    19b8:	01160000 	tsteq	r6, r0
    19bc:	92080253 	andls	r0, r8, #805306373	; 0x30000005
    19c0:	05520116 	ldrbeq	r0, [r2, #-278]	; 0x116
    19c4:	00a1b403 	adceq	fp, r1, r3, lsl #8
    19c8:	51011600 	tstpl	r1, r0, lsl #12
    19cc:	a1d40305 	bicsge	r0, r4, r5, lsl #6
    19d0:	01160000 	tsteq	r6, r0
    19d4:	24030550 	strcs	r0, [r3], #-1360	; 0x550
    19d8:	000000a2 	andeq	r0, r0, r2, lsr #1
    19dc:	008b8814 	addeq	r8, fp, r4, lsl r8
    19e0:	00067d00 	andeq	r7, r6, r0, lsl #26
    19e4:	8bf81400 	blhi	ffe069ec <__bss_end__+0xffdf8024>
    19e8:	06600000 	strbteq	r0, [r0], -r0
    19ec:	0c150000 	ldceq	0, cr0, [r5], {-0}
    19f0:	6700008c 	strvs	r0, [r0, -ip, lsl #1]
    19f4:	f4000006 	vst4.8	{d0-d3}, [r0], r6
    19f8:	16000004 	strne	r0, [r0], -r4
    19fc:	08025301 	stmdaeq	r2, {r0, r8, r9, ip, lr}
    1a00:	52011698 	andpl	r1, r1, #152, 12	; 0x9800000
    1a04:	a1b40305 			; <UNDEFINED> instruction: 0xa1b40305
    1a08:	01160000 	tsteq	r6, r0
    1a0c:	d4030551 	strle	r0, [r3], #-1361	; 0x551
    1a10:	160000a1 	strne	r0, [r0], -r1, lsr #1
    1a14:	03055001 	movweq	r5, #20481	; 0x5001
    1a18:	0000a240 	andeq	sl, r0, r0, asr #4
    1a1c:	8c101400 	cfldrshi	mvf1, [r0], {-0}
    1a20:	067d0000 	ldrbteq	r0, [sp], -r0
    1a24:	34150000 	ldrcc	r0, [r5], #-0
    1a28:	9c00008c 	stcls	0, cr0, [r0], {140}	; 0x8c
    1a2c:	2a000001 	bcs	1a38 <_start-0x65c8>
    1a30:	16000005 	strne	r0, [r0], -r5
    1a34:	08025201 	stmdaeq	r2, {r0, r9, ip, lr}
    1a38:	51011680 	smlabbpl	r1, r0, r6, r1
    1a3c:	7ed09103 	atnvcs	f1, f3
    1a40:	01500116 	cmpeq	r0, r6, lsl r1
    1a44:	7d02163a 	stcvc	6, cr1, [r2, #-232]	; 0xffffff18
    1a48:	16310104 	ldrtne	r0, [r1], -r4, lsl #2
    1a4c:	02007d02 	andeq	r7, r0, #2, 26	; 0x80
    1a50:	15000077 	strne	r0, [r0, #-119]	; 0x77
    1a54:	00008c58 	andeq	r8, r0, r8, asr ip
    1a58:	0000019c 	muleq	r0, ip, r1
    1a5c:	00000558 	andeq	r0, r0, r8, asr r5
    1a60:	02520116 	subseq	r0, r2, #-2147483643	; 0x80000005
    1a64:	01168008 	tsteq	r6, r8
    1a68:	d0910351 	addsle	r0, r1, r1, asr r3
    1a6c:	5001167e 	andpl	r1, r1, lr, ror r6
    1a70:	02163a01 	andseq	r3, r6, #4096	; 0x1000
    1a74:	7b02047d 	blvc	82c70 <__bss_end__+0x742a8>
    1a78:	7d021600 	stcvc	6, cr1, [r2, #-0]
    1a7c:	00770200 	rsbseq	r0, r7, r0, lsl #4
    1a80:	8c7c1500 	cfldr64hi	mvdx1, [ip], #-0
    1a84:	019c0000 	orrseq	r0, ip, r0
    1a88:	05860000 	streq	r0, [r6]
    1a8c:	01160000 	tsteq	r6, r0
    1a90:	80080252 	andhi	r0, r8, r2, asr r2
    1a94:	03510116 	cmpeq	r1, #-2147483643	; 0x80000005
    1a98:	167ed091 			; <UNDEFINED> instruction: 0x167ed091
    1a9c:	40015001 	andmi	r5, r1, r1
    1aa0:	047d0216 	ldrbteq	r0, [sp], #-534	; 0x216
    1aa4:	16007b02 	strne	r7, [r0], -r2, lsl #22
    1aa8:	02007d02 	andeq	r7, r0, #2, 26	; 0x80
    1aac:	15000077 	strne	r0, [r0, #-119]	; 0x77
    1ab0:	00008ca0 	andeq	r8, r0, r0, lsr #25
    1ab4:	0000019c 	muleq	r0, ip, r1
    1ab8:	000005b4 			; <UNDEFINED> instruction: 0x000005b4
    1abc:	02520116 	subseq	r0, r2, #-2147483643	; 0x80000005
    1ac0:	01168008 	tsteq	r6, r8
    1ac4:	d0910351 	addsle	r0, r1, r1, asr r3
    1ac8:	5001167e 	andpl	r1, r1, lr, ror r6
    1acc:	02163201 	andseq	r3, r6, #268435456	; 0x10000000
    1ad0:	7b02047d 	blvc	82ccc <__bss_end__+0x74304>
    1ad4:	7d021600 	stcvc	6, cr1, [r2, #-0]
    1ad8:	00770200 	rsbseq	r0, r7, r0, lsl #4
    1adc:	8cd01500 	cfldr64hi	mvdx1, [r0], {0}
    1ae0:	019c0000 	orrseq	r0, ip, r0
    1ae4:	05e20000 	strbeq	r0, [r2, #0]!
    1ae8:	01160000 	tsteq	r6, r0
    1aec:	80080252 	andhi	r0, r8, r2, asr r2
    1af0:	03510116 	cmpeq	r1, #-2147483643	; 0x80000005
    1af4:	167ed091 			; <UNDEFINED> instruction: 0x167ed091
    1af8:	38015001 	stmdacc	r1, {r0, ip, lr}
    1afc:	047d0216 	ldrbteq	r0, [sp], #-534	; 0x216
    1b00:	16007b02 	strne	r7, [r0], -r2, lsl #22
    1b04:	02007d02 	andeq	r7, r0, #2, 26	; 0x80
    1b08:	14000077 	strne	r0, [r0], #-119	; 0x77
    1b0c:	00008cd8 	ldrdeq	r8, [r0], -r8	; <UNPREDICTABLE>
    1b10:	00000660 	andeq	r0, r0, r0, ror #12
    1b14:	008cf415 	addeq	pc, ip, r5, lsl r4	; <UNPREDICTABLE>
    1b18:	00066700 	andeq	r6, r6, r0, lsl #14
    1b1c:	00061a00 	andeq	r1, r6, r0, lsl #20
    1b20:	53011600 	movwpl	r1, #5632	; 0x1600
    1b24:	16b90802 	ldrtne	r0, [r9], r2, lsl #16
    1b28:	03055201 	movweq	r5, #20993	; 0x5201
    1b2c:	0000a1b4 			; <UNDEFINED> instruction: 0x0000a1b4
    1b30:	05510116 	ldrbeq	r0, [r1, #-278]	; 0x116
    1b34:	00a1d403 	adceq	sp, r1, r3, lsl #8
    1b38:	50011600 	andpl	r1, r1, r0, lsl #12
    1b3c:	a2680305 	rsbge	r0, r8, #335544320	; 0x14000000
    1b40:	14000000 	strne	r0, [r0], #-0
    1b44:	00008cf8 	strdeq	r8, [r0], -r8	; <UNPREDICTABLE>
    1b48:	0000067d 	andeq	r0, r0, sp, ror r6
    1b4c:	7a180000 	bvc	601b54 <__bss_end__+0x5f318c>
    1b50:	35000000 	strcc	r0, [r0, #-0]
    1b54:	19000006 	stmdbne	r0, {r1, r2}
    1b58:	0000006b 	andeq	r0, r0, fp, rrx
    1b5c:	25060009 	strcs	r0, [r6, #-9]
    1b60:	18000006 	stmdane	r0, {r1, r2}
    1b64:	0000007a 	andeq	r0, r0, sl, ror r0
    1b68:	0000064a 	andeq	r0, r0, sl, asr #12
    1b6c:	00006b19 	andeq	r6, r0, r9, lsl fp
    1b70:	1f007f00 	svcne	0x00007f00
    1b74:	0000063c 	andeq	r0, r0, ip, lsr r6
    1b78:	038b1d03 	orreq	r1, fp, #3, 26	; 0xc0
    1b7c:	791f0000 	ldmdbvc	pc, {}	; <UNPREDICTABLE>
    1b80:	03000006 	movweq	r0, #6
    1b84:	0003a022 	andeq	sl, r3, r2, lsr #32
    1b88:	017b2000 	cmneq	fp, r0
    1b8c:	1e030000 	cdpne	0, 0, cr0, cr3, cr0, {0}
    1b90:	00061021 	andeq	r1, r6, r1, lsr #32
    1b94:	25290300 	strcs	r0, [r9, #-768]!	; 0x300
    1b98:	7d000000 	stcvc	0, cr0, [r0, #-0]
    1b9c:	1c000006 	stcne	0, cr0, [r0], {6}
    1ba0:	00000081 	andeq	r0, r0, r1, lsl #1
    1ba4:	a5200022 	strge	r0, [r0, #-34]!	; 0x22
    1ba8:	03000002 	movweq	r0, #2
    1bac:	00b80066 	adcseq	r0, r8, r6, rrx
    1bb0:	00040000 	andeq	r0, r4, r0
    1bb4:	00000829 	andeq	r0, r0, r9, lsr #16
    1bb8:	03b10104 			; <UNDEFINED> instruction: 0x03b10104
    1bbc:	eb010000 	bl	41bc4 <__bss_end__+0x331fc>
    1bc0:	ac000006 	stcge	0, cr0, [r0], {6}
    1bc4:	60000005 	andvs	r0, r0, r5
    1bc8:	2000008d 	andcs	r0, r0, sp, lsl #1
    1bcc:	0b000000 	bleq	1bd4 <_start-0x642c>
    1bd0:	02000009 	andeq	r0, r0, #9
    1bd4:	6e690504 	cdpvs	5, 6, cr0, cr9, cr4, {0}
    1bd8:	04030074 	streq	r0, [r3], #-116	; 0x74
    1bdc:	00006407 	andeq	r6, r0, r7, lsl #8
    1be0:	06010300 	streq	r0, [r1], -r0, lsl #6
    1be4:	00000365 	andeq	r0, r0, r5, ror #6
    1be8:	79050203 	stmdbvc	r5, {r0, r1, r9}
    1bec:	03000003 	movweq	r0, #3
    1bf0:	00a30504 	adceq	r0, r3, r4, lsl #10
    1bf4:	08030000 	stmdaeq	r3, {}	; <UNPREDICTABLE>
    1bf8:	00009e05 	andeq	r9, r0, r5, lsl #28
    1bfc:	08010300 	stmdaeq	r1, {r8, r9}
    1c00:	00000363 	andeq	r0, r0, r3, ror #6
    1c04:	2e070203 	cdpcs	2, 0, cr0, cr7, cr3, {0}
    1c08:	03000002 	movweq	r0, #2
    1c0c:	005f0704 	subseq	r0, pc, r4, lsl #14
    1c10:	08030000 	stmdaeq	r3, {}	; <UNPREDICTABLE>
    1c14:	00005a07 	andeq	r5, r0, r7, lsl #20
    1c18:	07040300 	streq	r0, [r4, -r0, lsl #6]
    1c1c:	000002b7 			; <UNDEFINED> instruction: 0x000002b7
    1c20:	6c080103 	stfvss	f0, [r8], {3}
    1c24:	04000003 	streq	r0, [r0], #-3
    1c28:	00000485 	andeq	r0, r0, r5, lsl #9
    1c2c:	8d600301 	stclhi	3, cr0, [r0, #-4]!
    1c30:	00100000 	andseq	r0, r0, r0
    1c34:	9c010000 	stcls	0, cr0, [r1], {-0}
    1c38:	0000009c 	muleq	r0, ip, r0
    1c3c:	01007205 	tsteq	r0, r5, lsl #4
    1c40:	00002c04 	andeq	r2, r0, r4, lsl #24
    1c44:	000b7c00 	andeq	r7, fp, r0, lsl #24
    1c48:	dd060000 	stcle	0, cr0, [r6, #-0]
    1c4c:	01000006 	tsteq	r0, r6
    1c50:	008d700c 	addeq	r7, sp, ip
    1c54:	00001000 	andeq	r1, r0, r0
    1c58:	059c0100 	ldreq	r0, [ip, #256]	; 0x100
    1c5c:	0d010072 	stceq	0, cr0, [r1, #-456]	; 0xfffffe38
    1c60:	0000002c 	andeq	r0, r0, ip, lsr #32
    1c64:	00000ba0 	andeq	r0, r0, r0, lsr #23
    1c68:	00ff0000 	rscseq	r0, pc, r0
    1c6c:	00040000 	andeq	r0, r4, r0
    1c70:	00000894 	muleq	r0, r4, r8
    1c74:	03b10104 			; <UNDEFINED> instruction: 0x03b10104
    1c78:	09010000 	stmdbeq	r1, {}	; <UNPREDICTABLE>
    1c7c:	ac000007 	stcge	0, cr0, [r0], {7}
    1c80:	80000005 	andhi	r0, r0, r5
    1c84:	2800008d 	stmdacs	r0, {r0, r2, r3, r7}
    1c88:	52000000 	andpl	r0, r0, #0
    1c8c:	02000009 	andeq	r0, r0, #9
    1c90:	6e690504 	cdpvs	5, 6, cr0, cr9, cr4, {0}
    1c94:	04030074 	streq	r0, [r3], #-116	; 0x74
    1c98:	00006407 	andeq	r6, r0, r7, lsl #8
    1c9c:	06010300 	streq	r0, [r1], -r0, lsl #6
    1ca0:	00000365 	andeq	r0, r0, r5, ror #6
    1ca4:	79050203 	stmdbvc	r5, {r0, r1, r9}
    1ca8:	03000003 	movweq	r0, #3
    1cac:	00a30504 	adceq	r0, r3, r4, lsl #10
    1cb0:	08030000 	stmdaeq	r3, {}	; <UNPREDICTABLE>
    1cb4:	00009e05 	andeq	r9, r0, r5, lsl #28
    1cb8:	08010300 	stmdaeq	r1, {r8, r9}
    1cbc:	00000363 	andeq	r0, r0, r3, ror #6
    1cc0:	2e070203 	cdpcs	2, 0, cr0, cr7, cr3, {0}
    1cc4:	03000002 	movweq	r0, #2
    1cc8:	005f0704 	subseq	r0, pc, r4, lsl #14
    1ccc:	08030000 	stmdaeq	r3, {}	; <UNPREDICTABLE>
    1cd0:	00005a07 	andeq	r5, r0, r7, lsl #20
    1cd4:	07040300 	streq	r0, [r4, -r0, lsl #6]
    1cd8:	000002b7 			; <UNDEFINED> instruction: 0x000002b7
    1cdc:	6c080103 	stfvss	f0, [r8], {3}
    1ce0:	04000003 	streq	r0, [r0], #-3
    1ce4:	00007f04 	andeq	r7, r0, r4, lsl #30
    1ce8:	00720500 	rsbseq	r0, r2, r0, lsl #10
    1cec:	a5060000 	strge	r0, [r6, #-0]
    1cf0:	01000002 	tsteq	r0, r2
    1cf4:	008d8004 	addeq	r8, sp, r4
    1cf8:	00002800 	andeq	r2, r0, r0, lsl #16
    1cfc:	ca9c0100 	bgt	fe702104 <__bss_end__+0xfe6f373c>
    1d00:	07000000 	streq	r0, [r0, -r0]
    1d04:	00008d94 	muleq	r0, r4, sp
    1d08:	000000ac 	andeq	r0, r0, ip, lsr #1
    1d0c:	05500108 	ldrbeq	r0, [r0, #-264]	; 0x108
    1d10:	00a2a003 	adceq	sl, r2, r3
    1d14:	9c090000 	stcls	0, cr0, [r9], {-0}
    1d18:	ea00008d 	b	1f54 <_start-0x60ac>
    1d1c:	c0000000 	andgt	r0, r0, r0
    1d20:	08000000 	stmdaeq	r0, {}	; <UNPREDICTABLE>
    1d24:	08025001 	stmdaeq	r2, {r0, ip, lr}
    1d28:	a00a0064 	andge	r0, sl, r4, rrx
    1d2c:	fb00008d 	blx	1f6a <_start-0x6096>
    1d30:	00000000 	andeq	r0, r0, r0
    1d34:	0000250b 	andeq	r2, r0, fp, lsl #10
    1d38:	0000d900 	andeq	sp, r0, r0, lsl #18
    1d3c:	00790c00 	rsbseq	r0, r9, r0, lsl #24
    1d40:	0d000000 	stceq	0, cr0, [r0, #-0]
    1d44:	00000679 	andeq	r0, r0, r9, ror r6
    1d48:	00e42202 	rsceq	r2, r4, r2, lsl #4
    1d4c:	04040000 	streq	r0, [r4], #-0
    1d50:	000000ca 	andeq	r0, r0, sl, asr #1
    1d54:	0007230e 	andeq	r2, r7, lr, lsl #6
    1d58:	fb500200 	blx	1402562 <__bss_end__+0x13f3b9a>
    1d5c:	0c000000 	stceq	0, cr0, [r0], {-0}
    1d60:	0000002c 	andeq	r0, r0, ip, lsr #32
    1d64:	06fe0f00 	ldrbteq	r0, [lr], r0, lsl #30
    1d68:	63020000 	movwvs	r0, #8192	; 0x2000
    1d6c:	0002e900 	andeq	lr, r2, r0, lsl #18
    1d70:	5e000400 	cfcpyspl	mvf0, mvf0
    1d74:	04000009 	streq	r0, [r0], #-9
    1d78:	0003b101 	andeq	fp, r3, r1, lsl #2
    1d7c:	07d40100 	ldrbeq	r0, [r4, r0, lsl #2]
    1d80:	05ac0000 	streq	r0, [ip, #0]!
    1d84:	8da80000 	stchi	0, cr0, [r8]
    1d88:	00b00000 	adcseq	r0, r0, r0
    1d8c:	09e90000 	stmibeq	r9!, {}^	; <UNPREDICTABLE>
    1d90:	04020000 	streq	r0, [r2], #-0
    1d94:	746e6905 	strbtvc	r6, [lr], #-2309	; 0x905
    1d98:	07040300 	streq	r0, [r4, -r0, lsl #6]
    1d9c:	00000064 	andeq	r0, r0, r4, rrx
    1da0:	65060103 	strvs	r0, [r6, #-259]	; 0x103
    1da4:	03000003 	movweq	r0, #3
    1da8:	03790502 	cmneq	r9, #8388608	; 0x800000
    1dac:	04030000 	streq	r0, [r3], #-0
    1db0:	0000a305 	andeq	sl, r0, r5, lsl #6
    1db4:	05080300 	streq	r0, [r8, #-768]	; 0x300
    1db8:	0000009e 	muleq	r0, lr, r0
    1dbc:	0004b304 	andeq	fp, r4, r4, lsl #6
    1dc0:	5a2e0200 	bpl	b825c8 <__bss_end__+0xb73c00>
    1dc4:	03000000 	movweq	r0, #0
    1dc8:	03630801 	cmneq	r3, #65536	; 0x10000
    1dcc:	02030000 	andeq	r0, r3, #0
    1dd0:	00022e07 	andeq	r2, r2, r7, lsl #28
    1dd4:	03a30400 			; <UNDEFINED> instruction: 0x03a30400
    1dd8:	34020000 	strcc	r0, [r2], #-0
    1ddc:	00000073 	andeq	r0, r0, r3, ror r0
    1de0:	5f070403 	svcpl	0x00070403
    1de4:	03000000 	movweq	r0, #0
    1de8:	005a0708 	subseq	r0, sl, r8, lsl #14
    1dec:	04030000 	streq	r0, [r3], #-0
    1df0:	0002b707 	andeq	fp, r2, r7, lsl #14
    1df4:	08010300 	stmdaeq	r1, {r8, r9}
    1df8:	0000036c 	andeq	r0, r0, ip, ror #6
    1dfc:	00950405 	addseq	r0, r5, r5, lsl #8
    1e00:	88060000 	stmdahi	r6, {}	; <UNPREDICTABLE>
    1e04:	07000000 	streq	r0, [r0, -r0]
    1e08:	d10e030c 	tstle	lr, ip, lsl #6
    1e0c:	08000000 	stmdaeq	r0, {}	; <UNPREDICTABLE>
    1e10:	03007874 	movweq	r7, #2164	; 0x874
    1e14:	00004f0f 	andeq	r4, r0, pc, lsl #30
    1e18:	72080000 	andvc	r0, r8, #0
    1e1c:	0f030078 	svceq	0x00030078
    1e20:	0000004f 	andeq	r0, r0, pc, asr #32
    1e24:	03ac0901 			; <UNDEFINED> instruction: 0x03ac0901
    1e28:	10030000 	andne	r0, r3, r0
    1e2c:	00000068 	andeq	r0, r0, r8, rrx
    1e30:	00900904 	addseq	r0, r0, r4, lsl #18
    1e34:	11030000 	mrsne	r0, (UNDEF: 3)
    1e38:	00000068 	andeq	r0, r0, r8, rrx
    1e3c:	47040008 	strmi	r0, [r4, -r8]
    1e40:	03000003 	movweq	r0, #3
    1e44:	00009a12 	andeq	r9, r0, r2, lsl sl
    1e48:	04010a00 	streq	r0, [r1], #-2560	; 0xa00
    1e4c:	0000f710 	andeq	pc, r0, r0, lsl r7	; <UNPREDICTABLE>
    1e50:	078d0b00 	streq	r0, [sp, r0, lsl #22]
    1e54:	0b010000 	bleq	41e5c <__bss_end__+0x33494>
    1e58:	00000780 	andeq	r0, r0, r0, lsl #15
    1e5c:	07720b02 	ldrbeq	r0, [r2, -r2, lsl #22]!
    1e60:	00030000 	andeq	r0, r3, r0
    1e64:	0007a204 	andeq	sl, r7, r4, lsl #4
    1e68:	dc100400 	cfldrsle	mvf0, [r0], {-0}
    1e6c:	07000000 	streq	r0, [r0, -r0]
    1e70:	2f140414 	svccs	0x00140414
    1e74:	09000001 	stmdbeq	r0, {r0}
    1e78:	000007f4 	strdeq	r0, [r0], -r4
    1e7c:	002c1504 	eoreq	r1, ip, r4, lsl #10
    1e80:	09000000 	stmdbeq	r0, {}	; <UNPREDICTABLE>
    1e84:	000007e8 	andeq	r0, r0, r8, ror #15
    1e88:	00f71804 	rscseq	r1, r7, r4, lsl #16
    1e8c:	09040000 	stmdbeq	r4, {}	; <UNPREDICTABLE>
    1e90:	0000018a 	andeq	r0, r0, sl, lsl #3
    1e94:	00d11b04 	sbcseq	r1, r1, r4, lsl #22
    1e98:	00080000 	andeq	r0, r8, r0
    1e9c:	0007ad04 	andeq	sl, r7, r4, lsl #26
    1ea0:	02200400 	eoreq	r0, r0, #0, 8
    1ea4:	0c000001 	stceq	0, cr0, [r0], {1}
    1ea8:	0000072c 	andeq	r0, r0, ip, lsr #14
    1eac:	00250601 	eoreq	r0, r5, r1, lsl #12
    1eb0:	8da80000 	stchi	0, cr0, [r8]
    1eb4:	00200000 	eoreq	r0, r0, r0
    1eb8:	9c010000 	stcls	0, cr0, [r1], {-0}
    1ebc:	0000017a 	andeq	r0, r0, sl, ror r1
    1ec0:	0100630d 	tsteq	r0, sp, lsl #6
    1ec4:	00002506 	andeq	r2, r0, r6, lsl #10
    1ec8:	000bc400 	andeq	ip, fp, r0, lsl #8
    1ecc:	8dbc0e00 	ldchi	14, cr0, [ip]
    1ed0:	02800000 	addeq	r0, r0, #0
    1ed4:	010f0000 	mrseq	r0, CPSR
    1ed8:	00740251 	rsbseq	r0, r4, r1, asr r2
    1edc:	0550010f 	ldrbeq	r0, [r0, #-271]	; 0x10f
    1ee0:	00e9b803 	rsceq	fp, r9, r3, lsl #16
    1ee4:	10000000 	andne	r0, r0, r0
    1ee8:	0000079a 	muleq	r0, sl, r7
    1eec:	8dc80b01 	vstrhi	d16, [r8, #4]
    1ef0:	00900000 	addseq	r0, r0, r0
    1ef4:	9c010000 	stcls	0, cr0, [r1], {-0}
    1ef8:	0000022d 	andeq	r0, r0, sp, lsr #4
    1efc:	00074011 	andeq	r4, r7, r1, lsl r0
    1f00:	250c0100 	strcs	r0, [ip, #-256]	; 0x100
    1f04:	11000000 	mrsne	r0, (UNDEF: 0)
    1f08:	000007c8 	andeq	r0, r0, r8, asr #15
    1f0c:	00250c01 	eoreq	r0, r5, r1, lsl #24
    1f10:	41120000 	tstmi	r2, r0
    1f14:	01000000 	mrseq	r0, (UNDEF: 0)
    1f18:	0001b20d 	andeq	fp, r1, sp, lsl #4
    1f1c:	14001300 	strne	r1, [r0], #-768	; 0x300
    1f20:	00737362 	rsbseq	r7, r3, r2, ror #6
    1f24:	022d0f01 	eoreq	r0, sp, #1, 30
    1f28:	0be20000 	bleq	ff881f30 <__bss_end__+0xff873568>
    1f2c:	4e150000 	cdpmi	0, 1, cr0, cr5, cr0, {0}
    1f30:	01000007 	tsteq	r0, r7
    1f34:	00022d10 	andeq	r2, r2, r0, lsl sp
    1f38:	62631400 	rsbvs	r1, r3, #0, 8
    1f3c:	33170100 	tstcc	r7, #0, 2
    1f40:	02000002 	andeq	r0, r0, #2
    1f44:	1600000c 	strne	r0, [r0], -ip
    1f48:	00008df0 	strdeq	r8, [r0], -r0
    1f4c:	0000029c 	muleq	r0, ip, r2
    1f50:	008e2c17 	addeq	r2, lr, r7, lsl ip
    1f54:	0002a700 	andeq	sl, r2, r0, lsl #14
    1f58:	00020300 	andeq	r0, r2, r0, lsl #6
    1f5c:	51010f00 	tstpl	r1, r0, lsl #30
    1f60:	a2ac0305 	adcge	r0, ip, #335544320	; 0x14000000
    1f64:	010f0000 	mrseq	r0, CPSR
    1f68:	b8030550 	stmdalt	r3, {r4, r6, r8, sl}
    1f6c:	000000e9 	andeq	r0, r0, r9, ror #1
    1f70:	008e3417 	addeq	r3, lr, r7, lsl r4
    1f74:	0002c200 	andeq	ip, r2, r0, lsl #4
    1f78:	00021a00 	andeq	r1, r2, r0, lsl #20
    1f7c:	50010f00 	andpl	r0, r1, r0, lsl #30
    1f80:	a2d00305 	sbcsge	r0, r0, #335544320	; 0x14000000
    1f84:	16000000 	strne	r0, [r0], -r0
    1f88:	00008e38 	andeq	r8, r0, r8, lsr lr
    1f8c:	000002d8 	ldrdeq	r0, [r0], -r8
    1f90:	008e3c16 	addeq	r3, lr, r6, lsl ip
    1f94:	0002e500 	andeq	lr, r2, r0, lsl #10
    1f98:	04050000 	streq	r0, [r5], #-0
    1f9c:	00000025 	andeq	r0, r0, r5, lsr #32
    1fa0:	012f0405 	teqeq	pc, r5, lsl #8
    1fa4:	56180000 	ldrpl	r0, [r8], -r0
    1fa8:	01000007 	tsteq	r0, r7
    1fac:	0000d105 	andeq	sp, r0, r5, lsl #2
    1fb0:	b8030500 	stmdalt	r3, {r8, sl}
    1fb4:	190000e9 	stmdbne	r0, {r0, r3, r5, r6, r7}
    1fb8:	00000025 	andeq	r0, r0, r5, lsr #32
    1fbc:	00000259 	andeq	r0, r0, r9, asr r2
    1fc0:	0000251a 	andeq	r2, r0, sl, lsl r5
    1fc4:	3c110000 	ldccc	0, cr0, [r1], {-0}
    1fc8:	05000006 	streq	r0, [r0, #-6]
    1fcc:	0002641d 	andeq	r6, r2, sp, lsl r4
    1fd0:	4a040500 	bmi	1033d8 <__bss_end__+0xf4a10>
    1fd4:	11000002 	tstne	r0, r2
    1fd8:	00000740 	andeq	r0, r0, r0, asr #14
    1fdc:	00250c01 	eoreq	r0, r5, r1, lsl #24
    1fe0:	c8110000 	ldmdagt	r1, {}	; <UNPREDICTABLE>
    1fe4:	01000007 	tsteq	r0, r7
    1fe8:	0000250c 	andeq	r2, r0, ip, lsl #10
    1fec:	025e1b00 	subseq	r1, lr, #0, 22
    1ff0:	44030000 	strmi	r0, [r3], #-0
    1ff4:	00000296 	muleq	r0, r6, r2
    1ff8:	0002961a 	andeq	r9, r2, sl, lsl r6
    1ffc:	005a1a00 	subseq	r1, sl, r0, lsl #20
    2000:	05000000 	streq	r0, [r0, #-0]
    2004:	0000d104 	andeq	sp, r0, r4, lsl #2
    2008:	07bb1c00 	ldreq	r1, [fp, r0, lsl #24]!
    200c:	2a040000 	bcs	102014 <__bss_end__+0xf364c>
    2010:	00000233 	andeq	r0, r0, r3, lsr r2
    2014:	0007631d 	andeq	r6, r7, sp, lsl r3
    2018:	25150300 	ldrcs	r0, [r5, #-768]	; 0x300
    201c:	c2000000 	andgt	r0, r0, #0
    2020:	1a000002 	bne	2030 <_start-0x5fd0>
    2024:	00000296 	muleq	r0, r6, r2
    2028:	00008f1a 	andeq	r8, r0, sl, lsl pc
    202c:	1d001300 	stcne	3, cr1, [r0, #-0]
    2030:	00000610 	andeq	r0, r0, r0, lsl r6
    2034:	00252905 	eoreq	r2, r5, r5, lsl #18
    2038:	02d80000 	sbcseq	r0, r8, #0
    203c:	8f1a0000 	svchi	0x001a0000
    2040:	13000000 	movwne	r0, #0
    2044:	00411200 	subeq	r1, r1, r0, lsl #4
    2048:	0d010000 	stceq	0, cr0, [r1, #-0]
    204c:	000002e5 	andeq	r0, r0, r5, ror #5
    2050:	fe1e0013 	mrc2	0, 0, r0, cr14, cr3, {0}
    2054:	05000006 	streq	r0, [r0, #-6]
    2058:	01ad0063 			; <UNDEFINED> instruction: 0x01ad0063
    205c:	00040000 	andeq	r0, r4, r0
    2060:	00000b06 	andeq	r0, r0, r6, lsl #22
    2064:	03b10104 			; <UNDEFINED> instruction: 0x03b10104
    2068:	14010000 	strne	r0, [r1], #-0
    206c:	ac000008 	stcge	0, cr0, [r0], {8}
    2070:	90000005 	andls	r0, r0, r5
    2074:	00000000 	andeq	r0, r0, r0
    2078:	0e000000 	cdpeq	0, 0, cr0, cr0, cr0, {0}
    207c:	0200000b 	andeq	r0, r0, #11
    2080:	6e690504 	cdpvs	5, 6, cr0, cr9, cr4, {0}
    2084:	04030074 	streq	r0, [r3], #-116	; 0x74
    2088:	00006407 	andeq	r6, r0, r7, lsl #8
    208c:	06010300 	streq	r0, [r1], -r0, lsl #6
    2090:	00000365 	andeq	r0, r0, r5, ror #6
    2094:	79050203 	stmdbvc	r5, {r0, r1, r9}
    2098:	03000003 	movweq	r0, #3
    209c:	00a30504 	adceq	r0, r3, r4, lsl #10
    20a0:	08030000 	stmdaeq	r3, {}	; <UNPREDICTABLE>
    20a4:	00009e05 	andeq	r9, r0, r5, lsl #28
    20a8:	08010300 	stmdaeq	r1, {r8, r9}
    20ac:	00000363 	andeq	r0, r0, r3, ror #6
    20b0:	2e070203 	cdpcs	2, 0, cr0, cr7, cr3, {0}
    20b4:	03000002 	movweq	r0, #2
    20b8:	005f0704 	subseq	r0, pc, r4, lsl #14
    20bc:	08030000 	stmdaeq	r3, {}	; <UNPREDICTABLE>
    20c0:	00005a07 	andeq	r5, r0, r7, lsl #20
    20c4:	07040300 	streq	r0, [r4, -r0, lsl #6]
    20c8:	000002b7 			; <UNDEFINED> instruction: 0x000002b7
    20cc:	6c080103 	stfvss	f0, [r8], {3}
    20d0:	04000003 	streq	r0, [r0], #-3
    20d4:	000007fa 	strdeq	r0, [r0], -sl
    20d8:	00250e01 	eoreq	r0, r5, r1, lsl #28
    20dc:	8e580000 	cdphi	0, 5, cr0, cr8, cr0, {0}
    20e0:	00180000 	andseq	r0, r8, r0
    20e4:	9c010000 	stcls	0, cr0, [r1], {-0}
    20e8:	000000a2 	andeq	r0, r0, r2, lsr #1
    20ec:	00086605 	andeq	r6, r8, r5, lsl #12
    20f0:	2c0f0100 	stfcss	f0, [pc], {-0}
    20f4:	22000000 	andcs	r0, r0, #0
    20f8:	0000000c 	andeq	r0, r0, ip
    20fc:	00084906 	andeq	r4, r8, r6, lsl #18
    2100:	70170100 	andsvc	r0, r7, r0, lsl #2
    2104:	1400008e 	strne	r0, [r0], #-142	; 0x8e
    2108:	01000000 	mrseq	r0, (UNDEF: 0)
    210c:	0000c79c 	muleq	r0, ip, r7
    2110:	08660500 	stmdaeq	r6!, {r8, sl}^
    2114:	18010000 	stmdane	r1, {}	; <UNPREDICTABLE>
    2118:	0000002c 	andeq	r0, r0, ip, lsr #32
    211c:	00000c41 	andeq	r0, r0, r1, asr #24
    2120:	06fe0600 	ldrbteq	r0, [lr], r0, lsl #12
    2124:	1f010000 	svcne	0x00010000
    2128:	00008e84 	andeq	r8, r0, r4, lsl #29
    212c:	00000048 	andeq	r0, r0, r8, asr #32
    2130:	01779c01 	cmneq	r7, r1, lsl #24
    2134:	5e070000 	cdppl	0, 0, cr0, cr7, cr0, {0}
    2138:	01000008 	tsteq	r0, r8
    213c:	0001772a 	andeq	r7, r1, sl, lsr #14
    2140:	10001c00 	andne	r1, r0, r0, lsl #24
    2144:	08410720 	stmdaeq	r1, {r5, r8, r9, sl}^
    2148:	2b010000 	blcs	42150 <__bss_end__+0x33788>
    214c:	00000177 	andeq	r0, r0, r7, ror r1
    2150:	20100024 	andscs	r0, r0, r4, lsr #32
    2154:	00080807 	andeq	r0, r8, r7, lsl #16
    2158:	772c0100 	strvc	r0, [ip, -r0, lsl #2]!
    215c:	00000001 	andeq	r0, r0, r1
    2160:	085a0000 	ldmdaeq	sl, {}^	; <UNPREDICTABLE>
    2164:	00000828 	andeq	r0, r0, r8, lsr #16
    2168:	01772d01 	cmneq	r7, r1, lsl #26
    216c:	09200000 	stmdbeq	r0!, {}	; <UNPREDICTABLE>
    2170:	00008e8c 	andeq	r8, r0, ip, lsl #29
    2174:	00000079 	andeq	r0, r0, r9, ror r0
    2178:	008e9809 	addeq	r9, lr, r9, lsl #16
    217c:	0000a200 	andeq	sl, r0, r0, lsl #4
    2180:	8ea00a00 	vfmahi.f32	s0, s0, s0
    2184:	018d0000 	orreq	r0, sp, r0
    2188:	013a0000 	teqeq	sl, r0
    218c:	010b0000 	mrseq	r0, (UNDEF: 11)
    2190:	004e0150 	subeq	r0, lr, r0, asr r1
    2194:	008eac0a 	addeq	sl, lr, sl, lsl #24
    2198:	00019e00 	andeq	r9, r1, r0, lsl #28
    219c:	00015a00 	andeq	r5, r1, r0, lsl #20
    21a0:	51010b00 	tstpl	r1, r0, lsl #22
    21a4:	00010c05 	andeq	r0, r1, r5, lsl #24
    21a8:	010b5a00 	tsteq	fp, r0, lsl #20
    21ac:	240c0550 	strcs	r0, [ip], #-1360	; 0x550
    21b0:	00201000 	eoreq	r1, r0, r0
    21b4:	008eb80c 	addeq	fp, lr, ip, lsl #16
    21b8:	00019e00 	andeq	r9, r1, r0, lsl #28
    21bc:	51010b00 	tstpl	r1, r0, lsl #22
    21c0:	00200c05 	eoreq	r0, r0, r5, lsl #24
    21c4:	010b5a00 	tsteq	fp, r0, lsl #20
    21c8:	1c0c0550 	cfstr32ne	mvfx0, [ip], {80}	; 0x50
    21cc:	00201000 	eoreq	r1, r0, r0
    21d0:	00250d00 	eoreq	r0, r5, r0, lsl #26
    21d4:	fd080000 	stc2	0, cr0, [r8, #-0]
    21d8:	01000007 	tsteq	r0, r7
    21dc:	0001880d 	andeq	r8, r1, sp, lsl #16
    21e0:	2c0d1000 	stccs	0, cr1, [sp], {-0}
    21e4:	0e000000 	cdpeq	0, 0, cr0, cr0, cr0, {0}
    21e8:	00000723 	andeq	r0, r0, r3, lsr #14
    21ec:	019e5002 	orrseq	r5, lr, r2
    21f0:	2c0f0000 	stccs	0, cr0, [pc], {-0}
    21f4:	00000000 	andeq	r0, r0, r0
    21f8:	00085810 	andeq	r5, r8, r0, lsl r8
    21fc:	0f990200 	svceq	0x00990200
    2200:	0000002c 	andeq	r0, r0, ip, lsr #32
    2204:	00002c0f 	andeq	r2, r0, pc, lsl #24
    2208:	d8000000 	stmdale	r0, {}	; <UNPREDICTABLE>
    220c:	04000001 	streq	r0, [r0], #-1
    2210:	000bf400 	andeq	pc, fp, r0, lsl #8
    2214:	b1010400 	tstlt	r1, r0, lsl #8
    2218:	01000003 	tsteq	r0, r3
    221c:	00000888 	andeq	r0, r0, r8, lsl #17
    2220:	000005ac 	andeq	r0, r0, ip, lsr #11
    2224:	00008ecc 	andeq	r8, r0, ip, asr #29
    2228:	00000088 	andeq	r0, r0, r8, lsl #1
    222c:	00000bab 	andeq	r0, r0, fp, lsr #23
    2230:	69050402 	stmdbvs	r5, {r1, sl}
    2234:	0300746e 	movweq	r7, #1134	; 0x46e
    2238:	00640704 	rsbeq	r0, r4, r4, lsl #14
    223c:	01030000 	mrseq	r0, (UNDEF: 3)
    2240:	00036506 	andeq	r6, r3, r6, lsl #10
    2244:	05020300 	streq	r0, [r2, #-768]	; 0x300
    2248:	00000379 	andeq	r0, r0, r9, ror r3
    224c:	a3050403 	movwge	r0, #21507	; 0x5403
    2250:	03000000 	movweq	r0, #0
    2254:	009e0508 	addseq	r0, lr, r8, lsl #10
    2258:	01030000 	mrseq	r0, (UNDEF: 3)
    225c:	00036308 	andeq	r6, r3, r8, lsl #6
    2260:	07020300 	streq	r0, [r2, -r0, lsl #6]
    2264:	0000022e 	andeq	r0, r0, lr, lsr #4
    2268:	5f070403 	svcpl	0x00070403
    226c:	03000000 	movweq	r0, #0
    2270:	005a0708 	subseq	r0, sl, r8, lsl #14
    2274:	04030000 	streq	r0, [r3], #-0
    2278:	0002b707 	andeq	fp, r2, r7, lsl #14
    227c:	08010300 	stmdaeq	r1, {r8, r9}
    2280:	0000036c 	andeq	r0, r0, ip, ror #6
    2284:	0008a704 	andeq	sl, r8, r4, lsl #14
    2288:	cc050100 	stfgts	f0, [r5], {-0}
    228c:	1c00008e 	stcne	0, cr0, [r0], {142}	; 0x8e
    2290:	01000000 	mrseq	r0, (UNDEF: 0)
    2294:	00009e9c 	muleq	r0, ip, lr
    2298:	08a10500 	stmiaeq	r1!, {r8, sl}
    229c:	05010000 	streq	r0, [r1, #-0]
    22a0:	0000002c 	andeq	r0, r0, ip, lsr #32
    22a4:	00000c6b 	andeq	r0, r0, fp, ror #24
    22a8:	086b0600 	stmdaeq	fp!, {r9, sl}^
    22ac:	0b010000 	bleq	422b4 <__bss_end__+0x338ec>
    22b0:	0000002c 	andeq	r0, r0, ip, lsr #32
    22b4:	00008ee8 	andeq	r8, r0, r8, ror #29
    22b8:	00000014 	andeq	r0, r0, r4, lsl r0
    22bc:	00cb9c01 	sbceq	r9, fp, r1, lsl #24
    22c0:	f4070000 	vst4.8	{d0-d3}, [r7], r0
    22c4:	ca00008e 	bgt	2504 <_start-0x5afc>
    22c8:	08000001 	stmdaeq	r0, {r0}
    22cc:	0c055001 	stceq	0, cr5, [r5], {1}
    22d0:	20003004 	andcs	r3, r0, r4
    22d4:	bd060000 	stclt	0, cr0, [r6, #-0]
    22d8:	01000008 	tsteq	r0, r8
    22dc:	00002c10 	andeq	r2, r0, r0, lsl ip
    22e0:	008efc00 	addeq	pc, lr, r0, lsl #24
    22e4:	00000c00 	andeq	r0, r0, r0, lsl #24
    22e8:	f99c0100 			; <UNDEFINED> instruction: 0xf99c0100
    22ec:	09000000 	stmdbeq	r0, {}	; <UNPREDICTABLE>
    22f0:	14010075 	strne	r0, [r1], #-117	; 0x75
    22f4:	0000002c 	andeq	r0, r0, ip, lsr #32
    22f8:	040a5001 	streq	r5, [sl], #-1
    22fc:	9e00008f 	cdpls	0, 0, cr0, cr0, cr15, {4}
    2300:	00000000 	andeq	r0, r0, r0
    2304:	0008b404 	andeq	fp, r8, r4, lsl #8
    2308:	08190100 	ldmdaeq	r9, {r8}
    230c:	2400008f 	strcs	r0, [r0], #-143	; 0x8f
    2310:	01000000 	mrseq	r0, (UNDEF: 0)
    2314:	0001579c 	muleq	r1, ip, r7
    2318:	73750b00 	cmnvc	r5, #0, 22
    231c:	2c190100 	ldfcss	f0, [r9], {-0}
    2320:	9f000000 	svcls	0x00000000
    2324:	0900000c 	stmdbeq	r0, {r2, r3}
    2328:	01006272 	tsteq	r0, r2, ror r2
    232c:	00002c1a 	andeq	r2, r0, sl, lsl ip
    2330:	0c540100 	ldfeqe	f0, [r4], {-0}
    2334:	00008f18 	andeq	r8, r0, r8, lsl pc
    2338:	00000010 	andeq	r0, r0, r0, lsl r0
    233c:	0000014d 	andeq	r0, r0, sp, asr #2
    2340:	0061720d 	rsbeq	r7, r1, sp, lsl #4
    2344:	002c1c01 	eoreq	r1, ip, r1, lsl #24
    2348:	0cbd0000 	ldceq	0, cr0, [sp]
    234c:	1c0a0000 	stcne	0, cr0, [sl], {-0}
    2350:	cb00008f 	blgt	2594 <_start-0x5a6c>
    2354:	00000000 	andeq	r0, r0, r0
    2358:	008f140a 	addeq	r1, pc, sl, lsl #8
    235c:	0000cb00 	andeq	ip, r0, r0, lsl #22
    2360:	23040000 	movwcs	r0, #16384	; 0x4000
    2364:	01000007 	tsteq	r0, r7
    2368:	008f2c22 	addeq	r2, pc, r2, lsr #24
    236c:	00001400 	andeq	r1, r0, r0, lsl #8
    2370:	909c0100 	addsls	r0, ip, r0, lsl #2
    2374:	0b000001 	bleq	2380 <_start-0x5c80>
    2378:	0100736d 	tsteq	r0, sp, ror #6
    237c:	00002c22 	andeq	r2, r0, r2, lsr #24
    2380:	000cd000 	andeq	sp, ip, r0
    2384:	8f3c0700 	svchi	0x003c0700
    2388:	00f90000 	rscseq	r0, r9, r0
    238c:	01080000 	mrseq	r0, (UNDEF: 8)
    2390:	01f30750 	mvnseq	r0, r0, asr r7
    2394:	03e80a50 	mvneq	r0, #80, 20	; 0x50000
    2398:	0400001e 	streq	r0, [r0], #-30
    239c:	0000087e 	andeq	r0, r0, lr, ror r8
    23a0:	8f402501 	svchi	0x00402501
    23a4:	00140000 	andseq	r0, r4, r0
    23a8:	9c010000 	stcls	0, cr0, [r1], {-0}
    23ac:	000001ca 	andeq	r0, r0, sl, asr #3
    23b0:	6365730b 	cmnvs	r5, #738197504	; 0x2c000000
    23b4:	2c250100 	stfcss	f0, [r5], #-0
    23b8:	f1000000 	cps	#0
    23bc:	0700000c 	streq	r0, [r0, -ip]
    23c0:	00008f50 	andeq	r8, r0, r0, asr pc
    23c4:	00000157 	andeq	r0, r0, r7, asr r1
    23c8:	07500108 	ldrbeq	r0, [r0, -r8, lsl #2]
    23cc:	0a5001f3 	beq	1402ba0 <__bss_end__+0x13f41d8>
    23d0:	001e03e8 	andseq	r0, lr, r8, ror #7
    23d4:	089b0e00 	ldmeq	fp, {r9, sl, fp}
    23d8:	a5020000 	strge	r0, [r2, #-0]
    23dc:	0000002c 	andeq	r0, r0, ip, lsr #32
    23e0:	00002c0f 	andeq	r2, r0, pc, lsl #24
    23e4:	cf000000 	svcgt	0x00000000
    23e8:	04000008 	streq	r0, [r0], #-8
    23ec:	000cd700 	andeq	sp, ip, r0, lsl #14
    23f0:	b1010400 	tstlt	r1, r0, lsl #8
    23f4:	01000003 	tsteq	r0, r3
    23f8:	00000916 	andeq	r0, r0, r6, lsl r9
    23fc:	000005ac 	andeq	r0, r0, ip, lsr #11
    2400:	00008f54 	andeq	r8, r0, r4, asr pc
    2404:	000005bc 			; <UNDEFINED> instruction: 0x000005bc
    2408:	00000c52 	andeq	r0, r0, r2, asr ip
    240c:	5a070802 	bpl	1c441c <__bss_end__+0x1b5a54>
    2410:	02000000 	andeq	r0, r0, #0
    2414:	00640704 	rsbeq	r0, r4, r4, lsl #14
    2418:	01020000 	mrseq	r0, (UNDEF: 2)
    241c:	00036506 	andeq	r6, r3, r6, lsl #10
    2420:	05020200 	streq	r0, [r2, #-512]	; 0x200
    2424:	00000379 	andeq	r0, r0, r9, ror r3
    2428:	a3050402 	movwge	r0, #21506	; 0x5402
    242c:	02000000 	andeq	r0, r0, #0
    2430:	009e0508 	addseq	r0, lr, r8, lsl #10
    2434:	01020000 	mrseq	r0, (UNDEF: 2)
    2438:	00036308 	andeq	r6, r3, r8, lsl #6
    243c:	07020200 	streq	r0, [r2, -r0, lsl #4]
    2440:	0000022e 	andeq	r0, r0, lr, lsr #4
    2444:	5f070402 	svcpl	0x00070402
    2448:	03000000 	movweq	r0, #0
    244c:	6e690504 	cdpvs	5, 6, cr0, cr9, cr4, {0}
    2450:	04020074 	streq	r0, [r2], #-116	; 0x74
    2454:	0002b707 	andeq	fp, r2, r7, lsl #14
    2458:	08010200 	stmdaeq	r1, {r9}
    245c:	0000036c 	andeq	r0, r0, ip, ror #6
    2460:	0c020104 	stfeqs	f0, [r2], {4}
    2464:	000000b2 	strheq	r0, [r0], -r2
    2468:	00007705 	andeq	r7, r0, r5, lsl #14
    246c:	a2050000 	andge	r0, r5, #0
    2470:	01000004 	tsteq	r0, r4
    2474:	0004df05 	andeq	sp, r4, r5, lsl #30
    2478:	ee050400 	cfcpys	mvf0, mvf5
    247c:	05000004 	streq	r0, [r0, #-4]
    2480:	0004fd05 	andeq	pc, r4, r5, lsl #26
    2484:	0c050600 	stceq	6, cr0, [r5], {-0}
    2488:	07000005 	streq	r0, [r0, -r5]
    248c:	00051b05 	andeq	r1, r5, r5, lsl #22
    2490:	2a050300 	bcs	143098 <__bss_end__+0x1346d0>
    2494:	02000005 	andeq	r0, r0, #5
    2498:	04c10600 	strbeq	r0, [r1], #1536	; 0x600
    249c:	15020000 	strne	r0, [r2, #-0]
    24a0:	00000079 	andeq	r0, r0, r9, ror r0
    24a4:	000a4807 	andeq	r4, sl, r7, lsl #16
    24a8:	543f0100 	ldrtpl	r0, [pc], #-256	; 24b0 <_start-0x5b50>
    24ac:	d400008f 	strle	r0, [r0], #-143	; 0x8f
    24b0:	01000000 	mrseq	r0, (UNDEF: 0)
    24b4:	0001339c 	muleq	r1, ip, r3
    24b8:	69700800 	ldmdbvs	r0!, {fp}^
    24bc:	3f01006e 	svccc	0x0001006e
    24c0:	0000002c 	andeq	r0, r0, ip, lsr #32
    24c4:	00000d12 	andeq	r0, r0, r2, lsl sp
    24c8:	00095209 	andeq	r5, r9, r9, lsl #4
    24cc:	33470100 	movtcc	r0, #28928	; 0x7100
    24d0:	30000001 	andcc	r0, r0, r1
    24d4:	0900000d 	stmdbeq	r0, {r0, r2, r3}
    24d8:	00000a6e 	andeq	r0, r0, lr, ror #20
    24dc:	002c4901 	eoreq	r4, ip, r1, lsl #18
    24e0:	0d850000 	stceq	0, cr0, [r5]
    24e4:	ef090000 	svc	0x00090000
    24e8:	01000009 	tsteq	r0, r9
    24ec:	00002c57 	andeq	r2, r0, r7, asr ip
    24f0:	000f5100 	andeq	r5, pc, r0, lsl #2
    24f4:	8fe80a00 	svchi	0x00e80a00
    24f8:	088e0000 	stmeq	lr, {}	; <UNPREDICTABLE>
    24fc:	01220000 	teqeq	r2, r0
    2500:	010b0000 	mrseq	r0, (UNDEF: 11)
    2504:	00750250 	rsbseq	r0, r5, r0, asr r2
    2508:	901c0c00 	andsls	r0, ip, r0, lsl #24
    250c:	08af0000 	stmiaeq	pc!, {}	; <UNPREDICTABLE>
    2510:	010b0000 	mrseq	r0, (UNDEF: 11)
    2514:	00750250 	rsbseq	r0, r5, r0, asr r2
    2518:	040d0000 	streq	r0, [sp], #-0
    251c:	00000139 	andeq	r0, r0, r9, lsr r1
    2520:	00002c0e 	andeq	r2, r0, lr, lsl #24
    2524:	0a2e0f00 	beq	b8612c <__bss_end__+0xb77764>
    2528:	60010000 	andvs	r0, r1, r0
    252c:	00016c03 	andeq	r6, r1, r3, lsl #24
    2530:	69701000 	ldmdbvs	r0!, {ip}^
    2534:	6001006e 	andvs	r0, r1, lr, rrx
    2538:	0000002c 	andeq	r0, r0, ip, lsr #32
    253c:	00095211 	andeq	r5, r9, r1, lsl r2
    2540:	33670100 	cmncc	r7, #0, 2
    2544:	11000001 	tstne	r0, r1
    2548:	000009ef 	andeq	r0, r0, pc, ror #19
    254c:	002c6801 	eoreq	r6, ip, r1, lsl #16
    2550:	12000000 	andne	r0, r0, #0
    2554:	0000013e 	andeq	r0, r0, lr, lsr r1
    2558:	00009028 	andeq	r9, r0, r8, lsr #32
    255c:	00000038 	andeq	r0, r0, r8, lsr r0
    2560:	01b09c01 	lslseq	r9, r1, #24
    2564:	4a130000 	bmi	4c256c <__bss_end__+0x4b3ba4>
    2568:	81000001 	tsthi	r0, r1
    256c:	1400000f 	strne	r0, [r0], #-15
    2570:	00000155 	andeq	r0, r0, r5, asr r1
    2574:	00000fa2 	andeq	r0, r0, r2, lsr #31
    2578:	00016014 	andeq	r6, r1, r4, lsl r0
    257c:	000fd800 	andeq	sp, pc, r0, lsl #16
    2580:	90580c00 	subsls	r0, r8, r0, lsl #24
    2584:	08af0000 	stmiaeq	pc!, {}	; <UNPREDICTABLE>
    2588:	010b0000 	mrseq	r0, (UNDEF: 11)
    258c:	f3310751 	vaba.u<illegal width 64>	q0, <illegal reg q0.5>, <illegal reg q0.5>
    2590:	1a4f5001 	bne	13d659c <__bss_end__+0x13c7bd4>
    2594:	0f000024 	svceq	0x00000024
    2598:	00000909 	andeq	r0, r0, r9, lsl #18
    259c:	de037b01 	vmlale.f64	d7, d3, d1
    25a0:	10000001 	andne	r0, r0, r1
    25a4:	006e6970 	rsbeq	r6, lr, r0, ror r9
    25a8:	002c7b01 	eoreq	r7, ip, r1, lsl #22
    25ac:	52110000 	andspl	r0, r1, #0
    25b0:	01000009 	tsteq	r0, r9
    25b4:	00013381 	andeq	r3, r1, r1, lsl #7
    25b8:	09ef1100 	stmibeq	pc!, {r8, ip}^	; <UNPREDICTABLE>
    25bc:	82010000 	andhi	r0, r1, #0
    25c0:	0000002c 	andeq	r0, r0, ip, lsr #32
    25c4:	01b01200 	lslseq	r1, r0, #4
    25c8:	90600000 	rsbls	r0, r0, r0
    25cc:	00380000 	eorseq	r0, r8, r0
    25d0:	9c010000 	stcls	0, cr0, [r1], {-0}
    25d4:	00000222 	andeq	r0, r0, r2, lsr #4
    25d8:	0001bc13 	andeq	fp, r1, r3, lsl ip
    25dc:	00101800 	andseq	r1, r0, r0, lsl #16
    25e0:	01c71400 	biceq	r1, r7, r0, lsl #8
    25e4:	10390000 	eorsne	r0, r9, r0
    25e8:	d2140000 	andsle	r0, r4, #0
    25ec:	6f000001 	svcvs	0x00000001
    25f0:	0c000010 	stceq	0, cr0, [r0], {16}
    25f4:	00009090 	muleq	r0, r0, r0
    25f8:	000008af 	andeq	r0, r0, pc, lsr #17
    25fc:	0751010b 	ldrbeq	r0, [r1, -fp, lsl #2]
    2600:	5001f331 	andpl	pc, r1, r1, lsr r3	; <UNPREDICTABLE>
    2604:	00241a4f 	eoreq	r1, r4, pc, asr #20
    2608:	0a110700 	beq	444210 <__bss_end__+0x435848>
    260c:	95010000 	strls	r0, [r1, #-0]
    2610:	00009098 	muleq	r0, r8, r0
    2614:	000000cc 	andeq	r0, r0, ip, asr #1
    2618:	02989c01 	addseq	r9, r8, #256	; 0x100
    261c:	70080000 	andvc	r0, r8, r0
    2620:	01006e69 	tsteq	r0, r9, ror #28
    2624:	00002c95 	muleq	r0, r5, ip
    2628:	0010af00 	andseq	sl, r0, r0, lsl #30
    262c:	09520900 	ldmdbeq	r2, {r8, fp}^
    2630:	9b010000 	blls	42638 <__bss_end__+0x33c70>
    2634:	00000133 	andeq	r0, r0, r3, lsr r1
    2638:	000010cd 	andeq	r1, r0, sp, asr #1
    263c:	000a6e09 	andeq	r6, sl, r9, lsl #28
    2640:	2c9d0100 	ldfcss	f0, [sp], {0}
    2644:	22000000 	andcs	r0, r0, #0
    2648:	09000011 	stmdbeq	r0, {r0, r4}
    264c:	000009ef 	andeq	r0, r0, pc, ror #19
    2650:	002cab01 	eoreq	sl, ip, r1, lsl #22
    2654:	12ee0000 	rscne	r0, lr, #0
    2658:	2c0a0000 	stccs	0, cr0, [sl], {-0}
    265c:	8e000091 	mcrhi	0, 0, r0, cr0, cr1, {4}
    2660:	87000008 	strhi	r0, [r0, -r8]
    2664:	0b000002 	bleq	2674 <_start-0x598c>
    2668:	75025001 	strvc	r5, [r2, #-1]
    266c:	580c0000 	stmdapl	ip, {}	; <UNPREDICTABLE>
    2670:	af000091 	svcge	0x00000091
    2674:	0b000008 	bleq	269c <_start-0x5964>
    2678:	75025001 	strvc	r5, [r2, #-1]
    267c:	15000000 	strne	r0, [r0, #-0]
    2680:	00000995 	muleq	r0, r5, r9
    2684:	0064b301 	rsbeq	fp, r4, r1, lsl #6
    2688:	91640000 	cmnls	r4, r0
    268c:	004c0000 	subeq	r0, ip, r0
    2690:	9c010000 	stcls	0, cr0, [r1], {-0}
    2694:	000002e0 	andeq	r0, r0, r0, ror #5
    2698:	6e697008 	cdpvs	0, 6, cr7, cr9, cr8, {0}
    269c:	2cb30100 	ldfcss	f0, [r3]
    26a0:	0c000000 	stceq	0, cr0, [r0], {-0}
    26a4:	16000013 			; <UNDEFINED> instruction: 0x16000013
    26a8:	b9010076 	stmdblt	r1, {r1, r2, r4, r5, r6}
    26ac:	0000002c 	andeq	r0, r0, ip, lsr #32
    26b0:	00001364 	andeq	r1, r0, r4, ror #6
    26b4:	00918417 	addseq	r8, r1, r7, lsl r4
    26b8:	00088e00 	andeq	r8, r8, r0, lsl #28
    26bc:	91941700 	orrsls	r1, r4, r0, lsl #14
    26c0:	088e0000 	stmeq	lr, {}	; <UNPREDICTABLE>
    26c4:	07000000 	streq	r0, [r0, -r0]
    26c8:	000009f7 	strdeq	r0, [r0], -r7
    26cc:	91b0c501 	lslsls	ip, r1, #10
    26d0:	00780000 	rsbseq	r0, r8, r0
    26d4:	9c010000 	stcls	0, cr0, [r1], {-0}
    26d8:	000003aa 	andeq	r0, r0, sl, lsr #7
    26dc:	6e697008 	cdpvs	0, 6, cr7, cr9, cr8, {0}
    26e0:	2cc50100 	stfcse	f0, [r5], {0}
    26e4:	9a000000 	bls	26ec <_start-0x5914>
    26e8:	08000013 	stmdaeq	r0, {r0, r1, r4}
    26ec:	c5010076 	strgt	r0, [r1, #-118]	; 0x76
    26f0:	0000002c 	andeq	r0, r0, ip, lsr #32
    26f4:	000013d4 	ldrdeq	r1, [r0], -r4
    26f8:	00013e18 	andeq	r3, r1, r8, lsl lr
    26fc:	0091c400 	addseq	ip, r1, r0, lsl #8
    2700:	00003000 	andeq	r3, r0, r0
    2704:	5fcc0100 	svcpl	0x00cc0100
    2708:	13000003 	movwne	r0, #3
    270c:	0000014a 	andeq	r0, r0, sl, asr #2
    2710:	0000140e 	andeq	r1, r0, lr, lsl #8
    2714:	0091c419 	addseq	ip, r1, r9, lsl r4
    2718:	00003000 	andeq	r3, r0, r0
    271c:	01551400 	cmpeq	r5, r0, lsl #8
    2720:	142f0000 	strtne	r0, [pc], #-0	; 2728 <_start-0x58d8>
    2724:	60140000 	andsvs	r0, r4, r0
    2728:	65000001 	strvs	r0, [r0, #-1]
    272c:	0c000014 	stceq	0, cr0, [r0], {20}
    2730:	000091f0 	strdeq	r9, [r0], -r0
    2734:	000008af 	andeq	r0, r0, pc, lsr #17
    2738:	0751010b 	ldrbeq	r0, [r1, -fp, lsl #2]
    273c:	5001f331 	andpl	pc, r1, r1, lsr r3	; <UNPREDICTABLE>
    2740:	00241a4f 	eoreq	r1, r4, pc, asr #20
    2744:	b01a0000 	andslt	r0, sl, r0
    2748:	f4000001 	vst4.8	{d0-d3}, [r0], r1
    274c:	34000091 	strcc	r0, [r0], #-145	; 0x91
    2750:	01000000 	mrseq	r0, (UNDEF: 0)
    2754:	01bc13ce 			; <UNDEFINED> instruction: 0x01bc13ce
    2758:	14a50000 	strtne	r0, [r5], #0
    275c:	f4190000 			; <UNDEFINED> instruction: 0xf4190000
    2760:	34000091 	strcc	r0, [r0], #-145	; 0x91
    2764:	14000000 	strne	r0, [r0], #-0
    2768:	000001c7 	andeq	r0, r0, r7, asr #3
    276c:	000014c6 	andeq	r1, r0, r6, asr #9
    2770:	0001d214 	andeq	sp, r1, r4, lsl r2
    2774:	0014fc00 	andseq	pc, r4, r0, lsl #24
    2778:	92200c00 	eorls	r0, r0, #0, 24
    277c:	08af0000 	stmiaeq	pc!, {}	; <UNPREDICTABLE>
    2780:	010b0000 	mrseq	r0, (UNDEF: 11)
    2784:	f3310751 	vaba.u<illegal width 64>	q0, <illegal reg q0.5>, <illegal reg q0.5>
    2788:	1a4f5001 	bne	13d6794 <__bss_end__+0x13c7dcc>
    278c:	00000024 	andeq	r0, r0, r4, lsr #32
    2790:	02c00700 	sbceq	r0, r0, #0, 14
    2794:	d1010000 	mrsle	r0, (UNDEF: 1)
    2798:	00009228 	andeq	r9, r0, r8, lsr #4
    279c:	000000d8 	ldrdeq	r0, [r0], -r8
    27a0:	042f9c01 	strteq	r9, [pc], #-3073	; 27a8 <_start-0x5858>
    27a4:	70080000 	andvc	r0, r8, r0
    27a8:	01006e69 	tsteq	r0, r9, ror #28
    27ac:	00002cd1 	ldrdeq	r2, [r0], -r1
    27b0:	00153c00 	andseq	r3, r5, r0, lsl #24
    27b4:	0a0c1b00 	beq	3093bc <__bss_end__+0x2fa9f4>
    27b8:	d1010000 	mrsle	r0, (UNDEF: 1)
    27bc:	000000b2 	strheq	r0, [r0], -r2
    27c0:	0000155a 	andeq	r1, r0, sl, asr r5
    27c4:	00095209 	andeq	r5, r9, r9, lsl #4
    27c8:	33d90100 	bicscc	r0, r9, #0, 2
    27cc:	7b000001 	blvc	27d8 <_start-0x5828>
    27d0:	09000015 	stmdbeq	r0, {r0, r2, r4}
    27d4:	00000a6e 	andeq	r0, r0, lr, ror #20
    27d8:	002cda01 	eoreq	sp, ip, r1, lsl #20
    27dc:	15d00000 	ldrbne	r0, [r0]
    27e0:	ef090000 	svc	0x00090000
    27e4:	01000009 	tsteq	r0, r9
    27e8:	00002ce8 	andeq	r2, r0, r8, ror #25
    27ec:	00179c00 	andseq	r9, r7, r0, lsl #24
    27f0:	92c40a00 	sbcls	r0, r4, #0, 20
    27f4:	088e0000 	stmeq	lr, {}	; <UNPREDICTABLE>
    27f8:	041e0000 	ldreq	r0, [lr], #-0
    27fc:	010b0000 	mrseq	r0, (UNDEF: 11)
    2800:	00760250 	rsbseq	r0, r6, r0, asr r2
    2804:	92f40c00 	rscsls	r0, r4, #0, 24
    2808:	08af0000 	stmiaeq	pc!, {}	; <UNPREDICTABLE>
    280c:	010b0000 	mrseq	r0, (UNDEF: 11)
    2810:	00760250 	rsbseq	r0, r6, r0, asr r2
    2814:	fd1c0000 	ldc2	0, cr0, [ip, #-0]
    2818:	01000008 	tsteq	r0, r8
    281c:	00640105 	rsbeq	r0, r4, r5, lsl #2
    2820:	93000000 	movwls	r0, #0
    2824:	002c0000 	eoreq	r0, ip, r0
    2828:	9c010000 	stcls	0, cr0, [r1], {-0}
    282c:	00000463 	andeq	r0, r0, r3, ror #8
    2830:	0009001d 	andeq	r0, r9, sp, lsl r0
    2834:	01050100 	mrseq	r0, (UNDEF: 21)
    2838:	0000002c 	andeq	r0, r0, ip, lsr #32
    283c:	000017cd 	andeq	r1, r0, sp, asr #15
    2840:	00931017 	addseq	r1, r3, r7, lsl r0
    2844:	00088e00 	andeq	r8, r8, r0, lsl #28
    2848:	9f1e0000 	svcls	0x001e0000
    284c:	01000009 	tsteq	r0, r9
    2850:	932c0114 	teqls	ip, #20, 2
    2854:	00840000 	addeq	r0, r4, r0
    2858:	9c010000 	stcls	0, cr0, [r1], {-0}
    285c:	00000527 	andeq	r0, r0, r7, lsr #10
    2860:	6e69701f 	mcrvs	0, 3, r7, cr9, cr15, {0}
    2864:	01140100 	tsteq	r4, r0, lsl #2
    2868:	0000002c 	andeq	r0, r0, ip, lsr #32
    286c:	000017ee 	andeq	r1, r0, lr, ror #15
    2870:	00092420 	andeq	r2, r9, r0, lsr #8
    2874:	01260100 	teqeq	r6, r0, lsl #2
    2878:	0000002c 	andeq	r0, r0, ip, lsr #32
    287c:	0000181a 	andeq	r1, r0, sl, lsl r8
    2880:	00934821 	addseq	r4, r3, r1, lsr #16
    2884:	00001c00 	andeq	r1, r0, r0, lsl #24
    2888:	0004c900 	andeq	ip, r4, r0, lsl #18
    288c:	09ef2000 	stmibeq	pc!, {sp}^	; <UNPREDICTABLE>
    2890:	1d010000 	stcne	0, cr0, [r1, #-0]
    2894:	00002c01 	andeq	r2, r0, r1, lsl #24
    2898:	00183800 	andseq	r3, r8, r0, lsl #16
    289c:	93541700 	cmpls	r4, #0, 14
    28a0:	088e0000 	stmeq	lr, {}	; <UNPREDICTABLE>
    28a4:	64170000 	ldrvs	r0, [r7], #-0
    28a8:	af000093 	svcge	0x00000093
    28ac:	00000008 	andeq	r0, r0, r8
    28b0:	00936821 	addseq	r6, r3, r1, lsr #16
    28b4:	00002000 	andeq	r2, r0, r0
    28b8:	0004f900 	andeq	pc, r4, r0, lsl #18
    28bc:	09ef2000 	stmibeq	pc!, {sp}^	; <UNPREDICTABLE>
    28c0:	21010000 	mrscs	r0, (UNDEF: 1)
    28c4:	00002c01 	andeq	r2, r0, r1, lsl #24
    28c8:	00185600 	andseq	r5, r8, r0, lsl #12
    28cc:	93741700 	cmnls	r4, #0, 14
    28d0:	088e0000 	stmeq	lr, {}	; <UNPREDICTABLE>
    28d4:	88170000 	ldmdahi	r7, {}	; <UNPREDICTABLE>
    28d8:	af000093 	svcge	0x00000093
    28dc:	00000008 	andeq	r0, r0, r8
    28e0:	00934017 	addseq	r4, r3, r7, lsl r0
    28e4:	0008cb00 	andeq	ip, r8, r0, lsl #22
    28e8:	938c1700 	orrls	r1, ip, #0, 14
    28ec:	08cb0000 	stmiaeq	fp, {}^	; <UNPREDICTABLE>
    28f0:	98170000 	ldmdals	r7, {}	; <UNPREDICTABLE>
    28f4:	8e000093 	mcrhi	0, 0, r0, cr0, cr3, {4}
    28f8:	17000008 	strne	r0, [r0, -r8]
    28fc:	000093a4 	andeq	r9, r0, r4, lsr #7
    2900:	000008af 	andeq	r0, r0, pc, lsr #17
    2904:	0093a817 	addseq	sl, r3, r7, lsl r8
    2908:	0008cb00 	andeq	ip, r8, r0, lsl #22
    290c:	581e0000 	ldmdapl	lr, {}	; <UNPREDICTABLE>
    2910:	0100000a 	tsteq	r0, sl
    2914:	93b00131 	movsls	r0, #1073741836	; 0x4000000c
    2918:	00840000 	addeq	r0, r4, r0
    291c:	9c010000 	stcls	0, cr0, [r1], {-0}
    2920:	000005eb 	andeq	r0, r0, fp, ror #11
    2924:	6e69701f 	mcrvs	0, 3, r7, cr9, cr15, {0}
    2928:	01310100 	teqeq	r1, r0, lsl #2
    292c:	0000002c 	andeq	r0, r0, ip, lsr #32
    2930:	00001874 	andeq	r1, r0, r4, ror r8
    2934:	00092420 	andeq	r2, r9, r0, lsr #8
    2938:	01420100 	mrseq	r0, (UNDEF: 82)
    293c:	0000002c 	andeq	r0, r0, ip, lsr #32
    2940:	000018a0 	andeq	r1, r0, r0, lsr #17
    2944:	0093cc21 	addseq	ip, r3, r1, lsr #24
    2948:	00001c00 	andeq	r1, r0, r0, lsl #24
    294c:	00058d00 	andeq	r8, r5, r0, lsl #26
    2950:	09ef2000 	stmibeq	pc!, {sp}^	; <UNPREDICTABLE>
    2954:	39010000 	stmdbcc	r1, {}	; <UNPREDICTABLE>
    2958:	00002c01 	andeq	r2, r0, r1, lsl #24
    295c:	0018be00 	andseq	fp, r8, r0, lsl #28
    2960:	93d81700 	bicsls	r1, r8, #0, 14
    2964:	088e0000 	stmeq	lr, {}	; <UNPREDICTABLE>
    2968:	e8170000 	ldmda	r7, {}	; <UNPREDICTABLE>
    296c:	af000093 	svcge	0x00000093
    2970:	00000008 	andeq	r0, r0, r8
    2974:	0093ec21 	addseq	lr, r3, r1, lsr #24
    2978:	00002000 	andeq	r2, r0, r0
    297c:	0005bd00 	andeq	fp, r5, r0, lsl #26
    2980:	09ef2000 	stmibeq	pc!, {sp}^	; <UNPREDICTABLE>
    2984:	3d010000 	stccc	0, cr0, [r1, #-0]
    2988:	00002c01 	andeq	r2, r0, r1, lsl #24
    298c:	0018dc00 	andseq	sp, r8, r0, lsl #24
    2990:	93f81700 	mvnsls	r1, #0, 14
    2994:	088e0000 	stmeq	lr, {}	; <UNPREDICTABLE>
    2998:	0c170000 	ldceq	0, cr0, [r7], {-0}
    299c:	af000094 	svcge	0x00000094
    29a0:	00000008 	andeq	r0, r0, r8
    29a4:	0093c417 	addseq	ip, r3, r7, lsl r4
    29a8:	0008cb00 	andeq	ip, r8, r0, lsl #22
    29ac:	94101700 	ldrls	r1, [r0], #-1792	; 0x700
    29b0:	08cb0000 	stmiaeq	fp, {}^	; <UNPREDICTABLE>
    29b4:	1c170000 	ldcne	0, cr0, [r7], {-0}
    29b8:	8e000094 	mcrhi	0, 0, r0, cr0, cr4, {4}
    29bc:	17000008 	strne	r0, [r0, -r8]
    29c0:	00009428 	andeq	r9, r0, r8, lsr #8
    29c4:	000008af 	andeq	r0, r0, pc, lsr #17
    29c8:	00942c17 	addseq	r2, r4, r7, lsl ip
    29cc:	0008cb00 	andeq	ip, r8, r0, lsl #22
    29d0:	cc1c0000 	ldcgt	0, cr0, [ip], {-0}
    29d4:	01000008 	tsteq	r0, r8
    29d8:	0064014c 	rsbeq	r0, r4, ip, asr #2
    29dc:	94340000 	ldrtls	r0, [r4], #-0
    29e0:	00840000 	addeq	r0, r4, r0
    29e4:	9c010000 	stcls	0, cr0, [r1], {-0}
    29e8:	00000691 	muleq	r0, r1, r6
    29ec:	6e69701f 	mcrvs	0, 3, r7, cr9, cr15, {0}
    29f0:	014c0100 	mrseq	r0, (UNDEF: 92)
    29f4:	0000002c 	andeq	r0, r0, ip, lsr #32
    29f8:	000018fa 	strdeq	r1, [r0], -sl
    29fc:	00945021 	addseq	r5, r4, r1, lsr #32
    2a00:	00002400 	andeq	r2, r0, r0, lsl #8
    2a04:	00064500 	andeq	r4, r6, r0, lsl #10
    2a08:	093b2000 	ldmdbeq	fp!, {sp}
    2a0c:	53010000 	movwpl	r0, #4096	; 0x1000
    2a10:	00002c01 	andeq	r2, r0, r1, lsl #24
    2a14:	00193c00 	andseq	r3, r9, r0, lsl #24
    2a18:	945c1700 	ldrbls	r1, [ip], #-1792	; 0x700
    2a1c:	088e0000 	stmeq	lr, {}	; <UNPREDICTABLE>
    2a20:	6c170000 	ldcvs	0, cr0, [r7], {-0}
    2a24:	cb000094 	blgt	2c7c <_start-0x5384>
    2a28:	00000008 	andeq	r0, r0, r8
    2a2c:	00947421 	addseq	r7, r4, r1, lsr #8
    2a30:	00002c00 	andeq	r2, r0, r0, lsl #24
    2a34:	00067e00 	andeq	r7, r6, r0, lsl #28
    2a38:	093b2000 	ldmdbeq	fp!, {sp}
    2a3c:	56010000 	strpl	r0, [r1], -r0
    2a40:	00002c01 	andeq	r2, r0, r1, lsl #24
    2a44:	00195600 	andseq	r5, r9, r0, lsl #12
    2a48:	94801700 	strls	r1, [r0], #1792	; 0x700
    2a4c:	088e0000 	stmeq	lr, {}	; <UNPREDICTABLE>
    2a50:	8c170000 	ldchi	0, cr0, [r7], {-0}
    2a54:	cb000094 	blgt	2cac <_start-0x5354>
    2a58:	17000008 	strne	r0, [r0, -r8]
    2a5c:	00009498 	muleq	r0, r8, r4
    2a60:	000008cb 	andeq	r0, r0, fp, asr #17
    2a64:	94481700 	strbls	r1, [r8], #-1792	; 0x700
    2a68:	08cb0000 	stmiaeq	fp, {}^	; <UNPREDICTABLE>
    2a6c:	a4170000 	ldrge	r0, [r7], #-0
    2a70:	cb000094 	blgt	2cc8 <_start-0x5338>
    2a74:	00000008 	andeq	r0, r0, r8
    2a78:	0009c21e 	andeq	ip, r9, lr, lsl r2
    2a7c:	015f0100 	cmpeq	pc, r0, lsl #2
    2a80:	000094b8 			; <UNDEFINED> instruction: 0x000094b8
    2a84:	00000058 	andeq	r0, r0, r8, asr r0
    2a88:	06f69c01 	ldrbteq	r9, [r6], r1, lsl #24
    2a8c:	701f0000 	andsvc	r0, pc, r0
    2a90:	01006e69 	tsteq	r0, r9, ror #28
    2a94:	002c015f 	eoreq	r0, ip, pc, asr r1
    2a98:	19690000 	stmdbne	r9!, {}^	; <UNPREDICTABLE>
    2a9c:	cc170000 	ldcgt	0, cr0, [r7], {-0}
    2aa0:	cb000094 	blgt	2cf8 <_start-0x5308>
    2aa4:	0a000008 	beq	2acc <_start-0x5534>
    2aa8:	000094e8 	andeq	r9, r0, r8, ror #9
    2aac:	000008af 	andeq	r0, r0, pc, lsr #17
    2ab0:	000006d6 	ldrdeq	r0, [r0], -r6
    2ab4:	0451010b 	ldrbeq	r0, [r1], #-267	; 0x10b
    2ab8:	24007431 	strcs	r7, [r0], #-1073	; 0x431
    2abc:	95040a00 	strls	r0, [r4, #-2560]	; 0xa00
    2ac0:	08af0000 	stmiaeq	pc!, {}	; <UNPREDICTABLE>
    2ac4:	06ec0000 	strbteq	r0, [ip], r0
    2ac8:	010b0000 	mrseq	r0, (UNDEF: 11)
    2acc:	74310451 	ldrtvc	r0, [r1], #-1105	; 0x451
    2ad0:	17002400 	strne	r2, [r0, -r0, lsl #8]
    2ad4:	00009508 	andeq	r9, r0, r8, lsl #10
    2ad8:	000008cb 	andeq	r0, r0, fp, asr #17
    2adc:	09832200 	stmibeq	r3, {r9, sp}
    2ae0:	28010000 	stmdacs	r1, {}	; <UNPREDICTABLE>
    2ae4:	00000133 	andeq	r0, r0, r3, lsr r1
    2ae8:	a0740305 	rsbsge	r0, r4, r5, lsl #6
    2aec:	02220000 	eoreq	r0, r2, #0
    2af0:	0100000a 	tsteq	r0, sl
    2af4:	00013329 	andeq	r3, r1, r9, lsr #6
    2af8:	70030500 	andvc	r0, r3, r0, lsl #10
    2afc:	220000a0 	andcs	r0, r0, #160	; 0xa0
    2b00:	00000a79 	andeq	r0, r0, r9, ror sl
    2b04:	01332a01 	teqeq	r3, r1, lsl #20
    2b08:	03050000 	movweq	r0, #20480	; 0x5000
    2b0c:	0000a06c 	andeq	sl, r0, ip, rrx
    2b10:	00095b22 	andeq	r5, r9, r2, lsr #22
    2b14:	332c0100 	teqcc	ip, #0, 2
    2b18:	05000001 	streq	r0, [r0, #-1]
    2b1c:	00a01803 	adceq	r1, r0, r3, lsl #16
    2b20:	09632200 	stmdbeq	r3!, {r9, sp}^
    2b24:	2d010000 	stccs	0, cr0, [r1, #-0]
    2b28:	00000133 	andeq	r0, r0, r3, lsr r1
    2b2c:	a01c0305 	andsge	r0, ip, r5, lsl #6
    2b30:	e0220000 	eor	r0, r2, r0
    2b34:	01000008 	tsteq	r0, r8
    2b38:	0001332e 	andeq	r3, r1, lr, lsr #6
    2b3c:	20030500 	andcs	r0, r3, r0, lsl #10
    2b40:	220000a0 	andcs	r0, r0, #160	; 0xa0
    2b44:	0000096b 	andeq	r0, r0, fp, ror #18
    2b48:	01332f01 	teqeq	r3, r1, lsl #30
    2b4c:	03050000 	movweq	r0, #20480	; 0x5000
    2b50:	0000a024 	andeq	sl, r0, r4, lsr #32
    2b54:	00097322 	andeq	r7, r9, r2, lsr #6
    2b58:	33300100 	teqcc	r0, #0, 2
    2b5c:	05000001 	streq	r0, [r0, #-1]
    2b60:	00a02803 	adceq	r2, r0, r3, lsl #16
    2b64:	097b2200 	ldmdbeq	fp!, {r9, sp}^
    2b68:	31010000 	mrscc	r0, (UNDEF: 1)
    2b6c:	00000133 	andeq	r0, r0, r3, lsr r1
    2b70:	a02c0305 	eorge	r0, ip, r5, lsl #6
    2b74:	2d220000 	stccs	0, cr0, [r2, #-0]
    2b78:	01000009 	tsteq	r0, r9
    2b7c:	00013333 	andeq	r3, r1, r3, lsr r3
    2b80:	30030500 	andcc	r0, r3, r0, lsl #10
    2b84:	220000a0 	andcs	r0, r0, #160	; 0xa0
    2b88:	00000934 	andeq	r0, r0, r4, lsr r9
    2b8c:	01333401 	teqeq	r3, r1, lsl #8
    2b90:	03050000 	movweq	r0, #20480	; 0x5000
    2b94:	0000a034 	andeq	sl, r0, r4, lsr r0
    2b98:	0008e822 	andeq	lr, r8, r2, lsr #16
    2b9c:	33360100 	teqcc	r6, #0, 2
    2ba0:	05000001 	streq	r0, [r0, #-1]
    2ba4:	00a03803 	adceq	r3, r0, r3, lsl #16
    2ba8:	098e2200 	stmibeq	lr, {r9, sp}
    2bac:	37010000 	strcc	r0, [r1, -r0]
    2bb0:	00000133 	andeq	r0, r0, r3, lsr r1
    2bb4:	a03c0305 	eorsge	r0, ip, r5, lsl #6
    2bb8:	44220000 	strtmi	r0, [r2], #-0
    2bbc:	01000009 	tsteq	r0, r9
    2bc0:	00013339 	andeq	r3, r1, r9, lsr r3
    2bc4:	40030500 	andmi	r0, r3, r0, lsl #10
    2bc8:	220000a0 	andcs	r0, r0, #160	; 0xa0
    2bcc:	0000094b 	andeq	r0, r0, fp, asr #18
    2bd0:	01333a01 	teqeq	r3, r1, lsl #20
    2bd4:	03050000 	movweq	r0, #20480	; 0x5000
    2bd8:	0000a044 	andeq	sl, r0, r4, asr #32
    2bdc:	0009d322 	andeq	sp, r9, r2, lsr #6
    2be0:	33f00100 	mvnscc	r0, #0, 2
    2be4:	05000001 	streq	r0, [r0, #-1]
    2be8:	00a06803 	adceq	r6, r0, r3, lsl #16
    2bec:	09e12200 	stmibeq	r1!, {r9, sp}^
    2bf0:	f1010000 	setend	le
    2bf4:	00000133 	andeq	r0, r0, r3, lsr r1
    2bf8:	a0480305 	subge	r0, r8, r5, lsl #6
    2bfc:	20220000 	eorcs	r0, r2, r0
    2c00:	0100000a 	tsteq	r0, sl
    2c04:	000133f3 	strdeq	r3, [r1], -r3	; <UNPREDICTABLE>
    2c08:	60030500 	andvs	r0, r3, r0, lsl #10
    2c0c:	220000a0 	andcs	r0, r0, #160	; 0xa0
    2c10:	00000a27 	andeq	r0, r0, r7, lsr #20
    2c14:	0133f401 	teqeq	r3, r1, lsl #8
    2c18:	03050000 	movweq	r0, #20480	; 0x5000
    2c1c:	0000a064 	andeq	sl, r0, r4, rrx
    2c20:	0009b422 	andeq	fp, r9, r2, lsr #8
    2c24:	33f60100 	mvnscc	r0, #0, 2
    2c28:	05000001 	streq	r0, [r0, #-1]
    2c2c:	00a04c03 	adceq	r4, r0, r3, lsl #24
    2c30:	09bb2200 	ldmibeq	fp!, {r9, sp}
    2c34:	f7010000 			; <UNDEFINED> instruction: 0xf7010000
    2c38:	00000133 	andeq	r0, r0, r3, lsr r1
    2c3c:	a0500305 	subsge	r0, r0, r5, lsl #6
    2c40:	3a220000 	bcc	882c48 <__bss_end__+0x874280>
    2c44:	0100000a 	tsteq	r0, sl
    2c48:	000133f9 	strdeq	r3, [r1], -r9
    2c4c:	58030500 	stmdapl	r3, {r8, sl}
    2c50:	220000a0 	andcs	r0, r0, #160	; 0xa0
    2c54:	00000a41 	andeq	r0, r0, r1, asr #20
    2c58:	0133fa01 	teqeq	r3, r1, lsl #20
    2c5c:	03050000 	movweq	r0, #20480	; 0x5000
    2c60:	0000a05c 	andeq	sl, r0, ip, asr r0
    2c64:	0008ef22 	andeq	lr, r8, r2, lsr #30
    2c68:	33fc0100 	mvnscc	r0, #0, 2
    2c6c:	05000001 	streq	r0, [r0, #-1]
    2c70:	00a05403 	adceq	r5, r0, r3, lsl #8
    2c74:	04bb2300 	ldrteq	r2, [fp], #768	; 0x300
    2c78:	20010000 	andcs	r0, r1, r0
    2c7c:	0000002c 	andeq	r0, r0, ip, lsr #32
    2c80:	000008a3 	andeq	r0, r0, r3, lsr #17
    2c84:	0008a324 	andeq	sl, r8, r4, lsr #6
    2c88:	040d0000 	streq	r0, [sp], #-0
    2c8c:	000008a9 	andeq	r0, r0, r9, lsr #17
    2c90:	0008ae25 	andeq	sl, r8, r5, lsr #28
    2c94:	27272600 	strcs	r2, [r7, -r0, lsl #12]!
    2c98:	01000004 	tsteq	r0, r4
    2c9c:	0008c51e 	andeq	ip, r8, lr, lsl r5
    2ca0:	08c52400 	stmiaeq	r5, {sl, sp}^
    2ca4:	2c240000 	stccs	0, cr0, [r4], #-0
    2ca8:	00000000 	andeq	r0, r0, r0
    2cac:	08ae040d 	stmiaeq	lr!, {r0, r2, r3, sl}
    2cb0:	35280000 	strcc	r0, [r8, #-0]!
    2cb4:	03000004 	movweq	r0, #4
    2cb8:	11ca0087 	bicne	r0, sl, r7, lsl #1
    2cbc:	00040000 	andeq	r0, r4, r0
    2cc0:	00000f1a 	andeq	r0, r0, sl, lsl pc
    2cc4:	03b10104 			; <UNDEFINED> instruction: 0x03b10104
    2cc8:	04010000 	streq	r0, [r1], #-0
    2ccc:	ac00000b 	stcge	0, cr0, [r0], {11}
    2cd0:	10000005 	andne	r0, r0, r5
    2cd4:	20000095 	mulcs	r0, r5, r0
    2cd8:	de000006 	cdple	0, 0, cr0, cr0, cr6, {0}
    2cdc:	0200000d 	andeq	r0, r0, #13
    2ce0:	6e690504 	cdpvs	5, 6, cr0, cr9, cr4, {0}
    2ce4:	04030074 	streq	r0, [r3], #-116	; 0x74
    2ce8:	00006407 	andeq	r6, r0, r7, lsl #8
    2cec:	06010300 	streq	r0, [r1], -r0, lsl #6
    2cf0:	00000365 	andeq	r0, r0, r5, ror #6
    2cf4:	79050203 	stmdbvc	r5, {r0, r1, r9}
    2cf8:	03000003 	movweq	r0, #3
    2cfc:	00a30504 	adceq	r0, r3, r4, lsl #10
    2d00:	08030000 	stmdaeq	r3, {}	; <UNPREDICTABLE>
    2d04:	00009e05 	andeq	r9, r0, r5, lsl #28
    2d08:	04b30400 	ldrteq	r0, [r3], #1024	; 0x400
    2d0c:	2e030000 	cdpcs	0, 0, cr0, cr3, cr0, {0}
    2d10:	0000005a 	andeq	r0, r0, sl, asr r0
    2d14:	63080103 	movwvs	r0, #33027	; 0x8103
    2d18:	03000003 	movweq	r0, #3
    2d1c:	022e0702 	eoreq	r0, lr, #524288	; 0x80000
    2d20:	a3040000 	movwge	r0, #16384	; 0x4000
    2d24:	03000003 	movweq	r0, #3
    2d28:	00007334 	andeq	r7, r0, r4, lsr r3
    2d2c:	07040300 	streq	r0, [r4, -r0, lsl #6]
    2d30:	0000005f 	andeq	r0, r0, pc, asr r0
    2d34:	5a070803 	bpl	1c4d48 <__bss_end__+0x1b6380>
    2d38:	03000000 	movweq	r0, #0
    2d3c:	02b70704 	adcseq	r0, r7, #4, 14	; 0x100000
    2d40:	04050000 	streq	r0, [r5], #-0
    2d44:	00900406 	addseq	r0, r0, r6, lsl #8
    2d48:	01030000 	mrseq	r0, (UNDEF: 3)
    2d4c:	00036c08 	andeq	r6, r3, r8, lsl #24
    2d50:	9d040600 	stcls	6, cr0, [r4, #-0]
    2d54:	07000000 	streq	r0, [r0, -r0]
    2d58:	00000090 	muleq	r0, r0, r0
    2d5c:	0e040c08 	cdpeq	12, 0, cr0, cr4, cr8, {0}
    2d60:	000000d9 	ldrdeq	r0, [r0], -r9
    2d64:	00787409 	rsbseq	r7, r8, r9, lsl #8
    2d68:	004f0f04 	subeq	r0, pc, r4, lsl #30
    2d6c:	09000000 	stmdbeq	r0, {}	; <UNPREDICTABLE>
    2d70:	04007872 	streq	r7, [r0], #-2162	; 0x872
    2d74:	00004f0f 	andeq	r4, r0, pc, lsl #30
    2d78:	ac0a0100 	stfges	f0, [sl], {-0}
    2d7c:	04000003 	streq	r0, [r0], #-3
    2d80:	00006810 	andeq	r6, r0, r0, lsl r8
    2d84:	900a0400 	andls	r0, sl, r0, lsl #8
    2d88:	04000000 	streq	r0, [r0], #-0
    2d8c:	00006811 	andeq	r6, r0, r1, lsl r8
    2d90:	04000800 	streq	r0, [r0], #-2048	; 0x800
    2d94:	00000347 	andeq	r0, r0, r7, asr #6
    2d98:	00a21204 	adceq	r1, r2, r4, lsl #4
    2d9c:	f0040000 			; <UNDEFINED> instruction: 0xf0040000
    2da0:	05000005 	streq	r0, [r0, #-5]
    2da4:	0000ef28 	andeq	lr, r0, r8, lsr #30
    2da8:	06170b00 	ldreq	r0, [r7], -r0, lsl #22
    2dac:	09040000 	stmdbeq	r4, {}	; <UNPREDICTABLE>
    2db0:	00010600 	andeq	r0, r1, r0, lsl #12
    2db4:	06260c00 	strteq	r0, [r6], -r0, lsl #24
    2db8:	00880000 	addeq	r0, r8, r0
    2dbc:	00000000 	andeq	r0, r0, r0
    2dc0:	00061904 	andeq	r1, r6, r4, lsl #18
    2dc4:	e4620500 	strbt	r0, [r2], #-1280	; 0x500
    2dc8:	0d000000 	stceq	0, cr0, [r0, #-0]
    2dcc:	00000adc 	ldrdeq	r0, [r0], -ip
    2dd0:	3f030902 	svccc	0x00030902
    2dd4:	0e000001 	cdpeq	0, 0, cr0, cr0, cr1, {0}
    2dd8:	0000079c 	muleq	r0, ip, r7
    2ddc:	002c0902 	eoreq	r0, ip, r2, lsl #18
    2de0:	6e0f0000 	cdpvs	0, 0, cr0, cr15, cr0, {0}
    2de4:	2c090200 	sfmcs	f0, 4, [r9], {-0}
    2de8:	10000000 	andne	r0, r0, r0
    2dec:	000b3211 	andeq	r3, fp, r1, lsl r2
    2df0:	2c0c0200 	sfmcs	f0, 4, [ip], {-0}
    2df4:	00000000 	andeq	r0, r0, r0
    2df8:	0a8f0d00 	beq	fe3c6200 <__bss_end__+0xfe3b7838>
    2dfc:	17020000 	strne	r0, [r2, -r0]
    2e00:	00017603 	andeq	r7, r1, r3, lsl #12
    2e04:	69700f00 	ldmdbvs	r0!, {r8, r9, sl, fp}^
    2e08:	1702006e 	strne	r0, [r2, -lr, rrx]
    2e0c:	0000002c 	andeq	r0, r0, ip, lsr #32
    2e10:	0200760f 	andeq	r7, r0, #15728640	; 0xf00000
    2e14:	00002c17 	andeq	r2, r0, r7, lsl ip
    2e18:	079c0e00 	ldreq	r0, [ip, r0, lsl #28]
    2e1c:	17020000 	strne	r0, [r2, -r0]
    2e20:	0000002c 	andeq	r0, r0, ip, lsr #32
    2e24:	000ae20e 	andeq	lr, sl, lr, lsl #4
    2e28:	2c170200 	lfmcs	f0, 4, [r7], {-0}
    2e2c:	00000000 	andeq	r0, r0, r0
    2e30:	00025e12 	andeq	r5, r2, r2, lsl lr
    2e34:	10090100 	andne	r0, r9, r0, lsl #2
    2e38:	54000095 	strpl	r0, [r0], #-149	; 0x95
    2e3c:	01000001 	tsteq	r0, r1
    2e40:	0007229c 	muleq	r7, ip, r2
    2e44:	075e1300 	ldrbeq	r1, [lr, -r0, lsl #6]
    2e48:	09010000 	stmdbeq	r1, {}	; <UNPREDICTABLE>
    2e4c:	00000722 	andeq	r0, r0, r2, lsr #14
    2e50:	00001995 	muleq	r0, r5, r9
    2e54:	01006314 	tsteq	r0, r4, lsl r3
    2e58:	00005a09 	andeq	r5, r0, r9, lsl #20
    2e5c:	0019b600 	andseq	fp, r9, r0, lsl #12
    2e60:	78741500 	ldmdavc	r4!, {r8, sl, ip}^
    2e64:	250b0100 	strcs	r0, [fp, #-256]	; 0x100
    2e68:	06000000 	streq	r0, [r0], -r0
    2e6c:	ff080076 			; <UNDEFINED> instruction: 0xff080076
    2e70:	6e169f1a 	mrcvs	15, 0, r9, cr6, cr10, {0}
    2e74:	680c0100 	stmdavs	ip, {r8}
    2e78:	d7000000 	strle	r0, [r0, -r0]
    2e7c:	16000019 			; <UNDEFINED> instruction: 0x16000019
    2e80:	0d010075 	stceq	0, cr0, [r1, #-468]	; 0xfffffe2c
    2e84:	00000068 	andeq	r0, r0, r8, rrx
    2e88:	000019ea 	andeq	r1, r0, sl, ror #19
    2e8c:	01007315 	tsteq	r0, r5, lsl r3
    2e90:	0000680e 	andeq	r6, r0, lr, lsl #16
    2e94:	17540100 	ldrbne	r0, [r4, -r0, lsl #2]
    2e98:	00009520 	andeq	r9, r0, r0, lsr #10
    2e9c:	00000004 	andeq	r0, r0, r4
    2ea0:	000001f8 	strdeq	r0, [r0], -r8
    2ea4:	000b3218 	andeq	r3, fp, r8, lsl r2
    2ea8:	2c0e0100 	stfcss	f0, [lr], {-0}
    2eac:	01000000 	mrseq	r0, (UNDEF: 0)
    2eb0:	3f190054 	svccc	0x00190054
    2eb4:	24000001 	strcs	r0, [r0], #-1
    2eb8:	1c000095 	stcne	0, cr0, [r0], {149}	; 0x95
    2ebc:	01000000 	mrseq	r0, (UNDEF: 0)
    2ec0:	00027511 	andeq	r7, r2, r1, lsl r5
    2ec4:	016a1a00 	cmneq	sl, r0, lsl #20
    2ec8:	1a130000 	bne	4c2ed0 <__bss_end__+0x4b4508>
    2ecc:	5f1b0000 	svcpl	0x001b0000
    2ed0:	01000001 	tsteq	r0, r1
    2ed4:	01561c54 	cmpeq	r6, r4, asr ip
    2ed8:	1b000000 	blne	2ee0 <_start-0x5120>
    2edc:	0000014b 	andeq	r0, r0, fp, asr #2
    2ee0:	11195601 	tstne	r9, r1, lsl #12
    2ee4:	30000001 	andcc	r0, r0, r1
    2ee8:	10000095 	mulne	r0, r5, r0
    2eec:	02000000 	andeq	r0, r0, #0
    2ef0:	00025f1a 	andeq	r5, r2, sl, lsl pc
    2ef4:	01281a00 	teqeq	r8, r0, lsl #20
    2ef8:	1a260000 	bne	982f00 <__bss_end__+0x974538>
    2efc:	1d1b0000 	ldcne	0, cr0, [fp, #-0]
    2f00:	01000001 	tsteq	r0, r1
    2f04:	95301d54 	ldrls	r1, [r0, #-3412]!	; 0xd54
    2f08:	00040000 	andeq	r0, r4, r0
    2f0c:	321e0000 	andscc	r0, lr, #0
    2f10:	39000001 	stmdbcc	r0, {r0}
    2f14:	0000001a 	andeq	r0, r0, sl, lsl r0
    2f18:	95301f00 	ldrls	r1, [r0, #-3840]!	; 0xf00
    2f1c:	11310000 	teqne	r1, r0
    2f20:	01200000 	teqeq	r0, r0
    2f24:	20300151 	eorscs	r0, r0, r1, asr r1
    2f28:	76025001 	strvc	r5, [r2], -r1
    2f2c:	19000000 	stmdbne	r0, {}	; <UNPREDICTABLE>
    2f30:	0000013f 	andeq	r0, r0, pc, lsr r1
    2f34:	00009544 	andeq	r9, r0, r4, asr #10
    2f38:	0000001c 	andeq	r0, r0, ip, lsl r0
    2f3c:	02f81301 	rscseq	r1, r8, #67108864	; 0x4000000
    2f40:	6a1a0000 	bvs	682f48 <__bss_end__+0x674580>
    2f44:	4c000001 	stcmi	0, cr0, [r0], {1}
    2f48:	1b00001a 	blne	2fb8 <_start-0x5048>
    2f4c:	0000015f 	andeq	r0, r0, pc, asr r1
    2f50:	561a5401 	ldrpl	r5, [sl], -r1, lsl #8
    2f54:	6e000001 	cdpvs	0, 0, cr0, cr0, cr1, {0}
    2f58:	1b00001a 	blne	2fc8 <_start-0x5038>
    2f5c:	0000014b 	andeq	r0, r0, fp, asr #2
    2f60:	11195601 	tstne	r9, r1, lsl #12
    2f64:	50000001 	andpl	r0, r0, r1
    2f68:	10000095 	mulne	r0, r5, r0
    2f6c:	02000000 	andeq	r0, r0, #0
    2f70:	0002df1a 	andeq	sp, r2, sl, lsl pc
    2f74:	01281a00 	teqeq	r8, r0, lsl #20
    2f78:	1a9f0000 	bne	fe7c2f80 <__bss_end__+0xfe7b45b8>
    2f7c:	1d1b0000 	ldcne	0, cr0, [fp, #-0]
    2f80:	01000001 	tsteq	r0, r1
    2f84:	95501d54 	ldrbls	r1, [r0, #-3412]	; 0xd54
    2f88:	00040000 	andeq	r0, r4, r0
    2f8c:	321e0000 	andscc	r0, lr, #0
    2f90:	c1000001 	tstgt	r0, r1
    2f94:	0000001a 	andeq	r0, r0, sl, lsl r0
    2f98:	95501f00 	ldrbls	r1, [r0, #-3840]	; 0xf00
    2f9c:	11310000 	teqne	r1, r0
    2fa0:	01200000 	teqeq	r0, r0
    2fa4:	00770451 	rsbseq	r0, r7, r1, asr r4
    2fa8:	01201a31 	teqeq	r0, r1, lsr sl
    2fac:	00760250 	rsbseq	r0, r6, r0, asr r2
    2fb0:	3f190000 	svccc	0x00190000
    2fb4:	64000001 	strvs	r0, [r0], #-1
    2fb8:	1c000095 	stcne	0, cr0, [r0], {149}	; 0x95
    2fbc:	01000000 	mrseq	r0, (UNDEF: 0)
    2fc0:	00038015 	andeq	r8, r3, r5, lsl r0
    2fc4:	016a1a00 	cmneq	sl, r0, lsl #20
    2fc8:	1ad40000 	bne	ff502fd0 <__bss_end__+0xff4f4608>
    2fcc:	5f1b0000 	svcpl	0x001b0000
    2fd0:	01000001 	tsteq	r0, r1
    2fd4:	01561b54 	cmpeq	r6, r4, asr fp
    2fd8:	77080000 	strvc	r0, [r8, -r0]
    2fdc:	081a3200 	ldmdaeq	sl, {r9, ip, sp}
    2fe0:	1b9f1aff 	blne	fe7c9be4 <__bss_end__+0xfe7bb21c>
    2fe4:	0000014b 	andeq	r0, r0, fp, asr #2
    2fe8:	11195601 	tstne	r9, r1, lsl #12
    2fec:	70000001 	andvc	r0, r0, r1
    2ff0:	10000095 	mulne	r0, r5, r0
    2ff4:	02000000 	andeq	r0, r0, #0
    2ff8:	0003671a 	andeq	r6, r3, sl, lsl r7
    2ffc:	01281a00 	teqeq	r8, r0, lsl #20
    3000:	1af90000 	bne	ffe43008 <__bss_end__+0xffe34640>
    3004:	1d1b0000 	ldcne	0, cr0, [fp, #-0]
    3008:	01000001 	tsteq	r0, r1
    300c:	95701d54 	ldrbls	r1, [r0, #-3412]!	; 0xd54
    3010:	00040000 	andeq	r0, r4, r0
    3014:	321e0000 	andscc	r0, lr, #0
    3018:	1e000001 	cdpne	0, 0, cr0, cr0, cr1, {0}
    301c:	0000001b 	andeq	r0, r0, fp, lsl r0
    3020:	95701f00 	ldrbls	r1, [r0, #-3840]!	; 0xf00
    3024:	11310000 	teqne	r1, r0
    3028:	01200000 	teqeq	r0, r0
    302c:	00770451 	rsbseq	r0, r7, r1, asr r4
    3030:	01201a32 	teqeq	r0, r2, lsr sl
    3034:	00760250 	rsbseq	r0, r6, r0, asr r2
    3038:	3f190000 	svccc	0x00190000
    303c:	84000001 	strhi	r0, [r0], #-1
    3040:	1c000095 	stcne	0, cr0, [r0], {149}	; 0x95
    3044:	01000000 	mrseq	r0, (UNDEF: 0)
    3048:	00040817 	andeq	r0, r4, r7, lsl r8
    304c:	016a1a00 	cmneq	sl, r0, lsl #20
    3050:	1b310000 	blne	c43058 <__bss_end__+0xc34690>
    3054:	5f1b0000 	svcpl	0x001b0000
    3058:	01000001 	tsteq	r0, r1
    305c:	01561b54 	cmpeq	r6, r4, asr fp
    3060:	77080000 	strvc	r0, [r8, -r0]
    3064:	081a3400 	ldmdaeq	sl, {sl, ip, sp}
    3068:	1b9f1aff 	blne	fe7c9c6c <__bss_end__+0xfe7bb2a4>
    306c:	0000014b 	andeq	r0, r0, fp, asr #2
    3070:	11195601 	tstne	r9, r1, lsl #12
    3074:	90000001 	andls	r0, r0, r1
    3078:	10000095 	mulne	r0, r5, r0
    307c:	02000000 	andeq	r0, r0, #0
    3080:	0003ef1a 	andeq	lr, r3, sl, lsl pc
    3084:	01281a00 	teqeq	r8, r0, lsl #20
    3088:	1b530000 	blne	14c3090 <__bss_end__+0x14b46c8>
    308c:	1d1b0000 	ldcne	0, cr0, [fp, #-0]
    3090:	01000001 	tsteq	r0, r1
    3094:	95901d54 	ldrls	r1, [r0, #3412]	; 0xd54
    3098:	00040000 	andeq	r0, r4, r0
    309c:	321e0000 	andscc	r0, lr, #0
    30a0:	75000001 	strvc	r0, [r0, #-1]
    30a4:	0000001b 	andeq	r0, r0, fp, lsl r0
    30a8:	95901f00 	ldrls	r1, [r0, #3840]	; 0xf00
    30ac:	11310000 	teqne	r1, r0
    30b0:	01200000 	teqeq	r0, r0
    30b4:	00770451 	rsbseq	r0, r7, r1, asr r4
    30b8:	01201a34 	teqeq	r0, r4, lsr sl
    30bc:	00760250 	rsbseq	r0, r6, r0, asr r2
    30c0:	3f190000 	svccc	0x00190000
    30c4:	a4000001 	strge	r0, [r0], #-1
    30c8:	1c000095 	stcne	0, cr0, [r0], {149}	; 0x95
    30cc:	01000000 	mrseq	r0, (UNDEF: 0)
    30d0:	00049019 	andeq	r9, r4, r9, lsl r0
    30d4:	016a1a00 	cmneq	sl, r0, lsl #20
    30d8:	1b880000 	blne	fe2030e0 <__bss_end__+0xfe1f4718>
    30dc:	5f1b0000 	svcpl	0x001b0000
    30e0:	01000001 	tsteq	r0, r1
    30e4:	01561b54 	cmpeq	r6, r4, asr fp
    30e8:	77080000 	strvc	r0, [r8, -r0]
    30ec:	081a3800 	ldmdaeq	sl, {fp, ip, sp}
    30f0:	1b9f1aff 	blne	fe7c9cf4 <__bss_end__+0xfe7bb32c>
    30f4:	0000014b 	andeq	r0, r0, fp, asr #2
    30f8:	11195601 	tstne	r9, r1, lsl #12
    30fc:	b0000001 	andlt	r0, r0, r1
    3100:	10000095 	mulne	r0, r5, r0
    3104:	02000000 	andeq	r0, r0, #0
    3108:	0004771a 	andeq	r7, r4, sl, lsl r7
    310c:	01281a00 	teqeq	r8, r0, lsl #20
    3110:	1bad0000 	blne	feb43118 <__bss_end__+0xfeb34750>
    3114:	1d1b0000 	ldcne	0, cr0, [fp, #-0]
    3118:	01000001 	tsteq	r0, r1
    311c:	95b01d54 	ldrls	r1, [r0, #3412]!	; 0xd54
    3120:	00040000 	andeq	r0, r4, r0
    3124:	321e0000 	andscc	r0, lr, #0
    3128:	d2000001 	andle	r0, r0, #1
    312c:	0000001b 	andeq	r0, r0, fp, lsl r0
    3130:	95b01f00 	ldrls	r1, [r0, #3840]!	; 0xf00
    3134:	11310000 	teqne	r1, r0
    3138:	01200000 	teqeq	r0, r0
    313c:	00770451 	rsbseq	r0, r7, r1, asr r4
    3140:	01201a38 	teqeq	r0, r8, lsr sl
    3144:	00760250 	rsbseq	r0, r6, r0, asr r2
    3148:	3f190000 	svccc	0x00190000
    314c:	c4000001 	strgt	r0, [r0], #-1
    3150:	1c000095 	stcne	0, cr0, [r0], {149}	; 0x95
    3154:	01000000 	mrseq	r0, (UNDEF: 0)
    3158:	0005181b 	andeq	r1, r5, fp, lsl r8
    315c:	016a1a00 	cmneq	sl, r0, lsl #20
    3160:	1be50000 	blne	ff943168 <__bss_end__+0xff9347a0>
    3164:	5f1b0000 	svcpl	0x001b0000
    3168:	01000001 	tsteq	r0, r1
    316c:	01561b54 	cmpeq	r6, r4, asr fp
    3170:	77080000 	strvc	r0, [r8, -r0]
    3174:	081a4000 	ldmdaeq	sl, {lr}
    3178:	1b9f1aff 	blne	fe7c9d7c <__bss_end__+0xfe7bb3b4>
    317c:	0000014b 	andeq	r0, r0, fp, asr #2
    3180:	11195601 	tstne	r9, r1, lsl #12
    3184:	d0000001 	andle	r0, r0, r1
    3188:	10000095 	mulne	r0, r5, r0
    318c:	02000000 	andeq	r0, r0, #0
    3190:	0004ff1a 	andeq	pc, r4, sl, lsl pc	; <UNPREDICTABLE>
    3194:	01281a00 	teqeq	r8, r0, lsl #20
    3198:	1c0c0000 	stcne	0, cr0, [ip], {-0}
    319c:	1d1b0000 	ldcne	0, cr0, [fp, #-0]
    31a0:	01000001 	tsteq	r0, r1
    31a4:	95d01d54 	ldrbls	r1, [r0, #3412]	; 0xd54
    31a8:	00040000 	andeq	r0, r4, r0
    31ac:	321e0000 	andscc	r0, lr, #0
    31b0:	33000001 	movwcc	r0, #1
    31b4:	0000001c 	andeq	r0, r0, ip, lsl r0
    31b8:	95d01f00 	ldrbls	r1, [r0, #3840]	; 0xf00
    31bc:	11310000 	teqne	r1, r0
    31c0:	01200000 	teqeq	r0, r0
    31c4:	00770451 	rsbseq	r0, r7, r1, asr r4
    31c8:	01201a40 	teqeq	r0, r0, asr #20
    31cc:	00760250 	rsbseq	r0, r6, r0, asr r2
    31d0:	3f190000 	svccc	0x00190000
    31d4:	e4000001 	str	r0, [r0], #-1
    31d8:	1c000095 	stcne	0, cr0, [r0], {149}	; 0x95
    31dc:	01000000 	mrseq	r0, (UNDEF: 0)
    31e0:	0005a21d 	andeq	sl, r5, sp, lsl r2
    31e4:	016a1a00 	cmneq	sl, r0, lsl #20
    31e8:	1c460000 	marne	acc0, r0, r6
    31ec:	5f1b0000 	svcpl	0x001b0000
    31f0:	01000001 	tsteq	r0, r1
    31f4:	01561b54 	cmpeq	r6, r4, asr fp
    31f8:	77090000 	strvc	r0, [r9, -r0]
    31fc:	1a200800 	bne	805204 <__bss_end__+0x7f683c>
    3200:	9f1aff08 	svcls	0x001aff08
    3204:	00014b1b 	andeq	r4, r1, fp, lsl fp
    3208:	19560100 	ldmdbne	r6, {r8}^
    320c:	00000111 	andeq	r0, r0, r1, lsl r1
    3210:	000095f0 	strdeq	r9, [r0], -r0
    3214:	00000010 	andeq	r0, r0, r0, lsl r0
    3218:	05881a02 	streq	r1, [r8, #2562]	; 0xa02
    321c:	281a0000 	ldmdacs	sl, {}	; <UNPREDICTABLE>
    3220:	70000001 	andvc	r0, r0, r1
    3224:	1b00001c 	blne	329c <_start-0x4d64>
    3228:	0000011d 	andeq	r0, r0, sp, lsl r1
    322c:	f01d5401 			; <UNDEFINED> instruction: 0xf01d5401
    3230:	04000095 	streq	r0, [r0], #-149	; 0x95
    3234:	1e000000 	cdpne	0, 0, cr0, cr0, cr0, {0}
    3238:	00000132 	andeq	r0, r0, r2, lsr r1
    323c:	00001c9a 	muleq	r0, sl, ip
    3240:	f01f0000 			; <UNDEFINED> instruction: 0xf01f0000
    3244:	31000095 	swpcc	r0, r5, [r0]	; <UNPREDICTABLE>
    3248:	20000011 	andcs	r0, r0, r1, lsl r0
    324c:	77055101 	strvc	r5, [r5, -r1, lsl #2]
    3250:	1a200800 	bne	805258 <__bss_end__+0x7f6890>
    3254:	02500120 	subseq	r0, r0, #32, 2
    3258:	00000076 	andeq	r0, r0, r6, ror r0
    325c:	00013f19 	andeq	r3, r1, r9, lsl pc
    3260:	00960400 	addseq	r0, r6, r0, lsl #8
    3264:	00001c00 	andeq	r1, r0, r0, lsl #24
    3268:	2c1f0100 	ldfcss	f0, [pc], {-0}
    326c:	1a000006 	bne	328c <_start-0x4d74>
    3270:	0000016a 	andeq	r0, r0, sl, ror #2
    3274:	00001cad 	andeq	r1, r0, sp, lsr #25
    3278:	00015f1b 	andeq	r5, r1, fp, lsl pc
    327c:	1b540100 	blne	1503684 <__bss_end__+0x14f4cbc>
    3280:	00000156 	andeq	r0, r0, r6, asr r1
    3284:	08007709 	stmdaeq	r0, {r0, r3, r8, r9, sl, ip, sp, lr}
    3288:	ff081a40 			; <UNDEFINED> instruction: 0xff081a40
    328c:	4b1b9f1a 	blmi	6eaefc <__bss_end__+0x6dc534>
    3290:	01000001 	tsteq	r0, r1
    3294:	01111956 	tsteq	r1, r6, asr r9
    3298:	96100000 	ldrls	r0, [r0], -r0
    329c:	00100000 	andseq	r0, r0, r0
    32a0:	1a020000 	bne	832a8 <__bss_end__+0x748e0>
    32a4:	00000612 	andeq	r0, r0, r2, lsl r6
    32a8:	0001281a 	andeq	r2, r1, sl, lsl r8
    32ac:	001ccf00 	andseq	ip, ip, r0, lsl #30
    32b0:	011d1b00 	tsteq	sp, r0, lsl #22
    32b4:	54010000 	strpl	r0, [r1], #-0
    32b8:	0096101d 	addseq	r1, r6, sp, lsl r0
    32bc:	00000400 	andeq	r0, r0, r0, lsl #8
    32c0:	01321e00 	teqeq	r2, r0, lsl #28
    32c4:	1cf10000 	ldclne	0, cr0, [r1]
    32c8:	00000000 	andeq	r0, r0, r0
    32cc:	0096101f 	addseq	r1, r6, pc, lsl r0
    32d0:	00113100 	andseq	r3, r1, r0, lsl #2
    32d4:	51012000 	mrspl	r2, (UNDEF: 1)
    32d8:	08007705 	stmdaeq	r0, {r0, r2, r8, r9, sl, ip, sp, lr}
    32dc:	01201a40 	teqeq	r0, r0, asr #20
    32e0:	00760250 	rsbseq	r0, r6, r0, asr r2
    32e4:	3f190000 	svccc	0x00190000
    32e8:	24000001 	strcs	r0, [r0], #-1
    32ec:	1c000096 	stcne	0, cr0, [r0], {150}	; 0x96
    32f0:	01000000 	mrseq	r0, (UNDEF: 0)
    32f4:	0006ac21 	andeq	sl, r6, r1, lsr #24
    32f8:	016a1b00 	cmneq	sl, r0, lsl #22
    32fc:	58010000 	stmdapl	r1, {}	; <UNPREDICTABLE>
    3300:	00015f1b 	andeq	r5, r1, fp, lsl pc
    3304:	1a540100 	bne	150370c <__bss_end__+0x14f4d44>
    3308:	00000156 	andeq	r0, r0, r6, asr r1
    330c:	00001d04 	andeq	r1, r0, r4, lsl #26
    3310:	00014b1b 	andeq	r4, r1, fp, lsl fp
    3314:	19560100 	ldmdbne	r6, {r8}^
    3318:	00000111 	andeq	r0, r0, r1, lsl r1
    331c:	00009630 	andeq	r9, r0, r0, lsr r6
    3320:	00000010 	andeq	r0, r0, r0, lsl r0
    3324:	06921a02 	ldreq	r1, [r2], r2, lsl #20
    3328:	281b0000 	ldmdacs	fp, {}	; <UNPREDICTABLE>
    332c:	01000001 	tsteq	r0, r1
    3330:	011d1b58 	tsteq	sp, r8, asr fp
    3334:	54010000 	strpl	r0, [r1], #-0
    3338:	0096301d 	addseq	r3, r6, sp, lsl r0
    333c:	00000400 	andeq	r0, r0, r0, lsl #8
    3340:	01321e00 	teqeq	r2, r0, lsl #28
    3344:	1d370000 	ldcne	0, cr0, [r7, #-0]
    3348:	00000000 	andeq	r0, r0, r0
    334c:	0096301f 	addseq	r3, r6, pc, lsl r0
    3350:	00113100 	andseq	r3, r1, r0, lsl #2
    3354:	51012000 	mrspl	r2, (UNDEF: 1)
    3358:	08007705 	stmdaeq	r0, {r0, r2, r8, r9, sl, ip, sp, lr}
    335c:	01201a80 	smlawbeq	r0, r0, sl, r1
    3360:	00760250 	rsbseq	r0, r6, r0, asr r2
    3364:	3f210000 	svccc	0x00210000
    3368:	44000001 	strmi	r0, [r0], #-1
    336c:	1c000096 	stcne	0, cr0, [r0], {150}	; 0x96
    3370:	01000000 	mrseq	r0, (UNDEF: 0)
    3374:	016a1b23 	cmneq	sl, r3, lsr #22
    3378:	55010000 	strpl	r0, [r1, #-0]
    337c:	00015f1b 	andeq	r5, r1, fp, lsl pc
    3380:	1c540100 	ldfnee	f0, [r4], {-0}
    3384:	00000156 	andeq	r0, r0, r6, asr r1
    3388:	014b1b01 	cmpeq	fp, r1, lsl #22
    338c:	56010000 	strpl	r0, [r1], -r0
    3390:	00011119 	andeq	r1, r1, r9, lsl r1
    3394:	00965000 	addseq	r5, r6, r0
    3398:	00001000 	andeq	r1, r0, r0
    339c:	0b1a0200 	bleq	683ba4 <__bss_end__+0x6751dc>
    33a0:	1b000007 	blne	33c4 <_start-0x4c3c>
    33a4:	00000128 	andeq	r0, r0, r8, lsr #2
    33a8:	1d1b5501 	cfldr32ne	mvfx5, [fp, #-4]
    33ac:	01000001 	tsteq	r0, r1
    33b0:	96501d54 			; <UNDEFINED> instruction: 0x96501d54
    33b4:	00040000 	andeq	r0, r4, r0
    33b8:	321e0000 	andscc	r0, lr, #0
    33bc:	4a000001 	bmi	33c8 <_start-0x4c38>
    33c0:	0000001d 	andeq	r0, r0, sp, lsl r0
    33c4:	96501f00 	ldrbls	r1, [r0], -r0, lsl #30
    33c8:	11310000 	teqne	r1, r0
    33cc:	01200000 	teqeq	r0, r0
    33d0:	20310151 	eorscs	r0, r1, r1, asr r1
    33d4:	76025001 	strvc	r5, [r2], -r1
    33d8:	00000000 	andeq	r0, r0, r0
    33dc:	00d90406 	sbcseq	r0, r9, r6, lsl #8
    33e0:	62220000 	eorvs	r0, r2, #0
    33e4:	0100000b 	tsteq	r0, fp
    33e8:	00002527 	andeq	r2, r0, r7, lsr #10
    33ec:	07620300 	strbeq	r0, [r2, -r0, lsl #6]!
    33f0:	720f0000 	andvc	r0, pc, #0
    33f4:	27010078 	smlsdxcs	r1, r8, r0, r0
    33f8:	00000025 	andeq	r0, r0, r5, lsr #32
    33fc:	0100760f 	tsteq	r0, pc, lsl #12
    3400:	00002527 	andeq	r2, r0, r7, lsr #10
    3404:	0aea0e00 	beq	ffa86c0c <__bss_end__+0xffa78244>
    3408:	27010000 	strcs	r0, [r1, -r0]
    340c:	0000002c 	andeq	r0, r0, ip, lsr #32
    3410:	00079c11 	andeq	r9, r7, r1, lsl ip
    3414:	2c280100 	stfcss	f0, [r8], #-0
    3418:	00000000 	andeq	r0, r0, r0
    341c:	000a9f23 	andeq	r9, sl, r3, lsr #30
    3420:	25340100 	ldrcs	r0, [r4, #-256]!	; 0x100
    3424:	64000000 	strvs	r0, [r0], #-0
    3428:	c8000096 	stmdagt	r0, {r1, r2, r4, r7}
    342c:	01000001 	tsteq	r0, r1
    3430:	000b1e9c 	muleq	fp, ip, lr
    3434:	075e1300 	ldrbeq	r1, [lr, -r0, lsl #6]
    3438:	34010000 	strcc	r0, [r1], #-0
    343c:	00000722 	andeq	r0, r0, r2, lsr #14
    3440:	00001d5d 	andeq	r1, r0, sp, asr sp
    3444:	000aea13 	andeq	lr, sl, r3, lsl sl
    3448:	25340100 	ldrcs	r0, [r4, #-256]!	; 0x100
    344c:	a2000000 	andge	r0, r0, #0
    3450:	1500001d 	strne	r0, [r0, #-29]
    3454:	01007872 	tsteq	r0, r2, ror r8
    3458:	00002535 	andeq	r2, r0, r5, lsr r5
    345c:	16550100 	ldrbne	r0, [r5], -r0, lsl #2
    3460:	3c010073 	stccc	0, cr0, [r1], {115}	; 0x73
    3464:	0000002c 	andeq	r0, r0, ip, lsr #32
    3468:	00001dc0 	andeq	r1, r0, r0, asr #27
    346c:	01007516 	tsteq	r0, r6, lsl r5
    3470:	0000683f 	andeq	r6, r0, pc, lsr r8
    3474:	001dd300 	andseq	sp, sp, r0, lsl #6
    3478:	006e1600 	rsbeq	r1, lr, r0, lsl #12
    347c:	002c4001 	eoreq	r4, ip, r1
    3480:	1de60000 	stclne	0, cr0, [r6]
    3484:	63160000 	tstvs	r6, #0
    3488:	2c410100 	stfcse	f0, [r1], {-0}
    348c:	fd000000 	stc2	0, cr0, [r0, #-0]
    3490:	1900001d 	stmdbne	r0, {r0, r2, r3, r4}
    3494:	00000728 	andeq	r0, r0, r8, lsr #14
    3498:	00009678 	andeq	r9, r0, r8, ror r6
    349c:	00000034 	andeq	r0, r0, r4, lsr r0
    34a0:	083c3801 	ldmdaeq	ip!, {r0, fp, ip, sp}
    34a4:	4b1a0000 	blmi	6834ac <__bss_end__+0x674ae4>
    34a8:	27000007 	strcs	r0, [r0, -r7]
    34ac:	1c00001e 	stcne	0, cr0, [r0], {30}
    34b0:	00000742 	andeq	r0, r0, r2, asr #14
    34b4:	07381b00 	ldreq	r1, [r8, -r0, lsl #22]!
    34b8:	55010000 	strpl	r0, [r1, #-0]
    34bc:	0096781d 	addseq	r7, r6, sp, lsl r8
    34c0:	00003400 	andeq	r3, r0, r0, lsl #8
    34c4:	07561e00 	ldrbeq	r1, [r6, -r0, lsl #28]
    34c8:	1e450000 	cdpne	0, 4, cr0, cr5, cr0, {0}
    34cc:	7c240000 	stcvc	0, cr0, [r4], #-0
    34d0:	47000096 			; <UNDEFINED> instruction: 0x47000096
    34d4:	25000011 	strcs	r0, [r0, #-17]
    34d8:	00009688 	andeq	r9, r0, r8, lsl #13
    34dc:	00001152 	andeq	r1, r0, r2, asr r1
    34e0:	00000831 	andeq	r0, r0, r1, lsr r8
    34e4:	02500120 	subseq	r0, r0, #32, 2
    34e8:	24000075 	strcs	r0, [r0], #-117	; 0x75
    34ec:	00009694 	muleq	r0, r4, r6
    34f0:	00001147 	andeq	r1, r0, r7, asr #2
    34f4:	b4170000 	ldrlt	r0, [r7], #-0
    34f8:	04000096 	streq	r0, [r0], #-150	; 0x96
    34fc:	59000000 	stmdbpl	r0, {}	; <UNPREDICTABLE>
    3500:	26000008 	strcs	r0, [r0], -r8
    3504:	00000b32 	andeq	r0, r0, r2, lsr fp
    3508:	002c3c01 	eoreq	r3, ip, r1, lsl #24
    350c:	1e630000 	cdpne	0, 6, cr0, cr3, cr0, {0}
    3510:	19000000 	stmdbne	r0, {}	; <UNPREDICTABLE>
    3514:	00000111 	andeq	r0, r0, r1, lsl r1
    3518:	000096c0 	andeq	r9, r0, r0, asr #13
    351c:	00000010 	andeq	r0, r0, r0, lsl r0
    3520:	08924401 	ldmeq	r2, {r0, sl, lr}
    3524:	281a0000 	ldmdacs	sl, {}	; <UNPREDICTABLE>
    3528:	76000001 	strvc	r0, [r0], -r1
    352c:	1a00001e 	bne	35ac <_start-0x4a54>
    3530:	0000011d 	andeq	r0, r0, sp, lsl r1
    3534:	00001e9b 	muleq	r0, fp, lr
    3538:	0096c01d 	addseq	ip, r6, sp, lsl r0
    353c:	00000400 	andeq	r0, r0, r0, lsl #8
    3540:	01321e00 	teqeq	r2, r0, lsl #28
    3544:	1eae0000 	cdpne	0, 10, cr0, cr14, cr0, {0}
    3548:	00000000 	andeq	r0, r0, r0
    354c:	00011119 	andeq	r1, r1, r9, lsl r1
    3550:	0096e000 	addseq	lr, r6, r0
    3554:	00001000 	andeq	r1, r0, r0
    3558:	cb480100 	blgt	1203960 <__bss_end__+0x11f4f98>
    355c:	1a000008 	bne	3584 <_start-0x4a7c>
    3560:	00000128 	andeq	r0, r0, r8, lsr #2
    3564:	00001ec1 	andeq	r1, r0, r1, asr #29
    3568:	00011d1a 	andeq	r1, r1, sl, lsl sp
    356c:	001ed400 	andseq	sp, lr, r0, lsl #8
    3570:	96e01d00 	strbtls	r1, [r0], r0, lsl #26
    3574:	00040000 	andeq	r0, r4, r0
    3578:	321e0000 	andscc	r0, lr, #0
    357c:	e7000001 	str	r0, [r0, -r1]
    3580:	0000001e 	andeq	r0, r0, lr, lsl r0
    3584:	01111900 	tsteq	r1, r0, lsl #18
    3588:	97040000 	strls	r0, [r4, -r0]
    358c:	00100000 	andseq	r0, r0, r0
    3590:	4b010000 	blmi	43598 <__bss_end__+0x34bd0>
    3594:	00000904 	andeq	r0, r0, r4, lsl #18
    3598:	0001281a 	andeq	r2, r1, sl, lsl r8
    359c:	001efa00 	andseq	pc, lr, r0, lsl #20
    35a0:	011d1a00 	tsteq	sp, r0, lsl #20
    35a4:	1f0d0000 	svcne	0x000d0000
    35a8:	041d0000 	ldreq	r0, [sp], #-0
    35ac:	04000097 	streq	r0, [r0], #-151	; 0x97
    35b0:	1e000000 	cdpne	0, 0, cr0, cr0, cr0, {0}
    35b4:	00000132 	andeq	r0, r0, r2, lsr r1
    35b8:	00001f20 	andeq	r1, r0, r0, lsr #30
    35bc:	11190000 	tstne	r9, r0
    35c0:	28000001 	stmdacs	r0, {r0}
    35c4:	10000097 	mulne	r0, r7, r0
    35c8:	01000000 	mrseq	r0, (UNDEF: 0)
    35cc:	00093d4e 	andeq	r3, r9, lr, asr #26
    35d0:	01281a00 	teqeq	r8, r0, lsl #20
    35d4:	1f330000 	svcne	0x00330000
    35d8:	1d1a0000 	ldcne	0, cr0, [sl, #-0]
    35dc:	46000001 	strmi	r0, [r0], -r1
    35e0:	1d00001f 	stcne	0, cr0, [r0, #-124]	; 0xffffff84
    35e4:	00009728 	andeq	r9, r0, r8, lsr #14
    35e8:	00000004 	andeq	r0, r0, r4
    35ec:	0001321e 	andeq	r3, r1, lr, lsl r2
    35f0:	001f5900 	andseq	r5, pc, r0, lsl #18
    35f4:	19000000 	stmdbne	r0, {}	; <UNPREDICTABLE>
    35f8:	00000111 	andeq	r0, r0, r1, lsl r1
    35fc:	0000974c 	andeq	r9, r0, ip, asr #14
    3600:	00000010 	andeq	r0, r0, r0, lsl r0
    3604:	09765101 	ldmdbeq	r6!, {r0, r8, ip, lr}^
    3608:	281a0000 	ldmdacs	sl, {}	; <UNPREDICTABLE>
    360c:	6c000001 	stcvs	0, cr0, [r0], {1}
    3610:	1a00001f 	bne	3694 <_start-0x496c>
    3614:	0000011d 	andeq	r0, r0, sp, lsl r1
    3618:	00001f7f 	andeq	r1, r0, pc, ror pc
    361c:	00974c1d 	addseq	r4, r7, sp, lsl ip
    3620:	00000400 	andeq	r0, r0, r0, lsl #8
    3624:	01321e00 	teqeq	r2, r0, lsl #28
    3628:	1f920000 	svcne	0x00920000
    362c:	00000000 	andeq	r0, r0, r0
    3630:	00011119 	andeq	r1, r1, r9, lsl r1
    3634:	00977000 	addseq	r7, r7, r0
    3638:	00001000 	andeq	r1, r0, r0
    363c:	af540100 	svcge	0x00540100
    3640:	1a000009 	bne	366c <_start-0x4994>
    3644:	00000128 	andeq	r0, r0, r8, lsr #2
    3648:	00001fa5 	andeq	r1, r0, r5, lsr #31
    364c:	00011d1a 	andeq	r1, r1, sl, lsl sp
    3650:	001fb800 	andseq	fp, pc, r0, lsl #16
    3654:	97701d00 	ldrbls	r1, [r0, -r0, lsl #26]!
    3658:	00040000 	andeq	r0, r4, r0
    365c:	321e0000 	andscc	r0, lr, #0
    3660:	cb000001 	blgt	366c <_start-0x4994>
    3664:	0000001f 	andeq	r0, r0, pc, lsl r0
    3668:	01111900 	tsteq	r1, r0, lsl #18
    366c:	97940000 	ldrls	r0, [r4, r0]
    3670:	00100000 	andseq	r0, r0, r0
    3674:	57010000 	strpl	r0, [r1, -r0]
    3678:	000009e8 	andeq	r0, r0, r8, ror #19
    367c:	0001281a 	andeq	r2, r1, sl, lsl r8
    3680:	001fde00 	andseq	sp, pc, r0, lsl #28
    3684:	011d1a00 	tsteq	sp, r0, lsl #20
    3688:	1ff10000 	svcne	0x00f10000
    368c:	941d0000 	ldrls	r0, [sp], #-0
    3690:	04000097 	streq	r0, [r0], #-151	; 0x97
    3694:	1e000000 	cdpne	0, 0, cr0, cr0, cr0, {0}
    3698:	00000132 	andeq	r0, r0, r2, lsr r1
    369c:	00002004 	andeq	r2, r0, r4
    36a0:	11190000 	tstne	r9, r0
    36a4:	b8000001 	stmdalt	r0, {r0}
    36a8:	10000097 	mulne	r0, r7, r0
    36ac:	01000000 	mrseq	r0, (UNDEF: 0)
    36b0:	000a1d5a 	andeq	r1, sl, sl, asr sp
    36b4:	01281a00 	teqeq	r8, r0, lsl #20
    36b8:	20170000 	andscs	r0, r7, r0
    36bc:	1d270000 	stcne	0, cr0, [r7, #-0]
    36c0:	1d000001 	stcne	0, cr0, [r0, #-4]
    36c4:	000097b8 			; <UNDEFINED> instruction: 0x000097b8
    36c8:	00000004 	andeq	r0, r0, r4
    36cc:	0001321e 	andeq	r3, r1, lr, lsl r2
    36d0:	00202a00 	eoreq	r2, r0, r0, lsl #20
    36d4:	19000000 	stmdbne	r0, {}	; <UNPREDICTABLE>
    36d8:	00000728 	andeq	r0, r0, r8, lsr #14
    36dc:	000097d8 	ldrdeq	r9, [r0], -r8
    36e0:	00000034 	andeq	r0, r0, r4, lsr r0
    36e4:	0a816101 	beq	fe05baf0 <__bss_end__+0xfe04d128>
    36e8:	4b270000 	blmi	9c36f0 <__bss_end__+0x9b4d28>
    36ec:	1a000007 	bne	3710 <_start-0x48f0>
    36f0:	00000742 	andeq	r0, r0, r2, asr #14
    36f4:	0000203d 	andeq	r2, r0, sp, lsr r0
    36f8:	0007381a 	andeq	r3, r7, sl, lsl r8
    36fc:	00205d00 	eoreq	r5, r0, r0, lsl #26
    3700:	97d81d00 	ldrbls	r1, [r8, r0, lsl #26]
    3704:	00340000 	eorseq	r0, r4, r0
    3708:	561e0000 	ldrpl	r0, [lr], -r0
    370c:	7b000007 	blvc	3730 <_start-0x48d0>
    3710:	24000020 	strcs	r0, [r0], #-32
    3714:	000097dc 	ldrdeq	r9, [r0], -ip
    3718:	00001147 	andeq	r1, r0, r7, asr #2
    371c:	0097e825 	addseq	lr, r7, r5, lsr #16
    3720:	00115200 	andseq	r5, r1, r0, lsl #4
    3724:	000a7600 	andeq	r7, sl, r0, lsl #12
    3728:	50012000 	andpl	r2, r1, r0
    372c:	00007502 	andeq	r7, r0, r2, lsl #10
    3730:	0097f424 	addseq	pc, r7, r4, lsr #8
    3734:	00114700 	andseq	r4, r1, r0, lsl #14
    3738:	25000000 	strcs	r0, [r0, #-0]
    373c:	000096dc 	ldrdeq	r9, [r0], -ip
    3740:	00001152 	andeq	r1, r0, r2, asr r1
    3744:	00000a95 	muleq	r0, r5, sl
    3748:	02500120 	subseq	r0, r0, #32, 2
    374c:	25000075 	strcs	r0, [r0, #-117]	; 0x75
    3750:	000096fc 	strdeq	r9, [r0], -ip
    3754:	00001152 	andeq	r1, r0, r2, asr r1
    3758:	00000aa9 	andeq	r0, r0, r9, lsr #21
    375c:	02500120 	subseq	r0, r0, #32, 2
    3760:	25000075 	strcs	r0, [r0, #-117]	; 0x75
    3764:	00009720 	andeq	r9, r0, r0, lsr #14
    3768:	00001152 	andeq	r1, r0, r2, asr r1
    376c:	00000abd 			; <UNDEFINED> instruction: 0x00000abd
    3770:	02500120 	subseq	r0, r0, #32, 2
    3774:	25000075 	strcs	r0, [r0, #-117]	; 0x75
    3778:	00009744 	andeq	r9, r0, r4, asr #14
    377c:	00001152 	andeq	r1, r0, r2, asr r1
    3780:	00000ad1 	ldrdeq	r0, [r0], -r1
    3784:	02500120 	subseq	r0, r0, #32, 2
    3788:	25000075 	strcs	r0, [r0, #-117]	; 0x75
    378c:	00009768 	andeq	r9, r0, r8, ror #14
    3790:	00001152 	andeq	r1, r0, r2, asr r1
    3794:	00000ae5 	andeq	r0, r0, r5, ror #21
    3798:	02500120 	subseq	r0, r0, #32, 2
    379c:	25000075 	strcs	r0, [r0, #-117]	; 0x75
    37a0:	0000978c 	andeq	r9, r0, ip, lsl #15
    37a4:	00001152 	andeq	r1, r0, r2, asr r1
    37a8:	00000af9 	strdeq	r0, [r0], -r9
    37ac:	02500120 	subseq	r0, r0, #32, 2
    37b0:	25000075 	strcs	r0, [r0, #-117]	; 0x75
    37b4:	000097b0 			; <UNDEFINED> instruction: 0x000097b0
    37b8:	00001152 	andeq	r1, r0, r2, asr r1
    37bc:	00000b0d 	andeq	r0, r0, sp, lsl #22
    37c0:	02500120 	subseq	r0, r0, #32, 2
    37c4:	1f000075 	svcne	0x00000075
    37c8:	000097d0 	ldrdeq	r9, [r0], -r0
    37cc:	00001152 	andeq	r1, r0, r2, asr r1
    37d0:	02500120 	subseq	r0, r0, #32, 2
    37d4:	00000075 	andeq	r0, r0, r5, ror r0
    37d8:	000ab423 	andeq	fp, sl, r3, lsr #8
    37dc:	256c0100 	strbcs	r0, [ip, #-256]!	; 0x100
    37e0:	2c000000 	stccs	0, cr0, [r0], {-0}
    37e4:	90000098 	mulls	r0, r8, r0
    37e8:	01000000 	mrseq	r0, (UNDEF: 0)
    37ec:	000c029c 	muleq	ip, ip, r2
    37f0:	00751400 	rsbseq	r1, r5, r0, lsl #8
    37f4:	07226c01 	streq	r6, [r2, -r1, lsl #24]!
    37f8:	20990000 	addscs	r0, r9, r0
    37fc:	62140000 	andsvs	r0, r4, #0
    3800:	01006675 	tsteq	r0, r5, ror r6
    3804:	000c026c 	andeq	r0, ip, ip, ror #4
    3808:	0020cd00 	eoreq	ip, r0, r0, lsl #26
    380c:	0b371300 	bleq	dc8414 <__bss_end__+0xdb9a4c>
    3810:	6c010000 	stcvs	0, cr0, [r1], {-0}
    3814:	00000068 	andeq	r0, r0, r8, rrx
    3818:	00002101 	andeq	r2, r0, r1, lsl #2
    381c:	646e6514 	strbtvs	r6, [lr], #-1300	; 0x514
    3820:	4f6c0100 	svcmi	0x006c0100
    3824:	3a000000 	bcc	382c <_start-0x47d4>
    3828:	28000021 	stmdacs	r0, {r0, r5}
    382c:	00000b3e 	andeq	r0, r0, lr, lsr fp
    3830:	00686c01 	rsbeq	r6, r8, r1, lsl #24
    3834:	91020000 	mrsls	r0, (UNDEF: 2)
    3838:	01a22900 			; <UNDEFINED> instruction: 0x01a22900
    383c:	0c180000 	ldceq	0, cr0, [r8], {-0}
    3840:	03050000 	movweq	r0, #20480	; 0x5000
    3844:	0000a2dc 	ldrdeq	sl, [r0], -ip
    3848:	01006916 	tsteq	r0, r6, lsl r9
    384c:	00002570 	andeq	r2, r0, r0, ror r5
    3850:	00217400 	eoreq	r7, r1, r0, lsl #8
    3854:	0b152600 	bleq	54d05c <__bss_end__+0x53e694>
    3858:	71010000 	mrsvc	r0, (UNDEF: 1)
    385c:	0000004f 	andeq	r0, r0, pc, asr #32
    3860:	00002193 	muleq	r0, r3, r1
    3864:	00984c24 	addseq	r4, r8, r4, lsr #24
    3868:	00116700 	andseq	r6, r1, r0, lsl #14
    386c:	98602500 	stmdals	r0!, {r8, sl, sp}^
    3870:	116e0000 	cmnne	lr, r0
    3874:	0be20000 	bleq	ff88387c <__bss_end__+0xff874eb4>
    3878:	01200000 	teqeq	r0, r0
    387c:	6d080253 	sfmvs	f0, 4, [r8, #-332]	; 0xfffffeb4
    3880:	05520120 	ldrbeq	r0, [r2, #-288]	; 0x120
    3884:	00a2dc03 	adceq	sp, r2, r3, lsl #24
    3888:	51012000 	mrspl	r2, (UNDEF: 1)
    388c:	a3700305 	cmnge	r0, #335544320	; 0x14000000
    3890:	01200000 	teqeq	r0, r0
    3894:	54030550 	strpl	r0, [r3], #-1360	; 0x550
    3898:	000000a3 	andeq	r0, r0, r3, lsr #1
    389c:	00986424 	addseq	r6, r8, r4, lsr #8
    38a0:	00118400 	andseq	r8, r1, r0, lsl #8
    38a4:	98801f00 	stmls	r0, {r8, r9, sl, fp, ip}
    38a8:	07620000 	strbeq	r0, [r2, -r0]!
    38ac:	01200000 	teqeq	r0, r0
    38b0:	007a0251 	rsbseq	r0, sl, r1, asr r2
    38b4:	02500120 	subseq	r0, r0, #32, 2
    38b8:	00000078 	andeq	r0, r0, r8, ror r0
    38bc:	004f0406 	subeq	r0, pc, r6, lsl #8
    38c0:	902a0000 	eorls	r0, sl, r0
    38c4:	18000000 	stmdane	r0, {}	; <UNPREDICTABLE>
    38c8:	2b00000c 	blcs	3900 <_start-0x4700>
    38cc:	00000081 	andeq	r0, r0, r1, lsl #1
    38d0:	08070012 	stmdaeq	r7, {r1, r4}
    38d4:	2300000c 	movwcs	r0, #12
    38d8:	00000b1d 	andeq	r0, r0, sp, lsl fp
    38dc:	00258001 	eoreq	r8, r5, r1
    38e0:	98bc0000 	ldmls	ip!, {}	; <UNPREDICTABLE>
    38e4:	007c0000 	rsbseq	r0, ip, r0
    38e8:	9c010000 	stcls	0, cr0, [r1], {-0}
    38ec:	00000ce4 	andeq	r0, r0, r4, ror #25
    38f0:	01007514 	tsteq	r0, r4, lsl r5
    38f4:	00072280 	andeq	r2, r7, r0, lsl #5
    38f8:	0021a600 	eoreq	sl, r1, r0, lsl #12
    38fc:	75621400 	strbvc	r1, [r2, #-1024]!	; 0x400
    3900:	80010066 	andhi	r0, r1, r6, rrx
    3904:	00000c02 	andeq	r0, r0, r2, lsl #24
    3908:	000021da 	ldrdeq	r2, [r0], -sl
    390c:	000b3713 	andeq	r3, fp, r3, lsl r7
    3910:	68810100 	stmvs	r1, {r8}
    3914:	0e000000 	cdpeq	0, 0, cr0, cr0, cr0, {0}
    3918:	13000022 	movwne	r0, #34	; 0x22
    391c:	00000b3e 	andeq	r0, r0, lr, lsr fp
    3920:	00688101 	rsbeq	r8, r8, r1, lsl #2
    3924:	22470000 	subcs	r0, r7, #0
    3928:	a2290000 	eorge	r0, r9, #0
    392c:	f4000001 	vst4.8	{d0-d3}, [r0], r1
    3930:	0500000c 	streq	r0, [r0, #-12]
    3934:	00a2f003 	adceq	pc, r2, r3
    3938:	00691600 	rsbeq	r1, r9, r0, lsl #12
    393c:	00258601 	eoreq	r8, r5, r1, lsl #12
    3940:	227b0000 	rsbscs	r0, fp, #0
    3944:	d8240000 	stmdale	r4!, {}	; <UNPREDICTABLE>
    3948:	67000098 			; <UNDEFINED> instruction: 0x67000098
    394c:	25000011 	strcs	r0, [r0, #-17]
    3950:	000098ec 	andeq	r9, r0, ip, ror #17
    3954:	0000116e 	andeq	r1, r0, lr, ror #2
    3958:	00000cc4 	andeq	r0, r0, r4, asr #25
    395c:	02530120 	subseq	r0, r3, #32, 2
    3960:	01208308 	teqeq	r0, r8, lsl #6
    3964:	f0030552 			; <UNDEFINED> instruction: 0xf0030552
    3968:	200000a2 	andcs	r0, r0, r2, lsr #1
    396c:	03055101 	movweq	r5, #20737	; 0x5101
    3970:	0000a370 	andeq	sl, r0, r0, ror r3
    3974:	05500120 	ldrbeq	r0, [r0, #-288]	; 0x120
    3978:	00a35403 	adceq	r5, r3, r3, lsl #8
    397c:	f0240000 			; <UNDEFINED> instruction: 0xf0240000
    3980:	84000098 	strhi	r0, [r0], #-152	; 0x98
    3984:	1f000011 	svcne	0x00000011
    3988:	0000990c 	andeq	r9, r0, ip, lsl #18
    398c:	00000762 	andeq	r0, r0, r2, ror #14
    3990:	02510120 	subseq	r0, r1, #32, 2
    3994:	01200078 	teqeq	r0, r8, ror r0
    3998:	00770250 	rsbseq	r0, r7, r0, asr r2
    399c:	902a0000 	eorls	r0, sl, r0
    39a0:	f4000000 	vst4.8	{d0-d3}, [r0], r0
    39a4:	2b00000c 	blcs	39dc <_start-0x4624>
    39a8:	00000081 	andeq	r0, r0, r1, lsl #1
    39ac:	e4070014 	str	r0, [r7], #-20
    39b0:	2300000c 	movwcs	r0, #12
    39b4:	000000ac 	andeq	r0, r0, ip, lsr #1
    39b8:	00d99301 	sbcseq	r9, r9, r1, lsl #6
    39bc:	99380000 	ldmdbls	r8!, {}	; <UNPREDICTABLE>
    39c0:	00c00000 	sbceq	r0, r0, r0
    39c4:	9c010000 	stcls	0, cr0, [r1], {-0}
    39c8:	00000e14 	andeq	r0, r0, r4, lsl lr
    39cc:	00787414 	rsbseq	r7, r8, r4, lsl r4
    39d0:	004f9301 	subeq	r9, pc, r1, lsl #6
    39d4:	229a0000 	addscs	r0, sl, #0
    39d8:	72140000 	andsvc	r0, r4, #0
    39dc:	93010078 	movwls	r0, #4216	; 0x1078
    39e0:	0000004f 	andeq	r0, r0, pc, asr #32
    39e4:	000022bb 			; <UNDEFINED> instruction: 0x000022bb
    39e8:	0003ac13 	andeq	sl, r3, r3, lsl ip
    39ec:	68930100 	ldmvs	r3, {r8}
    39f0:	dc000000 	stcle	0, cr0, [r0], {-0}
    39f4:	28000022 	stmdacs	r0, {r1, r5}
    39f8:	00000a83 	andeq	r0, r0, r3, lsl #21
    39fc:	00689301 	rsbeq	r9, r8, r1, lsl #6
    3a00:	91020000 	mrsls	r0, (UNDEF: 2)
    3a04:	686d2c00 	stmdavs	sp!, {sl, fp, sp}^
    3a08:	9b01007a 	blls	43bf8 <__bss_end__+0x35230>
    3a0c:	0000002c 	andeq	r0, r0, ip, lsr #32
    3a10:	29b92700 	ldmibcs	r9!, {r8, r9, sl, sp}
    3a14:	000ad426 	andeq	sp, sl, r6, lsr #8
    3a18:	2c9c0100 	ldfcss	f0, [ip], {0}
    3a1c:	fa000000 	blx	3a24 <_start-0x45dc>
    3a20:	29000022 	stmdbcs	r0, {r1, r5}
    3a24:	000001a2 	andeq	r0, r0, r2, lsr #3
    3a28:	00000e24 	andeq	r0, r0, r4, lsr #28
    3a2c:	a3080305 	movwge	r0, #33541	; 0x8305
    3a30:	60170000 	andsvs	r0, r7, r0
    3a34:	08000099 	stmdaeq	r0, {r0, r3, r4, r7}
    3a38:	91000000 	mrsls	r0, (UNDEF: 0)
    3a3c:	2d00000d 	stccs	0, cr0, [r0, #-52]	; 0xffffffcc
    3a40:	01006e69 	tsteq	r0, r9, ror #28
    3a44:	00002c97 	muleq	r0, r7, ip
    3a48:	25000100 	strcs	r0, [r0, #-256]	; 0x100
    3a4c:	00009958 	andeq	r9, r0, r8, asr r9
    3a50:	0000118b 	andeq	r1, r0, fp, lsl #3
    3a54:	00000da5 	andeq	r0, r0, r5, lsr #27
    3a58:	02500120 	subseq	r0, r0, #32, 2
    3a5c:	25000076 	strcs	r0, [r0, #-118]	; 0x76
    3a60:	00009960 	andeq	r9, r0, r0, ror #18
    3a64:	0000119c 	muleq	r0, ip, r1
    3a68:	00000db9 			; <UNDEFINED> instruction: 0x00000db9
    3a6c:	02500120 	subseq	r0, r0, #32, 2
    3a70:	25000078 	strcs	r0, [r0, #-120]	; 0x78
    3a74:	00009974 	andeq	r9, r0, r4, ror r9
    3a78:	00001131 	andeq	r1, r0, r1, lsr r1
    3a7c:	00000dd2 	ldrdeq	r0, [r0], -r2
    3a80:	01510120 	cmpeq	r1, r0, lsr #2
    3a84:	50012031 	andpl	r2, r1, r1, lsr r0
    3a88:	00007602 	andeq	r7, r0, r2, lsl #12
    3a8c:	0099b824 	addseq	fp, r9, r4, lsr #16
    3a90:	00116700 	andseq	r6, r1, r0, lsl #14
    3a94:	99cc2500 	stmibls	ip, {r8, sl, sp}^
    3a98:	116e0000 	cmnne	lr, r0
    3a9c:	0e0a0000 	cdpeq	0, 0, cr0, cr10, cr0, {0}
    3aa0:	01200000 	teqeq	r0, r0
    3aa4:	9d080253 	sfmls	f0, 4, [r8, #-332]	; 0xfffffeb4
    3aa8:	05520120 	ldrbeq	r0, [r2, #-288]	; 0x120
    3aac:	00a30803 	adceq	r0, r3, r3, lsl #16
    3ab0:	51012000 	mrspl	r2, (UNDEF: 1)
    3ab4:	a3700305 	cmnge	r0, #335544320	; 0x14000000
    3ab8:	01200000 	teqeq	r0, r0
    3abc:	84030550 	strhi	r0, [r3], #-1360	; 0x550
    3ac0:	000000a3 	andeq	r0, r0, r3, lsr #1
    3ac4:	0099d024 	addseq	sp, r9, r4, lsr #32
    3ac8:	00118400 	andseq	r8, r1, r0, lsl #8
    3acc:	902a0000 	eorls	r0, sl, r0
    3ad0:	24000000 	strcs	r0, [r0], #-0
    3ad4:	2b00000e 	blcs	3b14 <_start-0x44ec>
    3ad8:	00000081 	andeq	r0, r0, r1, lsl #1
    3adc:	14070013 	strne	r0, [r7], #-19
    3ae0:	2300000e 	movwcs	r0, #14
    3ae4:	00000ac7 	andeq	r0, r0, r7, asr #21
    3ae8:	0025a901 	eoreq	sl, r5, r1, lsl #18
    3aec:	99f80000 	ldmibls	r8!, {}^	; <UNPREDICTABLE>
    3af0:	003c0000 	eorseq	r0, ip, r0
    3af4:	9c010000 	stcls	0, cr0, [r1], {-0}
    3af8:	00000ecc 	andeq	r0, r0, ip, asr #29
    3afc:	00075e13 	andeq	r5, r7, r3, lsl lr
    3b00:	22a90100 	adccs	r0, r9, #0, 2
    3b04:	28000007 	stmdacs	r0, {r0, r1, r2}
    3b08:	16000023 	strne	r0, [r0], -r3, lsr #32
    3b0c:	00736572 	rsbseq	r6, r3, r2, ror r5
    3b10:	0025aa01 	eoreq	sl, r5, r1, lsl #20
    3b14:	23490000 	movtcs	r0, #36864	; 0x9000
    3b18:	a2290000 	eorge	r0, r9, #0
    3b1c:	dc000001 	stcle	0, cr0, [r0], {1}
    3b20:	0500000e 	streq	r0, [r0, #-14]
    3b24:	00a31c03 	adceq	r1, r3, r3, lsl #24
    3b28:	9a042500 	bls	10cf30 <__bss_end__+0xfe568>
    3b2c:	07620000 	strbeq	r0, [r2, -r0]!
    3b30:	0e8a0000 	cdpeq	0, 8, cr0, cr10, cr0, {0}
    3b34:	01200000 	teqeq	r0, r0
    3b38:	ff090251 			; <UNDEFINED> instruction: 0xff090251
    3b3c:	03500120 	cmpeq	r0, #32, 2
    3b40:	005001f3 	ldrsheq	r0, [r0], #-19	; 0xffffffed
    3b44:	009a1024 	addseq	r1, sl, r4, lsr #32
    3b48:	00116700 	andseq	r6, r1, r0, lsl #14
    3b4c:	9a242500 	bls	90cf54 <__bss_end__+0x8fe58c>
    3b50:	116e0000 	cmnne	lr, r0
    3b54:	0ec20000 	cdpeq	0, 12, cr0, cr2, cr0, {0}
    3b58:	01200000 	teqeq	r0, r0
    3b5c:	ac080253 	sfmge	f0, 4, [r8], {83}	; 0x53
    3b60:	05520120 	ldrbeq	r0, [r2, #-288]	; 0x120
    3b64:	00a31c03 	adceq	r1, r3, r3, lsl #24
    3b68:	51012000 	mrspl	r2, (UNDEF: 1)
    3b6c:	a3700305 	cmnge	r0, #335544320	; 0x14000000
    3b70:	01200000 	teqeq	r0, r0
    3b74:	c8030550 	stmdagt	r3, {r4, r6, r8, sl}
    3b78:	000000a3 	andeq	r0, r0, r3, lsr #1
    3b7c:	009a2824 	addseq	r2, sl, r4, lsr #16
    3b80:	00118400 	andseq	r8, r1, r0, lsl #8
    3b84:	902a0000 	eorls	r0, sl, r0
    3b88:	dc000000 	stcle	0, cr0, [r0], {-0}
    3b8c:	2b00000e 	blcs	3bcc <_start-0x4434>
    3b90:	00000081 	andeq	r0, r0, r1, lsl #1
    3b94:	cc07000c 	stcgt	0, cr0, [r7], {12}
    3b98:	1200000e 	andne	r0, r0, #14
    3b9c:	00000af7 	strdeq	r0, [r0], -r7
    3ba0:	9a34b001 	bls	d2fbac <__bss_end__+0xd211e4>
    3ba4:	002c0000 	eoreq	r0, ip, r0
    3ba8:	9c010000 	stcls	0, cr0, [r1], {-0}
    3bac:	00000f25 	andeq	r0, r0, r5, lsr #30
    3bb0:	00075e13 	andeq	r5, r7, r3, lsl lr
    3bb4:	22b00100 	adcscs	r0, r0, #0, 2
    3bb8:	5c000007 	stcpl	0, cr0, [r0], {7}
    3bbc:	14000023 	strne	r0, [r0], #-35	; 0x23
    3bc0:	0067736d 	rsbeq	r7, r7, sp, ror #6
    3bc4:	0097b001 	addseq	fp, r7, r1
    3bc8:	237a0000 	cmncs	sl, #0
    3bcc:	4c1f0000 	ldcmi	0, cr0, [pc], {-0}
    3bd0:	7600009a 			; <UNDEFINED> instruction: 0x7600009a
    3bd4:	20000001 	andcs	r0, r0, r1
    3bd8:	75025001 	strvc	r5, [r2, #-1]
    3bdc:	23000000 	movwcs	r0, #0
    3be0:	00000763 	andeq	r0, r0, r3, ror #14
    3be4:	0025b901 	eoreq	fp, r5, r1, lsl #18
    3be8:	9a600000 	bls	1803bf0 <__bss_end__+0x17f5228>
    3bec:	00840000 	addeq	r0, r4, r0
    3bf0:	9c010000 	stcls	0, cr0, [r1], {-0}
    3bf4:	00001019 	andeq	r1, r0, r9, lsl r0
    3bf8:	00075e13 	andeq	r5, r7, r3, lsl lr
    3bfc:	22b90100 	adcscs	r0, r9, #0, 2
    3c00:	98000007 	stmdals	r0, {r0, r1, r2}
    3c04:	2e000023 	cdpcs	0, 0, cr0, cr0, cr3, {1}
    3c08:	00746d66 	rsbseq	r6, r4, r6, ror #26
    3c0c:	0097b901 	addseq	fp, r7, r1, lsl #18
    3c10:	91020000 	mrsls	r0, (UNDEF: 2)
    3c14:	62152f74 	andsvs	r2, r5, #116, 30	; 0x1d0
    3c18:	01006675 	tsteq	r0, r5, ror r6
    3c1c:	001019ba 			; <UNDEFINED> instruction: 0x001019ba
    3c20:	9c910300 	ldcls	3, cr0, [r1], {0}
    3c24:	0621187c 			; <UNDEFINED> instruction: 0x0621187c
    3c28:	bc010000 	stclt	0, cr0, [r1], {-0}
    3c2c:	00000106 	andeq	r0, r0, r6, lsl #2
    3c30:	7c989103 	ldfvcd	f1, [r8], {3}
    3c34:	007a7316 	rsbseq	r7, sl, r6, lsl r3
    3c38:	0025be01 	eoreq	fp, r5, r1, lsl #28
    3c3c:	23c40000 	biccs	r0, r4, #0
    3c40:	a2290000 	eorge	r0, r9, #0
    3c44:	3a000001 	bcc	3c50 <_start-0x43b0>
    3c48:	05000010 	streq	r0, [r0, #-16]
    3c4c:	00a32c03 	adceq	r2, r3, r3, lsl #24
    3c50:	9a882500 	bls	fe20d058 <__bss_end__+0xfe1fe690>
    3c54:	11ad0000 			; <UNDEFINED> instruction: 0x11ad0000
    3c58:	0fc00000 	svceq	0x00c00000
    3c5c:	01200000 	teqeq	r0, r0
    3c60:	58910253 	ldmpl	r1, {r0, r1, r4, r6, r9}
    3c64:	03520120 	cmpeq	r2, #32, 2
    3c68:	20065491 	mulcs	r6, r1, r4
    3c6c:	0a035101 	beq	d8078 <__bss_end__+0xc96b0>
    3c70:	012001cc 	smlawteq	r0, ip, r1, r0
    3c74:	fc910350 	ldc2	3, cr0, [r1], {80}	; 0x50
    3c78:	9c24007b 	stcls	0, cr0, [r4], #-492	; 0xfffffe14
    3c7c:	6700009a 			; <UNDEFINED> instruction: 0x6700009a
    3c80:	25000011 	strcs	r0, [r0, #-17]
    3c84:	00009ab0 			; <UNDEFINED> instruction: 0x00009ab0
    3c88:	0000116e 	andeq	r1, r0, lr, ror #2
    3c8c:	00000ff8 	strdeq	r0, [r0], -r8
    3c90:	02530120 	subseq	r0, r3, #32, 2
    3c94:	0120c008 	teqeq	r0, r8
    3c98:	2c030552 	cfstr32cs	mvfx0, [r3], {82}	; 0x52
    3c9c:	200000a3 	andcs	r0, r0, r3, lsr #1
    3ca0:	03055101 	movweq	r5, #20737	; 0x5101
    3ca4:	0000a370 	andeq	sl, r0, r0, ror r3
    3ca8:	05500120 	ldrbeq	r0, [r0, #-288]	; 0x120
    3cac:	00a40003 	adceq	r0, r4, r3
    3cb0:	b4240000 	strtlt	r0, [r4], #-0
    3cb4:	8400009a 	strhi	r0, [r0], #-154	; 0x9a
    3cb8:	1f000011 	svcne	0x00000011
    3cbc:	00009ac0 	andeq	r9, r0, r0, asr #21
    3cc0:	00000ee1 	andeq	r0, r0, r1, ror #29
    3cc4:	03510120 	cmpeq	r1, #32, 2
    3cc8:	207bfc91 			; <UNDEFINED> instruction: 0x207bfc91
    3ccc:	75025001 	strvc	r5, [r2, #-1]
    3cd0:	2a000000 	bcs	3cd8 <_start-0x4328>
    3cd4:	00000090 	muleq	r0, r0, r0
    3cd8:	0000102a 	andeq	r1, r0, sl, lsr #32
    3cdc:	00008130 	andeq	r8, r0, r0, lsr r1
    3ce0:	0001cb00 	andeq	ip, r1, r0, lsl #22
    3ce4:	0000902a 	andeq	r9, r0, sl, lsr #32
    3ce8:	00103a00 	andseq	r3, r0, r0, lsl #20
    3cec:	00812b00 	addeq	r2, r1, r0, lsl #22
    3cf0:	000e0000 	andeq	r0, lr, r0
    3cf4:	00102a07 	andseq	r2, r0, r7, lsl #20
    3cf8:	0b4b2300 	bleq	12cc900 <__bss_end__+0x12bdf38>
    3cfc:	c5010000 	strgt	r0, [r1, #-0]
    3d00:	00000025 	andeq	r0, r0, r5, lsr #32
    3d04:	00009ae4 	andeq	r9, r0, r4, ror #21
    3d08:	0000004c 	andeq	r0, r0, ip, asr #32
    3d0c:	111c9c01 	tstne	ip, r1, lsl #24
    3d10:	75140000 	ldrvc	r0, [r4, #-0]
    3d14:	22c50100 	sbccs	r0, r5, #0, 2
    3d18:	03000007 	movweq	r0, #7
    3d1c:	14000024 	strne	r0, [r0], #-36	; 0x24
    3d20:	00667562 	rsbeq	r7, r6, r2, ror #10
    3d24:	0c02c501 	cfstr32eq	mvfx12, [r2], {1}
    3d28:	24240000 	strtcs	r0, [r4], #-0
    3d2c:	37130000 	ldrcc	r0, [r3, -r0]
    3d30:	0100000b 	tsteq	r0, fp
    3d34:	000068c5 	andeq	r6, r0, r5, asr #17
    3d38:	00244500 	eoreq	r4, r4, r0, lsl #10
    3d3c:	6e651400 	cdpvs	4, 6, cr1, cr5, cr0, {0}
    3d40:	c5010064 	strgt	r0, [r1, #-100]	; 0x64
    3d44:	0000004f 	andeq	r0, r0, pc, asr #32
    3d48:	00002466 	andeq	r2, r0, r6, ror #8
    3d4c:	73657216 	cmnvc	r5, #1610612737	; 0x60000001
    3d50:	25c60100 	strbcs	r0, [r6, #256]	; 0x100
    3d54:	87000000 	strhi	r0, [r0, -r0]
    3d58:	29000024 	stmdbcs	r0, {r2, r5}
    3d5c:	000001a2 	andeq	r0, r0, r2, lsr #3
    3d60:	0000112c 	andeq	r1, r0, ip, lsr #2
    3d64:	a33c0305 	teqge	ip, #335544320	; 0x14000000
    3d68:	f8250000 			; <UNDEFINED> instruction: 0xf8250000
    3d6c:	1e00009a 	mcrne	0, 0, r0, cr0, cr10, {4}
    3d70:	da00000b 	ble	3da4 <_start-0x425c>
    3d74:	20000010 	andcs	r0, r0, r0, lsl r0
    3d78:	f3035201 	vhsub.u8	d5, d3, d1
    3d7c:	01205201 	teqeq	r0, r1, lsl #4
    3d80:	01f30351 	mvnseq	r0, r1, asr r3
    3d84:	50012051 	andpl	r2, r1, r1, asr r0
    3d88:	5001f303 	andpl	pc, r1, r3, lsl #6
    3d8c:	007d0220 	rsbseq	r0, sp, r0, lsr #4
    3d90:	00ff0902 	rscseq	r0, pc, r2, lsl #18
    3d94:	009b0424 	addseq	r0, fp, r4, lsr #8
    3d98:	00116700 	andseq	r6, r1, r0, lsl #14
    3d9c:	9b182500 	blls	60d1a4 <__bss_end__+0x5fe7dc>
    3da0:	116e0000 	cmnne	lr, r0
    3da4:	11120000 	tstne	r2, r0
    3da8:	01200000 	teqeq	r0, r0
    3dac:	c8080253 	stmdagt	r8, {r0, r1, r4, r6, r9}
    3db0:	05520120 	ldrbeq	r0, [r2, #-288]	; 0x120
    3db4:	00a33c03 	adceq	r3, r3, r3, lsl #24
    3db8:	51012000 	mrspl	r2, (UNDEF: 1)
    3dbc:	a3700305 	cmnge	r0, #335544320	; 0x14000000
    3dc0:	01200000 	teqeq	r0, r0
    3dc4:	c8030550 	stmdagt	r3, {r4, r6, r8, sl}
    3dc8:	000000a3 	andeq	r0, r0, r3, lsr #1
    3dcc:	009b1c24 	addseq	r1, fp, r4, lsr #24
    3dd0:	00118400 	andseq	r8, r1, r0, lsl #8
    3dd4:	902a0000 	eorls	r0, sl, r0
    3dd8:	2c000000 	stccs	0, cr0, [r0], {-0}
    3ddc:	2b000011 	blcs	3e28 <_start-0x41d8>
    3de0:	00000081 	andeq	r0, r0, r1, lsl #1
    3de4:	1c070016 	stcne	0, cr0, [r7], {22}
    3de8:	31000011 	tstcc	r0, r1, lsl r0
    3dec:	000009f7 	strdeq	r0, [r0], -r7
    3df0:	11472106 	cmpne	r7, r6, lsl #2
    3df4:	2c320000 	ldccs	0, cr0, [r2], #-0
    3df8:	32000000 	andcc	r0, r0, #0
    3dfc:	0000002c 	andeq	r0, r0, ip, lsr #32
    3e00:	086b3300 	stmdaeq	fp!, {r8, r9, ip, sp}^
    3e04:	57070000 	strpl	r0, [r7, -r0]
    3e08:	0000002c 	andeq	r0, r0, ip, lsr #32
    3e0c:	00099534 	andeq	r9, r9, r4, lsr r5
    3e10:	25240600 	strcs	r0, [r4, #-1536]!	; 0x600
    3e14:	67000000 	strvs	r0, [r0, -r0]
    3e18:	32000011 	andcc	r0, r0, #17
    3e1c:	0000002c 	andeq	r0, r0, ip, lsr #32
    3e20:	017b3500 	cmneq	fp, r0, lsl #10
    3e24:	1e070000 	cdpne	0, 0, cr0, cr7, cr0, {0}
    3e28:	00061034 	andeq	r1, r6, r4, lsr r0
    3e2c:	25290700 	strcs	r0, [r9, #-1792]!	; 0x700
    3e30:	84000000 	strhi	r0, [r0], #-0
    3e34:	32000011 	andcc	r0, r0, #17
    3e38:	00000097 	muleq	r0, r7, r0
    3e3c:	a535002f 	ldrge	r0, [r5, #-47]!	; 0x2f
    3e40:	07000002 	streq	r0, [r0, -r2]
    3e44:	0a483166 	beq	12103e4 <__bss_end__+0x1201a1c>
    3e48:	1d060000 	stcne	0, cr0, [r6, #-0]
    3e4c:	0000119c 	muleq	r0, ip, r1
    3e50:	00002c32 	andeq	r2, r0, r2, lsr ip
    3e54:	11310000 	teqne	r1, r0
    3e58:	0600000a 	streq	r0, [r0], -sl
    3e5c:	0011ad1c 	andseq	sl, r1, ip, lsl sp
    3e60:	002c3200 	eoreq	r3, ip, r0, lsl #4
    3e64:	36000000 	strcc	r0, [r0], -r0
    3e68:	0000060d 	andeq	r0, r0, sp, lsl #12
    3e6c:	00250208 	eoreq	r0, r5, r8, lsl #4
    3e70:	8a320000 	bhi	c83e78 <__bss_end__+0xc754b0>
    3e74:	32000000 	andcc	r0, r0, #0
    3e78:	00000025 	andeq	r0, r0, r5, lsr #32
    3e7c:	00009732 	andeq	r9, r0, r2, lsr r7
    3e80:	01063200 	mrseq	r3, LR_usr
    3e84:	00000000 	andeq	r0, r0, r0
    3e88:	000003ff 	strdeq	r0, [r0], -pc	; <UNPREDICTABLE>
    3e8c:	11ec0004 	mvnne	r0, r4
    3e90:	01040000 	mrseq	r0, (UNDEF: 4)
    3e94:	000003b1 			; <UNDEFINED> instruction: 0x000003b1
    3e98:	000b8a01 	andeq	r8, fp, r1, lsl #20
    3e9c:	0005ac00 	andeq	sl, r5, r0, lsl #24
    3ea0:	009b3000 	addseq	r3, fp, r0
    3ea4:	00015400 	andeq	r5, r1, r0, lsl #8
    3ea8:	00112700 	andseq	r2, r1, r0, lsl #14
    3eac:	05040200 	streq	r0, [r4, #-512]	; 0x200
    3eb0:	00746e69 	rsbseq	r6, r4, r9, ror #28
    3eb4:	64070403 	strvs	r0, [r7], #-1027	; 0x403
    3eb8:	03000000 	movweq	r0, #0
    3ebc:	03650601 	cmneq	r5, #1048576	; 0x100000
    3ec0:	02030000 	andeq	r0, r3, #0
    3ec4:	00037905 	andeq	r7, r3, r5, lsl #18
    3ec8:	05040300 	streq	r0, [r4, #-768]	; 0x300
    3ecc:	000000a3 	andeq	r0, r0, r3, lsr #1
    3ed0:	9e050803 	cdpls	8, 0, cr0, cr5, cr3, {0}
    3ed4:	03000000 	movweq	r0, #0
    3ed8:	03630801 	cmneq	r3, #65536	; 0x10000
    3edc:	02030000 	andeq	r0, r3, #0
    3ee0:	00022e07 	andeq	r2, r2, r7, lsl #28
    3ee4:	07040300 	streq	r0, [r4, -r0, lsl #6]
    3ee8:	0000005f 	andeq	r0, r0, pc, asr r0
    3eec:	5a070803 	bpl	1c5f00 <__bss_end__+0x1b7538>
    3ef0:	03000000 	movweq	r0, #0
    3ef4:	02b70704 	adcseq	r0, r7, #4, 14	; 0x100000
    3ef8:	01030000 	mrseq	r0, (UNDEF: 3)
    3efc:	00036c08 	andeq	r6, r3, r8, lsl #24
    3f00:	02010400 	andeq	r0, r1, #0, 8
    3f04:	0000b20c 	andeq	fp, r0, ip, lsl #4
    3f08:	00770500 	rsbseq	r0, r7, r0, lsl #10
    3f0c:	05000000 	streq	r0, [r0, #-0]
    3f10:	000004a2 	andeq	r0, r0, r2, lsr #9
    3f14:	04df0501 	ldrbeq	r0, [pc], #1281	; 3f1c <_start-0x40e4>
    3f18:	05040000 	streq	r0, [r4, #-0]
    3f1c:	000004ee 	andeq	r0, r0, lr, ror #9
    3f20:	04fd0505 	ldrbteq	r0, [sp], #1285	; 0x505
    3f24:	05060000 	streq	r0, [r6, #-0]
    3f28:	0000050c 	andeq	r0, r0, ip, lsl #10
    3f2c:	051b0507 	ldreq	r0, [fp, #-1287]	; 0x507
    3f30:	05030000 	streq	r0, [r3, #-0]
    3f34:	0000052a 	andeq	r0, r0, sl, lsr #10
    3f38:	c1060002 	tstgt	r6, r2
    3f3c:	02000004 	andeq	r0, r0, #4
    3f40:	00007915 	andeq	r7, r0, r5, lsl r9
    3f44:	0b800700 	bleq	fe005b4c <__bss_end__+0xfdff7184>
    3f48:	37010000 	strcc	r0, [r1, -r0]
    3f4c:	00009b30 	andeq	r9, r0, r0, lsr fp
    3f50:	0000009c 	muleq	r0, ip, r0
    3f54:	01c39c01 	biceq	r9, r3, r1, lsl #24
    3f58:	38080000 	stmdacc	r8, {}	; <UNPREDICTABLE>
    3f5c:	a800009b 	stmdage	r0, {r0, r1, r3, r4, r7}
    3f60:	09000003 	stmdbeq	r0, {r0, r1}
    3f64:	00009b44 	andeq	r9, r0, r4, asr #22
    3f68:	000003af 	andeq	r0, r0, pc, lsr #7
    3f6c:	000000f3 	strdeq	r0, [r0], -r3
    3f70:	0151010a 	cmpeq	r1, sl, lsl #2
    3f74:	50010a32 	andpl	r0, r1, r2, lsr sl
    3f78:	09003e01 	stmdbeq	r0, {r0, r9, sl, fp, ip, sp}
    3f7c:	00009b50 	andeq	r9, r0, r0, asr fp
    3f80:	000003af 	andeq	r0, r0, pc, lsr #7
    3f84:	0000010b 	andeq	r0, r0, fp, lsl #2
    3f88:	0151010a 	cmpeq	r1, sl, lsl #2
    3f8c:	50010a32 	andpl	r0, r1, r2, lsr sl
    3f90:	08003f01 	stmdaeq	r0, {r0, r8, r9, sl, fp, ip, sp}
    3f94:	00009b54 	andeq	r9, r0, r4, asr fp
    3f98:	000003a8 	andeq	r0, r0, r8, lsr #7
    3f9c:	009b6409 	addseq	r6, fp, r9, lsl #8
    3fa0:	0003c500 	andeq	ip, r3, r0, lsl #10
    3fa4:	00012800 	andeq	r2, r1, r0, lsl #16
    3fa8:	50010a00 	andpl	r0, r1, r0, lsl #20
    3fac:	00007502 	andeq	r7, r0, r2, lsl #10
    3fb0:	009b7009 	addseq	r7, fp, r9
    3fb4:	0003e600 	andeq	lr, r3, r0, lsl #12
    3fb8:	00013c00 	andeq	r3, r1, r0, lsl #24
    3fbc:	50010a00 	andpl	r0, r1, r0, lsl #20
    3fc0:	00007502 	andeq	r7, r0, r2, lsl #10
    3fc4:	009b7408 	addseq	r7, fp, r8, lsl #8
    3fc8:	0003a800 	andeq	sl, r3, r0, lsl #16
    3fcc:	9b800900 	blls	fe0063d4 <__bss_end__+0xfdff7a0c>
    3fd0:	03e60000 	mvneq	r0, #0
    3fd4:	01580000 	cmpeq	r8, r0
    3fd8:	010a0000 	mrseq	r0, (UNDEF: 10)
    3fdc:	00300151 	eorseq	r0, r0, r1, asr r1
    3fe0:	009b8c09 	addseq	r8, fp, r9, lsl #24
    3fe4:	0003e600 	andeq	lr, r3, r0, lsl #12
    3fe8:	00016b00 	andeq	r6, r1, r0, lsl #22
    3fec:	51010a00 	tstpl	r1, r0, lsl #20
    3ff0:	09003001 	stmdbeq	r0, {r0, ip, sp}
    3ff4:	00009b98 	muleq	r0, r8, fp
    3ff8:	000003e6 	andeq	r0, r0, r6, ror #7
    3ffc:	0000017e 	andeq	r0, r0, lr, ror r1
    4000:	0151010a 	cmpeq	r1, sl, lsl #2
    4004:	a4090036 	strge	r0, [r9], #-54	; 0x36
    4008:	e600009b 			; <UNDEFINED> instruction: 0xe600009b
    400c:	91000003 	tstls	r0, r3
    4010:	0a000001 	beq	401c <_start-0x3fe4>
    4014:	33015101 	movwcc	r5, #4353	; 0x1101
    4018:	9bb00900 	blls	fec06420 <__bss_end__+0xfebf7a58>
    401c:	03e60000 	mvneq	r0, #0
    4020:	01a60000 			; <UNDEFINED> instruction: 0x01a60000
    4024:	010a0000 	mrseq	r0, (UNDEF: 10)
    4028:	0e0a0351 	mcreq	3, 0, r0, cr10, cr1, {2}
    402c:	bc090001 	stclt	0, cr0, [r9], {1}
    4030:	e600009b 			; <UNDEFINED> instruction: 0xe600009b
    4034:	b9000003 	stmdblt	r0, {r0, r1}
    4038:	0a000001 	beq	4044 <_start-0x3fbc>
    403c:	33015101 	movwcc	r5, #4353	; 0x1101
    4040:	9bc00800 	blls	ff006048 <__bss_end__+0xfeff7680>
    4044:	03a80000 			; <UNDEFINED> instruction: 0x03a80000
    4048:	0b000000 	bleq	4050 <_start-0x3fb0>
    404c:	000000c0 	andeq	r0, r0, r0, asr #1
    4050:	00255701 	eoreq	r5, r5, r1, lsl #14
    4054:	9bcc0000 	blls	ff30405c <__bss_end__+0xff2f5694>
    4058:	001c0000 	andseq	r0, ip, r0
    405c:	9c010000 	stcls	0, cr0, [r1], {-0}
    4060:	000001e6 	andeq	r0, r0, r6, ror #3
    4064:	009bdc08 	addseq	sp, fp, r8, lsl #24
    4068:	0003c500 	andeq	ip, r3, r0, lsl #10
    406c:	ca0b0000 	bgt	2c4074 <__bss_end__+0x2b56ac>
    4070:	0100000a 	tsteq	r0, sl
    4074:	0000255d 	andeq	r2, r0, sp, asr r5
    4078:	009be800 	addseq	lr, fp, r0, lsl #16
    407c:	00002800 	andeq	r2, r0, r0, lsl #16
    4080:	129c0100 	addsne	r0, ip, #0, 2
    4084:	08000002 	stmdaeq	r0, {r1}
    4088:	00009bf0 	strdeq	r9, [r0], -r0
    408c:	000001c3 	andeq	r0, r0, r3, asr #3
    4090:	009c0408 	addseq	r0, ip, r8, lsl #8
    4094:	0003c500 	andeq	ip, r3, r0, lsl #10
    4098:	3d0b0000 	stccc	0, cr0, [fp, #-0]
    409c:	01000001 	tsteq	r0, r1
    40a0:	00002564 	andeq	r2, r0, r4, ror #10
    40a4:	009c1000 	addseq	r1, ip, r0
    40a8:	00001c00 	andeq	r1, r0, r0, lsl #24
    40ac:	359c0100 	ldrcc	r0, [ip, #256]	; 0x100
    40b0:	08000002 	stmdaeq	r0, {r1}
    40b4:	00009c20 	andeq	r9, r0, r0, lsr #24
    40b8:	000003c5 	andeq	r0, r0, r5, asr #7
    40bc:	02610700 	rsbeq	r0, r1, #0, 14
    40c0:	6a010000 	bvs	440c8 <__bss_end__+0x35700>
    40c4:	00009c2c 	andeq	r9, r0, ip, lsr #24
    40c8:	0000002c 	andeq	r0, r0, ip, lsr #32
    40cc:	02719c01 	rsbseq	r9, r1, #256	; 0x100
    40d0:	630c0000 	movwvs	r0, #49152	; 0xc000
    40d4:	2c6a0100 	stfcse	f0, [sl], #-0
    40d8:	a5000000 	strge	r0, [r0, #-0]
    40dc:	08000024 	stmdaeq	r0, {r2, r5}
    40e0:	00009c38 	andeq	r9, r0, r8, lsr ip
    40e4:	00000212 	andeq	r0, r0, r2, lsl r2
    40e8:	009c500d 	addseq	r5, ip, sp
    40ec:	0003e600 	andeq	lr, r3, r0, lsl #12
    40f0:	51010a00 	tstpl	r1, r0, lsl #20
    40f4:	00007402 	andeq	r7, r0, r2, lsl #8
    40f8:	0b720b00 	bleq	1c86d00 <__bss_end__+0x1c78338>
    40fc:	74010000 	strvc	r0, [r1], #-0
    4100:	00000025 	andeq	r0, r0, r5, lsr #32
    4104:	00009c58 	andeq	r9, r0, r8, asr ip
    4108:	0000000c 	andeq	r0, r0, ip
    410c:	02949c01 	addseq	r9, r4, #256	; 0x100
    4110:	60080000 	andvs	r0, r8, r0
    4114:	c300009c 	movwgt	r0, #156	; 0x9c
    4118:	00000001 	andeq	r0, r0, r1
    411c:	000b980b 	andeq	r9, fp, fp, lsl #16
    4120:	25780100 	ldrbcs	r0, [r8, #-256]!	; 0x100
    4124:	64000000 	strvs	r0, [r0], #-0
    4128:	2000009c 	mulcs	r0, ip, r0
    412c:	01000000 	mrseq	r0, (UNDEF: 0)
    4130:	0002c09c 	muleq	r2, ip, r0
    4134:	9c6c0800 	stclls	8, cr0, [ip], #-0
    4138:	02710000 	rsbseq	r0, r1, #0
    413c:	78080000 	stmdavc	r8, {}	; <UNPREDICTABLE>
    4140:	e600009c 			; <UNDEFINED> instruction: 0xe600009c
    4144:	00000001 	andeq	r0, r0, r1
    4148:	00033f0e 	andeq	r3, r3, lr, lsl #30
    414c:	d1160100 	tstle	r6, r0, lsl #2
    4150:	05000002 	streq	r0, [r0, #-2]
    4154:	00a0a803 	adceq	sl, r0, r3, lsl #16
    4158:	d7040f00 	strle	r0, [r4, -r0, lsl #30]
    415c:	10000002 	andne	r0, r0, r2
    4160:	0000002c 	andeq	r0, r0, ip, lsr #32
    4164:	00011e0e 	andeq	r1, r1, lr, lsl #28
    4168:	d1170100 	tstle	r7, r0, lsl #2
    416c:	05000002 	streq	r0, [r0, #-2]
    4170:	00a07803 	adceq	r7, r0, r3, lsl #16
    4174:	016d0e00 	cmneq	sp, r0, lsl #28
    4178:	1a010000 	bne	44180 <__bss_end__+0x357b8>
    417c:	000002d1 	ldrdeq	r0, [r0], -r1
    4180:	a0940305 	addsge	r0, r4, r5, lsl #6
    4184:	960e0000 	strls	r0, [lr], -r0
    4188:	01000002 	tsteq	r0, r2
    418c:	0002d11b 	andeq	sp, r2, fp, lsl r1
    4190:	80030500 	andhi	r0, r3, r0, lsl #10
    4194:	0e0000a0 	cdpeq	0, 0, cr0, cr0, cr0, {5}
    4198:	00000317 	andeq	r0, r0, r7, lsl r3
    419c:	02d11c01 	sbcseq	r1, r1, #256	; 0x100
    41a0:	03050000 	movweq	r0, #20480	; 0x5000
    41a4:	0000a084 	andeq	sl, r0, r4, lsl #1
    41a8:	0001af0e 	andeq	sl, r1, lr, lsl #30
    41ac:	d11d0100 	tstle	sp, r0, lsl #2
    41b0:	05000002 	streq	r0, [r0, #-2]
    41b4:	00a08803 	adceq	r8, r0, r3, lsl #16
    41b8:	05390e00 	ldreq	r0, [r9, #-3584]!	; 0xe00
    41bc:	1e010000 	cdpne	0, 0, cr0, cr1, cr0, {0}
    41c0:	000002d1 	ldrdeq	r0, [r0], -r1
    41c4:	a0a40305 	adcge	r0, r4, r5, lsl #6
    41c8:	040e0000 	streq	r0, [lr], #-0
    41cc:	01000001 	tsteq	r0, r1
    41d0:	0002d11f 	andeq	sp, r2, pc, lsl r1
    41d4:	90030500 	andls	r0, r3, r0, lsl #10
    41d8:	0e0000a0 	cdpeq	0, 0, cr0, cr0, cr0, {5}
    41dc:	0000024f 	andeq	r0, r0, pc, asr #4
    41e0:	02d12001 	sbcseq	r2, r1, #1
    41e4:	03050000 	movweq	r0, #20480	; 0x5000
    41e8:	0000a0a0 	andeq	sl, r0, r0, lsr #1
    41ec:	0000320e 	andeq	r3, r0, lr, lsl #4
    41f0:	d1210100 	teqle	r1, r0, lsl #2
    41f4:	05000002 	streq	r0, [r0, #-2]
    41f8:	00a09c03 	adceq	r9, r0, r3, lsl #24
    41fc:	040e0e00 	streq	r0, [lr], #-3584	; 0xe00
    4200:	22010000 	andcs	r0, r1, #0
    4204:	000002d1 	ldrdeq	r0, [r0], -r1
    4208:	a07c0305 	rsbsge	r0, ip, r5, lsl #6
    420c:	830e0000 	movwhi	r0, #57344	; 0xe000
    4210:	01000003 	tsteq	r0, r3
    4214:	0002d123 	andeq	sp, r2, r3, lsr #2
    4218:	98030500 	stmdals	r3, {r8, sl}
    421c:	0e0000a0 	cdpeq	0, 0, cr0, cr0, cr0, {5}
    4220:	00000192 	muleq	r0, r2, r1
    4224:	02d12401 	sbcseq	r2, r1, #16777216	; 0x1000000
    4228:	03050000 	movweq	r0, #20480	; 0x5000
    422c:	0000a08c 	andeq	sl, r0, ip, lsl #1
    4230:	00043511 	andeq	r3, r4, r1, lsl r5
    4234:	12870300 	addne	r0, r7, #0, 6
    4238:	000002c0 	andeq	r0, r0, r0, asr #5
    423c:	03c51902 	biceq	r1, r5, #32768	; 0x8000
    4240:	2c130000 	ldccs	0, cr0, [r3], {-0}
    4244:	13000000 	movwne	r0, #0
    4248:	000000b2 	strheq	r0, [r0], -r2
    424c:	04bb1400 	ldrteq	r1, [fp], #1024	; 0x400
    4250:	a6030000 	strge	r0, [r3], -r0
    4254:	0000002c 	andeq	r0, r0, ip, lsr #32
    4258:	000003da 	ldrdeq	r0, [r0], -sl
    425c:	0003da13 	andeq	sp, r3, r3, lsl sl
    4260:	040f0000 	streq	r0, [pc], #-0	; 4268 <_start-0x3d98>
    4264:	000003e0 	andeq	r0, r0, r0, ror #7
    4268:	0003e515 	andeq	lr, r3, r5, lsl r5
    426c:	27121600 	ldrcs	r1, [r2, -r0, lsl #12]
    4270:	03000004 	movweq	r0, #4
    4274:	0003fc9a 	muleq	r3, sl, ip
    4278:	03fc1300 	mvnseq	r1, #0, 6
    427c:	2c130000 	ldccs	0, cr0, [r3], {-0}
    4280:	00000000 	andeq	r0, r0, r0
    4284:	03e5040f 	mvneq	r0, #251658240	; 0xf000000
    4288:	8d000000 	stchi	0, cr0, [r0, #-0]
    428c:	04000005 	streq	r0, [r0], #-5
    4290:	00131a00 	andseq	r1, r3, r0, lsl #20
    4294:	b1010400 	tstlt	r1, r0, lsl #8
    4298:	01000003 	tsteq	r0, r3
    429c:	00000c63 	andeq	r0, r0, r3, ror #24
    42a0:	000005ac 	andeq	r0, r0, ip, lsr #11
    42a4:	00009c84 	andeq	r9, r0, r4, lsl #25
    42a8:	00000200 	andeq	r0, r0, r0, lsl #4
    42ac:	0000122c 	andeq	r1, r0, ip, lsr #4
    42b0:	69050402 	stmdbvs	r5, {r1, sl}
    42b4:	0300746e 	movweq	r7, #1134	; 0x46e
    42b8:	00640704 	rsbeq	r0, r4, r4, lsl #14
    42bc:	01030000 	mrseq	r0, (UNDEF: 3)
    42c0:	00036506 	andeq	r6, r3, r6, lsl #10
    42c4:	05020300 	streq	r0, [r2, #-768]	; 0x300
    42c8:	00000379 	andeq	r0, r0, r9, ror r3
    42cc:	a3050403 	movwge	r0, #21507	; 0x5403
    42d0:	03000000 	movweq	r0, #0
    42d4:	009e0508 	addseq	r0, lr, r8, lsl #10
    42d8:	01030000 	mrseq	r0, (UNDEF: 3)
    42dc:	00036308 	andeq	r6, r3, r8, lsl #6
    42e0:	07020300 	streq	r0, [r2, -r0, lsl #6]
    42e4:	0000022e 	andeq	r0, r0, lr, lsr #4
    42e8:	5f070403 	svcpl	0x00070403
    42ec:	03000000 	movweq	r0, #0
    42f0:	005a0708 	subseq	r0, sl, r8, lsl #14
    42f4:	04030000 	streq	r0, [r3], #-0
    42f8:	0002b707 	andeq	fp, r2, r7, lsl #14
    42fc:	08010300 	stmdaeq	r1, {r8, r9}
    4300:	0000036c 	andeq	r0, r0, ip, ror #6
    4304:	007f0404 	rsbseq	r0, pc, r4, lsl #8
    4308:	72050000 	andvc	r0, r5, #0
    430c:	06000000 	streq	r0, [r0], -r0
    4310:	00000072 	andeq	r0, r0, r2, ror r0
    4314:	00000094 	muleq	r0, r4, r0
    4318:	00006b07 	andeq	r6, r0, r7, lsl #22
    431c:	08001900 	stmdaeq	r0, {r8, fp, ip}
    4320:	0b140304 	bleq	504f38 <__bss_end__+0x4f6570>
    4324:	09000001 	stmdbeq	r0, {r0}
    4328:	00000d09 	andeq	r0, r0, r9, lsl #26
    432c:	8082e480 	addhi	lr, r2, r0, lsl #9
    4330:	0bee0902 	bleq	ffb86740 <__bss_end__+0xffb77d78>
    4334:	e4800000 	str	r0, [r0], #0
    4338:	09028082 	stmdbeq	r2, {r1, r7, pc}
    433c:	00000c83 	andeq	r0, r0, r3, lsl #25
    4340:	8082e484 	addhi	lr, r2, r4, lsl #9
    4344:	0c550902 	mrrceq	9, 0, r0, r5, cr2
    4348:	e4880000 	str	r0, [r8], #0
    434c:	09028082 	stmdbeq	r2, {r1, r7, pc}
    4350:	00000bd1 	ldrdeq	r0, [r0], -r1
    4354:	8082e48c 	addhi	lr, r2, ip, lsl #9
    4358:	0c120902 	ldceq	9, cr0, [r2], {2}
    435c:	e4900000 	ldr	r0, [r0], #0
    4360:	09028082 	stmdbeq	r2, {r1, r7, pc}
    4364:	00000c20 	andeq	r0, r0, r0, lsr #24
    4368:	8082e494 	umullhi	lr, r2, r4, r4
    436c:	0c000902 	stceq	9, cr0, [r0], {2}
    4370:	e4980000 	ldr	r0, [r8], #0
    4374:	09028082 	stmdbeq	r2, {r1, r7, pc}
    4378:	00000cd5 	ldrdeq	r0, [r0], -r5
    437c:	8082e49c 	umullhi	lr, r2, ip, r4
    4380:	0ce40902 	stcleq	9, cr0, [r4], #8
    4384:	e4a00000 	strt	r0, [r0], #0
    4388:	09028082 	stmdbeq	r2, {r1, r7, pc}
    438c:	00000bbe 			; <UNDEFINED> instruction: 0x00000bbe
    4390:	8082e4a4 	addhi	lr, r2, r4, lsr #9
    4394:	0e0a0002 	cdpeq	0, 0, cr0, cr10, cr2, {0}
    4398:	01000003 	tsteq	r0, r3
    439c:	009c8405 	addseq	r8, ip, r5, lsl #8
    43a0:	00006800 	andeq	r6, r0, r0, lsl #16
    43a4:	b79c0100 	ldrlt	r0, [ip, r0, lsl #2]
    43a8:	0b000001 	bleq	43b4 <_start-0x3c4c>
    43ac:	00000bdd 	ldrdeq	r0, [r0], -sp
    43b0:	002c1101 	eoreq	r1, ip, r1, lsl #2
    43b4:	2e0b0000 	cdpcs	0, 0, cr0, cr11, cr0, {0}
    43b8:	0100000c 	tsteq	r0, ip
    43bc:	00002c12 	andeq	r2, r0, r2, lsl ip
    43c0:	73640c00 	cmnvc	r4, #0, 24
    43c4:	16010074 			; <UNDEFINED> instruction: 0x16010074
    43c8:	000001b7 			; <UNDEFINED> instruction: 0x000001b7
    43cc:	72730d00 	rsbsvc	r0, r3, #0, 26
    43d0:	17010063 	strne	r0, [r1, -r3, rrx]
    43d4:	000001b7 			; <UNDEFINED> instruction: 0x000001b7
    43d8:	01006e0e 	tsteq	r0, lr, lsl #28
    43dc:	00002c18 	andeq	r2, r0, r8, lsl ip
    43e0:	0f500100 	svceq	0x00500100
    43e4:	00009cb4 			; <UNDEFINED> instruction: 0x00009cb4
    43e8:	00000024 	andeq	r0, r0, r4, lsr #32
    43ec:	00000173 	andeq	r0, r0, r3, ror r1
    43f0:	01006910 	tsteq	r0, r0, lsl r9
    43f4:	00002519 	andeq	r2, r0, r9, lsl r5
    43f8:	0024c300 	eoreq	ip, r4, r0, lsl #6
    43fc:	94110000 	ldrls	r0, [r1], #-0
    4400:	4f00009c 	svcmi	0x0000009c
    4404:	90000005 	andls	r0, r0, r5
    4408:	12000001 	andne	r0, r0, #1
    440c:	09025101 	stmdbeq	r2, {r0, r8, ip, lr}
    4410:	500112ff 	strdpl	r1, [r1], -pc	; <UNPREDICTABLE>
    4414:	b21c0c05 	andslt	r0, ip, #1280	; 0x500
    4418:	11002000 	mrsne	r2, (UNDEF: 0)
    441c:	00009ca0 	andeq	r9, r0, r0, lsr #25
    4420:	0000054f 	andeq	r0, r0, pc, asr #10
    4424:	000001ad 	andeq	r0, r0, sp, lsr #3
    4428:	02510112 	subseq	r0, r1, #-2147483644	; 0x80000004
    442c:	0112ff09 	tsteq	r2, r9, lsl #30
    4430:	200c0550 	andcs	r0, ip, r0, asr r5
    4434:	002000b2 	strhteq	r0, [r0], -r2
    4438:	009ca413 	addseq	sl, ip, r3, lsl r4
    443c:	00056500 	andeq	r6, r5, r0, lsl #10
    4440:	04040000 	streq	r0, [r4], #-0
    4444:	0000002c 	andeq	r0, r0, ip, lsr #32
    4448:	000cf30a 	andeq	pc, ip, sl, lsl #6
    444c:	ec1f0100 	ldfs	f0, [pc], {-0}
    4450:	4400009c 	strmi	r0, [r0], #-156	; 0x9c
    4454:	01000000 	mrseq	r0, (UNDEF: 0)
    4458:	0002429c 	muleq	r2, ip, r2
    445c:	63701400 	cmnvs	r0, #0, 8
    4460:	2c1f0100 	ldfcss	f0, [pc], {-0}
    4464:	e2000000 	and	r0, r0, #0
    4468:	15000024 	strne	r0, [r0, #-36]	; 0x24
    446c:	000001a2 	andeq	r0, r0, r2, lsr #3
    4470:	00000252 	andeq	r0, r0, r2, asr r2
    4474:	a4240305 	strtge	r0, [r4], #-773	; 0x305
    4478:	fc130000 	ldc2	0, cr0, [r3], {-0}
    447c:	6c00009c 	stcvs	0, cr0, [r0], {156}	; 0x9c
    4480:	11000005 	tstne	r0, r5
    4484:	00009d1c 	andeq	r9, r0, ip, lsl sp
    4488:	00000573 	andeq	r0, r0, r3, ror r5
    448c:	00000238 	andeq	r0, r0, r8, lsr r2
    4490:	02530112 	subseq	r0, r3, #-2147483644	; 0x80000004
    4494:	01122008 	tsteq	r2, r8
    4498:	24030552 	strcs	r0, [r3], #-1362	; 0x552
    449c:	120000a4 	andne	r0, r0, #164	; 0xa4
    44a0:	03055101 	movweq	r5, #20737	; 0x5101
    44a4:	0000a4f0 	strdeq	sl, [r0], -r0
    44a8:	05500112 	ldrbeq	r0, [r0, #-274]	; 0x112
    44ac:	00a4b403 	adceq	fp, r4, r3, lsl #8
    44b0:	7d021200 	sfmvc	f1, 4, [r2, #-0]
    44b4:	00740204 	rsbseq	r0, r4, r4, lsl #4
    44b8:	007d0212 	rsbseq	r0, sp, r2, lsl r2
    44bc:	a5100305 	ldrge	r0, [r0, #-773]	; 0x305
    44c0:	13000000 	movwne	r0, #0
    44c4:	00009d20 	andeq	r9, r0, r0, lsr #26
    44c8:	00000589 	andeq	r0, r0, r9, lsl #11
    44cc:	00720600 	rsbseq	r0, r2, r0, lsl #12
    44d0:	02520000 	subseq	r0, r2, #0
    44d4:	6b070000 	blvs	1c44dc <__bss_end__+0x1b5b14>
    44d8:	15000000 	strne	r0, [r0, #-0]
    44dc:	02420500 	subeq	r0, r2, #0, 10
    44e0:	bb0a0000 	bllt	2844e8 <__bss_end__+0x275b20>
    44e4:	0100000c 	tsteq	r0, ip
    44e8:	009d3024 	addseq	r3, sp, r4, lsr #32
    44ec:	00004400 	andeq	r4, r0, r0, lsl #8
    44f0:	dc9c0100 	ldfles	f0, [ip], {0}
    44f4:	14000002 	strne	r0, [r0], #-2
    44f8:	01006370 	tsteq	r0, r0, ror r3
    44fc:	00002c24 	andeq	r2, r0, r4, lsr #24
    4500:	00250000 	eoreq	r0, r5, r0
    4504:	01a21500 			; <UNDEFINED> instruction: 0x01a21500
    4508:	02dc0000 	sbcseq	r0, ip, #0
    450c:	03050000 	movweq	r0, #20480	; 0x5000
    4510:	0000a43c 	andeq	sl, r0, ip, lsr r4
    4514:	009d4013 	addseq	r4, sp, r3, lsl r0
    4518:	00056c00 	andeq	r6, r5, r0, lsl #24
    451c:	9d601100 	stflse	f1, [r0, #-0]
    4520:	05730000 	ldrbeq	r0, [r3, #-0]!
    4524:	02d20000 	sbcseq	r0, r2, #0
    4528:	01120000 	tsteq	r2, r0
    452c:	25080253 	strcs	r0, [r8, #-595]	; 0x253
    4530:	05520112 	ldrbeq	r0, [r2, #-274]	; 0x112
    4534:	00a43c03 	adceq	r3, r4, r3, lsl #24
    4538:	51011200 	mrspl	r1, R9_usr
    453c:	a4f00305 	ldrbtge	r0, [r0], #773	; 0x305
    4540:	01120000 	tsteq	r2, r0
    4544:	b4030550 	strlt	r0, [r3], #-1360	; 0x550
    4548:	120000a4 	andne	r0, r0, #164	; 0xa4
    454c:	02047d02 	andeq	r7, r4, #2, 26	; 0x80
    4550:	02120074 	andseq	r0, r2, #116	; 0x74
    4554:	0305007d 	movweq	r0, #20605	; 0x507d
    4558:	0000a518 	andeq	sl, r0, r8, lsl r5
    455c:	9d641300 	stclls	3, cr1, [r4, #-0]
    4560:	05890000 	streq	r0, [r9]
    4564:	05000000 	streq	r0, [r0, #-0]
    4568:	00000084 	andeq	r0, r0, r4, lsl #1
    456c:	000cae0a 	andeq	sl, ip, sl, lsl #28
    4570:	74270100 	strtvc	r0, [r7], #-256	; 0x100
    4574:	4400009d 	strmi	r0, [r0], #-157	; 0x9d
    4578:	01000000 	mrseq	r0, (UNDEF: 0)
    457c:	0003669c 	muleq	r3, ip, r6
    4580:	63701400 	cmnvs	r0, #0, 8
    4584:	2c270100 	stfcss	f0, [r7], #-0
    4588:	1e000000 	cdpne	0, 0, cr0, cr0, cr0, {0}
    458c:	15000025 	strne	r0, [r0, #-37]	; 0x25
    4590:	000001a2 	andeq	r0, r0, r2, lsr #3
    4594:	00000376 	andeq	r0, r0, r6, ror r3
    4598:	a4580305 	ldrbge	r0, [r8], #-773	; 0x305
    459c:	84130000 	ldrhi	r0, [r3], #-0
    45a0:	6c00009d 	stcvs	0, cr0, [r0], {157}	; 0x9d
    45a4:	11000005 	tstne	r0, r5
    45a8:	00009da4 	andeq	r9, r0, r4, lsr #27
    45ac:	00000573 	andeq	r0, r0, r3, ror r5
    45b0:	0000035c 	andeq	r0, r0, ip, asr r3
    45b4:	02530112 	subseq	r0, r3, #-2147483644	; 0x80000004
    45b8:	01122808 	tsteq	r2, r8, lsl #16
    45bc:	58030552 	stmdapl	r3, {r1, r4, r6, r8, sl}
    45c0:	120000a4 	andne	r0, r0, #164	; 0xa4
    45c4:	03055101 	movweq	r5, #20737	; 0x5101
    45c8:	0000a4f0 	strdeq	sl, [r0], -r0
    45cc:	05500112 	ldrbeq	r0, [r0, #-274]	; 0x112
    45d0:	00a4b403 	adceq	fp, r4, r3, lsl #8
    45d4:	7d021200 	sfmvc	f1, 4, [r2, #-0]
    45d8:	00740204 	rsbseq	r0, r4, r4, lsl #4
    45dc:	007d0212 	rsbseq	r0, sp, r2, lsl r2
    45e0:	a5280305 	strge	r0, [r8, #-773]!	; 0x305
    45e4:	13000000 	movwne	r0, #0
    45e8:	00009da8 	andeq	r9, r0, r8, lsr #27
    45ec:	00000589 	andeq	r0, r0, r9, lsl #11
    45f0:	00720600 	rsbseq	r0, r2, r0, lsl #12
    45f4:	03760000 	cmneq	r6, #0
    45f8:	6b070000 	blvs	1c4600 <__bss_end__+0x1b5c38>
    45fc:	0c000000 	stceq	0, cr0, [r0], {-0}
    4600:	03660500 	cmneq	r6, #0, 10
    4604:	910a0000 	mrsls	r0, (UNDEF: 10)
    4608:	0100000c 	tsteq	r0, ip
    460c:	009db82a 	addseq	fp, sp, sl, lsr #16
    4610:	00004400 	andeq	r4, r0, r0, lsl #8
    4614:	009c0100 	addseq	r0, ip, r0, lsl #2
    4618:	14000004 	strne	r0, [r0], #-4
    461c:	01006370 	tsteq	r0, r0, ror r3
    4620:	00002c2a 	andeq	r2, r0, sl, lsr #24
    4624:	00253c00 	eoreq	r3, r5, r0, lsl #24
    4628:	01a21500 			; <UNDEFINED> instruction: 0x01a21500
    462c:	04100000 	ldreq	r0, [r0], #-0
    4630:	03050000 	movweq	r0, #20480	; 0x5000
    4634:	0000a468 	andeq	sl, r0, r8, ror #8
    4638:	009dc813 	addseq	ip, sp, r3, lsl r8
    463c:	00056c00 	andeq	r6, r5, r0, lsl #24
    4640:	9de81100 	stflse	f1, [r8]
    4644:	05730000 	ldrbeq	r0, [r3, #-0]!
    4648:	03f60000 	mvnseq	r0, #0
    464c:	01120000 	tsteq	r2, r0
    4650:	2b080253 	blcs	204fa4 <__bss_end__+0x1f65dc>
    4654:	05520112 	ldrbeq	r0, [r2, #-274]	; 0x112
    4658:	00a46803 	adceq	r6, r4, r3, lsl #16
    465c:	51011200 	mrspl	r1, R9_usr
    4660:	a4f00305 	ldrbtge	r0, [r0], #773	; 0x305
    4664:	01120000 	tsteq	r2, r0
    4668:	b4030550 	strlt	r0, [r3], #-1360	; 0x550
    466c:	120000a4 	andne	r0, r0, #164	; 0xa4
    4670:	02047d02 	andeq	r7, r4, #2, 26	; 0x80
    4674:	02120074 	andseq	r0, r2, #116	; 0x74
    4678:	0305007d 	movweq	r0, #20605	; 0x507d
    467c:	0000a538 	andeq	sl, r0, r8, lsr r5
    4680:	9dec1300 	stclls	3, cr1, [ip]
    4684:	05890000 	streq	r0, [r9]
    4688:	06000000 	streq	r0, [r0], -r0
    468c:	00000072 	andeq	r0, r0, r2, ror r0
    4690:	00000410 	andeq	r0, r0, r0, lsl r4
    4694:	00006b07 	andeq	r6, r0, r7, lsl #22
    4698:	05001c00 	streq	r1, [r0, #-3072]	; 0xc00
    469c:	00000400 	andeq	r0, r0, r0, lsl #8
    46a0:	000ba80a 	andeq	sl, fp, sl, lsl #16
    46a4:	fc2d0100 	stc2	1, cr0, [sp], #-0
    46a8:	4400009d 	strmi	r0, [r0], #-157	; 0x9d
    46ac:	01000000 	mrseq	r0, (UNDEF: 0)
    46b0:	00049a9c 	muleq	r4, ip, sl
    46b4:	63701400 	cmnvs	r0, #0, 8
    46b8:	2c2d0100 	stfcss	f0, [sp], #-0
    46bc:	5a000000 	bpl	46c4 <_start-0x393c>
    46c0:	15000025 	strne	r0, [r0, #-37]	; 0x25
    46c4:	000001a2 	andeq	r0, r0, r2, lsr #3
    46c8:	0000049a 	muleq	r0, sl, r4
    46cc:	a4880305 	strge	r0, [r8], #773	; 0x305
    46d0:	0c130000 	ldceq	0, cr0, [r3], {-0}
    46d4:	6c00009e 	stcvs	0, cr0, [r0], {158}	; 0x9e
    46d8:	11000005 	tstne	r0, r5
    46dc:	00009e2c 	andeq	r9, r0, ip, lsr #28
    46e0:	00000573 	andeq	r0, r0, r3, ror r5
    46e4:	00000490 	muleq	r0, r0, r4
    46e8:	02530112 	subseq	r0, r3, #-2147483644	; 0x80000004
    46ec:	01122e08 	tsteq	r2, r8, lsl #28
    46f0:	88030552 	stmdahi	r3, {r1, r4, r6, r8, sl}
    46f4:	120000a4 	andne	r0, r0, #164	; 0xa4
    46f8:	03055101 	movweq	r5, #20737	; 0x5101
    46fc:	0000a4f0 	strdeq	sl, [r0], -r0
    4700:	05500112 	ldrbeq	r0, [r0, #-274]	; 0x112
    4704:	00a4b403 	adceq	fp, r4, r3, lsl #8
    4708:	7d021200 	sfmvc	f1, 4, [r2, #-0]
    470c:	00740204 	rsbseq	r0, r4, r4, lsl #4
    4710:	007d0212 	rsbseq	r0, sp, r2, lsl r2
    4714:	a5500305 	ldrbge	r0, [r0, #-773]	; 0x305
    4718:	13000000 	movwne	r0, #0
    471c:	00009e30 	andeq	r9, r0, r0, lsr lr
    4720:	00000589 	andeq	r0, r0, r9, lsl #11
    4724:	02420500 	subeq	r0, r2, #0, 10
    4728:	430a0000 	movwmi	r0, #40960	; 0xa000
    472c:	0100000c 	tsteq	r0, ip
    4730:	009e4030 	addseq	r4, lr, r0, lsr r0
    4734:	00004400 	andeq	r4, r0, r0, lsl #8
    4738:	249c0100 	ldrcs	r0, [ip], #256	; 0x100
    473c:	14000005 	strne	r0, [r0], #-5
    4740:	01006370 	tsteq	r0, r0, ror r3
    4744:	00002c30 	andeq	r2, r0, r0, lsr ip
    4748:	00257800 	eoreq	r7, r5, r0, lsl #16
    474c:	01a21500 			; <UNDEFINED> instruction: 0x01a21500
    4750:	05340000 	ldreq	r0, [r4, #-0]!
    4754:	03050000 	movweq	r0, #20480	; 0x5000
    4758:	0000a4a0 	andeq	sl, r0, r0, lsr #9
    475c:	009e5013 	addseq	r5, lr, r3, lsl r0
    4760:	00056c00 	andeq	r6, r5, r0, lsl #24
    4764:	9e701100 	rpwlss	f1, f0, f0
    4768:	05730000 	ldrbeq	r0, [r3, #-0]!
    476c:	051a0000 	ldreq	r0, [sl, #-0]
    4770:	01120000 	tsteq	r2, r0
    4774:	31080253 	tstcc	r8, r3, asr r2
    4778:	05520112 	ldrbeq	r0, [r2, #-274]	; 0x112
    477c:	00a4a003 	adceq	sl, r4, r3
    4780:	51011200 	mrspl	r1, R9_usr
    4784:	a4f00305 	ldrbtge	r0, [r0], #773	; 0x305
    4788:	01120000 	tsteq	r2, r0
    478c:	b4030550 	strlt	r0, [r3], #-1360	; 0x550
    4790:	120000a4 	andne	r0, r0, #164	; 0xa4
    4794:	02047d02 	andeq	r7, r4, #2, 26	; 0x80
    4798:	02120074 	andseq	r0, r2, #116	; 0x74
    479c:	0305007d 	movweq	r0, #20605	; 0x507d
    47a0:	0000a560 	andeq	sl, r0, r0, ror #10
    47a4:	9e741300 	cdpls	3, 7, cr1, cr4, cr0, {0}
    47a8:	05890000 	streq	r0, [r9]
    47ac:	06000000 	streq	r0, [r0], -r0
    47b0:	00000072 	andeq	r0, r0, r2, ror r0
    47b4:	00000534 	andeq	r0, r0, r4, lsr r5
    47b8:	00006b07 	andeq	r6, r0, r7, lsl #22
    47bc:	05001100 	streq	r1, [r0, #-256]	; 0x100
    47c0:	00000524 	andeq	r0, r0, r4, lsr #10
    47c4:	000bdd0b 	andeq	sp, fp, fp, lsl #26
    47c8:	2c110100 	ldfcss	f0, [r1], {-0}
    47cc:	0b000000 	bleq	47d4 <_start-0x382c>
    47d0:	00000c2e 	andeq	r0, r0, lr, lsr #24
    47d4:	002c1201 	eoreq	r1, ip, r1, lsl #4
    47d8:	58160000 	ldmdapl	r6, {}	; <UNPREDICTABLE>
    47dc:	02000008 	andeq	r0, r0, #8
    47e0:	00056599 	muleq	r5, r9, r5
    47e4:	002c1700 	eoreq	r1, ip, r0, lsl #14
    47e8:	2c170000 	ldccs	0, cr0, [r7], {-0}
    47ec:	00000000 	andeq	r0, r0, r0
    47f0:	00043518 	andeq	r3, r4, r8, lsl r5
    47f4:	18870200 	stmne	r7, {r9}
    47f8:	0000017b 	andeq	r0, r0, fp, ror r1
    47fc:	10191e02 	andsne	r1, r9, r2, lsl #28
    4800:	02000006 	andeq	r0, r0, #6
    4804:	00002529 	andeq	r2, r0, r9, lsr #10
    4808:	00058900 	andeq	r8, r5, r0, lsl #18
    480c:	00791700 	rsbseq	r1, r9, r0, lsl #14
    4810:	001a0000 	andseq	r0, sl, r0
    4814:	0002a518 	andeq	sl, r2, r8, lsl r5
    4818:	00660200 	rsbeq	r0, r6, r0, lsl #4
    481c:	000001c3 	andeq	r0, r0, r3, asr #3
    4820:	14710004 	ldrbtne	r0, [r1], #-4
    4824:	01040000 	mrseq	r0, (UNDEF: 4)
    4828:	000003b1 			; <UNDEFINED> instruction: 0x000003b1
    482c:	000d1901 	andeq	r1, sp, r1, lsl #18
    4830:	0005ac00 	andeq	sl, r5, r0, lsl #24
    4834:	009fc000 	addseq	ip, pc, r0
    4838:	00005000 	andeq	r5, r0, r0
    483c:	00130600 	andseq	r0, r3, r0, lsl #12
    4840:	05040200 	streq	r0, [r4, #-512]	; 0x200
    4844:	00746e69 	rsbseq	r6, r4, r9, ror #28
    4848:	00000e03 	andeq	r0, r0, r3, lsl #28
    484c:	37d40200 	ldrbcc	r0, [r4, r0, lsl #4]
    4850:	04000000 	streq	r0, [r0], #-0
    4854:	00640704 	rsbeq	r0, r4, r4, lsl #14
    4858:	01040000 	mrseq	r0, (UNDEF: 4)
    485c:	00036506 	andeq	r6, r3, r6, lsl #10
    4860:	05020400 	streq	r0, [r2, #-1024]	; 0x400
    4864:	00000379 	andeq	r0, r0, r9, ror r3
    4868:	a3050404 	movwge	r0, #21508	; 0x5404
    486c:	04000000 	streq	r0, [r0], #-0
    4870:	009e0508 	addseq	r0, lr, r8, lsl #10
    4874:	b3030000 	movwlt	r0, #12288	; 0x3000
    4878:	03000004 	movweq	r0, #4
    487c:	0000652e 	andeq	r6, r0, lr, lsr #10
    4880:	08010400 	stmdaeq	r1, {sl}
    4884:	00000363 	andeq	r0, r0, r3, ror #6
    4888:	2e070204 	cdpcs	2, 0, cr0, cr7, cr4, {0}
    488c:	03000002 	movweq	r0, #2
    4890:	000003a3 	andeq	r0, r0, r3, lsr #7
    4894:	007e3403 	rsbseq	r3, lr, r3, lsl #8
    4898:	04040000 	streq	r0, [r4], #-0
    489c:	00005f07 	andeq	r5, r0, r7, lsl #30
    48a0:	07080400 	streq	r0, [r8, -r0, lsl #8]
    48a4:	0000005a 	andeq	r0, r0, sl, asr r0
    48a8:	b7070404 	strlt	r0, [r7, -r4, lsl #8]
    48ac:	05000002 	streq	r0, [r0, #-2]
    48b0:	08010404 	stmdaeq	r1, {r2, sl}
    48b4:	0000036c 	andeq	r0, r0, ip, ror #6
    48b8:	0e040c06 	cdpeq	12, 0, cr0, cr4, cr6, {0}
    48bc:	000000d3 	ldrdeq	r0, [r0], -r3
    48c0:	00787407 	rsbseq	r7, r8, r7, lsl #8
    48c4:	005a0f04 	subseq	r0, sl, r4, lsl #30
    48c8:	07000000 	streq	r0, [r0, -r0]
    48cc:	04007872 	streq	r7, [r0], #-2162	; 0x872
    48d0:	00005a0f 	andeq	r5, r0, pc, lsl #20
    48d4:	ac080100 	stfges	f0, [r8], {-0}
    48d8:	04000003 	streq	r0, [r0], #-3
    48dc:	00007310 	andeq	r7, r0, r0, lsl r3
    48e0:	90080400 	andls	r0, r8, r0, lsl #8
    48e4:	04000000 	streq	r0, [r0], #-0
    48e8:	00007311 	andeq	r7, r0, r1, lsl r3
    48ec:	03000800 	movweq	r0, #2048	; 0x800
    48f0:	00000347 	andeq	r0, r0, r7, asr #6
    48f4:	009c1204 	addseq	r1, ip, r4, lsl #4
    48f8:	01090000 	mrseq	r0, (UNDEF: 9)
    48fc:	00f91005 	rscseq	r1, r9, r5
    4900:	8d0a0000 	stchi	0, cr0, [sl, #-0]
    4904:	01000007 	tsteq	r0, r7
    4908:	0007800a 	andeq	r8, r7, sl
    490c:	720a0200 	andvc	r0, sl, #0, 4
    4910:	03000007 	movweq	r0, #7
    4914:	07a20300 	streq	r0, [r2, r0, lsl #6]!
    4918:	10050000 	andne	r0, r5, r0
    491c:	000000de 	ldrdeq	r0, [r0], -lr
    4920:	14051406 	strne	r1, [r5], #-1030	; 0x406
    4924:	00000131 	andeq	r0, r0, r1, lsr r1
    4928:	0007f408 	andeq	pc, r7, r8, lsl #8
    492c:	37150500 	ldrcc	r0, [r5, -r0, lsl #10]
    4930:	00000000 	andeq	r0, r0, r0
    4934:	0007e808 	andeq	lr, r7, r8, lsl #16
    4938:	f9180500 			; <UNDEFINED> instruction: 0xf9180500
    493c:	04000000 	streq	r0, [r0], #-0
    4940:	00018a08 	andeq	r8, r1, r8, lsl #20
    4944:	d31b0500 	tstle	fp, #0, 10
    4948:	08000000 	stmdaeq	r0, {}	; <UNPREDICTABLE>
    494c:	07ad0300 	streq	r0, [sp, r0, lsl #6]!
    4950:	20050000 	andcs	r0, r5, r0
    4954:	00000104 	andeq	r0, r0, r4, lsl #2
    4958:	000d120b 	andeq	r1, sp, fp, lsl #4
    495c:	7e050100 	adfvcs	f0, f5, f0
    4960:	c0000001 	andgt	r0, r0, r1
    4964:	2800009f 	stmdacs	r0, {r0, r1, r2, r3, r4, r7}
    4968:	01000000 	mrseq	r0, (UNDEF: 0)
    496c:	00017e9c 	muleq	r1, ip, lr
    4970:	00630c00 	rsbeq	r0, r3, r0, lsl #24
    4974:	017e0601 	cmneq	lr, r1, lsl #12
    4978:	00000000 	andeq	r0, r0, r0
    497c:	d40d0900 	strle	r0, [sp], #-2304	; 0x900
    4980:	ab00009f 	blge	4c04 <_start-0x33fc>
    4984:	0e000001 	cdpeq	0, 0, cr0, cr0, cr1, {0}
    4988:	34015201 	strcc	r5, [r1], #-513	; 0x201
    498c:	0151010e 	cmpeq	r1, lr, lsl #2
    4990:	50010e30 	andpl	r0, r1, r0, lsr lr
    4994:	24474203 	strbcs	r4, [r7], #-515	; 0x203
    4998:	040f0000 	streq	r0, [pc], #-0	; 49a0 <_start-0x3660>
    499c:	00000131 	andeq	r0, r0, r1, lsr r1
    49a0:	0007bb0b 	andeq	fp, r7, fp, lsl #22
    49a4:	7e0c0100 	adfvce	f0, f4, f0
    49a8:	e8000001 	stmda	r0, {r0}
    49ac:	2800009f 	stmdacs	r0, {r0, r1, r2, r3, r4, r7}
    49b0:	01000000 	mrseq	r0, (UNDEF: 0)
    49b4:	0001ab9c 	muleq	r1, ip, fp
    49b8:	00630c00 	rsbeq	r0, r3, r0, lsl #24
    49bc:	017e0d01 	cmneq	lr, r1, lsl #26
    49c0:	00000000 	andeq	r0, r0, r0
    49c4:	10000900 	andne	r0, r0, r0, lsl #18
    49c8:	00000479 	andeq	r0, r0, r9, ror r4
    49cc:	00931b06 	addseq	r1, r3, r6, lsl #22
    49d0:	93110000 	tstls	r1, #0
    49d4:	11000000 	mrsne	r0, (UNDEF: 0)
    49d8:	00000025 	andeq	r0, r0, r5, lsr #32
    49dc:	00002c11 	andeq	r2, r0, r1, lsl ip
    49e0:	Address 0x00000000000049e0 is out of bounds.


Disassembly of section .debug_abbrev:

00000000 <.debug_abbrev>:
       0:	25011101 	strcs	r1, [r1, #-257]	; 0x101
       4:	030b130e 	movweq	r1, #45838	; 0xb30e
       8:	110e1b0e 	tstne	lr, lr, lsl #22
       c:	10061201 	andne	r1, r6, r1, lsl #4
      10:	02000017 	andeq	r0, r0, #23
      14:	0b0b0024 	bleq	2c00ac <__bss_end__+0x2b16e4>
      18:	08030b3e 	stmdaeq	r3, {r1, r2, r3, r4, r5, r8, r9, fp}
      1c:	16030000 	strne	r0, [r3], -r0
      20:	3a0e0300 	bcc	380c28 <__bss_end__+0x372260>
      24:	490b3b0b 	stmdbmi	fp, {r0, r1, r3, r8, r9, fp, ip, sp}
      28:	04000013 	streq	r0, [r0], #-19
      2c:	0b0b0024 	bleq	2c00c4 <__bss_end__+0x2b16fc>
      30:	0e030b3e 	vmoveq.16	d3[0], r0
      34:	0f050000 	svceq	0x00050000
      38:	000b0b00 	andeq	r0, fp, r0, lsl #22
      3c:	000f0600 	andeq	r0, pc, r0, lsl #12
      40:	13490b0b 	movtne	r0, #39691	; 0x9b0b
      44:	26070000 	strcs	r0, [r7], -r0
      48:	00134900 	andseq	r4, r3, r0, lsl #18
      4c:	01010800 	tsteq	r1, r0, lsl #16
      50:	13011349 	movwne	r1, #4937	; 0x1349
      54:	21090000 	mrscs	r0, (UNDEF: 9)
      58:	2f134900 	svccs	0x00134900
      5c:	0a00000b 	beq	90 <_start-0x7f70>
      60:	0b0b0104 	bleq	2c0478 <__bss_end__+0x2b1ab0>
      64:	0b3b0b3a 	bleq	ec2d54 <__bss_end__+0xeb438c>
      68:	00001301 	andeq	r1, r0, r1, lsl #6
      6c:	0300280b 	movweq	r2, #2059	; 0x80b
      70:	000d1c0e 	andeq	r1, sp, lr, lsl #24
      74:	01130c00 	tsteq	r3, r0, lsl #24
      78:	0b3a050b 	bleq	e814ac <__bss_end__+0xe72ae4>
      7c:	13010b3b 	movwne	r0, #6971	; 0x1b3b
      80:	0d0d0000 	stceq	0, cr0, [sp, #-0]
      84:	3a0e0300 	bcc	380c8c <__bss_end__+0x3722c4>
      88:	490b3b0b 	stmdbmi	fp, {r0, r1, r3, r8, r9, fp, ip, sp}
      8c:	000b3813 	andeq	r3, fp, r3, lsl r8
      90:	000d0e00 	andeq	r0, sp, r0, lsl #28
      94:	0b3a0e03 	bleq	e838a8 <__bss_end__+0xe74ee0>
      98:	13490b3b 	movtne	r0, #39739	; 0x9b3b
      9c:	00000538 	andeq	r0, r0, r8, lsr r5
      a0:	03000d0f 	movweq	r0, #3343	; 0xd0f
      a4:	3b0b3a0e 	blcc	2ce8e4 <__bss_end__+0x2bff1c>
      a8:	0b13490b 	bleq	4d24dc <__bss_end__+0x4c3b14>
      ac:	0c0b0d0b 	stceq	13, cr0, [fp], {11}
      b0:	0005380b 	andeq	r3, r5, fp, lsl #16
      b4:	00211000 	eoreq	r1, r1, r0
      b8:	052f1349 	streq	r1, [pc, #-841]!	; fffffd77 <__bss_end__+0xffff13af>
      bc:	35110000 	ldrcc	r0, [r1, #-0]
      c0:	00134900 	andseq	r4, r3, r0, lsl #18
      c4:	01131200 	tsteq	r3, r0, lsl #4
      c8:	0b3a0b0b 	bleq	e82cfc <__bss_end__+0xe74334>
      cc:	13010b3b 	movwne	r0, #6971	; 0x1b3b
      d0:	0d130000 	ldceq	0, cr0, [r3, #-0]
      d4:	3a080300 	bcc	200cdc <__bss_end__+0x1f2314>
      d8:	490b3b0b 	stmdbmi	fp, {r0, r1, r3, r8, r9, fp, ip, sp}
      dc:	000b3813 	andeq	r3, fp, r3, lsl r8
      e0:	012e1400 	teqeq	lr, r0, lsl #8
      e4:	0b3a0e03 	bleq	e838f8 <__bss_end__+0xe74f30>
      e8:	19270b3b 	stmdbne	r7!, {r0, r1, r3, r4, r5, r8, r9, fp}
      ec:	0b201349 	bleq	804e18 <__bss_end__+0x7f6450>
      f0:	00001301 	andeq	r1, r0, r1, lsl #6
      f4:	03000515 	movweq	r0, #1301	; 0x515
      f8:	3b0b3a08 	blcc	2ce920 <__bss_end__+0x2bff58>
      fc:	0013490b 	andseq	r4, r3, fp, lsl #18
     100:	00341600 	eorseq	r1, r4, r0, lsl #12
     104:	0b3a0e03 	bleq	e83918 <__bss_end__+0xe74f50>
     108:	13490b3b 	movtne	r0, #39739	; 0x9b3b
     10c:	2e170000 	cdpcs	0, 1, cr0, cr7, cr0, {0}
     110:	3a0e0301 	bcc	380d1c <__bss_end__+0x372354>
     114:	270b3b0b 	strcs	r3, [fp, -fp, lsl #22]
     118:	12011119 	andne	r1, r1, #1073741830	; 0x40000006
     11c:	97184006 	ldrls	r4, [r8, -r6]
     120:	13011942 	movwne	r1, #6466	; 0x1942
     124:	05180000 	ldreq	r0, [r8, #-0]
     128:	3a080300 	bcc	200d30 <__bss_end__+0x1f2368>
     12c:	490b3b0b 	stmdbmi	fp, {r0, r1, r3, r8, r9, fp, ip, sp}
     130:	00170213 	andseq	r0, r7, r3, lsl r2
     134:	00051900 	andeq	r1, r5, r0, lsl #18
     138:	0b3a0e03 	bleq	e8394c <__bss_end__+0xe74f84>
     13c:	13490b3b 	movtne	r0, #39739	; 0x9b3b
     140:	00001702 	andeq	r1, r0, r2, lsl #14
     144:	0300341a 	movweq	r3, #1050	; 0x41a
     148:	3413490e 	ldrcc	r4, [r3], #-2318	; 0x90e
     14c:	00180219 	andseq	r0, r8, r9, lsl r2
     150:	00341b00 	eorseq	r1, r4, r0, lsl #22
     154:	0b3a0803 	bleq	e82168 <__bss_end__+0xe737a0>
     158:	13490b3b 	movtne	r0, #39739	; 0x9b3b
     15c:	00001702 	andeq	r1, r0, r2, lsl #14
     160:	31011d1c 	tstcc	r1, ip, lsl sp
     164:	12011113 	andne	r1, r1, #-1073741820	; 0xc0000004
     168:	590b5806 	stmdbpl	fp, {r1, r2, fp, ip, lr}
     16c:	0013010b 	andseq	r0, r3, fp, lsl #2
     170:	00051d00 	andeq	r1, r5, r0, lsl #26
     174:	18021331 	stmdane	r2, {r0, r4, r5, r8, r9, ip}
     178:	1d1e0000 	ldcne	0, cr0, [lr, #-0]
     17c:	52133101 	andspl	r3, r3, #1073741824	; 0x40000000
     180:	58175501 	ldmdapl	r7, {r0, r8, sl, ip, lr}
     184:	010b590b 	tsteq	fp, fp, lsl #18
     188:	1f000013 	svcne	0x00000013
     18c:	1755010b 	ldrbne	r0, [r5, -fp, lsl #2]
     190:	34200000 	strtcc	r0, [r0], #-0
     194:	02133100 	andseq	r3, r3, #0, 2
     198:	21000017 	tstcs	r0, r7, lsl r0
     19c:	1331011d 	teqne	r1, #1073741831	; 0x40000007
     1a0:	06120111 			; <UNDEFINED> instruction: 0x06120111
     1a4:	0b590b58 	bleq	1642f0c <__bss_end__+0x1634544>
     1a8:	89220000 	stmdbhi	r2!, {}	; <UNPREDICTABLE>
     1ac:	11010182 	smlabbne	r1, r2, r1, r0
     1b0:	01133101 	tsteq	r3, r1, lsl #2
     1b4:	23000013 	movwcs	r0, #19
     1b8:	0001828a 	andeq	r8, r1, sl, lsl #5
     1bc:	42911802 	addsmi	r1, r1, #131072	; 0x20000
     1c0:	24000018 	strcs	r0, [r0], #-24
     1c4:	00018289 	andeq	r8, r1, r9, lsl #5
     1c8:	13310111 	teqne	r1, #1073741828	; 0x40000004
     1cc:	2e250000 	cdpcs	0, 2, cr0, cr5, cr0, {0}
     1d0:	03193f01 	tsteq	r9, #1, 30
     1d4:	3b0b3a0e 	blcc	2cea14 <__bss_end__+0x2c004c>
     1d8:	4919270b 	ldmdbmi	r9, {r0, r1, r3, r8, r9, sl, sp}
     1dc:	12011113 	andne	r1, r1, #-1073741820	; 0xc0000004
     1e0:	97184006 	ldrls	r4, [r8, -r6]
     1e4:	13011942 	movwne	r1, #6466	; 0x1942
     1e8:	34260000 	strtcc	r0, [r6], #-0
     1ec:	3a0e0300 	bcc	380df4 <__bss_end__+0x37242c>
     1f0:	490b3b0b 	stmdbmi	fp, {r0, r1, r3, r8, r9, fp, ip, sp}
     1f4:	00170213 	andseq	r0, r7, r3, lsl r2
     1f8:	82892700 	addhi	r2, r9, #0, 14
     1fc:	01110101 	tsteq	r1, r1, lsl #2
     200:	00001331 	andeq	r1, r0, r1, lsr r3
     204:	3f012e28 	svccc	0x00012e28
     208:	3a0e0319 	bcc	380e74 <__bss_end__+0x3724ac>
     20c:	270b3b0b 	strcs	r3, [fp, -fp, lsl #22]
     210:	12011119 	andne	r1, r1, #1073741830	; 0x40000006
     214:	97184006 	ldrls	r4, [r8, -r6]
     218:	13011942 	movwne	r1, #6466	; 0x1942
     21c:	05290000 	streq	r0, [r9, #-0]!
     220:	02133100 	andseq	r3, r3, #0, 2
     224:	2a000017 	bcs	288 <_start-0x7d78>
     228:	0111010b 	tsteq	r1, fp, lsl #2
     22c:	00000612 	andeq	r0, r0, r2, lsl r6
     230:	31011d2b 	tstcc	r1, fp, lsr #26
     234:	55015213 	strpl	r5, [r1, #-531]	; 0x213
     238:	590b5817 	stmdbpl	fp, {r0, r1, r2, r4, fp, ip, lr}
     23c:	2c00000b 	stccs	0, cr0, [r0], {11}
     240:	0111010b 	tsteq	r1, fp, lsl #2
     244:	13010612 	movwne	r0, #5650	; 0x1612
     248:	2e2d0000 	cdpcs	0, 2, cr0, cr13, cr0, {0}
     24c:	03193f01 	tsteq	r9, #1, 30
     250:	3b0b3a0e 	blcc	2cea90 <__bss_end__+0x2c00c8>
     254:	1201110b 	andne	r1, r1, #-1073741822	; 0xc0000002
     258:	97184006 	ldrls	r4, [r8, -r6]
     25c:	13011942 	movwne	r1, #6466	; 0x1942
     260:	342e0000 	strtcc	r0, [lr], #-0
     264:	3a0e0300 	bcc	380e6c <__bss_end__+0x3724a4>
     268:	490b3b0b 	stmdbmi	fp, {r0, r1, r3, r8, r9, fp, ip, sp}
     26c:	00061c13 	andeq	r1, r6, r3, lsl ip
     270:	00342f00 	eorseq	r2, r4, r0, lsl #30
     274:	0b3a0e03 	bleq	e83a88 <__bss_end__+0xe750c0>
     278:	13490b3b 	movtne	r0, #39739	; 0x9b3b
     27c:	00001802 	andeq	r1, r0, r2, lsl #16
     280:	03003430 	movweq	r3, #1072	; 0x430
     284:	3b0b3a0e 	blcc	2ceac4 <__bss_end__+0x2c00fc>
     288:	1c13490b 	ldcne	9, cr4, [r3], {11}
     28c:	3100000b 	tstcc	r0, fp
     290:	0e030034 	mcreq	0, 0, r0, cr3, cr4, {1}
     294:	0b3b0b3a 	bleq	ec2f84 <__bss_end__+0xeb45bc>
     298:	193f1349 	ldmdbne	pc!, {r0, r3, r6, r8, r9, ip}	; <UNPREDICTABLE>
     29c:	00001802 	andeq	r1, r0, r2, lsl #16
     2a0:	3f012e32 	svccc	0x00012e32
     2a4:	3a0e0319 	bcc	380f10 <__bss_end__+0x372548>
     2a8:	270b3b0b 	strcs	r3, [fp, -fp, lsl #22]
     2ac:	3c134919 	ldccc	9, cr4, [r3], {25}
     2b0:	00130119 	andseq	r0, r3, r9, lsl r1
     2b4:	00053300 	andeq	r3, r5, r0, lsl #6
     2b8:	00001349 	andeq	r1, r0, r9, asr #6
     2bc:	3f002e34 	svccc	0x00002e34
     2c0:	3a0e0319 	bcc	380f2c <__bss_end__+0x372564>
     2c4:	270b3b0b 	strcs	r3, [fp, -fp, lsl #22]
     2c8:	00193c19 	andseq	r3, r9, r9, lsl ip
     2cc:	00183500 	andseq	r3, r8, r0, lsl #10
     2d0:	35360000 	ldrcc	r0, [r6, #-0]!
     2d4:	37000000 	strcc	r0, [r0, -r0]
     2d8:	193f012e 	ldmdbne	pc!, {r1, r2, r3, r5, r8}	; <UNPREDICTABLE>
     2dc:	0b3a0e03 	bleq	e83af0 <__bss_end__+0xe75128>
     2e0:	19270b3b 	stmdbne	r7!, {r0, r1, r3, r4, r5, r8, r9, fp}
     2e4:	1301193c 	movwne	r1, #6460	; 0x193c
     2e8:	2e380000 	cdpcs	0, 3, cr0, cr8, cr0, {0}
     2ec:	03193f00 	tsteq	r9, #0, 30
     2f0:	3b0b3a0e 	blcc	2ceb30 <__bss_end__+0x2c0168>
     2f4:	4919270b 	ldmdbmi	r9, {r0, r1, r3, r8, r9, sl, sp}
     2f8:	00193c13 	andseq	r3, r9, r3, lsl ip
     2fc:	11010000 	mrsne	r0, (UNDEF: 1)
     300:	130e2501 	movwne	r2, #58625	; 0xe501
     304:	1b0e030b 	blne	380f38 <__bss_end__+0x372570>
     308:	1201110e 	andne	r1, r1, #-2147483645	; 0x80000003
     30c:	00171006 	andseq	r1, r7, r6
     310:	00240200 	eoreq	r0, r4, r0, lsl #4
     314:	0b3e0b0b 	bleq	f82f48 <__bss_end__+0xf74580>
     318:	00000e03 	andeq	r0, r0, r3, lsl #28
     31c:	0b002403 	bleq	9330 <gpio_int_rising_edge+0x4>
     320:	030b3e0b 	movweq	r3, #48651	; 0xbe0b
     324:	04000008 	streq	r0, [r0], #-8
     328:	0b0b000f 	bleq	2c036c <__bss_end__+0x2b19a4>
     32c:	0f050000 	svceq	0x00050000
     330:	490b0b00 	stmdbmi	fp, {r8, r9, fp}
     334:	06000013 			; <UNDEFINED> instruction: 0x06000013
     338:	0e030016 	mcreq	0, 0, r0, cr3, cr6, {0}
     33c:	0b3b0b3a 	bleq	ec302c <__bss_end__+0xeb4664>
     340:	00001349 	andeq	r1, r0, r9, asr #6
     344:	3f012e07 	svccc	0x00012e07
     348:	3a0e0319 	bcc	380fb4 <__bss_end__+0x3725ec>
     34c:	270b3b0b 	strcs	r3, [fp, -fp, lsl #22]
     350:	11134919 	tstne	r3, r9, lsl r9
     354:	40061201 	andmi	r1, r6, r1, lsl #4
     358:	19429718 	stmdbne	r2, {r3, r4, r8, r9, sl, ip, pc}^
     35c:	05080000 	streq	r0, [r8, #-0]
     360:	3a080300 	bcc	200f68 <__bss_end__+0x1f25a0>
     364:	490b3b0b 	stmdbmi	fp, {r0, r1, r3, r8, r9, fp, ip, sp}
     368:	00180213 	andseq	r0, r8, r3, lsl r2
     36c:	00050900 	andeq	r0, r5, r0, lsl #18
     370:	0b3a0803 	bleq	e82384 <__bss_end__+0xe739bc>
     374:	13490b3b 	movtne	r0, #39739	; 0x9b3b
     378:	00001702 	andeq	r1, r0, r2, lsl #14
     37c:	0300340a 	movweq	r3, #1034	; 0x40a
     380:	3b0b3a08 	blcc	2ceba8 <__bss_end__+0x2c01e0>
     384:	0213490b 	andseq	r4, r3, #180224	; 0x2c000
     388:	0b000017 	bleq	3ec <_start-0x7c14>
     38c:	08030034 	stmdaeq	r3, {r2, r4, r5}
     390:	0b3b0b3a 	bleq	ec3080 <__bss_end__+0xeb46b8>
     394:	18021349 	stmdane	r2, {r0, r3, r6, r8, r9, ip}
     398:	01000000 	mrseq	r0, (UNDEF: 0)
     39c:	0e250111 	mcreq	1, 1, r0, cr5, cr1, {0}
     3a0:	0e030b13 	vmoveq.32	d3[0], r0
     3a4:	01110e1b 	tsteq	r1, fp, lsl lr
     3a8:	17100612 			; <UNDEFINED> instruction: 0x17100612
     3ac:	16020000 	strne	r0, [r2], -r0
     3b0:	3a0e0300 	bcc	380fb8 <__bss_end__+0x3725f0>
     3b4:	490b3b0b 	stmdbmi	fp, {r0, r1, r3, r8, r9, fp, ip, sp}
     3b8:	03000013 	movweq	r0, #19
     3bc:	0e030113 	mcreq	1, 0, r0, cr3, cr3, {0}
     3c0:	0b3a0b0b 	bleq	e82ff4 <__bss_end__+0xe7462c>
     3c4:	13010b3b 	movwne	r0, #6971	; 0x1b3b
     3c8:	0d040000 	stceq	0, cr0, [r4, #-0]
     3cc:	490e0300 	stmdbmi	lr, {r8, r9}
     3d0:	340b3813 	strcc	r3, [fp], #-2067	; 0x813
     3d4:	05000019 	streq	r0, [r0, #-25]
     3d8:	0b0b000f 	bleq	2c041c <__bss_end__+0x2b1a54>
     3dc:	24060000 	strcs	r0, [r6], #-0
     3e0:	3e0b0b00 	vmlacc.f64	d0, d11, d0
     3e4:	0008030b 	andeq	r0, r8, fp, lsl #6
     3e8:	00240700 	eoreq	r0, r4, r0, lsl #14
     3ec:	0b3e0b0b 	bleq	f83020 <__bss_end__+0xf74658>
     3f0:	00000e03 	andeq	r0, r0, r3, lsl #28
     3f4:	0b000f08 	bleq	401c <_start-0x3fe4>
     3f8:	0013490b 	andseq	r4, r3, fp, lsl #18
     3fc:	00260900 	eoreq	r0, r6, r0, lsl #18
     400:	00001349 	andeq	r1, r0, r9, asr #6
     404:	3f012e0a 	svccc	0x00012e0a
     408:	3a0e0319 	bcc	381074 <__bss_end__+0x3726ac>
     40c:	270b3b0b 	strcs	r3, [fp, -fp, lsl #22]
     410:	11134919 	tstne	r3, r9, lsl r9
     414:	40061201 	andmi	r1, r6, r1, lsl #4
     418:	19429718 	stmdbne	r2, {r3, r4, r8, r9, sl, ip, pc}^
     41c:	00001301 	andeq	r1, r0, r1, lsl #6
     420:	0300050b 	movweq	r0, #1291	; 0x50b
     424:	3b0b3a08 	blcc	2cec4c <__bss_end__+0x2c0284>
     428:	0213490b 	andseq	r4, r3, #180224	; 0x2c000
     42c:	0c000018 	stceq	0, cr0, [r0], {24}
     430:	00000018 	andeq	r0, r0, r8, lsl r0
     434:	0300340d 	movweq	r3, #1037	; 0x40d
     438:	3b0b3a08 	blcc	2cec60 <__bss_end__+0x2c0298>
     43c:	0213490b 	andseq	r4, r3, #180224	; 0x2c000
     440:	0e000018 	mcreq	0, 0, r0, cr0, cr8, {0}
     444:	0e030034 	mcreq	0, 0, r0, cr3, cr4, {1}
     448:	0b3b0b3a 	bleq	ec3138 <__bss_end__+0xeb4770>
     44c:	18021349 	stmdane	r2, {r0, r3, r6, r8, r9, ip}
     450:	340f0000 	strcc	r0, [pc], #-0	; 458 <_start-0x7ba8>
     454:	3a080300 	bcc	20105c <__bss_end__+0x1f2694>
     458:	490b3b0b 	stmdbmi	fp, {r0, r1, r3, r8, r9, fp, ip, sp}
     45c:	00170213 	andseq	r0, r7, r3, lsl r2
     460:	82891000 	addhi	r1, r9, #0
     464:	01110101 	tsteq	r1, r1, lsl #2
     468:	13011331 	movwne	r1, #4913	; 0x1331
     46c:	8a110000 	bhi	440474 <__bss_end__+0x431aac>
     470:	02000182 	andeq	r0, r0, #-2147483616	; 0x80000020
     474:	18429118 	stmdane	r2, {r3, r4, r8, ip, pc}^
     478:	89120000 	ldmdbhi	r2, {}	; <UNPREDICTABLE>
     47c:	11010182 	smlabbne	r1, r2, r1, r0
     480:	13000001 	movwne	r0, #1
     484:	13490101 	movtne	r0, #37121	; 0x9101
     488:	00001301 	andeq	r1, r0, r1, lsl #6
     48c:	49002114 	stmdbmi	r0, {r2, r4, r8, sp}
     490:	00052f13 	andeq	r2, r5, r3, lsl pc
     494:	01151500 	tsteq	r5, r0, lsl #10
     498:	13491927 	movtne	r1, #39207	; 0x9927
     49c:	00001301 	andeq	r1, r0, r1, lsl #6
     4a0:	49000516 	stmdbmi	r0, {r1, r2, r4, r8, sl}
     4a4:	17000013 	smladne	r0, r3, r0, r0
     4a8:	0e030034 	mcreq	0, 0, r0, cr3, cr4, {1}
     4ac:	0b3b0b3a 	bleq	ec319c <__bss_end__+0xeb47d4>
     4b0:	193f1349 	ldmdbne	pc!, {r0, r3, r6, r8, r9, ip}	; <UNPREDICTABLE>
     4b4:	0000193c 	andeq	r1, r0, ip, lsr r9
     4b8:	3f012e18 	svccc	0x00012e18
     4bc:	3a0e0319 	bcc	381128 <__bss_end__+0x372760>
     4c0:	270b3b0b 	strcs	r3, [fp, -fp, lsl #22]
     4c4:	3c134919 	ldccc	9, cr4, [r3], {25}
     4c8:	00000019 	andeq	r0, r0, r9, lsl r0
     4cc:	25011101 	strcs	r1, [r1, #-257]	; 0x101
     4d0:	030b130e 	movweq	r1, #45838	; 0xb30e
     4d4:	110e1b0e 	tstne	lr, lr, lsl #22
     4d8:	10061201 	andne	r1, r6, r1, lsl #4
     4dc:	02000017 	andeq	r0, r0, #23
     4e0:	0b0b0024 	bleq	2c0578 <__bss_end__+0x2b1bb0>
     4e4:	08030b3e 	stmdaeq	r3, {r1, r2, r3, r4, r5, r8, r9, fp}
     4e8:	24030000 	strcs	r0, [r3], #-0
     4ec:	3e0b0b00 	vmlacc.f64	d0, d11, d0
     4f0:	000e030b 	andeq	r0, lr, fp, lsl #6
     4f4:	012e0400 	teqeq	lr, r0, lsl #8
     4f8:	0b3a0e03 	bleq	e83d0c <__bss_end__+0xe75344>
     4fc:	19270b3b 	stmdbne	r7!, {r0, r1, r3, r4, r5, r8, r9, fp}
     500:	01111349 	tsteq	r1, r9, asr #6
     504:	18400612 	stmdane	r0, {r1, r4, r9, sl}^
     508:	01194297 			; <UNDEFINED> instruction: 0x01194297
     50c:	05000013 	streq	r0, [r0, #-19]
     510:	08030005 	stmdaeq	r3, {r0, r2}
     514:	0b3b0b3a 	bleq	ec3204 <__bss_end__+0xeb483c>
     518:	17021349 	strne	r1, [r2, -r9, asr #6]
     51c:	89060000 	stmdbhi	r6, {}	; <UNPREDICTABLE>
     520:	11010182 	smlabbne	r1, r2, r1, r0
     524:	00133101 	andseq	r3, r3, r1, lsl #2
     528:	828a0700 	addhi	r0, sl, #0, 14
     52c:	18020001 	stmdane	r2, {r0}
     530:	00184291 	mulseq	r8, r1, r2
     534:	002e0800 	eoreq	r0, lr, r0, lsl #16
     538:	0e03193f 	mcreq	9, 0, r1, cr3, cr15, {1}
     53c:	0b3b0b3a 	bleq	ec322c <__bss_end__+0xeb4864>
     540:	01111927 	tsteq	r1, r7, lsr #18
     544:	18400612 	stmdane	r0, {r1, r4, r9, sl}^
     548:	00194297 	mulseq	r9, r7, r2
     54c:	012e0900 	teqeq	lr, r0, lsl #18
     550:	0e03193f 	mcreq	9, 0, r1, cr3, cr15, {1}
     554:	0b3b0b3a 	bleq	ec3244 <__bss_end__+0xeb487c>
     558:	01111927 	tsteq	r1, r7, lsr #18
     55c:	18400612 	stmdane	r0, {r1, r4, r9, sl}^
     560:	01194297 			; <UNDEFINED> instruction: 0x01194297
     564:	0a000013 	beq	5b8 <_start-0x7a48>
     568:	08030005 	stmdaeq	r3, {r0, r2}
     56c:	0b3b0b3a 	bleq	ec325c <__bss_end__+0xeb4894>
     570:	18021349 	stmdane	r2, {r0, r3, r6, r8, r9, ip}
     574:	150b0000 	strne	r0, [fp, #-0]
     578:	49192701 	ldmdbmi	r9, {r0, r8, r9, sl, sp}
     57c:	00130113 	andseq	r0, r3, r3, lsl r1
     580:	00050c00 	andeq	r0, r5, r0, lsl #24
     584:	00001349 	andeq	r1, r0, r9, asr #6
     588:	0b000f0d 	bleq	41c4 <_start-0x3e3c>
     58c:	0013490b 	andseq	r4, r3, fp, lsl #18
     590:	00340e00 	eorseq	r0, r4, r0, lsl #28
     594:	0b3a0e03 	bleq	e83da8 <__bss_end__+0xe753e0>
     598:	13490b3b 	movtne	r0, #39739	; 0x9b3b
     59c:	1802193f 	stmdane	r2, {r0, r1, r2, r3, r4, r5, r8, fp, ip}
     5a0:	2e0f0000 	cdpcs	0, 0, cr0, cr15, cr0, {0}
     5a4:	03193f01 	tsteq	r9, #1, 30
     5a8:	3b0b3a0e 	blcc	2cede8 <__bss_end__+0x2c0420>
     5ac:	3c19270b 	ldccc	7, cr2, [r9], {11}
     5b0:	00000019 	andeq	r0, r0, r9, lsl r0
     5b4:	25011101 	strcs	r1, [r1, #-257]	; 0x101
     5b8:	030b130e 	movweq	r1, #45838	; 0xb30e
     5bc:	110e1b0e 	tstne	lr, lr, lsl #22
     5c0:	10061201 	andne	r1, r6, r1, lsl #4
     5c4:	02000017 	andeq	r0, r0, #23
     5c8:	0b0b0024 	bleq	2c0660 <__bss_end__+0x2b1c98>
     5cc:	08030b3e 	stmdaeq	r3, {r1, r2, r3, r4, r5, r8, r9, fp}
     5d0:	24030000 	strcs	r0, [r3], #-0
     5d4:	3e0b0b00 	vmlacc.f64	d0, d11, d0
     5d8:	000e030b 	andeq	r0, lr, fp, lsl #6
     5dc:	000f0400 	andeq	r0, pc, r0, lsl #8
     5e0:	13490b0b 	movtne	r0, #39691	; 0x9b0b
     5e4:	26050000 	strcs	r0, [r5], -r0
     5e8:	00134900 	andseq	r4, r3, r0, lsl #18
     5ec:	012e0600 	teqeq	lr, r0, lsl #12
     5f0:	0e03193f 	mcreq	9, 0, r1, cr3, cr15, {1}
     5f4:	0b3b0b3a 	bleq	ec32e4 <__bss_end__+0xeb491c>
     5f8:	13491927 	movtne	r1, #39207	; 0x9927
     5fc:	06120111 			; <UNDEFINED> instruction: 0x06120111
     600:	42961840 	addsmi	r1, r6, #64, 16	; 0x400000
     604:	00130119 	andseq	r0, r3, r9, lsl r1
     608:	00050700 	andeq	r0, r5, r0, lsl #14
     60c:	0b3a0803 	bleq	e82620 <__bss_end__+0xe73c58>
     610:	13490b3b 	movtne	r0, #39739	; 0x9b3b
     614:	00001702 	andeq	r1, r0, r2, lsl #14
     618:	27011508 	strcs	r1, [r1, -r8, lsl #10]
     61c:	01134919 	tsteq	r3, r9, lsl r9
     620:	09000013 	stmdbeq	r0, {r0, r1, r4}
     624:	13490005 	movtne	r0, #36869	; 0x9005
     628:	340a0000 	strcc	r0, [sl], #-0
     62c:	3a0e0300 	bcc	381234 <__bss_end__+0x37286c>
     630:	490b3b0b 	stmdbmi	fp, {r0, r1, r3, r8, r9, fp, ip, sp}
     634:	3c193f13 	ldccc	15, cr3, [r9], {19}
     638:	0b000019 	bleq	6a4 <_start-0x795c>
     63c:	0e030034 	mcreq	0, 0, r0, cr3, cr4, {1}
     640:	0b3b0b3a 	bleq	ec3330 <__bss_end__+0xeb4968>
     644:	193f1349 	ldmdbne	pc!, {r0, r3, r6, r8, r9, ip}	; <UNPREDICTABLE>
     648:	00001802 	andeq	r1, r0, r2, lsl #16
     64c:	01110100 	tsteq	r1, r0, lsl #2
     650:	0b130e25 	bleq	4c3eec <__bss_end__+0x4b5524>
     654:	0e1b0e03 	cdpeq	14, 1, cr0, cr11, cr3, {0}
     658:	06120111 			; <UNDEFINED> instruction: 0x06120111
     65c:	00001710 	andeq	r1, r0, r0, lsl r7
     660:	0b002402 	bleq	9670 <sw_uart_getc_timeout+0xc>
     664:	030b3e0b 	movweq	r3, #48651	; 0xbe0b
     668:	03000008 	movweq	r0, #8
     66c:	0b0b0024 	bleq	2c0704 <__bss_end__+0x2b1d3c>
     670:	0e030b3e 	vmoveq.16	d3[0], r0
     674:	0f040000 	svceq	0x00040000
     678:	000b0b00 	andeq	r0, fp, r0, lsl #22
     67c:	000f0500 	andeq	r0, pc, r0, lsl #10
     680:	13490b0b 	movtne	r0, #39691	; 0x9b0b
     684:	26060000 	strcs	r0, [r6], -r0
     688:	00134900 	andseq	r4, r3, r0, lsl #18
     68c:	00160700 	andseq	r0, r6, r0, lsl #14
     690:	0b3a0e03 	bleq	e83ea4 <__bss_end__+0xe754dc>
     694:	13490b3b 	movtne	r0, #39739	; 0x9b3b
     698:	13080000 	movwne	r0, #32768	; 0x8000
     69c:	0b0e0301 	bleq	3812a8 <__bss_end__+0x3728e0>
     6a0:	3b0b3a0b 	blcc	2ceed4 <__bss_end__+0x2c050c>
     6a4:	0013010b 	andseq	r0, r3, fp, lsl #2
     6a8:	000d0900 	andeq	r0, sp, r0, lsl #18
     6ac:	13490e03 	movtne	r0, #40451	; 0x9e03
     6b0:	19340b38 	ldmdbne	r4!, {r3, r4, r5, r8, r9, fp}
     6b4:	2e0a0000 	cdpcs	0, 0, cr0, cr10, cr0, {0}
     6b8:	3a0e0301 	bcc	3812c4 <__bss_end__+0x3728fc>
     6bc:	270b3b0b 	strcs	r3, [fp, -fp, lsl #22]
     6c0:	11134919 	tstne	r3, r9, lsl r9
     6c4:	40061201 	andmi	r1, r6, r1, lsl #4
     6c8:	19429718 	stmdbne	r2, {r3, r4, r8, r9, sl, ip, pc}^
     6cc:	00001301 	andeq	r1, r0, r1, lsl #6
     6d0:	0300050b 	movweq	r0, #1291	; 0x50b
     6d4:	3b0b3a08 	blcc	2ceefc <__bss_end__+0x2c0534>
     6d8:	0213490b 	andseq	r4, r3, #180224	; 0x2c000
     6dc:	0c000017 	stceq	0, cr0, [r0], {23}
     6e0:	0803012e 	stmdaeq	r3, {r1, r2, r3, r5, r8}
     6e4:	0b3b0b3a 	bleq	ec33d4 <__bss_end__+0xeb4a0c>
     6e8:	13491927 	movtne	r1, #39207	; 0x9927
     6ec:	06120111 			; <UNDEFINED> instruction: 0x06120111
     6f0:	42971840 	addsmi	r1, r7, #64, 16	; 0x400000
     6f4:	00130119 	andseq	r0, r3, r9, lsl r1
     6f8:	00050d00 	andeq	r0, r5, r0, lsl #26
     6fc:	0b3a0e03 	bleq	e83f10 <__bss_end__+0xe75548>
     700:	13490b3b 	movtne	r0, #39739	; 0x9b3b
     704:	00001702 	andeq	r1, r0, r2, lsl #14
     708:	0300050e 	movweq	r0, #1294	; 0x50e
     70c:	3b0b3a0e 	blcc	2cef4c <__bss_end__+0x2c0584>
     710:	0213490b 	andseq	r4, r3, #180224	; 0x2c000
     714:	0f000018 	svceq	0x00000018
     718:	08030034 	stmdaeq	r3, {r2, r4, r5}
     71c:	0b3b0b3a 	bleq	ec340c <__bss_end__+0xeb4a44>
     720:	18021349 	stmdane	r2, {r0, r3, r6, r8, r9, ip}
     724:	34100000 	ldrcc	r0, [r0], #-0
     728:	3a080300 	bcc	201330 <__bss_end__+0x1f2968>
     72c:	490b3b0b 	stmdbmi	fp, {r0, r1, r3, r8, r9, fp, ip, sp}
     730:	00170213 	andseq	r0, r7, r3, lsl r2
     734:	00341100 	eorseq	r1, r4, r0, lsl #2
     738:	13490e03 	movtne	r0, #40451	; 0x9e03
     73c:	18021934 	stmdane	r2, {r2, r4, r5, r8, fp, ip}
     740:	0b120000 	bleq	480748 <__bss_end__+0x471d80>
     744:	12011101 	andne	r1, r1, #1073741824	; 0x40000000
     748:	00130106 	andseq	r0, r3, r6, lsl #2
     74c:	00341300 	eorseq	r1, r4, r0, lsl #6
     750:	0b3a0e03 	bleq	e83f64 <__bss_end__+0xe7559c>
     754:	13490b3b 	movtne	r0, #39739	; 0x9b3b
     758:	00001702 	andeq	r1, r0, r2, lsl #14
     75c:	01828914 	orreq	r8, r2, r4, lsl r9
     760:	31011100 	mrscc	r1, (UNDEF: 17)
     764:	15000013 	strne	r0, [r0, #-19]
     768:	01018289 	smlabbeq	r1, r9, r2, r8
     76c:	13310111 	teqne	r1, #1073741828	; 0x40000004
     770:	00001301 	andeq	r1, r0, r1, lsl #6
     774:	01828a16 	orreq	r8, r2, r6, lsl sl
     778:	91180200 	tstls	r8, r0, lsl #4
     77c:	00001842 	andeq	r1, r0, r2, asr #16
     780:	01828917 	orreq	r8, r2, r7, lsl r9
     784:	31011101 	tstcc	r1, r1, lsl #2
     788:	18000013 	stmdane	r0, {r0, r1, r4}
     78c:	13490101 	movtne	r0, #37121	; 0x9101
     790:	00001301 	andeq	r1, r0, r1, lsl #6
     794:	49002119 	stmdbmi	r0, {r0, r3, r4, r8, sp}
     798:	000b2f13 	andeq	r2, fp, r3, lsl pc
     79c:	012e1a00 	teqeq	lr, r0, lsl #20
     7a0:	0e03193f 	mcreq	9, 0, r1, cr3, cr15, {1}
     7a4:	0b3b0b3a 	bleq	ec3494 <__bss_end__+0xeb4acc>
     7a8:	01111927 	tsteq	r1, r7, lsr #18
     7ac:	18400612 	stmdane	r0, {r1, r4, r9, sl}^
     7b0:	01194297 			; <UNDEFINED> instruction: 0x01194297
     7b4:	1b000013 	blne	808 <_start-0x77f8>
     7b8:	19270115 	stmdbne	r7!, {r0, r2, r4, r8}
     7bc:	13011349 	movwne	r1, #4937	; 0x1349
     7c0:	051c0000 	ldreq	r0, [ip, #-0]
     7c4:	00134900 	andseq	r4, r3, r0, lsl #18
     7c8:	012e1d00 	teqeq	lr, r0, lsl #26
     7cc:	0e03193f 	mcreq	9, 0, r1, cr3, cr15, {1}
     7d0:	0b3b0b3a 	bleq	ec34c0 <__bss_end__+0xeb4af8>
     7d4:	13491927 	movtne	r1, #39207	; 0x9927
     7d8:	06120111 			; <UNDEFINED> instruction: 0x06120111
     7dc:	42971840 	addsmi	r1, r7, #64, 16	; 0x400000
     7e0:	00130119 	andseq	r0, r3, r9, lsl r1
     7e4:	010b1e00 	tsteq	fp, r0, lsl #28
     7e8:	00001755 	andeq	r1, r0, r5, asr r7
     7ec:	0300341f 	movweq	r3, #1055	; 0x41f
     7f0:	3b0b3a0e 	blcc	2cf030 <__bss_end__+0x2c0668>
     7f4:	3f13490b 	svccc	0x0013490b
     7f8:	00193c19 	andseq	r3, r9, r9, lsl ip
     7fc:	002e2000 	eoreq	r2, lr, r0
     800:	0e03193f 	mcreq	9, 0, r1, cr3, cr15, {1}
     804:	0b3b0b3a 	bleq	ec34f4 <__bss_end__+0xeb4b2c>
     808:	193c1927 	ldmdbne	ip!, {r0, r1, r2, r5, r8, fp, ip}
     80c:	2e210000 	cdpcs	0, 2, cr0, cr1, cr0, {0}
     810:	03193f01 	tsteq	r9, #1, 30
     814:	3b0b3a0e 	blcc	2cf054 <__bss_end__+0x2c068c>
     818:	4919270b 	ldmdbmi	r9, {r0, r1, r3, r8, r9, sl, sp}
     81c:	01193c13 	tsteq	r9, r3, lsl ip
     820:	22000013 	andcs	r0, r0, #19
     824:	00000018 	andeq	r0, r0, r8, lsl r0
     828:	01110100 	tsteq	r1, r0, lsl #2
     82c:	0b130e25 	bleq	4c40c8 <__bss_end__+0x4b5700>
     830:	0e1b0e03 	cdpeq	14, 1, cr0, cr11, cr3, {0}
     834:	06120111 			; <UNDEFINED> instruction: 0x06120111
     838:	00001710 	andeq	r1, r0, r0, lsl r7
     83c:	0b002402 	bleq	984c <sw_uart_gets_until+0x20>
     840:	030b3e0b 	movweq	r3, #48651	; 0xbe0b
     844:	03000008 	movweq	r0, #8
     848:	0b0b0024 	bleq	2c08e0 <__bss_end__+0x2b1f18>
     84c:	0e030b3e 	vmoveq.16	d3[0], r0
     850:	2e040000 	cdpcs	0, 0, cr0, cr4, cr0, {0}
     854:	03193f01 	tsteq	r9, #1, 30
     858:	3b0b3a0e 	blcc	2cf098 <__bss_end__+0x2c06d0>
     85c:	1119270b 	tstne	r9, fp, lsl #14
     860:	40061201 	andmi	r1, r6, r1, lsl #4
     864:	19429718 	stmdbne	r2, {r3, r4, r8, r9, sl, ip, pc}^
     868:	00001301 	andeq	r1, r0, r1, lsl #6
     86c:	03003405 	movweq	r3, #1029	; 0x405
     870:	3b0b3a08 	blcc	2cf098 <__bss_end__+0x2c06d0>
     874:	0213490b 	andseq	r4, r3, #180224	; 0x2c000
     878:	06000017 			; <UNDEFINED> instruction: 0x06000017
     87c:	193f012e 	ldmdbne	pc!, {r1, r2, r3, r5, r8}	; <UNPREDICTABLE>
     880:	0b3a0e03 	bleq	e84094 <__bss_end__+0xe756cc>
     884:	19270b3b 	stmdbne	r7!, {r0, r1, r3, r4, r5, r8, r9, fp}
     888:	06120111 			; <UNDEFINED> instruction: 0x06120111
     88c:	42971840 	addsmi	r1, r7, #64, 16	; 0x400000
     890:	00000019 	andeq	r0, r0, r9, lsl r0
     894:	25011101 	strcs	r1, [r1, #-257]	; 0x101
     898:	030b130e 	movweq	r1, #45838	; 0xb30e
     89c:	110e1b0e 	tstne	lr, lr, lsl #22
     8a0:	10061201 	andne	r1, r6, r1, lsl #4
     8a4:	02000017 	andeq	r0, r0, #23
     8a8:	0b0b0024 	bleq	2c0940 <__bss_end__+0x2b1f78>
     8ac:	08030b3e 	stmdaeq	r3, {r1, r2, r3, r4, r5, r8, r9, fp}
     8b0:	24030000 	strcs	r0, [r3], #-0
     8b4:	3e0b0b00 	vmlacc.f64	d0, d11, d0
     8b8:	000e030b 	andeq	r0, lr, fp, lsl #6
     8bc:	000f0400 	andeq	r0, pc, r0, lsl #8
     8c0:	13490b0b 	movtne	r0, #39691	; 0x9b0b
     8c4:	26050000 	strcs	r0, [r5], -r0
     8c8:	00134900 	andseq	r4, r3, r0, lsl #18
     8cc:	012e0600 	teqeq	lr, r0, lsl #12
     8d0:	0e03193f 	mcreq	9, 0, r1, cr3, cr15, {1}
     8d4:	0b3b0b3a 	bleq	ec35c4 <__bss_end__+0xeb4bfc>
     8d8:	01111927 	tsteq	r1, r7, lsr #18
     8dc:	18400612 	stmdane	r0, {r1, r4, r9, sl}^
     8e0:	01194297 			; <UNDEFINED> instruction: 0x01194297
     8e4:	07000013 	smladeq	r0, r3, r0, r0
     8e8:	01018289 	smlabbeq	r1, r9, r2, r8
     8ec:	13010111 	movwne	r0, #4369	; 0x1111
     8f0:	8a080000 	bhi	2008f8 <__bss_end__+0x1f1f30>
     8f4:	02000182 	andeq	r0, r0, #-2147483616	; 0x80000020
     8f8:	18429118 	stmdane	r2, {r3, r4, r8, ip, pc}^
     8fc:	89090000 	stmdbhi	r9, {}	; <UNPREDICTABLE>
     900:	11010182 	smlabbne	r1, r2, r1, r0
     904:	01133101 	tsteq	r3, r1, lsl #2
     908:	0a000013 	beq	95c <_start-0x76a4>
     90c:	00018289 	andeq	r8, r1, r9, lsl #5
     910:	13310111 	teqne	r1, #1073741828	; 0x40000004
     914:	150b0000 	strne	r0, [fp, #-0]
     918:	49192701 	ldmdbmi	r9, {r0, r8, r9, sl, sp}
     91c:	00130113 	andseq	r0, r3, r3, lsl r1
     920:	00050c00 	andeq	r0, r5, r0, lsl #24
     924:	00001349 	andeq	r1, r0, r9, asr #6
     928:	0300340d 	movweq	r3, #1037	; 0x40d
     92c:	3b0b3a0e 	blcc	2cf16c <__bss_end__+0x2c07a4>
     930:	3f13490b 	svccc	0x0013490b
     934:	00193c19 	andseq	r3, r9, r9, lsl ip
     938:	012e0e00 	teqeq	lr, r0, lsl #28
     93c:	0e03193f 	mcreq	9, 0, r1, cr3, cr15, {1}
     940:	0b3b0b3a 	bleq	ec3630 <__bss_end__+0xeb4c68>
     944:	193c1927 	ldmdbne	ip!, {r0, r1, r2, r5, r8, fp, ip}
     948:	00001301 	andeq	r1, r0, r1, lsl #6
     94c:	3f002e0f 	svccc	0x00002e0f
     950:	3a0e0319 	bcc	3815bc <__bss_end__+0x372bf4>
     954:	270b3b0b 	strcs	r3, [fp, -fp, lsl #22]
     958:	00193c19 	andseq	r3, r9, r9, lsl ip
     95c:	11010000 	mrsne	r0, (UNDEF: 1)
     960:	130e2501 	movwne	r2, #58625	; 0xe501
     964:	1b0e030b 	blne	381598 <__bss_end__+0x372bd0>
     968:	1201110e 	andne	r1, r1, #-2147483645	; 0x80000003
     96c:	00171006 	andseq	r1, r7, r6
     970:	00240200 	eoreq	r0, r4, r0, lsl #4
     974:	0b3e0b0b 	bleq	f835a8 <__bss_end__+0xf74be0>
     978:	00000803 	andeq	r0, r0, r3, lsl #16
     97c:	0b002403 	bleq	9990 <sw_uart_init_helper+0x58>
     980:	030b3e0b 	movweq	r3, #48651	; 0xbe0b
     984:	0400000e 	streq	r0, [r0], #-14
     988:	0e030016 	mcreq	0, 0, r0, cr3, cr6, {0}
     98c:	0b3b0b3a 	bleq	ec367c <__bss_end__+0xeb4cb4>
     990:	00001349 	andeq	r1, r0, r9, asr #6
     994:	0b000f05 	bleq	45b0 <_start-0x3a50>
     998:	0013490b 	andseq	r4, r3, fp, lsl #18
     99c:	00260600 	eoreq	r0, r6, r0, lsl #12
     9a0:	00001349 	andeq	r1, r0, r9, asr #6
     9a4:	0b011307 	bleq	455c8 <__bss_end__+0x36c00>
     9a8:	3b0b3a0b 	blcc	2cf1dc <__bss_end__+0x2c0814>
     9ac:	0013010b 	andseq	r0, r3, fp, lsl #2
     9b0:	000d0800 	andeq	r0, sp, r0, lsl #16
     9b4:	0b3a0803 	bleq	e829c8 <__bss_end__+0xe74000>
     9b8:	13490b3b 	movtne	r0, #39739	; 0x9b3b
     9bc:	00000b38 	andeq	r0, r0, r8, lsr fp
     9c0:	03000d09 	movweq	r0, #3337	; 0xd09
     9c4:	3b0b3a0e 	blcc	2cf204 <__bss_end__+0x2c083c>
     9c8:	3813490b 	ldmdacc	r3, {r0, r1, r3, r8, fp, lr}
     9cc:	0a00000b 	beq	a00 <_start-0x7600>
     9d0:	0b0b0104 	bleq	2c0de8 <__bss_end__+0x2b2420>
     9d4:	0b3b0b3a 	bleq	ec36c4 <__bss_end__+0xeb4cfc>
     9d8:	00001301 	andeq	r1, r0, r1, lsl #6
     9dc:	0300280b 	movweq	r2, #2059	; 0x80b
     9e0:	000d1c0e 	andeq	r1, sp, lr, lsl #24
     9e4:	012e0c00 	teqeq	lr, r0, lsl #24
     9e8:	0b3a0e03 	bleq	e841fc <__bss_end__+0xe75834>
     9ec:	19270b3b 	stmdbne	r7!, {r0, r1, r3, r4, r5, r8, r9, fp}
     9f0:	01111349 	tsteq	r1, r9, asr #6
     9f4:	18400612 	stmdane	r0, {r1, r4, r9, sl}^
     9f8:	01194297 			; <UNDEFINED> instruction: 0x01194297
     9fc:	0d000013 	stceq	0, cr0, [r0, #-76]	; 0xffffffb4
     a00:	08030005 	stmdaeq	r3, {r0, r2}
     a04:	0b3b0b3a 	bleq	ec36f4 <__bss_end__+0xeb4d2c>
     a08:	17021349 	strne	r1, [r2, -r9, asr #6]
     a0c:	890e0000 	stmdbhi	lr, {}	; <UNPREDICTABLE>
     a10:	11010182 	smlabbne	r1, r2, r1, r0
     a14:	00133101 	andseq	r3, r3, r1, lsl #2
     a18:	828a0f00 	addhi	r0, sl, #0, 30
     a1c:	18020001 	stmdane	r2, {r0}
     a20:	00184291 	mulseq	r8, r1, r2
     a24:	012e1000 	teqeq	lr, r0
     a28:	0e03193f 	mcreq	9, 0, r1, cr3, cr15, {1}
     a2c:	0b3b0b3a 	bleq	ec371c <__bss_end__+0xeb4d54>
     a30:	06120111 			; <UNDEFINED> instruction: 0x06120111
     a34:	42971840 	addsmi	r1, r7, #64, 16	; 0x400000
     a38:	00130119 	andseq	r0, r3, r9, lsl r1
     a3c:	00341100 	eorseq	r1, r4, r0, lsl #2
     a40:	0b3a0e03 	bleq	e84254 <__bss_end__+0xe7588c>
     a44:	13490b3b 	movtne	r0, #39739	; 0x9b3b
     a48:	193c193f 	ldmdbne	ip!, {r0, r1, r2, r3, r4, r5, r8, fp, ip}
     a4c:	2e120000 	cdpcs	0, 1, cr0, cr2, cr0, {0}
     a50:	03193f01 	tsteq	r9, #1, 30
     a54:	3b0b3a0e 	blcc	2cf294 <__bss_end__+0x2c08cc>
     a58:	01193c0b 	tsteq	r9, fp, lsl #24
     a5c:	13000013 	movwne	r0, #19
     a60:	00000018 	andeq	r0, r0, r8, lsl r0
     a64:	03003414 	movweq	r3, #1044	; 0x414
     a68:	3b0b3a08 	blcc	2cf290 <__bss_end__+0x2c08c8>
     a6c:	0213490b 	andseq	r4, r3, #180224	; 0x2c000
     a70:	15000017 	strne	r0, [r0, #-23]
     a74:	0e030034 	mcreq	0, 0, r0, cr3, cr4, {1}
     a78:	0b3b0b3a 	bleq	ec3768 <__bss_end__+0xeb4da0>
     a7c:	00001349 	andeq	r1, r0, r9, asr #6
     a80:	01828916 	orreq	r8, r2, r6, lsl r9
     a84:	31011100 	mrscc	r1, (UNDEF: 17)
     a88:	17000013 	smladne	r0, r3, r0, r0
     a8c:	01018289 	smlabbeq	r1, r9, r2, r8
     a90:	13310111 	teqne	r1, #1073741828	; 0x40000004
     a94:	00001301 	andeq	r1, r0, r1, lsl #6
     a98:	03003418 	movweq	r3, #1048	; 0x418
     a9c:	3b0b3a0e 	blcc	2cf2dc <__bss_end__+0x2c0914>
     aa0:	0213490b 	andseq	r4, r3, #180224	; 0x2c000
     aa4:	19000018 	stmdbne	r0, {r3, r4}
     aa8:	19270115 	stmdbne	r7!, {r0, r2, r4, r8}
     aac:	13011349 	movwne	r1, #4937	; 0x1349
     ab0:	051a0000 	ldreq	r0, [sl, #-0]
     ab4:	00134900 	andseq	r4, r3, r0, lsl #18
     ab8:	012e1b00 	teqeq	lr, r0, lsl #22
     abc:	0e03193f 	mcreq	9, 0, r1, cr3, cr15, {1}
     ac0:	0b3b0b3a 	bleq	ec37b0 <__bss_end__+0xeb4de8>
     ac4:	193c1927 	ldmdbne	ip!, {r0, r1, r2, r5, r8, fp, ip}
     ac8:	00001301 	andeq	r1, r0, r1, lsl #6
     acc:	3f002e1c 	svccc	0x00002e1c
     ad0:	3a0e0319 	bcc	38173c <__bss_end__+0x372d74>
     ad4:	270b3b0b 	strcs	r3, [fp, -fp, lsl #22]
     ad8:	3c134919 	ldccc	9, cr4, [r3], {25}
     adc:	1d000019 	stcne	0, cr0, [r0, #-100]	; 0xffffff9c
     ae0:	193f012e 	ldmdbne	pc!, {r1, r2, r3, r5, r8}	; <UNPREDICTABLE>
     ae4:	0b3a0e03 	bleq	e842f8 <__bss_end__+0xe75930>
     ae8:	19270b3b 	stmdbne	r7!, {r0, r1, r3, r4, r5, r8, r9, fp}
     aec:	193c1349 	ldmdbne	ip!, {r0, r3, r6, r8, r9, ip}
     af0:	00001301 	andeq	r1, r0, r1, lsl #6
     af4:	3f002e1e 	svccc	0x00002e1e
     af8:	3a0e0319 	bcc	381764 <__bss_end__+0x372d9c>
     afc:	270b3b0b 	strcs	r3, [fp, -fp, lsl #22]
     b00:	00193c19 	andseq	r3, r9, r9, lsl ip
     b04:	11010000 	mrsne	r0, (UNDEF: 1)
     b08:	130e2501 	movwne	r2, #58625	; 0xe501
     b0c:	1b0e030b 	blne	381740 <__bss_end__+0x372d78>
     b10:	1117550e 	tstne	r7, lr, lsl #10
     b14:	00171001 	andseq	r1, r7, r1
     b18:	00240200 	eoreq	r0, r4, r0, lsl #4
     b1c:	0b3e0b0b 	bleq	f83750 <__bss_end__+0xf74d88>
     b20:	00000803 	andeq	r0, r0, r3, lsl #16
     b24:	0b002403 	bleq	9b38 <uart_init+0x8>
     b28:	030b3e0b 	movweq	r3, #48651	; 0xbe0b
     b2c:	0400000e 	streq	r0, [r0], #-14
     b30:	193f012e 	ldmdbne	pc!, {r1, r2, r3, r5, r8}	; <UNPREDICTABLE>
     b34:	0b3a0e03 	bleq	e84348 <__bss_end__+0xe75980>
     b38:	19270b3b 	stmdbne	r7!, {r0, r1, r3, r4, r5, r8, r9, fp}
     b3c:	01111349 	tsteq	r1, r9, asr #6
     b40:	18400612 	stmdane	r0, {r1, r4, r9, sl}^
     b44:	01194297 			; <UNDEFINED> instruction: 0x01194297
     b48:	05000013 	streq	r0, [r0, #-19]
     b4c:	0e030034 	mcreq	0, 0, r0, cr3, cr4, {1}
     b50:	0b3b0b3a 	bleq	ec3840 <__bss_end__+0xeb4e78>
     b54:	17021349 	strne	r1, [r2, -r9, asr #6]
     b58:	2e060000 	cdpcs	0, 0, cr0, cr6, cr0, {0}
     b5c:	03193f01 	tsteq	r9, #1, 30
     b60:	3b0b3a0e 	blcc	2cf3a0 <__bss_end__+0x2c09d8>
     b64:	1119270b 	tstne	r9, fp, lsl #14
     b68:	40061201 	andmi	r1, r6, r1, lsl #4
     b6c:	19429718 	stmdbne	r2, {r3, r4, r8, r9, sl, ip, pc}^
     b70:	00001301 	andeq	r1, r0, r1, lsl #6
     b74:	03003407 	movweq	r3, #1031	; 0x407
     b78:	3b0b3a0e 	blcc	2cf3b8 <__bss_end__+0x2c09f0>
     b7c:	1c13490b 	ldcne	9, cr4, [r3], {11}
     b80:	08000006 	stmdaeq	r0, {r1, r2}
     b84:	0e030034 	mcreq	0, 0, r0, cr3, cr4, {1}
     b88:	0b3b0b3a 	bleq	ec3878 <__bss_end__+0xeb4eb0>
     b8c:	0b1c1349 	bleq	7058b8 <__bss_end__+0x6f6ef0>
     b90:	89090000 	stmdbhi	r9, {}	; <UNPREDICTABLE>
     b94:	11000182 	smlabbne	r0, r2, r1, r0
     b98:	00133101 	andseq	r3, r3, r1, lsl #2
     b9c:	82890a00 	addhi	r0, r9, #0, 20
     ba0:	01110101 	tsteq	r1, r1, lsl #2
     ba4:	13011331 	movwne	r1, #4913	; 0x1331
     ba8:	8a0b0000 	bhi	2c0bb0 <__bss_end__+0x2b21e8>
     bac:	02000182 	andeq	r0, r0, #-2147483616	; 0x80000020
     bb0:	18429118 	stmdane	r2, {r3, r4, r8, ip, pc}^
     bb4:	890c0000 	stmdbhi	ip, {}	; <UNPREDICTABLE>
     bb8:	11010182 	smlabbne	r1, r2, r1, r0
     bbc:	00133101 	andseq	r3, r3, r1, lsl #2
     bc0:	00260d00 	eoreq	r0, r6, r0, lsl #26
     bc4:	00001349 	andeq	r1, r0, r9, asr #6
     bc8:	3f012e0e 	svccc	0x00012e0e
     bcc:	3a0e0319 	bcc	381838 <__bss_end__+0x372e70>
     bd0:	270b3b0b 	strcs	r3, [fp, -fp, lsl #22]
     bd4:	01193c19 	tsteq	r9, r9, lsl ip
     bd8:	0f000013 	svceq	0x00000013
     bdc:	13490005 	movtne	r0, #36869	; 0x9005
     be0:	2e100000 	cdpcs	0, 1, cr0, cr0, cr0, {0}
     be4:	03193f01 	tsteq	r9, #1, 30
     be8:	3b0b3a0e 	blcc	2cf428 <__bss_end__+0x2c0a60>
     bec:	3c19270b 	ldccc	7, cr2, [r9], {11}
     bf0:	00000019 	andeq	r0, r0, r9, lsl r0
     bf4:	25011101 	strcs	r1, [r1, #-257]	; 0x101
     bf8:	030b130e 	movweq	r1, #45838	; 0xb30e
     bfc:	110e1b0e 	tstne	lr, lr, lsl #22
     c00:	10061201 	andne	r1, r6, r1, lsl #4
     c04:	02000017 	andeq	r0, r0, #23
     c08:	0b0b0024 	bleq	2c0ca0 <__bss_end__+0x2b22d8>
     c0c:	08030b3e 	stmdaeq	r3, {r1, r2, r3, r4, r5, r8, r9, fp}
     c10:	24030000 	strcs	r0, [r3], #-0
     c14:	3e0b0b00 	vmlacc.f64	d0, d11, d0
     c18:	000e030b 	andeq	r0, lr, fp, lsl #6
     c1c:	012e0400 	teqeq	lr, r0, lsl #8
     c20:	0e03193f 	mcreq	9, 0, r1, cr3, cr15, {1}
     c24:	0b3b0b3a 	bleq	ec3914 <__bss_end__+0xeb4f4c>
     c28:	01111927 	tsteq	r1, r7, lsr #18
     c2c:	18400612 	stmdane	r0, {r1, r4, r9, sl}^
     c30:	01194297 			; <UNDEFINED> instruction: 0x01194297
     c34:	05000013 	streq	r0, [r0, #-19]
     c38:	0e030005 	cdpeq	0, 0, cr0, cr3, cr5, {0}
     c3c:	0b3b0b3a 	bleq	ec392c <__bss_end__+0xeb4f64>
     c40:	17021349 	strne	r1, [r2, -r9, asr #6]
     c44:	2e060000 	cdpcs	0, 0, cr0, cr6, cr0, {0}
     c48:	03193f01 	tsteq	r9, #1, 30
     c4c:	3b0b3a0e 	blcc	2cf48c <__bss_end__+0x2c0ac4>
     c50:	4919270b 	ldmdbmi	r9, {r0, r1, r3, r8, r9, sl, sp}
     c54:	12011113 	andne	r1, r1, #-1073741820	; 0xc0000004
     c58:	97184006 	ldrls	r4, [r8, -r6]
     c5c:	13011942 	movwne	r1, #6466	; 0x1942
     c60:	89070000 	stmdbhi	r7, {}	; <UNPREDICTABLE>
     c64:	11010182 	smlabbne	r1, r2, r1, r0
     c68:	00133101 	andseq	r3, r3, r1, lsl #2
     c6c:	828a0800 	addhi	r0, sl, #0, 16
     c70:	18020001 	stmdane	r2, {r0}
     c74:	00184291 	mulseq	r8, r1, r2
     c78:	00340900 	eorseq	r0, r4, r0, lsl #18
     c7c:	0b3a0803 	bleq	e82c90 <__bss_end__+0xe742c8>
     c80:	13490b3b 	movtne	r0, #39739	; 0x9b3b
     c84:	00001802 	andeq	r1, r0, r2, lsl #16
     c88:	0182890a 	orreq	r8, r2, sl, lsl #18
     c8c:	31011100 	mrscc	r1, (UNDEF: 17)
     c90:	0b000013 	bleq	ce4 <_start-0x731c>
     c94:	08030005 	stmdaeq	r3, {r0, r2}
     c98:	0b3b0b3a 	bleq	ec3988 <__bss_end__+0xeb4fc0>
     c9c:	17021349 	strne	r1, [r2, -r9, asr #6]
     ca0:	0b0c0000 	bleq	300ca8 <__bss_end__+0x2f22e0>
     ca4:	12011101 	andne	r1, r1, #1073741824	; 0x40000000
     ca8:	00130106 	andseq	r0, r3, r6, lsl #2
     cac:	00340d00 	eorseq	r0, r4, r0, lsl #26
     cb0:	0b3a0803 	bleq	e82cc4 <__bss_end__+0xe742fc>
     cb4:	13490b3b 	movtne	r0, #39739	; 0x9b3b
     cb8:	00001702 	andeq	r1, r0, r2, lsl #14
     cbc:	3f012e0e 	svccc	0x00012e0e
     cc0:	3a0e0319 	bcc	38192c <__bss_end__+0x372f64>
     cc4:	270b3b0b 	strcs	r3, [fp, -fp, lsl #22]
     cc8:	3c134919 	ldccc	9, cr4, [r3], {25}
     ccc:	0f000019 	svceq	0x00000019
     cd0:	13490005 	movtne	r0, #36869	; 0x9005
     cd4:	01000000 	mrseq	r0, (UNDEF: 0)
     cd8:	0e250111 	mcreq	1, 1, r0, cr5, cr1, {0}
     cdc:	0e030b13 	vmoveq.32	d3[0], r0
     ce0:	01110e1b 	tsteq	r1, fp, lsl lr
     ce4:	17100612 			; <UNDEFINED> instruction: 0x17100612
     ce8:	24020000 	strcs	r0, [r2], #-0
     cec:	3e0b0b00 	vmlacc.f64	d0, d11, d0
     cf0:	000e030b 	andeq	r0, lr, fp, lsl #6
     cf4:	00240300 	eoreq	r0, r4, r0, lsl #6
     cf8:	0b3e0b0b 	bleq	f8392c <__bss_end__+0xf74f64>
     cfc:	00000803 	andeq	r0, r0, r3, lsl #16
     d00:	0b010404 	bleq	41d18 <__bss_end__+0x33350>
     d04:	3b0b3a0b 	blcc	2cf538 <__bss_end__+0x2c0b70>
     d08:	0013010b 	andseq	r0, r3, fp, lsl #2
     d0c:	00280500 	eoreq	r0, r8, r0, lsl #10
     d10:	0d1c0e03 	ldceq	14, cr0, [ip, #-12]
     d14:	16060000 	strne	r0, [r6], -r0
     d18:	3a0e0300 	bcc	381920 <__bss_end__+0x372f58>
     d1c:	490b3b0b 	stmdbmi	fp, {r0, r1, r3, r8, r9, fp, ip, sp}
     d20:	07000013 	smladeq	r0, r3, r0, r0
     d24:	193f012e 	ldmdbne	pc!, {r1, r2, r3, r5, r8}	; <UNPREDICTABLE>
     d28:	0b3a0e03 	bleq	e8453c <__bss_end__+0xe75b74>
     d2c:	19270b3b 	stmdbne	r7!, {r0, r1, r3, r4, r5, r8, r9, fp}
     d30:	06120111 			; <UNDEFINED> instruction: 0x06120111
     d34:	42971840 	addsmi	r1, r7, #64, 16	; 0x400000
     d38:	00130119 	andseq	r0, r3, r9, lsl r1
     d3c:	00050800 	andeq	r0, r5, r0, lsl #16
     d40:	0b3a0803 	bleq	e82d54 <__bss_end__+0xe7438c>
     d44:	13490b3b 	movtne	r0, #39739	; 0x9b3b
     d48:	00001702 	andeq	r1, r0, r2, lsl #14
     d4c:	03003409 	movweq	r3, #1033	; 0x409
     d50:	3b0b3a0e 	blcc	2cf590 <__bss_end__+0x2c0bc8>
     d54:	0213490b 	andseq	r4, r3, #180224	; 0x2c000
     d58:	0a000017 	beq	dbc <_start-0x7244>
     d5c:	01018289 	smlabbeq	r1, r9, r2, r8
     d60:	13310111 	teqne	r1, #1073741828	; 0x40000004
     d64:	00001301 	andeq	r1, r0, r1, lsl #6
     d68:	01828a0b 	orreq	r8, r2, fp, lsl #20
     d6c:	91180200 	tstls	r8, r0, lsl #4
     d70:	00001842 	andeq	r1, r0, r2, asr #16
     d74:	0182890c 	orreq	r8, r2, ip, lsl #18
     d78:	31011101 	tstcc	r1, r1, lsl #2
     d7c:	0d000013 	stceq	0, cr0, [r0, #-76]	; 0xffffffb4
     d80:	0b0b000f 	bleq	2c0dc4 <__bss_end__+0x2b23fc>
     d84:	00001349 	andeq	r1, r0, r9, asr #6
     d88:	4900350e 	stmdbmi	r0, {r1, r2, r3, r8, sl, ip, sp}
     d8c:	0f000013 	svceq	0x00000013
     d90:	193f012e 	ldmdbne	pc!, {r1, r2, r3, r5, r8}	; <UNPREDICTABLE>
     d94:	0b3a0e03 	bleq	e845a8 <__bss_end__+0xe75be0>
     d98:	19270b3b 	stmdbne	r7!, {r0, r1, r3, r4, r5, r8, r9, fp}
     d9c:	13010b20 	movwne	r0, #6944	; 0x1b20
     da0:	05100000 	ldreq	r0, [r0, #-0]
     da4:	3a080300 	bcc	2019ac <__bss_end__+0x1f2fe4>
     da8:	490b3b0b 	stmdbmi	fp, {r0, r1, r3, r8, r9, fp, ip, sp}
     dac:	11000013 	tstne	r0, r3, lsl r0
     db0:	0e030034 	mcreq	0, 0, r0, cr3, cr4, {1}
     db4:	0b3b0b3a 	bleq	ec3aa4 <__bss_end__+0xeb50dc>
     db8:	00001349 	andeq	r1, r0, r9, asr #6
     dbc:	31012e12 	tstcc	r1, r2, lsl lr
     dc0:	12011113 	andne	r1, r1, #-1073741820	; 0xc0000004
     dc4:	97184006 	ldrls	r4, [r8, -r6]
     dc8:	13011942 	movwne	r1, #6466	; 0x1942
     dcc:	05130000 	ldreq	r0, [r3, #-0]
     dd0:	02133100 	andseq	r3, r3, #0, 2
     dd4:	14000017 	strne	r0, [r0], #-23
     dd8:	13310034 	teqne	r1, #52	; 0x34
     ddc:	00001702 	andeq	r1, r0, r2, lsl #14
     de0:	3f012e15 	svccc	0x00012e15
     de4:	3a0e0319 	bcc	381a50 <__bss_end__+0x373088>
     de8:	270b3b0b 	strcs	r3, [fp, -fp, lsl #22]
     dec:	11134919 	tstne	r3, r9, lsl r9
     df0:	40061201 	andmi	r1, r6, r1, lsl #4
     df4:	19429718 	stmdbne	r2, {r3, r4, r8, r9, sl, ip, pc}^
     df8:	00001301 	andeq	r1, r0, r1, lsl #6
     dfc:	03003416 	movweq	r3, #1046	; 0x416
     e00:	3b0b3a08 	blcc	2cf628 <__bss_end__+0x2c0c60>
     e04:	0213490b 	andseq	r4, r3, #180224	; 0x2c000
     e08:	17000017 	smladne	r0, r7, r0, r0
     e0c:	00018289 	andeq	r8, r1, r9, lsl #5
     e10:	13310111 	teqne	r1, #1073741828	; 0x40000004
     e14:	1d180000 	ldcne	0, cr0, [r8, #-0]
     e18:	11133101 	tstne	r3, r1, lsl #2
     e1c:	58061201 	stmdapl	r6, {r0, r9, ip}
     e20:	010b590b 	tsteq	fp, fp, lsl #18
     e24:	19000013 	stmdbne	r0, {r0, r1, r4}
     e28:	0111010b 	tsteq	r1, fp, lsl #2
     e2c:	00000612 	andeq	r0, r0, r2, lsl r6
     e30:	31011d1a 	tstcc	r1, sl, lsl sp
     e34:	12011113 	andne	r1, r1, #-1073741820	; 0xc0000004
     e38:	590b5806 	stmdbpl	fp, {r1, r2, fp, ip, lr}
     e3c:	1b00000b 	blne	e70 <_start-0x7190>
     e40:	0e030005 	cdpeq	0, 0, cr0, cr3, cr5, {0}
     e44:	0b3b0b3a 	bleq	ec3b34 <__bss_end__+0xeb516c>
     e48:	17021349 	strne	r1, [r2, -r9, asr #6]
     e4c:	2e1c0000 	cdpcs	0, 1, cr0, cr12, cr0, {0}
     e50:	03193f01 	tsteq	r9, #1, 30
     e54:	3b0b3a0e 	blcc	2cf694 <__bss_end__+0x2c0ccc>
     e58:	49192705 	ldmdbmi	r9, {r0, r2, r8, r9, sl, sp}
     e5c:	12011113 	andne	r1, r1, #-1073741820	; 0xc0000004
     e60:	97184006 	ldrls	r4, [r8, -r6]
     e64:	13011942 	movwne	r1, #6466	; 0x1942
     e68:	051d0000 	ldreq	r0, [sp, #-0]
     e6c:	3a0e0300 	bcc	381a74 <__bss_end__+0x3730ac>
     e70:	49053b0b 	stmdbmi	r5, {r0, r1, r3, r8, r9, fp, ip, sp}
     e74:	00170213 	andseq	r0, r7, r3, lsl r2
     e78:	012e1e00 	teqeq	lr, r0, lsl #28
     e7c:	0e03193f 	mcreq	9, 0, r1, cr3, cr15, {1}
     e80:	053b0b3a 	ldreq	r0, [fp, #-2874]!	; 0xb3a
     e84:	01111927 	tsteq	r1, r7, lsr #18
     e88:	18400612 	stmdane	r0, {r1, r4, r9, sl}^
     e8c:	01194297 			; <UNDEFINED> instruction: 0x01194297
     e90:	1f000013 	svcne	0x00000013
     e94:	08030005 	stmdaeq	r3, {r0, r2}
     e98:	053b0b3a 	ldreq	r0, [fp, #-2874]!	; 0xb3a
     e9c:	17021349 	strne	r1, [r2, -r9, asr #6]
     ea0:	34200000 	strtcc	r0, [r0], #-0
     ea4:	3a0e0300 	bcc	381aac <__bss_end__+0x3730e4>
     ea8:	49053b0b 	stmdbmi	r5, {r0, r1, r3, r8, r9, fp, ip, sp}
     eac:	00170213 	andseq	r0, r7, r3, lsl r2
     eb0:	010b2100 	mrseq	r2, (UNDEF: 27)
     eb4:	06120111 			; <UNDEFINED> instruction: 0x06120111
     eb8:	00001301 	andeq	r1, r0, r1, lsl #6
     ebc:	03003422 	movweq	r3, #1058	; 0x422
     ec0:	3b0b3a0e 	blcc	2cf700 <__bss_end__+0x2c0d38>
     ec4:	3f13490b 	svccc	0x0013490b
     ec8:	00180219 	andseq	r0, r8, r9, lsl r2
     ecc:	012e2300 	teqeq	lr, r0, lsl #6
     ed0:	0e03193f 	mcreq	9, 0, r1, cr3, cr15, {1}
     ed4:	0b3b0b3a 	bleq	ec3bc4 <__bss_end__+0xeb51fc>
     ed8:	13491927 	movtne	r1, #39207	; 0x9927
     edc:	1301193c 	movwne	r1, #6460	; 0x193c
     ee0:	05240000 	streq	r0, [r4, #-0]!
     ee4:	00134900 	andseq	r4, r3, r0, lsl #18
     ee8:	00262500 	eoreq	r2, r6, r0, lsl #10
     eec:	00001349 	andeq	r1, r0, r9, asr #6
     ef0:	00003526 	andeq	r3, r0, r6, lsr #10
     ef4:	012e2700 	teqeq	lr, r0, lsl #14
     ef8:	0e03193f 	mcreq	9, 0, r1, cr3, cr15, {1}
     efc:	0b3b0b3a 	bleq	ec3bec <__bss_end__+0xeb5224>
     f00:	193c1927 	ldmdbne	ip!, {r0, r1, r2, r5, r8, fp, ip}
     f04:	00001301 	andeq	r1, r0, r1, lsl #6
     f08:	3f002e28 	svccc	0x00002e28
     f0c:	3a0e0319 	bcc	381b78 <__bss_end__+0x3731b0>
     f10:	270b3b0b 	strcs	r3, [fp, -fp, lsl #22]
     f14:	00193c19 	andseq	r3, r9, r9, lsl ip
     f18:	11010000 	mrsne	r0, (UNDEF: 1)
     f1c:	130e2501 	movwne	r2, #58625	; 0xe501
     f20:	1b0e030b 	blne	381b54 <__bss_end__+0x37318c>
     f24:	1201110e 	andne	r1, r1, #-2147483645	; 0x80000003
     f28:	00171006 	andseq	r1, r7, r6
     f2c:	00240200 	eoreq	r0, r4, r0, lsl #4
     f30:	0b3e0b0b 	bleq	f83b64 <__bss_end__+0xf7519c>
     f34:	00000803 	andeq	r0, r0, r3, lsl #16
     f38:	0b002403 	bleq	9f4c <_prefetch_abort_asm>
     f3c:	030b3e0b 	movweq	r3, #48651	; 0xbe0b
     f40:	0400000e 	streq	r0, [r0], #-14
     f44:	0e030016 	mcreq	0, 0, r0, cr3, cr6, {0}
     f48:	0b3b0b3a 	bleq	ec3c38 <__bss_end__+0xeb5270>
     f4c:	00001349 	andeq	r1, r0, r9, asr #6
     f50:	0b000f05 	bleq	4b6c <_start-0x3494>
     f54:	0600000b 	streq	r0, [r0], -fp
     f58:	0b0b000f 	bleq	2c0f9c <__bss_end__+0x2b25d4>
     f5c:	00001349 	andeq	r1, r0, r9, asr #6
     f60:	49002607 	stmdbmi	r0, {r0, r1, r2, r9, sl, sp}
     f64:	08000013 	stmdaeq	r0, {r0, r1, r4}
     f68:	0b0b0113 	bleq	2c13bc <__bss_end__+0x2b29f4>
     f6c:	0b3b0b3a 	bleq	ec3c5c <__bss_end__+0xeb5294>
     f70:	00001301 	andeq	r1, r0, r1, lsl #6
     f74:	03000d09 	movweq	r0, #3337	; 0xd09
     f78:	3b0b3a08 	blcc	2cf7a0 <__bss_end__+0x2c0dd8>
     f7c:	3813490b 	ldmdacc	r3, {r0, r1, r3, r8, fp, lr}
     f80:	0a00000b 	beq	fb4 <_start-0x704c>
     f84:	0e03000d 	cdpeq	0, 0, cr0, cr3, cr13, {0}
     f88:	0b3b0b3a 	bleq	ec3c78 <__bss_end__+0xeb52b0>
     f8c:	0b381349 	bleq	e05cb8 <__bss_end__+0xdf72f0>
     f90:	130b0000 	movwne	r0, #45056	; 0xb000
     f94:	0b0e0301 	bleq	381ba0 <__bss_end__+0x3731d8>
     f98:	3b0b3a0b 	blcc	2cf7cc <__bss_end__+0x2c0e04>
     f9c:	0013010b 	andseq	r0, r3, fp, lsl #2
     fa0:	000d0c00 	andeq	r0, sp, r0, lsl #24
     fa4:	13490e03 	movtne	r0, #40451	; 0x9e03
     fa8:	19340b38 	ldmdbne	r4!, {r3, r4, r5, r8, r9, fp}
     fac:	2e0d0000 	cdpcs	0, 0, cr0, cr13, cr0, {0}
     fb0:	3a0e0301 	bcc	381bbc <__bss_end__+0x3731f4>
     fb4:	270b3b0b 	strcs	r3, [fp, -fp, lsl #22]
     fb8:	010b2019 	tsteq	fp, r9, lsl r0
     fbc:	0e000013 	mcreq	0, 0, r0, cr0, cr3, {0}
     fc0:	0e030005 	cdpeq	0, 0, cr0, cr3, cr5, {0}
     fc4:	0b3b0b3a 	bleq	ec3cb4 <__bss_end__+0xeb52ec>
     fc8:	00001349 	andeq	r1, r0, r9, asr #6
     fcc:	0300050f 	movweq	r0, #1295	; 0x50f
     fd0:	3b0b3a08 	blcc	2cf7f8 <__bss_end__+0x2c0e30>
     fd4:	0013490b 	andseq	r4, r3, fp, lsl #18
     fd8:	010b1000 	mrseq	r1, (UNDEF: 11)
     fdc:	34110000 	ldrcc	r0, [r1], #-0
     fe0:	3a0e0300 	bcc	381be8 <__bss_end__+0x373220>
     fe4:	490b3b0b 	stmdbmi	fp, {r0, r1, r3, r8, r9, fp, ip, sp}
     fe8:	12000013 	andne	r0, r0, #19
     fec:	193f012e 	ldmdbne	pc!, {r1, r2, r3, r5, r8}	; <UNPREDICTABLE>
     ff0:	0b3a0e03 	bleq	e84804 <__bss_end__+0xe75e3c>
     ff4:	19270b3b 	stmdbne	r7!, {r0, r1, r3, r4, r5, r8, r9, fp}
     ff8:	06120111 			; <UNDEFINED> instruction: 0x06120111
     ffc:	42971840 	addsmi	r1, r7, #64, 16	; 0x400000
    1000:	00130119 	andseq	r0, r3, r9, lsl r1
    1004:	00051300 	andeq	r1, r5, r0, lsl #6
    1008:	0b3a0e03 	bleq	e8481c <__bss_end__+0xe75e54>
    100c:	13490b3b 	movtne	r0, #39739	; 0x9b3b
    1010:	00001702 	andeq	r1, r0, r2, lsl #14
    1014:	03000514 	movweq	r0, #1300	; 0x514
    1018:	3b0b3a08 	blcc	2cf840 <__bss_end__+0x2c0e78>
    101c:	0213490b 	andseq	r4, r3, #180224	; 0x2c000
    1020:	15000017 	strne	r0, [r0, #-23]
    1024:	08030034 	stmdaeq	r3, {r2, r4, r5}
    1028:	0b3b0b3a 	bleq	ec3d18 <__bss_end__+0xeb5350>
    102c:	18021349 	stmdane	r2, {r0, r3, r6, r8, r9, ip}
    1030:	34160000 	ldrcc	r0, [r6], #-0
    1034:	3a080300 	bcc	201c3c <__bss_end__+0x1f3274>
    1038:	490b3b0b 	stmdbmi	fp, {r0, r1, r3, r8, r9, fp, ip, sp}
    103c:	00170213 	andseq	r0, r7, r3, lsl r2
    1040:	010b1700 	tsteq	fp, r0, lsl #14
    1044:	06120111 			; <UNDEFINED> instruction: 0x06120111
    1048:	00001301 	andeq	r1, r0, r1, lsl #6
    104c:	03003418 	movweq	r3, #1048	; 0x418
    1050:	3b0b3a0e 	blcc	2cf890 <__bss_end__+0x2c0ec8>
    1054:	0213490b 	andseq	r4, r3, #180224	; 0x2c000
    1058:	19000018 	stmdbne	r0, {r3, r4}
    105c:	1331011d 	teqne	r1, #1073741831	; 0x40000007
    1060:	06120111 			; <UNDEFINED> instruction: 0x06120111
    1064:	0b590b58 	bleq	1643dcc <__bss_end__+0x1635404>
    1068:	00001301 	andeq	r1, r0, r1, lsl #6
    106c:	3100051a 	tstcc	r0, sl, lsl r5
    1070:	00170213 	andseq	r0, r7, r3, lsl r2
    1074:	00051b00 	andeq	r1, r5, r0, lsl #22
    1078:	18021331 	stmdane	r2, {r0, r4, r5, r8, r9, ip}
    107c:	051c0000 	ldreq	r0, [ip, #-0]
    1080:	1c133100 	ldfnes	f3, [r3], {-0}
    1084:	1d00000b 	stcne	0, cr0, [r0, #-44]	; 0xffffffd4
    1088:	0111010b 	tsteq	r1, fp, lsl #2
    108c:	00000612 	andeq	r0, r0, r2, lsl r6
    1090:	3100341e 	tstcc	r0, lr, lsl r4
    1094:	00170213 	andseq	r0, r7, r3, lsl r2
    1098:	82891f00 	addhi	r1, r9, #0, 30
    109c:	01110101 	tsteq	r1, r1, lsl #2
    10a0:	00001331 	andeq	r1, r0, r1, lsr r3
    10a4:	01828a20 	orreq	r8, r2, r0, lsr #20
    10a8:	91180200 	tstls	r8, r0, lsl #4
    10ac:	00001842 	andeq	r1, r0, r2, asr #16
    10b0:	31011d21 	tstcc	r1, r1, lsr #26
    10b4:	12011113 	andne	r1, r1, #-1073741820	; 0xc0000004
    10b8:	590b5806 	stmdbpl	fp, {r1, r2, fp, ip, lr}
    10bc:	2200000b 	andcs	r0, r0, #11
    10c0:	0e03012e 	adfeqsp	f0, f3, #0.5
    10c4:	0b3b0b3a 	bleq	ec3db4 <__bss_end__+0xeb53ec>
    10c8:	13491927 	movtne	r1, #39207	; 0x9927
    10cc:	13010b20 	movwne	r0, #6944	; 0x1b20
    10d0:	2e230000 	cdpcs	0, 2, cr0, cr3, cr0, {0}
    10d4:	03193f01 	tsteq	r9, #1, 30
    10d8:	3b0b3a0e 	blcc	2cf918 <__bss_end__+0x2c0f50>
    10dc:	4919270b 	ldmdbmi	r9, {r0, r1, r3, r8, r9, sl, sp}
    10e0:	12011113 	andne	r1, r1, #-1073741820	; 0xc0000004
    10e4:	97184006 	ldrls	r4, [r8, -r6]
    10e8:	13011942 	movwne	r1, #6466	; 0x1942
    10ec:	89240000 	stmdbhi	r4!, {}	; <UNPREDICTABLE>
    10f0:	11000182 	smlabbne	r0, r2, r1, r0
    10f4:	00133101 	andseq	r3, r3, r1, lsl #2
    10f8:	82892500 	addhi	r2, r9, #0, 10
    10fc:	01110101 	tsteq	r1, r1, lsl #2
    1100:	13011331 	movwne	r1, #4913	; 0x1331
    1104:	34260000 	strtcc	r0, [r6], #-0
    1108:	3a0e0300 	bcc	381d10 <__bss_end__+0x373348>
    110c:	490b3b0b 	stmdbmi	fp, {r0, r1, r3, r8, r9, fp, ip, sp}
    1110:	00170213 	andseq	r0, r7, r3, lsl r2
    1114:	00052700 	andeq	r2, r5, r0, lsl #14
    1118:	00001331 	andeq	r1, r0, r1, lsr r3
    111c:	03000528 	movweq	r0, #1320	; 0x528
    1120:	3b0b3a0e 	blcc	2cf960 <__bss_end__+0x2c0f98>
    1124:	0213490b 	andseq	r4, r3, #180224	; 0x2c000
    1128:	29000018 	stmdbcs	r0, {r3, r4}
    112c:	0e030034 	mcreq	0, 0, r0, cr3, cr4, {1}
    1130:	19341349 	ldmdbne	r4!, {r0, r3, r6, r8, r9, ip}
    1134:	00001802 	andeq	r1, r0, r2, lsl #16
    1138:	4901012a 	stmdbmi	r1, {r1, r3, r5, r8}
    113c:	00130113 	andseq	r0, r3, r3, lsl r1
    1140:	00212b00 	eoreq	r2, r1, r0, lsl #22
    1144:	0b2f1349 	bleq	bc5e70 <__bss_end__+0xbb74a8>
    1148:	342c0000 	strtcc	r0, [ip], #-0
    114c:	3a080300 	bcc	201d54 <__bss_end__+0x1f338c>
    1150:	490b3b0b 	stmdbmi	fp, {r0, r1, r3, r8, r9, fp, ip, sp}
    1154:	00061c13 	andeq	r1, r6, r3, lsl ip
    1158:	00342d00 	eorseq	r2, r4, r0, lsl #26
    115c:	0b3a0803 	bleq	e83170 <__bss_end__+0xe747a8>
    1160:	13490b3b 	movtne	r0, #39739	; 0x9b3b
    1164:	00000b1c 	andeq	r0, r0, ip, lsl fp
    1168:	0300052e 	movweq	r0, #1326	; 0x52e
    116c:	3b0b3a08 	blcc	2cf994 <__bss_end__+0x2c0fcc>
    1170:	0213490b 	andseq	r4, r3, #180224	; 0x2c000
    1174:	2f000018 	svccs	0x00000018
    1178:	00000018 	andeq	r0, r0, r8, lsl r0
    117c:	49002130 	stmdbmi	r0, {r4, r5, r8, sp}
    1180:	00052f13 	andeq	r2, r5, r3, lsl pc
    1184:	012e3100 	teqeq	lr, r0, lsl #2
    1188:	0e03193f 	mcreq	9, 0, r1, cr3, cr15, {1}
    118c:	0b3b0b3a 	bleq	ec3e7c <__bss_end__+0xeb54b4>
    1190:	193c1927 	ldmdbne	ip!, {r0, r1, r2, r5, r8, fp, ip}
    1194:	00001301 	andeq	r1, r0, r1, lsl #6
    1198:	49000532 	stmdbmi	r0, {r1, r4, r5, r8, sl}
    119c:	33000013 	movwcc	r0, #19
    11a0:	193f002e 	ldmdbne	pc!, {r1, r2, r3, r5}	; <UNPREDICTABLE>
    11a4:	0b3a0e03 	bleq	e849b8 <__bss_end__+0xe75ff0>
    11a8:	19270b3b 	stmdbne	r7!, {r0, r1, r3, r4, r5, r8, r9, fp}
    11ac:	193c1349 	ldmdbne	ip!, {r0, r3, r6, r8, r9, ip}
    11b0:	2e340000 	cdpcs	0, 3, cr0, cr4, cr0, {0}
    11b4:	03193f01 	tsteq	r9, #1, 30
    11b8:	3b0b3a0e 	blcc	2cf9f8 <__bss_end__+0x2c1030>
    11bc:	4919270b 	ldmdbmi	r9, {r0, r1, r3, r8, r9, sl, sp}
    11c0:	01193c13 	tsteq	r9, r3, lsl ip
    11c4:	35000013 	strcc	r0, [r0, #-19]
    11c8:	193f002e 	ldmdbne	pc!, {r1, r2, r3, r5}	; <UNPREDICTABLE>
    11cc:	0b3a0e03 	bleq	e849e0 <__bss_end__+0xe76018>
    11d0:	19270b3b 	stmdbne	r7!, {r0, r1, r3, r4, r5, r8, r9, fp}
    11d4:	0000193c 	andeq	r1, r0, ip, lsr r9
    11d8:	3f012e36 	svccc	0x00012e36
    11dc:	3a0e0319 	bcc	381e48 <__bss_end__+0x373480>
    11e0:	270b3b0b 	strcs	r3, [fp, -fp, lsl #22]
    11e4:	3c134919 	ldccc	9, cr4, [r3], {25}
    11e8:	00000019 	andeq	r0, r0, r9, lsl r0
    11ec:	25011101 	strcs	r1, [r1, #-257]	; 0x101
    11f0:	030b130e 	movweq	r1, #45838	; 0xb30e
    11f4:	110e1b0e 	tstne	lr, lr, lsl #22
    11f8:	10061201 	andne	r1, r6, r1, lsl #4
    11fc:	02000017 	andeq	r0, r0, #23
    1200:	0b0b0024 	bleq	2c1298 <__bss_end__+0x2b28d0>
    1204:	08030b3e 	stmdaeq	r3, {r1, r2, r3, r4, r5, r8, r9, fp}
    1208:	24030000 	strcs	r0, [r3], #-0
    120c:	3e0b0b00 	vmlacc.f64	d0, d11, d0
    1210:	000e030b 	andeq	r0, lr, fp, lsl #6
    1214:	01040400 	tsteq	r4, r0, lsl #8
    1218:	0b3a0b0b 	bleq	e83e4c <__bss_end__+0xe75484>
    121c:	13010b3b 	movwne	r0, #6971	; 0x1b3b
    1220:	28050000 	stmdacs	r5, {}	; <UNPREDICTABLE>
    1224:	1c0e0300 	stcne	3, cr0, [lr], {-0}
    1228:	0600000d 	streq	r0, [r0], -sp
    122c:	0e030016 	mcreq	0, 0, r0, cr3, cr6, {0}
    1230:	0b3b0b3a 	bleq	ec3f20 <__bss_end__+0xeb5558>
    1234:	00001349 	andeq	r1, r0, r9, asr #6
    1238:	3f012e07 	svccc	0x00012e07
    123c:	3a0e0319 	bcc	381ea8 <__bss_end__+0x3734e0>
    1240:	270b3b0b 	strcs	r3, [fp, -fp, lsl #22]
    1244:	12011119 	andne	r1, r1, #1073741830	; 0x40000006
    1248:	97184006 	ldrls	r4, [r8, -r6]
    124c:	13011942 	movwne	r1, #6466	; 0x1942
    1250:	89080000 	stmdbhi	r8, {}	; <UNPREDICTABLE>
    1254:	11000182 	smlabbne	r0, r2, r1, r0
    1258:	00133101 	andseq	r3, r3, r1, lsl #2
    125c:	82890900 	addhi	r0, r9, #0, 18
    1260:	01110101 	tsteq	r1, r1, lsl #2
    1264:	13011331 	movwne	r1, #4913	; 0x1331
    1268:	8a0a0000 	bhi	281270 <__bss_end__+0x2728a8>
    126c:	02000182 	andeq	r0, r0, #-2147483616	; 0x80000020
    1270:	18429118 	stmdane	r2, {r3, r4, r8, ip, pc}^
    1274:	2e0b0000 	cdpcs	0, 0, cr0, cr11, cr0, {0}
    1278:	03193f01 	tsteq	r9, #1, 30
    127c:	3b0b3a0e 	blcc	2cfabc <__bss_end__+0x2c10f4>
    1280:	4919270b 	ldmdbmi	r9, {r0, r1, r3, r8, r9, sl, sp}
    1284:	12011113 	andne	r1, r1, #-1073741820	; 0xc0000004
    1288:	97184006 	ldrls	r4, [r8, -r6]
    128c:	13011942 	movwne	r1, #6466	; 0x1942
    1290:	050c0000 	streq	r0, [ip, #-0]
    1294:	3a080300 	bcc	201e9c <__bss_end__+0x1f34d4>
    1298:	490b3b0b 	stmdbmi	fp, {r0, r1, r3, r8, r9, fp, ip, sp}
    129c:	00170213 	andseq	r0, r7, r3, lsl r2
    12a0:	82890d00 	addhi	r0, r9, #0, 26
    12a4:	01110101 	tsteq	r1, r1, lsl #2
    12a8:	00001331 	andeq	r1, r0, r1, lsr r3
    12ac:	0300340e 	movweq	r3, #1038	; 0x40e
    12b0:	3b0b3a0e 	blcc	2cfaf0 <__bss_end__+0x2c1128>
    12b4:	3f13490b 	svccc	0x0013490b
    12b8:	00180219 	andseq	r0, r8, r9, lsl r2
    12bc:	000f0f00 	andeq	r0, pc, r0, lsl #30
    12c0:	13490b0b 	movtne	r0, #39691	; 0x9b0b
    12c4:	35100000 	ldrcc	r0, [r0, #-0]
    12c8:	00134900 	andseq	r4, r3, r0, lsl #18
    12cc:	002e1100 	eoreq	r1, lr, r0, lsl #2
    12d0:	0e03193f 	mcreq	9, 0, r1, cr3, cr15, {1}
    12d4:	0b3b0b3a 	bleq	ec3fc4 <__bss_end__+0xeb55fc>
    12d8:	193c1927 	ldmdbne	ip!, {r0, r1, r2, r5, r8, fp, ip}
    12dc:	2e120000 	cdpcs	0, 1, cr0, cr2, cr0, {0}
    12e0:	03193f01 	tsteq	r9, #1, 30
    12e4:	3b0b3a0e 	blcc	2cfb24 <__bss_end__+0x2c115c>
    12e8:	3c19270b 	ldccc	7, cr2, [r9], {11}
    12ec:	00130119 	andseq	r0, r3, r9, lsl r1
    12f0:	00051300 	andeq	r1, r5, r0, lsl #6
    12f4:	00001349 	andeq	r1, r0, r9, asr #6
    12f8:	3f012e14 	svccc	0x00012e14
    12fc:	3a0e0319 	bcc	381f68 <__bss_end__+0x3735a0>
    1300:	270b3b0b 	strcs	r3, [fp, -fp, lsl #22]
    1304:	3c134919 	ldccc	9, cr4, [r3], {25}
    1308:	00130119 	andseq	r0, r3, r9, lsl r1
    130c:	00261500 	eoreq	r1, r6, r0, lsl #10
    1310:	00001349 	andeq	r1, r0, r9, asr #6
    1314:	00003516 	andeq	r3, r0, r6, lsl r5
    1318:	11010000 	mrsne	r0, (UNDEF: 1)
    131c:	130e2501 	movwne	r2, #58625	; 0xe501
    1320:	1b0e030b 	blne	381f54 <__bss_end__+0x37358c>
    1324:	1201110e 	andne	r1, r1, #-2147483645	; 0x80000003
    1328:	00171006 	andseq	r1, r7, r6
    132c:	00240200 	eoreq	r0, r4, r0, lsl #4
    1330:	0b3e0b0b 	bleq	f83f64 <__bss_end__+0xf7559c>
    1334:	00000803 	andeq	r0, r0, r3, lsl #16
    1338:	0b002403 	bleq	a34c <__FUNCTION__.4325+0x10>
    133c:	030b3e0b 	movweq	r3, #48651	; 0xbe0b
    1340:	0400000e 	streq	r0, [r0], #-14
    1344:	0b0b000f 	bleq	2c1388 <__bss_end__+0x2b29c0>
    1348:	00001349 	andeq	r1, r0, r9, asr #6
    134c:	49002605 	stmdbmi	r0, {r0, r2, r9, sl, sp}
    1350:	06000013 			; <UNDEFINED> instruction: 0x06000013
    1354:	13490101 	movtne	r0, #37121	; 0x9101
    1358:	00001301 	andeq	r1, r0, r1, lsl #6
    135c:	49002107 	stmdbmi	r0, {r0, r1, r2, r8, sp}
    1360:	000b2f13 	andeq	r2, fp, r3, lsl pc
    1364:	01040800 	tsteq	r4, r0, lsl #16
    1368:	0b3a0b0b 	bleq	e83f9c <__bss_end__+0xe755d4>
    136c:	13010b3b 	movwne	r0, #6971	; 0x1b3b
    1370:	28090000 	stmdacs	r9, {}	; <UNPREDICTABLE>
    1374:	1c0e0300 	stcne	3, cr0, [lr], {-0}
    1378:	0a00000d 	beq	13b4 <_start-0x6c4c>
    137c:	193f012e 	ldmdbne	pc!, {r1, r2, r3, r5, r8}	; <UNPREDICTABLE>
    1380:	0b3a0e03 	bleq	e84b94 <__bss_end__+0xe761cc>
    1384:	19270b3b 	stmdbne	r7!, {r0, r1, r3, r4, r5, r8, r9, fp}
    1388:	06120111 			; <UNDEFINED> instruction: 0x06120111
    138c:	42971840 	addsmi	r1, r7, #64, 16	; 0x400000
    1390:	00130119 	andseq	r0, r3, r9, lsl r1
    1394:	00340b00 	eorseq	r0, r4, r0, lsl #22
    1398:	0b3a0e03 	bleq	e84bac <__bss_end__+0xe761e4>
    139c:	13490b3b 	movtne	r0, #39739	; 0x9b3b
    13a0:	193c193f 	ldmdbne	ip!, {r0, r1, r2, r3, r4, r5, r8, fp, ip}
    13a4:	340c0000 	strcc	r0, [ip], #-0
    13a8:	3a080300 	bcc	201fb0 <__bss_end__+0x1f35e8>
    13ac:	490b3b0b 	stmdbmi	fp, {r0, r1, r3, r8, r9, fp, ip, sp}
    13b0:	000b1c13 	andeq	r1, fp, r3, lsl ip
    13b4:	00340d00 	eorseq	r0, r4, r0, lsl #26
    13b8:	0b3a0803 	bleq	e833cc <__bss_end__+0xe74a04>
    13bc:	13490b3b 	movtne	r0, #39739	; 0x9b3b
    13c0:	340e0000 	strcc	r0, [lr], #-0
    13c4:	3a080300 	bcc	201fcc <__bss_end__+0x1f3604>
    13c8:	490b3b0b 	stmdbmi	fp, {r0, r1, r3, r8, r9, fp, ip, sp}
    13cc:	00180213 	andseq	r0, r8, r3, lsl r2
    13d0:	010b0f00 	tsteq	fp, r0, lsl #30
    13d4:	06120111 			; <UNDEFINED> instruction: 0x06120111
    13d8:	00001301 	andeq	r1, r0, r1, lsl #6
    13dc:	03003410 	movweq	r3, #1040	; 0x410
    13e0:	3b0b3a08 	blcc	2cfc08 <__bss_end__+0x2c1240>
    13e4:	0213490b 	andseq	r4, r3, #180224	; 0x2c000
    13e8:	11000017 	tstne	r0, r7, lsl r0
    13ec:	01018289 	smlabbeq	r1, r9, r2, r8
    13f0:	13310111 	teqne	r1, #1073741828	; 0x40000004
    13f4:	00001301 	andeq	r1, r0, r1, lsl #6
    13f8:	01828a12 	orreq	r8, r2, r2, lsl sl
    13fc:	91180200 	tstls	r8, r0, lsl #4
    1400:	00001842 	andeq	r1, r0, r2, asr #16
    1404:	01828913 	orreq	r8, r2, r3, lsl r9
    1408:	31011100 	mrscc	r1, (UNDEF: 17)
    140c:	14000013 	strne	r0, [r0], #-19
    1410:	08030005 	stmdaeq	r3, {r0, r2}
    1414:	0b3b0b3a 	bleq	ec4104 <__bss_end__+0xeb573c>
    1418:	17021349 	strne	r1, [r2, -r9, asr #6]
    141c:	34150000 	ldrcc	r0, [r5], #-0
    1420:	490e0300 	stmdbmi	lr, {r8, r9}
    1424:	02193413 	andseq	r3, r9, #318767104	; 0x13000000
    1428:	16000018 			; <UNDEFINED> instruction: 0x16000018
    142c:	193f012e 	ldmdbne	pc!, {r1, r2, r3, r5, r8}	; <UNPREDICTABLE>
    1430:	0b3a0e03 	bleq	e84c44 <__bss_end__+0xe7627c>
    1434:	19270b3b 	stmdbne	r7!, {r0, r1, r3, r4, r5, r8, r9, fp}
    1438:	1301193c 	movwne	r1, #6460	; 0x193c
    143c:	05170000 	ldreq	r0, [r7, #-0]
    1440:	00134900 	andseq	r4, r3, r0, lsl #18
    1444:	002e1800 	eoreq	r1, lr, r0, lsl #16
    1448:	0e03193f 	mcreq	9, 0, r1, cr3, cr15, {1}
    144c:	0b3b0b3a 	bleq	ec413c <__bss_end__+0xeb5774>
    1450:	193c1927 	ldmdbne	ip!, {r0, r1, r2, r5, r8, fp, ip}
    1454:	2e190000 	cdpcs	0, 1, cr0, cr9, cr0, {0}
    1458:	03193f01 	tsteq	r9, #1, 30
    145c:	3b0b3a0e 	blcc	2cfc9c <__bss_end__+0x2c12d4>
    1460:	4919270b 	ldmdbmi	r9, {r0, r1, r3, r8, r9, sl, sp}
    1464:	01193c13 	tsteq	r9, r3, lsl ip
    1468:	1a000013 	bne	14bc <_start-0x6b44>
    146c:	00000018 	andeq	r0, r0, r8, lsl r0
    1470:	01110100 	tsteq	r1, r0, lsl #2
    1474:	0b130e25 	bleq	4c4d10 <__bss_end__+0x4b6348>
    1478:	0e1b0e03 	cdpeq	14, 1, cr0, cr11, cr3, {0}
    147c:	06120111 			; <UNDEFINED> instruction: 0x06120111
    1480:	00001710 	andeq	r1, r0, r0, lsl r7
    1484:	0b002402 	bleq	a494 <__FUNCTION__.4210+0xc>
    1488:	030b3e0b 	movweq	r3, #48651	; 0xbe0b
    148c:	03000008 	movweq	r0, #8
    1490:	0e030016 	mcreq	0, 0, r0, cr3, cr6, {0}
    1494:	0b3b0b3a 	bleq	ec4184 <__bss_end__+0xeb57bc>
    1498:	00001349 	andeq	r1, r0, r9, asr #6
    149c:	0b002404 	bleq	a4b4 <__FUNCTION__.4214+0x14>
    14a0:	030b3e0b 	movweq	r3, #48651	; 0xbe0b
    14a4:	0500000e 	streq	r0, [r0, #-14]
    14a8:	0b0b000f 	bleq	2c14ec <__bss_end__+0x2b2b24>
    14ac:	13060000 	movwne	r0, #24576	; 0x6000
    14b0:	3a0b0b01 	bcc	2c40bc <__bss_end__+0x2b56f4>
    14b4:	010b3b0b 	tsteq	fp, fp, lsl #22
    14b8:	07000013 	smladeq	r0, r3, r0, r0
    14bc:	0803000d 	stmdaeq	r3, {r0, r2, r3}
    14c0:	0b3b0b3a 	bleq	ec41b0 <__bss_end__+0xeb57e8>
    14c4:	0b381349 	bleq	e061f0 <__bss_end__+0xdf7828>
    14c8:	0d080000 	stceq	0, cr0, [r8, #-0]
    14cc:	3a0e0300 	bcc	3820d4 <__bss_end__+0x37370c>
    14d0:	490b3b0b 	stmdbmi	fp, {r0, r1, r3, r8, r9, fp, ip, sp}
    14d4:	000b3813 	andeq	r3, fp, r3, lsl r8
    14d8:	01040900 	tsteq	r4, r0, lsl #18
    14dc:	0b3a0b0b 	bleq	e84110 <__bss_end__+0xe75748>
    14e0:	13010b3b 	movwne	r0, #6971	; 0x1b3b
    14e4:	280a0000 	stmdacs	sl, {}	; <UNPREDICTABLE>
    14e8:	1c0e0300 	stcne	3, cr0, [lr], {-0}
    14ec:	0b00000d 	bleq	1528 <_start-0x6ad8>
    14f0:	193f012e 	ldmdbne	pc!, {r1, r2, r3, r5, r8}	; <UNPREDICTABLE>
    14f4:	0b3a0e03 	bleq	e84d08 <__bss_end__+0xe76340>
    14f8:	19270b3b 	stmdbne	r7!, {r0, r1, r3, r4, r5, r8, r9, fp}
    14fc:	01111349 	tsteq	r1, r9, asr #6
    1500:	18400612 	stmdane	r0, {r1, r4, r9, sl}^
    1504:	01194297 			; <UNDEFINED> instruction: 0x01194297
    1508:	0c000013 	stceq	0, cr0, [r0], {19}
    150c:	08030034 	stmdaeq	r3, {r2, r4, r5}
    1510:	0b3b0b3a 	bleq	ec4200 <__bss_end__+0xeb5838>
    1514:	061c1349 	ldreq	r1, [ip], -r9, asr #6
    1518:	890d0000 	stmdbhi	sp, {}	; <UNPREDICTABLE>
    151c:	11010182 	smlabbne	r1, r2, r1, r0
    1520:	00133101 	andseq	r3, r3, r1, lsl #2
    1524:	828a0e00 	addhi	r0, sl, #0, 28
    1528:	18020001 	stmdane	r2, {r0}
    152c:	00184291 	mulseq	r8, r1, r2
    1530:	000f0f00 	andeq	r0, pc, r0, lsl #30
    1534:	13490b0b 	movtne	r0, #39691	; 0x9b0b
    1538:	2e100000 	cdpcs	0, 1, cr0, cr0, cr0, {0}
    153c:	03193f01 	tsteq	r9, #1, 30
    1540:	3b0b3a0e 	blcc	2cfd80 <__bss_end__+0x2c13b8>
    1544:	4919270b 	ldmdbmi	r9, {r0, r1, r3, r8, r9, sl, sp}
    1548:	00193c13 	andseq	r3, r9, r3, lsl ip
    154c:	00051100 	andeq	r1, r5, r0, lsl #2
    1550:	00001349 	andeq	r1, r0, r9, asr #6
	...

Disassembly of section .debug_loc:

00000000 <.debug_loc>:
       0:	00000000 	andeq	r0, r0, r0
       4:	00000017 	andeq	r0, r0, r7, lsl r0
       8:	17500001 	ldrbne	r0, [r0, -r1]
       c:	b4000000 	strlt	r0, [r0], #-0
      10:	01000001 	tsteq	r0, r1
      14:	00005400 	andeq	r5, r0, r0, lsl #8
	...
      20:	00100000 	andseq	r0, r0, r0
      24:	00010000 	andeq	r0, r1, r0
      28:	00001051 	andeq	r1, r0, r1, asr r0
      2c:	00004c00 	andeq	r4, r0, r0, lsl #24
      30:	55000100 	strpl	r0, [r0, #-256]	; 0x100
      34:	0000004c 	andeq	r0, r0, ip, asr #32
      38:	000001b4 			; <UNDEFINED> instruction: 0x000001b4
      3c:	01f30004 	mvnseq	r0, r4
      40:	00009f51 	andeq	r9, r0, r1, asr pc
      44:	00000000 	andeq	r0, r0, r0
      48:	00f80000 	rscseq	r0, r8, r0
      4c:	01200000 	teqeq	r0, r0
      50:	00020000 	andeq	r0, r2, r0
      54:	01209f42 	teqeq	r0, r2, asr #30
      58:	01380000 	teqeq	r8, r0
      5c:	00010000 	andeq	r0, r1, r0
      60:	00013851 	andeq	r3, r1, r1, asr r8
      64:	00014000 	andeq	r4, r1, r0
      68:	42000200 	andmi	r0, r0, #0, 4
      6c:	0001409f 	muleq	r1, pc, r0	; <UNPREDICTABLE>
      70:	00016b00 	andeq	r6, r1, r0, lsl #22
      74:	51000100 	mrspl	r0, (UNDEF: 16)
	...
      80:	00000118 	andeq	r0, r0, r8, lsl r1
      84:	00000124 	andeq	r0, r0, r4, lsr #2
      88:	24520001 	ldrbcs	r0, [r2], #-1
      8c:	28000001 	stmdacs	r0, {r0}
      90:	03000001 	movweq	r0, #1
      94:	9f7f7200 	svcls	0x007f7200
	...
      a0:	000001c0 	andeq	r0, r0, r0, asr #3
      a4:	000001cc 	andeq	r0, r0, ip, asr #3
      a8:	d0500001 	subsle	r0, r0, r1
      ac:	d4000001 	strle	r0, [r0], #-1
      b0:	01000001 	tsteq	r0, r1
      b4:	00005000 	andeq	r5, r0, r0
      b8:	00000000 	andeq	r0, r0, r0
      bc:	02d80000 	sbcseq	r0, r8, #0
      c0:	02e30000 	rsceq	r0, r3, #0
      c4:	00010000 	andeq	r0, r1, r0
      c8:	0002e350 	andeq	lr, r2, r0, asr r3
      cc:	00030800 	andeq	r0, r3, r0, lsl #16
      d0:	54000100 	strpl	r0, [r0], #-256	; 0x100
      d4:	00000308 	andeq	r0, r0, r8, lsl #6
      d8:	0000032c 	andeq	r0, r0, ip, lsr #6
      dc:	01f30004 	mvnseq	r0, r4
      e0:	00009f50 	andeq	r9, r0, r0, asr pc
      e4:	00000000 	andeq	r0, r0, r0
      e8:	02ec0000 	rsceq	r0, ip, #0
      ec:	02f00000 	rscseq	r0, r0, #0
      f0:	00010000 	andeq	r0, r1, r0
      f4:	0002f050 	andeq	pc, r2, r0, asr r0	; <UNPREDICTABLE>
      f8:	0002ff00 	andeq	pc, r2, r0, lsl #30
      fc:	51000100 	mrspl	r0, (UNDEF: 16)
     100:	00000304 	andeq	r0, r0, r4, lsl #6
     104:	00000310 	andeq	r0, r0, r0, lsl r3
     108:	00510001 	subseq	r0, r1, r1
     10c:	00000000 	andeq	r0, r0, r0
     110:	2c000000 	stccs	0, cr0, [r0], {-0}
     114:	37000003 	strcc	r0, [r0, -r3]
     118:	01000003 	tsteq	r0, r3
     11c:	03375000 	teqeq	r7, #0
     120:	040c0000 	streq	r0, [ip], #-0
     124:	00040000 	andeq	r0, r4, r0
     128:	9f5001f3 	svcls	0x005001f3
	...
     134:	000003a0 	andeq	r0, r0, r0, lsr #7
     138:	000003d0 	ldrdeq	r0, [r0], -r0	; <UNPREDICTABLE>
     13c:	d4560001 	ldrble	r0, [r6], #-1
     140:	f8000003 			; <UNDEFINED> instruction: 0xf8000003
     144:	01000003 	tsteq	r0, r3
     148:	00005600 	andeq	r5, r0, r0, lsl #12
     14c:	00000000 	andeq	r0, r0, r0
     150:	03380000 	teqeq	r8, #0
     154:	038c0000 	orreq	r0, ip, #0
     158:	00010000 	andeq	r0, r1, r0
     15c:	00000054 	andeq	r0, r0, r4, asr r0
     160:	00000000 	andeq	r0, r0, r0
     164:	00034400 	andeq	r4, r3, r0, lsl #8
     168:	00037000 	andeq	r7, r3, r0
     16c:	51000100 	mrspl	r0, (UNDEF: 16)
     170:	00000370 	andeq	r0, r0, r0, ror r3
     174:	00000387 	andeq	r0, r0, r7, lsl #7
     178:	84030005 	strhi	r0, [r3], #-5
     17c:	000000e5 	andeq	r0, r0, r5, ror #1
     180:	00000000 	andeq	r0, r0, r0
     184:	a0000000 	andge	r0, r0, r0
     188:	a8000003 	stmdage	r0, {r0, r1}
     18c:	06000003 	streq	r0, [r0], -r3
     190:	078ef200 	streq	pc, [lr, r0, lsl #4]
     194:	b4000000 	strlt	r0, [r0], #-0
     198:	f8000003 			; <UNDEFINED> instruction: 0xf8000003
     19c:	06000003 	streq	r0, [r0], -r3
     1a0:	078ef200 	streq	pc, [lr, r0, lsl #4]
	...
     1ac:	a0000000 	andge	r0, r0, r0
     1b0:	a8000003 	stmdage	r0, {r0, r1}
     1b4:	06000003 	streq	r0, [r0], -r3
     1b8:	c5800300 	strgt	r0, [r0, #768]	; 0x300
     1bc:	b49f0000 	ldrlt	r0, [pc], #0	; 1c4 <_start-0x7e3c>
     1c0:	f8000003 			; <UNDEFINED> instruction: 0xf8000003
     1c4:	06000003 	streq	r0, [r0], -r3
     1c8:	c5800300 	strgt	r0, [r0, #768]	; 0x300
     1cc:	009f0000 	addseq	r0, pc, r0
     1d0:	00000000 	andeq	r0, r0, r0
     1d4:	c8000000 	stmdagt	r0, {}	; <UNPREDICTABLE>
     1d8:	d8000003 	stmdale	r0, {r0, r1}
     1dc:	01000003 	tsteq	r0, r3
     1e0:	03d85300 	bicseq	r5, r8, #0, 6
     1e4:	03e40000 	mvneq	r0, #0
     1e8:	00050000 	andeq	r0, r5, r0
     1ec:	00e58803 	rsceq	r8, r5, r3, lsl #16
	...
     1f8:	00040c00 	andeq	r0, r4, r0, lsl #24
     1fc:	00041400 	andeq	r1, r4, r0, lsl #8
     200:	50000100 	andpl	r0, r0, r0, lsl #2
     204:	00000414 	andeq	r0, r0, r4, lsl r4
     208:	0000055c 	andeq	r0, r0, ip, asr r5
     20c:	01f30004 	mvnseq	r0, r4
     210:	00009f50 	andeq	r9, r0, r0, asr pc
     214:	00000000 	andeq	r0, r0, r0
     218:	04180000 	ldreq	r0, [r8], #-0
     21c:	04240000 	strteq	r0, [r4], #-0
     220:	00010000 	andeq	r0, r1, r0
     224:	00046050 	andeq	r6, r4, r0, asr r0
     228:	00046c00 	andeq	r6, r4, r0, lsl #24
     22c:	50000100 	andpl	r0, r0, r0, lsl #2
     230:	00000494 	muleq	r0, r4, r4
     234:	000004a0 	andeq	r0, r0, r0, lsr #9
     238:	ac500001 	mrrcge	0, 0, r0, r0, cr1	; <UNPREDICTABLE>
     23c:	c4000004 	strgt	r0, [r0], #-4
     240:	01000004 	tsteq	r0, r4
     244:	00005000 	andeq	r5, r0, r0
     248:	00000000 	andeq	r0, r0, r0
     24c:	04280000 	strteq	r0, [r8], #-0
     250:	042c0000 	strteq	r0, [ip], #-0
     254:	00010000 	andeq	r0, r1, r0
     258:	00000050 	andeq	r0, r0, r0, asr r0
     25c:	00000000 	andeq	r0, r0, r0
     260:	00042c00 	andeq	r2, r4, r0, lsl #24
     264:	00046000 	andeq	r6, r4, r0
     268:	50000100 	andpl	r0, r0, r0, lsl #2
	...
     274:	0000042c 	andeq	r0, r0, ip, lsr #8
     278:	00000460 	andeq	r0, r0, r0, ror #8
     27c:	6c030006 	stcvs	0, cr0, [r3], {6}
     280:	9f0000a5 	svcls	0x000000a5
	...
     28c:	00000430 	andeq	r0, r0, r0, lsr r4
     290:	00000460 	andeq	r0, r0, r0, ror #8
     294:	00510001 	subseq	r0, r1, r1
     298:	00000000 	andeq	r0, r0, r0
     29c:	30000000 	andcc	r0, r0, r0
     2a0:	60000004 	andvs	r0, r0, r4
     2a4:	06000004 	streq	r0, [r0], -r4
     2a8:	a56c0300 	strbge	r0, [ip, #-768]!	; 0x300
     2ac:	009f0000 	addseq	r0, pc, r0
     2b0:	00000000 	andeq	r0, r0, r0
     2b4:	24000000 	strcs	r0, [r0], #-0
     2b8:	60000004 	andvs	r0, r0, r4
     2bc:	06000004 	streq	r0, [r0], -r4
     2c0:	a56c0300 	strbge	r0, [ip, #-768]!	; 0x300
     2c4:	6c9f0000 	ldcvs	0, cr0, [pc], {0}
     2c8:	94000004 	strls	r0, [r0], #-4
     2cc:	06000004 	streq	r0, [r0], -r4
     2d0:	a56c0300 	strbge	r0, [ip, #-768]!	; 0x300
     2d4:	009f0000 	addseq	r0, pc, r0
     2d8:	00000000 	andeq	r0, r0, r0
     2dc:	a0000000 	andge	r0, r0, r0
     2e0:	ac000004 	stcge	0, cr0, [r0], {4}
     2e4:	06000004 	streq	r0, [r0], -r4
     2e8:	e5940300 	ldr	r0, [r4, #768]	; 0x300
     2ec:	d09f0000 	addsle	r0, pc, r0
     2f0:	14000004 	strne	r0, [r0], #-4
     2f4:	06000005 	streq	r0, [r0], -r5
     2f8:	e5940300 	ldr	r0, [r4, #768]	; 0x300
     2fc:	009f0000 	addseq	r0, pc, r0
     300:	00000000 	andeq	r0, r0, r0
     304:	a0000000 	andge	r0, r0, r0
     308:	ac000004 	stcge	0, cr0, [r0], {4}
     30c:	06000004 	streq	r0, [r0], -r4
     310:	c5800300 	strgt	r0, [r0, #768]	; 0x300
     314:	d09f0000 	addsle	r0, pc, r0
     318:	14000004 	strne	r0, [r0], #-4
     31c:	06000005 	streq	r0, [r0], -r5
     320:	c5800300 	strgt	r0, [r0, #768]	; 0x300
     324:	009f0000 	addseq	r0, pc, r0
     328:	00000000 	andeq	r0, r0, r0
     32c:	e4000000 	str	r0, [r0], #-0
     330:	f4000004 	vst4.8	{d0-d3}, [r0], r4
     334:	01000004 	tsteq	r0, r4
     338:	04f45300 	ldrbteq	r5, [r4], #768	; 0x300
     33c:	05000000 	streq	r0, [r0, #-0]
     340:	00050000 	andeq	r0, r5, r0
     344:	00e58803 	rsceq	r8, r5, r3, lsl #16
	...
     350:	00055c00 	andeq	r5, r5, r0, lsl #24
     354:	0005a400 	andeq	sl, r5, r0, lsl #8
     358:	09000300 	stmdbeq	r0, {r8, r9}
     35c:	05a49f82 	streq	r9, [r4, #3970]!	; 0xf82
     360:	05b80000 	ldreq	r0, [r8, #0]!
     364:	00010000 	andeq	r0, r1, r0
     368:	0005b850 	andeq	fp, r5, r0, asr r8
     36c:	0005c400 	andeq	ip, r5, r0, lsl #8
     370:	09000300 	stmdbeq	r0, {r8, r9}
     374:	05c49f82 	strbeq	r9, [r4, #3970]	; 0xf82
     378:	05d40000 	ldrbeq	r0, [r4]
     37c:	00010000 	andeq	r0, r1, r0
     380:	00000050 	andeq	r0, r0, r0, asr r0
     384:	00000000 	andeq	r0, r0, r0
     388:	00057800 	andeq	r7, r5, r0, lsl #16
     38c:	0005b800 	andeq	fp, r5, r0, lsl #16
     390:	f2000600 	vmax.s8	d0, d0, d0
     394:	00000a15 	andeq	r0, r0, r5, lsl sl
     398:	0005c000 	andeq	ip, r5, r0
     39c:	0005d400 	andeq	sp, r5, r0, lsl #8
     3a0:	f2000600 	vmax.s8	d0, d0, d0
     3a4:	00000a15 	andeq	r0, r0, r5, lsl sl
	...
     3b0:	00057800 	andeq	r7, r5, r0, lsl #16
     3b4:	0005b800 	andeq	fp, r5, r0, lsl #16
     3b8:	03000600 	movweq	r0, #1536	; 0x600
     3bc:	0000a56c 	andeq	sl, r0, ip, ror #10
     3c0:	0005c09f 	muleq	r5, pc, r0	; <UNPREDICTABLE>
     3c4:	0005d400 	andeq	sp, r5, r0, lsl #8
     3c8:	03000600 	movweq	r0, #1536	; 0x600
     3cc:	0000a56c 	andeq	sl, r0, ip, ror #10
     3d0:	0000009f 	muleq	r0, pc, r0	; <UNPREDICTABLE>
     3d4:	00000000 	andeq	r0, r0, r0
     3d8:	00059c00 	andeq	r9, r5, r0, lsl #24
     3dc:	0005a800 	andeq	sl, r5, r0, lsl #16
     3e0:	51000100 	mrspl	r0, (UNDEF: 16)
     3e4:	000005a8 	andeq	r0, r0, r8, lsr #11
     3e8:	000005b8 			; <UNDEFINED> instruction: 0x000005b8
     3ec:	74030005 	strvc	r0, [r3], #-5
     3f0:	000000c5 	andeq	r0, r0, r5, asr #1
     3f4:	00000000 	andeq	r0, r0, r0
     3f8:	30000000 	andcc	r0, r0, r0
     3fc:	33000007 	movwcc	r0, #7
     400:	01000007 	tsteq	r0, r7
     404:	07335000 	ldreq	r5, [r3, -r0]!
     408:	07700000 	ldrbeq	r0, [r0, -r0]!
     40c:	00010000 	andeq	r0, r1, r0
     410:	00000054 	andeq	r0, r0, r4, asr r0
	...
     41c:	00000400 	andeq	r0, r0, r0, lsl #8
     420:	52000100 	andpl	r0, r0, #0, 2
     424:	00000004 	andeq	r0, r0, r4
     428:	00000020 	andeq	r0, r0, r0, lsr #32
     42c:	01f30004 	mvnseq	r0, r4
     430:	00009f52 	andeq	r9, r0, r2, asr pc
	...
     43c:	000c0000 	andeq	r0, ip, r0
     440:	00010000 	andeq	r0, r1, r0
     444:	00000c50 	andeq	r0, r0, r0, asr ip
     448:	00001400 	andeq	r1, r0, r0, lsl #8
     44c:	73000300 	movwvc	r0, #768	; 0x300
     450:	00149f01 	andseq	r9, r4, r1, lsl #30
     454:	00200000 	eoreq	r0, r0, r0
     458:	00010000 	andeq	r0, r1, r0
     45c:	00000053 	andeq	r0, r0, r3, asr r0
     460:	00000000 	andeq	r0, r0, r0
     464:	00002c00 	andeq	r2, r0, r0, lsl #24
     468:	00003800 	andeq	r3, r0, r0, lsl #16
     46c:	50000100 	andpl	r0, r0, r0, lsl #2
     470:	00000038 	andeq	r0, r0, r8, lsr r0
     474:	00000048 	andeq	r0, r0, r8, asr #32
     478:	48550001 	ldmdami	r5, {r0}^
     47c:	58000000 	stmdapl	r0, {}	; <UNPREDICTABLE>
     480:	01000000 	mrseq	r0, (UNDEF: 0)
     484:	00005000 	andeq	r5, r0, r0
	...
     490:	000b0000 	andeq	r0, fp, r0
     494:	00010000 	andeq	r0, r1, r0
     498:	00000b50 	andeq	r0, r0, r0, asr fp
     49c:	00001400 	andeq	r1, r0, r0, lsl #8
     4a0:	54000100 	strpl	r0, [r0], #-256	; 0x100
	...
     4b0:	00000010 	andeq	r0, r0, r0, lsl r0
     4b4:	10500001 	subsne	r0, r0, r1
     4b8:	34000000 	strcc	r0, [r0], #-0
     4bc:	01000000 	mrseq	r0, (UNDEF: 0)
     4c0:	00005400 	andeq	r5, r0, r0, lsl #8
	...
     4cc:	00040000 	andeq	r0, r4, r0
     4d0:	00010000 	andeq	r0, r1, r0
     4d4:	00000450 	andeq	r0, r0, r0, asr r4
     4d8:	00000c00 	andeq	r0, r0, r0, lsl #24
     4dc:	70000300 	andvc	r0, r0, r0, lsl #6
     4e0:	000c9f30 	andeq	r9, ip, r0, lsr pc
     4e4:	00140000 	andseq	r0, r4, r0
     4e8:	00040000 	andeq	r0, r4, r0
     4ec:	9f5001f3 	svcls	0x005001f3
	...
     4f8:	00000014 	andeq	r0, r0, r4, lsl r0
     4fc:	00000020 	andeq	r0, r0, r0, lsr #32
     500:	20500001 	subscs	r0, r0, r1
     504:	2c000000 	stccs	0, cr0, [r0], {-0}
     508:	03000000 	movweq	r0, #0
     50c:	9f017000 	svcls	0x00017000
     510:	0000002c 	andeq	r0, r0, ip, lsr #32
     514:	00000040 	andeq	r0, r0, r0, asr #32
     518:	00500001 	subseq	r0, r0, r1
     51c:	00000000 	andeq	r0, r0, r0
     520:	14000000 	strne	r0, [r0], #-0
     524:	18000000 	stmdane	r0, {}	; <UNPREDICTABLE>
     528:	01000000 	mrseq	r0, (UNDEF: 0)
     52c:	00185100 	andseq	r5, r8, r0, lsl #2
     530:	00400000 	subeq	r0, r0, r0
     534:	00040000 	andeq	r0, r4, r0
     538:	9f5101f3 	svcls	0x005101f3
	...
     544:	00000040 	andeq	r0, r0, r0, asr #32
     548:	00000060 	andeq	r0, r0, r0, rrx
     54c:	60500001 	subsvs	r0, r0, r1
     550:	6c000000 	stcvs	0, cr0, [r0], {-0}
     554:	03000000 	movweq	r0, #0
     558:	9f017100 	svcls	0x00017100
     55c:	0000006c 	andeq	r0, r0, ip, rrx
     560:	00000074 	andeq	r0, r0, r4, ror r0
     564:	74510001 	ldrbvc	r0, [r1], #-1
     568:	80000000 	andhi	r0, r0, r0
     56c:	03000000 	movweq	r0, #0
     570:	9f017100 	svcls	0x00017100
	...
     57c:	00000040 	andeq	r0, r0, r0, asr #32
     580:	00000050 	andeq	r0, r0, r0, asr r0
     584:	50510001 	subspl	r0, r1, r1
     588:	80000000 	andhi	r0, r0, r0
     58c:	04000000 	streq	r0, [r0], #-0
     590:	5101f300 	mrspl	pc, SP_irq	; <UNPREDICTABLE>
     594:	0000009f 	muleq	r0, pc, r0	; <UNPREDICTABLE>
     598:	00000000 	andeq	r0, r0, r0
     59c:	00004000 	andeq	r4, r0, r0
     5a0:	00005800 	andeq	r5, r0, r0, lsl #16
     5a4:	52000100 	andpl	r0, r0, #0, 2
     5a8:	00000058 	andeq	r0, r0, r8, asr r0
     5ac:	00000064 	andeq	r0, r0, r4, rrx
     5b0:	64520001 	ldrbvs	r0, [r2], #-1
     5b4:	68000000 	stmdavs	r0, {}	; <UNPREDICTABLE>
     5b8:	03000000 	movweq	r0, #0
     5bc:	9f017200 	svcls	0x00017200
     5c0:	00000068 	andeq	r0, r0, r8, rrx
     5c4:	00000080 	andeq	r0, r0, r0, lsl #1
     5c8:	00520001 	subseq	r0, r2, r1
     5cc:	00000000 	andeq	r0, r0, r0
     5d0:	40000000 	andmi	r0, r0, r0
     5d4:	54000000 	strpl	r0, [r0], #-0
     5d8:	01000000 	mrseq	r0, (UNDEF: 0)
     5dc:	00545300 	subseq	r5, r4, r0, lsl #6
     5e0:	00780000 	rsbseq	r0, r8, r0
     5e4:	00010000 	andeq	r0, r1, r0
     5e8:	00000053 	andeq	r0, r0, r3, asr r0
     5ec:	00000000 	andeq	r0, r0, r0
     5f0:	00004800 	andeq	r4, r0, r0, lsl #16
     5f4:	00006000 	andeq	r6, r0, r0
     5f8:	5c000100 	stfpls	f0, [r0], {-0}
     5fc:	00000060 	andeq	r0, r0, r0, rrx
     600:	00000080 	andeq	r0, r0, r0, lsl #1
     604:	01f3000a 	mvnseq	r0, sl
     608:	5301f352 	movwpl	pc, #4946	; 0x1352	; <UNPREDICTABLE>
     60c:	9f01231c 	svcls	0x0001231c
	...
     618:	00000080 	andeq	r0, r0, r0, lsl #1
     61c:	000000a4 	andeq	r0, r0, r4, lsr #1
     620:	a4500001 	ldrbge	r0, [r0], #-1
     624:	18000000 	stmdane	r0, {}	; <UNPREDICTABLE>
     628:	03000001 	movweq	r0, #1
     62c:	9f027000 	svcls	0x00027000
     630:	00000118 	andeq	r0, r0, r8, lsl r1
     634:	0000021c 	andeq	r0, r0, ip, lsl r2
     638:	01f30004 	mvnseq	r0, r4
     63c:	00009f50 	andeq	r9, r0, r0, asr pc
     640:	00000000 	andeq	r0, r0, r0
     644:	00800000 	addeq	r0, r0, r0
     648:	00f00000 	rscseq	r0, r0, r0
     64c:	00010000 	andeq	r0, r1, r0
     650:	0000f051 	andeq	pc, r0, r1, asr r0	; <UNPREDICTABLE>
     654:	00016000 	andeq	r6, r1, r0
     658:	55000100 	strpl	r0, [r0, #-256]	; 0x100
     65c:	00000160 	andeq	r0, r0, r0, ror #2
     660:	00000168 	andeq	r0, r0, r8, ror #2
     664:	68510001 	ldmdavs	r1, {r0}^
     668:	88000001 	stmdahi	r0, {r0}
     66c:	01000001 	tsteq	r0, r1
     670:	01885500 	orreq	r5, r8, r0, lsl #10
     674:	019c0000 	orrseq	r0, ip, r0
     678:	00010000 	andeq	r0, r1, r0
     67c:	00019c51 	andeq	r9, r1, r1, asr ip
     680:	0001bc00 	andeq	fp, r1, r0, lsl #24
     684:	55000100 	strpl	r0, [r0, #-256]	; 0x100
     688:	000001bc 			; <UNDEFINED> instruction: 0x000001bc
     68c:	000001bf 			; <UNDEFINED> instruction: 0x000001bf
     690:	bf510001 	svclt	0x00510001
     694:	00000001 	andeq	r0, r0, r1
     698:	01000002 	tsteq	r0, r2
     69c:	02005500 	andeq	r5, r0, #0, 10
     6a0:	021c0000 	andseq	r0, ip, #0
     6a4:	00040000 	andeq	r0, r4, r0
     6a8:	9f5101f3 	svcls	0x005101f3
	...
     6b4:	00000080 	andeq	r0, r0, r0, lsl #1
     6b8:	00000094 	muleq	r0, r4, r0
     6bc:	94520001 	ldrbls	r0, [r2], #-1
     6c0:	00000000 	andeq	r0, r0, r0
     6c4:	01000002 	tsteq	r0, r2
     6c8:	02005400 	andeq	r5, r0, #0, 8
     6cc:	021c0000 	andseq	r0, ip, #0
     6d0:	00040000 	andeq	r0, r4, r0
     6d4:	9f5201f3 	svcls	0x005201f3
	...
     6e0:	00000080 	andeq	r0, r0, r0, lsl #1
     6e4:	00000100 	andeq	r0, r0, r0, lsl #2
     6e8:	04530001 	ldrbeq	r0, [r3], #-1
     6ec:	08000001 	stmdaeq	r0, {r0}
     6f0:	01000001 	tsteq	r0, r1
     6f4:	01605300 	cmneq	r0, r0, lsl #6
     6f8:	01680000 	cmneq	r8, r0
     6fc:	00010000 	andeq	r0, r1, r0
     700:	00016853 	andeq	r6, r1, r3, asr r8
     704:	00018800 	andeq	r8, r1, r0, lsl #16
     708:	f3000400 	vshl.u8	d0, d0, d0
     70c:	889f5301 	ldmhi	pc, {r0, r8, r9, ip, lr}	; <UNPREDICTABLE>
     710:	90000001 	andls	r0, r0, r1
     714:	01000001 	tsteq	r0, r1
     718:	01905300 	orrseq	r5, r0, r0, lsl #6
     71c:	01940000 	orrseq	r0, r4, r0
     720:	00010000 	andeq	r0, r1, r0
     724:	0001945c 	andeq	r9, r1, ip, asr r4
     728:	00019c00 	andeq	r9, r1, r0, lsl #24
     72c:	53000100 	movwpl	r0, #256	; 0x100
     730:	0000019c 	muleq	r0, ip, r1
     734:	000001bc 			; <UNDEFINED> instruction: 0x000001bc
     738:	01f30004 	mvnseq	r0, r4
     73c:	01bc9f53 			; <UNDEFINED> instruction: 0x01bc9f53
     740:	01bf0000 			; <UNDEFINED> instruction: 0x01bf0000
     744:	00010000 	andeq	r0, r1, r0
     748:	0001bf53 	andeq	fp, r1, r3, asr pc
     74c:	0001d800 	andeq	sp, r1, r0, lsl #16
     750:	f3000400 	vshl.u8	d0, d0, d0
     754:	009f5301 	addseq	r5, pc, r1, lsl #6
     758:	00000000 	andeq	r0, r0, r0
     75c:	80000000 	andhi	r0, r0, r0
     760:	9c000000 	stcls	0, cr0, [r0], {-0}
     764:	02000000 	andeq	r0, r0, #0
     768:	9c009100 	stflsd	f1, [r0], {-0}
     76c:	bf000000 	svclt	0x00000000
     770:	01000001 	tsteq	r0, r1
     774:	01d85200 	bicseq	r5, r8, r0, lsl #4
     778:	01e30000 	mvneq	r0, r0
     77c:	00010000 	andeq	r0, r1, r0
     780:	00000052 	andeq	r0, r0, r2, asr r0
     784:	00000000 	andeq	r0, r0, r0
     788:	00009c00 	andeq	r9, r0, r0, lsl #24
     78c:	00011800 	andeq	r1, r1, r0, lsl #16
     790:	5d000100 	stfpls	f0, [r0, #-0]
     794:	00000118 	andeq	r0, r0, r8, lsl r1
     798:	0000011c 	andeq	r0, r0, ip, lsl r1
     79c:	1c530001 	mrrcne	0, 0, r0, r3, cr1
     7a0:	20000001 	andcs	r0, r0, r1
     7a4:	01000001 	tsteq	r0, r1
     7a8:	01205100 	teqeq	r0, r0, lsl #2
     7ac:	01600000 	cmneq	r0, r0
     7b0:	00010000 	andeq	r0, r1, r0
     7b4:	00016053 	andeq	r6, r1, r3, asr r0
     7b8:	00016800 	andeq	r6, r1, r0, lsl #16
     7bc:	5d000100 	stfpls	f0, [r0, #-0]
     7c0:	00000168 	andeq	r0, r0, r8, ror #2
     7c4:	0000016c 	andeq	r0, r0, ip, ror #2
     7c8:	6c5e0001 	mrrcvs	0, 0, r0, lr, cr1
     7cc:	88000001 	stmdahi	r0, {r0}
     7d0:	01000001 	tsteq	r0, r1
     7d4:	01885300 	orreq	r5, r8, r0, lsl #6
     7d8:	01900000 	orrseq	r0, r0, r0
     7dc:	00040000 	andeq	r0, r4, r0
     7e0:	9f7fa191 	svcls	0x007fa191
     7e4:	00000190 	muleq	r0, r0, r1
     7e8:	00000194 	muleq	r0, r4, r1
     7ec:	94530001 	ldrbls	r0, [r3], #-1
     7f0:	9c000001 	stcls	0, cr0, [r0], {1}
     7f4:	01000001 	tsteq	r0, r1
     7f8:	019c5d00 	orrseq	r5, ip, r0, lsl #26
     7fc:	01a00000 	moveq	r0, r0
     800:	00010000 	andeq	r0, r1, r0
     804:	0001a05e 	andeq	sl, r1, lr, asr r0
     808:	0001bc00 	andeq	fp, r1, r0, lsl #24
     80c:	53000100 	movwpl	r0, #256	; 0x100
     810:	000001bc 			; <UNDEFINED> instruction: 0x000001bc
     814:	000001d8 	ldrdeq	r0, [r0], -r8
     818:	d85d0001 	ldmdale	sp, {r0}^
     81c:	e3000001 	movw	r0, #1
     820:	01000001 	tsteq	r0, r1
     824:	00005300 	andeq	r5, r0, r0, lsl #6
     828:	00000000 	andeq	r0, r0, r0
     82c:	00a00000 	adceq	r0, r0, r0
     830:	00ec0000 	rsceq	r0, ip, r0
     834:	00010000 	andeq	r0, r1, r0
     838:	0000ec5c 	andeq	lr, r0, ip, asr ip
     83c:	00010000 	andeq	r0, r1, r0
     840:	53000100 	movwpl	r0, #256	; 0x100
     844:	00000100 	andeq	r0, r0, r0, lsl #2
     848:	00000104 	andeq	r0, r0, r4, lsl #2
     84c:	045c0001 	ldrbeq	r0, [ip], #-1
     850:	08000001 	stmdaeq	r0, {r0}
     854:	01000001 	tsteq	r0, r1
     858:	01085300 	mrseq	r5, (UNDEF: 56)
     85c:	01180000 	tsteq	r8, r0
     860:	00010000 	andeq	r0, r1, r0
     864:	0001185c 	andeq	r1, r1, ip, asr r8
     868:	00011c00 	andeq	r1, r1, r0, lsl #24
     86c:	50000100 	andpl	r0, r0, r0, lsl #2
     870:	0000011c 	andeq	r0, r0, ip, lsl r1
     874:	0000013c 	andeq	r0, r0, ip, lsr r1
     878:	445c0001 	ldrbmi	r0, [ip], #-1
     87c:	58000001 	stmdapl	r0, {r0}
     880:	01000001 	tsteq	r0, r1
     884:	01585000 	cmpeq	r8, r0
     888:	01600000 	cmneq	r0, r0
     88c:	00010000 	andeq	r0, r1, r0
     890:	0001605c 	andeq	r6, r1, ip, asr r0
     894:	00016800 	andeq	r6, r1, r0, lsl #16
     898:	53000100 	movwpl	r0, #256	; 0x100
     89c:	00000168 	andeq	r0, r0, r8, ror #2
     8a0:	00000178 	andeq	r0, r0, r8, ror r1
     8a4:	785c0001 	ldmdavc	ip, {r0}^
     8a8:	80000001 	andhi	r0, r0, r1
     8ac:	05000001 	streq	r0, [r0, #-1]
     8b0:	34007c00 	strcc	r7, [r0], #-3072	; 0xc00
     8b4:	01809f25 	orreq	r9, r0, r5, lsr #30
     8b8:	01880000 	orreq	r0, r8, r0
     8bc:	00010000 	andeq	r0, r1, r0
     8c0:	0001885c 	andeq	r8, r1, ip, asr r8
     8c4:	00019000 	andeq	r9, r1, r0
     8c8:	53000100 	movwpl	r0, #256	; 0x100
     8cc:	00000190 	muleq	r0, r0, r1
     8d0:	00000194 	muleq	r0, r4, r1
     8d4:	945c0001 	ldrbls	r0, [ip], #-1
     8d8:	9c000001 	stcls	0, cr0, [r0], {1}
     8dc:	01000001 	tsteq	r0, r1
     8e0:	019c5300 	orrseq	r5, ip, r0, lsl #6
     8e4:	01ac0000 			; <UNDEFINED> instruction: 0x01ac0000
     8e8:	00010000 	andeq	r0, r1, r0
     8ec:	0001ac5c 	andeq	sl, r1, ip, asr ip
     8f0:	0001b400 	andeq	fp, r1, r0, lsl #8
     8f4:	7c000500 	cfstr32vc	mvfx0, [r0], {-0}
     8f8:	9f253100 	svcls	0x00253100
     8fc:	000001b4 			; <UNDEFINED> instruction: 0x000001b4
     900:	000001bc 			; <UNDEFINED> instruction: 0x000001bc
     904:	bc5c0001 	mrrclt	0, 0, r0, ip, cr1
     908:	bf000001 	svclt	0x00000001
     90c:	01000001 	tsteq	r0, r1
     910:	01bf5300 			; <UNDEFINED> instruction: 0x01bf5300
     914:	01d80000 	bicseq	r0, r8, r0
     918:	00040000 	andeq	r0, r4, r0
     91c:	9f5301f3 	svcls	0x005301f3
     920:	000001d8 	ldrdeq	r0, [r0], -r8
     924:	000001e3 	andeq	r0, r0, r3, ror #3
     928:	005c0001 	subseq	r0, ip, r1
     92c:	00000000 	andeq	r0, r0, r0
     930:	ec000000 	stc	0, cr0, [r0], {-0}
     934:	fc000000 	stc2	0, cr0, [r0], {-0}
     938:	02000000 	andeq	r0, r0, #0
     93c:	fc9f3000 	ldc2	0, cr3, [pc], {0}
     940:	04000000 	streq	r0, [r0], #-0
     944:	02000001 	andeq	r0, r0, #1
     948:	049f3100 	ldreq	r3, [pc], #256	; 950 <_start-0x76b0>
     94c:	08000001 	stmdaeq	r0, {r0}
     950:	02000001 	andeq	r0, r0, #1
     954:	009f3000 	addseq	r3, pc, r0
     958:	00000000 	andeq	r0, r0, r0
     95c:	1c000000 	stcne	0, cr0, [r0], {-0}
     960:	2b000002 	blcs	970 <_start-0x7690>
     964:	01000002 	tsteq	r0, r2
     968:	022b5000 	eoreq	r5, fp, #0
     96c:	02440000 	subeq	r0, r4, #0
     970:	00040000 	andeq	r0, r4, r0
     974:	9f5001f3 	svcls	0x005001f3
     978:	00000244 	andeq	r0, r0, r4, asr #4
     97c:	00000270 	andeq	r0, r0, r0, ror r2
     980:	00500001 	subseq	r0, r0, r1
     984:	00000000 	andeq	r0, r0, r0
     988:	1c000000 	stcne	0, cr0, [r0], {-0}
     98c:	2b000002 	blcs	99c <_start-0x7664>
     990:	01000002 	tsteq	r0, r2
     994:	022b5100 	eoreq	r5, fp, #0, 2
     998:	02440000 	subeq	r0, r4, #0
     99c:	00040000 	andeq	r0, r4, r0
     9a0:	9f5101f3 	svcls	0x005101f3
     9a4:	00000244 	andeq	r0, r0, r4, asr #4
     9a8:	00000270 	andeq	r0, r0, r0, ror r2
     9ac:	00510001 	subseq	r0, r1, r1
     9b0:	00000000 	andeq	r0, r0, r0
     9b4:	70000000 	andvc	r0, r0, r0
     9b8:	9c000002 	stcls	0, cr0, [r0], {2}
     9bc:	01000002 	tsteq	r0, r2
     9c0:	029c5000 	addseq	r5, ip, #0
     9c4:	04e40000 	strbteq	r0, [r4], #0
     9c8:	00010000 	andeq	r0, r1, r0
     9cc:	0004e45a 	andeq	lr, r4, sl, asr r4
     9d0:	0004f800 	andeq	pc, r4, r0, lsl #16
     9d4:	f3000400 	vshl.u8	d0, d0, d0
     9d8:	009f5001 	addseq	r5, pc, r1
     9dc:	00000000 	andeq	r0, r0, r0
     9e0:	70000000 	andvc	r0, r0, r0
     9e4:	84000002 	strhi	r0, [r0], #-2
     9e8:	01000002 	tsteq	r0, r2
     9ec:	02845100 	addeq	r5, r4, #0, 2
     9f0:	029c0000 	addseq	r0, ip, #0
     9f4:	00030000 	andeq	r0, r3, r0
     9f8:	9c9f0171 	ldflss	f0, [pc], {113}	; 0x71
     9fc:	f8000002 			; <UNDEFINED> instruction: 0xf8000002
     a00:	04000004 	streq	r0, [r0], #-4
     a04:	5101f300 	mrspl	pc, SP_irq	; <UNPREDICTABLE>
     a08:	0000009f 	muleq	r0, pc, r0	; <UNPREDICTABLE>
     a0c:	00000000 	andeq	r0, r0, r0
     a10:	00027000 	andeq	r7, r2, r0
     a14:	0002a400 	andeq	sl, r2, r0, lsl #8
     a18:	52000100 	andpl	r0, r0, #0, 2
     a1c:	000002a4 	andeq	r0, r0, r4, lsr #5
     a20:	000002cc 	andeq	r0, r0, ip, asr #5
     a24:	cc520001 	mrrcgt	0, 0, r0, r2, cr1
     a28:	94000002 	strls	r0, [r0], #-2
     a2c:	01000004 	tsteq	r0, r4
     a30:	04945600 	ldreq	r5, [r4], #1536	; 0x600
     a34:	04f80000 	ldrbteq	r0, [r8], #0
     a38:	00010000 	andeq	r0, r1, r0
     a3c:	00000052 	andeq	r0, r0, r2, asr r0
     a40:	00000000 	andeq	r0, r0, r0
     a44:	00027000 	andeq	r7, r2, r0
     a48:	00028c00 	andeq	r8, r2, r0, lsl #24
     a4c:	53000100 	movwpl	r0, #256	; 0x100
	...
     a58:	00000280 	andeq	r0, r0, r0, lsl #5
     a5c:	0000029c 	muleq	r0, ip, r2
     a60:	9c500001 	mrrcls	0, 0, r0, r0, cr1	; <UNPREDICTABLE>
     a64:	a0000002 	andge	r0, r0, r2
     a68:	01000002 	tsteq	r0, r2
     a6c:	02a05400 	adceq	r5, r0, #0, 8
     a70:	02ac0000 	adceq	r0, ip, #0
     a74:	00030000 	andeq	r0, r3, r0
     a78:	ac9f0174 	ldfges	f0, [pc], {116}	; 0x74
     a7c:	b8000002 	stmdalt	r0, {r1}
     a80:	01000002 	tsteq	r0, r2
     a84:	02b85400 	adcseq	r5, r8, #0, 8
     a88:	02c40000 	sbceq	r0, r4, #0
     a8c:	00030000 	andeq	r0, r3, r0
     a90:	c49f0174 	ldrgt	r0, [pc], #372	; a98 <_start-0x7568>
     a94:	98000002 	stmdals	r0, {r1}
     a98:	01000004 	tsteq	r0, r4
     a9c:	04985400 	ldreq	r5, [r8], #1024	; 0x400
     aa0:	04a40000 	strteq	r0, [r4], #0
     aa4:	00030000 	andeq	r0, r3, r0
     aa8:	a49f0174 	ldrge	r0, [pc], #372	; ab0 <_start-0x7550>
     aac:	d0000004 	andle	r0, r0, r4
     ab0:	01000004 	tsteq	r0, r4
     ab4:	04d05400 	ldrbeq	r5, [r0], #1024	; 0x400
     ab8:	04dc0000 	ldrbeq	r0, [ip], #0
     abc:	00010000 	andeq	r0, r1, r0
     ac0:	0004dc50 	andeq	sp, r4, r0, asr ip
     ac4:	0004e400 	andeq	lr, r4, r0, lsl #8
     ac8:	74000300 	strvc	r0, [r0], #-768	; 0x300
     acc:	00009f01 	andeq	r9, r0, r1, lsl #30
     ad0:	00000000 	andeq	r0, r0, r0
     ad4:	02880000 	addeq	r0, r8, #0
     ad8:	04e40000 	strbteq	r0, [r4], #0
     adc:	00010000 	andeq	r0, r1, r0
     ae0:	0004e458 	andeq	lr, r4, r8, asr r4
     ae4:	0004f800 	andeq	pc, r4, r0, lsl #16
     ae8:	f3000a00 	vpmax.u8	d0, d0, d0
     aec:	01f35101 	mvnseq	r5, r1, lsl #2
     af0:	1c312250 	lfmne	f2, 4, [r1], #-320	; 0xfffffec0
     af4:	0000009f 	muleq	r0, pc, r0	; <UNPREDICTABLE>
     af8:	00000000 	andeq	r0, r0, r0
     afc:	0003cc00 	andeq	ip, r3, r0, lsl #24
     b00:	0003d000 	andeq	sp, r3, r0
     b04:	50000100 	andpl	r0, r0, r0, lsl #2
     b08:	000003f0 	strdeq	r0, [r0], -r0	; <UNPREDICTABLE>
     b0c:	000003f4 	strdeq	r0, [r0], -r4
     b10:	14500001 	ldrbne	r0, [r0], #-1
     b14:	18000004 	stmdane	r0, {r2}
     b18:	01000004 	tsteq	r0, r4
     b1c:	04385000 	ldrteq	r5, [r8], #-0
     b20:	043c0000 	ldrteq	r0, [ip], #-0
     b24:	00010000 	andeq	r0, r1, r0
     b28:	00044450 	andeq	r4, r4, r0, asr r4
     b2c:	00044800 	andeq	r4, r4, r0, lsl #16
     b30:	50000100 	andpl	r0, r0, r0, lsl #2
     b34:	00000468 	andeq	r0, r0, r8, ror #8
     b38:	0000046c 	andeq	r0, r0, ip, ror #8
     b3c:	90500001 	subsls	r0, r0, r1
     b40:	b8000004 	stmdalt	r0, {r2}
     b44:	01000004 	tsteq	r0, r4
     b48:	00005000 	andeq	r5, r0, r0
     b4c:	00000000 	andeq	r0, r0, r0
     b50:	02cc0000 	sbceq	r0, ip, #0
     b54:	02d40000 	sbcseq	r0, r4, #0
     b58:	00020000 	andeq	r0, r2, r0
     b5c:	02d49f30 	sbcseq	r9, r4, #48, 30	; 0xc0
     b60:	02d80000 	sbcseq	r0, r8, #0
     b64:	00010000 	andeq	r0, r1, r0
     b68:	0002e457 	andeq	lr, r2, r7, asr r4
     b6c:	0004b800 	andeq	fp, r4, r0, lsl #16
     b70:	57000100 	strpl	r0, [r0, -r0, lsl #2]
	...
     b7c:	00000004 	andeq	r0, r0, r4
     b80:	00000008 	andeq	r0, r0, r8
     b84:	00730007 	rsbseq	r0, r3, r7
     b88:	2110000a 	tstcs	r0, sl
     b8c:	0000089f 	muleq	r0, pc, r8	; <UNPREDICTABLE>
     b90:	00001000 	andeq	r1, r0, r0
     b94:	53000100 	movwpl	r0, #256	; 0x100
	...
     ba0:	00000014 	andeq	r0, r0, r4, lsl r0
     ba4:	00000018 	andeq	r0, r0, r8, lsl r0
     ba8:	00730007 	rsbseq	r0, r3, r7
     bac:	1aefff0b 	bne	ffc007e0 <__bss_end__+0xffbf1e18>
     bb0:	0000189f 	muleq	r0, pc, r8	; <UNPREDICTABLE>
     bb4:	00002000 	andeq	r2, r0, r0
     bb8:	53000100 	movwpl	r0, #256	; 0x100
	...
     bc8:	0000000c 	andeq	r0, r0, ip
     bcc:	0c500001 	mrrceq	0, 0, r0, r0, cr1	; <UNPREDICTABLE>
     bd0:	20000000 	andcs	r0, r0, r0
     bd4:	01000000 	mrseq	r0, (UNDEF: 0)
     bd8:	00005400 	andeq	r5, r0, r0, lsl #8
     bdc:	00000000 	andeq	r0, r0, r0
     be0:	00340000 	eorseq	r0, r4, r0
     be4:	003c0000 	eorseq	r0, ip, r0
     be8:	00030000 	andeq	r0, r3, r0
     bec:	3c9f0473 	cfldrscc	mvf0, [pc], {115}	; 0x73
     bf0:	47000000 	strmi	r0, [r0, -r0]
     bf4:	01000000 	mrseq	r0, (UNDEF: 0)
     bf8:	00005300 	andeq	r5, r0, r0, lsl #6
     bfc:	00000000 	andeq	r0, r0, r0
     c00:	00480000 	subeq	r0, r8, r0
     c04:	00740000 	rsbseq	r0, r4, r0
     c08:	00010000 	andeq	r0, r1, r0
     c0c:	00007450 	andeq	r7, r0, r0, asr r4
     c10:	00008300 	andeq	r8, r0, r0, lsl #6
     c14:	73000300 	movwvc	r0, #768	; 0x300
     c18:	00009f78 	andeq	r9, r0, r8, ror pc
     c1c:	00000000 	andeq	r0, r0, r0
     c20:	8e580000 	cdphi	0, 5, cr0, cr8, cr0, {0}
     c24:	8e5c0000 	cdphi	0, 5, cr0, cr12, cr0, {0}
     c28:	00020000 	andeq	r0, r2, r0
     c2c:	8e5c9f30 	mrchi	15, 2, r9, cr12, cr0, {1}
     c30:	8e600000 	cdphi	0, 6, cr0, cr0, cr0, {0}
     c34:	00010000 	andeq	r0, r1, r0
     c38:	00000050 	andeq	r0, r0, r0, asr r0
     c3c:	00000000 	andeq	r0, r0, r0
     c40:	008e7000 	addeq	r7, lr, r0
     c44:	008e7400 	addeq	r7, lr, r0, lsl #8
     c48:	30000200 	andcc	r0, r0, r0, lsl #4
     c4c:	008e749f 	umulleq	r7, lr, pc, r4	; <UNPREDICTABLE>
     c50:	008e7800 	addeq	r7, lr, r0, lsl #16
     c54:	53000100 	movwpl	r0, #256	; 0x100
     c58:	00008e7c 	andeq	r8, r0, ip, ror lr
     c5c:	00008e84 	andeq	r8, r0, r4, lsl #29
     c60:	00530001 	subseq	r0, r3, r1
	...
     c6c:	04000000 	streq	r0, [r0], #-0
     c70:	01000000 	mrseq	r0, (UNDEF: 0)
     c74:	00045000 	andeq	r5, r4, r0
     c78:	000c0000 	andeq	r0, ip, r0
     c7c:	00010000 	andeq	r0, r1, r0
     c80:	00000c53 	andeq	r0, r0, r3, asr ip
     c84:	00001000 	andeq	r1, r0, r0
     c88:	50000100 	andpl	r0, r0, r0, lsl #2
     c8c:	00000010 	andeq	r0, r0, r0, lsl r0
     c90:	0000001c 	andeq	r0, r0, ip, lsl r0
     c94:	00530001 	subseq	r0, r3, r1
     c98:	00000000 	andeq	r0, r0, r0
     c9c:	3c000000 	stccc	0, cr0, [r0], {-0}
     ca0:	47000000 	strmi	r0, [r0, -r0]
     ca4:	01000000 	mrseq	r0, (UNDEF: 0)
     ca8:	00475000 	subeq	r5, r7, r0
     cac:	00600000 	rsbeq	r0, r0, r0
     cb0:	00010000 	andeq	r0, r1, r0
     cb4:	00000055 	andeq	r0, r0, r5, asr r0
     cb8:	00000000 	andeq	r0, r0, r0
     cbc:	00005000 	andeq	r5, r0, r0
     cc0:	00005400 	andeq	r5, r0, r0, lsl #8
     cc4:	50000100 	andpl	r0, r0, r0, lsl #2
	...
     cd0:	00000060 	andeq	r0, r0, r0, rrx
     cd4:	0000006c 	andeq	r0, r0, ip, rrx
     cd8:	6c500001 	mrrcvs	0, 0, r0, r0, cr1	; <UNPREDICTABLE>
     cdc:	74000000 	strvc	r0, [r0], #-0
     ce0:	04000000 	streq	r0, [r0], #-0
     ce4:	5001f300 	andpl	pc, r1, r0, lsl #6
     ce8:	0000009f 	muleq	r0, pc, r0	; <UNPREDICTABLE>
     cec:	00000000 	andeq	r0, r0, r0
     cf0:	00007400 	andeq	r7, r0, r0, lsl #8
     cf4:	00008000 	andeq	r8, r0, r0
     cf8:	50000100 	andpl	r0, r0, r0, lsl #2
     cfc:	00000080 	andeq	r0, r0, r0, lsl #1
     d00:	00000088 	andeq	r0, r0, r8, lsl #1
     d04:	01f30004 	mvnseq	r0, r4
     d08:	00009f50 	andeq	r9, r0, r0, asr pc
	...
     d14:	00900000 	addseq	r0, r0, r0
     d18:	00010000 	andeq	r0, r1, r0
     d1c:	00009050 	andeq	r9, r0, r0, asr r0
     d20:	0000d400 	andeq	sp, r0, r0, lsl #8
     d24:	54000100 	strpl	r0, [r0], #-256	; 0x100
	...
     d30:	00000048 	andeq	r0, r0, r8, asr #32
     d34:	0000004c 	andeq	r0, r0, ip, asr #32
     d38:	54550001 	ldrbpl	r0, [r5], #-1
     d3c:	58000000 	stmdapl	r0, {}	; <UNPREDICTABLE>
     d40:	01000000 	mrseq	r0, (UNDEF: 0)
     d44:	00605500 	rsbeq	r5, r0, r0, lsl #10
     d48:	00640000 	rsbeq	r0, r4, r0
     d4c:	00010000 	andeq	r0, r1, r0
     d50:	00006c55 	andeq	r6, r0, r5, asr ip
     d54:	00007000 	andeq	r7, r0, r0
     d58:	55000100 	strpl	r0, [r0, #-256]	; 0x100
     d5c:	00000078 	andeq	r0, r0, r8, ror r0
     d60:	0000007c 	andeq	r0, r0, ip, ror r0
     d64:	84550001 	ldrbhi	r0, [r5], #-1
     d68:	88000000 	stmdahi	r0, {}	; <UNPREDICTABLE>
     d6c:	01000000 	mrseq	r0, (UNDEF: 0)
     d70:	008c5500 	addeq	r5, ip, r0, lsl #10
     d74:	00d40000 	sbcseq	r0, r4, r0
     d78:	00010000 	andeq	r0, r1, r0
     d7c:	00000055 	andeq	r0, r0, r5, asr r0
     d80:	00000000 	andeq	r0, r0, r0
     d84:	00001c00 	andeq	r1, r0, r0, lsl #24
     d88:	00004400 	andeq	r4, r0, r0, lsl #8
     d8c:	53000100 	movwpl	r0, #256	; 0x100
     d90:	00000044 	andeq	r0, r0, r4, asr #32
     d94:	0000004c 	andeq	r0, r0, ip, asr #32
     d98:	0070001c 	rsbseq	r0, r0, ip, lsl r0
     d9c:	25f72cf7 	ldrbcs	r2, [r7, #3319]!	; 0xcf7
     da0:	cd0825f4 	cfstr32gt	mvfx2, [r8, #-976]	; 0xfffffc30
     da4:	00cccccc 	sbceq	ip, ip, ip, asr #25
     da8:	1e000000 	cdpne	0, 0, cr0, cr0, cr0, {0}
     dac:	25f72008 	ldrbcs	r2, [r7, #8]!
     db0:	332cf725 	msrcc	CPSR_fs, #9699328	; 0x940000
     db4:	004c9f25 	subeq	r9, ip, r5, lsr #30
     db8:	00500000 	subseq	r0, r0, r0
     dbc:	00010000 	andeq	r0, r1, r0
     dc0:	00005053 	andeq	r5, r0, r3, asr r0
     dc4:	00005800 	andeq	r5, r0, r0, lsl #16
     dc8:	70001c00 	andvc	r1, r0, r0, lsl #24
     dcc:	f72cf700 			; <UNDEFINED> instruction: 0xf72cf700
     dd0:	0825f425 	stmdaeq	r5!, {r0, r2, r5, sl, ip, sp, lr, pc}
     dd4:	cccccccd 	stclgt	12, cr12, [ip], {205}	; 0xcd
     dd8:	00000000 	andeq	r0, r0, r0
     ddc:	f720081e 			; <UNDEFINED> instruction: 0xf720081e
     de0:	2cf72525 	cfldr64cs	mvdx2, [r7], #148	; 0x94
     de4:	589f2533 	ldmpl	pc, {r0, r1, r4, r5, r8, sl, sp}	; <UNPREDICTABLE>
     de8:	5c000000 	stcpl	0, cr0, [r0], {-0}
     dec:	01000000 	mrseq	r0, (UNDEF: 0)
     df0:	005c5300 	subseq	r5, ip, r0, lsl #6
     df4:	00640000 	rsbeq	r0, r4, r0
     df8:	001c0000 	andseq	r0, ip, r0
     dfc:	2cf70070 	ldclcs	0, cr0, [r7], #448	; 0x1c0
     e00:	25f425f7 	ldrbcs	r2, [r4, #1527]!	; 0x5f7
     e04:	cccccd08 	stclgt	13, cr12, [ip], {8}
     e08:	000000cc 	andeq	r0, r0, ip, asr #1
     e0c:	20081e00 	andcs	r1, r8, r0, lsl #28
     e10:	f72525f7 			; <UNDEFINED> instruction: 0xf72525f7
     e14:	9f25332c 	svcls	0x0025332c
     e18:	00000064 	andeq	r0, r0, r4, rrx
     e1c:	00000068 	andeq	r0, r0, r8, rrx
     e20:	68530001 	ldmdavs	r3, {r0}^
     e24:	70000000 	andvc	r0, r0, r0
     e28:	1c000000 	stcne	0, cr0, [r0], {-0}
     e2c:	f7007000 			; <UNDEFINED> instruction: 0xf7007000
     e30:	f425f72c 	vld1.8	{d15}, [r5 :128], ip
     e34:	cccd0825 	stclgt	8, cr0, [sp], {37}	; 0x25
     e38:	0000cccc 	andeq	ip, r0, ip, asr #25
     e3c:	081e0000 	ldmdaeq	lr, {}	; <UNPREDICTABLE>
     e40:	2525f720 	strcs	pc, [r5, #-1824]!	; 0x720
     e44:	25332cf7 	ldrcs	r2, [r3, #-3319]!	; 0xcf7
     e48:	0000709f 	muleq	r0, pc, r0	; <UNPREDICTABLE>
     e4c:	00007400 	andeq	r7, r0, r0, lsl #8
     e50:	53000100 	movwpl	r0, #256	; 0x100
     e54:	00000074 	andeq	r0, r0, r4, ror r0
     e58:	0000007c 	andeq	r0, r0, ip, ror r0
     e5c:	0070001c 	rsbseq	r0, r0, ip, lsl r0
     e60:	25f72cf7 	ldrbcs	r2, [r7, #3319]!	; 0xcf7
     e64:	cd0825f4 	cfstr32gt	mvfx2, [r8, #-976]	; 0xfffffc30
     e68:	00cccccc 	sbceq	ip, ip, ip, asr #25
     e6c:	1e000000 	cdpne	0, 0, cr0, cr0, cr0, {0}
     e70:	25f72008 	ldrbcs	r2, [r7, #8]!
     e74:	332cf725 	msrcc	CPSR_fs, #9699328	; 0x940000
     e78:	007c9f25 	rsbseq	r9, ip, r5, lsr #30
     e7c:	00800000 	addeq	r0, r0, r0
     e80:	00010000 	andeq	r0, r1, r0
     e84:	00008053 	andeq	r8, r0, r3, asr r0
     e88:	00008800 	andeq	r8, r0, r0, lsl #16
     e8c:	70001c00 	andvc	r1, r0, r0, lsl #24
     e90:	f72cf700 			; <UNDEFINED> instruction: 0xf72cf700
     e94:	0825f425 	stmdaeq	r5!, {r0, r2, r5, sl, ip, sp, lr, pc}
     e98:	cccccccd 	stclgt	12, cr12, [ip], {205}	; 0xcd
     e9c:	00000000 	andeq	r0, r0, r0
     ea0:	f720081e 			; <UNDEFINED> instruction: 0xf720081e
     ea4:	2cf72525 	cfldr64cs	mvdx2, [r7], #148	; 0x94
     ea8:	889f2533 	ldmhi	pc, {r0, r1, r4, r5, r8, sl, sp}	; <UNPREDICTABLE>
     eac:	8c000000 	stchi	0, cr0, [r0], {-0}
     eb0:	01000000 	mrseq	r0, (UNDEF: 0)
     eb4:	008c5300 	addeq	r5, ip, r0, lsl #6
     eb8:	00900000 	addseq	r0, r0, r0
     ebc:	001c0000 	andseq	r0, ip, r0
     ec0:	2cf70070 	ldclcs	0, cr0, [r7], #448	; 0x1c0
     ec4:	25f425f7 	ldrbcs	r2, [r4, #1527]!	; 0x5f7
     ec8:	cccccd08 	stclgt	13, cr12, [ip], {8}
     ecc:	000000cc 	andeq	r0, r0, ip, asr #1
     ed0:	20081e00 	andcs	r1, r8, r0, lsl #28
     ed4:	f72525f7 			; <UNDEFINED> instruction: 0xf72525f7
     ed8:	9f25332c 	svcls	0x0025332c
     edc:	00000090 	muleq	r0, r0, r0
     ee0:	00000098 	muleq	r0, r8, r0
     ee4:	0074001c 	rsbseq	r0, r4, ip, lsl r0
     ee8:	25f72cf7 	ldrbcs	r2, [r7, #3319]!	; 0xcf7
     eec:	cd0825f4 	cfstr32gt	mvfx2, [r8, #-976]	; 0xfffffc30
     ef0:	00cccccc 	sbceq	ip, ip, ip, asr #25
     ef4:	1e000000 	cdpne	0, 0, cr0, cr0, cr0, {0}
     ef8:	25f72008 	ldrbcs	r2, [r7, #8]!
     efc:	332cf725 	msrcc	CPSR_fs, #9699328	; 0x940000
     f00:	00989f25 	addseq	r9, r8, r5, lsr #30
     f04:	009c0000 	addseq	r0, ip, r0
     f08:	00170000 	andseq	r0, r7, r0
     f0c:	2cf70074 	ldclcs	0, cr0, [r7], #464	; 0x1d0
     f10:	007125f7 	ldrshteq	r2, [r1], #-87	; 0xffffffa9
     f14:	25f72cf7 	ldrbcs	r2, [r7, #3319]!	; 0xcf7
     f18:	f720081e 			; <UNDEFINED> instruction: 0xf720081e
     f1c:	2cf72525 	cfldr64cs	mvdx2, [r7], #148	; 0x94
     f20:	9c9f2533 	cfldr32ls	mvfx2, [pc], {51}	; 0x33
     f24:	d4000000 	strle	r0, [r0], #-0
     f28:	1c000000 	stcne	0, cr0, [r0], {-0}
     f2c:	f7007400 			; <UNDEFINED> instruction: 0xf7007400
     f30:	f425f72c 	vld1.8	{d15}, [r5 :128], ip
     f34:	cccd0825 	stclgt	8, cr0, [sp], {37}	; 0x25
     f38:	0000cccc 	andeq	ip, r0, ip, asr #25
     f3c:	081e0000 	ldmdaeq	lr, {}	; <UNPREDICTABLE>
     f40:	2525f720 	strcs	pc, [r5, #-1824]!	; 0x720
     f44:	25332cf7 	ldrcs	r2, [r3, #-3319]!	; 0xcf7
     f48:	0000009f 	muleq	r0, pc, r0	; <UNPREDICTABLE>
     f4c:	00000000 	andeq	r0, r0, r0
     f50:	00009400 	andeq	r9, r0, r0, lsl #8
     f54:	0000b800 	andeq	fp, r0, r0, lsl #16
     f58:	50000100 	andpl	r0, r0, r0, lsl #2
     f5c:	000000b8 	strheq	r0, [r0], -r8
     f60:	000000c4 	andeq	r0, r0, r4, asr #1
     f64:	71310008 	teqvc	r1, r8
     f68:	00732400 	rsbseq	r2, r3, r0, lsl #8
     f6c:	00c49f21 	sbceq	r9, r4, r1, lsr #30
     f70:	00c70000 	sbceq	r0, r7, r0
     f74:	00010000 	andeq	r0, r1, r0
     f78:	00000051 	andeq	r0, r0, r1, asr r0
     f7c:	00000000 	andeq	r0, r0, r0
     f80:	0000d400 	andeq	sp, r0, r0, lsl #8
     f84:	0000f800 	andeq	pc, r0, r0, lsl #16
     f88:	50000100 	andpl	r0, r0, r0, lsl #2
     f8c:	000000f8 	strdeq	r0, [r0], -r8
     f90:	0000010c 	andeq	r0, r0, ip, lsl #2
     f94:	01f30004 	mvnseq	r0, r4
     f98:	00009f50 	andeq	r9, r0, r0, asr pc
     f9c:	00000000 	andeq	r0, r0, r0
     fa0:	00e00000 	rsceq	r0, r0, r0
     fa4:	00e80000 	rsceq	r0, r8, r0
     fa8:	00020000 	andeq	r0, r2, r0
     fac:	00e89f30 	rsceq	r9, r8, r0, lsr pc
     fb0:	00e80000 	rsceq	r0, r8, r0
     fb4:	00010000 	andeq	r0, r1, r0
     fb8:	0000e852 	andeq	lr, r0, r2, asr r8
     fbc:	0000f000 	andeq	pc, r0, r0
     fc0:	30000200 	andcc	r0, r0, r0, lsl #4
     fc4:	0000f09f 	muleq	r0, pc, r0	; <UNPREDICTABLE>
     fc8:	00010300 	andeq	r0, r1, r0, lsl #6
     fcc:	52000100 	andpl	r0, r0, #0, 2
	...
     fd8:	000000e0 	andeq	r0, r0, r0, ror #1
     fdc:	000000f4 	strdeq	r0, [r0], -r4
     fe0:	9f300002 	svcls	0x00300002
     fe4:	000000f4 	strdeq	r0, [r0], -r4
     fe8:	00000100 	andeq	r0, r0, r0, lsl #2
     fec:	73310005 	teqvc	r1, #5
     ff0:	009f2400 	addseq	r2, pc, r0, lsl #8
     ff4:	03000001 	movweq	r0, #1
     ff8:	01000001 	tsteq	r0, r1
     ffc:	01035100 	mrseq	r5, (UNDEF: 19)
    1000:	010c0000 	mrseq	r0, (UNDEF: 12)
    1004:	00080000 	andeq	r0, r8, r0
    1008:	5001f331 	andpl	pc, r1, r1, lsr r3	; <UNPREDICTABLE>
    100c:	9f241a4f 	svcls	0x00241a4f
	...
    1018:	0000010c 	andeq	r0, r0, ip, lsl #2
    101c:	00000130 	andeq	r0, r0, r0, lsr r1
    1020:	30500001 	subscc	r0, r0, r1
    1024:	44000001 	strmi	r0, [r0], #-1
    1028:	04000001 	streq	r0, [r0], #-1
    102c:	5001f300 	andpl	pc, r1, r0, lsl #6
    1030:	0000009f 	muleq	r0, pc, r0	; <UNPREDICTABLE>
    1034:	00000000 	andeq	r0, r0, r0
    1038:	00011800 	andeq	r1, r1, r0, lsl #16
    103c:	00012000 	andeq	r2, r1, r0
    1040:	30000200 	andcc	r0, r0, r0, lsl #4
    1044:	0001209f 	muleq	r1, pc, r0	; <UNPREDICTABLE>
    1048:	00012000 	andeq	r2, r1, r0
    104c:	52000100 	andpl	r0, r0, #0, 2
    1050:	00000120 	andeq	r0, r0, r0, lsr #2
    1054:	00000128 	andeq	r0, r0, r8, lsr #2
    1058:	9f300002 	svcls	0x00300002
    105c:	00000128 	andeq	r0, r0, r8, lsr #2
    1060:	0000013b 	andeq	r0, r0, fp, lsr r1
    1064:	00520001 	subseq	r0, r2, r1
    1068:	00000000 	andeq	r0, r0, r0
    106c:	18000000 	stmdane	r0, {}	; <UNPREDICTABLE>
    1070:	2c000001 	stccs	0, cr0, [r0], {1}
    1074:	02000001 	andeq	r0, r0, #1
    1078:	2c9f3000 	ldccs	0, cr3, [pc], {0}
    107c:	38000001 	stmdacc	r0, {r0}
    1080:	05000001 	streq	r0, [r0, #-1]
    1084:	00733100 	rsbseq	r3, r3, r0, lsl #2
    1088:	01389f24 	teqeq	r8, r4, lsr #30
    108c:	013b0000 	teqeq	fp, r0
    1090:	00010000 	andeq	r0, r1, r0
    1094:	00013b51 	andeq	r3, r1, r1, asr fp
    1098:	00014400 	andeq	r4, r1, r0, lsl #8
    109c:	31000800 	tstcc	r0, r0, lsl #16
    10a0:	4f5001f3 	svcmi	0x005001f3
    10a4:	009f241a 	addseq	r2, pc, sl, lsl r4	; <UNPREDICTABLE>
    10a8:	00000000 	andeq	r0, r0, r0
    10ac:	44000000 	strmi	r0, [r0], #-0
    10b0:	d4000001 	strle	r0, [r0], #-1
    10b4:	01000001 	tsteq	r0, r1
    10b8:	01d45000 	bicseq	r5, r4, r0
    10bc:	02100000 	andseq	r0, r0, #0
    10c0:	00010000 	andeq	r0, r1, r0
    10c4:	00000054 	andeq	r0, r0, r4, asr r0
    10c8:	00000000 	andeq	r0, r0, r0
    10cc:	00018c00 	andeq	r8, r1, r0, lsl #24
    10d0:	00019000 	andeq	r9, r1, r0
    10d4:	55000100 	strpl	r0, [r0, #-256]	; 0x100
    10d8:	00000198 	muleq	r0, r8, r1
    10dc:	0000019c 	muleq	r0, ip, r1
    10e0:	a4550001 	ldrbge	r0, [r5], #-1
    10e4:	a8000001 	stmdage	r0, {r0}
    10e8:	01000001 	tsteq	r0, r1
    10ec:	01b05500 	lslseq	r5, r0, #10
    10f0:	01b40000 			; <UNDEFINED> instruction: 0x01b40000
    10f4:	00010000 	andeq	r0, r1, r0
    10f8:	0001bc55 	andeq	fp, r1, r5, asr ip
    10fc:	0001c000 	andeq	ip, r1, r0
    1100:	55000100 	strpl	r0, [r0, #-256]	; 0x100
    1104:	000001c8 	andeq	r0, r0, r8, asr #3
    1108:	000001cc 	andeq	r0, r0, ip, asr #3
    110c:	d0550001 	subsle	r0, r5, r1
    1110:	10000001 	andne	r0, r0, r1
    1114:	01000002 	tsteq	r0, r2
    1118:	00005500 	andeq	r5, r0, r0, lsl #10
    111c:	00000000 	andeq	r0, r0, r0
    1120:	01600000 	cmneq	r0, r0
    1124:	01880000 	orreq	r0, r8, r0
    1128:	00010000 	andeq	r0, r1, r0
    112c:	00018853 	andeq	r8, r1, r3, asr r8
    1130:	00019000 	andeq	r9, r1, r0
    1134:	70001c00 	andvc	r1, r0, r0, lsl #24
    1138:	f72cf700 			; <UNDEFINED> instruction: 0xf72cf700
    113c:	0825f425 	stmdaeq	r5!, {r0, r2, r5, sl, ip, sp, lr, pc}
    1140:	cccccccd 	stclgt	12, cr12, [ip], {205}	; 0xcd
    1144:	00000000 	andeq	r0, r0, r0
    1148:	f720081e 			; <UNDEFINED> instruction: 0xf720081e
    114c:	2cf72525 	cfldr64cs	mvdx2, [r7], #148	; 0x94
    1150:	909f2533 	addsls	r2, pc, r3, lsr r5	; <UNPREDICTABLE>
    1154:	94000001 	strls	r0, [r0], #-1
    1158:	01000001 	tsteq	r0, r1
    115c:	01945300 	orrseq	r5, r4, r0, lsl #6
    1160:	019c0000 	orrseq	r0, ip, r0
    1164:	001c0000 	andseq	r0, ip, r0
    1168:	2cf70070 	ldclcs	0, cr0, [r7], #448	; 0x1c0
    116c:	25f425f7 	ldrbcs	r2, [r4, #1527]!	; 0x5f7
    1170:	cccccd08 	stclgt	13, cr12, [ip], {8}
    1174:	000000cc 	andeq	r0, r0, ip, asr #1
    1178:	20081e00 	andcs	r1, r8, r0, lsl #28
    117c:	f72525f7 			; <UNDEFINED> instruction: 0xf72525f7
    1180:	9f25332c 	svcls	0x0025332c
    1184:	0000019c 	muleq	r0, ip, r1
    1188:	000001a0 	andeq	r0, r0, r0, lsr #3
    118c:	a0530001 	subsge	r0, r3, r1
    1190:	a8000001 	stmdage	r0, {r0}
    1194:	1c000001 	stcne	0, cr0, [r0], {1}
    1198:	f7007000 			; <UNDEFINED> instruction: 0xf7007000
    119c:	f425f72c 	vld1.8	{d15}, [r5 :128], ip
    11a0:	cccd0825 	stclgt	8, cr0, [sp], {37}	; 0x25
    11a4:	0000cccc 	andeq	ip, r0, ip, asr #25
    11a8:	081e0000 	ldmdaeq	lr, {}	; <UNPREDICTABLE>
    11ac:	2525f720 	strcs	pc, [r5, #-1824]!	; 0x720
    11b0:	25332cf7 	ldrcs	r2, [r3, #-3319]!	; 0xcf7
    11b4:	0001a89f 	muleq	r1, pc, r8	; <UNPREDICTABLE>
    11b8:	0001ac00 	andeq	sl, r1, r0, lsl #24
    11bc:	53000100 	movwpl	r0, #256	; 0x100
    11c0:	000001ac 	andeq	r0, r0, ip, lsr #3
    11c4:	000001b4 			; <UNDEFINED> instruction: 0x000001b4
    11c8:	0070001c 	rsbseq	r0, r0, ip, lsl r0
    11cc:	25f72cf7 	ldrbcs	r2, [r7, #3319]!	; 0xcf7
    11d0:	cd0825f4 	cfstr32gt	mvfx2, [r8, #-976]	; 0xfffffc30
    11d4:	00cccccc 	sbceq	ip, ip, ip, asr #25
    11d8:	1e000000 	cdpne	0, 0, cr0, cr0, cr0, {0}
    11dc:	25f72008 	ldrbcs	r2, [r7, #8]!
    11e0:	332cf725 	msrcc	CPSR_fs, #9699328	; 0x940000
    11e4:	01b49f25 			; <UNDEFINED> instruction: 0x01b49f25
    11e8:	01b80000 			; <UNDEFINED> instruction: 0x01b80000
    11ec:	00010000 	andeq	r0, r1, r0
    11f0:	0001b853 	andeq	fp, r1, r3, asr r8
    11f4:	0001c000 	andeq	ip, r1, r0
    11f8:	70001c00 	andvc	r1, r0, r0, lsl #24
    11fc:	f72cf700 			; <UNDEFINED> instruction: 0xf72cf700
    1200:	0825f425 	stmdaeq	r5!, {r0, r2, r5, sl, ip, sp, lr, pc}
    1204:	cccccccd 	stclgt	12, cr12, [ip], {205}	; 0xcd
    1208:	00000000 	andeq	r0, r0, r0
    120c:	f720081e 			; <UNDEFINED> instruction: 0xf720081e
    1210:	2cf72525 	cfldr64cs	mvdx2, [r7], #148	; 0x94
    1214:	c09f2533 	addsgt	r2, pc, r3, lsr r5	; <UNPREDICTABLE>
    1218:	c4000001 	strgt	r0, [r0], #-1
    121c:	01000001 	tsteq	r0, r1
    1220:	01c45300 	biceq	r5, r4, r0, lsl #6
    1224:	01cc0000 	biceq	r0, ip, r0
    1228:	001c0000 	andseq	r0, ip, r0
    122c:	2cf70070 	ldclcs	0, cr0, [r7], #448	; 0x1c0
    1230:	25f425f7 	ldrbcs	r2, [r4, #1527]!	; 0x5f7
    1234:	cccccd08 	stclgt	13, cr12, [ip], {8}
    1238:	000000cc 	andeq	r0, r0, ip, asr #1
    123c:	20081e00 	andcs	r1, r8, r0, lsl #28
    1240:	f72525f7 			; <UNDEFINED> instruction: 0xf72525f7
    1244:	9f25332c 	svcls	0x0025332c
    1248:	000001cc 	andeq	r0, r0, ip, asr #3
    124c:	000001d0 	ldrdeq	r0, [r0], -r0	; <UNPREDICTABLE>
    1250:	d0530001 	subsle	r0, r3, r1
    1254:	d4000001 	strle	r0, [r0], #-1
    1258:	1c000001 	stcne	0, cr0, [r0], {1}
    125c:	f7007000 			; <UNDEFINED> instruction: 0xf7007000
    1260:	f425f72c 	vld1.8	{d15}, [r5 :128], ip
    1264:	cccd0825 	stclgt	8, cr0, [sp], {37}	; 0x25
    1268:	0000cccc 	andeq	ip, r0, ip, asr #25
    126c:	081e0000 	ldmdaeq	lr, {}	; <UNPREDICTABLE>
    1270:	2525f720 	strcs	pc, [r5, #-1824]!	; 0x720
    1274:	25332cf7 	ldrcs	r2, [r3, #-3319]!	; 0xcf7
    1278:	0001d49f 	muleq	r1, pc, r4	; <UNPREDICTABLE>
    127c:	0001dc00 	andeq	sp, r1, r0, lsl #24
    1280:	74001c00 	strvc	r1, [r0], #-3072	; 0xc00
    1284:	f72cf700 			; <UNDEFINED> instruction: 0xf72cf700
    1288:	0825f425 	stmdaeq	r5!, {r0, r2, r5, sl, ip, sp, lr, pc}
    128c:	cccccccd 	stclgt	12, cr12, [ip], {205}	; 0xcd
    1290:	00000000 	andeq	r0, r0, r0
    1294:	f720081e 			; <UNDEFINED> instruction: 0xf720081e
    1298:	2cf72525 	cfldr64cs	mvdx2, [r7], #148	; 0x94
    129c:	dc9f2533 	cfldr32le	mvfx2, [pc], {51}	; 0x33
    12a0:	e0000001 	and	r0, r0, r1
    12a4:	17000001 	strne	r0, [r0, -r1]
    12a8:	f7007400 			; <UNDEFINED> instruction: 0xf7007400
    12ac:	7125f72c 	msrvc	SP_abt, ip
    12b0:	f72cf700 			; <UNDEFINED> instruction: 0xf72cf700
    12b4:	20081e25 	andcs	r1, r8, r5, lsr #28
    12b8:	f72525f7 			; <UNDEFINED> instruction: 0xf72525f7
    12bc:	9f25332c 	svcls	0x0025332c
    12c0:	000001e0 	andeq	r0, r0, r0, ror #3
    12c4:	00000210 	andeq	r0, r0, r0, lsl r2
    12c8:	0074001c 	rsbseq	r0, r4, ip, lsl r0
    12cc:	25f72cf7 	ldrbcs	r2, [r7, #3319]!	; 0xcf7
    12d0:	cd0825f4 	cfstr32gt	mvfx2, [r8, #-976]	; 0xfffffc30
    12d4:	00cccccc 	sbceq	ip, ip, ip, asr #25
    12d8:	1e000000 	cdpne	0, 0, cr0, cr0, cr0, {0}
    12dc:	25f72008 	ldrbcs	r2, [r7, #8]!
    12e0:	332cf725 	msrcc	CPSR_fs, #9699328	; 0x940000
    12e4:	00009f25 	andeq	r9, r0, r5, lsr #30
    12e8:	00000000 	andeq	r0, r0, r0
    12ec:	01d80000 	bicseq	r0, r8, r0
    12f0:	01fc0000 	mvnseq	r0, r0
    12f4:	00010000 	andeq	r0, r1, r0
    12f8:	0001fc50 	andeq	pc, r1, r0, asr ip	; <UNPREDICTABLE>
    12fc:	00020300 	andeq	r0, r2, r0, lsl #6
    1300:	51000100 	mrspl	r0, (UNDEF: 16)
	...
    130c:	00000210 	andeq	r0, r0, r0, lsl r2
    1310:	0000022c 	andeq	r0, r0, ip, lsr #4
    1314:	2c500001 	mrrccs	0, 0, r0, r0, cr1	; <UNPREDICTABLE>
    1318:	34000002 	strcc	r0, [r0], #-2
    131c:	01000002 	tsteq	r0, r2
    1320:	02345400 	eorseq	r5, r4, #0, 8
    1324:	023c0000 	eorseq	r0, ip, #0
    1328:	00010000 	andeq	r0, r1, r0
    132c:	00023c50 	andeq	r3, r2, r0, asr ip
    1330:	00024400 	andeq	r4, r2, r0, lsl #8
    1334:	54000100 	strpl	r0, [r0], #-256	; 0x100
    1338:	00000244 	andeq	r0, r0, r4, asr #4
    133c:	00000250 	andeq	r0, r0, r0, asr r2
    1340:	01f30004 	mvnseq	r0, r4
    1344:	02509f50 	subseq	r9, r0, #80, 30	; 0x140
    1348:	02540000 	subseq	r0, r4, #0
    134c:	00010000 	andeq	r0, r1, r0
    1350:	00025450 	andeq	r5, r2, r0, asr r4
    1354:	00025c00 	andeq	r5, r2, r0, lsl #24
    1358:	54000100 	strpl	r0, [r0], #-256	; 0x100
	...
    1364:	00000220 	andeq	r0, r0, r0, lsr #4
    1368:	00000230 	andeq	r0, r0, r0, lsr r2
    136c:	9f300002 	svcls	0x00300002
    1370:	00000230 	andeq	r0, r0, r0, lsr r2
    1374:	00000234 	andeq	r0, r0, r4, lsr r2
    1378:	34500001 	ldrbcc	r0, [r0], #-1
    137c:	40000002 	andmi	r0, r0, r2
    1380:	02000002 	andeq	r0, r0, #2
    1384:	409f3000 	addsmi	r3, pc, r0
    1388:	4c000002 	stcmi	0, cr0, [r0], {2}
    138c:	01000002 	tsteq	r0, r2
    1390:	00005000 	andeq	r5, r0, r0
    1394:	00000000 	andeq	r0, r0, r0
    1398:	025c0000 	subseq	r0, ip, #0
    139c:	02900000 	addseq	r0, r0, #0
    13a0:	00010000 	andeq	r0, r1, r0
    13a4:	00029050 	andeq	r9, r2, r0, asr r0
    13a8:	0002a000 	andeq	sl, r2, r0
    13ac:	f3000400 	vshl.u8	d0, d0, d0
    13b0:	a09f5001 	addsge	r5, pc, r1
    13b4:	c0000002 	andgt	r0, r0, r2
    13b8:	01000002 	tsteq	r0, r2
    13bc:	02c05000 	sbceq	r5, r0, #0
    13c0:	02d40000 	sbcseq	r0, r4, #0
    13c4:	00040000 	andeq	r0, r4, r0
    13c8:	9f5001f3 	svcls	0x005001f3
	...
    13d4:	0000025c 	andeq	r0, r0, ip, asr r2
    13d8:	00000294 	muleq	r0, r4, r2
    13dc:	94510001 	ldrbls	r0, [r1], #-1
    13e0:	a0000002 	andge	r0, r0, r2
    13e4:	04000002 	streq	r0, [r0], #-2
    13e8:	5101f300 	mrspl	pc, SP_irq	; <UNPREDICTABLE>
    13ec:	0002a09f 	muleq	r2, pc, r0	; <UNPREDICTABLE>
    13f0:	0002c400 	andeq	ip, r2, r0, lsl #8
    13f4:	51000100 	mrspl	r0, (UNDEF: 16)
    13f8:	000002c4 	andeq	r0, r0, r4, asr #5
    13fc:	000002d4 	ldrdeq	r0, [r0], -r4
    1400:	01f30004 	mvnseq	r0, r4
    1404:	00009f51 	andeq	r9, r0, r1, asr pc
    1408:	00000000 	andeq	r0, r0, r0
    140c:	02700000 	rsbseq	r0, r0, #0
    1410:	02900000 	addseq	r0, r0, #0
    1414:	00010000 	andeq	r0, r1, r0
    1418:	00029050 	andeq	r9, r2, r0, asr r0
    141c:	0002a000 	andeq	sl, r2, r0
    1420:	f3000400 	vshl.u8	d0, d0, d0
    1424:	009f5001 	addseq	r5, pc, r1
    1428:	00000000 	andeq	r0, r0, r0
    142c:	78000000 	stmdavc	r0, {}	; <UNPREDICTABLE>
    1430:	80000002 	andhi	r0, r0, r2
    1434:	02000002 	andeq	r0, r0, #2
    1438:	809f3000 	addshi	r3, pc, r0
    143c:	80000002 	andhi	r0, r0, r2
    1440:	01000002 	tsteq	r0, r2
    1444:	02805200 	addeq	r5, r0, #0, 4
    1448:	02880000 	addeq	r0, r8, #0
    144c:	00020000 	andeq	r0, r2, r0
    1450:	02889f30 	addeq	r9, r8, #48, 30	; 0xc0
    1454:	029b0000 	addseq	r0, fp, #0
    1458:	00010000 	andeq	r0, r1, r0
    145c:	00000052 	andeq	r0, r0, r2, asr r0
    1460:	00000000 	andeq	r0, r0, r0
    1464:	00027800 	andeq	r7, r2, r0, lsl #16
    1468:	00028c00 	andeq	r8, r2, r0, lsl #24
    146c:	30000200 	andcc	r0, r0, r0, lsl #4
    1470:	00028c9f 	muleq	r2, pc, ip	; <UNPREDICTABLE>
    1474:	00029800 	andeq	r9, r2, r0, lsl #16
    1478:	31000500 	tstcc	r0, r0, lsl #10
    147c:	9f240073 	svcls	0x00240073
    1480:	00000298 	muleq	r0, r8, r2
    1484:	0000029b 	muleq	r0, fp, r2
    1488:	9b510001 	blls	1441494 <__bss_end__+0x1432acc>
    148c:	a0000002 	andge	r0, r0, r2
    1490:	08000002 	stmdaeq	r0, {r1}
    1494:	01f33100 	mvnseq	r3, r0, lsl #2
    1498:	241a4f50 	ldrcs	r4, [sl], #-3920	; 0xf50
    149c:	0000009f 	muleq	r0, pc, r0	; <UNPREDICTABLE>
    14a0:	00000000 	andeq	r0, r0, r0
    14a4:	0002a000 	andeq	sl, r2, r0
    14a8:	0002c000 	andeq	ip, r2, r0
    14ac:	50000100 	andpl	r0, r0, r0, lsl #2
    14b0:	000002c0 	andeq	r0, r0, r0, asr #5
    14b4:	000002d4 	ldrdeq	r0, [r0], -r4
    14b8:	01f30004 	mvnseq	r0, r4
    14bc:	00009f50 	andeq	r9, r0, r0, asr pc
    14c0:	00000000 	andeq	r0, r0, r0
    14c4:	02a80000 	adceq	r0, r8, #0
    14c8:	02b00000 	adcseq	r0, r0, #0
    14cc:	00020000 	andeq	r0, r2, r0
    14d0:	02b09f30 	adcseq	r9, r0, #48, 30	; 0xc0
    14d4:	02b00000 	adcseq	r0, r0, #0
    14d8:	00010000 	andeq	r0, r1, r0
    14dc:	0002b052 	andeq	fp, r2, r2, asr r0
    14e0:	0002b800 	andeq	fp, r2, r0, lsl #16
    14e4:	30000200 	andcc	r0, r0, r0, lsl #4
    14e8:	0002b89f 	muleq	r2, pc, r8	; <UNPREDICTABLE>
    14ec:	0002cb00 	andeq	ip, r2, r0, lsl #22
    14f0:	52000100 	andpl	r0, r0, #0, 2
	...
    14fc:	000002a8 	andeq	r0, r0, r8, lsr #5
    1500:	000002bc 			; <UNDEFINED> instruction: 0x000002bc
    1504:	9f300002 	svcls	0x00300002
    1508:	000002bc 			; <UNDEFINED> instruction: 0x000002bc
    150c:	000002c8 	andeq	r0, r0, r8, asr #5
    1510:	73310005 	teqvc	r1, #5
    1514:	c89f2400 	ldmgt	pc, {sl, sp}	; <UNPREDICTABLE>
    1518:	cb000002 	blgt	1528 <_start-0x6ad8>
    151c:	01000002 	tsteq	r0, r2
    1520:	02cb5100 	sbceq	r5, fp, #0, 2
    1524:	02d40000 	sbcseq	r0, r4, #0
    1528:	00080000 	andeq	r0, r8, r0
    152c:	5001f331 	andpl	pc, r1, r1, lsr r3	; <UNPREDICTABLE>
    1530:	9f241a4f 	svcls	0x00241a4f
	...
    153c:	000002d4 	ldrdeq	r0, [r0], -r4
    1540:	0000036c 	andeq	r0, r0, ip, ror #6
    1544:	6c500001 	mrrcvs	0, 0, r0, r0, cr1	; <UNPREDICTABLE>
    1548:	ac000003 	stcge	0, cr0, [r0], {3}
    154c:	01000003 	tsteq	r0, r3
    1550:	00005400 	andeq	r5, r0, r0, lsl #8
    1554:	00000000 	andeq	r0, r0, r0
    1558:	02d40000 	sbcseq	r0, r4, #0
    155c:	036f0000 	cmneq	pc, #0
    1560:	00010000 	andeq	r0, r1, r0
    1564:	00036f51 	andeq	r6, r3, r1, asr pc
    1568:	0003ac00 	andeq	sl, r3, r0, lsl #24
    156c:	f3000400 	vshl.u8	d0, d0, d0
    1570:	009f5101 	addseq	r5, pc, r1, lsl #2
    1574:	00000000 	andeq	r0, r0, r0
    1578:	24000000 	strcs	r0, [r0], #-0
    157c:	28000003 	stmdacs	r0, {r0, r1}
    1580:	01000003 	tsteq	r0, r3
    1584:	03305600 	teqeq	r0, #0, 12
    1588:	03340000 	teqeq	r4, #0
    158c:	00010000 	andeq	r0, r1, r0
    1590:	00033c56 	andeq	r3, r3, r6, asr ip
    1594:	00034000 	andeq	r4, r3, r0
    1598:	56000100 	strpl	r0, [r0], -r0, lsl #2
    159c:	00000348 	andeq	r0, r0, r8, asr #6
    15a0:	0000034c 	andeq	r0, r0, ip, asr #6
    15a4:	54560001 	ldrbpl	r0, [r6], #-1
    15a8:	58000003 	stmdapl	r0, {r0, r1}
    15ac:	01000003 	tsteq	r0, r3
    15b0:	03605600 	cmneq	r0, #0, 12
    15b4:	03640000 	cmneq	r4, #0
    15b8:	00010000 	andeq	r0, r1, r0
    15bc:	00036856 	andeq	r6, r3, r6, asr r8
    15c0:	0003ac00 	andeq	sl, r3, r0, lsl #24
    15c4:	56000100 	strpl	r0, [r0], -r0, lsl #2
	...
    15d0:	000002f8 	strdeq	r0, [r0], -r8
    15d4:	00000320 	andeq	r0, r0, r0, lsr #6
    15d8:	20530001 	subscs	r0, r3, r1
    15dc:	28000003 	stmdacs	r0, {r0, r1}
    15e0:	1c000003 	stcne	0, cr0, [r0], {3}
    15e4:	f7007000 			; <UNDEFINED> instruction: 0xf7007000
    15e8:	f425f72c 	vld1.8	{d15}, [r5 :128], ip
    15ec:	cccd0825 	stclgt	8, cr0, [sp], {37}	; 0x25
    15f0:	0000cccc 	andeq	ip, r0, ip, asr #25
    15f4:	081e0000 	ldmdaeq	lr, {}	; <UNPREDICTABLE>
    15f8:	2525f720 	strcs	pc, [r5, #-1824]!	; 0x720
    15fc:	25332cf7 	ldrcs	r2, [r3, #-3319]!	; 0xcf7
    1600:	0003289f 	muleq	r3, pc, r8	; <UNPREDICTABLE>
    1604:	00032c00 	andeq	r2, r3, r0, lsl #24
    1608:	53000100 	movwpl	r0, #256	; 0x100
    160c:	0000032c 	andeq	r0, r0, ip, lsr #6
    1610:	00000334 	andeq	r0, r0, r4, lsr r3
    1614:	0070001c 	rsbseq	r0, r0, ip, lsl r0
    1618:	25f72cf7 	ldrbcs	r2, [r7, #3319]!	; 0xcf7
    161c:	cd0825f4 	cfstr32gt	mvfx2, [r8, #-976]	; 0xfffffc30
    1620:	00cccccc 	sbceq	ip, ip, ip, asr #25
    1624:	1e000000 	cdpne	0, 0, cr0, cr0, cr0, {0}
    1628:	25f72008 	ldrbcs	r2, [r7, #8]!
    162c:	332cf725 	msrcc	CPSR_fs, #9699328	; 0x940000
    1630:	03349f25 	teqeq	r4, #37, 30	; 0x94
    1634:	03380000 	teqeq	r8, #0
    1638:	00010000 	andeq	r0, r1, r0
    163c:	00033853 	andeq	r3, r3, r3, asr r8
    1640:	00034000 	andeq	r4, r3, r0
    1644:	70001c00 	andvc	r1, r0, r0, lsl #24
    1648:	f72cf700 			; <UNDEFINED> instruction: 0xf72cf700
    164c:	0825f425 	stmdaeq	r5!, {r0, r2, r5, sl, ip, sp, lr, pc}
    1650:	cccccccd 	stclgt	12, cr12, [ip], {205}	; 0xcd
    1654:	00000000 	andeq	r0, r0, r0
    1658:	f720081e 			; <UNDEFINED> instruction: 0xf720081e
    165c:	2cf72525 	cfldr64cs	mvdx2, [r7], #148	; 0x94
    1660:	409f2533 	addsmi	r2, pc, r3, lsr r5	; <UNPREDICTABLE>
    1664:	44000003 	strmi	r0, [r0], #-3
    1668:	01000003 	tsteq	r0, r3
    166c:	03445300 	movteq	r5, #17152	; 0x4300
    1670:	034c0000 	movteq	r0, #49152	; 0xc000
    1674:	001c0000 	andseq	r0, ip, r0
    1678:	2cf70070 	ldclcs	0, cr0, [r7], #448	; 0x1c0
    167c:	25f425f7 	ldrbcs	r2, [r4, #1527]!	; 0x5f7
    1680:	cccccd08 	stclgt	13, cr12, [ip], {8}
    1684:	000000cc 	andeq	r0, r0, ip, asr #1
    1688:	20081e00 	andcs	r1, r8, r0, lsl #28
    168c:	f72525f7 			; <UNDEFINED> instruction: 0xf72525f7
    1690:	9f25332c 	svcls	0x0025332c
    1694:	0000034c 	andeq	r0, r0, ip, asr #6
    1698:	00000350 	andeq	r0, r0, r0, asr r3
    169c:	50530001 	subspl	r0, r3, r1
    16a0:	58000003 	stmdapl	r0, {r0, r1}
    16a4:	1c000003 	stcne	0, cr0, [r0], {3}
    16a8:	f7007000 			; <UNDEFINED> instruction: 0xf7007000
    16ac:	f425f72c 	vld1.8	{d15}, [r5 :128], ip
    16b0:	cccd0825 	stclgt	8, cr0, [sp], {37}	; 0x25
    16b4:	0000cccc 	andeq	ip, r0, ip, asr #25
    16b8:	081e0000 	ldmdaeq	lr, {}	; <UNPREDICTABLE>
    16bc:	2525f720 	strcs	pc, [r5, #-1824]!	; 0x720
    16c0:	25332cf7 	ldrcs	r2, [r3, #-3319]!	; 0xcf7
    16c4:	0003589f 	muleq	r3, pc, r8	; <UNPREDICTABLE>
    16c8:	00035c00 	andeq	r5, r3, r0, lsl #24
    16cc:	53000100 	movwpl	r0, #256	; 0x100
    16d0:	0000035c 	andeq	r0, r0, ip, asr r3
    16d4:	00000364 	andeq	r0, r0, r4, ror #6
    16d8:	0070001c 	rsbseq	r0, r0, ip, lsl r0
    16dc:	25f72cf7 	ldrbcs	r2, [r7, #3319]!	; 0xcf7
    16e0:	cd0825f4 	cfstr32gt	mvfx2, [r8, #-976]	; 0xfffffc30
    16e4:	00cccccc 	sbceq	ip, ip, ip, asr #25
    16e8:	1e000000 	cdpne	0, 0, cr0, cr0, cr0, {0}
    16ec:	25f72008 	ldrbcs	r2, [r7, #8]!
    16f0:	332cf725 	msrcc	CPSR_fs, #9699328	; 0x940000
    16f4:	03649f25 	cmneq	r4, #37, 30	; 0x94
    16f8:	03680000 	cmneq	r8, #0
    16fc:	00010000 	andeq	r0, r1, r0
    1700:	00036853 	andeq	r6, r3, r3, asr r8
    1704:	00036c00 	andeq	r6, r3, r0, lsl #24
    1708:	70001c00 	andvc	r1, r0, r0, lsl #24
    170c:	f72cf700 			; <UNDEFINED> instruction: 0xf72cf700
    1710:	0825f425 	stmdaeq	r5!, {r0, r2, r5, sl, ip, sp, lr, pc}
    1714:	cccccccd 	stclgt	12, cr12, [ip], {205}	; 0xcd
    1718:	00000000 	andeq	r0, r0, r0
    171c:	f720081e 			; <UNDEFINED> instruction: 0xf720081e
    1720:	2cf72525 	cfldr64cs	mvdx2, [r7], #148	; 0x94
    1724:	6c9f2533 	cfldr32vs	mvfx2, [pc], {51}	; 0x33
    1728:	74000003 	strvc	r0, [r0], #-3
    172c:	1c000003 	stcne	0, cr0, [r0], {3}
    1730:	f7007400 			; <UNDEFINED> instruction: 0xf7007400
    1734:	f425f72c 	vld1.8	{d15}, [r5 :128], ip
    1738:	cccd0825 	stclgt	8, cr0, [sp], {37}	; 0x25
    173c:	0000cccc 	andeq	ip, r0, ip, asr #25
    1740:	081e0000 	ldmdaeq	lr, {}	; <UNPREDICTABLE>
    1744:	2525f720 	strcs	pc, [r5, #-1824]!	; 0x720
    1748:	25332cf7 	ldrcs	r2, [r3, #-3319]!	; 0xcf7
    174c:	0003749f 	muleq	r3, pc, r4	; <UNPREDICTABLE>
    1750:	00037800 	andeq	r7, r3, r0, lsl #16
    1754:	74001700 	strvc	r1, [r0], #-1792	; 0x700
    1758:	f72cf700 			; <UNDEFINED> instruction: 0xf72cf700
    175c:	f7007325 			; <UNDEFINED> instruction: 0xf7007325
    1760:	1e25f72c 	cdpne	7, 2, cr15, cr5, cr12, {1}
    1764:	25f72008 	ldrbcs	r2, [r7, #8]!
    1768:	332cf725 	msrcc	CPSR_fs, #9699328	; 0x940000
    176c:	03789f25 	cmneq	r8, #37, 30	; 0x94
    1770:	03ac0000 			; <UNDEFINED> instruction: 0x03ac0000
    1774:	001c0000 	andseq	r0, ip, r0
    1778:	2cf70074 	ldclcs	0, cr0, [r7], #464	; 0x1d0
    177c:	25f425f7 	ldrbcs	r2, [r4, #1527]!	; 0x5f7
    1780:	cccccd08 	stclgt	13, cr12, [ip], {8}
    1784:	000000cc 	andeq	r0, r0, ip, asr #1
    1788:	20081e00 	andcs	r1, r8, r0, lsl #28
    178c:	f72525f7 			; <UNDEFINED> instruction: 0xf72525f7
    1790:	9f25332c 	svcls	0x0025332c
	...
    179c:	00000370 	andeq	r0, r0, r0, ror r3
    17a0:	00000394 	muleq	r0, r4, r3
    17a4:	94500001 	ldrbls	r0, [r0], #-1
    17a8:	9c000003 	stcls	0, cr0, [r0], {3}
    17ac:	09000003 	stmdbeq	r0, {r0, r1}
    17b0:	73007500 	movwvc	r7, #1280	; 0x500
    17b4:	00712400 	rsbseq	r2, r1, r0, lsl #8
    17b8:	039c9f21 	orrseq	r9, ip, #33, 30	; 0x84
    17bc:	039f0000 	orrseq	r0, pc, #0
    17c0:	00010000 	andeq	r0, r1, r0
    17c4:	00000051 	andeq	r0, r0, r1, asr r0
    17c8:	00000000 	andeq	r0, r0, r0
    17cc:	0003ac00 	andeq	sl, r3, r0, lsl #24
    17d0:	0003b800 	andeq	fp, r3, r0, lsl #16
    17d4:	50000100 	andpl	r0, r0, r0, lsl #2
    17d8:	000003b8 			; <UNDEFINED> instruction: 0x000003b8
    17dc:	000003d8 	ldrdeq	r0, [r0], -r8
    17e0:	01f30004 	mvnseq	r0, r4
    17e4:	00009f50 	andeq	r9, r0, r0, asr pc
    17e8:	00000000 	andeq	r0, r0, r0
    17ec:	03d80000 	bicseq	r0, r8, #0
    17f0:	03eb0000 	mvneq	r0, #0
    17f4:	00010000 	andeq	r0, r1, r0
    17f8:	0003eb50 	andeq	lr, r3, r0, asr fp
    17fc:	00042400 	andeq	r2, r4, r0, lsl #8
    1800:	54000100 	strpl	r0, [r0], #-256	; 0x100
    1804:	00000424 	andeq	r0, r0, r4, lsr #8
    1808:	0000045c 	andeq	r0, r0, ip, asr r4
    180c:	01f30004 	mvnseq	r0, r4
    1810:	00009f50 	andeq	r9, r0, r0, asr pc
    1814:	00000000 	andeq	r0, r0, r0
    1818:	04440000 	strbeq	r0, [r4], #-0
    181c:	04480000 	strbeq	r0, [r8], #-0
    1820:	00010000 	andeq	r0, r1, r0
    1824:	00044850 	andeq	r4, r4, r0, asr r8
    1828:	00044f00 	andeq	r4, r4, r0, lsl #30
    182c:	51000100 	mrspl	r0, (UNDEF: 16)
	...
    1838:	00000400 	andeq	r0, r0, r0, lsl #8
    183c:	00000408 	andeq	r0, r0, r8, lsl #8
    1840:	08500001 	ldmdaeq	r0, {r0}^
    1844:	0f000004 	svceq	0x00000004
    1848:	01000004 	tsteq	r0, r4
    184c:	00005100 	andeq	r5, r0, r0, lsl #2
    1850:	00000000 	andeq	r0, r0, r0
    1854:	04200000 	strteq	r0, [r0], #-0
    1858:	042c0000 	strteq	r0, [ip], #-0
    185c:	00010000 	andeq	r0, r1, r0
    1860:	00042c50 	andeq	r2, r4, r0, asr ip
    1864:	00043300 	andeq	r3, r4, r0, lsl #6
    1868:	51000100 	mrspl	r0, (UNDEF: 16)
	...
    1874:	0000045c 	andeq	r0, r0, ip, asr r4
    1878:	0000046f 	andeq	r0, r0, pc, ror #8
    187c:	6f500001 	svcvs	0x00500001
    1880:	a8000004 	stmdage	r0, {r2}
    1884:	01000004 	tsteq	r0, r4
    1888:	04a85400 	strteq	r5, [r8], #1024	; 0x400
    188c:	04e00000 	strbteq	r0, [r0], #0
    1890:	00040000 	andeq	r0, r4, r0
    1894:	9f5001f3 	svcls	0x005001f3
	...
    18a0:	000004c8 	andeq	r0, r0, r8, asr #9
    18a4:	000004cc 	andeq	r0, r0, ip, asr #9
    18a8:	cc500001 	mrrcgt	0, 0, r0, r0, cr1	; <UNPREDICTABLE>
    18ac:	d3000004 	movwle	r0, #4
    18b0:	01000004 	tsteq	r0, r4
    18b4:	00005100 	andeq	r5, r0, r0, lsl #2
    18b8:	00000000 	andeq	r0, r0, r0
    18bc:	04840000 	streq	r0, [r4], #0
    18c0:	048c0000 	streq	r0, [ip], #0
    18c4:	00010000 	andeq	r0, r1, r0
    18c8:	00048c50 	andeq	r8, r4, r0, asr ip
    18cc:	00049300 	andeq	r9, r4, r0, lsl #6
    18d0:	51000100 	mrspl	r0, (UNDEF: 16)
	...
    18dc:	000004a4 	andeq	r0, r0, r4, lsr #9
    18e0:	000004b0 			; <UNDEFINED> instruction: 0x000004b0
    18e4:	b0500001 	subslt	r0, r0, r1
    18e8:	b7000004 	strlt	r0, [r0, -r4]
    18ec:	01000004 	tsteq	r0, r4
    18f0:	00005100 	andeq	r5, r0, r0, lsl #2
    18f4:	00000000 	andeq	r0, r0, r0
    18f8:	04e00000 	strbteq	r0, [r0], #0
    18fc:	04f30000 	ldrbteq	r0, [r3], #0
    1900:	00010000 	andeq	r0, r1, r0
    1904:	0004f350 	andeq	pc, r4, r0, asr r3	; <UNPREDICTABLE>
    1908:	00053400 	andeq	r3, r5, r0, lsl #8
    190c:	54000100 	strpl	r0, [r0], #-256	; 0x100
    1910:	00000534 	andeq	r0, r0, r4, lsr r5
    1914:	00000558 	andeq	r0, r0, r8, asr r5
    1918:	01f30004 	mvnseq	r0, r4
    191c:	05589f50 	ldrbeq	r9, [r8, #-3920]	; 0xf50
    1920:	055c0000 	ldrbeq	r0, [ip, #-0]
    1924:	00010000 	andeq	r0, r1, r0
    1928:	00055c50 	andeq	r5, r5, r0, asr ip
    192c:	00056400 	andeq	r6, r5, r0, lsl #8
    1930:	54000100 	strpl	r0, [r0], #-256	; 0x100
	...
    193c:	00000508 	andeq	r0, r0, r8, lsl #10
    1940:	00000517 	andeq	r0, r0, r7, lsl r5
    1944:	74310008 	ldrtvc	r0, [r1], #-8
    1948:	00702400 	rsbseq	r2, r0, r0, lsl #8
    194c:	00009f1a 	andeq	r9, r0, sl, lsl pc
    1950:	00000000 	andeq	r0, r0, r0
    1954:	05340000 	ldreq	r0, [r4, #-0]!
    1958:	054c0000 	strbeq	r0, [ip, #-0]
    195c:	00010000 	andeq	r0, r1, r0
    1960:	00000054 	andeq	r0, r0, r4, asr r0
    1964:	00000000 	andeq	r0, r0, r0
    1968:	00056400 	andeq	r6, r5, r0, lsl #8
    196c:	00057700 	andeq	r7, r5, r0, lsl #14
    1970:	50000100 	andpl	r0, r0, r0, lsl #2
    1974:	00000577 	andeq	r0, r0, r7, ror r5
    1978:	0000059c 	muleq	r0, ip, r5
    197c:	9c540001 	mrrcls	0, 0, r0, r4, cr1
    1980:	bc000005 	stclt	0, cr0, [r0], {5}
    1984:	04000005 	streq	r0, [r0], #-5
    1988:	5001f300 	andpl	pc, r1, r0, lsl #6
    198c:	0000009f 	muleq	r0, pc, r0	; <UNPREDICTABLE>
	...
    1998:	00001800 	andeq	r1, r0, r0, lsl #16
    199c:	50000100 	andpl	r0, r0, r0, lsl #2
    19a0:	00000018 	andeq	r0, r0, r8, lsl r0
    19a4:	00000154 	andeq	r0, r0, r4, asr r1
    19a8:	01f30004 	mvnseq	r0, r4
    19ac:	00009f50 	andeq	r9, r0, r0, asr pc
	...
    19b8:	001c0000 	andseq	r0, ip, r0
    19bc:	00010000 	andeq	r0, r1, r0
    19c0:	00001c51 	andeq	r1, r0, r1, asr ip
    19c4:	00015400 	andeq	r5, r1, r0, lsl #8
    19c8:	f3000400 	vshl.u8	d0, d0, d0
    19cc:	009f5101 	addseq	r5, pc, r1, lsl #2
    19d0:	00000000 	andeq	r0, r0, r0
    19d4:	10000000 	andne	r0, r0, r0
    19d8:	34000000 	strcc	r0, [r0], #-0
    19dc:	01000001 	tsteq	r0, r1
    19e0:	00005500 	andeq	r5, r0, r0, lsl #10
    19e4:	00000000 	andeq	r0, r0, r0
    19e8:	00100000 	andseq	r0, r0, r0
    19ec:	00340000 	eorseq	r0, r4, r0
    19f0:	00010000 	andeq	r0, r1, r0
    19f4:	00003455 	andeq	r3, r0, r5, asr r4
    19f8:	00013400 	andeq	r3, r1, r0, lsl #8
    19fc:	58000100 	stmdapl	r0, {r8}
    1a00:	00000134 	andeq	r0, r0, r4, lsr r1
    1a04:	00000154 	andeq	r0, r0, r4, asr r1
    1a08:	00550001 	subseq	r0, r5, r1
    1a0c:	00000000 	andeq	r0, r0, r0
    1a10:	14000000 	strne	r0, [r0], #-0
    1a14:	34000000 	strcc	r0, [r0], #-0
    1a18:	01000001 	tsteq	r0, r1
    1a1c:	00005500 	andeq	r5, r0, r0, lsl #10
    1a20:	00000000 	andeq	r0, r0, r0
    1a24:	00200000 	eoreq	r0, r0, r0
    1a28:	01340000 	teqeq	r4, r0
    1a2c:	00010000 	andeq	r0, r1, r0
    1a30:	00000055 	andeq	r0, r0, r5, asr r0
    1a34:	00000000 	andeq	r0, r0, r0
    1a38:	00002400 	andeq	r2, r0, r0, lsl #8
    1a3c:	00002800 	andeq	r2, r0, r0, lsl #16
    1a40:	53000100 	movwpl	r0, #256	; 0x100
	...
    1a4c:	00000034 	andeq	r0, r0, r4, lsr r0
    1a50:	00000054 	andeq	r0, r0, r4, asr r0
    1a54:	54580001 	ldrbpl	r0, [r8], #-1
    1a58:	34000000 	strcc	r0, [r0], #-0
    1a5c:	05000001 	streq	r0, [r0, #-1]
    1a60:	31007500 	tstcc	r0, r0, lsl #10
    1a64:	00009f24 	andeq	r9, r0, r4, lsr #30
    1a68:	00000000 	andeq	r0, r0, r0
    1a6c:	00340000 	eorseq	r0, r4, r0
    1a70:	003c0000 	eorseq	r0, ip, r0
    1a74:	00050000 	andeq	r0, r5, r0
    1a78:	1a310077 	bne	c41c5c <__bss_end__+0xc33294>
    1a7c:	00003c9f 	muleq	r0, pc, ip	; <UNPREDICTABLE>
    1a80:	00003f00 	andeq	r3, r0, r0, lsl #30
    1a84:	51000100 	mrspl	r0, (UNDEF: 16)
    1a88:	0000003f 	andeq	r0, r0, pc, lsr r0
    1a8c:	00000154 	andeq	r0, r0, r4, asr r1
    1a90:	00770005 	rsbseq	r0, r7, r5
    1a94:	009f1a31 	addseq	r1, pc, r1, lsr sl	; <UNPREDICTABLE>
    1a98:	00000000 	andeq	r0, r0, r0
    1a9c:	40000000 	andmi	r0, r0, r0
    1aa0:	54000000 	strpl	r0, [r0], #-0
    1aa4:	01000000 	mrseq	r0, (UNDEF: 0)
    1aa8:	00545800 	subseq	r5, r4, r0, lsl #16
    1aac:	01340000 	teqeq	r4, r0
    1ab0:	00050000 	andeq	r0, r5, r0
    1ab4:	24310075 	ldrtcs	r0, [r1], #-117	; 0x75
    1ab8:	0000009f 	muleq	r0, pc, r0	; <UNPREDICTABLE>
    1abc:	00000000 	andeq	r0, r0, r0
    1ac0:	00004400 	andeq	r4, r0, r0, lsl #8
    1ac4:	00004800 	andeq	r4, r0, r0, lsl #16
    1ac8:	53000100 	movwpl	r0, #256	; 0x100
	...
    1ad4:	00000054 	andeq	r0, r0, r4, asr r0
    1ad8:	00000074 	andeq	r0, r0, r4, ror r0
    1adc:	74580001 	ldrbvc	r0, [r8], #-1
    1ae0:	34000000 	strcc	r0, [r0], #-0
    1ae4:	08000001 	stmdaeq	r0, {r0}
    1ae8:	31007500 	tstcc	r0, r0, lsl #10
    1aec:	22007524 	andcs	r7, r0, #36, 10	; 0x9000000
    1af0:	0000009f 	muleq	r0, pc, r0	; <UNPREDICTABLE>
    1af4:	00000000 	andeq	r0, r0, r0
    1af8:	00006000 	andeq	r6, r0, r0
    1afc:	00007400 	andeq	r7, r0, r0, lsl #8
    1b00:	58000100 	stmdapl	r0, {r8}
    1b04:	00000074 	andeq	r0, r0, r4, ror r0
    1b08:	00000134 	andeq	r0, r0, r4, lsr r1
    1b0c:	00750008 	rsbseq	r0, r5, r8
    1b10:	00752431 	rsbseq	r2, r5, r1, lsr r4
    1b14:	00009f22 	andeq	r9, r0, r2, lsr #30
    1b18:	00000000 	andeq	r0, r0, r0
    1b1c:	00640000 	rsbeq	r0, r4, r0
    1b20:	00680000 	rsbeq	r0, r8, r0
    1b24:	00010000 	andeq	r0, r1, r0
    1b28:	00000053 	andeq	r0, r0, r3, asr r0
    1b2c:	00000000 	andeq	r0, r0, r0
    1b30:	00007400 	andeq	r7, r0, r0, lsl #8
    1b34:	00009400 	andeq	r9, r0, r0, lsl #8
    1b38:	58000100 	stmdapl	r0, {r8}
    1b3c:	00000094 	muleq	r0, r4, r0
    1b40:	00000134 	andeq	r0, r0, r4, lsr r1
    1b44:	00750005 	rsbseq	r0, r5, r5
    1b48:	009f2432 	addseq	r2, pc, r2, lsr r4	; <UNPREDICTABLE>
    1b4c:	00000000 	andeq	r0, r0, r0
    1b50:	80000000 	andhi	r0, r0, r0
    1b54:	94000000 	strls	r0, [r0], #-0
    1b58:	01000000 	mrseq	r0, (UNDEF: 0)
    1b5c:	00945800 	addseq	r5, r4, r0, lsl #16
    1b60:	01340000 	teqeq	r4, r0
    1b64:	00050000 	andeq	r0, r5, r0
    1b68:	24320075 	ldrtcs	r0, [r2], #-117	; 0x75
    1b6c:	0000009f 	muleq	r0, pc, r0	; <UNPREDICTABLE>
    1b70:	00000000 	andeq	r0, r0, r0
    1b74:	00008400 	andeq	r8, r0, r0, lsl #8
    1b78:	00008800 	andeq	r8, r0, r0, lsl #16
    1b7c:	53000100 	movwpl	r0, #256	; 0x100
	...
    1b88:	00000094 	muleq	r0, r4, r0
    1b8c:	000000b4 	strheq	r0, [r0], -r4
    1b90:	b4580001 	ldrblt	r0, [r8], #-1
    1b94:	34000000 	strcc	r0, [r0], #-0
    1b98:	08000001 	stmdaeq	r0, {r0}
    1b9c:	32007500 	andcc	r7, r0, #0, 10
    1ba0:	22007524 	andcs	r7, r0, #36, 10	; 0x9000000
    1ba4:	0000009f 	muleq	r0, pc, r0	; <UNPREDICTABLE>
    1ba8:	00000000 	andeq	r0, r0, r0
    1bac:	0000a000 	andeq	sl, r0, r0
    1bb0:	0000b400 	andeq	fp, r0, r0, lsl #8
    1bb4:	58000100 	stmdapl	r0, {r8}
    1bb8:	000000b4 	strheq	r0, [r0], -r4
    1bbc:	00000134 	andeq	r0, r0, r4, lsr r1
    1bc0:	00750008 	rsbseq	r0, r5, r8
    1bc4:	00752432 	rsbseq	r2, r5, r2, lsr r4
    1bc8:	00009f22 	andeq	r9, r0, r2, lsr #30
    1bcc:	00000000 	andeq	r0, r0, r0
    1bd0:	00a40000 	adceq	r0, r4, r0
    1bd4:	00a80000 	adceq	r0, r8, r0
    1bd8:	00010000 	andeq	r0, r1, r0
    1bdc:	00000053 	andeq	r0, r0, r3, asr r0
    1be0:	00000000 	andeq	r0, r0, r0
    1be4:	0000b400 	andeq	fp, r0, r0, lsl #8
    1be8:	0000d400 	andeq	sp, r0, r0, lsl #8
    1bec:	58000100 	stmdapl	r0, {r8}
    1bf0:	000000d4 	ldrdeq	r0, [r0], -r4
    1bf4:	00000134 	andeq	r0, r0, r4, lsr r1
    1bf8:	0075000a 	rsbseq	r0, r5, sl
    1bfc:	00752432 	rsbseq	r2, r5, r2, lsr r4
    1c00:	9f222431 	svcls	0x00222431
	...
    1c0c:	000000c0 	andeq	r0, r0, r0, asr #1
    1c10:	000000d4 	ldrdeq	r0, [r0], -r4
    1c14:	d4580001 	ldrble	r0, [r8], #-1
    1c18:	34000000 	strcc	r0, [r0], #-0
    1c1c:	0a000001 	beq	1c28 <_start-0x63d8>
    1c20:	32007500 	andcc	r7, r0, #0, 10
    1c24:	31007524 	tstcc	r0, r4, lsr #10
    1c28:	009f2224 	addseq	r2, pc, r4, lsr #4
    1c2c:	00000000 	andeq	r0, r0, r0
    1c30:	c4000000 	strgt	r0, [r0], #-0
    1c34:	c8000000 	stmdagt	r0, {}	; <UNPREDICTABLE>
    1c38:	01000000 	mrseq	r0, (UNDEF: 0)
    1c3c:	00005300 	andeq	r5, r0, r0, lsl #6
    1c40:	00000000 	andeq	r0, r0, r0
    1c44:	00d40000 	sbcseq	r0, r4, r0
    1c48:	00f40000 	rscseq	r0, r4, r0
    1c4c:	00010000 	andeq	r0, r1, r0
    1c50:	0000f458 	andeq	pc, r0, r8, asr r4	; <UNPREDICTABLE>
    1c54:	00013400 	andeq	r3, r1, r0, lsl #8
    1c58:	75000d00 	strvc	r0, [r0, #-3328]	; 0xd00
    1c5c:	75243200 	strvc	r3, [r4, #-512]!	; 0x200
    1c60:	22243100 	eorcs	r3, r4, #0, 2
    1c64:	9f220075 	svcls	0x00220075
	...
    1c70:	000000e0 	andeq	r0, r0, r0, ror #1
    1c74:	000000f4 	strdeq	r0, [r0], -r4
    1c78:	f4580001 			; <UNDEFINED> instruction: 0xf4580001
    1c7c:	34000000 	strcc	r0, [r0], #-0
    1c80:	0d000001 	stceq	0, cr0, [r0, #-4]
    1c84:	32007500 	andcc	r7, r0, #0, 10
    1c88:	31007524 	tstcc	r0, r4, lsr #10
    1c8c:	00752224 	rsbseq	r2, r5, r4, lsr #4
    1c90:	00009f22 	andeq	r9, r0, r2, lsr #30
    1c94:	00000000 	andeq	r0, r0, r0
    1c98:	00e40000 	rsceq	r0, r4, r0
    1c9c:	00e80000 	rsceq	r0, r8, r0
    1ca0:	00010000 	andeq	r0, r1, r0
    1ca4:	00000053 	andeq	r0, r0, r3, asr r0
    1ca8:	00000000 	andeq	r0, r0, r0
    1cac:	0000f400 	andeq	pc, r0, r0, lsl #8
    1cb0:	00011400 	andeq	r1, r1, r0, lsl #8
    1cb4:	58000100 	stmdapl	r0, {r8}
    1cb8:	00000114 	andeq	r0, r0, r4, lsl r1
    1cbc:	00000134 	andeq	r0, r0, r4, lsr r1
    1cc0:	00750005 	rsbseq	r0, r5, r5
    1cc4:	009f2433 	addseq	r2, pc, r3, lsr r4	; <UNPREDICTABLE>
	...
    1cd0:	14000001 	strne	r0, [r0], #-1
    1cd4:	01000001 	tsteq	r0, r1
    1cd8:	01145800 	tsteq	r4, r0, lsl #16
    1cdc:	01340000 	teqeq	r4, r0
    1ce0:	00050000 	andeq	r0, r5, r0
    1ce4:	24330075 	ldrtcs	r0, [r3], #-117	; 0x75
    1ce8:	0000009f 	muleq	r0, pc, r0	; <UNPREDICTABLE>
    1cec:	00000000 	andeq	r0, r0, r0
    1cf0:	00010400 	andeq	r0, r1, r0, lsl #8
    1cf4:	00010800 	andeq	r0, r1, r0, lsl #16
    1cf8:	53000100 	movwpl	r0, #256	; 0x100
	...
    1d04:	00000114 	andeq	r0, r0, r4, lsl r1
    1d08:	0000011c 	andeq	r0, r0, ip, lsl r1
    1d0c:	00770006 	rsbseq	r0, r7, r6
    1d10:	9f1a8008 	svcls	0x001a8008
    1d14:	0000011c 	andeq	r0, r0, ip, lsl r1
    1d18:	0000011f 	andeq	r0, r0, pc, lsl r1
    1d1c:	1f510001 	svcne	0x00510001
    1d20:	54000001 	strpl	r0, [r0], #-1
    1d24:	06000001 	streq	r0, [r0], -r1
    1d28:	08007700 	stmdaeq	r0, {r8, r9, sl, ip, sp, lr}
    1d2c:	009f1a80 	addseq	r1, pc, r0, lsl #21
    1d30:	00000000 	andeq	r0, r0, r0
    1d34:	24000000 	strcs	r0, [r0], #-0
    1d38:	28000001 	stmdacs	r0, {r0}
    1d3c:	01000001 	tsteq	r0, r1
    1d40:	00005300 	andeq	r5, r0, r0, lsl #6
    1d44:	00000000 	andeq	r0, r0, r0
    1d48:	01440000 	mrseq	r0, (UNDEF: 68)
    1d4c:	01480000 	mrseq	r0, (UNDEF: 72)
    1d50:	00010000 	andeq	r0, r1, r0
    1d54:	00000053 	andeq	r0, r0, r3, asr r0
    1d58:	00000000 	andeq	r0, r0, r0
    1d5c:	00015400 	andeq	r5, r1, r0, lsl #8
    1d60:	00016b00 	andeq	r6, r1, r0, lsl #22
    1d64:	50000100 	andpl	r0, r0, r0, lsl #2
    1d68:	0000016b 	andeq	r0, r0, fp, ror #2
    1d6c:	000001d0 	ldrdeq	r0, [r0], -r0	; <UNPREDICTABLE>
    1d70:	d0590001 	subsle	r0, r9, r1
    1d74:	0c000001 	stceq	0, cr0, [r0], {1}
    1d78:	04000003 	streq	r0, [r0], #-3
    1d7c:	5001f300 	andpl	pc, r1, r0, lsl #6
    1d80:	00030c9f 	muleq	r3, pc, ip	; <UNPREDICTABLE>
    1d84:	00031400 	andeq	r1, r3, r0, lsl #8
    1d88:	59000100 	stmdbpl	r0, {r8}
    1d8c:	00000314 	andeq	r0, r0, r4, lsl r3
    1d90:	0000031c 	andeq	r0, r0, ip, lsl r3
    1d94:	01f30004 	mvnseq	r0, r4
    1d98:	00009f50 	andeq	r9, r0, r0, asr pc
    1d9c:	00000000 	andeq	r0, r0, r0
    1da0:	01540000 	cmpeq	r4, r0
    1da4:	016b0000 	cmneq	fp, r0
    1da8:	00010000 	andeq	r0, r1, r0
    1dac:	00016b51 	andeq	r6, r1, r1, asr fp
    1db0:	00031c00 	andeq	r1, r3, r0, lsl #24
    1db4:	56000100 	strpl	r0, [r0], -r0, lsl #2
	...
    1dc0:	000001a8 	andeq	r0, r0, r8, lsr #3
    1dc4:	00000298 	muleq	r0, r8, r2
    1dc8:	00580001 	subseq	r0, r8, r1
    1dcc:	00000000 	andeq	r0, r0, r0
    1dd0:	ac000000 	stcge	0, cr0, [r0], {-0}
    1dd4:	d0000001 	andle	r0, r0, r1
    1dd8:	01000002 	tsteq	r0, r2
    1ddc:	00005400 	andeq	r5, r0, r0, lsl #8
    1de0:	00000000 	andeq	r0, r0, r0
    1de4:	01ac0000 			; <UNDEFINED> instruction: 0x01ac0000
    1de8:	02d00000 	sbcseq	r0, r0, #0
    1dec:	00050000 	andeq	r0, r5, r0
    1df0:	25310074 	ldrcs	r0, [r1, #-116]!	; 0x74
    1df4:	0000009f 	muleq	r0, pc, r0	; <UNPREDICTABLE>
    1df8:	00000000 	andeq	r0, r0, r0
    1dfc:	0001ac00 	andeq	sl, r1, r0, lsl #24
    1e00:	0001d000 	andeq	sp, r1, r0
    1e04:	30000200 	andcc	r0, r0, r0, lsl #4
    1e08:	0001d09f 	muleq	r1, pc, r0	; <UNPREDICTABLE>
    1e0c:	00030c00 	andeq	r0, r3, r0, lsl #24
    1e10:	59000100 	stmdbpl	r0, {r8}
    1e14:	00000314 	andeq	r0, r0, r4, lsl r3
    1e18:	0000031c 	andeq	r0, r0, ip, lsl r3
    1e1c:	00590001 	subseq	r0, r9, r1
    1e20:	00000000 	andeq	r0, r0, r0
    1e24:	68000000 	stmdavs	r0, {}	; <UNPREDICTABLE>
    1e28:	6b000001 	blvs	1e34 <_start-0x61cc>
    1e2c:	01000001 	tsteq	r0, r1
    1e30:	016b5100 	cmneq	fp, r0, lsl #2
    1e34:	031c0000 	tsteq	ip, #0
    1e38:	00010000 	andeq	r0, r1, r0
    1e3c:	00000056 	andeq	r0, r0, r6, asr r0
    1e40:	00000000 	andeq	r0, r0, r0
    1e44:	00017000 	andeq	r7, r1, r0
    1e48:	0001ac00 	andeq	sl, r1, r0, lsl #24
    1e4c:	54000100 	strpl	r0, [r0], #-256	; 0x100
    1e50:	0000030c 	andeq	r0, r0, ip, lsl #6
    1e54:	00000314 	andeq	r0, r0, r4, lsl r3
    1e58:	00540001 	subseq	r0, r4, r1
    1e5c:	00000000 	andeq	r0, r0, r0
    1e60:	a8000000 	stmdage	r0, {}	; <UNPREDICTABLE>
    1e64:	c4000001 	strgt	r0, [r0], #-1
    1e68:	01000001 	tsteq	r0, r1
    1e6c:	00005800 	andeq	r5, r0, r0, lsl #16
    1e70:	00000000 	andeq	r0, r0, r0
    1e74:	01b00000 	movseq	r0, r0
    1e78:	01cb0000 	biceq	r0, fp, r0
    1e7c:	00010000 	andeq	r0, r1, r0
    1e80:	0001cb52 	andeq	ip, r1, r2, asr fp
    1e84:	0002d000 	andeq	sp, r2, r0
    1e88:	74000800 	strvc	r0, [r0], #-2048	; 0x800
    1e8c:	74253100 	strtvc	r3, [r5], #-256	; 0x100
    1e90:	009f2200 	addseq	r2, pc, r0, lsl #4
    1e94:	00000000 	andeq	r0, r0, r0
    1e98:	b0000000 	andlt	r0, r0, r0
    1e9c:	c4000001 	strgt	r0, [r0], #-1
    1ea0:	01000001 	tsteq	r0, r1
    1ea4:	00005800 	andeq	r5, r0, r0, lsl #16
    1ea8:	00000000 	andeq	r0, r0, r0
    1eac:	01b40000 			; <UNDEFINED> instruction: 0x01b40000
    1eb0:	01b80000 			; <UNDEFINED> instruction: 0x01b80000
    1eb4:	00010000 	andeq	r0, r1, r0
    1eb8:	00000053 	andeq	r0, r0, r3, asr r0
    1ebc:	00000000 	andeq	r0, r0, r0
    1ec0:	0001d000 	andeq	sp, r1, r0
    1ec4:	0002d000 	andeq	sp, r2, r0
    1ec8:	54000100 	strpl	r0, [r0], #-256	; 0x100
	...
    1ed4:	000001d0 	ldrdeq	r0, [r0], -r0	; <UNPREDICTABLE>
    1ed8:	000001e4 	andeq	r0, r0, r4, ror #3
    1edc:	00580001 	subseq	r0, r8, r1
    1ee0:	00000000 	andeq	r0, r0, r0
    1ee4:	d4000000 	strle	r0, [r0], #-0
    1ee8:	d8000001 	stmdale	r0, {r0}
    1eec:	01000001 	tsteq	r0, r1
    1ef0:	00005300 	andeq	r5, r0, r0, lsl #6
    1ef4:	00000000 	andeq	r0, r0, r0
    1ef8:	01f40000 	mvnseq	r0, r0
    1efc:	02d00000 	sbcseq	r0, r0, #0
    1f00:	00010000 	andeq	r0, r1, r0
    1f04:	00000054 	andeq	r0, r0, r4, asr r0
    1f08:	00000000 	andeq	r0, r0, r0
    1f0c:	0001f400 	andeq	pc, r1, r0, lsl #8
    1f10:	00020800 	andeq	r0, r2, r0, lsl #16
    1f14:	58000100 	stmdapl	r0, {r8}
	...
    1f20:	000001f8 	strdeq	r0, [r0], -r8
    1f24:	000001fc 	strdeq	r0, [r0], -ip
    1f28:	00530001 	subseq	r0, r3, r1
    1f2c:	00000000 	andeq	r0, r0, r0
    1f30:	18000000 	stmdane	r0, {}	; <UNPREDICTABLE>
    1f34:	d0000002 	andle	r0, r0, r2
    1f38:	01000002 	tsteq	r0, r2
    1f3c:	00005400 	andeq	r5, r0, r0, lsl #8
    1f40:	00000000 	andeq	r0, r0, r0
    1f44:	02180000 	andseq	r0, r8, #0
    1f48:	022c0000 	eoreq	r0, ip, #0
    1f4c:	00010000 	andeq	r0, r1, r0
    1f50:	00000058 	andeq	r0, r0, r8, asr r0
    1f54:	00000000 	andeq	r0, r0, r0
    1f58:	00021c00 	andeq	r1, r2, r0, lsl #24
    1f5c:	00022000 	andeq	r2, r2, r0
    1f60:	53000100 	movwpl	r0, #256	; 0x100
	...
    1f6c:	0000023c 	andeq	r0, r0, ip, lsr r2
    1f70:	000002d0 	ldrdeq	r0, [r0], -r0	; <UNPREDICTABLE>
    1f74:	00540001 	subseq	r0, r4, r1
    1f78:	00000000 	andeq	r0, r0, r0
    1f7c:	3c000000 	stccc	0, cr0, [r0], {-0}
    1f80:	50000002 	andpl	r0, r0, r2
    1f84:	01000002 	tsteq	r0, r2
    1f88:	00005800 	andeq	r5, r0, r0, lsl #16
    1f8c:	00000000 	andeq	r0, r0, r0
    1f90:	02400000 	subeq	r0, r0, #0
    1f94:	02440000 	subeq	r0, r4, #0
    1f98:	00010000 	andeq	r0, r1, r0
    1f9c:	00000053 	andeq	r0, r0, r3, asr r0
    1fa0:	00000000 	andeq	r0, r0, r0
    1fa4:	00026000 	andeq	r6, r2, r0
    1fa8:	0002d000 	andeq	sp, r2, r0
    1fac:	54000100 	strpl	r0, [r0], #-256	; 0x100
	...
    1fb8:	00000260 	andeq	r0, r0, r0, ror #4
    1fbc:	00000274 	andeq	r0, r0, r4, ror r2
    1fc0:	00580001 	subseq	r0, r8, r1
    1fc4:	00000000 	andeq	r0, r0, r0
    1fc8:	64000000 	strvs	r0, [r0], #-0
    1fcc:	68000002 	stmdavs	r0, {r1}
    1fd0:	01000002 	tsteq	r0, r2
    1fd4:	00005300 	andeq	r5, r0, r0, lsl #6
    1fd8:	00000000 	andeq	r0, r0, r0
    1fdc:	02840000 	addeq	r0, r4, #0
    1fe0:	02d00000 	sbcseq	r0, r0, #0
    1fe4:	00010000 	andeq	r0, r1, r0
    1fe8:	00000054 	andeq	r0, r0, r4, asr r0
    1fec:	00000000 	andeq	r0, r0, r0
    1ff0:	00028400 	andeq	r8, r2, r0, lsl #8
    1ff4:	00029800 	andeq	r9, r2, r0, lsl #16
    1ff8:	58000100 	stmdapl	r0, {r8}
	...
    2004:	00000288 	andeq	r0, r0, r8, lsl #5
    2008:	0000028c 	andeq	r0, r0, ip, lsl #5
    200c:	00530001 	subseq	r0, r3, r1
    2010:	00000000 	andeq	r0, r0, r0
    2014:	a8000000 	stmdage	r0, {}	; <UNPREDICTABLE>
    2018:	d0000002 	andle	r0, r0, r2
    201c:	01000002 	tsteq	r0, r2
    2020:	00005400 	andeq	r5, r0, r0, lsl #8
    2024:	00000000 	andeq	r0, r0, r0
    2028:	02ac0000 	adceq	r0, ip, #0
    202c:	02b00000 	adcseq	r0, r0, #0
    2030:	00010000 	andeq	r0, r1, r0
    2034:	00000053 	andeq	r0, r0, r3, asr r0
    2038:	00000000 	andeq	r0, r0, r0
    203c:	0002c800 	andeq	ip, r2, r0, lsl #16
    2040:	00030c00 	andeq	r0, r3, r0, lsl #24
    2044:	30000200 	andcc	r0, r0, r0, lsl #4
    2048:	0003149f 	muleq	r3, pc, r4	; <UNPREDICTABLE>
    204c:	00031c00 	andeq	r1, r3, r0, lsl #24
    2050:	30000200 	andcc	r0, r0, r0, lsl #4
    2054:	0000009f 	muleq	r0, pc, r0	; <UNPREDICTABLE>
    2058:	00000000 	andeq	r0, r0, r0
    205c:	0002c800 	andeq	ip, r2, r0, lsl #16
    2060:	00030c00 	andeq	r0, r3, r0, lsl #24
    2064:	55000100 	strpl	r0, [r0, #-256]	; 0x100
    2068:	00000314 	andeq	r0, r0, r4, lsl r3
    206c:	0000031c 	andeq	r0, r0, ip, lsl r3
    2070:	00550001 	subseq	r0, r5, r1
    2074:	00000000 	andeq	r0, r0, r0
    2078:	d0000000 	andle	r0, r0, r0
    207c:	0c000002 	stceq	0, cr0, [r0], {2}
    2080:	01000003 	tsteq	r0, r3
    2084:	03145400 	tsteq	r4, #0, 8
    2088:	031c0000 	tsteq	ip, #0
    208c:	00010000 	andeq	r0, r1, r0
    2090:	00000054 	andeq	r0, r0, r4, asr r0
    2094:	00000000 	andeq	r0, r0, r0
    2098:	00031c00 	andeq	r1, r3, r0, lsl #24
    209c:	00033b00 	andeq	r3, r3, r0, lsl #22
    20a0:	50000100 	andpl	r0, r0, r0, lsl #2
    20a4:	0000033b 	andeq	r0, r0, fp, lsr r3
    20a8:	00000354 	andeq	r0, r0, r4, asr r3
    20ac:	54580001 	ldrbpl	r0, [r8], #-1
    20b0:	64000003 	strvs	r0, [r0], #-3
    20b4:	01000003 	tsteq	r0, r3
    20b8:	03645000 	cmneq	r4, #0
    20bc:	03ac0000 			; <UNDEFINED> instruction: 0x03ac0000
    20c0:	00010000 	andeq	r0, r1, r0
    20c4:	00000058 	andeq	r0, r0, r8, asr r0
    20c8:	00000000 	andeq	r0, r0, r0
    20cc:	00031c00 	andeq	r1, r3, r0, lsl #24
    20d0:	00033b00 	andeq	r3, r3, r0, lsl #22
    20d4:	51000100 	mrspl	r0, (UNDEF: 16)
    20d8:	0000033b 	andeq	r0, r0, fp, lsr r3
    20dc:	00000354 	andeq	r0, r0, r4, asr r3
    20e0:	54560001 	ldrbpl	r0, [r6], #-1
    20e4:	64000003 	strvs	r0, [r0], #-3
    20e8:	01000003 	tsteq	r0, r3
    20ec:	03645100 	cmneq	r4, #0, 2
    20f0:	03ac0000 			; <UNDEFINED> instruction: 0x03ac0000
    20f4:	00010000 	andeq	r0, r1, r0
    20f8:	00000056 	andeq	r0, r0, r6, asr r0
    20fc:	00000000 	andeq	r0, r0, r0
    2100:	00031c00 	andeq	r1, r3, r0, lsl #24
    2104:	00033b00 	andeq	r3, r3, r0, lsl #22
    2108:	52000100 	andpl	r0, r0, #0, 2
    210c:	0000033b 	andeq	r0, r0, fp, lsr r3
    2110:	00000354 	andeq	r0, r0, r4, asr r3
    2114:	01f30004 	mvnseq	r0, r4
    2118:	03549f52 	cmpeq	r4, #328	; 0x148
    211c:	03640000 	cmneq	r4, #0
    2120:	00010000 	andeq	r0, r1, r0
    2124:	00036452 	andeq	r6, r3, r2, asr r4
    2128:	0003ac00 	andeq	sl, r3, r0, lsl #24
    212c:	77000300 	strvc	r0, [r0, -r0, lsl #6]
    2130:	00009f01 	andeq	r9, r0, r1, lsl #30
    2134:	00000000 	andeq	r0, r0, r0
    2138:	031c0000 	tsteq	ip, #0
    213c:	033b0000 	teqeq	fp, #0
    2140:	00010000 	andeq	r0, r1, r0
    2144:	00033b53 	andeq	r3, r3, r3, asr fp
    2148:	00035400 	andeq	r5, r3, r0, lsl #8
    214c:	f3000400 	vshl.u8	d0, d0, d0
    2150:	549f5301 	ldrpl	r5, [pc], #769	; 2158 <_start-0x5ea8>
    2154:	64000003 	strvs	r0, [r0], #-3
    2158:	01000003 	tsteq	r0, r3
    215c:	03645300 	cmneq	r4, #0, 6
    2160:	03ac0000 			; <UNDEFINED> instruction: 0x03ac0000
    2164:	00040000 	andeq	r0, r4, r0
    2168:	9f5301f3 	svcls	0x005301f3
	...
    2174:	0000035c 	andeq	r0, r0, ip, asr r3
    2178:	00000364 	andeq	r0, r0, r4, ror #6
    217c:	9f300002 	svcls	0x00300002
    2180:	00000364 	andeq	r0, r0, r4, ror #6
    2184:	000003ac 	andeq	r0, r0, ip, lsr #7
    2188:	00540001 	subseq	r0, r4, r1
    218c:	00000000 	andeq	r0, r0, r0
    2190:	74000000 	strvc	r0, [r0], #-0
    2194:	84000003 	strhi	r0, [r0], #-3
    2198:	01000003 	tsteq	r0, r3
    219c:	00005000 	andeq	r5, r0, r0
    21a0:	00000000 	andeq	r0, r0, r0
    21a4:	03ac0000 			; <UNDEFINED> instruction: 0x03ac0000
    21a8:	03c70000 	biceq	r0, r7, #0
    21ac:	00010000 	andeq	r0, r1, r0
    21b0:	0003c750 	andeq	ip, r3, r0, asr r7
    21b4:	0003e000 	andeq	lr, r3, r0
    21b8:	57000100 	strpl	r0, [r0, -r0, lsl #2]
    21bc:	000003e0 	andeq	r0, r0, r0, ror #7
    21c0:	000003f0 	strdeq	r0, [r0], -r0	; <UNPREDICTABLE>
    21c4:	f0500001 			; <UNDEFINED> instruction: 0xf0500001
    21c8:	28000003 	stmdacs	r0, {r0, r1}
    21cc:	01000004 	tsteq	r0, r4
    21d0:	00005700 	andeq	r5, r0, r0, lsl #14
    21d4:	00000000 	andeq	r0, r0, r0
    21d8:	03ac0000 			; <UNDEFINED> instruction: 0x03ac0000
    21dc:	03c70000 	biceq	r0, r7, #0
    21e0:	00010000 	andeq	r0, r1, r0
    21e4:	0003c751 	andeq	ip, r3, r1, asr r7
    21e8:	0003e000 	andeq	lr, r3, r0
    21ec:	55000100 	strpl	r0, [r0, #-256]	; 0x100
    21f0:	000003e0 	andeq	r0, r0, r0, ror #7
    21f4:	000003f0 	strdeq	r0, [r0], -r0	; <UNPREDICTABLE>
    21f8:	f0510001 			; <UNDEFINED> instruction: 0xf0510001
    21fc:	28000003 	stmdacs	r0, {r0, r1}
    2200:	01000004 	tsteq	r0, r4
    2204:	00005500 	andeq	r5, r0, r0, lsl #10
    2208:	00000000 	andeq	r0, r0, r0
    220c:	03ac0000 			; <UNDEFINED> instruction: 0x03ac0000
    2210:	03c70000 	biceq	r0, r7, #0
    2214:	00010000 	andeq	r0, r1, r0
    2218:	0003c752 	andeq	ip, r3, r2, asr r7
    221c:	0003e000 	andeq	lr, r3, r0
    2220:	f3000400 	vshl.u8	d0, d0, d0
    2224:	e09f5201 	adds	r5, pc, r1, lsl #4
    2228:	f0000003 			; <UNDEFINED> instruction: 0xf0000003
    222c:	01000003 	tsteq	r0, r3
    2230:	03f05200 	mvnseq	r5, #0, 4
    2234:	04280000 	strteq	r0, [r8], #-0
    2238:	00030000 	andeq	r0, r3, r0
    223c:	009f0176 	addseq	r0, pc, r6, ror r1	; <UNPREDICTABLE>
    2240:	00000000 	andeq	r0, r0, r0
    2244:	ac000000 	stcge	0, cr0, [r0], {-0}
    2248:	c7000003 	strgt	r0, [r0, -r3]
    224c:	01000003 	tsteq	r0, r3
    2250:	03c75300 	biceq	r5, r7, #0, 6
    2254:	03e00000 	mvneq	r0, #0
    2258:	00010000 	andeq	r0, r1, r0
    225c:	0003e058 	andeq	lr, r3, r8, asr r0
    2260:	0003f000 	andeq	pc, r3, r0
    2264:	53000100 	movwpl	r0, #256	; 0x100
    2268:	000003f0 	strdeq	r0, [r0], -r0	; <UNPREDICTABLE>
    226c:	00000428 	andeq	r0, r0, r8, lsr #8
    2270:	00580001 	subseq	r0, r8, r1
    2274:	00000000 	andeq	r0, r0, r0
    2278:	e8000000 	stmda	r0, {}	; <UNPREDICTABLE>
    227c:	f0000003 			; <UNDEFINED> instruction: 0xf0000003
    2280:	02000003 	andeq	r0, r0, #3
    2284:	f09f3000 			; <UNDEFINED> instruction: 0xf09f3000
    2288:	28000003 	stmdacs	r0, {r0, r1}
    228c:	01000004 	tsteq	r0, r4
    2290:	00005400 	andeq	r5, r0, r0, lsl #8
    2294:	00000000 	andeq	r0, r0, r0
    2298:	04280000 	strteq	r0, [r8], #-0
    229c:	04470000 	strbeq	r0, [r7], #-0
    22a0:	00010000 	andeq	r0, r1, r0
    22a4:	00044751 	andeq	r4, r4, r1, asr r7
    22a8:	0004e800 	andeq	lr, r4, r0, lsl #16
    22ac:	f3000400 	vshl.u8	d0, d0, d0
    22b0:	009f5101 	addseq	r5, pc, r1, lsl #2
    22b4:	00000000 	andeq	r0, r0, r0
    22b8:	28000000 	stmdacs	r0, {}	; <UNPREDICTABLE>
    22bc:	47000004 	strmi	r0, [r0, -r4]
    22c0:	01000004 	tsteq	r0, r4
    22c4:	04475200 	strbeq	r5, [r7], #-512	; 0x200
    22c8:	04e80000 	strbteq	r0, [r8], #0
    22cc:	00040000 	andeq	r0, r4, r0
    22d0:	9f5201f3 	svcls	0x005201f3
	...
    22dc:	00000428 	andeq	r0, r0, r8, lsr #8
    22e0:	00000447 	andeq	r0, r0, r7, asr #8
    22e4:	47530001 	ldrbmi	r0, [r3, -r1]
    22e8:	e8000004 	stmda	r0, {r2}
    22ec:	01000004 	tsteq	r0, r4
    22f0:	00005500 	andeq	r5, r0, r0, lsl #10
    22f4:	00000000 	andeq	r0, r0, r0
    22f8:	04680000 	strbteq	r0, [r8], #-0
    22fc:	04a70000 	strteq	r0, [r7], #0
    2300:	00010000 	andeq	r0, r1, r0
    2304:	0004a752 	andeq	sl, r4, r2, asr r7
    2308:	0004c000 	andeq	ip, r4, r0
    230c:	75000600 	strvc	r0, [r0, #-1536]	; 0x600
    2310:	1e007700 	cdpne	7, 0, cr7, cr0, cr0, {0}
    2314:	0004c09f 	muleq	r4, pc, r0	; <UNPREDICTABLE>
    2318:	0004e800 	andeq	lr, r4, r0, lsl #16
    231c:	52000100 	andpl	r0, r0, #0, 2
	...
    2328:	000004e8 	andeq	r0, r0, r8, ror #9
    232c:	000004f3 	strdeq	r0, [r0], -r3
    2330:	f3500001 	vhadd.u16	d16, d0, d1
    2334:	24000004 	strcs	r0, [r0], #-4
    2338:	04000005 	streq	r0, [r0], #-5
    233c:	5001f300 	andpl	pc, r1, r0, lsl #6
    2340:	0000009f 	muleq	r0, pc, r0	; <UNPREDICTABLE>
    2344:	00000000 	andeq	r0, r0, r0
    2348:	0004f400 	andeq	pc, r4, r0, lsl #8
    234c:	0004ff00 	andeq	pc, r4, r0, lsl #30
    2350:	50000100 	andpl	r0, r0, r0, lsl #2
	...
    235c:	00000524 	andeq	r0, r0, r4, lsr #10
    2360:	00000534 	andeq	r0, r0, r4, lsr r5
    2364:	34500001 	ldrbcc	r0, [r0], #-1
    2368:	50000005 	andpl	r0, r0, r5
    236c:	01000005 	tsteq	r0, r5
    2370:	00005500 	andeq	r5, r0, r0, lsl #10
    2374:	00000000 	andeq	r0, r0, r0
    2378:	05240000 	streq	r0, [r4, #-0]!
    237c:	05340000 	ldreq	r0, [r4, #-0]!
    2380:	00010000 	andeq	r0, r1, r0
    2384:	00053451 	andeq	r3, r5, r1, asr r4
    2388:	00055000 	andeq	r5, r5, r0
    238c:	54000100 	strpl	r0, [r0], #-256	; 0x100
	...
    2398:	00000550 	andeq	r0, r0, r0, asr r5
    239c:	0000056c 	andeq	r0, r0, ip, ror #10
    23a0:	6c500001 	mrrcvs	0, 0, r0, r0, cr1	; <UNPREDICTABLE>
    23a4:	bc000005 	stclt	0, cr0, [r0], {5}
    23a8:	01000005 	tsteq	r0, r5
    23ac:	05bc5500 	ldreq	r5, [ip, #1280]!	; 0x500
    23b0:	05d40000 	ldrbeq	r0, [r4]
    23b4:	00040000 	andeq	r0, r4, r0
    23b8:	9f5001f3 	svcls	0x005001f3
	...
    23c4:	0000057c 	andeq	r0, r0, ip, ror r5
    23c8:	0000058b 	andeq	r0, r0, fp, lsl #11
    23cc:	8b500001 	blhi	14023d8 <__bss_end__+0x13f3a10>
    23d0:	a4000005 	strge	r0, [r0], #-5
    23d4:	01000005 	tsteq	r0, r5
    23d8:	05a45400 	streq	r5, [r4, #1024]!	; 0x400
    23dc:	05a80000 	streq	r0, [r8, #0]!
    23e0:	00010000 	andeq	r0, r1, r0
    23e4:	0005a850 	andeq	sl, r5, r0, asr r8
    23e8:	0005bc00 	andeq	fp, r5, r0, lsl #24
    23ec:	54000100 	strpl	r0, [r0], #-256	; 0x100
    23f0:	000005bc 			; <UNDEFINED> instruction: 0x000005bc
    23f4:	000005d4 	ldrdeq	r0, [r0], -r4
    23f8:	00500001 	subseq	r0, r0, r1
    23fc:	00000000 	andeq	r0, r0, r0
    2400:	d4000000 	strle	r0, [r0], #-0
    2404:	e7000005 	str	r0, [r0, -r5]
    2408:	01000005 	tsteq	r0, r5
    240c:	05e75000 	strbeq	r5, [r7, #0]!
    2410:	06200000 	strteq	r0, [r0], -r0
    2414:	00040000 	andeq	r0, r4, r0
    2418:	9f5001f3 	svcls	0x005001f3
	...
    2424:	000005d4 	ldrdeq	r0, [r0], -r4
    2428:	000005e7 	andeq	r0, r0, r7, ror #11
    242c:	e7510001 	ldrb	r0, [r1, -r1]
    2430:	20000005 	andcs	r0, r0, r5
    2434:	04000006 	streq	r0, [r0], #-6
    2438:	5101f300 	mrspl	pc, SP_irq	; <UNPREDICTABLE>
    243c:	0000009f 	muleq	r0, pc, r0	; <UNPREDICTABLE>
    2440:	00000000 	andeq	r0, r0, r0
    2444:	0005d400 	andeq	sp, r5, r0, lsl #8
    2448:	0005e700 	andeq	lr, r5, r0, lsl #14
    244c:	52000100 	andpl	r0, r0, #0, 2
    2450:	000005e7 	andeq	r0, r0, r7, ror #11
    2454:	00000620 	andeq	r0, r0, r0, lsr #12
    2458:	01f30004 	mvnseq	r0, r4
    245c:	00009f52 	andeq	r9, r0, r2, asr pc
    2460:	00000000 	andeq	r0, r0, r0
    2464:	05d40000 	ldrbeq	r0, [r4]
    2468:	05e70000 	strbeq	r0, [r7, #0]!
    246c:	00010000 	andeq	r0, r1, r0
    2470:	0005e753 	andeq	lr, r5, r3, asr r7
    2474:	00062000 	andeq	r2, r6, r0
    2478:	f3000400 	vshl.u8	d0, d0, d0
    247c:	009f5301 	addseq	r5, pc, r1, lsl #6
    2480:	00000000 	andeq	r0, r0, r0
    2484:	e8000000 	stmda	r0, {}	; <UNPREDICTABLE>
    2488:	f3000005 	vhadd.u8	d0, d0, d5
    248c:	01000005 	tsteq	r0, r5
    2490:	060c5000 	streq	r5, [ip], -r0
    2494:	06200000 	strteq	r0, [r0], -r0
    2498:	00010000 	andeq	r0, r1, r0
    249c:	00000050 	andeq	r0, r0, r0, asr r0
    24a0:	00000000 	andeq	r0, r0, r0
    24a4:	0000fc00 	andeq	pc, r0, r0, lsl #24
    24a8:	00010400 	andeq	r0, r1, r0, lsl #8
    24ac:	50000100 	andpl	r0, r0, r0, lsl #2
    24b0:	00000104 	andeq	r0, r0, r4, lsl #2
    24b4:	00000128 	andeq	r0, r0, r8, lsr #2
    24b8:	00540001 	subseq	r0, r4, r1
    24bc:	00000000 	andeq	r0, r0, r0
    24c0:	30000000 	andcc	r0, r0, r0
    24c4:	3c000000 	stccc	0, cr0, [r0], {-0}
    24c8:	02000000 	andeq	r0, r0, #0
    24cc:	3c9f3000 	ldccc	0, cr3, [pc], {0}
    24d0:	68000000 	stmdavs	r0, {}	; <UNPREDICTABLE>
    24d4:	01000000 	mrseq	r0, (UNDEF: 0)
    24d8:	00005300 	andeq	r5, r0, r0, lsl #6
    24dc:	00000000 	andeq	r0, r0, r0
    24e0:	00680000 	rsbeq	r0, r8, r0
    24e4:	00770000 	rsbseq	r0, r7, r0
    24e8:	00010000 	andeq	r0, r1, r0
    24ec:	00007750 	andeq	r7, r0, r0, asr r7
    24f0:	0000ac00 	andeq	sl, r0, r0, lsl #24
    24f4:	54000100 	strpl	r0, [r0], #-256	; 0x100
	...
    2500:	000000ac 	andeq	r0, r0, ip, lsr #1
    2504:	000000bb 	strheq	r0, [r0], -fp
    2508:	bb500001 	bllt	1402514 <__bss_end__+0x13f3b4c>
    250c:	f0000000 			; <UNDEFINED> instruction: 0xf0000000
    2510:	01000000 	mrseq	r0, (UNDEF: 0)
    2514:	00005400 	andeq	r5, r0, r0, lsl #8
    2518:	00000000 	andeq	r0, r0, r0
    251c:	00f00000 	rscseq	r0, r0, r0
    2520:	00ff0000 	rscseq	r0, pc, r0
    2524:	00010000 	andeq	r0, r1, r0
    2528:	0000ff50 	andeq	pc, r0, r0, asr pc	; <UNPREDICTABLE>
    252c:	00013400 	andeq	r3, r1, r0, lsl #8
    2530:	54000100 	strpl	r0, [r0], #-256	; 0x100
	...
    253c:	00000134 	andeq	r0, r0, r4, lsr r1
    2540:	00000143 	andeq	r0, r0, r3, asr #2
    2544:	43500001 	cmpmi	r0, #1
    2548:	78000001 	stmdavc	r0, {r0}
    254c:	01000001 	tsteq	r0, r1
    2550:	00005400 	andeq	r5, r0, r0, lsl #8
    2554:	00000000 	andeq	r0, r0, r0
    2558:	01780000 	cmneq	r8, r0
    255c:	01870000 	orreq	r0, r7, r0
    2560:	00010000 	andeq	r0, r1, r0
    2564:	00018750 	andeq	r8, r1, r0, asr r7
    2568:	0001bc00 	andeq	fp, r1, r0, lsl #24
    256c:	54000100 	strpl	r0, [r0], #-256	; 0x100
	...
    2578:	000001bc 			; <UNDEFINED> instruction: 0x000001bc
    257c:	000001cb 	andeq	r0, r0, fp, asr #3
    2580:	cb500001 	blgt	140258c <__bss_end__+0x13f3bc4>
    2584:	00000001 	andeq	r0, r0, r1
    2588:	01000002 	tsteq	r0, r2
    258c:	00005400 	andeq	r5, r0, r0, lsl #8
    2590:	00000000 	andeq	r0, r0, r0
	...

Disassembly of section .debug_aranges:

00000000 <.debug_aranges>:
   0:	0000001c 	andeq	r0, r0, ip, lsl r0
   4:	00000002 	andeq	r0, r0, r2
   8:	00040000 	andeq	r0, r4, r0
   c:	00000000 	andeq	r0, r0, r0
  10:	00008010 	andeq	r8, r0, r0, lsl r0
  14:	00000770 	andeq	r0, r0, r0, ror r7
	...
  20:	0000001c 	andeq	r0, r0, ip, lsl r0
  24:	10ac0002 	adcne	r0, ip, r2
  28:	00040000 	andeq	r0, r4, r0
  2c:	00000000 	andeq	r0, r0, r0
  30:	00008780 	andeq	r8, r0, r0, lsl #15
  34:	00000020 	andeq	r0, r0, r0, lsr #32
	...
  40:	0000001c 	andeq	r0, r0, ip, lsl r0
  44:	118b0002 	orrne	r0, fp, r2
  48:	00040000 	andeq	r0, r4, r0
  4c:	00000000 	andeq	r0, r0, r0
  50:	000087a0 	andeq	r8, r0, r0, lsr #15
  54:	00000058 	andeq	r0, r0, r8, asr r0
	...
  60:	0000001c 	andeq	r0, r0, ip, lsl r0
  64:	13200002 	teqne	r0, #2
  68:	00040000 	andeq	r0, r4, r0
  6c:	00000000 	andeq	r0, r0, r0
  70:	000087f8 	strdeq	r8, [r0], -r8	; <UNPREDICTABLE>
  74:	0000003c 	andeq	r0, r0, ip, lsr r0
	...
  80:	0000001c 	andeq	r0, r0, ip, lsl r0
  84:	14370002 	ldrtne	r0, [r7], #-2
  88:	00040000 	andeq	r0, r4, r0
  8c:	00000000 	andeq	r0, r0, r0
  90:	00008834 	andeq	r8, r0, r4, lsr r8
  94:	00000034 	andeq	r0, r0, r4, lsr r0
	...
  a0:	0000001c 	andeq	r0, r0, ip, lsl r0
  a4:	15290002 	strne	r0, [r9, #-2]!
  a8:	00040000 	andeq	r0, r4, r0
  ac:	00000000 	andeq	r0, r0, r0
  b0:	00008868 	andeq	r8, r0, r8, ror #16
  b4:	000004f8 	strdeq	r0, [r0], -r8
	...
  c0:	0000001c 	andeq	r0, r0, ip, lsl r0
  c4:	1bae0002 	blne	feb800d4 <__bss_end__+0xfeb7170c>
  c8:	00040000 	andeq	r0, r4, r0
  cc:	00000000 	andeq	r0, r0, r0
  d0:	00008d60 	andeq	r8, r0, r0, ror #26
  d4:	00000020 	andeq	r0, r0, r0, lsr #32
	...
  e0:	0000001c 	andeq	r0, r0, ip, lsl r0
  e4:	1c6a0002 	stclne	0, cr0, [sl], #-8
  e8:	00040000 	andeq	r0, r4, r0
  ec:	00000000 	andeq	r0, r0, r0
  f0:	00008d80 	andeq	r8, r0, r0, lsl #27
  f4:	00000028 	andeq	r0, r0, r8, lsr #32
	...
 100:	0000001c 	andeq	r0, r0, ip, lsl r0
 104:	1d6d0002 	stclne	0, cr0, [sp, #-8]!
 108:	00040000 	andeq	r0, r4, r0
 10c:	00000000 	andeq	r0, r0, r0
 110:	00008da8 	andeq	r8, r0, r8, lsr #27
 114:	000000b0 	strheq	r0, [r0], -r0	; <UNPREDICTABLE>
	...
 120:	0000001c 	andeq	r0, r0, ip, lsl r0
 124:	205a0002 	subscs	r0, sl, r2
 128:	00040000 	andeq	r0, r4, r0
 12c:	00000000 	andeq	r0, r0, r0
 130:	00008e58 	andeq	r8, r0, r8, asr lr
 134:	00000074 	andeq	r0, r0, r4, ror r0
	...
 140:	0000001c 	andeq	r0, r0, ip, lsl r0
 144:	220b0002 	andcs	r0, fp, #2
 148:	00040000 	andeq	r0, r4, r0
 14c:	00000000 	andeq	r0, r0, r0
 150:	00008ecc 	andeq	r8, r0, ip, asr #29
 154:	00000088 	andeq	r0, r0, r8, lsl #1
	...
 160:	0000001c 	andeq	r0, r0, ip, lsl r0
 164:	23e70002 	mvncs	r0, #2
 168:	00040000 	andeq	r0, r4, r0
 16c:	00000000 	andeq	r0, r0, r0
 170:	00008f54 	andeq	r8, r0, r4, asr pc
 174:	000005bc 			; <UNDEFINED> instruction: 0x000005bc
	...
 180:	0000001c 	andeq	r0, r0, ip, lsl r0
 184:	2cba0002 	ldccs	0, cr0, [sl], #8
 188:	00040000 	andeq	r0, r4, r0
 18c:	00000000 	andeq	r0, r0, r0
 190:	00009510 	andeq	r9, r0, r0, lsl r5
 194:	00000620 	andeq	r0, r0, r0, lsr #12
	...
 1a0:	0000001c 	andeq	r0, r0, ip, lsl r0
 1a4:	3e880002 	cdpcc	0, 8, cr0, cr8, cr2, {0}
 1a8:	00040000 	andeq	r0, r4, r0
 1ac:	00000000 	andeq	r0, r0, r0
 1b0:	00009b30 	andeq	r9, r0, r0, lsr fp
 1b4:	00000154 	andeq	r0, r0, r4, asr r1
	...
 1c0:	0000001c 	andeq	r0, r0, ip, lsl r0
 1c4:	428b0002 	addmi	r0, fp, #2
 1c8:	00040000 	andeq	r0, r4, r0
 1cc:	00000000 	andeq	r0, r0, r0
 1d0:	00009c84 	andeq	r9, r0, r4, lsl #25
 1d4:	00000200 	andeq	r0, r0, r0, lsl #4
	...
 1e0:	0000001c 	andeq	r0, r0, ip, lsl r0
 1e4:	481c0002 	ldmdami	ip, {r1}
 1e8:	00040000 	andeq	r0, r4, r0
 1ec:	00000000 	andeq	r0, r0, r0
 1f0:	00009fc0 	andeq	r9, r0, r0, asr #31
 1f4:	00000050 	andeq	r0, r0, r0, asr r0
	...

Disassembly of section .debug_ranges:

00000000 <.debug_ranges>:
   0:	000000f8 	strdeq	r0, [r0], -r8
   4:	00000138 	andeq	r0, r0, r8, lsr r1
   8:	0000013c 	andeq	r0, r0, ip, lsr r1
   c:	00000140 	andeq	r0, r0, r0, asr #2
	...
  18:	00000388 	andeq	r0, r0, r8, lsl #7
  1c:	0000039c 	muleq	r0, ip, r3
  20:	000003b4 			; <UNDEFINED> instruction: 0x000003b4
  24:	000003f0 	strdeq	r0, [r0], -r0	; <UNPREDICTABLE>
	...
  30:	00000388 	andeq	r0, r0, r8, lsl #7
  34:	00000394 	muleq	r0, r4, r3
  38:	000003b4 			; <UNDEFINED> instruction: 0x000003b4
  3c:	000003bc 			; <UNDEFINED> instruction: 0x000003bc
	...
  48:	000004ac 	andeq	r0, r0, ip, lsr #9
  4c:	000004c4 	andeq	r0, r0, r4, asr #9
  50:	000004d0 	ldrdeq	r0, [r0], -r0	; <UNPREDICTABLE>
  54:	0000050c 	andeq	r0, r0, ip, lsl #10
	...
  60:	000004ac 	andeq	r0, r0, ip, lsr #9
  64:	000004b8 			; <UNDEFINED> instruction: 0x000004b8
  68:	000004d0 	ldrdeq	r0, [r0], -r0	; <UNPREDICTABLE>
  6c:	000004d8 	ldrdeq	r0, [r0], -r8
	...
  78:	00000294 	muleq	r0, r4, r2
  7c:	00000298 	muleq	r0, r8, r2
  80:	000002c8 	andeq	r0, r0, r8, asr #5
  84:	000004b8 			; <UNDEFINED> instruction: 0x000004b8
	...
  90:	00008e58 	andeq	r8, r0, r8, asr lr
  94:	00008ecc 	andeq	r8, r0, ip, asr #29
	...

Disassembly of section .debug_line:

00000000 <.debug_line>:
       0:	00000407 	andeq	r0, r0, r7, lsl #8
       4:	02670002 	rsbeq	r0, r7, #2
       8:	01020000 	mrseq	r0, (UNDEF: 2)
       c:	000d0efb 	strdeq	r0, [sp], -fp
      10:	01010101 	tsteq	r1, r1, lsl #2
      14:	01000000 	mrseq	r0, (UNDEF: 0)
      18:	2f010000 	svccs	0x00010000
      1c:	72657355 	rsbvc	r7, r5, #1409286145	; 0x54000001
      20:	72622f73 	rsbvc	r2, r2, #460	; 0x1cc
      24:	6a6e6169 	bvs	1b985d0 <__bss_end__+0x1b89c08>
      28:	442f6e75 	strtmi	r6, [pc], #-3701	; 30 <_start-0x7fd0>
      2c:	746b7365 	strbtvc	r7, [fp], #-869	; 0x365
      30:	732f706f 	teqvc	pc, #111	; 0x6f
      34:	6f6f6863 	svcvs	0x006f6863
      38:	69572f6c 	ldmdbvs	r7, {r2, r3, r5, r6, r8, r9, sl, fp, sp}^
      3c:	7265746e 	rsbvc	r7, r5, #1845493760	; 0x6e000000
      40:	30323931 	eorscc	r3, r2, r1, lsr r9
      44:	3153432f 	cmpcc	r3, pc, lsr #6
      48:	2f453034 	svccs	0x00453034
      4c:	34317363 	ldrtcc	r7, [r1], #-867	; 0x363
      50:	322d6530 	eorcc	r6, sp, #48, 10	; 0xc000000
      54:	6e697730 	mcrvs	7, 3, r7, cr9, cr0, {1}
      58:	62696c2f 	rsbvs	r6, r9, #12032	; 0x2f00
      5c:	6c2f6970 	stcvs	9, cr6, [pc], #-448	; fffffea4 <__bss_end__+0xffff14dc>
      60:	00636269 	rsbeq	r6, r3, r9, ror #4
      64:	7273752f 	rsbsvc	r7, r3, #197132288	; 0xbc00000
      68:	636f6c2f 	cmnvs	pc, #12032	; 0x2f00
      6c:	432f6c61 	teqmi	pc, #24832	; 0x6100
      70:	616c6c65 	cmnvs	ip, r5, ror #24
      74:	72612f72 	rsbvc	r2, r1, #456	; 0x1c8
      78:	6f6e2d6d 	svcvs	0x006e2d6d
      7c:	652d656e 	strvs	r6, [sp, #-1390]!	; 0x56e
      80:	2f696261 	svccs	0x00696261
      84:	2e382e34 	mrccs	14, 1, r2, cr8, cr4, {1}
      88:	73632d33 	cmnvc	r3, #3264	; 0xcc0
      8c:	65303731 	ldrvs	r3, [r0, #-1841]!	; 0x731
      90:	62696c2f 	rsbvs	r6, r9, #12032	; 0x2f00
      94:	6363672f 	cmnvs	r3, #12320768	; 0xbc0000
      98:	6d72612f 	ldfvse	f6, [r2, #-188]!	; 0xffffff44
      9c:	6e6f6e2d 	cdpvs	14, 6, cr6, cr15, cr13, {1}
      a0:	61652d65 	cmnvs	r5, r5, ror #26
      a4:	342f6962 	strtcc	r6, [pc], #-2402	; ac <_start-0x7f54>
      a8:	332e382e 	teqcc	lr, #3014656	; 0x2e0000
      ac:	636e692f 	cmnvs	lr, #770048	; 0xbc000
      b0:	6564756c 	strbvs	r7, [r4, #-1388]!	; 0x56c
      b4:	73552f00 	cmpvc	r5, #0, 30
      b8:	2f737265 	svccs	0x00737265
      bc:	61697262 	cmnvs	r9, r2, ror #4
      c0:	6e756a6e 	vsubvs.f32	s13, s10, s29
      c4:	7365442f 	cmnvc	r5, #788529152	; 0x2f000000
      c8:	706f746b 	rsbvc	r7, pc, fp, ror #8
      cc:	6863732f 	stmdavs	r3!, {r0, r1, r2, r3, r5, r8, r9, ip, sp, lr}^
      d0:	2f6c6f6f 	svccs	0x006c6f6f
      d4:	746e6957 	strbtvc	r6, [lr], #-2391	; 0x957
      d8:	39317265 	ldmdbcc	r1!, {r0, r2, r5, r6, r9, ip, sp, lr}
      dc:	432f3032 	teqmi	pc, #50	; 0x32
      e0:	30343153 	eorscc	r3, r4, r3, asr r1
      e4:	73632f45 	cmnvc	r3, #276	; 0x114
      e8:	65303431 	ldrvs	r3, [r0, #-1073]!	; 0x431
      ec:	7730322d 	ldrvc	r3, [r0, -sp, lsr #4]!
      f0:	6c2f6e69 	stcvs	14, cr6, [pc], #-420	; ffffff54 <__bss_end__+0xffff158c>
      f4:	69706269 	ldmdbvs	r0!, {r0, r3, r5, r6, r9, sp, lr}^
      f8:	3173632f 	cmncc	r3, pc, lsr #6
      fc:	2d653034 	stclcs	0, cr3, [r5, #-208]!	; 0xffffff30
     100:	00637273 	rsbeq	r7, r3, r3, ror r2
     104:	6573552f 	ldrbvs	r5, [r3, #-1327]!	; 0x52f
     108:	622f7372 	eorvs	r7, pc, #-939524095	; 0xc8000001
     10c:	6e616972 	mcrvs	9, 3, r6, cr1, cr2, {3}
     110:	2f6e756a 	svccs	0x006e756a
     114:	6b736544 	blvs	1cd962c <__bss_end__+0x1ccac64>
     118:	2f706f74 	svccs	0x00706f74
     11c:	6f686373 	svcvs	0x00686373
     120:	572f6c6f 	strpl	r6, [pc, -pc, ror #24]!
     124:	65746e69 	ldrbvs	r6, [r4, #-3689]!	; 0xe69
     128:	32393172 	eorscc	r3, r9, #-2147483620	; 0x8000001c
     12c:	53432f30 	movtpl	r2, #16176	; 0x3f30
     130:	45303431 	ldrmi	r3, [r0, #-1073]!	; 0x431
     134:	3173632f 	cmncc	r3, pc, lsr #6
     138:	2d653034 	stclcs	0, cr3, [r5, #-208]!	; 0xffffff30
     13c:	69773032 	ldmdbvs	r7!, {r1, r4, r5, ip, sp}^
     140:	696c2f6e 	stmdbvs	ip!, {r1, r2, r3, r5, r6, r8, r9, sl, fp, sp}^
     144:	2f697062 	svccs	0x00697062
     148:	34317363 	ldrtcc	r7, [r1], #-867	; 0x363
     14c:	692d6530 	pushvs	{r4, r5, r8, sl, sp, lr}
     150:	7265746e 	rsbvc	r7, r5, #1845493760	; 0x6e000000
     154:	74707572 	ldrbtvc	r7, [r0], #-1394	; 0x572
     158:	73752f00 	cmnvc	r5, #0, 30
     15c:	6f6c2f72 	svcvs	0x006c2f72
     160:	2f6c6163 	svccs	0x006c6163
     164:	6c6c6543 	cfstr64vs	mvdx6, [ip], #-268	; 0xfffffef4
     168:	612f7261 	teqvs	pc, r1, ror #4
     16c:	6e2d6d72 	mcrvs	13, 1, r6, cr13, cr2, {3}
     170:	2d656e6f 	stclcs	14, cr6, [r5, #-444]!	; 0xfffffe44
     174:	69626165 	stmdbvs	r2!, {r0, r2, r5, r6, r8, sp, lr}^
     178:	382e342f 	stmdacc	lr!, {r0, r1, r2, r3, r5, sl, ip, sp}
     17c:	632d332e 	teqvs	sp, #-1207959552	; 0xb8000000
     180:	30373173 	eorscc	r3, r7, r3, ror r1
     184:	72612f65 	rsbvc	r2, r1, #404	; 0x194
     188:	6f6e2d6d 	svcvs	0x006e2d6d
     18c:	652d656e 	strvs	r6, [sp, #-1390]!	; 0x56e
     190:	2f696261 	svccs	0x00696261
     194:	6c636e69 	stclvs	14, cr6, [r3], #-420	; 0xfffffe5c
     198:	00656475 	rsbeq	r6, r5, r5, ror r4
     19c:	6573552f 	ldrbvs	r5, [r3, #-1327]!	; 0x52f
     1a0:	622f7372 	eorvs	r7, pc, #-939524095	; 0xc8000001
     1a4:	6e616972 	mcrvs	9, 3, r6, cr1, cr2, {3}
     1a8:	2f6e756a 	svccs	0x006e756a
     1ac:	6b736544 	blvs	1cd96c4 <__bss_end__+0x1ccacfc>
     1b0:	2f706f74 	svccs	0x00706f74
     1b4:	6f686373 	svcvs	0x00686373
     1b8:	572f6c6f 	strpl	r6, [pc, -pc, ror #24]!
     1bc:	65746e69 	ldrbvs	r6, [r4, #-3689]!	; 0xe69
     1c0:	32393172 	eorscc	r3, r9, #-2147483620	; 0x8000001c
     1c4:	53432f30 	movtpl	r2, #16176	; 0x3f30
     1c8:	45303431 	ldrmi	r3, [r0, #-1073]!	; 0x431
     1cc:	3173632f 	cmncc	r3, pc, lsr #6
     1d0:	2d653034 	stclcs	0, cr3, [r5, #-208]!	; 0xffffff30
     1d4:	69773032 	ldmdbvs	r7!, {r1, r4, r5, ip, sp}^
     1d8:	696c2f6e 	stmdbvs	ip!, {r1, r2, r3, r5, r6, r8, r9, sl, fp, sp}^
     1dc:	00697062 	rsbeq	r7, r9, r2, rrx
     1e0:	72696300 	rsbvc	r6, r9, #0, 6
     1e4:	616c7563 	cmnvs	ip, r3, ror #10
     1e8:	00682e72 	rsbeq	r2, r8, r2, ror lr
     1ec:	31000001 	tstcc	r0, r1
     1f0:	6970672d 	ldmdbvs	r0!, {r0, r2, r3, r5, r8, r9, sl, sp, lr}^
     1f4:	6e692d6f 	cdpvs	13, 6, cr2, cr9, cr15, {3}
     1f8:	78652d74 	stmdavc	r5!, {r2, r4, r5, r6, r8, sl, fp, sp}^
     1fc:	0000632e 	andeq	r6, r0, lr, lsr #6
     200:	74730000 	ldrbtvc	r0, [r3], #-0
     204:	66656464 	strbtvs	r6, [r5], -r4, ror #8
     208:	0200682e 	andeq	r6, r0, #3014656	; 0x2e0000
     20c:	74730000 	ldrbtvc	r0, [r3], #-0
     210:	746e6964 	strbtvc	r6, [lr], #-2404	; 0x964
     214:	6363672d 	cmnvs	r3, #11796480	; 0xb40000
     218:	0200682e 	andeq	r6, r0, #3014656	; 0x2e0000
     21c:	70670000 	rsbvc	r0, r7, r0
     220:	682e6f69 	stmdavs	lr!, {r0, r3, r5, r6, r8, r9, sl, fp, sp, lr}
     224:	00000300 	andeq	r0, r0, r0, lsl #6
     228:	2d697072 	stclcs	0, cr7, [r9, #-456]!	; 0xfffffe38
     22c:	746d7261 	strbtvc	r7, [sp], #-609	; 0x261
     230:	72656d69 	rsbvc	r6, r5, #6720	; 0x1a40
     234:	0400682e 	streq	r6, [r0], #-2094	; 0x82e
     238:	77730000 	ldrbvc	r0, [r3, -r0]!
     23c:	7261752d 	rsbvc	r7, r1, #188743680	; 0xb400000
     240:	00682e74 	rsbeq	r2, r8, r4, ror lr
     244:	73000003 	movwvc	r0, #3
     248:	6e697274 	mcrvs	2, 3, r7, cr9, cr4, {3}
     24c:	00682e67 	rsbeq	r2, r8, r7, ror #28
     250:	72000005 	andvc	r0, r0, #5
     254:	682e6970 	stmdavs	lr!, {r4, r5, r6, r8, fp, sp, lr}
     258:	00000600 	andeq	r0, r0, r0, lsl #12
     25c:	2d697072 	stclcs	0, cr7, [r9, #-456]!	; 0xfffffe38
     260:	65746e69 	ldrbvs	r6, [r4, #-3689]!	; 0xe69
     264:	70757272 	rsbsvc	r7, r5, r2, ror r2
     268:	682e7374 	stmdavs	lr!, {r2, r4, r5, r6, r8, r9, ip, sp, lr}
     26c:	00000400 	andeq	r0, r0, r0, lsl #8
     270:	02050000 	andeq	r0, r5, #0
     274:	00008010 	andeq	r8, r0, r0, lsl r0
     278:	01019803 	tsteq	r1, r3, lsl #16
     27c:	9f676767 	svcls	0x00676767
     280:	7f9b034b 	svcvc	0x009b034b
     284:	00e603ba 	strhteq	r0, [r6], #58	; 0x3a
     288:	0402004a 	streq	r0, [r2], #-74	; 0x4a
     28c:	064a0601 	strbeq	r0, [sl], -r1, lsl #12
     290:	d67f9d03 	ldrbtle	r9, [pc], -r3, lsl #26
     294:	ba00e403 	blt	392a8 <__bss_end__+0x2a8e0>
     298:	01040200 	mrseq	r0, R12_usr
     29c:	03064a06 	movweq	r4, #27142	; 0x6a06
     2a0:	03d67f9e 	bicseq	r7, r6, #632	; 0x278
     2a4:	009e00e3 	addseq	r0, lr, r3, ror #1
     2a8:	06010402 	streq	r0, [r1], -r2, lsl #8
     2ac:	9803064a 	stmdals	r3, {r1, r3, r6, r9, sl}
     2b0:	0a03d67f 	beq	f5cb4 <__bss_end__+0xe72ec>
     2b4:	4b4b4c82 	blmi	12d34c4 <__bss_end__+0x12c4afc>
     2b8:	00da0383 	sbcseq	r0, sl, r3, lsl #7
     2bc:	7fa2034a 	svcvc	0x00a2034a
     2c0:	00df032e 	sbcseq	r0, pc, lr, lsr #6
     2c4:	0402002e 	streq	r0, [r2], #-46	; 0x2e
     2c8:	664a0601 	strbvs	r0, [sl], -r1, lsl #12
     2cc:	04040200 	streq	r0, [r4], #-512	; 0x200
     2d0:	04020066 	streq	r0, [r2], #-102	; 0x66
     2d4:	02044a01 	andeq	r4, r4, #4096	; 0x1000
     2d8:	7f990306 	svcvc	0x00990306
     2dc:	2f012602 	svccs	0x00012602
     2e0:	2f4c4b4b 	svccs	0x004c4b4b
     2e4:	0301044c 	movweq	r0, #5196	; 0x144c
     2e8:	02040178 	andeq	r0, r4, #120, 2
     2ec:	4bd60903 	blmi	ff582700 <__bss_end__+0xff573d38>
     2f0:	2b032f4c 	blcs	cc028 <__bss_end__+0xbd660>
     2f4:	67312f82 	ldrvs	r2, [r1, -r2, lsl #31]!
     2f8:	30bc3068 	adcscc	r3, ip, r8, rrx
     2fc:	67676783 	strbvs	r6, [r7, -r3, lsl #15]!
     300:	08686967 	stmdaeq	r8!, {r0, r1, r2, r5, r6, r8, fp, sp, lr}^
     304:	4b2f4b27 	blmi	bd2fa8 <__bss_end__+0xbc45e0>
     308:	83694b2f 	cmnhi	r9, #48128	; 0xbc00
     30c:	7fae0368 	svcvc	0x00ae0368
     310:	01044b66 	tsteq	r4, r6, ror #22
     314:	032e0b03 	teqeq	lr, #3072	; 0xc00
     318:	1c036665 	stcne	6, cr6, [r3], {101}	; 0x65
     31c:	04674c9e 	strbteq	r4, [r7], #-3230	; 0xc9e
     320:	9e730302 	cdpls	3, 7, cr0, cr3, cr2, {0}
     324:	6b030104 	blvs	c073c <__bss_end__+0xb1d74>
     328:	660b034a 	strvs	r0, [fp], -sl, asr #6
     32c:	03020432 	movweq	r0, #9266	; 0x2432
     330:	002f2e09 	eoreq	r2, pc, r9, lsl #28
     334:	49010402 	stmdbmi	r1, {r1, sl}
     338:	68030104 	stmdavs	r3, {r2, r8}
     33c:	4a0a0366 	bmi	2810dc <__bss_end__+0x272714>
     340:	83672f4c 	cmnhi	r7, #76, 30	; 0x130
     344:	03020446 	movweq	r0, #9286	; 0x2446
     348:	a54e2e0d 	strbge	r2, [lr, #-3597]	; 0xe0d
     34c:	30694b31 	rsbcc	r4, r9, r1, lsr fp
     350:	72030104 	andvc	r0, r3, #4, 2
     354:	2e65032e 	cdpcs	3, 6, cr0, cr5, cr14, {1}
     358:	4c821c03 	stcmi	12, cr1, [r2], {3}
     35c:	0402002f 	streq	r0, [r2], #-47	; 0x2f
     360:	9e610301 	cdpls	3, 6, cr0, cr1, cr1, {0}
     364:	02000204 	andeq	r0, r0, #4, 4	; 0x40000000
     368:	26030104 	strcs	r0, [r3], -r4, lsl #2
     36c:	040200d6 	streq	r0, [r2], #-214	; 0xd6
     370:	064a0602 	strbeq	r0, [sl], -r2, lsl #12
     374:	01046889 	smlabbeq	r4, r9, r8, r6
     378:	01040200 	mrseq	r0, R12_usr
     37c:	00664e03 	rsbeq	r4, r6, r3, lsl #28
     380:	03010402 	movweq	r0, #5122	; 0x1402
     384:	0200660b 	andeq	r6, r0, #11534336	; 0xb00000
     388:	00300104 	eorseq	r0, r0, r4, lsl #2
     38c:	30010402 	andcc	r0, r1, r2, lsl #8
     390:	02000204 	andeq	r0, r0, #4, 4	; 0x40000000
     394:	22030104 	andcs	r0, r3, #4, 2
     398:	0301042e 	movweq	r0, #5166	; 0x142e
     39c:	0a03664f 	beq	d9ce0 <__bss_end__+0xcb318>
     3a0:	672f4c4a 	strvs	r4, [pc, -sl, asr #24]!
     3a4:	02044683 	andeq	r4, r4, #137363456	; 0x8300000
     3a8:	042e2603 	strteq	r2, [lr], #-1539	; 0x603
     3ac:	4a4f0301 	bmi	13c0fb8 <__bss_end__+0x13b25f0>
     3b0:	35030204 	strcc	r0, [r3, #-516]	; 0x204
     3b4:	31034b9e 			; <UNDEFINED> instruction: 0x31034b9e
     3b8:	01045808 	tsteq	r4, r8, lsl #16
     3bc:	017f9903 	cmneq	pc, r3, lsl #18
     3c0:	ea030204 	b	c0bd8 <__bss_end__+0xb2210>
     3c4:	01049e00 	tsteq	r4, r0, lsl #28
     3c8:	4a7f9603 	bmi	1fe5bdc <__bss_end__+0x1fd7214>
     3cc:	4c820a03 	vstmiami	r2, {s0-s2}
     3d0:	02044b67 	andeq	r4, r4, #105472	; 0x19c00
     3d4:	9e00db03 	vmlals.f64	d13, d0, d3
     3d8:	084c886b 	stmdaeq	ip, {r0, r1, r3, r5, r6, fp, pc}^
     3dc:	6767675a 			; <UNDEFINED> instruction: 0x6767675a
     3e0:	30686767 	rsbcc	r6, r8, r7, ror #14
     3e4:	03673230 	cmneq	r7, #48, 4
     3e8:	33686609 	cmncc	r8, #9437184	; 0x900000
     3ec:	4b4b3035 	blmi	12cc4c8 <__bss_end__+0x12bdb00>
     3f0:	4b4b4b4b 	blmi	12d3124 <__bss_end__+0x12c475c>
     3f4:	4c4b4b4b 	mcrrmi	11, 4, r4, fp, cr11
     3f8:	67676730 			; <UNDEFINED> instruction: 0x67676730
     3fc:	30346867 	eorscc	r6, r4, r7, ror #16
     400:	4b2f4b29 	blmi	bd30ac <__bss_end__+0xbc46e4>
     404:	14022f4b 	strne	r2, [r2], #-3915	; 0xf4b
     408:	ec010100 	stfs	f0, [r1], {-0}
     40c:	02000000 	andeq	r0, r0, #0
     410:	0000d000 	andeq	sp, r0, r0
     414:	fb010200 	blx	40c1e <__bss_end__+0x32256>
     418:	01000d0e 	tsteq	r0, lr, lsl #26
     41c:	00010101 	andeq	r0, r1, r1, lsl #2
     420:	00010000 	andeq	r0, r1, r0
     424:	696c0100 	stmdbvs	ip!, {r8}^
     428:	2f006362 	svccs	0x00006362
     42c:	2f727375 	svccs	0x00727375
     430:	61636f6c 	cmnvs	r3, ip, ror #30
     434:	65432f6c 	strbvs	r2, [r3, #-3948]	; 0xf6c
     438:	72616c6c 	rsbvc	r6, r1, #108, 24	; 0x6c00
     43c:	6d72612f 	ldfvse	f6, [r2, #-188]!	; 0xffffff44
     440:	6e6f6e2d 	cdpvs	14, 6, cr6, cr15, cr13, {1}
     444:	61652d65 	cmnvs	r5, r5, ror #26
     448:	342f6962 	strtcc	r6, [pc], #-2402	; 450 <_start-0x7bb0>
     44c:	332e382e 	teqcc	lr, #3014656	; 0x2e0000
     450:	3173632d 	cmncc	r3, sp, lsr #6
     454:	2f653037 	svccs	0x00653037
     458:	2f62696c 	svccs	0x0062696c
     45c:	2f636367 	svccs	0x00636367
     460:	2d6d7261 	sfmcs	f7, 2, [sp, #-388]!	; 0xfffffe7c
     464:	656e6f6e 	strbvs	r6, [lr, #-3950]!	; 0xf6e
     468:	6261652d 	rsbvs	r6, r1, #188743680	; 0xb400000
     46c:	2e342f69 	cdpcs	15, 3, cr2, cr4, cr9, {3}
     470:	2f332e38 	svccs	0x00332e38
     474:	6c636e69 	stclvs	14, cr6, [r3], #-420	; 0xfffffe5c
     478:	00656475 	rsbeq	r6, r5, r5, ror r4
     47c:	7273752f 	rsbsvc	r7, r3, #197132288	; 0xbc00000
     480:	636f6c2f 	cmnvs	pc, #12032	; 0x2f00
     484:	432f6c61 	teqmi	pc, #24832	; 0x6100
     488:	616c6c65 	cmnvs	ip, r5, ror #24
     48c:	72612f72 	rsbvc	r2, r1, #456	; 0x1c8
     490:	6f6e2d6d 	svcvs	0x006e2d6d
     494:	652d656e 	strvs	r6, [sp, #-1390]!	; 0x56e
     498:	2f696261 	svccs	0x00696261
     49c:	2e382e34 	mrccs	14, 1, r2, cr8, cr4, {1}
     4a0:	73632d33 	cmnvc	r3, #3264	; 0xcc0
     4a4:	65303731 	ldrvs	r3, [r0, #-1841]!	; 0x731
     4a8:	6d72612f 	ldfvse	f6, [r2, #-188]!	; 0xffffff44
     4ac:	6e6f6e2d 	cdpvs	14, 6, cr6, cr15, cr13, {1}
     4b0:	61652d65 	cmnvs	r5, r5, ror #26
     4b4:	692f6962 	stmdbvs	pc!, {r1, r5, r6, r8, fp, sp, lr}	; <UNPREDICTABLE>
     4b8:	756c636e 	strbvc	r6, [ip, #-878]!	; 0x36e
     4bc:	00006564 	andeq	r6, r0, r4, ror #10
     4c0:	736d656d 	cmnvc	sp, #457179136	; 0x1b400000
     4c4:	632e7465 	teqvs	lr, #1694498816	; 0x65000000
     4c8:	00000100 	andeq	r0, r0, r0, lsl #2
     4cc:	64647473 	strbtvs	r7, [r4], #-1139	; 0x473
     4d0:	682e6665 	stmdavs	lr!, {r0, r2, r5, r6, r9, sl, sp, lr}
     4d4:	00000200 	andeq	r0, r0, r0, lsl #4
     4d8:	69727473 	ldmdbvs	r2!, {r0, r1, r4, r5, r6, sl, ip, sp, lr}^
     4dc:	682e676e 	stmdavs	lr!, {r1, r2, r3, r5, r6, r8, r9, sl, sp, lr}
     4e0:	00000300 	andeq	r0, r0, r0, lsl #6
     4e4:	02050000 	andeq	r0, r5, #0
     4e8:	00008780 	andeq	r8, r0, r0, lsl #15
     4ec:	2f4c1314 	svccs	0x004c1314
     4f0:	01040200 	mrseq	r0, R12_usr
     4f4:	02024d49 	andeq	r4, r2, #4672	; 0x1240
     4f8:	02010100 	andeq	r0, r1, #0, 2
     4fc:	02000001 	andeq	r0, r0, #1
     500:	0000eb00 	andeq	lr, r0, r0, lsl #22
     504:	fb010200 	blx	40d0e <__bss_end__+0x32346>
     508:	01000d0e 	tsteq	r0, lr, lsl #26
     50c:	00010101 	andeq	r0, r1, r1, lsl #2
     510:	00010000 	andeq	r0, r1, r0
     514:	696c0100 	stmdbvs	ip!, {r8}^
     518:	2f006362 	svccs	0x00006362
     51c:	2f727375 	svccs	0x00727375
     520:	61636f6c 	cmnvs	r3, ip, ror #30
     524:	65432f6c 	strbvs	r2, [r3, #-3948]	; 0xf6c
     528:	72616c6c 	rsbvc	r6, r1, #108, 24	; 0x6c00
     52c:	6d72612f 	ldfvse	f6, [r2, #-188]!	; 0xffffff44
     530:	6e6f6e2d 	cdpvs	14, 6, cr6, cr15, cr13, {1}
     534:	61652d65 	cmnvs	r5, r5, ror #26
     538:	342f6962 	strtcc	r6, [pc], #-2402	; 540 <_start-0x7ac0>
     53c:	332e382e 	teqcc	lr, #3014656	; 0x2e0000
     540:	3173632d 	cmncc	r3, sp, lsr #6
     544:	2f653037 	svccs	0x00653037
     548:	2f62696c 	svccs	0x0062696c
     54c:	2f636367 	svccs	0x00636367
     550:	2d6d7261 	sfmcs	f7, 2, [sp, #-388]!	; 0xfffffe7c
     554:	656e6f6e 	strbvs	r6, [lr, #-3950]!	; 0xf6e
     558:	6261652d 	rsbvs	r6, r1, #188743680	; 0xb400000
     55c:	2e342f69 	cdpcs	15, 3, cr2, cr4, cr9, {3}
     560:	2f332e38 	svccs	0x00332e38
     564:	6c636e69 	stclvs	14, cr6, [r3], #-420	; 0xfffffe5c
     568:	00656475 	rsbeq	r6, r5, r5, ror r4
     56c:	6573552f 	ldrbvs	r5, [r3, #-1327]!	; 0x52f
     570:	622f7372 	eorvs	r7, pc, #-939524095	; 0xc8000001
     574:	6e616972 	mcrvs	9, 3, r6, cr1, cr2, {3}
     578:	2f6e756a 	svccs	0x006e756a
     57c:	6b736544 	blvs	1cd9a94 <__bss_end__+0x1ccb0cc>
     580:	2f706f74 	svccs	0x00706f74
     584:	6f686373 	svcvs	0x00686373
     588:	572f6c6f 	strpl	r6, [pc, -pc, ror #24]!
     58c:	65746e69 	ldrbvs	r6, [r4, #-3689]!	; 0xe69
     590:	32393172 	eorscc	r3, r9, #-2147483620	; 0x8000001c
     594:	53432f30 	movtpl	r2, #16176	; 0x3f30
     598:	45303431 	ldrmi	r3, [r0, #-1073]!	; 0x431
     59c:	3173632f 	cmncc	r3, pc, lsr #6
     5a0:	2d653034 	stclcs	0, cr3, [r5, #-208]!	; 0xffffff30
     5a4:	69773032 	ldmdbvs	r7!, {r1, r4, r5, ip, sp}^
     5a8:	696c2f6e 	stmdbvs	ip!, {r1, r2, r3, r5, r6, r8, r9, sl, fp, sp}^
     5ac:	00697062 	rsbeq	r7, r9, r2, rrx
     5b0:	69727000 	ldmdbvs	r2!, {ip, sp, lr}^
     5b4:	2e6b746e 	cdpcs	4, 6, cr7, cr11, cr14, {3}
     5b8:	00010063 	andeq	r0, r1, r3, rrx
     5bc:	64747300 	ldrbtvs	r7, [r4], #-768	; 0x300
     5c0:	2e677261 	cdpcs	2, 6, cr7, cr7, cr1, {3}
     5c4:	00020068 	andeq	r0, r2, r8, rrx
     5c8:	75623c00 	strbvc	r3, [r2, #-3072]!	; 0xc00
     5cc:	2d746c69 	ldclcs	12, cr6, [r4, #-420]!	; 0xfffffe5c
     5d0:	003e6e69 	eorseq	r6, lr, r9, ror #28
     5d4:	72000000 	andvc	r0, r0, #0
     5d8:	682e6970 	stmdavs	lr!, {r4, r5, r6, r8, fp, sp, lr}
     5dc:	00000300 	andeq	r0, r0, r0, lsl #6
     5e0:	702d6176 	eorvc	r6, sp, r6, ror r1
     5e4:	746e6972 	strbtvc	r6, [lr], #-2418	; 0x972
     5e8:	00682e6b 	rsbeq	r2, r8, fp, ror #28
     5ec:	00000001 	andeq	r0, r0, r1
     5f0:	a0020500 	andge	r0, r2, r0, lsl #10
     5f4:	17000087 	strne	r0, [r0, -r7, lsl #1]
     5f8:	89bf4b6b 	ldmibhi	pc!, {r0, r1, r3, r5, r6, r8, r9, fp, lr}	; <UNPREDICTABLE>
     5fc:	01000e02 	tsteq	r0, r2, lsl #28
     600:	00008a01 	andeq	r8, r0, r1, lsl #20
     604:	72000200 	andvc	r0, r0, #0, 4
     608:	02000000 	andeq	r0, r0, #0
     60c:	0d0efb01 	vstreq	d15, [lr, #-4]
     610:	01010100 	mrseq	r0, (UNDEF: 17)
     614:	00000001 	andeq	r0, r0, r1
     618:	01000001 	tsteq	r0, r1
     61c:	6362696c 	cmnvs	r2, #108, 18	; 0x1b0000
     620:	73552f00 	cmpvc	r5, #0, 30
     624:	2f737265 	svccs	0x00737265
     628:	61697262 	cmnvs	r9, r2, ror #4
     62c:	6e756a6e 	vsubvs.f32	s13, s10, s29
     630:	7365442f 	cmnvc	r5, #788529152	; 0x2f000000
     634:	706f746b 	rsbvc	r7, pc, fp, ror #8
     638:	6863732f 	stmdavs	r3!, {r0, r1, r2, r3, r5, r8, r9, ip, sp, lr}^
     63c:	2f6c6f6f 	svccs	0x006c6f6f
     640:	746e6957 	strbtvc	r6, [lr], #-2391	; 0x957
     644:	39317265 	ldmdbcc	r1!, {r0, r2, r5, r6, r9, ip, sp, lr}
     648:	432f3032 	teqmi	pc, #50	; 0x32
     64c:	30343153 	eorscc	r3, r4, r3, asr r1
     650:	73632f45 	cmnvc	r3, #276	; 0x114
     654:	65303431 	ldrvs	r3, [r0, #-1073]!	; 0x431
     658:	7730322d 	ldrvc	r3, [r0, -sp, lsr #4]!
     65c:	6c2f6e69 	stcvs	14, cr6, [pc], #-420	; 4c0 <_start-0x7b40>
     660:	69706269 	ldmdbvs	r0!, {r0, r3, r5, r6, r9, sp, lr}^
     664:	75700000 	ldrbvc	r0, [r0, #-0]!
     668:	61686374 	smcvs	34356	; 0x8634
     66c:	00632e72 	rsbeq	r2, r3, r2, ror lr
     670:	72000001 	andvc	r0, r0, #1
     674:	682e6970 	stmdavs	lr!, {r4, r5, r6, r8, fp, sp, lr}
     678:	00000200 	andeq	r0, r0, r0, lsl #4
     67c:	02050000 	andeq	r0, r5, #0
     680:	000087f8 	strdeq	r8, [r0], -r8	; <UNPREDICTABLE>
     684:	136b4a14 	cmnne	fp, #20, 20	; 0x14000
     688:	080213bc 	stmdaeq	r2, {r2, r3, r4, r5, r7, r8, r9, ip}
     68c:	96010100 	strls	r0, [r1], -r0, lsl #2
     690:	02000000 	andeq	r0, r0, #0
     694:	00006f00 	andeq	r6, r0, r0, lsl #30
     698:	fb010200 	blx	40ea2 <__bss_end__+0x324da>
     69c:	01000d0e 	tsteq	r0, lr, lsl #26
     6a0:	00010101 	andeq	r0, r1, r1, lsl #2
     6a4:	00010000 	andeq	r0, r1, r0
     6a8:	696c0100 	stmdbvs	ip!, {r8}^
     6ac:	2f006362 	svccs	0x00006362
     6b0:	72657355 	rsbvc	r7, r5, #1409286145	; 0x54000001
     6b4:	72622f73 	rsbvc	r2, r2, #460	; 0x1cc
     6b8:	6a6e6169 	bvs	1b98c64 <__bss_end__+0x1b8a29c>
     6bc:	442f6e75 	strtmi	r6, [pc], #-3701	; 6c4 <_start-0x793c>
     6c0:	746b7365 	strbtvc	r7, [fp], #-869	; 0x365
     6c4:	732f706f 	teqvc	pc, #111	; 0x6f
     6c8:	6f6f6863 	svcvs	0x006f6863
     6cc:	69572f6c 	ldmdbvs	r7, {r2, r3, r5, r6, r8, r9, sl, fp, sp}^
     6d0:	7265746e 	rsbvc	r7, r5, #1845493760	; 0x6e000000
     6d4:	30323931 	eorscc	r3, r2, r1, lsr r9
     6d8:	3153432f 	cmpcc	r3, pc, lsr #6
     6dc:	2f453034 	svccs	0x00453034
     6e0:	34317363 	ldrtcc	r7, [r1], #-867	; 0x363
     6e4:	322d6530 	eorcc	r6, sp, #48, 10	; 0xc000000
     6e8:	6e697730 	mcrvs	7, 3, r7, cr9, cr0, {1}
     6ec:	62696c2f 	rsbvs	r6, r9, #12032	; 0x2f00
     6f0:	00006970 	andeq	r6, r0, r0, ror r9
     6f4:	6b747570 	blvs	1d1dcbc <__bss_end__+0x1d0f2f4>
     6f8:	0100632e 	tsteq	r0, lr, lsr #6
     6fc:	70720000 	rsbsvc	r0, r2, r0
     700:	00682e69 	rsbeq	r2, r8, r9, ror #28
     704:	00000002 	andeq	r0, r0, r2
     708:	34020500 	strcc	r0, [r2], #-1280	; 0x500
     70c:	15000088 	strne	r0, [r0, #-136]	; 0x88
     710:	02002d4c 	andeq	r2, r0, #76, 26	; 0x1300
     714:	002f0204 	eoreq	r0, pc, r4, lsl #4
     718:	49020402 	stmdbmi	r2, {r1, sl}
     71c:	01040200 	mrseq	r0, R12_usr
     720:	6b062e06 	blvs	18bf40 <__bss_end__+0x17d578>
     724:	01000602 	tsteq	r0, r2, lsl #12
     728:	0001de01 	andeq	sp, r1, r1, lsl #28
     72c:	df000200 	svcle	0x00000200
     730:	02000000 	andeq	r0, r0, #0
     734:	0d0efb01 	vstreq	d15, [lr, #-4]
     738:	01010100 	mrseq	r0, (UNDEF: 17)
     73c:	00000001 	andeq	r0, r0, r1
     740:	01000001 	tsteq	r0, r1
     744:	6362696c 	cmnvs	r2, #108, 18	; 0x1b0000
     748:	73752f00 	cmnvc	r5, #0, 30
     74c:	6f6c2f72 	svcvs	0x006c2f72
     750:	2f6c6163 	svccs	0x006c6163
     754:	6c6c6543 	cfstr64vs	mvdx6, [ip], #-268	; 0xfffffef4
     758:	612f7261 	teqvs	pc, r1, ror #4
     75c:	6e2d6d72 	mcrvs	13, 1, r6, cr13, cr2, {3}
     760:	2d656e6f 	stclcs	14, cr6, [r5, #-444]!	; 0xfffffe44
     764:	69626165 	stmdbvs	r2!, {r0, r2, r5, r6, r8, sp, lr}^
     768:	382e342f 	stmdacc	lr!, {r0, r1, r2, r3, r5, sl, ip, sp}
     76c:	632d332e 	teqvs	sp, #-1207959552	; 0xb8000000
     770:	30373173 	eorscc	r3, r7, r3, ror r1
     774:	696c2f65 	stmdbvs	ip!, {r0, r2, r5, r6, r8, r9, sl, fp, sp}^
     778:	63672f62 	cmnvs	r7, #392	; 0x188
     77c:	72612f63 	rsbvc	r2, r1, #396	; 0x18c
     780:	6f6e2d6d 	svcvs	0x006e2d6d
     784:	652d656e 	strvs	r6, [sp, #-1390]!	; 0x56e
     788:	2f696261 	svccs	0x00696261
     78c:	2e382e34 	mrccs	14, 1, r2, cr8, cr4, {1}
     790:	6e692f33 	mcrvs	15, 3, r2, cr9, cr3, {1}
     794:	64756c63 	ldrbtvs	r6, [r5], #-3171	; 0xc63
     798:	552f0065 	strpl	r0, [pc, #-101]!	; 73b <_start-0x78c5>
     79c:	73726573 	cmnvc	r2, #482344960	; 0x1cc00000
     7a0:	6972622f 	ldmdbvs	r2!, {r0, r1, r2, r3, r5, r9, sp, lr}^
     7a4:	756a6e61 	strbvc	r6, [sl, #-3681]!	; 0xe61
     7a8:	65442f6e 	strbvs	r2, [r4, #-3950]	; 0xf6e
     7ac:	6f746b73 	svcvs	0x00746b73
     7b0:	63732f70 	cmnvs	r3, #112, 30	; 0x1c0
     7b4:	6c6f6f68 	stclvs	15, cr6, [pc], #-416	; 61c <_start-0x79e4>
     7b8:	6e69572f 	cdpvs	7, 6, cr5, cr9, cr15, {1}
     7bc:	31726574 	cmncc	r2, r4, ror r5
     7c0:	2f303239 	svccs	0x00303239
     7c4:	34315343 	ldrtcc	r5, [r1], #-835	; 0x343
     7c8:	632f4530 	teqvs	pc, #48, 10	; 0xc000000
     7cc:	30343173 	eorscc	r3, r4, r3, ror r1
     7d0:	30322d65 	eorscc	r2, r2, r5, ror #26
     7d4:	2f6e6977 	svccs	0x006e6977
     7d8:	7062696c 	rsbvc	r6, r2, ip, ror #18
     7dc:	76000069 	strvc	r0, [r0], -r9, rrx
     7e0:	72702d61 	rsbsvc	r2, r0, #6208	; 0x1840
     7e4:	6b746e69 	blvs	1d1c190 <__bss_end__+0x1d0d7c8>
     7e8:	0100632e 	tsteq	r0, lr, lsr #6
     7ec:	74730000 	ldrbtvc	r0, [r3], #-0
     7f0:	67726164 	ldrbvs	r6, [r2, -r4, ror #2]!
     7f4:	0200682e 	andeq	r6, r0, #3014656	; 0x2e0000
     7f8:	70720000 	rsbsvc	r0, r2, r0
     7fc:	00682e69 	rsbeq	r2, r8, r9, ror #28
     800:	3c000003 	stccc	0, cr0, [r0], {3}
     804:	6c697562 	cfstr64vs	mvdx7, [r9], #-392	; 0xfffffe78
     808:	6e692d74 	mcrvs	13, 3, r2, cr9, cr4, {3}
     80c:	0000003e 	andeq	r0, r0, lr, lsr r0
     810:	05000000 	streq	r0, [r0, #-0]
     814:	00886802 	addeq	r6, r8, r2, lsl #16
     818:	01260300 	teqeq	r6, r0, lsl #6
     81c:	3113a501 	tstcc	r3, r1, lsl #10
     820:	0402002d 	streq	r0, [r2], #-45	; 0x2d
     824:	02002f02 	andeq	r2, r0, #2, 30
     828:	002d0204 	eoreq	r0, sp, r4, lsl #4
     82c:	2f020402 	svccs	0x00020402
     830:	01040200 	mrseq	r0, R12_usr
     834:	304c4c2d 	subcc	r4, ip, sp, lsr #24
     838:	4f2f4b14 	svcmi	0x002f4b14
     83c:	02040200 	andeq	r0, r4, #0, 4
     840:	04020067 	streq	r0, [r2], #-103	; 0x67
     844:	4d4c6501 	cfstr64mi	mvdx6, [ip, #-4]
     848:	312fa030 	teqcc	pc, r0, lsr r0	; <UNPREDICTABLE>
     84c:	16260230 			; <UNDEFINED> instruction: 0x16260230
     850:	002c2d84 	eoreq	r2, ip, r4, lsl #27
     854:	30010402 	andcc	r0, r1, r2, lsl #8
     858:	01040200 	mrseq	r0, R12_usr
     85c:	00660633 	rsbeq	r0, r6, r3, lsr r6
     860:	2e010402 	cdpcs	4, 0, cr0, cr1, cr2, {0}
     864:	01040200 	mrseq	r0, R12_usr
     868:	67210806 	strvs	r0, [r1, -r6, lsl #16]!
     86c:	8273032f 	rsbshi	r0, r3, #-1140850688	; 0xbc000000
     870:	002e1303 	eoreq	r1, lr, r3, lsl #6
     874:	06010402 	streq	r0, [r1], -r2, lsl #8
     878:	0402002e 	streq	r0, [r2], #-46	; 0x2e
     87c:	6a9f0601 	bvs	fe7c2088 <__bss_end__+0xfe7b36c0>
     880:	2e67034b 	cdpcs	3, 6, cr0, cr7, cr11, {2}
     884:	002e2103 	eoreq	r2, lr, r3, lsl #2
     888:	06010402 	streq	r0, [r1], -r2, lsl #8
     88c:	0402002e 	streq	r0, [r2], #-46	; 0x2e
     890:	009f0601 	addseq	r0, pc, r1, lsl #12
     894:	6a010402 	bvs	418a4 <__bss_end__+0x32edc>
     898:	a603f3d9 			; <UNDEFINED> instruction: 0xa603f3d9
     89c:	2f20087f 	svccs	0x0020087f
     8a0:	01040200 	mrseq	r0, R12_usr
     8a4:	d7064a06 	strle	r4, [r6, -r6, lsl #20]
     8a8:	da032f4b 	ble	cc5dc <__bss_end__+0xbdc14>
     8ac:	4c83f200 	sfmmi	f7, 1, [r3], {0}
     8b0:	2e0e0348 	cdpcs	3, 0, cr0, cr14, cr8, {2}
     8b4:	2f2e7503 	svccs	0x002e7503
     8b8:	2f4b842f 	svccs	0x004b842f
     8bc:	30314d2d 	eorscc	r4, r1, sp, lsr #26
     8c0:	0200832f 	andeq	r8, r0, #-1140850688	; 0xbc000000
     8c4:	a22c0104 	eorge	r0, ip, #4, 2
     8c8:	01040200 	mrseq	r0, R12_usr
     8cc:	d8064a06 	stmdale	r6, {r1, r2, r9, fp, lr}
     8d0:	03163602 	tsteq	r6, #2097152	; 0x200000
     8d4:	2108d60e 	tstcs	r8, lr, lsl #12
     8d8:	f331f330 	vcge.u<illegal width 64>	d15, d1, d16
     8dc:	4b30f330 	blmi	c3d5a4 <__bss_end__+0xc2ebdc>
     8e0:	0830f330 	ldmdaeq	r0!, {r4, r5, r8, r9, ip, sp, lr, pc}
     8e4:	002f3123 	eoreq	r3, pc, r3, lsr #2
     8e8:	65010402 	strvs	r0, [r1, #-1026]	; 0x402
     8ec:	02040200 	andeq	r0, r4, #0, 4
     8f0:	02004a06 	andeq	r4, r0, #24576	; 0x6000
     8f4:	03060104 	movweq	r0, #24836	; 0x6104
     8f8:	02006642 	andeq	r6, r0, #69206016	; 0x4200000
     8fc:	66060204 	strvs	r0, [r6], -r4, lsl #4
     900:	00c20306 	sbceq	r0, r2, r6, lsl #6
     904:	1002684a 	andne	r6, r2, sl, asr #16
     908:	43010100 	movwmi	r0, #4352	; 0x1100
     90c:	02000000 	andeq	r0, r0, #0
     910:	00002900 	andeq	r2, r0, r0, lsl #18
     914:	fb010200 	blx	4111e <__bss_end__+0x32756>
     918:	01000d0e 	tsteq	r0, lr, lsl #26
     91c:	00010101 	andeq	r0, r1, r1, lsl #2
     920:	00010000 	andeq	r0, r1, r0
     924:	73630100 	cmnvc	r3, #0, 2
     928:	65303431 	ldrvs	r3, [r0, #-1073]!	; 0x431
     92c:	6372732d 	cmnvs	r2, #-1275068416	; 0xb4000000
     930:	61630000 	cmnvs	r3, r0
     934:	2e656863 	cdpcs	8, 6, cr6, cr5, cr3, {3}
     938:	00010063 	andeq	r0, r1, r3, rrx
     93c:	05000000 	streq	r0, [r0, #-0]
     940:	008d6002 	addeq	r6, sp, r2
     944:	30141400 	andscc	r1, r4, r0, lsl #8
     948:	31144e2f 	tstcc	r4, pc, lsr #28
     94c:	0004022f 	andeq	r0, r4, pc, lsr #4
     950:	00930101 	addseq	r0, r3, r1, lsl #2
     954:	00020000 	andeq	r0, r2, r0
     958:	0000007d 	andeq	r0, r0, sp, ror r0
     95c:	0efb0102 	cdpeq	1, 15, cr0, cr11, cr2, {0}
     960:	0101000d 	tsteq	r1, sp
     964:	00000101 	andeq	r0, r0, r1, lsl #2
     968:	00000100 	andeq	r0, r0, r0, lsl #2
     96c:	31736301 	cmncc	r3, r1, lsl #6
     970:	2d653034 	stclcs	0, cr3, [r5, #-208]!	; 0xffffff30
     974:	00637273 	rsbeq	r7, r3, r3, ror r2
     978:	6573552f 	ldrbvs	r5, [r3, #-1327]!	; 0x52f
     97c:	622f7372 	eorvs	r7, pc, #-939524095	; 0xc8000001
     980:	6e616972 	mcrvs	9, 3, r6, cr1, cr2, {3}
     984:	2f6e756a 	svccs	0x006e756a
     988:	6b736544 	blvs	1cd9ea0 <__bss_end__+0x1ccb4d8>
     98c:	2f706f74 	svccs	0x00706f74
     990:	6f686373 	svcvs	0x00686373
     994:	572f6c6f 	strpl	r6, [pc, -pc, ror #24]!
     998:	65746e69 	ldrbvs	r6, [r4, #-3689]!	; 0xe69
     99c:	32393172 	eorscc	r3, r9, #-2147483620	; 0x8000001c
     9a0:	53432f30 	movtpl	r2, #16176	; 0x3f30
     9a4:	45303431 	ldrmi	r3, [r0, #-1073]!	; 0x431
     9a8:	3173632f 	cmncc	r3, pc, lsr #6
     9ac:	2d653034 	stclcs	0, cr3, [r5, #-208]!	; 0xffffff30
     9b0:	69773032 	ldmdbvs	r7!, {r1, r4, r5, ip, sp}^
     9b4:	696c2f6e 	stmdbvs	ip!, {r1, r2, r3, r5, r6, r8, r9, sl, fp, sp}^
     9b8:	00697062 	rsbeq	r7, r9, r2, rrx
     9bc:	656c6300 	strbvs	r6, [ip, #-768]!	; 0x300
     9c0:	722d6e61 	eorvc	r6, sp, #1552	; 0x610
     9c4:	6f6f6265 	svcvs	0x006f6265
     9c8:	00632e74 	rsbeq	r2, r3, r4, ror lr
     9cc:	72000001 	andvc	r0, r0, #1
     9d0:	682e6970 	stmdavs	lr!, {r4, r5, r6, r8, fp, sp, lr}
     9d4:	00000200 	andeq	r0, r0, r0, lsl #4
     9d8:	02050000 	andeq	r0, r5, #0
     9dc:	00008d80 	andeq	r8, r0, r0, lsl #27
     9e0:	4b832f15 	blmi	fe0cc63c <__bss_end__+0xfe0bdc74>
     9e4:	01000602 	tsteq	r0, r2, lsl #12
     9e8:	00012101 	andeq	r2, r1, r1, lsl #2
     9ec:	f8000200 			; <UNDEFINED> instruction: 0xf8000200
     9f0:	02000000 	andeq	r0, r0, #0
     9f4:	0d0efb01 	vstreq	d15, [lr, #-4]
     9f8:	01010100 	mrseq	r0, (UNDEF: 17)
     9fc:	00000001 	andeq	r0, r0, r1
     a00:	01000001 	tsteq	r0, r1
     a04:	34317363 	ldrtcc	r7, [r1], #-867	; 0x363
     a08:	732d6530 	teqvc	sp, #48, 10	; 0xc000000
     a0c:	2f006372 	svccs	0x00006372
     a10:	2f727375 	svccs	0x00727375
     a14:	61636f6c 	cmnvs	r3, ip, ror #30
     a18:	65432f6c 	strbvs	r2, [r3, #-3948]	; 0xf6c
     a1c:	72616c6c 	rsbvc	r6, r1, #108, 24	; 0x6c00
     a20:	6d72612f 	ldfvse	f6, [r2, #-188]!	; 0xffffff44
     a24:	6e6f6e2d 	cdpvs	14, 6, cr6, cr15, cr13, {1}
     a28:	61652d65 	cmnvs	r5, r5, ror #26
     a2c:	342f6962 	strtcc	r6, [pc], #-2402	; a34 <_start-0x75cc>
     a30:	332e382e 	teqcc	lr, #3014656	; 0x2e0000
     a34:	3173632d 	cmncc	r3, sp, lsr #6
     a38:	2f653037 	svccs	0x00653037
     a3c:	2f62696c 	svccs	0x0062696c
     a40:	2f636367 	svccs	0x00636367
     a44:	2d6d7261 	sfmcs	f7, 2, [sp, #-388]!	; 0xfffffe7c
     a48:	656e6f6e 	strbvs	r6, [lr, #-3950]!	; 0xf6e
     a4c:	6261652d 	rsbvs	r6, r1, #188743680	; 0xb400000
     a50:	2e342f69 	cdpcs	15, 3, cr2, cr4, cr9, {3}
     a54:	2f332e38 	svccs	0x00332e38
     a58:	6c636e69 	stclvs	14, cr6, [r3], #-420	; 0xfffffe5c
     a5c:	00656475 	rsbeq	r6, r5, r5, ror r4
     a60:	6573552f 	ldrbvs	r5, [r3, #-1327]!	; 0x52f
     a64:	622f7372 	eorvs	r7, pc, #-939524095	; 0xc8000001
     a68:	6e616972 	mcrvs	9, 3, r6, cr1, cr2, {3}
     a6c:	2f6e756a 	svccs	0x006e756a
     a70:	6b736544 	blvs	1cd9f88 <__bss_end__+0x1ccb5c0>
     a74:	2f706f74 	svccs	0x00706f74
     a78:	6f686373 	svcvs	0x00686373
     a7c:	572f6c6f 	strpl	r6, [pc, -pc, ror #24]!
     a80:	65746e69 	ldrbvs	r6, [r4, #-3689]!	; 0xe69
     a84:	32393172 	eorscc	r3, r9, #-2147483620	; 0x8000001c
     a88:	53432f30 	movtpl	r2, #16176	; 0x3f30
     a8c:	45303431 	ldrmi	r3, [r0, #-1073]!	; 0x431
     a90:	3173632f 	cmncc	r3, pc, lsr #6
     a94:	2d653034 	stclcs	0, cr3, [r5, #-208]!	; 0xffffff30
     a98:	69773032 	ldmdbvs	r7!, {r1, r4, r5, ip, sp}^
     a9c:	696c2f6e 	stmdbvs	ip!, {r1, r2, r3, r5, r6, r8, r9, sl, fp, sp}^
     aa0:	00697062 	rsbeq	r7, r9, r2, rrx
     aa4:	74736300 	ldrbtvc	r6, [r3], #-768	; 0x300
     aa8:	2e747261 	cdpcs	2, 7, cr7, cr4, cr1, {3}
     aac:	00010063 	andeq	r0, r1, r3, rrx
     ab0:	64747300 	ldrbtvs	r7, [r4], #-768	; 0x300
     ab4:	2d746e69 	ldclcs	14, cr6, [r4, #-420]!	; 0xfffffe5c
     ab8:	2e636367 	cdpcs	3, 6, cr6, cr3, cr7, {3}
     abc:	00020068 	andeq	r0, r2, r8, rrx
     ac0:	2d777300 	ldclcs	3, cr7, [r7, #-0]
     ac4:	74726175 	ldrbtvc	r6, [r2], #-373	; 0x175
     ac8:	0100682e 	tsteq	r0, lr, lsr #16
     acc:	6f630000 	svcvs	0x00630000
     ad0:	6f72746e 	svcvs	0x0072746e
     ad4:	6c622d6c 	stclvs	13, cr2, [r2], #-432	; 0xfffffe50
     ad8:	2e6b636f 	cdpcs	3, 6, cr6, cr11, cr15, {3}
     adc:	00010068 	andeq	r0, r1, r8, rrx
     ae0:	69707200 	ldmdbvs	r0!, {r9, ip, sp, lr}^
     ae4:	0300682e 	movweq	r6, #2094	; 0x82e
     ae8:	00000000 	andeq	r0, r0, r0
     aec:	8da80205 	sfmhi	f0, 4, [r8, #20]!
     af0:	4b170000 	blmi	5c0af8 <__bss_end__+0x5b2130>
     af4:	31326868 	teqcc	r2, r8, ror #16
     af8:	002f2d2f 	eoreq	r2, pc, pc, lsr #26
     afc:	49010402 	stmdbmi	r1, {r1, sl}
     b00:	674b2f4f 	strbvs	r2, [fp, -pc, asr #30]
     b04:	4e678367 	cdpmi	3, 6, cr8, cr7, cr7, {3}
     b08:	0010022f 	andseq	r0, r0, pc, lsr #4
     b0c:	00990101 	addseq	r0, r9, r1, lsl #2
     b10:	00020000 	andeq	r0, r2, r0
     b14:	00000077 	andeq	r0, r0, r7, ror r0
     b18:	0efb0102 	cdpeq	1, 15, cr0, cr11, cr2, {0}
     b1c:	0101000d 	tsteq	r1, sp
     b20:	00000101 	andeq	r0, r0, r1, lsl #2
     b24:	00000100 	andeq	r0, r0, r0, lsl #2
     b28:	31736301 	cmncc	r3, r1, lsl #6
     b2c:	2d653034 	stclcs	0, cr3, [r5, #-208]!	; 0xffffff30
     b30:	00637273 	rsbeq	r7, r3, r3, ror r2
     b34:	6573552f 	ldrbvs	r5, [r3, #-1327]!	; 0x52f
     b38:	622f7372 	eorvs	r7, pc, #-939524095	; 0xc8000001
     b3c:	6e616972 	mcrvs	9, 3, r6, cr1, cr2, {3}
     b40:	2f6e756a 	svccs	0x006e756a
     b44:	6b736544 	blvs	1cda05c <__bss_end__+0x1ccb694>
     b48:	2f706f74 	svccs	0x00706f74
     b4c:	6f686373 	svcvs	0x00686373
     b50:	572f6c6f 	strpl	r6, [pc, -pc, ror #24]!
     b54:	65746e69 	ldrbvs	r6, [r4, #-3689]!	; 0xe69
     b58:	32393172 	eorscc	r3, r9, #-2147483620	; 0x8000001c
     b5c:	53432f30 	movtpl	r2, #16176	; 0x3f30
     b60:	45303431 	ldrmi	r3, [r0, #-1073]!	; 0x431
     b64:	3173632f 	cmncc	r3, pc, lsr #6
     b68:	2d653034 	stclcs	0, cr3, [r5, #-208]!	; 0xffffff30
     b6c:	69773032 	ldmdbvs	r7!, {r1, r4, r5, ip, sp}^
     b70:	696c2f6e 	stmdbvs	ip!, {r1, r2, r3, r5, r6, r8, r9, sl, fp, sp}^
     b74:	00697062 	rsbeq	r7, r9, r2, rrx
     b78:	62657200 	rsbvs	r7, r5, #0, 4
     b7c:	2e746f6f 	cdpcs	15, 7, cr6, cr4, cr15, {3}
     b80:	00010063 	andeq	r0, r1, r3, rrx
     b84:	69707200 	ldmdbvs	r0!, {r9, ip, sp, lr}^
     b88:	0200682e 	andeq	r6, r0, #3014656	; 0x2e0000
     b8c:	00000000 	andeq	r0, r0, r0
     b90:	8e580205 	cdphi	2, 5, cr0, cr8, cr5, {0}
     b94:	0d030000 	stceq	0, cr0, [r3, #-0]
     b98:	2f311401 	svccs	0x00311401
     b9c:	4b2f1585 	blmi	bc61b8 <__bss_end__+0xbb77f0>
     ba0:	35672f4d 	strbcc	r2, [r7, #-3917]!	; 0xf4d
     ba4:	10026752 	andne	r6, r2, r2, asr r7
     ba8:	a3010100 	movwge	r0, #4352	; 0x1100
     bac:	02000000 	andeq	r0, r0, #0
     bb0:	00007600 	andeq	r7, r0, r0, lsl #12
     bb4:	fb010200 	blx	413be <__bss_end__+0x329f6>
     bb8:	01000d0e 	tsteq	r0, lr, lsl #26
     bbc:	00010101 	andeq	r0, r1, r1, lsl #2
     bc0:	00010000 	andeq	r0, r1, r0
     bc4:	73630100 	cmnvc	r3, #0, 2
     bc8:	65303431 	ldrvs	r3, [r0, #-1073]!	; 0x431
     bcc:	6372732d 	cmnvs	r2, #-1275068416	; 0xb4000000
     bd0:	73552f00 	cmpvc	r5, #0, 30
     bd4:	2f737265 	svccs	0x00737265
     bd8:	61697262 	cmnvs	r9, r2, ror #4
     bdc:	6e756a6e 	vsubvs.f32	s13, s10, s29
     be0:	7365442f 	cmnvc	r5, #788529152	; 0x2f000000
     be4:	706f746b 	rsbvc	r7, pc, fp, ror #8
     be8:	6863732f 	stmdavs	r3!, {r0, r1, r2, r3, r5, r8, r9, ip, sp, lr}^
     bec:	2f6c6f6f 	svccs	0x006c6f6f
     bf0:	746e6957 	strbtvc	r6, [lr], #-2391	; 0x957
     bf4:	39317265 	ldmdbcc	r1!, {r0, r2, r5, r6, r9, ip, sp, lr}
     bf8:	432f3032 	teqmi	pc, #50	; 0x32
     bfc:	30343153 	eorscc	r3, r4, r3, asr r1
     c00:	73632f45 	cmnvc	r3, #276	; 0x114
     c04:	65303431 	ldrvs	r3, [r0, #-1073]!	; 0x431
     c08:	7730322d 	ldrvc	r3, [r0, -sp, lsr #4]!
     c0c:	6c2f6e69 	stcvs	14, cr6, [pc], #-420	; a70 <_start-0x7590>
     c10:	69706269 	ldmdbvs	r0!, {r0, r3, r5, r6, r9, sp, lr}^
     c14:	69740000 	ldmdbvs	r4!, {}^	; <UNPREDICTABLE>
     c18:	2e72656d 	cdpcs	5, 7, cr6, cr2, cr13, {3}
     c1c:	00010063 	andeq	r0, r1, r3, rrx
     c20:	69707200 	ldmdbvs	r0!, {r9, ip, sp, lr}^
     c24:	0200682e 	andeq	r6, r0, #3014656	; 0x2e0000
     c28:	00000000 	andeq	r0, r0, r0
     c2c:	8ecc0205 	cdphi	2, 12, cr0, cr12, cr5, {0}
     c30:	13160000 	tstne	r6, #0
     c34:	02002d2f 	andeq	r2, r0, #3008	; 0xbc0
     c38:	2e060104 	adfcss	f0, f6, f4
     c3c:	2f316806 	svccs	0x00316806
     c40:	31324d4b 	teqcc	r2, fp, asr #26
     c44:	2f4c4b30 	svccs	0x004c4b30
     c48:	842f2f6a 	strthi	r2, [pc], #-3946	; c50 <_start-0x73b0>
     c4c:	0008022f 	andeq	r0, r8, pc, lsr #4
     c50:	01880101 	orreq	r0, r8, r1, lsl #2
     c54:	00020000 	andeq	r0, r2, r0
     c58:	000000ca 	andeq	r0, r0, sl, asr #1
     c5c:	0efb0102 	cdpeq	1, 15, cr0, cr11, cr2, {0}
     c60:	0101000d 	tsteq	r1, sp
     c64:	00000101 	andeq	r0, r0, r1, lsl #2
     c68:	00000100 	andeq	r0, r0, r0, lsl #2
     c6c:	2d796d01 	ldclcs	13, cr6, [r9, #-4]!
     c70:	00637273 	rsbeq	r7, r3, r3, ror r2
     c74:	6573552f 	ldrbvs	r5, [r3, #-1327]!	; 0x52f
     c78:	622f7372 	eorvs	r7, pc, #-939524095	; 0xc8000001
     c7c:	6e616972 	mcrvs	9, 3, r6, cr1, cr2, {3}
     c80:	2f6e756a 	svccs	0x006e756a
     c84:	6b736544 	blvs	1cda19c <__bss_end__+0x1ccb7d4>
     c88:	2f706f74 	svccs	0x00706f74
     c8c:	6f686373 	svcvs	0x00686373
     c90:	572f6c6f 	strpl	r6, [pc, -pc, ror #24]!
     c94:	65746e69 	ldrbvs	r6, [r4, #-3689]!	; 0xe69
     c98:	32393172 	eorscc	r3, r9, #-2147483620	; 0x8000001c
     c9c:	53432f30 	movtpl	r2, #16176	; 0x3f30
     ca0:	45303431 	ldrmi	r3, [r0, #-1073]!	; 0x431
     ca4:	3173632f 	cmncc	r3, pc, lsr #6
     ca8:	2d653034 	stclcs	0, cr3, [r5, #-208]!	; 0xffffff30
     cac:	69773032 	ldmdbvs	r7!, {r1, r4, r5, ip, sp}^
     cb0:	696c2f6e 	stmdbvs	ip!, {r1, r2, r3, r5, r6, r8, r9, sl, fp, sp}^
     cb4:	2f697062 	svccs	0x00697062
     cb8:	34317363 	ldrtcc	r7, [r1], #-867	; 0x363
     cbc:	732d6530 	teqvc	sp, #48, 10	; 0xc000000
     cc0:	2f006372 	svccs	0x00006372
     cc4:	72657355 	rsbvc	r7, r5, #1409286145	; 0x54000001
     cc8:	72622f73 	rsbvc	r2, r2, #460	; 0x1cc
     ccc:	6a6e6169 	bvs	1b99278 <__bss_end__+0x1b8a8b0>
     cd0:	442f6e75 	strtmi	r6, [pc], #-3701	; cd8 <_start-0x7328>
     cd4:	746b7365 	strbtvc	r7, [fp], #-869	; 0x365
     cd8:	732f706f 	teqvc	pc, #111	; 0x6f
     cdc:	6f6f6863 	svcvs	0x006f6863
     ce0:	69572f6c 	ldmdbvs	r7, {r2, r3, r5, r6, r8, r9, sl, fp, sp}^
     ce4:	7265746e 	rsbvc	r7, r5, #1845493760	; 0x6e000000
     ce8:	30323931 	eorscc	r3, r2, r1, lsr r9
     cec:	3153432f 	cmpcc	r3, pc, lsr #6
     cf0:	2f453034 	svccs	0x00453034
     cf4:	34317363 	ldrtcc	r7, [r1], #-867	; 0x363
     cf8:	322d6530 	eorcc	r6, sp, #48, 10	; 0xc000000
     cfc:	6e697730 	mcrvs	7, 3, r7, cr9, cr0, {1}
     d00:	62696c2f 	rsbvs	r6, r9, #12032	; 0x2f00
     d04:	00006970 	andeq	r6, r0, r0, ror r9
     d08:	6f697067 	svcvs	0x00697067
     d0c:	0100632e 	tsteq	r0, lr, lsr #6
     d10:	70670000 	rsbvc	r0, r7, r0
     d14:	682e6f69 	stmdavs	lr!, {r0, r3, r5, r6, r8, r9, sl, fp, sp, lr}
     d18:	00000200 	andeq	r0, r0, r0, lsl #4
     d1c:	2e697072 	mcrcs	0, 3, r7, cr9, cr2, {3}
     d20:	00030068 	andeq	r0, r3, r8, rrx
     d24:	05000000 	streq	r0, [r0, #-0]
     d28:	008f5402 	addeq	r5, pc, r2, lsl #8
     d2c:	013e0300 	teqeq	lr, r0, lsl #6
     d30:	0869504e 	stmdaeq	r9!, {r1, r2, r3, r6, ip, lr}^
     d34:	67676721 	strbvs	r6, [r7, -r1, lsr #14]!
     d38:	32676767 	rsbcc	r6, r7, #27000832	; 0x19c0000
     d3c:	dc22084b 	stcle	8, cr0, [r2], #-300	; 0xfffffed4
     d40:	4e135131 	mrcmi	1, 0, r5, cr3, cr1, {1}
     d44:	31be3050 			; <UNDEFINED> instruction: 0x31be3050
     d48:	4f4d1350 	svcmi	0x004d1350
     d4c:	504cc030 	subpl	ip, ip, r0, lsr r0
     d50:	67210869 	strvs	r0, [r1, -r9, ror #16]!
     d54:	67676767 	strbvs	r6, [r7, -r7, ror #14]!
     d58:	084b3267 	stmdaeq	fp, {r0, r1, r2, r5, r6, r9, ip, sp}^
     d5c:	504ca421 	subpl	sl, ip, r1, lsr #8
     d60:	0369842f 	cmneq	r9, #788529152	; 0x2f000000
     d64:	0c038275 	sfmeq	f0, 1, [r3], {117}	; 0x75
     d68:	4e304d2e 	cdpmi	13, 3, cr4, cr0, cr14, {1}
     d6c:	4a7f9803 	bmi	1fe6d80 <__bss_end__+0x1fd83b8>
     d70:	504e1351 	subpl	r1, lr, r1, asr r3
     d74:	1350a530 	cmpne	r0, #48, 10	; 0xc000000
     d78:	03304f4d 	teqeq	r0, #308	; 0x134
     d7c:	6aba00c2 	bvs	fee8108c <__bss_end__+0xfee726c4>
     d80:	2108696b 	tstcs	r8, fp, ror #18
     d84:	67676767 	strbvs	r6, [r7, -r7, ror #14]!
     d88:	4b326767 	blmi	c9ab2c <__bss_end__+0xc8c164>
     d8c:	1a032208 	bne	c95b4 <__bss_end__+0xbabec>
     d90:	4c9f31ba 	ldfmis	f3, [pc], {186}	; 0xba
     d94:	4e4d522f 	cdpmi	2, 4, cr5, cr13, cr15, {1}
     d98:	4b674b2f 	blmi	19d3a5c <__bss_end__+0x19c5094>
     d9c:	4c676768 	stclmi	7, cr6, [r7], #-416	; 0xfffffe60
     da0:	4b2f672f 	blmi	bdaa64 <__bss_end__+0xbcc09c>
     da4:	2f4e4c6e 	svccs	0x004e4c6e
     da8:	684b674b 	stmdavs	fp, {r0, r1, r3, r6, r8, r9, sl, sp, lr}^
     dac:	2f4c6767 	svccs	0x004c6767
     db0:	6d4b2f67 	stclvs	15, cr2, [fp, #-412]	; 0xfffffe64
     db4:	4b2f4e4b 	blmi	bd46e8 <__bss_end__+0xbc5d20>
     db8:	04020067 	streq	r0, [r2], #-103	; 0x67
     dbc:	06660601 	strbteq	r0, [r6], -r1, lsl #12
     dc0:	002f9f68 	eoreq	r9, pc, r8, ror #30
     dc4:	06010402 	streq	r0, [r1], -r2, lsl #8
     dc8:	2f68064a 	svccs	0x0068064a
     dcc:	034a7303 	movteq	r7, #41731	; 0xa303
     dd0:	4c4d2e0e 	mcrrmi	14, 0, r2, sp, cr14
     dd4:	bc4b2f4e 	mcrrlt	15, 4, r2, fp, cr14
     dd8:	000602bc 			; <UNDEFINED> instruction: 0x000602bc
     ddc:	03450101 	movteq	r0, #20737	; 0x5101
     de0:	00020000 	andeq	r0, r2, r0
     de4:	000001bd 			; <UNDEFINED> instruction: 0x000001bd
     de8:	0efb0102 	cdpeq	1, 15, cr0, cr11, cr2, {0}
     dec:	0101000d 	tsteq	r1, sp
     df0:	00000101 	andeq	r0, r0, r1, lsl #2
     df4:	00000100 	andeq	r0, r0, r0, lsl #2
     df8:	2d796d01 	ldclcs	13, cr6, [r9, #-4]!
     dfc:	00637273 	rsbeq	r7, r3, r3, ror r2
     e00:	6573552f 	ldrbvs	r5, [r3, #-1327]!	; 0x52f
     e04:	622f7372 	eorvs	r7, pc, #-939524095	; 0xc8000001
     e08:	6e616972 	mcrvs	9, 3, r6, cr1, cr2, {3}
     e0c:	2f6e756a 	svccs	0x006e756a
     e10:	6b736544 	blvs	1cda328 <__bss_end__+0x1ccb960>
     e14:	2f706f74 	svccs	0x00706f74
     e18:	6f686373 	svcvs	0x00686373
     e1c:	572f6c6f 	strpl	r6, [pc, -pc, ror #24]!
     e20:	65746e69 	ldrbvs	r6, [r4, #-3689]!	; 0xe69
     e24:	32393172 	eorscc	r3, r9, #-2147483620	; 0x8000001c
     e28:	53432f30 	movtpl	r2, #16176	; 0x3f30
     e2c:	45303431 	ldrmi	r3, [r0, #-1073]!	; 0x431
     e30:	3173632f 	cmncc	r3, pc, lsr #6
     e34:	2d653034 	stclcs	0, cr3, [r5, #-208]!	; 0xffffff30
     e38:	69773032 	ldmdbvs	r7!, {r1, r4, r5, ip, sp}^
     e3c:	696c2f6e 	stmdbvs	ip!, {r1, r2, r3, r5, r6, r8, r9, sl, fp, sp}^
     e40:	2f697062 	svccs	0x00697062
     e44:	34317363 	ldrtcc	r7, [r1], #-867	; 0x363
     e48:	732d6530 	teqvc	sp, #48, 10	; 0xc000000
     e4c:	2f006372 	svccs	0x00006372
     e50:	2f727375 	svccs	0x00727375
     e54:	61636f6c 	cmnvs	r3, ip, ror #30
     e58:	65432f6c 	strbvs	r2, [r3, #-3948]	; 0xf6c
     e5c:	72616c6c 	rsbvc	r6, r1, #108, 24	; 0x6c00
     e60:	6d72612f 	ldfvse	f6, [r2, #-188]!	; 0xffffff44
     e64:	6e6f6e2d 	cdpvs	14, 6, cr6, cr15, cr13, {1}
     e68:	61652d65 	cmnvs	r5, r5, ror #26
     e6c:	342f6962 	strtcc	r6, [pc], #-2402	; e74 <_start-0x718c>
     e70:	332e382e 	teqcc	lr, #3014656	; 0x2e0000
     e74:	3173632d 	cmncc	r3, sp, lsr #6
     e78:	2f653037 	svccs	0x00653037
     e7c:	2f62696c 	svccs	0x0062696c
     e80:	2f636367 	svccs	0x00636367
     e84:	2d6d7261 	sfmcs	f7, 2, [sp, #-388]!	; 0xfffffe7c
     e88:	656e6f6e 	strbvs	r6, [lr, #-3950]!	; 0xf6e
     e8c:	6261652d 	rsbvs	r6, r1, #188743680	; 0xb400000
     e90:	2e342f69 	cdpcs	15, 3, cr2, cr4, cr9, {3}
     e94:	2f332e38 	svccs	0x00332e38
     e98:	6c636e69 	stclvs	14, cr6, [r3], #-420	; 0xfffffe5c
     e9c:	00656475 	rsbeq	r6, r5, r5, ror r4
     ea0:	6573552f 	ldrbvs	r5, [r3, #-1327]!	; 0x52f
     ea4:	622f7372 	eorvs	r7, pc, #-939524095	; 0xc8000001
     ea8:	6e616972 	mcrvs	9, 3, r6, cr1, cr2, {3}
     eac:	2f6e756a 	svccs	0x006e756a
     eb0:	6b736544 	blvs	1cda3c8 <__bss_end__+0x1ccba00>
     eb4:	2f706f74 	svccs	0x00706f74
     eb8:	6f686373 	svcvs	0x00686373
     ebc:	572f6c6f 	strpl	r6, [pc, -pc, ror #24]!
     ec0:	65746e69 	ldrbvs	r6, [r4, #-3689]!	; 0xe69
     ec4:	32393172 	eorscc	r3, r9, #-2147483620	; 0x8000001c
     ec8:	53432f30 	movtpl	r2, #16176	; 0x3f30
     ecc:	45303431 	ldrmi	r3, [r0, #-1073]!	; 0x431
     ed0:	3173632f 	cmncc	r3, pc, lsr #6
     ed4:	2d653034 	stclcs	0, cr3, [r5, #-208]!	; 0xffffff30
     ed8:	69773032 	ldmdbvs	r7!, {r1, r4, r5, ip, sp}^
     edc:	696c2f6e 	stmdbvs	ip!, {r1, r2, r3, r5, r6, r8, r9, sl, fp, sp}^
     ee0:	00697062 	rsbeq	r7, r9, r2, rrx
     ee4:	6573552f 	ldrbvs	r5, [r3, #-1327]!	; 0x52f
     ee8:	622f7372 	eorvs	r7, pc, #-939524095	; 0xc8000001
     eec:	6e616972 	mcrvs	9, 3, r6, cr1, cr2, {3}
     ef0:	2f6e756a 	svccs	0x006e756a
     ef4:	6b736544 	blvs	1cda40c <__bss_end__+0x1ccba44>
     ef8:	2f706f74 	svccs	0x00706f74
     efc:	6f686373 	svcvs	0x00686373
     f00:	572f6c6f 	strpl	r6, [pc, -pc, ror #24]!
     f04:	65746e69 	ldrbvs	r6, [r4, #-3689]!	; 0xe69
     f08:	32393172 	eorscc	r3, r9, #-2147483620	; 0x8000001c
     f0c:	53432f30 	movtpl	r2, #16176	; 0x3f30
     f10:	45303431 	ldrmi	r3, [r0, #-1073]!	; 0x431
     f14:	3173632f 	cmncc	r3, pc, lsr #6
     f18:	2d653034 	stclcs	0, cr3, [r5, #-208]!	; 0xffffff30
     f1c:	69773032 	ldmdbvs	r7!, {r1, r4, r5, ip, sp}^
     f20:	696c2f6e 	stmdbvs	ip!, {r1, r2, r3, r5, r6, r8, r9, sl, fp, sp}^
     f24:	2f697062 	svccs	0x00697062
     f28:	6362696c 	cmnvs	r2, #108, 18	; 0x1b0000
     f2c:	77730000 	ldrbvc	r0, [r3, -r0]!
     f30:	7261752d 	rsbvc	r7, r1, #188743680	; 0xb400000
     f34:	00632e74 	rsbeq	r2, r3, r4, ror lr
     f38:	63000001 	movwvs	r0, #1
     f3c:	656c6379 	strbvs	r6, [ip, #-889]!	; 0x379
     f40:	6974752d 	ldmdbvs	r4!, {r0, r2, r3, r5, r8, sl, ip, sp, lr}^
     f44:	00682e6c 	rsbeq	r2, r8, ip, ror #28
     f48:	73000002 	movwvc	r0, #2
     f4c:	6e696474 	mcrvs	4, 3, r6, cr9, cr4, {3}
     f50:	63672d74 	cmnvs	r7, #116, 26	; 0x1d00
     f54:	00682e63 	rsbeq	r2, r8, r3, ror #28
     f58:	73000003 	movwvc	r0, #3
     f5c:	61752d77 	cmnvs	r5, r7, ror sp
     f60:	682e7472 	stmdavs	lr!, {r1, r4, r5, r6, sl, ip, sp, lr}
     f64:	00000200 	andeq	r0, r0, r0, lsl #4
     f68:	61647473 	smcvs	18243	; 0x4743
     f6c:	682e6772 	stmdavs	lr!, {r1, r4, r5, r6, r8, r9, sl, sp, lr}
     f70:	00000300 	andeq	r0, r0, r0, lsl #6
     f74:	6f697067 	svcvs	0x00697067
     f78:	0200682e 	andeq	r6, r0, #3014656	; 0x2e0000
     f7c:	70720000 	rsbsvc	r0, r2, r0
     f80:	00682e69 	rsbeq	r2, r8, r9, ror #28
     f84:	76000004 	strvc	r0, [r0], -r4
     f88:	72702d61 	rsbsvc	r2, r0, #6208	; 0x1840
     f8c:	6b746e69 	blvs	1d1c938 <__bss_end__+0x1d0df70>
     f90:	0500682e 	streq	r6, [r0, #-2094]	; 0x82e
     f94:	623c0000 	eorsvs	r0, ip, #0
     f98:	746c6975 	strbtvc	r6, [ip], #-2421	; 0x975
     f9c:	3e6e692d 	cdpcc	9, 6, cr6, cr14, cr13, {1}
     fa0:	00000000 	andeq	r0, r0, r0
     fa4:	02050000 	andeq	r0, r5, #0
     fa8:	00009510 	andeq	r9, r0, r0, lsl r5
     fac:	302f4c1a 	eorcc	r4, pc, sl, lsl ip	; <UNPREDICTABLE>
     fb0:	0b030204 	bleq	c17c8 <__bss_end__+0xb2e00>
     fb4:	6673032e 	ldrbtvs	r0, [r3], -lr, lsr #6
     fb8:	04880104 	streq	r0, [r8], #260	; 0x104
     fbc:	73033502 	movwvc	r3, #13570	; 0x3502
     fc0:	8a010466 	bhi	42160 <__bss_end__+0x33798>
     fc4:	03330204 	teqeq	r3, #4, 4	; 0x40000000
     fc8:	01046673 	tsteq	r4, r3, ror r6
     fcc:	04820a03 	streq	r0, [r2], #2563	; 0xa03
     fd0:	73033102 	movwvc	r3, #12546	; 0x3102
     fd4:	03010466 	movweq	r0, #5222	; 0x1466
     fd8:	0204820c 	andeq	r8, r4, #12, 4	; 0xc0000000
     fdc:	6673032f 	ldrbtvs	r0, [r3], -pc, lsr #6
     fe0:	0e030104 	adfeqs	f0, f3, f4
     fe4:	2d020482 	cfstrscs	mvf0, [r2, #-520]	; 0xfffffdf8
     fe8:	04667303 	strbteq	r7, [r6], #-771	; 0x303
     fec:	82100301 	andshi	r0, r0, #67108864	; 0x4000000
     ff0:	032b0204 	teqeq	fp, #4, 4	; 0x40000000
     ff4:	01046673 	tsteq	r4, r3, ror r6
     ff8:	04821203 	streq	r1, [r2], #515	; 0x203
     ffc:	73032902 	movwvc	r2, #14594	; 0x3902
    1000:	03010466 	movweq	r0, #5222	; 0x1466
    1004:	02048214 	andeq	r8, r4, #20, 4	; 0x40000001
    1008:	032e7903 	teqeq	lr, #49152	; 0xc000
    100c:	01046673 	tsteq	r4, r3, ror r6
    1010:	04821603 	streq	r1, [r2], #1539	; 0x603
    1014:	2e770302 	cdpcs	3, 7, cr0, cr7, cr2, {0}
    1018:	04667303 	strbteq	r7, [r6], #-771	; 0x303
    101c:	82180301 	andshi	r0, r8, #67108864	; 0x4000000
    1020:	4b2e1003 	blmi	b85034 <__bss_end__+0xb7666c>
    1024:	2e70034d 	cdpcs	3, 7, cr0, cr0, cr13, {2}
    1028:	4883844c 	stmmi	r3, {r2, r3, r6, sl, pc}
    102c:	4e2e0d03 	cdpmi	13, 2, cr0, cr14, cr3, {0}
    1030:	02043331 	andeq	r3, r4, #-1006632960	; 0xc4000000
    1034:	042e4803 	strteq	r4, [lr], #-2051	; 0x803
    1038:	823a0301 	eorshi	r0, sl, #67108864	; 0x4000000
    103c:	0302042f 	movweq	r0, #9263	; 0x242f
    1040:	01046645 	tsteq	r4, r5, asr #12
    1044:	2f823d03 	svccs	0x00823d03
    1048:	42030204 	andmi	r0, r3, #4, 4	; 0x40000000
    104c:	03010482 	movweq	r0, #5250	; 0x1482
    1050:	2f8200c0 	svccs	0x008200c0
    1054:	bf030204 	svclt	0x00030204
    1058:	0104827f 	tsteq	r4, pc, ror r2
    105c:	8200c303 	andhi	ip, r0, #201326592	; 0xc000000
    1060:	0302042f 	movweq	r0, #9263	; 0x242f
    1064:	04827fbc 	streq	r7, [r2], #4028	; 0xfbc
    1068:	00c60301 	sbceq	r0, r6, r1, lsl #6
    106c:	02042f82 	andeq	r2, r4, #520	; 0x208
    1070:	827fb903 	rsbshi	fp, pc, #49152	; 0xc000
    1074:	c9030104 	stmdbgt	r3, {r2, r8}
    1078:	042f8200 	strteq	r8, [pc], #-512	; 1080 <_start-0x6f80>
    107c:	7fb60302 	svcvc	0x00b60302
    1080:	03010482 	movweq	r0, #5250	; 0x1482
    1084:	2f8200cc 	svccs	0x008200cc
    1088:	b3030204 	movwlt	r0, #12804	; 0x3204
    108c:	0104827f 	tsteq	r4, pc, ror r2
    1090:	8200d003 	andhi	sp, r0, #3
    1094:	4c824c03 	stcmi	12, cr4, [r2], {3}
    1098:	03488384 	movteq	r8, #33668	; 0x8384
    109c:	034e2e36 	movteq	r2, #60982	; 0xee36
    10a0:	29034a54 	stmdbcs	r3, {r2, r4, r6, r9, fp, lr}
    10a4:	9f34324a 	svcls	0x0034324a
    10a8:	01040200 	mrseq	r0, R12_usr
    10ac:	d7064a06 	strle	r4, [r6, -r6, lsl #20]
    10b0:	2cbb4b4e 	vldmiacs	fp!, {d4-<overflow reg d42>}
    10b4:	01040200 	mrseq	r0, R12_usr
    10b8:	6d062e06 	stcvs	14, cr2, [r6, #-24]	; 0xffffffe8
    10bc:	0084a44c 	addeq	sl, r4, ip, asr #8
    10c0:	06010402 	streq	r0, [r1], -r2, lsl #8
    10c4:	4dd7064a 	ldclmi	6, cr0, [r7, #296]	; 0x128
    10c8:	02040200 	andeq	r0, r4, #0, 4
    10cc:	0402004b 	streq	r0, [r2], #-75	; 0x4b
    10d0:	02008102 	andeq	r8, r0, #-2147483648	; 0x80000000
    10d4:	2e060104 	adfcss	f0, f6, f4
    10d8:	a54c4d06 	strbge	r4, [ip, #-3334]	; 0xd06
    10dc:	4b4b4bbc 	blmi	12d3fd4 <__bss_end__+0x12c560c>
    10e0:	02002f6a 	andeq	r2, r0, #424	; 0x1a8
    10e4:	82060104 	andhi	r0, r6, #4, 2
    10e8:	04020082 	streq	r0, [r2], #-130	; 0x82
    10ec:	02009e04 	andeq	r9, r0, #4, 28	; 0x40
    10f0:	064a0104 	strbeq	r0, [sl], -r4, lsl #2
    10f4:	2fbd88d9 	svccs	0x00bd88d9
    10f8:	40084b4b 	andmi	r4, r8, fp, asr #22
    10fc:	04020067 	streq	r0, [r2], #-103	; 0x67
    1100:	02002f02 	andeq	r2, r0, #2, 30
    1104:	00490204 	subeq	r0, r9, r4, lsl #4
    1108:	06010402 	streq	r0, [r1], -r2, lsl #8
    110c:	3468062e 	strbtcc	r0, [r8], #-1582	; 0x62e
    1110:	00a04b86 	adceq	r4, r0, r6, lsl #23
    1114:	06010402 	streq	r0, [r1], -r2, lsl #8
    1118:	68d70666 	ldmvs	r7, {r1, r2, r5, r6, r9, sl}^
    111c:	674b2208 	strbvs	r2, [fp, -r8, lsl #4]
    1120:	0a02d84b 	beq	b7254 <__bss_end__+0xa888c>
    1124:	01010100 	mrseq	r0, (UNDEF: 17)
    1128:	02000001 	andeq	r0, r0, #1
    112c:	0000ca00 	andeq	ip, r0, r0, lsl #20
    1130:	fb010200 	blx	4193a <__bss_end__+0x32f72>
    1134:	01000d0e 	tsteq	r0, lr, lsl #26
    1138:	00010101 	andeq	r0, r1, r1, lsl #2
    113c:	00010000 	andeq	r0, r1, r0
    1140:	796d0100 	stmdbvc	sp!, {r8}^
    1144:	6372732d 	cmnvs	r2, #-1275068416	; 0xb4000000
    1148:	73552f00 	cmpvc	r5, #0, 30
    114c:	2f737265 	svccs	0x00737265
    1150:	61697262 	cmnvs	r9, r2, ror #4
    1154:	6e756a6e 	vsubvs.f32	s13, s10, s29
    1158:	7365442f 	cmnvc	r5, #788529152	; 0x2f000000
    115c:	706f746b 	rsbvc	r7, pc, fp, ror #8
    1160:	6863732f 	stmdavs	r3!, {r0, r1, r2, r3, r5, r8, r9, ip, sp, lr}^
    1164:	2f6c6f6f 	svccs	0x006c6f6f
    1168:	746e6957 	strbtvc	r6, [lr], #-2391	; 0x957
    116c:	39317265 	ldmdbcc	r1!, {r0, r2, r5, r6, r9, ip, sp, lr}
    1170:	432f3032 	teqmi	pc, #50	; 0x32
    1174:	30343153 	eorscc	r3, r4, r3, asr r1
    1178:	73632f45 	cmnvc	r3, #276	; 0x114
    117c:	65303431 	ldrvs	r3, [r0, #-1073]!	; 0x431
    1180:	7730322d 	ldrvc	r3, [r0, -sp, lsr #4]!
    1184:	6c2f6e69 	stcvs	14, cr6, [pc], #-420	; fe8 <_start-0x7018>
    1188:	69706269 	ldmdbvs	r0!, {r0, r3, r5, r6, r9, sp, lr}^
    118c:	3173632f 	cmncc	r3, pc, lsr #6
    1190:	2d653034 	stclcs	0, cr3, [r5, #-208]!	; 0xffffff30
    1194:	00637273 	rsbeq	r7, r3, r3, ror r2
    1198:	6573552f 	ldrbvs	r5, [r3, #-1327]!	; 0x52f
    119c:	622f7372 	eorvs	r7, pc, #-939524095	; 0xc8000001
    11a0:	6e616972 	mcrvs	9, 3, r6, cr1, cr2, {3}
    11a4:	2f6e756a 	svccs	0x006e756a
    11a8:	6b736544 	blvs	1cda6c0 <__bss_end__+0x1ccbcf8>
    11ac:	2f706f74 	svccs	0x00706f74
    11b0:	6f686373 	svcvs	0x00686373
    11b4:	572f6c6f 	strpl	r6, [pc, -pc, ror #24]!
    11b8:	65746e69 	ldrbvs	r6, [r4, #-3689]!	; 0xe69
    11bc:	32393172 	eorscc	r3, r9, #-2147483620	; 0x8000001c
    11c0:	53432f30 	movtpl	r2, #16176	; 0x3f30
    11c4:	45303431 	ldrmi	r3, [r0, #-1073]!	; 0x431
    11c8:	3173632f 	cmncc	r3, pc, lsr #6
    11cc:	2d653034 	stclcs	0, cr3, [r5, #-208]!	; 0xffffff30
    11d0:	69773032 	ldmdbvs	r7!, {r1, r4, r5, ip, sp}^
    11d4:	696c2f6e 	stmdbvs	ip!, {r1, r2, r3, r5, r6, r8, r9, sl, fp, sp}^
    11d8:	00697062 	rsbeq	r7, r9, r2, rrx
    11dc:	72617500 	rsbvc	r7, r1, #0, 10
    11e0:	00632e74 	rsbeq	r2, r3, r4, ror lr
    11e4:	67000001 	strvs	r0, [r0, -r1]
    11e8:	2e6f6970 	mcrcs	9, 3, r6, cr15, cr0, {3}
    11ec:	00020068 	andeq	r0, r2, r8, rrx
    11f0:	69707200 	ldmdbvs	r0!, {r9, ip, sp, lr}^
    11f4:	0300682e 	movweq	r6, #2094	; 0x82e
    11f8:	00000000 	andeq	r0, r0, r0
    11fc:	9b300205 	blls	c01a18 <__bss_end__+0xbf3050>
    1200:	36030000 	strcc	r0, [r3], -r0
    1204:	67333001 	ldrvs	r3, [r3, -r1]!
    1208:	30d8306d 	sbcscc	r3, r8, sp, rrx
    120c:	67676767 	strbvs	r6, [r7, -r7, ror #14]!
    1210:	2f866867 	svccs	0x00866867
    1214:	67306a67 	ldrvs	r6, [r0, -r7, ror #20]!
    1218:	672f6967 	strvs	r6, [pc, -r7, ror #18]!
    121c:	c1674c6a 	cmngt	r7, sl, ror #24
    1220:	2f302f2f 	svccs	0x00302f2f
    1224:	02304968 	eorseq	r4, r0, #104, 18	; 0x1a0000
    1228:	01010002 	tsteq	r1, r2
    122c:	000000d6 	ldrdeq	r0, [r0], -r6
    1230:	00970002 	addseq	r0, r7, r2
    1234:	01020000 	mrseq	r0, (UNDEF: 2)
    1238:	000d0efb 	strdeq	r0, [sp], -fp
    123c:	01010101 	tsteq	r1, r1, lsl #2
    1240:	01000000 	mrseq	r0, (UNDEF: 0)
    1244:	63010000 	movwvs	r0, #4096	; 0x1000
    1248:	30343173 	eorscc	r3, r4, r3, ror r1
    124c:	6e692d65 	cdpvs	13, 6, cr2, cr9, cr5, {3}
    1250:	72726574 	rsbsvc	r6, r2, #116, 10	; 0x1d000000
    1254:	00747075 	rsbseq	r7, r4, r5, ror r0
    1258:	6573552f 	ldrbvs	r5, [r3, #-1327]!	; 0x52f
    125c:	622f7372 	eorvs	r7, pc, #-939524095	; 0xc8000001
    1260:	6e616972 	mcrvs	9, 3, r6, cr1, cr2, {3}
    1264:	2f6e756a 	svccs	0x006e756a
    1268:	6b736544 	blvs	1cda780 <__bss_end__+0x1ccbdb8>
    126c:	2f706f74 	svccs	0x00706f74
    1270:	6f686373 	svcvs	0x00686373
    1274:	572f6c6f 	strpl	r6, [pc, -pc, ror #24]!
    1278:	65746e69 	ldrbvs	r6, [r4, #-3689]!	; 0xe69
    127c:	32393172 	eorscc	r3, r9, #-2147483620	; 0x8000001c
    1280:	53432f30 	movtpl	r2, #16176	; 0x3f30
    1284:	45303431 	ldrmi	r3, [r0, #-1073]!	; 0x431
    1288:	3173632f 	cmncc	r3, pc, lsr #6
    128c:	2d653034 	stclcs	0, cr3, [r5, #-208]!	; 0xffffff30
    1290:	69773032 	ldmdbvs	r7!, {r1, r4, r5, ip, sp}^
    1294:	696c2f6e 	stmdbvs	ip!, {r1, r2, r3, r5, r6, r8, r9, sl, fp, sp}^
    1298:	00697062 	rsbeq	r7, r9, r2, rrx
    129c:	746e6900 	strbtvc	r6, [lr], #-2304	; 0x900
    12a0:	75727265 	ldrbvc	r7, [r2, #-613]!	; 0x265
    12a4:	2d737470 	cfldrdcs	mvd7, [r3, #-448]!	; 0xfffffe40
    12a8:	00632e63 	rsbeq	r2, r3, r3, ror #28
    12ac:	72000001 	andvc	r0, r0, #1
    12b0:	682e6970 	stmdavs	lr!, {r4, r5, r6, r8, fp, sp, lr}
    12b4:	00000200 	andeq	r0, r0, r0, lsl #4
    12b8:	2d697072 	stclcs	0, cr7, [r9, #-456]!	; 0xfffffe38
    12bc:	65746e69 	ldrbvs	r6, [r4, #-3689]!	; 0xe69
    12c0:	70757272 	rsbsvc	r7, r5, r2, ror r2
    12c4:	682e7374 	stmdavs	lr!, {r2, r4, r5, r6, r8, r9, ip, sp, lr}
    12c8:	00000100 	andeq	r0, r0, r0, lsl #2
    12cc:	02050000 	andeq	r0, r5, #0
    12d0:	00009c84 	andeq	r9, r0, r4, lsl #25
    12d4:	67673116 			; <UNDEFINED> instruction: 0x67673116
    12d8:	832e0e03 	teqhi	lr, #3, 28	; 0x30
    12dc:	02002d2f 	andeq	r2, r0, #3008	; 0xbc0
    12e0:	002f0204 	eoreq	r0, pc, r4, lsl #4
    12e4:	65020402 	strvs	r0, [r2, #-1026]	; 0x402
    12e8:	01040200 	mrseq	r0, R12_usr
    12ec:	4c062e06 	stcmi	14, cr2, [r6], {6}
    12f0:	b00867a2 	andlt	r6, r8, r2, lsr #15
    12f4:	67ae0867 	strvs	r0, [lr, r7, ror #16]!
    12f8:	0867ae08 	stmdaeq	r7!, {r3, r9, sl, fp, sp, pc}^
    12fc:	ae0867ae 	cdpge	7, 0, cr6, cr8, cr14, {5}
    1300:	001c0267 	andseq	r0, ip, r7, ror #4
    1304:	01280101 	teqeq	r8, r1, lsl #2
    1308:	00020000 	andeq	r0, r2, r0
    130c:	0000010d 	andeq	r0, r0, sp, lsl #2
    1310:	0efb0102 	cdpeq	1, 15, cr0, cr11, cr2, {0}
    1314:	0101000d 	tsteq	r1, sp
    1318:	00000101 	andeq	r0, r0, r1, lsl #2
    131c:	00000100 	andeq	r0, r0, r0, lsl #2
    1320:	31736301 	cmncc	r3, r1, lsl #6
    1324:	2d653034 	stclcs	0, cr3, [r5, #-208]!	; 0xffffff30
    1328:	00637273 	rsbeq	r7, r3, r3, ror r2
    132c:	7273752f 	rsbsvc	r7, r3, #197132288	; 0xbc00000
    1330:	636f6c2f 	cmnvs	pc, #12032	; 0x2f00
    1334:	432f6c61 	teqmi	pc, #24832	; 0x6100
    1338:	616c6c65 	cmnvs	ip, r5, ror #24
    133c:	72612f72 	rsbvc	r2, r1, #456	; 0x1c8
    1340:	6f6e2d6d 	svcvs	0x006e2d6d
    1344:	652d656e 	strvs	r6, [sp, #-1390]!	; 0x56e
    1348:	2f696261 	svccs	0x00696261
    134c:	2e382e34 	mrccs	14, 1, r2, cr8, cr4, {1}
    1350:	73632d33 	cmnvc	r3, #3264	; 0xcc0
    1354:	65303731 	ldrvs	r3, [r0, #-1841]!	; 0x731
    1358:	62696c2f 	rsbvs	r6, r9, #12032	; 0x2f00
    135c:	6363672f 	cmnvs	r3, #12320768	; 0xbc0000
    1360:	6d72612f 	ldfvse	f6, [r2, #-188]!	; 0xffffff44
    1364:	6e6f6e2d 	cdpvs	14, 6, cr6, cr15, cr13, {1}
    1368:	61652d65 	cmnvs	r5, r5, ror #26
    136c:	342f6962 	strtcc	r6, [pc], #-2402	; 1374 <_start-0x6c8c>
    1370:	332e382e 	teqcc	lr, #3014656	; 0x2e0000
    1374:	636e692f 	cmnvs	lr, #770048	; 0xbc000
    1378:	6564756c 	strbvs	r7, [r4, #-1388]!	; 0x56c
    137c:	73752f00 	cmnvc	r5, #0, 30
    1380:	6f6c2f72 	svcvs	0x006c2f72
    1384:	2f6c6163 	svccs	0x006c6163
    1388:	6c6c6543 	cfstr64vs	mvdx6, [ip], #-268	; 0xfffffef4
    138c:	612f7261 	teqvs	pc, r1, ror #4
    1390:	6e2d6d72 	mcrvs	13, 1, r6, cr13, cr2, {3}
    1394:	2d656e6f 	stclcs	14, cr6, [r5, #-444]!	; 0xfffffe44
    1398:	69626165 	stmdbvs	r2!, {r0, r2, r5, r6, r8, sp, lr}^
    139c:	382e342f 	stmdacc	lr!, {r0, r1, r2, r3, r5, sl, ip, sp}
    13a0:	632d332e 	teqvs	sp, #-1207959552	; 0xb8000000
    13a4:	30373173 	eorscc	r3, r7, r3, ror r1
    13a8:	72612f65 	rsbvc	r2, r1, #404	; 0x194
    13ac:	6f6e2d6d 	svcvs	0x006e2d6d
    13b0:	652d656e 	strvs	r6, [sp, #-1390]!	; 0x56e
    13b4:	2f696261 	svccs	0x00696261
    13b8:	6c636e69 	stclvs	14, cr6, [r3], #-420	; 0xfffffe5c
    13bc:	00656475 	rsbeq	r6, r5, r5, ror r4
    13c0:	6e6f6300 	cdpvs	3, 6, cr6, cr15, cr0, {0}
    13c4:	6c6f7274 	sfmvs	f7, 2, [pc], #-464	; 11fc <_start-0x6e04>
    13c8:	6f6c622d 	svcvs	0x006c622d
    13cc:	632e6b63 	teqvs	lr, #101376	; 0x18c00
    13d0:	00000100 	andeq	r0, r0, r0, lsl #2
    13d4:	64647473 	strbtvs	r7, [r4], #-1139	; 0x473
    13d8:	682e6665 	stmdavs	lr!, {r0, r2, r5, r6, r9, sl, sp, lr}
    13dc:	00000200 	andeq	r0, r0, r0, lsl #4
    13e0:	69647473 	stmdbvs	r4!, {r0, r1, r4, r5, r6, sl, ip, sp, lr}^
    13e4:	672d746e 	strvs	r7, [sp, -lr, ror #8]!
    13e8:	682e6363 	stmdavs	lr!, {r0, r1, r5, r6, r8, r9, sp, lr}
    13ec:	00000200 	andeq	r0, r0, r0, lsl #4
    13f0:	752d7773 	strvc	r7, [sp, #-1907]!	; 0x773
    13f4:	2e747261 	cdpcs	2, 7, cr7, cr4, cr1, {3}
    13f8:	00010068 	andeq	r0, r1, r8, rrx
    13fc:	6e6f6300 	cdpvs	3, 6, cr6, cr15, cr0, {0}
    1400:	6c6f7274 	sfmvs	f7, 2, [pc], #-464	; 1238 <_start-0x6dc8>
    1404:	6f6c622d 	svcvs	0x006c622d
    1408:	682e6b63 	stmdavs	lr!, {r0, r1, r5, r6, r8, r9, fp, sp, lr}
    140c:	00000100 	andeq	r0, r0, r0, lsl #2
    1410:	69727473 	ldmdbvs	r2!, {r0, r1, r4, r5, r6, sl, ip, sp, lr}^
    1414:	682e676e 	stmdavs	lr!, {r1, r2, r3, r5, r6, r8, r9, sl, sp, lr}
    1418:	00000300 	andeq	r0, r0, r0, lsl #6
    141c:	02050000 	andeq	r0, r5, #0
    1420:	00009fc0 	andeq	r9, r0, r0, asr #31
    1424:	68833016 	stmvs	r3, {r1, r2, r4, ip, sp}
    1428:	4b9f144c 	blmi	fe7c6560 <__bss_end__+0xfe7b7b98>
    142c:	0004022f 	andeq	r0, r4, pc, lsr #4
    1430:	Address 0x0000000000001430 is out of bounds.


Disassembly of section .debug_str:

00000000 <.debug_str>:
   0:	74726175 	ldrbtvc	r6, [r2], #-373	; 0x175
   4:	7465675f 	strbtvc	r6, [r5], #-1887	; 0x75f
   8:	6e695f63 	cdpvs	15, 6, cr5, cr9, cr3, {3}
   c:	69730074 	ldmdbvs	r3!, {r2, r4, r5, r6}^
  10:	745f657a 	ldrbvc	r6, [pc], #-1402	; 18 <_start-0x7fe8>
  14:	72617500 	rsbvc	r7, r1, #0, 10
  18:	6e695f74 	mcrvs	15, 3, r5, cr9, cr4, {3}
  1c:	695f7469 	ldmdbvs	pc, {r0, r3, r5, r6, sl, ip, sp, lr}^	; <UNPREDICTABLE>
  20:	6500746e 	strvs	r7, [r0, #-1134]	; 0x46e
  24:	726f7272 	rsbvc	r7, pc, #536870919	; 0x20000007
  28:	61665f73 	smcvs	26099	; 0x65f3
  2c:	5f6c6174 	svcpl	0x006c6174
  30:	55410070 	strbpl	r0, [r1, #-112]	; 0x70
  34:	554d5f58 	strbpl	r5, [sp, #-3928]	; 0xf58
  38:	5243535f 	subpl	r5, r3, #2080374785	; 0x7c000001
  3c:	48435441 	stmdami	r3, {r0, r6, sl, ip, lr}^
  40:	746f6e00 	strbtvc	r6, [pc], #-3584	; 48 <_start-0x7fb8>
  44:	6e69616d 	powvsez	f6, f1, #5.0
  48:	6d726100 	ldfvse	f6, [r2, #-0]
  4c:	6d69745f 	cfstrdvs	mvd7, [r9, #-380]!	; 0xfffffe84
  50:	525f7265 	subspl	r7, pc, #1342177286	; 0x50000006
  54:	52495741 	subpl	r5, r9, #17039360	; 0x1040000
  58:	6f6c0051 	svcvs	0x006c0051
  5c:	6c20676e 	stcvs	7, cr6, [r0], #-440	; 0xfffffe48
  60:	20676e6f 	rsbcs	r6, r7, pc, ror #28
  64:	69736e75 	ldmdbvs	r3!, {r0, r2, r4, r5, r6, r9, sl, fp, sp, lr}^
  68:	64656e67 	strbtvs	r6, [r5], #-3687	; 0xe67
  6c:	746e6920 	strbtvc	r6, [lr], #-2336	; 0x920
  70:	625f6300 	subsvs	r6, pc, #0, 6
  74:	47006675 	smlsdxmi	r0, r5, r6, r6
  78:	5f4f4950 	svcpl	0x004f4950
  7c:	434e5546 	movtmi	r5, #58694	; 0xe546
  80:	504e495f 	subpl	r4, lr, pc, asr r9
  84:	63005455 	movwvs	r5, #1109	; 0x455
  88:	6d655f71 	stclvs	15, cr5, [r5, #-452]!	; 0xfffffe3c
  8c:	00797470 	rsbseq	r7, r9, r0, ror r4
  90:	6c637963 	stclvs	9, cr7, [r3], #-396	; 0xfffffe74
  94:	65705f65 	ldrbvs	r5, [r0, #-3941]!	; 0xf65
  98:	69625f72 	stmdbvs	r2!, {r1, r4, r5, r6, r8, r9, sl, fp, ip, lr}^
  9c:	6f6c0074 	svcvs	0x006c0074
  a0:	6c20676e 	stcvs	7, cr6, [r0], #-440	; 0xfffffe48
  a4:	20676e6f 	rsbcs	r6, r7, pc, ror #28
  a8:	00746e69 	rsbseq	r6, r4, r9, ror #28
  ac:	755f7773 	ldrbvc	r7, [pc, #-1907]	; fffff941 <__bss_end__+0xffff0f79>
  b0:	5f747261 	svcpl	0x00747261
  b4:	74696e69 	strbtvc	r6, [r9], #-3689	; 0xe69
  b8:	6c65685f 	stclvs	8, cr6, [r5], #-380	; 0xfffffe84
  bc:	00726570 	rsbseq	r6, r2, r0, ror r5
  c0:	74726175 	ldrbtvc	r6, [r2], #-373	; 0x175
  c4:	6e61635f 	mcrvs	3, 3, r6, cr1, cr15, {2}
  c8:	7465675f 	strbtvc	r6, [r5], #-1887	; 0x75f
  cc:	74730063 	ldrbtvc	r0, [r3], #-99	; 0x63
  d0:	00657461 	rsbeq	r7, r5, r1, ror #8
  d4:	5f6d7261 	svcpl	0x006d7261
  d8:	656d6974 	strbvs	r6, [sp, #-2420]!	; 0x974
  dc:	6f435f72 	svcvs	0x00435f72
  e0:	6f72746e 	svcvs	0x0072746e
  e4:	7261006c 	rsbvc	r0, r1, #108	; 0x6c
  e8:	69745f6d 	ldmdbvs	r4!, {r0, r2, r3, r5, r6, r8, r9, sl, fp, ip, lr}^
  ec:	5f72656d 	svcpl	0x0072656d
  f0:	64616f4c 	strbtvs	r6, [r1], #-3916	; 0xf4c
  f4:	6d726100 	ldfvse	f6, [r2, #-0]
  f8:	6d69745f 	cfstrdvs	mvd7, [r9, #-380]!	; 0xfffffe84
  fc:	425f7265 	subsmi	r7, pc, #1342177286	; 0x50000006
 100:	00657361 	rsbeq	r7, r5, r1, ror #6
 104:	5f585541 	svcpl	0x00585541
 108:	4c5f554d 	cfldr64mi	mvdx5, [pc], {77}	; 0x4d
 10c:	525f5253 	subspl	r5, pc, #805306373	; 0x30000005
 110:	6e004745 	cdpvs	7, 0, cr4, cr0, cr5, {2}
 114:	65746e69 	ldrbvs	r6, [r4, #-3689]!	; 0xe69
 118:	70757272 	rsbsvc	r7, r5, r2, ror r2
 11c:	55410074 	strbpl	r0, [r1, #-116]	; 0x74
 120:	4e455f58 	mcrmi	15, 2, r5, cr5, cr8, {2}
 124:	454c4241 	strbmi	r4, [ip, #-577]	; 0x241
 128:	6e690053 	mcrvs	0, 3, r0, cr9, cr3, {2}
 12c:	74735f74 	ldrbtvc	r5, [r3], #-3956	; 0xf74
 130:	73757461 	cmnvc	r5, #1627389952	; 0x61000000
 134:	5f6e6900 	svcpl	0x006e6900
 138:	61746164 	cmnvs	r4, r4, ror #2
 13c:	72617500 	rsbvc	r7, r1, #0, 10
 140:	61635f74 	smcvs	13812	; 0x35f4
 144:	75705f6e 	ldrbvc	r5, [r0, #-3950]!	; 0xf6e
 148:	74006374 	strvc	r6, [r0], #-884	; 0x374
 14c:	6f635f78 	svcvs	0x00635f78
 150:	00746e75 	rsbseq	r6, r4, r5, ror lr
 154:	51746567 	cmnpl	r4, r7, ror #10
 158:	6d726100 	ldfvse	f6, [r2, #-0]
 15c:	6d69745f 	cfstrdvs	mvd7, [r9, #-380]!	; 0xfffffe84
 160:	4d5f7265 	lfmmi	f7, 2, [pc, #-404]	; ffffffd4 <__bss_end__+0xffff160c>
 164:	656b7361 	strbvs	r7, [fp, #-865]!	; 0x361
 168:	51524964 	cmppl	r2, r4, ror #18
 16c:	58554100 	ldmdapl	r5, {r8, lr}^
 170:	5f554d5f 	svcpl	0x00554d5f
 174:	525f4f49 	subspl	r4, pc, #292	; 0x124
 178:	72004745 	andvc	r4, r0, #18087936	; 0x1140000
 17c:	725f6970 	subsvc	r6, pc, #112, 18	; 0x1c0000
 180:	74657365 	strbtvc	r7, [r5], #-869	; 0x365
 184:	7475705f 	ldrbtvc	r7, [r5], #-95	; 0x5f
 188:	77730063 	ldrbvc	r0, [r3, -r3, rrx]!
 18c:	7261755f 	rsbvc	r7, r1, #398458880	; 0x17c00000
 190:	55410074 	strbpl	r0, [r1, #-116]	; 0x74
 194:	554d5f58 	strbpl	r5, [sp, #-3928]	; 0xf58
 198:	5541425f 	strbpl	r4, [r1, #-607]	; 0x25f
 19c:	45525f44 	ldrbmi	r5, [r2, #-3908]	; 0xf44
 1a0:	5f5f0047 	svcpl	0x005f0047
 1a4:	434e5546 	movtmi	r5, #58694	; 0xe546
 1a8:	4e4f4954 	mcrmi	9, 2, r4, cr15, cr4, {2}
 1ac:	41005f5f 	tstmi	r0, pc, asr pc
 1b0:	4d5f5855 	ldclmi	8, cr5, [pc, #-340]	; 64 <_start-0x7f9c>
 1b4:	434c5f55 	movtmi	r5, #53077	; 0xcf55
 1b8:	45525f52 	ldrbmi	r5, [r2, #-3922]	; 0xf52
 1bc:	71630047 	cmnvc	r3, r7, asr #32
 1c0:	6c656e5f 	stclvs	14, cr6, [r5], #-380	; 0xfffffe84
 1c4:	2f006d65 	svccs	0x00006d65
 1c8:	72657355 	rsbvc	r7, r5, #1409286145	; 0x54000001
 1cc:	72622f73 	rsbvc	r2, r2, #460	; 0x1cc
 1d0:	6a6e6169 	bvs	1b9877c <__bss_end__+0x1b89db4>
 1d4:	442f6e75 	strtmi	r6, [pc], #-3701	; 1dc <_start-0x7e24>
 1d8:	746b7365 	strbtvc	r7, [fp], #-869	; 0x365
 1dc:	732f706f 	teqvc	pc, #111	; 0x6f
 1e0:	6f6f6863 	svcvs	0x006f6863
 1e4:	69572f6c 	ldmdbvs	r7, {r2, r3, r5, r6, r8, r9, sl, fp, sp}^
 1e8:	7265746e 	rsbvc	r7, r5, #1845493760	; 0x6e000000
 1ec:	30323931 	eorscc	r3, r2, r1, lsr r9
 1f0:	3153432f 	cmpcc	r3, pc, lsr #6
 1f4:	2f453034 	svccs	0x00453034
 1f8:	34317363 	ldrtcc	r7, [r1], #-867	; 0x363
 1fc:	322d6530 	eorcc	r6, sp, #48, 10	; 0xc000000
 200:	6e697730 	mcrvs	7, 3, r7, cr9, cr0, {1}
 204:	62616c2f 	rsbvs	r6, r1, #12032	; 0x2f00
 208:	2d382f73 	ldccs	15, cr2, [r8, #-460]!	; 0xfffffe34
 20c:	69766564 	ldmdbvs	r6!, {r2, r5, r6, r8, sl, sp, lr}^
 210:	692d6563 	pushvs	{r0, r1, r5, r6, r8, sl, sp, lr}
 214:	7265746e 	rsbvc	r7, r5, #1845493760	; 0x6e000000
 218:	74707572 	ldrbtvc	r7, [r0], #-1394	; 0x572
 21c:	77682f73 			; <UNDEFINED> instruction: 0x77682f73
 220:	77682d31 			; <UNDEFINED> instruction: 0x77682d31
 224:	7261752d 	rsbvc	r7, r1, #188743680	; 0xb400000
 228:	6e692d74 	mcrvs	13, 3, r2, cr9, cr4, {3}
 22c:	68730074 	ldmdavs	r3!, {r2, r4, r5, r6}^
 230:	2074726f 	rsbscs	r7, r4, pc, ror #4
 234:	69736e75 	ldmdbvs	r3!, {r0, r2, r4, r5, r6, r9, sl, fp, sp, lr}^
 238:	64656e67 	strbtvs	r6, [r5], #-3687	; 0xe67
 23c:	746e6920 	strbtvc	r6, [lr], #-2336	; 0x920
 240:	72617500 	rsbvc	r7, r1, #0, 10
 244:	75705f74 	ldrbvc	r5, [r0, #-3956]!	; 0xf74
 248:	695f6374 	ldmdbvs	pc, {r2, r4, r5, r6, r8, r9, sp, lr}^	; <UNPREDICTABLE>
 24c:	4100746e 	tstmi	r0, lr, ror #8
 250:	4d5f5855 	ldclmi	8, cr5, [pc, #-340]	; 104 <_start-0x7efc>
 254:	534d5f55 	movtpl	r5, #57173	; 0xdf55
 258:	45525f52 	ldrbmi	r5, [r2, #-3922]	; 0xf52
 25c:	77730047 	ldrbvc	r0, [r3, -r7, asr #32]!
 260:	7261755f 	rsbvc	r7, r1, #398458880	; 0x17c00000
 264:	75705f74 	ldrbvc	r5, [r0, #-3956]!	; 0xf74
 268:	70006374 	andvc	r6, r0, r4, ror r3
 26c:	00517475 	subseq	r7, r1, r5, ror r4
 270:	755f7369 	ldrbvc	r7, [pc, #-873]	; ffffff0f <__bss_end__+0xffff1547>
 274:	5f747261 	svcpl	0x00747261
 278:	00746e69 	rsbseq	r6, r4, r9, ror #28
 27c:	5f515249 	svcpl	0x00515249
 280:	42414e45 	submi	r4, r1, #1104	; 0x450
 284:	315f454c 	cmpcc	pc, ip, asr #10
 288:	51524900 	cmppl	r2, r0, lsl #18
 28c:	414e455f 	cmpmi	lr, pc, asr r5
 290:	5f454c42 	svcpl	0x00454c42
 294:	55410032 	strbpl	r0, [r1, #-50]	; 0x32
 298:	554d5f58 	strbpl	r5, [sp, #-3928]	; 0xf58
 29c:	5245495f 	subpl	r4, r5, #1556480	; 0x17c000
 2a0:	4745525f 	smlsldmi	r5, r5, pc, r2	; <UNPREDICTABLE>
 2a4:	656c6300 	strbvs	r6, [ip, #-768]!	; 0x300
 2a8:	725f6e61 	subsvc	r6, pc, #1552	; 0x610
 2ac:	6f6f6265 	svcvs	0x006f6265
 2b0:	61740074 	cmnvs	r4, r4, ror r0
 2b4:	73006c69 	movwvc	r6, #3177	; 0xc69
 2b8:	74657a69 	strbtvc	r7, [r5], #-2665	; 0xa69
 2bc:	00657079 	rsbeq	r7, r5, r9, ror r0
 2c0:	6f697067 	svcvs	0x00697067
 2c4:	7465735f 	strbtvc	r7, [r5], #-863	; 0x35f
 2c8:	6e75665f 	mrcvs	6, 3, r6, cr5, cr15, {2}
 2cc:	6f697463 	svcvs	0x00697463
 2d0:	6572006e 	ldrbvs	r0, [r2, #-110]!	; 0x6e
 2d4:	61765f67 	cmnvs	r6, r7, ror #30
 2d8:	7163006c 	cmnvc	r3, ip, rrx
 2dc:	706f705f 	rsbvc	r7, pc, pc, asr r0	; <UNPREDICTABLE>
 2e0:	6e6f6e5f 	mcrvs	14, 3, r6, cr15, cr15, {2}
 2e4:	636f6c62 	cmnvs	pc, #25088	; 0x6200
 2e8:	7261006b 	rsbvc	r0, r1, #107	; 0x6b
 2ec:	69745f6d 	ldmdbvs	r4!, {r0, r2, r3, r5, r6, r8, r9, sl, fp, ip, lr}^
 2f0:	5f72656d 	svcpl	0x0072656d
 2f4:	6f6c6552 	svcvs	0x006c6552
 2f8:	63006461 	movwvs	r6, #1121	; 0x461
 2fc:	6e695f71 	mcrvs	15, 3, r5, cr9, cr1, {3}
 300:	64007469 	strvs	r7, [r0], #-1129	; 0x469
 304:	67756265 	ldrbvs	r6, [r5, -r5, ror #4]!
 308:	616c665f 	cmnvs	ip, pc, asr r6
 30c:	6e690067 	cdpvs	0, 6, cr0, cr9, cr7, {3}
 310:	6e695f74 	mcrvs	15, 3, r5, cr9, cr4, {3}
 314:	41007469 	tstmi	r0, r9, ror #8
 318:	4d5f5855 	ldclmi	8, cr5, [pc, #-340]	; 1cc <_start-0x7e34>
 31c:	49495f55 	stmdbmi	r9, {r0, r2, r4, r6, r8, r9, sl, fp, ip, lr}^
 320:	45525f52 	ldrbmi	r5, [r2, #-3922]	; 0xf52
 324:	79730047 	ldmdbvc	r3!, {r0, r1, r2, r6}^
 328:	6d657473 	cfstrdvs	mvd7, [r5, #-460]!	; 0xfffffe34
 32c:	616e655f 	cmnvs	lr, pc, asr r5
 330:	5f656c62 	svcpl	0x00656c62
 334:	65746e69 	ldrbvs	r6, [r4, #-3689]!	; 0xe69
 338:	70757272 	rsbsvc	r7, r5, r2, ror r2
 33c:	41007374 	tstmi	r0, r4, ror r3
 340:	495f5855 	ldmdbmi	pc, {r0, r2, r4, r6, fp, ip, lr}^	; <UNPREDICTABLE>
 344:	73005152 	movwvc	r5, #338	; 0x152
 348:	61755f77 	cmnvs	r5, r7, ror pc
 34c:	745f7472 	ldrbvc	r7, [pc], #-1138	; 354 <_start-0x7cac>
 350:	72617500 	rsbvc	r7, r1, #0, 10
 354:	61635f74 	smcvs	13812	; 0x35f4
 358:	65675f6e 	strbvs	r5, [r7, #-3950]!	; 0xf6e
 35c:	695f6374 	ldmdbvs	pc, {r2, r4, r5, r6, r8, r9, sp, lr}^	; <UNPREDICTABLE>
 360:	7500746e 	strvc	r7, [r0, #-1134]	; 0x46e
 364:	6769736e 	strbvs	r7, [r9, -lr, ror #6]!
 368:	2064656e 	rsbcs	r6, r4, lr, ror #10
 36c:	72616863 	rsbvc	r6, r1, #6488064	; 0x630000
 370:	5f6e6900 	svcpl	0x006e6900
 374:	72616863 	rsbvc	r6, r1, #6488064	; 0x630000
 378:	6f687300 	svcvs	0x00687300
 37c:	69207472 	stmdbvs	r0!, {r1, r4, r5, r6, sl, ip, sp, lr}
 380:	4100746e 	tstmi	r0, lr, ror #8
 384:	4d5f5855 	ldclmi	8, cr5, [pc, #-340]	; 238 <_start-0x7dc8>
 388:	54535f55 	ldrbpl	r5, [r3], #-3925	; 0xf55
 38c:	525f5441 	subspl	r5, pc, #1090519040	; 0x41000000
 390:	63004745 	movwvs	r4, #1861	; 0x745
 394:	745f6571 	ldrbvc	r6, [pc], #-1393	; 39c <_start-0x7c64>
 398:	5f6e6900 	svcpl	0x006e6900
 39c:	65680063 	strbvs	r0, [r8, #-99]!	; 0x63
 3a0:	75006461 	strvc	r6, [r0, #-1121]	; 0x461
 3a4:	33746e69 	cmncc	r4, #1680	; 0x690
 3a8:	00745f32 	rsbseq	r5, r4, r2, lsr pc
 3ac:	64756162 	ldrbtvs	r6, [r5], #-354	; 0x162
 3b0:	554e4700 	strbpl	r4, [lr, #-1792]	; 0x700
 3b4:	34204320 	strtcc	r4, [r0], #-800	; 0x320
 3b8:	332e382e 	teqcc	lr, #3014656	; 0x2e0000
 3bc:	636d2d20 	cmnvs	sp, #32, 26	; 0x800
 3c0:	613d7570 	teqvs	sp, r0, ror r5
 3c4:	31316d72 	teqcc	r1, r2, ror sp
 3c8:	7a6a3637 	bvc	1a8dcac <__bss_end__+0x1a7f2e4>
 3cc:	20732d66 	rsbscs	r2, r3, r6, ror #26
 3d0:	75746d2d 	ldrbvc	r6, [r4, #-3373]!	; 0xd2d
 3d4:	613d656e 	teqvs	sp, lr, ror #10
 3d8:	31316d72 	teqcc	r1, r2, ror sp
 3dc:	7a6a3637 	bvc	1a8dcc0 <__bss_end__+0x1a7f2f8>
 3e0:	20732d66 	rsbscs	r2, r3, r6, ror #26
 3e4:	6467672d 	strbtvs	r6, [r7], #-1837	; 0x72d
 3e8:	4f2d2062 	svcmi	0x002d2062
 3ec:	732d2067 	teqvc	sp, #103	; 0x67
 3f0:	673d6474 			; <UNDEFINED> instruction: 0x673d6474
 3f4:	3939756e 	ldmdbcc	r9!, {r1, r2, r3, r5, r6, r8, sl, ip, sp, lr}
 3f8:	66662d20 	strbtvs	r2, [r6], -r0, lsr #26
 3fc:	73656572 	cmnvc	r5, #478150656	; 0x1c800000
 400:	646e6174 	strbtvs	r6, [lr], #-372	; 0x174
 404:	00676e69 	rsbeq	r6, r7, r9, ror #28
 408:	636e6566 	cmnvs	lr, #427819008	; 0x19800000
 40c:	55410065 	strbpl	r0, [r1, #-101]	; 0x65
 410:	554d5f58 	strbpl	r5, [sp, #-3928]	; 0xf58
 414:	544e435f 	strbpl	r4, [lr], #-863	; 0x35f
 418:	45525f4c 	ldrbmi	r5, [r2, #-3916]	; 0xf4c
 41c:	766f0047 	strbtvc	r0, [pc], -r7, asr #32
 420:	6c667265 	sfmvs	f7, 2, [r6], #-404	; 0xfffffe6c
 424:	7000776f 	andvc	r7, r0, pc, ror #14
 428:	32337475 	eorscc	r7, r3, #1962934272	; 0x75000000
 42c:	5f716300 	svcpl	0x00716300
 430:	68737570 	ldmdavs	r3!, {r4, r5, r6, r8, sl, ip, sp, lr}^
 434:	76656400 	strbtvc	r6, [r5], -r0, lsl #8
 438:	7261625f 	rsbvc	r6, r1, #-268435451	; 0xf0000005
 43c:	72656972 	rsbvc	r6, r5, #1867776	; 0x1c8000
 440:	6d726100 	ldfvse	f6, [r2, #-0]
 444:	6d69745f 	cfstrdvs	mvd7, [r9, #-380]!	; 0xfffffe84
 448:	505f7265 	subspl	r7, pc, r5, ror #4
 44c:	69446572 	stmdbvs	r4, {r1, r4, r5, r6, r8, sl, sp, lr}^
 450:	65646976 	strbvs	r6, [r4, #-2422]!	; 0x976
 454:	72610072 	rsbvc	r0, r1, #114	; 0x72
 458:	69745f6d 	ldmdbvs	r4!, {r0, r2, r3, r5, r6, r8, r9, sl, fp, ip, lr}^
 45c:	5f72656d 	svcpl	0x0072656d
 460:	756c6156 	strbvc	r6, [ip, #-342]!	; 0x156
 464:	72610065 	rsbvc	r0, r1, #101	; 0x65
 468:	69745f6d 	ldmdbvs	r4!, {r0, r2, r3, r5, r6, r8, r9, sl, fp, ip, lr}^
 46c:	5f72656d 	svcpl	0x0072656d
 470:	43515249 	cmpmi	r1, #-1879048188	; 0x90000004
 474:	7261656c 	rsbvc	r6, r1, #108, 10	; 0x1b000000
 478:	6d656d00 	stclvs	13, cr6, [r5, #-0]
 47c:	00746573 	rsbseq	r6, r4, r3, ror r5
 480:	745f7163 	ldrbvc	r7, [pc], #-355	; 488 <_start-0x7b78>
 484:	616e6500 	cmnvs	lr, r0, lsl #10
 488:	5f656c62 	svcpl	0x00656c62
 48c:	68636163 	stmdavs	r3!, {r0, r1, r5, r6, r8, sp, lr}^
 490:	70720065 	rsbsvc	r0, r2, r5, rrx
 494:	72615f69 	rsbvc	r5, r1, #420	; 0x1a4
 498:	69745f6d 	ldmdbvs	r4!, {r0, r2, r3, r5, r6, r8, r9, sl, fp, ip, lr}^
 49c:	5f72656d 	svcpl	0x0072656d
 4a0:	50470074 	subpl	r0, r7, r4, ror r0
 4a4:	465f4f49 	ldrbmi	r4, [pc], -r9, asr #30
 4a8:	5f434e55 	svcpl	0x00434e55
 4ac:	5054554f 	subspl	r5, r4, pc, asr #10
 4b0:	75005455 	strvc	r5, [r0, #-1109]	; 0x455
 4b4:	38746e69 	ldmdacc	r4!, {r0, r3, r5, r6, r9, sl, fp, sp, lr}^
 4b8:	6700745f 	smlsdvs	r0, pc, r4, r7	; <UNPREDICTABLE>
 4bc:	32337465 	eorscc	r7, r3, #1694498816	; 0x65000000
 4c0:	69706700 	ldmdbvs	r0!, {r8, r9, sl, sp, lr}^
 4c4:	75665f6f 	strbvc	r5, [r6, #-3951]!	; 0xf6f
 4c8:	745f636e 	ldrbvc	r6, [pc], #-878	; 4d0 <_start-0x7b30>
 4cc:	646f6d00 	strbtvs	r6, [pc], #-3328	; 4d4 <_start-0x7b2c>
 4d0:	5f78745f 	svcpl	0x0078745f
 4d4:	65746e69 	ldrbvs	r6, [r4, #-3689]!	; 0xe69
 4d8:	70757272 	rsbsvc	r7, r5, r2, ror r2
 4dc:	47007374 	smlsdxmi	r0, r4, r3, r7
 4e0:	5f4f4950 	svcpl	0x004f4950
 4e4:	434e5546 	movtmi	r5, #58694	; 0xe546
 4e8:	544c415f 	strbpl	r4, [ip], #-351	; 0x15f
 4ec:	50470030 	subpl	r0, r7, r0, lsr r0
 4f0:	465f4f49 	ldrbmi	r4, [pc], -r9, asr #30
 4f4:	5f434e55 	svcpl	0x00434e55
 4f8:	31544c41 	cmpcc	r4, r1, asr #24
 4fc:	49504700 	ldmdbmi	r0, {r8, r9, sl, lr}^
 500:	55465f4f 	strbpl	r5, [r6, #-3919]	; 0xf4f
 504:	415f434e 	cmpmi	pc, lr, asr #6
 508:	0032544c 	eorseq	r5, r2, ip, asr #8
 50c:	4f495047 	svcmi	0x00495047
 510:	4e55465f 	mrcmi	6, 2, r4, cr5, cr15, {2}
 514:	4c415f43 	mcrrmi	15, 4, r5, r1, cr3
 518:	47003354 	smlsdmi	r0, r4, r3, r3
 51c:	5f4f4950 	svcpl	0x004f4950
 520:	434e5546 	movtmi	r5, #58694	; 0xe546
 524:	544c415f 	strbpl	r4, [ip], #-351	; 0x15f
 528:	50470034 	subpl	r0, r7, r4, lsr r0
 52c:	465f4f49 	ldrbmi	r4, [pc], -r9, asr #30
 530:	5f434e55 	svcpl	0x00434e55
 534:	35544c41 	ldrbcc	r4, [r4, #-3137]	; 0xc41
 538:	58554100 	ldmdapl	r5, {r8, lr}^
 53c:	5f554d5f 	svcpl	0x00554d5f
 540:	5f52434d 	svcpl	0x0052434d
 544:	00474552 	subeq	r4, r7, r2, asr r5
 548:	5f6d756e 	svcpl	0x006d756e
 54c:	31007874 	tstcc	r0, r4, ror r8
 550:	6970672d 	ldmdbvs	r0!, {r0, r2, r3, r5, r8, r9, sl, sp, lr}^
 554:	6e692d6f 	cdpvs	13, 6, cr2, cr9, cr15, {3}
 558:	78652d74 	stmdavc	r5!, {r2, r4, r5, r6, r8, sl, fp, sp}^
 55c:	7300632e 	movwvc	r6, #814	; 0x32e
 560:	65747379 	ldrbvs	r7, [r4, #-889]!	; 0x379
 564:	69645f6d 	stmdbvs	r4!, {r0, r2, r3, r5, r6, r8, r9, sl, fp, ip, lr}^
 568:	6c626173 	stfvse	f6, [r2], #-460	; 0xfffffe34
 56c:	6e695f65 	cdpvs	15, 6, cr5, cr9, cr5, {3}
 570:	72726574 	rsbsvc	r6, r2, #116, 10	; 0x1d000000
 574:	73747075 	cmnvc	r4, #117	; 0x75
 578:	5f716300 	svcpl	0x00716300
 57c:	6c6c7566 	cfstr64vs	mvdx7, [ip], #-408	; 0xfffffe68
 580:	6d726100 	ldfvse	f6, [r2, #-0]
 584:	6d69745f 	cfstrdvs	mvd7, [r9, #-380]!	; 0xfffffe84
 588:	465f7265 	ldrbmi	r7, [pc], -r5, ror #4
 58c:	52656572 	rsbpl	r6, r5, #478150656	; 0x1c800000
 590:	696e6e75 	stmdbvs	lr!, {r0, r2, r4, r5, r6, r9, sl, fp, sp, lr}^
 594:	6f43676e 	svcvs	0x0043676e
 598:	65746e75 	ldrbvs	r6, [r4, #-3701]!	; 0xe75
 59c:	696c0072 	stmdbvs	ip!, {r1, r4, r5, r6}^
 5a0:	6d2f6362 	stcvs	3, cr6, [pc, #-392]!	; 420 <_start-0x7be0>
 5a4:	65736d65 	ldrbvs	r6, [r3, #-3429]!	; 0xd65
 5a8:	00632e74 	rsbeq	r2, r3, r4, ror lr
 5ac:	6573552f 	ldrbvs	r5, [r3, #-1327]!	; 0x52f
 5b0:	622f7372 	eorvs	r7, pc, #-939524095	; 0xc8000001
 5b4:	6e616972 	mcrvs	9, 3, r6, cr1, cr2, {3}
 5b8:	2f6e756a 	svccs	0x006e756a
 5bc:	6b736544 	blvs	1cd9ad4 <__bss_end__+0x1ccb10c>
 5c0:	2f706f74 	svccs	0x00706f74
 5c4:	6f686373 	svcvs	0x00686373
 5c8:	572f6c6f 	strpl	r6, [pc, -pc, ror #24]!
 5cc:	65746e69 	ldrbvs	r6, [r4, #-3689]!	; 0xe69
 5d0:	32393172 	eorscc	r3, r9, #-2147483620	; 0x8000001c
 5d4:	53432f30 	movtpl	r2, #16176	; 0x3f30
 5d8:	45303431 	ldrmi	r3, [r0, #-1073]!	; 0x431
 5dc:	3173632f 	cmncc	r3, pc, lsr #6
 5e0:	2d653034 	stclcs	0, cr3, [r5, #-208]!	; 0xffffff30
 5e4:	69773032 	ldmdbvs	r7!, {r1, r4, r5, ip, sp}^
 5e8:	696c2f6e 	stmdbvs	ip!, {r1, r2, r3, r5, r6, r8, r9, sl, fp, sp}^
 5ec:	00697062 	rsbeq	r7, r9, r2, rrx
 5f0:	6e675f5f 	mcrvs	15, 3, r5, cr7, cr15, {2}
 5f4:	765f6375 			; <UNDEFINED> instruction: 0x765f6375
 5f8:	696c5f61 	stmdbvs	ip!, {r0, r5, r6, r8, r9, sl, fp, ip, lr}^
 5fc:	6c007473 	cfstrsvs	mvf7, [r0], {115}	; 0x73
 600:	2f636269 	svccs	0x00636269
 604:	6e697270 	mcrvs	2, 3, r7, cr9, cr0, {3}
 608:	632e6b74 	teqvs	lr, #116, 22	; 0x1d000
 60c:	5f617600 	svcpl	0x00617600
 610:	6e697270 	mcrvs	2, 3, r7, cr9, cr0, {3}
 614:	5f006b74 	svcpl	0x00006b74
 618:	5f61765f 	svcpl	0x0061765f
 61c:	7473696c 	ldrbtvc	r6, [r3], #-2412	; 0x96c
 620:	67726100 	ldrbvs	r6, [r2, -r0, lsl #2]!
 624:	5f5f0073 	svcpl	0x005f0073
 628:	69007061 	stmdbvs	r0, {r0, r5, r6, ip, sp, lr}
 62c:	7265746e 	rsbvc	r7, r5, #1845493760	; 0x6e000000
 630:	5f6c616e 	svcpl	0x006c616e
 634:	63747570 	cmnvs	r4, #112, 10	; 0x1c000000
 638:	00726168 	rsbseq	r6, r2, r8, ror #2
 63c:	5f697072 	svcpl	0x00697072
 640:	63747570 	cmnvs	r4, #112, 10	; 0x1c000000
 644:	00726168 	rsbseq	r6, r2, r8, ror #2
 648:	6362696c 	cmnvs	r2, #108, 18	; 0x1b0000
 64c:	7475702f 	ldrbtvc	r7, [r5], #-47	; 0x2f
 650:	72616863 	rsbvc	r6, r1, #6488064	; 0x630000
 654:	7200632e 	andvc	r6, r0, #-1207959552	; 0xb8000000
 658:	735f6970 	cmpvc	pc, #112, 18	; 0x1c0000
 65c:	705f7465 	subsvc	r7, pc, r5, ror #8
 660:	00637475 	rsbeq	r7, r3, r5, ror r4
 664:	6362696c 	cmnvs	r2, #108, 18	; 0x1b0000
 668:	7475702f 	ldrbtvc	r7, [r5], #-47	; 0x2f
 66c:	00632e6b 	rsbeq	r2, r3, fp, ror #28
 670:	65746e69 	ldrbvs	r6, [r4, #-3689]!	; 0xe69
 674:	6c616e72 	stclvs	14, cr6, [r1], #-456	; 0xfffffe38
 678:	7475705f 	ldrbtvc	r7, [r5], #-95	; 0x5f
 67c:	656e006b 	strbvs	r0, [lr, #-107]!	; 0x6b
 680:	00705f67 	rsbseq	r5, r0, r7, ror #30
 684:	65766572 	ldrbvs	r6, [r6, #-1394]!	; 0x572
 688:	00657372 	rsbeq	r7, r5, r2, ror r3
 68c:	69647369 	stmdbvs	r4!, {r0, r3, r5, r6, r8, r9, ip, sp, lr}^
 690:	00746967 	rsbseq	r6, r4, r7, ror #18
 694:	73747570 	cmnvc	r4, #112, 10	; 0x1c000000
 698:	0070665f 	rsbseq	r6, r0, pc, asr r6
 69c:	65736162 	ldrbvs	r6, [r3, #-354]!	; 0x162
 6a0:	67697300 	strbvs	r7, [r9, -r0, lsl #6]!
 6a4:	5f64656e 	svcpl	0x0064656e
 6a8:	696c0070 	stmdbvs	ip!, {r4, r5, r6}^
 6ac:	762f6362 	strtvc	r6, [pc], -r2, ror #6
 6b0:	72702d61 	rsbsvc	r2, r0, #6208	; 0x1840
 6b4:	6b746e69 	blvs	1d1c060 <__bss_end__+0x1d0d698>
 6b8:	7200632e 	andvc	r6, r0, #-1207959552	; 0xb8000000
 6bc:	735f6970 	cmpvc	pc, #112, 18	; 0x1c0000
 6c0:	6f5f7465 	svcvs	0x005f7465
 6c4:	75707475 	ldrbvc	r7, [r0, #-1141]!	; 0x475
 6c8:	69770074 	ldmdbvs	r7!, {r2, r4, r5, r6}^
 6cc:	00687464 	rsbeq	r7, r8, r4, ror #8
 6d0:	63747570 	cmnvs	r4, #112, 10	; 0x1c000000
 6d4:	0070665f 	rsbseq	r6, r0, pc, asr r6
 6d8:	74696d65 	strbtvc	r6, [r9], #-3429	; 0xd65
 6dc:	73696400 	cmnvc	r9, #0, 8
 6e0:	656c6261 	strbvs	r6, [ip, #-609]!	; 0x261
 6e4:	6361635f 	cmnvs	r1, #2080374785	; 0x7c000001
 6e8:	63006568 	movwvs	r6, #1384	; 0x568
 6ec:	30343173 	eorscc	r3, r4, r3, ror r1
 6f0:	72732d65 	rsbsvc	r2, r3, #6464	; 0x1940
 6f4:	61632f63 	cmnvs	r3, r3, ror #30
 6f8:	2e656863 	cdpcs	8, 6, cr6, cr5, cr3, {3}
 6fc:	70720063 	rsbsvc	r0, r2, r3, rrx
 700:	65725f69 	ldrbvs	r5, [r2, #-3945]!	; 0xf69
 704:	746f6f62 	strbtvc	r6, [pc], #-3938	; 70c <_start-0x78f4>
 708:	31736300 	cmncc	r3, r0, lsl #6
 70c:	2d653034 	stclcs	0, cr3, [r5, #-208]!	; 0xffffff30
 710:	2f637273 	svccs	0x00637273
 714:	61656c63 	cmnvs	r5, r3, ror #24
 718:	65722d6e 	ldrbvs	r2, [r2, #-3438]!	; 0xd6e
 71c:	746f6f62 	strbtvc	r6, [pc], #-3938	; 724 <_start-0x78dc>
 720:	6400632e 	strvs	r6, [r0], #-814	; 0x32e
 724:	79616c65 	stmdbvc	r1!, {r0, r2, r5, r6, sl, fp, sp, lr}^
 728:	00736d5f 	rsbseq	r6, r3, pc, asr sp
 72c:	65746e69 	ldrbvs	r6, [r4, #-3689]!	; 0xe69
 730:	6c616e72 	stclvs	14, cr6, [r1], #-456	; 0xfffffe38
 734:	5f77735f 	svcpl	0x0077735f
 738:	63747570 	cmnvs	r4, #112, 10	; 0x1c000000
 73c:	00726168 	rsbseq	r6, r2, r8, ror #2
 740:	73625f5f 	cmnvc	r2, #380	; 0x17c
 744:	74735f73 	ldrbtvc	r5, [r3], #-3955	; 0xf73
 748:	5f747261 	svcpl	0x00747261
 74c:	7362005f 	cmnvc	r2, #95	; 0x5f
 750:	6e655f73 	mcrvs	15, 3, r5, cr5, cr3, {3}
 754:	6f630064 	svcvs	0x00630064
 758:	6c6f736e 	stclvs	3, cr7, [pc], #-440	; 5a8 <_start-0x7a58>
 75c:	61755f65 	cmnvs	r5, r5, ror #30
 760:	73007472 	movwvc	r7, #1138	; 0x472
 764:	61755f77 	cmnvs	r5, r7, ror pc
 768:	705f7472 	subsvc	r7, pc, r2, ror r4	; <UNPREDICTABLE>
 76c:	746e6972 	strbtvc	r6, [lr], #-2418	; 0x972
 770:	5550006b 	ldrbpl	r0, [r0, #-107]	; 0x6b
 774:	455f4354 	ldrbmi	r4, [pc, #-852]	; 428 <_start-0x7bd8>
 778:	555f5053 	ldrbpl	r5, [pc, #-83]	; 72d <_start-0x78d3>
 77c:	00545241 	subseq	r5, r4, r1, asr #4
 780:	43545550 	cmpmi	r4, #80, 10	; 0x14000000
 784:	5f57535f 	svcpl	0x0057535f
 788:	54524155 	ldrbpl	r4, [r2], #-341	; 0x155
 78c:	54555000 	ldrbpl	r5, [r5], #-0
 790:	57485f43 	strbpl	r5, [r8, -r3, asr #30]
 794:	5241555f 	subpl	r5, r1, #398458880	; 0x17c00000
 798:	635f0054 	cmpvs	pc, #84	; 0x54
 79c:	72617473 	rsbvc	r7, r1, #1929379840	; 0x73000000
 7a0:	61750074 	cmnvs	r5, r4, ror r0
 7a4:	645f7472 	ldrbvs	r7, [pc], #-1138	; 7ac <_start-0x7854>
 7a8:	745f7665 	ldrbvc	r7, [pc], #-1637	; 7b0 <_start-0x7850>
 7ac:	6e6f6300 	cdpvs	3, 6, cr6, cr15, cr0, {0}
 7b0:	6c6f7274 	sfmvs	f7, 2, [pc], #-464	; 5e8 <_start-0x7a18>
 7b4:	6b6c625f 	blvs	1b19138 <__bss_end__+0x1b0a770>
 7b8:	6300745f 	movwvs	r7, #1119	; 0x45f
 7bc:	65675f62 	strbvs	r5, [r7, #-3938]!	; 0xf62
 7c0:	6c625f74 	stclvs	15, cr5, [r2], #-464	; 0xfffffe30
 7c4:	006b636f 	rsbeq	r6, fp, pc, ror #6
 7c8:	73625f5f 	cmnvc	r2, #380	; 0x17c
 7cc:	6e655f73 	mcrvs	15, 3, r5, cr5, cr3, {3}
 7d0:	005f5f64 	subseq	r5, pc, r4, ror #30
 7d4:	34317363 	ldrtcc	r7, [r1], #-867	; 0x363
 7d8:	732d6530 	teqvc	sp, #48, 10	; 0xc000000
 7dc:	632f6372 	teqvs	pc, #-939524095	; 0xc8000001
 7e0:	72617473 	rsbvc	r7, r1, #1929379840	; 0x73000000
 7e4:	00632e74 	rsbeq	r2, r3, r4, ror lr
 7e8:	736e6f63 	cmnvc	lr, #396	; 0x18c
 7ec:	5f656c6f 	svcpl	0x00656c6f
 7f0:	00766564 	rsbseq	r6, r6, r4, ror #10
 7f4:	6967616d 	stmdbvs	r7!, {r0, r2, r3, r5, r6, r8, sp, lr}^
 7f8:	74610063 	strbtvc	r0, [r1], #-99	; 0x63
 7fc:	6573755f 	ldrbvs	r7, [r3, #-1375]!	; 0x55f
 800:	656c5f72 	strbvs	r5, [ip, #-3954]!	; 0xf72
 804:	006c6576 	rsbeq	r6, ip, r6, ror r5
 808:	505f4d50 	subspl	r4, pc, r0, asr sp	; <UNPREDICTABLE>
 80c:	57535341 	ldrbpl	r5, [r3, -r1, asr #6]
 810:	0044524f 	subeq	r5, r4, pc, asr #4
 814:	34317363 	ldrtcc	r7, [r1], #-867	; 0x363
 818:	732d6530 	teqvc	sp, #48, 10	; 0xc000000
 81c:	722f6372 	eorvc	r6, pc, #-939524095	; 0xc8000001
 820:	6f6f6265 	svcvs	0x006f6265
 824:	00632e74 	rsbeq	r2, r3, r4, ror lr
 828:	525f4d50 	subspl	r4, pc, #80, 26	; 0x1400
 82c:	5f435453 	svcpl	0x00435453
 830:	46435257 			; <UNDEFINED> instruction: 0x46435257
 834:	55465f47 	strbpl	r5, [r6, #-3911]	; 0xf47
 838:	525f4c4c 	subspl	r4, pc, #76, 24	; 0x4c00
 83c:	54455345 	strbpl	r5, [r5], #-837	; 0x345
 840:	5f4d5000 	svcpl	0x004d5000
 844:	474f4457 	smlsldmi	r4, pc, r7, r4	; <UNPREDICTABLE>
 848:	74657300 	strbtvc	r7, [r5], #-768	; 0x300
 84c:	6573755f 	ldrbvs	r7, [r3, #-1375]!	; 0x55f
 850:	656c5f72 	strbvs	r5, [ip, #-3954]!	; 0xf72
 854:	006c6576 	rsbeq	r6, ip, r6, ror r5
 858:	33545550 	cmpcc	r4, #80, 10	; 0x14000000
 85c:	4d500032 	ldclmi	0, cr0, [r0, #-200]	; 0xffffff38
 860:	5453525f 	ldrbpl	r5, [r3], #-607	; 0x25f
 864:	70630043 	rsbvc	r0, r3, r3, asr #32
 868:	74007273 	strvc	r7, [r0], #-627	; 0x273
 86c:	72656d69 	rsbvc	r6, r5, #6720	; 0x1a40
 870:	7465675f 	strbtvc	r6, [r5], #-1887	; 0x75f
 874:	6573755f 	ldrbvs	r7, [r3, #-1375]!	; 0x55f
 878:	61725f63 	cmnvs	r2, r3, ror #30
 87c:	65640077 	strbvs	r0, [r4, #-119]!	; 0x77
 880:	5f79616c 	svcpl	0x0079616c
 884:	00636573 	rsbeq	r6, r3, r3, ror r5
 888:	34317363 	ldrtcc	r7, [r1], #-867	; 0x363
 88c:	732d6530 	teqvc	sp, #48, 10	; 0xc000000
 890:	742f6372 	strtvc	r6, [pc], #-882	; 898 <_start-0x7768>
 894:	72656d69 	rsbvc	r6, r5, #6720	; 0x1a40
 898:	4700632e 	strmi	r6, [r0, -lr, lsr #6]
 89c:	32335445 	eorscc	r5, r3, #1157627904	; 0x45000000
 8a0:	63697400 	cmnvs	r9, #0, 8
 8a4:	6400736b 	strvs	r7, [r0], #-875	; 0x36b
 8a8:	79616c65 	stmdbvc	r1!, {r0, r2, r5, r6, sl, fp, sp, lr}^
 8ac:	6379635f 	cmnvs	r9, #2080374785	; 0x7c000001
 8b0:	0073656c 	rsbseq	r6, r3, ip, ror #10
 8b4:	616c6564 	cmnvs	ip, r4, ror #10
 8b8:	73755f79 	cmnvc	r5, #484	; 0x1e4
 8bc:	6d697400 	cfstrdvs	mvd7, [r9, #-0]
 8c0:	675f7265 	ldrbvs	r7, [pc, -r5, ror #4]
 8c4:	755f7465 	ldrbvc	r7, [pc, #-1125]	; 467 <_start-0x7b99>
 8c8:	00636573 	rsbeq	r6, r3, r3, ror r5
 8cc:	6f697067 	svcvs	0x00697067
 8d0:	6576655f 	ldrbvs	r6, [r6, #-1375]!	; 0x55f
 8d4:	645f746e 	ldrbvs	r7, [pc], #-1134	; 8dc <_start-0x7724>
 8d8:	63657465 	cmnvs	r5, #1694498816	; 0x65000000
 8dc:	00646574 	rsbeq	r6, r4, r4, ror r5
 8e0:	53465047 	movtpl	r5, #24647	; 0x6047
 8e4:	00324c45 	eorseq	r4, r2, r5, asr #24
 8e8:	4c435047 	mcrrmi	0, 4, r5, r3, cr7
 8ec:	45003052 	strmi	r3, [r0, #-82]	; 0x52
 8f0:	4c42414e 	stfmie	f4, [r2], {78}	; 0x4e
 8f4:	52495f45 	subpl	r5, r9, #276	; 0x114
 8f8:	325f5351 	subscc	r5, pc, #1140850689	; 0x44000001
 8fc:	5f736900 	svcpl	0x00736900
 900:	6f697067 	svcvs	0x00697067
 904:	746e695f 	strbtvc	r6, [lr], #-2399	; 0x95f
 908:	69706700 	ldmdbvs	r0!, {r8, r9, sl, sp, lr}^
 90c:	65735f6f 	ldrbvs	r5, [r3, #-3951]!	; 0xf6f
 910:	666f5f74 	uqsub16vs	r5, pc, r4	; <UNPREDICTABLE>
 914:	796d0066 	stmdbvc	sp!, {r1, r2, r5, r6}^
 918:	6372732d 	cmnvs	r2, #-1275068416	; 0xb4000000
 91c:	6970672f 	ldmdbvs	r0!, {r0, r1, r2, r3, r5, r8, r9, sl, sp, lr}^
 920:	00632e6f 	rsbeq	r2, r3, pc, ror #28
 924:	5f746e69 	svcpl	0x00746e69
 928:	6b73616d 	blvs	1cd8ee4 <__bss_end__+0x1cca51c>
 92c:	53504700 	cmppl	r0, #0, 14
 930:	00305445 	eorseq	r5, r0, r5, asr #8
 934:	45535047 	ldrbmi	r5, [r3, #-71]	; 0x47
 938:	72003154 	andvc	r3, r0, #84, 2
 93c:	735f6765 	cmpvc	pc, #26476544	; 0x1940000
 940:	00746174 	rsbseq	r6, r4, r4, ror r1
 944:	454c5047 	strbmi	r5, [ip, #-71]	; 0x47
 948:	47003056 	smlsdmi	r0, r6, r0, r3
 94c:	56454c50 			; <UNDEFINED> instruction: 0x56454c50
 950:	70670031 	rsbvc	r0, r7, r1, lsr r0
 954:	725f6f69 	subsvc	r6, pc, #420	; 0x1a4
 958:	47006765 	strmi	r6, [r0, -r5, ror #14]
 95c:	45534650 	ldrbmi	r4, [r3, #-1616]	; 0x650
 960:	4700304c 	strmi	r3, [r0, -ip, asr #32]
 964:	45534650 	ldrbmi	r4, [r3, #-1616]	; 0x650
 968:	4700314c 	strmi	r3, [r0, -ip, asr #2]
 96c:	45534650 	ldrbmi	r4, [r3, #-1616]	; 0x650
 970:	4700334c 	strmi	r3, [r0, -ip, asr #6]
 974:	45534650 	ldrbmi	r4, [r3, #-1616]	; 0x650
 978:	4700344c 	strmi	r3, [r0, -ip, asr #8]
 97c:	45534650 	ldrbmi	r4, [r3, #-1616]	; 0x650
 980:	6700354c 	strvs	r3, [r0, -ip, asr #10]
 984:	5f6f6970 	svcpl	0x006f6970
 988:	6c657366 	stclvs	3, cr7, [r5], #-408	; 0xfffffe68
 98c:	50470030 	subpl	r0, r7, r0, lsr r0
 990:	31524c43 	cmpcc	r2, r3, asr #24
 994:	69706700 	ldmdbvs	r0!, {r8, r9, sl, sp, lr}^
 998:	65725f6f 	ldrbvs	r5, [r2, #-3951]!	; 0xf6f
 99c:	67006461 	strvs	r6, [r0, -r1, ror #8]
 9a0:	5f6f6970 	svcpl	0x006f6970
 9a4:	5f746e69 	svcpl	0x00746e69
 9a8:	69736972 	ldmdbvs	r3!, {r1, r4, r5, r6, r8, fp, sp, lr}^
 9ac:	655f676e 	ldrbvs	r6, [pc, #-1902]	; 246 <_start-0x7dba>
 9b0:	00656764 	rsbeq	r6, r5, r4, ror #14
 9b4:	45525047 	ldrbmi	r5, [r2, #-71]	; 0x47
 9b8:	4700304e 	strmi	r3, [r0, -lr, asr #32]
 9bc:	4e455250 	mcrmi	2, 2, r5, cr5, cr0, {2}
 9c0:	70670031 	rsbvc	r0, r7, r1, lsr r0
 9c4:	655f6f69 	ldrbvs	r6, [pc, #-3945]	; fffffa63 <__bss_end__+0xffff109b>
 9c8:	746e6576 	strbtvc	r6, [lr], #-1398	; 0x576
 9cc:	656c635f 	strbvs	r6, [ip, #-863]!	; 0x35f
 9d0:	49007261 	stmdbmi	r0, {r0, r5, r6, r9, ip, sp, lr}
 9d4:	505f5152 	subspl	r5, pc, r2, asr r1	; <UNPREDICTABLE>
 9d8:	49444e45 	stmdbmi	r4, {r0, r2, r6, r9, sl, fp, lr}^
 9dc:	315f474e 	cmpcc	pc, lr, asr #14
 9e0:	51524900 	cmppl	r2, r0, lsl #18
 9e4:	4e45505f 	mcrmi	0, 2, r5, cr5, cr15, {2}
 9e8:	474e4944 	strbmi	r4, [lr, -r4, asr #18]
 9ec:	6200325f 	andvs	r3, r0, #-268435451	; 0xf0000005
 9f0:	616d7469 	cmnvs	sp, r9, ror #8
 9f4:	67006b73 	smlsdxvs	r0, r3, fp, r6
 9f8:	5f6f6970 	svcpl	0x006f6970
 9fc:	74697277 	strbtvc	r7, [r9], #-631	; 0x277
 a00:	70670065 	rsbvc	r0, r7, r5, rrx
 a04:	735f6f69 	cmpvc	pc, #420	; 0x1a4
 a08:	00307465 	eorseq	r7, r0, r5, ror #8
 a0c:	636e7566 	cmnvs	lr, #427819008	; 0x19800000
 a10:	69706700 	ldmdbvs	r0!, {r8, r9, sl, sp, lr}^
 a14:	65735f6f 	ldrbvs	r5, [r3, #-3951]!	; 0xf6f
 a18:	6e695f74 	mcrvs	15, 3, r5, cr9, cr4, {3}
 a1c:	00747570 	rsbseq	r7, r4, r0, ror r5
 a20:	44455047 	strbmi	r5, [r5], #-71	; 0x47
 a24:	47003053 	smlsdmi	r0, r3, r0, r3
 a28:	53444550 	movtpl	r4, #17744	; 0x4550
 a2c:	70670031 	rsbvc	r0, r7, r1, lsr r0
 a30:	735f6f69 	cmpvc	pc, #420	; 0x1a4
 a34:	6f5f7465 	svcvs	0x005f7465
 a38:	5047006e 	subpl	r0, r7, lr, rrx
 a3c:	304e4546 	subcc	r4, lr, r6, asr #10
 a40:	46504700 	ldrbmi	r4, [r0], -r0, lsl #14
 a44:	00314e45 	eorseq	r4, r1, r5, asr #28
 a48:	6f697067 	svcvs	0x00697067
 a4c:	7465735f 	strbtvc	r7, [r5], #-863	; 0x35f
 a50:	74756f5f 	ldrbtvc	r6, [r5], #-3935	; 0xf5f
 a54:	00747570 	rsbseq	r7, r4, r0, ror r5
 a58:	6f697067 	svcvs	0x00697067
 a5c:	746e695f 	strbtvc	r6, [lr], #-2399	; 0x95f
 a60:	6c61665f 	stclvs	6, cr6, [r1], #-380	; 0xfffffe84
 a64:	676e696c 	strbvs	r6, [lr, -ip, ror #18]!
 a68:	6764655f 			; <UNDEFINED> instruction: 0x6764655f
 a6c:	65720065 	ldrbvs	r0, [r2, #-101]!	; 0x65
 a70:	65735f67 	ldrbvs	r5, [r3, #-3943]!	; 0xf67
 a74:	7463656c 	strbtvc	r6, [r3], #-1388	; 0x56c
 a78:	69706700 	ldmdbvs	r0!, {r8, r9, sl, sp, lr}^
 a7c:	6c635f6f 	stclvs	15, cr5, [r3], #-444	; 0xfffffe44
 a80:	63003072 	movwvs	r3, #114	; 0x72
 a84:	705f6379 	subsvc	r6, pc, r9, ror r3	; <UNPREDICTABLE>
 a88:	625f7265 	subsvs	r7, pc, #1342177286	; 0x50000006
 a8c:	77007469 	strvc	r7, [r0, -r9, ror #8]
 a90:	65746972 	ldrbvs	r6, [r4, #-2418]!	; 0x972
 a94:	6379635f 	cmnvs	r9, #2080374785	; 0x7c000001
 a98:	746e755f 	strbtvc	r7, [lr], #-1375	; 0x55f
 a9c:	73006c69 	movwvc	r6, #3177	; 0xc69
 aa0:	61755f77 	cmnvs	r5, r7, ror pc
 aa4:	675f7472 			; <UNDEFINED> instruction: 0x675f7472
 aa8:	5f637465 	svcpl	0x00637465
 aac:	656d6974 	strbvs	r6, [sp, #-2420]!	; 0x974
 ab0:	0074756f 	rsbseq	r7, r4, pc, ror #10
 ab4:	755f7773 	ldrbvc	r7, [pc, #-1907]	; 349 <_start-0x7cb7>
 ab8:	5f747261 	svcpl	0x00747261
 abc:	73746567 	cmnvc	r4, #432013312	; 0x19c00000
 ac0:	746e755f 	strbtvc	r7, [lr], #-1375	; 0x55f
 ac4:	73006c69 	movwvc	r6, #3177	; 0xc69
 ac8:	61755f77 	cmnvs	r5, r7, ror pc
 acc:	675f7472 			; <UNDEFINED> instruction: 0x675f7472
 ad0:	00637465 	rsbeq	r7, r3, r5, ror #8
 ad4:	69726564 	ldmdbvs	r2!, {r2, r5, r6, r8, sl, sp, lr}^
 ad8:	00646576 	rsbeq	r6, r4, r6, ror r5
 adc:	616c6564 	cmnvs	ip, r4, ror #10
 ae0:	636e5f79 	cmnvs	lr, #484	; 0x1e4
 ae4:	656c6379 	strbvs	r6, [ip, #-889]!	; 0x379
 ae8:	69740073 	ldmdbvs	r4!, {r0, r1, r4, r5, r6}^
 aec:	756f656d 	strbvc	r6, [pc, #-1389]!	; 587 <_start-0x7a79>
 af0:	73755f74 	cmnvc	r5, #116, 30	; 0x1d0
 af4:	73006365 	movwvc	r6, #869	; 0x365
 af8:	61755f77 	cmnvs	r5, r7, ror pc
 afc:	705f7472 	subsvc	r7, pc, r2, ror r4	; <UNPREDICTABLE>
 b00:	006b7475 	rsbeq	r7, fp, r5, ror r4
 b04:	732d796d 	teqvc	sp, #1785856	; 0x1b4000
 b08:	732f6372 	teqvc	pc, #-939524095	; 0xc8000001
 b0c:	61752d77 	cmnvs	r5, r7, ror sp
 b10:	632e7472 	teqvs	lr, #1912602624	; 0x72000000
 b14:	61686300 	cmnvs	r8, r0, lsl #6
 b18:	6e695f72 	mcrvs	15, 3, r5, cr9, cr2, {3}
 b1c:	5f777300 	svcpl	0x00777300
 b20:	74726175 	ldrbtvc	r6, [r2], #-373	; 0x175
 b24:	7465675f 	strbtvc	r6, [r5], #-1887	; 0x75f
 b28:	69745f73 	ldmdbvs	r4!, {r0, r1, r4, r5, r6, r8, r9, sl, fp, ip, lr}^
 b2c:	756f656d 	strbvc	r6, [pc, #-1389]!	; 5c7 <_start-0x7a39>
 b30:	6f5f0074 	svcvs	0x005f0074
 b34:	6e007475 	mcrvs	4, 0, r7, cr0, cr5, {3}
 b38:	65747962 	ldrbvs	r7, [r4, #-2402]!	; 0x962
 b3c:	73750073 	cmnvc	r5, #115	; 0x73
 b40:	745f6365 	ldrbvc	r6, [pc], #-869	; b48 <_start-0x74b8>
 b44:	6f656d69 	svcvs	0x00656d69
 b48:	73007475 	movwvc	r7, #1141	; 0x475
 b4c:	61755f77 	cmnvs	r5, r7, ror pc
 b50:	675f7472 			; <UNDEFINED> instruction: 0x675f7472
 b54:	5f737465 	svcpl	0x00737465
 b58:	69746e75 	ldmdbvs	r4!, {r0, r2, r4, r5, r6, r9, sl, fp, sp, lr}^
 b5c:	6c625f6c 	stclvs	15, cr5, [r2], #-432	; 0xfffffe50
 b60:	6177006b 	cmnvs	r7, fp, rrx
 b64:	755f7469 	ldrbvc	r7, [pc, #-1129]	; 703 <_start-0x78fd>
 b68:	6c69746e 	cfstrdvs	mvd7, [r9], #-440	; 0xfffffe48
 b6c:	6573755f 	ldrbvs	r7, [r3, #-1375]!	; 0x55f
 b70:	61750063 	cmnvs	r5, r3, rrx
 b74:	685f7472 	ldmdavs	pc, {r1, r4, r5, r6, sl, ip, sp, lr}^	; <UNPREDICTABLE>
 b78:	645f7361 	ldrbvs	r7, [pc], #-865	; b80 <_start-0x7480>
 b7c:	00617461 	rsbeq	r7, r1, r1, ror #8
 b80:	74726175 	ldrbtvc	r6, [r2], #-373	; 0x175
 b84:	696e695f 	stmdbvs	lr!, {r0, r1, r2, r3, r4, r6, r8, fp, sp, lr}^
 b88:	796d0074 	stmdbvc	sp!, {r2, r4, r5, r6}^
 b8c:	6372732d 	cmnvs	r2, #-1275068416	; 0xb4000000
 b90:	7261752f 	rsbvc	r7, r1, #197132288	; 0xbc00000
 b94:	00632e74 	rsbeq	r2, r3, r4, ror lr
 b98:	74726175 	ldrbtvc	r6, [r2], #-373	; 0x175
 b9c:	7465675f 	strbtvc	r6, [r5], #-1887	; 0x75f
 ba0:	73615f63 	cmnvc	r1, #396	; 0x18c
 ba4:	00636e79 	rsbeq	r6, r3, r9, ror lr
 ba8:	66657270 			; <UNDEFINED> instruction: 0x66657270
 bac:	68637465 	stmdavs	r3!, {r0, r2, r5, r6, sl, ip, sp, lr}^
 bb0:	6f62615f 	svcvs	0x0062615f
 bb4:	765f7472 			; <UNDEFINED> instruction: 0x765f7472
 bb8:	6f746365 	svcvs	0x00746365
 bbc:	69440072 	stmdbvs	r4, {r1, r4, r5, r6}^
 bc0:	6c626173 	stfvse	f6, [r2], #-460	; 0xfffffe34
 bc4:	61425f65 	cmpvs	r2, r5, ror #30
 bc8:	5f636973 	svcpl	0x00636973
 bcc:	73515249 	cmpvc	r1, #-1879048188	; 0x90000004
 bd0:	51494600 	cmppl	r9, r0, lsl #12
 bd4:	6e6f635f 	mcrvs	3, 3, r6, cr15, cr15, {2}
 bd8:	6c6f7274 	sfmvs	f7, 2, [pc], #-464	; a10 <_start-0x75f0>
 bdc:	6e695f00 	cdpvs	15, 6, cr5, cr9, cr0, {0}
 be0:	72726574 	rsbsvc	r6, r2, #116, 10	; 0x1d000000
 be4:	5f747075 	svcpl	0x00747075
 be8:	6c626174 	stfvse	f6, [r2], #-464	; 0xfffffe30
 bec:	52490065 	subpl	r0, r9, #101	; 0x65
 bf0:	61625f51 	cmnvs	r2, r1, asr pc
 bf4:	5f636973 	svcpl	0x00636973
 bf8:	646e6570 	strbtvs	r6, [lr], #-1392	; 0x570
 bfc:	00676e69 	rsbeq	r6, r7, r9, ror #28
 c00:	62616e45 	rsbvs	r6, r1, #1104	; 0x450
 c04:	425f656c 	subsmi	r6, pc, #108, 10	; 0x1b000000
 c08:	63697361 	cmnvs	r9, #-2080374783	; 0x84000001
 c0c:	5152495f 	cmppl	r2, pc, asr r9
 c10:	6e450073 	mcrvs	0, 2, r0, cr5, cr3, {3}
 c14:	656c6261 	strbvs	r6, [ip, #-609]!	; 0x261
 c18:	5152495f 	cmppl	r2, pc, asr r9
 c1c:	00315f73 	eorseq	r5, r1, r3, ror pc
 c20:	62616e45 	rsbvs	r6, r1, #1104	; 0x450
 c24:	495f656c 	ldmdbmi	pc, {r2, r3, r5, r6, r8, sl, sp, lr}^	; <UNPREDICTABLE>
 c28:	5f735152 	svcpl	0x00735152
 c2c:	695f0032 	ldmdbvs	pc, {r1, r4, r5}^	; <UNPREDICTABLE>
 c30:	7265746e 	rsbvc	r7, r5, #1845493760	; 0x6e000000
 c34:	74707572 	ldrbtvc	r7, [r0], #-1394	; 0x572
 c38:	6261745f 	rsbvs	r7, r1, #1593835520	; 0x5f000000
 c3c:	655f656c 	ldrbvs	r6, [pc, #-1388]	; 6d8 <_start-0x7928>
 c40:	6400646e 	strvs	r6, [r0], #-1134	; 0x46e
 c44:	5f617461 	svcpl	0x00617461
 c48:	726f6261 	rsbvc	r6, pc, #268435462	; 0x10000006
 c4c:	65765f74 	ldrbvs	r5, [r6, #-3956]!	; 0xf74
 c50:	726f7463 	rsbvc	r7, pc, #1660944384	; 0x63000000
 c54:	51524900 	cmppl	r2, r0, lsl #18
 c58:	6e65705f 	mcrvs	0, 3, r7, cr5, cr15, {2}
 c5c:	676e6964 	strbvs	r6, [lr, -r4, ror #18]!
 c60:	6300325f 	movwvs	r3, #607	; 0x25f
 c64:	30343173 	eorscc	r3, r4, r3, ror r1
 c68:	6e692d65 	cdpvs	13, 6, cr2, cr9, cr5, {3}
 c6c:	72726574 	rsbsvc	r6, r2, #116, 10	; 0x1d000000
 c70:	2f747075 	svccs	0x00747075
 c74:	65746e69 	ldrbvs	r6, [r4, #-3689]!	; 0xe69
 c78:	70757272 	rsbsvc	r7, r5, r2, ror r2
 c7c:	632d7374 	teqvs	sp, #116, 6	; 0xd0000001
 c80:	4900632e 	stmdbmi	r0, {r1, r2, r3, r5, r8, r9, sp, lr}
 c84:	705f5152 	subsvc	r5, pc, r2, asr r1	; <UNPREDICTABLE>
 c88:	69646e65 	stmdbvs	r4!, {r0, r2, r5, r6, r9, sl, fp, sp, lr}^
 c8c:	315f676e 	cmpcc	pc, lr, ror #14
 c90:	646e7500 	strbtvs	r7, [lr], #-1280	; 0x500
 c94:	6e696665 	cdpvs	6, 6, cr6, cr9, cr5, {3}
 c98:	695f6465 	ldmdbvs	pc, {r0, r2, r5, r6, sl, sp, lr}^	; <UNPREDICTABLE>
 c9c:	7274736e 	rsbsvc	r7, r4, #-1207959551	; 0xb8000001
 ca0:	69746375 	ldmdbvs	r4!, {r0, r2, r4, r5, r6, r8, r9, sp, lr}^
 ca4:	765f6e6f 	ldrbvc	r6, [pc], -pc, ror #28
 ca8:	6f746365 	svcvs	0x00746365
 cac:	65720072 	ldrbvs	r0, [r2, #-114]!	; 0x72
 cb0:	5f746573 	svcpl	0x00746573
 cb4:	74636576 	strbtvc	r6, [r3], #-1398	; 0x576
 cb8:	7300726f 	movwvc	r7, #623	; 0x26f
 cbc:	7774666f 	ldrbvc	r6, [r4, -pc, ror #12]!
 cc0:	5f657261 	svcpl	0x00657261
 cc4:	65746e69 	ldrbvs	r6, [r4, #-3689]!	; 0xe69
 cc8:	70757272 	rsbsvc	r7, r5, r2, ror r2
 ccc:	65765f74 	ldrbvs	r5, [r6, #-3956]!	; 0xf74
 cd0:	726f7463 	rsbvc	r7, pc, #1660944384	; 0x63000000
 cd4:	73694400 	cmnvc	r9, #0, 8
 cd8:	656c6261 	strbvs	r6, [ip, #-609]!	; 0x261
 cdc:	5152495f 	cmppl	r2, pc, asr r9
 ce0:	00315f73 	eorseq	r5, r1, r3, ror pc
 ce4:	61736944 	cmnvs	r3, r4, asr #18
 ce8:	5f656c62 	svcpl	0x00656c62
 cec:	73515249 	cmpvc	r1, #-1879048188	; 0x90000004
 cf0:	6600325f 			; <UNDEFINED> instruction: 0x6600325f
 cf4:	5f747361 	svcpl	0x00747361
 cf8:	65746e69 	ldrbvs	r6, [r4, #-3689]!	; 0xe69
 cfc:	70757272 	rsbsvc	r7, r5, r2, ror r2
 d00:	65765f74 	ldrbvs	r5, [r6, #-3956]!	; 0xf74
 d04:	726f7463 	rsbvc	r7, pc, #1660944384	; 0x63000000
 d08:	51524900 	cmppl	r2, r0, lsl #18
 d0c:	7361425f 	cmnvc	r1, #-268435451	; 0xf0000005
 d10:	62630065 	rsbvs	r0, r3, #101	; 0x65
 d14:	77656e5f 			; <UNDEFINED> instruction: 0x77656e5f
 d18:	31736300 	cmncc	r3, r0, lsl #6
 d1c:	2d653034 	stclcs	0, cr3, [r5, #-208]!	; 0xffffff30
 d20:	2f637273 	svccs	0x00637273
 d24:	746e6f63 	strbtvc	r6, [lr], #-3939	; 0xf63
 d28:	2d6c6f72 	stclcs	15, cr6, [ip, #-456]!	; 0xfffffe38
 d2c:	636f6c62 	cmnvs	pc, #25088	; 0x6200
 d30:	00632e6b 	rsbeq	r2, r3, fp, ror #28

Disassembly of section .debug_frame:

00000000 <.debug_frame>:
   0:	0000000c 	andeq	r0, r0, ip
   4:	ffffffff 			; <UNDEFINED> instruction: 0xffffffff
   8:	7c020001 	stcvc	0, cr0, [r2], {1}
   c:	000d0c0e 	andeq	r0, sp, lr, lsl #24
  10:	00000018 	andeq	r0, r0, r8, lsl r0
  14:	00000000 	andeq	r0, r0, r0
  18:	00008010 	andeq	r8, r0, r0, lsl r0
  1c:	000001b4 			; <UNDEFINED> instruction: 0x000001b4
  20:	83100e42 	tsthi	r0, #1056	; 0x420
  24:	85038404 	strhi	r8, [r3, #-1028]	; 0x404
  28:	00018e02 	andeq	r8, r1, r2, lsl #28
  2c:	00000014 	andeq	r0, r0, r4, lsl r0
  30:	00000000 	andeq	r0, r0, r0
  34:	000081c4 	andeq	r8, r0, r4, asr #3
  38:	00000028 	andeq	r0, r0, r8, lsr #32
  3c:	83080e42 	movwhi	r0, #36418	; 0x8e42
  40:	00018e02 	andeq	r8, r1, r2, lsl #28
  44:	0000000c 	andeq	r0, r0, ip
  48:	00000000 	andeq	r0, r0, r0
  4c:	000081ec 	andeq	r8, r0, ip, ror #3
  50:	00000040 	andeq	r0, r0, r0, asr #32
  54:	00000014 	andeq	r0, r0, r4, lsl r0
  58:	00000000 	andeq	r0, r0, r0
  5c:	0000822c 	andeq	r8, r0, ip, lsr #4
  60:	000000bc 	strheq	r0, [r0], -ip
  64:	84080e42 	strhi	r0, [r8], #-3650	; 0xe42
  68:	00018e02 	andeq	r8, r1, r2, lsl #28
  6c:	00000014 	andeq	r0, r0, r4, lsl r0
  70:	00000000 	andeq	r0, r0, r0
  74:	000082e8 	andeq	r8, r0, r8, ror #5
  78:	00000054 	andeq	r0, r0, r4, asr r0
  7c:	84080e42 	strhi	r0, [r8], #-3650	; 0xe42
  80:	00018e02 	andeq	r8, r1, r2, lsl #28
  84:	00000020 	andeq	r0, r0, r0, lsr #32
  88:	00000000 	andeq	r0, r0, r0
  8c:	0000833c 	andeq	r8, r0, ip, lsr r3
  90:	000000e0 	andeq	r0, r0, r0, ror #1
  94:	83200e42 	teqhi	r0, #1056	; 0x420
  98:	85078408 	strhi	r8, [r7, #-1032]	; 0x408
  9c:	87058606 	strhi	r8, [r5, -r6, lsl #12]
  a0:	89038804 	stmdbhi	r3, {r2, fp, pc}
  a4:	00018e02 	andeq	r8, r1, r2, lsl #28
  a8:	00000020 	andeq	r0, r0, r0, lsr #32
  ac:	00000000 	andeq	r0, r0, r0
  b0:	0000841c 	andeq	r8, r0, ip, lsl r4
  b4:	00000150 	andeq	r0, r0, r0, asr r1
  b8:	83200e42 	teqhi	r0, #1056	; 0x420
  bc:	85078408 	strhi	r8, [r7, #-1032]	; 0x408
  c0:	87058606 	strhi	r8, [r5, -r6, lsl #12]
  c4:	89038804 	stmdbhi	r3, {r2, fp, pc}
  c8:	00018e02 	andeq	r8, r1, r2, lsl #28
  cc:	0000000c 	andeq	r0, r0, ip
  d0:	00000000 	andeq	r0, r0, r0
  d4:	0000856c 	andeq	r8, r0, ip, ror #10
  d8:	00000078 	andeq	r0, r0, r8, ror r0
  dc:	0000001c 	andeq	r0, r0, ip, lsl r0
  e0:	00000000 	andeq	r0, r0, r0
  e4:	000085e4 	andeq	r8, r0, r4, ror #11
  e8:	0000019c 	muleq	r0, ip, r1
  ec:	84100e42 	ldrhi	r0, [r0], #-3650	; 0xe42
  f0:	86038504 	strhi	r8, [r3], -r4, lsl #10
  f4:	42018e02 	andmi	r8, r1, #2, 28
  f8:	0000280e 	andeq	r2, r0, lr, lsl #16
  fc:	0000000c 	andeq	r0, r0, ip
 100:	ffffffff 			; <UNDEFINED> instruction: 0xffffffff
 104:	7c020001 	stcvc	0, cr0, [r2], {1}
 108:	000d0c0e 	andeq	r0, sp, lr, lsl #24
 10c:	0000000c 	andeq	r0, r0, ip
 110:	000000fc 	strdeq	r0, [r0], -ip
 114:	00008780 	andeq	r8, r0, r0, lsl #15
 118:	00000020 	andeq	r0, r0, r0, lsr #32
 11c:	0000000c 	andeq	r0, r0, ip
 120:	ffffffff 			; <UNDEFINED> instruction: 0xffffffff
 124:	7c020001 	stcvc	0, cr0, [r2], {1}
 128:	000d0c0e 	andeq	r0, sp, lr, lsl #24
 12c:	00000024 	andeq	r0, r0, r4, lsr #32
 130:	0000011c 	andeq	r0, r0, ip, lsl r1
 134:	000087a0 	andeq	r8, r0, r0, lsr #15
 138:	00000058 	andeq	r0, r0, r8, asr r0
 13c:	80100e42 	andshi	r0, r0, r2, asr #28
 140:	82038104 	andhi	r8, r3, #4, 2
 144:	42018302 	andmi	r8, r1, #134217728	; 0x8000000
 148:	07841c0e 	streq	r1, [r4, lr, lsl #24]
 14c:	058e0685 	streq	r0, [lr, #1669]	; 0x685
 150:	00280e42 	eoreq	r0, r8, r2, asr #28
 154:	0000000c 	andeq	r0, r0, ip
 158:	ffffffff 			; <UNDEFINED> instruction: 0xffffffff
 15c:	7c020001 	stcvc	0, cr0, [r2], {1}
 160:	000d0c0e 	andeq	r0, sp, lr, lsl #24
 164:	00000014 	andeq	r0, r0, r4, lsl r0
 168:	00000154 	andeq	r0, r0, r4, asr r1
 16c:	000087f8 	strdeq	r8, [r0], -r8	; <UNPREDICTABLE>
 170:	00000014 	andeq	r0, r0, r4, lsl r0
 174:	84080e42 	strhi	r0, [r8], #-3650	; 0xe42
 178:	00018e02 	andeq	r8, r1, r2, lsl #28
 17c:	0000000c 	andeq	r0, r0, ip
 180:	00000154 	andeq	r0, r0, r4, asr r1
 184:	0000880c 	andeq	r8, r0, ip, lsl #16
 188:	00000018 	andeq	r0, r0, r8, lsl r0
 18c:	0000000c 	andeq	r0, r0, ip
 190:	00000154 	andeq	r0, r0, r4, asr r1
 194:	00008824 	andeq	r8, r0, r4, lsr #16
 198:	00000010 	andeq	r0, r0, r0, lsl r0
 19c:	0000000c 	andeq	r0, r0, ip
 1a0:	ffffffff 			; <UNDEFINED> instruction: 0xffffffff
 1a4:	7c020001 	stcvc	0, cr0, [r2], {1}
 1a8:	000d0c0e 	andeq	r0, sp, lr, lsl #24
 1ac:	00000018 	andeq	r0, r0, r8, lsl r0
 1b0:	0000019c 	muleq	r0, ip, r1
 1b4:	00008834 	andeq	r8, r0, r4, lsr r8
 1b8:	00000034 	andeq	r0, r0, r4, lsr r0
 1bc:	83100e42 	tsthi	r0, #1056	; 0x420
 1c0:	85038404 	strhi	r8, [r3, #-1028]	; 0x404
 1c4:	00018e02 	andeq	r8, r1, r2, lsl #28
 1c8:	0000000c 	andeq	r0, r0, ip
 1cc:	ffffffff 			; <UNDEFINED> instruction: 0xffffffff
 1d0:	7c020001 	stcvc	0, cr0, [r2], {1}
 1d4:	000d0c0e 	andeq	r0, sp, lr, lsl #24
 1d8:	0000000c 	andeq	r0, r0, ip
 1dc:	000001c8 	andeq	r0, r0, r8, asr #3
 1e0:	00008868 	andeq	r8, r0, r8, ror #16
 1e4:	00000014 	andeq	r0, r0, r4, lsl r0
 1e8:	0000000c 	andeq	r0, r0, ip
 1ec:	000001c8 	andeq	r0, r0, r8, asr #3
 1f0:	0000887c 	andeq	r8, r0, ip, ror r8
 1f4:	0000002c 	andeq	r0, r0, ip, lsr #32
 1f8:	0000000c 	andeq	r0, r0, ip
 1fc:	000001c8 	andeq	r0, r0, r8, asr #3
 200:	000088a8 	andeq	r8, r0, r8, lsr #17
 204:	00000040 	andeq	r0, r0, r0, asr #32
 208:	00000020 	andeq	r0, r0, r0, lsr #32
 20c:	000001c8 	andeq	r0, r0, r8, asr #3
 210:	000088e8 	andeq	r8, r0, r8, ror #17
 214:	0000019c 	muleq	r0, ip, r1
 218:	84180e42 	ldrhi	r0, [r8], #-3650	; 0xe42
 21c:	86058506 	strhi	r8, [r5], -r6, lsl #10
 220:	88038704 	stmdahi	r3, {r2, r8, r9, sl, pc}
 224:	42018e02 	andmi	r8, r1, #2, 28
 228:	0000580e 	andeq	r5, r0, lr, lsl #16
 22c:	00000014 	andeq	r0, r0, r4, lsl r0
 230:	000001c8 	andeq	r0, r0, r8, asr #3
 234:	00008a84 	andeq	r8, r0, r4, lsl #21
 238:	00000054 	andeq	r0, r0, r4, asr r0
 23c:	83080e42 	movwhi	r0, #36418	; 0x8e42
 240:	00018e02 	andeq	r8, r1, r2, lsl #28
 244:	00000028 	andeq	r0, r0, r8, lsr #32
 248:	000001c8 	andeq	r0, r0, r8, asr #3
 24c:	00008ad8 	ldrdeq	r8, [r0], -r8	; <UNPREDICTABLE>
 250:	00000288 	andeq	r0, r0, r8, lsl #5
 254:	84240e42 	strthi	r0, [r4], #-3650	; 0xe42
 258:	86088509 	strhi	r8, [r8], -r9, lsl #10
 25c:	88068707 	stmdahi	r6, {r0, r1, r2, r8, r9, sl, pc}
 260:	8a048905 	bhi	12267c <__bss_end__+0x113cb4>
 264:	8e028b03 	vmlahi.f64	d8, d2, d3
 268:	b00e4201 	andlt	r4, lr, r1, lsl #4
 26c:	00000001 	andeq	r0, r0, r1
 270:	0000000c 	andeq	r0, r0, ip
 274:	ffffffff 			; <UNDEFINED> instruction: 0xffffffff
 278:	7c020001 	stcvc	0, cr0, [r2], {1}
 27c:	000d0c0e 	andeq	r0, sp, lr, lsl #24
 280:	0000000c 	andeq	r0, r0, ip
 284:	00000270 	andeq	r0, r0, r0, ror r2
 288:	00008d60 	andeq	r8, r0, r0, ror #26
 28c:	00000010 	andeq	r0, r0, r0, lsl r0
 290:	0000000c 	andeq	r0, r0, ip
 294:	00000270 	andeq	r0, r0, r0, ror r2
 298:	00008d70 	andeq	r8, r0, r0, ror sp
 29c:	00000010 	andeq	r0, r0, r0, lsl r0
 2a0:	0000000c 	andeq	r0, r0, ip
 2a4:	ffffffff 			; <UNDEFINED> instruction: 0xffffffff
 2a8:	7c020001 	stcvc	0, cr0, [r2], {1}
 2ac:	000d0c0e 	andeq	r0, sp, lr, lsl #24
 2b0:	00000014 	andeq	r0, r0, r4, lsl r0
 2b4:	000002a0 	andeq	r0, r0, r0, lsr #5
 2b8:	00008d80 	andeq	r8, r0, r0, lsl #27
 2bc:	00000028 	andeq	r0, r0, r8, lsr #32
 2c0:	83080e42 	movwhi	r0, #36418	; 0x8e42
 2c4:	00018e02 	andeq	r8, r1, r2, lsl #28
 2c8:	0000000c 	andeq	r0, r0, ip
 2cc:	ffffffff 			; <UNDEFINED> instruction: 0xffffffff
 2d0:	7c020001 	stcvc	0, cr0, [r2], {1}
 2d4:	000d0c0e 	andeq	r0, sp, lr, lsl #24
 2d8:	00000014 	andeq	r0, r0, r4, lsl r0
 2dc:	000002c8 	andeq	r0, r0, r8, asr #5
 2e0:	00008da8 	andeq	r8, r0, r8, lsr #27
 2e4:	00000020 	andeq	r0, r0, r0, lsr #32
 2e8:	84080e42 	strhi	r0, [r8], #-3650	; 0xe42
 2ec:	00018e02 	andeq	r8, r1, r2, lsl #28
 2f0:	00000014 	andeq	r0, r0, r4, lsl r0
 2f4:	000002c8 	andeq	r0, r0, r8, asr #5
 2f8:	00008dc8 	andeq	r8, r0, r8, asr #27
 2fc:	00000090 	muleq	r0, r0, r0
 300:	83080e42 	movwhi	r0, #36418	; 0x8e42
 304:	00018e02 	andeq	r8, r1, r2, lsl #28
 308:	0000000c 	andeq	r0, r0, ip
 30c:	ffffffff 			; <UNDEFINED> instruction: 0xffffffff
 310:	7c020001 	stcvc	0, cr0, [r2], {1}
 314:	000d0c0e 	andeq	r0, sp, lr, lsl #24
 318:	0000000c 	andeq	r0, r0, ip
 31c:	00000308 	andeq	r0, r0, r8, lsl #6
 320:	00008e58 	andeq	r8, r0, r8, asr lr
 324:	00000018 	andeq	r0, r0, r8, lsl r0
 328:	0000000c 	andeq	r0, r0, ip
 32c:	00000308 	andeq	r0, r0, r8, lsl #6
 330:	00008e70 	andeq	r8, r0, r0, ror lr
 334:	00000014 	andeq	r0, r0, r4, lsl r0
 338:	00000014 	andeq	r0, r0, r4, lsl r0
 33c:	00000308 	andeq	r0, r0, r8, lsl #6
 340:	00008e84 	andeq	r8, r0, r4, lsl #29
 344:	00000048 	andeq	r0, r0, r8, asr #32
 348:	83080e42 	movwhi	r0, #36418	; 0x8e42
 34c:	00018e02 	andeq	r8, r1, r2, lsl #28
 350:	0000000c 	andeq	r0, r0, ip
 354:	ffffffff 			; <UNDEFINED> instruction: 0xffffffff
 358:	7c020001 	stcvc	0, cr0, [r2], {1}
 35c:	000d0c0e 	andeq	r0, sp, lr, lsl #24
 360:	0000000c 	andeq	r0, r0, ip
 364:	00000350 	andeq	r0, r0, r0, asr r3
 368:	00008ecc 	andeq	r8, r0, ip, asr #29
 36c:	0000001c 	andeq	r0, r0, ip, lsl r0
 370:	00000014 	andeq	r0, r0, r4, lsl r0
 374:	00000350 	andeq	r0, r0, r0, asr r3
 378:	00008ee8 	andeq	r8, r0, r8, ror #29
 37c:	00000014 	andeq	r0, r0, r4, lsl r0
 380:	83080e42 	movwhi	r0, #36418	; 0x8e42
 384:	00018e02 	andeq	r8, r1, r2, lsl #28
 388:	00000014 	andeq	r0, r0, r4, lsl r0
 38c:	00000350 	andeq	r0, r0, r0, asr r3
 390:	00008efc 	strdeq	r8, [r0], -ip
 394:	0000000c 	andeq	r0, r0, ip
 398:	83080e42 	movwhi	r0, #36418	; 0x8e42
 39c:	00018e02 	andeq	r8, r1, r2, lsl #28
 3a0:	00000018 	andeq	r0, r0, r8, lsl r0
 3a4:	00000350 	andeq	r0, r0, r0, asr r3
 3a8:	00008f08 	andeq	r8, r0, r8, lsl #30
 3ac:	00000024 	andeq	r0, r0, r4, lsr #32
 3b0:	83100e42 	tsthi	r0, #1056	; 0x420
 3b4:	85038404 	strhi	r8, [r3, #-1028]	; 0x404
 3b8:	00018e02 	andeq	r8, r1, r2, lsl #28
 3bc:	00000014 	andeq	r0, r0, r4, lsl r0
 3c0:	00000350 	andeq	r0, r0, r0, asr r3
 3c4:	00008f2c 	andeq	r8, r0, ip, lsr #30
 3c8:	00000014 	andeq	r0, r0, r4, lsl r0
 3cc:	83080e42 	movwhi	r0, #36418	; 0x8e42
 3d0:	00018e02 	andeq	r8, r1, r2, lsl #28
 3d4:	00000014 	andeq	r0, r0, r4, lsl r0
 3d8:	00000350 	andeq	r0, r0, r0, asr r3
 3dc:	00008f40 	andeq	r8, r0, r0, asr #30
 3e0:	00000014 	andeq	r0, r0, r4, lsl r0
 3e4:	83080e42 	movwhi	r0, #36418	; 0x8e42
 3e8:	00018e02 	andeq	r8, r1, r2, lsl #28
 3ec:	0000000c 	andeq	r0, r0, ip
 3f0:	ffffffff 			; <UNDEFINED> instruction: 0xffffffff
 3f4:	7c020001 	stcvc	0, cr0, [r2], {1}
 3f8:	000d0c0e 	andeq	r0, sp, lr, lsl #24
 3fc:	00000018 	andeq	r0, r0, r8, lsl r0
 400:	000003ec 	andeq	r0, r0, ip, ror #7
 404:	00008f54 	andeq	r8, r0, r4, asr pc
 408:	000000d4 	ldrdeq	r0, [r0], -r4
 40c:	83100e42 	tsthi	r0, #1056	; 0x420
 410:	85038404 	strhi	r8, [r3, #-1028]	; 0x404
 414:	00018e02 	andeq	r8, r1, r2, lsl #28
 418:	00000014 	andeq	r0, r0, r4, lsl r0
 41c:	000003ec 	andeq	r0, r0, ip, ror #7
 420:	00009028 	andeq	r9, r0, r8, lsr #32
 424:	00000038 	andeq	r0, r0, r8, lsr r0
 428:	83080e42 	movwhi	r0, #36418	; 0x8e42
 42c:	00018e02 	andeq	r8, r1, r2, lsl #28
 430:	00000014 	andeq	r0, r0, r4, lsl r0
 434:	000003ec 	andeq	r0, r0, ip, ror #7
 438:	00009060 	andeq	r9, r0, r0, rrx
 43c:	00000038 	andeq	r0, r0, r8, lsr r0
 440:	83080e42 	movwhi	r0, #36418	; 0x8e42
 444:	00018e02 	andeq	r8, r1, r2, lsl #28
 448:	00000018 	andeq	r0, r0, r8, lsl r0
 44c:	000003ec 	andeq	r0, r0, ip, ror #7
 450:	00009098 	muleq	r0, r8, r0
 454:	000000cc 	andeq	r0, r0, ip, asr #1
 458:	83100e42 	tsthi	r0, #1056	; 0x420
 45c:	85038404 	strhi	r8, [r3, #-1028]	; 0x404
 460:	00018e02 	andeq	r8, r1, r2, lsl #28
 464:	00000014 	andeq	r0, r0, r4, lsl r0
 468:	000003ec 	andeq	r0, r0, ip, ror #7
 46c:	00009164 	andeq	r9, r0, r4, ror #2
 470:	0000004c 	andeq	r0, r0, ip, asr #32
 474:	84080e42 	strhi	r0, [r8], #-3650	; 0xe42
 478:	00018e02 	andeq	r8, r1, r2, lsl #28
 47c:	00000014 	andeq	r0, r0, r4, lsl r0
 480:	000003ec 	andeq	r0, r0, ip, ror #7
 484:	000091b0 			; <UNDEFINED> instruction: 0x000091b0
 488:	00000078 	andeq	r0, r0, r8, ror r0
 48c:	83080e42 	movwhi	r0, #36418	; 0x8e42
 490:	00018e02 	andeq	r8, r1, r2, lsl #28
 494:	00000018 	andeq	r0, r0, r8, lsl r0
 498:	000003ec 	andeq	r0, r0, ip, ror #7
 49c:	00009228 	andeq	r9, r0, r8, lsr #4
 4a0:	000000d8 	ldrdeq	r0, [r0], -r8
 4a4:	84100e42 	ldrhi	r0, [r0], #-3650	; 0xe42
 4a8:	86038504 	strhi	r8, [r3], -r4, lsl #10
 4ac:	00018e02 	andeq	r8, r1, r2, lsl #28
 4b0:	00000014 	andeq	r0, r0, r4, lsl r0
 4b4:	000003ec 	andeq	r0, r0, ip, ror #7
 4b8:	00009300 	andeq	r9, r0, r0, lsl #6
 4bc:	0000002c 	andeq	r0, r0, ip, lsr #32
 4c0:	83080e42 	movwhi	r0, #36418	; 0x8e42
 4c4:	00018e02 	andeq	r8, r1, r2, lsl #28
 4c8:	00000018 	andeq	r0, r0, r8, lsl r0
 4cc:	000003ec 	andeq	r0, r0, ip, ror #7
 4d0:	0000932c 	andeq	r9, r0, ip, lsr #6
 4d4:	00000084 	andeq	r0, r0, r4, lsl #1
 4d8:	83100e42 	tsthi	r0, #1056	; 0x420
 4dc:	85038404 	strhi	r8, [r3, #-1028]	; 0x404
 4e0:	00018e02 	andeq	r8, r1, r2, lsl #28
 4e4:	00000018 	andeq	r0, r0, r8, lsl r0
 4e8:	000003ec 	andeq	r0, r0, ip, ror #7
 4ec:	000093b0 			; <UNDEFINED> instruction: 0x000093b0
 4f0:	00000084 	andeq	r0, r0, r4, lsl #1
 4f4:	83100e42 	tsthi	r0, #1056	; 0x420
 4f8:	85038404 	strhi	r8, [r3, #-1028]	; 0x404
 4fc:	00018e02 	andeq	r8, r1, r2, lsl #28
 500:	00000014 	andeq	r0, r0, r4, lsl r0
 504:	000003ec 	andeq	r0, r0, ip, ror #7
 508:	00009434 	andeq	r9, r0, r4, lsr r4
 50c:	00000084 	andeq	r0, r0, r4, lsl #1
 510:	84080e42 	strhi	r0, [r8], #-3650	; 0xe42
 514:	00018e02 	andeq	r8, r1, r2, lsl #28
 518:	00000014 	andeq	r0, r0, r4, lsl r0
 51c:	000003ec 	andeq	r0, r0, ip, ror #7
 520:	000094b8 			; <UNDEFINED> instruction: 0x000094b8
 524:	00000058 	andeq	r0, r0, r8, asr r0
 528:	84080e42 	strhi	r0, [r8], #-3650	; 0xe42
 52c:	00018e02 	andeq	r8, r1, r2, lsl #28
 530:	0000000c 	andeq	r0, r0, ip
 534:	ffffffff 			; <UNDEFINED> instruction: 0xffffffff
 538:	7c020001 	stcvc	0, cr0, [r2], {1}
 53c:	000d0c0e 	andeq	r0, sp, lr, lsl #24
 540:	0000001c 	andeq	r0, r0, ip, lsl r0
 544:	00000530 	andeq	r0, r0, r0, lsr r5
 548:	00009510 	andeq	r9, r0, r0, lsl r5
 54c:	00000154 	andeq	r0, r0, r4, asr r1
 550:	84180e42 	ldrhi	r0, [r8], #-3650	; 0xe42
 554:	86058506 	strhi	r8, [r5], -r6, lsl #10
 558:	88038704 	stmdahi	r3, {r2, r8, r9, sl, pc}
 55c:	00018e02 	andeq	r8, r1, r2, lsl #28
 560:	00000020 	andeq	r0, r0, r0, lsr #32
 564:	00000530 	andeq	r0, r0, r0, lsr r5
 568:	00009664 	andeq	r9, r0, r4, ror #12
 56c:	000001c8 	andeq	r0, r0, r8, asr #3
 570:	83200e42 	teqhi	r0, #1056	; 0x420
 574:	85078408 	strhi	r8, [r7, #-1032]	; 0x408
 578:	87058606 	strhi	r8, [r5, -r6, lsl #12]
 57c:	89038804 	stmdbhi	r3, {r2, fp, pc}
 580:	00018e02 	andeq	r8, r1, r2, lsl #28
 584:	00000020 	andeq	r0, r0, r0, lsr #32
 588:	00000530 	andeq	r0, r0, r0, lsr r5
 58c:	0000982c 	andeq	r9, r0, ip, lsr #16
 590:	00000090 	muleq	r0, r0, r0
 594:	84200e42 	strthi	r0, [r0], #-3650	; 0xe42
 598:	86078508 	strhi	r8, [r7], -r8, lsl #10
 59c:	88058706 	stmdahi	r5, {r1, r2, r8, r9, sl, pc}
 5a0:	8a038904 	bhi	e29b8 <__bss_end__+0xd3ff0>
 5a4:	00018e02 	andeq	r8, r1, r2, lsl #28
 5a8:	0000001c 	andeq	r0, r0, ip, lsl r0
 5ac:	00000530 	andeq	r0, r0, r0, lsr r5
 5b0:	000098bc 			; <UNDEFINED> instruction: 0x000098bc
 5b4:	0000007c 	andeq	r0, r0, ip, ror r0
 5b8:	84180e42 	ldrhi	r0, [r8], #-3650	; 0xe42
 5bc:	86058506 	strhi	r8, [r5], -r6, lsl #10
 5c0:	88038704 	stmdahi	r3, {r2, r8, r9, sl, pc}
 5c4:	00018e02 	andeq	r8, r1, r2, lsl #28
 5c8:	0000001c 	andeq	r0, r0, ip, lsl r0
 5cc:	00000530 	andeq	r0, r0, r0, lsr r5
 5d0:	00009938 	andeq	r9, r0, r8, lsr r9
 5d4:	000000c0 	andeq	r0, r0, r0, asr #1
 5d8:	84180e42 	ldrhi	r0, [r8], #-3650	; 0xe42
 5dc:	86058506 	strhi	r8, [r5], -r6, lsl #10
 5e0:	88038704 	stmdahi	r3, {r2, r8, r9, sl, pc}
 5e4:	00018e02 	andeq	r8, r1, r2, lsl #28
 5e8:	00000014 	andeq	r0, r0, r4, lsl r0
 5ec:	00000530 	andeq	r0, r0, r0, lsr r5
 5f0:	000099f8 	strdeq	r9, [r0], -r8
 5f4:	0000003c 	andeq	r0, r0, ip, lsr r0
 5f8:	83080e42 	movwhi	r0, #36418	; 0x8e42
 5fc:	00018e02 	andeq	r8, r1, r2, lsl #28
 600:	00000018 	andeq	r0, r0, r8, lsl r0
 604:	00000530 	andeq	r0, r0, r0, lsr r5
 608:	00009a34 	andeq	r9, r0, r4, lsr sl
 60c:	0000002c 	andeq	r0, r0, ip, lsr #32
 610:	83100e42 	tsthi	r0, #1056	; 0x420
 614:	85038404 	strhi	r8, [r3, #-1028]	; 0x404
 618:	00018e02 	andeq	r8, r1, r2, lsl #28
 61c:	00000024 	andeq	r0, r0, r4, lsr #32
 620:	00000530 	andeq	r0, r0, r0, lsr r5
 624:	00009a60 	andeq	r9, r0, r0, ror #20
 628:	00000084 	andeq	r0, r0, r4, lsl #1
 62c:	810c0e42 	tsthi	ip, r2, asr #28
 630:	83028203 	movwhi	r8, #8707	; 0x2203
 634:	180e4201 	stmdane	lr, {r0, r9, lr}
 638:	05850684 	streq	r0, [r5, #1668]	; 0x684
 63c:	0e42048e 	cdpeq	4, 4, cr0, cr2, cr14, {4}
 640:	000003e8 	andeq	r0, r0, r8, ror #7
 644:	00000014 	andeq	r0, r0, r4, lsl r0
 648:	00000530 	andeq	r0, r0, r0, lsr r5
 64c:	00009ae4 	andeq	r9, r0, r4, ror #21
 650:	0000004c 	andeq	r0, r0, ip, asr #32
 654:	8e040e42 	cdphi	14, 0, cr0, cr4, cr2, {2}
 658:	100e4201 	andne	r4, lr, r1, lsl #4
 65c:	0000000c 	andeq	r0, r0, ip
 660:	ffffffff 			; <UNDEFINED> instruction: 0xffffffff
 664:	7c020001 	stcvc	0, cr0, [r2], {1}
 668:	000d0c0e 	andeq	r0, sp, lr, lsl #24
 66c:	00000018 	andeq	r0, r0, r8, lsl r0
 670:	0000065c 	andeq	r0, r0, ip, asr r6
 674:	00009b30 	andeq	r9, r0, r0, lsr fp
 678:	0000009c 	muleq	r0, ip, r0
 67c:	83100e42 	tsthi	r0, #1056	; 0x420
 680:	85038404 	strhi	r8, [r3, #-1028]	; 0x404
 684:	00018e02 	andeq	r8, r1, r2, lsl #28
 688:	00000014 	andeq	r0, r0, r4, lsl r0
 68c:	0000065c 	andeq	r0, r0, ip, asr r6
 690:	00009bcc 	andeq	r9, r0, ip, asr #23
 694:	0000001c 	andeq	r0, r0, ip, lsl r0
 698:	83080e42 	movwhi	r0, #36418	; 0x8e42
 69c:	00018e02 	andeq	r8, r1, r2, lsl #28
 6a0:	00000014 	andeq	r0, r0, r4, lsl r0
 6a4:	0000065c 	andeq	r0, r0, ip, asr r6
 6a8:	00009be8 	andeq	r9, r0, r8, ror #23
 6ac:	00000028 	andeq	r0, r0, r8, lsr #32
 6b0:	83080e42 	movwhi	r0, #36418	; 0x8e42
 6b4:	00018e02 	andeq	r8, r1, r2, lsl #28
 6b8:	00000014 	andeq	r0, r0, r4, lsl r0
 6bc:	0000065c 	andeq	r0, r0, ip, asr r6
 6c0:	00009c10 	andeq	r9, r0, r0, lsl ip
 6c4:	0000001c 	andeq	r0, r0, ip, lsl r0
 6c8:	83080e42 	movwhi	r0, #36418	; 0x8e42
 6cc:	00018e02 	andeq	r8, r1, r2, lsl #28
 6d0:	00000014 	andeq	r0, r0, r4, lsl r0
 6d4:	0000065c 	andeq	r0, r0, ip, asr r6
 6d8:	00009c2c 	andeq	r9, r0, ip, lsr #24
 6dc:	0000002c 	andeq	r0, r0, ip, lsr #32
 6e0:	84080e42 	strhi	r0, [r8], #-3650	; 0xe42
 6e4:	00018e02 	andeq	r8, r1, r2, lsl #28
 6e8:	00000014 	andeq	r0, r0, r4, lsl r0
 6ec:	0000065c 	andeq	r0, r0, ip, asr r6
 6f0:	00009c58 	andeq	r9, r0, r8, asr ip
 6f4:	0000000c 	andeq	r0, r0, ip
 6f8:	83080e42 	movwhi	r0, #36418	; 0x8e42
 6fc:	00018e02 	andeq	r8, r1, r2, lsl #28
 700:	00000014 	andeq	r0, r0, r4, lsl r0
 704:	0000065c 	andeq	r0, r0, ip, asr r6
 708:	00009c64 	andeq	r9, r0, r4, ror #24
 70c:	00000020 	andeq	r0, r0, r0, lsr #32
 710:	83080e42 	movwhi	r0, #36418	; 0x8e42
 714:	00018e02 	andeq	r8, r1, r2, lsl #28
 718:	0000000c 	andeq	r0, r0, ip
 71c:	ffffffff 			; <UNDEFINED> instruction: 0xffffffff
 720:	7c020001 	stcvc	0, cr0, [r2], {1}
 724:	000d0c0e 	andeq	r0, sp, lr, lsl #24
 728:	00000014 	andeq	r0, r0, r4, lsl r0
 72c:	00000718 	andeq	r0, r0, r8, lsl r7
 730:	00009c84 	andeq	r9, r0, r4, lsl #25
 734:	00000068 	andeq	r0, r0, r8, rrx
 738:	83080e42 	movwhi	r0, #36418	; 0x8e42
 73c:	00018e02 	andeq	r8, r1, r2, lsl #28
 740:	00000014 	andeq	r0, r0, r4, lsl r0
 744:	00000718 	andeq	r0, r0, r8, lsl r7
 748:	00009cec 	andeq	r9, r0, ip, ror #25
 74c:	00000044 	andeq	r0, r0, r4, asr #32
 750:	8e040e42 	cdphi	14, 0, cr0, cr4, cr2, {2}
 754:	100e4201 	andne	r4, lr, r1, lsl #4
 758:	00000014 	andeq	r0, r0, r4, lsl r0
 75c:	00000718 	andeq	r0, r0, r8, lsl r7
 760:	00009d30 	andeq	r9, r0, r0, lsr sp
 764:	00000044 	andeq	r0, r0, r4, asr #32
 768:	8e040e42 	cdphi	14, 0, cr0, cr4, cr2, {2}
 76c:	100e4201 	andne	r4, lr, r1, lsl #4
 770:	00000014 	andeq	r0, r0, r4, lsl r0
 774:	00000718 	andeq	r0, r0, r8, lsl r7
 778:	00009d74 	andeq	r9, r0, r4, ror sp
 77c:	00000044 	andeq	r0, r0, r4, asr #32
 780:	8e040e42 	cdphi	14, 0, cr0, cr4, cr2, {2}
 784:	100e4201 	andne	r4, lr, r1, lsl #4
 788:	00000014 	andeq	r0, r0, r4, lsl r0
 78c:	00000718 	andeq	r0, r0, r8, lsl r7
 790:	00009db8 			; <UNDEFINED> instruction: 0x00009db8
 794:	00000044 	andeq	r0, r0, r4, asr #32
 798:	8e040e42 	cdphi	14, 0, cr0, cr4, cr2, {2}
 79c:	100e4201 	andne	r4, lr, r1, lsl #4
 7a0:	00000014 	andeq	r0, r0, r4, lsl r0
 7a4:	00000718 	andeq	r0, r0, r8, lsl r7
 7a8:	00009dfc 	strdeq	r9, [r0], -ip
 7ac:	00000044 	andeq	r0, r0, r4, asr #32
 7b0:	8e040e42 	cdphi	14, 0, cr0, cr4, cr2, {2}
 7b4:	100e4201 	andne	r4, lr, r1, lsl #4
 7b8:	00000014 	andeq	r0, r0, r4, lsl r0
 7bc:	00000718 	andeq	r0, r0, r8, lsl r7
 7c0:	00009e40 	andeq	r9, r0, r0, asr #28
 7c4:	00000044 	andeq	r0, r0, r4, asr #32
 7c8:	8e040e42 	cdphi	14, 0, cr0, cr4, cr2, {2}
 7cc:	100e4201 	andne	r4, lr, r1, lsl #4
 7d0:	0000000c 	andeq	r0, r0, ip
 7d4:	ffffffff 			; <UNDEFINED> instruction: 0xffffffff
 7d8:	7c020001 	stcvc	0, cr0, [r2], {1}
 7dc:	000d0c0e 	andeq	r0, sp, lr, lsl #24
 7e0:	00000014 	andeq	r0, r0, r4, lsl r0
 7e4:	000007d0 	ldrdeq	r0, [r0], -r0	; <UNPREDICTABLE>
 7e8:	00009fc0 	andeq	r9, r0, r0, asr #31
 7ec:	00000028 	andeq	r0, r0, r8, lsr #32
 7f0:	83080e42 	movwhi	r0, #36418	; 0x8e42
 7f4:	00018e02 	andeq	r8, r1, r2, lsl #28
 7f8:	0000000c 	andeq	r0, r0, ip
 7fc:	000007d0 	ldrdeq	r0, [r0], -r0	; <UNPREDICTABLE>
 800:	00009fe8 	andeq	r9, r0, r8, ror #31
 804:	00000028 	andeq	r0, r0, r8, lsr #32
