
1-gpio-int-ex.elf:     file format elf32-littlearm


Disassembly of section .text:

00008000 <_start>:
    8000:	e3a0d302 	mov	sp, #134217728	; 0x8000000
    8004:	e3a0b000 	mov	fp, #0
    8008:	eb000359 	bl	8d74 <_cstart>
    800c:	eb000387 	bl	8e30 <rpi_reboot>

00008010 <cq_init>:
    8010:	e92d4038 	push	{r3, r4, r5, lr}
    8014:	e1a04000 	mov	r4, r0
    8018:	e1a05001 	mov	r5, r1
    801c:	e3a01000 	mov	r1, #0
    8020:	e59f215c 	ldr	r2, [pc, #348]	; 8184 <cq_init+0x174>
    8024:	eb0001d1 	bl	8770 <memset>
    8028:	e59f2158 	ldr	r2, [pc, #344]	; 8188 <cq_init+0x178>
    802c:	e3a03a02 	mov	r3, #8192	; 0x2000
    8030:	e7842003 	str	r2, [r4, r3]
    8034:	e59f2150 	ldr	r2, [pc, #336]	; 818c <cq_init+0x17c>
    8038:	e3a03000 	mov	r3, #0
    803c:	e7843002 	str	r3, [r4, r2]
    8040:	e59f0148 	ldr	r0, [pc, #328]	; 8190 <cq_init+0x180>
    8044:	e7843000 	str	r3, [r4, r0]
    8048:	e59f1144 	ldr	r1, [pc, #324]	; 8194 <cq_init+0x184>
    804c:	e7843001 	str	r3, [r4, r1]
    8050:	e59f3140 	ldr	r3, [pc, #320]	; 8198 <cq_init+0x188>
    8054:	e7d41003 	ldrb	r1, [r4, r3]
    8058:	e2055001 	and	r5, r5, #1
    805c:	e3c11001 	bic	r1, r1, #1
    8060:	e1855001 	orr	r5, r5, r1
    8064:	e7c45003 	strb	r5, [r4, r3]
    8068:	e7941000 	ldr	r1, [r4, r0]
    806c:	e7943002 	ldr	r3, [r4, r2]
    8070:	e1510003 	cmp	r1, r3
    8074:	0a000005 	beq	8090 <cq_init+0x80>
    8078:	e59f011c 	ldr	r0, [pc, #284]	; 819c <cq_init+0x18c>
    807c:	e59f111c 	ldr	r1, [pc, #284]	; 81a0 <cq_init+0x190>
    8080:	e59f211c 	ldr	r2, [pc, #284]	; 81a4 <cq_init+0x194>
    8084:	e3a0309f 	mov	r3, #159	; 0x9f
    8088:	eb0001c0 	bl	8790 <printk>
    808c:	eb000326 	bl	8d2c <clean_reboot>
    8090:	e59f30f8 	ldr	r3, [pc, #248]	; 8190 <cq_init+0x180>
    8094:	e7942003 	ldr	r2, [r4, r3]
    8098:	e2822001 	add	r2, r2, #1
    809c:	e1a02982 	lsl	r2, r2, #19
    80a0:	e2833004 	add	r3, r3, #4
    80a4:	e7943003 	ldr	r3, [r4, r3]
    80a8:	e15309a2 	cmp	r3, r2, lsr #19
    80ac:	1a000005 	bne	80c8 <cq_init+0xb8>
    80b0:	e59f00f0 	ldr	r0, [pc, #240]	; 81a8 <cq_init+0x198>
    80b4:	e59f10e4 	ldr	r1, [pc, #228]	; 81a0 <cq_init+0x190>
    80b8:	e59f20e4 	ldr	r2, [pc, #228]	; 81a4 <cq_init+0x194>
    80bc:	e3a030a0 	mov	r3, #160	; 0xa0
    80c0:	eb0001b2 	bl	8790 <printk>
    80c4:	eb000318 	bl	8d2c <clean_reboot>
    80c8:	e59f30c0 	ldr	r3, [pc, #192]	; 8190 <cq_init+0x180>
    80cc:	e7942003 	ldr	r2, [r4, r3]
    80d0:	e2833004 	add	r3, r3, #4
    80d4:	e7943003 	ldr	r3, [r4, r3]
    80d8:	e0633002 	rsb	r3, r3, r2
    80dc:	e1b03983 	lsls	r3, r3, #19
    80e0:	0a000005 	beq	80fc <cq_init+0xec>
    80e4:	e59f00c0 	ldr	r0, [pc, #192]	; 81ac <cq_init+0x19c>
    80e8:	e59f10b0 	ldr	r1, [pc, #176]	; 81a0 <cq_init+0x190>
    80ec:	e59f20b0 	ldr	r2, [pc, #176]	; 81a4 <cq_init+0x194>
    80f0:	e3a030a1 	mov	r3, #161	; 0xa1
    80f4:	eb0001a5 	bl	8790 <printk>
    80f8:	eb00030b 	bl	8d2c <clean_reboot>
    80fc:	e59f308c 	ldr	r3, [pc, #140]	; 8190 <cq_init+0x180>
    8100:	e7942003 	ldr	r2, [r4, r3]
    8104:	e2833004 	add	r3, r3, #4
    8108:	e7943003 	ldr	r3, [r4, r3]
    810c:	e1520003 	cmp	r2, r3
    8110:	0a000009 	beq	813c <cq_init+0x12c>
    8114:	e59f3070 	ldr	r3, [pc, #112]	; 818c <cq_init+0x17c>
    8118:	e7942003 	ldr	r2, [r4, r3]
    811c:	e7d41002 	ldrb	r1, [r4, r2]
    8120:	e6ef1071 	uxtb	r1, r1
    8124:	e2822001 	add	r2, r2, #1
    8128:	e1a02982 	lsl	r2, r2, #19
    812c:	e1a029a2 	lsr	r2, r2, #19
    8130:	e7842003 	str	r2, [r4, r3]
    8134:	e3a03001 	mov	r3, #1
    8138:	ea000001 	b	8144 <cq_init+0x134>
    813c:	e3a01012 	mov	r1, #18
    8140:	e3a03000 	mov	r3, #0
    8144:	e3530000 	cmp	r3, #0
    8148:	1a000002 	bne	8158 <cq_init+0x148>
    814c:	e3510012 	cmp	r1, #18
    8150:	0a000002 	beq	8160 <cq_init+0x150>
    8154:	ea000002 	b	8164 <cq_init+0x154>
    8158:	e3a03000 	mov	r3, #0
    815c:	ea000000 	b	8164 <cq_init+0x154>
    8160:	e3a03001 	mov	r3, #1
    8164:	e3530000 	cmp	r3, #0
    8168:	18bd8038 	popne	{r3, r4, r5, pc}
    816c:	e59f003c 	ldr	r0, [pc, #60]	; 81b0 <cq_init+0x1a0>
    8170:	e59f1028 	ldr	r1, [pc, #40]	; 81a0 <cq_init+0x190>
    8174:	e59f2028 	ldr	r2, [pc, #40]	; 81a4 <cq_init+0x194>
    8178:	e3a030a3 	mov	r3, #163	; 0xa3
    817c:	eb000183 	bl	8790 <printk>
    8180:	eb0002e9 	bl	8d2c <clean_reboot>
    8184:	00002014 	andeq	r2, r0, r4, lsl r0
    8188:	12345678 	eorsne	r5, r4, #120, 12	; 0x7800000
    818c:	00002008 	andeq	r2, r0, r8
    8190:	00002004 	andeq	r2, r0, r4
    8194:	0000200c 	andeq	r2, r0, ip
    8198:	00002010 	andeq	r2, r0, r0, lsl r0
    819c:	0000a02c 	andeq	sl, r0, ip, lsr #32
    81a0:	0000a048 	andeq	sl, r0, r8, asr #32
    81a4:	0000a024 	andeq	sl, r0, r4, lsr #32
    81a8:	0000a09c 	muleq	r0, ip, r0
    81ac:	0000a0b8 	strheq	sl, [r0], -r8
    81b0:	0000a0dc 	ldrdeq	sl, [r0], -ip

000081b4 <is_uart_int>:
    81b4:	e92d4008 	push	{r3, lr}
    81b8:	e59f0018 	ldr	r0, [pc, #24]	; 81d8 <is_uart_int+0x24>
    81bc:	eb00071b 	bl	9e30 <get32>
    81c0:	e3100001 	tst	r0, #1
    81c4:	0a000001 	beq	81d0 <is_uart_int+0x1c>
    81c8:	e3a00001 	mov	r0, #1
    81cc:	e8bd8008 	pop	{r3, pc}
    81d0:	e3a00000 	mov	r0, #0
    81d4:	e8bd8008 	pop	{r3, pc}
    81d8:	20215048 	eorcs	r5, r1, r8, asr #32

000081dc <uart_can_getc_int>:
    81dc:	e59f302c 	ldr	r3, [pc, #44]	; 8210 <uart_can_getc_int+0x34>
    81e0:	e59f202c 	ldr	r2, [pc, #44]	; 8214 <uart_can_getc_int+0x38>
    81e4:	e7932002 	ldr	r2, [r3, r2]
    81e8:	e2822001 	add	r2, r2, #1
    81ec:	e1a02982 	lsl	r2, r2, #19
    81f0:	e59f1020 	ldr	r1, [pc, #32]	; 8218 <uart_can_getc_int+0x3c>
    81f4:	e7933001 	ldr	r3, [r3, r1]
    81f8:	e15309a2 	cmp	r3, r2, lsr #19
    81fc:	0a000001 	beq	8208 <uart_can_getc_int+0x2c>
    8200:	e3a00001 	mov	r0, #1
    8204:	e12fff1e 	bx	lr
    8208:	e3a00000 	mov	r0, #0
    820c:	e12fff1e 	bx	lr
    8210:	0000a4e4 	andeq	sl, r0, r4, ror #9
    8214:	00002004 	andeq	r2, r0, r4
    8218:	00002008 	andeq	r2, r0, r8

0000821c <uart_init_int>:
    821c:	e92d4010 	push	{r4, lr}
    8220:	eb0006f0 	bl	9de8 <dev_barrier>
    8224:	e3a0000e 	mov	r0, #14
    8228:	e3a01002 	mov	r1, #2
    822c:	eb0003e8 	bl	91d4 <gpio_set_function>
    8230:	e3a0000f 	mov	r0, #15
    8234:	e3a01002 	mov	r1, #2
    8238:	eb0003e5 	bl	91d4 <gpio_set_function>
    823c:	eb0006e9 	bl	9de8 <dev_barrier>
    8240:	e59f4074 	ldr	r4, [pc, #116]	; 82bc <uart_init_int+0xa0>
    8244:	e1a00004 	mov	r0, r4
    8248:	eb0006f8 	bl	9e30 <get32>
    824c:	e3801001 	orr	r1, r0, #1
    8250:	e1a00004 	mov	r0, r4
    8254:	eb0006e9 	bl	9e00 <put32>
    8258:	eb0006e2 	bl	9de8 <dev_barrier>
    825c:	e284405c 	add	r4, r4, #92	; 0x5c
    8260:	e1a00004 	mov	r0, r4
    8264:	e3a01000 	mov	r1, #0
    8268:	eb0006e4 	bl	9e00 <put32>
    826c:	e59f004c 	ldr	r0, [pc, #76]	; 82c0 <uart_init_int+0xa4>
    8270:	e3a01003 	mov	r1, #3
    8274:	eb0006e1 	bl	9e00 <put32>
    8278:	e59f0044 	ldr	r0, [pc, #68]	; 82c4 <uart_init_int+0xa8>
    827c:	e3a01006 	mov	r1, #6
    8280:	eb0006de 	bl	9e00 <put32>
    8284:	e59f003c 	ldr	r0, [pc, #60]	; 82c8 <uart_init_int+0xac>
    8288:	e3a01003 	mov	r1, #3
    828c:	eb0006db 	bl	9e00 <put32>
    8290:	e59f0034 	ldr	r0, [pc, #52]	; 82cc <uart_init_int+0xb0>
    8294:	e59f1034 	ldr	r1, [pc, #52]	; 82d0 <uart_init_int+0xb4>
    8298:	eb0006d8 	bl	9e00 <put32>
    829c:	e1a00004 	mov	r0, r4
    82a0:	e3a01003 	mov	r1, #3
    82a4:	eb0006d5 	bl	9e00 <put32>
    82a8:	e59f0024 	ldr	r0, [pc, #36]	; 82d4 <uart_init_int+0xb8>
    82ac:	e3a01202 	mov	r1, #536870912	; 0x20000000
    82b0:	eb0006d2 	bl	9e00 <put32>
    82b4:	eb0006cb 	bl	9de8 <dev_barrier>
    82b8:	e8bd8010 	pop	{r4, pc}
    82bc:	20215004 	eorcs	r5, r1, r4
    82c0:	20215044 	eorcs	r5, r1, r4, asr #32
    82c4:	20215048 	eorcs	r5, r1, r8, asr #32
    82c8:	2021504c 	eorcs	r5, r1, ip, asr #32
    82cc:	20215068 	eorcs	r5, r1, r8, rrx
    82d0:	0000010e 	andeq	r0, r0, lr, lsl #2
    82d4:	2000b210 	andcs	fp, r0, r0, lsl r2

000082d8 <mod_tx_interrupts>:
    82d8:	e92d4010 	push	{r4, lr}
    82dc:	e1a04000 	mov	r4, r0
    82e0:	eb0006c0 	bl	9de8 <dev_barrier>
    82e4:	e59f003c 	ldr	r0, [pc, #60]	; 8328 <mod_tx_interrupts+0x50>
    82e8:	eb0006d0 	bl	9e30 <get32>
    82ec:	e3801001 	orr	r1, r0, #1
    82f0:	e3540000 	cmp	r4, #0
    82f4:	0a000002 	beq	8304 <mod_tx_interrupts+0x2c>
    82f8:	e59f0028 	ldr	r0, [pc, #40]	; 8328 <mod_tx_interrupts+0x50>
    82fc:	eb0006bf 	bl	9e00 <put32>
    8300:	ea000006 	b	8320 <mod_tx_interrupts+0x48>
    8304:	e59f401c 	ldr	r4, [pc, #28]	; 8328 <mod_tx_interrupts+0x50>
    8308:	e1a00004 	mov	r0, r4
    830c:	e3a01000 	mov	r1, #0
    8310:	eb0006ba 	bl	9e00 <put32>
    8314:	e1a00004 	mov	r0, r4
    8318:	e3a01001 	mov	r1, #1
    831c:	eb0006b7 	bl	9e00 <put32>
    8320:	eb0006b0 	bl	9de8 <dev_barrier>
    8324:	e8bd8010 	pop	{r4, pc}
    8328:	20215044 	eorcs	r5, r1, r4, asr #32

0000832c <uart_putc_int>:
    832c:	e92d43f8 	push	{r3, r4, r5, r6, r7, r8, r9, lr}
    8330:	e1a04000 	mov	r4, r0
    8334:	eb0006c8 	bl	9e5c <system_disable_interrupts>
    8338:	e59f30c0 	ldr	r3, [pc, #192]	; 8400 <uart_putc_int+0xd4>
    833c:	e59f20c0 	ldr	r2, [pc, #192]	; 8404 <uart_putc_int+0xd8>
    8340:	e7931002 	ldr	r1, [r3, r2]
    8344:	e7932002 	ldr	r2, [r3, r2]
    8348:	e2822001 	add	r2, r2, #1
    834c:	e1a02982 	lsl	r2, r2, #19
    8350:	e59f00b0 	ldr	r0, [pc, #176]	; 8408 <uart_putc_int+0xdc>
    8354:	e7933000 	ldr	r3, [r3, r0]
    8358:	e15309a2 	cmp	r3, r2, lsr #19
    835c:	0a000007 	beq	8380 <uart_putc_int+0x54>
    8360:	e59f3098 	ldr	r3, [pc, #152]	; 8400 <uart_putc_int+0xd4>
    8364:	e0832001 	add	r2, r3, r1
    8368:	e5c2401c 	strb	r4, [r2, #28]
    836c:	e2811001 	add	r1, r1, #1
    8370:	e1a01981 	lsl	r1, r1, #19
    8374:	e1a019a1 	lsr	r1, r1, #19
    8378:	e59f2084 	ldr	r2, [pc, #132]	; 8404 <uart_putc_int+0xd8>
    837c:	e7831002 	str	r1, [r3, r2]
    8380:	e3a00001 	mov	r0, #1
    8384:	ebffffd3 	bl	82d8 <mod_tx_interrupts>
    8388:	e59f4070 	ldr	r4, [pc, #112]	; 8400 <uart_putc_int+0xd4>
    838c:	e59f7070 	ldr	r7, [pc, #112]	; 8404 <uart_putc_int+0xd8>
    8390:	e59f5070 	ldr	r5, [pc, #112]	; 8408 <uart_putc_int+0xdc>
    8394:	e3a09000 	mov	r9, #0
    8398:	e3a08001 	mov	r8, #1
    839c:	ea000001 	b	83a8 <uart_putc_int+0x7c>
    83a0:	e1a00006 	mov	r0, r6
    83a4:	eb000605 	bl	9bc0 <uart_putc>
    83a8:	eb0005fd 	bl	9ba4 <uart_can_putc>
    83ac:	e3500000 	cmp	r0, #0
    83b0:	0a000010 	beq	83f8 <uart_putc_int+0xcc>
    83b4:	e7942007 	ldr	r2, [r4, r7]
    83b8:	e7943005 	ldr	r3, [r4, r5]
    83bc:	e1520003 	cmp	r2, r3
    83c0:	0a000009 	beq	83ec <uart_putc_int+0xc0>
    83c4:	e7943005 	ldr	r3, [r4, r5]
    83c8:	e0842003 	add	r2, r4, r3
    83cc:	e5d2601c 	ldrb	r6, [r2, #28]
    83d0:	e6ef6076 	uxtb	r6, r6
    83d4:	e2833001 	add	r3, r3, #1
    83d8:	e1a03983 	lsl	r3, r3, #19
    83dc:	e1a039a3 	lsr	r3, r3, #19
    83e0:	e7843005 	str	r3, [r4, r5]
    83e4:	e1a03008 	mov	r3, r8
    83e8:	ea000000 	b	83f0 <uart_putc_int+0xc4>
    83ec:	e1a03009 	mov	r3, r9
    83f0:	e3530000 	cmp	r3, #0
    83f4:	1affffe9 	bne	83a0 <uart_putc_int+0x74>
    83f8:	eb000693 	bl	9e4c <system_enable_interrupts>
    83fc:	e8bd83f8 	pop	{r3, r4, r5, r6, r7, r8, r9, pc}
    8400:	0000c4dc 	ldrdeq	ip, [r0], -ip	; <UNPREDICTABLE>
    8404:	00002020 	andeq	r2, r0, r0, lsr #32
    8408:	00002024 	andeq	r2, r0, r4, lsr #32

0000840c <interrupt_vector>:
    840c:	e92d43f8 	push	{r3, r4, r5, r6, r7, r8, r9, lr}
    8410:	e59f0124 	ldr	r0, [pc, #292]	; 853c <interrupt_vector+0x130>
    8414:	eb000685 	bl	9e30 <get32>
    8418:	e3100004 	tst	r0, #4
    841c:	1a00000f 	bne	8460 <interrupt_vector+0x54>
    8420:	ea00001b 	b	8494 <interrupt_vector+0x88>
    8424:	eb0005d4 	bl	9b7c <uart_getc>
    8428:	e6ef0070 	uxtb	r0, r0
    842c:	e7941005 	ldr	r1, [r4, r5]
    8430:	e7942005 	ldr	r2, [r4, r5]
    8434:	e2822001 	add	r2, r2, #1
    8438:	e1a02982 	lsl	r2, r2, #19
    843c:	e7943006 	ldr	r3, [r4, r6]
    8440:	e15309a2 	cmp	r3, r2, lsr #19
    8444:	0a000008 	beq	846c <interrupt_vector+0x60>
    8448:	e7c40001 	strb	r0, [r4, r1]
    844c:	e2813001 	add	r3, r1, #1
    8450:	e1a03983 	lsl	r3, r3, #19
    8454:	e1a039a3 	lsr	r3, r3, #19
    8458:	e7843005 	str	r3, [r4, r5]
    845c:	ea000002 	b	846c <interrupt_vector+0x60>
    8460:	e59f40d8 	ldr	r4, [pc, #216]	; 8540 <interrupt_vector+0x134>
    8464:	e59f50d8 	ldr	r5, [pc, #216]	; 8544 <interrupt_vector+0x138>
    8468:	e59f60d8 	ldr	r6, [pc, #216]	; 8548 <interrupt_vector+0x13c>
    846c:	e7942005 	ldr	r2, [r4, r5]
    8470:	e2822001 	add	r2, r2, #1
    8474:	e1a02982 	lsl	r2, r2, #19
    8478:	e7943006 	ldr	r3, [r4, r6]
    847c:	e15309a2 	cmp	r3, r2, lsr #19
    8480:	08bd83f8 	popeq	{r3, r4, r5, r6, r7, r8, r9, pc}
    8484:	eb0005b5 	bl	9b60 <uart_can_getc>
    8488:	e3500000 	cmp	r0, #0
    848c:	1affffe4 	bne	8424 <interrupt_vector+0x18>
    8490:	e8bd83f8 	pop	{r3, r4, r5, r6, r7, r8, r9, pc}
    8494:	e3100002 	tst	r0, #2
    8498:	1a000003 	bne	84ac <interrupt_vector+0xa0>
    849c:	e8bd83f8 	pop	{r3, r4, r5, r6, r7, r8, r9, pc}
    84a0:	e5d60038 	ldrb	r0, [r6, #56]	; 0x38
    84a4:	eb0005c5 	bl	9bc0 <uart_putc>
    84a8:	ea000005 	b	84c4 <interrupt_vector+0xb8>
    84ac:	e59f4098 	ldr	r4, [pc, #152]	; 854c <interrupt_vector+0x140>
    84b0:	e59f7098 	ldr	r7, [pc, #152]	; 8550 <interrupt_vector+0x144>
    84b4:	e59f5098 	ldr	r5, [pc, #152]	; 8554 <interrupt_vector+0x148>
    84b8:	e3a09000 	mov	r9, #0
    84bc:	e59f6094 	ldr	r6, [pc, #148]	; 8558 <interrupt_vector+0x14c>
    84c0:	e3a08001 	mov	r8, #1
    84c4:	eb0005b6 	bl	9ba4 <uart_can_putc>
    84c8:	e3500000 	cmp	r0, #0
    84cc:	0a000010 	beq	8514 <interrupt_vector+0x108>
    84d0:	e7942007 	ldr	r2, [r4, r7]
    84d4:	e7943005 	ldr	r3, [r4, r5]
    84d8:	e1520003 	cmp	r2, r3
    84dc:	0a000009 	beq	8508 <interrupt_vector+0xfc>
    84e0:	e7943005 	ldr	r3, [r4, r5]
    84e4:	e0842003 	add	r2, r4, r3
    84e8:	e5d2201c 	ldrb	r2, [r2, #28]
    84ec:	e5c62038 	strb	r2, [r6, #56]	; 0x38
    84f0:	e2833001 	add	r3, r3, #1
    84f4:	e1a03983 	lsl	r3, r3, #19
    84f8:	e1a039a3 	lsr	r3, r3, #19
    84fc:	e7843005 	str	r3, [r4, r5]
    8500:	e1a03008 	mov	r3, r8
    8504:	ea000000 	b	850c <interrupt_vector+0x100>
    8508:	e1a03009 	mov	r3, r9
    850c:	e3530000 	cmp	r3, #0
    8510:	1affffe2 	bne	84a0 <interrupt_vector+0x94>
    8514:	e59f3030 	ldr	r3, [pc, #48]	; 854c <interrupt_vector+0x140>
    8518:	e59f2030 	ldr	r2, [pc, #48]	; 8550 <interrupt_vector+0x144>
    851c:	e7932002 	ldr	r2, [r3, r2]
    8520:	e59f102c 	ldr	r1, [pc, #44]	; 8554 <interrupt_vector+0x148>
    8524:	e7933001 	ldr	r3, [r3, r1]
    8528:	e1520003 	cmp	r2, r3
    852c:	18bd83f8 	popne	{r3, r4, r5, r6, r7, r8, r9, pc}
    8530:	e3a00000 	mov	r0, #0
    8534:	ebffff67 	bl	82d8 <mod_tx_interrupts>
    8538:	e8bd83f8 	pop	{r3, r4, r5, r6, r7, r8, r9, pc}
    853c:	20215048 	eorcs	r5, r1, r8, asr #32
    8540:	0000a4e4 	andeq	sl, r0, r4, ror #9
    8544:	00002004 	andeq	r2, r0, r4
    8548:	00002008 	andeq	r2, r0, r8
    854c:	0000c4dc 	ldrdeq	ip, [r0], -ip	; <UNPREDICTABLE>
    8550:	00002020 	andeq	r2, r0, r0, lsr #32
    8554:	00002024 	andeq	r2, r0, r4, lsr #32
    8558:	0000e4d4 	ldrdeq	lr, [r0], -r4

0000855c <uart_getc_int>:
    855c:	e59f3064 	ldr	r3, [pc, #100]	; 85c8 <uart_getc_int+0x6c>
    8560:	e59f2064 	ldr	r2, [pc, #100]	; 85cc <uart_getc_int+0x70>
    8564:	e7932002 	ldr	r2, [r3, r2]
    8568:	e59f1060 	ldr	r1, [pc, #96]	; 85d0 <uart_getc_int+0x74>
    856c:	e7933001 	ldr	r3, [r3, r1]
    8570:	e1520003 	cmp	r2, r3
    8574:	0a00000f 	beq	85b8 <uart_getc_int+0x5c>
    8578:	e59f3048 	ldr	r3, [pc, #72]	; 85c8 <uart_getc_int+0x6c>
    857c:	e59f2048 	ldr	r2, [pc, #72]	; 85cc <uart_getc_int+0x70>
    8580:	e7932002 	ldr	r2, [r3, r2]
    8584:	e7933001 	ldr	r3, [r3, r1]
    8588:	e1520003 	cmp	r2, r3
    858c:	0a00000b 	beq	85c0 <uart_getc_int+0x64>
    8590:	e59f3030 	ldr	r3, [pc, #48]	; 85c8 <uart_getc_int+0x6c>
    8594:	e1a02001 	mov	r2, r1
    8598:	e7931001 	ldr	r1, [r3, r1]
    859c:	e7d30001 	ldrb	r0, [r3, r1]
    85a0:	e6ef0070 	uxtb	r0, r0
    85a4:	e2811001 	add	r1, r1, #1
    85a8:	e1a01981 	lsl	r1, r1, #19
    85ac:	e1a019a1 	lsr	r1, r1, #19
    85b0:	e7831002 	str	r1, [r3, r2]
    85b4:	e12fff1e 	bx	lr
    85b8:	e3a00082 	mov	r0, #130	; 0x82
    85bc:	e12fff1e 	bx	lr
    85c0:	e3a00082 	mov	r0, #130	; 0x82
    85c4:	e12fff1e 	bx	lr
    85c8:	0000a4e4 	andeq	sl, r0, r4, ror #9
    85cc:	00002004 	andeq	r2, r0, r4
    85d0:	00002008 	andeq	r2, r0, r8

000085d4 <notmain>:
    85d4:	e92d4070 	push	{r4, r5, r6, lr}
    85d8:	e24dd018 	sub	sp, sp, #24
    85dc:	e28d5008 	add	r5, sp, #8
    85e0:	e59f3170 	ldr	r3, [pc, #368]	; 8758 <notmain+0x184>
    85e4:	e58d3000 	str	r3, [sp]
    85e8:	e1a00005 	mov	r0, r5
    85ec:	e3a01015 	mov	r1, #21
    85f0:	e3a02014 	mov	r2, #20
    85f4:	e59f3160 	ldr	r3, [pc, #352]	; 875c <notmain+0x188>
    85f8:	eb0004b7 	bl	98dc <sw_uart_init_helper>
    85fc:	e59f415c 	ldr	r4, [pc, #348]	; 8760 <notmain+0x18c>
    8600:	e8950007 	ldm	r5, {r0, r1, r2}
    8604:	e8840007 	stm	r4, {r0, r1, r2}
    8608:	e1a00004 	mov	r0, r4
    860c:	e3a01052 	mov	r1, #82	; 0x52
    8610:	eb0003a9 	bl	94bc <sw_uart_putc>
    8614:	e1a00004 	mov	r0, r4
    8618:	e3a01045 	mov	r1, #69	; 0x45
    861c:	eb0003a6 	bl	94bc <sw_uart_putc>
    8620:	e1a00004 	mov	r0, r4
    8624:	e3a01041 	mov	r1, #65	; 0x41
    8628:	eb0003a3 	bl	94bc <sw_uart_putc>
    862c:	e1a00004 	mov	r0, r4
    8630:	e3a01044 	mov	r1, #68	; 0x44
    8634:	eb0003a0 	bl	94bc <sw_uart_putc>
    8638:	e1a00004 	mov	r0, r4
    863c:	e3a01059 	mov	r1, #89	; 0x59
    8640:	eb00039d 	bl	94bc <sw_uart_putc>
    8644:	e1a00004 	mov	r0, r4
    8648:	e3a0100a 	mov	r1, #10
    864c:	eb00039a 	bl	94bc <sw_uart_putc>
    8650:	eb000570 	bl	9c18 <int_init>
    8654:	ebfffef0 	bl	821c <uart_init_int>
    8658:	eb0001ab 	bl	8d0c <enable_cache>
    865c:	e59f0100 	ldr	r0, [pc, #256]	; 8764 <notmain+0x190>
    8660:	e3a01001 	mov	r1, #1
    8664:	ebfffe69 	bl	8010 <cq_init>
    8668:	e59f00f8 	ldr	r0, [pc, #248]	; 8768 <notmain+0x194>
    866c:	e3a01001 	mov	r1, #1
    8670:	ebfffe66 	bl	8010 <cq_init>
    8674:	e59f00f0 	ldr	r0, [pc, #240]	; 876c <notmain+0x198>
    8678:	e3a0100d 	mov	r1, #13
    867c:	eb0005df 	bl	9e00 <put32>
    8680:	eb0005d8 	bl	9de8 <dev_barrier>
    8684:	eb0005f0 	bl	9e4c <system_enable_interrupts>
    8688:	eb0005d6 	bl	9de8 <dev_barrier>
    868c:	e3a00054 	mov	r0, #84	; 0x54
    8690:	ebffff25 	bl	832c <uart_putc_int>
    8694:	e3a00059 	mov	r0, #89	; 0x59
    8698:	ebffff23 	bl	832c <uart_putc_int>
    869c:	e3a00050 	mov	r0, #80	; 0x50
    86a0:	ebffff21 	bl	832c <uart_putc_int>
    86a4:	e3a00045 	mov	r0, #69	; 0x45
    86a8:	ebffff1f 	bl	832c <uart_putc_int>
    86ac:	e3a00020 	mov	r0, #32
    86b0:	ebffff1d 	bl	832c <uart_putc_int>
    86b4:	e3a00048 	mov	r0, #72	; 0x48
    86b8:	ebffff1b 	bl	832c <uart_putc_int>
    86bc:	e3a00045 	mov	r0, #69	; 0x45
    86c0:	ebffff19 	bl	832c <uart_putc_int>
    86c4:	e3a00052 	mov	r0, #82	; 0x52
    86c8:	ebffff17 	bl	832c <uart_putc_int>
    86cc:	e3a00045 	mov	r0, #69	; 0x45
    86d0:	ebffff15 	bl	832c <uart_putc_int>
    86d4:	e3a0000a 	mov	r0, #10
    86d8:	ebffff13 	bl	832c <uart_putc_int>
    86dc:	eb0005c1 	bl	9de8 <dev_barrier>
    86e0:	e1a00004 	mov	r0, r4
    86e4:	e3a01052 	mov	r1, #82	; 0x52
    86e8:	eb000373 	bl	94bc <sw_uart_putc>
    86ec:	e1a00004 	mov	r0, r4
    86f0:	e3a01045 	mov	r1, #69	; 0x45
    86f4:	eb000370 	bl	94bc <sw_uart_putc>
    86f8:	e1a00004 	mov	r0, r4
    86fc:	e3a01041 	mov	r1, #65	; 0x41
    8700:	eb00036d 	bl	94bc <sw_uart_putc>
    8704:	e1a00004 	mov	r0, r4
    8708:	e3a01044 	mov	r1, #68	; 0x44
    870c:	eb00036a 	bl	94bc <sw_uart_putc>
    8710:	e1a00004 	mov	r0, r4
    8714:	e3a0100a 	mov	r1, #10
    8718:	eb000367 	bl	94bc <sw_uart_putc>
    871c:	eb0005b1 	bl	9de8 <dev_barrier>
    8720:	e3a06023 	mov	r6, #35	; 0x23
    8724:	e1a05004 	mov	r5, r4
    8728:	ebffff8b 	bl	855c <uart_getc_int>
    872c:	e1a04000 	mov	r4, r0
    8730:	eb0005ac 	bl	9de8 <dev_barrier>
    8734:	e3540082 	cmp	r4, #130	; 0x82
    8738:	0afffffa 	beq	8728 <notmain+0x154>
    873c:	e1a00006 	mov	r0, r6
    8740:	ebfffef9 	bl	832c <uart_putc_int>
    8744:	eb0005a7 	bl	9de8 <dev_barrier>
    8748:	e1a00005 	mov	r0, r5
    874c:	e1a01004 	mov	r1, r4
    8750:	eb000359 	bl	94bc <sw_uart_putc>
    8754:	eafffff3 	b	8728 <notmain+0x154>
    8758:	000017bc 			; <UNDEFINED> instruction: 0x000017bc
    875c:	0001c200 	andeq	ip, r1, r0, lsl #4
    8760:	0000e510 	andeq	lr, r0, r0, lsl r5
    8764:	0000a4e4 	andeq	sl, r0, r4, ror #9
    8768:	0000c4f8 	strdeq	ip, [r0], -r8
    876c:	20215040 	eorcs	r5, r1, r0, asr #32

00008770 <memset>:
    8770:	e0802002 	add	r2, r0, r2
    8774:	e1a03000 	mov	r3, r0
    8778:	ea000001 	b	8784 <memset+0x14>
    877c:	e5c31000 	strb	r1, [r3]
    8780:	e2833001 	add	r3, r3, #1
    8784:	e1530002 	cmp	r3, r2
    8788:	3afffffb 	bcc	877c <memset+0xc>
    878c:	e12fff1e 	bx	lr

00008790 <printk>:
    8790:	e92d000f 	push	{r0, r1, r2, r3}
    8794:	e92d4030 	push	{r4, r5, lr}
    8798:	e24dd00c 	sub	sp, sp, #12
    879c:	e28d301c 	add	r3, sp, #28
    87a0:	e58d3004 	str	r3, [sp, #4]
    87a4:	e59f4034 	ldr	r4, [pc, #52]	; 87e0 <printk+0x50>
    87a8:	e1a00004 	mov	r0, r4
    87ac:	e3a01b01 	mov	r1, #1024	; 0x400
    87b0:	e59d2018 	ldr	r2, [sp, #24]
    87b4:	eb0000b2 	bl	8a84 <va_printk>
    87b8:	e1a05000 	mov	r5, r0
    87bc:	e59f3020 	ldr	r3, [pc, #32]	; 87e4 <printk+0x54>
    87c0:	e5933000 	ldr	r3, [r3]
    87c4:	e1a00004 	mov	r0, r4
    87c8:	e12fff33 	blx	r3
    87cc:	e1a00005 	mov	r0, r5
    87d0:	e28dd00c 	add	sp, sp, #12
    87d4:	e8bd4030 	pop	{r4, r5, lr}
    87d8:	e28dd010 	add	sp, sp, #16
    87dc:	e12fff1e 	bx	lr
    87e0:	0000e530 	andeq	lr, r0, r0, lsr r5
    87e4:	00009f88 	andeq	r9, r0, r8, lsl #31

000087e8 <internal_putk>:
    87e8:	e92d4038 	push	{r3, r4, r5, lr}
    87ec:	e1a04000 	mov	r4, r0
    87f0:	e59f5020 	ldr	r5, [pc, #32]	; 8818 <internal_putk+0x30>
    87f4:	ea000002 	b	8804 <internal_putk+0x1c>
    87f8:	e5953000 	ldr	r3, [r5]
    87fc:	e12fff33 	blx	r3
    8800:	e2844001 	add	r4, r4, #1
    8804:	e5d40000 	ldrb	r0, [r4]
    8808:	e3500000 	cmp	r0, #0
    880c:	1afffff9 	bne	87f8 <internal_putk+0x10>
    8810:	e3a00001 	mov	r0, #1
    8814:	e8bd8038 	pop	{r3, r4, r5, pc}
    8818:	0000a020 	andeq	sl, r0, r0, lsr #32

0000881c <isdigit>:
    881c:	e2400030 	sub	r0, r0, #48	; 0x30
    8820:	e3500009 	cmp	r0, #9
    8824:	83a00000 	movhi	r0, #0
    8828:	93a00001 	movls	r0, #1
    882c:	e12fff1e 	bx	lr

00008830 <pad>:
    8830:	e0611000 	rsb	r1, r1, r0
    8834:	e3a03020 	mov	r3, #32
    8838:	ea000002 	b	8848 <pad+0x18>
    883c:	e5c03000 	strb	r3, [r0]
    8840:	e2811001 	add	r1, r1, #1
    8844:	e2800001 	add	r0, r0, #1
    8848:	e1510002 	cmp	r1, r2
    884c:	bafffffa 	blt	883c <pad+0xc>
    8850:	e3a03000 	mov	r3, #0
    8854:	e5c03000 	strb	r3, [r0]
    8858:	e12fff1e 	bx	lr

0000885c <reverse>:
    885c:	e063c002 	rsb	ip, r3, r2
    8860:	e28cc001 	add	ip, ip, #1
    8864:	e15c0001 	cmp	ip, r1
    8868:	c061100c 	rsbgt	r1, r1, ip
    886c:	c0833001 	addgt	r3, r3, r1
    8870:	e2422001 	sub	r2, r2, #1
    8874:	e1a01000 	mov	r1, r0
    8878:	ea000002 	b	8888 <reverse+0x2c>
    887c:	e452c001 	ldrb	ip, [r2], #-1
    8880:	e5c1c000 	strb	ip, [r1]
    8884:	e2811001 	add	r1, r1, #1
    8888:	e1520003 	cmp	r2, r3
    888c:	2afffffa 	bcs	887c <reverse+0x20>
    8890:	e3a03000 	mov	r3, #0
    8894:	e5c13000 	strb	r3, [r1]
    8898:	e12fff1e 	bx	lr

0000889c <emit>:
    889c:	e92d41f0 	push	{r4, r5, r6, r7, r8, lr}
    88a0:	e24dd040 	sub	sp, sp, #64	; 0x40
    88a4:	e1a05001 	mov	r5, r1
    88a8:	e1a04002 	mov	r4, r2
    88ac:	e59d2058 	ldr	r2, [sp, #88]	; 0x58
    88b0:	e1520004 	cmp	r2, r4
    88b4:	c2442001 	subgt	r2, r4, #1
    88b8:	e1a0c003 	mov	ip, r3
    88bc:	e2400002 	sub	r0, r0, #2
    88c0:	e350000e 	cmp	r0, #14
    88c4:	979ff100 	ldrls	pc, [pc, r0, lsl #2]
    88c8:	ea000042 	b	89d8 <emit+0x13c>
    88cc:	000089b0 			; <UNDEFINED> instruction: 0x000089b0
    88d0:	000089d8 	ldrdeq	r8, [r0], -r8	; <UNPREDICTABLE>
    88d4:	000089d8 	ldrdeq	r8, [r0], -r8	; <UNPREDICTABLE>
    88d8:	000089d8 	ldrdeq	r8, [r0], -r8	; <UNPREDICTABLE>
    88dc:	000089d8 	ldrdeq	r8, [r0], -r8	; <UNPREDICTABLE>
    88e0:	000089d8 	ldrdeq	r8, [r0], -r8	; <UNPREDICTABLE>
    88e4:	000089a4 	andeq	r8, r0, r4, lsr #19
    88e8:	000089d8 	ldrdeq	r8, [r0], -r8	; <UNPREDICTABLE>
    88ec:	00008908 	andeq	r8, r0, r8, lsl #18
    88f0:	000089d8 	ldrdeq	r8, [r0], -r8	; <UNPREDICTABLE>
    88f4:	000089d8 	ldrdeq	r8, [r0], -r8	; <UNPREDICTABLE>
    88f8:	000089d8 	ldrdeq	r8, [r0], -r8	; <UNPREDICTABLE>
    88fc:	000089d8 	ldrdeq	r8, [r0], -r8	; <UNPREDICTABLE>
    8900:	000089d8 	ldrdeq	r8, [r0], -r8	; <UNPREDICTABLE>
    8904:	0000897c 	andeq	r8, r0, ip, ror r9
    8908:	e59d105c 	ldr	r1, [sp, #92]	; 0x5c
    890c:	e2911000 	adds	r1, r1, #0
    8910:	13a01001 	movne	r1, #1
    8914:	e0111fa3 	ands	r1, r1, r3, lsr #31
    8918:	1263c000 	rsbne	ip, r3, #0
    891c:	13a08001 	movne	r8, #1
    8920:	03a08000 	moveq	r8, #0
    8924:	e1a0100d 	mov	r1, sp
    8928:	e59f70e8 	ldr	r7, [pc, #232]	; 8a18 <emit+0x17c>
    892c:	e59f60e8 	ldr	r6, [pc, #232]	; 8a1c <emit+0x180>
    8930:	ea000000 	b	8938 <emit+0x9c>
    8934:	e1a01003 	mov	r1, r3
    8938:	e2813001 	add	r3, r1, #1
    893c:	e08e0c97 	umull	r0, lr, r7, ip
    8940:	e1a0e1ae 	lsr	lr, lr, #3
    8944:	e1a0000e 	mov	r0, lr
    8948:	e08ee10e 	add	lr, lr, lr, lsl #2
    894c:	e1a0e08e 	lsl	lr, lr, #1
    8950:	e06ee00c 	rsb	lr, lr, ip
    8954:	e7d6c00e 	ldrb	ip, [r6, lr]
    8958:	e5c1c000 	strb	ip, [r1]
    895c:	e1a0c000 	mov	ip, r0
    8960:	e3500000 	cmp	r0, #0
    8964:	1afffff2 	bne	8934 <emit+0x98>
    8968:	e3580000 	cmp	r8, #0
    896c:	12813002 	addne	r3, r1, #2
    8970:	13a0002d 	movne	r0, #45	; 0x2d
    8974:	15c10001 	strbne	r0, [r1, #1]
    8978:	ea00001c 	b	89f0 <emit+0x154>
    897c:	e1a0e00d 	mov	lr, sp
    8980:	e59f0098 	ldr	r0, [pc, #152]	; 8a20 <emit+0x184>
    8984:	e28e3001 	add	r3, lr, #1
    8988:	e20c100f 	and	r1, ip, #15
    898c:	e7d01001 	ldrb	r1, [r0, r1]
    8990:	e5ce1000 	strb	r1, [lr]
    8994:	e1a0e003 	mov	lr, r3
    8998:	e1b0c22c 	lsrs	ip, ip, #4
    899c:	1afffff8 	bne	8984 <emit+0xe8>
    89a0:	ea000012 	b	89f0 <emit+0x154>
    89a4:	e5cd3000 	strb	r3, [sp]
    89a8:	e28d3001 	add	r3, sp, #1
    89ac:	ea00000f 	b	89f0 <emit+0x154>
    89b0:	e1a0e00d 	mov	lr, sp
    89b4:	e59f0068 	ldr	r0, [pc, #104]	; 8a24 <emit+0x188>
    89b8:	e28e3001 	add	r3, lr, #1
    89bc:	e20c1001 	and	r1, ip, #1
    89c0:	e7d01001 	ldrb	r1, [r0, r1]
    89c4:	e5ce1000 	strb	r1, [lr]
    89c8:	e1a0e003 	mov	lr, r3
    89cc:	e1b0c0ac 	lsrs	ip, ip, #1
    89d0:	1afffff8 	bne	89b8 <emit+0x11c>
    89d4:	ea000005 	b	89f0 <emit+0x154>
    89d8:	e59f0048 	ldr	r0, [pc, #72]	; 8a28 <emit+0x18c>
    89dc:	e59f1048 	ldr	r1, [pc, #72]	; 8a2c <emit+0x190>
    89e0:	e59f2048 	ldr	r2, [pc, #72]	; 8a30 <emit+0x194>
    89e4:	e3a03075 	mov	r3, #117	; 0x75
    89e8:	ebffff68 	bl	8790 <printk>
    89ec:	eb0000ce 	bl	8d2c <clean_reboot>
    89f0:	e1a00003 	mov	r0, r3
    89f4:	e1a0100d 	mov	r1, sp
    89f8:	ebffff8c 	bl	8830 <pad>
    89fc:	e1a02000 	mov	r2, r0
    8a00:	e1a00005 	mov	r0, r5
    8a04:	e1a01004 	mov	r1, r4
    8a08:	e1a0300d 	mov	r3, sp
    8a0c:	ebffff92 	bl	885c <reverse>
    8a10:	e28dd040 	add	sp, sp, #64	; 0x40
    8a14:	e8bd81f0 	pop	{r4, r5, r6, r7, r8, pc}
    8a18:	cccccccd 	stclgt	12, cr12, [ip], {205}	; 0xcd
    8a1c:	0000a160 	andeq	sl, r0, r0, ror #2
    8a20:	0000a16c 	andeq	sl, r0, ip, ror #2
    8a24:	0000a180 	andeq	sl, r0, r0, lsl #3
    8a28:	0000a138 	andeq	sl, r0, r8, lsr r1
    8a2c:	0000a14c 	andeq	sl, r0, ip, asr #2
    8a30:	0000a114 	andeq	sl, r0, r4, lsl r1

00008a34 <rpi_set_output>:
    8a34:	e92d4008 	push	{r3, lr}
    8a38:	e3500000 	cmp	r0, #0
    8a3c:	1a000005 	bne	8a58 <rpi_set_output+0x24>
    8a40:	e59f0028 	ldr	r0, [pc, #40]	; 8a70 <rpi_set_output+0x3c>
    8a44:	e59f1028 	ldr	r1, [pc, #40]	; 8a74 <rpi_set_output+0x40>
    8a48:	e59f2028 	ldr	r2, [pc, #40]	; 8a78 <rpi_set_output+0x44>
    8a4c:	e3a03020 	mov	r3, #32
    8a50:	ebffff4e 	bl	8790 <printk>
    8a54:	eb0000b4 	bl	8d2c <clean_reboot>
    8a58:	e59f301c 	ldr	r3, [pc, #28]	; 8a7c <rpi_set_output+0x48>
    8a5c:	e5830000 	str	r0, [r3]
    8a60:	e3510000 	cmp	r1, #0
    8a64:	159f3014 	ldrne	r3, [pc, #20]	; 8a80 <rpi_set_output+0x4c>
    8a68:	15831000 	strne	r1, [r3]
    8a6c:	e8bd8008 	pop	{r3, pc}
    8a70:	0000a184 	andeq	sl, r0, r4, lsl #3
    8a74:	0000a14c 	andeq	sl, r0, ip, asr #2
    8a78:	0000a11c 	andeq	sl, r0, ip, lsl r1
    8a7c:	0000a020 	andeq	sl, r0, r0, lsr #32
    8a80:	00009f88 	andeq	r9, r0, r8, lsl #31

00008a84 <va_printk>:
    8a84:	e92d4ff0 	push	{r4, r5, r6, r7, r8, r9, sl, fp, lr}
    8a88:	e24dd08c 	sub	sp, sp, #140	; 0x8c
    8a8c:	e1a0b000 	mov	fp, r0
    8a90:	e1a0a003 	mov	sl, r3
    8a94:	e2411001 	sub	r1, r1, #1
    8a98:	e0808001 	add	r8, r0, r1
    8a9c:	e3a03000 	mov	r3, #0
    8aa0:	e5c03000 	strb	r3, [r0]
    8aa4:	e1a04000 	mov	r4, r0
    8aa8:	ea000087 	b	8ccc <va_printk+0x248>
    8aac:	e3530025 	cmp	r3, #37	; 0x25
    8ab0:	12822001 	addne	r2, r2, #1
    8ab4:	15c43000 	strbne	r3, [r4]
    8ab8:	12844001 	addne	r4, r4, #1
    8abc:	1a000082 	bne	8ccc <va_printk+0x248>
    8ac0:	e5d21001 	ldrb	r1, [r2, #1]
    8ac4:	e3510025 	cmp	r1, #37	; 0x25
    8ac8:	05c43000 	strbeq	r3, [r4]
    8acc:	02822002 	addeq	r2, r2, #2
    8ad0:	02844001 	addeq	r4, r4, #1
    8ad4:	0a00007c 	beq	8ccc <va_printk+0x248>
    8ad8:	e2826001 	add	r6, r2, #1
    8adc:	e3a07000 	mov	r7, #0
    8ae0:	ea000004 	b	8af8 <va_printk+0x74>
    8ae4:	e0877107 	add	r7, r7, r7, lsl #2
    8ae8:	e1a07087 	lsl	r7, r7, #1
    8aec:	e0877005 	add	r7, r7, r5
    8af0:	e2477030 	sub	r7, r7, #48	; 0x30
    8af4:	e2866001 	add	r6, r6, #1
    8af8:	e5d65000 	ldrb	r5, [r6]
    8afc:	e1a09005 	mov	r9, r5
    8b00:	e1a00005 	mov	r0, r5
    8b04:	ebffff44 	bl	881c <isdigit>
    8b08:	e3500000 	cmp	r0, #0
    8b0c:	1afffff4 	bne	8ae4 <va_printk+0x60>
    8b10:	e357001f 	cmp	r7, #31
    8b14:	9a000005 	bls	8b30 <va_printk+0xac>
    8b18:	e59f01d8 	ldr	r0, [pc, #472]	; 8cf8 <va_printk+0x274>
    8b1c:	e59f11d8 	ldr	r1, [pc, #472]	; 8cfc <va_printk+0x278>
    8b20:	e59f21d8 	ldr	r2, [pc, #472]	; 8d00 <va_printk+0x27c>
    8b24:	e3a03092 	mov	r3, #146	; 0x92
    8b28:	ebffff18 	bl	8790 <printk>
    8b2c:	eb00007e 	bl	8d2c <clean_reboot>
    8b30:	e2455062 	sub	r5, r5, #98	; 0x62
    8b34:	e3550016 	cmp	r5, #22
    8b38:	979ff105 	ldrls	pc, [pc, r5, lsl #2]
    8b3c:	ea000051 	b	8c88 <va_printk+0x204>
    8b40:	00008c2c 	andeq	r8, r0, ip, lsr #24
    8b44:	00008c60 	andeq	r8, r0, r0, ror #24
    8b48:	00008bb4 			; <UNDEFINED> instruction: 0x00008bb4
    8b4c:	00008c88 	andeq	r8, r0, r8, lsl #25
    8b50:	00008b9c 	muleq	r0, ip, fp
    8b54:	00008c88 	andeq	r8, r0, r8, lsl #25
    8b58:	00008c88 	andeq	r8, r0, r8, lsl #25
    8b5c:	00008c88 	andeq	r8, r0, r8, lsl #25
    8b60:	00008c88 	andeq	r8, r0, r8, lsl #25
    8b64:	00008c88 	andeq	r8, r0, r8, lsl #25
    8b68:	00008c88 	andeq	r8, r0, r8, lsl #25
    8b6c:	00008c88 	andeq	r8, r0, r8, lsl #25
    8b70:	00008c88 	andeq	r8, r0, r8, lsl #25
    8b74:	00008c88 	andeq	r8, r0, r8, lsl #25
    8b78:	00008c04 	andeq	r8, r0, r4, lsl #24
    8b7c:	00008c88 	andeq	r8, r0, r8, lsl #25
    8b80:	00008c88 	andeq	r8, r0, r8, lsl #25
    8b84:	00008c54 	andeq	r8, r0, r4, asr ip
    8b88:	00008c88 	andeq	r8, r0, r8, lsl #25
    8b8c:	00008bdc 	ldrdeq	r8, [r0], -ip
    8b90:	00008c88 	andeq	r8, r0, r8, lsl #25
    8b94:	00008c88 	andeq	r8, r0, r8, lsl #25
    8b98:	00008c04 	andeq	r8, r0, r4, lsl #24
    8b9c:	e59f0160 	ldr	r0, [pc, #352]	; 8d04 <va_printk+0x280>
    8ba0:	e59f1154 	ldr	r1, [pc, #340]	; 8cfc <va_printk+0x278>
    8ba4:	e59f2154 	ldr	r2, [pc, #340]	; 8d00 <va_printk+0x27c>
    8ba8:	e3a03098 	mov	r3, #152	; 0x98
    8bac:	ebfffef7 	bl	8790 <printk>
    8bb0:	eb00005d 	bl	8d2c <clean_reboot>
    8bb4:	e59a3000 	ldr	r3, [sl]
    8bb8:	e28aa004 	add	sl, sl, #4
    8bbc:	e58d7000 	str	r7, [sp]
    8bc0:	e3a02001 	mov	r2, #1
    8bc4:	e58d2004 	str	r2, [sp, #4]
    8bc8:	e3a0000a 	mov	r0, #10
    8bcc:	e28d1008 	add	r1, sp, #8
    8bd0:	e3a02080 	mov	r2, #128	; 0x80
    8bd4:	ebffff30 	bl	889c <emit>
    8bd8:	ea000031 	b	8ca4 <va_printk+0x220>
    8bdc:	e59a3000 	ldr	r3, [sl]
    8be0:	e28aa004 	add	sl, sl, #4
    8be4:	e58d7000 	str	r7, [sp]
    8be8:	e3a02000 	mov	r2, #0
    8bec:	e58d2004 	str	r2, [sp, #4]
    8bf0:	e3a0000a 	mov	r0, #10
    8bf4:	e28d1008 	add	r1, sp, #8
    8bf8:	e3a02080 	mov	r2, #128	; 0x80
    8bfc:	ebffff26 	bl	889c <emit>
    8c00:	ea000027 	b	8ca4 <va_printk+0x220>
    8c04:	e59a3000 	ldr	r3, [sl]
    8c08:	e28aa004 	add	sl, sl, #4
    8c0c:	e58d7000 	str	r7, [sp]
    8c10:	e3a02000 	mov	r2, #0
    8c14:	e58d2004 	str	r2, [sp, #4]
    8c18:	e3a00010 	mov	r0, #16
    8c1c:	e28d1008 	add	r1, sp, #8
    8c20:	e3a02080 	mov	r2, #128	; 0x80
    8c24:	ebffff1c 	bl	889c <emit>
    8c28:	ea00001d 	b	8ca4 <va_printk+0x220>
    8c2c:	e59a3000 	ldr	r3, [sl]
    8c30:	e28aa004 	add	sl, sl, #4
    8c34:	e58d7000 	str	r7, [sp]
    8c38:	e3a02000 	mov	r2, #0
    8c3c:	e58d2004 	str	r2, [sp, #4]
    8c40:	e3a00002 	mov	r0, #2
    8c44:	e28d1008 	add	r1, sp, #8
    8c48:	e3a02080 	mov	r2, #128	; 0x80
    8c4c:	ebffff12 	bl	889c <emit>
    8c50:	ea000013 	b	8ca4 <va_printk+0x220>
    8c54:	e59a0000 	ldr	r0, [sl]
    8c58:	e28aa004 	add	sl, sl, #4
    8c5c:	ea000010 	b	8ca4 <va_printk+0x220>
    8c60:	e59a3000 	ldr	r3, [sl]
    8c64:	e28aa004 	add	sl, sl, #4
    8c68:	e58d7000 	str	r7, [sp]
    8c6c:	e3a02000 	mov	r2, #0
    8c70:	e58d2004 	str	r2, [sp, #4]
    8c74:	e3a00008 	mov	r0, #8
    8c78:	e08d1000 	add	r1, sp, r0
    8c7c:	e3a02080 	mov	r2, #128	; 0x80
    8c80:	ebffff05 	bl	889c <emit>
    8c84:	ea000006 	b	8ca4 <va_printk+0x220>
    8c88:	e58d9000 	str	r9, [sp]
    8c8c:	e59f0074 	ldr	r0, [pc, #116]	; 8d08 <va_printk+0x284>
    8c90:	e59f1064 	ldr	r1, [pc, #100]	; 8cfc <va_printk+0x278>
    8c94:	e59f2064 	ldr	r2, [pc, #100]	; 8d00 <va_printk+0x27c>
    8c98:	e3a030b9 	mov	r3, #185	; 0xb9
    8c9c:	ebfffebb 	bl	8790 <printk>
    8ca0:	eb000021 	bl	8d2c <clean_reboot>
    8ca4:	e2862001 	add	r2, r6, #1
    8ca8:	ea000002 	b	8cb8 <va_printk+0x234>
    8cac:	e2800001 	add	r0, r0, #1
    8cb0:	e5c43000 	strb	r3, [r4]
    8cb4:	e2844001 	add	r4, r4, #1
    8cb8:	e1540008 	cmp	r4, r8
    8cbc:	2a000002 	bcs	8ccc <va_printk+0x248>
    8cc0:	e5d03000 	ldrb	r3, [r0]
    8cc4:	e3530000 	cmp	r3, #0
    8cc8:	1afffff7 	bne	8cac <va_printk+0x228>
    8ccc:	e5d23000 	ldrb	r3, [r2]
    8cd0:	e3530000 	cmp	r3, #0
    8cd4:	0a000001 	beq	8ce0 <va_printk+0x25c>
    8cd8:	e1540008 	cmp	r4, r8
    8cdc:	3affff72 	bcc	8aac <va_printk+0x28>
    8ce0:	e2840001 	add	r0, r4, #1
    8ce4:	e3a03000 	mov	r3, #0
    8ce8:	e5c43000 	strb	r3, [r4]
    8cec:	e06b0000 	rsb	r0, fp, r0
    8cf0:	e28dd08c 	add	sp, sp, #140	; 0x8c
    8cf4:	e8bd8ff0 	pop	{r4, r5, r6, r7, r8, r9, sl, fp, pc}
    8cf8:	0000a19c 	muleq	r0, ip, r1
    8cfc:	0000a14c 	andeq	sl, r0, ip, asr #2
    8d00:	0000a12c 	andeq	sl, r0, ip, lsr #2
    8d04:	0000a1b8 			; <UNDEFINED> instruction: 0x0000a1b8
    8d08:	0000a1e0 	andeq	sl, r0, r0, ror #3

00008d0c <enable_cache>:
    8d0c:	ee113f10 	mrc	15, 0, r3, cr1, cr0, {0}
    8d10:	e3833b06 	orr	r3, r3, #6144	; 0x1800
    8d14:	ee013f10 	mcr	15, 0, r3, cr1, cr0, {0}
    8d18:	e12fff1e 	bx	lr

00008d1c <disable_cache>:
    8d1c:	ee113f10 	mrc	15, 0, r3, cr1, cr0, {0}
    8d20:	e3c33b06 	bic	r3, r3, #6144	; 0x1800
    8d24:	ee013f10 	mcr	15, 0, r3, cr1, cr0, {0}
    8d28:	e12fff1e 	bx	lr

00008d2c <clean_reboot>:
    8d2c:	e92d4008 	push	{r3, lr}
    8d30:	e59f3014 	ldr	r3, [pc, #20]	; 8d4c <clean_reboot+0x20>
    8d34:	e5933000 	ldr	r3, [r3]
    8d38:	e59f0010 	ldr	r0, [pc, #16]	; 8d50 <clean_reboot+0x24>
    8d3c:	e12fff33 	blx	r3
    8d40:	e3a00064 	mov	r0, #100	; 0x64
    8d44:	eb000063 	bl	8ed8 <delay_ms>
    8d48:	eb000038 	bl	8e30 <rpi_reboot>
    8d4c:	00009f88 	andeq	r9, r0, r8, lsl #31
    8d50:	0000a218 	andeq	sl, r0, r8, lsl r2

00008d54 <internal_sw_putchar>:
    8d54:	e92d4010 	push	{r4, lr}
    8d58:	e1a04000 	mov	r4, r0
    8d5c:	e59f000c 	ldr	r0, [pc, #12]	; 8d70 <internal_sw_putchar+0x1c>
    8d60:	e6ef1074 	uxtb	r1, r4
    8d64:	eb0001d4 	bl	94bc <sw_uart_putc>
    8d68:	e1a00004 	mov	r0, r4
    8d6c:	e8bd8010 	pop	{r4, pc}
    8d70:	0000e930 	andeq	lr, r0, r0, lsr r9

00008d74 <_cstart>:
    8d74:	e92d4008 	push	{r3, lr}
    8d78:	e59f3068 	ldr	r3, [pc, #104]	; 8de8 <_cstart+0x74>
    8d7c:	e59f2068 	ldr	r2, [pc, #104]	; 8dec <_cstart+0x78>
    8d80:	e3a01000 	mov	r1, #0
    8d84:	ea000001 	b	8d90 <_cstart+0x1c>
    8d88:	e5831000 	str	r1, [r3]
    8d8c:	e2833004 	add	r3, r3, #4
    8d90:	e1530002 	cmp	r3, r2
    8d94:	3afffffb 	bcc	8d88 <_cstart+0x14>
    8d98:	eb000470 	bl	9f60 <cb_get_block>
    8d9c:	e3500000 	cmp	r0, #0
    8da0:	0a00000e 	beq	8de0 <_cstart+0x6c>
    8da4:	e5d02004 	ldrb	r2, [r0, #4]
    8da8:	e3520002 	cmp	r2, #2
    8dac:	1a00000b 	bne	8de0 <_cstart+0x6c>
    8db0:	e59f1038 	ldr	r1, [pc, #56]	; 8df0 <_cstart+0x7c>
    8db4:	e59f2038 	ldr	r2, [pc, #56]	; 8df4 <_cstart+0x80>
    8db8:	e5821000 	str	r1, [r2]
    8dbc:	e59fc034 	ldr	ip, [pc, #52]	; 8df8 <_cstart+0x84>
    8dc0:	e2803008 	add	r3, r0, #8
    8dc4:	e8930007 	ldm	r3, {r0, r1, r2}
    8dc8:	e88c0007 	stm	ip, {r0, r1, r2}
    8dcc:	e1a0000c 	mov	r0, ip
    8dd0:	e59f1024 	ldr	r1, [pc, #36]	; 8dfc <_cstart+0x88>
    8dd4:	eb000308 	bl	99fc <sw_uart_printk>
    8dd8:	e59f0020 	ldr	r0, [pc, #32]	; 8e00 <_cstart+0x8c>
    8ddc:	ebfffe6b 	bl	8790 <printk>
    8de0:	ebfffdfb 	bl	85d4 <notmain>
    8de4:	eb000011 	bl	8e30 <rpi_reboot>
    8de8:	0000a4e4 	andeq	sl, r0, r4, ror #9
    8dec:	0000e940 	andeq	lr, r0, r0, asr #18
    8df0:	00008d54 	andeq	r8, r0, r4, asr sp
    8df4:	0000a020 	andeq	sl, r0, r0, lsr #32
    8df8:	0000e930 	andeq	lr, r0, r0, lsr r9
    8dfc:	0000a224 	andeq	sl, r0, r4, lsr #4
    8e00:	0000a248 	andeq	sl, r0, r8, asr #4

00008e04 <at_user_level>:
    8e04:	e10f0000 	mrs	r0, CPSR
    8e08:	e200001f 	and	r0, r0, #31
    8e0c:	e3500010 	cmp	r0, #16
    8e10:	13a00000 	movne	r0, #0
    8e14:	03a00001 	moveq	r0, #1
    8e18:	e12fff1e 	bx	lr

00008e1c <set_user_level>:
    8e1c:	e10f3000 	mrs	r3, CPSR
    8e20:	e3c3301f 	bic	r3, r3, #31
    8e24:	e3833010 	orr	r3, r3, #16
    8e28:	e129f003 	msr	CPSR_fc, r3
    8e2c:	e12fff1e 	bx	lr

00008e30 <rpi_reboot>:
    8e30:	e92d4008 	push	{r3, lr}
    8e34:	ebfffff2 	bl	8e04 <at_user_level>
    8e38:	e3500000 	cmp	r0, #0
    8e3c:	0a000000 	beq	8e44 <rpi_reboot+0x14>
    8e40:	ebfffff5 	bl	8e1c <set_user_level>
    8e44:	e3a0001e 	mov	r0, #30
    8e48:	eb000022 	bl	8ed8 <delay_ms>
    8e4c:	e59f0014 	ldr	r0, [pc, #20]	; 8e68 <rpi_reboot+0x38>
    8e50:	e59f1014 	ldr	r1, [pc, #20]	; 8e6c <rpi_reboot+0x3c>
    8e54:	eb0003eb 	bl	9e08 <PUT32>
    8e58:	e59f0010 	ldr	r0, [pc, #16]	; 8e70 <rpi_reboot+0x40>
    8e5c:	e59f1010 	ldr	r1, [pc, #16]	; 8e74 <rpi_reboot+0x44>
    8e60:	eb0003e8 	bl	9e08 <PUT32>
    8e64:	eafffffe 	b	8e64 <rpi_reboot+0x34>
    8e68:	20100024 	andscs	r0, r0, r4, lsr #32
    8e6c:	5a000001 	bpl	8e78 <delay_cycles>
    8e70:	2010001c 	andscs	r0, r0, ip, lsl r0
    8e74:	5a000020 	bpl	8efc <delay_sec+0x10>

00008e78 <delay_cycles>:
    8e78:	ea000001 	b	8e84 <delay_cycles+0xc>
    8e7c:	e2811000 	add	r1, r1, #0
    8e80:	e1a00003 	mov	r0, r3
    8e84:	e2403001 	sub	r3, r0, #1
    8e88:	e3500000 	cmp	r0, #0
    8e8c:	1afffffa 	bne	8e7c <delay_cycles+0x4>
    8e90:	e12fff1e 	bx	lr

00008e94 <timer_get_usec_raw>:
    8e94:	e92d4008 	push	{r3, lr}
    8e98:	e59f0004 	ldr	r0, [pc, #4]	; 8ea4 <timer_get_usec_raw+0x10>
    8e9c:	eb0003e5 	bl	9e38 <GET32>
    8ea0:	e8bd8008 	pop	{r3, pc}
    8ea4:	20003004 	andcs	r3, r0, r4

00008ea8 <timer_get_usec>:
    8ea8:	e92d4008 	push	{r3, lr}
    8eac:	ebfffff8 	bl	8e94 <timer_get_usec_raw>
    8eb0:	e8bd8008 	pop	{r3, pc}

00008eb4 <delay_us>:
    8eb4:	e92d4038 	push	{r3, r4, r5, lr}
    8eb8:	e1a05000 	mov	r5, r0
    8ebc:	ebfffff9 	bl	8ea8 <timer_get_usec>
    8ec0:	e1a04000 	mov	r4, r0
    8ec4:	ebfffff7 	bl	8ea8 <timer_get_usec>
    8ec8:	e0640000 	rsb	r0, r4, r0
    8ecc:	e1500005 	cmp	r0, r5
    8ed0:	3afffffb 	bcc	8ec4 <delay_us+0x10>
    8ed4:	e8bd8038 	pop	{r3, r4, r5, pc}

00008ed8 <delay_ms>:
    8ed8:	e92d4008 	push	{r3, lr}
    8edc:	e3a03ffa 	mov	r3, #1000	; 0x3e8
    8ee0:	e0000093 	mul	r0, r3, r0
    8ee4:	ebfffff2 	bl	8eb4 <delay_us>
    8ee8:	e8bd8008 	pop	{r3, pc}

00008eec <delay_sec>:
    8eec:	e92d4008 	push	{r3, lr}
    8ef0:	e3a03ffa 	mov	r3, #1000	; 0x3e8
    8ef4:	e0000093 	mul	r0, r3, r0
    8ef8:	ebfffff6 	bl	8ed8 <delay_ms>
    8efc:	e8bd8008 	pop	{r3, pc}

00008f00 <gpio_set_output>:
    8f00:	e92d4038 	push	{r3, r4, r5, lr}
    8f04:	e1a04000 	mov	r4, r0
    8f08:	e350001f 	cmp	r0, #31
    8f0c:	88bd8038 	pophi	{r3, r4, r5, pc}
    8f10:	e59f30b4 	ldr	r3, [pc, #180]	; 8fcc <gpio_set_output+0xcc>
    8f14:	e0832093 	umull	r2, r3, r3, r0
    8f18:	e1a031a3 	lsr	r3, r3, #3
    8f1c:	e3530005 	cmp	r3, #5
    8f20:	979ff103 	ldrls	pc, [pc, r3, lsl #2]
    8f24:	ea000017 	b	8f88 <gpio_set_output+0x88>
    8f28:	00008f40 	andeq	r8, r0, r0, asr #30
    8f2c:	00008f4c 	andeq	r8, r0, ip, asr #30
    8f30:	00008f58 	andeq	r8, r0, r8, asr pc
    8f34:	00008f64 	andeq	r8, r0, r4, ror #30
    8f38:	00008f70 	andeq	r8, r0, r0, ror pc
    8f3c:	00008f7c 	andeq	r8, r0, ip, ror pc
    8f40:	e59f3088 	ldr	r3, [pc, #136]	; 8fd0 <gpio_set_output+0xd0>
    8f44:	e5935000 	ldr	r5, [r3]
    8f48:	ea00000f 	b	8f8c <gpio_set_output+0x8c>
    8f4c:	e59f307c 	ldr	r3, [pc, #124]	; 8fd0 <gpio_set_output+0xd0>
    8f50:	e5935004 	ldr	r5, [r3, #4]
    8f54:	ea00000c 	b	8f8c <gpio_set_output+0x8c>
    8f58:	e59f3070 	ldr	r3, [pc, #112]	; 8fd0 <gpio_set_output+0xd0>
    8f5c:	e5935008 	ldr	r5, [r3, #8]
    8f60:	ea000009 	b	8f8c <gpio_set_output+0x8c>
    8f64:	e59f3064 	ldr	r3, [pc, #100]	; 8fd0 <gpio_set_output+0xd0>
    8f68:	e593500c 	ldr	r5, [r3, #12]
    8f6c:	ea000006 	b	8f8c <gpio_set_output+0x8c>
    8f70:	e59f3058 	ldr	r3, [pc, #88]	; 8fd0 <gpio_set_output+0xd0>
    8f74:	e5935010 	ldr	r5, [r3, #16]
    8f78:	ea000003 	b	8f8c <gpio_set_output+0x8c>
    8f7c:	e59f304c 	ldr	r3, [pc, #76]	; 8fd0 <gpio_set_output+0xd0>
    8f80:	e5935014 	ldr	r5, [r3, #20]
    8f84:	ea000000 	b	8f8c <gpio_set_output+0x8c>
    8f88:	e3a05000 	mov	r5, #0
    8f8c:	e1a00005 	mov	r0, r5
    8f90:	eb0003a6 	bl	9e30 <get32>
    8f94:	e59f1030 	ldr	r1, [pc, #48]	; 8fcc <gpio_set_output+0xcc>
    8f98:	e0813491 	umull	r3, r1, r1, r4
    8f9c:	e1a011a1 	lsr	r1, r1, #3
    8fa0:	e0811101 	add	r1, r1, r1, lsl #2
    8fa4:	e1a01081 	lsl	r1, r1, #1
    8fa8:	e0611004 	rsb	r1, r1, r4
    8fac:	e0811081 	add	r1, r1, r1, lsl #1
    8fb0:	e3a03007 	mov	r3, #7
    8fb4:	e1c03113 	bic	r3, r0, r3, lsl r1
    8fb8:	e1a00005 	mov	r0, r5
    8fbc:	e3a02001 	mov	r2, #1
    8fc0:	e1831112 	orr	r1, r3, r2, lsl r1
    8fc4:	eb00038d 	bl	9e00 <put32>
    8fc8:	e8bd8038 	pop	{r3, r4, r5, pc}
    8fcc:	cccccccd 	stclgt	12, cr12, [ip], {205}	; 0xcd
    8fd0:	00009f8c 	andeq	r9, r0, ip, lsl #31

00008fd4 <gpio_set_on>:
    8fd4:	e92d4008 	push	{r3, lr}
    8fd8:	e350001f 	cmp	r0, #31
    8fdc:	88bd8008 	pophi	{r3, pc}
    8fe0:	959f3020 	ldrls	r3, [pc, #32]	; 9008 <gpio_set_on+0x34>
    8fe4:	95932018 	ldrls	r2, [r3, #24]
    8fe8:	859f3018 	ldrhi	r3, [pc, #24]	; 9008 <gpio_set_on+0x34>
    8fec:	8593201c 	ldrhi	r2, [r3, #28]
    8ff0:	e200301f 	and	r3, r0, #31
    8ff4:	e1a00002 	mov	r0, r2
    8ff8:	e3a01001 	mov	r1, #1
    8ffc:	e1a01311 	lsl	r1, r1, r3
    9000:	eb00037e 	bl	9e00 <put32>
    9004:	e8bd8008 	pop	{r3, pc}
    9008:	00009f8c 	andeq	r9, r0, ip, lsl #31

0000900c <gpio_set_off>:
    900c:	e92d4008 	push	{r3, lr}
    9010:	e350001f 	cmp	r0, #31
    9014:	88bd8008 	pophi	{r3, pc}
    9018:	959f3020 	ldrls	r3, [pc, #32]	; 9040 <gpio_set_off+0x34>
    901c:	95932020 	ldrls	r2, [r3, #32]
    9020:	859f3018 	ldrhi	r3, [pc, #24]	; 9040 <gpio_set_off+0x34>
    9024:	85932024 	ldrhi	r2, [r3, #36]	; 0x24
    9028:	e200301f 	and	r3, r0, #31
    902c:	e1a00002 	mov	r0, r2
    9030:	e3a01001 	mov	r1, #1
    9034:	e1a01311 	lsl	r1, r1, r3
    9038:	eb000370 	bl	9e00 <put32>
    903c:	e8bd8008 	pop	{r3, pc}
    9040:	00009f8c 	andeq	r9, r0, ip, lsl #31

00009044 <gpio_set_input>:
    9044:	e92d4038 	push	{r3, r4, r5, lr}
    9048:	e1a04000 	mov	r4, r0
    904c:	e350001f 	cmp	r0, #31
    9050:	88bd8038 	pophi	{r3, r4, r5, pc}
    9054:	e59f30ac 	ldr	r3, [pc, #172]	; 9108 <gpio_set_input+0xc4>
    9058:	e0832093 	umull	r2, r3, r3, r0
    905c:	e1a031a3 	lsr	r3, r3, #3
    9060:	e3530005 	cmp	r3, #5
    9064:	979ff103 	ldrls	pc, [pc, r3, lsl #2]
    9068:	ea000017 	b	90cc <gpio_set_input+0x88>
    906c:	00009084 	andeq	r9, r0, r4, lsl #1
    9070:	00009090 	muleq	r0, r0, r0
    9074:	0000909c 	muleq	r0, ip, r0
    9078:	000090a8 	andeq	r9, r0, r8, lsr #1
    907c:	000090b4 	strheq	r9, [r0], -r4
    9080:	000090c0 	andeq	r9, r0, r0, asr #1
    9084:	e59f3080 	ldr	r3, [pc, #128]	; 910c <gpio_set_input+0xc8>
    9088:	e5935000 	ldr	r5, [r3]
    908c:	ea00000f 	b	90d0 <gpio_set_input+0x8c>
    9090:	e59f3074 	ldr	r3, [pc, #116]	; 910c <gpio_set_input+0xc8>
    9094:	e5935004 	ldr	r5, [r3, #4]
    9098:	ea00000c 	b	90d0 <gpio_set_input+0x8c>
    909c:	e59f3068 	ldr	r3, [pc, #104]	; 910c <gpio_set_input+0xc8>
    90a0:	e5935008 	ldr	r5, [r3, #8]
    90a4:	ea000009 	b	90d0 <gpio_set_input+0x8c>
    90a8:	e59f305c 	ldr	r3, [pc, #92]	; 910c <gpio_set_input+0xc8>
    90ac:	e593500c 	ldr	r5, [r3, #12]
    90b0:	ea000006 	b	90d0 <gpio_set_input+0x8c>
    90b4:	e59f3050 	ldr	r3, [pc, #80]	; 910c <gpio_set_input+0xc8>
    90b8:	e5935010 	ldr	r5, [r3, #16]
    90bc:	ea000003 	b	90d0 <gpio_set_input+0x8c>
    90c0:	e59f3044 	ldr	r3, [pc, #68]	; 910c <gpio_set_input+0xc8>
    90c4:	e5935014 	ldr	r5, [r3, #20]
    90c8:	ea000000 	b	90d0 <gpio_set_input+0x8c>
    90cc:	e3a05000 	mov	r5, #0
    90d0:	e1a00005 	mov	r0, r5
    90d4:	eb000355 	bl	9e30 <get32>
    90d8:	e59f1028 	ldr	r1, [pc, #40]	; 9108 <gpio_set_input+0xc4>
    90dc:	e0813491 	umull	r3, r1, r1, r4
    90e0:	e1a011a1 	lsr	r1, r1, #3
    90e4:	e0811101 	add	r1, r1, r1, lsl #2
    90e8:	e1a01081 	lsl	r1, r1, #1
    90ec:	e0611004 	rsb	r1, r1, r4
    90f0:	e0811081 	add	r1, r1, r1, lsl #1
    90f4:	e3a03007 	mov	r3, #7
    90f8:	e1c01113 	bic	r1, r0, r3, lsl r1
    90fc:	e1a00005 	mov	r0, r5
    9100:	eb00033e 	bl	9e00 <put32>
    9104:	e8bd8038 	pop	{r3, r4, r5, pc}
    9108:	cccccccd 	stclgt	12, cr12, [ip], {205}	; 0xcd
    910c:	00009f8c 	andeq	r9, r0, ip, lsl #31

00009110 <gpio_read>:
    9110:	e92d4010 	push	{r4, lr}
    9114:	e1a04000 	mov	r4, r0
    9118:	e350001f 	cmp	r0, #31
    911c:	8a00000b 	bhi	9150 <gpio_read+0x40>
    9120:	8a000003 	bhi	9134 <gpio_read+0x24>
    9124:	e59f302c 	ldr	r3, [pc, #44]	; 9158 <gpio_read+0x48>
    9128:	e5930028 	ldr	r0, [r3, #40]	; 0x28
    912c:	eb00033f 	bl	9e30 <get32>
    9130:	ea000002 	b	9140 <gpio_read+0x30>
    9134:	e59f301c 	ldr	r3, [pc, #28]	; 9158 <gpio_read+0x48>
    9138:	e593002c 	ldr	r0, [r3, #44]	; 0x2c
    913c:	eb00033b 	bl	9e30 <get32>
    9140:	e204401f 	and	r4, r4, #31
    9144:	e3a03001 	mov	r3, #1
    9148:	e0000413 	and	r0, r0, r3, lsl r4
    914c:	e8bd8010 	pop	{r4, pc}
    9150:	e3e00000 	mvn	r0, #0
    9154:	e8bd8010 	pop	{r4, pc}
    9158:	00009f8c 	andeq	r9, r0, ip, lsl #31

0000915c <gpio_write>:
    915c:	e92d4008 	push	{r3, lr}
    9160:	e350001f 	cmp	r0, #31
    9164:	88bd8008 	pophi	{r3, pc}
    9168:	e3510000 	cmp	r1, #0
    916c:	0a00000b 	beq	91a0 <gpio_write+0x44>
    9170:	e350001f 	cmp	r0, #31
    9174:	88bd8008 	pophi	{r3, pc}
    9178:	959f3050 	ldrls	r3, [pc, #80]	; 91d0 <gpio_write+0x74>
    917c:	95932018 	ldrls	r2, [r3, #24]
    9180:	859f3048 	ldrhi	r3, [pc, #72]	; 91d0 <gpio_write+0x74>
    9184:	8593201c 	ldrhi	r2, [r3, #28]
    9188:	e200301f 	and	r3, r0, #31
    918c:	e1a00002 	mov	r0, r2
    9190:	e3a01001 	mov	r1, #1
    9194:	e1a01311 	lsl	r1, r1, r3
    9198:	eb000318 	bl	9e00 <put32>
    919c:	e8bd8008 	pop	{r3, pc}
    91a0:	e350001f 	cmp	r0, #31
    91a4:	88bd8008 	pophi	{r3, pc}
    91a8:	959f3020 	ldrls	r3, [pc, #32]	; 91d0 <gpio_write+0x74>
    91ac:	95932020 	ldrls	r2, [r3, #32]
    91b0:	859f3018 	ldrhi	r3, [pc, #24]	; 91d0 <gpio_write+0x74>
    91b4:	85932024 	ldrhi	r2, [r3, #36]	; 0x24
    91b8:	e200301f 	and	r3, r0, #31
    91bc:	e1a00002 	mov	r0, r2
    91c0:	e3a01001 	mov	r1, #1
    91c4:	e1a01311 	lsl	r1, r1, r3
    91c8:	eb00030c 	bl	9e00 <put32>
    91cc:	e8bd8008 	pop	{r3, pc}
    91d0:	00009f8c 	andeq	r9, r0, ip, lsl #31

000091d4 <gpio_set_function>:
    91d4:	e92d4070 	push	{r4, r5, r6, lr}
    91d8:	e1a04000 	mov	r4, r0
    91dc:	e1a05001 	mov	r5, r1
    91e0:	e3510007 	cmp	r1, #7
    91e4:	9350001f 	cmpls	r0, #31
    91e8:	88bd8070 	pophi	{r4, r5, r6, pc}
    91ec:	e59f30b0 	ldr	r3, [pc, #176]	; 92a4 <gpio_set_function+0xd0>
    91f0:	e0832093 	umull	r2, r3, r3, r0
    91f4:	e1a031a3 	lsr	r3, r3, #3
    91f8:	e3530005 	cmp	r3, #5
    91fc:	979ff103 	ldrls	pc, [pc, r3, lsl #2]
    9200:	ea000017 	b	9264 <gpio_set_function+0x90>
    9204:	0000921c 	andeq	r9, r0, ip, lsl r2
    9208:	00009228 	andeq	r9, r0, r8, lsr #4
    920c:	00009234 	andeq	r9, r0, r4, lsr r2
    9210:	00009240 	andeq	r9, r0, r0, asr #4
    9214:	0000924c 	andeq	r9, r0, ip, asr #4
    9218:	00009258 	andeq	r9, r0, r8, asr r2
    921c:	e59f3084 	ldr	r3, [pc, #132]	; 92a8 <gpio_set_function+0xd4>
    9220:	e5936000 	ldr	r6, [r3]
    9224:	ea00000f 	b	9268 <gpio_set_function+0x94>
    9228:	e59f3078 	ldr	r3, [pc, #120]	; 92a8 <gpio_set_function+0xd4>
    922c:	e5936004 	ldr	r6, [r3, #4]
    9230:	ea00000c 	b	9268 <gpio_set_function+0x94>
    9234:	e59f306c 	ldr	r3, [pc, #108]	; 92a8 <gpio_set_function+0xd4>
    9238:	e5936008 	ldr	r6, [r3, #8]
    923c:	ea000009 	b	9268 <gpio_set_function+0x94>
    9240:	e59f3060 	ldr	r3, [pc, #96]	; 92a8 <gpio_set_function+0xd4>
    9244:	e593600c 	ldr	r6, [r3, #12]
    9248:	ea000006 	b	9268 <gpio_set_function+0x94>
    924c:	e59f3054 	ldr	r3, [pc, #84]	; 92a8 <gpio_set_function+0xd4>
    9250:	e5936010 	ldr	r6, [r3, #16]
    9254:	ea000003 	b	9268 <gpio_set_function+0x94>
    9258:	e59f3048 	ldr	r3, [pc, #72]	; 92a8 <gpio_set_function+0xd4>
    925c:	e5936014 	ldr	r6, [r3, #20]
    9260:	ea000000 	b	9268 <gpio_set_function+0x94>
    9264:	e3a06000 	mov	r6, #0
    9268:	e1a00006 	mov	r0, r6
    926c:	eb0002ef 	bl	9e30 <get32>
    9270:	e59f302c 	ldr	r3, [pc, #44]	; 92a4 <gpio_set_function+0xd0>
    9274:	e0832493 	umull	r2, r3, r3, r4
    9278:	e1a031a3 	lsr	r3, r3, #3
    927c:	e0833103 	add	r3, r3, r3, lsl #2
    9280:	e1a03083 	lsl	r3, r3, #1
    9284:	e0633004 	rsb	r3, r3, r4
    9288:	e0833083 	add	r3, r3, r3, lsl #1
    928c:	e3a01007 	mov	r1, #7
    9290:	e1c01311 	bic	r1, r0, r1, lsl r3
    9294:	e1a00006 	mov	r0, r6
    9298:	e1811315 	orr	r1, r1, r5, lsl r3
    929c:	eb0002d7 	bl	9e00 <put32>
    92a0:	e8bd8070 	pop	{r4, r5, r6, pc}
    92a4:	cccccccd 	stclgt	12, cr12, [ip], {205}	; 0xcd
    92a8:	00009f8c 	andeq	r9, r0, ip, lsl #31

000092ac <is_gpio_int>:
    92ac:	e92d4008 	push	{r3, lr}
    92b0:	e59f301c 	ldr	r3, [pc, #28]	; 92d4 <is_gpio_int+0x28>
    92b4:	e5930030 	ldr	r0, [r3, #48]	; 0x30
    92b8:	eb0002dc 	bl	9e30 <get32>
    92bc:	e3500000 	cmp	r0, #0
    92c0:	0a000001 	beq	92cc <is_gpio_int+0x20>
    92c4:	e3a00001 	mov	r0, #1
    92c8:	e8bd8008 	pop	{r3, pc}
    92cc:	e3a00000 	mov	r0, #0
    92d0:	e8bd8008 	pop	{r3, pc}
    92d4:	00009f8c 	andeq	r9, r0, ip, lsl #31

000092d8 <gpio_int_rising_edge>:
    92d8:	e92d4038 	push	{r3, r4, r5, lr}
    92dc:	e1a04000 	mov	r4, r0
    92e0:	e350001f 	cmp	r0, #31
    92e4:	88bd8038 	pophi	{r3, r4, r5, pc}
    92e8:	eb0002be 	bl	9de8 <dev_barrier>
    92ec:	e354001f 	cmp	r4, #31
    92f0:	8a000007 	bhi	9314 <gpio_int_rising_edge+0x3c>
    92f4:	e59f505c 	ldr	r5, [pc, #92]	; 9358 <gpio_int_rising_edge+0x80>
    92f8:	e5950034 	ldr	r0, [r5, #52]	; 0x34
    92fc:	eb0002cb 	bl	9e30 <get32>
    9300:	e3a01001 	mov	r1, #1
    9304:	e1801411 	orr	r1, r0, r1, lsl r4
    9308:	e5950034 	ldr	r0, [r5, #52]	; 0x34
    930c:	eb0002bb 	bl	9e00 <put32>
    9310:	ea000007 	b	9334 <gpio_int_rising_edge+0x5c>
    9314:	e59f503c 	ldr	r5, [pc, #60]	; 9358 <gpio_int_rising_edge+0x80>
    9318:	e5950038 	ldr	r0, [r5, #56]	; 0x38
    931c:	eb0002c3 	bl	9e30 <get32>
    9320:	e204401f 	and	r4, r4, #31
    9324:	e3a01001 	mov	r1, #1
    9328:	e1801411 	orr	r1, r0, r1, lsl r4
    932c:	e5950038 	ldr	r0, [r5, #56]	; 0x38
    9330:	eb0002b2 	bl	9e00 <put32>
    9334:	eb0002ab 	bl	9de8 <dev_barrier>
    9338:	e59f4018 	ldr	r4, [pc, #24]	; 9358 <gpio_int_rising_edge+0x80>
    933c:	e594003c 	ldr	r0, [r4, #60]	; 0x3c
    9340:	eb0002ba 	bl	9e30 <get32>
    9344:	e3801802 	orr	r1, r0, #131072	; 0x20000
    9348:	e594003c 	ldr	r0, [r4, #60]	; 0x3c
    934c:	eb0002ab 	bl	9e00 <put32>
    9350:	eb0002a4 	bl	9de8 <dev_barrier>
    9354:	e8bd8038 	pop	{r3, r4, r5, pc}
    9358:	00009f8c 	andeq	r9, r0, ip, lsl #31

0000935c <gpio_int_falling_edge>:
    935c:	e92d4038 	push	{r3, r4, r5, lr}
    9360:	e1a04000 	mov	r4, r0
    9364:	e350001f 	cmp	r0, #31
    9368:	88bd8038 	pophi	{r3, r4, r5, pc}
    936c:	eb00029d 	bl	9de8 <dev_barrier>
    9370:	e354001f 	cmp	r4, #31
    9374:	8a000007 	bhi	9398 <gpio_int_falling_edge+0x3c>
    9378:	e59f505c 	ldr	r5, [pc, #92]	; 93dc <gpio_int_falling_edge+0x80>
    937c:	e5950040 	ldr	r0, [r5, #64]	; 0x40
    9380:	eb0002aa 	bl	9e30 <get32>
    9384:	e3a01001 	mov	r1, #1
    9388:	e1801411 	orr	r1, r0, r1, lsl r4
    938c:	e5950040 	ldr	r0, [r5, #64]	; 0x40
    9390:	eb00029a 	bl	9e00 <put32>
    9394:	ea000007 	b	93b8 <gpio_int_falling_edge+0x5c>
    9398:	e59f503c 	ldr	r5, [pc, #60]	; 93dc <gpio_int_falling_edge+0x80>
    939c:	e5950044 	ldr	r0, [r5, #68]	; 0x44
    93a0:	eb0002a2 	bl	9e30 <get32>
    93a4:	e204401f 	and	r4, r4, #31
    93a8:	e3a01001 	mov	r1, #1
    93ac:	e1801411 	orr	r1, r0, r1, lsl r4
    93b0:	e5950044 	ldr	r0, [r5, #68]	; 0x44
    93b4:	eb000291 	bl	9e00 <put32>
    93b8:	eb00028a 	bl	9de8 <dev_barrier>
    93bc:	e59f4018 	ldr	r4, [pc, #24]	; 93dc <gpio_int_falling_edge+0x80>
    93c0:	e594003c 	ldr	r0, [r4, #60]	; 0x3c
    93c4:	eb000299 	bl	9e30 <get32>
    93c8:	e3801601 	orr	r1, r0, #1048576	; 0x100000
    93cc:	e594003c 	ldr	r0, [r4, #60]	; 0x3c
    93d0:	eb00028a 	bl	9e00 <put32>
    93d4:	eb000283 	bl	9de8 <dev_barrier>
    93d8:	e8bd8038 	pop	{r3, r4, r5, pc}
    93dc:	00009f8c 	andeq	r9, r0, ip, lsl #31

000093e0 <gpio_event_detected>:
    93e0:	e92d4010 	push	{r4, lr}
    93e4:	e1a04000 	mov	r4, r0
    93e8:	e350001f 	cmp	r0, #31
    93ec:	8a000019 	bhi	9458 <gpio_event_detected+0x78>
    93f0:	eb00027c 	bl	9de8 <dev_barrier>
    93f4:	e354001f 	cmp	r4, #31
    93f8:	8a000008 	bhi	9420 <gpio_event_detected+0x40>
    93fc:	e59f305c 	ldr	r3, [pc, #92]	; 9460 <gpio_event_detected+0x80>
    9400:	e5930048 	ldr	r0, [r3, #72]	; 0x48
    9404:	eb000289 	bl	9e30 <get32>
    9408:	e3a03001 	mov	r3, #1
    940c:	e0103413 	ands	r3, r0, r3, lsl r4
    9410:	0a00000d 	beq	944c <gpio_event_detected+0x6c>
    9414:	eb000273 	bl	9de8 <dev_barrier>
    9418:	e3a00001 	mov	r0, #1
    941c:	e8bd8010 	pop	{r4, pc}
    9420:	e59f3038 	ldr	r3, [pc, #56]	; 9460 <gpio_event_detected+0x80>
    9424:	e593004c 	ldr	r0, [r3, #76]	; 0x4c
    9428:	eb000280 	bl	9e30 <get32>
    942c:	e3a03001 	mov	r3, #1
    9430:	e0004413 	and	r4, r0, r3, lsl r4
    9434:	eb00026b 	bl	9de8 <dev_barrier>
    9438:	e3540000 	cmp	r4, #0
    943c:	0a000002 	beq	944c <gpio_event_detected+0x6c>
    9440:	eb000268 	bl	9de8 <dev_barrier>
    9444:	e3a00001 	mov	r0, #1
    9448:	e8bd8010 	pop	{r4, pc}
    944c:	eb000265 	bl	9de8 <dev_barrier>
    9450:	e3a00000 	mov	r0, #0
    9454:	e8bd8010 	pop	{r4, pc}
    9458:	e3e00000 	mvn	r0, #0
    945c:	e8bd8010 	pop	{r4, pc}
    9460:	00009f8c 	andeq	r9, r0, ip, lsl #31

00009464 <gpio_event_clear>:
    9464:	e92d4010 	push	{r4, lr}
    9468:	e1a04000 	mov	r4, r0
    946c:	e350001f 	cmp	r0, #31
    9470:	88bd8010 	pophi	{r4, pc}
    9474:	eb00025b 	bl	9de8 <dev_barrier>
    9478:	e354001f 	cmp	r4, #31
    947c:	8a000005 	bhi	9498 <gpio_event_clear+0x34>
    9480:	e59f3030 	ldr	r3, [pc, #48]	; 94b8 <gpio_event_clear+0x54>
    9484:	e5930048 	ldr	r0, [r3, #72]	; 0x48
    9488:	e3a01001 	mov	r1, #1
    948c:	e1a01411 	lsl	r1, r1, r4
    9490:	eb00025a 	bl	9e00 <put32>
    9494:	ea000005 	b	94b0 <gpio_event_clear+0x4c>
    9498:	e204401f 	and	r4, r4, #31
    949c:	e59f3014 	ldr	r3, [pc, #20]	; 94b8 <gpio_event_clear+0x54>
    94a0:	e593004c 	ldr	r0, [r3, #76]	; 0x4c
    94a4:	e3a01001 	mov	r1, #1
    94a8:	e1a01411 	lsl	r1, r1, r4
    94ac:	eb000253 	bl	9e00 <put32>
    94b0:	eb00024c 	bl	9de8 <dev_barrier>
    94b4:	e8bd8010 	pop	{r4, pc}
    94b8:	00009f8c 	andeq	r9, r0, ip, lsl #31

000094bc <sw_uart_putc>:
    94bc:	e92d41f0 	push	{r4, r5, r6, r7, r8, lr}
    94c0:	e1a07001 	mov	r7, r1
    94c4:	e5d06000 	ldrb	r6, [r0]
    94c8:	e5905008 	ldr	r5, [r0, #8]
    94cc:	ee1f4f3c 	mrc	15, 0, r4, cr15, cr12, {1}
    94d0:	e1a00006 	mov	r0, r6
    94d4:	e3a01000 	mov	r1, #0
    94d8:	ebffff1f 	bl	915c <gpio_write>
    94dc:	ee1f3f3c 	mrc	15, 0, r3, cr15, cr12, {1}
    94e0:	e0643003 	rsb	r3, r4, r3
    94e4:	e1550003 	cmp	r5, r3
    94e8:	8afffffb 	bhi	94dc <sw_uart_putc+0x20>
    94ec:	e1a08085 	lsl	r8, r5, #1
    94f0:	e1a00006 	mov	r0, r6
    94f4:	e2071001 	and	r1, r7, #1
    94f8:	ebffff17 	bl	915c <gpio_write>
    94fc:	ee1f3f3c 	mrc	15, 0, r3, cr15, cr12, {1}
    9500:	e0643003 	rsb	r3, r4, r3
    9504:	e1580003 	cmp	r8, r3
    9508:	8afffffb 	bhi	94fc <sw_uart_putc+0x40>
    950c:	e0888005 	add	r8, r8, r5
    9510:	e1a00006 	mov	r0, r6
    9514:	e2071002 	and	r1, r7, #2
    9518:	ebffff0f 	bl	915c <gpio_write>
    951c:	ee1f3f3c 	mrc	15, 0, r3, cr15, cr12, {1}
    9520:	e0643003 	rsb	r3, r4, r3
    9524:	e1580003 	cmp	r8, r3
    9528:	8afffffb 	bhi	951c <sw_uart_putc+0x60>
    952c:	e0888005 	add	r8, r8, r5
    9530:	e1a00006 	mov	r0, r6
    9534:	e2071004 	and	r1, r7, #4
    9538:	ebffff07 	bl	915c <gpio_write>
    953c:	ee1f3f3c 	mrc	15, 0, r3, cr15, cr12, {1}
    9540:	e0643003 	rsb	r3, r4, r3
    9544:	e1580003 	cmp	r8, r3
    9548:	8afffffb 	bhi	953c <sw_uart_putc+0x80>
    954c:	e0888005 	add	r8, r8, r5
    9550:	e1a00006 	mov	r0, r6
    9554:	e2071008 	and	r1, r7, #8
    9558:	ebfffeff 	bl	915c <gpio_write>
    955c:	ee1f3f3c 	mrc	15, 0, r3, cr15, cr12, {1}
    9560:	e0643003 	rsb	r3, r4, r3
    9564:	e1580003 	cmp	r8, r3
    9568:	8afffffb 	bhi	955c <sw_uart_putc+0xa0>
    956c:	e0888005 	add	r8, r8, r5
    9570:	e1a00006 	mov	r0, r6
    9574:	e2071010 	and	r1, r7, #16
    9578:	ebfffef7 	bl	915c <gpio_write>
    957c:	ee1f3f3c 	mrc	15, 0, r3, cr15, cr12, {1}
    9580:	e0643003 	rsb	r3, r4, r3
    9584:	e1580003 	cmp	r8, r3
    9588:	8afffffb 	bhi	957c <sw_uart_putc+0xc0>
    958c:	e0888005 	add	r8, r8, r5
    9590:	e1a00006 	mov	r0, r6
    9594:	e2071020 	and	r1, r7, #32
    9598:	ebfffeef 	bl	915c <gpio_write>
    959c:	ee1f3f3c 	mrc	15, 0, r3, cr15, cr12, {1}
    95a0:	e0643003 	rsb	r3, r4, r3
    95a4:	e1580003 	cmp	r8, r3
    95a8:	8afffffb 	bhi	959c <sw_uart_putc+0xe0>
    95ac:	e0888005 	add	r8, r8, r5
    95b0:	e1a00006 	mov	r0, r6
    95b4:	e2071040 	and	r1, r7, #64	; 0x40
    95b8:	ebfffee7 	bl	915c <gpio_write>
    95bc:	ee1f3f3c 	mrc	15, 0, r3, cr15, cr12, {1}
    95c0:	e0643003 	rsb	r3, r4, r3
    95c4:	e1580003 	cmp	r8, r3
    95c8:	8afffffb 	bhi	95bc <sw_uart_putc+0x100>
    95cc:	e0888005 	add	r8, r8, r5
    95d0:	e1a00006 	mov	r0, r6
    95d4:	e2071080 	and	r1, r7, #128	; 0x80
    95d8:	ebfffedf 	bl	915c <gpio_write>
    95dc:	ee1f3f3c 	mrc	15, 0, r3, cr15, cr12, {1}
    95e0:	e0643003 	rsb	r3, r4, r3
    95e4:	e1580003 	cmp	r8, r3
    95e8:	8afffffb 	bhi	95dc <sw_uart_putc+0x120>
    95ec:	e0885005 	add	r5, r8, r5
    95f0:	e1a00006 	mov	r0, r6
    95f4:	e3a01001 	mov	r1, #1
    95f8:	ebfffed7 	bl	915c <gpio_write>
    95fc:	ee1f3f3c 	mrc	15, 0, r3, cr15, cr12, {1}
    9600:	e0643003 	rsb	r3, r4, r3
    9604:	e1550003 	cmp	r5, r3
    9608:	8afffffb 	bhi	95fc <sw_uart_putc+0x140>
    960c:	e8bd81f0 	pop	{r4, r5, r6, r7, r8, pc}

00009610 <sw_uart_getc_timeout>:
    9610:	e92d43f8 	push	{r3, r4, r5, r6, r7, r8, r9, lr}
    9614:	e1a09000 	mov	r9, r0
    9618:	e5d07001 	ldrb	r7, [r0, #1]
    961c:	e1a05007 	mov	r5, r7
    9620:	e1a06001 	mov	r6, r1
    9624:	ebfffe1a 	bl	8e94 <timer_get_usec_raw>
    9628:	e1a04000 	mov	r4, r0
    962c:	e1a00005 	mov	r0, r5
    9630:	ebfffeb6 	bl	9110 <gpio_read>
    9634:	e3500000 	cmp	r0, #0
    9638:	0a000005 	beq	9654 <sw_uart_getc_timeout+0x44>
    963c:	ebfffe14 	bl	8e94 <timer_get_usec_raw>
    9640:	e0640000 	rsb	r0, r4, r0
    9644:	e1560000 	cmp	r6, r0
    9648:	2afffff7 	bcs	962c <sw_uart_getc_timeout+0x1c>
    964c:	e3a03000 	mov	r3, #0
    9650:	ea000000 	b	9658 <sw_uart_getc_timeout+0x48>
    9654:	e3a03001 	mov	r3, #1
    9658:	e3530000 	cmp	r3, #0
    965c:	0a000059 	beq	97c8 <sw_uart_getc_timeout+0x1b8>
    9660:	ee1f8f3c 	mrc	15, 0, r8, cr15, cr12, {1}
    9664:	e5994008 	ldr	r4, [r9, #8]
    9668:	e08420a4 	add	r2, r4, r4, lsr #1
    966c:	ee1f3f3c 	mrc	15, 0, r3, cr15, cr12, {1}
    9670:	e0683003 	rsb	r3, r8, r3
    9674:	e1520003 	cmp	r2, r3
    9678:	8afffffb 	bhi	966c <sw_uart_getc_timeout+0x5c>
    967c:	e0888004 	add	r8, r8, r4
    9680:	e1a00007 	mov	r0, r7
    9684:	ebfffea1 	bl	9110 <gpio_read>
    9688:	e1a09750 	asr	r9, r0, r7
    968c:	ee1f3f3c 	mrc	15, 0, r3, cr15, cr12, {1}
    9690:	e0683003 	rsb	r3, r8, r3
    9694:	e1540003 	cmp	r4, r3
    9698:	8afffffb 	bhi	968c <sw_uart_getc_timeout+0x7c>
    969c:	e0888004 	add	r8, r8, r4
    96a0:	e1a00007 	mov	r0, r7
    96a4:	ebfffe99 	bl	9110 <gpio_read>
    96a8:	e1a00750 	asr	r0, r0, r7
    96ac:	e1899080 	orr	r9, r9, r0, lsl #1
    96b0:	ee1f3f3c 	mrc	15, 0, r3, cr15, cr12, {1}
    96b4:	e0683003 	rsb	r3, r8, r3
    96b8:	e1540003 	cmp	r4, r3
    96bc:	8afffffb 	bhi	96b0 <sw_uart_getc_timeout+0xa0>
    96c0:	e0888004 	add	r8, r8, r4
    96c4:	e1a00007 	mov	r0, r7
    96c8:	ebfffe90 	bl	9110 <gpio_read>
    96cc:	e1a00750 	asr	r0, r0, r7
    96d0:	e1899100 	orr	r9, r9, r0, lsl #2
    96d4:	ee1f3f3c 	mrc	15, 0, r3, cr15, cr12, {1}
    96d8:	e0683003 	rsb	r3, r8, r3
    96dc:	e1540003 	cmp	r4, r3
    96e0:	8afffffb 	bhi	96d4 <sw_uart_getc_timeout+0xc4>
    96e4:	e0888004 	add	r8, r8, r4
    96e8:	e1a00007 	mov	r0, r7
    96ec:	ebfffe87 	bl	9110 <gpio_read>
    96f0:	e1a00750 	asr	r0, r0, r7
    96f4:	e1899180 	orr	r9, r9, r0, lsl #3
    96f8:	ee1f3f3c 	mrc	15, 0, r3, cr15, cr12, {1}
    96fc:	e0683003 	rsb	r3, r8, r3
    9700:	e1540003 	cmp	r4, r3
    9704:	8afffffb 	bhi	96f8 <sw_uart_getc_timeout+0xe8>
    9708:	e0888004 	add	r8, r8, r4
    970c:	e1a00007 	mov	r0, r7
    9710:	ebfffe7e 	bl	9110 <gpio_read>
    9714:	e1a00750 	asr	r0, r0, r7
    9718:	e1899200 	orr	r9, r9, r0, lsl #4
    971c:	ee1f3f3c 	mrc	15, 0, r3, cr15, cr12, {1}
    9720:	e0683003 	rsb	r3, r8, r3
    9724:	e1540003 	cmp	r4, r3
    9728:	8afffffb 	bhi	971c <sw_uart_getc_timeout+0x10c>
    972c:	e0888004 	add	r8, r8, r4
    9730:	e1a00007 	mov	r0, r7
    9734:	ebfffe75 	bl	9110 <gpio_read>
    9738:	e1a00750 	asr	r0, r0, r7
    973c:	e1899280 	orr	r9, r9, r0, lsl #5
    9740:	ee1f3f3c 	mrc	15, 0, r3, cr15, cr12, {1}
    9744:	e0683003 	rsb	r3, r8, r3
    9748:	e1540003 	cmp	r4, r3
    974c:	8afffffb 	bhi	9740 <sw_uart_getc_timeout+0x130>
    9750:	e0888004 	add	r8, r8, r4
    9754:	e1a00007 	mov	r0, r7
    9758:	ebfffe6c 	bl	9110 <gpio_read>
    975c:	e1a00750 	asr	r0, r0, r7
    9760:	e1899300 	orr	r9, r9, r0, lsl #6
    9764:	ee1f3f3c 	mrc	15, 0, r3, cr15, cr12, {1}
    9768:	e0683003 	rsb	r3, r8, r3
    976c:	e1540003 	cmp	r4, r3
    9770:	8afffffb 	bhi	9764 <sw_uart_getc_timeout+0x154>
    9774:	e1a00007 	mov	r0, r7
    9778:	ebfffe64 	bl	9110 <gpio_read>
    977c:	e1a00750 	asr	r0, r0, r7
    9780:	e1899380 	orr	r9, r9, r0, lsl #7
    9784:	ebfffdc2 	bl	8e94 <timer_get_usec_raw>
    9788:	e1a04000 	mov	r4, r0
    978c:	e1a00005 	mov	r0, r5
    9790:	ebfffe5e 	bl	9110 <gpio_read>
    9794:	e3500000 	cmp	r0, #0
    9798:	0a000005 	beq	97b4 <sw_uart_getc_timeout+0x1a4>
    979c:	ebfffdbc 	bl	8e94 <timer_get_usec_raw>
    97a0:	e0640000 	rsb	r0, r4, r0
    97a4:	e1560000 	cmp	r6, r0
    97a8:	2afffff7 	bcs	978c <sw_uart_getc_timeout+0x17c>
    97ac:	e3a03000 	mov	r3, #0
    97b0:	ea000000 	b	97b8 <sw_uart_getc_timeout+0x1a8>
    97b4:	e3a03001 	mov	r3, #1
    97b8:	e3530000 	cmp	r3, #0
    97bc:	0a000003 	beq	97d0 <sw_uart_getc_timeout+0x1c0>
    97c0:	e1a00009 	mov	r0, r9
    97c4:	e8bd83f8 	pop	{r3, r4, r5, r6, r7, r8, r9, pc}
    97c8:	e3e00000 	mvn	r0, #0
    97cc:	e8bd83f8 	pop	{r3, r4, r5, r6, r7, r8, r9, pc}
    97d0:	e3e00000 	mvn	r0, #0
    97d4:	e8bd83f8 	pop	{r3, r4, r5, r6, r7, r8, r9, pc}

000097d8 <sw_uart_gets_until>:
    97d8:	e92d47f0 	push	{r4, r5, r6, r7, r8, r9, sl, lr}
    97dc:	e1a08000 	mov	r8, r0
    97e0:	e1a06001 	mov	r6, r1
    97e4:	e1a09003 	mov	r9, r3
    97e8:	e59da020 	ldr	sl, [sp, #32]
    97ec:	e3520000 	cmp	r2, #0
    97f0:	1a000005 	bne	980c <sw_uart_gets_until+0x34>
    97f4:	e59f005c 	ldr	r0, [pc, #92]	; 9858 <sw_uart_gets_until+0x80>
    97f8:	e59f105c 	ldr	r1, [pc, #92]	; 985c <sw_uart_gets_until+0x84>
    97fc:	e59f205c 	ldr	r2, [pc, #92]	; 9860 <sw_uart_gets_until+0x88>
    9800:	e3a0306d 	mov	r3, #109	; 0x6d
    9804:	ebfffbe1 	bl	8790 <printk>
    9808:	ebfffd47 	bl	8d2c <clean_reboot>
    980c:	e3a04000 	mov	r4, #0
    9810:	e5c14000 	strb	r4, [r1]
    9814:	e2427001 	sub	r7, r2, #1
    9818:	ea000007 	b	983c <sw_uart_gets_until+0x64>
    981c:	e1a00008 	mov	r0, r8
    9820:	e1a0100a 	mov	r1, sl
    9824:	ebffff79 	bl	9610 <sw_uart_getc_timeout>
    9828:	e6ef0070 	uxtb	r0, r0
    982c:	e1500009 	cmp	r0, r9
    9830:	0a000004 	beq	9848 <sw_uart_gets_until+0x70>
    9834:	e7c60005 	strb	r0, [r6, r5]
    9838:	e2844001 	add	r4, r4, #1
    983c:	e1a05004 	mov	r5, r4
    9840:	e1540007 	cmp	r4, r7
    9844:	3afffff4 	bcc	981c <sw_uart_gets_until+0x44>
    9848:	e3a03000 	mov	r3, #0
    984c:	e7c63005 	strb	r3, [r6, r5]
    9850:	e1a00004 	mov	r0, r4
    9854:	e8bd87f0 	pop	{r4, r5, r6, r7, r8, r9, sl, pc}
    9858:	0000a2cc 	andeq	sl, r0, ip, asr #5
    985c:	0000a2e8 	andeq	sl, r0, r8, ror #5
    9860:	0000a254 	andeq	sl, r0, r4, asr r2

00009864 <sw_uart_gets_timeout>:
    9864:	e92d41f0 	push	{r4, r5, r6, r7, r8, lr}
    9868:	e1a07000 	mov	r7, r0
    986c:	e1a05001 	mov	r5, r1
    9870:	e1a08003 	mov	r8, r3
    9874:	e3520000 	cmp	r2, #0
    9878:	1a000005 	bne	9894 <sw_uart_gets_timeout+0x30>
    987c:	e59f004c 	ldr	r0, [pc, #76]	; 98d0 <sw_uart_gets_timeout+0x6c>
    9880:	e59f104c 	ldr	r1, [pc, #76]	; 98d4 <sw_uart_gets_timeout+0x70>
    9884:	e59f204c 	ldr	r2, [pc, #76]	; 98d8 <sw_uart_gets_timeout+0x74>
    9888:	e3a03083 	mov	r3, #131	; 0x83
    988c:	ebfffbbf 	bl	8790 <printk>
    9890:	ebfffd25 	bl	8d2c <clean_reboot>
    9894:	e3a04000 	mov	r4, #0
    9898:	e5c14000 	strb	r4, [r1]
    989c:	e2426001 	sub	r6, r2, #1
    98a0:	ea000004 	b	98b8 <sw_uart_gets_timeout+0x54>
    98a4:	e1a00007 	mov	r0, r7
    98a8:	e1a01008 	mov	r1, r8
    98ac:	ebffff57 	bl	9610 <sw_uart_getc_timeout>
    98b0:	e7c50004 	strb	r0, [r5, r4]
    98b4:	e2844001 	add	r4, r4, #1
    98b8:	e1540006 	cmp	r4, r6
    98bc:	3afffff8 	bcc	98a4 <sw_uart_gets_timeout+0x40>
    98c0:	e3a03000 	mov	r3, #0
    98c4:	e7c53004 	strb	r3, [r5, r4]
    98c8:	e1a00004 	mov	r0, r4
    98cc:	e8bd81f0 	pop	{r4, r5, r6, r7, r8, pc}
    98d0:	0000a2cc 	andeq	sl, r0, ip, asr #5
    98d4:	0000a2e8 	andeq	sl, r0, r8, ror #5
    98d8:	0000a268 	andeq	sl, r0, r8, ror #4

000098dc <sw_uart_init_helper>:
    98dc:	e92d41f0 	push	{r4, r5, r6, r7, r8, lr}
    98e0:	e1a04000 	mov	r4, r0
    98e4:	e1a06001 	mov	r6, r1
    98e8:	e1a08002 	mov	r8, r2
    98ec:	e1a05003 	mov	r5, r3
    98f0:	e59d7018 	ldr	r7, [sp, #24]
    98f4:	e1a00001 	mov	r0, r1
    98f8:	ebfffd80 	bl	8f00 <gpio_set_output>
    98fc:	e1a00008 	mov	r0, r8
    9900:	ebfffdcf 	bl	9044 <gpio_set_input>
    9904:	e3a03001 	mov	r3, #1
    9908:	ee0f3f1c 	mcr	15, 0, r3, cr15, cr12, {0}
    990c:	e1a00006 	mov	r0, r6
    9910:	e3a01001 	mov	r1, #1
    9914:	ebfffe10 	bl	915c <gpio_write>
    9918:	e0020795 	mul	r2, r5, r7
    991c:	e59f3064 	ldr	r3, [pc, #100]	; 9988 <sw_uart_init_helper+0xac>
    9920:	e0653003 	rsb	r3, r5, r3
    9924:	e1530002 	cmp	r3, r2
    9928:	8a000005 	bhi	9944 <sw_uart_init_helper+0x68>
    992c:	e59f3054 	ldr	r3, [pc, #84]	; 9988 <sw_uart_init_helper+0xac>
    9930:	e0853003 	add	r3, r5, r3
    9934:	e1530002 	cmp	r3, r2
    9938:	2a000003 	bcs	994c <sw_uart_init_helper+0x70>
    993c:	e3a03000 	mov	r3, #0
    9940:	ea000002 	b	9950 <sw_uart_init_helper+0x74>
    9944:	e3a03000 	mov	r3, #0
    9948:	ea000000 	b	9950 <sw_uart_init_helper+0x74>
    994c:	e3a03001 	mov	r3, #1
    9950:	e3530000 	cmp	r3, #0
    9954:	1a000005 	bne	9970 <sw_uart_init_helper+0x94>
    9958:	e59f002c 	ldr	r0, [pc, #44]	; 998c <sw_uart_init_helper+0xb0>
    995c:	e59f102c 	ldr	r1, [pc, #44]	; 9990 <sw_uart_init_helper+0xb4>
    9960:	e59f202c 	ldr	r2, [pc, #44]	; 9994 <sw_uart_init_helper+0xb8>
    9964:	e3a0309d 	mov	r3, #157	; 0x9d
    9968:	ebfffb88 	bl	8790 <printk>
    996c:	ebfffcee 	bl	8d2c <clean_reboot>
    9970:	e5c46000 	strb	r6, [r4]
    9974:	e5c48001 	strb	r8, [r4, #1]
    9978:	e5845004 	str	r5, [r4, #4]
    997c:	e5847008 	str	r7, [r4, #8]
    9980:	e1a00004 	mov	r0, r4
    9984:	e8bd81f0 	pop	{r4, r5, r6, r7, r8, pc}
    9988:	29b92700 	ldmibcs	r9!, {r8, r9, sl, sp}
    998c:	0000a2fc 	strdeq	sl, [r0], -ip
    9990:	0000a2e8 	andeq	sl, r0, r8, ror #5
    9994:	0000a280 	andeq	sl, r0, r0, lsl #5

00009998 <sw_uart_getc>:
    9998:	e92d4008 	push	{r3, lr}
    999c:	e3e01000 	mvn	r1, #0
    99a0:	ebffff1a 	bl	9610 <sw_uart_getc_timeout>
    99a4:	e3500000 	cmp	r0, #0
    99a8:	a8bd8008 	popge	{r3, pc}
    99ac:	e59f0010 	ldr	r0, [pc, #16]	; 99c4 <sw_uart_getc+0x2c>
    99b0:	e59f1010 	ldr	r1, [pc, #16]	; 99c8 <sw_uart_getc+0x30>
    99b4:	e59f2010 	ldr	r2, [pc, #16]	; 99cc <sw_uart_getc+0x34>
    99b8:	e3a030ac 	mov	r3, #172	; 0xac
    99bc:	ebfffb73 	bl	8790 <printk>
    99c0:	ebfffcd9 	bl	8d2c <clean_reboot>
    99c4:	0000a340 	andeq	sl, r0, r0, asr #6
    99c8:	0000a2e8 	andeq	sl, r0, r8, ror #5
    99cc:	0000a294 	muleq	r0, r4, r2

000099d0 <sw_uart_putk>:
    99d0:	e92d4038 	push	{r3, r4, r5, lr}
    99d4:	e1a05000 	mov	r5, r0
    99d8:	e1a04001 	mov	r4, r1
    99dc:	ea000002 	b	99ec <sw_uart_putk+0x1c>
    99e0:	e1a00005 	mov	r0, r5
    99e4:	ebfffeb4 	bl	94bc <sw_uart_putc>
    99e8:	e2844001 	add	r4, r4, #1
    99ec:	e5d41000 	ldrb	r1, [r4]
    99f0:	e3510000 	cmp	r1, #0
    99f4:	1afffff9 	bne	99e0 <sw_uart_putk+0x10>
    99f8:	e8bd8038 	pop	{r3, r4, r5, pc}

000099fc <sw_uart_printk>:
    99fc:	e92d000e 	push	{r1, r2, r3}
    9a00:	e92d4030 	push	{r4, r5, lr}
    9a04:	e24dde1d 	sub	sp, sp, #464	; 0x1d0
    9a08:	e1a05000 	mov	r5, r0
    9a0c:	e28d3e1e 	add	r3, sp, #480	; 0x1e0
    9a10:	e58d3000 	str	r3, [sp]
    9a14:	e28d0004 	add	r0, sp, #4
    9a18:	e3a01f73 	mov	r1, #460	; 0x1cc
    9a1c:	e59d21dc 	ldr	r2, [sp, #476]	; 0x1dc
    9a20:	ebfffc17 	bl	8a84 <va_printk>
    9a24:	e1a04000 	mov	r4, r0
    9a28:	e59f303c 	ldr	r3, [pc, #60]	; 9a6c <sw_uart_printk+0x70>
    9a2c:	e1500003 	cmp	r0, r3
    9a30:	9a000005 	bls	9a4c <sw_uart_printk+0x50>
    9a34:	e59f0034 	ldr	r0, [pc, #52]	; 9a70 <sw_uart_printk+0x74>
    9a38:	e59f1034 	ldr	r1, [pc, #52]	; 9a74 <sw_uart_printk+0x78>
    9a3c:	e59f2034 	ldr	r2, [pc, #52]	; 9a78 <sw_uart_printk+0x7c>
    9a40:	e3a030c0 	mov	r3, #192	; 0xc0
    9a44:	ebfffb51 	bl	8790 <printk>
    9a48:	ebfffcb7 	bl	8d2c <clean_reboot>
    9a4c:	e1a00005 	mov	r0, r5
    9a50:	e28d1004 	add	r1, sp, #4
    9a54:	ebffffdd 	bl	99d0 <sw_uart_putk>
    9a58:	e1a00004 	mov	r0, r4
    9a5c:	e28dde1d 	add	sp, sp, #464	; 0x1d0
    9a60:	e8bd4030 	pop	{r4, r5, lr}
    9a64:	e28dd00c 	add	sp, sp, #12
    9a68:	e12fff1e 	bx	lr
    9a6c:	000001ca 	andeq	r0, r0, sl, asr #3
    9a70:	0000a378 	andeq	sl, r0, r8, ror r3
    9a74:	0000a2e8 	andeq	sl, r0, r8, ror #5
    9a78:	0000a2a4 	andeq	sl, r0, r4, lsr #5

00009a7c <sw_uart_gets_until_blk>:
    9a7c:	e52de004 	push	{lr}		; (str lr, [sp, #-4]!)
    9a80:	e24dd00c 	sub	sp, sp, #12
    9a84:	e3e0c000 	mvn	ip, #0
    9a88:	e58dc000 	str	ip, [sp]
    9a8c:	ebffff51 	bl	97d8 <sw_uart_gets_until>
    9a90:	e3500000 	cmp	r0, #0
    9a94:	aa000005 	bge	9ab0 <sw_uart_gets_until_blk+0x34>
    9a98:	e59f0018 	ldr	r0, [pc, #24]	; 9ab8 <sw_uart_gets_until_blk+0x3c>
    9a9c:	e59f1018 	ldr	r1, [pc, #24]	; 9abc <sw_uart_gets_until_blk+0x40>
    9aa0:	e59f2018 	ldr	r2, [pc, #24]	; 9ac0 <sw_uart_gets_until_blk+0x44>
    9aa4:	e3a030c8 	mov	r3, #200	; 0xc8
    9aa8:	ebfffb38 	bl	8790 <printk>
    9aac:	ebfffc9e 	bl	8d2c <clean_reboot>
    9ab0:	e28dd00c 	add	sp, sp, #12
    9ab4:	e49df004 	pop	{pc}		; (ldr pc, [sp], #4)
    9ab8:	0000a340 	andeq	sl, r0, r0, asr #6
    9abc:	0000a2e8 	andeq	sl, r0, r8, ror #5
    9ac0:	0000a2b4 			; <UNDEFINED> instruction: 0x0000a2b4

00009ac4 <uart_init>:
    9ac4:	e92d4038 	push	{r3, r4, r5, lr}
    9ac8:	eb0000c6 	bl	9de8 <dev_barrier>
    9acc:	e3a0000e 	mov	r0, #14
    9ad0:	e3a01002 	mov	r1, #2
    9ad4:	ebfffdbe 	bl	91d4 <gpio_set_function>
    9ad8:	e3a0000f 	mov	r0, #15
    9adc:	e3a01002 	mov	r1, #2
    9ae0:	ebfffdbb 	bl	91d4 <gpio_set_function>
    9ae4:	eb0000bf 	bl	9de8 <dev_barrier>
    9ae8:	e59f4068 	ldr	r4, [pc, #104]	; 9b58 <uart_init+0x94>
    9aec:	e5945000 	ldr	r5, [r4]
    9af0:	e1a00005 	mov	r0, r5
    9af4:	eb0000cd 	bl	9e30 <get32>
    9af8:	e3801001 	orr	r1, r0, #1
    9afc:	e1a00005 	mov	r0, r5
    9b00:	eb0000be 	bl	9e00 <put32>
    9b04:	eb0000b7 	bl	9de8 <dev_barrier>
    9b08:	e5940004 	ldr	r0, [r4, #4]
    9b0c:	e3a01000 	mov	r1, #0
    9b10:	eb0000ba 	bl	9e00 <put32>
    9b14:	e5940008 	ldr	r0, [r4, #8]
    9b18:	e3a01000 	mov	r1, #0
    9b1c:	eb0000b7 	bl	9e00 <put32>
    9b20:	e594000c 	ldr	r0, [r4, #12]
    9b24:	e3a01006 	mov	r1, #6
    9b28:	eb0000b4 	bl	9e00 <put32>
    9b2c:	e5940010 	ldr	r0, [r4, #16]
    9b30:	e3a01003 	mov	r1, #3
    9b34:	eb0000b1 	bl	9e00 <put32>
    9b38:	e5940014 	ldr	r0, [r4, #20]
    9b3c:	e59f1018 	ldr	r1, [pc, #24]	; 9b5c <uart_init+0x98>
    9b40:	eb0000ae 	bl	9e00 <put32>
    9b44:	e5940004 	ldr	r0, [r4, #4]
    9b48:	e3a01003 	mov	r1, #3
    9b4c:	eb0000ab 	bl	9e00 <put32>
    9b50:	eb0000a4 	bl	9de8 <dev_barrier>
    9b54:	e8bd8038 	pop	{r3, r4, r5, pc}
    9b58:	00009fec 	andeq	r9, r0, ip, ror #31
    9b5c:	0000010e 	andeq	r0, r0, lr, lsl #2

00009b60 <uart_can_getc>:
    9b60:	e92d4008 	push	{r3, lr}
    9b64:	e59f300c 	ldr	r3, [pc, #12]	; 9b78 <uart_can_getc+0x18>
    9b68:	e5930018 	ldr	r0, [r3, #24]
    9b6c:	eb0000af 	bl	9e30 <get32>
    9b70:	e2000001 	and	r0, r0, #1
    9b74:	e8bd8008 	pop	{r3, pc}
    9b78:	00009fec 	andeq	r9, r0, ip, ror #31

00009b7c <uart_getc>:
    9b7c:	e92d4008 	push	{r3, lr}
    9b80:	ebfffff6 	bl	9b60 <uart_can_getc>
    9b84:	e3500000 	cmp	r0, #0
    9b88:	0afffffc 	beq	9b80 <uart_getc+0x4>
    9b8c:	e59f300c 	ldr	r3, [pc, #12]	; 9ba0 <uart_getc+0x24>
    9b90:	e593001c 	ldr	r0, [r3, #28]
    9b94:	eb0000a5 	bl	9e30 <get32>
    9b98:	e6ef0070 	uxtb	r0, r0
    9b9c:	e8bd8008 	pop	{r3, pc}
    9ba0:	00009fec 	andeq	r9, r0, ip, ror #31

00009ba4 <uart_can_putc>:
    9ba4:	e92d4008 	push	{r3, lr}
    9ba8:	e59f300c 	ldr	r3, [pc, #12]	; 9bbc <uart_can_putc+0x18>
    9bac:	e5930018 	ldr	r0, [r3, #24]
    9bb0:	eb00009e 	bl	9e30 <get32>
    9bb4:	e2000020 	and	r0, r0, #32
    9bb8:	e8bd8008 	pop	{r3, pc}
    9bbc:	00009fec 	andeq	r9, r0, ip, ror #31

00009bc0 <uart_putc>:
    9bc0:	e92d4010 	push	{r4, lr}
    9bc4:	e1a04000 	mov	r4, r0
    9bc8:	ebfffff5 	bl	9ba4 <uart_can_putc>
    9bcc:	e3500000 	cmp	r0, #0
    9bd0:	0afffffc 	beq	9bc8 <uart_putc+0x8>
    9bd4:	e59f300c 	ldr	r3, [pc, #12]	; 9be8 <uart_putc+0x28>
    9bd8:	e593001c 	ldr	r0, [r3, #28]
    9bdc:	e1a01004 	mov	r1, r4
    9be0:	eb000086 	bl	9e00 <put32>
    9be4:	e8bd8010 	pop	{r4, pc}
    9be8:	00009fec 	andeq	r9, r0, ip, ror #31

00009bec <uart_has_data>:
    9bec:	e92d4008 	push	{r3, lr}
    9bf0:	ebffffda 	bl	9b60 <uart_can_getc>
    9bf4:	e8bd8008 	pop	{r3, pc}

00009bf8 <uart_getc_async>:
    9bf8:	e92d4008 	push	{r3, lr}
    9bfc:	ebfffffa 	bl	9bec <uart_has_data>
    9c00:	e3500000 	cmp	r0, #0
    9c04:	0a000001 	beq	9c10 <uart_getc_async+0x18>
    9c08:	ebffffdb 	bl	9b7c <uart_getc>
    9c0c:	e8bd8008 	pop	{r3, pc}
    9c10:	e3e00000 	mvn	r0, #0
    9c14:	e8bd8008 	pop	{r3, pc}

00009c18 <int_init>:
    9c18:	e92d4008 	push	{r3, lr}
    9c1c:	e59f004c 	ldr	r0, [pc, #76]	; 9c70 <int_init+0x58>
    9c20:	e3e01000 	mvn	r1, #0
    9c24:	eb000077 	bl	9e08 <PUT32>
    9c28:	e59f0044 	ldr	r0, [pc, #68]	; 9c74 <int_init+0x5c>
    9c2c:	e3e01000 	mvn	r1, #0
    9c30:	eb000074 	bl	9e08 <PUT32>
    9c34:	eb00006b 	bl	9de8 <dev_barrier>
    9c38:	e59f3038 	ldr	r3, [pc, #56]	; 9c78 <int_init+0x60>
    9c3c:	e59f0038 	ldr	r0, [pc, #56]	; 9c7c <int_init+0x64>
    9c40:	e0630000 	rsb	r0, r3, r0
    9c44:	e1a00140 	asr	r0, r0, #2
    9c48:	e3a03000 	mov	r3, #0
    9c4c:	e59fc024 	ldr	ip, [pc, #36]	; 9c78 <int_init+0x60>
    9c50:	ea000003 	b	9c64 <int_init+0x4c>
    9c54:	e1a02103 	lsl	r2, r3, #2
    9c58:	e79c1103 	ldr	r1, [ip, r3, lsl #2]
    9c5c:	e5821000 	str	r1, [r2]
    9c60:	e2833001 	add	r3, r3, #1
    9c64:	e1530000 	cmp	r3, r0
    9c68:	3afffff9 	bcc	9c54 <int_init+0x3c>
    9c6c:	e8bd8008 	pop	{r3, pc}
    9c70:	2000b21c 	andcs	fp, r0, ip, lsl r2
    9c74:	2000b220 	andcs	fp, r0, r0, lsr #4
    9c78:	00009e6c 	andeq	r9, r0, ip, ror #28
    9c7c:	00009ebc 			; <UNDEFINED> instruction: 0x00009ebc

00009c80 <fast_interrupt_vector>:
    9c80:	e52de004 	push	{lr}		; (str lr, [sp, #-4]!)
    9c84:	e24dd00c 	sub	sp, sp, #12
    9c88:	e59f301c 	ldr	r3, [pc, #28]	; 9cac <fast_interrupt_vector+0x2c>
    9c8c:	e58d3000 	str	r3, [sp]
    9c90:	e58d0004 	str	r0, [sp, #4]
    9c94:	e59f0014 	ldr	r0, [pc, #20]	; 9cb0 <fast_interrupt_vector+0x30>
    9c98:	e59f1014 	ldr	r1, [pc, #20]	; 9cb4 <fast_interrupt_vector+0x34>
    9c9c:	e59f2014 	ldr	r2, [pc, #20]	; 9cb8 <fast_interrupt_vector+0x38>
    9ca0:	e3a03020 	mov	r3, #32
    9ca4:	ebfffab9 	bl	8790 <printk>
    9ca8:	ebfffc1f 	bl	8d2c <clean_reboot>
    9cac:	0000a488 	andeq	sl, r0, r8, lsl #9
    9cb0:	0000a42c 	andeq	sl, r0, ip, lsr #8
    9cb4:	0000a468 	andeq	sl, r0, r8, ror #8
    9cb8:	0000a39c 	muleq	r0, ip, r3

00009cbc <software_interrupt_vector>:
    9cbc:	e52de004 	push	{lr}		; (str lr, [sp, #-4]!)
    9cc0:	e24dd00c 	sub	sp, sp, #12
    9cc4:	e59f301c 	ldr	r3, [pc, #28]	; 9ce8 <software_interrupt_vector+0x2c>
    9cc8:	e58d3000 	str	r3, [sp]
    9ccc:	e58d0004 	str	r0, [sp, #4]
    9cd0:	e59f0014 	ldr	r0, [pc, #20]	; 9cec <software_interrupt_vector+0x30>
    9cd4:	e59f1014 	ldr	r1, [pc, #20]	; 9cf0 <software_interrupt_vector+0x34>
    9cd8:	e59f2014 	ldr	r2, [pc, #20]	; 9cf4 <software_interrupt_vector+0x38>
    9cdc:	e3a03025 	mov	r3, #37	; 0x25
    9ce0:	ebfffaaa 	bl	8790 <printk>
    9ce4:	ebfffc10 	bl	8d2c <clean_reboot>
    9ce8:	0000a490 	muleq	r0, r0, r4
    9cec:	0000a42c 	andeq	sl, r0, ip, lsr #8
    9cf0:	0000a468 	andeq	sl, r0, r8, ror #8
    9cf4:	0000a3b4 			; <UNDEFINED> instruction: 0x0000a3b4

00009cf8 <reset_vector>:
    9cf8:	e52de004 	push	{lr}		; (str lr, [sp, #-4]!)
    9cfc:	e24dd00c 	sub	sp, sp, #12
    9d00:	e59f301c 	ldr	r3, [pc, #28]	; 9d24 <reset_vector+0x2c>
    9d04:	e58d3000 	str	r3, [sp]
    9d08:	e58d0004 	str	r0, [sp, #4]
    9d0c:	e59f0014 	ldr	r0, [pc, #20]	; 9d28 <reset_vector+0x30>
    9d10:	e59f1014 	ldr	r1, [pc, #20]	; 9d2c <reset_vector+0x34>
    9d14:	e59f2014 	ldr	r2, [pc, #20]	; 9d30 <reset_vector+0x38>
    9d18:	e3a03028 	mov	r3, #40	; 0x28
    9d1c:	ebfffa9b 	bl	8790 <printk>
    9d20:	ebfffc01 	bl	8d2c <clean_reboot>
    9d24:	0000a4a0 	andeq	sl, r0, r0, lsr #9
    9d28:	0000a42c 	andeq	sl, r0, ip, lsr #8
    9d2c:	0000a468 	andeq	sl, r0, r8, ror #8
    9d30:	0000a3d0 	ldrdeq	sl, [r0], -r0

00009d34 <undefined_instruction_vector>:
    9d34:	e52de004 	push	{lr}		; (str lr, [sp, #-4]!)
    9d38:	e24dd00c 	sub	sp, sp, #12
    9d3c:	e59f301c 	ldr	r3, [pc, #28]	; 9d60 <undefined_instruction_vector+0x2c>
    9d40:	e58d3000 	str	r3, [sp]
    9d44:	e58d0004 	str	r0, [sp, #4]
    9d48:	e59f0014 	ldr	r0, [pc, #20]	; 9d64 <undefined_instruction_vector+0x30>
    9d4c:	e59f1014 	ldr	r1, [pc, #20]	; 9d68 <undefined_instruction_vector+0x34>
    9d50:	e59f2014 	ldr	r2, [pc, #20]	; 9d6c <undefined_instruction_vector+0x38>
    9d54:	e3a0302b 	mov	r3, #43	; 0x2b
    9d58:	ebfffa8c 	bl	8790 <printk>
    9d5c:	ebfffbf2 	bl	8d2c <clean_reboot>
    9d60:	0000a4b0 			; <UNDEFINED> instruction: 0x0000a4b0
    9d64:	0000a42c 	andeq	sl, r0, ip, lsr #8
    9d68:	0000a468 	andeq	sl, r0, r8, ror #8
    9d6c:	0000a3e0 	andeq	sl, r0, r0, ror #7

00009d70 <prefetch_abort_vector>:
    9d70:	e52de004 	push	{lr}		; (str lr, [sp, #-4]!)
    9d74:	e24dd00c 	sub	sp, sp, #12
    9d78:	e59f301c 	ldr	r3, [pc, #28]	; 9d9c <prefetch_abort_vector+0x2c>
    9d7c:	e58d3000 	str	r3, [sp]
    9d80:	e58d0004 	str	r0, [sp, #4]
    9d84:	e59f0014 	ldr	r0, [pc, #20]	; 9da0 <prefetch_abort_vector+0x30>
    9d88:	e59f1014 	ldr	r1, [pc, #20]	; 9da4 <prefetch_abort_vector+0x34>
    9d8c:	e59f2014 	ldr	r2, [pc, #20]	; 9da8 <prefetch_abort_vector+0x38>
    9d90:	e3a0302e 	mov	r3, #46	; 0x2e
    9d94:	ebfffa7d 	bl	8790 <printk>
    9d98:	ebfffbe3 	bl	8d2c <clean_reboot>
    9d9c:	0000a4c8 	andeq	sl, r0, r8, asr #9
    9da0:	0000a42c 	andeq	sl, r0, ip, lsr #8
    9da4:	0000a468 	andeq	sl, r0, r8, ror #8
    9da8:	0000a400 	andeq	sl, r0, r0, lsl #8

00009dac <data_abort_vector>:
    9dac:	e52de004 	push	{lr}		; (str lr, [sp, #-4]!)
    9db0:	e24dd00c 	sub	sp, sp, #12
    9db4:	e59f301c 	ldr	r3, [pc, #28]	; 9dd8 <data_abort_vector+0x2c>
    9db8:	e58d3000 	str	r3, [sp]
    9dbc:	e58d0004 	str	r0, [sp, #4]
    9dc0:	e59f0014 	ldr	r0, [pc, #20]	; 9ddc <data_abort_vector+0x30>
    9dc4:	e59f1014 	ldr	r1, [pc, #20]	; 9de0 <data_abort_vector+0x34>
    9dc8:	e59f2014 	ldr	r2, [pc, #20]	; 9de4 <data_abort_vector+0x38>
    9dcc:	e3a03031 	mov	r3, #49	; 0x31
    9dd0:	ebfffa6e 	bl	8790 <printk>
    9dd4:	ebfffbd4 	bl	8d2c <clean_reboot>
    9dd8:	0000a4d8 	ldrdeq	sl, [r0], -r8
    9ddc:	0000a42c 	andeq	sl, r0, ip, lsr #8
    9de0:	0000a468 	andeq	sl, r0, r8, ror #8
    9de4:	0000a418 	andeq	sl, r0, r8, lsl r4

00009de8 <dev_barrier>:
    9de8:	ea000002 	b	9df8 <dsb>

00009dec <dmb>:
    9dec:	e3a00000 	mov	r0, #0
    9df0:	ee070fba 	mcr	15, 0, r0, cr7, cr10, {5}
    9df4:	e12fff1e 	bx	lr

00009df8 <dsb>:
    9df8:	ee070f9a 	mcr	15, 0, r0, cr7, cr10, {4}
    9dfc:	e12fff1e 	bx	lr

00009e00 <put32>:
    9e00:	e5801000 	str	r1, [r0]
    9e04:	e12fff1e 	bx	lr

00009e08 <PUT32>:
    9e08:	e5801000 	str	r1, [r0]
    9e0c:	e12fff1e 	bx	lr

00009e10 <put16>:
    9e10:	e1c010b0 	strh	r1, [r0]
    9e14:	e12fff1e 	bx	lr

00009e18 <PUT16>:
    9e18:	e1c010b0 	strh	r1, [r0]
    9e1c:	e12fff1e 	bx	lr

00009e20 <put8>:
    9e20:	e5c01000 	strb	r1, [r0]
    9e24:	e12fff1e 	bx	lr

00009e28 <PUT8>:
    9e28:	e5c01000 	strb	r1, [r0]
    9e2c:	e12fff1e 	bx	lr

00009e30 <get32>:
    9e30:	e5900000 	ldr	r0, [r0]
    9e34:	e12fff1e 	bx	lr

00009e38 <GET32>:
    9e38:	e5900000 	ldr	r0, [r0]
    9e3c:	e12fff1e 	bx	lr

00009e40 <GETPC>:
    9e40:	e1a0000e 	mov	r0, lr
    9e44:	e12fff1e 	bx	lr

00009e48 <dummy>:
    9e48:	e12fff1e 	bx	lr

00009e4c <system_enable_interrupts>:
    9e4c:	e10f0000 	mrs	r0, CPSR
    9e50:	e3c00080 	bic	r0, r0, #128	; 0x80
    9e54:	e121f000 	msr	CPSR_c, r0
    9e58:	e12fff1e 	bx	lr

00009e5c <system_disable_interrupts>:
    9e5c:	e10f0000 	mrs	r0, CPSR
    9e60:	e3800080 	orr	r0, r0, #128	; 0x80
    9e64:	e121f000 	msr	CPSR_c, r0
    9e68:	e12fff1e 	bx	lr

00009e6c <_interrupt_table>:
    9e6c:	e59ff030 	ldr	pc, [pc, #48]	; 9ea4 <_reset_asm>
    9e70:	e59ff030 	ldr	pc, [pc, #48]	; 9ea8 <_undefined_instruction_asm>
    9e74:	e59ff030 	ldr	pc, [pc, #48]	; 9eac <_software_interrupt_asm>
    9e78:	e59ff030 	ldr	pc, [pc, #48]	; 9eb0 <_prefetch_abort_asm>
    9e7c:	e59ff030 	ldr	pc, [pc, #48]	; 9eb4 <_data_abort_asm>
    9e80:	e59ff01c 	ldr	pc, [pc, #28]	; 9ea4 <_reset_asm>
    9e84:	e59ff02c 	ldr	pc, [pc, #44]	; 9eb8 <_interrupt_asm>

00009e88 <fast_interrupt_asm>:
    9e88:	e24ee004 	sub	lr, lr, #4
    9e8c:	e52de004 	push	{lr}		; (str lr, [sp, #-4]!)
    9e90:	e92d1fff 	push	{r0, r1, r2, r3, r4, r5, r6, r7, r8, r9, sl, fp, ip}
    9e94:	e1a0000e 	mov	r0, lr
    9e98:	ebffff78 	bl	9c80 <fast_interrupt_vector>
    9e9c:	e8bd1fff 	pop	{r0, r1, r2, r3, r4, r5, r6, r7, r8, r9, sl, fp, ip}
    9ea0:	e8fd8000 	ldm	sp!, {pc}^

00009ea4 <_reset_asm>:
    9ea4:	00009f04 	andeq	r9, r0, r4, lsl #30

00009ea8 <_undefined_instruction_asm>:
    9ea8:	00009f0c 	andeq	r9, r0, ip, lsl #30

00009eac <_software_interrupt_asm>:
    9eac:	00009ed8 	ldrdeq	r9, [r0], -r8

00009eb0 <_prefetch_abort_asm>:
    9eb0:	00009f14 	andeq	r9, r0, r4, lsl pc

00009eb4 <_data_abort_asm>:
    9eb4:	00009f1c 	andeq	r9, r0, ip, lsl pc

00009eb8 <_interrupt_asm>:
    9eb8:	00009ebc 			; <UNDEFINED> instruction: 0x00009ebc

00009ebc <_interrupt_table_end>:
    9ebc:	e3a0d409 	mov	sp, #150994944	; 0x9000000
    9ec0:	e24ee004 	sub	lr, lr, #4
    9ec4:	e92d5fff 	push	{r0, r1, r2, r3, r4, r5, r6, r7, r8, r9, sl, fp, ip, lr}
    9ec8:	e1a0000e 	mov	r0, lr
    9ecc:	ebfff94e 	bl	840c <interrupt_vector>
    9ed0:	e8bd5fff 	pop	{r0, r1, r2, r3, r4, r5, r6, r7, r8, r9, sl, fp, ip, lr}
    9ed4:	e1b0f00e 	movs	pc, lr

00009ed8 <software_interrupt_asm>:
    9ed8:	e52de004 	push	{lr}		; (str lr, [sp, #-4]!)
    9edc:	e92d1ffe 	push	{r1, r2, r3, r4, r5, r6, r7, r8, r9, sl, fp, ip}
    9ee0:	e24ee004 	sub	lr, lr, #4
    9ee4:	e1a0200e 	mov	r2, lr
    9ee8:	e1a01000 	mov	r1, r0
    9eec:	e1a0000e 	mov	r0, lr
    9ef0:	eb000003 	bl	9f04 <reset_asm>
    9ef4:	e8bd1ffe 	pop	{r1, r2, r3, r4, r5, r6, r7, r8, r9, sl, fp, ip}
    9ef8:	e49de004 	pop	{lr}		; (ldr lr, [sp], #4)
    9efc:	e8fd8000 	ldm	sp!, {pc}^
    9f00:	e1b0f00e 	movs	pc, lr

00009f04 <reset_asm>:
    9f04:	e24ee004 	sub	lr, lr, #4
    9f08:	ebffff7a 	bl	9cf8 <reset_vector>

00009f0c <undefined_instruction_asm>:
    9f0c:	e24ee004 	sub	lr, lr, #4
    9f10:	ebffff87 	bl	9d34 <undefined_instruction_vector>

00009f14 <prefetch_abort_asm>:
    9f14:	e24ee004 	sub	lr, lr, #4
    9f18:	ebffff94 	bl	9d70 <prefetch_abort_vector>

00009f1c <data_abort_asm>:
    9f1c:	e24ee004 	sub	lr, lr, #4
    9f20:	ebffffa1 	bl	9dac <data_abort_vector>

00009f24 <internal_putchar>:
    9f24:	e92d4010 	push	{r4, lr}
    9f28:	e1a04000 	mov	r4, r0
    9f2c:	ebffff23 	bl	9bc0 <uart_putc>
    9f30:	e1a00004 	mov	r0, r4
    9f34:	e8bd8010 	pop	{r4, pc}

00009f38 <cb_new>:
    9f38:	e92d4008 	push	{r3, lr}
    9f3c:	e3a00409 	mov	r0, #150994944	; 0x9000000
    9f40:	e3a01000 	mov	r1, #0
    9f44:	e3a02004 	mov	r2, #4
    9f48:	ebfffa08 	bl	8770 <memset>
    9f4c:	e3a00409 	mov	r0, #150994944	; 0x9000000
    9f50:	e59f3004 	ldr	r3, [pc, #4]	; 9f5c <cb_new+0x24>
    9f54:	e5803000 	str	r3, [r0]
    9f58:	e8bd8008 	pop	{r3, pc}
    9f5c:	12345678 	eorsne	r5, r4, #120, 12	; 0x7800000

00009f60 <cb_get_block>:
    9f60:	e3a03409 	mov	r3, #150994944	; 0x9000000
    9f64:	e5932000 	ldr	r2, [r3]
    9f68:	e59f3014 	ldr	r3, [pc, #20]	; 9f84 <cb_get_block+0x24>
    9f6c:	e1520003 	cmp	r2, r3
    9f70:	0a000001 	beq	9f7c <cb_get_block+0x1c>
    9f74:	e3a00000 	mov	r0, #0
    9f78:	e12fff1e 	bx	lr
    9f7c:	e3a00409 	mov	r0, #150994944	; 0x9000000
    9f80:	e12fff1e 	bx	lr
    9f84:	12345678 	eorsne	r5, r4, #120, 12	; 0x7800000

Disassembly of section .data:

00009f88 <putk>:
    9f88:	000087e8 	andeq	r8, r0, r8, ror #15

00009f8c <GPFSEL0>:
    9f8c:	20200000 	eorcs	r0, r0, r0

00009f90 <GPFSEL1>:
    9f90:	20200004 	eorcs	r0, r0, r4

00009f94 <GPFSEL2>:
    9f94:	20200008 	eorcs	r0, r0, r8

00009f98 <GPFSEL3>:
    9f98:	2020000c 	eorcs	r0, r0, ip

00009f9c <GPFSEL4>:
    9f9c:	20200010 	eorcs	r0, r0, r0, lsl r0

00009fa0 <GPFSEL5>:
    9fa0:	20200014 	eorcs	r0, r0, r4, lsl r0

00009fa4 <GPSET0>:
    9fa4:	2020001c 	eorcs	r0, r0, ip, lsl r0

00009fa8 <GPSET1>:
    9fa8:	20200020 	eorcs	r0, r0, r0, lsr #32

00009fac <GPCLR0>:
    9fac:	20200028 	eorcs	r0, r0, r8, lsr #32

00009fb0 <GPCLR1>:
    9fb0:	2020002c 	eorcs	r0, r0, ip, lsr #32

00009fb4 <GPLEV0>:
    9fb4:	20200034 	eorcs	r0, r0, r4, lsr r0

00009fb8 <GPLEV1>:
    9fb8:	20200038 	eorcs	r0, r0, r8, lsr r0

00009fbc <IRQ_PENDING_2>:
    9fbc:	2000b208 	andcs	fp, r0, r8, lsl #4

00009fc0 <GPREN0>:
    9fc0:	2020004c 	eorcs	r0, r0, ip, asr #32

00009fc4 <GPREN1>:
    9fc4:	20200050 	eorcs	r0, r0, r0, asr r0

00009fc8 <ENABLE_IRQS_2>:
    9fc8:	2000b214 	andcs	fp, r0, r4, lsl r2

00009fcc <GPFEN0>:
    9fcc:	20200058 	eorcs	r0, r0, r8, asr r0

00009fd0 <GPFEN1>:
    9fd0:	2020005c 	eorcs	r0, r0, ip, asr r0

00009fd4 <GPEDS0>:
    9fd4:	20200040 	eorcs	r0, r0, r0, asr #32

00009fd8 <GPEDS1>:
    9fd8:	20200044 	eorcs	r0, r0, r4, asr #32

00009fdc <IRQ_PENDING_1>:
    9fdc:	2000b204 	andcs	fp, r0, r4, lsl #4

00009fe0 <gpio_clr0>:
    9fe0:	20200028 	eorcs	r0, r0, r8, lsr #32

00009fe4 <gpio_set0>:
    9fe4:	2020001c 	eorcs	r0, r0, ip, lsl r0

00009fe8 <gpio_fsel0>:
    9fe8:	20200000 	eorcs	r0, r0, r0

00009fec <AUX_ENABLES>:
    9fec:	20215004 	eorcs	r5, r1, r4

00009ff0 <AUX_MU_CNTL_REG>:
    9ff0:	20215060 	eorcs	r5, r1, r0, rrx

00009ff4 <AUX_MU_IER_REG>:
    9ff4:	20215044 	eorcs	r5, r1, r4, asr #32

00009ff8 <AUX_MU_IIR_REG>:
    9ff8:	20215048 	eorcs	r5, r1, r8, asr #32

00009ffc <AUX_MU_LCR_REG>:
    9ffc:	2021504c 	eorcs	r5, r1, ip, asr #32

0000a000 <AUX_MU_BAUD_REG>:
    a000:	20215068 	eorcs	r5, r1, r8, rrx

0000a004 <AUX_MU_LSR_REG>:
    a004:	20215054 	eorcs	r5, r1, r4, asr r0

0000a008 <AUX_MU_IO_REG>:
    a008:	20215040 	eorcs	r5, r1, r0, asr #32

0000a00c <AUX_MU_STAT_REG>:
    a00c:	20215064 	eorcs	r5, r1, r4, rrx

0000a010 <AUX_MU_SCRATCH>:
    a010:	2021505c 	eorcs	r5, r1, ip, asr r0

0000a014 <AUX_MU_MSR_REG>:
    a014:	20215058 	eorcs	r5, r1, r8, asr r0

0000a018 <AUX_MU_MCR_REG>:
    a018:	20215050 	eorcs	r5, r1, r0, asr r0

0000a01c <AUX_IRQ>:
    a01c:	20215000 	eorcs	r5, r1, r0

0000a020 <rpi_putchar>:
    a020:	00009f24 	andeq	r9, r0, r4, lsr #30

Disassembly of section .rodata:

0000a024 <__FUNCTION__.4285>:
    a024:	695f7163 	ldmdbvs	pc, {r0, r1, r5, r6, r8, ip, sp, lr}^	; <UNPREDICTABLE>
    a028:	0074696e 	rsbseq	r6, r4, lr, ror #18
    a02c:	494e4150 	stmdbmi	lr, {r4, r6, r8, lr}^
    a030:	73253a43 	teqvc	r5, #274432	; 0x43000
    a034:	3a73253a 	bcc	1cd3524 <__bss_end__+0x1cc4be4>
    a038:	633a6425 	teqvs	sl, #620756992	; 0x25000000
    a03c:	6d655f71 	stclvs	15, cr5, [r5, #-452]!	; 0xfffffe3c
    a040:	28797470 	ldmdacs	r9!, {r4, r5, r6, sl, ip, sp, lr}^
    a044:	000a2963 	andeq	r2, sl, r3, ror #18
    a048:	6573552f 	ldrbvs	r5, [r3, #-1327]!	; 0x52f
    a04c:	622f7372 	eorvs	r7, pc, #-939524095	; 0xc8000001
    a050:	6e616972 	mcrvs	9, 3, r6, cr1, cr2, {3}
    a054:	2f6e756a 	svccs	0x006e756a
    a058:	6b736544 	blvs	1ce3570 <__bss_end__+0x1cd4c30>
    a05c:	2f706f74 	svccs	0x00706f74
    a060:	6f686373 	svcvs	0x00686373
    a064:	572f6c6f 	strpl	r6, [pc, -pc, ror #24]!
    a068:	65746e69 	ldrbvs	r6, [r4, #-3689]!	; 0xe69
    a06c:	32393172 	eorscc	r3, r9, #-2147483620	; 0x8000001c
    a070:	53432f30 	movtpl	r2, #16176	; 0x3f30
    a074:	45303431 	ldrmi	r3, [r0, #-1073]!	; 0x431
    a078:	3173632f 	cmncc	r3, pc, lsr #6
    a07c:	2d653034 	stclcs	0, cr3, [r5, #-208]!	; 0xffffff30
    a080:	69773032 	ldmdbvs	r7!, {r1, r4, r5, ip, sp}^
    a084:	696c2f6e 	stmdbvs	ip!, {r1, r2, r3, r5, r6, r8, r9, sl, fp, sp}^
    a088:	2f697062 	svccs	0x00697062
    a08c:	6362696c 	cmnvs	r2, #108, 18	; 0x1b0000
    a090:	7269632f 	rsbvc	r6, r9, #-1140850688	; 0xbc000000
    a094:	616c7563 	cmnvs	ip, r3, ror #10
    a098:	00682e72 	rsbeq	r2, r8, r2, ror lr
    a09c:	494e4150 	stmdbmi	lr, {r4, r6, r8, lr}^
    a0a0:	73253a43 	teqvc	r5, #274432	; 0x43000
    a0a4:	3a73253a 	bcc	1cd3594 <__bss_end__+0x1cc4c54>
    a0a8:	213a6425 	teqcs	sl, r5, lsr #8
    a0ac:	665f7163 	ldrbvs	r7, [pc], -r3, ror #2
    a0b0:	286c6c75 	stmdacs	ip!, {r0, r2, r4, r5, r6, sl, fp, sp, lr}^
    a0b4:	000a2963 	andeq	r2, sl, r3, ror #18
    a0b8:	494e4150 	stmdbmi	lr, {r4, r6, r8, lr}^
    a0bc:	73253a43 	teqvc	r5, #274432	; 0x43000
    a0c0:	3a73253a 	bcc	1cd35b0 <__bss_end__+0x1cc4c70>
    a0c4:	633a6425 	teqvs	sl, #620756992	; 0x25000000
    a0c8:	656e5f71 	strbvs	r5, [lr, #-3953]!	; 0xf71
    a0cc:	286d656c 	stmdacs	sp!, {r2, r3, r5, r6, r8, sl, sp, lr}^
    a0d0:	3d202963 	stccc	9, cr2, [r0, #-396]!	; 0xfffffe74
    a0d4:	0a30203d 	beq	c121d0 <__bss_end__+0xc03890>
    a0d8:	00000000 	andeq	r0, r0, r0
    a0dc:	494e4150 	stmdbmi	lr, {r4, r6, r8, lr}^
    a0e0:	73253a43 	teqvc	r5, #274432	; 0x43000
    a0e4:	3a73253a 	bcc	1cd35d4 <__bss_end__+0x1cc4c94>
    a0e8:	633a6425 	teqvs	sl, #620756992	; 0x25000000
    a0ec:	6f705f71 	svcvs	0x00705f71
    a0f0:	6f6e5f70 	svcvs	0x006e5f70
    a0f4:	6f6c626e 	svcvs	0x006c626e
    a0f8:	63286b63 	teqvs	r8, #101376	; 0x18c00
    a0fc:	2965262c 	stmdbcs	r5!, {r2, r3, r5, r9, sl, sp}^
    a100:	203d3d20 	eorscs	r3, sp, r0, lsr #26
    a104:	26262030 			; <UNDEFINED> instruction: 0x26262030
    a108:	3d206520 	cfstr32cc	mvfx6, [r0, #-128]!	; 0xffffff80
    a10c:	7830203d 	ldmdavc	r0!, {r0, r2, r3, r4, r5, sp}
    a110:	000a3231 	andeq	r3, sl, r1, lsr r2

0000a114 <__FUNCTION__.4209>:
    a114:	74696d65 	strbtvc	r6, [r9], #-3429	; 0xd65
    a118:	00000000 	andeq	r0, r0, r0

0000a11c <__FUNCTION__.4157>:
    a11c:	5f697072 	svcpl	0x00697072
    a120:	5f746573 	svcpl	0x00746573
    a124:	7074756f 	rsbsvc	r7, r4, pc, ror #10
    a128:	00007475 	andeq	r7, r0, r5, ror r4

0000a12c <__FUNCTION__.4231>:
    a12c:	705f6176 	subsvc	r6, pc, r6, ror r1	; <UNPREDICTABLE>
    a130:	746e6972 	strbtvc	r6, [lr], #-2418	; 0x972
    a134:	0000006b 	andeq	r0, r0, fp, rrx
    a138:	494e4150 	stmdbmi	lr, {r4, r6, r8, lr}^
    a13c:	73253a43 	teqvc	r5, #274432	; 0x43000
    a140:	3a73253a 	bcc	1cd3630 <__bss_end__+0x1cc4cf0>
    a144:	303a6425 	eorscc	r6, sl, r5, lsr #8
    a148:	0000000a 	andeq	r0, r0, sl
    a14c:	6362696c 	cmnvs	r2, #108, 18	; 0x1b0000
    a150:	2d61762f 	stclcs	6, cr7, [r1, #-188]!	; 0xffffff44
    a154:	6e697270 	mcrvs	2, 3, r7, cr9, cr0, {3}
    a158:	632e6b74 	teqvs	lr, #116, 22	; 0x1d000
    a15c:	00000000 	andeq	r0, r0, r0
    a160:	33323130 	teqcc	r2, #48, 2
    a164:	37363534 			; <UNDEFINED> instruction: 0x37363534
    a168:	00003938 	andeq	r3, r0, r8, lsr r9
    a16c:	33323130 	teqcc	r2, #48, 2
    a170:	37363534 			; <UNDEFINED> instruction: 0x37363534
    a174:	62613938 	rsbvs	r3, r1, #56, 18	; 0xe0000
    a178:	66656463 	strbtvs	r6, [r5], -r3, ror #8
    a17c:	00000000 	andeq	r0, r0, r0
    a180:	00003130 	andeq	r3, r0, r0, lsr r1
    a184:	494e4150 	stmdbmi	lr, {r4, r6, r8, lr}^
    a188:	73253a43 	teqvc	r5, #274432	; 0x43000
    a18c:	3a73253a 	bcc	1cd367c <__bss_end__+0x1cc4d3c>
    a190:	703a6425 	eorsvc	r6, sl, r5, lsr #8
    a194:	5f637475 	svcpl	0x00637475
    a198:	000a7066 	andeq	r7, sl, r6, rrx
    a19c:	494e4150 	stmdbmi	lr, {r4, r6, r8, lr}^
    a1a0:	73253a43 	teqvc	r5, #274432	; 0x43000
    a1a4:	3a73253a 	bcc	1cd3694 <__bss_end__+0x1cc4d54>
    a1a8:	773a6425 	ldrvc	r6, [sl, -r5, lsr #8]!
    a1ac:	68746469 	ldmdavs	r4!, {r0, r3, r5, r6, sl, sp, lr}^
    a1b0:	33203c20 	teqcc	r0, #32, 24	; 0x2000
    a1b4:	00000a32 	andeq	r0, r0, r2, lsr sl
    a1b8:	494e4150 	stmdbmi	lr, {r4, r6, r8, lr}^
    a1bc:	73253a43 	teqvc	r5, #274432	; 0x43000
    a1c0:	3a73253a 	bcc	1cd36b0 <__bss_end__+0x1cc4d70>
    a1c4:	663a6425 	ldrtvs	r6, [sl], -r5, lsr #8
    a1c8:	74616f6c 	strbtvc	r6, [r1], #-3948	; 0xf6c
    a1cc:	746f6e20 	strbtvc	r6, [pc], #-3616	; a1d4 <__FUNCTION__.4231+0xa8>
    a1d0:	616e6520 	cmnvs	lr, r0, lsr #10
    a1d4:	64656c62 	strbtvs	r6, [r5], #-3170	; 0xc62
    a1d8:	0a212121 	beq	852664 <__bss_end__+0x843d24>
    a1dc:	00000000 	andeq	r0, r0, r0
    a1e0:	494e4150 	stmdbmi	lr, {r4, r6, r8, lr}^
    a1e4:	73253a43 	teqvc	r5, #274432	; 0x43000
    a1e8:	3a73253a 	bcc	1cd36d8 <__bss_end__+0x1cc4d98>
    a1ec:	703a6425 	eorsvc	r6, sl, r5, lsr #8
    a1f0:	746e6972 	strbtvc	r6, [lr], #-2418	; 0x972
    a1f4:	6e203a6b 	vnmulvs.f32	s6, s0, s23
    a1f8:	6820746f 	stmdavs	r0!, {r0, r1, r2, r3, r5, r6, sl, ip, sp, lr}
    a1fc:	6c646e61 	stclvs	14, cr6, [r4], #-388	; 0xfffffe7c
    a200:	20676e69 	rsbcs	r6, r7, r9, ror #28
    a204:	63657073 	cmnvs	r5, #115	; 0x73
    a208:	65696669 	strbvs	r6, [r9, #-1641]!	; 0x669
    a20c:	25272072 	strcs	r2, [r7, #-114]!	; 0x72
    a210:	0a0a2763 	beq	293fa4 <__bss_end__+0x285664>
    a214:	00000000 	andeq	r0, r0, r0
    a218:	454e4f44 	strbmi	r4, [lr, #-3908]	; 0xf44
    a21c:	0a212121 	beq	8526a8 <__bss_end__+0x843d68>
    a220:	00000000 	andeq	r0, r0, r0
    a224:	756f6261 	strbvc	r6, [pc, #-609]!	; 9fcb <ENABLE_IRQS_2+0x3>
    a228:	6f742074 	svcvs	0x00742074
    a22c:	69727020 	ldmdbvs	r2!, {r5, ip, sp, lr}^
    a230:	6f20746e 	svcvs	0x0020746e
    a234:	6572206e 	ldrbvs	r2, [r2, #-110]!	; 0x6e
    a238:	616c7567 	cmnvs	ip, r7, ror #10
    a23c:	72702072 	rsbsvc	r2, r0, #114	; 0x72
    a240:	66746e69 	ldrbtvs	r6, [r4], -r9, ror #28
    a244:	0000000a 	andeq	r0, r0, sl
    a248:	63637573 	cmnvs	r3, #482344960	; 0x1cc00000
    a24c:	21737365 	cmncs	r3, r5, ror #6
    a250:	0000000a 	andeq	r0, r0, sl

0000a254 <__FUNCTION__.4258>:
    a254:	755f7773 	ldrbvc	r7, [pc, #-1907]	; 9ae9 <uart_init+0x25>
    a258:	5f747261 	svcpl	0x00747261
    a25c:	73746567 	cmnvc	r4, #432013312	; 0x19c00000
    a260:	746e755f 	strbtvc	r7, [lr], #-1375	; 0x55f
    a264:	00006c69 	andeq	r6, r0, r9, ror #24

0000a268 <__FUNCTION__.4270>:
    a268:	755f7773 	ldrbvc	r7, [pc, #-1907]	; 9afd <uart_init+0x39>
    a26c:	5f747261 	svcpl	0x00747261
    a270:	73746567 	cmnvc	r4, #432013312	; 0x19c00000
    a274:	6d69745f 	cfstrdvs	mvd7, [r9, #-380]!	; 0xfffffe84
    a278:	74756f65 	ldrbtvc	r6, [r5], #-3941	; 0xf65
    a27c:	00000000 	andeq	r0, r0, r0

0000a280 <__FUNCTION__.4284>:
    a280:	755f7773 	ldrbvc	r7, [pc, #-1907]	; 9b15 <uart_init+0x51>
    a284:	5f747261 	svcpl	0x00747261
    a288:	74696e69 	strbtvc	r6, [r9], #-3689	; 0xe69
    a28c:	6c65685f 	stclvs	8, cr6, [r5], #-380	; 0xfffffe84
    a290:	00726570 	rsbseq	r6, r2, r0, ror r5

0000a294 <__FUNCTION__.4290>:
    a294:	755f7773 	ldrbvc	r7, [pc, #-1907]	; 9b29 <uart_init+0x65>
    a298:	5f747261 	svcpl	0x00747261
    a29c:	63746567 	cmnvs	r4, #432013312	; 0x19c00000
    a2a0:	00000000 	andeq	r0, r0, r0

0000a2a4 <__FUNCTION__.4312>:
    a2a4:	755f7773 	ldrbvc	r7, [pc, #-1907]	; 9b39 <uart_init+0x75>
    a2a8:	5f747261 	svcpl	0x00747261
    a2ac:	6e697270 	mcrvs	2, 3, r7, cr9, cr0, {3}
    a2b0:	00006b74 	andeq	r6, r0, r4, ror fp

0000a2b4 <__FUNCTION__.4320>:
    a2b4:	755f7773 	ldrbvc	r7, [pc, #-1907]	; 9b49 <uart_init+0x85>
    a2b8:	5f747261 	svcpl	0x00747261
    a2bc:	73746567 	cmnvc	r4, #432013312	; 0x19c00000
    a2c0:	746e755f 	strbtvc	r7, [lr], #-1375	; 0x55f
    a2c4:	625f6c69 	subsvs	r6, pc, #26880	; 0x6900
    a2c8:	00006b6c 	andeq	r6, r0, ip, ror #22
    a2cc:	494e4150 	stmdbmi	lr, {r4, r6, r8, lr}^
    a2d0:	73253a43 	teqvc	r5, #274432	; 0x43000
    a2d4:	3a73253a 	bcc	1cd37c4 <__bss_end__+0x1cc4e84>
    a2d8:	6e3a6425 	cdpvs	4, 3, cr6, cr10, cr5, {1}
    a2dc:	65747962 	ldrbvs	r7, [r4, #-2402]!	; 0x962
    a2e0:	0a303e73 	beq	c19cb4 <__bss_end__+0xc0b374>
    a2e4:	00000000 	andeq	r0, r0, r0
    a2e8:	732d796d 	teqvc	sp, #1785856	; 0x1b4000
    a2ec:	732f6372 	teqvc	pc, #-939524095	; 0xc8000001
    a2f0:	61752d77 	cmnvs	r5, r7, ror sp
    a2f4:	632e7472 	teqvs	lr, #1912602624	; 0x72000000
    a2f8:	00000000 	andeq	r0, r0, r0
    a2fc:	494e4150 	stmdbmi	lr, {r4, r6, r8, lr}^
    a300:	73253a43 	teqvc	r5, #274432	; 0x43000
    a304:	3a73253a 	bcc	1cd37f4 <__bss_end__+0x1cc4eb4>
    a308:	283a6425 	ldmdacs	sl!, {r0, r2, r5, sl, sp, lr}
    a30c:	207a686d 	rsbscs	r6, sl, sp, ror #16
    a310:	6162202d 	cmnvs	r2, sp, lsr #32
    a314:	20296475 	eorcs	r6, r9, r5, ror r4
    a318:	64203d3c 	strtvs	r3, [r0], #-3388	; 0xd3c
    a31c:	76697265 	strbtvc	r7, [r9], -r5, ror #4
    a320:	26206465 	strtcs	r6, [r0], -r5, ror #8
    a324:	65642026 	strbvs	r2, [r4, #-38]!	; 0x26
    a328:	65766972 	ldrbvs	r6, [r6, #-2418]!	; 0x972
    a32c:	3d3c2064 	ldccc	0, cr2, [ip, #-400]!	; 0xfffffe70
    a330:	686d2820 	stmdavs	sp!, {r5, fp, sp}^
    a334:	202b207a 	eorcs	r2, fp, sl, ror r0
    a338:	64756162 	ldrbtvs	r6, [r5], #-354	; 0x162
    a33c:	00000a29 	andeq	r0, r0, r9, lsr #20
    a340:	494e4150 	stmdbmi	lr, {r4, r6, r8, lr}^
    a344:	73253a43 	teqvc	r5, #274432	; 0x43000
    a348:	3a73253a 	bcc	1cd3838 <__bss_end__+0x1cc4ef8>
    a34c:	693a6425 	ldmdbvs	sl!, {r0, r2, r5, sl, sp, lr}
    a350:	736f706d 	cmnvc	pc, #109	; 0x6d
    a354:	6c626973 	stclvs	9, cr6, [r2], #-460	; 0xfffffe34
    a358:	68203a65 	stmdavs	r0!, {r0, r2, r5, r6, r9, fp, ip, sp}
    a35c:	20657661 	rsbcs	r7, r5, r1, ror #12
    a360:	69206e61 	stmdbvs	r0!, {r0, r5, r6, r9, sl, fp, sp, lr}
    a364:	6e69666e 	cdpvs	6, 6, cr6, cr9, cr14, {3}
    a368:	20657469 	rsbcs	r7, r5, r9, ror #8
    a36c:	656d6974 	strbvs	r6, [sp, #-2420]!	; 0x974
    a370:	2174756f 	cmncs	r4, pc, ror #10
    a374:	00000a0a 	andeq	r0, r0, sl, lsl #20
    a378:	494e4150 	stmdbmi	lr, {r4, r6, r8, lr}^
    a37c:	73253a43 	teqvc	r5, #274432	; 0x43000
    a380:	3a73253a 	bcc	1cd3870 <__bss_end__+0x1cc4f30>
    a384:	733a6425 	teqvc	sl, #620756992	; 0x25000000
    a388:	203c207a 	eorscs	r2, ip, sl, ror r0
    a38c:	657a6973 	ldrbvs	r6, [sl, #-2419]!	; 0x973
    a390:	6220666f 	eorvs	r6, r0, #116391936	; 0x6f00000
    a394:	312d6675 	teqcc	sp, r5, ror r6
    a398:	0000000a 	andeq	r0, r0, sl

0000a39c <__FUNCTION__.4182>:
    a39c:	74736166 	ldrbtvc	r6, [r3], #-358	; 0x166
    a3a0:	746e695f 	strbtvc	r6, [lr], #-2399	; 0x95f
    a3a4:	75727265 	ldrbvc	r7, [r2, #-613]!	; 0x265
    a3a8:	765f7470 			; <UNDEFINED> instruction: 0x765f7470
    a3ac:	6f746365 	svcvs	0x00746365
    a3b0:	00000072 	andeq	r0, r0, r2, ror r0

0000a3b4 <__FUNCTION__.4186>:
    a3b4:	74666f73 	strbtvc	r6, [r6], #-3955	; 0xf73
    a3b8:	65726177 	ldrbvs	r6, [r2, #-375]!	; 0x177
    a3bc:	746e695f 	strbtvc	r6, [lr], #-2399	; 0x95f
    a3c0:	75727265 	ldrbvc	r7, [r2, #-613]!	; 0x265
    a3c4:	765f7470 			; <UNDEFINED> instruction: 0x765f7470
    a3c8:	6f746365 	svcvs	0x00746365
    a3cc:	00000072 	andeq	r0, r0, r2, ror r0

0000a3d0 <__FUNCTION__.4190>:
    a3d0:	65736572 	ldrbvs	r6, [r3, #-1394]!	; 0x572
    a3d4:	65765f74 	ldrbvs	r5, [r6, #-3956]!	; 0xf74
    a3d8:	726f7463 	rsbvc	r7, pc, #1660944384	; 0x63000000
    a3dc:	00000000 	andeq	r0, r0, r0

0000a3e0 <__FUNCTION__.4194>:
    a3e0:	65646e75 	strbvs	r6, [r4, #-3701]!	; 0xe75
    a3e4:	656e6966 	strbvs	r6, [lr, #-2406]!	; 0x966
    a3e8:	6e695f64 	cdpvs	15, 6, cr5, cr9, cr4, {3}
    a3ec:	75727473 	ldrbvc	r7, [r2, #-1139]!	; 0x473
    a3f0:	6f697463 	svcvs	0x00697463
    a3f4:	65765f6e 	ldrbvs	r5, [r6, #-3950]!	; 0xf6e
    a3f8:	726f7463 	rsbvc	r7, pc, #1660944384	; 0x63000000
    a3fc:	00000000 	andeq	r0, r0, r0

0000a400 <__FUNCTION__.4198>:
    a400:	66657270 			; <UNDEFINED> instruction: 0x66657270
    a404:	68637465 	stmdavs	r3!, {r0, r2, r5, r6, sl, ip, sp, lr}^
    a408:	6f62615f 	svcvs	0x0062615f
    a40c:	765f7472 			; <UNDEFINED> instruction: 0x765f7472
    a410:	6f746365 	svcvs	0x00746365
    a414:	00000072 	andeq	r0, r0, r2, ror r0

0000a418 <__FUNCTION__.4202>:
    a418:	61746164 	cmnvs	r4, r4, ror #2
    a41c:	6f62615f 	svcvs	0x0062615f
    a420:	765f7472 			; <UNDEFINED> instruction: 0x765f7472
    a424:	6f746365 	svcvs	0x00746365
    a428:	00000072 	andeq	r0, r0, r2, ror r0
    a42c:	494e4150 	stmdbmi	lr, {r4, r6, r8, lr}^
    a430:	73253a43 	teqvc	r5, #274432	; 0x43000
    a434:	3a73253a 	bcc	1cd3924 <__bss_end__+0x1cc4fe4>
    a438:	453a6425 	ldrmi	r6, [sl, #-1061]!	; 0x425
    a43c:	524f5252 	subpl	r5, pc, #536870917	; 0x20000005
    a440:	6e75203a 	mrcvs	0, 3, r2, cr5, cr10, {1}
    a444:	646e6168 	strbtvs	r6, [lr], #-360	; 0x168
    a448:	2064656c 	rsbcs	r6, r4, ip, ror #10
    a44c:	65637865 	strbvs	r7, [r3, #-2149]!	; 0x865
    a450:	6f697470 	svcvs	0x00697470
    a454:	253c206e 	ldrcs	r2, [ip, #-110]!	; 0x6e
    a458:	61203e73 	teqvs	r0, r3, ror lr
    a45c:	43502074 	cmpmi	r0, #116	; 0x74
    a460:	0a78253d 	beq	1e1395c <__bss_end__+0x1e0501c>
    a464:	0000000a 	andeq	r0, r0, sl
    a468:	34317363 	ldrtcc	r7, [r1], #-867	; 0x363
    a46c:	692d6530 	pushvs	{r4, r5, r8, sl, sp, lr}
    a470:	7265746e 	rsbvc	r7, r5, #1845493760	; 0x6e000000
    a474:	74707572 	ldrbtvc	r7, [r0], #-1394	; 0x572
    a478:	746e692f 	strbtvc	r6, [lr], #-2351	; 0x92f
    a47c:	75727265 	ldrbvc	r7, [r2, #-613]!	; 0x265
    a480:	2d737470 	cfldrdcs	mvd7, [r3, #-448]!	; 0xfffffe40
    a484:	00632e63 	rsbeq	r2, r3, r3, ror #28
    a488:	74736166 	ldrbtvc	r6, [r3], #-358	; 0x166
    a48c:	00000000 	andeq	r0, r0, r0
    a490:	74666f73 	strbtvc	r6, [r6], #-3955	; 0xf73
    a494:	746e6920 	strbtvc	r6, [lr], #-2336	; 0x920
    a498:	75727265 	ldrbvc	r7, [r2, #-613]!	; 0x265
    a49c:	00007470 	andeq	r7, r0, r0, ror r4
    a4a0:	65736572 	ldrbvs	r6, [r3, #-1394]!	; 0x572
    a4a4:	65762074 	ldrbvs	r2, [r6, #-116]!	; 0x74
    a4a8:	726f7463 	rsbvc	r7, pc, #1660944384	; 0x63000000
    a4ac:	00000000 	andeq	r0, r0, r0
    a4b0:	65646e75 	strbvs	r6, [r4, #-3701]!	; 0xe75
    a4b4:	656e6966 	strbvs	r6, [lr, #-2406]!	; 0x966
    a4b8:	6e692064 	cdpvs	0, 6, cr2, cr9, cr4, {3}
    a4bc:	75727473 	ldrbvc	r7, [r2, #-1139]!	; 0x473
    a4c0:	6f697463 	svcvs	0x00697463
    a4c4:	0000006e 	andeq	r0, r0, lr, rrx
    a4c8:	66657270 			; <UNDEFINED> instruction: 0x66657270
    a4cc:	68637465 	stmdavs	r3!, {r0, r2, r5, r6, sl, ip, sp, lr}^
    a4d0:	6f626120 	svcvs	0x00626120
    a4d4:	00007472 	andeq	r7, r0, r2, ror r4
    a4d8:	61746164 	cmnvs	r4, r4, ror #2
    a4dc:	6f626120 	svcvs	0x00626120
    a4e0:	00007472 	andeq	r7, r0, r2, ror r4

Disassembly of section .bss:

0000a4e4 <__bss_start__>:
	...

0000c4f8 <putQ>:
	...

0000e50c <in_data>:
    e50c:	00000000 	andeq	r0, r0, r0

0000e510 <sw_uart>:
	...

0000e51c <debug_flag>:
    e51c:	00000000 	andeq	r0, r0, r0

0000e520 <timeout>:
    e520:	00000000 	andeq	r0, r0, r0

0000e524 <ninterrupt>:
    e524:	00000000 	andeq	r0, r0, r0

0000e528 <num_tx>:
    e528:	00000000 	andeq	r0, r0, r0

0000e52c <tx_count>:
    e52c:	00000000 	andeq	r0, r0, r0

0000e530 <buf.4157>:
	...

0000e930 <console_uart>:
	...

0000e93c <rpi_arm_timer_t>:
    e93c:	00000000 	andeq	r0, r0, r0

Disassembly of section .ARM.attributes:

00000000 <.ARM.attributes>:
   0:	00002a41 	andeq	r2, r0, r1, asr #20
   4:	61656100 	cmnvs	r5, r0, lsl #2
   8:	01006962 	tsteq	r0, r2, ror #18
   c:	00000020 	andeq	r0, r0, r0, lsr #32
  10:	4b5a3605 	blmi	168d82c <__bss_end__+0x167eeec>
  14:	08070600 	stmdaeq	r7, {r9, sl}
  18:	12010901 	andne	r0, r1, #16384	; 0x4000
  1c:	15011404 	strne	r1, [r1, #-1028]	; 0x404
  20:	18031701 	stmdane	r3, {r0, r8, r9, sl, ip}
  24:	22011a01 	andcs	r1, r1, #4096	; 0x1000
  28:	Address 0x0000000000000028 is out of bounds.


Disassembly of section .comment:

00000000 <.comment>:
   0:	3a434347 	bcc	10d0d24 <__bss_end__+0x10c23e4>
   4:	4e472820 	cdpmi	8, 4, cr2, cr7, cr0, {1}
   8:	34202955 	strtcc	r2, [r0], #-2389	; 0x955
   c:	332e382e 	teqcc	lr, #3014656	; 0x2e0000
	...

Disassembly of section .debug_info:

00000000 <.debug_info>:
       0:	0000107d 	andeq	r1, r0, sp, ror r0
       4:	00000004 	andeq	r0, r0, r4
       8:	01040000 	mrseq	r0, (UNDEF: 4)
       c:	000003a2 	andeq	r0, r0, r2, lsr #7
      10:	00054001 	andeq	r4, r5, r1
      14:	0001b800 	andeq	fp, r1, r0, lsl #16
      18:	00801000 	addeq	r1, r0, r0
      1c:	00076000 	andeq	r6, r7, r0
      20:	00000000 	andeq	r0, r0, r0
      24:	05040200 	streq	r0, [r4, #-512]	; 0x200
      28:	00746e69 	rsbseq	r6, r4, r9, ror #28
      2c:	00000e03 	andeq	r0, r0, r3, lsl #28
      30:	37d40300 	ldrbcc	r0, [r4, r0, lsl #6]
      34:	04000000 	streq	r0, [r0], #-0
      38:	00640704 	rsbeq	r0, r4, r4, lsl #14
      3c:	01040000 	mrseq	r0, (UNDEF: 4)
      40:	00035606 	andeq	r5, r3, r6, lsl #12
      44:	05020400 	streq	r0, [r2, #-1024]	; 0x400
      48:	0000036a 	andeq	r0, r0, sl, ror #6
      4c:	a3050404 	movwge	r0, #21508	; 0x5404
      50:	04000000 	streq	r0, [r0], #-0
      54:	009e0508 	addseq	r0, lr, r8, lsl #10
      58:	a4030000 	strge	r0, [r3], #-0
      5c:	04000004 	streq	r0, [r0], #-4
      60:	0000652e 	andeq	r6, r0, lr, lsr #10
      64:	08010400 	stmdaeq	r1, {sl}
      68:	00000354 	andeq	r0, r0, r4, asr r3
      6c:	1f070204 	svcne	0x00070204
      70:	03000002 	movweq	r0, #2
      74:	00000394 	muleq	r0, r4, r3
      78:	007e3404 	rsbseq	r3, lr, r4, lsl #8
      7c:	04040000 	streq	r0, [r4], #-0
      80:	00005f07 	andeq	r5, r0, r7, lsl #30
      84:	07080400 	streq	r0, [r8, -r0, lsl #8]
      88:	0000005a 	andeq	r0, r0, sl, asr r0
      8c:	a8070404 	stmdage	r7, {r2, sl}
      90:	05000002 	streq	r0, [r0, #-2]
      94:	08010404 	stmdaeq	r1, {r2, sl}
      98:	0000035d 	andeq	r0, r0, sp, asr r3
      9c:	00a20406 	adceq	r0, r2, r6, lsl #8
      a0:	95070000 	strls	r0, [r7, #-0]
      a4:	08000000 	stmdaeq	r0, {}	; <UNPREDICTABLE>
      a8:	00000095 	muleq	r0, r5, r0
      ac:	000000b7 	strheq	r0, [r0], -r7
      b0:	00008c09 	andeq	r8, r0, r9, lsl #24
      b4:	0a000700 	beq	1cbc <_start-0x6344>
      b8:	f00c0501 			; <UNDEFINED> instruction: 0xf00c0501
      bc:	0b000000 	bleq	c4 <_start-0x7f3c>
      c0:	00000077 	andeq	r0, r0, r7, ror r0
      c4:	04930b00 	ldreq	r0, [r3], #2816	; 0xb00
      c8:	0b010000 	bleq	400d0 <__bss_end__+0x31790>
      cc:	000004d0 	ldrdeq	r0, [r0], -r0	; <UNPREDICTABLE>
      d0:	04df0b04 	ldrbeq	r0, [pc], #2820	; d8 <_start-0x7f28>
      d4:	0b050000 	bleq	1400dc <__bss_end__+0x13179c>
      d8:	000004ee 	andeq	r0, r0, lr, ror #9
      dc:	04fd0b06 	ldrbteq	r0, [sp], #2822	; 0xb06
      e0:	0b070000 	bleq	1c00e8 <__bss_end__+0x1b17a8>
      e4:	0000050c 	andeq	r0, r0, ip, lsl #10
      e8:	051b0b03 	ldreq	r0, [fp, #-2819]	; 0xb03
      ec:	00020000 	andeq	r0, r2, r0
      f0:	0004b203 	andeq	fp, r4, r3, lsl #4
      f4:	b7150500 	ldrlt	r0, [r5, -r0, lsl #10]
      f8:	0a000000 	beq	100 <_start-0x7f00>
      fc:	68330604 	ldmdavs	r3!, {r2, r9, sl}
     100:	0b000001 	bleq	10c <_start-0x7ef4>
     104:	000000f5 	strdeq	r0, [r0], -r5
     108:	8082e880 	addhi	lr, r2, r0, lsl #17
     10c:	00e60b02 	rsceq	r0, r6, r2, lsl #22
     110:	e8800000 	stm	r0, {}	; <UNPREDICTABLE>
     114:	0b028082 	bleq	a0324 <__bss_end__+0x919e4>
     118:	00000447 	andeq	r0, r0, r7, asr #8
     11c:	8082e884 	addhi	lr, r2, r4, lsl #17
     120:	00d40b02 	sbcseq	r0, r4, r2, lsl #22
     124:	e8880000 	stm	r8, {}	; <UNPREDICTABLE>
     128:	0b028082 	bleq	a0338 <__bss_end__+0x919f8>
     12c:	00000457 	andeq	r0, r0, r7, asr r4
     130:	8082e88c 	addhi	lr, r2, ip, lsl #17
     134:	00490b02 	subeq	r0, r9, r2, lsl #22
     138:	e8900000 	ldm	r0, {}	; <UNPREDICTABLE>
     13c:	0b028082 	bleq	a034c <__bss_end__+0x91a0c>
     140:	00000159 	andeq	r0, r0, r9, asr r1
     144:	8082e894 	umullhi	lr, r2, r4, r8
     148:	02db0b02 	sbcseq	r0, fp, #2048	; 0x800
     14c:	e8980000 	ldm	r8, {}	; <UNPREDICTABLE>
     150:	0b028082 	bleq	a0360 <__bss_end__+0x91a20>
     154:	00000432 	andeq	r0, r0, r2, lsr r4
     158:	8082e89c 	umullhi	lr, r2, ip, r8
     15c:	05720b02 	ldrbeq	r0, [r2, #-2818]!	; 0xb02
     160:	e8a00000 	stmia	r0!, {}	; <UNPREDICTABLE>
     164:	00028082 	andeq	r8, r2, r2, lsl #1
     168:	00038403 	andeq	r8, r3, r3, lsl #8
     16c:	651c0100 	ldrvs	r0, [ip, #-256]	; 0x100
     170:	0c000000 	stceq	0, cr0, [r0], {-0}
     174:	28012014 	stmdacs	r1, {r2, r4, sp}
     178:	000001cd 	andeq	r0, r0, sp, asr #3
     17c:	0000710d 	andeq	r7, r0, sp, lsl #2
     180:	de2a0100 	suflee	f0, f2, f0
     184:	00000001 	andeq	r0, r0, r1
     188:	0003f90e 	andeq	pc, r3, lr, lsl #18
     18c:	372b0100 	strcc	r0, [fp, -r0, lsl #2]!
     190:	00000000 	andeq	r0, r0, r0
     194:	038f0e20 	orreq	r0, pc, #32, 28	; 0x200
     198:	2c010000 	stccs	0, cr0, [r1], {-0}
     19c:	000001e3 	andeq	r0, r0, r3, ror #3
     1a0:	a30e2004 	movwge	r2, #57348	; 0xe004
     1a4:	01000002 	tsteq	r0, r2
     1a8:	0001e32c 	andeq	lr, r1, ip, lsr #6
     1ac:	0e200800 	cdpeq	8, 2, cr0, cr0, cr0, {0}
     1b0:	0000040f 	andeq	r0, r0, pc, lsl #8
     1b4:	01e32f01 	mvneq	r2, r1, lsl #30
     1b8:	200c0000 	andcs	r0, ip, r0
     1bc:	0000230f 	andeq	r2, r0, pc, lsl #6
     1c0:	37310100 	ldrcc	r0, [r1, -r0, lsl #2]!
     1c4:	04000000 	streq	r0, [r0], #-0
     1c8:	20101f01 	andscs	r1, r0, r1, lsl #30
     1cc:	01680800 	cmneq	r8, r0, lsl #16
     1d0:	01de0000 	bicseq	r0, lr, r0
     1d4:	8c100000 	ldchi	0, cr0, [r0], {-0}
     1d8:	ff000000 			; <UNDEFINED> instruction: 0xff000000
     1dc:	cd11001f 	ldcgt	0, cr0, [r1, #-124]	; 0xffffff84
     1e0:	11000001 	tstne	r0, r1
     1e4:	00000037 	andeq	r0, r0, r7, lsr r0
     1e8:	00047103 	andeq	r7, r4, r3, lsl #2
     1ec:	73320100 	teqvc	r2, #0, 2
     1f0:	12000001 	andne	r0, r0, #1
     1f4:	2a0e070c 	bcs	381e2c <__bss_end__+0x3734ec>
     1f8:	13000002 	movwne	r0, #2
     1fc:	07007874 	smlsdxeq	r0, r4, r8, r7
     200:	00005a0f 	andeq	r5, r0, pc, lsl #20
     204:	72130000 	andsvc	r0, r3, #0
     208:	0f070078 	svceq	0x00070078
     20c:	0000005a 	andeq	r0, r0, sl, asr r0
     210:	039d0d01 	orrseq	r0, sp, #1, 26	; 0x40
     214:	10070000 	andne	r0, r7, r0
     218:	00000073 	andeq	r0, r0, r3, ror r0
     21c:	00900d04 	addseq	r0, r0, r4, lsl #26
     220:	11070000 	mrsne	r0, (UNDEF: 7)
     224:	00000073 	andeq	r0, r0, r3, ror r0
     228:	38030008 	stmdacc	r3, {r3}
     22c:	07000003 	streq	r0, [r0, -r3]
     230:	0001f312 	andeq	pc, r1, r2, lsl r3	; <UNPREDICTABLE>
     234:	00871400 	addeq	r1, r7, r0, lsl #8
     238:	39010000 	stmdbcc	r1, {}	; <UNPREDICTABLE>
     23c:	00000025 	andeq	r0, r0, r5, lsr #32
     240:	00024f03 	andeq	r4, r2, r3, lsl #30
     244:	00711500 	rsbseq	r1, r1, r0, lsl #10
     248:	024f3901 	subeq	r3, pc, #16384	; 0x4000
     24c:	06000000 	streq	r0, [r0], -r0
     250:	0001e804 	andeq	lr, r1, r4, lsl #16
     254:	056a1400 	strbeq	r1, [sl, #-1024]!	; 0x400
     258:	3c010000 	stccc	0, cr0, [r1], {-0}
     25c:	00000025 	andeq	r0, r0, r5, lsr #32
     260:	00026f03 	andeq	r6, r2, r3, lsl #30
     264:	00711500 	rsbseq	r1, r1, r0, lsl #10
     268:	024f3c01 	subeq	r3, pc, #256	; 0x100
     26c:	14000000 	strne	r0, [r0], #-0
     270:	000001af 	andeq	r0, r0, pc, lsr #3
     274:	00373e01 	eorseq	r3, r7, r1, lsl #28
     278:	89030000 	stmdbhi	r3, {}	; <UNPREDICTABLE>
     27c:	15000002 	strne	r0, [r0, #-2]
     280:	3e010071 	mcrcc	0, 0, r0, cr1, cr1, {3}
     284:	0000024f 	andeq	r0, r0, pc, asr #4
     288:	02cb1400 	sbceq	r1, fp, #0, 8
     28c:	42010000 	andmi	r0, r1, #0
     290:	00000025 	andeq	r0, r0, r5, lsr #32
     294:	0002b703 	andeq	fp, r2, r3, lsl #14
     298:	00631500 	rsbeq	r1, r3, r0, lsl #10
     29c:	024f4201 	subeq	r4, pc, #268435456	; 0x10000000
     2a0:	65150000 	ldrvs	r0, [r5, #-0]
     2a4:	b7420100 	strblt	r0, [r2, -r0, lsl #2]
     2a8:	16000002 	strne	r0, [r0], -r2
     2ac:	000002a3 	andeq	r0, r0, r3, lsr #5
     2b0:	00374501 	eorseq	r4, r7, r1, lsl #10
     2b4:	06000000 	streq	r0, [r0], -r0
     2b8:	00016804 	andeq	r6, r1, r4, lsl #16
     2bc:	041e1400 	ldreq	r1, [lr], #-1024	; 0x400
     2c0:	56010000 	strpl	r0, [r1], -r0
     2c4:	00000025 	andeq	r0, r0, r5, lsr #32
     2c8:	0002eb03 	andeq	lr, r2, r3, lsl #22
     2cc:	00631500 	rsbeq	r1, r3, r0, lsl #10
     2d0:	024f5601 	subeq	r5, pc, #1048576	; 0x100000
     2d4:	78150000 	ldmdavc	r5, {}	; <UNPREDICTABLE>
     2d8:	68560100 	ldmdavs	r6, {r8}^
     2dc:	16000001 	strne	r0, [r0], -r1
     2e0:	0000038f 	andeq	r0, r0, pc, lsl #7
     2e4:	00375701 	eorseq	r5, r7, r1, lsl #14
     2e8:	17000000 	strne	r0, [r0, -r0]
     2ec:	000002ec 	andeq	r0, r0, ip, ror #5
     2f0:	80109901 	andshi	r9, r0, r1, lsl #18
     2f4:	01a40000 			; <UNDEFINED> instruction: 0x01a40000
     2f8:	9c010000 	stcls	0, cr0, [r1], {-0}
     2fc:	000004d7 	ldrdeq	r0, [r0], -r7
     300:	01006318 	tsteq	r0, r8, lsl r3
     304:	00024f99 	muleq	r2, r9, pc	; <UNPREDICTABLE>
     308:	00000000 	andeq	r0, r0, r0
     30c:	00231900 	eoreq	r1, r3, r0, lsl #18
     310:	99010000 	stmdbls	r1, {}	; <UNPREDICTABLE>
     314:	00000037 	andeq	r0, r0, r7, lsr r0
     318:	0000001e 	andeq	r0, r0, lr, lsl r0
     31c:	0001931a 	andeq	r9, r1, sl, lsl r3
     320:	0004d700 	andeq	sp, r4, r0, lsl #14
     324:	24030500 	strcs	r0, [r3], #-1280	; 0x500
     328:	1b0000a0 	blne	5b0 <_start-0x7a50>
     32c:	a2010065 	andge	r0, r1, #101	; 0x65
     330:	00000168 	andeq	r0, r0, r8, ror #2
     334:	0000004a 	andeq	r0, r0, sl, asr #32
     338:	0002351c 	andeq	r3, r2, ip, lsl r5
     33c:	00806800 	addeq	r6, r0, r0, lsl #16
     340:	00000800 	andeq	r0, r0, r0, lsl #16
     344:	539f0100 	orrspl	r0, pc, #0, 2
     348:	1d000003 	stcne	0, cr0, [r0, #-12]
     34c:	00000245 	andeq	r0, r0, r5, asr #4
     350:	1c005401 	cfstrsne	mvf5, [r0], {1}
     354:	00000255 	andeq	r0, r0, r5, asr r2
     358:	00008090 	muleq	r0, r0, r0
     35c:	00000018 	andeq	r0, r0, r8, lsl r0
     360:	036ea001 	cmneq	lr, #1
     364:	651d0000 	ldrvs	r0, [sp, #-0]
     368:	01000002 	tsteq	r0, r2
     36c:	6f1c0054 	svcvs	0x001c0054
     370:	c8000002 	stmdagt	r0, {r1}
     374:	14000080 	strne	r0, [r0], #-128	; 0x80
     378:	01000000 	mrseq	r0, (UNDEF: 0)
     37c:	000389a1 	andeq	r8, r3, r1, lsr #19
     380:	027f1d00 	rsbseq	r1, pc, #0, 26
     384:	54010000 	strpl	r0, [r1], #-0
     388:	02891e00 	addeq	r1, r9, #0, 28
     38c:	80fc0000 	rscshi	r0, ip, r0
     390:	00000000 	andeq	r0, r0, r0
     394:	a3010000 	movwge	r0, #4096	; 0x1000
     398:	000003d6 	ldrdeq	r0, [r0], -r6
     39c:	0002a21d 	andeq	sl, r2, sp, lsl r2
     3a0:	2bf20600 	blcs	ffc81ba8 <__bss_end__+0xffc73268>
     3a4:	00000003 	andeq	r0, r0, r3
     3a8:	0002991d 	andeq	r9, r2, sp, lsl r9
     3ac:	1f540100 	svcne	0x00540100
     3b0:	00000000 	andeq	r0, r0, r0
     3b4:	0002ab20 	andeq	sl, r2, r0, lsr #22
     3b8:	00008000 	andeq	r8, r0, r0
     3bc:	02352100 	eorseq	r2, r5, #0, 2
     3c0:	80fc0000 	rscshi	r0, ip, r0
     3c4:	00100000 	andseq	r0, r0, r0
     3c8:	43010000 	movwmi	r0, #4096	; 0x1000
     3cc:	0002451d 	andeq	r4, r2, sp, lsl r5
     3d0:	00540100 	subseq	r0, r4, r0, lsl #2
     3d4:	28220000 	stmdacs	r2!, {}	; <UNPREDICTABLE>
     3d8:	5c000080 	stcpl	0, cr0, [r0], {128}	; 0x80
     3dc:	f600000f 			; <UNDEFINED> instruction: 0xf600000f
     3e0:	23000003 	movwcs	r0, #3
     3e4:	0a035201 	beq	d4bf0 <__bss_end__+0xc62b0>
     3e8:	01232014 	teqeq	r3, r4, lsl r0
     3ec:	23300151 	teqcs	r0, #1073741844	; 0x40000014
     3f0:	74025001 	strvc	r5, [r2], #-1
     3f4:	8c220000 	stchi	0, cr0, [r2], #-0
     3f8:	7b000080 	blvc	600 <_start-0x7a00>
     3fc:	2500000f 	strcs	r0, [r0, #-15]
     400:	23000004 	movwcs	r0, #4
     404:	08025301 	stmdaeq	r2, {r0, r8, r9, ip, lr}
     408:	5201239f 	andpl	r2, r1, #2080374786	; 0x7c000002
     40c:	a0240305 	eorge	r0, r4, r5, lsl #6
     410:	01230000 	teqeq	r3, r0
     414:	48030551 	stmdami	r3, {r0, r4, r6, r8, sl}
     418:	230000a0 	movwcs	r0, #160	; 0xa0
     41c:	03055001 	movweq	r5, #20481	; 0x5001
     420:	0000a02c 	andeq	sl, r0, ip, lsr #32
     424:	80902400 	addshi	r2, r0, r0, lsl #8
     428:	0f910000 	svceq	0x00910000
     42c:	c4220000 	strtgt	r0, [r2], #-0
     430:	7b000080 	blvc	638 <_start-0x79c8>
     434:	5d00000f 	stcpl	0, cr0, [r0, #-60]	; 0xffffffc4
     438:	23000004 	movwcs	r0, #4
     43c:	08025301 	stmdaeq	r2, {r0, r8, r9, ip, lr}
     440:	520123a0 	andpl	r2, r1, #160, 6	; 0x80000002
     444:	a0240305 	eorge	r0, r4, r5, lsl #6
     448:	01230000 	teqeq	r3, r0
     44c:	48030551 	stmdami	r3, {r0, r4, r6, r8, sl}
     450:	230000a0 	movwcs	r0, #160	; 0xa0
     454:	03055001 	movweq	r5, #20481	; 0x5001
     458:	0000a09c 	muleq	r0, ip, r0
     45c:	80c82400 	sbchi	r2, r8, r0, lsl #8
     460:	0f910000 	svceq	0x00910000
     464:	f8220000 			; <UNDEFINED> instruction: 0xf8220000
     468:	7b000080 	blvc	670 <_start-0x7990>
     46c:	9500000f 	strls	r0, [r0, #-15]
     470:	23000004 	movwcs	r0, #4
     474:	08025301 	stmdaeq	r2, {r0, r8, r9, ip, lr}
     478:	520123a1 	andpl	r2, r1, #-2080374782	; 0x84000002
     47c:	a0240305 	eorge	r0, r4, r5, lsl #6
     480:	01230000 	teqeq	r3, r0
     484:	48030551 	stmdami	r3, {r0, r4, r6, r8, sl}
     488:	230000a0 	movwcs	r0, #160	; 0xa0
     48c:	03055001 	movweq	r5, #20481	; 0x5001
     490:	0000a0b8 	strheq	sl, [r0], -r8
     494:	80fc2400 	rscshi	r2, ip, r0, lsl #8
     498:	0f910000 	svceq	0x00910000
     49c:	80220000 	eorhi	r0, r2, r0
     4a0:	7b000081 	blvc	6ac <_start-0x7954>
     4a4:	cd00000f 	stcgt	0, cr0, [r0, #-60]	; 0xffffffc4
     4a8:	23000004 	movwcs	r0, #4
     4ac:	08025301 	stmdaeq	r2, {r0, r8, r9, ip, lr}
     4b0:	520123a3 	andpl	r2, r1, #-1946157054	; 0x8c000002
     4b4:	a0240305 	eorge	r0, r4, r5, lsl #6
     4b8:	01230000 	teqeq	r3, r0
     4bc:	48030551 	stmdami	r3, {r0, r4, r6, r8, sl}
     4c0:	230000a0 	movwcs	r0, #160	; 0xa0
     4c4:	03055001 	movweq	r5, #20481	; 0x5001
     4c8:	0000a0dc 	ldrdeq	sl, [r0], -ip
     4cc:	81842400 	orrhi	r2, r4, r0, lsl #8
     4d0:	0f910000 	svceq	0x00910000
     4d4:	07000000 	streq	r0, [r0, -r0]
     4d8:	000000a7 	andeq	r0, r0, r7, lsr #1
     4dc:	00026125 	andeq	r6, r2, r5, lsr #2
     4e0:	253c0200 	ldrcs	r0, [ip, #-512]!	; 0x200
     4e4:	b4000000 	strlt	r0, [r0], #-0
     4e8:	28000081 	stmdacs	r0, {r0, r7}
     4ec:	01000000 	mrseq	r0, (UNDEF: 0)
     4f0:	0005189c 	muleq	r5, ip, r8
     4f4:	012a2600 	teqeq	sl, r0, lsl #12
     4f8:	3d020000 	stccc	0, cr0, [r2, #-0]
     4fc:	00000037 	andeq	r0, r0, r7, lsr r0
     500:	000000a0 	andeq	r0, r0, r0, lsr #1
     504:	0081c027 	addeq	ip, r1, r7, lsr #32
     508:	000f9800 	andeq	r9, pc, r0, lsl #16
     50c:	50012300 	andpl	r2, r1, r0, lsl #6
     510:	50480c05 	subpl	r0, r8, r5, lsl #24
     514:	00002021 	andeq	r2, r0, r1, lsr #32
     518:	00034225 	andeq	r4, r3, r5, lsr #4
     51c:	25440200 	strbcs	r0, [r4, #-512]	; 0x200
     520:	dc000000 	stcle	0, cr0, [r0], {-0}
     524:	40000081 	andmi	r0, r0, r1, lsl #1
     528:	01000000 	mrseq	r0, (UNDEF: 0)
     52c:	00054e9c 	muleq	r5, ip, lr
     530:	02552100 	subseq	r2, r5, #0, 2
     534:	81dc0000 	bicshi	r0, ip, r0
     538:	001c0000 	andseq	r0, ip, r0
     53c:	45020000 	strmi	r0, [r2, #-0]
     540:	0002651d 	andeq	r6, r2, sp, lsl r5
     544:	e4030600 	str	r0, [r3], #-1536	; 0x600
     548:	9f0000a4 	svcls	0x000000a4
     54c:	15280000 	strne	r0, [r8, #-0]!
     550:	02000000 	andeq	r0, r0, #0
     554:	00821c74 	addeq	r1, r2, r4, ror ip
     558:	0000bc00 	andeq	fp, r0, r0, lsl #24
     55c:	a29c0100 	addsge	r0, ip, #0, 2
     560:	24000006 	strcs	r0, [r0], #-6
     564:	00008224 	andeq	r8, r0, r4, lsr #4
     568:	00000fb9 			; <UNDEFINED> instruction: 0x00000fb9
     56c:	00823022 	addeq	r3, r2, r2, lsr #32
     570:	000fc000 	andeq	ip, pc, r0
     574:	00058400 	andeq	r8, r5, r0, lsl #8
     578:	51012300 	mrspl	r2, SP_irq
     57c:	01233201 	teqeq	r3, r1, lsl #4
     580:	003e0150 	eorseq	r0, lr, r0, asr r1
     584:	00823c22 	addeq	r3, r2, r2, lsr #24
     588:	000fc000 	andeq	ip, pc, r0
     58c:	00059c00 	andeq	r9, r5, r0, lsl #24
     590:	51012300 	mrspl	r2, SP_irq
     594:	01233201 	teqeq	r3, r1, lsl #4
     598:	003f0150 	eorseq	r0, pc, r0, asr r1	; <UNPREDICTABLE>
     59c:	00824024 	addeq	r4, r2, r4, lsr #32
     5a0:	000fb900 	andeq	fp, pc, r0, lsl #18
     5a4:	824c2200 	subhi	r2, ip, #0, 4
     5a8:	0f980000 	svceq	0x00980000
     5ac:	05b90000 	ldreq	r0, [r9, #0]!
     5b0:	01230000 	teqeq	r3, r0
     5b4:	00740250 	rsbseq	r0, r4, r0, asr r2
     5b8:	82582200 	subshi	r2, r8, #0, 4
     5bc:	0fd60000 	svceq	0x00d60000
     5c0:	05cd0000 	strbeq	r0, [sp]
     5c4:	01230000 	teqeq	r3, r0
     5c8:	00740250 	rsbseq	r0, r4, r0, asr r2
     5cc:	825c2400 	subshi	r2, ip, #0, 8
     5d0:	0fb90000 	svceq	0x00b90000
     5d4:	6c220000 	stcvs	0, cr0, [r2], #-0
     5d8:	d6000082 	strle	r0, [r0], -r2, lsl #1
     5dc:	ef00000f 	svc	0x0000000f
     5e0:	23000005 	movwcs	r0, #5
     5e4:	30015101 	andcc	r5, r1, r1, lsl #2
     5e8:	02500123 	subseq	r0, r0, #-1073741816	; 0xc0000008
     5ec:	22000074 	andcs	r0, r0, #116	; 0x74
     5f0:	00008278 	andeq	r8, r0, r8, ror r2
     5f4:	00000fd6 	ldrdeq	r0, [r0], -r6
     5f8:	0000060b 	andeq	r0, r0, fp, lsl #12
     5fc:	01510123 	cmpeq	r1, r3, lsr #2
     600:	50012333 	andpl	r2, r1, r3, lsr r3
     604:	50440c05 	subpl	r0, r4, r5, lsl #24
     608:	22002021 	andcs	r2, r0, #33	; 0x21
     60c:	00008284 	andeq	r8, r0, r4, lsl #5
     610:	00000fd6 	ldrdeq	r0, [r0], -r6
     614:	00000627 	andeq	r0, r0, r7, lsr #12
     618:	01510123 	cmpeq	r1, r3, lsr #2
     61c:	50012336 	andpl	r2, r1, r6, lsr r3
     620:	50480c05 	subpl	r0, r8, r5, lsl #24
     624:	22002021 	andcs	r2, r0, #33	; 0x21
     628:	00008290 	muleq	r0, r0, r2
     62c:	00000fd6 	ldrdeq	r0, [r0], -r6
     630:	00000643 	andeq	r0, r0, r3, asr #12
     634:	01510123 	cmpeq	r1, r3, lsr #2
     638:	50012333 	andpl	r2, r1, r3, lsr r3
     63c:	504c0c05 	subpl	r0, ip, r5, lsl #24
     640:	22002021 	andcs	r2, r0, #33	; 0x21
     644:	0000829c 	muleq	r0, ip, r2
     648:	00000fd6 	ldrdeq	r0, [r0], -r6
     64c:	00000661 	andeq	r0, r0, r1, ror #12
     650:	03510123 	cmpeq	r1, #-1073741816	; 0xc0000008
     654:	23010e0a 	movwcs	r0, #7690	; 0x1e0a
     658:	0c055001 	stceq	0, cr5, [r5], {1}
     65c:	20215068 	eorcs	r5, r1, r8, rrx
     660:	82a82200 	adchi	r2, r8, #0, 4
     664:	0fd60000 	svceq	0x00d60000
     668:	067a0000 	ldrbteq	r0, [sl], -r0
     66c:	01230000 	teqeq	r3, r0
     670:	23330151 	teqcs	r3, #1073741844	; 0x40000014
     674:	74025001 	strvc	r5, [r2], #-1
     678:	b4220000 	strtlt	r0, [r2], #-0
     67c:	d6000082 	strle	r0, [r0], -r2, lsl #1
     680:	9800000f 	stmdals	r0, {r0, r1, r2, r3}
     684:	23000006 	movwcs	r0, #6
     688:	40035101 	andmi	r5, r3, r1, lsl #2
     68c:	01232449 	teqeq	r3, r9, asr #8
     690:	100c0550 	andne	r0, ip, r0, asr r5
     694:	002000b2 	strhteq	r0, [r0], -r2
     698:	0082b824 	addeq	fp, r2, r4, lsr #16
     69c:	000fb900 	andeq	fp, pc, r0, lsl #18
     6a0:	be280000 	cdplt	0, 2, cr0, cr8, cr0, {0}
     6a4:	02000004 	andeq	r0, r0, #4
     6a8:	0082d892 	umulleq	sp, r2, r2, r8
     6ac:	00005400 	andeq	r5, r0, r0, lsl #8
     6b0:	489c0100 	ldmmi	ip, {r8}
     6b4:	19000007 	stmdbne	r0, {r0, r1, r2}
     6b8:	000000ce 	andeq	r0, r0, lr, asr #1
     6bc:	00379202 	eorseq	r9, r7, r2, lsl #4
     6c0:	00be0000 	adcseq	r0, lr, r0
     6c4:	c3260000 	teqgt	r6, #0
     6c8:	02000002 	andeq	r0, r0, #2
     6cc:	00003794 	muleq	r0, r4, r7
     6d0:	0000ea00 	andeq	lr, r0, r0, lsl #20
     6d4:	82e42400 	rschi	r2, r4, #0, 8
     6d8:	0fb90000 	svceq	0x00b90000
     6dc:	ec220000 	stc	0, cr0, [r2], #-0
     6e0:	98000082 	stmdals	r0, {r1, r7}
     6e4:	f500000f 			; <UNDEFINED> instruction: 0xf500000f
     6e8:	23000006 	movwcs	r0, #6
     6ec:	0c055001 	stceq	0, cr5, [r5], {1}
     6f0:	20215044 	eorcs	r5, r1, r4, asr #32
     6f4:	83002200 	movwhi	r2, #512	; 0x200
     6f8:	0fd60000 	svceq	0x00d60000
     6fc:	070c0000 	streq	r0, [ip, -r0]
     700:	01230000 	teqeq	r3, r0
     704:	440c0550 	strmi	r0, [ip], #-1360	; 0x550
     708:	00202150 	eoreq	r2, r0, r0, asr r1
     70c:	00831422 	addeq	r1, r3, r2, lsr #8
     710:	000fd600 	andeq	sp, pc, r0, lsl #12
     714:	00072500 	andeq	r2, r7, r0, lsl #10
     718:	51012300 	mrspl	r2, SP_irq
     71c:	01233001 	teqeq	r3, r1
     720:	00740250 	rsbseq	r0, r4, r0, asr r2
     724:	83202200 	teqhi	r0, #0, 4
     728:	0fd60000 	svceq	0x00d60000
     72c:	073e0000 	ldreq	r0, [lr, -r0]!
     730:	01230000 	teqeq	r3, r0
     734:	23310151 	teqcs	r1, #1073741844	; 0x40000014
     738:	74025001 	strvc	r5, [r2], #-1
     73c:	24240000 	strtcs	r0, [r4], #-0
     740:	b9000083 	stmdblt	r0, {r0, r1, r7}
     744:	0000000f 	andeq	r0, r0, pc
     748:	00023228 	andeq	r3, r2, r8, lsr #4
     74c:	2c4b0200 	sfmcs	f0, 2, [fp], {-0}
     750:	e0000083 	and	r0, r0, r3, lsl #1
     754:	01000000 	mrseq	r0, (UNDEF: 0)
     758:	0008609c 	muleq	r8, ip, r0
     75c:	00631800 	rsbeq	r1, r3, r0, lsl #16
     760:	00654b02 	rsbeq	r4, r5, r2, lsl #22
     764:	01130000 	tsteq	r3, r0
     768:	641b0000 	ldrvs	r0, [fp], #-0
     76c:	65500200 	ldrbvs	r0, [r0, #-512]	; 0x200
     770:	34000000 	strcc	r0, [r0], #-0
     774:	1c000001 	stcne	0, cr0, [r0], {1}
     778:	000002bd 			; <UNDEFINED> instruction: 0x000002bd
     77c:	00008338 	andeq	r8, r0, r8, lsr r3
     780:	00000048 	andeq	r0, r0, r8, asr #32
     784:	07cf4d02 	strbeq	r4, [pc, r2, lsl #26]
     788:	d6290000 	strtle	r0, [r9], -r0
     78c:	52000002 	andpl	r0, r0, #2
     790:	1d000001 	stcne	0, cr0, [r0, #-4]
     794:	000002cd 	andeq	r0, r0, sp, asr #5
     798:	c4f80306 	ldrbtgt	r0, [r8], #774	; 0x306
     79c:	2a9f0000 	bcs	fe7c07a4 <__bss_end__+0xfe7b1e64>
     7a0:	00008338 	andeq	r8, r0, r8, lsr r3
     7a4:	00000048 	andeq	r0, r0, r8, asr #32
     7a8:	0002df20 	andeq	sp, r2, r0, lsr #30
     7ac:	00016500 	andeq	r6, r1, r0, lsl #10
     7b0:	02552100 	subseq	r2, r5, #0, 2
     7b4:	83440000 	movthi	r0, #16384	; 0x4000
     7b8:	00140000 	andseq	r0, r4, r0
     7bc:	58010000 	stmdapl	r1, {}	; <UNPREDICTABLE>
     7c0:	0002651d 	andeq	r6, r2, sp, lsl r5
     7c4:	f8030600 			; <UNDEFINED> instruction: 0xf8030600
     7c8:	9f0000c4 	svcls	0x000000c4
     7cc:	1e000000 	cdpne	0, 0, cr0, cr0, cr0, {0}
     7d0:	00000289 	andeq	r0, r0, r9, lsl #5
     7d4:	00008388 	andeq	r8, r0, r8, lsl #7
     7d8:	00000018 	andeq	r0, r0, r8, lsl r0
     7dc:	081d5102 	ldmdaeq	sp, {r1, r8, ip, lr}
     7e0:	a2290000 	eorge	r0, r9, #0
     7e4:	87000002 	strhi	r0, [r0, -r2]
     7e8:	29000001 	stmdbcs	r0, {r0}
     7ec:	00000299 	muleq	r0, r9, r2
     7f0:	000001af 	andeq	r0, r0, pc, lsr #3
     7f4:	0000181f 	andeq	r1, r0, pc, lsl r8
     7f8:	02ab2000 	adceq	r2, fp, #0
     7fc:	01d70000 	bicseq	r0, r7, r0
     800:	352b0000 	strcc	r0, [fp, #-0]!
     804:	88000002 	stmdahi	r0, {r1}
     808:	30000083 	andcc	r0, r0, r3, lsl #1
     80c:	01000000 	mrseq	r0, (UNDEF: 0)
     810:	02452943 	subeq	r2, r5, #1097728	; 0x10c000
     814:	01af0000 			; <UNDEFINED> instruction: 0x01af0000
     818:	00000000 	andeq	r0, r0, r0
     81c:	83382400 	teqhi	r8, #0, 8
     820:	0ff20000 	svceq	0x00f20000
     824:	88220000 	stmdahi	r2!, {}	; <UNPREDICTABLE>
     828:	a2000083 	andge	r0, r0, #131	; 0x83
     82c:	39000006 	stmdbcc	r0, {r1, r2}
     830:	23000008 	movwcs	r0, #8
     834:	31015001 	tstcc	r1, r1
     838:	83a82200 			; <UNDEFINED> instruction: 0x83a82200
     83c:	0ff90000 	svceq	0x00f90000
     840:	084d0000 	stmdaeq	sp, {}^	; <UNPREDICTABLE>
     844:	01230000 	teqeq	r3, r0
     848:	00760250 	rsbseq	r0, r6, r0, asr r2
     84c:	83ac2400 			; <UNDEFINED> instruction: 0x83ac2400
     850:	100a0000 	andne	r0, sl, r0
     854:	fc240000 	stc2	0, cr0, [r4], #-0
     858:	15000083 	strne	r0, [r0, #-131]	; 0x83
     85c:	00000010 	andeq	r0, r0, r0, lsl r0
     860:	000c8828 	andeq	r8, ip, r8, lsr #16
     864:	0c5c0200 	lfmeq	f0, 2, [ip], {-0}
     868:	50000084 	andpl	r0, r0, r4, lsl #1
     86c:	01000001 	tsteq	r0, r1
     870:	0009d89c 	muleq	r9, ip, r8
     874:	63701800 	cmnvs	r0, #0, 16
     878:	375c0200 	ldrbcc	r0, [ip, -r0, lsl #4]
     87c:	f9000000 			; <UNDEFINED> instruction: 0xf9000000
     880:	26000001 	strcs	r0, [r0], -r1
     884:	000002c3 	andeq	r0, r0, r3, asr #5
     888:	00375f02 	eorseq	r5, r7, r2, lsl #30
     88c:	021a0000 	andseq	r0, sl, #0
     890:	242c0000 	strtcs	r0, [ip], #-0
     894:	3c000084 	stccc	0, cr0, [r0], {132}	; 0x84
     898:	0a000000 	beq	8a0 <_start-0x7760>
     89c:	26000009 	strcs	r0, [r0], -r9
     8a0:	00000362 	andeq	r0, r0, r2, ror #6
     8a4:	00376302 	eorseq	r6, r7, r2, lsl #6
     8a8:	024e0000 	subeq	r0, lr, #0
     8ac:	bd1c0000 	ldclt	0, cr0, [ip, #-0]
     8b0:	2c000002 	stccs	0, cr0, [r0], {2}
     8b4:	34000084 	strcc	r0, [r0], #-132	; 0x84
     8b8:	02000000 	andeq	r0, r0, #0
     8bc:	00090065 	andeq	r0, r9, r5, rrx
     8c0:	02d62900 	sbcseq	r2, r6, #0, 18
     8c4:	02610000 	rsbeq	r0, r1, #0
     8c8:	cd290000 	stcgt	0, cr0, [r9, #-0]
     8cc:	74000002 	strvc	r0, [r0], #-2
     8d0:	2a000002 	bcs	8e0 <_start-0x7720>
     8d4:	0000842c 	andeq	r8, r0, ip, lsr #8
     8d8:	00000034 	andeq	r0, r0, r4, lsr r0
     8dc:	0002df20 	andeq	sp, r2, r0, lsr #30
     8e0:	00028c00 	andeq	r8, r2, r0, lsl #24
     8e4:	02552100 	subseq	r2, r5, #0, 2
     8e8:	84300000 	ldrthi	r0, [r0], #-0
     8ec:	00100000 	andseq	r0, r0, r0
     8f0:	58010000 	stmdapl	r1, {}	; <UNPREDICTABLE>
     8f4:	00026529 	andeq	r6, r2, r9, lsr #10
     8f8:	00029f00 	andeq	r9, r2, r0, lsl #30
     8fc:	00000000 	andeq	r0, r0, r0
     900:	00842824 	addeq	r2, r4, r4, lsr #16
     904:	00101c00 	andseq	r1, r0, r0, lsl #24
     908:	551c0000 	ldrpl	r0, [ip, #-0]
     90c:	60000002 	andvs	r0, r0, r2
     910:	1c000084 	stcne	0, cr0, [r0], {132}	; 0x84
     914:	02000000 	andeq	r0, r0, #0
     918:	00092762 	andeq	r2, r9, r2, ror #14
     91c:	02652900 	rsbeq	r2, r5, #0, 18
     920:	02b70000 	adcseq	r0, r7, #0
     924:	1e000000 	cdpne	0, 0, cr0, cr0, cr0, {0}
     928:	00000289 	andeq	r0, r0, r9, lsl #5
     92c:	000084ac 	andeq	r8, r0, ip, lsr #9
     930:	00000048 	andeq	r0, r0, r8, asr #32
     934:	09756a02 	ldmdbeq	r5!, {r1, r9, fp, sp, lr}^
     938:	a2290000 	eorge	r0, r9, #0
     93c:	df000002 	svcle	0x00000002
     940:	29000002 	stmdbcs	r0, {r1}
     944:	00000299 	muleq	r0, r9, r2
     948:	00000307 	andeq	r0, r0, r7, lsl #6
     94c:	0000481f 	andeq	r4, r0, pc, lsl r8
     950:	02ab2000 	adceq	r2, fp, #0
     954:	032f0000 	teqeq	pc, #0
     958:	352b0000 	strcc	r0, [fp, #-0]!
     95c:	ac000002 	stcge	0, cr0, [r0], {2}
     960:	60000084 	andvs	r0, r0, r4, lsl #1
     964:	01000000 	mrseq	r0, (UNDEF: 0)
     968:	02452943 	subeq	r2, r5, #1097728	; 0x10c000
     96c:	03070000 	movweq	r0, #28672	; 0x7000
     970:	00000000 	andeq	r0, r0, r0
     974:	02351c00 	eorseq	r1, r5, #0, 24
     978:	85140000 	ldrhi	r0, [r4, #-0]
     97c:	00140000 	andseq	r0, r4, r0
     980:	6e020000 	cdpvs	0, 0, cr0, cr2, cr0, {0}
     984:	00000995 	muleq	r0, r5, r9
     988:	0002451d 	andeq	r4, r2, sp, lsl r5
     98c:	f8030600 			; <UNDEFINED> instruction: 0xf8030600
     990:	9f0000c4 	svcls	0x000000c4
     994:	84182200 	ldrhi	r2, [r8], #-512	; 0x200
     998:	0f980000 	svceq	0x00980000
     99c:	09ac0000 	stmibeq	ip!, {}	; <UNPREDICTABLE>
     9a0:	01230000 	teqeq	r3, r0
     9a4:	480c0550 	stmdami	ip, {r4, r6, r8, sl}
     9a8:	00202150 	eoreq	r2, r0, r0, asr r1
     9ac:	00848824 	addeq	r8, r4, r4, lsr #16
     9b0:	00102700 	andseq	r2, r0, r0, lsl #14
     9b4:	84a82400 	strthi	r2, [r8], #1024	; 0x400
     9b8:	0ff90000 	svceq	0x00f90000
     9bc:	c8240000 	stmdagt	r4!, {}	; <UNPREDICTABLE>
     9c0:	0a000084 	beq	bd8 <_start-0x7428>
     9c4:	27000010 	smladcs	r0, r0, r0, r0
     9c8:	00008538 	andeq	r8, r0, r8, lsr r5
     9cc:	000006a2 	andeq	r0, r0, r2, lsr #13
     9d0:	02500123 	subseq	r0, r0, #-1073741816	; 0xc0000008
     9d4:	00000079 	andeq	r0, r0, r9, ror r0
     9d8:	00000025 	andeq	r0, r0, r5, lsr #32
     9dc:	65a00200 	strvs	r0, [r0, #512]!	; 0x200
     9e0:	5c000000 	stcpl	0, cr0, [r0], {-0}
     9e4:	78000085 	stmdavc	r0, {r0, r2, r7}
     9e8:	01000000 	mrseq	r0, (UNDEF: 0)
     9ec:	000a6f9c 	muleq	sl, ip, pc	; <UNPREDICTABLE>
     9f0:	038a2600 	orreq	r2, sl, #0, 12
     9f4:	a2020000 	andge	r0, r2, #0
     9f8:	00000065 	andeq	r0, r0, r5, rrx
     9fc:	00000351 	andeq	r0, r0, r1, asr r3
     a00:	0002351c 	andeq	r3, r2, ip, lsl r5
     a04:	00855c00 	addeq	r5, r5, r0, lsl #24
     a08:	00001400 	andeq	r1, r0, r0, lsl #8
     a0c:	20a30200 	adccs	r0, r3, r0, lsl #4
     a10:	1d00000a 	stcne	0, cr0, [r0, #-40]	; 0xffffffd8
     a14:	00000245 	andeq	r0, r0, r5, asr #4
     a18:	a4e40306 	strbtge	r0, [r4], #774	; 0x306
     a1c:	009f0000 	addseq	r0, pc, r0
     a20:	00028921 	andeq	r8, r2, r1, lsr #18
     a24:	00857800 	addeq	r7, r5, r0, lsl #16
     a28:	00004000 	andeq	r4, r0, r0
     a2c:	29a40200 	stmibcs	r4!, {r9}
     a30:	000002a2 	andeq	r0, r0, r2, lsr #5
     a34:	00000389 	andeq	r0, r0, r9, lsl #7
     a38:	00029929 	andeq	r9, r2, r9, lsr #18
     a3c:	0003b100 	andeq	fp, r3, r0, lsl #2
     a40:	85782a00 	ldrbhi	r2, [r8, #-2560]!	; 0xa00
     a44:	00400000 	subeq	r0, r0, r0
     a48:	ab200000 	blge	800a50 <__bss_end__+0x7f2110>
     a4c:	d9000002 	stmdble	r0, {r1}
     a50:	21000003 	tstcs	r0, r3
     a54:	00000235 	andeq	r0, r0, r5, lsr r2
     a58:	00008578 	andeq	r8, r0, r8, ror r5
     a5c:	00000010 	andeq	r0, r0, r0, lsl r0
     a60:	45294301 	strmi	r4, [r9, #-769]!	; 0x301
     a64:	b1000002 	tstlt	r0, r2
     a68:	00000003 	andeq	r0, r0, r3
     a6c:	2d000000 	stccs	0, cr0, [r0, #-0]
     a70:	00000041 	andeq	r0, r0, r1, asr #32
     a74:	85d4ad02 	ldrbhi	sl, [r4, #3330]	; 0xd02
     a78:	019c0000 	orrseq	r0, ip, r0
     a7c:	9c010000 	stcls	0, cr0, [r1], {-0}
     a80:	00000d92 	muleq	r0, r2, sp
     a84:	0087202c 	addeq	r2, r7, ip, lsr #32
     a88:	00005000 	andeq	r5, r0, r0
     a8c:	000ae400 	andeq	lr, sl, r0, lsl #8
     a90:	00631b00 	rsbeq	r1, r3, r0, lsl #22
     a94:	0065f002 	rsbeq	pc, r5, r2
     a98:	03fb0000 	mvnseq	r0, #0
     a9c:	2c240000 	stccs	0, cr0, [r4], #-0
     aa0:	d8000087 	stmdale	r0, {r0, r1, r2, r7}
     aa4:	24000009 	strcs	r0, [r0], #-9
     aa8:	00008734 	andeq	r8, r0, r4, lsr r7
     aac:	00000fb9 			; <UNDEFINED> instruction: 0x00000fb9
     ab0:	00874422 	addeq	r4, r7, r2, lsr #8
     ab4:	00074800 	andeq	r4, r7, r0, lsl #16
     ab8:	000ac400 	andeq	ip, sl, r0, lsl #8
     abc:	50012300 	andpl	r2, r1, r0, lsl #6
     ac0:	00007602 	andeq	r7, r0, r2, lsl #12
     ac4:	00874824 	addeq	r4, r7, r4, lsr #16
     ac8:	000fb900 	andeq	fp, pc, r0, lsl #18
     acc:	87542700 	ldrbhi	r2, [r4, -r0, lsl #14]
     ad0:	10320000 	eorsne	r0, r2, r0
     ad4:	01230000 	teqeq	r3, r0
     ad8:	00740251 	rsbseq	r0, r4, r1, asr r2
     adc:	02500123 	subseq	r0, r0, #-1073741816	; 0xc0000008
     ae0:	00000075 	andeq	r0, r0, r5, ror r0
     ae4:	0085fc22 	addeq	pc, r5, r2, lsr #24
     ae8:	00104e00 	andseq	r4, r0, r0, lsl #28
     aec:	000b1200 	andeq	r1, fp, r0, lsl #4
     af0:	53012300 	movwpl	r2, #4864	; 0x1300
     af4:	39e10804 	stmibcc	r1!, {r2, fp}^
     af8:	52012324 	andpl	r2, r1, #36, 6	; 0x90000000
     afc:	01234401 	teqeq	r3, r1, lsl #8
     b00:	23450151 	movtcs	r0, #20817	; 0x5151
     b04:	75025001 	strvc	r5, [r2, #-1]
     b08:	7d022300 	stcvc	3, cr2, [r2, #-0]
     b0c:	bc0a0300 	stclt	3, cr0, [sl], {-0}
     b10:	14220017 	strtne	r0, [r2], #-23
     b14:	32000086 	andcc	r0, r0, #134	; 0x86
     b18:	2c000010 	stccs	0, cr0, [r0], {16}
     b1c:	2300000b 	movwcs	r0, #11
     b20:	08025101 	stmdaeq	r2, {r0, r8, ip, lr}
     b24:	50012352 	andpl	r2, r1, r2, asr r3
     b28:	00007402 	andeq	r7, r0, r2, lsl #8
     b2c:	00862022 	addeq	r2, r6, r2, lsr #32
     b30:	00103200 	andseq	r3, r0, r0, lsl #4
     b34:	000b4600 	andeq	r4, fp, r0, lsl #12
     b38:	51012300 	mrspl	r2, SP_irq
     b3c:	23450802 	movtcs	r0, #22530	; 0x5802
     b40:	74025001 	strvc	r5, [r2], #-1
     b44:	2c220000 	stccs	0, cr0, [r2], #-0
     b48:	32000086 	andcc	r0, r0, #134	; 0x86
     b4c:	60000010 	andvs	r0, r0, r0, lsl r0
     b50:	2300000b 	movwcs	r0, #11
     b54:	08025101 	stmdaeq	r2, {r0, r8, ip, lr}
     b58:	50012341 	andpl	r2, r1, r1, asr #6
     b5c:	00007402 	andeq	r7, r0, r2, lsl #8
     b60:	00863822 	addeq	r3, r6, r2, lsr #16
     b64:	00103200 	andseq	r3, r0, r0, lsl #4
     b68:	000b7a00 	andeq	r7, fp, r0, lsl #20
     b6c:	51012300 	mrspl	r2, SP_irq
     b70:	23440802 	movtcs	r0, #18434	; 0x4802
     b74:	74025001 	strvc	r5, [r2], #-1
     b78:	44220000 	strtmi	r0, [r2], #-0
     b7c:	32000086 	andcc	r0, r0, #134	; 0x86
     b80:	94000010 	strls	r0, [r0], #-16
     b84:	2300000b 	movwcs	r0, #11
     b88:	08025101 	stmdaeq	r2, {r0, r8, ip, lr}
     b8c:	50012359 	andpl	r2, r1, r9, asr r3
     b90:	00007402 	andeq	r7, r0, r2, lsl #8
     b94:	00865022 	addeq	r5, r6, r2, lsr #32
     b98:	00103200 	andseq	r3, r0, r0, lsl #4
     b9c:	000bad00 	andeq	sl, fp, r0, lsl #26
     ba0:	51012300 	mrspl	r2, SP_irq
     ba4:	01233a01 	teqeq	r3, r1, lsl #20
     ba8:	00740250 	rsbseq	r0, r4, r0, asr r2
     bac:	86542400 	ldrbhi	r2, [r4], -r0, lsl #8
     bb0:	10720000 	rsbsne	r0, r2, r0
     bb4:	58240000 	stmdapl	r4!, {}	; <UNPREDICTABLE>
     bb8:	4e000086 	cdpmi	0, 0, cr0, cr0, cr6, {4}
     bbc:	24000005 	strcs	r0, [r0], #-5
     bc0:	0000865c 	andeq	r8, r0, ip, asr r6
     bc4:	00001079 	andeq	r1, r0, r9, ror r0
     bc8:	00866822 	addeq	r6, r6, r2, lsr #16
     bcc:	0002eb00 	andeq	lr, r2, r0, lsl #22
     bd0:	000be400 	andeq	lr, fp, r0, lsl #8
     bd4:	51012300 	mrspl	r2, SP_irq
     bd8:	01233101 	teqeq	r3, r1, lsl #2
     bdc:	e4030550 	str	r0, [r3], #-1360	; 0x550
     be0:	000000a4 	andeq	r0, r0, r4, lsr #1
     be4:	00867422 	addeq	r7, r6, r2, lsr #8
     be8:	0002eb00 	andeq	lr, r2, r0, lsl #22
     bec:	000c0000 	andeq	r0, ip, r0
     bf0:	51012300 	mrspl	r2, SP_irq
     bf4:	01233101 	teqeq	r3, r1, lsl #2
     bf8:	f8030550 			; <UNDEFINED> instruction: 0xf8030550
     bfc:	000000c4 	andeq	r0, r0, r4, asr #1
     c00:	00868022 	addeq	r8, r6, r2, lsr #32
     c04:	000fd600 	andeq	sp, pc, r0, lsl #12
     c08:	000c1c00 	andeq	r1, ip, r0, lsl #24
     c0c:	51012300 	mrspl	r2, SP_irq
     c10:	01233d01 	teqeq	r3, r1, lsl #26
     c14:	400c0550 	andmi	r0, ip, r0, asr r5
     c18:	00202150 	eoreq	r2, r0, r0, asr r1
     c1c:	00868424 	addeq	r8, r6, r4, lsr #8
     c20:	000fb900 	andeq	fp, pc, r0, lsl #18
     c24:	86882400 	strhi	r2, [r8], r0, lsl #8
     c28:	10150000 	andsne	r0, r5, r0
     c2c:	8c240000 	stchi	0, cr0, [r4], #-0
     c30:	b9000086 	stmdblt	r0, {r1, r2, r7}
     c34:	2200000f 	andcs	r0, r0, #15
     c38:	00008694 	muleq	r0, r4, r6
     c3c:	00000748 	andeq	r0, r0, r8, asr #14
     c40:	00000c4b 	andeq	r0, r0, fp, asr #24
     c44:	02500123 	subseq	r0, r0, #-1073741816	; 0xc0000008
     c48:	22005408 	andcs	r5, r0, #8, 8	; 0x8000000
     c4c:	0000869c 	muleq	r0, ip, r6
     c50:	00000748 	andeq	r0, r0, r8, asr #14
     c54:	00000c5f 	andeq	r0, r0, pc, asr ip
     c58:	02500123 	subseq	r0, r0, #-1073741816	; 0xc0000008
     c5c:	22005908 	andcs	r5, r0, #8, 18	; 0x20000
     c60:	000086a4 	andeq	r8, r0, r4, lsr #13
     c64:	00000748 	andeq	r0, r0, r8, asr #14
     c68:	00000c73 	andeq	r0, r0, r3, ror ip
     c6c:	02500123 	subseq	r0, r0, #-1073741816	; 0xc0000008
     c70:	22005008 	andcs	r5, r0, #8
     c74:	000086ac 	andeq	r8, r0, ip, lsr #13
     c78:	00000748 	andeq	r0, r0, r8, asr #14
     c7c:	00000c87 	andeq	r0, r0, r7, lsl #25
     c80:	02500123 	subseq	r0, r0, #-1073741816	; 0xc0000008
     c84:	22004508 	andcs	r4, r0, #8, 10	; 0x2000000
     c88:	000086b4 			; <UNDEFINED> instruction: 0x000086b4
     c8c:	00000748 	andeq	r0, r0, r8, asr #14
     c90:	00000c9b 	muleq	r0, fp, ip
     c94:	02500123 	subseq	r0, r0, #-1073741816	; 0xc0000008
     c98:	22002008 	andcs	r2, r0, #8
     c9c:	000086bc 			; <UNDEFINED> instruction: 0x000086bc
     ca0:	00000748 	andeq	r0, r0, r8, asr #14
     ca4:	00000caf 	andeq	r0, r0, pc, lsr #25
     ca8:	02500123 	subseq	r0, r0, #-1073741816	; 0xc0000008
     cac:	22004808 	andcs	r4, r0, #8, 16	; 0x80000
     cb0:	000086c4 	andeq	r8, r0, r4, asr #13
     cb4:	00000748 	andeq	r0, r0, r8, asr #14
     cb8:	00000cc3 	andeq	r0, r0, r3, asr #25
     cbc:	02500123 	subseq	r0, r0, #-1073741816	; 0xc0000008
     cc0:	22004508 	andcs	r4, r0, #8, 10	; 0x2000000
     cc4:	000086cc 	andeq	r8, r0, ip, asr #13
     cc8:	00000748 	andeq	r0, r0, r8, asr #14
     ccc:	00000cd7 	ldrdeq	r0, [r0], -r7
     cd0:	02500123 	subseq	r0, r0, #-1073741816	; 0xc0000008
     cd4:	22005208 	andcs	r5, r0, #8, 4	; 0x80000000
     cd8:	000086d4 	ldrdeq	r8, [r0], -r4
     cdc:	00000748 	andeq	r0, r0, r8, asr #14
     ce0:	00000ceb 	andeq	r0, r0, fp, ror #25
     ce4:	02500123 	subseq	r0, r0, #-1073741816	; 0xc0000008
     ce8:	22004508 	andcs	r4, r0, #8, 10	; 0x2000000
     cec:	000086dc 	ldrdeq	r8, [r0], -ip
     cf0:	00000748 	andeq	r0, r0, r8, asr #14
     cf4:	00000cfe 	strdeq	r0, [r0], -lr
     cf8:	01500123 	cmpeq	r0, r3, lsr #2
     cfc:	e024003a 	eor	r0, r4, sl, lsr r0
     d00:	b9000086 	stmdblt	r0, {r1, r2, r7}
     d04:	2200000f 	andcs	r0, r0, #15
     d08:	000086ec 	andeq	r8, r0, ip, ror #13
     d0c:	00001032 	andeq	r1, r0, r2, lsr r0
     d10:	00000d21 	andeq	r0, r0, r1, lsr #26
     d14:	02510123 	subseq	r0, r1, #-1073741816	; 0xc0000008
     d18:	01235208 	teqeq	r3, r8, lsl #4
     d1c:	00740250 	rsbseq	r0, r4, r0, asr r2
     d20:	86f82200 	ldrbthi	r2, [r8], r0, lsl #4
     d24:	10320000 	eorsne	r0, r2, r0
     d28:	0d3b0000 	ldceq	0, cr0, [fp, #-0]
     d2c:	01230000 	teqeq	r3, r0
     d30:	45080251 	strmi	r0, [r8, #-593]	; 0x251
     d34:	02500123 	subseq	r0, r0, #-1073741816	; 0xc0000008
     d38:	22000074 	andcs	r0, r0, #116	; 0x74
     d3c:	00008704 	andeq	r8, r0, r4, lsl #14
     d40:	00001032 	andeq	r1, r0, r2, lsr r0
     d44:	00000d55 	andeq	r0, r0, r5, asr sp
     d48:	02510123 	subseq	r0, r1, #-1073741816	; 0xc0000008
     d4c:	01234108 	teqeq	r3, r8, lsl #2
     d50:	00740250 	rsbseq	r0, r4, r0, asr r2
     d54:	87102200 	ldrhi	r2, [r0, -r0, lsl #4]
     d58:	10320000 	eorsne	r0, r2, r0
     d5c:	0d6f0000 	stcleq	0, cr0, [pc, #-0]	; d64 <_start-0x729c>
     d60:	01230000 	teqeq	r3, r0
     d64:	44080251 	strmi	r0, [r8], #-593	; 0x251
     d68:	02500123 	subseq	r0, r0, #-1073741816	; 0xc0000008
     d6c:	22000074 	andcs	r0, r0, #116	; 0x74
     d70:	0000871c 	andeq	r8, r0, ip, lsl r7
     d74:	00001032 	andeq	r1, r0, r2, lsr r0
     d78:	00000d88 	andeq	r0, r0, r8, lsl #27
     d7c:	01510123 	cmpeq	r1, r3, lsr #2
     d80:	5001233a 	andpl	r2, r1, sl, lsr r3
     d84:	00007402 	andeq	r7, r0, r2, lsl #8
     d88:	00872024 	addeq	r2, r7, r4, lsr #32
     d8c:	000fb900 	andeq	fp, pc, r0, lsl #18
     d90:	302e0000 	eorcc	r0, lr, r0
     d94:	02000003 	andeq	r0, r0, #3
     d98:	000da10e 	andeq	sl, sp, lr, lsl #2
     d9c:	21500000 	cmpcs	r0, r0
     da0:	e3040620 	movw	r0, #17952	; 0x4620
     da4:	2e000001 	cdpcs	0, 0, cr0, cr0, cr1, {0}
     da8:	0000011e 	andeq	r0, r0, lr, lsl r1
     dac:	0db60f02 	ldceq	15, cr0, [r6, #8]!
     db0:	50040000 	andpl	r0, r4, r0
     db4:	a1072021 	tstge	r7, r1, lsr #32
     db8:	2e00000d 	cdpcs	0, 0, cr0, cr0, cr13, {0}
     dbc:	0000016d 	andeq	r0, r0, sp, ror #2
     dc0:	0dca1202 	sfmeq	f1, 2, [sl, #8]
     dc4:	50400000 	subpl	r0, r0, r0
     dc8:	a1072021 	tstge	r7, r1, lsr #32
     dcc:	2e00000d 	cdpcs	0, 0, cr0, cr0, cr13, {0}
     dd0:	00000287 	andeq	r0, r0, r7, lsl #5
     dd4:	0dde1302 	ldcleq	3, cr1, [lr, #8]
     dd8:	50440000 	subpl	r0, r4, r0
     ddc:	a1072021 	tstge	r7, r1, lsr #32
     de0:	2e00000d 	cdpcs	0, 0, cr0, cr0, cr13, {0}
     de4:	00000308 	andeq	r0, r0, r8, lsl #6
     de8:	0df21402 	cfldrdeq	mvd1, [r2, #8]!
     dec:	50480000 	subpl	r0, r8, r0
     df0:	a1072021 	tstge	r7, r1, lsr #32
     df4:	2e00000d 	cdpcs	0, 0, cr0, cr0, cr13, {0}
     df8:	000001a0 	andeq	r0, r0, r0, lsr #3
     dfc:	0e061502 	cfsh32eq	mvfx1, mvfx6, #2
     e00:	504c0000 	subpl	r0, ip, r0
     e04:	a1072021 	tstge	r7, r1, lsr #32
     e08:	2e00000d 	cdpcs	0, 0, cr0, cr0, cr13, {0}
     e0c:	0000052a 	andeq	r0, r0, sl, lsr #10
     e10:	0da11602 	stceq	6, cr1, [r1, #8]!
     e14:	50500000 	subspl	r0, r0, r0
     e18:	042e2021 	strteq	r2, [lr], #-33	; 0x21
     e1c:	02000001 	andeq	r0, r0, #1
     e20:	000da117 	andeq	sl, sp, r7, lsl r1
     e24:	21505400 	cmpcs	r0, r0, lsl #8
     e28:	02402e20 	subeq	r2, r0, #32, 28	; 0x200
     e2c:	18020000 	stmdane	r2, {}	; <UNPREDICTABLE>
     e30:	00000da1 	andeq	r0, r0, r1, lsr #27
     e34:	20215058 	eorcs	r5, r1, r8, asr r0
     e38:	0000322e 	andeq	r3, r0, lr, lsr #4
     e3c:	a1190200 	tstge	r9, r0, lsl #4
     e40:	5c00000d 	stcpl	0, cr0, [r0], {13}
     e44:	2e202150 	mcrcs	1, 1, r2, cr0, cr0, {2}
     e48:	000003ff 	strdeq	r0, [r0], -pc	; <UNPREDICTABLE>
     e4c:	0e561a02 	vnmlseq.f32	s3, s12, s4
     e50:	50600000 	rsbpl	r0, r0, r0
     e54:	a1072021 	tstge	r7, r1, lsr #32
     e58:	2e00000d 	cdpcs	0, 0, cr0, cr0, cr13, {0}
     e5c:	00000374 	andeq	r0, r0, r4, ror r3
     e60:	0da11b02 	stceq	11, cr1, [r1, #8]!
     e64:	50640000 	rsbpl	r0, r4, r0
     e68:	832e2021 	teqhi	lr, #33	; 0x21
     e6c:	02000001 	andeq	r0, r0, #1
     e70:	000e791c 	andeq	r7, lr, ip, lsl r9
     e74:	21506800 	cmpcs	r0, r0, lsl #16
     e78:	0da10720 	stceq	7, cr0, [r1, #128]!	; 0x80
     e7c:	6d2e0000 	stcvs	0, cr0, [lr, #-0]
     e80:	02000002 	andeq	r0, r0, #2
     e84:	000e8d1d 	andeq	r8, lr, sp, lsl sp
     e88:	00b21000 	adcseq	r1, r2, r0
     e8c:	0da10720 	stceq	7, cr0, [r1, #128]!	; 0x80
     e90:	7a2e0000 	bvc	b80e98 <__bss_end__+0xb72558>
     e94:	02000002 	andeq	r0, r0, #2
     e98:	000da11e 	andeq	sl, sp, lr, lsl r1
     e9c:	00b21400 	adcseq	r1, r2, r0, lsl #8
     ea0:	014b2f20 	cmpeq	fp, r0, lsr #30
     ea4:	1f020000 	svcne	0x00020000
     ea8:	000001e3 	andeq	r0, r0, r3, ror #3
     eac:	e52c0305 	str	r0, [ip, #-773]!	; 0x305
     eb0:	7b2f0000 	blvc	bc0eb8 <__bss_end__+0xbb2578>
     eb4:	02000001 	andeq	r0, r0, #1
     eb8:	00022a22 	andeq	r2, r2, r2, lsr #20
     ebc:	10030500 	andne	r0, r3, r0, lsl #10
     ec0:	2f0000e5 	svccs	0x000000e5
     ec4:	00000539 	andeq	r0, r0, r9, lsr r5
     ec8:	0ed43602 	cdpeq	6, 13, cr3, cr4, cr2, {0}
     ecc:	03050000 	movweq	r0, #20480	; 0x5000
     ed0:	0000e528 	andeq	lr, r0, r8, lsr #10
     ed4:	00002511 	andeq	r2, r0, r1, lsl r5
     ed8:	01132f00 	tsteq	r3, r0, lsl #30
     edc:	37020000 	strcc	r0, [r2, -r0]
     ee0:	00000ed4 	ldrdeq	r0, [r0], -r4
     ee4:	e5240305 	str	r0, [r4, #-773]!	; 0x305
     ee8:	5c2f0000 	stcpl	0, cr0, [pc], #-0	; ef0 <_start-0x7110>
     eec:	02000002 	andeq	r0, r0, #2
     ef0:	0001e838 	andeq	lr, r1, r8, lsr r8
     ef4:	f8030500 			; <UNDEFINED> instruction: 0xf8030500
     ef8:	2f0000c4 	svccs	0x000000c4
     efc:	00000154 	andeq	r0, r0, r4, asr r1
     f00:	01e83902 	mvneq	r3, r2, lsl #18
     f04:	03050000 	movweq	r0, #20480	; 0x5000
     f08:	0000a4e4 	andeq	sl, r0, r4, ror #9
     f0c:	000b072f 	andeq	r0, fp, pc, lsr #14
     f10:	e33a0200 	teq	sl, #0, 4
     f14:	05000001 	streq	r0, [r0, #-1]
     f18:	00e52003 	rsceq	r2, r5, r3
     f1c:	03623000 	cmneq	r2, #0
     f20:	5a020000 	bpl	80f28 <__bss_end__+0x725e8>
     f24:	00000065 	andeq	r0, r0, r5, rrx
     f28:	01352f00 	teqeq	r5, r0, lsl #30
     f2c:	5b020000 	blpl	80f34 <__bss_end__+0x725f4>
     f30:	00000065 	andeq	r0, r0, r5, rrx
     f34:	e50c0305 	str	r0, [ip, #-773]	; 0x305
     f38:	f42f0000 	vld4.8	{d0-d3}, [pc], r0
     f3c:	02000002 	andeq	r0, r0, #2
     f40:	000ed4ac 	andeq	sp, lr, ip, lsr #9
     f44:	1c030500 	cfstr32ne	mvfx0, [r3], {-0}
     f48:	310000e5 	smlattcc	r0, r5, r0, r0
     f4c:	00000483 	andeq	r0, r0, r3, lsl #9
     f50:	00fb8006 	rscseq	r8, fp, r6
     f54:	03050000 	movweq	r0, #20480	; 0x5000
     f58:	0000e93c 	andeq	lr, r0, ip, lsr r9
     f5c:	00046a32 	andeq	r6, r4, r2, lsr sl
     f60:	931b0800 	tstls	fp, #0, 16
     f64:	7b000000 	blvc	f6c <_start-0x7094>
     f68:	3300000f 	movwcc	r0, #15
     f6c:	00000093 	muleq	r0, r3, r0
     f70:	00002533 	andeq	r2, r0, r3, lsr r5
     f74:	002c3300 	eoreq	r3, ip, r0, lsl #6
     f78:	32000000 	andcc	r0, r0, #0
     f7c:	00000601 	andeq	r0, r0, r1, lsl #12
     f80:	00252709 	eoreq	r2, r5, r9, lsl #14
     f84:	0f910000 	svceq	0x00910000
     f88:	9c330000 	ldcls	0, cr0, [r3], #-0
     f8c:	34000000 	strcc	r0, [r0], #-0
     f90:	02963500 	addseq	r3, r6, #0, 10
     f94:	64090000 	strvs	r0, [r9], #-0
     f98:	0004ac32 	andeq	sl, r4, r2, lsr ip
     f9c:	37a40900 	strcc	r0, [r4, r0, lsl #18]!
     fa0:	ad000000 	stcge	0, cr0, [r0, #-0]
     fa4:	3300000f 	movwcc	r0, #15
     fa8:	00000fad 	andeq	r0, r0, sp, lsr #31
     fac:	b3040600 	movwlt	r0, #17920	; 0x4600
     fb0:	0700000f 	streq	r0, [r0, -pc]
     fb4:	00000fb8 			; <UNDEFINED> instruction: 0x00000fb8
     fb8:	04263536 	strteq	r3, [r6], #-1334	; 0x536
     fbc:	85090000 	strhi	r0, [r9, #-0]
     fc0:	0002b137 	andeq	fp, r2, r7, lsr r1
     fc4:	d6190500 	ldrle	r0, [r9], -r0, lsl #10
     fc8:	3300000f 	movwcc	r0, #15
     fcc:	00000037 	andeq	r0, r0, r7, lsr r0
     fd0:	0000f033 	andeq	pc, r0, r3, lsr r0	; <UNPREDICTABLE>
     fd4:	18370000 	ldmdane	r7!, {}	; <UNPREDICTABLE>
     fd8:	09000004 	stmdbeq	r0, {r2}
     fdc:	000fec98 	muleq	pc, r8, ip	; <UNPREDICTABLE>
     fe0:	0fec3300 	svceq	0x00ec3300
     fe4:	37330000 	ldrcc	r0, [r3, -r0]!
     fe8:	00000000 	andeq	r0, r0, r0
     fec:	0fb80406 	svceq	0x00b80406
     ff0:	50350000 	eorspl	r0, r5, r0
     ff4:	0a000005 	beq	1010 <_start-0x6ff0>
     ff8:	02523726 	subseq	r3, r2, #9961472	; 0x980000
     ffc:	3a090000 	bcc	241004 <__bss_end__+0x2326c4>
    1000:	0000100a 	andeq	r1, r0, sl
    1004:	00003733 	andeq	r3, r0, r3, lsr r7
    1008:	3d380000 	ldccc	0, cr0, [r8, #-0]
    100c:	09000001 	stmdbeq	r0, {r0}
    1010:	00002542 	andeq	r2, r0, r2, asr #10
    1014:	03173500 	tsteq	r7, #0, 10
    1018:	250a0000 	strcs	r0, [sl, #-0]
    101c:	000a8e38 	andeq	r8, sl, r8, lsr lr
    1020:	25390900 	ldrcs	r0, [r9, #-2304]!	; 0x900
    1024:	38000000 	stmdacc	r0, {}	; <UNPREDICTABLE>
    1028:	000000c0 	andeq	r0, r0, r0, asr #1
    102c:	00254409 	eoreq	r4, r5, r9, lsl #8
    1030:	4f370000 	svcmi	0x00370000
    1034:	07000002 	streq	r0, [r0, -r2]
    1038:	00104844 	andseq	r4, r0, r4, asr #16
    103c:	10483300 	subne	r3, r8, r0, lsl #6
    1040:	65330000 	ldrvs	r0, [r3, #-0]!
    1044:	00000000 	andeq	r0, r0, r0
    1048:	022a0406 	eoreq	r0, sl, #100663296	; 0x6000000
    104c:	ac320000 	ldcge	0, cr0, [r2], #-0
    1050:	07000000 	streq	r0, [r0, -r0]
    1054:	00022a1d 	andeq	r2, r2, sp, lsl sl
    1058:	00107200 	andseq	r7, r0, r0, lsl #4
    105c:	005a3300 	subseq	r3, sl, r0, lsl #6
    1060:	5a330000 	bpl	cc1068 <__bss_end__+0xcb2728>
    1064:	33000000 	movwcc	r0, #0
    1068:	00000073 	andeq	r0, r0, r3, ror r0
    106c:	00007333 	andeq	r7, r0, r3, lsr r3
    1070:	ff350000 			; <UNDEFINED> instruction: 0xff350000
    1074:	0a000002 	beq	1084 <_start-0x6f7c>
    1078:	04763527 	ldrbteq	r3, [r6], #-1319	; 0x527
    107c:	89090000 	stmdbhi	r9, {}	; <UNPREDICTABLE>
    1080:	0000db00 	andeq	sp, r0, r0, lsl #22
    1084:	fe000400 	cdp2	4, 0, cr0, cr0, cr0, {0}
    1088:	04000002 	streq	r0, [r0], #-2
    108c:	0003a201 	andeq	sl, r3, r1, lsl #4
    1090:	058f0100 	streq	r0, [pc, #256]	; 1198 <_start-0x6e68>
    1094:	059d0000 	ldreq	r0, [sp]
    1098:	87700000 	ldrbhi	r0, [r0, -r0]!
    109c:	00200000 	eoreq	r0, r0, r0
    10a0:	040b0000 	streq	r0, [fp], #-0
    10a4:	01020000 	mrseq	r0, (UNDEF: 2)
    10a8:	00035606 	andeq	r5, r3, r6, lsl #12
    10ac:	08010200 	stmdaeq	r1, {r9}
    10b0:	00000354 	andeq	r0, r0, r4, asr r3
    10b4:	6a050202 	bvs	1418c4 <__bss_end__+0x132f84>
    10b8:	02000003 	andeq	r0, r0, #3
    10bc:	021f0702 	andseq	r0, pc, #524288	; 0x80000
    10c0:	04030000 	streq	r0, [r3], #-0
    10c4:	746e6905 	strbtvc	r6, [lr], #-2309	; 0x905
    10c8:	07040200 	streq	r0, [r4, -r0, lsl #4]
    10cc:	00000064 	andeq	r0, r0, r4, rrx
    10d0:	9e050802 	cdpls	8, 0, cr0, cr5, cr2, {0}
    10d4:	02000000 	andeq	r0, r0, #0
    10d8:	005a0708 	subseq	r0, sl, r8, lsl #14
    10dc:	04020000 	streq	r0, [r2], #-0
    10e0:	0000a305 	andeq	sl, r0, r5, lsl #6
    10e4:	07040200 	streq	r0, [r4, -r0, lsl #4]
    10e8:	000002a8 	andeq	r0, r0, r8, lsr #5
    10ec:	04020404 	streq	r0, [r2], #-1028	; 0x404
    10f0:	00005f07 	andeq	r5, r0, r7, lsl #30
    10f4:	7a040500 	bvc	1024fc <__bss_end__+0xf3bbc>
    10f8:	02000000 	andeq	r0, r0, #0
    10fc:	035d0801 	cmpeq	sp, #65536	; 0x10000
    1100:	0e060000 	cdpeq	0, 0, cr0, cr6, cr0, {0}
    1104:	02000000 	andeq	r0, r0, #0
    1108:	000048d4 	ldrdeq	r4, [r0], -r4	; <UNPREDICTABLE>
    110c:	046a0700 	strbteq	r0, [sl], #-1792	; 0x700
    1110:	1b030000 	blne	c1118 <__bss_end__+0xb27d8>
    1114:	0000006b 	andeq	r0, r0, fp, rrx
    1118:	00008770 	andeq	r8, r0, r0, ror r7
    111c:	00000020 	andeq	r0, r0, r0, lsr #32
    1120:	5f089c01 	svcpl	0x00089c01
    1124:	03010070 	movweq	r0, #4208	; 0x1070
    1128:	0000006b 	andeq	r0, r0, fp, rrx
    112c:	63085001 	movwvs	r5, #32769	; 0x8001
    1130:	41030100 	mrsmi	r0, (UNDEF: 19)
    1134:	01000000 	mrseq	r0, (UNDEF: 0)
    1138:	006e0951 	rsbeq	r0, lr, r1, asr r9
    113c:	00810301 	addeq	r0, r1, r1, lsl #6
    1140:	04190000 	ldreq	r0, [r9], #-0
    1144:	700a0000 	andvc	r0, sl, r0
    1148:	74040100 	strvc	r0, [r4], #-256	; 0x100
    114c:	3a000000 	bcc	1154 <_start-0x6eac>
    1150:	0b000004 	bleq	1168 <_start-0x6e98>
    1154:	04010065 	streq	r0, [r1], #-101	; 0x65
    1158:	00000074 	andeq	r0, r0, r4, ror r0
    115c:	00005201 	andeq	r5, r0, r1, lsl #4
    1160:	00000191 	muleq	r0, r1, r1
    1164:	039b0004 	orrseq	r0, fp, #4
    1168:	01040000 	mrseq	r0, (UNDEF: 4)
    116c:	000003a2 	andeq	r0, r0, r2, lsr #7
    1170:	0005f001 	andeq	pc, r5, r1
    1174:	00059d00 	andeq	r9, r5, r0, lsl #26
    1178:	00879000 	addeq	r9, r7, r0
    117c:	00005800 	andeq	r5, r0, r0, lsl #16
    1180:	0004fb00 	andeq	pc, r4, r0, lsl #22
    1184:	05e10200 	strbeq	r0, [r1, #512]!	; 0x200
    1188:	28020000 	stmdacs	r2, {}	; <UNPREDICTABLE>
    118c:	00000030 	andeq	r0, r0, r0, lsr r0
    1190:	00060803 	andeq	r0, r6, r3, lsl #16
    1194:	00030400 	andeq	r0, r3, r0, lsl #8
    1198:	00000047 	andeq	r0, r0, r7, asr #32
    119c:	00061704 	andeq	r1, r6, r4, lsl #14
    11a0:	00004700 	andeq	r4, r0, r0, lsl #14
    11a4:	05000000 	streq	r0, [r0, #-0]
    11a8:	060a0204 	streq	r0, [sl], -r4, lsl #4
    11ac:	62020000 	andvs	r0, r2, #0
    11b0:	00000025 	andeq	r0, r0, r5, lsr #32
    11b4:	69050406 	stmdbvs	r5, {r1, r2, sl}
    11b8:	0700746e 	streq	r7, [r0, -lr, ror #8]
    11bc:	00640704 	rsbeq	r0, r4, r4, lsl #14
    11c0:	01070000 	mrseq	r0, (UNDEF: 7)
    11c4:	00035606 	andeq	r5, r3, r6, lsl #12
    11c8:	05020700 	streq	r0, [r2, #-1792]	; 0x700
    11cc:	0000036a 	andeq	r0, r0, sl, ror #6
    11d0:	a3050407 	movwge	r0, #21511	; 0x5407
    11d4:	07000000 	streq	r0, [r0, -r0]
    11d8:	009e0508 	addseq	r0, lr, r8, lsl #10
    11dc:	01070000 	mrseq	r0, (UNDEF: 7)
    11e0:	00035408 	andeq	r5, r3, r8, lsl #8
    11e4:	07020700 	streq	r0, [r2, -r0, lsl #14]
    11e8:	0000021f 	andeq	r0, r0, pc, lsl r2
    11ec:	5f070407 	svcpl	0x00070407
    11f0:	07000000 	streq	r0, [r0, -r0]
    11f4:	005a0708 	subseq	r0, sl, r8, lsl #14
    11f8:	04070000 	streq	r0, [r7], #-0
    11fc:	0002a807 	andeq	sl, r2, r7, lsl #16
    1200:	a7040800 	strge	r0, [r4, -r0, lsl #16]
    1204:	07000000 	streq	r0, [r0, -r0]
    1208:	035d0801 	cmpeq	sp, #65536	; 0x10000
    120c:	04080000 	streq	r0, [r8], #-0
    1210:	000000b4 	strheq	r0, [r0], -r4
    1214:	0000a709 	andeq	sl, r0, r9, lsl #14
    1218:	06010a00 	streq	r0, [r1], -r0, lsl #20
    121c:	06010000 	streq	r0, [r1], -r0
    1220:	00000054 	andeq	r0, r0, r4, asr r0
    1224:	00008790 	muleq	r0, r0, r7
    1228:	00000058 	andeq	r0, r0, r8, asr r0
    122c:	01439c01 	cmpeq	r3, r1, lsl #24
    1230:	660b0000 	strvs	r0, [fp], -r0
    1234:	0100746d 	tsteq	r0, sp, ror #8
    1238:	0000ae06 	andeq	sl, r0, r6, lsl #28
    123c:	70910200 	addsvc	r0, r1, r0, lsl #4
    1240:	75620d0c 	strbvc	r0, [r2, #-3340]!	; 0xd0c
    1244:	08010066 	stmdaeq	r1, {r1, r2, r5, r6}
    1248:	00000143 	andeq	r0, r0, r3, asr #2
    124c:	e5300305 	ldr	r0, [r0, #-773]!	; 0x305
    1250:	120e0000 	andne	r0, lr, #0
    1254:	01000006 	tsteq	r0, r6
    1258:	00004909 	andeq	r4, r0, r9, lsl #18
    125c:	5c910200 	lfmpl	f0, 4, [r1], {0}
    1260:	007a730f 	rsbseq	r7, sl, pc, lsl #6
    1264:	00540c01 	subseq	r0, r4, r1, lsl #24
    1268:	04650000 	strbteq	r0, [r5], #-0
    126c:	b8100000 	ldmdalt	r0, {}	; <UNPREDICTABLE>
    1270:	74000087 	strvc	r0, [r0], #-135	; 0x87
    1274:	36000001 	strcc	r0, [r0], -r1
    1278:	11000001 	tstne	r0, r1
    127c:	91025301 	tstls	r2, r1, lsl #6
    1280:	5201114c 	andpl	r1, r1, #76, 2
    1284:	06489103 	strbeq	r9, [r8], -r3, lsl #2
    1288:	03510111 	cmpeq	r1, #1073741828	; 0x40000004
    128c:	1104000a 	tstne	r4, sl
    1290:	74025001 	strvc	r5, [r2], #-1
    1294:	cc120000 	ldcgt	0, cr0, [r2], {-0}
    1298:	11000087 	smlabbne	r0, r7, r0, r0
    129c:	74025001 	strvc	r5, [r2], #-1
    12a0:	13000000 	movwne	r0, #0
    12a4:	000000a7 	andeq	r0, r0, r7, lsr #1
    12a8:	00000154 	andeq	r0, r0, r4, asr r1
    12ac:	00009a14 	andeq	r9, r0, r4, lsl sl
    12b0:	0003ff00 	andeq	pc, r3, r0, lsl #30
    12b4:	00005415 	andeq	r5, r0, r5, lsl r4
    12b8:	00016300 	andeq	r6, r1, r0, lsl #6
    12bc:	00ae1600 	adceq	r1, lr, r0, lsl #12
    12c0:	17000000 	strne	r0, [r0, -r0]
    12c4:	00000631 	andeq	r0, r0, r1, lsr r6
    12c8:	016e2004 	cmneq	lr, r4
    12cc:	04080000 	streq	r0, [r8], #-0
    12d0:	00000154 	andeq	r0, r0, r4, asr r1
    12d4:	0005fe18 	andeq	pc, r5, r8, lsl lr	; <UNPREDICTABLE>
    12d8:	54020500 	strpl	r0, [r2], #-1280	; 0x500
    12dc:	16000000 	strne	r0, [r0], -r0
    12e0:	000000a1 	andeq	r0, r0, r1, lsr #1
    12e4:	00005416 	andeq	r5, r0, r6, lsl r4
    12e8:	00ae1600 	adceq	r1, lr, r0, lsl #12
    12ec:	49160000 	ldmdbmi	r6, {}	; <UNPREDICTABLE>
    12f0:	00000000 	andeq	r0, r0, r0
    12f4:	0000ee00 	andeq	lr, r0, r0, lsl #28
    12f8:	cc000400 	cfstrsgt	mvf0, [r0], {-0}
    12fc:	04000004 	streq	r0, [r0], #-4
    1300:	0003a201 	andeq	sl, r3, r1, lsl #4
    1304:	061c0100 	ldreq	r0, [ip], -r0, lsl #2
    1308:	059d0000 	ldreq	r0, [sp]
    130c:	87e80000 	strbhi	r0, [r8, r0]!
    1310:	00340000 	eorseq	r0, r4, r0
    1314:	06010000 	streq	r0, [r1], -r0
    1318:	04020000 	streq	r0, [r2], #-0
    131c:	746e6905 	strbtvc	r6, [lr], #-2309	; 0x905
    1320:	07040300 	streq	r0, [r4, -r0, lsl #6]
    1324:	00000064 	andeq	r0, r0, r4, rrx
    1328:	56060103 	strpl	r0, [r6], -r3, lsl #2
    132c:	03000003 	movweq	r0, #3
    1330:	036a0502 	cmneq	sl, #8388608	; 0x800000
    1334:	04030000 	streq	r0, [r3], #-0
    1338:	0000a305 	andeq	sl, r0, r5, lsl #6
    133c:	05080300 	streq	r0, [r8, #-768]	; 0x300
    1340:	0000009e 	muleq	r0, lr, r0
    1344:	54080103 	strpl	r0, [r8], #-259	; 0x103
    1348:	03000003 	movweq	r0, #3
    134c:	021f0702 	andseq	r0, pc, #524288	; 0x80000
    1350:	04030000 	streq	r0, [r3], #-0
    1354:	00005f07 	andeq	r5, r0, r7, lsl #30
    1358:	07080300 	streq	r0, [r8, -r0, lsl #6]
    135c:	0000005a 	andeq	r0, r0, sl, asr r0
    1360:	a8070403 	stmdage	r7, {r0, r1, sl}
    1364:	03000002 	movweq	r0, #2
    1368:	035d0801 	cmpeq	sp, #65536	; 0x10000
    136c:	04040000 	streq	r0, [r4], #-0
    1370:	0000007f 	andeq	r0, r0, pc, ror r0
    1374:	00007205 	andeq	r7, r0, r5, lsl #4
    1378:	06280600 	strteq	r0, [r8], -r0, lsl #12
    137c:	04010000 	streq	r0, [r1], #-0
    1380:	00000025 	andeq	r0, r0, r5, lsr #32
    1384:	000087e8 	andeq	r8, r0, r8, ror #15
    1388:	00000034 	andeq	r0, r0, r4, lsr r0
    138c:	00ab9c01 	adceq	r9, fp, r1, lsl #24
    1390:	70070000 	andvc	r0, r7, r0
    1394:	79040100 	stmdbvc	r4, {r8}
    1398:	8e000000 	cdphi	0, 0, cr0, cr0, cr0, {0}
    139c:	00000004 	andeq	r0, r0, r4
    13a0:	00002508 	andeq	r2, r0, r8, lsl #10
    13a4:	0000ba00 	andeq	fp, r0, r0, lsl #20
    13a8:	00250900 	eoreq	r0, r5, r0, lsl #18
    13ac:	0a000000 	beq	13b4 <_start-0x6c4c>
    13b0:	00000636 	andeq	r0, r0, r6, lsr r6
    13b4:	00c51d02 	sbceq	r1, r5, r2, lsl #26
    13b8:	04040000 	streq	r0, [r4], #-0
    13bc:	000000ab 	andeq	r0, r0, fp, lsr #1
    13c0:	00002508 	andeq	r2, r0, r8, lsl #10
    13c4:	0000da00 	andeq	sp, r0, r0, lsl #20
    13c8:	00790900 	rsbseq	r0, r9, r0, lsl #18
    13cc:	0b000000 	bleq	13d4 <_start-0x6c2c>
    13d0:	00000631 	andeq	r0, r0, r1, lsr r6
    13d4:	00eb0c01 	rsceq	r0, fp, r1, lsl #24
    13d8:	03050000 	movweq	r0, #20480	; 0x5000
    13dc:	00009f88 	andeq	r9, r0, r8, lsl #31
    13e0:	00cb0404 	sbceq	r0, fp, r4, lsl #8
    13e4:	54000000 	strpl	r0, [r0], #-0
    13e8:	04000006 	streq	r0, [r0], #-6
    13ec:	00056500 	andeq	r6, r5, r0, lsl #10
    13f0:	a2010400 	andge	r0, r1, #0, 8
    13f4:	01000003 	tsteq	r0, r3
    13f8:	0000066e 	andeq	r0, r0, lr, ror #12
    13fc:	0000059d 	muleq	r0, sp, r5
    1400:	0000881c 	andeq	r8, r0, ip, lsl r8
    1404:	000004f0 	strdeq	r0, [r0], -r0	; <UNPREDICTABLE>
    1408:	0000069b 	muleq	r0, fp, r6
    140c:	69050402 	stmdbvs	r5, {r1, sl}
    1410:	0300746e 	movweq	r7, #1134	; 0x46e
    1414:	00640704 	rsbeq	r0, r4, r4, lsl #14
    1418:	01030000 	mrseq	r0, (UNDEF: 3)
    141c:	00035606 	andeq	r5, r3, r6, lsl #12
    1420:	05020300 	streq	r0, [r2, #-768]	; 0x300
    1424:	0000036a 	andeq	r0, r0, sl, ror #6
    1428:	a3050403 	movwge	r0, #21507	; 0x5403
    142c:	03000000 	movweq	r0, #0
    1430:	009e0508 	addseq	r0, lr, r8, lsl #10
    1434:	01030000 	mrseq	r0, (UNDEF: 3)
    1438:	00035408 	andeq	r5, r3, r8, lsl #8
    143c:	07020300 	streq	r0, [r2, -r0, lsl #6]
    1440:	0000021f 	andeq	r0, r0, pc, lsl r2
    1444:	5f070403 	svcpl	0x00070403
    1448:	03000000 	movweq	r0, #0
    144c:	005a0708 	subseq	r0, sl, r8, lsl #14
    1450:	04030000 	streq	r0, [r3], #-0
    1454:	0002a807 	andeq	sl, r2, r7, lsl #16
    1458:	05040400 	streq	r0, [r4, #-1024]	; 0x400
    145c:	00007a04 	andeq	r7, r0, r4, lsl #20
    1460:	08010300 	stmdaeq	r1, {r8, r9}
    1464:	0000035d 	andeq	r0, r0, sp, asr r3
    1468:	00870405 	addeq	r0, r7, r5, lsl #8
    146c:	7a060000 	bvc	181474 <__bss_end__+0x172b34>
    1470:	07000000 	streq	r0, [r0, -r0]
    1474:	000005e1 	andeq	r0, r0, r1, ror #11
    1478:	00972802 	addseq	r2, r7, r2, lsl #16
    147c:	08080000 	stmdaeq	r8, {}	; <UNPREDICTABLE>
    1480:	04000006 	streq	r0, [r0], #-6
    1484:	00ae0004 	adceq	r0, lr, r4
    1488:	17090000 	strne	r0, [r9, -r0]
    148c:	72000006 	andvc	r0, r0, #6
    1490:	00000000 	andeq	r0, r0, r0
    1494:	060a0700 	streq	r0, [sl], -r0, lsl #14
    1498:	62020000 	andvs	r0, r2, #0
    149c:	0000008c 	andeq	r0, r0, ip, lsl #1
    14a0:	0006500a 	andeq	r5, r6, sl
    14a4:	25270100 	strcs	r0, [r7, #-256]!	; 0x100
    14a8:	1c000000 	stcne	0, cr0, [r0], {-0}
    14ac:	14000088 	strne	r0, [r0], #-136	; 0x88
    14b0:	01000000 	mrseq	r0, (UNDEF: 0)
    14b4:	0000e09c 	muleq	r0, ip, r0
    14b8:	00630b00 	rsbeq	r0, r3, r0, lsl #22
    14bc:	00252701 	eoreq	r2, r5, r1, lsl #14
    14c0:	04ac0000 	strteq	r0, [ip], #0
    14c4:	0c000000 	stceq	0, cr0, [r0], {-0}
    14c8:	00646170 	rsbeq	r6, r4, r0, ror r1
    14cc:	00742e01 	rsbseq	r2, r4, r1, lsl #28
    14d0:	88300000 	ldmdahi	r0!, {}	; <UNPREDICTABLE>
    14d4:	002c0000 	eoreq	r0, ip, r0
    14d8:	9c010000 	stcls	0, cr0, [r1], {-0}
    14dc:	00000130 	andeq	r0, r0, r0, lsr r1
    14e0:	0100700b 	tsteq	r0, fp
    14e4:	0000742e 	andeq	r7, r0, lr, lsr #8
    14e8:	0004da00 	andeq	sp, r4, r0, lsl #20
    14ec:	06600d00 	strbteq	r0, [r0], -r0, lsl #26
    14f0:	2e010000 	cdpcs	0, 0, cr0, cr1, cr0, {0}
    14f4:	00000074 	andeq	r0, r0, r4, ror r0
    14f8:	00000505 	andeq	r0, r0, r5, lsl #10
    14fc:	00068e0e 	andeq	r8, r6, lr, lsl #28
    1500:	252e0100 	strcs	r0, [lr, #-256]!	; 0x100
    1504:	01000000 	mrseq	r0, (UNDEF: 0)
    1508:	656c0f52 	strbvs	r0, [ip, #-3922]!	; 0xf52
    150c:	2f01006e 	svccs	0x0001006e
    1510:	00000025 	andeq	r0, r0, r5, lsr #32
    1514:	0a005101 	beq	15920 <__bss_end__+0x6fe0>
    1518:	00000648 	andeq	r0, r0, r8, asr #12
    151c:	00743701 	rsbseq	r3, r4, r1, lsl #14
    1520:	885c0000 	ldmdahi	ip, {}^	; <UNPREDICTABLE>
    1524:	00400000 	subeq	r0, r0, r0
    1528:	9c010000 	stcls	0, cr0, [r1], {-0}
    152c:	0000019c 	muleq	r0, ip, r1
    1530:	7473640b 	ldrbtvc	r6, [r3], #-1035	; 0x40b
    1534:	74370100 	ldrtvc	r0, [r7], #-256	; 0x100
    1538:	26000000 	strcs	r0, [r0], -r0
    153c:	0b000005 	bleq	1558 <_start-0x6aa8>
    1540:	3701006e 	strcc	r0, [r1, -lr, rrx]
    1544:	00000025 	andeq	r0, r0, r5, lsr #32
    1548:	0000055e 	andeq	r0, r0, lr, asr r5
    154c:	0100700b 	tsteq	r0, fp
    1550:	00007437 	andeq	r7, r0, r7, lsr r4
    1554:	00057f00 	andeq	r7, r5, r0, lsl #30
    1558:	07600d00 	strbeq	r0, [r0, -r0, lsl #26]!
    155c:	37010000 	strcc	r0, [r1, -r0]
    1560:	00000074 	andeq	r0, r0, r4, ror r0
    1564:	000005b5 			; <UNDEFINED> instruction: 0x000005b5
    1568:	6e656c10 	mcrvs	12, 3, r6, cr5, cr0, {0}
    156c:	25390100 	ldrcs	r0, [r9, #-256]!	; 0x100
    1570:	d3000000 	movwle	r0, #0
    1574:	0f000005 	svceq	0x00000005
    1578:	3d010073 	stccc	0, cr0, [r1, #-460]	; 0xfffffe34
    157c:	00000074 	andeq	r0, r0, r4, ror r0
    1580:	0a005001 	beq	1558c <__bss_end__+0x6c4c>
    1584:	0000069c 	muleq	r0, ip, r6
    1588:	00744701 	rsbseq	r4, r4, r1, lsl #14
    158c:	889c0000 	ldmhi	ip, {}	; <UNPREDICTABLE>
    1590:	01980000 	orrseq	r0, r8, r0
    1594:	9c010000 	stcls	0, cr0, [r1], {-0}
    1598:	000002ca 	andeq	r0, r0, sl, asr #5
    159c:	0006600d 	andeq	r6, r6, sp
    15a0:	2c470100 	stfcse	f0, [r7], {-0}
    15a4:	fa000000 	blx	15ac <_start-0x6a54>
    15a8:	0b000005 	bleq	15c4 <_start-0x6a3c>
    15ac:	00747364 	rsbseq	r7, r4, r4, ror #6
    15b0:	00744701 	rsbseq	r4, r4, r1, lsl #14
    15b4:	06280000 	strteq	r0, [r8], -r0
    15b8:	6e0b0000 	cdpvs	0, 0, cr0, cr11, cr0, {0}
    15bc:	25470100 	strbcs	r0, [r7, #-256]	; 0x100
    15c0:	96000000 	strls	r0, [r0], -r0
    15c4:	0b000006 	bleq	15e4 <_start-0x6a1c>
    15c8:	006c6176 	rsbeq	r6, ip, r6, ror r1
    15cc:	00254701 	eoreq	r4, r5, r1, lsl #14
    15d0:	06c20000 	strbeq	r0, [r2], r0
    15d4:	8e0d0000 	cdphi	0, 0, cr0, cr13, cr0, {0}
    15d8:	01000006 	tsteq	r0, r6
    15dc:	00002547 	andeq	r2, r0, r7, asr #10
    15e0:	00074c00 	andeq	r4, r7, r0, lsl #24
    15e4:	06650e00 	strbteq	r0, [r5], -r0, lsl #28
    15e8:	47010000 	strmi	r0, [r1, -r0]
    15ec:	00000025 	andeq	r0, r0, r5, lsr #32
    15f0:	0f049102 	svceq	0x00049102
    15f4:	00667562 	rsbeq	r7, r6, r2, ror #10
    15f8:	02ca4c01 	sbceq	r4, sl, #256	; 0x100
    15fc:	91030000 	mrsls	r0, (UNDEF: 3)
    1600:	70107fa8 	andsvc	r7, r0, r8, lsr #31
    1604:	744c0100 	strbvc	r0, [ip], #-256	; 0x100
    1608:	76000000 	strvc	r0, [r0], -r0
    160c:	10000007 	andne	r0, r0, r7
    1610:	4d010075 	stcmi	0, cr0, [r1, #-468]	; 0xfffffe2c
    1614:	0000002c 	andeq	r0, r0, ip, lsr #32
    1618:	0000081b 	andeq	r0, r0, fp, lsl r8
    161c:	00019311 	andeq	r9, r1, r1, lsl r3
    1620:	0002ea00 	andeq	lr, r2, r0, lsl #20
    1624:	14030500 	strne	r0, [r3], #-1280	; 0x500
    1628:	120000a1 	andne	r0, r0, #161	; 0xa1
    162c:	00008908 	andeq	r8, r0, r8, lsl #18
    1630:	00000074 	andeq	r0, r0, r4, ror r0
    1634:	00000261 	andeq	r0, r0, r1, ror #4
    1638:	00064213 	andeq	r4, r6, r3, lsl r2
    163c:	2c520100 	ldfcse	f0, [r2], {-0}
    1640:	2b000000 	blcs	1648 <_start-0x69b8>
    1644:	00000009 	andeq	r0, r0, r9
    1648:	0089ec14 	addeq	lr, r9, r4, lsl ip
    164c:	00063a00 	andeq	r3, r6, r0, lsl #20
    1650:	00029000 	andeq	r9, r2, r0
    1654:	53011500 	movwpl	r1, #5376	; 0x1500
    1658:	15750802 	ldrbne	r0, [r5, #-2050]!	; 0x802
    165c:	03055201 	movweq	r5, #20993	; 0x5201
    1660:	0000a114 	andeq	sl, r0, r4, lsl r1
    1664:	05510115 	ldrbeq	r0, [r1, #-277]	; 0x115
    1668:	00a14c03 	adceq	r4, r1, r3, lsl #24
    166c:	50011500 	andpl	r1, r1, r0, lsl #10
    1670:	a1380305 	teqge	r8, r5, lsl #6
    1674:	16000000 	strne	r0, [r0], -r0
    1678:	000089f0 	strdeq	r8, [r0], -r0
    167c:	00000650 	andeq	r0, r0, r0, asr r6
    1680:	0089fc14 	addeq	pc, r9, r4, lsl ip	; <UNPREDICTABLE>
    1684:	0000e000 	andeq	lr, r0, r0
    1688:	0002ad00 	andeq	sl, r2, r0, lsl #26
    168c:	51011500 	tstpl	r1, r0, lsl #10
    1690:	00007d02 	andeq	r7, r0, r2, lsl #26
    1694:	008a1017 	addeq	r1, sl, r7, lsl r0
    1698:	00013000 	andeq	r3, r1, r0
    169c:	53011500 	movwpl	r1, #5376	; 0x1500
    16a0:	15007d02 	strne	r7, [r0, #-3330]	; 0xd02
    16a4:	74025101 	strvc	r5, [r2], #-257	; 0x101
    16a8:	50011500 	andpl	r1, r1, r0, lsl #10
    16ac:	00007502 	andeq	r7, r0, r2, lsl #10
    16b0:	007a1800 	rsbseq	r1, sl, r0, lsl #16
    16b4:	02da0000 	sbcseq	r0, sl, #0
    16b8:	6b190000 	blvs	6416c0 <__bss_end__+0x632d80>
    16bc:	3f000000 	svccc	0x00000000
    16c0:	007a1800 	rsbseq	r1, sl, r0, lsl #16
    16c4:	02ea0000 	rsceq	r0, sl, #0
    16c8:	6b190000 	blvs	6416d0 <__bss_end__+0x632d90>
    16cc:	04000000 	streq	r0, [r0], #-0
    16d0:	02da0600 	sbcseq	r0, sl, #0, 12
    16d4:	7f1a0000 	svcvc	0x001a0000
    16d8:	01000006 	tsteq	r0, r6
    16dc:	008a341f 	addeq	r3, sl, pc, lsl r4
    16e0:	00005000 	andeq	r5, r0, r0
    16e4:	6a9c0100 	bvs	fe701aec <__bss_end__+0xfe6f31ac>
    16e8:	0d000003 	stceq	0, cr0, [r0, #-12]
    16ec:	00000694 	muleq	r0, r4, r6
    16f0:	03791f01 	cmneq	r9, #1, 30
    16f4:	09570000 	ldmdbeq	r7, {}^	; <UNPREDICTABLE>
    16f8:	580d0000 	stmdapl	sp, {}	; <UNPREDICTABLE>
    16fc:	01000006 	tsteq	r0, r6
    1700:	00038e1f 	andeq	r8, r3, pc, lsl lr
    1704:	00098300 	andeq	r8, r9, r0, lsl #6
    1708:	01931100 	orrseq	r1, r3, r0, lsl #2
    170c:	03a40000 			; <UNDEFINED> instruction: 0x03a40000
    1710:	03050000 	movweq	r0, #20480	; 0x5000
    1714:	0000a11c 	andeq	sl, r0, ip, lsl r1
    1718:	008a5414 	addeq	r5, sl, r4, lsl r4
    171c:	00063a00 	andeq	r3, r6, r0, lsl #20
    1720:	00036000 	andeq	r6, r3, r0
    1724:	53011500 	movwpl	r1, #5376	; 0x1500
    1728:	15200802 	strne	r0, [r0, #-2050]!	; 0x802
    172c:	03055201 	movweq	r5, #20993	; 0x5201
    1730:	0000a11c 	andeq	sl, r0, ip, lsl r1
    1734:	05510115 	ldrbeq	r0, [r1, #-277]	; 0x115
    1738:	00a14c03 	adceq	r4, r1, r3, lsl #24
    173c:	50011500 	andpl	r1, r1, r0, lsl #10
    1740:	a1840305 	orrge	r0, r4, r5, lsl #6
    1744:	16000000 	strne	r0, [r0], -r0
    1748:	00008a58 	andeq	r8, r0, r8, asr sl
    174c:	00000650 	andeq	r0, r0, r0, asr r6
    1750:	00251b00 	eoreq	r1, r5, r0, lsl #22
    1754:	03790000 	cmneq	r9, #0
    1758:	251c0000 	ldrcs	r0, [ip, #-0]
    175c:	00000000 	andeq	r0, r0, r0
    1760:	036a0405 	cmneq	sl, #83886080	; 0x5000000
    1764:	251b0000 	ldrcs	r0, [fp, #-0]
    1768:	8e000000 	cdphi	0, 0, cr0, cr0, cr0, {0}
    176c:	1c000003 	stcne	0, cr0, [r0], {3}
    1770:	00000081 	andeq	r0, r0, r1, lsl #1
    1774:	7f040500 	svcvc	0x00040500
    1778:	18000003 	stmdane	r0, {r0, r1}
    177c:	0000007a 	andeq	r0, r0, sl, ror r0
    1780:	000003a4 	andeq	r0, r0, r4, lsr #7
    1784:	00006b19 	andeq	r6, r0, r9, lsl fp
    1788:	06000e00 	streq	r0, [r0], -r0, lsl #28
    178c:	00000394 	muleq	r0, r4, r3
    1790:	0005fe1d 	andeq	pc, r5, sp, lsl lr	; <UNPREDICTABLE>
    1794:	257d0100 	ldrbcs	r0, [sp, #-256]!	; 0x100
    1798:	84000000 	strhi	r0, [r0], #-0
    179c:	8800008a 	stmdahi	r0, {r1, r3, r7}
    17a0:	01000002 	tsteq	r0, r2
    17a4:	0005ff9c 	muleq	r5, ip, pc	; <UNPREDICTABLE>
    17a8:	75620b00 	strbvc	r0, [r2, #-2816]!	; 0xb00
    17ac:	7d010066 	stcvc	0, cr0, [r1, #-408]	; 0xfffffe68
    17b0:	00000074 	andeq	r0, r0, r4, ror r0
    17b4:	000009af 	andeq	r0, r0, pc, lsr #19
    17b8:	01006e0b 	tsteq	r0, fp, lsl #28
    17bc:	0000257d 	andeq	r2, r0, sp, ror r5
    17c0:	0009db00 	andeq	sp, r9, r0, lsl #22
    17c4:	6d660b00 	vstmdbvs	r6!, {d16-d15}
    17c8:	7d010074 	stcvc	0, cr0, [r1, #-464]	; 0xfffffe30
    17cc:	00000081 	andeq	r0, r0, r1, lsl #1
    17d0:	00000a09 	andeq	r0, r0, r9, lsl #20
    17d4:	0006120d 	andeq	r1, r6, sp, lsl #4
    17d8:	ae7d0100 	rpwgee	f0, f5, f0
    17dc:	3d000000 	stccc	0, cr0, [r0, #-0]
    17e0:	1000000a 	andne	r0, r0, sl
    17e4:	7e010070 	mcrvc	0, 0, r0, cr1, cr0, {3}
    17e8:	00000074 	andeq	r0, r0, r4, ror r0
    17ec:	00000a50 	andeq	r0, r0, r0, asr sl
    17f0:	01006510 	tsteq	r0, r0, lsl r5
    17f4:	0000747e 	andeq	r7, r0, lr, ror r4
    17f8:	000ace00 	andeq	ip, sl, r0, lsl #28
    17fc:	01931100 	orrseq	r1, r3, r0, lsl #2
    1800:	060f0000 	streq	r0, [pc], -r0
    1804:	03050000 	movweq	r0, #20480	; 0x5000
    1808:	0000a12c 	andeq	sl, r0, ip, lsr #2
    180c:	008ad81e 	addeq	sp, sl, lr, lsl r8
    1810:	0001f400 	andeq	pc, r1, r0, lsl #8
    1814:	00731000 	rsbseq	r1, r3, r0
    1818:	00748b01 	rsbseq	r8, r4, r1, lsl #22
    181c:	0af50000 	beq	ffd41824 <__bss_end__+0xffd32ee4>
    1820:	6e0f0000 	cdpvs	0, 0, cr0, cr15, cr0, {0}
    1824:	01006d75 	tsteq	r0, r5, ror sp
    1828:	0006148b 	andeq	r1, r6, fp, lsl #9
    182c:	d8910300 	ldmle	r1, {r8, r9}
    1830:	068e137e 			; <UNDEFINED> instruction: 0x068e137e
    1834:	8c010000 	stchi	0, cr0, [r1], {-0}
    1838:	0000002c 	andeq	r0, r0, ip, lsr #32
    183c:	00000b4a 	andeq	r0, r0, sl, asr #22
    1840:	008b0814 	addeq	r0, fp, r4, lsl r8
    1844:	0000b900 	andeq	fp, r0, r0, lsl #18
    1848:	00046d00 	andeq	r6, r4, r0, lsl #26
    184c:	50011500 	andpl	r1, r1, r0, lsl #10
    1850:	00007502 	andeq	r7, r0, r2, lsl #10
    1854:	008b2c14 	addeq	r2, fp, r4, lsl ip
    1858:	00063a00 	andeq	r3, r6, r0, lsl #20
    185c:	00049c00 	andeq	r9, r4, r0, lsl #24
    1860:	53011500 	movwpl	r1, #5376	; 0x1500
    1864:	15920802 	ldrne	r0, [r2, #2050]	; 0x802
    1868:	03055201 	movweq	r5, #20993	; 0x5201
    186c:	0000a12c 	andeq	sl, r0, ip, lsr #2
    1870:	05510115 	ldrbeq	r0, [r1, #-277]	; 0x115
    1874:	00a14c03 	adceq	r4, r1, r3, lsl #24
    1878:	50011500 	andpl	r1, r1, r0, lsl #10
    187c:	a19c0305 	orrsge	r0, ip, r5, lsl #6
    1880:	16000000 	strne	r0, [r0], -r0
    1884:	00008b30 	andeq	r8, r0, r0, lsr fp
    1888:	00000650 	andeq	r0, r0, r0, asr r6
    188c:	008bb014 	addeq	fp, fp, r4, lsl r0
    1890:	00063a00 	andeq	r3, r6, r0, lsl #20
    1894:	0004d400 	andeq	sp, r4, r0, lsl #8
    1898:	53011500 	movwpl	r1, #5376	; 0x1500
    189c:	15980802 	ldrne	r0, [r8, #2050]	; 0x802
    18a0:	03055201 	movweq	r5, #20993	; 0x5201
    18a4:	0000a12c 	andeq	sl, r0, ip, lsr #2
    18a8:	05510115 	ldrbeq	r0, [r1, #-277]	; 0x115
    18ac:	00a14c03 	adceq	r4, r1, r3, lsl #24
    18b0:	50011500 	andpl	r1, r1, r0, lsl #10
    18b4:	a1b80305 			; <UNDEFINED> instruction: 0xa1b80305
    18b8:	16000000 	strne	r0, [r0], -r0
    18bc:	00008bb4 			; <UNDEFINED> instruction: 0x00008bb4
    18c0:	00000650 	andeq	r0, r0, r0, asr r6
    18c4:	008bd814 	addeq	sp, fp, r4, lsl r8
    18c8:	00019c00 	andeq	r9, r1, r0, lsl #24
    18cc:	00050a00 	andeq	r0, r5, r0, lsl #20
    18d0:	52011500 	andpl	r1, r1, #0, 10
    18d4:	15800802 	strne	r0, [r0, #2050]	; 0x802
    18d8:	91035101 	tstls	r3, r1, lsl #2
    18dc:	01157ed0 			; <UNDEFINED> instruction: 0x01157ed0
    18e0:	153a0150 	ldrne	r0, [sl, #-336]!	; 0x150
    18e4:	01047d02 	tsteq	r4, r2, lsl #26
    18e8:	7d021531 	cfstr32vc	mvfx1, [r2, #-196]	; 0xffffff3c
    18ec:	00770200 	rsbseq	r0, r7, r0, lsl #4
    18f0:	8c001400 	cfstrshi	mvf1, [r0], {-0}
    18f4:	019c0000 	orrseq	r0, ip, r0
    18f8:	05370000 	ldreq	r0, [r7, #-0]!
    18fc:	01150000 	tsteq	r5, r0
    1900:	80080252 	andhi	r0, r8, r2, asr r2
    1904:	03510115 	cmpeq	r1, #1073741829	; 0x40000005
    1908:	157ed091 	ldrbne	sp, [lr, #-145]!	; 0x91
    190c:	3a015001 	bcc	55918 <__bss_end__+0x46fd8>
    1910:	047d0215 	ldrbteq	r0, [sp], #-533	; 0x215
    1914:	02153001 	andseq	r3, r5, #1
    1918:	7702007d 	smlsdxvc	r2, sp, r0, r0
    191c:	28140000 	ldmdacs	r4, {}	; <UNPREDICTABLE>
    1920:	9c00008c 	stcls	0, cr0, [r0], {140}	; 0x8c
    1924:	64000001 	strvs	r0, [r0], #-1
    1928:	15000005 	strne	r0, [r0, #-5]
    192c:	08025201 	stmdaeq	r2, {r0, r9, ip, lr}
    1930:	51011580 	smlabbpl	r1, r0, r5, r1
    1934:	7ed09103 	atnvcs	f1, f3
    1938:	01500115 	cmpeq	r0, r5, lsl r1
    193c:	7d021540 	cfstr32vc	mvfx1, [r2, #-256]	; 0xffffff00
    1940:	15300104 	ldrne	r0, [r0, #-260]!	; 0x104
    1944:	02007d02 	andeq	r7, r0, #2, 26	; 0x80
    1948:	14000077 	strne	r0, [r0], #-119	; 0x77
    194c:	00008c50 	andeq	r8, r0, r0, asr ip
    1950:	0000019c 	muleq	r0, ip, r1
    1954:	00000591 	muleq	r0, r1, r5
    1958:	02520115 	subseq	r0, r2, #1073741829	; 0x40000005
    195c:	01158008 	tsteq	r5, r8
    1960:	d0910351 	addsle	r0, r1, r1, asr r3
    1964:	5001157e 	andpl	r1, r1, lr, ror r5
    1968:	02153201 	andseq	r3, r5, #268435456	; 0x10000000
    196c:	3001047d 	andcc	r0, r1, sp, ror r4
    1970:	007d0215 	rsbseq	r0, sp, r5, lsl r2
    1974:	00007702 	andeq	r7, r0, r2, lsl #14
    1978:	008c8414 	addeq	r8, ip, r4, lsl r4
    197c:	00019c00 	andeq	r9, r1, r0, lsl #24
    1980:	0005be00 	andeq	fp, r5, r0, lsl #28
    1984:	52011500 	andpl	r1, r1, #0, 10
    1988:	15800802 	strne	r0, [r0, #2050]	; 0x802
    198c:	91035101 	tstls	r3, r1, lsl #2
    1990:	01157ed0 			; <UNDEFINED> instruction: 0x01157ed0
    1994:	15380150 	ldrne	r0, [r8, #-336]!	; 0x150
    1998:	01047d02 	tsteq	r4, r2, lsl #26
    199c:	7d021530 	cfstr32vc	mvfx1, [r2, #-192]	; 0xffffff40
    19a0:	00770200 	rsbseq	r0, r7, r0, lsl #4
    19a4:	8ca01400 	cfstrshi	mvf1, [r0]
    19a8:	063a0000 	ldrteq	r0, [sl], -r0
    19ac:	05f40000 	ldrbeq	r0, [r4, #0]!
    19b0:	01150000 	tsteq	r5, r0
    19b4:	b9080253 	stmdblt	r8, {r0, r1, r4, r6, r9}
    19b8:	05520115 	ldrbeq	r0, [r2, #-277]	; 0x115
    19bc:	00a12c03 	adceq	r2, r1, r3, lsl #24
    19c0:	51011500 	tstpl	r1, r0, lsl #10
    19c4:	a14c0305 	cmpge	ip, r5, lsl #6
    19c8:	01150000 	tsteq	r5, r0
    19cc:	e0030550 	and	r0, r3, r0, asr r5
    19d0:	150000a1 	strne	r0, [r0, #-161]	; 0xa1
    19d4:	02007d02 	andeq	r7, r0, #2, 26	; 0x80
    19d8:	16000079 			; <UNDEFINED> instruction: 0x16000079
    19dc:	00008ca4 	andeq	r8, r0, r4, lsr #25
    19e0:	00000650 	andeq	r0, r0, r0, asr r6
    19e4:	7a180000 	bvc	6019ec <__bss_end__+0x5f30ac>
    19e8:	0f000000 	svceq	0x00000000
    19ec:	19000006 	stmdbne	r0, {r1, r2}
    19f0:	0000006b 	andeq	r0, r0, fp, rrx
    19f4:	ff060009 			; <UNDEFINED> instruction: 0xff060009
    19f8:	18000005 	stmdane	r0, {r0, r2}
    19fc:	0000007a 	andeq	r0, r0, sl, ror r0
    1a00:	00000624 	andeq	r0, r0, r4, lsr #12
    1a04:	00006b19 	andeq	r6, r0, r9, lsl fp
    1a08:	1f007f00 	svcne	0x00007f00
    1a0c:	00000636 	andeq	r0, r0, r6, lsr r6
    1a10:	03791d03 	cmneq	r9, #3, 26	; 0xc0
    1a14:	311f0000 	tstcc	pc, r0
    1a18:	03000006 	movweq	r0, #6
    1a1c:	00038e20 	andeq	r8, r3, r0, lsr #28
    1a20:	06012000 	streq	r2, [r1], -r0
    1a24:	27030000 	strcs	r0, [r3, -r0]
    1a28:	00000025 	andeq	r0, r0, r5, lsr #32
    1a2c:	00000650 	andeq	r0, r0, r0, asr r6
    1a30:	0000811c 	andeq	r8, r0, ip, lsl r1
    1a34:	22002100 	andcs	r2, r0, #0, 2
    1a38:	00000296 	muleq	r0, r6, r2
    1a3c:	b8006403 	stmdalt	r0, {r0, r1, sl, sp, lr}
    1a40:	04000000 	streq	r0, [r0], #-0
    1a44:	00074300 	andeq	r4, r7, r0, lsl #6
    1a48:	a2010400 	andge	r0, r1, #0, 8
    1a4c:	01000003 	tsteq	r0, r3
    1a50:	000006af 	andeq	r0, r0, pc, lsr #13
    1a54:	0000059d 	muleq	r0, sp, r5
    1a58:	00008d0c 	andeq	r8, r0, ip, lsl #26
    1a5c:	00000020 	andeq	r0, r0, r0, lsr #32
    1a60:	0000087b 	andeq	r0, r0, fp, ror r8
    1a64:	69050402 	stmdbvs	r5, {r1, sl}
    1a68:	0300746e 	movweq	r7, #1134	; 0x46e
    1a6c:	00640704 	rsbeq	r0, r4, r4, lsl #14
    1a70:	01030000 	mrseq	r0, (UNDEF: 3)
    1a74:	00035606 	andeq	r5, r3, r6, lsl #12
    1a78:	05020300 	streq	r0, [r2, #-768]	; 0x300
    1a7c:	0000036a 	andeq	r0, r0, sl, ror #6
    1a80:	a3050403 	movwge	r0, #21507	; 0x5403
    1a84:	03000000 	movweq	r0, #0
    1a88:	009e0508 	addseq	r0, lr, r8, lsl #10
    1a8c:	01030000 	mrseq	r0, (UNDEF: 3)
    1a90:	00035408 	andeq	r5, r3, r8, lsl #8
    1a94:	07020300 	streq	r0, [r2, -r0, lsl #6]
    1a98:	0000021f 	andeq	r0, r0, pc, lsl r2
    1a9c:	5f070403 	svcpl	0x00070403
    1aa0:	03000000 	movweq	r0, #0
    1aa4:	005a0708 	subseq	r0, sl, r8, lsl #14
    1aa8:	04030000 	streq	r0, [r3], #-0
    1aac:	0002a807 	andeq	sl, r2, r7, lsl #16
    1ab0:	08010300 	stmdaeq	r1, {r8, r9}
    1ab4:	0000035d 	andeq	r0, r0, sp, asr r3
    1ab8:	00047604 	andeq	r7, r4, r4, lsl #12
    1abc:	0c030100 	stfeqs	f0, [r3], {-0}
    1ac0:	1000008d 	andne	r0, r0, sp, lsl #1
    1ac4:	01000000 	mrseq	r0, (UNDEF: 0)
    1ac8:	00009c9c 	muleq	r0, ip, ip
    1acc:	00720500 	rsbseq	r0, r2, r0, lsl #10
    1ad0:	002c0401 	eoreq	r0, ip, r1, lsl #8
    1ad4:	0b740000 	bleq	1d01adc <__bss_end__+0x1cf319c>
    1ad8:	06000000 	streq	r0, [r0], -r0
    1adc:	000006a1 	andeq	r0, r0, r1, lsr #13
    1ae0:	8d1c0c01 	ldchi	12, cr0, [ip, #-4]
    1ae4:	00100000 	andseq	r0, r0, r0
    1ae8:	9c010000 	stcls	0, cr0, [r1], {-0}
    1aec:	01007205 	tsteq	r0, r5, lsl #4
    1af0:	00002c0d 	andeq	r2, r0, sp, lsl #24
    1af4:	000b9800 	andeq	r9, fp, r0, lsl #16
    1af8:	ff000000 			; <UNDEFINED> instruction: 0xff000000
    1afc:	04000000 	streq	r0, [r0], #-0
    1b00:	0007ae00 	andeq	sl, r7, r0, lsl #28
    1b04:	a2010400 	andge	r0, r1, #0, 8
    1b08:	01000003 	tsteq	r0, r3
    1b0c:	000006cd 	andeq	r0, r0, sp, asr #13
    1b10:	0000059d 	muleq	r0, sp, r5
    1b14:	00008d2c 	andeq	r8, r0, ip, lsr #26
    1b18:	00000028 	andeq	r0, r0, r8, lsr #32
    1b1c:	000008c2 	andeq	r0, r0, r2, asr #17
    1b20:	69050402 	stmdbvs	r5, {r1, sl}
    1b24:	0300746e 	movweq	r7, #1134	; 0x46e
    1b28:	00640704 	rsbeq	r0, r4, r4, lsl #14
    1b2c:	01030000 	mrseq	r0, (UNDEF: 3)
    1b30:	00035606 	andeq	r5, r3, r6, lsl #12
    1b34:	05020300 	streq	r0, [r2, #-768]	; 0x300
    1b38:	0000036a 	andeq	r0, r0, sl, ror #6
    1b3c:	a3050403 	movwge	r0, #21507	; 0x5403
    1b40:	03000000 	movweq	r0, #0
    1b44:	009e0508 	addseq	r0, lr, r8, lsl #10
    1b48:	01030000 	mrseq	r0, (UNDEF: 3)
    1b4c:	00035408 	andeq	r5, r3, r8, lsl #8
    1b50:	07020300 	streq	r0, [r2, -r0, lsl #6]
    1b54:	0000021f 	andeq	r0, r0, pc, lsl r2
    1b58:	5f070403 	svcpl	0x00070403
    1b5c:	03000000 	movweq	r0, #0
    1b60:	005a0708 	subseq	r0, sl, r8, lsl #14
    1b64:	04030000 	streq	r0, [r3], #-0
    1b68:	0002a807 	andeq	sl, r2, r7, lsl #16
    1b6c:	08010300 	stmdaeq	r1, {r8, r9}
    1b70:	0000035d 	andeq	r0, r0, sp, asr r3
    1b74:	007f0404 	rsbseq	r0, pc, r4, lsl #8
    1b78:	72050000 	andvc	r0, r5, #0
    1b7c:	06000000 	streq	r0, [r0], -r0
    1b80:	00000296 	muleq	r0, r6, r2
    1b84:	8d2c0401 	cfstrshi	mvf0, [ip, #-4]!
    1b88:	00280000 	eoreq	r0, r8, r0
    1b8c:	9c010000 	stcls	0, cr0, [r1], {-0}
    1b90:	000000ca 	andeq	r0, r0, sl, asr #1
    1b94:	008d4007 	addeq	r4, sp, r7
    1b98:	0000ac00 	andeq	sl, r0, r0, lsl #24
    1b9c:	50010800 	andpl	r0, r1, r0, lsl #16
    1ba0:	a2180305 	andsge	r0, r8, #335544320	; 0x14000000
    1ba4:	09000000 	stmdbeq	r0, {}	; <UNPREDICTABLE>
    1ba8:	00008d48 	andeq	r8, r0, r8, asr #26
    1bac:	000000ea 	andeq	r0, r0, sl, ror #1
    1bb0:	000000c0 	andeq	r0, r0, r0, asr #1
    1bb4:	02500108 	subseq	r0, r0, #8, 2
    1bb8:	0a006408 	beq	1abe0 <__bss_end__+0xc2a0>
    1bbc:	00008d4c 	andeq	r8, r0, ip, asr #26
    1bc0:	000000fb 	strdeq	r0, [r0], -fp
    1bc4:	00250b00 	eoreq	r0, r5, r0, lsl #22
    1bc8:	00d90000 	sbcseq	r0, r9, r0
    1bcc:	790c0000 	stmdbvc	ip, {}	; <UNPREDICTABLE>
    1bd0:	00000000 	andeq	r0, r0, r0
    1bd4:	0006310d 	andeq	r3, r6, sp, lsl #2
    1bd8:	e4200200 	strt	r0, [r0], #-512	; 0x200
    1bdc:	04000000 	streq	r0, [r0], #-0
    1be0:	0000ca04 	andeq	ip, r0, r4, lsl #20
    1be4:	06e70e00 	strbteq	r0, [r7], r0, lsl #28
    1be8:	4e020000 	cdpmi	0, 0, cr0, cr2, cr0, {0}
    1bec:	000000fb 	strdeq	r0, [r0], -fp
    1bf0:	00002c0c 	andeq	r2, r0, ip, lsl #24
    1bf4:	c20f0000 	andgt	r0, pc, #0
    1bf8:	02000006 	andeq	r0, r0, #6
    1bfc:	02e90061 	rsceq	r0, r9, #97	; 0x61
    1c00:	00040000 	andeq	r0, r4, r0
    1c04:	00000878 	andeq	r0, r0, r8, ror r8
    1c08:	03a20104 			; <UNDEFINED> instruction: 0x03a20104
    1c0c:	98010000 	stmdals	r1, {}	; <UNPREDICTABLE>
    1c10:	9d000007 	stcls	0, cr0, [r0, #-28]	; 0xffffffe4
    1c14:	54000005 	strpl	r0, [r0], #-5
    1c18:	b000008d 	andlt	r0, r0, sp, lsl #1
    1c1c:	59000000 	stmdbpl	r0, {}	; <UNPREDICTABLE>
    1c20:	02000009 	andeq	r0, r0, #9
    1c24:	6e690504 	cdpvs	5, 6, cr0, cr9, cr4, {0}
    1c28:	04030074 	streq	r0, [r3], #-116	; 0x74
    1c2c:	00006407 	andeq	r6, r0, r7, lsl #8
    1c30:	06010300 	streq	r0, [r1], -r0, lsl #6
    1c34:	00000356 	andeq	r0, r0, r6, asr r3
    1c38:	6a050203 	bvs	14244c <__bss_end__+0x133b0c>
    1c3c:	03000003 	movweq	r0, #3
    1c40:	00a30504 	adceq	r0, r3, r4, lsl #10
    1c44:	08030000 	stmdaeq	r3, {}	; <UNPREDICTABLE>
    1c48:	00009e05 	andeq	r9, r0, r5, lsl #28
    1c4c:	04a40400 	strteq	r0, [r4], #1024	; 0x400
    1c50:	2e020000 	cdpcs	0, 0, cr0, cr2, cr0, {0}
    1c54:	0000005a 	andeq	r0, r0, sl, asr r0
    1c58:	54080103 	strpl	r0, [r8], #-259	; 0x103
    1c5c:	03000003 	movweq	r0, #3
    1c60:	021f0702 	andseq	r0, pc, #524288	; 0x80000
    1c64:	94040000 	strls	r0, [r4], #-0
    1c68:	02000003 	andeq	r0, r0, #3
    1c6c:	00007334 	andeq	r7, r0, r4, lsr r3
    1c70:	07040300 	streq	r0, [r4, -r0, lsl #6]
    1c74:	0000005f 	andeq	r0, r0, pc, asr r0
    1c78:	5a070803 	bpl	1c3c8c <__bss_end__+0x1b534c>
    1c7c:	03000000 	movweq	r0, #0
    1c80:	02a80704 	adceq	r0, r8, #4, 14	; 0x100000
    1c84:	01030000 	mrseq	r0, (UNDEF: 3)
    1c88:	00035d08 	andeq	r5, r3, r8, lsl #26
    1c8c:	95040500 	strls	r0, [r4, #-1280]	; 0x500
    1c90:	06000000 	streq	r0, [r0], -r0
    1c94:	00000088 	andeq	r0, r0, r8, lsl #1
    1c98:	0e030c07 	cdpeq	12, 0, cr0, cr3, cr7, {0}
    1c9c:	000000d1 	ldrdeq	r0, [r0], -r1
    1ca0:	00787408 	rsbseq	r7, r8, r8, lsl #8
    1ca4:	004f0f03 	subeq	r0, pc, r3, lsl #30
    1ca8:	08000000 	stmdaeq	r0, {}	; <UNPREDICTABLE>
    1cac:	03007872 	movweq	r7, #2162	; 0x872
    1cb0:	00004f0f 	andeq	r4, r0, pc, lsl #30
    1cb4:	9d090100 	stflss	f0, [r9, #-0]
    1cb8:	03000003 	movweq	r0, #3
    1cbc:	00006810 	andeq	r6, r0, r0, lsl r8
    1cc0:	90090400 	andls	r0, r9, r0, lsl #8
    1cc4:	03000000 	movweq	r0, #0
    1cc8:	00006811 	andeq	r6, r0, r1, lsl r8
    1ccc:	04000800 	streq	r0, [r0], #-2048	; 0x800
    1cd0:	00000338 	andeq	r0, r0, r8, lsr r3
    1cd4:	009a1203 	addseq	r1, sl, r3, lsl #4
    1cd8:	010a0000 	mrseq	r0, (UNDEF: 10)
    1cdc:	00f71004 	rscseq	r1, r7, r4
    1ce0:	510b0000 	mrspl	r0, (UNDEF: 11)
    1ce4:	01000007 	tsteq	r0, r7
    1ce8:	0007440b 	andeq	r4, r7, fp, lsl #8
    1cec:	360b0200 	strcc	r0, [fp], -r0, lsl #4
    1cf0:	03000007 	movweq	r0, #7
    1cf4:	07660400 	strbeq	r0, [r6, -r0, lsl #8]!
    1cf8:	10040000 	andne	r0, r4, r0
    1cfc:	000000dc 	ldrdeq	r0, [r0], -ip
    1d00:	14041407 	strne	r1, [r4], #-1031	; 0x407
    1d04:	0000012f 	andeq	r0, r0, pc, lsr #2
    1d08:	0007b809 	andeq	fp, r7, r9, lsl #16
    1d0c:	2c150400 	cfldrscs	mvf0, [r5], {-0}
    1d10:	00000000 	andeq	r0, r0, r0
    1d14:	0007ac09 	andeq	sl, r7, r9, lsl #24
    1d18:	f7180400 			; <UNDEFINED> instruction: 0xf7180400
    1d1c:	04000000 	streq	r0, [r0], #-0
    1d20:	00017b09 	andeq	r7, r1, r9, lsl #22
    1d24:	d11b0400 	tstle	fp, r0, lsl #8
    1d28:	08000000 	stmdaeq	r0, {}	; <UNPREDICTABLE>
    1d2c:	07710400 	ldrbeq	r0, [r1, -r0, lsl #8]!
    1d30:	20040000 	andcs	r0, r4, r0
    1d34:	00000102 	andeq	r0, r0, r2, lsl #2
    1d38:	0006f00c 	andeq	pc, r6, ip
    1d3c:	25060100 	strcs	r0, [r6, #-256]	; 0x100
    1d40:	54000000 	strpl	r0, [r0], #-0
    1d44:	2000008d 	andcs	r0, r0, sp, lsl #1
    1d48:	01000000 	mrseq	r0, (UNDEF: 0)
    1d4c:	00017a9c 	muleq	r1, ip, sl
    1d50:	00630d00 	rsbeq	r0, r3, r0, lsl #26
    1d54:	00250601 	eoreq	r0, r5, r1, lsl #12
    1d58:	0bbc0000 	bleq	fef01d60 <__bss_end__+0xfeef3420>
    1d5c:	680e0000 	stmdavs	lr, {}	; <UNPREDICTABLE>
    1d60:	8000008d 	andhi	r0, r0, sp, lsl #1
    1d64:	0f000002 	svceq	0x00000002
    1d68:	74025101 	strvc	r5, [r2], #-257	; 0x101
    1d6c:	50010f00 	andpl	r0, r1, r0, lsl #30
    1d70:	e9300305 	ldmdb	r0!, {r0, r2, r8, r9}
    1d74:	00000000 	andeq	r0, r0, r0
    1d78:	00075e10 	andeq	r5, r7, r0, lsl lr
    1d7c:	740b0100 	strvc	r0, [fp], #-256	; 0x100
    1d80:	9000008d 	andls	r0, r0, sp, lsl #1
    1d84:	01000000 	mrseq	r0, (UNDEF: 0)
    1d88:	00022d9c 	muleq	r2, ip, sp
    1d8c:	07041100 	streq	r1, [r4, -r0, lsl #2]
    1d90:	0c010000 	stceq	0, cr0, [r1], {-0}
    1d94:	00000025 	andeq	r0, r0, r5, lsr #32
    1d98:	00078c11 	andeq	r8, r7, r1, lsl ip
    1d9c:	250c0100 	strcs	r0, [ip, #-256]	; 0x100
    1da0:	12000000 	andne	r0, r0, #0
    1da4:	00000041 	andeq	r0, r0, r1, asr #32
    1da8:	01b20d01 			; <UNDEFINED> instruction: 0x01b20d01
    1dac:	00130000 	andseq	r0, r3, r0
    1db0:	73736214 	cmnvc	r3, #20, 4	; 0x40000001
    1db4:	2d0f0100 	stfcss	f0, [pc, #-0]	; 1dbc <_start-0x6244>
    1db8:	da000002 	ble	1dc8 <_start-0x6238>
    1dbc:	1500000b 	strne	r0, [r0, #-11]
    1dc0:	00000712 	andeq	r0, r0, r2, lsl r7
    1dc4:	022d1001 	eoreq	r1, sp, #1
    1dc8:	63140000 	tstvs	r4, #0
    1dcc:	15010062 	strne	r0, [r1, #-98]	; 0x62
    1dd0:	00000233 	andeq	r0, r0, r3, lsr r2
    1dd4:	00000bfa 	strdeq	r0, [r0], -sl
    1dd8:	008d9c16 	addeq	r9, sp, r6, lsl ip
    1ddc:	00029c00 	andeq	r9, r2, r0, lsl #24
    1de0:	8dd81700 	ldclhi	7, cr1, [r8]
    1de4:	02a70000 	adceq	r0, r7, #0
    1de8:	02030000 	andeq	r0, r3, #0
    1dec:	010f0000 	mrseq	r0, CPSR
    1df0:	24030551 	strcs	r0, [r3], #-1361	; 0x551
    1df4:	0f0000a2 	svceq	0x000000a2
    1df8:	03055001 	movweq	r5, #20481	; 0x5001
    1dfc:	0000e930 	andeq	lr, r0, r0, lsr r9
    1e00:	8de01700 	stclhi	7, cr1, [r0]
    1e04:	02c20000 	sbceq	r0, r2, #0
    1e08:	021a0000 	andseq	r0, sl, #0
    1e0c:	010f0000 	mrseq	r0, CPSR
    1e10:	48030550 	stmdami	r3, {r4, r6, r8, sl}
    1e14:	000000a2 	andeq	r0, r0, r2, lsr #1
    1e18:	008de416 	addeq	lr, sp, r6, lsl r4
    1e1c:	0002d800 	andeq	sp, r2, r0, lsl #16
    1e20:	8de81600 	stclhi	6, cr1, [r8]
    1e24:	02e50000 	rsceq	r0, r5, #0
    1e28:	05000000 	streq	r0, [r0, #-0]
    1e2c:	00002504 	andeq	r2, r0, r4, lsl #10
    1e30:	2f040500 	svccs	0x00040500
    1e34:	18000001 	stmdane	r0, {r0}
    1e38:	0000071a 	andeq	r0, r0, sl, lsl r7
    1e3c:	00d10501 	sbcseq	r0, r1, r1, lsl #10
    1e40:	03050000 	movweq	r0, #20480	; 0x5000
    1e44:	0000e930 	andeq	lr, r0, r0, lsr r9
    1e48:	00002519 	andeq	r2, r0, r9, lsl r5
    1e4c:	00025900 	andeq	r5, r2, r0, lsl #18
    1e50:	00251a00 	eoreq	r1, r5, r0, lsl #20
    1e54:	11000000 	mrsne	r0, (UNDEF: 0)
    1e58:	00000636 	andeq	r0, r0, r6, lsr r6
    1e5c:	02641d05 	rsbeq	r1, r4, #320	; 0x140
    1e60:	04050000 	streq	r0, [r5], #-0
    1e64:	0000024a 	andeq	r0, r0, sl, asr #4
    1e68:	00070411 	andeq	r0, r7, r1, lsl r4
    1e6c:	250c0100 	strcs	r0, [ip, #-256]	; 0x100
    1e70:	11000000 	mrsne	r0, (UNDEF: 0)
    1e74:	0000078c 	andeq	r0, r0, ip, lsl #15
    1e78:	00250c01 	eoreq	r0, r5, r1, lsl #24
    1e7c:	4f1b0000 	svcmi	0x001b0000
    1e80:	03000002 	movweq	r0, #2
    1e84:	00029644 	andeq	r9, r2, r4, asr #12
    1e88:	02961a00 	addseq	r1, r6, #0, 20
    1e8c:	5a1a0000 	bpl	681e94 <__bss_end__+0x673554>
    1e90:	00000000 	andeq	r0, r0, r0
    1e94:	00d10405 	sbcseq	r0, r1, r5, lsl #8
    1e98:	7f1c0000 	svcvc	0x001c0000
    1e9c:	04000007 	streq	r0, [r0], #-7
    1ea0:	0002332a 	andeq	r3, r2, sl, lsr #6
    1ea4:	07271d00 	streq	r1, [r7, -r0, lsl #26]!
    1ea8:	15030000 	strne	r0, [r3, #-0]
    1eac:	00000025 	andeq	r0, r0, r5, lsr #32
    1eb0:	000002c2 	andeq	r0, r0, r2, asr #5
    1eb4:	0002961a 	andeq	r9, r2, sl, lsl r6
    1eb8:	008f1a00 	addeq	r1, pc, r0, lsl #20
    1ebc:	00130000 	andseq	r0, r3, r0
    1ec0:	0006011d 	andeq	r0, r6, sp, lsl r1
    1ec4:	25270500 	strcs	r0, [r7, #-1280]!	; 0x500
    1ec8:	d8000000 	stmdale	r0, {}	; <UNPREDICTABLE>
    1ecc:	1a000002 	bne	1edc <_start-0x6124>
    1ed0:	0000008f 	andeq	r0, r0, pc, lsl #1
    1ed4:	41120013 	tstmi	r2, r3, lsl r0
    1ed8:	01000000 	mrseq	r0, (UNDEF: 0)
    1edc:	0002e50d 	andeq	lr, r2, sp, lsl #10
    1ee0:	1e001300 	cdpne	3, 0, cr1, cr0, cr0, {0}
    1ee4:	000006c2 	andeq	r0, r0, r2, asr #13
    1ee8:	ad006105 	stfges	f6, [r0, #-20]	; 0xffffffec
    1eec:	04000001 	streq	r0, [r0], #-1
    1ef0:	000a2000 	andeq	r2, sl, r0
    1ef4:	a2010400 	andge	r0, r1, #0, 8
    1ef8:	01000003 	tsteq	r0, r3
    1efc:	000007d8 	ldrdeq	r0, [r0], -r8
    1f00:	0000059d 	muleq	r0, sp, r5
    1f04:	00000078 	andeq	r0, r0, r8, ror r0
    1f08:	00000000 	andeq	r0, r0, r0
    1f0c:	00000a7e 	andeq	r0, r0, lr, ror sl
    1f10:	69050402 	stmdbvs	r5, {r1, sl}
    1f14:	0300746e 	movweq	r7, #1134	; 0x46e
    1f18:	00640704 	rsbeq	r0, r4, r4, lsl #14
    1f1c:	01030000 	mrseq	r0, (UNDEF: 3)
    1f20:	00035606 	andeq	r5, r3, r6, lsl #12
    1f24:	05020300 	streq	r0, [r2, #-768]	; 0x300
    1f28:	0000036a 	andeq	r0, r0, sl, ror #6
    1f2c:	a3050403 	movwge	r0, #21507	; 0x5403
    1f30:	03000000 	movweq	r0, #0
    1f34:	009e0508 	addseq	r0, lr, r8, lsl #10
    1f38:	01030000 	mrseq	r0, (UNDEF: 3)
    1f3c:	00035408 	andeq	r5, r3, r8, lsl #8
    1f40:	07020300 	streq	r0, [r2, -r0, lsl #6]
    1f44:	0000021f 	andeq	r0, r0, pc, lsl r2
    1f48:	5f070403 	svcpl	0x00070403
    1f4c:	03000000 	movweq	r0, #0
    1f50:	005a0708 	subseq	r0, sl, r8, lsl #14
    1f54:	04030000 	streq	r0, [r3], #-0
    1f58:	0002a807 	andeq	sl, r2, r7, lsl #16
    1f5c:	08010300 	stmdaeq	r1, {r8, r9}
    1f60:	0000035d 	andeq	r0, r0, sp, asr r3
    1f64:	0007be04 	andeq	fp, r7, r4, lsl #28
    1f68:	250e0100 	strcs	r0, [lr, #-256]	; 0x100
    1f6c:	04000000 	streq	r0, [r0], #-0
    1f70:	1800008e 	stmdane	r0, {r1, r2, r3, r7}
    1f74:	01000000 	mrseq	r0, (UNDEF: 0)
    1f78:	0000a29c 	muleq	r0, ip, r2
    1f7c:	082a0500 	stmdaeq	sl!, {r8, sl}
    1f80:	0f010000 	svceq	0x00010000
    1f84:	0000002c 	andeq	r0, r0, ip, lsr #32
    1f88:	00000c1a 	andeq	r0, r0, sl, lsl ip
    1f8c:	080d0600 	stmdaeq	sp, {r9, sl}
    1f90:	17010000 	strne	r0, [r1, -r0]
    1f94:	00008e1c 	andeq	r8, r0, ip, lsl lr
    1f98:	00000014 	andeq	r0, r0, r4, lsl r0
    1f9c:	00c79c01 	sbceq	r9, r7, r1, lsl #24
    1fa0:	2a050000 	bcs	141fa8 <__bss_end__+0x133668>
    1fa4:	01000008 	tsteq	r0, r8
    1fa8:	00002c18 	andeq	r2, r0, r8, lsl ip
    1fac:	000c3900 	andeq	r3, ip, r0, lsl #18
    1fb0:	c2060000 	andgt	r0, r6, #0
    1fb4:	01000006 	tsteq	r0, r6
    1fb8:	008e301f 	addeq	r3, lr, pc, lsl r0
    1fbc:	00004800 	andeq	r4, r0, r0, lsl #16
    1fc0:	779c0100 	ldrvc	r0, [ip, r0, lsl #2]
    1fc4:	07000001 	streq	r0, [r0, -r1]
    1fc8:	00000822 	andeq	r0, r0, r2, lsr #16
    1fcc:	01772a01 	cmneq	r7, r1, lsl #20
    1fd0:	001c0000 	andseq	r0, ip, r0
    1fd4:	05072010 	streq	r2, [r7, #-16]
    1fd8:	01000008 	tsteq	r0, r8
    1fdc:	0001772b 	andeq	r7, r1, fp, lsr #14
    1fe0:	10002400 	andne	r2, r0, r0, lsl #8
    1fe4:	07cc0720 	strbeq	r0, [ip, r0, lsr #14]
    1fe8:	2c010000 	stccs	0, cr0, [r1], {-0}
    1fec:	00000177 	andeq	r0, r0, r7, ror r1
    1ff0:	5a000000 	bpl	1ff8 <_start-0x6008>
    1ff4:	0007ec08 	andeq	lr, r7, r8, lsl #24
    1ff8:	772d0100 	strvc	r0, [sp, -r0, lsl #2]!
    1ffc:	20000001 	andcs	r0, r0, r1
    2000:	008e3809 	addeq	r3, lr, r9, lsl #16
    2004:	00007900 	andeq	r7, r0, r0, lsl #18
    2008:	8e440900 	cdphi	9, 4, cr0, cr4, cr0, {0}
    200c:	00a20000 	adceq	r0, r2, r0
    2010:	4c0a0000 	stcmi	0, cr0, [sl], {-0}
    2014:	8d00008e 	stchi	0, cr0, [r0, #-568]	; 0xfffffdc8
    2018:	3a000001 	bcc	2024 <_start-0x5fdc>
    201c:	0b000001 	bleq	2028 <_start-0x5fd8>
    2020:	4e015001 	cdpmi	0, 0, cr5, cr1, cr1, {0}
    2024:	8e580a00 	vnmlshi.f32	s1, s16, s0
    2028:	019e0000 	orrseq	r0, lr, r0
    202c:	015a0000 	cmpeq	sl, r0
    2030:	010b0000 	mrseq	r0, (UNDEF: 11)
    2034:	010c0551 	tsteq	ip, r1, asr r5
    2038:	0b5a0000 	bleq	1682040 <__bss_end__+0x1673700>
    203c:	0c055001 	stceq	0, cr5, [r5], {1}
    2040:	20100024 	andscs	r0, r0, r4, lsr #32
    2044:	8e640c00 	cdphi	12, 6, cr0, cr4, cr0, {0}
    2048:	019e0000 	orrseq	r0, lr, r0
    204c:	010b0000 	mrseq	r0, (UNDEF: 11)
    2050:	200c0551 	andcs	r0, ip, r1, asr r5
    2054:	0b5a0000 	bleq	168205c <__bss_end__+0x167371c>
    2058:	0c055001 	stceq	0, cr5, [r5], {1}
    205c:	2010001c 	andscs	r0, r0, ip, lsl r0
    2060:	250d0000 	strcs	r0, [sp, #-0]
    2064:	08000000 	stmdaeq	r0, {}	; <UNPREDICTABLE>
    2068:	000007c1 	andeq	r0, r0, r1, asr #15
    206c:	01880d01 	orreq	r0, r8, r1, lsl #26
    2070:	0d100000 	ldceq	0, cr0, [r0, #-0]
    2074:	0000002c 	andeq	r0, r0, ip, lsr #32
    2078:	0006e70e 	andeq	lr, r6, lr, lsl #14
    207c:	9e4e0200 	cdpls	2, 4, cr0, cr14, cr0, {0}
    2080:	0f000001 	svceq	0x00000001
    2084:	0000002c 	andeq	r0, r0, ip, lsr #32
    2088:	081c1000 	ldmdaeq	ip, {ip}
    208c:	97020000 	strls	r0, [r2, -r0]
    2090:	00002c0f 	andeq	r2, r0, pc, lsl #24
    2094:	002c0f00 	eoreq	r0, ip, r0, lsl #30
    2098:	00000000 	andeq	r0, r0, r0
    209c:	000001d8 	ldrdeq	r0, [r0], -r8
    20a0:	0b0e0004 	bleq	3820b8 <__bss_end__+0x373778>
    20a4:	01040000 	mrseq	r0, (UNDEF: 4)
    20a8:	000003a2 	andeq	r0, r0, r2, lsr #7
    20ac:	00084c01 	andeq	r4, r8, r1, lsl #24
    20b0:	00059d00 	andeq	r9, r5, r0, lsl #26
    20b4:	008e7800 	addeq	r7, lr, r0, lsl #16
    20b8:	00008800 	andeq	r8, r0, r0, lsl #16
    20bc:	000b1b00 	andeq	r1, fp, r0, lsl #22
    20c0:	05040200 	streq	r0, [r4, #-512]	; 0x200
    20c4:	00746e69 	rsbseq	r6, r4, r9, ror #28
    20c8:	64070403 	strvs	r0, [r7], #-1027	; 0x403
    20cc:	03000000 	movweq	r0, #0
    20d0:	03560601 	cmpeq	r6, #1048576	; 0x100000
    20d4:	02030000 	andeq	r0, r3, #0
    20d8:	00036a05 	andeq	r6, r3, r5, lsl #20
    20dc:	05040300 	streq	r0, [r4, #-768]	; 0x300
    20e0:	000000a3 	andeq	r0, r0, r3, lsr #1
    20e4:	9e050803 	cdpls	8, 0, cr0, cr5, cr3, {0}
    20e8:	03000000 	movweq	r0, #0
    20ec:	03540801 	cmpeq	r4, #65536	; 0x10000
    20f0:	02030000 	andeq	r0, r3, #0
    20f4:	00021f07 	andeq	r1, r2, r7, lsl #30
    20f8:	07040300 	streq	r0, [r4, -r0, lsl #6]
    20fc:	0000005f 	andeq	r0, r0, pc, asr r0
    2100:	5a070803 	bpl	1c4114 <__bss_end__+0x1b57d4>
    2104:	03000000 	movweq	r0, #0
    2108:	02a80704 	adceq	r0, r8, #4, 14	; 0x100000
    210c:	01030000 	mrseq	r0, (UNDEF: 3)
    2110:	00035d08 	andeq	r5, r3, r8, lsl #26
    2114:	086b0400 	stmdaeq	fp!, {sl}^
    2118:	05010000 	streq	r0, [r1, #-0]
    211c:	00008e78 	andeq	r8, r0, r8, ror lr
    2120:	0000001c 	andeq	r0, r0, ip, lsl r0
    2124:	009e9c01 	addseq	r9, lr, r1, lsl #24
    2128:	65050000 	strvs	r0, [r5, #-0]
    212c:	01000008 	tsteq	r0, r8
    2130:	00002c05 	andeq	r2, r0, r5, lsl #24
    2134:	000c6300 	andeq	r6, ip, r0, lsl #6
    2138:	2f060000 	svccs	0x00060000
    213c:	01000008 	tsteq	r0, r8
    2140:	00002c0b 	andeq	r2, r0, fp, lsl #24
    2144:	008e9400 	addeq	r9, lr, r0, lsl #8
    2148:	00001400 	andeq	r1, r0, r0, lsl #8
    214c:	cb9c0100 	blgt	fe702554 <__bss_end__+0xfe6f3c14>
    2150:	07000000 	streq	r0, [r0, -r0]
    2154:	00008ea0 	andeq	r8, r0, r0, lsr #29
    2158:	000001ca 	andeq	r0, r0, sl, asr #3
    215c:	05500108 	ldrbeq	r0, [r0, #-264]	; 0x108
    2160:	0030040c 	eorseq	r0, r0, ip, lsl #8
    2164:	06000020 	streq	r0, [r0], -r0, lsr #32
    2168:	00000881 	andeq	r0, r0, r1, lsl #17
    216c:	002c1001 	eoreq	r1, ip, r1
    2170:	8ea80000 	cdphi	0, 10, cr0, cr8, cr0, {0}
    2174:	000c0000 	andeq	r0, ip, r0
    2178:	9c010000 	stcls	0, cr0, [r1], {-0}
    217c:	000000f9 	strdeq	r0, [r0], -r9
    2180:	01007509 	tsteq	r0, r9, lsl #10
    2184:	00002c14 	andeq	r2, r0, r4, lsl ip
    2188:	0a500100 	beq	1402590 <__bss_end__+0x13f3c50>
    218c:	00008eb0 			; <UNDEFINED> instruction: 0x00008eb0
    2190:	0000009e 	muleq	r0, lr, r0
    2194:	08780400 	ldmdaeq	r8!, {sl}^
    2198:	19010000 	stmdbne	r1, {}	; <UNPREDICTABLE>
    219c:	00008eb4 			; <UNDEFINED> instruction: 0x00008eb4
    21a0:	00000024 	andeq	r0, r0, r4, lsr #32
    21a4:	01579c01 	cmpeq	r7, r1, lsl #24
    21a8:	750b0000 	strvc	r0, [fp, #-0]
    21ac:	19010073 	stmdbne	r1, {r0, r1, r4, r5, r6}
    21b0:	0000002c 	andeq	r0, r0, ip, lsr #32
    21b4:	00000c97 	muleq	r0, r7, ip
    21b8:	00627209 	rsbeq	r7, r2, r9, lsl #4
    21bc:	002c1a01 	eoreq	r1, ip, r1, lsl #20
    21c0:	54010000 	strpl	r0, [r1], #-0
    21c4:	008ec40c 	addeq	ip, lr, ip, lsl #8
    21c8:	00001000 	andeq	r1, r0, r0
    21cc:	00014d00 	andeq	r4, r1, r0, lsl #26
    21d0:	61720d00 	cmnvs	r2, r0, lsl #26
    21d4:	2c1c0100 	ldfcss	f0, [ip], {-0}
    21d8:	b5000000 	strlt	r0, [r0, #-0]
    21dc:	0a00000c 	beq	2214 <_start-0x5dec>
    21e0:	00008ec8 	andeq	r8, r0, r8, asr #29
    21e4:	000000cb 	andeq	r0, r0, fp, asr #1
    21e8:	8ec00a00 	vdivhi.f32	s1, s0, s0
    21ec:	00cb0000 	sbceq	r0, fp, r0
    21f0:	04000000 	streq	r0, [r0], #-0
    21f4:	000006e7 	andeq	r0, r0, r7, ror #13
    21f8:	8ed82201 	cdphi	2, 13, cr2, cr8, cr1, {0}
    21fc:	00140000 	andseq	r0, r4, r0
    2200:	9c010000 	stcls	0, cr0, [r1], {-0}
    2204:	00000190 	muleq	r0, r0, r1
    2208:	00736d0b 	rsbseq	r6, r3, fp, lsl #26
    220c:	002c2201 	eoreq	r2, ip, r1, lsl #4
    2210:	0cc80000 	stcleq	0, cr0, [r8], {0}
    2214:	e8070000 	stmda	r7, {}	; <UNPREDICTABLE>
    2218:	f900008e 			; <UNDEFINED> instruction: 0xf900008e
    221c:	08000000 	stmdaeq	r0, {}	; <UNPREDICTABLE>
    2220:	f3075001 	vhadd.u8	d5, d7, d1
    2224:	e80a5001 	stmda	sl, {r0, ip, lr}
    2228:	00001e03 	andeq	r1, r0, r3, lsl #28
    222c:	00084204 	andeq	r4, r8, r4, lsl #4
    2230:	ec250100 	stfs	f0, [r5], #-0
    2234:	1400008e 	strne	r0, [r0], #-142	; 0x8e
    2238:	01000000 	mrseq	r0, (UNDEF: 0)
    223c:	0001ca9c 	muleq	r1, ip, sl
    2240:	65730b00 	ldrbvs	r0, [r3, #-2816]!	; 0xb00
    2244:	25010063 	strcs	r0, [r1, #-99]	; 0x63
    2248:	0000002c 	andeq	r0, r0, ip, lsr #32
    224c:	00000ce9 	andeq	r0, r0, r9, ror #25
    2250:	008efc07 	addeq	pc, lr, r7, lsl #24
    2254:	00015700 	andeq	r5, r1, r0, lsl #14
    2258:	50010800 	andpl	r0, r1, r0, lsl #16
    225c:	5001f307 	andpl	pc, r1, r7, lsl #6
    2260:	1e03e80a 	cdpne	8, 0, cr14, cr3, cr10, {0}
    2264:	5f0e0000 	svcpl	0x000e0000
    2268:	02000008 	andeq	r0, r0, #8
    226c:	00002ca3 	andeq	r2, r0, r3, lsr #25
    2270:	002c0f00 	eoreq	r0, ip, r0, lsl #30
    2274:	00000000 	andeq	r0, r0, r0
    2278:	000008cf 	andeq	r0, r0, pc, asr #17
    227c:	0bf10004 	bleq	ffc42294 <__bss_end__+0xffc33954>
    2280:	01040000 	mrseq	r0, (UNDEF: 4)
    2284:	000003a2 	andeq	r0, r0, r2, lsr #7
    2288:	0008da01 	andeq	sp, r8, r1, lsl #20
    228c:	00059d00 	andeq	r9, r5, r0, lsl #26
    2290:	008f0000 	addeq	r0, pc, r0
    2294:	0005bc00 	andeq	fp, r5, r0, lsl #24
    2298:	000bc200 	andeq	ip, fp, r0, lsl #4
    229c:	07080200 	streq	r0, [r8, -r0, lsl #4]
    22a0:	0000005a 	andeq	r0, r0, sl, asr r0
    22a4:	64070402 	strvs	r0, [r7], #-1026	; 0x402
    22a8:	02000000 	andeq	r0, r0, #0
    22ac:	03560601 	cmpeq	r6, #1048576	; 0x100000
    22b0:	02020000 	andeq	r0, r2, #0
    22b4:	00036a05 	andeq	r6, r3, r5, lsl #20
    22b8:	05040200 	streq	r0, [r4, #-512]	; 0x200
    22bc:	000000a3 	andeq	r0, r0, r3, lsr #1
    22c0:	9e050802 	cdpls	8, 0, cr0, cr5, cr2, {0}
    22c4:	02000000 	andeq	r0, r0, #0
    22c8:	03540801 	cmpeq	r4, #65536	; 0x10000
    22cc:	02020000 	andeq	r0, r2, #0
    22d0:	00021f07 	andeq	r1, r2, r7, lsl #30
    22d4:	07040200 	streq	r0, [r4, -r0, lsl #4]
    22d8:	0000005f 	andeq	r0, r0, pc, asr r0
    22dc:	69050403 	stmdbvs	r5, {r0, r1, sl}
    22e0:	0200746e 	andeq	r7, r0, #1845493760	; 0x6e000000
    22e4:	02a80704 	adceq	r0, r8, #4, 14	; 0x100000
    22e8:	01020000 	mrseq	r0, (UNDEF: 2)
    22ec:	00035d08 	andeq	r5, r3, r8, lsl #26
    22f0:	02010400 	andeq	r0, r1, #0, 8
    22f4:	0000b20c 	andeq	fp, r0, ip, lsl #4
    22f8:	00770500 	rsbseq	r0, r7, r0, lsl #10
    22fc:	05000000 	streq	r0, [r0, #-0]
    2300:	00000493 	muleq	r0, r3, r4
    2304:	04d00501 	ldrbeq	r0, [r0], #1281	; 0x501
    2308:	05040000 	streq	r0, [r4, #-0]
    230c:	000004df 	ldrdeq	r0, [r0], -pc	; <UNPREDICTABLE>
    2310:	04ee0505 	strbteq	r0, [lr], #1285	; 0x505
    2314:	05060000 	streq	r0, [r6, #-0]
    2318:	000004fd 	strdeq	r0, [r0], -sp
    231c:	050c0507 	streq	r0, [ip, #-1287]	; 0x507
    2320:	05030000 	streq	r0, [r3, #-0]
    2324:	0000051b 	andeq	r0, r0, fp, lsl r5
    2328:	b2060002 	andlt	r0, r6, #2
    232c:	02000004 	andeq	r0, r0, #4
    2330:	00007915 	andeq	r7, r0, r5, lsl r9
    2334:	0a0c0700 	beq	303f3c <__bss_end__+0x2f55fc>
    2338:	3f010000 	svccc	0x00010000
    233c:	00008f00 	andeq	r8, r0, r0, lsl #30
    2340:	000000d4 	ldrdeq	r0, [r0], -r4
    2344:	01339c01 	teqeq	r3, r1, lsl #24
    2348:	70080000 	andvc	r0, r8, r0
    234c:	01006e69 	tsteq	r0, r9, ror #28
    2350:	00002c3f 	andeq	r2, r0, pc, lsr ip
    2354:	000d0a00 	andeq	r0, sp, r0, lsl #20
    2358:	09160900 	ldmdbeq	r6, {r8, fp}
    235c:	47010000 	strmi	r0, [r1, -r0]
    2360:	00000133 	andeq	r0, r0, r3, lsr r1
    2364:	00000d28 	andeq	r0, r0, r8, lsr #26
    2368:	000a3209 	andeq	r3, sl, r9, lsl #4
    236c:	2c490100 	stfcse	f0, [r9], {-0}
    2370:	7d000000 	stcvc	0, cr0, [r0, #-0]
    2374:	0900000d 	stmdbeq	r0, {r0, r2, r3}
    2378:	000009b3 			; <UNDEFINED> instruction: 0x000009b3
    237c:	002c5701 	eoreq	r5, ip, r1, lsl #14
    2380:	0f490000 	svceq	0x00490000
    2384:	940a0000 	strls	r0, [sl], #-0
    2388:	8e00008f 	cdphi	0, 0, cr0, cr0, cr15, {4}
    238c:	22000008 	andcs	r0, r0, #8
    2390:	0b000001 	bleq	239c <_start-0x5c64>
    2394:	75025001 	strvc	r5, [r2, #-1]
    2398:	c80c0000 	stmdagt	ip, {}	; <UNPREDICTABLE>
    239c:	af00008f 	svcge	0x0000008f
    23a0:	0b000008 	bleq	23c8 <_start-0x5c38>
    23a4:	75025001 	strvc	r5, [r2, #-1]
    23a8:	0d000000 	stceq	0, cr0, [r0, #-0]
    23ac:	00013904 	andeq	r3, r1, r4, lsl #18
    23b0:	002c0e00 	eoreq	r0, ip, r0, lsl #28
    23b4:	f20f0000 	vhadd.s8	d0, d15, d0
    23b8:	01000009 	tsteq	r0, r9
    23bc:	016c0360 	cmneq	ip, r0, ror #6
    23c0:	70100000 	andsvc	r0, r0, r0
    23c4:	01006e69 	tsteq	r0, r9, ror #28
    23c8:	00002c60 	andeq	r2, r0, r0, ror #24
    23cc:	09161100 	ldmdbeq	r6, {r8, ip}
    23d0:	67010000 	strvs	r0, [r1, -r0]
    23d4:	00000133 	andeq	r0, r0, r3, lsr r1
    23d8:	0009b311 	andeq	fp, r9, r1, lsl r3
    23dc:	2c680100 	stfcse	f0, [r8], #-0
    23e0:	00000000 	andeq	r0, r0, r0
    23e4:	00013e12 	andeq	r3, r1, r2, lsl lr
    23e8:	008fd400 	addeq	sp, pc, r0, lsl #8
    23ec:	00003800 	andeq	r3, r0, r0, lsl #16
    23f0:	b09c0100 	addslt	r0, ip, r0, lsl #2
    23f4:	13000001 	movwne	r0, #1
    23f8:	0000014a 	andeq	r0, r0, sl, asr #2
    23fc:	00000f79 	andeq	r0, r0, r9, ror pc
    2400:	00015514 	andeq	r5, r1, r4, lsl r5
    2404:	000f9a00 	andeq	r9, pc, r0, lsl #20
    2408:	01601400 	cmneq	r0, r0, lsl #8
    240c:	0fd00000 	svceq	0x00d00000
    2410:	040c0000 	streq	r0, [ip], #-0
    2414:	af000090 	svcge	0x00000090
    2418:	0b000008 	bleq	2440 <_start-0x5bc0>
    241c:	31075101 	tstcc	r7, r1, lsl #2
    2420:	4f5001f3 	svcmi	0x005001f3
    2424:	0000241a 	andeq	r2, r0, sl, lsl r4
    2428:	0008cd0f 	andeq	ip, r8, pc, lsl #26
    242c:	037b0100 	cmneq	fp, #0, 2
    2430:	000001de 	ldrdeq	r0, [r0], -lr
    2434:	6e697010 	mcrvs	0, 3, r7, cr9, cr0, {0}
    2438:	2c7b0100 	ldfcse	f0, [fp], #-0
    243c:	11000000 	mrsne	r0, (UNDEF: 0)
    2440:	00000916 	andeq	r0, r0, r6, lsl r9
    2444:	01338101 	teqeq	r3, r1, lsl #2
    2448:	b3110000 	tstlt	r1, #0
    244c:	01000009 	tsteq	r0, r9
    2450:	00002c82 	andeq	r2, r0, r2, lsl #25
    2454:	b0120000 	andslt	r0, r2, r0
    2458:	0c000001 	stceq	0, cr0, [r0], {1}
    245c:	38000090 	stmdacc	r0, {r4, r7}
    2460:	01000000 	mrseq	r0, (UNDEF: 0)
    2464:	0002229c 	muleq	r2, ip, r2
    2468:	01bc1300 			; <UNDEFINED> instruction: 0x01bc1300
    246c:	10100000 	andsne	r0, r0, r0
    2470:	c7140000 	ldrgt	r0, [r4, -r0]
    2474:	31000001 	tstcc	r0, r1
    2478:	14000010 	strne	r0, [r0], #-16
    247c:	000001d2 	ldrdeq	r0, [r0], -r2
    2480:	00001067 	andeq	r1, r0, r7, rrx
    2484:	00903c0c 	addseq	r3, r0, ip, lsl #24
    2488:	0008af00 	andeq	sl, r8, r0, lsl #30
    248c:	51010b00 	tstpl	r1, r0, lsl #22
    2490:	01f33107 	mvnseq	r3, r7, lsl #2
    2494:	241a4f50 	ldrcs	r4, [sl], #-3920	; 0xf50
    2498:	d5070000 	strle	r0, [r7, #-0]
    249c:	01000009 	tsteq	r0, r9
    24a0:	00904495 	umullseq	r4, r0, r5, r4
    24a4:	0000cc00 	andeq	ip, r0, r0, lsl #24
    24a8:	989c0100 	ldmls	ip, {r8}
    24ac:	08000002 	stmdaeq	r0, {r1}
    24b0:	006e6970 	rsbeq	r6, lr, r0, ror r9
    24b4:	002c9501 	eoreq	r9, ip, r1, lsl #10
    24b8:	10a70000 	adcne	r0, r7, r0
    24bc:	16090000 	strne	r0, [r9], -r0
    24c0:	01000009 	tsteq	r0, r9
    24c4:	0001339b 	muleq	r1, fp, r3
    24c8:	0010c500 	andseq	ip, r0, r0, lsl #10
    24cc:	0a320900 	beq	c848d4 <__bss_end__+0xc75f94>
    24d0:	9d010000 	stcls	0, cr0, [r1, #-0]
    24d4:	0000002c 	andeq	r0, r0, ip, lsr #32
    24d8:	0000111a 	andeq	r1, r0, sl, lsl r1
    24dc:	0009b309 	andeq	fp, r9, r9, lsl #6
    24e0:	2cab0100 	stfcss	f0, [fp]
    24e4:	e6000000 	str	r0, [r0], -r0
    24e8:	0a000012 	beq	2538 <_start-0x5ac8>
    24ec:	000090d8 	ldrdeq	r9, [r0], -r8
    24f0:	0000088e 	andeq	r0, r0, lr, lsl #17
    24f4:	00000287 	andeq	r0, r0, r7, lsl #5
    24f8:	0250010b 	subseq	r0, r0, #-1073741822	; 0xc0000002
    24fc:	0c000075 	stceq	0, cr0, [r0], {117}	; 0x75
    2500:	00009104 	andeq	r9, r0, r4, lsl #2
    2504:	000008af 	andeq	r0, r0, pc, lsr #17
    2508:	0250010b 	subseq	r0, r0, #-1073741822	; 0xc0000002
    250c:	00000075 	andeq	r0, r0, r5, ror r0
    2510:	00095915 	andeq	r5, r9, r5, lsl r9
    2514:	64b30100 	ldrtvs	r0, [r3], #256	; 0x100
    2518:	10000000 	andne	r0, r0, r0
    251c:	4c000091 	stcmi	0, cr0, [r0], {145}	; 0x91
    2520:	01000000 	mrseq	r0, (UNDEF: 0)
    2524:	0002e09c 	muleq	r2, ip, r0
    2528:	69700800 	ldmdbvs	r0!, {fp}^
    252c:	b301006e 	movwlt	r0, #4206	; 0x106e
    2530:	0000002c 	andeq	r0, r0, ip, lsr #32
    2534:	00001304 	andeq	r1, r0, r4, lsl #6
    2538:	01007616 	tsteq	r0, r6, lsl r6
    253c:	00002cb9 			; <UNDEFINED> instruction: 0x00002cb9
    2540:	00135c00 	andseq	r5, r3, r0, lsl #24
    2544:	91301700 	teqls	r0, r0, lsl #14
    2548:	088e0000 	stmeq	lr, {}	; <UNPREDICTABLE>
    254c:	40170000 	andsmi	r0, r7, r0
    2550:	8e000091 	mcrhi	0, 0, r0, cr0, cr1, {4}
    2554:	00000008 	andeq	r0, r0, r8
    2558:	0009bb07 	andeq	fp, r9, r7, lsl #22
    255c:	5cc50100 	stfple	f0, [r5], {0}
    2560:	78000091 	stmdavc	r0, {r0, r4, r7}
    2564:	01000000 	mrseq	r0, (UNDEF: 0)
    2568:	0003aa9c 	muleq	r3, ip, sl
    256c:	69700800 	ldmdbvs	r0!, {fp}^
    2570:	c501006e 	strgt	r0, [r1, #-110]	; 0x6e
    2574:	0000002c 	andeq	r0, r0, ip, lsr #32
    2578:	00001392 	muleq	r0, r2, r3
    257c:	01007608 	tsteq	r0, r8, lsl #12
    2580:	00002cc5 	andeq	r2, r0, r5, asr #25
    2584:	0013cc00 	andseq	ip, r3, r0, lsl #24
    2588:	013e1800 	teqeq	lr, r0, lsl #16
    258c:	91700000 	cmnls	r0, r0
    2590:	00300000 	eorseq	r0, r0, r0
    2594:	cc010000 	stcgt	0, cr0, [r1], {-0}
    2598:	0000035f 	andeq	r0, r0, pc, asr r3
    259c:	00014a13 	andeq	r4, r1, r3, lsl sl
    25a0:	00140600 	andseq	r0, r4, r0, lsl #12
    25a4:	91701900 	cmnls	r0, r0, lsl #18
    25a8:	00300000 	eorseq	r0, r0, r0
    25ac:	55140000 	ldrpl	r0, [r4, #-0]
    25b0:	27000001 	strcs	r0, [r0, -r1]
    25b4:	14000014 	strne	r0, [r0], #-20
    25b8:	00000160 	andeq	r0, r0, r0, ror #2
    25bc:	0000145d 	andeq	r1, r0, sp, asr r4
    25c0:	00919c0c 	addseq	r9, r1, ip, lsl #24
    25c4:	0008af00 	andeq	sl, r8, r0, lsl #30
    25c8:	51010b00 	tstpl	r1, r0, lsl #22
    25cc:	01f33107 	mvnseq	r3, r7, lsl #2
    25d0:	241a4f50 	ldrcs	r4, [sl], #-3920	; 0xf50
    25d4:	1a000000 	bne	25dc <_start-0x5a24>
    25d8:	000001b0 			; <UNDEFINED> instruction: 0x000001b0
    25dc:	000091a0 	andeq	r9, r0, r0, lsr #3
    25e0:	00000034 	andeq	r0, r0, r4, lsr r0
    25e4:	bc13ce01 	ldclt	14, cr12, [r3], {1}
    25e8:	9d000001 	stcls	0, cr0, [r0, #-4]
    25ec:	19000014 	stmdbne	r0, {r2, r4}
    25f0:	000091a0 	andeq	r9, r0, r0, lsr #3
    25f4:	00000034 	andeq	r0, r0, r4, lsr r0
    25f8:	0001c714 	andeq	ip, r1, r4, lsl r7
    25fc:	0014be00 	andseq	fp, r4, r0, lsl #28
    2600:	01d21400 	bicseq	r1, r2, r0, lsl #8
    2604:	14f40000 	ldrbtne	r0, [r4], #0
    2608:	cc0c0000 	stcgt	0, cr0, [ip], {-0}
    260c:	af000091 	svcge	0x00000091
    2610:	0b000008 	bleq	2638 <_start-0x59c8>
    2614:	31075101 	tstcc	r7, r1, lsl #2
    2618:	4f5001f3 	svcmi	0x005001f3
    261c:	0000241a 	andeq	r2, r0, sl, lsl r4
    2620:	b1070000 	mrslt	r0, (UNDEF: 7)
    2624:	01000002 	tsteq	r0, r2
    2628:	0091d4d1 			; <UNDEFINED> instruction: 0x0091d4d1
    262c:	0000d800 	andeq	sp, r0, r0, lsl #16
    2630:	2f9c0100 	svccs	0x009c0100
    2634:	08000004 	stmdaeq	r0, {r2}
    2638:	006e6970 	rsbeq	r6, lr, r0, ror r9
    263c:	002cd101 	eoreq	sp, ip, r1, lsl #2
    2640:	15340000 	ldrne	r0, [r4, #-0]!
    2644:	d01b0000 	andsle	r0, fp, r0
    2648:	01000009 	tsteq	r0, r9
    264c:	0000b2d1 	ldrdeq	fp, [r0], -r1
    2650:	00155200 	andseq	r5, r5, r0, lsl #4
    2654:	09160900 	ldmdbeq	r6, {r8, fp}
    2658:	d9010000 	stmdble	r1, {}	; <UNPREDICTABLE>
    265c:	00000133 	andeq	r0, r0, r3, lsr r1
    2660:	00001573 	andeq	r1, r0, r3, ror r5
    2664:	000a3209 	andeq	r3, sl, r9, lsl #4
    2668:	2cda0100 	ldfcse	f0, [sl], {0}
    266c:	c8000000 	stmdagt	r0, {}	; <UNPREDICTABLE>
    2670:	09000015 	stmdbeq	r0, {r0, r2, r4}
    2674:	000009b3 			; <UNDEFINED> instruction: 0x000009b3
    2678:	002ce801 	eoreq	lr, ip, r1, lsl #16
    267c:	17940000 	ldrne	r0, [r4, r0]
    2680:	700a0000 	andvc	r0, sl, r0
    2684:	8e000092 	mcrhi	0, 0, r0, cr0, cr2, {4}
    2688:	1e000008 	cdpne	0, 0, cr0, cr0, cr8, {0}
    268c:	0b000004 	bleq	26a4 <_start-0x595c>
    2690:	76025001 	strvc	r5, [r2], -r1
    2694:	a00c0000 	andge	r0, ip, r0
    2698:	af000092 	svcge	0x00000092
    269c:	0b000008 	bleq	26c4 <_start-0x593c>
    26a0:	76025001 	strvc	r5, [r2], -r1
    26a4:	1c000000 	stcne	0, cr0, [r0], {-0}
    26a8:	000008c1 	andeq	r0, r0, r1, asr #17
    26ac:	64010501 	strvs	r0, [r1], #-1281	; 0x501
    26b0:	ac000000 	stcge	0, cr0, [r0], {-0}
    26b4:	2c000092 	stccs	0, cr0, [r0], {146}	; 0x92
    26b8:	01000000 	mrseq	r0, (UNDEF: 0)
    26bc:	0004639c 	muleq	r4, ip, r3
    26c0:	08c41d00 	stmiaeq	r4, {r8, sl, fp, ip}^
    26c4:	05010000 	streq	r0, [r1, #-0]
    26c8:	00002c01 	andeq	r2, r0, r1, lsl #24
    26cc:	0017c500 	andseq	ip, r7, r0, lsl #10
    26d0:	92bc1700 	adcsls	r1, ip, #0, 14
    26d4:	088e0000 	stmeq	lr, {}	; <UNPREDICTABLE>
    26d8:	1e000000 	cdpne	0, 0, cr0, cr0, cr0, {0}
    26dc:	00000963 	andeq	r0, r0, r3, ror #18
    26e0:	d8011401 	stmdale	r1, {r0, sl, ip}
    26e4:	84000092 	strhi	r0, [r0], #-146	; 0x92
    26e8:	01000000 	mrseq	r0, (UNDEF: 0)
    26ec:	0005279c 	muleq	r5, ip, r7
    26f0:	69701f00 	ldmdbvs	r0!, {r8, r9, sl, fp, ip}^
    26f4:	1401006e 	strne	r0, [r1], #-110	; 0x6e
    26f8:	00002c01 	andeq	r2, r0, r1, lsl #24
    26fc:	0017e600 	andseq	lr, r7, r0, lsl #12
    2700:	08e82000 	stmiaeq	r8!, {sp}^
    2704:	26010000 	strcs	r0, [r1], -r0
    2708:	00002c01 	andeq	r2, r0, r1, lsl #24
    270c:	00181200 	andseq	r1, r8, r0, lsl #4
    2710:	92f42100 	rscsls	r2, r4, #0, 2
    2714:	001c0000 	andseq	r0, ip, r0
    2718:	04c90000 	strbeq	r0, [r9], #0
    271c:	b3200000 	teqlt	r0, #0
    2720:	01000009 	tsteq	r0, r9
    2724:	002c011d 	eoreq	r0, ip, sp, lsl r1
    2728:	18300000 	ldmdane	r0!, {}	; <UNPREDICTABLE>
    272c:	00170000 	andseq	r0, r7, r0
    2730:	8e000093 	mcrhi	0, 0, r0, cr0, cr3, {4}
    2734:	17000008 	strne	r0, [r0, -r8]
    2738:	00009310 	andeq	r9, r0, r0, lsl r3
    273c:	000008af 	andeq	r0, r0, pc, lsr #17
    2740:	93142100 	tstls	r4, #0, 2
    2744:	00200000 	eoreq	r0, r0, r0
    2748:	04f90000 	ldrbteq	r0, [r9], #0
    274c:	b3200000 	teqlt	r0, #0
    2750:	01000009 	tsteq	r0, r9
    2754:	002c0121 	eoreq	r0, ip, r1, lsr #2
    2758:	184e0000 	stmdane	lr, {}^	; <UNPREDICTABLE>
    275c:	20170000 	andscs	r0, r7, r0
    2760:	8e000093 	mcrhi	0, 0, r0, cr0, cr3, {4}
    2764:	17000008 	strne	r0, [r0, -r8]
    2768:	00009334 	andeq	r9, r0, r4, lsr r3
    276c:	000008af 	andeq	r0, r0, pc, lsr #17
    2770:	92ec1700 	rscls	r1, ip, #0, 14
    2774:	08cb0000 	stmiaeq	fp, {}^	; <UNPREDICTABLE>
    2778:	38170000 	ldmdacc	r7, {}	; <UNPREDICTABLE>
    277c:	cb000093 	blgt	29d0 <_start-0x5630>
    2780:	17000008 	strne	r0, [r0, -r8]
    2784:	00009344 	andeq	r9, r0, r4, asr #6
    2788:	0000088e 	andeq	r0, r0, lr, lsl #17
    278c:	00935017 	addseq	r5, r3, r7, lsl r0
    2790:	0008af00 	andeq	sl, r8, r0, lsl #30
    2794:	93541700 	cmpls	r4, #0, 14
    2798:	08cb0000 	stmiaeq	fp, {}^	; <UNPREDICTABLE>
    279c:	1e000000 	cdpne	0, 0, cr0, cr0, cr0, {0}
    27a0:	00000a1c 	andeq	r0, r0, ip, lsl sl
    27a4:	5c013101 	stfpls	f3, [r1], {1}
    27a8:	84000093 	strhi	r0, [r0], #-147	; 0x93
    27ac:	01000000 	mrseq	r0, (UNDEF: 0)
    27b0:	0005eb9c 	muleq	r5, ip, fp
    27b4:	69701f00 	ldmdbvs	r0!, {r8, r9, sl, fp, ip}^
    27b8:	3101006e 	tstcc	r1, lr, rrx
    27bc:	00002c01 	andeq	r2, r0, r1, lsl #24
    27c0:	00186c00 	andseq	r6, r8, r0, lsl #24
    27c4:	08e82000 	stmiaeq	r8!, {sp}^
    27c8:	42010000 	andmi	r0, r1, #0
    27cc:	00002c01 	andeq	r2, r0, r1, lsl #24
    27d0:	00189800 	andseq	r9, r8, r0, lsl #16
    27d4:	93782100 	cmnls	r8, #0, 2
    27d8:	001c0000 	andseq	r0, ip, r0
    27dc:	058d0000 	streq	r0, [sp]
    27e0:	b3200000 	teqlt	r0, #0
    27e4:	01000009 	tsteq	r0, r9
    27e8:	002c0139 	eoreq	r0, ip, r9, lsr r1
    27ec:	18b60000 	ldmne	r6!, {}	; <UNPREDICTABLE>
    27f0:	84170000 	ldrhi	r0, [r7], #-0
    27f4:	8e000093 	mcrhi	0, 0, r0, cr0, cr3, {4}
    27f8:	17000008 	strne	r0, [r0, -r8]
    27fc:	00009394 	muleq	r0, r4, r3
    2800:	000008af 	andeq	r0, r0, pc, lsr #17
    2804:	93982100 	orrsls	r2, r8, #0, 2
    2808:	00200000 	eoreq	r0, r0, r0
    280c:	05bd0000 	ldreq	r0, [sp, #0]!
    2810:	b3200000 	teqlt	r0, #0
    2814:	01000009 	tsteq	r0, r9
    2818:	002c013d 	eoreq	r0, ip, sp, lsr r1
    281c:	18d40000 	ldmne	r4, {}^	; <UNPREDICTABLE>
    2820:	a4170000 	ldrge	r0, [r7], #-0
    2824:	8e000093 	mcrhi	0, 0, r0, cr0, cr3, {4}
    2828:	17000008 	strne	r0, [r0, -r8]
    282c:	000093b8 			; <UNDEFINED> instruction: 0x000093b8
    2830:	000008af 	andeq	r0, r0, pc, lsr #17
    2834:	93701700 	cmnls	r0, #0, 14
    2838:	08cb0000 	stmiaeq	fp, {}^	; <UNPREDICTABLE>
    283c:	bc170000 	ldclt	0, cr0, [r7], {-0}
    2840:	cb000093 	blgt	2a94 <_start-0x556c>
    2844:	17000008 	strne	r0, [r0, -r8]
    2848:	000093c8 	andeq	r9, r0, r8, asr #7
    284c:	0000088e 	andeq	r0, r0, lr, lsl #17
    2850:	0093d417 	addseq	sp, r3, r7, lsl r4
    2854:	0008af00 	andeq	sl, r8, r0, lsl #30
    2858:	93d81700 	bicsls	r1, r8, #0, 14
    285c:	08cb0000 	stmiaeq	fp, {}^	; <UNPREDICTABLE>
    2860:	1c000000 	stcne	0, cr0, [r0], {-0}
    2864:	00000890 	muleq	r0, r0, r8
    2868:	64014c01 	strvs	r4, [r1], #-3073	; 0xc01
    286c:	e0000000 	and	r0, r0, r0
    2870:	84000093 	strhi	r0, [r0], #-147	; 0x93
    2874:	01000000 	mrseq	r0, (UNDEF: 0)
    2878:	0006919c 	muleq	r6, ip, r1
    287c:	69701f00 	ldmdbvs	r0!, {r8, r9, sl, fp, ip}^
    2880:	4c01006e 	stcmi	0, cr0, [r1], {110}	; 0x6e
    2884:	00002c01 	andeq	r2, r0, r1, lsl #24
    2888:	0018f200 	andseq	pc, r8, r0, lsl #4
    288c:	93fc2100 	mvnsls	r2, #0, 2
    2890:	00240000 	eoreq	r0, r4, r0
    2894:	06450000 	strbeq	r0, [r5], -r0
    2898:	ff200000 			; <UNDEFINED> instruction: 0xff200000
    289c:	01000008 	tsteq	r0, r8
    28a0:	002c0153 	eoreq	r0, ip, r3, asr r1
    28a4:	19340000 	ldmdbne	r4!, {}	; <UNPREDICTABLE>
    28a8:	08170000 	ldmdaeq	r7, {}	; <UNPREDICTABLE>
    28ac:	8e000094 	mcrhi	0, 0, r0, cr0, cr4, {4}
    28b0:	17000008 	strne	r0, [r0, -r8]
    28b4:	00009418 	andeq	r9, r0, r8, lsl r4
    28b8:	000008cb 	andeq	r0, r0, fp, asr #17
    28bc:	94202100 	strtls	r2, [r0], #-256	; 0x100
    28c0:	002c0000 	eoreq	r0, ip, r0
    28c4:	067e0000 	ldrbteq	r0, [lr], -r0
    28c8:	ff200000 			; <UNDEFINED> instruction: 0xff200000
    28cc:	01000008 	tsteq	r0, r8
    28d0:	002c0156 	eoreq	r0, ip, r6, asr r1
    28d4:	194e0000 	stmdbne	lr, {}^	; <UNPREDICTABLE>
    28d8:	2c170000 	ldccs	0, cr0, [r7], {-0}
    28dc:	8e000094 	mcrhi	0, 0, r0, cr0, cr4, {4}
    28e0:	17000008 	strne	r0, [r0, -r8]
    28e4:	00009438 	andeq	r9, r0, r8, lsr r4
    28e8:	000008cb 	andeq	r0, r0, fp, asr #17
    28ec:	00944417 	addseq	r4, r4, r7, lsl r4
    28f0:	0008cb00 	andeq	ip, r8, r0, lsl #22
    28f4:	f4170000 			; <UNDEFINED> instruction: 0xf4170000
    28f8:	cb000093 	blgt	2b4c <_start-0x54b4>
    28fc:	17000008 	strne	r0, [r0, -r8]
    2900:	00009450 	andeq	r9, r0, r0, asr r4
    2904:	000008cb 	andeq	r0, r0, fp, asr #17
    2908:	09861e00 	stmibeq	r6, {r9, sl, fp, ip}
    290c:	5f010000 	svcpl	0x00010000
    2910:	00946401 	addseq	r6, r4, r1, lsl #8
    2914:	00005800 	andeq	r5, r0, r0, lsl #16
    2918:	f69c0100 			; <UNDEFINED> instruction: 0xf69c0100
    291c:	1f000006 	svcne	0x00000006
    2920:	006e6970 	rsbeq	r6, lr, r0, ror r9
    2924:	2c015f01 	stccs	15, cr5, [r1], {1}
    2928:	61000000 	mrsvs	r0, (UNDEF: 0)
    292c:	17000019 	smladne	r0, r9, r0, r0
    2930:	00009478 	andeq	r9, r0, r8, ror r4
    2934:	000008cb 	andeq	r0, r0, fp, asr #17
    2938:	0094940a 	addseq	r9, r4, sl, lsl #8
    293c:	0008af00 	andeq	sl, r8, r0, lsl #30
    2940:	0006d600 	andeq	sp, r6, r0, lsl #12
    2944:	51010b00 	tstpl	r1, r0, lsl #22
    2948:	00743104 	rsbseq	r3, r4, r4, lsl #2
    294c:	b00a0024 	andlt	r0, sl, r4, lsr #32
    2950:	af000094 	svcge	0x00000094
    2954:	ec000008 	stc	0, cr0, [r0], {8}
    2958:	0b000006 	bleq	2978 <_start-0x5688>
    295c:	31045101 	tstcc	r4, r1, lsl #2
    2960:	00240074 	eoreq	r0, r4, r4, ror r0
    2964:	0094b417 	addseq	fp, r4, r7, lsl r4
    2968:	0008cb00 	andeq	ip, r8, r0, lsl #22
    296c:	47220000 	strmi	r0, [r2, -r0]!
    2970:	01000009 	tsteq	r0, r9
    2974:	00013328 	andeq	r3, r1, r8, lsr #6
    2978:	e8030500 	stmda	r3, {r8, sl}
    297c:	2200009f 	andcs	r0, r0, #159	; 0x9f
    2980:	000009c6 	andeq	r0, r0, r6, asr #19
    2984:	01332901 	teqeq	r3, r1, lsl #18
    2988:	03050000 	movweq	r0, #20480	; 0x5000
    298c:	00009fe4 	andeq	r9, r0, r4, ror #31
    2990:	000a3d22 	andeq	r3, sl, r2, lsr #26
    2994:	332a0100 	teqcc	sl, #0, 2
    2998:	05000001 	streq	r0, [r0, #-1]
    299c:	009fe003 	addseq	lr, pc, r3
    29a0:	091f2200 	ldmdbeq	pc, {r9, sp}	; <UNPREDICTABLE>
    29a4:	2c010000 	stccs	0, cr0, [r1], {-0}
    29a8:	00000133 	andeq	r0, r0, r3, lsr r1
    29ac:	9f8c0305 	svcls	0x008c0305
    29b0:	27220000 	strcs	r0, [r2, -r0]!
    29b4:	01000009 	tsteq	r0, r9
    29b8:	0001332d 	andeq	r3, r1, sp, lsr #6
    29bc:	90030500 	andls	r0, r3, r0, lsl #10
    29c0:	2200009f 	andcs	r0, r0, #159	; 0x9f
    29c4:	000008a4 	andeq	r0, r0, r4, lsr #17
    29c8:	01332e01 	teqeq	r3, r1, lsl #28
    29cc:	03050000 	movweq	r0, #20480	; 0x5000
    29d0:	00009f94 	muleq	r0, r4, pc	; <UNPREDICTABLE>
    29d4:	00092f22 	andeq	r2, r9, r2, lsr #30
    29d8:	332f0100 	teqcc	pc, #0, 2
    29dc:	05000001 	streq	r0, [r0, #-1]
    29e0:	009f9803 	addseq	r9, pc, r3, lsl #16
    29e4:	09372200 	ldmdbeq	r7!, {r9, sp}
    29e8:	30010000 	andcc	r0, r1, r0
    29ec:	00000133 	andeq	r0, r0, r3, lsr r1
    29f0:	9f9c0305 	svcls	0x009c0305
    29f4:	3f220000 	svccc	0x00220000
    29f8:	01000009 	tsteq	r0, r9
    29fc:	00013331 	andeq	r3, r1, r1, lsr r3
    2a00:	a0030500 	andge	r0, r3, r0, lsl #10
    2a04:	2200009f 	andcs	r0, r0, #159	; 0x9f
    2a08:	000008f1 	strdeq	r0, [r0], -r1
    2a0c:	01333301 	teqeq	r3, r1, lsl #6
    2a10:	03050000 	movweq	r0, #20480	; 0x5000
    2a14:	00009fa4 	andeq	r9, r0, r4, lsr #31
    2a18:	0008f822 	andeq	pc, r8, r2, lsr #16
    2a1c:	33340100 	teqcc	r4, #0, 2
    2a20:	05000001 	streq	r0, [r0, #-1]
    2a24:	009fa803 	addseq	sl, pc, r3, lsl #16
    2a28:	08ac2200 	stmiaeq	ip!, {r9, sp}
    2a2c:	36010000 	strcc	r0, [r1], -r0
    2a30:	00000133 	andeq	r0, r0, r3, lsr r1
    2a34:	9fac0305 	svcls	0x00ac0305
    2a38:	52220000 	eorpl	r0, r2, #0
    2a3c:	01000009 	tsteq	r0, r9
    2a40:	00013337 	andeq	r3, r1, r7, lsr r3
    2a44:	b0030500 	andlt	r0, r3, r0, lsl #10
    2a48:	2200009f 	andcs	r0, r0, #159	; 0x9f
    2a4c:	00000908 	andeq	r0, r0, r8, lsl #18
    2a50:	01333901 	teqeq	r3, r1, lsl #18
    2a54:	03050000 	movweq	r0, #20480	; 0x5000
    2a58:	00009fb4 			; <UNDEFINED> instruction: 0x00009fb4
    2a5c:	00090f22 	andeq	r0, r9, r2, lsr #30
    2a60:	333a0100 	teqcc	sl, #0, 2
    2a64:	05000001 	streq	r0, [r0, #-1]
    2a68:	009fb803 	addseq	fp, pc, r3, lsl #16
    2a6c:	09972200 	ldmibeq	r7, {r9, sp}
    2a70:	f0010000 			; <UNDEFINED> instruction: 0xf0010000
    2a74:	00000133 	andeq	r0, r0, r3, lsr r1
    2a78:	9fdc0305 	svcls	0x00dc0305
    2a7c:	a5220000 	strge	r0, [r2, #-0]!
    2a80:	01000009 	tsteq	r0, r9
    2a84:	000133f1 	strdeq	r3, [r1], -r1
    2a88:	bc030500 	cfstr32lt	mvfx0, [r3], {-0}
    2a8c:	2200009f 	andcs	r0, r0, #159	; 0x9f
    2a90:	000009e4 	andeq	r0, r0, r4, ror #19
    2a94:	0133f301 	teqeq	r3, r1, lsl #6
    2a98:	03050000 	movweq	r0, #20480	; 0x5000
    2a9c:	00009fd4 	ldrdeq	r9, [r0], -r4
    2aa0:	0009eb22 	andeq	lr, r9, r2, lsr #22
    2aa4:	33f40100 	mvnscc	r0, #0, 2
    2aa8:	05000001 	streq	r0, [r0, #-1]
    2aac:	009fd803 	addseq	sp, pc, r3, lsl #16
    2ab0:	09782200 	ldmdbeq	r8!, {r9, sp}^
    2ab4:	f6010000 			; <UNDEFINED> instruction: 0xf6010000
    2ab8:	00000133 	andeq	r0, r0, r3, lsr r1
    2abc:	9fc00305 	svcls	0x00c00305
    2ac0:	7f220000 	svcvc	0x00220000
    2ac4:	01000009 	tsteq	r0, r9
    2ac8:	000133f7 	strdeq	r3, [r1], -r7
    2acc:	c4030500 	strgt	r0, [r3], #-1280	; 0x500
    2ad0:	2200009f 	andcs	r0, r0, #159	; 0x9f
    2ad4:	000009fe 	strdeq	r0, [r0], -lr
    2ad8:	0133f901 	teqeq	r3, r1, lsl #18
    2adc:	03050000 	movweq	r0, #20480	; 0x5000
    2ae0:	00009fcc 	andeq	r9, r0, ip, asr #31
    2ae4:	000a0522 	andeq	r0, sl, r2, lsr #10
    2ae8:	33fa0100 	mvnscc	r0, #0, 2
    2aec:	05000001 	streq	r0, [r0, #-1]
    2af0:	009fd003 	addseq	sp, pc, r3
    2af4:	08b32200 	ldmeq	r3!, {r9, sp}
    2af8:	fc010000 	stc2	0, cr0, [r1], {-0}
    2afc:	00000133 	andeq	r0, r0, r3, lsr r1
    2b00:	9fc80305 	svcls	0x00c80305
    2b04:	ac230000 	stcge	0, cr0, [r3], #-0
    2b08:	01000004 	tsteq	r0, r4
    2b0c:	00002c20 	andeq	r2, r0, r0, lsr #24
    2b10:	0008a300 	andeq	sl, r8, r0, lsl #6
    2b14:	08a32400 	stmiaeq	r3!, {sl, sp}
    2b18:	0d000000 	stceq	0, cr0, [r0, #-0]
    2b1c:	0008a904 	andeq	sl, r8, r4, lsl #18
    2b20:	08ae2500 	stmiaeq	lr!, {r8, sl, sp}
    2b24:	27260000 	strcs	r0, [r6, -r0]!
    2b28:	00000418 	andeq	r0, r0, r8, lsl r4
    2b2c:	08c51e01 	stmiaeq	r5, {r0, r9, sl, fp, ip}^
    2b30:	c5240000 	strgt	r0, [r4, #-0]!
    2b34:	24000008 	strcs	r0, [r0], #-8
    2b38:	0000002c 	andeq	r0, r0, ip, lsr #32
    2b3c:	ae040d00 	cdpge	13, 0, cr0, cr4, cr0, {0}
    2b40:	28000008 	stmdacs	r0, {r3}
    2b44:	00000426 	andeq	r0, r0, r6, lsr #8
    2b48:	8d008503 	cfstr32hi	mvfx8, [r0, #-12]
    2b4c:	04000011 	streq	r0, [r0], #-17
    2b50:	000e3400 	andeq	r3, lr, r0, lsl #8
    2b54:	a2010400 	andge	r0, r1, #0, 8
    2b58:	01000003 	tsteq	r0, r3
    2b5c:	00000ac8 	andeq	r0, r0, r8, asr #21
    2b60:	0000059d 	muleq	r0, sp, r5
    2b64:	000094bc 			; <UNDEFINED> instruction: 0x000094bc
    2b68:	00000608 	andeq	r0, r0, r8, lsl #12
    2b6c:	00000d4e 	andeq	r0, r0, lr, asr #26
    2b70:	69050402 	stmdbvs	r5, {r1, sl}
    2b74:	0300746e 	movweq	r7, #1134	; 0x46e
    2b78:	00640704 	rsbeq	r0, r4, r4, lsl #14
    2b7c:	01030000 	mrseq	r0, (UNDEF: 3)
    2b80:	00035606 	andeq	r5, r3, r6, lsl #12
    2b84:	05020300 	streq	r0, [r2, #-768]	; 0x300
    2b88:	0000036a 	andeq	r0, r0, sl, ror #6
    2b8c:	a3050403 	movwge	r0, #21507	; 0x5403
    2b90:	03000000 	movweq	r0, #0
    2b94:	009e0508 	addseq	r0, lr, r8, lsl #10
    2b98:	a4040000 	strge	r0, [r4], #-0
    2b9c:	03000004 	movweq	r0, #4
    2ba0:	00005a2e 	andeq	r5, r0, lr, lsr #20
    2ba4:	08010300 	stmdaeq	r1, {r8, r9}
    2ba8:	00000354 	andeq	r0, r0, r4, asr r3
    2bac:	1f070203 	svcne	0x00070203
    2bb0:	04000002 	streq	r0, [r0], #-2
    2bb4:	00000394 	muleq	r0, r4, r3
    2bb8:	00733403 	rsbseq	r3, r3, r3, lsl #8
    2bbc:	04030000 	streq	r0, [r3], #-0
    2bc0:	00005f07 	andeq	r5, r0, r7, lsl #30
    2bc4:	07080300 	streq	r0, [r8, -r0, lsl #6]
    2bc8:	0000005a 	andeq	r0, r0, sl, asr r0
    2bcc:	a8070403 	stmdage	r7, {r0, r1, sl}
    2bd0:	05000002 	streq	r0, [r0, #-2]
    2bd4:	90040604 	andls	r0, r4, r4, lsl #12
    2bd8:	03000000 	movweq	r0, #0
    2bdc:	035d0801 	cmpeq	sp, #65536	; 0x10000
    2be0:	04060000 	streq	r0, [r6], #-0
    2be4:	0000009d 	muleq	r0, sp, r0
    2be8:	00009007 	andeq	r9, r0, r7
    2bec:	040c0800 	streq	r0, [ip], #-2048	; 0x800
    2bf0:	0000d90e 	andeq	sp, r0, lr, lsl #18
    2bf4:	78740900 	ldmdavc	r4!, {r8, fp}^
    2bf8:	4f0f0400 	svcmi	0x000f0400
    2bfc:	00000000 	andeq	r0, r0, r0
    2c00:	00787209 	rsbseq	r7, r8, r9, lsl #4
    2c04:	004f0f04 	subeq	r0, pc, r4, lsl #30
    2c08:	0a010000 	beq	42c10 <__bss_end__+0x342d0>
    2c0c:	0000039d 	muleq	r0, sp, r3
    2c10:	00681004 	rsbeq	r1, r8, r4
    2c14:	0a040000 	beq	102c1c <__bss_end__+0xf42dc>
    2c18:	00000090 	muleq	r0, r0, r0
    2c1c:	00681104 	rsbeq	r1, r8, r4, lsl #2
    2c20:	00080000 	andeq	r0, r8, r0
    2c24:	00033804 	andeq	r3, r3, r4, lsl #16
    2c28:	a2120400 	andsge	r0, r2, #0, 8
    2c2c:	04000000 	streq	r0, [r0], #-0
    2c30:	000005e1 	andeq	r0, r0, r1, ror #11
    2c34:	00ef2805 	rsceq	r2, pc, r5, lsl #16
    2c38:	080b0000 	stmdaeq	fp, {}	; <UNPREDICTABLE>
    2c3c:	04000006 	streq	r0, [r0], #-6
    2c40:	01060009 	tsteq	r6, r9
    2c44:	170c0000 	strne	r0, [ip, -r0]
    2c48:	88000006 	stmdahi	r0, {r1, r2}
    2c4c:	00000000 	andeq	r0, r0, r0
    2c50:	060a0400 	streq	r0, [sl], -r0, lsl #8
    2c54:	62050000 	andvs	r0, r5, #0
    2c58:	000000e4 	andeq	r0, r0, r4, ror #1
    2c5c:	000aa00d 	andeq	sl, sl, sp
    2c60:	03090200 	movweq	r0, #37376	; 0x9200
    2c64:	0000013f 	andeq	r0, r0, pc, lsr r1
    2c68:	0007600e 	andeq	r6, r7, lr
    2c6c:	2c090200 	sfmcs	f0, 4, [r9], {-0}
    2c70:	0f000000 	svceq	0x00000000
    2c74:	0902006e 	stmdbeq	r2, {r1, r2, r3, r5, r6}
    2c78:	0000002c 	andeq	r0, r0, ip, lsr #32
    2c7c:	0af61110 	beq	ffd870c4 <__bss_end__+0xffd78784>
    2c80:	0c020000 	stceq	0, cr0, [r2], {-0}
    2c84:	0000002c 	andeq	r0, r0, ip, lsr #32
    2c88:	530d0000 	movwpl	r0, #53248	; 0xd000
    2c8c:	0200000a 	andeq	r0, r0, #10
    2c90:	01760317 	cmneq	r6, r7, lsl r3
    2c94:	700f0000 	andvc	r0, pc, r0
    2c98:	02006e69 	andeq	r6, r0, #1680	; 0x690
    2c9c:	00002c17 	andeq	r2, r0, r7, lsl ip
    2ca0:	00760f00 	rsbseq	r0, r6, r0, lsl #30
    2ca4:	002c1702 	eoreq	r1, ip, r2, lsl #14
    2ca8:	600e0000 	andvs	r0, lr, r0
    2cac:	02000007 	andeq	r0, r0, #7
    2cb0:	00002c17 	andeq	r2, r0, r7, lsl ip
    2cb4:	0aa60e00 	beq	fe9864bc <__bss_end__+0xfe977b7c>
    2cb8:	17020000 	strne	r0, [r2, -r0]
    2cbc:	0000002c 	andeq	r0, r0, ip, lsr #32
    2cc0:	024f1200 	subeq	r1, pc, #0, 4
    2cc4:	09010000 	stmdbeq	r1, {}	; <UNPREDICTABLE>
    2cc8:	000094bc 			; <UNDEFINED> instruction: 0x000094bc
    2ccc:	00000154 	andeq	r0, r0, r4, asr r1
    2cd0:	07229c01 	streq	r9, [r2, -r1, lsl #24]!
    2cd4:	22130000 	andscs	r0, r3, #0
    2cd8:	01000007 	tsteq	r0, r7
    2cdc:	00072209 	andeq	r2, r7, r9, lsl #4
    2ce0:	00198d00 	andseq	r8, r9, r0, lsl #26
    2ce4:	00631400 	rsbeq	r1, r3, r0, lsl #8
    2ce8:	005a0901 	subseq	r0, sl, r1, lsl #18
    2cec:	19ae0000 	stmibne	lr!, {}	; <UNPREDICTABLE>
    2cf0:	74150000 	ldrvc	r0, [r5], #-0
    2cf4:	0b010078 	bleq	42edc <__bss_end__+0x3459c>
    2cf8:	00000025 	andeq	r0, r0, r5, lsr #32
    2cfc:	08007606 	stmdaeq	r0, {r1, r2, r9, sl, ip, sp, lr}
    2d00:	169f1aff 			; <UNDEFINED> instruction: 0x169f1aff
    2d04:	0c01006e 	stceq	0, cr0, [r1], {110}	; 0x6e
    2d08:	00000068 	andeq	r0, r0, r8, rrx
    2d0c:	000019cf 	andeq	r1, r0, pc, asr #19
    2d10:	01007516 	tsteq	r0, r6, lsl r5
    2d14:	0000680d 	andeq	r6, r0, sp, lsl #16
    2d18:	0019e200 	andseq	lr, r9, r0, lsl #4
    2d1c:	00731500 	rsbseq	r1, r3, r0, lsl #10
    2d20:	00680e01 	rsbeq	r0, r8, r1, lsl #28
    2d24:	54010000 	strpl	r0, [r1], #-0
    2d28:	0094cc17 	addseq	ip, r4, r7, lsl ip
    2d2c:	00000400 	andeq	r0, r0, r0, lsl #8
    2d30:	0001f800 	andeq	pc, r1, r0, lsl #16
    2d34:	0af61800 	beq	ffd88d3c <__bss_end__+0xffd7a3fc>
    2d38:	0e010000 	cdpeq	0, 0, cr0, cr1, cr0, {0}
    2d3c:	0000002c 	andeq	r0, r0, ip, lsr #32
    2d40:	19005401 	stmdbne	r0, {r0, sl, ip, lr}
    2d44:	0000013f 	andeq	r0, r0, pc, lsr r1
    2d48:	000094d0 	ldrdeq	r9, [r0], -r0
    2d4c:	0000001c 	andeq	r0, r0, ip, lsl r0
    2d50:	02751101 	rsbseq	r1, r5, #1073741824	; 0x40000000
    2d54:	6a1a0000 	bvs	682d5c <__bss_end__+0x67441c>
    2d58:	0b000001 	bleq	2d64 <_start-0x529c>
    2d5c:	1b00001a 	blne	2dcc <_start-0x5234>
    2d60:	0000015f 	andeq	r0, r0, pc, asr r1
    2d64:	561c5401 	ldrpl	r5, [ip], -r1, lsl #8
    2d68:	00000001 	andeq	r0, r0, r1
    2d6c:	00014b1b 	andeq	r4, r1, fp, lsl fp
    2d70:	19560100 	ldmdbne	r6, {r8}^
    2d74:	00000111 	andeq	r0, r0, r1, lsl r1
    2d78:	000094dc 	ldrdeq	r9, [r0], -ip
    2d7c:	00000010 	andeq	r0, r0, r0, lsl r0
    2d80:	025f1a02 	subseq	r1, pc, #8192	; 0x2000
    2d84:	281a0000 	ldmdacs	sl, {}	; <UNPREDICTABLE>
    2d88:	1e000001 	cdpne	0, 0, cr0, cr0, cr1, {0}
    2d8c:	1b00001a 	blne	2dfc <_start-0x5204>
    2d90:	0000011d 	andeq	r0, r0, sp, lsl r1
    2d94:	dc1d5401 	cfldrsle	mvf5, [sp], {1}
    2d98:	04000094 	streq	r0, [r0], #-148	; 0x94
    2d9c:	1e000000 	cdpne	0, 0, cr0, cr0, cr0, {0}
    2da0:	00000132 	andeq	r0, r0, r2, lsr r1
    2da4:	00001a31 	andeq	r1, r0, r1, lsr sl
    2da8:	dc1f0000 	ldcle	0, cr0, [pc], {-0}
    2dac:	fb000094 	blx	3006 <_start-0x4ffa>
    2db0:	20000010 	andcs	r0, r0, r0, lsl r0
    2db4:	30015101 	andcc	r5, r1, r1, lsl #2
    2db8:	02500120 	subseq	r0, r0, #32, 2
    2dbc:	00000076 	andeq	r0, r0, r6, ror r0
    2dc0:	00013f19 	andeq	r3, r1, r9, lsl pc
    2dc4:	0094f000 	addseq	pc, r4, r0
    2dc8:	00001c00 	andeq	r1, r0, r0, lsl #24
    2dcc:	f8130100 			; <UNDEFINED> instruction: 0xf8130100
    2dd0:	1a000002 	bne	2de0 <_start-0x5220>
    2dd4:	0000016a 	andeq	r0, r0, sl, ror #2
    2dd8:	00001a44 	andeq	r1, r0, r4, asr #20
    2ddc:	00015f1b 	andeq	r5, r1, fp, lsl pc
    2de0:	1a540100 	bne	15031e8 <__bss_end__+0x14f48a8>
    2de4:	00000156 	andeq	r0, r0, r6, asr r1
    2de8:	00001a66 	andeq	r1, r0, r6, ror #20
    2dec:	00014b1b 	andeq	r4, r1, fp, lsl fp
    2df0:	19560100 	ldmdbne	r6, {r8}^
    2df4:	00000111 	andeq	r0, r0, r1, lsl r1
    2df8:	000094fc 	strdeq	r9, [r0], -ip
    2dfc:	00000010 	andeq	r0, r0, r0, lsl r0
    2e00:	02df1a02 	sbcseq	r1, pc, #8192	; 0x2000
    2e04:	281a0000 	ldmdacs	sl, {}	; <UNPREDICTABLE>
    2e08:	97000001 	strls	r0, [r0, -r1]
    2e0c:	1b00001a 	blne	2e7c <_start-0x5184>
    2e10:	0000011d 	andeq	r0, r0, sp, lsl r1
    2e14:	fc1d5401 	ldc2	4, cr5, [sp], {1}
    2e18:	04000094 	streq	r0, [r0], #-148	; 0x94
    2e1c:	1e000000 	cdpne	0, 0, cr0, cr0, cr0, {0}
    2e20:	00000132 	andeq	r0, r0, r2, lsr r1
    2e24:	00001ab9 			; <UNDEFINED> instruction: 0x00001ab9
    2e28:	fc1f0000 	ldc2	0, cr0, [pc], {-0}
    2e2c:	fb000094 	blx	3086 <_start-0x4f7a>
    2e30:	20000010 	andcs	r0, r0, r0, lsl r0
    2e34:	77045101 	strvc	r5, [r4, -r1, lsl #2]
    2e38:	201a3100 	andscs	r3, sl, r0, lsl #2
    2e3c:	76025001 	strvc	r5, [r2], -r1
    2e40:	19000000 	stmdbne	r0, {}	; <UNPREDICTABLE>
    2e44:	0000013f 	andeq	r0, r0, pc, lsr r1
    2e48:	00009510 	andeq	r9, r0, r0, lsl r5
    2e4c:	0000001c 	andeq	r0, r0, ip, lsl r0
    2e50:	03801501 	orreq	r1, r0, #4194304	; 0x400000
    2e54:	6a1a0000 	bvs	682e5c <__bss_end__+0x67451c>
    2e58:	cc000001 	stcgt	0, cr0, [r0], {1}
    2e5c:	1b00001a 	blne	2ecc <_start-0x5134>
    2e60:	0000015f 	andeq	r0, r0, pc, asr r1
    2e64:	561b5401 	ldrpl	r5, [fp], -r1, lsl #8
    2e68:	08000001 	stmdaeq	r0, {r0}
    2e6c:	1a320077 	bne	c83050 <__bss_end__+0xc74710>
    2e70:	9f1aff08 	svcls	0x001aff08
    2e74:	00014b1b 	andeq	r4, r1, fp, lsl fp
    2e78:	19560100 	ldmdbne	r6, {r8}^
    2e7c:	00000111 	andeq	r0, r0, r1, lsl r1
    2e80:	0000951c 	andeq	r9, r0, ip, lsl r5
    2e84:	00000010 	andeq	r0, r0, r0, lsl r0
    2e88:	03671a02 	cmneq	r7, #8192	; 0x2000
    2e8c:	281a0000 	ldmdacs	sl, {}	; <UNPREDICTABLE>
    2e90:	f1000001 	cps	#1
    2e94:	1b00001a 	blne	2f04 <_start-0x50fc>
    2e98:	0000011d 	andeq	r0, r0, sp, lsl r1
    2e9c:	1c1d5401 	cfldrsne	mvf5, [sp], {1}
    2ea0:	04000095 	streq	r0, [r0], #-149	; 0x95
    2ea4:	1e000000 	cdpne	0, 0, cr0, cr0, cr0, {0}
    2ea8:	00000132 	andeq	r0, r0, r2, lsr r1
    2eac:	00001b16 	andeq	r1, r0, r6, lsl fp
    2eb0:	1c1f0000 	ldcne	0, cr0, [pc], {-0}
    2eb4:	fb000095 	blx	3112 <_start-0x4eee>
    2eb8:	20000010 	andcs	r0, r0, r0, lsl r0
    2ebc:	77045101 	strvc	r5, [r4, -r1, lsl #2]
    2ec0:	201a3200 	andscs	r3, sl, r0, lsl #4
    2ec4:	76025001 	strvc	r5, [r2], -r1
    2ec8:	19000000 	stmdbne	r0, {}	; <UNPREDICTABLE>
    2ecc:	0000013f 	andeq	r0, r0, pc, lsr r1
    2ed0:	00009530 	andeq	r9, r0, r0, lsr r5
    2ed4:	0000001c 	andeq	r0, r0, ip, lsl r0
    2ed8:	04081701 	streq	r1, [r8], #-1793	; 0x701
    2edc:	6a1a0000 	bvs	682ee4 <__bss_end__+0x6745a4>
    2ee0:	29000001 	stmdbcs	r0, {r0}
    2ee4:	1b00001b 	blne	2f58 <_start-0x50a8>
    2ee8:	0000015f 	andeq	r0, r0, pc, asr r1
    2eec:	561b5401 	ldrpl	r5, [fp], -r1, lsl #8
    2ef0:	08000001 	stmdaeq	r0, {r0}
    2ef4:	1a340077 	bne	d030d8 <__bss_end__+0xcf4798>
    2ef8:	9f1aff08 	svcls	0x001aff08
    2efc:	00014b1b 	andeq	r4, r1, fp, lsl fp
    2f00:	19560100 	ldmdbne	r6, {r8}^
    2f04:	00000111 	andeq	r0, r0, r1, lsl r1
    2f08:	0000953c 	andeq	r9, r0, ip, lsr r5
    2f0c:	00000010 	andeq	r0, r0, r0, lsl r0
    2f10:	03ef1a02 	mvneq	r1, #8192	; 0x2000
    2f14:	281a0000 	ldmdacs	sl, {}	; <UNPREDICTABLE>
    2f18:	4b000001 	blmi	2f24 <_start-0x50dc>
    2f1c:	1b00001b 	blne	2f90 <_start-0x5070>
    2f20:	0000011d 	andeq	r0, r0, sp, lsl r1
    2f24:	3c1d5401 	cfldrscc	mvf5, [sp], {1}
    2f28:	04000095 	streq	r0, [r0], #-149	; 0x95
    2f2c:	1e000000 	cdpne	0, 0, cr0, cr0, cr0, {0}
    2f30:	00000132 	andeq	r0, r0, r2, lsr r1
    2f34:	00001b6d 	andeq	r1, r0, sp, ror #22
    2f38:	3c1f0000 	ldccc	0, cr0, [pc], {-0}
    2f3c:	fb000095 	blx	319a <_start-0x4e66>
    2f40:	20000010 	andcs	r0, r0, r0, lsl r0
    2f44:	77045101 	strvc	r5, [r4, -r1, lsl #2]
    2f48:	201a3400 	andscs	r3, sl, r0, lsl #8
    2f4c:	76025001 	strvc	r5, [r2], -r1
    2f50:	19000000 	stmdbne	r0, {}	; <UNPREDICTABLE>
    2f54:	0000013f 	andeq	r0, r0, pc, lsr r1
    2f58:	00009550 	andeq	r9, r0, r0, asr r5
    2f5c:	0000001c 	andeq	r0, r0, ip, lsl r0
    2f60:	04901901 	ldreq	r1, [r0], #2305	; 0x901
    2f64:	6a1a0000 	bvs	682f6c <__bss_end__+0x67462c>
    2f68:	80000001 	andhi	r0, r0, r1
    2f6c:	1b00001b 	blne	2fe0 <_start-0x5020>
    2f70:	0000015f 	andeq	r0, r0, pc, asr r1
    2f74:	561b5401 	ldrpl	r5, [fp], -r1, lsl #8
    2f78:	08000001 	stmdaeq	r0, {r0}
    2f7c:	1a380077 	bne	e03160 <__bss_end__+0xdf4820>
    2f80:	9f1aff08 	svcls	0x001aff08
    2f84:	00014b1b 	andeq	r4, r1, fp, lsl fp
    2f88:	19560100 	ldmdbne	r6, {r8}^
    2f8c:	00000111 	andeq	r0, r0, r1, lsl r1
    2f90:	0000955c 	andeq	r9, r0, ip, asr r5
    2f94:	00000010 	andeq	r0, r0, r0, lsl r0
    2f98:	04771a02 	ldrbteq	r1, [r7], #-2562	; 0xa02
    2f9c:	281a0000 	ldmdacs	sl, {}	; <UNPREDICTABLE>
    2fa0:	a5000001 	strge	r0, [r0, #-1]
    2fa4:	1b00001b 	blne	3018 <_start-0x4fe8>
    2fa8:	0000011d 	andeq	r0, r0, sp, lsl r1
    2fac:	5c1d5401 	cfldrspl	mvf5, [sp], {1}
    2fb0:	04000095 	streq	r0, [r0], #-149	; 0x95
    2fb4:	1e000000 	cdpne	0, 0, cr0, cr0, cr0, {0}
    2fb8:	00000132 	andeq	r0, r0, r2, lsr r1
    2fbc:	00001bca 	andeq	r1, r0, sl, asr #23
    2fc0:	5c1f0000 	ldcpl	0, cr0, [pc], {-0}
    2fc4:	fb000095 	blx	3222 <_start-0x4dde>
    2fc8:	20000010 	andcs	r0, r0, r0, lsl r0
    2fcc:	77045101 	strvc	r5, [r4, -r1, lsl #2]
    2fd0:	201a3800 	andscs	r3, sl, r0, lsl #16
    2fd4:	76025001 	strvc	r5, [r2], -r1
    2fd8:	19000000 	stmdbne	r0, {}	; <UNPREDICTABLE>
    2fdc:	0000013f 	andeq	r0, r0, pc, lsr r1
    2fe0:	00009570 	andeq	r9, r0, r0, ror r5
    2fe4:	0000001c 	andeq	r0, r0, ip, lsl r0
    2fe8:	05181b01 	ldreq	r1, [r8, #-2817]	; 0xb01
    2fec:	6a1a0000 	bvs	682ff4 <__bss_end__+0x6746b4>
    2ff0:	dd000001 	stcle	0, cr0, [r0, #-4]
    2ff4:	1b00001b 	blne	3068 <_start-0x4f98>
    2ff8:	0000015f 	andeq	r0, r0, pc, asr r1
    2ffc:	561b5401 	ldrpl	r5, [fp], -r1, lsl #8
    3000:	08000001 	stmdaeq	r0, {r0}
    3004:	1a400077 	bne	10031e8 <__bss_end__+0xff48a8>
    3008:	9f1aff08 	svcls	0x001aff08
    300c:	00014b1b 	andeq	r4, r1, fp, lsl fp
    3010:	19560100 	ldmdbne	r6, {r8}^
    3014:	00000111 	andeq	r0, r0, r1, lsl r1
    3018:	0000957c 	andeq	r9, r0, ip, ror r5
    301c:	00000010 	andeq	r0, r0, r0, lsl r0
    3020:	04ff1a02 	ldrbteq	r1, [pc], #2562	; 3028 <_start-0x4fd8>
    3024:	281a0000 	ldmdacs	sl, {}	; <UNPREDICTABLE>
    3028:	04000001 	streq	r0, [r0], #-1
    302c:	1b00001c 	blne	30a4 <_start-0x4f5c>
    3030:	0000011d 	andeq	r0, r0, sp, lsl r1
    3034:	7c1d5401 	cfldrsvc	mvf5, [sp], {1}
    3038:	04000095 	streq	r0, [r0], #-149	; 0x95
    303c:	1e000000 	cdpne	0, 0, cr0, cr0, cr0, {0}
    3040:	00000132 	andeq	r0, r0, r2, lsr r1
    3044:	00001c2b 	andeq	r1, r0, fp, lsr #24
    3048:	7c1f0000 	ldcvc	0, cr0, [pc], {-0}
    304c:	fb000095 	blx	32aa <_start-0x4d56>
    3050:	20000010 	andcs	r0, r0, r0, lsl r0
    3054:	77045101 	strvc	r5, [r4, -r1, lsl #2]
    3058:	201a4000 	andscs	r4, sl, r0
    305c:	76025001 	strvc	r5, [r2], -r1
    3060:	19000000 	stmdbne	r0, {}	; <UNPREDICTABLE>
    3064:	0000013f 	andeq	r0, r0, pc, lsr r1
    3068:	00009590 	muleq	r0, r0, r5
    306c:	0000001c 	andeq	r0, r0, ip, lsl r0
    3070:	05a21d01 	streq	r1, [r2, #3329]!	; 0xd01
    3074:	6a1a0000 	bvs	68307c <__bss_end__+0x67473c>
    3078:	3e000001 	cdpcc	0, 0, cr0, cr0, cr1, {0}
    307c:	1b00001c 	blne	30f4 <_start-0x4f0c>
    3080:	0000015f 	andeq	r0, r0, pc, asr r1
    3084:	561b5401 	ldrpl	r5, [fp], -r1, lsl #8
    3088:	09000001 	stmdbeq	r0, {r0}
    308c:	20080077 	andcs	r0, r8, r7, ror r0
    3090:	1aff081a 	bne	fffc5100 <__bss_end__+0xfffb67c0>
    3094:	014b1b9f 			; <UNDEFINED> instruction: 0x014b1b9f
    3098:	56010000 	strpl	r0, [r1], -r0
    309c:	00011119 	andeq	r1, r1, r9, lsl r1
    30a0:	00959c00 	addseq	r9, r5, r0, lsl #24
    30a4:	00001000 	andeq	r1, r0, r0
    30a8:	881a0200 	ldmdahi	sl, {r9}
    30ac:	1a000005 	bne	30c8 <_start-0x4f38>
    30b0:	00000128 	andeq	r0, r0, r8, lsr #2
    30b4:	00001c68 	andeq	r1, r0, r8, ror #24
    30b8:	00011d1b 	andeq	r1, r1, fp, lsl sp
    30bc:	1d540100 	ldfnee	f0, [r4, #-0]
    30c0:	0000959c 	muleq	r0, ip, r5
    30c4:	00000004 	andeq	r0, r0, r4
    30c8:	0001321e 	andeq	r3, r1, lr, lsl r2
    30cc:	001c9200 	andseq	r9, ip, r0, lsl #4
    30d0:	1f000000 	svcne	0x00000000
    30d4:	0000959c 	muleq	r0, ip, r5
    30d8:	000010fb 	strdeq	r1, [r0], -fp
    30dc:	05510120 	ldrbeq	r0, [r1, #-288]	; 0x120
    30e0:	20080077 	andcs	r0, r8, r7, ror r0
    30e4:	5001201a 	andpl	r2, r1, sl, lsl r0
    30e8:	00007602 	andeq	r7, r0, r2, lsl #12
    30ec:	013f1900 	teqeq	pc, r0, lsl #18
    30f0:	95b00000 	ldrls	r0, [r0, #0]!
    30f4:	001c0000 	andseq	r0, ip, r0
    30f8:	1f010000 	svcne	0x00010000
    30fc:	0000062c 	andeq	r0, r0, ip, lsr #12
    3100:	00016a1a 	andeq	r6, r1, sl, lsl sl
    3104:	001ca500 	andseq	sl, ip, r0, lsl #10
    3108:	015f1b00 	cmpeq	pc, r0, lsl #22
    310c:	54010000 	strpl	r0, [r1], #-0
    3110:	0001561b 	andeq	r5, r1, fp, lsl r6
    3114:	00770900 	rsbseq	r0, r7, r0, lsl #18
    3118:	081a4008 	ldmdaeq	sl, {r3, lr}
    311c:	1b9f1aff 	blne	fe7c9d20 <__bss_end__+0xfe7bb3e0>
    3120:	0000014b 	andeq	r0, r0, fp, asr #2
    3124:	11195601 	tstne	r9, r1, lsl #12
    3128:	bc000001 	stclt	0, cr0, [r0], {1}
    312c:	10000095 	mulne	r0, r5, r0
    3130:	02000000 	andeq	r0, r0, #0
    3134:	0006121a 	andeq	r1, r6, sl, lsl r2
    3138:	01281a00 	teqeq	r8, r0, lsl #20
    313c:	1cc70000 	stclne	0, cr0, [r7], {0}
    3140:	1d1b0000 	ldcne	0, cr0, [fp, #-0]
    3144:	01000001 	tsteq	r0, r1
    3148:	95bc1d54 	ldrls	r1, [ip, #3412]!	; 0xd54
    314c:	00040000 	andeq	r0, r4, r0
    3150:	321e0000 	andscc	r0, lr, #0
    3154:	e9000001 	stmdb	r0, {r0}
    3158:	0000001c 	andeq	r0, r0, ip, lsl r0
    315c:	95bc1f00 	ldrls	r1, [ip, #3840]!	; 0xf00
    3160:	10fb0000 	rscsne	r0, fp, r0
    3164:	01200000 	teqeq	r0, r0
    3168:	00770551 	rsbseq	r0, r7, r1, asr r5
    316c:	201a4008 	andscs	r4, sl, r8
    3170:	76025001 	strvc	r5, [r2], -r1
    3174:	19000000 	stmdbne	r0, {}	; <UNPREDICTABLE>
    3178:	0000013f 	andeq	r0, r0, pc, lsr r1
    317c:	000095d0 	ldrdeq	r9, [r0], -r0
    3180:	0000001c 	andeq	r0, r0, ip, lsl r0
    3184:	06ac2101 	strteq	r2, [ip], r1, lsl #2
    3188:	6a1b0000 	bvs	6c3190 <__bss_end__+0x6b4850>
    318c:	01000001 	tsteq	r0, r1
    3190:	015f1b58 	cmpeq	pc, r8, asr fp	; <UNPREDICTABLE>
    3194:	54010000 	strpl	r0, [r1], #-0
    3198:	0001561a 	andeq	r5, r1, sl, lsl r6
    319c:	001cfc00 	andseq	pc, ip, r0, lsl #24
    31a0:	014b1b00 	cmpeq	fp, r0, lsl #22
    31a4:	56010000 	strpl	r0, [r1], -r0
    31a8:	00011119 	andeq	r1, r1, r9, lsl r1
    31ac:	0095dc00 	addseq	sp, r5, r0, lsl #24
    31b0:	00001000 	andeq	r1, r0, r0
    31b4:	921a0200 	andsls	r0, sl, #0, 4
    31b8:	1b000006 	blne	31d8 <_start-0x4e28>
    31bc:	00000128 	andeq	r0, r0, r8, lsr #2
    31c0:	1d1b5801 	ldcne	8, cr5, [fp, #-4]
    31c4:	01000001 	tsteq	r0, r1
    31c8:	95dc1d54 	ldrbls	r1, [ip, #3412]	; 0xd54
    31cc:	00040000 	andeq	r0, r4, r0
    31d0:	321e0000 	andscc	r0, lr, #0
    31d4:	2f000001 	svccs	0x00000001
    31d8:	0000001d 	andeq	r0, r0, sp, lsl r0
    31dc:	95dc1f00 	ldrbls	r1, [ip, #3840]	; 0xf00
    31e0:	10fb0000 	rscsne	r0, fp, r0
    31e4:	01200000 	teqeq	r0, r0
    31e8:	00770551 	rsbseq	r0, r7, r1, asr r5
    31ec:	201a8008 	andscs	r8, sl, r8
    31f0:	76025001 	strvc	r5, [r2], -r1
    31f4:	21000000 	mrscs	r0, (UNDEF: 0)
    31f8:	0000013f 	andeq	r0, r0, pc, lsr r1
    31fc:	000095f0 	strdeq	r9, [r0], -r0
    3200:	0000001c 	andeq	r0, r0, ip, lsl r0
    3204:	6a1b2301 	bvs	6cbe10 <__bss_end__+0x6bd4d0>
    3208:	01000001 	tsteq	r0, r1
    320c:	015f1b55 	cmpeq	pc, r5, asr fp	; <UNPREDICTABLE>
    3210:	54010000 	strpl	r0, [r1], #-0
    3214:	0001561c 	andeq	r5, r1, ip, lsl r6
    3218:	4b1b0100 	blmi	6c3620 <__bss_end__+0x6b4ce0>
    321c:	01000001 	tsteq	r0, r1
    3220:	01111956 	tsteq	r1, r6, asr r9
    3224:	95fc0000 	ldrbls	r0, [ip, #0]!
    3228:	00100000 	andseq	r0, r0, r0
    322c:	1a020000 	bne	83234 <__bss_end__+0x748f4>
    3230:	0000070b 	andeq	r0, r0, fp, lsl #14
    3234:	0001281b 	andeq	r2, r1, fp, lsl r8
    3238:	1b550100 	blne	1543640 <__bss_end__+0x1534d00>
    323c:	0000011d 	andeq	r0, r0, sp, lsl r1
    3240:	fc1d5401 	ldc2	4, cr5, [sp], {1}
    3244:	04000095 	streq	r0, [r0], #-149	; 0x95
    3248:	1e000000 	cdpne	0, 0, cr0, cr0, cr0, {0}
    324c:	00000132 	andeq	r0, r0, r2, lsr r1
    3250:	00001d42 	andeq	r1, r0, r2, asr #26
    3254:	fc1f0000 	ldc2	0, cr0, [pc], {-0}
    3258:	fb000095 	blx	34b6 <_start-0x4b4a>
    325c:	20000010 	andcs	r0, r0, r0, lsl r0
    3260:	31015101 	tstcc	r1, r1, lsl #2
    3264:	02500120 	subseq	r0, r0, #32, 2
    3268:	00000076 	andeq	r0, r0, r6, ror r0
    326c:	d9040600 	stmdble	r4, {r9, sl}
    3270:	22000000 	andcs	r0, r0, #0
    3274:	00000b26 	andeq	r0, r0, r6, lsr #22
    3278:	00252701 	eoreq	r2, r5, r1, lsl #14
    327c:	62030000 	andvs	r0, r3, #0
    3280:	0f000007 	svceq	0x00000007
    3284:	01007872 	tsteq	r0, r2, ror r8
    3288:	00002527 	andeq	r2, r0, r7, lsr #10
    328c:	00760f00 	rsbseq	r0, r6, r0, lsl #30
    3290:	00252701 	eoreq	r2, r5, r1, lsl #14
    3294:	ae0e0000 	cdpge	0, 0, cr0, cr14, cr0, {0}
    3298:	0100000a 	tsteq	r0, sl
    329c:	00002c27 	andeq	r2, r0, r7, lsr #24
    32a0:	07601100 	strbeq	r1, [r0, -r0, lsl #2]!
    32a4:	28010000 	stmdacs	r1, {}	; <UNPREDICTABLE>
    32a8:	0000002c 	andeq	r0, r0, ip, lsr #32
    32ac:	0a632300 	beq	18cbeb4 <__bss_end__+0x18bd574>
    32b0:	34010000 	strcc	r0, [r1], #-0
    32b4:	00000025 	andeq	r0, r0, r5, lsr #32
    32b8:	00009610 	andeq	r9, r0, r0, lsl r6
    32bc:	000001c8 	andeq	r0, r0, r8, asr #3
    32c0:	0b1e9c01 	bleq	7aa2cc <__bss_end__+0x79b98c>
    32c4:	22130000 	andscs	r0, r3, #0
    32c8:	01000007 	tsteq	r0, r7
    32cc:	00072234 	andeq	r2, r7, r4, lsr r2
    32d0:	001d5500 	andseq	r5, sp, r0, lsl #10
    32d4:	0aae1300 	beq	feb87edc <__bss_end__+0xfeb7959c>
    32d8:	34010000 	strcc	r0, [r1], #-0
    32dc:	00000025 	andeq	r0, r0, r5, lsr #32
    32e0:	00001d9a 	muleq	r0, sl, sp
    32e4:	00787215 	rsbseq	r7, r8, r5, lsl r2
    32e8:	00253501 	eoreq	r3, r5, r1, lsl #10
    32ec:	55010000 	strpl	r0, [r1, #-0]
    32f0:	01007316 	tsteq	r0, r6, lsl r3
    32f4:	00002c3c 	andeq	r2, r0, ip, lsr ip
    32f8:	001db800 	andseq	fp, sp, r0, lsl #16
    32fc:	00751600 	rsbseq	r1, r5, r0, lsl #12
    3300:	00683f01 	rsbeq	r3, r8, r1, lsl #30
    3304:	1dcb0000 	stclne	0, cr0, [fp]
    3308:	6e160000 	cdpvs	0, 1, cr0, cr6, cr0, {0}
    330c:	2c400100 	stfcse	f0, [r0], {-0}
    3310:	de000000 	cdple	0, 0, cr0, cr0, cr0, {0}
    3314:	1600001d 			; <UNDEFINED> instruction: 0x1600001d
    3318:	41010063 	tstmi	r1, r3, rrx
    331c:	0000002c 	andeq	r0, r0, ip, lsr #32
    3320:	00001df5 	strdeq	r1, [r0], -r5
    3324:	00072819 	andeq	r2, r7, r9, lsl r8
    3328:	00962400 	addseq	r2, r6, r0, lsl #8
    332c:	00003400 	andeq	r3, r0, r0, lsl #8
    3330:	3c380100 	ldfccs	f0, [r8], #-0
    3334:	1a000008 	bne	335c <_start-0x4ca4>
    3338:	0000074b 	andeq	r0, r0, fp, asr #14
    333c:	00001e1f 	andeq	r1, r0, pc, lsl lr
    3340:	0007421c 	andeq	r4, r7, ip, lsl r2
    3344:	381b0000 	ldmdacc	fp, {}	; <UNPREDICTABLE>
    3348:	01000007 	tsteq	r0, r7
    334c:	96241d55 			; <UNDEFINED> instruction: 0x96241d55
    3350:	00340000 	eorseq	r0, r4, r0
    3354:	561e0000 	ldrpl	r0, [lr], -r0
    3358:	3d000007 	stccc	0, cr0, [r0, #-28]	; 0xffffffe4
    335c:	2400001e 	strcs	r0, [r0], #-30
    3360:	00009628 	andeq	r9, r0, r8, lsr #12
    3364:	00001111 	andeq	r1, r0, r1, lsl r1
    3368:	00963425 	addseq	r3, r6, r5, lsr #8
    336c:	00111c00 	andseq	r1, r1, r0, lsl #24
    3370:	00083100 	andeq	r3, r8, r0, lsl #2
    3374:	50012000 	andpl	r2, r1, r0
    3378:	00007502 	andeq	r7, r0, r2, lsl #10
    337c:	00964024 	addseq	r4, r6, r4, lsr #32
    3380:	00111100 	andseq	r1, r1, r0, lsl #2
    3384:	17000000 	strne	r0, [r0, -r0]
    3388:	00009660 	andeq	r9, r0, r0, ror #12
    338c:	00000004 	andeq	r0, r0, r4
    3390:	00000859 	andeq	r0, r0, r9, asr r8
    3394:	000af626 	andeq	pc, sl, r6, lsr #12
    3398:	2c3c0100 	ldfcss	f0, [ip], #-0
    339c:	5b000000 	blpl	33a4 <_start-0x4c5c>
    33a0:	0000001e 	andeq	r0, r0, lr, lsl r0
    33a4:	00011119 	andeq	r1, r1, r9, lsl r1
    33a8:	00966c00 	addseq	r6, r6, r0, lsl #24
    33ac:	00001000 	andeq	r1, r0, r0
    33b0:	92440100 	subls	r0, r4, #0, 2
    33b4:	1a000008 	bne	33dc <_start-0x4c24>
    33b8:	00000128 	andeq	r0, r0, r8, lsr #2
    33bc:	00001e6e 	andeq	r1, r0, lr, ror #28
    33c0:	00011d1a 	andeq	r1, r1, sl, lsl sp
    33c4:	001e9300 	andseq	r9, lr, r0, lsl #6
    33c8:	966c1d00 	strbtls	r1, [ip], -r0, lsl #26
    33cc:	00040000 	andeq	r0, r4, r0
    33d0:	321e0000 	andscc	r0, lr, #0
    33d4:	a6000001 	strge	r0, [r0], -r1
    33d8:	0000001e 	andeq	r0, r0, lr, lsl r0
    33dc:	01111900 	tsteq	r1, r0, lsl #18
    33e0:	968c0000 	strls	r0, [ip], r0
    33e4:	00100000 	andseq	r0, r0, r0
    33e8:	48010000 	stmdami	r1, {}	; <UNPREDICTABLE>
    33ec:	000008cb 	andeq	r0, r0, fp, asr #17
    33f0:	0001281a 	andeq	r2, r1, sl, lsl r8
    33f4:	001eb900 	andseq	fp, lr, r0, lsl #18
    33f8:	011d1a00 	tsteq	sp, r0, lsl #20
    33fc:	1ecc0000 	cdpne	0, 12, cr0, cr12, cr0, {0}
    3400:	8c1d0000 	ldchi	0, cr0, [sp], {-0}
    3404:	04000096 	streq	r0, [r0], #-150	; 0x96
    3408:	1e000000 	cdpne	0, 0, cr0, cr0, cr0, {0}
    340c:	00000132 	andeq	r0, r0, r2, lsr r1
    3410:	00001edf 	ldrdeq	r1, [r0], -pc	; <UNPREDICTABLE>
    3414:	11190000 	tstne	r9, r0
    3418:	b0000001 	andlt	r0, r0, r1
    341c:	10000096 	mulne	r0, r6, r0
    3420:	01000000 	mrseq	r0, (UNDEF: 0)
    3424:	0009044b 	andeq	r0, r9, fp, asr #8
    3428:	01281a00 	teqeq	r8, r0, lsl #20
    342c:	1ef20000 	cdpne	0, 15, cr0, cr2, cr0, {0}
    3430:	1d1a0000 	ldcne	0, cr0, [sl, #-0]
    3434:	05000001 	streq	r0, [r0, #-1]
    3438:	1d00001f 	stcne	0, cr0, [r0, #-124]	; 0xffffff84
    343c:	000096b0 			; <UNDEFINED> instruction: 0x000096b0
    3440:	00000004 	andeq	r0, r0, r4
    3444:	0001321e 	andeq	r3, r1, lr, lsl r2
    3448:	001f1800 	andseq	r1, pc, r0, lsl #16
    344c:	19000000 	stmdbne	r0, {}	; <UNPREDICTABLE>
    3450:	00000111 	andeq	r0, r0, r1, lsl r1
    3454:	000096d4 	ldrdeq	r9, [r0], -r4
    3458:	00000010 	andeq	r0, r0, r0, lsl r0
    345c:	093d4e01 	ldmdbeq	sp!, {r0, r9, sl, fp, lr}
    3460:	281a0000 	ldmdacs	sl, {}	; <UNPREDICTABLE>
    3464:	2b000001 	blcs	3470 <_start-0x4b90>
    3468:	1a00001f 	bne	34ec <_start-0x4b14>
    346c:	0000011d 	andeq	r0, r0, sp, lsl r1
    3470:	00001f3e 	andeq	r1, r0, lr, lsr pc
    3474:	0096d41d 	addseq	sp, r6, sp, lsl r4
    3478:	00000400 	andeq	r0, r0, r0, lsl #8
    347c:	01321e00 	teqeq	r2, r0, lsl #28
    3480:	1f510000 	svcne	0x00510000
    3484:	00000000 	andeq	r0, r0, r0
    3488:	00011119 	andeq	r1, r1, r9, lsl r1
    348c:	0096f800 	addseq	pc, r6, r0, lsl #16
    3490:	00001000 	andeq	r1, r0, r0
    3494:	76510100 	ldrbvc	r0, [r1], -r0, lsl #2
    3498:	1a000009 	bne	34c4 <_start-0x4b3c>
    349c:	00000128 	andeq	r0, r0, r8, lsr #2
    34a0:	00001f64 	andeq	r1, r0, r4, ror #30
    34a4:	00011d1a 	andeq	r1, r1, sl, lsl sp
    34a8:	001f7700 	andseq	r7, pc, r0, lsl #14
    34ac:	96f81d00 	ldrbtls	r1, [r8], r0, lsl #26
    34b0:	00040000 	andeq	r0, r4, r0
    34b4:	321e0000 	andscc	r0, lr, #0
    34b8:	8a000001 	bhi	34c4 <_start-0x4b3c>
    34bc:	0000001f 	andeq	r0, r0, pc, lsl r0
    34c0:	01111900 	tsteq	r1, r0, lsl #18
    34c4:	971c0000 	ldrls	r0, [ip, -r0]
    34c8:	00100000 	andseq	r0, r0, r0
    34cc:	54010000 	strpl	r0, [r1], #-0
    34d0:	000009af 	andeq	r0, r0, pc, lsr #19
    34d4:	0001281a 	andeq	r2, r1, sl, lsl r8
    34d8:	001f9d00 	andseq	r9, pc, r0, lsl #26
    34dc:	011d1a00 	tsteq	sp, r0, lsl #20
    34e0:	1fb00000 	svcne	0x00b00000
    34e4:	1c1d0000 	ldcne	0, cr0, [sp], {-0}
    34e8:	04000097 	streq	r0, [r0], #-151	; 0x97
    34ec:	1e000000 	cdpne	0, 0, cr0, cr0, cr0, {0}
    34f0:	00000132 	andeq	r0, r0, r2, lsr r1
    34f4:	00001fc3 	andeq	r1, r0, r3, asr #31
    34f8:	11190000 	tstne	r9, r0
    34fc:	40000001 	andmi	r0, r0, r1
    3500:	10000097 	mulne	r0, r7, r0
    3504:	01000000 	mrseq	r0, (UNDEF: 0)
    3508:	0009e857 	andeq	lr, r9, r7, asr r8
    350c:	01281a00 	teqeq	r8, r0, lsl #20
    3510:	1fd60000 	svcne	0x00d60000
    3514:	1d1a0000 	ldcne	0, cr0, [sl, #-0]
    3518:	e9000001 	stmdb	r0, {r0}
    351c:	1d00001f 	stcne	0, cr0, [r0, #-124]	; 0xffffff84
    3520:	00009740 	andeq	r9, r0, r0, asr #14
    3524:	00000004 	andeq	r0, r0, r4
    3528:	0001321e 	andeq	r3, r1, lr, lsl r2
    352c:	001ffc00 	andseq	pc, pc, r0, lsl #24
    3530:	19000000 	stmdbne	r0, {}	; <UNPREDICTABLE>
    3534:	00000111 	andeq	r0, r0, r1, lsl r1
    3538:	00009764 	andeq	r9, r0, r4, ror #14
    353c:	00000010 	andeq	r0, r0, r0, lsl r0
    3540:	0a1d5a01 	beq	759d4c <__bss_end__+0x74b40c>
    3544:	281a0000 	ldmdacs	sl, {}	; <UNPREDICTABLE>
    3548:	0f000001 	svceq	0x00000001
    354c:	27000020 	strcs	r0, [r0, -r0, lsr #32]
    3550:	0000011d 	andeq	r0, r0, sp, lsl r1
    3554:	0097641d 	addseq	r6, r7, sp, lsl r4
    3558:	00000400 	andeq	r0, r0, r0, lsl #8
    355c:	01321e00 	teqeq	r2, r0, lsl #28
    3560:	20220000 	eorcs	r0, r2, r0
    3564:	00000000 	andeq	r0, r0, r0
    3568:	00072819 	andeq	r2, r7, r9, lsl r8
    356c:	00978400 	addseq	r8, r7, r0, lsl #8
    3570:	00003400 	andeq	r3, r0, r0, lsl #8
    3574:	81610100 	cmnhi	r1, r0, lsl #2
    3578:	2700000a 	strcs	r0, [r0, -sl]
    357c:	0000074b 	andeq	r0, r0, fp, asr #14
    3580:	0007421a 	andeq	r4, r7, sl, lsl r2
    3584:	00203500 	eoreq	r3, r0, r0, lsl #10
    3588:	07381a00 	ldreq	r1, [r8, -r0, lsl #20]!
    358c:	20550000 	subscs	r0, r5, r0
    3590:	841d0000 	ldrhi	r0, [sp], #-0
    3594:	34000097 	strcc	r0, [r0], #-151	; 0x97
    3598:	1e000000 	cdpne	0, 0, cr0, cr0, cr0, {0}
    359c:	00000756 	andeq	r0, r0, r6, asr r7
    35a0:	00002073 	andeq	r2, r0, r3, ror r0
    35a4:	00978824 	addseq	r8, r7, r4, lsr #16
    35a8:	00111100 	andseq	r1, r1, r0, lsl #2
    35ac:	97942500 	ldrls	r2, [r4, r0, lsl #10]
    35b0:	111c0000 	tstne	ip, r0
    35b4:	0a760000 	beq	1d835bc <__bss_end__+0x1d74c7c>
    35b8:	01200000 	teqeq	r0, r0
    35bc:	00750250 	rsbseq	r0, r5, r0, asr r2
    35c0:	97a02400 	strls	r2, [r0, r0, lsl #8]!
    35c4:	11110000 	tstne	r1, r0
    35c8:	00000000 	andeq	r0, r0, r0
    35cc:	00968825 	addseq	r8, r6, r5, lsr #16
    35d0:	00111c00 	andseq	r1, r1, r0, lsl #24
    35d4:	000a9500 	andeq	r9, sl, r0, lsl #10
    35d8:	50012000 	andpl	r2, r1, r0
    35dc:	00007502 	andeq	r7, r0, r2, lsl #10
    35e0:	0096a825 	addseq	sl, r6, r5, lsr #16
    35e4:	00111c00 	andseq	r1, r1, r0, lsl #24
    35e8:	000aa900 	andeq	sl, sl, r0, lsl #18
    35ec:	50012000 	andpl	r2, r1, r0
    35f0:	00007502 	andeq	r7, r0, r2, lsl #10
    35f4:	0096cc25 	addseq	ip, r6, r5, lsr #24
    35f8:	00111c00 	andseq	r1, r1, r0, lsl #24
    35fc:	000abd00 	andeq	fp, sl, r0, lsl #26
    3600:	50012000 	andpl	r2, r1, r0
    3604:	00007502 	andeq	r7, r0, r2, lsl #10
    3608:	0096f025 	addseq	pc, r6, r5, lsr #32
    360c:	00111c00 	andseq	r1, r1, r0, lsl #24
    3610:	000ad100 	andeq	sp, sl, r0, lsl #2
    3614:	50012000 	andpl	r2, r1, r0
    3618:	00007502 	andeq	r7, r0, r2, lsl #10
    361c:	00971425 	addseq	r1, r7, r5, lsr #8
    3620:	00111c00 	andseq	r1, r1, r0, lsl #24
    3624:	000ae500 	andeq	lr, sl, r0, lsl #10
    3628:	50012000 	andpl	r2, r1, r0
    362c:	00007502 	andeq	r7, r0, r2, lsl #10
    3630:	00973825 	addseq	r3, r7, r5, lsr #16
    3634:	00111c00 	andseq	r1, r1, r0, lsl #24
    3638:	000af900 	andeq	pc, sl, r0, lsl #18
    363c:	50012000 	andpl	r2, r1, r0
    3640:	00007502 	andeq	r7, r0, r2, lsl #10
    3644:	00975c25 	addseq	r5, r7, r5, lsr #24
    3648:	00111c00 	andseq	r1, r1, r0, lsl #24
    364c:	000b0d00 	andeq	r0, fp, r0, lsl #26
    3650:	50012000 	andpl	r2, r1, r0
    3654:	00007502 	andeq	r7, r0, r2, lsl #10
    3658:	00977c1f 	addseq	r7, r7, pc, lsl ip
    365c:	00111c00 	andseq	r1, r1, r0, lsl #24
    3660:	50012000 	andpl	r2, r1, r0
    3664:	00007502 	andeq	r7, r0, r2, lsl #10
    3668:	0a782300 	beq	1e0c270 <__bss_end__+0x1dfd930>
    366c:	6c010000 	stcvs	0, cr0, [r1], {-0}
    3670:	00000025 	andeq	r0, r0, r5, lsr #32
    3674:	000097d8 	ldrdeq	r9, [r0], -r8
    3678:	0000008c 	andeq	r0, r0, ip, lsl #1
    367c:	0bf99c01 	bleq	ffe6a688 <__bss_end__+0xffe5bd48>
    3680:	75140000 	ldrvc	r0, [r4, #-0]
    3684:	226c0100 	rsbcs	r0, ip, #0, 2
    3688:	91000007 	tstls	r0, r7
    368c:	14000020 	strne	r0, [r0], #-32
    3690:	00667562 	rsbeq	r7, r6, r2, ror #10
    3694:	0bf96c01 	bleq	ffe5e6a0 <__bss_end__+0xffe4fd60>
    3698:	20c50000 	sbccs	r0, r5, r0
    369c:	fb130000 	blx	4c36a6 <__bss_end__+0x4b4d66>
    36a0:	0100000a 	tsteq	r0, sl
    36a4:	0000686c 	andeq	r6, r0, ip, ror #16
    36a8:	0020f900 	eoreq	pc, r0, r0, lsl #18
    36ac:	6e651400 	cdpvs	4, 6, cr1, cr5, cr0, {0}
    36b0:	6c010064 	stcvs	0, cr0, [r1], {100}	; 0x64
    36b4:	0000004f 	andeq	r0, r0, pc, asr #32
    36b8:	00002132 	andeq	r2, r0, r2, lsr r1
    36bc:	000b0228 	andeq	r0, fp, r8, lsr #4
    36c0:	686c0100 	stmdavs	ip!, {r8}^
    36c4:	02000000 	andeq	r0, r0, #0
    36c8:	93290091 	teqls	r9, #145	; 0x91
    36cc:	0f000001 	svceq	0x00000001
    36d0:	0500000c 	streq	r0, [r0, #-12]
    36d4:	00a25403 	adceq	r5, r2, r3, lsl #8
    36d8:	00691600 	rsbeq	r1, r9, r0, lsl #12
    36dc:	00257001 	eoreq	r7, r5, r1
    36e0:	216c0000 	cmncs	ip, r0
    36e4:	d9260000 	stmdble	r6!, {}	; <UNPREDICTABLE>
    36e8:	0100000a 	tsteq	r0, sl
    36ec:	00004f71 	andeq	r4, r0, r1, ror pc
    36f0:	00218b00 	eoreq	r8, r1, r0, lsl #22
    36f4:	98082500 	stmdals	r8, {r8, sl, sp}
    36f8:	11310000 	teqne	r1, r0
    36fc:	0bd90000 	bleq	ff643704 <__bss_end__+0xff634dc4>
    3700:	01200000 	teqeq	r0, r0
    3704:	6d080253 	sfmvs	f0, 4, [r8, #-332]	; 0xfffffeb4
    3708:	05520120 	ldrbeq	r0, [r2, #-288]	; 0x120
    370c:	00a25403 	adceq	r5, r2, r3, lsl #8
    3710:	51012000 	mrspl	r2, (UNDEF: 1)
    3714:	a2e80305 	rscge	r0, r8, #335544320	; 0x14000000
    3718:	01200000 	teqeq	r0, r0
    371c:	cc030550 	cfstr32gt	mvfx0, [r3], {80}	; 0x50
    3720:	000000a2 	andeq	r0, r0, r2, lsr #1
    3724:	00980c24 	addseq	r0, r8, r4, lsr #24
    3728:	00114700 	andseq	r4, r1, r0, lsl #14
    372c:	98281f00 	stmdals	r8!, {r8, r9, sl, fp, ip}
    3730:	07620000 	strbeq	r0, [r2, -r0]!
    3734:	01200000 	teqeq	r0, r0
    3738:	007a0251 	rsbseq	r0, sl, r1, asr r2
    373c:	02500120 	subseq	r0, r0, #32, 2
    3740:	00000078 	andeq	r0, r0, r8, ror r0
    3744:	004f0406 	subeq	r0, pc, r6, lsl #8
    3748:	902a0000 	eorls	r0, sl, r0
    374c:	0f000000 	svceq	0x00000000
    3750:	2b00000c 	blcs	3788 <_start-0x4878>
    3754:	00000081 	andeq	r0, r0, r1, lsl #1
    3758:	ff070012 			; <UNDEFINED> instruction: 0xff070012
    375c:	2300000b 	movwcs	r0, #11
    3760:	00000ae1 	andeq	r0, r0, r1, ror #21
    3764:	00258001 	eoreq	r8, r5, r1
    3768:	98640000 	stmdals	r4!, {}^	; <UNPREDICTABLE>
    376c:	00780000 	rsbseq	r0, r8, r0
    3770:	9c010000 	stcls	0, cr0, [r1], {-0}
    3774:	00000cd2 	ldrdeq	r0, [r0], -r2
    3778:	01007514 	tsteq	r0, r4, lsl r5
    377c:	00072280 	andeq	r2, r7, r0, lsl #5
    3780:	00219e00 	eoreq	r9, r1, r0, lsl #28
    3784:	75621400 	strbvc	r1, [r2, #-1024]!	; 0x400
    3788:	80010066 	andhi	r0, r1, r6, rrx
    378c:	00000bf9 	strdeq	r0, [r0], -r9
    3790:	000021d2 	ldrdeq	r2, [r0], -r2	; <UNPREDICTABLE>
    3794:	000afb13 	andeq	pc, sl, r3, lsl fp	; <UNPREDICTABLE>
    3798:	68810100 	stmvs	r1, {r8}
    379c:	06000000 	streq	r0, [r0], -r0
    37a0:	13000022 	movwne	r0, #34	; 0x22
    37a4:	00000b02 	andeq	r0, r0, r2, lsl #22
    37a8:	00688101 	rsbeq	r8, r8, r1, lsl #2
    37ac:	223f0000 	eorscs	r0, pc, #0
    37b0:	93290000 	teqls	r9, #0
    37b4:	e2000001 	and	r0, r0, #1
    37b8:	0500000c 	streq	r0, [r0, #-12]
    37bc:	00a26803 	adceq	r6, r2, r3, lsl #16
    37c0:	00691600 	rsbeq	r1, r9, r0, lsl #12
    37c4:	00258601 	eoreq	r8, r5, r1, lsl #12
    37c8:	22730000 	rsbscs	r0, r3, #0
    37cc:	90250000 	eorls	r0, r5, r0
    37d0:	31000098 	swpcc	r0, r8, [r0]	; <UNPREDICTABLE>
    37d4:	b2000011 	andlt	r0, r0, #17
    37d8:	2000000c 	andcs	r0, r0, ip
    37dc:	08025301 	stmdaeq	r2, {r0, r8, r9, ip, lr}
    37e0:	52012083 	andpl	r2, r1, #131	; 0x83
    37e4:	a2680305 	rsbge	r0, r8, #335544320	; 0x14000000
    37e8:	01200000 	teqeq	r0, r0
    37ec:	e8030551 	stmda	r3, {r0, r4, r6, r8, sl}
    37f0:	200000a2 	andcs	r0, r0, r2, lsr #1
    37f4:	03055001 	movweq	r5, #20481	; 0x5001
    37f8:	0000a2cc 	andeq	sl, r0, ip, asr #5
    37fc:	98942400 	ldmls	r4, {sl, sp}
    3800:	11470000 	mrsne	r0, (UNDEF: 71)
    3804:	b01f0000 	andslt	r0, pc, r0
    3808:	62000098 	andvs	r0, r0, #152	; 0x98
    380c:	20000007 	andcs	r0, r0, r7
    3810:	78025101 	stmdavc	r2, {r0, r8, ip, lr}
    3814:	50012000 	andpl	r2, r1, r0
    3818:	00007702 	andeq	r7, r0, r2, lsl #14
    381c:	00902a00 	addseq	r2, r0, r0, lsl #20
    3820:	0ce20000 	stcleq	0, cr0, [r2]
    3824:	812b0000 	teqhi	fp, r0
    3828:	14000000 	strne	r0, [r0], #-0
    382c:	0cd20700 	ldcleq	7, cr0, [r2], {0}
    3830:	ac230000 	stcge	0, cr0, [r3], #-0
    3834:	01000000 	mrseq	r0, (UNDEF: 0)
    3838:	0000d993 	muleq	r0, r3, r9
    383c:	0098dc00 	addseq	sp, r8, r0, lsl #24
    3840:	0000bc00 	andeq	fp, r0, r0, lsl #24
    3844:	f99c0100 			; <UNDEFINED> instruction: 0xf99c0100
    3848:	1400000d 	strne	r0, [r0], #-13
    384c:	01007874 	tsteq	r0, r4, ror r8
    3850:	00004f93 	muleq	r0, r3, pc	; <UNPREDICTABLE>
    3854:	00229200 	eoreq	r9, r2, r0, lsl #4
    3858:	78721400 	ldmdavc	r2!, {sl, ip}^
    385c:	4f930100 	svcmi	0x00930100
    3860:	b3000000 	movwlt	r0, #0
    3864:	13000022 	movwne	r0, #34	; 0x22
    3868:	0000039d 	muleq	r0, sp, r3
    386c:	00689301 	rsbeq	r9, r8, r1, lsl #6
    3870:	22d40000 	sbcscs	r0, r4, #0
    3874:	47280000 	strmi	r0, [r8, -r0]!
    3878:	0100000a 	tsteq	r0, sl
    387c:	00006893 	muleq	r0, r3, r8
    3880:	00910200 	addseq	r0, r1, r0, lsl #4
    3884:	7a686d2c 	bvc	1a1ed3c <__bss_end__+0x1a103fc>
    3888:	2c9b0100 	ldfcss	f0, [fp], {0}
    388c:	00000000 	andeq	r0, r0, r0
    3890:	2629b927 	strtcs	fp, [r9], -r7, lsr #18
    3894:	00000a98 	muleq	r0, r8, sl
    3898:	002c9c01 	eoreq	r9, ip, r1, lsl #24
    389c:	22f20000 	rscscs	r0, r2, #0
    38a0:	93290000 	teqls	r9, #0
    38a4:	09000001 	stmdbeq	r0, {r0}
    38a8:	0500000e 	streq	r0, [r0, #-14]
    38ac:	00a28003 	adceq	r8, r2, r3
    38b0:	99041700 	stmdbls	r4, {r8, r9, sl, ip}
    38b4:	00080000 	andeq	r0, r8, r0
    38b8:	0d7f0000 	ldcleq	0, cr0, [pc, #-0]	; 38c0 <_start-0x4740>
    38bc:	692d0000 	pushvs	{}	; <UNPREDICTABLE>
    38c0:	9701006e 	strls	r0, [r1, -lr, rrx]
    38c4:	0000002c 	andeq	r0, r0, ip, lsr #32
    38c8:	fc250001 	stc2	0, cr0, [r5], #-4
    38cc:	4e000098 	mcrmi	0, 0, r0, cr0, cr8, {4}
    38d0:	93000011 	movwls	r0, #17
    38d4:	2000000d 	andcs	r0, r0, sp
    38d8:	76025001 	strvc	r5, [r2], -r1
    38dc:	04250000 	strteq	r0, [r5], #-0
    38e0:	5f000099 	svcpl	0x00000099
    38e4:	a7000011 	smladge	r0, r1, r0, r0
    38e8:	2000000d 	andcs	r0, r0, sp
    38ec:	78025001 	stmdavc	r2, {r0, ip, lr}
    38f0:	18250000 	stmdane	r5!, {}	; <UNPREDICTABLE>
    38f4:	fb000099 	blx	3b62 <_start-0x449e>
    38f8:	c0000010 	andgt	r0, r0, r0, lsl r0
    38fc:	2000000d 	andcs	r0, r0, sp
    3900:	31015101 	tstcc	r1, r1, lsl #2
    3904:	02500120 	subseq	r0, r0, #32, 2
    3908:	25000076 	strcs	r0, [r0, #-118]	; 0x76
    390c:	0000996c 	andeq	r9, r0, ip, ror #18
    3910:	00001131 	andeq	r1, r0, r1, lsr r1
    3914:	00000def 	andeq	r0, r0, pc, ror #27
    3918:	02530120 	subseq	r0, r3, #32, 2
    391c:	01209d08 	teqeq	r0, r8, lsl #26
    3920:	80030552 	andhi	r0, r3, r2, asr r5
    3924:	200000a2 	andcs	r0, r0, r2, lsr #1
    3928:	03055101 	movweq	r5, #20737	; 0x5101
    392c:	0000a2e8 	andeq	sl, r0, r8, ror #5
    3930:	05500120 	ldrbeq	r0, [r0, #-288]	; 0x120
    3934:	00a2fc03 	adceq	pc, r2, r3, lsl #24
    3938:	70240000 	eorvc	r0, r4, r0
    393c:	47000099 			; <UNDEFINED> instruction: 0x47000099
    3940:	00000011 	andeq	r0, r0, r1, lsl r0
    3944:	0000902a 	andeq	r9, r0, sl, lsr #32
    3948:	000e0900 	andeq	r0, lr, r0, lsl #18
    394c:	00812b00 	addeq	r2, r1, r0, lsl #22
    3950:	00130000 	andseq	r0, r3, r0
    3954:	000df907 	andeq	pc, sp, r7, lsl #18
    3958:	0a8b2300 	beq	fe2cc560 <__bss_end__+0xfe2bdc20>
    395c:	a9010000 	stmdbge	r1, {}	; <UNPREDICTABLE>
    3960:	00000025 	andeq	r0, r0, r5, lsr #32
    3964:	00009998 	muleq	r0, r8, r9
    3968:	00000038 	andeq	r0, r0, r8, lsr r0
    396c:	0ea89c01 	cdpeq	12, 10, cr9, cr8, cr1, {0}
    3970:	22130000 	andscs	r0, r3, #0
    3974:	01000007 	tsteq	r0, r7
    3978:	000722a9 	andeq	r2, r7, r9, lsr #5
    397c:	00232000 	eoreq	r2, r3, r0
    3980:	65721600 	ldrbvs	r1, [r2, #-1536]!	; 0x600
    3984:	aa010073 	bge	43b58 <__bss_end__+0x35218>
    3988:	00000025 	andeq	r0, r0, r5, lsr #32
    398c:	00002341 	andeq	r2, r0, r1, asr #6
    3990:	00019329 	andeq	r9, r1, r9, lsr #6
    3994:	000eb800 	andeq	fp, lr, r0, lsl #16
    3998:	94030500 	strls	r0, [r3], #-1280	; 0x500
    399c:	250000a2 	strcs	r0, [r0, #-162]	; 0xa2
    39a0:	000099a4 	andeq	r9, r0, r4, lsr #19
    39a4:	00000762 	andeq	r0, r0, r2, ror #14
    39a8:	00000e6f 	andeq	r0, r0, pc, ror #28
    39ac:	02510120 	subseq	r0, r1, #32, 2
    39b0:	0120ff09 	msreq	LR_irq, r9
    39b4:	01f30350 	mvnseq	r0, r0, asr r3
    39b8:	c0250050 	eorgt	r0, r5, r0, asr r0
    39bc:	31000099 	swpcc	r0, r9, [r0]	; <UNPREDICTABLE>
    39c0:	9e000011 	mcrls	0, 0, r0, cr0, cr1, {0}
    39c4:	2000000e 	andcs	r0, r0, lr
    39c8:	08025301 	stmdaeq	r2, {r0, r8, r9, ip, lr}
    39cc:	520120ac 	andpl	r2, r1, #172	; 0xac
    39d0:	a2940305 	addsge	r0, r4, #335544320	; 0x14000000
    39d4:	01200000 	teqeq	r0, r0
    39d8:	e8030551 	stmda	r3, {r0, r4, r6, r8, sl}
    39dc:	200000a2 	andcs	r0, r0, r2, lsr #1
    39e0:	03055001 	movweq	r5, #20481	; 0x5001
    39e4:	0000a340 	andeq	sl, r0, r0, asr #6
    39e8:	99c42400 	stmibls	r4, {sl, sp}^
    39ec:	11470000 	mrsne	r0, (UNDEF: 71)
    39f0:	2a000000 	bcs	39f8 <_start-0x4608>
    39f4:	00000090 	muleq	r0, r0, r0
    39f8:	00000eb8 			; <UNDEFINED> instruction: 0x00000eb8
    39fc:	0000812b 	andeq	r8, r0, fp, lsr #2
    3a00:	07000c00 	streq	r0, [r0, -r0, lsl #24]
    3a04:	00000ea8 	andeq	r0, r0, r8, lsr #29
    3a08:	000abb12 	andeq	fp, sl, r2, lsl fp
    3a0c:	d0b00100 	adcsle	r0, r0, r0, lsl #2
    3a10:	2c000099 	stccs	0, cr0, [r0], {153}	; 0x99
    3a14:	01000000 	mrseq	r0, (UNDEF: 0)
    3a18:	000f019c 	muleq	pc, ip, r1	; <UNPREDICTABLE>
    3a1c:	07221300 	streq	r1, [r2, -r0, lsl #6]!
    3a20:	b0010000 	andlt	r0, r1, r0
    3a24:	00000722 	andeq	r0, r0, r2, lsr #14
    3a28:	00002354 	andeq	r2, r0, r4, asr r3
    3a2c:	67736d14 			; <UNDEFINED> instruction: 0x67736d14
    3a30:	97b00100 	ldrls	r0, [r0, r0, lsl #2]!
    3a34:	72000000 	andvc	r0, r0, #0
    3a38:	1f000023 	svcne	0x00000023
    3a3c:	000099e8 	andeq	r9, r0, r8, ror #19
    3a40:	00000176 	andeq	r0, r0, r6, ror r1
    3a44:	02500120 	subseq	r0, r0, #32, 2
    3a48:	00000075 	andeq	r0, r0, r5, ror r0
    3a4c:	00072723 	andeq	r2, r7, r3, lsr #14
    3a50:	25b90100 	ldrcs	r0, [r9, #256]!	; 0x100
    3a54:	fc000000 	stc2	0, cr0, [r0], {-0}
    3a58:	80000099 	mulhi	r0, r9, r0
    3a5c:	01000000 	mrseq	r0, (UNDEF: 0)
    3a60:	000fec9c 	muleq	pc, ip, ip	; <UNPREDICTABLE>
    3a64:	07221300 	streq	r1, [r2, -r0, lsl #6]!
    3a68:	b9010000 	stmdblt	r1, {}	; <UNPREDICTABLE>
    3a6c:	00000722 	andeq	r0, r0, r2, lsr #14
    3a70:	00002390 	muleq	r0, r0, r3
    3a74:	746d662e 	strbtvc	r6, [sp], #-1582	; 0x62e
    3a78:	97b90100 	ldrls	r0, [r9, r0, lsl #2]!
    3a7c:	02000000 	andeq	r0, r0, #0
    3a80:	152f7491 	strne	r7, [pc, #-1169]!	; 35f7 <_start-0x4a09>
    3a84:	00667562 	rsbeq	r7, r6, r2, ror #10
    3a88:	0fecba01 	svceq	0x00ecba01
    3a8c:	91030000 	mrsls	r0, (UNDEF: 3)
    3a90:	12187c9c 	andsne	r7, r8, #156, 24	; 0x9c00
    3a94:	01000006 	tsteq	r0, r6
    3a98:	000106bc 			; <UNDEFINED> instruction: 0x000106bc
    3a9c:	98910300 	ldmls	r1, {r8, r9}
    3aa0:	7a73167c 	bvc	1cc9498 <__bss_end__+0x1cbab58>
    3aa4:	25be0100 	ldrcs	r0, [lr, #256]!	; 0x100
    3aa8:	bc000000 	stclt	0, cr0, [r0], {-0}
    3aac:	29000023 	stmdbcs	r0, {r0, r1, r5}
    3ab0:	00000193 	muleq	r0, r3, r1
    3ab4:	0000100d 	andeq	r1, r0, sp
    3ab8:	a2a40305 	adcge	r0, r4, #335544320	; 0x14000000
    3abc:	24250000 	strtcs	r0, [r5], #-0
    3ac0:	7000009a 	mulvc	r0, sl, r0
    3ac4:	9c000011 	stcls	0, cr0, [r0], {17}
    3ac8:	2000000f 	andcs	r0, r0, pc
    3acc:	91025301 	tstls	r2, r1, lsl #6
    3ad0:	52012058 	andpl	r2, r1, #88	; 0x58
    3ad4:	06549103 	ldrbeq	r9, [r4], -r3, lsl #2
    3ad8:	03510120 	cmpeq	r1, #32, 2
    3adc:	2001cc0a 	andcs	ip, r1, sl, lsl #24
    3ae0:	91035001 	tstls	r3, r1
    3ae4:	25007bfc 	strcs	r7, [r0, #-3068]	; 0xbfc
    3ae8:	00009a48 	andeq	r9, r0, r8, asr #20
    3aec:	00001131 	andeq	r1, r0, r1, lsr r1
    3af0:	00000fcb 	andeq	r0, r0, fp, asr #31
    3af4:	02530120 	subseq	r0, r3, #32, 2
    3af8:	0120c008 	teqeq	r0, r8
    3afc:	a4030552 	strge	r0, [r3], #-1362	; 0x552
    3b00:	200000a2 	andcs	r0, r0, r2, lsr #1
    3b04:	03055101 	movweq	r5, #20737	; 0x5101
    3b08:	0000a2e8 	andeq	sl, r0, r8, ror #5
    3b0c:	05500120 	ldrbeq	r0, [r0, #-288]	; 0x120
    3b10:	00a37803 	adceq	r7, r3, r3, lsl #16
    3b14:	4c240000 	stcmi	0, cr0, [r4], #-0
    3b18:	4700009a 			; <UNDEFINED> instruction: 0x4700009a
    3b1c:	1f000011 	svcne	0x00000011
    3b20:	00009a58 	andeq	r9, r0, r8, asr sl
    3b24:	00000ebd 			; <UNDEFINED> instruction: 0x00000ebd
    3b28:	03510120 	cmpeq	r1, #32, 2
    3b2c:	207bfc91 			; <UNDEFINED> instruction: 0x207bfc91
    3b30:	75025001 	strvc	r5, [r2, #-1]
    3b34:	2a000000 	bcs	3b3c <_start-0x44c4>
    3b38:	00000090 	muleq	r0, r0, r0
    3b3c:	00000ffd 	strdeq	r0, [r0], -sp
    3b40:	00008130 	andeq	r8, r0, r0, lsr r1
    3b44:	0001cb00 	andeq	ip, r1, r0, lsl #22
    3b48:	0000902a 	andeq	r9, r0, sl, lsr #32
    3b4c:	00100d00 	andseq	r0, r0, r0, lsl #26
    3b50:	00812b00 	addeq	r2, r1, r0, lsl #22
    3b54:	000e0000 	andeq	r0, lr, r0
    3b58:	000ffd07 	andeq	pc, pc, r7, lsl #26
    3b5c:	0b0f2300 	bleq	3cc764 <__bss_end__+0x3bde24>
    3b60:	c5010000 	strgt	r0, [r1, #-0]
    3b64:	00000025 	andeq	r0, r0, r5, lsr #32
    3b68:	00009a7c 	andeq	r9, r0, ip, ror sl
    3b6c:	00000048 	andeq	r0, r0, r8, asr #32
    3b70:	10e69c01 	rscne	r9, r6, r1, lsl #24
    3b74:	75140000 	ldrvc	r0, [r4, #-0]
    3b78:	22c50100 	sbccs	r0, r5, #0, 2
    3b7c:	fb000007 	blx	3ba2 <_start-0x445e>
    3b80:	14000023 	strne	r0, [r0], #-35	; 0x23
    3b84:	00667562 	rsbeq	r7, r6, r2, ror #10
    3b88:	0bf9c501 	bleq	ffe74f94 <__bss_end__+0xffe66654>
    3b8c:	241c0000 	ldrcs	r0, [ip], #-0
    3b90:	fb130000 	blx	4c3b9a <__bss_end__+0x4b525a>
    3b94:	0100000a 	tsteq	r0, sl
    3b98:	000068c5 	andeq	r6, r0, r5, asr #17
    3b9c:	00243d00 	eoreq	r3, r4, r0, lsl #26
    3ba0:	6e651400 	cdpvs	4, 6, cr1, cr5, cr0, {0}
    3ba4:	c5010064 	strgt	r0, [r1, #-100]	; 0x64
    3ba8:	0000004f 	andeq	r0, r0, pc, asr #32
    3bac:	0000245e 	andeq	r2, r0, lr, asr r4
    3bb0:	73657216 	cmnvc	r5, #1610612737	; 0x60000001
    3bb4:	25c60100 	strbcs	r0, [r6, #256]	; 0x100
    3bb8:	7f000000 	svcvc	0x00000000
    3bbc:	29000024 	stmdbcs	r0, {r2, r5}
    3bc0:	00000193 	muleq	r0, r3, r1
    3bc4:	000010f6 	strdeq	r1, [r0], -r6
    3bc8:	a2b40305 	adcsge	r0, r4, #335544320	; 0x14000000
    3bcc:	90250000 	eorls	r0, r5, r0
    3bd0:	1e00009a 	mcrne	0, 0, r0, cr0, cr10, {4}
    3bd4:	ad00000b 	stcge	0, cr0, [r0, #-44]	; 0xffffffd4
    3bd8:	20000010 	andcs	r0, r0, r0, lsl r0
    3bdc:	f3035201 	vhsub.u8	d5, d3, d1
    3be0:	01205201 	teqeq	r0, r1, lsl #4
    3be4:	01f30351 	mvnseq	r0, r1, asr r3
    3be8:	50012051 	andpl	r2, r1, r1, asr r0
    3bec:	5001f303 	andpl	pc, r1, r3, lsl #6
    3bf0:	007d0220 	rsbseq	r0, sp, r0, lsr #4
    3bf4:	00ff0902 	rscseq	r0, pc, r2, lsl #18
    3bf8:	009aac25 	addseq	sl, sl, r5, lsr #24
    3bfc:	00113100 	andseq	r3, r1, r0, lsl #2
    3c00:	0010dc00 	andseq	sp, r0, r0, lsl #24
    3c04:	53012000 	movwpl	r2, #4096	; 0x1000
    3c08:	20c80802 	sbccs	r0, r8, r2, lsl #16
    3c0c:	03055201 	movweq	r5, #20993	; 0x5201
    3c10:	0000a2b4 			; <UNDEFINED> instruction: 0x0000a2b4
    3c14:	05510120 	ldrbeq	r0, [r1, #-288]	; 0x120
    3c18:	00a2e803 	adceq	lr, r2, r3, lsl #16
    3c1c:	50012000 	andpl	r2, r1, r0
    3c20:	a3400305 	movtge	r0, #773	; 0x305
    3c24:	24000000 	strcs	r0, [r0], #-0
    3c28:	00009ab0 			; <UNDEFINED> instruction: 0x00009ab0
    3c2c:	00001147 	andeq	r1, r0, r7, asr #2
    3c30:	00902a00 	addseq	r2, r0, r0, lsl #20
    3c34:	10f60000 	rscsne	r0, r6, r0
    3c38:	812b0000 	teqhi	fp, r0
    3c3c:	16000000 	strne	r0, [r0], -r0
    3c40:	10e60700 	rscne	r0, r6, r0, lsl #14
    3c44:	bb310000 	bllt	c43c4c <__bss_end__+0xc3530c>
    3c48:	06000009 	streq	r0, [r0], -r9
    3c4c:	00111121 	andseq	r1, r1, r1, lsr #2
    3c50:	002c3200 	eoreq	r3, ip, r0, lsl #4
    3c54:	2c320000 	ldccs	0, cr0, [r2], #-0
    3c58:	00000000 	andeq	r0, r0, r0
    3c5c:	00082f33 	andeq	r2, r8, r3, lsr pc
    3c60:	2c550700 	mrrccs	7, 0, r0, r5, cr0
    3c64:	34000000 	strcc	r0, [r0], #-0
    3c68:	00000959 	andeq	r0, r0, r9, asr r9
    3c6c:	00252406 	eoreq	r2, r5, r6, lsl #8
    3c70:	11310000 	teqne	r1, r0
    3c74:	2c320000 	ldccs	0, cr0, [r2], #-0
    3c78:	00000000 	andeq	r0, r0, r0
    3c7c:	00060134 	andeq	r0, r6, r4, lsr r1
    3c80:	25270700 	strcs	r0, [r7, #-1792]!	; 0x700
    3c84:	47000000 	strmi	r0, [r0, -r0]
    3c88:	32000011 	andcc	r0, r0, #17
    3c8c:	00000097 	muleq	r0, r7, r0
    3c90:	9635002f 	ldrtls	r0, [r5], -pc, lsr #32
    3c94:	07000002 	streq	r0, [r0, -r2]
    3c98:	0a0c3164 	beq	310230 <__bss_end__+0x3018f0>
    3c9c:	1d060000 	stcne	0, cr0, [r6, #-0]
    3ca0:	0000115f 	andeq	r1, r0, pc, asr r1
    3ca4:	00002c32 	andeq	r2, r0, r2, lsr ip
    3ca8:	d5310000 	ldrle	r0, [r1, #-0]!
    3cac:	06000009 	streq	r0, [r0], -r9
    3cb0:	0011701c 	andseq	r7, r1, ip, lsl r0
    3cb4:	002c3200 	eoreq	r3, ip, r0, lsl #4
    3cb8:	36000000 	strcc	r0, [r0], -r0
    3cbc:	000005fe 	strdeq	r0, [r0], -lr
    3cc0:	00250208 	eoreq	r0, r5, r8, lsl #4
    3cc4:	8a320000 	bhi	c83ccc <__bss_end__+0xc7538c>
    3cc8:	32000000 	andcc	r0, r0, #0
    3ccc:	00000025 	andeq	r0, r0, r5, lsr #32
    3cd0:	00009732 	andeq	r9, r0, r2, lsr r7
    3cd4:	01063200 	mrseq	r3, LR_usr
    3cd8:	00000000 	andeq	r0, r0, r0
    3cdc:	000003ff 	strdeq	r0, [r0], -pc	; <UNPREDICTABLE>
    3ce0:	11060004 	tstne	r6, r4
    3ce4:	01040000 	mrseq	r0, (UNDEF: 4)
    3ce8:	000003a2 	andeq	r0, r0, r2, lsr #7
    3cec:	000b4e01 	andeq	r4, fp, r1, lsl #28
    3cf0:	00059d00 	andeq	r9, r5, r0, lsl #26
    3cf4:	009ac400 	addseq	ip, sl, r0, lsl #8
    3cf8:	00015400 	andeq	r5, r1, r0, lsl #8
    3cfc:	00109700 	andseq	r9, r0, r0, lsl #14
    3d00:	05040200 	streq	r0, [r4, #-512]	; 0x200
    3d04:	00746e69 	rsbseq	r6, r4, r9, ror #28
    3d08:	64070403 	strvs	r0, [r7], #-1027	; 0x403
    3d0c:	03000000 	movweq	r0, #0
    3d10:	03560601 	cmpeq	r6, #1048576	; 0x100000
    3d14:	02030000 	andeq	r0, r3, #0
    3d18:	00036a05 	andeq	r6, r3, r5, lsl #20
    3d1c:	05040300 	streq	r0, [r4, #-768]	; 0x300
    3d20:	000000a3 	andeq	r0, r0, r3, lsr #1
    3d24:	9e050803 	cdpls	8, 0, cr0, cr5, cr3, {0}
    3d28:	03000000 	movweq	r0, #0
    3d2c:	03540801 	cmpeq	r4, #65536	; 0x10000
    3d30:	02030000 	andeq	r0, r3, #0
    3d34:	00021f07 	andeq	r1, r2, r7, lsl #30
    3d38:	07040300 	streq	r0, [r4, -r0, lsl #6]
    3d3c:	0000005f 	andeq	r0, r0, pc, asr r0
    3d40:	5a070803 	bpl	1c5d54 <__bss_end__+0x1b7414>
    3d44:	03000000 	movweq	r0, #0
    3d48:	02a80704 	adceq	r0, r8, #4, 14	; 0x100000
    3d4c:	01030000 	mrseq	r0, (UNDEF: 3)
    3d50:	00035d08 	andeq	r5, r3, r8, lsl #26
    3d54:	02010400 	andeq	r0, r1, #0, 8
    3d58:	0000b20c 	andeq	fp, r0, ip, lsl #4
    3d5c:	00770500 	rsbseq	r0, r7, r0, lsl #10
    3d60:	05000000 	streq	r0, [r0, #-0]
    3d64:	00000493 	muleq	r0, r3, r4
    3d68:	04d00501 	ldrbeq	r0, [r0], #1281	; 0x501
    3d6c:	05040000 	streq	r0, [r4, #-0]
    3d70:	000004df 	ldrdeq	r0, [r0], -pc	; <UNPREDICTABLE>
    3d74:	04ee0505 	strbteq	r0, [lr], #1285	; 0x505
    3d78:	05060000 	streq	r0, [r6, #-0]
    3d7c:	000004fd 	strdeq	r0, [r0], -sp
    3d80:	050c0507 	streq	r0, [ip, #-1287]	; 0x507
    3d84:	05030000 	streq	r0, [r3, #-0]
    3d88:	0000051b 	andeq	r0, r0, fp, lsl r5
    3d8c:	b2060002 	andlt	r0, r6, #2
    3d90:	02000004 	andeq	r0, r0, #4
    3d94:	00007915 	andeq	r7, r0, r5, lsl r9
    3d98:	0b440700 	bleq	11059a0 <__bss_end__+0x10f7060>
    3d9c:	37010000 	strcc	r0, [r1, -r0]
    3da0:	00009ac4 	andeq	r9, r0, r4, asr #21
    3da4:	0000009c 	muleq	r0, ip, r0
    3da8:	01c39c01 	biceq	r9, r3, r1, lsl #24
    3dac:	cc080000 	stcgt	0, cr0, [r8], {-0}
    3db0:	a800009a 	stmdage	r0, {r1, r3, r4, r7}
    3db4:	09000003 	stmdbeq	r0, {r0, r1}
    3db8:	00009ad8 	ldrdeq	r9, [r0], -r8
    3dbc:	000003af 	andeq	r0, r0, pc, lsr #7
    3dc0:	000000f3 	strdeq	r0, [r0], -r3
    3dc4:	0151010a 	cmpeq	r1, sl, lsl #2
    3dc8:	50010a32 	andpl	r0, r1, r2, lsr sl
    3dcc:	09003e01 	stmdbeq	r0, {r0, r9, sl, fp, ip, sp}
    3dd0:	00009ae4 	andeq	r9, r0, r4, ror #21
    3dd4:	000003af 	andeq	r0, r0, pc, lsr #7
    3dd8:	0000010b 	andeq	r0, r0, fp, lsl #2
    3ddc:	0151010a 	cmpeq	r1, sl, lsl #2
    3de0:	50010a32 	andpl	r0, r1, r2, lsr sl
    3de4:	08003f01 	stmdaeq	r0, {r0, r8, r9, sl, fp, ip, sp}
    3de8:	00009ae8 	andeq	r9, r0, r8, ror #21
    3dec:	000003a8 	andeq	r0, r0, r8, lsr #7
    3df0:	009af809 	addseq	pc, sl, r9, lsl #16
    3df4:	0003c500 	andeq	ip, r3, r0, lsl #10
    3df8:	00012800 	andeq	r2, r1, r0, lsl #16
    3dfc:	50010a00 	andpl	r0, r1, r0, lsl #20
    3e00:	00007502 	andeq	r7, r0, r2, lsl #10
    3e04:	009b0409 	addseq	r0, fp, r9, lsl #8
    3e08:	0003e600 	andeq	lr, r3, r0, lsl #12
    3e0c:	00013c00 	andeq	r3, r1, r0, lsl #24
    3e10:	50010a00 	andpl	r0, r1, r0, lsl #20
    3e14:	00007502 	andeq	r7, r0, r2, lsl #10
    3e18:	009b0808 	addseq	r0, fp, r8, lsl #16
    3e1c:	0003a800 	andeq	sl, r3, r0, lsl #16
    3e20:	9b140900 	blls	506228 <__bss_end__+0x4f78e8>
    3e24:	03e60000 	mvneq	r0, #0
    3e28:	01580000 	cmpeq	r8, r0
    3e2c:	010a0000 	mrseq	r0, (UNDEF: 10)
    3e30:	00300151 	eorseq	r0, r0, r1, asr r1
    3e34:	009b2009 	addseq	r2, fp, r9
    3e38:	0003e600 	andeq	lr, r3, r0, lsl #12
    3e3c:	00016b00 	andeq	r6, r1, r0, lsl #22
    3e40:	51010a00 	tstpl	r1, r0, lsl #20
    3e44:	09003001 	stmdbeq	r0, {r0, ip, sp}
    3e48:	00009b2c 	andeq	r9, r0, ip, lsr #22
    3e4c:	000003e6 	andeq	r0, r0, r6, ror #7
    3e50:	0000017e 	andeq	r0, r0, lr, ror r1
    3e54:	0151010a 	cmpeq	r1, sl, lsl #2
    3e58:	38090036 	stmdacc	r9, {r1, r2, r4, r5}
    3e5c:	e600009b 			; <UNDEFINED> instruction: 0xe600009b
    3e60:	91000003 	tstls	r0, r3
    3e64:	0a000001 	beq	3e70 <_start-0x4190>
    3e68:	33015101 	movwcc	r5, #4353	; 0x1101
    3e6c:	9b440900 	blls	1106274 <__bss_end__+0x10f7934>
    3e70:	03e60000 	mvneq	r0, #0
    3e74:	01a60000 			; <UNDEFINED> instruction: 0x01a60000
    3e78:	010a0000 	mrseq	r0, (UNDEF: 10)
    3e7c:	0e0a0351 	mcreq	3, 0, r0, cr10, cr1, {2}
    3e80:	50090001 	andpl	r0, r9, r1
    3e84:	e600009b 			; <UNDEFINED> instruction: 0xe600009b
    3e88:	b9000003 	stmdblt	r0, {r0, r1}
    3e8c:	0a000001 	beq	3e98 <_start-0x4168>
    3e90:	33015101 	movwcc	r5, #4353	; 0x1101
    3e94:	9b540800 	blls	1505e9c <__bss_end__+0x14f755c>
    3e98:	03a80000 			; <UNDEFINED> instruction: 0x03a80000
    3e9c:	0b000000 	bleq	3ea4 <_start-0x415c>
    3ea0:	000000c0 	andeq	r0, r0, r0, asr #1
    3ea4:	00255701 	eoreq	r5, r5, r1, lsl #14
    3ea8:	9b600000 	blls	1803eb0 <__bss_end__+0x17f5570>
    3eac:	001c0000 	andseq	r0, ip, r0
    3eb0:	9c010000 	stcls	0, cr0, [r1], {-0}
    3eb4:	000001e6 	andeq	r0, r0, r6, ror #3
    3eb8:	009b7008 	addseq	r7, fp, r8
    3ebc:	0003c500 	andeq	ip, r3, r0, lsl #10
    3ec0:	8e0b0000 	cdphi	0, 0, cr0, cr11, cr0, {0}
    3ec4:	0100000a 	tsteq	r0, sl
    3ec8:	0000255d 	andeq	r2, r0, sp, asr r5
    3ecc:	009b7c00 	addseq	r7, fp, r0, lsl #24
    3ed0:	00002800 	andeq	r2, r0, r0, lsl #16
    3ed4:	129c0100 	addsne	r0, ip, #0, 2
    3ed8:	08000002 	stmdaeq	r0, {r1}
    3edc:	00009b84 	andeq	r9, r0, r4, lsl #23
    3ee0:	000001c3 	andeq	r0, r0, r3, asr #3
    3ee4:	009b9808 	addseq	r9, fp, r8, lsl #16
    3ee8:	0003c500 	andeq	ip, r3, r0, lsl #10
    3eec:	3d0b0000 	stccc	0, cr0, [fp, #-0]
    3ef0:	01000001 	tsteq	r0, r1
    3ef4:	00002564 	andeq	r2, r0, r4, ror #10
    3ef8:	009ba400 	addseq	sl, fp, r0, lsl #8
    3efc:	00001c00 	andeq	r1, r0, r0, lsl #24
    3f00:	359c0100 	ldrcc	r0, [ip, #256]	; 0x100
    3f04:	08000002 	stmdaeq	r0, {r1}
    3f08:	00009bb4 			; <UNDEFINED> instruction: 0x00009bb4
    3f0c:	000003c5 	andeq	r0, r0, r5, asr #7
    3f10:	02520700 	subseq	r0, r2, #0, 14
    3f14:	6a010000 	bvs	43f1c <__bss_end__+0x355dc>
    3f18:	00009bc0 	andeq	r9, r0, r0, asr #23
    3f1c:	0000002c 	andeq	r0, r0, ip, lsr #32
    3f20:	02719c01 	rsbseq	r9, r1, #256	; 0x100
    3f24:	630c0000 	movwvs	r0, #49152	; 0xc000
    3f28:	2c6a0100 	stfcse	f0, [sl], #-0
    3f2c:	9d000000 	stcls	0, cr0, [r0, #-0]
    3f30:	08000024 	stmdaeq	r0, {r2, r5}
    3f34:	00009bcc 	andeq	r9, r0, ip, asr #23
    3f38:	00000212 	andeq	r0, r0, r2, lsl r2
    3f3c:	009be40d 	addseq	lr, fp, sp, lsl #8
    3f40:	0003e600 	andeq	lr, r3, r0, lsl #12
    3f44:	51010a00 	tstpl	r1, r0, lsl #20
    3f48:	00007402 	andeq	r7, r0, r2, lsl #8
    3f4c:	0b360b00 	bleq	d86b54 <__bss_end__+0xd78214>
    3f50:	74010000 	strvc	r0, [r1], #-0
    3f54:	00000025 	andeq	r0, r0, r5, lsr #32
    3f58:	00009bec 	andeq	r9, r0, ip, ror #23
    3f5c:	0000000c 	andeq	r0, r0, ip
    3f60:	02949c01 	addseq	r9, r4, #256	; 0x100
    3f64:	f4080000 	vst4.8	{d0-d3}, [r8], r0
    3f68:	c300009b 	movwgt	r0, #155	; 0x9b
    3f6c:	00000001 	andeq	r0, r0, r1
    3f70:	000b5c0b 	andeq	r5, fp, fp, lsl #24
    3f74:	25780100 	ldrbcs	r0, [r8, #-256]!	; 0x100
    3f78:	f8000000 			; <UNDEFINED> instruction: 0xf8000000
    3f7c:	2000009b 	mulcs	r0, fp, r0
    3f80:	01000000 	mrseq	r0, (UNDEF: 0)
    3f84:	0002c09c 	muleq	r2, ip, r0
    3f88:	9c000800 	stcls	8, cr0, [r0], {-0}
    3f8c:	02710000 	rsbseq	r0, r1, #0
    3f90:	0c080000 	stceq	0, cr0, [r8], {-0}
    3f94:	e600009c 			; <UNDEFINED> instruction: 0xe600009c
    3f98:	00000001 	andeq	r0, r0, r1
    3f9c:	0003300e 	andeq	r3, r3, lr
    3fa0:	d1160100 	tstle	r6, r0, lsl #2
    3fa4:	05000002 	streq	r0, [r0, #-2]
    3fa8:	00a01c03 	adceq	r1, r0, r3, lsl #24
    3fac:	d7040f00 	strle	r0, [r4, -r0, lsl #30]
    3fb0:	10000002 	andne	r0, r0, r2
    3fb4:	0000002c 	andeq	r0, r0, ip, lsr #32
    3fb8:	00011e0e 	andeq	r1, r1, lr, lsl #28
    3fbc:	d1170100 	tstle	r7, r0, lsl #2
    3fc0:	05000002 	streq	r0, [r0, #-2]
    3fc4:	009fec03 	addseq	lr, pc, r3, lsl #24
    3fc8:	016d0e00 	cmneq	sp, r0, lsl #28
    3fcc:	1a010000 	bne	43fd4 <__bss_end__+0x35694>
    3fd0:	000002d1 	ldrdeq	r0, [r0], -r1
    3fd4:	a0080305 	andge	r0, r8, r5, lsl #6
    3fd8:	870e0000 	strhi	r0, [lr, -r0]
    3fdc:	01000002 	tsteq	r0, r2
    3fe0:	0002d11b 	andeq	sp, r2, fp, lsl r1
    3fe4:	f4030500 	vst3.8	{d0,d2,d4}, [r3], r0
    3fe8:	0e00009f 	mcreq	0, 0, r0, cr0, cr15, {4}
    3fec:	00000308 	andeq	r0, r0, r8, lsl #6
    3ff0:	02d11c01 	sbcseq	r1, r1, #256	; 0x100
    3ff4:	03050000 	movweq	r0, #20480	; 0x5000
    3ff8:	00009ff8 	strdeq	r9, [r0], -r8
    3ffc:	0001a00e 	andeq	sl, r1, lr
    4000:	d11d0100 	tstle	sp, r0, lsl #2
    4004:	05000002 	streq	r0, [r0, #-2]
    4008:	009ffc03 	addseq	pc, pc, r3, lsl #24
    400c:	052a0e00 	streq	r0, [sl, #-3584]!	; 0xe00
    4010:	1e010000 	cdpne	0, 0, cr0, cr1, cr0, {0}
    4014:	000002d1 	ldrdeq	r0, [r0], -r1
    4018:	a0180305 	andsge	r0, r8, r5, lsl #6
    401c:	040e0000 	streq	r0, [lr], #-0
    4020:	01000001 	tsteq	r0, r1
    4024:	0002d11f 	andeq	sp, r2, pc, lsl r1
    4028:	04030500 	streq	r0, [r3], #-1280	; 0x500
    402c:	0e0000a0 	cdpeq	0, 0, cr0, cr0, cr0, {5}
    4030:	00000240 	andeq	r0, r0, r0, asr #4
    4034:	02d12001 	sbcseq	r2, r1, #1
    4038:	03050000 	movweq	r0, #20480	; 0x5000
    403c:	0000a014 	andeq	sl, r0, r4, lsl r0
    4040:	0000320e 	andeq	r3, r0, lr, lsl #4
    4044:	d1210100 	teqle	r1, r0, lsl #2
    4048:	05000002 	streq	r0, [r0, #-2]
    404c:	00a01003 	adceq	r1, r0, r3
    4050:	03ff0e00 	mvnseq	r0, #0, 28
    4054:	22010000 	andcs	r0, r1, #0
    4058:	000002d1 	ldrdeq	r0, [r0], -r1
    405c:	9ff00305 	svcls	0x00f00305
    4060:	740e0000 	strvc	r0, [lr], #-0
    4064:	01000003 	tsteq	r0, r3
    4068:	0002d123 	andeq	sp, r2, r3, lsr #2
    406c:	0c030500 	cfstr32eq	mvfx0, [r3], {-0}
    4070:	0e0000a0 	cdpeq	0, 0, cr0, cr0, cr0, {5}
    4074:	00000183 	andeq	r0, r0, r3, lsl #3
    4078:	02d12401 	sbcseq	r2, r1, #16777216	; 0x1000000
    407c:	03050000 	movweq	r0, #20480	; 0x5000
    4080:	0000a000 	andeq	sl, r0, r0
    4084:	00042611 	andeq	r2, r4, r1, lsl r6
    4088:	12850300 	addne	r0, r5, #0, 6
    408c:	000002b1 			; <UNDEFINED> instruction: 0x000002b1
    4090:	03c51902 	biceq	r1, r5, #32768	; 0x8000
    4094:	2c130000 	ldccs	0, cr0, [r3], {-0}
    4098:	13000000 	movwne	r0, #0
    409c:	000000b2 	strheq	r0, [r0], -r2
    40a0:	04ac1400 	strteq	r1, [ip], #1024	; 0x400
    40a4:	a4030000 	strge	r0, [r3], #-0
    40a8:	0000002c 	andeq	r0, r0, ip, lsr #32
    40ac:	000003da 	ldrdeq	r0, [r0], -sl
    40b0:	0003da13 	andeq	sp, r3, r3, lsl sl
    40b4:	040f0000 	streq	r0, [pc], #-0	; 40bc <_start-0x3f44>
    40b8:	000003e0 	andeq	r0, r0, r0, ror #7
    40bc:	0003e515 	andeq	lr, r3, r5, lsl r5
    40c0:	18121600 	ldmdane	r2, {r9, sl, ip}
    40c4:	03000004 	movweq	r0, #4
    40c8:	0003fc98 	muleq	r3, r8, ip
    40cc:	03fc1300 	mvnseq	r1, #0, 6
    40d0:	2c130000 	ldccs	0, cr0, [r3], {-0}
    40d4:	00000000 	andeq	r0, r0, r0
    40d8:	03e5040f 	mvneq	r0, #251658240	; 0xf000000
    40dc:	56000000 	strpl	r0, [r0], -r0
    40e0:	04000005 	streq	r0, [r0], #-5
    40e4:	00123400 	andseq	r3, r2, r0, lsl #8
    40e8:	a2010400 	andge	r0, r1, #0, 8
    40ec:	01000003 	tsteq	r0, r3
    40f0:	00000c27 	andeq	r0, r0, r7, lsr #24
    40f4:	0000059d 	muleq	r0, sp, r5
    40f8:	00009c18 	andeq	r9, r0, r8, lsl ip
    40fc:	000001d0 	ldrdeq	r0, [r0], -r0	; <UNPREDICTABLE>
    4100:	0000119c 	muleq	r0, ip, r1
    4104:	69050402 	stmdbvs	r5, {r1, sl}
    4108:	0300746e 	movweq	r7, #1134	; 0x46e
    410c:	00640704 	rsbeq	r0, r4, r4, lsl #14
    4110:	01030000 	mrseq	r0, (UNDEF: 3)
    4114:	00035606 	andeq	r5, r3, r6, lsl #12
    4118:	05020300 	streq	r0, [r2, #-768]	; 0x300
    411c:	0000036a 	andeq	r0, r0, sl, ror #6
    4120:	a3050403 	movwge	r0, #21507	; 0x5403
    4124:	03000000 	movweq	r0, #0
    4128:	009e0508 	addseq	r0, lr, r8, lsl #10
    412c:	01030000 	mrseq	r0, (UNDEF: 3)
    4130:	00035408 	andeq	r5, r3, r8, lsl #8
    4134:	07020300 	streq	r0, [r2, -r0, lsl #6]
    4138:	0000021f 	andeq	r0, r0, pc, lsl r2
    413c:	5f070403 	svcpl	0x00070403
    4140:	03000000 	movweq	r0, #0
    4144:	005a0708 	subseq	r0, sl, r8, lsl #14
    4148:	04030000 	streq	r0, [r3], #-0
    414c:	0002a807 	andeq	sl, r2, r7, lsl #16
    4150:	08010300 	stmdaeq	r1, {r8, r9}
    4154:	0000035d 	andeq	r0, r0, sp, asr r3
    4158:	007f0404 	rsbseq	r0, pc, r4, lsl #8
    415c:	72050000 	andvc	r0, r5, #0
    4160:	06000000 	streq	r0, [r0], -r0
    4164:	00000072 	andeq	r0, r0, r2, ror r0
    4168:	00000094 	muleq	r0, r4, r0
    416c:	00006b07 	andeq	r6, r0, r7, lsl #22
    4170:	08001900 	stmdaeq	r0, {r8, fp, ip}
    4174:	0b140304 	bleq	504d8c <__bss_end__+0x4f644c>
    4178:	09000001 	stmdbeq	r0, {r0}
    417c:	00000ccd 	andeq	r0, r0, sp, asr #25
    4180:	8082e480 	addhi	lr, r2, r0, lsl #9
    4184:	0bb20902 	bleq	fec86594 <__bss_end__+0xfec77c54>
    4188:	e4800000 	str	r0, [r0], #0
    418c:	09028082 	stmdbeq	r2, {r1, r7, pc}
    4190:	00000c47 	andeq	r0, r0, r7, asr #24
    4194:	8082e484 	addhi	lr, r2, r4, lsl #9
    4198:	0c190902 	ldceq	9, cr0, [r9], {2}
    419c:	e4880000 	str	r0, [r8], #0
    41a0:	09028082 	stmdbeq	r2, {r1, r7, pc}
    41a4:	00000b95 	muleq	r0, r5, fp
    41a8:	8082e48c 	addhi	lr, r2, ip, lsl #9
    41ac:	0bd60902 	bleq	ff5865bc <__bss_end__+0xff577c7c>
    41b0:	e4900000 	ldr	r0, [r0], #0
    41b4:	09028082 	stmdbeq	r2, {r1, r7, pc}
    41b8:	00000be4 	andeq	r0, r0, r4, ror #23
    41bc:	8082e494 	umullhi	lr, r2, r4, r4
    41c0:	0bc40902 	bleq	ff1065d0 <__bss_end__+0xff0f7c90>
    41c4:	e4980000 	ldr	r0, [r8], #0
    41c8:	09028082 	stmdbeq	r2, {r1, r7, pc}
    41cc:	00000c99 	muleq	r0, r9, ip
    41d0:	8082e49c 	umullhi	lr, r2, ip, r4
    41d4:	0ca80902 	stceq	9, cr0, [r8], #8
    41d8:	e4a00000 	strt	r0, [r0], #0
    41dc:	09028082 	stmdbeq	r2, {r1, r7, pc}
    41e0:	00000b82 	andeq	r0, r0, r2, lsl #23
    41e4:	8082e4a4 	addhi	lr, r2, r4, lsr #9
    41e8:	ff0a0002 			; <UNDEFINED> instruction: 0xff0a0002
    41ec:	01000002 	tsteq	r0, r2
    41f0:	009c1805 	addseq	r1, ip, r5, lsl #16
    41f4:	00006800 	andeq	r6, r0, r0, lsl #16
    41f8:	b79c0100 	ldrlt	r0, [ip, r0, lsl #2]
    41fc:	0b000001 	bleq	4208 <_start-0x3df8>
    4200:	00000ba1 	andeq	r0, r0, r1, lsr #23
    4204:	002c1101 	eoreq	r1, ip, r1, lsl #2
    4208:	f20b0000 	vhadd.s8	d0, d11, d0
    420c:	0100000b 	tsteq	r0, fp
    4210:	00002c12 	andeq	r2, r0, r2, lsl ip
    4214:	73640c00 	cmnvc	r4, #0, 24
    4218:	16010074 			; <UNDEFINED> instruction: 0x16010074
    421c:	000001b7 			; <UNDEFINED> instruction: 0x000001b7
    4220:	72730d00 	rsbsvc	r0, r3, #0, 26
    4224:	17010063 	strne	r0, [r1, -r3, rrx]
    4228:	000001b7 			; <UNDEFINED> instruction: 0x000001b7
    422c:	01006e0e 	tsteq	r0, lr, lsl #28
    4230:	00002c18 	andeq	r2, r0, r8, lsl ip
    4234:	0f500100 	svceq	0x00500100
    4238:	00009c48 	andeq	r9, r0, r8, asr #24
    423c:	00000024 	andeq	r0, r0, r4, lsr #32
    4240:	00000173 	andeq	r0, r0, r3, ror r1
    4244:	01006910 	tsteq	r0, r0, lsl r9
    4248:	00002519 	andeq	r2, r0, r9, lsl r5
    424c:	0024bb00 	eoreq	fp, r4, r0, lsl #22
    4250:	28110000 	ldmdacs	r1, {}	; <UNPREDICTABLE>
    4254:	1f00009c 	svcne	0x0000009c
    4258:	90000005 	andls	r0, r0, r5
    425c:	12000001 	andne	r0, r0, #1
    4260:	09025101 	stmdbeq	r2, {r0, r8, ip, lr}
    4264:	500112ff 	strdpl	r1, [r1], -pc	; <UNPREDICTABLE>
    4268:	b21c0c05 	andslt	r0, ip, #1280	; 0x500
    426c:	11002000 	mrsne	r2, (UNDEF: 0)
    4270:	00009c34 	andeq	r9, r0, r4, lsr ip
    4274:	0000051f 	andeq	r0, r0, pc, lsl r5
    4278:	000001ad 	andeq	r0, r0, sp, lsr #3
    427c:	02510112 	subseq	r0, r1, #-2147483644	; 0x80000004
    4280:	0112ff09 	tsteq	r2, r9, lsl #30
    4284:	200c0550 	andcs	r0, ip, r0, asr r5
    4288:	002000b2 	strhteq	r0, [r0], -r2
    428c:	009c3813 	addseq	r3, ip, r3, lsl r8
    4290:	00053500 	andeq	r3, r5, r0, lsl #10
    4294:	04040000 	streq	r0, [r4], #-0
    4298:	0000002c 	andeq	r0, r0, ip, lsr #32
    429c:	000cb70a 	andeq	fp, ip, sl, lsl #14
    42a0:	801f0100 	andshi	r0, pc, r0, lsl #2
    42a4:	3c00009c 	stccc	0, cr0, [r0], {156}	; 0x9c
    42a8:	01000000 	mrseq	r0, (UNDEF: 0)
    42ac:	00023a9c 	muleq	r2, ip, sl
    42b0:	63701400 	cmnvs	r0, #0, 8
    42b4:	2c1f0100 	ldfcss	f0, [pc], {-0}
    42b8:	da000000 	ble	42c0 <_start-0x3d40>
    42bc:	15000024 	strne	r0, [r0, #-36]	; 0x24
    42c0:	00000193 	muleq	r0, r3, r1
    42c4:	0000024a 	andeq	r0, r0, sl, asr #4
    42c8:	a39c0305 	orrsge	r0, ip, #335544320	; 0x14000000
    42cc:	a8110000 	ldmdage	r1, {}	; <UNPREDICTABLE>
    42d0:	3c00009c 	stccc	0, cr0, [r0], {156}	; 0x9c
    42d4:	30000005 	andcc	r0, r0, r5
    42d8:	12000002 	andne	r0, r0, #2
    42dc:	08025301 	stmdaeq	r2, {r0, r8, r9, ip, lr}
    42e0:	52011220 	andpl	r1, r1, #32, 4
    42e4:	a39c0305 	orrsge	r0, ip, #335544320	; 0x14000000
    42e8:	01120000 	tsteq	r2, r0
    42ec:	68030551 	stmdavs	r3, {r0, r4, r6, r8, sl}
    42f0:	120000a4 	andne	r0, r0, #164	; 0xa4
    42f4:	03055001 	movweq	r5, #20481	; 0x5001
    42f8:	0000a42c 	andeq	sl, r0, ip, lsr #8
    42fc:	047d0212 	ldrbteq	r0, [sp], #-530	; 0x212
    4300:	5001f303 	andpl	pc, r1, r3, lsl #6
    4304:	007d0212 	rsbseq	r0, sp, r2, lsl r2
    4308:	a4880305 	strge	r0, [r8], #773	; 0x305
    430c:	13000000 	movwne	r0, #0
    4310:	00009cac 	andeq	r9, r0, ip, lsr #25
    4314:	00000552 	andeq	r0, r0, r2, asr r5
    4318:	00720600 	rsbseq	r0, r2, r0, lsl #12
    431c:	024a0000 	subeq	r0, sl, #0
    4320:	6b070000 	blvs	1c4328 <__bss_end__+0x1b59e8>
    4324:	15000000 	strne	r0, [r0, #-0]
    4328:	023a0500 	eorseq	r0, sl, #0, 10
    432c:	7f0a0000 	svcvc	0x000a0000
    4330:	0100000c 	tsteq	r0, ip
    4334:	009cbc24 	addseq	fp, ip, r4, lsr #24
    4338:	00003c00 	andeq	r3, r0, r0, lsl #24
    433c:	cc9c0100 	ldfgts	f0, [ip], {0}
    4340:	14000002 	strne	r0, [r0], #-2
    4344:	01006370 	tsteq	r0, r0, ror r3
    4348:	00002c24 	andeq	r2, r0, r4, lsr #24
    434c:	00250700 	eoreq	r0, r5, r0, lsl #14
    4350:	01931500 	orrseq	r1, r3, r0, lsl #10
    4354:	02cc0000 	sbceq	r0, ip, #0
    4358:	03050000 	movweq	r0, #20480	; 0x5000
    435c:	0000a3b4 			; <UNDEFINED> instruction: 0x0000a3b4
    4360:	009ce411 	addseq	lr, ip, r1, lsl r4
    4364:	00053c00 	andeq	r3, r5, r0, lsl #24
    4368:	0002c200 	andeq	ip, r2, r0, lsl #4
    436c:	53011200 	movwpl	r1, #4608	; 0x1200
    4370:	12250802 	eorne	r0, r5, #131072	; 0x20000
    4374:	03055201 	movweq	r5, #20993	; 0x5201
    4378:	0000a3b4 			; <UNDEFINED> instruction: 0x0000a3b4
    437c:	05510112 	ldrbeq	r0, [r1, #-274]	; 0x112
    4380:	00a46803 	adceq	r6, r4, r3, lsl #16
    4384:	50011200 	andpl	r1, r1, r0, lsl #4
    4388:	a42c0305 	strtge	r0, [ip], #-773	; 0x305
    438c:	02120000 	andseq	r0, r2, #0
    4390:	f303047d 	vqshl.u8	q0, <illegal reg q14.5>, <illegal reg q1.5>
    4394:	02125001 	andseq	r5, r2, #1
    4398:	0305007d 	movweq	r0, #20605	; 0x507d
    439c:	0000a490 	muleq	r0, r0, r4
    43a0:	9ce81300 	stclls	3, cr1, [r8]
    43a4:	05520000 	ldrbeq	r0, [r2, #-0]
    43a8:	05000000 	streq	r0, [r0, #-0]
    43ac:	00000084 	andeq	r0, r0, r4, lsl #1
    43b0:	000c720a 	andeq	r7, ip, sl, lsl #4
    43b4:	f8270100 			; <UNDEFINED> instruction: 0xf8270100
    43b8:	3c00009c 	stccc	0, cr0, [r0], {156}	; 0x9c
    43bc:	01000000 	mrseq	r0, (UNDEF: 0)
    43c0:	00034e9c 	muleq	r3, ip, lr
    43c4:	63701400 	cmnvs	r0, #0, 8
    43c8:	2c270100 	stfcss	f0, [r7], #-0
    43cc:	34000000 	strcc	r0, [r0], #-0
    43d0:	15000025 	strne	r0, [r0, #-37]	; 0x25
    43d4:	00000193 	muleq	r0, r3, r1
    43d8:	0000035e 	andeq	r0, r0, lr, asr r3
    43dc:	a3d00305 	bicsge	r0, r0, #335544320	; 0x14000000
    43e0:	20110000 	andscs	r0, r1, r0
    43e4:	3c00009d 	stccc	0, cr0, [r0], {157}	; 0x9d
    43e8:	44000005 	strmi	r0, [r0], #-5
    43ec:	12000003 	andne	r0, r0, #3
    43f0:	08025301 	stmdaeq	r2, {r0, r8, r9, ip, lr}
    43f4:	52011228 	andpl	r1, r1, #40, 4	; 0x80000002
    43f8:	a3d00305 	bicsge	r0, r0, #335544320	; 0x14000000
    43fc:	01120000 	tsteq	r2, r0
    4400:	68030551 	stmdavs	r3, {r0, r4, r6, r8, sl}
    4404:	120000a4 	andne	r0, r0, #164	; 0xa4
    4408:	03055001 	movweq	r5, #20481	; 0x5001
    440c:	0000a42c 	andeq	sl, r0, ip, lsr #8
    4410:	047d0212 	ldrbteq	r0, [sp], #-530	; 0x212
    4414:	5001f303 	andpl	pc, r1, r3, lsl #6
    4418:	007d0212 	rsbseq	r0, sp, r2, lsl r2
    441c:	a4a00305 	strtge	r0, [r0], #773	; 0x305
    4420:	13000000 	movwne	r0, #0
    4424:	00009d24 	andeq	r9, r0, r4, lsr #26
    4428:	00000552 	andeq	r0, r0, r2, asr r5
    442c:	00720600 	rsbseq	r0, r2, r0, lsl #12
    4430:	035e0000 	cmpeq	lr, #0
    4434:	6b070000 	blvs	1c443c <__bss_end__+0x1b5afc>
    4438:	0c000000 	stceq	0, cr0, [r0], {-0}
    443c:	034e0500 	movteq	r0, #58624	; 0xe500
    4440:	550a0000 	strpl	r0, [sl, #-0]
    4444:	0100000c 	tsteq	r0, ip
    4448:	009d342a 	addseq	r3, sp, sl, lsr #8
    444c:	00003c00 	andeq	r3, r0, r0, lsl #24
    4450:	e09c0100 	adds	r0, ip, r0, lsl #2
    4454:	14000003 	strne	r0, [r0], #-3
    4458:	01006370 	tsteq	r0, r0, ror r3
    445c:	00002c2a 	andeq	r2, r0, sl, lsr #24
    4460:	00256100 	eoreq	r6, r5, r0, lsl #2
    4464:	01931500 	orrseq	r1, r3, r0, lsl #10
    4468:	03f00000 	mvnseq	r0, #0
    446c:	03050000 	movweq	r0, #20480	; 0x5000
    4470:	0000a3e0 	andeq	sl, r0, r0, ror #7
    4474:	009d5c11 	addseq	r5, sp, r1, lsl ip
    4478:	00053c00 	andeq	r3, r5, r0, lsl #24
    447c:	0003d600 	andeq	sp, r3, r0, lsl #12
    4480:	53011200 	movwpl	r1, #4608	; 0x1200
    4484:	122b0802 	eorne	r0, fp, #131072	; 0x20000
    4488:	03055201 	movweq	r5, #20993	; 0x5201
    448c:	0000a3e0 	andeq	sl, r0, r0, ror #7
    4490:	05510112 	ldrbeq	r0, [r1, #-274]	; 0x112
    4494:	00a46803 	adceq	r6, r4, r3, lsl #16
    4498:	50011200 	andpl	r1, r1, r0, lsl #4
    449c:	a42c0305 	strtge	r0, [ip], #-773	; 0x305
    44a0:	02120000 	andseq	r0, r2, #0
    44a4:	f303047d 	vqshl.u8	q0, <illegal reg q14.5>, <illegal reg q1.5>
    44a8:	02125001 	andseq	r5, r2, #1
    44ac:	0305007d 	movweq	r0, #20605	; 0x507d
    44b0:	0000a4b0 			; <UNDEFINED> instruction: 0x0000a4b0
    44b4:	9d601300 	stclls	3, cr1, [r0, #-0]
    44b8:	05520000 	ldrbeq	r0, [r2, #-0]
    44bc:	06000000 	streq	r0, [r0], -r0
    44c0:	00000072 	andeq	r0, r0, r2, ror r0
    44c4:	000003f0 	strdeq	r0, [r0], -r0	; <UNPREDICTABLE>
    44c8:	00006b07 	andeq	r6, r0, r7, lsl #22
    44cc:	05001c00 	streq	r1, [r0, #-3072]	; 0xc00
    44d0:	000003e0 	andeq	r0, r0, r0, ror #7
    44d4:	000b6c0a 	andeq	r6, fp, sl, lsl #24
    44d8:	702d0100 	eorvc	r0, sp, r0, lsl #2
    44dc:	3c00009d 	stccc	0, cr0, [r0], {157}	; 0x9d
    44e0:	01000000 	mrseq	r0, (UNDEF: 0)
    44e4:	0004729c 	muleq	r4, ip, r2
    44e8:	63701400 	cmnvs	r0, #0, 8
    44ec:	2c2d0100 	stfcss	f0, [sp], #-0
    44f0:	8e000000 	cdphi	0, 0, cr0, cr0, cr0, {0}
    44f4:	15000025 	strne	r0, [r0, #-37]	; 0x25
    44f8:	00000193 	muleq	r0, r3, r1
    44fc:	00000472 	andeq	r0, r0, r2, ror r4
    4500:	a4000305 	strge	r0, [r0], #-773	; 0x305
    4504:	98110000 	ldmdals	r1, {}	; <UNPREDICTABLE>
    4508:	3c00009d 	stccc	0, cr0, [r0], {157}	; 0x9d
    450c:	68000005 	stmdavs	r0, {r0, r2}
    4510:	12000004 	andne	r0, r0, #4
    4514:	08025301 	stmdaeq	r2, {r0, r8, r9, ip, lr}
    4518:	5201122e 	andpl	r1, r1, #-536870910	; 0xe0000002
    451c:	a4000305 	strge	r0, [r0], #-773	; 0x305
    4520:	01120000 	tsteq	r2, r0
    4524:	68030551 	stmdavs	r3, {r0, r4, r6, r8, sl}
    4528:	120000a4 	andne	r0, r0, #164	; 0xa4
    452c:	03055001 	movweq	r5, #20481	; 0x5001
    4530:	0000a42c 	andeq	sl, r0, ip, lsr #8
    4534:	047d0212 	ldrbteq	r0, [sp], #-530	; 0x212
    4538:	5001f303 	andpl	pc, r1, r3, lsl #6
    453c:	007d0212 	rsbseq	r0, sp, r2, lsl r2
    4540:	a4c80305 	strbge	r0, [r8], #773	; 0x305
    4544:	13000000 	movwne	r0, #0
    4548:	00009d9c 	muleq	r0, ip, sp
    454c:	00000552 	andeq	r0, r0, r2, asr r5
    4550:	023a0500 	eorseq	r0, sl, #0, 10
    4554:	070a0000 	streq	r0, [sl, -r0]
    4558:	0100000c 	tsteq	r0, ip
    455c:	009dac30 	addseq	sl, sp, r0, lsr ip
    4560:	00003c00 	andeq	r3, r0, r0, lsl #24
    4564:	f49c0100 			; <UNDEFINED> instruction: 0xf49c0100
    4568:	14000004 	strne	r0, [r0], #-4
    456c:	01006370 	tsteq	r0, r0, ror r3
    4570:	00002c30 	andeq	r2, r0, r0, lsr ip
    4574:	0025bb00 	eoreq	fp, r5, r0, lsl #22
    4578:	01931500 	orrseq	r1, r3, r0, lsl #10
    457c:	05040000 	streq	r0, [r4, #-0]
    4580:	03050000 	movweq	r0, #20480	; 0x5000
    4584:	0000a418 	andeq	sl, r0, r8, lsl r4
    4588:	009dd411 	addseq	sp, sp, r1, lsl r4
    458c:	00053c00 	andeq	r3, r5, r0, lsl #24
    4590:	0004ea00 	andeq	lr, r4, r0, lsl #20
    4594:	53011200 	movwpl	r1, #4608	; 0x1200
    4598:	12310802 	eorsne	r0, r1, #131072	; 0x20000
    459c:	03055201 	movweq	r5, #20993	; 0x5201
    45a0:	0000a418 	andeq	sl, r0, r8, lsl r4
    45a4:	05510112 	ldrbeq	r0, [r1, #-274]	; 0x112
    45a8:	00a46803 	adceq	r6, r4, r3, lsl #16
    45ac:	50011200 	andpl	r1, r1, r0, lsl #4
    45b0:	a42c0305 	strtge	r0, [ip], #-773	; 0x305
    45b4:	02120000 	andseq	r0, r2, #0
    45b8:	f303047d 	vqshl.u8	q0, <illegal reg q14.5>, <illegal reg q1.5>
    45bc:	02125001 	andseq	r5, r2, #1
    45c0:	0305007d 	movweq	r0, #20605	; 0x507d
    45c4:	0000a4d8 	ldrdeq	sl, [r0], -r8
    45c8:	9dd81300 	ldclls	3, cr1, [r8]
    45cc:	05520000 	ldrbeq	r0, [r2, #-0]
    45d0:	06000000 	streq	r0, [r0], -r0
    45d4:	00000072 	andeq	r0, r0, r2, ror r0
    45d8:	00000504 	andeq	r0, r0, r4, lsl #10
    45dc:	00006b07 	andeq	r6, r0, r7, lsl #22
    45e0:	05001100 	streq	r1, [r0, #-256]	; 0x100
    45e4:	000004f4 	strdeq	r0, [r0], -r4
    45e8:	000ba10b 	andeq	sl, fp, fp, lsl #2
    45ec:	2c110100 	ldfcss	f0, [r1], {-0}
    45f0:	0b000000 	bleq	45f8 <_start-0x3a08>
    45f4:	00000bf2 	strdeq	r0, [r0], -r2
    45f8:	002c1201 	eoreq	r1, ip, r1, lsl #4
    45fc:	1c160000 	ldcne	0, cr0, [r6], {-0}
    4600:	02000008 	andeq	r0, r0, #8
    4604:	00053597 	muleq	r5, r7, r5
    4608:	002c1700 	eoreq	r1, ip, r0, lsl #14
    460c:	2c170000 	ldccs	0, cr0, [r7], {-0}
    4610:	00000000 	andeq	r0, r0, r0
    4614:	00042618 	andeq	r2, r4, r8, lsl r6
    4618:	19850200 	stmibne	r5, {r9}
    461c:	00000601 	andeq	r0, r0, r1, lsl #12
    4620:	00252702 	eoreq	r2, r5, r2, lsl #14
    4624:	05520000 	ldrbeq	r0, [r2, #-0]
    4628:	79170000 	ldmdbvc	r7, {}	; <UNPREDICTABLE>
    462c:	1a000000 	bne	4634 <_start-0x39cc>
    4630:	02961800 	addseq	r1, r6, #0, 16
    4634:	64020000 	strvs	r0, [r2], #-0
    4638:	0000e000 	andeq	lr, r0, r0
    463c:	8b000400 	blhi	5644 <_start-0x29bc>
    4640:	04000013 	streq	r0, [r0], #-19
    4644:	0003a201 	andeq	sl, r3, r1, lsl #4
    4648:	0ce70100 	stfeqe	f0, [r7]
    464c:	059d0000 	ldreq	r0, [sp]
    4650:	9f240000 	svcls	0x00240000
    4654:	00140000 	andseq	r0, r4, r0
    4658:	12760000 	rsbsne	r0, r6, #0
    465c:	04020000 	streq	r0, [r2], #-0
    4660:	746e6905 	strbtvc	r6, [lr], #-2309	; 0x905
    4664:	07040300 	streq	r0, [r4, -r0, lsl #6]
    4668:	00000064 	andeq	r0, r0, r4, rrx
    466c:	56060103 	strpl	r0, [r6], -r3, lsl #2
    4670:	03000003 	movweq	r0, #3
    4674:	036a0502 	cmneq	sl, #8388608	; 0x800000
    4678:	04030000 	streq	r0, [r3], #-0
    467c:	0000a305 	andeq	sl, r0, r5, lsl #6
    4680:	05080300 	streq	r0, [r8, #-768]	; 0x300
    4684:	0000009e 	muleq	r0, lr, r0
    4688:	54080103 	strpl	r0, [r8], #-259	; 0x103
    468c:	03000003 	movweq	r0, #3
    4690:	021f0702 	andseq	r0, pc, #524288	; 0x80000
    4694:	04030000 	streq	r0, [r3], #-0
    4698:	00005f07 	andeq	r5, r0, r7, lsl #30
    469c:	07080300 	streq	r0, [r8, -r0, lsl #6]
    46a0:	0000005a 	andeq	r0, r0, sl, asr r0
    46a4:	a8070403 	stmdage	r7, {r0, r1, sl}
    46a8:	03000002 	movweq	r0, #2
    46ac:	035d0801 	cmpeq	sp, #65536	; 0x10000
    46b0:	d6040000 	strle	r0, [r4], -r0
    46b4:	0100000c 	tsteq	r0, ip
    46b8:	00002503 	andeq	r2, r0, r3, lsl #10
    46bc:	009f2400 	addseq	r2, pc, r0, lsl #8
    46c0:	00001400 	andeq	r1, r0, r0, lsl #8
    46c4:	b09c0100 	addslt	r0, ip, r0, lsl #2
    46c8:	05000000 	streq	r0, [r0, #-0]
    46cc:	03010063 	movweq	r0, #4195	; 0x1063
    46d0:	00000025 	andeq	r0, r0, r5, lsr #32
    46d4:	000025e8 	andeq	r2, r0, r8, ror #11
    46d8:	009f3006 	addseq	r3, pc, r6
    46dc:	0000d600 	andeq	sp, r0, r0, lsl #12
    46e0:	50010700 	andpl	r0, r1, r0, lsl #14
    46e4:	00007402 	andeq	r7, r0, r2, lsl #8
    46e8:	00250800 	eoreq	r0, r5, r0, lsl #16
    46ec:	00bf0000 	adcseq	r0, pc, r0
    46f0:	25090000 	strcs	r0, [r9, #-0]
    46f4:	00000000 	andeq	r0, r0, r0
    46f8:	0006360a 	andeq	r3, r6, sl, lsl #12
    46fc:	d0060100 	andle	r0, r6, r0, lsl #2
    4700:	05000000 	streq	r0, [r0, #-0]
    4704:	00a02003 	adceq	r2, r0, r3
    4708:	b0040b00 	andlt	r0, r4, r0, lsl #22
    470c:	0c000000 	stceq	0, cr0, [r0], {-0}
    4710:	00000252 	andeq	r0, r0, r2, asr r2
    4714:	2c093a02 	stccs	10, cr3, [r9], {2}
    4718:	00000000 	andeq	r0, r0, r0
    471c:	0001c300 	andeq	ip, r1, r0, lsl #6
    4720:	32000400 	andcc	r0, r0, #0, 8
    4724:	04000014 	streq	r0, [r0], #-20
    4728:	0003a201 	andeq	sl, r3, r1, lsl #4
    472c:	0cfd0100 	ldfeqe	f0, [sp]
    4730:	059d0000 	ldreq	r0, [sp]
    4734:	9f380000 	svcls	0x00380000
    4738:	00500000 	subseq	r0, r0, r0
    473c:	13000000 	movwne	r0, #0
    4740:	04020000 	streq	r0, [r2], #-0
    4744:	746e6905 	strbtvc	r6, [lr], #-2309	; 0x905
    4748:	000e0300 	andeq	r0, lr, r0, lsl #6
    474c:	d4020000 	strle	r0, [r2], #-0
    4750:	00000037 	andeq	r0, r0, r7, lsr r0
    4754:	64070404 	strvs	r0, [r7], #-1028	; 0x404
    4758:	04000000 	streq	r0, [r0], #-0
    475c:	03560601 	cmpeq	r6, #1048576	; 0x100000
    4760:	02040000 	andeq	r0, r4, #0
    4764:	00036a05 	andeq	r6, r3, r5, lsl #20
    4768:	05040400 	streq	r0, [r4, #-1024]	; 0x400
    476c:	000000a3 	andeq	r0, r0, r3, lsr #1
    4770:	9e050804 	cdpls	8, 0, cr0, cr5, cr4, {0}
    4774:	03000000 	movweq	r0, #0
    4778:	000004a4 	andeq	r0, r0, r4, lsr #9
    477c:	00652e03 	rsbeq	r2, r5, r3, lsl #28
    4780:	01040000 	mrseq	r0, (UNDEF: 4)
    4784:	00035408 	andeq	r5, r3, r8, lsl #8
    4788:	07020400 	streq	r0, [r2, -r0, lsl #8]
    478c:	0000021f 	andeq	r0, r0, pc, lsl r2
    4790:	00039403 	andeq	r9, r3, r3, lsl #8
    4794:	7e340300 	cdpvc	3, 3, cr0, cr4, cr0, {0}
    4798:	04000000 	streq	r0, [r0], #-0
    479c:	005f0704 	subseq	r0, pc, r4, lsl #14
    47a0:	08040000 	stmdaeq	r4, {}	; <UNPREDICTABLE>
    47a4:	00005a07 	andeq	r5, r0, r7, lsl #20
    47a8:	07040400 	streq	r0, [r4, -r0, lsl #8]
    47ac:	000002a8 	andeq	r0, r0, r8, lsr #5
    47b0:	01040405 	tsteq	r4, r5, lsl #8
    47b4:	00035d08 	andeq	r5, r3, r8, lsl #26
    47b8:	040c0600 	streq	r0, [ip], #-1536	; 0x600
    47bc:	0000d30e 	andeq	sp, r0, lr, lsl #6
    47c0:	78740700 	ldmdavc	r4!, {r8, r9, sl}^
    47c4:	5a0f0400 	bpl	3c57cc <__bss_end__+0x3b6e8c>
    47c8:	00000000 	andeq	r0, r0, r0
    47cc:	00787207 	rsbseq	r7, r8, r7, lsl #4
    47d0:	005a0f04 	subseq	r0, sl, r4, lsl #30
    47d4:	08010000 	stmdaeq	r1, {}	; <UNPREDICTABLE>
    47d8:	0000039d 	muleq	r0, sp, r3
    47dc:	00731004 	rsbseq	r1, r3, r4
    47e0:	08040000 	stmdaeq	r4, {}	; <UNPREDICTABLE>
    47e4:	00000090 	muleq	r0, r0, r0
    47e8:	00731104 	rsbseq	r1, r3, r4, lsl #2
    47ec:	00080000 	andeq	r0, r8, r0
    47f0:	00033803 	andeq	r3, r3, r3, lsl #16
    47f4:	9c120400 	cfldrsls	mvf0, [r2], {-0}
    47f8:	09000000 	stmdbeq	r0, {}	; <UNPREDICTABLE>
    47fc:	f9100501 			; <UNDEFINED> instruction: 0xf9100501
    4800:	0a000000 	beq	4808 <_start-0x37f8>
    4804:	00000751 	andeq	r0, r0, r1, asr r7
    4808:	07440a01 	strbeq	r0, [r4, -r1, lsl #20]
    480c:	0a020000 	beq	84814 <__bss_end__+0x75ed4>
    4810:	00000736 	andeq	r0, r0, r6, lsr r7
    4814:	66030003 	strvs	r0, [r3], -r3
    4818:	05000007 	streq	r0, [r0, #-7]
    481c:	0000de10 	andeq	sp, r0, r0, lsl lr
    4820:	05140600 	ldreq	r0, [r4, #-1536]	; 0x600
    4824:	00013114 	andeq	r3, r1, r4, lsl r1
    4828:	07b80800 	ldreq	r0, [r8, r0, lsl #16]!
    482c:	15050000 	strne	r0, [r5, #-0]
    4830:	00000037 	andeq	r0, r0, r7, lsr r0
    4834:	07ac0800 	streq	r0, [ip, r0, lsl #16]!
    4838:	18050000 	stmdane	r5, {}	; <UNPREDICTABLE>
    483c:	000000f9 	strdeq	r0, [r0], -r9
    4840:	017b0804 	cmneq	fp, r4, lsl #16
    4844:	1b050000 	blne	14484c <__bss_end__+0x135f0c>
    4848:	000000d3 	ldrdeq	r0, [r0], -r3
    484c:	71030008 	tstvc	r3, r8
    4850:	05000007 	streq	r0, [r0, #-7]
    4854:	00010420 	andeq	r0, r1, r0, lsr #8
    4858:	0cf60b00 	vldmiaeq	r6!, {d16-d15}
    485c:	05010000 	streq	r0, [r1, #-0]
    4860:	0000017e 	andeq	r0, r0, lr, ror r1
    4864:	00009f38 	andeq	r9, r0, r8, lsr pc
    4868:	00000028 	andeq	r0, r0, r8, lsr #32
    486c:	017e9c01 	cmneq	lr, r1, lsl #24
    4870:	630c0000 	movwvs	r0, #49152	; 0xc000
    4874:	7e060100 	adfvcs	f0, f6, f0
    4878:	00000001 	andeq	r0, r0, r1
    487c:	0d090000 	stceq	0, cr0, [r9, #-0]
    4880:	00009f4c 	andeq	r9, r0, ip, asr #30
    4884:	000001ab 	andeq	r0, r0, fp, lsr #3
    4888:	0152010e 	cmpeq	r2, lr, lsl #2
    488c:	51010e34 	tstpl	r1, r4, lsr lr
    4890:	010e3001 	tsteq	lr, r1
    4894:	47420350 	smlsldmi	r0, r2, r0, r3
    4898:	0f000024 	svceq	0x00000024
    489c:	00013104 	andeq	r3, r1, r4, lsl #2
    48a0:	077f0b00 	ldrbeq	r0, [pc, -r0, lsl #22]!
    48a4:	0c010000 	stceq	0, cr0, [r1], {-0}
    48a8:	0000017e 	andeq	r0, r0, lr, ror r1
    48ac:	00009f60 	andeq	r9, r0, r0, ror #30
    48b0:	00000028 	andeq	r0, r0, r8, lsr #32
    48b4:	01ab9c01 			; <UNDEFINED> instruction: 0x01ab9c01
    48b8:	630c0000 	movwvs	r0, #49152	; 0xc000
    48bc:	7e0d0100 	adfvce	f0, f5, f0
    48c0:	00000001 	andeq	r0, r0, r1
    48c4:	00090000 	andeq	r0, r9, r0
    48c8:	00046a10 	andeq	r6, r4, r0, lsl sl
    48cc:	931b0600 	tstls	fp, #0, 12
    48d0:	11000000 	mrsne	r0, (UNDEF: 0)
    48d4:	00000093 	muleq	r0, r3, r0
    48d8:	00002511 	andeq	r2, r0, r1, lsl r5
    48dc:	002c1100 	eoreq	r1, ip, r0, lsl #2
    48e0:	00000000 	andeq	r0, r0, r0

Disassembly of section .debug_abbrev:

00000000 <.debug_abbrev>:
       0:	25011101 	strcs	r1, [r1, #-257]	; 0x101
       4:	030b130e 	movweq	r1, #45838	; 0xb30e
       8:	110e1b0e 	tstne	lr, lr, lsl #22
       c:	10061201 	andne	r1, r6, r1, lsl #4
      10:	02000017 	andeq	r0, r0, #23
      14:	0b0b0024 	bleq	2c00ac <__bss_end__+0x2b176c>
      18:	08030b3e 	stmdaeq	r3, {r1, r2, r3, r4, r5, r8, r9, fp}
      1c:	16030000 	strne	r0, [r3], -r0
      20:	3a0e0300 	bcc	380c28 <__bss_end__+0x3722e8>
      24:	490b3b0b 	stmdbmi	fp, {r0, r1, r3, r8, r9, fp, ip, sp}
      28:	04000013 	streq	r0, [r0], #-19
      2c:	0b0b0024 	bleq	2c00c4 <__bss_end__+0x2b1784>
      30:	0e030b3e 	vmoveq.16	d3[0], r0
      34:	0f050000 	svceq	0x00050000
      38:	000b0b00 	andeq	r0, fp, r0, lsl #22
      3c:	000f0600 	andeq	r0, pc, r0, lsl #12
      40:	13490b0b 	movtne	r0, #39691	; 0x9b0b
      44:	26070000 	strcs	r0, [r7], -r0
      48:	00134900 	andseq	r4, r3, r0, lsl #18
      4c:	01010800 	tsteq	r1, r0, lsl #16
      50:	13011349 	movwne	r1, #4937	; 0x1349
      54:	21090000 	mrscs	r0, (UNDEF: 9)
      58:	2f134900 	svccs	0x00134900
      5c:	0a00000b 	beq	90 <_start-0x7f70>
      60:	0b0b0104 	bleq	2c0478 <__bss_end__+0x2b1b38>
      64:	0b3b0b3a 	bleq	ec2d54 <__bss_end__+0xeb4414>
      68:	00001301 	andeq	r1, r0, r1, lsl #6
      6c:	0300280b 	movweq	r2, #2059	; 0x80b
      70:	000d1c0e 	andeq	r1, sp, lr, lsl #24
      74:	01130c00 	tsteq	r3, r0, lsl #24
      78:	0b3a050b 	bleq	e814ac <__bss_end__+0xe72b6c>
      7c:	13010b3b 	movwne	r0, #6971	; 0x1b3b
      80:	0d0d0000 	stceq	0, cr0, [sp, #-0]
      84:	3a0e0300 	bcc	380c8c <__bss_end__+0x37234c>
      88:	490b3b0b 	stmdbmi	fp, {r0, r1, r3, r8, r9, fp, ip, sp}
      8c:	000b3813 	andeq	r3, fp, r3, lsl r8
      90:	000d0e00 	andeq	r0, sp, r0, lsl #28
      94:	0b3a0e03 	bleq	e838a8 <__bss_end__+0xe74f68>
      98:	13490b3b 	movtne	r0, #39739	; 0x9b3b
      9c:	00000538 	andeq	r0, r0, r8, lsr r5
      a0:	03000d0f 	movweq	r0, #3343	; 0xd0f
      a4:	3b0b3a0e 	blcc	2ce8e4 <__bss_end__+0x2bffa4>
      a8:	0b13490b 	bleq	4d24dc <__bss_end__+0x4c3b9c>
      ac:	0c0b0d0b 	stceq	13, cr0, [fp], {11}
      b0:	0005380b 	andeq	r3, r5, fp, lsl #16
      b4:	00211000 	eoreq	r1, r1, r0
      b8:	052f1349 	streq	r1, [pc, #-841]!	; fffffd77 <__bss_end__+0xffff1437>
      bc:	35110000 	ldrcc	r0, [r1, #-0]
      c0:	00134900 	andseq	r4, r3, r0, lsl #18
      c4:	01131200 	tsteq	r3, r0, lsl #4
      c8:	0b3a0b0b 	bleq	e82cfc <__bss_end__+0xe743bc>
      cc:	13010b3b 	movwne	r0, #6971	; 0x1b3b
      d0:	0d130000 	ldceq	0, cr0, [r3, #-0]
      d4:	3a080300 	bcc	200cdc <__bss_end__+0x1f239c>
      d8:	490b3b0b 	stmdbmi	fp, {r0, r1, r3, r8, r9, fp, ip, sp}
      dc:	000b3813 	andeq	r3, fp, r3, lsl r8
      e0:	012e1400 	teqeq	lr, r0, lsl #8
      e4:	0b3a0e03 	bleq	e838f8 <__bss_end__+0xe74fb8>
      e8:	19270b3b 	stmdbne	r7!, {r0, r1, r3, r4, r5, r8, r9, fp}
      ec:	0b201349 	bleq	804e18 <__bss_end__+0x7f64d8>
      f0:	00001301 	andeq	r1, r0, r1, lsl #6
      f4:	03000515 	movweq	r0, #1301	; 0x515
      f8:	3b0b3a08 	blcc	2ce920 <__bss_end__+0x2bffe0>
      fc:	0013490b 	andseq	r4, r3, fp, lsl #18
     100:	00341600 	eorseq	r1, r4, r0, lsl #12
     104:	0b3a0e03 	bleq	e83918 <__bss_end__+0xe74fd8>
     108:	13490b3b 	movtne	r0, #39739	; 0x9b3b
     10c:	2e170000 	cdpcs	0, 1, cr0, cr7, cr0, {0}
     110:	3a0e0301 	bcc	380d1c <__bss_end__+0x3723dc>
     114:	270b3b0b 	strcs	r3, [fp, -fp, lsl #22]
     118:	12011119 	andne	r1, r1, #1073741830	; 0x40000006
     11c:	97184006 	ldrls	r4, [r8, -r6]
     120:	13011942 	movwne	r1, #6466	; 0x1942
     124:	05180000 	ldreq	r0, [r8, #-0]
     128:	3a080300 	bcc	200d30 <__bss_end__+0x1f23f0>
     12c:	490b3b0b 	stmdbmi	fp, {r0, r1, r3, r8, r9, fp, ip, sp}
     130:	00170213 	andseq	r0, r7, r3, lsl r2
     134:	00051900 	andeq	r1, r5, r0, lsl #18
     138:	0b3a0e03 	bleq	e8394c <__bss_end__+0xe7500c>
     13c:	13490b3b 	movtne	r0, #39739	; 0x9b3b
     140:	00001702 	andeq	r1, r0, r2, lsl #14
     144:	0300341a 	movweq	r3, #1050	; 0x41a
     148:	3413490e 	ldrcc	r4, [r3], #-2318	; 0x90e
     14c:	00180219 	andseq	r0, r8, r9, lsl r2
     150:	00341b00 	eorseq	r1, r4, r0, lsl #22
     154:	0b3a0803 	bleq	e82168 <__bss_end__+0xe73828>
     158:	13490b3b 	movtne	r0, #39739	; 0x9b3b
     15c:	00001702 	andeq	r1, r0, r2, lsl #14
     160:	31011d1c 	tstcc	r1, ip, lsl sp
     164:	12011113 	andne	r1, r1, #-1073741820	; 0xc0000004
     168:	590b5806 	stmdbpl	fp, {r1, r2, fp, ip, lr}
     16c:	0013010b 	andseq	r0, r3, fp, lsl #2
     170:	00051d00 	andeq	r1, r5, r0, lsl #26
     174:	18021331 	stmdane	r2, {r0, r4, r5, r8, r9, ip}
     178:	1d1e0000 	ldcne	0, cr0, [lr, #-0]
     17c:	52133101 	andspl	r3, r3, #1073741824	; 0x40000000
     180:	58175501 	ldmdapl	r7, {r0, r8, sl, ip, lr}
     184:	010b590b 	tsteq	fp, fp, lsl #18
     188:	1f000013 	svcne	0x00000013
     18c:	1755010b 	ldrbne	r0, [r5, -fp, lsl #2]
     190:	34200000 	strtcc	r0, [r0], #-0
     194:	02133100 	andseq	r3, r3, #0, 2
     198:	21000017 	tstcs	r0, r7, lsl r0
     19c:	1331011d 	teqne	r1, #1073741831	; 0x40000007
     1a0:	06120111 			; <UNDEFINED> instruction: 0x06120111
     1a4:	0b590b58 	bleq	1642f0c <__bss_end__+0x16345cc>
     1a8:	89220000 	stmdbhi	r2!, {}	; <UNPREDICTABLE>
     1ac:	11010182 	smlabbne	r1, r2, r1, r0
     1b0:	01133101 	tsteq	r3, r1, lsl #2
     1b4:	23000013 	movwcs	r0, #19
     1b8:	0001828a 	andeq	r8, r1, sl, lsl #5
     1bc:	42911802 	addsmi	r1, r1, #131072	; 0x20000
     1c0:	24000018 	strcs	r0, [r0], #-24
     1c4:	00018289 	andeq	r8, r1, r9, lsl #5
     1c8:	13310111 	teqne	r1, #1073741828	; 0x40000004
     1cc:	2e250000 	cdpcs	0, 2, cr0, cr5, cr0, {0}
     1d0:	03193f01 	tsteq	r9, #1, 30
     1d4:	3b0b3a0e 	blcc	2cea14 <__bss_end__+0x2c00d4>
     1d8:	4919270b 	ldmdbmi	r9, {r0, r1, r3, r8, r9, sl, sp}
     1dc:	12011113 	andne	r1, r1, #-1073741820	; 0xc0000004
     1e0:	97184006 	ldrls	r4, [r8, -r6]
     1e4:	13011942 	movwne	r1, #6466	; 0x1942
     1e8:	34260000 	strtcc	r0, [r6], #-0
     1ec:	3a0e0300 	bcc	380df4 <__bss_end__+0x3724b4>
     1f0:	490b3b0b 	stmdbmi	fp, {r0, r1, r3, r8, r9, fp, ip, sp}
     1f4:	00170213 	andseq	r0, r7, r3, lsl r2
     1f8:	82892700 	addhi	r2, r9, #0, 14
     1fc:	01110101 	tsteq	r1, r1, lsl #2
     200:	00001331 	andeq	r1, r0, r1, lsr r3
     204:	3f012e28 	svccc	0x00012e28
     208:	3a0e0319 	bcc	380e74 <__bss_end__+0x372534>
     20c:	270b3b0b 	strcs	r3, [fp, -fp, lsl #22]
     210:	12011119 	andne	r1, r1, #1073741830	; 0x40000006
     214:	97184006 	ldrls	r4, [r8, -r6]
     218:	13011942 	movwne	r1, #6466	; 0x1942
     21c:	05290000 	streq	r0, [r9, #-0]!
     220:	02133100 	andseq	r3, r3, #0, 2
     224:	2a000017 	bcs	288 <_start-0x7d78>
     228:	0111010b 	tsteq	r1, fp, lsl #2
     22c:	00000612 	andeq	r0, r0, r2, lsl r6
     230:	31011d2b 	tstcc	r1, fp, lsr #26
     234:	55015213 	strpl	r5, [r1, #-531]	; 0x213
     238:	590b5817 	stmdbpl	fp, {r0, r1, r2, r4, fp, ip, lr}
     23c:	2c00000b 	stccs	0, cr0, [r0], {11}
     240:	0111010b 	tsteq	r1, fp, lsl #2
     244:	13010612 	movwne	r0, #5650	; 0x1612
     248:	2e2d0000 	cdpcs	0, 2, cr0, cr13, cr0, {0}
     24c:	03193f01 	tsteq	r9, #1, 30
     250:	3b0b3a0e 	blcc	2cea90 <__bss_end__+0x2c0150>
     254:	1201110b 	andne	r1, r1, #-1073741822	; 0xc0000002
     258:	97184006 	ldrls	r4, [r8, -r6]
     25c:	13011942 	movwne	r1, #6466	; 0x1942
     260:	342e0000 	strtcc	r0, [lr], #-0
     264:	3a0e0300 	bcc	380e6c <__bss_end__+0x37252c>
     268:	490b3b0b 	stmdbmi	fp, {r0, r1, r3, r8, r9, fp, ip, sp}
     26c:	00061c13 	andeq	r1, r6, r3, lsl ip
     270:	00342f00 	eorseq	r2, r4, r0, lsl #30
     274:	0b3a0e03 	bleq	e83a88 <__bss_end__+0xe75148>
     278:	13490b3b 	movtne	r0, #39739	; 0x9b3b
     27c:	00001802 	andeq	r1, r0, r2, lsl #16
     280:	03003430 	movweq	r3, #1072	; 0x430
     284:	3b0b3a0e 	blcc	2ceac4 <__bss_end__+0x2c0184>
     288:	1c13490b 	ldcne	9, cr4, [r3], {11}
     28c:	3100000b 	tstcc	r0, fp
     290:	0e030034 	mcreq	0, 0, r0, cr3, cr4, {1}
     294:	0b3b0b3a 	bleq	ec2f84 <__bss_end__+0xeb4644>
     298:	193f1349 	ldmdbne	pc!, {r0, r3, r6, r8, r9, ip}	; <UNPREDICTABLE>
     29c:	00001802 	andeq	r1, r0, r2, lsl #16
     2a0:	3f012e32 	svccc	0x00012e32
     2a4:	3a0e0319 	bcc	380f10 <__bss_end__+0x3725d0>
     2a8:	270b3b0b 	strcs	r3, [fp, -fp, lsl #22]
     2ac:	3c134919 	ldccc	9, cr4, [r3], {25}
     2b0:	00130119 	andseq	r0, r3, r9, lsl r1
     2b4:	00053300 	andeq	r3, r5, r0, lsl #6
     2b8:	00001349 	andeq	r1, r0, r9, asr #6
     2bc:	00001834 	andeq	r1, r0, r4, lsr r8
     2c0:	002e3500 	eoreq	r3, lr, r0, lsl #10
     2c4:	0e03193f 	mcreq	9, 0, r1, cr3, cr15, {1}
     2c8:	0b3b0b3a 	bleq	ec2fb8 <__bss_end__+0xeb4678>
     2cc:	193c1927 	ldmdbne	ip!, {r0, r1, r2, r5, r8, fp, ip}
     2d0:	35360000 	ldrcc	r0, [r6, #-0]!
     2d4:	37000000 	strcc	r0, [r0, -r0]
     2d8:	193f012e 	ldmdbne	pc!, {r1, r2, r3, r5, r8}	; <UNPREDICTABLE>
     2dc:	0b3a0e03 	bleq	e83af0 <__bss_end__+0xe751b0>
     2e0:	19270b3b 	stmdbne	r7!, {r0, r1, r3, r4, r5, r8, r9, fp}
     2e4:	1301193c 	movwne	r1, #6460	; 0x193c
     2e8:	2e380000 	cdpcs	0, 3, cr0, cr8, cr0, {0}
     2ec:	03193f00 	tsteq	r9, #0, 30
     2f0:	3b0b3a0e 	blcc	2ceb30 <__bss_end__+0x2c01f0>
     2f4:	4919270b 	ldmdbmi	r9, {r0, r1, r3, r8, r9, sl, sp}
     2f8:	00193c13 	andseq	r3, r9, r3, lsl ip
     2fc:	11010000 	mrsne	r0, (UNDEF: 1)
     300:	130e2501 	movwne	r2, #58625	; 0xe501
     304:	1b0e030b 	blne	380f38 <__bss_end__+0x3725f8>
     308:	1201110e 	andne	r1, r1, #-2147483645	; 0x80000003
     30c:	00171006 	andseq	r1, r7, r6
     310:	00240200 	eoreq	r0, r4, r0, lsl #4
     314:	0b3e0b0b 	bleq	f82f48 <__bss_end__+0xf74608>
     318:	00000e03 	andeq	r0, r0, r3, lsl #28
     31c:	0b002403 	bleq	9330 <gpio_int_rising_edge+0x58>
     320:	030b3e0b 	movweq	r3, #48651	; 0xbe0b
     324:	04000008 	streq	r0, [r0], #-8
     328:	0b0b000f 	bleq	2c036c <__bss_end__+0x2b1a2c>
     32c:	0f050000 	svceq	0x00050000
     330:	490b0b00 	stmdbmi	fp, {r8, r9, fp}
     334:	06000013 			; <UNDEFINED> instruction: 0x06000013
     338:	0e030016 	mcreq	0, 0, r0, cr3, cr6, {0}
     33c:	0b3b0b3a 	bleq	ec302c <__bss_end__+0xeb46ec>
     340:	00001349 	andeq	r1, r0, r9, asr #6
     344:	3f012e07 	svccc	0x00012e07
     348:	3a0e0319 	bcc	380fb4 <__bss_end__+0x372674>
     34c:	270b3b0b 	strcs	r3, [fp, -fp, lsl #22]
     350:	11134919 	tstne	r3, r9, lsl r9
     354:	40061201 	andmi	r1, r6, r1, lsl #4
     358:	19429718 	stmdbne	r2, {r3, r4, r8, r9, sl, ip, pc}^
     35c:	05080000 	streq	r0, [r8, #-0]
     360:	3a080300 	bcc	200f68 <__bss_end__+0x1f2628>
     364:	490b3b0b 	stmdbmi	fp, {r0, r1, r3, r8, r9, fp, ip, sp}
     368:	00180213 	andseq	r0, r8, r3, lsl r2
     36c:	00050900 	andeq	r0, r5, r0, lsl #18
     370:	0b3a0803 	bleq	e82384 <__bss_end__+0xe73a44>
     374:	13490b3b 	movtne	r0, #39739	; 0x9b3b
     378:	00001702 	andeq	r1, r0, r2, lsl #14
     37c:	0300340a 	movweq	r3, #1034	; 0x40a
     380:	3b0b3a08 	blcc	2ceba8 <__bss_end__+0x2c0268>
     384:	0213490b 	andseq	r4, r3, #180224	; 0x2c000
     388:	0b000017 	bleq	3ec <_start-0x7c14>
     38c:	08030034 	stmdaeq	r3, {r2, r4, r5}
     390:	0b3b0b3a 	bleq	ec3080 <__bss_end__+0xeb4740>
     394:	18021349 	stmdane	r2, {r0, r3, r6, r8, r9, ip}
     398:	01000000 	mrseq	r0, (UNDEF: 0)
     39c:	0e250111 	mcreq	1, 1, r0, cr5, cr1, {0}
     3a0:	0e030b13 	vmoveq.32	d3[0], r0
     3a4:	01110e1b 	tsteq	r1, fp, lsl lr
     3a8:	17100612 			; <UNDEFINED> instruction: 0x17100612
     3ac:	16020000 	strne	r0, [r2], -r0
     3b0:	3a0e0300 	bcc	380fb8 <__bss_end__+0x372678>
     3b4:	490b3b0b 	stmdbmi	fp, {r0, r1, r3, r8, r9, fp, ip, sp}
     3b8:	03000013 	movweq	r0, #19
     3bc:	0e030113 	mcreq	1, 0, r0, cr3, cr3, {0}
     3c0:	0b3a0b0b 	bleq	e82ff4 <__bss_end__+0xe746b4>
     3c4:	13010b3b 	movwne	r0, #6971	; 0x1b3b
     3c8:	0d040000 	stceq	0, cr0, [r4, #-0]
     3cc:	490e0300 	stmdbmi	lr, {r8, r9}
     3d0:	340b3813 	strcc	r3, [fp], #-2067	; 0x813
     3d4:	05000019 	streq	r0, [r0, #-25]
     3d8:	0b0b000f 	bleq	2c041c <__bss_end__+0x2b1adc>
     3dc:	24060000 	strcs	r0, [r6], #-0
     3e0:	3e0b0b00 	vmlacc.f64	d0, d11, d0
     3e4:	0008030b 	andeq	r0, r8, fp, lsl #6
     3e8:	00240700 	eoreq	r0, r4, r0, lsl #14
     3ec:	0b3e0b0b 	bleq	f83020 <__bss_end__+0xf746e0>
     3f0:	00000e03 	andeq	r0, r0, r3, lsl #28
     3f4:	0b000f08 	bleq	401c <_start-0x3fe4>
     3f8:	0013490b 	andseq	r4, r3, fp, lsl #18
     3fc:	00260900 	eoreq	r0, r6, r0, lsl #18
     400:	00001349 	andeq	r1, r0, r9, asr #6
     404:	3f012e0a 	svccc	0x00012e0a
     408:	3a0e0319 	bcc	381074 <__bss_end__+0x372734>
     40c:	270b3b0b 	strcs	r3, [fp, -fp, lsl #22]
     410:	11134919 	tstne	r3, r9, lsl r9
     414:	40061201 	andmi	r1, r6, r1, lsl #4
     418:	19429718 	stmdbne	r2, {r3, r4, r8, r9, sl, ip, pc}^
     41c:	00001301 	andeq	r1, r0, r1, lsl #6
     420:	0300050b 	movweq	r0, #1291	; 0x50b
     424:	3b0b3a08 	blcc	2cec4c <__bss_end__+0x2c030c>
     428:	0213490b 	andseq	r4, r3, #180224	; 0x2c000
     42c:	0c000018 	stceq	0, cr0, [r0], {24}
     430:	00000018 	andeq	r0, r0, r8, lsl r0
     434:	0300340d 	movweq	r3, #1037	; 0x40d
     438:	3b0b3a08 	blcc	2cec60 <__bss_end__+0x2c0320>
     43c:	0213490b 	andseq	r4, r3, #180224	; 0x2c000
     440:	0e000018 	mcreq	0, 0, r0, cr0, cr8, {0}
     444:	0e030034 	mcreq	0, 0, r0, cr3, cr4, {1}
     448:	0b3b0b3a 	bleq	ec3138 <__bss_end__+0xeb47f8>
     44c:	18021349 	stmdane	r2, {r0, r3, r6, r8, r9, ip}
     450:	340f0000 	strcc	r0, [pc], #-0	; 458 <_start-0x7ba8>
     454:	3a080300 	bcc	20105c <__bss_end__+0x1f271c>
     458:	490b3b0b 	stmdbmi	fp, {r0, r1, r3, r8, r9, fp, ip, sp}
     45c:	00170213 	andseq	r0, r7, r3, lsl r2
     460:	82891000 	addhi	r1, r9, #0
     464:	01110101 	tsteq	r1, r1, lsl #2
     468:	13011331 	movwne	r1, #4913	; 0x1331
     46c:	8a110000 	bhi	440474 <__bss_end__+0x431b34>
     470:	02000182 	andeq	r0, r0, #-2147483616	; 0x80000020
     474:	18429118 	stmdane	r2, {r3, r4, r8, ip, pc}^
     478:	89120000 	ldmdbhi	r2, {}	; <UNPREDICTABLE>
     47c:	11010182 	smlabbne	r1, r2, r1, r0
     480:	13000001 	movwne	r0, #1
     484:	13490101 	movtne	r0, #37121	; 0x9101
     488:	00001301 	andeq	r1, r0, r1, lsl #6
     48c:	49002114 	stmdbmi	r0, {r2, r4, r8, sp}
     490:	00052f13 	andeq	r2, r5, r3, lsl pc
     494:	01151500 	tsteq	r5, r0, lsl #10
     498:	13491927 	movtne	r1, #39207	; 0x9927
     49c:	00001301 	andeq	r1, r0, r1, lsl #6
     4a0:	49000516 	stmdbmi	r0, {r1, r2, r4, r8, sl}
     4a4:	17000013 	smladne	r0, r3, r0, r0
     4a8:	0e030034 	mcreq	0, 0, r0, cr3, cr4, {1}
     4ac:	0b3b0b3a 	bleq	ec319c <__bss_end__+0xeb485c>
     4b0:	193f1349 	ldmdbne	pc!, {r0, r3, r6, r8, r9, ip}	; <UNPREDICTABLE>
     4b4:	0000193c 	andeq	r1, r0, ip, lsr r9
     4b8:	3f012e18 	svccc	0x00012e18
     4bc:	3a0e0319 	bcc	381128 <__bss_end__+0x3727e8>
     4c0:	270b3b0b 	strcs	r3, [fp, -fp, lsl #22]
     4c4:	3c134919 	ldccc	9, cr4, [r3], {25}
     4c8:	00000019 	andeq	r0, r0, r9, lsl r0
     4cc:	25011101 	strcs	r1, [r1, #-257]	; 0x101
     4d0:	030b130e 	movweq	r1, #45838	; 0xb30e
     4d4:	110e1b0e 	tstne	lr, lr, lsl #22
     4d8:	10061201 	andne	r1, r6, r1, lsl #4
     4dc:	02000017 	andeq	r0, r0, #23
     4e0:	0b0b0024 	bleq	2c0578 <__bss_end__+0x2b1c38>
     4e4:	08030b3e 	stmdaeq	r3, {r1, r2, r3, r4, r5, r8, r9, fp}
     4e8:	24030000 	strcs	r0, [r3], #-0
     4ec:	3e0b0b00 	vmlacc.f64	d0, d11, d0
     4f0:	000e030b 	andeq	r0, lr, fp, lsl #6
     4f4:	000f0400 	andeq	r0, pc, r0, lsl #8
     4f8:	13490b0b 	movtne	r0, #39691	; 0x9b0b
     4fc:	26050000 	strcs	r0, [r5], -r0
     500:	00134900 	andseq	r4, r3, r0, lsl #18
     504:	012e0600 	teqeq	lr, r0, lsl #12
     508:	0e03193f 	mcreq	9, 0, r1, cr3, cr15, {1}
     50c:	0b3b0b3a 	bleq	ec31fc <__bss_end__+0xeb48bc>
     510:	13491927 	movtne	r1, #39207	; 0x9927
     514:	06120111 			; <UNDEFINED> instruction: 0x06120111
     518:	42961840 	addsmi	r1, r6, #64, 16	; 0x400000
     51c:	00130119 	andseq	r0, r3, r9, lsl r1
     520:	00050700 	andeq	r0, r5, r0, lsl #14
     524:	0b3a0803 	bleq	e82538 <__bss_end__+0xe73bf8>
     528:	13490b3b 	movtne	r0, #39739	; 0x9b3b
     52c:	00001702 	andeq	r1, r0, r2, lsl #14
     530:	27011508 	strcs	r1, [r1, -r8, lsl #10]
     534:	01134919 	tsteq	r3, r9, lsl r9
     538:	09000013 	stmdbeq	r0, {r0, r1, r4}
     53c:	13490005 	movtne	r0, #36869	; 0x9005
     540:	340a0000 	strcc	r0, [sl], #-0
     544:	3a0e0300 	bcc	38114c <__bss_end__+0x37280c>
     548:	490b3b0b 	stmdbmi	fp, {r0, r1, r3, r8, r9, fp, ip, sp}
     54c:	3c193f13 	ldccc	15, cr3, [r9], {19}
     550:	0b000019 	bleq	5bc <_start-0x7a44>
     554:	0e030034 	mcreq	0, 0, r0, cr3, cr4, {1}
     558:	0b3b0b3a 	bleq	ec3248 <__bss_end__+0xeb4908>
     55c:	193f1349 	ldmdbne	pc!, {r0, r3, r6, r8, r9, ip}	; <UNPREDICTABLE>
     560:	00001802 	andeq	r1, r0, r2, lsl #16
     564:	01110100 	tsteq	r1, r0, lsl #2
     568:	0b130e25 	bleq	4c3e04 <__bss_end__+0x4b54c4>
     56c:	0e1b0e03 	cdpeq	14, 1, cr0, cr11, cr3, {0}
     570:	06120111 			; <UNDEFINED> instruction: 0x06120111
     574:	00001710 	andeq	r1, r0, r0, lsl r7
     578:	0b002402 	bleq	9588 <sw_uart_putc+0xcc>
     57c:	030b3e0b 	movweq	r3, #48651	; 0xbe0b
     580:	03000008 	movweq	r0, #8
     584:	0b0b0024 	bleq	2c061c <__bss_end__+0x2b1cdc>
     588:	0e030b3e 	vmoveq.16	d3[0], r0
     58c:	0f040000 	svceq	0x00040000
     590:	000b0b00 	andeq	r0, fp, r0, lsl #22
     594:	000f0500 	andeq	r0, pc, r0, lsl #10
     598:	13490b0b 	movtne	r0, #39691	; 0x9b0b
     59c:	26060000 	strcs	r0, [r6], -r0
     5a0:	00134900 	andseq	r4, r3, r0, lsl #18
     5a4:	00160700 	andseq	r0, r6, r0, lsl #14
     5a8:	0b3a0e03 	bleq	e83dbc <__bss_end__+0xe7547c>
     5ac:	13490b3b 	movtne	r0, #39739	; 0x9b3b
     5b0:	13080000 	movwne	r0, #32768	; 0x8000
     5b4:	0b0e0301 	bleq	3811c0 <__bss_end__+0x372880>
     5b8:	3b0b3a0b 	blcc	2cedec <__bss_end__+0x2c04ac>
     5bc:	0013010b 	andseq	r0, r3, fp, lsl #2
     5c0:	000d0900 	andeq	r0, sp, r0, lsl #18
     5c4:	13490e03 	movtne	r0, #40451	; 0x9e03
     5c8:	19340b38 	ldmdbne	r4!, {r3, r4, r5, r8, r9, fp}
     5cc:	2e0a0000 	cdpcs	0, 0, cr0, cr10, cr0, {0}
     5d0:	3a0e0301 	bcc	3811dc <__bss_end__+0x37289c>
     5d4:	270b3b0b 	strcs	r3, [fp, -fp, lsl #22]
     5d8:	11134919 	tstne	r3, r9, lsl r9
     5dc:	40061201 	andmi	r1, r6, r1, lsl #4
     5e0:	19429718 	stmdbne	r2, {r3, r4, r8, r9, sl, ip, pc}^
     5e4:	00001301 	andeq	r1, r0, r1, lsl #6
     5e8:	0300050b 	movweq	r0, #1291	; 0x50b
     5ec:	3b0b3a08 	blcc	2cee14 <__bss_end__+0x2c04d4>
     5f0:	0213490b 	andseq	r4, r3, #180224	; 0x2c000
     5f4:	0c000017 	stceq	0, cr0, [r0], {23}
     5f8:	0803012e 	stmdaeq	r3, {r1, r2, r3, r5, r8}
     5fc:	0b3b0b3a 	bleq	ec32ec <__bss_end__+0xeb49ac>
     600:	13491927 	movtne	r1, #39207	; 0x9927
     604:	06120111 			; <UNDEFINED> instruction: 0x06120111
     608:	42971840 	addsmi	r1, r7, #64, 16	; 0x400000
     60c:	00130119 	andseq	r0, r3, r9, lsl r1
     610:	00050d00 	andeq	r0, r5, r0, lsl #26
     614:	0b3a0e03 	bleq	e83e28 <__bss_end__+0xe754e8>
     618:	13490b3b 	movtne	r0, #39739	; 0x9b3b
     61c:	00001702 	andeq	r1, r0, r2, lsl #14
     620:	0300050e 	movweq	r0, #1294	; 0x50e
     624:	3b0b3a0e 	blcc	2cee64 <__bss_end__+0x2c0524>
     628:	0213490b 	andseq	r4, r3, #180224	; 0x2c000
     62c:	0f000018 	svceq	0x00000018
     630:	08030034 	stmdaeq	r3, {r2, r4, r5}
     634:	0b3b0b3a 	bleq	ec3324 <__bss_end__+0xeb49e4>
     638:	18021349 	stmdane	r2, {r0, r3, r6, r8, r9, ip}
     63c:	34100000 	ldrcc	r0, [r0], #-0
     640:	3a080300 	bcc	201248 <__bss_end__+0x1f2908>
     644:	490b3b0b 	stmdbmi	fp, {r0, r1, r3, r8, r9, fp, ip, sp}
     648:	00170213 	andseq	r0, r7, r3, lsl r2
     64c:	00341100 	eorseq	r1, r4, r0, lsl #2
     650:	13490e03 	movtne	r0, #40451	; 0x9e03
     654:	18021934 	stmdane	r2, {r2, r4, r5, r8, fp, ip}
     658:	0b120000 	bleq	480660 <__bss_end__+0x471d20>
     65c:	12011101 	andne	r1, r1, #1073741824	; 0x40000000
     660:	00130106 	andseq	r0, r3, r6, lsl #2
     664:	00341300 	eorseq	r1, r4, r0, lsl #6
     668:	0b3a0e03 	bleq	e83e7c <__bss_end__+0xe7553c>
     66c:	13490b3b 	movtne	r0, #39739	; 0x9b3b
     670:	00001702 	andeq	r1, r0, r2, lsl #14
     674:	01828914 	orreq	r8, r2, r4, lsl r9
     678:	31011101 	tstcc	r1, r1, lsl #2
     67c:	00130113 	andseq	r0, r3, r3, lsl r1
     680:	828a1500 	addhi	r1, sl, #0, 10
     684:	18020001 	stmdane	r2, {r0}
     688:	00184291 	mulseq	r8, r1, r2
     68c:	82891600 	addhi	r1, r9, #0, 12
     690:	01110001 	tsteq	r1, r1
     694:	00001331 	andeq	r1, r0, r1, lsr r3
     698:	01828917 	orreq	r8, r2, r7, lsl r9
     69c:	31011101 	tstcc	r1, r1, lsl #2
     6a0:	18000013 	stmdane	r0, {r0, r1, r4}
     6a4:	13490101 	movtne	r0, #37121	; 0x9101
     6a8:	00001301 	andeq	r1, r0, r1, lsl #6
     6ac:	49002119 	stmdbmi	r0, {r0, r3, r4, r8, sp}
     6b0:	000b2f13 	andeq	r2, fp, r3, lsl pc
     6b4:	012e1a00 	teqeq	lr, r0, lsl #20
     6b8:	0e03193f 	mcreq	9, 0, r1, cr3, cr15, {1}
     6bc:	0b3b0b3a 	bleq	ec33ac <__bss_end__+0xeb4a6c>
     6c0:	01111927 	tsteq	r1, r7, lsr #18
     6c4:	18400612 	stmdane	r0, {r1, r4, r9, sl}^
     6c8:	01194297 			; <UNDEFINED> instruction: 0x01194297
     6cc:	1b000013 	blne	720 <_start-0x78e0>
     6d0:	19270115 	stmdbne	r7!, {r0, r2, r4, r8}
     6d4:	13011349 	movwne	r1, #4937	; 0x1349
     6d8:	051c0000 	ldreq	r0, [ip, #-0]
     6dc:	00134900 	andseq	r4, r3, r0, lsl #18
     6e0:	012e1d00 	teqeq	lr, r0, lsl #26
     6e4:	0e03193f 	mcreq	9, 0, r1, cr3, cr15, {1}
     6e8:	0b3b0b3a 	bleq	ec33d8 <__bss_end__+0xeb4a98>
     6ec:	13491927 	movtne	r1, #39207	; 0x9927
     6f0:	06120111 			; <UNDEFINED> instruction: 0x06120111
     6f4:	42971840 	addsmi	r1, r7, #64, 16	; 0x400000
     6f8:	00130119 	andseq	r0, r3, r9, lsl r1
     6fc:	010b1e00 	tsteq	fp, r0, lsl #28
     700:	06120111 			; <UNDEFINED> instruction: 0x06120111
     704:	341f0000 	ldrcc	r0, [pc], #-0	; 70c <_start-0x78f4>
     708:	3a0e0300 	bcc	381310 <__bss_end__+0x3729d0>
     70c:	490b3b0b 	stmdbmi	fp, {r0, r1, r3, r8, r9, fp, ip, sp}
     710:	3c193f13 	ldccc	15, cr3, [r9], {19}
     714:	20000019 	andcs	r0, r0, r9, lsl r0
     718:	193f012e 	ldmdbne	pc!, {r1, r2, r3, r5, r8}	; <UNPREDICTABLE>
     71c:	0b3a0e03 	bleq	e83f30 <__bss_end__+0xe755f0>
     720:	19270b3b 	stmdbne	r7!, {r0, r1, r3, r4, r5, r8, r9, fp}
     724:	193c1349 	ldmdbne	ip!, {r0, r3, r6, r8, r9, ip}
     728:	00001301 	andeq	r1, r0, r1, lsl #6
     72c:	00001821 	andeq	r1, r0, r1, lsr #16
     730:	002e2200 	eoreq	r2, lr, r0, lsl #4
     734:	0e03193f 	mcreq	9, 0, r1, cr3, cr15, {1}
     738:	0b3b0b3a 	bleq	ec3428 <__bss_end__+0xeb4ae8>
     73c:	193c1927 	ldmdbne	ip!, {r0, r1, r2, r5, r8, fp, ip}
     740:	01000000 	mrseq	r0, (UNDEF: 0)
     744:	0e250111 	mcreq	1, 1, r0, cr5, cr1, {0}
     748:	0e030b13 	vmoveq.32	d3[0], r0
     74c:	01110e1b 	tsteq	r1, fp, lsl lr
     750:	17100612 			; <UNDEFINED> instruction: 0x17100612
     754:	24020000 	strcs	r0, [r2], #-0
     758:	3e0b0b00 	vmlacc.f64	d0, d11, d0
     75c:	0008030b 	andeq	r0, r8, fp, lsl #6
     760:	00240300 	eoreq	r0, r4, r0, lsl #6
     764:	0b3e0b0b 	bleq	f83398 <__bss_end__+0xf74a58>
     768:	00000e03 	andeq	r0, r0, r3, lsl #28
     76c:	3f012e04 	svccc	0x00012e04
     770:	3a0e0319 	bcc	3813dc <__bss_end__+0x372a9c>
     774:	270b3b0b 	strcs	r3, [fp, -fp, lsl #22]
     778:	12011119 	andne	r1, r1, #1073741830	; 0x40000006
     77c:	97184006 	ldrls	r4, [r8, -r6]
     780:	13011942 	movwne	r1, #6466	; 0x1942
     784:	34050000 	strcc	r0, [r5], #-0
     788:	3a080300 	bcc	201390 <__bss_end__+0x1f2a50>
     78c:	490b3b0b 	stmdbmi	fp, {r0, r1, r3, r8, r9, fp, ip, sp}
     790:	00170213 	andseq	r0, r7, r3, lsl r2
     794:	012e0600 	teqeq	lr, r0, lsl #12
     798:	0e03193f 	mcreq	9, 0, r1, cr3, cr15, {1}
     79c:	0b3b0b3a 	bleq	ec348c <__bss_end__+0xeb4b4c>
     7a0:	01111927 	tsteq	r1, r7, lsr #18
     7a4:	18400612 	stmdane	r0, {r1, r4, r9, sl}^
     7a8:	00194297 	mulseq	r9, r7, r2
     7ac:	11010000 	mrsne	r0, (UNDEF: 1)
     7b0:	130e2501 	movwne	r2, #58625	; 0xe501
     7b4:	1b0e030b 	blne	3813e8 <__bss_end__+0x372aa8>
     7b8:	1201110e 	andne	r1, r1, #-2147483645	; 0x80000003
     7bc:	00171006 	andseq	r1, r7, r6
     7c0:	00240200 	eoreq	r0, r4, r0, lsl #4
     7c4:	0b3e0b0b 	bleq	f833f8 <__bss_end__+0xf74ab8>
     7c8:	00000803 	andeq	r0, r0, r3, lsl #16
     7cc:	0b002403 	bleq	97e0 <sw_uart_gets_until+0x8>
     7d0:	030b3e0b 	movweq	r3, #48651	; 0xbe0b
     7d4:	0400000e 	streq	r0, [r0], #-14
     7d8:	0b0b000f 	bleq	2c081c <__bss_end__+0x2b1edc>
     7dc:	00001349 	andeq	r1, r0, r9, asr #6
     7e0:	49002605 	stmdbmi	r0, {r0, r2, r9, sl, sp}
     7e4:	06000013 			; <UNDEFINED> instruction: 0x06000013
     7e8:	193f012e 	ldmdbne	pc!, {r1, r2, r3, r5, r8}	; <UNPREDICTABLE>
     7ec:	0b3a0e03 	bleq	e84000 <__bss_end__+0xe756c0>
     7f0:	19270b3b 	stmdbne	r7!, {r0, r1, r3, r4, r5, r8, r9, fp}
     7f4:	06120111 			; <UNDEFINED> instruction: 0x06120111
     7f8:	42971840 	addsmi	r1, r7, #64, 16	; 0x400000
     7fc:	00130119 	andseq	r0, r3, r9, lsl r1
     800:	82890700 	addhi	r0, r9, #0, 14
     804:	01110101 	tsteq	r1, r1, lsl #2
     808:	00001301 	andeq	r1, r0, r1, lsl #6
     80c:	01828a08 	orreq	r8, r2, r8, lsl #20
     810:	91180200 	tstls	r8, r0, lsl #4
     814:	00001842 	andeq	r1, r0, r2, asr #16
     818:	01828909 	orreq	r8, r2, r9, lsl #18
     81c:	31011101 	tstcc	r1, r1, lsl #2
     820:	00130113 	andseq	r0, r3, r3, lsl r1
     824:	82890a00 	addhi	r0, r9, #0, 20
     828:	01110001 	tsteq	r1, r1
     82c:	00001331 	andeq	r1, r0, r1, lsr r3
     830:	2701150b 	strcs	r1, [r1, -fp, lsl #10]
     834:	01134919 	tsteq	r3, r9, lsl r9
     838:	0c000013 	stceq	0, cr0, [r0], {19}
     83c:	13490005 	movtne	r0, #36869	; 0x9005
     840:	340d0000 	strcc	r0, [sp], #-0
     844:	3a0e0300 	bcc	38144c <__bss_end__+0x372b0c>
     848:	490b3b0b 	stmdbmi	fp, {r0, r1, r3, r8, r9, fp, ip, sp}
     84c:	3c193f13 	ldccc	15, cr3, [r9], {19}
     850:	0e000019 	mcreq	0, 0, r0, cr0, cr9, {0}
     854:	193f012e 	ldmdbne	pc!, {r1, r2, r3, r5, r8}	; <UNPREDICTABLE>
     858:	0b3a0e03 	bleq	e8406c <__bss_end__+0xe7572c>
     85c:	19270b3b 	stmdbne	r7!, {r0, r1, r3, r4, r5, r8, r9, fp}
     860:	1301193c 	movwne	r1, #6460	; 0x193c
     864:	2e0f0000 	cdpcs	0, 0, cr0, cr15, cr0, {0}
     868:	03193f00 	tsteq	r9, #0, 30
     86c:	3b0b3a0e 	blcc	2cf0ac <__bss_end__+0x2c076c>
     870:	3c19270b 	ldccc	7, cr2, [r9], {11}
     874:	00000019 	andeq	r0, r0, r9, lsl r0
     878:	25011101 	strcs	r1, [r1, #-257]	; 0x101
     87c:	030b130e 	movweq	r1, #45838	; 0xb30e
     880:	110e1b0e 	tstne	lr, lr, lsl #22
     884:	10061201 	andne	r1, r6, r1, lsl #4
     888:	02000017 	andeq	r0, r0, #23
     88c:	0b0b0024 	bleq	2c0924 <__bss_end__+0x2b1fe4>
     890:	08030b3e 	stmdaeq	r3, {r1, r2, r3, r4, r5, r8, r9, fp}
     894:	24030000 	strcs	r0, [r3], #-0
     898:	3e0b0b00 	vmlacc.f64	d0, d11, d0
     89c:	000e030b 	andeq	r0, lr, fp, lsl #6
     8a0:	00160400 	andseq	r0, r6, r0, lsl #8
     8a4:	0b3a0e03 	bleq	e840b8 <__bss_end__+0xe75778>
     8a8:	13490b3b 	movtne	r0, #39739	; 0x9b3b
     8ac:	0f050000 	svceq	0x00050000
     8b0:	490b0b00 	stmdbmi	fp, {r8, r9, fp}
     8b4:	06000013 			; <UNDEFINED> instruction: 0x06000013
     8b8:	13490026 	movtne	r0, #36902	; 0x9026
     8bc:	13070000 	movwne	r0, #28672	; 0x7000
     8c0:	3a0b0b01 	bcc	2c34cc <__bss_end__+0x2b4b8c>
     8c4:	010b3b0b 	tsteq	fp, fp, lsl #22
     8c8:	08000013 	stmdaeq	r0, {r0, r1, r4}
     8cc:	0803000d 	stmdaeq	r3, {r0, r2, r3}
     8d0:	0b3b0b3a 	bleq	ec35c0 <__bss_end__+0xeb4c80>
     8d4:	0b381349 	bleq	e05600 <__bss_end__+0xdf6cc0>
     8d8:	0d090000 	stceq	0, cr0, [r9, #-0]
     8dc:	3a0e0300 	bcc	3814e4 <__bss_end__+0x372ba4>
     8e0:	490b3b0b 	stmdbmi	fp, {r0, r1, r3, r8, r9, fp, ip, sp}
     8e4:	000b3813 	andeq	r3, fp, r3, lsl r8
     8e8:	01040a00 	tsteq	r4, r0, lsl #20
     8ec:	0b3a0b0b 	bleq	e83520 <__bss_end__+0xe74be0>
     8f0:	13010b3b 	movwne	r0, #6971	; 0x1b3b
     8f4:	280b0000 	stmdacs	fp, {}	; <UNPREDICTABLE>
     8f8:	1c0e0300 	stcne	3, cr0, [lr], {-0}
     8fc:	0c00000d 	stceq	0, cr0, [r0], {13}
     900:	0e03012e 	adfeqsp	f0, f3, #0.5
     904:	0b3b0b3a 	bleq	ec35f4 <__bss_end__+0xeb4cb4>
     908:	13491927 	movtne	r1, #39207	; 0x9927
     90c:	06120111 			; <UNDEFINED> instruction: 0x06120111
     910:	42971840 	addsmi	r1, r7, #64, 16	; 0x400000
     914:	00130119 	andseq	r0, r3, r9, lsl r1
     918:	00050d00 	andeq	r0, r5, r0, lsl #26
     91c:	0b3a0803 	bleq	e82930 <__bss_end__+0xe73ff0>
     920:	13490b3b 	movtne	r0, #39739	; 0x9b3b
     924:	00001702 	andeq	r1, r0, r2, lsl #14
     928:	0182890e 	orreq	r8, r2, lr, lsl #18
     92c:	31011101 	tstcc	r1, r1, lsl #2
     930:	0f000013 	svceq	0x00000013
     934:	0001828a 	andeq	r8, r1, sl, lsl #5
     938:	42911802 	addsmi	r1, r1, #131072	; 0x20000
     93c:	10000018 	andne	r0, r0, r8, lsl r0
     940:	193f012e 	ldmdbne	pc!, {r1, r2, r3, r5, r8}	; <UNPREDICTABLE>
     944:	0b3a0e03 	bleq	e84158 <__bss_end__+0xe75818>
     948:	01110b3b 	tsteq	r1, fp, lsr fp
     94c:	18400612 	stmdane	r0, {r1, r4, r9, sl}^
     950:	01194297 			; <UNDEFINED> instruction: 0x01194297
     954:	11000013 	tstne	r0, r3, lsl r0
     958:	0e030034 	mcreq	0, 0, r0, cr3, cr4, {1}
     95c:	0b3b0b3a 	bleq	ec364c <__bss_end__+0xeb4d0c>
     960:	193f1349 	ldmdbne	pc!, {r0, r3, r6, r8, r9, ip}	; <UNPREDICTABLE>
     964:	0000193c 	andeq	r1, r0, ip, lsr r9
     968:	3f012e12 	svccc	0x00012e12
     96c:	3a0e0319 	bcc	3815d8 <__bss_end__+0x372c98>
     970:	3c0b3b0b 	stccc	11, cr3, [fp], {11}
     974:	00130119 	andseq	r0, r3, r9, lsl r1
     978:	00181300 	andseq	r1, r8, r0, lsl #6
     97c:	34140000 	ldrcc	r0, [r4], #-0
     980:	3a080300 	bcc	201588 <__bss_end__+0x1f2c48>
     984:	490b3b0b 	stmdbmi	fp, {r0, r1, r3, r8, r9, fp, ip, sp}
     988:	00170213 	andseq	r0, r7, r3, lsl r2
     98c:	00341500 	eorseq	r1, r4, r0, lsl #10
     990:	0b3a0e03 	bleq	e841a4 <__bss_end__+0xe75864>
     994:	13490b3b 	movtne	r0, #39739	; 0x9b3b
     998:	89160000 	ldmdbhi	r6, {}	; <UNPREDICTABLE>
     99c:	11000182 	smlabbne	r0, r2, r1, r0
     9a0:	00133101 	andseq	r3, r3, r1, lsl #2
     9a4:	82891700 	addhi	r1, r9, #0, 14
     9a8:	01110101 	tsteq	r1, r1, lsl #2
     9ac:	13011331 	movwne	r1, #4913	; 0x1331
     9b0:	34180000 	ldrcc	r0, [r8], #-0
     9b4:	3a0e0300 	bcc	3815bc <__bss_end__+0x372c7c>
     9b8:	490b3b0b 	stmdbmi	fp, {r0, r1, r3, r8, r9, fp, ip, sp}
     9bc:	00180213 	andseq	r0, r8, r3, lsl r2
     9c0:	01151900 	tsteq	r5, r0, lsl #18
     9c4:	13491927 	movtne	r1, #39207	; 0x9927
     9c8:	00001301 	andeq	r1, r0, r1, lsl #6
     9cc:	4900051a 	stmdbmi	r0, {r1, r3, r4, r8, sl}
     9d0:	1b000013 	blne	a24 <_start-0x75dc>
     9d4:	193f012e 	ldmdbne	pc!, {r1, r2, r3, r5, r8}	; <UNPREDICTABLE>
     9d8:	0b3a0e03 	bleq	e841ec <__bss_end__+0xe758ac>
     9dc:	19270b3b 	stmdbne	r7!, {r0, r1, r3, r4, r5, r8, r9, fp}
     9e0:	1301193c 	movwne	r1, #6460	; 0x193c
     9e4:	2e1c0000 	cdpcs	0, 1, cr0, cr12, cr0, {0}
     9e8:	03193f00 	tsteq	r9, #0, 30
     9ec:	3b0b3a0e 	blcc	2cf22c <__bss_end__+0x2c08ec>
     9f0:	4919270b 	ldmdbmi	r9, {r0, r1, r3, r8, r9, sl, sp}
     9f4:	00193c13 	andseq	r3, r9, r3, lsl ip
     9f8:	012e1d00 	teqeq	lr, r0, lsl #26
     9fc:	0e03193f 	mcreq	9, 0, r1, cr3, cr15, {1}
     a00:	0b3b0b3a 	bleq	ec36f0 <__bss_end__+0xeb4db0>
     a04:	13491927 	movtne	r1, #39207	; 0x9927
     a08:	1301193c 	movwne	r1, #6460	; 0x193c
     a0c:	2e1e0000 	cdpcs	0, 1, cr0, cr14, cr0, {0}
     a10:	03193f00 	tsteq	r9, #0, 30
     a14:	3b0b3a0e 	blcc	2cf254 <__bss_end__+0x2c0914>
     a18:	3c19270b 	ldccc	7, cr2, [r9], {11}
     a1c:	00000019 	andeq	r0, r0, r9, lsl r0
     a20:	25011101 	strcs	r1, [r1, #-257]	; 0x101
     a24:	030b130e 	movweq	r1, #45838	; 0xb30e
     a28:	550e1b0e 	strpl	r1, [lr, #-2830]	; 0xb0e
     a2c:	10011117 	andne	r1, r1, r7, lsl r1
     a30:	02000017 	andeq	r0, r0, #23
     a34:	0b0b0024 	bleq	2c0acc <__bss_end__+0x2b218c>
     a38:	08030b3e 	stmdaeq	r3, {r1, r2, r3, r4, r5, r8, r9, fp}
     a3c:	24030000 	strcs	r0, [r3], #-0
     a40:	3e0b0b00 	vmlacc.f64	d0, d11, d0
     a44:	000e030b 	andeq	r0, lr, fp, lsl #6
     a48:	012e0400 	teqeq	lr, r0, lsl #8
     a4c:	0e03193f 	mcreq	9, 0, r1, cr3, cr15, {1}
     a50:	0b3b0b3a 	bleq	ec3740 <__bss_end__+0xeb4e00>
     a54:	13491927 	movtne	r1, #39207	; 0x9927
     a58:	06120111 			; <UNDEFINED> instruction: 0x06120111
     a5c:	42971840 	addsmi	r1, r7, #64, 16	; 0x400000
     a60:	00130119 	andseq	r0, r3, r9, lsl r1
     a64:	00340500 	eorseq	r0, r4, r0, lsl #10
     a68:	0b3a0e03 	bleq	e8427c <__bss_end__+0xe7593c>
     a6c:	13490b3b 	movtne	r0, #39739	; 0x9b3b
     a70:	00001702 	andeq	r1, r0, r2, lsl #14
     a74:	3f012e06 	svccc	0x00012e06
     a78:	3a0e0319 	bcc	3816e4 <__bss_end__+0x372da4>
     a7c:	270b3b0b 	strcs	r3, [fp, -fp, lsl #22]
     a80:	12011119 	andne	r1, r1, #1073741830	; 0x40000006
     a84:	97184006 	ldrls	r4, [r8, -r6]
     a88:	13011942 	movwne	r1, #6466	; 0x1942
     a8c:	34070000 	strcc	r0, [r7], #-0
     a90:	3a0e0300 	bcc	381698 <__bss_end__+0x372d58>
     a94:	490b3b0b 	stmdbmi	fp, {r0, r1, r3, r8, r9, fp, ip, sp}
     a98:	00061c13 	andeq	r1, r6, r3, lsl ip
     a9c:	00340800 	eorseq	r0, r4, r0, lsl #16
     aa0:	0b3a0e03 	bleq	e842b4 <__bss_end__+0xe75974>
     aa4:	13490b3b 	movtne	r0, #39739	; 0x9b3b
     aa8:	00000b1c 	andeq	r0, r0, ip, lsl fp
     aac:	01828909 	orreq	r8, r2, r9, lsl #18
     ab0:	31011100 	mrscc	r1, (UNDEF: 17)
     ab4:	0a000013 	beq	b08 <_start-0x74f8>
     ab8:	01018289 	smlabbeq	r1, r9, r2, r8
     abc:	13310111 	teqne	r1, #1073741828	; 0x40000004
     ac0:	00001301 	andeq	r1, r0, r1, lsl #6
     ac4:	01828a0b 	orreq	r8, r2, fp, lsl #20
     ac8:	91180200 	tstls	r8, r0, lsl #4
     acc:	00001842 	andeq	r1, r0, r2, asr #16
     ad0:	0182890c 	orreq	r8, r2, ip, lsl #18
     ad4:	31011101 	tstcc	r1, r1, lsl #2
     ad8:	0d000013 	stceq	0, cr0, [r0, #-76]	; 0xffffffb4
     adc:	13490026 	movtne	r0, #36902	; 0x9026
     ae0:	2e0e0000 	cdpcs	0, 0, cr0, cr14, cr0, {0}
     ae4:	03193f01 	tsteq	r9, #1, 30
     ae8:	3b0b3a0e 	blcc	2cf328 <__bss_end__+0x2c09e8>
     aec:	3c19270b 	ldccc	7, cr2, [r9], {11}
     af0:	00130119 	andseq	r0, r3, r9, lsl r1
     af4:	00050f00 	andeq	r0, r5, r0, lsl #30
     af8:	00001349 	andeq	r1, r0, r9, asr #6
     afc:	3f012e10 	svccc	0x00012e10
     b00:	3a0e0319 	bcc	38176c <__bss_end__+0x372e2c>
     b04:	270b3b0b 	strcs	r3, [fp, -fp, lsl #22]
     b08:	00193c19 	andseq	r3, r9, r9, lsl ip
     b0c:	11010000 	mrsne	r0, (UNDEF: 1)
     b10:	130e2501 	movwne	r2, #58625	; 0xe501
     b14:	1b0e030b 	blne	381748 <__bss_end__+0x372e08>
     b18:	1201110e 	andne	r1, r1, #-2147483645	; 0x80000003
     b1c:	00171006 	andseq	r1, r7, r6
     b20:	00240200 	eoreq	r0, r4, r0, lsl #4
     b24:	0b3e0b0b 	bleq	f83758 <__bss_end__+0xf74e18>
     b28:	00000803 	andeq	r0, r0, r3, lsl #16
     b2c:	0b002403 	bleq	9b40 <uart_init+0x7c>
     b30:	030b3e0b 	movweq	r3, #48651	; 0xbe0b
     b34:	0400000e 	streq	r0, [r0], #-14
     b38:	193f012e 	ldmdbne	pc!, {r1, r2, r3, r5, r8}	; <UNPREDICTABLE>
     b3c:	0b3a0e03 	bleq	e84350 <__bss_end__+0xe75a10>
     b40:	19270b3b 	stmdbne	r7!, {r0, r1, r3, r4, r5, r8, r9, fp}
     b44:	06120111 			; <UNDEFINED> instruction: 0x06120111
     b48:	42971840 	addsmi	r1, r7, #64, 16	; 0x400000
     b4c:	00130119 	andseq	r0, r3, r9, lsl r1
     b50:	00050500 	andeq	r0, r5, r0, lsl #10
     b54:	0b3a0e03 	bleq	e84368 <__bss_end__+0xe75a28>
     b58:	13490b3b 	movtne	r0, #39739	; 0x9b3b
     b5c:	00001702 	andeq	r1, r0, r2, lsl #14
     b60:	3f012e06 	svccc	0x00012e06
     b64:	3a0e0319 	bcc	3817d0 <__bss_end__+0x372e90>
     b68:	270b3b0b 	strcs	r3, [fp, -fp, lsl #22]
     b6c:	11134919 	tstne	r3, r9, lsl r9
     b70:	40061201 	andmi	r1, r6, r1, lsl #4
     b74:	19429718 	stmdbne	r2, {r3, r4, r8, r9, sl, ip, pc}^
     b78:	00001301 	andeq	r1, r0, r1, lsl #6
     b7c:	01828907 	orreq	r8, r2, r7, lsl #18
     b80:	31011101 	tstcc	r1, r1, lsl #2
     b84:	08000013 	stmdaeq	r0, {r0, r1, r4}
     b88:	0001828a 	andeq	r8, r1, sl, lsl #5
     b8c:	42911802 	addsmi	r1, r1, #131072	; 0x20000
     b90:	09000018 	stmdbeq	r0, {r3, r4}
     b94:	08030034 	stmdaeq	r3, {r2, r4, r5}
     b98:	0b3b0b3a 	bleq	ec3888 <__bss_end__+0xeb4f48>
     b9c:	18021349 	stmdane	r2, {r0, r3, r6, r8, r9, ip}
     ba0:	890a0000 	stmdbhi	sl, {}	; <UNPREDICTABLE>
     ba4:	11000182 	smlabbne	r0, r2, r1, r0
     ba8:	00133101 	andseq	r3, r3, r1, lsl #2
     bac:	00050b00 	andeq	r0, r5, r0, lsl #22
     bb0:	0b3a0803 	bleq	e82bc4 <__bss_end__+0xe74284>
     bb4:	13490b3b 	movtne	r0, #39739	; 0x9b3b
     bb8:	00001702 	andeq	r1, r0, r2, lsl #14
     bbc:	11010b0c 	tstne	r1, ip, lsl #22
     bc0:	01061201 	tsteq	r6, r1, lsl #4
     bc4:	0d000013 	stceq	0, cr0, [r0, #-76]	; 0xffffffb4
     bc8:	08030034 	stmdaeq	r3, {r2, r4, r5}
     bcc:	0b3b0b3a 	bleq	ec38bc <__bss_end__+0xeb4f7c>
     bd0:	17021349 	strne	r1, [r2, -r9, asr #6]
     bd4:	2e0e0000 	cdpcs	0, 0, cr0, cr14, cr0, {0}
     bd8:	03193f01 	tsteq	r9, #1, 30
     bdc:	3b0b3a0e 	blcc	2cf41c <__bss_end__+0x2c0adc>
     be0:	4919270b 	ldmdbmi	r9, {r0, r1, r3, r8, r9, sl, sp}
     be4:	00193c13 	andseq	r3, r9, r3, lsl ip
     be8:	00050f00 	andeq	r0, r5, r0, lsl #30
     bec:	00001349 	andeq	r1, r0, r9, asr #6
     bf0:	01110100 	tsteq	r1, r0, lsl #2
     bf4:	0b130e25 	bleq	4c4490 <__bss_end__+0x4b5b50>
     bf8:	0e1b0e03 	cdpeq	14, 1, cr0, cr11, cr3, {0}
     bfc:	06120111 			; <UNDEFINED> instruction: 0x06120111
     c00:	00001710 	andeq	r1, r0, r0, lsl r7
     c04:	0b002402 	bleq	9c14 <uart_getc_async+0x1c>
     c08:	030b3e0b 	movweq	r3, #48651	; 0xbe0b
     c0c:	0300000e 	movweq	r0, #14
     c10:	0b0b0024 	bleq	2c0ca8 <__bss_end__+0x2b2368>
     c14:	08030b3e 	stmdaeq	r3, {r1, r2, r3, r4, r5, r8, r9, fp}
     c18:	04040000 	streq	r0, [r4], #-0
     c1c:	3a0b0b01 	bcc	2c3828 <__bss_end__+0x2b4ee8>
     c20:	010b3b0b 	tsteq	fp, fp, lsl #22
     c24:	05000013 	streq	r0, [r0, #-19]
     c28:	0e030028 	cdpeq	0, 0, cr0, cr3, cr8, {1}
     c2c:	00000d1c 	andeq	r0, r0, ip, lsl sp
     c30:	03001606 	movweq	r1, #1542	; 0x606
     c34:	3b0b3a0e 	blcc	2cf474 <__bss_end__+0x2c0b34>
     c38:	0013490b 	andseq	r4, r3, fp, lsl #18
     c3c:	012e0700 	teqeq	lr, r0, lsl #14
     c40:	0e03193f 	mcreq	9, 0, r1, cr3, cr15, {1}
     c44:	0b3b0b3a 	bleq	ec3934 <__bss_end__+0xeb4ff4>
     c48:	01111927 	tsteq	r1, r7, lsr #18
     c4c:	18400612 	stmdane	r0, {r1, r4, r9, sl}^
     c50:	01194297 			; <UNDEFINED> instruction: 0x01194297
     c54:	08000013 	stmdaeq	r0, {r0, r1, r4}
     c58:	08030005 	stmdaeq	r3, {r0, r2}
     c5c:	0b3b0b3a 	bleq	ec394c <__bss_end__+0xeb500c>
     c60:	17021349 	strne	r1, [r2, -r9, asr #6]
     c64:	34090000 	strcc	r0, [r9], #-0
     c68:	3a0e0300 	bcc	381870 <__bss_end__+0x372f30>
     c6c:	490b3b0b 	stmdbmi	fp, {r0, r1, r3, r8, r9, fp, ip, sp}
     c70:	00170213 	andseq	r0, r7, r3, lsl r2
     c74:	82890a00 	addhi	r0, r9, #0, 20
     c78:	01110101 	tsteq	r1, r1, lsl #2
     c7c:	13011331 	movwne	r1, #4913	; 0x1331
     c80:	8a0b0000 	bhi	2c0c88 <__bss_end__+0x2b2348>
     c84:	02000182 	andeq	r0, r0, #-2147483616	; 0x80000020
     c88:	18429118 	stmdane	r2, {r3, r4, r8, ip, pc}^
     c8c:	890c0000 	stmdbhi	ip, {}	; <UNPREDICTABLE>
     c90:	11010182 	smlabbne	r1, r2, r1, r0
     c94:	00133101 	andseq	r3, r3, r1, lsl #2
     c98:	000f0d00 	andeq	r0, pc, r0, lsl #26
     c9c:	13490b0b 	movtne	r0, #39691	; 0x9b0b
     ca0:	350e0000 	strcc	r0, [lr, #-0]
     ca4:	00134900 	andseq	r4, r3, r0, lsl #18
     ca8:	012e0f00 	teqeq	lr, r0, lsl #30
     cac:	0e03193f 	mcreq	9, 0, r1, cr3, cr15, {1}
     cb0:	0b3b0b3a 	bleq	ec39a0 <__bss_end__+0xeb5060>
     cb4:	0b201927 	bleq	807158 <__bss_end__+0x7f8818>
     cb8:	00001301 	andeq	r1, r0, r1, lsl #6
     cbc:	03000510 	movweq	r0, #1296	; 0x510
     cc0:	3b0b3a08 	blcc	2cf4e8 <__bss_end__+0x2c0ba8>
     cc4:	0013490b 	andseq	r4, r3, fp, lsl #18
     cc8:	00341100 	eorseq	r1, r4, r0, lsl #2
     ccc:	0b3a0e03 	bleq	e844e0 <__bss_end__+0xe75ba0>
     cd0:	13490b3b 	movtne	r0, #39739	; 0x9b3b
     cd4:	2e120000 	cdpcs	0, 1, cr0, cr2, cr0, {0}
     cd8:	11133101 	tstne	r3, r1, lsl #2
     cdc:	40061201 	andmi	r1, r6, r1, lsl #4
     ce0:	19429718 	stmdbne	r2, {r3, r4, r8, r9, sl, ip, pc}^
     ce4:	00001301 	andeq	r1, r0, r1, lsl #6
     ce8:	31000513 	tstcc	r0, r3, lsl r5
     cec:	00170213 	andseq	r0, r7, r3, lsl r2
     cf0:	00341400 	eorseq	r1, r4, r0, lsl #8
     cf4:	17021331 	smladxne	r2, r1, r3, r1
     cf8:	2e150000 	cdpcs	0, 1, cr0, cr5, cr0, {0}
     cfc:	03193f01 	tsteq	r9, #1, 30
     d00:	3b0b3a0e 	blcc	2cf540 <__bss_end__+0x2c0c00>
     d04:	4919270b 	ldmdbmi	r9, {r0, r1, r3, r8, r9, sl, sp}
     d08:	12011113 	andne	r1, r1, #-1073741820	; 0xc0000004
     d0c:	97184006 	ldrls	r4, [r8, -r6]
     d10:	13011942 	movwne	r1, #6466	; 0x1942
     d14:	34160000 	ldrcc	r0, [r6], #-0
     d18:	3a080300 	bcc	201920 <__bss_end__+0x1f2fe0>
     d1c:	490b3b0b 	stmdbmi	fp, {r0, r1, r3, r8, r9, fp, ip, sp}
     d20:	00170213 	andseq	r0, r7, r3, lsl r2
     d24:	82891700 	addhi	r1, r9, #0, 14
     d28:	01110001 	tsteq	r1, r1
     d2c:	00001331 	andeq	r1, r0, r1, lsr r3
     d30:	31011d18 	tstcc	r1, r8, lsl sp
     d34:	12011113 	andne	r1, r1, #-1073741820	; 0xc0000004
     d38:	590b5806 	stmdbpl	fp, {r1, r2, fp, ip, lr}
     d3c:	0013010b 	andseq	r0, r3, fp, lsl #2
     d40:	010b1900 	tsteq	fp, r0, lsl #18
     d44:	06120111 			; <UNDEFINED> instruction: 0x06120111
     d48:	1d1a0000 	ldcne	0, cr0, [sl, #-0]
     d4c:	11133101 	tstne	r3, r1, lsl #2
     d50:	58061201 	stmdapl	r6, {r0, r9, ip}
     d54:	000b590b 	andeq	r5, fp, fp, lsl #18
     d58:	00051b00 	andeq	r1, r5, r0, lsl #22
     d5c:	0b3a0e03 	bleq	e84570 <__bss_end__+0xe75c30>
     d60:	13490b3b 	movtne	r0, #39739	; 0x9b3b
     d64:	00001702 	andeq	r1, r0, r2, lsl #14
     d68:	3f012e1c 	svccc	0x00012e1c
     d6c:	3a0e0319 	bcc	3819d8 <__bss_end__+0x373098>
     d70:	27053b0b 	strcs	r3, [r5, -fp, lsl #22]
     d74:	11134919 	tstne	r3, r9, lsl r9
     d78:	40061201 	andmi	r1, r6, r1, lsl #4
     d7c:	19429718 	stmdbne	r2, {r3, r4, r8, r9, sl, ip, pc}^
     d80:	00001301 	andeq	r1, r0, r1, lsl #6
     d84:	0300051d 	movweq	r0, #1309	; 0x51d
     d88:	3b0b3a0e 	blcc	2cf5c8 <__bss_end__+0x2c0c88>
     d8c:	02134905 	andseq	r4, r3, #81920	; 0x14000
     d90:	1e000017 	mcrne	0, 0, r0, cr0, cr7, {0}
     d94:	193f012e 	ldmdbne	pc!, {r1, r2, r3, r5, r8}	; <UNPREDICTABLE>
     d98:	0b3a0e03 	bleq	e845ac <__bss_end__+0xe75c6c>
     d9c:	1927053b 	stmdbne	r7!, {r0, r1, r3, r4, r5, r8, sl}
     da0:	06120111 			; <UNDEFINED> instruction: 0x06120111
     da4:	42971840 	addsmi	r1, r7, #64, 16	; 0x400000
     da8:	00130119 	andseq	r0, r3, r9, lsl r1
     dac:	00051f00 	andeq	r1, r5, r0, lsl #30
     db0:	0b3a0803 	bleq	e82dc4 <__bss_end__+0xe74484>
     db4:	1349053b 	movtne	r0, #38203	; 0x953b
     db8:	00001702 	andeq	r1, r0, r2, lsl #14
     dbc:	03003420 	movweq	r3, #1056	; 0x420
     dc0:	3b0b3a0e 	blcc	2cf600 <__bss_end__+0x2c0cc0>
     dc4:	02134905 	andseq	r4, r3, #81920	; 0x14000
     dc8:	21000017 	tstcs	r0, r7, lsl r0
     dcc:	0111010b 	tsteq	r1, fp, lsl #2
     dd0:	13010612 	movwne	r0, #5650	; 0x1612
     dd4:	34220000 	strtcc	r0, [r2], #-0
     dd8:	3a0e0300 	bcc	3819e0 <__bss_end__+0x3730a0>
     ddc:	490b3b0b 	stmdbmi	fp, {r0, r1, r3, r8, r9, fp, ip, sp}
     de0:	02193f13 	andseq	r3, r9, #19, 30	; 0x4c
     de4:	23000018 	movwcs	r0, #24
     de8:	193f012e 	ldmdbne	pc!, {r1, r2, r3, r5, r8}	; <UNPREDICTABLE>
     dec:	0b3a0e03 	bleq	e84600 <__bss_end__+0xe75cc0>
     df0:	19270b3b 	stmdbne	r7!, {r0, r1, r3, r4, r5, r8, r9, fp}
     df4:	193c1349 	ldmdbne	ip!, {r0, r3, r6, r8, r9, ip}
     df8:	00001301 	andeq	r1, r0, r1, lsl #6
     dfc:	49000524 	stmdbmi	r0, {r2, r5, r8, sl}
     e00:	25000013 	strcs	r0, [r0, #-19]
     e04:	13490026 	movtne	r0, #36902	; 0x9026
     e08:	35260000 	strcc	r0, [r6, #-0]!
     e0c:	27000000 	strcs	r0, [r0, -r0]
     e10:	193f012e 	ldmdbne	pc!, {r1, r2, r3, r5, r8}	; <UNPREDICTABLE>
     e14:	0b3a0e03 	bleq	e84628 <__bss_end__+0xe75ce8>
     e18:	19270b3b 	stmdbne	r7!, {r0, r1, r3, r4, r5, r8, r9, fp}
     e1c:	1301193c 	movwne	r1, #6460	; 0x193c
     e20:	2e280000 	cdpcs	0, 2, cr0, cr8, cr0, {0}
     e24:	03193f00 	tsteq	r9, #0, 30
     e28:	3b0b3a0e 	blcc	2cf668 <__bss_end__+0x2c0d28>
     e2c:	3c19270b 	ldccc	7, cr2, [r9], {11}
     e30:	00000019 	andeq	r0, r0, r9, lsl r0
     e34:	25011101 	strcs	r1, [r1, #-257]	; 0x101
     e38:	030b130e 	movweq	r1, #45838	; 0xb30e
     e3c:	110e1b0e 	tstne	lr, lr, lsl #22
     e40:	10061201 	andne	r1, r6, r1, lsl #4
     e44:	02000017 	andeq	r0, r0, #23
     e48:	0b0b0024 	bleq	2c0ee0 <__bss_end__+0x2b25a0>
     e4c:	08030b3e 	stmdaeq	r3, {r1, r2, r3, r4, r5, r8, r9, fp}
     e50:	24030000 	strcs	r0, [r3], #-0
     e54:	3e0b0b00 	vmlacc.f64	d0, d11, d0
     e58:	000e030b 	andeq	r0, lr, fp, lsl #6
     e5c:	00160400 	andseq	r0, r6, r0, lsl #8
     e60:	0b3a0e03 	bleq	e84674 <__bss_end__+0xe75d34>
     e64:	13490b3b 	movtne	r0, #39739	; 0x9b3b
     e68:	0f050000 	svceq	0x00050000
     e6c:	000b0b00 	andeq	r0, fp, r0, lsl #22
     e70:	000f0600 	andeq	r0, pc, r0, lsl #12
     e74:	13490b0b 	movtne	r0, #39691	; 0x9b0b
     e78:	26070000 	strcs	r0, [r7], -r0
     e7c:	00134900 	andseq	r4, r3, r0, lsl #18
     e80:	01130800 	tsteq	r3, r0, lsl #16
     e84:	0b3a0b0b 	bleq	e83ab8 <__bss_end__+0xe75178>
     e88:	13010b3b 	movwne	r0, #6971	; 0x1b3b
     e8c:	0d090000 	stceq	0, cr0, [r9, #-0]
     e90:	3a080300 	bcc	201a98 <__bss_end__+0x1f3158>
     e94:	490b3b0b 	stmdbmi	fp, {r0, r1, r3, r8, r9, fp, ip, sp}
     e98:	000b3813 	andeq	r3, fp, r3, lsl r8
     e9c:	000d0a00 	andeq	r0, sp, r0, lsl #20
     ea0:	0b3a0e03 	bleq	e846b4 <__bss_end__+0xe75d74>
     ea4:	13490b3b 	movtne	r0, #39739	; 0x9b3b
     ea8:	00000b38 	andeq	r0, r0, r8, lsr fp
     eac:	0301130b 	movweq	r1, #4875	; 0x130b
     eb0:	3a0b0b0e 	bcc	2c3af0 <__bss_end__+0x2b51b0>
     eb4:	010b3b0b 	tsteq	fp, fp, lsl #22
     eb8:	0c000013 	stceq	0, cr0, [r0], {19}
     ebc:	0e03000d 	cdpeq	0, 0, cr0, cr3, cr13, {0}
     ec0:	0b381349 	bleq	e05bec <__bss_end__+0xdf72ac>
     ec4:	00001934 	andeq	r1, r0, r4, lsr r9
     ec8:	03012e0d 	movweq	r2, #7693	; 0x1e0d
     ecc:	3b0b3a0e 	blcc	2cf70c <__bss_end__+0x2c0dcc>
     ed0:	2019270b 	andscs	r2, r9, fp, lsl #14
     ed4:	0013010b 	andseq	r0, r3, fp, lsl #2
     ed8:	00050e00 	andeq	r0, r5, r0, lsl #28
     edc:	0b3a0e03 	bleq	e846f0 <__bss_end__+0xe75db0>
     ee0:	13490b3b 	movtne	r0, #39739	; 0x9b3b
     ee4:	050f0000 	streq	r0, [pc, #-0]	; eec <_start-0x7114>
     ee8:	3a080300 	bcc	201af0 <__bss_end__+0x1f31b0>
     eec:	490b3b0b 	stmdbmi	fp, {r0, r1, r3, r8, r9, fp, ip, sp}
     ef0:	10000013 	andne	r0, r0, r3, lsl r0
     ef4:	0000010b 	andeq	r0, r0, fp, lsl #2
     ef8:	03003411 	movweq	r3, #1041	; 0x411
     efc:	3b0b3a0e 	blcc	2cf73c <__bss_end__+0x2c0dfc>
     f00:	0013490b 	andseq	r4, r3, fp, lsl #18
     f04:	012e1200 	teqeq	lr, r0, lsl #4
     f08:	0e03193f 	mcreq	9, 0, r1, cr3, cr15, {1}
     f0c:	0b3b0b3a 	bleq	ec3bfc <__bss_end__+0xeb52bc>
     f10:	01111927 	tsteq	r1, r7, lsr #18
     f14:	18400612 	stmdane	r0, {r1, r4, r9, sl}^
     f18:	01194297 			; <UNDEFINED> instruction: 0x01194297
     f1c:	13000013 	movwne	r0, #19
     f20:	0e030005 	cdpeq	0, 0, cr0, cr3, cr5, {0}
     f24:	0b3b0b3a 	bleq	ec3c14 <__bss_end__+0xeb52d4>
     f28:	17021349 	strne	r1, [r2, -r9, asr #6]
     f2c:	05140000 	ldreq	r0, [r4, #-0]
     f30:	3a080300 	bcc	201b38 <__bss_end__+0x1f31f8>
     f34:	490b3b0b 	stmdbmi	fp, {r0, r1, r3, r8, r9, fp, ip, sp}
     f38:	00170213 	andseq	r0, r7, r3, lsl r2
     f3c:	00341500 	eorseq	r1, r4, r0, lsl #10
     f40:	0b3a0803 	bleq	e82f54 <__bss_end__+0xe74614>
     f44:	13490b3b 	movtne	r0, #39739	; 0x9b3b
     f48:	00001802 	andeq	r1, r0, r2, lsl #16
     f4c:	03003416 	movweq	r3, #1046	; 0x416
     f50:	3b0b3a08 	blcc	2cf778 <__bss_end__+0x2c0e38>
     f54:	0213490b 	andseq	r4, r3, #180224	; 0x2c000
     f58:	17000017 	smladne	r0, r7, r0, r0
     f5c:	0111010b 	tsteq	r1, fp, lsl #2
     f60:	13010612 	movwne	r0, #5650	; 0x1612
     f64:	34180000 	ldrcc	r0, [r8], #-0
     f68:	3a0e0300 	bcc	381b70 <__bss_end__+0x373230>
     f6c:	490b3b0b 	stmdbmi	fp, {r0, r1, r3, r8, r9, fp, ip, sp}
     f70:	00180213 	andseq	r0, r8, r3, lsl r2
     f74:	011d1900 	tsteq	sp, r0, lsl #18
     f78:	01111331 	tsteq	r1, r1, lsr r3
     f7c:	0b580612 	bleq	16027cc <__bss_end__+0x15f3e8c>
     f80:	13010b59 	movwne	r0, #7001	; 0x1b59
     f84:	051a0000 	ldreq	r0, [sl, #-0]
     f88:	02133100 	andseq	r3, r3, #0, 2
     f8c:	1b000017 	blne	ff0 <_start-0x7010>
     f90:	13310005 	teqne	r1, #5
     f94:	00001802 	andeq	r1, r0, r2, lsl #16
     f98:	3100051c 	tstcc	r0, ip, lsl r5
     f9c:	000b1c13 	andeq	r1, fp, r3, lsl ip
     fa0:	010b1d00 	tsteq	fp, r0, lsl #26
     fa4:	06120111 			; <UNDEFINED> instruction: 0x06120111
     fa8:	341e0000 	ldrcc	r0, [lr], #-0
     fac:	02133100 	andseq	r3, r3, #0, 2
     fb0:	1f000017 	svcne	0x00000017
     fb4:	01018289 	smlabbeq	r1, r9, r2, r8
     fb8:	13310111 	teqne	r1, #1073741828	; 0x40000004
     fbc:	8a200000 	bhi	800fc4 <__bss_end__+0x7f2684>
     fc0:	02000182 	andeq	r0, r0, #-2147483616	; 0x80000020
     fc4:	18429118 	stmdane	r2, {r3, r4, r8, ip, pc}^
     fc8:	1d210000 	stcne	0, cr0, [r1, #-0]
     fcc:	11133101 	tstne	r3, r1, lsl #2
     fd0:	58061201 	stmdapl	r6, {r0, r9, ip}
     fd4:	000b590b 	andeq	r5, fp, fp, lsl #18
     fd8:	012e2200 	teqeq	lr, r0, lsl #4
     fdc:	0b3a0e03 	bleq	e847f0 <__bss_end__+0xe75eb0>
     fe0:	19270b3b 	stmdbne	r7!, {r0, r1, r3, r4, r5, r8, r9, fp}
     fe4:	0b201349 	bleq	805d10 <__bss_end__+0x7f73d0>
     fe8:	00001301 	andeq	r1, r0, r1, lsl #6
     fec:	3f012e23 	svccc	0x00012e23
     ff0:	3a0e0319 	bcc	381c5c <__bss_end__+0x37331c>
     ff4:	270b3b0b 	strcs	r3, [fp, -fp, lsl #22]
     ff8:	11134919 	tstne	r3, r9, lsl r9
     ffc:	40061201 	andmi	r1, r6, r1, lsl #4
    1000:	19429718 	stmdbne	r2, {r3, r4, r8, r9, sl, ip, pc}^
    1004:	00001301 	andeq	r1, r0, r1, lsl #6
    1008:	01828924 	orreq	r8, r2, r4, lsr #18
    100c:	31011100 	mrscc	r1, (UNDEF: 17)
    1010:	25000013 	strcs	r0, [r0, #-19]
    1014:	01018289 	smlabbeq	r1, r9, r2, r8
    1018:	13310111 	teqne	r1, #1073741828	; 0x40000004
    101c:	00001301 	andeq	r1, r0, r1, lsl #6
    1020:	03003426 	movweq	r3, #1062	; 0x426
    1024:	3b0b3a0e 	blcc	2cf864 <__bss_end__+0x2c0f24>
    1028:	0213490b 	andseq	r4, r3, #180224	; 0x2c000
    102c:	27000017 	smladcs	r0, r7, r0, r0
    1030:	13310005 	teqne	r1, #5
    1034:	05280000 	streq	r0, [r8, #-0]!
    1038:	3a0e0300 	bcc	381c40 <__bss_end__+0x373300>
    103c:	490b3b0b 	stmdbmi	fp, {r0, r1, r3, r8, r9, fp, ip, sp}
    1040:	00180213 	andseq	r0, r8, r3, lsl r2
    1044:	00342900 	eorseq	r2, r4, r0, lsl #18
    1048:	13490e03 	movtne	r0, #40451	; 0x9e03
    104c:	18021934 	stmdane	r2, {r2, r4, r5, r8, fp, ip}
    1050:	012a0000 	teqeq	sl, r0
    1054:	01134901 	tsteq	r3, r1, lsl #18
    1058:	2b000013 	blcs	10ac <_start-0x6f54>
    105c:	13490021 	movtne	r0, #36897	; 0x9021
    1060:	00000b2f 	andeq	r0, r0, pc, lsr #22
    1064:	0300342c 	movweq	r3, #1068	; 0x42c
    1068:	3b0b3a08 	blcc	2cf890 <__bss_end__+0x2c0f50>
    106c:	1c13490b 	ldcne	9, cr4, [r3], {11}
    1070:	2d000006 	stccs	0, cr0, [r0, #-24]	; 0xffffffe8
    1074:	08030034 	stmdaeq	r3, {r2, r4, r5}
    1078:	0b3b0b3a 	bleq	ec3d68 <__bss_end__+0xeb5428>
    107c:	0b1c1349 	bleq	705da8 <__bss_end__+0x6f7468>
    1080:	052e0000 	streq	r0, [lr, #-0]!
    1084:	3a080300 	bcc	201c8c <__bss_end__+0x1f334c>
    1088:	490b3b0b 	stmdbmi	fp, {r0, r1, r3, r8, r9, fp, ip, sp}
    108c:	00180213 	andseq	r0, r8, r3, lsl r2
    1090:	00182f00 	andseq	r2, r8, r0, lsl #30
    1094:	21300000 	teqcs	r0, r0
    1098:	2f134900 	svccs	0x00134900
    109c:	31000005 	tstcc	r0, r5
    10a0:	193f012e 	ldmdbne	pc!, {r1, r2, r3, r5, r8}	; <UNPREDICTABLE>
    10a4:	0b3a0e03 	bleq	e848b8 <__bss_end__+0xe75f78>
    10a8:	19270b3b 	stmdbne	r7!, {r0, r1, r3, r4, r5, r8, r9, fp}
    10ac:	1301193c 	movwne	r1, #6460	; 0x193c
    10b0:	05320000 	ldreq	r0, [r2, #-0]!
    10b4:	00134900 	andseq	r4, r3, r0, lsl #18
    10b8:	002e3300 	eoreq	r3, lr, r0, lsl #6
    10bc:	0e03193f 	mcreq	9, 0, r1, cr3, cr15, {1}
    10c0:	0b3b0b3a 	bleq	ec3db0 <__bss_end__+0xeb5470>
    10c4:	13491927 	movtne	r1, #39207	; 0x9927
    10c8:	0000193c 	andeq	r1, r0, ip, lsr r9
    10cc:	3f012e34 	svccc	0x00012e34
    10d0:	3a0e0319 	bcc	381d3c <__bss_end__+0x3733fc>
    10d4:	270b3b0b 	strcs	r3, [fp, -fp, lsl #22]
    10d8:	3c134919 	ldccc	9, cr4, [r3], {25}
    10dc:	00130119 	andseq	r0, r3, r9, lsl r1
    10e0:	002e3500 	eoreq	r3, lr, r0, lsl #10
    10e4:	0e03193f 	mcreq	9, 0, r1, cr3, cr15, {1}
    10e8:	0b3b0b3a 	bleq	ec3dd8 <__bss_end__+0xeb5498>
    10ec:	193c1927 	ldmdbne	ip!, {r0, r1, r2, r5, r8, fp, ip}
    10f0:	2e360000 	cdpcs	0, 3, cr0, cr6, cr0, {0}
    10f4:	03193f01 	tsteq	r9, #1, 30
    10f8:	3b0b3a0e 	blcc	2cf938 <__bss_end__+0x2c0ff8>
    10fc:	4919270b 	ldmdbmi	r9, {r0, r1, r3, r8, r9, sl, sp}
    1100:	00193c13 	andseq	r3, r9, r3, lsl ip
    1104:	11010000 	mrsne	r0, (UNDEF: 1)
    1108:	130e2501 	movwne	r2, #58625	; 0xe501
    110c:	1b0e030b 	blne	381d40 <__bss_end__+0x373400>
    1110:	1201110e 	andne	r1, r1, #-2147483645	; 0x80000003
    1114:	00171006 	andseq	r1, r7, r6
    1118:	00240200 	eoreq	r0, r4, r0, lsl #4
    111c:	0b3e0b0b 	bleq	f83d50 <__bss_end__+0xf75410>
    1120:	00000803 	andeq	r0, r0, r3, lsl #16
    1124:	0b002403 	bleq	a138 <__FUNCTION__.4231+0xc>
    1128:	030b3e0b 	movweq	r3, #48651	; 0xbe0b
    112c:	0400000e 	streq	r0, [r0], #-14
    1130:	0b0b0104 	bleq	2c1548 <__bss_end__+0x2b2c08>
    1134:	0b3b0b3a 	bleq	ec3e24 <__bss_end__+0xeb54e4>
    1138:	00001301 	andeq	r1, r0, r1, lsl #6
    113c:	03002805 	movweq	r2, #2053	; 0x805
    1140:	000d1c0e 	andeq	r1, sp, lr, lsl #24
    1144:	00160600 	andseq	r0, r6, r0, lsl #12
    1148:	0b3a0e03 	bleq	e8495c <__bss_end__+0xe7601c>
    114c:	13490b3b 	movtne	r0, #39739	; 0x9b3b
    1150:	2e070000 	cdpcs	0, 0, cr0, cr7, cr0, {0}
    1154:	03193f01 	tsteq	r9, #1, 30
    1158:	3b0b3a0e 	blcc	2cf998 <__bss_end__+0x2c1058>
    115c:	1119270b 	tstne	r9, fp, lsl #14
    1160:	40061201 	andmi	r1, r6, r1, lsl #4
    1164:	19429718 	stmdbne	r2, {r3, r4, r8, r9, sl, ip, pc}^
    1168:	00001301 	andeq	r1, r0, r1, lsl #6
    116c:	01828908 	orreq	r8, r2, r8, lsl #18
    1170:	31011100 	mrscc	r1, (UNDEF: 17)
    1174:	09000013 	stmdbeq	r0, {r0, r1, r4}
    1178:	01018289 	smlabbeq	r1, r9, r2, r8
    117c:	13310111 	teqne	r1, #1073741828	; 0x40000004
    1180:	00001301 	andeq	r1, r0, r1, lsl #6
    1184:	01828a0a 	orreq	r8, r2, sl, lsl #20
    1188:	91180200 	tstls	r8, r0, lsl #4
    118c:	00001842 	andeq	r1, r0, r2, asr #16
    1190:	3f012e0b 	svccc	0x00012e0b
    1194:	3a0e0319 	bcc	381e00 <__bss_end__+0x3734c0>
    1198:	270b3b0b 	strcs	r3, [fp, -fp, lsl #22]
    119c:	11134919 	tstne	r3, r9, lsl r9
    11a0:	40061201 	andmi	r1, r6, r1, lsl #4
    11a4:	19429718 	stmdbne	r2, {r3, r4, r8, r9, sl, ip, pc}^
    11a8:	00001301 	andeq	r1, r0, r1, lsl #6
    11ac:	0300050c 	movweq	r0, #1292	; 0x50c
    11b0:	3b0b3a08 	blcc	2cf9d8 <__bss_end__+0x2c1098>
    11b4:	0213490b 	andseq	r4, r3, #180224	; 0x2c000
    11b8:	0d000017 	stceq	0, cr0, [r0, #-92]	; 0xffffffa4
    11bc:	01018289 	smlabbeq	r1, r9, r2, r8
    11c0:	13310111 	teqne	r1, #1073741828	; 0x40000004
    11c4:	340e0000 	strcc	r0, [lr], #-0
    11c8:	3a0e0300 	bcc	381dd0 <__bss_end__+0x373490>
    11cc:	490b3b0b 	stmdbmi	fp, {r0, r1, r3, r8, r9, fp, ip, sp}
    11d0:	02193f13 	andseq	r3, r9, #19, 30	; 0x4c
    11d4:	0f000018 	svceq	0x00000018
    11d8:	0b0b000f 	bleq	2c121c <__bss_end__+0x2b28dc>
    11dc:	00001349 	andeq	r1, r0, r9, asr #6
    11e0:	49003510 	stmdbmi	r0, {r4, r8, sl, ip, sp}
    11e4:	11000013 	tstne	r0, r3, lsl r0
    11e8:	193f002e 	ldmdbne	pc!, {r1, r2, r3, r5}	; <UNPREDICTABLE>
    11ec:	0b3a0e03 	bleq	e84a00 <__bss_end__+0xe760c0>
    11f0:	19270b3b 	stmdbne	r7!, {r0, r1, r3, r4, r5, r8, r9, fp}
    11f4:	0000193c 	andeq	r1, r0, ip, lsr r9
    11f8:	3f012e12 	svccc	0x00012e12
    11fc:	3a0e0319 	bcc	381e68 <__bss_end__+0x373528>
    1200:	270b3b0b 	strcs	r3, [fp, -fp, lsl #22]
    1204:	01193c19 	tsteq	r9, r9, lsl ip
    1208:	13000013 	movwne	r0, #19
    120c:	13490005 	movtne	r0, #36869	; 0x9005
    1210:	2e140000 	cdpcs	0, 1, cr0, cr4, cr0, {0}
    1214:	03193f01 	tsteq	r9, #1, 30
    1218:	3b0b3a0e 	blcc	2cfa58 <__bss_end__+0x2c1118>
    121c:	4919270b 	ldmdbmi	r9, {r0, r1, r3, r8, r9, sl, sp}
    1220:	01193c13 	tsteq	r9, r3, lsl ip
    1224:	15000013 	strne	r0, [r0, #-19]
    1228:	13490026 	movtne	r0, #36902	; 0x9026
    122c:	35160000 	ldrcc	r0, [r6, #-0]
    1230:	00000000 	andeq	r0, r0, r0
    1234:	25011101 	strcs	r1, [r1, #-257]	; 0x101
    1238:	030b130e 	movweq	r1, #45838	; 0xb30e
    123c:	110e1b0e 	tstne	lr, lr, lsl #22
    1240:	10061201 	andne	r1, r6, r1, lsl #4
    1244:	02000017 	andeq	r0, r0, #23
    1248:	0b0b0024 	bleq	2c12e0 <__bss_end__+0x2b29a0>
    124c:	08030b3e 	stmdaeq	r3, {r1, r2, r3, r4, r5, r8, r9, fp}
    1250:	24030000 	strcs	r0, [r3], #-0
    1254:	3e0b0b00 	vmlacc.f64	d0, d11, d0
    1258:	000e030b 	andeq	r0, lr, fp, lsl #6
    125c:	000f0400 	andeq	r0, pc, r0, lsl #8
    1260:	13490b0b 	movtne	r0, #39691	; 0x9b0b
    1264:	26050000 	strcs	r0, [r5], -r0
    1268:	00134900 	andseq	r4, r3, r0, lsl #18
    126c:	01010600 	tsteq	r1, r0, lsl #12
    1270:	13011349 	movwne	r1, #4937	; 0x1349
    1274:	21070000 	mrscs	r0, (UNDEF: 7)
    1278:	2f134900 	svccs	0x00134900
    127c:	0800000b 	stmdaeq	r0, {r0, r1, r3}
    1280:	0b0b0104 	bleq	2c1698 <__bss_end__+0x2b2d58>
    1284:	0b3b0b3a 	bleq	ec3f74 <__bss_end__+0xeb5634>
    1288:	00001301 	andeq	r1, r0, r1, lsl #6
    128c:	03002809 	movweq	r2, #2057	; 0x809
    1290:	000d1c0e 	andeq	r1, sp, lr, lsl #24
    1294:	012e0a00 	teqeq	lr, r0, lsl #20
    1298:	0e03193f 	mcreq	9, 0, r1, cr3, cr15, {1}
    129c:	0b3b0b3a 	bleq	ec3f8c <__bss_end__+0xeb564c>
    12a0:	01111927 	tsteq	r1, r7, lsr #18
    12a4:	18400612 	stmdane	r0, {r1, r4, r9, sl}^
    12a8:	01194297 			; <UNDEFINED> instruction: 0x01194297
    12ac:	0b000013 	bleq	1300 <_start-0x6d00>
    12b0:	0e030034 	mcreq	0, 0, r0, cr3, cr4, {1}
    12b4:	0b3b0b3a 	bleq	ec3fa4 <__bss_end__+0xeb5664>
    12b8:	193f1349 	ldmdbne	pc!, {r0, r3, r6, r8, r9, ip}	; <UNPREDICTABLE>
    12bc:	0000193c 	andeq	r1, r0, ip, lsr r9
    12c0:	0300340c 	movweq	r3, #1036	; 0x40c
    12c4:	3b0b3a08 	blcc	2cfaec <__bss_end__+0x2c11ac>
    12c8:	1c13490b 	ldcne	9, cr4, [r3], {11}
    12cc:	0d00000b 	stceq	0, cr0, [r0, #-44]	; 0xffffffd4
    12d0:	08030034 	stmdaeq	r3, {r2, r4, r5}
    12d4:	0b3b0b3a 	bleq	ec3fc4 <__bss_end__+0xeb5684>
    12d8:	00001349 	andeq	r1, r0, r9, asr #6
    12dc:	0300340e 	movweq	r3, #1038	; 0x40e
    12e0:	3b0b3a08 	blcc	2cfb08 <__bss_end__+0x2c11c8>
    12e4:	0213490b 	andseq	r4, r3, #180224	; 0x2c000
    12e8:	0f000018 	svceq	0x00000018
    12ec:	0111010b 	tsteq	r1, fp, lsl #2
    12f0:	13010612 	movwne	r0, #5650	; 0x1612
    12f4:	34100000 	ldrcc	r0, [r0], #-0
    12f8:	3a080300 	bcc	201f00 <__bss_end__+0x1f35c0>
    12fc:	490b3b0b 	stmdbmi	fp, {r0, r1, r3, r8, r9, fp, ip, sp}
    1300:	00170213 	andseq	r0, r7, r3, lsl r2
    1304:	82891100 	addhi	r1, r9, #0, 2
    1308:	01110101 	tsteq	r1, r1, lsl #2
    130c:	13011331 	movwne	r1, #4913	; 0x1331
    1310:	8a120000 	bhi	481318 <__bss_end__+0x4729d8>
    1314:	02000182 	andeq	r0, r0, #-2147483616	; 0x80000020
    1318:	18429118 	stmdane	r2, {r3, r4, r8, ip, pc}^
    131c:	89130000 	ldmdbhi	r3, {}	; <UNPREDICTABLE>
    1320:	11000182 	smlabbne	r0, r2, r1, r0
    1324:	00133101 	andseq	r3, r3, r1, lsl #2
    1328:	00051400 	andeq	r1, r5, r0, lsl #8
    132c:	0b3a0803 	bleq	e83340 <__bss_end__+0xe74a00>
    1330:	13490b3b 	movtne	r0, #39739	; 0x9b3b
    1334:	00001702 	andeq	r1, r0, r2, lsl #14
    1338:	03003415 	movweq	r3, #1045	; 0x415
    133c:	3413490e 	ldrcc	r4, [r3], #-2318	; 0x90e
    1340:	00180219 	andseq	r0, r8, r9, lsl r2
    1344:	012e1600 	teqeq	lr, r0, lsl #12
    1348:	0e03193f 	mcreq	9, 0, r1, cr3, cr15, {1}
    134c:	0b3b0b3a 	bleq	ec403c <__bss_end__+0xeb56fc>
    1350:	193c1927 	ldmdbne	ip!, {r0, r1, r2, r5, r8, fp, ip}
    1354:	00001301 	andeq	r1, r0, r1, lsl #6
    1358:	49000517 	stmdbmi	r0, {r0, r1, r2, r4, r8, sl}
    135c:	18000013 	stmdane	r0, {r0, r1, r4}
    1360:	193f002e 	ldmdbne	pc!, {r1, r2, r3, r5}	; <UNPREDICTABLE>
    1364:	0b3a0e03 	bleq	e84b78 <__bss_end__+0xe76238>
    1368:	19270b3b 	stmdbne	r7!, {r0, r1, r3, r4, r5, r8, r9, fp}
    136c:	0000193c 	andeq	r1, r0, ip, lsr r9
    1370:	3f012e19 	svccc	0x00012e19
    1374:	3a0e0319 	bcc	381fe0 <__bss_end__+0x3736a0>
    1378:	270b3b0b 	strcs	r3, [fp, -fp, lsl #22]
    137c:	3c134919 	ldccc	9, cr4, [r3], {25}
    1380:	00130119 	andseq	r0, r3, r9, lsl r1
    1384:	00181a00 	andseq	r1, r8, r0, lsl #20
    1388:	01000000 	mrseq	r0, (UNDEF: 0)
    138c:	0e250111 	mcreq	1, 1, r0, cr5, cr1, {0}
    1390:	0e030b13 	vmoveq.32	d3[0], r0
    1394:	01110e1b 	tsteq	r1, fp, lsl lr
    1398:	17100612 			; <UNDEFINED> instruction: 0x17100612
    139c:	24020000 	strcs	r0, [r2], #-0
    13a0:	3e0b0b00 	vmlacc.f64	d0, d11, d0
    13a4:	0008030b 	andeq	r0, r8, fp, lsl #6
    13a8:	00240300 	eoreq	r0, r4, r0, lsl #6
    13ac:	0b3e0b0b 	bleq	f83fe0 <__bss_end__+0xf756a0>
    13b0:	00000e03 	andeq	r0, r0, r3, lsl #28
    13b4:	03012e04 	movweq	r2, #7684	; 0x1e04
    13b8:	3b0b3a0e 	blcc	2cfbf8 <__bss_end__+0x2c12b8>
    13bc:	4919270b 	ldmdbmi	r9, {r0, r1, r3, r8, r9, sl, sp}
    13c0:	12011113 	andne	r1, r1, #-1073741820	; 0xc0000004
    13c4:	97184006 	ldrls	r4, [r8, -r6]
    13c8:	13011942 	movwne	r1, #6466	; 0x1942
    13cc:	05050000 	streq	r0, [r5, #-0]
    13d0:	3a080300 	bcc	201fd8 <__bss_end__+0x1f3698>
    13d4:	490b3b0b 	stmdbmi	fp, {r0, r1, r3, r8, r9, fp, ip, sp}
    13d8:	00170213 	andseq	r0, r7, r3, lsl r2
    13dc:	82890600 	addhi	r0, r9, #0, 12
    13e0:	01110101 	tsteq	r1, r1, lsl #2
    13e4:	00001331 	andeq	r1, r0, r1, lsr r3
    13e8:	01828a07 	orreq	r8, r2, r7, lsl #20
    13ec:	91180200 	tstls	r8, r0, lsl #4
    13f0:	00001842 	andeq	r1, r0, r2, asr #16
    13f4:	27011508 	strcs	r1, [r1, -r8, lsl #10]
    13f8:	01134919 	tsteq	r3, r9, lsl r9
    13fc:	09000013 	stmdbeq	r0, {r0, r1, r4}
    1400:	13490005 	movtne	r0, #36869	; 0x9005
    1404:	340a0000 	strcc	r0, [sl], #-0
    1408:	3a0e0300 	bcc	382010 <__bss_end__+0x3736d0>
    140c:	490b3b0b 	stmdbmi	fp, {r0, r1, r3, r8, r9, fp, ip, sp}
    1410:	02193f13 	andseq	r3, r9, #19, 30	; 0x4c
    1414:	0b000018 	bleq	147c <_start-0x6b84>
    1418:	0b0b000f 	bleq	2c145c <__bss_end__+0x2b2b1c>
    141c:	00001349 	andeq	r1, r0, r9, asr #6
    1420:	3f012e0c 	svccc	0x00012e0c
    1424:	3a0e0319 	bcc	382090 <__bss_end__+0x373750>
    1428:	270b3b0b 	strcs	r3, [fp, -fp, lsl #22]
    142c:	00193c19 	andseq	r3, r9, r9, lsl ip
    1430:	11010000 	mrsne	r0, (UNDEF: 1)
    1434:	130e2501 	movwne	r2, #58625	; 0xe501
    1438:	1b0e030b 	blne	38206c <__bss_end__+0x37372c>
    143c:	1201110e 	andne	r1, r1, #-2147483645	; 0x80000003
    1440:	00171006 	andseq	r1, r7, r6
    1444:	00240200 	eoreq	r0, r4, r0, lsl #4
    1448:	0b3e0b0b 	bleq	f8407c <__bss_end__+0xf7573c>
    144c:	00000803 	andeq	r0, r0, r3, lsl #16
    1450:	03001603 	movweq	r1, #1539	; 0x603
    1454:	3b0b3a0e 	blcc	2cfc94 <__bss_end__+0x2c1354>
    1458:	0013490b 	andseq	r4, r3, fp, lsl #18
    145c:	00240400 	eoreq	r0, r4, r0, lsl #8
    1460:	0b3e0b0b 	bleq	f84094 <__bss_end__+0xf75754>
    1464:	00000e03 	andeq	r0, r0, r3, lsl #28
    1468:	0b000f05 	bleq	5084 <_start-0x2f7c>
    146c:	0600000b 	streq	r0, [r0], -fp
    1470:	0b0b0113 	bleq	2c18c4 <__bss_end__+0x2b2f84>
    1474:	0b3b0b3a 	bleq	ec4164 <__bss_end__+0xeb5824>
    1478:	00001301 	andeq	r1, r0, r1, lsl #6
    147c:	03000d07 	movweq	r0, #3335	; 0xd07
    1480:	3b0b3a08 	blcc	2cfca8 <__bss_end__+0x2c1368>
    1484:	3813490b 	ldmdacc	r3, {r0, r1, r3, r8, fp, lr}
    1488:	0800000b 	stmdaeq	r0, {r0, r1, r3}
    148c:	0e03000d 	cdpeq	0, 0, cr0, cr3, cr13, {0}
    1490:	0b3b0b3a 	bleq	ec4180 <__bss_end__+0xeb5840>
    1494:	0b381349 	bleq	e061c0 <__bss_end__+0xdf7880>
    1498:	04090000 	streq	r0, [r9], #-0
    149c:	3a0b0b01 	bcc	2c40a8 <__bss_end__+0x2b5768>
    14a0:	010b3b0b 	tsteq	fp, fp, lsl #22
    14a4:	0a000013 	beq	14f8 <_start-0x6b08>
    14a8:	0e030028 	cdpeq	0, 0, cr0, cr3, cr8, {1}
    14ac:	00000d1c 	andeq	r0, r0, ip, lsl sp
    14b0:	3f012e0b 	svccc	0x00012e0b
    14b4:	3a0e0319 	bcc	382120 <__bss_end__+0x3737e0>
    14b8:	270b3b0b 	strcs	r3, [fp, -fp, lsl #22]
    14bc:	11134919 	tstne	r3, r9, lsl r9
    14c0:	40061201 	andmi	r1, r6, r1, lsl #4
    14c4:	19429718 	stmdbne	r2, {r3, r4, r8, r9, sl, ip, pc}^
    14c8:	00001301 	andeq	r1, r0, r1, lsl #6
    14cc:	0300340c 	movweq	r3, #1036	; 0x40c
    14d0:	3b0b3a08 	blcc	2cfcf8 <__bss_end__+0x2c13b8>
    14d4:	1c13490b 	ldcne	9, cr4, [r3], {11}
    14d8:	0d000006 	stceq	0, cr0, [r0, #-24]	; 0xffffffe8
    14dc:	01018289 	smlabbeq	r1, r9, r2, r8
    14e0:	13310111 	teqne	r1, #1073741828	; 0x40000004
    14e4:	8a0e0000 	bhi	3814ec <__bss_end__+0x372bac>
    14e8:	02000182 	andeq	r0, r0, #-2147483616	; 0x80000020
    14ec:	18429118 	stmdane	r2, {r3, r4, r8, ip, pc}^
    14f0:	0f0f0000 	svceq	0x000f0000
    14f4:	490b0b00 	stmdbmi	fp, {r8, r9, fp}
    14f8:	10000013 	andne	r0, r0, r3, lsl r0
    14fc:	193f012e 	ldmdbne	pc!, {r1, r2, r3, r5, r8}	; <UNPREDICTABLE>
    1500:	0b3a0e03 	bleq	e84d14 <__bss_end__+0xe763d4>
    1504:	19270b3b 	stmdbne	r7!, {r0, r1, r3, r4, r5, r8, r9, fp}
    1508:	193c1349 	ldmdbne	ip!, {r0, r3, r6, r8, r9, ip}
    150c:	05110000 	ldreq	r0, [r1, #-0]
    1510:	00134900 	andseq	r4, r3, r0, lsl #18
	...

Disassembly of section .debug_loc:

00000000 <.debug_loc>:
       0:	00000000 	andeq	r0, r0, r0
       4:	00000017 	andeq	r0, r0, r7, lsl r0
       8:	17500001 	ldrbne	r0, [r0, -r1]
       c:	a4000000 	strge	r0, [r0], #-0
      10:	01000001 	tsteq	r0, r1
      14:	00005400 	andeq	r5, r0, r0, lsl #8
	...
      20:	00100000 	andseq	r0, r0, r0
      24:	00010000 	andeq	r0, r1, r0
      28:	00001051 	andeq	r1, r0, r1, asr r0
      2c:	00004c00 	andeq	r4, r0, r0, lsl #24
      30:	55000100 	strpl	r0, [r0, #-256]	; 0x100
      34:	0000004c 	andeq	r0, r0, ip, asr #32
      38:	000001a4 	andeq	r0, r0, r4, lsr #3
      3c:	01f30004 	mvnseq	r0, r4
      40:	00009f51 	andeq	r9, r0, r1, asr pc
      44:	00000000 	andeq	r0, r0, r0
      48:	00ec0000 	rsceq	r0, ip, r0
      4c:	01140000 	tsteq	r4, r0
      50:	00020000 	andeq	r0, r2, r0
      54:	01149f42 	tsteq	r4, r2, asr #30
      58:	012c0000 	teqeq	ip, r0
      5c:	00010000 	andeq	r0, r1, r0
      60:	00012c51 	andeq	r2, r1, r1, asr ip
      64:	00013400 	andeq	r3, r1, r0, lsl #8
      68:	42000200 	andmi	r0, r0, #0, 4
      6c:	0001349f 	muleq	r1, pc, r4	; <UNPREDICTABLE>
      70:	00016400 	andeq	r6, r1, r0, lsl #8
      74:	51000100 	mrspl	r0, (UNDEF: 16)
	...
      80:	0000010c 	andeq	r0, r0, ip, lsl #2
      84:	00000118 	andeq	r0, r0, r8, lsl r1
      88:	18520001 	ldmdane	r2, {r0}^
      8c:	1c000001 	stcne	0, cr0, [r0], {1}
      90:	03000001 	movweq	r0, #1
      94:	9f7f7200 	svcls	0x007f7200
	...
      a0:	000001b0 			; <UNDEFINED> instruction: 0x000001b0
      a4:	000001bc 			; <UNDEFINED> instruction: 0x000001bc
      a8:	c0500001 	subsgt	r0, r0, r1
      ac:	c4000001 	strgt	r0, [r0], #-1
      b0:	01000001 	tsteq	r0, r1
      b4:	00005000 	andeq	r5, r0, r0
      b8:	00000000 	andeq	r0, r0, r0
      bc:	02c80000 	sbceq	r0, r8, #0
      c0:	02d30000 	sbcseq	r0, r3, #0
      c4:	00010000 	andeq	r0, r1, r0
      c8:	0002d350 	andeq	sp, r2, r0, asr r3
      cc:	0002f800 	andeq	pc, r2, r0, lsl #16
      d0:	54000100 	strpl	r0, [r0], #-256	; 0x100
      d4:	000002f8 	strdeq	r0, [r0], -r8
      d8:	0000031c 	andeq	r0, r0, ip, lsl r3
      dc:	01f30004 	mvnseq	r0, r4
      e0:	00009f50 	andeq	r9, r0, r0, asr pc
      e4:	00000000 	andeq	r0, r0, r0
      e8:	02dc0000 	sbcseq	r0, ip, #0
      ec:	02e00000 	rsceq	r0, r0, #0
      f0:	00010000 	andeq	r0, r1, r0
      f4:	0002e050 	andeq	lr, r2, r0, asr r0
      f8:	0002ef00 	andeq	lr, r2, r0, lsl #30
      fc:	51000100 	mrspl	r0, (UNDEF: 16)
     100:	000002f4 	strdeq	r0, [r0], -r4
     104:	00000300 	andeq	r0, r0, r0, lsl #6
     108:	00510001 	subseq	r0, r1, r1
     10c:	00000000 	andeq	r0, r0, r0
     110:	1c000000 	stcne	0, cr0, [r0], {-0}
     114:	27000003 	strcs	r0, [r0, -r3]
     118:	01000003 	tsteq	r0, r3
     11c:	03275000 	teqeq	r7, #0
     120:	03fc0000 	mvnseq	r0, #0
     124:	00040000 	andeq	r0, r4, r0
     128:	9f5001f3 	svcls	0x005001f3
	...
     134:	00000390 	muleq	r0, r0, r3
     138:	000003c0 	andeq	r0, r0, r0, asr #7
     13c:	c4560001 	ldrbgt	r0, [r6], #-1
     140:	e8000003 	stmda	r0, {r0, r1}
     144:	01000003 	tsteq	r0, r3
     148:	00005600 	andeq	r5, r0, r0, lsl #12
     14c:	00000000 	andeq	r0, r0, r0
     150:	03280000 	teqeq	r8, #0
     154:	037c0000 	cmneq	ip, #0
     158:	00010000 	andeq	r0, r1, r0
     15c:	00000054 	andeq	r0, r0, r4, asr r0
     160:	00000000 	andeq	r0, r0, r0
     164:	00033400 	andeq	r3, r3, r0, lsl #8
     168:	00036000 	andeq	r6, r3, r0
     16c:	51000100 	mrspl	r0, (UNDEF: 16)
     170:	00000360 	andeq	r0, r0, r0, ror #6
     174:	00000377 	andeq	r0, r0, r7, ror r3
     178:	fc030005 	stc2	0, cr0, [r3], {5}
     17c:	000000e4 	andeq	r0, r0, r4, ror #1
     180:	00000000 	andeq	r0, r0, r0
     184:	90000000 	andls	r0, r0, r0
     188:	98000003 	stmdals	r0, {r0, r1}
     18c:	06000003 	streq	r0, [r0], -r3
     190:	076af200 	strbeq	pc, [sl, -r0, lsl #4]!	; <UNPREDICTABLE>
     194:	a4000000 	strge	r0, [r0], #-0
     198:	e8000003 	stmda	r0, {r0, r1}
     19c:	06000003 	streq	r0, [r0], -r3
     1a0:	076af200 	strbeq	pc, [sl, -r0, lsl #4]!	; <UNPREDICTABLE>
	...
     1ac:	90000000 	andls	r0, r0, r0
     1b0:	98000003 	stmdals	r0, {r0, r1}
     1b4:	06000003 	streq	r0, [r0], -r3
     1b8:	c4f80300 	ldrbtgt	r0, [r8], #768	; 0x300
     1bc:	a49f0000 	ldrge	r0, [pc], #0	; 1c4 <_start-0x7e3c>
     1c0:	e8000003 	stmda	r0, {r0, r1}
     1c4:	06000003 	streq	r0, [r0], -r3
     1c8:	c4f80300 	ldrbtgt	r0, [r8], #768	; 0x300
     1cc:	009f0000 	addseq	r0, pc, r0
     1d0:	00000000 	andeq	r0, r0, r0
     1d4:	b8000000 	stmdalt	r0, {}	; <UNPREDICTABLE>
     1d8:	c8000003 	stmdagt	r0, {r0, r1}
     1dc:	01000003 	tsteq	r0, r3
     1e0:	03c85300 	biceq	r5, r8, #0, 6
     1e4:	03d40000 	bicseq	r0, r4, #0
     1e8:	00050000 	andeq	r0, r5, r0
     1ec:	00e50003 	rsceq	r0, r5, r3
	...
     1f8:	0003fc00 	andeq	pc, r3, r0, lsl #24
     1fc:	00040400 	andeq	r0, r4, r0, lsl #8
     200:	50000100 	andpl	r0, r0, r0, lsl #2
     204:	00000404 	andeq	r0, r0, r4, lsl #8
     208:	0000054c 	andeq	r0, r0, ip, asr #10
     20c:	01f30004 	mvnseq	r0, r4
     210:	00009f50 	andeq	r9, r0, r0, asr pc
     214:	00000000 	andeq	r0, r0, r0
     218:	04080000 	streq	r0, [r8], #-0
     21c:	04140000 	ldreq	r0, [r4], #-0
     220:	00010000 	andeq	r0, r1, r0
     224:	00045050 	andeq	r5, r4, r0, asr r0
     228:	00045c00 	andeq	r5, r4, r0, lsl #24
     22c:	50000100 	andpl	r0, r0, r0, lsl #2
     230:	00000484 	andeq	r0, r0, r4, lsl #9
     234:	00000490 	muleq	r0, r0, r4
     238:	9c500001 	mrrcls	0, 0, r0, r0, cr1	; <UNPREDICTABLE>
     23c:	b4000004 	strlt	r0, [r0], #-4
     240:	01000004 	tsteq	r0, r4
     244:	00005000 	andeq	r5, r0, r0
     248:	00000000 	andeq	r0, r0, r0
     24c:	04180000 	ldreq	r0, [r8], #-0
     250:	041c0000 	ldreq	r0, [ip], #-0
     254:	00010000 	andeq	r0, r1, r0
     258:	00000050 	andeq	r0, r0, r0, asr r0
     25c:	00000000 	andeq	r0, r0, r0
     260:	00041c00 	andeq	r1, r4, r0, lsl #24
     264:	00045000 	andeq	r5, r4, r0
     268:	50000100 	andpl	r0, r0, r0, lsl #2
	...
     274:	0000041c 	andeq	r0, r0, ip, lsl r4
     278:	00000450 	andeq	r0, r0, r0, asr r4
     27c:	e4030006 	str	r0, [r3], #-6
     280:	9f0000a4 	svcls	0x000000a4
	...
     28c:	00000420 	andeq	r0, r0, r0, lsr #8
     290:	00000450 	andeq	r0, r0, r0, asr r4
     294:	00510001 	subseq	r0, r1, r1
     298:	00000000 	andeq	r0, r0, r0
     29c:	20000000 	andcs	r0, r0, r0
     2a0:	50000004 	andpl	r0, r0, r4
     2a4:	06000004 	streq	r0, [r0], -r4
     2a8:	a4e40300 	strbtge	r0, [r4], #768	; 0x300
     2ac:	009f0000 	addseq	r0, pc, r0
     2b0:	00000000 	andeq	r0, r0, r0
     2b4:	14000000 	strne	r0, [r0], #-0
     2b8:	50000004 	andpl	r0, r0, r4
     2bc:	06000004 	streq	r0, [r0], -r4
     2c0:	a4e40300 	strbtge	r0, [r4], #768	; 0x300
     2c4:	5c9f0000 	ldcpl	0, cr0, [pc], {0}
     2c8:	84000004 	strhi	r0, [r0], #-4
     2cc:	06000004 	streq	r0, [r0], -r4
     2d0:	a4e40300 	strbtge	r0, [r4], #768	; 0x300
     2d4:	009f0000 	addseq	r0, pc, r0
     2d8:	00000000 	andeq	r0, r0, r0
     2dc:	90000000 	andls	r0, r0, r0
     2e0:	9c000004 	stcls	0, cr0, [r0], {4}
     2e4:	06000004 	streq	r0, [r0], -r4
     2e8:	e50c0300 	str	r0, [ip, #-768]	; 0x300
     2ec:	c09f0000 	addsgt	r0, pc, r0
     2f0:	04000004 	streq	r0, [r0], #-4
     2f4:	06000005 	streq	r0, [r0], -r5
     2f8:	e50c0300 	str	r0, [ip, #-768]	; 0x300
     2fc:	009f0000 	addseq	r0, pc, r0
     300:	00000000 	andeq	r0, r0, r0
     304:	90000000 	andls	r0, r0, r0
     308:	9c000004 	stcls	0, cr0, [r0], {4}
     30c:	06000004 	streq	r0, [r0], -r4
     310:	c4f80300 	ldrbtgt	r0, [r8], #768	; 0x300
     314:	c09f0000 	addsgt	r0, pc, r0
     318:	04000004 	streq	r0, [r0], #-4
     31c:	06000005 	streq	r0, [r0], -r5
     320:	c4f80300 	ldrbtgt	r0, [r8], #768	; 0x300
     324:	009f0000 	addseq	r0, pc, r0
     328:	00000000 	andeq	r0, r0, r0
     32c:	d4000000 	strle	r0, [r0], #-0
     330:	e4000004 	str	r0, [r0], #-4
     334:	01000004 	tsteq	r0, r4
     338:	04e45300 	strbteq	r5, [r4], #768	; 0x300
     33c:	04f00000 	ldrbteq	r0, [r0], #0
     340:	00050000 	andeq	r0, r5, r0
     344:	00e50003 	rsceq	r0, r5, r3
	...
     350:	00054c00 	andeq	r4, r5, r0, lsl #24
     354:	00059400 	andeq	r9, r5, r0, lsl #8
     358:	09000300 	stmdbeq	r0, {r8, r9}
     35c:	05949f82 	ldreq	r9, [r4, #3970]	; 0xf82
     360:	05a80000 	streq	r0, [r8, #0]!
     364:	00010000 	andeq	r0, r1, r0
     368:	0005a850 	andeq	sl, r5, r0, asr r8
     36c:	0005b400 	andeq	fp, r5, r0, lsl #8
     370:	09000300 	stmdbeq	r0, {r8, r9}
     374:	05b49f82 	ldreq	r9, [r4, #3970]!	; 0xf82
     378:	05c40000 	strbeq	r0, [r4]
     37c:	00010000 	andeq	r0, r1, r0
     380:	00000050 	andeq	r0, r0, r0, asr r0
     384:	00000000 	andeq	r0, r0, r0
     388:	00056800 	andeq	r6, r5, r0, lsl #16
     38c:	0005a800 	andeq	sl, r5, r0, lsl #16
     390:	f2000600 	vmax.s8	d0, d0, d0
     394:	000009f1 	strdeq	r0, [r0], -r1
     398:	0005b000 	andeq	fp, r5, r0
     39c:	0005c400 	andeq	ip, r5, r0, lsl #8
     3a0:	f2000600 	vmax.s8	d0, d0, d0
     3a4:	000009f1 	strdeq	r0, [r0], -r1
	...
     3b0:	00056800 	andeq	r6, r5, r0, lsl #16
     3b4:	0005a800 	andeq	sl, r5, r0, lsl #16
     3b8:	03000600 	movweq	r0, #1536	; 0x600
     3bc:	0000a4e4 	andeq	sl, r0, r4, ror #9
     3c0:	0005b09f 	muleq	r5, pc, r0	; <UNPREDICTABLE>
     3c4:	0005c400 	andeq	ip, r5, r0, lsl #8
     3c8:	03000600 	movweq	r0, #1536	; 0x600
     3cc:	0000a4e4 	andeq	sl, r0, r4, ror #9
     3d0:	0000009f 	muleq	r0, pc, r0	; <UNPREDICTABLE>
     3d4:	00000000 	andeq	r0, r0, r0
     3d8:	00058c00 	andeq	r8, r5, r0, lsl #24
     3dc:	00059800 	andeq	r9, r5, r0, lsl #16
     3e0:	51000100 	mrspl	r0, (UNDEF: 16)
     3e4:	00000598 	muleq	r0, r8, r5
     3e8:	000005a8 	andeq	r0, r0, r8, lsr #11
     3ec:	ec030005 	stc	0, cr0, [r3], {5}
     3f0:	000000c4 	andeq	r0, r0, r4, asr #1
     3f4:	00000000 	andeq	r0, r0, r0
     3f8:	20000000 	andcs	r0, r0, r0
     3fc:	23000007 	movwcs	r0, #7
     400:	01000007 	tsteq	r0, r7
     404:	07235000 	streq	r5, [r3, -r0]!
     408:	07600000 	strbeq	r0, [r0, -r0]!
     40c:	00010000 	andeq	r0, r1, r0
     410:	00000054 	andeq	r0, r0, r4, asr r0
	...
     41c:	00000400 	andeq	r0, r0, r0, lsl #8
     420:	52000100 	andpl	r0, r0, #0, 2
     424:	00000004 	andeq	r0, r0, r4
     428:	00000020 	andeq	r0, r0, r0, lsr #32
     42c:	01f30004 	mvnseq	r0, r4
     430:	00009f52 	andeq	r9, r0, r2, asr pc
	...
     43c:	000c0000 	andeq	r0, ip, r0
     440:	00010000 	andeq	r0, r1, r0
     444:	00000c50 	andeq	r0, r0, r0, asr ip
     448:	00001400 	andeq	r1, r0, r0, lsl #8
     44c:	73000300 	movwvc	r0, #768	; 0x300
     450:	00149f01 	andseq	r9, r4, r1, lsl #30
     454:	00200000 	eoreq	r0, r0, r0
     458:	00010000 	andeq	r0, r1, r0
     45c:	00000053 	andeq	r0, r0, r3, asr r0
     460:	00000000 	andeq	r0, r0, r0
     464:	00002c00 	andeq	r2, r0, r0, lsl #24
     468:	00003800 	andeq	r3, r0, r0, lsl #16
     46c:	50000100 	andpl	r0, r0, r0, lsl #2
     470:	00000038 	andeq	r0, r0, r8, lsr r0
     474:	00000048 	andeq	r0, r0, r8, asr #32
     478:	48550001 	ldmdami	r5, {r0}^
     47c:	58000000 	stmdapl	r0, {}	; <UNPREDICTABLE>
     480:	01000000 	mrseq	r0, (UNDEF: 0)
     484:	00005000 	andeq	r5, r0, r0
	...
     490:	00100000 	andseq	r0, r0, r0
     494:	00010000 	andeq	r0, r1, r0
     498:	00001050 	andeq	r1, r0, r0, asr r0
     49c:	00003400 	andeq	r3, r0, r0, lsl #8
     4a0:	54000100 	strpl	r0, [r0], #-256	; 0x100
	...
     4b0:	00000004 	andeq	r0, r0, r4
     4b4:	04500001 	ldrbeq	r0, [r0], #-1
     4b8:	0c000000 	stceq	0, cr0, [r0], {-0}
     4bc:	03000000 	movweq	r0, #0
     4c0:	9f307000 	svcls	0x00307000
     4c4:	0000000c 	andeq	r0, r0, ip
     4c8:	00000014 	andeq	r0, r0, r4, lsl r0
     4cc:	01f30004 	mvnseq	r0, r4
     4d0:	00009f50 	andeq	r9, r0, r0, asr pc
     4d4:	00000000 	andeq	r0, r0, r0
     4d8:	00140000 	andseq	r0, r4, r0
     4dc:	00200000 	eoreq	r0, r0, r0
     4e0:	00010000 	andeq	r0, r1, r0
     4e4:	00002050 	andeq	r2, r0, r0, asr r0
     4e8:	00002c00 	andeq	r2, r0, r0, lsl #24
     4ec:	70000300 	andvc	r0, r0, r0, lsl #6
     4f0:	002c9f01 	eoreq	r9, ip, r1, lsl #30
     4f4:	00400000 	subeq	r0, r0, r0
     4f8:	00010000 	andeq	r0, r1, r0
     4fc:	00000050 	andeq	r0, r0, r0, asr r0
     500:	00000000 	andeq	r0, r0, r0
     504:	00001400 	andeq	r1, r0, r0, lsl #8
     508:	00001800 	andeq	r1, r0, r0, lsl #16
     50c:	51000100 	mrspl	r0, (UNDEF: 16)
     510:	00000018 	andeq	r0, r0, r8, lsl r0
     514:	00000040 	andeq	r0, r0, r0, asr #32
     518:	01f30004 	mvnseq	r0, r4
     51c:	00009f51 	andeq	r9, r0, r1, asr pc
     520:	00000000 	andeq	r0, r0, r0
     524:	00400000 	subeq	r0, r0, r0
     528:	00600000 	rsbeq	r0, r0, r0
     52c:	00010000 	andeq	r0, r1, r0
     530:	00006050 	andeq	r6, r0, r0, asr r0
     534:	00006c00 	andeq	r6, r0, r0, lsl #24
     538:	71000300 	mrsvc	r0, LR_irq
     53c:	006c9f01 	rsbeq	r9, ip, r1, lsl #30
     540:	00740000 	rsbseq	r0, r4, r0
     544:	00010000 	andeq	r0, r1, r0
     548:	00007451 	andeq	r7, r0, r1, asr r4
     54c:	00008000 	andeq	r8, r0, r0
     550:	71000300 	mrsvc	r0, LR_irq
     554:	00009f01 	andeq	r9, r0, r1, lsl #30
     558:	00000000 	andeq	r0, r0, r0
     55c:	00400000 	subeq	r0, r0, r0
     560:	00500000 	subseq	r0, r0, r0
     564:	00010000 	andeq	r0, r1, r0
     568:	00005051 	andeq	r5, r0, r1, asr r0
     56c:	00008000 	andeq	r8, r0, r0
     570:	f3000400 	vshl.u8	d0, d0, d0
     574:	009f5101 	addseq	r5, pc, r1, lsl #2
     578:	00000000 	andeq	r0, r0, r0
     57c:	40000000 	andmi	r0, r0, r0
     580:	58000000 	stmdapl	r0, {}	; <UNPREDICTABLE>
     584:	01000000 	mrseq	r0, (UNDEF: 0)
     588:	00585200 	subseq	r5, r8, r0, lsl #4
     58c:	00640000 	rsbeq	r0, r4, r0
     590:	00010000 	andeq	r0, r1, r0
     594:	00006452 	andeq	r6, r0, r2, asr r4
     598:	00006800 	andeq	r6, r0, r0, lsl #16
     59c:	72000300 	andvc	r0, r0, #0, 6
     5a0:	00689f01 	rsbeq	r9, r8, r1, lsl #30
     5a4:	00800000 	addeq	r0, r0, r0
     5a8:	00010000 	andeq	r0, r1, r0
     5ac:	00000052 	andeq	r0, r0, r2, asr r0
     5b0:	00000000 	andeq	r0, r0, r0
     5b4:	00004000 	andeq	r4, r0, r0
     5b8:	00005400 	andeq	r5, r0, r0, lsl #8
     5bc:	53000100 	movwpl	r0, #256	; 0x100
     5c0:	00000054 	andeq	r0, r0, r4, asr r0
     5c4:	00000078 	andeq	r0, r0, r8, ror r0
     5c8:	00530001 	subseq	r0, r3, r1
     5cc:	00000000 	andeq	r0, r0, r0
     5d0:	48000000 	stmdami	r0, {}	; <UNPREDICTABLE>
     5d4:	60000000 	andvs	r0, r0, r0
     5d8:	01000000 	mrseq	r0, (UNDEF: 0)
     5dc:	00605c00 	rsbeq	r5, r0, r0, lsl #24
     5e0:	00800000 	addeq	r0, r0, r0
     5e4:	000a0000 	andeq	r0, sl, r0
     5e8:	f35201f3 	vbsl	q8, q9, <illegal reg q9.5>
     5ec:	231c5301 	tstcs	ip, #67108864	; 0x4000000
     5f0:	00009f01 	andeq	r9, r0, r1, lsl #30
     5f4:	00000000 	andeq	r0, r0, r0
     5f8:	00800000 	addeq	r0, r0, r0
     5fc:	00a40000 	adceq	r0, r4, r0
     600:	00010000 	andeq	r0, r1, r0
     604:	0000a450 	andeq	sl, r0, r0, asr r4
     608:	00011800 	andeq	r1, r1, r0, lsl #16
     60c:	70000300 	andvc	r0, r0, r0, lsl #6
     610:	01189f02 	tsteq	r8, r2, lsl #30
     614:	02180000 	andseq	r0, r8, #0
     618:	00040000 	andeq	r0, r4, r0
     61c:	9f5001f3 	svcls	0x005001f3
	...
     628:	00000080 	andeq	r0, r0, r0, lsl #1
     62c:	000000f0 	strdeq	r0, [r0], -r0	; <UNPREDICTABLE>
     630:	f0510001 			; <UNDEFINED> instruction: 0xf0510001
     634:	60000000 	andvs	r0, r0, r0
     638:	01000001 	tsteq	r0, r1
     63c:	01605500 	cmneq	r0, r0, lsl #10
     640:	01680000 	cmneq	r8, r0
     644:	00010000 	andeq	r0, r1, r0
     648:	00016851 	andeq	r6, r1, r1, asr r8
     64c:	00018800 	andeq	r8, r1, r0, lsl #16
     650:	55000100 	strpl	r0, [r0, #-256]	; 0x100
     654:	00000188 	andeq	r0, r0, r8, lsl #3
     658:	0000019c 	muleq	r0, ip, r1
     65c:	9c510001 	mrrcls	0, 0, r0, r1, cr1
     660:	bc000001 	stclt	0, cr0, [r0], {1}
     664:	01000001 	tsteq	r0, r1
     668:	01bc5500 			; <UNDEFINED> instruction: 0x01bc5500
     66c:	01c40000 	biceq	r0, r4, r0
     670:	00010000 	andeq	r0, r1, r0
     674:	0001c451 	andeq	ip, r1, r1, asr r4
     678:	0001fc00 	andeq	pc, r1, r0, lsl #24
     67c:	55000100 	strpl	r0, [r0, #-256]	; 0x100
     680:	000001fc 	strdeq	r0, [r0], -ip
     684:	00000218 	andeq	r0, r0, r8, lsl r2
     688:	01f30004 	mvnseq	r0, r4
     68c:	00009f51 	andeq	r9, r0, r1, asr pc
     690:	00000000 	andeq	r0, r0, r0
     694:	00800000 	addeq	r0, r0, r0
     698:	00940000 	addseq	r0, r4, r0
     69c:	00010000 	andeq	r0, r1, r0
     6a0:	00009452 	andeq	r9, r0, r2, asr r4
     6a4:	0001fc00 	andeq	pc, r1, r0, lsl #24
     6a8:	54000100 	strpl	r0, [r0], #-256	; 0x100
     6ac:	000001fc 	strdeq	r0, [r0], -ip
     6b0:	00000218 	andeq	r0, r0, r8, lsl r2
     6b4:	01f30004 	mvnseq	r0, r4
     6b8:	00009f52 	andeq	r9, r0, r2, asr pc
     6bc:	00000000 	andeq	r0, r0, r0
     6c0:	00800000 	addeq	r0, r0, r0
     6c4:	01000000 	mrseq	r0, (UNDEF: 0)
     6c8:	00010000 	andeq	r0, r1, r0
     6cc:	00010453 	andeq	r0, r1, r3, asr r4
     6d0:	00010800 	andeq	r0, r1, r0, lsl #16
     6d4:	53000100 	movwpl	r0, #256	; 0x100
     6d8:	00000160 	andeq	r0, r0, r0, ror #2
     6dc:	00000168 	andeq	r0, r0, r8, ror #2
     6e0:	68530001 	ldmdavs	r3, {r0}^
     6e4:	88000001 	stmdahi	r0, {r0}
     6e8:	04000001 	streq	r0, [r0], #-1
     6ec:	5301f300 	movwpl	pc, #4864	; 0x1300	; <UNPREDICTABLE>
     6f0:	0001889f 	muleq	r1, pc, r8	; <UNPREDICTABLE>
     6f4:	00019000 	andeq	r9, r1, r0
     6f8:	53000100 	movwpl	r0, #256	; 0x100
     6fc:	00000190 	muleq	r0, r0, r1
     700:	00000194 	muleq	r0, r4, r1
     704:	945c0001 	ldrbls	r0, [ip], #-1
     708:	9c000001 	stcls	0, cr0, [r0], {1}
     70c:	01000001 	tsteq	r0, r1
     710:	019c5300 	orrseq	r5, ip, r0, lsl #6
     714:	01bc0000 			; <UNDEFINED> instruction: 0x01bc0000
     718:	00040000 	andeq	r0, r4, r0
     71c:	9f5301f3 	svcls	0x005301f3
     720:	000001bc 			; <UNDEFINED> instruction: 0x000001bc
     724:	000001cc 	andeq	r0, r0, ip, asr #3
     728:	cc530001 	mrrcgt	0, 0, r0, r3, cr1
     72c:	cf000001 	svcgt	0x00000001
     730:	01000001 	tsteq	r0, r1
     734:	01cf5c00 	biceq	r5, pc, r0, lsl #24
     738:	01d40000 	bicseq	r0, r4, r0
     73c:	00040000 	andeq	r0, r4, r0
     740:	9f5301f3 	svcls	0x005301f3
	...
     74c:	00000080 	andeq	r0, r0, r0, lsl #1
     750:	0000009c 	muleq	r0, ip, r0
     754:	00910002 	addseq	r0, r1, r2
     758:	0000009c 	muleq	r0, ip, r0
     75c:	000001c8 	andeq	r0, r0, r8, asr #3
     760:	d4520001 	ldrble	r0, [r2], #-1
     764:	df000001 	svcle	0x00000001
     768:	01000001 	tsteq	r0, r1
     76c:	00005200 	andeq	r5, r0, r0, lsl #4
     770:	00000000 	andeq	r0, r0, r0
     774:	009c0000 	addseq	r0, ip, r0
     778:	01180000 	tsteq	r8, r0
     77c:	00010000 	andeq	r0, r1, r0
     780:	0001185d 	andeq	r1, r1, sp, asr r8
     784:	00011c00 	andeq	r1, r1, r0, lsl #24
     788:	53000100 	movwpl	r0, #256	; 0x100
     78c:	0000011c 	andeq	r0, r0, ip, lsl r1
     790:	00000120 	andeq	r0, r0, r0, lsr #2
     794:	20510001 	subscs	r0, r1, r1
     798:	60000001 	andvs	r0, r0, r1
     79c:	01000001 	tsteq	r0, r1
     7a0:	01605300 	cmneq	r0, r0, lsl #6
     7a4:	01680000 	cmneq	r8, r0
     7a8:	00010000 	andeq	r0, r1, r0
     7ac:	0001685d 	andeq	r6, r1, sp, asr r8
     7b0:	00016c00 	andeq	r6, r1, r0, lsl #24
     7b4:	5e000100 	adfpls	f0, f0, f0
     7b8:	0000016c 	andeq	r0, r0, ip, ror #2
     7bc:	00000188 	andeq	r0, r0, r8, lsl #3
     7c0:	88530001 	ldmdahi	r3, {r0}^
     7c4:	90000001 	andls	r0, r0, r1
     7c8:	04000001 	streq	r0, [r0], #-1
     7cc:	7fa19100 	svcvc	0x00a19100
     7d0:	0001909f 	muleq	r1, pc, r0	; <UNPREDICTABLE>
     7d4:	00019400 	andeq	r9, r1, r0, lsl #8
     7d8:	53000100 	movwpl	r0, #256	; 0x100
     7dc:	00000194 	muleq	r0, r4, r1
     7e0:	0000019c 	muleq	r0, ip, r1
     7e4:	9c5d0001 	mrrcls	0, 0, r0, sp, cr1
     7e8:	a0000001 	andge	r0, r0, r1
     7ec:	01000001 	tsteq	r0, r1
     7f0:	01a05e00 	lsleq	r5, r0, #28
     7f4:	01bc0000 			; <UNDEFINED> instruction: 0x01bc0000
     7f8:	00010000 	andeq	r0, r1, r0
     7fc:	0001bc53 	andeq	fp, r1, r3, asr ip
     800:	0001d400 	andeq	sp, r1, r0, lsl #8
     804:	5d000100 	stfpls	f0, [r0, #-0]
     808:	000001d4 	ldrdeq	r0, [r0], -r4
     80c:	000001df 	ldrdeq	r0, [r0], -pc	; <UNPREDICTABLE>
     810:	00530001 	subseq	r0, r3, r1
     814:	00000000 	andeq	r0, r0, r0
     818:	a0000000 	andge	r0, r0, r0
     81c:	ec000000 	stc	0, cr0, [r0], {-0}
     820:	01000000 	mrseq	r0, (UNDEF: 0)
     824:	00ec5c00 	rsceq	r5, ip, r0, lsl #24
     828:	01000000 	mrseq	r0, (UNDEF: 0)
     82c:	00010000 	andeq	r0, r1, r0
     830:	00010053 	andeq	r0, r1, r3, asr r0
     834:	00010400 	andeq	r0, r1, r0, lsl #8
     838:	5c000100 	stfpls	f0, [r0], {-0}
     83c:	00000104 	andeq	r0, r0, r4, lsl #2
     840:	00000108 	andeq	r0, r0, r8, lsl #2
     844:	08530001 	ldmdaeq	r3, {r0}^
     848:	18000001 	stmdane	r0, {r0}
     84c:	01000001 	tsteq	r0, r1
     850:	01185c00 	tsteq	r8, r0, lsl #24
     854:	011c0000 	tsteq	ip, r0
     858:	00010000 	andeq	r0, r1, r0
     85c:	00011c50 	andeq	r1, r1, r0, asr ip
     860:	00013c00 	andeq	r3, r1, r0, lsl #24
     864:	5c000100 	stfpls	f0, [r0], {-0}
     868:	00000144 	andeq	r0, r0, r4, asr #2
     86c:	00000158 	andeq	r0, r0, r8, asr r1
     870:	58500001 	ldmdapl	r0, {r0}^
     874:	60000001 	andvs	r0, r0, r1
     878:	01000001 	tsteq	r0, r1
     87c:	01605c00 	cmneq	r0, r0, lsl #24
     880:	01680000 	cmneq	r8, r0
     884:	00010000 	andeq	r0, r1, r0
     888:	00016853 	andeq	r6, r1, r3, asr r8
     88c:	00017800 	andeq	r7, r1, r0, lsl #16
     890:	5c000100 	stfpls	f0, [r0], {-0}
     894:	00000178 	andeq	r0, r0, r8, ror r1
     898:	00000180 	andeq	r0, r0, r0, lsl #3
     89c:	007c0005 	rsbseq	r0, ip, r5
     8a0:	809f2534 	addshi	r2, pc, r4, lsr r5	; <UNPREDICTABLE>
     8a4:	88000001 	stmdahi	r0, {r0}
     8a8:	01000001 	tsteq	r0, r1
     8ac:	01885c00 	orreq	r5, r8, r0, lsl #24
     8b0:	01900000 	orrseq	r0, r0, r0
     8b4:	00010000 	andeq	r0, r1, r0
     8b8:	00019053 	andeq	r9, r1, r3, asr r0
     8bc:	00019400 	andeq	r9, r1, r0, lsl #8
     8c0:	5c000100 	stfpls	f0, [r0], {-0}
     8c4:	00000194 	muleq	r0, r4, r1
     8c8:	0000019c 	muleq	r0, ip, r1
     8cc:	9c530001 	mrrcls	0, 0, r0, r3, cr1
     8d0:	ac000001 	stcge	0, cr0, [r0], {1}
     8d4:	01000001 	tsteq	r0, r1
     8d8:	01ac5c00 			; <UNDEFINED> instruction: 0x01ac5c00
     8dc:	01b40000 			; <UNDEFINED> instruction: 0x01b40000
     8e0:	00050000 	andeq	r0, r5, r0
     8e4:	2531007c 	ldrcs	r0, [r1, #-124]!	; 0x7c
     8e8:	0001b49f 	muleq	r1, pc, r4	; <UNPREDICTABLE>
     8ec:	0001bc00 	andeq	fp, r1, r0, lsl #24
     8f0:	5c000100 	stfpls	f0, [r0], {-0}
     8f4:	000001bc 			; <UNDEFINED> instruction: 0x000001bc
     8f8:	000001cc 	andeq	r0, r0, ip, asr #3
     8fc:	cc530001 	mrrcgt	0, 0, r0, r3, cr1
     900:	cf000001 	svcgt	0x00000001
     904:	01000001 	tsteq	r0, r1
     908:	01cf5c00 	biceq	r5, pc, r0, lsl #24
     90c:	01d40000 	bicseq	r0, r4, r0
     910:	00040000 	andeq	r0, r4, r0
     914:	9f5301f3 	svcls	0x005301f3
     918:	000001d4 	ldrdeq	r0, [r0], -r4
     91c:	000001df 	ldrdeq	r0, [r0], -pc	; <UNPREDICTABLE>
     920:	005c0001 	subseq	r0, ip, r1
     924:	00000000 	andeq	r0, r0, r0
     928:	ec000000 	stc	0, cr0, [r0], {-0}
     92c:	fc000000 	stc2	0, cr0, [r0], {-0}
     930:	02000000 	andeq	r0, r0, #0
     934:	fc9f3000 	ldc2	0, cr3, [pc], {0}
     938:	04000000 	streq	r0, [r0], #-0
     93c:	02000001 	andeq	r0, r0, #1
     940:	049f3100 	ldreq	r3, [pc], #256	; 948 <_start-0x76b8>
     944:	08000001 	stmdaeq	r0, {r0}
     948:	02000001 	andeq	r0, r0, #1
     94c:	009f3000 	addseq	r3, pc, r0
     950:	00000000 	andeq	r0, r0, r0
     954:	18000000 	stmdane	r0, {}	; <UNPREDICTABLE>
     958:	28000002 	stmdacs	r0, {r1}
     95c:	01000002 	tsteq	r0, r2
     960:	02285000 	eoreq	r5, r8, #0
     964:	023c0000 	eorseq	r0, ip, #0
     968:	00040000 	andeq	r0, r4, r0
     96c:	9f5001f3 	svcls	0x005001f3
     970:	0000023c 	andeq	r0, r0, ip, lsr r2
     974:	00000268 	andeq	r0, r0, r8, ror #4
     978:	00500001 	subseq	r0, r0, r1
     97c:	00000000 	andeq	r0, r0, r0
     980:	18000000 	stmdane	r0, {}	; <UNPREDICTABLE>
     984:	2c000002 	stccs	0, cr0, [r0], {2}
     988:	01000002 	tsteq	r0, r2
     98c:	022c5100 	eoreq	r5, ip, #0, 2
     990:	023c0000 	eorseq	r0, ip, #0
     994:	00040000 	andeq	r0, r4, r0
     998:	9f5101f3 	svcls	0x005101f3
     99c:	0000023c 	andeq	r0, r0, ip, lsr r2
     9a0:	00000268 	andeq	r0, r0, r8, ror #4
     9a4:	00510001 	subseq	r0, r1, r1
     9a8:	00000000 	andeq	r0, r0, r0
     9ac:	68000000 	stmdavs	r0, {}	; <UNPREDICTABLE>
     9b0:	90000002 	andls	r0, r0, r2
     9b4:	01000002 	tsteq	r0, r2
     9b8:	02905000 	addseq	r5, r0, #0
     9bc:	04dc0000 	ldrbeq	r0, [ip], #0
     9c0:	00010000 	andeq	r0, r1, r0
     9c4:	0004dc5b 	andeq	sp, r4, fp, asr ip
     9c8:	0004f000 	andeq	pc, r4, r0
     9cc:	f3000400 	vshl.u8	d0, d0, d0
     9d0:	009f5001 	addseq	r5, pc, r1
     9d4:	00000000 	andeq	r0, r0, r0
     9d8:	68000000 	stmdavs	r0, {}	; <UNPREDICTABLE>
     9dc:	7c000002 	stcvc	0, cr0, [r0], {2}
     9e0:	01000002 	tsteq	r0, r2
     9e4:	027c5100 	rsbseq	r5, ip, #0, 2
     9e8:	02900000 	addseq	r0, r0, #0
     9ec:	00030000 	andeq	r0, r3, r0
     9f0:	909f0171 	addsls	r0, pc, r1, ror r1	; <UNPREDICTABLE>
     9f4:	f0000002 			; <UNDEFINED> instruction: 0xf0000002
     9f8:	04000004 	streq	r0, [r0], #-4
     9fc:	5101f300 	mrspl	pc, SP_irq	; <UNPREDICTABLE>
     a00:	0000009f 	muleq	r0, pc, r0	; <UNPREDICTABLE>
     a04:	00000000 	andeq	r0, r0, r0
     a08:	00026800 	andeq	r6, r2, r0, lsl #16
     a0c:	00029800 	andeq	r9, r2, r0, lsl #16
     a10:	52000100 	andpl	r0, r0, #0, 2
     a14:	00000298 	muleq	r0, r8, r2
     a18:	000002c0 	andeq	r0, r0, r0, asr #5
     a1c:	c0520001 	subsgt	r0, r2, r1
     a20:	8c000002 	stchi	0, cr0, [r0], {2}
     a24:	01000004 	tsteq	r0, r4
     a28:	048c5600 	streq	r5, [ip], #1536	; 0x600
     a2c:	04f00000 	ldrbteq	r0, [r0], #0
     a30:	00010000 	andeq	r0, r1, r0
     a34:	00000052 	andeq	r0, r0, r2, asr r0
     a38:	00000000 	andeq	r0, r0, r0
     a3c:	00026800 	andeq	r6, r2, r0, lsl #16
     a40:	00028400 	andeq	r8, r2, r0, lsl #8
     a44:	53000100 	movwpl	r0, #256	; 0x100
	...
     a50:	00000278 	andeq	r0, r0, r8, ror r2
     a54:	00000290 	muleq	r0, r0, r2
     a58:	90500001 	subsls	r0, r0, r1
     a5c:	94000002 	strls	r0, [r0], #-2
     a60:	01000002 	tsteq	r0, r2
     a64:	02945400 	addseq	r5, r4, #0, 8
     a68:	02a00000 	adceq	r0, r0, #0
     a6c:	00030000 	andeq	r0, r3, r0
     a70:	a09f0174 	addsge	r0, pc, r4, ror r1	; <UNPREDICTABLE>
     a74:	ac000002 	stcge	0, cr0, [r0], {2}
     a78:	01000002 	tsteq	r0, r2
     a7c:	02ac5400 	adceq	r5, ip, #0, 8
     a80:	02b80000 	adcseq	r0, r8, #0
     a84:	00030000 	andeq	r0, r3, r0
     a88:	b89f0174 	ldmlt	pc, {r2, r4, r5, r6, r8}	; <UNPREDICTABLE>
     a8c:	90000002 	andls	r0, r0, r2
     a90:	01000004 	tsteq	r0, r4
     a94:	04905400 	ldreq	r5, [r0], #1024	; 0x400
     a98:	049c0000 	ldreq	r0, [ip], #0
     a9c:	00030000 	andeq	r0, r3, r0
     aa0:	9c9f0174 	ldflss	f0, [pc], {116}	; 0x74
     aa4:	c8000004 	stmdagt	r0, {r2}
     aa8:	01000004 	tsteq	r0, r4
     aac:	04c85400 	strbeq	r5, [r8], #1024	; 0x400
     ab0:	04d40000 	ldrbeq	r0, [r4], #0
     ab4:	00010000 	andeq	r0, r1, r0
     ab8:	0004d450 	andeq	sp, r4, r0, asr r4
     abc:	0004dc00 	andeq	sp, r4, r0, lsl #24
     ac0:	74000300 	strvc	r0, [r0], #-768	; 0x300
     ac4:	00009f01 	andeq	r9, r0, r1, lsl #30
     ac8:	00000000 	andeq	r0, r0, r0
     acc:	02800000 	addeq	r0, r0, #0
     ad0:	04dc0000 	ldrbeq	r0, [ip], #0
     ad4:	00010000 	andeq	r0, r1, r0
     ad8:	0004dc58 	andeq	sp, r4, r8, asr ip
     adc:	0004f000 	andeq	pc, r4, r0
     ae0:	f3000a00 	vpmax.u8	d0, d0, d0
     ae4:	01f35101 	mvnseq	r5, r1, lsl #2
     ae8:	1c312250 	lfmne	f2, 4, [r1], #-320	; 0xfffffec0
     aec:	0000009f 	muleq	r0, pc, r0	; <UNPREDICTABLE>
     af0:	00000000 	andeq	r0, r0, r0
     af4:	0003bc00 	andeq	fp, r3, r0, lsl #24
     af8:	0003c000 	andeq	ip, r3, r0
     afc:	50000100 	andpl	r0, r0, r0, lsl #2
     b00:	000003e4 	andeq	r0, r0, r4, ror #7
     b04:	000003e8 	andeq	r0, r0, r8, ror #7
     b08:	0c500001 	mrrceq	0, 0, r0, r0, cr1	; <UNPREDICTABLE>
     b0c:	10000004 	andne	r0, r0, r4
     b10:	01000004 	tsteq	r0, r4
     b14:	04345000 	ldrteq	r5, [r4], #-0
     b18:	04380000 	ldrteq	r0, [r8], #-0
     b1c:	00010000 	andeq	r0, r1, r0
     b20:	00044050 	andeq	r4, r4, r0, asr r0
     b24:	00044400 	andeq	r4, r4, r0, lsl #8
     b28:	50000100 	andpl	r0, r0, r0, lsl #2
     b2c:	00000468 	andeq	r0, r0, r8, ror #8
     b30:	0000046c 	andeq	r0, r0, ip, ror #8
     b34:	88500001 	ldmdahi	r0, {r0}^
     b38:	b0000004 	andlt	r0, r0, r4
     b3c:	01000004 	tsteq	r0, r4
     b40:	00005000 	andeq	r5, r0, r0
     b44:	00000000 	andeq	r0, r0, r0
     b48:	02c00000 	sbceq	r0, r0, #0
     b4c:	02c80000 	sbceq	r0, r8, #0
     b50:	00020000 	andeq	r0, r2, r0
     b54:	02c89f30 	sbceq	r9, r8, #48, 30	; 0xc0
     b58:	02cc0000 	sbceq	r0, ip, #0
     b5c:	00010000 	andeq	r0, r1, r0
     b60:	0002d857 	andeq	sp, r2, r7, asr r8
     b64:	0004b000 	andeq	fp, r4, r0
     b68:	57000100 	strpl	r0, [r0, -r0, lsl #2]
	...
     b74:	00000004 	andeq	r0, r0, r4
     b78:	00000008 	andeq	r0, r0, r8
     b7c:	00730007 	rsbseq	r0, r3, r7
     b80:	2110000a 	tstcs	r0, sl
     b84:	0000089f 	muleq	r0, pc, r8	; <UNPREDICTABLE>
     b88:	00001000 	andeq	r1, r0, r0
     b8c:	53000100 	movwpl	r0, #256	; 0x100
	...
     b98:	00000014 	andeq	r0, r0, r4, lsl r0
     b9c:	00000018 	andeq	r0, r0, r8, lsl r0
     ba0:	00730007 	rsbseq	r0, r3, r7
     ba4:	1aefff0b 	bne	ffc007d8 <__bss_end__+0xffbf1e98>
     ba8:	0000189f 	muleq	r0, pc, r8	; <UNPREDICTABLE>
     bac:	00002000 	andeq	r2, r0, r0
     bb0:	53000100 	movwpl	r0, #256	; 0x100
	...
     bc0:	0000000c 	andeq	r0, r0, ip
     bc4:	0c500001 	mrrceq	0, 0, r0, r0, cr1	; <UNPREDICTABLE>
     bc8:	20000000 	andcs	r0, r0, r0
     bcc:	01000000 	mrseq	r0, (UNDEF: 0)
     bd0:	00005400 	andeq	r5, r0, r0, lsl #8
     bd4:	00000000 	andeq	r0, r0, r0
     bd8:	00340000 	eorseq	r0, r4, r0
     bdc:	003c0000 	eorseq	r0, ip, r0
     be0:	00030000 	andeq	r0, r3, r0
     be4:	3c9f0473 	cfldrscc	mvf0, [pc], {115}	; 0x73
     be8:	47000000 	strmi	r0, [r0, -r0]
     bec:	01000000 	mrseq	r0, (UNDEF: 0)
     bf0:	00005300 	andeq	r5, r0, r0, lsl #6
     bf4:	00000000 	andeq	r0, r0, r0
     bf8:	00480000 	subeq	r0, r8, r0
     bfc:	00740000 	rsbseq	r0, r4, r0
     c00:	00010000 	andeq	r0, r1, r0
     c04:	00007450 	andeq	r7, r0, r0, asr r4
     c08:	00008300 	andeq	r8, r0, r0, lsl #6
     c0c:	73000300 	movwvc	r0, #768	; 0x300
     c10:	00009f78 	andeq	r9, r0, r8, ror pc
     c14:	00000000 	andeq	r0, r0, r0
     c18:	8e040000 	cdphi	0, 0, cr0, cr4, cr0, {0}
     c1c:	8e080000 	cdphi	0, 0, cr0, cr8, cr0, {0}
     c20:	00020000 	andeq	r0, r2, r0
     c24:	8e089f30 	mcrhi	15, 0, r9, cr8, cr0, {1}
     c28:	8e0c0000 	cdphi	0, 0, cr0, cr12, cr0, {0}
     c2c:	00010000 	andeq	r0, r1, r0
     c30:	00000050 	andeq	r0, r0, r0, asr r0
     c34:	00000000 	andeq	r0, r0, r0
     c38:	008e1c00 	addeq	r1, lr, r0, lsl #24
     c3c:	008e2000 	addeq	r2, lr, r0
     c40:	30000200 	andcc	r0, r0, r0, lsl #4
     c44:	008e209f 	umulleq	r2, lr, pc, r0	; <UNPREDICTABLE>
     c48:	008e2400 	addeq	r2, lr, r0, lsl #8
     c4c:	53000100 	movwpl	r0, #256	; 0x100
     c50:	00008e28 	andeq	r8, r0, r8, lsr #28
     c54:	00008e30 	andeq	r8, r0, r0, lsr lr
     c58:	00530001 	subseq	r0, r3, r1
	...
     c64:	04000000 	streq	r0, [r0], #-0
     c68:	01000000 	mrseq	r0, (UNDEF: 0)
     c6c:	00045000 	andeq	r5, r4, r0
     c70:	000c0000 	andeq	r0, ip, r0
     c74:	00010000 	andeq	r0, r1, r0
     c78:	00000c53 	andeq	r0, r0, r3, asr ip
     c7c:	00001000 	andeq	r1, r0, r0
     c80:	50000100 	andpl	r0, r0, r0, lsl #2
     c84:	00000010 	andeq	r0, r0, r0, lsl r0
     c88:	0000001c 	andeq	r0, r0, ip, lsl r0
     c8c:	00530001 	subseq	r0, r3, r1
     c90:	00000000 	andeq	r0, r0, r0
     c94:	3c000000 	stccc	0, cr0, [r0], {-0}
     c98:	47000000 	strmi	r0, [r0, -r0]
     c9c:	01000000 	mrseq	r0, (UNDEF: 0)
     ca0:	00475000 	subeq	r5, r7, r0
     ca4:	00600000 	rsbeq	r0, r0, r0
     ca8:	00010000 	andeq	r0, r1, r0
     cac:	00000055 	andeq	r0, r0, r5, asr r0
     cb0:	00000000 	andeq	r0, r0, r0
     cb4:	00005000 	andeq	r5, r0, r0
     cb8:	00005400 	andeq	r5, r0, r0, lsl #8
     cbc:	50000100 	andpl	r0, r0, r0, lsl #2
	...
     cc8:	00000060 	andeq	r0, r0, r0, rrx
     ccc:	0000006c 	andeq	r0, r0, ip, rrx
     cd0:	6c500001 	mrrcvs	0, 0, r0, r0, cr1	; <UNPREDICTABLE>
     cd4:	74000000 	strvc	r0, [r0], #-0
     cd8:	04000000 	streq	r0, [r0], #-0
     cdc:	5001f300 	andpl	pc, r1, r0, lsl #6
     ce0:	0000009f 	muleq	r0, pc, r0	; <UNPREDICTABLE>
     ce4:	00000000 	andeq	r0, r0, r0
     ce8:	00007400 	andeq	r7, r0, r0, lsl #8
     cec:	00008000 	andeq	r8, r0, r0
     cf0:	50000100 	andpl	r0, r0, r0, lsl #2
     cf4:	00000080 	andeq	r0, r0, r0, lsl #1
     cf8:	00000088 	andeq	r0, r0, r8, lsl #1
     cfc:	01f30004 	mvnseq	r0, r4
     d00:	00009f50 	andeq	r9, r0, r0, asr pc
	...
     d0c:	00900000 	addseq	r0, r0, r0
     d10:	00010000 	andeq	r0, r1, r0
     d14:	00009050 	andeq	r9, r0, r0, asr r0
     d18:	0000d400 	andeq	sp, r0, r0, lsl #8
     d1c:	54000100 	strpl	r0, [r0], #-256	; 0x100
	...
     d28:	00000048 	andeq	r0, r0, r8, asr #32
     d2c:	0000004c 	andeq	r0, r0, ip, asr #32
     d30:	54550001 	ldrbpl	r0, [r5], #-1
     d34:	58000000 	stmdapl	r0, {}	; <UNPREDICTABLE>
     d38:	01000000 	mrseq	r0, (UNDEF: 0)
     d3c:	00605500 	rsbeq	r5, r0, r0, lsl #10
     d40:	00640000 	rsbeq	r0, r4, r0
     d44:	00010000 	andeq	r0, r1, r0
     d48:	00006c55 	andeq	r6, r0, r5, asr ip
     d4c:	00007000 	andeq	r7, r0, r0
     d50:	55000100 	strpl	r0, [r0, #-256]	; 0x100
     d54:	00000078 	andeq	r0, r0, r8, ror r0
     d58:	0000007c 	andeq	r0, r0, ip, ror r0
     d5c:	84550001 	ldrbhi	r0, [r5], #-1
     d60:	88000000 	stmdahi	r0, {}	; <UNPREDICTABLE>
     d64:	01000000 	mrseq	r0, (UNDEF: 0)
     d68:	008c5500 	addeq	r5, ip, r0, lsl #10
     d6c:	00d40000 	sbcseq	r0, r4, r0
     d70:	00010000 	andeq	r0, r1, r0
     d74:	00000055 	andeq	r0, r0, r5, asr r0
     d78:	00000000 	andeq	r0, r0, r0
     d7c:	00001c00 	andeq	r1, r0, r0, lsl #24
     d80:	00004400 	andeq	r4, r0, r0, lsl #8
     d84:	53000100 	movwpl	r0, #256	; 0x100
     d88:	00000044 	andeq	r0, r0, r4, asr #32
     d8c:	0000004c 	andeq	r0, r0, ip, asr #32
     d90:	0070001c 	rsbseq	r0, r0, ip, lsl r0
     d94:	25f72cf7 	ldrbcs	r2, [r7, #3319]!	; 0xcf7
     d98:	cd0825f4 	cfstr32gt	mvfx2, [r8, #-976]	; 0xfffffc30
     d9c:	00cccccc 	sbceq	ip, ip, ip, asr #25
     da0:	1e000000 	cdpne	0, 0, cr0, cr0, cr0, {0}
     da4:	25f72008 	ldrbcs	r2, [r7, #8]!
     da8:	332cf725 	msrcc	CPSR_fs, #9699328	; 0x940000
     dac:	004c9f25 	subeq	r9, ip, r5, lsr #30
     db0:	00500000 	subseq	r0, r0, r0
     db4:	00010000 	andeq	r0, r1, r0
     db8:	00005053 	andeq	r5, r0, r3, asr r0
     dbc:	00005800 	andeq	r5, r0, r0, lsl #16
     dc0:	70001c00 	andvc	r1, r0, r0, lsl #24
     dc4:	f72cf700 			; <UNDEFINED> instruction: 0xf72cf700
     dc8:	0825f425 	stmdaeq	r5!, {r0, r2, r5, sl, ip, sp, lr, pc}
     dcc:	cccccccd 	stclgt	12, cr12, [ip], {205}	; 0xcd
     dd0:	00000000 	andeq	r0, r0, r0
     dd4:	f720081e 			; <UNDEFINED> instruction: 0xf720081e
     dd8:	2cf72525 	cfldr64cs	mvdx2, [r7], #148	; 0x94
     ddc:	589f2533 	ldmpl	pc, {r0, r1, r4, r5, r8, sl, sp}	; <UNPREDICTABLE>
     de0:	5c000000 	stcpl	0, cr0, [r0], {-0}
     de4:	01000000 	mrseq	r0, (UNDEF: 0)
     de8:	005c5300 	subseq	r5, ip, r0, lsl #6
     dec:	00640000 	rsbeq	r0, r4, r0
     df0:	001c0000 	andseq	r0, ip, r0
     df4:	2cf70070 	ldclcs	0, cr0, [r7], #448	; 0x1c0
     df8:	25f425f7 	ldrbcs	r2, [r4, #1527]!	; 0x5f7
     dfc:	cccccd08 	stclgt	13, cr12, [ip], {8}
     e00:	000000cc 	andeq	r0, r0, ip, asr #1
     e04:	20081e00 	andcs	r1, r8, r0, lsl #28
     e08:	f72525f7 			; <UNDEFINED> instruction: 0xf72525f7
     e0c:	9f25332c 	svcls	0x0025332c
     e10:	00000064 	andeq	r0, r0, r4, rrx
     e14:	00000068 	andeq	r0, r0, r8, rrx
     e18:	68530001 	ldmdavs	r3, {r0}^
     e1c:	70000000 	andvc	r0, r0, r0
     e20:	1c000000 	stcne	0, cr0, [r0], {-0}
     e24:	f7007000 			; <UNDEFINED> instruction: 0xf7007000
     e28:	f425f72c 	vld1.8	{d15}, [r5 :128], ip
     e2c:	cccd0825 	stclgt	8, cr0, [sp], {37}	; 0x25
     e30:	0000cccc 	andeq	ip, r0, ip, asr #25
     e34:	081e0000 	ldmdaeq	lr, {}	; <UNPREDICTABLE>
     e38:	2525f720 	strcs	pc, [r5, #-1824]!	; 0x720
     e3c:	25332cf7 	ldrcs	r2, [r3, #-3319]!	; 0xcf7
     e40:	0000709f 	muleq	r0, pc, r0	; <UNPREDICTABLE>
     e44:	00007400 	andeq	r7, r0, r0, lsl #8
     e48:	53000100 	movwpl	r0, #256	; 0x100
     e4c:	00000074 	andeq	r0, r0, r4, ror r0
     e50:	0000007c 	andeq	r0, r0, ip, ror r0
     e54:	0070001c 	rsbseq	r0, r0, ip, lsl r0
     e58:	25f72cf7 	ldrbcs	r2, [r7, #3319]!	; 0xcf7
     e5c:	cd0825f4 	cfstr32gt	mvfx2, [r8, #-976]	; 0xfffffc30
     e60:	00cccccc 	sbceq	ip, ip, ip, asr #25
     e64:	1e000000 	cdpne	0, 0, cr0, cr0, cr0, {0}
     e68:	25f72008 	ldrbcs	r2, [r7, #8]!
     e6c:	332cf725 	msrcc	CPSR_fs, #9699328	; 0x940000
     e70:	007c9f25 	rsbseq	r9, ip, r5, lsr #30
     e74:	00800000 	addeq	r0, r0, r0
     e78:	00010000 	andeq	r0, r1, r0
     e7c:	00008053 	andeq	r8, r0, r3, asr r0
     e80:	00008800 	andeq	r8, r0, r0, lsl #16
     e84:	70001c00 	andvc	r1, r0, r0, lsl #24
     e88:	f72cf700 			; <UNDEFINED> instruction: 0xf72cf700
     e8c:	0825f425 	stmdaeq	r5!, {r0, r2, r5, sl, ip, sp, lr, pc}
     e90:	cccccccd 	stclgt	12, cr12, [ip], {205}	; 0xcd
     e94:	00000000 	andeq	r0, r0, r0
     e98:	f720081e 			; <UNDEFINED> instruction: 0xf720081e
     e9c:	2cf72525 	cfldr64cs	mvdx2, [r7], #148	; 0x94
     ea0:	889f2533 	ldmhi	pc, {r0, r1, r4, r5, r8, sl, sp}	; <UNPREDICTABLE>
     ea4:	8c000000 	stchi	0, cr0, [r0], {-0}
     ea8:	01000000 	mrseq	r0, (UNDEF: 0)
     eac:	008c5300 	addeq	r5, ip, r0, lsl #6
     eb0:	00900000 	addseq	r0, r0, r0
     eb4:	001c0000 	andseq	r0, ip, r0
     eb8:	2cf70070 	ldclcs	0, cr0, [r7], #448	; 0x1c0
     ebc:	25f425f7 	ldrbcs	r2, [r4, #1527]!	; 0x5f7
     ec0:	cccccd08 	stclgt	13, cr12, [ip], {8}
     ec4:	000000cc 	andeq	r0, r0, ip, asr #1
     ec8:	20081e00 	andcs	r1, r8, r0, lsl #28
     ecc:	f72525f7 			; <UNDEFINED> instruction: 0xf72525f7
     ed0:	9f25332c 	svcls	0x0025332c
     ed4:	00000090 	muleq	r0, r0, r0
     ed8:	00000098 	muleq	r0, r8, r0
     edc:	0074001c 	rsbseq	r0, r4, ip, lsl r0
     ee0:	25f72cf7 	ldrbcs	r2, [r7, #3319]!	; 0xcf7
     ee4:	cd0825f4 	cfstr32gt	mvfx2, [r8, #-976]	; 0xfffffc30
     ee8:	00cccccc 	sbceq	ip, ip, ip, asr #25
     eec:	1e000000 	cdpne	0, 0, cr0, cr0, cr0, {0}
     ef0:	25f72008 	ldrbcs	r2, [r7, #8]!
     ef4:	332cf725 	msrcc	CPSR_fs, #9699328	; 0x940000
     ef8:	00989f25 	addseq	r9, r8, r5, lsr #30
     efc:	009c0000 	addseq	r0, ip, r0
     f00:	00170000 	andseq	r0, r7, r0
     f04:	2cf70074 	ldclcs	0, cr0, [r7], #464	; 0x1d0
     f08:	007125f7 	ldrshteq	r2, [r1], #-87	; 0xffffffa9
     f0c:	25f72cf7 	ldrbcs	r2, [r7, #3319]!	; 0xcf7
     f10:	f720081e 			; <UNDEFINED> instruction: 0xf720081e
     f14:	2cf72525 	cfldr64cs	mvdx2, [r7], #148	; 0x94
     f18:	9c9f2533 	cfldr32ls	mvfx2, [pc], {51}	; 0x33
     f1c:	d4000000 	strle	r0, [r0], #-0
     f20:	1c000000 	stcne	0, cr0, [r0], {-0}
     f24:	f7007400 			; <UNDEFINED> instruction: 0xf7007400
     f28:	f425f72c 	vld1.8	{d15}, [r5 :128], ip
     f2c:	cccd0825 	stclgt	8, cr0, [sp], {37}	; 0x25
     f30:	0000cccc 	andeq	ip, r0, ip, asr #25
     f34:	081e0000 	ldmdaeq	lr, {}	; <UNPREDICTABLE>
     f38:	2525f720 	strcs	pc, [r5, #-1824]!	; 0x720
     f3c:	25332cf7 	ldrcs	r2, [r3, #-3319]!	; 0xcf7
     f40:	0000009f 	muleq	r0, pc, r0	; <UNPREDICTABLE>
     f44:	00000000 	andeq	r0, r0, r0
     f48:	00009400 	andeq	r9, r0, r0, lsl #8
     f4c:	0000b800 	andeq	fp, r0, r0, lsl #16
     f50:	50000100 	andpl	r0, r0, r0, lsl #2
     f54:	000000b8 	strheq	r0, [r0], -r8
     f58:	000000c4 	andeq	r0, r0, r4, asr #1
     f5c:	71310008 	teqvc	r1, r8
     f60:	00732400 	rsbseq	r2, r3, r0, lsl #8
     f64:	00c49f21 	sbceq	r9, r4, r1, lsr #30
     f68:	00c70000 	sbceq	r0, r7, r0
     f6c:	00010000 	andeq	r0, r1, r0
     f70:	00000051 	andeq	r0, r0, r1, asr r0
     f74:	00000000 	andeq	r0, r0, r0
     f78:	0000d400 	andeq	sp, r0, r0, lsl #8
     f7c:	0000f800 	andeq	pc, r0, r0, lsl #16
     f80:	50000100 	andpl	r0, r0, r0, lsl #2
     f84:	000000f8 	strdeq	r0, [r0], -r8
     f88:	0000010c 	andeq	r0, r0, ip, lsl #2
     f8c:	01f30004 	mvnseq	r0, r4
     f90:	00009f50 	andeq	r9, r0, r0, asr pc
     f94:	00000000 	andeq	r0, r0, r0
     f98:	00e00000 	rsceq	r0, r0, r0
     f9c:	00e80000 	rsceq	r0, r8, r0
     fa0:	00020000 	andeq	r0, r2, r0
     fa4:	00e89f30 	rsceq	r9, r8, r0, lsr pc
     fa8:	00e80000 	rsceq	r0, r8, r0
     fac:	00010000 	andeq	r0, r1, r0
     fb0:	0000e852 	andeq	lr, r0, r2, asr r8
     fb4:	0000f000 	andeq	pc, r0, r0
     fb8:	30000200 	andcc	r0, r0, r0, lsl #4
     fbc:	0000f09f 	muleq	r0, pc, r0	; <UNPREDICTABLE>
     fc0:	00010300 	andeq	r0, r1, r0, lsl #6
     fc4:	52000100 	andpl	r0, r0, #0, 2
	...
     fd0:	000000e0 	andeq	r0, r0, r0, ror #1
     fd4:	000000f4 	strdeq	r0, [r0], -r4
     fd8:	9f300002 	svcls	0x00300002
     fdc:	000000f4 	strdeq	r0, [r0], -r4
     fe0:	00000100 	andeq	r0, r0, r0, lsl #2
     fe4:	73310005 	teqvc	r1, #5
     fe8:	009f2400 	addseq	r2, pc, r0, lsl #8
     fec:	03000001 	movweq	r0, #1
     ff0:	01000001 	tsteq	r0, r1
     ff4:	01035100 	mrseq	r5, (UNDEF: 19)
     ff8:	010c0000 	mrseq	r0, (UNDEF: 12)
     ffc:	00080000 	andeq	r0, r8, r0
    1000:	5001f331 	andpl	pc, r1, r1, lsr r3	; <UNPREDICTABLE>
    1004:	9f241a4f 	svcls	0x00241a4f
	...
    1010:	0000010c 	andeq	r0, r0, ip, lsl #2
    1014:	00000130 	andeq	r0, r0, r0, lsr r1
    1018:	30500001 	subscc	r0, r0, r1
    101c:	44000001 	strmi	r0, [r0], #-1
    1020:	04000001 	streq	r0, [r0], #-1
    1024:	5001f300 	andpl	pc, r1, r0, lsl #6
    1028:	0000009f 	muleq	r0, pc, r0	; <UNPREDICTABLE>
    102c:	00000000 	andeq	r0, r0, r0
    1030:	00011800 	andeq	r1, r1, r0, lsl #16
    1034:	00012000 	andeq	r2, r1, r0
    1038:	30000200 	andcc	r0, r0, r0, lsl #4
    103c:	0001209f 	muleq	r1, pc, r0	; <UNPREDICTABLE>
    1040:	00012000 	andeq	r2, r1, r0
    1044:	52000100 	andpl	r0, r0, #0, 2
    1048:	00000120 	andeq	r0, r0, r0, lsr #2
    104c:	00000128 	andeq	r0, r0, r8, lsr #2
    1050:	9f300002 	svcls	0x00300002
    1054:	00000128 	andeq	r0, r0, r8, lsr #2
    1058:	0000013b 	andeq	r0, r0, fp, lsr r1
    105c:	00520001 	subseq	r0, r2, r1
    1060:	00000000 	andeq	r0, r0, r0
    1064:	18000000 	stmdane	r0, {}	; <UNPREDICTABLE>
    1068:	2c000001 	stccs	0, cr0, [r0], {1}
    106c:	02000001 	andeq	r0, r0, #1
    1070:	2c9f3000 	ldccs	0, cr3, [pc], {0}
    1074:	38000001 	stmdacc	r0, {r0}
    1078:	05000001 	streq	r0, [r0, #-1]
    107c:	00733100 	rsbseq	r3, r3, r0, lsl #2
    1080:	01389f24 	teqeq	r8, r4, lsr #30
    1084:	013b0000 	teqeq	fp, r0
    1088:	00010000 	andeq	r0, r1, r0
    108c:	00013b51 	andeq	r3, r1, r1, asr fp
    1090:	00014400 	andeq	r4, r1, r0, lsl #8
    1094:	31000800 	tstcc	r0, r0, lsl #16
    1098:	4f5001f3 	svcmi	0x005001f3
    109c:	009f241a 	addseq	r2, pc, sl, lsl r4	; <UNPREDICTABLE>
    10a0:	00000000 	andeq	r0, r0, r0
    10a4:	44000000 	strmi	r0, [r0], #-0
    10a8:	d4000001 	strle	r0, [r0], #-1
    10ac:	01000001 	tsteq	r0, r1
    10b0:	01d45000 	bicseq	r5, r4, r0
    10b4:	02100000 	andseq	r0, r0, #0
    10b8:	00010000 	andeq	r0, r1, r0
    10bc:	00000054 	andeq	r0, r0, r4, asr r0
    10c0:	00000000 	andeq	r0, r0, r0
    10c4:	00018c00 	andeq	r8, r1, r0, lsl #24
    10c8:	00019000 	andeq	r9, r1, r0
    10cc:	55000100 	strpl	r0, [r0, #-256]	; 0x100
    10d0:	00000198 	muleq	r0, r8, r1
    10d4:	0000019c 	muleq	r0, ip, r1
    10d8:	a4550001 	ldrbge	r0, [r5], #-1
    10dc:	a8000001 	stmdage	r0, {r0}
    10e0:	01000001 	tsteq	r0, r1
    10e4:	01b05500 	lslseq	r5, r0, #10
    10e8:	01b40000 			; <UNDEFINED> instruction: 0x01b40000
    10ec:	00010000 	andeq	r0, r1, r0
    10f0:	0001bc55 	andeq	fp, r1, r5, asr ip
    10f4:	0001c000 	andeq	ip, r1, r0
    10f8:	55000100 	strpl	r0, [r0, #-256]	; 0x100
    10fc:	000001c8 	andeq	r0, r0, r8, asr #3
    1100:	000001cc 	andeq	r0, r0, ip, asr #3
    1104:	d0550001 	subsle	r0, r5, r1
    1108:	10000001 	andne	r0, r0, r1
    110c:	01000002 	tsteq	r0, r2
    1110:	00005500 	andeq	r5, r0, r0, lsl #10
    1114:	00000000 	andeq	r0, r0, r0
    1118:	01600000 	cmneq	r0, r0
    111c:	01880000 	orreq	r0, r8, r0
    1120:	00010000 	andeq	r0, r1, r0
    1124:	00018853 	andeq	r8, r1, r3, asr r8
    1128:	00019000 	andeq	r9, r1, r0
    112c:	70001c00 	andvc	r1, r0, r0, lsl #24
    1130:	f72cf700 			; <UNDEFINED> instruction: 0xf72cf700
    1134:	0825f425 	stmdaeq	r5!, {r0, r2, r5, sl, ip, sp, lr, pc}
    1138:	cccccccd 	stclgt	12, cr12, [ip], {205}	; 0xcd
    113c:	00000000 	andeq	r0, r0, r0
    1140:	f720081e 			; <UNDEFINED> instruction: 0xf720081e
    1144:	2cf72525 	cfldr64cs	mvdx2, [r7], #148	; 0x94
    1148:	909f2533 	addsls	r2, pc, r3, lsr r5	; <UNPREDICTABLE>
    114c:	94000001 	strls	r0, [r0], #-1
    1150:	01000001 	tsteq	r0, r1
    1154:	01945300 	orrseq	r5, r4, r0, lsl #6
    1158:	019c0000 	orrseq	r0, ip, r0
    115c:	001c0000 	andseq	r0, ip, r0
    1160:	2cf70070 	ldclcs	0, cr0, [r7], #448	; 0x1c0
    1164:	25f425f7 	ldrbcs	r2, [r4, #1527]!	; 0x5f7
    1168:	cccccd08 	stclgt	13, cr12, [ip], {8}
    116c:	000000cc 	andeq	r0, r0, ip, asr #1
    1170:	20081e00 	andcs	r1, r8, r0, lsl #28
    1174:	f72525f7 			; <UNDEFINED> instruction: 0xf72525f7
    1178:	9f25332c 	svcls	0x0025332c
    117c:	0000019c 	muleq	r0, ip, r1
    1180:	000001a0 	andeq	r0, r0, r0, lsr #3
    1184:	a0530001 	subsge	r0, r3, r1
    1188:	a8000001 	stmdage	r0, {r0}
    118c:	1c000001 	stcne	0, cr0, [r0], {1}
    1190:	f7007000 			; <UNDEFINED> instruction: 0xf7007000
    1194:	f425f72c 	vld1.8	{d15}, [r5 :128], ip
    1198:	cccd0825 	stclgt	8, cr0, [sp], {37}	; 0x25
    119c:	0000cccc 	andeq	ip, r0, ip, asr #25
    11a0:	081e0000 	ldmdaeq	lr, {}	; <UNPREDICTABLE>
    11a4:	2525f720 	strcs	pc, [r5, #-1824]!	; 0x720
    11a8:	25332cf7 	ldrcs	r2, [r3, #-3319]!	; 0xcf7
    11ac:	0001a89f 	muleq	r1, pc, r8	; <UNPREDICTABLE>
    11b0:	0001ac00 	andeq	sl, r1, r0, lsl #24
    11b4:	53000100 	movwpl	r0, #256	; 0x100
    11b8:	000001ac 	andeq	r0, r0, ip, lsr #3
    11bc:	000001b4 			; <UNDEFINED> instruction: 0x000001b4
    11c0:	0070001c 	rsbseq	r0, r0, ip, lsl r0
    11c4:	25f72cf7 	ldrbcs	r2, [r7, #3319]!	; 0xcf7
    11c8:	cd0825f4 	cfstr32gt	mvfx2, [r8, #-976]	; 0xfffffc30
    11cc:	00cccccc 	sbceq	ip, ip, ip, asr #25
    11d0:	1e000000 	cdpne	0, 0, cr0, cr0, cr0, {0}
    11d4:	25f72008 	ldrbcs	r2, [r7, #8]!
    11d8:	332cf725 	msrcc	CPSR_fs, #9699328	; 0x940000
    11dc:	01b49f25 			; <UNDEFINED> instruction: 0x01b49f25
    11e0:	01b80000 			; <UNDEFINED> instruction: 0x01b80000
    11e4:	00010000 	andeq	r0, r1, r0
    11e8:	0001b853 	andeq	fp, r1, r3, asr r8
    11ec:	0001c000 	andeq	ip, r1, r0
    11f0:	70001c00 	andvc	r1, r0, r0, lsl #24
    11f4:	f72cf700 			; <UNDEFINED> instruction: 0xf72cf700
    11f8:	0825f425 	stmdaeq	r5!, {r0, r2, r5, sl, ip, sp, lr, pc}
    11fc:	cccccccd 	stclgt	12, cr12, [ip], {205}	; 0xcd
    1200:	00000000 	andeq	r0, r0, r0
    1204:	f720081e 			; <UNDEFINED> instruction: 0xf720081e
    1208:	2cf72525 	cfldr64cs	mvdx2, [r7], #148	; 0x94
    120c:	c09f2533 	addsgt	r2, pc, r3, lsr r5	; <UNPREDICTABLE>
    1210:	c4000001 	strgt	r0, [r0], #-1
    1214:	01000001 	tsteq	r0, r1
    1218:	01c45300 	biceq	r5, r4, r0, lsl #6
    121c:	01cc0000 	biceq	r0, ip, r0
    1220:	001c0000 	andseq	r0, ip, r0
    1224:	2cf70070 	ldclcs	0, cr0, [r7], #448	; 0x1c0
    1228:	25f425f7 	ldrbcs	r2, [r4, #1527]!	; 0x5f7
    122c:	cccccd08 	stclgt	13, cr12, [ip], {8}
    1230:	000000cc 	andeq	r0, r0, ip, asr #1
    1234:	20081e00 	andcs	r1, r8, r0, lsl #28
    1238:	f72525f7 			; <UNDEFINED> instruction: 0xf72525f7
    123c:	9f25332c 	svcls	0x0025332c
    1240:	000001cc 	andeq	r0, r0, ip, asr #3
    1244:	000001d0 	ldrdeq	r0, [r0], -r0	; <UNPREDICTABLE>
    1248:	d0530001 	subsle	r0, r3, r1
    124c:	d4000001 	strle	r0, [r0], #-1
    1250:	1c000001 	stcne	0, cr0, [r0], {1}
    1254:	f7007000 			; <UNDEFINED> instruction: 0xf7007000
    1258:	f425f72c 	vld1.8	{d15}, [r5 :128], ip
    125c:	cccd0825 	stclgt	8, cr0, [sp], {37}	; 0x25
    1260:	0000cccc 	andeq	ip, r0, ip, asr #25
    1264:	081e0000 	ldmdaeq	lr, {}	; <UNPREDICTABLE>
    1268:	2525f720 	strcs	pc, [r5, #-1824]!	; 0x720
    126c:	25332cf7 	ldrcs	r2, [r3, #-3319]!	; 0xcf7
    1270:	0001d49f 	muleq	r1, pc, r4	; <UNPREDICTABLE>
    1274:	0001dc00 	andeq	sp, r1, r0, lsl #24
    1278:	74001c00 	strvc	r1, [r0], #-3072	; 0xc00
    127c:	f72cf700 			; <UNDEFINED> instruction: 0xf72cf700
    1280:	0825f425 	stmdaeq	r5!, {r0, r2, r5, sl, ip, sp, lr, pc}
    1284:	cccccccd 	stclgt	12, cr12, [ip], {205}	; 0xcd
    1288:	00000000 	andeq	r0, r0, r0
    128c:	f720081e 			; <UNDEFINED> instruction: 0xf720081e
    1290:	2cf72525 	cfldr64cs	mvdx2, [r7], #148	; 0x94
    1294:	dc9f2533 	cfldr32le	mvfx2, [pc], {51}	; 0x33
    1298:	e0000001 	and	r0, r0, r1
    129c:	17000001 	strne	r0, [r0, -r1]
    12a0:	f7007400 			; <UNDEFINED> instruction: 0xf7007400
    12a4:	7125f72c 	msrvc	SP_abt, ip
    12a8:	f72cf700 			; <UNDEFINED> instruction: 0xf72cf700
    12ac:	20081e25 	andcs	r1, r8, r5, lsr #28
    12b0:	f72525f7 			; <UNDEFINED> instruction: 0xf72525f7
    12b4:	9f25332c 	svcls	0x0025332c
    12b8:	000001e0 	andeq	r0, r0, r0, ror #3
    12bc:	00000210 	andeq	r0, r0, r0, lsl r2
    12c0:	0074001c 	rsbseq	r0, r4, ip, lsl r0
    12c4:	25f72cf7 	ldrbcs	r2, [r7, #3319]!	; 0xcf7
    12c8:	cd0825f4 	cfstr32gt	mvfx2, [r8, #-976]	; 0xfffffc30
    12cc:	00cccccc 	sbceq	ip, ip, ip, asr #25
    12d0:	1e000000 	cdpne	0, 0, cr0, cr0, cr0, {0}
    12d4:	25f72008 	ldrbcs	r2, [r7, #8]!
    12d8:	332cf725 	msrcc	CPSR_fs, #9699328	; 0x940000
    12dc:	00009f25 	andeq	r9, r0, r5, lsr #30
    12e0:	00000000 	andeq	r0, r0, r0
    12e4:	01d80000 	bicseq	r0, r8, r0
    12e8:	01fc0000 	mvnseq	r0, r0
    12ec:	00010000 	andeq	r0, r1, r0
    12f0:	0001fc50 	andeq	pc, r1, r0, asr ip	; <UNPREDICTABLE>
    12f4:	00020300 	andeq	r0, r2, r0, lsl #6
    12f8:	51000100 	mrspl	r0, (UNDEF: 16)
	...
    1304:	00000210 	andeq	r0, r0, r0, lsl r2
    1308:	0000022c 	andeq	r0, r0, ip, lsr #4
    130c:	2c500001 	mrrccs	0, 0, r0, r0, cr1	; <UNPREDICTABLE>
    1310:	34000002 	strcc	r0, [r0], #-2
    1314:	01000002 	tsteq	r0, r2
    1318:	02345400 	eorseq	r5, r4, #0, 8
    131c:	023c0000 	eorseq	r0, ip, #0
    1320:	00010000 	andeq	r0, r1, r0
    1324:	00023c50 	andeq	r3, r2, r0, asr ip
    1328:	00024400 	andeq	r4, r2, r0, lsl #8
    132c:	54000100 	strpl	r0, [r0], #-256	; 0x100
    1330:	00000244 	andeq	r0, r0, r4, asr #4
    1334:	00000250 	andeq	r0, r0, r0, asr r2
    1338:	01f30004 	mvnseq	r0, r4
    133c:	02509f50 	subseq	r9, r0, #80, 30	; 0x140
    1340:	02540000 	subseq	r0, r4, #0
    1344:	00010000 	andeq	r0, r1, r0
    1348:	00025450 	andeq	r5, r2, r0, asr r4
    134c:	00025c00 	andeq	r5, r2, r0, lsl #24
    1350:	54000100 	strpl	r0, [r0], #-256	; 0x100
	...
    135c:	00000220 	andeq	r0, r0, r0, lsr #4
    1360:	00000230 	andeq	r0, r0, r0, lsr r2
    1364:	9f300002 	svcls	0x00300002
    1368:	00000230 	andeq	r0, r0, r0, lsr r2
    136c:	00000234 	andeq	r0, r0, r4, lsr r2
    1370:	34500001 	ldrbcc	r0, [r0], #-1
    1374:	40000002 	andmi	r0, r0, r2
    1378:	02000002 	andeq	r0, r0, #2
    137c:	409f3000 	addsmi	r3, pc, r0
    1380:	4c000002 	stcmi	0, cr0, [r0], {2}
    1384:	01000002 	tsteq	r0, r2
    1388:	00005000 	andeq	r5, r0, r0
    138c:	00000000 	andeq	r0, r0, r0
    1390:	025c0000 	subseq	r0, ip, #0
    1394:	02900000 	addseq	r0, r0, #0
    1398:	00010000 	andeq	r0, r1, r0
    139c:	00029050 	andeq	r9, r2, r0, asr r0
    13a0:	0002a000 	andeq	sl, r2, r0
    13a4:	f3000400 	vshl.u8	d0, d0, d0
    13a8:	a09f5001 	addsge	r5, pc, r1
    13ac:	c0000002 	andgt	r0, r0, r2
    13b0:	01000002 	tsteq	r0, r2
    13b4:	02c05000 	sbceq	r5, r0, #0
    13b8:	02d40000 	sbcseq	r0, r4, #0
    13bc:	00040000 	andeq	r0, r4, r0
    13c0:	9f5001f3 	svcls	0x005001f3
	...
    13cc:	0000025c 	andeq	r0, r0, ip, asr r2
    13d0:	00000294 	muleq	r0, r4, r2
    13d4:	94510001 	ldrbls	r0, [r1], #-1
    13d8:	a0000002 	andge	r0, r0, r2
    13dc:	04000002 	streq	r0, [r0], #-2
    13e0:	5101f300 	mrspl	pc, SP_irq	; <UNPREDICTABLE>
    13e4:	0002a09f 	muleq	r2, pc, r0	; <UNPREDICTABLE>
    13e8:	0002c400 	andeq	ip, r2, r0, lsl #8
    13ec:	51000100 	mrspl	r0, (UNDEF: 16)
    13f0:	000002c4 	andeq	r0, r0, r4, asr #5
    13f4:	000002d4 	ldrdeq	r0, [r0], -r4
    13f8:	01f30004 	mvnseq	r0, r4
    13fc:	00009f51 	andeq	r9, r0, r1, asr pc
    1400:	00000000 	andeq	r0, r0, r0
    1404:	02700000 	rsbseq	r0, r0, #0
    1408:	02900000 	addseq	r0, r0, #0
    140c:	00010000 	andeq	r0, r1, r0
    1410:	00029050 	andeq	r9, r2, r0, asr r0
    1414:	0002a000 	andeq	sl, r2, r0
    1418:	f3000400 	vshl.u8	d0, d0, d0
    141c:	009f5001 	addseq	r5, pc, r1
    1420:	00000000 	andeq	r0, r0, r0
    1424:	78000000 	stmdavc	r0, {}	; <UNPREDICTABLE>
    1428:	80000002 	andhi	r0, r0, r2
    142c:	02000002 	andeq	r0, r0, #2
    1430:	809f3000 	addshi	r3, pc, r0
    1434:	80000002 	andhi	r0, r0, r2
    1438:	01000002 	tsteq	r0, r2
    143c:	02805200 	addeq	r5, r0, #0, 4
    1440:	02880000 	addeq	r0, r8, #0
    1444:	00020000 	andeq	r0, r2, r0
    1448:	02889f30 	addeq	r9, r8, #48, 30	; 0xc0
    144c:	029b0000 	addseq	r0, fp, #0
    1450:	00010000 	andeq	r0, r1, r0
    1454:	00000052 	andeq	r0, r0, r2, asr r0
    1458:	00000000 	andeq	r0, r0, r0
    145c:	00027800 	andeq	r7, r2, r0, lsl #16
    1460:	00028c00 	andeq	r8, r2, r0, lsl #24
    1464:	30000200 	andcc	r0, r0, r0, lsl #4
    1468:	00028c9f 	muleq	r2, pc, ip	; <UNPREDICTABLE>
    146c:	00029800 	andeq	r9, r2, r0, lsl #16
    1470:	31000500 	tstcc	r0, r0, lsl #10
    1474:	9f240073 	svcls	0x00240073
    1478:	00000298 	muleq	r0, r8, r2
    147c:	0000029b 	muleq	r0, fp, r2
    1480:	9b510001 	blls	144148c <__bss_end__+0x1432b4c>
    1484:	a0000002 	andge	r0, r0, r2
    1488:	08000002 	stmdaeq	r0, {r1}
    148c:	01f33100 	mvnseq	r3, r0, lsl #2
    1490:	241a4f50 	ldrcs	r4, [sl], #-3920	; 0xf50
    1494:	0000009f 	muleq	r0, pc, r0	; <UNPREDICTABLE>
    1498:	00000000 	andeq	r0, r0, r0
    149c:	0002a000 	andeq	sl, r2, r0
    14a0:	0002c000 	andeq	ip, r2, r0
    14a4:	50000100 	andpl	r0, r0, r0, lsl #2
    14a8:	000002c0 	andeq	r0, r0, r0, asr #5
    14ac:	000002d4 	ldrdeq	r0, [r0], -r4
    14b0:	01f30004 	mvnseq	r0, r4
    14b4:	00009f50 	andeq	r9, r0, r0, asr pc
    14b8:	00000000 	andeq	r0, r0, r0
    14bc:	02a80000 	adceq	r0, r8, #0
    14c0:	02b00000 	adcseq	r0, r0, #0
    14c4:	00020000 	andeq	r0, r2, r0
    14c8:	02b09f30 	adcseq	r9, r0, #48, 30	; 0xc0
    14cc:	02b00000 	adcseq	r0, r0, #0
    14d0:	00010000 	andeq	r0, r1, r0
    14d4:	0002b052 	andeq	fp, r2, r2, asr r0
    14d8:	0002b800 	andeq	fp, r2, r0, lsl #16
    14dc:	30000200 	andcc	r0, r0, r0, lsl #4
    14e0:	0002b89f 	muleq	r2, pc, r8	; <UNPREDICTABLE>
    14e4:	0002cb00 	andeq	ip, r2, r0, lsl #22
    14e8:	52000100 	andpl	r0, r0, #0, 2
	...
    14f4:	000002a8 	andeq	r0, r0, r8, lsr #5
    14f8:	000002bc 			; <UNDEFINED> instruction: 0x000002bc
    14fc:	9f300002 	svcls	0x00300002
    1500:	000002bc 			; <UNDEFINED> instruction: 0x000002bc
    1504:	000002c8 	andeq	r0, r0, r8, asr #5
    1508:	73310005 	teqvc	r1, #5
    150c:	c89f2400 	ldmgt	pc, {sl, sp}	; <UNPREDICTABLE>
    1510:	cb000002 	blgt	1520 <_start-0x6ae0>
    1514:	01000002 	tsteq	r0, r2
    1518:	02cb5100 	sbceq	r5, fp, #0, 2
    151c:	02d40000 	sbcseq	r0, r4, #0
    1520:	00080000 	andeq	r0, r8, r0
    1524:	5001f331 	andpl	pc, r1, r1, lsr r3	; <UNPREDICTABLE>
    1528:	9f241a4f 	svcls	0x00241a4f
	...
    1534:	000002d4 	ldrdeq	r0, [r0], -r4
    1538:	0000036c 	andeq	r0, r0, ip, ror #6
    153c:	6c500001 	mrrcvs	0, 0, r0, r0, cr1	; <UNPREDICTABLE>
    1540:	ac000003 	stcge	0, cr0, [r0], {3}
    1544:	01000003 	tsteq	r0, r3
    1548:	00005400 	andeq	r5, r0, r0, lsl #8
    154c:	00000000 	andeq	r0, r0, r0
    1550:	02d40000 	sbcseq	r0, r4, #0
    1554:	036f0000 	cmneq	pc, #0
    1558:	00010000 	andeq	r0, r1, r0
    155c:	00036f51 	andeq	r6, r3, r1, asr pc
    1560:	0003ac00 	andeq	sl, r3, r0, lsl #24
    1564:	f3000400 	vshl.u8	d0, d0, d0
    1568:	009f5101 	addseq	r5, pc, r1, lsl #2
    156c:	00000000 	andeq	r0, r0, r0
    1570:	24000000 	strcs	r0, [r0], #-0
    1574:	28000003 	stmdacs	r0, {r0, r1}
    1578:	01000003 	tsteq	r0, r3
    157c:	03305600 	teqeq	r0, #0, 12
    1580:	03340000 	teqeq	r4, #0
    1584:	00010000 	andeq	r0, r1, r0
    1588:	00033c56 	andeq	r3, r3, r6, asr ip
    158c:	00034000 	andeq	r4, r3, r0
    1590:	56000100 	strpl	r0, [r0], -r0, lsl #2
    1594:	00000348 	andeq	r0, r0, r8, asr #6
    1598:	0000034c 	andeq	r0, r0, ip, asr #6
    159c:	54560001 	ldrbpl	r0, [r6], #-1
    15a0:	58000003 	stmdapl	r0, {r0, r1}
    15a4:	01000003 	tsteq	r0, r3
    15a8:	03605600 	cmneq	r0, #0, 12
    15ac:	03640000 	cmneq	r4, #0
    15b0:	00010000 	andeq	r0, r1, r0
    15b4:	00036856 	andeq	r6, r3, r6, asr r8
    15b8:	0003ac00 	andeq	sl, r3, r0, lsl #24
    15bc:	56000100 	strpl	r0, [r0], -r0, lsl #2
	...
    15c8:	000002f8 	strdeq	r0, [r0], -r8
    15cc:	00000320 	andeq	r0, r0, r0, lsr #6
    15d0:	20530001 	subscs	r0, r3, r1
    15d4:	28000003 	stmdacs	r0, {r0, r1}
    15d8:	1c000003 	stcne	0, cr0, [r0], {3}
    15dc:	f7007000 			; <UNDEFINED> instruction: 0xf7007000
    15e0:	f425f72c 	vld1.8	{d15}, [r5 :128], ip
    15e4:	cccd0825 	stclgt	8, cr0, [sp], {37}	; 0x25
    15e8:	0000cccc 	andeq	ip, r0, ip, asr #25
    15ec:	081e0000 	ldmdaeq	lr, {}	; <UNPREDICTABLE>
    15f0:	2525f720 	strcs	pc, [r5, #-1824]!	; 0x720
    15f4:	25332cf7 	ldrcs	r2, [r3, #-3319]!	; 0xcf7
    15f8:	0003289f 	muleq	r3, pc, r8	; <UNPREDICTABLE>
    15fc:	00032c00 	andeq	r2, r3, r0, lsl #24
    1600:	53000100 	movwpl	r0, #256	; 0x100
    1604:	0000032c 	andeq	r0, r0, ip, lsr #6
    1608:	00000334 	andeq	r0, r0, r4, lsr r3
    160c:	0070001c 	rsbseq	r0, r0, ip, lsl r0
    1610:	25f72cf7 	ldrbcs	r2, [r7, #3319]!	; 0xcf7
    1614:	cd0825f4 	cfstr32gt	mvfx2, [r8, #-976]	; 0xfffffc30
    1618:	00cccccc 	sbceq	ip, ip, ip, asr #25
    161c:	1e000000 	cdpne	0, 0, cr0, cr0, cr0, {0}
    1620:	25f72008 	ldrbcs	r2, [r7, #8]!
    1624:	332cf725 	msrcc	CPSR_fs, #9699328	; 0x940000
    1628:	03349f25 	teqeq	r4, #37, 30	; 0x94
    162c:	03380000 	teqeq	r8, #0
    1630:	00010000 	andeq	r0, r1, r0
    1634:	00033853 	andeq	r3, r3, r3, asr r8
    1638:	00034000 	andeq	r4, r3, r0
    163c:	70001c00 	andvc	r1, r0, r0, lsl #24
    1640:	f72cf700 			; <UNDEFINED> instruction: 0xf72cf700
    1644:	0825f425 	stmdaeq	r5!, {r0, r2, r5, sl, ip, sp, lr, pc}
    1648:	cccccccd 	stclgt	12, cr12, [ip], {205}	; 0xcd
    164c:	00000000 	andeq	r0, r0, r0
    1650:	f720081e 			; <UNDEFINED> instruction: 0xf720081e
    1654:	2cf72525 	cfldr64cs	mvdx2, [r7], #148	; 0x94
    1658:	409f2533 	addsmi	r2, pc, r3, lsr r5	; <UNPREDICTABLE>
    165c:	44000003 	strmi	r0, [r0], #-3
    1660:	01000003 	tsteq	r0, r3
    1664:	03445300 	movteq	r5, #17152	; 0x4300
    1668:	034c0000 	movteq	r0, #49152	; 0xc000
    166c:	001c0000 	andseq	r0, ip, r0
    1670:	2cf70070 	ldclcs	0, cr0, [r7], #448	; 0x1c0
    1674:	25f425f7 	ldrbcs	r2, [r4, #1527]!	; 0x5f7
    1678:	cccccd08 	stclgt	13, cr12, [ip], {8}
    167c:	000000cc 	andeq	r0, r0, ip, asr #1
    1680:	20081e00 	andcs	r1, r8, r0, lsl #28
    1684:	f72525f7 			; <UNDEFINED> instruction: 0xf72525f7
    1688:	9f25332c 	svcls	0x0025332c
    168c:	0000034c 	andeq	r0, r0, ip, asr #6
    1690:	00000350 	andeq	r0, r0, r0, asr r3
    1694:	50530001 	subspl	r0, r3, r1
    1698:	58000003 	stmdapl	r0, {r0, r1}
    169c:	1c000003 	stcne	0, cr0, [r0], {3}
    16a0:	f7007000 			; <UNDEFINED> instruction: 0xf7007000
    16a4:	f425f72c 	vld1.8	{d15}, [r5 :128], ip
    16a8:	cccd0825 	stclgt	8, cr0, [sp], {37}	; 0x25
    16ac:	0000cccc 	andeq	ip, r0, ip, asr #25
    16b0:	081e0000 	ldmdaeq	lr, {}	; <UNPREDICTABLE>
    16b4:	2525f720 	strcs	pc, [r5, #-1824]!	; 0x720
    16b8:	25332cf7 	ldrcs	r2, [r3, #-3319]!	; 0xcf7
    16bc:	0003589f 	muleq	r3, pc, r8	; <UNPREDICTABLE>
    16c0:	00035c00 	andeq	r5, r3, r0, lsl #24
    16c4:	53000100 	movwpl	r0, #256	; 0x100
    16c8:	0000035c 	andeq	r0, r0, ip, asr r3
    16cc:	00000364 	andeq	r0, r0, r4, ror #6
    16d0:	0070001c 	rsbseq	r0, r0, ip, lsl r0
    16d4:	25f72cf7 	ldrbcs	r2, [r7, #3319]!	; 0xcf7
    16d8:	cd0825f4 	cfstr32gt	mvfx2, [r8, #-976]	; 0xfffffc30
    16dc:	00cccccc 	sbceq	ip, ip, ip, asr #25
    16e0:	1e000000 	cdpne	0, 0, cr0, cr0, cr0, {0}
    16e4:	25f72008 	ldrbcs	r2, [r7, #8]!
    16e8:	332cf725 	msrcc	CPSR_fs, #9699328	; 0x940000
    16ec:	03649f25 	cmneq	r4, #37, 30	; 0x94
    16f0:	03680000 	cmneq	r8, #0
    16f4:	00010000 	andeq	r0, r1, r0
    16f8:	00036853 	andeq	r6, r3, r3, asr r8
    16fc:	00036c00 	andeq	r6, r3, r0, lsl #24
    1700:	70001c00 	andvc	r1, r0, r0, lsl #24
    1704:	f72cf700 			; <UNDEFINED> instruction: 0xf72cf700
    1708:	0825f425 	stmdaeq	r5!, {r0, r2, r5, sl, ip, sp, lr, pc}
    170c:	cccccccd 	stclgt	12, cr12, [ip], {205}	; 0xcd
    1710:	00000000 	andeq	r0, r0, r0
    1714:	f720081e 			; <UNDEFINED> instruction: 0xf720081e
    1718:	2cf72525 	cfldr64cs	mvdx2, [r7], #148	; 0x94
    171c:	6c9f2533 	cfldr32vs	mvfx2, [pc], {51}	; 0x33
    1720:	74000003 	strvc	r0, [r0], #-3
    1724:	1c000003 	stcne	0, cr0, [r0], {3}
    1728:	f7007400 			; <UNDEFINED> instruction: 0xf7007400
    172c:	f425f72c 	vld1.8	{d15}, [r5 :128], ip
    1730:	cccd0825 	stclgt	8, cr0, [sp], {37}	; 0x25
    1734:	0000cccc 	andeq	ip, r0, ip, asr #25
    1738:	081e0000 	ldmdaeq	lr, {}	; <UNPREDICTABLE>
    173c:	2525f720 	strcs	pc, [r5, #-1824]!	; 0x720
    1740:	25332cf7 	ldrcs	r2, [r3, #-3319]!	; 0xcf7
    1744:	0003749f 	muleq	r3, pc, r4	; <UNPREDICTABLE>
    1748:	00037800 	andeq	r7, r3, r0, lsl #16
    174c:	74001700 	strvc	r1, [r0], #-1792	; 0x700
    1750:	f72cf700 			; <UNDEFINED> instruction: 0xf72cf700
    1754:	f7007325 			; <UNDEFINED> instruction: 0xf7007325
    1758:	1e25f72c 	cdpne	7, 2, cr15, cr5, cr12, {1}
    175c:	25f72008 	ldrbcs	r2, [r7, #8]!
    1760:	332cf725 	msrcc	CPSR_fs, #9699328	; 0x940000
    1764:	03789f25 	cmneq	r8, #37, 30	; 0x94
    1768:	03ac0000 			; <UNDEFINED> instruction: 0x03ac0000
    176c:	001c0000 	andseq	r0, ip, r0
    1770:	2cf70074 	ldclcs	0, cr0, [r7], #464	; 0x1d0
    1774:	25f425f7 	ldrbcs	r2, [r4, #1527]!	; 0x5f7
    1778:	cccccd08 	stclgt	13, cr12, [ip], {8}
    177c:	000000cc 	andeq	r0, r0, ip, asr #1
    1780:	20081e00 	andcs	r1, r8, r0, lsl #28
    1784:	f72525f7 			; <UNDEFINED> instruction: 0xf72525f7
    1788:	9f25332c 	svcls	0x0025332c
	...
    1794:	00000370 	andeq	r0, r0, r0, ror r3
    1798:	00000394 	muleq	r0, r4, r3
    179c:	94500001 	ldrbls	r0, [r0], #-1
    17a0:	9c000003 	stcls	0, cr0, [r0], {3}
    17a4:	09000003 	stmdbeq	r0, {r0, r1}
    17a8:	73007500 	movwvc	r7, #1280	; 0x500
    17ac:	00712400 	rsbseq	r2, r1, r0, lsl #8
    17b0:	039c9f21 	orrseq	r9, ip, #33, 30	; 0x84
    17b4:	039f0000 	orrseq	r0, pc, #0
    17b8:	00010000 	andeq	r0, r1, r0
    17bc:	00000051 	andeq	r0, r0, r1, asr r0
    17c0:	00000000 	andeq	r0, r0, r0
    17c4:	0003ac00 	andeq	sl, r3, r0, lsl #24
    17c8:	0003b800 	andeq	fp, r3, r0, lsl #16
    17cc:	50000100 	andpl	r0, r0, r0, lsl #2
    17d0:	000003b8 			; <UNDEFINED> instruction: 0x000003b8
    17d4:	000003d8 	ldrdeq	r0, [r0], -r8
    17d8:	01f30004 	mvnseq	r0, r4
    17dc:	00009f50 	andeq	r9, r0, r0, asr pc
    17e0:	00000000 	andeq	r0, r0, r0
    17e4:	03d80000 	bicseq	r0, r8, #0
    17e8:	03eb0000 	mvneq	r0, #0
    17ec:	00010000 	andeq	r0, r1, r0
    17f0:	0003eb50 	andeq	lr, r3, r0, asr fp
    17f4:	00042400 	andeq	r2, r4, r0, lsl #8
    17f8:	54000100 	strpl	r0, [r0], #-256	; 0x100
    17fc:	00000424 	andeq	r0, r0, r4, lsr #8
    1800:	0000045c 	andeq	r0, r0, ip, asr r4
    1804:	01f30004 	mvnseq	r0, r4
    1808:	00009f50 	andeq	r9, r0, r0, asr pc
    180c:	00000000 	andeq	r0, r0, r0
    1810:	04440000 	strbeq	r0, [r4], #-0
    1814:	04480000 	strbeq	r0, [r8], #-0
    1818:	00010000 	andeq	r0, r1, r0
    181c:	00044850 	andeq	r4, r4, r0, asr r8
    1820:	00044f00 	andeq	r4, r4, r0, lsl #30
    1824:	51000100 	mrspl	r0, (UNDEF: 16)
	...
    1830:	00000400 	andeq	r0, r0, r0, lsl #8
    1834:	00000408 	andeq	r0, r0, r8, lsl #8
    1838:	08500001 	ldmdaeq	r0, {r0}^
    183c:	0f000004 	svceq	0x00000004
    1840:	01000004 	tsteq	r0, r4
    1844:	00005100 	andeq	r5, r0, r0, lsl #2
    1848:	00000000 	andeq	r0, r0, r0
    184c:	04200000 	strteq	r0, [r0], #-0
    1850:	042c0000 	strteq	r0, [ip], #-0
    1854:	00010000 	andeq	r0, r1, r0
    1858:	00042c50 	andeq	r2, r4, r0, asr ip
    185c:	00043300 	andeq	r3, r4, r0, lsl #6
    1860:	51000100 	mrspl	r0, (UNDEF: 16)
	...
    186c:	0000045c 	andeq	r0, r0, ip, asr r4
    1870:	0000046f 	andeq	r0, r0, pc, ror #8
    1874:	6f500001 	svcvs	0x00500001
    1878:	a8000004 	stmdage	r0, {r2}
    187c:	01000004 	tsteq	r0, r4
    1880:	04a85400 	strteq	r5, [r8], #1024	; 0x400
    1884:	04e00000 	strbteq	r0, [r0], #0
    1888:	00040000 	andeq	r0, r4, r0
    188c:	9f5001f3 	svcls	0x005001f3
	...
    1898:	000004c8 	andeq	r0, r0, r8, asr #9
    189c:	000004cc 	andeq	r0, r0, ip, asr #9
    18a0:	cc500001 	mrrcgt	0, 0, r0, r0, cr1	; <UNPREDICTABLE>
    18a4:	d3000004 	movwle	r0, #4
    18a8:	01000004 	tsteq	r0, r4
    18ac:	00005100 	andeq	r5, r0, r0, lsl #2
    18b0:	00000000 	andeq	r0, r0, r0
    18b4:	04840000 	streq	r0, [r4], #0
    18b8:	048c0000 	streq	r0, [ip], #0
    18bc:	00010000 	andeq	r0, r1, r0
    18c0:	00048c50 	andeq	r8, r4, r0, asr ip
    18c4:	00049300 	andeq	r9, r4, r0, lsl #6
    18c8:	51000100 	mrspl	r0, (UNDEF: 16)
	...
    18d4:	000004a4 	andeq	r0, r0, r4, lsr #9
    18d8:	000004b0 			; <UNDEFINED> instruction: 0x000004b0
    18dc:	b0500001 	subslt	r0, r0, r1
    18e0:	b7000004 	strlt	r0, [r0, -r4]
    18e4:	01000004 	tsteq	r0, r4
    18e8:	00005100 	andeq	r5, r0, r0, lsl #2
    18ec:	00000000 	andeq	r0, r0, r0
    18f0:	04e00000 	strbteq	r0, [r0], #0
    18f4:	04f30000 	ldrbteq	r0, [r3], #0
    18f8:	00010000 	andeq	r0, r1, r0
    18fc:	0004f350 	andeq	pc, r4, r0, asr r3	; <UNPREDICTABLE>
    1900:	00053400 	andeq	r3, r5, r0, lsl #8
    1904:	54000100 	strpl	r0, [r0], #-256	; 0x100
    1908:	00000534 	andeq	r0, r0, r4, lsr r5
    190c:	00000558 	andeq	r0, r0, r8, asr r5
    1910:	01f30004 	mvnseq	r0, r4
    1914:	05589f50 	ldrbeq	r9, [r8, #-3920]	; 0xf50
    1918:	055c0000 	ldrbeq	r0, [ip, #-0]
    191c:	00010000 	andeq	r0, r1, r0
    1920:	00055c50 	andeq	r5, r5, r0, asr ip
    1924:	00056400 	andeq	r6, r5, r0, lsl #8
    1928:	54000100 	strpl	r0, [r0], #-256	; 0x100
	...
    1934:	00000508 	andeq	r0, r0, r8, lsl #10
    1938:	00000517 	andeq	r0, r0, r7, lsl r5
    193c:	74310008 	ldrtvc	r0, [r1], #-8
    1940:	00702400 	rsbseq	r2, r0, r0, lsl #8
    1944:	00009f1a 	andeq	r9, r0, sl, lsl pc
    1948:	00000000 	andeq	r0, r0, r0
    194c:	05340000 	ldreq	r0, [r4, #-0]!
    1950:	054c0000 	strbeq	r0, [ip, #-0]
    1954:	00010000 	andeq	r0, r1, r0
    1958:	00000054 	andeq	r0, r0, r4, asr r0
    195c:	00000000 	andeq	r0, r0, r0
    1960:	00056400 	andeq	r6, r5, r0, lsl #8
    1964:	00057700 	andeq	r7, r5, r0, lsl #14
    1968:	50000100 	andpl	r0, r0, r0, lsl #2
    196c:	00000577 	andeq	r0, r0, r7, ror r5
    1970:	0000059c 	muleq	r0, ip, r5
    1974:	9c540001 	mrrcls	0, 0, r0, r4, cr1
    1978:	bc000005 	stclt	0, cr0, [r0], {5}
    197c:	04000005 	streq	r0, [r0], #-5
    1980:	5001f300 	andpl	pc, r1, r0, lsl #6
    1984:	0000009f 	muleq	r0, pc, r0	; <UNPREDICTABLE>
	...
    1990:	00001800 	andeq	r1, r0, r0, lsl #16
    1994:	50000100 	andpl	r0, r0, r0, lsl #2
    1998:	00000018 	andeq	r0, r0, r8, lsl r0
    199c:	00000154 	andeq	r0, r0, r4, asr r1
    19a0:	01f30004 	mvnseq	r0, r4
    19a4:	00009f50 	andeq	r9, r0, r0, asr pc
	...
    19b0:	001c0000 	andseq	r0, ip, r0
    19b4:	00010000 	andeq	r0, r1, r0
    19b8:	00001c51 	andeq	r1, r0, r1, asr ip
    19bc:	00015400 	andeq	r5, r1, r0, lsl #8
    19c0:	f3000400 	vshl.u8	d0, d0, d0
    19c4:	009f5101 	addseq	r5, pc, r1, lsl #2
    19c8:	00000000 	andeq	r0, r0, r0
    19cc:	10000000 	andne	r0, r0, r0
    19d0:	34000000 	strcc	r0, [r0], #-0
    19d4:	01000001 	tsteq	r0, r1
    19d8:	00005500 	andeq	r5, r0, r0, lsl #10
    19dc:	00000000 	andeq	r0, r0, r0
    19e0:	00100000 	andseq	r0, r0, r0
    19e4:	00340000 	eorseq	r0, r4, r0
    19e8:	00010000 	andeq	r0, r1, r0
    19ec:	00003455 	andeq	r3, r0, r5, asr r4
    19f0:	00013400 	andeq	r3, r1, r0, lsl #8
    19f4:	58000100 	stmdapl	r0, {r8}
    19f8:	00000134 	andeq	r0, r0, r4, lsr r1
    19fc:	00000154 	andeq	r0, r0, r4, asr r1
    1a00:	00550001 	subseq	r0, r5, r1
    1a04:	00000000 	andeq	r0, r0, r0
    1a08:	14000000 	strne	r0, [r0], #-0
    1a0c:	34000000 	strcc	r0, [r0], #-0
    1a10:	01000001 	tsteq	r0, r1
    1a14:	00005500 	andeq	r5, r0, r0, lsl #10
    1a18:	00000000 	andeq	r0, r0, r0
    1a1c:	00200000 	eoreq	r0, r0, r0
    1a20:	01340000 	teqeq	r4, r0
    1a24:	00010000 	andeq	r0, r1, r0
    1a28:	00000055 	andeq	r0, r0, r5, asr r0
    1a2c:	00000000 	andeq	r0, r0, r0
    1a30:	00002400 	andeq	r2, r0, r0, lsl #8
    1a34:	00002800 	andeq	r2, r0, r0, lsl #16
    1a38:	53000100 	movwpl	r0, #256	; 0x100
	...
    1a44:	00000034 	andeq	r0, r0, r4, lsr r0
    1a48:	00000054 	andeq	r0, r0, r4, asr r0
    1a4c:	54580001 	ldrbpl	r0, [r8], #-1
    1a50:	34000000 	strcc	r0, [r0], #-0
    1a54:	05000001 	streq	r0, [r0, #-1]
    1a58:	31007500 	tstcc	r0, r0, lsl #10
    1a5c:	00009f24 	andeq	r9, r0, r4, lsr #30
    1a60:	00000000 	andeq	r0, r0, r0
    1a64:	00340000 	eorseq	r0, r4, r0
    1a68:	003c0000 	eorseq	r0, ip, r0
    1a6c:	00050000 	andeq	r0, r5, r0
    1a70:	1a310077 	bne	c41c54 <__bss_end__+0xc33314>
    1a74:	00003c9f 	muleq	r0, pc, ip	; <UNPREDICTABLE>
    1a78:	00003f00 	andeq	r3, r0, r0, lsl #30
    1a7c:	51000100 	mrspl	r0, (UNDEF: 16)
    1a80:	0000003f 	andeq	r0, r0, pc, lsr r0
    1a84:	00000154 	andeq	r0, r0, r4, asr r1
    1a88:	00770005 	rsbseq	r0, r7, r5
    1a8c:	009f1a31 	addseq	r1, pc, r1, lsr sl	; <UNPREDICTABLE>
    1a90:	00000000 	andeq	r0, r0, r0
    1a94:	40000000 	andmi	r0, r0, r0
    1a98:	54000000 	strpl	r0, [r0], #-0
    1a9c:	01000000 	mrseq	r0, (UNDEF: 0)
    1aa0:	00545800 	subseq	r5, r4, r0, lsl #16
    1aa4:	01340000 	teqeq	r4, r0
    1aa8:	00050000 	andeq	r0, r5, r0
    1aac:	24310075 	ldrtcs	r0, [r1], #-117	; 0x75
    1ab0:	0000009f 	muleq	r0, pc, r0	; <UNPREDICTABLE>
    1ab4:	00000000 	andeq	r0, r0, r0
    1ab8:	00004400 	andeq	r4, r0, r0, lsl #8
    1abc:	00004800 	andeq	r4, r0, r0, lsl #16
    1ac0:	53000100 	movwpl	r0, #256	; 0x100
	...
    1acc:	00000054 	andeq	r0, r0, r4, asr r0
    1ad0:	00000074 	andeq	r0, r0, r4, ror r0
    1ad4:	74580001 	ldrbvc	r0, [r8], #-1
    1ad8:	34000000 	strcc	r0, [r0], #-0
    1adc:	08000001 	stmdaeq	r0, {r0}
    1ae0:	31007500 	tstcc	r0, r0, lsl #10
    1ae4:	22007524 	andcs	r7, r0, #36, 10	; 0x9000000
    1ae8:	0000009f 	muleq	r0, pc, r0	; <UNPREDICTABLE>
    1aec:	00000000 	andeq	r0, r0, r0
    1af0:	00006000 	andeq	r6, r0, r0
    1af4:	00007400 	andeq	r7, r0, r0, lsl #8
    1af8:	58000100 	stmdapl	r0, {r8}
    1afc:	00000074 	andeq	r0, r0, r4, ror r0
    1b00:	00000134 	andeq	r0, r0, r4, lsr r1
    1b04:	00750008 	rsbseq	r0, r5, r8
    1b08:	00752431 	rsbseq	r2, r5, r1, lsr r4
    1b0c:	00009f22 	andeq	r9, r0, r2, lsr #30
    1b10:	00000000 	andeq	r0, r0, r0
    1b14:	00640000 	rsbeq	r0, r4, r0
    1b18:	00680000 	rsbeq	r0, r8, r0
    1b1c:	00010000 	andeq	r0, r1, r0
    1b20:	00000053 	andeq	r0, r0, r3, asr r0
    1b24:	00000000 	andeq	r0, r0, r0
    1b28:	00007400 	andeq	r7, r0, r0, lsl #8
    1b2c:	00009400 	andeq	r9, r0, r0, lsl #8
    1b30:	58000100 	stmdapl	r0, {r8}
    1b34:	00000094 	muleq	r0, r4, r0
    1b38:	00000134 	andeq	r0, r0, r4, lsr r1
    1b3c:	00750005 	rsbseq	r0, r5, r5
    1b40:	009f2432 	addseq	r2, pc, r2, lsr r4	; <UNPREDICTABLE>
    1b44:	00000000 	andeq	r0, r0, r0
    1b48:	80000000 	andhi	r0, r0, r0
    1b4c:	94000000 	strls	r0, [r0], #-0
    1b50:	01000000 	mrseq	r0, (UNDEF: 0)
    1b54:	00945800 	addseq	r5, r4, r0, lsl #16
    1b58:	01340000 	teqeq	r4, r0
    1b5c:	00050000 	andeq	r0, r5, r0
    1b60:	24320075 	ldrtcs	r0, [r2], #-117	; 0x75
    1b64:	0000009f 	muleq	r0, pc, r0	; <UNPREDICTABLE>
    1b68:	00000000 	andeq	r0, r0, r0
    1b6c:	00008400 	andeq	r8, r0, r0, lsl #8
    1b70:	00008800 	andeq	r8, r0, r0, lsl #16
    1b74:	53000100 	movwpl	r0, #256	; 0x100
	...
    1b80:	00000094 	muleq	r0, r4, r0
    1b84:	000000b4 	strheq	r0, [r0], -r4
    1b88:	b4580001 	ldrblt	r0, [r8], #-1
    1b8c:	34000000 	strcc	r0, [r0], #-0
    1b90:	08000001 	stmdaeq	r0, {r0}
    1b94:	32007500 	andcc	r7, r0, #0, 10
    1b98:	22007524 	andcs	r7, r0, #36, 10	; 0x9000000
    1b9c:	0000009f 	muleq	r0, pc, r0	; <UNPREDICTABLE>
    1ba0:	00000000 	andeq	r0, r0, r0
    1ba4:	0000a000 	andeq	sl, r0, r0
    1ba8:	0000b400 	andeq	fp, r0, r0, lsl #8
    1bac:	58000100 	stmdapl	r0, {r8}
    1bb0:	000000b4 	strheq	r0, [r0], -r4
    1bb4:	00000134 	andeq	r0, r0, r4, lsr r1
    1bb8:	00750008 	rsbseq	r0, r5, r8
    1bbc:	00752432 	rsbseq	r2, r5, r2, lsr r4
    1bc0:	00009f22 	andeq	r9, r0, r2, lsr #30
    1bc4:	00000000 	andeq	r0, r0, r0
    1bc8:	00a40000 	adceq	r0, r4, r0
    1bcc:	00a80000 	adceq	r0, r8, r0
    1bd0:	00010000 	andeq	r0, r1, r0
    1bd4:	00000053 	andeq	r0, r0, r3, asr r0
    1bd8:	00000000 	andeq	r0, r0, r0
    1bdc:	0000b400 	andeq	fp, r0, r0, lsl #8
    1be0:	0000d400 	andeq	sp, r0, r0, lsl #8
    1be4:	58000100 	stmdapl	r0, {r8}
    1be8:	000000d4 	ldrdeq	r0, [r0], -r4
    1bec:	00000134 	andeq	r0, r0, r4, lsr r1
    1bf0:	0075000a 	rsbseq	r0, r5, sl
    1bf4:	00752432 	rsbseq	r2, r5, r2, lsr r4
    1bf8:	9f222431 	svcls	0x00222431
	...
    1c04:	000000c0 	andeq	r0, r0, r0, asr #1
    1c08:	000000d4 	ldrdeq	r0, [r0], -r4
    1c0c:	d4580001 	ldrble	r0, [r8], #-1
    1c10:	34000000 	strcc	r0, [r0], #-0
    1c14:	0a000001 	beq	1c20 <_start-0x63e0>
    1c18:	32007500 	andcc	r7, r0, #0, 10
    1c1c:	31007524 	tstcc	r0, r4, lsr #10
    1c20:	009f2224 	addseq	r2, pc, r4, lsr #4
    1c24:	00000000 	andeq	r0, r0, r0
    1c28:	c4000000 	strgt	r0, [r0], #-0
    1c2c:	c8000000 	stmdagt	r0, {}	; <UNPREDICTABLE>
    1c30:	01000000 	mrseq	r0, (UNDEF: 0)
    1c34:	00005300 	andeq	r5, r0, r0, lsl #6
    1c38:	00000000 	andeq	r0, r0, r0
    1c3c:	00d40000 	sbcseq	r0, r4, r0
    1c40:	00f40000 	rscseq	r0, r4, r0
    1c44:	00010000 	andeq	r0, r1, r0
    1c48:	0000f458 	andeq	pc, r0, r8, asr r4	; <UNPREDICTABLE>
    1c4c:	00013400 	andeq	r3, r1, r0, lsl #8
    1c50:	75000d00 	strvc	r0, [r0, #-3328]	; 0xd00
    1c54:	75243200 	strvc	r3, [r4, #-512]!	; 0x200
    1c58:	22243100 	eorcs	r3, r4, #0, 2
    1c5c:	9f220075 	svcls	0x00220075
	...
    1c68:	000000e0 	andeq	r0, r0, r0, ror #1
    1c6c:	000000f4 	strdeq	r0, [r0], -r4
    1c70:	f4580001 			; <UNDEFINED> instruction: 0xf4580001
    1c74:	34000000 	strcc	r0, [r0], #-0
    1c78:	0d000001 	stceq	0, cr0, [r0, #-4]
    1c7c:	32007500 	andcc	r7, r0, #0, 10
    1c80:	31007524 	tstcc	r0, r4, lsr #10
    1c84:	00752224 	rsbseq	r2, r5, r4, lsr #4
    1c88:	00009f22 	andeq	r9, r0, r2, lsr #30
    1c8c:	00000000 	andeq	r0, r0, r0
    1c90:	00e40000 	rsceq	r0, r4, r0
    1c94:	00e80000 	rsceq	r0, r8, r0
    1c98:	00010000 	andeq	r0, r1, r0
    1c9c:	00000053 	andeq	r0, r0, r3, asr r0
    1ca0:	00000000 	andeq	r0, r0, r0
    1ca4:	0000f400 	andeq	pc, r0, r0, lsl #8
    1ca8:	00011400 	andeq	r1, r1, r0, lsl #8
    1cac:	58000100 	stmdapl	r0, {r8}
    1cb0:	00000114 	andeq	r0, r0, r4, lsl r1
    1cb4:	00000134 	andeq	r0, r0, r4, lsr r1
    1cb8:	00750005 	rsbseq	r0, r5, r5
    1cbc:	009f2433 	addseq	r2, pc, r3, lsr r4	; <UNPREDICTABLE>
	...
    1cc8:	14000001 	strne	r0, [r0], #-1
    1ccc:	01000001 	tsteq	r0, r1
    1cd0:	01145800 	tsteq	r4, r0, lsl #16
    1cd4:	01340000 	teqeq	r4, r0
    1cd8:	00050000 	andeq	r0, r5, r0
    1cdc:	24330075 	ldrtcs	r0, [r3], #-117	; 0x75
    1ce0:	0000009f 	muleq	r0, pc, r0	; <UNPREDICTABLE>
    1ce4:	00000000 	andeq	r0, r0, r0
    1ce8:	00010400 	andeq	r0, r1, r0, lsl #8
    1cec:	00010800 	andeq	r0, r1, r0, lsl #16
    1cf0:	53000100 	movwpl	r0, #256	; 0x100
	...
    1cfc:	00000114 	andeq	r0, r0, r4, lsl r1
    1d00:	0000011c 	andeq	r0, r0, ip, lsl r1
    1d04:	00770006 	rsbseq	r0, r7, r6
    1d08:	9f1a8008 	svcls	0x001a8008
    1d0c:	0000011c 	andeq	r0, r0, ip, lsl r1
    1d10:	0000011f 	andeq	r0, r0, pc, lsl r1
    1d14:	1f510001 	svcne	0x00510001
    1d18:	54000001 	strpl	r0, [r0], #-1
    1d1c:	06000001 	streq	r0, [r0], -r1
    1d20:	08007700 	stmdaeq	r0, {r8, r9, sl, ip, sp, lr}
    1d24:	009f1a80 	addseq	r1, pc, r0, lsl #21
    1d28:	00000000 	andeq	r0, r0, r0
    1d2c:	24000000 	strcs	r0, [r0], #-0
    1d30:	28000001 	stmdacs	r0, {r0}
    1d34:	01000001 	tsteq	r0, r1
    1d38:	00005300 	andeq	r5, r0, r0, lsl #6
    1d3c:	00000000 	andeq	r0, r0, r0
    1d40:	01440000 	mrseq	r0, (UNDEF: 68)
    1d44:	01480000 	mrseq	r0, (UNDEF: 72)
    1d48:	00010000 	andeq	r0, r1, r0
    1d4c:	00000053 	andeq	r0, r0, r3, asr r0
    1d50:	00000000 	andeq	r0, r0, r0
    1d54:	00015400 	andeq	r5, r1, r0, lsl #8
    1d58:	00016b00 	andeq	r6, r1, r0, lsl #22
    1d5c:	50000100 	andpl	r0, r0, r0, lsl #2
    1d60:	0000016b 	andeq	r0, r0, fp, ror #2
    1d64:	000001d0 	ldrdeq	r0, [r0], -r0	; <UNPREDICTABLE>
    1d68:	d0590001 	subsle	r0, r9, r1
    1d6c:	0c000001 	stceq	0, cr0, [r0], {1}
    1d70:	04000003 	streq	r0, [r0], #-3
    1d74:	5001f300 	andpl	pc, r1, r0, lsl #6
    1d78:	00030c9f 	muleq	r3, pc, ip	; <UNPREDICTABLE>
    1d7c:	00031400 	andeq	r1, r3, r0, lsl #8
    1d80:	59000100 	stmdbpl	r0, {r8}
    1d84:	00000314 	andeq	r0, r0, r4, lsl r3
    1d88:	0000031c 	andeq	r0, r0, ip, lsl r3
    1d8c:	01f30004 	mvnseq	r0, r4
    1d90:	00009f50 	andeq	r9, r0, r0, asr pc
    1d94:	00000000 	andeq	r0, r0, r0
    1d98:	01540000 	cmpeq	r4, r0
    1d9c:	016b0000 	cmneq	fp, r0
    1da0:	00010000 	andeq	r0, r1, r0
    1da4:	00016b51 	andeq	r6, r1, r1, asr fp
    1da8:	00031c00 	andeq	r1, r3, r0, lsl #24
    1dac:	56000100 	strpl	r0, [r0], -r0, lsl #2
	...
    1db8:	000001a8 	andeq	r0, r0, r8, lsr #3
    1dbc:	00000298 	muleq	r0, r8, r2
    1dc0:	00580001 	subseq	r0, r8, r1
    1dc4:	00000000 	andeq	r0, r0, r0
    1dc8:	ac000000 	stcge	0, cr0, [r0], {-0}
    1dcc:	d0000001 	andle	r0, r0, r1
    1dd0:	01000002 	tsteq	r0, r2
    1dd4:	00005400 	andeq	r5, r0, r0, lsl #8
    1dd8:	00000000 	andeq	r0, r0, r0
    1ddc:	01ac0000 			; <UNDEFINED> instruction: 0x01ac0000
    1de0:	02d00000 	sbcseq	r0, r0, #0
    1de4:	00050000 	andeq	r0, r5, r0
    1de8:	25310074 	ldrcs	r0, [r1, #-116]!	; 0x74
    1dec:	0000009f 	muleq	r0, pc, r0	; <UNPREDICTABLE>
    1df0:	00000000 	andeq	r0, r0, r0
    1df4:	0001ac00 	andeq	sl, r1, r0, lsl #24
    1df8:	0001d000 	andeq	sp, r1, r0
    1dfc:	30000200 	andcc	r0, r0, r0, lsl #4
    1e00:	0001d09f 	muleq	r1, pc, r0	; <UNPREDICTABLE>
    1e04:	00030c00 	andeq	r0, r3, r0, lsl #24
    1e08:	59000100 	stmdbpl	r0, {r8}
    1e0c:	00000314 	andeq	r0, r0, r4, lsl r3
    1e10:	0000031c 	andeq	r0, r0, ip, lsl r3
    1e14:	00590001 	subseq	r0, r9, r1
    1e18:	00000000 	andeq	r0, r0, r0
    1e1c:	68000000 	stmdavs	r0, {}	; <UNPREDICTABLE>
    1e20:	6b000001 	blvs	1e2c <_start-0x61d4>
    1e24:	01000001 	tsteq	r0, r1
    1e28:	016b5100 	cmneq	fp, r0, lsl #2
    1e2c:	031c0000 	tsteq	ip, #0
    1e30:	00010000 	andeq	r0, r1, r0
    1e34:	00000056 	andeq	r0, r0, r6, asr r0
    1e38:	00000000 	andeq	r0, r0, r0
    1e3c:	00017000 	andeq	r7, r1, r0
    1e40:	0001ac00 	andeq	sl, r1, r0, lsl #24
    1e44:	54000100 	strpl	r0, [r0], #-256	; 0x100
    1e48:	0000030c 	andeq	r0, r0, ip, lsl #6
    1e4c:	00000314 	andeq	r0, r0, r4, lsl r3
    1e50:	00540001 	subseq	r0, r4, r1
    1e54:	00000000 	andeq	r0, r0, r0
    1e58:	a8000000 	stmdage	r0, {}	; <UNPREDICTABLE>
    1e5c:	c4000001 	strgt	r0, [r0], #-1
    1e60:	01000001 	tsteq	r0, r1
    1e64:	00005800 	andeq	r5, r0, r0, lsl #16
    1e68:	00000000 	andeq	r0, r0, r0
    1e6c:	01b00000 	movseq	r0, r0
    1e70:	01cb0000 	biceq	r0, fp, r0
    1e74:	00010000 	andeq	r0, r1, r0
    1e78:	0001cb52 	andeq	ip, r1, r2, asr fp
    1e7c:	0002d000 	andeq	sp, r2, r0
    1e80:	74000800 	strvc	r0, [r0], #-2048	; 0x800
    1e84:	74253100 	strtvc	r3, [r5], #-256	; 0x100
    1e88:	009f2200 	addseq	r2, pc, r0, lsl #4
    1e8c:	00000000 	andeq	r0, r0, r0
    1e90:	b0000000 	andlt	r0, r0, r0
    1e94:	c4000001 	strgt	r0, [r0], #-1
    1e98:	01000001 	tsteq	r0, r1
    1e9c:	00005800 	andeq	r5, r0, r0, lsl #16
    1ea0:	00000000 	andeq	r0, r0, r0
    1ea4:	01b40000 			; <UNDEFINED> instruction: 0x01b40000
    1ea8:	01b80000 			; <UNDEFINED> instruction: 0x01b80000
    1eac:	00010000 	andeq	r0, r1, r0
    1eb0:	00000053 	andeq	r0, r0, r3, asr r0
    1eb4:	00000000 	andeq	r0, r0, r0
    1eb8:	0001d000 	andeq	sp, r1, r0
    1ebc:	0002d000 	andeq	sp, r2, r0
    1ec0:	54000100 	strpl	r0, [r0], #-256	; 0x100
	...
    1ecc:	000001d0 	ldrdeq	r0, [r0], -r0	; <UNPREDICTABLE>
    1ed0:	000001e4 	andeq	r0, r0, r4, ror #3
    1ed4:	00580001 	subseq	r0, r8, r1
    1ed8:	00000000 	andeq	r0, r0, r0
    1edc:	d4000000 	strle	r0, [r0], #-0
    1ee0:	d8000001 	stmdale	r0, {r0}
    1ee4:	01000001 	tsteq	r0, r1
    1ee8:	00005300 	andeq	r5, r0, r0, lsl #6
    1eec:	00000000 	andeq	r0, r0, r0
    1ef0:	01f40000 	mvnseq	r0, r0
    1ef4:	02d00000 	sbcseq	r0, r0, #0
    1ef8:	00010000 	andeq	r0, r1, r0
    1efc:	00000054 	andeq	r0, r0, r4, asr r0
    1f00:	00000000 	andeq	r0, r0, r0
    1f04:	0001f400 	andeq	pc, r1, r0, lsl #8
    1f08:	00020800 	andeq	r0, r2, r0, lsl #16
    1f0c:	58000100 	stmdapl	r0, {r8}
	...
    1f18:	000001f8 	strdeq	r0, [r0], -r8
    1f1c:	000001fc 	strdeq	r0, [r0], -ip
    1f20:	00530001 	subseq	r0, r3, r1
    1f24:	00000000 	andeq	r0, r0, r0
    1f28:	18000000 	stmdane	r0, {}	; <UNPREDICTABLE>
    1f2c:	d0000002 	andle	r0, r0, r2
    1f30:	01000002 	tsteq	r0, r2
    1f34:	00005400 	andeq	r5, r0, r0, lsl #8
    1f38:	00000000 	andeq	r0, r0, r0
    1f3c:	02180000 	andseq	r0, r8, #0
    1f40:	022c0000 	eoreq	r0, ip, #0
    1f44:	00010000 	andeq	r0, r1, r0
    1f48:	00000058 	andeq	r0, r0, r8, asr r0
    1f4c:	00000000 	andeq	r0, r0, r0
    1f50:	00021c00 	andeq	r1, r2, r0, lsl #24
    1f54:	00022000 	andeq	r2, r2, r0
    1f58:	53000100 	movwpl	r0, #256	; 0x100
	...
    1f64:	0000023c 	andeq	r0, r0, ip, lsr r2
    1f68:	000002d0 	ldrdeq	r0, [r0], -r0	; <UNPREDICTABLE>
    1f6c:	00540001 	subseq	r0, r4, r1
    1f70:	00000000 	andeq	r0, r0, r0
    1f74:	3c000000 	stccc	0, cr0, [r0], {-0}
    1f78:	50000002 	andpl	r0, r0, r2
    1f7c:	01000002 	tsteq	r0, r2
    1f80:	00005800 	andeq	r5, r0, r0, lsl #16
    1f84:	00000000 	andeq	r0, r0, r0
    1f88:	02400000 	subeq	r0, r0, #0
    1f8c:	02440000 	subeq	r0, r4, #0
    1f90:	00010000 	andeq	r0, r1, r0
    1f94:	00000053 	andeq	r0, r0, r3, asr r0
    1f98:	00000000 	andeq	r0, r0, r0
    1f9c:	00026000 	andeq	r6, r2, r0
    1fa0:	0002d000 	andeq	sp, r2, r0
    1fa4:	54000100 	strpl	r0, [r0], #-256	; 0x100
	...
    1fb0:	00000260 	andeq	r0, r0, r0, ror #4
    1fb4:	00000274 	andeq	r0, r0, r4, ror r2
    1fb8:	00580001 	subseq	r0, r8, r1
    1fbc:	00000000 	andeq	r0, r0, r0
    1fc0:	64000000 	strvs	r0, [r0], #-0
    1fc4:	68000002 	stmdavs	r0, {r1}
    1fc8:	01000002 	tsteq	r0, r2
    1fcc:	00005300 	andeq	r5, r0, r0, lsl #6
    1fd0:	00000000 	andeq	r0, r0, r0
    1fd4:	02840000 	addeq	r0, r4, #0
    1fd8:	02d00000 	sbcseq	r0, r0, #0
    1fdc:	00010000 	andeq	r0, r1, r0
    1fe0:	00000054 	andeq	r0, r0, r4, asr r0
    1fe4:	00000000 	andeq	r0, r0, r0
    1fe8:	00028400 	andeq	r8, r2, r0, lsl #8
    1fec:	00029800 	andeq	r9, r2, r0, lsl #16
    1ff0:	58000100 	stmdapl	r0, {r8}
	...
    1ffc:	00000288 	andeq	r0, r0, r8, lsl #5
    2000:	0000028c 	andeq	r0, r0, ip, lsl #5
    2004:	00530001 	subseq	r0, r3, r1
    2008:	00000000 	andeq	r0, r0, r0
    200c:	a8000000 	stmdage	r0, {}	; <UNPREDICTABLE>
    2010:	d0000002 	andle	r0, r0, r2
    2014:	01000002 	tsteq	r0, r2
    2018:	00005400 	andeq	r5, r0, r0, lsl #8
    201c:	00000000 	andeq	r0, r0, r0
    2020:	02ac0000 	adceq	r0, ip, #0
    2024:	02b00000 	adcseq	r0, r0, #0
    2028:	00010000 	andeq	r0, r1, r0
    202c:	00000053 	andeq	r0, r0, r3, asr r0
    2030:	00000000 	andeq	r0, r0, r0
    2034:	0002c800 	andeq	ip, r2, r0, lsl #16
    2038:	00030c00 	andeq	r0, r3, r0, lsl #24
    203c:	30000200 	andcc	r0, r0, r0, lsl #4
    2040:	0003149f 	muleq	r3, pc, r4	; <UNPREDICTABLE>
    2044:	00031c00 	andeq	r1, r3, r0, lsl #24
    2048:	30000200 	andcc	r0, r0, r0, lsl #4
    204c:	0000009f 	muleq	r0, pc, r0	; <UNPREDICTABLE>
    2050:	00000000 	andeq	r0, r0, r0
    2054:	0002c800 	andeq	ip, r2, r0, lsl #16
    2058:	00030c00 	andeq	r0, r3, r0, lsl #24
    205c:	55000100 	strpl	r0, [r0, #-256]	; 0x100
    2060:	00000314 	andeq	r0, r0, r4, lsl r3
    2064:	0000031c 	andeq	r0, r0, ip, lsl r3
    2068:	00550001 	subseq	r0, r5, r1
    206c:	00000000 	andeq	r0, r0, r0
    2070:	d0000000 	andle	r0, r0, r0
    2074:	0c000002 	stceq	0, cr0, [r0], {2}
    2078:	01000003 	tsteq	r0, r3
    207c:	03145400 	tsteq	r4, #0, 8
    2080:	031c0000 	tsteq	ip, #0
    2084:	00010000 	andeq	r0, r1, r0
    2088:	00000054 	andeq	r0, r0, r4, asr r0
    208c:	00000000 	andeq	r0, r0, r0
    2090:	00031c00 	andeq	r1, r3, r0, lsl #24
    2094:	00033c00 	andeq	r3, r3, r0, lsl #24
    2098:	50000100 	andpl	r0, r0, r0, lsl #2
    209c:	0000033c 	andeq	r0, r0, ip, lsr r3
    20a0:	00000350 	andeq	r0, r0, r0, asr r3
    20a4:	50580001 	subspl	r0, r8, r1
    20a8:	60000003 	andvs	r0, r0, r3
    20ac:	01000003 	tsteq	r0, r3
    20b0:	03605000 	cmneq	r0, #0
    20b4:	03a80000 			; <UNDEFINED> instruction: 0x03a80000
    20b8:	00010000 	andeq	r0, r1, r0
    20bc:	00000058 	andeq	r0, r0, r8, asr r0
    20c0:	00000000 	andeq	r0, r0, r0
    20c4:	00031c00 	andeq	r1, r3, r0, lsl #24
    20c8:	00034000 	andeq	r4, r3, r0
    20cc:	51000100 	mrspl	r0, (UNDEF: 16)
    20d0:	00000340 	andeq	r0, r0, r0, asr #6
    20d4:	00000350 	andeq	r0, r0, r0, asr r3
    20d8:	50560001 	subspl	r0, r6, r1
    20dc:	60000003 	andvs	r0, r0, r3
    20e0:	01000003 	tsteq	r0, r3
    20e4:	03605100 	cmneq	r0, #0, 2
    20e8:	03a80000 			; <UNDEFINED> instruction: 0x03a80000
    20ec:	00010000 	andeq	r0, r1, r0
    20f0:	00000056 	andeq	r0, r0, r6, asr r0
    20f4:	00000000 	andeq	r0, r0, r0
    20f8:	00031c00 	andeq	r1, r3, r0, lsl #24
    20fc:	00034400 	andeq	r4, r3, r0, lsl #8
    2100:	52000100 	andpl	r0, r0, #0, 2
    2104:	00000344 	andeq	r0, r0, r4, asr #6
    2108:	00000350 	andeq	r0, r0, r0, asr r3
    210c:	01f30004 	mvnseq	r0, r4
    2110:	03509f52 	cmpeq	r0, #328	; 0x148
    2114:	03600000 	cmneq	r0, #0
    2118:	00010000 	andeq	r0, r1, r0
    211c:	00036052 	andeq	r6, r3, r2, asr r0
    2120:	0003a800 	andeq	sl, r3, r0, lsl #16
    2124:	77000300 	strvc	r0, [r0, -r0, lsl #6]
    2128:	00009f01 	andeq	r9, r0, r1, lsl #30
    212c:	00000000 	andeq	r0, r0, r0
    2130:	031c0000 	tsteq	ip, #0
    2134:	03480000 	movteq	r0, #32768	; 0x8000
    2138:	00010000 	andeq	r0, r1, r0
    213c:	00034853 	andeq	r4, r3, r3, asr r8
    2140:	00035000 	andeq	r5, r3, r0
    2144:	f3000400 	vshl.u8	d0, d0, d0
    2148:	509f5301 	addspl	r5, pc, r1, lsl #6
    214c:	60000003 	andvs	r0, r0, r3
    2150:	01000003 	tsteq	r0, r3
    2154:	03605300 	cmneq	r0, #0, 6
    2158:	03a80000 			; <UNDEFINED> instruction: 0x03a80000
    215c:	00040000 	andeq	r0, r4, r0
    2160:	9f5301f3 	svcls	0x005301f3
	...
    216c:	00000358 	andeq	r0, r0, r8, asr r3
    2170:	00000360 	andeq	r0, r0, r0, ror #6
    2174:	9f300002 	svcls	0x00300002
    2178:	00000360 	andeq	r0, r0, r0, ror #6
    217c:	000003a8 	andeq	r0, r0, r8, lsr #7
    2180:	00540001 	subseq	r0, r4, r1
    2184:	00000000 	andeq	r0, r0, r0
    2188:	70000000 	andvc	r0, r0, r0
    218c:	80000003 	andhi	r0, r0, r3
    2190:	01000003 	tsteq	r0, r3
    2194:	00005000 	andeq	r5, r0, r0
    2198:	00000000 	andeq	r0, r0, r0
    219c:	03a80000 			; <UNDEFINED> instruction: 0x03a80000
    21a0:	03c40000 	biceq	r0, r4, #0
    21a4:	00010000 	andeq	r0, r1, r0
    21a8:	0003c450 	andeq	ip, r3, r0, asr r4
    21ac:	0003d800 	andeq	sp, r3, r0, lsl #16
    21b0:	57000100 	strpl	r0, [r0, -r0, lsl #2]
    21b4:	000003d8 	ldrdeq	r0, [r0], -r8
    21b8:	000003e8 	andeq	r0, r0, r8, ror #7
    21bc:	e8500001 	ldmda	r0, {r0}^
    21c0:	20000003 	andcs	r0, r0, r3
    21c4:	01000004 	tsteq	r0, r4
    21c8:	00005700 	andeq	r5, r0, r0, lsl #14
    21cc:	00000000 	andeq	r0, r0, r0
    21d0:	03a80000 			; <UNDEFINED> instruction: 0x03a80000
    21d4:	03c80000 	biceq	r0, r8, #0
    21d8:	00010000 	andeq	r0, r1, r0
    21dc:	0003c851 	andeq	ip, r3, r1, asr r8
    21e0:	0003d800 	andeq	sp, r3, r0, lsl #16
    21e4:	55000100 	strpl	r0, [r0, #-256]	; 0x100
    21e8:	000003d8 	ldrdeq	r0, [r0], -r8
    21ec:	000003e8 	andeq	r0, r0, r8, ror #7
    21f0:	e8510001 	ldmda	r1, {r0}^
    21f4:	20000003 	andcs	r0, r0, r3
    21f8:	01000004 	tsteq	r0, r4
    21fc:	00005500 	andeq	r5, r0, r0, lsl #10
    2200:	00000000 	andeq	r0, r0, r0
    2204:	03a80000 			; <UNDEFINED> instruction: 0x03a80000
    2208:	03cc0000 	biceq	r0, ip, #0
    220c:	00010000 	andeq	r0, r1, r0
    2210:	0003cc52 	andeq	ip, r3, r2, asr ip
    2214:	0003d800 	andeq	sp, r3, r0, lsl #16
    2218:	f3000400 	vshl.u8	d0, d0, d0
    221c:	d89f5201 	ldmle	pc, {r0, r9, ip, lr}	; <UNPREDICTABLE>
    2220:	e8000003 	stmda	r0, {r0, r1}
    2224:	01000003 	tsteq	r0, r3
    2228:	03e85200 	mvneq	r5, #0, 4
    222c:	04200000 	strteq	r0, [r0], #-0
    2230:	00030000 	andeq	r0, r3, r0
    2234:	009f0176 	addseq	r0, pc, r6, ror r1	; <UNPREDICTABLE>
    2238:	00000000 	andeq	r0, r0, r0
    223c:	a8000000 	stmdage	r0, {}	; <UNPREDICTABLE>
    2240:	d0000003 	andle	r0, r0, r3
    2244:	01000003 	tsteq	r0, r3
    2248:	03d05300 	bicseq	r5, r0, #0, 6
    224c:	03d80000 	bicseq	r0, r8, #0
    2250:	00010000 	andeq	r0, r1, r0
    2254:	0003d858 	andeq	sp, r3, r8, asr r8
    2258:	0003e800 	andeq	lr, r3, r0, lsl #16
    225c:	53000100 	movwpl	r0, #256	; 0x100
    2260:	000003e8 	andeq	r0, r0, r8, ror #7
    2264:	00000420 	andeq	r0, r0, r0, lsr #8
    2268:	00580001 	subseq	r0, r8, r1
    226c:	00000000 	andeq	r0, r0, r0
    2270:	e0000000 	and	r0, r0, r0
    2274:	e8000003 	stmda	r0, {r0, r1}
    2278:	02000003 	andeq	r0, r0, #3
    227c:	e89f3000 	ldm	pc, {ip, sp}	; <UNPREDICTABLE>
    2280:	20000003 	andcs	r0, r0, r3
    2284:	01000004 	tsteq	r0, r4
    2288:	00005400 	andeq	r5, r0, r0, lsl #8
    228c:	00000000 	andeq	r0, r0, r0
    2290:	04200000 	strteq	r0, [r0], #-0
    2294:	043f0000 	ldrteq	r0, [pc], #-0	; 229c <_start-0x5d64>
    2298:	00010000 	andeq	r0, r1, r0
    229c:	00043f51 	andeq	r3, r4, r1, asr pc
    22a0:	0004dc00 	andeq	sp, r4, r0, lsl #24
    22a4:	f3000400 	vshl.u8	d0, d0, d0
    22a8:	009f5101 	addseq	r5, pc, r1, lsl #2
    22ac:	00000000 	andeq	r0, r0, r0
    22b0:	20000000 	andcs	r0, r0, r0
    22b4:	3f000004 	svccc	0x00000004
    22b8:	01000004 	tsteq	r0, r4
    22bc:	043f5200 	ldrteq	r5, [pc], #-512	; 22c4 <_start-0x5d3c>
    22c0:	04dc0000 	ldrbeq	r0, [ip], #0
    22c4:	00040000 	andeq	r0, r4, r0
    22c8:	9f5201f3 	svcls	0x005201f3
	...
    22d4:	00000420 	andeq	r0, r0, r0, lsr #8
    22d8:	0000043f 	andeq	r0, r0, pc, lsr r4
    22dc:	3f530001 	svccc	0x00530001
    22e0:	dc000004 	stcle	0, cr0, [r0], {4}
    22e4:	01000004 	tsteq	r0, r4
    22e8:	00005500 	andeq	r5, r0, r0, lsl #10
    22ec:	00000000 	andeq	r0, r0, r0
    22f0:	04600000 	strbteq	r0, [r0], #-0
    22f4:	04a80000 	strteq	r0, [r8], #0
    22f8:	00010000 	andeq	r0, r1, r0
    22fc:	0004a852 	andeq	sl, r4, r2, asr r8
    2300:	0004b400 	andeq	fp, r4, r0, lsl #8
    2304:	75000600 	strvc	r0, [r0, #-1536]	; 0x600
    2308:	1e007700 	cdpne	7, 0, cr7, cr0, cr0, {0}
    230c:	0004b49f 	muleq	r4, pc, r4	; <UNPREDICTABLE>
    2310:	0004dc00 	andeq	sp, r4, r0, lsl #24
    2314:	52000100 	andpl	r0, r0, #0, 2
	...
    2320:	000004dc 	ldrdeq	r0, [r0], -ip
    2324:	000004e7 	andeq	r0, r0, r7, ror #9
    2328:	e7500001 	ldrb	r0, [r0, -r1]
    232c:	14000004 	strne	r0, [r0], #-4
    2330:	04000005 	streq	r0, [r0], #-5
    2334:	5001f300 	andpl	pc, r1, r0, lsl #6
    2338:	0000009f 	muleq	r0, pc, r0	; <UNPREDICTABLE>
    233c:	00000000 	andeq	r0, r0, r0
    2340:	0004e800 	andeq	lr, r4, r0, lsl #16
    2344:	0004f400 	andeq	pc, r4, r0, lsl #8
    2348:	50000100 	andpl	r0, r0, r0, lsl #2
	...
    2354:	00000514 	andeq	r0, r0, r4, lsl r5
    2358:	00000524 	andeq	r0, r0, r4, lsr #10
    235c:	24500001 	ldrbcs	r0, [r0], #-1
    2360:	40000005 	andmi	r0, r0, r5
    2364:	01000005 	tsteq	r0, r5
    2368:	00005500 	andeq	r5, r0, r0, lsl #10
    236c:	00000000 	andeq	r0, r0, r0
    2370:	05140000 	ldreq	r0, [r4, #-0]
    2374:	05240000 	streq	r0, [r4, #-0]!
    2378:	00010000 	andeq	r0, r1, r0
    237c:	00052451 	andeq	r2, r5, r1, asr r4
    2380:	00054000 	andeq	r4, r5, r0
    2384:	54000100 	strpl	r0, [r0], #-256	; 0x100
	...
    2390:	00000540 	andeq	r0, r0, r0, asr #10
    2394:	0000055c 	andeq	r0, r0, ip, asr r5
    2398:	5c500001 	mrrcpl	0, 0, r0, r0, cr1	; <UNPREDICTABLE>
    239c:	a8000005 	stmdage	r0, {r0, r2}
    23a0:	01000005 	tsteq	r0, r5
    23a4:	05a85500 	streq	r5, [r8, #1280]!	; 0x500
    23a8:	05c00000 	strbeq	r0, [r0]
    23ac:	00040000 	andeq	r0, r4, r0
    23b0:	9f5001f3 	svcls	0x005001f3
	...
    23bc:	0000056c 	andeq	r0, r0, ip, ror #10
    23c0:	0000057c 	andeq	r0, r0, ip, ror r5
    23c4:	7c500001 	mrrcvc	0, 0, r0, r0, cr1	; <UNPREDICTABLE>
    23c8:	90000005 	andls	r0, r0, r5
    23cc:	01000005 	tsteq	r0, r5
    23d0:	05905400 	ldreq	r5, [r0, #1024]	; 0x400
    23d4:	05940000 	ldreq	r0, [r4]
    23d8:	00010000 	andeq	r0, r1, r0
    23dc:	00059450 	andeq	r9, r5, r0, asr r4
    23e0:	0005a800 	andeq	sl, r5, r0, lsl #16
    23e4:	54000100 	strpl	r0, [r0], #-256	; 0x100
    23e8:	000005a8 	andeq	r0, r0, r8, lsr #11
    23ec:	000005c0 	andeq	r0, r0, r0, asr #11
    23f0:	00500001 	subseq	r0, r0, r1
    23f4:	00000000 	andeq	r0, r0, r0
    23f8:	c0000000 	andgt	r0, r0, r0
    23fc:	d3000005 	movwle	r0, #5
    2400:	01000005 	tsteq	r0, r5
    2404:	05d35000 	ldrbeq	r5, [r3]
    2408:	06080000 	streq	r0, [r8], -r0
    240c:	00040000 	andeq	r0, r4, r0
    2410:	9f5001f3 	svcls	0x005001f3
	...
    241c:	000005c0 	andeq	r0, r0, r0, asr #11
    2420:	000005d3 	ldrdeq	r0, [r0], -r3
    2424:	d3510001 	cmple	r1, #1
    2428:	08000005 	stmdaeq	r0, {r0, r2}
    242c:	04000006 	streq	r0, [r0], #-6
    2430:	5101f300 	mrspl	pc, SP_irq	; <UNPREDICTABLE>
    2434:	0000009f 	muleq	r0, pc, r0	; <UNPREDICTABLE>
    2438:	00000000 	andeq	r0, r0, r0
    243c:	0005c000 	andeq	ip, r5, r0
    2440:	0005d300 	andeq	sp, r5, r0, lsl #6
    2444:	52000100 	andpl	r0, r0, #0, 2
    2448:	000005d3 	ldrdeq	r0, [r0], -r3
    244c:	00000608 	andeq	r0, r0, r8, lsl #12
    2450:	01f30004 	mvnseq	r0, r4
    2454:	00009f52 	andeq	r9, r0, r2, asr pc
    2458:	00000000 	andeq	r0, r0, r0
    245c:	05c00000 	strbeq	r0, [r0]
    2460:	05d30000 	ldrbeq	r0, [r3]
    2464:	00010000 	andeq	r0, r1, r0
    2468:	0005d353 	andeq	sp, r5, r3, asr r3
    246c:	00060800 	andeq	r0, r6, r0, lsl #16
    2470:	f3000400 	vshl.u8	d0, d0, d0
    2474:	009f5301 	addseq	r5, pc, r1, lsl #6
    2478:	00000000 	andeq	r0, r0, r0
    247c:	d4000000 	strle	r0, [r0], #-0
    2480:	e0000005 	and	r0, r0, r5
    2484:	01000005 	tsteq	r0, r5
    2488:	05f45000 	ldrbeq	r5, [r4, #0]!
    248c:	06080000 	streq	r0, [r8], -r0
    2490:	00010000 	andeq	r0, r1, r0
    2494:	00000050 	andeq	r0, r0, r0, asr r0
    2498:	00000000 	andeq	r0, r0, r0
    249c:	0000fc00 	andeq	pc, r0, r0, lsl #24
    24a0:	00010400 	andeq	r0, r1, r0, lsl #8
    24a4:	50000100 	andpl	r0, r0, r0, lsl #2
    24a8:	00000104 	andeq	r0, r0, r4, lsl #2
    24ac:	00000128 	andeq	r0, r0, r8, lsr #2
    24b0:	00540001 	subseq	r0, r4, r1
    24b4:	00000000 	andeq	r0, r0, r0
    24b8:	30000000 	andcc	r0, r0, r0
    24bc:	3c000000 	stccc	0, cr0, [r0], {-0}
    24c0:	02000000 	andeq	r0, r0, #0
    24c4:	3c9f3000 	ldccc	0, cr3, [pc], {0}
    24c8:	68000000 	stmdavs	r0, {}	; <UNPREDICTABLE>
    24cc:	01000000 	mrseq	r0, (UNDEF: 0)
    24d0:	00005300 	andeq	r5, r0, r0, lsl #6
    24d4:	00000000 	andeq	r0, r0, r0
    24d8:	00680000 	rsbeq	r0, r8, r0
    24dc:	00800000 	addeq	r0, r0, r0
    24e0:	00010000 	andeq	r0, r1, r0
    24e4:	00008050 	andeq	r8, r0, r0, asr r0
    24e8:	00008f00 	andeq	r8, r0, r0, lsl #30
    24ec:	91000200 	mrsls	r0, R8_usr
    24f0:	00008f6c 	andeq	r8, r0, ip, ror #30
    24f4:	0000a400 	andeq	sl, r0, r0, lsl #8
    24f8:	f3000400 	vshl.u8	d0, d0, d0
    24fc:	009f5001 	addseq	r5, pc, r1
    2500:	00000000 	andeq	r0, r0, r0
    2504:	a4000000 	strge	r0, [r0], #-0
    2508:	bc000000 	stclt	0, cr0, [r0], {-0}
    250c:	01000000 	mrseq	r0, (UNDEF: 0)
    2510:	00bc5000 	adcseq	r5, ip, r0
    2514:	00cb0000 	sbceq	r0, fp, r0
    2518:	00020000 	andeq	r0, r2, r0
    251c:	00cb6c91 	smulleq	r6, fp, r1, ip
    2520:	00e00000 	rsceq	r0, r0, r0
    2524:	00040000 	andeq	r0, r4, r0
    2528:	9f5001f3 	svcls	0x005001f3
	...
    2534:	000000e0 	andeq	r0, r0, r0, ror #1
    2538:	000000f8 	strdeq	r0, [r0], -r8
    253c:	f8500001 			; <UNDEFINED> instruction: 0xf8500001
    2540:	07000000 	streq	r0, [r0, -r0]
    2544:	02000001 	andeq	r0, r0, #1
    2548:	076c9100 	strbeq	r9, [ip, -r0, lsl #2]!
    254c:	1c000001 	stcne	0, cr0, [r0], {1}
    2550:	04000001 	streq	r0, [r0], #-1
    2554:	5001f300 	andpl	pc, r1, r0, lsl #6
    2558:	0000009f 	muleq	r0, pc, r0	; <UNPREDICTABLE>
    255c:	00000000 	andeq	r0, r0, r0
    2560:	00011c00 	andeq	r1, r1, r0, lsl #24
    2564:	00013400 	andeq	r3, r1, r0, lsl #8
    2568:	50000100 	andpl	r0, r0, r0, lsl #2
    256c:	00000134 	andeq	r0, r0, r4, lsr r1
    2570:	00000143 	andeq	r0, r0, r3, asr #2
    2574:	6c910002 	ldcvs	0, cr0, [r1], {2}
    2578:	00000143 	andeq	r0, r0, r3, asr #2
    257c:	00000158 	andeq	r0, r0, r8, asr r1
    2580:	01f30004 	mvnseq	r0, r4
    2584:	00009f50 	andeq	r9, r0, r0, asr pc
    2588:	00000000 	andeq	r0, r0, r0
    258c:	01580000 	cmpeq	r8, r0
    2590:	01700000 	cmneq	r0, r0
    2594:	00010000 	andeq	r0, r1, r0
    2598:	00017050 	andeq	r7, r1, r0, asr r0
    259c:	00017f00 	andeq	r7, r1, r0, lsl #30
    25a0:	91000200 	mrsls	r0, R8_usr
    25a4:	00017f6c 	andeq	r7, r1, ip, ror #30
    25a8:	00019400 	andeq	r9, r1, r0, lsl #8
    25ac:	f3000400 	vshl.u8	d0, d0, d0
    25b0:	009f5001 	addseq	r5, pc, r1
    25b4:	00000000 	andeq	r0, r0, r0
    25b8:	94000000 	strls	r0, [r0], #-0
    25bc:	ac000001 	stcge	0, cr0, [r0], {1}
    25c0:	01000001 	tsteq	r0, r1
    25c4:	01ac5000 			; <UNDEFINED> instruction: 0x01ac5000
    25c8:	01bb0000 			; <UNDEFINED> instruction: 0x01bb0000
    25cc:	00020000 	andeq	r0, r2, r0
    25d0:	01bb6c91 			; <UNDEFINED> instruction: 0x01bb6c91
    25d4:	01d00000 	bicseq	r0, r0, r0
    25d8:	00040000 	andeq	r0, r4, r0
    25dc:	9f5001f3 	svcls	0x005001f3
	...
    25ec:	0000000b 	andeq	r0, r0, fp
    25f0:	0b500001 	bleq	14025fc <__bss_end__+0x13f3cbc>
    25f4:	14000000 	strne	r0, [r0], #-0
    25f8:	01000000 	mrseq	r0, (UNDEF: 0)
    25fc:	00005400 	andeq	r5, r0, r0, lsl #8
    2600:	00000000 	andeq	r0, r0, r0
	...

Disassembly of section .debug_aranges:

00000000 <.debug_aranges>:
   0:	0000001c 	andeq	r0, r0, ip, lsl r0
   4:	00000002 	andeq	r0, r0, r2
   8:	00040000 	andeq	r0, r4, r0
   c:	00000000 	andeq	r0, r0, r0
  10:	00008010 	andeq	r8, r0, r0, lsl r0
  14:	00000760 	andeq	r0, r0, r0, ror #14
	...
  20:	0000001c 	andeq	r0, r0, ip, lsl r0
  24:	10810002 	addne	r0, r1, r2
  28:	00040000 	andeq	r0, r4, r0
  2c:	00000000 	andeq	r0, r0, r0
  30:	00008770 	andeq	r8, r0, r0, ror r7
  34:	00000020 	andeq	r0, r0, r0, lsr #32
	...
  40:	0000001c 	andeq	r0, r0, ip, lsl r0
  44:	11600002 	cmnne	r0, r2
  48:	00040000 	andeq	r0, r4, r0
  4c:	00000000 	andeq	r0, r0, r0
  50:	00008790 	muleq	r0, r0, r7
  54:	00000058 	andeq	r0, r0, r8, asr r0
	...
  60:	0000001c 	andeq	r0, r0, ip, lsl r0
  64:	12f50002 	rscsne	r0, r5, #2
  68:	00040000 	andeq	r0, r4, r0
  6c:	00000000 	andeq	r0, r0, r0
  70:	000087e8 	andeq	r8, r0, r8, ror #15
  74:	00000034 	andeq	r0, r0, r4, lsr r0
	...
  80:	0000001c 	andeq	r0, r0, ip, lsl r0
  84:	13e70002 	mvnne	r0, #2
  88:	00040000 	andeq	r0, r4, r0
  8c:	00000000 	andeq	r0, r0, r0
  90:	0000881c 	andeq	r8, r0, ip, lsl r8
  94:	000004f0 	strdeq	r0, [r0], -r0	; <UNPREDICTABLE>
	...
  a0:	0000001c 	andeq	r0, r0, ip, lsl r0
  a4:	1a3f0002 	bne	fc00b4 <__bss_end__+0xfb1774>
  a8:	00040000 	andeq	r0, r4, r0
  ac:	00000000 	andeq	r0, r0, r0
  b0:	00008d0c 	andeq	r8, r0, ip, lsl #26
  b4:	00000020 	andeq	r0, r0, r0, lsr #32
	...
  c0:	0000001c 	andeq	r0, r0, ip, lsl r0
  c4:	1afb0002 	bne	ffec00d4 <__bss_end__+0xffeb1794>
  c8:	00040000 	andeq	r0, r4, r0
  cc:	00000000 	andeq	r0, r0, r0
  d0:	00008d2c 	andeq	r8, r0, ip, lsr #26
  d4:	00000028 	andeq	r0, r0, r8, lsr #32
	...
  e0:	0000001c 	andeq	r0, r0, ip, lsl r0
  e4:	1bfe0002 	blne	fff800f4 <__bss_end__+0xfff717b4>
  e8:	00040000 	andeq	r0, r4, r0
  ec:	00000000 	andeq	r0, r0, r0
  f0:	00008d54 	andeq	r8, r0, r4, asr sp
  f4:	000000b0 	strheq	r0, [r0], -r0	; <UNPREDICTABLE>
	...
 100:	0000001c 	andeq	r0, r0, ip, lsl r0
 104:	1eeb0002 	cdpne	0, 14, cr0, cr11, cr2, {0}
 108:	00040000 	andeq	r0, r4, r0
 10c:	00000000 	andeq	r0, r0, r0
 110:	00008e04 	andeq	r8, r0, r4, lsl #28
 114:	00000074 	andeq	r0, r0, r4, ror r0
	...
 120:	0000001c 	andeq	r0, r0, ip, lsl r0
 124:	209c0002 	addscs	r0, ip, r2
 128:	00040000 	andeq	r0, r4, r0
 12c:	00000000 	andeq	r0, r0, r0
 130:	00008e78 	andeq	r8, r0, r8, ror lr
 134:	00000088 	andeq	r0, r0, r8, lsl #1
	...
 140:	0000001c 	andeq	r0, r0, ip, lsl r0
 144:	22780002 	rsbscs	r0, r8, #2
 148:	00040000 	andeq	r0, r4, r0
 14c:	00000000 	andeq	r0, r0, r0
 150:	00008f00 	andeq	r8, r0, r0, lsl #30
 154:	000005bc 			; <UNDEFINED> instruction: 0x000005bc
	...
 160:	0000001c 	andeq	r0, r0, ip, lsl r0
 164:	2b4b0002 	blcs	12c0174 <__bss_end__+0x12b1834>
 168:	00040000 	andeq	r0, r4, r0
 16c:	00000000 	andeq	r0, r0, r0
 170:	000094bc 			; <UNDEFINED> instruction: 0x000094bc
 174:	00000608 	andeq	r0, r0, r8, lsl #12
	...
 180:	0000001c 	andeq	r0, r0, ip, lsl r0
 184:	3cdc0002 	ldclcc	0, cr0, [ip], {2}
 188:	00040000 	andeq	r0, r4, r0
 18c:	00000000 	andeq	r0, r0, r0
 190:	00009ac4 	andeq	r9, r0, r4, asr #21
 194:	00000154 	andeq	r0, r0, r4, asr r1
	...
 1a0:	0000001c 	andeq	r0, r0, ip, lsl r0
 1a4:	40df0002 	sbcsmi	r0, pc, r2
 1a8:	00040000 	andeq	r0, r4, r0
 1ac:	00000000 	andeq	r0, r0, r0
 1b0:	00009c18 	andeq	r9, r0, r8, lsl ip
 1b4:	000001d0 	ldrdeq	r0, [r0], -r0	; <UNPREDICTABLE>
	...
 1c0:	0000001c 	andeq	r0, r0, ip, lsl r0
 1c4:	46390002 	ldrtmi	r0, [r9], -r2
 1c8:	00040000 	andeq	r0, r4, r0
 1cc:	00000000 	andeq	r0, r0, r0
 1d0:	00009f24 	andeq	r9, r0, r4, lsr #30
 1d4:	00000014 	andeq	r0, r0, r4, lsl r0
	...
 1e0:	0000001c 	andeq	r0, r0, ip, lsl r0
 1e4:	471d0002 	ldrmi	r0, [sp, -r2]
 1e8:	00040000 	andeq	r0, r4, r0
 1ec:	00000000 	andeq	r0, r0, r0
 1f0:	00009f38 	andeq	r9, r0, r8, lsr pc
 1f4:	00000050 	andeq	r0, r0, r0, asr r0
	...

Disassembly of section .debug_ranges:

00000000 <.debug_ranges>:
   0:	000000ec 	andeq	r0, r0, ip, ror #1
   4:	0000012c 	andeq	r0, r0, ip, lsr #2
   8:	00000130 	andeq	r0, r0, r0, lsr r1
   c:	00000134 	andeq	r0, r0, r4, lsr r1
	...
  18:	00000378 	andeq	r0, r0, r8, ror r3
  1c:	0000038c 	andeq	r0, r0, ip, lsl #7
  20:	000003a4 	andeq	r0, r0, r4, lsr #7
  24:	000003e0 	andeq	r0, r0, r0, ror #7
	...
  30:	00000378 	andeq	r0, r0, r8, ror r3
  34:	00000384 	andeq	r0, r0, r4, lsl #7
  38:	000003a4 	andeq	r0, r0, r4, lsr #7
  3c:	000003ac 	andeq	r0, r0, ip, lsr #7
	...
  48:	0000049c 	muleq	r0, ip, r4
  4c:	000004b4 			; <UNDEFINED> instruction: 0x000004b4
  50:	000004c0 	andeq	r0, r0, r0, asr #9
  54:	000004fc 	strdeq	r0, [r0], -ip
	...
  60:	0000049c 	muleq	r0, ip, r4
  64:	000004a8 	andeq	r0, r0, r8, lsr #9
  68:	000004c0 	andeq	r0, r0, r0, asr #9
  6c:	000004c8 	andeq	r0, r0, r8, asr #9
	...
  78:	00008e04 	andeq	r8, r0, r4, lsl #28
  7c:	00008e78 	andeq	r8, r0, r8, ror lr
	...

Disassembly of section .debug_line:

00000000 <.debug_line>:
       0:	00000407 	andeq	r0, r0, r7, lsl #8
       4:	02670002 	rsbeq	r0, r7, #2
       8:	01020000 	mrseq	r0, (UNDEF: 2)
       c:	000d0efb 	strdeq	r0, [sp], -fp
      10:	01010101 	tsteq	r1, r1, lsl #2
      14:	01000000 	mrseq	r0, (UNDEF: 0)
      18:	2f010000 	svccs	0x00010000
      1c:	72657355 	rsbvc	r7, r5, #1409286145	; 0x54000001
      20:	72622f73 	rsbvc	r2, r2, #460	; 0x1cc
      24:	6a6e6169 	bvs	1b985d0 <__bss_end__+0x1b89c90>
      28:	442f6e75 	strtmi	r6, [pc], #-3701	; 30 <_start-0x7fd0>
      2c:	746b7365 	strbtvc	r7, [fp], #-869	; 0x365
      30:	732f706f 	teqvc	pc, #111	; 0x6f
      34:	6f6f6863 	svcvs	0x006f6863
      38:	69572f6c 	ldmdbvs	r7, {r2, r3, r5, r6, r8, r9, sl, fp, sp}^
      3c:	7265746e 	rsbvc	r7, r5, #1845493760	; 0x6e000000
      40:	30323931 	eorscc	r3, r2, r1, lsr r9
      44:	3153432f 	cmpcc	r3, pc, lsr #6
      48:	2f453034 	svccs	0x00453034
      4c:	34317363 	ldrtcc	r7, [r1], #-867	; 0x363
      50:	322d6530 	eorcc	r6, sp, #48, 10	; 0xc000000
      54:	6e697730 	mcrvs	7, 3, r7, cr9, cr0, {1}
      58:	62696c2f 	rsbvs	r6, r9, #12032	; 0x2f00
      5c:	6c2f6970 	stcvs	9, cr6, [pc], #-448	; fffffea4 <__bss_end__+0xffff1564>
      60:	00636269 	rsbeq	r6, r3, r9, ror #4
      64:	7273752f 	rsbsvc	r7, r3, #197132288	; 0xbc00000
      68:	636f6c2f 	cmnvs	pc, #12032	; 0x2f00
      6c:	432f6c61 	teqmi	pc, #24832	; 0x6100
      70:	616c6c65 	cmnvs	ip, r5, ror #24
      74:	72612f72 	rsbvc	r2, r1, #456	; 0x1c8
      78:	6f6e2d6d 	svcvs	0x006e2d6d
      7c:	652d656e 	strvs	r6, [sp, #-1390]!	; 0x56e
      80:	2f696261 	svccs	0x00696261
      84:	2e382e34 	mrccs	14, 1, r2, cr8, cr4, {1}
      88:	73632d33 	cmnvc	r3, #3264	; 0xcc0
      8c:	65303731 	ldrvs	r3, [r0, #-1841]!	; 0x731
      90:	62696c2f 	rsbvs	r6, r9, #12032	; 0x2f00
      94:	6363672f 	cmnvs	r3, #12320768	; 0xbc0000
      98:	6d72612f 	ldfvse	f6, [r2, #-188]!	; 0xffffff44
      9c:	6e6f6e2d 	cdpvs	14, 6, cr6, cr15, cr13, {1}
      a0:	61652d65 	cmnvs	r5, r5, ror #26
      a4:	342f6962 	strtcc	r6, [pc], #-2402	; ac <_start-0x7f54>
      a8:	332e382e 	teqcc	lr, #3014656	; 0x2e0000
      ac:	636e692f 	cmnvs	lr, #770048	; 0xbc000
      b0:	6564756c 	strbvs	r7, [r4, #-1388]!	; 0x56c
      b4:	73552f00 	cmpvc	r5, #0, 30
      b8:	2f737265 	svccs	0x00737265
      bc:	61697262 	cmnvs	r9, r2, ror #4
      c0:	6e756a6e 	vsubvs.f32	s13, s10, s29
      c4:	7365442f 	cmnvc	r5, #788529152	; 0x2f000000
      c8:	706f746b 	rsbvc	r7, pc, fp, ror #8
      cc:	6863732f 	stmdavs	r3!, {r0, r1, r2, r3, r5, r8, r9, ip, sp, lr}^
      d0:	2f6c6f6f 	svccs	0x006c6f6f
      d4:	746e6957 	strbtvc	r6, [lr], #-2391	; 0x957
      d8:	39317265 	ldmdbcc	r1!, {r0, r2, r5, r6, r9, ip, sp, lr}
      dc:	432f3032 	teqmi	pc, #50	; 0x32
      e0:	30343153 	eorscc	r3, r4, r3, asr r1
      e4:	73632f45 	cmnvc	r3, #276	; 0x114
      e8:	65303431 	ldrvs	r3, [r0, #-1073]!	; 0x431
      ec:	7730322d 	ldrvc	r3, [r0, -sp, lsr #4]!
      f0:	6c2f6e69 	stcvs	14, cr6, [pc], #-420	; ffffff54 <__bss_end__+0xffff1614>
      f4:	69706269 	ldmdbvs	r0!, {r0, r3, r5, r6, r9, sp, lr}^
      f8:	3173632f 	cmncc	r3, pc, lsr #6
      fc:	2d653034 	stclcs	0, cr3, [r5, #-208]!	; 0xffffff30
     100:	00637273 	rsbeq	r7, r3, r3, ror r2
     104:	6573552f 	ldrbvs	r5, [r3, #-1327]!	; 0x52f
     108:	622f7372 	eorvs	r7, pc, #-939524095	; 0xc8000001
     10c:	6e616972 	mcrvs	9, 3, r6, cr1, cr2, {3}
     110:	2f6e756a 	svccs	0x006e756a
     114:	6b736544 	blvs	1cd962c <__bss_end__+0x1ccacec>
     118:	2f706f74 	svccs	0x00706f74
     11c:	6f686373 	svcvs	0x00686373
     120:	572f6c6f 	strpl	r6, [pc, -pc, ror #24]!
     124:	65746e69 	ldrbvs	r6, [r4, #-3689]!	; 0xe69
     128:	32393172 	eorscc	r3, r9, #-2147483620	; 0x8000001c
     12c:	53432f30 	movtpl	r2, #16176	; 0x3f30
     130:	45303431 	ldrmi	r3, [r0, #-1073]!	; 0x431
     134:	3173632f 	cmncc	r3, pc, lsr #6
     138:	2d653034 	stclcs	0, cr3, [r5, #-208]!	; 0xffffff30
     13c:	69773032 	ldmdbvs	r7!, {r1, r4, r5, ip, sp}^
     140:	696c2f6e 	stmdbvs	ip!, {r1, r2, r3, r5, r6, r8, r9, sl, fp, sp}^
     144:	2f697062 	svccs	0x00697062
     148:	34317363 	ldrtcc	r7, [r1], #-867	; 0x363
     14c:	692d6530 	pushvs	{r4, r5, r8, sl, sp, lr}
     150:	7265746e 	rsbvc	r7, r5, #1845493760	; 0x6e000000
     154:	74707572 	ldrbtvc	r7, [r0], #-1394	; 0x572
     158:	73752f00 	cmnvc	r5, #0, 30
     15c:	6f6c2f72 	svcvs	0x006c2f72
     160:	2f6c6163 	svccs	0x006c6163
     164:	6c6c6543 	cfstr64vs	mvdx6, [ip], #-268	; 0xfffffef4
     168:	612f7261 	teqvs	pc, r1, ror #4
     16c:	6e2d6d72 	mcrvs	13, 1, r6, cr13, cr2, {3}
     170:	2d656e6f 	stclcs	14, cr6, [r5, #-444]!	; 0xfffffe44
     174:	69626165 	stmdbvs	r2!, {r0, r2, r5, r6, r8, sp, lr}^
     178:	382e342f 	stmdacc	lr!, {r0, r1, r2, r3, r5, sl, ip, sp}
     17c:	632d332e 	teqvs	sp, #-1207959552	; 0xb8000000
     180:	30373173 	eorscc	r3, r7, r3, ror r1
     184:	72612f65 	rsbvc	r2, r1, #404	; 0x194
     188:	6f6e2d6d 	svcvs	0x006e2d6d
     18c:	652d656e 	strvs	r6, [sp, #-1390]!	; 0x56e
     190:	2f696261 	svccs	0x00696261
     194:	6c636e69 	stclvs	14, cr6, [r3], #-420	; 0xfffffe5c
     198:	00656475 	rsbeq	r6, r5, r5, ror r4
     19c:	6573552f 	ldrbvs	r5, [r3, #-1327]!	; 0x52f
     1a0:	622f7372 	eorvs	r7, pc, #-939524095	; 0xc8000001
     1a4:	6e616972 	mcrvs	9, 3, r6, cr1, cr2, {3}
     1a8:	2f6e756a 	svccs	0x006e756a
     1ac:	6b736544 	blvs	1cd96c4 <__bss_end__+0x1ccad84>
     1b0:	2f706f74 	svccs	0x00706f74
     1b4:	6f686373 	svcvs	0x00686373
     1b8:	572f6c6f 	strpl	r6, [pc, -pc, ror #24]!
     1bc:	65746e69 	ldrbvs	r6, [r4, #-3689]!	; 0xe69
     1c0:	32393172 	eorscc	r3, r9, #-2147483620	; 0x8000001c
     1c4:	53432f30 	movtpl	r2, #16176	; 0x3f30
     1c8:	45303431 	ldrmi	r3, [r0, #-1073]!	; 0x431
     1cc:	3173632f 	cmncc	r3, pc, lsr #6
     1d0:	2d653034 	stclcs	0, cr3, [r5, #-208]!	; 0xffffff30
     1d4:	69773032 	ldmdbvs	r7!, {r1, r4, r5, ip, sp}^
     1d8:	696c2f6e 	stmdbvs	ip!, {r1, r2, r3, r5, r6, r8, r9, sl, fp, sp}^
     1dc:	00697062 	rsbeq	r7, r9, r2, rrx
     1e0:	72696300 	rsbvc	r6, r9, #0, 6
     1e4:	616c7563 	cmnvs	ip, r3, ror #10
     1e8:	00682e72 	rsbeq	r2, r8, r2, ror lr
     1ec:	31000001 	tstcc	r0, r1
     1f0:	6970672d 	ldmdbvs	r0!, {r0, r2, r3, r5, r8, r9, sl, sp, lr}^
     1f4:	6e692d6f 	cdpvs	13, 6, cr2, cr9, cr15, {3}
     1f8:	78652d74 	stmdavc	r5!, {r2, r4, r5, r6, r8, sl, fp, sp}^
     1fc:	0000632e 	andeq	r6, r0, lr, lsr #6
     200:	74730000 	ldrbtvc	r0, [r3], #-0
     204:	66656464 	strbtvs	r6, [r5], -r4, ror #8
     208:	0200682e 	andeq	r6, r0, #3014656	; 0x2e0000
     20c:	74730000 	ldrbtvc	r0, [r3], #-0
     210:	746e6964 	strbtvc	r6, [lr], #-2404	; 0x964
     214:	6363672d 	cmnvs	r3, #11796480	; 0xb40000
     218:	0200682e 	andeq	r6, r0, #3014656	; 0x2e0000
     21c:	70670000 	rsbvc	r0, r7, r0
     220:	682e6f69 	stmdavs	lr!, {r0, r3, r5, r6, r8, r9, sl, fp, sp, lr}
     224:	00000300 	andeq	r0, r0, r0, lsl #6
     228:	2d697072 	stclcs	0, cr7, [r9, #-456]!	; 0xfffffe38
     22c:	746d7261 	strbtvc	r7, [sp], #-609	; 0x261
     230:	72656d69 	rsbvc	r6, r5, #6720	; 0x1a40
     234:	0400682e 	streq	r6, [r0], #-2094	; 0x82e
     238:	77730000 	ldrbvc	r0, [r3, -r0]!
     23c:	7261752d 	rsbvc	r7, r1, #188743680	; 0xb400000
     240:	00682e74 	rsbeq	r2, r8, r4, ror lr
     244:	73000003 	movwvc	r0, #3
     248:	6e697274 	mcrvs	2, 3, r7, cr9, cr4, {3}
     24c:	00682e67 	rsbeq	r2, r8, r7, ror #28
     250:	72000005 	andvc	r0, r0, #5
     254:	682e6970 	stmdavs	lr!, {r4, r5, r6, r8, fp, sp, lr}
     258:	00000600 	andeq	r0, r0, r0, lsl #12
     25c:	2d697072 	stclcs	0, cr7, [r9, #-456]!	; 0xfffffe38
     260:	65746e69 	ldrbvs	r6, [r4, #-3689]!	; 0xe69
     264:	70757272 	rsbsvc	r7, r5, r2, ror r2
     268:	682e7374 	stmdavs	lr!, {r2, r4, r5, r6, r8, r9, ip, sp, lr}
     26c:	00000400 	andeq	r0, r0, r0, lsl #8
     270:	02050000 	andeq	r0, r5, #0
     274:	00008010 	andeq	r8, r0, r0, lsl r0
     278:	01019803 	tsteq	r1, r3, lsl #16
     27c:	9f676767 	svcls	0x00676767
     280:	7f9b034b 	svcvc	0x009b034b
     284:	00e603ba 	strhteq	r0, [r6], #58	; 0x3a
     288:	0402004a 	streq	r0, [r2], #-74	; 0x4a
     28c:	064a0601 	strbeq	r0, [sl], -r1, lsl #12
     290:	ba7f9d03 	blt	1fe76a4 <__bss_end__+0x1fd8d64>
     294:	ba00e403 	blt	392a8 <__bss_end__+0x2a968>
     298:	01040200 	mrseq	r0, R12_usr
     29c:	03064a06 	movweq	r4, #27142	; 0x6a06
     2a0:	03ba7f9e 			; <UNDEFINED> instruction: 0x03ba7f9e
     2a4:	009e00e3 	addseq	r0, lr, r3, ror #1
     2a8:	06010402 	streq	r0, [r1], -r2, lsl #8
     2ac:	9803064a 	stmdals	r3, {r1, r3, r6, r9, sl}
     2b0:	0a03ba7f 	beq	eecb4 <__bss_end__+0xe0374>
     2b4:	4b4b4c82 	blmi	12d34c4 <__bss_end__+0x12c4b84>
     2b8:	00da0383 	sbcseq	r0, sl, r3, lsl #7
     2bc:	7fa2034a 	svcvc	0x00a2034a
     2c0:	00df032e 	sbcseq	r0, pc, lr, lsr #6
     2c4:	0402002e 	streq	r0, [r2], #-46	; 0x2e
     2c8:	664a0601 	strbvs	r0, [sl], -r1, lsl #12
     2cc:	04040200 	streq	r0, [r4], #-512	; 0x200
     2d0:	04020066 	streq	r0, [r2], #-102	; 0x66
     2d4:	02044a01 	andeq	r4, r4, #4096	; 0x1000
     2d8:	7f990306 	svcvc	0x00990306
     2dc:	2f012402 	svccs	0x00012402
     2e0:	2f4c4b4b 	svccs	0x004c4b4b
     2e4:	0301044c 	movweq	r0, #5196	; 0x144c
     2e8:	02040178 	andeq	r0, r4, #120, 2
     2ec:	4bd60903 	blmi	ff582700 <__bss_end__+0xff573dc0>
     2f0:	2b032f4c 	blcs	cc028 <__bss_end__+0xbd6e8>
     2f4:	67312f82 	ldrvs	r2, [r1, -r2, lsl #31]!
     2f8:	30bc3068 	adcscc	r3, ip, r8, rrx
     2fc:	67676783 	strbvs	r6, [r7, -r3, lsl #15]!
     300:	08686967 	stmdaeq	r8!, {r0, r1, r2, r5, r6, r8, fp, sp, lr}^
     304:	4b2f4b27 	blmi	bd2fa8 <__bss_end__+0xbc4668>
     308:	83694b2f 	cmnhi	r9, #48128	; 0xbc00
     30c:	7fae0368 	svcvc	0x00ae0368
     310:	01044b66 	tsteq	r4, r6, ror #22
     314:	032e0b03 	teqeq	lr, #3072	; 0xc00
     318:	1c036665 	stcne	6, cr6, [r3], {101}	; 0x65
     31c:	04674c9e 	strbteq	r4, [r7], #-3230	; 0xc9e
     320:	9e730302 	cdpls	3, 7, cr0, cr3, cr2, {0}
     324:	6b030104 	blvs	c073c <__bss_end__+0xb1dfc>
     328:	660b034a 	strvs	r0, [fp], -sl, asr #6
     32c:	03020432 	movweq	r0, #9266	; 0x2432
     330:	002f2e09 	eoreq	r2, pc, r9, lsl #28
     334:	49010402 	stmdbmi	r1, {r1, sl}
     338:	68030104 	stmdavs	r3, {r2, r8}
     33c:	4a0a0366 	bmi	2810dc <__bss_end__+0x27279c>
     340:	83672f4c 	cmnhi	r7, #76, 30	; 0x130
     344:	03020446 	movweq	r0, #9286	; 0x2446
     348:	a54e2e0d 	strbge	r2, [lr, #-3597]	; 0xe0d
     34c:	30694b31 	rsbcc	r4, r9, r1, lsr fp
     350:	72030104 	andvc	r0, r3, #4, 2
     354:	2e65032e 	cdpcs	3, 6, cr0, cr5, cr14, {1}
     358:	4c821c03 	stcmi	12, cr1, [r2], {3}
     35c:	0402002f 	streq	r0, [r2], #-47	; 0x2f
     360:	9e610301 	cdpls	3, 6, cr0, cr1, cr1, {0}
     364:	02000204 	andeq	r0, r0, #4, 4	; 0x40000000
     368:	26030104 	strcs	r0, [r3], -r4, lsl #2
     36c:	040200d6 	streq	r0, [r2], #-214	; 0xd6
     370:	064a0602 	strbeq	r0, [sl], -r2, lsl #12
     374:	01046889 	smlabbeq	r4, r9, r8, r6
     378:	01040200 	mrseq	r0, R12_usr
     37c:	00664e03 	rsbeq	r4, r6, r3, lsl #28
     380:	03010402 	movweq	r0, #5122	; 0x1402
     384:	0200660b 	andeq	r6, r0, #11534336	; 0xb00000
     388:	00300104 	eorseq	r0, r0, r4, lsl #2
     38c:	30010402 	andcc	r0, r1, r2, lsl #8
     390:	02000204 	andeq	r0, r0, #4, 4	; 0x40000000
     394:	22030104 	andcs	r0, r3, #4, 2
     398:	0301042e 	movweq	r0, #5166	; 0x142e
     39c:	0a03664f 	beq	d9ce0 <__bss_end__+0xcb3a0>
     3a0:	672f4c4a 	strvs	r4, [pc, -sl, asr #24]!
     3a4:	02044683 	andeq	r4, r4, #137363456	; 0x8300000
     3a8:	042e2603 	strteq	r2, [lr], #-1539	; 0x603
     3ac:	4a4f0301 	bmi	13c0fb8 <__bss_end__+0x13b2678>
     3b0:	35030204 	strcc	r0, [r3, #-516]	; 0x204
     3b4:	31034b9e 			; <UNDEFINED> instruction: 0x31034b9e
     3b8:	01045808 	tsteq	r4, r8, lsl #16
     3bc:	017f9903 	cmneq	pc, r3, lsl #18
     3c0:	ea030204 	b	c0bd8 <__bss_end__+0xb2298>
     3c4:	01049e00 	tsteq	r4, r0, lsl #28
     3c8:	4a7f9603 	bmi	1fe5bdc <__bss_end__+0x1fd729c>
     3cc:	4c820a03 	vstmiami	r2, {s0-s2}
     3d0:	02044b67 	andeq	r4, r4, #105472	; 0x19c00
     3d4:	9e00db03 	vmlals.f64	d13, d0, d3
     3d8:	084c886b 	stmdaeq	ip, {r0, r1, r3, r5, r6, fp, pc}^
     3dc:	6767675a 			; <UNDEFINED> instruction: 0x6767675a
     3e0:	30686767 	rsbcc	r6, r8, r7, ror #14
     3e4:	03673230 	cmneq	r7, #48, 4
     3e8:	33686609 	cmncc	r8, #9437184	; 0x900000
     3ec:	4b4b3035 	blmi	12cc4c8 <__bss_end__+0x12bdb88>
     3f0:	4b4b4b4b 	blmi	12d3124 <__bss_end__+0x12c47e4>
     3f4:	4c4b4b4b 	mcrrmi	11, 4, r4, fp, cr11
     3f8:	67676730 			; <UNDEFINED> instruction: 0x67676730
     3fc:	30346867 	eorscc	r6, r4, r7, ror #16
     400:	4b2f4b29 	blmi	bd30ac <__bss_end__+0xbc476c>
     404:	14022f4b 	strne	r2, [r2], #-3915	; 0xf4b
     408:	ec010100 	stfs	f0, [r1], {-0}
     40c:	02000000 	andeq	r0, r0, #0
     410:	0000d000 	andeq	sp, r0, r0
     414:	fb010200 	blx	40c1e <__bss_end__+0x322de>
     418:	01000d0e 	tsteq	r0, lr, lsl #26
     41c:	00010101 	andeq	r0, r1, r1, lsl #2
     420:	00010000 	andeq	r0, r1, r0
     424:	696c0100 	stmdbvs	ip!, {r8}^
     428:	2f006362 	svccs	0x00006362
     42c:	2f727375 	svccs	0x00727375
     430:	61636f6c 	cmnvs	r3, ip, ror #30
     434:	65432f6c 	strbvs	r2, [r3, #-3948]	; 0xf6c
     438:	72616c6c 	rsbvc	r6, r1, #108, 24	; 0x6c00
     43c:	6d72612f 	ldfvse	f6, [r2, #-188]!	; 0xffffff44
     440:	6e6f6e2d 	cdpvs	14, 6, cr6, cr15, cr13, {1}
     444:	61652d65 	cmnvs	r5, r5, ror #26
     448:	342f6962 	strtcc	r6, [pc], #-2402	; 450 <_start-0x7bb0>
     44c:	332e382e 	teqcc	lr, #3014656	; 0x2e0000
     450:	3173632d 	cmncc	r3, sp, lsr #6
     454:	2f653037 	svccs	0x00653037
     458:	2f62696c 	svccs	0x0062696c
     45c:	2f636367 	svccs	0x00636367
     460:	2d6d7261 	sfmcs	f7, 2, [sp, #-388]!	; 0xfffffe7c
     464:	656e6f6e 	strbvs	r6, [lr, #-3950]!	; 0xf6e
     468:	6261652d 	rsbvs	r6, r1, #188743680	; 0xb400000
     46c:	2e342f69 	cdpcs	15, 3, cr2, cr4, cr9, {3}
     470:	2f332e38 	svccs	0x00332e38
     474:	6c636e69 	stclvs	14, cr6, [r3], #-420	; 0xfffffe5c
     478:	00656475 	rsbeq	r6, r5, r5, ror r4
     47c:	7273752f 	rsbsvc	r7, r3, #197132288	; 0xbc00000
     480:	636f6c2f 	cmnvs	pc, #12032	; 0x2f00
     484:	432f6c61 	teqmi	pc, #24832	; 0x6100
     488:	616c6c65 	cmnvs	ip, r5, ror #24
     48c:	72612f72 	rsbvc	r2, r1, #456	; 0x1c8
     490:	6f6e2d6d 	svcvs	0x006e2d6d
     494:	652d656e 	strvs	r6, [sp, #-1390]!	; 0x56e
     498:	2f696261 	svccs	0x00696261
     49c:	2e382e34 	mrccs	14, 1, r2, cr8, cr4, {1}
     4a0:	73632d33 	cmnvc	r3, #3264	; 0xcc0
     4a4:	65303731 	ldrvs	r3, [r0, #-1841]!	; 0x731
     4a8:	6d72612f 	ldfvse	f6, [r2, #-188]!	; 0xffffff44
     4ac:	6e6f6e2d 	cdpvs	14, 6, cr6, cr15, cr13, {1}
     4b0:	61652d65 	cmnvs	r5, r5, ror #26
     4b4:	692f6962 	stmdbvs	pc!, {r1, r5, r6, r8, fp, sp, lr}	; <UNPREDICTABLE>
     4b8:	756c636e 	strbvc	r6, [ip, #-878]!	; 0x36e
     4bc:	00006564 	andeq	r6, r0, r4, ror #10
     4c0:	736d656d 	cmnvc	sp, #457179136	; 0x1b400000
     4c4:	632e7465 	teqvs	lr, #1694498816	; 0x65000000
     4c8:	00000100 	andeq	r0, r0, r0, lsl #2
     4cc:	64647473 	strbtvs	r7, [r4], #-1139	; 0x473
     4d0:	682e6665 	stmdavs	lr!, {r0, r2, r5, r6, r9, sl, sp, lr}
     4d4:	00000200 	andeq	r0, r0, r0, lsl #4
     4d8:	69727473 	ldmdbvs	r2!, {r0, r1, r4, r5, r6, sl, ip, sp, lr}^
     4dc:	682e676e 	stmdavs	lr!, {r1, r2, r3, r5, r6, r8, r9, sl, sp, lr}
     4e0:	00000300 	andeq	r0, r0, r0, lsl #6
     4e4:	02050000 	andeq	r0, r5, #0
     4e8:	00008770 	andeq	r8, r0, r0, ror r7
     4ec:	2f4c1314 	svccs	0x004c1314
     4f0:	01040200 	mrseq	r0, R12_usr
     4f4:	02024d49 	andeq	r4, r2, #4672	; 0x1240
     4f8:	02010100 	andeq	r0, r1, #0, 2
     4fc:	02000001 	andeq	r0, r0, #1
     500:	0000eb00 	andeq	lr, r0, r0, lsl #22
     504:	fb010200 	blx	40d0e <__bss_end__+0x323ce>
     508:	01000d0e 	tsteq	r0, lr, lsl #26
     50c:	00010101 	andeq	r0, r1, r1, lsl #2
     510:	00010000 	andeq	r0, r1, r0
     514:	696c0100 	stmdbvs	ip!, {r8}^
     518:	2f006362 	svccs	0x00006362
     51c:	2f727375 	svccs	0x00727375
     520:	61636f6c 	cmnvs	r3, ip, ror #30
     524:	65432f6c 	strbvs	r2, [r3, #-3948]	; 0xf6c
     528:	72616c6c 	rsbvc	r6, r1, #108, 24	; 0x6c00
     52c:	6d72612f 	ldfvse	f6, [r2, #-188]!	; 0xffffff44
     530:	6e6f6e2d 	cdpvs	14, 6, cr6, cr15, cr13, {1}
     534:	61652d65 	cmnvs	r5, r5, ror #26
     538:	342f6962 	strtcc	r6, [pc], #-2402	; 540 <_start-0x7ac0>
     53c:	332e382e 	teqcc	lr, #3014656	; 0x2e0000
     540:	3173632d 	cmncc	r3, sp, lsr #6
     544:	2f653037 	svccs	0x00653037
     548:	2f62696c 	svccs	0x0062696c
     54c:	2f636367 	svccs	0x00636367
     550:	2d6d7261 	sfmcs	f7, 2, [sp, #-388]!	; 0xfffffe7c
     554:	656e6f6e 	strbvs	r6, [lr, #-3950]!	; 0xf6e
     558:	6261652d 	rsbvs	r6, r1, #188743680	; 0xb400000
     55c:	2e342f69 	cdpcs	15, 3, cr2, cr4, cr9, {3}
     560:	2f332e38 	svccs	0x00332e38
     564:	6c636e69 	stclvs	14, cr6, [r3], #-420	; 0xfffffe5c
     568:	00656475 	rsbeq	r6, r5, r5, ror r4
     56c:	6573552f 	ldrbvs	r5, [r3, #-1327]!	; 0x52f
     570:	622f7372 	eorvs	r7, pc, #-939524095	; 0xc8000001
     574:	6e616972 	mcrvs	9, 3, r6, cr1, cr2, {3}
     578:	2f6e756a 	svccs	0x006e756a
     57c:	6b736544 	blvs	1cd9a94 <__bss_end__+0x1ccb154>
     580:	2f706f74 	svccs	0x00706f74
     584:	6f686373 	svcvs	0x00686373
     588:	572f6c6f 	strpl	r6, [pc, -pc, ror #24]!
     58c:	65746e69 	ldrbvs	r6, [r4, #-3689]!	; 0xe69
     590:	32393172 	eorscc	r3, r9, #-2147483620	; 0x8000001c
     594:	53432f30 	movtpl	r2, #16176	; 0x3f30
     598:	45303431 	ldrmi	r3, [r0, #-1073]!	; 0x431
     59c:	3173632f 	cmncc	r3, pc, lsr #6
     5a0:	2d653034 	stclcs	0, cr3, [r5, #-208]!	; 0xffffff30
     5a4:	69773032 	ldmdbvs	r7!, {r1, r4, r5, ip, sp}^
     5a8:	696c2f6e 	stmdbvs	ip!, {r1, r2, r3, r5, r6, r8, r9, sl, fp, sp}^
     5ac:	00697062 	rsbeq	r7, r9, r2, rrx
     5b0:	69727000 	ldmdbvs	r2!, {ip, sp, lr}^
     5b4:	2e6b746e 	cdpcs	4, 6, cr7, cr11, cr14, {3}
     5b8:	00010063 	andeq	r0, r1, r3, rrx
     5bc:	64747300 	ldrbtvs	r7, [r4], #-768	; 0x300
     5c0:	2e677261 	cdpcs	2, 6, cr7, cr7, cr1, {3}
     5c4:	00020068 	andeq	r0, r2, r8, rrx
     5c8:	75623c00 	strbvc	r3, [r2, #-3072]!	; 0xc00
     5cc:	2d746c69 	ldclcs	12, cr6, [r4, #-420]!	; 0xfffffe5c
     5d0:	003e6e69 	eorseq	r6, lr, r9, ror #28
     5d4:	72000000 	andvc	r0, r0, #0
     5d8:	682e6970 	stmdavs	lr!, {r4, r5, r6, r8, fp, sp, lr}
     5dc:	00000300 	andeq	r0, r0, r0, lsl #6
     5e0:	702d6176 	eorvc	r6, sp, r6, ror r1
     5e4:	746e6972 	strbtvc	r6, [lr], #-2418	; 0x972
     5e8:	00682e6b 	rsbeq	r2, r8, fp, ror #28
     5ec:	00000001 	andeq	r0, r0, r1
     5f0:	90020500 	andls	r0, r2, r0, lsl #10
     5f4:	17000087 	strne	r0, [r0, -r7, lsl #1]
     5f8:	89bf4b6b 	ldmibhi	pc!, {r0, r1, r3, r5, r6, r8, r9, fp, lr}	; <UNPREDICTABLE>
     5fc:	01000e02 	tsteq	r0, r2, lsl #28
     600:	00009601 	andeq	r9, r0, r1, lsl #12
     604:	6f000200 	svcvs	0x00000200
     608:	02000000 	andeq	r0, r0, #0
     60c:	0d0efb01 	vstreq	d15, [lr, #-4]
     610:	01010100 	mrseq	r0, (UNDEF: 17)
     614:	00000001 	andeq	r0, r0, r1
     618:	01000001 	tsteq	r0, r1
     61c:	6362696c 	cmnvs	r2, #108, 18	; 0x1b0000
     620:	73552f00 	cmpvc	r5, #0, 30
     624:	2f737265 	svccs	0x00737265
     628:	61697262 	cmnvs	r9, r2, ror #4
     62c:	6e756a6e 	vsubvs.f32	s13, s10, s29
     630:	7365442f 	cmnvc	r5, #788529152	; 0x2f000000
     634:	706f746b 	rsbvc	r7, pc, fp, ror #8
     638:	6863732f 	stmdavs	r3!, {r0, r1, r2, r3, r5, r8, r9, ip, sp, lr}^
     63c:	2f6c6f6f 	svccs	0x006c6f6f
     640:	746e6957 	strbtvc	r6, [lr], #-2391	; 0x957
     644:	39317265 	ldmdbcc	r1!, {r0, r2, r5, r6, r9, ip, sp, lr}
     648:	432f3032 	teqmi	pc, #50	; 0x32
     64c:	30343153 	eorscc	r3, r4, r3, asr r1
     650:	73632f45 	cmnvc	r3, #276	; 0x114
     654:	65303431 	ldrvs	r3, [r0, #-1073]!	; 0x431
     658:	7730322d 	ldrvc	r3, [r0, -sp, lsr #4]!
     65c:	6c2f6e69 	stcvs	14, cr6, [pc], #-420	; 4c0 <_start-0x7b40>
     660:	69706269 	ldmdbvs	r0!, {r0, r3, r5, r6, r9, sp, lr}^
     664:	75700000 	ldrbvc	r0, [r0, #-0]!
     668:	632e6b74 	teqvs	lr, #116, 22	; 0x1d000
     66c:	00000100 	andeq	r0, r0, r0, lsl #2
     670:	2e697072 	mcrcs	0, 3, r7, cr9, cr2, {3}
     674:	00020068 	andeq	r0, r2, r8, rrx
     678:	05000000 	streq	r0, [r0, #-0]
     67c:	0087e802 	addeq	lr, r7, r2, lsl #16
     680:	2d4c1500 	cfstr64cs	mvdx1, [ip, #-0]
     684:	02040200 	andeq	r0, r4, #0, 4
     688:	0402002f 	streq	r0, [r2], #-47	; 0x2f
     68c:	02004902 	andeq	r4, r0, #32768	; 0x8000
     690:	2e060104 	adfcss	f0, f6, f4
     694:	06026b06 	streq	r6, [r2], -r6, lsl #22
     698:	dc010100 	stfles	f0, [r1], {-0}
     69c:	02000001 	andeq	r0, r0, #1
     6a0:	0000df00 	andeq	sp, r0, r0, lsl #30
     6a4:	fb010200 	blx	40eae <__bss_end__+0x3256e>
     6a8:	01000d0e 	tsteq	r0, lr, lsl #26
     6ac:	00010101 	andeq	r0, r1, r1, lsl #2
     6b0:	00010000 	andeq	r0, r1, r0
     6b4:	696c0100 	stmdbvs	ip!, {r8}^
     6b8:	2f006362 	svccs	0x00006362
     6bc:	2f727375 	svccs	0x00727375
     6c0:	61636f6c 	cmnvs	r3, ip, ror #30
     6c4:	65432f6c 	strbvs	r2, [r3, #-3948]	; 0xf6c
     6c8:	72616c6c 	rsbvc	r6, r1, #108, 24	; 0x6c00
     6cc:	6d72612f 	ldfvse	f6, [r2, #-188]!	; 0xffffff44
     6d0:	6e6f6e2d 	cdpvs	14, 6, cr6, cr15, cr13, {1}
     6d4:	61652d65 	cmnvs	r5, r5, ror #26
     6d8:	342f6962 	strtcc	r6, [pc], #-2402	; 6e0 <_start-0x7920>
     6dc:	332e382e 	teqcc	lr, #3014656	; 0x2e0000
     6e0:	3173632d 	cmncc	r3, sp, lsr #6
     6e4:	2f653037 	svccs	0x00653037
     6e8:	2f62696c 	svccs	0x0062696c
     6ec:	2f636367 	svccs	0x00636367
     6f0:	2d6d7261 	sfmcs	f7, 2, [sp, #-388]!	; 0xfffffe7c
     6f4:	656e6f6e 	strbvs	r6, [lr, #-3950]!	; 0xf6e
     6f8:	6261652d 	rsbvs	r6, r1, #188743680	; 0xb400000
     6fc:	2e342f69 	cdpcs	15, 3, cr2, cr4, cr9, {3}
     700:	2f332e38 	svccs	0x00332e38
     704:	6c636e69 	stclvs	14, cr6, [r3], #-420	; 0xfffffe5c
     708:	00656475 	rsbeq	r6, r5, r5, ror r4
     70c:	6573552f 	ldrbvs	r5, [r3, #-1327]!	; 0x52f
     710:	622f7372 	eorvs	r7, pc, #-939524095	; 0xc8000001
     714:	6e616972 	mcrvs	9, 3, r6, cr1, cr2, {3}
     718:	2f6e756a 	svccs	0x006e756a
     71c:	6b736544 	blvs	1cd9c34 <__bss_end__+0x1ccb2f4>
     720:	2f706f74 	svccs	0x00706f74
     724:	6f686373 	svcvs	0x00686373
     728:	572f6c6f 	strpl	r6, [pc, -pc, ror #24]!
     72c:	65746e69 	ldrbvs	r6, [r4, #-3689]!	; 0xe69
     730:	32393172 	eorscc	r3, r9, #-2147483620	; 0x8000001c
     734:	53432f30 	movtpl	r2, #16176	; 0x3f30
     738:	45303431 	ldrmi	r3, [r0, #-1073]!	; 0x431
     73c:	3173632f 	cmncc	r3, pc, lsr #6
     740:	2d653034 	stclcs	0, cr3, [r5, #-208]!	; 0xffffff30
     744:	69773032 	ldmdbvs	r7!, {r1, r4, r5, ip, sp}^
     748:	696c2f6e 	stmdbvs	ip!, {r1, r2, r3, r5, r6, r8, r9, sl, fp, sp}^
     74c:	00697062 	rsbeq	r7, r9, r2, rrx
     750:	2d617600 	stclcs	6, cr7, [r1, #-0]
     754:	6e697270 	mcrvs	2, 3, r7, cr9, cr0, {3}
     758:	632e6b74 	teqvs	lr, #116, 22	; 0x1d000
     75c:	00000100 	andeq	r0, r0, r0, lsl #2
     760:	61647473 	smcvs	18243	; 0x4743
     764:	682e6772 	stmdavs	lr!, {r1, r4, r5, r6, r8, r9, sl, sp, lr}
     768:	00000200 	andeq	r0, r0, r0, lsl #4
     76c:	2e697072 	mcrcs	0, 3, r7, cr9, cr2, {3}
     770:	00030068 	andeq	r0, r3, r8, rrx
     774:	75623c00 	strbvc	r3, [r2, #-3072]!	; 0xc00
     778:	2d746c69 	ldclcs	12, cr6, [r4, #-420]!	; 0xfffffe5c
     77c:	003e6e69 	eorseq	r6, lr, r9, ror #28
     780:	00000000 	andeq	r0, r0, r0
     784:	1c020500 	cfstr32ne	mvfx0, [r2], {-0}
     788:	03000088 	movweq	r0, #136	; 0x88
     78c:	a5010126 	strge	r0, [r1, #-294]	; 0x126
     790:	002d3113 	eoreq	r3, sp, r3, lsl r1
     794:	2f020402 	svccs	0x00020402
     798:	02040200 	andeq	r0, r4, #0, 4
     79c:	0402002d 	streq	r0, [r2], #-45	; 0x2d
     7a0:	02002f02 	andeq	r2, r0, #2, 30
     7a4:	4c2d0104 	stfmis	f0, [sp], #-16
     7a8:	4b14304c 	blmi	50c8e0 <__bss_end__+0x4fdfa0>
     7ac:	02004f2f 	andeq	r4, r0, #47, 30	; 0xbc
     7b0:	00670204 	rsbeq	r0, r7, r4, lsl #4
     7b4:	65010402 	strvs	r0, [r1, #-1026]	; 0x402
     7b8:	a0304d4c 	eorsge	r4, r0, ip, asr #26
     7bc:	0230312f 	eorseq	r3, r0, #-1073741813	; 0xc000000b
     7c0:	2d841626 	stccs	6, cr1, [r4, #152]	; 0x98
     7c4:	0402002c 	streq	r0, [r2], #-44	; 0x2c
     7c8:	02003001 	andeq	r3, r0, #1
     7cc:	06330104 	ldrteq	r0, [r3], -r4, lsl #2
     7d0:	04020066 	streq	r0, [r2], #-102	; 0x66
     7d4:	02002e01 	andeq	r2, r0, #1, 28
     7d8:	08060104 	stmdaeq	r6, {r2, r8}
     7dc:	032f6721 	teqeq	pc, #8650752	; 0x840000
     7e0:	13038273 	movwne	r8, #12915	; 0x3273
     7e4:	0402002e 	streq	r0, [r2], #-46	; 0x2e
     7e8:	002e0601 	eoreq	r0, lr, r1, lsl #12
     7ec:	06010402 	streq	r0, [r1], -r2, lsl #8
     7f0:	034b6a9f 	movteq	r6, #47775	; 0xba9f
     7f4:	21032e67 	tstcs	r3, r7, ror #28
     7f8:	0402002e 	streq	r0, [r2], #-46	; 0x2e
     7fc:	002e0601 	eoreq	r0, lr, r1, lsl #12
     800:	06010402 	streq	r0, [r1], -r2, lsl #8
     804:	0402009f 	streq	r0, [r2], #-159	; 0x9f
     808:	f3bd6a01 	vtbl.8	d6, {d13-d15}, d1
     80c:	087fa603 	ldmdaeq	pc!, {r0, r1, r9, sl, sp, pc}^	; <UNPREDICTABLE>
     810:	02002f20 	andeq	r2, r0, #32, 30	; 0x80
     814:	4a060104 	bmi	180c2c <__bss_end__+0x1722ec>
     818:	2f4bbb06 	svccs	0x004bbb06
     81c:	f200da03 	vpmax.s8	d13, d0, d3
     820:	31484c83 	smlalbbcc	r4, r8, r3, ip
     824:	4b842f2f 	blmi	fe10c4e8 <__bss_end__+0xfe0fdba8>
     828:	314d2d2f 	cmpcc	sp, pc, lsr #26
     82c:	00832f30 	addeq	r2, r3, r0, lsr pc
     830:	2c010402 	cfstrscs	mvf0, [r1], {2}
     834:	040200be 	streq	r0, [r2], #-190	; 0xbe
     838:	064a0601 	strbeq	r0, [sl], -r1, lsl #12
     83c:	163602bc 			; <UNDEFINED> instruction: 0x163602bc
     840:	08ba0e03 	ldmeq	sl!, {r0, r1, r9, sl, fp}
     844:	21083021 	tstcs	r8, r1, lsr #32
     848:	30210831 	eorcc	r0, r1, r1, lsr r8
     84c:	4b302108 	blmi	c08c74 <__bss_end__+0xbfa334>
     850:	30210830 	eorcc	r0, r1, r0, lsr r8
     854:	002f31d9 	ldrdeq	r3, [pc], -r9	; <UNPREDICTABLE>
     858:	65010402 	strvs	r0, [r1, #-1026]	; 0x402
     85c:	02040200 	andeq	r0, r4, #0, 4
     860:	02004a06 	andeq	r4, r0, #24576	; 0x6000
     864:	03060104 	movweq	r0, #24836	; 0x6104
     868:	02006642 	andeq	r6, r0, #69206016	; 0x4200000
     86c:	66060204 	strvs	r0, [r6], -r4, lsl #4
     870:	00c20306 	sbceq	r0, r2, r6, lsl #6
     874:	1002684a 	andne	r6, r2, sl, asr #16
     878:	43010100 	movwmi	r0, #4352	; 0x1100
     87c:	02000000 	andeq	r0, r0, #0
     880:	00002900 	andeq	r2, r0, r0, lsl #18
     884:	fb010200 	blx	4108e <__bss_end__+0x3274e>
     888:	01000d0e 	tsteq	r0, lr, lsl #26
     88c:	00010101 	andeq	r0, r1, r1, lsl #2
     890:	00010000 	andeq	r0, r1, r0
     894:	73630100 	cmnvc	r3, #0, 2
     898:	65303431 	ldrvs	r3, [r0, #-1073]!	; 0x431
     89c:	6372732d 	cmnvs	r2, #-1275068416	; 0xb4000000
     8a0:	61630000 	cmnvs	r3, r0
     8a4:	2e656863 	cdpcs	8, 6, cr6, cr5, cr3, {3}
     8a8:	00010063 	andeq	r0, r1, r3, rrx
     8ac:	05000000 	streq	r0, [r0, #-0]
     8b0:	008d0c02 	addeq	r0, sp, r2, lsl #24
     8b4:	30141400 	andscc	r1, r4, r0, lsl #8
     8b8:	31144e2f 	tstcc	r4, pc, lsr #28
     8bc:	0004022f 	andeq	r0, r4, pc, lsr #4
     8c0:	00930101 	addseq	r0, r3, r1, lsl #2
     8c4:	00020000 	andeq	r0, r2, r0
     8c8:	0000007d 	andeq	r0, r0, sp, ror r0
     8cc:	0efb0102 	cdpeq	1, 15, cr0, cr11, cr2, {0}
     8d0:	0101000d 	tsteq	r1, sp
     8d4:	00000101 	andeq	r0, r0, r1, lsl #2
     8d8:	00000100 	andeq	r0, r0, r0, lsl #2
     8dc:	31736301 	cmncc	r3, r1, lsl #6
     8e0:	2d653034 	stclcs	0, cr3, [r5, #-208]!	; 0xffffff30
     8e4:	00637273 	rsbeq	r7, r3, r3, ror r2
     8e8:	6573552f 	ldrbvs	r5, [r3, #-1327]!	; 0x52f
     8ec:	622f7372 	eorvs	r7, pc, #-939524095	; 0xc8000001
     8f0:	6e616972 	mcrvs	9, 3, r6, cr1, cr2, {3}
     8f4:	2f6e756a 	svccs	0x006e756a
     8f8:	6b736544 	blvs	1cd9e10 <__bss_end__+0x1ccb4d0>
     8fc:	2f706f74 	svccs	0x00706f74
     900:	6f686373 	svcvs	0x00686373
     904:	572f6c6f 	strpl	r6, [pc, -pc, ror #24]!
     908:	65746e69 	ldrbvs	r6, [r4, #-3689]!	; 0xe69
     90c:	32393172 	eorscc	r3, r9, #-2147483620	; 0x8000001c
     910:	53432f30 	movtpl	r2, #16176	; 0x3f30
     914:	45303431 	ldrmi	r3, [r0, #-1073]!	; 0x431
     918:	3173632f 	cmncc	r3, pc, lsr #6
     91c:	2d653034 	stclcs	0, cr3, [r5, #-208]!	; 0xffffff30
     920:	69773032 	ldmdbvs	r7!, {r1, r4, r5, ip, sp}^
     924:	696c2f6e 	stmdbvs	ip!, {r1, r2, r3, r5, r6, r8, r9, sl, fp, sp}^
     928:	00697062 	rsbeq	r7, r9, r2, rrx
     92c:	656c6300 	strbvs	r6, [ip, #-768]!	; 0x300
     930:	722d6e61 	eorvc	r6, sp, #1552	; 0x610
     934:	6f6f6265 	svcvs	0x006f6265
     938:	00632e74 	rsbeq	r2, r3, r4, ror lr
     93c:	72000001 	andvc	r0, r0, #1
     940:	682e6970 	stmdavs	lr!, {r4, r5, r6, r8, fp, sp, lr}
     944:	00000200 	andeq	r0, r0, r0, lsl #4
     948:	02050000 	andeq	r0, r5, #0
     94c:	00008d2c 	andeq	r8, r0, ip, lsr #26
     950:	4b832f15 	blmi	fe0cc5ac <__bss_end__+0xfe0bdc6c>
     954:	01000602 	tsteq	r0, r2, lsl #12
     958:	00012101 	andeq	r2, r1, r1, lsl #2
     95c:	f8000200 			; <UNDEFINED> instruction: 0xf8000200
     960:	02000000 	andeq	r0, r0, #0
     964:	0d0efb01 	vstreq	d15, [lr, #-4]
     968:	01010100 	mrseq	r0, (UNDEF: 17)
     96c:	00000001 	andeq	r0, r0, r1
     970:	01000001 	tsteq	r0, r1
     974:	34317363 	ldrtcc	r7, [r1], #-867	; 0x363
     978:	732d6530 	teqvc	sp, #48, 10	; 0xc000000
     97c:	2f006372 	svccs	0x00006372
     980:	2f727375 	svccs	0x00727375
     984:	61636f6c 	cmnvs	r3, ip, ror #30
     988:	65432f6c 	strbvs	r2, [r3, #-3948]	; 0xf6c
     98c:	72616c6c 	rsbvc	r6, r1, #108, 24	; 0x6c00
     990:	6d72612f 	ldfvse	f6, [r2, #-188]!	; 0xffffff44
     994:	6e6f6e2d 	cdpvs	14, 6, cr6, cr15, cr13, {1}
     998:	61652d65 	cmnvs	r5, r5, ror #26
     99c:	342f6962 	strtcc	r6, [pc], #-2402	; 9a4 <_start-0x765c>
     9a0:	332e382e 	teqcc	lr, #3014656	; 0x2e0000
     9a4:	3173632d 	cmncc	r3, sp, lsr #6
     9a8:	2f653037 	svccs	0x00653037
     9ac:	2f62696c 	svccs	0x0062696c
     9b0:	2f636367 	svccs	0x00636367
     9b4:	2d6d7261 	sfmcs	f7, 2, [sp, #-388]!	; 0xfffffe7c
     9b8:	656e6f6e 	strbvs	r6, [lr, #-3950]!	; 0xf6e
     9bc:	6261652d 	rsbvs	r6, r1, #188743680	; 0xb400000
     9c0:	2e342f69 	cdpcs	15, 3, cr2, cr4, cr9, {3}
     9c4:	2f332e38 	svccs	0x00332e38
     9c8:	6c636e69 	stclvs	14, cr6, [r3], #-420	; 0xfffffe5c
     9cc:	00656475 	rsbeq	r6, r5, r5, ror r4
     9d0:	6573552f 	ldrbvs	r5, [r3, #-1327]!	; 0x52f
     9d4:	622f7372 	eorvs	r7, pc, #-939524095	; 0xc8000001
     9d8:	6e616972 	mcrvs	9, 3, r6, cr1, cr2, {3}
     9dc:	2f6e756a 	svccs	0x006e756a
     9e0:	6b736544 	blvs	1cd9ef8 <__bss_end__+0x1ccb5b8>
     9e4:	2f706f74 	svccs	0x00706f74
     9e8:	6f686373 	svcvs	0x00686373
     9ec:	572f6c6f 	strpl	r6, [pc, -pc, ror #24]!
     9f0:	65746e69 	ldrbvs	r6, [r4, #-3689]!	; 0xe69
     9f4:	32393172 	eorscc	r3, r9, #-2147483620	; 0x8000001c
     9f8:	53432f30 	movtpl	r2, #16176	; 0x3f30
     9fc:	45303431 	ldrmi	r3, [r0, #-1073]!	; 0x431
     a00:	3173632f 	cmncc	r3, pc, lsr #6
     a04:	2d653034 	stclcs	0, cr3, [r5, #-208]!	; 0xffffff30
     a08:	69773032 	ldmdbvs	r7!, {r1, r4, r5, ip, sp}^
     a0c:	696c2f6e 	stmdbvs	ip!, {r1, r2, r3, r5, r6, r8, r9, sl, fp, sp}^
     a10:	00697062 	rsbeq	r7, r9, r2, rrx
     a14:	74736300 	ldrbtvc	r6, [r3], #-768	; 0x300
     a18:	2e747261 	cdpcs	2, 7, cr7, cr4, cr1, {3}
     a1c:	00010063 	andeq	r0, r1, r3, rrx
     a20:	64747300 	ldrbtvs	r7, [r4], #-768	; 0x300
     a24:	2d746e69 	ldclcs	14, cr6, [r4, #-420]!	; 0xfffffe5c
     a28:	2e636367 	cdpcs	3, 6, cr6, cr3, cr7, {3}
     a2c:	00020068 	andeq	r0, r2, r8, rrx
     a30:	2d777300 	ldclcs	3, cr7, [r7, #-0]
     a34:	74726175 	ldrbtvc	r6, [r2], #-373	; 0x175
     a38:	0100682e 	tsteq	r0, lr, lsr #16
     a3c:	6f630000 	svcvs	0x00630000
     a40:	6f72746e 	svcvs	0x0072746e
     a44:	6c622d6c 	stclvs	13, cr2, [r2], #-432	; 0xfffffe50
     a48:	2e6b636f 	cdpcs	3, 6, cr6, cr11, cr15, {3}
     a4c:	00010068 	andeq	r0, r1, r8, rrx
     a50:	69707200 	ldmdbvs	r0!, {r9, ip, sp, lr}^
     a54:	0300682e 	movweq	r6, #2094	; 0x82e
     a58:	00000000 	andeq	r0, r0, r0
     a5c:	8d540205 	lfmhi	f0, 2, [r4, #-20]	; 0xffffffec
     a60:	4b170000 	blmi	5c0a68 <__bss_end__+0x5b2128>
     a64:	31326868 	teqcc	r2, r8, ror #16
     a68:	002f2d2f 	eoreq	r2, pc, pc, lsr #26
     a6c:	49010402 	stmdbmi	r1, {r1, sl}
     a70:	674b2f4d 	strbvs	r2, [fp, -sp, asr #30]
     a74:	4d678367 	stclmi	3, cr8, [r7, #-412]!	; 0xfffffe64
     a78:	0010022f 	andseq	r0, r0, pc, lsr #4
     a7c:	00990101 	addseq	r0, r9, r1, lsl #2
     a80:	00020000 	andeq	r0, r2, r0
     a84:	00000077 	andeq	r0, r0, r7, ror r0
     a88:	0efb0102 	cdpeq	1, 15, cr0, cr11, cr2, {0}
     a8c:	0101000d 	tsteq	r1, sp
     a90:	00000101 	andeq	r0, r0, r1, lsl #2
     a94:	00000100 	andeq	r0, r0, r0, lsl #2
     a98:	31736301 	cmncc	r3, r1, lsl #6
     a9c:	2d653034 	stclcs	0, cr3, [r5, #-208]!	; 0xffffff30
     aa0:	00637273 	rsbeq	r7, r3, r3, ror r2
     aa4:	6573552f 	ldrbvs	r5, [r3, #-1327]!	; 0x52f
     aa8:	622f7372 	eorvs	r7, pc, #-939524095	; 0xc8000001
     aac:	6e616972 	mcrvs	9, 3, r6, cr1, cr2, {3}
     ab0:	2f6e756a 	svccs	0x006e756a
     ab4:	6b736544 	blvs	1cd9fcc <__bss_end__+0x1ccb68c>
     ab8:	2f706f74 	svccs	0x00706f74
     abc:	6f686373 	svcvs	0x00686373
     ac0:	572f6c6f 	strpl	r6, [pc, -pc, ror #24]!
     ac4:	65746e69 	ldrbvs	r6, [r4, #-3689]!	; 0xe69
     ac8:	32393172 	eorscc	r3, r9, #-2147483620	; 0x8000001c
     acc:	53432f30 	movtpl	r2, #16176	; 0x3f30
     ad0:	45303431 	ldrmi	r3, [r0, #-1073]!	; 0x431
     ad4:	3173632f 	cmncc	r3, pc, lsr #6
     ad8:	2d653034 	stclcs	0, cr3, [r5, #-208]!	; 0xffffff30
     adc:	69773032 	ldmdbvs	r7!, {r1, r4, r5, ip, sp}^
     ae0:	696c2f6e 	stmdbvs	ip!, {r1, r2, r3, r5, r6, r8, r9, sl, fp, sp}^
     ae4:	00697062 	rsbeq	r7, r9, r2, rrx
     ae8:	62657200 	rsbvs	r7, r5, #0, 4
     aec:	2e746f6f 	cdpcs	15, 7, cr6, cr4, cr15, {3}
     af0:	00010063 	andeq	r0, r1, r3, rrx
     af4:	69707200 	ldmdbvs	r0!, {r9, ip, sp, lr}^
     af8:	0200682e 	andeq	r6, r0, #3014656	; 0x2e0000
     afc:	00000000 	andeq	r0, r0, r0
     b00:	8e040205 	cdphi	2, 0, cr0, cr4, cr5, {0}
     b04:	0d030000 	stceq	0, cr0, [r3, #-0]
     b08:	2f311401 	svccs	0x00311401
     b0c:	4b2f1585 	blmi	bc6128 <__bss_end__+0xbb77e8>
     b10:	35672f4d 	strbcc	r2, [r7, #-3917]!	; 0xf4d
     b14:	10026752 	andne	r6, r2, r2, asr r7
     b18:	a3010100 	movwge	r0, #4352	; 0x1100
     b1c:	02000000 	andeq	r0, r0, #0
     b20:	00007600 	andeq	r7, r0, r0, lsl #12
     b24:	fb010200 	blx	4132e <__bss_end__+0x329ee>
     b28:	01000d0e 	tsteq	r0, lr, lsl #26
     b2c:	00010101 	andeq	r0, r1, r1, lsl #2
     b30:	00010000 	andeq	r0, r1, r0
     b34:	73630100 	cmnvc	r3, #0, 2
     b38:	65303431 	ldrvs	r3, [r0, #-1073]!	; 0x431
     b3c:	6372732d 	cmnvs	r2, #-1275068416	; 0xb4000000
     b40:	73552f00 	cmpvc	r5, #0, 30
     b44:	2f737265 	svccs	0x00737265
     b48:	61697262 	cmnvs	r9, r2, ror #4
     b4c:	6e756a6e 	vsubvs.f32	s13, s10, s29
     b50:	7365442f 	cmnvc	r5, #788529152	; 0x2f000000
     b54:	706f746b 	rsbvc	r7, pc, fp, ror #8
     b58:	6863732f 	stmdavs	r3!, {r0, r1, r2, r3, r5, r8, r9, ip, sp, lr}^
     b5c:	2f6c6f6f 	svccs	0x006c6f6f
     b60:	746e6957 	strbtvc	r6, [lr], #-2391	; 0x957
     b64:	39317265 	ldmdbcc	r1!, {r0, r2, r5, r6, r9, ip, sp, lr}
     b68:	432f3032 	teqmi	pc, #50	; 0x32
     b6c:	30343153 	eorscc	r3, r4, r3, asr r1
     b70:	73632f45 	cmnvc	r3, #276	; 0x114
     b74:	65303431 	ldrvs	r3, [r0, #-1073]!	; 0x431
     b78:	7730322d 	ldrvc	r3, [r0, -sp, lsr #4]!
     b7c:	6c2f6e69 	stcvs	14, cr6, [pc], #-420	; 9e0 <_start-0x7620>
     b80:	69706269 	ldmdbvs	r0!, {r0, r3, r5, r6, r9, sp, lr}^
     b84:	69740000 	ldmdbvs	r4!, {}^	; <UNPREDICTABLE>
     b88:	2e72656d 	cdpcs	5, 7, cr6, cr2, cr13, {3}
     b8c:	00010063 	andeq	r0, r1, r3, rrx
     b90:	69707200 	ldmdbvs	r0!, {r9, ip, sp, lr}^
     b94:	0200682e 	andeq	r6, r0, #3014656	; 0x2e0000
     b98:	00000000 	andeq	r0, r0, r0
     b9c:	8e780205 	cdphi	2, 7, cr0, cr8, cr5, {0}
     ba0:	13160000 	tstne	r6, #0
     ba4:	02002d2f 	andeq	r2, r0, #3008	; 0xbc0
     ba8:	2e060104 	adfcss	f0, f6, f4
     bac:	2f316806 	svccs	0x00316806
     bb0:	31324d4b 	teqcc	r2, fp, asr #26
     bb4:	2f4c4b30 	svccs	0x004c4b30
     bb8:	842f2f6a 	strthi	r2, [pc], #-3946	; bc0 <_start-0x7440>
     bbc:	0008022f 	andeq	r0, r8, pc, lsr #4
     bc0:	01880101 	orreq	r0, r8, r1, lsl #2
     bc4:	00020000 	andeq	r0, r2, r0
     bc8:	000000ca 	andeq	r0, r0, sl, asr #1
     bcc:	0efb0102 	cdpeq	1, 15, cr0, cr11, cr2, {0}
     bd0:	0101000d 	tsteq	r1, sp
     bd4:	00000101 	andeq	r0, r0, r1, lsl #2
     bd8:	00000100 	andeq	r0, r0, r0, lsl #2
     bdc:	2d796d01 	ldclcs	13, cr6, [r9, #-4]!
     be0:	00637273 	rsbeq	r7, r3, r3, ror r2
     be4:	6573552f 	ldrbvs	r5, [r3, #-1327]!	; 0x52f
     be8:	622f7372 	eorvs	r7, pc, #-939524095	; 0xc8000001
     bec:	6e616972 	mcrvs	9, 3, r6, cr1, cr2, {3}
     bf0:	2f6e756a 	svccs	0x006e756a
     bf4:	6b736544 	blvs	1cda10c <__bss_end__+0x1ccb7cc>
     bf8:	2f706f74 	svccs	0x00706f74
     bfc:	6f686373 	svcvs	0x00686373
     c00:	572f6c6f 	strpl	r6, [pc, -pc, ror #24]!
     c04:	65746e69 	ldrbvs	r6, [r4, #-3689]!	; 0xe69
     c08:	32393172 	eorscc	r3, r9, #-2147483620	; 0x8000001c
     c0c:	53432f30 	movtpl	r2, #16176	; 0x3f30
     c10:	45303431 	ldrmi	r3, [r0, #-1073]!	; 0x431
     c14:	3173632f 	cmncc	r3, pc, lsr #6
     c18:	2d653034 	stclcs	0, cr3, [r5, #-208]!	; 0xffffff30
     c1c:	69773032 	ldmdbvs	r7!, {r1, r4, r5, ip, sp}^
     c20:	696c2f6e 	stmdbvs	ip!, {r1, r2, r3, r5, r6, r8, r9, sl, fp, sp}^
     c24:	2f697062 	svccs	0x00697062
     c28:	34317363 	ldrtcc	r7, [r1], #-867	; 0x363
     c2c:	732d6530 	teqvc	sp, #48, 10	; 0xc000000
     c30:	2f006372 	svccs	0x00006372
     c34:	72657355 	rsbvc	r7, r5, #1409286145	; 0x54000001
     c38:	72622f73 	rsbvc	r2, r2, #460	; 0x1cc
     c3c:	6a6e6169 	bvs	1b991e8 <__bss_end__+0x1b8a8a8>
     c40:	442f6e75 	strtmi	r6, [pc], #-3701	; c48 <_start-0x73b8>
     c44:	746b7365 	strbtvc	r7, [fp], #-869	; 0x365
     c48:	732f706f 	teqvc	pc, #111	; 0x6f
     c4c:	6f6f6863 	svcvs	0x006f6863
     c50:	69572f6c 	ldmdbvs	r7, {r2, r3, r5, r6, r8, r9, sl, fp, sp}^
     c54:	7265746e 	rsbvc	r7, r5, #1845493760	; 0x6e000000
     c58:	30323931 	eorscc	r3, r2, r1, lsr r9
     c5c:	3153432f 	cmpcc	r3, pc, lsr #6
     c60:	2f453034 	svccs	0x00453034
     c64:	34317363 	ldrtcc	r7, [r1], #-867	; 0x363
     c68:	322d6530 	eorcc	r6, sp, #48, 10	; 0xc000000
     c6c:	6e697730 	mcrvs	7, 3, r7, cr9, cr0, {1}
     c70:	62696c2f 	rsbvs	r6, r9, #12032	; 0x2f00
     c74:	00006970 	andeq	r6, r0, r0, ror r9
     c78:	6f697067 	svcvs	0x00697067
     c7c:	0100632e 	tsteq	r0, lr, lsr #6
     c80:	70670000 	rsbvc	r0, r7, r0
     c84:	682e6f69 	stmdavs	lr!, {r0, r3, r5, r6, r8, r9, sl, fp, sp, lr}
     c88:	00000200 	andeq	r0, r0, r0, lsl #4
     c8c:	2e697072 	mcrcs	0, 3, r7, cr9, cr2, {3}
     c90:	00030068 	andeq	r0, r3, r8, rrx
     c94:	05000000 	streq	r0, [r0, #-0]
     c98:	008f0002 	addeq	r0, pc, r2
     c9c:	013e0300 	teqeq	lr, r0, lsl #6
     ca0:	0869504e 	stmdaeq	r9!, {r1, r2, r3, r6, ip, lr}^
     ca4:	67676721 	strbvs	r6, [r7, -r1, lsr #14]!
     ca8:	32676767 	rsbcc	r6, r7, #27000832	; 0x19c0000
     cac:	dc22084b 	stcle	8, cr0, [r2], #-300	; 0xfffffed4
     cb0:	4e135131 	mrcmi	1, 0, r5, cr3, cr1, {1}
     cb4:	31be3050 			; <UNDEFINED> instruction: 0x31be3050
     cb8:	4f4d1350 	svcmi	0x004d1350
     cbc:	504cc030 	subpl	ip, ip, r0, lsr r0
     cc0:	67210869 	strvs	r0, [r1, -r9, ror #16]!
     cc4:	67676767 	strbvs	r6, [r7, -r7, ror #14]!
     cc8:	084b3267 	stmdaeq	fp, {r0, r1, r2, r5, r6, r9, ip, sp}^
     ccc:	504ca421 	subpl	sl, ip, r1, lsr #8
     cd0:	0369842f 	cmneq	r9, #788529152	; 0x2f000000
     cd4:	0c038275 	sfmeq	f0, 1, [r3], {117}	; 0x75
     cd8:	4e304d2e 	cdpmi	13, 3, cr4, cr0, cr14, {1}
     cdc:	4a7f9803 	bmi	1fe6cf0 <__bss_end__+0x1fd83b0>
     ce0:	504e1351 	subpl	r1, lr, r1, asr r3
     ce4:	1350a530 	cmpne	r0, #48, 10	; 0xc000000
     ce8:	03304f4d 	teqeq	r0, #308	; 0x134
     cec:	6aba00c2 	bvs	fee80ffc <__bss_end__+0xfee726bc>
     cf0:	2108696b 	tstcs	r8, fp, ror #18
     cf4:	67676767 	strbvs	r6, [r7, -r7, ror #14]!
     cf8:	4b326767 	blmi	c9aa9c <__bss_end__+0xc8c15c>
     cfc:	1a032208 	bne	c9524 <__bss_end__+0xbabe4>
     d00:	4c9f31ba 	ldfmis	f3, [pc], {186}	; 0xba
     d04:	4e4d522f 	cdpmi	2, 4, cr5, cr13, cr15, {1}
     d08:	4b674b2f 	blmi	19d39cc <__bss_end__+0x19c508c>
     d0c:	4c676768 	stclmi	7, cr6, [r7], #-416	; 0xfffffe60
     d10:	4b2f672f 	blmi	bda9d4 <__bss_end__+0xbcc094>
     d14:	2f4e4c6e 	svccs	0x004e4c6e
     d18:	684b674b 	stmdavs	fp, {r0, r1, r3, r6, r8, r9, sl, sp, lr}^
     d1c:	2f4c6767 	svccs	0x004c6767
     d20:	6d4b2f67 	stclvs	15, cr2, [fp, #-412]	; 0xfffffe64
     d24:	4b2f4e4b 	blmi	bd4658 <__bss_end__+0xbc5d18>
     d28:	04020067 	streq	r0, [r2], #-103	; 0x67
     d2c:	06660601 	strbteq	r0, [r6], -r1, lsl #12
     d30:	002f9f68 	eoreq	r9, pc, r8, ror #30
     d34:	06010402 	streq	r0, [r1], -r2, lsl #8
     d38:	2f68064a 	svccs	0x0068064a
     d3c:	034a7303 	movteq	r7, #41731	; 0xa303
     d40:	4c4d2e0e 	mcrrmi	14, 0, r2, sp, cr14
     d44:	bc4b2f4e 	mcrrlt	15, 4, r2, fp, cr14
     d48:	000602bc 			; <UNDEFINED> instruction: 0x000602bc
     d4c:	03450101 	movteq	r0, #20737	; 0x5101
     d50:	00020000 	andeq	r0, r2, r0
     d54:	000001bd 			; <UNDEFINED> instruction: 0x000001bd
     d58:	0efb0102 	cdpeq	1, 15, cr0, cr11, cr2, {0}
     d5c:	0101000d 	tsteq	r1, sp
     d60:	00000101 	andeq	r0, r0, r1, lsl #2
     d64:	00000100 	andeq	r0, r0, r0, lsl #2
     d68:	2d796d01 	ldclcs	13, cr6, [r9, #-4]!
     d6c:	00637273 	rsbeq	r7, r3, r3, ror r2
     d70:	6573552f 	ldrbvs	r5, [r3, #-1327]!	; 0x52f
     d74:	622f7372 	eorvs	r7, pc, #-939524095	; 0xc8000001
     d78:	6e616972 	mcrvs	9, 3, r6, cr1, cr2, {3}
     d7c:	2f6e756a 	svccs	0x006e756a
     d80:	6b736544 	blvs	1cda298 <__bss_end__+0x1ccb958>
     d84:	2f706f74 	svccs	0x00706f74
     d88:	6f686373 	svcvs	0x00686373
     d8c:	572f6c6f 	strpl	r6, [pc, -pc, ror #24]!
     d90:	65746e69 	ldrbvs	r6, [r4, #-3689]!	; 0xe69
     d94:	32393172 	eorscc	r3, r9, #-2147483620	; 0x8000001c
     d98:	53432f30 	movtpl	r2, #16176	; 0x3f30
     d9c:	45303431 	ldrmi	r3, [r0, #-1073]!	; 0x431
     da0:	3173632f 	cmncc	r3, pc, lsr #6
     da4:	2d653034 	stclcs	0, cr3, [r5, #-208]!	; 0xffffff30
     da8:	69773032 	ldmdbvs	r7!, {r1, r4, r5, ip, sp}^
     dac:	696c2f6e 	stmdbvs	ip!, {r1, r2, r3, r5, r6, r8, r9, sl, fp, sp}^
     db0:	2f697062 	svccs	0x00697062
     db4:	34317363 	ldrtcc	r7, [r1], #-867	; 0x363
     db8:	732d6530 	teqvc	sp, #48, 10	; 0xc000000
     dbc:	2f006372 	svccs	0x00006372
     dc0:	2f727375 	svccs	0x00727375
     dc4:	61636f6c 	cmnvs	r3, ip, ror #30
     dc8:	65432f6c 	strbvs	r2, [r3, #-3948]	; 0xf6c
     dcc:	72616c6c 	rsbvc	r6, r1, #108, 24	; 0x6c00
     dd0:	6d72612f 	ldfvse	f6, [r2, #-188]!	; 0xffffff44
     dd4:	6e6f6e2d 	cdpvs	14, 6, cr6, cr15, cr13, {1}
     dd8:	61652d65 	cmnvs	r5, r5, ror #26
     ddc:	342f6962 	strtcc	r6, [pc], #-2402	; de4 <_start-0x721c>
     de0:	332e382e 	teqcc	lr, #3014656	; 0x2e0000
     de4:	3173632d 	cmncc	r3, sp, lsr #6
     de8:	2f653037 	svccs	0x00653037
     dec:	2f62696c 	svccs	0x0062696c
     df0:	2f636367 	svccs	0x00636367
     df4:	2d6d7261 	sfmcs	f7, 2, [sp, #-388]!	; 0xfffffe7c
     df8:	656e6f6e 	strbvs	r6, [lr, #-3950]!	; 0xf6e
     dfc:	6261652d 	rsbvs	r6, r1, #188743680	; 0xb400000
     e00:	2e342f69 	cdpcs	15, 3, cr2, cr4, cr9, {3}
     e04:	2f332e38 	svccs	0x00332e38
     e08:	6c636e69 	stclvs	14, cr6, [r3], #-420	; 0xfffffe5c
     e0c:	00656475 	rsbeq	r6, r5, r5, ror r4
     e10:	6573552f 	ldrbvs	r5, [r3, #-1327]!	; 0x52f
     e14:	622f7372 	eorvs	r7, pc, #-939524095	; 0xc8000001
     e18:	6e616972 	mcrvs	9, 3, r6, cr1, cr2, {3}
     e1c:	2f6e756a 	svccs	0x006e756a
     e20:	6b736544 	blvs	1cda338 <__bss_end__+0x1ccb9f8>
     e24:	2f706f74 	svccs	0x00706f74
     e28:	6f686373 	svcvs	0x00686373
     e2c:	572f6c6f 	strpl	r6, [pc, -pc, ror #24]!
     e30:	65746e69 	ldrbvs	r6, [r4, #-3689]!	; 0xe69
     e34:	32393172 	eorscc	r3, r9, #-2147483620	; 0x8000001c
     e38:	53432f30 	movtpl	r2, #16176	; 0x3f30
     e3c:	45303431 	ldrmi	r3, [r0, #-1073]!	; 0x431
     e40:	3173632f 	cmncc	r3, pc, lsr #6
     e44:	2d653034 	stclcs	0, cr3, [r5, #-208]!	; 0xffffff30
     e48:	69773032 	ldmdbvs	r7!, {r1, r4, r5, ip, sp}^
     e4c:	696c2f6e 	stmdbvs	ip!, {r1, r2, r3, r5, r6, r8, r9, sl, fp, sp}^
     e50:	00697062 	rsbeq	r7, r9, r2, rrx
     e54:	6573552f 	ldrbvs	r5, [r3, #-1327]!	; 0x52f
     e58:	622f7372 	eorvs	r7, pc, #-939524095	; 0xc8000001
     e5c:	6e616972 	mcrvs	9, 3, r6, cr1, cr2, {3}
     e60:	2f6e756a 	svccs	0x006e756a
     e64:	6b736544 	blvs	1cda37c <__bss_end__+0x1ccba3c>
     e68:	2f706f74 	svccs	0x00706f74
     e6c:	6f686373 	svcvs	0x00686373
     e70:	572f6c6f 	strpl	r6, [pc, -pc, ror #24]!
     e74:	65746e69 	ldrbvs	r6, [r4, #-3689]!	; 0xe69
     e78:	32393172 	eorscc	r3, r9, #-2147483620	; 0x8000001c
     e7c:	53432f30 	movtpl	r2, #16176	; 0x3f30
     e80:	45303431 	ldrmi	r3, [r0, #-1073]!	; 0x431
     e84:	3173632f 	cmncc	r3, pc, lsr #6
     e88:	2d653034 	stclcs	0, cr3, [r5, #-208]!	; 0xffffff30
     e8c:	69773032 	ldmdbvs	r7!, {r1, r4, r5, ip, sp}^
     e90:	696c2f6e 	stmdbvs	ip!, {r1, r2, r3, r5, r6, r8, r9, sl, fp, sp}^
     e94:	2f697062 	svccs	0x00697062
     e98:	6362696c 	cmnvs	r2, #108, 18	; 0x1b0000
     e9c:	77730000 	ldrbvc	r0, [r3, -r0]!
     ea0:	7261752d 	rsbvc	r7, r1, #188743680	; 0xb400000
     ea4:	00632e74 	rsbeq	r2, r3, r4, ror lr
     ea8:	63000001 	movwvs	r0, #1
     eac:	656c6379 	strbvs	r6, [ip, #-889]!	; 0x379
     eb0:	6974752d 	ldmdbvs	r4!, {r0, r2, r3, r5, r8, sl, ip, sp, lr}^
     eb4:	00682e6c 	rsbeq	r2, r8, ip, ror #28
     eb8:	73000002 	movwvc	r0, #2
     ebc:	6e696474 	mcrvs	4, 3, r6, cr9, cr4, {3}
     ec0:	63672d74 	cmnvs	r7, #116, 26	; 0x1d00
     ec4:	00682e63 	rsbeq	r2, r8, r3, ror #28
     ec8:	73000003 	movwvc	r0, #3
     ecc:	61752d77 	cmnvs	r5, r7, ror sp
     ed0:	682e7472 	stmdavs	lr!, {r1, r4, r5, r6, sl, ip, sp, lr}
     ed4:	00000200 	andeq	r0, r0, r0, lsl #4
     ed8:	61647473 	smcvs	18243	; 0x4743
     edc:	682e6772 	stmdavs	lr!, {r1, r4, r5, r6, r8, r9, sl, sp, lr}
     ee0:	00000300 	andeq	r0, r0, r0, lsl #6
     ee4:	6f697067 	svcvs	0x00697067
     ee8:	0200682e 	andeq	r6, r0, #3014656	; 0x2e0000
     eec:	70720000 	rsbsvc	r0, r2, r0
     ef0:	00682e69 	rsbeq	r2, r8, r9, ror #28
     ef4:	76000004 	strvc	r0, [r0], -r4
     ef8:	72702d61 	rsbsvc	r2, r0, #6208	; 0x1840
     efc:	6b746e69 	blvs	1d1c8a8 <__bss_end__+0x1d0df68>
     f00:	0500682e 	streq	r6, [r0, #-2094]	; 0x82e
     f04:	623c0000 	eorsvs	r0, ip, #0
     f08:	746c6975 	strbtvc	r6, [ip], #-2421	; 0x975
     f0c:	3e6e692d 	cdpcc	9, 6, cr6, cr14, cr13, {1}
     f10:	00000000 	andeq	r0, r0, r0
     f14:	02050000 	andeq	r0, r5, #0
     f18:	000094bc 			; <UNDEFINED> instruction: 0x000094bc
     f1c:	302f4c1a 	eorcc	r4, pc, sl, lsl ip	; <UNPREDICTABLE>
     f20:	0b030204 	bleq	c1738 <__bss_end__+0xb2df8>
     f24:	6673032e 	ldrbtvs	r0, [r3], -lr, lsr #6
     f28:	04880104 	streq	r0, [r8], #260	; 0x104
     f2c:	73033502 	movwvc	r3, #13570	; 0x3502
     f30:	8a010466 	bhi	420d0 <__bss_end__+0x33790>
     f34:	03330204 	teqeq	r3, #4, 4	; 0x40000000
     f38:	01046673 	tsteq	r4, r3, ror r6
     f3c:	04820a03 	streq	r0, [r2], #2563	; 0xa03
     f40:	73033102 	movwvc	r3, #12546	; 0x3102
     f44:	03010466 	movweq	r0, #5222	; 0x1466
     f48:	0204820c 	andeq	r8, r4, #12, 4	; 0xc0000000
     f4c:	6673032f 	ldrbtvs	r0, [r3], -pc, lsr #6
     f50:	0e030104 	adfeqs	f0, f3, f4
     f54:	2d020482 	cfstrscs	mvf0, [r2, #-520]	; 0xfffffdf8
     f58:	04667303 	strbteq	r7, [r6], #-771	; 0x303
     f5c:	82100301 	andshi	r0, r0, #67108864	; 0x4000000
     f60:	032b0204 	teqeq	fp, #4, 4	; 0x40000000
     f64:	01046673 	tsteq	r4, r3, ror r6
     f68:	04821203 	streq	r1, [r2], #515	; 0x203
     f6c:	73032902 	movwvc	r2, #14594	; 0x3902
     f70:	03010466 	movweq	r0, #5222	; 0x1466
     f74:	02048214 	andeq	r8, r4, #20, 4	; 0x40000001
     f78:	032e7903 	teqeq	lr, #49152	; 0xc000
     f7c:	01046673 	tsteq	r4, r3, ror r6
     f80:	04821603 	streq	r1, [r2], #1539	; 0x603
     f84:	2e770302 	cdpcs	3, 7, cr0, cr7, cr2, {0}
     f88:	04667303 	strbteq	r7, [r6], #-771	; 0x303
     f8c:	82180301 	andshi	r0, r8, #67108864	; 0x4000000
     f90:	4b2e1003 	blmi	b84fa4 <__bss_end__+0xb76664>
     f94:	2e70034d 	cdpcs	3, 7, cr0, cr0, cr13, {2}
     f98:	4883844c 	stmmi	r3, {r2, r3, r6, sl, pc}
     f9c:	4e2e0d03 	cdpmi	13, 2, cr0, cr14, cr3, {0}
     fa0:	02043331 	andeq	r3, r4, #-1006632960	; 0xc4000000
     fa4:	042e4803 	strteq	r4, [lr], #-2051	; 0x803
     fa8:	823a0301 	eorshi	r0, sl, #67108864	; 0x4000000
     fac:	0302042f 	movweq	r0, #9263	; 0x242f
     fb0:	01046645 	tsteq	r4, r5, asr #12
     fb4:	2f823d03 	svccs	0x00823d03
     fb8:	42030204 	andmi	r0, r3, #4, 4	; 0x40000000
     fbc:	03010482 	movweq	r0, #5250	; 0x1482
     fc0:	2f8200c0 	svccs	0x008200c0
     fc4:	bf030204 	svclt	0x00030204
     fc8:	0104827f 	tsteq	r4, pc, ror r2
     fcc:	8200c303 	andhi	ip, r0, #201326592	; 0xc000000
     fd0:	0302042f 	movweq	r0, #9263	; 0x242f
     fd4:	04827fbc 	streq	r7, [r2], #4028	; 0xfbc
     fd8:	00c60301 	sbceq	r0, r6, r1, lsl #6
     fdc:	02042f82 	andeq	r2, r4, #520	; 0x208
     fe0:	827fb903 	rsbshi	fp, pc, #49152	; 0xc000
     fe4:	c9030104 	stmdbgt	r3, {r2, r8}
     fe8:	042f8200 	strteq	r8, [pc], #-512	; ff0 <_start-0x7010>
     fec:	7fb60302 	svcvc	0x00b60302
     ff0:	03010482 	movweq	r0, #5250	; 0x1482
     ff4:	2f8200cc 	svccs	0x008200cc
     ff8:	b3030204 	movwlt	r0, #12804	; 0x3204
     ffc:	0104827f 	tsteq	r4, pc, ror r2
    1000:	8200d003 	andhi	sp, r0, #3
    1004:	4c824c03 	stcmi	12, cr4, [r2], {3}
    1008:	03488384 	movteq	r8, #33668	; 0x8384
    100c:	034e2e36 	movteq	r2, #60982	; 0xee36
    1010:	29034a54 	stmdbcs	r3, {r2, r4, r6, r9, fp, lr}
    1014:	9f34324a 	svcls	0x0034324a
    1018:	01040200 	mrseq	r0, R12_usr
    101c:	bb064a06 	bllt	19383c <__bss_end__+0x184efc>
    1020:	2cbb4b4e 	vldmiacs	fp!, {d4-<overflow reg d42>}
    1024:	01040200 	mrseq	r0, R12_usr
    1028:	6d062e06 	stcvs	14, cr2, [r6, #-24]	; 0xffffffe8
    102c:	0084a44c 	addeq	sl, r4, ip, asr #8
    1030:	06010402 	streq	r0, [r1], -r2, lsl #8
    1034:	4dbb064a 	ldcmi	6, cr0, [fp, #296]!	; 0x128
    1038:	02040200 	andeq	r0, r4, #0, 4
    103c:	0402004b 	streq	r0, [r2], #-75	; 0x4b
    1040:	02008102 	andeq	r8, r0, #-2147483648	; 0x80000000
    1044:	2e060104 	adfcss	f0, f6, f4
    1048:	a54c4d06 	strbge	r4, [ip, #-3334]	; 0xd06
    104c:	4b4b4bbc 	blmi	12d3f44 <__bss_end__+0x12c5604>
    1050:	02002f6a 	andeq	r2, r0, #424	; 0x1a8
    1054:	82060104 	andhi	r0, r6, #4, 2
    1058:	04020082 	streq	r0, [r2], #-130	; 0x82
    105c:	02009e04 	andeq	r9, r0, #4, 28	; 0x40
    1060:	064a0104 	strbeq	r0, [sl], -r4, lsl #2
    1064:	2fbd88bd 	svccs	0x00bd88bd
    1068:	24084b4b 	strcs	r4, [r8], #-2891	; 0xb4b
    106c:	04020067 	streq	r0, [r2], #-103	; 0x67
    1070:	02002f02 	andeq	r2, r0, #2, 30
    1074:	00490204 	subeq	r0, r9, r4, lsl #4
    1078:	06010402 	streq	r0, [r1], -r2, lsl #8
    107c:	3468062e 	strbtcc	r0, [r8], #-1582	; 0x62e
    1080:	00a04b86 	adceq	r4, r0, r6, lsl #23
    1084:	06010402 	streq	r0, [r1], -r2, lsl #8
    1088:	68bb0666 	ldmvs	fp!, {r1, r2, r5, r6, r9, sl}
    108c:	674b2208 	strbvs	r2, [fp, -r8, lsl #4]
    1090:	0a02bc4b 	beq	b01c4 <__bss_end__+0xa1884>
    1094:	01010100 	mrseq	r0, (UNDEF: 17)
    1098:	02000001 	andeq	r0, r0, #1
    109c:	0000ca00 	andeq	ip, r0, r0, lsl #20
    10a0:	fb010200 	blx	418aa <__bss_end__+0x32f6a>
    10a4:	01000d0e 	tsteq	r0, lr, lsl #26
    10a8:	00010101 	andeq	r0, r1, r1, lsl #2
    10ac:	00010000 	andeq	r0, r1, r0
    10b0:	796d0100 	stmdbvc	sp!, {r8}^
    10b4:	6372732d 	cmnvs	r2, #-1275068416	; 0xb4000000
    10b8:	73552f00 	cmpvc	r5, #0, 30
    10bc:	2f737265 	svccs	0x00737265
    10c0:	61697262 	cmnvs	r9, r2, ror #4
    10c4:	6e756a6e 	vsubvs.f32	s13, s10, s29
    10c8:	7365442f 	cmnvc	r5, #788529152	; 0x2f000000
    10cc:	706f746b 	rsbvc	r7, pc, fp, ror #8
    10d0:	6863732f 	stmdavs	r3!, {r0, r1, r2, r3, r5, r8, r9, ip, sp, lr}^
    10d4:	2f6c6f6f 	svccs	0x006c6f6f
    10d8:	746e6957 	strbtvc	r6, [lr], #-2391	; 0x957
    10dc:	39317265 	ldmdbcc	r1!, {r0, r2, r5, r6, r9, ip, sp, lr}
    10e0:	432f3032 	teqmi	pc, #50	; 0x32
    10e4:	30343153 	eorscc	r3, r4, r3, asr r1
    10e8:	73632f45 	cmnvc	r3, #276	; 0x114
    10ec:	65303431 	ldrvs	r3, [r0, #-1073]!	; 0x431
    10f0:	7730322d 	ldrvc	r3, [r0, -sp, lsr #4]!
    10f4:	6c2f6e69 	stcvs	14, cr6, [pc], #-420	; f58 <_start-0x70a8>
    10f8:	69706269 	ldmdbvs	r0!, {r0, r3, r5, r6, r9, sp, lr}^
    10fc:	3173632f 	cmncc	r3, pc, lsr #6
    1100:	2d653034 	stclcs	0, cr3, [r5, #-208]!	; 0xffffff30
    1104:	00637273 	rsbeq	r7, r3, r3, ror r2
    1108:	6573552f 	ldrbvs	r5, [r3, #-1327]!	; 0x52f
    110c:	622f7372 	eorvs	r7, pc, #-939524095	; 0xc8000001
    1110:	6e616972 	mcrvs	9, 3, r6, cr1, cr2, {3}
    1114:	2f6e756a 	svccs	0x006e756a
    1118:	6b736544 	blvs	1cda630 <__bss_end__+0x1ccbcf0>
    111c:	2f706f74 	svccs	0x00706f74
    1120:	6f686373 	svcvs	0x00686373
    1124:	572f6c6f 	strpl	r6, [pc, -pc, ror #24]!
    1128:	65746e69 	ldrbvs	r6, [r4, #-3689]!	; 0xe69
    112c:	32393172 	eorscc	r3, r9, #-2147483620	; 0x8000001c
    1130:	53432f30 	movtpl	r2, #16176	; 0x3f30
    1134:	45303431 	ldrmi	r3, [r0, #-1073]!	; 0x431
    1138:	3173632f 	cmncc	r3, pc, lsr #6
    113c:	2d653034 	stclcs	0, cr3, [r5, #-208]!	; 0xffffff30
    1140:	69773032 	ldmdbvs	r7!, {r1, r4, r5, ip, sp}^
    1144:	696c2f6e 	stmdbvs	ip!, {r1, r2, r3, r5, r6, r8, r9, sl, fp, sp}^
    1148:	00697062 	rsbeq	r7, r9, r2, rrx
    114c:	72617500 	rsbvc	r7, r1, #0, 10
    1150:	00632e74 	rsbeq	r2, r3, r4, ror lr
    1154:	67000001 	strvs	r0, [r0, -r1]
    1158:	2e6f6970 	mcrcs	9, 3, r6, cr15, cr0, {3}
    115c:	00020068 	andeq	r0, r2, r8, rrx
    1160:	69707200 	ldmdbvs	r0!, {r9, ip, sp, lr}^
    1164:	0300682e 	movweq	r6, #2094	; 0x82e
    1168:	00000000 	andeq	r0, r0, r0
    116c:	9ac40205 	bls	ff101988 <__bss_end__+0xff0f3048>
    1170:	36030000 	strcc	r0, [r3], -r0
    1174:	67333001 	ldrvs	r3, [r3, -r1]!
    1178:	30d8306d 	sbcscc	r3, r8, sp, rrx
    117c:	67676767 	strbvs	r6, [r7, -r7, ror #14]!
    1180:	2f866867 	svccs	0x00866867
    1184:	67306a67 	ldrvs	r6, [r0, -r7, ror #20]!
    1188:	672f6967 	strvs	r6, [pc, -r7, ror #18]!
    118c:	c1674c6a 	cmngt	r7, sl, ror #24
    1190:	2f302f2f 	svccs	0x00302f2f
    1194:	02304968 	eorseq	r4, r0, #104, 18	; 0x1a0000
    1198:	01010002 	tsteq	r1, r2
    119c:	000000d6 	ldrdeq	r0, [r0], -r6
    11a0:	00970002 	addseq	r0, r7, r2
    11a4:	01020000 	mrseq	r0, (UNDEF: 2)
    11a8:	000d0efb 	strdeq	r0, [sp], -fp
    11ac:	01010101 	tsteq	r1, r1, lsl #2
    11b0:	01000000 	mrseq	r0, (UNDEF: 0)
    11b4:	63010000 	movwvs	r0, #4096	; 0x1000
    11b8:	30343173 	eorscc	r3, r4, r3, ror r1
    11bc:	6e692d65 	cdpvs	13, 6, cr2, cr9, cr5, {3}
    11c0:	72726574 	rsbsvc	r6, r2, #116, 10	; 0x1d000000
    11c4:	00747075 	rsbseq	r7, r4, r5, ror r0
    11c8:	6573552f 	ldrbvs	r5, [r3, #-1327]!	; 0x52f
    11cc:	622f7372 	eorvs	r7, pc, #-939524095	; 0xc8000001
    11d0:	6e616972 	mcrvs	9, 3, r6, cr1, cr2, {3}
    11d4:	2f6e756a 	svccs	0x006e756a
    11d8:	6b736544 	blvs	1cda6f0 <__bss_end__+0x1ccbdb0>
    11dc:	2f706f74 	svccs	0x00706f74
    11e0:	6f686373 	svcvs	0x00686373
    11e4:	572f6c6f 	strpl	r6, [pc, -pc, ror #24]!
    11e8:	65746e69 	ldrbvs	r6, [r4, #-3689]!	; 0xe69
    11ec:	32393172 	eorscc	r3, r9, #-2147483620	; 0x8000001c
    11f0:	53432f30 	movtpl	r2, #16176	; 0x3f30
    11f4:	45303431 	ldrmi	r3, [r0, #-1073]!	; 0x431
    11f8:	3173632f 	cmncc	r3, pc, lsr #6
    11fc:	2d653034 	stclcs	0, cr3, [r5, #-208]!	; 0xffffff30
    1200:	69773032 	ldmdbvs	r7!, {r1, r4, r5, ip, sp}^
    1204:	696c2f6e 	stmdbvs	ip!, {r1, r2, r3, r5, r6, r8, r9, sl, fp, sp}^
    1208:	00697062 	rsbeq	r7, r9, r2, rrx
    120c:	746e6900 	strbtvc	r6, [lr], #-2304	; 0x900
    1210:	75727265 	ldrbvc	r7, [r2, #-613]!	; 0x265
    1214:	2d737470 	cfldrdcs	mvd7, [r3, #-448]!	; 0xfffffe40
    1218:	00632e63 	rsbeq	r2, r3, r3, ror #28
    121c:	72000001 	andvc	r0, r0, #1
    1220:	682e6970 	stmdavs	lr!, {r4, r5, r6, r8, fp, sp, lr}
    1224:	00000200 	andeq	r0, r0, r0, lsl #4
    1228:	2d697072 	stclcs	0, cr7, [r9, #-456]!	; 0xfffffe38
    122c:	65746e69 	ldrbvs	r6, [r4, #-3689]!	; 0xe69
    1230:	70757272 	rsbsvc	r7, r5, r2, ror r2
    1234:	682e7374 	stmdavs	lr!, {r2, r4, r5, r6, r8, r9, ip, sp, lr}
    1238:	00000100 	andeq	r0, r0, r0, lsl #2
    123c:	02050000 	andeq	r0, r5, #0
    1240:	00009c18 	andeq	r9, r0, r8, lsl ip
    1244:	67673116 			; <UNDEFINED> instruction: 0x67673116
    1248:	832e0e03 	teqhi	lr, #3, 28	; 0x30
    124c:	02002d2f 	andeq	r2, r0, #3008	; 0xbc0
    1250:	002f0204 	eoreq	r0, pc, r4, lsl #4
    1254:	65020402 	strvs	r0, [r2, #-1026]	; 0x402
    1258:	01040200 	mrseq	r0, R12_usr
    125c:	4c062e06 	stcmi	14, cr2, [r6], {6}
    1260:	94084ba2 	strls	r4, [r8], #-2978	; 0xba2
    1264:	4b92084b 	blmi	fe483398 <__bss_end__+0xfe474a58>
    1268:	084b9208 	stmdaeq	fp, {r3, r9, ip, pc}^
    126c:	92084b92 	andls	r4, r8, #149504	; 0x24800
    1270:	001a024b 	andseq	r0, sl, fp, asr #4
    1274:	00860101 	addeq	r0, r6, r1, lsl #2
    1278:	00020000 	andeq	r0, r2, r0
    127c:	00000072 	andeq	r0, r0, r2, ror r0
    1280:	0efb0102 	cdpeq	1, 15, cr0, cr11, cr2, {0}
    1284:	0101000d 	tsteq	r1, sp
    1288:	00000101 	andeq	r0, r0, r1, lsl #2
    128c:	00000100 	andeq	r0, r0, r0, lsl #2
    1290:	62696c01 	rsbvs	r6, r9, #256	; 0x100
    1294:	552f0063 	strpl	r0, [pc, #-99]!	; 1239 <_start-0x6dc7>
    1298:	73726573 	cmnvc	r2, #482344960	; 0x1cc00000
    129c:	6972622f 	ldmdbvs	r2!, {r0, r1, r2, r3, r5, r9, sp, lr}^
    12a0:	756a6e61 	strbvc	r6, [sl, #-3681]!	; 0xe61
    12a4:	65442f6e 	strbvs	r2, [r4, #-3950]	; 0xf6e
    12a8:	6f746b73 	svcvs	0x00746b73
    12ac:	63732f70 	cmnvs	r3, #112, 30	; 0x1c0
    12b0:	6c6f6f68 	stclvs	15, cr6, [pc], #-416	; 1118 <_start-0x6ee8>
    12b4:	6e69572f 	cdpvs	7, 6, cr5, cr9, cr15, {1}
    12b8:	31726574 	cmncc	r2, r4, ror r5
    12bc:	2f303239 	svccs	0x00303239
    12c0:	34315343 	ldrtcc	r5, [r1], #-835	; 0x343
    12c4:	632f4530 	teqvs	pc, #48, 10	; 0xc000000
    12c8:	30343173 	eorscc	r3, r4, r3, ror r1
    12cc:	30322d65 	eorscc	r2, r2, r5, ror #26
    12d0:	2f6e6977 	svccs	0x006e6977
    12d4:	7062696c 	rsbvc	r6, r2, ip, ror #18
    12d8:	70000069 	andvc	r0, r0, r9, rrx
    12dc:	68637475 	stmdavs	r3!, {r0, r2, r4, r5, r6, sl, ip, sp, lr}^
    12e0:	632e7261 	teqvs	lr, #268435462	; 0x10000006
    12e4:	00000100 	andeq	r0, r0, r0, lsl #2
    12e8:	2e697072 	mcrcs	0, 3, r7, cr9, cr2, {3}
    12ec:	00020068 	andeq	r0, r2, r8, rrx
    12f0:	05000000 	streq	r0, [r0, #-0]
    12f4:	009f2402 	addseq	r2, pc, r2, lsl #8
    12f8:	024a1400 	subeq	r1, sl, #0, 8
    12fc:	01010006 	tsteq	r1, r6
    1300:	00000128 	andeq	r0, r0, r8, lsr #2
    1304:	010d0002 	tsteq	sp, r2
    1308:	01020000 	mrseq	r0, (UNDEF: 2)
    130c:	000d0efb 	strdeq	r0, [sp], -fp
    1310:	01010101 	tsteq	r1, r1, lsl #2
    1314:	01000000 	mrseq	r0, (UNDEF: 0)
    1318:	63010000 	movwvs	r0, #4096	; 0x1000
    131c:	30343173 	eorscc	r3, r4, r3, ror r1
    1320:	72732d65 	rsbsvc	r2, r3, #6464	; 0x1940
    1324:	752f0063 	strvc	r0, [pc, #-99]!	; 12c9 <_start-0x6d37>
    1328:	6c2f7273 	sfmvs	f7, 4, [pc], #-460	; 1164 <_start-0x6e9c>
    132c:	6c61636f 	stclvs	3, cr6, [r1], #-444	; 0xfffffe44
    1330:	6c65432f 	stclvs	3, cr4, [r5], #-188	; 0xffffff44
    1334:	2f72616c 	svccs	0x0072616c
    1338:	2d6d7261 	sfmcs	f7, 2, [sp, #-388]!	; 0xfffffe7c
    133c:	656e6f6e 	strbvs	r6, [lr, #-3950]!	; 0xf6e
    1340:	6261652d 	rsbvs	r6, r1, #188743680	; 0xb400000
    1344:	2e342f69 	cdpcs	15, 3, cr2, cr4, cr9, {3}
    1348:	2d332e38 	ldccs	14, cr2, [r3, #-224]!	; 0xffffff20
    134c:	37317363 	ldrcc	r7, [r1, -r3, ror #6]!
    1350:	6c2f6530 	cfstr32vs	mvfx6, [pc], #-192	; 1298 <_start-0x6d68>
    1354:	672f6269 	strvs	r6, [pc, -r9, ror #4]!
    1358:	612f6363 	teqvs	pc, r3, ror #6
    135c:	6e2d6d72 	mcrvs	13, 1, r6, cr13, cr2, {3}
    1360:	2d656e6f 	stclcs	14, cr6, [r5, #-444]!	; 0xfffffe44
    1364:	69626165 	stmdbvs	r2!, {r0, r2, r5, r6, r8, sp, lr}^
    1368:	382e342f 	stmdacc	lr!, {r0, r1, r2, r3, r5, sl, ip, sp}
    136c:	692f332e 	stmdbvs	pc!, {r1, r2, r3, r5, r8, r9, ip, sp}	; <UNPREDICTABLE>
    1370:	756c636e 	strbvc	r6, [ip, #-878]!	; 0x36e
    1374:	2f006564 	svccs	0x00006564
    1378:	2f727375 	svccs	0x00727375
    137c:	61636f6c 	cmnvs	r3, ip, ror #30
    1380:	65432f6c 	strbvs	r2, [r3, #-3948]	; 0xf6c
    1384:	72616c6c 	rsbvc	r6, r1, #108, 24	; 0x6c00
    1388:	6d72612f 	ldfvse	f6, [r2, #-188]!	; 0xffffff44
    138c:	6e6f6e2d 	cdpvs	14, 6, cr6, cr15, cr13, {1}
    1390:	61652d65 	cmnvs	r5, r5, ror #26
    1394:	342f6962 	strtcc	r6, [pc], #-2402	; 139c <_start-0x6c64>
    1398:	332e382e 	teqcc	lr, #3014656	; 0x2e0000
    139c:	3173632d 	cmncc	r3, sp, lsr #6
    13a0:	2f653037 	svccs	0x00653037
    13a4:	2d6d7261 	sfmcs	f7, 2, [sp, #-388]!	; 0xfffffe7c
    13a8:	656e6f6e 	strbvs	r6, [lr, #-3950]!	; 0xf6e
    13ac:	6261652d 	rsbvs	r6, r1, #188743680	; 0xb400000
    13b0:	6e692f69 	cdpvs	15, 6, cr2, cr9, cr9, {3}
    13b4:	64756c63 	ldrbtvs	r6, [r5], #-3171	; 0xc63
    13b8:	63000065 	movwvs	r0, #101	; 0x65
    13bc:	72746e6f 	rsbsvc	r6, r4, #1776	; 0x6f0
    13c0:	622d6c6f 	eorvs	r6, sp, #28416	; 0x6f00
    13c4:	6b636f6c 	blvs	18dd17c <__bss_end__+0x18ce83c>
    13c8:	0100632e 	tsteq	r0, lr, lsr #6
    13cc:	74730000 	ldrbtvc	r0, [r3], #-0
    13d0:	66656464 	strbtvs	r6, [r5], -r4, ror #8
    13d4:	0200682e 	andeq	r6, r0, #3014656	; 0x2e0000
    13d8:	74730000 	ldrbtvc	r0, [r3], #-0
    13dc:	746e6964 	strbtvc	r6, [lr], #-2404	; 0x964
    13e0:	6363672d 	cmnvs	r3, #11796480	; 0xb40000
    13e4:	0200682e 	andeq	r6, r0, #3014656	; 0x2e0000
    13e8:	77730000 	ldrbvc	r0, [r3, -r0]!
    13ec:	7261752d 	rsbvc	r7, r1, #188743680	; 0xb400000
    13f0:	00682e74 	rsbeq	r2, r8, r4, ror lr
    13f4:	63000001 	movwvs	r0, #1
    13f8:	72746e6f 	rsbsvc	r6, r4, #1776	; 0x6f0
    13fc:	622d6c6f 	eorvs	r6, sp, #28416	; 0x6f00
    1400:	6b636f6c 	blvs	18dd1b8 <__bss_end__+0x18ce878>
    1404:	0100682e 	tsteq	r0, lr, lsr #16
    1408:	74730000 	ldrbtvc	r0, [r3], #-0
    140c:	676e6972 			; <UNDEFINED> instruction: 0x676e6972
    1410:	0300682e 	movweq	r6, #2094	; 0x82e
    1414:	00000000 	andeq	r0, r0, r0
    1418:	9f380205 	svcls	0x00380205
    141c:	30160000 	andscc	r0, r6, r0
    1420:	144c6883 	strbne	r6, [ip], #-2179	; 0x883
    1424:	022f4b9f 	eoreq	r4, pc, #162816	; 0x27c00
    1428:	01010004 	tsteq	r1, r4

Disassembly of section .debug_str:

00000000 <.debug_str>:
   0:	74726175 	ldrbtvc	r6, [r2], #-373	; 0x175
   4:	7465675f 	strbtvc	r6, [r5], #-1887	; 0x75f
   8:	6e695f63 	cdpvs	15, 6, cr5, cr9, cr3, {3}
   c:	69730074 	ldmdbvs	r3!, {r2, r4, r5, r6}^
  10:	745f657a 	ldrbvc	r6, [pc], #-1402	; 18 <_start-0x7fe8>
  14:	72617500 	rsbvc	r7, r1, #0, 10
  18:	6e695f74 	mcrvs	15, 3, r5, cr9, cr4, {3}
  1c:	695f7469 	ldmdbvs	pc, {r0, r3, r5, r6, sl, ip, sp, lr}^	; <UNPREDICTABLE>
  20:	6500746e 	strvs	r7, [r0, #-1134]	; 0x46e
  24:	726f7272 	rsbvc	r7, pc, #536870919	; 0x20000007
  28:	61665f73 	smcvs	26099	; 0x65f3
  2c:	5f6c6174 	svcpl	0x006c6174
  30:	55410070 	strbpl	r0, [r1, #-112]	; 0x70
  34:	554d5f58 	strbpl	r5, [sp, #-3928]	; 0xf58
  38:	5243535f 	subpl	r5, r3, #2080374785	; 0x7c000001
  3c:	48435441 	stmdami	r3, {r0, r6, sl, ip, lr}^
  40:	746f6e00 	strbtvc	r6, [pc], #-3584	; 48 <_start-0x7fb8>
  44:	6e69616d 	powvsez	f6, f1, #5.0
  48:	6d726100 	ldfvse	f6, [r2, #-0]
  4c:	6d69745f 	cfstrdvs	mvd7, [r9, #-380]!	; 0xfffffe84
  50:	525f7265 	subspl	r7, pc, #1342177286	; 0x50000006
  54:	52495741 	subpl	r5, r9, #17039360	; 0x1040000
  58:	6f6c0051 	svcvs	0x006c0051
  5c:	6c20676e 	stcvs	7, cr6, [r0], #-440	; 0xfffffe48
  60:	20676e6f 	rsbcs	r6, r7, pc, ror #28
  64:	69736e75 	ldmdbvs	r3!, {r0, r2, r4, r5, r6, r9, sl, fp, sp, lr}^
  68:	64656e67 	strbtvs	r6, [r5], #-3687	; 0xe67
  6c:	746e6920 	strbtvc	r6, [lr], #-2336	; 0x920
  70:	625f6300 	subsvs	r6, pc, #0, 6
  74:	47006675 	smlsdxmi	r0, r5, r6, r6
  78:	5f4f4950 	svcpl	0x004f4950
  7c:	434e5546 	movtmi	r5, #58694	; 0xe546
  80:	504e495f 	subpl	r4, lr, pc, asr r9
  84:	63005455 	movwvs	r5, #1109	; 0x455
  88:	6d655f71 	stclvs	15, cr5, [r5, #-452]!	; 0xfffffe3c
  8c:	00797470 	rsbseq	r7, r9, r0, ror r4
  90:	6c637963 	stclvs	9, cr7, [r3], #-396	; 0xfffffe74
  94:	65705f65 	ldrbvs	r5, [r0, #-3941]!	; 0xf65
  98:	69625f72 	stmdbvs	r2!, {r1, r4, r5, r6, r8, r9, sl, fp, ip, lr}^
  9c:	6f6c0074 	svcvs	0x006c0074
  a0:	6c20676e 	stcvs	7, cr6, [r0], #-440	; 0xfffffe48
  a4:	20676e6f 	rsbcs	r6, r7, pc, ror #28
  a8:	00746e69 	rsbseq	r6, r4, r9, ror #28
  ac:	755f7773 	ldrbvc	r7, [pc, #-1907]	; fffff941 <__bss_end__+0xffff1001>
  b0:	5f747261 	svcpl	0x00747261
  b4:	74696e69 	strbtvc	r6, [r9], #-3689	; 0xe69
  b8:	6c65685f 	stclvs	8, cr6, [r5], #-380	; 0xfffffe84
  bc:	00726570 	rsbseq	r6, r2, r0, ror r5
  c0:	74726175 	ldrbtvc	r6, [r2], #-373	; 0x175
  c4:	6e61635f 	mcrvs	3, 3, r6, cr1, cr15, {2}
  c8:	7465675f 	strbtvc	r6, [r5], #-1887	; 0x75f
  cc:	74730063 	ldrbtvc	r0, [r3], #-99	; 0x63
  d0:	00657461 	rsbeq	r7, r5, r1, ror #8
  d4:	5f6d7261 	svcpl	0x006d7261
  d8:	656d6974 	strbvs	r6, [sp, #-2420]!	; 0x974
  dc:	6f435f72 	svcvs	0x00435f72
  e0:	6f72746e 	svcvs	0x0072746e
  e4:	7261006c 	rsbvc	r0, r1, #108	; 0x6c
  e8:	69745f6d 	ldmdbvs	r4!, {r0, r2, r3, r5, r6, r8, r9, sl, fp, ip, lr}^
  ec:	5f72656d 	svcpl	0x0072656d
  f0:	64616f4c 	strbtvs	r6, [r1], #-3916	; 0xf4c
  f4:	6d726100 	ldfvse	f6, [r2, #-0]
  f8:	6d69745f 	cfstrdvs	mvd7, [r9, #-380]!	; 0xfffffe84
  fc:	425f7265 	subsmi	r7, pc, #1342177286	; 0x50000006
 100:	00657361 	rsbeq	r7, r5, r1, ror #6
 104:	5f585541 	svcpl	0x00585541
 108:	4c5f554d 	cfldr64mi	mvdx5, [pc], {77}	; 0x4d
 10c:	525f5253 	subspl	r5, pc, #805306373	; 0x30000005
 110:	6e004745 	cdpvs	7, 0, cr4, cr0, cr5, {2}
 114:	65746e69 	ldrbvs	r6, [r4, #-3689]!	; 0xe69
 118:	70757272 	rsbsvc	r7, r5, r2, ror r2
 11c:	55410074 	strbpl	r0, [r1, #-116]	; 0x74
 120:	4e455f58 	mcrmi	15, 2, r5, cr5, cr8, {2}
 124:	454c4241 	strbmi	r4, [ip, #-577]	; 0x241
 128:	6e690053 	mcrvs	0, 3, r0, cr9, cr3, {2}
 12c:	74735f74 	ldrbtvc	r5, [r3], #-3956	; 0xf74
 130:	73757461 	cmnvc	r5, #1627389952	; 0x61000000
 134:	5f6e6900 	svcpl	0x006e6900
 138:	61746164 	cmnvs	r4, r4, ror #2
 13c:	72617500 	rsbvc	r7, r1, #0, 10
 140:	61635f74 	smcvs	13812	; 0x35f4
 144:	75705f6e 	ldrbvc	r5, [r0, #-3950]!	; 0xf6e
 148:	74006374 	strvc	r6, [r0], #-884	; 0x374
 14c:	6f635f78 	svcvs	0x00635f78
 150:	00746e75 	rsbseq	r6, r4, r5, ror lr
 154:	51746567 	cmnpl	r4, r7, ror #10
 158:	6d726100 	ldfvse	f6, [r2, #-0]
 15c:	6d69745f 	cfstrdvs	mvd7, [r9, #-380]!	; 0xfffffe84
 160:	4d5f7265 	lfmmi	f7, 2, [pc, #-404]	; ffffffd4 <__bss_end__+0xffff1694>
 164:	656b7361 	strbvs	r7, [fp, #-865]!	; 0x361
 168:	51524964 	cmppl	r2, r4, ror #18
 16c:	58554100 	ldmdapl	r5, {r8, lr}^
 170:	5f554d5f 	svcpl	0x00554d5f
 174:	525f4f49 	subspl	r4, pc, #292	; 0x124
 178:	73004745 	movwvc	r4, #1861	; 0x745
 17c:	61755f77 	cmnvs	r5, r7, ror pc
 180:	41007472 	tstmi	r0, r2, ror r4
 184:	4d5f5855 	ldclmi	8, cr5, [pc, #-340]	; 38 <_start-0x7fc8>
 188:	41425f55 	cmpmi	r2, r5, asr pc
 18c:	525f4455 	subspl	r4, pc, #1426063360	; 0x55000000
 190:	5f004745 	svcpl	0x00004745
 194:	4e55465f 	mrcmi	6, 2, r4, cr5, cr15, {2}
 198:	4f495443 	svcmi	0x00495443
 19c:	005f5f4e 	subseq	r5, pc, lr, asr #30
 1a0:	5f585541 	svcpl	0x00585541
 1a4:	4c5f554d 	cfldr64mi	mvdx5, [pc], {77}	; 0x4d
 1a8:	525f5243 	subspl	r5, pc, #805306372	; 0x30000004
 1ac:	63004745 	movwvs	r4, #1861	; 0x745
 1b0:	656e5f71 	strbvs	r5, [lr, #-3953]!	; 0xf71
 1b4:	006d656c 	rsbeq	r6, sp, ip, ror #10
 1b8:	6573552f 	ldrbvs	r5, [r3, #-1327]!	; 0x52f
 1bc:	622f7372 	eorvs	r7, pc, #-939524095	; 0xc8000001
 1c0:	6e616972 	mcrvs	9, 3, r6, cr1, cr2, {3}
 1c4:	2f6e756a 	svccs	0x006e756a
 1c8:	6b736544 	blvs	1cd96e0 <__bss_end__+0x1ccada0>
 1cc:	2f706f74 	svccs	0x00706f74
 1d0:	6f686373 	svcvs	0x00686373
 1d4:	572f6c6f 	strpl	r6, [pc, -pc, ror #24]!
 1d8:	65746e69 	ldrbvs	r6, [r4, #-3689]!	; 0xe69
 1dc:	32393172 	eorscc	r3, r9, #-2147483620	; 0x8000001c
 1e0:	53432f30 	movtpl	r2, #16176	; 0x3f30
 1e4:	45303431 	ldrmi	r3, [r0, #-1073]!	; 0x431
 1e8:	3173632f 	cmncc	r3, pc, lsr #6
 1ec:	2d653034 	stclcs	0, cr3, [r5, #-208]!	; 0xffffff30
 1f0:	69773032 	ldmdbvs	r7!, {r1, r4, r5, ip, sp}^
 1f4:	616c2f6e 	cmnvs	ip, lr, ror #30
 1f8:	382f7362 	stmdacc	pc!, {r1, r5, r6, r8, r9, ip, sp, lr}	; <UNPREDICTABLE>
 1fc:	7665642d 	strbtvc	r6, [r5], -sp, lsr #8
 200:	2d656369 	stclcs	3, cr6, [r5, #-420]!	; 0xfffffe5c
 204:	65746e69 	ldrbvs	r6, [r4, #-3689]!	; 0xe69
 208:	70757272 	rsbsvc	r7, r5, r2, ror r2
 20c:	682f7374 	stmdavs	pc!, {r2, r4, r5, r6, r8, r9, ip, sp, lr}	; <UNPREDICTABLE>
 210:	682d3177 	stmdavs	sp!, {r0, r1, r2, r4, r5, r6, r8, ip, sp}
 214:	61752d77 	cmnvs	r5, r7, ror sp
 218:	692d7472 	pushvs	{r1, r4, r5, r6, sl, ip, sp, lr}
 21c:	7300746e 	movwvc	r7, #1134	; 0x46e
 220:	74726f68 	ldrbtvc	r6, [r2], #-3944	; 0xf68
 224:	736e7520 	cmnvc	lr, #32, 10	; 0x8000000
 228:	656e6769 	strbvs	r6, [lr, #-1897]!	; 0x769
 22c:	6e692064 	cdpvs	0, 6, cr2, cr9, cr4, {3}
 230:	61750074 	cmnvs	r5, r4, ror r0
 234:	705f7472 	subsvc	r7, pc, r2, ror r4	; <UNPREDICTABLE>
 238:	5f637475 	svcpl	0x00637475
 23c:	00746e69 	rsbseq	r6, r4, r9, ror #28
 240:	5f585541 	svcpl	0x00585541
 244:	4d5f554d 	cfldr64mi	mvdx5, [pc, #-308]	; 118 <_start-0x7ee8>
 248:	525f5253 	subspl	r5, pc, #805306373	; 0x30000005
 24c:	73004745 	movwvc	r4, #1861	; 0x745
 250:	61755f77 	cmnvs	r5, r7, ror pc
 254:	705f7472 	subsvc	r7, pc, r2, ror r4	; <UNPREDICTABLE>
 258:	00637475 	rsbeq	r7, r3, r5, ror r4
 25c:	51747570 	cmnpl	r4, r0, ror r5
 260:	5f736900 	svcpl	0x00736900
 264:	74726175 	ldrbtvc	r6, [r2], #-373	; 0x175
 268:	746e695f 	strbtvc	r6, [lr], #-2399	; 0x95f
 26c:	51524900 	cmppl	r2, r0, lsl #18
 270:	414e455f 	cmpmi	lr, pc, asr r5
 274:	5f454c42 	svcpl	0x00454c42
 278:	52490031 	subpl	r0, r9, #49	; 0x31
 27c:	4e455f51 	mcrmi	15, 2, r5, cr5, cr1, {2}
 280:	454c4241 	strbmi	r4, [ip, #-577]	; 0x241
 284:	4100325f 	tstmi	r0, pc, asr r2
 288:	4d5f5855 	ldclmi	8, cr5, [pc, #-340]	; 13c <_start-0x7ec4>
 28c:	45495f55 	strbmi	r5, [r9, #-3925]	; 0xf55
 290:	45525f52 	ldrbmi	r5, [r2, #-3922]	; 0xf52
 294:	6c630047 	stclvs	0, cr0, [r3], #-284	; 0xfffffee4
 298:	5f6e6165 	svcpl	0x006e6165
 29c:	6f626572 	svcvs	0x00626572
 2a0:	7400746f 	strvc	r7, [r0], #-1135	; 0x46f
 2a4:	006c6961 	rsbeq	r6, ip, r1, ror #18
 2a8:	657a6973 	ldrbvs	r6, [sl, #-2419]!	; 0x973
 2ac:	65707974 	ldrbvs	r7, [r0, #-2420]!	; 0x974
 2b0:	69706700 	ldmdbvs	r0!, {r8, r9, sl, sp, lr}^
 2b4:	65735f6f 	ldrbvs	r5, [r3, #-3951]!	; 0xf6f
 2b8:	75665f74 	strbvc	r5, [r6, #-3956]!	; 0xf74
 2bc:	6974636e 	ldmdbvs	r4!, {r1, r2, r3, r5, r6, r8, r9, sp, lr}^
 2c0:	72006e6f 	andvc	r6, r0, #1776	; 0x6f0
 2c4:	765f6765 	ldrbvc	r6, [pc], -r5, ror #14
 2c8:	63006c61 	movwvs	r6, #3169	; 0xc61
 2cc:	6f705f71 	svcvs	0x00705f71
 2d0:	6f6e5f70 	svcvs	0x006e5f70
 2d4:	6f6c626e 	svcvs	0x006c626e
 2d8:	61006b63 	tstvs	r0, r3, ror #22
 2dc:	745f6d72 	ldrbvc	r6, [pc], #-3442	; 2e4 <_start-0x7d1c>
 2e0:	72656d69 	rsbvc	r6, r5, #6720	; 0x1a40
 2e4:	6c65525f 	sfmvs	f5, 2, [r5], #-380	; 0xfffffe84
 2e8:	0064616f 	rsbeq	r6, r4, pc, ror #2
 2ec:	695f7163 	ldmdbvs	pc, {r0, r1, r5, r6, r8, ip, sp, lr}^	; <UNPREDICTABLE>
 2f0:	0074696e 	rsbseq	r6, r4, lr, ror #18
 2f4:	75626564 	strbvc	r6, [r2, #-1380]!	; 0x564
 2f8:	6c665f67 	stclvs	15, cr5, [r6], #-412	; 0xfffffe64
 2fc:	69006761 	stmdbvs	r0, {r0, r5, r6, r8, r9, sl, sp, lr}
 300:	695f746e 	ldmdbvs	pc, {r1, r2, r3, r5, r6, sl, ip, sp, lr}^	; <UNPREDICTABLE>
 304:	0074696e 	rsbseq	r6, r4, lr, ror #18
 308:	5f585541 	svcpl	0x00585541
 30c:	495f554d 	ldmdbmi	pc, {r0, r2, r3, r6, r8, sl, ip, lr}^	; <UNPREDICTABLE>
 310:	525f5249 	subspl	r5, pc, #-1879048188	; 0x90000004
 314:	73004745 	movwvc	r4, #1861	; 0x745
 318:	65747379 	ldrbvs	r7, [r4, #-889]!	; 0x379
 31c:	6e655f6d 	cdpvs	15, 6, cr5, cr5, cr13, {3}
 320:	656c6261 	strbvs	r6, [ip, #-609]!	; 0x261
 324:	746e695f 	strbtvc	r6, [lr], #-2399	; 0x95f
 328:	75727265 	ldrbvc	r7, [r2, #-613]!	; 0x265
 32c:	00737470 	rsbseq	r7, r3, r0, ror r4
 330:	5f585541 	svcpl	0x00585541
 334:	00515249 	subseq	r5, r1, r9, asr #4
 338:	755f7773 	ldrbvc	r7, [pc, #-1907]	; fffffbcd <__bss_end__+0xffff128d>
 33c:	5f747261 	svcpl	0x00747261
 340:	61750074 	cmnvs	r5, r4, ror r0
 344:	635f7472 	cmpvs	pc, #1912602624	; 0x72000000
 348:	675f6e61 	ldrbvs	r6, [pc, -r1, ror #28]
 34c:	5f637465 	svcpl	0x00637465
 350:	00746e69 	rsbseq	r6, r4, r9, ror #28
 354:	69736e75 	ldmdbvs	r3!, {r0, r2, r4, r5, r6, r9, sl, fp, sp, lr}^
 358:	64656e67 	strbtvs	r6, [r5], #-3687	; 0xe67
 35c:	61686320 	cmnvs	r8, r0, lsr #6
 360:	6e690072 	mcrvs	0, 3, r0, cr9, cr2, {3}
 364:	6168635f 	cmnvs	r8, pc, asr r3
 368:	68730072 	ldmdavs	r3!, {r1, r4, r5, r6}^
 36c:	2074726f 	rsbscs	r7, r4, pc, ror #4
 370:	00746e69 	rsbseq	r6, r4, r9, ror #28
 374:	5f585541 	svcpl	0x00585541
 378:	535f554d 	cmppl	pc, #322961408	; 0x13400000
 37c:	5f544154 	svcpl	0x00544154
 380:	00474552 	subeq	r4, r7, r2, asr r5
 384:	5f657163 	svcpl	0x00657163
 388:	6e690074 	mcrvs	0, 3, r0, cr9, cr4, {3}
 38c:	6800635f 	stmdavs	r0, {r0, r1, r2, r3, r4, r6, r8, r9, sp, lr}
 390:	00646165 	rsbeq	r6, r4, r5, ror #2
 394:	746e6975 	strbtvc	r6, [lr], #-2421	; 0x975
 398:	745f3233 	ldrbvc	r3, [pc], #-563	; 3a0 <_start-0x7c60>
 39c:	75616200 	strbvc	r6, [r1, #-512]!	; 0x200
 3a0:	4e470064 	cdpmi	0, 4, cr0, cr7, cr4, {3}
 3a4:	20432055 	subcs	r2, r3, r5, asr r0
 3a8:	2e382e34 	mrccs	14, 1, r2, cr8, cr4, {1}
 3ac:	6d2d2033 	stcvs	0, cr2, [sp, #-204]!	; 0xffffff34
 3b0:	3d757063 	ldclcc	0, cr7, [r5, #-396]!	; 0xfffffe74
 3b4:	316d7261 	cmncc	sp, r1, ror #4
 3b8:	6a363731 	bvs	d8e084 <__bss_end__+0xd7f744>
 3bc:	732d667a 	teqvc	sp, #127926272	; 0x7a00000
 3c0:	746d2d20 	strbtvc	r2, [sp], #-3360	; 0xd20
 3c4:	3d656e75 	stclcc	14, cr6, [r5, #-468]!	; 0xfffffe2c
 3c8:	316d7261 	cmncc	sp, r1, ror #4
 3cc:	6a363731 	bvs	d8e098 <__bss_end__+0xd7f758>
 3d0:	732d667a 	teqvc	sp, #127926272	; 0x7a00000
 3d4:	67672d20 	strbvs	r2, [r7, -r0, lsr #26]!
 3d8:	2d206264 	sfmcs	f6, 4, [r0, #-400]!	; 0xfffffe70
 3dc:	2d20674f 	stccs	7, cr6, [r0, #-316]!	; 0xfffffec4
 3e0:	3d647473 	cfstrdcc	mvd7, [r4, #-460]!	; 0xfffffe34
 3e4:	39756e67 	ldmdbcc	r5!, {r0, r1, r2, r5, r6, r9, sl, fp, sp, lr}^
 3e8:	662d2039 			; <UNDEFINED> instruction: 0x662d2039
 3ec:	65657266 	strbvs	r7, [r5, #-614]!	; 0x266
 3f0:	6e617473 	mcrvs	4, 3, r7, cr1, cr3, {3}
 3f4:	676e6964 	strbvs	r6, [lr, -r4, ror #18]!
 3f8:	6e656600 	cdpvs	6, 6, cr6, cr5, cr0, {0}
 3fc:	41006563 	tstmi	r0, r3, ror #10
 400:	4d5f5855 	ldclmi	8, cr5, [pc, #-340]	; 2b4 <_start-0x7d4c>
 404:	4e435f55 	mcrmi	15, 2, r5, cr3, cr5, {2}
 408:	525f4c54 	subspl	r4, pc, #84, 24	; 0x5400
 40c:	6f004745 	svcvs	0x00004745
 410:	66726576 			; <UNDEFINED> instruction: 0x66726576
 414:	00776f6c 	rsbseq	r6, r7, ip, ror #30
 418:	33747570 	cmncc	r4, #112, 10	; 0x1c000000
 41c:	71630032 	cmnvc	r3, r2, lsr r0
 420:	7375705f 	cmnvc	r5, #95	; 0x5f
 424:	65640068 	strbvs	r0, [r4, #-104]!	; 0x68
 428:	61625f76 	smcvs	9718	; 0x25f6
 42c:	65697272 	strbvs	r7, [r9, #-626]!	; 0x272
 430:	72610072 	rsbvc	r0, r1, #114	; 0x72
 434:	69745f6d 	ldmdbvs	r4!, {r0, r2, r3, r5, r6, r8, r9, sl, fp, ip, lr}^
 438:	5f72656d 	svcpl	0x0072656d
 43c:	44657250 	strbtmi	r7, [r5], #-592	; 0x250
 440:	64697669 	strbtvs	r7, [r9], #-1641	; 0x669
 444:	61007265 	tstvs	r0, r5, ror #4
 448:	745f6d72 	ldrbvc	r6, [pc], #-3442	; 450 <_start-0x7bb0>
 44c:	72656d69 	rsbvc	r6, r5, #6720	; 0x1a40
 450:	6c61565f 	stclvs	6, cr5, [r1], #-380	; 0xfffffe84
 454:	61006575 	tstvs	r0, r5, ror r5
 458:	745f6d72 	ldrbvc	r6, [pc], #-3442	; 460 <_start-0x7ba0>
 45c:	72656d69 	rsbvc	r6, r5, #6720	; 0x1a40
 460:	5152495f 	cmppl	r2, pc, asr r9
 464:	61656c43 	cmnvs	r5, r3, asr #24
 468:	656d0072 	strbvs	r0, [sp, #-114]!	; 0x72
 46c:	7465736d 	strbtvc	r7, [r5], #-877	; 0x36d
 470:	5f716300 	svcpl	0x00716300
 474:	6e650074 	mcrvs	0, 3, r0, cr5, cr4, {3}
 478:	656c6261 	strbvs	r6, [ip, #-609]!	; 0x261
 47c:	6361635f 	cmnvs	r1, #2080374785	; 0x7c000001
 480:	72006568 	andvc	r6, r0, #104, 10	; 0x1a000000
 484:	615f6970 	cmpvs	pc, r0, ror r9	; <UNPREDICTABLE>
 488:	745f6d72 	ldrbvc	r6, [pc], #-3442	; 490 <_start-0x7b70>
 48c:	72656d69 	rsbvc	r6, r5, #6720	; 0x1a40
 490:	4700745f 	smlsdmi	r0, pc, r4, r7	; <UNPREDICTABLE>
 494:	5f4f4950 	svcpl	0x004f4950
 498:	434e5546 	movtmi	r5, #58694	; 0xe546
 49c:	54554f5f 	ldrbpl	r4, [r5], #-3935	; 0xf5f
 4a0:	00545550 	subseq	r5, r4, r0, asr r5
 4a4:	746e6975 	strbtvc	r6, [lr], #-2421	; 0x975
 4a8:	00745f38 	rsbseq	r5, r4, r8, lsr pc
 4ac:	33746567 	cmncc	r4, #432013312	; 0x19c00000
 4b0:	70670032 	rsbvc	r0, r7, r2, lsr r0
 4b4:	665f6f69 	ldrbvs	r6, [pc], -r9, ror #30
 4b8:	5f636e75 	svcpl	0x00636e75
 4bc:	6f6d0074 	svcvs	0x006d0074
 4c0:	78745f64 	ldmdavc	r4!, {r2, r5, r6, r8, r9, sl, fp, ip, lr}^
 4c4:	746e695f 	strbtvc	r6, [lr], #-2399	; 0x95f
 4c8:	75727265 	ldrbvc	r7, [r2, #-613]!	; 0x265
 4cc:	00737470 	rsbseq	r7, r3, r0, ror r4
 4d0:	4f495047 	svcmi	0x00495047
 4d4:	4e55465f 	mrcmi	6, 2, r4, cr5, cr15, {2}
 4d8:	4c415f43 	mcrrmi	15, 4, r5, r1, cr3
 4dc:	47003054 	smlsdmi	r0, r4, r0, r3
 4e0:	5f4f4950 	svcpl	0x004f4950
 4e4:	434e5546 	movtmi	r5, #58694	; 0xe546
 4e8:	544c415f 	strbpl	r4, [ip], #-351	; 0x15f
 4ec:	50470031 	subpl	r0, r7, r1, lsr r0
 4f0:	465f4f49 	ldrbmi	r4, [pc], -r9, asr #30
 4f4:	5f434e55 	svcpl	0x00434e55
 4f8:	32544c41 	subscc	r4, r4, #16640	; 0x4100
 4fc:	49504700 	ldmdbmi	r0, {r8, r9, sl, lr}^
 500:	55465f4f 	strbpl	r5, [r6, #-3919]	; 0xf4f
 504:	415f434e 	cmpmi	pc, lr, asr #6
 508:	0033544c 	eorseq	r5, r3, ip, asr #8
 50c:	4f495047 	svcmi	0x00495047
 510:	4e55465f 	mrcmi	6, 2, r4, cr5, cr15, {2}
 514:	4c415f43 	mcrrmi	15, 4, r5, r1, cr3
 518:	47003454 	smlsdmi	r0, r4, r4, r3
 51c:	5f4f4950 	svcpl	0x004f4950
 520:	434e5546 	movtmi	r5, #58694	; 0xe546
 524:	544c415f 	strbpl	r4, [ip], #-351	; 0x15f
 528:	55410035 	strbpl	r0, [r1, #-53]	; 0x35
 52c:	554d5f58 	strbpl	r5, [sp, #-3928]	; 0xf58
 530:	52434d5f 	subpl	r4, r3, #6080	; 0x17c0
 534:	4745525f 	smlsldmi	r5, r5, pc, r2	; <UNPREDICTABLE>
 538:	6d756e00 	ldclvs	14, cr6, [r5, #-0]
 53c:	0078745f 	rsbseq	r7, r8, pc, asr r4
 540:	70672d31 	rsbvc	r2, r7, r1, lsr sp
 544:	692d6f69 	pushvs	{r0, r3, r5, r6, r8, r9, sl, fp, sp, lr}
 548:	652d746e 	strvs	r7, [sp, #-1134]!	; 0x46e
 54c:	00632e78 	rsbeq	r2, r3, r8, ror lr
 550:	74737973 	ldrbtvc	r7, [r3], #-2419	; 0x973
 554:	645f6d65 	ldrbvs	r6, [pc], #-3429	; 55c <_start-0x7aa4>
 558:	62617369 	rsbvs	r7, r1, #-1543503871	; 0xa4000001
 55c:	695f656c 	ldmdbvs	pc, {r2, r3, r5, r6, r8, sl, sp, lr}^	; <UNPREDICTABLE>
 560:	7265746e 	rsbvc	r7, r5, #1845493760	; 0x6e000000
 564:	74707572 	ldrbtvc	r7, [r0], #-1394	; 0x572
 568:	71630073 	smcvc	12291	; 0x3003
 56c:	6c75665f 	ldclvs	6, cr6, [r5], #-380	; 0xfffffe84
 570:	7261006c 	rsbvc	r0, r1, #108	; 0x6c
 574:	69745f6d 	ldmdbvs	r4!, {r0, r2, r3, r5, r6, r8, r9, sl, fp, ip, lr}^
 578:	5f72656d 	svcpl	0x0072656d
 57c:	65657246 	strbvs	r7, [r5, #-582]!	; 0x246
 580:	6e6e7552 	mcrvs	5, 3, r7, cr14, cr2, {2}
 584:	43676e69 	cmnmi	r7, #1680	; 0x690
 588:	746e756f 	strbtvc	r7, [lr], #-1391	; 0x56f
 58c:	6c007265 	sfmvs	f7, 4, [r0], {101}	; 0x65
 590:	2f636269 	svccs	0x00636269
 594:	736d656d 	cmnvc	sp, #457179136	; 0x1b400000
 598:	632e7465 	teqvs	lr, #1694498816	; 0x65000000
 59c:	73552f00 	cmpvc	r5, #0, 30
 5a0:	2f737265 	svccs	0x00737265
 5a4:	61697262 	cmnvs	r9, r2, ror #4
 5a8:	6e756a6e 	vsubvs.f32	s13, s10, s29
 5ac:	7365442f 	cmnvc	r5, #788529152	; 0x2f000000
 5b0:	706f746b 	rsbvc	r7, pc, fp, ror #8
 5b4:	6863732f 	stmdavs	r3!, {r0, r1, r2, r3, r5, r8, r9, ip, sp, lr}^
 5b8:	2f6c6f6f 	svccs	0x006c6f6f
 5bc:	746e6957 	strbtvc	r6, [lr], #-2391	; 0x957
 5c0:	39317265 	ldmdbcc	r1!, {r0, r2, r5, r6, r9, ip, sp, lr}
 5c4:	432f3032 	teqmi	pc, #50	; 0x32
 5c8:	30343153 	eorscc	r3, r4, r3, asr r1
 5cc:	73632f45 	cmnvc	r3, #276	; 0x114
 5d0:	65303431 	ldrvs	r3, [r0, #-1073]!	; 0x431
 5d4:	7730322d 	ldrvc	r3, [r0, -sp, lsr #4]!
 5d8:	6c2f6e69 	stcvs	14, cr6, [pc], #-420	; 43c <_start-0x7bc4>
 5dc:	69706269 	ldmdbvs	r0!, {r0, r3, r5, r6, r9, sp, lr}^
 5e0:	675f5f00 	ldrbvs	r5, [pc, -r0, lsl #30]
 5e4:	5f63756e 	svcpl	0x0063756e
 5e8:	6c5f6176 	ldfvse	f6, [pc], {118}	; 0x76
 5ec:	00747369 	rsbseq	r7, r4, r9, ror #6
 5f0:	6362696c 	cmnvs	r2, #108, 18	; 0x1b0000
 5f4:	6972702f 	ldmdbvs	r2!, {r0, r1, r2, r3, r5, ip, sp, lr}^
 5f8:	2e6b746e 	cdpcs	4, 6, cr7, cr11, cr14, {3}
 5fc:	61760063 	cmnvs	r6, r3, rrx
 600:	6972705f 	ldmdbvs	r2!, {r0, r1, r2, r3, r4, r6, ip, sp, lr}^
 604:	006b746e 	rsbeq	r7, fp, lr, ror #8
 608:	61765f5f 	cmnvs	r6, pc, asr pc
 60c:	73696c5f 	cmnvc	r9, #24320	; 0x5f00
 610:	72610074 	rsbvc	r0, r1, #116	; 0x74
 614:	5f007367 	svcpl	0x00007367
 618:	0070615f 	rsbseq	r6, r0, pc, asr r1
 61c:	6362696c 	cmnvs	r2, #108, 18	; 0x1b0000
 620:	7475702f 	ldrbtvc	r7, [r5], #-47	; 0x2f
 624:	00632e6b 	rsbeq	r2, r3, fp, ror #28
 628:	65746e69 	ldrbvs	r6, [r4, #-3689]!	; 0xe69
 62c:	6c616e72 	stclvs	14, cr6, [r1], #-456	; 0xfffffe38
 630:	7475705f 	ldrbtvc	r7, [r5], #-95	; 0x5f
 634:	7072006b 	rsbsvc	r0, r2, fp, rrx
 638:	75705f69 	ldrbvc	r5, [r0, #-3945]!	; 0xf69
 63c:	61686374 	smcvs	34356	; 0x8634
 640:	656e0072 	strbvs	r0, [lr, #-114]!	; 0x72
 644:	00705f67 	rsbseq	r5, r0, r7, ror #30
 648:	65766572 	ldrbvs	r6, [r6, #-1394]!	; 0x572
 64c:	00657372 	rsbeq	r7, r5, r2, ror r3
 650:	69647369 	stmdbvs	r4!, {r0, r3, r5, r6, r8, r9, ip, sp, lr}^
 654:	00746967 	rsbseq	r6, r4, r7, ror #18
 658:	73747570 	cmnvc	r4, #112, 10	; 0x1c000000
 65c:	0070665f 	rsbseq	r6, r0, pc, asr r6
 660:	65736162 	ldrbvs	r6, [r3, #-354]!	; 0x162
 664:	67697300 	strbvs	r7, [r9, -r0, lsl #6]!
 668:	5f64656e 	svcpl	0x0064656e
 66c:	696c0070 	stmdbvs	ip!, {r4, r5, r6}^
 670:	762f6362 	strtvc	r6, [pc], -r2, ror #6
 674:	72702d61 	rsbsvc	r2, r0, #6208	; 0x1840
 678:	6b746e69 	blvs	1d1c024 <__bss_end__+0x1d0d6e4>
 67c:	7200632e 	andvc	r6, r0, #-1207959552	; 0xb8000000
 680:	735f6970 	cmpvc	pc, #112, 18	; 0x1c0000
 684:	6f5f7465 	svcvs	0x005f7465
 688:	75707475 	ldrbvc	r7, [r0, #-1141]!	; 0x475
 68c:	69770074 	ldmdbvs	r7!, {r2, r4, r5, r6}^
 690:	00687464 	rsbeq	r7, r8, r4, ror #8
 694:	63747570 	cmnvs	r4, #112, 10	; 0x1c000000
 698:	0070665f 	rsbseq	r6, r0, pc, asr r6
 69c:	74696d65 	strbtvc	r6, [r9], #-3429	; 0xd65
 6a0:	73696400 	cmnvc	r9, #0, 8
 6a4:	656c6261 	strbvs	r6, [ip, #-609]!	; 0x261
 6a8:	6361635f 	cmnvs	r1, #2080374785	; 0x7c000001
 6ac:	63006568 	movwvs	r6, #1384	; 0x568
 6b0:	30343173 	eorscc	r3, r4, r3, ror r1
 6b4:	72732d65 	rsbsvc	r2, r3, #6464	; 0x1940
 6b8:	61632f63 	cmnvs	r3, r3, ror #30
 6bc:	2e656863 	cdpcs	8, 6, cr6, cr5, cr3, {3}
 6c0:	70720063 	rsbsvc	r0, r2, r3, rrx
 6c4:	65725f69 	ldrbvs	r5, [r2, #-3945]!	; 0xf69
 6c8:	746f6f62 	strbtvc	r6, [pc], #-3938	; 6d0 <_start-0x7930>
 6cc:	31736300 	cmncc	r3, r0, lsl #6
 6d0:	2d653034 	stclcs	0, cr3, [r5, #-208]!	; 0xffffff30
 6d4:	2f637273 	svccs	0x00637273
 6d8:	61656c63 	cmnvs	r5, r3, ror #24
 6dc:	65722d6e 	ldrbvs	r2, [r2, #-3438]!	; 0xd6e
 6e0:	746f6f62 	strbtvc	r6, [pc], #-3938	; 6e8 <_start-0x7918>
 6e4:	6400632e 	strvs	r6, [r0], #-814	; 0x32e
 6e8:	79616c65 	stmdbvc	r1!, {r0, r2, r5, r6, sl, fp, sp, lr}^
 6ec:	00736d5f 	rsbseq	r6, r3, pc, asr sp
 6f0:	65746e69 	ldrbvs	r6, [r4, #-3689]!	; 0xe69
 6f4:	6c616e72 	stclvs	14, cr6, [r1], #-456	; 0xfffffe38
 6f8:	5f77735f 	svcpl	0x0077735f
 6fc:	63747570 	cmnvs	r4, #112, 10	; 0x1c000000
 700:	00726168 	rsbseq	r6, r2, r8, ror #2
 704:	73625f5f 	cmnvc	r2, #380	; 0x17c
 708:	74735f73 	ldrbtvc	r5, [r3], #-3955	; 0xf73
 70c:	5f747261 	svcpl	0x00747261
 710:	7362005f 	cmnvc	r2, #95	; 0x5f
 714:	6e655f73 	mcrvs	15, 3, r5, cr5, cr3, {3}
 718:	6f630064 	svcvs	0x00630064
 71c:	6c6f736e 	stclvs	3, cr7, [pc], #-440	; 56c <_start-0x7a94>
 720:	61755f65 	cmnvs	r5, r5, ror #30
 724:	73007472 	movwvc	r7, #1138	; 0x472
 728:	61755f77 	cmnvs	r5, r7, ror pc
 72c:	705f7472 	subsvc	r7, pc, r2, ror r4	; <UNPREDICTABLE>
 730:	746e6972 	strbtvc	r6, [lr], #-2418	; 0x972
 734:	5550006b 	ldrbpl	r0, [r0, #-107]	; 0x6b
 738:	455f4354 	ldrbmi	r4, [pc, #-852]	; 3ec <_start-0x7c14>
 73c:	555f5053 	ldrbpl	r5, [pc, #-83]	; 6f1 <_start-0x790f>
 740:	00545241 	subseq	r5, r4, r1, asr #4
 744:	43545550 	cmpmi	r4, #80, 10	; 0x14000000
 748:	5f57535f 	svcpl	0x0057535f
 74c:	54524155 	ldrbpl	r4, [r2], #-341	; 0x155
 750:	54555000 	ldrbpl	r5, [r5], #-0
 754:	57485f43 	strbpl	r5, [r8, -r3, asr #30]
 758:	5241555f 	subpl	r5, r1, #398458880	; 0x17c00000
 75c:	635f0054 	cmpvs	pc, #84	; 0x54
 760:	72617473 	rsbvc	r7, r1, #1929379840	; 0x73000000
 764:	61750074 	cmnvs	r5, r4, ror r0
 768:	645f7472 	ldrbvs	r7, [pc], #-1138	; 770 <_start-0x7890>
 76c:	745f7665 	ldrbvc	r7, [pc], #-1637	; 774 <_start-0x788c>
 770:	6e6f6300 	cdpvs	3, 6, cr6, cr15, cr0, {0}
 774:	6c6f7274 	sfmvs	f7, 2, [pc], #-464	; 5ac <_start-0x7a54>
 778:	6b6c625f 	blvs	1b190fc <__bss_end__+0x1b0a7bc>
 77c:	6300745f 	movwvs	r7, #1119	; 0x45f
 780:	65675f62 	strbvs	r5, [r7, #-3938]!	; 0xf62
 784:	6c625f74 	stclvs	15, cr5, [r2], #-464	; 0xfffffe30
 788:	006b636f 	rsbeq	r6, fp, pc, ror #6
 78c:	73625f5f 	cmnvc	r2, #380	; 0x17c
 790:	6e655f73 	mcrvs	15, 3, r5, cr5, cr3, {3}
 794:	005f5f64 	subseq	r5, pc, r4, ror #30
 798:	34317363 	ldrtcc	r7, [r1], #-867	; 0x363
 79c:	732d6530 	teqvc	sp, #48, 10	; 0xc000000
 7a0:	632f6372 	teqvs	pc, #-939524095	; 0xc8000001
 7a4:	72617473 	rsbvc	r7, r1, #1929379840	; 0x73000000
 7a8:	00632e74 	rsbeq	r2, r3, r4, ror lr
 7ac:	736e6f63 	cmnvc	lr, #396	; 0x18c
 7b0:	5f656c6f 	svcpl	0x00656c6f
 7b4:	00766564 	rsbseq	r6, r6, r4, ror #10
 7b8:	6967616d 	stmdbvs	r7!, {r0, r2, r3, r5, r6, r8, sp, lr}^
 7bc:	74610063 	strbtvc	r0, [r1], #-99	; 0x63
 7c0:	6573755f 	ldrbvs	r7, [r3, #-1375]!	; 0x55f
 7c4:	656c5f72 	strbvs	r5, [ip, #-3954]!	; 0xf72
 7c8:	006c6576 	rsbeq	r6, ip, r6, ror r5
 7cc:	505f4d50 	subspl	r4, pc, r0, asr sp	; <UNPREDICTABLE>
 7d0:	57535341 	ldrbpl	r5, [r3, -r1, asr #6]
 7d4:	0044524f 	subeq	r5, r4, pc, asr #4
 7d8:	34317363 	ldrtcc	r7, [r1], #-867	; 0x363
 7dc:	732d6530 	teqvc	sp, #48, 10	; 0xc000000
 7e0:	722f6372 	eorvc	r6, pc, #-939524095	; 0xc8000001
 7e4:	6f6f6265 	svcvs	0x006f6265
 7e8:	00632e74 	rsbeq	r2, r3, r4, ror lr
 7ec:	525f4d50 	subspl	r4, pc, #80, 26	; 0x1400
 7f0:	5f435453 	svcpl	0x00435453
 7f4:	46435257 			; <UNDEFINED> instruction: 0x46435257
 7f8:	55465f47 	strbpl	r5, [r6, #-3911]	; 0xf47
 7fc:	525f4c4c 	subspl	r4, pc, #76, 24	; 0x4c00
 800:	54455345 	strbpl	r5, [r5], #-837	; 0x345
 804:	5f4d5000 	svcpl	0x004d5000
 808:	474f4457 	smlsldmi	r4, pc, r7, r4	; <UNPREDICTABLE>
 80c:	74657300 	strbtvc	r7, [r5], #-768	; 0x300
 810:	6573755f 	ldrbvs	r7, [r3, #-1375]!	; 0x55f
 814:	656c5f72 	strbvs	r5, [ip, #-3954]!	; 0xf72
 818:	006c6576 	rsbeq	r6, ip, r6, ror r5
 81c:	33545550 	cmpcc	r4, #80, 10	; 0x14000000
 820:	4d500032 	ldclmi	0, cr0, [r0, #-200]	; 0xffffff38
 824:	5453525f 	ldrbpl	r5, [r3], #-607	; 0x25f
 828:	70630043 	rsbvc	r0, r3, r3, asr #32
 82c:	74007273 	strvc	r7, [r0], #-627	; 0x273
 830:	72656d69 	rsbvc	r6, r5, #6720	; 0x1a40
 834:	7465675f 	strbtvc	r6, [r5], #-1887	; 0x75f
 838:	6573755f 	ldrbvs	r7, [r3, #-1375]!	; 0x55f
 83c:	61725f63 	cmnvs	r2, r3, ror #30
 840:	65640077 	strbvs	r0, [r4, #-119]!	; 0x77
 844:	5f79616c 	svcpl	0x0079616c
 848:	00636573 	rsbeq	r6, r3, r3, ror r5
 84c:	34317363 	ldrtcc	r7, [r1], #-867	; 0x363
 850:	732d6530 	teqvc	sp, #48, 10	; 0xc000000
 854:	742f6372 	strtvc	r6, [pc], #-882	; 85c <_start-0x77a4>
 858:	72656d69 	rsbvc	r6, r5, #6720	; 0x1a40
 85c:	4700632e 	strmi	r6, [r0, -lr, lsr #6]
 860:	32335445 	eorscc	r5, r3, #1157627904	; 0x45000000
 864:	63697400 	cmnvs	r9, #0, 8
 868:	6400736b 	strvs	r7, [r0], #-875	; 0x36b
 86c:	79616c65 	stmdbvc	r1!, {r0, r2, r5, r6, sl, fp, sp, lr}^
 870:	6379635f 	cmnvs	r9, #2080374785	; 0x7c000001
 874:	0073656c 	rsbseq	r6, r3, ip, ror #10
 878:	616c6564 	cmnvs	ip, r4, ror #10
 87c:	73755f79 	cmnvc	r5, #484	; 0x1e4
 880:	6d697400 	cfstrdvs	mvd7, [r9, #-0]
 884:	675f7265 	ldrbvs	r7, [pc, -r5, ror #4]
 888:	755f7465 	ldrbvc	r7, [pc, #-1125]	; 42b <_start-0x7bd5>
 88c:	00636573 	rsbeq	r6, r3, r3, ror r5
 890:	6f697067 	svcvs	0x00697067
 894:	6576655f 	ldrbvs	r6, [r6, #-1375]!	; 0x55f
 898:	645f746e 	ldrbvs	r7, [pc], #-1134	; 8a0 <_start-0x7760>
 89c:	63657465 	cmnvs	r5, #1694498816	; 0x65000000
 8a0:	00646574 	rsbeq	r6, r4, r4, ror r5
 8a4:	53465047 	movtpl	r5, #24647	; 0x6047
 8a8:	00324c45 	eorseq	r4, r2, r5, asr #24
 8ac:	4c435047 	mcrrmi	0, 4, r5, r3, cr7
 8b0:	45003052 	strmi	r3, [r0, #-82]	; 0x52
 8b4:	4c42414e 	stfmie	f4, [r2], {78}	; 0x4e
 8b8:	52495f45 	subpl	r5, r9, #276	; 0x114
 8bc:	325f5351 	subscc	r5, pc, #1140850689	; 0x44000001
 8c0:	5f736900 	svcpl	0x00736900
 8c4:	6f697067 	svcvs	0x00697067
 8c8:	746e695f 	strbtvc	r6, [lr], #-2399	; 0x95f
 8cc:	69706700 	ldmdbvs	r0!, {r8, r9, sl, sp, lr}^
 8d0:	65735f6f 	ldrbvs	r5, [r3, #-3951]!	; 0xf6f
 8d4:	666f5f74 	uqsub16vs	r5, pc, r4	; <UNPREDICTABLE>
 8d8:	796d0066 	stmdbvc	sp!, {r1, r2, r5, r6}^
 8dc:	6372732d 	cmnvs	r2, #-1275068416	; 0xb4000000
 8e0:	6970672f 	ldmdbvs	r0!, {r0, r1, r2, r3, r5, r8, r9, sl, sp, lr}^
 8e4:	00632e6f 	rsbeq	r2, r3, pc, ror #28
 8e8:	5f746e69 	svcpl	0x00746e69
 8ec:	6b73616d 	blvs	1cd8ea8 <__bss_end__+0x1cca568>
 8f0:	53504700 	cmppl	r0, #0, 14
 8f4:	00305445 	eorseq	r5, r0, r5, asr #8
 8f8:	45535047 	ldrbmi	r5, [r3, #-71]	; 0x47
 8fc:	72003154 	andvc	r3, r0, #84, 2
 900:	735f6765 	cmpvc	pc, #26476544	; 0x1940000
 904:	00746174 	rsbseq	r6, r4, r4, ror r1
 908:	454c5047 	strbmi	r5, [ip, #-71]	; 0x47
 90c:	47003056 	smlsdmi	r0, r6, r0, r3
 910:	56454c50 			; <UNDEFINED> instruction: 0x56454c50
 914:	70670031 	rsbvc	r0, r7, r1, lsr r0
 918:	725f6f69 	subsvc	r6, pc, #420	; 0x1a4
 91c:	47006765 	strmi	r6, [r0, -r5, ror #14]
 920:	45534650 	ldrbmi	r4, [r3, #-1616]	; 0x650
 924:	4700304c 	strmi	r3, [r0, -ip, asr #32]
 928:	45534650 	ldrbmi	r4, [r3, #-1616]	; 0x650
 92c:	4700314c 	strmi	r3, [r0, -ip, asr #2]
 930:	45534650 	ldrbmi	r4, [r3, #-1616]	; 0x650
 934:	4700334c 	strmi	r3, [r0, -ip, asr #6]
 938:	45534650 	ldrbmi	r4, [r3, #-1616]	; 0x650
 93c:	4700344c 	strmi	r3, [r0, -ip, asr #8]
 940:	45534650 	ldrbmi	r4, [r3, #-1616]	; 0x650
 944:	6700354c 	strvs	r3, [r0, -ip, asr #10]
 948:	5f6f6970 	svcpl	0x006f6970
 94c:	6c657366 	stclvs	3, cr7, [r5], #-408	; 0xfffffe68
 950:	50470030 	subpl	r0, r7, r0, lsr r0
 954:	31524c43 	cmpcc	r2, r3, asr #24
 958:	69706700 	ldmdbvs	r0!, {r8, r9, sl, sp, lr}^
 95c:	65725f6f 	ldrbvs	r5, [r2, #-3951]!	; 0xf6f
 960:	67006461 	strvs	r6, [r0, -r1, ror #8]
 964:	5f6f6970 	svcpl	0x006f6970
 968:	5f746e69 	svcpl	0x00746e69
 96c:	69736972 	ldmdbvs	r3!, {r1, r4, r5, r6, r8, fp, sp, lr}^
 970:	655f676e 	ldrbvs	r6, [pc, #-1902]	; 20a <_start-0x7df6>
 974:	00656764 	rsbeq	r6, r5, r4, ror #14
 978:	45525047 	ldrbmi	r5, [r2, #-71]	; 0x47
 97c:	4700304e 	strmi	r3, [r0, -lr, asr #32]
 980:	4e455250 	mcrmi	2, 2, r5, cr5, cr0, {2}
 984:	70670031 	rsbvc	r0, r7, r1, lsr r0
 988:	655f6f69 	ldrbvs	r6, [pc, #-3945]	; fffffa27 <__bss_end__+0xffff10e7>
 98c:	746e6576 	strbtvc	r6, [lr], #-1398	; 0x576
 990:	656c635f 	strbvs	r6, [ip, #-863]!	; 0x35f
 994:	49007261 	stmdbmi	r0, {r0, r5, r6, r9, ip, sp, lr}
 998:	505f5152 	subspl	r5, pc, r2, asr r1	; <UNPREDICTABLE>
 99c:	49444e45 	stmdbmi	r4, {r0, r2, r6, r9, sl, fp, lr}^
 9a0:	315f474e 	cmpcc	pc, lr, asr #14
 9a4:	51524900 	cmppl	r2, r0, lsl #18
 9a8:	4e45505f 	mcrmi	0, 2, r5, cr5, cr15, {2}
 9ac:	474e4944 	strbmi	r4, [lr, -r4, asr #18]
 9b0:	6200325f 	andvs	r3, r0, #-268435451	; 0xf0000005
 9b4:	616d7469 	cmnvs	sp, r9, ror #8
 9b8:	67006b73 	smlsdxvs	r0, r3, fp, r6
 9bc:	5f6f6970 	svcpl	0x006f6970
 9c0:	74697277 	strbtvc	r7, [r9], #-631	; 0x277
 9c4:	70670065 	rsbvc	r0, r7, r5, rrx
 9c8:	735f6f69 	cmpvc	pc, #420	; 0x1a4
 9cc:	00307465 	eorseq	r7, r0, r5, ror #8
 9d0:	636e7566 	cmnvs	lr, #427819008	; 0x19800000
 9d4:	69706700 	ldmdbvs	r0!, {r8, r9, sl, sp, lr}^
 9d8:	65735f6f 	ldrbvs	r5, [r3, #-3951]!	; 0xf6f
 9dc:	6e695f74 	mcrvs	15, 3, r5, cr9, cr4, {3}
 9e0:	00747570 	rsbseq	r7, r4, r0, ror r5
 9e4:	44455047 	strbmi	r5, [r5], #-71	; 0x47
 9e8:	47003053 	smlsdmi	r0, r3, r0, r3
 9ec:	53444550 	movtpl	r4, #17744	; 0x4550
 9f0:	70670031 	rsbvc	r0, r7, r1, lsr r0
 9f4:	735f6f69 	cmpvc	pc, #420	; 0x1a4
 9f8:	6f5f7465 	svcvs	0x005f7465
 9fc:	5047006e 	subpl	r0, r7, lr, rrx
 a00:	304e4546 	subcc	r4, lr, r6, asr #10
 a04:	46504700 	ldrbmi	r4, [r0], -r0, lsl #14
 a08:	00314e45 	eorseq	r4, r1, r5, asr #28
 a0c:	6f697067 	svcvs	0x00697067
 a10:	7465735f 	strbtvc	r7, [r5], #-863	; 0x35f
 a14:	74756f5f 	ldrbtvc	r6, [r5], #-3935	; 0xf5f
 a18:	00747570 	rsbseq	r7, r4, r0, ror r5
 a1c:	6f697067 	svcvs	0x00697067
 a20:	746e695f 	strbtvc	r6, [lr], #-2399	; 0x95f
 a24:	6c61665f 	stclvs	6, cr6, [r1], #-380	; 0xfffffe84
 a28:	676e696c 	strbvs	r6, [lr, -ip, ror #18]!
 a2c:	6764655f 			; <UNDEFINED> instruction: 0x6764655f
 a30:	65720065 	ldrbvs	r0, [r2, #-101]!	; 0x65
 a34:	65735f67 	ldrbvs	r5, [r3, #-3943]!	; 0xf67
 a38:	7463656c 	strbtvc	r6, [r3], #-1388	; 0x56c
 a3c:	69706700 	ldmdbvs	r0!, {r8, r9, sl, sp, lr}^
 a40:	6c635f6f 	stclvs	15, cr5, [r3], #-444	; 0xfffffe44
 a44:	63003072 	movwvs	r3, #114	; 0x72
 a48:	705f6379 	subsvc	r6, pc, r9, ror r3	; <UNPREDICTABLE>
 a4c:	625f7265 	subsvs	r7, pc, #1342177286	; 0x50000006
 a50:	77007469 	strvc	r7, [r0, -r9, ror #8]
 a54:	65746972 	ldrbvs	r6, [r4, #-2418]!	; 0x972
 a58:	6379635f 	cmnvs	r9, #2080374785	; 0x7c000001
 a5c:	746e755f 	strbtvc	r7, [lr], #-1375	; 0x55f
 a60:	73006c69 	movwvc	r6, #3177	; 0xc69
 a64:	61755f77 	cmnvs	r5, r7, ror pc
 a68:	675f7472 			; <UNDEFINED> instruction: 0x675f7472
 a6c:	5f637465 	svcpl	0x00637465
 a70:	656d6974 	strbvs	r6, [sp, #-2420]!	; 0x974
 a74:	0074756f 	rsbseq	r7, r4, pc, ror #10
 a78:	755f7773 	ldrbvc	r7, [pc, #-1907]	; 30d <_start-0x7cf3>
 a7c:	5f747261 	svcpl	0x00747261
 a80:	73746567 	cmnvc	r4, #432013312	; 0x19c00000
 a84:	746e755f 	strbtvc	r7, [lr], #-1375	; 0x55f
 a88:	73006c69 	movwvc	r6, #3177	; 0xc69
 a8c:	61755f77 	cmnvs	r5, r7, ror pc
 a90:	675f7472 			; <UNDEFINED> instruction: 0x675f7472
 a94:	00637465 	rsbeq	r7, r3, r5, ror #8
 a98:	69726564 	ldmdbvs	r2!, {r2, r5, r6, r8, sl, sp, lr}^
 a9c:	00646576 	rsbeq	r6, r4, r6, ror r5
 aa0:	616c6564 	cmnvs	ip, r4, ror #10
 aa4:	636e5f79 	cmnvs	lr, #484	; 0x1e4
 aa8:	656c6379 	strbvs	r6, [ip, #-889]!	; 0x379
 aac:	69740073 	ldmdbvs	r4!, {r0, r1, r4, r5, r6}^
 ab0:	756f656d 	strbvc	r6, [pc, #-1389]!	; 54b <_start-0x7ab5>
 ab4:	73755f74 	cmnvc	r5, #116, 30	; 0x1d0
 ab8:	73006365 	movwvc	r6, #869	; 0x365
 abc:	61755f77 	cmnvs	r5, r7, ror pc
 ac0:	705f7472 	subsvc	r7, pc, r2, ror r4	; <UNPREDICTABLE>
 ac4:	006b7475 	rsbeq	r7, fp, r5, ror r4
 ac8:	732d796d 	teqvc	sp, #1785856	; 0x1b4000
 acc:	732f6372 	teqvc	pc, #-939524095	; 0xc8000001
 ad0:	61752d77 	cmnvs	r5, r7, ror sp
 ad4:	632e7472 	teqvs	lr, #1912602624	; 0x72000000
 ad8:	61686300 	cmnvs	r8, r0, lsl #6
 adc:	6e695f72 	mcrvs	15, 3, r5, cr9, cr2, {3}
 ae0:	5f777300 	svcpl	0x00777300
 ae4:	74726175 	ldrbtvc	r6, [r2], #-373	; 0x175
 ae8:	7465675f 	strbtvc	r6, [r5], #-1887	; 0x75f
 aec:	69745f73 	ldmdbvs	r4!, {r0, r1, r4, r5, r6, r8, r9, sl, fp, ip, lr}^
 af0:	756f656d 	strbvc	r6, [pc, #-1389]!	; 58b <_start-0x7a75>
 af4:	6f5f0074 	svcvs	0x005f0074
 af8:	6e007475 	mcrvs	4, 0, r7, cr0, cr5, {3}
 afc:	65747962 	ldrbvs	r7, [r4, #-2402]!	; 0x962
 b00:	73750073 	cmnvc	r5, #115	; 0x73
 b04:	745f6365 	ldrbvc	r6, [pc], #-869	; b0c <_start-0x74f4>
 b08:	6f656d69 	svcvs	0x00656d69
 b0c:	73007475 	movwvc	r7, #1141	; 0x475
 b10:	61755f77 	cmnvs	r5, r7, ror pc
 b14:	675f7472 			; <UNDEFINED> instruction: 0x675f7472
 b18:	5f737465 	svcpl	0x00737465
 b1c:	69746e75 	ldmdbvs	r4!, {r0, r2, r4, r5, r6, r9, sl, fp, sp, lr}^
 b20:	6c625f6c 	stclvs	15, cr5, [r2], #-432	; 0xfffffe50
 b24:	6177006b 	cmnvs	r7, fp, rrx
 b28:	755f7469 	ldrbvc	r7, [pc, #-1129]	; 6c7 <_start-0x7939>
 b2c:	6c69746e 	cfstrdvs	mvd7, [r9], #-440	; 0xfffffe48
 b30:	6573755f 	ldrbvs	r7, [r3, #-1375]!	; 0x55f
 b34:	61750063 	cmnvs	r5, r3, rrx
 b38:	685f7472 	ldmdavs	pc, {r1, r4, r5, r6, sl, ip, sp, lr}^	; <UNPREDICTABLE>
 b3c:	645f7361 	ldrbvs	r7, [pc], #-865	; b44 <_start-0x74bc>
 b40:	00617461 	rsbeq	r7, r1, r1, ror #8
 b44:	74726175 	ldrbtvc	r6, [r2], #-373	; 0x175
 b48:	696e695f 	stmdbvs	lr!, {r0, r1, r2, r3, r4, r6, r8, fp, sp, lr}^
 b4c:	796d0074 	stmdbvc	sp!, {r2, r4, r5, r6}^
 b50:	6372732d 	cmnvs	r2, #-1275068416	; 0xb4000000
 b54:	7261752f 	rsbvc	r7, r1, #197132288	; 0xbc00000
 b58:	00632e74 	rsbeq	r2, r3, r4, ror lr
 b5c:	74726175 	ldrbtvc	r6, [r2], #-373	; 0x175
 b60:	7465675f 	strbtvc	r6, [r5], #-1887	; 0x75f
 b64:	73615f63 	cmnvc	r1, #396	; 0x18c
 b68:	00636e79 	rsbeq	r6, r3, r9, ror lr
 b6c:	66657270 			; <UNDEFINED> instruction: 0x66657270
 b70:	68637465 	stmdavs	r3!, {r0, r2, r5, r6, sl, ip, sp, lr}^
 b74:	6f62615f 	svcvs	0x0062615f
 b78:	765f7472 			; <UNDEFINED> instruction: 0x765f7472
 b7c:	6f746365 	svcvs	0x00746365
 b80:	69440072 	stmdbvs	r4, {r1, r4, r5, r6}^
 b84:	6c626173 	stfvse	f6, [r2], #-460	; 0xfffffe34
 b88:	61425f65 	cmpvs	r2, r5, ror #30
 b8c:	5f636973 	svcpl	0x00636973
 b90:	73515249 	cmpvc	r1, #-1879048188	; 0x90000004
 b94:	51494600 	cmppl	r9, r0, lsl #12
 b98:	6e6f635f 	mcrvs	3, 3, r6, cr15, cr15, {2}
 b9c:	6c6f7274 	sfmvs	f7, 2, [pc], #-464	; 9d4 <_start-0x762c>
 ba0:	6e695f00 	cdpvs	15, 6, cr5, cr9, cr0, {0}
 ba4:	72726574 	rsbsvc	r6, r2, #116, 10	; 0x1d000000
 ba8:	5f747075 	svcpl	0x00747075
 bac:	6c626174 	stfvse	f6, [r2], #-464	; 0xfffffe30
 bb0:	52490065 	subpl	r0, r9, #101	; 0x65
 bb4:	61625f51 	cmnvs	r2, r1, asr pc
 bb8:	5f636973 	svcpl	0x00636973
 bbc:	646e6570 	strbtvs	r6, [lr], #-1392	; 0x570
 bc0:	00676e69 	rsbeq	r6, r7, r9, ror #28
 bc4:	62616e45 	rsbvs	r6, r1, #1104	; 0x450
 bc8:	425f656c 	subsmi	r6, pc, #108, 10	; 0x1b000000
 bcc:	63697361 	cmnvs	r9, #-2080374783	; 0x84000001
 bd0:	5152495f 	cmppl	r2, pc, asr r9
 bd4:	6e450073 	mcrvs	0, 2, r0, cr5, cr3, {3}
 bd8:	656c6261 	strbvs	r6, [ip, #-609]!	; 0x261
 bdc:	5152495f 	cmppl	r2, pc, asr r9
 be0:	00315f73 	eorseq	r5, r1, r3, ror pc
 be4:	62616e45 	rsbvs	r6, r1, #1104	; 0x450
 be8:	495f656c 	ldmdbmi	pc, {r2, r3, r5, r6, r8, sl, sp, lr}^	; <UNPREDICTABLE>
 bec:	5f735152 	svcpl	0x00735152
 bf0:	695f0032 	ldmdbvs	pc, {r1, r4, r5}^	; <UNPREDICTABLE>
 bf4:	7265746e 	rsbvc	r7, r5, #1845493760	; 0x6e000000
 bf8:	74707572 	ldrbtvc	r7, [r0], #-1394	; 0x572
 bfc:	6261745f 	rsbvs	r7, r1, #1593835520	; 0x5f000000
 c00:	655f656c 	ldrbvs	r6, [pc, #-1388]	; 69c <_start-0x7964>
 c04:	6400646e 	strvs	r6, [r0], #-1134	; 0x46e
 c08:	5f617461 	svcpl	0x00617461
 c0c:	726f6261 	rsbvc	r6, pc, #268435462	; 0x10000006
 c10:	65765f74 	ldrbvs	r5, [r6, #-3956]!	; 0xf74
 c14:	726f7463 	rsbvc	r7, pc, #1660944384	; 0x63000000
 c18:	51524900 	cmppl	r2, r0, lsl #18
 c1c:	6e65705f 	mcrvs	0, 3, r7, cr5, cr15, {2}
 c20:	676e6964 	strbvs	r6, [lr, -r4, ror #18]!
 c24:	6300325f 	movwvs	r3, #607	; 0x25f
 c28:	30343173 	eorscc	r3, r4, r3, ror r1
 c2c:	6e692d65 	cdpvs	13, 6, cr2, cr9, cr5, {3}
 c30:	72726574 	rsbsvc	r6, r2, #116, 10	; 0x1d000000
 c34:	2f747075 	svccs	0x00747075
 c38:	65746e69 	ldrbvs	r6, [r4, #-3689]!	; 0xe69
 c3c:	70757272 	rsbsvc	r7, r5, r2, ror r2
 c40:	632d7374 	teqvs	sp, #116, 6	; 0xd0000001
 c44:	4900632e 	stmdbmi	r0, {r1, r2, r3, r5, r8, r9, sp, lr}
 c48:	705f5152 	subsvc	r5, pc, r2, asr r1	; <UNPREDICTABLE>
 c4c:	69646e65 	stmdbvs	r4!, {r0, r2, r5, r6, r9, sl, fp, sp, lr}^
 c50:	315f676e 	cmpcc	pc, lr, ror #14
 c54:	646e7500 	strbtvs	r7, [lr], #-1280	; 0x500
 c58:	6e696665 	cdpvs	6, 6, cr6, cr9, cr5, {3}
 c5c:	695f6465 	ldmdbvs	pc, {r0, r2, r5, r6, sl, sp, lr}^	; <UNPREDICTABLE>
 c60:	7274736e 	rsbsvc	r7, r4, #-1207959551	; 0xb8000001
 c64:	69746375 	ldmdbvs	r4!, {r0, r2, r4, r5, r6, r8, r9, sp, lr}^
 c68:	765f6e6f 	ldrbvc	r6, [pc], -pc, ror #28
 c6c:	6f746365 	svcvs	0x00746365
 c70:	65720072 	ldrbvs	r0, [r2, #-114]!	; 0x72
 c74:	5f746573 	svcpl	0x00746573
 c78:	74636576 	strbtvc	r6, [r3], #-1398	; 0x576
 c7c:	7300726f 	movwvc	r7, #623	; 0x26f
 c80:	7774666f 	ldrbvc	r6, [r4, -pc, ror #12]!
 c84:	5f657261 	svcpl	0x00657261
 c88:	65746e69 	ldrbvs	r6, [r4, #-3689]!	; 0xe69
 c8c:	70757272 	rsbsvc	r7, r5, r2, ror r2
 c90:	65765f74 	ldrbvs	r5, [r6, #-3956]!	; 0xf74
 c94:	726f7463 	rsbvc	r7, pc, #1660944384	; 0x63000000
 c98:	73694400 	cmnvc	r9, #0, 8
 c9c:	656c6261 	strbvs	r6, [ip, #-609]!	; 0x261
 ca0:	5152495f 	cmppl	r2, pc, asr r9
 ca4:	00315f73 	eorseq	r5, r1, r3, ror pc
 ca8:	61736944 	cmnvs	r3, r4, asr #18
 cac:	5f656c62 	svcpl	0x00656c62
 cb0:	73515249 	cmpvc	r1, #-1879048188	; 0x90000004
 cb4:	6600325f 			; <UNDEFINED> instruction: 0x6600325f
 cb8:	5f747361 	svcpl	0x00747361
 cbc:	65746e69 	ldrbvs	r6, [r4, #-3689]!	; 0xe69
 cc0:	70757272 	rsbsvc	r7, r5, r2, ror r2
 cc4:	65765f74 	ldrbvs	r5, [r6, #-3956]!	; 0xf74
 cc8:	726f7463 	rsbvc	r7, pc, #1660944384	; 0x63000000
 ccc:	51524900 	cmppl	r2, r0, lsl #18
 cd0:	7361425f 	cmnvc	r1, #-268435451	; 0xf0000005
 cd4:	6e690065 	cdpvs	0, 6, cr0, cr9, cr5, {3}
 cd8:	6e726574 	mrcvs	5, 3, r6, cr2, cr4, {3}
 cdc:	705f6c61 	subsvc	r6, pc, r1, ror #24
 ce0:	68637475 	stmdavs	r3!, {r0, r2, r4, r5, r6, sl, ip, sp, lr}^
 ce4:	6c007261 	sfmvs	f7, 4, [r0], {97}	; 0x61
 ce8:	2f636269 	svccs	0x00636269
 cec:	63747570 	cmnvs	r4, #112, 10	; 0x1c000000
 cf0:	2e726168 	rpwcssz	f6, f2, #0.0
 cf4:	62630063 	rsbvs	r0, r3, #99	; 0x63
 cf8:	77656e5f 			; <UNDEFINED> instruction: 0x77656e5f
 cfc:	31736300 	cmncc	r3, r0, lsl #6
 d00:	2d653034 	stclcs	0, cr3, [r5, #-208]!	; 0xffffff30
 d04:	2f637273 	svccs	0x00637273
 d08:	746e6f63 	strbtvc	r6, [lr], #-3939	; 0xf63
 d0c:	2d6c6f72 	stclcs	15, cr6, [ip, #-456]!	; 0xfffffe38
 d10:	636f6c62 	cmnvs	pc, #25088	; 0x6200
 d14:	00632e6b 	rsbeq	r2, r3, fp, ror #28

Disassembly of section .debug_frame:

00000000 <.debug_frame>:
   0:	0000000c 	andeq	r0, r0, ip
   4:	ffffffff 			; <UNDEFINED> instruction: 0xffffffff
   8:	7c020001 	stcvc	0, cr0, [r2], {1}
   c:	000d0c0e 	andeq	r0, sp, lr, lsl #24
  10:	00000018 	andeq	r0, r0, r8, lsl r0
  14:	00000000 	andeq	r0, r0, r0
  18:	00008010 	andeq	r8, r0, r0, lsl r0
  1c:	000001a4 	andeq	r0, r0, r4, lsr #3
  20:	83100e42 	tsthi	r0, #1056	; 0x420
  24:	85038404 	strhi	r8, [r3, #-1028]	; 0x404
  28:	00018e02 	andeq	r8, r1, r2, lsl #28
  2c:	00000014 	andeq	r0, r0, r4, lsl r0
  30:	00000000 	andeq	r0, r0, r0
  34:	000081b4 			; <UNDEFINED> instruction: 0x000081b4
  38:	00000028 	andeq	r0, r0, r8, lsr #32
  3c:	83080e42 	movwhi	r0, #36418	; 0x8e42
  40:	00018e02 	andeq	r8, r1, r2, lsl #28
  44:	0000000c 	andeq	r0, r0, ip
  48:	00000000 	andeq	r0, r0, r0
  4c:	000081dc 	ldrdeq	r8, [r0], -ip
  50:	00000040 	andeq	r0, r0, r0, asr #32
  54:	00000014 	andeq	r0, r0, r4, lsl r0
  58:	00000000 	andeq	r0, r0, r0
  5c:	0000821c 	andeq	r8, r0, ip, lsl r2
  60:	000000bc 	strheq	r0, [r0], -ip
  64:	84080e42 	strhi	r0, [r8], #-3650	; 0xe42
  68:	00018e02 	andeq	r8, r1, r2, lsl #28
  6c:	00000014 	andeq	r0, r0, r4, lsl r0
  70:	00000000 	andeq	r0, r0, r0
  74:	000082d8 	ldrdeq	r8, [r0], -r8	; <UNPREDICTABLE>
  78:	00000054 	andeq	r0, r0, r4, asr r0
  7c:	84080e42 	strhi	r0, [r8], #-3650	; 0xe42
  80:	00018e02 	andeq	r8, r1, r2, lsl #28
  84:	00000020 	andeq	r0, r0, r0, lsr #32
  88:	00000000 	andeq	r0, r0, r0
  8c:	0000832c 	andeq	r8, r0, ip, lsr #6
  90:	000000e0 	andeq	r0, r0, r0, ror #1
  94:	83200e42 	teqhi	r0, #1056	; 0x420
  98:	85078408 	strhi	r8, [r7, #-1032]	; 0x408
  9c:	87058606 	strhi	r8, [r5, -r6, lsl #12]
  a0:	89038804 	stmdbhi	r3, {r2, fp, pc}
  a4:	00018e02 	andeq	r8, r1, r2, lsl #28
  a8:	00000020 	andeq	r0, r0, r0, lsr #32
  ac:	00000000 	andeq	r0, r0, r0
  b0:	0000840c 	andeq	r8, r0, ip, lsl #8
  b4:	00000150 	andeq	r0, r0, r0, asr r1
  b8:	83200e42 	teqhi	r0, #1056	; 0x420
  bc:	85078408 	strhi	r8, [r7, #-1032]	; 0x408
  c0:	87058606 	strhi	r8, [r5, -r6, lsl #12]
  c4:	89038804 	stmdbhi	r3, {r2, fp, pc}
  c8:	00018e02 	andeq	r8, r1, r2, lsl #28
  cc:	0000000c 	andeq	r0, r0, ip
  d0:	00000000 	andeq	r0, r0, r0
  d4:	0000855c 	andeq	r8, r0, ip, asr r5
  d8:	00000078 	andeq	r0, r0, r8, ror r0
  dc:	0000001c 	andeq	r0, r0, ip, lsl r0
  e0:	00000000 	andeq	r0, r0, r0
  e4:	000085d4 	ldrdeq	r8, [r0], -r4
  e8:	0000019c 	muleq	r0, ip, r1
  ec:	84100e42 	ldrhi	r0, [r0], #-3650	; 0xe42
  f0:	86038504 	strhi	r8, [r3], -r4, lsl #10
  f4:	42018e02 	andmi	r8, r1, #2, 28
  f8:	0000280e 	andeq	r2, r0, lr, lsl #16
  fc:	0000000c 	andeq	r0, r0, ip
 100:	ffffffff 			; <UNDEFINED> instruction: 0xffffffff
 104:	7c020001 	stcvc	0, cr0, [r2], {1}
 108:	000d0c0e 	andeq	r0, sp, lr, lsl #24
 10c:	0000000c 	andeq	r0, r0, ip
 110:	000000fc 	strdeq	r0, [r0], -ip
 114:	00008770 	andeq	r8, r0, r0, ror r7
 118:	00000020 	andeq	r0, r0, r0, lsr #32
 11c:	0000000c 	andeq	r0, r0, ip
 120:	ffffffff 			; <UNDEFINED> instruction: 0xffffffff
 124:	7c020001 	stcvc	0, cr0, [r2], {1}
 128:	000d0c0e 	andeq	r0, sp, lr, lsl #24
 12c:	00000024 	andeq	r0, r0, r4, lsr #32
 130:	0000011c 	andeq	r0, r0, ip, lsl r1
 134:	00008790 	muleq	r0, r0, r7
 138:	00000058 	andeq	r0, r0, r8, asr r0
 13c:	80100e42 	andshi	r0, r0, r2, asr #28
 140:	82038104 	andhi	r8, r3, #4, 2
 144:	42018302 	andmi	r8, r1, #134217728	; 0x8000000
 148:	07841c0e 	streq	r1, [r4, lr, lsl #24]
 14c:	058e0685 	streq	r0, [lr, #1669]	; 0x685
 150:	00280e42 	eoreq	r0, r8, r2, asr #28
 154:	0000000c 	andeq	r0, r0, ip
 158:	ffffffff 			; <UNDEFINED> instruction: 0xffffffff
 15c:	7c020001 	stcvc	0, cr0, [r2], {1}
 160:	000d0c0e 	andeq	r0, sp, lr, lsl #24
 164:	00000018 	andeq	r0, r0, r8, lsl r0
 168:	00000154 	andeq	r0, r0, r4, asr r1
 16c:	000087e8 	andeq	r8, r0, r8, ror #15
 170:	00000034 	andeq	r0, r0, r4, lsr r0
 174:	83100e42 	tsthi	r0, #1056	; 0x420
 178:	85038404 	strhi	r8, [r3, #-1028]	; 0x404
 17c:	00018e02 	andeq	r8, r1, r2, lsl #28
 180:	0000000c 	andeq	r0, r0, ip
 184:	ffffffff 			; <UNDEFINED> instruction: 0xffffffff
 188:	7c020001 	stcvc	0, cr0, [r2], {1}
 18c:	000d0c0e 	andeq	r0, sp, lr, lsl #24
 190:	0000000c 	andeq	r0, r0, ip
 194:	00000180 	andeq	r0, r0, r0, lsl #3
 198:	0000881c 	andeq	r8, r0, ip, lsl r8
 19c:	00000014 	andeq	r0, r0, r4, lsl r0
 1a0:	0000000c 	andeq	r0, r0, ip
 1a4:	00000180 	andeq	r0, r0, r0, lsl #3
 1a8:	00008830 	andeq	r8, r0, r0, lsr r8
 1ac:	0000002c 	andeq	r0, r0, ip, lsr #32
 1b0:	0000000c 	andeq	r0, r0, ip
 1b4:	00000180 	andeq	r0, r0, r0, lsl #3
 1b8:	0000885c 	andeq	r8, r0, ip, asr r8
 1bc:	00000040 	andeq	r0, r0, r0, asr #32
 1c0:	00000020 	andeq	r0, r0, r0, lsr #32
 1c4:	00000180 	andeq	r0, r0, r0, lsl #3
 1c8:	0000889c 	muleq	r0, ip, r8
 1cc:	00000198 	muleq	r0, r8, r1
 1d0:	84180e42 	ldrhi	r0, [r8], #-3650	; 0xe42
 1d4:	86058506 	strhi	r8, [r5], -r6, lsl #10
 1d8:	88038704 	stmdahi	r3, {r2, r8, r9, sl, pc}
 1dc:	42018e02 	andmi	r8, r1, #2, 28
 1e0:	0000580e 	andeq	r5, r0, lr, lsl #16
 1e4:	00000014 	andeq	r0, r0, r4, lsl r0
 1e8:	00000180 	andeq	r0, r0, r0, lsl #3
 1ec:	00008a34 	andeq	r8, r0, r4, lsr sl
 1f0:	00000050 	andeq	r0, r0, r0, asr r0
 1f4:	83080e42 	movwhi	r0, #36418	; 0x8e42
 1f8:	00018e02 	andeq	r8, r1, r2, lsl #28
 1fc:	00000028 	andeq	r0, r0, r8, lsr #32
 200:	00000180 	andeq	r0, r0, r0, lsl #3
 204:	00008a84 	andeq	r8, r0, r4, lsl #21
 208:	00000288 	andeq	r0, r0, r8, lsl #5
 20c:	84240e42 	strthi	r0, [r4], #-3650	; 0xe42
 210:	86088509 	strhi	r8, [r8], -r9, lsl #10
 214:	88068707 	stmdahi	r6, {r0, r1, r2, r8, r9, sl, pc}
 218:	8a048905 	bhi	122634 <__bss_end__+0x113cf4>
 21c:	8e028b03 	vmlahi.f64	d8, d2, d3
 220:	b00e4201 	andlt	r4, lr, r1, lsl #4
 224:	00000001 	andeq	r0, r0, r1
 228:	0000000c 	andeq	r0, r0, ip
 22c:	ffffffff 			; <UNDEFINED> instruction: 0xffffffff
 230:	7c020001 	stcvc	0, cr0, [r2], {1}
 234:	000d0c0e 	andeq	r0, sp, lr, lsl #24
 238:	0000000c 	andeq	r0, r0, ip
 23c:	00000228 	andeq	r0, r0, r8, lsr #4
 240:	00008d0c 	andeq	r8, r0, ip, lsl #26
 244:	00000010 	andeq	r0, r0, r0, lsl r0
 248:	0000000c 	andeq	r0, r0, ip
 24c:	00000228 	andeq	r0, r0, r8, lsr #4
 250:	00008d1c 	andeq	r8, r0, ip, lsl sp
 254:	00000010 	andeq	r0, r0, r0, lsl r0
 258:	0000000c 	andeq	r0, r0, ip
 25c:	ffffffff 			; <UNDEFINED> instruction: 0xffffffff
 260:	7c020001 	stcvc	0, cr0, [r2], {1}
 264:	000d0c0e 	andeq	r0, sp, lr, lsl #24
 268:	00000014 	andeq	r0, r0, r4, lsl r0
 26c:	00000258 	andeq	r0, r0, r8, asr r2
 270:	00008d2c 	andeq	r8, r0, ip, lsr #26
 274:	00000028 	andeq	r0, r0, r8, lsr #32
 278:	83080e42 	movwhi	r0, #36418	; 0x8e42
 27c:	00018e02 	andeq	r8, r1, r2, lsl #28
 280:	0000000c 	andeq	r0, r0, ip
 284:	ffffffff 			; <UNDEFINED> instruction: 0xffffffff
 288:	7c020001 	stcvc	0, cr0, [r2], {1}
 28c:	000d0c0e 	andeq	r0, sp, lr, lsl #24
 290:	00000014 	andeq	r0, r0, r4, lsl r0
 294:	00000280 	andeq	r0, r0, r0, lsl #5
 298:	00008d54 	andeq	r8, r0, r4, asr sp
 29c:	00000020 	andeq	r0, r0, r0, lsr #32
 2a0:	84080e42 	strhi	r0, [r8], #-3650	; 0xe42
 2a4:	00018e02 	andeq	r8, r1, r2, lsl #28
 2a8:	00000014 	andeq	r0, r0, r4, lsl r0
 2ac:	00000280 	andeq	r0, r0, r0, lsl #5
 2b0:	00008d74 	andeq	r8, r0, r4, ror sp
 2b4:	00000090 	muleq	r0, r0, r0
 2b8:	83080e42 	movwhi	r0, #36418	; 0x8e42
 2bc:	00018e02 	andeq	r8, r1, r2, lsl #28
 2c0:	0000000c 	andeq	r0, r0, ip
 2c4:	ffffffff 			; <UNDEFINED> instruction: 0xffffffff
 2c8:	7c020001 	stcvc	0, cr0, [r2], {1}
 2cc:	000d0c0e 	andeq	r0, sp, lr, lsl #24
 2d0:	0000000c 	andeq	r0, r0, ip
 2d4:	000002c0 	andeq	r0, r0, r0, asr #5
 2d8:	00008e04 	andeq	r8, r0, r4, lsl #28
 2dc:	00000018 	andeq	r0, r0, r8, lsl r0
 2e0:	0000000c 	andeq	r0, r0, ip
 2e4:	000002c0 	andeq	r0, r0, r0, asr #5
 2e8:	00008e1c 	andeq	r8, r0, ip, lsl lr
 2ec:	00000014 	andeq	r0, r0, r4, lsl r0
 2f0:	00000014 	andeq	r0, r0, r4, lsl r0
 2f4:	000002c0 	andeq	r0, r0, r0, asr #5
 2f8:	00008e30 	andeq	r8, r0, r0, lsr lr
 2fc:	00000048 	andeq	r0, r0, r8, asr #32
 300:	83080e42 	movwhi	r0, #36418	; 0x8e42
 304:	00018e02 	andeq	r8, r1, r2, lsl #28
 308:	0000000c 	andeq	r0, r0, ip
 30c:	ffffffff 			; <UNDEFINED> instruction: 0xffffffff
 310:	7c020001 	stcvc	0, cr0, [r2], {1}
 314:	000d0c0e 	andeq	r0, sp, lr, lsl #24
 318:	0000000c 	andeq	r0, r0, ip
 31c:	00000308 	andeq	r0, r0, r8, lsl #6
 320:	00008e78 	andeq	r8, r0, r8, ror lr
 324:	0000001c 	andeq	r0, r0, ip, lsl r0
 328:	00000014 	andeq	r0, r0, r4, lsl r0
 32c:	00000308 	andeq	r0, r0, r8, lsl #6
 330:	00008e94 	muleq	r0, r4, lr
 334:	00000014 	andeq	r0, r0, r4, lsl r0
 338:	83080e42 	movwhi	r0, #36418	; 0x8e42
 33c:	00018e02 	andeq	r8, r1, r2, lsl #28
 340:	00000014 	andeq	r0, r0, r4, lsl r0
 344:	00000308 	andeq	r0, r0, r8, lsl #6
 348:	00008ea8 	andeq	r8, r0, r8, lsr #29
 34c:	0000000c 	andeq	r0, r0, ip
 350:	83080e42 	movwhi	r0, #36418	; 0x8e42
 354:	00018e02 	andeq	r8, r1, r2, lsl #28
 358:	00000018 	andeq	r0, r0, r8, lsl r0
 35c:	00000308 	andeq	r0, r0, r8, lsl #6
 360:	00008eb4 			; <UNDEFINED> instruction: 0x00008eb4
 364:	00000024 	andeq	r0, r0, r4, lsr #32
 368:	83100e42 	tsthi	r0, #1056	; 0x420
 36c:	85038404 	strhi	r8, [r3, #-1028]	; 0x404
 370:	00018e02 	andeq	r8, r1, r2, lsl #28
 374:	00000014 	andeq	r0, r0, r4, lsl r0
 378:	00000308 	andeq	r0, r0, r8, lsl #6
 37c:	00008ed8 	ldrdeq	r8, [r0], -r8	; <UNPREDICTABLE>
 380:	00000014 	andeq	r0, r0, r4, lsl r0
 384:	83080e42 	movwhi	r0, #36418	; 0x8e42
 388:	00018e02 	andeq	r8, r1, r2, lsl #28
 38c:	00000014 	andeq	r0, r0, r4, lsl r0
 390:	00000308 	andeq	r0, r0, r8, lsl #6
 394:	00008eec 	andeq	r8, r0, ip, ror #29
 398:	00000014 	andeq	r0, r0, r4, lsl r0
 39c:	83080e42 	movwhi	r0, #36418	; 0x8e42
 3a0:	00018e02 	andeq	r8, r1, r2, lsl #28
 3a4:	0000000c 	andeq	r0, r0, ip
 3a8:	ffffffff 			; <UNDEFINED> instruction: 0xffffffff
 3ac:	7c020001 	stcvc	0, cr0, [r2], {1}
 3b0:	000d0c0e 	andeq	r0, sp, lr, lsl #24
 3b4:	00000018 	andeq	r0, r0, r8, lsl r0
 3b8:	000003a4 	andeq	r0, r0, r4, lsr #7
 3bc:	00008f00 	andeq	r8, r0, r0, lsl #30
 3c0:	000000d4 	ldrdeq	r0, [r0], -r4
 3c4:	83100e42 	tsthi	r0, #1056	; 0x420
 3c8:	85038404 	strhi	r8, [r3, #-1028]	; 0x404
 3cc:	00018e02 	andeq	r8, r1, r2, lsl #28
 3d0:	00000014 	andeq	r0, r0, r4, lsl r0
 3d4:	000003a4 	andeq	r0, r0, r4, lsr #7
 3d8:	00008fd4 	ldrdeq	r8, [r0], -r4
 3dc:	00000038 	andeq	r0, r0, r8, lsr r0
 3e0:	83080e42 	movwhi	r0, #36418	; 0x8e42
 3e4:	00018e02 	andeq	r8, r1, r2, lsl #28
 3e8:	00000014 	andeq	r0, r0, r4, lsl r0
 3ec:	000003a4 	andeq	r0, r0, r4, lsr #7
 3f0:	0000900c 	andeq	r9, r0, ip
 3f4:	00000038 	andeq	r0, r0, r8, lsr r0
 3f8:	83080e42 	movwhi	r0, #36418	; 0x8e42
 3fc:	00018e02 	andeq	r8, r1, r2, lsl #28
 400:	00000018 	andeq	r0, r0, r8, lsl r0
 404:	000003a4 	andeq	r0, r0, r4, lsr #7
 408:	00009044 	andeq	r9, r0, r4, asr #32
 40c:	000000cc 	andeq	r0, r0, ip, asr #1
 410:	83100e42 	tsthi	r0, #1056	; 0x420
 414:	85038404 	strhi	r8, [r3, #-1028]	; 0x404
 418:	00018e02 	andeq	r8, r1, r2, lsl #28
 41c:	00000014 	andeq	r0, r0, r4, lsl r0
 420:	000003a4 	andeq	r0, r0, r4, lsr #7
 424:	00009110 	andeq	r9, r0, r0, lsl r1
 428:	0000004c 	andeq	r0, r0, ip, asr #32
 42c:	84080e42 	strhi	r0, [r8], #-3650	; 0xe42
 430:	00018e02 	andeq	r8, r1, r2, lsl #28
 434:	00000014 	andeq	r0, r0, r4, lsl r0
 438:	000003a4 	andeq	r0, r0, r4, lsr #7
 43c:	0000915c 	andeq	r9, r0, ip, asr r1
 440:	00000078 	andeq	r0, r0, r8, ror r0
 444:	83080e42 	movwhi	r0, #36418	; 0x8e42
 448:	00018e02 	andeq	r8, r1, r2, lsl #28
 44c:	00000018 	andeq	r0, r0, r8, lsl r0
 450:	000003a4 	andeq	r0, r0, r4, lsr #7
 454:	000091d4 	ldrdeq	r9, [r0], -r4
 458:	000000d8 	ldrdeq	r0, [r0], -r8
 45c:	84100e42 	ldrhi	r0, [r0], #-3650	; 0xe42
 460:	86038504 	strhi	r8, [r3], -r4, lsl #10
 464:	00018e02 	andeq	r8, r1, r2, lsl #28
 468:	00000014 	andeq	r0, r0, r4, lsl r0
 46c:	000003a4 	andeq	r0, r0, r4, lsr #7
 470:	000092ac 	andeq	r9, r0, ip, lsr #5
 474:	0000002c 	andeq	r0, r0, ip, lsr #32
 478:	83080e42 	movwhi	r0, #36418	; 0x8e42
 47c:	00018e02 	andeq	r8, r1, r2, lsl #28
 480:	00000018 	andeq	r0, r0, r8, lsl r0
 484:	000003a4 	andeq	r0, r0, r4, lsr #7
 488:	000092d8 	ldrdeq	r9, [r0], -r8
 48c:	00000084 	andeq	r0, r0, r4, lsl #1
 490:	83100e42 	tsthi	r0, #1056	; 0x420
 494:	85038404 	strhi	r8, [r3, #-1028]	; 0x404
 498:	00018e02 	andeq	r8, r1, r2, lsl #28
 49c:	00000018 	andeq	r0, r0, r8, lsl r0
 4a0:	000003a4 	andeq	r0, r0, r4, lsr #7
 4a4:	0000935c 	andeq	r9, r0, ip, asr r3
 4a8:	00000084 	andeq	r0, r0, r4, lsl #1
 4ac:	83100e42 	tsthi	r0, #1056	; 0x420
 4b0:	85038404 	strhi	r8, [r3, #-1028]	; 0x404
 4b4:	00018e02 	andeq	r8, r1, r2, lsl #28
 4b8:	00000014 	andeq	r0, r0, r4, lsl r0
 4bc:	000003a4 	andeq	r0, r0, r4, lsr #7
 4c0:	000093e0 	andeq	r9, r0, r0, ror #7
 4c4:	00000084 	andeq	r0, r0, r4, lsl #1
 4c8:	84080e42 	strhi	r0, [r8], #-3650	; 0xe42
 4cc:	00018e02 	andeq	r8, r1, r2, lsl #28
 4d0:	00000014 	andeq	r0, r0, r4, lsl r0
 4d4:	000003a4 	andeq	r0, r0, r4, lsr #7
 4d8:	00009464 	andeq	r9, r0, r4, ror #8
 4dc:	00000058 	andeq	r0, r0, r8, asr r0
 4e0:	84080e42 	strhi	r0, [r8], #-3650	; 0xe42
 4e4:	00018e02 	andeq	r8, r1, r2, lsl #28
 4e8:	0000000c 	andeq	r0, r0, ip
 4ec:	ffffffff 			; <UNDEFINED> instruction: 0xffffffff
 4f0:	7c020001 	stcvc	0, cr0, [r2], {1}
 4f4:	000d0c0e 	andeq	r0, sp, lr, lsl #24
 4f8:	0000001c 	andeq	r0, r0, ip, lsl r0
 4fc:	000004e8 	andeq	r0, r0, r8, ror #9
 500:	000094bc 			; <UNDEFINED> instruction: 0x000094bc
 504:	00000154 	andeq	r0, r0, r4, asr r1
 508:	84180e42 	ldrhi	r0, [r8], #-3650	; 0xe42
 50c:	86058506 	strhi	r8, [r5], -r6, lsl #10
 510:	88038704 	stmdahi	r3, {r2, r8, r9, sl, pc}
 514:	00018e02 	andeq	r8, r1, r2, lsl #28
 518:	00000020 	andeq	r0, r0, r0, lsr #32
 51c:	000004e8 	andeq	r0, r0, r8, ror #9
 520:	00009610 	andeq	r9, r0, r0, lsl r6
 524:	000001c8 	andeq	r0, r0, r8, asr #3
 528:	83200e42 	teqhi	r0, #1056	; 0x420
 52c:	85078408 	strhi	r8, [r7, #-1032]	; 0x408
 530:	87058606 	strhi	r8, [r5, -r6, lsl #12]
 534:	89038804 	stmdbhi	r3, {r2, fp, pc}
 538:	00018e02 	andeq	r8, r1, r2, lsl #28
 53c:	00000020 	andeq	r0, r0, r0, lsr #32
 540:	000004e8 	andeq	r0, r0, r8, ror #9
 544:	000097d8 	ldrdeq	r9, [r0], -r8
 548:	0000008c 	andeq	r0, r0, ip, lsl #1
 54c:	84200e42 	strthi	r0, [r0], #-3650	; 0xe42
 550:	86078508 	strhi	r8, [r7], -r8, lsl #10
 554:	88058706 	stmdahi	r5, {r1, r2, r8, r9, sl, pc}
 558:	8a038904 	bhi	e2970 <__bss_end__+0xd4030>
 55c:	00018e02 	andeq	r8, r1, r2, lsl #28
 560:	0000001c 	andeq	r0, r0, ip, lsl r0
 564:	000004e8 	andeq	r0, r0, r8, ror #9
 568:	00009864 	andeq	r9, r0, r4, ror #16
 56c:	00000078 	andeq	r0, r0, r8, ror r0
 570:	84180e42 	ldrhi	r0, [r8], #-3650	; 0xe42
 574:	86058506 	strhi	r8, [r5], -r6, lsl #10
 578:	88038704 	stmdahi	r3, {r2, r8, r9, sl, pc}
 57c:	00018e02 	andeq	r8, r1, r2, lsl #28
 580:	0000001c 	andeq	r0, r0, ip, lsl r0
 584:	000004e8 	andeq	r0, r0, r8, ror #9
 588:	000098dc 	ldrdeq	r9, [r0], -ip
 58c:	000000bc 	strheq	r0, [r0], -ip
 590:	84180e42 	ldrhi	r0, [r8], #-3650	; 0xe42
 594:	86058506 	strhi	r8, [r5], -r6, lsl #10
 598:	88038704 	stmdahi	r3, {r2, r8, r9, sl, pc}
 59c:	00018e02 	andeq	r8, r1, r2, lsl #28
 5a0:	00000014 	andeq	r0, r0, r4, lsl r0
 5a4:	000004e8 	andeq	r0, r0, r8, ror #9
 5a8:	00009998 	muleq	r0, r8, r9
 5ac:	00000038 	andeq	r0, r0, r8, lsr r0
 5b0:	83080e42 	movwhi	r0, #36418	; 0x8e42
 5b4:	00018e02 	andeq	r8, r1, r2, lsl #28
 5b8:	00000018 	andeq	r0, r0, r8, lsl r0
 5bc:	000004e8 	andeq	r0, r0, r8, ror #9
 5c0:	000099d0 	ldrdeq	r9, [r0], -r0
 5c4:	0000002c 	andeq	r0, r0, ip, lsr #32
 5c8:	83100e42 	tsthi	r0, #1056	; 0x420
 5cc:	85038404 	strhi	r8, [r3, #-1028]	; 0x404
 5d0:	00018e02 	andeq	r8, r1, r2, lsl #28
 5d4:	00000024 	andeq	r0, r0, r4, lsr #32
 5d8:	000004e8 	andeq	r0, r0, r8, ror #9
 5dc:	000099fc 	strdeq	r9, [r0], -ip
 5e0:	00000080 	andeq	r0, r0, r0, lsl #1
 5e4:	810c0e42 	tsthi	ip, r2, asr #28
 5e8:	83028203 	movwhi	r8, #8707	; 0x2203
 5ec:	180e4201 	stmdane	lr, {r0, r9, lr}
 5f0:	05850684 	streq	r0, [r5, #1668]	; 0x684
 5f4:	0e42048e 	cdpeq	4, 4, cr0, cr2, cr14, {4}
 5f8:	000003e8 	andeq	r0, r0, r8, ror #7
 5fc:	00000014 	andeq	r0, r0, r4, lsl r0
 600:	000004e8 	andeq	r0, r0, r8, ror #9
 604:	00009a7c 	andeq	r9, r0, ip, ror sl
 608:	00000048 	andeq	r0, r0, r8, asr #32
 60c:	8e040e42 	cdphi	14, 0, cr0, cr4, cr2, {2}
 610:	100e4201 	andne	r4, lr, r1, lsl #4
 614:	0000000c 	andeq	r0, r0, ip
 618:	ffffffff 			; <UNDEFINED> instruction: 0xffffffff
 61c:	7c020001 	stcvc	0, cr0, [r2], {1}
 620:	000d0c0e 	andeq	r0, sp, lr, lsl #24
 624:	00000018 	andeq	r0, r0, r8, lsl r0
 628:	00000614 	andeq	r0, r0, r4, lsl r6
 62c:	00009ac4 	andeq	r9, r0, r4, asr #21
 630:	0000009c 	muleq	r0, ip, r0
 634:	83100e42 	tsthi	r0, #1056	; 0x420
 638:	85038404 	strhi	r8, [r3, #-1028]	; 0x404
 63c:	00018e02 	andeq	r8, r1, r2, lsl #28
 640:	00000014 	andeq	r0, r0, r4, lsl r0
 644:	00000614 	andeq	r0, r0, r4, lsl r6
 648:	00009b60 	andeq	r9, r0, r0, ror #22
 64c:	0000001c 	andeq	r0, r0, ip, lsl r0
 650:	83080e42 	movwhi	r0, #36418	; 0x8e42
 654:	00018e02 	andeq	r8, r1, r2, lsl #28
 658:	00000014 	andeq	r0, r0, r4, lsl r0
 65c:	00000614 	andeq	r0, r0, r4, lsl r6
 660:	00009b7c 	andeq	r9, r0, ip, ror fp
 664:	00000028 	andeq	r0, r0, r8, lsr #32
 668:	83080e42 	movwhi	r0, #36418	; 0x8e42
 66c:	00018e02 	andeq	r8, r1, r2, lsl #28
 670:	00000014 	andeq	r0, r0, r4, lsl r0
 674:	00000614 	andeq	r0, r0, r4, lsl r6
 678:	00009ba4 	andeq	r9, r0, r4, lsr #23
 67c:	0000001c 	andeq	r0, r0, ip, lsl r0
 680:	83080e42 	movwhi	r0, #36418	; 0x8e42
 684:	00018e02 	andeq	r8, r1, r2, lsl #28
 688:	00000014 	andeq	r0, r0, r4, lsl r0
 68c:	00000614 	andeq	r0, r0, r4, lsl r6
 690:	00009bc0 	andeq	r9, r0, r0, asr #23
 694:	0000002c 	andeq	r0, r0, ip, lsr #32
 698:	84080e42 	strhi	r0, [r8], #-3650	; 0xe42
 69c:	00018e02 	andeq	r8, r1, r2, lsl #28
 6a0:	00000014 	andeq	r0, r0, r4, lsl r0
 6a4:	00000614 	andeq	r0, r0, r4, lsl r6
 6a8:	00009bec 	andeq	r9, r0, ip, ror #23
 6ac:	0000000c 	andeq	r0, r0, ip
 6b0:	83080e42 	movwhi	r0, #36418	; 0x8e42
 6b4:	00018e02 	andeq	r8, r1, r2, lsl #28
 6b8:	00000014 	andeq	r0, r0, r4, lsl r0
 6bc:	00000614 	andeq	r0, r0, r4, lsl r6
 6c0:	00009bf8 	strdeq	r9, [r0], -r8
 6c4:	00000020 	andeq	r0, r0, r0, lsr #32
 6c8:	83080e42 	movwhi	r0, #36418	; 0x8e42
 6cc:	00018e02 	andeq	r8, r1, r2, lsl #28
 6d0:	0000000c 	andeq	r0, r0, ip
 6d4:	ffffffff 			; <UNDEFINED> instruction: 0xffffffff
 6d8:	7c020001 	stcvc	0, cr0, [r2], {1}
 6dc:	000d0c0e 	andeq	r0, sp, lr, lsl #24
 6e0:	00000014 	andeq	r0, r0, r4, lsl r0
 6e4:	000006d0 	ldrdeq	r0, [r0], -r0	; <UNPREDICTABLE>
 6e8:	00009c18 	andeq	r9, r0, r8, lsl ip
 6ec:	00000068 	andeq	r0, r0, r8, rrx
 6f0:	83080e42 	movwhi	r0, #36418	; 0x8e42
 6f4:	00018e02 	andeq	r8, r1, r2, lsl #28
 6f8:	00000014 	andeq	r0, r0, r4, lsl r0
 6fc:	000006d0 	ldrdeq	r0, [r0], -r0	; <UNPREDICTABLE>
 700:	00009c80 	andeq	r9, r0, r0, lsl #25
 704:	0000003c 	andeq	r0, r0, ip, lsr r0
 708:	8e040e42 	cdphi	14, 0, cr0, cr4, cr2, {2}
 70c:	100e4201 	andne	r4, lr, r1, lsl #4
 710:	00000014 	andeq	r0, r0, r4, lsl r0
 714:	000006d0 	ldrdeq	r0, [r0], -r0	; <UNPREDICTABLE>
 718:	00009cbc 			; <UNDEFINED> instruction: 0x00009cbc
 71c:	0000003c 	andeq	r0, r0, ip, lsr r0
 720:	8e040e42 	cdphi	14, 0, cr0, cr4, cr2, {2}
 724:	100e4201 	andne	r4, lr, r1, lsl #4
 728:	00000014 	andeq	r0, r0, r4, lsl r0
 72c:	000006d0 	ldrdeq	r0, [r0], -r0	; <UNPREDICTABLE>
 730:	00009cf8 	strdeq	r9, [r0], -r8
 734:	0000003c 	andeq	r0, r0, ip, lsr r0
 738:	8e040e42 	cdphi	14, 0, cr0, cr4, cr2, {2}
 73c:	100e4201 	andne	r4, lr, r1, lsl #4
 740:	00000014 	andeq	r0, r0, r4, lsl r0
 744:	000006d0 	ldrdeq	r0, [r0], -r0	; <UNPREDICTABLE>
 748:	00009d34 	andeq	r9, r0, r4, lsr sp
 74c:	0000003c 	andeq	r0, r0, ip, lsr r0
 750:	8e040e42 	cdphi	14, 0, cr0, cr4, cr2, {2}
 754:	100e4201 	andne	r4, lr, r1, lsl #4
 758:	00000014 	andeq	r0, r0, r4, lsl r0
 75c:	000006d0 	ldrdeq	r0, [r0], -r0	; <UNPREDICTABLE>
 760:	00009d70 	andeq	r9, r0, r0, ror sp
 764:	0000003c 	andeq	r0, r0, ip, lsr r0
 768:	8e040e42 	cdphi	14, 0, cr0, cr4, cr2, {2}
 76c:	100e4201 	andne	r4, lr, r1, lsl #4
 770:	00000014 	andeq	r0, r0, r4, lsl r0
 774:	000006d0 	ldrdeq	r0, [r0], -r0	; <UNPREDICTABLE>
 778:	00009dac 	andeq	r9, r0, ip, lsr #27
 77c:	0000003c 	andeq	r0, r0, ip, lsr r0
 780:	8e040e42 	cdphi	14, 0, cr0, cr4, cr2, {2}
 784:	100e4201 	andne	r4, lr, r1, lsl #4
 788:	0000000c 	andeq	r0, r0, ip
 78c:	ffffffff 			; <UNDEFINED> instruction: 0xffffffff
 790:	7c020001 	stcvc	0, cr0, [r2], {1}
 794:	000d0c0e 	andeq	r0, sp, lr, lsl #24
 798:	00000014 	andeq	r0, r0, r4, lsl r0
 79c:	00000788 	andeq	r0, r0, r8, lsl #15
 7a0:	00009f24 	andeq	r9, r0, r4, lsr #30
 7a4:	00000014 	andeq	r0, r0, r4, lsl r0
 7a8:	84080e42 	strhi	r0, [r8], #-3650	; 0xe42
 7ac:	00018e02 	andeq	r8, r1, r2, lsl #28
 7b0:	0000000c 	andeq	r0, r0, ip
 7b4:	ffffffff 			; <UNDEFINED> instruction: 0xffffffff
 7b8:	7c020001 	stcvc	0, cr0, [r2], {1}
 7bc:	000d0c0e 	andeq	r0, sp, lr, lsl #24
 7c0:	00000014 	andeq	r0, r0, r4, lsl r0
 7c4:	000007b0 			; <UNDEFINED> instruction: 0x000007b0
 7c8:	00009f38 	andeq	r9, r0, r8, lsr pc
 7cc:	00000028 	andeq	r0, r0, r8, lsr #32
 7d0:	83080e42 	movwhi	r0, #36418	; 0x8e42
 7d4:	00018e02 	andeq	r8, r1, r2, lsl #28
 7d8:	0000000c 	andeq	r0, r0, ip
 7dc:	000007b0 			; <UNDEFINED> instruction: 0x000007b0
 7e0:	00009f60 	andeq	r9, r0, r0, ror #30
 7e4:	00000028 	andeq	r0, r0, r8, lsr #32
