
1-gpio-int-ex.elf:     file format elf32-littlearm


Disassembly of section .text:

00008000 <_start>:
    8000:	e3a0d302 	mov	sp, #134217728	; 0x8000000
    8004:	e3a0b000 	mov	fp, #0
    8008:	eb000276 	bl	89e8 <_cstart>
    800c:	eb00028d 	bl	8a48 <rpi_reboot>

00008010 <test1_simple_rise>:
    8010:	e92d4010 	push	{r4, lr}
    8014:	e1a04000 	mov	r4, r0
    8018:	e59f0084 	ldr	r0, [pc, #132]	; 80a4 <test1_simple_rise+0x94>
    801c:	eb000108 	bl	8444 <printk>
    8020:	e59f3080 	ldr	r3, [pc, #128]	; 80a8 <test1_simple_rise+0x98>
    8024:	e5933000 	ldr	r3, [r3]
    8028:	e3530000 	cmp	r3, #0
    802c:	0a000005 	beq	8048 <test1_simple_rise+0x38>
    8030:	e59f0074 	ldr	r0, [pc, #116]	; 80ac <test1_simple_rise+0x9c>
    8034:	e59f1074 	ldr	r1, [pc, #116]	; 80b0 <test1_simple_rise+0xa0>
    8038:	e59f2074 	ldr	r2, [pc, #116]	; 80b4 <test1_simple_rise+0xa4>
    803c:	e3a03028 	mov	r3, #40	; 0x28
    8040:	eb0000ff 	bl	8444 <printk>
    8044:	eb00025d 	bl	89c0 <clean_reboot>
    8048:	e59f0068 	ldr	r0, [pc, #104]	; 80b8 <test1_simple_rise+0xa8>
    804c:	eb0000fc 	bl	8444 <printk>
    8050:	e3a00015 	mov	r0, #21
    8054:	e3a01001 	mov	r1, #1
    8058:	eb000345 	bl	8d74 <gpio_write>
    805c:	e1a00004 	mov	r0, r4
    8060:	eb000299 	bl	8acc <delay_us>
    8064:	e59f303c 	ldr	r3, [pc, #60]	; 80a8 <test1_simple_rise+0x98>
    8068:	e5933000 	ldr	r3, [r3]
    806c:	e3530001 	cmp	r3, #1
    8070:	0a000005 	beq	808c <test1_simple_rise+0x7c>
    8074:	e59f0040 	ldr	r0, [pc, #64]	; 80bc <test1_simple_rise+0xac>
    8078:	e59f1030 	ldr	r1, [pc, #48]	; 80b0 <test1_simple_rise+0xa0>
    807c:	e59f2030 	ldr	r2, [pc, #48]	; 80b4 <test1_simple_rise+0xa4>
    8080:	e3a0302e 	mov	r3, #46	; 0x2e
    8084:	eb0000ee 	bl	8444 <printk>
    8088:	eb00024c 	bl	89c0 <clean_reboot>
    808c:	e3a02000 	mov	r2, #0
    8090:	e59f3010 	ldr	r3, [pc, #16]	; 80a8 <test1_simple_rise+0x98>
    8094:	e5832000 	str	r2, [r3]
    8098:	e59f0020 	ldr	r0, [pc, #32]	; 80c0 <test1_simple_rise+0xb0>
    809c:	eb0000e8 	bl	8444 <printk>
    80a0:	e8bd8010 	pop	{r4, pc}
    80a4:	0000961c 	andeq	r9, r0, ip, lsl r6
    80a8:	00009ae4 	andeq	r9, r0, r4, ror #21
    80ac:	00009650 	andeq	r9, r0, r0, asr r6
    80b0:	00009670 	andeq	r9, r0, r0, ror r6
    80b4:	000095e4 	andeq	r9, r0, r4, ror #11
    80b8:	00009680 	andeq	r9, r0, r0, lsl #13
    80bc:	0000969c 	muleq	r0, ip, r6
    80c0:	000096c0 	andeq	r9, r0, r0, asr #13

000080c4 <test2_simple_fall>:
    80c4:	e92d4010 	push	{r4, lr}
    80c8:	e1a04000 	mov	r4, r0
    80cc:	e59f0084 	ldr	r0, [pc, #132]	; 8158 <test2_simple_fall+0x94>
    80d0:	eb0000db 	bl	8444 <printk>
    80d4:	e59f3080 	ldr	r3, [pc, #128]	; 815c <test2_simple_fall+0x98>
    80d8:	e5933004 	ldr	r3, [r3, #4]
    80dc:	e3530000 	cmp	r3, #0
    80e0:	0a000005 	beq	80fc <test2_simple_fall+0x38>
    80e4:	e59f0074 	ldr	r0, [pc, #116]	; 8160 <test2_simple_fall+0x9c>
    80e8:	e59f1074 	ldr	r1, [pc, #116]	; 8164 <test2_simple_fall+0xa0>
    80ec:	e59f2074 	ldr	r2, [pc, #116]	; 8168 <test2_simple_fall+0xa4>
    80f0:	e3a03037 	mov	r3, #55	; 0x37
    80f4:	eb0000d2 	bl	8444 <printk>
    80f8:	eb000230 	bl	89c0 <clean_reboot>
    80fc:	e59f0068 	ldr	r0, [pc, #104]	; 816c <test2_simple_fall+0xa8>
    8100:	eb0000cf 	bl	8444 <printk>
    8104:	e3a00015 	mov	r0, #21
    8108:	e3a01000 	mov	r1, #0
    810c:	eb000318 	bl	8d74 <gpio_write>
    8110:	e1a00004 	mov	r0, r4
    8114:	eb00026c 	bl	8acc <delay_us>
    8118:	e59f303c 	ldr	r3, [pc, #60]	; 815c <test2_simple_fall+0x98>
    811c:	e5933004 	ldr	r3, [r3, #4]
    8120:	e3530001 	cmp	r3, #1
    8124:	0a000005 	beq	8140 <test2_simple_fall+0x7c>
    8128:	e59f0040 	ldr	r0, [pc, #64]	; 8170 <test2_simple_fall+0xac>
    812c:	e59f1030 	ldr	r1, [pc, #48]	; 8164 <test2_simple_fall+0xa0>
    8130:	e59f2030 	ldr	r2, [pc, #48]	; 8168 <test2_simple_fall+0xa4>
    8134:	e3a0303d 	mov	r3, #61	; 0x3d
    8138:	eb0000c1 	bl	8444 <printk>
    813c:	eb00021f 	bl	89c0 <clean_reboot>
    8140:	e3a02000 	mov	r2, #0
    8144:	e59f3010 	ldr	r3, [pc, #16]	; 815c <test2_simple_fall+0x98>
    8148:	e5832004 	str	r2, [r3, #4]
    814c:	e59f0020 	ldr	r0, [pc, #32]	; 8174 <test2_simple_fall+0xb0>
    8150:	eb0000bb 	bl	8444 <printk>
    8154:	e8bd8010 	pop	{r4, pc}
    8158:	0000961c 	andeq	r9, r0, ip, lsl r6
    815c:	00009ae4 	andeq	r9, r0, r4, ror #21
    8160:	000096d0 	ldrdeq	r9, [r0], -r0
    8164:	00009670 	andeq	r9, r0, r0, ror r6
    8168:	000095f8 	strdeq	r9, [r0], -r8
    816c:	000096f0 	strdeq	r9, [r0], -r0
    8170:	0000970c 	andeq	r9, r0, ip, lsl #14
    8174:	00009730 	andeq	r9, r0, r0, lsr r7

00008178 <test3_full_test>:
    8178:	e92d4ff8 	push	{r3, r4, r5, r6, r7, r8, r9, sl, fp, lr}
    817c:	e1a07000 	mov	r7, r0
    8180:	e59f0198 	ldr	r0, [pc, #408]	; 8320 <test3_full_test+0x1a8>
    8184:	eb0000ae 	bl	8444 <printk>
    8188:	e59f3194 	ldr	r3, [pc, #404]	; 8324 <test3_full_test+0x1ac>
    818c:	e5933004 	ldr	r3, [r3, #4]
    8190:	e3530000 	cmp	r3, #0
    8194:	0a000005 	beq	81b0 <test3_full_test+0x38>
    8198:	e59f0188 	ldr	r0, [pc, #392]	; 8328 <test3_full_test+0x1b0>
    819c:	e59f1188 	ldr	r1, [pc, #392]	; 832c <test3_full_test+0x1b4>
    81a0:	e59f2188 	ldr	r2, [pc, #392]	; 8330 <test3_full_test+0x1b8>
    81a4:	e3a0304b 	mov	r3, #75	; 0x4b
    81a8:	eb0000a5 	bl	8444 <printk>
    81ac:	eb000203 	bl	89c0 <clean_reboot>
    81b0:	e59f316c 	ldr	r3, [pc, #364]	; 8324 <test3_full_test+0x1ac>
    81b4:	e5933000 	ldr	r3, [r3]
    81b8:	e3530000 	cmp	r3, #0
    81bc:	0a000036 	beq	829c <test3_full_test+0x124>
    81c0:	e59f016c 	ldr	r0, [pc, #364]	; 8334 <test3_full_test+0x1bc>
    81c4:	e59f1160 	ldr	r1, [pc, #352]	; 832c <test3_full_test+0x1b4>
    81c8:	e59f2160 	ldr	r2, [pc, #352]	; 8330 <test3_full_test+0x1b8>
    81cc:	e3a0304c 	mov	r3, #76	; 0x4c
    81d0:	eb00009b 	bl	8444 <printk>
    81d4:	eb0001f9 	bl	89c0 <clean_reboot>
    81d8:	e5946000 	ldr	r6, [r4]
    81dc:	e1a00009 	mov	r0, r9
    81e0:	e1a01006 	mov	r1, r6
    81e4:	eb000096 	bl	8444 <printk>
    81e8:	e3a00015 	mov	r0, #21
    81ec:	e3a01001 	mov	r1, #1
    81f0:	eb0002df 	bl	8d74 <gpio_write>
    81f4:	e1a00007 	mov	r0, r7
    81f8:	eb000233 	bl	8acc <delay_us>
    81fc:	e5941000 	ldr	r1, [r4]
    8200:	e1a00008 	mov	r0, r8
    8204:	eb00008e 	bl	8444 <printk>
    8208:	e2866001 	add	r6, r6, #1
    820c:	e5943000 	ldr	r3, [r4]
    8210:	e1560003 	cmp	r6, r3
    8214:	0a000005 	beq	8230 <test3_full_test+0xb8>
    8218:	e59f0118 	ldr	r0, [pc, #280]	; 8338 <test3_full_test+0x1c0>
    821c:	e59f1108 	ldr	r1, [pc, #264]	; 832c <test3_full_test+0x1b4>
    8220:	e59f2108 	ldr	r2, [pc, #264]	; 8330 <test3_full_test+0x1b8>
    8224:	e3a03056 	mov	r3, #86	; 0x56
    8228:	eb000085 	bl	8444 <printk>
    822c:	eb0001e3 	bl	89c0 <clean_reboot>
    8230:	e1a0000b 	mov	r0, fp
    8234:	e1a01005 	mov	r1, r5
    8238:	eb000081 	bl	8444 <printk>
    823c:	e5946004 	ldr	r6, [r4, #4]
    8240:	e1a0000a 	mov	r0, sl
    8244:	e1a01006 	mov	r1, r6
    8248:	eb00007d 	bl	8444 <printk>
    824c:	e3a00015 	mov	r0, #21
    8250:	e3a01000 	mov	r1, #0
    8254:	eb0002c6 	bl	8d74 <gpio_write>
    8258:	e1a00007 	mov	r0, r7
    825c:	eb00021a 	bl	8acc <delay_us>
    8260:	e5941004 	ldr	r1, [r4, #4]
    8264:	e59f00d0 	ldr	r0, [pc, #208]	; 833c <test3_full_test+0x1c4>
    8268:	eb000075 	bl	8444 <printk>
    826c:	e2866001 	add	r6, r6, #1
    8270:	e5943004 	ldr	r3, [r4, #4]
    8274:	e1560003 	cmp	r6, r3
    8278:	0a000005 	beq	8294 <test3_full_test+0x11c>
    827c:	e59f00bc 	ldr	r0, [pc, #188]	; 8340 <test3_full_test+0x1c8>
    8280:	e59f10a4 	ldr	r1, [pc, #164]	; 832c <test3_full_test+0x1b4>
    8284:	e59f20a4 	ldr	r2, [pc, #164]	; 8330 <test3_full_test+0x1b8>
    8288:	e3a0305f 	mov	r3, #95	; 0x5f
    828c:	eb00006c 	bl	8444 <printk>
    8290:	eb0001ca 	bl	89c0 <clean_reboot>
    8294:	e2855001 	add	r5, r5, #1
    8298:	ea000005 	b	82b4 <test3_full_test+0x13c>
    829c:	e3a05000 	mov	r5, #0
    82a0:	e59f407c 	ldr	r4, [pc, #124]	; 8324 <test3_full_test+0x1ac>
    82a4:	e59f9098 	ldr	r9, [pc, #152]	; 8344 <test3_full_test+0x1cc>
    82a8:	e59f8098 	ldr	r8, [pc, #152]	; 8348 <test3_full_test+0x1d0>
    82ac:	e59fb098 	ldr	fp, [pc, #152]	; 834c <test3_full_test+0x1d4>
    82b0:	e59fa098 	ldr	sl, [pc, #152]	; 8350 <test3_full_test+0x1d8>
    82b4:	e3550009 	cmp	r5, #9
    82b8:	9affffc6 	bls	81d8 <test3_full_test+0x60>
    82bc:	e59f4060 	ldr	r4, [pc, #96]	; 8324 <test3_full_test+0x1ac>
    82c0:	e5942000 	ldr	r2, [r4]
    82c4:	e5943004 	ldr	r3, [r4, #4]
    82c8:	e59f0084 	ldr	r0, [pc, #132]	; 8354 <test3_full_test+0x1dc>
    82cc:	e3a0100a 	mov	r1, #10
    82d0:	eb00005b 	bl	8444 <printk>
    82d4:	e5943000 	ldr	r3, [r4]
    82d8:	e353000a 	cmp	r3, #10
    82dc:	0a000005 	beq	82f8 <test3_full_test+0x180>
    82e0:	e59f0070 	ldr	r0, [pc, #112]	; 8358 <test3_full_test+0x1e0>
    82e4:	e59f1040 	ldr	r1, [pc, #64]	; 832c <test3_full_test+0x1b4>
    82e8:	e59f2040 	ldr	r2, [pc, #64]	; 8330 <test3_full_test+0x1b8>
    82ec:	e3a03063 	mov	r3, #99	; 0x63
    82f0:	eb000053 	bl	8444 <printk>
    82f4:	eb0001b1 	bl	89c0 <clean_reboot>
    82f8:	e59f3024 	ldr	r3, [pc, #36]	; 8324 <test3_full_test+0x1ac>
    82fc:	e5933004 	ldr	r3, [r3, #4]
    8300:	e353000a 	cmp	r3, #10
    8304:	08bd8ff8 	popeq	{r3, r4, r5, r6, r7, r8, r9, sl, fp, pc}
    8308:	e59f004c 	ldr	r0, [pc, #76]	; 835c <test3_full_test+0x1e4>
    830c:	e59f1018 	ldr	r1, [pc, #24]	; 832c <test3_full_test+0x1b4>
    8310:	e59f2018 	ldr	r2, [pc, #24]	; 8330 <test3_full_test+0x1b8>
    8314:	e3a03064 	mov	r3, #100	; 0x64
    8318:	eb000049 	bl	8444 <printk>
    831c:	eb0001a7 	bl	89c0 <clean_reboot>
    8320:	0000961c 	andeq	r9, r0, ip, lsl r6
    8324:	00009ae4 	andeq	r9, r0, r4, ror #21
    8328:	000096d0 	ldrdeq	r9, [r0], -r0
    832c:	00009670 	andeq	r9, r0, r0, ror r6
    8330:	0000960c 	andeq	r9, r0, ip, lsl #12
    8334:	00009650 	andeq	r9, r0, r0, asr r6
    8338:	00009778 	andeq	r9, r0, r8, ror r7
    833c:	000097d4 	ldrdeq	r9, [r0], -r4
    8340:	000097ec 	andeq	r9, r0, ip, ror #15
    8344:	00009740 	andeq	r9, r0, r0, asr #14
    8348:	00009764 	andeq	r9, r0, r4, ror #14
    834c:	000097a0 	andeq	r9, r0, r0, lsr #15
    8350:	000097ac 	andeq	r9, r0, ip, lsr #15
    8354:	00009814 	andeq	r9, r0, r4, lsl r8
    8358:	00009838 	andeq	r9, r0, r8, lsr r8
    835c:	0000985c 	andeq	r9, r0, ip, asr r8

00008360 <interrupt_vector>:
    8360:	e92d4008 	push	{r3, lr}
    8364:	e59f3074 	ldr	r3, [pc, #116]	; 83e0 <interrupt_vector+0x80>
    8368:	e5932008 	ldr	r2, [r3, #8]
    836c:	e2822001 	add	r2, r2, #1
    8370:	e5832008 	str	r2, [r3, #8]
    8374:	e3a00031 	mov	r0, #49	; 0x31
    8378:	eb0002d1 	bl	8ec4 <is_gpio_int>
    837c:	e3500000 	cmp	r0, #0
    8380:	1a000003 	bne	8394 <interrupt_vector+0x34>
    8384:	e3a00032 	mov	r0, #50	; 0x32
    8388:	eb0002cd 	bl	8ec4 <is_gpio_int>
    838c:	e3500000 	cmp	r0, #0
    8390:	0a00000f 	beq	83d4 <interrupt_vector+0x74>
    8394:	e3a00014 	mov	r0, #20
    8398:	eb000262 	bl	8d28 <gpio_read>
    839c:	e3500000 	cmp	r0, #0
    83a0:	1a000004 	bne	83b8 <interrupt_vector+0x58>
    83a4:	e59f3034 	ldr	r3, [pc, #52]	; 83e0 <interrupt_vector+0x80>
    83a8:	e5932004 	ldr	r2, [r3, #4]
    83ac:	e2822001 	add	r2, r2, #1
    83b0:	e5832004 	str	r2, [r3, #4]
    83b4:	ea000006 	b	83d4 <interrupt_vector+0x74>
    83b8:	e3a00014 	mov	r0, #20
    83bc:	eb000259 	bl	8d28 <gpio_read>
    83c0:	e3500000 	cmp	r0, #0
    83c4:	c59f3014 	ldrgt	r3, [pc, #20]	; 83e0 <interrupt_vector+0x80>
    83c8:	c5932000 	ldrgt	r2, [r3]
    83cc:	c2822001 	addgt	r2, r2, #1
    83d0:	c5832000 	strgt	r2, [r3]
    83d4:	e3a00014 	mov	r0, #20
    83d8:	eb000327 	bl	907c <gpio_event_clear>
    83dc:	e8bd8008 	pop	{r3, pc}
    83e0:	00009ae4 	andeq	r9, r0, r4, ror #21

000083e4 <notmain>:
    83e4:	e92d4010 	push	{r4, lr}
    83e8:	eb000403 	bl	93fc <uart_init>
    83ec:	eb000338 	bl	90d4 <int_init>
    83f0:	e3a00015 	mov	r0, #21
    83f4:	eb0001c7 	bl	8b18 <gpio_set_output>
    83f8:	e3a00014 	mov	r0, #20
    83fc:	eb000216 	bl	8c5c <gpio_set_input>
    8400:	e3a00014 	mov	r0, #20
    8404:	eb0002b9 	bl	8ef0 <gpio_int_rising_edge>
    8408:	e3a00014 	mov	r0, #20
    840c:	eb0002d8 	bl	8f74 <gpio_int_falling_edge>
    8410:	eb0003bc 	bl	9308 <system_enable_interrupts>
    8414:	e59f4020 	ldr	r4, [pc, #32]	; 843c <notmain+0x58>
    8418:	e1a00004 	mov	r0, r4
    841c:	ebfffefb 	bl	8010 <test1_simple_rise>
    8420:	e1a00004 	mov	r0, r4
    8424:	ebffff26 	bl	80c4 <test2_simple_fall>
    8428:	e1a00004 	mov	r0, r4
    842c:	ebffff51 	bl	8178 <test3_full_test>
    8430:	e59f0008 	ldr	r0, [pc, #8]	; 8440 <notmain+0x5c>
    8434:	eb000002 	bl	8444 <printk>
    8438:	eb000160 	bl	89c0 <clean_reboot>
    843c:	0007a120 	andeq	sl, r7, r0, lsr #2
    8440:	00009880 	andeq	r9, r0, r0, lsl #17

00008444 <printk>:
    8444:	e92d000f 	push	{r0, r1, r2, r3}
    8448:	e92d4030 	push	{r4, r5, lr}
    844c:	e24dd00c 	sub	sp, sp, #12
    8450:	e28d301c 	add	r3, sp, #28
    8454:	e58d3004 	str	r3, [sp, #4]
    8458:	e59f4034 	ldr	r4, [pc, #52]	; 8494 <printk+0x50>
    845c:	e1a00004 	mov	r0, r4
    8460:	e3a01b01 	mov	r1, #1024	; 0x400
    8464:	e59d2018 	ldr	r2, [sp, #24]
    8468:	eb0000b2 	bl	8738 <va_printk>
    846c:	e1a05000 	mov	r5, r0
    8470:	e59f3020 	ldr	r3, [pc, #32]	; 8498 <printk+0x54>
    8474:	e5933000 	ldr	r3, [r3]
    8478:	e1a00004 	mov	r0, r4
    847c:	e12fff33 	blx	r3
    8480:	e1a00005 	mov	r0, r5
    8484:	e28dd00c 	add	sp, sp, #12
    8488:	e8bd4030 	pop	{r4, r5, lr}
    848c:	e28dd010 	add	sp, sp, #16
    8490:	e12fff1e 	bx	lr
    8494:	00009af4 	strdeq	r9, [r0], -r4
    8498:	00009548 	andeq	r9, r0, r8, asr #10

0000849c <internal_putk>:
    849c:	e92d4038 	push	{r3, r4, r5, lr}
    84a0:	e1a04000 	mov	r4, r0
    84a4:	e59f5020 	ldr	r5, [pc, #32]	; 84cc <internal_putk+0x30>
    84a8:	ea000002 	b	84b8 <internal_putk+0x1c>
    84ac:	e5953000 	ldr	r3, [r5]
    84b0:	e12fff33 	blx	r3
    84b4:	e2844001 	add	r4, r4, #1
    84b8:	e5d40000 	ldrb	r0, [r4]
    84bc:	e3500000 	cmp	r0, #0
    84c0:	1afffff9 	bne	84ac <internal_putk+0x10>
    84c4:	e3a00001 	mov	r0, #1
    84c8:	e8bd8038 	pop	{r3, r4, r5, pc}
    84cc:	000095e0 	andeq	r9, r0, r0, ror #11

000084d0 <isdigit>:
    84d0:	e2400030 	sub	r0, r0, #48	; 0x30
    84d4:	e3500009 	cmp	r0, #9
    84d8:	83a00000 	movhi	r0, #0
    84dc:	93a00001 	movls	r0, #1
    84e0:	e12fff1e 	bx	lr

000084e4 <pad>:
    84e4:	e0611000 	rsb	r1, r1, r0
    84e8:	e3a03020 	mov	r3, #32
    84ec:	ea000002 	b	84fc <pad+0x18>
    84f0:	e5c03000 	strb	r3, [r0]
    84f4:	e2811001 	add	r1, r1, #1
    84f8:	e2800001 	add	r0, r0, #1
    84fc:	e1510002 	cmp	r1, r2
    8500:	bafffffa 	blt	84f0 <pad+0xc>
    8504:	e3a03000 	mov	r3, #0
    8508:	e5c03000 	strb	r3, [r0]
    850c:	e12fff1e 	bx	lr

00008510 <reverse>:
    8510:	e063c002 	rsb	ip, r3, r2
    8514:	e28cc001 	add	ip, ip, #1
    8518:	e15c0001 	cmp	ip, r1
    851c:	c061100c 	rsbgt	r1, r1, ip
    8520:	c0833001 	addgt	r3, r3, r1
    8524:	e2422001 	sub	r2, r2, #1
    8528:	e1a01000 	mov	r1, r0
    852c:	ea000002 	b	853c <reverse+0x2c>
    8530:	e452c001 	ldrb	ip, [r2], #-1
    8534:	e5c1c000 	strb	ip, [r1]
    8538:	e2811001 	add	r1, r1, #1
    853c:	e1520003 	cmp	r2, r3
    8540:	2afffffa 	bcs	8530 <reverse+0x20>
    8544:	e3a03000 	mov	r3, #0
    8548:	e5c13000 	strb	r3, [r1]
    854c:	e12fff1e 	bx	lr

00008550 <emit>:
    8550:	e92d41f0 	push	{r4, r5, r6, r7, r8, lr}
    8554:	e24dd040 	sub	sp, sp, #64	; 0x40
    8558:	e1a05001 	mov	r5, r1
    855c:	e1a04002 	mov	r4, r2
    8560:	e59d2058 	ldr	r2, [sp, #88]	; 0x58
    8564:	e1520004 	cmp	r2, r4
    8568:	c2442001 	subgt	r2, r4, #1
    856c:	e1a0c003 	mov	ip, r3
    8570:	e2400002 	sub	r0, r0, #2
    8574:	e350000e 	cmp	r0, #14
    8578:	979ff100 	ldrls	pc, [pc, r0, lsl #2]
    857c:	ea000042 	b	868c <emit+0x13c>
    8580:	00008664 	andeq	r8, r0, r4, ror #12
    8584:	0000868c 	andeq	r8, r0, ip, lsl #13
    8588:	0000868c 	andeq	r8, r0, ip, lsl #13
    858c:	0000868c 	andeq	r8, r0, ip, lsl #13
    8590:	0000868c 	andeq	r8, r0, ip, lsl #13
    8594:	0000868c 	andeq	r8, r0, ip, lsl #13
    8598:	00008658 	andeq	r8, r0, r8, asr r6
    859c:	0000868c 	andeq	r8, r0, ip, lsl #13
    85a0:	000085bc 			; <UNDEFINED> instruction: 0x000085bc
    85a4:	0000868c 	andeq	r8, r0, ip, lsl #13
    85a8:	0000868c 	andeq	r8, r0, ip, lsl #13
    85ac:	0000868c 	andeq	r8, r0, ip, lsl #13
    85b0:	0000868c 	andeq	r8, r0, ip, lsl #13
    85b4:	0000868c 	andeq	r8, r0, ip, lsl #13
    85b8:	00008630 	andeq	r8, r0, r0, lsr r6
    85bc:	e59d105c 	ldr	r1, [sp, #92]	; 0x5c
    85c0:	e2911000 	adds	r1, r1, #0
    85c4:	13a01001 	movne	r1, #1
    85c8:	e0111fa3 	ands	r1, r1, r3, lsr #31
    85cc:	1263c000 	rsbne	ip, r3, #0
    85d0:	13a08001 	movne	r8, #1
    85d4:	03a08000 	moveq	r8, #0
    85d8:	e1a0100d 	mov	r1, sp
    85dc:	e59f70e8 	ldr	r7, [pc, #232]	; 86cc <emit+0x17c>
    85e0:	e59f60e8 	ldr	r6, [pc, #232]	; 86d0 <emit+0x180>
    85e4:	ea000000 	b	85ec <emit+0x9c>
    85e8:	e1a01003 	mov	r1, r3
    85ec:	e2813001 	add	r3, r1, #1
    85f0:	e08e0c97 	umull	r0, lr, r7, ip
    85f4:	e1a0e1ae 	lsr	lr, lr, #3
    85f8:	e1a0000e 	mov	r0, lr
    85fc:	e08ee10e 	add	lr, lr, lr, lsl #2
    8600:	e1a0e08e 	lsl	lr, lr, #1
    8604:	e06ee00c 	rsb	lr, lr, ip
    8608:	e7d6c00e 	ldrb	ip, [r6, lr]
    860c:	e5c1c000 	strb	ip, [r1]
    8610:	e1a0c000 	mov	ip, r0
    8614:	e3500000 	cmp	r0, #0
    8618:	1afffff2 	bne	85e8 <emit+0x98>
    861c:	e3580000 	cmp	r8, #0
    8620:	12813002 	addne	r3, r1, #2
    8624:	13a0002d 	movne	r0, #45	; 0x2d
    8628:	15c10001 	strbne	r0, [r1, #1]
    862c:	ea00001c 	b	86a4 <emit+0x154>
    8630:	e1a0e00d 	mov	lr, sp
    8634:	e59f0098 	ldr	r0, [pc, #152]	; 86d4 <emit+0x184>
    8638:	e28e3001 	add	r3, lr, #1
    863c:	e20c100f 	and	r1, ip, #15
    8640:	e7d01001 	ldrb	r1, [r0, r1]
    8644:	e5ce1000 	strb	r1, [lr]
    8648:	e1a0e003 	mov	lr, r3
    864c:	e1b0c22c 	lsrs	ip, ip, #4
    8650:	1afffff8 	bne	8638 <emit+0xe8>
    8654:	ea000012 	b	86a4 <emit+0x154>
    8658:	e5cd3000 	strb	r3, [sp]
    865c:	e28d3001 	add	r3, sp, #1
    8660:	ea00000f 	b	86a4 <emit+0x154>
    8664:	e1a0e00d 	mov	lr, sp
    8668:	e59f0068 	ldr	r0, [pc, #104]	; 86d8 <emit+0x188>
    866c:	e28e3001 	add	r3, lr, #1
    8670:	e20c1001 	and	r1, ip, #1
    8674:	e7d01001 	ldrb	r1, [r0, r1]
    8678:	e5ce1000 	strb	r1, [lr]
    867c:	e1a0e003 	mov	lr, r3
    8680:	e1b0c0ac 	lsrs	ip, ip, #1
    8684:	1afffff8 	bne	866c <emit+0x11c>
    8688:	ea000005 	b	86a4 <emit+0x154>
    868c:	e59f0048 	ldr	r0, [pc, #72]	; 86dc <emit+0x18c>
    8690:	e59f1048 	ldr	r1, [pc, #72]	; 86e0 <emit+0x190>
    8694:	e59f2048 	ldr	r2, [pc, #72]	; 86e4 <emit+0x194>
    8698:	e3a03075 	mov	r3, #117	; 0x75
    869c:	ebffff68 	bl	8444 <printk>
    86a0:	eb0000c6 	bl	89c0 <clean_reboot>
    86a4:	e1a00003 	mov	r0, r3
    86a8:	e1a0100d 	mov	r1, sp
    86ac:	ebffff8c 	bl	84e4 <pad>
    86b0:	e1a02000 	mov	r2, r0
    86b4:	e1a00005 	mov	r0, r5
    86b8:	e1a01004 	mov	r1, r4
    86bc:	e1a0300d 	mov	r3, sp
    86c0:	ebffff92 	bl	8510 <reverse>
    86c4:	e28dd040 	add	sp, sp, #64	; 0x40
    86c8:	e8bd81f0 	pop	{r4, r5, r6, r7, r8, pc}
    86cc:	cccccccd 	stclgt	12, cr12, [ip], {205}	; 0xcd
    86d0:	000098d8 	ldrdeq	r9, [r0], -r8
    86d4:	000098e4 	andeq	r9, r0, r4, ror #17
    86d8:	000098f8 	strdeq	r9, [r0], -r8
    86dc:	000098b0 			; <UNDEFINED> instruction: 0x000098b0
    86e0:	000098c4 	andeq	r9, r0, r4, asr #17
    86e4:	0000988c 	andeq	r9, r0, ip, lsl #17

000086e8 <rpi_set_output>:
    86e8:	e92d4008 	push	{r3, lr}
    86ec:	e3500000 	cmp	r0, #0
    86f0:	1a000005 	bne	870c <rpi_set_output+0x24>
    86f4:	e59f0028 	ldr	r0, [pc, #40]	; 8724 <rpi_set_output+0x3c>
    86f8:	e59f1028 	ldr	r1, [pc, #40]	; 8728 <rpi_set_output+0x40>
    86fc:	e59f2028 	ldr	r2, [pc, #40]	; 872c <rpi_set_output+0x44>
    8700:	e3a03020 	mov	r3, #32
    8704:	ebffff4e 	bl	8444 <printk>
    8708:	eb0000ac 	bl	89c0 <clean_reboot>
    870c:	e59f301c 	ldr	r3, [pc, #28]	; 8730 <rpi_set_output+0x48>
    8710:	e5830000 	str	r0, [r3]
    8714:	e3510000 	cmp	r1, #0
    8718:	159f3014 	ldrne	r3, [pc, #20]	; 8734 <rpi_set_output+0x4c>
    871c:	15831000 	strne	r1, [r3]
    8720:	e8bd8008 	pop	{r3, pc}
    8724:	000098fc 	strdeq	r9, [r0], -ip
    8728:	000098c4 	andeq	r9, r0, r4, asr #17
    872c:	00009894 	muleq	r0, r4, r8
    8730:	000095e0 	andeq	r9, r0, r0, ror #11
    8734:	00009548 	andeq	r9, r0, r8, asr #10

00008738 <va_printk>:
    8738:	e92d4ff0 	push	{r4, r5, r6, r7, r8, r9, sl, fp, lr}
    873c:	e24dd08c 	sub	sp, sp, #140	; 0x8c
    8740:	e1a0b000 	mov	fp, r0
    8744:	e1a0a003 	mov	sl, r3
    8748:	e2411001 	sub	r1, r1, #1
    874c:	e0808001 	add	r8, r0, r1
    8750:	e3a03000 	mov	r3, #0
    8754:	e5c03000 	strb	r3, [r0]
    8758:	e1a04000 	mov	r4, r0
    875c:	ea000087 	b	8980 <va_printk+0x248>
    8760:	e3530025 	cmp	r3, #37	; 0x25
    8764:	12822001 	addne	r2, r2, #1
    8768:	15c43000 	strbne	r3, [r4]
    876c:	12844001 	addne	r4, r4, #1
    8770:	1a000082 	bne	8980 <va_printk+0x248>
    8774:	e5d21001 	ldrb	r1, [r2, #1]
    8778:	e3510025 	cmp	r1, #37	; 0x25
    877c:	05c43000 	strbeq	r3, [r4]
    8780:	02822002 	addeq	r2, r2, #2
    8784:	02844001 	addeq	r4, r4, #1
    8788:	0a00007c 	beq	8980 <va_printk+0x248>
    878c:	e2826001 	add	r6, r2, #1
    8790:	e3a07000 	mov	r7, #0
    8794:	ea000004 	b	87ac <va_printk+0x74>
    8798:	e0877107 	add	r7, r7, r7, lsl #2
    879c:	e1a07087 	lsl	r7, r7, #1
    87a0:	e0877005 	add	r7, r7, r5
    87a4:	e2477030 	sub	r7, r7, #48	; 0x30
    87a8:	e2866001 	add	r6, r6, #1
    87ac:	e5d65000 	ldrb	r5, [r6]
    87b0:	e1a09005 	mov	r9, r5
    87b4:	e1a00005 	mov	r0, r5
    87b8:	ebffff44 	bl	84d0 <isdigit>
    87bc:	e3500000 	cmp	r0, #0
    87c0:	1afffff4 	bne	8798 <va_printk+0x60>
    87c4:	e357001f 	cmp	r7, #31
    87c8:	9a000005 	bls	87e4 <va_printk+0xac>
    87cc:	e59f01d8 	ldr	r0, [pc, #472]	; 89ac <va_printk+0x274>
    87d0:	e59f11d8 	ldr	r1, [pc, #472]	; 89b0 <va_printk+0x278>
    87d4:	e59f21d8 	ldr	r2, [pc, #472]	; 89b4 <va_printk+0x27c>
    87d8:	e3a03092 	mov	r3, #146	; 0x92
    87dc:	ebffff18 	bl	8444 <printk>
    87e0:	eb000076 	bl	89c0 <clean_reboot>
    87e4:	e2455062 	sub	r5, r5, #98	; 0x62
    87e8:	e3550016 	cmp	r5, #22
    87ec:	979ff105 	ldrls	pc, [pc, r5, lsl #2]
    87f0:	ea000051 	b	893c <va_printk+0x204>
    87f4:	000088e0 	andeq	r8, r0, r0, ror #17
    87f8:	00008914 	andeq	r8, r0, r4, lsl r9
    87fc:	00008868 	andeq	r8, r0, r8, ror #16
    8800:	0000893c 	andeq	r8, r0, ip, lsr r9
    8804:	00008850 	andeq	r8, r0, r0, asr r8
    8808:	0000893c 	andeq	r8, r0, ip, lsr r9
    880c:	0000893c 	andeq	r8, r0, ip, lsr r9
    8810:	0000893c 	andeq	r8, r0, ip, lsr r9
    8814:	0000893c 	andeq	r8, r0, ip, lsr r9
    8818:	0000893c 	andeq	r8, r0, ip, lsr r9
    881c:	0000893c 	andeq	r8, r0, ip, lsr r9
    8820:	0000893c 	andeq	r8, r0, ip, lsr r9
    8824:	0000893c 	andeq	r8, r0, ip, lsr r9
    8828:	0000893c 	andeq	r8, r0, ip, lsr r9
    882c:	000088b8 			; <UNDEFINED> instruction: 0x000088b8
    8830:	0000893c 	andeq	r8, r0, ip, lsr r9
    8834:	0000893c 	andeq	r8, r0, ip, lsr r9
    8838:	00008908 	andeq	r8, r0, r8, lsl #18
    883c:	0000893c 	andeq	r8, r0, ip, lsr r9
    8840:	00008890 	muleq	r0, r0, r8
    8844:	0000893c 	andeq	r8, r0, ip, lsr r9
    8848:	0000893c 	andeq	r8, r0, ip, lsr r9
    884c:	000088b8 			; <UNDEFINED> instruction: 0x000088b8
    8850:	e59f0160 	ldr	r0, [pc, #352]	; 89b8 <va_printk+0x280>
    8854:	e59f1154 	ldr	r1, [pc, #340]	; 89b0 <va_printk+0x278>
    8858:	e59f2154 	ldr	r2, [pc, #340]	; 89b4 <va_printk+0x27c>
    885c:	e3a03098 	mov	r3, #152	; 0x98
    8860:	ebfffef7 	bl	8444 <printk>
    8864:	eb000055 	bl	89c0 <clean_reboot>
    8868:	e59a3000 	ldr	r3, [sl]
    886c:	e28aa004 	add	sl, sl, #4
    8870:	e58d7000 	str	r7, [sp]
    8874:	e3a02001 	mov	r2, #1
    8878:	e58d2004 	str	r2, [sp, #4]
    887c:	e3a0000a 	mov	r0, #10
    8880:	e28d1008 	add	r1, sp, #8
    8884:	e3a02080 	mov	r2, #128	; 0x80
    8888:	ebffff30 	bl	8550 <emit>
    888c:	ea000031 	b	8958 <va_printk+0x220>
    8890:	e59a3000 	ldr	r3, [sl]
    8894:	e28aa004 	add	sl, sl, #4
    8898:	e58d7000 	str	r7, [sp]
    889c:	e3a02000 	mov	r2, #0
    88a0:	e58d2004 	str	r2, [sp, #4]
    88a4:	e3a0000a 	mov	r0, #10
    88a8:	e28d1008 	add	r1, sp, #8
    88ac:	e3a02080 	mov	r2, #128	; 0x80
    88b0:	ebffff26 	bl	8550 <emit>
    88b4:	ea000027 	b	8958 <va_printk+0x220>
    88b8:	e59a3000 	ldr	r3, [sl]
    88bc:	e28aa004 	add	sl, sl, #4
    88c0:	e58d7000 	str	r7, [sp]
    88c4:	e3a02000 	mov	r2, #0
    88c8:	e58d2004 	str	r2, [sp, #4]
    88cc:	e3a00010 	mov	r0, #16
    88d0:	e28d1008 	add	r1, sp, #8
    88d4:	e3a02080 	mov	r2, #128	; 0x80
    88d8:	ebffff1c 	bl	8550 <emit>
    88dc:	ea00001d 	b	8958 <va_printk+0x220>
    88e0:	e59a3000 	ldr	r3, [sl]
    88e4:	e28aa004 	add	sl, sl, #4
    88e8:	e58d7000 	str	r7, [sp]
    88ec:	e3a02000 	mov	r2, #0
    88f0:	e58d2004 	str	r2, [sp, #4]
    88f4:	e3a00002 	mov	r0, #2
    88f8:	e28d1008 	add	r1, sp, #8
    88fc:	e3a02080 	mov	r2, #128	; 0x80
    8900:	ebffff12 	bl	8550 <emit>
    8904:	ea000013 	b	8958 <va_printk+0x220>
    8908:	e59a0000 	ldr	r0, [sl]
    890c:	e28aa004 	add	sl, sl, #4
    8910:	ea000010 	b	8958 <va_printk+0x220>
    8914:	e59a3000 	ldr	r3, [sl]
    8918:	e28aa004 	add	sl, sl, #4
    891c:	e58d7000 	str	r7, [sp]
    8920:	e3a02000 	mov	r2, #0
    8924:	e58d2004 	str	r2, [sp, #4]
    8928:	e3a00008 	mov	r0, #8
    892c:	e08d1000 	add	r1, sp, r0
    8930:	e3a02080 	mov	r2, #128	; 0x80
    8934:	ebffff05 	bl	8550 <emit>
    8938:	ea000006 	b	8958 <va_printk+0x220>
    893c:	e58d9000 	str	r9, [sp]
    8940:	e59f0074 	ldr	r0, [pc, #116]	; 89bc <va_printk+0x284>
    8944:	e59f1064 	ldr	r1, [pc, #100]	; 89b0 <va_printk+0x278>
    8948:	e59f2064 	ldr	r2, [pc, #100]	; 89b4 <va_printk+0x27c>
    894c:	e3a030b9 	mov	r3, #185	; 0xb9
    8950:	ebfffebb 	bl	8444 <printk>
    8954:	eb000019 	bl	89c0 <clean_reboot>
    8958:	e2862001 	add	r2, r6, #1
    895c:	ea000002 	b	896c <va_printk+0x234>
    8960:	e2800001 	add	r0, r0, #1
    8964:	e5c43000 	strb	r3, [r4]
    8968:	e2844001 	add	r4, r4, #1
    896c:	e1540008 	cmp	r4, r8
    8970:	2a000002 	bcs	8980 <va_printk+0x248>
    8974:	e5d03000 	ldrb	r3, [r0]
    8978:	e3530000 	cmp	r3, #0
    897c:	1afffff7 	bne	8960 <va_printk+0x228>
    8980:	e5d23000 	ldrb	r3, [r2]
    8984:	e3530000 	cmp	r3, #0
    8988:	0a000001 	beq	8994 <va_printk+0x25c>
    898c:	e1540008 	cmp	r4, r8
    8990:	3affff72 	bcc	8760 <va_printk+0x28>
    8994:	e2840001 	add	r0, r4, #1
    8998:	e3a03000 	mov	r3, #0
    899c:	e5c43000 	strb	r3, [r4]
    89a0:	e06b0000 	rsb	r0, fp, r0
    89a4:	e28dd08c 	add	sp, sp, #140	; 0x8c
    89a8:	e8bd8ff0 	pop	{r4, r5, r6, r7, r8, r9, sl, fp, pc}
    89ac:	00009914 	andeq	r9, r0, r4, lsl r9
    89b0:	000098c4 	andeq	r9, r0, r4, asr #17
    89b4:	000098a4 	andeq	r9, r0, r4, lsr #17
    89b8:	00009930 	andeq	r9, r0, r0, lsr r9
    89bc:	00009958 	andeq	r9, r0, r8, asr r9

000089c0 <clean_reboot>:
    89c0:	e92d4008 	push	{r3, lr}
    89c4:	e59f3014 	ldr	r3, [pc, #20]	; 89e0 <clean_reboot+0x20>
    89c8:	e5933000 	ldr	r3, [r3]
    89cc:	e59f0010 	ldr	r0, [pc, #16]	; 89e4 <clean_reboot+0x24>
    89d0:	e12fff33 	blx	r3
    89d4:	e3a00064 	mov	r0, #100	; 0x64
    89d8:	eb000044 	bl	8af0 <delay_ms>
    89dc:	eb000019 	bl	8a48 <rpi_reboot>
    89e0:	00009548 	andeq	r9, r0, r8, asr #10
    89e4:	00009990 	muleq	r0, r0, r9

000089e8 <_cstart>:
    89e8:	e92d4008 	push	{r3, lr}
    89ec:	e59f3020 	ldr	r3, [pc, #32]	; 8a14 <_cstart+0x2c>
    89f0:	e59f2020 	ldr	r2, [pc, #32]	; 8a18 <_cstart+0x30>
    89f4:	e3a01000 	mov	r1, #0
    89f8:	ea000001 	b	8a04 <_cstart+0x1c>
    89fc:	e5831000 	str	r1, [r3]
    8a00:	e2833004 	add	r3, r3, #4
    8a04:	e1530002 	cmp	r3, r2
    8a08:	3afffffb 	bcc	89fc <_cstart+0x14>
    8a0c:	ebfffe74 	bl	83e4 <notmain>
    8a10:	eb00000c 	bl	8a48 <rpi_reboot>
    8a14:	00009ae4 	andeq	r9, r0, r4, ror #21
    8a18:	00009ef8 	strdeq	r9, [r0], -r8

00008a1c <at_user_level>:
    8a1c:	e10f0000 	mrs	r0, CPSR
    8a20:	e200001f 	and	r0, r0, #31
    8a24:	e3500010 	cmp	r0, #16
    8a28:	13a00000 	movne	r0, #0
    8a2c:	03a00001 	moveq	r0, #1
    8a30:	e12fff1e 	bx	lr

00008a34 <set_user_level>:
    8a34:	e10f3000 	mrs	r3, CPSR
    8a38:	e3c3301f 	bic	r3, r3, #31
    8a3c:	e3833010 	orr	r3, r3, #16
    8a40:	e129f003 	msr	CPSR_fc, r3
    8a44:	e12fff1e 	bx	lr

00008a48 <rpi_reboot>:
    8a48:	e92d4008 	push	{r3, lr}
    8a4c:	ebfffff2 	bl	8a1c <at_user_level>
    8a50:	e3500000 	cmp	r0, #0
    8a54:	0a000000 	beq	8a5c <rpi_reboot+0x14>
    8a58:	ebfffff5 	bl	8a34 <set_user_level>
    8a5c:	e3a0001e 	mov	r0, #30
    8a60:	eb000022 	bl	8af0 <delay_ms>
    8a64:	e59f0014 	ldr	r0, [pc, #20]	; 8a80 <rpi_reboot+0x38>
    8a68:	e59f1014 	ldr	r1, [pc, #20]	; 8a84 <rpi_reboot+0x3c>
    8a6c:	eb000214 	bl	92c4 <PUT32>
    8a70:	e59f0010 	ldr	r0, [pc, #16]	; 8a88 <rpi_reboot+0x40>
    8a74:	e59f1010 	ldr	r1, [pc, #16]	; 8a8c <rpi_reboot+0x44>
    8a78:	eb000211 	bl	92c4 <PUT32>
    8a7c:	eafffffe 	b	8a7c <rpi_reboot+0x34>
    8a80:	20100024 	andscs	r0, r0, r4, lsr #32
    8a84:	5a000001 	bpl	8a90 <delay_cycles>
    8a88:	2010001c 	andscs	r0, r0, ip, lsl r0
    8a8c:	5a000020 	bpl	8b14 <delay_sec+0x10>

00008a90 <delay_cycles>:
    8a90:	ea000001 	b	8a9c <delay_cycles+0xc>
    8a94:	e2811000 	add	r1, r1, #0
    8a98:	e1a00003 	mov	r0, r3
    8a9c:	e2403001 	sub	r3, r0, #1
    8aa0:	e3500000 	cmp	r0, #0
    8aa4:	1afffffa 	bne	8a94 <delay_cycles+0x4>
    8aa8:	e12fff1e 	bx	lr

00008aac <timer_get_usec_raw>:
    8aac:	e92d4008 	push	{r3, lr}
    8ab0:	e59f0004 	ldr	r0, [pc, #4]	; 8abc <timer_get_usec_raw+0x10>
    8ab4:	eb00020e 	bl	92f4 <GET32>
    8ab8:	e8bd8008 	pop	{r3, pc}
    8abc:	20003004 	andcs	r3, r0, r4

00008ac0 <timer_get_usec>:
    8ac0:	e92d4008 	push	{r3, lr}
    8ac4:	ebfffff8 	bl	8aac <timer_get_usec_raw>
    8ac8:	e8bd8008 	pop	{r3, pc}

00008acc <delay_us>:
    8acc:	e92d4038 	push	{r3, r4, r5, lr}
    8ad0:	e1a05000 	mov	r5, r0
    8ad4:	ebfffff9 	bl	8ac0 <timer_get_usec>
    8ad8:	e1a04000 	mov	r4, r0
    8adc:	ebfffff7 	bl	8ac0 <timer_get_usec>
    8ae0:	e0640000 	rsb	r0, r4, r0
    8ae4:	e1500005 	cmp	r0, r5
    8ae8:	3afffffb 	bcc	8adc <delay_us+0x10>
    8aec:	e8bd8038 	pop	{r3, r4, r5, pc}

00008af0 <delay_ms>:
    8af0:	e92d4008 	push	{r3, lr}
    8af4:	e3a03ffa 	mov	r3, #1000	; 0x3e8
    8af8:	e0000093 	mul	r0, r3, r0
    8afc:	ebfffff2 	bl	8acc <delay_us>
    8b00:	e8bd8008 	pop	{r3, pc}

00008b04 <delay_sec>:
    8b04:	e92d4008 	push	{r3, lr}
    8b08:	e3a03ffa 	mov	r3, #1000	; 0x3e8
    8b0c:	e0000093 	mul	r0, r3, r0
    8b10:	ebfffff6 	bl	8af0 <delay_ms>
    8b14:	e8bd8008 	pop	{r3, pc}

00008b18 <gpio_set_output>:
    8b18:	e92d4038 	push	{r3, r4, r5, lr}
    8b1c:	e1a04000 	mov	r4, r0
    8b20:	e350001f 	cmp	r0, #31
    8b24:	88bd8038 	pophi	{r3, r4, r5, pc}
    8b28:	e59f30b4 	ldr	r3, [pc, #180]	; 8be4 <gpio_set_output+0xcc>
    8b2c:	e0832093 	umull	r2, r3, r3, r0
    8b30:	e1a031a3 	lsr	r3, r3, #3
    8b34:	e3530005 	cmp	r3, #5
    8b38:	979ff103 	ldrls	pc, [pc, r3, lsl #2]
    8b3c:	ea000017 	b	8ba0 <gpio_set_output+0x88>
    8b40:	00008b58 	andeq	r8, r0, r8, asr fp
    8b44:	00008b64 	andeq	r8, r0, r4, ror #22
    8b48:	00008b70 	andeq	r8, r0, r0, ror fp
    8b4c:	00008b7c 	andeq	r8, r0, ip, ror fp
    8b50:	00008b88 	andeq	r8, r0, r8, lsl #23
    8b54:	00008b94 	muleq	r0, r4, fp
    8b58:	e59f3088 	ldr	r3, [pc, #136]	; 8be8 <gpio_set_output+0xd0>
    8b5c:	e5935000 	ldr	r5, [r3]
    8b60:	ea00000f 	b	8ba4 <gpio_set_output+0x8c>
    8b64:	e59f307c 	ldr	r3, [pc, #124]	; 8be8 <gpio_set_output+0xd0>
    8b68:	e5935004 	ldr	r5, [r3, #4]
    8b6c:	ea00000c 	b	8ba4 <gpio_set_output+0x8c>
    8b70:	e59f3070 	ldr	r3, [pc, #112]	; 8be8 <gpio_set_output+0xd0>
    8b74:	e5935008 	ldr	r5, [r3, #8]
    8b78:	ea000009 	b	8ba4 <gpio_set_output+0x8c>
    8b7c:	e59f3064 	ldr	r3, [pc, #100]	; 8be8 <gpio_set_output+0xd0>
    8b80:	e593500c 	ldr	r5, [r3, #12]
    8b84:	ea000006 	b	8ba4 <gpio_set_output+0x8c>
    8b88:	e59f3058 	ldr	r3, [pc, #88]	; 8be8 <gpio_set_output+0xd0>
    8b8c:	e5935010 	ldr	r5, [r3, #16]
    8b90:	ea000003 	b	8ba4 <gpio_set_output+0x8c>
    8b94:	e59f304c 	ldr	r3, [pc, #76]	; 8be8 <gpio_set_output+0xd0>
    8b98:	e5935014 	ldr	r5, [r3, #20]
    8b9c:	ea000000 	b	8ba4 <gpio_set_output+0x8c>
    8ba0:	e3a05000 	mov	r5, #0
    8ba4:	e1a00005 	mov	r0, r5
    8ba8:	eb0001cf 	bl	92ec <get32>
    8bac:	e59f1030 	ldr	r1, [pc, #48]	; 8be4 <gpio_set_output+0xcc>
    8bb0:	e0813491 	umull	r3, r1, r1, r4
    8bb4:	e1a011a1 	lsr	r1, r1, #3
    8bb8:	e0811101 	add	r1, r1, r1, lsl #2
    8bbc:	e1a01081 	lsl	r1, r1, #1
    8bc0:	e0611004 	rsb	r1, r1, r4
    8bc4:	e0811081 	add	r1, r1, r1, lsl #1
    8bc8:	e3a03007 	mov	r3, #7
    8bcc:	e1c03113 	bic	r3, r0, r3, lsl r1
    8bd0:	e1a00005 	mov	r0, r5
    8bd4:	e3a02001 	mov	r2, #1
    8bd8:	e1831112 	orr	r1, r3, r2, lsl r1
    8bdc:	eb0001b6 	bl	92bc <put32>
    8be0:	e8bd8038 	pop	{r3, r4, r5, pc}
    8be4:	cccccccd 	stclgt	12, cr12, [ip], {205}	; 0xcd
    8be8:	0000954c 	andeq	r9, r0, ip, asr #10

00008bec <gpio_set_on>:
    8bec:	e92d4008 	push	{r3, lr}
    8bf0:	e350001f 	cmp	r0, #31
    8bf4:	88bd8008 	pophi	{r3, pc}
    8bf8:	959f3020 	ldrls	r3, [pc, #32]	; 8c20 <gpio_set_on+0x34>
    8bfc:	95932018 	ldrls	r2, [r3, #24]
    8c00:	859f3018 	ldrhi	r3, [pc, #24]	; 8c20 <gpio_set_on+0x34>
    8c04:	8593201c 	ldrhi	r2, [r3, #28]
    8c08:	e200301f 	and	r3, r0, #31
    8c0c:	e1a00002 	mov	r0, r2
    8c10:	e3a01001 	mov	r1, #1
    8c14:	e1a01311 	lsl	r1, r1, r3
    8c18:	eb0001a7 	bl	92bc <put32>
    8c1c:	e8bd8008 	pop	{r3, pc}
    8c20:	0000954c 	andeq	r9, r0, ip, asr #10

00008c24 <gpio_set_off>:
    8c24:	e92d4008 	push	{r3, lr}
    8c28:	e350001f 	cmp	r0, #31
    8c2c:	88bd8008 	pophi	{r3, pc}
    8c30:	959f3020 	ldrls	r3, [pc, #32]	; 8c58 <gpio_set_off+0x34>
    8c34:	95932020 	ldrls	r2, [r3, #32]
    8c38:	859f3018 	ldrhi	r3, [pc, #24]	; 8c58 <gpio_set_off+0x34>
    8c3c:	85932024 	ldrhi	r2, [r3, #36]	; 0x24
    8c40:	e200301f 	and	r3, r0, #31
    8c44:	e1a00002 	mov	r0, r2
    8c48:	e3a01001 	mov	r1, #1
    8c4c:	e1a01311 	lsl	r1, r1, r3
    8c50:	eb000199 	bl	92bc <put32>
    8c54:	e8bd8008 	pop	{r3, pc}
    8c58:	0000954c 	andeq	r9, r0, ip, asr #10

00008c5c <gpio_set_input>:
    8c5c:	e92d4038 	push	{r3, r4, r5, lr}
    8c60:	e1a04000 	mov	r4, r0
    8c64:	e350001f 	cmp	r0, #31
    8c68:	88bd8038 	pophi	{r3, r4, r5, pc}
    8c6c:	e59f30ac 	ldr	r3, [pc, #172]	; 8d20 <gpio_set_input+0xc4>
    8c70:	e0832093 	umull	r2, r3, r3, r0
    8c74:	e1a031a3 	lsr	r3, r3, #3
    8c78:	e3530005 	cmp	r3, #5
    8c7c:	979ff103 	ldrls	pc, [pc, r3, lsl #2]
    8c80:	ea000017 	b	8ce4 <gpio_set_input+0x88>
    8c84:	00008c9c 	muleq	r0, ip, ip
    8c88:	00008ca8 	andeq	r8, r0, r8, lsr #25
    8c8c:	00008cb4 			; <UNDEFINED> instruction: 0x00008cb4
    8c90:	00008cc0 	andeq	r8, r0, r0, asr #25
    8c94:	00008ccc 	andeq	r8, r0, ip, asr #25
    8c98:	00008cd8 	ldrdeq	r8, [r0], -r8	; <UNPREDICTABLE>
    8c9c:	e59f3080 	ldr	r3, [pc, #128]	; 8d24 <gpio_set_input+0xc8>
    8ca0:	e5935000 	ldr	r5, [r3]
    8ca4:	ea00000f 	b	8ce8 <gpio_set_input+0x8c>
    8ca8:	e59f3074 	ldr	r3, [pc, #116]	; 8d24 <gpio_set_input+0xc8>
    8cac:	e5935004 	ldr	r5, [r3, #4]
    8cb0:	ea00000c 	b	8ce8 <gpio_set_input+0x8c>
    8cb4:	e59f3068 	ldr	r3, [pc, #104]	; 8d24 <gpio_set_input+0xc8>
    8cb8:	e5935008 	ldr	r5, [r3, #8]
    8cbc:	ea000009 	b	8ce8 <gpio_set_input+0x8c>
    8cc0:	e59f305c 	ldr	r3, [pc, #92]	; 8d24 <gpio_set_input+0xc8>
    8cc4:	e593500c 	ldr	r5, [r3, #12]
    8cc8:	ea000006 	b	8ce8 <gpio_set_input+0x8c>
    8ccc:	e59f3050 	ldr	r3, [pc, #80]	; 8d24 <gpio_set_input+0xc8>
    8cd0:	e5935010 	ldr	r5, [r3, #16]
    8cd4:	ea000003 	b	8ce8 <gpio_set_input+0x8c>
    8cd8:	e59f3044 	ldr	r3, [pc, #68]	; 8d24 <gpio_set_input+0xc8>
    8cdc:	e5935014 	ldr	r5, [r3, #20]
    8ce0:	ea000000 	b	8ce8 <gpio_set_input+0x8c>
    8ce4:	e3a05000 	mov	r5, #0
    8ce8:	e1a00005 	mov	r0, r5
    8cec:	eb00017e 	bl	92ec <get32>
    8cf0:	e59f1028 	ldr	r1, [pc, #40]	; 8d20 <gpio_set_input+0xc4>
    8cf4:	e0813491 	umull	r3, r1, r1, r4
    8cf8:	e1a011a1 	lsr	r1, r1, #3
    8cfc:	e0811101 	add	r1, r1, r1, lsl #2
    8d00:	e1a01081 	lsl	r1, r1, #1
    8d04:	e0611004 	rsb	r1, r1, r4
    8d08:	e0811081 	add	r1, r1, r1, lsl #1
    8d0c:	e3a03007 	mov	r3, #7
    8d10:	e1c01113 	bic	r1, r0, r3, lsl r1
    8d14:	e1a00005 	mov	r0, r5
    8d18:	eb000167 	bl	92bc <put32>
    8d1c:	e8bd8038 	pop	{r3, r4, r5, pc}
    8d20:	cccccccd 	stclgt	12, cr12, [ip], {205}	; 0xcd
    8d24:	0000954c 	andeq	r9, r0, ip, asr #10

00008d28 <gpio_read>:
    8d28:	e92d4010 	push	{r4, lr}
    8d2c:	e1a04000 	mov	r4, r0
    8d30:	e350001f 	cmp	r0, #31
    8d34:	8a00000b 	bhi	8d68 <gpio_read+0x40>
    8d38:	8a000003 	bhi	8d4c <gpio_read+0x24>
    8d3c:	e59f302c 	ldr	r3, [pc, #44]	; 8d70 <gpio_read+0x48>
    8d40:	e5930028 	ldr	r0, [r3, #40]	; 0x28
    8d44:	eb000168 	bl	92ec <get32>
    8d48:	ea000002 	b	8d58 <gpio_read+0x30>
    8d4c:	e59f301c 	ldr	r3, [pc, #28]	; 8d70 <gpio_read+0x48>
    8d50:	e593002c 	ldr	r0, [r3, #44]	; 0x2c
    8d54:	eb000164 	bl	92ec <get32>
    8d58:	e204401f 	and	r4, r4, #31
    8d5c:	e3a03001 	mov	r3, #1
    8d60:	e0000413 	and	r0, r0, r3, lsl r4
    8d64:	e8bd8010 	pop	{r4, pc}
    8d68:	e3e00000 	mvn	r0, #0
    8d6c:	e8bd8010 	pop	{r4, pc}
    8d70:	0000954c 	andeq	r9, r0, ip, asr #10

00008d74 <gpio_write>:
    8d74:	e92d4008 	push	{r3, lr}
    8d78:	e350001f 	cmp	r0, #31
    8d7c:	88bd8008 	pophi	{r3, pc}
    8d80:	e3510000 	cmp	r1, #0
    8d84:	0a00000b 	beq	8db8 <gpio_write+0x44>
    8d88:	e350001f 	cmp	r0, #31
    8d8c:	88bd8008 	pophi	{r3, pc}
    8d90:	959f3050 	ldrls	r3, [pc, #80]	; 8de8 <gpio_write+0x74>
    8d94:	95932018 	ldrls	r2, [r3, #24]
    8d98:	859f3048 	ldrhi	r3, [pc, #72]	; 8de8 <gpio_write+0x74>
    8d9c:	8593201c 	ldrhi	r2, [r3, #28]
    8da0:	e200301f 	and	r3, r0, #31
    8da4:	e1a00002 	mov	r0, r2
    8da8:	e3a01001 	mov	r1, #1
    8dac:	e1a01311 	lsl	r1, r1, r3
    8db0:	eb000141 	bl	92bc <put32>
    8db4:	e8bd8008 	pop	{r3, pc}
    8db8:	e350001f 	cmp	r0, #31
    8dbc:	88bd8008 	pophi	{r3, pc}
    8dc0:	959f3020 	ldrls	r3, [pc, #32]	; 8de8 <gpio_write+0x74>
    8dc4:	95932020 	ldrls	r2, [r3, #32]
    8dc8:	859f3018 	ldrhi	r3, [pc, #24]	; 8de8 <gpio_write+0x74>
    8dcc:	85932024 	ldrhi	r2, [r3, #36]	; 0x24
    8dd0:	e200301f 	and	r3, r0, #31
    8dd4:	e1a00002 	mov	r0, r2
    8dd8:	e3a01001 	mov	r1, #1
    8ddc:	e1a01311 	lsl	r1, r1, r3
    8de0:	eb000135 	bl	92bc <put32>
    8de4:	e8bd8008 	pop	{r3, pc}
    8de8:	0000954c 	andeq	r9, r0, ip, asr #10

00008dec <gpio_set_function>:
    8dec:	e92d4070 	push	{r4, r5, r6, lr}
    8df0:	e1a04000 	mov	r4, r0
    8df4:	e1a05001 	mov	r5, r1
    8df8:	e3510007 	cmp	r1, #7
    8dfc:	9350001f 	cmpls	r0, #31
    8e00:	88bd8070 	pophi	{r4, r5, r6, pc}
    8e04:	e59f30b0 	ldr	r3, [pc, #176]	; 8ebc <gpio_set_function+0xd0>
    8e08:	e0832093 	umull	r2, r3, r3, r0
    8e0c:	e1a031a3 	lsr	r3, r3, #3
    8e10:	e3530005 	cmp	r3, #5
    8e14:	979ff103 	ldrls	pc, [pc, r3, lsl #2]
    8e18:	ea000017 	b	8e7c <gpio_set_function+0x90>
    8e1c:	00008e34 	andeq	r8, r0, r4, lsr lr
    8e20:	00008e40 	andeq	r8, r0, r0, asr #28
    8e24:	00008e4c 	andeq	r8, r0, ip, asr #28
    8e28:	00008e58 	andeq	r8, r0, r8, asr lr
    8e2c:	00008e64 	andeq	r8, r0, r4, ror #28
    8e30:	00008e70 	andeq	r8, r0, r0, ror lr
    8e34:	e59f3084 	ldr	r3, [pc, #132]	; 8ec0 <gpio_set_function+0xd4>
    8e38:	e5936000 	ldr	r6, [r3]
    8e3c:	ea00000f 	b	8e80 <gpio_set_function+0x94>
    8e40:	e59f3078 	ldr	r3, [pc, #120]	; 8ec0 <gpio_set_function+0xd4>
    8e44:	e5936004 	ldr	r6, [r3, #4]
    8e48:	ea00000c 	b	8e80 <gpio_set_function+0x94>
    8e4c:	e59f306c 	ldr	r3, [pc, #108]	; 8ec0 <gpio_set_function+0xd4>
    8e50:	e5936008 	ldr	r6, [r3, #8]
    8e54:	ea000009 	b	8e80 <gpio_set_function+0x94>
    8e58:	e59f3060 	ldr	r3, [pc, #96]	; 8ec0 <gpio_set_function+0xd4>
    8e5c:	e593600c 	ldr	r6, [r3, #12]
    8e60:	ea000006 	b	8e80 <gpio_set_function+0x94>
    8e64:	e59f3054 	ldr	r3, [pc, #84]	; 8ec0 <gpio_set_function+0xd4>
    8e68:	e5936010 	ldr	r6, [r3, #16]
    8e6c:	ea000003 	b	8e80 <gpio_set_function+0x94>
    8e70:	e59f3048 	ldr	r3, [pc, #72]	; 8ec0 <gpio_set_function+0xd4>
    8e74:	e5936014 	ldr	r6, [r3, #20]
    8e78:	ea000000 	b	8e80 <gpio_set_function+0x94>
    8e7c:	e3a06000 	mov	r6, #0
    8e80:	e1a00006 	mov	r0, r6
    8e84:	eb000118 	bl	92ec <get32>
    8e88:	e59f302c 	ldr	r3, [pc, #44]	; 8ebc <gpio_set_function+0xd0>
    8e8c:	e0832493 	umull	r2, r3, r3, r4
    8e90:	e1a031a3 	lsr	r3, r3, #3
    8e94:	e0833103 	add	r3, r3, r3, lsl #2
    8e98:	e1a03083 	lsl	r3, r3, #1
    8e9c:	e0633004 	rsb	r3, r3, r4
    8ea0:	e0833083 	add	r3, r3, r3, lsl #1
    8ea4:	e3a01007 	mov	r1, #7
    8ea8:	e1c01311 	bic	r1, r0, r1, lsl r3
    8eac:	e1a00006 	mov	r0, r6
    8eb0:	e1811315 	orr	r1, r1, r5, lsl r3
    8eb4:	eb000100 	bl	92bc <put32>
    8eb8:	e8bd8070 	pop	{r4, r5, r6, pc}
    8ebc:	cccccccd 	stclgt	12, cr12, [ip], {205}	; 0xcd
    8ec0:	0000954c 	andeq	r9, r0, ip, asr #10

00008ec4 <is_gpio_int>:
    8ec4:	e92d4008 	push	{r3, lr}
    8ec8:	e59f301c 	ldr	r3, [pc, #28]	; 8eec <is_gpio_int+0x28>
    8ecc:	e5930030 	ldr	r0, [r3, #48]	; 0x30
    8ed0:	eb000105 	bl	92ec <get32>
    8ed4:	e3500000 	cmp	r0, #0
    8ed8:	0a000001 	beq	8ee4 <is_gpio_int+0x20>
    8edc:	e3a00001 	mov	r0, #1
    8ee0:	e8bd8008 	pop	{r3, pc}
    8ee4:	e3a00000 	mov	r0, #0
    8ee8:	e8bd8008 	pop	{r3, pc}
    8eec:	0000954c 	andeq	r9, r0, ip, asr #10

00008ef0 <gpio_int_rising_edge>:
    8ef0:	e92d4038 	push	{r3, r4, r5, lr}
    8ef4:	e1a04000 	mov	r4, r0
    8ef8:	e350001f 	cmp	r0, #31
    8efc:	88bd8038 	pophi	{r3, r4, r5, pc}
    8f00:	eb0000e7 	bl	92a4 <dev_barrier>
    8f04:	e354001f 	cmp	r4, #31
    8f08:	8a000007 	bhi	8f2c <gpio_int_rising_edge+0x3c>
    8f0c:	e59f505c 	ldr	r5, [pc, #92]	; 8f70 <gpio_int_rising_edge+0x80>
    8f10:	e5950034 	ldr	r0, [r5, #52]	; 0x34
    8f14:	eb0000f4 	bl	92ec <get32>
    8f18:	e3a01001 	mov	r1, #1
    8f1c:	e1801411 	orr	r1, r0, r1, lsl r4
    8f20:	e5950034 	ldr	r0, [r5, #52]	; 0x34
    8f24:	eb0000e4 	bl	92bc <put32>
    8f28:	ea000007 	b	8f4c <gpio_int_rising_edge+0x5c>
    8f2c:	e59f503c 	ldr	r5, [pc, #60]	; 8f70 <gpio_int_rising_edge+0x80>
    8f30:	e5950038 	ldr	r0, [r5, #56]	; 0x38
    8f34:	eb0000ec 	bl	92ec <get32>
    8f38:	e204401f 	and	r4, r4, #31
    8f3c:	e3a01001 	mov	r1, #1
    8f40:	e1801411 	orr	r1, r0, r1, lsl r4
    8f44:	e5950038 	ldr	r0, [r5, #56]	; 0x38
    8f48:	eb0000db 	bl	92bc <put32>
    8f4c:	eb0000d4 	bl	92a4 <dev_barrier>
    8f50:	e59f4018 	ldr	r4, [pc, #24]	; 8f70 <gpio_int_rising_edge+0x80>
    8f54:	e594003c 	ldr	r0, [r4, #60]	; 0x3c
    8f58:	eb0000e3 	bl	92ec <get32>
    8f5c:	e3801802 	orr	r1, r0, #131072	; 0x20000
    8f60:	e594003c 	ldr	r0, [r4, #60]	; 0x3c
    8f64:	eb0000d4 	bl	92bc <put32>
    8f68:	eb0000cd 	bl	92a4 <dev_barrier>
    8f6c:	e8bd8038 	pop	{r3, r4, r5, pc}
    8f70:	0000954c 	andeq	r9, r0, ip, asr #10

00008f74 <gpio_int_falling_edge>:
    8f74:	e92d4038 	push	{r3, r4, r5, lr}
    8f78:	e1a04000 	mov	r4, r0
    8f7c:	e350001f 	cmp	r0, #31
    8f80:	88bd8038 	pophi	{r3, r4, r5, pc}
    8f84:	eb0000c6 	bl	92a4 <dev_barrier>
    8f88:	e354001f 	cmp	r4, #31
    8f8c:	8a000007 	bhi	8fb0 <gpio_int_falling_edge+0x3c>
    8f90:	e59f505c 	ldr	r5, [pc, #92]	; 8ff4 <gpio_int_falling_edge+0x80>
    8f94:	e5950040 	ldr	r0, [r5, #64]	; 0x40
    8f98:	eb0000d3 	bl	92ec <get32>
    8f9c:	e3a01001 	mov	r1, #1
    8fa0:	e1801411 	orr	r1, r0, r1, lsl r4
    8fa4:	e5950040 	ldr	r0, [r5, #64]	; 0x40
    8fa8:	eb0000c3 	bl	92bc <put32>
    8fac:	ea000007 	b	8fd0 <gpio_int_falling_edge+0x5c>
    8fb0:	e59f503c 	ldr	r5, [pc, #60]	; 8ff4 <gpio_int_falling_edge+0x80>
    8fb4:	e5950044 	ldr	r0, [r5, #68]	; 0x44
    8fb8:	eb0000cb 	bl	92ec <get32>
    8fbc:	e204401f 	and	r4, r4, #31
    8fc0:	e3a01001 	mov	r1, #1
    8fc4:	e1801411 	orr	r1, r0, r1, lsl r4
    8fc8:	e5950044 	ldr	r0, [r5, #68]	; 0x44
    8fcc:	eb0000ba 	bl	92bc <put32>
    8fd0:	eb0000b3 	bl	92a4 <dev_barrier>
    8fd4:	e59f4018 	ldr	r4, [pc, #24]	; 8ff4 <gpio_int_falling_edge+0x80>
    8fd8:	e594003c 	ldr	r0, [r4, #60]	; 0x3c
    8fdc:	eb0000c2 	bl	92ec <get32>
    8fe0:	e3801601 	orr	r1, r0, #1048576	; 0x100000
    8fe4:	e594003c 	ldr	r0, [r4, #60]	; 0x3c
    8fe8:	eb0000b3 	bl	92bc <put32>
    8fec:	eb0000ac 	bl	92a4 <dev_barrier>
    8ff0:	e8bd8038 	pop	{r3, r4, r5, pc}
    8ff4:	0000954c 	andeq	r9, r0, ip, asr #10

00008ff8 <gpio_event_detected>:
    8ff8:	e92d4010 	push	{r4, lr}
    8ffc:	e1a04000 	mov	r4, r0
    9000:	e350001f 	cmp	r0, #31
    9004:	8a000019 	bhi	9070 <gpio_event_detected+0x78>
    9008:	eb0000a5 	bl	92a4 <dev_barrier>
    900c:	e354001f 	cmp	r4, #31
    9010:	8a000008 	bhi	9038 <gpio_event_detected+0x40>
    9014:	e59f305c 	ldr	r3, [pc, #92]	; 9078 <gpio_event_detected+0x80>
    9018:	e5930048 	ldr	r0, [r3, #72]	; 0x48
    901c:	eb0000b2 	bl	92ec <get32>
    9020:	e3a03001 	mov	r3, #1
    9024:	e0103413 	ands	r3, r0, r3, lsl r4
    9028:	0a00000d 	beq	9064 <gpio_event_detected+0x6c>
    902c:	eb00009c 	bl	92a4 <dev_barrier>
    9030:	e3a00001 	mov	r0, #1
    9034:	e8bd8010 	pop	{r4, pc}
    9038:	e59f3038 	ldr	r3, [pc, #56]	; 9078 <gpio_event_detected+0x80>
    903c:	e593004c 	ldr	r0, [r3, #76]	; 0x4c
    9040:	eb0000a9 	bl	92ec <get32>
    9044:	e3a03001 	mov	r3, #1
    9048:	e0004413 	and	r4, r0, r3, lsl r4
    904c:	eb000094 	bl	92a4 <dev_barrier>
    9050:	e3540000 	cmp	r4, #0
    9054:	0a000002 	beq	9064 <gpio_event_detected+0x6c>
    9058:	eb000091 	bl	92a4 <dev_barrier>
    905c:	e3a00001 	mov	r0, #1
    9060:	e8bd8010 	pop	{r4, pc}
    9064:	eb00008e 	bl	92a4 <dev_barrier>
    9068:	e3a00000 	mov	r0, #0
    906c:	e8bd8010 	pop	{r4, pc}
    9070:	e3e00000 	mvn	r0, #0
    9074:	e8bd8010 	pop	{r4, pc}
    9078:	0000954c 	andeq	r9, r0, ip, asr #10

0000907c <gpio_event_clear>:
    907c:	e92d4010 	push	{r4, lr}
    9080:	e1a04000 	mov	r4, r0
    9084:	e350001f 	cmp	r0, #31
    9088:	88bd8010 	pophi	{r4, pc}
    908c:	eb000084 	bl	92a4 <dev_barrier>
    9090:	e354001f 	cmp	r4, #31
    9094:	8a000005 	bhi	90b0 <gpio_event_clear+0x34>
    9098:	e59f3030 	ldr	r3, [pc, #48]	; 90d0 <gpio_event_clear+0x54>
    909c:	e5930048 	ldr	r0, [r3, #72]	; 0x48
    90a0:	e3a01001 	mov	r1, #1
    90a4:	e1a01411 	lsl	r1, r1, r4
    90a8:	eb000083 	bl	92bc <put32>
    90ac:	ea000005 	b	90c8 <gpio_event_clear+0x4c>
    90b0:	e204401f 	and	r4, r4, #31
    90b4:	e59f3014 	ldr	r3, [pc, #20]	; 90d0 <gpio_event_clear+0x54>
    90b8:	e593004c 	ldr	r0, [r3, #76]	; 0x4c
    90bc:	e3a01001 	mov	r1, #1
    90c0:	e1a01411 	lsl	r1, r1, r4
    90c4:	eb00007c 	bl	92bc <put32>
    90c8:	eb000075 	bl	92a4 <dev_barrier>
    90cc:	e8bd8010 	pop	{r4, pc}
    90d0:	0000954c 	andeq	r9, r0, ip, asr #10

000090d4 <int_init>:
    90d4:	e92d4008 	push	{r3, lr}
    90d8:	e59f004c 	ldr	r0, [pc, #76]	; 912c <int_init+0x58>
    90dc:	e3e01000 	mvn	r1, #0
    90e0:	eb000077 	bl	92c4 <PUT32>
    90e4:	e59f0044 	ldr	r0, [pc, #68]	; 9130 <int_init+0x5c>
    90e8:	e3e01000 	mvn	r1, #0
    90ec:	eb000074 	bl	92c4 <PUT32>
    90f0:	eb00006b 	bl	92a4 <dev_barrier>
    90f4:	e59f3038 	ldr	r3, [pc, #56]	; 9134 <int_init+0x60>
    90f8:	e59f0038 	ldr	r0, [pc, #56]	; 9138 <int_init+0x64>
    90fc:	e0630000 	rsb	r0, r3, r0
    9100:	e1a00140 	asr	r0, r0, #2
    9104:	e3a03000 	mov	r3, #0
    9108:	e59fc024 	ldr	ip, [pc, #36]	; 9134 <int_init+0x60>
    910c:	ea000003 	b	9120 <int_init+0x4c>
    9110:	e1a02103 	lsl	r2, r3, #2
    9114:	e79c1103 	ldr	r1, [ip, r3, lsl #2]
    9118:	e5821000 	str	r1, [r2]
    911c:	e2833001 	add	r3, r3, #1
    9120:	e1530000 	cmp	r3, r0
    9124:	3afffff9 	bcc	9110 <int_init+0x3c>
    9128:	e8bd8008 	pop	{r3, pc}
    912c:	2000b21c 	andcs	fp, r0, ip, lsl r2
    9130:	2000b220 	andcs	fp, r0, r0, lsr #4
    9134:	00009328 	andeq	r9, r0, r8, lsr #6
    9138:	00009378 	andeq	r9, r0, r8, ror r3

0000913c <fast_interrupt_vector>:
    913c:	e52de004 	push	{lr}		; (str lr, [sp, #-4]!)
    9140:	e24dd00c 	sub	sp, sp, #12
    9144:	e59f301c 	ldr	r3, [pc, #28]	; 9168 <fast_interrupt_vector+0x2c>
    9148:	e58d3000 	str	r3, [sp]
    914c:	e58d0004 	str	r0, [sp, #4]
    9150:	e59f0014 	ldr	r0, [pc, #20]	; 916c <fast_interrupt_vector+0x30>
    9154:	e59f1014 	ldr	r1, [pc, #20]	; 9170 <fast_interrupt_vector+0x34>
    9158:	e59f2014 	ldr	r2, [pc, #20]	; 9174 <fast_interrupt_vector+0x38>
    915c:	e3a03020 	mov	r3, #32
    9160:	ebfffcb7 	bl	8444 <printk>
    9164:	ebfffe15 	bl	89c0 <clean_reboot>
    9168:	00009a88 	andeq	r9, r0, r8, lsl #21
    916c:	00009a2c 	andeq	r9, r0, ip, lsr #20
    9170:	00009a68 	andeq	r9, r0, r8, ror #20
    9174:	0000999c 	muleq	r0, ip, r9

00009178 <software_interrupt_vector>:
    9178:	e52de004 	push	{lr}		; (str lr, [sp, #-4]!)
    917c:	e24dd00c 	sub	sp, sp, #12
    9180:	e59f301c 	ldr	r3, [pc, #28]	; 91a4 <software_interrupt_vector+0x2c>
    9184:	e58d3000 	str	r3, [sp]
    9188:	e58d0004 	str	r0, [sp, #4]
    918c:	e59f0014 	ldr	r0, [pc, #20]	; 91a8 <software_interrupt_vector+0x30>
    9190:	e59f1014 	ldr	r1, [pc, #20]	; 91ac <software_interrupt_vector+0x34>
    9194:	e59f2014 	ldr	r2, [pc, #20]	; 91b0 <software_interrupt_vector+0x38>
    9198:	e3a03025 	mov	r3, #37	; 0x25
    919c:	ebfffca8 	bl	8444 <printk>
    91a0:	ebfffe06 	bl	89c0 <clean_reboot>
    91a4:	00009a90 	muleq	r0, r0, sl
    91a8:	00009a2c 	andeq	r9, r0, ip, lsr #20
    91ac:	00009a68 	andeq	r9, r0, r8, ror #20
    91b0:	000099b4 			; <UNDEFINED> instruction: 0x000099b4

000091b4 <reset_vector>:
    91b4:	e52de004 	push	{lr}		; (str lr, [sp, #-4]!)
    91b8:	e24dd00c 	sub	sp, sp, #12
    91bc:	e59f301c 	ldr	r3, [pc, #28]	; 91e0 <reset_vector+0x2c>
    91c0:	e58d3000 	str	r3, [sp]
    91c4:	e58d0004 	str	r0, [sp, #4]
    91c8:	e59f0014 	ldr	r0, [pc, #20]	; 91e4 <reset_vector+0x30>
    91cc:	e59f1014 	ldr	r1, [pc, #20]	; 91e8 <reset_vector+0x34>
    91d0:	e59f2014 	ldr	r2, [pc, #20]	; 91ec <reset_vector+0x38>
    91d4:	e3a03028 	mov	r3, #40	; 0x28
    91d8:	ebfffc99 	bl	8444 <printk>
    91dc:	ebfffdf7 	bl	89c0 <clean_reboot>
    91e0:	00009aa0 	andeq	r9, r0, r0, lsr #21
    91e4:	00009a2c 	andeq	r9, r0, ip, lsr #20
    91e8:	00009a68 	andeq	r9, r0, r8, ror #20
    91ec:	000099d0 	ldrdeq	r9, [r0], -r0

000091f0 <undefined_instruction_vector>:
    91f0:	e52de004 	push	{lr}		; (str lr, [sp, #-4]!)
    91f4:	e24dd00c 	sub	sp, sp, #12
    91f8:	e59f301c 	ldr	r3, [pc, #28]	; 921c <undefined_instruction_vector+0x2c>
    91fc:	e58d3000 	str	r3, [sp]
    9200:	e58d0004 	str	r0, [sp, #4]
    9204:	e59f0014 	ldr	r0, [pc, #20]	; 9220 <undefined_instruction_vector+0x30>
    9208:	e59f1014 	ldr	r1, [pc, #20]	; 9224 <undefined_instruction_vector+0x34>
    920c:	e59f2014 	ldr	r2, [pc, #20]	; 9228 <undefined_instruction_vector+0x38>
    9210:	e3a0302b 	mov	r3, #43	; 0x2b
    9214:	ebfffc8a 	bl	8444 <printk>
    9218:	ebfffde8 	bl	89c0 <clean_reboot>
    921c:	00009ab0 			; <UNDEFINED> instruction: 0x00009ab0
    9220:	00009a2c 	andeq	r9, r0, ip, lsr #20
    9224:	00009a68 	andeq	r9, r0, r8, ror #20
    9228:	000099e0 	andeq	r9, r0, r0, ror #19

0000922c <prefetch_abort_vector>:
    922c:	e52de004 	push	{lr}		; (str lr, [sp, #-4]!)
    9230:	e24dd00c 	sub	sp, sp, #12
    9234:	e59f301c 	ldr	r3, [pc, #28]	; 9258 <prefetch_abort_vector+0x2c>
    9238:	e58d3000 	str	r3, [sp]
    923c:	e58d0004 	str	r0, [sp, #4]
    9240:	e59f0014 	ldr	r0, [pc, #20]	; 925c <prefetch_abort_vector+0x30>
    9244:	e59f1014 	ldr	r1, [pc, #20]	; 9260 <prefetch_abort_vector+0x34>
    9248:	e59f2014 	ldr	r2, [pc, #20]	; 9264 <prefetch_abort_vector+0x38>
    924c:	e3a0302e 	mov	r3, #46	; 0x2e
    9250:	ebfffc7b 	bl	8444 <printk>
    9254:	ebfffdd9 	bl	89c0 <clean_reboot>
    9258:	00009ac8 	andeq	r9, r0, r8, asr #21
    925c:	00009a2c 	andeq	r9, r0, ip, lsr #20
    9260:	00009a68 	andeq	r9, r0, r8, ror #20
    9264:	00009a00 	andeq	r9, r0, r0, lsl #20

00009268 <data_abort_vector>:
    9268:	e52de004 	push	{lr}		; (str lr, [sp, #-4]!)
    926c:	e24dd00c 	sub	sp, sp, #12
    9270:	e59f301c 	ldr	r3, [pc, #28]	; 9294 <data_abort_vector+0x2c>
    9274:	e58d3000 	str	r3, [sp]
    9278:	e58d0004 	str	r0, [sp, #4]
    927c:	e59f0014 	ldr	r0, [pc, #20]	; 9298 <data_abort_vector+0x30>
    9280:	e59f1014 	ldr	r1, [pc, #20]	; 929c <data_abort_vector+0x34>
    9284:	e59f2014 	ldr	r2, [pc, #20]	; 92a0 <data_abort_vector+0x38>
    9288:	e3a03031 	mov	r3, #49	; 0x31
    928c:	ebfffc6c 	bl	8444 <printk>
    9290:	ebfffdca 	bl	89c0 <clean_reboot>
    9294:	00009ad8 	ldrdeq	r9, [r0], -r8
    9298:	00009a2c 	andeq	r9, r0, ip, lsr #20
    929c:	00009a68 	andeq	r9, r0, r8, ror #20
    92a0:	00009a18 	andeq	r9, r0, r8, lsl sl

000092a4 <dev_barrier>:
    92a4:	ea000002 	b	92b4 <dsb>

000092a8 <dmb>:
    92a8:	e3a00000 	mov	r0, #0
    92ac:	ee070fba 	mcr	15, 0, r0, cr7, cr10, {5}
    92b0:	e12fff1e 	bx	lr

000092b4 <dsb>:
    92b4:	ee070f9a 	mcr	15, 0, r0, cr7, cr10, {4}
    92b8:	e12fff1e 	bx	lr

000092bc <put32>:
    92bc:	e5801000 	str	r1, [r0]
    92c0:	e12fff1e 	bx	lr

000092c4 <PUT32>:
    92c4:	e5801000 	str	r1, [r0]
    92c8:	e12fff1e 	bx	lr

000092cc <put16>:
    92cc:	e1c010b0 	strh	r1, [r0]
    92d0:	e12fff1e 	bx	lr

000092d4 <PUT16>:
    92d4:	e1c010b0 	strh	r1, [r0]
    92d8:	e12fff1e 	bx	lr

000092dc <put8>:
    92dc:	e5c01000 	strb	r1, [r0]
    92e0:	e12fff1e 	bx	lr

000092e4 <PUT8>:
    92e4:	e5c01000 	strb	r1, [r0]
    92e8:	e12fff1e 	bx	lr

000092ec <get32>:
    92ec:	e5900000 	ldr	r0, [r0]
    92f0:	e12fff1e 	bx	lr

000092f4 <GET32>:
    92f4:	e5900000 	ldr	r0, [r0]
    92f8:	e12fff1e 	bx	lr

000092fc <GETPC>:
    92fc:	e1a0000e 	mov	r0, lr
    9300:	e12fff1e 	bx	lr

00009304 <dummy>:
    9304:	e12fff1e 	bx	lr

00009308 <system_enable_interrupts>:
    9308:	e10f0000 	mrs	r0, CPSR
    930c:	e3c00080 	bic	r0, r0, #128	; 0x80
    9310:	e121f000 	msr	CPSR_c, r0
    9314:	e12fff1e 	bx	lr

00009318 <system_disable_interrupts>:
    9318:	e10f0000 	mrs	r0, CPSR
    931c:	e3800080 	orr	r0, r0, #128	; 0x80
    9320:	e121f000 	msr	CPSR_c, r0
    9324:	e12fff1e 	bx	lr

00009328 <_interrupt_table>:
    9328:	e59ff030 	ldr	pc, [pc, #48]	; 9360 <_reset_asm>
    932c:	e59ff030 	ldr	pc, [pc, #48]	; 9364 <_undefined_instruction_asm>
    9330:	e59ff030 	ldr	pc, [pc, #48]	; 9368 <_software_interrupt_asm>
    9334:	e59ff030 	ldr	pc, [pc, #48]	; 936c <_prefetch_abort_asm>
    9338:	e59ff030 	ldr	pc, [pc, #48]	; 9370 <_data_abort_asm>
    933c:	e59ff01c 	ldr	pc, [pc, #28]	; 9360 <_reset_asm>
    9340:	e59ff02c 	ldr	pc, [pc, #44]	; 9374 <_interrupt_asm>

00009344 <fast_interrupt_asm>:
    9344:	e24ee004 	sub	lr, lr, #4
    9348:	e52de004 	push	{lr}		; (str lr, [sp, #-4]!)
    934c:	e92d1fff 	push	{r0, r1, r2, r3, r4, r5, r6, r7, r8, r9, sl, fp, ip}
    9350:	e1a0000e 	mov	r0, lr
    9354:	ebffff78 	bl	913c <fast_interrupt_vector>
    9358:	e8bd1fff 	pop	{r0, r1, r2, r3, r4, r5, r6, r7, r8, r9, sl, fp, ip}
    935c:	e8fd8000 	ldm	sp!, {pc}^

00009360 <_reset_asm>:
    9360:	000093c0 	andeq	r9, r0, r0, asr #7

00009364 <_undefined_instruction_asm>:
    9364:	000093c8 	andeq	r9, r0, r8, asr #7

00009368 <_software_interrupt_asm>:
    9368:	00009394 	muleq	r0, r4, r3

0000936c <_prefetch_abort_asm>:
    936c:	000093d0 	ldrdeq	r9, [r0], -r0

00009370 <_data_abort_asm>:
    9370:	000093d8 	ldrdeq	r9, [r0], -r8

00009374 <_interrupt_asm>:
    9374:	00009378 	andeq	r9, r0, r8, ror r3

00009378 <_interrupt_table_end>:
    9378:	e3a0d409 	mov	sp, #150994944	; 0x9000000
    937c:	e24ee004 	sub	lr, lr, #4
    9380:	e92d5fff 	push	{r0, r1, r2, r3, r4, r5, r6, r7, r8, r9, sl, fp, ip, lr}
    9384:	e1a0000e 	mov	r0, lr
    9388:	ebfffbf4 	bl	8360 <interrupt_vector>
    938c:	e8bd5fff 	pop	{r0, r1, r2, r3, r4, r5, r6, r7, r8, r9, sl, fp, ip, lr}
    9390:	e1b0f00e 	movs	pc, lr

00009394 <software_interrupt_asm>:
    9394:	e52de004 	push	{lr}		; (str lr, [sp, #-4]!)
    9398:	e92d1ffe 	push	{r1, r2, r3, r4, r5, r6, r7, r8, r9, sl, fp, ip}
    939c:	e24ee004 	sub	lr, lr, #4
    93a0:	e1a0200e 	mov	r2, lr
    93a4:	e1a01000 	mov	r1, r0
    93a8:	e1a0000e 	mov	r0, lr
    93ac:	eb000003 	bl	93c0 <reset_asm>
    93b0:	e8bd1ffe 	pop	{r1, r2, r3, r4, r5, r6, r7, r8, r9, sl, fp, ip}
    93b4:	e49de004 	pop	{lr}		; (ldr lr, [sp], #4)
    93b8:	e8fd8000 	ldm	sp!, {pc}^
    93bc:	e1b0f00e 	movs	pc, lr

000093c0 <reset_asm>:
    93c0:	e24ee004 	sub	lr, lr, #4
    93c4:	ebffff7a 	bl	91b4 <reset_vector>

000093c8 <undefined_instruction_asm>:
    93c8:	e24ee004 	sub	lr, lr, #4
    93cc:	ebffff87 	bl	91f0 <undefined_instruction_vector>

000093d0 <prefetch_abort_asm>:
    93d0:	e24ee004 	sub	lr, lr, #4
    93d4:	ebffff94 	bl	922c <prefetch_abort_vector>

000093d8 <data_abort_asm>:
    93d8:	e24ee004 	sub	lr, lr, #4
    93dc:	ebffffa1 	bl	9268 <data_abort_vector>

000093e0 <uart_can_getc>:
    93e0:	e92d4008 	push	{r3, lr}
    93e4:	e59f300c 	ldr	r3, [pc, #12]	; 93f8 <uart_can_getc+0x18>
    93e8:	e5930000 	ldr	r0, [r3]
    93ec:	ebffffbe 	bl	92ec <get32>
    93f0:	e2000001 	and	r0, r0, #1
    93f4:	e8bd8008 	pop	{r3, pc}
    93f8:	000095ac 	andeq	r9, r0, ip, lsr #11

000093fc <uart_init>:
    93fc:	e92d4038 	push	{r3, r4, r5, lr}
    9400:	ebffffa7 	bl	92a4 <dev_barrier>
    9404:	e3a0000e 	mov	r0, #14
    9408:	e3a01002 	mov	r1, #2
    940c:	ebfffe76 	bl	8dec <gpio_set_function>
    9410:	e3a0000f 	mov	r0, #15
    9414:	e3a01002 	mov	r1, #2
    9418:	ebfffe73 	bl	8dec <gpio_set_function>
    941c:	ebffffa0 	bl	92a4 <dev_barrier>
    9420:	e59f4068 	ldr	r4, [pc, #104]	; 9490 <uart_init+0x94>
    9424:	e5945004 	ldr	r5, [r4, #4]
    9428:	e1a00005 	mov	r0, r5
    942c:	ebffffae 	bl	92ec <get32>
    9430:	e3801001 	orr	r1, r0, #1
    9434:	e1a00005 	mov	r0, r5
    9438:	ebffff9f 	bl	92bc <put32>
    943c:	ebffff98 	bl	92a4 <dev_barrier>
    9440:	e5940008 	ldr	r0, [r4, #8]
    9444:	e3a01000 	mov	r1, #0
    9448:	ebffff9b 	bl	92bc <put32>
    944c:	e594000c 	ldr	r0, [r4, #12]
    9450:	e3a01000 	mov	r1, #0
    9454:	ebffff98 	bl	92bc <put32>
    9458:	e5940010 	ldr	r0, [r4, #16]
    945c:	e3a01006 	mov	r1, #6
    9460:	ebffff95 	bl	92bc <put32>
    9464:	e5940014 	ldr	r0, [r4, #20]
    9468:	e3a01003 	mov	r1, #3
    946c:	ebffff92 	bl	92bc <put32>
    9470:	e5940018 	ldr	r0, [r4, #24]
    9474:	e59f1018 	ldr	r1, [pc, #24]	; 9494 <uart_init+0x98>
    9478:	ebffff8f 	bl	92bc <put32>
    947c:	e5940008 	ldr	r0, [r4, #8]
    9480:	e3a01003 	mov	r1, #3
    9484:	ebffff8c 	bl	92bc <put32>
    9488:	ebffff85 	bl	92a4 <dev_barrier>
    948c:	e8bd8038 	pop	{r3, r4, r5, pc}
    9490:	000095ac 	andeq	r9, r0, ip, lsr #11
    9494:	0000010e 	andeq	r0, r0, lr, lsl #2

00009498 <uart_getc>:
    9498:	e92d4008 	push	{r3, lr}
    949c:	ebffffcf 	bl	93e0 <uart_can_getc>
    94a0:	e3500000 	cmp	r0, #0
    94a4:	0afffffc 	beq	949c <uart_getc+0x4>
    94a8:	e59f300c 	ldr	r3, [pc, #12]	; 94bc <uart_getc+0x24>
    94ac:	e593001c 	ldr	r0, [r3, #28]
    94b0:	ebffff8d 	bl	92ec <get32>
    94b4:	e6ef0070 	uxtb	r0, r0
    94b8:	e8bd8008 	pop	{r3, pc}
    94bc:	000095ac 	andeq	r9, r0, ip, lsr #11

000094c0 <uart_can_putc>:
    94c0:	e92d4008 	push	{r3, lr}
    94c4:	e59f300c 	ldr	r3, [pc, #12]	; 94d8 <uart_can_putc+0x18>
    94c8:	e5930000 	ldr	r0, [r3]
    94cc:	ebffff86 	bl	92ec <get32>
    94d0:	e2000020 	and	r0, r0, #32
    94d4:	e8bd8008 	pop	{r3, pc}
    94d8:	000095ac 	andeq	r9, r0, ip, lsr #11

000094dc <uart_putc>:
    94dc:	e92d4010 	push	{r4, lr}
    94e0:	e1a04000 	mov	r4, r0
    94e4:	ebfffff5 	bl	94c0 <uart_can_putc>
    94e8:	e3500000 	cmp	r0, #0
    94ec:	0afffffc 	beq	94e4 <uart_putc+0x8>
    94f0:	e59f300c 	ldr	r3, [pc, #12]	; 9504 <uart_putc+0x28>
    94f4:	e593001c 	ldr	r0, [r3, #28]
    94f8:	e1a01004 	mov	r1, r4
    94fc:	ebffff6e 	bl	92bc <put32>
    9500:	e8bd8010 	pop	{r4, pc}
    9504:	000095ac 	andeq	r9, r0, ip, lsr #11

00009508 <uart_has_data>:
    9508:	e92d4008 	push	{r3, lr}
    950c:	ebffffb3 	bl	93e0 <uart_can_getc>
    9510:	e8bd8008 	pop	{r3, pc}

00009514 <uart_getc_async>:
    9514:	e92d4008 	push	{r3, lr}
    9518:	ebfffffa 	bl	9508 <uart_has_data>
    951c:	e3500000 	cmp	r0, #0
    9520:	0a000001 	beq	952c <uart_getc_async+0x18>
    9524:	ebffffdb 	bl	9498 <uart_getc>
    9528:	e8bd8008 	pop	{r3, pc}
    952c:	e3e00000 	mvn	r0, #0
    9530:	e8bd8008 	pop	{r3, pc}

00009534 <internal_putchar>:
    9534:	e92d4010 	push	{r4, lr}
    9538:	e1a04000 	mov	r4, r0
    953c:	ebffffe6 	bl	94dc <uart_putc>
    9540:	e1a00004 	mov	r0, r4
    9544:	e8bd8010 	pop	{r4, pc}

Disassembly of section .data:

00009548 <putk>:
    9548:	0000849c 	muleq	r0, ip, r4

0000954c <GPFSEL0>:
    954c:	20200000 	eorcs	r0, r0, r0

00009550 <GPFSEL1>:
    9550:	20200004 	eorcs	r0, r0, r4

00009554 <GPFSEL2>:
    9554:	20200008 	eorcs	r0, r0, r8

00009558 <GPFSEL3>:
    9558:	2020000c 	eorcs	r0, r0, ip

0000955c <GPFSEL4>:
    955c:	20200010 	eorcs	r0, r0, r0, lsl r0

00009560 <GPFSEL5>:
    9560:	20200014 	eorcs	r0, r0, r4, lsl r0

00009564 <GPSET0>:
    9564:	2020001c 	eorcs	r0, r0, ip, lsl r0

00009568 <GPSET1>:
    9568:	20200020 	eorcs	r0, r0, r0, lsr #32

0000956c <GPCLR0>:
    956c:	20200028 	eorcs	r0, r0, r8, lsr #32

00009570 <GPCLR1>:
    9570:	2020002c 	eorcs	r0, r0, ip, lsr #32

00009574 <GPLEV0>:
    9574:	20200034 	eorcs	r0, r0, r4, lsr r0

00009578 <GPLEV1>:
    9578:	20200038 	eorcs	r0, r0, r8, lsr r0

0000957c <IRQ_PENDING_2>:
    957c:	2000b208 	andcs	fp, r0, r8, lsl #4

00009580 <GPREN0>:
    9580:	2020004c 	eorcs	r0, r0, ip, asr #32

00009584 <GPREN1>:
    9584:	20200050 	eorcs	r0, r0, r0, asr r0

00009588 <ENABLE_IRQS_2>:
    9588:	2000b214 	andcs	fp, r0, r4, lsl r2

0000958c <GPFEN0>:
    958c:	20200058 	eorcs	r0, r0, r8, asr r0

00009590 <GPFEN1>:
    9590:	2020005c 	eorcs	r0, r0, ip, asr r0

00009594 <GPEDS0>:
    9594:	20200040 	eorcs	r0, r0, r0, asr #32

00009598 <GPEDS1>:
    9598:	20200044 	eorcs	r0, r0, r4, asr #32

0000959c <IRQ_PENDING_1>:
    959c:	2000b204 	andcs	fp, r0, r4, lsl #4

000095a0 <gpio_clr0>:
    95a0:	20200028 	eorcs	r0, r0, r8, lsr #32

000095a4 <gpio_set0>:
    95a4:	2020001c 	eorcs	r0, r0, ip, lsl r0

000095a8 <gpio_fsel0>:
    95a8:	20200000 	eorcs	r0, r0, r0

000095ac <AUX_MU_LSR_REG>:
    95ac:	20215054 	eorcs	r5, r1, r4, asr r0

000095b0 <AUX_ENABLES>:
    95b0:	20215004 	eorcs	r5, r1, r4

000095b4 <AUX_MU_CNTL_REG>:
    95b4:	20215060 	eorcs	r5, r1, r0, rrx

000095b8 <AUX_MU_IER_REG>:
    95b8:	20215044 	eorcs	r5, r1, r4, asr #32

000095bc <AUX_MU_IIR_REG>:
    95bc:	20215048 	eorcs	r5, r1, r8, asr #32

000095c0 <AUX_MU_LCR_REG>:
    95c0:	2021504c 	eorcs	r5, r1, ip, asr #32

000095c4 <AUX_MU_BAUD_REG>:
    95c4:	20215068 	eorcs	r5, r1, r8, rrx

000095c8 <AUX_MU_IO_REG>:
    95c8:	20215040 	eorcs	r5, r1, r0, asr #32

000095cc <AUX_MU_STAT_REG>:
    95cc:	20215064 	eorcs	r5, r1, r4, rrx

000095d0 <AUX_MU_SCRATCH>:
    95d0:	2021505c 	eorcs	r5, r1, ip, asr r0

000095d4 <AUX_MU_MSR_REG>:
    95d4:	20215058 	eorcs	r5, r1, r8, asr r0

000095d8 <AUX_MU_MCR_REG>:
    95d8:	20215050 	eorcs	r5, r1, r0, asr r0

000095dc <AUX_IRQ>:
    95dc:	20215000 	eorcs	r5, r1, r0

000095e0 <rpi_putchar>:
    95e0:	00009534 	andeq	r9, r0, r4, lsr r5

Disassembly of section .rodata:

000095e4 <__FUNCTION__.4276>:
    95e4:	74736574 	ldrbtvc	r6, [r3], #-1396	; 0x574
    95e8:	69735f31 	ldmdbvs	r3!, {r0, r4, r5, r8, r9, sl, fp, ip, lr}^
    95ec:	656c706d 	strbvs	r7, [ip, #-109]!	; 0x6d
    95f0:	7369725f 	cmnvc	r9, #-268435451	; 0xf0000005
    95f4:	00000065 	andeq	r0, r0, r5, rrx

000095f8 <__FUNCTION__.4280>:
    95f8:	74736574 	ldrbtvc	r6, [r3], #-1396	; 0x574
    95fc:	69735f32 	ldmdbvs	r3!, {r1, r4, r5, r8, r9, sl, fp, ip, lr}^
    9600:	656c706d 	strbvs	r7, [ip, #-109]!	; 0x6d
    9604:	6c61665f 	stclvs	6, cr6, [r1], #-380	; 0xfffffe84
    9608:	0000006c 	andeq	r0, r0, ip, rrx

0000960c <__FUNCTION__.4286>:
    960c:	74736574 	ldrbtvc	r6, [r3], #-1396	; 0x574
    9610:	75665f33 	strbvc	r5, [r6, #-3891]!	; 0xf33
    9614:	745f6c6c 	ldrbvc	r6, [pc], #-3180	; 961c <__FUNCTION__.4286+0x10>
    9618:	00747365 	rsbseq	r7, r4, r5, ror #6
    961c:	2d2d2d2d 	stccs	13, cr2, [sp, #-180]!	; 0xffffff4c
    9620:	2d2d2d2d 	stccs	13, cr2, [sp, #-180]!	; 0xffffff4c
    9624:	2d2d2d2d 	stccs	13, cr2, [sp, #-180]!	; 0xffffff4c
    9628:	2d2d2d2d 	stccs	13, cr2, [sp, #-180]!	; 0xffffff4c
    962c:	2d2d2d2d 	stccs	13, cr2, [sp, #-180]!	; 0xffffff4c
    9630:	2d2d2d2d 	stccs	13, cr2, [sp, #-180]!	; 0xffffff4c
    9634:	2d2d2d2d 	stccs	13, cr2, [sp, #-180]!	; 0xffffff4c
    9638:	2d2d2d2d 	stccs	13, cr2, [sp, #-180]!	; 0xffffff4c
    963c:	2d2d2d2d 	stccs	13, cr2, [sp, #-180]!	; 0xffffff4c
    9640:	2d2d2d2d 	stccs	13, cr2, [sp, #-180]!	; 0xffffff4c
    9644:	2d2d2d2d 	stccs	13, cr2, [sp, #-180]!	; 0xffffff4c
    9648:	2d2d2d2d 	stccs	13, cr2, [sp, #-180]!	; 0xffffff4c
    964c:	000a2d2d 	andeq	r2, sl, sp, lsr #26
    9650:	494e4150 	stmdbmi	lr, {r4, r6, r8, lr}^
    9654:	73253a43 	teqvc	r5, #274432	; 0x43000
    9658:	3a73253a 	bcc	1cd2b48 <__bss_end__+0x1cc8c50>
    965c:	213a6425 	teqcs	sl, r5, lsr #8
    9660:	69725f6e 	ldmdbvs	r2!, {r1, r2, r3, r5, r6, r8, r9, sl, fp, ip, lr}^
    9664:	676e6973 			; <UNDEFINED> instruction: 0x676e6973
    9668:	6764655f 			; <UNDEFINED> instruction: 0x6764655f
    966c:	00000a65 	andeq	r0, r0, r5, ror #20
    9670:	70672d31 	rsbvc	r2, r7, r1, lsr sp
    9674:	692d6f69 	pushvs	{r0, r3, r5, r6, r8, r9, sl, fp, sp, lr}
    9678:	652d746e 	strvs	r7, [sp, #-1134]!	; 0x46e
    967c:	00632e78 	rsbeq	r2, r3, r8, ror lr
    9680:	756f6873 	strbvc	r6, [pc, #-2163]!	; 8e15 <gpio_set_function+0x29>
    9684:	7320646c 	teqvc	r0, #108, 8	; 0x6c000000
    9688:	72206565 	eorvc	r6, r0, #423624704	; 0x19400000
    968c:	6e697369 	cdpvs	3, 6, cr7, cr9, cr9, {3}
    9690:	64652067 	strbtvs	r2, [r5], #-103	; 0x67
    9694:	0a216567 	beq	862c38 <__bss_end__+0x858d40>
    9698:	00000000 	andeq	r0, r0, r0
    969c:	494e4150 	stmdbmi	lr, {r4, r6, r8, lr}^
    96a0:	73253a43 	teqvc	r5, #274432	; 0x43000
    96a4:	3a73253a 	bcc	1cd2b94 <__bss_end__+0x1cc8c9c>
    96a8:	6e3a6425 	cdpvs	4, 3, cr6, cr10, cr5, {1}
    96ac:	7369725f 	cmnvc	r9, #-268435451	; 0xf0000005
    96b0:	5f676e69 	svcpl	0x00676e69
    96b4:	65676465 	strbvs	r6, [r7, #-1125]!	; 0x465
    96b8:	203d3d20 	eorscs	r3, sp, r0, lsr #26
    96bc:	00000a31 	andeq	r0, r0, r1, lsr sl
    96c0:	54534554 	ldrbpl	r4, [r3], #-1364	; 0x554
    96c4:	50203a31 	eorpl	r3, r0, r1, lsr sl
    96c8:	65737361 	ldrbvs	r7, [r3, #-865]!	; 0x361
    96cc:	00000a64 	andeq	r0, r0, r4, ror #20
    96d0:	494e4150 	stmdbmi	lr, {r4, r6, r8, lr}^
    96d4:	73253a43 	teqvc	r5, #274432	; 0x43000
    96d8:	3a73253a 	bcc	1cd2bc8 <__bss_end__+0x1cc8cd0>
    96dc:	213a6425 	teqcs	sl, r5, lsr #8
    96e0:	61665f6e 	cmnvs	r6, lr, ror #30
    96e4:	6e696c6c 	cdpvs	12, 6, cr6, cr9, cr12, {3}
    96e8:	64655f67 	strbtvs	r5, [r5], #-3943	; 0xf67
    96ec:	000a6567 	andeq	r6, sl, r7, ror #10
    96f0:	756f6873 	strbvc	r6, [pc, #-2163]!	; 8e85 <gpio_set_function+0x99>
    96f4:	7320646c 	teqvc	r0, #108, 8	; 0x6c000000
    96f8:	66206565 	strtvs	r6, [r0], -r5, ror #10
    96fc:	696c6c61 	stmdbvs	ip!, {r0, r5, r6, sl, fp, sp, lr}^
    9700:	2020676e 	eorcs	r6, r0, lr, ror #14
    9704:	65676465 	strbvs	r6, [r7, #-1125]!	; 0x465
    9708:	00000a21 	andeq	r0, r0, r1, lsr #20
    970c:	494e4150 	stmdbmi	lr, {r4, r6, r8, lr}^
    9710:	73253a43 	teqvc	r5, #274432	; 0x43000
    9714:	3a73253a 	bcc	1cd2c04 <__bss_end__+0x1cc8d0c>
    9718:	6e3a6425 	cdpvs	4, 3, cr6, cr10, cr5, {1}
    971c:	6c61665f 	stclvs	6, cr6, [r1], #-380	; 0xfffffe84
    9720:	676e696c 	strbvs	r6, [lr, -ip, ror #18]!
    9724:	6764655f 			; <UNDEFINED> instruction: 0x6764655f
    9728:	3d3d2065 	ldccc	0, cr2, [sp, #-404]!	; 0xfffffe6c
    972c:	000a3120 	andeq	r3, sl, r0, lsr #2
    9730:	54534554 	ldrbpl	r4, [r3], #-1364	; 0x554
    9734:	50203a32 	eorpl	r3, r0, r2, lsr sl
    9738:	65737361 	ldrbvs	r7, [r3, #-865]!	; 0x361
    973c:	00000a64 	andeq	r0, r0, r4, ror #20
    9740:	756f6873 	strbvc	r6, [pc, #-2163]!	; 8ed5 <is_gpio_int+0x11>
    9744:	7320646c 	teqvc	r0, #108, 8	; 0x6c000000
    9748:	72206565 	eorvc	r6, r0, #423624704	; 0x19400000
    974c:	6e697369 	cdpvs	3, 6, cr7, cr9, cr9, {3}
    9750:	64652067 	strbtvs	r2, [r5], #-103	; 0x67
    9754:	20216567 	eorcs	r6, r1, r7, ror #10
    9758:	66656220 	strbtvs	r6, [r5], -r0, lsr #4
    975c:	3d65726f 	sfmcc	f7, 2, [r5, #-444]!	; 0xfffffe44
    9760:	000a6425 	andeq	r6, sl, r5, lsr #8
    9764:	69736972 	ldmdbvs	r3!, {r1, r4, r5, r6, r8, fp, sp, lr}^
    9768:	6120676e 	teqvs	r0, lr, ror #14
    976c:	72657466 	rsbvc	r7, r5, #1711276032	; 0x66000000
    9770:	25203d20 	strcs	r3, [r0, #-3360]!	; 0xd20
    9774:	000a2164 	andeq	r2, sl, r4, ror #2
    9778:	494e4150 	stmdbmi	lr, {r4, r6, r8, lr}^
    977c:	73253a43 	teqvc	r5, #274432	; 0x43000
    9780:	3a73253a 	bcc	1cd2c70 <__bss_end__+0x1cc8d78>
    9784:	623a6425 	eorsvs	r6, sl, #620756992	; 0x25000000
    9788:	3d20312b 	stfccs	f3, [r0, #-172]!	; 0xffffff54
    978c:	5f6e203d 	svcpl	0x006e203d
    9790:	69736972 	ldmdbvs	r3!, {r1, r4, r5, r6, r8, fp, sp, lr}^
    9794:	655f676e 	ldrbvs	r6, [pc, #-1902]	; 902e <gpio_event_detected+0x36>
    9798:	0a656764 	beq	1963530 <__bss_end__+0x1959638>
    979c:	00000000 	andeq	r0, r0, r0
    97a0:	72657469 	rsbvc	r7, r5, #1761607680	; 0x69000000
    97a4:	0a64253d 	beq	1912ca0 <__bss_end__+0x1908da8>
    97a8:	00000000 	andeq	r0, r0, r0
    97ac:	756f6873 	strbvc	r6, [pc, #-2163]!	; 8f41 <gpio_int_rising_edge+0x51>
    97b0:	7320646c 	teqvc	r0, #108, 8	; 0x6c000000
    97b4:	61206565 	teqvs	r0, r5, ror #10
    97b8:	6c616620 	stclvs	6, cr6, [r1], #-128	; 0xffffff80
    97bc:	676e696c 	strbvs	r6, [lr, -ip, ror #18]!
    97c0:	67646520 	strbvs	r6, [r4, -r0, lsr #10]!
    97c4:	20202165 	eorcs	r2, r0, r5, ror #2
    97c8:	6f666562 	svcvs	0x00666562
    97cc:	253d6572 	ldrcs	r6, [sp, #-1394]!	; 0x572
    97d0:	00000a64 	andeq	r0, r0, r4, ror #20
    97d4:	6c6c6166 	stfvse	f6, [ip], #-408	; 0xfffffe68
    97d8:	20676e69 	rsbcs	r6, r7, r9, ror #28
    97dc:	65746661 	ldrbvs	r6, [r4, #-1633]!	; 0x661
    97e0:	203d2072 	eorscs	r2, sp, r2, ror r0
    97e4:	0a216425 	beq	862880 <__bss_end__+0x858988>
    97e8:	00000000 	andeq	r0, r0, r0
    97ec:	494e4150 	stmdbmi	lr, {r4, r6, r8, lr}^
    97f0:	73253a43 	teqvc	r5, #274432	; 0x43000
    97f4:	3a73253a 	bcc	1cd2ce4 <__bss_end__+0x1cc8dec>
    97f8:	623a6425 	eorsvs	r6, sl, #620756992	; 0x25000000
    97fc:	3d20312b 	stfccs	f3, [r0, #-172]!	; 0xffffff54
    9800:	5f6e203d 	svcpl	0x006e203d
    9804:	6c6c6166 	stfvse	f6, [ip], #-408	; 0xfffffe68
    9808:	5f676e69 	svcpl	0x00676e69
    980c:	65676465 	strbvs	r6, [r7, #-1125]!	; 0x465
    9810:	0000000a 	andeq	r0, r0, sl
    9814:	656e6f64 	strbvs	r6, [lr, #-3940]!	; 0xf64
    9818:	3d6e203a 	stclcc	0, cr2, [lr, #-232]!	; 0xffffff18
    981c:	202c6425 	eorcs	r6, ip, r5, lsr #8
    9820:	69736972 	ldmdbvs	r3!, {r1, r4, r5, r6, r8, fp, sp, lr}^
    9824:	253d676e 	ldrcs	r6, [sp, #-1902]!	; 0x76e
    9828:	66202c64 	strtvs	r2, [r0], -r4, ror #24
    982c:	696c6c61 	stmdbvs	ip!, {r0, r5, r6, sl, fp, sp, lr}^
    9830:	253d676e 	ldrcs	r6, [sp, #-1902]!	; 0x76e
    9834:	00000a64 	andeq	r0, r0, r4, ror #20
    9838:	494e4150 	stmdbmi	lr, {r4, r6, r8, lr}^
    983c:	73253a43 	teqvc	r5, #274432	; 0x43000
    9840:	3a73253a 	bcc	1cd2d30 <__bss_end__+0x1cc8e38>
    9844:	6e3a6425 	cdpvs	4, 3, cr6, cr10, cr5, {1}
    9848:	7369725f 	cmnvc	r9, #-268435451	; 0xf0000005
    984c:	5f676e69 	svcpl	0x00676e69
    9850:	65676465 	strbvs	r6, [r7, #-1125]!	; 0x465
    9854:	203d3d20 	eorscs	r3, sp, r0, lsr #26
    9858:	00000a6e 	andeq	r0, r0, lr, ror #20
    985c:	494e4150 	stmdbmi	lr, {r4, r6, r8, lr}^
    9860:	73253a43 	teqvc	r5, #274432	; 0x43000
    9864:	3a73253a 	bcc	1cd2d54 <__bss_end__+0x1cc8e5c>
    9868:	6e3a6425 	cdpvs	4, 3, cr6, cr10, cr5, {1}
    986c:	6c61665f 	stclvs	6, cr6, [r1], #-380	; 0xfffffe84
    9870:	676e696c 	strbvs	r6, [lr, -ip, ror #18]!
    9874:	6764655f 			; <UNDEFINED> instruction: 0x6764655f
    9878:	3d3d2065 	ldccc	0, cr2, [sp, #-404]!	; 0xfffffe6c
    987c:	000a6e20 	andeq	r6, sl, r0, lsr #28
    9880:	43435553 	movtmi	r5, #13651	; 0x3553
    9884:	21535345 	cmpcs	r3, r5, asr #6
    9888:	0000000a 	andeq	r0, r0, sl

0000988c <__FUNCTION__.4202>:
    988c:	74696d65 	strbtvc	r6, [r9], #-3429	; 0xd65
    9890:	00000000 	andeq	r0, r0, r0

00009894 <__FUNCTION__.4150>:
    9894:	5f697072 	svcpl	0x00697072
    9898:	5f746573 	svcpl	0x00746573
    989c:	7074756f 	rsbsvc	r7, r4, pc, ror #10
    98a0:	00007475 	andeq	r7, r0, r5, ror r4

000098a4 <__FUNCTION__.4224>:
    98a4:	705f6176 	subsvc	r6, pc, r6, ror r1	; <UNPREDICTABLE>
    98a8:	746e6972 	strbtvc	r6, [lr], #-2418	; 0x972
    98ac:	0000006b 	andeq	r0, r0, fp, rrx
    98b0:	494e4150 	stmdbmi	lr, {r4, r6, r8, lr}^
    98b4:	73253a43 	teqvc	r5, #274432	; 0x43000
    98b8:	3a73253a 	bcc	1cd2da8 <__bss_end__+0x1cc8eb0>
    98bc:	303a6425 	eorscc	r6, sl, r5, lsr #8
    98c0:	0000000a 	andeq	r0, r0, sl
    98c4:	6362696c 	cmnvs	r2, #108, 18	; 0x1b0000
    98c8:	2d61762f 	stclcs	6, cr7, [r1, #-188]!	; 0xffffff44
    98cc:	6e697270 	mcrvs	2, 3, r7, cr9, cr0, {3}
    98d0:	632e6b74 	teqvs	lr, #116, 22	; 0x1d000
    98d4:	00000000 	andeq	r0, r0, r0
    98d8:	33323130 	teqcc	r2, #48, 2
    98dc:	37363534 			; <UNDEFINED> instruction: 0x37363534
    98e0:	00003938 	andeq	r3, r0, r8, lsr r9
    98e4:	33323130 	teqcc	r2, #48, 2
    98e8:	37363534 			; <UNDEFINED> instruction: 0x37363534
    98ec:	62613938 	rsbvs	r3, r1, #56, 18	; 0xe0000
    98f0:	66656463 	strbtvs	r6, [r5], -r3, ror #8
    98f4:	00000000 	andeq	r0, r0, r0
    98f8:	00003130 	andeq	r3, r0, r0, lsr r1
    98fc:	494e4150 	stmdbmi	lr, {r4, r6, r8, lr}^
    9900:	73253a43 	teqvc	r5, #274432	; 0x43000
    9904:	3a73253a 	bcc	1cd2df4 <__bss_end__+0x1cc8efc>
    9908:	703a6425 	eorsvc	r6, sl, r5, lsr #8
    990c:	5f637475 	svcpl	0x00637475
    9910:	000a7066 	andeq	r7, sl, r6, rrx
    9914:	494e4150 	stmdbmi	lr, {r4, r6, r8, lr}^
    9918:	73253a43 	teqvc	r5, #274432	; 0x43000
    991c:	3a73253a 	bcc	1cd2e0c <__bss_end__+0x1cc8f14>
    9920:	773a6425 	ldrvc	r6, [sl, -r5, lsr #8]!
    9924:	68746469 	ldmdavs	r4!, {r0, r3, r5, r6, sl, sp, lr}^
    9928:	33203c20 	teqcc	r0, #32, 24	; 0x2000
    992c:	00000a32 	andeq	r0, r0, r2, lsr sl
    9930:	494e4150 	stmdbmi	lr, {r4, r6, r8, lr}^
    9934:	73253a43 	teqvc	r5, #274432	; 0x43000
    9938:	3a73253a 	bcc	1cd2e28 <__bss_end__+0x1cc8f30>
    993c:	663a6425 	ldrtvs	r6, [sl], -r5, lsr #8
    9940:	74616f6c 	strbtvc	r6, [r1], #-3948	; 0xf6c
    9944:	746f6e20 	strbtvc	r6, [pc], #-3616	; 994c <__FUNCTION__.4224+0xa8>
    9948:	616e6520 	cmnvs	lr, r0, lsr #10
    994c:	64656c62 	strbtvs	r6, [r5], #-3170	; 0xc62
    9950:	0a212121 	beq	851ddc <__bss_end__+0x847ee4>
    9954:	00000000 	andeq	r0, r0, r0
    9958:	494e4150 	stmdbmi	lr, {r4, r6, r8, lr}^
    995c:	73253a43 	teqvc	r5, #274432	; 0x43000
    9960:	3a73253a 	bcc	1cd2e50 <__bss_end__+0x1cc8f58>
    9964:	703a6425 	eorsvc	r6, sl, r5, lsr #8
    9968:	746e6972 	strbtvc	r6, [lr], #-2418	; 0x972
    996c:	6e203a6b 	vnmulvs.f32	s6, s0, s23
    9970:	6820746f 	stmdavs	r0!, {r0, r1, r2, r3, r5, r6, sl, ip, sp, lr}
    9974:	6c646e61 	stclvs	14, cr6, [r4], #-388	; 0xfffffe7c
    9978:	20676e69 	rsbcs	r6, r7, r9, ror #28
    997c:	63657073 	cmnvs	r5, #115	; 0x73
    9980:	65696669 	strbvs	r6, [r9, #-1641]!	; 0x669
    9984:	25272072 	strcs	r2, [r7, #-114]!	; 0x72
    9988:	0a0a2763 	beq	29371c <__bss_end__+0x289824>
    998c:	00000000 	andeq	r0, r0, r0
    9990:	454e4f44 	strbmi	r4, [lr, #-3908]	; 0xf44
    9994:	0a212121 	beq	851e20 <__bss_end__+0x847f28>
    9998:	00000000 	andeq	r0, r0, r0

0000999c <__FUNCTION__.4175>:
    999c:	74736166 	ldrbtvc	r6, [r3], #-358	; 0x166
    99a0:	746e695f 	strbtvc	r6, [lr], #-2399	; 0x95f
    99a4:	75727265 	ldrbvc	r7, [r2, #-613]!	; 0x265
    99a8:	765f7470 			; <UNDEFINED> instruction: 0x765f7470
    99ac:	6f746365 	svcvs	0x00746365
    99b0:	00000072 	andeq	r0, r0, r2, ror r0

000099b4 <__FUNCTION__.4179>:
    99b4:	74666f73 	strbtvc	r6, [r6], #-3955	; 0xf73
    99b8:	65726177 	ldrbvs	r6, [r2, #-375]!	; 0x177
    99bc:	746e695f 	strbtvc	r6, [lr], #-2399	; 0x95f
    99c0:	75727265 	ldrbvc	r7, [r2, #-613]!	; 0x265
    99c4:	765f7470 			; <UNDEFINED> instruction: 0x765f7470
    99c8:	6f746365 	svcvs	0x00746365
    99cc:	00000072 	andeq	r0, r0, r2, ror r0

000099d0 <__FUNCTION__.4183>:
    99d0:	65736572 	ldrbvs	r6, [r3, #-1394]!	; 0x572
    99d4:	65765f74 	ldrbvs	r5, [r6, #-3956]!	; 0xf74
    99d8:	726f7463 	rsbvc	r7, pc, #1660944384	; 0x63000000
    99dc:	00000000 	andeq	r0, r0, r0

000099e0 <__FUNCTION__.4187>:
    99e0:	65646e75 	strbvs	r6, [r4, #-3701]!	; 0xe75
    99e4:	656e6966 	strbvs	r6, [lr, #-2406]!	; 0x966
    99e8:	6e695f64 	cdpvs	15, 6, cr5, cr9, cr4, {3}
    99ec:	75727473 	ldrbvc	r7, [r2, #-1139]!	; 0x473
    99f0:	6f697463 	svcvs	0x00697463
    99f4:	65765f6e 	ldrbvs	r5, [r6, #-3950]!	; 0xf6e
    99f8:	726f7463 	rsbvc	r7, pc, #1660944384	; 0x63000000
    99fc:	00000000 	andeq	r0, r0, r0

00009a00 <__FUNCTION__.4191>:
    9a00:	66657270 			; <UNDEFINED> instruction: 0x66657270
    9a04:	68637465 	stmdavs	r3!, {r0, r2, r5, r6, sl, ip, sp, lr}^
    9a08:	6f62615f 	svcvs	0x0062615f
    9a0c:	765f7472 			; <UNDEFINED> instruction: 0x765f7472
    9a10:	6f746365 	svcvs	0x00746365
    9a14:	00000072 	andeq	r0, r0, r2, ror r0

00009a18 <__FUNCTION__.4195>:
    9a18:	61746164 	cmnvs	r4, r4, ror #2
    9a1c:	6f62615f 	svcvs	0x0062615f
    9a20:	765f7472 			; <UNDEFINED> instruction: 0x765f7472
    9a24:	6f746365 	svcvs	0x00746365
    9a28:	00000072 	andeq	r0, r0, r2, ror r0
    9a2c:	494e4150 	stmdbmi	lr, {r4, r6, r8, lr}^
    9a30:	73253a43 	teqvc	r5, #274432	; 0x43000
    9a34:	3a73253a 	bcc	1cd2f24 <__bss_end__+0x1cc902c>
    9a38:	453a6425 	ldrmi	r6, [sl, #-1061]!	; 0x425
    9a3c:	524f5252 	subpl	r5, pc, #536870917	; 0x20000005
    9a40:	6e75203a 	mrcvs	0, 3, r2, cr5, cr10, {1}
    9a44:	646e6168 	strbtvs	r6, [lr], #-360	; 0x168
    9a48:	2064656c 	rsbcs	r6, r4, ip, ror #10
    9a4c:	65637865 	strbvs	r7, [r3, #-2149]!	; 0x865
    9a50:	6f697470 	svcvs	0x00697470
    9a54:	253c206e 	ldrcs	r2, [ip, #-110]!	; 0x6e
    9a58:	61203e73 	teqvs	r0, r3, ror lr
    9a5c:	43502074 	cmpmi	r0, #116	; 0x74
    9a60:	0a78253d 	beq	1e12f5c <__bss_end__+0x1e09064>
    9a64:	0000000a 	andeq	r0, r0, sl
    9a68:	34317363 	ldrtcc	r7, [r1], #-867	; 0x363
    9a6c:	692d6530 	pushvs	{r4, r5, r8, sl, sp, lr}
    9a70:	7265746e 	rsbvc	r7, r5, #1845493760	; 0x6e000000
    9a74:	74707572 	ldrbtvc	r7, [r0], #-1394	; 0x572
    9a78:	746e692f 	strbtvc	r6, [lr], #-2351	; 0x92f
    9a7c:	75727265 	ldrbvc	r7, [r2, #-613]!	; 0x265
    9a80:	2d737470 	cfldrdcs	mvd7, [r3, #-448]!	; 0xfffffe40
    9a84:	00632e63 	rsbeq	r2, r3, r3, ror #28
    9a88:	74736166 	ldrbtvc	r6, [r3], #-358	; 0x166
    9a8c:	00000000 	andeq	r0, r0, r0
    9a90:	74666f73 	strbtvc	r6, [r6], #-3955	; 0xf73
    9a94:	746e6920 	strbtvc	r6, [lr], #-2336	; 0x920
    9a98:	75727265 	ldrbvc	r7, [r2, #-613]!	; 0x265
    9a9c:	00007470 	andeq	r7, r0, r0, ror r4
    9aa0:	65736572 	ldrbvs	r6, [r3, #-1394]!	; 0x572
    9aa4:	65762074 	ldrbvs	r2, [r6, #-116]!	; 0x74
    9aa8:	726f7463 	rsbvc	r7, pc, #1660944384	; 0x63000000
    9aac:	00000000 	andeq	r0, r0, r0
    9ab0:	65646e75 	strbvs	r6, [r4, #-3701]!	; 0xe75
    9ab4:	656e6966 	strbvs	r6, [lr, #-2406]!	; 0x966
    9ab8:	6e692064 	cdpvs	0, 6, cr2, cr9, cr4, {3}
    9abc:	75727473 	ldrbvc	r7, [r2, #-1139]!	; 0x473
    9ac0:	6f697463 	svcvs	0x00697463
    9ac4:	0000006e 	andeq	r0, r0, lr, rrx
    9ac8:	66657270 			; <UNDEFINED> instruction: 0x66657270
    9acc:	68637465 	stmdavs	r3!, {r0, r2, r5, r6, sl, ip, sp, lr}^
    9ad0:	6f626120 	svcvs	0x00626120
    9ad4:	00007472 	andeq	r7, r0, r2, ror r4
    9ad8:	61746164 	cmnvs	r4, r4, ror #2
    9adc:	6f626120 	svcvs	0x00626120
    9ae0:	00007472 	andeq	r7, r0, r2, ror r4

Disassembly of section .bss:

00009ae4 <__bss_start__>:
    9ae4:	00000000 	andeq	r0, r0, r0

00009ae8 <n_falling_edge>:
    9ae8:	00000000 	andeq	r0, r0, r0

00009aec <n_interrupt>:
    9aec:	00000000 	andeq	r0, r0, r0

00009af0 <ninterrupt>:
    9af0:	00000000 	andeq	r0, r0, r0

00009af4 <buf.4150>:
	...

00009ef4 <rpi_arm_timer_t>:
    9ef4:	00000000 	andeq	r0, r0, r0

Disassembly of section .ARM.attributes:

00000000 <.ARM.attributes>:
   0:	00002a41 	andeq	r2, r0, r1, asr #20
   4:	61656100 	cmnvs	r5, r0, lsl #2
   8:	01006962 	tsteq	r0, r2, ror #18
   c:	00000020 	andeq	r0, r0, r0, lsr #32
  10:	4b5a3605 	blmi	168d82c <__bss_end__+0x1683934>
  14:	08070600 	stmdaeq	r7, {r9, sl}
  18:	12010901 	andne	r0, r1, #16384	; 0x4000
  1c:	15011404 	strne	r1, [r1, #-1028]	; 0x404
  20:	18031701 	stmdane	r3, {r0, r8, r9, sl, ip}
  24:	22011a01 	andcs	r1, r1, #4096	; 0x1000
  28:	Address 0x0000000000000028 is out of bounds.


Disassembly of section .comment:

00000000 <.comment>:
   0:	3a434347 	bcc	10d0d24 <__bss_end__+0x10c6e2c>
   4:	4e472820 	cdpmi	8, 4, cr2, cr7, cr0, {1}
   8:	34202955 	strtcc	r2, [r0], #-2389	; 0x955
   c:	332e382e 	teqcc	lr, #3014656	; 0x2e0000
	...

Disassembly of section .debug_info:

00000000 <.debug_info>:
       0:	000008c3 	andeq	r0, r0, r3, asr #17
       4:	00000004 	andeq	r0, r0, r4
       8:	01040000 	mrseq	r0, (UNDEF: 4)
       c:	00000065 	andeq	r0, r0, r5, rrx
      10:	00021b01 	andeq	r1, r2, r1, lsl #22
      14:	0002af00 	andeq	sl, r2, r0, lsl #30
      18:	00801000 	addeq	r1, r0, r0
      1c:	00043400 	andeq	r3, r4, r0, lsl #8
      20:	00000000 	andeq	r0, r0, r0
      24:	05040200 	streq	r0, [r4, #-512]	; 0x200
      28:	00746e69 	rsbseq	r6, r4, r9, ror #28
      2c:	35070403 	strcc	r0, [r7, #-1027]	; 0x403
      30:	03000002 	movweq	r0, #2
      34:	01200601 	teqeq	r0, r1, lsl #12
      38:	02030000 	andeq	r0, r3, #0
      3c:	00029005 	andeq	r9, r2, r5
      40:	05040300 	streq	r0, [r4, #-768]	; 0x300
      44:	0000027c 	andeq	r0, r0, ip, ror r2
      48:	77050803 	strvc	r0, [r5, -r3, lsl #16]
      4c:	03000002 	movweq	r0, #2
      50:	011e0801 	tsteq	lr, r1, lsl #16
      54:	02030000 	andeq	r0, r3, #0
      58:	00015a07 	andeq	r5, r1, r7, lsl #20
      5c:	07040300 	streq	r0, [r4, -r0, lsl #6]
      60:	00000230 	andeq	r0, r0, r0, lsr r2
      64:	2b070803 	blcs	1c2078 <__bss_end__+0x1b8180>
      68:	03000002 	movweq	r0, #2
      6c:	025c0704 	subseq	r0, ip, #4, 14	; 0x100000
      70:	01030000 	mrseq	r0, (UNDEF: 3)
      74:	00012708 	andeq	r2, r1, r8, lsl #14
      78:	7f040400 	svcvc	0x00040400
      7c:	05000000 	streq	r0, [r0, #-0]
      80:	00000072 	andeq	r0, r0, r2, ror r0
      84:	37020106 	strcc	r0, [r2, -r6, lsl #2]
      88:	000000a5 	andeq	r0, r0, r5, lsr #1
      8c:	00002d07 	andeq	r2, r0, r7, lsl #26
      90:	37073100 	strcc	r3, [r7, -r0, lsl #2]
      94:	32000000 	andcc	r0, r0, #0
      98:	00004107 	andeq	r4, r0, r7, lsl #2
      9c:	4b073300 	blmi	1ccca4 <__bss_end__+0x1c2dac>
      a0:	34000000 	strcc	r0, [r0], #-0
      a4:	03040600 	movweq	r0, #17920	; 0x4600
      a8:	00011233 	andeq	r1, r1, r3, lsr r2
      ac:	01b10700 			; <UNDEFINED> instruction: 0x01b10700
      b0:	e8800000 	stm	r0, {}	; <UNPREDICTABLE>
      b4:	07028082 	streq	r8, [r2, -r2, lsl #1]
      b8:	0000033a 	andeq	r0, r0, sl, lsr r3
      bc:	8082e880 	addhi	lr, r2, r0, lsl #17
      c0:	01e70702 	mvneq	r0, r2, lsl #14
      c4:	e8840000 	stm	r4, {}	; <UNPREDICTABLE>
      c8:	07028082 	streq	r8, [r2, -r2, lsl #1]
      cc:	00000265 	andeq	r0, r0, r5, ror #4
      d0:	8082e888 	addhi	lr, r2, r8, lsl #17
      d4:	02080702 	andeq	r0, r8, #524288	; 0x80000
      d8:	e88c0000 	stm	ip, {}	; <UNPREDICTABLE>
      dc:	07028082 	streq	r8, [r2, -r2, lsl #1]
      e0:	000001c0 	andeq	r0, r0, r0, asr #3
      e4:	8082e890 	umullhi	lr, r2, r0, r8
      e8:	00bc0702 	adcseq	r0, ip, r2, lsl #14
      ec:	e8940000 	ldm	r4, {}	; <UNPREDICTABLE>
      f0:	07028082 	streq	r8, [r2, -r2, lsl #1]
      f4:	00000352 	andeq	r0, r0, r2, asr r3
      f8:	8082e898 	umullhi	lr, r2, r8, r8
      fc:	00ff0702 	rscseq	r0, pc, r2, lsl #14
     100:	e89c0000 	ldm	ip, {}	; <UNPREDICTABLE>
     104:	07028082 	streq	r8, [r2, -r2, lsl #1]
     108:	000000d8 	ldrdeq	r0, [r0], -r8
     10c:	8082e8a0 	addhi	lr, r2, r0, lsr #17
     110:	2c080002 	stccs	0, cr0, [r8], {2}
     114:	06000000 	streq	r0, [r0], -r0
     118:	2c0d0101 	stfcss	f0, [sp], {1}
     11c:	07000001 	streq	r0, [r0, -r1]
     120:	00000199 	muleq	r0, r9, r1
     124:	017c0715 	cmneq	ip, r5, lsl r7
     128:	00140000 	andseq	r0, r4, r0
     12c:	00014809 	andeq	r4, r1, r9, lsl #16
     130:	10260100 	eorne	r0, r6, r0, lsl #2
     134:	b4000080 	strlt	r0, [r0], #-128	; 0x80
     138:	01000000 	mrseq	r0, (UNDEF: 0)
     13c:	00023b9c 	muleq	r2, ip, fp
     140:	00740a00 	rsbseq	r0, r4, r0, lsl #20
     144:	002c2601 	eoreq	r2, ip, r1, lsl #12
     148:	00000000 	andeq	r0, r0, r0
     14c:	d10b0000 	mrsle	r0, (UNDEF: 11)
     150:	4b000001 	blmi	15c <_start-0x7ea4>
     154:	05000002 	streq	r0, [r0, #-2]
     158:	0095e403 	addseq	lr, r5, r3, lsl #8
     15c:	80200c00 	eorhi	r0, r0, r0, lsl #24
     160:	07ee0000 	strbeq	r0, [lr, r0]!
     164:	01740000 	cmneq	r4, r0
     168:	010d0000 	mrseq	r0, (UNDEF: 13)
     16c:	1c030550 	cfstr32ne	mvfx0, [r3], {80}	; 0x50
     170:	00000096 	muleq	r0, r6, r0
     174:	0080440c 	addeq	r4, r0, ip, lsl #8
     178:	0007ee00 	andeq	lr, r7, r0, lsl #28
     17c:	0001a300 	andeq	sl, r1, r0, lsl #6
     180:	53010d00 	movwpl	r0, #7424	; 0x1d00
     184:	0d280802 	stceq	8, cr0, [r8, #-8]!
     188:	03055201 	movweq	r5, #20993	; 0x5201
     18c:	000095e4 	andeq	r9, r0, r4, ror #11
     190:	0551010d 	ldrbeq	r0, [r1, #-269]	; 0x10d
     194:	00967003 	addseq	r7, r6, r3
     198:	50010d00 	andpl	r0, r1, r0, lsl #26
     19c:	96500305 	ldrbls	r0, [r0], -r5, lsl #6
     1a0:	0e000000 	cdpeq	0, 0, cr0, cr0, cr0, {0}
     1a4:	00008048 	andeq	r8, r0, r8, asr #32
     1a8:	00000804 	andeq	r0, r0, r4, lsl #16
     1ac:	0080500c 	addeq	r5, r0, ip
     1b0:	0007ee00 	andeq	lr, r7, r0, lsl #28
     1b4:	0001c300 	andeq	ip, r1, r0, lsl #6
     1b8:	50010d00 	andpl	r0, r1, r0, lsl #26
     1bc:	96800305 	strls	r0, [r0], r5, lsl #6
     1c0:	0c000000 	stceq	0, cr0, [r0], {-0}
     1c4:	0000805c 	andeq	r8, r0, ip, asr r0
     1c8:	0000080b 	andeq	r0, r0, fp, lsl #16
     1cc:	000001db 	ldrdeq	r0, [r0], -fp
     1d0:	0151010d 	cmpeq	r1, sp, lsl #2
     1d4:	50010d31 	andpl	r0, r1, r1, lsr sp
     1d8:	0c004501 	cfstr32eq	mvfx4, [r0], {1}
     1dc:	00008064 	andeq	r8, r0, r4, rrx
     1e0:	00000821 	andeq	r0, r0, r1, lsr #16
     1e4:	000001ef 	andeq	r0, r0, pc, ror #3
     1e8:	0250010d 	subseq	r0, r0, #1073741827	; 0x40000003
     1ec:	0c000074 	stceq	0, cr0, [r0], {116}	; 0x74
     1f0:	00008088 	andeq	r8, r0, r8, lsl #1
     1f4:	000007ee 	andeq	r0, r0, lr, ror #15
     1f8:	0000021e 	andeq	r0, r0, lr, lsl r2
     1fc:	0253010d 	subseq	r0, r3, #1073741827	; 0x40000003
     200:	010d2e08 	tsteq	sp, r8, lsl #28
     204:	e4030552 	str	r0, [r3], #-1362	; 0x552
     208:	0d000095 	stceq	0, cr0, [r0, #-596]	; 0xfffffdac
     20c:	03055101 	movweq	r5, #20737	; 0x5101
     210:	00009670 	andeq	r9, r0, r0, ror r6
     214:	0550010d 	ldrbeq	r0, [r0, #-269]	; 0x10d
     218:	00969c03 	addseq	r9, r6, r3, lsl #24
     21c:	8c0e0000 	stchi	0, cr0, [lr], {-0}
     220:	04000080 	streq	r0, [r0], #-128	; 0x80
     224:	0f000008 	svceq	0x00000008
     228:	000080a0 	andeq	r8, r0, r0, lsr #1
     22c:	000007ee 	andeq	r0, r0, lr, ror #15
     230:	0550010d 	ldrbeq	r0, [r0, #-269]	; 0x10d
     234:	0096c003 	addseq	ip, r6, r3
     238:	10000000 	andne	r0, r0, r0
     23c:	00000072 	andeq	r0, r0, r2, ror r0
     240:	0000024b 	andeq	r0, r0, fp, asr #4
     244:	00006b11 	andeq	r6, r0, r1, lsl fp
     248:	05001100 	streq	r1, [r0, #-256]	; 0x100
     24c:	0000023b 	andeq	r0, r0, fp, lsr r2
     250:	00001b09 	andeq	r1, r0, r9, lsl #22
     254:	c4350100 	ldrtgt	r0, [r5], #-256	; 0x100
     258:	b4000080 	strlt	r0, [r0], #-128	; 0x80
     25c:	01000000 	mrseq	r0, (UNDEF: 0)
     260:	00035f9c 	muleq	r3, ip, pc	; <UNPREDICTABLE>
     264:	00740a00 	rsbseq	r0, r4, r0, lsl #20
     268:	002c3501 	eoreq	r3, ip, r1, lsl #10
     26c:	001e0000 	andseq	r0, lr, r0
     270:	d10b0000 	mrsle	r0, (UNDEF: 11)
     274:	5f000001 	svcpl	0x00000001
     278:	05000003 	streq	r0, [r0, #-3]
     27c:	0095f803 	addseq	pc, r5, r3, lsl #16
     280:	80d40c00 	sbcshi	r0, r4, r0, lsl #24
     284:	07ee0000 	strbeq	r0, [lr, r0]!
     288:	02980000 	addseq	r0, r8, #0
     28c:	010d0000 	mrseq	r0, (UNDEF: 13)
     290:	1c030550 	cfstr32ne	mvfx0, [r3], {80}	; 0x50
     294:	00000096 	muleq	r0, r6, r0
     298:	0080f80c 	addeq	pc, r0, ip, lsl #16
     29c:	0007ee00 	andeq	lr, r7, r0, lsl #28
     2a0:	0002c700 	andeq	ip, r2, r0, lsl #14
     2a4:	53010d00 	movwpl	r0, #7424	; 0x1d00
     2a8:	0d370802 	ldceq	8, cr0, [r7, #-8]!
     2ac:	03055201 	movweq	r5, #20993	; 0x5201
     2b0:	000095f8 	strdeq	r9, [r0], -r8
     2b4:	0551010d 	ldrbeq	r0, [r1, #-269]	; 0x10d
     2b8:	00967003 	addseq	r7, r6, r3
     2bc:	50010d00 	andpl	r0, r1, r0, lsl #26
     2c0:	96d00305 	ldrbls	r0, [r0], r5, lsl #6
     2c4:	0e000000 	cdpeq	0, 0, cr0, cr0, cr0, {0}
     2c8:	000080fc 	strdeq	r8, [r0], -ip
     2cc:	00000804 	andeq	r0, r0, r4, lsl #16
     2d0:	0081040c 	addeq	r0, r1, ip, lsl #8
     2d4:	0007ee00 	andeq	lr, r7, r0, lsl #28
     2d8:	0002e700 	andeq	lr, r2, r0, lsl #14
     2dc:	50010d00 	andpl	r0, r1, r0, lsl #26
     2e0:	96f00305 	ldrbtls	r0, [r0], r5, lsl #6
     2e4:	0c000000 	stceq	0, cr0, [r0], {-0}
     2e8:	00008110 	andeq	r8, r0, r0, lsl r1
     2ec:	0000080b 	andeq	r0, r0, fp, lsl #16
     2f0:	000002ff 	strdeq	r0, [r0], -pc	; <UNPREDICTABLE>
     2f4:	0151010d 	cmpeq	r1, sp, lsl #2
     2f8:	50010d30 	andpl	r0, r1, r0, lsr sp
     2fc:	0c004501 	cfstr32eq	mvfx4, [r0], {1}
     300:	00008118 	andeq	r8, r0, r8, lsl r1
     304:	00000821 	andeq	r0, r0, r1, lsr #16
     308:	00000313 	andeq	r0, r0, r3, lsl r3
     30c:	0250010d 	subseq	r0, r0, #1073741827	; 0x40000003
     310:	0c000074 	stceq	0, cr0, [r0], {116}	; 0x74
     314:	0000813c 	andeq	r8, r0, ip, lsr r1
     318:	000007ee 	andeq	r0, r0, lr, ror #15
     31c:	00000342 	andeq	r0, r0, r2, asr #6
     320:	0253010d 	subseq	r0, r3, #1073741827	; 0x40000003
     324:	010d3d08 	tsteq	sp, r8, lsl #26
     328:	f8030552 			; <UNDEFINED> instruction: 0xf8030552
     32c:	0d000095 	stceq	0, cr0, [r0, #-596]	; 0xfffffdac
     330:	03055101 	movweq	r5, #20737	; 0x5101
     334:	00009670 	andeq	r9, r0, r0, ror r6
     338:	0550010d 	ldrbeq	r0, [r0, #-269]	; 0x10d
     33c:	00970c03 	addseq	r0, r7, r3, lsl #24
     340:	400e0000 	andmi	r0, lr, r0
     344:	04000081 	streq	r0, [r0], #-129	; 0x81
     348:	0f000008 	svceq	0x00000008
     34c:	00008154 	andeq	r8, r0, r4, asr r1
     350:	000007ee 	andeq	r0, r0, lr, ror #15
     354:	0550010d 	ldrbeq	r0, [r0, #-269]	; 0x10d
     358:	00973003 	addseq	r3, r7, r3
     35c:	05000000 	streq	r0, [r0, #-0]
     360:	0000023b 	andeq	r0, r0, fp, lsr r2
     364:	00000009 	andeq	r0, r0, r9
     368:	78460100 	stmdavc	r6, {r8}^
     36c:	e8000081 	stmda	r0, {r0, r7}
     370:	01000001 	tsteq	r0, r1
     374:	0006189c 	muleq	r6, ip, r8
     378:	00740a00 	rsbseq	r0, r4, r0, lsl #20
     37c:	002c4601 	eoreq	r4, ip, r1, lsl #12
     380:	003c0000 	eorseq	r0, ip, r0
     384:	69120000 	ldmdbvs	r2, {}	; <UNPREDICTABLE>
     388:	25480100 	strbcs	r0, [r8, #-256]	; 0x100
     38c:	5a000000 	bpl	394 <_start-0x7c6c>
     390:	13000000 	movwne	r0, #0
     394:	4901006e 	stmdbmi	r1, {r1, r2, r3, r5, r6}
     398:	0000002c 	andeq	r0, r0, ip, lsr #32
     39c:	01d10b0a 	bicseq	r0, r1, sl, lsl #22
     3a0:	06280000 	strteq	r0, [r8], -r0
     3a4:	03050000 	movweq	r0, #20480	; 0x5000
     3a8:	0000960c 	andeq	r9, r0, ip, lsl #12
     3ac:	00000014 	andeq	r0, r0, r4, lsl r0
     3b0:	00050400 	andeq	r0, r5, r0, lsl #8
     3b4:	00621200 	rsbeq	r1, r2, r0, lsl #4
     3b8:	002c4e01 	eoreq	r4, ip, r1, lsl #28
     3bc:	00780000 	rsbseq	r0, r8, r0
     3c0:	e80c0000 	stmda	ip, {}	; <UNPREDICTABLE>
     3c4:	ee000081 	cdp	0, 0, cr0, cr0, cr1, {4}
     3c8:	dc000007 	stcle	0, cr0, [r0], {7}
     3cc:	0d000003 	stceq	0, cr0, [r0, #-12]
     3d0:	76025101 	strvc	r5, [r2], -r1, lsl #2
     3d4:	50010d00 	andpl	r0, r1, r0, lsl #26
     3d8:	00007902 	andeq	r7, r0, r2, lsl #18
     3dc:	0081f40c 	addeq	pc, r1, ip, lsl #8
     3e0:	00080b00 	andeq	r0, r8, r0, lsl #22
     3e4:	0003f400 	andeq	pc, r3, r0, lsl #8
     3e8:	51010d00 	tstpl	r1, r0, lsl #26
     3ec:	010d3101 	tsteq	sp, r1, lsl #2
     3f0:	00450150 	subeq	r0, r5, r0, asr r1
     3f4:	0081fc0c 	addeq	pc, r1, ip, lsl #24
     3f8:	00082100 	andeq	r2, r8, r0, lsl #2
     3fc:	00040800 	andeq	r0, r4, r0, lsl #16
     400:	50010d00 	andpl	r0, r1, r0, lsl #26
     404:	00007702 	andeq	r7, r0, r2, lsl #14
     408:	0082080c 	addeq	r0, r2, ip, lsl #16
     40c:	0007ee00 	andeq	lr, r7, r0, lsl #28
     410:	00041c00 	andeq	r1, r4, r0, lsl #24
     414:	50010d00 	andpl	r0, r1, r0, lsl #26
     418:	00007802 	andeq	r7, r0, r2, lsl #16
     41c:	00822c0c 	addeq	r2, r2, ip, lsl #24
     420:	0007ee00 	andeq	lr, r7, r0, lsl #28
     424:	00044b00 	andeq	r4, r4, r0, lsl #22
     428:	53010d00 	movwpl	r0, #7424	; 0x1d00
     42c:	0d560802 	ldcleq	8, cr0, [r6, #-8]
     430:	03055201 	movweq	r5, #20993	; 0x5201
     434:	0000960c 	andeq	r9, r0, ip, lsl #12
     438:	0551010d 	ldrbeq	r0, [r1, #-269]	; 0x10d
     43c:	00967003 	addseq	r7, r6, r3
     440:	50010d00 	andpl	r0, r1, r0, lsl #26
     444:	97780305 	ldrbls	r0, [r8, -r5, lsl #6]!
     448:	0e000000 	cdpeq	0, 0, cr0, cr0, cr0, {0}
     44c:	00008230 	andeq	r8, r0, r0, lsr r2
     450:	00000804 	andeq	r0, r0, r4, lsl #16
     454:	00823c0c 	addeq	r3, r2, ip, lsl #24
     458:	0007ee00 	andeq	lr, r7, r0, lsl #28
     45c:	00046e00 	andeq	r6, r4, r0, lsl #28
     460:	51010d00 	tstpl	r1, r0, lsl #26
     464:	0d007502 	cfstr32eq	mvfx7, [r0, #-8]
     468:	7b025001 	blvc	94474 <__bss_end__+0x8a57c>
     46c:	4c0c0000 	stcmi	0, cr0, [ip], {-0}
     470:	ee000082 	cdp	0, 0, cr0, cr0, cr2, {4}
     474:	88000007 	stmdahi	r0, {r0, r1, r2}
     478:	0d000004 	stceq	0, cr0, [r0, #-16]
     47c:	76025101 	strvc	r5, [r2], -r1, lsl #2
     480:	50010d00 	andpl	r0, r1, r0, lsl #26
     484:	00007a02 	andeq	r7, r0, r2, lsl #20
     488:	0082580c 	addeq	r5, r2, ip, lsl #16
     48c:	00080b00 	andeq	r0, r8, r0, lsl #22
     490:	0004a000 	andeq	sl, r4, r0
     494:	51010d00 	tstpl	r1, r0, lsl #26
     498:	010d3001 	tsteq	sp, r1
     49c:	00450150 	subeq	r0, r5, r0, asr r1
     4a0:	0082600c 	addeq	r6, r2, ip
     4a4:	00082100 	andeq	r2, r8, r0, lsl #2
     4a8:	0004b400 	andeq	fp, r4, r0, lsl #8
     4ac:	50010d00 	andpl	r0, r1, r0, lsl #26
     4b0:	00007702 	andeq	r7, r0, r2, lsl #14
     4b4:	00826c0c 	addeq	r6, r2, ip, lsl #24
     4b8:	0007ee00 	andeq	lr, r7, r0, lsl #28
     4bc:	0004cb00 	andeq	ip, r4, r0, lsl #22
     4c0:	50010d00 	andpl	r0, r1, r0, lsl #26
     4c4:	97d40305 	ldrbls	r0, [r4, r5, lsl #6]
     4c8:	0c000000 	stceq	0, cr0, [r0], {-0}
     4cc:	00008290 	muleq	r0, r0, r2
     4d0:	000007ee 	andeq	r0, r0, lr, ror #15
     4d4:	000004fa 	strdeq	r0, [r0], -sl
     4d8:	0253010d 	subseq	r0, r3, #1073741827	; 0x40000003
     4dc:	010d5f08 	tsteq	sp, r8, lsl #30
     4e0:	0c030552 	cfstr32eq	mvfx0, [r3], {82}	; 0x52
     4e4:	0d000096 	stceq	0, cr0, [r0, #-600]	; 0xfffffda8
     4e8:	03055101 	movweq	r5, #20737	; 0x5101
     4ec:	00009670 	andeq	r9, r0, r0, ror r6
     4f0:	0550010d 	ldrbeq	r0, [r0, #-269]	; 0x10d
     4f4:	0097ec03 	addseq	lr, r7, r3, lsl #24
     4f8:	940e0000 	strls	r0, [lr], #-0
     4fc:	04000082 	streq	r0, [r0], #-130	; 0x82
     500:	00000008 	andeq	r0, r0, r8
     504:	0081880c 	addeq	r8, r1, ip, lsl #16
     508:	0007ee00 	andeq	lr, r7, r0, lsl #28
     50c:	00051b00 	andeq	r1, r5, r0, lsl #22
     510:	50010d00 	andpl	r0, r1, r0, lsl #26
     514:	961c0305 	ldrls	r0, [ip], -r5, lsl #6
     518:	0c000000 	stceq	0, cr0, [r0], {-0}
     51c:	000081ac 	andeq	r8, r0, ip, lsr #3
     520:	000007ee 	andeq	r0, r0, lr, ror #15
     524:	0000054a 	andeq	r0, r0, sl, asr #10
     528:	0253010d 	subseq	r0, r3, #1073741827	; 0x40000003
     52c:	010d4b08 	tsteq	sp, r8, lsl #22
     530:	0c030552 	cfstr32eq	mvfx0, [r3], {82}	; 0x52
     534:	0d000096 	stceq	0, cr0, [r0, #-600]	; 0xfffffda8
     538:	03055101 	movweq	r5, #20737	; 0x5101
     53c:	00009670 	andeq	r9, r0, r0, ror r6
     540:	0550010d 	ldrbeq	r0, [r0, #-269]	; 0x10d
     544:	0096d003 	addseq	sp, r6, r3
     548:	b00e0000 	andlt	r0, lr, r0
     54c:	04000081 	streq	r0, [r0], #-129	; 0x81
     550:	0c000008 	stceq	0, cr0, [r0], {8}
     554:	000081d4 	ldrdeq	r8, [r0], -r4
     558:	000007ee 	andeq	r0, r0, lr, ror #15
     55c:	00000582 	andeq	r0, r0, r2, lsl #11
     560:	0253010d 	subseq	r0, r3, #1073741827	; 0x40000003
     564:	010d4c08 	tsteq	sp, r8, lsl #24
     568:	0c030552 	cfstr32eq	mvfx0, [r3], {82}	; 0x52
     56c:	0d000096 	stceq	0, cr0, [r0, #-600]	; 0xfffffda8
     570:	03055101 	movweq	r5, #20737	; 0x5101
     574:	00009670 	andeq	r9, r0, r0, ror r6
     578:	0550010d 	ldrbeq	r0, [r0, #-269]	; 0x10d
     57c:	00965003 	addseq	r5, r6, r3
     580:	d80e0000 	stmdale	lr, {}	; <UNPREDICTABLE>
     584:	04000081 	streq	r0, [r0], #-129	; 0x81
     588:	0c000008 	stceq	0, cr0, [r0], {8}
     58c:	000082d4 	ldrdeq	r8, [r0], -r4
     590:	000007ee 	andeq	r0, r0, lr, ror #15
     594:	000005a7 	andeq	r0, r0, r7, lsr #11
     598:	0151010d 	cmpeq	r1, sp, lsl #2
     59c:	50010d3a 	andpl	r0, r1, sl, lsr sp
     5a0:	98140305 	ldmdals	r4, {r0, r2, r8, r9}
     5a4:	0c000000 	stceq	0, cr0, [r0], {-0}
     5a8:	000082f4 	strdeq	r8, [r0], -r4
     5ac:	000007ee 	andeq	r0, r0, lr, ror #15
     5b0:	000005d6 	ldrdeq	r0, [r0], -r6
     5b4:	0253010d 	subseq	r0, r3, #1073741827	; 0x40000003
     5b8:	010d6308 	tsteq	sp, r8, lsl #6
     5bc:	0c030552 	cfstr32eq	mvfx0, [r3], {82}	; 0x52
     5c0:	0d000096 	stceq	0, cr0, [r0, #-600]	; 0xfffffda8
     5c4:	03055101 	movweq	r5, #20737	; 0x5101
     5c8:	00009670 	andeq	r9, r0, r0, ror r6
     5cc:	0550010d 	ldrbeq	r0, [r0, #-269]	; 0x10d
     5d0:	00983803 	addseq	r3, r8, r3, lsl #16
     5d4:	f80e0000 			; <UNDEFINED> instruction: 0xf80e0000
     5d8:	04000082 	streq	r0, [r0], #-130	; 0x82
     5dc:	0c000008 	stceq	0, cr0, [r0], {8}
     5e0:	0000831c 	andeq	r8, r0, ip, lsl r3
     5e4:	000007ee 	andeq	r0, r0, lr, ror #15
     5e8:	0000060e 	andeq	r0, r0, lr, lsl #12
     5ec:	0253010d 	subseq	r0, r3, #1073741827	; 0x40000003
     5f0:	010d6408 	tsteq	sp, r8, lsl #8
     5f4:	0c030552 	cfstr32eq	mvfx0, [r3], {82}	; 0x52
     5f8:	0d000096 	stceq	0, cr0, [r0, #-600]	; 0xfffffda8
     5fc:	03055101 	movweq	r5, #20737	; 0x5101
     600:	00009670 	andeq	r9, r0, r0, ror r6
     604:	0550010d 	ldrbeq	r0, [r0, #-269]	; 0x10d
     608:	00985c03 	addseq	r5, r8, r3, lsl #24
     60c:	200e0000 	andcs	r0, lr, r0
     610:	04000083 	streq	r0, [r0], #-131	; 0x83
     614:	00000008 	andeq	r0, r0, r8
     618:	00007210 	andeq	r7, r0, r0, lsl r2
     61c:	00062800 	andeq	r2, r6, r0, lsl #16
     620:	006b1100 	rsbeq	r1, fp, r0, lsl #2
     624:	000f0000 	andeq	r0, pc, r0
     628:	00061805 	andeq	r1, r6, r5, lsl #16
     62c:	089d1500 	ldmeq	sp, {r8, sl, ip}
     630:	11010000 	mrsne	r0, (UNDEF: 1)
     634:	00008360 	andeq	r8, r0, r0, ror #6
     638:	00000084 	andeq	r0, r0, r4, lsl #1
     63c:	06ae9c01 	strteq	r9, [lr], r1, lsl #24
     640:	700a0000 	andvc	r0, sl, r0
     644:	11010063 	tstne	r1, r3, rrx
     648:	0000002c 	andeq	r0, r0, ip, lsr #32
     64c:	000000b0 	strheq	r0, [r0], -r0	; <UNPREDICTABLE>
     650:	00837c0c 	addeq	r7, r3, ip, lsl #24
     654:	00083200 	andeq	r3, r8, r0, lsl #4
     658:	00066400 	andeq	r6, r6, r0, lsl #8
     65c:	50010d00 	andpl	r0, r1, r0, lsl #26
     660:	00310802 	eorseq	r0, r1, r2, lsl #16
     664:	00838c0c 	addeq	r8, r3, ip, lsl #24
     668:	00083200 	andeq	r3, r8, r0, lsl #4
     66c:	00067800 	andeq	r7, r6, r0, lsl #16
     670:	50010d00 	andpl	r0, r1, r0, lsl #26
     674:	00320802 	eorseq	r0, r2, r2, lsl #16
     678:	00839c0c 	addeq	r9, r3, ip, lsl #24
     67c:	00084700 	andeq	r4, r8, r0, lsl #14
     680:	00068b00 	andeq	r8, r6, r0, lsl #22
     684:	50010d00 	andpl	r0, r1, r0, lsl #26
     688:	0c004401 	cfstrseq	mvf4, [r0], {1}
     68c:	000083c0 	andeq	r8, r0, r0, asr #7
     690:	00000847 	andeq	r0, r0, r7, asr #16
     694:	0000069e 	muleq	r0, lr, r6
     698:	0150010d 	cmpeq	r0, sp, lsl #2
     69c:	dc0f0044 	stcle	0, cr0, [pc], {68}	; 0x44
     6a0:	5c000083 	stcpl	0, cr0, [r0], {131}	; 0x83
     6a4:	0d000008 	stceq	0, cr0, [r0, #-32]	; 0xffffffe0
     6a8:	44015001 	strmi	r5, [r1], #-1
     6ac:	d0160000 	andsle	r0, r6, r0
     6b0:	01000000 	mrseq	r0, (UNDEF: 0)
     6b4:	0083e467 	addeq	lr, r3, r7, ror #8
     6b8:	00006000 	andeq	r6, r0, r0
     6bc:	949c0100 	ldrls	r0, [ip], #256	; 0x100
     6c0:	17000007 	strne	r0, [r0, -r7]
     6c4:	76010074 			; <UNDEFINED> instruction: 0x76010074
     6c8:	0000002c 	andeq	r0, r0, ip, lsr #32
     6cc:	0007a120 	andeq	sl, r7, r0, lsr #2
     6d0:	0083ec0e 	addeq	lr, r3, lr, lsl #24
     6d4:	00086d00 	andeq	r6, r8, r0, lsl #26
     6d8:	83f00e00 	mvnshi	r0, #0, 28
     6dc:	08740000 	ldmdaeq	r4!, {}^	; <UNPREDICTABLE>
     6e0:	f80c0000 			; <UNDEFINED> instruction: 0xf80c0000
     6e4:	7b000083 	blvc	8f8 <_start-0x7708>
     6e8:	f5000008 			; <UNDEFINED> instruction: 0xf5000008
     6ec:	0d000006 	stceq	0, cr0, [r0, #-24]	; 0xffffffe8
     6f0:	45015001 	strmi	r5, [r1, #-1]
     6f4:	84000c00 	strhi	r0, [r0], #-3072	; 0xc00
     6f8:	088c0000 	stmeq	ip, {}	; <UNPREDICTABLE>
     6fc:	07080000 	streq	r0, [r8, -r0]
     700:	010d0000 	mrseq	r0, (UNDEF: 13)
     704:	00440150 	subeq	r0, r4, r0, asr r1
     708:	0084080c 	addeq	r0, r4, ip, lsl #16
     70c:	00089d00 	andeq	r9, r8, r0, lsl #26
     710:	00071b00 	andeq	r1, r7, r0, lsl #22
     714:	50010d00 	andpl	r0, r1, r0, lsl #26
     718:	0c004401 	cfstrseq	mvf4, [r0], {1}
     71c:	00008410 	andeq	r8, r0, r0, lsl r4
     720:	000008ae 	andeq	r0, r0, lr, lsr #17
     724:	0000072e 	andeq	r0, r0, lr, lsr #14
     728:	0150010d 	cmpeq	r0, sp, lsl #2
     72c:	140e0044 	strne	r0, [lr], #-68	; 0x44
     730:	bf000084 	svclt	0x00000084
     734:	0c000008 	stceq	0, cr0, [r0], {8}
     738:	00008420 	andeq	r8, r0, r0, lsr #8
     73c:	0000012c 	andeq	r0, r0, ip, lsr #2
     740:	0000074b 	andeq	r0, r0, fp, asr #14
     744:	0250010d 	subseq	r0, r0, #1073741827	; 0x40000003
     748:	0c000074 	stceq	0, cr0, [r0], {116}	; 0x74
     74c:	00008428 	andeq	r8, r0, r8, lsr #8
     750:	00000250 	andeq	r0, r0, r0, asr r2
     754:	0000075f 	andeq	r0, r0, pc, asr r7
     758:	0250010d 	subseq	r0, r0, #1073741827	; 0x40000003
     75c:	0c000074 	stceq	0, cr0, [r0], {116}	; 0x74
     760:	00008430 	andeq	r8, r0, r0, lsr r4
     764:	00000364 	andeq	r0, r0, r4, ror #6
     768:	00000773 	andeq	r0, r0, r3, ror r7
     76c:	0250010d 	subseq	r0, r0, #1073741827	; 0x40000003
     770:	0c000074 	stceq	0, cr0, [r0], {116}	; 0x74
     774:	00008438 	andeq	r8, r0, r8, lsr r4
     778:	000007ee 	andeq	r0, r0, lr, ror #15
     77c:	0000078a 	andeq	r0, r0, sl, lsl #15
     780:	0550010d 	ldrbeq	r0, [r0, #-269]	; 0x10d
     784:	00988003 	addseq	r8, r8, r3
     788:	3c0e0000 	stccc	0, cr0, [lr], {-0}
     78c:	04000084 	streq	r0, [r0], #-132	; 0x84
     790:	00000008 	andeq	r0, r0, r8
     794:	00028518 	andeq	r8, r2, r8, lsl r5
     798:	a50b0100 	strge	r0, [fp, #-256]	; 0x100
     79c:	05000007 	streq	r0, [r0, #-7]
     7a0:	009af003 	addseq	pc, sl, r3
     7a4:	00250800 	eoreq	r0, r5, r0, lsl #16
     7a8:	4e180000 	cdpmi	0, 1, cr0, cr8, cr0, {0}
     7ac:	01000002 	tsteq	r0, r2
     7b0:	0001120e 	andeq	r1, r1, lr, lsl #4
     7b4:	e4030500 	str	r0, [r3], #-1280	; 0x500
     7b8:	1800009a 	stmdane	r0, {r1, r3, r4, r7}
     7bc:	0000012c 	andeq	r0, r0, ip, lsr #2
     7c0:	01120e01 	tsteq	r2, r1, lsl #28
     7c4:	03050000 	movweq	r0, #20480	; 0x5000
     7c8:	00009ae8 	andeq	r9, r0, r8, ror #21
     7cc:	00024218 	andeq	r4, r2, r8, lsl r2
     7d0:	120e0100 	andne	r0, lr, #0, 2
     7d4:	05000001 	streq	r0, [r0, #-1]
     7d8:	009aec03 	addseq	lr, sl, r3, lsl #24
     7dc:	00551900 	subseq	r1, r5, r0, lsl #18
     7e0:	80030000 	andhi	r0, r3, r0
     7e4:	000000a5 	andeq	r0, r0, r5, lsr #1
     7e8:	9ef40305 	cdpls	3, 15, cr0, cr4, cr5, {0}
     7ec:	831a0000 	tsthi	sl, #0
     7f0:	04000003 	streq	r0, [r0], #-3
     7f4:	00002527 	andeq	r2, r0, r7, lsr #10
     7f8:	00080400 	andeq	r0, r8, r0, lsl #8
     7fc:	00791b00 	rsbseq	r1, r9, r0, lsl #22
     800:	001c0000 	andseq	r0, ip, r0
     804:	00013b1d 	andeq	r3, r1, sp, lsl fp
     808:	1e630400 	cdpne	4, 6, cr0, cr3, cr0, {0}
     80c:	00000010 	andeq	r0, r0, r0, lsl r0
     810:	08212102 	stmdaeq	r1!, {r1, r8, sp}
     814:	2c1b0000 	ldccs	0, cr0, [fp], {-0}
     818:	1b000000 	blne	820 <_start-0x77e0>
     81c:	0000002c 	andeq	r0, r0, ip, lsr #32
     820:	01de1e00 	bicseq	r1, lr, r0, lsl #28
     824:	4b040000 	blmi	10082c <__bss_end__+0xf6934>
     828:	00000832 	andeq	r0, r0, r2, lsr r8
     82c:	00002c1b 	andeq	r2, r0, fp, lsl ip
     830:	2e1a0000 	cdpcs	0, 1, cr0, cr10, cr0, {0}
     834:	02000003 	andeq	r0, r0, #3
     838:	00002538 	andeq	r2, r0, r8, lsr r5
     83c:	00084700 	andeq	r4, r8, r0, lsl #14
     840:	002c1b00 	eoreq	r1, ip, r0, lsl #22
     844:	1a000000 	bne	84c <_start-0x77b4>
     848:	00000114 	andeq	r0, r0, r4, lsl r1
     84c:	00252402 	eoreq	r2, r5, r2, lsl #8
     850:	085c0000 	ldmdaeq	ip, {}^	; <UNPREDICTABLE>
     854:	2c1b0000 	ldccs	0, cr0, [fp], {-0}
     858:	00000000 	andeq	r0, r0, r0
     85c:	0001f71e 	andeq	pc, r1, lr, lsl r7	; <UNPREDICTABLE>
     860:	6d4e0200 	sfmvs	f0, 2, [lr, #-0]
     864:	1b000008 	blne	88c <_start-0x7774>
     868:	0000002c 	andeq	r0, r0, ip, lsr #32
     86c:	00f51d00 	rscseq	r1, r5, r0, lsl #26
     870:	38040000 	stmdacc	r4, {}	; <UNPREDICTABLE>
     874:	0003491d 	andeq	r4, r3, sp, lsl r9
     878:	1e270500 	cfsh64ne	mvdx0, mvdx7, #0
     87c:	000001a1 	andeq	r0, r0, r1, lsr #3
     880:	088c1d02 	stmeq	ip, {r1, r8, sl, fp, ip}
     884:	2c1b0000 	ldccs	0, cr0, [fp], {-0}
     888:	00000000 	andeq	r0, r0, r0
     88c:	00016d1e 	andeq	r6, r1, lr, lsl sp
     890:	9d1c0200 	lfmls	f0, 4, [ip, #-0]
     894:	1b000008 	blne	8bc <_start-0x7744>
     898:	0000002c 	andeq	r0, r0, ip, lsr #32
     89c:	029a1e00 	addseq	r1, sl, #0, 28
     8a0:	3f020000 	svccc	0x00020000
     8a4:	000008ae 	andeq	r0, r0, lr, lsr #17
     8a8:	00002c1b 	andeq	r2, r0, fp, lsl ip
     8ac:	831e0000 	tsthi	lr, #0
     8b0:	02000001 	andeq	r0, r0, #1
     8b4:	0008bf46 	andeq	fp, r8, r6, asr #30
     8b8:	002c1b00 	eoreq	r1, ip, r0, lsl #22
     8bc:	1d000000 	stcne	0, cr0, [r0, #-0]
     8c0:	00000315 	andeq	r0, r0, r5, lsl r3
     8c4:	91002505 	tstls	r0, r5, lsl #10
     8c8:	04000001 	streq	r0, [r0], #-1
     8cc:	00019900 	andeq	r9, r1, r0, lsl #18
     8d0:	65010400 	strvs	r0, [r1, #-1024]	; 0x400
     8d4:	01000000 	mrseq	r0, (UNDEF: 0)
     8d8:	00000372 	andeq	r0, r0, r2, ror r3
     8dc:	00000394 	muleq	r0, r4, r3
     8e0:	00008444 	andeq	r8, r0, r4, asr #8
     8e4:	00000058 	andeq	r0, r0, r8, asr r0
     8e8:	00000202 	andeq	r0, r0, r2, lsl #4
     8ec:	00036302 	andeq	r6, r3, r2, lsl #6
     8f0:	30280200 	eorcc	r0, r8, r0, lsl #4
     8f4:	03000000 	movweq	r0, #0
     8f8:	0000038a 	andeq	r0, r0, sl, lsl #7
     8fc:	47000304 	strmi	r0, [r0, -r4, lsl #6]
     900:	04000000 	streq	r0, [r0], #-0
     904:	000003dd 	ldrdeq	r0, [r0], -sp
     908:	00000047 	andeq	r0, r0, r7, asr #32
     90c:	04050000 	streq	r0, [r5], #-0
     910:	00038c02 	andeq	r8, r3, r2, lsl #24
     914:	25620200 	strbcs	r0, [r2, #-512]!	; 0x200
     918:	06000000 	streq	r0, [r0], -r0
     91c:	6e690504 	cdpvs	5, 6, cr0, cr9, cr4, {0}
     920:	04070074 	streq	r0, [r7], #-116	; 0x74
     924:	00023507 	andeq	r3, r2, r7, lsl #10
     928:	06010700 	streq	r0, [r1], -r0, lsl #14
     92c:	00000120 	andeq	r0, r0, r0, lsr #2
     930:	90050207 	andls	r0, r5, r7, lsl #4
     934:	07000002 	streq	r0, [r0, -r2]
     938:	027c0504 	rsbseq	r0, ip, #4, 10	; 0x1000000
     93c:	08070000 	stmdaeq	r7, {}	; <UNPREDICTABLE>
     940:	00027705 	andeq	r7, r2, r5, lsl #14
     944:	08010700 	stmdaeq	r1, {r8, r9, sl}
     948:	0000011e 	andeq	r0, r0, lr, lsl r1
     94c:	5a070207 	bpl	1c1170 <__bss_end__+0x1b7278>
     950:	07000001 	streq	r0, [r0, -r1]
     954:	02300704 	eorseq	r0, r0, #4, 14	; 0x100000
     958:	08070000 	stmdaeq	r7, {}	; <UNPREDICTABLE>
     95c:	00022b07 	andeq	r2, r2, r7, lsl #22
     960:	07040700 	streq	r0, [r4, -r0, lsl #14]
     964:	0000025c 	andeq	r0, r0, ip, asr r2
     968:	00a70408 	adceq	r0, r7, r8, lsl #8
     96c:	01070000 	mrseq	r0, (UNDEF: 7)
     970:	00012708 	andeq	r2, r1, r8, lsl #14
     974:	b4040800 	strlt	r0, [r4], #-2048	; 0x800
     978:	09000000 	stmdbeq	r0, {}	; <UNPREDICTABLE>
     97c:	000000a7 	andeq	r0, r0, r7, lsr #1
     980:	0003830a 	andeq	r8, r3, sl, lsl #6
     984:	54060100 	strpl	r0, [r6], #-256	; 0x100
     988:	44000000 	strmi	r0, [r0], #-0
     98c:	58000084 	stmdapl	r0, {r2, r7}
     990:	01000000 	mrseq	r0, (UNDEF: 0)
     994:	0001439c 	muleq	r1, ip, r3
     998:	6d660b00 	vstmdbvs	r6!, {d16-d15}
     99c:	06010074 			; <UNDEFINED> instruction: 0x06010074
     9a0:	000000ae 	andeq	r0, r0, lr, lsr #1
     9a4:	0c709102 	ldfeqp	f1, [r0], #-8
     9a8:	6675620d 	ldrbtvs	r6, [r5], -sp, lsl #4
     9ac:	43080100 	movwmi	r0, #33024	; 0x8100
     9b0:	05000001 	streq	r0, [r0, #-1]
     9b4:	009af403 	addseq	pc, sl, r3, lsl #8
     9b8:	03d80e00 	bicseq	r0, r8, #0, 28
     9bc:	09010000 	stmdbeq	r1, {}	; <UNPREDICTABLE>
     9c0:	00000049 	andeq	r0, r0, r9, asr #32
     9c4:	0f5c9102 	svceq	0x005c9102
     9c8:	01007a73 	tsteq	r0, r3, ror sl
     9cc:	0000540c 	andeq	r5, r0, ip, lsl #8
     9d0:	0000d100 	andeq	sp, r0, r0, lsl #2
     9d4:	846c1000 	strbthi	r1, [ip], #-0
     9d8:	01740000 	cmneq	r4, r0
     9dc:	01360000 	teqeq	r6, r0
     9e0:	01110000 	tsteq	r1, r0
     9e4:	4c910253 	lfmmi	f0, 4, [r1], {83}	; 0x53
     9e8:	03520111 	cmpeq	r2, #1073741828	; 0x40000004
     9ec:	11064891 			; <UNDEFINED> instruction: 0x11064891
     9f0:	0a035101 	beq	d4dfc <__bss_end__+0xcaf04>
     9f4:	01110400 	tsteq	r1, r0, lsl #8
     9f8:	00740250 	rsbseq	r0, r4, r0, asr r2
     9fc:	84801200 	strhi	r1, [r0], #512	; 0x200
     a00:	01110000 	tsteq	r1, r0
     a04:	00740250 	rsbseq	r0, r4, r0, asr r2
     a08:	a7130000 	ldrge	r0, [r3, -r0]
     a0c:	54000000 	strpl	r0, [r0], #-0
     a10:	14000001 	strne	r0, [r0], #-1
     a14:	0000009a 	muleq	r0, sl, r0
     a18:	150003ff 	strne	r0, [r0, #-1023]	; 0x3ff
     a1c:	00000054 	andeq	r0, r0, r4, asr r0
     a20:	00000163 	andeq	r0, r0, r3, ror #2
     a24:	0000ae16 	andeq	sl, r0, r6, lsl lr
     a28:	f7170000 			; <UNDEFINED> instruction: 0xf7170000
     a2c:	04000003 	streq	r0, [r0], #-3
     a30:	00016e20 	andeq	r6, r1, r0, lsr #28
     a34:	54040800 	strpl	r0, [r4], #-2048	; 0x800
     a38:	18000001 	stmdane	r0, {r0}
     a3c:	00000380 	andeq	r0, r0, r0, lsl #7
     a40:	00540205 	subseq	r0, r4, r5, lsl #4
     a44:	a1160000 	tstge	r6, r0
     a48:	16000000 	strne	r0, [r0], -r0
     a4c:	00000054 	andeq	r0, r0, r4, asr r0
     a50:	0000ae16 	andeq	sl, r0, r6, lsl lr
     a54:	00491600 	subeq	r1, r9, r0, lsl #12
     a58:	00000000 	andeq	r0, r0, r0
     a5c:	000000ee 	andeq	r0, r0, lr, ror #1
     a60:	02ca0004 	sbceq	r0, sl, #4
     a64:	01040000 	mrseq	r0, (UNDEF: 4)
     a68:	00000065 	andeq	r0, r0, r5, rrx
     a6c:	0003e201 	andeq	lr, r3, r1, lsl #4
     a70:	00039400 	andeq	r9, r3, r0, lsl #8
     a74:	00849c00 	addeq	r9, r4, r0, lsl #24
     a78:	00003400 	andeq	r3, r0, r0, lsl #8
     a7c:	00030800 	andeq	r0, r3, r0, lsl #16
     a80:	05040200 	streq	r0, [r4, #-512]	; 0x200
     a84:	00746e69 	rsbseq	r6, r4, r9, ror #28
     a88:	35070403 	strcc	r0, [r7, #-1027]	; 0x403
     a8c:	03000002 	movweq	r0, #2
     a90:	01200601 	teqeq	r0, r1, lsl #12
     a94:	02030000 	andeq	r0, r3, #0
     a98:	00029005 	andeq	r9, r2, r5
     a9c:	05040300 	streq	r0, [r4, #-768]	; 0x300
     aa0:	0000027c 	andeq	r0, r0, ip, ror r2
     aa4:	77050803 	strvc	r0, [r5, -r3, lsl #16]
     aa8:	03000002 	movweq	r0, #2
     aac:	011e0801 	tsteq	lr, r1, lsl #16
     ab0:	02030000 	andeq	r0, r3, #0
     ab4:	00015a07 	andeq	r5, r1, r7, lsl #20
     ab8:	07040300 	streq	r0, [r4, -r0, lsl #6]
     abc:	00000230 	andeq	r0, r0, r0, lsr r2
     ac0:	2b070803 	blcs	1c2ad4 <__bss_end__+0x1b8bdc>
     ac4:	03000002 	movweq	r0, #2
     ac8:	025c0704 	subseq	r0, ip, #4, 14	; 0x100000
     acc:	01030000 	mrseq	r0, (UNDEF: 3)
     ad0:	00012708 	andeq	r2, r1, r8, lsl #14
     ad4:	7f040400 	svcvc	0x00040400
     ad8:	05000000 	streq	r0, [r0, #-0]
     adc:	00000072 	andeq	r0, r0, r2, ror r0
     ae0:	0003ee06 	andeq	lr, r3, r6, lsl #28
     ae4:	25040100 	strcs	r0, [r4, #-256]	; 0x100
     ae8:	9c000000 	stcls	0, cr0, [r0], {-0}
     aec:	34000084 	strcc	r0, [r0], #-132	; 0x84
     af0:	01000000 	mrseq	r0, (UNDEF: 0)
     af4:	0000ab9c 	muleq	r0, ip, fp
     af8:	00700700 	rsbseq	r0, r0, r0, lsl #14
     afc:	00790401 	rsbseq	r0, r9, r1, lsl #8
     b00:	00fa0000 	rscseq	r0, sl, r0
     b04:	08000000 	stmdaeq	r0, {}	; <UNPREDICTABLE>
     b08:	00000025 	andeq	r0, r0, r5, lsr #32
     b0c:	000000ba 	strheq	r0, [r0], -sl
     b10:	00002509 	andeq	r2, r0, r9, lsl #10
     b14:	fc0a0000 	stc2	0, cr0, [sl], {-0}
     b18:	02000003 	andeq	r0, r0, #3
     b1c:	0000c51d 	andeq	ip, r0, sp, lsl r5
     b20:	ab040400 	blge	101b28 <__bss_end__+0xf7c30>
     b24:	08000000 	stmdaeq	r0, {}	; <UNPREDICTABLE>
     b28:	00000025 	andeq	r0, r0, r5, lsr #32
     b2c:	000000da 	ldrdeq	r0, [r0], -sl
     b30:	00007909 	andeq	r7, r0, r9, lsl #18
     b34:	f70b0000 			; <UNDEFINED> instruction: 0xf70b0000
     b38:	01000003 	tsteq	r0, r3
     b3c:	0000eb0c 	andeq	lr, r0, ip, lsl #22
     b40:	48030500 	stmdami	r3, {r8, sl}
     b44:	04000095 	streq	r0, [r0], #-149	; 0x95
     b48:	0000cb04 	andeq	ip, r0, r4, lsl #22
     b4c:	06540000 	ldrbeq	r0, [r4], -r0
     b50:	00040000 	andeq	r0, r4, r0
     b54:	00000363 	andeq	r0, r0, r3, ror #6
     b58:	00650104 	rsbeq	r0, r5, r4, lsl #2
     b5c:	34010000 	strcc	r0, [r1], #-0
     b60:	94000004 	strls	r0, [r0], #-4
     b64:	d0000003 	andle	r0, r0, r3
     b68:	f0000084 			; <UNDEFINED> instruction: 0xf0000084
     b6c:	a2000004 	andge	r0, r0, #4
     b70:	02000003 	andeq	r0, r0, #3
     b74:	6e690504 	cdpvs	5, 6, cr0, cr9, cr4, {0}
     b78:	04030074 	streq	r0, [r3], #-116	; 0x74
     b7c:	00023507 	andeq	r3, r2, r7, lsl #10
     b80:	06010300 	streq	r0, [r1], -r0, lsl #6
     b84:	00000120 	andeq	r0, r0, r0, lsr #2
     b88:	90050203 	andls	r0, r5, r3, lsl #4
     b8c:	03000002 	movweq	r0, #2
     b90:	027c0504 	rsbseq	r0, ip, #4, 10	; 0x1000000
     b94:	08030000 	stmdaeq	r3, {}	; <UNPREDICTABLE>
     b98:	00027705 	andeq	r7, r2, r5, lsl #14
     b9c:	08010300 	stmdaeq	r1, {r8, r9}
     ba0:	0000011e 	andeq	r0, r0, lr, lsl r1
     ba4:	5a070203 	bpl	1c13b8 <__bss_end__+0x1b74c0>
     ba8:	03000001 	movweq	r0, #1
     bac:	02300704 	eorseq	r0, r0, #4, 14	; 0x100000
     bb0:	08030000 	stmdaeq	r3, {}	; <UNPREDICTABLE>
     bb4:	00022b07 	andeq	r2, r2, r7, lsl #22
     bb8:	07040300 	streq	r0, [r4, -r0, lsl #6]
     bbc:	0000025c 	andeq	r0, r0, ip, asr r2
     bc0:	04050404 	streq	r0, [r5], #-1028	; 0x404
     bc4:	0000007a 	andeq	r0, r0, sl, ror r0
     bc8:	27080103 	strcs	r0, [r8, -r3, lsl #2]
     bcc:	05000001 	streq	r0, [r0, #-1]
     bd0:	00008704 	andeq	r8, r0, r4, lsl #14
     bd4:	007a0600 	rsbseq	r0, sl, r0, lsl #12
     bd8:	63070000 	movwvs	r0, #28672	; 0x7000
     bdc:	02000003 	andeq	r0, r0, #3
     be0:	00009728 	andeq	r9, r0, r8, lsr #14
     be4:	038a0800 	orreq	r0, sl, #0, 16
     be8:	04040000 	streq	r0, [r4], #-0
     bec:	0000ae00 	andeq	sl, r0, r0, lsl #28
     bf0:	03dd0900 	bicseq	r0, sp, #0, 18
     bf4:	00720000 	rsbseq	r0, r2, r0
     bf8:	00000000 	andeq	r0, r0, r0
     bfc:	00038c07 	andeq	r8, r3, r7, lsl #24
     c00:	8c620200 	sfmhi	f0, 2, [r2], #-0
     c04:	0a000000 	beq	c0c <_start-0x73f4>
     c08:	00000416 	andeq	r0, r0, r6, lsl r4
     c0c:	00252701 	eoreq	r2, r5, r1, lsl #14
     c10:	84d00000 	ldrbhi	r0, [r0], #0
     c14:	00140000 	andseq	r0, r4, r0
     c18:	9c010000 	stcls	0, cr0, [r1], {-0}
     c1c:	000000e0 	andeq	r0, r0, r0, ror #1
     c20:	0100630b 	tsteq	r0, fp, lsl #6
     c24:	00002527 	andeq	r2, r0, r7, lsr #10
     c28:	00011800 	andeq	r1, r1, r0, lsl #16
     c2c:	700c0000 	andvc	r0, ip, r0
     c30:	01006461 	tsteq	r0, r1, ror #8
     c34:	0000742e 	andeq	r7, r0, lr, lsr #8
     c38:	0084e400 	addeq	lr, r4, r0, lsl #8
     c3c:	00002c00 	andeq	r2, r0, r0, lsl #24
     c40:	309c0100 	addscc	r0, ip, r0, lsl #2
     c44:	0b000001 	bleq	c50 <_start-0x73b0>
     c48:	2e010070 	mcrcs	0, 0, r0, cr1, cr0, {3}
     c4c:	00000074 	andeq	r0, r0, r4, ror r0
     c50:	00000146 	andeq	r0, r0, r6, asr #2
     c54:	0004260d 	andeq	r2, r4, sp, lsl #12
     c58:	742e0100 	strtvc	r0, [lr], #-256	; 0x100
     c5c:	71000000 	mrsvc	r0, (UNDEF: 0)
     c60:	0e000001 	cdpeq	0, 0, cr0, cr0, cr1, {0}
     c64:	00000454 	andeq	r0, r0, r4, asr r4
     c68:	00252e01 	eoreq	r2, r5, r1, lsl #28
     c6c:	52010000 	andpl	r0, r1, #0
     c70:	6e656c0f 	cdpvs	12, 6, cr6, cr5, cr15, {0}
     c74:	252f0100 	strcs	r0, [pc, #-256]!	; b7c <_start-0x7484>
     c78:	01000000 	mrseq	r0, (UNDEF: 0)
     c7c:	0e0a0051 	mcreq	0, 0, r0, cr10, cr1, {2}
     c80:	01000004 	tsteq	r0, r4
     c84:	00007437 	andeq	r7, r0, r7, lsr r4
     c88:	00851000 	addeq	r1, r5, r0
     c8c:	00004000 	andeq	r4, r0, r0
     c90:	9c9c0100 	ldflss	f0, [ip], {0}
     c94:	0b000001 	bleq	ca0 <_start-0x7360>
     c98:	00747364 	rsbseq	r7, r4, r4, ror #6
     c9c:	00743701 	rsbseq	r3, r4, r1, lsl #14
     ca0:	01920000 	orrseq	r0, r2, r0
     ca4:	6e0b0000 	cdpvs	0, 0, cr0, cr11, cr0, {0}
     ca8:	25370100 	ldrcs	r0, [r7, #-256]!	; 0x100
     cac:	ca000000 	bgt	cb4 <_start-0x734c>
     cb0:	0b000001 	bleq	cbc <_start-0x7344>
     cb4:	37010070 	smlsdxcc	r1, r0, r0, r0
     cb8:	00000074 	andeq	r0, r0, r4, ror r0
     cbc:	000001eb 	andeq	r0, r0, fp, ror #3
     cc0:	0004cd0d 	andeq	ip, r4, sp, lsl #26
     cc4:	74370100 	ldrtvc	r0, [r7], #-256	; 0x100
     cc8:	21000000 	mrscs	r0, (UNDEF: 0)
     ccc:	10000002 	andne	r0, r0, r2
     cd0:	006e656c 	rsbeq	r6, lr, ip, ror #10
     cd4:	00253901 	eoreq	r3, r5, r1, lsl #18
     cd8:	023f0000 	eorseq	r0, pc, #0
     cdc:	730f0000 	movwvc	r0, #61440	; 0xf000
     ce0:	743d0100 	ldrtvc	r0, [sp], #-256	; 0x100
     ce4:	01000000 	mrseq	r0, (UNDEF: 0)
     ce8:	620a0050 	andvs	r0, sl, #80	; 0x50
     cec:	01000004 	tsteq	r0, r4
     cf0:	00007447 	andeq	r7, r0, r7, asr #8
     cf4:	00855000 	addeq	r5, r5, r0
     cf8:	00019800 	andeq	r9, r1, r0, lsl #16
     cfc:	ca9c0100 	bgt	fe701104 <__bss_end__+0xfe6f720c>
     d00:	0d000002 	stceq	0, cr0, [r0, #-8]
     d04:	00000426 	andeq	r0, r0, r6, lsr #8
     d08:	002c4701 	eoreq	r4, ip, r1, lsl #14
     d0c:	02660000 	rsbeq	r0, r6, #0
     d10:	640b0000 	strvs	r0, [fp], #-0
     d14:	01007473 	tsteq	r0, r3, ror r4
     d18:	00007447 	andeq	r7, r0, r7, asr #8
     d1c:	00029400 	andeq	r9, r2, r0, lsl #8
     d20:	006e0b00 	rsbeq	r0, lr, r0, lsl #22
     d24:	00254701 	eoreq	r4, r5, r1, lsl #14
     d28:	03020000 	movweq	r0, #8192	; 0x2000
     d2c:	760b0000 	strvc	r0, [fp], -r0
     d30:	01006c61 	tsteq	r0, r1, ror #24
     d34:	00002547 	andeq	r2, r0, r7, asr #10
     d38:	00032e00 	andeq	r2, r3, r0, lsl #28
     d3c:	04540d00 	ldrbeq	r0, [r4], #-3328	; 0xd00
     d40:	47010000 	strmi	r0, [r1, -r0]
     d44:	00000025 	andeq	r0, r0, r5, lsr #32
     d48:	000003b8 			; <UNDEFINED> instruction: 0x000003b8
     d4c:	00042b0e 	andeq	r2, r4, lr, lsl #22
     d50:	25470100 	strbcs	r0, [r7, #-256]	; 0x100
     d54:	02000000 	andeq	r0, r0, #0
     d58:	620f0491 	andvs	r0, pc, #-1862270976	; 0x91000000
     d5c:	01006675 	tsteq	r0, r5, ror r6
     d60:	0002ca4c 	andeq	ip, r2, ip, asr #20
     d64:	a8910300 	ldmge	r1, {r8, r9}
     d68:	0070107f 	rsbseq	r1, r0, pc, ror r0
     d6c:	00744c01 	rsbseq	r4, r4, r1, lsl #24
     d70:	03e20000 	mvneq	r0, #0
     d74:	75100000 	ldrvc	r0, [r0, #-0]
     d78:	2c4d0100 	stfcse	f0, [sp], {-0}
     d7c:	87000000 	strhi	r0, [r0, -r0]
     d80:	11000004 	tstne	r0, r4
     d84:	000001d1 	ldrdeq	r0, [r0], -r1
     d88:	000002ea 	andeq	r0, r0, sl, ror #5
     d8c:	988c0305 	stmls	ip, {r0, r2, r8, r9}
     d90:	bc120000 	ldclt	0, cr0, [r2], {-0}
     d94:	74000085 	strvc	r0, [r0], #-133	; 0x85
     d98:	61000000 	mrsvs	r0, (UNDEF: 0)
     d9c:	13000002 	movwne	r0, #2
     da0:	00000408 	andeq	r0, r0, r8, lsl #8
     da4:	002c5201 	eoreq	r5, ip, r1, lsl #4
     da8:	05970000 	ldreq	r0, [r7]
     dac:	14000000 	strne	r0, [r0], #-0
     db0:	000086a0 	andeq	r8, r0, r0, lsr #13
     db4:	0000063a 	andeq	r0, r0, sl, lsr r6
     db8:	00000290 	muleq	r0, r0, r2
     dbc:	02530115 	subseq	r0, r3, #1073741829	; 0x40000005
     dc0:	01157508 	tsteq	r5, r8, lsl #10
     dc4:	8c030552 	cfstr32hi	mvfx0, [r3], {82}	; 0x52
     dc8:	15000098 	strne	r0, [r0, #-152]	; 0x98
     dcc:	03055101 	movweq	r5, #20737	; 0x5101
     dd0:	000098c4 	andeq	r9, r0, r4, asr #17
     dd4:	05500115 	ldrbeq	r0, [r0, #-277]	; 0x115
     dd8:	0098b003 	addseq	fp, r8, r3
     ddc:	a4160000 	ldrge	r0, [r6], #-0
     de0:	50000086 	andpl	r0, r0, r6, lsl #1
     de4:	14000006 	strne	r0, [r0], #-6
     de8:	000086b0 			; <UNDEFINED> instruction: 0x000086b0
     dec:	000000e0 	andeq	r0, r0, r0, ror #1
     df0:	000002ad 	andeq	r0, r0, sp, lsr #5
     df4:	02510115 	subseq	r0, r1, #1073741829	; 0x40000005
     df8:	1700007d 	smlsdxne	r0, sp, r0, r0
     dfc:	000086c4 	andeq	r8, r0, r4, asr #13
     e00:	00000130 	andeq	r0, r0, r0, lsr r1
     e04:	02530115 	subseq	r0, r3, #1073741829	; 0x40000005
     e08:	0115007d 	tsteq	r5, sp, ror r0
     e0c:	00740251 	rsbseq	r0, r4, r1, asr r2
     e10:	02500115 	subseq	r0, r0, #1073741829	; 0x40000005
     e14:	00000075 	andeq	r0, r0, r5, ror r0
     e18:	00007a18 	andeq	r7, r0, r8, lsl sl
     e1c:	0002da00 	andeq	sp, r2, r0, lsl #20
     e20:	006b1900 	rsbeq	r1, fp, r0, lsl #18
     e24:	003f0000 	eorseq	r0, pc, r0
     e28:	00007a18 	andeq	r7, r0, r8, lsl sl
     e2c:	0002ea00 	andeq	lr, r2, r0, lsl #20
     e30:	006b1900 	rsbeq	r1, fp, r0, lsl #18
     e34:	00040000 	andeq	r0, r4, r0
     e38:	0002da06 	andeq	sp, r2, r6, lsl #20
     e3c:	04451a00 	strbeq	r1, [r5], #-2560	; 0xa00
     e40:	1f010000 	svcne	0x00010000
     e44:	000086e8 	andeq	r8, r0, r8, ror #13
     e48:	00000050 	andeq	r0, r0, r0, asr r0
     e4c:	036a9c01 	cmneq	sl, #256	; 0x100
     e50:	5a0d0000 	bpl	340e58 <__bss_end__+0x336f60>
     e54:	01000004 	tsteq	r0, r4
     e58:	0003791f 	andeq	r7, r3, pc, lsl r9
     e5c:	0005c300 	andeq	ip, r5, r0, lsl #6
     e60:	041e0d00 	ldreq	r0, [lr], #-3328	; 0xd00
     e64:	1f010000 	svcne	0x00010000
     e68:	0000038e 	andeq	r0, r0, lr, lsl #7
     e6c:	000005ef 	andeq	r0, r0, pc, ror #11
     e70:	0001d111 	andeq	sp, r1, r1, lsl r1
     e74:	0003a400 	andeq	sl, r3, r0, lsl #8
     e78:	94030500 	strls	r0, [r3], #-1280	; 0x500
     e7c:	14000098 	strne	r0, [r0], #-152	; 0x98
     e80:	00008708 	andeq	r8, r0, r8, lsl #14
     e84:	0000063a 	andeq	r0, r0, sl, lsr r6
     e88:	00000360 	andeq	r0, r0, r0, ror #6
     e8c:	02530115 	subseq	r0, r3, #1073741829	; 0x40000005
     e90:	01152008 	tsteq	r5, r8
     e94:	94030552 	strls	r0, [r3], #-1362	; 0x552
     e98:	15000098 	strne	r0, [r0, #-152]	; 0x98
     e9c:	03055101 	movweq	r5, #20737	; 0x5101
     ea0:	000098c4 	andeq	r9, r0, r4, asr #17
     ea4:	05500115 	ldrbeq	r0, [r0, #-277]	; 0x115
     ea8:	0098fc03 	addseq	pc, r8, r3, lsl #24
     eac:	0c160000 	ldceq	0, cr0, [r6], {-0}
     eb0:	50000087 	andpl	r0, r0, r7, lsl #1
     eb4:	00000006 	andeq	r0, r0, r6
     eb8:	0000251b 	andeq	r2, r0, fp, lsl r5
     ebc:	00037900 	andeq	r7, r3, r0, lsl #18
     ec0:	00251c00 	eoreq	r1, r5, r0, lsl #24
     ec4:	05000000 	streq	r0, [r0, #-0]
     ec8:	00036a04 	andeq	r6, r3, r4, lsl #20
     ecc:	00251b00 	eoreq	r1, r5, r0, lsl #22
     ed0:	038e0000 	orreq	r0, lr, #0
     ed4:	811c0000 	tsthi	ip, r0
     ed8:	00000000 	andeq	r0, r0, r0
     edc:	037f0405 	cmneq	pc, #83886080	; 0x5000000
     ee0:	7a180000 	bvc	600ee8 <__bss_end__+0x5f6ff0>
     ee4:	a4000000 	strge	r0, [r0], #-0
     ee8:	19000003 	stmdbne	r0, {r0, r1}
     eec:	0000006b 	andeq	r0, r0, fp, rrx
     ef0:	9406000e 	strls	r0, [r6], #-14
     ef4:	1d000003 	stcne	0, cr0, [r0, #-12]
     ef8:	00000380 	andeq	r0, r0, r0, lsl #7
     efc:	00257d01 	eoreq	r7, r5, r1, lsl #26
     f00:	87380000 	ldrhi	r0, [r8, -r0]!
     f04:	02880000 	addeq	r0, r8, #0
     f08:	9c010000 	stcls	0, cr0, [r1], {-0}
     f0c:	000005ff 	strdeq	r0, [r0], -pc	; <UNPREDICTABLE>
     f10:	6675620b 	ldrbtvs	r6, [r5], -fp, lsl #4
     f14:	747d0100 	ldrbtvc	r0, [sp], #-256	; 0x100
     f18:	1b000000 	blne	f20 <_start-0x70e0>
     f1c:	0b000006 	bleq	f3c <_start-0x70c4>
     f20:	7d01006e 	stcvc	0, cr0, [r1, #-440]	; 0xfffffe48
     f24:	00000025 	andeq	r0, r0, r5, lsr #32
     f28:	00000647 	andeq	r0, r0, r7, asr #12
     f2c:	746d660b 	strbtvc	r6, [sp], #-1547	; 0x60b
     f30:	817d0100 	cmnhi	sp, r0, lsl #2
     f34:	75000000 	strvc	r0, [r0, #-0]
     f38:	0d000006 	stceq	0, cr0, [r0, #-24]	; 0xffffffe8
     f3c:	000003d8 	ldrdeq	r0, [r0], -r8
     f40:	00ae7d01 	adceq	r7, lr, r1, lsl #26
     f44:	06a90000 	strteq	r0, [r9], r0
     f48:	70100000 	andsvc	r0, r0, r0
     f4c:	747e0100 	ldrbtvc	r0, [lr], #-256	; 0x100
     f50:	bc000000 	stclt	0, cr0, [r0], {-0}
     f54:	10000006 	andne	r0, r0, r6
     f58:	7e010065 	cdpvc	0, 0, cr0, cr1, cr5, {3}
     f5c:	00000074 	andeq	r0, r0, r4, ror r0
     f60:	0000073a 	andeq	r0, r0, sl, lsr r7
     f64:	0001d111 	andeq	sp, r1, r1, lsl r1
     f68:	00060f00 	andeq	r0, r6, r0, lsl #30
     f6c:	a4030500 	strge	r0, [r3], #-1280	; 0x500
     f70:	1e000098 	mcrne	0, 0, r0, cr0, cr8, {4}
     f74:	0000878c 	andeq	r8, r0, ip, lsl #15
     f78:	000001f4 	strdeq	r0, [r0], -r4
     f7c:	01007310 	tsteq	r0, r0, lsl r3
     f80:	0000748b 	andeq	r7, r0, fp, lsl #9
     f84:	00076100 	andeq	r6, r7, r0, lsl #2
     f88:	756e0f00 	strbvc	r0, [lr, #-3840]!	; 0xf00
     f8c:	8b01006d 	blhi	41148 <__bss_end__+0x37250>
     f90:	00000614 	andeq	r0, r0, r4, lsl r6
     f94:	7ed89103 	atnvce	f1, f3
     f98:	00045413 	andeq	r5, r4, r3, lsl r4
     f9c:	2c8c0100 	stfcss	f0, [ip], {0}
     fa0:	b6000000 	strlt	r0, [r0], -r0
     fa4:	14000007 	strne	r0, [r0], #-7
     fa8:	000087bc 			; <UNDEFINED> instruction: 0x000087bc
     fac:	000000b9 	strheq	r0, [r0], -r9
     fb0:	0000046d 	andeq	r0, r0, sp, ror #8
     fb4:	02500115 	subseq	r0, r0, #1073741829	; 0x40000005
     fb8:	14000075 	strne	r0, [r0], #-117	; 0x75
     fbc:	000087e0 	andeq	r8, r0, r0, ror #15
     fc0:	0000063a 	andeq	r0, r0, sl, lsr r6
     fc4:	0000049c 	muleq	r0, ip, r4
     fc8:	02530115 	subseq	r0, r3, #1073741829	; 0x40000005
     fcc:	01159208 	tsteq	r5, r8, lsl #4
     fd0:	a4030552 	strge	r0, [r3], #-1362	; 0x552
     fd4:	15000098 	strne	r0, [r0, #-152]	; 0x98
     fd8:	03055101 	movweq	r5, #20737	; 0x5101
     fdc:	000098c4 	andeq	r9, r0, r4, asr #17
     fe0:	05500115 	ldrbeq	r0, [r0, #-277]	; 0x115
     fe4:	00991403 	addseq	r1, r9, r3, lsl #8
     fe8:	e4160000 	ldr	r0, [r6], #-0
     fec:	50000087 	andpl	r0, r0, r7, lsl #1
     ff0:	14000006 	strne	r0, [r0], #-6
     ff4:	00008864 	andeq	r8, r0, r4, ror #16
     ff8:	0000063a 	andeq	r0, r0, sl, lsr r6
     ffc:	000004d4 	ldrdeq	r0, [r0], -r4
    1000:	02530115 	subseq	r0, r3, #1073741829	; 0x40000005
    1004:	01159808 	tsteq	r5, r8, lsl #16
    1008:	a4030552 	strge	r0, [r3], #-1362	; 0x552
    100c:	15000098 	strne	r0, [r0, #-152]	; 0x98
    1010:	03055101 	movweq	r5, #20737	; 0x5101
    1014:	000098c4 	andeq	r9, r0, r4, asr #17
    1018:	05500115 	ldrbeq	r0, [r0, #-277]	; 0x115
    101c:	00993003 	addseq	r3, r9, r3
    1020:	68160000 	ldmdavs	r6, {}	; <UNPREDICTABLE>
    1024:	50000088 	andpl	r0, r0, r8, lsl #1
    1028:	14000006 	strne	r0, [r0], #-6
    102c:	0000888c 	andeq	r8, r0, ip, lsl #17
    1030:	0000019c 	muleq	r0, ip, r1
    1034:	0000050a 	andeq	r0, r0, sl, lsl #10
    1038:	02520115 	subseq	r0, r2, #1073741829	; 0x40000005
    103c:	01158008 	tsteq	r5, r8
    1040:	d0910351 	addsle	r0, r1, r1, asr r3
    1044:	5001157e 	andpl	r1, r1, lr, ror r5
    1048:	02153a01 	andseq	r3, r5, #4096	; 0x1000
    104c:	3101047d 	tstcc	r1, sp, ror r4
    1050:	007d0215 	rsbseq	r0, sp, r5, lsl r2
    1054:	00007702 	andeq	r7, r0, r2, lsl #14
    1058:	0088b414 	addeq	fp, r8, r4, lsl r4
    105c:	00019c00 	andeq	r9, r1, r0, lsl #24
    1060:	00053700 	andeq	r3, r5, r0, lsl #14
    1064:	52011500 	andpl	r1, r1, #0, 10
    1068:	15800802 	strne	r0, [r0, #2050]	; 0x802
    106c:	91035101 	tstls	r3, r1, lsl #2
    1070:	01157ed0 			; <UNDEFINED> instruction: 0x01157ed0
    1074:	153a0150 	ldrne	r0, [sl, #-336]!	; 0x150
    1078:	01047d02 	tsteq	r4, r2, lsl #26
    107c:	7d021530 	cfstr32vc	mvfx1, [r2, #-192]	; 0xffffff40
    1080:	00770200 	rsbseq	r0, r7, r0, lsl #4
    1084:	88dc1400 	ldmhi	ip, {sl, ip}^
    1088:	019c0000 	orrseq	r0, ip, r0
    108c:	05640000 	strbeq	r0, [r4, #-0]!
    1090:	01150000 	tsteq	r5, r0
    1094:	80080252 	andhi	r0, r8, r2, asr r2
    1098:	03510115 	cmpeq	r1, #1073741829	; 0x40000005
    109c:	157ed091 	ldrbne	sp, [lr, #-145]!	; 0x91
    10a0:	40015001 	andmi	r5, r1, r1
    10a4:	047d0215 	ldrbteq	r0, [sp], #-533	; 0x215
    10a8:	02153001 	andseq	r3, r5, #1
    10ac:	7702007d 	smlsdxvc	r2, sp, r0, r0
    10b0:	04140000 	ldreq	r0, [r4], #-0
    10b4:	9c000089 	stcls	0, cr0, [r0], {137}	; 0x89
    10b8:	91000001 	tstls	r0, r1
    10bc:	15000005 	strne	r0, [r0, #-5]
    10c0:	08025201 	stmdaeq	r2, {r0, r9, ip, lr}
    10c4:	51011580 	smlabbpl	r1, r0, r5, r1
    10c8:	7ed09103 	atnvcs	f1, f3
    10cc:	01500115 	cmpeq	r0, r5, lsl r1
    10d0:	7d021532 	cfstr32vc	mvfx1, [r2, #-200]	; 0xffffff38
    10d4:	15300104 	ldrne	r0, [r0, #-260]!	; 0x104
    10d8:	02007d02 	andeq	r7, r0, #2, 26	; 0x80
    10dc:	14000077 	strne	r0, [r0], #-119	; 0x77
    10e0:	00008938 	andeq	r8, r0, r8, lsr r9
    10e4:	0000019c 	muleq	r0, ip, r1
    10e8:	000005be 			; <UNDEFINED> instruction: 0x000005be
    10ec:	02520115 	subseq	r0, r2, #1073741829	; 0x40000005
    10f0:	01158008 	tsteq	r5, r8
    10f4:	d0910351 	addsle	r0, r1, r1, asr r3
    10f8:	5001157e 	andpl	r1, r1, lr, ror r5
    10fc:	02153801 	andseq	r3, r5, #65536	; 0x10000
    1100:	3001047d 	andcc	r0, r1, sp, ror r4
    1104:	007d0215 	rsbseq	r0, sp, r5, lsl r2
    1108:	00007702 	andeq	r7, r0, r2, lsl #14
    110c:	00895414 	addeq	r5, r9, r4, lsl r4
    1110:	00063a00 	andeq	r3, r6, r0, lsl #20
    1114:	0005f400 	andeq	pc, r5, r0, lsl #8
    1118:	53011500 	movwpl	r1, #5376	; 0x1500
    111c:	15b90802 	ldrne	r0, [r9, #2050]!	; 0x802
    1120:	03055201 	movweq	r5, #20993	; 0x5201
    1124:	000098a4 	andeq	r9, r0, r4, lsr #17
    1128:	05510115 	ldrbeq	r0, [r1, #-277]	; 0x115
    112c:	0098c403 	addseq	ip, r8, r3, lsl #8
    1130:	50011500 	andpl	r1, r1, r0, lsl #10
    1134:	99580305 	ldmdbls	r8, {r0, r2, r8, r9}^
    1138:	02150000 	andseq	r0, r5, #0
    113c:	7902007d 	stmdbvc	r2, {r0, r2, r3, r4, r5, r6}
    1140:	58160000 	ldmdapl	r6, {}	; <UNPREDICTABLE>
    1144:	50000089 	andpl	r0, r0, r9, lsl #1
    1148:	00000006 	andeq	r0, r0, r6
    114c:	007a1800 	rsbseq	r1, sl, r0, lsl #16
    1150:	060f0000 	streq	r0, [pc], -r0
    1154:	6b190000 	blvs	64115c <__bss_end__+0x637264>
    1158:	09000000 	stmdbeq	r0, {}	; <UNPREDICTABLE>
    115c:	05ff0600 	ldrbeq	r0, [pc, #1536]!	; 1764 <_start-0x689c>
    1160:	7a180000 	bvc	601168 <__bss_end__+0x5f7270>
    1164:	24000000 	strcs	r0, [r0], #-0
    1168:	19000006 	stmdbne	r0, {r1, r2}
    116c:	0000006b 	andeq	r0, r0, fp, rrx
    1170:	fc1f007f 	ldc2	0, cr0, [pc], {127}	; 0x7f
    1174:	03000003 	movweq	r0, #3
    1178:	0003791d 	andeq	r7, r3, sp, lsl r9
    117c:	03f71f00 	mvnseq	r1, #0, 30
    1180:	20030000 	andcs	r0, r3, r0
    1184:	0000038e 	andeq	r0, r0, lr, lsl #7
    1188:	00038320 	andeq	r8, r3, r0, lsr #6
    118c:	25270300 	strcs	r0, [r7, #-768]!	; 0x300
    1190:	50000000 	andpl	r0, r0, r0
    1194:	1c000006 	stcne	0, cr0, [r0], {6}
    1198:	00000081 	andeq	r0, r0, r1, lsl #1
    119c:	3b220021 	blcc	881228 <__bss_end__+0x877330>
    11a0:	03000001 	movweq	r0, #1
    11a4:	00ff0063 	rscseq	r0, pc, r3, rrx
    11a8:	00040000 	andeq	r0, r4, r0
    11ac:	00000541 	andeq	r0, r0, r1, asr #10
    11b0:	00650104 	rsbeq	r0, r5, r4, lsl #2
    11b4:	72010000 	andvc	r0, r1, #0
    11b8:	94000004 	strls	r0, [r0], #-4
    11bc:	c0000003 	andgt	r0, r0, r3
    11c0:	28000089 	stmdacs	r0, {r0, r3, r7}
    11c4:	82000000 	andhi	r0, r0, #0
    11c8:	02000005 	andeq	r0, r0, #5
    11cc:	6e690504 	cdpvs	5, 6, cr0, cr9, cr4, {0}
    11d0:	04030074 	streq	r0, [r3], #-116	; 0x74
    11d4:	00023507 	andeq	r3, r2, r7, lsl #10
    11d8:	06010300 	streq	r0, [r1], -r0, lsl #6
    11dc:	00000120 	andeq	r0, r0, r0, lsr #2
    11e0:	90050203 	andls	r0, r5, r3, lsl #4
    11e4:	03000002 	movweq	r0, #2
    11e8:	027c0504 	rsbseq	r0, ip, #4, 10	; 0x1000000
    11ec:	08030000 	stmdaeq	r3, {}	; <UNPREDICTABLE>
    11f0:	00027705 	andeq	r7, r2, r5, lsl #14
    11f4:	08010300 	stmdaeq	r1, {r8, r9}
    11f8:	0000011e 	andeq	r0, r0, lr, lsl r1
    11fc:	5a070203 	bpl	1c1a10 <__bss_end__+0x1b7b18>
    1200:	03000001 	movweq	r0, #1
    1204:	02300704 	eorseq	r0, r0, #4, 14	; 0x100000
    1208:	08030000 	stmdaeq	r3, {}	; <UNPREDICTABLE>
    120c:	00022b07 	andeq	r2, r2, r7, lsl #22
    1210:	07040300 	streq	r0, [r4, -r0, lsl #6]
    1214:	0000025c 	andeq	r0, r0, ip, asr r2
    1218:	27080103 	strcs	r0, [r8, -r3, lsl #2]
    121c:	04000001 	streq	r0, [r0], #-1
    1220:	00007f04 	andeq	r7, r0, r4, lsl #30
    1224:	00720500 	rsbseq	r0, r2, r0, lsl #10
    1228:	3b060000 	blcc	181230 <__bss_end__+0x177338>
    122c:	01000001 	tsteq	r0, r1
    1230:	0089c004 	addeq	ip, r9, r4
    1234:	00002800 	andeq	r2, r0, r0, lsl #16
    1238:	ca9c0100 	bgt	fe701640 <__bss_end__+0xfe6f7748>
    123c:	07000000 	streq	r0, [r0, -r0]
    1240:	000089d4 	ldrdeq	r8, [r0], -r4
    1244:	000000ac 	andeq	r0, r0, ip, lsr #1
    1248:	05500108 	ldrbeq	r0, [r0, #-264]	; 0x108
    124c:	00999003 	addseq	r9, r9, r3
    1250:	dc090000 	stcle	0, cr0, [r9], {-0}
    1254:	ea000089 	b	1480 <_start-0x6b80>
    1258:	c0000000 	andgt	r0, r0, r0
    125c:	08000000 	stmdaeq	r0, {}	; <UNPREDICTABLE>
    1260:	08025001 	stmdaeq	r2, {r0, ip, lr}
    1264:	e00a0064 	and	r0, sl, r4, rrx
    1268:	fb000089 	blx	1496 <_start-0x6b6a>
    126c:	00000000 	andeq	r0, r0, r0
    1270:	0000250b 	andeq	r2, r0, fp, lsl #10
    1274:	0000d900 	andeq	sp, r0, r0, lsl #18
    1278:	00790c00 	rsbseq	r0, r9, r0, lsl #24
    127c:	0d000000 	stceq	0, cr0, [r0, #-0]
    1280:	000003f7 	strdeq	r0, [r0], -r7
    1284:	00e42002 	rsceq	r2, r4, r2
    1288:	04040000 	streq	r0, [r4], #-0
    128c:	000000ca 	andeq	r0, r0, sl, asr #1
    1290:	00048c0e 	andeq	r8, r4, lr, lsl #24
    1294:	fb4d0200 	blx	1341a9e <__bss_end__+0x1337ba6>
    1298:	0c000000 	stceq	0, cr0, [r0], {-0}
    129c:	0000002c 	andeq	r0, r0, ip, lsr #32
    12a0:	04670f00 	strbteq	r0, [r7], #-3840	; 0xf00
    12a4:	60020000 	andvs	r0, r2, r0
    12a8:	00010b00 	andeq	r0, r1, r0, lsl #22
    12ac:	0b000400 	bleq	22b4 <_start-0x5d4c>
    12b0:	04000006 	streq	r0, [r0], #-6
    12b4:	00006501 	andeq	r6, r0, r1, lsl #10
    12b8:	04950100 	ldreq	r0, [r5], #256	; 0x100
    12bc:	03940000 	orrseq	r0, r4, #0
    12c0:	89e80000 	stmibhi	r8!, {}^	; <UNPREDICTABLE>
    12c4:	00340000 	eorseq	r0, r4, r0
    12c8:	06190000 	ldreq	r0, [r9], -r0
    12cc:	04020000 	streq	r0, [r2], #-0
    12d0:	746e6905 	strbtvc	r6, [lr], #-2309	; 0x905
    12d4:	07040300 	streq	r0, [r4, -r0, lsl #6]
    12d8:	00000235 	andeq	r0, r0, r5, lsr r2
    12dc:	20060103 	andcs	r0, r6, r3, lsl #2
    12e0:	03000001 	movweq	r0, #1
    12e4:	02900502 	addseq	r0, r0, #8388608	; 0x800000
    12e8:	04030000 	streq	r0, [r3], #-0
    12ec:	00027c05 	andeq	r7, r2, r5, lsl #24
    12f0:	05080300 	streq	r0, [r8, #-768]	; 0x300
    12f4:	00000277 	andeq	r0, r0, r7, ror r2
    12f8:	1e080103 	adfnee	f0, f0, f3
    12fc:	03000001 	movweq	r0, #1
    1300:	015a0702 	cmpeq	sl, r2, lsl #14
    1304:	04030000 	streq	r0, [r3], #-0
    1308:	00023007 	andeq	r3, r2, r7
    130c:	07080300 	streq	r0, [r8, -r0, lsl #6]
    1310:	0000022b 	andeq	r0, r0, fp, lsr #4
    1314:	5c070403 	cfstrspl	mvf0, [r7], {3}
    1318:	03000002 	movweq	r0, #2
    131c:	01270801 	teqeq	r7, r1, lsl #16
    1320:	cb040000 	blgt	101328 <__bss_end__+0xf7430>
    1324:	01000004 	tsteq	r0, r4
    1328:	0089e803 	addeq	lr, r9, r3, lsl #16
    132c:	00003400 	andeq	r3, r0, r0, lsl #8
    1330:	de9c0100 	fmllee	f0, f4, f0
    1334:	05000000 	streq	r0, [r0, #-0]
    1338:	000004a9 	andeq	r0, r0, r9, lsr #9
    133c:	00250401 	eoreq	r0, r5, r1, lsl #8
    1340:	b7050000 	strlt	r0, [r5, -r0]
    1344:	01000004 	tsteq	r0, r4
    1348:	00002504 	andeq	r2, r0, r4, lsl #10
    134c:	00d00600 	sbcseq	r0, r0, r0, lsl #12
    1350:	05010000 	streq	r0, [r1, #-0]
    1354:	000000b1 	strheq	r0, [r0], -r1
    1358:	62080007 	andvs	r0, r8, #7
    135c:	01007373 	tsteq	r0, r3, ror r3
    1360:	0000de07 	andeq	sp, r0, r7, lsl #28
    1364:	0007e000 	andeq	lr, r7, r0
    1368:	04c30900 	strbeq	r0, [r3], #2304	; 0x900
    136c:	08010000 	stmdaeq	r1, {}	; <UNPREDICTABLE>
    1370:	000000de 	ldrdeq	r0, [r0], -lr
    1374:	008a100a 	addeq	r1, sl, sl
    1378:	0000fa00 	andeq	pc, r0, r0, lsl #20
    137c:	8a140a00 	bhi	503b84 <__bss_end__+0x4f9c8c>
    1380:	01070000 	mrseq	r0, (UNDEF: 7)
    1384:	0b000000 	bleq	138c <_start-0x6c74>
    1388:	00002504 	andeq	r2, r0, r4, lsl #10
    138c:	04a90500 	strteq	r0, [r9], #1280	; 0x500
    1390:	04010000 	streq	r0, [r1], #-0
    1394:	00000025 	andeq	r0, r0, r5, lsr #32
    1398:	0004b705 	andeq	fp, r4, r5, lsl #14
    139c:	25040100 	strcs	r0, [r4, #-256]	; 0x100
    13a0:	06000000 	streq	r0, [r0], -r0
    13a4:	000000d0 	ldrdeq	r0, [r0], -r0	; <UNPREDICTABLE>
    13a8:	01070501 	tsteq	r7, r1, lsl #10
    13ac:	00070000 	andeq	r0, r7, r0
    13b0:	0004670c 	andeq	r6, r4, ip, lsl #14
    13b4:	00600200 	rsbeq	r0, r0, r0, lsl #4
    13b8:	000001ad 	andeq	r0, r0, sp, lsr #3
    13bc:	06b50004 	ldrteq	r0, [r5], r4
    13c0:	01040000 	mrseq	r0, (UNDEF: 4)
    13c4:	00000065 	andeq	r0, r0, r5, rrx
    13c8:	0004ed01 	andeq	lr, r4, r1, lsl #26
    13cc:	00039400 	andeq	r9, r3, r0, lsl #8
    13d0:	00001800 	andeq	r1, r0, r0, lsl #16
    13d4:	00000000 	andeq	r0, r0, r0
    13d8:	0006b300 	andeq	fp, r6, r0, lsl #6
    13dc:	05040200 	streq	r0, [r4, #-512]	; 0x200
    13e0:	00746e69 	rsbseq	r6, r4, r9, ror #28
    13e4:	35070403 	strcc	r0, [r7, #-1027]	; 0x403
    13e8:	03000002 	movweq	r0, #2
    13ec:	01200601 	teqeq	r0, r1, lsl #12
    13f0:	02030000 	andeq	r0, r3, #0
    13f4:	00029005 	andeq	r9, r2, r5
    13f8:	05040300 	streq	r0, [r4, #-768]	; 0x300
    13fc:	0000027c 	andeq	r0, r0, ip, ror r2
    1400:	77050803 	strvc	r0, [r5, -r3, lsl #16]
    1404:	03000002 	movweq	r0, #2
    1408:	011e0801 	tsteq	lr, r1, lsl #16
    140c:	02030000 	andeq	r0, r3, #0
    1410:	00015a07 	andeq	r5, r1, r7, lsl #20
    1414:	07040300 	streq	r0, [r4, -r0, lsl #6]
    1418:	00000230 	andeq	r0, r0, r0, lsr r2
    141c:	2b070803 	blcs	1c3430 <__bss_end__+0x1b9538>
    1420:	03000002 	movweq	r0, #2
    1424:	025c0704 	subseq	r0, ip, #4, 14	; 0x100000
    1428:	01030000 	mrseq	r0, (UNDEF: 3)
    142c:	00012708 	andeq	r2, r1, r8, lsl #14
    1430:	04d30400 	ldrbeq	r0, [r3], #1024	; 0x400
    1434:	0e010000 	cdpeq	0, 0, cr0, cr1, cr0, {0}
    1438:	00000025 	andeq	r0, r0, r5, lsr #32
    143c:	00008a1c 	andeq	r8, r0, ip, lsl sl
    1440:	00000018 	andeq	r0, r0, r8, lsl r0
    1444:	00a29c01 	adceq	r9, r2, r1, lsl #24
    1448:	3f050000 	svccc	0x00050000
    144c:	01000005 	tsteq	r0, r5
    1450:	00002c0f 	andeq	r2, r0, pc, lsl #24
    1454:	00080000 	andeq	r0, r8, r0
    1458:	22060000 	andcs	r0, r6, #0
    145c:	01000005 	tsteq	r0, r5
    1460:	008a3417 	addeq	r3, sl, r7, lsl r4
    1464:	00001400 	andeq	r1, r0, r0, lsl #8
    1468:	c79c0100 	ldrgt	r0, [ip, r0, lsl #2]
    146c:	05000000 	streq	r0, [r0, #-0]
    1470:	0000053f 	andeq	r0, r0, pc, lsr r5
    1474:	002c1801 	eoreq	r1, ip, r1, lsl #16
    1478:	081f0000 	ldmdaeq	pc, {}	; <UNPREDICTABLE>
    147c:	06000000 	streq	r0, [r0], -r0
    1480:	00000467 	andeq	r0, r0, r7, ror #8
    1484:	8a481f01 	bhi	1209090 <__bss_end__+0x11ff198>
    1488:	00480000 	subeq	r0, r8, r0
    148c:	9c010000 	stcls	0, cr0, [r1], {-0}
    1490:	00000177 	andeq	r0, r0, r7, ror r1
    1494:	00053707 	andeq	r3, r5, r7, lsl #14
    1498:	772a0100 	strvc	r0, [sl, -r0, lsl #2]!
    149c:	1c000001 	stcne	0, cr0, [r0], {1}
    14a0:	07201000 	streq	r1, [r0, -r0]!
    14a4:	0000051a 	andeq	r0, r0, sl, lsl r5
    14a8:	01772b01 	cmneq	r7, r1, lsl #22
    14ac:	00240000 	eoreq	r0, r4, r0
    14b0:	e1072010 	tst	r7, r0, lsl r0
    14b4:	01000004 	tsteq	r0, r4
    14b8:	0001772c 	andeq	r7, r1, ip, lsr #14
    14bc:	00000000 	andeq	r0, r0, r0
    14c0:	0501085a 	streq	r0, [r1, #-2138]	; 0x85a
    14c4:	2d010000 	stccs	0, cr0, [r1, #-0]
    14c8:	00000177 	andeq	r0, r0, r7, ror r1
    14cc:	8a500920 	bhi	1403954 <__bss_end__+0x13f9a5c>
    14d0:	00790000 	rsbseq	r0, r9, r0
    14d4:	5c090000 	stcpl	0, cr0, [r9], {-0}
    14d8:	a200008a 	andge	r0, r0, #138	; 0x8a
    14dc:	0a000000 	beq	14e4 <_start-0x6b1c>
    14e0:	00008a64 	andeq	r8, r0, r4, ror #20
    14e4:	0000018d 	andeq	r0, r0, sp, lsl #3
    14e8:	0000013a 	andeq	r0, r0, sl, lsr r1
    14ec:	0150010b 	cmpeq	r0, fp, lsl #2
    14f0:	700a004e 	andvc	r0, sl, lr, asr #32
    14f4:	9e00008a 	cdpls	0, 0, cr0, cr0, cr10, {4}
    14f8:	5a000001 	bpl	1504 <_start-0x6afc>
    14fc:	0b000001 	bleq	1508 <_start-0x6af8>
    1500:	0c055101 	stfeqs	f5, [r5], {1}
    1504:	5a000001 	bpl	1510 <_start-0x6af0>
    1508:	0550010b 	ldrbeq	r0, [r0, #-267]	; 0x10b
    150c:	1000240c 	andne	r2, r0, ip, lsl #8
    1510:	7c0c0020 	stcvc	0, cr0, [ip], {32}
    1514:	9e00008a 	cdpls	0, 0, cr0, cr0, cr10, {4}
    1518:	0b000001 	bleq	1524 <_start-0x6adc>
    151c:	0c055101 	stfeqs	f5, [r5], {1}
    1520:	5a000020 	bpl	15a8 <_start-0x6a58>
    1524:	0550010b 	ldrbeq	r0, [r0, #-267]	; 0x10b
    1528:	10001c0c 	andne	r1, r0, ip, lsl #24
    152c:	0d000020 	stceq	0, cr0, [r0, #-128]	; 0xffffff80
    1530:	00000025 	andeq	r0, r0, r5, lsr #32
    1534:	0004d608 	andeq	sp, r4, r8, lsl #12
    1538:	880d0100 	stmdahi	sp, {r8}
    153c:	10000001 	andne	r0, r0, r1
    1540:	00002c0d 	andeq	r2, r0, sp, lsl #24
    1544:	048c0e00 	streq	r0, [ip], #3584	; 0xe00
    1548:	4d020000 	stcmi	0, cr0, [r2, #-0]
    154c:	0000019e 	muleq	r0, lr, r1
    1550:	00002c0f 	andeq	r2, r0, pc, lsl #24
    1554:	31100000 	tstcc	r0, r0
    1558:	02000005 	andeq	r0, r0, #5
    155c:	002c0f94 	mlaeq	ip, r4, pc, r0	; <UNPREDICTABLE>
    1560:	2c0f0000 	stccs	0, cr0, [pc], {-0}
    1564:	00000000 	andeq	r0, r0, r0
    1568:	0001d800 	andeq	sp, r1, r0, lsl #16
    156c:	a3000400 	movwge	r0, #1024	; 0x400
    1570:	04000007 	streq	r0, [r0], #-7
    1574:	00006501 	andeq	r6, r0, r1, lsl #10
    1578:	05610100 	strbeq	r0, [r1, #-256]!	; 0x100
    157c:	03940000 	orrseq	r0, r4, #0
    1580:	8a900000 	bhi	fe401588 <__bss_end__+0xfe3f7690>
    1584:	00880000 	addeq	r0, r8, r0
    1588:	07500000 	ldrbeq	r0, [r0, -r0]
    158c:	04020000 	streq	r0, [r2], #-0
    1590:	746e6905 	strbtvc	r6, [lr], #-2309	; 0x905
    1594:	07040300 	streq	r0, [r4, -r0, lsl #6]
    1598:	00000235 	andeq	r0, r0, r5, lsr r2
    159c:	20060103 	andcs	r0, r6, r3, lsl #2
    15a0:	03000001 	movweq	r0, #1
    15a4:	02900502 	addseq	r0, r0, #8388608	; 0x800000
    15a8:	04030000 	streq	r0, [r3], #-0
    15ac:	00027c05 	andeq	r7, r2, r5, lsl #24
    15b0:	05080300 	streq	r0, [r8, #-768]	; 0x300
    15b4:	00000277 	andeq	r0, r0, r7, ror r2
    15b8:	1e080103 	adfnee	f0, f0, f3
    15bc:	03000001 	movweq	r0, #1
    15c0:	015a0702 	cmpeq	sl, r2, lsl #14
    15c4:	04030000 	streq	r0, [r3], #-0
    15c8:	00023007 	andeq	r3, r2, r7
    15cc:	07080300 	streq	r0, [r8, -r0, lsl #6]
    15d0:	0000022b 	andeq	r0, r0, fp, lsr #4
    15d4:	5c070403 	cfstrspl	mvf0, [r7], {3}
    15d8:	03000002 	movweq	r0, #2
    15dc:	01270801 	teqeq	r7, r1, lsl #16
    15e0:	80040000 	andhi	r0, r4, r0
    15e4:	01000005 	tsteq	r0, r5
    15e8:	008a9005 	addeq	r9, sl, r5
    15ec:	00001c00 	andeq	r1, r0, r0, lsl #24
    15f0:	9e9c0100 	fmllse	f0, f4, f0
    15f4:	05000000 	streq	r0, [r0, #-0]
    15f8:	0000057a 	andeq	r0, r0, sl, ror r5
    15fc:	002c0501 	eoreq	r0, ip, r1, lsl #10
    1600:	08490000 	stmdaeq	r9, {}^	; <UNPREDICTABLE>
    1604:	06000000 	streq	r0, [r0], -r0
    1608:	00000544 	andeq	r0, r0, r4, asr #10
    160c:	002c0b01 	eoreq	r0, ip, r1, lsl #22
    1610:	8aac0000 	bhi	feb01618 <__bss_end__+0xfeaf7720>
    1614:	00140000 	andseq	r0, r4, r0
    1618:	9c010000 	stcls	0, cr0, [r1], {-0}
    161c:	000000cb 	andeq	r0, r0, fp, asr #1
    1620:	008ab807 	addeq	fp, sl, r7, lsl #16
    1624:	0001ca00 	andeq	ip, r1, r0, lsl #20
    1628:	50010800 	andpl	r0, r1, r0, lsl #16
    162c:	30040c05 	andcc	r0, r4, r5, lsl #24
    1630:	00002000 	andeq	r2, r0, r0
    1634:	00058d06 	andeq	r8, r5, r6, lsl #26
    1638:	2c100100 	ldfcss	f0, [r0], {-0}
    163c:	c0000000 	andgt	r0, r0, r0
    1640:	0c00008a 	stceq	0, cr0, [r0], {138}	; 0x8a
    1644:	01000000 	mrseq	r0, (UNDEF: 0)
    1648:	0000f99c 	muleq	r0, ip, r9
    164c:	00750900 	rsbseq	r0, r5, r0, lsl #18
    1650:	002c1401 	eoreq	r1, ip, r1, lsl #8
    1654:	50010000 	andpl	r0, r1, r0
    1658:	008ac80a 	addeq	ip, sl, sl, lsl #16
    165c:	00009e00 	andeq	r9, r0, r0, lsl #28
    1660:	de040000 	cdple	0, 0, cr0, cr4, cr0, {0}
    1664:	01000001 	tsteq	r0, r1
    1668:	008acc19 	addeq	ip, sl, r9, lsl ip
    166c:	00002400 	andeq	r2, r0, r0, lsl #8
    1670:	579c0100 	ldrpl	r0, [ip, r0, lsl #2]
    1674:	0b000001 	bleq	1680 <_start-0x6980>
    1678:	01007375 	tsteq	r0, r5, ror r3
    167c:	00002c19 	andeq	r2, r0, r9, lsl ip
    1680:	00087d00 	andeq	r7, r8, r0, lsl #26
    1684:	62720900 	rsbsvs	r0, r2, #0, 18
    1688:	2c1a0100 	ldfcss	f0, [sl], {-0}
    168c:	01000000 	mrseq	r0, (UNDEF: 0)
    1690:	8adc0c54 	bhi	ff7047e8 <__bss_end__+0xff6fa8f0>
    1694:	00100000 	andseq	r0, r0, r0
    1698:	014d0000 	mrseq	r0, (UNDEF: 77)
    169c:	720d0000 	andvc	r0, sp, #0
    16a0:	1c010061 	stcne	0, cr0, [r1], {97}	; 0x61
    16a4:	0000002c 	andeq	r0, r0, ip, lsr #32
    16a8:	0000089b 	muleq	r0, fp, r8
    16ac:	008ae00a 	addeq	lr, sl, sl
    16b0:	0000cb00 	andeq	ip, r0, r0, lsl #22
    16b4:	d80a0000 	stmdale	sl, {}	; <UNPREDICTABLE>
    16b8:	cb00008a 	blgt	18e8 <_start-0x6718>
    16bc:	00000000 	andeq	r0, r0, r0
    16c0:	00048c04 	andeq	r8, r4, r4, lsl #24
    16c4:	f0220100 			; <UNDEFINED> instruction: 0xf0220100
    16c8:	1400008a 	strne	r0, [r0], #-138	; 0x8a
    16cc:	01000000 	mrseq	r0, (UNDEF: 0)
    16d0:	0001909c 	muleq	r1, ip, r0
    16d4:	736d0b00 	cmnvc	sp, #0, 22
    16d8:	2c220100 	stfcss	f0, [r2], #-0
    16dc:	ae000000 	cdpge	0, 0, cr0, cr0, cr0, {0}
    16e0:	07000008 	streq	r0, [r0, -r8]
    16e4:	00008b00 	andeq	r8, r0, r0, lsl #22
    16e8:	000000f9 	strdeq	r0, [r0], -r9
    16ec:	07500108 	ldrbeq	r0, [r0, -r8, lsl #2]
    16f0:	0a5001f3 	beq	1401ec4 <__bss_end__+0x13f7fcc>
    16f4:	001e03e8 	andseq	r0, lr, r8, ror #7
    16f8:	05570400 	ldrbeq	r0, [r7, #-1024]	; 0x400
    16fc:	25010000 	strcs	r0, [r1, #-0]
    1700:	00008b04 	andeq	r8, r0, r4, lsl #22
    1704:	00000014 	andeq	r0, r0, r4, lsl r0
    1708:	01ca9c01 	biceq	r9, sl, r1, lsl #24
    170c:	730b0000 	movwvc	r0, #45056	; 0xb000
    1710:	01006365 	tsteq	r0, r5, ror #6
    1714:	00002c25 	andeq	r2, r0, r5, lsr #24
    1718:	0008cf00 	andeq	ip, r8, r0, lsl #30
    171c:	8b140700 	blhi	503324 <__bss_end__+0x4f942c>
    1720:	01570000 	cmpeq	r7, r0
    1724:	01080000 	mrseq	r0, (UNDEF: 8)
    1728:	01f30750 	mvnseq	r0, r0, asr r7
    172c:	03e80a50 	mvneq	r0, #80, 20	; 0x50000
    1730:	0e00001e 	mcreq	0, 0, r0, cr0, cr14, {0}
    1734:	00000574 	andeq	r0, r0, r4, ror r5
    1738:	002ca002 	eoreq	sl, ip, r2
    173c:	2c0f0000 	stccs	0, cr0, [pc], {-0}
    1740:	00000000 	andeq	r0, r0, r0
    1744:	0008cf00 	andeq	ip, r8, r0, lsl #30
    1748:	86000400 	strhi	r0, [r0], -r0, lsl #8
    174c:	04000008 	streq	r0, [r0], #-8
    1750:	00006501 	andeq	r6, r0, r1, lsl #10
    1754:	06270100 	strteq	r0, [r7], -r0, lsl #2
    1758:	03940000 	orrseq	r0, r4, #0
    175c:	8b180000 	blhi	601764 <__bss_end__+0x5f786c>
    1760:	05bc0000 	ldreq	r0, [ip, #0]!
    1764:	07f70000 	ldrbeq	r0, [r7, r0]!
    1768:	08020000 	stmdaeq	r2, {}	; <UNPREDICTABLE>
    176c:	00022b07 	andeq	r2, r2, r7, lsl #22
    1770:	07040200 	streq	r0, [r4, -r0, lsl #4]
    1774:	00000235 	andeq	r0, r0, r5, lsr r2
    1778:	20060102 	andcs	r0, r6, r2, lsl #2
    177c:	02000001 	andeq	r0, r0, #1
    1780:	02900502 	addseq	r0, r0, #8388608	; 0x800000
    1784:	04020000 	streq	r0, [r2], #-0
    1788:	00027c05 	andeq	r7, r2, r5, lsl #24
    178c:	05080200 	streq	r0, [r8, #-512]	; 0x200
    1790:	00000277 	andeq	r0, r0, r7, ror r2
    1794:	1e080102 	adfnee	f0, f0, f2
    1798:	02000001 	andeq	r0, r0, #1
    179c:	015a0702 	cmpeq	sl, r2, lsl #14
    17a0:	04020000 	streq	r0, [r2], #-0
    17a4:	00023007 	andeq	r3, r2, r7
    17a8:	05040300 	streq	r0, [r4, #-768]	; 0x300
    17ac:	00746e69 	rsbseq	r6, r4, r9, ror #28
    17b0:	5c070402 	cfstrspl	mvf0, [r7], {2}
    17b4:	02000002 	andeq	r0, r0, #2
    17b8:	01270801 	teqeq	r7, r1, lsl #16
    17bc:	01040000 	mrseq	r0, (UNDEF: 4)
    17c0:	00b20c02 	adcseq	r0, r2, r2, lsl #24
    17c4:	d3050000 	movwle	r0, #20480	; 0x5000
    17c8:	00000005 	andeq	r0, r0, r5
    17cc:	0006ef05 	andeq	lr, r6, r5, lsl #30
    17d0:	12050100 	andne	r0, r5, #0, 2
    17d4:	04000007 	streq	r0, [r0], #-7
    17d8:	00072105 	andeq	r2, r7, r5, lsl #2
    17dc:	30050500 	andcc	r0, r5, r0, lsl #10
    17e0:	06000007 	streq	r0, [r0], -r7
    17e4:	00073f05 	andeq	r3, r7, r5, lsl #30
    17e8:	4e050700 	cdpmi	7, 0, cr0, cr5, cr0, {0}
    17ec:	03000007 	movweq	r0, #7
    17f0:	00075d05 	andeq	r5, r7, r5, lsl #26
    17f4:	06000200 	streq	r0, [r0], -r0, lsl #4
    17f8:	00000706 	andeq	r0, r0, r6, lsl #14
    17fc:	00791502 	rsbseq	r1, r9, r2, lsl #10
    1800:	a1070000 	mrsge	r0, (UNDEF: 7)
    1804:	01000001 	tsteq	r0, r1
    1808:	008b183f 	addeq	r1, fp, pc, lsr r8
    180c:	0000d400 	andeq	sp, r0, r0, lsl #8
    1810:	339c0100 	orrscc	r0, ip, #0, 2
    1814:	08000001 	stmdaeq	r0, {r0}
    1818:	006e6970 	rsbeq	r6, lr, r0, ror r9
    181c:	002c3f01 	eoreq	r3, ip, r1, lsl #30
    1820:	08f00000 	ldmeq	r0!, {}^	; <UNPREDICTABLE>
    1824:	1e090000 	cdpne	0, 0, cr0, cr9, cr0, {0}
    1828:	01000006 	tsteq	r0, r6
    182c:	00013347 	andeq	r3, r1, r7, asr #6
    1830:	00090e00 	andeq	r0, r9, r0, lsl #28
    1834:	076c0900 	strbeq	r0, [ip, -r0, lsl #18]!
    1838:	49010000 	stmdbmi	r1, {}	; <UNPREDICTABLE>
    183c:	0000002c 	andeq	r0, r0, ip, lsr #32
    1840:	00000963 	andeq	r0, r0, r3, ror #18
    1844:	0006b009 	andeq	fp, r6, r9
    1848:	2c570100 	ldfcse	f0, [r7], {-0}
    184c:	2f000000 	svccs	0x00000000
    1850:	0a00000b 	beq	1884 <_start-0x677c>
    1854:	00008bac 	andeq	r8, r0, ip, lsr #23
    1858:	0000088e 	andeq	r0, r0, lr, lsl #17
    185c:	00000122 	andeq	r0, r0, r2, lsr #2
    1860:	0250010b 	subseq	r0, r0, #-1073741822	; 0xc0000002
    1864:	0c000075 	stceq	0, cr0, [r0], {117}	; 0x75
    1868:	00008be0 	andeq	r8, r0, r0, ror #23
    186c:	000008af 	andeq	r0, r0, pc, lsr #17
    1870:	0250010b 	subseq	r0, r0, #-1073741822	; 0xc0000002
    1874:	00000075 	andeq	r0, r0, r5, ror r0
    1878:	0139040d 	teqeq	r9, sp, lsl #8
    187c:	2c0e0000 	stccs	0, cr0, [lr], {-0}
    1880:	0f000000 	svceq	0x00000000
    1884:	000006d5 	ldrdeq	r0, [r0], -r5
    1888:	6c036001 	stcvs	0, cr6, [r3], {1}
    188c:	10000001 	andne	r0, r0, r1
    1890:	006e6970 	rsbeq	r6, lr, r0, ror r9
    1894:	002c6001 	eoreq	r6, ip, r1
    1898:	1e110000 	cdpne	0, 1, cr0, cr1, cr0, {0}
    189c:	01000006 	tsteq	r0, r6
    18a0:	00013367 	andeq	r3, r1, r7, ror #6
    18a4:	06b01100 	ldrteq	r1, [r0], r0, lsl #2
    18a8:	68010000 	stmdavs	r1, {}	; <UNPREDICTABLE>
    18ac:	0000002c 	andeq	r0, r0, ip, lsr #32
    18b0:	013e1200 	teqeq	lr, r0, lsl #4
    18b4:	8bec0000 	blhi	ffb018bc <__bss_end__+0xffaf79c4>
    18b8:	00380000 	eorseq	r0, r8, r0
    18bc:	9c010000 	stcls	0, cr0, [r1], {-0}
    18c0:	000001b0 			; <UNDEFINED> instruction: 0x000001b0
    18c4:	00014a13 	andeq	r4, r1, r3, lsl sl
    18c8:	000b5f00 	andeq	r5, fp, r0, lsl #30
    18cc:	01551400 	cmpeq	r5, r0, lsl #8
    18d0:	0b800000 	bleq	fe0018d8 <__bss_end__+0xfdff79e0>
    18d4:	60140000 	andsvs	r0, r4, r0
    18d8:	b6000001 	strlt	r0, [r0], -r1
    18dc:	0c00000b 	stceq	0, cr0, [r0], {11}
    18e0:	00008c1c 	andeq	r8, r0, ip, lsl ip
    18e4:	000008af 	andeq	r0, r0, pc, lsr #17
    18e8:	0751010b 	ldrbeq	r0, [r1, -fp, lsl #2]
    18ec:	5001f331 	andpl	pc, r1, r1, lsr r3	; <UNPREDICTABLE>
    18f0:	00241a4f 	eoreq	r1, r4, pc, asr #20
    18f4:	05e30f00 	strbeq	r0, [r3, #3840]!	; 0xf00
    18f8:	7b010000 	blvc	41900 <__bss_end__+0x37a08>
    18fc:	0001de03 	andeq	sp, r1, r3, lsl #28
    1900:	69701000 	ldmdbvs	r0!, {ip}^
    1904:	7b01006e 	blvc	41ac4 <__bss_end__+0x37bcc>
    1908:	0000002c 	andeq	r0, r0, ip, lsr #32
    190c:	00061e11 	andeq	r1, r6, r1, lsl lr
    1910:	33810100 	orrcc	r0, r1, #0, 2
    1914:	11000001 	tstne	r0, r1
    1918:	000006b0 			; <UNDEFINED> instruction: 0x000006b0
    191c:	002c8201 	eoreq	r8, ip, r1, lsl #4
    1920:	12000000 	andne	r0, r0, #0
    1924:	000001b0 			; <UNDEFINED> instruction: 0x000001b0
    1928:	00008c24 	andeq	r8, r0, r4, lsr #24
    192c:	00000038 	andeq	r0, r0, r8, lsr r0
    1930:	02229c01 	eoreq	r9, r2, #256	; 0x100
    1934:	bc130000 	ldclt	0, cr0, [r3], {-0}
    1938:	f6000001 			; <UNDEFINED> instruction: 0xf6000001
    193c:	1400000b 	strne	r0, [r0], #-11
    1940:	000001c7 	andeq	r0, r0, r7, asr #3
    1944:	00000c17 	andeq	r0, r0, r7, lsl ip
    1948:	0001d214 	andeq	sp, r1, r4, lsl r2
    194c:	000c4d00 	andeq	r4, ip, r0, lsl #26
    1950:	8c540c00 	mrrchi	12, 0, r0, r4, cr0
    1954:	08af0000 	stmiaeq	pc!, {}	; <UNPREDICTABLE>
    1958:	010b0000 	mrseq	r0, (UNDEF: 11)
    195c:	f3310751 	vaba.u<illegal width 64>	q0, <illegal reg q0.5>, <illegal reg q0.5>
    1960:	1a4f5001 	bne	13d596c <__bss_end__+0x13cba74>
    1964:	07000024 	streq	r0, [r0, -r4, lsr #32]
    1968:	0000016d 	andeq	r0, r0, sp, ror #2
    196c:	8c5c9501 	cfldr64hi	mvdx9, [ip], {1}
    1970:	00cc0000 	sbceq	r0, ip, r0
    1974:	9c010000 	stcls	0, cr0, [r1], {-0}
    1978:	00000298 	muleq	r0, r8, r2
    197c:	6e697008 	cdpvs	0, 6, cr7, cr9, cr8, {0}
    1980:	2c950100 	ldfcss	f0, [r5], {0}
    1984:	8d000000 	stchi	0, cr0, [r0, #-0]
    1988:	0900000c 	stmdbeq	r0, {r2, r3}
    198c:	0000061e 	andeq	r0, r0, lr, lsl r6
    1990:	01339b01 	teqeq	r3, r1, lsl #22
    1994:	0cab0000 	stceq	0, cr0, [fp]
    1998:	6c090000 	stcvs	0, cr0, [r9], {-0}
    199c:	01000007 	tsteq	r0, r7
    19a0:	00002c9d 	muleq	r0, sp, ip
    19a4:	000d0000 	andeq	r0, sp, r0
    19a8:	06b00900 	ldrteq	r0, [r0], r0, lsl #18
    19ac:	ab010000 	blge	419b4 <__bss_end__+0x37abc>
    19b0:	0000002c 	andeq	r0, r0, ip, lsr #32
    19b4:	00000ecc 	andeq	r0, r0, ip, asr #29
    19b8:	008cf00a 	addeq	pc, ip, sl
    19bc:	00088e00 	andeq	r8, r8, r0, lsl #28
    19c0:	00028700 	andeq	r8, r2, r0, lsl #14
    19c4:	50010b00 	andpl	r0, r1, r0, lsl #22
    19c8:	00007502 	andeq	r7, r0, r2, lsl #10
    19cc:	008d1c0c 	addeq	r1, sp, ip, lsl #24
    19d0:	0008af00 	andeq	sl, r8, r0, lsl #30
    19d4:	50010b00 	andpl	r0, r1, r0, lsl #22
    19d8:	00007502 	andeq	r7, r0, r2, lsl #10
    19dc:	01141500 	tsteq	r4, r0, lsl #10
    19e0:	b3010000 	movwlt	r0, #4096	; 0x1000
    19e4:	00000064 	andeq	r0, r0, r4, rrx
    19e8:	00008d28 	andeq	r8, r0, r8, lsr #26
    19ec:	0000004c 	andeq	r0, r0, ip, asr #32
    19f0:	02e09c01 	rsceq	r9, r0, #256	; 0x100
    19f4:	70080000 	andvc	r0, r8, r0
    19f8:	01006e69 	tsteq	r0, r9, ror #28
    19fc:	00002cb3 			; <UNDEFINED> instruction: 0x00002cb3
    1a00:	000eea00 	andeq	lr, lr, r0, lsl #20
    1a04:	00761600 	rsbseq	r1, r6, r0, lsl #12
    1a08:	002cb901 	eoreq	fp, ip, r1, lsl #18
    1a0c:	0f420000 	svceq	0x00420000
    1a10:	48170000 	ldmdami	r7, {}	; <UNPREDICTABLE>
    1a14:	8e00008d 	cdphi	0, 0, cr0, cr0, cr13, {4}
    1a18:	17000008 	strne	r0, [r0, -r8]
    1a1c:	00008d58 	andeq	r8, r0, r8, asr sp
    1a20:	0000088e 	andeq	r0, r0, lr, lsl #17
    1a24:	00100700 	andseq	r0, r0, r0, lsl #14
    1a28:	c5010000 	strgt	r0, [r1, #-0]
    1a2c:	00008d74 	andeq	r8, r0, r4, ror sp
    1a30:	00000078 	andeq	r0, r0, r8, ror r0
    1a34:	03aa9c01 			; <UNDEFINED> instruction: 0x03aa9c01
    1a38:	70080000 	andvc	r0, r8, r0
    1a3c:	01006e69 	tsteq	r0, r9, ror #28
    1a40:	00002cc5 	andeq	r2, r0, r5, asr #25
    1a44:	000f7800 	andeq	r7, pc, r0, lsl #16
    1a48:	00760800 	rsbseq	r0, r6, r0, lsl #16
    1a4c:	002cc501 	eoreq	ip, ip, r1, lsl #10
    1a50:	0fb20000 	svceq	0x00b20000
    1a54:	3e180000 	cdpcc	0, 1, cr0, cr8, cr0, {0}
    1a58:	88000001 	stmdahi	r0, {r0}
    1a5c:	3000008d 	andcc	r0, r0, sp, lsl #1
    1a60:	01000000 	mrseq	r0, (UNDEF: 0)
    1a64:	00035fcc 	andeq	r5, r3, ip, asr #31
    1a68:	014a1300 	mrseq	r1, (UNDEF: 122)
    1a6c:	0fec0000 	svceq	0x00ec0000
    1a70:	88190000 	ldmdahi	r9, {}	; <UNPREDICTABLE>
    1a74:	3000008d 	andcc	r0, r0, sp, lsl #1
    1a78:	14000000 	strne	r0, [r0], #-0
    1a7c:	00000155 	andeq	r0, r0, r5, asr r1
    1a80:	0000100d 	andeq	r1, r0, sp
    1a84:	00016014 	andeq	r6, r1, r4, lsl r0
    1a88:	00104300 	andseq	r4, r0, r0, lsl #6
    1a8c:	8db40c00 	ldchi	12, cr0, [r4]
    1a90:	08af0000 	stmiaeq	pc!, {}	; <UNPREDICTABLE>
    1a94:	010b0000 	mrseq	r0, (UNDEF: 11)
    1a98:	f3310751 	vaba.u<illegal width 64>	q0, <illegal reg q0.5>, <illegal reg q0.5>
    1a9c:	1a4f5001 	bne	13d5aa8 <__bss_end__+0x13cbbb0>
    1aa0:	00000024 	andeq	r0, r0, r4, lsr #32
    1aa4:	0001b01a 	andeq	fp, r1, sl, lsl r0
    1aa8:	008db800 	addeq	fp, sp, r0, lsl #16
    1aac:	00003400 	andeq	r3, r0, r0, lsl #8
    1ab0:	13ce0100 	bicne	r0, lr, #0, 2
    1ab4:	000001bc 			; <UNDEFINED> instruction: 0x000001bc
    1ab8:	00001083 	andeq	r1, r0, r3, lsl #1
    1abc:	008db819 	addeq	fp, sp, r9, lsl r8
    1ac0:	00003400 	andeq	r3, r0, r0, lsl #8
    1ac4:	01c71400 	biceq	r1, r7, r0, lsl #8
    1ac8:	10a40000 	adcne	r0, r4, r0
    1acc:	d2140000 	andsle	r0, r4, #0
    1ad0:	da000001 	ble	1adc <_start-0x6524>
    1ad4:	0c000010 	stceq	0, cr0, [r0], {16}
    1ad8:	00008de4 	andeq	r8, r0, r4, ror #27
    1adc:	000008af 	andeq	r0, r0, pc, lsr #17
    1ae0:	0751010b 	ldrbeq	r0, [r1, -fp, lsl #2]
    1ae4:	5001f331 	andpl	pc, r1, r1, lsr r3	; <UNPREDICTABLE>
    1ae8:	00241a4f 	eoreq	r1, r4, pc, asr #20
    1aec:	07000000 	streq	r0, [r0, -r0]
    1af0:	00000674 	andeq	r0, r0, r4, ror r6
    1af4:	8decd101 	stfhip	f5, [ip, #4]!
    1af8:	00d80000 	sbcseq	r0, r8, r0
    1afc:	9c010000 	stcls	0, cr0, [r1], {-0}
    1b00:	0000042f 	andeq	r0, r0, pc, lsr #8
    1b04:	6e697008 	cdpvs	0, 6, cr7, cr9, cr8, {0}
    1b08:	2cd10100 	ldfcse	f0, [r1], {0}
    1b0c:	1a000000 	bne	1b14 <_start-0x64ec>
    1b10:	1b000011 	blne	1b5c <_start-0x64a4>
    1b14:	000006c2 	andeq	r0, r0, r2, asr #13
    1b18:	00b2d101 	adcseq	sp, r2, r1, lsl #2
    1b1c:	11380000 	teqne	r8, r0
    1b20:	1e090000 	cdpne	0, 0, cr0, cr9, cr0, {0}
    1b24:	01000006 	tsteq	r0, r6
    1b28:	000133d9 	ldrdeq	r3, [r1], -r9
    1b2c:	00115900 	andseq	r5, r1, r0, lsl #18
    1b30:	076c0900 	strbeq	r0, [ip, -r0, lsl #18]!
    1b34:	da010000 	ble	41b3c <__bss_end__+0x37c44>
    1b38:	0000002c 	andeq	r0, r0, ip, lsr #32
    1b3c:	000011ae 	andeq	r1, r0, lr, lsr #3
    1b40:	0006b009 	andeq	fp, r6, r9
    1b44:	2ce80100 	stfcse	f0, [r8]
    1b48:	7a000000 	bvc	1b50 <_start-0x64b0>
    1b4c:	0a000013 	beq	1ba0 <_start-0x6460>
    1b50:	00008e88 	andeq	r8, r0, r8, lsl #29
    1b54:	0000088e 	andeq	r0, r0, lr, lsl #17
    1b58:	0000041e 	andeq	r0, r0, lr, lsl r4
    1b5c:	0250010b 	subseq	r0, r0, #-1073741822	; 0xc0000002
    1b60:	0c000076 	stceq	0, cr0, [r0], {118}	; 0x76
    1b64:	00008eb8 			; <UNDEFINED> instruction: 0x00008eb8
    1b68:	000008af 	andeq	r0, r0, pc, lsr #17
    1b6c:	0250010b 	subseq	r0, r0, #-1073741822	; 0xc0000002
    1b70:	00000076 	andeq	r0, r0, r6, ror r0
    1b74:	00032e1c 	andeq	r2, r3, ip, lsl lr
    1b78:	01050100 	mrseq	r0, (UNDEF: 21)
    1b7c:	00000064 	andeq	r0, r0, r4, rrx
    1b80:	00008ec4 	andeq	r8, r0, r4, asr #29
    1b84:	0000002c 	andeq	r0, r0, ip, lsr #32
    1b88:	04639c01 	strbteq	r9, [r3], #-3073	; 0xc01
    1b8c:	311d0000 	tstcc	sp, r0
    1b90:	01000003 	tsteq	r0, r3
    1b94:	002c0105 	eoreq	r0, ip, r5, lsl #2
    1b98:	13ab0000 			; <UNDEFINED> instruction: 0x13ab0000
    1b9c:	d4170000 	ldrle	r0, [r7], #-0
    1ba0:	8e00008e 	cdphi	0, 0, cr0, cr0, cr14, {4}
    1ba4:	00000008 	andeq	r0, r0, r8
    1ba8:	00029a1e 	andeq	r9, r2, lr, lsl sl
    1bac:	01140100 	tsteq	r4, r0, lsl #2
    1bb0:	00008ef0 	strdeq	r8, [r0], -r0
    1bb4:	00000084 	andeq	r0, r0, r4, lsl #1
    1bb8:	05279c01 	streq	r9, [r7, #-3073]!	; 0xc01
    1bbc:	701f0000 	andsvc	r0, pc, r0
    1bc0:	01006e69 	tsteq	r0, r9, ror #28
    1bc4:	002c0114 	eoreq	r0, ip, r4, lsl r1
    1bc8:	13cc0000 	bicne	r0, ip, #0
    1bcc:	f0200000 			; <UNDEFINED> instruction: 0xf0200000
    1bd0:	01000005 	tsteq	r0, r5
    1bd4:	002c0126 	eoreq	r0, ip, r6, lsr #2
    1bd8:	13f80000 	mvnsne	r0, #0
    1bdc:	0c210000 	stceq	0, cr0, [r1], #-0
    1be0:	1c00008f 	stcne	0, cr0, [r0], {143}	; 0x8f
    1be4:	c9000000 	stmdbgt	r0, {}	; <UNPREDICTABLE>
    1be8:	20000004 	andcs	r0, r0, r4
    1bec:	000006b0 			; <UNDEFINED> instruction: 0x000006b0
    1bf0:	2c011d01 	stccs	13, cr1, [r1], {1}
    1bf4:	16000000 	strne	r0, [r0], -r0
    1bf8:	17000014 	smladne	r0, r4, r0, r0
    1bfc:	00008f18 	andeq	r8, r0, r8, lsl pc
    1c00:	0000088e 	andeq	r0, r0, lr, lsl #17
    1c04:	008f2817 	addeq	r2, pc, r7, lsl r8	; <UNPREDICTABLE>
    1c08:	0008af00 	andeq	sl, r8, r0, lsl #30
    1c0c:	2c210000 	stccs	0, cr0, [r1], #-0
    1c10:	2000008f 	andcs	r0, r0, pc, lsl #1
    1c14:	f9000000 			; <UNDEFINED> instruction: 0xf9000000
    1c18:	20000004 	andcs	r0, r0, r4
    1c1c:	000006b0 			; <UNDEFINED> instruction: 0x000006b0
    1c20:	2c012101 	stfcss	f2, [r1], {1}
    1c24:	34000000 	strcc	r0, [r0], #-0
    1c28:	17000014 	smladne	r0, r4, r0, r0
    1c2c:	00008f38 	andeq	r8, r0, r8, lsr pc
    1c30:	0000088e 	andeq	r0, r0, lr, lsl #17
    1c34:	008f4c17 	addeq	r4, pc, r7, lsl ip	; <UNPREDICTABLE>
    1c38:	0008af00 	andeq	sl, r8, r0, lsl #30
    1c3c:	04170000 	ldreq	r0, [r7], #-0
    1c40:	cb00008f 	blgt	1e84 <_start-0x617c>
    1c44:	17000008 	strne	r0, [r0, -r8]
    1c48:	00008f50 	andeq	r8, r0, r0, asr pc
    1c4c:	000008cb 	andeq	r0, r0, fp, asr #17
    1c50:	008f5c17 	addeq	r5, pc, r7, lsl ip	; <UNPREDICTABLE>
    1c54:	00088e00 	andeq	r8, r8, r0, lsl #28
    1c58:	8f681700 	svchi	0x00681700
    1c5c:	08af0000 	stmiaeq	pc!, {}	; <UNPREDICTABLE>
    1c60:	6c170000 	ldcvs	0, cr0, [r7], {-0}
    1c64:	cb00008f 	blgt	1ea8 <_start-0x6158>
    1c68:	00000008 	andeq	r0, r0, r8
    1c6c:	0001831e 	andeq	r8, r1, lr, lsl r3
    1c70:	01310100 	teqeq	r1, r0, lsl #2
    1c74:	00008f74 	andeq	r8, r0, r4, ror pc
    1c78:	00000084 	andeq	r0, r0, r4, lsl #1
    1c7c:	05eb9c01 	strbeq	r9, [fp, #3073]!	; 0xc01
    1c80:	701f0000 	andsvc	r0, pc, r0
    1c84:	01006e69 	tsteq	r0, r9, ror #28
    1c88:	002c0131 	eoreq	r0, ip, r1, lsr r1
    1c8c:	14520000 	ldrbne	r0, [r2], #-0
    1c90:	f0200000 			; <UNDEFINED> instruction: 0xf0200000
    1c94:	01000005 	tsteq	r0, r5
    1c98:	002c0142 	eoreq	r0, ip, r2, asr #2
    1c9c:	147e0000 	ldrbtne	r0, [lr], #-0
    1ca0:	90210000 	eorls	r0, r1, r0
    1ca4:	1c00008f 	stcne	0, cr0, [r0], {143}	; 0x8f
    1ca8:	8d000000 	stchi	0, cr0, [r0, #-0]
    1cac:	20000005 	andcs	r0, r0, r5
    1cb0:	000006b0 			; <UNDEFINED> instruction: 0x000006b0
    1cb4:	2c013901 	stccs	9, cr3, [r1], {1}
    1cb8:	9c000000 	stcls	0, cr0, [r0], {-0}
    1cbc:	17000014 	smladne	r0, r4, r0, r0
    1cc0:	00008f9c 	muleq	r0, ip, pc	; <UNPREDICTABLE>
    1cc4:	0000088e 	andeq	r0, r0, lr, lsl #17
    1cc8:	008fac17 	addeq	sl, pc, r7, lsl ip	; <UNPREDICTABLE>
    1ccc:	0008af00 	andeq	sl, r8, r0, lsl #30
    1cd0:	b0210000 	eorlt	r0, r1, r0
    1cd4:	2000008f 	andcs	r0, r0, pc, lsl #1
    1cd8:	bd000000 	stclt	0, cr0, [r0, #-0]
    1cdc:	20000005 	andcs	r0, r0, r5
    1ce0:	000006b0 			; <UNDEFINED> instruction: 0x000006b0
    1ce4:	2c013d01 	stccs	13, cr3, [r1], {1}
    1ce8:	ba000000 	blt	1cf0 <_start-0x6310>
    1cec:	17000014 	smladne	r0, r4, r0, r0
    1cf0:	00008fbc 			; <UNDEFINED> instruction: 0x00008fbc
    1cf4:	0000088e 	andeq	r0, r0, lr, lsl #17
    1cf8:	008fd017 	addeq	sp, pc, r7, lsl r0	; <UNPREDICTABLE>
    1cfc:	0008af00 	andeq	sl, r8, r0, lsl #30
    1d00:	88170000 	ldmdahi	r7, {}	; <UNPREDICTABLE>
    1d04:	cb00008f 	blgt	1f48 <_start-0x60b8>
    1d08:	17000008 	strne	r0, [r0, -r8]
    1d0c:	00008fd4 	ldrdeq	r8, [r0], -r4
    1d10:	000008cb 	andeq	r0, r0, fp, asr #17
    1d14:	008fe017 	addeq	lr, pc, r7, lsl r0	; <UNPREDICTABLE>
    1d18:	00088e00 	andeq	r8, r8, r0, lsl #28
    1d1c:	8fec1700 	svchi	0x00ec1700
    1d20:	08af0000 	stmiaeq	pc!, {}	; <UNPREDICTABLE>
    1d24:	f0170000 			; <UNDEFINED> instruction: 0xf0170000
    1d28:	cb00008f 	blgt	1f6c <_start-0x6094>
    1d2c:	00000008 	andeq	r0, r0, r8
    1d30:	00059c1c 	andeq	r9, r5, ip, lsl ip
    1d34:	014c0100 	mrseq	r0, (UNDEF: 92)
    1d38:	00000064 	andeq	r0, r0, r4, rrx
    1d3c:	00008ff8 	strdeq	r8, [r0], -r8	; <UNPREDICTABLE>
    1d40:	00000084 	andeq	r0, r0, r4, lsl #1
    1d44:	06919c01 	ldreq	r9, [r1], r1, lsl #24
    1d48:	701f0000 	andsvc	r0, pc, r0
    1d4c:	01006e69 	tsteq	r0, r9, ror #28
    1d50:	002c014c 	eoreq	r0, ip, ip, asr #2
    1d54:	14d80000 	ldrbne	r0, [r8], #0
    1d58:	14210000 	strtne	r0, [r1], #-0
    1d5c:	24000090 	strcs	r0, [r0], #-144	; 0x90
    1d60:	45000000 	strmi	r0, [r0, #-0]
    1d64:	20000006 	andcs	r0, r0, r6
    1d68:	00000607 	andeq	r0, r0, r7, lsl #12
    1d6c:	2c015301 	stccs	3, cr5, [r1], {1}
    1d70:	1a000000 	bne	1d78 <_start-0x6288>
    1d74:	17000015 	smladne	r0, r5, r0, r0
    1d78:	00009020 	andeq	r9, r0, r0, lsr #32
    1d7c:	0000088e 	andeq	r0, r0, lr, lsl #17
    1d80:	00903017 	addseq	r3, r0, r7, lsl r0
    1d84:	0008cb00 	andeq	ip, r8, r0, lsl #22
    1d88:	38210000 	stmdacc	r1!, {}	; <UNPREDICTABLE>
    1d8c:	2c000090 	stccs	0, cr0, [r0], {144}	; 0x90
    1d90:	7e000000 	cdpvc	0, 0, cr0, cr0, cr0, {0}
    1d94:	20000006 	andcs	r0, r0, r6
    1d98:	00000607 	andeq	r0, r0, r7, lsl #12
    1d9c:	2c015601 	stccs	6, cr5, [r1], {1}
    1da0:	34000000 	strcc	r0, [r0], #-0
    1da4:	17000015 	smladne	r0, r5, r0, r0
    1da8:	00009044 	andeq	r9, r0, r4, asr #32
    1dac:	0000088e 	andeq	r0, r0, lr, lsl #17
    1db0:	00905017 	addseq	r5, r0, r7, lsl r0
    1db4:	0008cb00 	andeq	ip, r8, r0, lsl #22
    1db8:	905c1700 	subsls	r1, ip, r0, lsl #14
    1dbc:	08cb0000 	stmiaeq	fp, {}^	; <UNPREDICTABLE>
    1dc0:	17000000 	strne	r0, [r0, -r0]
    1dc4:	0000900c 	andeq	r9, r0, ip
    1dc8:	000008cb 	andeq	r0, r0, fp, asr #17
    1dcc:	00906817 	addseq	r6, r0, r7, lsl r8
    1dd0:	0008cb00 	andeq	ip, r8, r0, lsl #22
    1dd4:	f71e0000 			; <UNDEFINED> instruction: 0xf71e0000
    1dd8:	01000001 	tsteq	r0, r1
    1ddc:	907c015f 	rsbsls	r0, ip, pc, asr r1
    1de0:	00580000 	subseq	r0, r8, r0
    1de4:	9c010000 	stcls	0, cr0, [r1], {-0}
    1de8:	000006f6 	strdeq	r0, [r0], -r6
    1dec:	6e69701f 	mcrvs	0, 3, r7, cr9, cr15, {0}
    1df0:	015f0100 	cmpeq	pc, r0, lsl #2
    1df4:	0000002c 	andeq	r0, r0, ip, lsr #32
    1df8:	00001547 	andeq	r1, r0, r7, asr #10
    1dfc:	00909017 	addseq	r9, r0, r7, lsl r0
    1e00:	0008cb00 	andeq	ip, r8, r0, lsl #22
    1e04:	90ac0a00 	adcls	r0, ip, r0, lsl #20
    1e08:	08af0000 	stmiaeq	pc!, {}	; <UNPREDICTABLE>
    1e0c:	06d60000 	ldrbeq	r0, [r6], r0
    1e10:	010b0000 	mrseq	r0, (UNDEF: 11)
    1e14:	74310451 	ldrtvc	r0, [r1], #-1105	; 0x451
    1e18:	0a002400 	beq	ae20 <__bss_end__+0xf28>
    1e1c:	000090c8 	andeq	r9, r0, r8, asr #1
    1e20:	000008af 	andeq	r0, r0, pc, lsr #17
    1e24:	000006ec 	andeq	r0, r0, ip, ror #13
    1e28:	0451010b 	ldrbeq	r0, [r1], #-267	; 0x10b
    1e2c:	24007431 	strcs	r7, [r0], #-1073	; 0x431
    1e30:	90cc1700 	sbcls	r1, ip, r0, lsl #14
    1e34:	08cb0000 	stmiaeq	fp, {}^	; <UNPREDICTABLE>
    1e38:	22000000 	andcs	r0, r0, #0
    1e3c:	00000662 	andeq	r0, r0, r2, ror #12
    1e40:	01332801 	teqeq	r3, r1, lsl #16
    1e44:	03050000 	movweq	r0, #20480	; 0x5000
    1e48:	000095a8 	andeq	r9, r0, r8, lsr #11
    1e4c:	0006b822 	andeq	fp, r6, r2, lsr #16
    1e50:	33290100 	teqcc	r9, #0, 2
    1e54:	05000001 	streq	r0, [r0, #-1]
    1e58:	0095a403 	addseq	sl, r5, r3, lsl #8
    1e5c:	07772200 	ldrbeq	r2, [r7, -r0, lsl #4]!
    1e60:	2a010000 	bcs	41e68 <__bss_end__+0x37f70>
    1e64:	00000133 	andeq	r0, r0, r3, lsr r1
    1e68:	95a00305 	strls	r0, [r0, #773]!	; 0x305
    1e6c:	2e220000 	cdpcs	0, 2, cr0, cr2, cr0, {0}
    1e70:	01000006 	tsteq	r0, r6
    1e74:	0001332c 	andeq	r3, r1, ip, lsr #6
    1e78:	4c030500 	cfstr32mi	mvfx0, [r3], {-0}
    1e7c:	22000095 	andcs	r0, r0, #149	; 0x95
    1e80:	00000636 	andeq	r0, r0, r6, lsr r6
    1e84:	01332d01 	teqeq	r3, r1, lsl #26
    1e88:	03050000 	movweq	r0, #20480	; 0x5000
    1e8c:	00009550 	andeq	r9, r0, r0, asr r5
    1e90:	0005b622 	andeq	fp, r5, r2, lsr #12
    1e94:	332e0100 	teqcc	lr, #0, 2
    1e98:	05000001 	streq	r0, [r0, #-1]
    1e9c:	00955403 	addseq	r5, r5, r3, lsl #8
    1ea0:	063e2200 	ldrteq	r2, [lr], -r0, lsl #4
    1ea4:	2f010000 	svccs	0x00010000
    1ea8:	00000133 	andeq	r0, r0, r3, lsr r1
    1eac:	95580305 	ldrbls	r0, [r8, #-773]	; 0x305
    1eb0:	46220000 	strtmi	r0, [r2], -r0
    1eb4:	01000006 	tsteq	r0, r6
    1eb8:	00013330 	andeq	r3, r1, r0, lsr r3
    1ebc:	5c030500 	cfstr32pl	mvfx0, [r3], {-0}
    1ec0:	22000095 	andcs	r0, r0, #149	; 0x95
    1ec4:	0000064e 	andeq	r0, r0, lr, asr #12
    1ec8:	01333101 	teqeq	r3, r1, lsl #2
    1ecc:	03050000 	movweq	r0, #20480	; 0x5000
    1ed0:	00009560 	andeq	r9, r0, r0, ror #10
    1ed4:	0005f922 	andeq	pc, r5, r2, lsr #18
    1ed8:	33330100 	teqcc	r3, #0, 2
    1edc:	05000001 	streq	r0, [r0, #-1]
    1ee0:	00956403 	addseq	r6, r5, r3, lsl #8
    1ee4:	06002200 	streq	r2, [r0], -r0, lsl #4
    1ee8:	34010000 	strcc	r0, [r1], #-0
    1eec:	00000133 	andeq	r0, r0, r3, lsr r1
    1ef0:	95680305 	strbls	r0, [r8, #-773]!	; 0x305
    1ef4:	be220000 	cdplt	0, 2, cr0, cr2, cr0, {0}
    1ef8:	01000005 	tsteq	r0, r5
    1efc:	00013336 	andeq	r3, r1, r6, lsr r3
    1f00:	6c030500 	cfstr32vs	mvfx0, [r3], {-0}
    1f04:	22000095 	andcs	r0, r0, #149	; 0x95
    1f08:	0000066d 	andeq	r0, r0, sp, ror #12
    1f0c:	01333701 	teqeq	r3, r1, lsl #14
    1f10:	03050000 	movweq	r0, #20480	; 0x5000
    1f14:	00009570 	andeq	r9, r0, r0, ror r5
    1f18:	00061022 	andeq	r1, r6, r2, lsr #32
    1f1c:	33390100 	teqcc	r9, #0, 2
    1f20:	05000001 	streq	r0, [r0, #-1]
    1f24:	00957403 	addseq	r7, r5, r3, lsl #8
    1f28:	06172200 	ldreq	r2, [r7], -r0, lsl #4
    1f2c:	3a010000 	bcc	41f34 <__bss_end__+0x3803c>
    1f30:	00000133 	andeq	r0, r0, r3, lsr r1
    1f34:	95780305 	ldrbls	r0, [r8, #-773]!	; 0x305
    1f38:	94220000 	strtls	r0, [r2], #-0
    1f3c:	01000006 	tsteq	r0, r6
    1f40:	000133f0 	strdeq	r3, [r1], -r0
    1f44:	9c030500 	cfstr32ls	mvfx0, [r3], {-0}
    1f48:	22000095 	andcs	r0, r0, #149	; 0x95
    1f4c:	000006a2 	andeq	r0, r0, r2, lsr #13
    1f50:	0133f101 	teqeq	r3, r1, lsl #2
    1f54:	03050000 	movweq	r0, #20480	; 0x5000
    1f58:	0000957c 	andeq	r9, r0, ip, ror r5
    1f5c:	0006c722 	andeq	ip, r6, r2, lsr #14
    1f60:	33f30100 	mvnscc	r0, #0, 2
    1f64:	05000001 	streq	r0, [r0, #-1]
    1f68:	00959403 	addseq	r9, r5, r3, lsl #8
    1f6c:	06ce2200 	strbeq	r2, [lr], r0, lsl #4
    1f70:	f4010000 	vst4.8	{d0-d3}, [r1], r0
    1f74:	00000133 	andeq	r0, r0, r3, lsr r1
    1f78:	95980305 	ldrls	r0, [r8, #773]	; 0x305
    1f7c:	86220000 	strthi	r0, [r2], -r0
    1f80:	01000006 	tsteq	r0, r6
    1f84:	000133f6 	strdeq	r3, [r1], -r6
    1f88:	80030500 	andhi	r0, r3, r0, lsl #10
    1f8c:	22000095 	andcs	r0, r0, #149	; 0x95
    1f90:	0000068d 	andeq	r0, r0, sp, lsl #13
    1f94:	0133f701 	teqeq	r3, r1, lsl #14
    1f98:	03050000 	movweq	r0, #20480	; 0x5000
    1f9c:	00009584 	andeq	r9, r0, r4, lsl #11
    1fa0:	0006e122 	andeq	lr, r6, r2, lsr #2
    1fa4:	33f90100 	mvnscc	r0, #0, 2
    1fa8:	05000001 	streq	r0, [r0, #-1]
    1fac:	00958c03 	addseq	r8, r5, r3, lsl #24
    1fb0:	06e82200 	strbteq	r2, [r8], r0, lsl #4
    1fb4:	fa010000 	blx	41fbc <__bss_end__+0x380c4>
    1fb8:	00000133 	andeq	r0, r0, r3, lsr r1
    1fbc:	95900305 	ldrls	r0, [r0, #773]	; 0x305
    1fc0:	c5220000 	strgt	r0, [r2, #-0]!
    1fc4:	01000005 	tsteq	r0, r5
    1fc8:	000133fc 	strdeq	r3, [r1], -ip
    1fcc:	88030500 	stmdahi	r3, {r8, sl}
    1fd0:	23000095 	movwcs	r0, #149	; 0x95
    1fd4:	00000700 	andeq	r0, r0, r0, lsl #14
    1fd8:	002c2001 	eoreq	r2, ip, r1
    1fdc:	08a30000 	stmiaeq	r3!, {}	; <UNPREDICTABLE>
    1fe0:	a3240000 	teqge	r4, #0
    1fe4:	00000008 	andeq	r0, r0, r8
    1fe8:	08a9040d 	stmiaeq	r9!, {r0, r2, r3, sl}
    1fec:	ae250000 	cdpge	0, 2, cr0, cr5, cr0, {0}
    1ff0:	26000008 	strcs	r0, [r0], -r8
    1ff4:	0005b027 	andeq	fp, r5, r7, lsr #32
    1ff8:	c51e0100 	ldrgt	r0, [lr, #-256]	; 0x100
    1ffc:	24000008 	strcs	r0, [r0], #-8
    2000:	000008c5 	andeq	r0, r0, r5, asr #17
    2004:	00002c24 	andeq	r2, r0, r4, lsr #24
    2008:	040d0000 	streq	r0, [sp], #-0
    200c:	000008ae 	andeq	r0, r0, lr, lsr #17
    2010:	00065628 	andeq	r5, r6, r8, lsr #12
    2014:	00840300 	addeq	r0, r4, r0, lsl #6
    2018:	00000556 	andeq	r0, r0, r6, asr r5
    201c:	0ac90004 	beq	ff242034 <__bss_end__+0xff23813c>
    2020:	01040000 	mrseq	r0, (UNDEF: 4)
    2024:	00000065 	andeq	r0, r0, r5, rrx
    2028:	00083c01 	andeq	r3, r8, r1, lsl #24
    202c:	00039400 	andeq	r9, r3, r0, lsl #8
    2030:	0090d400 	addseq	sp, r0, r0, lsl #8
    2034:	0001d000 	andeq	sp, r1, r0
    2038:	0008f400 	andeq	pc, r8, r0, lsl #8
    203c:	05040200 	streq	r0, [r4, #-512]	; 0x200
    2040:	00746e69 	rsbseq	r6, r4, r9, ror #28
    2044:	35070403 	strcc	r0, [r7, #-1027]	; 0x403
    2048:	03000002 	movweq	r0, #2
    204c:	01200601 	teqeq	r0, r1, lsl #12
    2050:	02030000 	andeq	r0, r3, #0
    2054:	00029005 	andeq	r9, r2, r5
    2058:	05040300 	streq	r0, [r4, #-768]	; 0x300
    205c:	0000027c 	andeq	r0, r0, ip, ror r2
    2060:	77050803 	strvc	r0, [r5, -r3, lsl #16]
    2064:	03000002 	movweq	r0, #2
    2068:	011e0801 	tsteq	lr, r1, lsl #16
    206c:	02030000 	andeq	r0, r3, #0
    2070:	00015a07 	andeq	r5, r1, r7, lsl #20
    2074:	07040300 	streq	r0, [r4, -r0, lsl #6]
    2078:	00000230 	andeq	r0, r0, r0, lsr r2
    207c:	2b070803 	blcs	1c4090 <__bss_end__+0x1ba198>
    2080:	03000002 	movweq	r0, #2
    2084:	025c0704 	subseq	r0, ip, #4, 14	; 0x100000
    2088:	01030000 	mrseq	r0, (UNDEF: 3)
    208c:	00012708 	andeq	r2, r1, r8, lsl #14
    2090:	7f040400 	svcvc	0x00040400
    2094:	05000000 	streq	r0, [r0, #-0]
    2098:	00000072 	andeq	r0, r0, r2, ror r0
    209c:	00007206 	andeq	r7, r0, r6, lsl #4
    20a0:	00009400 	andeq	r9, r0, r0, lsl #8
    20a4:	006b0700 	rsbeq	r0, fp, r0, lsl #14
    20a8:	00190000 	andseq	r0, r9, r0
    20ac:	14030408 	strne	r0, [r3], #-1032	; 0x408
    20b0:	0000010b 	andeq	r0, r0, fp, lsl #2
    20b4:	0008e209 	andeq	lr, r8, r9, lsl #4
    20b8:	82e48000 	rschi	r8, r4, #0
    20bc:	c7090280 	strgt	r0, [r9, -r0, lsl #5]
    20c0:	80000007 	andhi	r0, r0, r7
    20c4:	028082e4 	addeq	r8, r0, #228, 4	; 0x4000000e
    20c8:	00085c09 	andeq	r5, r8, r9, lsl #24
    20cc:	82e48400 	rschi	r8, r4, #0, 8
    20d0:	2e090280 	cdpcs	2, 0, cr0, cr9, cr0, {4}
    20d4:	88000008 	stmdahi	r0, {r3}
    20d8:	028082e4 	addeq	r8, r0, #228, 4	; 0x4000000e
    20dc:	0007aa09 	andeq	sl, r7, r9, lsl #20
    20e0:	82e48c00 	rschi	r8, r4, #0, 24
    20e4:	eb090280 	bl	242aec <__bss_end__+0x238bf4>
    20e8:	90000007 	andls	r0, r0, r7
    20ec:	028082e4 	addeq	r8, r0, #228, 4	; 0x4000000e
    20f0:	0007f909 	andeq	pc, r7, r9, lsl #18
    20f4:	82e49400 	rschi	r9, r4, #0, 8
    20f8:	d9090280 	stmdble	r9, {r7, r9}
    20fc:	98000007 	stmdals	r0, {r0, r1, r2}
    2100:	028082e4 	addeq	r8, r0, #228, 4	; 0x4000000e
    2104:	0008ae09 	andeq	sl, r8, r9, lsl #28
    2108:	82e49c00 	rschi	r9, r4, #0, 24
    210c:	bd090280 	sfmlt	f0, 4, [r9, #-512]	; 0xfffffe00
    2110:	a0000008 	andge	r0, r0, r8
    2114:	028082e4 	addeq	r8, r0, #228, 4	; 0x4000000e
    2118:	00079709 	andeq	r9, r7, r9, lsl #14
    211c:	82e4a400 	rschi	sl, r4, #0, 8
    2120:	0a000280 	beq	2b28 <_start-0x54d8>
    2124:	00000349 	andeq	r0, r0, r9, asr #6
    2128:	90d40501 	sbcsls	r0, r4, r1, lsl #10
    212c:	00680000 	rsbeq	r0, r8, r0
    2130:	9c010000 	stcls	0, cr0, [r1], {-0}
    2134:	000001b7 			; <UNDEFINED> instruction: 0x000001b7
    2138:	0007b60b 	andeq	fp, r7, fp, lsl #12
    213c:	2c110100 	ldfcss	f0, [r1], {-0}
    2140:	0b000000 	bleq	2148 <_start-0x5eb8>
    2144:	00000807 	andeq	r0, r0, r7, lsl #16
    2148:	002c1201 	eoreq	r1, ip, r1, lsl #4
    214c:	640c0000 	strvs	r0, [ip], #-0
    2150:	01007473 	tsteq	r0, r3, ror r4
    2154:	0001b716 	andeq	fp, r1, r6, lsl r7
    2158:	730d0000 	movwvc	r0, #53248	; 0xd000
    215c:	01006372 	tsteq	r0, r2, ror r3
    2160:	0001b717 	andeq	fp, r1, r7, lsl r7
    2164:	006e0e00 	rsbeq	r0, lr, r0, lsl #28
    2168:	002c1801 	eoreq	r1, ip, r1, lsl #16
    216c:	50010000 	andpl	r0, r1, r0
    2170:	0091040f 	addseq	r0, r1, pc, lsl #8
    2174:	00002400 	andeq	r2, r0, r0, lsl #8
    2178:	00017300 	andeq	r7, r1, r0, lsl #6
    217c:	00691000 	rsbeq	r1, r9, r0
    2180:	00251901 	eoreq	r1, r5, r1, lsl #18
    2184:	15730000 	ldrbne	r0, [r3, #-0]!
    2188:	11000000 	mrsne	r0, (UNDEF: 0)
    218c:	000090e4 	andeq	r9, r0, r4, ror #1
    2190:	0000051f 	andeq	r0, r0, pc, lsl r5
    2194:	00000190 	muleq	r0, r0, r1
    2198:	02510112 	subseq	r0, r1, #-2147483644	; 0x80000004
    219c:	0112ff09 	tsteq	r2, r9, lsl #30
    21a0:	1c0c0550 	cfstr32ne	mvfx0, [ip], {80}	; 0x50
    21a4:	002000b2 	strhteq	r0, [r0], -r2
    21a8:	0090f011 	addseq	pc, r0, r1, lsl r0	; <UNPREDICTABLE>
    21ac:	00051f00 	andeq	r1, r5, r0, lsl #30
    21b0:	0001ad00 	andeq	sl, r1, r0, lsl #26
    21b4:	51011200 	mrspl	r1, R9_usr
    21b8:	12ff0902 	rscsne	r0, pc, #32768	; 0x8000
    21bc:	0c055001 	stceq	0, cr5, [r5], {1}
    21c0:	2000b220 	andcs	fp, r0, r0, lsr #4
    21c4:	90f41300 	rscsls	r1, r4, r0, lsl #6
    21c8:	05350000 	ldreq	r0, [r5, #-0]!
    21cc:	04000000 	streq	r0, [r0], #-0
    21d0:	00002c04 	andeq	r2, r0, r4, lsl #24
    21d4:	08cc0a00 	stmiaeq	ip, {r9, fp}^
    21d8:	1f010000 	svcne	0x00010000
    21dc:	0000913c 	andeq	r9, r0, ip, lsr r1
    21e0:	0000003c 	andeq	r0, r0, ip, lsr r0
    21e4:	023a9c01 	eorseq	r9, sl, #256	; 0x100
    21e8:	70140000 	andsvc	r0, r4, r0
    21ec:	1f010063 	svcne	0x00010063
    21f0:	0000002c 	andeq	r0, r0, ip, lsr #32
    21f4:	00001592 	muleq	r0, r2, r5
    21f8:	0001d115 	andeq	sp, r1, r5, lsl r1
    21fc:	00024a00 	andeq	r4, r2, r0, lsl #20
    2200:	9c030500 	cfstr32ls	mvfx0, [r3], {-0}
    2204:	11000099 	swpne	r0, r9, [r0]	; <UNPREDICTABLE>
    2208:	00009164 	andeq	r9, r0, r4, ror #2
    220c:	0000053c 	andeq	r0, r0, ip, lsr r5
    2210:	00000230 	andeq	r0, r0, r0, lsr r2
    2214:	02530112 	subseq	r0, r3, #-2147483644	; 0x80000004
    2218:	01122008 	tsteq	r2, r8
    221c:	9c030552 	cfstr32ls	mvfx0, [r3], {82}	; 0x52
    2220:	12000099 	andne	r0, r0, #153	; 0x99
    2224:	03055101 	movweq	r5, #20737	; 0x5101
    2228:	00009a68 	andeq	r9, r0, r8, ror #20
    222c:	05500112 	ldrbeq	r0, [r0, #-274]	; 0x112
    2230:	009a2c03 	addseq	r2, sl, r3, lsl #24
    2234:	7d021200 	sfmvc	f1, 4, [r2, #-0]
    2238:	01f30304 	mvnseq	r0, r4, lsl #6
    223c:	7d021250 	sfmvc	f1, 4, [r2, #-320]	; 0xfffffec0
    2240:	88030500 	stmdahi	r3, {r8, sl}
    2244:	0000009a 	muleq	r0, sl, r0
    2248:	00916813 	addseq	r6, r1, r3, lsl r8
    224c:	00055200 	andeq	r5, r5, r0, lsl #4
    2250:	72060000 	andvc	r0, r6, #0
    2254:	4a000000 	bmi	225c <_start-0x5da4>
    2258:	07000002 	streq	r0, [r0, -r2]
    225c:	0000006b 	andeq	r0, r0, fp, rrx
    2260:	3a050015 	bcc	1422bc <__bss_end__+0x1383c4>
    2264:	0a000002 	beq	2274 <_start-0x5d8c>
    2268:	00000894 	muleq	r0, r4, r8
    226c:	91782401 	cmnls	r8, r1, lsl #8
    2270:	003c0000 	eorseq	r0, ip, r0
    2274:	9c010000 	stcls	0, cr0, [r1], {-0}
    2278:	000002cc 	andeq	r0, r0, ip, asr #5
    227c:	00637014 	rsbeq	r7, r3, r4, lsl r0
    2280:	002c2401 	eoreq	r2, ip, r1, lsl #8
    2284:	15bf0000 	ldrne	r0, [pc, #0]!	; 228c <_start-0x5d74>
    2288:	d1150000 	tstle	r5, r0
    228c:	cc000001 	stcgt	0, cr0, [r0], {1}
    2290:	05000002 	streq	r0, [r0, #-2]
    2294:	0099b403 	addseq	fp, r9, r3, lsl #8
    2298:	91a01100 	lslls	r1, r0, #2
    229c:	053c0000 	ldreq	r0, [ip, #-0]!
    22a0:	02c20000 	sbceq	r0, r2, #0
    22a4:	01120000 	tsteq	r2, r0
    22a8:	25080253 	strcs	r0, [r8, #-595]	; 0x253
    22ac:	05520112 	ldrbeq	r0, [r2, #-274]	; 0x112
    22b0:	0099b403 	addseq	fp, r9, r3, lsl #8
    22b4:	51011200 	mrspl	r1, R9_usr
    22b8:	9a680305 	bls	1a02ed4 <__bss_end__+0x19f8fdc>
    22bc:	01120000 	tsteq	r2, r0
    22c0:	2c030550 	cfstr32cs	mvfx0, [r3], {80}	; 0x50
    22c4:	1200009a 	andne	r0, r0, #154	; 0x9a
    22c8:	03047d02 	movweq	r7, #19714	; 0x4d02
    22cc:	125001f3 	subsne	r0, r0, #-1073741764	; 0xc000003c
    22d0:	05007d02 	streq	r7, [r0, #-3330]	; 0xd02
    22d4:	009a9003 	addseq	r9, sl, r3
    22d8:	a4130000 	ldrge	r0, [r3], #-0
    22dc:	52000091 	andpl	r0, r0, #145	; 0x91
    22e0:	00000005 	andeq	r0, r0, r5
    22e4:	00008405 	andeq	r8, r0, r5, lsl #8
    22e8:	08870a00 	stmeq	r7, {r9, fp}
    22ec:	27010000 	strcs	r0, [r1, -r0]
    22f0:	000091b4 			; <UNDEFINED> instruction: 0x000091b4
    22f4:	0000003c 	andeq	r0, r0, ip, lsr r0
    22f8:	034e9c01 	movteq	r9, #60417	; 0xec01
    22fc:	70140000 	andsvc	r0, r4, r0
    2300:	27010063 	strcs	r0, [r1, -r3, rrx]
    2304:	0000002c 	andeq	r0, r0, ip, lsr #32
    2308:	000015ec 	andeq	r1, r0, ip, ror #11
    230c:	0001d115 	andeq	sp, r1, r5, lsl r1
    2310:	00035e00 	andeq	r5, r3, r0, lsl #28
    2314:	d0030500 	andle	r0, r3, r0, lsl #10
    2318:	11000099 	swpne	r0, r9, [r0]	; <UNPREDICTABLE>
    231c:	000091dc 	ldrdeq	r9, [r0], -ip
    2320:	0000053c 	andeq	r0, r0, ip, lsr r5
    2324:	00000344 	andeq	r0, r0, r4, asr #6
    2328:	02530112 	subseq	r0, r3, #-2147483644	; 0x80000004
    232c:	01122808 	tsteq	r2, r8, lsl #16
    2330:	d0030552 	andle	r0, r3, r2, asr r5
    2334:	12000099 	andne	r0, r0, #153	; 0x99
    2338:	03055101 	movweq	r5, #20737	; 0x5101
    233c:	00009a68 	andeq	r9, r0, r8, ror #20
    2340:	05500112 	ldrbeq	r0, [r0, #-274]	; 0x112
    2344:	009a2c03 	addseq	r2, sl, r3, lsl #24
    2348:	7d021200 	sfmvc	f1, 4, [r2, #-0]
    234c:	01f30304 	mvnseq	r0, r4, lsl #6
    2350:	7d021250 	sfmvc	f1, 4, [r2, #-320]	; 0xfffffec0
    2354:	a0030500 	andge	r0, r3, r0, lsl #10
    2358:	0000009a 	muleq	r0, sl, r0
    235c:	0091e013 	addseq	lr, r1, r3, lsl r0
    2360:	00055200 	andeq	r5, r5, r0, lsl #4
    2364:	72060000 	andvc	r0, r6, #0
    2368:	5e000000 	cdppl	0, 0, cr0, cr0, cr0, {0}
    236c:	07000003 	streq	r0, [r0, -r3]
    2370:	0000006b 	andeq	r0, r0, fp, rrx
    2374:	4e05000c 	cdpmi	0, 0, cr0, cr5, cr12, {0}
    2378:	0a000003 	beq	238c <_start-0x5c74>
    237c:	0000086a 	andeq	r0, r0, sl, ror #16
    2380:	91f02a01 	mvnsls	r2, r1, lsl #20
    2384:	003c0000 	eorseq	r0, ip, r0
    2388:	9c010000 	stcls	0, cr0, [r1], {-0}
    238c:	000003e0 	andeq	r0, r0, r0, ror #7
    2390:	00637014 	rsbeq	r7, r3, r4, lsl r0
    2394:	002c2a01 	eoreq	r2, ip, r1, lsl #20
    2398:	16190000 	ldrne	r0, [r9], -r0
    239c:	d1150000 	tstle	r5, r0
    23a0:	f0000001 			; <UNDEFINED> instruction: 0xf0000001
    23a4:	05000003 	streq	r0, [r0, #-3]
    23a8:	0099e003 	addseq	lr, r9, r3
    23ac:	92181100 	andsls	r1, r8, #0, 2
    23b0:	053c0000 	ldreq	r0, [ip, #-0]!
    23b4:	03d60000 	bicseq	r0, r6, #0
    23b8:	01120000 	tsteq	r2, r0
    23bc:	2b080253 	blcs	202d10 <__bss_end__+0x1f8e18>
    23c0:	05520112 	ldrbeq	r0, [r2, #-274]	; 0x112
    23c4:	0099e003 	addseq	lr, r9, r3
    23c8:	51011200 	mrspl	r1, R9_usr
    23cc:	9a680305 	bls	1a02fe8 <__bss_end__+0x19f90f0>
    23d0:	01120000 	tsteq	r2, r0
    23d4:	2c030550 	cfstr32cs	mvfx0, [r3], {80}	; 0x50
    23d8:	1200009a 	andne	r0, r0, #154	; 0x9a
    23dc:	03047d02 	movweq	r7, #19714	; 0x4d02
    23e0:	125001f3 	subsne	r0, r0, #-1073741764	; 0xc000003c
    23e4:	05007d02 	streq	r7, [r0, #-3330]	; 0xd02
    23e8:	009ab003 	addseq	fp, sl, r3
    23ec:	1c130000 	ldcne	0, cr0, [r3], {-0}
    23f0:	52000092 	andpl	r0, r0, #146	; 0x92
    23f4:	00000005 	andeq	r0, r0, r5
    23f8:	00007206 	andeq	r7, r0, r6, lsl #4
    23fc:	0003f000 	andeq	pc, r3, r0
    2400:	006b0700 	rsbeq	r0, fp, r0, lsl #14
    2404:	001c0000 	andseq	r0, ip, r0
    2408:	0003e005 	andeq	lr, r3, r5
    240c:	07810a00 	streq	r0, [r1, r0, lsl #20]
    2410:	2d010000 	stccs	0, cr0, [r1, #-0]
    2414:	0000922c 	andeq	r9, r0, ip, lsr #4
    2418:	0000003c 	andeq	r0, r0, ip, lsr r0
    241c:	04729c01 	ldrbteq	r9, [r2], #-3073	; 0xc01
    2420:	70140000 	andsvc	r0, r4, r0
    2424:	2d010063 	stccs	0, cr0, [r1, #-396]	; 0xfffffe74
    2428:	0000002c 	andeq	r0, r0, ip, lsr #32
    242c:	00001646 	andeq	r1, r0, r6, asr #12
    2430:	0001d115 	andeq	sp, r1, r5, lsl r1
    2434:	00047200 	andeq	r7, r4, r0, lsl #4
    2438:	00030500 	andeq	r0, r3, r0, lsl #10
    243c:	1100009a 	swpne	r0, sl, [r0]	; <UNPREDICTABLE>
    2440:	00009254 	andeq	r9, r0, r4, asr r2
    2444:	0000053c 	andeq	r0, r0, ip, lsr r5
    2448:	00000468 	andeq	r0, r0, r8, ror #8
    244c:	02530112 	subseq	r0, r3, #-2147483644	; 0x80000004
    2450:	01122e08 	tsteq	r2, r8, lsl #28
    2454:	00030552 	andeq	r0, r3, r2, asr r5
    2458:	1200009a 	andne	r0, r0, #154	; 0x9a
    245c:	03055101 	movweq	r5, #20737	; 0x5101
    2460:	00009a68 	andeq	r9, r0, r8, ror #20
    2464:	05500112 	ldrbeq	r0, [r0, #-274]	; 0x112
    2468:	009a2c03 	addseq	r2, sl, r3, lsl #24
    246c:	7d021200 	sfmvc	f1, 4, [r2, #-0]
    2470:	01f30304 	mvnseq	r0, r4, lsl #6
    2474:	7d021250 	sfmvc	f1, 4, [r2, #-320]	; 0xfffffec0
    2478:	c8030500 	stmdagt	r3, {r8, sl}
    247c:	0000009a 	muleq	r0, sl, r0
    2480:	00925813 	addseq	r5, r2, r3, lsl r8
    2484:	00055200 	andeq	r5, r5, r0, lsl #4
    2488:	3a050000 	bcc	142490 <__bss_end__+0x138598>
    248c:	0a000002 	beq	249c <_start-0x5b64>
    2490:	0000081c 	andeq	r0, r0, ip, lsl r8
    2494:	92683001 	rsbls	r3, r8, #1
    2498:	003c0000 	eorseq	r0, ip, r0
    249c:	9c010000 	stcls	0, cr0, [r1], {-0}
    24a0:	000004f4 	strdeq	r0, [r0], -r4
    24a4:	00637014 	rsbeq	r7, r3, r4, lsl r0
    24a8:	002c3001 	eoreq	r3, ip, r1
    24ac:	16730000 	ldrbtne	r0, [r3], -r0
    24b0:	d1150000 	tstle	r5, r0
    24b4:	04000001 	streq	r0, [r0], #-1
    24b8:	05000005 	streq	r0, [r0, #-5]
    24bc:	009a1803 	addseq	r1, sl, r3, lsl #16
    24c0:	92901100 	addsls	r1, r0, #0, 2
    24c4:	053c0000 	ldreq	r0, [ip, #-0]!
    24c8:	04ea0000 	strbteq	r0, [sl], #0
    24cc:	01120000 	tsteq	r2, r0
    24d0:	31080253 	tstcc	r8, r3, asr r2
    24d4:	05520112 	ldrbeq	r0, [r2, #-274]	; 0x112
    24d8:	009a1803 	addseq	r1, sl, r3, lsl #16
    24dc:	51011200 	mrspl	r1, R9_usr
    24e0:	9a680305 	bls	1a030fc <__bss_end__+0x19f9204>
    24e4:	01120000 	tsteq	r2, r0
    24e8:	2c030550 	cfstr32cs	mvfx0, [r3], {80}	; 0x50
    24ec:	1200009a 	andne	r0, r0, #154	; 0x9a
    24f0:	03047d02 	movweq	r7, #19714	; 0x4d02
    24f4:	125001f3 	subsne	r0, r0, #-1073741764	; 0xc000003c
    24f8:	05007d02 	streq	r7, [r0, #-3330]	; 0xd02
    24fc:	009ad803 	addseq	sp, sl, r3, lsl #16
    2500:	94130000 	ldrls	r0, [r3], #-0
    2504:	52000092 	andpl	r0, r0, #146	; 0x92
    2508:	00000005 	andeq	r0, r0, r5
    250c:	00007206 	andeq	r7, r0, r6, lsl #4
    2510:	00050400 	andeq	r0, r5, r0, lsl #8
    2514:	006b0700 	rsbeq	r0, fp, r0, lsl #14
    2518:	00110000 	andseq	r0, r1, r0
    251c:	0004f405 	andeq	pc, r4, r5, lsl #8
    2520:	07b60b00 	ldreq	r0, [r6, r0, lsl #22]!
    2524:	11010000 	mrsne	r0, (UNDEF: 1)
    2528:	0000002c 	andeq	r0, r0, ip, lsr #32
    252c:	0008070b 	andeq	r0, r8, fp, lsl #14
    2530:	2c120100 	ldfcss	f0, [r2], {-0}
    2534:	16000000 	strne	r0, [r0], -r0
    2538:	00000531 	andeq	r0, r0, r1, lsr r5
    253c:	05359402 	ldreq	r9, [r5, #-1026]!	; 0x402
    2540:	2c170000 	ldccs	0, cr0, [r7], {-0}
    2544:	17000000 	strne	r0, [r0, -r0]
    2548:	0000002c 	andeq	r0, r0, ip, lsr #32
    254c:	06561800 	ldrbeq	r1, [r6], -r0, lsl #16
    2550:	84020000 	strhi	r0, [r2], #-0
    2554:	00038319 	andeq	r8, r3, r9, lsl r3
    2558:	25270200 	strcs	r0, [r7, #-512]!	; 0x200
    255c:	52000000 	andpl	r0, r0, #0
    2560:	17000005 	strne	r0, [r0, -r5]
    2564:	00000079 	andeq	r0, r0, r9, ror r0
    2568:	3b18001a 	blcc	6025d8 <__bss_end__+0x5f86e0>
    256c:	02000001 	andeq	r0, r0, #1
    2570:	03ff0063 	mvnseq	r0, #99	; 0x63
    2574:	00040000 	andeq	r0, r4, r0
    2578:	00000c20 	andeq	r0, r0, r0, lsr #24
    257c:	00650104 	rsbeq	r0, r5, r4, lsl #2
    2580:	43010000 	movwmi	r0, #4096	; 0x1000
    2584:	94000009 	strls	r0, [r0], #-9
    2588:	e0000003 	and	r0, r0, r3
    258c:	54000093 	strpl	r0, [r0], #-147	; 0x93
    2590:	ce000001 	cdpgt	0, 0, cr0, cr0, cr1, {0}
    2594:	02000009 	andeq	r0, r0, #9
    2598:	6e690504 	cdpvs	5, 6, cr0, cr9, cr4, {0}
    259c:	04030074 	streq	r0, [r3], #-116	; 0x74
    25a0:	00023507 	andeq	r3, r2, r7, lsl #10
    25a4:	06010300 	streq	r0, [r1], -r0, lsl #6
    25a8:	00000120 	andeq	r0, r0, r0, lsr #2
    25ac:	90050203 	andls	r0, r5, r3, lsl #4
    25b0:	03000002 	movweq	r0, #2
    25b4:	027c0504 	rsbseq	r0, ip, #4, 10	; 0x1000000
    25b8:	08030000 	stmdaeq	r3, {}	; <UNPREDICTABLE>
    25bc:	00027705 	andeq	r7, r2, r5, lsl #14
    25c0:	08010300 	stmdaeq	r1, {r8, r9}
    25c4:	0000011e 	andeq	r0, r0, lr, lsl r1
    25c8:	5a070203 	bpl	1c2ddc <__bss_end__+0x1b8ee4>
    25cc:	03000001 	movweq	r0, #1
    25d0:	02300704 	eorseq	r0, r0, #4, 14	; 0x100000
    25d4:	08030000 	stmdaeq	r3, {}	; <UNPREDICTABLE>
    25d8:	00022b07 	andeq	r2, r2, r7, lsl #22
    25dc:	07040300 	streq	r0, [r4, -r0, lsl #6]
    25e0:	0000025c 	andeq	r0, r0, ip, asr r2
    25e4:	27080103 	strcs	r0, [r8, -r3, lsl #2]
    25e8:	04000001 	streq	r0, [r0], #-1
    25ec:	b20c0201 	andlt	r0, ip, #268435456	; 0x10000000
    25f0:	05000000 	streq	r0, [r0, #-0]
    25f4:	000005d3 	ldrdeq	r0, [r0], -r3
    25f8:	06ef0500 	strbteq	r0, [pc], r0, lsl #10
    25fc:	05010000 	streq	r0, [r1, #-0]
    2600:	00000712 	andeq	r0, r0, r2, lsl r7
    2604:	07210504 	streq	r0, [r1, -r4, lsl #10]!
    2608:	05050000 	streq	r0, [r5, #-0]
    260c:	00000730 	andeq	r0, r0, r0, lsr r7
    2610:	073f0506 	ldreq	r0, [pc, -r6, lsl #10]!
    2614:	05070000 	streq	r0, [r7, #-0]
    2618:	0000074e 	andeq	r0, r0, lr, asr #14
    261c:	075d0503 	ldrbeq	r0, [sp, -r3, lsl #10]
    2620:	00020000 	andeq	r0, r2, r0
    2624:	00070606 	andeq	r0, r7, r6, lsl #12
    2628:	79150200 	ldmdbvc	r5, {r9}
    262c:	07000000 	streq	r0, [r0, -r0]
    2630:	00000917 	andeq	r0, r0, r7, lsl r9
    2634:	00255701 	eoreq	r5, r5, r1, lsl #14
    2638:	93e00000 	mvnls	r0, #0
    263c:	001c0000 	andseq	r0, ip, r0
    2640:	9c010000 	stcls	0, cr0, [r1], {-0}
    2644:	000000e0 	andeq	r0, r0, r0, ror #1
    2648:	0093f008 	addseq	pc, r3, r8
    264c:	0003a800 	andeq	sl, r3, r0, lsl #16
    2650:	f5090000 			; <UNDEFINED> instruction: 0xf5090000
    2654:	01000000 	mrseq	r0, (UNDEF: 0)
    2658:	0093fc37 	addseq	pc, r3, r7, lsr ip	; <UNPREDICTABLE>
    265c:	00009c00 	andeq	r9, r0, r0, lsl #24
    2660:	e69c0100 	ldr	r0, [ip], r0, lsl #2
    2664:	08000001 	stmdaeq	r0, {r0}
    2668:	00009404 	andeq	r9, r0, r4, lsl #8
    266c:	000003c9 	andeq	r0, r0, r9, asr #7
    2670:	0094100a 	addseq	r1, r4, sl
    2674:	0003d000 	andeq	sp, r3, r0
    2678:	00011600 	andeq	r1, r1, r0, lsl #12
    267c:	51010b00 	tstpl	r1, r0, lsl #22
    2680:	010b3201 	tsteq	fp, r1, lsl #4
    2684:	003e0150 	eorseq	r0, lr, r0, asr r1
    2688:	00941c0a 	addseq	r1, r4, sl, lsl #24
    268c:	0003d000 	andeq	sp, r3, r0
    2690:	00012e00 	andeq	r2, r1, r0, lsl #28
    2694:	51010b00 	tstpl	r1, r0, lsl #22
    2698:	010b3201 	tsteq	fp, r1, lsl #4
    269c:	003f0150 	eorseq	r0, pc, r0, asr r1	; <UNPREDICTABLE>
    26a0:	00942008 	addseq	r2, r4, r8
    26a4:	0003c900 	andeq	ip, r3, r0, lsl #18
    26a8:	94300a00 	ldrtls	r0, [r0], #-2560	; 0xa00
    26ac:	03a80000 			; <UNDEFINED> instruction: 0x03a80000
    26b0:	014b0000 	mrseq	r0, (UNDEF: 75)
    26b4:	010b0000 	mrseq	r0, (UNDEF: 11)
    26b8:	00750250 	rsbseq	r0, r5, r0, asr r2
    26bc:	943c0a00 	ldrtls	r0, [ip], #-2560	; 0xa00
    26c0:	03e60000 	mvneq	r0, #0
    26c4:	015f0000 	cmpeq	pc, r0
    26c8:	010b0000 	mrseq	r0, (UNDEF: 11)
    26cc:	00750250 	rsbseq	r0, r5, r0, asr r2
    26d0:	94400800 	strbls	r0, [r0], #-2048	; 0x800
    26d4:	03c90000 	biceq	r0, r9, #0
    26d8:	4c0a0000 	stcmi	0, cr0, [sl], {-0}
    26dc:	e6000094 			; <UNDEFINED> instruction: 0xe6000094
    26e0:	7b000003 	blvc	26f4 <_start-0x590c>
    26e4:	0b000001 	bleq	26f0 <_start-0x5910>
    26e8:	30015101 	andcc	r5, r1, r1, lsl #2
    26ec:	94580a00 	ldrbls	r0, [r8], #-2560	; 0xa00
    26f0:	03e60000 	mvneq	r0, #0
    26f4:	018e0000 	orreq	r0, lr, r0
    26f8:	010b0000 	mrseq	r0, (UNDEF: 11)
    26fc:	00300151 	eorseq	r0, r0, r1, asr r1
    2700:	0094640a 	addseq	r6, r4, sl, lsl #8
    2704:	0003e600 	andeq	lr, r3, r0, lsl #12
    2708:	0001a100 	andeq	sl, r1, r0, lsl #2
    270c:	51010b00 	tstpl	r1, r0, lsl #22
    2710:	0a003601 	beq	ff1c <__bss_end__+0x6024>
    2714:	00009470 	andeq	r9, r0, r0, ror r4
    2718:	000003e6 	andeq	r0, r0, r6, ror #7
    271c:	000001b4 			; <UNDEFINED> instruction: 0x000001b4
    2720:	0151010b 	cmpeq	r1, fp, lsl #2
    2724:	7c0a0033 	stcvc	0, cr0, [sl], {51}	; 0x33
    2728:	e6000094 			; <UNDEFINED> instruction: 0xe6000094
    272c:	c9000003 	stmdbgt	r0, {r0, r1}
    2730:	0b000001 	bleq	273c <_start-0x58c4>
    2734:	0a035101 	beq	d6b40 <__bss_end__+0xccc48>
    2738:	0a00010e 	beq	2b78 <_start-0x5488>
    273c:	00009488 	andeq	r9, r0, r8, lsl #9
    2740:	000003e6 	andeq	r0, r0, r6, ror #7
    2744:	000001dc 	ldrdeq	r0, [r0], -ip
    2748:	0151010b 	cmpeq	r1, fp, lsl #2
    274c:	8c080033 	stchi	0, cr0, [r8], {51}	; 0x33
    2750:	c9000094 	stmdbgt	r0, {r2, r4, r7}
    2754:	00000003 	andeq	r0, r0, r3
    2758:	0009590c 	andeq	r5, r9, ip, lsl #18
    275c:	255d0100 	ldrbcs	r0, [sp, #-256]	; 0x100
    2760:	98000000 	stmdals	r0, {}	; <UNPREDICTABLE>
    2764:	28000094 	stmdacs	r0, {r2, r4, r7}
    2768:	01000000 	mrseq	r0, (UNDEF: 0)
    276c:	0002129c 	muleq	r2, ip, r2
    2770:	94a00800 	strtls	r0, [r0], #2048	; 0x800
    2774:	00bd0000 	adcseq	r0, sp, r0
    2778:	b4080000 	strlt	r0, [r8], #-0
    277c:	a8000094 	stmdage	r0, {r2, r4, r7}
    2780:	00000003 	andeq	r0, r0, r3
    2784:	0009720c 	andeq	r7, r9, ip, lsl #4
    2788:	25640100 	strbcs	r0, [r4, #-256]!	; 0x100
    278c:	c0000000 	andgt	r0, r0, r0
    2790:	1c000094 	stcne	0, cr0, [r0], {148}	; 0x94
    2794:	01000000 	mrseq	r0, (UNDEF: 0)
    2798:	0002359c 	muleq	r2, ip, r5
    279c:	94d00800 	ldrbls	r0, [r0], #2048	; 0x800
    27a0:	03a80000 			; <UNDEFINED> instruction: 0x03a80000
    27a4:	09000000 	stmdbeq	r0, {}	; <UNPREDICTABLE>
    27a8:	000009c3 	andeq	r0, r0, r3, asr #19
    27ac:	94dc6a01 	ldrbls	r6, [ip], #2561	; 0xa01
    27b0:	002c0000 	eoreq	r0, ip, r0
    27b4:	9c010000 	stcls	0, cr0, [r1], {-0}
    27b8:	00000271 	andeq	r0, r0, r1, ror r2
    27bc:	0100630d 	tsteq	r0, sp, lsl #6
    27c0:	00002c6a 	andeq	r2, r0, sl, ror #24
    27c4:	0016a000 	andseq	sl, r6, r0
    27c8:	94e80800 	strbtls	r0, [r8], #2048	; 0x800
    27cc:	02120000 	andseq	r0, r2, #0
    27d0:	000e0000 	andeq	r0, lr, r0
    27d4:	e6000095 			; <UNDEFINED> instruction: 0xe6000095
    27d8:	0b000003 	bleq	27ec <_start-0x5814>
    27dc:	74025101 	strvc	r5, [r2], #-257	; 0x101
    27e0:	0c000000 	stceq	0, cr0, [r0], {-0}
    27e4:	00000935 	andeq	r0, r0, r5, lsr r9
    27e8:	00257401 	eoreq	r7, r5, r1, lsl #8
    27ec:	95080000 	strls	r0, [r8, #-0]
    27f0:	000c0000 	andeq	r0, ip, r0
    27f4:	9c010000 	stcls	0, cr0, [r1], {-0}
    27f8:	00000294 	muleq	r0, r4, r2
    27fc:	00951008 	addseq	r1, r5, r8
    2800:	0000bd00 	andeq	fp, r0, r0, lsl #26
    2804:	eb0c0000 	bl	30280c <__bss_end__+0x2f8914>
    2808:	01000009 	tsteq	r0, r9
    280c:	00002578 	andeq	r2, r0, r8, ror r5
    2810:	00951400 	addseq	r1, r5, r0, lsl #8
    2814:	00002000 	andeq	r2, r0, r0
    2818:	c09c0100 	addsgt	r0, ip, r0, lsl #2
    281c:	08000002 	stmdaeq	r0, {r1}
    2820:	0000951c 	andeq	r9, r0, ip, lsl r5
    2824:	00000271 	andeq	r0, r0, r1, ror r2
    2828:	00952808 	addseq	r2, r5, r8, lsl #16
    282c:	0001e600 	andeq	lr, r1, r0, lsl #12
    2830:	8c0f0000 	stchi	0, cr0, [pc], {-0}
    2834:	01000009 	tsteq	r0, r9
    2838:	0002d116 	andeq	sp, r2, r6, lsl r1
    283c:	dc030500 	cfstr32le	mvfx0, [r3], {-0}
    2840:	10000095 	mulne	r0, r5, r0
    2844:	0002d704 	andeq	sp, r2, r4, lsl #14
    2848:	002c1100 	eoreq	r1, ip, r0, lsl #2
    284c:	800f0000 	andhi	r0, pc, r0
    2850:	01000009 	tsteq	r0, r9
    2854:	0002d117 	andeq	sp, r2, r7, lsl r1
    2858:	b0030500 	andlt	r0, r3, r0, lsl #10
    285c:	0f000095 	svceq	0x00000095
    2860:	000008fa 	strdeq	r0, [r0], -sl
    2864:	02d11a01 	sbcseq	r1, r1, #4096	; 0x1000
    2868:	03050000 	movweq	r0, #20480	; 0x5000
    286c:	000095c8 	andeq	r9, r0, r8, asr #11
    2870:	00094a0f 	andeq	r4, r9, pc, lsl #20
    2874:	d11b0100 	tstle	fp, r0, lsl #2
    2878:	05000002 	streq	r0, [r0, #-2]
    287c:	0095b803 	addseq	fp, r5, r3, lsl #16
    2880:	09630f00 	stmdbeq	r3!, {r8, r9, sl, fp}^
    2884:	1c010000 	stcne	0, cr0, [r1], {-0}
    2888:	000002d1 	ldrdeq	r0, [r0], -r1
    288c:	95bc0305 	ldrls	r0, [ip, #773]!	; 0x305
    2890:	cd0f0000 	stcgt	0, cr0, [pc, #-0]	; 2898 <_start-0x5768>
    2894:	01000009 	tsteq	r0, r9
    2898:	0002d11d 	andeq	sp, r2, sp, lsl r1
    289c:	c0030500 	andgt	r0, r3, r0, lsl #10
    28a0:	0f000095 	svceq	0x00000095
    28a4:	000008eb 	andeq	r0, r0, fp, ror #17
    28a8:	02d11e01 	sbcseq	r1, r1, #1, 28
    28ac:	03050000 	movweq	r0, #20480	; 0x5000
    28b0:	000095d8 	ldrdeq	r9, [r0], -r8
    28b4:	0009dc0f 	andeq	sp, r9, pc, lsl #24
    28b8:	d11f0100 	tstle	pc, r0, lsl #2
    28bc:	05000002 	streq	r0, [r0, #-2]
    28c0:	0095ac03 	addseq	sl, r5, r3, lsl #24
    28c4:	09080f00 	stmdbeq	r8, {r8, r9, sl, fp}
    28c8:	20010000 	andcs	r0, r1, r0
    28cc:	000002d1 	ldrdeq	r0, [r0], -r1
    28d0:	95d40305 	ldrbls	r0, [r4, #773]	; 0x305
    28d4:	b40f0000 	strlt	r0, [pc], #-0	; 28dc <_start-0x5724>
    28d8:	01000009 	tsteq	r0, r9
    28dc:	0002d121 	andeq	sp, r2, r1, lsr #2
    28e0:	d0030500 	andle	r0, r3, r0, lsl #10
    28e4:	0f000095 	svceq	0x00000095
    28e8:	00000925 	andeq	r0, r0, r5, lsr #18
    28ec:	02d12201 	sbcseq	r2, r1, #268435456	; 0x10000000
    28f0:	03050000 	movweq	r0, #20480	; 0x5000
    28f4:	000095b4 			; <UNDEFINED> instruction: 0x000095b4
    28f8:	0009a40f 	andeq	sl, r9, pc, lsl #8
    28fc:	d1230100 	teqle	r3, r0, lsl #2
    2900:	05000002 	streq	r0, [r0, #-2]
    2904:	0095cc03 	addseq	ip, r5, r3, lsl #24
    2908:	09940f00 	ldmibeq	r4, {r8, r9, sl, fp}
    290c:	24010000 	strcs	r0, [r1], #-0
    2910:	000002d1 	ldrdeq	r0, [r0], -r1
    2914:	95c40305 	strbls	r0, [r4, #773]	; 0x305
    2918:	00120000 	andseq	r0, r2, r0
    291c:	03000007 	movweq	r0, #7
    2920:	00002ca1 	andeq	r2, r0, r1, lsr #25
    2924:	0003bd00 	andeq	fp, r3, r0, lsl #26
    2928:	03bd1300 			; <UNDEFINED> instruction: 0x03bd1300
    292c:	10000000 	andne	r0, r0, r0
    2930:	0003c304 	andeq	ip, r3, r4, lsl #6
    2934:	03c81400 	biceq	r1, r8, #0, 8
    2938:	16150000 	ldrne	r0, [r5], -r0
    293c:	00000656 	andeq	r0, r0, r6, asr r6
    2940:	74178403 	ldrvc	r8, [r7], #-1027	; 0x403
    2944:	02000006 	andeq	r0, r0, #6
    2948:	0003e619 	andeq	lr, r3, r9, lsl r6
    294c:	002c1300 	eoreq	r1, ip, r0, lsl #6
    2950:	b2130000 	andslt	r0, r3, #0
    2954:	00000000 	andeq	r0, r0, r0
    2958:	0005b017 	andeq	fp, r5, r7, lsl r0
    295c:	fc950300 	ldc2	3, cr0, [r5], {0}
    2960:	13000003 	movwne	r0, #3
    2964:	000003fc 	strdeq	r0, [r0], -ip
    2968:	00002c13 	andeq	r2, r0, r3, lsl ip
    296c:	04100000 	ldreq	r0, [r0], #-0
    2970:	000003c8 	andeq	r0, r0, r8, asr #7
    2974:	0000e000 	andeq	lr, r0, r0
    2978:	68000400 	stmdavs	r0, {sl}
    297c:	0400000d 	streq	r0, [r0], #-13
    2980:	00006501 	andeq	r6, r0, r1, lsl #10
    2984:	0a0c0100 	beq	302d8c <__bss_end__+0x2f8e94>
    2988:	03940000 	orrseq	r0, r4, #0
    298c:	95340000 	ldrls	r0, [r4, #-0]!
    2990:	00140000 	andseq	r0, r4, r0
    2994:	0a490000 	beq	124299c <__bss_end__+0x1238aa4>
    2998:	04020000 	streq	r0, [r2], #-0
    299c:	746e6905 	strbtvc	r6, [lr], #-2309	; 0x905
    29a0:	07040300 	streq	r0, [r4, -r0, lsl #6]
    29a4:	00000235 	andeq	r0, r0, r5, lsr r2
    29a8:	20060103 	andcs	r0, r6, r3, lsl #2
    29ac:	03000001 	movweq	r0, #1
    29b0:	02900502 	addseq	r0, r0, #8388608	; 0x800000
    29b4:	04030000 	streq	r0, [r3], #-0
    29b8:	00027c05 	andeq	r7, r2, r5, lsl #24
    29bc:	05080300 	streq	r0, [r8, #-768]	; 0x300
    29c0:	00000277 	andeq	r0, r0, r7, ror r2
    29c4:	1e080103 	adfnee	f0, f0, f3
    29c8:	03000001 	movweq	r0, #1
    29cc:	015a0702 	cmpeq	sl, r2, lsl #14
    29d0:	04030000 	streq	r0, [r3], #-0
    29d4:	00023007 	andeq	r3, r2, r7
    29d8:	07080300 	streq	r0, [r8, -r0, lsl #6]
    29dc:	0000022b 	andeq	r0, r0, fp, lsr #4
    29e0:	5c070403 	cfstrspl	mvf0, [r7], {3}
    29e4:	03000002 	movweq	r0, #2
    29e8:	01270801 	teqeq	r7, r1, lsl #16
    29ec:	fb040000 	blx	1029f6 <__bss_end__+0xf8afe>
    29f0:	01000009 	tsteq	r0, r9
    29f4:	00002503 	andeq	r2, r0, r3, lsl #10
    29f8:	00953400 	addseq	r3, r5, r0, lsl #8
    29fc:	00001400 	andeq	r1, r0, r0, lsl #8
    2a00:	b09c0100 	addslt	r0, ip, r0, lsl #2
    2a04:	05000000 	streq	r0, [r0, #-0]
    2a08:	03010063 	movweq	r0, #4195	; 0x1063
    2a0c:	00000025 	andeq	r0, r0, r5, lsr #32
    2a10:	000016be 			; <UNDEFINED> instruction: 0x000016be
    2a14:	00954006 	addseq	r4, r5, r6
    2a18:	0000d600 	andeq	sp, r0, r0, lsl #12
    2a1c:	50010700 	andpl	r0, r1, r0, lsl #14
    2a20:	00007402 	andeq	r7, r0, r2, lsl #8
    2a24:	00250800 	eoreq	r0, r5, r0, lsl #16
    2a28:	00bf0000 	adcseq	r0, pc, r0
    2a2c:	25090000 	strcs	r0, [r9, #-0]
    2a30:	00000000 	andeq	r0, r0, r0
    2a34:	0003fc0a 	andeq	pc, r3, sl, lsl #24
    2a38:	d0060100 	andle	r0, r6, r0, lsl #2
    2a3c:	05000000 	streq	r0, [r0, #-0]
    2a40:	0095e003 	addseq	lr, r5, r3
    2a44:	b0040b00 	andlt	r0, r4, r0, lsl #22
    2a48:	0c000000 	stceq	0, cr0, [r0], {-0}
    2a4c:	000009c3 	andeq	r0, r0, r3, asr #19
    2a50:	2c093a02 	stccs	10, cr3, [r9], {2}
    2a54:	00000000 	andeq	r0, r0, r0
	...

Disassembly of section .debug_abbrev:

00000000 <.debug_abbrev>:
   0:	25011101 	strcs	r1, [r1, #-257]	; 0x101
   4:	030b130e 	movweq	r1, #45838	; 0xb30e
   8:	110e1b0e 	tstne	lr, lr, lsl #22
   c:	10061201 	andne	r1, r6, r1, lsl #4
  10:	02000017 	andeq	r0, r0, #23
  14:	0b0b0024 	bleq	2c00ac <__bss_end__+0x2b61b4>
  18:	08030b3e 	stmdaeq	r3, {r1, r2, r3, r4, r5, r8, r9, fp}
  1c:	24030000 	strcs	r0, [r3], #-0
  20:	3e0b0b00 	vmlacc.f64	d0, d11, d0
  24:	000e030b 	andeq	r0, lr, fp, lsl #6
  28:	000f0400 	andeq	r0, pc, r0, lsl #8
  2c:	13490b0b 	movtne	r0, #39691	; 0x9b0b
  30:	26050000 	strcs	r0, [r5], -r0
  34:	00134900 	andseq	r4, r3, r0, lsl #18
  38:	01040600 	tsteq	r4, r0, lsl #12
  3c:	0b3a0b0b 	bleq	e82c70 <__bss_end__+0xe78d78>
  40:	13010b3b 	movwne	r0, #6971	; 0x1b3b
  44:	28070000 	stmdacs	r7, {}	; <UNPREDICTABLE>
  48:	1c0e0300 	stcne	3, cr0, [lr], {-0}
  4c:	0800000d 	stmdaeq	r0, {r0, r2, r3}
  50:	13490035 	movtne	r0, #36917	; 0x9035
  54:	2e090000 	cdpcs	0, 0, cr0, cr9, cr0, {0}
  58:	3a0e0301 	bcc	380c64 <__bss_end__+0x376d6c>
  5c:	270b3b0b 	strcs	r3, [fp, -fp, lsl #22]
  60:	12011119 	andne	r1, r1, #1073741830	; 0x40000006
  64:	97184006 	ldrls	r4, [r8, -r6]
  68:	13011942 	movwne	r1, #6466	; 0x1942
  6c:	050a0000 	streq	r0, [sl, #-0]
  70:	3a080300 	bcc	200c78 <__bss_end__+0x1f6d80>
  74:	490b3b0b 	stmdbmi	fp, {r0, r1, r3, r8, r9, fp, ip, sp}
  78:	00170213 	andseq	r0, r7, r3, lsl r2
  7c:	00340b00 	eorseq	r0, r4, r0, lsl #22
  80:	13490e03 	movtne	r0, #40451	; 0x9e03
  84:	18021934 	stmdane	r2, {r2, r4, r5, r8, fp, ip}
  88:	890c0000 	stmdbhi	ip, {}	; <UNPREDICTABLE>
  8c:	11010182 	smlabbne	r1, r2, r1, r0
  90:	01133101 	tsteq	r3, r1, lsl #2
  94:	0d000013 	stceq	0, cr0, [r0, #-76]	; 0xffffffb4
  98:	0001828a 	andeq	r8, r1, sl, lsl #5
  9c:	42911802 	addsmi	r1, r1, #131072	; 0x20000
  a0:	0e000018 	mcreq	0, 0, r0, cr0, cr8, {0}
  a4:	00018289 	andeq	r8, r1, r9, lsl #5
  a8:	13310111 	teqne	r1, #1073741828	; 0x40000004
  ac:	890f0000 	stmdbhi	pc, {}	; <UNPREDICTABLE>
  b0:	11010182 	smlabbne	r1, r2, r1, r0
  b4:	00133101 	andseq	r3, r3, r1, lsl #2
  b8:	01011000 	mrseq	r1, (UNDEF: 1)
  bc:	13011349 	movwne	r1, #4937	; 0x1349
  c0:	21110000 	tstcs	r1, r0
  c4:	2f134900 	svccs	0x00134900
  c8:	1200000b 	andne	r0, r0, #11
  cc:	08030034 	stmdaeq	r3, {r2, r4, r5}
  d0:	0b3b0b3a 	bleq	ec2dc0 <__bss_end__+0xeb8ec8>
  d4:	17021349 	strne	r1, [r2, -r9, asr #6]
  d8:	34130000 	ldrcc	r0, [r3], #-0
  dc:	3a080300 	bcc	200ce4 <__bss_end__+0x1f6dec>
  e0:	490b3b0b 	stmdbmi	fp, {r0, r1, r3, r8, r9, fp, ip, sp}
  e4:	000b1c13 	andeq	r1, fp, r3, lsl ip
  e8:	010b1400 	tsteq	fp, r0, lsl #8
  ec:	13011755 	movwne	r1, #5973	; 0x1755
  f0:	2e150000 	cdpcs	0, 1, cr0, cr5, cr0, {0}
  f4:	03193f01 	tsteq	r9, #1, 30
  f8:	3b0b3a0e 	blcc	2ce938 <__bss_end__+0x2c4a40>
  fc:	1119270b 	tstne	r9, fp, lsl #14
 100:	40061201 	andmi	r1, r6, r1, lsl #4
 104:	19429718 	stmdbne	r2, {r3, r4, r8, r9, sl, ip, pc}^
 108:	00001301 	andeq	r1, r0, r1, lsl #6
 10c:	3f012e16 	svccc	0x00012e16
 110:	3a0e0319 	bcc	380d7c <__bss_end__+0x376e84>
 114:	110b3b0b 	tstne	fp, fp, lsl #22
 118:	40061201 	andmi	r1, r6, r1, lsl #4
 11c:	19429718 	stmdbne	r2, {r3, r4, r8, r9, sl, ip, pc}^
 120:	00001301 	andeq	r1, r0, r1, lsl #6
 124:	03003417 	movweq	r3, #1047	; 0x417
 128:	3b0b3a08 	blcc	2ce950 <__bss_end__+0x2c4a58>
 12c:	1c13490b 	ldcne	9, cr4, [r3], {11}
 130:	18000006 	stmdane	r0, {r1, r2}
 134:	0e030034 	mcreq	0, 0, r0, cr3, cr4, {1}
 138:	0b3b0b3a 	bleq	ec2e28 <__bss_end__+0xeb8f30>
 13c:	18021349 	stmdane	r2, {r0, r3, r6, r8, r9, ip}
 140:	34190000 	ldrcc	r0, [r9], #-0
 144:	3a0e0300 	bcc	380d4c <__bss_end__+0x376e54>
 148:	490b3b0b 	stmdbmi	fp, {r0, r1, r3, r8, r9, fp, ip, sp}
 14c:	02193f13 	andseq	r3, r9, #19, 30	; 0x4c
 150:	1a000018 	bne	1b8 <_start-0x7e48>
 154:	193f012e 	ldmdbne	pc!, {r1, r2, r3, r5, r8}	; <UNPREDICTABLE>
 158:	0b3a0e03 	bleq	e8396c <__bss_end__+0xe79a74>
 15c:	19270b3b 	stmdbne	r7!, {r0, r1, r3, r4, r5, r8, r9, fp}
 160:	193c1349 	ldmdbne	ip!, {r0, r3, r6, r8, r9, ip}
 164:	00001301 	andeq	r1, r0, r1, lsl #6
 168:	4900051b 	stmdbmi	r0, {r0, r1, r3, r4, r8, sl}
 16c:	1c000013 	stcne	0, cr0, [r0], {19}
 170:	00000018 	andeq	r0, r0, r8, lsl r0
 174:	3f002e1d 	svccc	0x00002e1d
 178:	3a0e0319 	bcc	380de4 <__bss_end__+0x376eec>
 17c:	270b3b0b 	strcs	r3, [fp, -fp, lsl #22]
 180:	00193c19 	andseq	r3, r9, r9, lsl ip
 184:	012e1e00 	teqeq	lr, r0, lsl #28
 188:	0e03193f 	mcreq	9, 0, r1, cr3, cr15, {1}
 18c:	0b3b0b3a 	bleq	ec2e7c <__bss_end__+0xeb8f84>
 190:	193c1927 	ldmdbne	ip!, {r0, r1, r2, r5, r8, fp, ip}
 194:	00001301 	andeq	r1, r0, r1, lsl #6
 198:	01110100 	tsteq	r1, r0, lsl #2
 19c:	0b130e25 	bleq	4c3a38 <__bss_end__+0x4b9b40>
 1a0:	0e1b0e03 	cdpeq	14, 1, cr0, cr11, cr3, {0}
 1a4:	06120111 			; <UNDEFINED> instruction: 0x06120111
 1a8:	00001710 	andeq	r1, r0, r0, lsl r7
 1ac:	03001602 	movweq	r1, #1538	; 0x602
 1b0:	3b0b3a0e 	blcc	2ce9f0 <__bss_end__+0x2c4af8>
 1b4:	0013490b 	andseq	r4, r3, fp, lsl #18
 1b8:	01130300 	tsteq	r3, r0, lsl #6
 1bc:	0b0b0e03 	bleq	2c39d0 <__bss_end__+0x2b9ad8>
 1c0:	0b3b0b3a 	bleq	ec2eb0 <__bss_end__+0xeb8fb8>
 1c4:	00001301 	andeq	r1, r0, r1, lsl #6
 1c8:	03000d04 	movweq	r0, #3332	; 0xd04
 1cc:	3813490e 	ldmdacc	r3, {r1, r2, r3, r8, fp, lr}
 1d0:	0019340b 	andseq	r3, r9, fp, lsl #8
 1d4:	000f0500 	andeq	r0, pc, r0, lsl #10
 1d8:	00000b0b 	andeq	r0, r0, fp, lsl #22
 1dc:	0b002406 	bleq	91fc <undefined_instruction_vector+0xc>
 1e0:	030b3e0b 	movweq	r3, #48651	; 0xbe0b
 1e4:	07000008 	streq	r0, [r0, -r8]
 1e8:	0b0b0024 	bleq	2c0280 <__bss_end__+0x2b6388>
 1ec:	0e030b3e 	vmoveq.16	d3[0], r0
 1f0:	0f080000 	svceq	0x00080000
 1f4:	490b0b00 	stmdbmi	fp, {r8, r9, fp}
 1f8:	09000013 	stmdbeq	r0, {r0, r1, r4}
 1fc:	13490026 	movtne	r0, #36902	; 0x9026
 200:	2e0a0000 	cdpcs	0, 0, cr0, cr10, cr0, {0}
 204:	03193f01 	tsteq	r9, #1, 30
 208:	3b0b3a0e 	blcc	2cea48 <__bss_end__+0x2c4b50>
 20c:	4919270b 	ldmdbmi	r9, {r0, r1, r3, r8, r9, sl, sp}
 210:	12011113 	andne	r1, r1, #-1073741820	; 0xc0000004
 214:	97184006 	ldrls	r4, [r8, -r6]
 218:	13011942 	movwne	r1, #6466	; 0x1942
 21c:	050b0000 	streq	r0, [fp, #-0]
 220:	3a080300 	bcc	200e28 <__bss_end__+0x1f6f30>
 224:	490b3b0b 	stmdbmi	fp, {r0, r1, r3, r8, r9, fp, ip, sp}
 228:	00180213 	andseq	r0, r8, r3, lsl r2
 22c:	00180c00 	andseq	r0, r8, r0, lsl #24
 230:	340d0000 	strcc	r0, [sp], #-0
 234:	3a080300 	bcc	200e3c <__bss_end__+0x1f6f44>
 238:	490b3b0b 	stmdbmi	fp, {r0, r1, r3, r8, r9, fp, ip, sp}
 23c:	00180213 	andseq	r0, r8, r3, lsl r2
 240:	00340e00 	eorseq	r0, r4, r0, lsl #28
 244:	0b3a0e03 	bleq	e83a58 <__bss_end__+0xe79b60>
 248:	13490b3b 	movtne	r0, #39739	; 0x9b3b
 24c:	00001802 	andeq	r1, r0, r2, lsl #16
 250:	0300340f 	movweq	r3, #1039	; 0x40f
 254:	3b0b3a08 	blcc	2cea7c <__bss_end__+0x2c4b84>
 258:	0213490b 	andseq	r4, r3, #180224	; 0x2c000
 25c:	10000017 	andne	r0, r0, r7, lsl r0
 260:	01018289 	smlabbeq	r1, r9, r2, r8
 264:	13310111 	teqne	r1, #1073741828	; 0x40000004
 268:	00001301 	andeq	r1, r0, r1, lsl #6
 26c:	01828a11 	orreq	r8, r2, r1, lsl sl
 270:	91180200 	tstls	r8, r0, lsl #4
 274:	00001842 	andeq	r1, r0, r2, asr #16
 278:	01828912 	orreq	r8, r2, r2, lsl r9
 27c:	00011101 	andeq	r1, r1, r1, lsl #2
 280:	01011300 	mrseq	r1, SP_irq
 284:	13011349 	movwne	r1, #4937	; 0x1349
 288:	21140000 	tstcs	r4, r0
 28c:	2f134900 	svccs	0x00134900
 290:	15000005 	strne	r0, [r0, #-5]
 294:	19270115 	stmdbne	r7!, {r0, r2, r4, r8}
 298:	13011349 	movwne	r1, #4937	; 0x1349
 29c:	05160000 	ldreq	r0, [r6, #-0]
 2a0:	00134900 	andseq	r4, r3, r0, lsl #18
 2a4:	00341700 	eorseq	r1, r4, r0, lsl #14
 2a8:	0b3a0e03 	bleq	e83abc <__bss_end__+0xe79bc4>
 2ac:	13490b3b 	movtne	r0, #39739	; 0x9b3b
 2b0:	193c193f 	ldmdbne	ip!, {r0, r1, r2, r3, r4, r5, r8, fp, ip}
 2b4:	2e180000 	cdpcs	0, 1, cr0, cr8, cr0, {0}
 2b8:	03193f01 	tsteq	r9, #1, 30
 2bc:	3b0b3a0e 	blcc	2ceafc <__bss_end__+0x2c4c04>
 2c0:	4919270b 	ldmdbmi	r9, {r0, r1, r3, r8, r9, sl, sp}
 2c4:	00193c13 	andseq	r3, r9, r3, lsl ip
 2c8:	11010000 	mrsne	r0, (UNDEF: 1)
 2cc:	130e2501 	movwne	r2, #58625	; 0xe501
 2d0:	1b0e030b 	blne	380f04 <__bss_end__+0x37700c>
 2d4:	1201110e 	andne	r1, r1, #-2147483645	; 0x80000003
 2d8:	00171006 	andseq	r1, r7, r6
 2dc:	00240200 	eoreq	r0, r4, r0, lsl #4
 2e0:	0b3e0b0b 	bleq	f82f14 <__bss_end__+0xf7901c>
 2e4:	00000803 	andeq	r0, r0, r3, lsl #16
 2e8:	0b002403 	bleq	92fc <GETPC>
 2ec:	030b3e0b 	movweq	r3, #48651	; 0xbe0b
 2f0:	0400000e 	streq	r0, [r0], #-14
 2f4:	0b0b000f 	bleq	2c0338 <__bss_end__+0x2b6440>
 2f8:	00001349 	andeq	r1, r0, r9, asr #6
 2fc:	49002605 	stmdbmi	r0, {r0, r2, r9, sl, sp}
 300:	06000013 			; <UNDEFINED> instruction: 0x06000013
 304:	193f012e 	ldmdbne	pc!, {r1, r2, r3, r5, r8}	; <UNPREDICTABLE>
 308:	0b3a0e03 	bleq	e83b1c <__bss_end__+0xe79c24>
 30c:	19270b3b 	stmdbne	r7!, {r0, r1, r3, r4, r5, r8, r9, fp}
 310:	01111349 	tsteq	r1, r9, asr #6
 314:	18400612 	stmdane	r0, {r1, r4, r9, sl}^
 318:	01194296 			; <UNDEFINED> instruction: 0x01194296
 31c:	07000013 	smladeq	r0, r3, r0, r0
 320:	08030005 	stmdaeq	r3, {r0, r2}
 324:	0b3b0b3a 	bleq	ec3014 <__bss_end__+0xeb911c>
 328:	17021349 	strne	r1, [r2, -r9, asr #6]
 32c:	15080000 	strne	r0, [r8, #-0]
 330:	49192701 	ldmdbmi	r9, {r0, r8, r9, sl, sp}
 334:	00130113 	andseq	r0, r3, r3, lsl r1
 338:	00050900 	andeq	r0, r5, r0, lsl #18
 33c:	00001349 	andeq	r1, r0, r9, asr #6
 340:	0300340a 	movweq	r3, #1034	; 0x40a
 344:	3b0b3a0e 	blcc	2ceb84 <__bss_end__+0x2c4c8c>
 348:	3f13490b 	svccc	0x0013490b
 34c:	00193c19 	andseq	r3, r9, r9, lsl ip
 350:	00340b00 	eorseq	r0, r4, r0, lsl #22
 354:	0b3a0e03 	bleq	e83b68 <__bss_end__+0xe79c70>
 358:	13490b3b 	movtne	r0, #39739	; 0x9b3b
 35c:	1802193f 	stmdane	r2, {r0, r1, r2, r3, r4, r5, r8, fp, ip}
 360:	01000000 	mrseq	r0, (UNDEF: 0)
 364:	0e250111 	mcreq	1, 1, r0, cr5, cr1, {0}
 368:	0e030b13 	vmoveq.32	d3[0], r0
 36c:	01110e1b 	tsteq	r1, fp, lsl lr
 370:	17100612 			; <UNDEFINED> instruction: 0x17100612
 374:	24020000 	strcs	r0, [r2], #-0
 378:	3e0b0b00 	vmlacc.f64	d0, d11, d0
 37c:	0008030b 	andeq	r0, r8, fp, lsl #6
 380:	00240300 	eoreq	r0, r4, r0, lsl #6
 384:	0b3e0b0b 	bleq	f82fb8 <__bss_end__+0xf790c0>
 388:	00000e03 	andeq	r0, r0, r3, lsl #28
 38c:	0b000f04 	bleq	3fa4 <_start-0x405c>
 390:	0500000b 	streq	r0, [r0, #-11]
 394:	0b0b000f 	bleq	2c03d8 <__bss_end__+0x2b64e0>
 398:	00001349 	andeq	r1, r0, r9, asr #6
 39c:	49002606 	stmdbmi	r0, {r1, r2, r9, sl, sp}
 3a0:	07000013 	smladeq	r0, r3, r0, r0
 3a4:	0e030016 	mcreq	0, 0, r0, cr3, cr6, {0}
 3a8:	0b3b0b3a 	bleq	ec3098 <__bss_end__+0xeb91a0>
 3ac:	00001349 	andeq	r1, r0, r9, asr #6
 3b0:	03011308 	movweq	r1, #4872	; 0x1308
 3b4:	3a0b0b0e 	bcc	2c2ff4 <__bss_end__+0x2b90fc>
 3b8:	010b3b0b 	tsteq	fp, fp, lsl #22
 3bc:	09000013 	stmdbeq	r0, {r0, r1, r4}
 3c0:	0e03000d 	cdpeq	0, 0, cr0, cr3, cr13, {0}
 3c4:	0b381349 	bleq	e050f0 <__bss_end__+0xdfb1f8>
 3c8:	00001934 	andeq	r1, r0, r4, lsr r9
 3cc:	03012e0a 	movweq	r2, #7690	; 0x1e0a
 3d0:	3b0b3a0e 	blcc	2cec10 <__bss_end__+0x2c4d18>
 3d4:	4919270b 	ldmdbmi	r9, {r0, r1, r3, r8, r9, sl, sp}
 3d8:	12011113 	andne	r1, r1, #-1073741820	; 0xc0000004
 3dc:	97184006 	ldrls	r4, [r8, -r6]
 3e0:	13011942 	movwne	r1, #6466	; 0x1942
 3e4:	050b0000 	streq	r0, [fp, #-0]
 3e8:	3a080300 	bcc	200ff0 <__bss_end__+0x1f70f8>
 3ec:	490b3b0b 	stmdbmi	fp, {r0, r1, r3, r8, r9, fp, ip, sp}
 3f0:	00170213 	andseq	r0, r7, r3, lsl r2
 3f4:	012e0c00 	teqeq	lr, r0, lsl #24
 3f8:	0b3a0803 	bleq	e8240c <__bss_end__+0xe78514>
 3fc:	19270b3b 	stmdbne	r7!, {r0, r1, r3, r4, r5, r8, r9, fp}
 400:	01111349 	tsteq	r1, r9, asr #6
 404:	18400612 	stmdane	r0, {r1, r4, r9, sl}^
 408:	01194297 			; <UNDEFINED> instruction: 0x01194297
 40c:	0d000013 	stceq	0, cr0, [r0, #-76]	; 0xffffffb4
 410:	0e030005 	cdpeq	0, 0, cr0, cr3, cr5, {0}
 414:	0b3b0b3a 	bleq	ec3104 <__bss_end__+0xeb920c>
 418:	17021349 	strne	r1, [r2, -r9, asr #6]
 41c:	050e0000 	streq	r0, [lr, #-0]
 420:	3a0e0300 	bcc	381028 <__bss_end__+0x377130>
 424:	490b3b0b 	stmdbmi	fp, {r0, r1, r3, r8, r9, fp, ip, sp}
 428:	00180213 	andseq	r0, r8, r3, lsl r2
 42c:	00340f00 	eorseq	r0, r4, r0, lsl #30
 430:	0b3a0803 	bleq	e82444 <__bss_end__+0xe7854c>
 434:	13490b3b 	movtne	r0, #39739	; 0x9b3b
 438:	00001802 	andeq	r1, r0, r2, lsl #16
 43c:	03003410 	movweq	r3, #1040	; 0x410
 440:	3b0b3a08 	blcc	2cec68 <__bss_end__+0x2c4d70>
 444:	0213490b 	andseq	r4, r3, #180224	; 0x2c000
 448:	11000017 	tstne	r0, r7, lsl r0
 44c:	0e030034 	mcreq	0, 0, r0, cr3, cr4, {1}
 450:	19341349 	ldmdbne	r4!, {r0, r3, r6, r8, r9, ip}
 454:	00001802 	andeq	r1, r0, r2, lsl #16
 458:	11010b12 	tstne	r1, r2, lsl fp
 45c:	01061201 	tsteq	r6, r1, lsl #4
 460:	13000013 	movwne	r0, #19
 464:	0e030034 	mcreq	0, 0, r0, cr3, cr4, {1}
 468:	0b3b0b3a 	bleq	ec3158 <__bss_end__+0xeb9260>
 46c:	17021349 	strne	r1, [r2, -r9, asr #6]
 470:	89140000 	ldmdbhi	r4, {}	; <UNPREDICTABLE>
 474:	11010182 	smlabbne	r1, r2, r1, r0
 478:	01133101 	tsteq	r3, r1, lsl #2
 47c:	15000013 	strne	r0, [r0, #-19]
 480:	0001828a 	andeq	r8, r1, sl, lsl #5
 484:	42911802 	addsmi	r1, r1, #131072	; 0x20000
 488:	16000018 			; <UNDEFINED> instruction: 0x16000018
 48c:	00018289 	andeq	r8, r1, r9, lsl #5
 490:	13310111 	teqne	r1, #1073741828	; 0x40000004
 494:	89170000 	ldmdbhi	r7, {}	; <UNPREDICTABLE>
 498:	11010182 	smlabbne	r1, r2, r1, r0
 49c:	00133101 	andseq	r3, r3, r1, lsl #2
 4a0:	01011800 	tsteq	r1, r0, lsl #16
 4a4:	13011349 	movwne	r1, #4937	; 0x1349
 4a8:	21190000 	tstcs	r9, r0
 4ac:	2f134900 	svccs	0x00134900
 4b0:	1a00000b 	bne	4e4 <_start-0x7b1c>
 4b4:	193f012e 	ldmdbne	pc!, {r1, r2, r3, r5, r8}	; <UNPREDICTABLE>
 4b8:	0b3a0e03 	bleq	e83ccc <__bss_end__+0xe79dd4>
 4bc:	19270b3b 	stmdbne	r7!, {r0, r1, r3, r4, r5, r8, r9, fp}
 4c0:	06120111 			; <UNDEFINED> instruction: 0x06120111
 4c4:	42971840 	addsmi	r1, r7, #64, 16	; 0x400000
 4c8:	00130119 	andseq	r0, r3, r9, lsl r1
 4cc:	01151b00 	tsteq	r5, r0, lsl #22
 4d0:	13491927 	movtne	r1, #39207	; 0x9927
 4d4:	00001301 	andeq	r1, r0, r1, lsl #6
 4d8:	4900051c 	stmdbmi	r0, {r2, r3, r4, r8, sl}
 4dc:	1d000013 	stcne	0, cr0, [r0, #-76]	; 0xffffffb4
 4e0:	193f012e 	ldmdbne	pc!, {r1, r2, r3, r5, r8}	; <UNPREDICTABLE>
 4e4:	0b3a0e03 	bleq	e83cf8 <__bss_end__+0xe79e00>
 4e8:	19270b3b 	stmdbne	r7!, {r0, r1, r3, r4, r5, r8, r9, fp}
 4ec:	01111349 	tsteq	r1, r9, asr #6
 4f0:	18400612 	stmdane	r0, {r1, r4, r9, sl}^
 4f4:	01194297 			; <UNDEFINED> instruction: 0x01194297
 4f8:	1e000013 	mcrne	0, 0, r0, cr0, cr3, {0}
 4fc:	0111010b 	tsteq	r1, fp, lsl #2
 500:	00000612 	andeq	r0, r0, r2, lsl r6
 504:	0300341f 	movweq	r3, #1055	; 0x41f
 508:	3b0b3a0e 	blcc	2ced48 <__bss_end__+0x2c4e50>
 50c:	3f13490b 	svccc	0x0013490b
 510:	00193c19 	andseq	r3, r9, r9, lsl ip
 514:	012e2000 	teqeq	lr, r0
 518:	0e03193f 	mcreq	9, 0, r1, cr3, cr15, {1}
 51c:	0b3b0b3a 	bleq	ec320c <__bss_end__+0xeb9314>
 520:	13491927 	movtne	r1, #39207	; 0x9927
 524:	1301193c 	movwne	r1, #6460	; 0x193c
 528:	18210000 	stmdane	r1!, {}	; <UNPREDICTABLE>
 52c:	22000000 	andcs	r0, r0, #0
 530:	193f002e 	ldmdbne	pc!, {r1, r2, r3, r5}	; <UNPREDICTABLE>
 534:	0b3a0e03 	bleq	e83d48 <__bss_end__+0xe79e50>
 538:	19270b3b 	stmdbne	r7!, {r0, r1, r3, r4, r5, r8, r9, fp}
 53c:	0000193c 	andeq	r1, r0, ip, lsr r9
 540:	01110100 	tsteq	r1, r0, lsl #2
 544:	0b130e25 	bleq	4c3de0 <__bss_end__+0x4b9ee8>
 548:	0e1b0e03 	cdpeq	14, 1, cr0, cr11, cr3, {0}
 54c:	06120111 			; <UNDEFINED> instruction: 0x06120111
 550:	00001710 	andeq	r1, r0, r0, lsl r7
 554:	0b002402 	bleq	9564 <GPSET0>
 558:	030b3e0b 	movweq	r3, #48651	; 0xbe0b
 55c:	03000008 	movweq	r0, #8
 560:	0b0b0024 	bleq	2c05f8 <__bss_end__+0x2b6700>
 564:	0e030b3e 	vmoveq.16	d3[0], r0
 568:	0f040000 	svceq	0x00040000
 56c:	490b0b00 	stmdbmi	fp, {r8, r9, fp}
 570:	05000013 	streq	r0, [r0, #-19]
 574:	13490026 	movtne	r0, #36902	; 0x9026
 578:	2e060000 	cdpcs	0, 0, cr0, cr6, cr0, {0}
 57c:	03193f01 	tsteq	r9, #1, 30
 580:	3b0b3a0e 	blcc	2cedc0 <__bss_end__+0x2c4ec8>
 584:	1119270b 	tstne	r9, fp, lsl #14
 588:	40061201 	andmi	r1, r6, r1, lsl #4
 58c:	19429718 	stmdbne	r2, {r3, r4, r8, r9, sl, ip, pc}^
 590:	00001301 	andeq	r1, r0, r1, lsl #6
 594:	01828907 	orreq	r8, r2, r7, lsl #18
 598:	01011101 	tsteq	r1, r1, lsl #2
 59c:	08000013 	stmdaeq	r0, {r0, r1, r4}
 5a0:	0001828a 	andeq	r8, r1, sl, lsl #5
 5a4:	42911802 	addsmi	r1, r1, #131072	; 0x20000
 5a8:	09000018 	stmdbeq	r0, {r3, r4}
 5ac:	01018289 	smlabbeq	r1, r9, r2, r8
 5b0:	13310111 	teqne	r1, #1073741828	; 0x40000004
 5b4:	00001301 	andeq	r1, r0, r1, lsl #6
 5b8:	0182890a 	orreq	r8, r2, sl, lsl #18
 5bc:	31011100 	mrscc	r1, (UNDEF: 17)
 5c0:	0b000013 	bleq	614 <_start-0x79ec>
 5c4:	19270115 	stmdbne	r7!, {r0, r2, r4, r8}
 5c8:	13011349 	movwne	r1, #4937	; 0x1349
 5cc:	050c0000 	streq	r0, [ip, #-0]
 5d0:	00134900 	andseq	r4, r3, r0, lsl #18
 5d4:	00340d00 	eorseq	r0, r4, r0, lsl #26
 5d8:	0b3a0e03 	bleq	e83dec <__bss_end__+0xe79ef4>
 5dc:	13490b3b 	movtne	r0, #39739	; 0x9b3b
 5e0:	193c193f 	ldmdbne	ip!, {r0, r1, r2, r3, r4, r5, r8, fp, ip}
 5e4:	2e0e0000 	cdpcs	0, 0, cr0, cr14, cr0, {0}
 5e8:	03193f01 	tsteq	r9, #1, 30
 5ec:	3b0b3a0e 	blcc	2cee2c <__bss_end__+0x2c4f34>
 5f0:	3c19270b 	ldccc	7, cr2, [r9], {11}
 5f4:	00130119 	andseq	r0, r3, r9, lsl r1
 5f8:	002e0f00 	eoreq	r0, lr, r0, lsl #30
 5fc:	0e03193f 	mcreq	9, 0, r1, cr3, cr15, {1}
 600:	0b3b0b3a 	bleq	ec32f0 <__bss_end__+0xeb93f8>
 604:	193c1927 	ldmdbne	ip!, {r0, r1, r2, r5, r8, fp, ip}
 608:	01000000 	mrseq	r0, (UNDEF: 0)
 60c:	0e250111 	mcreq	1, 1, r0, cr5, cr1, {0}
 610:	0e030b13 	vmoveq.32	d3[0], r0
 614:	01110e1b 	tsteq	r1, fp, lsl lr
 618:	17100612 			; <UNDEFINED> instruction: 0x17100612
 61c:	24020000 	strcs	r0, [r2], #-0
 620:	3e0b0b00 	vmlacc.f64	d0, d11, d0
 624:	0008030b 	andeq	r0, r8, fp, lsl #6
 628:	00240300 	eoreq	r0, r4, r0, lsl #6
 62c:	0b3e0b0b 	bleq	f83260 <__bss_end__+0xf79368>
 630:	00000e03 	andeq	r0, r0, r3, lsl #28
 634:	3f012e04 	svccc	0x00012e04
 638:	3a0e0319 	bcc	3812a4 <__bss_end__+0x3773ac>
 63c:	110b3b0b 	tstne	fp, fp, lsl #22
 640:	40061201 	andmi	r1, r6, r1, lsl #4
 644:	19429718 	stmdbne	r2, {r3, r4, r8, r9, sl, ip, pc}^
 648:	00001301 	andeq	r1, r0, r1, lsl #6
 64c:	03003405 	movweq	r3, #1029	; 0x405
 650:	3b0b3a0e 	blcc	2cee90 <__bss_end__+0x2c4f98>
 654:	3f13490b 	svccc	0x0013490b
 658:	00193c19 	andseq	r3, r9, r9, lsl ip
 65c:	012e0600 	teqeq	lr, r0, lsl #12
 660:	0e03193f 	mcreq	9, 0, r1, cr3, cr15, {1}
 664:	0b3b0b3a 	bleq	ec3354 <__bss_end__+0xeb945c>
 668:	1301193c 	movwne	r1, #6460	; 0x193c
 66c:	18070000 	stmdane	r7, {}	; <UNPREDICTABLE>
 670:	08000000 	stmdaeq	r0, {}	; <UNPREDICTABLE>
 674:	08030034 	stmdaeq	r3, {r2, r4, r5}
 678:	0b3b0b3a 	bleq	ec3368 <__bss_end__+0xeb9470>
 67c:	17021349 	strne	r1, [r2, -r9, asr #6]
 680:	34090000 	strcc	r0, [r9], #-0
 684:	3a0e0300 	bcc	38128c <__bss_end__+0x377394>
 688:	490b3b0b 	stmdbmi	fp, {r0, r1, r3, r8, r9, fp, ip, sp}
 68c:	0a000013 	beq	6e0 <_start-0x7920>
 690:	00018289 	andeq	r8, r1, r9, lsl #5
 694:	13310111 	teqne	r1, #1073741828	; 0x40000004
 698:	0f0b0000 	svceq	0x000b0000
 69c:	490b0b00 	stmdbmi	fp, {r8, r9, fp}
 6a0:	0c000013 	stceq	0, cr0, [r0], {19}
 6a4:	193f002e 	ldmdbne	pc!, {r1, r2, r3, r5}	; <UNPREDICTABLE>
 6a8:	0b3a0e03 	bleq	e83ebc <__bss_end__+0xe79fc4>
 6ac:	19270b3b 	stmdbne	r7!, {r0, r1, r3, r4, r5, r8, r9, fp}
 6b0:	0000193c 	andeq	r1, r0, ip, lsr r9
 6b4:	01110100 	tsteq	r1, r0, lsl #2
 6b8:	0b130e25 	bleq	4c3f54 <__bss_end__+0x4ba05c>
 6bc:	0e1b0e03 	cdpeq	14, 1, cr0, cr11, cr3, {0}
 6c0:	01111755 	tsteq	r1, r5, asr r7
 6c4:	00001710 	andeq	r1, r0, r0, lsl r7
 6c8:	0b002402 	bleq	96d8 <__FUNCTION__.4286+0xcc>
 6cc:	030b3e0b 	movweq	r3, #48651	; 0xbe0b
 6d0:	03000008 	movweq	r0, #8
 6d4:	0b0b0024 	bleq	2c076c <__bss_end__+0x2b6874>
 6d8:	0e030b3e 	vmoveq.16	d3[0], r0
 6dc:	2e040000 	cdpcs	0, 0, cr0, cr4, cr0, {0}
 6e0:	03193f01 	tsteq	r9, #1, 30
 6e4:	3b0b3a0e 	blcc	2cef24 <__bss_end__+0x2c502c>
 6e8:	4919270b 	ldmdbmi	r9, {r0, r1, r3, r8, r9, sl, sp}
 6ec:	12011113 	andne	r1, r1, #-1073741820	; 0xc0000004
 6f0:	97184006 	ldrls	r4, [r8, -r6]
 6f4:	13011942 	movwne	r1, #6466	; 0x1942
 6f8:	34050000 	strcc	r0, [r5], #-0
 6fc:	3a0e0300 	bcc	381304 <__bss_end__+0x37740c>
 700:	490b3b0b 	stmdbmi	fp, {r0, r1, r3, r8, r9, fp, ip, sp}
 704:	00170213 	andseq	r0, r7, r3, lsl r2
 708:	012e0600 	teqeq	lr, r0, lsl #12
 70c:	0e03193f 	mcreq	9, 0, r1, cr3, cr15, {1}
 710:	0b3b0b3a 	bleq	ec3400 <__bss_end__+0xeb9508>
 714:	01111927 	tsteq	r1, r7, lsr #18
 718:	18400612 	stmdane	r0, {r1, r4, r9, sl}^
 71c:	01194297 			; <UNDEFINED> instruction: 0x01194297
 720:	07000013 	smladeq	r0, r3, r0, r0
 724:	0e030034 	mcreq	0, 0, r0, cr3, cr4, {1}
 728:	0b3b0b3a 	bleq	ec3418 <__bss_end__+0xeb9520>
 72c:	061c1349 	ldreq	r1, [ip], -r9, asr #6
 730:	34080000 	strcc	r0, [r8], #-0
 734:	3a0e0300 	bcc	38133c <__bss_end__+0x377444>
 738:	490b3b0b 	stmdbmi	fp, {r0, r1, r3, r8, r9, fp, ip, sp}
 73c:	000b1c13 	andeq	r1, fp, r3, lsl ip
 740:	82890900 	addhi	r0, r9, #0, 18
 744:	01110001 	tsteq	r1, r1
 748:	00001331 	andeq	r1, r0, r1, lsr r3
 74c:	0182890a 	orreq	r8, r2, sl, lsl #18
 750:	31011101 	tstcc	r1, r1, lsl #2
 754:	00130113 	andseq	r0, r3, r3, lsl r1
 758:	828a0b00 	addhi	r0, sl, #0, 22
 75c:	18020001 	stmdane	r2, {r0}
 760:	00184291 	mulseq	r8, r1, r2
 764:	82890c00 	addhi	r0, r9, #0, 24
 768:	01110101 	tsteq	r1, r1, lsl #2
 76c:	00001331 	andeq	r1, r0, r1, lsr r3
 770:	4900260d 	stmdbmi	r0, {r0, r2, r3, r9, sl, sp}
 774:	0e000013 	mcreq	0, 0, r0, cr0, cr3, {0}
 778:	193f012e 	ldmdbne	pc!, {r1, r2, r3, r5, r8}	; <UNPREDICTABLE>
 77c:	0b3a0e03 	bleq	e83f90 <__bss_end__+0xe7a098>
 780:	19270b3b 	stmdbne	r7!, {r0, r1, r3, r4, r5, r8, r9, fp}
 784:	1301193c 	movwne	r1, #6460	; 0x193c
 788:	050f0000 	streq	r0, [pc, #-0]	; 790 <_start-0x7870>
 78c:	00134900 	andseq	r4, r3, r0, lsl #18
 790:	012e1000 	teqeq	lr, r0
 794:	0e03193f 	mcreq	9, 0, r1, cr3, cr15, {1}
 798:	0b3b0b3a 	bleq	ec3488 <__bss_end__+0xeb9590>
 79c:	193c1927 	ldmdbne	ip!, {r0, r1, r2, r5, r8, fp, ip}
 7a0:	01000000 	mrseq	r0, (UNDEF: 0)
 7a4:	0e250111 	mcreq	1, 1, r0, cr5, cr1, {0}
 7a8:	0e030b13 	vmoveq.32	d3[0], r0
 7ac:	01110e1b 	tsteq	r1, fp, lsl lr
 7b0:	17100612 			; <UNDEFINED> instruction: 0x17100612
 7b4:	24020000 	strcs	r0, [r2], #-0
 7b8:	3e0b0b00 	vmlacc.f64	d0, d11, d0
 7bc:	0008030b 	andeq	r0, r8, fp, lsl #6
 7c0:	00240300 	eoreq	r0, r4, r0, lsl #6
 7c4:	0b3e0b0b 	bleq	f833f8 <__bss_end__+0xf79500>
 7c8:	00000e03 	andeq	r0, r0, r3, lsl #28
 7cc:	3f012e04 	svccc	0x00012e04
 7d0:	3a0e0319 	bcc	38143c <__bss_end__+0x377544>
 7d4:	270b3b0b 	strcs	r3, [fp, -fp, lsl #22]
 7d8:	12011119 	andne	r1, r1, #1073741830	; 0x40000006
 7dc:	97184006 	ldrls	r4, [r8, -r6]
 7e0:	13011942 	movwne	r1, #6466	; 0x1942
 7e4:	05050000 	streq	r0, [r5, #-0]
 7e8:	3a0e0300 	bcc	3813f0 <__bss_end__+0x3774f8>
 7ec:	490b3b0b 	stmdbmi	fp, {r0, r1, r3, r8, r9, fp, ip, sp}
 7f0:	00170213 	andseq	r0, r7, r3, lsl r2
 7f4:	012e0600 	teqeq	lr, r0, lsl #12
 7f8:	0e03193f 	mcreq	9, 0, r1, cr3, cr15, {1}
 7fc:	0b3b0b3a 	bleq	ec34ec <__bss_end__+0xeb95f4>
 800:	13491927 	movtne	r1, #39207	; 0x9927
 804:	06120111 			; <UNDEFINED> instruction: 0x06120111
 808:	42971840 	addsmi	r1, r7, #64, 16	; 0x400000
 80c:	00130119 	andseq	r0, r3, r9, lsl r1
 810:	82890700 	addhi	r0, r9, #0, 14
 814:	01110101 	tsteq	r1, r1, lsl #2
 818:	00001331 	andeq	r1, r0, r1, lsr r3
 81c:	01828a08 	orreq	r8, r2, r8, lsl #20
 820:	91180200 	tstls	r8, r0, lsl #4
 824:	00001842 	andeq	r1, r0, r2, asr #16
 828:	03003409 	movweq	r3, #1033	; 0x409
 82c:	3b0b3a08 	blcc	2cf054 <__bss_end__+0x2c515c>
 830:	0213490b 	andseq	r4, r3, #180224	; 0x2c000
 834:	0a000018 	beq	89c <_start-0x7764>
 838:	00018289 	andeq	r8, r1, r9, lsl #5
 83c:	13310111 	teqne	r1, #1073741828	; 0x40000004
 840:	050b0000 	streq	r0, [fp, #-0]
 844:	3a080300 	bcc	20144c <__bss_end__+0x1f7554>
 848:	490b3b0b 	stmdbmi	fp, {r0, r1, r3, r8, r9, fp, ip, sp}
 84c:	00170213 	andseq	r0, r7, r3, lsl r2
 850:	010b0c00 	tsteq	fp, r0, lsl #24
 854:	06120111 			; <UNDEFINED> instruction: 0x06120111
 858:	00001301 	andeq	r1, r0, r1, lsl #6
 85c:	0300340d 	movweq	r3, #1037	; 0x40d
 860:	3b0b3a08 	blcc	2cf088 <__bss_end__+0x2c5190>
 864:	0213490b 	andseq	r4, r3, #180224	; 0x2c000
 868:	0e000017 	mcreq	0, 0, r0, cr0, cr7, {0}
 86c:	193f012e 	ldmdbne	pc!, {r1, r2, r3, r5, r8}	; <UNPREDICTABLE>
 870:	0b3a0e03 	bleq	e84084 <__bss_end__+0xe7a18c>
 874:	19270b3b 	stmdbne	r7!, {r0, r1, r3, r4, r5, r8, r9, fp}
 878:	193c1349 	ldmdbne	ip!, {r0, r3, r6, r8, r9, ip}
 87c:	050f0000 	streq	r0, [pc, #-0]	; 884 <_start-0x777c>
 880:	00134900 	andseq	r4, r3, r0, lsl #18
 884:	11010000 	mrsne	r0, (UNDEF: 1)
 888:	130e2501 	movwne	r2, #58625	; 0xe501
 88c:	1b0e030b 	blne	3814c0 <__bss_end__+0x3775c8>
 890:	1201110e 	andne	r1, r1, #-2147483645	; 0x80000003
 894:	00171006 	andseq	r1, r7, r6
 898:	00240200 	eoreq	r0, r4, r0, lsl #4
 89c:	0b3e0b0b 	bleq	f834d0 <__bss_end__+0xf795d8>
 8a0:	00000e03 	andeq	r0, r0, r3, lsl #28
 8a4:	0b002403 	bleq	98b8 <__FUNCTION__.4224+0x14>
 8a8:	030b3e0b 	movweq	r3, #48651	; 0xbe0b
 8ac:	04000008 	streq	r0, [r0], #-8
 8b0:	0b0b0104 	bleq	2c0cc8 <__bss_end__+0x2b6dd0>
 8b4:	0b3b0b3a 	bleq	ec35a4 <__bss_end__+0xeb96ac>
 8b8:	00001301 	andeq	r1, r0, r1, lsl #6
 8bc:	03002805 	movweq	r2, #2053	; 0x805
 8c0:	000d1c0e 	andeq	r1, sp, lr, lsl #24
 8c4:	00160600 	andseq	r0, r6, r0, lsl #12
 8c8:	0b3a0e03 	bleq	e840dc <__bss_end__+0xe7a1e4>
 8cc:	13490b3b 	movtne	r0, #39739	; 0x9b3b
 8d0:	2e070000 	cdpcs	0, 0, cr0, cr7, cr0, {0}
 8d4:	03193f01 	tsteq	r9, #1, 30
 8d8:	3b0b3a0e 	blcc	2cf118 <__bss_end__+0x2c5220>
 8dc:	1119270b 	tstne	r9, fp, lsl #14
 8e0:	40061201 	andmi	r1, r6, r1, lsl #4
 8e4:	19429718 	stmdbne	r2, {r3, r4, r8, r9, sl, ip, pc}^
 8e8:	00001301 	andeq	r1, r0, r1, lsl #6
 8ec:	03000508 	movweq	r0, #1288	; 0x508
 8f0:	3b0b3a08 	blcc	2cf118 <__bss_end__+0x2c5220>
 8f4:	0213490b 	andseq	r4, r3, #180224	; 0x2c000
 8f8:	09000017 	stmdbeq	r0, {r0, r1, r2, r4}
 8fc:	0e030034 	mcreq	0, 0, r0, cr3, cr4, {1}
 900:	0b3b0b3a 	bleq	ec35f0 <__bss_end__+0xeb96f8>
 904:	17021349 	strne	r1, [r2, -r9, asr #6]
 908:	890a0000 	stmdbhi	sl, {}	; <UNPREDICTABLE>
 90c:	11010182 	smlabbne	r1, r2, r1, r0
 910:	01133101 	tsteq	r3, r1, lsl #2
 914:	0b000013 	bleq	968 <_start-0x7698>
 918:	0001828a 	andeq	r8, r1, sl, lsl #5
 91c:	42911802 	addsmi	r1, r1, #131072	; 0x20000
 920:	0c000018 	stceq	0, cr0, [r0], {24}
 924:	01018289 	smlabbeq	r1, r9, r2, r8
 928:	13310111 	teqne	r1, #1073741828	; 0x40000004
 92c:	0f0d0000 	svceq	0x000d0000
 930:	490b0b00 	stmdbmi	fp, {r8, r9, fp}
 934:	0e000013 	mcreq	0, 0, r0, cr0, cr3, {0}
 938:	13490035 	movtne	r0, #36917	; 0x9035
 93c:	2e0f0000 	cdpcs	0, 0, cr0, cr15, cr0, {0}
 940:	03193f01 	tsteq	r9, #1, 30
 944:	3b0b3a0e 	blcc	2cf184 <__bss_end__+0x2c528c>
 948:	2019270b 	andscs	r2, r9, fp, lsl #14
 94c:	0013010b 	andseq	r0, r3, fp, lsl #2
 950:	00051000 	andeq	r1, r5, r0
 954:	0b3a0803 	bleq	e82968 <__bss_end__+0xe78a70>
 958:	13490b3b 	movtne	r0, #39739	; 0x9b3b
 95c:	34110000 	ldrcc	r0, [r1], #-0
 960:	3a0e0300 	bcc	381568 <__bss_end__+0x377670>
 964:	490b3b0b 	stmdbmi	fp, {r0, r1, r3, r8, r9, fp, ip, sp}
 968:	12000013 	andne	r0, r0, #19
 96c:	1331012e 	teqne	r1, #-2147483637	; 0x8000000b
 970:	06120111 			; <UNDEFINED> instruction: 0x06120111
 974:	42971840 	addsmi	r1, r7, #64, 16	; 0x400000
 978:	00130119 	andseq	r0, r3, r9, lsl r1
 97c:	00051300 	andeq	r1, r5, r0, lsl #6
 980:	17021331 	smladxne	r2, r1, r3, r1
 984:	34140000 	ldrcc	r0, [r4], #-0
 988:	02133100 	andseq	r3, r3, #0, 2
 98c:	15000017 	strne	r0, [r0, #-23]
 990:	193f012e 	ldmdbne	pc!, {r1, r2, r3, r5, r8}	; <UNPREDICTABLE>
 994:	0b3a0e03 	bleq	e841a8 <__bss_end__+0xe7a2b0>
 998:	19270b3b 	stmdbne	r7!, {r0, r1, r3, r4, r5, r8, r9, fp}
 99c:	01111349 	tsteq	r1, r9, asr #6
 9a0:	18400612 	stmdane	r0, {r1, r4, r9, sl}^
 9a4:	01194297 			; <UNDEFINED> instruction: 0x01194297
 9a8:	16000013 			; <UNDEFINED> instruction: 0x16000013
 9ac:	08030034 	stmdaeq	r3, {r2, r4, r5}
 9b0:	0b3b0b3a 	bleq	ec36a0 <__bss_end__+0xeb97a8>
 9b4:	17021349 	strne	r1, [r2, -r9, asr #6]
 9b8:	89170000 	ldmdbhi	r7, {}	; <UNPREDICTABLE>
 9bc:	11000182 	smlabbne	r0, r2, r1, r0
 9c0:	00133101 	andseq	r3, r3, r1, lsl #2
 9c4:	011d1800 	tsteq	sp, r0, lsl #16
 9c8:	01111331 	tsteq	r1, r1, lsr r3
 9cc:	0b580612 	bleq	160221c <__bss_end__+0x15f8324>
 9d0:	13010b59 	movwne	r0, #7001	; 0x1b59
 9d4:	0b190000 	bleq	6409dc <__bss_end__+0x636ae4>
 9d8:	12011101 	andne	r1, r1, #1073741824	; 0x40000000
 9dc:	1a000006 	bne	9fc <_start-0x7604>
 9e0:	1331011d 	teqne	r1, #1073741831	; 0x40000007
 9e4:	06120111 			; <UNDEFINED> instruction: 0x06120111
 9e8:	0b590b58 	bleq	1643750 <__bss_end__+0x1639858>
 9ec:	051b0000 	ldreq	r0, [fp, #-0]
 9f0:	3a0e0300 	bcc	3815f8 <__bss_end__+0x377700>
 9f4:	490b3b0b 	stmdbmi	fp, {r0, r1, r3, r8, r9, fp, ip, sp}
 9f8:	00170213 	andseq	r0, r7, r3, lsl r2
 9fc:	012e1c00 	teqeq	lr, r0, lsl #24
 a00:	0e03193f 	mcreq	9, 0, r1, cr3, cr15, {1}
 a04:	053b0b3a 	ldreq	r0, [fp, #-2874]!	; 0xb3a
 a08:	13491927 	movtne	r1, #39207	; 0x9927
 a0c:	06120111 			; <UNDEFINED> instruction: 0x06120111
 a10:	42971840 	addsmi	r1, r7, #64, 16	; 0x400000
 a14:	00130119 	andseq	r0, r3, r9, lsl r1
 a18:	00051d00 	andeq	r1, r5, r0, lsl #26
 a1c:	0b3a0e03 	bleq	e84230 <__bss_end__+0xe7a338>
 a20:	1349053b 	movtne	r0, #38203	; 0x953b
 a24:	00001702 	andeq	r1, r0, r2, lsl #14
 a28:	3f012e1e 	svccc	0x00012e1e
 a2c:	3a0e0319 	bcc	381698 <__bss_end__+0x3777a0>
 a30:	27053b0b 	strcs	r3, [r5, -fp, lsl #22]
 a34:	12011119 	andne	r1, r1, #1073741830	; 0x40000006
 a38:	97184006 	ldrls	r4, [r8, -r6]
 a3c:	13011942 	movwne	r1, #6466	; 0x1942
 a40:	051f0000 	ldreq	r0, [pc, #-0]	; a48 <_start-0x75b8>
 a44:	3a080300 	bcc	20164c <__bss_end__+0x1f7754>
 a48:	49053b0b 	stmdbmi	r5, {r0, r1, r3, r8, r9, fp, ip, sp}
 a4c:	00170213 	andseq	r0, r7, r3, lsl r2
 a50:	00342000 	eorseq	r2, r4, r0
 a54:	0b3a0e03 	bleq	e84268 <__bss_end__+0xe7a370>
 a58:	1349053b 	movtne	r0, #38203	; 0x953b
 a5c:	00001702 	andeq	r1, r0, r2, lsl #14
 a60:	11010b21 	tstne	r1, r1, lsr #22
 a64:	01061201 	tsteq	r6, r1, lsl #4
 a68:	22000013 	andcs	r0, r0, #19
 a6c:	0e030034 	mcreq	0, 0, r0, cr3, cr4, {1}
 a70:	0b3b0b3a 	bleq	ec3760 <__bss_end__+0xeb9868>
 a74:	193f1349 	ldmdbne	pc!, {r0, r3, r6, r8, r9, ip}	; <UNPREDICTABLE>
 a78:	00001802 	andeq	r1, r0, r2, lsl #16
 a7c:	3f012e23 	svccc	0x00012e23
 a80:	3a0e0319 	bcc	3816ec <__bss_end__+0x3777f4>
 a84:	270b3b0b 	strcs	r3, [fp, -fp, lsl #22]
 a88:	3c134919 	ldccc	9, cr4, [r3], {25}
 a8c:	00130119 	andseq	r0, r3, r9, lsl r1
 a90:	00052400 	andeq	r2, r5, r0, lsl #8
 a94:	00001349 	andeq	r1, r0, r9, asr #6
 a98:	49002625 	stmdbmi	r0, {r0, r2, r5, r9, sl, sp}
 a9c:	26000013 			; <UNDEFINED> instruction: 0x26000013
 aa0:	00000035 	andeq	r0, r0, r5, lsr r0
 aa4:	3f012e27 	svccc	0x00012e27
 aa8:	3a0e0319 	bcc	381714 <__bss_end__+0x37781c>
 aac:	270b3b0b 	strcs	r3, [fp, -fp, lsl #22]
 ab0:	01193c19 	tsteq	r9, r9, lsl ip
 ab4:	28000013 	stmdacs	r0, {r0, r1, r4}
 ab8:	193f002e 	ldmdbne	pc!, {r1, r2, r3, r5}	; <UNPREDICTABLE>
 abc:	0b3a0e03 	bleq	e842d0 <__bss_end__+0xe7a3d8>
 ac0:	19270b3b 	stmdbne	r7!, {r0, r1, r3, r4, r5, r8, r9, fp}
 ac4:	0000193c 	andeq	r1, r0, ip, lsr r9
 ac8:	01110100 	tsteq	r1, r0, lsl #2
 acc:	0b130e25 	bleq	4c4368 <__bss_end__+0x4ba470>
 ad0:	0e1b0e03 	cdpeq	14, 1, cr0, cr11, cr3, {0}
 ad4:	06120111 			; <UNDEFINED> instruction: 0x06120111
 ad8:	00001710 	andeq	r1, r0, r0, lsl r7
 adc:	0b002402 	bleq	9aec <n_interrupt>
 ae0:	030b3e0b 	movweq	r3, #48651	; 0xbe0b
 ae4:	03000008 	movweq	r0, #8
 ae8:	0b0b0024 	bleq	2c0b80 <__bss_end__+0x2b6c88>
 aec:	0e030b3e 	vmoveq.16	d3[0], r0
 af0:	0f040000 	svceq	0x00040000
 af4:	490b0b00 	stmdbmi	fp, {r8, r9, fp}
 af8:	05000013 	streq	r0, [r0, #-19]
 afc:	13490026 	movtne	r0, #36902	; 0x9026
 b00:	01060000 	mrseq	r0, (UNDEF: 6)
 b04:	01134901 	tsteq	r3, r1, lsl #18
 b08:	07000013 	smladeq	r0, r3, r0, r0
 b0c:	13490021 	movtne	r0, #36897	; 0x9021
 b10:	00000b2f 	andeq	r0, r0, pc, lsr #22
 b14:	0b010408 	bleq	41b3c <__bss_end__+0x37c44>
 b18:	3b0b3a0b 	blcc	2cf34c <__bss_end__+0x2c5454>
 b1c:	0013010b 	andseq	r0, r3, fp, lsl #2
 b20:	00280900 	eoreq	r0, r8, r0, lsl #18
 b24:	0d1c0e03 	ldceq	14, cr0, [ip, #-12]
 b28:	2e0a0000 	cdpcs	0, 0, cr0, cr10, cr0, {0}
 b2c:	03193f01 	tsteq	r9, #1, 30
 b30:	3b0b3a0e 	blcc	2cf370 <__bss_end__+0x2c5478>
 b34:	1119270b 	tstne	r9, fp, lsl #14
 b38:	40061201 	andmi	r1, r6, r1, lsl #4
 b3c:	19429718 	stmdbne	r2, {r3, r4, r8, r9, sl, ip, pc}^
 b40:	00001301 	andeq	r1, r0, r1, lsl #6
 b44:	0300340b 	movweq	r3, #1035	; 0x40b
 b48:	3b0b3a0e 	blcc	2cf388 <__bss_end__+0x2c5490>
 b4c:	3f13490b 	svccc	0x0013490b
 b50:	00193c19 	andseq	r3, r9, r9, lsl ip
 b54:	00340c00 	eorseq	r0, r4, r0, lsl #24
 b58:	0b3a0803 	bleq	e82b6c <__bss_end__+0xe78c74>
 b5c:	13490b3b 	movtne	r0, #39739	; 0x9b3b
 b60:	00000b1c 	andeq	r0, r0, ip, lsl fp
 b64:	0300340d 	movweq	r3, #1037	; 0x40d
 b68:	3b0b3a08 	blcc	2cf390 <__bss_end__+0x2c5498>
 b6c:	0013490b 	andseq	r4, r3, fp, lsl #18
 b70:	00340e00 	eorseq	r0, r4, r0, lsl #28
 b74:	0b3a0803 	bleq	e82b88 <__bss_end__+0xe78c90>
 b78:	13490b3b 	movtne	r0, #39739	; 0x9b3b
 b7c:	00001802 	andeq	r1, r0, r2, lsl #16
 b80:	11010b0f 	tstne	r1, pc, lsl #22
 b84:	01061201 	tsteq	r6, r1, lsl #4
 b88:	10000013 	andne	r0, r0, r3, lsl r0
 b8c:	08030034 	stmdaeq	r3, {r2, r4, r5}
 b90:	0b3b0b3a 	bleq	ec3880 <__bss_end__+0xeb9988>
 b94:	17021349 	strne	r1, [r2, -r9, asr #6]
 b98:	89110000 	ldmdbhi	r1, {}	; <UNPREDICTABLE>
 b9c:	11010182 	smlabbne	r1, r2, r1, r0
 ba0:	01133101 	tsteq	r3, r1, lsl #2
 ba4:	12000013 	andne	r0, r0, #19
 ba8:	0001828a 	andeq	r8, r1, sl, lsl #5
 bac:	42911802 	addsmi	r1, r1, #131072	; 0x20000
 bb0:	13000018 	movwne	r0, #24
 bb4:	00018289 	andeq	r8, r1, r9, lsl #5
 bb8:	13310111 	teqne	r1, #1073741828	; 0x40000004
 bbc:	05140000 	ldreq	r0, [r4, #-0]
 bc0:	3a080300 	bcc	2017c8 <__bss_end__+0x1f78d0>
 bc4:	490b3b0b 	stmdbmi	fp, {r0, r1, r3, r8, r9, fp, ip, sp}
 bc8:	00170213 	andseq	r0, r7, r3, lsl r2
 bcc:	00341500 	eorseq	r1, r4, r0, lsl #10
 bd0:	13490e03 	movtne	r0, #40451	; 0x9e03
 bd4:	18021934 	stmdane	r2, {r2, r4, r5, r8, fp, ip}
 bd8:	2e160000 	cdpcs	0, 1, cr0, cr6, cr0, {0}
 bdc:	03193f01 	tsteq	r9, #1, 30
 be0:	3b0b3a0e 	blcc	2cf420 <__bss_end__+0x2c5528>
 be4:	3c19270b 	ldccc	7, cr2, [r9], {11}
 be8:	00130119 	andseq	r0, r3, r9, lsl r1
 bec:	00051700 	andeq	r1, r5, r0, lsl #14
 bf0:	00001349 	andeq	r1, r0, r9, asr #6
 bf4:	3f002e18 	svccc	0x00002e18
 bf8:	3a0e0319 	bcc	381864 <__bss_end__+0x37796c>
 bfc:	270b3b0b 	strcs	r3, [fp, -fp, lsl #22]
 c00:	00193c19 	andseq	r3, r9, r9, lsl ip
 c04:	012e1900 	teqeq	lr, r0, lsl #18
 c08:	0e03193f 	mcreq	9, 0, r1, cr3, cr15, {1}
 c0c:	0b3b0b3a 	bleq	ec38fc <__bss_end__+0xeb9a04>
 c10:	13491927 	movtne	r1, #39207	; 0x9927
 c14:	1301193c 	movwne	r1, #6460	; 0x193c
 c18:	181a0000 	ldmdane	sl, {}	; <UNPREDICTABLE>
 c1c:	00000000 	andeq	r0, r0, r0
 c20:	25011101 	strcs	r1, [r1, #-257]	; 0x101
 c24:	030b130e 	movweq	r1, #45838	; 0xb30e
 c28:	110e1b0e 	tstne	lr, lr, lsl #22
 c2c:	10061201 	andne	r1, r6, r1, lsl #4
 c30:	02000017 	andeq	r0, r0, #23
 c34:	0b0b0024 	bleq	2c0ccc <__bss_end__+0x2b6dd4>
 c38:	08030b3e 	stmdaeq	r3, {r1, r2, r3, r4, r5, r8, r9, fp}
 c3c:	24030000 	strcs	r0, [r3], #-0
 c40:	3e0b0b00 	vmlacc.f64	d0, d11, d0
 c44:	000e030b 	andeq	r0, lr, fp, lsl #6
 c48:	01040400 	tsteq	r4, r0, lsl #8
 c4c:	0b3a0b0b 	bleq	e83880 <__bss_end__+0xe79988>
 c50:	13010b3b 	movwne	r0, #6971	; 0x1b3b
 c54:	28050000 	stmdacs	r5, {}	; <UNPREDICTABLE>
 c58:	1c0e0300 	stcne	3, cr0, [lr], {-0}
 c5c:	0600000d 	streq	r0, [r0], -sp
 c60:	0e030016 	mcreq	0, 0, r0, cr3, cr6, {0}
 c64:	0b3b0b3a 	bleq	ec3954 <__bss_end__+0xeb9a5c>
 c68:	00001349 	andeq	r1, r0, r9, asr #6
 c6c:	03012e07 	movweq	r2, #7687	; 0x1e07
 c70:	3b0b3a0e 	blcc	2cf4b0 <__bss_end__+0x2c55b8>
 c74:	4919270b 	ldmdbmi	r9, {r0, r1, r3, r8, r9, sl, sp}
 c78:	12011113 	andne	r1, r1, #-1073741820	; 0xc0000004
 c7c:	97184006 	ldrls	r4, [r8, -r6]
 c80:	13011942 	movwne	r1, #6466	; 0x1942
 c84:	89080000 	stmdbhi	r8, {}	; <UNPREDICTABLE>
 c88:	11000182 	smlabbne	r0, r2, r1, r0
 c8c:	00133101 	andseq	r3, r3, r1, lsl #2
 c90:	012e0900 	teqeq	lr, r0, lsl #18
 c94:	0e03193f 	mcreq	9, 0, r1, cr3, cr15, {1}
 c98:	0b3b0b3a 	bleq	ec3988 <__bss_end__+0xeb9a90>
 c9c:	01111927 	tsteq	r1, r7, lsr #18
 ca0:	18400612 	stmdane	r0, {r1, r4, r9, sl}^
 ca4:	01194297 			; <UNDEFINED> instruction: 0x01194297
 ca8:	0a000013 	beq	cfc <_start-0x7304>
 cac:	01018289 	smlabbeq	r1, r9, r2, r8
 cb0:	13310111 	teqne	r1, #1073741828	; 0x40000004
 cb4:	00001301 	andeq	r1, r0, r1, lsl #6
 cb8:	01828a0b 	orreq	r8, r2, fp, lsl #20
 cbc:	91180200 	tstls	r8, r0, lsl #4
 cc0:	00001842 	andeq	r1, r0, r2, asr #16
 cc4:	3f012e0c 	svccc	0x00012e0c
 cc8:	3a0e0319 	bcc	381934 <__bss_end__+0x377a3c>
 ccc:	270b3b0b 	strcs	r3, [fp, -fp, lsl #22]
 cd0:	11134919 	tstne	r3, r9, lsl r9
 cd4:	40061201 	andmi	r1, r6, r1, lsl #4
 cd8:	19429718 	stmdbne	r2, {r3, r4, r8, r9, sl, ip, pc}^
 cdc:	00001301 	andeq	r1, r0, r1, lsl #6
 ce0:	0300050d 	movweq	r0, #1293	; 0x50d
 ce4:	3b0b3a08 	blcc	2cf50c <__bss_end__+0x2c5614>
 ce8:	0213490b 	andseq	r4, r3, #180224	; 0x2c000
 cec:	0e000017 	mcreq	0, 0, r0, cr0, cr7, {0}
 cf0:	01018289 	smlabbeq	r1, r9, r2, r8
 cf4:	13310111 	teqne	r1, #1073741828	; 0x40000004
 cf8:	340f0000 	strcc	r0, [pc], #-0	; d00 <_start-0x7300>
 cfc:	3a0e0300 	bcc	381904 <__bss_end__+0x377a0c>
 d00:	490b3b0b 	stmdbmi	fp, {r0, r1, r3, r8, r9, fp, ip, sp}
 d04:	02193f13 	andseq	r3, r9, #19, 30	; 0x4c
 d08:	10000018 	andne	r0, r0, r8, lsl r0
 d0c:	0b0b000f 	bleq	2c0d50 <__bss_end__+0x2b6e58>
 d10:	00001349 	andeq	r1, r0, r9, asr #6
 d14:	49003511 	stmdbmi	r0, {r0, r4, r8, sl, ip, sp}
 d18:	12000013 	andne	r0, r0, #19
 d1c:	193f012e 	ldmdbne	pc!, {r1, r2, r3, r5, r8}	; <UNPREDICTABLE>
 d20:	0b3a0e03 	bleq	e84534 <__bss_end__+0xe7a63c>
 d24:	19270b3b 	stmdbne	r7!, {r0, r1, r3, r4, r5, r8, r9, fp}
 d28:	193c1349 	ldmdbne	ip!, {r0, r3, r6, r8, r9, ip}
 d2c:	00001301 	andeq	r1, r0, r1, lsl #6
 d30:	49000513 	stmdbmi	r0, {r0, r1, r4, r8, sl}
 d34:	14000013 	strne	r0, [r0], #-19
 d38:	13490026 	movtne	r0, #36902	; 0x9026
 d3c:	35150000 	ldrcc	r0, [r5, #-0]
 d40:	16000000 	strne	r0, [r0], -r0
 d44:	193f002e 	ldmdbne	pc!, {r1, r2, r3, r5}	; <UNPREDICTABLE>
 d48:	0b3a0e03 	bleq	e8455c <__bss_end__+0xe7a664>
 d4c:	19270b3b 	stmdbne	r7!, {r0, r1, r3, r4, r5, r8, r9, fp}
 d50:	0000193c 	andeq	r1, r0, ip, lsr r9
 d54:	3f012e17 	svccc	0x00012e17
 d58:	3a0e0319 	bcc	3819c4 <__bss_end__+0x377acc>
 d5c:	270b3b0b 	strcs	r3, [fp, -fp, lsl #22]
 d60:	01193c19 	tsteq	r9, r9, lsl ip
 d64:	00000013 	andeq	r0, r0, r3, lsl r0
 d68:	25011101 	strcs	r1, [r1, #-257]	; 0x101
 d6c:	030b130e 	movweq	r1, #45838	; 0xb30e
 d70:	110e1b0e 	tstne	lr, lr, lsl #22
 d74:	10061201 	andne	r1, r6, r1, lsl #4
 d78:	02000017 	andeq	r0, r0, #23
 d7c:	0b0b0024 	bleq	2c0e14 <__bss_end__+0x2b6f1c>
 d80:	08030b3e 	stmdaeq	r3, {r1, r2, r3, r4, r5, r8, r9, fp}
 d84:	24030000 	strcs	r0, [r3], #-0
 d88:	3e0b0b00 	vmlacc.f64	d0, d11, d0
 d8c:	000e030b 	andeq	r0, lr, fp, lsl #6
 d90:	012e0400 	teqeq	lr, r0, lsl #8
 d94:	0b3a0e03 	bleq	e845a8 <__bss_end__+0xe7a6b0>
 d98:	19270b3b 	stmdbne	r7!, {r0, r1, r3, r4, r5, r8, r9, fp}
 d9c:	01111349 	tsteq	r1, r9, asr #6
 da0:	18400612 	stmdane	r0, {r1, r4, r9, sl}^
 da4:	01194297 			; <UNDEFINED> instruction: 0x01194297
 da8:	05000013 	streq	r0, [r0, #-19]
 dac:	08030005 	stmdaeq	r3, {r0, r2}
 db0:	0b3b0b3a 	bleq	ec3aa0 <__bss_end__+0xeb9ba8>
 db4:	17021349 	strne	r1, [r2, -r9, asr #6]
 db8:	89060000 	stmdbhi	r6, {}	; <UNPREDICTABLE>
 dbc:	11010182 	smlabbne	r1, r2, r1, r0
 dc0:	00133101 	andseq	r3, r3, r1, lsl #2
 dc4:	828a0700 	addhi	r0, sl, #0, 14
 dc8:	18020001 	stmdane	r2, {r0}
 dcc:	00184291 	mulseq	r8, r1, r2
 dd0:	01150800 	tsteq	r5, r0, lsl #16
 dd4:	13491927 	movtne	r1, #39207	; 0x9927
 dd8:	00001301 	andeq	r1, r0, r1, lsl #6
 ddc:	49000509 	stmdbmi	r0, {r0, r3, r8, sl}
 de0:	0a000013 	beq	e34 <_start-0x71cc>
 de4:	0e030034 	mcreq	0, 0, r0, cr3, cr4, {1}
 de8:	0b3b0b3a 	bleq	ec3ad8 <__bss_end__+0xeb9be0>
 dec:	193f1349 	ldmdbne	pc!, {r0, r3, r6, r8, r9, ip}	; <UNPREDICTABLE>
 df0:	00001802 	andeq	r1, r0, r2, lsl #16
 df4:	0b000f0b 	bleq	4a28 <_start-0x35d8>
 df8:	0013490b 	andseq	r4, r3, fp, lsl #18
 dfc:	012e0c00 	teqeq	lr, r0, lsl #24
 e00:	0e03193f 	mcreq	9, 0, r1, cr3, cr15, {1}
 e04:	0b3b0b3a 	bleq	ec3af4 <__bss_end__+0xeb9bfc>
 e08:	193c1927 	ldmdbne	ip!, {r0, r1, r2, r5, r8, fp, ip}
 e0c:	Address 0x0000000000000e0c is out of bounds.


Disassembly of section .debug_loc:

00000000 <.debug_loc>:
       0:	00000000 	andeq	r0, r0, r0
       4:	0000000c 	andeq	r0, r0, ip
       8:	0c500001 	mrrceq	0, 0, r0, r0, cr1	; <UNPREDICTABLE>
       c:	b4000000 	strlt	r0, [r0], #-0
      10:	01000000 	mrseq	r0, (UNDEF: 0)
      14:	00005400 	andeq	r5, r0, r0, lsl #8
      18:	00000000 	andeq	r0, r0, r0
      1c:	00b40000 	adcseq	r0, r4, r0
      20:	00c00000 	sbceq	r0, r0, r0
      24:	00010000 	andeq	r0, r1, r0
      28:	0000c050 	andeq	ip, r0, r0, asr r0
      2c:	00016800 	andeq	r6, r1, r0, lsl #16
      30:	54000100 	strpl	r0, [r0], #-256	; 0x100
	...
      3c:	00000168 	andeq	r0, r0, r8, ror #2
      40:	00000174 	andeq	r0, r0, r4, ror r1
      44:	74500001 	ldrbvc	r0, [r0], #-1
      48:	50000001 	andpl	r0, r0, r1
      4c:	01000003 	tsteq	r0, r3
      50:	00005700 	andeq	r5, r0, r0, lsl #14
      54:	00000000 	andeq	r0, r0, r0
      58:	01c80000 	biceq	r0, r8, r0
      5c:	028c0000 	addeq	r0, ip, #0
      60:	00010000 	andeq	r0, r1, r0
      64:	0002a455 	andeq	sl, r2, r5, asr r4
      68:	00035000 	andeq	r5, r3, r0
      6c:	55000100 	strpl	r0, [r0, #-256]	; 0x100
	...
      78:	000001cc 	andeq	r0, r0, ip, asr #3
      7c:	000001fc 	strdeq	r0, [r0], -ip
      80:	fc560001 	mrrc2	0, 0, r0, r6, cr1
      84:	30000001 	andcc	r0, r0, r1
      88:	03000002 	movweq	r0, #2
      8c:	9f7f7600 	svcls	0x007f7600
      90:	00000230 	andeq	r0, r0, r0, lsr r2
      94:	00000260 	andeq	r0, r0, r0, ror #4
      98:	60560001 	subsvs	r0, r6, r1
      9c:	8c000002 	stchi	0, cr0, [r0], {2}
      a0:	03000002 	movweq	r0, #2
      a4:	9f7f7600 	svcls	0x007f7600
	...
      b0:	00000350 	andeq	r0, r0, r0, asr r3
      b4:	00000368 	andeq	r0, r0, r8, ror #6
      b8:	68500001 	ldmdavs	r0, {r0}^
      bc:	d4000003 	strle	r0, [r0], #-3
      c0:	04000003 	streq	r0, [r0], #-3
      c4:	5001f300 	andpl	pc, r1, r0, lsl #6
      c8:	0000009f 	muleq	r0, pc, r0	; <UNPREDICTABLE>
      cc:	00000000 	andeq	r0, r0, r0
      d0:	00002c00 	andeq	r2, r0, r0, lsl #24
      d4:	00003800 	andeq	r3, r0, r0, lsl #16
      d8:	50000100 	andpl	r0, r0, r0, lsl #2
      dc:	00000038 	andeq	r0, r0, r8, lsr r0
      e0:	00000048 	andeq	r0, r0, r8, asr #32
      e4:	48550001 	ldmdami	r5, {r0}^
      e8:	58000000 	stmdapl	r0, {}	; <UNPREDICTABLE>
      ec:	01000000 	mrseq	r0, (UNDEF: 0)
      f0:	00005000 	andeq	r5, r0, r0
	...
      fc:	00100000 	andseq	r0, r0, r0
     100:	00010000 	andeq	r0, r1, r0
     104:	00001050 	andeq	r1, r0, r0, asr r0
     108:	00003400 	andeq	r3, r0, r0, lsl #8
     10c:	54000100 	strpl	r0, [r0], #-256	; 0x100
	...
     11c:	00000004 	andeq	r0, r0, r4
     120:	04500001 	ldrbeq	r0, [r0], #-1
     124:	0c000000 	stceq	0, cr0, [r0], {-0}
     128:	03000000 	movweq	r0, #0
     12c:	9f307000 	svcls	0x00307000
     130:	0000000c 	andeq	r0, r0, ip
     134:	00000014 	andeq	r0, r0, r4, lsl r0
     138:	01f30004 	mvnseq	r0, r4
     13c:	00009f50 	andeq	r9, r0, r0, asr pc
     140:	00000000 	andeq	r0, r0, r0
     144:	00140000 	andseq	r0, r4, r0
     148:	00200000 	eoreq	r0, r0, r0
     14c:	00010000 	andeq	r0, r1, r0
     150:	00002050 	andeq	r2, r0, r0, asr r0
     154:	00002c00 	andeq	r2, r0, r0, lsl #24
     158:	70000300 	andvc	r0, r0, r0, lsl #6
     15c:	002c9f01 	eoreq	r9, ip, r1, lsl #30
     160:	00400000 	subeq	r0, r0, r0
     164:	00010000 	andeq	r0, r1, r0
     168:	00000050 	andeq	r0, r0, r0, asr r0
     16c:	00000000 	andeq	r0, r0, r0
     170:	00001400 	andeq	r1, r0, r0, lsl #8
     174:	00001800 	andeq	r1, r0, r0, lsl #16
     178:	51000100 	mrspl	r0, (UNDEF: 16)
     17c:	00000018 	andeq	r0, r0, r8, lsl r0
     180:	00000040 	andeq	r0, r0, r0, asr #32
     184:	01f30004 	mvnseq	r0, r4
     188:	00009f51 	andeq	r9, r0, r1, asr pc
     18c:	00000000 	andeq	r0, r0, r0
     190:	00400000 	subeq	r0, r0, r0
     194:	00600000 	rsbeq	r0, r0, r0
     198:	00010000 	andeq	r0, r1, r0
     19c:	00006050 	andeq	r6, r0, r0, asr r0
     1a0:	00006c00 	andeq	r6, r0, r0, lsl #24
     1a4:	71000300 	mrsvc	r0, LR_irq
     1a8:	006c9f01 	rsbeq	r9, ip, r1, lsl #30
     1ac:	00740000 	rsbseq	r0, r4, r0
     1b0:	00010000 	andeq	r0, r1, r0
     1b4:	00007451 	andeq	r7, r0, r1, asr r4
     1b8:	00008000 	andeq	r8, r0, r0
     1bc:	71000300 	mrsvc	r0, LR_irq
     1c0:	00009f01 	andeq	r9, r0, r1, lsl #30
     1c4:	00000000 	andeq	r0, r0, r0
     1c8:	00400000 	subeq	r0, r0, r0
     1cc:	00500000 	subseq	r0, r0, r0
     1d0:	00010000 	andeq	r0, r1, r0
     1d4:	00005051 	andeq	r5, r0, r1, asr r0
     1d8:	00008000 	andeq	r8, r0, r0
     1dc:	f3000400 	vshl.u8	d0, d0, d0
     1e0:	009f5101 	addseq	r5, pc, r1, lsl #2
     1e4:	00000000 	andeq	r0, r0, r0
     1e8:	40000000 	andmi	r0, r0, r0
     1ec:	58000000 	stmdapl	r0, {}	; <UNPREDICTABLE>
     1f0:	01000000 	mrseq	r0, (UNDEF: 0)
     1f4:	00585200 	subseq	r5, r8, r0, lsl #4
     1f8:	00640000 	rsbeq	r0, r4, r0
     1fc:	00010000 	andeq	r0, r1, r0
     200:	00006452 	andeq	r6, r0, r2, asr r4
     204:	00006800 	andeq	r6, r0, r0, lsl #16
     208:	72000300 	andvc	r0, r0, #0, 6
     20c:	00689f01 	rsbeq	r9, r8, r1, lsl #30
     210:	00800000 	addeq	r0, r0, r0
     214:	00010000 	andeq	r0, r1, r0
     218:	00000052 	andeq	r0, r0, r2, asr r0
     21c:	00000000 	andeq	r0, r0, r0
     220:	00004000 	andeq	r4, r0, r0
     224:	00005400 	andeq	r5, r0, r0, lsl #8
     228:	53000100 	movwpl	r0, #256	; 0x100
     22c:	00000054 	andeq	r0, r0, r4, asr r0
     230:	00000078 	andeq	r0, r0, r8, ror r0
     234:	00530001 	subseq	r0, r3, r1
     238:	00000000 	andeq	r0, r0, r0
     23c:	48000000 	stmdami	r0, {}	; <UNPREDICTABLE>
     240:	60000000 	andvs	r0, r0, r0
     244:	01000000 	mrseq	r0, (UNDEF: 0)
     248:	00605c00 	rsbeq	r5, r0, r0, lsl #24
     24c:	00800000 	addeq	r0, r0, r0
     250:	000a0000 	andeq	r0, sl, r0
     254:	f35201f3 	vbsl	q8, q9, <illegal reg q9.5>
     258:	231c5301 	tstcs	ip, #67108864	; 0x4000000
     25c:	00009f01 	andeq	r9, r0, r1, lsl #30
     260:	00000000 	andeq	r0, r0, r0
     264:	00800000 	addeq	r0, r0, r0
     268:	00a40000 	adceq	r0, r4, r0
     26c:	00010000 	andeq	r0, r1, r0
     270:	0000a450 	andeq	sl, r0, r0, asr r4
     274:	00011800 	andeq	r1, r1, r0, lsl #16
     278:	70000300 	andvc	r0, r0, r0, lsl #6
     27c:	01189f02 	tsteq	r8, r2, lsl #30
     280:	02180000 	andseq	r0, r8, #0
     284:	00040000 	andeq	r0, r4, r0
     288:	9f5001f3 	svcls	0x005001f3
	...
     294:	00000080 	andeq	r0, r0, r0, lsl #1
     298:	000000f0 	strdeq	r0, [r0], -r0	; <UNPREDICTABLE>
     29c:	f0510001 			; <UNDEFINED> instruction: 0xf0510001
     2a0:	60000000 	andvs	r0, r0, r0
     2a4:	01000001 	tsteq	r0, r1
     2a8:	01605500 	cmneq	r0, r0, lsl #10
     2ac:	01680000 	cmneq	r8, r0
     2b0:	00010000 	andeq	r0, r1, r0
     2b4:	00016851 	andeq	r6, r1, r1, asr r8
     2b8:	00018800 	andeq	r8, r1, r0, lsl #16
     2bc:	55000100 	strpl	r0, [r0, #-256]	; 0x100
     2c0:	00000188 	andeq	r0, r0, r8, lsl #3
     2c4:	0000019c 	muleq	r0, ip, r1
     2c8:	9c510001 	mrrcls	0, 0, r0, r1, cr1
     2cc:	bc000001 	stclt	0, cr0, [r0], {1}
     2d0:	01000001 	tsteq	r0, r1
     2d4:	01bc5500 			; <UNDEFINED> instruction: 0x01bc5500
     2d8:	01c40000 	biceq	r0, r4, r0
     2dc:	00010000 	andeq	r0, r1, r0
     2e0:	0001c451 	andeq	ip, r1, r1, asr r4
     2e4:	0001fc00 	andeq	pc, r1, r0, lsl #24
     2e8:	55000100 	strpl	r0, [r0, #-256]	; 0x100
     2ec:	000001fc 	strdeq	r0, [r0], -ip
     2f0:	00000218 	andeq	r0, r0, r8, lsl r2
     2f4:	01f30004 	mvnseq	r0, r4
     2f8:	00009f51 	andeq	r9, r0, r1, asr pc
     2fc:	00000000 	andeq	r0, r0, r0
     300:	00800000 	addeq	r0, r0, r0
     304:	00940000 	addseq	r0, r4, r0
     308:	00010000 	andeq	r0, r1, r0
     30c:	00009452 	andeq	r9, r0, r2, asr r4
     310:	0001fc00 	andeq	pc, r1, r0, lsl #24
     314:	54000100 	strpl	r0, [r0], #-256	; 0x100
     318:	000001fc 	strdeq	r0, [r0], -ip
     31c:	00000218 	andeq	r0, r0, r8, lsl r2
     320:	01f30004 	mvnseq	r0, r4
     324:	00009f52 	andeq	r9, r0, r2, asr pc
     328:	00000000 	andeq	r0, r0, r0
     32c:	00800000 	addeq	r0, r0, r0
     330:	01000000 	mrseq	r0, (UNDEF: 0)
     334:	00010000 	andeq	r0, r1, r0
     338:	00010453 	andeq	r0, r1, r3, asr r4
     33c:	00010800 	andeq	r0, r1, r0, lsl #16
     340:	53000100 	movwpl	r0, #256	; 0x100
     344:	00000160 	andeq	r0, r0, r0, ror #2
     348:	00000168 	andeq	r0, r0, r8, ror #2
     34c:	68530001 	ldmdavs	r3, {r0}^
     350:	88000001 	stmdahi	r0, {r0}
     354:	04000001 	streq	r0, [r0], #-1
     358:	5301f300 	movwpl	pc, #4864	; 0x1300	; <UNPREDICTABLE>
     35c:	0001889f 	muleq	r1, pc, r8	; <UNPREDICTABLE>
     360:	00019000 	andeq	r9, r1, r0
     364:	53000100 	movwpl	r0, #256	; 0x100
     368:	00000190 	muleq	r0, r0, r1
     36c:	00000194 	muleq	r0, r4, r1
     370:	945c0001 	ldrbls	r0, [ip], #-1
     374:	9c000001 	stcls	0, cr0, [r0], {1}
     378:	01000001 	tsteq	r0, r1
     37c:	019c5300 	orrseq	r5, ip, r0, lsl #6
     380:	01bc0000 			; <UNDEFINED> instruction: 0x01bc0000
     384:	00040000 	andeq	r0, r4, r0
     388:	9f5301f3 	svcls	0x005301f3
     38c:	000001bc 			; <UNDEFINED> instruction: 0x000001bc
     390:	000001cc 	andeq	r0, r0, ip, asr #3
     394:	cc530001 	mrrcgt	0, 0, r0, r3, cr1
     398:	cf000001 	svcgt	0x00000001
     39c:	01000001 	tsteq	r0, r1
     3a0:	01cf5c00 	biceq	r5, pc, r0, lsl #24
     3a4:	01d40000 	bicseq	r0, r4, r0
     3a8:	00040000 	andeq	r0, r4, r0
     3ac:	9f5301f3 	svcls	0x005301f3
	...
     3b8:	00000080 	andeq	r0, r0, r0, lsl #1
     3bc:	0000009c 	muleq	r0, ip, r0
     3c0:	00910002 	addseq	r0, r1, r2
     3c4:	0000009c 	muleq	r0, ip, r0
     3c8:	000001c8 	andeq	r0, r0, r8, asr #3
     3cc:	d4520001 	ldrble	r0, [r2], #-1
     3d0:	df000001 	svcle	0x00000001
     3d4:	01000001 	tsteq	r0, r1
     3d8:	00005200 	andeq	r5, r0, r0, lsl #4
     3dc:	00000000 	andeq	r0, r0, r0
     3e0:	009c0000 	addseq	r0, ip, r0
     3e4:	01180000 	tsteq	r8, r0
     3e8:	00010000 	andeq	r0, r1, r0
     3ec:	0001185d 	andeq	r1, r1, sp, asr r8
     3f0:	00011c00 	andeq	r1, r1, r0, lsl #24
     3f4:	53000100 	movwpl	r0, #256	; 0x100
     3f8:	0000011c 	andeq	r0, r0, ip, lsl r1
     3fc:	00000120 	andeq	r0, r0, r0, lsr #2
     400:	20510001 	subscs	r0, r1, r1
     404:	60000001 	andvs	r0, r0, r1
     408:	01000001 	tsteq	r0, r1
     40c:	01605300 	cmneq	r0, r0, lsl #6
     410:	01680000 	cmneq	r8, r0
     414:	00010000 	andeq	r0, r1, r0
     418:	0001685d 	andeq	r6, r1, sp, asr r8
     41c:	00016c00 	andeq	r6, r1, r0, lsl #24
     420:	5e000100 	adfpls	f0, f0, f0
     424:	0000016c 	andeq	r0, r0, ip, ror #2
     428:	00000188 	andeq	r0, r0, r8, lsl #3
     42c:	88530001 	ldmdahi	r3, {r0}^
     430:	90000001 	andls	r0, r0, r1
     434:	04000001 	streq	r0, [r0], #-1
     438:	7fa19100 	svcvc	0x00a19100
     43c:	0001909f 	muleq	r1, pc, r0	; <UNPREDICTABLE>
     440:	00019400 	andeq	r9, r1, r0, lsl #8
     444:	53000100 	movwpl	r0, #256	; 0x100
     448:	00000194 	muleq	r0, r4, r1
     44c:	0000019c 	muleq	r0, ip, r1
     450:	9c5d0001 	mrrcls	0, 0, r0, sp, cr1
     454:	a0000001 	andge	r0, r0, r1
     458:	01000001 	tsteq	r0, r1
     45c:	01a05e00 	lsleq	r5, r0, #28
     460:	01bc0000 			; <UNDEFINED> instruction: 0x01bc0000
     464:	00010000 	andeq	r0, r1, r0
     468:	0001bc53 	andeq	fp, r1, r3, asr ip
     46c:	0001d400 	andeq	sp, r1, r0, lsl #8
     470:	5d000100 	stfpls	f0, [r0, #-0]
     474:	000001d4 	ldrdeq	r0, [r0], -r4
     478:	000001df 	ldrdeq	r0, [r0], -pc	; <UNPREDICTABLE>
     47c:	00530001 	subseq	r0, r3, r1
     480:	00000000 	andeq	r0, r0, r0
     484:	a0000000 	andge	r0, r0, r0
     488:	ec000000 	stc	0, cr0, [r0], {-0}
     48c:	01000000 	mrseq	r0, (UNDEF: 0)
     490:	00ec5c00 	rsceq	r5, ip, r0, lsl #24
     494:	01000000 	mrseq	r0, (UNDEF: 0)
     498:	00010000 	andeq	r0, r1, r0
     49c:	00010053 	andeq	r0, r1, r3, asr r0
     4a0:	00010400 	andeq	r0, r1, r0, lsl #8
     4a4:	5c000100 	stfpls	f0, [r0], {-0}
     4a8:	00000104 	andeq	r0, r0, r4, lsl #2
     4ac:	00000108 	andeq	r0, r0, r8, lsl #2
     4b0:	08530001 	ldmdaeq	r3, {r0}^
     4b4:	18000001 	stmdane	r0, {r0}
     4b8:	01000001 	tsteq	r0, r1
     4bc:	01185c00 	tsteq	r8, r0, lsl #24
     4c0:	011c0000 	tsteq	ip, r0
     4c4:	00010000 	andeq	r0, r1, r0
     4c8:	00011c50 	andeq	r1, r1, r0, asr ip
     4cc:	00013c00 	andeq	r3, r1, r0, lsl #24
     4d0:	5c000100 	stfpls	f0, [r0], {-0}
     4d4:	00000144 	andeq	r0, r0, r4, asr #2
     4d8:	00000158 	andeq	r0, r0, r8, asr r1
     4dc:	58500001 	ldmdapl	r0, {r0}^
     4e0:	60000001 	andvs	r0, r0, r1
     4e4:	01000001 	tsteq	r0, r1
     4e8:	01605c00 	cmneq	r0, r0, lsl #24
     4ec:	01680000 	cmneq	r8, r0
     4f0:	00010000 	andeq	r0, r1, r0
     4f4:	00016853 	andeq	r6, r1, r3, asr r8
     4f8:	00017800 	andeq	r7, r1, r0, lsl #16
     4fc:	5c000100 	stfpls	f0, [r0], {-0}
     500:	00000178 	andeq	r0, r0, r8, ror r1
     504:	00000180 	andeq	r0, r0, r0, lsl #3
     508:	007c0005 	rsbseq	r0, ip, r5
     50c:	809f2534 	addshi	r2, pc, r4, lsr r5	; <UNPREDICTABLE>
     510:	88000001 	stmdahi	r0, {r0}
     514:	01000001 	tsteq	r0, r1
     518:	01885c00 	orreq	r5, r8, r0, lsl #24
     51c:	01900000 	orrseq	r0, r0, r0
     520:	00010000 	andeq	r0, r1, r0
     524:	00019053 	andeq	r9, r1, r3, asr r0
     528:	00019400 	andeq	r9, r1, r0, lsl #8
     52c:	5c000100 	stfpls	f0, [r0], {-0}
     530:	00000194 	muleq	r0, r4, r1
     534:	0000019c 	muleq	r0, ip, r1
     538:	9c530001 	mrrcls	0, 0, r0, r3, cr1
     53c:	ac000001 	stcge	0, cr0, [r0], {1}
     540:	01000001 	tsteq	r0, r1
     544:	01ac5c00 			; <UNDEFINED> instruction: 0x01ac5c00
     548:	01b40000 			; <UNDEFINED> instruction: 0x01b40000
     54c:	00050000 	andeq	r0, r5, r0
     550:	2531007c 	ldrcs	r0, [r1, #-124]!	; 0x7c
     554:	0001b49f 	muleq	r1, pc, r4	; <UNPREDICTABLE>
     558:	0001bc00 	andeq	fp, r1, r0, lsl #24
     55c:	5c000100 	stfpls	f0, [r0], {-0}
     560:	000001bc 			; <UNDEFINED> instruction: 0x000001bc
     564:	000001cc 	andeq	r0, r0, ip, asr #3
     568:	cc530001 	mrrcgt	0, 0, r0, r3, cr1
     56c:	cf000001 	svcgt	0x00000001
     570:	01000001 	tsteq	r0, r1
     574:	01cf5c00 	biceq	r5, pc, r0, lsl #24
     578:	01d40000 	bicseq	r0, r4, r0
     57c:	00040000 	andeq	r0, r4, r0
     580:	9f5301f3 	svcls	0x005301f3
     584:	000001d4 	ldrdeq	r0, [r0], -r4
     588:	000001df 	ldrdeq	r0, [r0], -pc	; <UNPREDICTABLE>
     58c:	005c0001 	subseq	r0, ip, r1
     590:	00000000 	andeq	r0, r0, r0
     594:	ec000000 	stc	0, cr0, [r0], {-0}
     598:	fc000000 	stc2	0, cr0, [r0], {-0}
     59c:	02000000 	andeq	r0, r0, #0
     5a0:	fc9f3000 	ldc2	0, cr3, [pc], {0}
     5a4:	04000000 	streq	r0, [r0], #-0
     5a8:	02000001 	andeq	r0, r0, #1
     5ac:	049f3100 	ldreq	r3, [pc], #256	; 5b4 <_start-0x7a4c>
     5b0:	08000001 	stmdaeq	r0, {r0}
     5b4:	02000001 	andeq	r0, r0, #1
     5b8:	009f3000 	addseq	r3, pc, r0
     5bc:	00000000 	andeq	r0, r0, r0
     5c0:	18000000 	stmdane	r0, {}	; <UNPREDICTABLE>
     5c4:	28000002 	stmdacs	r0, {r1}
     5c8:	01000002 	tsteq	r0, r2
     5cc:	02285000 	eoreq	r5, r8, #0
     5d0:	023c0000 	eorseq	r0, ip, #0
     5d4:	00040000 	andeq	r0, r4, r0
     5d8:	9f5001f3 	svcls	0x005001f3
     5dc:	0000023c 	andeq	r0, r0, ip, lsr r2
     5e0:	00000268 	andeq	r0, r0, r8, ror #4
     5e4:	00500001 	subseq	r0, r0, r1
     5e8:	00000000 	andeq	r0, r0, r0
     5ec:	18000000 	stmdane	r0, {}	; <UNPREDICTABLE>
     5f0:	2c000002 	stccs	0, cr0, [r0], {2}
     5f4:	01000002 	tsteq	r0, r2
     5f8:	022c5100 	eoreq	r5, ip, #0, 2
     5fc:	023c0000 	eorseq	r0, ip, #0
     600:	00040000 	andeq	r0, r4, r0
     604:	9f5101f3 	svcls	0x005101f3
     608:	0000023c 	andeq	r0, r0, ip, lsr r2
     60c:	00000268 	andeq	r0, r0, r8, ror #4
     610:	00510001 	subseq	r0, r1, r1
     614:	00000000 	andeq	r0, r0, r0
     618:	68000000 	stmdavs	r0, {}	; <UNPREDICTABLE>
     61c:	90000002 	andls	r0, r0, r2
     620:	01000002 	tsteq	r0, r2
     624:	02905000 	addseq	r5, r0, #0
     628:	04dc0000 	ldrbeq	r0, [ip], #0
     62c:	00010000 	andeq	r0, r1, r0
     630:	0004dc5b 	andeq	sp, r4, fp, asr ip
     634:	0004f000 	andeq	pc, r4, r0
     638:	f3000400 	vshl.u8	d0, d0, d0
     63c:	009f5001 	addseq	r5, pc, r1
     640:	00000000 	andeq	r0, r0, r0
     644:	68000000 	stmdavs	r0, {}	; <UNPREDICTABLE>
     648:	7c000002 	stcvc	0, cr0, [r0], {2}
     64c:	01000002 	tsteq	r0, r2
     650:	027c5100 	rsbseq	r5, ip, #0, 2
     654:	02900000 	addseq	r0, r0, #0
     658:	00030000 	andeq	r0, r3, r0
     65c:	909f0171 	addsls	r0, pc, r1, ror r1	; <UNPREDICTABLE>
     660:	f0000002 			; <UNDEFINED> instruction: 0xf0000002
     664:	04000004 	streq	r0, [r0], #-4
     668:	5101f300 	mrspl	pc, SP_irq	; <UNPREDICTABLE>
     66c:	0000009f 	muleq	r0, pc, r0	; <UNPREDICTABLE>
     670:	00000000 	andeq	r0, r0, r0
     674:	00026800 	andeq	r6, r2, r0, lsl #16
     678:	00029800 	andeq	r9, r2, r0, lsl #16
     67c:	52000100 	andpl	r0, r0, #0, 2
     680:	00000298 	muleq	r0, r8, r2
     684:	000002c0 	andeq	r0, r0, r0, asr #5
     688:	c0520001 	subsgt	r0, r2, r1
     68c:	8c000002 	stchi	0, cr0, [r0], {2}
     690:	01000004 	tsteq	r0, r4
     694:	048c5600 	streq	r5, [ip], #1536	; 0x600
     698:	04f00000 	ldrbteq	r0, [r0], #0
     69c:	00010000 	andeq	r0, r1, r0
     6a0:	00000052 	andeq	r0, r0, r2, asr r0
     6a4:	00000000 	andeq	r0, r0, r0
     6a8:	00026800 	andeq	r6, r2, r0, lsl #16
     6ac:	00028400 	andeq	r8, r2, r0, lsl #8
     6b0:	53000100 	movwpl	r0, #256	; 0x100
	...
     6bc:	00000278 	andeq	r0, r0, r8, ror r2
     6c0:	00000290 	muleq	r0, r0, r2
     6c4:	90500001 	subsls	r0, r0, r1
     6c8:	94000002 	strls	r0, [r0], #-2
     6cc:	01000002 	tsteq	r0, r2
     6d0:	02945400 	addseq	r5, r4, #0, 8
     6d4:	02a00000 	adceq	r0, r0, #0
     6d8:	00030000 	andeq	r0, r3, r0
     6dc:	a09f0174 	addsge	r0, pc, r4, ror r1	; <UNPREDICTABLE>
     6e0:	ac000002 	stcge	0, cr0, [r0], {2}
     6e4:	01000002 	tsteq	r0, r2
     6e8:	02ac5400 	adceq	r5, ip, #0, 8
     6ec:	02b80000 	adcseq	r0, r8, #0
     6f0:	00030000 	andeq	r0, r3, r0
     6f4:	b89f0174 	ldmlt	pc, {r2, r4, r5, r6, r8}	; <UNPREDICTABLE>
     6f8:	90000002 	andls	r0, r0, r2
     6fc:	01000004 	tsteq	r0, r4
     700:	04905400 	ldreq	r5, [r0], #1024	; 0x400
     704:	049c0000 	ldreq	r0, [ip], #0
     708:	00030000 	andeq	r0, r3, r0
     70c:	9c9f0174 	ldflss	f0, [pc], {116}	; 0x74
     710:	c8000004 	stmdagt	r0, {r2}
     714:	01000004 	tsteq	r0, r4
     718:	04c85400 	strbeq	r5, [r8], #1024	; 0x400
     71c:	04d40000 	ldrbeq	r0, [r4], #0
     720:	00010000 	andeq	r0, r1, r0
     724:	0004d450 	andeq	sp, r4, r0, asr r4
     728:	0004dc00 	andeq	sp, r4, r0, lsl #24
     72c:	74000300 	strvc	r0, [r0], #-768	; 0x300
     730:	00009f01 	andeq	r9, r0, r1, lsl #30
     734:	00000000 	andeq	r0, r0, r0
     738:	02800000 	addeq	r0, r0, #0
     73c:	04dc0000 	ldrbeq	r0, [ip], #0
     740:	00010000 	andeq	r0, r1, r0
     744:	0004dc58 	andeq	sp, r4, r8, asr ip
     748:	0004f000 	andeq	pc, r4, r0
     74c:	f3000a00 	vpmax.u8	d0, d0, d0
     750:	01f35101 	mvnseq	r5, r1, lsl #2
     754:	1c312250 	lfmne	f2, 4, [r1], #-320	; 0xfffffec0
     758:	0000009f 	muleq	r0, pc, r0	; <UNPREDICTABLE>
     75c:	00000000 	andeq	r0, r0, r0
     760:	0003bc00 	andeq	fp, r3, r0, lsl #24
     764:	0003c000 	andeq	ip, r3, r0
     768:	50000100 	andpl	r0, r0, r0, lsl #2
     76c:	000003e4 	andeq	r0, r0, r4, ror #7
     770:	000003e8 	andeq	r0, r0, r8, ror #7
     774:	0c500001 	mrrceq	0, 0, r0, r0, cr1	; <UNPREDICTABLE>
     778:	10000004 	andne	r0, r0, r4
     77c:	01000004 	tsteq	r0, r4
     780:	04345000 	ldrteq	r5, [r4], #-0
     784:	04380000 	ldrteq	r0, [r8], #-0
     788:	00010000 	andeq	r0, r1, r0
     78c:	00044050 	andeq	r4, r4, r0, asr r0
     790:	00044400 	andeq	r4, r4, r0, lsl #8
     794:	50000100 	andpl	r0, r0, r0, lsl #2
     798:	00000468 	andeq	r0, r0, r8, ror #8
     79c:	0000046c 	andeq	r0, r0, ip, ror #8
     7a0:	88500001 	ldmdahi	r0, {r0}^
     7a4:	b0000004 	andlt	r0, r0, r4
     7a8:	01000004 	tsteq	r0, r4
     7ac:	00005000 	andeq	r5, r0, r0
     7b0:	00000000 	andeq	r0, r0, r0
     7b4:	02c00000 	sbceq	r0, r0, #0
     7b8:	02c80000 	sbceq	r0, r8, #0
     7bc:	00020000 	andeq	r0, r2, r0
     7c0:	02c89f30 	sbceq	r9, r8, #48, 30	; 0xc0
     7c4:	02cc0000 	sbceq	r0, ip, #0
     7c8:	00010000 	andeq	r0, r1, r0
     7cc:	0002d857 	andeq	sp, r2, r7, asr r8
     7d0:	0004b000 	andeq	fp, r4, r0
     7d4:	57000100 	strpl	r0, [r0, -r0, lsl #2]
	...
     7e0:	00000014 	andeq	r0, r0, r4, lsl r0
     7e4:	0000001c 	andeq	r0, r0, ip, lsl r0
     7e8:	04730003 	ldrbteq	r0, [r3], #-3
     7ec:	00001c9f 	muleq	r0, pc, ip	; <UNPREDICTABLE>
     7f0:	00002700 	andeq	r2, r0, r0, lsl #14
     7f4:	53000100 	movwpl	r0, #256	; 0x100
	...
     800:	00008a1c 	andeq	r8, r0, ip, lsl sl
     804:	00008a20 	andeq	r8, r0, r0, lsr #20
     808:	9f300002 	svcls	0x00300002
     80c:	00008a20 	andeq	r8, r0, r0, lsr #20
     810:	00008a24 	andeq	r8, r0, r4, lsr #20
     814:	00500001 	subseq	r0, r0, r1
     818:	00000000 	andeq	r0, r0, r0
     81c:	34000000 	strcc	r0, [r0], #-0
     820:	3800008a 	stmdacc	r0, {r1, r3, r7}
     824:	0200008a 	andeq	r0, r0, #138	; 0x8a
     828:	389f3000 	ldmcc	pc, {ip, sp}	; <UNPREDICTABLE>
     82c:	3c00008a 	stccc	0, cr0, [r0], {138}	; 0x8a
     830:	0100008a 	smlabbeq	r0, sl, r0, r0
     834:	8a405300 	bhi	101543c <__bss_end__+0x100b544>
     838:	8a480000 	bhi	1200840 <__bss_end__+0x11f6948>
     83c:	00010000 	andeq	r0, r1, r0
     840:	00000053 	andeq	r0, r0, r3, asr r0
	...
     84c:	00000400 	andeq	r0, r0, r0, lsl #8
     850:	50000100 	andpl	r0, r0, r0, lsl #2
     854:	00000004 	andeq	r0, r0, r4
     858:	0000000c 	andeq	r0, r0, ip
     85c:	0c530001 	mrrceq	0, 0, r0, r3, cr1
     860:	10000000 	andne	r0, r0, r0
     864:	01000000 	mrseq	r0, (UNDEF: 0)
     868:	00105000 	andseq	r5, r0, r0
     86c:	001c0000 	andseq	r0, ip, r0
     870:	00010000 	andeq	r0, r1, r0
     874:	00000053 	andeq	r0, r0, r3, asr r0
     878:	00000000 	andeq	r0, r0, r0
     87c:	00003c00 	andeq	r3, r0, r0, lsl #24
     880:	00004700 	andeq	r4, r0, r0, lsl #14
     884:	50000100 	andpl	r0, r0, r0, lsl #2
     888:	00000047 	andeq	r0, r0, r7, asr #32
     88c:	00000060 	andeq	r0, r0, r0, rrx
     890:	00550001 	subseq	r0, r5, r1
     894:	00000000 	andeq	r0, r0, r0
     898:	50000000 	andpl	r0, r0, r0
     89c:	54000000 	strpl	r0, [r0], #-0
     8a0:	01000000 	mrseq	r0, (UNDEF: 0)
     8a4:	00005000 	andeq	r5, r0, r0
     8a8:	00000000 	andeq	r0, r0, r0
     8ac:	00600000 	rsbeq	r0, r0, r0
     8b0:	006c0000 	rsbeq	r0, ip, r0
     8b4:	00010000 	andeq	r0, r1, r0
     8b8:	00006c50 	andeq	r6, r0, r0, asr ip
     8bc:	00007400 	andeq	r7, r0, r0, lsl #8
     8c0:	f3000400 	vshl.u8	d0, d0, d0
     8c4:	009f5001 	addseq	r5, pc, r1
     8c8:	00000000 	andeq	r0, r0, r0
     8cc:	74000000 	strvc	r0, [r0], #-0
     8d0:	80000000 	andhi	r0, r0, r0
     8d4:	01000000 	mrseq	r0, (UNDEF: 0)
     8d8:	00805000 	addeq	r5, r0, r0
     8dc:	00880000 	addeq	r0, r8, r0
     8e0:	00040000 	andeq	r0, r4, r0
     8e4:	9f5001f3 	svcls	0x005001f3
	...
     8f4:	00000090 	muleq	r0, r0, r0
     8f8:	90500001 	subsls	r0, r0, r1
     8fc:	d4000000 	strle	r0, [r0], #-0
     900:	01000000 	mrseq	r0, (UNDEF: 0)
     904:	00005400 	andeq	r5, r0, r0, lsl #8
     908:	00000000 	andeq	r0, r0, r0
     90c:	00480000 	subeq	r0, r8, r0
     910:	004c0000 	subeq	r0, ip, r0
     914:	00010000 	andeq	r0, r1, r0
     918:	00005455 	andeq	r5, r0, r5, asr r4
     91c:	00005800 	andeq	r5, r0, r0, lsl #16
     920:	55000100 	strpl	r0, [r0, #-256]	; 0x100
     924:	00000060 	andeq	r0, r0, r0, rrx
     928:	00000064 	andeq	r0, r0, r4, rrx
     92c:	6c550001 	mrrcvs	0, 0, r0, r5, cr1
     930:	70000000 	andvc	r0, r0, r0
     934:	01000000 	mrseq	r0, (UNDEF: 0)
     938:	00785500 	rsbseq	r5, r8, r0, lsl #10
     93c:	007c0000 	rsbseq	r0, ip, r0
     940:	00010000 	andeq	r0, r1, r0
     944:	00008455 	andeq	r8, r0, r5, asr r4
     948:	00008800 	andeq	r8, r0, r0, lsl #16
     94c:	55000100 	strpl	r0, [r0, #-256]	; 0x100
     950:	0000008c 	andeq	r0, r0, ip, lsl #1
     954:	000000d4 	ldrdeq	r0, [r0], -r4
     958:	00550001 	subseq	r0, r5, r1
     95c:	00000000 	andeq	r0, r0, r0
     960:	1c000000 	stcne	0, cr0, [r0], {-0}
     964:	44000000 	strmi	r0, [r0], #-0
     968:	01000000 	mrseq	r0, (UNDEF: 0)
     96c:	00445300 	subeq	r5, r4, r0, lsl #6
     970:	004c0000 	subeq	r0, ip, r0
     974:	001c0000 	andseq	r0, ip, r0
     978:	2cf70070 	ldclcs	0, cr0, [r7], #448	; 0x1c0
     97c:	25f425f7 	ldrbcs	r2, [r4, #1527]!	; 0x5f7
     980:	cccccd08 	stclgt	13, cr12, [ip], {8}
     984:	000000cc 	andeq	r0, r0, ip, asr #1
     988:	20081e00 	andcs	r1, r8, r0, lsl #28
     98c:	f72525f7 			; <UNDEFINED> instruction: 0xf72525f7
     990:	9f25332c 	svcls	0x0025332c
     994:	0000004c 	andeq	r0, r0, ip, asr #32
     998:	00000050 	andeq	r0, r0, r0, asr r0
     99c:	50530001 	subspl	r0, r3, r1
     9a0:	58000000 	stmdapl	r0, {}	; <UNPREDICTABLE>
     9a4:	1c000000 	stcne	0, cr0, [r0], {-0}
     9a8:	f7007000 			; <UNDEFINED> instruction: 0xf7007000
     9ac:	f425f72c 	vld1.8	{d15}, [r5 :128], ip
     9b0:	cccd0825 	stclgt	8, cr0, [sp], {37}	; 0x25
     9b4:	0000cccc 	andeq	ip, r0, ip, asr #25
     9b8:	081e0000 	ldmdaeq	lr, {}	; <UNPREDICTABLE>
     9bc:	2525f720 	strcs	pc, [r5, #-1824]!	; 0x720
     9c0:	25332cf7 	ldrcs	r2, [r3, #-3319]!	; 0xcf7
     9c4:	0000589f 	muleq	r0, pc, r8	; <UNPREDICTABLE>
     9c8:	00005c00 	andeq	r5, r0, r0, lsl #24
     9cc:	53000100 	movwpl	r0, #256	; 0x100
     9d0:	0000005c 	andeq	r0, r0, ip, asr r0
     9d4:	00000064 	andeq	r0, r0, r4, rrx
     9d8:	0070001c 	rsbseq	r0, r0, ip, lsl r0
     9dc:	25f72cf7 	ldrbcs	r2, [r7, #3319]!	; 0xcf7
     9e0:	cd0825f4 	cfstr32gt	mvfx2, [r8, #-976]	; 0xfffffc30
     9e4:	00cccccc 	sbceq	ip, ip, ip, asr #25
     9e8:	1e000000 	cdpne	0, 0, cr0, cr0, cr0, {0}
     9ec:	25f72008 	ldrbcs	r2, [r7, #8]!
     9f0:	332cf725 	msrcc	CPSR_fs, #9699328	; 0x940000
     9f4:	00649f25 	rsbeq	r9, r4, r5, lsr #30
     9f8:	00680000 	rsbeq	r0, r8, r0
     9fc:	00010000 	andeq	r0, r1, r0
     a00:	00006853 	andeq	r6, r0, r3, asr r8
     a04:	00007000 	andeq	r7, r0, r0
     a08:	70001c00 	andvc	r1, r0, r0, lsl #24
     a0c:	f72cf700 			; <UNDEFINED> instruction: 0xf72cf700
     a10:	0825f425 	stmdaeq	r5!, {r0, r2, r5, sl, ip, sp, lr, pc}
     a14:	cccccccd 	stclgt	12, cr12, [ip], {205}	; 0xcd
     a18:	00000000 	andeq	r0, r0, r0
     a1c:	f720081e 			; <UNDEFINED> instruction: 0xf720081e
     a20:	2cf72525 	cfldr64cs	mvdx2, [r7], #148	; 0x94
     a24:	709f2533 	addsvc	r2, pc, r3, lsr r5	; <UNPREDICTABLE>
     a28:	74000000 	strvc	r0, [r0], #-0
     a2c:	01000000 	mrseq	r0, (UNDEF: 0)
     a30:	00745300 	rsbseq	r5, r4, r0, lsl #6
     a34:	007c0000 	rsbseq	r0, ip, r0
     a38:	001c0000 	andseq	r0, ip, r0
     a3c:	2cf70070 	ldclcs	0, cr0, [r7], #448	; 0x1c0
     a40:	25f425f7 	ldrbcs	r2, [r4, #1527]!	; 0x5f7
     a44:	cccccd08 	stclgt	13, cr12, [ip], {8}
     a48:	000000cc 	andeq	r0, r0, ip, asr #1
     a4c:	20081e00 	andcs	r1, r8, r0, lsl #28
     a50:	f72525f7 			; <UNDEFINED> instruction: 0xf72525f7
     a54:	9f25332c 	svcls	0x0025332c
     a58:	0000007c 	andeq	r0, r0, ip, ror r0
     a5c:	00000080 	andeq	r0, r0, r0, lsl #1
     a60:	80530001 	subshi	r0, r3, r1
     a64:	88000000 	stmdahi	r0, {}	; <UNPREDICTABLE>
     a68:	1c000000 	stcne	0, cr0, [r0], {-0}
     a6c:	f7007000 			; <UNDEFINED> instruction: 0xf7007000
     a70:	f425f72c 	vld1.8	{d15}, [r5 :128], ip
     a74:	cccd0825 	stclgt	8, cr0, [sp], {37}	; 0x25
     a78:	0000cccc 	andeq	ip, r0, ip, asr #25
     a7c:	081e0000 	ldmdaeq	lr, {}	; <UNPREDICTABLE>
     a80:	2525f720 	strcs	pc, [r5, #-1824]!	; 0x720
     a84:	25332cf7 	ldrcs	r2, [r3, #-3319]!	; 0xcf7
     a88:	0000889f 	muleq	r0, pc, r8	; <UNPREDICTABLE>
     a8c:	00008c00 	andeq	r8, r0, r0, lsl #24
     a90:	53000100 	movwpl	r0, #256	; 0x100
     a94:	0000008c 	andeq	r0, r0, ip, lsl #1
     a98:	00000090 	muleq	r0, r0, r0
     a9c:	0070001c 	rsbseq	r0, r0, ip, lsl r0
     aa0:	25f72cf7 	ldrbcs	r2, [r7, #3319]!	; 0xcf7
     aa4:	cd0825f4 	cfstr32gt	mvfx2, [r8, #-976]	; 0xfffffc30
     aa8:	00cccccc 	sbceq	ip, ip, ip, asr #25
     aac:	1e000000 	cdpne	0, 0, cr0, cr0, cr0, {0}
     ab0:	25f72008 	ldrbcs	r2, [r7, #8]!
     ab4:	332cf725 	msrcc	CPSR_fs, #9699328	; 0x940000
     ab8:	00909f25 	addseq	r9, r0, r5, lsr #30
     abc:	00980000 	addseq	r0, r8, r0
     ac0:	001c0000 	andseq	r0, ip, r0
     ac4:	2cf70074 	ldclcs	0, cr0, [r7], #464	; 0x1d0
     ac8:	25f425f7 	ldrbcs	r2, [r4, #1527]!	; 0x5f7
     acc:	cccccd08 	stclgt	13, cr12, [ip], {8}
     ad0:	000000cc 	andeq	r0, r0, ip, asr #1
     ad4:	20081e00 	andcs	r1, r8, r0, lsl #28
     ad8:	f72525f7 			; <UNDEFINED> instruction: 0xf72525f7
     adc:	9f25332c 	svcls	0x0025332c
     ae0:	00000098 	muleq	r0, r8, r0
     ae4:	0000009c 	muleq	r0, ip, r0
     ae8:	00740017 	rsbseq	r0, r4, r7, lsl r0
     aec:	25f72cf7 	ldrbcs	r2, [r7, #3319]!	; 0xcf7
     af0:	2cf70071 	ldclcs	0, cr0, [r7], #452	; 0x1c4
     af4:	081e25f7 	ldmdaeq	lr, {r0, r1, r2, r4, r5, r6, r7, r8, sl, sp}
     af8:	2525f720 	strcs	pc, [r5, #-1824]!	; 0x720
     afc:	25332cf7 	ldrcs	r2, [r3, #-3319]!	; 0xcf7
     b00:	00009c9f 	muleq	r0, pc, ip	; <UNPREDICTABLE>
     b04:	0000d400 	andeq	sp, r0, r0, lsl #8
     b08:	74001c00 	strvc	r1, [r0], #-3072	; 0xc00
     b0c:	f72cf700 			; <UNDEFINED> instruction: 0xf72cf700
     b10:	0825f425 	stmdaeq	r5!, {r0, r2, r5, sl, ip, sp, lr, pc}
     b14:	cccccccd 	stclgt	12, cr12, [ip], {205}	; 0xcd
     b18:	00000000 	andeq	r0, r0, r0
     b1c:	f720081e 			; <UNDEFINED> instruction: 0xf720081e
     b20:	2cf72525 	cfldr64cs	mvdx2, [r7], #148	; 0x94
     b24:	009f2533 	addseq	r2, pc, r3, lsr r5	; <UNPREDICTABLE>
     b28:	00000000 	andeq	r0, r0, r0
     b2c:	94000000 	strls	r0, [r0], #-0
     b30:	b8000000 	stmdalt	r0, {}	; <UNPREDICTABLE>
     b34:	01000000 	mrseq	r0, (UNDEF: 0)
     b38:	00b85000 	adcseq	r5, r8, r0
     b3c:	00c40000 	sbceq	r0, r4, r0
     b40:	00080000 	andeq	r0, r8, r0
     b44:	24007131 	strcs	r7, [r0], #-305	; 0x131
     b48:	9f210073 	svcls	0x00210073
     b4c:	000000c4 	andeq	r0, r0, r4, asr #1
     b50:	000000c7 	andeq	r0, r0, r7, asr #1
     b54:	00510001 	subseq	r0, r1, r1
     b58:	00000000 	andeq	r0, r0, r0
     b5c:	d4000000 	strle	r0, [r0], #-0
     b60:	f8000000 			; <UNDEFINED> instruction: 0xf8000000
     b64:	01000000 	mrseq	r0, (UNDEF: 0)
     b68:	00f85000 	rscseq	r5, r8, r0
     b6c:	010c0000 	mrseq	r0, (UNDEF: 12)
     b70:	00040000 	andeq	r0, r4, r0
     b74:	9f5001f3 	svcls	0x005001f3
	...
     b80:	000000e0 	andeq	r0, r0, r0, ror #1
     b84:	000000e8 	andeq	r0, r0, r8, ror #1
     b88:	9f300002 	svcls	0x00300002
     b8c:	000000e8 	andeq	r0, r0, r8, ror #1
     b90:	000000e8 	andeq	r0, r0, r8, ror #1
     b94:	e8520001 	ldmda	r2, {r0}^
     b98:	f0000000 			; <UNDEFINED> instruction: 0xf0000000
     b9c:	02000000 	andeq	r0, r0, #0
     ba0:	f09f3000 			; <UNDEFINED> instruction: 0xf09f3000
     ba4:	03000000 	movweq	r0, #0
     ba8:	01000001 	tsteq	r0, r1
     bac:	00005200 	andeq	r5, r0, r0, lsl #4
     bb0:	00000000 	andeq	r0, r0, r0
     bb4:	00e00000 	rsceq	r0, r0, r0
     bb8:	00f40000 	rscseq	r0, r4, r0
     bbc:	00020000 	andeq	r0, r2, r0
     bc0:	00f49f30 	rscseq	r9, r4, r0, lsr pc
     bc4:	01000000 	mrseq	r0, (UNDEF: 0)
     bc8:	00050000 	andeq	r0, r5, r0
     bcc:	24007331 	strcs	r7, [r0], #-817	; 0x331
     bd0:	0001009f 	muleq	r1, pc, r0	; <UNPREDICTABLE>
     bd4:	00010300 	andeq	r0, r1, r0, lsl #6
     bd8:	51000100 	mrspl	r0, (UNDEF: 16)
     bdc:	00000103 	andeq	r0, r0, r3, lsl #2
     be0:	0000010c 	andeq	r0, r0, ip, lsl #2
     be4:	f3310008 	vhadd.u<illegal width 64>	d0, d1, d8
     be8:	1a4f5001 	bne	13d4bf4 <__bss_end__+0x13cacfc>
     bec:	00009f24 	andeq	r9, r0, r4, lsr #30
     bf0:	00000000 	andeq	r0, r0, r0
     bf4:	010c0000 	mrseq	r0, (UNDEF: 12)
     bf8:	01300000 	teqeq	r0, r0
     bfc:	00010000 	andeq	r0, r1, r0
     c00:	00013050 	andeq	r3, r1, r0, asr r0
     c04:	00014400 	andeq	r4, r1, r0, lsl #8
     c08:	f3000400 	vshl.u8	d0, d0, d0
     c0c:	009f5001 	addseq	r5, pc, r1
     c10:	00000000 	andeq	r0, r0, r0
     c14:	18000000 	stmdane	r0, {}	; <UNPREDICTABLE>
     c18:	20000001 	andcs	r0, r0, r1
     c1c:	02000001 	andeq	r0, r0, #1
     c20:	209f3000 	addscs	r3, pc, r0
     c24:	20000001 	andcs	r0, r0, r1
     c28:	01000001 	tsteq	r0, r1
     c2c:	01205200 	teqeq	r0, r0, lsl #4
     c30:	01280000 	teqeq	r8, r0
     c34:	00020000 	andeq	r0, r2, r0
     c38:	01289f30 	teqeq	r8, r0, lsr pc
     c3c:	013b0000 	teqeq	fp, r0
     c40:	00010000 	andeq	r0, r1, r0
     c44:	00000052 	andeq	r0, r0, r2, asr r0
     c48:	00000000 	andeq	r0, r0, r0
     c4c:	00011800 	andeq	r1, r1, r0, lsl #16
     c50:	00012c00 	andeq	r2, r1, r0, lsl #24
     c54:	30000200 	andcc	r0, r0, r0, lsl #4
     c58:	00012c9f 	muleq	r1, pc, ip	; <UNPREDICTABLE>
     c5c:	00013800 	andeq	r3, r1, r0, lsl #16
     c60:	31000500 	tstcc	r0, r0, lsl #10
     c64:	9f240073 	svcls	0x00240073
     c68:	00000138 	andeq	r0, r0, r8, lsr r1
     c6c:	0000013b 	andeq	r0, r0, fp, lsr r1
     c70:	3b510001 	blcc	1440c7c <__bss_end__+0x1436d84>
     c74:	44000001 	strmi	r0, [r0], #-1
     c78:	08000001 	stmdaeq	r0, {r0}
     c7c:	01f33100 	mvnseq	r3, r0, lsl #2
     c80:	241a4f50 	ldrcs	r4, [sl], #-3920	; 0xf50
     c84:	0000009f 	muleq	r0, pc, r0	; <UNPREDICTABLE>
     c88:	00000000 	andeq	r0, r0, r0
     c8c:	00014400 	andeq	r4, r1, r0, lsl #8
     c90:	0001d400 	andeq	sp, r1, r0, lsl #8
     c94:	50000100 	andpl	r0, r0, r0, lsl #2
     c98:	000001d4 	ldrdeq	r0, [r0], -r4
     c9c:	00000210 	andeq	r0, r0, r0, lsl r2
     ca0:	00540001 	subseq	r0, r4, r1
     ca4:	00000000 	andeq	r0, r0, r0
     ca8:	8c000000 	stchi	0, cr0, [r0], {-0}
     cac:	90000001 	andls	r0, r0, r1
     cb0:	01000001 	tsteq	r0, r1
     cb4:	01985500 	orrseq	r5, r8, r0, lsl #10
     cb8:	019c0000 	orrseq	r0, ip, r0
     cbc:	00010000 	andeq	r0, r1, r0
     cc0:	0001a455 	andeq	sl, r1, r5, asr r4
     cc4:	0001a800 	andeq	sl, r1, r0, lsl #16
     cc8:	55000100 	strpl	r0, [r0, #-256]	; 0x100
     ccc:	000001b0 			; <UNDEFINED> instruction: 0x000001b0
     cd0:	000001b4 			; <UNDEFINED> instruction: 0x000001b4
     cd4:	bc550001 	mrrclt	0, 0, r0, r5, cr1
     cd8:	c0000001 	andgt	r0, r0, r1
     cdc:	01000001 	tsteq	r0, r1
     ce0:	01c85500 	biceq	r5, r8, r0, lsl #10
     ce4:	01cc0000 	biceq	r0, ip, r0
     ce8:	00010000 	andeq	r0, r1, r0
     cec:	0001d055 	andeq	sp, r1, r5, asr r0
     cf0:	00021000 	andeq	r1, r2, r0
     cf4:	55000100 	strpl	r0, [r0, #-256]	; 0x100
	...
     d00:	00000160 	andeq	r0, r0, r0, ror #2
     d04:	00000188 	andeq	r0, r0, r8, lsl #3
     d08:	88530001 	ldmdahi	r3, {r0}^
     d0c:	90000001 	andls	r0, r0, r1
     d10:	1c000001 	stcne	0, cr0, [r0], {1}
     d14:	f7007000 			; <UNDEFINED> instruction: 0xf7007000
     d18:	f425f72c 	vld1.8	{d15}, [r5 :128], ip
     d1c:	cccd0825 	stclgt	8, cr0, [sp], {37}	; 0x25
     d20:	0000cccc 	andeq	ip, r0, ip, asr #25
     d24:	081e0000 	ldmdaeq	lr, {}	; <UNPREDICTABLE>
     d28:	2525f720 	strcs	pc, [r5, #-1824]!	; 0x720
     d2c:	25332cf7 	ldrcs	r2, [r3, #-3319]!	; 0xcf7
     d30:	0001909f 	muleq	r1, pc, r0	; <UNPREDICTABLE>
     d34:	00019400 	andeq	r9, r1, r0, lsl #8
     d38:	53000100 	movwpl	r0, #256	; 0x100
     d3c:	00000194 	muleq	r0, r4, r1
     d40:	0000019c 	muleq	r0, ip, r1
     d44:	0070001c 	rsbseq	r0, r0, ip, lsl r0
     d48:	25f72cf7 	ldrbcs	r2, [r7, #3319]!	; 0xcf7
     d4c:	cd0825f4 	cfstr32gt	mvfx2, [r8, #-976]	; 0xfffffc30
     d50:	00cccccc 	sbceq	ip, ip, ip, asr #25
     d54:	1e000000 	cdpne	0, 0, cr0, cr0, cr0, {0}
     d58:	25f72008 	ldrbcs	r2, [r7, #8]!
     d5c:	332cf725 	msrcc	CPSR_fs, #9699328	; 0x940000
     d60:	019c9f25 	orrseq	r9, ip, r5, lsr #30
     d64:	01a00000 	moveq	r0, r0
     d68:	00010000 	andeq	r0, r1, r0
     d6c:	0001a053 	andeq	sl, r1, r3, asr r0
     d70:	0001a800 	andeq	sl, r1, r0, lsl #16
     d74:	70001c00 	andvc	r1, r0, r0, lsl #24
     d78:	f72cf700 			; <UNDEFINED> instruction: 0xf72cf700
     d7c:	0825f425 	stmdaeq	r5!, {r0, r2, r5, sl, ip, sp, lr, pc}
     d80:	cccccccd 	stclgt	12, cr12, [ip], {205}	; 0xcd
     d84:	00000000 	andeq	r0, r0, r0
     d88:	f720081e 			; <UNDEFINED> instruction: 0xf720081e
     d8c:	2cf72525 	cfldr64cs	mvdx2, [r7], #148	; 0x94
     d90:	a89f2533 	ldmge	pc, {r0, r1, r4, r5, r8, sl, sp}	; <UNPREDICTABLE>
     d94:	ac000001 	stcge	0, cr0, [r0], {1}
     d98:	01000001 	tsteq	r0, r1
     d9c:	01ac5300 			; <UNDEFINED> instruction: 0x01ac5300
     da0:	01b40000 			; <UNDEFINED> instruction: 0x01b40000
     da4:	001c0000 	andseq	r0, ip, r0
     da8:	2cf70070 	ldclcs	0, cr0, [r7], #448	; 0x1c0
     dac:	25f425f7 	ldrbcs	r2, [r4, #1527]!	; 0x5f7
     db0:	cccccd08 	stclgt	13, cr12, [ip], {8}
     db4:	000000cc 	andeq	r0, r0, ip, asr #1
     db8:	20081e00 	andcs	r1, r8, r0, lsl #28
     dbc:	f72525f7 			; <UNDEFINED> instruction: 0xf72525f7
     dc0:	9f25332c 	svcls	0x0025332c
     dc4:	000001b4 			; <UNDEFINED> instruction: 0x000001b4
     dc8:	000001b8 			; <UNDEFINED> instruction: 0x000001b8
     dcc:	b8530001 	ldmdalt	r3, {r0}^
     dd0:	c0000001 	andgt	r0, r0, r1
     dd4:	1c000001 	stcne	0, cr0, [r0], {1}
     dd8:	f7007000 			; <UNDEFINED> instruction: 0xf7007000
     ddc:	f425f72c 	vld1.8	{d15}, [r5 :128], ip
     de0:	cccd0825 	stclgt	8, cr0, [sp], {37}	; 0x25
     de4:	0000cccc 	andeq	ip, r0, ip, asr #25
     de8:	081e0000 	ldmdaeq	lr, {}	; <UNPREDICTABLE>
     dec:	2525f720 	strcs	pc, [r5, #-1824]!	; 0x720
     df0:	25332cf7 	ldrcs	r2, [r3, #-3319]!	; 0xcf7
     df4:	0001c09f 	muleq	r1, pc, r0	; <UNPREDICTABLE>
     df8:	0001c400 	andeq	ip, r1, r0, lsl #8
     dfc:	53000100 	movwpl	r0, #256	; 0x100
     e00:	000001c4 	andeq	r0, r0, r4, asr #3
     e04:	000001cc 	andeq	r0, r0, ip, asr #3
     e08:	0070001c 	rsbseq	r0, r0, ip, lsl r0
     e0c:	25f72cf7 	ldrbcs	r2, [r7, #3319]!	; 0xcf7
     e10:	cd0825f4 	cfstr32gt	mvfx2, [r8, #-976]	; 0xfffffc30
     e14:	00cccccc 	sbceq	ip, ip, ip, asr #25
     e18:	1e000000 	cdpne	0, 0, cr0, cr0, cr0, {0}
     e1c:	25f72008 	ldrbcs	r2, [r7, #8]!
     e20:	332cf725 	msrcc	CPSR_fs, #9699328	; 0x940000
     e24:	01cc9f25 	biceq	r9, ip, r5, lsr #30
     e28:	01d00000 	bicseq	r0, r0, r0
     e2c:	00010000 	andeq	r0, r1, r0
     e30:	0001d053 	andeq	sp, r1, r3, asr r0
     e34:	0001d400 	andeq	sp, r1, r0, lsl #8
     e38:	70001c00 	andvc	r1, r0, r0, lsl #24
     e3c:	f72cf700 			; <UNDEFINED> instruction: 0xf72cf700
     e40:	0825f425 	stmdaeq	r5!, {r0, r2, r5, sl, ip, sp, lr, pc}
     e44:	cccccccd 	stclgt	12, cr12, [ip], {205}	; 0xcd
     e48:	00000000 	andeq	r0, r0, r0
     e4c:	f720081e 			; <UNDEFINED> instruction: 0xf720081e
     e50:	2cf72525 	cfldr64cs	mvdx2, [r7], #148	; 0x94
     e54:	d49f2533 	ldrle	r2, [pc], #1331	; e5c <_start-0x71a4>
     e58:	dc000001 	stcle	0, cr0, [r0], {1}
     e5c:	1c000001 	stcne	0, cr0, [r0], {1}
     e60:	f7007400 			; <UNDEFINED> instruction: 0xf7007400
     e64:	f425f72c 	vld1.8	{d15}, [r5 :128], ip
     e68:	cccd0825 	stclgt	8, cr0, [sp], {37}	; 0x25
     e6c:	0000cccc 	andeq	ip, r0, ip, asr #25
     e70:	081e0000 	ldmdaeq	lr, {}	; <UNPREDICTABLE>
     e74:	2525f720 	strcs	pc, [r5, #-1824]!	; 0x720
     e78:	25332cf7 	ldrcs	r2, [r3, #-3319]!	; 0xcf7
     e7c:	0001dc9f 	muleq	r1, pc, ip	; <UNPREDICTABLE>
     e80:	0001e000 	andeq	lr, r1, r0
     e84:	74001700 	strvc	r1, [r0], #-1792	; 0x700
     e88:	f72cf700 			; <UNDEFINED> instruction: 0xf72cf700
     e8c:	f7007125 			; <UNDEFINED> instruction: 0xf7007125
     e90:	1e25f72c 	cdpne	7, 2, cr15, cr5, cr12, {1}
     e94:	25f72008 	ldrbcs	r2, [r7, #8]!
     e98:	332cf725 	msrcc	CPSR_fs, #9699328	; 0x940000
     e9c:	01e09f25 	mvneq	r9, r5, lsr #30
     ea0:	02100000 	andseq	r0, r0, #0
     ea4:	001c0000 	andseq	r0, ip, r0
     ea8:	2cf70074 	ldclcs	0, cr0, [r7], #464	; 0x1d0
     eac:	25f425f7 	ldrbcs	r2, [r4, #1527]!	; 0x5f7
     eb0:	cccccd08 	stclgt	13, cr12, [ip], {8}
     eb4:	000000cc 	andeq	r0, r0, ip, asr #1
     eb8:	20081e00 	andcs	r1, r8, r0, lsl #28
     ebc:	f72525f7 			; <UNDEFINED> instruction: 0xf72525f7
     ec0:	9f25332c 	svcls	0x0025332c
	...
     ecc:	000001d8 	ldrdeq	r0, [r0], -r8
     ed0:	000001fc 	strdeq	r0, [r0], -ip
     ed4:	fc500001 	mrrc2	0, 0, r0, r0, cr1	; <UNPREDICTABLE>
     ed8:	03000001 	movweq	r0, #1
     edc:	01000002 	tsteq	r0, r2
     ee0:	00005100 	andeq	r5, r0, r0, lsl #2
     ee4:	00000000 	andeq	r0, r0, r0
     ee8:	02100000 	andseq	r0, r0, #0
     eec:	022c0000 	eoreq	r0, ip, #0
     ef0:	00010000 	andeq	r0, r1, r0
     ef4:	00022c50 	andeq	r2, r2, r0, asr ip
     ef8:	00023400 	andeq	r3, r2, r0, lsl #8
     efc:	54000100 	strpl	r0, [r0], #-256	; 0x100
     f00:	00000234 	andeq	r0, r0, r4, lsr r2
     f04:	0000023c 	andeq	r0, r0, ip, lsr r2
     f08:	3c500001 	mrrccc	0, 0, r0, r0, cr1	; <UNPREDICTABLE>
     f0c:	44000002 	strmi	r0, [r0], #-2
     f10:	01000002 	tsteq	r0, r2
     f14:	02445400 	subeq	r5, r4, #0, 8
     f18:	02500000 	subseq	r0, r0, #0
     f1c:	00040000 	andeq	r0, r4, r0
     f20:	9f5001f3 	svcls	0x005001f3
     f24:	00000250 	andeq	r0, r0, r0, asr r2
     f28:	00000254 	andeq	r0, r0, r4, asr r2
     f2c:	54500001 	ldrbpl	r0, [r0], #-1
     f30:	5c000002 	stcpl	0, cr0, [r0], {2}
     f34:	01000002 	tsteq	r0, r2
     f38:	00005400 	andeq	r5, r0, r0, lsl #8
     f3c:	00000000 	andeq	r0, r0, r0
     f40:	02200000 	eoreq	r0, r0, #0
     f44:	02300000 	eorseq	r0, r0, #0
     f48:	00020000 	andeq	r0, r2, r0
     f4c:	02309f30 	eorseq	r9, r0, #48, 30	; 0xc0
     f50:	02340000 	eorseq	r0, r4, #0
     f54:	00010000 	andeq	r0, r1, r0
     f58:	00023450 	andeq	r3, r2, r0, asr r4
     f5c:	00024000 	andeq	r4, r2, r0
     f60:	30000200 	andcc	r0, r0, r0, lsl #4
     f64:	0002409f 	muleq	r2, pc, r0	; <UNPREDICTABLE>
     f68:	00024c00 	andeq	r4, r2, r0, lsl #24
     f6c:	50000100 	andpl	r0, r0, r0, lsl #2
	...
     f78:	0000025c 	andeq	r0, r0, ip, asr r2
     f7c:	00000290 	muleq	r0, r0, r2
     f80:	90500001 	subsls	r0, r0, r1
     f84:	a0000002 	andge	r0, r0, r2
     f88:	04000002 	streq	r0, [r0], #-2
     f8c:	5001f300 	andpl	pc, r1, r0, lsl #6
     f90:	0002a09f 	muleq	r2, pc, r0	; <UNPREDICTABLE>
     f94:	0002c000 	andeq	ip, r2, r0
     f98:	50000100 	andpl	r0, r0, r0, lsl #2
     f9c:	000002c0 	andeq	r0, r0, r0, asr #5
     fa0:	000002d4 	ldrdeq	r0, [r0], -r4
     fa4:	01f30004 	mvnseq	r0, r4
     fa8:	00009f50 	andeq	r9, r0, r0, asr pc
     fac:	00000000 	andeq	r0, r0, r0
     fb0:	025c0000 	subseq	r0, ip, #0
     fb4:	02940000 	addseq	r0, r4, #0
     fb8:	00010000 	andeq	r0, r1, r0
     fbc:	00029451 	andeq	r9, r2, r1, asr r4
     fc0:	0002a000 	andeq	sl, r2, r0
     fc4:	f3000400 	vshl.u8	d0, d0, d0
     fc8:	a09f5101 	addsge	r5, pc, r1, lsl #2
     fcc:	c4000002 	strgt	r0, [r0], #-2
     fd0:	01000002 	tsteq	r0, r2
     fd4:	02c45100 	sbceq	r5, r4, #0, 2
     fd8:	02d40000 	sbcseq	r0, r4, #0
     fdc:	00040000 	andeq	r0, r4, r0
     fe0:	9f5101f3 	svcls	0x005101f3
	...
     fec:	00000270 	andeq	r0, r0, r0, ror r2
     ff0:	00000290 	muleq	r0, r0, r2
     ff4:	90500001 	subsls	r0, r0, r1
     ff8:	a0000002 	andge	r0, r0, r2
     ffc:	04000002 	streq	r0, [r0], #-2
    1000:	5001f300 	andpl	pc, r1, r0, lsl #6
    1004:	0000009f 	muleq	r0, pc, r0	; <UNPREDICTABLE>
    1008:	00000000 	andeq	r0, r0, r0
    100c:	00027800 	andeq	r7, r2, r0, lsl #16
    1010:	00028000 	andeq	r8, r2, r0
    1014:	30000200 	andcc	r0, r0, r0, lsl #4
    1018:	0002809f 	muleq	r2, pc, r0	; <UNPREDICTABLE>
    101c:	00028000 	andeq	r8, r2, r0
    1020:	52000100 	andpl	r0, r0, #0, 2
    1024:	00000280 	andeq	r0, r0, r0, lsl #5
    1028:	00000288 	andeq	r0, r0, r8, lsl #5
    102c:	9f300002 	svcls	0x00300002
    1030:	00000288 	andeq	r0, r0, r8, lsl #5
    1034:	0000029b 	muleq	r0, fp, r2
    1038:	00520001 	subseq	r0, r2, r1
    103c:	00000000 	andeq	r0, r0, r0
    1040:	78000000 	stmdavc	r0, {}	; <UNPREDICTABLE>
    1044:	8c000002 	stchi	0, cr0, [r0], {2}
    1048:	02000002 	andeq	r0, r0, #2
    104c:	8c9f3000 	ldchi	0, cr3, [pc], {0}
    1050:	98000002 	stmdals	r0, {r1}
    1054:	05000002 	streq	r0, [r0, #-2]
    1058:	00733100 	rsbseq	r3, r3, r0, lsl #2
    105c:	02989f24 	addseq	r9, r8, #36, 30	; 0x90
    1060:	029b0000 	addseq	r0, fp, #0
    1064:	00010000 	andeq	r0, r1, r0
    1068:	00029b51 	andeq	r9, r2, r1, asr fp
    106c:	0002a000 	andeq	sl, r2, r0
    1070:	31000800 	tstcc	r0, r0, lsl #16
    1074:	4f5001f3 	svcmi	0x005001f3
    1078:	009f241a 	addseq	r2, pc, sl, lsl r4	; <UNPREDICTABLE>
    107c:	00000000 	andeq	r0, r0, r0
    1080:	a0000000 	andge	r0, r0, r0
    1084:	c0000002 	andgt	r0, r0, r2
    1088:	01000002 	tsteq	r0, r2
    108c:	02c05000 	sbceq	r5, r0, #0
    1090:	02d40000 	sbcseq	r0, r4, #0
    1094:	00040000 	andeq	r0, r4, r0
    1098:	9f5001f3 	svcls	0x005001f3
	...
    10a4:	000002a8 	andeq	r0, r0, r8, lsr #5
    10a8:	000002b0 			; <UNDEFINED> instruction: 0x000002b0
    10ac:	9f300002 	svcls	0x00300002
    10b0:	000002b0 			; <UNDEFINED> instruction: 0x000002b0
    10b4:	000002b0 			; <UNDEFINED> instruction: 0x000002b0
    10b8:	b0520001 	subslt	r0, r2, r1
    10bc:	b8000002 	stmdalt	r0, {r1}
    10c0:	02000002 	andeq	r0, r0, #2
    10c4:	b89f3000 	ldmlt	pc, {ip, sp}	; <UNPREDICTABLE>
    10c8:	cb000002 	blgt	10d8 <_start-0x6f28>
    10cc:	01000002 	tsteq	r0, r2
    10d0:	00005200 	andeq	r5, r0, r0, lsl #4
    10d4:	00000000 	andeq	r0, r0, r0
    10d8:	02a80000 	adceq	r0, r8, #0
    10dc:	02bc0000 	adcseq	r0, ip, #0
    10e0:	00020000 	andeq	r0, r2, r0
    10e4:	02bc9f30 	adcseq	r9, ip, #48, 30	; 0xc0
    10e8:	02c80000 	sbceq	r0, r8, #0
    10ec:	00050000 	andeq	r0, r5, r0
    10f0:	24007331 	strcs	r7, [r0], #-817	; 0x331
    10f4:	0002c89f 	muleq	r2, pc, r8	; <UNPREDICTABLE>
    10f8:	0002cb00 	andeq	ip, r2, r0, lsl #22
    10fc:	51000100 	mrspl	r0, (UNDEF: 16)
    1100:	000002cb 	andeq	r0, r0, fp, asr #5
    1104:	000002d4 	ldrdeq	r0, [r0], -r4
    1108:	f3310008 	vhadd.u<illegal width 64>	d0, d1, d8
    110c:	1a4f5001 	bne	13d5118 <__bss_end__+0x13cb220>
    1110:	00009f24 	andeq	r9, r0, r4, lsr #30
    1114:	00000000 	andeq	r0, r0, r0
    1118:	02d40000 	sbcseq	r0, r4, #0
    111c:	036c0000 	cmneq	ip, #0
    1120:	00010000 	andeq	r0, r1, r0
    1124:	00036c50 	andeq	r6, r3, r0, asr ip
    1128:	0003ac00 	andeq	sl, r3, r0, lsl #24
    112c:	54000100 	strpl	r0, [r0], #-256	; 0x100
	...
    1138:	000002d4 	ldrdeq	r0, [r0], -r4
    113c:	0000036f 	andeq	r0, r0, pc, ror #6
    1140:	6f510001 	svcvs	0x00510001
    1144:	ac000003 	stcge	0, cr0, [r0], {3}
    1148:	04000003 	streq	r0, [r0], #-3
    114c:	5101f300 	mrspl	pc, SP_irq	; <UNPREDICTABLE>
    1150:	0000009f 	muleq	r0, pc, r0	; <UNPREDICTABLE>
    1154:	00000000 	andeq	r0, r0, r0
    1158:	00032400 	andeq	r2, r3, r0, lsl #8
    115c:	00032800 	andeq	r2, r3, r0, lsl #16
    1160:	56000100 	strpl	r0, [r0], -r0, lsl #2
    1164:	00000330 	andeq	r0, r0, r0, lsr r3
    1168:	00000334 	andeq	r0, r0, r4, lsr r3
    116c:	3c560001 	mrrccc	0, 0, r0, r6, cr1
    1170:	40000003 	andmi	r0, r0, r3
    1174:	01000003 	tsteq	r0, r3
    1178:	03485600 	movteq	r5, #34304	; 0x8600
    117c:	034c0000 	movteq	r0, #49152	; 0xc000
    1180:	00010000 	andeq	r0, r1, r0
    1184:	00035456 	andeq	r5, r3, r6, asr r4
    1188:	00035800 	andeq	r5, r3, r0, lsl #16
    118c:	56000100 	strpl	r0, [r0], -r0, lsl #2
    1190:	00000360 	andeq	r0, r0, r0, ror #6
    1194:	00000364 	andeq	r0, r0, r4, ror #6
    1198:	68560001 	ldmdavs	r6, {r0}^
    119c:	ac000003 	stcge	0, cr0, [r0], {3}
    11a0:	01000003 	tsteq	r0, r3
    11a4:	00005600 	andeq	r5, r0, r0, lsl #12
    11a8:	00000000 	andeq	r0, r0, r0
    11ac:	02f80000 	rscseq	r0, r8, #0
    11b0:	03200000 	teqeq	r0, #0
    11b4:	00010000 	andeq	r0, r1, r0
    11b8:	00032053 	andeq	r2, r3, r3, asr r0
    11bc:	00032800 	andeq	r2, r3, r0, lsl #16
    11c0:	70001c00 	andvc	r1, r0, r0, lsl #24
    11c4:	f72cf700 			; <UNDEFINED> instruction: 0xf72cf700
    11c8:	0825f425 	stmdaeq	r5!, {r0, r2, r5, sl, ip, sp, lr, pc}
    11cc:	cccccccd 	stclgt	12, cr12, [ip], {205}	; 0xcd
    11d0:	00000000 	andeq	r0, r0, r0
    11d4:	f720081e 			; <UNDEFINED> instruction: 0xf720081e
    11d8:	2cf72525 	cfldr64cs	mvdx2, [r7], #148	; 0x94
    11dc:	289f2533 	ldmcs	pc, {r0, r1, r4, r5, r8, sl, sp}	; <UNPREDICTABLE>
    11e0:	2c000003 	stccs	0, cr0, [r0], {3}
    11e4:	01000003 	tsteq	r0, r3
    11e8:	032c5300 	teqeq	ip, #0, 6
    11ec:	03340000 	teqeq	r4, #0
    11f0:	001c0000 	andseq	r0, ip, r0
    11f4:	2cf70070 	ldclcs	0, cr0, [r7], #448	; 0x1c0
    11f8:	25f425f7 	ldrbcs	r2, [r4, #1527]!	; 0x5f7
    11fc:	cccccd08 	stclgt	13, cr12, [ip], {8}
    1200:	000000cc 	andeq	r0, r0, ip, asr #1
    1204:	20081e00 	andcs	r1, r8, r0, lsl #28
    1208:	f72525f7 			; <UNDEFINED> instruction: 0xf72525f7
    120c:	9f25332c 	svcls	0x0025332c
    1210:	00000334 	andeq	r0, r0, r4, lsr r3
    1214:	00000338 	andeq	r0, r0, r8, lsr r3
    1218:	38530001 	ldmdacc	r3, {r0}^
    121c:	40000003 	andmi	r0, r0, r3
    1220:	1c000003 	stcne	0, cr0, [r0], {3}
    1224:	f7007000 			; <UNDEFINED> instruction: 0xf7007000
    1228:	f425f72c 	vld1.8	{d15}, [r5 :128], ip
    122c:	cccd0825 	stclgt	8, cr0, [sp], {37}	; 0x25
    1230:	0000cccc 	andeq	ip, r0, ip, asr #25
    1234:	081e0000 	ldmdaeq	lr, {}	; <UNPREDICTABLE>
    1238:	2525f720 	strcs	pc, [r5, #-1824]!	; 0x720
    123c:	25332cf7 	ldrcs	r2, [r3, #-3319]!	; 0xcf7
    1240:	0003409f 	muleq	r3, pc, r0	; <UNPREDICTABLE>
    1244:	00034400 	andeq	r4, r3, r0, lsl #8
    1248:	53000100 	movwpl	r0, #256	; 0x100
    124c:	00000344 	andeq	r0, r0, r4, asr #6
    1250:	0000034c 	andeq	r0, r0, ip, asr #6
    1254:	0070001c 	rsbseq	r0, r0, ip, lsl r0
    1258:	25f72cf7 	ldrbcs	r2, [r7, #3319]!	; 0xcf7
    125c:	cd0825f4 	cfstr32gt	mvfx2, [r8, #-976]	; 0xfffffc30
    1260:	00cccccc 	sbceq	ip, ip, ip, asr #25
    1264:	1e000000 	cdpne	0, 0, cr0, cr0, cr0, {0}
    1268:	25f72008 	ldrbcs	r2, [r7, #8]!
    126c:	332cf725 	msrcc	CPSR_fs, #9699328	; 0x940000
    1270:	034c9f25 	movteq	r9, #53029	; 0xcf25
    1274:	03500000 	cmpeq	r0, #0
    1278:	00010000 	andeq	r0, r1, r0
    127c:	00035053 	andeq	r5, r3, r3, asr r0
    1280:	00035800 	andeq	r5, r3, r0, lsl #16
    1284:	70001c00 	andvc	r1, r0, r0, lsl #24
    1288:	f72cf700 			; <UNDEFINED> instruction: 0xf72cf700
    128c:	0825f425 	stmdaeq	r5!, {r0, r2, r5, sl, ip, sp, lr, pc}
    1290:	cccccccd 	stclgt	12, cr12, [ip], {205}	; 0xcd
    1294:	00000000 	andeq	r0, r0, r0
    1298:	f720081e 			; <UNDEFINED> instruction: 0xf720081e
    129c:	2cf72525 	cfldr64cs	mvdx2, [r7], #148	; 0x94
    12a0:	589f2533 	ldmpl	pc, {r0, r1, r4, r5, r8, sl, sp}	; <UNPREDICTABLE>
    12a4:	5c000003 	stcpl	0, cr0, [r0], {3}
    12a8:	01000003 	tsteq	r0, r3
    12ac:	035c5300 	cmpeq	ip, #0, 6
    12b0:	03640000 	cmneq	r4, #0
    12b4:	001c0000 	andseq	r0, ip, r0
    12b8:	2cf70070 	ldclcs	0, cr0, [r7], #448	; 0x1c0
    12bc:	25f425f7 	ldrbcs	r2, [r4, #1527]!	; 0x5f7
    12c0:	cccccd08 	stclgt	13, cr12, [ip], {8}
    12c4:	000000cc 	andeq	r0, r0, ip, asr #1
    12c8:	20081e00 	andcs	r1, r8, r0, lsl #28
    12cc:	f72525f7 			; <UNDEFINED> instruction: 0xf72525f7
    12d0:	9f25332c 	svcls	0x0025332c
    12d4:	00000364 	andeq	r0, r0, r4, ror #6
    12d8:	00000368 	andeq	r0, r0, r8, ror #6
    12dc:	68530001 	ldmdavs	r3, {r0}^
    12e0:	6c000003 	stcvs	0, cr0, [r0], {3}
    12e4:	1c000003 	stcne	0, cr0, [r0], {3}
    12e8:	f7007000 			; <UNDEFINED> instruction: 0xf7007000
    12ec:	f425f72c 	vld1.8	{d15}, [r5 :128], ip
    12f0:	cccd0825 	stclgt	8, cr0, [sp], {37}	; 0x25
    12f4:	0000cccc 	andeq	ip, r0, ip, asr #25
    12f8:	081e0000 	ldmdaeq	lr, {}	; <UNPREDICTABLE>
    12fc:	2525f720 	strcs	pc, [r5, #-1824]!	; 0x720
    1300:	25332cf7 	ldrcs	r2, [r3, #-3319]!	; 0xcf7
    1304:	00036c9f 	muleq	r3, pc, ip	; <UNPREDICTABLE>
    1308:	00037400 	andeq	r7, r3, r0, lsl #8
    130c:	74001c00 	strvc	r1, [r0], #-3072	; 0xc00
    1310:	f72cf700 			; <UNDEFINED> instruction: 0xf72cf700
    1314:	0825f425 	stmdaeq	r5!, {r0, r2, r5, sl, ip, sp, lr, pc}
    1318:	cccccccd 	stclgt	12, cr12, [ip], {205}	; 0xcd
    131c:	00000000 	andeq	r0, r0, r0
    1320:	f720081e 			; <UNDEFINED> instruction: 0xf720081e
    1324:	2cf72525 	cfldr64cs	mvdx2, [r7], #148	; 0x94
    1328:	749f2533 	ldrvc	r2, [pc], #1331	; 1330 <_start-0x6cd0>
    132c:	78000003 	stmdavc	r0, {r0, r1}
    1330:	17000003 	strne	r0, [r0, -r3]
    1334:	f7007400 			; <UNDEFINED> instruction: 0xf7007400
    1338:	7325f72c 	msrvc	CPSR_sc, #44, 14	; 0xb00000
    133c:	f72cf700 			; <UNDEFINED> instruction: 0xf72cf700
    1340:	20081e25 	andcs	r1, r8, r5, lsr #28
    1344:	f72525f7 			; <UNDEFINED> instruction: 0xf72525f7
    1348:	9f25332c 	svcls	0x0025332c
    134c:	00000378 	andeq	r0, r0, r8, ror r3
    1350:	000003ac 	andeq	r0, r0, ip, lsr #7
    1354:	0074001c 	rsbseq	r0, r4, ip, lsl r0
    1358:	25f72cf7 	ldrbcs	r2, [r7, #3319]!	; 0xcf7
    135c:	cd0825f4 	cfstr32gt	mvfx2, [r8, #-976]	; 0xfffffc30
    1360:	00cccccc 	sbceq	ip, ip, ip, asr #25
    1364:	1e000000 	cdpne	0, 0, cr0, cr0, cr0, {0}
    1368:	25f72008 	ldrbcs	r2, [r7, #8]!
    136c:	332cf725 	msrcc	CPSR_fs, #9699328	; 0x940000
    1370:	00009f25 	andeq	r9, r0, r5, lsr #30
    1374:	00000000 	andeq	r0, r0, r0
    1378:	03700000 	cmneq	r0, #0
    137c:	03940000 	orrseq	r0, r4, #0
    1380:	00010000 	andeq	r0, r1, r0
    1384:	00039450 	andeq	r9, r3, r0, asr r4
    1388:	00039c00 	andeq	r9, r3, r0, lsl #24
    138c:	75000900 	strvc	r0, [r0, #-2304]	; 0x900
    1390:	24007300 	strcs	r7, [r0], #-768	; 0x300
    1394:	9f210071 	svcls	0x00210071
    1398:	0000039c 	muleq	r0, ip, r3
    139c:	0000039f 	muleq	r0, pc, r3	; <UNPREDICTABLE>
    13a0:	00510001 	subseq	r0, r1, r1
    13a4:	00000000 	andeq	r0, r0, r0
    13a8:	ac000000 	stcge	0, cr0, [r0], {-0}
    13ac:	b8000003 	stmdalt	r0, {r0, r1}
    13b0:	01000003 	tsteq	r0, r3
    13b4:	03b85000 			; <UNDEFINED> instruction: 0x03b85000
    13b8:	03d80000 	bicseq	r0, r8, #0
    13bc:	00040000 	andeq	r0, r4, r0
    13c0:	9f5001f3 	svcls	0x005001f3
	...
    13cc:	000003d8 	ldrdeq	r0, [r0], -r8
    13d0:	000003eb 	andeq	r0, r0, fp, ror #7
    13d4:	eb500001 	bl	14013e0 <__bss_end__+0x13f74e8>
    13d8:	24000003 	strcs	r0, [r0], #-3
    13dc:	01000004 	tsteq	r0, r4
    13e0:	04245400 	strteq	r5, [r4], #-1024	; 0x400
    13e4:	045c0000 	ldrbeq	r0, [ip], #-0
    13e8:	00040000 	andeq	r0, r4, r0
    13ec:	9f5001f3 	svcls	0x005001f3
	...
    13f8:	00000444 	andeq	r0, r0, r4, asr #8
    13fc:	00000448 	andeq	r0, r0, r8, asr #8
    1400:	48500001 	ldmdami	r0, {r0}^
    1404:	4f000004 	svcmi	0x00000004
    1408:	01000004 	tsteq	r0, r4
    140c:	00005100 	andeq	r5, r0, r0, lsl #2
    1410:	00000000 	andeq	r0, r0, r0
    1414:	04000000 	streq	r0, [r0], #-0
    1418:	04080000 	streq	r0, [r8], #-0
    141c:	00010000 	andeq	r0, r1, r0
    1420:	00040850 	andeq	r0, r4, r0, asr r8
    1424:	00040f00 	andeq	r0, r4, r0, lsl #30
    1428:	51000100 	mrspl	r0, (UNDEF: 16)
	...
    1434:	00000420 	andeq	r0, r0, r0, lsr #8
    1438:	0000042c 	andeq	r0, r0, ip, lsr #8
    143c:	2c500001 	mrrccs	0, 0, r0, r0, cr1	; <UNPREDICTABLE>
    1440:	33000004 	movwcc	r0, #4
    1444:	01000004 	tsteq	r0, r4
    1448:	00005100 	andeq	r5, r0, r0, lsl #2
    144c:	00000000 	andeq	r0, r0, r0
    1450:	045c0000 	ldrbeq	r0, [ip], #-0
    1454:	046f0000 	strbteq	r0, [pc], #-0	; 145c <_start-0x6ba4>
    1458:	00010000 	andeq	r0, r1, r0
    145c:	00046f50 	andeq	r6, r4, r0, asr pc
    1460:	0004a800 	andeq	sl, r4, r0, lsl #16
    1464:	54000100 	strpl	r0, [r0], #-256	; 0x100
    1468:	000004a8 	andeq	r0, r0, r8, lsr #9
    146c:	000004e0 	andeq	r0, r0, r0, ror #9
    1470:	01f30004 	mvnseq	r0, r4
    1474:	00009f50 	andeq	r9, r0, r0, asr pc
    1478:	00000000 	andeq	r0, r0, r0
    147c:	04c80000 	strbeq	r0, [r8], #0
    1480:	04cc0000 	strbeq	r0, [ip], #0
    1484:	00010000 	andeq	r0, r1, r0
    1488:	0004cc50 	andeq	ip, r4, r0, asr ip
    148c:	0004d300 	andeq	sp, r4, r0, lsl #6
    1490:	51000100 	mrspl	r0, (UNDEF: 16)
	...
    149c:	00000484 	andeq	r0, r0, r4, lsl #9
    14a0:	0000048c 	andeq	r0, r0, ip, lsl #9
    14a4:	8c500001 	mrrchi	0, 0, r0, r0, cr1	; <UNPREDICTABLE>
    14a8:	93000004 	movwls	r0, #4
    14ac:	01000004 	tsteq	r0, r4
    14b0:	00005100 	andeq	r5, r0, r0, lsl #2
    14b4:	00000000 	andeq	r0, r0, r0
    14b8:	04a40000 	strteq	r0, [r4], #0
    14bc:	04b00000 	ldrteq	r0, [r0], #0
    14c0:	00010000 	andeq	r0, r1, r0
    14c4:	0004b050 	andeq	fp, r4, r0, asr r0
    14c8:	0004b700 	andeq	fp, r4, r0, lsl #14
    14cc:	51000100 	mrspl	r0, (UNDEF: 16)
	...
    14d8:	000004e0 	andeq	r0, r0, r0, ror #9
    14dc:	000004f3 	strdeq	r0, [r0], -r3
    14e0:	f3500001 	vhadd.u16	d16, d0, d1
    14e4:	34000004 	strcc	r0, [r0], #-4
    14e8:	01000005 	tsteq	r0, r5
    14ec:	05345400 	ldreq	r5, [r4, #-1024]!	; 0x400
    14f0:	05580000 	ldrbeq	r0, [r8, #-0]
    14f4:	00040000 	andeq	r0, r4, r0
    14f8:	9f5001f3 	svcls	0x005001f3
    14fc:	00000558 	andeq	r0, r0, r8, asr r5
    1500:	0000055c 	andeq	r0, r0, ip, asr r5
    1504:	5c500001 	mrrcpl	0, 0, r0, r0, cr1	; <UNPREDICTABLE>
    1508:	64000005 	strvs	r0, [r0], #-5
    150c:	01000005 	tsteq	r0, r5
    1510:	00005400 	andeq	r5, r0, r0, lsl #8
    1514:	00000000 	andeq	r0, r0, r0
    1518:	05080000 	streq	r0, [r8, #-0]
    151c:	05170000 	ldreq	r0, [r7, #-0]
    1520:	00080000 	andeq	r0, r8, r0
    1524:	24007431 	strcs	r7, [r0], #-1073	; 0x431
    1528:	9f1a0070 	svcls	0x001a0070
	...
    1534:	00000534 	andeq	r0, r0, r4, lsr r5
    1538:	0000054c 	andeq	r0, r0, ip, asr #10
    153c:	00540001 	subseq	r0, r4, r1
    1540:	00000000 	andeq	r0, r0, r0
    1544:	64000000 	strvs	r0, [r0], #-0
    1548:	77000005 	strvc	r0, [r0, -r5]
    154c:	01000005 	tsteq	r0, r5
    1550:	05775000 	ldrbeq	r5, [r7, #-0]!
    1554:	059c0000 	ldreq	r0, [ip]
    1558:	00010000 	andeq	r0, r1, r0
    155c:	00059c54 	andeq	r9, r5, r4, asr ip
    1560:	0005bc00 	andeq	fp, r5, r0, lsl #24
    1564:	f3000400 	vshl.u8	d0, d0, d0
    1568:	009f5001 	addseq	r5, pc, r1
    156c:	00000000 	andeq	r0, r0, r0
    1570:	30000000 	andcc	r0, r0, r0
    1574:	3c000000 	stccc	0, cr0, [r0], {-0}
    1578:	02000000 	andeq	r0, r0, #0
    157c:	3c9f3000 	ldccc	0, cr3, [pc], {0}
    1580:	68000000 	stmdavs	r0, {}	; <UNPREDICTABLE>
    1584:	01000000 	mrseq	r0, (UNDEF: 0)
    1588:	00005300 	andeq	r5, r0, r0, lsl #6
    158c:	00000000 	andeq	r0, r0, r0
    1590:	00680000 	rsbeq	r0, r8, r0
    1594:	00800000 	addeq	r0, r0, r0
    1598:	00010000 	andeq	r0, r1, r0
    159c:	00008050 	andeq	r8, r0, r0, asr r0
    15a0:	00008f00 	andeq	r8, r0, r0, lsl #30
    15a4:	91000200 	mrsls	r0, R8_usr
    15a8:	00008f6c 	andeq	r8, r0, ip, ror #30
    15ac:	0000a400 	andeq	sl, r0, r0, lsl #8
    15b0:	f3000400 	vshl.u8	d0, d0, d0
    15b4:	009f5001 	addseq	r5, pc, r1
    15b8:	00000000 	andeq	r0, r0, r0
    15bc:	a4000000 	strge	r0, [r0], #-0
    15c0:	bc000000 	stclt	0, cr0, [r0], {-0}
    15c4:	01000000 	mrseq	r0, (UNDEF: 0)
    15c8:	00bc5000 	adcseq	r5, ip, r0
    15cc:	00cb0000 	sbceq	r0, fp, r0
    15d0:	00020000 	andeq	r0, r2, r0
    15d4:	00cb6c91 	smulleq	r6, fp, r1, ip
    15d8:	00e00000 	rsceq	r0, r0, r0
    15dc:	00040000 	andeq	r0, r4, r0
    15e0:	9f5001f3 	svcls	0x005001f3
	...
    15ec:	000000e0 	andeq	r0, r0, r0, ror #1
    15f0:	000000f8 	strdeq	r0, [r0], -r8
    15f4:	f8500001 			; <UNDEFINED> instruction: 0xf8500001
    15f8:	07000000 	streq	r0, [r0, -r0]
    15fc:	02000001 	andeq	r0, r0, #1
    1600:	076c9100 	strbeq	r9, [ip, -r0, lsl #2]!
    1604:	1c000001 	stcne	0, cr0, [r0], {1}
    1608:	04000001 	streq	r0, [r0], #-1
    160c:	5001f300 	andpl	pc, r1, r0, lsl #6
    1610:	0000009f 	muleq	r0, pc, r0	; <UNPREDICTABLE>
    1614:	00000000 	andeq	r0, r0, r0
    1618:	00011c00 	andeq	r1, r1, r0, lsl #24
    161c:	00013400 	andeq	r3, r1, r0, lsl #8
    1620:	50000100 	andpl	r0, r0, r0, lsl #2
    1624:	00000134 	andeq	r0, r0, r4, lsr r1
    1628:	00000143 	andeq	r0, r0, r3, asr #2
    162c:	6c910002 	ldcvs	0, cr0, [r1], {2}
    1630:	00000143 	andeq	r0, r0, r3, asr #2
    1634:	00000158 	andeq	r0, r0, r8, asr r1
    1638:	01f30004 	mvnseq	r0, r4
    163c:	00009f50 	andeq	r9, r0, r0, asr pc
    1640:	00000000 	andeq	r0, r0, r0
    1644:	01580000 	cmpeq	r8, r0
    1648:	01700000 	cmneq	r0, r0
    164c:	00010000 	andeq	r0, r1, r0
    1650:	00017050 	andeq	r7, r1, r0, asr r0
    1654:	00017f00 	andeq	r7, r1, r0, lsl #30
    1658:	91000200 	mrsls	r0, R8_usr
    165c:	00017f6c 	andeq	r7, r1, ip, ror #30
    1660:	00019400 	andeq	r9, r1, r0, lsl #8
    1664:	f3000400 	vshl.u8	d0, d0, d0
    1668:	009f5001 	addseq	r5, pc, r1
    166c:	00000000 	andeq	r0, r0, r0
    1670:	94000000 	strls	r0, [r0], #-0
    1674:	ac000001 	stcge	0, cr0, [r0], {1}
    1678:	01000001 	tsteq	r0, r1
    167c:	01ac5000 			; <UNDEFINED> instruction: 0x01ac5000
    1680:	01bb0000 			; <UNDEFINED> instruction: 0x01bb0000
    1684:	00020000 	andeq	r0, r2, r0
    1688:	01bb6c91 			; <UNDEFINED> instruction: 0x01bb6c91
    168c:	01d00000 	bicseq	r0, r0, r0
    1690:	00040000 	andeq	r0, r4, r0
    1694:	9f5001f3 	svcls	0x005001f3
	...
    16a0:	000000fc 	strdeq	r0, [r0], -ip
    16a4:	00000104 	andeq	r0, r0, r4, lsl #2
    16a8:	04500001 	ldrbeq	r0, [r0], #-1
    16ac:	28000001 	stmdacs	r0, {r0}
    16b0:	01000001 	tsteq	r0, r1
    16b4:	00005400 	andeq	r5, r0, r0, lsl #8
	...
    16c0:	000b0000 	andeq	r0, fp, r0
    16c4:	00010000 	andeq	r0, r1, r0
    16c8:	00000b50 	andeq	r0, r0, r0, asr fp
    16cc:	00001400 	andeq	r1, r0, r0, lsl #8
    16d0:	54000100 	strpl	r0, [r0], #-256	; 0x100
	...

Disassembly of section .debug_aranges:

00000000 <.debug_aranges>:
   0:	0000001c 	andeq	r0, r0, ip, lsl r0
   4:	00000002 	andeq	r0, r0, r2
   8:	00040000 	andeq	r0, r4, r0
   c:	00000000 	andeq	r0, r0, r0
  10:	00008010 	andeq	r8, r0, r0, lsl r0
  14:	00000434 	andeq	r0, r0, r4, lsr r4
	...
  20:	0000001c 	andeq	r0, r0, ip, lsl r0
  24:	08c70002 	stmiaeq	r7, {r1}^
  28:	00040000 	andeq	r0, r4, r0
  2c:	00000000 	andeq	r0, r0, r0
  30:	00008444 	andeq	r8, r0, r4, asr #8
  34:	00000058 	andeq	r0, r0, r8, asr r0
	...
  40:	0000001c 	andeq	r0, r0, ip, lsl r0
  44:	0a5c0002 	beq	1700054 <__bss_end__+0x16f615c>
  48:	00040000 	andeq	r0, r4, r0
  4c:	00000000 	andeq	r0, r0, r0
  50:	0000849c 	muleq	r0, ip, r4
  54:	00000034 	andeq	r0, r0, r4, lsr r0
	...
  60:	0000001c 	andeq	r0, r0, ip, lsl r0
  64:	0b4e0002 	bleq	1380074 <__bss_end__+0x137617c>
  68:	00040000 	andeq	r0, r4, r0
  6c:	00000000 	andeq	r0, r0, r0
  70:	000084d0 	ldrdeq	r8, [r0], -r0
  74:	000004f0 	strdeq	r0, [r0], -r0	; <UNPREDICTABLE>
	...
  80:	0000001c 	andeq	r0, r0, ip, lsl r0
  84:	11a60002 			; <UNDEFINED> instruction: 0x11a60002
  88:	00040000 	andeq	r0, r4, r0
  8c:	00000000 	andeq	r0, r0, r0
  90:	000089c0 	andeq	r8, r0, r0, asr #19
  94:	00000028 	andeq	r0, r0, r8, lsr #32
	...
  a0:	0000001c 	andeq	r0, r0, ip, lsl r0
  a4:	12a90002 	adcne	r0, r9, #2
  a8:	00040000 	andeq	r0, r4, r0
  ac:	00000000 	andeq	r0, r0, r0
  b0:	000089e8 	andeq	r8, r0, r8, ror #19
  b4:	00000034 	andeq	r0, r0, r4, lsr r0
	...
  c0:	0000001c 	andeq	r0, r0, ip, lsl r0
  c4:	13b80002 			; <UNDEFINED> instruction: 0x13b80002
  c8:	00040000 	andeq	r0, r4, r0
  cc:	00000000 	andeq	r0, r0, r0
  d0:	00008a1c 	andeq	r8, r0, ip, lsl sl
  d4:	00000074 	andeq	r0, r0, r4, ror r0
	...
  e0:	0000001c 	andeq	r0, r0, ip, lsl r0
  e4:	15690002 	strbne	r0, [r9, #-2]!
  e8:	00040000 	andeq	r0, r4, r0
  ec:	00000000 	andeq	r0, r0, r0
  f0:	00008a90 	muleq	r0, r0, sl
  f4:	00000088 	andeq	r0, r0, r8, lsl #1
	...
 100:	0000001c 	andeq	r0, r0, ip, lsl r0
 104:	17450002 	strbne	r0, [r5, -r2]
 108:	00040000 	andeq	r0, r4, r0
 10c:	00000000 	andeq	r0, r0, r0
 110:	00008b18 	andeq	r8, r0, r8, lsl fp
 114:	000005bc 			; <UNDEFINED> instruction: 0x000005bc
	...
 120:	0000001c 	andeq	r0, r0, ip, lsl r0
 124:	20180002 	andscs	r0, r8, r2
 128:	00040000 	andeq	r0, r4, r0
 12c:	00000000 	andeq	r0, r0, r0
 130:	000090d4 	ldrdeq	r9, [r0], -r4
 134:	000001d0 	ldrdeq	r0, [r0], -r0	; <UNPREDICTABLE>
	...
 140:	0000001c 	andeq	r0, r0, ip, lsl r0
 144:	25720002 	ldrbcs	r0, [r2, #-2]!
 148:	00040000 	andeq	r0, r4, r0
 14c:	00000000 	andeq	r0, r0, r0
 150:	000093e0 	andeq	r9, r0, r0, ror #7
 154:	00000154 	andeq	r0, r0, r4, asr r1
	...
 160:	0000001c 	andeq	r0, r0, ip, lsl r0
 164:	29750002 	ldmdbcs	r5!, {r1}^
 168:	00040000 	andeq	r0, r4, r0
 16c:	00000000 	andeq	r0, r0, r0
 170:	00009534 	andeq	r9, r0, r4, lsr r5
 174:	00000014 	andeq	r0, r0, r4, lsl r0
	...

Disassembly of section .debug_ranges:

00000000 <.debug_ranges>:
   0:	000001c8 	andeq	r0, r0, r8, asr #3
   4:	00000284 	andeq	r0, r0, r4, lsl #5
   8:	00000290 	muleq	r0, r0, r2
   c:	000002a4 	andeq	r0, r0, r4, lsr #5
	...
  18:	00008a1c 	andeq	r8, r0, ip, lsl sl
  1c:	00008a90 	muleq	r0, r0, sl
	...

Disassembly of section .debug_line:

00000000 <.debug_line>:
   0:	000001fe 	strdeq	r0, [r0], -lr
   4:	01470002 	cmpeq	r7, r2
   8:	01020000 	mrseq	r0, (UNDEF: 2)
   c:	000d0efb 	strdeq	r0, [sp], -fp
  10:	01010101 	tsteq	r1, r1, lsl #2
  14:	01000000 	mrseq	r0, (UNDEF: 0)
  18:	2f010000 	svccs	0x00010000
  1c:	72657355 	rsbvc	r7, r5, #1409286145	; 0x54000001
  20:	72622f73 	rsbvc	r2, r2, #460	; 0x1cc
  24:	6a6e6169 	bvs	1b985d0 <__bss_end__+0x1b8e6d8>
  28:	442f6e75 	strtmi	r6, [pc], #-3701	; 30 <_start-0x7fd0>
  2c:	746b7365 	strbtvc	r7, [fp], #-869	; 0x365
  30:	732f706f 	teqvc	pc, #111	; 0x6f
  34:	6f6f6863 	svcvs	0x006f6863
  38:	69572f6c 	ldmdbvs	r7, {r2, r3, r5, r6, r8, r9, sl, fp, sp}^
  3c:	7265746e 	rsbvc	r7, r5, #1845493760	; 0x6e000000
  40:	30323931 	eorscc	r3, r2, r1, lsr r9
  44:	3153432f 	cmpcc	r3, pc, lsr #6
  48:	2f453034 	svccs	0x00453034
  4c:	34317363 	ldrtcc	r7, [r1], #-867	; 0x363
  50:	322d6530 	eorcc	r6, sp, #48, 10	; 0xc000000
  54:	6e697730 	mcrvs	7, 3, r7, cr9, cr0, {1}
  58:	62696c2f 	rsbvs	r6, r9, #12032	; 0x2f00
  5c:	632f6970 	teqvs	pc, #112, 18	; 0x1c0000
  60:	30343173 	eorscc	r3, r4, r3, ror r1
  64:	72732d65 	rsbsvc	r2, r3, #6464	; 0x1940
  68:	552f0063 	strpl	r0, [pc, #-99]!	; d <_start-0x7ff3>
  6c:	73726573 	cmnvc	r2, #482344960	; 0x1cc00000
  70:	6972622f 	ldmdbvs	r2!, {r0, r1, r2, r3, r5, r9, sp, lr}^
  74:	756a6e61 	strbvc	r6, [sl, #-3681]!	; 0xe61
  78:	65442f6e 	strbvs	r2, [r4, #-3950]	; 0xf6e
  7c:	6f746b73 	svcvs	0x00746b73
  80:	63732f70 	cmnvs	r3, #112, 30	; 0x1c0
  84:	6c6f6f68 	stclvs	15, cr6, [pc], #-416	; fffffeec <__bss_end__+0xffff5ff4>
  88:	6e69572f 	cdpvs	7, 6, cr5, cr9, cr15, {1}
  8c:	31726574 	cmncc	r2, r4, ror r5
  90:	2f303239 	svccs	0x00303239
  94:	34315343 	ldrtcc	r5, [r1], #-835	; 0x343
  98:	632f4530 	teqvs	pc, #48, 10	; 0xc000000
  9c:	30343173 	eorscc	r3, r4, r3, ror r1
  a0:	30322d65 	eorscc	r2, r2, r5, ror #26
  a4:	2f6e6977 	svccs	0x006e6977
  a8:	7062696c 	rsbvc	r6, r2, ip, ror #18
  ac:	73632f69 	cmnvc	r3, #420	; 0x1a4
  b0:	65303431 	ldrvs	r3, [r0, #-1073]!	; 0x431
  b4:	746e692d 	strbtvc	r6, [lr], #-2349	; 0x92d
  b8:	75727265 	ldrbvc	r7, [r2, #-613]!	; 0x265
  bc:	2f007470 	svccs	0x00007470
  c0:	72657355 	rsbvc	r7, r5, #1409286145	; 0x54000001
  c4:	72622f73 	rsbvc	r2, r2, #460	; 0x1cc
  c8:	6a6e6169 	bvs	1b98674 <__bss_end__+0x1b8e77c>
  cc:	442f6e75 	strtmi	r6, [pc], #-3701	; d4 <_start-0x7f2c>
  d0:	746b7365 	strbtvc	r7, [fp], #-869	; 0x365
  d4:	732f706f 	teqvc	pc, #111	; 0x6f
  d8:	6f6f6863 	svcvs	0x006f6863
  dc:	69572f6c 	ldmdbvs	r7, {r2, r3, r5, r6, r8, r9, sl, fp, sp}^
  e0:	7265746e 	rsbvc	r7, r5, #1845493760	; 0x6e000000
  e4:	30323931 	eorscc	r3, r2, r1, lsr r9
  e8:	3153432f 	cmpcc	r3, pc, lsr #6
  ec:	2f453034 	svccs	0x00453034
  f0:	34317363 	ldrtcc	r7, [r1], #-867	; 0x363
  f4:	322d6530 	eorcc	r6, sp, #48, 10	; 0xc000000
  f8:	6e697730 	mcrvs	7, 3, r7, cr9, cr0, {1}
  fc:	62696c2f 	rsbvs	r6, r9, #12032	; 0x2f00
 100:	00006970 	andeq	r6, r0, r0, ror r9
 104:	70672d31 	rsbvc	r2, r7, r1, lsr sp
 108:	692d6f69 	pushvs	{r0, r3, r5, r6, r8, r9, sl, fp, sp, lr}
 10c:	652d746e 	strvs	r7, [sp, #-1134]!	; 0x46e
 110:	00632e78 	rsbeq	r2, r3, r8, ror lr
 114:	67000000 	strvs	r0, [r0, -r0]
 118:	2e6f6970 	mcrcs	9, 3, r6, cr15, cr0, {3}
 11c:	00010068 	andeq	r0, r1, r8, rrx
 120:	69707200 	ldmdbvs	r0!, {r9, ip, sp, lr}^
 124:	6d72612d 	ldfvse	f6, [r2, #-180]!	; 0xffffff4c
 128:	656d6974 	strbvs	r6, [sp, #-2420]!	; 0x974
 12c:	00682e72 	rsbeq	r2, r8, r2, ror lr
 130:	72000002 	andvc	r0, r0, #2
 134:	682e6970 	stmdavs	lr!, {r4, r5, r6, r8, fp, sp, lr}
 138:	00000300 	andeq	r0, r0, r0, lsl #6
 13c:	2d697072 	stclcs	0, cr7, [r9, #-456]!	; 0xfffffe38
 140:	65746e69 	ldrbvs	r6, [r4, #-3689]!	; 0xe69
 144:	70757272 	rsbsvc	r7, r5, r2, ror r2
 148:	682e7374 	stmdavs	lr!, {r2, r4, r5, r6, r8, r9, ip, sp, lr}
 14c:	00000200 	andeq	r0, r0, r0, lsl #4
 150:	02050000 	andeq	r0, r5, #0
 154:	00008010 	andeq	r8, r0, r0, lsl r0
 158:	4b012503 	blmi	4956c <__bss_end__+0x3f674>
 15c:	0402004b 	streq	r0, [r2], #-75	; 0x4b
 160:	06820601 	streq	r0, [r2], r1, lsl #12
 164:	4c674bbc 	stclmi	11, cr4, [r7], #-752	; 0xfffffd10
 168:	01040200 	mrseq	r0, R12_usr
 16c:	bd068206 	sfmlt	f0, 1, [r6, #-24]	; 0xffffffe8
 170:	4b5b0867 	blmi	16c2314 <__bss_end__+0x16b841c>
 174:	0402004b 	streq	r0, [r2], #-75	; 0x4b
 178:	06820601 	streq	r0, [r2], r1, lsl #12
 17c:	4c674bbc 	stclmi	11, cr4, [r7], #-752	; 0xfffffd10
 180:	01040200 	mrseq	r0, R12_usr
 184:	bd068206 	sfmlt	f0, 1, [r6, #-24]	; 0xffffffe8
 188:	4b5d0867 	blmi	174232c <__bss_end__+0x1738434>
 18c:	0402004e 	streq	r0, [r2], #-78	; 0x4e
 190:	06820601 	streq	r0, [r2], r1, lsl #12
 194:	040200bb 	streq	r0, [r2], #-187	; 0xbb
 198:	06820601 	streq	r0, [r2], r1, lsl #12
 19c:	67672fbf 			; <UNDEFINED> instruction: 0x67672fbf
 1a0:	0200674b 	andeq	r6, r0, #19660800	; 0x12c0000
 1a4:	82060104 	andhi	r0, r6, #4, 2
 1a8:	2f67bd06 	svccs	0x0067bd06
 1ac:	674b6767 	strbvs	r6, [fp, -r7, ror #14]
 1b0:	01040200 	mrseq	r0, R12_usr
 1b4:	03068206 	movweq	r8, #25094	; 0x6206
 1b8:	2f6aba6e 	svccs	0x006aba6e
 1bc:	00303231 	eorseq	r3, r0, r1, lsr r2
 1c0:	03010402 	movweq	r0, #5122	; 0x1402
 1c4:	15032e72 	strne	r2, [r3, #-3698]	; 0xe72
 1c8:	0200bb4a 	andeq	fp, r0, #75776	; 0x12800
 1cc:	66060104 	strvs	r0, [r6], -r4, lsl #2
 1d0:	0200bb06 	andeq	fp, r0, #6144	; 0x1800
 1d4:	82060104 	andhi	r0, r6, #4, 2
 1d8:	7fad0306 	svcvc	0x00ad0306
 1dc:	2f012c02 	svccs	0x00012c02
 1e0:	04020089 	streq	r0, [r2], #-137	; 0x89
 1e4:	06820601 	streq	r0, [r2], r1, lsl #12
 1e8:	679f8383 	ldrvs	r8, [pc, r3, lsl #7]
 1ec:	00c40388 	sbceq	r0, r4, r8, lsl #7
 1f0:	30302f82 	eorscc	r2, r0, r2, lsl #31
 1f4:	4c4b4b4c 	mcrrmi	11, 4, r4, fp, cr12
 1f8:	4c4b6733 	mcrrmi	7, 3, r6, fp, cr3
 1fc:	0006024b 	andeq	r0, r6, fp, asr #4
 200:	01020101 	tsteq	r2, r1, lsl #2
 204:	00020000 	andeq	r0, r2, r0
 208:	000000eb 	andeq	r0, r0, fp, ror #1
 20c:	0efb0102 	cdpeq	1, 15, cr0, cr11, cr2, {0}
 210:	0101000d 	tsteq	r1, sp
 214:	00000101 	andeq	r0, r0, r1, lsl #2
 218:	00000100 	andeq	r0, r0, r0, lsl #2
 21c:	62696c01 	rsbvs	r6, r9, #256	; 0x100
 220:	752f0063 	strvc	r0, [pc, #-99]!	; 1c5 <_start-0x7e3b>
 224:	6c2f7273 	sfmvs	f7, 4, [pc], #-460	; 60 <_start-0x7fa0>
 228:	6c61636f 	stclvs	3, cr6, [r1], #-444	; 0xfffffe44
 22c:	6c65432f 	stclvs	3, cr4, [r5], #-188	; 0xffffff44
 230:	2f72616c 	svccs	0x0072616c
 234:	2d6d7261 	sfmcs	f7, 2, [sp, #-388]!	; 0xfffffe7c
 238:	656e6f6e 	strbvs	r6, [lr, #-3950]!	; 0xf6e
 23c:	6261652d 	rsbvs	r6, r1, #188743680	; 0xb400000
 240:	2e342f69 	cdpcs	15, 3, cr2, cr4, cr9, {3}
 244:	2d332e38 	ldccs	14, cr2, [r3, #-224]!	; 0xffffff20
 248:	37317363 	ldrcc	r7, [r1, -r3, ror #6]!
 24c:	6c2f6530 	cfstr32vs	mvfx6, [pc], #-192	; 194 <_start-0x7e6c>
 250:	672f6269 	strvs	r6, [pc, -r9, ror #4]!
 254:	612f6363 	teqvs	pc, r3, ror #6
 258:	6e2d6d72 	mcrvs	13, 1, r6, cr13, cr2, {3}
 25c:	2d656e6f 	stclcs	14, cr6, [r5, #-444]!	; 0xfffffe44
 260:	69626165 	stmdbvs	r2!, {r0, r2, r5, r6, r8, sp, lr}^
 264:	382e342f 	stmdacc	lr!, {r0, r1, r2, r3, r5, sl, ip, sp}
 268:	692f332e 	stmdbvs	pc!, {r1, r2, r3, r5, r8, r9, ip, sp}	; <UNPREDICTABLE>
 26c:	756c636e 	strbvc	r6, [ip, #-878]!	; 0x36e
 270:	2f006564 	svccs	0x00006564
 274:	72657355 	rsbvc	r7, r5, #1409286145	; 0x54000001
 278:	72622f73 	rsbvc	r2, r2, #460	; 0x1cc
 27c:	6a6e6169 	bvs	1b98828 <__bss_end__+0x1b8e930>
 280:	442f6e75 	strtmi	r6, [pc], #-3701	; 288 <_start-0x7d78>
 284:	746b7365 	strbtvc	r7, [fp], #-869	; 0x365
 288:	732f706f 	teqvc	pc, #111	; 0x6f
 28c:	6f6f6863 	svcvs	0x006f6863
 290:	69572f6c 	ldmdbvs	r7, {r2, r3, r5, r6, r8, r9, sl, fp, sp}^
 294:	7265746e 	rsbvc	r7, r5, #1845493760	; 0x6e000000
 298:	30323931 	eorscc	r3, r2, r1, lsr r9
 29c:	3153432f 	cmpcc	r3, pc, lsr #6
 2a0:	2f453034 	svccs	0x00453034
 2a4:	34317363 	ldrtcc	r7, [r1], #-867	; 0x363
 2a8:	322d6530 	eorcc	r6, sp, #48, 10	; 0xc000000
 2ac:	6e697730 	mcrvs	7, 3, r7, cr9, cr0, {1}
 2b0:	62696c2f 	rsbvs	r6, r9, #12032	; 0x2f00
 2b4:	00006970 	andeq	r6, r0, r0, ror r9
 2b8:	6e697270 	mcrvs	2, 3, r7, cr9, cr0, {3}
 2bc:	632e6b74 	teqvs	lr, #116, 22	; 0x1d000
 2c0:	00000100 	andeq	r0, r0, r0, lsl #2
 2c4:	61647473 	smcvs	18243	; 0x4743
 2c8:	682e6772 	stmdavs	lr!, {r1, r4, r5, r6, r8, r9, sl, sp, lr}
 2cc:	00000200 	andeq	r0, r0, r0, lsl #4
 2d0:	6975623c 	ldmdbvs	r5!, {r2, r3, r4, r5, r9, sp, lr}^
 2d4:	692d746c 	pushvs	{r2, r3, r5, r6, sl, ip, sp, lr}
 2d8:	00003e6e 	andeq	r3, r0, lr, ror #28
 2dc:	70720000 	rsbsvc	r0, r2, r0
 2e0:	00682e69 	rsbeq	r2, r8, r9, ror #28
 2e4:	76000003 	strvc	r0, [r0], -r3
 2e8:	72702d61 	rsbsvc	r2, r0, #6208	; 0x1840
 2ec:	6b746e69 	blvs	1d1bc98 <__bss_end__+0x1d11da0>
 2f0:	0100682e 	tsteq	r0, lr, lsr #16
 2f4:	00000000 	andeq	r0, r0, r0
 2f8:	84440205 	strbhi	r0, [r4], #-517	; 0x205
 2fc:	6b170000 	blvs	5c0304 <__bss_end__+0x5b640c>
 300:	0289bf4b 	addeq	fp, r9, #300	; 0x12c
 304:	0101000e 	tsteq	r1, lr
 308:	00000096 	muleq	r0, r6, r0
 30c:	006f0002 	rsbeq	r0, pc, r2
 310:	01020000 	mrseq	r0, (UNDEF: 2)
 314:	000d0efb 	strdeq	r0, [sp], -fp
 318:	01010101 	tsteq	r1, r1, lsl #2
 31c:	01000000 	mrseq	r0, (UNDEF: 0)
 320:	6c010000 	stcvs	0, cr0, [r1], {-0}
 324:	00636269 	rsbeq	r6, r3, r9, ror #4
 328:	6573552f 	ldrbvs	r5, [r3, #-1327]!	; 0x52f
 32c:	622f7372 	eorvs	r7, pc, #-939524095	; 0xc8000001
 330:	6e616972 	mcrvs	9, 3, r6, cr1, cr2, {3}
 334:	2f6e756a 	svccs	0x006e756a
 338:	6b736544 	blvs	1cd9850 <__bss_end__+0x1ccf958>
 33c:	2f706f74 	svccs	0x00706f74
 340:	6f686373 	svcvs	0x00686373
 344:	572f6c6f 	strpl	r6, [pc, -pc, ror #24]!
 348:	65746e69 	ldrbvs	r6, [r4, #-3689]!	; 0xe69
 34c:	32393172 	eorscc	r3, r9, #-2147483620	; 0x8000001c
 350:	53432f30 	movtpl	r2, #16176	; 0x3f30
 354:	45303431 	ldrmi	r3, [r0, #-1073]!	; 0x431
 358:	3173632f 	cmncc	r3, pc, lsr #6
 35c:	2d653034 	stclcs	0, cr3, [r5, #-208]!	; 0xffffff30
 360:	69773032 	ldmdbvs	r7!, {r1, r4, r5, ip, sp}^
 364:	696c2f6e 	stmdbvs	ip!, {r1, r2, r3, r5, r6, r8, r9, sl, fp, sp}^
 368:	00697062 	rsbeq	r7, r9, r2, rrx
 36c:	74757000 	ldrbtvc	r7, [r5], #-0
 370:	00632e6b 	rsbeq	r2, r3, fp, ror #28
 374:	72000001 	andvc	r0, r0, #1
 378:	682e6970 	stmdavs	lr!, {r4, r5, r6, r8, fp, sp, lr}
 37c:	00000200 	andeq	r0, r0, r0, lsl #4
 380:	02050000 	andeq	r0, r5, #0
 384:	0000849c 	muleq	r0, ip, r4
 388:	002d4c15 	eoreq	r4, sp, r5, lsl ip
 38c:	2f020402 	svccs	0x00020402
 390:	02040200 	andeq	r0, r4, #0, 4
 394:	04020049 	streq	r0, [r2], #-73	; 0x49
 398:	062e0601 	strteq	r0, [lr], -r1, lsl #12
 39c:	0006026b 	andeq	r0, r6, fp, ror #4
 3a0:	01dc0101 	bicseq	r0, ip, r1, lsl #2
 3a4:	00020000 	andeq	r0, r2, r0
 3a8:	000000df 	ldrdeq	r0, [r0], -pc	; <UNPREDICTABLE>
 3ac:	0efb0102 	cdpeq	1, 15, cr0, cr11, cr2, {0}
 3b0:	0101000d 	tsteq	r1, sp
 3b4:	00000101 	andeq	r0, r0, r1, lsl #2
 3b8:	00000100 	andeq	r0, r0, r0, lsl #2
 3bc:	62696c01 	rsbvs	r6, r9, #256	; 0x100
 3c0:	752f0063 	strvc	r0, [pc, #-99]!	; 365 <_start-0x7c9b>
 3c4:	6c2f7273 	sfmvs	f7, 4, [pc], #-460	; 200 <_start-0x7e00>
 3c8:	6c61636f 	stclvs	3, cr6, [r1], #-444	; 0xfffffe44
 3cc:	6c65432f 	stclvs	3, cr4, [r5], #-188	; 0xffffff44
 3d0:	2f72616c 	svccs	0x0072616c
 3d4:	2d6d7261 	sfmcs	f7, 2, [sp, #-388]!	; 0xfffffe7c
 3d8:	656e6f6e 	strbvs	r6, [lr, #-3950]!	; 0xf6e
 3dc:	6261652d 	rsbvs	r6, r1, #188743680	; 0xb400000
 3e0:	2e342f69 	cdpcs	15, 3, cr2, cr4, cr9, {3}
 3e4:	2d332e38 	ldccs	14, cr2, [r3, #-224]!	; 0xffffff20
 3e8:	37317363 	ldrcc	r7, [r1, -r3, ror #6]!
 3ec:	6c2f6530 	cfstr32vs	mvfx6, [pc], #-192	; 334 <_start-0x7ccc>
 3f0:	672f6269 	strvs	r6, [pc, -r9, ror #4]!
 3f4:	612f6363 	teqvs	pc, r3, ror #6
 3f8:	6e2d6d72 	mcrvs	13, 1, r6, cr13, cr2, {3}
 3fc:	2d656e6f 	stclcs	14, cr6, [r5, #-444]!	; 0xfffffe44
 400:	69626165 	stmdbvs	r2!, {r0, r2, r5, r6, r8, sp, lr}^
 404:	382e342f 	stmdacc	lr!, {r0, r1, r2, r3, r5, sl, ip, sp}
 408:	692f332e 	stmdbvs	pc!, {r1, r2, r3, r5, r8, r9, ip, sp}	; <UNPREDICTABLE>
 40c:	756c636e 	strbvc	r6, [ip, #-878]!	; 0x36e
 410:	2f006564 	svccs	0x00006564
 414:	72657355 	rsbvc	r7, r5, #1409286145	; 0x54000001
 418:	72622f73 	rsbvc	r2, r2, #460	; 0x1cc
 41c:	6a6e6169 	bvs	1b989c8 <__bss_end__+0x1b8ead0>
 420:	442f6e75 	strtmi	r6, [pc], #-3701	; 428 <_start-0x7bd8>
 424:	746b7365 	strbtvc	r7, [fp], #-869	; 0x365
 428:	732f706f 	teqvc	pc, #111	; 0x6f
 42c:	6f6f6863 	svcvs	0x006f6863
 430:	69572f6c 	ldmdbvs	r7, {r2, r3, r5, r6, r8, r9, sl, fp, sp}^
 434:	7265746e 	rsbvc	r7, r5, #1845493760	; 0x6e000000
 438:	30323931 	eorscc	r3, r2, r1, lsr r9
 43c:	3153432f 	cmpcc	r3, pc, lsr #6
 440:	2f453034 	svccs	0x00453034
 444:	34317363 	ldrtcc	r7, [r1], #-867	; 0x363
 448:	322d6530 	eorcc	r6, sp, #48, 10	; 0xc000000
 44c:	6e697730 	mcrvs	7, 3, r7, cr9, cr0, {1}
 450:	62696c2f 	rsbvs	r6, r9, #12032	; 0x2f00
 454:	00006970 	andeq	r6, r0, r0, ror r9
 458:	702d6176 	eorvc	r6, sp, r6, ror r1
 45c:	746e6972 	strbtvc	r6, [lr], #-2418	; 0x972
 460:	00632e6b 	rsbeq	r2, r3, fp, ror #28
 464:	73000001 	movwvc	r0, #1
 468:	72616474 	rsbvc	r6, r1, #116, 8	; 0x74000000
 46c:	00682e67 	rsbeq	r2, r8, r7, ror #28
 470:	72000002 	andvc	r0, r0, #2
 474:	682e6970 	stmdavs	lr!, {r4, r5, r6, r8, fp, sp, lr}
 478:	00000300 	andeq	r0, r0, r0, lsl #6
 47c:	6975623c 	ldmdbvs	r5!, {r2, r3, r4, r5, r9, sp, lr}^
 480:	692d746c 	pushvs	{r2, r3, r5, r6, sl, ip, sp, lr}
 484:	00003e6e 	andeq	r3, r0, lr, ror #28
 488:	00000000 	andeq	r0, r0, r0
 48c:	84d00205 	ldrbhi	r0, [r0], #517	; 0x205
 490:	26030000 	strcs	r0, [r3], -r0
 494:	13a50101 			; <UNDEFINED> instruction: 0x13a50101
 498:	02002d31 	andeq	r2, r0, #3136	; 0xc40
 49c:	002f0204 	eoreq	r0, pc, r4, lsl #4
 4a0:	2d020402 	cfstrscs	mvf0, [r2, #-8]
 4a4:	02040200 	andeq	r0, r4, #0, 4
 4a8:	0402002f 	streq	r0, [r2], #-47	; 0x2f
 4ac:	4c4c2d01 	mcrrmi	13, 0, r2, ip, cr1
 4b0:	2f4b1430 	svccs	0x004b1430
 4b4:	0402004f 	streq	r0, [r2], #-79	; 0x4f
 4b8:	02006702 	andeq	r6, r0, #524288	; 0x80000
 4bc:	4c650104 	stfmie	f0, [r5], #-16
 4c0:	2fa0304d 	svccs	0x00a0304d
 4c4:	26023031 			; <UNDEFINED> instruction: 0x26023031
 4c8:	2c2d8416 	cfstrscs	mvf8, [sp], #-88	; 0xffffffa8
 4cc:	01040200 	mrseq	r0, R12_usr
 4d0:	04020030 	streq	r0, [r2], #-48	; 0x30
 4d4:	66063301 	strvs	r3, [r6], -r1, lsl #6
 4d8:	01040200 	mrseq	r0, R12_usr
 4dc:	0402002e 	streq	r0, [r2], #-46	; 0x2e
 4e0:	21080601 	tstcs	r8, r1, lsl #12
 4e4:	73032f67 	movwvc	r2, #16231	; 0x3f67
 4e8:	2e130382 	cdpcs	3, 1, cr0, cr3, cr2, {4}
 4ec:	01040200 	mrseq	r0, R12_usr
 4f0:	02002e06 	andeq	r2, r0, #6, 28	; 0x60
 4f4:	9f060104 	svcls	0x00060104
 4f8:	67034b6a 	strvs	r4, [r3, -sl, ror #22]
 4fc:	2e21032e 	cdpcs	3, 2, cr0, cr1, cr14, {1}
 500:	01040200 	mrseq	r0, R12_usr
 504:	02002e06 	andeq	r2, r0, #6, 28	; 0x60
 508:	9f060104 	svcls	0x00060104
 50c:	01040200 	mrseq	r0, R12_usr
 510:	03f3bd6a 	mvnseq	fp, #6784	; 0x1a80
 514:	20087fa6 	andcs	r7, r8, r6, lsr #31
 518:	0402002f 	streq	r0, [r2], #-47	; 0x2f
 51c:	064a0601 	strbeq	r0, [sl], -r1, lsl #12
 520:	032f4bbb 	teqeq	pc, #191488	; 0x2ec00
 524:	83f200da 	mvnshi	r0, #218	; 0xda
 528:	2f31484c 	svccs	0x0031484c
 52c:	2f4b842f 	svccs	0x004b842f
 530:	30314d2d 	eorscc	r4, r1, sp, lsr #26
 534:	0200832f 	andeq	r8, r0, #-1140850688	; 0xbc000000
 538:	be2c0104 	suflte	f0, f4, f4
 53c:	01040200 	mrseq	r0, R12_usr
 540:	bc064a06 	stclt	10, cr4, [r6], {6}
 544:	03163602 	tsteq	r6, #2097152	; 0x200000
 548:	2108ba0e 	tstcs	r8, lr, lsl #20
 54c:	31210830 	teqcc	r1, r0, lsr r8
 550:	08302108 	ldmdaeq	r0!, {r3, r8, sp}
 554:	304b3021 	subcc	r3, fp, r1, lsr #32
 558:	d9302108 	ldmdble	r0!, {r3, r8, sp}
 55c:	02002f31 	andeq	r2, r0, #49, 30	; 0xc4
 560:	00650104 	rsbeq	r0, r5, r4, lsl #2
 564:	06020402 	streq	r0, [r2], -r2, lsl #8
 568:	0402004a 	streq	r0, [r2], #-74	; 0x4a
 56c:	42030601 	andmi	r0, r3, #1048576	; 0x100000
 570:	04020066 	streq	r0, [r2], #-102	; 0x66
 574:	06660602 	strbteq	r0, [r6], -r2, lsl #12
 578:	4a00c203 	bmi	30d8c <__bss_end__+0x26e94>
 57c:	00100268 	andseq	r0, r0, r8, ror #4
 580:	00930101 	addseq	r0, r3, r1, lsl #2
 584:	00020000 	andeq	r0, r2, r0
 588:	0000007d 	andeq	r0, r0, sp, ror r0
 58c:	0efb0102 	cdpeq	1, 15, cr0, cr11, cr2, {0}
 590:	0101000d 	tsteq	r1, sp
 594:	00000101 	andeq	r0, r0, r1, lsl #2
 598:	00000100 	andeq	r0, r0, r0, lsl #2
 59c:	31736301 	cmncc	r3, r1, lsl #6
 5a0:	2d653034 	stclcs	0, cr3, [r5, #-208]!	; 0xffffff30
 5a4:	00637273 	rsbeq	r7, r3, r3, ror r2
 5a8:	6573552f 	ldrbvs	r5, [r3, #-1327]!	; 0x52f
 5ac:	622f7372 	eorvs	r7, pc, #-939524095	; 0xc8000001
 5b0:	6e616972 	mcrvs	9, 3, r6, cr1, cr2, {3}
 5b4:	2f6e756a 	svccs	0x006e756a
 5b8:	6b736544 	blvs	1cd9ad0 <__bss_end__+0x1ccfbd8>
 5bc:	2f706f74 	svccs	0x00706f74
 5c0:	6f686373 	svcvs	0x00686373
 5c4:	572f6c6f 	strpl	r6, [pc, -pc, ror #24]!
 5c8:	65746e69 	ldrbvs	r6, [r4, #-3689]!	; 0xe69
 5cc:	32393172 	eorscc	r3, r9, #-2147483620	; 0x8000001c
 5d0:	53432f30 	movtpl	r2, #16176	; 0x3f30
 5d4:	45303431 	ldrmi	r3, [r0, #-1073]!	; 0x431
 5d8:	3173632f 	cmncc	r3, pc, lsr #6
 5dc:	2d653034 	stclcs	0, cr3, [r5, #-208]!	; 0xffffff30
 5e0:	69773032 	ldmdbvs	r7!, {r1, r4, r5, ip, sp}^
 5e4:	696c2f6e 	stmdbvs	ip!, {r1, r2, r3, r5, r6, r8, r9, sl, fp, sp}^
 5e8:	00697062 	rsbeq	r7, r9, r2, rrx
 5ec:	656c6300 	strbvs	r6, [ip, #-768]!	; 0x300
 5f0:	722d6e61 	eorvc	r6, sp, #1552	; 0x610
 5f4:	6f6f6265 	svcvs	0x006f6265
 5f8:	00632e74 	rsbeq	r2, r3, r4, ror lr
 5fc:	72000001 	andvc	r0, r0, #1
 600:	682e6970 	stmdavs	lr!, {r4, r5, r6, r8, fp, sp, lr}
 604:	00000200 	andeq	r0, r0, r0, lsl #4
 608:	02050000 	andeq	r0, r5, #0
 60c:	000089c0 	andeq	r8, r0, r0, asr #19
 610:	4b832f15 	blmi	fe0cc26c <__bss_end__+0xfe0c2374>
 614:	01000602 	tsteq	r0, r2, lsl #12
 618:	00009601 	andeq	r9, r0, r1, lsl #12
 61c:	77000200 	strvc	r0, [r0, -r0, lsl #4]
 620:	02000000 	andeq	r0, r0, #0
 624:	0d0efb01 	vstreq	d15, [lr, #-4]
 628:	01010100 	mrseq	r0, (UNDEF: 17)
 62c:	00000001 	andeq	r0, r0, r1
 630:	01000001 	tsteq	r0, r1
 634:	34317363 	ldrtcc	r7, [r1], #-867	; 0x363
 638:	732d6530 	teqvc	sp, #48, 10	; 0xc000000
 63c:	2f006372 	svccs	0x00006372
 640:	72657355 	rsbvc	r7, r5, #1409286145	; 0x54000001
 644:	72622f73 	rsbvc	r2, r2, #460	; 0x1cc
 648:	6a6e6169 	bvs	1b98bf4 <__bss_end__+0x1b8ecfc>
 64c:	442f6e75 	strtmi	r6, [pc], #-3701	; 654 <_start-0x79ac>
 650:	746b7365 	strbtvc	r7, [fp], #-869	; 0x365
 654:	732f706f 	teqvc	pc, #111	; 0x6f
 658:	6f6f6863 	svcvs	0x006f6863
 65c:	69572f6c 	ldmdbvs	r7, {r2, r3, r5, r6, r8, r9, sl, fp, sp}^
 660:	7265746e 	rsbvc	r7, r5, #1845493760	; 0x6e000000
 664:	30323931 	eorscc	r3, r2, r1, lsr r9
 668:	3153432f 	cmpcc	r3, pc, lsr #6
 66c:	2f453034 	svccs	0x00453034
 670:	34317363 	ldrtcc	r7, [r1], #-867	; 0x363
 674:	322d6530 	eorcc	r6, sp, #48, 10	; 0xc000000
 678:	6e697730 	mcrvs	7, 3, r7, cr9, cr0, {1}
 67c:	62696c2f 	rsbvs	r6, r9, #12032	; 0x2f00
 680:	00006970 	andeq	r6, r0, r0, ror r9
 684:	61747363 	cmnvs	r4, r3, ror #6
 688:	632e7472 	teqvs	lr, #1912602624	; 0x72000000
 68c:	00000100 	andeq	r0, r0, r0, lsl #2
 690:	2e697072 	mcrcs	0, 3, r7, cr9, cr2, {3}
 694:	00020068 	andeq	r0, r2, r8, rrx
 698:	05000000 	streq	r0, [r0, #-0]
 69c:	0089e802 	addeq	lr, r9, r2, lsl #16
 6a0:	31321400 	teqcc	r2, r0, lsl #8
 6a4:	002f2d2f 	eoreq	r2, pc, pc, lsr #26
 6a8:	49010402 	stmdbmi	r1, {r1, sl}
 6ac:	06022f4d 	streq	r2, [r2], -sp, asr #30
 6b0:	99010100 	stmdbls	r1, {r8}
 6b4:	02000000 	andeq	r0, r0, #0
 6b8:	00007700 	andeq	r7, r0, r0, lsl #14
 6bc:	fb010200 	blx	40ec6 <__bss_end__+0x36fce>
 6c0:	01000d0e 	tsteq	r0, lr, lsl #26
 6c4:	00010101 	andeq	r0, r1, r1, lsl #2
 6c8:	00010000 	andeq	r0, r1, r0
 6cc:	73630100 	cmnvc	r3, #0, 2
 6d0:	65303431 	ldrvs	r3, [r0, #-1073]!	; 0x431
 6d4:	6372732d 	cmnvs	r2, #-1275068416	; 0xb4000000
 6d8:	73552f00 	cmpvc	r5, #0, 30
 6dc:	2f737265 	svccs	0x00737265
 6e0:	61697262 	cmnvs	r9, r2, ror #4
 6e4:	6e756a6e 	vsubvs.f32	s13, s10, s29
 6e8:	7365442f 	cmnvc	r5, #788529152	; 0x2f000000
 6ec:	706f746b 	rsbvc	r7, pc, fp, ror #8
 6f0:	6863732f 	stmdavs	r3!, {r0, r1, r2, r3, r5, r8, r9, ip, sp, lr}^
 6f4:	2f6c6f6f 	svccs	0x006c6f6f
 6f8:	746e6957 	strbtvc	r6, [lr], #-2391	; 0x957
 6fc:	39317265 	ldmdbcc	r1!, {r0, r2, r5, r6, r9, ip, sp, lr}
 700:	432f3032 	teqmi	pc, #50	; 0x32
 704:	30343153 	eorscc	r3, r4, r3, asr r1
 708:	73632f45 	cmnvc	r3, #276	; 0x114
 70c:	65303431 	ldrvs	r3, [r0, #-1073]!	; 0x431
 710:	7730322d 	ldrvc	r3, [r0, -sp, lsr #4]!
 714:	6c2f6e69 	stcvs	14, cr6, [pc], #-420	; 578 <_start-0x7a88>
 718:	69706269 	ldmdbvs	r0!, {r0, r3, r5, r6, r9, sp, lr}^
 71c:	65720000 	ldrbvs	r0, [r2, #-0]!
 720:	746f6f62 	strbtvc	r6, [pc], #-3938	; 728 <_start-0x78d8>
 724:	0100632e 	tsteq	r0, lr, lsr #6
 728:	70720000 	rsbsvc	r0, r2, r0
 72c:	00682e69 	rsbeq	r2, r8, r9, ror #28
 730:	00000002 	andeq	r0, r0, r2
 734:	1c020500 	cfstr32ne	mvfx0, [r2], {-0}
 738:	0300008a 	movweq	r0, #138	; 0x8a
 73c:	3114010d 	tstcc	r4, sp, lsl #2
 740:	2f15852f 	svccs	0x0015852f
 744:	672f4d4b 	strvs	r4, [pc, -fp, asr #26]!
 748:	02675235 	rsbeq	r5, r7, #1342177283	; 0x50000003
 74c:	01010010 	tsteq	r1, r0, lsl r0
 750:	000000a3 	andeq	r0, r0, r3, lsr #1
 754:	00760002 	rsbseq	r0, r6, r2
 758:	01020000 	mrseq	r0, (UNDEF: 2)
 75c:	000d0efb 	strdeq	r0, [sp], -fp
 760:	01010101 	tsteq	r1, r1, lsl #2
 764:	01000000 	mrseq	r0, (UNDEF: 0)
 768:	63010000 	movwvs	r0, #4096	; 0x1000
 76c:	30343173 	eorscc	r3, r4, r3, ror r1
 770:	72732d65 	rsbsvc	r2, r3, #6464	; 0x1940
 774:	552f0063 	strpl	r0, [pc, #-99]!	; 719 <_start-0x78e7>
 778:	73726573 	cmnvc	r2, #482344960	; 0x1cc00000
 77c:	6972622f 	ldmdbvs	r2!, {r0, r1, r2, r3, r5, r9, sp, lr}^
 780:	756a6e61 	strbvc	r6, [sl, #-3681]!	; 0xe61
 784:	65442f6e 	strbvs	r2, [r4, #-3950]	; 0xf6e
 788:	6f746b73 	svcvs	0x00746b73
 78c:	63732f70 	cmnvs	r3, #112, 30	; 0x1c0
 790:	6c6f6f68 	stclvs	15, cr6, [pc], #-416	; 5f8 <_start-0x7a08>
 794:	6e69572f 	cdpvs	7, 6, cr5, cr9, cr15, {1}
 798:	31726574 	cmncc	r2, r4, ror r5
 79c:	2f303239 	svccs	0x00303239
 7a0:	34315343 	ldrtcc	r5, [r1], #-835	; 0x343
 7a4:	632f4530 	teqvs	pc, #48, 10	; 0xc000000
 7a8:	30343173 	eorscc	r3, r4, r3, ror r1
 7ac:	30322d65 	eorscc	r2, r2, r5, ror #26
 7b0:	2f6e6977 	svccs	0x006e6977
 7b4:	7062696c 	rsbvc	r6, r2, ip, ror #18
 7b8:	74000069 	strvc	r0, [r0], #-105	; 0x69
 7bc:	72656d69 	rsbvc	r6, r5, #6720	; 0x1a40
 7c0:	0100632e 	tsteq	r0, lr, lsr #6
 7c4:	70720000 	rsbsvc	r0, r2, r0
 7c8:	00682e69 	rsbeq	r2, r8, r9, ror #28
 7cc:	00000002 	andeq	r0, r0, r2
 7d0:	90020500 	andls	r0, r2, r0, lsl #10
 7d4:	1600008a 	strne	r0, [r0], -sl, lsl #1
 7d8:	002d2f13 	eoreq	r2, sp, r3, lsl pc
 7dc:	06010402 	streq	r0, [r1], -r2, lsl #8
 7e0:	3168062e 	cmncc	r8, lr, lsr #12
 7e4:	324d4b2f 	subcc	r4, sp, #48128	; 0xbc00
 7e8:	4c4b3031 	mcrrmi	0, 3, r3, fp, cr1
 7ec:	2f2f6a2f 	svccs	0x002f6a2f
 7f0:	08022f84 	stmdaeq	r2, {r2, r7, r8, r9, sl, fp, sp}
 7f4:	f9010100 			; <UNDEFINED> instruction: 0xf9010100
 7f8:	02000000 	andeq	r0, r0, #0
 7fc:	00003b00 	andeq	r3, r0, r0, lsl #22
 800:	fb010200 	blx	4100a <__bss_end__+0x37112>
 804:	01000d0e 	tsteq	r0, lr, lsl #26
 808:	00010101 	andeq	r0, r1, r1, lsl #2
 80c:	00010000 	andeq	r0, r1, r0
 810:	73630100 	cmnvc	r3, #0, 2
 814:	65303431 	ldrvs	r3, [r0, #-1073]!	; 0x431
 818:	6372732d 	cmnvs	r2, #-1275068416	; 0xb4000000
 81c:	70670000 	rsbvc	r0, r7, r0
 820:	632e6f69 	teqvs	lr, #420	; 0x1a4
 824:	00000000 	andeq	r0, r0, r0
 828:	6f697067 	svcvs	0x00697067
 82c:	0100682e 	tsteq	r0, lr, lsr #16
 830:	70720000 	rsbsvc	r0, r2, r0
 834:	00682e69 	rsbeq	r2, r8, r9, ror #28
 838:	00000000 	andeq	r0, r0, r0
 83c:	18020500 	stmdane	r2, {r8, sl}
 840:	0300008b 	movweq	r0, #139	; 0x8b
 844:	504e013e 	subpl	r0, lr, lr, lsr r1
 848:	67210869 	strvs	r0, [r1, -r9, ror #16]!
 84c:	67676767 	strbvs	r6, [r7, -r7, ror #14]!
 850:	084b3267 	stmdaeq	fp, {r0, r1, r2, r5, r6, r9, ip, sp}^
 854:	5131dc22 	teqpl	r1, r2, lsr #24
 858:	30504e13 	subscc	r4, r0, r3, lsl lr
 85c:	135031be 	cmpne	r0, #-2147483601	; 0x8000002f
 860:	c0304f4d 	eorsgt	r4, r0, sp, asr #30
 864:	0869504c 	stmdaeq	r9!, {r2, r3, r6, ip, lr}^
 868:	67676721 	strbvs	r6, [r7, -r1, lsr #14]!
 86c:	32676767 	rsbcc	r6, r7, #27000832	; 0x19c0000
 870:	a421084b 	strtge	r0, [r1], #-2123	; 0x84b
 874:	842f504c 	strthi	r5, [pc], #-76	; 87c <_start-0x7784>
 878:	82750369 	rsbshi	r0, r5, #-1543503871	; 0xa4000001
 87c:	4d2e0c03 	stcmi	12, cr0, [lr, #-12]!
 880:	98034e30 	stmdals	r3, {r4, r5, r9, sl, fp, lr}
 884:	13514a7f 	cmpne	r1, #520192	; 0x7f000
 888:	a530504e 	ldrge	r5, [r0, #-78]!	; 0x4e
 88c:	4f4d1350 	svcmi	0x004d1350
 890:	00c20330 	sbceq	r0, r2, r0, lsr r3
 894:	696b6aba 	stmdbvs	fp!, {r1, r3, r4, r5, r7, r9, fp, sp, lr}^
 898:	67672108 	strbvs	r2, [r7, -r8, lsl #2]!
 89c:	67676767 	strbvs	r6, [r7, -r7, ror #14]!
 8a0:	22084b32 	andcs	r4, r8, #51200	; 0xc800
 8a4:	31ba1a03 			; <UNDEFINED> instruction: 0x31ba1a03
 8a8:	522f4c9f 	eorpl	r4, pc, #40704	; 0x9f00
 8ac:	4b2f4e4d 	blmi	bd41e8 <__bss_end__+0xbca2f0>
 8b0:	67684b67 	strbvs	r4, [r8, -r7, ror #22]!
 8b4:	672f4c67 	strvs	r4, [pc, -r7, ror #24]!
 8b8:	4c6e4b2f 	stclmi	11, cr4, [lr], #-188	; 0xffffff44
 8bc:	674b2f4e 	strbvs	r2, [fp, -lr, asr #30]
 8c0:	6767684b 	strbvs	r6, [r7, -fp, asr #16]!
 8c4:	2f672f4c 	svccs	0x00672f4c
 8c8:	4e4b6d4b 	cdpmi	13, 4, cr6, cr11, cr11, {2}
 8cc:	00674b2f 	rsbeq	r4, r7, pc, lsr #22
 8d0:	06010402 	streq	r0, [r1], -r2, lsl #8
 8d4:	9f680666 	svcls	0x00680666
 8d8:	0402002f 	streq	r0, [r2], #-47	; 0x2f
 8dc:	064a0601 	strbeq	r0, [sl], -r1, lsl #12
 8e0:	73032f68 	movwvc	r2, #16232	; 0x3f68
 8e4:	2e0e034a 	cdpcs	3, 0, cr0, cr14, cr10, {2}
 8e8:	2f4e4c4d 	svccs	0x004e4c4d
 8ec:	02bcbc4b 	adcseq	fp, ip, #19200	; 0x4b00
 8f0:	01010006 	tsteq	r1, r6
 8f4:	000000d6 	ldrdeq	r0, [r0], -r6
 8f8:	00970002 	addseq	r0, r7, r2
 8fc:	01020000 	mrseq	r0, (UNDEF: 2)
 900:	000d0efb 	strdeq	r0, [sp], -fp
 904:	01010101 	tsteq	r1, r1, lsl #2
 908:	01000000 	mrseq	r0, (UNDEF: 0)
 90c:	63010000 	movwvs	r0, #4096	; 0x1000
 910:	30343173 	eorscc	r3, r4, r3, ror r1
 914:	6e692d65 	cdpvs	13, 6, cr2, cr9, cr5, {3}
 918:	72726574 	rsbsvc	r6, r2, #116, 10	; 0x1d000000
 91c:	00747075 	rsbseq	r7, r4, r5, ror r0
 920:	6573552f 	ldrbvs	r5, [r3, #-1327]!	; 0x52f
 924:	622f7372 	eorvs	r7, pc, #-939524095	; 0xc8000001
 928:	6e616972 	mcrvs	9, 3, r6, cr1, cr2, {3}
 92c:	2f6e756a 	svccs	0x006e756a
 930:	6b736544 	blvs	1cd9e48 <__bss_end__+0x1ccff50>
 934:	2f706f74 	svccs	0x00706f74
 938:	6f686373 	svcvs	0x00686373
 93c:	572f6c6f 	strpl	r6, [pc, -pc, ror #24]!
 940:	65746e69 	ldrbvs	r6, [r4, #-3689]!	; 0xe69
 944:	32393172 	eorscc	r3, r9, #-2147483620	; 0x8000001c
 948:	53432f30 	movtpl	r2, #16176	; 0x3f30
 94c:	45303431 	ldrmi	r3, [r0, #-1073]!	; 0x431
 950:	3173632f 	cmncc	r3, pc, lsr #6
 954:	2d653034 	stclcs	0, cr3, [r5, #-208]!	; 0xffffff30
 958:	69773032 	ldmdbvs	r7!, {r1, r4, r5, ip, sp}^
 95c:	696c2f6e 	stmdbvs	ip!, {r1, r2, r3, r5, r6, r8, r9, sl, fp, sp}^
 960:	00697062 	rsbeq	r7, r9, r2, rrx
 964:	746e6900 	strbtvc	r6, [lr], #-2304	; 0x900
 968:	75727265 	ldrbvc	r7, [r2, #-613]!	; 0x265
 96c:	2d737470 	cfldrdcs	mvd7, [r3, #-448]!	; 0xfffffe40
 970:	00632e63 	rsbeq	r2, r3, r3, ror #28
 974:	72000001 	andvc	r0, r0, #1
 978:	682e6970 	stmdavs	lr!, {r4, r5, r6, r8, fp, sp, lr}
 97c:	00000200 	andeq	r0, r0, r0, lsl #4
 980:	2d697072 	stclcs	0, cr7, [r9, #-456]!	; 0xfffffe38
 984:	65746e69 	ldrbvs	r6, [r4, #-3689]!	; 0xe69
 988:	70757272 	rsbsvc	r7, r5, r2, ror r2
 98c:	682e7374 	stmdavs	lr!, {r2, r4, r5, r6, r8, r9, ip, sp, lr}
 990:	00000100 	andeq	r0, r0, r0, lsl #2
 994:	02050000 	andeq	r0, r5, #0
 998:	000090d4 	ldrdeq	r9, [r0], -r4
 99c:	67673116 			; <UNDEFINED> instruction: 0x67673116
 9a0:	832e0e03 	teqhi	lr, #3, 28	; 0x30
 9a4:	02002d2f 	andeq	r2, r0, #3008	; 0xbc0
 9a8:	002f0204 	eoreq	r0, pc, r4, lsl #4
 9ac:	65020402 	strvs	r0, [r2, #-1026]	; 0x402
 9b0:	01040200 	mrseq	r0, R12_usr
 9b4:	4c062e06 	stcmi	14, cr2, [r6], {6}
 9b8:	94084ba2 	strls	r4, [r8], #-2978	; 0xba2
 9bc:	4b92084b 	blmi	fe482af0 <__bss_end__+0xfe478bf8>
 9c0:	084b9208 	stmdaeq	fp, {r3, r9, ip, pc}^
 9c4:	92084b92 	andls	r4, r8, #149504	; 0x24800
 9c8:	001a024b 	andseq	r0, sl, fp, asr #4
 9cc:	00770101 	rsbseq	r0, r7, r1, lsl #2
 9d0:	00020000 	andeq	r0, r2, r0
 9d4:	0000003b 	andeq	r0, r0, fp, lsr r0
 9d8:	0efb0102 	cdpeq	1, 15, cr0, cr11, cr2, {0}
 9dc:	0101000d 	tsteq	r1, sp
 9e0:	00000101 	andeq	r0, r0, r1, lsl #2
 9e4:	00000100 	andeq	r0, r0, r0, lsl #2
 9e8:	31736301 	cmncc	r3, r1, lsl #6
 9ec:	2d653034 	stclcs	0, cr3, [r5, #-208]!	; 0xffffff30
 9f0:	00637273 	rsbeq	r7, r3, r3, ror r2
 9f4:	72617500 	rsbvc	r7, r1, #0, 10
 9f8:	00632e74 	rsbeq	r2, r3, r4, ror lr
 9fc:	67000000 	strvs	r0, [r0, -r0]
 a00:	2e6f6970 	mcrcs	9, 3, r6, cr15, cr0, {3}
 a04:	00010068 	andeq	r0, r1, r8, rrx
 a08:	69707200 	ldmdbvs	r0!, {r9, ip, sp, lr}^
 a0c:	0000682e 	andeq	r6, r0, lr, lsr #16
 a10:	00000000 	andeq	r0, r0, r0
 a14:	93e00205 	mvnls	r0, #1342177280	; 0x50000000
 a18:	d6030000 	strle	r0, [r3], -r0
 a1c:	672f0100 	strvs	r0, [pc, -r0, lsl #2]!
 a20:	30665e03 	rsbcc	r5, r6, r3, lsl #28
 a24:	306d6733 	rsbcc	r6, sp, r3, lsr r7
 a28:	676730d8 			; <UNDEFINED> instruction: 0x676730d8
 a2c:	68676767 	stmdavs	r7!, {r0, r1, r2, r5, r6, r8, r9, sl, sp, lr}^
 a30:	30820a03 	addcc	r0, r2, r3, lsl #20
 a34:	2f696767 	svccs	0x00696767
 a38:	674c6a67 	strbvs	r6, [ip, -r7, ror #20]
 a3c:	302f2fc1 	eorcc	r2, pc, r1, asr #31
 a40:	3049682f 	subcc	r6, r9, pc, lsr #16
 a44:	01000202 	tsteq	r0, r2, lsl #4
 a48:	00008601 	andeq	r8, r0, r1, lsl #12
 a4c:	72000200 	andvc	r0, r0, #0, 4
 a50:	02000000 	andeq	r0, r0, #0
 a54:	0d0efb01 	vstreq	d15, [lr, #-4]
 a58:	01010100 	mrseq	r0, (UNDEF: 17)
 a5c:	00000001 	andeq	r0, r0, r1
 a60:	01000001 	tsteq	r0, r1
 a64:	6362696c 	cmnvs	r2, #108, 18	; 0x1b0000
 a68:	73552f00 	cmpvc	r5, #0, 30
 a6c:	2f737265 	svccs	0x00737265
 a70:	61697262 	cmnvs	r9, r2, ror #4
 a74:	6e756a6e 	vsubvs.f32	s13, s10, s29
 a78:	7365442f 	cmnvc	r5, #788529152	; 0x2f000000
 a7c:	706f746b 	rsbvc	r7, pc, fp, ror #8
 a80:	6863732f 	stmdavs	r3!, {r0, r1, r2, r3, r5, r8, r9, ip, sp, lr}^
 a84:	2f6c6f6f 	svccs	0x006c6f6f
 a88:	746e6957 	strbtvc	r6, [lr], #-2391	; 0x957
 a8c:	39317265 	ldmdbcc	r1!, {r0, r2, r5, r6, r9, ip, sp, lr}
 a90:	432f3032 	teqmi	pc, #50	; 0x32
 a94:	30343153 	eorscc	r3, r4, r3, asr r1
 a98:	73632f45 	cmnvc	r3, #276	; 0x114
 a9c:	65303431 	ldrvs	r3, [r0, #-1073]!	; 0x431
 aa0:	7730322d 	ldrvc	r3, [r0, -sp, lsr #4]!
 aa4:	6c2f6e69 	stcvs	14, cr6, [pc], #-420	; 908 <_start-0x76f8>
 aa8:	69706269 	ldmdbvs	r0!, {r0, r3, r5, r6, r9, sp, lr}^
 aac:	75700000 	ldrbvc	r0, [r0, #-0]!
 ab0:	61686374 	smcvs	34356	; 0x8634
 ab4:	00632e72 	rsbeq	r2, r3, r2, ror lr
 ab8:	72000001 	andvc	r0, r0, #1
 abc:	682e6970 	stmdavs	lr!, {r4, r5, r6, r8, fp, sp, lr}
 ac0:	00000200 	andeq	r0, r0, r0, lsl #4
 ac4:	02050000 	andeq	r0, r5, #0
 ac8:	00009534 	andeq	r9, r0, r4, lsr r5
 acc:	06024a14 			; <UNDEFINED> instruction: 0x06024a14
 ad0:	Address 0x0000000000000ad0 is out of bounds.


Disassembly of section .debug_str:

00000000 <.debug_str>:
   0:	74736574 	ldrbtvc	r6, [r3], #-1396	; 0x574
   4:	75665f33 	strbvc	r5, [r6, #-3891]!	; 0xf33
   8:	745f6c6c 	ldrbvc	r6, [pc], #-3180	; 10 <_start-0x7ff0>
   c:	00747365 	rsbseq	r7, r4, r5, ror #6
  10:	6f697067 	svcvs	0x00697067
  14:	6972775f 	ldmdbvs	r2!, {r0, r1, r2, r3, r4, r6, r8, r9, sl, ip, sp, lr}^
  18:	74006574 	strvc	r6, [r0], #-1396	; 0x574
  1c:	32747365 	rsbscc	r7, r4, #-1811939327	; 0x94000001
  20:	6d69735f 	stclvs	3, cr7, [r9, #-380]!	; 0xfffffe84
  24:	5f656c70 	svcpl	0x00656c70
  28:	6c6c6166 	stfvse	f6, [ip], #-408	; 0xfffffe68
  2c:	49504700 	ldmdbmi	r0, {r8, r9, sl, lr}^
  30:	4e495f4f 	cdpmi	15, 4, cr5, cr9, cr15, {2}
  34:	47003054 	smlsdmi	r0, r4, r0, r3
  38:	5f4f4950 	svcpl	0x004f4950
  3c:	31544e49 	cmpcc	r4, r9, asr #28
  40:	49504700 	ldmdbmi	r0, {r8, r9, sl, lr}^
  44:	4e495f4f 	cdpmi	15, 4, cr5, cr9, cr15, {2}
  48:	47003254 	smlsdmi	r0, r4, r2, r3
  4c:	5f4f4950 	svcpl	0x004f4950
  50:	33544e49 	cmpcc	r4, #1168	; 0x490
  54:	69707200 	ldmdbvs	r0!, {r9, ip, sp, lr}^
  58:	6d72615f 	ldfvse	f6, [r2, #-380]!	; 0xfffffe84
  5c:	6d69745f 	cfstrdvs	mvd7, [r9, #-380]!	; 0xfffffe84
  60:	745f7265 	ldrbvc	r7, [pc], #-613	; 68 <_start-0x7f98>
  64:	554e4700 	strbpl	r4, [lr, #-1792]	; 0x700
  68:	34204320 	strtcc	r4, [r0], #-800	; 0x320
  6c:	332e382e 	teqcc	lr, #3014656	; 0x2e0000
  70:	636d2d20 	cmnvs	sp, #32, 26	; 0x800
  74:	613d7570 	teqvs	sp, r0, ror r5
  78:	31316d72 	teqcc	r1, r2, ror sp
  7c:	7a6a3637 	bvc	1a8d960 <__bss_end__+0x1a83a68>
  80:	20732d66 	rsbscs	r2, r3, r6, ror #26
  84:	75746d2d 	ldrbvc	r6, [r4, #-3373]!	; 0xd2d
  88:	613d656e 	teqvs	sp, lr, ror #10
  8c:	31316d72 	teqcc	r1, r2, ror sp
  90:	7a6a3637 	bvc	1a8d974 <__bss_end__+0x1a83a7c>
  94:	20732d66 	rsbscs	r2, r3, r6, ror #26
  98:	6467672d 	strbtvs	r6, [r7], #-1837	; 0x72d
  9c:	4f2d2062 	svcmi	0x002d2062
  a0:	732d2067 	teqvc	sp, #103	; 0x67
  a4:	673d6474 			; <UNDEFINED> instruction: 0x673d6474
  a8:	3939756e 	ldmdbcc	r9!, {r1, r2, r3, r5, r6, r8, sl, ip, sp, lr}
  ac:	66662d20 	strbtvs	r2, [r6], -r0, lsr #26
  b0:	73656572 	cmnvc	r5, #478150656	; 0x1c800000
  b4:	646e6174 	strbtvs	r6, [lr], #-372	; 0x174
  b8:	00676e69 	rsbeq	r6, r7, r9, ror #28
  bc:	5f6d7261 	svcpl	0x006d7261
  c0:	656d6974 	strbvs	r6, [sp, #-2420]!	; 0x974
  c4:	614d5f72 	hvcvs	54770	; 0xd5f2
  c8:	64656b73 	strbtvs	r6, [r5], #-2931	; 0xb73
  cc:	00515249 	subseq	r5, r1, r9, asr #4
  d0:	6d746f6e 	ldclvs	15, cr6, [r4, #-440]!	; 0xfffffe48
  d4:	006e6961 	rsbeq	r6, lr, r1, ror #18
  d8:	5f6d7261 	svcpl	0x006d7261
  dc:	656d6974 	strbvs	r6, [sp, #-2420]!	; 0x974
  e0:	72465f72 	subvc	r5, r6, #456	; 0x1c8
  e4:	75526565 	ldrbvc	r6, [r2, #-1381]	; 0x565
  e8:	6e696e6e 	cdpvs	14, 6, cr6, cr9, cr14, {3}
  ec:	756f4367 	strbvc	r4, [pc, #-871]!	; fffffd8d <__bss_end__+0xffff5e95>
  f0:	7265746e 	rsbvc	r7, r5, #1845493760	; 0x6e000000
  f4:	72617500 	rsbvc	r7, r1, #0, 10
  f8:	6e695f74 	mcrvs	15, 3, r5, cr9, cr4, {3}
  fc:	61007469 	tstvs	r0, r9, ror #8
 100:	745f6d72 	ldrbvc	r6, [pc], #-3442	; 108 <_start-0x7ef8>
 104:	72656d69 	rsbvc	r6, r5, #6720	; 0x1a40
 108:	6572505f 	ldrbvs	r5, [r2, #-95]!	; 0x5f
 10c:	69766944 	ldmdbvs	r6!, {r2, r6, r8, fp, sp, lr}^
 110:	00726564 	rsbseq	r6, r2, r4, ror #10
 114:	6f697067 	svcvs	0x00697067
 118:	6165725f 	cmnvs	r5, pc, asr r2
 11c:	6e750064 	cdpvs	0, 7, cr0, cr5, cr4, {3}
 120:	6e676973 	mcrvs	9, 3, r6, cr7, cr3, {3}
 124:	63206465 	teqvs	r0, #1694498816	; 0x65000000
 128:	00726168 	rsbseq	r6, r2, r8, ror #2
 12c:	61665f6e 	cmnvs	r6, lr, ror #30
 130:	6e696c6c 	cdpvs	12, 6, cr6, cr9, cr12, {3}
 134:	64655f67 	strbtvs	r5, [r5], #-3943	; 0xf67
 138:	63006567 	movwvs	r6, #1383	; 0x567
 13c:	6e61656c 	cdpvs	5, 6, cr6, cr1, cr12, {3}
 140:	6265725f 	rsbvs	r7, r5, #-268435451	; 0xf0000005
 144:	00746f6f 	rsbseq	r6, r4, pc, ror #30
 148:	74736574 	ldrbtvc	r6, [r3], #-1396	; 0x574
 14c:	69735f31 	ldmdbvs	r3!, {r0, r4, r5, r8, r9, sl, fp, ip, lr}^
 150:	656c706d 	strbvs	r7, [ip, #-109]!	; 0x6d
 154:	7369725f 	cmnvc	r9, #-268435451	; 0xf0000005
 158:	68730065 	ldmdavs	r3!, {r0, r2, r5, r6}^
 15c:	2074726f 	rsbscs	r7, r4, pc, ror #4
 160:	69736e75 	ldmdbvs	r3!, {r0, r2, r4, r5, r6, r9, sl, fp, sp, lr}^
 164:	64656e67 	strbtvs	r6, [r5], #-3687	; 0xe67
 168:	746e6920 	strbtvc	r6, [lr], #-2336	; 0x920
 16c:	69706700 	ldmdbvs	r0!, {r8, r9, sl, sp, lr}^
 170:	65735f6f 	ldrbvs	r5, [r3, #-3951]!	; 0xf6f
 174:	6e695f74 	mcrvs	15, 3, r5, cr9, cr4, {3}
 178:	00747570 	rsbseq	r7, r4, r0, ror r5
 17c:	705f6e69 	subsvc	r6, pc, r9, ror #28
 180:	67006e69 	strvs	r6, [r0, -r9, ror #28]
 184:	5f6f6970 	svcpl	0x006f6970
 188:	5f746e69 	svcpl	0x00746e69
 18c:	6c6c6166 	stfvse	f6, [ip], #-408	; 0xfffffe68
 190:	5f676e69 	svcpl	0x00676e69
 194:	65676465 	strbvs	r6, [r7, #-1125]!	; 0x465
 198:	74756f00 	ldrbtvc	r6, [r5], #-3840	; 0xf00
 19c:	6e69705f 	mcrvs	0, 3, r7, cr9, cr15, {2}
 1a0:	69706700 	ldmdbvs	r0!, {r8, r9, sl, sp, lr}^
 1a4:	65735f6f 	ldrbvs	r5, [r3, #-3951]!	; 0xf6f
 1a8:	756f5f74 	strbvc	r5, [pc, #-3956]!	; fffff23c <__bss_end__+0xffff5344>
 1ac:	74757074 	ldrbtvc	r7, [r5], #-116	; 0x74
 1b0:	6d726100 	ldfvse	f6, [r2, #-0]
 1b4:	6d69745f 	cfstrdvs	mvd7, [r9, #-380]!	; 0xfffffe84
 1b8:	425f7265 	subsmi	r7, pc, #1342177286	; 0x50000006
 1bc:	00657361 	rsbeq	r7, r5, r1, ror #6
 1c0:	5f6d7261 	svcpl	0x006d7261
 1c4:	656d6974 	strbvs	r6, [sp, #-2420]!	; 0x974
 1c8:	41525f72 	cmpmi	r2, r2, ror pc
 1cc:	51524957 	cmppl	r2, r7, asr r9
 1d0:	465f5f00 	ldrbmi	r5, [pc], -r0, lsl #30
 1d4:	54434e55 	strbpl	r4, [r3], #-3669	; 0xe55
 1d8:	5f4e4f49 	svcpl	0x004e4f49
 1dc:	6564005f 	strbvs	r0, [r4, #-95]!	; 0x5f
 1e0:	5f79616c 	svcpl	0x0079616c
 1e4:	61007375 	tstvs	r0, r5, ror r3
 1e8:	745f6d72 	ldrbvc	r6, [pc], #-3442	; 1f0 <_start-0x7e10>
 1ec:	72656d69 	rsbvc	r6, r5, #6720	; 0x1a40
 1f0:	6c61565f 	stclvs	6, cr5, [r1], #-380	; 0xfffffe84
 1f4:	67006575 	smlsdxvs	r0, r5, r5, r6
 1f8:	5f6f6970 	svcpl	0x006f6970
 1fc:	6e657665 	cdpvs	6, 6, cr7, cr5, cr5, {3}
 200:	6c635f74 	stclvs	15, cr5, [r3], #-464	; 0xfffffe30
 204:	00726165 	rsbseq	r6, r2, r5, ror #2
 208:	5f6d7261 	svcpl	0x006d7261
 20c:	656d6974 	strbvs	r6, [sp, #-2420]!	; 0x974
 210:	52495f72 	subpl	r5, r9, #456	; 0x1c8
 214:	656c4351 	strbvs	r4, [ip, #-849]!	; 0x351
 218:	31007261 	tstcc	r0, r1, ror #4
 21c:	6970672d 	ldmdbvs	r0!, {r0, r2, r3, r5, r8, r9, sl, sp, lr}^
 220:	6e692d6f 	cdpvs	13, 6, cr2, cr9, cr15, {3}
 224:	78652d74 	stmdavc	r5!, {r2, r4, r5, r6, r8, sl, fp, sp}^
 228:	6c00632e 	stcvs	3, cr6, [r0], {46}	; 0x2e
 22c:	20676e6f 	rsbcs	r6, r7, pc, ror #28
 230:	676e6f6c 	strbvs	r6, [lr, -ip, ror #30]!
 234:	736e7520 	cmnvc	lr, #32, 10	; 0x8000000
 238:	656e6769 	strbvs	r6, [lr, #-1897]!	; 0x769
 23c:	6e692064 	cdpvs	0, 6, cr2, cr9, cr4, {3}
 240:	5f6e0074 	svcpl	0x006e0074
 244:	65746e69 	ldrbvs	r6, [r4, #-3689]!	; 0xe69
 248:	70757272 	rsbsvc	r7, r5, r2, ror r2
 24c:	5f6e0074 	svcpl	0x006e0074
 250:	69736972 	ldmdbvs	r3!, {r1, r4, r5, r6, r8, fp, sp, lr}^
 254:	655f676e 	ldrbvs	r6, [pc, #-1902]	; fffffaee <__bss_end__+0xffff5bf6>
 258:	00656764 	rsbeq	r6, r5, r4, ror #14
 25c:	657a6973 	ldrbvs	r6, [sl, #-2419]!	; 0x973
 260:	65707974 	ldrbvs	r7, [r0, #-2420]!	; 0x974
 264:	6d726100 	ldfvse	f6, [r2, #-0]
 268:	6d69745f 	cfstrdvs	mvd7, [r9, #-380]!	; 0xfffffe84
 26c:	435f7265 	cmpmi	pc, #1342177286	; 0x50000006
 270:	72746e6f 	rsbsvc	r6, r4, #1776	; 0x6f0
 274:	6c006c6f 	stcvs	12, cr6, [r0], {111}	; 0x6f
 278:	20676e6f 	rsbcs	r6, r7, pc, ror #28
 27c:	676e6f6c 	strbvs	r6, [lr, -ip, ror #30]!
 280:	746e6920 	strbtvc	r6, [lr], #-2336	; 0x920
 284:	6e696e00 	cdpvs	14, 6, cr6, cr9, cr0, {0}
 288:	72726574 	rsbsvc	r6, r2, #116, 10	; 0x1d000000
 28c:	00747075 	rsbseq	r7, r4, r5, ror r0
 290:	726f6873 	rsbvc	r6, pc, #7536640	; 0x730000
 294:	6e692074 	mcrvs	0, 3, r2, cr9, cr4, {3}
 298:	70670074 	rsbvc	r0, r7, r4, ror r0
 29c:	695f6f69 	ldmdbvs	pc, {r0, r3, r5, r6, r8, r9, sl, fp, sp, lr}^	; <UNPREDICTABLE>
 2a0:	725f746e 	subsvc	r7, pc, #1845493760	; 0x6e000000
 2a4:	6e697369 	cdpvs	3, 6, cr7, cr9, cr9, {3}
 2a8:	64655f67 	strbtvs	r5, [r5], #-3943	; 0xf67
 2ac:	2f006567 	svccs	0x00006567
 2b0:	72657355 	rsbvc	r7, r5, #1409286145	; 0x54000001
 2b4:	72622f73 	rsbvc	r2, r2, #460	; 0x1cc
 2b8:	6a6e6169 	bvs	1b98864 <__bss_end__+0x1b8e96c>
 2bc:	442f6e75 	strtmi	r6, [pc], #-3701	; 2c4 <_start-0x7d3c>
 2c0:	746b7365 	strbtvc	r7, [fp], #-869	; 0x365
 2c4:	732f706f 	teqvc	pc, #111	; 0x6f
 2c8:	6f6f6863 	svcvs	0x006f6863
 2cc:	69572f6c 	ldmdbvs	r7, {r2, r3, r5, r6, r8, r9, sl, fp, sp}^
 2d0:	7265746e 	rsbvc	r7, r5, #1845493760	; 0x6e000000
 2d4:	30323931 	eorscc	r3, r2, r1, lsr r9
 2d8:	3153432f 	cmpcc	r3, pc, lsr #6
 2dc:	2f453034 	svccs	0x00453034
 2e0:	34317363 	ldrtcc	r7, [r1], #-867	; 0x363
 2e4:	322d6530 	eorcc	r6, sp, #48, 10	; 0xc000000
 2e8:	6e697730 	mcrvs	7, 3, r7, cr9, cr0, {1}
 2ec:	62616c2f 	rsbvs	r6, r1, #12032	; 0x2f00
 2f0:	2d382f73 	ldccs	15, cr2, [r8, #-460]!	; 0xfffffe34
 2f4:	69766564 	ldmdbvs	r6!, {r2, r5, r6, r8, sl, sp, lr}^
 2f8:	692d6563 	pushvs	{r0, r1, r5, r6, r8, sl, sp, lr}
 2fc:	7265746e 	rsbvc	r7, r5, #1845493760	; 0x6e000000
 300:	74707572 	ldrbtvc	r7, [r0], #-1394	; 0x572
 304:	61702f73 	cmnvs	r0, r3, ror pc
 308:	2d317472 	cfldrscs	mvf7, [r1, #-456]!	; 0xfffffe38
 30c:	6f697067 	svcvs	0x00697067
 310:	746e692d 	strbtvc	r6, [lr], #-2349	; 0x92d
 314:	73797300 	cmnvc	r9, #0, 6
 318:	5f6d6574 	svcpl	0x006d6574
 31c:	62616e65 	rsbvs	r6, r1, #1616	; 0x650
 320:	695f656c 	ldmdbvs	pc, {r2, r3, r5, r6, r8, sl, sp, lr}^	; <UNPREDICTABLE>
 324:	7265746e 	rsbvc	r7, r5, #1845493760	; 0x6e000000
 328:	74707572 	ldrbtvc	r7, [r0], #-1394	; 0x572
 32c:	73690073 	cmnvc	r9, #115	; 0x73
 330:	6970675f 	ldmdbvs	r0!, {r0, r1, r2, r3, r4, r6, r8, r9, sl, sp, lr}^
 334:	6e695f6f 	cdpvs	15, 6, cr5, cr9, cr15, {3}
 338:	72610074 	rsbvc	r0, r1, #116	; 0x74
 33c:	69745f6d 	ldmdbvs	r4!, {r0, r2, r3, r5, r6, r8, r9, sl, fp, ip, lr}^
 340:	5f72656d 	svcpl	0x0072656d
 344:	64616f4c 	strbtvs	r6, [r1], #-3916	; 0xf4c
 348:	746e6900 	strbtvc	r6, [lr], #-2304	; 0x900
 34c:	696e695f 	stmdbvs	lr!, {r0, r1, r2, r3, r4, r6, r8, fp, sp, lr}^
 350:	72610074 	rsbvc	r0, r1, #116	; 0x74
 354:	69745f6d 	ldmdbvs	r4!, {r0, r2, r3, r5, r6, r8, r9, sl, fp, ip, lr}^
 358:	5f72656d 	svcpl	0x0072656d
 35c:	6f6c6552 	svcvs	0x006c6552
 360:	5f006461 	svcpl	0x00006461
 364:	756e675f 	strbvc	r6, [lr, #-1887]!	; 0x75f
 368:	61765f63 	cmnvs	r6, r3, ror #30
 36c:	73696c5f 	cmnvc	r9, #24320	; 0x5f00
 370:	696c0074 	stmdbvs	ip!, {r2, r4, r5, r6}^
 374:	702f6362 	eorvc	r6, pc, r2, ror #6
 378:	746e6972 	strbtvc	r6, [lr], #-2418	; 0x972
 37c:	00632e6b 	rsbeq	r2, r3, fp, ror #28
 380:	705f6176 	subsvc	r6, pc, r6, ror r1	; <UNPREDICTABLE>
 384:	746e6972 	strbtvc	r6, [lr], #-2418	; 0x972
 388:	5f5f006b 	svcpl	0x005f006b
 38c:	6c5f6176 	ldfvse	f6, [pc], {118}	; 0x76
 390:	00747369 	rsbseq	r7, r4, r9, ror #6
 394:	6573552f 	ldrbvs	r5, [r3, #-1327]!	; 0x52f
 398:	622f7372 	eorvs	r7, pc, #-939524095	; 0xc8000001
 39c:	6e616972 	mcrvs	9, 3, r6, cr1, cr2, {3}
 3a0:	2f6e756a 	svccs	0x006e756a
 3a4:	6b736544 	blvs	1cd98bc <__bss_end__+0x1ccf9c4>
 3a8:	2f706f74 	svccs	0x00706f74
 3ac:	6f686373 	svcvs	0x00686373
 3b0:	572f6c6f 	strpl	r6, [pc, -pc, ror #24]!
 3b4:	65746e69 	ldrbvs	r6, [r4, #-3689]!	; 0xe69
 3b8:	32393172 	eorscc	r3, r9, #-2147483620	; 0x8000001c
 3bc:	53432f30 	movtpl	r2, #16176	; 0x3f30
 3c0:	45303431 	ldrmi	r3, [r0, #-1073]!	; 0x431
 3c4:	3173632f 	cmncc	r3, pc, lsr #6
 3c8:	2d653034 	stclcs	0, cr3, [r5, #-208]!	; 0xffffff30
 3cc:	69773032 	ldmdbvs	r7!, {r1, r4, r5, ip, sp}^
 3d0:	696c2f6e 	stmdbvs	ip!, {r1, r2, r3, r5, r6, r8, r9, sl, fp, sp}^
 3d4:	00697062 	rsbeq	r7, r9, r2, rrx
 3d8:	73677261 	cmnvc	r7, #268435462	; 0x10000006
 3dc:	615f5f00 	cmpvs	pc, r0, lsl #30
 3e0:	696c0070 	stmdbvs	ip!, {r4, r5, r6}^
 3e4:	702f6362 	eorvc	r6, pc, r2, ror #6
 3e8:	2e6b7475 	mcrcs	4, 3, r7, cr11, cr5, {3}
 3ec:	6e690063 	cdpvs	0, 6, cr0, cr9, cr3, {3}
 3f0:	6e726574 	mrcvs	5, 3, r6, cr2, cr4, {3}
 3f4:	705f6c61 	subsvc	r6, pc, r1, ror #24
 3f8:	006b7475 	rsbeq	r7, fp, r5, ror r4
 3fc:	5f697072 	svcpl	0x00697072
 400:	63747570 	cmnvs	r4, #112, 10	; 0x1c000000
 404:	00726168 	rsbseq	r6, r2, r8, ror #2
 408:	5f67656e 	svcpl	0x0067656e
 40c:	65720070 	ldrbvs	r0, [r2, #-112]!	; 0x70
 410:	73726576 	cmnvc	r2, #494927872	; 0x1d800000
 414:	73690065 	cmnvc	r9, #101	; 0x65
 418:	69676964 	stmdbvs	r7!, {r2, r5, r6, r8, fp, sp, lr}^
 41c:	75700074 	ldrbvc	r0, [r0, #-116]!	; 0x74
 420:	665f7374 			; <UNDEFINED> instruction: 0x665f7374
 424:	61620070 	smcvs	8192	; 0x2000
 428:	73006573 	movwvc	r6, #1395	; 0x573
 42c:	656e6769 	strbvs	r6, [lr, #-1897]!	; 0x769
 430:	00705f64 	rsbseq	r5, r0, r4, ror #30
 434:	6362696c 	cmnvs	r2, #108, 18	; 0x1b0000
 438:	2d61762f 	stclcs	6, cr7, [r1, #-188]!	; 0xffffff44
 43c:	6e697270 	mcrvs	2, 3, r7, cr9, cr0, {3}
 440:	632e6b74 	teqvs	lr, #116, 22	; 0x1d000
 444:	69707200 	ldmdbvs	r0!, {r9, ip, sp, lr}^
 448:	7465735f 	strbtvc	r7, [r5], #-863	; 0x35f
 44c:	74756f5f 	ldrbtvc	r6, [r5], #-3935	; 0xf5f
 450:	00747570 	rsbseq	r7, r4, r0, ror r5
 454:	74646977 	strbtvc	r6, [r4], #-2423	; 0x977
 458:	75700068 	ldrbvc	r0, [r0, #-104]!	; 0x68
 45c:	665f6374 			; <UNDEFINED> instruction: 0x665f6374
 460:	6d650070 	stclvs	0, cr0, [r5, #-448]!	; 0xfffffe40
 464:	72007469 	andvc	r7, r0, #1761607680	; 0x69000000
 468:	725f6970 	subsvc	r6, pc, #112, 18	; 0x1c0000
 46c:	6f6f6265 	svcvs	0x006f6265
 470:	73630074 	cmnvc	r3, #116	; 0x74
 474:	65303431 	ldrvs	r3, [r0, #-1073]!	; 0x431
 478:	6372732d 	cmnvs	r2, #-1275068416	; 0xb4000000
 47c:	656c632f 	strbvs	r6, [ip, #-815]!	; 0x32f
 480:	722d6e61 	eorvc	r6, sp, #1552	; 0x610
 484:	6f6f6265 	svcvs	0x006f6265
 488:	00632e74 	rsbeq	r2, r3, r4, ror lr
 48c:	616c6564 	cmnvs	ip, r4, ror #10
 490:	736d5f79 	cmnvc	sp, #484	; 0x1e4
 494:	31736300 	cmncc	r3, r0, lsl #6
 498:	2d653034 	stclcs	0, cr3, [r5, #-208]!	; 0xffffff30
 49c:	2f637273 	svccs	0x00637273
 4a0:	61747363 	cmnvs	r4, r3, ror #6
 4a4:	632e7472 	teqvs	lr, #1912602624	; 0x72000000
 4a8:	625f5f00 	subsvs	r5, pc, #0, 30
 4ac:	735f7373 	cmpvc	pc, #-872415231	; 0xcc000001
 4b0:	74726174 	ldrbtvc	r6, [r2], #-372	; 0x174
 4b4:	5f005f5f 	svcpl	0x00005f5f
 4b8:	7373625f 	cmnvc	r3, #-268435451	; 0xf0000005
 4bc:	646e655f 	strbtvs	r6, [lr], #-1375	; 0x55f
 4c0:	62005f5f 	andvs	r5, r0, #380	; 0x17c
 4c4:	655f7373 	ldrbvs	r7, [pc, #-883]	; 159 <_start-0x7ea7>
 4c8:	5f00646e 	svcpl	0x0000646e
 4cc:	61747363 	cmnvs	r4, r3, ror #6
 4d0:	61007472 	tstvs	r0, r2, ror r4
 4d4:	73755f74 	cmnvc	r5, #116, 30	; 0x1d0
 4d8:	6c5f7265 	lfmvs	f7, 2, [pc], {101}	; 0x65
 4dc:	6c657665 	stclvs	6, cr7, [r5], #-404	; 0xfffffe6c
 4e0:	5f4d5000 	svcpl	0x004d5000
 4e4:	53534150 	cmppl	r3, #80, 2
 4e8:	44524f57 	ldrbmi	r4, [r2], #-3927	; 0xf57
 4ec:	31736300 	cmncc	r3, r0, lsl #6
 4f0:	2d653034 	stclcs	0, cr3, [r5, #-208]!	; 0xffffff30
 4f4:	2f637273 	svccs	0x00637273
 4f8:	6f626572 	svcvs	0x00626572
 4fc:	632e746f 	teqvs	lr, #1862270976	; 0x6f000000
 500:	5f4d5000 	svcpl	0x004d5000
 504:	43545352 	cmpmi	r4, #1207959553	; 0x48000001
 508:	4352575f 	cmpmi	r2, #24903680	; 0x17c0000
 50c:	465f4746 	ldrbmi	r4, [pc], -r6, asr #14
 510:	5f4c4c55 	svcpl	0x004c4c55
 514:	45534552 	ldrbmi	r4, [r3, #-1362]	; 0x552
 518:	4d500054 	ldclmi	0, cr0, [r0, #-336]	; 0xfffffeb0
 51c:	4f44575f 	svcmi	0x0044575f
 520:	65730047 	ldrbvs	r0, [r3, #-71]!	; 0x47
 524:	73755f74 	cmnvc	r5, #116, 30	; 0x1d0
 528:	6c5f7265 	lfmvs	f7, 2, [pc], {101}	; 0x65
 52c:	6c657665 	stclvs	6, cr7, [r5], #-404	; 0xfffffe6c
 530:	54555000 	ldrbpl	r5, [r5], #-0
 534:	50003233 	andpl	r3, r0, r3, lsr r2
 538:	53525f4d 	cmppl	r2, #308	; 0x134
 53c:	63004354 	movwvs	r4, #852	; 0x354
 540:	00727370 	rsbseq	r7, r2, r0, ror r3
 544:	656d6974 	strbvs	r6, [sp, #-2420]!	; 0x974
 548:	65675f72 	strbvs	r5, [r7, #-3954]!	; 0xf72
 54c:	73755f74 	cmnvc	r5, #116, 30	; 0x1d0
 550:	725f6365 	subsvc	r6, pc, #-1811939327	; 0x94000001
 554:	64007761 	strvs	r7, [r0], #-1889	; 0x761
 558:	79616c65 	stmdbvc	r1!, {r0, r2, r5, r6, sl, fp, sp, lr}^
 55c:	6365735f 	cmnvs	r5, #2080374785	; 0x7c000001
 560:	31736300 	cmncc	r3, r0, lsl #6
 564:	2d653034 	stclcs	0, cr3, [r5, #-208]!	; 0xffffff30
 568:	2f637273 	svccs	0x00637273
 56c:	656d6974 	strbvs	r6, [sp, #-2420]!	; 0x974
 570:	00632e72 	rsbeq	r2, r3, r2, ror lr
 574:	33544547 	cmpcc	r4, #297795584	; 0x11c00000
 578:	69740032 	ldmdbvs	r4!, {r1, r4, r5}^
 57c:	00736b63 	rsbseq	r6, r3, r3, ror #22
 580:	616c6564 	cmnvs	ip, r4, ror #10
 584:	79635f79 	stmdbvc	r3!, {r0, r3, r4, r5, r6, r8, r9, sl, fp, ip, lr}^
 588:	73656c63 	cmnvc	r5, #25344	; 0x6300
 58c:	6d697400 	cfstrdvs	mvd7, [r9, #-0]
 590:	675f7265 	ldrbvs	r7, [pc, -r5, ror #4]
 594:	755f7465 	ldrbvc	r7, [pc, #-1125]	; 137 <_start-0x7ec9>
 598:	00636573 	rsbeq	r6, r3, r3, ror r5
 59c:	6f697067 	svcvs	0x00697067
 5a0:	6576655f 	ldrbvs	r6, [r6, #-1375]!	; 0x55f
 5a4:	645f746e 	ldrbvs	r7, [pc], #-1134	; 5ac <_start-0x7a54>
 5a8:	63657465 	cmnvs	r5, #1694498816	; 0x65000000
 5ac:	00646574 	rsbeq	r6, r4, r4, ror r5
 5b0:	33747570 	cmncc	r4, #112, 10	; 0x1c000000
 5b4:	50470032 	subpl	r0, r7, r2, lsr r0
 5b8:	4c455346 	mcrrmi	3, 4, r5, r5, cr6
 5bc:	50470032 	subpl	r0, r7, r2, lsr r0
 5c0:	30524c43 	subscc	r4, r2, r3, asr #24
 5c4:	414e4500 	cmpmi	lr, r0, lsl #10
 5c8:	5f454c42 	svcpl	0x00454c42
 5cc:	53515249 	cmppl	r1, #-1879048188	; 0x90000004
 5d0:	4700325f 	smlsdmi	r0, pc, r2, r3	; <UNPREDICTABLE>
 5d4:	5f4f4950 	svcpl	0x004f4950
 5d8:	434e5546 	movtmi	r5, #58694	; 0xe546
 5dc:	504e495f 	subpl	r4, lr, pc, asr r9
 5e0:	67005455 	smlsdvs	r0, r5, r4, r5
 5e4:	5f6f6970 	svcpl	0x006f6970
 5e8:	5f746573 	svcpl	0x00746573
 5ec:	0066666f 	rsbeq	r6, r6, pc, ror #12
 5f0:	5f746e69 	svcpl	0x00746e69
 5f4:	6b73616d 	blvs	1cd8bb0 <__bss_end__+0x1ccecb8>
 5f8:	53504700 	cmppl	r0, #0, 14
 5fc:	00305445 	eorseq	r5, r0, r5, asr #8
 600:	45535047 	ldrbmi	r5, [r3, #-71]	; 0x47
 604:	72003154 	andvc	r3, r0, #84, 2
 608:	735f6765 	cmpvc	pc, #26476544	; 0x1940000
 60c:	00746174 	rsbseq	r6, r4, r4, ror r1
 610:	454c5047 	strbmi	r5, [ip, #-71]	; 0x47
 614:	47003056 	smlsdmi	r0, r6, r0, r3
 618:	56454c50 			; <UNDEFINED> instruction: 0x56454c50
 61c:	70670031 	rsbvc	r0, r7, r1, lsr r0
 620:	725f6f69 	subsvc	r6, pc, #420	; 0x1a4
 624:	67006765 	strvs	r6, [r0, -r5, ror #14]
 628:	2e6f6970 	mcrcs	9, 3, r6, cr15, cr0, {3}
 62c:	50470063 	subpl	r0, r7, r3, rrx
 630:	4c455346 	mcrrmi	3, 4, r5, r5, cr6
 634:	50470030 	subpl	r0, r7, r0, lsr r0
 638:	4c455346 	mcrrmi	3, 4, r5, r5, cr6
 63c:	50470031 	subpl	r0, r7, r1, lsr r0
 640:	4c455346 	mcrrmi	3, 4, r5, r5, cr6
 644:	50470033 	subpl	r0, r7, r3, lsr r0
 648:	4c455346 	mcrrmi	3, 4, r5, r5, cr6
 64c:	50470034 	subpl	r0, r7, r4, lsr r0
 650:	4c455346 	mcrrmi	3, 4, r5, r5, cr6
 654:	65640035 	strbvs	r0, [r4, #-53]!	; 0x35
 658:	61625f76 	smcvs	9718	; 0x25f6
 65c:	65697272 	strbvs	r7, [r9, #-626]!	; 0x272
 660:	70670072 	rsbvc	r0, r7, r2, ror r0
 664:	665f6f69 	ldrbvs	r6, [pc], -r9, ror #30
 668:	306c6573 	rsbcc	r6, ip, r3, ror r5
 66c:	43504700 	cmpmi	r0, #0, 14
 670:	0031524c 	eorseq	r5, r1, ip, asr #4
 674:	6f697067 	svcvs	0x00697067
 678:	7465735f 	strbtvc	r7, [r5], #-863	; 0x35f
 67c:	6e75665f 	mrcvs	6, 3, r6, cr5, cr15, {2}
 680:	6f697463 	svcvs	0x00697463
 684:	5047006e 	subpl	r0, r7, lr, rrx
 688:	304e4552 	subcc	r4, lr, r2, asr r5
 68c:	52504700 	subspl	r4, r0, #0, 14
 690:	00314e45 	eorseq	r4, r1, r5, asr #28
 694:	5f515249 	svcpl	0x00515249
 698:	444e4550 	strbmi	r4, [lr], #-1360	; 0x550
 69c:	5f474e49 	svcpl	0x00474e49
 6a0:	52490031 	subpl	r0, r9, #49	; 0x31
 6a4:	45505f51 	ldrbmi	r5, [r0, #-3921]	; 0xf51
 6a8:	4e49444e 	cdpmi	4, 4, cr4, cr9, cr14, {2}
 6ac:	00325f47 	eorseq	r5, r2, r7, asr #30
 6b0:	6d746962 	ldclvs	9, cr6, [r4, #-392]!	; 0xfffffe78
 6b4:	006b7361 	rsbeq	r7, fp, r1, ror #6
 6b8:	6f697067 	svcvs	0x00697067
 6bc:	7465735f 	strbtvc	r7, [r5], #-863	; 0x35f
 6c0:	75660030 	strbvc	r0, [r6, #-48]!	; 0x30
 6c4:	4700636e 	strmi	r6, [r0, -lr, ror #6]
 6c8:	53444550 	movtpl	r4, #17744	; 0x4550
 6cc:	50470030 	subpl	r0, r7, r0, lsr r0
 6d0:	31534445 	cmpcc	r3, r5, asr #8
 6d4:	69706700 	ldmdbvs	r0!, {r8, r9, sl, sp, lr}^
 6d8:	65735f6f 	ldrbvs	r5, [r3, #-3951]!	; 0xf6f
 6dc:	6e6f5f74 	mcrvs	15, 3, r5, cr15, cr4, {3}
 6e0:	46504700 	ldrbmi	r4, [r0], -r0, lsl #14
 6e4:	00304e45 	eorseq	r4, r0, r5, asr #28
 6e8:	45465047 	strbmi	r5, [r6, #-71]	; 0x47
 6ec:	4700314e 	strmi	r3, [r0, -lr, asr #2]
 6f0:	5f4f4950 	svcpl	0x004f4950
 6f4:	434e5546 	movtmi	r5, #58694	; 0xe546
 6f8:	54554f5f 	ldrbpl	r4, [r5], #-3935	; 0xf5f
 6fc:	00545550 	subseq	r5, r4, r0, asr r5
 700:	33746567 	cmncc	r4, #432013312	; 0x19c00000
 704:	70670032 	rsbvc	r0, r7, r2, lsr r0
 708:	665f6f69 	ldrbvs	r6, [pc], -r9, ror #30
 70c:	5f636e75 	svcpl	0x00636e75
 710:	50470074 	subpl	r0, r7, r4, ror r0
 714:	465f4f49 	ldrbmi	r4, [pc], -r9, asr #30
 718:	5f434e55 	svcpl	0x00434e55
 71c:	30544c41 	subscc	r4, r4, r1, asr #24
 720:	49504700 	ldmdbmi	r0, {r8, r9, sl, lr}^
 724:	55465f4f 	strbpl	r5, [r6, #-3919]	; 0xf4f
 728:	415f434e 	cmpmi	pc, lr, asr #6
 72c:	0031544c 	eorseq	r5, r1, ip, asr #8
 730:	4f495047 	svcmi	0x00495047
 734:	4e55465f 	mrcmi	6, 2, r4, cr5, cr15, {2}
 738:	4c415f43 	mcrrmi	15, 4, r5, r1, cr3
 73c:	47003254 	smlsdmi	r0, r4, r2, r3
 740:	5f4f4950 	svcpl	0x004f4950
 744:	434e5546 	movtmi	r5, #58694	; 0xe546
 748:	544c415f 	strbpl	r4, [ip], #-351	; 0x15f
 74c:	50470033 	subpl	r0, r7, r3, lsr r0
 750:	465f4f49 	ldrbmi	r4, [pc], -r9, asr #30
 754:	5f434e55 	svcpl	0x00434e55
 758:	34544c41 	ldrbcc	r4, [r4], #-3137	; 0xc41
 75c:	49504700 	ldmdbmi	r0, {r8, r9, sl, lr}^
 760:	55465f4f 	strbpl	r5, [r6, #-3919]	; 0xf4f
 764:	415f434e 	cmpmi	pc, lr, asr #6
 768:	0035544c 	eorseq	r5, r5, ip, asr #8
 76c:	5f676572 	svcpl	0x00676572
 770:	656c6573 	strbvs	r6, [ip, #-1395]!	; 0x573
 774:	67007463 	strvs	r7, [r0, -r3, ror #8]
 778:	5f6f6970 	svcpl	0x006f6970
 77c:	30726c63 	rsbscc	r6, r2, r3, ror #24
 780:	65727000 	ldrbvs	r7, [r2, #-0]!
 784:	63746566 	cmnvs	r4, #427819008	; 0x19800000
 788:	62615f68 	rsbvs	r5, r1, #104, 30	; 0x1a0
 78c:	5f74726f 	svcpl	0x0074726f
 790:	74636576 	strbtvc	r6, [r3], #-1398	; 0x576
 794:	4400726f 	strmi	r7, [r0], #-623	; 0x26f
 798:	62617369 	rsbvs	r7, r1, #-1543503871	; 0xa4000001
 79c:	425f656c 	subsmi	r6, pc, #108, 10	; 0x1b000000
 7a0:	63697361 	cmnvs	r9, #-2080374783	; 0x84000001
 7a4:	5152495f 	cmppl	r2, pc, asr r9
 7a8:	49460073 	stmdbmi	r6, {r0, r1, r4, r5, r6}^
 7ac:	6f635f51 	svcvs	0x00635f51
 7b0:	6f72746e 	svcvs	0x0072746e
 7b4:	695f006c 	ldmdbvs	pc, {r2, r3, r5, r6}^	; <UNPREDICTABLE>
 7b8:	7265746e 	rsbvc	r7, r5, #1845493760	; 0x6e000000
 7bc:	74707572 	ldrbtvc	r7, [r0], #-1394	; 0x572
 7c0:	6261745f 	rsbvs	r7, r1, #1593835520	; 0x5f000000
 7c4:	4900656c 	stmdbmi	r0, {r2, r3, r5, r6, r8, sl, sp, lr}
 7c8:	625f5152 	subsvs	r5, pc, #-2147483628	; 0x80000014
 7cc:	63697361 	cmnvs	r9, #-2080374783	; 0x84000001
 7d0:	6e65705f 	mcrvs	0, 3, r7, cr5, cr15, {2}
 7d4:	676e6964 	strbvs	r6, [lr, -r4, ror #18]!
 7d8:	616e4500 	cmnvs	lr, r0, lsl #10
 7dc:	5f656c62 	svcpl	0x00656c62
 7e0:	69736142 	ldmdbvs	r3!, {r1, r6, r8, sp, lr}^
 7e4:	52495f63 	subpl	r5, r9, #396	; 0x18c
 7e8:	45007351 	strmi	r7, [r0, #-849]	; 0x351
 7ec:	6c62616e 	stfvse	f6, [r2], #-440	; 0xfffffe48
 7f0:	52495f65 	subpl	r5, r9, #404	; 0x194
 7f4:	315f7351 	cmpcc	pc, r1, asr r3	; <UNPREDICTABLE>
 7f8:	616e4500 	cmnvs	lr, r0, lsl #10
 7fc:	5f656c62 	svcpl	0x00656c62
 800:	73515249 	cmpvc	r1, #-1879048188	; 0x90000004
 804:	5f00325f 	svcpl	0x0000325f
 808:	65746e69 	ldrbvs	r6, [r4, #-3689]!	; 0xe69
 80c:	70757272 	rsbsvc	r7, r5, r2, ror r2
 810:	61745f74 	cmnvs	r4, r4, ror pc
 814:	5f656c62 	svcpl	0x00656c62
 818:	00646e65 	rsbeq	r6, r4, r5, ror #28
 81c:	61746164 	cmnvs	r4, r4, ror #2
 820:	6f62615f 	svcvs	0x0062615f
 824:	765f7472 			; <UNDEFINED> instruction: 0x765f7472
 828:	6f746365 	svcvs	0x00746365
 82c:	52490072 	subpl	r0, r9, #114	; 0x72
 830:	65705f51 	ldrbvs	r5, [r0, #-3921]!	; 0xf51
 834:	6e69646e 	cdpvs	4, 6, cr6, cr9, cr14, {3}
 838:	00325f67 	eorseq	r5, r2, r7, ror #30
 83c:	34317363 	ldrtcc	r7, [r1], #-867	; 0x363
 840:	692d6530 	pushvs	{r4, r5, r8, sl, sp, lr}
 844:	7265746e 	rsbvc	r7, r5, #1845493760	; 0x6e000000
 848:	74707572 	ldrbtvc	r7, [r0], #-1394	; 0x572
 84c:	746e692f 	strbtvc	r6, [lr], #-2351	; 0x92f
 850:	75727265 	ldrbvc	r7, [r2, #-613]!	; 0x265
 854:	2d737470 	cfldrdcs	mvd7, [r3, #-448]!	; 0xfffffe40
 858:	00632e63 	rsbeq	r2, r3, r3, ror #28
 85c:	5f515249 	svcpl	0x00515249
 860:	646e6570 	strbtvs	r6, [lr], #-1392	; 0x570
 864:	5f676e69 	svcpl	0x00676e69
 868:	6e750031 	mrcvs	0, 3, r0, cr5, cr1, {1}
 86c:	69666564 	stmdbvs	r6!, {r2, r5, r6, r8, sl, sp, lr}^
 870:	5f64656e 	svcpl	0x0064656e
 874:	74736e69 	ldrbtvc	r6, [r3], #-3689	; 0xe69
 878:	74637572 	strbtvc	r7, [r3], #-1394	; 0x572
 87c:	5f6e6f69 	svcpl	0x006e6f69
 880:	74636576 	strbtvc	r6, [r3], #-1398	; 0x576
 884:	7200726f 	andvc	r7, r0, #-268435450	; 0xf0000006
 888:	74657365 	strbtvc	r7, [r5], #-869	; 0x365
 88c:	6365765f 	cmnvs	r5, #99614720	; 0x5f00000
 890:	00726f74 	rsbseq	r6, r2, r4, ror pc
 894:	74666f73 	strbtvc	r6, [r6], #-3955	; 0xf73
 898:	65726177 	ldrbvs	r6, [r2, #-375]!	; 0x177
 89c:	746e695f 	strbtvc	r6, [lr], #-2399	; 0x95f
 8a0:	75727265 	ldrbvc	r7, [r2, #-613]!	; 0x265
 8a4:	765f7470 			; <UNDEFINED> instruction: 0x765f7470
 8a8:	6f746365 	svcvs	0x00746365
 8ac:	69440072 	stmdbvs	r4, {r1, r4, r5, r6}^
 8b0:	6c626173 	stfvse	f6, [r2], #-460	; 0xfffffe34
 8b4:	52495f65 	subpl	r5, r9, #404	; 0x194
 8b8:	315f7351 	cmpcc	pc, r1, asr r3	; <UNPREDICTABLE>
 8bc:	73694400 	cmnvc	r9, #0, 8
 8c0:	656c6261 	strbvs	r6, [ip, #-609]!	; 0x261
 8c4:	5152495f 	cmppl	r2, pc, asr r9
 8c8:	00325f73 	eorseq	r5, r2, r3, ror pc
 8cc:	74736166 	ldrbtvc	r6, [r3], #-358	; 0x166
 8d0:	746e695f 	strbtvc	r6, [lr], #-2399	; 0x95f
 8d4:	75727265 	ldrbvc	r7, [r2, #-613]!	; 0x265
 8d8:	765f7470 			; <UNDEFINED> instruction: 0x765f7470
 8dc:	6f746365 	svcvs	0x00746365
 8e0:	52490072 	subpl	r0, r9, #114	; 0x72
 8e4:	61425f51 	cmpvs	r2, r1, asr pc
 8e8:	41006573 	tstmi	r0, r3, ror r5
 8ec:	4d5f5855 	ldclmi	8, cr5, [pc, #-340]	; 7a0 <_start-0x7860>
 8f0:	434d5f55 	movtmi	r5, #57173	; 0xdf55
 8f4:	45525f52 	ldrbmi	r5, [r2, #-3922]	; 0xf52
 8f8:	55410047 	strbpl	r0, [r1, #-71]	; 0x47
 8fc:	554d5f58 	strbpl	r5, [sp, #-3928]	; 0xf58
 900:	5f4f495f 	svcpl	0x004f495f
 904:	00474552 	subeq	r4, r7, r2, asr r5
 908:	5f585541 	svcpl	0x00585541
 90c:	4d5f554d 	cfldr64mi	mvdx5, [pc, #-308]	; 7e0 <_start-0x7820>
 910:	525f5253 	subspl	r5, pc, #805306373	; 0x30000005
 914:	75004745 	strvc	r4, [r0, #-1861]	; 0x745
 918:	5f747261 	svcpl	0x00747261
 91c:	5f6e6163 	svcpl	0x006e6163
 920:	63746567 	cmnvs	r4, #432013312	; 0x19c00000
 924:	58554100 	ldmdapl	r5, {r8, lr}^
 928:	5f554d5f 	svcpl	0x00554d5f
 92c:	4c544e43 	mrrcmi	14, 4, r4, r4, cr3	; <UNPREDICTABLE>
 930:	4745525f 	smlsldmi	r5, r5, pc, r2	; <UNPREDICTABLE>
 934:	72617500 	rsbvc	r7, r1, #0, 10
 938:	61685f74 	smcvs	34292	; 0x85f4
 93c:	61645f73 	smcvs	17907	; 0x45f3
 940:	75006174 	strvc	r6, [r0, #-372]	; 0x174
 944:	2e747261 	cdpcs	2, 7, cr7, cr4, cr1, {3}
 948:	55410063 	strbpl	r0, [r1, #-99]	; 0x63
 94c:	554d5f58 	strbpl	r5, [sp, #-3928]	; 0xf58
 950:	5245495f 	subpl	r4, r5, #1556480	; 0x17c000
 954:	4745525f 	smlsldmi	r5, r5, pc, r2	; <UNPREDICTABLE>
 958:	72617500 	rsbvc	r7, r1, #0, 10
 95c:	65675f74 	strbvs	r5, [r7, #-3956]!	; 0xf74
 960:	41006374 	tstmi	r0, r4, ror r3
 964:	4d5f5855 	ldclmi	8, cr5, [pc, #-340]	; 818 <_start-0x77e8>
 968:	49495f55 	stmdbmi	r9, {r0, r2, r4, r6, r8, r9, sl, fp, ip, lr}^
 96c:	45525f52 	ldrbmi	r5, [r2, #-3922]	; 0xf52
 970:	61750047 	cmnvs	r5, r7, asr #32
 974:	635f7472 	cmpvs	pc, #1912602624	; 0x72000000
 978:	705f6e61 	subsvc	r6, pc, r1, ror #28
 97c:	00637475 	rsbeq	r7, r3, r5, ror r4
 980:	5f585541 	svcpl	0x00585541
 984:	42414e45 	submi	r4, r1, #1104	; 0x450
 988:	0053454c 	subseq	r4, r3, ip, asr #10
 98c:	5f585541 	svcpl	0x00585541
 990:	00515249 	subseq	r5, r1, r9, asr #4
 994:	5f585541 	svcpl	0x00585541
 998:	425f554d 	subsmi	r5, pc, #322961408	; 0x13400000
 99c:	5f445541 	svcpl	0x00445541
 9a0:	00474552 	subeq	r4, r7, r2, asr r5
 9a4:	5f585541 	svcpl	0x00585541
 9a8:	535f554d 	cmppl	pc, #322961408	; 0x13400000
 9ac:	5f544154 	svcpl	0x00544154
 9b0:	00474552 	subeq	r4, r7, r2, asr r5
 9b4:	5f585541 	svcpl	0x00585541
 9b8:	535f554d 	cmppl	pc, #322961408	; 0x13400000
 9bc:	54415243 	strbpl	r5, [r1], #-579	; 0x243
 9c0:	75004843 	strvc	r4, [r0, #-2115]	; 0x843
 9c4:	5f747261 	svcpl	0x00747261
 9c8:	63747570 	cmnvs	r4, #112, 10	; 0x1c000000
 9cc:	58554100 	ldmdapl	r5, {r8, lr}^
 9d0:	5f554d5f 	svcpl	0x00554d5f
 9d4:	5f52434c 	svcpl	0x0052434c
 9d8:	00474552 	subeq	r4, r7, r2, asr r5
 9dc:	5f585541 	svcpl	0x00585541
 9e0:	4c5f554d 	cfldr64mi	mvdx5, [pc], {77}	; 0x4d
 9e4:	525f5253 	subspl	r5, pc, #805306373	; 0x30000005
 9e8:	75004745 	strvc	r4, [r0, #-1861]	; 0x745
 9ec:	5f747261 	svcpl	0x00747261
 9f0:	63746567 	cmnvs	r4, #432013312	; 0x19c00000
 9f4:	7973615f 	ldmdbvc	r3!, {r0, r1, r2, r3, r4, r6, r8, sp, lr}^
 9f8:	6900636e 	stmdbvs	r0, {r1, r2, r3, r5, r6, r8, r9, sp, lr}
 9fc:	7265746e 	rsbvc	r7, r5, #1845493760	; 0x6e000000
 a00:	5f6c616e 	svcpl	0x006c616e
 a04:	63747570 	cmnvs	r4, #112, 10	; 0x1c000000
 a08:	00726168 	rsbseq	r6, r2, r8, ror #2
 a0c:	6362696c 	cmnvs	r2, #108, 18	; 0x1b0000
 a10:	7475702f 	ldrbtvc	r7, [r5], #-47	; 0x2f
 a14:	72616863 	rsbvc	r6, r1, #6488064	; 0x630000
 a18:	Address 0x0000000000000a18 is out of bounds.


Disassembly of section .debug_frame:

00000000 <.debug_frame>:
   0:	0000000c 	andeq	r0, r0, ip
   4:	ffffffff 			; <UNDEFINED> instruction: 0xffffffff
   8:	7c020001 	stcvc	0, cr0, [r2], {1}
   c:	000d0c0e 	andeq	r0, sp, lr, lsl #24
  10:	00000014 	andeq	r0, r0, r4, lsl r0
  14:	00000000 	andeq	r0, r0, r0
  18:	00008010 	andeq	r8, r0, r0, lsl r0
  1c:	000000b4 	strheq	r0, [r0], -r4
  20:	84080e42 	strhi	r0, [r8], #-3650	; 0xe42
  24:	00018e02 	andeq	r8, r1, r2, lsl #28
  28:	00000014 	andeq	r0, r0, r4, lsl r0
  2c:	00000000 	andeq	r0, r0, r0
  30:	000080c4 	andeq	r8, r0, r4, asr #1
  34:	000000b4 	strheq	r0, [r0], -r4
  38:	84080e42 	strhi	r0, [r8], #-3650	; 0xe42
  3c:	00018e02 	andeq	r8, r1, r2, lsl #28
  40:	00000024 	andeq	r0, r0, r4, lsr #32
  44:	00000000 	andeq	r0, r0, r0
  48:	00008178 	andeq	r8, r0, r8, ror r1
  4c:	000001e8 	andeq	r0, r0, r8, ror #3
  50:	83280e42 	teqhi	r8, #1056	; 0x420
  54:	8509840a 	strhi	r8, [r9, #-1034]	; 0x40a
  58:	87078608 	strhi	r8, [r7, -r8, lsl #12]
  5c:	89058806 	stmdbhi	r5, {r1, r2, fp, pc}
  60:	8b038a04 	blhi	e2878 <__bss_end__+0xd8980>
  64:	00018e02 	andeq	r8, r1, r2, lsl #28
  68:	00000014 	andeq	r0, r0, r4, lsl r0
  6c:	00000000 	andeq	r0, r0, r0
  70:	00008360 	andeq	r8, r0, r0, ror #6
  74:	00000084 	andeq	r0, r0, r4, lsl #1
  78:	83080e42 	movwhi	r0, #36418	; 0x8e42
  7c:	00018e02 	andeq	r8, r1, r2, lsl #28
  80:	00000014 	andeq	r0, r0, r4, lsl r0
  84:	00000000 	andeq	r0, r0, r0
  88:	000083e4 	andeq	r8, r0, r4, ror #7
  8c:	00000060 	andeq	r0, r0, r0, rrx
  90:	84080e42 	strhi	r0, [r8], #-3650	; 0xe42
  94:	00018e02 	andeq	r8, r1, r2, lsl #28
  98:	0000000c 	andeq	r0, r0, ip
  9c:	ffffffff 			; <UNDEFINED> instruction: 0xffffffff
  a0:	7c020001 	stcvc	0, cr0, [r2], {1}
  a4:	000d0c0e 	andeq	r0, sp, lr, lsl #24
  a8:	00000024 	andeq	r0, r0, r4, lsr #32
  ac:	00000098 	muleq	r0, r8, r0
  b0:	00008444 	andeq	r8, r0, r4, asr #8
  b4:	00000058 	andeq	r0, r0, r8, asr r0
  b8:	80100e42 	andshi	r0, r0, r2, asr #28
  bc:	82038104 	andhi	r8, r3, #4, 2
  c0:	42018302 	andmi	r8, r1, #134217728	; 0x8000000
  c4:	07841c0e 	streq	r1, [r4, lr, lsl #24]
  c8:	058e0685 	streq	r0, [lr, #1669]	; 0x685
  cc:	00280e42 	eoreq	r0, r8, r2, asr #28
  d0:	0000000c 	andeq	r0, r0, ip
  d4:	ffffffff 			; <UNDEFINED> instruction: 0xffffffff
  d8:	7c020001 	stcvc	0, cr0, [r2], {1}
  dc:	000d0c0e 	andeq	r0, sp, lr, lsl #24
  e0:	00000018 	andeq	r0, r0, r8, lsl r0
  e4:	000000d0 	ldrdeq	r0, [r0], -r0	; <UNPREDICTABLE>
  e8:	0000849c 	muleq	r0, ip, r4
  ec:	00000034 	andeq	r0, r0, r4, lsr r0
  f0:	83100e42 	tsthi	r0, #1056	; 0x420
  f4:	85038404 	strhi	r8, [r3, #-1028]	; 0x404
  f8:	00018e02 	andeq	r8, r1, r2, lsl #28
  fc:	0000000c 	andeq	r0, r0, ip
 100:	ffffffff 			; <UNDEFINED> instruction: 0xffffffff
 104:	7c020001 	stcvc	0, cr0, [r2], {1}
 108:	000d0c0e 	andeq	r0, sp, lr, lsl #24
 10c:	0000000c 	andeq	r0, r0, ip
 110:	000000fc 	strdeq	r0, [r0], -ip
 114:	000084d0 	ldrdeq	r8, [r0], -r0
 118:	00000014 	andeq	r0, r0, r4, lsl r0
 11c:	0000000c 	andeq	r0, r0, ip
 120:	000000fc 	strdeq	r0, [r0], -ip
 124:	000084e4 	andeq	r8, r0, r4, ror #9
 128:	0000002c 	andeq	r0, r0, ip, lsr #32
 12c:	0000000c 	andeq	r0, r0, ip
 130:	000000fc 	strdeq	r0, [r0], -ip
 134:	00008510 	andeq	r8, r0, r0, lsl r5
 138:	00000040 	andeq	r0, r0, r0, asr #32
 13c:	00000020 	andeq	r0, r0, r0, lsr #32
 140:	000000fc 	strdeq	r0, [r0], -ip
 144:	00008550 	andeq	r8, r0, r0, asr r5
 148:	00000198 	muleq	r0, r8, r1
 14c:	84180e42 	ldrhi	r0, [r8], #-3650	; 0xe42
 150:	86058506 	strhi	r8, [r5], -r6, lsl #10
 154:	88038704 	stmdahi	r3, {r2, r8, r9, sl, pc}
 158:	42018e02 	andmi	r8, r1, #2, 28
 15c:	0000580e 	andeq	r5, r0, lr, lsl #16
 160:	00000014 	andeq	r0, r0, r4, lsl r0
 164:	000000fc 	strdeq	r0, [r0], -ip
 168:	000086e8 	andeq	r8, r0, r8, ror #13
 16c:	00000050 	andeq	r0, r0, r0, asr r0
 170:	83080e42 	movwhi	r0, #36418	; 0x8e42
 174:	00018e02 	andeq	r8, r1, r2, lsl #28
 178:	00000028 	andeq	r0, r0, r8, lsr #32
 17c:	000000fc 	strdeq	r0, [r0], -ip
 180:	00008738 	andeq	r8, r0, r8, lsr r7
 184:	00000288 	andeq	r0, r0, r8, lsl #5
 188:	84240e42 	strthi	r0, [r4], #-3650	; 0xe42
 18c:	86088509 	strhi	r8, [r8], -r9, lsl #10
 190:	88068707 	stmdahi	r6, {r0, r1, r2, r8, r9, sl, pc}
 194:	8a048905 	bhi	1225b0 <__bss_end__+0x1186b8>
 198:	8e028b03 	vmlahi.f64	d8, d2, d3
 19c:	b00e4201 	andlt	r4, lr, r1, lsl #4
 1a0:	00000001 	andeq	r0, r0, r1
 1a4:	0000000c 	andeq	r0, r0, ip
 1a8:	ffffffff 			; <UNDEFINED> instruction: 0xffffffff
 1ac:	7c020001 	stcvc	0, cr0, [r2], {1}
 1b0:	000d0c0e 	andeq	r0, sp, lr, lsl #24
 1b4:	00000014 	andeq	r0, r0, r4, lsl r0
 1b8:	000001a4 	andeq	r0, r0, r4, lsr #3
 1bc:	000089c0 	andeq	r8, r0, r0, asr #19
 1c0:	00000028 	andeq	r0, r0, r8, lsr #32
 1c4:	83080e42 	movwhi	r0, #36418	; 0x8e42
 1c8:	00018e02 	andeq	r8, r1, r2, lsl #28
 1cc:	0000000c 	andeq	r0, r0, ip
 1d0:	ffffffff 			; <UNDEFINED> instruction: 0xffffffff
 1d4:	7c020001 	stcvc	0, cr0, [r2], {1}
 1d8:	000d0c0e 	andeq	r0, sp, lr, lsl #24
 1dc:	00000014 	andeq	r0, r0, r4, lsl r0
 1e0:	000001cc 	andeq	r0, r0, ip, asr #3
 1e4:	000089e8 	andeq	r8, r0, r8, ror #19
 1e8:	00000034 	andeq	r0, r0, r4, lsr r0
 1ec:	83080e42 	movwhi	r0, #36418	; 0x8e42
 1f0:	00018e02 	andeq	r8, r1, r2, lsl #28
 1f4:	0000000c 	andeq	r0, r0, ip
 1f8:	ffffffff 			; <UNDEFINED> instruction: 0xffffffff
 1fc:	7c020001 	stcvc	0, cr0, [r2], {1}
 200:	000d0c0e 	andeq	r0, sp, lr, lsl #24
 204:	0000000c 	andeq	r0, r0, ip
 208:	000001f4 	strdeq	r0, [r0], -r4
 20c:	00008a1c 	andeq	r8, r0, ip, lsl sl
 210:	00000018 	andeq	r0, r0, r8, lsl r0
 214:	0000000c 	andeq	r0, r0, ip
 218:	000001f4 	strdeq	r0, [r0], -r4
 21c:	00008a34 	andeq	r8, r0, r4, lsr sl
 220:	00000014 	andeq	r0, r0, r4, lsl r0
 224:	00000014 	andeq	r0, r0, r4, lsl r0
 228:	000001f4 	strdeq	r0, [r0], -r4
 22c:	00008a48 	andeq	r8, r0, r8, asr #20
 230:	00000048 	andeq	r0, r0, r8, asr #32
 234:	83080e42 	movwhi	r0, #36418	; 0x8e42
 238:	00018e02 	andeq	r8, r1, r2, lsl #28
 23c:	0000000c 	andeq	r0, r0, ip
 240:	ffffffff 			; <UNDEFINED> instruction: 0xffffffff
 244:	7c020001 	stcvc	0, cr0, [r2], {1}
 248:	000d0c0e 	andeq	r0, sp, lr, lsl #24
 24c:	0000000c 	andeq	r0, r0, ip
 250:	0000023c 	andeq	r0, r0, ip, lsr r2
 254:	00008a90 	muleq	r0, r0, sl
 258:	0000001c 	andeq	r0, r0, ip, lsl r0
 25c:	00000014 	andeq	r0, r0, r4, lsl r0
 260:	0000023c 	andeq	r0, r0, ip, lsr r2
 264:	00008aac 	andeq	r8, r0, ip, lsr #21
 268:	00000014 	andeq	r0, r0, r4, lsl r0
 26c:	83080e42 	movwhi	r0, #36418	; 0x8e42
 270:	00018e02 	andeq	r8, r1, r2, lsl #28
 274:	00000014 	andeq	r0, r0, r4, lsl r0
 278:	0000023c 	andeq	r0, r0, ip, lsr r2
 27c:	00008ac0 	andeq	r8, r0, r0, asr #21
 280:	0000000c 	andeq	r0, r0, ip
 284:	83080e42 	movwhi	r0, #36418	; 0x8e42
 288:	00018e02 	andeq	r8, r1, r2, lsl #28
 28c:	00000018 	andeq	r0, r0, r8, lsl r0
 290:	0000023c 	andeq	r0, r0, ip, lsr r2
 294:	00008acc 	andeq	r8, r0, ip, asr #21
 298:	00000024 	andeq	r0, r0, r4, lsr #32
 29c:	83100e42 	tsthi	r0, #1056	; 0x420
 2a0:	85038404 	strhi	r8, [r3, #-1028]	; 0x404
 2a4:	00018e02 	andeq	r8, r1, r2, lsl #28
 2a8:	00000014 	andeq	r0, r0, r4, lsl r0
 2ac:	0000023c 	andeq	r0, r0, ip, lsr r2
 2b0:	00008af0 	strdeq	r8, [r0], -r0
 2b4:	00000014 	andeq	r0, r0, r4, lsl r0
 2b8:	83080e42 	movwhi	r0, #36418	; 0x8e42
 2bc:	00018e02 	andeq	r8, r1, r2, lsl #28
 2c0:	00000014 	andeq	r0, r0, r4, lsl r0
 2c4:	0000023c 	andeq	r0, r0, ip, lsr r2
 2c8:	00008b04 	andeq	r8, r0, r4, lsl #22
 2cc:	00000014 	andeq	r0, r0, r4, lsl r0
 2d0:	83080e42 	movwhi	r0, #36418	; 0x8e42
 2d4:	00018e02 	andeq	r8, r1, r2, lsl #28
 2d8:	0000000c 	andeq	r0, r0, ip
 2dc:	ffffffff 			; <UNDEFINED> instruction: 0xffffffff
 2e0:	7c020001 	stcvc	0, cr0, [r2], {1}
 2e4:	000d0c0e 	andeq	r0, sp, lr, lsl #24
 2e8:	00000018 	andeq	r0, r0, r8, lsl r0
 2ec:	000002d8 	ldrdeq	r0, [r0], -r8
 2f0:	00008b18 	andeq	r8, r0, r8, lsl fp
 2f4:	000000d4 	ldrdeq	r0, [r0], -r4
 2f8:	83100e42 	tsthi	r0, #1056	; 0x420
 2fc:	85038404 	strhi	r8, [r3, #-1028]	; 0x404
 300:	00018e02 	andeq	r8, r1, r2, lsl #28
 304:	00000014 	andeq	r0, r0, r4, lsl r0
 308:	000002d8 	ldrdeq	r0, [r0], -r8
 30c:	00008bec 	andeq	r8, r0, ip, ror #23
 310:	00000038 	andeq	r0, r0, r8, lsr r0
 314:	83080e42 	movwhi	r0, #36418	; 0x8e42
 318:	00018e02 	andeq	r8, r1, r2, lsl #28
 31c:	00000014 	andeq	r0, r0, r4, lsl r0
 320:	000002d8 	ldrdeq	r0, [r0], -r8
 324:	00008c24 	andeq	r8, r0, r4, lsr #24
 328:	00000038 	andeq	r0, r0, r8, lsr r0
 32c:	83080e42 	movwhi	r0, #36418	; 0x8e42
 330:	00018e02 	andeq	r8, r1, r2, lsl #28
 334:	00000018 	andeq	r0, r0, r8, lsl r0
 338:	000002d8 	ldrdeq	r0, [r0], -r8
 33c:	00008c5c 	andeq	r8, r0, ip, asr ip
 340:	000000cc 	andeq	r0, r0, ip, asr #1
 344:	83100e42 	tsthi	r0, #1056	; 0x420
 348:	85038404 	strhi	r8, [r3, #-1028]	; 0x404
 34c:	00018e02 	andeq	r8, r1, r2, lsl #28
 350:	00000014 	andeq	r0, r0, r4, lsl r0
 354:	000002d8 	ldrdeq	r0, [r0], -r8
 358:	00008d28 	andeq	r8, r0, r8, lsr #26
 35c:	0000004c 	andeq	r0, r0, ip, asr #32
 360:	84080e42 	strhi	r0, [r8], #-3650	; 0xe42
 364:	00018e02 	andeq	r8, r1, r2, lsl #28
 368:	00000014 	andeq	r0, r0, r4, lsl r0
 36c:	000002d8 	ldrdeq	r0, [r0], -r8
 370:	00008d74 	andeq	r8, r0, r4, ror sp
 374:	00000078 	andeq	r0, r0, r8, ror r0
 378:	83080e42 	movwhi	r0, #36418	; 0x8e42
 37c:	00018e02 	andeq	r8, r1, r2, lsl #28
 380:	00000018 	andeq	r0, r0, r8, lsl r0
 384:	000002d8 	ldrdeq	r0, [r0], -r8
 388:	00008dec 	andeq	r8, r0, ip, ror #27
 38c:	000000d8 	ldrdeq	r0, [r0], -r8
 390:	84100e42 	ldrhi	r0, [r0], #-3650	; 0xe42
 394:	86038504 	strhi	r8, [r3], -r4, lsl #10
 398:	00018e02 	andeq	r8, r1, r2, lsl #28
 39c:	00000014 	andeq	r0, r0, r4, lsl r0
 3a0:	000002d8 	ldrdeq	r0, [r0], -r8
 3a4:	00008ec4 	andeq	r8, r0, r4, asr #29
 3a8:	0000002c 	andeq	r0, r0, ip, lsr #32
 3ac:	83080e42 	movwhi	r0, #36418	; 0x8e42
 3b0:	00018e02 	andeq	r8, r1, r2, lsl #28
 3b4:	00000018 	andeq	r0, r0, r8, lsl r0
 3b8:	000002d8 	ldrdeq	r0, [r0], -r8
 3bc:	00008ef0 	strdeq	r8, [r0], -r0
 3c0:	00000084 	andeq	r0, r0, r4, lsl #1
 3c4:	83100e42 	tsthi	r0, #1056	; 0x420
 3c8:	85038404 	strhi	r8, [r3, #-1028]	; 0x404
 3cc:	00018e02 	andeq	r8, r1, r2, lsl #28
 3d0:	00000018 	andeq	r0, r0, r8, lsl r0
 3d4:	000002d8 	ldrdeq	r0, [r0], -r8
 3d8:	00008f74 	andeq	r8, r0, r4, ror pc
 3dc:	00000084 	andeq	r0, r0, r4, lsl #1
 3e0:	83100e42 	tsthi	r0, #1056	; 0x420
 3e4:	85038404 	strhi	r8, [r3, #-1028]	; 0x404
 3e8:	00018e02 	andeq	r8, r1, r2, lsl #28
 3ec:	00000014 	andeq	r0, r0, r4, lsl r0
 3f0:	000002d8 	ldrdeq	r0, [r0], -r8
 3f4:	00008ff8 	strdeq	r8, [r0], -r8	; <UNPREDICTABLE>
 3f8:	00000084 	andeq	r0, r0, r4, lsl #1
 3fc:	84080e42 	strhi	r0, [r8], #-3650	; 0xe42
 400:	00018e02 	andeq	r8, r1, r2, lsl #28
 404:	00000014 	andeq	r0, r0, r4, lsl r0
 408:	000002d8 	ldrdeq	r0, [r0], -r8
 40c:	0000907c 	andeq	r9, r0, ip, ror r0
 410:	00000058 	andeq	r0, r0, r8, asr r0
 414:	84080e42 	strhi	r0, [r8], #-3650	; 0xe42
 418:	00018e02 	andeq	r8, r1, r2, lsl #28
 41c:	0000000c 	andeq	r0, r0, ip
 420:	ffffffff 			; <UNDEFINED> instruction: 0xffffffff
 424:	7c020001 	stcvc	0, cr0, [r2], {1}
 428:	000d0c0e 	andeq	r0, sp, lr, lsl #24
 42c:	00000014 	andeq	r0, r0, r4, lsl r0
 430:	0000041c 	andeq	r0, r0, ip, lsl r4
 434:	000090d4 	ldrdeq	r9, [r0], -r4
 438:	00000068 	andeq	r0, r0, r8, rrx
 43c:	83080e42 	movwhi	r0, #36418	; 0x8e42
 440:	00018e02 	andeq	r8, r1, r2, lsl #28
 444:	00000014 	andeq	r0, r0, r4, lsl r0
 448:	0000041c 	andeq	r0, r0, ip, lsl r4
 44c:	0000913c 	andeq	r9, r0, ip, lsr r1
 450:	0000003c 	andeq	r0, r0, ip, lsr r0
 454:	8e040e42 	cdphi	14, 0, cr0, cr4, cr2, {2}
 458:	100e4201 	andne	r4, lr, r1, lsl #4
 45c:	00000014 	andeq	r0, r0, r4, lsl r0
 460:	0000041c 	andeq	r0, r0, ip, lsl r4
 464:	00009178 	andeq	r9, r0, r8, ror r1
 468:	0000003c 	andeq	r0, r0, ip, lsr r0
 46c:	8e040e42 	cdphi	14, 0, cr0, cr4, cr2, {2}
 470:	100e4201 	andne	r4, lr, r1, lsl #4
 474:	00000014 	andeq	r0, r0, r4, lsl r0
 478:	0000041c 	andeq	r0, r0, ip, lsl r4
 47c:	000091b4 			; <UNDEFINED> instruction: 0x000091b4
 480:	0000003c 	andeq	r0, r0, ip, lsr r0
 484:	8e040e42 	cdphi	14, 0, cr0, cr4, cr2, {2}
 488:	100e4201 	andne	r4, lr, r1, lsl #4
 48c:	00000014 	andeq	r0, r0, r4, lsl r0
 490:	0000041c 	andeq	r0, r0, ip, lsl r4
 494:	000091f0 	strdeq	r9, [r0], -r0
 498:	0000003c 	andeq	r0, r0, ip, lsr r0
 49c:	8e040e42 	cdphi	14, 0, cr0, cr4, cr2, {2}
 4a0:	100e4201 	andne	r4, lr, r1, lsl #4
 4a4:	00000014 	andeq	r0, r0, r4, lsl r0
 4a8:	0000041c 	andeq	r0, r0, ip, lsl r4
 4ac:	0000922c 	andeq	r9, r0, ip, lsr #4
 4b0:	0000003c 	andeq	r0, r0, ip, lsr r0
 4b4:	8e040e42 	cdphi	14, 0, cr0, cr4, cr2, {2}
 4b8:	100e4201 	andne	r4, lr, r1, lsl #4
 4bc:	00000014 	andeq	r0, r0, r4, lsl r0
 4c0:	0000041c 	andeq	r0, r0, ip, lsl r4
 4c4:	00009268 	andeq	r9, r0, r8, ror #4
 4c8:	0000003c 	andeq	r0, r0, ip, lsr r0
 4cc:	8e040e42 	cdphi	14, 0, cr0, cr4, cr2, {2}
 4d0:	100e4201 	andne	r4, lr, r1, lsl #4
 4d4:	0000000c 	andeq	r0, r0, ip
 4d8:	ffffffff 			; <UNDEFINED> instruction: 0xffffffff
 4dc:	7c020001 	stcvc	0, cr0, [r2], {1}
 4e0:	000d0c0e 	andeq	r0, sp, lr, lsl #24
 4e4:	00000014 	andeq	r0, r0, r4, lsl r0
 4e8:	000004d4 	ldrdeq	r0, [r0], -r4
 4ec:	000093e0 	andeq	r9, r0, r0, ror #7
 4f0:	0000001c 	andeq	r0, r0, ip, lsl r0
 4f4:	83080e42 	movwhi	r0, #36418	; 0x8e42
 4f8:	00018e02 	andeq	r8, r1, r2, lsl #28
 4fc:	00000018 	andeq	r0, r0, r8, lsl r0
 500:	000004d4 	ldrdeq	r0, [r0], -r4
 504:	000093fc 	strdeq	r9, [r0], -ip
 508:	0000009c 	muleq	r0, ip, r0
 50c:	83100e42 	tsthi	r0, #1056	; 0x420
 510:	85038404 	strhi	r8, [r3, #-1028]	; 0x404
 514:	00018e02 	andeq	r8, r1, r2, lsl #28
 518:	00000014 	andeq	r0, r0, r4, lsl r0
 51c:	000004d4 	ldrdeq	r0, [r0], -r4
 520:	00009498 	muleq	r0, r8, r4
 524:	00000028 	andeq	r0, r0, r8, lsr #32
 528:	83080e42 	movwhi	r0, #36418	; 0x8e42
 52c:	00018e02 	andeq	r8, r1, r2, lsl #28
 530:	00000014 	andeq	r0, r0, r4, lsl r0
 534:	000004d4 	ldrdeq	r0, [r0], -r4
 538:	000094c0 	andeq	r9, r0, r0, asr #9
 53c:	0000001c 	andeq	r0, r0, ip, lsl r0
 540:	83080e42 	movwhi	r0, #36418	; 0x8e42
 544:	00018e02 	andeq	r8, r1, r2, lsl #28
 548:	00000014 	andeq	r0, r0, r4, lsl r0
 54c:	000004d4 	ldrdeq	r0, [r0], -r4
 550:	000094dc 	ldrdeq	r9, [r0], -ip
 554:	0000002c 	andeq	r0, r0, ip, lsr #32
 558:	84080e42 	strhi	r0, [r8], #-3650	; 0xe42
 55c:	00018e02 	andeq	r8, r1, r2, lsl #28
 560:	00000014 	andeq	r0, r0, r4, lsl r0
 564:	000004d4 	ldrdeq	r0, [r0], -r4
 568:	00009508 	andeq	r9, r0, r8, lsl #10
 56c:	0000000c 	andeq	r0, r0, ip
 570:	83080e42 	movwhi	r0, #36418	; 0x8e42
 574:	00018e02 	andeq	r8, r1, r2, lsl #28
 578:	00000014 	andeq	r0, r0, r4, lsl r0
 57c:	000004d4 	ldrdeq	r0, [r0], -r4
 580:	00009514 	andeq	r9, r0, r4, lsl r5
 584:	00000020 	andeq	r0, r0, r0, lsr #32
 588:	83080e42 	movwhi	r0, #36418	; 0x8e42
 58c:	00018e02 	andeq	r8, r1, r2, lsl #28
 590:	0000000c 	andeq	r0, r0, ip
 594:	ffffffff 			; <UNDEFINED> instruction: 0xffffffff
 598:	7c020001 	stcvc	0, cr0, [r2], {1}
 59c:	000d0c0e 	andeq	r0, sp, lr, lsl #24
 5a0:	00000014 	andeq	r0, r0, r4, lsl r0
 5a4:	00000590 	muleq	r0, r0, r5
 5a8:	00009534 	andeq	r9, r0, r4, lsr r5
 5ac:	00000014 	andeq	r0, r0, r4, lsl r0
 5b0:	84080e42 	strhi	r0, [r8], #-3650	; 0xe42
 5b4:	00018e02 	andeq	r8, r1, r2, lsl #28
