
2-logic-analyzer.elf:     file format elf32-littlearm


Disassembly of section .text:

00008000 <_start>:
    8000:	e3a0d302 	mov	sp, #134217728	; 0x8000000
    8004:	e3a0b000 	mov	fp, #0
    8008:	eb000368 	bl	8db0 <_cstart>
    800c:	eb00037f 	bl	8e10 <rpi_reboot>

00008010 <sw_uart_putc>:
    8010:	e92d41f0 	push	{r4, r5, r6, r7, r8, lr}
    8014:	e1a07001 	mov	r7, r1
    8018:	e5d06000 	ldrb	r6, [r0]
    801c:	e5905008 	ldr	r5, [r0, #8]
    8020:	ee1f3f3c 	mrc	15, 0, r3, cr15, cr12, {1}
    8024:	ee1f4f3c 	mrc	15, 0, r4, cr15, cr12, {1}
    8028:	e1a00006 	mov	r0, r6
    802c:	e3a01000 	mov	r1, #0
    8030:	eb000441 	bl	913c <gpio_write>
    8034:	ee1f3f3c 	mrc	15, 0, r3, cr15, cr12, {1}
    8038:	e0643003 	rsb	r3, r4, r3
    803c:	e1550003 	cmp	r5, r3
    8040:	8afffffb 	bhi	8034 <sw_uart_putc+0x24>
    8044:	e1a08085 	lsl	r8, r5, #1
    8048:	e1a00006 	mov	r0, r6
    804c:	e2071001 	and	r1, r7, #1
    8050:	eb000439 	bl	913c <gpio_write>
    8054:	ee1f3f3c 	mrc	15, 0, r3, cr15, cr12, {1}
    8058:	e0643003 	rsb	r3, r4, r3
    805c:	e1580003 	cmp	r8, r3
    8060:	8afffffb 	bhi	8054 <sw_uart_putc+0x44>
    8064:	e0888005 	add	r8, r8, r5
    8068:	e1a00006 	mov	r0, r6
    806c:	e2071002 	and	r1, r7, #2
    8070:	eb000431 	bl	913c <gpio_write>
    8074:	ee1f3f3c 	mrc	15, 0, r3, cr15, cr12, {1}
    8078:	e0643003 	rsb	r3, r4, r3
    807c:	e1580003 	cmp	r8, r3
    8080:	8afffffb 	bhi	8074 <sw_uart_putc+0x64>
    8084:	e0888005 	add	r8, r8, r5
    8088:	e1a00006 	mov	r0, r6
    808c:	e2071004 	and	r1, r7, #4
    8090:	eb000429 	bl	913c <gpio_write>
    8094:	ee1f3f3c 	mrc	15, 0, r3, cr15, cr12, {1}
    8098:	e0643003 	rsb	r3, r4, r3
    809c:	e1580003 	cmp	r8, r3
    80a0:	8afffffb 	bhi	8094 <sw_uart_putc+0x84>
    80a4:	e0888005 	add	r8, r8, r5
    80a8:	e1a00006 	mov	r0, r6
    80ac:	e2071008 	and	r1, r7, #8
    80b0:	eb000421 	bl	913c <gpio_write>
    80b4:	ee1f3f3c 	mrc	15, 0, r3, cr15, cr12, {1}
    80b8:	e0643003 	rsb	r3, r4, r3
    80bc:	e1580003 	cmp	r8, r3
    80c0:	8afffffb 	bhi	80b4 <sw_uart_putc+0xa4>
    80c4:	e0888005 	add	r8, r8, r5
    80c8:	e1a00006 	mov	r0, r6
    80cc:	e2071010 	and	r1, r7, #16
    80d0:	eb000419 	bl	913c <gpio_write>
    80d4:	ee1f3f3c 	mrc	15, 0, r3, cr15, cr12, {1}
    80d8:	e0643003 	rsb	r3, r4, r3
    80dc:	e1580003 	cmp	r8, r3
    80e0:	8afffffb 	bhi	80d4 <sw_uart_putc+0xc4>
    80e4:	e0888005 	add	r8, r8, r5
    80e8:	e1a00006 	mov	r0, r6
    80ec:	e2071020 	and	r1, r7, #32
    80f0:	eb000411 	bl	913c <gpio_write>
    80f4:	ee1f3f3c 	mrc	15, 0, r3, cr15, cr12, {1}
    80f8:	e0643003 	rsb	r3, r4, r3
    80fc:	e1580003 	cmp	r8, r3
    8100:	8afffffb 	bhi	80f4 <sw_uart_putc+0xe4>
    8104:	e0888005 	add	r8, r8, r5
    8108:	e1a00006 	mov	r0, r6
    810c:	e2071040 	and	r1, r7, #64	; 0x40
    8110:	eb000409 	bl	913c <gpio_write>
    8114:	ee1f3f3c 	mrc	15, 0, r3, cr15, cr12, {1}
    8118:	e0643003 	rsb	r3, r4, r3
    811c:	e1580003 	cmp	r8, r3
    8120:	8afffffb 	bhi	8114 <sw_uart_putc+0x104>
    8124:	e0888005 	add	r8, r8, r5
    8128:	e1a00006 	mov	r0, r6
    812c:	e2071080 	and	r1, r7, #128	; 0x80
    8130:	eb000401 	bl	913c <gpio_write>
    8134:	ee1f3f3c 	mrc	15, 0, r3, cr15, cr12, {1}
    8138:	e0643003 	rsb	r3, r4, r3
    813c:	e1580003 	cmp	r8, r3
    8140:	8afffffb 	bhi	8134 <sw_uart_putc+0x124>
    8144:	e0885005 	add	r5, r8, r5
    8148:	e1a00006 	mov	r0, r6
    814c:	e3a01001 	mov	r1, #1
    8150:	eb0003f9 	bl	913c <gpio_write>
    8154:	ee1f3f3c 	mrc	15, 0, r3, cr15, cr12, {1}
    8158:	e0643003 	rsb	r3, r4, r3
    815c:	e1550003 	cmp	r5, r3
    8160:	8afffffb 	bhi	8154 <sw_uart_putc+0x144>
    8164:	e8bd81f0 	pop	{r4, r5, r6, r7, r8, pc}

00008168 <sw_uart_getc_timeout>:
    8168:	e92d43f8 	push	{r3, r4, r5, r6, r7, r8, r9, lr}
    816c:	e1a09000 	mov	r9, r0
    8170:	e5d07001 	ldrb	r7, [r0, #1]
    8174:	e1a05007 	mov	r5, r7
    8178:	e1a06001 	mov	r6, r1
    817c:	eb00033c 	bl	8e74 <timer_get_usec_raw>
    8180:	e1a04000 	mov	r4, r0
    8184:	e1a00005 	mov	r0, r5
    8188:	eb0003d8 	bl	90f0 <gpio_read>
    818c:	e3500000 	cmp	r0, #0
    8190:	0a000005 	beq	81ac <sw_uart_getc_timeout+0x44>
    8194:	eb000336 	bl	8e74 <timer_get_usec_raw>
    8198:	e0640000 	rsb	r0, r4, r0
    819c:	e1560000 	cmp	r6, r0
    81a0:	2afffff7 	bcs	8184 <sw_uart_getc_timeout+0x1c>
    81a4:	e3a03000 	mov	r3, #0
    81a8:	ea000000 	b	81b0 <sw_uart_getc_timeout+0x48>
    81ac:	e3a03001 	mov	r3, #1
    81b0:	e3530000 	cmp	r3, #0
    81b4:	0a000059 	beq	8320 <sw_uart_getc_timeout+0x1b8>
    81b8:	ee1f8f3c 	mrc	15, 0, r8, cr15, cr12, {1}
    81bc:	e5994008 	ldr	r4, [r9, #8]
    81c0:	e08420a4 	add	r2, r4, r4, lsr #1
    81c4:	ee1f3f3c 	mrc	15, 0, r3, cr15, cr12, {1}
    81c8:	e0683003 	rsb	r3, r8, r3
    81cc:	e1520003 	cmp	r2, r3
    81d0:	8afffffb 	bhi	81c4 <sw_uart_getc_timeout+0x5c>
    81d4:	e0888004 	add	r8, r8, r4
    81d8:	e1a00007 	mov	r0, r7
    81dc:	eb0003c3 	bl	90f0 <gpio_read>
    81e0:	e1a09750 	asr	r9, r0, r7
    81e4:	ee1f3f3c 	mrc	15, 0, r3, cr15, cr12, {1}
    81e8:	e0683003 	rsb	r3, r8, r3
    81ec:	e1540003 	cmp	r4, r3
    81f0:	8afffffb 	bhi	81e4 <sw_uart_getc_timeout+0x7c>
    81f4:	e0888004 	add	r8, r8, r4
    81f8:	e1a00007 	mov	r0, r7
    81fc:	eb0003bb 	bl	90f0 <gpio_read>
    8200:	e1a00750 	asr	r0, r0, r7
    8204:	e1899080 	orr	r9, r9, r0, lsl #1
    8208:	ee1f3f3c 	mrc	15, 0, r3, cr15, cr12, {1}
    820c:	e0683003 	rsb	r3, r8, r3
    8210:	e1540003 	cmp	r4, r3
    8214:	8afffffb 	bhi	8208 <sw_uart_getc_timeout+0xa0>
    8218:	e0888004 	add	r8, r8, r4
    821c:	e1a00007 	mov	r0, r7
    8220:	eb0003b2 	bl	90f0 <gpio_read>
    8224:	e1a00750 	asr	r0, r0, r7
    8228:	e1899100 	orr	r9, r9, r0, lsl #2
    822c:	ee1f3f3c 	mrc	15, 0, r3, cr15, cr12, {1}
    8230:	e0683003 	rsb	r3, r8, r3
    8234:	e1540003 	cmp	r4, r3
    8238:	8afffffb 	bhi	822c <sw_uart_getc_timeout+0xc4>
    823c:	e0888004 	add	r8, r8, r4
    8240:	e1a00007 	mov	r0, r7
    8244:	eb0003a9 	bl	90f0 <gpio_read>
    8248:	e1a00750 	asr	r0, r0, r7
    824c:	e1899180 	orr	r9, r9, r0, lsl #3
    8250:	ee1f3f3c 	mrc	15, 0, r3, cr15, cr12, {1}
    8254:	e0683003 	rsb	r3, r8, r3
    8258:	e1540003 	cmp	r4, r3
    825c:	8afffffb 	bhi	8250 <sw_uart_getc_timeout+0xe8>
    8260:	e0888004 	add	r8, r8, r4
    8264:	e1a00007 	mov	r0, r7
    8268:	eb0003a0 	bl	90f0 <gpio_read>
    826c:	e1a00750 	asr	r0, r0, r7
    8270:	e1899200 	orr	r9, r9, r0, lsl #4
    8274:	ee1f3f3c 	mrc	15, 0, r3, cr15, cr12, {1}
    8278:	e0683003 	rsb	r3, r8, r3
    827c:	e1540003 	cmp	r4, r3
    8280:	8afffffb 	bhi	8274 <sw_uart_getc_timeout+0x10c>
    8284:	e0888004 	add	r8, r8, r4
    8288:	e1a00007 	mov	r0, r7
    828c:	eb000397 	bl	90f0 <gpio_read>
    8290:	e1a00750 	asr	r0, r0, r7
    8294:	e1899280 	orr	r9, r9, r0, lsl #5
    8298:	ee1f3f3c 	mrc	15, 0, r3, cr15, cr12, {1}
    829c:	e0683003 	rsb	r3, r8, r3
    82a0:	e1540003 	cmp	r4, r3
    82a4:	8afffffb 	bhi	8298 <sw_uart_getc_timeout+0x130>
    82a8:	e0888004 	add	r8, r8, r4
    82ac:	e1a00007 	mov	r0, r7
    82b0:	eb00038e 	bl	90f0 <gpio_read>
    82b4:	e1a00750 	asr	r0, r0, r7
    82b8:	e1899300 	orr	r9, r9, r0, lsl #6
    82bc:	ee1f3f3c 	mrc	15, 0, r3, cr15, cr12, {1}
    82c0:	e0683003 	rsb	r3, r8, r3
    82c4:	e1540003 	cmp	r4, r3
    82c8:	8afffffb 	bhi	82bc <sw_uart_getc_timeout+0x154>
    82cc:	e1a00007 	mov	r0, r7
    82d0:	eb000386 	bl	90f0 <gpio_read>
    82d4:	e1a00750 	asr	r0, r0, r7
    82d8:	e1899380 	orr	r9, r9, r0, lsl #7
    82dc:	eb0002e4 	bl	8e74 <timer_get_usec_raw>
    82e0:	e1a04000 	mov	r4, r0
    82e4:	e1a00005 	mov	r0, r5
    82e8:	eb000380 	bl	90f0 <gpio_read>
    82ec:	e3500000 	cmp	r0, #0
    82f0:	0a000005 	beq	830c <sw_uart_getc_timeout+0x1a4>
    82f4:	eb0002de 	bl	8e74 <timer_get_usec_raw>
    82f8:	e0640000 	rsb	r0, r4, r0
    82fc:	e1560000 	cmp	r6, r0
    8300:	2afffff7 	bcs	82e4 <sw_uart_getc_timeout+0x17c>
    8304:	e3a03000 	mov	r3, #0
    8308:	ea000000 	b	8310 <sw_uart_getc_timeout+0x1a8>
    830c:	e3a03001 	mov	r3, #1
    8310:	e3530000 	cmp	r3, #0
    8314:	0a000003 	beq	8328 <sw_uart_getc_timeout+0x1c0>
    8318:	e1a00009 	mov	r0, r9
    831c:	e8bd83f8 	pop	{r3, r4, r5, r6, r7, r8, r9, pc}
    8320:	e3e00000 	mvn	r0, #0
    8324:	e8bd83f8 	pop	{r3, r4, r5, r6, r7, r8, r9, pc}
    8328:	e3e00000 	mvn	r0, #0
    832c:	e8bd83f8 	pop	{r3, r4, r5, r6, r7, r8, r9, pc}

00008330 <sw_uart_gets_until>:
    8330:	e92d47f0 	push	{r4, r5, r6, r7, r8, r9, sl, lr}
    8334:	e1a08000 	mov	r8, r0
    8338:	e1a06001 	mov	r6, r1
    833c:	e1a09003 	mov	r9, r3
    8340:	e59da020 	ldr	sl, [sp, #32]
    8344:	e3520000 	cmp	r2, #0
    8348:	1a000005 	bne	8364 <sw_uart_gets_until+0x34>
    834c:	e59f005c 	ldr	r0, [pc, #92]	; 83b0 <sw_uart_gets_until+0x80>
    8350:	e59f105c 	ldr	r1, [pc, #92]	; 83b4 <sw_uart_gets_until+0x84>
    8354:	e59f205c 	ldr	r2, [pc, #92]	; 83b8 <sw_uart_gets_until+0x88>
    8358:	e3a03075 	mov	r3, #117	; 0x75
    835c:	eb00012a 	bl	880c <printk>
    8360:	eb000288 	bl	8d88 <clean_reboot>
    8364:	e3a04000 	mov	r4, #0
    8368:	e5c14000 	strb	r4, [r1]
    836c:	e2427001 	sub	r7, r2, #1
    8370:	ea000007 	b	8394 <sw_uart_gets_until+0x64>
    8374:	e1a00008 	mov	r0, r8
    8378:	e1a0100a 	mov	r1, sl
    837c:	ebffff79 	bl	8168 <sw_uart_getc_timeout>
    8380:	e6ef0070 	uxtb	r0, r0
    8384:	e1500009 	cmp	r0, r9
    8388:	0a000004 	beq	83a0 <sw_uart_gets_until+0x70>
    838c:	e7c60005 	strb	r0, [r6, r5]
    8390:	e2844001 	add	r4, r4, #1
    8394:	e1a05004 	mov	r5, r4
    8398:	e1540007 	cmp	r4, r7
    839c:	3afffff4 	bcc	8374 <sw_uart_gets_until+0x44>
    83a0:	e3a03000 	mov	r3, #0
    83a4:	e7c63005 	strb	r3, [r6, r5]
    83a8:	e1a00004 	mov	r0, r4
    83ac:	e8bd87f0 	pop	{r4, r5, r6, r7, r8, r9, sl, pc}
    83b0:	00009a2c 	andeq	r9, r0, ip, lsr #20
    83b4:	00009a48 	andeq	r9, r0, r8, asr #20
    83b8:	000099ac 	andeq	r9, r0, ip, lsr #19

000083bc <sw_uart_gets_timeout>:
    83bc:	e92d41f0 	push	{r4, r5, r6, r7, r8, lr}
    83c0:	e1a07000 	mov	r7, r0
    83c4:	e1a05001 	mov	r5, r1
    83c8:	e1a08003 	mov	r8, r3
    83cc:	e3520000 	cmp	r2, #0
    83d0:	1a000005 	bne	83ec <sw_uart_gets_timeout+0x30>
    83d4:	e59f004c 	ldr	r0, [pc, #76]	; 8428 <sw_uart_gets_timeout+0x6c>
    83d8:	e59f104c 	ldr	r1, [pc, #76]	; 842c <sw_uart_gets_timeout+0x70>
    83dc:	e59f204c 	ldr	r2, [pc, #76]	; 8430 <sw_uart_gets_timeout+0x74>
    83e0:	e3a0308b 	mov	r3, #139	; 0x8b
    83e4:	eb000108 	bl	880c <printk>
    83e8:	eb000266 	bl	8d88 <clean_reboot>
    83ec:	e3a04000 	mov	r4, #0
    83f0:	e5c14000 	strb	r4, [r1]
    83f4:	e2426001 	sub	r6, r2, #1
    83f8:	ea000004 	b	8410 <sw_uart_gets_timeout+0x54>
    83fc:	e1a00007 	mov	r0, r7
    8400:	e1a01008 	mov	r1, r8
    8404:	ebffff57 	bl	8168 <sw_uart_getc_timeout>
    8408:	e7c50004 	strb	r0, [r5, r4]
    840c:	e2844001 	add	r4, r4, #1
    8410:	e1540006 	cmp	r4, r6
    8414:	3afffff8 	bcc	83fc <sw_uart_gets_timeout+0x40>
    8418:	e3a03000 	mov	r3, #0
    841c:	e7c53004 	strb	r3, [r5, r4]
    8420:	e1a00004 	mov	r0, r4
    8424:	e8bd81f0 	pop	{r4, r5, r6, r7, r8, pc}
    8428:	00009a2c 	andeq	r9, r0, ip, lsr #20
    842c:	00009a48 	andeq	r9, r0, r8, asr #20
    8430:	000099c0 	andeq	r9, r0, r0, asr #19

00008434 <sw_uart_init_helper>:
    8434:	e92d41f0 	push	{r4, r5, r6, r7, r8, lr}
    8438:	e1a04000 	mov	r4, r0
    843c:	e1a06001 	mov	r6, r1
    8440:	e1a08002 	mov	r8, r2
    8444:	e1a05003 	mov	r5, r3
    8448:	e59d7018 	ldr	r7, [sp, #24]
    844c:	e1a00001 	mov	r0, r1
    8450:	eb0002a2 	bl	8ee0 <gpio_set_output>
    8454:	e1a00008 	mov	r0, r8
    8458:	eb0002f1 	bl	9024 <gpio_set_input>
    845c:	e1a00006 	mov	r0, r6
    8460:	e3a01001 	mov	r1, #1
    8464:	eb000334 	bl	913c <gpio_write>
    8468:	e3a03001 	mov	r3, #1
    846c:	ee0f3f1c 	mcr	15, 0, r3, cr15, cr12, {0}
    8470:	e0020795 	mul	r2, r5, r7
    8474:	e59f3064 	ldr	r3, [pc, #100]	; 84e0 <sw_uart_init_helper+0xac>
    8478:	e0653003 	rsb	r3, r5, r3
    847c:	e1530002 	cmp	r3, r2
    8480:	8a000005 	bhi	849c <sw_uart_init_helper+0x68>
    8484:	e59f3054 	ldr	r3, [pc, #84]	; 84e0 <sw_uart_init_helper+0xac>
    8488:	e0853003 	add	r3, r5, r3
    848c:	e1530002 	cmp	r3, r2
    8490:	2a000003 	bcs	84a4 <sw_uart_init_helper+0x70>
    8494:	e3a03000 	mov	r3, #0
    8498:	ea000002 	b	84a8 <sw_uart_init_helper+0x74>
    849c:	e3a03000 	mov	r3, #0
    84a0:	ea000000 	b	84a8 <sw_uart_init_helper+0x74>
    84a4:	e3a03001 	mov	r3, #1
    84a8:	e3530000 	cmp	r3, #0
    84ac:	1a000005 	bne	84c8 <sw_uart_init_helper+0x94>
    84b0:	e59f002c 	ldr	r0, [pc, #44]	; 84e4 <sw_uart_init_helper+0xb0>
    84b4:	e59f102c 	ldr	r1, [pc, #44]	; 84e8 <sw_uart_init_helper+0xb4>
    84b8:	e59f202c 	ldr	r2, [pc, #44]	; 84ec <sw_uart_init_helper+0xb8>
    84bc:	e3a030a6 	mov	r3, #166	; 0xa6
    84c0:	eb0000d1 	bl	880c <printk>
    84c4:	eb00022f 	bl	8d88 <clean_reboot>
    84c8:	e5c46000 	strb	r6, [r4]
    84cc:	e5c48001 	strb	r8, [r4, #1]
    84d0:	e5845004 	str	r5, [r4, #4]
    84d4:	e5847008 	str	r7, [r4, #8]
    84d8:	e1a00004 	mov	r0, r4
    84dc:	e8bd81f0 	pop	{r4, r5, r6, r7, r8, pc}
    84e0:	29b92700 	ldmibcs	r9!, {r8, r9, sl, sp}
    84e4:	00009a5c 	andeq	r9, r0, ip, asr sl
    84e8:	00009a48 	andeq	r9, r0, r8, asr #20
    84ec:	000099d8 	ldrdeq	r9, [r0], -r8

000084f0 <sw_uart_getc>:
    84f0:	e92d4008 	push	{r3, lr}
    84f4:	e3e01000 	mvn	r1, #0
    84f8:	ebffff1a 	bl	8168 <sw_uart_getc_timeout>
    84fc:	e3500000 	cmp	r0, #0
    8500:	a8bd8008 	popge	{r3, pc}
    8504:	e59f0010 	ldr	r0, [pc, #16]	; 851c <sw_uart_getc+0x2c>
    8508:	e59f1010 	ldr	r1, [pc, #16]	; 8520 <sw_uart_getc+0x30>
    850c:	e59f2010 	ldr	r2, [pc, #16]	; 8524 <sw_uart_getc+0x34>
    8510:	e3a030b5 	mov	r3, #181	; 0xb5
    8514:	eb0000bc 	bl	880c <printk>
    8518:	eb00021a 	bl	8d88 <clean_reboot>
    851c:	00009aa0 	andeq	r9, r0, r0, lsr #21
    8520:	00009a48 	andeq	r9, r0, r8, asr #20
    8524:	000099ec 	andeq	r9, r0, ip, ror #19

00008528 <sw_uart_putk>:
    8528:	e92d4038 	push	{r3, r4, r5, lr}
    852c:	e1a05000 	mov	r5, r0
    8530:	e1a04001 	mov	r4, r1
    8534:	ea000002 	b	8544 <sw_uart_putk+0x1c>
    8538:	e1a00005 	mov	r0, r5
    853c:	ebfffeb3 	bl	8010 <sw_uart_putc>
    8540:	e2844001 	add	r4, r4, #1
    8544:	e5d41000 	ldrb	r1, [r4]
    8548:	e3510000 	cmp	r1, #0
    854c:	1afffff9 	bne	8538 <sw_uart_putk+0x10>
    8550:	e8bd8038 	pop	{r3, r4, r5, pc}

00008554 <sw_uart_printk>:
    8554:	e92d000e 	push	{r1, r2, r3}
    8558:	e92d4030 	push	{r4, r5, lr}
    855c:	e24dde1d 	sub	sp, sp, #464	; 0x1d0
    8560:	e1a05000 	mov	r5, r0
    8564:	e28d3e1e 	add	r3, sp, #480	; 0x1e0
    8568:	e58d3000 	str	r3, [sp]
    856c:	e28d0004 	add	r0, sp, #4
    8570:	e3a01f73 	mov	r1, #460	; 0x1cc
    8574:	e59d21dc 	ldr	r2, [sp, #476]	; 0x1dc
    8578:	eb000160 	bl	8b00 <va_printk>
    857c:	e1a04000 	mov	r4, r0
    8580:	e59f303c 	ldr	r3, [pc, #60]	; 85c4 <sw_uart_printk+0x70>
    8584:	e1500003 	cmp	r0, r3
    8588:	9a000005 	bls	85a4 <sw_uart_printk+0x50>
    858c:	e59f0034 	ldr	r0, [pc, #52]	; 85c8 <sw_uart_printk+0x74>
    8590:	e59f1034 	ldr	r1, [pc, #52]	; 85cc <sw_uart_printk+0x78>
    8594:	e59f2034 	ldr	r2, [pc, #52]	; 85d0 <sw_uart_printk+0x7c>
    8598:	e3a030c9 	mov	r3, #201	; 0xc9
    859c:	eb00009a 	bl	880c <printk>
    85a0:	eb0001f8 	bl	8d88 <clean_reboot>
    85a4:	e1a00005 	mov	r0, r5
    85a8:	e28d1004 	add	r1, sp, #4
    85ac:	ebffffdd 	bl	8528 <sw_uart_putk>
    85b0:	e1a00004 	mov	r0, r4
    85b4:	e28dde1d 	add	sp, sp, #464	; 0x1d0
    85b8:	e8bd4030 	pop	{r4, r5, lr}
    85bc:	e28dd00c 	add	sp, sp, #12
    85c0:	e12fff1e 	bx	lr
    85c4:	000001ca 	andeq	r0, r0, sl, asr #3
    85c8:	00009ad8 	ldrdeq	r9, [r0], -r8
    85cc:	00009a48 	andeq	r9, r0, r8, asr #20
    85d0:	000099fc 	strdeq	r9, [r0], -ip

000085d4 <sw_uart_gets_until_blk>:
    85d4:	e52de004 	push	{lr}		; (str lr, [sp, #-4]!)
    85d8:	e24dd00c 	sub	sp, sp, #12
    85dc:	e3e0c000 	mvn	ip, #0
    85e0:	e58dc000 	str	ip, [sp]
    85e4:	ebffff51 	bl	8330 <sw_uart_gets_until>
    85e8:	e3500000 	cmp	r0, #0
    85ec:	aa000005 	bge	8608 <sw_uart_gets_until_blk+0x34>
    85f0:	e59f0018 	ldr	r0, [pc, #24]	; 8610 <sw_uart_gets_until_blk+0x3c>
    85f4:	e59f1018 	ldr	r1, [pc, #24]	; 8614 <sw_uart_gets_until_blk+0x40>
    85f8:	e59f2018 	ldr	r2, [pc, #24]	; 8618 <sw_uart_gets_until_blk+0x44>
    85fc:	e3a030d1 	mov	r3, #209	; 0xd1
    8600:	eb000081 	bl	880c <printk>
    8604:	eb0001df 	bl	8d88 <clean_reboot>
    8608:	e28dd00c 	add	sp, sp, #12
    860c:	e49df004 	pop	{pc}		; (ldr pc, [sp], #4)
    8610:	00009aa0 	andeq	r9, r0, r0, lsr #21
    8614:	00009a48 	andeq	r9, r0, r8, asr #20
    8618:	00009a0c 	andeq	r9, r0, ip, lsl #20

0000861c <interrupt_vector>:
    861c:	e92d4010 	push	{r4, lr}
    8620:	ee1f4f3c 	mrc	15, 0, r4, cr15, cr12, {1}
    8624:	eb000410 	bl	966c <dev_barrier>
    8628:	e3a00031 	mov	r0, #49	; 0x31
    862c:	eb000316 	bl	928c <is_gpio_int>
    8630:	e3500000 	cmp	r0, #0
    8634:	1a000003 	bne	8648 <interrupt_vector+0x2c>
    8638:	e3a00032 	mov	r0, #50	; 0x32
    863c:	eb000312 	bl	928c <is_gpio_int>
    8640:	e3500000 	cmp	r0, #0
    8644:	0a000027 	beq	86e8 <interrupt_vector+0xcc>
    8648:	e3a00014 	mov	r0, #20
    864c:	eb0002a7 	bl	90f0 <gpio_read>
    8650:	e3500000 	cmp	r0, #0
    8654:	1a00000f 	bne	8698 <interrupt_vector+0x7c>
    8658:	e59f30a0 	ldr	r3, [pc, #160]	; 8700 <interrupt_vector+0xe4>
    865c:	e5932000 	ldr	r2, [r3]
    8660:	e2822001 	add	r2, r2, #1
    8664:	e5832000 	str	r2, [r3]
    8668:	e5931004 	ldr	r1, [r3, #4]
    866c:	e59f2090 	ldr	r2, [pc, #144]	; 8704 <interrupt_vector+0xe8>
    8670:	e7820181 	str	r0, [r2, r1, lsl #3]
    8674:	e5930004 	ldr	r0, [r3, #4]
    8678:	e5931008 	ldr	r1, [r3, #8]
    867c:	e0641001 	rsb	r1, r4, r1
    8680:	e0822180 	add	r2, r2, r0, lsl #3
    8684:	e5821004 	str	r1, [r2, #4]
    8688:	e5932004 	ldr	r2, [r3, #4]
    868c:	e2822001 	add	r2, r2, #1
    8690:	e5832004 	str	r2, [r3, #4]
    8694:	ea000013 	b	86e8 <interrupt_vector+0xcc>
    8698:	e3a00014 	mov	r0, #20
    869c:	eb000293 	bl	90f0 <gpio_read>
    86a0:	e3500000 	cmp	r0, #0
    86a4:	da00000f 	ble	86e8 <interrupt_vector+0xcc>
    86a8:	e59f3050 	ldr	r3, [pc, #80]	; 8700 <interrupt_vector+0xe4>
    86ac:	e593200c 	ldr	r2, [r3, #12]
    86b0:	e2822001 	add	r2, r2, #1
    86b4:	e583200c 	str	r2, [r3, #12]
    86b8:	e5931004 	ldr	r1, [r3, #4]
    86bc:	e59f2040 	ldr	r2, [pc, #64]	; 8704 <interrupt_vector+0xe8>
    86c0:	e3a00001 	mov	r0, #1
    86c4:	e7820181 	str	r0, [r2, r1, lsl #3]
    86c8:	e5930004 	ldr	r0, [r3, #4]
    86cc:	e5931008 	ldr	r1, [r3, #8]
    86d0:	e0641001 	rsb	r1, r4, r1
    86d4:	e0822180 	add	r2, r2, r0, lsl #3
    86d8:	e5821004 	str	r1, [r2, #4]
    86dc:	e5932004 	ldr	r2, [r3, #4]
    86e0:	e2822001 	add	r2, r2, #1
    86e4:	e5832004 	str	r2, [r3, #4]
    86e8:	e59f3010 	ldr	r3, [pc, #16]	; 8700 <interrupt_vector+0xe4>
    86ec:	e5834008 	str	r4, [r3, #8]
    86f0:	e3a00014 	mov	r0, #20
    86f4:	eb000352 	bl	9444 <gpio_event_clear>
    86f8:	eb0003db 	bl	966c <dev_barrier>
    86fc:	e8bd8010 	pop	{r4, pc}
    8700:	00009dac 	andeq	r9, r0, ip, lsr #27
    8704:	0000a1c0 	andeq	sl, r0, r0, asr #3

00008708 <notmain>:
    8708:	e92d40f0 	push	{r4, r5, r6, r7, lr}
    870c:	e24dd01c 	sub	sp, sp, #28
    8710:	eb00042b 	bl	97c4 <uart_init>
    8714:	e3a03001 	mov	r3, #1
    8718:	ee0f3f1c 	mcr	15, 0, r3, cr15, cr12, {0}
    871c:	eb00035e 	bl	949c <int_init>
    8720:	e59f30bc 	ldr	r3, [pc, #188]	; 87e4 <notmain+0xdc>
    8724:	e58d3000 	str	r3, [sp]
    8728:	e28d000c 	add	r0, sp, #12
    872c:	e3a01015 	mov	r1, #21
    8730:	e3a02014 	mov	r2, #20
    8734:	e59f30ac 	ldr	r3, [pc, #172]	; 87e8 <notmain+0xe0>
    8738:	ebffff3d 	bl	8434 <sw_uart_init_helper>
    873c:	e3a00014 	mov	r0, #20
    8740:	eb0002dc 	bl	92b8 <gpio_int_rising_edge>
    8744:	e3a00014 	mov	r0, #20
    8748:	eb0002fb 	bl	933c <gpio_int_falling_edge>
    874c:	eb0003df 	bl	96d0 <system_enable_interrupts>
    8750:	e3a00014 	mov	r0, #20
    8754:	eb000265 	bl	90f0 <gpio_read>
    8758:	e1a00a40 	asr	r0, r0, #20
    875c:	e3500001 	cmp	r0, #1
    8760:	0a000005 	beq	877c <notmain+0x74>
    8764:	e59f0080 	ldr	r0, [pc, #128]	; 87ec <notmain+0xe4>
    8768:	e59f1080 	ldr	r1, [pc, #128]	; 87f0 <notmain+0xe8>
    876c:	e59f2080 	ldr	r2, [pc, #128]	; 87f4 <notmain+0xec>
    8770:	e3a03f43 	mov	r3, #268	; 0x10c
    8774:	eb000024 	bl	880c <printk>
    8778:	eb000182 	bl	8d88 <clean_reboot>
    877c:	e28d000c 	add	r0, sp, #12
    8780:	e3a01055 	mov	r1, #85	; 0x55
    8784:	ebfffe21 	bl	8010 <sw_uart_putc>
    8788:	e3a00064 	mov	r0, #100	; 0x64
    878c:	eb0001c9 	bl	8eb8 <delay_ms>
    8790:	e59f3060 	ldr	r3, [pc, #96]	; 87f8 <notmain+0xf0>
    8794:	e5931004 	ldr	r1, [r3, #4]
    8798:	e59f005c 	ldr	r0, [pc, #92]	; 87fc <notmain+0xf4>
    879c:	eb00001a 	bl	880c <printk>
    87a0:	e3a05000 	mov	r5, #0
    87a4:	e59f4054 	ldr	r4, [pc, #84]	; 8800 <notmain+0xf8>
    87a8:	e59f6048 	ldr	r6, [pc, #72]	; 87f8 <notmain+0xf0>
    87ac:	e59f7050 	ldr	r7, [pc, #80]	; 8804 <notmain+0xfc>
    87b0:	ea000005 	b	87cc <notmain+0xc4>
    87b4:	e1a00007 	mov	r0, r7
    87b8:	e5941000 	ldr	r1, [r4]
    87bc:	e5942004 	ldr	r2, [r4, #4]
    87c0:	eb000011 	bl	880c <printk>
    87c4:	e2855001 	add	r5, r5, #1
    87c8:	e2844008 	add	r4, r4, #8
    87cc:	e5963004 	ldr	r3, [r6, #4]
    87d0:	e1550003 	cmp	r5, r3
    87d4:	3afffff6 	bcc	87b4 <notmain+0xac>
    87d8:	e59f0028 	ldr	r0, [pc, #40]	; 8808 <notmain+0x100>
    87dc:	eb00000a 	bl	880c <printk>
    87e0:	eb000168 	bl	8d88 <clean_reboot>
    87e4:	000017bc 			; <UNDEFINED> instruction: 0x000017bc
    87e8:	0001c200 	andeq	ip, r1, r0, lsl #4
    87ec:	00009afc 	strdeq	r9, [r0], -ip
    87f0:	00009a48 	andeq	r9, r0, r8, asr #20
    87f4:	00009a24 	andeq	r9, r0, r4, lsr #20
    87f8:	00009dac 	andeq	r9, r0, ip, lsr #27
    87fc:	00009b2c 	andeq	r9, r0, ip, lsr #22
    8800:	0000a1c0 	andeq	sl, r0, r0, asr #3
    8804:	00009b38 	andeq	r9, r0, r8, lsr fp
    8808:	00009b48 	andeq	r9, r0, r8, asr #22

0000880c <printk>:
    880c:	e92d000f 	push	{r0, r1, r2, r3}
    8810:	e92d4030 	push	{r4, r5, lr}
    8814:	e24dd00c 	sub	sp, sp, #12
    8818:	e28d301c 	add	r3, sp, #28
    881c:	e58d3004 	str	r3, [sp, #4]
    8820:	e59f4034 	ldr	r4, [pc, #52]	; 885c <printk+0x50>
    8824:	e1a00004 	mov	r0, r4
    8828:	e3a01b01 	mov	r1, #1024	; 0x400
    882c:	e59d2018 	ldr	r2, [sp, #24]
    8830:	eb0000b2 	bl	8b00 <va_printk>
    8834:	e1a05000 	mov	r5, r0
    8838:	e59f3020 	ldr	r3, [pc, #32]	; 8860 <printk+0x54>
    883c:	e5933000 	ldr	r3, [r3]
    8840:	e1a00004 	mov	r0, r4
    8844:	e12fff33 	blx	r3
    8848:	e1a00005 	mov	r0, r5
    884c:	e28dd00c 	add	sp, sp, #12
    8850:	e8bd4030 	pop	{r4, r5, lr}
    8854:	e28dd010 	add	sp, sp, #16
    8858:	e12fff1e 	bx	lr
    885c:	00009dbc 			; <UNDEFINED> instruction: 0x00009dbc
    8860:	00009910 	andeq	r9, r0, r0, lsl r9

00008864 <internal_putk>:
    8864:	e92d4038 	push	{r3, r4, r5, lr}
    8868:	e1a04000 	mov	r4, r0
    886c:	e59f5020 	ldr	r5, [pc, #32]	; 8894 <internal_putk+0x30>
    8870:	ea000002 	b	8880 <internal_putk+0x1c>
    8874:	e5953000 	ldr	r3, [r5]
    8878:	e12fff33 	blx	r3
    887c:	e2844001 	add	r4, r4, #1
    8880:	e5d40000 	ldrb	r0, [r4]
    8884:	e3500000 	cmp	r0, #0
    8888:	1afffff9 	bne	8874 <internal_putk+0x10>
    888c:	e3a00001 	mov	r0, #1
    8890:	e8bd8038 	pop	{r3, r4, r5, pc}
    8894:	000099a8 	andeq	r9, r0, r8, lsr #19

00008898 <isdigit>:
    8898:	e2400030 	sub	r0, r0, #48	; 0x30
    889c:	e3500009 	cmp	r0, #9
    88a0:	83a00000 	movhi	r0, #0
    88a4:	93a00001 	movls	r0, #1
    88a8:	e12fff1e 	bx	lr

000088ac <pad>:
    88ac:	e0611000 	rsb	r1, r1, r0
    88b0:	e3a03020 	mov	r3, #32
    88b4:	ea000002 	b	88c4 <pad+0x18>
    88b8:	e5c03000 	strb	r3, [r0]
    88bc:	e2811001 	add	r1, r1, #1
    88c0:	e2800001 	add	r0, r0, #1
    88c4:	e1510002 	cmp	r1, r2
    88c8:	bafffffa 	blt	88b8 <pad+0xc>
    88cc:	e3a03000 	mov	r3, #0
    88d0:	e5c03000 	strb	r3, [r0]
    88d4:	e12fff1e 	bx	lr

000088d8 <reverse>:
    88d8:	e063c002 	rsb	ip, r3, r2
    88dc:	e28cc001 	add	ip, ip, #1
    88e0:	e15c0001 	cmp	ip, r1
    88e4:	c061100c 	rsbgt	r1, r1, ip
    88e8:	c0833001 	addgt	r3, r3, r1
    88ec:	e2422001 	sub	r2, r2, #1
    88f0:	e1a01000 	mov	r1, r0
    88f4:	ea000002 	b	8904 <reverse+0x2c>
    88f8:	e452c001 	ldrb	ip, [r2], #-1
    88fc:	e5c1c000 	strb	ip, [r1]
    8900:	e2811001 	add	r1, r1, #1
    8904:	e1520003 	cmp	r2, r3
    8908:	2afffffa 	bcs	88f8 <reverse+0x20>
    890c:	e3a03000 	mov	r3, #0
    8910:	e5c13000 	strb	r3, [r1]
    8914:	e12fff1e 	bx	lr

00008918 <emit>:
    8918:	e92d41f0 	push	{r4, r5, r6, r7, r8, lr}
    891c:	e24dd040 	sub	sp, sp, #64	; 0x40
    8920:	e1a05001 	mov	r5, r1
    8924:	e1a04002 	mov	r4, r2
    8928:	e59d2058 	ldr	r2, [sp, #88]	; 0x58
    892c:	e1520004 	cmp	r2, r4
    8930:	c2442001 	subgt	r2, r4, #1
    8934:	e1a0c003 	mov	ip, r3
    8938:	e2400002 	sub	r0, r0, #2
    893c:	e350000e 	cmp	r0, #14
    8940:	979ff100 	ldrls	pc, [pc, r0, lsl #2]
    8944:	ea000042 	b	8a54 <emit+0x13c>
    8948:	00008a2c 	andeq	r8, r0, ip, lsr #20
    894c:	00008a54 	andeq	r8, r0, r4, asr sl
    8950:	00008a54 	andeq	r8, r0, r4, asr sl
    8954:	00008a54 	andeq	r8, r0, r4, asr sl
    8958:	00008a54 	andeq	r8, r0, r4, asr sl
    895c:	00008a54 	andeq	r8, r0, r4, asr sl
    8960:	00008a20 	andeq	r8, r0, r0, lsr #20
    8964:	00008a54 	andeq	r8, r0, r4, asr sl
    8968:	00008984 	andeq	r8, r0, r4, lsl #19
    896c:	00008a54 	andeq	r8, r0, r4, asr sl
    8970:	00008a54 	andeq	r8, r0, r4, asr sl
    8974:	00008a54 	andeq	r8, r0, r4, asr sl
    8978:	00008a54 	andeq	r8, r0, r4, asr sl
    897c:	00008a54 	andeq	r8, r0, r4, asr sl
    8980:	000089f8 	strdeq	r8, [r0], -r8	; <UNPREDICTABLE>
    8984:	e59d105c 	ldr	r1, [sp, #92]	; 0x5c
    8988:	e2911000 	adds	r1, r1, #0
    898c:	13a01001 	movne	r1, #1
    8990:	e0111fa3 	ands	r1, r1, r3, lsr #31
    8994:	1263c000 	rsbne	ip, r3, #0
    8998:	13a08001 	movne	r8, #1
    899c:	03a08000 	moveq	r8, #0
    89a0:	e1a0100d 	mov	r1, sp
    89a4:	e59f70e8 	ldr	r7, [pc, #232]	; 8a94 <emit+0x17c>
    89a8:	e59f60e8 	ldr	r6, [pc, #232]	; 8a98 <emit+0x180>
    89ac:	ea000000 	b	89b4 <emit+0x9c>
    89b0:	e1a01003 	mov	r1, r3
    89b4:	e2813001 	add	r3, r1, #1
    89b8:	e08e0c97 	umull	r0, lr, r7, ip
    89bc:	e1a0e1ae 	lsr	lr, lr, #3
    89c0:	e1a0000e 	mov	r0, lr
    89c4:	e08ee10e 	add	lr, lr, lr, lsl #2
    89c8:	e1a0e08e 	lsl	lr, lr, #1
    89cc:	e06ee00c 	rsb	lr, lr, ip
    89d0:	e7d6c00e 	ldrb	ip, [r6, lr]
    89d4:	e5c1c000 	strb	ip, [r1]
    89d8:	e1a0c000 	mov	ip, r0
    89dc:	e3500000 	cmp	r0, #0
    89e0:	1afffff2 	bne	89b0 <emit+0x98>
    89e4:	e3580000 	cmp	r8, #0
    89e8:	12813002 	addne	r3, r1, #2
    89ec:	13a0002d 	movne	r0, #45	; 0x2d
    89f0:	15c10001 	strbne	r0, [r1, #1]
    89f4:	ea00001c 	b	8a6c <emit+0x154>
    89f8:	e1a0e00d 	mov	lr, sp
    89fc:	e59f0098 	ldr	r0, [pc, #152]	; 8a9c <emit+0x184>
    8a00:	e28e3001 	add	r3, lr, #1
    8a04:	e20c100f 	and	r1, ip, #15
    8a08:	e7d01001 	ldrb	r1, [r0, r1]
    8a0c:	e5ce1000 	strb	r1, [lr]
    8a10:	e1a0e003 	mov	lr, r3
    8a14:	e1b0c22c 	lsrs	ip, ip, #4
    8a18:	1afffff8 	bne	8a00 <emit+0xe8>
    8a1c:	ea000012 	b	8a6c <emit+0x154>
    8a20:	e5cd3000 	strb	r3, [sp]
    8a24:	e28d3001 	add	r3, sp, #1
    8a28:	ea00000f 	b	8a6c <emit+0x154>
    8a2c:	e1a0e00d 	mov	lr, sp
    8a30:	e59f0068 	ldr	r0, [pc, #104]	; 8aa0 <emit+0x188>
    8a34:	e28e3001 	add	r3, lr, #1
    8a38:	e20c1001 	and	r1, ip, #1
    8a3c:	e7d01001 	ldrb	r1, [r0, r1]
    8a40:	e5ce1000 	strb	r1, [lr]
    8a44:	e1a0e003 	mov	lr, r3
    8a48:	e1b0c0ac 	lsrs	ip, ip, #1
    8a4c:	1afffff8 	bne	8a34 <emit+0x11c>
    8a50:	ea000005 	b	8a6c <emit+0x154>
    8a54:	e59f0048 	ldr	r0, [pc, #72]	; 8aa4 <emit+0x18c>
    8a58:	e59f1048 	ldr	r1, [pc, #72]	; 8aa8 <emit+0x190>
    8a5c:	e59f2048 	ldr	r2, [pc, #72]	; 8aac <emit+0x194>
    8a60:	e3a03075 	mov	r3, #117	; 0x75
    8a64:	ebffff68 	bl	880c <printk>
    8a68:	eb0000c6 	bl	8d88 <clean_reboot>
    8a6c:	e1a00003 	mov	r0, r3
    8a70:	e1a0100d 	mov	r1, sp
    8a74:	ebffff8c 	bl	88ac <pad>
    8a78:	e1a02000 	mov	r2, r0
    8a7c:	e1a00005 	mov	r0, r5
    8a80:	e1a01004 	mov	r1, r4
    8a84:	e1a0300d 	mov	r3, sp
    8a88:	ebffff92 	bl	88d8 <reverse>
    8a8c:	e28dd040 	add	sp, sp, #64	; 0x40
    8a90:	e8bd81f0 	pop	{r4, r5, r6, r7, r8, pc}
    8a94:	cccccccd 	stclgt	12, cr12, [ip], {205}	; 0xcd
    8a98:	00009ba0 	andeq	r9, r0, r0, lsr #23
    8a9c:	00009bac 	andeq	r9, r0, ip, lsr #23
    8aa0:	00009bc0 	andeq	r9, r0, r0, asr #23
    8aa4:	00009b78 	andeq	r9, r0, r8, ror fp
    8aa8:	00009b8c 	andeq	r9, r0, ip, lsl #23
    8aac:	00009b54 	andeq	r9, r0, r4, asr fp

00008ab0 <rpi_set_output>:
    8ab0:	e92d4008 	push	{r3, lr}
    8ab4:	e3500000 	cmp	r0, #0
    8ab8:	1a000005 	bne	8ad4 <rpi_set_output+0x24>
    8abc:	e59f0028 	ldr	r0, [pc, #40]	; 8aec <rpi_set_output+0x3c>
    8ac0:	e59f1028 	ldr	r1, [pc, #40]	; 8af0 <rpi_set_output+0x40>
    8ac4:	e59f2028 	ldr	r2, [pc, #40]	; 8af4 <rpi_set_output+0x44>
    8ac8:	e3a03020 	mov	r3, #32
    8acc:	ebffff4e 	bl	880c <printk>
    8ad0:	eb0000ac 	bl	8d88 <clean_reboot>
    8ad4:	e59f301c 	ldr	r3, [pc, #28]	; 8af8 <rpi_set_output+0x48>
    8ad8:	e5830000 	str	r0, [r3]
    8adc:	e3510000 	cmp	r1, #0
    8ae0:	159f3014 	ldrne	r3, [pc, #20]	; 8afc <rpi_set_output+0x4c>
    8ae4:	15831000 	strne	r1, [r3]
    8ae8:	e8bd8008 	pop	{r3, pc}
    8aec:	00009bc4 	andeq	r9, r0, r4, asr #23
    8af0:	00009b8c 	andeq	r9, r0, ip, lsl #23
    8af4:	00009b5c 	andeq	r9, r0, ip, asr fp
    8af8:	000099a8 	andeq	r9, r0, r8, lsr #19
    8afc:	00009910 	andeq	r9, r0, r0, lsl r9

00008b00 <va_printk>:
    8b00:	e92d4ff0 	push	{r4, r5, r6, r7, r8, r9, sl, fp, lr}
    8b04:	e24dd08c 	sub	sp, sp, #140	; 0x8c
    8b08:	e1a0b000 	mov	fp, r0
    8b0c:	e1a0a003 	mov	sl, r3
    8b10:	e2411001 	sub	r1, r1, #1
    8b14:	e0808001 	add	r8, r0, r1
    8b18:	e3a03000 	mov	r3, #0
    8b1c:	e5c03000 	strb	r3, [r0]
    8b20:	e1a04000 	mov	r4, r0
    8b24:	ea000087 	b	8d48 <va_printk+0x248>
    8b28:	e3530025 	cmp	r3, #37	; 0x25
    8b2c:	12822001 	addne	r2, r2, #1
    8b30:	15c43000 	strbne	r3, [r4]
    8b34:	12844001 	addne	r4, r4, #1
    8b38:	1a000082 	bne	8d48 <va_printk+0x248>
    8b3c:	e5d21001 	ldrb	r1, [r2, #1]
    8b40:	e3510025 	cmp	r1, #37	; 0x25
    8b44:	05c43000 	strbeq	r3, [r4]
    8b48:	02822002 	addeq	r2, r2, #2
    8b4c:	02844001 	addeq	r4, r4, #1
    8b50:	0a00007c 	beq	8d48 <va_printk+0x248>
    8b54:	e2826001 	add	r6, r2, #1
    8b58:	e3a07000 	mov	r7, #0
    8b5c:	ea000004 	b	8b74 <va_printk+0x74>
    8b60:	e0877107 	add	r7, r7, r7, lsl #2
    8b64:	e1a07087 	lsl	r7, r7, #1
    8b68:	e0877005 	add	r7, r7, r5
    8b6c:	e2477030 	sub	r7, r7, #48	; 0x30
    8b70:	e2866001 	add	r6, r6, #1
    8b74:	e5d65000 	ldrb	r5, [r6]
    8b78:	e1a09005 	mov	r9, r5
    8b7c:	e1a00005 	mov	r0, r5
    8b80:	ebffff44 	bl	8898 <isdigit>
    8b84:	e3500000 	cmp	r0, #0
    8b88:	1afffff4 	bne	8b60 <va_printk+0x60>
    8b8c:	e357001f 	cmp	r7, #31
    8b90:	9a000005 	bls	8bac <va_printk+0xac>
    8b94:	e59f01d8 	ldr	r0, [pc, #472]	; 8d74 <va_printk+0x274>
    8b98:	e59f11d8 	ldr	r1, [pc, #472]	; 8d78 <va_printk+0x278>
    8b9c:	e59f21d8 	ldr	r2, [pc, #472]	; 8d7c <va_printk+0x27c>
    8ba0:	e3a03092 	mov	r3, #146	; 0x92
    8ba4:	ebffff18 	bl	880c <printk>
    8ba8:	eb000076 	bl	8d88 <clean_reboot>
    8bac:	e2455062 	sub	r5, r5, #98	; 0x62
    8bb0:	e3550016 	cmp	r5, #22
    8bb4:	979ff105 	ldrls	pc, [pc, r5, lsl #2]
    8bb8:	ea000051 	b	8d04 <va_printk+0x204>
    8bbc:	00008ca8 	andeq	r8, r0, r8, lsr #25
    8bc0:	00008cdc 	ldrdeq	r8, [r0], -ip
    8bc4:	00008c30 	andeq	r8, r0, r0, lsr ip
    8bc8:	00008d04 	andeq	r8, r0, r4, lsl #26
    8bcc:	00008c18 	andeq	r8, r0, r8, lsl ip
    8bd0:	00008d04 	andeq	r8, r0, r4, lsl #26
    8bd4:	00008d04 	andeq	r8, r0, r4, lsl #26
    8bd8:	00008d04 	andeq	r8, r0, r4, lsl #26
    8bdc:	00008d04 	andeq	r8, r0, r4, lsl #26
    8be0:	00008d04 	andeq	r8, r0, r4, lsl #26
    8be4:	00008d04 	andeq	r8, r0, r4, lsl #26
    8be8:	00008d04 	andeq	r8, r0, r4, lsl #26
    8bec:	00008d04 	andeq	r8, r0, r4, lsl #26
    8bf0:	00008d04 	andeq	r8, r0, r4, lsl #26
    8bf4:	00008c80 	andeq	r8, r0, r0, lsl #25
    8bf8:	00008d04 	andeq	r8, r0, r4, lsl #26
    8bfc:	00008d04 	andeq	r8, r0, r4, lsl #26
    8c00:	00008cd0 	ldrdeq	r8, [r0], -r0
    8c04:	00008d04 	andeq	r8, r0, r4, lsl #26
    8c08:	00008c58 	andeq	r8, r0, r8, asr ip
    8c0c:	00008d04 	andeq	r8, r0, r4, lsl #26
    8c10:	00008d04 	andeq	r8, r0, r4, lsl #26
    8c14:	00008c80 	andeq	r8, r0, r0, lsl #25
    8c18:	e59f0160 	ldr	r0, [pc, #352]	; 8d80 <va_printk+0x280>
    8c1c:	e59f1154 	ldr	r1, [pc, #340]	; 8d78 <va_printk+0x278>
    8c20:	e59f2154 	ldr	r2, [pc, #340]	; 8d7c <va_printk+0x27c>
    8c24:	e3a03098 	mov	r3, #152	; 0x98
    8c28:	ebfffef7 	bl	880c <printk>
    8c2c:	eb000055 	bl	8d88 <clean_reboot>
    8c30:	e59a3000 	ldr	r3, [sl]
    8c34:	e28aa004 	add	sl, sl, #4
    8c38:	e58d7000 	str	r7, [sp]
    8c3c:	e3a02001 	mov	r2, #1
    8c40:	e58d2004 	str	r2, [sp, #4]
    8c44:	e3a0000a 	mov	r0, #10
    8c48:	e28d1008 	add	r1, sp, #8
    8c4c:	e3a02080 	mov	r2, #128	; 0x80
    8c50:	ebffff30 	bl	8918 <emit>
    8c54:	ea000031 	b	8d20 <va_printk+0x220>
    8c58:	e59a3000 	ldr	r3, [sl]
    8c5c:	e28aa004 	add	sl, sl, #4
    8c60:	e58d7000 	str	r7, [sp]
    8c64:	e3a02000 	mov	r2, #0
    8c68:	e58d2004 	str	r2, [sp, #4]
    8c6c:	e3a0000a 	mov	r0, #10
    8c70:	e28d1008 	add	r1, sp, #8
    8c74:	e3a02080 	mov	r2, #128	; 0x80
    8c78:	ebffff26 	bl	8918 <emit>
    8c7c:	ea000027 	b	8d20 <va_printk+0x220>
    8c80:	e59a3000 	ldr	r3, [sl]
    8c84:	e28aa004 	add	sl, sl, #4
    8c88:	e58d7000 	str	r7, [sp]
    8c8c:	e3a02000 	mov	r2, #0
    8c90:	e58d2004 	str	r2, [sp, #4]
    8c94:	e3a00010 	mov	r0, #16
    8c98:	e28d1008 	add	r1, sp, #8
    8c9c:	e3a02080 	mov	r2, #128	; 0x80
    8ca0:	ebffff1c 	bl	8918 <emit>
    8ca4:	ea00001d 	b	8d20 <va_printk+0x220>
    8ca8:	e59a3000 	ldr	r3, [sl]
    8cac:	e28aa004 	add	sl, sl, #4
    8cb0:	e58d7000 	str	r7, [sp]
    8cb4:	e3a02000 	mov	r2, #0
    8cb8:	e58d2004 	str	r2, [sp, #4]
    8cbc:	e3a00002 	mov	r0, #2
    8cc0:	e28d1008 	add	r1, sp, #8
    8cc4:	e3a02080 	mov	r2, #128	; 0x80
    8cc8:	ebffff12 	bl	8918 <emit>
    8ccc:	ea000013 	b	8d20 <va_printk+0x220>
    8cd0:	e59a0000 	ldr	r0, [sl]
    8cd4:	e28aa004 	add	sl, sl, #4
    8cd8:	ea000010 	b	8d20 <va_printk+0x220>
    8cdc:	e59a3000 	ldr	r3, [sl]
    8ce0:	e28aa004 	add	sl, sl, #4
    8ce4:	e58d7000 	str	r7, [sp]
    8ce8:	e3a02000 	mov	r2, #0
    8cec:	e58d2004 	str	r2, [sp, #4]
    8cf0:	e3a00008 	mov	r0, #8
    8cf4:	e08d1000 	add	r1, sp, r0
    8cf8:	e3a02080 	mov	r2, #128	; 0x80
    8cfc:	ebffff05 	bl	8918 <emit>
    8d00:	ea000006 	b	8d20 <va_printk+0x220>
    8d04:	e58d9000 	str	r9, [sp]
    8d08:	e59f0074 	ldr	r0, [pc, #116]	; 8d84 <va_printk+0x284>
    8d0c:	e59f1064 	ldr	r1, [pc, #100]	; 8d78 <va_printk+0x278>
    8d10:	e59f2064 	ldr	r2, [pc, #100]	; 8d7c <va_printk+0x27c>
    8d14:	e3a030b9 	mov	r3, #185	; 0xb9
    8d18:	ebfffebb 	bl	880c <printk>
    8d1c:	eb000019 	bl	8d88 <clean_reboot>
    8d20:	e2862001 	add	r2, r6, #1
    8d24:	ea000002 	b	8d34 <va_printk+0x234>
    8d28:	e2800001 	add	r0, r0, #1
    8d2c:	e5c43000 	strb	r3, [r4]
    8d30:	e2844001 	add	r4, r4, #1
    8d34:	e1540008 	cmp	r4, r8
    8d38:	2a000002 	bcs	8d48 <va_printk+0x248>
    8d3c:	e5d03000 	ldrb	r3, [r0]
    8d40:	e3530000 	cmp	r3, #0
    8d44:	1afffff7 	bne	8d28 <va_printk+0x228>
    8d48:	e5d23000 	ldrb	r3, [r2]
    8d4c:	e3530000 	cmp	r3, #0
    8d50:	0a000001 	beq	8d5c <va_printk+0x25c>
    8d54:	e1540008 	cmp	r4, r8
    8d58:	3affff72 	bcc	8b28 <va_printk+0x28>
    8d5c:	e2840001 	add	r0, r4, #1
    8d60:	e3a03000 	mov	r3, #0
    8d64:	e5c43000 	strb	r3, [r4]
    8d68:	e06b0000 	rsb	r0, fp, r0
    8d6c:	e28dd08c 	add	sp, sp, #140	; 0x8c
    8d70:	e8bd8ff0 	pop	{r4, r5, r6, r7, r8, r9, sl, fp, pc}
    8d74:	00009bdc 	ldrdeq	r9, [r0], -ip
    8d78:	00009b8c 	andeq	r9, r0, ip, lsl #23
    8d7c:	00009b6c 	andeq	r9, r0, ip, ror #22
    8d80:	00009bf8 	strdeq	r9, [r0], -r8
    8d84:	00009c20 	andeq	r9, r0, r0, lsr #24

00008d88 <clean_reboot>:
    8d88:	e92d4008 	push	{r3, lr}
    8d8c:	e59f3014 	ldr	r3, [pc, #20]	; 8da8 <clean_reboot+0x20>
    8d90:	e5933000 	ldr	r3, [r3]
    8d94:	e59f0010 	ldr	r0, [pc, #16]	; 8dac <clean_reboot+0x24>
    8d98:	e12fff33 	blx	r3
    8d9c:	e3a00064 	mov	r0, #100	; 0x64
    8da0:	eb000044 	bl	8eb8 <delay_ms>
    8da4:	eb000019 	bl	8e10 <rpi_reboot>
    8da8:	00009910 	andeq	r9, r0, r0, lsl r9
    8dac:	00009c58 	andeq	r9, r0, r8, asr ip

00008db0 <_cstart>:
    8db0:	e92d4008 	push	{r3, lr}
    8db4:	e59f3020 	ldr	r3, [pc, #32]	; 8ddc <_cstart+0x2c>
    8db8:	e59f2020 	ldr	r2, [pc, #32]	; 8de0 <_cstart+0x30>
    8dbc:	e3a01000 	mov	r1, #0
    8dc0:	ea000001 	b	8dcc <_cstart+0x1c>
    8dc4:	e5831000 	str	r1, [r3]
    8dc8:	e2833004 	add	r3, r3, #4
    8dcc:	e1530002 	cmp	r3, r2
    8dd0:	3afffffb 	bcc	8dc4 <_cstart+0x14>
    8dd4:	ebfffe4b 	bl	8708 <notmain>
    8dd8:	eb00000c 	bl	8e10 <rpi_reboot>
    8ddc:	00009dac 	andeq	r9, r0, ip, lsr #27
    8de0:	0000a5c0 	andeq	sl, r0, r0, asr #11

00008de4 <at_user_level>:
    8de4:	e10f0000 	mrs	r0, CPSR
    8de8:	e200001f 	and	r0, r0, #31
    8dec:	e3500010 	cmp	r0, #16
    8df0:	13a00000 	movne	r0, #0
    8df4:	03a00001 	moveq	r0, #1
    8df8:	e12fff1e 	bx	lr

00008dfc <set_user_level>:
    8dfc:	e10f3000 	mrs	r3, CPSR
    8e00:	e3c3301f 	bic	r3, r3, #31
    8e04:	e3833010 	orr	r3, r3, #16
    8e08:	e129f003 	msr	CPSR_fc, r3
    8e0c:	e12fff1e 	bx	lr

00008e10 <rpi_reboot>:
    8e10:	e92d4008 	push	{r3, lr}
    8e14:	ebfffff2 	bl	8de4 <at_user_level>
    8e18:	e3500000 	cmp	r0, #0
    8e1c:	0a000000 	beq	8e24 <rpi_reboot+0x14>
    8e20:	ebfffff5 	bl	8dfc <set_user_level>
    8e24:	e3a0001e 	mov	r0, #30
    8e28:	eb000022 	bl	8eb8 <delay_ms>
    8e2c:	e59f0014 	ldr	r0, [pc, #20]	; 8e48 <rpi_reboot+0x38>
    8e30:	e59f1014 	ldr	r1, [pc, #20]	; 8e4c <rpi_reboot+0x3c>
    8e34:	eb000214 	bl	968c <PUT32>
    8e38:	e59f0010 	ldr	r0, [pc, #16]	; 8e50 <rpi_reboot+0x40>
    8e3c:	e59f1010 	ldr	r1, [pc, #16]	; 8e54 <rpi_reboot+0x44>
    8e40:	eb000211 	bl	968c <PUT32>
    8e44:	eafffffe 	b	8e44 <rpi_reboot+0x34>
    8e48:	20100024 	andscs	r0, r0, r4, lsr #32
    8e4c:	5a000001 	bpl	8e58 <delay_cycles>
    8e50:	2010001c 	andscs	r0, r0, ip, lsl r0
    8e54:	5a000020 	bpl	8edc <delay_sec+0x10>

00008e58 <delay_cycles>:
    8e58:	ea000001 	b	8e64 <delay_cycles+0xc>
    8e5c:	e2811000 	add	r1, r1, #0
    8e60:	e1a00003 	mov	r0, r3
    8e64:	e2403001 	sub	r3, r0, #1
    8e68:	e3500000 	cmp	r0, #0
    8e6c:	1afffffa 	bne	8e5c <delay_cycles+0x4>
    8e70:	e12fff1e 	bx	lr

00008e74 <timer_get_usec_raw>:
    8e74:	e92d4008 	push	{r3, lr}
    8e78:	e59f0004 	ldr	r0, [pc, #4]	; 8e84 <timer_get_usec_raw+0x10>
    8e7c:	eb00020e 	bl	96bc <GET32>
    8e80:	e8bd8008 	pop	{r3, pc}
    8e84:	20003004 	andcs	r3, r0, r4

00008e88 <timer_get_usec>:
    8e88:	e92d4008 	push	{r3, lr}
    8e8c:	ebfffff8 	bl	8e74 <timer_get_usec_raw>
    8e90:	e8bd8008 	pop	{r3, pc}

00008e94 <delay_us>:
    8e94:	e92d4038 	push	{r3, r4, r5, lr}
    8e98:	e1a05000 	mov	r5, r0
    8e9c:	ebfffff9 	bl	8e88 <timer_get_usec>
    8ea0:	e1a04000 	mov	r4, r0
    8ea4:	ebfffff7 	bl	8e88 <timer_get_usec>
    8ea8:	e0640000 	rsb	r0, r4, r0
    8eac:	e1500005 	cmp	r0, r5
    8eb0:	3afffffb 	bcc	8ea4 <delay_us+0x10>
    8eb4:	e8bd8038 	pop	{r3, r4, r5, pc}

00008eb8 <delay_ms>:
    8eb8:	e92d4008 	push	{r3, lr}
    8ebc:	e3a03ffa 	mov	r3, #1000	; 0x3e8
    8ec0:	e0000093 	mul	r0, r3, r0
    8ec4:	ebfffff2 	bl	8e94 <delay_us>
    8ec8:	e8bd8008 	pop	{r3, pc}

00008ecc <delay_sec>:
    8ecc:	e92d4008 	push	{r3, lr}
    8ed0:	e3a03ffa 	mov	r3, #1000	; 0x3e8
    8ed4:	e0000093 	mul	r0, r3, r0
    8ed8:	ebfffff6 	bl	8eb8 <delay_ms>
    8edc:	e8bd8008 	pop	{r3, pc}

00008ee0 <gpio_set_output>:
    8ee0:	e92d4038 	push	{r3, r4, r5, lr}
    8ee4:	e1a04000 	mov	r4, r0
    8ee8:	e350001f 	cmp	r0, #31
    8eec:	88bd8038 	pophi	{r3, r4, r5, pc}
    8ef0:	e59f30b4 	ldr	r3, [pc, #180]	; 8fac <gpio_set_output+0xcc>
    8ef4:	e0832093 	umull	r2, r3, r3, r0
    8ef8:	e1a031a3 	lsr	r3, r3, #3
    8efc:	e3530005 	cmp	r3, #5
    8f00:	979ff103 	ldrls	pc, [pc, r3, lsl #2]
    8f04:	ea000017 	b	8f68 <gpio_set_output+0x88>
    8f08:	00008f20 	andeq	r8, r0, r0, lsr #30
    8f0c:	00008f2c 	andeq	r8, r0, ip, lsr #30
    8f10:	00008f38 	andeq	r8, r0, r8, lsr pc
    8f14:	00008f44 	andeq	r8, r0, r4, asr #30
    8f18:	00008f50 	andeq	r8, r0, r0, asr pc
    8f1c:	00008f5c 	andeq	r8, r0, ip, asr pc
    8f20:	e59f3088 	ldr	r3, [pc, #136]	; 8fb0 <gpio_set_output+0xd0>
    8f24:	e5935000 	ldr	r5, [r3]
    8f28:	ea00000f 	b	8f6c <gpio_set_output+0x8c>
    8f2c:	e59f307c 	ldr	r3, [pc, #124]	; 8fb0 <gpio_set_output+0xd0>
    8f30:	e5935004 	ldr	r5, [r3, #4]
    8f34:	ea00000c 	b	8f6c <gpio_set_output+0x8c>
    8f38:	e59f3070 	ldr	r3, [pc, #112]	; 8fb0 <gpio_set_output+0xd0>
    8f3c:	e5935008 	ldr	r5, [r3, #8]
    8f40:	ea000009 	b	8f6c <gpio_set_output+0x8c>
    8f44:	e59f3064 	ldr	r3, [pc, #100]	; 8fb0 <gpio_set_output+0xd0>
    8f48:	e593500c 	ldr	r5, [r3, #12]
    8f4c:	ea000006 	b	8f6c <gpio_set_output+0x8c>
    8f50:	e59f3058 	ldr	r3, [pc, #88]	; 8fb0 <gpio_set_output+0xd0>
    8f54:	e5935010 	ldr	r5, [r3, #16]
    8f58:	ea000003 	b	8f6c <gpio_set_output+0x8c>
    8f5c:	e59f304c 	ldr	r3, [pc, #76]	; 8fb0 <gpio_set_output+0xd0>
    8f60:	e5935014 	ldr	r5, [r3, #20]
    8f64:	ea000000 	b	8f6c <gpio_set_output+0x8c>
    8f68:	e3a05000 	mov	r5, #0
    8f6c:	e1a00005 	mov	r0, r5
    8f70:	eb0001cf 	bl	96b4 <get32>
    8f74:	e59f1030 	ldr	r1, [pc, #48]	; 8fac <gpio_set_output+0xcc>
    8f78:	e0813491 	umull	r3, r1, r1, r4
    8f7c:	e1a011a1 	lsr	r1, r1, #3
    8f80:	e0811101 	add	r1, r1, r1, lsl #2
    8f84:	e1a01081 	lsl	r1, r1, #1
    8f88:	e0611004 	rsb	r1, r1, r4
    8f8c:	e0811081 	add	r1, r1, r1, lsl #1
    8f90:	e3a03007 	mov	r3, #7
    8f94:	e1c03113 	bic	r3, r0, r3, lsl r1
    8f98:	e1a00005 	mov	r0, r5
    8f9c:	e3a02001 	mov	r2, #1
    8fa0:	e1831112 	orr	r1, r3, r2, lsl r1
    8fa4:	eb0001b6 	bl	9684 <put32>
    8fa8:	e8bd8038 	pop	{r3, r4, r5, pc}
    8fac:	cccccccd 	stclgt	12, cr12, [ip], {205}	; 0xcd
    8fb0:	00009914 	andeq	r9, r0, r4, lsl r9

00008fb4 <gpio_set_on>:
    8fb4:	e92d4008 	push	{r3, lr}
    8fb8:	e350001f 	cmp	r0, #31
    8fbc:	88bd8008 	pophi	{r3, pc}
    8fc0:	959f3020 	ldrls	r3, [pc, #32]	; 8fe8 <gpio_set_on+0x34>
    8fc4:	95932018 	ldrls	r2, [r3, #24]
    8fc8:	859f3018 	ldrhi	r3, [pc, #24]	; 8fe8 <gpio_set_on+0x34>
    8fcc:	8593201c 	ldrhi	r2, [r3, #28]
    8fd0:	e200301f 	and	r3, r0, #31
    8fd4:	e1a00002 	mov	r0, r2
    8fd8:	e3a01001 	mov	r1, #1
    8fdc:	e1a01311 	lsl	r1, r1, r3
    8fe0:	eb0001a7 	bl	9684 <put32>
    8fe4:	e8bd8008 	pop	{r3, pc}
    8fe8:	00009914 	andeq	r9, r0, r4, lsl r9

00008fec <gpio_set_off>:
    8fec:	e92d4008 	push	{r3, lr}
    8ff0:	e350001f 	cmp	r0, #31
    8ff4:	88bd8008 	pophi	{r3, pc}
    8ff8:	959f3020 	ldrls	r3, [pc, #32]	; 9020 <gpio_set_off+0x34>
    8ffc:	95932020 	ldrls	r2, [r3, #32]
    9000:	859f3018 	ldrhi	r3, [pc, #24]	; 9020 <gpio_set_off+0x34>
    9004:	85932024 	ldrhi	r2, [r3, #36]	; 0x24
    9008:	e200301f 	and	r3, r0, #31
    900c:	e1a00002 	mov	r0, r2
    9010:	e3a01001 	mov	r1, #1
    9014:	e1a01311 	lsl	r1, r1, r3
    9018:	eb000199 	bl	9684 <put32>
    901c:	e8bd8008 	pop	{r3, pc}
    9020:	00009914 	andeq	r9, r0, r4, lsl r9

00009024 <gpio_set_input>:
    9024:	e92d4038 	push	{r3, r4, r5, lr}
    9028:	e1a04000 	mov	r4, r0
    902c:	e350001f 	cmp	r0, #31
    9030:	88bd8038 	pophi	{r3, r4, r5, pc}
    9034:	e59f30ac 	ldr	r3, [pc, #172]	; 90e8 <gpio_set_input+0xc4>
    9038:	e0832093 	umull	r2, r3, r3, r0
    903c:	e1a031a3 	lsr	r3, r3, #3
    9040:	e3530005 	cmp	r3, #5
    9044:	979ff103 	ldrls	pc, [pc, r3, lsl #2]
    9048:	ea000017 	b	90ac <gpio_set_input+0x88>
    904c:	00009064 	andeq	r9, r0, r4, rrx
    9050:	00009070 	andeq	r9, r0, r0, ror r0
    9054:	0000907c 	andeq	r9, r0, ip, ror r0
    9058:	00009088 	andeq	r9, r0, r8, lsl #1
    905c:	00009094 	muleq	r0, r4, r0
    9060:	000090a0 	andeq	r9, r0, r0, lsr #1
    9064:	e59f3080 	ldr	r3, [pc, #128]	; 90ec <gpio_set_input+0xc8>
    9068:	e5935000 	ldr	r5, [r3]
    906c:	ea00000f 	b	90b0 <gpio_set_input+0x8c>
    9070:	e59f3074 	ldr	r3, [pc, #116]	; 90ec <gpio_set_input+0xc8>
    9074:	e5935004 	ldr	r5, [r3, #4]
    9078:	ea00000c 	b	90b0 <gpio_set_input+0x8c>
    907c:	e59f3068 	ldr	r3, [pc, #104]	; 90ec <gpio_set_input+0xc8>
    9080:	e5935008 	ldr	r5, [r3, #8]
    9084:	ea000009 	b	90b0 <gpio_set_input+0x8c>
    9088:	e59f305c 	ldr	r3, [pc, #92]	; 90ec <gpio_set_input+0xc8>
    908c:	e593500c 	ldr	r5, [r3, #12]
    9090:	ea000006 	b	90b0 <gpio_set_input+0x8c>
    9094:	e59f3050 	ldr	r3, [pc, #80]	; 90ec <gpio_set_input+0xc8>
    9098:	e5935010 	ldr	r5, [r3, #16]
    909c:	ea000003 	b	90b0 <gpio_set_input+0x8c>
    90a0:	e59f3044 	ldr	r3, [pc, #68]	; 90ec <gpio_set_input+0xc8>
    90a4:	e5935014 	ldr	r5, [r3, #20]
    90a8:	ea000000 	b	90b0 <gpio_set_input+0x8c>
    90ac:	e3a05000 	mov	r5, #0
    90b0:	e1a00005 	mov	r0, r5
    90b4:	eb00017e 	bl	96b4 <get32>
    90b8:	e59f1028 	ldr	r1, [pc, #40]	; 90e8 <gpio_set_input+0xc4>
    90bc:	e0813491 	umull	r3, r1, r1, r4
    90c0:	e1a011a1 	lsr	r1, r1, #3
    90c4:	e0811101 	add	r1, r1, r1, lsl #2
    90c8:	e1a01081 	lsl	r1, r1, #1
    90cc:	e0611004 	rsb	r1, r1, r4
    90d0:	e0811081 	add	r1, r1, r1, lsl #1
    90d4:	e3a03007 	mov	r3, #7
    90d8:	e1c01113 	bic	r1, r0, r3, lsl r1
    90dc:	e1a00005 	mov	r0, r5
    90e0:	eb000167 	bl	9684 <put32>
    90e4:	e8bd8038 	pop	{r3, r4, r5, pc}
    90e8:	cccccccd 	stclgt	12, cr12, [ip], {205}	; 0xcd
    90ec:	00009914 	andeq	r9, r0, r4, lsl r9

000090f0 <gpio_read>:
    90f0:	e92d4010 	push	{r4, lr}
    90f4:	e1a04000 	mov	r4, r0
    90f8:	e350001f 	cmp	r0, #31
    90fc:	8a00000b 	bhi	9130 <gpio_read+0x40>
    9100:	8a000003 	bhi	9114 <gpio_read+0x24>
    9104:	e59f302c 	ldr	r3, [pc, #44]	; 9138 <gpio_read+0x48>
    9108:	e5930028 	ldr	r0, [r3, #40]	; 0x28
    910c:	eb000168 	bl	96b4 <get32>
    9110:	ea000002 	b	9120 <gpio_read+0x30>
    9114:	e59f301c 	ldr	r3, [pc, #28]	; 9138 <gpio_read+0x48>
    9118:	e593002c 	ldr	r0, [r3, #44]	; 0x2c
    911c:	eb000164 	bl	96b4 <get32>
    9120:	e204401f 	and	r4, r4, #31
    9124:	e3a03001 	mov	r3, #1
    9128:	e0000413 	and	r0, r0, r3, lsl r4
    912c:	e8bd8010 	pop	{r4, pc}
    9130:	e3e00000 	mvn	r0, #0
    9134:	e8bd8010 	pop	{r4, pc}
    9138:	00009914 	andeq	r9, r0, r4, lsl r9

0000913c <gpio_write>:
    913c:	e92d4008 	push	{r3, lr}
    9140:	e350001f 	cmp	r0, #31
    9144:	88bd8008 	pophi	{r3, pc}
    9148:	e3510000 	cmp	r1, #0
    914c:	0a00000b 	beq	9180 <gpio_write+0x44>
    9150:	e350001f 	cmp	r0, #31
    9154:	88bd8008 	pophi	{r3, pc}
    9158:	959f3050 	ldrls	r3, [pc, #80]	; 91b0 <gpio_write+0x74>
    915c:	95932018 	ldrls	r2, [r3, #24]
    9160:	859f3048 	ldrhi	r3, [pc, #72]	; 91b0 <gpio_write+0x74>
    9164:	8593201c 	ldrhi	r2, [r3, #28]
    9168:	e200301f 	and	r3, r0, #31
    916c:	e1a00002 	mov	r0, r2
    9170:	e3a01001 	mov	r1, #1
    9174:	e1a01311 	lsl	r1, r1, r3
    9178:	eb000141 	bl	9684 <put32>
    917c:	e8bd8008 	pop	{r3, pc}
    9180:	e350001f 	cmp	r0, #31
    9184:	88bd8008 	pophi	{r3, pc}
    9188:	959f3020 	ldrls	r3, [pc, #32]	; 91b0 <gpio_write+0x74>
    918c:	95932020 	ldrls	r2, [r3, #32]
    9190:	859f3018 	ldrhi	r3, [pc, #24]	; 91b0 <gpio_write+0x74>
    9194:	85932024 	ldrhi	r2, [r3, #36]	; 0x24
    9198:	e200301f 	and	r3, r0, #31
    919c:	e1a00002 	mov	r0, r2
    91a0:	e3a01001 	mov	r1, #1
    91a4:	e1a01311 	lsl	r1, r1, r3
    91a8:	eb000135 	bl	9684 <put32>
    91ac:	e8bd8008 	pop	{r3, pc}
    91b0:	00009914 	andeq	r9, r0, r4, lsl r9

000091b4 <gpio_set_function>:
    91b4:	e92d4070 	push	{r4, r5, r6, lr}
    91b8:	e1a04000 	mov	r4, r0
    91bc:	e1a05001 	mov	r5, r1
    91c0:	e3510007 	cmp	r1, #7
    91c4:	9350001f 	cmpls	r0, #31
    91c8:	88bd8070 	pophi	{r4, r5, r6, pc}
    91cc:	e59f30b0 	ldr	r3, [pc, #176]	; 9284 <gpio_set_function+0xd0>
    91d0:	e0832093 	umull	r2, r3, r3, r0
    91d4:	e1a031a3 	lsr	r3, r3, #3
    91d8:	e3530005 	cmp	r3, #5
    91dc:	979ff103 	ldrls	pc, [pc, r3, lsl #2]
    91e0:	ea000017 	b	9244 <gpio_set_function+0x90>
    91e4:	000091fc 	strdeq	r9, [r0], -ip
    91e8:	00009208 	andeq	r9, r0, r8, lsl #4
    91ec:	00009214 	andeq	r9, r0, r4, lsl r2
    91f0:	00009220 	andeq	r9, r0, r0, lsr #4
    91f4:	0000922c 	andeq	r9, r0, ip, lsr #4
    91f8:	00009238 	andeq	r9, r0, r8, lsr r2
    91fc:	e59f3084 	ldr	r3, [pc, #132]	; 9288 <gpio_set_function+0xd4>
    9200:	e5936000 	ldr	r6, [r3]
    9204:	ea00000f 	b	9248 <gpio_set_function+0x94>
    9208:	e59f3078 	ldr	r3, [pc, #120]	; 9288 <gpio_set_function+0xd4>
    920c:	e5936004 	ldr	r6, [r3, #4]
    9210:	ea00000c 	b	9248 <gpio_set_function+0x94>
    9214:	e59f306c 	ldr	r3, [pc, #108]	; 9288 <gpio_set_function+0xd4>
    9218:	e5936008 	ldr	r6, [r3, #8]
    921c:	ea000009 	b	9248 <gpio_set_function+0x94>
    9220:	e59f3060 	ldr	r3, [pc, #96]	; 9288 <gpio_set_function+0xd4>
    9224:	e593600c 	ldr	r6, [r3, #12]
    9228:	ea000006 	b	9248 <gpio_set_function+0x94>
    922c:	e59f3054 	ldr	r3, [pc, #84]	; 9288 <gpio_set_function+0xd4>
    9230:	e5936010 	ldr	r6, [r3, #16]
    9234:	ea000003 	b	9248 <gpio_set_function+0x94>
    9238:	e59f3048 	ldr	r3, [pc, #72]	; 9288 <gpio_set_function+0xd4>
    923c:	e5936014 	ldr	r6, [r3, #20]
    9240:	ea000000 	b	9248 <gpio_set_function+0x94>
    9244:	e3a06000 	mov	r6, #0
    9248:	e1a00006 	mov	r0, r6
    924c:	eb000118 	bl	96b4 <get32>
    9250:	e59f302c 	ldr	r3, [pc, #44]	; 9284 <gpio_set_function+0xd0>
    9254:	e0832493 	umull	r2, r3, r3, r4
    9258:	e1a031a3 	lsr	r3, r3, #3
    925c:	e0833103 	add	r3, r3, r3, lsl #2
    9260:	e1a03083 	lsl	r3, r3, #1
    9264:	e0633004 	rsb	r3, r3, r4
    9268:	e0833083 	add	r3, r3, r3, lsl #1
    926c:	e3a01007 	mov	r1, #7
    9270:	e1c01311 	bic	r1, r0, r1, lsl r3
    9274:	e1a00006 	mov	r0, r6
    9278:	e1811315 	orr	r1, r1, r5, lsl r3
    927c:	eb000100 	bl	9684 <put32>
    9280:	e8bd8070 	pop	{r4, r5, r6, pc}
    9284:	cccccccd 	stclgt	12, cr12, [ip], {205}	; 0xcd
    9288:	00009914 	andeq	r9, r0, r4, lsl r9

0000928c <is_gpio_int>:
    928c:	e92d4008 	push	{r3, lr}
    9290:	e59f301c 	ldr	r3, [pc, #28]	; 92b4 <is_gpio_int+0x28>
    9294:	e5930030 	ldr	r0, [r3, #48]	; 0x30
    9298:	eb000105 	bl	96b4 <get32>
    929c:	e3500000 	cmp	r0, #0
    92a0:	0a000001 	beq	92ac <is_gpio_int+0x20>
    92a4:	e3a00001 	mov	r0, #1
    92a8:	e8bd8008 	pop	{r3, pc}
    92ac:	e3a00000 	mov	r0, #0
    92b0:	e8bd8008 	pop	{r3, pc}
    92b4:	00009914 	andeq	r9, r0, r4, lsl r9

000092b8 <gpio_int_rising_edge>:
    92b8:	e92d4038 	push	{r3, r4, r5, lr}
    92bc:	e1a04000 	mov	r4, r0
    92c0:	e350001f 	cmp	r0, #31
    92c4:	88bd8038 	pophi	{r3, r4, r5, pc}
    92c8:	eb0000e7 	bl	966c <dev_barrier>
    92cc:	e354001f 	cmp	r4, #31
    92d0:	8a000007 	bhi	92f4 <gpio_int_rising_edge+0x3c>
    92d4:	e59f505c 	ldr	r5, [pc, #92]	; 9338 <gpio_int_rising_edge+0x80>
    92d8:	e5950034 	ldr	r0, [r5, #52]	; 0x34
    92dc:	eb0000f4 	bl	96b4 <get32>
    92e0:	e3a01001 	mov	r1, #1
    92e4:	e1801411 	orr	r1, r0, r1, lsl r4
    92e8:	e5950034 	ldr	r0, [r5, #52]	; 0x34
    92ec:	eb0000e4 	bl	9684 <put32>
    92f0:	ea000007 	b	9314 <gpio_int_rising_edge+0x5c>
    92f4:	e59f503c 	ldr	r5, [pc, #60]	; 9338 <gpio_int_rising_edge+0x80>
    92f8:	e5950038 	ldr	r0, [r5, #56]	; 0x38
    92fc:	eb0000ec 	bl	96b4 <get32>
    9300:	e204401f 	and	r4, r4, #31
    9304:	e3a01001 	mov	r1, #1
    9308:	e1801411 	orr	r1, r0, r1, lsl r4
    930c:	e5950038 	ldr	r0, [r5, #56]	; 0x38
    9310:	eb0000db 	bl	9684 <put32>
    9314:	eb0000d4 	bl	966c <dev_barrier>
    9318:	e59f4018 	ldr	r4, [pc, #24]	; 9338 <gpio_int_rising_edge+0x80>
    931c:	e594003c 	ldr	r0, [r4, #60]	; 0x3c
    9320:	eb0000e3 	bl	96b4 <get32>
    9324:	e3801802 	orr	r1, r0, #131072	; 0x20000
    9328:	e594003c 	ldr	r0, [r4, #60]	; 0x3c
    932c:	eb0000d4 	bl	9684 <put32>
    9330:	eb0000cd 	bl	966c <dev_barrier>
    9334:	e8bd8038 	pop	{r3, r4, r5, pc}
    9338:	00009914 	andeq	r9, r0, r4, lsl r9

0000933c <gpio_int_falling_edge>:
    933c:	e92d4038 	push	{r3, r4, r5, lr}
    9340:	e1a04000 	mov	r4, r0
    9344:	e350001f 	cmp	r0, #31
    9348:	88bd8038 	pophi	{r3, r4, r5, pc}
    934c:	eb0000c6 	bl	966c <dev_barrier>
    9350:	e354001f 	cmp	r4, #31
    9354:	8a000007 	bhi	9378 <gpio_int_falling_edge+0x3c>
    9358:	e59f505c 	ldr	r5, [pc, #92]	; 93bc <gpio_int_falling_edge+0x80>
    935c:	e5950040 	ldr	r0, [r5, #64]	; 0x40
    9360:	eb0000d3 	bl	96b4 <get32>
    9364:	e3a01001 	mov	r1, #1
    9368:	e1801411 	orr	r1, r0, r1, lsl r4
    936c:	e5950040 	ldr	r0, [r5, #64]	; 0x40
    9370:	eb0000c3 	bl	9684 <put32>
    9374:	ea000007 	b	9398 <gpio_int_falling_edge+0x5c>
    9378:	e59f503c 	ldr	r5, [pc, #60]	; 93bc <gpio_int_falling_edge+0x80>
    937c:	e5950044 	ldr	r0, [r5, #68]	; 0x44
    9380:	eb0000cb 	bl	96b4 <get32>
    9384:	e204401f 	and	r4, r4, #31
    9388:	e3a01001 	mov	r1, #1
    938c:	e1801411 	orr	r1, r0, r1, lsl r4
    9390:	e5950044 	ldr	r0, [r5, #68]	; 0x44
    9394:	eb0000ba 	bl	9684 <put32>
    9398:	eb0000b3 	bl	966c <dev_barrier>
    939c:	e59f4018 	ldr	r4, [pc, #24]	; 93bc <gpio_int_falling_edge+0x80>
    93a0:	e594003c 	ldr	r0, [r4, #60]	; 0x3c
    93a4:	eb0000c2 	bl	96b4 <get32>
    93a8:	e3801601 	orr	r1, r0, #1048576	; 0x100000
    93ac:	e594003c 	ldr	r0, [r4, #60]	; 0x3c
    93b0:	eb0000b3 	bl	9684 <put32>
    93b4:	eb0000ac 	bl	966c <dev_barrier>
    93b8:	e8bd8038 	pop	{r3, r4, r5, pc}
    93bc:	00009914 	andeq	r9, r0, r4, lsl r9

000093c0 <gpio_event_detected>:
    93c0:	e92d4010 	push	{r4, lr}
    93c4:	e1a04000 	mov	r4, r0
    93c8:	e350001f 	cmp	r0, #31
    93cc:	8a000019 	bhi	9438 <gpio_event_detected+0x78>
    93d0:	eb0000a5 	bl	966c <dev_barrier>
    93d4:	e354001f 	cmp	r4, #31
    93d8:	8a000008 	bhi	9400 <gpio_event_detected+0x40>
    93dc:	e59f305c 	ldr	r3, [pc, #92]	; 9440 <gpio_event_detected+0x80>
    93e0:	e5930048 	ldr	r0, [r3, #72]	; 0x48
    93e4:	eb0000b2 	bl	96b4 <get32>
    93e8:	e3a03001 	mov	r3, #1
    93ec:	e0103413 	ands	r3, r0, r3, lsl r4
    93f0:	0a00000d 	beq	942c <gpio_event_detected+0x6c>
    93f4:	eb00009c 	bl	966c <dev_barrier>
    93f8:	e3a00001 	mov	r0, #1
    93fc:	e8bd8010 	pop	{r4, pc}
    9400:	e59f3038 	ldr	r3, [pc, #56]	; 9440 <gpio_event_detected+0x80>
    9404:	e593004c 	ldr	r0, [r3, #76]	; 0x4c
    9408:	eb0000a9 	bl	96b4 <get32>
    940c:	e3a03001 	mov	r3, #1
    9410:	e0004413 	and	r4, r0, r3, lsl r4
    9414:	eb000094 	bl	966c <dev_barrier>
    9418:	e3540000 	cmp	r4, #0
    941c:	0a000002 	beq	942c <gpio_event_detected+0x6c>
    9420:	eb000091 	bl	966c <dev_barrier>
    9424:	e3a00001 	mov	r0, #1
    9428:	e8bd8010 	pop	{r4, pc}
    942c:	eb00008e 	bl	966c <dev_barrier>
    9430:	e3a00000 	mov	r0, #0
    9434:	e8bd8010 	pop	{r4, pc}
    9438:	e3e00000 	mvn	r0, #0
    943c:	e8bd8010 	pop	{r4, pc}
    9440:	00009914 	andeq	r9, r0, r4, lsl r9

00009444 <gpio_event_clear>:
    9444:	e92d4010 	push	{r4, lr}
    9448:	e1a04000 	mov	r4, r0
    944c:	e350001f 	cmp	r0, #31
    9450:	88bd8010 	pophi	{r4, pc}
    9454:	eb000084 	bl	966c <dev_barrier>
    9458:	e354001f 	cmp	r4, #31
    945c:	8a000005 	bhi	9478 <gpio_event_clear+0x34>
    9460:	e59f3030 	ldr	r3, [pc, #48]	; 9498 <gpio_event_clear+0x54>
    9464:	e5930048 	ldr	r0, [r3, #72]	; 0x48
    9468:	e3a01001 	mov	r1, #1
    946c:	e1a01411 	lsl	r1, r1, r4
    9470:	eb000083 	bl	9684 <put32>
    9474:	ea000005 	b	9490 <gpio_event_clear+0x4c>
    9478:	e204401f 	and	r4, r4, #31
    947c:	e59f3014 	ldr	r3, [pc, #20]	; 9498 <gpio_event_clear+0x54>
    9480:	e593004c 	ldr	r0, [r3, #76]	; 0x4c
    9484:	e3a01001 	mov	r1, #1
    9488:	e1a01411 	lsl	r1, r1, r4
    948c:	eb00007c 	bl	9684 <put32>
    9490:	eb000075 	bl	966c <dev_barrier>
    9494:	e8bd8010 	pop	{r4, pc}
    9498:	00009914 	andeq	r9, r0, r4, lsl r9

0000949c <int_init>:
    949c:	e92d4008 	push	{r3, lr}
    94a0:	e59f004c 	ldr	r0, [pc, #76]	; 94f4 <int_init+0x58>
    94a4:	e3e01000 	mvn	r1, #0
    94a8:	eb000077 	bl	968c <PUT32>
    94ac:	e59f0044 	ldr	r0, [pc, #68]	; 94f8 <int_init+0x5c>
    94b0:	e3e01000 	mvn	r1, #0
    94b4:	eb000074 	bl	968c <PUT32>
    94b8:	eb00006b 	bl	966c <dev_barrier>
    94bc:	e59f3038 	ldr	r3, [pc, #56]	; 94fc <int_init+0x60>
    94c0:	e59f0038 	ldr	r0, [pc, #56]	; 9500 <int_init+0x64>
    94c4:	e0630000 	rsb	r0, r3, r0
    94c8:	e1a00140 	asr	r0, r0, #2
    94cc:	e3a03000 	mov	r3, #0
    94d0:	e59fc024 	ldr	ip, [pc, #36]	; 94fc <int_init+0x60>
    94d4:	ea000003 	b	94e8 <int_init+0x4c>
    94d8:	e1a02103 	lsl	r2, r3, #2
    94dc:	e79c1103 	ldr	r1, [ip, r3, lsl #2]
    94e0:	e5821000 	str	r1, [r2]
    94e4:	e2833001 	add	r3, r3, #1
    94e8:	e1530000 	cmp	r3, r0
    94ec:	3afffff9 	bcc	94d8 <int_init+0x3c>
    94f0:	e8bd8008 	pop	{r3, pc}
    94f4:	2000b21c 	andcs	fp, r0, ip, lsl r2
    94f8:	2000b220 	andcs	fp, r0, r0, lsr #4
    94fc:	000096f0 	strdeq	r9, [r0], -r0
    9500:	00009740 	andeq	r9, r0, r0, asr #14

00009504 <fast_interrupt_vector>:
    9504:	e52de004 	push	{lr}		; (str lr, [sp, #-4]!)
    9508:	e24dd00c 	sub	sp, sp, #12
    950c:	e59f301c 	ldr	r3, [pc, #28]	; 9530 <fast_interrupt_vector+0x2c>
    9510:	e58d3000 	str	r3, [sp]
    9514:	e58d0004 	str	r0, [sp, #4]
    9518:	e59f0014 	ldr	r0, [pc, #20]	; 9534 <fast_interrupt_vector+0x30>
    951c:	e59f1014 	ldr	r1, [pc, #20]	; 9538 <fast_interrupt_vector+0x34>
    9520:	e59f2014 	ldr	r2, [pc, #20]	; 953c <fast_interrupt_vector+0x38>
    9524:	e3a03020 	mov	r3, #32
    9528:	ebfffcb7 	bl	880c <printk>
    952c:	ebfffe15 	bl	8d88 <clean_reboot>
    9530:	00009d50 	andeq	r9, r0, r0, asr sp
    9534:	00009cf4 	strdeq	r9, [r0], -r4
    9538:	00009d30 	andeq	r9, r0, r0, lsr sp
    953c:	00009c64 	andeq	r9, r0, r4, ror #24

00009540 <software_interrupt_vector>:
    9540:	e52de004 	push	{lr}		; (str lr, [sp, #-4]!)
    9544:	e24dd00c 	sub	sp, sp, #12
    9548:	e59f301c 	ldr	r3, [pc, #28]	; 956c <software_interrupt_vector+0x2c>
    954c:	e58d3000 	str	r3, [sp]
    9550:	e58d0004 	str	r0, [sp, #4]
    9554:	e59f0014 	ldr	r0, [pc, #20]	; 9570 <software_interrupt_vector+0x30>
    9558:	e59f1014 	ldr	r1, [pc, #20]	; 9574 <software_interrupt_vector+0x34>
    955c:	e59f2014 	ldr	r2, [pc, #20]	; 9578 <software_interrupt_vector+0x38>
    9560:	e3a03025 	mov	r3, #37	; 0x25
    9564:	ebfffca8 	bl	880c <printk>
    9568:	ebfffe06 	bl	8d88 <clean_reboot>
    956c:	00009d58 	andeq	r9, r0, r8, asr sp
    9570:	00009cf4 	strdeq	r9, [r0], -r4
    9574:	00009d30 	andeq	r9, r0, r0, lsr sp
    9578:	00009c7c 	andeq	r9, r0, ip, ror ip

0000957c <reset_vector>:
    957c:	e52de004 	push	{lr}		; (str lr, [sp, #-4]!)
    9580:	e24dd00c 	sub	sp, sp, #12
    9584:	e59f301c 	ldr	r3, [pc, #28]	; 95a8 <reset_vector+0x2c>
    9588:	e58d3000 	str	r3, [sp]
    958c:	e58d0004 	str	r0, [sp, #4]
    9590:	e59f0014 	ldr	r0, [pc, #20]	; 95ac <reset_vector+0x30>
    9594:	e59f1014 	ldr	r1, [pc, #20]	; 95b0 <reset_vector+0x34>
    9598:	e59f2014 	ldr	r2, [pc, #20]	; 95b4 <reset_vector+0x38>
    959c:	e3a03028 	mov	r3, #40	; 0x28
    95a0:	ebfffc99 	bl	880c <printk>
    95a4:	ebfffdf7 	bl	8d88 <clean_reboot>
    95a8:	00009d68 	andeq	r9, r0, r8, ror #26
    95ac:	00009cf4 	strdeq	r9, [r0], -r4
    95b0:	00009d30 	andeq	r9, r0, r0, lsr sp
    95b4:	00009c98 	muleq	r0, r8, ip

000095b8 <undefined_instruction_vector>:
    95b8:	e52de004 	push	{lr}		; (str lr, [sp, #-4]!)
    95bc:	e24dd00c 	sub	sp, sp, #12
    95c0:	e59f301c 	ldr	r3, [pc, #28]	; 95e4 <undefined_instruction_vector+0x2c>
    95c4:	e58d3000 	str	r3, [sp]
    95c8:	e58d0004 	str	r0, [sp, #4]
    95cc:	e59f0014 	ldr	r0, [pc, #20]	; 95e8 <undefined_instruction_vector+0x30>
    95d0:	e59f1014 	ldr	r1, [pc, #20]	; 95ec <undefined_instruction_vector+0x34>
    95d4:	e59f2014 	ldr	r2, [pc, #20]	; 95f0 <undefined_instruction_vector+0x38>
    95d8:	e3a0302b 	mov	r3, #43	; 0x2b
    95dc:	ebfffc8a 	bl	880c <printk>
    95e0:	ebfffde8 	bl	8d88 <clean_reboot>
    95e4:	00009d78 	andeq	r9, r0, r8, ror sp
    95e8:	00009cf4 	strdeq	r9, [r0], -r4
    95ec:	00009d30 	andeq	r9, r0, r0, lsr sp
    95f0:	00009ca8 	andeq	r9, r0, r8, lsr #25

000095f4 <prefetch_abort_vector>:
    95f4:	e52de004 	push	{lr}		; (str lr, [sp, #-4]!)
    95f8:	e24dd00c 	sub	sp, sp, #12
    95fc:	e59f301c 	ldr	r3, [pc, #28]	; 9620 <prefetch_abort_vector+0x2c>
    9600:	e58d3000 	str	r3, [sp]
    9604:	e58d0004 	str	r0, [sp, #4]
    9608:	e59f0014 	ldr	r0, [pc, #20]	; 9624 <prefetch_abort_vector+0x30>
    960c:	e59f1014 	ldr	r1, [pc, #20]	; 9628 <prefetch_abort_vector+0x34>
    9610:	e59f2014 	ldr	r2, [pc, #20]	; 962c <prefetch_abort_vector+0x38>
    9614:	e3a0302e 	mov	r3, #46	; 0x2e
    9618:	ebfffc7b 	bl	880c <printk>
    961c:	ebfffdd9 	bl	8d88 <clean_reboot>
    9620:	00009d90 	muleq	r0, r0, sp
    9624:	00009cf4 	strdeq	r9, [r0], -r4
    9628:	00009d30 	andeq	r9, r0, r0, lsr sp
    962c:	00009cc8 	andeq	r9, r0, r8, asr #25

00009630 <data_abort_vector>:
    9630:	e52de004 	push	{lr}		; (str lr, [sp, #-4]!)
    9634:	e24dd00c 	sub	sp, sp, #12
    9638:	e59f301c 	ldr	r3, [pc, #28]	; 965c <data_abort_vector+0x2c>
    963c:	e58d3000 	str	r3, [sp]
    9640:	e58d0004 	str	r0, [sp, #4]
    9644:	e59f0014 	ldr	r0, [pc, #20]	; 9660 <data_abort_vector+0x30>
    9648:	e59f1014 	ldr	r1, [pc, #20]	; 9664 <data_abort_vector+0x34>
    964c:	e59f2014 	ldr	r2, [pc, #20]	; 9668 <data_abort_vector+0x38>
    9650:	e3a03031 	mov	r3, #49	; 0x31
    9654:	ebfffc6c 	bl	880c <printk>
    9658:	ebfffdca 	bl	8d88 <clean_reboot>
    965c:	00009da0 	andeq	r9, r0, r0, lsr #27
    9660:	00009cf4 	strdeq	r9, [r0], -r4
    9664:	00009d30 	andeq	r9, r0, r0, lsr sp
    9668:	00009ce0 	andeq	r9, r0, r0, ror #25

0000966c <dev_barrier>:
    966c:	ea000002 	b	967c <dsb>

00009670 <dmb>:
    9670:	e3a00000 	mov	r0, #0
    9674:	ee070fba 	mcr	15, 0, r0, cr7, cr10, {5}
    9678:	e12fff1e 	bx	lr

0000967c <dsb>:
    967c:	ee070f9a 	mcr	15, 0, r0, cr7, cr10, {4}
    9680:	e12fff1e 	bx	lr

00009684 <put32>:
    9684:	e5801000 	str	r1, [r0]
    9688:	e12fff1e 	bx	lr

0000968c <PUT32>:
    968c:	e5801000 	str	r1, [r0]
    9690:	e12fff1e 	bx	lr

00009694 <put16>:
    9694:	e1c010b0 	strh	r1, [r0]
    9698:	e12fff1e 	bx	lr

0000969c <PUT16>:
    969c:	e1c010b0 	strh	r1, [r0]
    96a0:	e12fff1e 	bx	lr

000096a4 <put8>:
    96a4:	e5c01000 	strb	r1, [r0]
    96a8:	e12fff1e 	bx	lr

000096ac <PUT8>:
    96ac:	e5c01000 	strb	r1, [r0]
    96b0:	e12fff1e 	bx	lr

000096b4 <get32>:
    96b4:	e5900000 	ldr	r0, [r0]
    96b8:	e12fff1e 	bx	lr

000096bc <GET32>:
    96bc:	e5900000 	ldr	r0, [r0]
    96c0:	e12fff1e 	bx	lr

000096c4 <GETPC>:
    96c4:	e1a0000e 	mov	r0, lr
    96c8:	e12fff1e 	bx	lr

000096cc <dummy>:
    96cc:	e12fff1e 	bx	lr

000096d0 <system_enable_interrupts>:
    96d0:	e10f0000 	mrs	r0, CPSR
    96d4:	e3c00080 	bic	r0, r0, #128	; 0x80
    96d8:	e121f000 	msr	CPSR_c, r0
    96dc:	e12fff1e 	bx	lr

000096e0 <system_disable_interrupts>:
    96e0:	e10f0000 	mrs	r0, CPSR
    96e4:	e3800080 	orr	r0, r0, #128	; 0x80
    96e8:	e121f000 	msr	CPSR_c, r0
    96ec:	e12fff1e 	bx	lr

000096f0 <_interrupt_table>:
    96f0:	e59ff030 	ldr	pc, [pc, #48]	; 9728 <_reset_asm>
    96f4:	e59ff030 	ldr	pc, [pc, #48]	; 972c <_undefined_instruction_asm>
    96f8:	e59ff030 	ldr	pc, [pc, #48]	; 9730 <_software_interrupt_asm>
    96fc:	e59ff030 	ldr	pc, [pc, #48]	; 9734 <_prefetch_abort_asm>
    9700:	e59ff030 	ldr	pc, [pc, #48]	; 9738 <_data_abort_asm>
    9704:	e59ff01c 	ldr	pc, [pc, #28]	; 9728 <_reset_asm>
    9708:	e59ff02c 	ldr	pc, [pc, #44]	; 973c <_interrupt_asm>

0000970c <fast_interrupt_asm>:
    970c:	e24ee004 	sub	lr, lr, #4
    9710:	e52de004 	push	{lr}		; (str lr, [sp, #-4]!)
    9714:	e92d1fff 	push	{r0, r1, r2, r3, r4, r5, r6, r7, r8, r9, sl, fp, ip}
    9718:	e1a0000e 	mov	r0, lr
    971c:	ebffff78 	bl	9504 <fast_interrupt_vector>
    9720:	e8bd1fff 	pop	{r0, r1, r2, r3, r4, r5, r6, r7, r8, r9, sl, fp, ip}
    9724:	e8fd8000 	ldm	sp!, {pc}^

00009728 <_reset_asm>:
    9728:	00009788 	andeq	r9, r0, r8, lsl #15

0000972c <_undefined_instruction_asm>:
    972c:	00009790 	muleq	r0, r0, r7

00009730 <_software_interrupt_asm>:
    9730:	0000975c 	andeq	r9, r0, ip, asr r7

00009734 <_prefetch_abort_asm>:
    9734:	00009798 	muleq	r0, r8, r7

00009738 <_data_abort_asm>:
    9738:	000097a0 	andeq	r9, r0, r0, lsr #15

0000973c <_interrupt_asm>:
    973c:	00009740 	andeq	r9, r0, r0, asr #14

00009740 <_interrupt_table_end>:
    9740:	e3a0d409 	mov	sp, #150994944	; 0x9000000
    9744:	e24ee004 	sub	lr, lr, #4
    9748:	e92d5fff 	push	{r0, r1, r2, r3, r4, r5, r6, r7, r8, r9, sl, fp, ip, lr}
    974c:	e1a0000e 	mov	r0, lr
    9750:	ebfffbb1 	bl	861c <interrupt_vector>
    9754:	e8bd5fff 	pop	{r0, r1, r2, r3, r4, r5, r6, r7, r8, r9, sl, fp, ip, lr}
    9758:	e1b0f00e 	movs	pc, lr

0000975c <software_interrupt_asm>:
    975c:	e52de004 	push	{lr}		; (str lr, [sp, #-4]!)
    9760:	e92d1ffe 	push	{r1, r2, r3, r4, r5, r6, r7, r8, r9, sl, fp, ip}
    9764:	e24ee004 	sub	lr, lr, #4
    9768:	e1a0200e 	mov	r2, lr
    976c:	e1a01000 	mov	r1, r0
    9770:	e1a0000e 	mov	r0, lr
    9774:	eb000003 	bl	9788 <reset_asm>
    9778:	e8bd1ffe 	pop	{r1, r2, r3, r4, r5, r6, r7, r8, r9, sl, fp, ip}
    977c:	e49de004 	pop	{lr}		; (ldr lr, [sp], #4)
    9780:	e8fd8000 	ldm	sp!, {pc}^
    9784:	e1b0f00e 	movs	pc, lr

00009788 <reset_asm>:
    9788:	e24ee004 	sub	lr, lr, #4
    978c:	ebffff7a 	bl	957c <reset_vector>

00009790 <undefined_instruction_asm>:
    9790:	e24ee004 	sub	lr, lr, #4
    9794:	ebffff87 	bl	95b8 <undefined_instruction_vector>

00009798 <prefetch_abort_asm>:
    9798:	e24ee004 	sub	lr, lr, #4
    979c:	ebffff94 	bl	95f4 <prefetch_abort_vector>

000097a0 <data_abort_asm>:
    97a0:	e24ee004 	sub	lr, lr, #4
    97a4:	ebffffa1 	bl	9630 <data_abort_vector>

000097a8 <uart_can_getc>:
    97a8:	e92d4008 	push	{r3, lr}
    97ac:	e59f300c 	ldr	r3, [pc, #12]	; 97c0 <uart_can_getc+0x18>
    97b0:	e5930000 	ldr	r0, [r3]
    97b4:	ebffffbe 	bl	96b4 <get32>
    97b8:	e2000001 	and	r0, r0, #1
    97bc:	e8bd8008 	pop	{r3, pc}
    97c0:	00009974 	andeq	r9, r0, r4, ror r9

000097c4 <uart_init>:
    97c4:	e92d4038 	push	{r3, r4, r5, lr}
    97c8:	ebffffa7 	bl	966c <dev_barrier>
    97cc:	e3a0000e 	mov	r0, #14
    97d0:	e3a01002 	mov	r1, #2
    97d4:	ebfffe76 	bl	91b4 <gpio_set_function>
    97d8:	e3a0000f 	mov	r0, #15
    97dc:	e3a01002 	mov	r1, #2
    97e0:	ebfffe73 	bl	91b4 <gpio_set_function>
    97e4:	ebffffa0 	bl	966c <dev_barrier>
    97e8:	e59f4068 	ldr	r4, [pc, #104]	; 9858 <uart_init+0x94>
    97ec:	e5945004 	ldr	r5, [r4, #4]
    97f0:	e1a00005 	mov	r0, r5
    97f4:	ebffffae 	bl	96b4 <get32>
    97f8:	e3801001 	orr	r1, r0, #1
    97fc:	e1a00005 	mov	r0, r5
    9800:	ebffff9f 	bl	9684 <put32>
    9804:	ebffff98 	bl	966c <dev_barrier>
    9808:	e5940008 	ldr	r0, [r4, #8]
    980c:	e3a01000 	mov	r1, #0
    9810:	ebffff9b 	bl	9684 <put32>
    9814:	e594000c 	ldr	r0, [r4, #12]
    9818:	e3a01000 	mov	r1, #0
    981c:	ebffff98 	bl	9684 <put32>
    9820:	e5940010 	ldr	r0, [r4, #16]
    9824:	e3a01006 	mov	r1, #6
    9828:	ebffff95 	bl	9684 <put32>
    982c:	e5940014 	ldr	r0, [r4, #20]
    9830:	e3a01003 	mov	r1, #3
    9834:	ebffff92 	bl	9684 <put32>
    9838:	e5940018 	ldr	r0, [r4, #24]
    983c:	e59f1018 	ldr	r1, [pc, #24]	; 985c <uart_init+0x98>
    9840:	ebffff8f 	bl	9684 <put32>
    9844:	e5940008 	ldr	r0, [r4, #8]
    9848:	e3a01003 	mov	r1, #3
    984c:	ebffff8c 	bl	9684 <put32>
    9850:	ebffff85 	bl	966c <dev_barrier>
    9854:	e8bd8038 	pop	{r3, r4, r5, pc}
    9858:	00009974 	andeq	r9, r0, r4, ror r9
    985c:	0000010e 	andeq	r0, r0, lr, lsl #2

00009860 <uart_getc>:
    9860:	e92d4008 	push	{r3, lr}
    9864:	ebffffcf 	bl	97a8 <uart_can_getc>
    9868:	e3500000 	cmp	r0, #0
    986c:	0afffffc 	beq	9864 <uart_getc+0x4>
    9870:	e59f300c 	ldr	r3, [pc, #12]	; 9884 <uart_getc+0x24>
    9874:	e593001c 	ldr	r0, [r3, #28]
    9878:	ebffff8d 	bl	96b4 <get32>
    987c:	e6ef0070 	uxtb	r0, r0
    9880:	e8bd8008 	pop	{r3, pc}
    9884:	00009974 	andeq	r9, r0, r4, ror r9

00009888 <uart_can_putc>:
    9888:	e92d4008 	push	{r3, lr}
    988c:	e59f300c 	ldr	r3, [pc, #12]	; 98a0 <uart_can_putc+0x18>
    9890:	e5930000 	ldr	r0, [r3]
    9894:	ebffff86 	bl	96b4 <get32>
    9898:	e2000020 	and	r0, r0, #32
    989c:	e8bd8008 	pop	{r3, pc}
    98a0:	00009974 	andeq	r9, r0, r4, ror r9

000098a4 <uart_putc>:
    98a4:	e92d4010 	push	{r4, lr}
    98a8:	e1a04000 	mov	r4, r0
    98ac:	ebfffff5 	bl	9888 <uart_can_putc>
    98b0:	e3500000 	cmp	r0, #0
    98b4:	0afffffc 	beq	98ac <uart_putc+0x8>
    98b8:	e59f300c 	ldr	r3, [pc, #12]	; 98cc <uart_putc+0x28>
    98bc:	e593001c 	ldr	r0, [r3, #28]
    98c0:	e1a01004 	mov	r1, r4
    98c4:	ebffff6e 	bl	9684 <put32>
    98c8:	e8bd8010 	pop	{r4, pc}
    98cc:	00009974 	andeq	r9, r0, r4, ror r9

000098d0 <uart_has_data>:
    98d0:	e92d4008 	push	{r3, lr}
    98d4:	ebffffb3 	bl	97a8 <uart_can_getc>
    98d8:	e8bd8008 	pop	{r3, pc}

000098dc <uart_getc_async>:
    98dc:	e92d4008 	push	{r3, lr}
    98e0:	ebfffffa 	bl	98d0 <uart_has_data>
    98e4:	e3500000 	cmp	r0, #0
    98e8:	0a000001 	beq	98f4 <uart_getc_async+0x18>
    98ec:	ebffffdb 	bl	9860 <uart_getc>
    98f0:	e8bd8008 	pop	{r3, pc}
    98f4:	e3e00000 	mvn	r0, #0
    98f8:	e8bd8008 	pop	{r3, pc}

000098fc <internal_putchar>:
    98fc:	e92d4010 	push	{r4, lr}
    9900:	e1a04000 	mov	r4, r0
    9904:	ebffffe6 	bl	98a4 <uart_putc>
    9908:	e1a00004 	mov	r0, r4
    990c:	e8bd8010 	pop	{r4, pc}

Disassembly of section .data:

00009910 <putk>:
    9910:	00008864 	andeq	r8, r0, r4, ror #16

00009914 <GPFSEL0>:
    9914:	20200000 	eorcs	r0, r0, r0

00009918 <GPFSEL1>:
    9918:	20200004 	eorcs	r0, r0, r4

0000991c <GPFSEL2>:
    991c:	20200008 	eorcs	r0, r0, r8

00009920 <GPFSEL3>:
    9920:	2020000c 	eorcs	r0, r0, ip

00009924 <GPFSEL4>:
    9924:	20200010 	eorcs	r0, r0, r0, lsl r0

00009928 <GPFSEL5>:
    9928:	20200014 	eorcs	r0, r0, r4, lsl r0

0000992c <GPSET0>:
    992c:	2020001c 	eorcs	r0, r0, ip, lsl r0

00009930 <GPSET1>:
    9930:	20200020 	eorcs	r0, r0, r0, lsr #32

00009934 <GPCLR0>:
    9934:	20200028 	eorcs	r0, r0, r8, lsr #32

00009938 <GPCLR1>:
    9938:	2020002c 	eorcs	r0, r0, ip, lsr #32

0000993c <GPLEV0>:
    993c:	20200034 	eorcs	r0, r0, r4, lsr r0

00009940 <GPLEV1>:
    9940:	20200038 	eorcs	r0, r0, r8, lsr r0

00009944 <IRQ_PENDING_2>:
    9944:	2000b208 	andcs	fp, r0, r8, lsl #4

00009948 <GPREN0>:
    9948:	2020004c 	eorcs	r0, r0, ip, asr #32

0000994c <GPREN1>:
    994c:	20200050 	eorcs	r0, r0, r0, asr r0

00009950 <ENABLE_IRQS_2>:
    9950:	2000b214 	andcs	fp, r0, r4, lsl r2

00009954 <GPFEN0>:
    9954:	20200058 	eorcs	r0, r0, r8, asr r0

00009958 <GPFEN1>:
    9958:	2020005c 	eorcs	r0, r0, ip, asr r0

0000995c <GPEDS0>:
    995c:	20200040 	eorcs	r0, r0, r0, asr #32

00009960 <GPEDS1>:
    9960:	20200044 	eorcs	r0, r0, r4, asr #32

00009964 <IRQ_PENDING_1>:
    9964:	2000b204 	andcs	fp, r0, r4, lsl #4

00009968 <gpio_clr0>:
    9968:	20200028 	eorcs	r0, r0, r8, lsr #32

0000996c <gpio_set0>:
    996c:	2020001c 	eorcs	r0, r0, ip, lsl r0

00009970 <gpio_fsel0>:
    9970:	20200000 	eorcs	r0, r0, r0

00009974 <AUX_MU_LSR_REG>:
    9974:	20215054 	eorcs	r5, r1, r4, asr r0

00009978 <AUX_ENABLES>:
    9978:	20215004 	eorcs	r5, r1, r4

0000997c <AUX_MU_CNTL_REG>:
    997c:	20215060 	eorcs	r5, r1, r0, rrx

00009980 <AUX_MU_IER_REG>:
    9980:	20215044 	eorcs	r5, r1, r4, asr #32

00009984 <AUX_MU_IIR_REG>:
    9984:	20215048 	eorcs	r5, r1, r8, asr #32

00009988 <AUX_MU_LCR_REG>:
    9988:	2021504c 	eorcs	r5, r1, ip, asr #32

0000998c <AUX_MU_BAUD_REG>:
    998c:	20215068 	eorcs	r5, r1, r8, rrx

00009990 <AUX_MU_IO_REG>:
    9990:	20215040 	eorcs	r5, r1, r0, asr #32

00009994 <AUX_MU_STAT_REG>:
    9994:	20215064 	eorcs	r5, r1, r4, rrx

00009998 <AUX_MU_SCRATCH>:
    9998:	2021505c 	eorcs	r5, r1, ip, asr r0

0000999c <AUX_MU_MSR_REG>:
    999c:	20215058 	eorcs	r5, r1, r8, asr r0

000099a0 <AUX_MU_MCR_REG>:
    99a0:	20215050 	eorcs	r5, r1, r0, asr r0

000099a4 <AUX_IRQ>:
    99a4:	20215000 	eorcs	r5, r1, r0

000099a8 <rpi_putchar>:
    99a8:	000098fc 	strdeq	r9, [r0], -ip

Disassembly of section .rodata:

000099ac <__FUNCTION__.4373>:
    99ac:	755f7773 	ldrbvc	r7, [pc, #-1907]	; 9241 <gpio_set_function+0x8d>
    99b0:	5f747261 	svcpl	0x00747261
    99b4:	73746567 	cmnvc	r4, #432013312	; 0x19c00000
    99b8:	746e755f 	strbtvc	r7, [lr], #-1375	; 0x55f
    99bc:	00006c69 	andeq	r6, r0, r9, ror #24

000099c0 <__FUNCTION__.4385>:
    99c0:	755f7773 	ldrbvc	r7, [pc, #-1907]	; 9255 <gpio_set_function+0xa1>
    99c4:	5f747261 	svcpl	0x00747261
    99c8:	73746567 	cmnvc	r4, #432013312	; 0x19c00000
    99cc:	6d69745f 	cfstrdvs	mvd7, [r9, #-380]!	; 0xfffffe84
    99d0:	74756f65 	ldrbtvc	r6, [r5], #-3941	; 0xf65
    99d4:	00000000 	andeq	r0, r0, r0

000099d8 <__FUNCTION__.4399>:
    99d8:	755f7773 	ldrbvc	r7, [pc, #-1907]	; 926d <gpio_set_function+0xb9>
    99dc:	5f747261 	svcpl	0x00747261
    99e0:	74696e69 	strbtvc	r6, [r9], #-3689	; 0xe69
    99e4:	6c65685f 	stclvs	8, cr6, [r5], #-380	; 0xfffffe84
    99e8:	00726570 	rsbseq	r6, r2, r0, ror r5

000099ec <__FUNCTION__.4405>:
    99ec:	755f7773 	ldrbvc	r7, [pc, #-1907]	; 9281 <gpio_set_function+0xcd>
    99f0:	5f747261 	svcpl	0x00747261
    99f4:	63746567 	cmnvs	r4, #432013312	; 0x19c00000
    99f8:	00000000 	andeq	r0, r0, r0

000099fc <__FUNCTION__.4427>:
    99fc:	755f7773 	ldrbvc	r7, [pc, #-1907]	; 9291 <is_gpio_int+0x5>
    9a00:	5f747261 	svcpl	0x00747261
    9a04:	6e697270 	mcrvs	2, 3, r7, cr9, cr0, {3}
    9a08:	00006b74 	andeq	r6, r0, r4, ror fp

00009a0c <__FUNCTION__.4435>:
    9a0c:	755f7773 	ldrbvc	r7, [pc, #-1907]	; 92a1 <is_gpio_int+0x15>
    9a10:	5f747261 	svcpl	0x00747261
    9a14:	73746567 	cmnvc	r4, #432013312	; 0x19c00000
    9a18:	746e755f 	strbtvc	r7, [lr], #-1375	; 0x55f
    9a1c:	625f6c69 	subsvs	r6, pc, #26880	; 0x6900
    9a20:	00006b6c 	andeq	r6, r0, ip, ror #22

00009a24 <__FUNCTION__.4457>:
    9a24:	6d746f6e 	ldclvs	15, cr6, [r4, #-440]!	; 0xfffffe48
    9a28:	006e6961 	rsbeq	r6, lr, r1, ror #18
    9a2c:	494e4150 	stmdbmi	lr, {r4, r6, r8, lr}^
    9a30:	73253a43 	teqvc	r5, #274432	; 0x43000
    9a34:	3a73253a 	bcc	1cd2f24 <__bss_end__+0x1cc8964>
    9a38:	6e3a6425 	cdpvs	4, 3, cr6, cr10, cr5, {1}
    9a3c:	65747962 	ldrbvs	r7, [r4, #-2402]!	; 0x962
    9a40:	0a303e73 	beq	c19414 <__bss_end__+0xc0ee54>
    9a44:	00000000 	andeq	r0, r0, r0
    9a48:	6f6c2d32 	svcvs	0x006c2d32
    9a4c:	2d636967 	stclcs	9, cr6, [r3, #-412]!	; 0xfffffe64
    9a50:	6c616e61 	stclvs	14, cr6, [r1], #-388	; 0xfffffe7c
    9a54:	72657a79 	rsbvc	r7, r5, #495616	; 0x79000
    9a58:	0000632e 	andeq	r6, r0, lr, lsr #6
    9a5c:	494e4150 	stmdbmi	lr, {r4, r6, r8, lr}^
    9a60:	73253a43 	teqvc	r5, #274432	; 0x43000
    9a64:	3a73253a 	bcc	1cd2f54 <__bss_end__+0x1cc8994>
    9a68:	283a6425 	ldmdacs	sl!, {r0, r2, r5, sl, sp, lr}
    9a6c:	207a686d 	rsbscs	r6, sl, sp, ror #16
    9a70:	6162202d 	cmnvs	r2, sp, lsr #32
    9a74:	20296475 	eorcs	r6, r9, r5, ror r4
    9a78:	64203d3c 	strtvs	r3, [r0], #-3388	; 0xd3c
    9a7c:	76697265 	strbtvc	r7, [r9], -r5, ror #4
    9a80:	26206465 	strtcs	r6, [r0], -r5, ror #8
    9a84:	65642026 	strbvs	r2, [r4, #-38]!	; 0x26
    9a88:	65766972 	ldrbvs	r6, [r6, #-2418]!	; 0x972
    9a8c:	3d3c2064 	ldccc	0, cr2, [ip, #-400]!	; 0xfffffe70
    9a90:	686d2820 	stmdavs	sp!, {r5, fp, sp}^
    9a94:	202b207a 	eorcs	r2, fp, sl, ror r0
    9a98:	64756162 	ldrbtvs	r6, [r5], #-354	; 0x162
    9a9c:	00000a29 	andeq	r0, r0, r9, lsr #20
    9aa0:	494e4150 	stmdbmi	lr, {r4, r6, r8, lr}^
    9aa4:	73253a43 	teqvc	r5, #274432	; 0x43000
    9aa8:	3a73253a 	bcc	1cd2f98 <__bss_end__+0x1cc89d8>
    9aac:	693a6425 	ldmdbvs	sl!, {r0, r2, r5, sl, sp, lr}
    9ab0:	736f706d 	cmnvc	pc, #109	; 0x6d
    9ab4:	6c626973 	stclvs	9, cr6, [r2], #-460	; 0xfffffe34
    9ab8:	68203a65 	stmdavs	r0!, {r0, r2, r5, r6, r9, fp, ip, sp}
    9abc:	20657661 	rsbcs	r7, r5, r1, ror #12
    9ac0:	69206e61 	stmdbvs	r0!, {r0, r5, r6, r9, sl, fp, sp, lr}
    9ac4:	6e69666e 	cdpvs	6, 6, cr6, cr9, cr14, {3}
    9ac8:	20657469 	rsbcs	r7, r5, r9, ror #8
    9acc:	656d6974 	strbvs	r6, [sp, #-2420]!	; 0x974
    9ad0:	2174756f 	cmncs	r4, pc, ror #10
    9ad4:	00000a0a 	andeq	r0, r0, sl, lsl #20
    9ad8:	494e4150 	stmdbmi	lr, {r4, r6, r8, lr}^
    9adc:	73253a43 	teqvc	r5, #274432	; 0x43000
    9ae0:	3a73253a 	bcc	1cd2fd0 <__bss_end__+0x1cc8a10>
    9ae4:	733a6425 	teqvc	sl, #620756992	; 0x25000000
    9ae8:	203c207a 	eorscs	r2, ip, sl, ror r0
    9aec:	657a6973 	ldrbvs	r6, [sl, #-2419]!	; 0x973
    9af0:	6220666f 	eorvs	r6, r0, #116391936	; 0x6f00000
    9af4:	312d6675 	teqcc	sp, r5, ror r6
    9af8:	0000000a 	andeq	r0, r0, sl
    9afc:	494e4150 	stmdbmi	lr, {r4, r6, r8, lr}^
    9b00:	73253a43 	teqvc	r5, #274432	; 0x43000
    9b04:	3a73253a 	bcc	1cd2ff4 <__bss_end__+0x1cc8a34>
    9b08:	673a6425 	ldrvs	r6, [sl, -r5, lsr #8]!
    9b0c:	5f6f6970 	svcpl	0x006f6970
    9b10:	64616572 	strbtvs	r6, [r1], #-1394	; 0x572
    9b14:	5f6e6928 	svcpl	0x006e6928
    9b18:	296e6970 	stmdbcs	lr!, {r4, r5, r6, r8, fp, sp, lr}^
    9b1c:	6e693e3e 	mcrvs	14, 3, r3, cr9, cr14, {1}
    9b20:	6e69705f 	mcrvs	0, 3, r7, cr9, cr15, {2}
    9b24:	203d3d20 	eorscs	r3, sp, r0, lsr #26
    9b28:	00000a31 	andeq	r0, r0, r1, lsr sl
    9b2c:	6576656e 	ldrbvs	r6, [r6, #-1390]!	; 0x56e
    9b30:	253d746e 	ldrcs	r7, [sp, #-1134]!	; 0x46e
    9b34:	00000a64 	andeq	r0, r0, r4, ror #20
    9b38:	253d7609 	ldrcs	r7, [sp, #-1545]!	; 0x609
    9b3c:	63202c64 	teqvs	r0, #100, 24	; 0x6400
    9b40:	253d6379 	ldrcs	r6, [sp, #-889]!	; 0x379
    9b44:	00000a64 	andeq	r0, r0, r4, ror #20
    9b48:	43435553 	movtmi	r5, #13651	; 0x3553
    9b4c:	21535345 	cmpcs	r3, r5, asr #6
    9b50:	0000000a 	andeq	r0, r0, sl

00009b54 <__FUNCTION__.4202>:
    9b54:	74696d65 	strbtvc	r6, [r9], #-3429	; 0xd65
    9b58:	00000000 	andeq	r0, r0, r0

00009b5c <__FUNCTION__.4150>:
    9b5c:	5f697072 	svcpl	0x00697072
    9b60:	5f746573 	svcpl	0x00746573
    9b64:	7074756f 	rsbsvc	r7, r4, pc, ror #10
    9b68:	00007475 	andeq	r7, r0, r5, ror r4

00009b6c <__FUNCTION__.4224>:
    9b6c:	705f6176 	subsvc	r6, pc, r6, ror r1	; <UNPREDICTABLE>
    9b70:	746e6972 	strbtvc	r6, [lr], #-2418	; 0x972
    9b74:	0000006b 	andeq	r0, r0, fp, rrx
    9b78:	494e4150 	stmdbmi	lr, {r4, r6, r8, lr}^
    9b7c:	73253a43 	teqvc	r5, #274432	; 0x43000
    9b80:	3a73253a 	bcc	1cd3070 <__bss_end__+0x1cc8ab0>
    9b84:	303a6425 	eorscc	r6, sl, r5, lsr #8
    9b88:	0000000a 	andeq	r0, r0, sl
    9b8c:	6362696c 	cmnvs	r2, #108, 18	; 0x1b0000
    9b90:	2d61762f 	stclcs	6, cr7, [r1, #-188]!	; 0xffffff44
    9b94:	6e697270 	mcrvs	2, 3, r7, cr9, cr0, {3}
    9b98:	632e6b74 	teqvs	lr, #116, 22	; 0x1d000
    9b9c:	00000000 	andeq	r0, r0, r0
    9ba0:	33323130 	teqcc	r2, #48, 2
    9ba4:	37363534 			; <UNDEFINED> instruction: 0x37363534
    9ba8:	00003938 	andeq	r3, r0, r8, lsr r9
    9bac:	33323130 	teqcc	r2, #48, 2
    9bb0:	37363534 			; <UNDEFINED> instruction: 0x37363534
    9bb4:	62613938 	rsbvs	r3, r1, #56, 18	; 0xe0000
    9bb8:	66656463 	strbtvs	r6, [r5], -r3, ror #8
    9bbc:	00000000 	andeq	r0, r0, r0
    9bc0:	00003130 	andeq	r3, r0, r0, lsr r1
    9bc4:	494e4150 	stmdbmi	lr, {r4, r6, r8, lr}^
    9bc8:	73253a43 	teqvc	r5, #274432	; 0x43000
    9bcc:	3a73253a 	bcc	1cd30bc <__bss_end__+0x1cc8afc>
    9bd0:	703a6425 	eorsvc	r6, sl, r5, lsr #8
    9bd4:	5f637475 	svcpl	0x00637475
    9bd8:	000a7066 	andeq	r7, sl, r6, rrx
    9bdc:	494e4150 	stmdbmi	lr, {r4, r6, r8, lr}^
    9be0:	73253a43 	teqvc	r5, #274432	; 0x43000
    9be4:	3a73253a 	bcc	1cd30d4 <__bss_end__+0x1cc8b14>
    9be8:	773a6425 	ldrvc	r6, [sl, -r5, lsr #8]!
    9bec:	68746469 	ldmdavs	r4!, {r0, r3, r5, r6, sl, sp, lr}^
    9bf0:	33203c20 	teqcc	r0, #32, 24	; 0x2000
    9bf4:	00000a32 	andeq	r0, r0, r2, lsr sl
    9bf8:	494e4150 	stmdbmi	lr, {r4, r6, r8, lr}^
    9bfc:	73253a43 	teqvc	r5, #274432	; 0x43000
    9c00:	3a73253a 	bcc	1cd30f0 <__bss_end__+0x1cc8b30>
    9c04:	663a6425 	ldrtvs	r6, [sl], -r5, lsr #8
    9c08:	74616f6c 	strbtvc	r6, [r1], #-3948	; 0xf6c
    9c0c:	746f6e20 	strbtvc	r6, [pc], #-3616	; 9c14 <__FUNCTION__.4224+0xa8>
    9c10:	616e6520 	cmnvs	lr, r0, lsr #10
    9c14:	64656c62 	strbtvs	r6, [r5], #-3170	; 0xc62
    9c18:	0a212121 	beq	8520a4 <__bss_end__+0x847ae4>
    9c1c:	00000000 	andeq	r0, r0, r0
    9c20:	494e4150 	stmdbmi	lr, {r4, r6, r8, lr}^
    9c24:	73253a43 	teqvc	r5, #274432	; 0x43000
    9c28:	3a73253a 	bcc	1cd3118 <__bss_end__+0x1cc8b58>
    9c2c:	703a6425 	eorsvc	r6, sl, r5, lsr #8
    9c30:	746e6972 	strbtvc	r6, [lr], #-2418	; 0x972
    9c34:	6e203a6b 	vnmulvs.f32	s6, s0, s23
    9c38:	6820746f 	stmdavs	r0!, {r0, r1, r2, r3, r5, r6, sl, ip, sp, lr}
    9c3c:	6c646e61 	stclvs	14, cr6, [r4], #-388	; 0xfffffe7c
    9c40:	20676e69 	rsbcs	r6, r7, r9, ror #28
    9c44:	63657073 	cmnvs	r5, #115	; 0x73
    9c48:	65696669 	strbvs	r6, [r9, #-1641]!	; 0x669
    9c4c:	25272072 	strcs	r2, [r7, #-114]!	; 0x72
    9c50:	0a0a2763 	beq	2939e4 <__bss_end__+0x289424>
    9c54:	00000000 	andeq	r0, r0, r0
    9c58:	454e4f44 	strbmi	r4, [lr, #-3908]	; 0xf44
    9c5c:	0a212121 	beq	8520e8 <__bss_end__+0x847b28>
    9c60:	00000000 	andeq	r0, r0, r0

00009c64 <__FUNCTION__.4175>:
    9c64:	74736166 	ldrbtvc	r6, [r3], #-358	; 0x166
    9c68:	746e695f 	strbtvc	r6, [lr], #-2399	; 0x95f
    9c6c:	75727265 	ldrbvc	r7, [r2, #-613]!	; 0x265
    9c70:	765f7470 			; <UNDEFINED> instruction: 0x765f7470
    9c74:	6f746365 	svcvs	0x00746365
    9c78:	00000072 	andeq	r0, r0, r2, ror r0

00009c7c <__FUNCTION__.4179>:
    9c7c:	74666f73 	strbtvc	r6, [r6], #-3955	; 0xf73
    9c80:	65726177 	ldrbvs	r6, [r2, #-375]!	; 0x177
    9c84:	746e695f 	strbtvc	r6, [lr], #-2399	; 0x95f
    9c88:	75727265 	ldrbvc	r7, [r2, #-613]!	; 0x265
    9c8c:	765f7470 			; <UNDEFINED> instruction: 0x765f7470
    9c90:	6f746365 	svcvs	0x00746365
    9c94:	00000072 	andeq	r0, r0, r2, ror r0

00009c98 <__FUNCTION__.4183>:
    9c98:	65736572 	ldrbvs	r6, [r3, #-1394]!	; 0x572
    9c9c:	65765f74 	ldrbvs	r5, [r6, #-3956]!	; 0xf74
    9ca0:	726f7463 	rsbvc	r7, pc, #1660944384	; 0x63000000
    9ca4:	00000000 	andeq	r0, r0, r0

00009ca8 <__FUNCTION__.4187>:
    9ca8:	65646e75 	strbvs	r6, [r4, #-3701]!	; 0xe75
    9cac:	656e6966 	strbvs	r6, [lr, #-2406]!	; 0x966
    9cb0:	6e695f64 	cdpvs	15, 6, cr5, cr9, cr4, {3}
    9cb4:	75727473 	ldrbvc	r7, [r2, #-1139]!	; 0x473
    9cb8:	6f697463 	svcvs	0x00697463
    9cbc:	65765f6e 	ldrbvs	r5, [r6, #-3950]!	; 0xf6e
    9cc0:	726f7463 	rsbvc	r7, pc, #1660944384	; 0x63000000
    9cc4:	00000000 	andeq	r0, r0, r0

00009cc8 <__FUNCTION__.4191>:
    9cc8:	66657270 			; <UNDEFINED> instruction: 0x66657270
    9ccc:	68637465 	stmdavs	r3!, {r0, r2, r5, r6, sl, ip, sp, lr}^
    9cd0:	6f62615f 	svcvs	0x0062615f
    9cd4:	765f7472 			; <UNDEFINED> instruction: 0x765f7472
    9cd8:	6f746365 	svcvs	0x00746365
    9cdc:	00000072 	andeq	r0, r0, r2, ror r0

00009ce0 <__FUNCTION__.4195>:
    9ce0:	61746164 	cmnvs	r4, r4, ror #2
    9ce4:	6f62615f 	svcvs	0x0062615f
    9ce8:	765f7472 			; <UNDEFINED> instruction: 0x765f7472
    9cec:	6f746365 	svcvs	0x00746365
    9cf0:	00000072 	andeq	r0, r0, r2, ror r0
    9cf4:	494e4150 	stmdbmi	lr, {r4, r6, r8, lr}^
    9cf8:	73253a43 	teqvc	r5, #274432	; 0x43000
    9cfc:	3a73253a 	bcc	1cd31ec <__bss_end__+0x1cc8c2c>
    9d00:	453a6425 	ldrmi	r6, [sl, #-1061]!	; 0x425
    9d04:	524f5252 	subpl	r5, pc, #536870917	; 0x20000005
    9d08:	6e75203a 	mrcvs	0, 3, r2, cr5, cr10, {1}
    9d0c:	646e6168 	strbtvs	r6, [lr], #-360	; 0x168
    9d10:	2064656c 	rsbcs	r6, r4, ip, ror #10
    9d14:	65637865 	strbvs	r7, [r3, #-2149]!	; 0x865
    9d18:	6f697470 	svcvs	0x00697470
    9d1c:	253c206e 	ldrcs	r2, [ip, #-110]!	; 0x6e
    9d20:	61203e73 	teqvs	r0, r3, ror lr
    9d24:	43502074 	cmpmi	r0, #116	; 0x74
    9d28:	0a78253d 	beq	1e13224 <__bss_end__+0x1e08c64>
    9d2c:	0000000a 	andeq	r0, r0, sl
    9d30:	34317363 	ldrtcc	r7, [r1], #-867	; 0x363
    9d34:	692d6530 	pushvs	{r4, r5, r8, sl, sp, lr}
    9d38:	7265746e 	rsbvc	r7, r5, #1845493760	; 0x6e000000
    9d3c:	74707572 	ldrbtvc	r7, [r0], #-1394	; 0x572
    9d40:	746e692f 	strbtvc	r6, [lr], #-2351	; 0x92f
    9d44:	75727265 	ldrbvc	r7, [r2, #-613]!	; 0x265
    9d48:	2d737470 	cfldrdcs	mvd7, [r3, #-448]!	; 0xfffffe40
    9d4c:	00632e63 	rsbeq	r2, r3, r3, ror #28
    9d50:	74736166 	ldrbtvc	r6, [r3], #-358	; 0x166
    9d54:	00000000 	andeq	r0, r0, r0
    9d58:	74666f73 	strbtvc	r6, [r6], #-3955	; 0xf73
    9d5c:	746e6920 	strbtvc	r6, [lr], #-2336	; 0x920
    9d60:	75727265 	ldrbvc	r7, [r2, #-613]!	; 0x265
    9d64:	00007470 	andeq	r7, r0, r0, ror r4
    9d68:	65736572 	ldrbvs	r6, [r3, #-1394]!	; 0x572
    9d6c:	65762074 	ldrbvs	r2, [r6, #-116]!	; 0x74
    9d70:	726f7463 	rsbvc	r7, pc, #1660944384	; 0x63000000
    9d74:	00000000 	andeq	r0, r0, r0
    9d78:	65646e75 	strbvs	r6, [r4, #-3701]!	; 0xe75
    9d7c:	656e6966 	strbvs	r6, [lr, #-2406]!	; 0x966
    9d80:	6e692064 	cdpvs	0, 6, cr2, cr9, cr4, {3}
    9d84:	75727473 	ldrbvc	r7, [r2, #-1139]!	; 0x473
    9d88:	6f697463 	svcvs	0x00697463
    9d8c:	0000006e 	andeq	r0, r0, lr, rrx
    9d90:	66657270 			; <UNDEFINED> instruction: 0x66657270
    9d94:	68637465 	stmdavs	r3!, {r0, r2, r5, r6, sl, ip, sp, lr}^
    9d98:	6f626120 	svcvs	0x00626120
    9d9c:	00007472 	andeq	r7, r0, r2, ror r4
    9da0:	61746164 	cmnvs	r4, r4, ror #2
    9da4:	6f626120 	svcvs	0x00626120
    9da8:	00007472 	andeq	r7, r0, r2, ror r4

Disassembly of section .bss:

00009dac <__bss_start__>:
    9dac:	00000000 	andeq	r0, r0, r0

00009db0 <nevents>:
    9db0:	00000000 	andeq	r0, r0, r0

00009db4 <cycle_counter>:
    9db4:	00000000 	andeq	r0, r0, r0

00009db8 <n_rising_edge>:
    9db8:	00000000 	andeq	r0, r0, r0

00009dbc <buf.4150>:
	...

0000a1bc <rpi_arm_timer_t>:
    a1bc:	00000000 	andeq	r0, r0, r0

0000a1c0 <events>:
	...

Disassembly of section .ARM.attributes:

00000000 <.ARM.attributes>:
   0:	00002a41 	andeq	r2, r0, r1, asr #20
   4:	61656100 	cmnvs	r5, r0, lsl #2
   8:	01006962 	tsteq	r0, r2, ror #18
   c:	00000020 	andeq	r0, r0, r0, lsr #32
  10:	4b5a3605 	blmi	168d82c <__bss_end__+0x168326c>
  14:	08070600 	stmdaeq	r7, {r9, sl}
  18:	12010901 	andne	r0, r1, #16384	; 0x4000
  1c:	15011404 	strne	r1, [r1, #-1028]	; 0x404
  20:	18031701 	stmdane	r3, {r0, r8, r9, sl, ip}
  24:	22011a01 	andcs	r1, r1, #4096	; 0x1000
  28:	Address 0x0000000000000028 is out of bounds.


Disassembly of section .comment:

00000000 <.comment>:
   0:	3a434347 	bcc	10d0d24 <__bss_end__+0x10c6764>
   4:	4e472820 	cdpmi	8, 4, cr2, cr7, cr0, {1}
   8:	34202955 	strtcc	r2, [r0], #-2389	; 0x955
   c:	332e382e 	teqcc	lr, #3014656	; 0x2e0000
	...

Disassembly of section .debug_info:

00000000 <.debug_info>:
       0:	00001600 	andeq	r1, r0, r0, lsl #12
       4:	00000004 	andeq	r0, r0, r4
       8:	01040000 	mrseq	r0, (UNDEF: 4)
       c:	00000356 	andeq	r0, r0, r6, asr r3
      10:	0003e201 	andeq	lr, r3, r1, lsl #4
      14:	00028d00 	andeq	r8, r2, r0, lsl #26
      18:	00801000 	addeq	r1, r0, r0
      1c:	0007fc00 	andeq	pc, r7, r0, lsl #24
      20:	00000000 	andeq	r0, r0, r0
      24:	05040200 	streq	r0, [r4, #-512]	; 0x200
      28:	00746e69 	rsbseq	r6, r4, r9, ror #28
      2c:	6c070403 	cfstrsvs	mvf0, [r7], {3}
      30:	03000000 	movweq	r0, #0
      34:	03060601 	movweq	r0, #26113	; 0x6601
      38:	02030000 	andeq	r0, r3, #0
      3c:	00031205 	andeq	r1, r3, r5, lsl #4
      40:	05040300 	streq	r0, [r4, #-768]	; 0x300
      44:	0000008e 	andeq	r0, r0, lr, lsl #1
      48:	89050803 	stmdbhi	r5, {r0, r1, fp}
      4c:	04000000 	streq	r0, [r0], #-0
      50:	0000046a 	andeq	r0, r0, sl, ror #8
      54:	005a2e03 	subseq	r2, sl, r3, lsl #28
      58:	01030000 	mrseq	r0, (UNDEF: 3)
      5c:	00030408 	andeq	r0, r3, r8, lsl #8
      60:	07020300 	streq	r0, [r2, -r0, lsl #6]
      64:	00000167 	andeq	r0, r0, r7, ror #2
      68:	00033204 	andeq	r3, r3, r4, lsl #4
      6c:	73340300 	teqvc	r4, #0, 6
      70:	03000000 	movweq	r0, #0
      74:	00670704 	rsbeq	r0, r7, r4, lsl #14
      78:	08030000 	stmdaeq	r3, {}	; <UNPREDICTABLE>
      7c:	00006207 	andeq	r6, r0, r7, lsl #4
      80:	07040300 	streq	r0, [r4, -r0, lsl #6]
      84:	000001fa 	strdeq	r0, [r0], -sl
      88:	04060405 	streq	r0, [r6], #-1029	; 0x405
      8c:	00000090 	muleq	r0, r0, r0
      90:	0d080103 	stfeqs	f0, [r8, #-12]
      94:	06000003 	streq	r0, [r0], -r3
      98:	00009d04 	andeq	r9, r0, r4, lsl #26
      9c:	00900700 	addseq	r0, r0, r0, lsl #14
      a0:	90080000 	andls	r0, r8, r0
      a4:	b2000000 	andlt	r0, r0, #0
      a8:	09000000 	stmdbeq	r0, {}	; <UNPREDICTABLE>
      ac:	00000081 	andeq	r0, r0, r1, lsl #1
      b0:	010a0007 	tsteq	sl, r7
      b4:	00d33704 	sbcseq	r3, r3, r4, lsl #14
      b8:	000b0000 	andeq	r0, fp, r0
      bc:	31000000 	mrscc	r0, (UNDEF: 0)
      c0:	00000a0b 	andeq	r0, r0, fp, lsl #20
      c4:	140b3200 	strne	r3, [fp], #-512	; 0x200
      c8:	33000000 	movwcc	r0, #0
      cc:	00001e0b 	andeq	r1, r0, fp, lsl #28
      d0:	0a003400 	beq	d0d8 <__bss_end__+0x2b18>
      d4:	40330504 	eorsmi	r0, r3, r4, lsl #10
      d8:	0b000001 	bleq	e4 <_start-0x7f1c>
      dc:	000000f2 	strdeq	r0, [r0], -r2
      e0:	8082e880 	addhi	lr, r2, r0, lsl #17
      e4:	00e30b02 	rsceq	r0, r3, r2, lsl #22
      e8:	e8800000 	stm	r0, {}	; <UNPREDICTABLE>
      ec:	0b028082 	bleq	a02fc <__bss_end__+0x95d3c>
      f0:	00000417 	andeq	r0, r0, r7, lsl r4
      f4:	8082e884 	addhi	lr, r2, r4, lsl #17
      f8:	00c70b02 	sbceq	r0, r7, r2, lsl #22
      fc:	e8880000 	stm	r8, {}	; <UNPREDICTABLE>
     100:	0b028082 	bleq	a0310 <__bss_end__+0x95d50>
     104:	00000427 	andeq	r0, r0, r7, lsr #8
     108:	8082e88c 	addhi	lr, r2, ip, lsl #17
     10c:	003b0b02 	eorseq	r0, fp, r2, lsl #22
     110:	e8900000 	ldm	r0, {}	; <UNPREDICTABLE>
     114:	0b028082 	bleq	a0324 <__bss_end__+0x95d64>
     118:	0000011a 	andeq	r0, r0, sl, lsl r1
     11c:	8082e894 	umullhi	lr, r2, r4, r8
     120:	021a0b02 	andseq	r0, sl, #2048	; 0x800
     124:	e8980000 	ldm	r8, {}	; <UNPREDICTABLE>
     128:	0b028082 	bleq	a0338 <__bss_end__+0x95d78>
     12c:	000003fa 	strdeq	r0, [r0], -sl
     130:	8082e89c 	umullhi	lr, r2, ip, r8
     134:	04a70b02 	strteq	r0, [r7], #2818	; 0xb02
     138:	e8a00000 	stmia	r0!, {}	; <UNPREDICTABLE>
     13c:	00028082 	andeq	r8, r2, r2, lsl #1
     140:	00002c0c 	andeq	r2, r0, ip, lsl #24
     144:	060c0d00 	streq	r0, [ip], -r0, lsl #26
     148:	00017c0e 	andeq	r7, r1, lr, lsl #24
     14c:	78740e00 	ldmdavc	r4!, {r9, sl, fp}^
     150:	4f0f0600 	svcmi	0x000f0600
     154:	00000000 	andeq	r0, r0, r0
     158:	0078720e 	rsbseq	r7, r8, lr, lsl #4
     15c:	004f0f06 	subeq	r0, pc, r6, lsl #30
     160:	0f010000 	svceq	0x00010000
     164:	0000033b 	andeq	r0, r0, fp, lsr r3
     168:	00681006 	rsbeq	r1, r8, r6
     16c:	0f040000 	svceq	0x00040000
     170:	00000499 	muleq	r0, r9, r4
     174:	00681106 	rsbeq	r1, r8, r6, lsl #2
     178:	00080000 	andeq	r0, r8, r0
     17c:	0002fa04 	andeq	pc, r2, r4, lsl #20
     180:	45120600 	ldrmi	r0, [r2, #-1536]	; 0x600
     184:	04000001 	streq	r0, [r0], #-1
     188:	0000020b 	andeq	r0, r0, fp, lsl #4
     18c:	01922807 	orrseq	r2, r2, r7, lsl #16
     190:	d9100000 	ldmdble	r0, {}	; <UNPREDICTABLE>
     194:	04000000 	streq	r0, [r0], #-0
     198:	01a90008 			; <UNDEFINED> instruction: 0x01a90008
     19c:	f5110000 			; <UNDEFINED> instruction: 0xf5110000
     1a0:	88000003 	stmdahi	r0, {r0, r1}
     1a4:	00000000 	andeq	r0, r0, r0
     1a8:	00db0400 	sbcseq	r0, fp, r0, lsl #8
     1ac:	62070000 	andvs	r0, r7, #0
     1b0:	00000187 	andeq	r0, r0, r7, lsl #3
     1b4:	d601010a 	strle	r0, [r1], -sl, lsl #2
     1b8:	000001c9 	andeq	r0, r0, r9, asr #3
     1bc:	0003400b 	andeq	r4, r3, fp
     1c0:	2e0b1500 	cfsh32cs	mvfx1, mvfx11, #0
     1c4:	14000001 	strne	r0, [r0], #-1
     1c8:	01611000 	cmneq	r1, r0
     1cc:	01080000 	mrseq	r0, (UNDEF: 8)
     1d0:	0001ecda 	ldrdeq	lr, [r1], -sl
     1d4:	00760e00 	rsbseq	r0, r6, r0, lsl #28
     1d8:	002cdb01 	eoreq	sp, ip, r1, lsl #22
     1dc:	0f000000 	svceq	0x00000000
     1e0:	0000013b 	andeq	r0, r0, fp, lsr r1
     1e4:	002cdc01 	eoreq	sp, ip, r1, lsl #24
     1e8:	00040000 	andeq	r0, r4, r0
     1ec:	00013512 	andeq	r3, r1, r2, lsl r5
     1f0:	03090200 	movweq	r0, #37376	; 0x9200
     1f4:	0000021a 	andeq	r0, r0, sl, lsl r2
     1f8:	0005f813 	andeq	pc, r5, r3, lsl r8	; <UNPREDICTABLE>
     1fc:	2c090200 	sfmcs	f0, 4, [r9], {-0}
     200:	14000000 	strne	r0, [r0], #-0
     204:	0902006e 	stmdbeq	r2, {r1, r2, r3, r5, r6}
     208:	0000002c 	andeq	r0, r0, ip, lsr #32
     20c:	02571615 	subseq	r1, r7, #22020096	; 0x1500000
     210:	0c020000 	stceq	0, cr0, [r2], {-0}
     214:	0000002c 	andeq	r0, r0, ip, lsr #32
     218:	79120000 	ldmdbvc	r2, {}	; <UNPREDICTABLE>
     21c:	02000000 	andeq	r0, r0, #0
     220:	02510317 	subseq	r0, r1, #1543503872	; 0x5c000000
     224:	70140000 	andsvc	r0, r4, r0
     228:	02006e69 	andeq	r6, r0, #1680	; 0x690
     22c:	00002c17 	andeq	r2, r0, r7, lsl ip
     230:	00761400 	rsbseq	r1, r6, r0, lsl #8
     234:	002c1702 	eoreq	r1, ip, r2, lsl #14
     238:	f8130000 			; <UNDEFINED> instruction: 0xf8130000
     23c:	02000005 	andeq	r0, r0, #5
     240:	00002c17 	andeq	r2, r0, r7, lsl ip
     244:	013b1300 	teqeq	fp, r0, lsl #6
     248:	17020000 	strne	r0, [r2, -r0]
     24c:	0000002c 	andeq	r0, r0, ip, lsr #32
     250:	019b1700 	orrseq	r1, fp, r0, lsl #14
     254:	0d010000 	stceq	0, cr0, [r1, #-0]
     258:	00008010 	andeq	r8, r0, r0, lsl r0
     25c:	00000158 	andeq	r0, r0, r8, asr r1
     260:	08309c01 	ldmdaeq	r0!, {r0, sl, fp, ip, pc}
     264:	88180000 	ldmdahi	r8, {}	; <UNPREDICTABLE>
     268:	01000002 	tsteq	r0, r2
     26c:	0008300d 	andeq	r3, r8, sp
     270:	00000000 	andeq	r0, r0, r0
     274:	00631900 	rsbeq	r1, r3, r0, lsl #18
     278:	005a0d01 	subseq	r0, sl, r1, lsl #26
     27c:	00210000 	eoreq	r0, r1, r0
     280:	741a0000 	ldrvc	r0, [sl], #-0
     284:	0f010078 	svceq	0x00010078
     288:	00000025 	andeq	r0, r0, r5, lsr #32
     28c:	08007606 	stmdaeq	r0, {r1, r2, r9, sl, ip, sp, lr}
     290:	1b9f1aff 	blne	fe7c6e94 <__bss_end__+0xfe7bc8d4>
     294:	1001006e 	andne	r0, r1, lr, rrx
     298:	00000068 	andeq	r0, r0, r8, rrx
     29c:	00000042 	andeq	r0, r0, r2, asr #32
     2a0:	0100751b 	tsteq	r0, fp, lsl r5
     2a4:	00006811 	andeq	r6, r0, r1, lsl r8
     2a8:	00004200 	andeq	r4, r0, r0, lsl #4
     2ac:	00731c00 	rsbseq	r1, r3, r0, lsl #24
     2b0:	00681201 	rsbeq	r1, r8, r1, lsl #4
     2b4:	651b0000 	ldrvs	r0, [fp, #-0]
     2b8:	0100646e 	tsteq	r0, lr, ror #8
     2bc:	00002c15 	andeq	r2, r0, r5, lsl ip
     2c0:	00005500 	andeq	r5, r0, r0, lsl #10
     2c4:	05f81d00 	ldrbeq	r1, [r8, #3328]!	; 0xd00
     2c8:	16010000 	strne	r0, [r1], -r0
     2cc:	0000002c 	andeq	r0, r0, ip, lsr #32
     2d0:	201e5401 	andscs	r5, lr, r1, lsl #8
     2d4:	04000080 	streq	r0, [r0], #-128	; 0x80
     2d8:	eb000000 	bl	2e0 <_start-0x7d20>
     2dc:	16000002 	strne	r0, [r0], -r2
     2e0:	00000257 	andeq	r0, r0, r7, asr r2
     2e4:	002c1201 	eoreq	r1, ip, r1, lsl #4
     2e8:	1e000000 	cdpne	0, 0, cr0, cr0, cr0, {0}
     2ec:	00008024 	andeq	r8, r0, r4, lsr #32
     2f0:	00000004 	andeq	r0, r0, r4
     2f4:	00000306 	andeq	r0, r0, r6, lsl #6
     2f8:	0002571d 	andeq	r5, r2, sp, lsl r7
     2fc:	2c160100 	ldfcss	f0, [r6], {-0}
     300:	01000000 	mrseq	r0, (UNDEF: 0)
     304:	1a1f0054 	bne	7c045c <__bss_end__+0x7b5e9c>
     308:	28000002 	stmdacs	r0, {r1}
     30c:	1c000080 	stcne	0, cr0, [r0], {128}	; 0x80
     310:	01000000 	mrseq	r0, (UNDEF: 0)
     314:	00038319 	andeq	r8, r3, r9, lsl r3
     318:	02452000 	subeq	r2, r5, #0
     31c:	007e0000 	rsbseq	r0, lr, r0
     320:	3a210000 	bcc	840328 <__bss_end__+0x835d68>
     324:	01000002 	tsteq	r0, r2
     328:	02312254 	eorseq	r2, r1, #84, 4	; 0x40000005
     32c:	21000000 	mrscs	r0, (UNDEF: 0)
     330:	00000226 	andeq	r0, r0, r6, lsr #4
     334:	ec1f5601 	ldc	6, cr5, [pc], {1}
     338:	34000001 	strcc	r0, [r0], #-1
     33c:	10000080 	andne	r0, r0, r0, lsl #1
     340:	02000000 	andeq	r0, r0, #0
     344:	00036d1a 	andeq	r6, r3, sl, lsl sp
     348:	02032000 	andeq	r2, r3, #0
     34c:	00910000 	addseq	r0, r1, r0
     350:	f8210000 			; <UNDEFINED> instruction: 0xf8210000
     354:	01000001 	tsteq	r0, r1
     358:	80342354 	eorshi	r2, r4, r4, asr r3
     35c:	00040000 	andeq	r0, r4, r0
     360:	0d240000 	stceq	0, cr0, [r4, #-0]
     364:	a4000002 	strge	r0, [r0], #-2
     368:	00000000 	andeq	r0, r0, r0
     36c:	80342500 	eorshi	r2, r4, r0, lsl #10
     370:	14f90000 	ldrbtne	r0, [r9], #0
     374:	01260000 	teqeq	r6, r0
     378:	26300151 			; <UNDEFINED> instruction: 0x26300151
     37c:	76025001 	strvc	r5, [r2], -r1
     380:	1f000000 	svcne	0x00000000
     384:	0000021a 	andeq	r0, r0, sl, lsl r2
     388:	00008048 	andeq	r8, r0, r8, asr #32
     38c:	0000001c 	andeq	r0, r0, ip, lsl r0
     390:	04061b01 	streq	r1, [r6], #-2817	; 0xb01
     394:	45200000 	strmi	r0, [r0, #-0]!
     398:	b7000002 	strlt	r0, [r0, -r2]
     39c:	21000000 	mrscs	r0, (UNDEF: 0)
     3a0:	0000023a 	andeq	r0, r0, sl, lsr r2
     3a4:	31205401 	teqcc	r0, r1, lsl #8
     3a8:	d9000002 	stmdble	r0, {r1}
     3ac:	21000000 	mrscs	r0, (UNDEF: 0)
     3b0:	00000226 	andeq	r0, r0, r6, lsr #4
     3b4:	ec1f5601 	ldc	6, cr5, [pc], {1}
     3b8:	54000001 	strpl	r0, [r0], #-1
     3bc:	10000080 	andne	r0, r0, r0, lsl #1
     3c0:	02000000 	andeq	r0, r0, #0
     3c4:	0003ed1a 	andeq	lr, r3, sl, lsl sp
     3c8:	02032000 	andeq	r2, r3, #0
     3cc:	010a0000 	mrseq	r0, (UNDEF: 10)
     3d0:	f8210000 			; <UNDEFINED> instruction: 0xf8210000
     3d4:	01000001 	tsteq	r0, r1
     3d8:	80542354 	subshi	r2, r4, r4, asr r3
     3dc:	00040000 	andeq	r0, r4, r0
     3e0:	0d240000 	stceq	0, cr0, [r4, #-0]
     3e4:	2c000002 	stccs	0, cr0, [r0], {2}
     3e8:	00000001 	andeq	r0, r0, r1
     3ec:	80542500 	subshi	r2, r4, r0, lsl #10
     3f0:	14f90000 	ldrbtne	r0, [r9], #0
     3f4:	01260000 	teqeq	r6, r0
     3f8:	00770451 	rsbseq	r0, r7, r1, asr r4
     3fc:	01261a31 	teqeq	r6, r1, lsr sl
     400:	00760250 	rsbseq	r0, r6, r0, asr r2
     404:	1a1f0000 	bne	7c040c <__bss_end__+0x7b5e4c>
     408:	68000002 	stmdavs	r0, {r1}
     40c:	1c000080 	stcne	0, cr0, [r0], {128}	; 0x80
     410:	01000000 	mrseq	r0, (UNDEF: 0)
     414:	00048e1d 	andeq	r8, r4, sp, lsl lr
     418:	02452000 	subeq	r2, r5, #0
     41c:	013f0000 	teqeq	pc, r0
     420:	3a210000 	bcc	840428 <__bss_end__+0x835e68>
     424:	01000002 	tsteq	r0, r2
     428:	02312154 	eorseq	r2, r1, #84, 2
     42c:	77080000 	strvc	r0, [r8, -r0]
     430:	081a3200 	ldmdaeq	sl, {r9, ip, sp}
     434:	219f1aff 			; <UNDEFINED> instruction: 0x219f1aff
     438:	00000226 	andeq	r0, r0, r6, lsr #4
     43c:	ec1f5601 	ldc	6, cr5, [pc], {1}
     440:	74000001 	strvc	r0, [r0], #-1
     444:	10000080 	andne	r0, r0, r0, lsl #1
     448:	02000000 	andeq	r0, r0, #0
     44c:	0004751a 	andeq	r7, r4, sl, lsl r5
     450:	02032000 	andeq	r2, r3, #0
     454:	01640000 	cmneq	r4, r0
     458:	f8210000 			; <UNDEFINED> instruction: 0xf8210000
     45c:	01000001 	tsteq	r0, r1
     460:	80742354 	rsbshi	r2, r4, r4, asr r3
     464:	00040000 	andeq	r0, r4, r0
     468:	0d240000 	stceq	0, cr0, [r4, #-0]
     46c:	89000002 	stmdbhi	r0, {r1}
     470:	00000001 	andeq	r0, r0, r1
     474:	80742500 	rsbshi	r2, r4, r0, lsl #10
     478:	14f90000 	ldrbtne	r0, [r9], #0
     47c:	01260000 	teqeq	r6, r0
     480:	00770451 	rsbseq	r0, r7, r1, asr r4
     484:	01261a32 	teqeq	r6, r2, lsr sl
     488:	00760250 	rsbseq	r0, r6, r0, asr r2
     48c:	1a1f0000 	bne	7c0494 <__bss_end__+0x7b5ed4>
     490:	88000002 	stmdahi	r0, {r1}
     494:	1c000080 	stcne	0, cr0, [r0], {128}	; 0x80
     498:	01000000 	mrseq	r0, (UNDEF: 0)
     49c:	0005161f 	andeq	r1, r5, pc, lsl r6
     4a0:	02452000 	subeq	r2, r5, #0
     4a4:	019c0000 	orrseq	r0, ip, r0
     4a8:	3a210000 	bcc	8404b0 <__bss_end__+0x835ef0>
     4ac:	01000002 	tsteq	r0, r2
     4b0:	02312154 	eorseq	r2, r1, #84, 2
     4b4:	77080000 	strvc	r0, [r8, -r0]
     4b8:	081a3400 	ldmdaeq	sl, {sl, ip, sp}
     4bc:	219f1aff 			; <UNDEFINED> instruction: 0x219f1aff
     4c0:	00000226 	andeq	r0, r0, r6, lsr #4
     4c4:	ec1f5601 	ldc	6, cr5, [pc], {1}
     4c8:	94000001 	strls	r0, [r0], #-1
     4cc:	10000080 	andne	r0, r0, r0, lsl #1
     4d0:	02000000 	andeq	r0, r0, #0
     4d4:	0004fd1a 	andeq	pc, r4, sl, lsl sp	; <UNPREDICTABLE>
     4d8:	02032000 	andeq	r2, r3, #0
     4dc:	01be0000 			; <UNDEFINED> instruction: 0x01be0000
     4e0:	f8210000 			; <UNDEFINED> instruction: 0xf8210000
     4e4:	01000001 	tsteq	r0, r1
     4e8:	80942354 	addshi	r2, r4, r4, asr r3
     4ec:	00040000 	andeq	r0, r4, r0
     4f0:	0d240000 	stceq	0, cr0, [r4, #-0]
     4f4:	e0000002 	and	r0, r0, r2
     4f8:	00000001 	andeq	r0, r0, r1
     4fc:	80942500 	addshi	r2, r4, r0, lsl #10
     500:	14f90000 	ldrbtne	r0, [r9], #0
     504:	01260000 	teqeq	r6, r0
     508:	00770451 	rsbseq	r0, r7, r1, asr r4
     50c:	01261a34 	teqeq	r6, r4, lsr sl
     510:	00760250 	rsbseq	r0, r6, r0, asr r2
     514:	1a1f0000 	bne	7c051c <__bss_end__+0x7b5f5c>
     518:	a8000002 	stmdage	r0, {r1}
     51c:	1c000080 	stcne	0, cr0, [r0], {128}	; 0x80
     520:	01000000 	mrseq	r0, (UNDEF: 0)
     524:	00059e21 	andeq	r9, r5, r1, lsr #28
     528:	02452000 	subeq	r2, r5, #0
     52c:	01f30000 	mvnseq	r0, r0
     530:	3a210000 	bcc	840538 <__bss_end__+0x835f78>
     534:	01000002 	tsteq	r0, r2
     538:	02312154 	eorseq	r2, r1, #84, 2
     53c:	77080000 	strvc	r0, [r8, -r0]
     540:	081a3800 	ldmdaeq	sl, {fp, ip, sp}
     544:	219f1aff 			; <UNDEFINED> instruction: 0x219f1aff
     548:	00000226 	andeq	r0, r0, r6, lsr #4
     54c:	ec1f5601 	ldc	6, cr5, [pc], {1}
     550:	b4000001 	strlt	r0, [r0], #-1
     554:	10000080 	andne	r0, r0, r0, lsl #1
     558:	02000000 	andeq	r0, r0, #0
     55c:	0005851a 	andeq	r8, r5, sl, lsl r5
     560:	02032000 	andeq	r2, r3, #0
     564:	02180000 	andseq	r0, r8, #0
     568:	f8210000 			; <UNDEFINED> instruction: 0xf8210000
     56c:	01000001 	tsteq	r0, r1
     570:	80b42354 	adcshi	r2, r4, r4, asr r3
     574:	00040000 	andeq	r0, r4, r0
     578:	0d240000 	stceq	0, cr0, [r4, #-0]
     57c:	3d000002 	stccc	0, cr0, [r0, #-8]
     580:	00000002 	andeq	r0, r0, r2
     584:	80b42500 	adcshi	r2, r4, r0, lsl #10
     588:	14f90000 	ldrbtne	r0, [r9], #0
     58c:	01260000 	teqeq	r6, r0
     590:	00770451 	rsbseq	r0, r7, r1, asr r4
     594:	01261a38 	teqeq	r6, r8, lsr sl
     598:	00760250 	rsbseq	r0, r6, r0, asr r2
     59c:	1a1f0000 	bne	7c05a4 <__bss_end__+0x7b5fe4>
     5a0:	c8000002 	stmdagt	r0, {r1}
     5a4:	1c000080 	stcne	0, cr0, [r0], {128}	; 0x80
     5a8:	01000000 	mrseq	r0, (UNDEF: 0)
     5ac:	00062623 	andeq	r2, r6, r3, lsr #12
     5b0:	02452000 	subeq	r2, r5, #0
     5b4:	02500000 	subseq	r0, r0, #0
     5b8:	3a210000 	bcc	8405c0 <__bss_end__+0x836000>
     5bc:	01000002 	tsteq	r0, r2
     5c0:	02312154 	eorseq	r2, r1, #84, 2
     5c4:	77080000 	strvc	r0, [r8, -r0]
     5c8:	081a4000 	ldmdaeq	sl, {lr}
     5cc:	219f1aff 			; <UNDEFINED> instruction: 0x219f1aff
     5d0:	00000226 	andeq	r0, r0, r6, lsr #4
     5d4:	ec1f5601 	ldc	6, cr5, [pc], {1}
     5d8:	d4000001 	strle	r0, [r0], #-1
     5dc:	10000080 	andne	r0, r0, r0, lsl #1
     5e0:	02000000 	andeq	r0, r0, #0
     5e4:	00060d1a 	andeq	r0, r6, sl, lsl sp
     5e8:	02032000 	andeq	r2, r3, #0
     5ec:	02770000 	rsbseq	r0, r7, #0
     5f0:	f8210000 			; <UNDEFINED> instruction: 0xf8210000
     5f4:	01000001 	tsteq	r0, r1
     5f8:	80d42354 	sbcshi	r2, r4, r4, asr r3
     5fc:	00040000 	andeq	r0, r4, r0
     600:	0d240000 	stceq	0, cr0, [r4, #-0]
     604:	9e000002 	cdpls	0, 0, cr0, cr0, cr2, {0}
     608:	00000002 	andeq	r0, r0, r2
     60c:	80d42500 	sbcshi	r2, r4, r0, lsl #10
     610:	14f90000 	ldrbtne	r0, [r9], #0
     614:	01260000 	teqeq	r6, r0
     618:	00770451 	rsbseq	r0, r7, r1, asr r4
     61c:	01261a40 	teqeq	r6, r0, asr #20
     620:	00760250 	rsbseq	r0, r6, r0, asr r2
     624:	1a1f0000 	bne	7c062c <__bss_end__+0x7b606c>
     628:	e8000002 	stmda	r0, {r1}
     62c:	1c000080 	stcne	0, cr0, [r0], {128}	; 0x80
     630:	01000000 	mrseq	r0, (UNDEF: 0)
     634:	0006b025 	andeq	fp, r6, r5, lsr #32
     638:	02452000 	subeq	r2, r5, #0
     63c:	02b10000 	adcseq	r0, r1, #0
     640:	3a210000 	bcc	840648 <__bss_end__+0x836088>
     644:	01000002 	tsteq	r0, r2
     648:	02312154 	eorseq	r2, r1, #84, 2
     64c:	77090000 	strvc	r0, [r9, -r0]
     650:	1a200800 	bne	802658 <__bss_end__+0x7f8098>
     654:	9f1aff08 	svcls	0x001aff08
     658:	00022621 	andeq	r2, r2, r1, lsr #12
     65c:	1f560100 	svcne	0x00560100
     660:	000001ec 	andeq	r0, r0, ip, ror #3
     664:	000080f4 	strdeq	r8, [r0], -r4
     668:	00000010 	andeq	r0, r0, r0, lsl r0
     66c:	06961a02 	ldreq	r1, [r6], r2, lsl #20
     670:	03200000 	teqeq	r0, #0
     674:	db000002 	blle	684 <_start-0x797c>
     678:	21000002 	tstcs	r0, r2
     67c:	000001f8 	strdeq	r0, [r0], -r8
     680:	f4235401 	vld3.8	{d5-d7}, [r3], r1
     684:	04000080 	streq	r0, [r0], #-128	; 0x80
     688:	24000000 	strcs	r0, [r0], #-0
     68c:	0000020d 	andeq	r0, r0, sp, lsl #4
     690:	00000305 	andeq	r0, r0, r5, lsl #6
     694:	f4250000 	vld4.8	{d0-d3}, [r5], r0
     698:	f9000080 			; <UNDEFINED> instruction: 0xf9000080
     69c:	26000014 			; <UNDEFINED> instruction: 0x26000014
     6a0:	77055101 	strvc	r5, [r5, -r1, lsl #2]
     6a4:	1a200800 	bne	8026ac <__bss_end__+0x7f80ec>
     6a8:	02500126 	subseq	r0, r0, #-2147483639	; 0x80000009
     6ac:	00000076 	andeq	r0, r0, r6, ror r0
     6b0:	00021a1f 	andeq	r1, r2, pc, lsl sl
     6b4:	00810800 	addeq	r0, r1, r0, lsl #16
     6b8:	00001c00 	andeq	r1, r0, r0, lsl #24
     6bc:	3a270100 	bcc	9c0ac4 <__bss_end__+0x9b6504>
     6c0:	20000007 	andcs	r0, r0, r7
     6c4:	00000245 	andeq	r0, r0, r5, asr #4
     6c8:	00000318 	andeq	r0, r0, r8, lsl r3
     6cc:	00023a21 	andeq	r3, r2, r1, lsr #20
     6d0:	21540100 	cmpcs	r4, r0, lsl #2
     6d4:	00000231 	andeq	r0, r0, r1, lsr r2
     6d8:	08007709 	stmdaeq	r0, {r0, r3, r8, r9, sl, ip, sp, lr}
     6dc:	ff081a40 			; <UNDEFINED> instruction: 0xff081a40
     6e0:	26219f1a 	qadd16cs	r9, r1, sl
     6e4:	01000002 	tsteq	r0, r2
     6e8:	01ec1f56 	mvneq	r1, r6, asr pc
     6ec:	81140000 	tsthi	r4, r0
     6f0:	00100000 	andseq	r0, r0, r0
     6f4:	1a020000 	bne	806fc <__bss_end__+0x7613c>
     6f8:	00000720 	andeq	r0, r0, r0, lsr #14
     6fc:	00020320 	andeq	r0, r2, r0, lsr #6
     700:	00033a00 	andeq	r3, r3, r0, lsl #20
     704:	01f82100 	mvnseq	r2, r0, lsl #2
     708:	54010000 	strpl	r0, [r1], #-0
     70c:	00811423 	addeq	r1, r1, r3, lsr #8
     710:	00000400 	andeq	r0, r0, r0, lsl #8
     714:	020d2400 	andeq	r2, sp, #0, 8
     718:	035c0000 	cmpeq	ip, #0
     71c:	00000000 	andeq	r0, r0, r0
     720:	00811425 	addeq	r1, r1, r5, lsr #8
     724:	0014f900 	andseq	pc, r4, r0, lsl #18
     728:	51012600 	tstpl	r1, r0, lsl #12
     72c:	08007705 	stmdaeq	r0, {r0, r2, r8, r9, sl, ip, sp, lr}
     730:	01261a40 	teqeq	r6, r0, asr #20
     734:	00760250 	rsbseq	r0, r6, r0, asr r2
     738:	1a1f0000 	bne	7c0740 <__bss_end__+0x7b6180>
     73c:	28000002 	stmdacs	r0, {r1}
     740:	1c000081 	stcne	0, cr0, [r0], {129}	; 0x81
     744:	01000000 	mrseq	r0, (UNDEF: 0)
     748:	0007ba29 	andeq	fp, r7, r9, lsr #20
     74c:	02452100 	subeq	r2, r5, #0, 2
     750:	58010000 	stmdapl	r1, {}	; <UNPREDICTABLE>
     754:	00023a21 	andeq	r3, r2, r1, lsr #20
     758:	20540100 	subscs	r0, r4, r0, lsl #2
     75c:	00000231 	andeq	r0, r0, r1, lsr r2
     760:	0000036f 	andeq	r0, r0, pc, ror #6
     764:	00022621 	andeq	r2, r2, r1, lsr #12
     768:	1f560100 	svcne	0x00560100
     76c:	000001ec 	andeq	r0, r0, ip, ror #3
     770:	00008134 	andeq	r8, r0, r4, lsr r1
     774:	00000010 	andeq	r0, r0, r0, lsl r0
     778:	07a01a02 	streq	r1, [r0, r2, lsl #20]!
     77c:	03210000 	teqeq	r1, #0
     780:	01000002 	tsteq	r0, r2
     784:	01f82158 	mvnseq	r2, r8, asr r1
     788:	54010000 	strpl	r0, [r1], #-0
     78c:	00813423 	addeq	r3, r1, r3, lsr #8
     790:	00000400 	andeq	r0, r0, r0, lsl #8
     794:	020d2400 	andeq	r2, sp, #0, 8
     798:	03a20000 			; <UNDEFINED> instruction: 0x03a20000
     79c:	00000000 	andeq	r0, r0, r0
     7a0:	00813425 	addeq	r3, r1, r5, lsr #8
     7a4:	0014f900 	andseq	pc, r4, r0, lsl #18
     7a8:	51012600 	tstpl	r1, r0, lsl #12
     7ac:	08007705 	stmdaeq	r0, {r0, r2, r8, r9, sl, ip, sp, lr}
     7b0:	01261a80 	smlawbeq	r6, r0, sl, r1
     7b4:	00760250 	rsbseq	r0, r6, r0, asr r2
     7b8:	1a270000 	bne	9c07c0 <__bss_end__+0x9b6200>
     7bc:	48000002 	stmdami	r0, {r1}
     7c0:	1c000081 	stcne	0, cr0, [r0], {129}	; 0x81
     7c4:	01000000 	mrseq	r0, (UNDEF: 0)
     7c8:	0245212b 	subeq	r2, r5, #-1073741814	; 0xc000000a
     7cc:	55010000 	strpl	r0, [r1, #-0]
     7d0:	00023a21 	andeq	r3, r2, r1, lsr #20
     7d4:	22540100 	subscs	r0, r4, #0, 2
     7d8:	00000231 	andeq	r0, r0, r1, lsr r2
     7dc:	02262101 	eoreq	r2, r6, #1073741824	; 0x40000000
     7e0:	56010000 	strpl	r0, [r1], -r0
     7e4:	0001ec1f 	andeq	lr, r1, pc, lsl ip
     7e8:	00815400 	addeq	r5, r1, r0, lsl #8
     7ec:	00001000 	andeq	r1, r0, r0
     7f0:	191a0200 	ldmdbne	sl, {r9}
     7f4:	21000008 	tstcs	r0, r8
     7f8:	00000203 	andeq	r0, r0, r3, lsl #4
     7fc:	f8215501 			; <UNDEFINED> instruction: 0xf8215501
     800:	01000001 	tsteq	r0, r1
     804:	81542354 	cmphi	r4, r4, asr r3
     808:	00040000 	andeq	r0, r4, r0
     80c:	0d240000 	stceq	0, cr0, [r4, #-0]
     810:	b5000002 	strlt	r0, [r0, #-2]
     814:	00000003 	andeq	r0, r0, r3
     818:	81542500 	cmphi	r4, r0, lsl #10
     81c:	14f90000 	ldrbtne	r0, [r9], #0
     820:	01260000 	teqeq	r6, r0
     824:	26310151 			; <UNDEFINED> instruction: 0x26310151
     828:	76025001 	strvc	r5, [r2], -r1
     82c:	00000000 	andeq	r0, r0, r0
     830:	017c0406 	cmneq	ip, r6, lsl #8
     834:	4a280000 	bmi	a0083c <__bss_end__+0x9f627c>
     838:	01000004 	tsteq	r0, r4
     83c:	0000252f 	andeq	r2, r0, pc, lsr #10
     840:	08700300 	ldmdaeq	r0!, {r8, r9}^
     844:	72140000 	andsvc	r0, r4, #0
     848:	2f010078 	svccs	0x00010078
     84c:	00000025 	andeq	r0, r0, r5, lsr #32
     850:	01007614 	tsteq	r0, r4, lsl r6
     854:	0000252f 	andeq	r2, r0, pc, lsr #10
     858:	018e1300 	orreq	r1, lr, r0, lsl #6
     85c:	2f010000 	svccs	0x00010000
     860:	0000002c 	andeq	r0, r0, ip, lsr #32
     864:	0005f816 	andeq	pc, r5, r6, lsl r8	; <UNPREDICTABLE>
     868:	2c300100 	ldfcss	f0, [r0], #-0
     86c:	00000000 	andeq	r0, r0, r0
     870:	00009729 	andeq	r9, r0, r9, lsr #14
     874:	253c0100 	ldrcs	r0, [ip, #-256]!	; 0x100
     878:	68000000 	stmdavs	r0, {}	; <UNPREDICTABLE>
     87c:	c8000081 	stmdagt	r0, {r0, r7}
     880:	01000001 	tsteq	r0, r1
     884:	000c2c9c 	muleq	ip, ip, ip
     888:	02881800 	addeq	r1, r8, #0, 16
     88c:	3c010000 	stccc	0, cr0, [r1], {-0}
     890:	00000830 	andeq	r0, r0, r0, lsr r8
     894:	000003c8 	andeq	r0, r0, r8, asr #7
     898:	00018e18 	andeq	r8, r1, r8, lsl lr
     89c:	253c0100 	ldrcs	r0, [ip, #-256]!	; 0x100
     8a0:	0d000000 	stceq	0, cr0, [r0, #-0]
     8a4:	1a000004 	bne	8bc <_start-0x7744>
     8a8:	01007872 	tsteq	r0, r2, ror r8
     8ac:	0000253d 	andeq	r2, r0, sp, lsr r5
     8b0:	1b550100 	blne	1540cb8 <__bss_end__+0x15366f8>
     8b4:	44010073 	strmi	r0, [r1], #-115	; 0x73
     8b8:	0000002c 	andeq	r0, r0, ip, lsr #32
     8bc:	0000042b 	andeq	r0, r0, fp, lsr #8
     8c0:	0100751b 	tsteq	r0, fp, lsl r5
     8c4:	00006847 	andeq	r6, r0, r7, asr #16
     8c8:	00043e00 	andeq	r3, r4, r0, lsl #28
     8cc:	006e1b00 	rsbeq	r1, lr, r0, lsl #22
     8d0:	002c4801 	eoreq	r4, ip, r1, lsl #16
     8d4:	04510000 	ldrbeq	r0, [r1], #-0
     8d8:	631b0000 	tstvs	fp, #0
     8dc:	2c490100 	stfcse	f0, [r9], {-0}
     8e0:	68000000 	stmdavs	r0, {}	; <UNPREDICTABLE>
     8e4:	1f000004 	svcne	0x00000004
     8e8:	00000836 	andeq	r0, r0, r6, lsr r8
     8ec:	0000817c 	andeq	r8, r0, ip, ror r1
     8f0:	00000034 	andeq	r0, r0, r4, lsr r0
     8f4:	094a4001 	stmdbeq	sl, {r0, lr}^
     8f8:	59200000 	stmdbpl	r0!, {}	; <UNPREDICTABLE>
     8fc:	92000008 	andls	r0, r0, #8
     900:	22000004 	andcs	r0, r0, #4
     904:	00000850 	andeq	r0, r0, r0, asr r8
     908:	08462100 	stmdaeq	r6, {r8, sp}^
     90c:	55010000 	strpl	r0, [r1, #-0]
     910:	00817c23 	addeq	r7, r1, r3, lsr #24
     914:	00003400 	andeq	r3, r0, r0, lsl #8
     918:	08642400 	stmdaeq	r4!, {sl, sp}^
     91c:	04b00000 	ldrteq	r0, [r0], #0
     920:	802a0000 	eorhi	r0, sl, r0
     924:	0f000081 	svceq	0x00000081
     928:	2b000015 	blcs	984 <_start-0x767c>
     92c:	0000818c 	andeq	r8, r0, ip, lsl #3
     930:	0000151a 	andeq	r1, r0, sl, lsl r5
     934:	0000093f 	andeq	r0, r0, pc, lsr r9
     938:	02500126 	subseq	r0, r0, #-2147483639	; 0x80000009
     93c:	2a000075 	bcs	b18 <_start-0x74e8>
     940:	00008198 	muleq	r0, r8, r1
     944:	0000150f 	andeq	r1, r0, pc, lsl #10
     948:	b81e0000 	ldmdalt	lr, {}	; <UNPREDICTABLE>
     94c:	04000081 	streq	r0, [r0], #-129	; 0x81
     950:	67000000 	strvs	r0, [r0, -r0]
     954:	2c000009 	stccs	0, cr0, [r0], {9}
     958:	00000257 	andeq	r0, r0, r7, asr r2
     95c:	002c4401 	eoreq	r4, ip, r1, lsl #8
     960:	04ce0000 	strbeq	r0, [lr], #0
     964:	1f000000 	svcne	0x00000000
     968:	000001ec 	andeq	r0, r0, ip, ror #3
     96c:	000081c4 	andeq	r8, r0, r4, asr #3
     970:	00000010 	andeq	r0, r0, r0, lsl r0
     974:	09a04c01 	stmibeq	r0!, {r0, sl, fp, lr}
     978:	03200000 	teqeq	r0, #0
     97c:	e1000002 	tst	r0, r2
     980:	20000004 	andcs	r0, r0, r4
     984:	000001f8 	strdeq	r0, [r0], -r8
     988:	00000506 	andeq	r0, r0, r6, lsl #10
     98c:	0081c423 	addeq	ip, r1, r3, lsr #8
     990:	00000400 	andeq	r0, r0, r0, lsl #8
     994:	020d2400 	andeq	r2, sp, #0, 8
     998:	05190000 	ldreq	r0, [r9, #-0]
     99c:	00000000 	andeq	r0, r0, r0
     9a0:	0001ec1f 	andeq	lr, r1, pc, lsl ip
     9a4:	0081e400 	addeq	lr, r1, r0, lsl #8
     9a8:	00001000 	andeq	r1, r0, r0
     9ac:	d9500100 	ldmdble	r0, {r8}^
     9b0:	20000009 	andcs	r0, r0, r9
     9b4:	00000203 	andeq	r0, r0, r3, lsl #4
     9b8:	0000052c 	andeq	r0, r0, ip, lsr #10
     9bc:	0001f820 	andeq	pc, r1, r0, lsr #16
     9c0:	00053f00 	andeq	r3, r5, r0, lsl #30
     9c4:	81e42300 	mvnhi	r2, r0, lsl #6
     9c8:	00040000 	andeq	r0, r4, r0
     9cc:	0d240000 	stceq	0, cr0, [r4, #-0]
     9d0:	52000002 	andpl	r0, r0, #2
     9d4:	00000005 	andeq	r0, r0, r5
     9d8:	01ec1f00 	mvneq	r1, r0, lsl #30
     9dc:	82080000 	andhi	r0, r8, #0
     9e0:	00100000 	andseq	r0, r0, r0
     9e4:	53010000 	movwpl	r0, #4096	; 0x1000
     9e8:	00000a12 	andeq	r0, r0, r2, lsl sl
     9ec:	00020320 	andeq	r0, r2, r0, lsr #6
     9f0:	00056500 	andeq	r6, r5, r0, lsl #10
     9f4:	01f82000 	mvnseq	r2, r0
     9f8:	05780000 	ldrbeq	r0, [r8, #-0]!
     9fc:	08230000 	stmdaeq	r3!, {}	; <UNPREDICTABLE>
     a00:	04000082 	streq	r0, [r0], #-130	; 0x82
     a04:	24000000 	strcs	r0, [r0], #-0
     a08:	0000020d 	andeq	r0, r0, sp, lsl #4
     a0c:	0000058b 	andeq	r0, r0, fp, lsl #11
     a10:	ec1f0000 	ldc	0, cr0, [pc], {-0}
     a14:	2c000001 	stccs	0, cr0, [r0], {1}
     a18:	10000082 	andne	r0, r0, r2, lsl #1
     a1c:	01000000 	mrseq	r0, (UNDEF: 0)
     a20:	000a4b56 	andeq	r4, sl, r6, asr fp
     a24:	02032000 	andeq	r2, r3, #0
     a28:	059e0000 	ldreq	r0, [lr]
     a2c:	f8200000 			; <UNDEFINED> instruction: 0xf8200000
     a30:	b1000001 	tstlt	r0, r1
     a34:	23000005 	movwcs	r0, #5
     a38:	0000822c 	andeq	r8, r0, ip, lsr #4
     a3c:	00000004 	andeq	r0, r0, r4
     a40:	00020d24 	andeq	r0, r2, r4, lsr #26
     a44:	0005c400 	andeq	ip, r5, r0, lsl #8
     a48:	1f000000 	svcne	0x00000000
     a4c:	000001ec 	andeq	r0, r0, ip, ror #3
     a50:	00008250 	andeq	r8, r0, r0, asr r2
     a54:	00000010 	andeq	r0, r0, r0, lsl r0
     a58:	0a845901 	beq	fe116e64 <__bss_end__+0xfe10c8a4>
     a5c:	03200000 	teqeq	r0, #0
     a60:	d7000002 	strle	r0, [r0, -r2]
     a64:	20000005 	andcs	r0, r0, r5
     a68:	000001f8 	strdeq	r0, [r0], -r8
     a6c:	000005ea 	andeq	r0, r0, sl, ror #11
     a70:	00825023 	addeq	r5, r2, r3, lsr #32
     a74:	00000400 	andeq	r0, r0, r0, lsl #8
     a78:	020d2400 	andeq	r2, sp, #0, 8
     a7c:	05fd0000 	ldrbeq	r0, [sp, #0]!
     a80:	00000000 	andeq	r0, r0, r0
     a84:	0001ec1f 	andeq	lr, r1, pc, lsl ip
     a88:	00827400 	addeq	r7, r2, r0, lsl #8
     a8c:	00001000 	andeq	r1, r0, r0
     a90:	bd5c0100 	ldflte	f0, [ip, #-0]
     a94:	2000000a 	andcs	r0, r0, sl
     a98:	00000203 	andeq	r0, r0, r3, lsl #4
     a9c:	00000610 	andeq	r0, r0, r0, lsl r6
     aa0:	0001f820 	andeq	pc, r1, r0, lsr #16
     aa4:	00062300 	andeq	r2, r6, r0, lsl #6
     aa8:	82742300 	rsbshi	r2, r4, #0, 6
     aac:	00040000 	andeq	r0, r4, r0
     ab0:	0d240000 	stceq	0, cr0, [r4, #-0]
     ab4:	36000002 	strcc	r0, [r0], -r2
     ab8:	00000006 	andeq	r0, r0, r6
     abc:	01ec1f00 	mvneq	r1, r0, lsl #30
     ac0:	82980000 	addshi	r0, r8, #0
     ac4:	00100000 	andseq	r0, r0, r0
     ac8:	5f010000 	svcpl	0x00010000
     acc:	00000af6 	strdeq	r0, [r0], -r6
     ad0:	00020320 	andeq	r0, r2, r0, lsr #6
     ad4:	00064900 	andeq	r4, r6, r0, lsl #18
     ad8:	01f82000 	mvnseq	r2, r0
     adc:	065c0000 	ldrbeq	r0, [ip], -r0
     ae0:	98230000 	stmdals	r3!, {}	; <UNPREDICTABLE>
     ae4:	04000082 	streq	r0, [r0], #-130	; 0x82
     ae8:	24000000 	strcs	r0, [r0], #-0
     aec:	0000020d 	andeq	r0, r0, sp, lsl #4
     af0:	0000066f 	andeq	r0, r0, pc, ror #12
     af4:	ec1f0000 	ldc	0, cr0, [pc], {-0}
     af8:	bc000001 	stclt	0, cr0, [r0], {1}
     afc:	10000082 	andne	r0, r0, r2, lsl #1
     b00:	01000000 	mrseq	r0, (UNDEF: 0)
     b04:	000b2b62 	andeq	r2, fp, r2, ror #22
     b08:	02032000 	andeq	r2, r3, #0
     b0c:	06820000 	streq	r0, [r2], r0
     b10:	f82d0000 			; <UNDEFINED> instruction: 0xf82d0000
     b14:	23000001 	movwcs	r0, #1
     b18:	000082bc 			; <UNDEFINED> instruction: 0x000082bc
     b1c:	00000004 	andeq	r0, r0, r4
     b20:	00020d24 	andeq	r0, r2, r4, lsr #26
     b24:	00069500 	andeq	r9, r6, r0, lsl #10
     b28:	1f000000 	svcne	0x00000000
     b2c:	00000836 	andeq	r0, r0, r6, lsr r8
     b30:	000082dc 	ldrdeq	r8, [r0], -ip
     b34:	00000034 	andeq	r0, r0, r4, lsr r0
     b38:	0b8f6901 	bleq	fe3daf44 <__bss_end__+0xfe3d0984>
     b3c:	592d0000 	pushpl	{}	; <UNPREDICTABLE>
     b40:	20000008 	andcs	r0, r0, r8
     b44:	00000850 	andeq	r0, r0, r0, asr r8
     b48:	000006a8 	andeq	r0, r0, r8, lsr #13
     b4c:	00084620 	andeq	r4, r8, r0, lsr #12
     b50:	0006c800 	andeq	ip, r6, r0, lsl #16
     b54:	82dc2300 	sbcshi	r2, ip, #0, 6
     b58:	00340000 	eorseq	r0, r4, r0
     b5c:	64240000 	strtvs	r0, [r4], #-0
     b60:	e6000008 	str	r0, [r0], -r8
     b64:	2a000006 	bcs	b84 <_start-0x747c>
     b68:	000082e0 	andeq	r8, r0, r0, ror #5
     b6c:	0000150f 	andeq	r1, r0, pc, lsl #10
     b70:	0082ec2b 	addeq	lr, r2, fp, lsr #24
     b74:	00151a00 	andseq	r1, r5, r0, lsl #20
     b78:	000b8400 	andeq	r8, fp, r0, lsl #8
     b7c:	50012600 	andpl	r2, r1, r0, lsl #12
     b80:	00007502 	andeq	r7, r0, r2, lsl #10
     b84:	0082f82a 	addeq	pc, r2, sl, lsr #16
     b88:	00150f00 	andseq	r0, r5, r0, lsl #30
     b8c:	2b000000 	blcs	b94 <_start-0x746c>
     b90:	000081e0 	andeq	r8, r0, r0, ror #3
     b94:	0000151a 	andeq	r1, r0, sl, lsl r5
     b98:	00000ba3 	andeq	r0, r0, r3, lsr #23
     b9c:	02500126 	subseq	r0, r0, #-2147483639	; 0x80000009
     ba0:	2b000075 	blcs	d7c <_start-0x7284>
     ba4:	00008200 	andeq	r8, r0, r0, lsl #4
     ba8:	0000151a 	andeq	r1, r0, sl, lsl r5
     bac:	00000bb7 			; <UNDEFINED> instruction: 0x00000bb7
     bb0:	02500126 	subseq	r0, r0, #-2147483639	; 0x80000009
     bb4:	2b000075 	blcs	d90 <_start-0x7270>
     bb8:	00008224 	andeq	r8, r0, r4, lsr #4
     bbc:	0000151a 	andeq	r1, r0, sl, lsl r5
     bc0:	00000bcb 	andeq	r0, r0, fp, asr #23
     bc4:	02500126 	subseq	r0, r0, #-2147483639	; 0x80000009
     bc8:	2b000075 	blcs	da4 <_start-0x725c>
     bcc:	00008248 	andeq	r8, r0, r8, asr #4
     bd0:	0000151a 	andeq	r1, r0, sl, lsl r5
     bd4:	00000bdf 	ldrdeq	r0, [r0], -pc	; <UNPREDICTABLE>
     bd8:	02500126 	subseq	r0, r0, #-2147483639	; 0x80000009
     bdc:	2b000075 	blcs	db8 <_start-0x7248>
     be0:	0000826c 	andeq	r8, r0, ip, ror #4
     be4:	0000151a 	andeq	r1, r0, sl, lsl r5
     be8:	00000bf3 	strdeq	r0, [r0], -r3
     bec:	02500126 	subseq	r0, r0, #-2147483639	; 0x80000009
     bf0:	2b000075 	blcs	dcc <_start-0x7234>
     bf4:	00008290 	muleq	r0, r0, r2
     bf8:	0000151a 	andeq	r1, r0, sl, lsl r5
     bfc:	00000c07 	andeq	r0, r0, r7, lsl #24
     c00:	02500126 	subseq	r0, r0, #-2147483639	; 0x80000009
     c04:	2b000075 	blcs	de0 <_start-0x7220>
     c08:	000082b4 			; <UNDEFINED> instruction: 0x000082b4
     c0c:	0000151a 	andeq	r1, r0, sl, lsl r5
     c10:	00000c1b 	andeq	r0, r0, fp, lsl ip
     c14:	02500126 	subseq	r0, r0, #-2147483639	; 0x80000009
     c18:	25000075 	strcs	r0, [r0, #-117]	; 0x75
     c1c:	000082d4 	ldrdeq	r8, [r0], -r4
     c20:	0000151a 	andeq	r1, r0, sl, lsl r5
     c24:	02500126 	subseq	r0, r0, #-2147483639	; 0x80000009
     c28:	00000075 	andeq	r0, r0, r5, ror r0
     c2c:	0000ac29 	andeq	sl, r0, r9, lsr #24
     c30:	25740100 	ldrbcs	r0, [r4, #-256]!	; 0x100
     c34:	30000000 	andcc	r0, r0, r0
     c38:	8c000083 	stchi	0, cr0, [r0], {131}	; 0x83
     c3c:	01000000 	mrseq	r0, (UNDEF: 0)
     c40:	000d079c 	muleq	sp, ip, r7
     c44:	00751900 	rsbseq	r1, r5, r0, lsl #18
     c48:	08307401 	ldmdaeq	r0!, {r0, sl, ip, sp, lr}
     c4c:	07040000 	streq	r0, [r4, -r0]
     c50:	62190000 	andsvs	r0, r9, #0
     c54:	01006675 	tsteq	r0, r5, ror r6
     c58:	000d0774 	andeq	r0, sp, r4, ror r7
     c5c:	00073800 	andeq	r3, r7, r0, lsl #16
     c60:	02f31800 	rscseq	r1, r3, #0, 16
     c64:	74010000 	strvc	r0, [r1], #-0
     c68:	00000068 	andeq	r0, r0, r8, rrx
     c6c:	0000076c 	andeq	r0, r0, ip, ror #14
     c70:	646e6519 	strbtvs	r6, [lr], #-1305	; 0x519
     c74:	4f740100 	svcmi	0x00740100
     c78:	a5000000 	strge	r0, [r0, #-0]
     c7c:	2e000007 	cdpcs	0, 0, cr0, cr0, cr7, {0}
     c80:	0000031c 	andeq	r0, r0, ip, lsl r3
     c84:	00687401 	rsbeq	r7, r8, r1, lsl #8
     c88:	91020000 	mrsls	r0, (UNDEF: 2)
     c8c:	01542f00 	cmpeq	r4, r0, lsl #30
     c90:	0d1d0000 	ldceq	0, cr0, [sp, #-0]
     c94:	03050000 	movweq	r0, #20480	; 0x5000
     c98:	000099ac 	andeq	r9, r0, ip, lsr #19
     c9c:	0100691b 	tsteq	r0, fp, lsl r9
     ca0:	00002578 	andeq	r2, r0, r8, ror r5
     ca4:	0007df00 	andeq	sp, r7, r0, lsl #30
     ca8:	02032c00 	andeq	r2, r3, #0, 24
     cac:	79010000 	stmdbvc	r1, {}	; <UNPREDICTABLE>
     cb0:	0000004f 	andeq	r0, r0, pc, asr #32
     cb4:	000007fe 	strdeq	r0, [r0], -lr
     cb8:	0083602b 	addeq	r6, r3, fp, lsr #32
     cbc:	00152f00 	andseq	r2, r5, r0, lsl #30
     cc0:	000ce700 	andeq	lr, ip, r0, lsl #14
     cc4:	53012600 	movwpl	r2, #5632	; 0x1600
     cc8:	26750802 	ldrbtcs	r0, [r5], -r2, lsl #16
     ccc:	03055201 	movweq	r5, #20993	; 0x5201
     cd0:	000099ac 	andeq	r9, r0, ip, lsr #19
     cd4:	05510126 	ldrbeq	r0, [r1, #-294]	; 0x126
     cd8:	009a4803 	addseq	r4, sl, r3, lsl #16
     cdc:	50012600 	andpl	r2, r1, r0, lsl #12
     ce0:	9a2c0305 	bls	b018fc <__bss_end__+0xaf733c>
     ce4:	2a000000 	bcs	cec <_start-0x7314>
     ce8:	00008364 	andeq	r8, r0, r4, ror #6
     cec:	00001545 	andeq	r1, r0, r5, asr #10
     cf0:	00838025 	addeq	r8, r3, r5, lsr #32
     cf4:	00087000 	andeq	r7, r8, r0
     cf8:	51012600 	tstpl	r1, r0, lsl #12
     cfc:	26007a02 	strcs	r7, [r0], -r2, lsl #20
     d00:	78025001 	stmdavc	r2, {r0, ip, lr}
     d04:	06000000 	streq	r0, [r0], -r0
     d08:	00004f04 	andeq	r4, r0, r4, lsl #30
     d0c:	00900800 	addseq	r0, r0, r0, lsl #16
     d10:	0d1d0000 	ldceq	0, cr0, [sp, #-0]
     d14:	81090000 	mrshi	r0, (UNDEF: 9)
     d18:	12000000 	andne	r0, r0, #0
     d1c:	0d0d0700 	stceq	7, cr0, [sp, #-0]
     d20:	2b290000 	blcs	a40d28 <__bss_end__+0xa36768>
     d24:	01000002 	tsteq	r0, r2
     d28:	00002588 	andeq	r2, r0, r8, lsl #11
     d2c:	0083bc00 	addeq	fp, r3, r0, lsl #24
     d30:	00007800 	andeq	r7, r0, r0, lsl #16
     d34:	e09c0100 	adds	r0, ip, r0, lsl #2
     d38:	1900000d 	stmdbne	r0, {r0, r2, r3}
     d3c:	88010075 	stmdahi	r1, {r0, r2, r4, r5, r6}
     d40:	00000830 	andeq	r0, r0, r0, lsr r8
     d44:	00000811 	andeq	r0, r0, r1, lsl r8
     d48:	66756219 			; <UNDEFINED> instruction: 0x66756219
     d4c:	07880100 	streq	r0, [r8, r0, lsl #2]
     d50:	4500000d 	strmi	r0, [r0, #-13]
     d54:	18000008 	stmdane	r0, {r3}
     d58:	000002f3 	strdeq	r0, [r0], -r3
     d5c:	00688901 	rsbeq	r8, r8, r1, lsl #18
     d60:	08790000 	ldmdaeq	r9!, {}^	; <UNPREDICTABLE>
     d64:	1c180000 	ldcne	0, cr0, [r8], {-0}
     d68:	01000003 	tsteq	r0, r3
     d6c:	00006889 	andeq	r6, r0, r9, lsl #17
     d70:	0008b200 	andeq	fp, r8, r0, lsl #4
     d74:	01542f00 	cmpeq	r4, r0, lsl #30
     d78:	0df00000 	ldcleq	0, cr0, [r0]
     d7c:	03050000 	movweq	r0, #20480	; 0x5000
     d80:	000099c0 	andeq	r9, r0, r0, asr #19
     d84:	0100691b 	tsteq	r0, fp, lsl r9
     d88:	0000258e 	andeq	r2, r0, lr, lsl #11
     d8c:	0008e600 	andeq	lr, r8, r0, lsl #12
     d90:	83e82b00 	mvnhi	r2, #0, 22
     d94:	152f0000 	strne	r0, [pc, #-0]!	; d9c <_start-0x7264>
     d98:	0dc00000 	stcleq	0, cr0, [r0]
     d9c:	01260000 	teqeq	r6, r0
     da0:	8b080253 	blhi	2016f4 <__bss_end__+0x1f7134>
     da4:	05520126 	ldrbeq	r0, [r2, #-294]	; 0x126
     da8:	0099c003 	addseq	ip, r9, r3
     dac:	51012600 	tstpl	r1, r0, lsl #12
     db0:	9a480305 	bls	12019cc <__bss_end__+0x11f740c>
     db4:	01260000 	teqeq	r6, r0
     db8:	2c030550 	cfstr32cs	mvfx0, [r3], {80}	; 0x50
     dbc:	0000009a 	muleq	r0, sl, r0
     dc0:	0083ec2a 	addeq	lr, r3, sl, lsr #24
     dc4:	00154500 	andseq	r4, r5, r0, lsl #10
     dc8:	84082500 	strhi	r2, [r8], #-1280	; 0x500
     dcc:	08700000 	ldmdaeq	r0!, {}^	; <UNPREDICTABLE>
     dd0:	01260000 	teqeq	r6, r0
     dd4:	00780251 	rsbseq	r0, r8, r1, asr r2
     dd8:	02500126 	subseq	r0, r0, #-2147483639	; 0x80000009
     ddc:	00000077 	andeq	r0, r0, r7, ror r0
     de0:	00009008 	andeq	r9, r0, r8
     de4:	000df000 	andeq	pc, sp, r0
     de8:	00810900 	addeq	r0, r1, r0, lsl #18
     dec:	00140000 	andseq	r0, r4, r0
     df0:	000de007 	andeq	lr, sp, r7
     df4:	017a2900 	cmneq	sl, r0, lsl #18
     df8:	9b010000 	blls	40e00 <__bss_end__+0x36840>
     dfc:	0000017c 	andeq	r0, r0, ip, ror r1
     e00:	00008434 	andeq	r8, r0, r4, lsr r4
     e04:	000000bc 	strheq	r0, [r0], -ip
     e08:	0f079c01 	svceq	0x00079c01
     e0c:	74190000 	ldrvc	r0, [r9], #-0
     e10:	9b010078 	blls	40ff8 <__bss_end__+0x36a38>
     e14:	0000004f 	andeq	r0, r0, pc, asr #32
     e18:	00000905 	andeq	r0, r0, r5, lsl #18
     e1c:	00787219 	rsbseq	r7, r8, r9, lsl r2
     e20:	004f9b01 	subeq	r9, pc, r1, lsl #22
     e24:	09260000 	stmdbeq	r6!, {}	; <UNPREDICTABLE>
     e28:	3b180000 	blcc	600e30 <__bss_end__+0x5f6870>
     e2c:	01000003 	tsteq	r0, r3
     e30:	0000689b 	muleq	r0, fp, r8
     e34:	00094700 	andeq	r4, r9, r0, lsl #14
     e38:	00562e00 	subseq	r2, r6, r0, lsl #28
     e3c:	9b010000 	blls	40e44 <__bss_end__+0x36884>
     e40:	00000068 	andeq	r0, r0, r8, rrx
     e44:	30009102 	andcc	r9, r0, r2, lsl #2
     e48:	007a686d 	rsbseq	r6, sl, sp, ror #16
     e4c:	002ca401 	eoreq	sl, ip, r1, lsl #8
     e50:	27000000 	strcs	r0, [r0, -r0]
     e54:	0f2c29b9 	svceq	0x002c29b9
     e58:	01000004 	tsteq	r0, r4
     e5c:	00002ca5 	andeq	r2, r0, r5, lsr #25
     e60:	00096500 	andeq	r6, r9, r0, lsl #10
     e64:	01542f00 	cmpeq	r4, r0, lsl #30
     e68:	0f170000 	svceq	0x00170000
     e6c:	03050000 	movweq	r0, #20480	; 0x5000
     e70:	000099d8 	ldrdeq	r9, [r0], -r8
     e74:	0084681e 	addeq	r6, r4, lr, lsl r8
     e78:	00000800 	andeq	r0, r0, r0, lsl #16
     e7c:	000e8d00 	andeq	r8, lr, r0, lsl #26
     e80:	6e693100 	powvse	f3, f1, f0
     e84:	2ca00100 	stfcss	f0, [r0]
     e88:	01000000 	mrseq	r0, (UNDEF: 0)
     e8c:	84542b00 	ldrbhi	r2, [r4], #-2816	; 0xb00
     e90:	154c0000 	strbne	r0, [ip, #-0]
     e94:	0ea10000 	cdpeq	0, 10, cr0, cr1, cr0, {0}
     e98:	01260000 	teqeq	r6, r0
     e9c:	00760250 	rsbseq	r0, r6, r0, asr r2
     ea0:	845c2b00 	ldrbhi	r2, [ip], #-2816	; 0xb00
     ea4:	155d0000 	ldrbne	r0, [sp, #-0]
     ea8:	0eb50000 	cdpeq	0, 11, cr0, cr5, cr0, {0}
     eac:	01260000 	teqeq	r6, r0
     eb0:	00780250 	rsbseq	r0, r8, r0, asr r2
     eb4:	84682b00 	strbthi	r2, [r8], #-2816	; 0xb00
     eb8:	14f90000 	ldrbtne	r0, [r9], #0
     ebc:	0ece0000 	cdpeq	0, 12, cr0, cr14, cr0, {0}
     ec0:	01260000 	teqeq	r6, r0
     ec4:	26310151 			; <UNDEFINED> instruction: 0x26310151
     ec8:	76025001 	strvc	r5, [r2], -r1
     ecc:	c42b0000 	strtgt	r0, [fp], #-0
     ed0:	2f000084 	svccs	0x00000084
     ed4:	fd000015 	stc2	0, cr0, [r0, #-84]	; 0xffffffac
     ed8:	2600000e 	strcs	r0, [r0], -lr
     edc:	08025301 	stmdaeq	r2, {r0, r8, r9, ip, lr}
     ee0:	520126a6 	andpl	r2, r1, #174063616	; 0xa600000
     ee4:	99d80305 	ldmibls	r8, {r0, r2, r8, r9}^
     ee8:	01260000 	teqeq	r6, r0
     eec:	48030551 	stmdami	r3, {r0, r4, r6, r8, sl}
     ef0:	2600009a 			; <UNDEFINED> instruction: 0x2600009a
     ef4:	03055001 	movweq	r5, #20481	; 0x5001
     ef8:	00009a5c 	andeq	r9, r0, ip, asr sl
     efc:	84c82a00 	strbhi	r2, [r8], #2560	; 0xa00
     f00:	15450000 	strbne	r0, [r5, #-0]
     f04:	08000000 	stmdaeq	r0, {}	; <UNPREDICTABLE>
     f08:	00000090 	muleq	r0, r0, r0
     f0c:	00000f17 	andeq	r0, r0, r7, lsl pc
     f10:	00008109 	andeq	r8, r0, r9, lsl #2
     f14:	07001300 	streq	r1, [r0, -r0, lsl #6]
     f18:	00000f07 	andeq	r0, r0, r7, lsl #30
     f1c:	00010d29 	andeq	r0, r1, r9, lsr #26
     f20:	25b20100 	ldrcs	r0, [r2, #256]!	; 0x100
     f24:	f0000000 			; <UNDEFINED> instruction: 0xf0000000
     f28:	38000084 	stmdacc	r0, {r2, r7}
     f2c:	01000000 	mrseq	r0, (UNDEF: 0)
     f30:	000fb69c 	muleq	pc, ip, r6	; <UNPREDICTABLE>
     f34:	02881800 	addeq	r1, r8, #0, 16
     f38:	b2010000 	andlt	r0, r1, #0
     f3c:	00000830 	andeq	r0, r0, r0, lsr r8
     f40:	00000993 	muleq	r0, r3, r9
     f44:	7365721b 	cmnvc	r5, #-1342177279	; 0xb0000001
     f48:	25b30100 	ldrcs	r0, [r3, #256]!	; 0x100
     f4c:	b4000000 	strlt	r0, [r0], #-0
     f50:	2f000009 	svccs	0x00000009
     f54:	00000154 	andeq	r0, r0, r4, asr r1
     f58:	00000fc6 	andeq	r0, r0, r6, asr #31
     f5c:	99ec0305 	stmibls	ip!, {r0, r2, r8, r9}^
     f60:	fc2b0000 	stc2	0, cr0, [fp], #-0
     f64:	70000084 	andvc	r0, r0, r4, lsl #1
     f68:	7d000008 	stcvc	0, cr0, [r0, #-32]	; 0xffffffe0
     f6c:	2600000f 	strcs	r0, [r0], -pc
     f70:	09025101 	stmdbeq	r2, {r0, r8, ip, lr}
     f74:	500126ff 	strdpl	r2, [r1], -pc	; <UNPREDICTABLE>
     f78:	5001f303 	andpl	pc, r1, r3, lsl #6
     f7c:	85182b00 	ldrhi	r2, [r8, #-2816]	; 0xb00
     f80:	152f0000 	strne	r0, [pc, #-0]!	; f88 <_start-0x7078>
     f84:	0fac0000 	svceq	0x00ac0000
     f88:	01260000 	teqeq	r6, r0
     f8c:	b5080253 	strlt	r0, [r8, #-595]	; 0x253
     f90:	05520126 	ldrbeq	r0, [r2, #-294]	; 0x126
     f94:	0099ec03 	addseq	lr, r9, r3, lsl #24
     f98:	51012600 	tstpl	r1, r0, lsl #12
     f9c:	9a480305 	bls	1201bb8 <__bss_end__+0x11f75f8>
     fa0:	01260000 	teqeq	r6, r0
     fa4:	a0030550 	andge	r0, r3, r0, asr r5
     fa8:	0000009a 	muleq	r0, sl, r0
     fac:	00851c2a 	addeq	r1, r5, sl, lsr #24
     fb0:	00154500 	andseq	r4, r5, r0, lsl #10
     fb4:	90080000 	andls	r0, r8, r0
     fb8:	c6000000 	strgt	r0, [r0], -r0
     fbc:	0900000f 	stmdbeq	r0, {r0, r1, r2, r3}
     fc0:	00000081 	andeq	r0, r0, r1, lsl #1
     fc4:	b607000c 	strlt	r0, [r7], -ip
     fc8:	1700000f 	strne	r0, [r0, -pc]
     fcc:	000001a8 	andeq	r0, r0, r8, lsr #3
     fd0:	8528b901 	strhi	fp, [r8, #-2305]!	; 0x901
     fd4:	002c0000 	eoreq	r0, ip, r0
     fd8:	9c010000 	stcls	0, cr0, [r1], {-0}
     fdc:	0000100f 	andeq	r1, r0, pc
     fe0:	00028818 	andeq	r8, r2, r8, lsl r8
     fe4:	30b90100 	adcscc	r0, r9, r0, lsl #2
     fe8:	c7000008 	strgt	r0, [r0, -r8]
     fec:	19000009 	stmdbne	r0, {r0, r3}
     ff0:	0067736d 	rsbeq	r7, r7, sp, ror #6
     ff4:	0097b901 	addseq	fp, r7, r1, lsl #18
     ff8:	09e50000 	stmibeq	r5!, {}^	; <UNPREDICTABLE>
     ffc:	40250000 	eormi	r0, r5, r0
    1000:	51000085 	smlabbpl	r0, r5, r0, r0
    1004:	26000002 	strcs	r0, [r0], -r2
    1008:	75025001 	strvc	r5, [r2, #-1]
    100c:	29000000 	stmdbcs	r0, {}	; <UNPREDICTABLE>
    1010:	000001bf 			; <UNDEFINED> instruction: 0x000001bf
    1014:	0025c201 	eoreq	ip, r5, r1, lsl #4
    1018:	85540000 	ldrbhi	r0, [r4, #-0]
    101c:	00800000 	addeq	r0, r0, r0
    1020:	9c010000 	stcls	0, cr0, [r1], {-0}
    1024:	000010fa 	strdeq	r1, [r0], -sl
    1028:	00028818 	andeq	r8, r2, r8, lsl r8
    102c:	30c20100 	sbccc	r0, r2, r0, lsl #2
    1030:	03000008 	movweq	r0, #8
    1034:	3200000a 	andcc	r0, r0, #10
    1038:	00746d66 	rsbseq	r6, r4, r6, ror #26
    103c:	0097c201 	addseq	ip, r7, r1, lsl #4
    1040:	91020000 	mrsls	r0, (UNDEF: 2)
    1044:	621a3374 	andsvs	r3, sl, #116, 6	; 0xd0000001
    1048:	01006675 	tsteq	r0, r5, ror r6
    104c:	0010fac3 	andseq	pc, r0, r3, asr #21
    1050:	9c910300 	ldcls	3, cr0, [r1], {0}
    1054:	04941d7c 	ldreq	r1, [r4], #3452	; 0xd7c
    1058:	c5010000 	strgt	r0, [r1, #-0]
    105c:	000001a9 	andeq	r0, r0, r9, lsr #3
    1060:	7c989103 	ldfvcd	f1, [r8], {3}
    1064:	007a731b 	rsbseq	r7, sl, fp, lsl r3
    1068:	0025c701 	eoreq	ip, r5, r1, lsl #14
    106c:	0a2f0000 	beq	bc1074 <__bss_end__+0xbb6ab4>
    1070:	542f0000 	strtpl	r0, [pc], #-0	; 1078 <_start-0x6f88>
    1074:	1b000001 	blne	1080 <_start-0x6f80>
    1078:	05000011 	streq	r0, [r0, #-17]
    107c:	0099fc03 	addseq	pc, r9, r3, lsl #24
    1080:	857c2b00 	ldrbhi	r2, [ip, #-2816]!	; 0xb00
    1084:	156e0000 	strbne	r0, [lr, #-0]!
    1088:	10aa0000 	adcne	r0, sl, r0
    108c:	01260000 	teqeq	r6, r0
    1090:	58910253 	ldmpl	r1, {r0, r1, r4, r6, r9}
    1094:	03520126 	cmpeq	r2, #-2147483639	; 0x80000009
    1098:	26065491 			; <UNDEFINED> instruction: 0x26065491
    109c:	0a035101 	beq	d54a8 <__bss_end__+0xcaee8>
    10a0:	012601cc 	smlawteq	r6, ip, r1, r0
    10a4:	fc910350 	ldc2	3, cr0, [r1], {80}	; 0x50
    10a8:	a02b007b 	eorge	r0, fp, fp, ror r0
    10ac:	2f000085 	svccs	0x00000085
    10b0:	d9000015 	stmdble	r0, {r0, r2, r4}
    10b4:	26000010 			; <UNDEFINED> instruction: 0x26000010
    10b8:	08025301 	stmdaeq	r2, {r0, r8, r9, ip, lr}
    10bc:	520126c9 	andpl	r2, r1, #210763776	; 0xc900000
    10c0:	99fc0305 	ldmibls	ip!, {r0, r2, r8, r9}^
    10c4:	01260000 	teqeq	r6, r0
    10c8:	48030551 	stmdami	r3, {r0, r4, r6, r8, sl}
    10cc:	2600009a 			; <UNDEFINED> instruction: 0x2600009a
    10d0:	03055001 	movweq	r5, #20481	; 0x5001
    10d4:	00009ad8 	ldrdeq	r9, [r0], -r8
    10d8:	85a42a00 	strhi	r2, [r4, #2560]!	; 0xa00
    10dc:	15450000 	strbne	r0, [r5, #-0]
    10e0:	b0250000 	eorlt	r0, r5, r0
    10e4:	cb000085 	blgt	1300 <_start-0x6d00>
    10e8:	2600000f 	strcs	r0, [r0], -pc
    10ec:	91035101 	tstls	r3, r1, lsl #2
    10f0:	01267bfc 	strdeq	r7, [r6, -ip]!
    10f4:	00750250 	rsbseq	r0, r5, r0, asr r2
    10f8:	90080000 	andls	r0, r8, r0
    10fc:	0b000000 	bleq	1104 <_start-0x6efc>
    1100:	34000011 	strcc	r0, [r0], #-17
    1104:	00000081 	andeq	r0, r0, r1, lsl #1
    1108:	080001cb 	stmdaeq	r0, {r0, r1, r3, r6, r7, r8}
    110c:	00000090 	muleq	r0, r0, r0
    1110:	0000111b 	andeq	r1, r0, fp, lsl r1
    1114:	00008109 	andeq	r8, r0, r9, lsl #2
    1118:	07000e00 	streq	r0, [r0, -r0, lsl #28]
    111c:	0000110b 	andeq	r1, r0, fp, lsl #2
    1120:	0003cb29 	andeq	ip, r3, r9, lsr #22
    1124:	25ce0100 	strbcs	r0, [lr, #256]	; 0x100
    1128:	d4000000 	strle	r0, [r0], #-0
    112c:	48000085 	stmdami	r0, {r0, r2, r7}
    1130:	01000000 	mrseq	r0, (UNDEF: 0)
    1134:	0011f49c 	mulseq	r1, ip, r4
    1138:	00751900 	rsbseq	r1, r5, r0, lsl #18
    113c:	0830ce01 	ldmdaeq	r0!, {r0, r9, sl, fp, lr, pc}
    1140:	0a6e0000 	beq	1b81148 <__bss_end__+0x1b76b88>
    1144:	62190000 	andsvs	r0, r9, #0
    1148:	01006675 	tsteq	r0, r5, ror r6
    114c:	000d07ce 	andeq	r0, sp, lr, asr #15
    1150:	000a8f00 	andeq	r8, sl, r0, lsl #30
    1154:	02f31800 	rscseq	r1, r3, #0, 16
    1158:	ce010000 	cdpgt	0, 0, cr0, cr1, cr0, {0}
    115c:	00000068 	andeq	r0, r0, r8, rrx
    1160:	00000ab0 			; <UNDEFINED> instruction: 0x00000ab0
    1164:	646e6519 	strbtvs	r6, [lr], #-1305	; 0x519
    1168:	4fce0100 	svcmi	0x00ce0100
    116c:	d1000000 	mrsle	r0, (UNDEF: 0)
    1170:	1b00000a 	blne	11a0 <_start-0x6e60>
    1174:	00736572 	rsbseq	r6, r3, r2, ror r5
    1178:	0025cf01 	eoreq	ip, r5, r1, lsl #30
    117c:	0af20000 	beq	ffc81184 <__bss_end__+0xffc76bc4>
    1180:	542f0000 	strtpl	r0, [pc], #-0	; 1188 <_start-0x6e78>
    1184:	04000001 	streq	r0, [r0], #-1
    1188:	05000012 	streq	r0, [r0, #-18]
    118c:	009a0c03 	addseq	r0, sl, r3, lsl #24
    1190:	85e82b00 	strbhi	r2, [r8, #2816]!	; 0xb00
    1194:	0c2c0000 	stceq	0, cr0, [ip], #-0
    1198:	11bb0000 			; <UNDEFINED> instruction: 0x11bb0000
    119c:	01260000 	teqeq	r6, r0
    11a0:	01f30352 	mvnseq	r0, r2, asr r3
    11a4:	51012652 	tstpl	r1, r2, asr r6
    11a8:	5101f303 	tstpl	r1, r3, lsl #6
    11ac:	03500126 	cmpeq	r0, #-2147483639	; 0x80000009
    11b0:	265001f3 			; <UNDEFINED> instruction: 0x265001f3
    11b4:	02007d02 	andeq	r7, r0, #2, 26	; 0x80
    11b8:	2b00ff09 	blcs	40de4 <__bss_end__+0x36824>
    11bc:	00008604 	andeq	r8, r0, r4, lsl #12
    11c0:	0000152f 	andeq	r1, r0, pc, lsr #10
    11c4:	000011ea 	andeq	r1, r0, sl, ror #3
    11c8:	02530126 	subseq	r0, r3, #-2147483639	; 0x80000009
    11cc:	0126d108 	teqeq	r6, r8, lsl #2
    11d0:	0c030552 	cfstr32eq	mvfx0, [r3], {82}	; 0x52
    11d4:	2600009a 			; <UNDEFINED> instruction: 0x2600009a
    11d8:	03055101 	movweq	r5, #20737	; 0x5101
    11dc:	00009a48 	andeq	r9, r0, r8, asr #20
    11e0:	05500126 	ldrbeq	r0, [r0, #-294]	; 0x126
    11e4:	009aa003 	addseq	sl, sl, r3
    11e8:	082a0000 	stmdaeq	sl!, {}	; <UNPREDICTABLE>
    11ec:	45000086 	strmi	r0, [r0, #-134]	; 0x86
    11f0:	00000015 	andeq	r0, r0, r5, lsl r0
    11f4:	00009008 	andeq	r9, r0, r8
    11f8:	00120400 	andseq	r0, r2, r0, lsl #8
    11fc:	00810900 	addeq	r0, r1, r0, lsl #18
    1200:	00160000 	andseq	r0, r6, r0
    1204:	0011f407 	andseq	pc, r1, r7, lsl #8
    1208:	09b21700 	ldmibeq	r2!, {r8, r9, sl, ip}
    120c:	e1010000 	mrs	r0, (UNDEF: 1)
    1210:	0000861c 	andeq	r8, r0, ip, lsl r6
    1214:	000000ec 	andeq	r0, r0, ip, ror #1
    1218:	12c69c01 	sbcne	r9, r6, #256	; 0x100
    121c:	70190000 	andsvc	r0, r9, r0
    1220:	e1010063 	tst	r1, r3, rrx
    1224:	0000002c 	andeq	r0, r0, ip, lsr #32
    1228:	00000b10 	andeq	r0, r0, r0, lsl fp
    122c:	0100731a 	tsteq	r0, sl, lsl r3
    1230:	00002ce8 	andeq	r2, r0, r8, ror #25
    1234:	1e540100 	rdfnes	f0, f4, f0
    1238:	00008620 	andeq	r8, r0, r0, lsr #12
    123c:	00000004 	andeq	r0, r0, r4
    1240:	00001252 	andeq	r1, r0, r2, asr r2
    1244:	0002571d 	andeq	r5, r2, sp, lsl r7
    1248:	2ce80100 	stfcse	f0, [r8]
    124c:	01000000 	mrseq	r0, (UNDEF: 0)
    1250:	282a0054 	stmdacs	sl!, {r2, r4, r6}
    1254:	92000086 	andls	r0, r0, #134	; 0x86
    1258:	2b000015 	blcs	12b4 <_start-0x6d4c>
    125c:	00008630 	andeq	r8, r0, r0, lsr r6
    1260:	00001599 	muleq	r0, r9, r5
    1264:	0000126f 	andeq	r1, r0, pc, ror #4
    1268:	02500126 	subseq	r0, r0, #-2147483639	; 0x80000009
    126c:	2b003108 	blcs	d694 <__bss_end__+0x30d4>
    1270:	00008640 	andeq	r8, r0, r0, asr #12
    1274:	00001599 	muleq	r0, r9, r5
    1278:	00001283 	andeq	r1, r0, r3, lsl #5
    127c:	02500126 	subseq	r0, r0, #-2147483639	; 0x80000009
    1280:	2b003208 	blcs	daa8 <__bss_end__+0x34e8>
    1284:	00008650 	andeq	r8, r0, r0, asr r6
    1288:	0000151a 	andeq	r1, r0, sl, lsl r5
    128c:	00001296 	muleq	r0, r6, r2
    1290:	01500126 	cmpeq	r0, r6, lsr #2
    1294:	a02b0044 	eorge	r0, fp, r4, asr #32
    1298:	1a000086 	bne	14b8 <_start-0x6b48>
    129c:	a9000015 	stmdbge	r0, {r0, r2, r4}
    12a0:	26000012 			; <UNDEFINED> instruction: 0x26000012
    12a4:	44015001 	strmi	r5, [r1], #-1
    12a8:	86f82b00 	ldrbthi	r2, [r8], r0, lsl #22
    12ac:	15ae0000 	strne	r0, [lr, #0]!
    12b0:	12bc0000 	adcsne	r0, ip, #0
    12b4:	01260000 	teqeq	r6, r0
    12b8:	00440150 	subeq	r0, r4, r0, asr r1
    12bc:	0086fc2a 	addeq	pc, r6, sl, lsr #24
    12c0:	00159200 	andseq	r9, r5, r0, lsl #4
    12c4:	33350000 	teqcc	r5, #0
    12c8:	01000000 	mrseq	r0, (UNDEF: 0)
    12cc:	008708ff 	strdeq	r0, [r7], pc	; <UNPREDICTABLE>
    12d0:	00010400 	andeq	r0, r1, r0, lsl #8
    12d4:	739c0100 	orrsvc	r0, ip, #0, 2
    12d8:	36000014 			; <UNDEFINED> instruction: 0x36000014
    12dc:	06010075 			; <UNDEFINED> instruction: 0x06010075
    12e0:	00017c01 	andeq	r7, r1, r1, lsl #24
    12e4:	5c910200 	lfmpl	f0, 4, [r1], {0}
    12e8:	0001542f 	andeq	r5, r1, pc, lsr #8
    12ec:	00147300 	andseq	r7, r4, r0, lsl #6
    12f0:	24030500 	strcs	r0, [r3], #-1280	; 0x500
    12f4:	3700009a 			; <UNDEFINED> instruction: 0x3700009a
    12f8:	12010062 	andne	r0, r1, #98	; 0x62
    12fc:	00002c01 	andeq	r2, r0, r1, lsl #24
    1300:	65385500 	ldrvs	r5, [r8, #-1280]!	; 0x500
    1304:	01160100 	tsteq	r6, r0, lsl #2
    1308:	00001478 	andeq	r1, r0, r8, ror r4
    130c:	00000b31 	andeq	r0, r0, r1, lsr fp
    1310:	0087141e 	addeq	r1, r7, lr, lsl r4
    1314:	00000800 	andeq	r0, r0, r0, lsl #16
    1318:	00132a00 	andseq	r2, r3, r0, lsl #20
    131c:	6e693700 	cdpvs	7, 6, cr3, cr9, cr0, {0}
    1320:	01010100 	mrseq	r0, (UNDEF: 17)
    1324:	0000002c 	andeq	r0, r0, ip, lsr #32
    1328:	00390001 	eorseq	r0, r9, r1
    132c:	52000000 	andpl	r0, r0, #0
    1330:	38000013 	stmdacc	r0, {r0, r1, r4}
    1334:	17010069 	strne	r0, [r1, -r9, rrx]
    1338:	00002501 	andeq	r2, r0, r1, lsl #10
    133c:	000b5400 	andeq	r5, fp, r0, lsl #8
    1340:	87c42500 	strbhi	r2, [r4, r0, lsl #10]
    1344:	152f0000 	strne	r0, [pc, #-0]!	; 134c <_start-0x6cb4>
    1348:	01260000 	teqeq	r6, r0
    134c:	00770250 	rsbseq	r0, r7, r0, asr r2
    1350:	142a0000 	strtne	r0, [sl], #-0
    1354:	bf000087 	svclt	0x00000087
    1358:	2a000015 	bcs	13b4 <_start-0x6c4c>
    135c:	00008720 	andeq	r8, r0, r0, lsr #14
    1360:	000015c6 	andeq	r1, r0, r6, asr #11
    1364:	00873c2b 	addeq	r3, r7, fp, lsr #24
    1368:	000df500 	andeq	pc, sp, r0, lsl #10
    136c:	00139200 	andseq	r9, r3, r0, lsl #4
    1370:	53012600 	movwpl	r2, #5632	; 0x1600
    1374:	39e10804 	stmibcc	r1!, {r2, fp}^
    1378:	52012624 	andpl	r2, r1, #36, 12	; 0x2400000
    137c:	01264401 	teqeq	r6, r1, lsl #8
    1380:	26450151 			; <UNDEFINED> instruction: 0x26450151
    1384:	91025001 	tstls	r2, r1
    1388:	7d022654 	stcvc	6, cr2, [r2, #-336]	; 0xfffffeb0
    138c:	bc0a0300 	stclt	3, cr0, [sl], {-0}
    1390:	442b0017 	strtmi	r0, [fp], #-23
    1394:	cd000087 	stcgt	0, cr0, [r0, #-540]	; 0xfffffde4
    1398:	a5000015 	strge	r0, [r0, #-21]
    139c:	26000013 			; <UNDEFINED> instruction: 0x26000013
    13a0:	44015001 	strmi	r5, [r1], #-1
    13a4:	874c2b00 	strbhi	r2, [ip, -r0, lsl #22]
    13a8:	15de0000 	ldrbne	r0, [lr]
    13ac:	13b80000 			; <UNDEFINED> instruction: 0x13b80000
    13b0:	01260000 	teqeq	r6, r0
    13b4:	00440150 	subeq	r0, r4, r0, asr r1
    13b8:	0087502a 	addeq	r5, r7, sl, lsr #32
    13bc:	0015ef00 	andseq	lr, r5, r0, lsl #30
    13c0:	87582b00 	ldrbhi	r2, [r8, -r0, lsl #22]
    13c4:	151a0000 	ldrne	r0, [sl, #-0]
    13c8:	13d40000 	bicsne	r0, r4, #0
    13cc:	01260000 	teqeq	r6, r0
    13d0:	00440150 	subeq	r0, r4, r0, asr r1
    13d4:	0087782b 	addeq	r7, r7, fp, lsr #16
    13d8:	00152f00 	andseq	r2, r5, r0, lsl #30
    13dc:	00140400 	andseq	r0, r4, r0, lsl #8
    13e0:	53012600 	movwpl	r2, #5632	; 0x1600
    13e4:	010c0a03 	tsteq	ip, r3, lsl #20
    13e8:	05520126 	ldrbeq	r0, [r2, #-294]	; 0x126
    13ec:	009a2403 	addseq	r2, sl, r3, lsl #8
    13f0:	51012600 	tstpl	r1, r0, lsl #12
    13f4:	9a480305 	bls	1202010 <__bss_end__+0x11f7a50>
    13f8:	01260000 	teqeq	r6, r0
    13fc:	fc030550 	stc2	5, cr0, [r3], {80}	; 0x50
    1400:	0000009a 	muleq	r0, sl, r0
    1404:	00877c2a 	addeq	r7, r7, sl, lsr #24
    1408:	00154500 	andseq	r4, r5, r0, lsl #10
    140c:	87882b00 	strhi	r2, [r8, r0, lsl #22]
    1410:	02510000 	subseq	r0, r1, #0
    1414:	14270000 	strtne	r0, [r7], #-0
    1418:	01260000 	teqeq	r6, r0
    141c:	55080251 	strpl	r0, [r8, #-593]	; 0x251
    1420:	02500126 	subseq	r0, r0, #-2147483639	; 0x80000009
    1424:	2b005491 	blcs	16670 <__bss_end__+0xc0b0>
    1428:	00008790 	muleq	r0, r0, r7
    142c:	000015f6 	strdeq	r1, [r0], -r6
    1430:	0000143b 	andeq	r1, r0, fp, lsr r4
    1434:	02500126 	subseq	r0, r0, #-2147483639	; 0x80000009
    1438:	2b006408 	blcs	1a460 <__bss_end__+0xfea0>
    143c:	000087a0 	andeq	r8, r0, r0, lsr #15
    1440:	0000152f 	andeq	r1, r0, pc, lsr #10
    1444:	00001452 	andeq	r1, r0, r2, asr r4
    1448:	05500126 	ldrbeq	r0, [r0, #-294]	; 0x126
    144c:	009b2c03 	addseq	r2, fp, r3, lsl #24
    1450:	e02b0000 	eor	r0, fp, r0
    1454:	2f000087 	svccs	0x00000087
    1458:	69000015 	stmdbvs	r0, {r0, r2, r4}
    145c:	26000014 			; <UNDEFINED> instruction: 0x26000014
    1460:	03055001 	movweq	r5, #20481	; 0x5001
    1464:	00009b48 	andeq	r9, r0, r8, asr #22
    1468:	87e42a00 	strbhi	r2, [r4, r0, lsl #20]!
    146c:	15450000 	strbne	r0, [r5, #-0]
    1470:	07000000 	streq	r0, [r0, -r0]
    1474:	000000a2 	andeq	r0, r0, r2, lsr #1
    1478:	01c90406 	biceq	r0, r9, r6, lsl #8
    147c:	481d0000 	ldmdami	sp, {}	; <UNPREDICTABLE>
    1480:	01000003 	tsteq	r0, r3
    1484:	000140d7 	ldrdeq	r4, [r1], -r7
    1488:	b8030500 	stmdalt	r3, {r8, sl}
    148c:	1d00009d 	stcne	0, cr0, [r0, #-628]	; 0xfffffd8c
    1490:	000003bc 			; <UNDEFINED> instruction: 0x000003bc
    1494:	0140d701 	cmpeq	r0, r1, lsl #14
    1498:	03050000 	movweq	r0, #20480	; 0x5000
    149c:	00009dac 	andeq	r9, r0, ip, lsr #27
    14a0:	0000bf1d 	andeq	fp, r0, sp, lsl pc
    14a4:	40de0100 	sbcsmi	r0, lr, r0, lsl #2
    14a8:	05000001 	streq	r0, [r0, #-1]
    14ac:	009db003 	addseq	fp, sp, r3
    14b0:	02401d00 	subeq	r1, r0, #0, 26
    14b4:	df010000 	svcle	0x00010000
    14b8:	000014c2 	andeq	r1, r0, r2, asr #9
    14bc:	9db40305 	ldcls	3, cr0, [r4, #20]!
    14c0:	250c0000 	strcs	r0, [ip, #-0]
    14c4:	3a000000 	bcc	14cc <_start-0x6b34>
    14c8:	0000045a 	andeq	r0, r0, sl, asr r4
    14cc:	00d38005 	sbcseq	r8, r3, r5
    14d0:	03050000 	movweq	r0, #20480	; 0x5000
    14d4:	0000a1bc 			; <UNDEFINED> instruction: 0x0000a1bc
    14d8:	0001c908 	andeq	ip, r1, r8, lsl #18
    14dc:	0014e800 	andseq	lr, r4, r0, lsl #16
    14e0:	00810900 	addeq	r0, r1, r0, lsl #18
    14e4:	007f0000 	rsbseq	r0, pc, r0
    14e8:	0000c03a 	andeq	ip, r0, sl, lsr r0
    14ec:	d8dd0100 	ldmle	sp, {r8}^
    14f0:	05000014 	streq	r0, [r0, #-20]
    14f4:	00a1c003 	adceq	ip, r1, r3
    14f8:	00283b00 	eoreq	r3, r8, r0, lsl #22
    14fc:	21040000 	mrscs	r0, (UNDEF: 4)
    1500:	0000150f 	andeq	r1, r0, pc, lsl #10
    1504:	00002c3c 	andeq	r2, r0, ip, lsr ip
    1508:	002c3c00 	eoreq	r3, ip, r0, lsl #24
    150c:	3d000000 	stccc	0, cr0, [r0, #-0]
    1510:	0000025c 	andeq	r0, r0, ip, asr r2
    1514:	002c5409 	eoreq	r5, ip, r9, lsl #8
    1518:	ce3e0000 	cdpgt	0, 3, cr0, cr14, cr0, {0}
    151c:	04000001 	streq	r0, [r0], #-1
    1520:	00002524 	andeq	r2, r0, r4, lsr #10
    1524:	00152f00 	andseq	r2, r5, r0, lsl #30
    1528:	002c3c00 	eoreq	r3, ip, r0, lsl #24
    152c:	3e000000 	cdpcc	0, 0, cr0, cr0, cr0, {0}
    1530:	000001b8 			; <UNDEFINED> instruction: 0x000001b8
    1534:	00252709 	eoreq	r2, r5, r9, lsl #14
    1538:	15450000 	strbne	r0, [r5, #-0]
    153c:	973c0000 	ldrls	r0, [ip, -r0]!
    1540:	33000000 	movwcc	r0, #0
    1544:	01d83f00 	bicseq	r3, r8, r0, lsl #30
    1548:	63090000 	movwvs	r0, #36864	; 0x9000
    154c:	00043a3b 	andeq	r3, r4, fp, lsr sl
    1550:	5d1d0400 	cfldrspl	mvf0, [sp, #-0]
    1554:	3c000015 	stccc	0, cr0, [r0], {21}
    1558:	0000002c 	andeq	r0, r0, ip, lsr #32
    155c:	03ad3b00 			; <UNDEFINED> instruction: 0x03ad3b00
    1560:	1c040000 	stcne	0, cr0, [r4], {-0}
    1564:	0000156e 	andeq	r1, r0, lr, ror #10
    1568:	00002c3c 	andeq	r2, r0, ip, lsr ip
    156c:	b53e0000 	ldrlt	r0, [lr, #-0]!
    1570:	0a000001 	beq	157c <_start-0x6a84>
    1574:	00002502 	andeq	r2, r0, r2, lsl #10
    1578:	00159200 	andseq	r9, r5, r0, lsl #4
    157c:	008a3c00 	addeq	r3, sl, r0, lsl #24
    1580:	253c0000 	ldrcs	r0, [ip, #-0]!
    1584:	3c000000 	stccc	0, cr0, [r0], {-0}
    1588:	00000097 	muleq	r0, r7, r0
    158c:	0001a93c 	andeq	sl, r1, ip, lsr r9
    1590:	013f0000 	teqeq	pc, r0
    1594:	09000001 	stmdbeq	r0, {r0}
    1598:	04883e84 	streq	r3, [r8], #3716	; 0xe84
    159c:	38040000 	stmdacc	r4, {}	; <UNPREDICTABLE>
    15a0:	00000025 	andeq	r0, r0, r5, lsr #32
    15a4:	000015ae 	andeq	r1, r0, lr, lsr #11
    15a8:	00002c3c 	andeq	r2, r0, ip, lsr ip
    15ac:	433b0000 	teqmi	fp, #0
    15b0:	04000001 	streq	r0, [r0], #-1
    15b4:	0015bf4e 	andseq	fp, r5, lr, asr #30
    15b8:	002c3c00 	eoreq	r3, ip, r0, lsl #24
    15bc:	3f000000 	svccc	0x00000000
    15c0:	0000004c 	andeq	r0, r0, ip, asr #32
    15c4:	4e3f3809 	cdpmi	8, 3, cr3, cr15, cr9, {0}
    15c8:	0b000002 	bleq	15d8 <_start-0x6a28>
    15cc:	01e53b27 	mvneq	r3, r7, lsr #22
    15d0:	3f040000 	svccc	0x00040000
    15d4:	000015de 	ldrdeq	r1, [r0], -lr
    15d8:	00002c3c 	andeq	r2, r0, ip, lsr ip
    15dc:	723b0000 	eorsvc	r0, fp, #0
    15e0:	04000004 	streq	r0, [r0], #-4
    15e4:	0015ef46 	andseq	lr, r5, r6, asr #30
    15e8:	002c3c00 	eoreq	r3, ip, r0, lsl #24
    15ec:	3f000000 	svccc	0x00000000
    15f0:	0000026f 	andeq	r0, r0, pc, ror #4
    15f4:	2940250b 	stmdbcs	r0, {r0, r1, r3, r8, sl, sp}^
    15f8:	09000003 	stmdbeq	r0, {r0, r1}
    15fc:	002c3c4d 	eoreq	r3, ip, sp, asr #24
    1600:	00000000 	andeq	r0, r0, r0
    1604:	00000191 	muleq	r0, r1, r1
    1608:	03590004 	cmpeq	r9, #4
    160c:	01040000 	mrseq	r0, (UNDEF: 4)
    1610:	00000356 	andeq	r0, r0, r6, asr r3
    1614:	0004c401 	andeq	ip, r4, r1, lsl #8
    1618:	0004d200 	andeq	sp, r4, r0, lsl #4
    161c:	00880c00 	addeq	r0, r8, r0, lsl #24
    1620:	00005800 	andeq	r5, r0, r0, lsl #16
    1624:	00041c00 	andeq	r1, r4, r0, lsl #24
    1628:	020b0200 	andeq	r0, fp, #0, 4
    162c:	28020000 	stmdacs	r2, {}	; <UNPREDICTABLE>
    1630:	00000030 	andeq	r0, r0, r0, lsr r0
    1634:	0000d903 	andeq	sp, r0, r3, lsl #18
    1638:	00030400 	andeq	r0, r3, r0, lsl #8
    163c:	00000047 	andeq	r0, r0, r7, asr #32
    1640:	0003f504 	andeq	pc, r3, r4, lsl #10
    1644:	00004700 	andeq	r4, r0, r0, lsl #14
    1648:	05000000 	streq	r0, [r0, #-0]
    164c:	00db0204 	sbcseq	r0, fp, r4, lsl #4
    1650:	62020000 	andvs	r0, r2, #0
    1654:	00000025 	andeq	r0, r0, r5, lsr #32
    1658:	69050406 	stmdbvs	r5, {r1, r2, sl}
    165c:	0700746e 	streq	r7, [r0, -lr, ror #8]
    1660:	006c0704 	rsbeq	r0, ip, r4, lsl #14
    1664:	01070000 	mrseq	r0, (UNDEF: 7)
    1668:	00030606 	andeq	r0, r3, r6, lsl #12
    166c:	05020700 	streq	r0, [r2, #-1792]	; 0x700
    1670:	00000312 	andeq	r0, r0, r2, lsl r3
    1674:	8e050407 	cdphi	4, 0, cr0, cr5, cr7, {0}
    1678:	07000000 	streq	r0, [r0, -r0]
    167c:	00890508 	addeq	r0, r9, r8, lsl #10
    1680:	01070000 	mrseq	r0, (UNDEF: 7)
    1684:	00030408 	andeq	r0, r3, r8, lsl #8
    1688:	07020700 	streq	r0, [r2, -r0, lsl #14]
    168c:	00000167 	andeq	r0, r0, r7, ror #2
    1690:	67070407 	strvs	r0, [r7, -r7, lsl #8]
    1694:	07000000 	streq	r0, [r0, -r0]
    1698:	00620708 	rsbeq	r0, r2, r8, lsl #14
    169c:	04070000 	streq	r0, [r7], #-0
    16a0:	0001fa07 	andeq	pc, r1, r7, lsl #20
    16a4:	a7040800 	strge	r0, [r4, -r0, lsl #16]
    16a8:	07000000 	streq	r0, [r0, -r0]
    16ac:	030d0801 	movweq	r0, #55297	; 0xd801
    16b0:	04080000 	streq	r0, [r8], #-0
    16b4:	000000b4 	strheq	r0, [r0], -r4
    16b8:	0000a709 	andeq	sl, r0, r9, lsl #14
    16bc:	01b80a00 			; <UNDEFINED> instruction: 0x01b80a00
    16c0:	06010000 	streq	r0, [r1], -r0
    16c4:	00000054 	andeq	r0, r0, r4, asr r0
    16c8:	0000880c 	andeq	r8, r0, ip, lsl #16
    16cc:	00000058 	andeq	r0, r0, r8, asr r0
    16d0:	01439c01 	cmpeq	r3, r1, lsl #24
    16d4:	660b0000 	strvs	r0, [fp], -r0
    16d8:	0100746d 	tsteq	r0, sp, ror #8
    16dc:	0000ae06 	andeq	sl, r0, r6, lsl #28
    16e0:	70910200 	addsvc	r0, r1, r0, lsl #4
    16e4:	75620d0c 	strbvc	r0, [r2, #-3340]!	; 0xd0c
    16e8:	08010066 	stmdaeq	r1, {r1, r2, r5, r6}
    16ec:	00000143 	andeq	r0, r0, r3, asr #2
    16f0:	9dbc0305 	ldcls	3, cr0, [ip, #20]!
    16f4:	940e0000 	strls	r0, [lr], #-0
    16f8:	01000004 	tsteq	r0, r4
    16fc:	00004909 	andeq	r4, r0, r9, lsl #18
    1700:	5c910200 	lfmpl	f0, 4, [r1], {0}
    1704:	007a730f 	rsbseq	r7, sl, pc, lsl #6
    1708:	00540c01 	subseq	r0, r4, r1, lsl #24
    170c:	0b730000 	bleq	1cc1714 <__bss_end__+0x1cb7154>
    1710:	34100000 	ldrcc	r0, [r0], #-0
    1714:	74000088 	strvc	r0, [r0], #-136	; 0x88
    1718:	36000001 	strcc	r0, [r0], -r1
    171c:	11000001 	tstne	r0, r1
    1720:	91025301 	tstls	r2, r1, lsl #6
    1724:	5201114c 	andpl	r1, r1, #76, 2
    1728:	06489103 	strbeq	r9, [r8], -r3, lsl #2
    172c:	03510111 	cmpeq	r1, #1073741828	; 0x40000004
    1730:	1104000a 	tstne	r4, sl
    1734:	74025001 	strvc	r5, [r2], #-1
    1738:	48120000 	ldmdami	r2, {}	; <UNPREDICTABLE>
    173c:	11000088 	smlabbne	r0, r8, r0, r0
    1740:	74025001 	strvc	r5, [r2], #-1
    1744:	13000000 	movwne	r0, #0
    1748:	000000a7 	andeq	r0, r0, r7, lsr #1
    174c:	00000154 	andeq	r0, r0, r4, asr r1
    1750:	00009a14 	andeq	r9, r0, r4, lsl sl
    1754:	0003ff00 	andeq	pc, r3, r0, lsl #30
    1758:	00005415 	andeq	r5, r0, r5, lsl r4
    175c:	00016300 	andeq	r6, r1, r0, lsl #6
    1760:	00ae1600 	adceq	r1, lr, r0, lsl #12
    1764:	17000000 	strne	r0, [r0, -r0]
    1768:	0000052b 	andeq	r0, r0, fp, lsr #10
    176c:	016e2004 	cmneq	lr, r4
    1770:	04080000 	streq	r0, [r8], #-0
    1774:	00000154 	andeq	r0, r0, r4, asr r1
    1778:	0001b518 	andeq	fp, r1, r8, lsl r5
    177c:	54020500 	strpl	r0, [r2], #-1280	; 0x500
    1780:	16000000 	strne	r0, [r0], -r0
    1784:	000000a1 	andeq	r0, r0, r1, lsr #1
    1788:	00005416 	andeq	r5, r0, r6, lsl r4
    178c:	00ae1600 	adceq	r1, lr, r0, lsl #12
    1790:	49160000 	ldmdbmi	r6, {}	; <UNPREDICTABLE>
    1794:	00000000 	andeq	r0, r0, r0
    1798:	0000ee00 	andeq	lr, r0, r0, lsl #28
    179c:	8a000400 	bhi	27a4 <_start-0x585c>
    17a0:	04000004 	streq	r0, [r0], #-4
    17a4:	00035601 	andeq	r5, r3, r1, lsl #12
    17a8:	05160100 	ldreq	r0, [r6, #-256]	; 0x100
    17ac:	04d20000 	ldrbeq	r0, [r2], #0
    17b0:	88640000 	stmdahi	r4!, {}^	; <UNPREDICTABLE>
    17b4:	00340000 	eorseq	r0, r4, r0
    17b8:	05220000 	streq	r0, [r2, #-0]!
    17bc:	04020000 	streq	r0, [r2], #-0
    17c0:	746e6905 	strbtvc	r6, [lr], #-2309	; 0x905
    17c4:	07040300 	streq	r0, [r4, -r0, lsl #6]
    17c8:	0000006c 	andeq	r0, r0, ip, rrx
    17cc:	06060103 	streq	r0, [r6], -r3, lsl #2
    17d0:	03000003 	movweq	r0, #3
    17d4:	03120502 	tsteq	r2, #8388608	; 0x800000
    17d8:	04030000 	streq	r0, [r3], #-0
    17dc:	00008e05 	andeq	r8, r0, r5, lsl #28
    17e0:	05080300 	streq	r0, [r8, #-768]	; 0x300
    17e4:	00000089 	andeq	r0, r0, r9, lsl #1
    17e8:	04080103 	streq	r0, [r8], #-259	; 0x103
    17ec:	03000003 	movweq	r0, #3
    17f0:	01670702 	cmneq	r7, r2, lsl #14
    17f4:	04030000 	streq	r0, [r3], #-0
    17f8:	00006707 	andeq	r6, r0, r7, lsl #14
    17fc:	07080300 	streq	r0, [r8, -r0, lsl #6]
    1800:	00000062 	andeq	r0, r0, r2, rrx
    1804:	fa070403 	blx	1c2818 <__bss_end__+0x1b8258>
    1808:	03000001 	movweq	r0, #1
    180c:	030d0801 	movweq	r0, #55297	; 0xd801
    1810:	04040000 	streq	r0, [r4], #-0
    1814:	0000007f 	andeq	r0, r0, pc, ror r0
    1818:	00007205 	andeq	r7, r0, r5, lsl #4
    181c:	05220600 	streq	r0, [r2, #-1536]!	; 0x600
    1820:	04010000 	streq	r0, [r1], #-0
    1824:	00000025 	andeq	r0, r0, r5, lsr #32
    1828:	00008864 	andeq	r8, r0, r4, ror #16
    182c:	00000034 	andeq	r0, r0, r4, lsr r0
    1830:	00ab9c01 	adceq	r9, fp, r1, lsl #24
    1834:	70070000 	andvc	r0, r7, r0
    1838:	79040100 	stmdbvc	r4, {r8}
    183c:	9c000000 	stcls	0, cr0, [r0], {-0}
    1840:	0000000b 	andeq	r0, r0, fp
    1844:	00002508 	andeq	r2, r0, r8, lsl #10
    1848:	0000ba00 	andeq	fp, r0, r0, lsl #20
    184c:	00250900 	eoreq	r0, r5, r0, lsl #18
    1850:	0a000000 	beq	1858 <_start-0x67a8>
    1854:	00000530 	andeq	r0, r0, r0, lsr r5
    1858:	00c51d02 	sbceq	r1, r5, r2, lsl #26
    185c:	04040000 	streq	r0, [r4], #-0
    1860:	000000ab 	andeq	r0, r0, fp, lsr #1
    1864:	00002508 	andeq	r2, r0, r8, lsl #10
    1868:	0000da00 	andeq	sp, r0, r0, lsl #20
    186c:	00790900 	rsbseq	r0, r9, r0, lsl #18
    1870:	0b000000 	bleq	1878 <_start-0x6788>
    1874:	0000052b 	andeq	r0, r0, fp, lsr #10
    1878:	00eb0c01 	rsceq	r0, fp, r1, lsl #24
    187c:	03050000 	movweq	r0, #20480	; 0x5000
    1880:	00009910 	andeq	r9, r0, r0, lsl r9
    1884:	00cb0404 	sbceq	r0, fp, r4, lsl #8
    1888:	54000000 	strpl	r0, [r0], #-0
    188c:	04000006 	streq	r0, [r0], #-6
    1890:	00052300 	andeq	r2, r5, r0, lsl #6
    1894:	56010400 	strpl	r0, [r1], -r0, lsl #8
    1898:	01000003 	tsteq	r0, r3
    189c:	00000568 	andeq	r0, r0, r8, ror #10
    18a0:	000004d2 	ldrdeq	r0, [r0], -r2
    18a4:	00008898 	muleq	r0, r8, r8
    18a8:	000004f0 	strdeq	r0, [r0], -r0	; <UNPREDICTABLE>
    18ac:	000005bc 			; <UNDEFINED> instruction: 0x000005bc
    18b0:	69050402 	stmdbvs	r5, {r1, sl}
    18b4:	0300746e 	movweq	r7, #1134	; 0x46e
    18b8:	006c0704 	rsbeq	r0, ip, r4, lsl #14
    18bc:	01030000 	mrseq	r0, (UNDEF: 3)
    18c0:	00030606 	andeq	r0, r3, r6, lsl #12
    18c4:	05020300 	streq	r0, [r2, #-768]	; 0x300
    18c8:	00000312 	andeq	r0, r0, r2, lsl r3
    18cc:	8e050403 	cdphi	4, 0, cr0, cr5, cr3, {0}
    18d0:	03000000 	movweq	r0, #0
    18d4:	00890508 	addeq	r0, r9, r8, lsl #10
    18d8:	01030000 	mrseq	r0, (UNDEF: 3)
    18dc:	00030408 	andeq	r0, r3, r8, lsl #8
    18e0:	07020300 	streq	r0, [r2, -r0, lsl #6]
    18e4:	00000167 	andeq	r0, r0, r7, ror #2
    18e8:	67070403 	strvs	r0, [r7, -r3, lsl #8]
    18ec:	03000000 	movweq	r0, #0
    18f0:	00620708 	rsbeq	r0, r2, r8, lsl #14
    18f4:	04030000 	streq	r0, [r3], #-0
    18f8:	0001fa07 	andeq	pc, r1, r7, lsl #20
    18fc:	05040400 	streq	r0, [r4, #-1024]	; 0x400
    1900:	00007a04 	andeq	r7, r0, r4, lsl #20
    1904:	08010300 	stmdaeq	r1, {r8, r9}
    1908:	0000030d 	andeq	r0, r0, sp, lsl #6
    190c:	00870405 	addeq	r0, r7, r5, lsl #8
    1910:	7a060000 	bvc	181918 <__bss_end__+0x177358>
    1914:	07000000 	streq	r0, [r0, -r0]
    1918:	0000020b 	andeq	r0, r0, fp, lsl #4
    191c:	00972802 	addseq	r2, r7, r2, lsl #16
    1920:	d9080000 	stmdble	r8, {}	; <UNPREDICTABLE>
    1924:	04000000 	streq	r0, [r0], #-0
    1928:	00ae0004 	adceq	r0, lr, r4
    192c:	f5090000 			; <UNDEFINED> instruction: 0xf5090000
    1930:	72000003 	andvc	r0, r0, #3
    1934:	00000000 	andeq	r0, r0, r0
    1938:	00db0700 	sbcseq	r0, fp, r0, lsl #14
    193c:	62020000 	andvs	r0, r2, #0
    1940:	0000008c 	andeq	r0, r0, ip, lsl #1
    1944:	00054a0a 	andeq	r4, r5, sl, lsl #20
    1948:	25270100 	strcs	r0, [r7, #-256]!	; 0x100
    194c:	98000000 	stmdals	r0, {}	; <UNPREDICTABLE>
    1950:	14000088 	strne	r0, [r0], #-136	; 0x88
    1954:	01000000 	mrseq	r0, (UNDEF: 0)
    1958:	0000e09c 	muleq	r0, ip, r0
    195c:	00630b00 	rsbeq	r0, r3, r0, lsl #22
    1960:	00252701 	eoreq	r2, r5, r1, lsl #14
    1964:	0bba0000 	bleq	fee8196c <__bss_end__+0xfee773ac>
    1968:	0c000000 	stceq	0, cr0, [r0], {-0}
    196c:	00646170 	rsbeq	r6, r4, r0, ror r1
    1970:	00742e01 	rsbseq	r2, r4, r1, lsl #28
    1974:	88ac0000 	stmiahi	ip!, {}	; <UNPREDICTABLE>
    1978:	002c0000 	eoreq	r0, ip, r0
    197c:	9c010000 	stcls	0, cr0, [r1], {-0}
    1980:	00000130 	andeq	r0, r0, r0, lsr r1
    1984:	0100700b 	tsteq	r0, fp
    1988:	0000742e 	andeq	r7, r0, lr, lsr #8
    198c:	000be800 	andeq	lr, fp, r0, lsl #16
    1990:	055a0d00 	ldrbeq	r0, [sl, #-3328]	; 0xd00
    1994:	2e010000 	cdpcs	0, 0, cr0, cr1, cr0, {0}
    1998:	00000074 	andeq	r0, r0, r4, ror r0
    199c:	00000c13 	andeq	r0, r0, r3, lsl ip
    19a0:	0005880e 	andeq	r8, r5, lr, lsl #16
    19a4:	252e0100 	strcs	r0, [lr, #-256]!	; 0x100
    19a8:	01000000 	mrseq	r0, (UNDEF: 0)
    19ac:	656c0f52 	strbvs	r0, [ip, #-3922]!	; 0xf52
    19b0:	2f01006e 	svccs	0x0001006e
    19b4:	00000025 	andeq	r0, r0, r5, lsr #32
    19b8:	0a005101 	beq	15dc4 <__bss_end__+0xb804>
    19bc:	00000542 	andeq	r0, r0, r2, asr #10
    19c0:	00743701 	rsbseq	r3, r4, r1, lsl #14
    19c4:	88d80000 	ldmhi	r8, {}^	; <UNPREDICTABLE>
    19c8:	00400000 	subeq	r0, r0, r0
    19cc:	9c010000 	stcls	0, cr0, [r1], {-0}
    19d0:	0000019c 	muleq	r0, ip, r1
    19d4:	7473640b 	ldrbtvc	r6, [r3], #-1035	; 0x40b
    19d8:	74370100 	ldrtvc	r0, [r7], #-256	; 0x100
    19dc:	34000000 	strcc	r0, [r0], #-0
    19e0:	0b00000c 	bleq	1a18 <_start-0x65e8>
    19e4:	3701006e 	strcc	r0, [r1, -lr, rrx]
    19e8:	00000025 	andeq	r0, r0, r5, lsr #32
    19ec:	00000c6c 	andeq	r0, r0, ip, ror #24
    19f0:	0100700b 	tsteq	r0, fp
    19f4:	00007437 	andeq	r7, r0, r7, lsr r4
    19f8:	000c8d00 	andeq	r8, ip, r0, lsl #26
    19fc:	05f80d00 	ldrbeq	r0, [r8, #3328]!	; 0xd00
    1a00:	37010000 	strcc	r0, [r1, -r0]
    1a04:	00000074 	andeq	r0, r0, r4, ror r0
    1a08:	00000cc3 	andeq	r0, r0, r3, asr #25
    1a0c:	6e656c10 	mcrvs	12, 3, r6, cr5, cr0, {0}
    1a10:	25390100 	ldrcs	r0, [r9, #-256]!	; 0x100
    1a14:	e1000000 	mrs	r0, (UNDEF: 0)
    1a18:	0f00000c 	svceq	0x0000000c
    1a1c:	3d010073 	stccc	0, cr0, [r1, #-460]	; 0xfffffe34
    1a20:	00000074 	andeq	r0, r0, r4, ror r0
    1a24:	0a005001 	beq	15a30 <__bss_end__+0xb470>
    1a28:	00000596 	muleq	r0, r6, r5
    1a2c:	00744701 	rsbseq	r4, r4, r1, lsl #14
    1a30:	89180000 	ldmdbhi	r8, {}	; <UNPREDICTABLE>
    1a34:	01980000 	orrseq	r0, r8, r0
    1a38:	9c010000 	stcls	0, cr0, [r1], {-0}
    1a3c:	000002ca 	andeq	r0, r0, sl, asr #5
    1a40:	00055a0d 	andeq	r5, r5, sp, lsl #20
    1a44:	2c470100 	stfcse	f0, [r7], {-0}
    1a48:	08000000 	stmdaeq	r0, {}	; <UNPREDICTABLE>
    1a4c:	0b00000d 	bleq	1a88 <_start-0x6578>
    1a50:	00747364 	rsbseq	r7, r4, r4, ror #6
    1a54:	00744701 	rsbseq	r4, r4, r1, lsl #14
    1a58:	0d360000 	ldceq	0, cr0, [r6, #-0]
    1a5c:	6e0b0000 	cdpvs	0, 0, cr0, cr11, cr0, {0}
    1a60:	25470100 	strbcs	r0, [r7, #-256]	; 0x100
    1a64:	a4000000 	strge	r0, [r0], #-0
    1a68:	0b00000d 	bleq	1aa4 <_start-0x655c>
    1a6c:	006c6176 	rsbeq	r6, ip, r6, ror r1
    1a70:	00254701 	eoreq	r4, r5, r1, lsl #14
    1a74:	0dd00000 	ldcleq	0, cr0, [r0]
    1a78:	880d0000 	stmdahi	sp, {}	; <UNPREDICTABLE>
    1a7c:	01000005 	tsteq	r0, r5
    1a80:	00002547 	andeq	r2, r0, r7, asr #10
    1a84:	000e5a00 	andeq	r5, lr, r0, lsl #20
    1a88:	055f0e00 	ldrbeq	r0, [pc, #-3584]	; c90 <_start-0x7370>
    1a8c:	47010000 	strmi	r0, [r1, -r0]
    1a90:	00000025 	andeq	r0, r0, r5, lsr #32
    1a94:	0f049102 	svceq	0x00049102
    1a98:	00667562 	rsbeq	r7, r6, r2, ror #10
    1a9c:	02ca4c01 	sbceq	r4, sl, #256	; 0x100
    1aa0:	91030000 	mrsls	r0, (UNDEF: 3)
    1aa4:	70107fa8 	andsvc	r7, r0, r8, lsr #31
    1aa8:	744c0100 	strbvc	r0, [ip], #-256	; 0x100
    1aac:	84000000 	strhi	r0, [r0], #-0
    1ab0:	1000000e 	andne	r0, r0, lr
    1ab4:	4d010075 	stcmi	0, cr0, [r1, #-468]	; 0xfffffe2c
    1ab8:	0000002c 	andeq	r0, r0, ip, lsr #32
    1abc:	00000f29 	andeq	r0, r0, r9, lsr #30
    1ac0:	00015411 	andeq	r5, r1, r1, lsl r4
    1ac4:	0002ea00 	andeq	lr, r2, r0, lsl #20
    1ac8:	54030500 	strpl	r0, [r3], #-1280	; 0x500
    1acc:	1200009b 	andne	r0, r0, #155	; 0x9b
    1ad0:	00008984 	andeq	r8, r0, r4, lsl #19
    1ad4:	00000074 	andeq	r0, r0, r4, ror r0
    1ad8:	00000261 	andeq	r0, r0, r1, ror #4
    1adc:	00053c13 	andeq	r3, r5, r3, lsl ip
    1ae0:	2c520100 	ldfcse	f0, [r2], {-0}
    1ae4:	39000000 	stmdbcc	r0, {}	; <UNPREDICTABLE>
    1ae8:	00000010 	andeq	r0, r0, r0, lsl r0
    1aec:	008a6814 	addeq	r6, sl, r4, lsl r8
    1af0:	00063a00 	andeq	r3, r6, r0, lsl #20
    1af4:	00029000 	andeq	r9, r2, r0
    1af8:	53011500 	movwpl	r1, #5376	; 0x1500
    1afc:	15750802 	ldrbne	r0, [r5, #-2050]!	; 0x802
    1b00:	03055201 	movweq	r5, #20993	; 0x5201
    1b04:	00009b54 	andeq	r9, r0, r4, asr fp
    1b08:	05510115 	ldrbeq	r0, [r1, #-277]	; 0x115
    1b0c:	009b8c03 	addseq	r8, fp, r3, lsl #24
    1b10:	50011500 	andpl	r1, r1, r0, lsl #10
    1b14:	9b780305 	blls	1e02730 <__bss_end__+0x1df8170>
    1b18:	16000000 	strne	r0, [r0], -r0
    1b1c:	00008a6c 	andeq	r8, r0, ip, ror #20
    1b20:	00000650 	andeq	r0, r0, r0, asr r6
    1b24:	008a7814 	addeq	r7, sl, r4, lsl r8
    1b28:	0000e000 	andeq	lr, r0, r0
    1b2c:	0002ad00 	andeq	sl, r2, r0, lsl #26
    1b30:	51011500 	tstpl	r1, r0, lsl #10
    1b34:	00007d02 	andeq	r7, r0, r2, lsl #26
    1b38:	008a8c17 	addeq	r8, sl, r7, lsl ip
    1b3c:	00013000 	andeq	r3, r1, r0
    1b40:	53011500 	movwpl	r1, #5376	; 0x1500
    1b44:	15007d02 	strne	r7, [r0, #-3330]	; 0xd02
    1b48:	74025101 	strvc	r5, [r2], #-257	; 0x101
    1b4c:	50011500 	andpl	r1, r1, r0, lsl #10
    1b50:	00007502 	andeq	r7, r0, r2, lsl #10
    1b54:	007a1800 	rsbseq	r1, sl, r0, lsl #16
    1b58:	02da0000 	sbcseq	r0, sl, #0
    1b5c:	6b190000 	blvs	641b64 <__bss_end__+0x6375a4>
    1b60:	3f000000 	svccc	0x00000000
    1b64:	007a1800 	rsbseq	r1, sl, r0, lsl #16
    1b68:	02ea0000 	rsceq	r0, sl, #0
    1b6c:	6b190000 	blvs	641b74 <__bss_end__+0x6375b4>
    1b70:	04000000 	streq	r0, [r0], #-0
    1b74:	02da0600 	sbcseq	r0, sl, #0, 12
    1b78:	791a0000 	ldmdbvc	sl, {}	; <UNPREDICTABLE>
    1b7c:	01000005 	tsteq	r0, r5
    1b80:	008ab01f 	addeq	fp, sl, pc, lsl r0
    1b84:	00005000 	andeq	r5, r0, r0
    1b88:	6a9c0100 	bvs	fe701f90 <__bss_end__+0xfe6f79d0>
    1b8c:	0d000003 	stceq	0, cr0, [r0, #-12]
    1b90:	0000058e 	andeq	r0, r0, lr, lsl #11
    1b94:	03791f01 	cmneq	r9, #1, 30
    1b98:	10650000 	rsbne	r0, r5, r0
    1b9c:	520d0000 	andpl	r0, sp, #0
    1ba0:	01000005 	tsteq	r0, r5
    1ba4:	00038e1f 	andeq	r8, r3, pc, lsl lr
    1ba8:	00109100 	andseq	r9, r0, r0, lsl #2
    1bac:	01541100 	cmpeq	r4, r0, lsl #2
    1bb0:	03a40000 			; <UNDEFINED> instruction: 0x03a40000
    1bb4:	03050000 	movweq	r0, #20480	; 0x5000
    1bb8:	00009b5c 	andeq	r9, r0, ip, asr fp
    1bbc:	008ad014 	addeq	sp, sl, r4, lsl r0
    1bc0:	00063a00 	andeq	r3, r6, r0, lsl #20
    1bc4:	00036000 	andeq	r6, r3, r0
    1bc8:	53011500 	movwpl	r1, #5376	; 0x1500
    1bcc:	15200802 	strne	r0, [r0, #-2050]!	; 0x802
    1bd0:	03055201 	movweq	r5, #20993	; 0x5201
    1bd4:	00009b5c 	andeq	r9, r0, ip, asr fp
    1bd8:	05510115 	ldrbeq	r0, [r1, #-277]	; 0x115
    1bdc:	009b8c03 	addseq	r8, fp, r3, lsl #24
    1be0:	50011500 	andpl	r1, r1, r0, lsl #10
    1be4:	9bc40305 	blls	ff102800 <__bss_end__+0xff0f8240>
    1be8:	16000000 	strne	r0, [r0], -r0
    1bec:	00008ad4 	ldrdeq	r8, [r0], -r4
    1bf0:	00000650 	andeq	r0, r0, r0, asr r6
    1bf4:	00251b00 	eoreq	r1, r5, r0, lsl #22
    1bf8:	03790000 	cmneq	r9, #0
    1bfc:	251c0000 	ldrcs	r0, [ip, #-0]
    1c00:	00000000 	andeq	r0, r0, r0
    1c04:	036a0405 	cmneq	sl, #83886080	; 0x5000000
    1c08:	251b0000 	ldrcs	r0, [fp, #-0]
    1c0c:	8e000000 	cdphi	0, 0, cr0, cr0, cr0, {0}
    1c10:	1c000003 	stcne	0, cr0, [r0], {3}
    1c14:	00000081 	andeq	r0, r0, r1, lsl #1
    1c18:	7f040500 	svcvc	0x00040500
    1c1c:	18000003 	stmdane	r0, {r0, r1}
    1c20:	0000007a 	andeq	r0, r0, sl, ror r0
    1c24:	000003a4 	andeq	r0, r0, r4, lsr #7
    1c28:	00006b19 	andeq	r6, r0, r9, lsl fp
    1c2c:	06000e00 	streq	r0, [r0], -r0, lsl #28
    1c30:	00000394 	muleq	r0, r4, r3
    1c34:	0001b51d 	andeq	fp, r1, sp, lsl r5
    1c38:	257d0100 	ldrbcs	r0, [sp, #-256]!	; 0x100
    1c3c:	00000000 	andeq	r0, r0, r0
    1c40:	8800008b 	stmdahi	r0, {r0, r1, r3, r7}
    1c44:	01000002 	tsteq	r0, r2
    1c48:	0005ff9c 	muleq	r5, ip, pc	; <UNPREDICTABLE>
    1c4c:	75620b00 	strbvc	r0, [r2, #-2816]!	; 0xb00
    1c50:	7d010066 	stcvc	0, cr0, [r1, #-408]	; 0xfffffe68
    1c54:	00000074 	andeq	r0, r0, r4, ror r0
    1c58:	000010bd 	strheq	r1, [r0], -sp
    1c5c:	01006e0b 	tsteq	r0, fp, lsl #28
    1c60:	0000257d 	andeq	r2, r0, sp, ror r5
    1c64:	0010e900 	andseq	lr, r0, r0, lsl #18
    1c68:	6d660b00 	vstmdbvs	r6!, {d16-d15}
    1c6c:	7d010074 	stcvc	0, cr0, [r1, #-464]	; 0xfffffe30
    1c70:	00000081 	andeq	r0, r0, r1, lsl #1
    1c74:	00001117 	andeq	r1, r0, r7, lsl r1
    1c78:	0004940d 	andeq	r9, r4, sp, lsl #8
    1c7c:	ae7d0100 	rpwgee	f0, f5, f0
    1c80:	4b000000 	blmi	1c88 <_start-0x6378>
    1c84:	10000011 	andne	r0, r0, r1, lsl r0
    1c88:	7e010070 	mcrvc	0, 0, r0, cr1, cr0, {3}
    1c8c:	00000074 	andeq	r0, r0, r4, ror r0
    1c90:	0000115e 	andeq	r1, r0, lr, asr r1
    1c94:	01006510 	tsteq	r0, r0, lsl r5
    1c98:	0000747e 	andeq	r7, r0, lr, ror r4
    1c9c:	0011dc00 	andseq	sp, r1, r0, lsl #24
    1ca0:	01541100 	cmpeq	r4, r0, lsl #2
    1ca4:	060f0000 	streq	r0, [pc], -r0
    1ca8:	03050000 	movweq	r0, #20480	; 0x5000
    1cac:	00009b6c 	andeq	r9, r0, ip, ror #22
    1cb0:	008b541e 	addeq	r5, fp, lr, lsl r4
    1cb4:	0001f400 	andeq	pc, r1, r0, lsl #8
    1cb8:	00731000 	rsbseq	r1, r3, r0
    1cbc:	00748b01 	rsbseq	r8, r4, r1, lsl #22
    1cc0:	12030000 	andne	r0, r3, #0
    1cc4:	6e0f0000 	cdpvs	0, 0, cr0, cr15, cr0, {0}
    1cc8:	01006d75 	tsteq	r0, r5, ror sp
    1ccc:	0006148b 	andeq	r1, r6, fp, lsl #9
    1cd0:	d8910300 	ldmle	r1, {r8, r9}
    1cd4:	0588137e 	streq	r1, [r8, #894]	; 0x37e
    1cd8:	8c010000 	stchi	0, cr0, [r1], {-0}
    1cdc:	0000002c 	andeq	r0, r0, ip, lsr #32
    1ce0:	00001258 	andeq	r1, r0, r8, asr r2
    1ce4:	008b8414 	addeq	r8, fp, r4, lsl r4
    1ce8:	0000b900 	andeq	fp, r0, r0, lsl #18
    1cec:	00046d00 	andeq	r6, r4, r0, lsl #26
    1cf0:	50011500 	andpl	r1, r1, r0, lsl #10
    1cf4:	00007502 	andeq	r7, r0, r2, lsl #10
    1cf8:	008ba814 	addeq	sl, fp, r4, lsl r8
    1cfc:	00063a00 	andeq	r3, r6, r0, lsl #20
    1d00:	00049c00 	andeq	r9, r4, r0, lsl #24
    1d04:	53011500 	movwpl	r1, #5376	; 0x1500
    1d08:	15920802 	ldrne	r0, [r2, #2050]	; 0x802
    1d0c:	03055201 	movweq	r5, #20993	; 0x5201
    1d10:	00009b6c 	andeq	r9, r0, ip, ror #22
    1d14:	05510115 	ldrbeq	r0, [r1, #-277]	; 0x115
    1d18:	009b8c03 	addseq	r8, fp, r3, lsl #24
    1d1c:	50011500 	andpl	r1, r1, r0, lsl #10
    1d20:	9bdc0305 	blls	ff70293c <__bss_end__+0xff6f837c>
    1d24:	16000000 	strne	r0, [r0], -r0
    1d28:	00008bac 	andeq	r8, r0, ip, lsr #23
    1d2c:	00000650 	andeq	r0, r0, r0, asr r6
    1d30:	008c2c14 	addeq	r2, ip, r4, lsl ip
    1d34:	00063a00 	andeq	r3, r6, r0, lsl #20
    1d38:	0004d400 	andeq	sp, r4, r0, lsl #8
    1d3c:	53011500 	movwpl	r1, #5376	; 0x1500
    1d40:	15980802 	ldrne	r0, [r8, #2050]	; 0x802
    1d44:	03055201 	movweq	r5, #20993	; 0x5201
    1d48:	00009b6c 	andeq	r9, r0, ip, ror #22
    1d4c:	05510115 	ldrbeq	r0, [r1, #-277]	; 0x115
    1d50:	009b8c03 	addseq	r8, fp, r3, lsl #24
    1d54:	50011500 	andpl	r1, r1, r0, lsl #10
    1d58:	9bf80305 	blls	ffe02974 <__bss_end__+0xffdf83b4>
    1d5c:	16000000 	strne	r0, [r0], -r0
    1d60:	00008c30 	andeq	r8, r0, r0, lsr ip
    1d64:	00000650 	andeq	r0, r0, r0, asr r6
    1d68:	008c5414 	addeq	r5, ip, r4, lsl r4
    1d6c:	00019c00 	andeq	r9, r1, r0, lsl #24
    1d70:	00050a00 	andeq	r0, r5, r0, lsl #20
    1d74:	52011500 	andpl	r1, r1, #0, 10
    1d78:	15800802 	strne	r0, [r0, #2050]	; 0x802
    1d7c:	91035101 	tstls	r3, r1, lsl #2
    1d80:	01157ed0 			; <UNDEFINED> instruction: 0x01157ed0
    1d84:	153a0150 	ldrne	r0, [sl, #-336]!	; 0x150
    1d88:	01047d02 	tsteq	r4, r2, lsl #26
    1d8c:	7d021531 	cfstr32vc	mvfx1, [r2, #-196]	; 0xffffff3c
    1d90:	00770200 	rsbseq	r0, r7, r0, lsl #4
    1d94:	8c7c1400 	cfldrdhi	mvd1, [ip], #-0
    1d98:	019c0000 	orrseq	r0, ip, r0
    1d9c:	05370000 	ldreq	r0, [r7, #-0]!
    1da0:	01150000 	tsteq	r5, r0
    1da4:	80080252 	andhi	r0, r8, r2, asr r2
    1da8:	03510115 	cmpeq	r1, #1073741829	; 0x40000005
    1dac:	157ed091 	ldrbne	sp, [lr, #-145]!	; 0x91
    1db0:	3a015001 	bcc	55dbc <__bss_end__+0x4b7fc>
    1db4:	047d0215 	ldrbteq	r0, [sp], #-533	; 0x215
    1db8:	02153001 	andseq	r3, r5, #1
    1dbc:	7702007d 	smlsdxvc	r2, sp, r0, r0
    1dc0:	a4140000 	ldrge	r0, [r4], #-0
    1dc4:	9c00008c 	stcls	0, cr0, [r0], {140}	; 0x8c
    1dc8:	64000001 	strvs	r0, [r0], #-1
    1dcc:	15000005 	strne	r0, [r0, #-5]
    1dd0:	08025201 	stmdaeq	r2, {r0, r9, ip, lr}
    1dd4:	51011580 	smlabbpl	r1, r0, r5, r1
    1dd8:	7ed09103 	atnvcs	f1, f3
    1ddc:	01500115 	cmpeq	r0, r5, lsl r1
    1de0:	7d021540 	cfstr32vc	mvfx1, [r2, #-256]	; 0xffffff00
    1de4:	15300104 	ldrne	r0, [r0, #-260]!	; 0x104
    1de8:	02007d02 	andeq	r7, r0, #2, 26	; 0x80
    1dec:	14000077 	strne	r0, [r0], #-119	; 0x77
    1df0:	00008ccc 	andeq	r8, r0, ip, asr #25
    1df4:	0000019c 	muleq	r0, ip, r1
    1df8:	00000591 	muleq	r0, r1, r5
    1dfc:	02520115 	subseq	r0, r2, #1073741829	; 0x40000005
    1e00:	01158008 	tsteq	r5, r8
    1e04:	d0910351 	addsle	r0, r1, r1, asr r3
    1e08:	5001157e 	andpl	r1, r1, lr, ror r5
    1e0c:	02153201 	andseq	r3, r5, #268435456	; 0x10000000
    1e10:	3001047d 	andcc	r0, r1, sp, ror r4
    1e14:	007d0215 	rsbseq	r0, sp, r5, lsl r2
    1e18:	00007702 	andeq	r7, r0, r2, lsl #14
    1e1c:	008d0014 	addeq	r0, sp, r4, lsl r0
    1e20:	00019c00 	andeq	r9, r1, r0, lsl #24
    1e24:	0005be00 	andeq	fp, r5, r0, lsl #28
    1e28:	52011500 	andpl	r1, r1, #0, 10
    1e2c:	15800802 	strne	r0, [r0, #2050]	; 0x802
    1e30:	91035101 	tstls	r3, r1, lsl #2
    1e34:	01157ed0 			; <UNDEFINED> instruction: 0x01157ed0
    1e38:	15380150 	ldrne	r0, [r8, #-336]!	; 0x150
    1e3c:	01047d02 	tsteq	r4, r2, lsl #26
    1e40:	7d021530 	cfstr32vc	mvfx1, [r2, #-192]	; 0xffffff40
    1e44:	00770200 	rsbseq	r0, r7, r0, lsl #4
    1e48:	8d1c1400 	cfldrshi	mvf1, [ip, #-0]
    1e4c:	063a0000 	ldrteq	r0, [sl], -r0
    1e50:	05f40000 	ldrbeq	r0, [r4, #0]!
    1e54:	01150000 	tsteq	r5, r0
    1e58:	b9080253 	stmdblt	r8, {r0, r1, r4, r6, r9}
    1e5c:	05520115 	ldrbeq	r0, [r2, #-277]	; 0x115
    1e60:	009b6c03 	addseq	r6, fp, r3, lsl #24
    1e64:	51011500 	tstpl	r1, r0, lsl #10
    1e68:	9b8c0305 	blls	fe302a84 <__bss_end__+0xfe2f84c4>
    1e6c:	01150000 	tsteq	r5, r0
    1e70:	20030550 	andcs	r0, r3, r0, asr r5
    1e74:	1500009c 	strne	r0, [r0, #-156]	; 0x9c
    1e78:	02007d02 	andeq	r7, r0, #2, 26	; 0x80
    1e7c:	16000079 			; <UNDEFINED> instruction: 0x16000079
    1e80:	00008d20 	andeq	r8, r0, r0, lsr #26
    1e84:	00000650 	andeq	r0, r0, r0, asr r6
    1e88:	7a180000 	bvc	601e90 <__bss_end__+0x5f78d0>
    1e8c:	0f000000 	svceq	0x00000000
    1e90:	19000006 	stmdbne	r0, {r1, r2}
    1e94:	0000006b 	andeq	r0, r0, fp, rrx
    1e98:	ff060009 			; <UNDEFINED> instruction: 0xff060009
    1e9c:	18000005 	stmdane	r0, {r0, r2}
    1ea0:	0000007a 	andeq	r0, r0, sl, ror r0
    1ea4:	00000624 	andeq	r0, r0, r4, lsr #12
    1ea8:	00006b19 	andeq	r6, r0, r9, lsl fp
    1eac:	1f007f00 	svcne	0x00007f00
    1eb0:	00000530 	andeq	r0, r0, r0, lsr r5
    1eb4:	03791d03 	cmneq	r9, #3, 26	; 0xc0
    1eb8:	2b1f0000 	blcs	7c1ec0 <__bss_end__+0x7b7900>
    1ebc:	03000005 	movweq	r0, #5
    1ec0:	00038e20 	andeq	r8, r3, r0, lsr #28
    1ec4:	01b82000 			; <UNDEFINED> instruction: 0x01b82000
    1ec8:	27030000 	strcs	r0, [r3, -r0]
    1ecc:	00000025 	andeq	r0, r0, r5, lsr #32
    1ed0:	00000650 	andeq	r0, r0, r0, asr r6
    1ed4:	0000811c 	andeq	r8, r0, ip, lsl r1
    1ed8:	22002100 	andcs	r2, r0, #0, 2
    1edc:	000001d8 	ldrdeq	r0, [r0], -r8
    1ee0:	ff006303 			; <UNDEFINED> instruction: 0xff006303
    1ee4:	04000000 	streq	r0, [r0], #-0
    1ee8:	00070100 	andeq	r0, r7, r0, lsl #2
    1eec:	56010400 	strpl	r0, [r1], -r0, lsl #8
    1ef0:	01000003 	tsteq	r0, r3
    1ef4:	000005a6 	andeq	r0, r0, r6, lsr #11
    1ef8:	000004d2 	ldrdeq	r0, [r0], -r2
    1efc:	00008d88 	andeq	r8, r0, r8, lsl #27
    1f00:	00000028 	andeq	r0, r0, r8, lsr #32
    1f04:	0000079c 	muleq	r0, ip, r7
    1f08:	69050402 	stmdbvs	r5, {r1, sl}
    1f0c:	0300746e 	movweq	r7, #1134	; 0x46e
    1f10:	006c0704 	rsbeq	r0, ip, r4, lsl #14
    1f14:	01030000 	mrseq	r0, (UNDEF: 3)
    1f18:	00030606 	andeq	r0, r3, r6, lsl #12
    1f1c:	05020300 	streq	r0, [r2, #-768]	; 0x300
    1f20:	00000312 	andeq	r0, r0, r2, lsl r3
    1f24:	8e050403 	cdphi	4, 0, cr0, cr5, cr3, {0}
    1f28:	03000000 	movweq	r0, #0
    1f2c:	00890508 	addeq	r0, r9, r8, lsl #10
    1f30:	01030000 	mrseq	r0, (UNDEF: 3)
    1f34:	00030408 	andeq	r0, r3, r8, lsl #8
    1f38:	07020300 	streq	r0, [r2, -r0, lsl #6]
    1f3c:	00000167 	andeq	r0, r0, r7, ror #2
    1f40:	67070403 	strvs	r0, [r7, -r3, lsl #8]
    1f44:	03000000 	movweq	r0, #0
    1f48:	00620708 	rsbeq	r0, r2, r8, lsl #14
    1f4c:	04030000 	streq	r0, [r3], #-0
    1f50:	0001fa07 	andeq	pc, r1, r7, lsl #20
    1f54:	08010300 	stmdaeq	r1, {r8, r9}
    1f58:	0000030d 	andeq	r0, r0, sp, lsl #6
    1f5c:	007f0404 	rsbseq	r0, pc, r4, lsl #8
    1f60:	72050000 	andvc	r0, r5, #0
    1f64:	06000000 	streq	r0, [r0], -r0
    1f68:	000001d8 	ldrdeq	r0, [r0], -r8
    1f6c:	8d880401 	cfstrshi	mvf0, [r8, #4]
    1f70:	00280000 	eoreq	r0, r8, r0
    1f74:	9c010000 	stcls	0, cr0, [r1], {-0}
    1f78:	000000ca 	andeq	r0, r0, sl, asr #1
    1f7c:	008d9c07 	addeq	r9, sp, r7, lsl #24
    1f80:	0000ac00 	andeq	sl, r0, r0, lsl #24
    1f84:	50010800 	andpl	r0, r1, r0, lsl #16
    1f88:	9c580305 	mrrcls	3, 0, r0, r8, cr5
    1f8c:	09000000 	stmdbeq	r0, {}	; <UNPREDICTABLE>
    1f90:	00008da4 	andeq	r8, r0, r4, lsr #27
    1f94:	000000ea 	andeq	r0, r0, sl, ror #1
    1f98:	000000c0 	andeq	r0, r0, r0, asr #1
    1f9c:	02500108 	subseq	r0, r0, #8, 2
    1fa0:	0a006408 	beq	1afc8 <__bss_end__+0x10a08>
    1fa4:	00008da8 	andeq	r8, r0, r8, lsr #27
    1fa8:	000000fb 	strdeq	r0, [r0], -fp
    1fac:	00250b00 	eoreq	r0, r5, r0, lsl #22
    1fb0:	00d90000 	sbcseq	r0, r9, r0
    1fb4:	790c0000 	stmdbvc	ip, {}	; <UNPREDICTABLE>
    1fb8:	00000000 	andeq	r0, r0, r0
    1fbc:	00052b0d 	andeq	r2, r5, sp, lsl #22
    1fc0:	e4200200 	strt	r0, [r0], #-512	; 0x200
    1fc4:	04000000 	streq	r0, [r0], #-0
    1fc8:	0000ca04 	andeq	ip, r0, r4, lsl #20
    1fcc:	03290e00 	teqeq	r9, #0, 28
    1fd0:	4d020000 	stcmi	0, cr0, [r2, #-0]
    1fd4:	000000fb 	strdeq	r0, [r0], -fp
    1fd8:	00002c0c 	andeq	r2, r0, ip, lsl #24
    1fdc:	9b0f0000 	blls	3c1fe4 <__bss_end__+0x3b7a24>
    1fe0:	02000005 	andeq	r0, r0, #5
    1fe4:	010b0060 	tsteq	fp, r0, rrx
    1fe8:	00040000 	andeq	r0, r4, r0
    1fec:	000007cb 	andeq	r0, r0, fp, asr #15
    1ff0:	03560104 	cmpeq	r6, #4, 2
    1ff4:	c0010000 	andgt	r0, r1, r0
    1ff8:	d2000005 	andle	r0, r0, #5
    1ffc:	b0000004 	andlt	r0, r0, r4
    2000:	3400008d 	strcc	r0, [r0], #-141	; 0x8d
    2004:	33000000 	movwcc	r0, #0
    2008:	02000008 	andeq	r0, r0, #8
    200c:	6e690504 	cdpvs	5, 6, cr0, cr9, cr4, {0}
    2010:	04030074 	streq	r0, [r3], #-116	; 0x74
    2014:	00006c07 	andeq	r6, r0, r7, lsl #24
    2018:	06010300 	streq	r0, [r1], -r0, lsl #6
    201c:	00000306 	andeq	r0, r0, r6, lsl #6
    2020:	12050203 	andne	r0, r5, #805306368	; 0x30000000
    2024:	03000003 	movweq	r0, #3
    2028:	008e0504 	addeq	r0, lr, r4, lsl #10
    202c:	08030000 	stmdaeq	r3, {}	; <UNPREDICTABLE>
    2030:	00008905 	andeq	r8, r0, r5, lsl #18
    2034:	08010300 	stmdaeq	r1, {r8, r9}
    2038:	00000304 	andeq	r0, r0, r4, lsl #6
    203c:	67070203 	strvs	r0, [r7, -r3, lsl #4]
    2040:	03000001 	movweq	r0, #1
    2044:	00670704 	rsbeq	r0, r7, r4, lsl #14
    2048:	08030000 	stmdaeq	r3, {}	; <UNPREDICTABLE>
    204c:	00006207 	andeq	r6, r0, r7, lsl #4
    2050:	07040300 	streq	r0, [r4, -r0, lsl #6]
    2054:	000001fa 	strdeq	r0, [r0], -sl
    2058:	0d080103 	stfeqs	f0, [r8, #-12]
    205c:	04000003 	streq	r0, [r0], #-3
    2060:	000005f6 	strdeq	r0, [r0], -r6
    2064:	8db00301 	ldchi	3, cr0, [r0, #4]!
    2068:	00340000 	eorseq	r0, r4, r0
    206c:	9c010000 	stcls	0, cr0, [r1], {-0}
    2070:	000000de 	ldrdeq	r0, [r0], -lr
    2074:	0005d405 	andeq	sp, r5, r5, lsl #8
    2078:	25040100 	strcs	r0, [r4, #-256]	; 0x100
    207c:	05000000 	streq	r0, [r0, #-0]
    2080:	000005e2 	andeq	r0, r0, r2, ror #11
    2084:	00250401 	eoreq	r0, r5, r1, lsl #8
    2088:	33060000 	movwcc	r0, #24576	; 0x6000
    208c:	01000000 	mrseq	r0, (UNDEF: 0)
    2090:	0000b105 	andeq	fp, r0, r5, lsl #2
    2094:	08000700 	stmdaeq	r0, {r8, r9, sl}
    2098:	00737362 	rsbseq	r7, r3, r2, ror #6
    209c:	00de0701 	sbcseq	r0, lr, r1, lsl #14
    20a0:	12820000 	addne	r0, r2, #0
    20a4:	ee090000 	cdp	0, 0, cr0, cr9, cr0, {0}
    20a8:	01000005 	tsteq	r0, r5
    20ac:	0000de08 	andeq	sp, r0, r8, lsl #28
    20b0:	8dd80a00 	vldrhi	s1, [r8]
    20b4:	00fa0000 	rscseq	r0, sl, r0
    20b8:	dc0a0000 	stcle	0, cr0, [sl], {-0}
    20bc:	0700008d 	streq	r0, [r0, -sp, lsl #1]
    20c0:	00000001 	andeq	r0, r0, r1
    20c4:	0025040b 	eoreq	r0, r5, fp, lsl #8
    20c8:	d4050000 	strle	r0, [r5], #-0
    20cc:	01000005 	tsteq	r0, r5
    20d0:	00002504 	andeq	r2, r0, r4, lsl #10
    20d4:	05e20500 	strbeq	r0, [r2, #1280]!	; 0x500
    20d8:	04010000 	streq	r0, [r1], #-0
    20dc:	00000025 	andeq	r0, r0, r5, lsr #32
    20e0:	00003306 	andeq	r3, r0, r6, lsl #6
    20e4:	07050100 	streq	r0, [r5, -r0, lsl #2]
    20e8:	07000001 	streq	r0, [r0, -r1]
    20ec:	059b0c00 	ldreq	r0, [fp, #3072]	; 0xc00
    20f0:	60020000 	andvs	r0, r2, r0
    20f4:	0001ad00 	andeq	sl, r1, r0, lsl #26
    20f8:	75000400 	strvc	r0, [r0, #-1024]	; 0x400
    20fc:	04000008 	streq	r0, [r0], #-8
    2100:	00035601 	andeq	r5, r3, r1, lsl #12
    2104:	06180100 	ldreq	r0, [r8], -r0, lsl #2
    2108:	04d20000 	ldrbeq	r0, [r2], #0
    210c:	00180000 	andseq	r0, r8, r0
    2110:	00000000 	andeq	r0, r0, r0
    2114:	08cd0000 	stmiaeq	sp, {}^	; <UNPREDICTABLE>
    2118:	04020000 	streq	r0, [r2], #-0
    211c:	746e6905 	strbtvc	r6, [lr], #-2309	; 0x905
    2120:	07040300 	streq	r0, [r4, -r0, lsl #6]
    2124:	0000006c 	andeq	r0, r0, ip, rrx
    2128:	06060103 	streq	r0, [r6], -r3, lsl #2
    212c:	03000003 	movweq	r0, #3
    2130:	03120502 	tsteq	r2, #8388608	; 0x800000
    2134:	04030000 	streq	r0, [r3], #-0
    2138:	00008e05 	andeq	r8, r0, r5, lsl #28
    213c:	05080300 	streq	r0, [r8, #-768]	; 0x300
    2140:	00000089 	andeq	r0, r0, r9, lsl #1
    2144:	04080103 	streq	r0, [r8], #-259	; 0x103
    2148:	03000003 	movweq	r0, #3
    214c:	01670702 	cmneq	r7, r2, lsl #14
    2150:	04030000 	streq	r0, [r3], #-0
    2154:	00006707 	andeq	r6, r0, r7, lsl #14
    2158:	07080300 	streq	r0, [r8, -r0, lsl #6]
    215c:	00000062 	andeq	r0, r0, r2, rrx
    2160:	fa070403 	blx	1c3174 <__bss_end__+0x1b8bb4>
    2164:	03000001 	movweq	r0, #1
    2168:	030d0801 	movweq	r0, #55297	; 0xd801
    216c:	fe040000 	cdp2	0, 0, cr0, cr4, cr0, {0}
    2170:	01000005 	tsteq	r0, r5
    2174:	0000250e 	andeq	r2, r0, lr, lsl #10
    2178:	008de400 	addeq	lr, sp, r0, lsl #8
    217c:	00001800 	andeq	r1, r0, r0, lsl #16
    2180:	a29c0100 	addsge	r0, ip, #0, 2
    2184:	05000000 	streq	r0, [r0, #-0]
    2188:	0000066a 	andeq	r0, r0, sl, ror #12
    218c:	002c0f01 	eoreq	r0, ip, r1, lsl #30
    2190:	12a20000 	adcne	r0, r2, #0
    2194:	06000000 	streq	r0, [r0], -r0
    2198:	0000064d 	andeq	r0, r0, sp, asr #12
    219c:	8dfc1701 	ldclhi	7, cr1, [ip, #4]!
    21a0:	00140000 	andseq	r0, r4, r0
    21a4:	9c010000 	stcls	0, cr0, [r1], {-0}
    21a8:	000000c7 	andeq	r0, r0, r7, asr #1
    21ac:	00066a05 	andeq	r6, r6, r5, lsl #20
    21b0:	2c180100 	ldfcss	f0, [r8], {-0}
    21b4:	c1000000 	mrsgt	r0, (UNDEF: 0)
    21b8:	00000012 	andeq	r0, r0, r2, lsl r0
    21bc:	00059b06 	andeq	r9, r5, r6, lsl #22
    21c0:	101f0100 	andsne	r0, pc, r0, lsl #2
    21c4:	4800008e 	stmdami	r0, {r1, r2, r3, r7}
    21c8:	01000000 	mrseq	r0, (UNDEF: 0)
    21cc:	0001779c 	muleq	r1, ip, r7
    21d0:	06620700 	strbteq	r0, [r2], -r0, lsl #14
    21d4:	2a010000 	bcs	421dc <__bss_end__+0x37c1c>
    21d8:	00000177 	andeq	r0, r0, r7, ror r1
    21dc:	2010001c 	andscs	r0, r0, ip, lsl r0
    21e0:	00064507 	andeq	r4, r6, r7, lsl #10
    21e4:	772b0100 	strvc	r0, [fp, -r0, lsl #2]!
    21e8:	24000001 	strcs	r0, [r0], #-1
    21ec:	07201000 	streq	r1, [r0, -r0]!
    21f0:	0000060c 	andeq	r0, r0, ip, lsl #12
    21f4:	01772c01 	cmneq	r7, r1, lsl #24
    21f8:	00000000 	andeq	r0, r0, r0
    21fc:	2c085a00 	stccs	10, cr5, [r8], {-0}
    2200:	01000006 	tsteq	r0, r6
    2204:	0001772d 	andeq	r7, r1, sp, lsr #14
    2208:	18092000 	stmdane	r9, {sp}
    220c:	7900008e 	stmdbvc	r0, {r1, r2, r3, r7}
    2210:	09000000 	stmdbeq	r0, {}	; <UNPREDICTABLE>
    2214:	00008e24 	andeq	r8, r0, r4, lsr #28
    2218:	000000a2 	andeq	r0, r0, r2, lsr #1
    221c:	008e2c0a 	addeq	r2, lr, sl, lsl #24
    2220:	00018d00 	andeq	r8, r1, r0, lsl #26
    2224:	00013a00 	andeq	r3, r1, r0, lsl #20
    2228:	50010b00 	andpl	r0, r1, r0, lsl #22
    222c:	0a004e01 	beq	15a38 <__bss_end__+0xb478>
    2230:	00008e38 	andeq	r8, r0, r8, lsr lr
    2234:	0000019e 	muleq	r0, lr, r1
    2238:	0000015a 	andeq	r0, r0, sl, asr r1
    223c:	0551010b 	ldrbeq	r0, [r1, #-267]	; 0x10b
    2240:	0000010c 	andeq	r0, r0, ip, lsl #2
    2244:	50010b5a 	andpl	r0, r1, sl, asr fp
    2248:	00240c05 	eoreq	r0, r4, r5, lsl #24
    224c:	0c002010 	stceq	0, cr2, [r0], {16}
    2250:	00008e44 	andeq	r8, r0, r4, asr #28
    2254:	0000019e 	muleq	r0, lr, r1
    2258:	0551010b 	ldrbeq	r0, [r1, #-267]	; 0x10b
    225c:	0000200c 	andeq	r2, r0, ip
    2260:	50010b5a 	andpl	r0, r1, sl, asr fp
    2264:	001c0c05 	andseq	r0, ip, r5, lsl #24
    2268:	00002010 	andeq	r2, r0, r0, lsl r0
    226c:	0000250d 	andeq	r2, r0, sp, lsl #10
    2270:	06010800 	streq	r0, [r1], -r0, lsl #16
    2274:	0d010000 	stceq	0, cr0, [r1, #-0]
    2278:	00000188 	andeq	r0, r0, r8, lsl #3
    227c:	002c0d10 	eoreq	r0, ip, r0, lsl sp
    2280:	290e0000 	stmdbcs	lr, {}	; <UNPREDICTABLE>
    2284:	02000003 	andeq	r0, r0, #3
    2288:	00019e4d 	andeq	r9, r1, sp, asr #28
    228c:	002c0f00 	eoreq	r0, ip, r0, lsl #30
    2290:	10000000 	andne	r0, r0, r0
    2294:	0000065c 	andeq	r0, r0, ip, asr r6
    2298:	2c0f9402 	cfstrscs	mvf9, [pc], {2}
    229c:	0f000000 	svceq	0x00000000
    22a0:	0000002c 	andeq	r0, r0, ip, lsr #32
    22a4:	01d80000 	bicseq	r0, r8, r0
    22a8:	00040000 	andeq	r0, r4, r0
    22ac:	00000963 	andeq	r0, r0, r3, ror #18
    22b0:	03560104 	cmpeq	r6, #4, 2
    22b4:	79010000 	stmdbvc	r1, {}	; <UNPREDICTABLE>
    22b8:	d2000006 	andle	r0, r0, #6
    22bc:	58000004 	stmdapl	r0, {r2}
    22c0:	8800008e 	stmdahi	r0, {r1, r2, r3, r7}
    22c4:	6a000000 	bvs	22cc <_start-0x5d34>
    22c8:	02000009 	andeq	r0, r0, #9
    22cc:	6e690504 	cdpvs	5, 6, cr0, cr9, cr4, {0}
    22d0:	04030074 	streq	r0, [r3], #-116	; 0x74
    22d4:	00006c07 	andeq	r6, r0, r7, lsl #24
    22d8:	06010300 	streq	r0, [r1], -r0, lsl #6
    22dc:	00000306 	andeq	r0, r0, r6, lsl #6
    22e0:	12050203 	andne	r0, r5, #805306368	; 0x30000000
    22e4:	03000003 	movweq	r0, #3
    22e8:	008e0504 	addeq	r0, lr, r4, lsl #10
    22ec:	08030000 	stmdaeq	r3, {}	; <UNPREDICTABLE>
    22f0:	00008905 	andeq	r8, r0, r5, lsl #18
    22f4:	08010300 	stmdaeq	r1, {r8, r9}
    22f8:	00000304 	andeq	r0, r0, r4, lsl #6
    22fc:	67070203 	strvs	r0, [r7, -r3, lsl #4]
    2300:	03000001 	movweq	r0, #1
    2304:	00670704 	rsbeq	r0, r7, r4, lsl #14
    2308:	08030000 	stmdaeq	r3, {}	; <UNPREDICTABLE>
    230c:	00006207 	andeq	r6, r0, r7, lsl #4
    2310:	07040300 	streq	r0, [r4, -r0, lsl #6]
    2314:	000001fa 	strdeq	r0, [r0], -sl
    2318:	0d080103 	stfeqs	f0, [r8, #-12]
    231c:	04000003 	streq	r0, [r0], #-3
    2320:	00000698 	muleq	r0, r8, r6
    2324:	8e580501 	cdphi	5, 5, cr0, cr8, cr1, {0}
    2328:	001c0000 	andseq	r0, ip, r0
    232c:	9c010000 	stcls	0, cr0, [r1], {-0}
    2330:	0000009e 	muleq	r0, lr, r0
    2334:	00069205 	andeq	r9, r6, r5, lsl #4
    2338:	2c050100 	stfcss	f0, [r5], {-0}
    233c:	eb000000 	bl	2344 <_start-0x5cbc>
    2340:	00000012 	andeq	r0, r0, r2, lsl r0
    2344:	00025c06 	andeq	r5, r2, r6, lsl #24
    2348:	2c0b0100 	stfcss	f0, [fp], {-0}
    234c:	74000000 	strvc	r0, [r0], #-0
    2350:	1400008e 	strne	r0, [r0], #-142	; 0x8e
    2354:	01000000 	mrseq	r0, (UNDEF: 0)
    2358:	0000cb9c 	muleq	r0, ip, fp
    235c:	8e800700 	cdphi	7, 8, cr0, cr0, cr0, {0}
    2360:	01ca0000 	biceq	r0, sl, r0
    2364:	01080000 	mrseq	r0, (UNDEF: 8)
    2368:	040c0550 	streq	r0, [ip], #-1360	; 0x550
    236c:	00200030 	eoreq	r0, r0, r0, lsr r0
    2370:	06ae0600 	strteq	r0, [lr], r0, lsl #12
    2374:	10010000 	andne	r0, r1, r0
    2378:	0000002c 	andeq	r0, r0, ip, lsr #32
    237c:	00008e88 	andeq	r8, r0, r8, lsl #29
    2380:	0000000c 	andeq	r0, r0, ip
    2384:	00f99c01 	rscseq	r9, r9, r1, lsl #24
    2388:	75090000 	strvc	r0, [r9, #-0]
    238c:	2c140100 	ldfcss	f0, [r4], {-0}
    2390:	01000000 	mrseq	r0, (UNDEF: 0)
    2394:	8e900a50 	mrchi	10, 4, r0, cr0, cr0, {2}
    2398:	009e0000 	addseq	r0, lr, r0
    239c:	04000000 	streq	r0, [r0], #-0
    23a0:	000006a5 	andeq	r0, r0, r5, lsr #13
    23a4:	8e941901 	cdphi	9, 9, cr1, cr4, cr1, {0}
    23a8:	00240000 	eoreq	r0, r4, r0
    23ac:	9c010000 	stcls	0, cr0, [r1], {-0}
    23b0:	00000157 	andeq	r0, r0, r7, asr r1
    23b4:	0073750b 	rsbseq	r7, r3, fp, lsl #10
    23b8:	002c1901 	eoreq	r1, ip, r1, lsl #18
    23bc:	131f0000 	tstne	pc, #0
    23c0:	72090000 	andvc	r0, r9, #0
    23c4:	1a010062 	bne	42554 <__bss_end__+0x37f94>
    23c8:	0000002c 	andeq	r0, r0, ip, lsr #32
    23cc:	a40c5401 	strge	r5, [ip], #-1025	; 0x401
    23d0:	1000008e 	andne	r0, r0, lr, lsl #1
    23d4:	4d000000 	stcmi	0, cr0, [r0, #-0]
    23d8:	0d000001 	stceq	0, cr0, [r0, #-4]
    23dc:	01006172 	tsteq	r0, r2, ror r1
    23e0:	00002c1c 	andeq	r2, r0, ip, lsl ip
    23e4:	00133d00 	andseq	r3, r3, r0, lsl #26
    23e8:	8ea80a00 	vfmahi.f32	s0, s16, s0
    23ec:	00cb0000 	sbceq	r0, fp, r0
    23f0:	0a000000 	beq	23f8 <_start-0x5c08>
    23f4:	00008ea0 	andeq	r8, r0, r0, lsr #29
    23f8:	000000cb 	andeq	r0, r0, fp, asr #1
    23fc:	03290400 	teqeq	r9, #0, 8
    2400:	22010000 	andcs	r0, r1, #0
    2404:	00008eb8 			; <UNDEFINED> instruction: 0x00008eb8
    2408:	00000014 	andeq	r0, r0, r4, lsl r0
    240c:	01909c01 	orrseq	r9, r0, r1, lsl #24
    2410:	6d0b0000 	stcvs	0, cr0, [fp, #-0]
    2414:	22010073 	andcs	r0, r1, #115	; 0x73
    2418:	0000002c 	andeq	r0, r0, ip, lsr #32
    241c:	00001350 	andeq	r1, r0, r0, asr r3
    2420:	008ec807 	addeq	ip, lr, r7, lsl #16
    2424:	0000f900 	andeq	pc, r0, r0, lsl #18
    2428:	50010800 	andpl	r0, r1, r0, lsl #16
    242c:	5001f307 	andpl	pc, r1, r7, lsl #6
    2430:	1e03e80a 	cdpne	8, 0, cr14, cr3, cr10, {0}
    2434:	6f040000 	svcvs	0x00040000
    2438:	01000006 	tsteq	r0, r6
    243c:	008ecc25 	addeq	ip, lr, r5, lsr #24
    2440:	00001400 	andeq	r1, r0, r0, lsl #8
    2444:	ca9c0100 	bgt	fe70284c <__bss_end__+0xfe6f828c>
    2448:	0b000001 	bleq	2454 <_start-0x5bac>
    244c:	00636573 	rsbeq	r6, r3, r3, ror r5
    2450:	002c2501 	eoreq	r2, ip, r1, lsl #10
    2454:	13710000 	cmnne	r1, #0
    2458:	dc070000 	stcle	0, cr0, [r7], {-0}
    245c:	5700008e 	strpl	r0, [r0, -lr, lsl #1]
    2460:	08000001 	stmdaeq	r0, {r0}
    2464:	f3075001 	vhadd.u8	d5, d7, d1
    2468:	e80a5001 	stmda	sl, {r0, ip, lr}
    246c:	00001e03 	andeq	r1, r0, r3, lsl #28
    2470:	00068c0e 	andeq	r8, r6, lr, lsl #24
    2474:	2ca00200 	sfmcs	f0, 4, [r0]
    2478:	0f000000 	svceq	0x00000000
    247c:	0000002c 	andeq	r0, r0, ip, lsr #32
    2480:	08cf0000 	stmiaeq	pc, {}^	; <UNPREDICTABLE>
    2484:	00040000 	andeq	r0, r4, r0
    2488:	00000a46 	andeq	r0, r0, r6, asr #20
    248c:	03560104 	cmpeq	r6, #4, 2
    2490:	48010000 	stmdami	r1, {}	; <UNPREDICTABLE>
    2494:	d2000007 	andle	r0, r0, #7
    2498:	e0000004 	and	r0, r0, r4
    249c:	bc00008e 	stclt	0, cr0, [r0], {142}	; 0x8e
    24a0:	11000005 	tstne	r0, r5
    24a4:	0200000a 	andeq	r0, r0, #10
    24a8:	00620708 	rsbeq	r0, r2, r8, lsl #14
    24ac:	04020000 	streq	r0, [r2], #-0
    24b0:	00006c07 	andeq	r6, r0, r7, lsl #24
    24b4:	06010200 	streq	r0, [r1], -r0, lsl #4
    24b8:	00000306 	andeq	r0, r0, r6, lsl #6
    24bc:	12050202 	andne	r0, r5, #536870912	; 0x20000000
    24c0:	02000003 	andeq	r0, r0, #3
    24c4:	008e0504 	addeq	r0, lr, r4, lsl #10
    24c8:	08020000 	stmdaeq	r2, {}	; <UNPREDICTABLE>
    24cc:	00008905 	andeq	r8, r0, r5, lsl #18
    24d0:	08010200 	stmdaeq	r1, {r9}
    24d4:	00000304 	andeq	r0, r0, r4, lsl #6
    24d8:	67070202 	strvs	r0, [r7, -r2, lsl #4]
    24dc:	02000001 	andeq	r0, r0, #1
    24e0:	00670704 	rsbeq	r0, r7, r4, lsl #14
    24e4:	04030000 	streq	r0, [r3], #-0
    24e8:	746e6905 	strbtvc	r6, [lr], #-2309	; 0x905
    24ec:	07040200 	streq	r0, [r4, -r0, lsl #4]
    24f0:	000001fa 	strdeq	r0, [r0], -sl
    24f4:	0d080102 	stfeqs	f0, [r8, #-8]
    24f8:	04000003 	streq	r0, [r0], #-3
    24fc:	b20c0201 	andlt	r0, ip, #268435456	; 0x10000000
    2500:	05000000 	streq	r0, [r0, #-0]
    2504:	000006f4 	strdeq	r0, [r0], -r4
    2508:	08040500 	stmdaeq	r4, {r8, sl}
    250c:	05010000 	streq	r0, [r1, #-0]
    2510:	00000827 	andeq	r0, r0, r7, lsr #16
    2514:	08360504 	ldmdaeq	r6!, {r2, r8, sl}
    2518:	05050000 	streq	r0, [r5, #-0]
    251c:	00000845 	andeq	r0, r0, r5, asr #16
    2520:	08540506 	ldmdaeq	r4, {r1, r2, r8, sl}^
    2524:	05070000 	streq	r0, [r7, #-0]
    2528:	00000863 	andeq	r0, r0, r3, ror #16
    252c:	08720503 	ldmdaeq	r2!, {r0, r1, r8, sl}^
    2530:	00020000 	andeq	r0, r2, r0
    2534:	00081b06 	andeq	r1, r8, r6, lsl #22
    2538:	79150200 	ldmdbvc	r5, {r9}
    253c:	07000000 	streq	r0, [r0, -r0]
    2540:	0000043a 	andeq	r0, r0, sl, lsr r4
    2544:	8ee03f01 	cdphi	15, 14, cr3, cr0, cr1, {0}
    2548:	00d40000 	sbcseq	r0, r4, r0
    254c:	9c010000 	stcls	0, cr0, [r1], {-0}
    2550:	00000133 	andeq	r0, r0, r3, lsr r1
    2554:	6e697008 	cdpvs	0, 6, cr7, cr9, cr8, {0}
    2558:	2c3f0100 	ldfcss	f0, [pc], #-0	; 2560 <_start-0x5aa0>
    255c:	92000000 	andls	r0, r0, #0
    2560:	09000013 	stmdbeq	r0, {r0, r1, r4}
    2564:	0000073f 	andeq	r0, r0, pc, lsr r7
    2568:	01334701 	teqeq	r3, r1, lsl #14
    256c:	13b00000 	movsne	r0, #0
    2570:	81090000 	mrshi	r0, (UNDEF: 9)
    2574:	01000008 	tsteq	r0, r8
    2578:	00002c49 	andeq	r2, r0, r9, asr #24
    257c:	00140500 	andseq	r0, r4, r0, lsl #10
    2580:	07c50900 	strbeq	r0, [r5, r0, lsl #18]
    2584:	57010000 	strpl	r0, [r1, -r0]
    2588:	0000002c 	andeq	r0, r0, ip, lsr #32
    258c:	000015d1 	ldrdeq	r1, [r0], -r1	; <UNPREDICTABLE>
    2590:	008f740a 	addeq	r7, pc, sl, lsl #8
    2594:	00088e00 	andeq	r8, r8, r0, lsl #28
    2598:	00012200 	andeq	r2, r1, r0, lsl #4
    259c:	50010b00 	andpl	r0, r1, r0, lsl #22
    25a0:	00007502 	andeq	r7, r0, r2, lsl #10
    25a4:	008fa80c 	addeq	sl, pc, ip, lsl #16
    25a8:	0008af00 	andeq	sl, r8, r0, lsl #30
    25ac:	50010b00 	andpl	r0, r1, r0, lsl #22
    25b0:	00007502 	andeq	r7, r0, r2, lsl #10
    25b4:	39040d00 	stmdbcc	r4, {r8, sl, fp}
    25b8:	0e000001 	cdpeq	0, 0, cr0, cr0, cr1, {0}
    25bc:	0000002c 	andeq	r0, r0, ip, lsr #32
    25c0:	0007ea0f 	andeq	lr, r7, pc, lsl #20
    25c4:	03600100 	cmneq	r0, #0, 2
    25c8:	0000016c 	andeq	r0, r0, ip, ror #2
    25cc:	6e697010 	mcrvs	0, 3, r7, cr9, cr0, {0}
    25d0:	2c600100 	stfcse	f0, [r0], #-0
    25d4:	11000000 	mrsne	r0, (UNDEF: 0)
    25d8:	0000073f 	andeq	r0, r0, pc, lsr r7
    25dc:	01336701 	teqeq	r3, r1, lsl #14
    25e0:	c5110000 	ldrgt	r0, [r1, #-0]
    25e4:	01000007 	tsteq	r0, r7
    25e8:	00002c68 	andeq	r2, r0, r8, ror #24
    25ec:	3e120000 	cdpcc	0, 1, cr0, cr2, cr0, {0}
    25f0:	b4000001 	strlt	r0, [r0], #-1
    25f4:	3800008f 	stmdacc	r0, {r0, r1, r2, r3, r7}
    25f8:	01000000 	mrseq	r0, (UNDEF: 0)
    25fc:	0001b09c 	muleq	r1, ip, r0
    2600:	014a1300 	mrseq	r1, (UNDEF: 122)
    2604:	16010000 	strne	r0, [r1], -r0
    2608:	55140000 	ldrpl	r0, [r4, #-0]
    260c:	22000001 	andcs	r0, r0, #1
    2610:	14000016 	strne	r0, [r0], #-22
    2614:	00000160 	andeq	r0, r0, r0, ror #2
    2618:	00001658 	andeq	r1, r0, r8, asr r6
    261c:	008fe40c 	addeq	lr, pc, ip, lsl #8
    2620:	0008af00 	andeq	sl, r8, r0, lsl #30
    2624:	51010b00 	tstpl	r1, r0, lsl #22
    2628:	01f33107 	mvnseq	r3, r7, lsl #2
    262c:	241a4f50 	ldrcs	r4, [sl], #-3920	; 0xf50
    2630:	040f0000 	streq	r0, [pc], #-0	; 2638 <_start-0x59c8>
    2634:	01000007 	tsteq	r0, r7
    2638:	01de037b 	bicseq	r0, lr, fp, ror r3
    263c:	70100000 	andsvc	r0, r0, r0
    2640:	01006e69 	tsteq	r0, r9, ror #28
    2644:	00002c7b 	andeq	r2, r0, fp, ror ip
    2648:	073f1100 	ldreq	r1, [pc, -r0, lsl #2]!
    264c:	81010000 	mrshi	r0, (UNDEF: 1)
    2650:	00000133 	andeq	r0, r0, r3, lsr r1
    2654:	0007c511 	andeq	ip, r7, r1, lsl r5
    2658:	2c820100 	stfcss	f0, [r2], {0}
    265c:	00000000 	andeq	r0, r0, r0
    2660:	0001b012 	andeq	fp, r1, r2, lsl r0
    2664:	008fec00 	addeq	lr, pc, r0, lsl #24
    2668:	00003800 	andeq	r3, r0, r0, lsl #16
    266c:	229c0100 	addscs	r0, ip, #0, 2
    2670:	13000002 	movwne	r0, #2
    2674:	000001bc 			; <UNDEFINED> instruction: 0x000001bc
    2678:	00001698 	muleq	r0, r8, r6
    267c:	0001c714 	andeq	ip, r1, r4, lsl r7
    2680:	0016b900 	andseq	fp, r6, r0, lsl #18
    2684:	01d21400 	bicseq	r1, r2, r0, lsl #8
    2688:	16ef0000 	strbtne	r0, [pc], r0
    268c:	1c0c0000 	stcne	0, cr0, [ip], {-0}
    2690:	af000090 	svcge	0x00000090
    2694:	0b000008 	bleq	26bc <_start-0x5944>
    2698:	31075101 	tstcc	r7, r1, lsl #2
    269c:	4f5001f3 	svcmi	0x005001f3
    26a0:	0000241a 	andeq	r2, r0, sl, lsl r4
    26a4:	0003ad07 	andeq	sl, r3, r7, lsl #26
    26a8:	24950100 	ldrcs	r0, [r5], #256	; 0x100
    26ac:	cc000090 	stcgt	0, cr0, [r0], {144}	; 0x90
    26b0:	01000000 	mrseq	r0, (UNDEF: 0)
    26b4:	0002989c 	muleq	r2, ip, r8
    26b8:	69700800 	ldmdbvs	r0!, {fp}^
    26bc:	9501006e 	strls	r0, [r1, #-110]	; 0x6e
    26c0:	0000002c 	andeq	r0, r0, ip, lsr #32
    26c4:	0000172f 	andeq	r1, r0, pc, lsr #14
    26c8:	00073f09 	andeq	r3, r7, r9, lsl #30
    26cc:	339b0100 	orrscc	r0, fp, #0, 2
    26d0:	4d000001 	stcmi	0, cr0, [r0, #-4]
    26d4:	09000017 	stmdbeq	r0, {r0, r1, r2, r4}
    26d8:	00000881 	andeq	r0, r0, r1, lsl #17
    26dc:	002c9d01 	eoreq	r9, ip, r1, lsl #26
    26e0:	17a20000 	strne	r0, [r2, r0]!
    26e4:	c5090000 	strgt	r0, [r9, #-0]
    26e8:	01000007 	tsteq	r0, r7
    26ec:	00002cab 	andeq	r2, r0, fp, lsr #25
    26f0:	00196e00 	andseq	r6, r9, r0, lsl #28
    26f4:	90b80a00 	adcsls	r0, r8, r0, lsl #20
    26f8:	088e0000 	stmeq	lr, {}	; <UNPREDICTABLE>
    26fc:	02870000 	addeq	r0, r7, #0
    2700:	010b0000 	mrseq	r0, (UNDEF: 11)
    2704:	00750250 	rsbseq	r0, r5, r0, asr r2
    2708:	90e40c00 	rscls	r0, r4, r0, lsl #24
    270c:	08af0000 	stmiaeq	pc!, {}	; <UNPREDICTABLE>
    2710:	010b0000 	mrseq	r0, (UNDEF: 11)
    2714:	00750250 	rsbseq	r0, r5, r0, asr r2
    2718:	ce150000 	cdpgt	0, 1, cr0, cr5, cr0, {0}
    271c:	01000001 	tsteq	r0, r1
    2720:	000064b3 			; <UNDEFINED> instruction: 0x000064b3
    2724:	0090f000 	addseq	pc, r0, r0
    2728:	00004c00 	andeq	r4, r0, r0, lsl #24
    272c:	e09c0100 	adds	r0, ip, r0, lsl #2
    2730:	08000002 	stmdaeq	r0, {r1}
    2734:	006e6970 	rsbeq	r6, lr, r0, ror r9
    2738:	002cb301 	eoreq	fp, ip, r1, lsl #6
    273c:	198c0000 	stmibne	ip, {}	; <UNPREDICTABLE>
    2740:	76160000 	ldrvc	r0, [r6], -r0
    2744:	2cb90100 	ldfcss	f0, [r9]
    2748:	e4000000 	str	r0, [r0], #-0
    274c:	17000019 	smladne	r0, r9, r0, r0
    2750:	00009110 	andeq	r9, r0, r0, lsl r1
    2754:	0000088e 	andeq	r0, r0, lr, lsl #17
    2758:	00912017 	addseq	r2, r1, r7, lsl r0
    275c:	00088e00 	andeq	r8, r8, r0, lsl #28
    2760:	28070000 	stmdacs	r7, {}	; <UNPREDICTABLE>
    2764:	01000000 	mrseq	r0, (UNDEF: 0)
    2768:	00913cc5 	addseq	r3, r1, r5, asr #25
    276c:	00007800 	andeq	r7, r0, r0, lsl #16
    2770:	aa9c0100 	bge	fe702b78 <__bss_end__+0xfe6f85b8>
    2774:	08000003 	stmdaeq	r0, {r0, r1}
    2778:	006e6970 	rsbeq	r6, lr, r0, ror r9
    277c:	002cc501 	eoreq	ip, ip, r1, lsl #10
    2780:	1a1a0000 	bne	682788 <__bss_end__+0x6781c8>
    2784:	76080000 	strvc	r0, [r8], -r0
    2788:	2cc50100 	stfcse	f0, [r5], {0}
    278c:	54000000 	strpl	r0, [r0], #-0
    2790:	1800001a 	stmdane	r0, {r1, r3, r4}
    2794:	0000013e 	andeq	r0, r0, lr, lsr r1
    2798:	00009150 	andeq	r9, r0, r0, asr r1
    279c:	00000030 	andeq	r0, r0, r0, lsr r0
    27a0:	035fcc01 	cmpeq	pc, #256	; 0x100
    27a4:	4a130000 	bmi	4c27ac <__bss_end__+0x4b81ec>
    27a8:	8e000001 	cdphi	0, 0, cr0, cr0, cr1, {0}
    27ac:	1900001a 	stmdbne	r0, {r1, r3, r4}
    27b0:	00009150 	andeq	r9, r0, r0, asr r1
    27b4:	00000030 	andeq	r0, r0, r0, lsr r0
    27b8:	00015514 	andeq	r5, r1, r4, lsl r5
    27bc:	001aaf00 	andseq	sl, sl, r0, lsl #30
    27c0:	01601400 	cmneq	r0, r0, lsl #8
    27c4:	1ae50000 	bne	ff9427cc <__bss_end__+0xff93820c>
    27c8:	7c0c0000 	stcvc	0, cr0, [ip], {-0}
    27cc:	af000091 	svcge	0x00000091
    27d0:	0b000008 	bleq	27f8 <_start-0x5808>
    27d4:	31075101 	tstcc	r7, r1, lsl #2
    27d8:	4f5001f3 	svcmi	0x005001f3
    27dc:	0000241a 	andeq	r2, r0, sl, lsl r4
    27e0:	01b01a00 	lslseq	r1, r0, #20
    27e4:	91800000 	orrls	r0, r0, r0
    27e8:	00340000 	eorseq	r0, r4, r0
    27ec:	ce010000 	cdpgt	0, 0, cr0, cr1, cr0, {0}
    27f0:	0001bc13 	andeq	fp, r1, r3, lsl ip
    27f4:	001b2500 	andseq	r2, fp, r0, lsl #10
    27f8:	91801900 	orrls	r1, r0, r0, lsl #18
    27fc:	00340000 	eorseq	r0, r4, r0
    2800:	c7140000 	ldrgt	r0, [r4, -r0]
    2804:	46000001 	strmi	r0, [r0], -r1
    2808:	1400001b 	strne	r0, [r0], #-27
    280c:	000001d2 	ldrdeq	r0, [r0], -r2
    2810:	00001b7c 	andeq	r1, r0, ip, ror fp
    2814:	0091ac0c 	addseq	sl, r1, ip, lsl #24
    2818:	0008af00 	andeq	sl, r8, r0, lsl #30
    281c:	51010b00 	tstpl	r1, r0, lsl #22
    2820:	01f33107 	mvnseq	r3, r7, lsl #2
    2824:	241a4f50 	ldrcs	r4, [sl], #-3920	; 0xf50
    2828:	00000000 	andeq	r0, r0, r0
    282c:	00078907 	andeq	r8, r7, r7, lsl #18
    2830:	b4d10100 	ldrblt	r0, [r1], #256	; 0x100
    2834:	d8000091 	stmdale	r0, {r0, r4, r7}
    2838:	01000000 	mrseq	r0, (UNDEF: 0)
    283c:	00042f9c 	muleq	r4, ip, pc	; <UNPREDICTABLE>
    2840:	69700800 	ldmdbvs	r0!, {fp}^
    2844:	d101006e 	tstle	r1, lr, rrx
    2848:	0000002c 	andeq	r0, r0, ip, lsr #32
    284c:	00001bbc 			; <UNDEFINED> instruction: 0x00001bbc
    2850:	0007d71b 	andeq	sp, r7, fp, lsl r7
    2854:	b2d10100 	sbcslt	r0, r1, #0, 2
    2858:	da000000 	ble	2860 <_start-0x57a0>
    285c:	0900001b 	stmdbeq	r0, {r0, r1, r3, r4}
    2860:	0000073f 	andeq	r0, r0, pc, lsr r7
    2864:	0133d901 	teqeq	r3, r1, lsl #18
    2868:	1bfb0000 	blne	ffec2870 <__bss_end__+0xffeb82b0>
    286c:	81090000 	mrshi	r0, (UNDEF: 9)
    2870:	01000008 	tsteq	r0, r8
    2874:	00002cda 	ldrdeq	r2, [r0], -sl
    2878:	001c5000 	andseq	r5, ip, r0
    287c:	07c50900 	strbeq	r0, [r5, r0, lsl #18]
    2880:	e8010000 	stmda	r1, {}	; <UNPREDICTABLE>
    2884:	0000002c 	andeq	r0, r0, ip, lsr #32
    2888:	00001e1c 	andeq	r1, r0, ip, lsl lr
    288c:	0092500a 	addseq	r5, r2, sl
    2890:	00088e00 	andeq	r8, r8, r0, lsl #28
    2894:	00041e00 	andeq	r1, r4, r0, lsl #28
    2898:	50010b00 	andpl	r0, r1, r0, lsl #22
    289c:	00007602 	andeq	r7, r0, r2, lsl #12
    28a0:	0092800c 	addseq	r8, r2, ip
    28a4:	0008af00 	andeq	sl, r8, r0, lsl #30
    28a8:	50010b00 	andpl	r0, r1, r0, lsl #22
    28ac:	00007602 	andeq	r7, r0, r2, lsl #12
    28b0:	04881c00 	streq	r1, [r8], #3072	; 0xc00
    28b4:	05010000 	streq	r0, [r1, #-0]
    28b8:	00006401 	andeq	r6, r0, r1, lsl #8
    28bc:	00928c00 	addseq	r8, r2, r0, lsl #24
    28c0:	00002c00 	andeq	r2, r0, r0, lsl #24
    28c4:	639c0100 	orrsvs	r0, ip, #0, 2
    28c8:	1d000004 	stcne	0, cr0, [r0, #-16]
    28cc:	0000048b 	andeq	r0, r0, fp, lsl #9
    28d0:	2c010501 	cfstr32cs	mvfx0, [r1], {1}
    28d4:	4d000000 	stcmi	0, cr0, [r0, #-0]
    28d8:	1700001e 	smladne	r0, lr, r0, r0
    28dc:	0000929c 	muleq	r0, ip, r2
    28e0:	0000088e 	andeq	r0, r0, lr, lsl #17
    28e4:	01e51e00 	mvneq	r1, r0, lsl #28
    28e8:	14010000 	strne	r0, [r1], #-0
    28ec:	0092b801 	addseq	fp, r2, r1, lsl #16
    28f0:	00008400 	andeq	r8, r0, r0, lsl #8
    28f4:	279c0100 	ldrcs	r0, [ip, r0, lsl #2]
    28f8:	1f000005 	svcne	0x00000005
    28fc:	006e6970 	rsbeq	r6, lr, r0, ror r9
    2900:	2c011401 	cfstrscs	mvf1, [r1], {1}
    2904:	6e000000 	cdpvs	0, 0, cr0, cr0, cr0, {0}
    2908:	2000001e 	andcs	r0, r0, lr, lsl r0
    290c:	00000711 	andeq	r0, r0, r1, lsl r7
    2910:	2c012601 	stccs	6, cr2, [r1], {1}
    2914:	9a000000 	bls	291c <_start-0x56e4>
    2918:	2100001e 	tstcs	r0, lr, lsl r0
    291c:	000092d4 	ldrdeq	r9, [r0], -r4
    2920:	0000001c 	andeq	r0, r0, ip, lsl r0
    2924:	000004c9 	andeq	r0, r0, r9, asr #9
    2928:	0007c520 	andeq	ip, r7, r0, lsr #10
    292c:	011d0100 	tsteq	sp, r0, lsl #2
    2930:	0000002c 	andeq	r0, r0, ip, lsr #32
    2934:	00001eb8 			; <UNDEFINED> instruction: 0x00001eb8
    2938:	0092e017 	addseq	lr, r2, r7, lsl r0
    293c:	00088e00 	andeq	r8, r8, r0, lsl #28
    2940:	92f01700 	rscsls	r1, r0, #0, 14
    2944:	08af0000 	stmiaeq	pc!, {}	; <UNPREDICTABLE>
    2948:	21000000 	mrscs	r0, (UNDEF: 0)
    294c:	000092f4 	strdeq	r9, [r0], -r4
    2950:	00000020 	andeq	r0, r0, r0, lsr #32
    2954:	000004f9 	strdeq	r0, [r0], -r9
    2958:	0007c520 	andeq	ip, r7, r0, lsr #10
    295c:	01210100 	teqeq	r1, r0, lsl #2
    2960:	0000002c 	andeq	r0, r0, ip, lsr #32
    2964:	00001ed6 	ldrdeq	r1, [r0], -r6
    2968:	00930017 	addseq	r0, r3, r7, lsl r0
    296c:	00088e00 	andeq	r8, r8, r0, lsl #28
    2970:	93141700 	tstls	r4, #0, 14
    2974:	08af0000 	stmiaeq	pc!, {}	; <UNPREDICTABLE>
    2978:	17000000 	strne	r0, [r0, -r0]
    297c:	000092cc 	andeq	r9, r0, ip, asr #5
    2980:	000008cb 	andeq	r0, r0, fp, asr #17
    2984:	00931817 	addseq	r1, r3, r7, lsl r8
    2988:	0008cb00 	andeq	ip, r8, r0, lsl #22
    298c:	93241700 	teqls	r4, #0, 14
    2990:	088e0000 	stmeq	lr, {}	; <UNPREDICTABLE>
    2994:	30170000 	andscc	r0, r7, r0
    2998:	af000093 	svcge	0x00000093
    299c:	17000008 	strne	r0, [r0, -r8]
    29a0:	00009334 	andeq	r9, r0, r4, lsr r3
    29a4:	000008cb 	andeq	r0, r0, fp, asr #17
    29a8:	04721e00 	ldrbteq	r1, [r2], #-3584	; 0xe00
    29ac:	31010000 	mrscc	r0, (UNDEF: 1)
    29b0:	00933c01 	addseq	r3, r3, r1, lsl #24
    29b4:	00008400 	andeq	r8, r0, r0, lsl #8
    29b8:	eb9c0100 	bl	fe702dc0 <__bss_end__+0xfe6f8800>
    29bc:	1f000005 	svcne	0x00000005
    29c0:	006e6970 	rsbeq	r6, lr, r0, ror r9
    29c4:	2c013101 	stfcss	f3, [r1], {1}
    29c8:	f4000000 	vst4.8	{d0-d3}, [r0], r0
    29cc:	2000001e 	andcs	r0, r0, lr, lsl r0
    29d0:	00000711 	andeq	r0, r0, r1, lsl r7
    29d4:	2c014201 	sfmcs	f4, 4, [r1], {1}
    29d8:	20000000 	andcs	r0, r0, r0
    29dc:	2100001f 	tstcs	r0, pc, lsl r0
    29e0:	00009358 	andeq	r9, r0, r8, asr r3
    29e4:	0000001c 	andeq	r0, r0, ip, lsl r0
    29e8:	0000058d 	andeq	r0, r0, sp, lsl #11
    29ec:	0007c520 	andeq	ip, r7, r0, lsr #10
    29f0:	01390100 	teqeq	r9, r0, lsl #2
    29f4:	0000002c 	andeq	r0, r0, ip, lsr #32
    29f8:	00001f3e 	andeq	r1, r0, lr, lsr pc
    29fc:	00936417 	addseq	r6, r3, r7, lsl r4
    2a00:	00088e00 	andeq	r8, r8, r0, lsl #28
    2a04:	93741700 	cmnls	r4, #0, 14
    2a08:	08af0000 	stmiaeq	pc!, {}	; <UNPREDICTABLE>
    2a0c:	21000000 	mrscs	r0, (UNDEF: 0)
    2a10:	00009378 	andeq	r9, r0, r8, ror r3
    2a14:	00000020 	andeq	r0, r0, r0, lsr #32
    2a18:	000005bd 			; <UNDEFINED> instruction: 0x000005bd
    2a1c:	0007c520 	andeq	ip, r7, r0, lsr #10
    2a20:	013d0100 	teqeq	sp, r0, lsl #2
    2a24:	0000002c 	andeq	r0, r0, ip, lsr #32
    2a28:	00001f5c 	andeq	r1, r0, ip, asr pc
    2a2c:	00938417 	addseq	r8, r3, r7, lsl r4
    2a30:	00088e00 	andeq	r8, r8, r0, lsl #28
    2a34:	93981700 	orrsls	r1, r8, #0, 14
    2a38:	08af0000 	stmiaeq	pc!, {}	; <UNPREDICTABLE>
    2a3c:	17000000 	strne	r0, [r0, -r0]
    2a40:	00009350 	andeq	r9, r0, r0, asr r3
    2a44:	000008cb 	andeq	r0, r0, fp, asr #17
    2a48:	00939c17 	addseq	r9, r3, r7, lsl ip
    2a4c:	0008cb00 	andeq	ip, r8, r0, lsl #22
    2a50:	93a81700 			; <UNDEFINED> instruction: 0x93a81700
    2a54:	088e0000 	stmeq	lr, {}	; <UNPREDICTABLE>
    2a58:	b4170000 	ldrlt	r0, [r7], #-0
    2a5c:	af000093 	svcge	0x00000093
    2a60:	17000008 	strne	r0, [r0, -r8]
    2a64:	000093b8 			; <UNDEFINED> instruction: 0x000093b8
    2a68:	000008cb 	andeq	r0, r0, fp, asr #17
    2a6c:	06bd1c00 	ldrteq	r1, [sp], r0, lsl #24
    2a70:	4c010000 	stcmi	0, cr0, [r1], {-0}
    2a74:	00006401 	andeq	r6, r0, r1, lsl #8
    2a78:	0093c000 	addseq	ip, r3, r0
    2a7c:	00008400 	andeq	r8, r0, r0, lsl #8
    2a80:	919c0100 	orrsls	r0, ip, r0, lsl #2
    2a84:	1f000006 	svcne	0x00000006
    2a88:	006e6970 	rsbeq	r6, lr, r0, ror r9
    2a8c:	2c014c01 	stccs	12, cr4, [r1], {1}
    2a90:	7a000000 	bvc	2a98 <_start-0x5568>
    2a94:	2100001f 	tstcs	r0, pc, lsl r0
    2a98:	000093dc 	ldrdeq	r9, [r0], -ip
    2a9c:	00000024 	andeq	r0, r0, r4, lsr #32
    2aa0:	00000645 	andeq	r0, r0, r5, asr #12
    2aa4:	00072820 	andeq	r2, r7, r0, lsr #16
    2aa8:	01530100 	cmpeq	r3, r0, lsl #2
    2aac:	0000002c 	andeq	r0, r0, ip, lsr #32
    2ab0:	00001fbc 			; <UNDEFINED> instruction: 0x00001fbc
    2ab4:	0093e817 	addseq	lr, r3, r7, lsl r8
    2ab8:	00088e00 	andeq	r8, r8, r0, lsl #28
    2abc:	93f81700 	mvnsls	r1, #0, 14
    2ac0:	08cb0000 	stmiaeq	fp, {}^	; <UNPREDICTABLE>
    2ac4:	21000000 	mrscs	r0, (UNDEF: 0)
    2ac8:	00009400 	andeq	r9, r0, r0, lsl #8
    2acc:	0000002c 	andeq	r0, r0, ip, lsr #32
    2ad0:	0000067e 	andeq	r0, r0, lr, ror r6
    2ad4:	00072820 	andeq	r2, r7, r0, lsr #16
    2ad8:	01560100 	cmpeq	r6, r0, lsl #2
    2adc:	0000002c 	andeq	r0, r0, ip, lsr #32
    2ae0:	00001fd6 	ldrdeq	r1, [r0], -r6
    2ae4:	00940c17 	addseq	r0, r4, r7, lsl ip
    2ae8:	00088e00 	andeq	r8, r8, r0, lsl #28
    2aec:	94181700 	ldrls	r1, [r8], #-1792	; 0x700
    2af0:	08cb0000 	stmiaeq	fp, {}^	; <UNPREDICTABLE>
    2af4:	24170000 	ldrcs	r0, [r7], #-0
    2af8:	cb000094 	blgt	2d50 <_start-0x52b0>
    2afc:	00000008 	andeq	r0, r0, r8
    2b00:	0093d417 	addseq	sp, r3, r7, lsl r4
    2b04:	0008cb00 	andeq	ip, r8, r0, lsl #22
    2b08:	94301700 	ldrtls	r1, [r0], #-1792	; 0x700
    2b0c:	08cb0000 	stmiaeq	fp, {}^	; <UNPREDICTABLE>
    2b10:	1e000000 	cdpne	0, 0, cr0, cr0, cr0, {0}
    2b14:	00000143 	andeq	r0, r0, r3, asr #2
    2b18:	44015f01 	strmi	r5, [r1], #-3841	; 0xf01
    2b1c:	58000094 	stmdapl	r0, {r2, r4, r7}
    2b20:	01000000 	mrseq	r0, (UNDEF: 0)
    2b24:	0006f69c 	muleq	r6, ip, r6
    2b28:	69701f00 	ldmdbvs	r0!, {r8, r9, sl, fp, ip}^
    2b2c:	5f01006e 	svcpl	0x0001006e
    2b30:	00002c01 	andeq	r2, r0, r1, lsl #24
    2b34:	001fe900 	andseq	lr, pc, r0, lsl #18
    2b38:	94581700 	ldrbls	r1, [r8], #-1792	; 0x700
    2b3c:	08cb0000 	stmiaeq	fp, {}^	; <UNPREDICTABLE>
    2b40:	740a0000 	strvc	r0, [sl], #-0
    2b44:	af000094 	svcge	0x00000094
    2b48:	d6000008 	strle	r0, [r0], -r8
    2b4c:	0b000006 	bleq	2b6c <_start-0x5494>
    2b50:	31045101 	tstcc	r4, r1, lsl #2
    2b54:	00240074 	eoreq	r0, r4, r4, ror r0
    2b58:	0094900a 	addseq	r9, r4, sl
    2b5c:	0008af00 	andeq	sl, r8, r0, lsl #30
    2b60:	0006ec00 	andeq	lr, r6, r0, lsl #24
    2b64:	51010b00 	tstpl	r1, r0, lsl #22
    2b68:	00743104 	rsbseq	r3, r4, r4, lsl #2
    2b6c:	94170024 	ldrls	r0, [r7], #-36	; 0x24
    2b70:	cb000094 	blgt	2dc8 <_start-0x5238>
    2b74:	00000008 	andeq	r0, r0, r8
    2b78:	00077722 	andeq	r7, r7, r2, lsr #14
    2b7c:	33280100 	teqcc	r8, #0, 2
    2b80:	05000001 	streq	r0, [r0, #-1]
    2b84:	00997003 	addseq	r7, r9, r3
    2b88:	07cd2200 	strbeq	r2, [sp, r0, lsl #4]
    2b8c:	29010000 	stmdbcs	r1, {}	; <UNPREDICTABLE>
    2b90:	00000133 	andeq	r0, r0, r3, lsr r1
    2b94:	996c0305 	stmdbls	ip!, {r0, r2, r8, r9}^
    2b98:	8c220000 	stchi	0, cr0, [r2], #-0
    2b9c:	01000008 	tsteq	r0, r8
    2ba0:	0001332a 	andeq	r3, r1, sl, lsr #6
    2ba4:	68030500 	stmdavs	r3, {r8, sl}
    2ba8:	22000099 	andcs	r0, r0, #153	; 0x99
    2bac:	0000074f 	andeq	r0, r0, pc, asr #14
    2bb0:	01332c01 	teqeq	r3, r1, lsl #24
    2bb4:	03050000 	movweq	r0, #20480	; 0x5000
    2bb8:	00009914 	andeq	r9, r0, r4, lsl r9
    2bbc:	00075722 	andeq	r5, r7, r2, lsr #14
    2bc0:	332d0100 	teqcc	sp, #0, 2
    2bc4:	05000001 	streq	r0, [r0, #-1]
    2bc8:	00991803 	addseq	r1, r9, r3, lsl #16
    2bcc:	06d72200 	ldrbeq	r2, [r7], r0, lsl #4
    2bd0:	2e010000 	cdpcs	0, 0, cr0, cr1, cr0, {0}
    2bd4:	00000133 	andeq	r0, r0, r3, lsr r1
    2bd8:	991c0305 	ldmdbls	ip, {r0, r2, r8, r9}
    2bdc:	5f220000 	svcpl	0x00220000
    2be0:	01000007 	tsteq	r0, r7
    2be4:	0001332f 	andeq	r3, r1, pc, lsr #6
    2be8:	20030500 	andcs	r0, r3, r0, lsl #10
    2bec:	22000099 	andcs	r0, r0, #153	; 0x99
    2bf0:	00000767 	andeq	r0, r0, r7, ror #14
    2bf4:	01333001 	teqeq	r3, r1
    2bf8:	03050000 	movweq	r0, #20480	; 0x5000
    2bfc:	00009924 	andeq	r9, r0, r4, lsr #18
    2c00:	00076f22 	andeq	r6, r7, r2, lsr #30
    2c04:	33310100 	teqcc	r1, #0, 2
    2c08:	05000001 	streq	r0, [r0, #-1]
    2c0c:	00992803 	addseq	r2, r9, r3, lsl #16
    2c10:	071a2200 	ldreq	r2, [sl, -r0, lsl #4]
    2c14:	33010000 	movwcc	r0, #4096	; 0x1000
    2c18:	00000133 	andeq	r0, r0, r3, lsr r1
    2c1c:	992c0305 	stmdbls	ip!, {r0, r2, r8, r9}
    2c20:	21220000 	teqcs	r2, r0
    2c24:	01000007 	tsteq	r0, r7
    2c28:	00013334 	andeq	r3, r1, r4, lsr r3
    2c2c:	30030500 	andcc	r0, r3, r0, lsl #10
    2c30:	22000099 	andcs	r0, r0, #153	; 0x99
    2c34:	000006df 	ldrdeq	r0, [r0], -pc	; <UNPREDICTABLE>
    2c38:	01333601 	teqeq	r3, r1, lsl #12
    2c3c:	03050000 	movweq	r0, #20480	; 0x5000
    2c40:	00009934 	andeq	r9, r0, r4, lsr r9
    2c44:	00078222 	andeq	r8, r7, r2, lsr #4
    2c48:	33370100 	teqcc	r7, #0, 2
    2c4c:	05000001 	streq	r0, [r0, #-1]
    2c50:	00993803 	addseq	r3, r9, r3, lsl #16
    2c54:	07312200 	ldreq	r2, [r1, -r0, lsl #4]!
    2c58:	39010000 	stmdbcc	r1, {}	; <UNPREDICTABLE>
    2c5c:	00000133 	andeq	r0, r0, r3, lsr r1
    2c60:	993c0305 	ldmdbls	ip!, {r0, r2, r8, r9}
    2c64:	38220000 	stmdacc	r2!, {}	; <UNPREDICTABLE>
    2c68:	01000007 	tsteq	r0, r7
    2c6c:	0001333a 	andeq	r3, r1, sl, lsr r3
    2c70:	40030500 	andmi	r0, r3, r0, lsl #10
    2c74:	22000099 	andcs	r0, r0, #153	; 0x99
    2c78:	000007a9 	andeq	r0, r0, r9, lsr #15
    2c7c:	0133f001 	teqeq	r3, r1
    2c80:	03050000 	movweq	r0, #20480	; 0x5000
    2c84:	00009964 	andeq	r9, r0, r4, ror #18
    2c88:	0007b722 	andeq	fp, r7, r2, lsr #14
    2c8c:	33f10100 	mvnscc	r0, #0, 2
    2c90:	05000001 	streq	r0, [r0, #-1]
    2c94:	00994403 	addseq	r4, r9, r3, lsl #8
    2c98:	07dc2200 	ldrbeq	r2, [ip, r0, lsl #4]
    2c9c:	f3010000 	vhadd.u8	d0, d1, d0
    2ca0:	00000133 	andeq	r0, r0, r3, lsr r1
    2ca4:	995c0305 	ldmdbls	ip, {r0, r2, r8, r9}^
    2ca8:	e3220000 	teq	r2, #0
    2cac:	01000007 	tsteq	r0, r7
    2cb0:	000133f4 	strdeq	r3, [r1], -r4
    2cb4:	60030500 	andvs	r0, r3, r0, lsl #10
    2cb8:	22000099 	andcs	r0, r0, #153	; 0x99
    2cbc:	0000079b 	muleq	r0, fp, r7
    2cc0:	0133f601 	teqeq	r3, r1, lsl #12
    2cc4:	03050000 	movweq	r0, #20480	; 0x5000
    2cc8:	00009948 	andeq	r9, r0, r8, asr #18
    2ccc:	0007a222 	andeq	sl, r7, r2, lsr #4
    2cd0:	33f70100 	mvnscc	r0, #0, 2
    2cd4:	05000001 	streq	r0, [r0, #-1]
    2cd8:	00994c03 	addseq	r4, r9, r3, lsl #24
    2cdc:	07f62200 	ldrbeq	r2, [r6, r0, lsl #4]!
    2ce0:	f9010000 			; <UNDEFINED> instruction: 0xf9010000
    2ce4:	00000133 	andeq	r0, r0, r3, lsr r1
    2ce8:	99540305 	ldmdbls	r4, {r0, r2, r8, r9}^
    2cec:	fd220000 	stc2	0, cr0, [r2, #-0]
    2cf0:	01000007 	tsteq	r0, r7
    2cf4:	000133fa 	strdeq	r3, [r1], -sl
    2cf8:	58030500 	stmdapl	r3, {r8, sl}
    2cfc:	22000099 	andcs	r0, r0, #153	; 0x99
    2d00:	000006e6 	andeq	r0, r0, r6, ror #13
    2d04:	0133fc01 	teqeq	r3, r1, lsl #24
    2d08:	03050000 	movweq	r0, #20480	; 0x5000
    2d0c:	00009950 	andeq	r9, r0, r0, asr r9
    2d10:	00081523 	andeq	r1, r8, r3, lsr #10
    2d14:	2c200100 	stfcss	f0, [r0], #-0
    2d18:	a3000000 	movwge	r0, #0
    2d1c:	24000008 	strcs	r0, [r0], #-8
    2d20:	000008a3 	andeq	r0, r0, r3, lsr #17
    2d24:	a9040d00 	stmdbge	r4, {r8, sl, fp}
    2d28:	25000008 	strcs	r0, [r0, #-8]
    2d2c:	000008ae 	andeq	r0, r0, lr, lsr #17
    2d30:	06d12726 	ldrbeq	r2, [r1], r6, lsr #14
    2d34:	1e010000 	cdpne	0, 0, cr0, cr1, cr0, {0}
    2d38:	000008c5 	andeq	r0, r0, r5, asr #17
    2d3c:	0008c524 	andeq	ip, r8, r4, lsr #10
    2d40:	002c2400 	eoreq	r2, ip, r0, lsl #8
    2d44:	0d000000 	stceq	0, cr0, [r0, #-0]
    2d48:	0008ae04 	andeq	sl, r8, r4, lsl #28
    2d4c:	01012800 	tsteq	r1, r0, lsl #16
    2d50:	84030000 	strhi	r0, [r3], #-0
    2d54:	00055600 	andeq	r5, r5, r0, lsl #12
    2d58:	89000400 	stmdbhi	r0, {sl}
    2d5c:	0400000c 	streq	r0, [r0], #-12
    2d60:	00035601 	andeq	r5, r3, r1, lsl #12
    2d64:	09510100 	ldmdbeq	r1, {r8}^
    2d68:	04d20000 	ldrbeq	r0, [r2], #0
    2d6c:	949c0000 	ldrls	r0, [ip], #0
    2d70:	01d00000 	bicseq	r0, r0, r0
    2d74:	0b0e0000 	bleq	382d7c <__bss_end__+0x3787bc>
    2d78:	04020000 	streq	r0, [r2], #-0
    2d7c:	746e6905 	strbtvc	r6, [lr], #-2309	; 0x905
    2d80:	07040300 	streq	r0, [r4, -r0, lsl #6]
    2d84:	0000006c 	andeq	r0, r0, ip, rrx
    2d88:	06060103 	streq	r0, [r6], -r3, lsl #2
    2d8c:	03000003 	movweq	r0, #3
    2d90:	03120502 	tsteq	r2, #8388608	; 0x800000
    2d94:	04030000 	streq	r0, [r3], #-0
    2d98:	00008e05 	andeq	r8, r0, r5, lsl #28
    2d9c:	05080300 	streq	r0, [r8, #-768]	; 0x300
    2da0:	00000089 	andeq	r0, r0, r9, lsl #1
    2da4:	04080103 	streq	r0, [r8], #-259	; 0x103
    2da8:	03000003 	movweq	r0, #3
    2dac:	01670702 	cmneq	r7, r2, lsl #14
    2db0:	04030000 	streq	r0, [r3], #-0
    2db4:	00006707 	andeq	r6, r0, r7, lsl #14
    2db8:	07080300 	streq	r0, [r8, -r0, lsl #6]
    2dbc:	00000062 	andeq	r0, r0, r2, rrx
    2dc0:	fa070403 	blx	1c3dd4 <__bss_end__+0x1b9814>
    2dc4:	03000001 	movweq	r0, #1
    2dc8:	030d0801 	movweq	r0, #55297	; 0xd801
    2dcc:	04040000 	streq	r0, [r4], #-0
    2dd0:	0000007f 	andeq	r0, r0, pc, ror r0
    2dd4:	00007205 	andeq	r7, r0, r5, lsl #4
    2dd8:	00720600 	rsbseq	r0, r2, r0, lsl #12
    2ddc:	00940000 	addseq	r0, r4, r0
    2de0:	6b070000 	blvs	1c2de8 <__bss_end__+0x1b8828>
    2de4:	19000000 	stmdbne	r0, {}	; <UNPREDICTABLE>
    2de8:	03040800 	movweq	r0, #18432	; 0x4800
    2dec:	00010b14 	andeq	r0, r1, r4, lsl fp
    2df0:	09f70900 	ldmibeq	r7!, {r8, fp}^
    2df4:	e4800000 	str	r0, [r0], #0
    2df8:	09028082 	stmdbeq	r2, {r1, r7, pc}
    2dfc:	000008dc 	ldrdeq	r0, [r0], -ip
    2e00:	8082e480 	addhi	lr, r2, r0, lsl #9
    2e04:	09710902 	ldmdbeq	r1!, {r1, r8, fp}^
    2e08:	e4840000 	str	r0, [r4], #0
    2e0c:	09028082 	stmdbeq	r2, {r1, r7, pc}
    2e10:	00000943 	andeq	r0, r0, r3, asr #18
    2e14:	8082e488 	addhi	lr, r2, r8, lsl #9
    2e18:	08bf0902 	ldmeq	pc!, {r1, r8, fp}	; <UNPREDICTABLE>
    2e1c:	e48c0000 	str	r0, [ip], #0
    2e20:	09028082 	stmdbeq	r2, {r1, r7, pc}
    2e24:	00000900 	andeq	r0, r0, r0, lsl #18
    2e28:	8082e490 	umullhi	lr, r2, r0, r4
    2e2c:	090e0902 	stmdbeq	lr, {r1, r8, fp}
    2e30:	e4940000 	ldr	r0, [r4], #0
    2e34:	09028082 	stmdbeq	r2, {r1, r7, pc}
    2e38:	000008ee 	andeq	r0, r0, lr, ror #17
    2e3c:	8082e498 	umullhi	lr, r2, r8, r4
    2e40:	09c30902 	stmibeq	r3, {r1, r8, fp}^
    2e44:	e49c0000 	ldr	r0, [ip], #0
    2e48:	09028082 	stmdbeq	r2, {r1, r7, pc}
    2e4c:	000009d2 	ldrdeq	r0, [r0], -r2
    2e50:	8082e4a0 	addhi	lr, r2, r0, lsr #9
    2e54:	08ac0902 	stmiaeq	ip!, {r1, r8, fp}
    2e58:	e4a40000 	strt	r0, [r4], #0
    2e5c:	00028082 	andeq	r8, r2, r2, lsl #1
    2e60:	00024e0a 	andeq	r4, r2, sl, lsl #28
    2e64:	9c050100 	stflss	f0, [r5], {-0}
    2e68:	68000094 	stmdavs	r0, {r2, r4, r7}
    2e6c:	01000000 	mrseq	r0, (UNDEF: 0)
    2e70:	0001b79c 	muleq	r1, ip, r7
    2e74:	08cb0b00 	stmiaeq	fp, {r8, r9, fp}^
    2e78:	11010000 	mrsne	r0, (UNDEF: 1)
    2e7c:	0000002c 	andeq	r0, r0, ip, lsr #32
    2e80:	00091c0b 	andeq	r1, r9, fp, lsl #24
    2e84:	2c120100 	ldfcss	f0, [r2], {-0}
    2e88:	0c000000 	stceq	0, cr0, [r0], {-0}
    2e8c:	00747364 	rsbseq	r7, r4, r4, ror #6
    2e90:	01b71601 			; <UNDEFINED> instruction: 0x01b71601
    2e94:	0d000000 	stceq	0, cr0, [r0, #-0]
    2e98:	00637273 	rsbeq	r7, r3, r3, ror r2
    2e9c:	01b71701 			; <UNDEFINED> instruction: 0x01b71701
    2ea0:	6e0e0000 	cdpvs	0, 0, cr0, cr14, cr0, {0}
    2ea4:	2c180100 	ldfcss	f0, [r8], {-0}
    2ea8:	01000000 	mrseq	r0, (UNDEF: 0)
    2eac:	94cc0f50 	strbls	r0, [ip], #3920	; 0xf50
    2eb0:	00240000 	eoreq	r0, r4, r0
    2eb4:	01730000 	cmneq	r3, r0
    2eb8:	69100000 	ldmdbvs	r0, {}	; <UNPREDICTABLE>
    2ebc:	25190100 	ldrcs	r0, [r9, #-256]	; 0x100
    2ec0:	15000000 	strne	r0, [r0, #-0]
    2ec4:	00000020 	andeq	r0, r0, r0, lsr #32
    2ec8:	0094ac11 	addseq	sl, r4, r1, lsl ip
    2ecc:	00051f00 	andeq	r1, r5, r0, lsl #30
    2ed0:	00019000 	andeq	r9, r1, r0
    2ed4:	51011200 	mrspl	r1, R9_usr
    2ed8:	12ff0902 	rscsne	r0, pc, #32768	; 0x8000
    2edc:	0c055001 	stceq	0, cr5, [r5], {1}
    2ee0:	2000b21c 	andcs	fp, r0, ip, lsl r2
    2ee4:	94b81100 	ldrtls	r1, [r8], #256	; 0x100
    2ee8:	051f0000 	ldreq	r0, [pc, #-0]	; 2ef0 <_start-0x5110>
    2eec:	01ad0000 			; <UNDEFINED> instruction: 0x01ad0000
    2ef0:	01120000 	tsteq	r2, r0
    2ef4:	ff090251 			; <UNDEFINED> instruction: 0xff090251
    2ef8:	05500112 	ldrbeq	r0, [r0, #-274]	; 0x112
    2efc:	00b2200c 	adcseq	r2, r2, ip
    2f00:	bc130020 	ldclt	0, cr0, [r3], {32}
    2f04:	35000094 	strcc	r0, [r0, #-148]	; 0x94
    2f08:	00000005 	andeq	r0, r0, r5
    2f0c:	002c0404 	eoreq	r0, ip, r4, lsl #8
    2f10:	e10a0000 	mrs	r0, (UNDEF: 10)
    2f14:	01000009 	tsteq	r0, r9
    2f18:	0095041f 	addseq	r0, r5, pc, lsl r4
    2f1c:	00003c00 	andeq	r3, r0, r0, lsl #24
    2f20:	3a9c0100 	bcc	fe703328 <__bss_end__+0xfe6f8d68>
    2f24:	14000002 	strne	r0, [r0], #-2
    2f28:	01006370 	tsteq	r0, r0, ror r3
    2f2c:	00002c1f 	andeq	r2, r0, pc, lsl ip
    2f30:	00203400 	eoreq	r3, r0, r0, lsl #8
    2f34:	01541500 	cmpeq	r4, r0, lsl #10
    2f38:	024a0000 	subeq	r0, sl, #0
    2f3c:	03050000 	movweq	r0, #20480	; 0x5000
    2f40:	00009c64 	andeq	r9, r0, r4, ror #24
    2f44:	00952c11 	addseq	r2, r5, r1, lsl ip
    2f48:	00053c00 	andeq	r3, r5, r0, lsl #24
    2f4c:	00023000 	andeq	r3, r2, r0
    2f50:	53011200 	movwpl	r1, #4608	; 0x1200
    2f54:	12200802 	eorne	r0, r0, #131072	; 0x20000
    2f58:	03055201 	movweq	r5, #20993	; 0x5201
    2f5c:	00009c64 	andeq	r9, r0, r4, ror #24
    2f60:	05510112 	ldrbeq	r0, [r1, #-274]	; 0x112
    2f64:	009d3003 	addseq	r3, sp, r3
    2f68:	50011200 	andpl	r1, r1, r0, lsl #4
    2f6c:	9cf40305 	ldclls	3, cr0, [r4], #20
    2f70:	02120000 	andseq	r0, r2, #0
    2f74:	f303047d 	vqshl.u8	q0, <illegal reg q14.5>, <illegal reg q1.5>
    2f78:	02125001 	andseq	r5, r2, #1
    2f7c:	0305007d 	movweq	r0, #20605	; 0x507d
    2f80:	00009d50 	andeq	r9, r0, r0, asr sp
    2f84:	95301300 	ldrls	r1, [r0, #-768]!	; 0x300
    2f88:	05520000 	ldrbeq	r0, [r2, #-0]
    2f8c:	06000000 	streq	r0, [r0], -r0
    2f90:	00000072 	andeq	r0, r0, r2, ror r0
    2f94:	0000024a 	andeq	r0, r0, sl, asr #4
    2f98:	00006b07 	andeq	r6, r0, r7, lsl #22
    2f9c:	05001500 	streq	r1, [r0, #-1280]	; 0x500
    2fa0:	0000023a 	andeq	r0, r0, sl, lsr r2
    2fa4:	0009a90a 	andeq	sl, r9, sl, lsl #18
    2fa8:	40240100 	eormi	r0, r4, r0, lsl #2
    2fac:	3c000095 	stccc	0, cr0, [r0], {149}	; 0x95
    2fb0:	01000000 	mrseq	r0, (UNDEF: 0)
    2fb4:	0002cc9c 	muleq	r2, ip, ip
    2fb8:	63701400 	cmnvs	r0, #0, 8
    2fbc:	2c240100 	stfcss	f0, [r4], #-0
    2fc0:	61000000 	mrsvs	r0, (UNDEF: 0)
    2fc4:	15000020 	strne	r0, [r0, #-32]
    2fc8:	00000154 	andeq	r0, r0, r4, asr r1
    2fcc:	000002cc 	andeq	r0, r0, ip, asr #5
    2fd0:	9c7c0305 	ldclls	3, cr0, [ip], #-20	; 0xffffffec
    2fd4:	68110000 	ldmdavs	r1, {}	; <UNPREDICTABLE>
    2fd8:	3c000095 	stccc	0, cr0, [r0], {149}	; 0x95
    2fdc:	c2000005 	andgt	r0, r0, #5
    2fe0:	12000002 	andne	r0, r0, #2
    2fe4:	08025301 	stmdaeq	r2, {r0, r8, r9, ip, lr}
    2fe8:	52011225 	andpl	r1, r1, #1342177282	; 0x50000002
    2fec:	9c7c0305 	ldclls	3, cr0, [ip], #-20	; 0xffffffec
    2ff0:	01120000 	tsteq	r2, r0
    2ff4:	30030551 	andcc	r0, r3, r1, asr r5
    2ff8:	1200009d 	andne	r0, r0, #157	; 0x9d
    2ffc:	03055001 	movweq	r5, #20481	; 0x5001
    3000:	00009cf4 	strdeq	r9, [r0], -r4
    3004:	047d0212 	ldrbteq	r0, [sp], #-530	; 0x212
    3008:	5001f303 	andpl	pc, r1, r3, lsl #6
    300c:	007d0212 	rsbseq	r0, sp, r2, lsl r2
    3010:	9d580305 	ldclls	3, cr0, [r8, #-20]	; 0xffffffec
    3014:	13000000 	movwne	r0, #0
    3018:	0000956c 	andeq	r9, r0, ip, ror #10
    301c:	00000552 	andeq	r0, r0, r2, asr r5
    3020:	00840500 	addeq	r0, r4, r0, lsl #10
    3024:	9c0a0000 	stcls	0, cr0, [sl], {-0}
    3028:	01000009 	tsteq	r0, r9
    302c:	00957c27 	addseq	r7, r5, r7, lsr #24
    3030:	00003c00 	andeq	r3, r0, r0, lsl #24
    3034:	4e9c0100 	fmlmie	f0, f4, f0
    3038:	14000003 	strne	r0, [r0], #-3
    303c:	01006370 	tsteq	r0, r0, ror r3
    3040:	00002c27 	andeq	r2, r0, r7, lsr #24
    3044:	00208e00 	eoreq	r8, r0, r0, lsl #28
    3048:	01541500 	cmpeq	r4, r0, lsl #10
    304c:	035e0000 	cmpeq	lr, #0
    3050:	03050000 	movweq	r0, #20480	; 0x5000
    3054:	00009c98 	muleq	r0, r8, ip
    3058:	0095a411 	addseq	sl, r5, r1, lsl r4
    305c:	00053c00 	andeq	r3, r5, r0, lsl #24
    3060:	00034400 	andeq	r4, r3, r0, lsl #8
    3064:	53011200 	movwpl	r1, #4608	; 0x1200
    3068:	12280802 	eorne	r0, r8, #131072	; 0x20000
    306c:	03055201 	movweq	r5, #20993	; 0x5201
    3070:	00009c98 	muleq	r0, r8, ip
    3074:	05510112 	ldrbeq	r0, [r1, #-274]	; 0x112
    3078:	009d3003 	addseq	r3, sp, r3
    307c:	50011200 	andpl	r1, r1, r0, lsl #4
    3080:	9cf40305 	ldclls	3, cr0, [r4], #20
    3084:	02120000 	andseq	r0, r2, #0
    3088:	f303047d 	vqshl.u8	q0, <illegal reg q14.5>, <illegal reg q1.5>
    308c:	02125001 	andseq	r5, r2, #1
    3090:	0305007d 	movweq	r0, #20605	; 0x507d
    3094:	00009d68 	andeq	r9, r0, r8, ror #26
    3098:	95a81300 	strls	r1, [r8, #768]!	; 0x300
    309c:	05520000 	ldrbeq	r0, [r2, #-0]
    30a0:	06000000 	streq	r0, [r0], -r0
    30a4:	00000072 	andeq	r0, r0, r2, ror r0
    30a8:	0000035e 	andeq	r0, r0, lr, asr r3
    30ac:	00006b07 	andeq	r6, r0, r7, lsl #22
    30b0:	05000c00 	streq	r0, [r0, #-3072]	; 0xc00
    30b4:	0000034e 	andeq	r0, r0, lr, asr #6
    30b8:	00097f0a 	andeq	r7, r9, sl, lsl #30
    30bc:	b82a0100 	stmdalt	sl!, {r8}
    30c0:	3c000095 	stccc	0, cr0, [r0], {149}	; 0x95
    30c4:	01000000 	mrseq	r0, (UNDEF: 0)
    30c8:	0003e09c 	muleq	r3, ip, r0
    30cc:	63701400 	cmnvs	r0, #0, 8
    30d0:	2c2a0100 	stfcss	f0, [sl], #-0
    30d4:	bb000000 	bllt	30dc <_start-0x4f24>
    30d8:	15000020 	strne	r0, [r0, #-32]
    30dc:	00000154 	andeq	r0, r0, r4, asr r1
    30e0:	000003f0 	strdeq	r0, [r0], -r0	; <UNPREDICTABLE>
    30e4:	9ca80305 	stcls	3, cr0, [r8], #20
    30e8:	e0110000 	ands	r0, r1, r0
    30ec:	3c000095 	stccc	0, cr0, [r0], {149}	; 0x95
    30f0:	d6000005 	strle	r0, [r0], -r5
    30f4:	12000003 	andne	r0, r0, #3
    30f8:	08025301 	stmdaeq	r2, {r0, r8, r9, ip, lr}
    30fc:	5201122b 	andpl	r1, r1, #-1342177278	; 0xb0000002
    3100:	9ca80305 	stcls	3, cr0, [r8], #20
    3104:	01120000 	tsteq	r2, r0
    3108:	30030551 	andcc	r0, r3, r1, asr r5
    310c:	1200009d 	andne	r0, r0, #157	; 0x9d
    3110:	03055001 	movweq	r5, #20481	; 0x5001
    3114:	00009cf4 	strdeq	r9, [r0], -r4
    3118:	047d0212 	ldrbteq	r0, [sp], #-530	; 0x212
    311c:	5001f303 	andpl	pc, r1, r3, lsl #6
    3120:	007d0212 	rsbseq	r0, sp, r2, lsl r2
    3124:	9d780305 	ldclls	3, cr0, [r8, #-20]!	; 0xffffffec
    3128:	13000000 	movwne	r0, #0
    312c:	000095e4 	andeq	r9, r0, r4, ror #11
    3130:	00000552 	andeq	r0, r0, r2, asr r5
    3134:	00720600 	rsbseq	r0, r2, r0, lsl #12
    3138:	03f00000 	mvnseq	r0, #0
    313c:	6b070000 	blvs	1c3144 <__bss_end__+0x1b8b84>
    3140:	1c000000 	stcne	0, cr0, [r0], {-0}
    3144:	03e00500 	mvneq	r0, #0, 10
    3148:	960a0000 	strls	r0, [sl], -r0
    314c:	01000008 	tsteq	r0, r8
    3150:	0095f42d 	addseq	pc, r5, sp, lsr #8
    3154:	00003c00 	andeq	r3, r0, r0, lsl #24
    3158:	729c0100 	addsvc	r0, ip, #0, 2
    315c:	14000004 	strne	r0, [r0], #-4
    3160:	01006370 	tsteq	r0, r0, ror r3
    3164:	00002c2d 	andeq	r2, r0, sp, lsr #24
    3168:	0020e800 	eoreq	lr, r0, r0, lsl #16
    316c:	01541500 	cmpeq	r4, r0, lsl #10
    3170:	04720000 	ldrbteq	r0, [r2], #-0
    3174:	03050000 	movweq	r0, #20480	; 0x5000
    3178:	00009cc8 	andeq	r9, r0, r8, asr #25
    317c:	00961c11 	addseq	r1, r6, r1, lsl ip
    3180:	00053c00 	andeq	r3, r5, r0, lsl #24
    3184:	00046800 	andeq	r6, r4, r0, lsl #16
    3188:	53011200 	movwpl	r1, #4608	; 0x1200
    318c:	122e0802 	eorne	r0, lr, #131072	; 0x20000
    3190:	03055201 	movweq	r5, #20993	; 0x5201
    3194:	00009cc8 	andeq	r9, r0, r8, asr #25
    3198:	05510112 	ldrbeq	r0, [r1, #-274]	; 0x112
    319c:	009d3003 	addseq	r3, sp, r3
    31a0:	50011200 	andpl	r1, r1, r0, lsl #4
    31a4:	9cf40305 	ldclls	3, cr0, [r4], #20
    31a8:	02120000 	andseq	r0, r2, #0
    31ac:	f303047d 	vqshl.u8	q0, <illegal reg q14.5>, <illegal reg q1.5>
    31b0:	02125001 	andseq	r5, r2, #1
    31b4:	0305007d 	movweq	r0, #20605	; 0x507d
    31b8:	00009d90 	muleq	r0, r0, sp
    31bc:	96201300 	strtls	r1, [r0], -r0, lsl #6
    31c0:	05520000 	ldrbeq	r0, [r2, #-0]
    31c4:	05000000 	streq	r0, [r0, #-0]
    31c8:	0000023a 	andeq	r0, r0, sl, lsr r2
    31cc:	0009310a 	andeq	r3, r9, sl, lsl #2
    31d0:	30300100 	eorscc	r0, r0, r0, lsl #2
    31d4:	3c000096 	stccc	0, cr0, [r0], {150}	; 0x96
    31d8:	01000000 	mrseq	r0, (UNDEF: 0)
    31dc:	0004f49c 	muleq	r4, ip, r4
    31e0:	63701400 	cmnvs	r0, #0, 8
    31e4:	2c300100 	ldfcss	f0, [r0], #-0
    31e8:	15000000 	strne	r0, [r0, #-0]
    31ec:	15000021 	strne	r0, [r0, #-33]	; 0x21
    31f0:	00000154 	andeq	r0, r0, r4, asr r1
    31f4:	00000504 	andeq	r0, r0, r4, lsl #10
    31f8:	9ce00305 	stclls	3, cr0, [r0], #20
    31fc:	58110000 	ldmdapl	r1, {}	; <UNPREDICTABLE>
    3200:	3c000096 	stccc	0, cr0, [r0], {150}	; 0x96
    3204:	ea000005 	b	3220 <_start-0x4de0>
    3208:	12000004 	andne	r0, r0, #4
    320c:	08025301 	stmdaeq	r2, {r0, r8, r9, ip, lr}
    3210:	52011231 	andpl	r1, r1, #268435459	; 0x10000003
    3214:	9ce00305 	stclls	3, cr0, [r0], #20
    3218:	01120000 	tsteq	r2, r0
    321c:	30030551 	andcc	r0, r3, r1, asr r5
    3220:	1200009d 	andne	r0, r0, #157	; 0x9d
    3224:	03055001 	movweq	r5, #20481	; 0x5001
    3228:	00009cf4 	strdeq	r9, [r0], -r4
    322c:	047d0212 	ldrbteq	r0, [sp], #-530	; 0x212
    3230:	5001f303 	andpl	pc, r1, r3, lsl #6
    3234:	007d0212 	rsbseq	r0, sp, r2, lsl r2
    3238:	9da00305 	stcls	3, cr0, [r0, #20]!
    323c:	13000000 	movwne	r0, #0
    3240:	0000965c 	andeq	r9, r0, ip, asr r6
    3244:	00000552 	andeq	r0, r0, r2, asr r5
    3248:	00720600 	rsbseq	r0, r2, r0, lsl #12
    324c:	05040000 	streq	r0, [r4, #-0]
    3250:	6b070000 	blvs	1c3258 <__bss_end__+0x1b8c98>
    3254:	11000000 	mrsne	r0, (UNDEF: 0)
    3258:	04f40500 	ldrbteq	r0, [r4], #1280	; 0x500
    325c:	cb0b0000 	blgt	2c3264 <__bss_end__+0x2b8ca4>
    3260:	01000008 	tsteq	r0, r8
    3264:	00002c11 	andeq	r2, r0, r1, lsl ip
    3268:	091c0b00 	ldmdbeq	ip, {r8, r9, fp}
    326c:	12010000 	andne	r0, r1, #0
    3270:	0000002c 	andeq	r0, r0, ip, lsr #32
    3274:	00065c16 	andeq	r5, r6, r6, lsl ip
    3278:	35940200 	ldrcc	r0, [r4, #512]	; 0x200
    327c:	17000005 	strne	r0, [r0, -r5]
    3280:	0000002c 	andeq	r0, r0, ip, lsr #32
    3284:	00002c17 	andeq	r2, r0, r7, lsl ip
    3288:	01180000 	tsteq	r8, r0
    328c:	02000001 	andeq	r0, r0, #1
    3290:	01b81984 			; <UNDEFINED> instruction: 0x01b81984
    3294:	27020000 	strcs	r0, [r2, -r0]
    3298:	00000025 	andeq	r0, r0, r5, lsr #32
    329c:	00000552 	andeq	r0, r0, r2, asr r5
    32a0:	00007917 	andeq	r7, r0, r7, lsl r9
    32a4:	18001a00 	stmdane	r0, {r9, fp, ip}
    32a8:	000001d8 	ldrdeq	r0, [r0], -r8
    32ac:	ff006302 			; <UNDEFINED> instruction: 0xff006302
    32b0:	04000003 	streq	r0, [r0], #-3
    32b4:	000de000 	andeq	lr, sp, r0
    32b8:	56010400 	strpl	r0, [r1], -r0, lsl #8
    32bc:	01000003 	tsteq	r0, r3
    32c0:	00000a58 	andeq	r0, r0, r8, asr sl
    32c4:	000004d2 	ldrdeq	r0, [r0], -r2
    32c8:	000097a8 	andeq	r9, r0, r8, lsr #15
    32cc:	00000154 	andeq	r0, r0, r4, asr r1
    32d0:	00000be8 	andeq	r0, r0, r8, ror #23
    32d4:	69050402 	stmdbvs	r5, {r1, sl}
    32d8:	0300746e 	movweq	r7, #1134	; 0x46e
    32dc:	006c0704 	rsbeq	r0, ip, r4, lsl #14
    32e0:	01030000 	mrseq	r0, (UNDEF: 3)
    32e4:	00030606 	andeq	r0, r3, r6, lsl #12
    32e8:	05020300 	streq	r0, [r2, #-768]	; 0x300
    32ec:	00000312 	andeq	r0, r0, r2, lsl r3
    32f0:	8e050403 	cdphi	4, 0, cr0, cr5, cr3, {0}
    32f4:	03000000 	movweq	r0, #0
    32f8:	00890508 	addeq	r0, r9, r8, lsl #10
    32fc:	01030000 	mrseq	r0, (UNDEF: 3)
    3300:	00030408 	andeq	r0, r3, r8, lsl #8
    3304:	07020300 	streq	r0, [r2, -r0, lsl #6]
    3308:	00000167 	andeq	r0, r0, r7, ror #2
    330c:	67070403 	strvs	r0, [r7, -r3, lsl #8]
    3310:	03000000 	movweq	r0, #0
    3314:	00620708 	rsbeq	r0, r2, r8, lsl #14
    3318:	04030000 	streq	r0, [r3], #-0
    331c:	0001fa07 	andeq	pc, r1, r7, lsl #20
    3320:	08010300 	stmdaeq	r1, {r8, r9}
    3324:	0000030d 	andeq	r0, r0, sp, lsl #6
    3328:	0c020104 	stfeqs	f0, [r2], {4}
    332c:	000000b2 	strheq	r0, [r0], -r2
    3330:	0006f405 	andeq	pc, r6, r5, lsl #8
    3334:	04050000 	streq	r0, [r5], #-0
    3338:	01000008 	tsteq	r0, r8
    333c:	00082705 	andeq	r2, r8, r5, lsl #14
    3340:	36050400 	strcc	r0, [r5], -r0, lsl #8
    3344:	05000008 	streq	r0, [r0, #-8]
    3348:	00084505 	andeq	r4, r8, r5, lsl #10
    334c:	54050600 	strpl	r0, [r5], #-1536	; 0x600
    3350:	07000008 	streq	r0, [r0, -r8]
    3354:	00086305 	andeq	r6, r8, r5, lsl #6
    3358:	72050300 	andvc	r0, r5, #0, 6
    335c:	02000008 	andeq	r0, r0, #8
    3360:	081b0600 	ldmdaeq	fp, {r9, sl}
    3364:	15020000 	strne	r0, [r2, #-0]
    3368:	00000079 	andeq	r0, r0, r9, ror r0
    336c:	000a2c07 	andeq	r2, sl, r7, lsl #24
    3370:	25570100 	ldrbcs	r0, [r7, #-256]	; 0x100
    3374:	a8000000 	stmdage	r0, {}	; <UNPREDICTABLE>
    3378:	1c000097 	stcne	0, cr0, [r0], {151}	; 0x97
    337c:	01000000 	mrseq	r0, (UNDEF: 0)
    3380:	0000e09c 	muleq	r0, ip, r0
    3384:	97b80800 	ldrls	r0, [r8, r0, lsl #16]!
    3388:	03a80000 			; <UNDEFINED> instruction: 0x03a80000
    338c:	09000000 	stmdbeq	r0, {}	; <UNPREDICTABLE>
    3390:	0000004c 	andeq	r0, r0, ip, asr #32
    3394:	97c43701 	strbls	r3, [r4, r1, lsl #14]
    3398:	009c0000 	addseq	r0, ip, r0
    339c:	9c010000 	stcls	0, cr0, [r1], {-0}
    33a0:	000001e6 	andeq	r0, r0, r6, ror #3
    33a4:	0097cc08 	addseq	ip, r7, r8, lsl #24
    33a8:	0003c900 	andeq	ip, r3, r0, lsl #18
    33ac:	97d80a00 	ldrbls	r0, [r8, r0, lsl #20]
    33b0:	03d00000 	bicseq	r0, r0, #0
    33b4:	01160000 	tsteq	r6, r0
    33b8:	010b0000 	mrseq	r0, (UNDEF: 11)
    33bc:	0b320151 	bleq	c83908 <__bss_end__+0xc79348>
    33c0:	3e015001 	cdpcc	0, 0, cr5, cr1, cr1, {0}
    33c4:	97e40a00 	strbls	r0, [r4, r0, lsl #20]!
    33c8:	03d00000 	bicseq	r0, r0, #0
    33cc:	012e0000 	teqeq	lr, r0
    33d0:	010b0000 	mrseq	r0, (UNDEF: 11)
    33d4:	0b320151 	bleq	c83920 <__bss_end__+0xc79360>
    33d8:	3f015001 	svccc	0x00015001
    33dc:	97e80800 	strbls	r0, [r8, r0, lsl #16]!
    33e0:	03c90000 	biceq	r0, r9, #0
    33e4:	f80a0000 			; <UNDEFINED> instruction: 0xf80a0000
    33e8:	a8000097 	stmdage	r0, {r0, r1, r2, r4, r7}
    33ec:	4b000003 	blmi	3400 <_start-0x4c00>
    33f0:	0b000001 	bleq	33fc <_start-0x4c04>
    33f4:	75025001 	strvc	r5, [r2, #-1]
    33f8:	040a0000 	streq	r0, [sl], #-0
    33fc:	e6000098 			; <UNDEFINED> instruction: 0xe6000098
    3400:	5f000003 	svcpl	0x00000003
    3404:	0b000001 	bleq	3410 <_start-0x4bf0>
    3408:	75025001 	strvc	r5, [r2, #-1]
    340c:	08080000 	stmdaeq	r8, {}	; <UNPREDICTABLE>
    3410:	c9000098 	stmdbgt	r0, {r3, r4, r7}
    3414:	0a000003 	beq	3428 <_start-0x4bd8>
    3418:	00009814 	andeq	r9, r0, r4, lsl r8
    341c:	000003e6 	andeq	r0, r0, r6, ror #7
    3420:	0000017b 	andeq	r0, r0, fp, ror r1
    3424:	0151010b 	cmpeq	r1, fp, lsl #2
    3428:	200a0030 	andcs	r0, sl, r0, lsr r0
    342c:	e6000098 			; <UNDEFINED> instruction: 0xe6000098
    3430:	8e000003 	cdphi	0, 0, cr0, cr0, cr3, {0}
    3434:	0b000001 	bleq	3440 <_start-0x4bc0>
    3438:	30015101 	andcc	r5, r1, r1, lsl #2
    343c:	982c0a00 	stmdals	ip!, {r9, fp}
    3440:	03e60000 	mvneq	r0, #0
    3444:	01a10000 			; <UNDEFINED> instruction: 0x01a10000
    3448:	010b0000 	mrseq	r0, (UNDEF: 11)
    344c:	00360151 	eorseq	r0, r6, r1, asr r1
    3450:	0098380a 	addseq	r3, r8, sl, lsl #16
    3454:	0003e600 	andeq	lr, r3, r0, lsl #12
    3458:	0001b400 	andeq	fp, r1, r0, lsl #8
    345c:	51010b00 	tstpl	r1, r0, lsl #22
    3460:	0a003301 	beq	1006c <__bss_end__+0x5aac>
    3464:	00009844 	andeq	r9, r0, r4, asr #16
    3468:	000003e6 	andeq	r0, r0, r6, ror #7
    346c:	000001c9 	andeq	r0, r0, r9, asr #3
    3470:	0351010b 	cmpeq	r1, #-1073741822	; 0xc0000002
    3474:	00010e0a 	andeq	r0, r1, sl, lsl #28
    3478:	0098500a 	addseq	r5, r8, sl
    347c:	0003e600 	andeq	lr, r3, r0, lsl #12
    3480:	0001dc00 	andeq	sp, r1, r0, lsl #24
    3484:	51010b00 	tstpl	r1, r0, lsl #22
    3488:	08003301 	stmdaeq	r0, {r0, r8, r9, ip, sp}
    348c:	00009854 	andeq	r9, r0, r4, asr r8
    3490:	000003c9 	andeq	r0, r0, r9, asr #7
    3494:	01100c00 	tsteq	r0, r0, lsl #24
    3498:	5d010000 	stcpl	0, cr0, [r1, #-0]
    349c:	00000025 	andeq	r0, r0, r5, lsr #32
    34a0:	00009860 	andeq	r9, r0, r0, ror #16
    34a4:	00000028 	andeq	r0, r0, r8, lsr #32
    34a8:	02129c01 	andseq	r9, r2, #256	; 0x100
    34ac:	68080000 	stmdavs	r8, {}	; <UNPREDICTABLE>
    34b0:	bd000098 	stclt	0, cr0, [r0, #-608]	; 0xfffffda0
    34b4:	08000000 	stmdaeq	r0, {}	; <UNPREDICTABLE>
    34b8:	0000987c 	andeq	r9, r0, ip, ror r8
    34bc:	000003a8 	andeq	r0, r0, r8, lsr #7
    34c0:	0a7d0c00 	beq	1f464c8 <__bss_end__+0x1f3bf08>
    34c4:	64010000 	strvs	r0, [r1], #-0
    34c8:	00000025 	andeq	r0, r0, r5, lsr #32
    34cc:	00009888 	andeq	r9, r0, r8, lsl #17
    34d0:	0000001c 	andeq	r0, r0, ip, lsl r0
    34d4:	02359c01 	eorseq	r9, r5, #256	; 0x100
    34d8:	98080000 	stmdals	r8, {}	; <UNPREDICTABLE>
    34dc:	a8000098 	stmdage	r0, {r3, r4, r7}
    34e0:	00000003 	andeq	r0, r0, r3
    34e4:	00019e09 	andeq	r9, r1, r9, lsl #28
    34e8:	a46a0100 	strbtge	r0, [sl], #-256	; 0x100
    34ec:	2c000098 	stccs	0, cr0, [r0], {152}	; 0x98
    34f0:	01000000 	mrseq	r0, (UNDEF: 0)
    34f4:	0002719c 	muleq	r2, ip, r1
    34f8:	00630d00 	rsbeq	r0, r3, r0, lsl #26
    34fc:	002c6a01 	eoreq	r6, ip, r1, lsl #20
    3500:	21420000 	mrscs	r0, (UNDEF: 66)
    3504:	b0080000 	andlt	r0, r8, r0
    3508:	12000098 	andne	r0, r0, #152	; 0x98
    350c:	0e000002 	cdpeq	0, 0, cr0, cr0, cr2, {0}
    3510:	000098c8 	andeq	r9, r0, r8, asr #17
    3514:	000003e6 	andeq	r0, r0, r6, ror #7
    3518:	0251010b 	subseq	r0, r1, #-1073741822	; 0xc0000002
    351c:	00000074 	andeq	r0, r0, r4, ror r0
    3520:	000a4a0c 	andeq	r4, sl, ip, lsl #20
    3524:	25740100 	ldrbcs	r0, [r4, #-256]!	; 0x100
    3528:	d0000000 	andle	r0, r0, r0
    352c:	0c000098 	stceq	0, cr0, [r0], {152}	; 0x98
    3530:	01000000 	mrseq	r0, (UNDEF: 0)
    3534:	0002949c 	muleq	r2, ip, r4
    3538:	98d80800 	ldmls	r8, {fp}^
    353c:	00bd0000 	adcseq	r0, sp, r0
    3540:	0c000000 	stceq	0, cr0, [r0], {-0}
    3544:	00000aec 	andeq	r0, r0, ip, ror #21
    3548:	00257801 	eoreq	r7, r5, r1, lsl #16
    354c:	98dc0000 	ldmls	ip, {}^	; <UNPREDICTABLE>
    3550:	00200000 	eoreq	r0, r0, r0
    3554:	9c010000 	stcls	0, cr0, [r1], {-0}
    3558:	000002c0 	andeq	r0, r0, r0, asr #5
    355c:	0098e408 	addseq	lr, r8, r8, lsl #8
    3560:	00027100 	andeq	r7, r2, r0, lsl #2
    3564:	98f00800 	ldmls	r0!, {fp}^
    3568:	01e60000 	mvneq	r0, r0
    356c:	0f000000 	svceq	0x00000000
    3570:	00000a97 	muleq	r0, r7, sl
    3574:	02d11601 	sbcseq	r1, r1, #1048576	; 0x100000
    3578:	03050000 	movweq	r0, #20480	; 0x5000
    357c:	000099a4 	andeq	r9, r0, r4, lsr #19
    3580:	02d70410 	sbcseq	r0, r7, #16, 8	; 0x10000000
    3584:	2c110000 	ldccs	0, cr0, [r1], {-0}
    3588:	0f000000 	svceq	0x00000000
    358c:	00000a8b 	andeq	r0, r0, fp, lsl #21
    3590:	02d11701 	sbcseq	r1, r1, #262144	; 0x40000
    3594:	03050000 	movweq	r0, #20480	; 0x5000
    3598:	00009978 	andeq	r9, r0, r8, ror r9
    359c:	000a0f0f 	andeq	r0, sl, pc, lsl #30
    35a0:	d11a0100 	tstle	sl, r0, lsl #2
    35a4:	05000002 	streq	r0, [r0, #-2]
    35a8:	00999003 	addseq	r9, r9, r3
    35ac:	0a5f0f00 	beq	17c71b4 <__bss_end__+0x17bcbf4>
    35b0:	1b010000 	blne	435b8 <__bss_end__+0x38ff8>
    35b4:	000002d1 	ldrdeq	r0, [r0], -r1
    35b8:	99800305 	stmibls	r0, {r0, r2, r8, r9}
    35bc:	6e0f0000 	cdpvs	0, 0, cr0, cr15, cr0, {0}
    35c0:	0100000a 	tsteq	r0, sl
    35c4:	0002d11c 	andeq	sp, r2, ip, lsl r1
    35c8:	84030500 	strhi	r0, [r3], #-1280	; 0x500
    35cc:	0f000099 	svceq	0x00000099
    35d0:	00000ace 	andeq	r0, r0, lr, asr #21
    35d4:	02d11d01 	sbcseq	r1, r1, #1, 26	; 0x40
    35d8:	03050000 	movweq	r0, #20480	; 0x5000
    35dc:	00009988 	andeq	r9, r0, r8, lsl #19
    35e0:	000a000f 	andeq	r0, sl, pc
    35e4:	d11e0100 	tstle	lr, r0, lsl #2
    35e8:	05000002 	streq	r0, [r0, #-2]
    35ec:	0099a003 	addseq	sl, r9, r3
    35f0:	0add0f00 	beq	ff7471f8 <__bss_end__+0xff73cc38>
    35f4:	1f010000 	svcne	0x00010000
    35f8:	000002d1 	ldrdeq	r0, [r0], -r1
    35fc:	99740305 	ldmdbls	r4!, {r0, r2, r8, r9}^
    3600:	1d0f0000 	stcne	0, cr0, [pc, #-0]	; 3608 <_start-0x49f8>
    3604:	0100000a 	tsteq	r0, sl
    3608:	0002d120 	andeq	sp, r2, r0, lsr #2
    360c:	9c030500 	cfstr32ls	mvfx0, [r3], {-0}
    3610:	0f000099 	svceq	0x00000099
    3614:	00000abf 			; <UNDEFINED> instruction: 0x00000abf
    3618:	02d12101 	sbcseq	r2, r1, #1073741824	; 0x40000000
    361c:	03050000 	movweq	r0, #20480	; 0x5000
    3620:	00009998 	muleq	r0, r8, r9
    3624:	000a3a0f 	andeq	r3, sl, pc, lsl #20
    3628:	d1220100 	teqle	r2, r0, lsl #2
    362c:	05000002 	streq	r0, [r0, #-2]
    3630:	00997c03 	addseq	r7, r9, r3, lsl #24
    3634:	0aaf0f00 	beq	febc723c <__bss_end__+0xfebbcc7c>
    3638:	23010000 	movwcs	r0, #4096	; 0x1000
    363c:	000002d1 	ldrdeq	r0, [r0], -r1
    3640:	99940305 	ldmibls	r4, {r0, r2, r8, r9}
    3644:	9f0f0000 	svcls	0x000f0000
    3648:	0100000a 	tsteq	r0, sl
    364c:	0002d124 	andeq	sp, r2, r4, lsr #2
    3650:	8c030500 	cfstr32hi	mvfx0, [r3], {-0}
    3654:	12000099 	andne	r0, r0, #153	; 0x99
    3658:	00000815 	andeq	r0, r0, r5, lsl r8
    365c:	002ca103 	eoreq	sl, ip, r3, lsl #2
    3660:	03bd0000 			; <UNDEFINED> instruction: 0x03bd0000
    3664:	bd130000 	ldclt	0, cr0, [r3, #-0]
    3668:	00000003 	andeq	r0, r0, r3
    366c:	03c30410 	biceq	r0, r3, #16, 8	; 0x10000000
    3670:	c8140000 	ldmdagt	r4, {}	; <UNPREDICTABLE>
    3674:	15000003 	strne	r0, [r0, #-3]
    3678:	00010116 	andeq	r0, r1, r6, lsl r1
    367c:	17840300 	strne	r0, [r4, r0, lsl #6]
    3680:	00000789 	andeq	r0, r0, r9, lsl #15
    3684:	03e61902 	mvneq	r1, #32768	; 0x8000
    3688:	2c130000 	ldccs	0, cr0, [r3], {-0}
    368c:	13000000 	movwne	r0, #0
    3690:	000000b2 	strheq	r0, [r0], -r2
    3694:	06d11700 	ldrbeq	r1, [r1], r0, lsl #14
    3698:	95030000 	strls	r0, [r3, #-0]
    369c:	000003fc 	strdeq	r0, [r0], -ip
    36a0:	0003fc13 	andeq	pc, r3, r3, lsl ip	; <UNPREDICTABLE>
    36a4:	002c1300 	eoreq	r1, ip, r0, lsl #6
    36a8:	10000000 	andne	r0, r0, r0
    36ac:	0003c804 	andeq	ip, r3, r4, lsl #16
    36b0:	00e00000 	rsceq	r0, r0, r0
    36b4:	00040000 	andeq	r0, r4, r0
    36b8:	00000f28 	andeq	r0, r0, r8, lsr #30
    36bc:	03560104 	cmpeq	r6, #4, 2
    36c0:	0d010000 	stceq	0, cr0, [r1, #-0]
    36c4:	d200000b 	andle	r0, r0, #11
    36c8:	fc000004 	stc2	0, cr0, [r0], {4}
    36cc:	14000098 	strne	r0, [r0], #-152	; 0x98
    36d0:	63000000 	movwvs	r0, #0
    36d4:	0200000c 	andeq	r0, r0, #12
    36d8:	6e690504 	cdpvs	5, 6, cr0, cr9, cr4, {0}
    36dc:	04030074 	streq	r0, [r3], #-116	; 0x74
    36e0:	00006c07 	andeq	r6, r0, r7, lsl #24
    36e4:	06010300 	streq	r0, [r1], -r0, lsl #6
    36e8:	00000306 	andeq	r0, r0, r6, lsl #6
    36ec:	12050203 	andne	r0, r5, #805306368	; 0x30000000
    36f0:	03000003 	movweq	r0, #3
    36f4:	008e0504 	addeq	r0, lr, r4, lsl #10
    36f8:	08030000 	stmdaeq	r3, {}	; <UNPREDICTABLE>
    36fc:	00008905 	andeq	r8, r0, r5, lsl #18
    3700:	08010300 	stmdaeq	r1, {r8, r9}
    3704:	00000304 	andeq	r0, r0, r4, lsl #6
    3708:	67070203 	strvs	r0, [r7, -r3, lsl #4]
    370c:	03000001 	movweq	r0, #1
    3710:	00670704 	rsbeq	r0, r7, r4, lsl #14
    3714:	08030000 	stmdaeq	r3, {}	; <UNPREDICTABLE>
    3718:	00006207 	andeq	r6, r0, r7, lsl #4
    371c:	07040300 	streq	r0, [r4, -r0, lsl #6]
    3720:	000001fa 	strdeq	r0, [r0], -sl
    3724:	0d080103 	stfeqs	f0, [r8, #-12]
    3728:	04000003 	streq	r0, [r0], #-3
    372c:	00000afc 	strdeq	r0, [r0], -ip
    3730:	00250301 	eoreq	r0, r5, r1, lsl #6
    3734:	98fc0000 	ldmls	ip!, {}^	; <UNPREDICTABLE>
    3738:	00140000 	andseq	r0, r4, r0
    373c:	9c010000 	stcls	0, cr0, [r1], {-0}
    3740:	000000b0 	strheq	r0, [r0], -r0	; <UNPREDICTABLE>
    3744:	01006305 	tsteq	r0, r5, lsl #6
    3748:	00002503 	andeq	r2, r0, r3, lsl #10
    374c:	00216000 	eoreq	r6, r1, r0
    3750:	99080600 	stmdbls	r8, {r9, sl}
    3754:	00d60000 	sbcseq	r0, r6, r0
    3758:	01070000 	mrseq	r0, (UNDEF: 7)
    375c:	00740250 	rsbseq	r0, r4, r0, asr r2
    3760:	25080000 	strcs	r0, [r8, #-0]
    3764:	bf000000 	svclt	0x00000000
    3768:	09000000 	stmdbeq	r0, {}	; <UNPREDICTABLE>
    376c:	00000025 	andeq	r0, r0, r5, lsr #32
    3770:	05300a00 	ldreq	r0, [r0, #-2560]!	; 0xa00
    3774:	06010000 	streq	r0, [r1], -r0
    3778:	000000d0 	ldrdeq	r0, [r0], -r0	; <UNPREDICTABLE>
    377c:	99a80305 	stmibls	r8!, {r0, r2, r8, r9}
    3780:	040b0000 	streq	r0, [fp], #-0
    3784:	000000b0 	strheq	r0, [r0], -r0	; <UNPREDICTABLE>
    3788:	00019e0c 	andeq	r9, r1, ip, lsl #28
    378c:	093a0200 	ldmdbeq	sl!, {r9}
    3790:	0000002c 	andeq	r0, r0, ip, lsr #32
	...

Disassembly of section .debug_abbrev:

00000000 <.debug_abbrev>:
   0:	25011101 	strcs	r1, [r1, #-257]	; 0x101
   4:	030b130e 	movweq	r1, #45838	; 0xb30e
   8:	110e1b0e 	tstne	lr, lr, lsl #22
   c:	10061201 	andne	r1, r6, r1, lsl #4
  10:	02000017 	andeq	r0, r0, #23
  14:	0b0b0024 	bleq	2c00ac <__bss_end__+0x2b5aec>
  18:	08030b3e 	stmdaeq	r3, {r1, r2, r3, r4, r5, r8, r9, fp}
  1c:	24030000 	strcs	r0, [r3], #-0
  20:	3e0b0b00 	vmlacc.f64	d0, d11, d0
  24:	000e030b 	andeq	r0, lr, fp, lsl #6
  28:	00160400 	andseq	r0, r6, r0, lsl #8
  2c:	0b3a0e03 	bleq	e83840 <__bss_end__+0xe79280>
  30:	13490b3b 	movtne	r0, #39739	; 0x9b3b
  34:	0f050000 	svceq	0x00050000
  38:	000b0b00 	andeq	r0, fp, r0, lsl #22
  3c:	000f0600 	andeq	r0, pc, r0, lsl #12
  40:	13490b0b 	movtne	r0, #39691	; 0x9b0b
  44:	26070000 	strcs	r0, [r7], -r0
  48:	00134900 	andseq	r4, r3, r0, lsl #18
  4c:	01010800 	tsteq	r1, r0, lsl #16
  50:	13011349 	movwne	r1, #4937	; 0x1349
  54:	21090000 	mrscs	r0, (UNDEF: 9)
  58:	2f134900 	svccs	0x00134900
  5c:	0a00000b 	beq	90 <_start-0x7f70>
  60:	0b0b0104 	bleq	2c0478 <__bss_end__+0x2b5eb8>
  64:	0b3b0b3a 	bleq	ec2d54 <__bss_end__+0xeb8794>
  68:	00001301 	andeq	r1, r0, r1, lsl #6
  6c:	0300280b 	movweq	r2, #2059	; 0x80b
  70:	000d1c0e 	andeq	r1, sp, lr, lsl #24
  74:	00350c00 	eorseq	r0, r5, r0, lsl #24
  78:	00001349 	andeq	r1, r0, r9, asr #6
  7c:	0b01130d 	bleq	44cb8 <__bss_end__+0x3a6f8>
  80:	3b0b3a0b 	blcc	2ce8b4 <__bss_end__+0x2c42f4>
  84:	0013010b 	andseq	r0, r3, fp, lsl #2
  88:	000d0e00 	andeq	r0, sp, r0, lsl #28
  8c:	0b3a0803 	bleq	e820a0 <__bss_end__+0xe77ae0>
  90:	13490b3b 	movtne	r0, #39739	; 0x9b3b
  94:	00000b38 	andeq	r0, r0, r8, lsr fp
  98:	03000d0f 	movweq	r0, #3343	; 0xd0f
  9c:	3b0b3a0e 	blcc	2ce8dc <__bss_end__+0x2c431c>
  a0:	3813490b 	ldmdacc	r3, {r0, r1, r3, r8, fp, lr}
  a4:	1000000b 	andne	r0, r0, fp
  a8:	0e030113 	mcreq	1, 0, r0, cr3, cr3, {0}
  ac:	0b3a0b0b 	bleq	e82ce0 <__bss_end__+0xe78720>
  b0:	13010b3b 	movwne	r0, #6971	; 0x1b3b
  b4:	0d110000 	ldceq	0, cr0, [r1, #-0]
  b8:	490e0300 	stmdbmi	lr, {r8, r9}
  bc:	340b3813 	strcc	r3, [fp], #-2067	; 0x813
  c0:	12000019 	andne	r0, r0, #25
  c4:	0e03012e 	adfeqsp	f0, f3, #0.5
  c8:	0b3b0b3a 	bleq	ec2db8 <__bss_end__+0xeb87f8>
  cc:	0b201927 	bleq	806570 <__bss_end__+0x7fbfb0>
  d0:	00001301 	andeq	r1, r0, r1, lsl #6
  d4:	03000513 	movweq	r0, #1299	; 0x513
  d8:	3b0b3a0e 	blcc	2ce918 <__bss_end__+0x2c4358>
  dc:	0013490b 	andseq	r4, r3, fp, lsl #18
  e0:	00051400 	andeq	r1, r5, r0, lsl #8
  e4:	0b3a0803 	bleq	e820f8 <__bss_end__+0xe77b38>
  e8:	13490b3b 	movtne	r0, #39739	; 0x9b3b
  ec:	0b150000 	bleq	5400f4 <__bss_end__+0x535b34>
  f0:	16000001 	strne	r0, [r0], -r1
  f4:	0e030034 	mcreq	0, 0, r0, cr3, cr4, {1}
  f8:	0b3b0b3a 	bleq	ec2de8 <__bss_end__+0xeb8828>
  fc:	00001349 	andeq	r1, r0, r9, asr #6
 100:	3f012e17 	svccc	0x00012e17
 104:	3a0e0319 	bcc	380d70 <__bss_end__+0x3767b0>
 108:	270b3b0b 	strcs	r3, [fp, -fp, lsl #22]
 10c:	12011119 	andne	r1, r1, #1073741830	; 0x40000006
 110:	97184006 	ldrls	r4, [r8, -r6]
 114:	13011942 	movwne	r1, #6466	; 0x1942
 118:	05180000 	ldreq	r0, [r8, #-0]
 11c:	3a0e0300 	bcc	380d24 <__bss_end__+0x376764>
 120:	490b3b0b 	stmdbmi	fp, {r0, r1, r3, r8, r9, fp, ip, sp}
 124:	00170213 	andseq	r0, r7, r3, lsl r2
 128:	00051900 	andeq	r1, r5, r0, lsl #18
 12c:	0b3a0803 	bleq	e82140 <__bss_end__+0xe77b80>
 130:	13490b3b 	movtne	r0, #39739	; 0x9b3b
 134:	00001702 	andeq	r1, r0, r2, lsl #14
 138:	0300341a 	movweq	r3, #1050	; 0x41a
 13c:	3b0b3a08 	blcc	2ce964 <__bss_end__+0x2c43a4>
 140:	0213490b 	andseq	r4, r3, #180224	; 0x2c000
 144:	1b000018 	blne	1ac <_start-0x7e54>
 148:	08030034 	stmdaeq	r3, {r2, r4, r5}
 14c:	0b3b0b3a 	bleq	ec2e3c <__bss_end__+0xeb887c>
 150:	17021349 	strne	r1, [r2, -r9, asr #6]
 154:	341c0000 	ldrcc	r0, [ip], #-0
 158:	3a080300 	bcc	200d60 <__bss_end__+0x1f67a0>
 15c:	490b3b0b 	stmdbmi	fp, {r0, r1, r3, r8, r9, fp, ip, sp}
 160:	1d000013 	stcne	0, cr0, [r0, #-76]	; 0xffffffb4
 164:	0e030034 	mcreq	0, 0, r0, cr3, cr4, {1}
 168:	0b3b0b3a 	bleq	ec2e58 <__bss_end__+0xeb8898>
 16c:	18021349 	stmdane	r2, {r0, r3, r6, r8, r9, ip}
 170:	0b1e0000 	bleq	780178 <__bss_end__+0x775bb8>
 174:	12011101 	andne	r1, r1, #1073741824	; 0x40000000
 178:	00130106 	andseq	r0, r3, r6, lsl #2
 17c:	011d1f00 	tsteq	sp, r0, lsl #30
 180:	01111331 	tsteq	r1, r1, lsr r3
 184:	0b580612 	bleq	16019d4 <__bss_end__+0x15f7414>
 188:	13010b59 	movwne	r0, #7001	; 0x1b59
 18c:	05200000 	streq	r0, [r0, #-0]!
 190:	02133100 	andseq	r3, r3, #0, 2
 194:	21000017 	tstcs	r0, r7, lsl r0
 198:	13310005 	teqne	r1, #5
 19c:	00001802 	andeq	r1, r0, r2, lsl #16
 1a0:	31000522 	tstcc	r0, r2, lsr #10
 1a4:	000b1c13 	andeq	r1, fp, r3, lsl ip
 1a8:	010b2300 	mrseq	r2, (UNDEF: 59)
 1ac:	06120111 			; <UNDEFINED> instruction: 0x06120111
 1b0:	34240000 	strtcc	r0, [r4], #-0
 1b4:	02133100 	andseq	r3, r3, #0, 2
 1b8:	25000017 	strcs	r0, [r0, #-23]
 1bc:	01018289 	smlabbeq	r1, r9, r2, r8
 1c0:	13310111 	teqne	r1, #1073741828	; 0x40000004
 1c4:	8a260000 	bhi	9801cc <__bss_end__+0x975c0c>
 1c8:	02000182 	andeq	r0, r0, #-2147483616	; 0x80000020
 1cc:	18429118 	stmdane	r2, {r3, r4, r8, ip, pc}^
 1d0:	1d270000 	stcne	0, cr0, [r7, #-0]
 1d4:	11133101 	tstne	r3, r1, lsl #2
 1d8:	58061201 	stmdapl	r6, {r0, r9, ip}
 1dc:	000b590b 	andeq	r5, fp, fp, lsl #18
 1e0:	012e2800 	teqeq	lr, r0, lsl #16
 1e4:	0b3a0e03 	bleq	e839f8 <__bss_end__+0xe79438>
 1e8:	19270b3b 	stmdbne	r7!, {r0, r1, r3, r4, r5, r8, r9, fp}
 1ec:	0b201349 	bleq	804f18 <__bss_end__+0x7fa958>
 1f0:	00001301 	andeq	r1, r0, r1, lsl #6
 1f4:	3f012e29 	svccc	0x00012e29
 1f8:	3a0e0319 	bcc	380e64 <__bss_end__+0x3768a4>
 1fc:	270b3b0b 	strcs	r3, [fp, -fp, lsl #22]
 200:	11134919 	tstne	r3, r9, lsl r9
 204:	40061201 	andmi	r1, r6, r1, lsl #4
 208:	19429718 	stmdbne	r2, {r3, r4, r8, r9, sl, ip, pc}^
 20c:	00001301 	andeq	r1, r0, r1, lsl #6
 210:	0182892a 	orreq	r8, r2, sl, lsr #18
 214:	31011100 	mrscc	r1, (UNDEF: 17)
 218:	2b000013 	blcs	26c <_start-0x7d94>
 21c:	01018289 	smlabbeq	r1, r9, r2, r8
 220:	13310111 	teqne	r1, #1073741828	; 0x40000004
 224:	00001301 	andeq	r1, r0, r1, lsl #6
 228:	0300342c 	movweq	r3, #1068	; 0x42c
 22c:	3b0b3a0e 	blcc	2cea6c <__bss_end__+0x2c44ac>
 230:	0213490b 	andseq	r4, r3, #180224	; 0x2c000
 234:	2d000017 	stccs	0, cr0, [r0, #-92]	; 0xffffffa4
 238:	13310005 	teqne	r1, #5
 23c:	052e0000 	streq	r0, [lr, #-0]!
 240:	3a0e0300 	bcc	380e48 <__bss_end__+0x376888>
 244:	490b3b0b 	stmdbmi	fp, {r0, r1, r3, r8, r9, fp, ip, sp}
 248:	00180213 	andseq	r0, r8, r3, lsl r2
 24c:	00342f00 	eorseq	r2, r4, r0, lsl #30
 250:	13490e03 	movtne	r0, #40451	; 0x9e03
 254:	18021934 	stmdane	r2, {r2, r4, r5, r8, fp, ip}
 258:	34300000 	ldrtcc	r0, [r0], #-0
 25c:	3a080300 	bcc	200e64 <__bss_end__+0x1f68a4>
 260:	490b3b0b 	stmdbmi	fp, {r0, r1, r3, r8, r9, fp, ip, sp}
 264:	00061c13 	andeq	r1, r6, r3, lsl ip
 268:	00343100 	eorseq	r3, r4, r0, lsl #2
 26c:	0b3a0803 	bleq	e82280 <__bss_end__+0xe77cc0>
 270:	13490b3b 	movtne	r0, #39739	; 0x9b3b
 274:	00000b1c 	andeq	r0, r0, ip, lsl fp
 278:	03000532 	movweq	r0, #1330	; 0x532
 27c:	3b0b3a08 	blcc	2ceaa4 <__bss_end__+0x2c44e4>
 280:	0213490b 	andseq	r4, r3, #180224	; 0x2c000
 284:	33000018 	movwcc	r0, #24
 288:	00000018 	andeq	r0, r0, r8, lsl r0
 28c:	49002134 	stmdbmi	r0, {r2, r4, r5, r8, sp}
 290:	00052f13 	andeq	r2, r5, r3, lsl pc
 294:	012e3500 	teqeq	lr, r0, lsl #10
 298:	0e03193f 	mcreq	9, 0, r1, cr3, cr15, {1}
 29c:	0b3b0b3a 	bleq	ec2f8c <__bss_end__+0xeb89cc>
 2a0:	06120111 			; <UNDEFINED> instruction: 0x06120111
 2a4:	42971840 	addsmi	r1, r7, #64, 16	; 0x400000
 2a8:	00130119 	andseq	r0, r3, r9, lsl r1
 2ac:	00343600 	eorseq	r3, r4, r0, lsl #12
 2b0:	0b3a0803 	bleq	e822c4 <__bss_end__+0xe77d04>
 2b4:	1349053b 	movtne	r0, #38203	; 0x953b
 2b8:	00001802 	andeq	r1, r0, r2, lsl #16
 2bc:	03003437 	movweq	r3, #1079	; 0x437
 2c0:	3b0b3a08 	blcc	2ceae8 <__bss_end__+0x2c4528>
 2c4:	1c134905 	ldcne	9, cr4, [r3], {5}
 2c8:	3800000b 	stmdacc	r0, {r0, r1, r3}
 2cc:	08030034 	stmdaeq	r3, {r2, r4, r5}
 2d0:	053b0b3a 	ldreq	r0, [fp, #-2874]!	; 0xb3a
 2d4:	17021349 	strne	r1, [r2, -r9, asr #6]
 2d8:	0b390000 	bleq	e402e0 <__bss_end__+0xe35d20>
 2dc:	01175501 	tsteq	r7, r1, lsl #10
 2e0:	3a000013 	bcc	334 <_start-0x7ccc>
 2e4:	0e030034 	mcreq	0, 0, r0, cr3, cr4, {1}
 2e8:	0b3b0b3a 	bleq	ec2fd8 <__bss_end__+0xeb8a18>
 2ec:	193f1349 	ldmdbne	pc!, {r0, r3, r6, r8, r9, ip}	; <UNPREDICTABLE>
 2f0:	00001802 	andeq	r1, r0, r2, lsl #16
 2f4:	3f012e3b 	svccc	0x00012e3b
 2f8:	3a0e0319 	bcc	380f64 <__bss_end__+0x3769a4>
 2fc:	270b3b0b 	strcs	r3, [fp, -fp, lsl #22]
 300:	01193c19 	tsteq	r9, r9, lsl ip
 304:	3c000013 	stccc	0, cr0, [r0], {19}
 308:	13490005 	movtne	r0, #36869	; 0x9005
 30c:	2e3d0000 	cdpcs	0, 3, cr0, cr13, cr0, {0}
 310:	03193f00 	tsteq	r9, #0, 30
 314:	3b0b3a0e 	blcc	2ceb54 <__bss_end__+0x2c4594>
 318:	4919270b 	ldmdbmi	r9, {r0, r1, r3, r8, r9, sl, sp}
 31c:	00193c13 	andseq	r3, r9, r3, lsl ip
 320:	012e3e00 	teqeq	lr, r0, lsl #28
 324:	0e03193f 	mcreq	9, 0, r1, cr3, cr15, {1}
 328:	0b3b0b3a 	bleq	ec3018 <__bss_end__+0xeb8a58>
 32c:	13491927 	movtne	r1, #39207	; 0x9927
 330:	1301193c 	movwne	r1, #6460	; 0x193c
 334:	2e3f0000 	cdpcs	0, 3, cr0, cr15, cr0, {0}
 338:	03193f00 	tsteq	r9, #0, 30
 33c:	3b0b3a0e 	blcc	2ceb7c <__bss_end__+0x2c45bc>
 340:	3c19270b 	ldccc	7, cr2, [r9], {11}
 344:	40000019 	andmi	r0, r0, r9, lsl r0
 348:	193f012e 	ldmdbne	pc!, {r1, r2, r3, r5, r8}	; <UNPREDICTABLE>
 34c:	0b3a0e03 	bleq	e83b60 <__bss_end__+0xe795a0>
 350:	19270b3b 	stmdbne	r7!, {r0, r1, r3, r4, r5, r8, r9, fp}
 354:	0000193c 	andeq	r1, r0, ip, lsr r9
 358:	01110100 	tsteq	r1, r0, lsl #2
 35c:	0b130e25 	bleq	4c3bf8 <__bss_end__+0x4b9638>
 360:	0e1b0e03 	cdpeq	14, 1, cr0, cr11, cr3, {0}
 364:	06120111 			; <UNDEFINED> instruction: 0x06120111
 368:	00001710 	andeq	r1, r0, r0, lsl r7
 36c:	03001602 	movweq	r1, #1538	; 0x602
 370:	3b0b3a0e 	blcc	2cebb0 <__bss_end__+0x2c45f0>
 374:	0013490b 	andseq	r4, r3, fp, lsl #18
 378:	01130300 	tsteq	r3, r0, lsl #6
 37c:	0b0b0e03 	bleq	2c3b90 <__bss_end__+0x2b95d0>
 380:	0b3b0b3a 	bleq	ec3070 <__bss_end__+0xeb8ab0>
 384:	00001301 	andeq	r1, r0, r1, lsl #6
 388:	03000d04 	movweq	r0, #3332	; 0xd04
 38c:	3813490e 	ldmdacc	r3, {r1, r2, r3, r8, fp, lr}
 390:	0019340b 	andseq	r3, r9, fp, lsl #8
 394:	000f0500 	andeq	r0, pc, r0, lsl #10
 398:	00000b0b 	andeq	r0, r0, fp, lsl #22
 39c:	0b002406 	bleq	93bc <gpio_int_falling_edge+0x80>
 3a0:	030b3e0b 	movweq	r3, #48651	; 0xbe0b
 3a4:	07000008 	streq	r0, [r0, -r8]
 3a8:	0b0b0024 	bleq	2c0440 <__bss_end__+0x2b5e80>
 3ac:	0e030b3e 	vmoveq.16	d3[0], r0
 3b0:	0f080000 	svceq	0x00080000
 3b4:	490b0b00 	stmdbmi	fp, {r8, r9, fp}
 3b8:	09000013 	stmdbeq	r0, {r0, r1, r4}
 3bc:	13490026 	movtne	r0, #36902	; 0x9026
 3c0:	2e0a0000 	cdpcs	0, 0, cr0, cr10, cr0, {0}
 3c4:	03193f01 	tsteq	r9, #1, 30
 3c8:	3b0b3a0e 	blcc	2cec08 <__bss_end__+0x2c4648>
 3cc:	4919270b 	ldmdbmi	r9, {r0, r1, r3, r8, r9, sl, sp}
 3d0:	12011113 	andne	r1, r1, #-1073741820	; 0xc0000004
 3d4:	97184006 	ldrls	r4, [r8, -r6]
 3d8:	13011942 	movwne	r1, #6466	; 0x1942
 3dc:	050b0000 	streq	r0, [fp, #-0]
 3e0:	3a080300 	bcc	200fe8 <__bss_end__+0x1f6a28>
 3e4:	490b3b0b 	stmdbmi	fp, {r0, r1, r3, r8, r9, fp, ip, sp}
 3e8:	00180213 	andseq	r0, r8, r3, lsl r2
 3ec:	00180c00 	andseq	r0, r8, r0, lsl #24
 3f0:	340d0000 	strcc	r0, [sp], #-0
 3f4:	3a080300 	bcc	200ffc <__bss_end__+0x1f6a3c>
 3f8:	490b3b0b 	stmdbmi	fp, {r0, r1, r3, r8, r9, fp, ip, sp}
 3fc:	00180213 	andseq	r0, r8, r3, lsl r2
 400:	00340e00 	eorseq	r0, r4, r0, lsl #28
 404:	0b3a0e03 	bleq	e83c18 <__bss_end__+0xe79658>
 408:	13490b3b 	movtne	r0, #39739	; 0x9b3b
 40c:	00001802 	andeq	r1, r0, r2, lsl #16
 410:	0300340f 	movweq	r3, #1039	; 0x40f
 414:	3b0b3a08 	blcc	2cec3c <__bss_end__+0x2c467c>
 418:	0213490b 	andseq	r4, r3, #180224	; 0x2c000
 41c:	10000017 	andne	r0, r0, r7, lsl r0
 420:	01018289 	smlabbeq	r1, r9, r2, r8
 424:	13310111 	teqne	r1, #1073741828	; 0x40000004
 428:	00001301 	andeq	r1, r0, r1, lsl #6
 42c:	01828a11 	orreq	r8, r2, r1, lsl sl
 430:	91180200 	tstls	r8, r0, lsl #4
 434:	00001842 	andeq	r1, r0, r2, asr #16
 438:	01828912 	orreq	r8, r2, r2, lsl r9
 43c:	00011101 	andeq	r1, r1, r1, lsl #2
 440:	01011300 	mrseq	r1, SP_irq
 444:	13011349 	movwne	r1, #4937	; 0x1349
 448:	21140000 	tstcs	r4, r0
 44c:	2f134900 	svccs	0x00134900
 450:	15000005 	strne	r0, [r0, #-5]
 454:	19270115 	stmdbne	r7!, {r0, r2, r4, r8}
 458:	13011349 	movwne	r1, #4937	; 0x1349
 45c:	05160000 	ldreq	r0, [r6, #-0]
 460:	00134900 	andseq	r4, r3, r0, lsl #18
 464:	00341700 	eorseq	r1, r4, r0, lsl #14
 468:	0b3a0e03 	bleq	e83c7c <__bss_end__+0xe796bc>
 46c:	13490b3b 	movtne	r0, #39739	; 0x9b3b
 470:	193c193f 	ldmdbne	ip!, {r0, r1, r2, r3, r4, r5, r8, fp, ip}
 474:	2e180000 	cdpcs	0, 1, cr0, cr8, cr0, {0}
 478:	03193f01 	tsteq	r9, #1, 30
 47c:	3b0b3a0e 	blcc	2cecbc <__bss_end__+0x2c46fc>
 480:	4919270b 	ldmdbmi	r9, {r0, r1, r3, r8, r9, sl, sp}
 484:	00193c13 	andseq	r3, r9, r3, lsl ip
 488:	11010000 	mrsne	r0, (UNDEF: 1)
 48c:	130e2501 	movwne	r2, #58625	; 0xe501
 490:	1b0e030b 	blne	3810c4 <__bss_end__+0x376b04>
 494:	1201110e 	andne	r1, r1, #-2147483645	; 0x80000003
 498:	00171006 	andseq	r1, r7, r6
 49c:	00240200 	eoreq	r0, r4, r0, lsl #4
 4a0:	0b3e0b0b 	bleq	f830d4 <__bss_end__+0xf78b14>
 4a4:	00000803 	andeq	r0, r0, r3, lsl #16
 4a8:	0b002403 	bleq	94bc <int_init+0x20>
 4ac:	030b3e0b 	movweq	r3, #48651	; 0xbe0b
 4b0:	0400000e 	streq	r0, [r0], #-14
 4b4:	0b0b000f 	bleq	2c04f8 <__bss_end__+0x2b5f38>
 4b8:	00001349 	andeq	r1, r0, r9, asr #6
 4bc:	49002605 	stmdbmi	r0, {r0, r2, r9, sl, sp}
 4c0:	06000013 			; <UNDEFINED> instruction: 0x06000013
 4c4:	193f012e 	ldmdbne	pc!, {r1, r2, r3, r5, r8}	; <UNPREDICTABLE>
 4c8:	0b3a0e03 	bleq	e83cdc <__bss_end__+0xe7971c>
 4cc:	19270b3b 	stmdbne	r7!, {r0, r1, r3, r4, r5, r8, r9, fp}
 4d0:	01111349 	tsteq	r1, r9, asr #6
 4d4:	18400612 	stmdane	r0, {r1, r4, r9, sl}^
 4d8:	01194296 			; <UNDEFINED> instruction: 0x01194296
 4dc:	07000013 	smladeq	r0, r3, r0, r0
 4e0:	08030005 	stmdaeq	r3, {r0, r2}
 4e4:	0b3b0b3a 	bleq	ec31d4 <__bss_end__+0xeb8c14>
 4e8:	17021349 	strne	r1, [r2, -r9, asr #6]
 4ec:	15080000 	strne	r0, [r8, #-0]
 4f0:	49192701 	ldmdbmi	r9, {r0, r8, r9, sl, sp}
 4f4:	00130113 	andseq	r0, r3, r3, lsl r1
 4f8:	00050900 	andeq	r0, r5, r0, lsl #18
 4fc:	00001349 	andeq	r1, r0, r9, asr #6
 500:	0300340a 	movweq	r3, #1034	; 0x40a
 504:	3b0b3a0e 	blcc	2ced44 <__bss_end__+0x2c4784>
 508:	3f13490b 	svccc	0x0013490b
 50c:	00193c19 	andseq	r3, r9, r9, lsl ip
 510:	00340b00 	eorseq	r0, r4, r0, lsl #22
 514:	0b3a0e03 	bleq	e83d28 <__bss_end__+0xe79768>
 518:	13490b3b 	movtne	r0, #39739	; 0x9b3b
 51c:	1802193f 	stmdane	r2, {r0, r1, r2, r3, r4, r5, r8, fp, ip}
 520:	01000000 	mrseq	r0, (UNDEF: 0)
 524:	0e250111 	mcreq	1, 1, r0, cr5, cr1, {0}
 528:	0e030b13 	vmoveq.32	d3[0], r0
 52c:	01110e1b 	tsteq	r1, fp, lsl lr
 530:	17100612 			; <UNDEFINED> instruction: 0x17100612
 534:	24020000 	strcs	r0, [r2], #-0
 538:	3e0b0b00 	vmlacc.f64	d0, d11, d0
 53c:	0008030b 	andeq	r0, r8, fp, lsl #6
 540:	00240300 	eoreq	r0, r4, r0, lsl #6
 544:	0b3e0b0b 	bleq	f83178 <__bss_end__+0xf78bb8>
 548:	00000e03 	andeq	r0, r0, r3, lsl #28
 54c:	0b000f04 	bleq	4164 <_start-0x3e9c>
 550:	0500000b 	streq	r0, [r0, #-11]
 554:	0b0b000f 	bleq	2c0598 <__bss_end__+0x2b5fd8>
 558:	00001349 	andeq	r1, r0, r9, asr #6
 55c:	49002606 	stmdbmi	r0, {r1, r2, r9, sl, sp}
 560:	07000013 	smladeq	r0, r3, r0, r0
 564:	0e030016 	mcreq	0, 0, r0, cr3, cr6, {0}
 568:	0b3b0b3a 	bleq	ec3258 <__bss_end__+0xeb8c98>
 56c:	00001349 	andeq	r1, r0, r9, asr #6
 570:	03011308 	movweq	r1, #4872	; 0x1308
 574:	3a0b0b0e 	bcc	2c31b4 <__bss_end__+0x2b8bf4>
 578:	010b3b0b 	tsteq	fp, fp, lsl #22
 57c:	09000013 	stmdbeq	r0, {r0, r1, r4}
 580:	0e03000d 	cdpeq	0, 0, cr0, cr3, cr13, {0}
 584:	0b381349 	bleq	e052b0 <__bss_end__+0xdfacf0>
 588:	00001934 	andeq	r1, r0, r4, lsr r9
 58c:	03012e0a 	movweq	r2, #7690	; 0x1e0a
 590:	3b0b3a0e 	blcc	2cedd0 <__bss_end__+0x2c4810>
 594:	4919270b 	ldmdbmi	r9, {r0, r1, r3, r8, r9, sl, sp}
 598:	12011113 	andne	r1, r1, #-1073741820	; 0xc0000004
 59c:	97184006 	ldrls	r4, [r8, -r6]
 5a0:	13011942 	movwne	r1, #6466	; 0x1942
 5a4:	050b0000 	streq	r0, [fp, #-0]
 5a8:	3a080300 	bcc	2011b0 <__bss_end__+0x1f6bf0>
 5ac:	490b3b0b 	stmdbmi	fp, {r0, r1, r3, r8, r9, fp, ip, sp}
 5b0:	00170213 	andseq	r0, r7, r3, lsl r2
 5b4:	012e0c00 	teqeq	lr, r0, lsl #24
 5b8:	0b3a0803 	bleq	e825cc <__bss_end__+0xe7800c>
 5bc:	19270b3b 	stmdbne	r7!, {r0, r1, r3, r4, r5, r8, r9, fp}
 5c0:	01111349 	tsteq	r1, r9, asr #6
 5c4:	18400612 	stmdane	r0, {r1, r4, r9, sl}^
 5c8:	01194297 			; <UNDEFINED> instruction: 0x01194297
 5cc:	0d000013 	stceq	0, cr0, [r0, #-76]	; 0xffffffb4
 5d0:	0e030005 	cdpeq	0, 0, cr0, cr3, cr5, {0}
 5d4:	0b3b0b3a 	bleq	ec32c4 <__bss_end__+0xeb8d04>
 5d8:	17021349 	strne	r1, [r2, -r9, asr #6]
 5dc:	050e0000 	streq	r0, [lr, #-0]
 5e0:	3a0e0300 	bcc	3811e8 <__bss_end__+0x376c28>
 5e4:	490b3b0b 	stmdbmi	fp, {r0, r1, r3, r8, r9, fp, ip, sp}
 5e8:	00180213 	andseq	r0, r8, r3, lsl r2
 5ec:	00340f00 	eorseq	r0, r4, r0, lsl #30
 5f0:	0b3a0803 	bleq	e82604 <__bss_end__+0xe78044>
 5f4:	13490b3b 	movtne	r0, #39739	; 0x9b3b
 5f8:	00001802 	andeq	r1, r0, r2, lsl #16
 5fc:	03003410 	movweq	r3, #1040	; 0x410
 600:	3b0b3a08 	blcc	2cee28 <__bss_end__+0x2c4868>
 604:	0213490b 	andseq	r4, r3, #180224	; 0x2c000
 608:	11000017 	tstne	r0, r7, lsl r0
 60c:	0e030034 	mcreq	0, 0, r0, cr3, cr4, {1}
 610:	19341349 	ldmdbne	r4!, {r0, r3, r6, r8, r9, ip}
 614:	00001802 	andeq	r1, r0, r2, lsl #16
 618:	11010b12 	tstne	r1, r2, lsl fp
 61c:	01061201 	tsteq	r6, r1, lsl #4
 620:	13000013 	movwne	r0, #19
 624:	0e030034 	mcreq	0, 0, r0, cr3, cr4, {1}
 628:	0b3b0b3a 	bleq	ec3318 <__bss_end__+0xeb8d58>
 62c:	17021349 	strne	r1, [r2, -r9, asr #6]
 630:	89140000 	ldmdbhi	r4, {}	; <UNPREDICTABLE>
 634:	11010182 	smlabbne	r1, r2, r1, r0
 638:	01133101 	tsteq	r3, r1, lsl #2
 63c:	15000013 	strne	r0, [r0, #-19]
 640:	0001828a 	andeq	r8, r1, sl, lsl #5
 644:	42911802 	addsmi	r1, r1, #131072	; 0x20000
 648:	16000018 			; <UNDEFINED> instruction: 0x16000018
 64c:	00018289 	andeq	r8, r1, r9, lsl #5
 650:	13310111 	teqne	r1, #1073741828	; 0x40000004
 654:	89170000 	ldmdbhi	r7, {}	; <UNPREDICTABLE>
 658:	11010182 	smlabbne	r1, r2, r1, r0
 65c:	00133101 	andseq	r3, r3, r1, lsl #2
 660:	01011800 	tsteq	r1, r0, lsl #16
 664:	13011349 	movwne	r1, #4937	; 0x1349
 668:	21190000 	tstcs	r9, r0
 66c:	2f134900 	svccs	0x00134900
 670:	1a00000b 	bne	6a4 <_start-0x795c>
 674:	193f012e 	ldmdbne	pc!, {r1, r2, r3, r5, r8}	; <UNPREDICTABLE>
 678:	0b3a0e03 	bleq	e83e8c <__bss_end__+0xe798cc>
 67c:	19270b3b 	stmdbne	r7!, {r0, r1, r3, r4, r5, r8, r9, fp}
 680:	06120111 			; <UNDEFINED> instruction: 0x06120111
 684:	42971840 	addsmi	r1, r7, #64, 16	; 0x400000
 688:	00130119 	andseq	r0, r3, r9, lsl r1
 68c:	01151b00 	tsteq	r5, r0, lsl #22
 690:	13491927 	movtne	r1, #39207	; 0x9927
 694:	00001301 	andeq	r1, r0, r1, lsl #6
 698:	4900051c 	stmdbmi	r0, {r2, r3, r4, r8, sl}
 69c:	1d000013 	stcne	0, cr0, [r0, #-76]	; 0xffffffb4
 6a0:	193f012e 	ldmdbne	pc!, {r1, r2, r3, r5, r8}	; <UNPREDICTABLE>
 6a4:	0b3a0e03 	bleq	e83eb8 <__bss_end__+0xe798f8>
 6a8:	19270b3b 	stmdbne	r7!, {r0, r1, r3, r4, r5, r8, r9, fp}
 6ac:	01111349 	tsteq	r1, r9, asr #6
 6b0:	18400612 	stmdane	r0, {r1, r4, r9, sl}^
 6b4:	01194297 			; <UNDEFINED> instruction: 0x01194297
 6b8:	1e000013 	mcrne	0, 0, r0, cr0, cr3, {0}
 6bc:	0111010b 	tsteq	r1, fp, lsl #2
 6c0:	00000612 	andeq	r0, r0, r2, lsl r6
 6c4:	0300341f 	movweq	r3, #1055	; 0x41f
 6c8:	3b0b3a0e 	blcc	2cef08 <__bss_end__+0x2c4948>
 6cc:	3f13490b 	svccc	0x0013490b
 6d0:	00193c19 	andseq	r3, r9, r9, lsl ip
 6d4:	012e2000 	teqeq	lr, r0
 6d8:	0e03193f 	mcreq	9, 0, r1, cr3, cr15, {1}
 6dc:	0b3b0b3a 	bleq	ec33cc <__bss_end__+0xeb8e0c>
 6e0:	13491927 	movtne	r1, #39207	; 0x9927
 6e4:	1301193c 	movwne	r1, #6460	; 0x193c
 6e8:	18210000 	stmdane	r1!, {}	; <UNPREDICTABLE>
 6ec:	22000000 	andcs	r0, r0, #0
 6f0:	193f002e 	ldmdbne	pc!, {r1, r2, r3, r5}	; <UNPREDICTABLE>
 6f4:	0b3a0e03 	bleq	e83f08 <__bss_end__+0xe79948>
 6f8:	19270b3b 	stmdbne	r7!, {r0, r1, r3, r4, r5, r8, r9, fp}
 6fc:	0000193c 	andeq	r1, r0, ip, lsr r9
 700:	01110100 	tsteq	r1, r0, lsl #2
 704:	0b130e25 	bleq	4c3fa0 <__bss_end__+0x4b99e0>
 708:	0e1b0e03 	cdpeq	14, 1, cr0, cr11, cr3, {0}
 70c:	06120111 			; <UNDEFINED> instruction: 0x06120111
 710:	00001710 	andeq	r1, r0, r0, lsl r7
 714:	0b002402 	bleq	9724 <fast_interrupt_asm+0x18>
 718:	030b3e0b 	movweq	r3, #48651	; 0xbe0b
 71c:	03000008 	movweq	r0, #8
 720:	0b0b0024 	bleq	2c07b8 <__bss_end__+0x2b61f8>
 724:	0e030b3e 	vmoveq.16	d3[0], r0
 728:	0f040000 	svceq	0x00040000
 72c:	490b0b00 	stmdbmi	fp, {r8, r9, fp}
 730:	05000013 	streq	r0, [r0, #-19]
 734:	13490026 	movtne	r0, #36902	; 0x9026
 738:	2e060000 	cdpcs	0, 0, cr0, cr6, cr0, {0}
 73c:	03193f01 	tsteq	r9, #1, 30
 740:	3b0b3a0e 	blcc	2cef80 <__bss_end__+0x2c49c0>
 744:	1119270b 	tstne	r9, fp, lsl #14
 748:	40061201 	andmi	r1, r6, r1, lsl #4
 74c:	19429718 	stmdbne	r2, {r3, r4, r8, r9, sl, ip, pc}^
 750:	00001301 	andeq	r1, r0, r1, lsl #6
 754:	01828907 	orreq	r8, r2, r7, lsl #18
 758:	01011101 	tsteq	r1, r1, lsl #2
 75c:	08000013 	stmdaeq	r0, {r0, r1, r4}
 760:	0001828a 	andeq	r8, r1, sl, lsl #5
 764:	42911802 	addsmi	r1, r1, #131072	; 0x20000
 768:	09000018 	stmdbeq	r0, {r3, r4}
 76c:	01018289 	smlabbeq	r1, r9, r2, r8
 770:	13310111 	teqne	r1, #1073741828	; 0x40000004
 774:	00001301 	andeq	r1, r0, r1, lsl #6
 778:	0182890a 	orreq	r8, r2, sl, lsl #18
 77c:	31011100 	mrscc	r1, (UNDEF: 17)
 780:	0b000013 	bleq	7d4 <_start-0x782c>
 784:	19270115 	stmdbne	r7!, {r0, r2, r4, r8}
 788:	13011349 	movwne	r1, #4937	; 0x1349
 78c:	050c0000 	streq	r0, [ip, #-0]
 790:	00134900 	andseq	r4, r3, r0, lsl #18
 794:	00340d00 	eorseq	r0, r4, r0, lsl #26
 798:	0b3a0e03 	bleq	e83fac <__bss_end__+0xe799ec>
 79c:	13490b3b 	movtne	r0, #39739	; 0x9b3b
 7a0:	193c193f 	ldmdbne	ip!, {r0, r1, r2, r3, r4, r5, r8, fp, ip}
 7a4:	2e0e0000 	cdpcs	0, 0, cr0, cr14, cr0, {0}
 7a8:	03193f01 	tsteq	r9, #1, 30
 7ac:	3b0b3a0e 	blcc	2cefec <__bss_end__+0x2c4a2c>
 7b0:	3c19270b 	ldccc	7, cr2, [r9], {11}
 7b4:	00130119 	andseq	r0, r3, r9, lsl r1
 7b8:	002e0f00 	eoreq	r0, lr, r0, lsl #30
 7bc:	0e03193f 	mcreq	9, 0, r1, cr3, cr15, {1}
 7c0:	0b3b0b3a 	bleq	ec34b0 <__bss_end__+0xeb8ef0>
 7c4:	193c1927 	ldmdbne	ip!, {r0, r1, r2, r5, r8, fp, ip}
 7c8:	01000000 	mrseq	r0, (UNDEF: 0)
 7cc:	0e250111 	mcreq	1, 1, r0, cr5, cr1, {0}
 7d0:	0e030b13 	vmoveq.32	d3[0], r0
 7d4:	01110e1b 	tsteq	r1, fp, lsl lr
 7d8:	17100612 			; <UNDEFINED> instruction: 0x17100612
 7dc:	24020000 	strcs	r0, [r2], #-0
 7e0:	3e0b0b00 	vmlacc.f64	d0, d11, d0
 7e4:	0008030b 	andeq	r0, r8, fp, lsl #6
 7e8:	00240300 	eoreq	r0, r4, r0, lsl #6
 7ec:	0b3e0b0b 	bleq	f83420 <__bss_end__+0xf78e60>
 7f0:	00000e03 	andeq	r0, r0, r3, lsl #28
 7f4:	3f012e04 	svccc	0x00012e04
 7f8:	3a0e0319 	bcc	381464 <__bss_end__+0x376ea4>
 7fc:	110b3b0b 	tstne	fp, fp, lsl #22
 800:	40061201 	andmi	r1, r6, r1, lsl #4
 804:	19429718 	stmdbne	r2, {r3, r4, r8, r9, sl, ip, pc}^
 808:	00001301 	andeq	r1, r0, r1, lsl #6
 80c:	03003405 	movweq	r3, #1029	; 0x405
 810:	3b0b3a0e 	blcc	2cf050 <__bss_end__+0x2c4a90>
 814:	3f13490b 	svccc	0x0013490b
 818:	00193c19 	andseq	r3, r9, r9, lsl ip
 81c:	012e0600 	teqeq	lr, r0, lsl #12
 820:	0e03193f 	mcreq	9, 0, r1, cr3, cr15, {1}
 824:	0b3b0b3a 	bleq	ec3514 <__bss_end__+0xeb8f54>
 828:	1301193c 	movwne	r1, #6460	; 0x193c
 82c:	18070000 	stmdane	r7, {}	; <UNPREDICTABLE>
 830:	08000000 	stmdaeq	r0, {}	; <UNPREDICTABLE>
 834:	08030034 	stmdaeq	r3, {r2, r4, r5}
 838:	0b3b0b3a 	bleq	ec3528 <__bss_end__+0xeb8f68>
 83c:	17021349 	strne	r1, [r2, -r9, asr #6]
 840:	34090000 	strcc	r0, [r9], #-0
 844:	3a0e0300 	bcc	38144c <__bss_end__+0x376e8c>
 848:	490b3b0b 	stmdbmi	fp, {r0, r1, r3, r8, r9, fp, ip, sp}
 84c:	0a000013 	beq	8a0 <_start-0x7760>
 850:	00018289 	andeq	r8, r1, r9, lsl #5
 854:	13310111 	teqne	r1, #1073741828	; 0x40000004
 858:	0f0b0000 	svceq	0x000b0000
 85c:	490b0b00 	stmdbmi	fp, {r8, r9, fp}
 860:	0c000013 	stceq	0, cr0, [r0], {19}
 864:	193f002e 	ldmdbne	pc!, {r1, r2, r3, r5}	; <UNPREDICTABLE>
 868:	0b3a0e03 	bleq	e8407c <__bss_end__+0xe79abc>
 86c:	19270b3b 	stmdbne	r7!, {r0, r1, r3, r4, r5, r8, r9, fp}
 870:	0000193c 	andeq	r1, r0, ip, lsr r9
 874:	01110100 	tsteq	r1, r0, lsl #2
 878:	0b130e25 	bleq	4c4114 <__bss_end__+0x4b9b54>
 87c:	0e1b0e03 	cdpeq	14, 1, cr0, cr11, cr3, {0}
 880:	01111755 	tsteq	r1, r5, asr r7
 884:	00001710 	andeq	r1, r0, r0, lsl r7
 888:	0b002402 	bleq	9898 <uart_can_putc+0x10>
 88c:	030b3e0b 	movweq	r3, #48651	; 0xbe0b
 890:	03000008 	movweq	r0, #8
 894:	0b0b0024 	bleq	2c092c <__bss_end__+0x2b636c>
 898:	0e030b3e 	vmoveq.16	d3[0], r0
 89c:	2e040000 	cdpcs	0, 0, cr0, cr4, cr0, {0}
 8a0:	03193f01 	tsteq	r9, #1, 30
 8a4:	3b0b3a0e 	blcc	2cf0e4 <__bss_end__+0x2c4b24>
 8a8:	4919270b 	ldmdbmi	r9, {r0, r1, r3, r8, r9, sl, sp}
 8ac:	12011113 	andne	r1, r1, #-1073741820	; 0xc0000004
 8b0:	97184006 	ldrls	r4, [r8, -r6]
 8b4:	13011942 	movwne	r1, #6466	; 0x1942
 8b8:	34050000 	strcc	r0, [r5], #-0
 8bc:	3a0e0300 	bcc	3814c4 <__bss_end__+0x376f04>
 8c0:	490b3b0b 	stmdbmi	fp, {r0, r1, r3, r8, r9, fp, ip, sp}
 8c4:	00170213 	andseq	r0, r7, r3, lsl r2
 8c8:	012e0600 	teqeq	lr, r0, lsl #12
 8cc:	0e03193f 	mcreq	9, 0, r1, cr3, cr15, {1}
 8d0:	0b3b0b3a 	bleq	ec35c0 <__bss_end__+0xeb9000>
 8d4:	01111927 	tsteq	r1, r7, lsr #18
 8d8:	18400612 	stmdane	r0, {r1, r4, r9, sl}^
 8dc:	01194297 			; <UNDEFINED> instruction: 0x01194297
 8e0:	07000013 	smladeq	r0, r3, r0, r0
 8e4:	0e030034 	mcreq	0, 0, r0, cr3, cr4, {1}
 8e8:	0b3b0b3a 	bleq	ec35d8 <__bss_end__+0xeb9018>
 8ec:	061c1349 	ldreq	r1, [ip], -r9, asr #6
 8f0:	34080000 	strcc	r0, [r8], #-0
 8f4:	3a0e0300 	bcc	3814fc <__bss_end__+0x376f3c>
 8f8:	490b3b0b 	stmdbmi	fp, {r0, r1, r3, r8, r9, fp, ip, sp}
 8fc:	000b1c13 	andeq	r1, fp, r3, lsl ip
 900:	82890900 	addhi	r0, r9, #0, 18
 904:	01110001 	tsteq	r1, r1
 908:	00001331 	andeq	r1, r0, r1, lsr r3
 90c:	0182890a 	orreq	r8, r2, sl, lsl #18
 910:	31011101 	tstcc	r1, r1, lsl #2
 914:	00130113 	andseq	r0, r3, r3, lsl r1
 918:	828a0b00 	addhi	r0, sl, #0, 22
 91c:	18020001 	stmdane	r2, {r0}
 920:	00184291 	mulseq	r8, r1, r2
 924:	82890c00 	addhi	r0, r9, #0, 24
 928:	01110101 	tsteq	r1, r1, lsl #2
 92c:	00001331 	andeq	r1, r0, r1, lsr r3
 930:	4900260d 	stmdbmi	r0, {r0, r2, r3, r9, sl, sp}
 934:	0e000013 	mcreq	0, 0, r0, cr0, cr3, {0}
 938:	193f012e 	ldmdbne	pc!, {r1, r2, r3, r5, r8}	; <UNPREDICTABLE>
 93c:	0b3a0e03 	bleq	e84150 <__bss_end__+0xe79b90>
 940:	19270b3b 	stmdbne	r7!, {r0, r1, r3, r4, r5, r8, r9, fp}
 944:	1301193c 	movwne	r1, #6460	; 0x193c
 948:	050f0000 	streq	r0, [pc, #-0]	; 950 <_start-0x76b0>
 94c:	00134900 	andseq	r4, r3, r0, lsl #18
 950:	012e1000 	teqeq	lr, r0
 954:	0e03193f 	mcreq	9, 0, r1, cr3, cr15, {1}
 958:	0b3b0b3a 	bleq	ec3648 <__bss_end__+0xeb9088>
 95c:	193c1927 	ldmdbne	ip!, {r0, r1, r2, r5, r8, fp, ip}
 960:	01000000 	mrseq	r0, (UNDEF: 0)
 964:	0e250111 	mcreq	1, 1, r0, cr5, cr1, {0}
 968:	0e030b13 	vmoveq.32	d3[0], r0
 96c:	01110e1b 	tsteq	r1, fp, lsl lr
 970:	17100612 			; <UNDEFINED> instruction: 0x17100612
 974:	24020000 	strcs	r0, [r2], #-0
 978:	3e0b0b00 	vmlacc.f64	d0, d11, d0
 97c:	0008030b 	andeq	r0, r8, fp, lsl #6
 980:	00240300 	eoreq	r0, r4, r0, lsl #6
 984:	0b3e0b0b 	bleq	f835b8 <__bss_end__+0xf78ff8>
 988:	00000e03 	andeq	r0, r0, r3, lsl #28
 98c:	3f012e04 	svccc	0x00012e04
 990:	3a0e0319 	bcc	3815fc <__bss_end__+0x37703c>
 994:	270b3b0b 	strcs	r3, [fp, -fp, lsl #22]
 998:	12011119 	andne	r1, r1, #1073741830	; 0x40000006
 99c:	97184006 	ldrls	r4, [r8, -r6]
 9a0:	13011942 	movwne	r1, #6466	; 0x1942
 9a4:	05050000 	streq	r0, [r5, #-0]
 9a8:	3a0e0300 	bcc	3815b0 <__bss_end__+0x376ff0>
 9ac:	490b3b0b 	stmdbmi	fp, {r0, r1, r3, r8, r9, fp, ip, sp}
 9b0:	00170213 	andseq	r0, r7, r3, lsl r2
 9b4:	012e0600 	teqeq	lr, r0, lsl #12
 9b8:	0e03193f 	mcreq	9, 0, r1, cr3, cr15, {1}
 9bc:	0b3b0b3a 	bleq	ec36ac <__bss_end__+0xeb90ec>
 9c0:	13491927 	movtne	r1, #39207	; 0x9927
 9c4:	06120111 			; <UNDEFINED> instruction: 0x06120111
 9c8:	42971840 	addsmi	r1, r7, #64, 16	; 0x400000
 9cc:	00130119 	andseq	r0, r3, r9, lsl r1
 9d0:	82890700 	addhi	r0, r9, #0, 14
 9d4:	01110101 	tsteq	r1, r1, lsl #2
 9d8:	00001331 	andeq	r1, r0, r1, lsr r3
 9dc:	01828a08 	orreq	r8, r2, r8, lsl #20
 9e0:	91180200 	tstls	r8, r0, lsl #4
 9e4:	00001842 	andeq	r1, r0, r2, asr #16
 9e8:	03003409 	movweq	r3, #1033	; 0x409
 9ec:	3b0b3a08 	blcc	2cf214 <__bss_end__+0x2c4c54>
 9f0:	0213490b 	andseq	r4, r3, #180224	; 0x2c000
 9f4:	0a000018 	beq	a5c <_start-0x75a4>
 9f8:	00018289 	andeq	r8, r1, r9, lsl #5
 9fc:	13310111 	teqne	r1, #1073741828	; 0x40000004
 a00:	050b0000 	streq	r0, [fp, #-0]
 a04:	3a080300 	bcc	20160c <__bss_end__+0x1f704c>
 a08:	490b3b0b 	stmdbmi	fp, {r0, r1, r3, r8, r9, fp, ip, sp}
 a0c:	00170213 	andseq	r0, r7, r3, lsl r2
 a10:	010b0c00 	tsteq	fp, r0, lsl #24
 a14:	06120111 			; <UNDEFINED> instruction: 0x06120111
 a18:	00001301 	andeq	r1, r0, r1, lsl #6
 a1c:	0300340d 	movweq	r3, #1037	; 0x40d
 a20:	3b0b3a08 	blcc	2cf248 <__bss_end__+0x2c4c88>
 a24:	0213490b 	andseq	r4, r3, #180224	; 0x2c000
 a28:	0e000017 	mcreq	0, 0, r0, cr0, cr7, {0}
 a2c:	193f012e 	ldmdbne	pc!, {r1, r2, r3, r5, r8}	; <UNPREDICTABLE>
 a30:	0b3a0e03 	bleq	e84244 <__bss_end__+0xe79c84>
 a34:	19270b3b 	stmdbne	r7!, {r0, r1, r3, r4, r5, r8, r9, fp}
 a38:	193c1349 	ldmdbne	ip!, {r0, r3, r6, r8, r9, ip}
 a3c:	050f0000 	streq	r0, [pc, #-0]	; a44 <_start-0x75bc>
 a40:	00134900 	andseq	r4, r3, r0, lsl #18
 a44:	11010000 	mrsne	r0, (UNDEF: 1)
 a48:	130e2501 	movwne	r2, #58625	; 0xe501
 a4c:	1b0e030b 	blne	381680 <__bss_end__+0x3770c0>
 a50:	1201110e 	andne	r1, r1, #-2147483645	; 0x80000003
 a54:	00171006 	andseq	r1, r7, r6
 a58:	00240200 	eoreq	r0, r4, r0, lsl #4
 a5c:	0b3e0b0b 	bleq	f83690 <__bss_end__+0xf790d0>
 a60:	00000e03 	andeq	r0, r0, r3, lsl #28
 a64:	0b002403 	bleq	9a78 <__FUNCTION__.4457+0x54>
 a68:	030b3e0b 	movweq	r3, #48651	; 0xbe0b
 a6c:	04000008 	streq	r0, [r0], #-8
 a70:	0b0b0104 	bleq	2c0e88 <__bss_end__+0x2b68c8>
 a74:	0b3b0b3a 	bleq	ec3764 <__bss_end__+0xeb91a4>
 a78:	00001301 	andeq	r1, r0, r1, lsl #6
 a7c:	03002805 	movweq	r2, #2053	; 0x805
 a80:	000d1c0e 	andeq	r1, sp, lr, lsl #24
 a84:	00160600 	andseq	r0, r6, r0, lsl #12
 a88:	0b3a0e03 	bleq	e8429c <__bss_end__+0xe79cdc>
 a8c:	13490b3b 	movtne	r0, #39739	; 0x9b3b
 a90:	2e070000 	cdpcs	0, 0, cr0, cr7, cr0, {0}
 a94:	03193f01 	tsteq	r9, #1, 30
 a98:	3b0b3a0e 	blcc	2cf2d8 <__bss_end__+0x2c4d18>
 a9c:	1119270b 	tstne	r9, fp, lsl #14
 aa0:	40061201 	andmi	r1, r6, r1, lsl #4
 aa4:	19429718 	stmdbne	r2, {r3, r4, r8, r9, sl, ip, pc}^
 aa8:	00001301 	andeq	r1, r0, r1, lsl #6
 aac:	03000508 	movweq	r0, #1288	; 0x508
 ab0:	3b0b3a08 	blcc	2cf2d8 <__bss_end__+0x2c4d18>
 ab4:	0213490b 	andseq	r4, r3, #180224	; 0x2c000
 ab8:	09000017 	stmdbeq	r0, {r0, r1, r2, r4}
 abc:	0e030034 	mcreq	0, 0, r0, cr3, cr4, {1}
 ac0:	0b3b0b3a 	bleq	ec37b0 <__bss_end__+0xeb91f0>
 ac4:	17021349 	strne	r1, [r2, -r9, asr #6]
 ac8:	890a0000 	stmdbhi	sl, {}	; <UNPREDICTABLE>
 acc:	11010182 	smlabbne	r1, r2, r1, r0
 ad0:	01133101 	tsteq	r3, r1, lsl #2
 ad4:	0b000013 	bleq	b28 <_start-0x74d8>
 ad8:	0001828a 	andeq	r8, r1, sl, lsl #5
 adc:	42911802 	addsmi	r1, r1, #131072	; 0x20000
 ae0:	0c000018 	stceq	0, cr0, [r0], {24}
 ae4:	01018289 	smlabbeq	r1, r9, r2, r8
 ae8:	13310111 	teqne	r1, #1073741828	; 0x40000004
 aec:	0f0d0000 	svceq	0x000d0000
 af0:	490b0b00 	stmdbmi	fp, {r8, r9, fp}
 af4:	0e000013 	mcreq	0, 0, r0, cr0, cr3, {0}
 af8:	13490035 	movtne	r0, #36917	; 0x9035
 afc:	2e0f0000 	cdpcs	0, 0, cr0, cr15, cr0, {0}
 b00:	03193f01 	tsteq	r9, #1, 30
 b04:	3b0b3a0e 	blcc	2cf344 <__bss_end__+0x2c4d84>
 b08:	2019270b 	andscs	r2, r9, fp, lsl #14
 b0c:	0013010b 	andseq	r0, r3, fp, lsl #2
 b10:	00051000 	andeq	r1, r5, r0
 b14:	0b3a0803 	bleq	e82b28 <__bss_end__+0xe78568>
 b18:	13490b3b 	movtne	r0, #39739	; 0x9b3b
 b1c:	34110000 	ldrcc	r0, [r1], #-0
 b20:	3a0e0300 	bcc	381728 <__bss_end__+0x377168>
 b24:	490b3b0b 	stmdbmi	fp, {r0, r1, r3, r8, r9, fp, ip, sp}
 b28:	12000013 	andne	r0, r0, #19
 b2c:	1331012e 	teqne	r1, #-2147483637	; 0x8000000b
 b30:	06120111 			; <UNDEFINED> instruction: 0x06120111
 b34:	42971840 	addsmi	r1, r7, #64, 16	; 0x400000
 b38:	00130119 	andseq	r0, r3, r9, lsl r1
 b3c:	00051300 	andeq	r1, r5, r0, lsl #6
 b40:	17021331 	smladxne	r2, r1, r3, r1
 b44:	34140000 	ldrcc	r0, [r4], #-0
 b48:	02133100 	andseq	r3, r3, #0, 2
 b4c:	15000017 	strne	r0, [r0, #-23]
 b50:	193f012e 	ldmdbne	pc!, {r1, r2, r3, r5, r8}	; <UNPREDICTABLE>
 b54:	0b3a0e03 	bleq	e84368 <__bss_end__+0xe79da8>
 b58:	19270b3b 	stmdbne	r7!, {r0, r1, r3, r4, r5, r8, r9, fp}
 b5c:	01111349 	tsteq	r1, r9, asr #6
 b60:	18400612 	stmdane	r0, {r1, r4, r9, sl}^
 b64:	01194297 			; <UNDEFINED> instruction: 0x01194297
 b68:	16000013 			; <UNDEFINED> instruction: 0x16000013
 b6c:	08030034 	stmdaeq	r3, {r2, r4, r5}
 b70:	0b3b0b3a 	bleq	ec3860 <__bss_end__+0xeb92a0>
 b74:	17021349 	strne	r1, [r2, -r9, asr #6]
 b78:	89170000 	ldmdbhi	r7, {}	; <UNPREDICTABLE>
 b7c:	11000182 	smlabbne	r0, r2, r1, r0
 b80:	00133101 	andseq	r3, r3, r1, lsl #2
 b84:	011d1800 	tsteq	sp, r0, lsl #16
 b88:	01111331 	tsteq	r1, r1, lsr r3
 b8c:	0b580612 	bleq	16023dc <__bss_end__+0x15f7e1c>
 b90:	13010b59 	movwne	r0, #7001	; 0x1b59
 b94:	0b190000 	bleq	640b9c <__bss_end__+0x6365dc>
 b98:	12011101 	andne	r1, r1, #1073741824	; 0x40000000
 b9c:	1a000006 	bne	bbc <_start-0x7444>
 ba0:	1331011d 	teqne	r1, #1073741831	; 0x40000007
 ba4:	06120111 			; <UNDEFINED> instruction: 0x06120111
 ba8:	0b590b58 	bleq	1643910 <__bss_end__+0x1639350>
 bac:	051b0000 	ldreq	r0, [fp, #-0]
 bb0:	3a0e0300 	bcc	3817b8 <__bss_end__+0x3771f8>
 bb4:	490b3b0b 	stmdbmi	fp, {r0, r1, r3, r8, r9, fp, ip, sp}
 bb8:	00170213 	andseq	r0, r7, r3, lsl r2
 bbc:	012e1c00 	teqeq	lr, r0, lsl #24
 bc0:	0e03193f 	mcreq	9, 0, r1, cr3, cr15, {1}
 bc4:	053b0b3a 	ldreq	r0, [fp, #-2874]!	; 0xb3a
 bc8:	13491927 	movtne	r1, #39207	; 0x9927
 bcc:	06120111 			; <UNDEFINED> instruction: 0x06120111
 bd0:	42971840 	addsmi	r1, r7, #64, 16	; 0x400000
 bd4:	00130119 	andseq	r0, r3, r9, lsl r1
 bd8:	00051d00 	andeq	r1, r5, r0, lsl #26
 bdc:	0b3a0e03 	bleq	e843f0 <__bss_end__+0xe79e30>
 be0:	1349053b 	movtne	r0, #38203	; 0x953b
 be4:	00001702 	andeq	r1, r0, r2, lsl #14
 be8:	3f012e1e 	svccc	0x00012e1e
 bec:	3a0e0319 	bcc	381858 <__bss_end__+0x377298>
 bf0:	27053b0b 	strcs	r3, [r5, -fp, lsl #22]
 bf4:	12011119 	andne	r1, r1, #1073741830	; 0x40000006
 bf8:	97184006 	ldrls	r4, [r8, -r6]
 bfc:	13011942 	movwne	r1, #6466	; 0x1942
 c00:	051f0000 	ldreq	r0, [pc, #-0]	; c08 <_start-0x73f8>
 c04:	3a080300 	bcc	20180c <__bss_end__+0x1f724c>
 c08:	49053b0b 	stmdbmi	r5, {r0, r1, r3, r8, r9, fp, ip, sp}
 c0c:	00170213 	andseq	r0, r7, r3, lsl r2
 c10:	00342000 	eorseq	r2, r4, r0
 c14:	0b3a0e03 	bleq	e84428 <__bss_end__+0xe79e68>
 c18:	1349053b 	movtne	r0, #38203	; 0x953b
 c1c:	00001702 	andeq	r1, r0, r2, lsl #14
 c20:	11010b21 	tstne	r1, r1, lsr #22
 c24:	01061201 	tsteq	r6, r1, lsl #4
 c28:	22000013 	andcs	r0, r0, #19
 c2c:	0e030034 	mcreq	0, 0, r0, cr3, cr4, {1}
 c30:	0b3b0b3a 	bleq	ec3920 <__bss_end__+0xeb9360>
 c34:	193f1349 	ldmdbne	pc!, {r0, r3, r6, r8, r9, ip}	; <UNPREDICTABLE>
 c38:	00001802 	andeq	r1, r0, r2, lsl #16
 c3c:	3f012e23 	svccc	0x00012e23
 c40:	3a0e0319 	bcc	3818ac <__bss_end__+0x3772ec>
 c44:	270b3b0b 	strcs	r3, [fp, -fp, lsl #22]
 c48:	3c134919 	ldccc	9, cr4, [r3], {25}
 c4c:	00130119 	andseq	r0, r3, r9, lsl r1
 c50:	00052400 	andeq	r2, r5, r0, lsl #8
 c54:	00001349 	andeq	r1, r0, r9, asr #6
 c58:	49002625 	stmdbmi	r0, {r0, r2, r5, r9, sl, sp}
 c5c:	26000013 			; <UNDEFINED> instruction: 0x26000013
 c60:	00000035 	andeq	r0, r0, r5, lsr r0
 c64:	3f012e27 	svccc	0x00012e27
 c68:	3a0e0319 	bcc	3818d4 <__bss_end__+0x377314>
 c6c:	270b3b0b 	strcs	r3, [fp, -fp, lsl #22]
 c70:	01193c19 	tsteq	r9, r9, lsl ip
 c74:	28000013 	stmdacs	r0, {r0, r1, r4}
 c78:	193f002e 	ldmdbne	pc!, {r1, r2, r3, r5}	; <UNPREDICTABLE>
 c7c:	0b3a0e03 	bleq	e84490 <__bss_end__+0xe79ed0>
 c80:	19270b3b 	stmdbne	r7!, {r0, r1, r3, r4, r5, r8, r9, fp}
 c84:	0000193c 	andeq	r1, r0, ip, lsr r9
 c88:	01110100 	tsteq	r1, r0, lsl #2
 c8c:	0b130e25 	bleq	4c4528 <__bss_end__+0x4b9f68>
 c90:	0e1b0e03 	cdpeq	14, 1, cr0, cr11, cr3, {0}
 c94:	06120111 			; <UNDEFINED> instruction: 0x06120111
 c98:	00001710 	andeq	r1, r0, r0, lsl r7
 c9c:	0b002402 	bleq	9cac <__FUNCTION__.4187+0x4>
 ca0:	030b3e0b 	movweq	r3, #48651	; 0xbe0b
 ca4:	03000008 	movweq	r0, #8
 ca8:	0b0b0024 	bleq	2c0d40 <__bss_end__+0x2b6780>
 cac:	0e030b3e 	vmoveq.16	d3[0], r0
 cb0:	0f040000 	svceq	0x00040000
 cb4:	490b0b00 	stmdbmi	fp, {r8, r9, fp}
 cb8:	05000013 	streq	r0, [r0, #-19]
 cbc:	13490026 	movtne	r0, #36902	; 0x9026
 cc0:	01060000 	mrseq	r0, (UNDEF: 6)
 cc4:	01134901 	tsteq	r3, r1, lsl #18
 cc8:	07000013 	smladeq	r0, r3, r0, r0
 ccc:	13490021 	movtne	r0, #36897	; 0x9021
 cd0:	00000b2f 	andeq	r0, r0, pc, lsr #22
 cd4:	0b010408 	bleq	41cfc <__bss_end__+0x3773c>
 cd8:	3b0b3a0b 	blcc	2cf50c <__bss_end__+0x2c4f4c>
 cdc:	0013010b 	andseq	r0, r3, fp, lsl #2
 ce0:	00280900 	eoreq	r0, r8, r0, lsl #18
 ce4:	0d1c0e03 	ldceq	14, cr0, [ip, #-12]
 ce8:	2e0a0000 	cdpcs	0, 0, cr0, cr10, cr0, {0}
 cec:	03193f01 	tsteq	r9, #1, 30
 cf0:	3b0b3a0e 	blcc	2cf530 <__bss_end__+0x2c4f70>
 cf4:	1119270b 	tstne	r9, fp, lsl #14
 cf8:	40061201 	andmi	r1, r6, r1, lsl #4
 cfc:	19429718 	stmdbne	r2, {r3, r4, r8, r9, sl, ip, pc}^
 d00:	00001301 	andeq	r1, r0, r1, lsl #6
 d04:	0300340b 	movweq	r3, #1035	; 0x40b
 d08:	3b0b3a0e 	blcc	2cf548 <__bss_end__+0x2c4f88>
 d0c:	3f13490b 	svccc	0x0013490b
 d10:	00193c19 	andseq	r3, r9, r9, lsl ip
 d14:	00340c00 	eorseq	r0, r4, r0, lsl #24
 d18:	0b3a0803 	bleq	e82d2c <__bss_end__+0xe7876c>
 d1c:	13490b3b 	movtne	r0, #39739	; 0x9b3b
 d20:	00000b1c 	andeq	r0, r0, ip, lsl fp
 d24:	0300340d 	movweq	r3, #1037	; 0x40d
 d28:	3b0b3a08 	blcc	2cf550 <__bss_end__+0x2c4f90>
 d2c:	0013490b 	andseq	r4, r3, fp, lsl #18
 d30:	00340e00 	eorseq	r0, r4, r0, lsl #28
 d34:	0b3a0803 	bleq	e82d48 <__bss_end__+0xe78788>
 d38:	13490b3b 	movtne	r0, #39739	; 0x9b3b
 d3c:	00001802 	andeq	r1, r0, r2, lsl #16
 d40:	11010b0f 	tstne	r1, pc, lsl #22
 d44:	01061201 	tsteq	r6, r1, lsl #4
 d48:	10000013 	andne	r0, r0, r3, lsl r0
 d4c:	08030034 	stmdaeq	r3, {r2, r4, r5}
 d50:	0b3b0b3a 	bleq	ec3a40 <__bss_end__+0xeb9480>
 d54:	17021349 	strne	r1, [r2, -r9, asr #6]
 d58:	89110000 	ldmdbhi	r1, {}	; <UNPREDICTABLE>
 d5c:	11010182 	smlabbne	r1, r2, r1, r0
 d60:	01133101 	tsteq	r3, r1, lsl #2
 d64:	12000013 	andne	r0, r0, #19
 d68:	0001828a 	andeq	r8, r1, sl, lsl #5
 d6c:	42911802 	addsmi	r1, r1, #131072	; 0x20000
 d70:	13000018 	movwne	r0, #24
 d74:	00018289 	andeq	r8, r1, r9, lsl #5
 d78:	13310111 	teqne	r1, #1073741828	; 0x40000004
 d7c:	05140000 	ldreq	r0, [r4, #-0]
 d80:	3a080300 	bcc	201988 <__bss_end__+0x1f73c8>
 d84:	490b3b0b 	stmdbmi	fp, {r0, r1, r3, r8, r9, fp, ip, sp}
 d88:	00170213 	andseq	r0, r7, r3, lsl r2
 d8c:	00341500 	eorseq	r1, r4, r0, lsl #10
 d90:	13490e03 	movtne	r0, #40451	; 0x9e03
 d94:	18021934 	stmdane	r2, {r2, r4, r5, r8, fp, ip}
 d98:	2e160000 	cdpcs	0, 1, cr0, cr6, cr0, {0}
 d9c:	03193f01 	tsteq	r9, #1, 30
 da0:	3b0b3a0e 	blcc	2cf5e0 <__bss_end__+0x2c5020>
 da4:	3c19270b 	ldccc	7, cr2, [r9], {11}
 da8:	00130119 	andseq	r0, r3, r9, lsl r1
 dac:	00051700 	andeq	r1, r5, r0, lsl #14
 db0:	00001349 	andeq	r1, r0, r9, asr #6
 db4:	3f002e18 	svccc	0x00002e18
 db8:	3a0e0319 	bcc	381a24 <__bss_end__+0x377464>
 dbc:	270b3b0b 	strcs	r3, [fp, -fp, lsl #22]
 dc0:	00193c19 	andseq	r3, r9, r9, lsl ip
 dc4:	012e1900 	teqeq	lr, r0, lsl #18
 dc8:	0e03193f 	mcreq	9, 0, r1, cr3, cr15, {1}
 dcc:	0b3b0b3a 	bleq	ec3abc <__bss_end__+0xeb94fc>
 dd0:	13491927 	movtne	r1, #39207	; 0x9927
 dd4:	1301193c 	movwne	r1, #6460	; 0x193c
 dd8:	181a0000 	ldmdane	sl, {}	; <UNPREDICTABLE>
 ddc:	00000000 	andeq	r0, r0, r0
 de0:	25011101 	strcs	r1, [r1, #-257]	; 0x101
 de4:	030b130e 	movweq	r1, #45838	; 0xb30e
 de8:	110e1b0e 	tstne	lr, lr, lsl #22
 dec:	10061201 	andne	r1, r6, r1, lsl #4
 df0:	02000017 	andeq	r0, r0, #23
 df4:	0b0b0024 	bleq	2c0e8c <__bss_end__+0x2b68cc>
 df8:	08030b3e 	stmdaeq	r3, {r1, r2, r3, r4, r5, r8, r9, fp}
 dfc:	24030000 	strcs	r0, [r3], #-0
 e00:	3e0b0b00 	vmlacc.f64	d0, d11, d0
 e04:	000e030b 	andeq	r0, lr, fp, lsl #6
 e08:	01040400 	tsteq	r4, r0, lsl #8
 e0c:	0b3a0b0b 	bleq	e83a40 <__bss_end__+0xe79480>
 e10:	13010b3b 	movwne	r0, #6971	; 0x1b3b
 e14:	28050000 	stmdacs	r5, {}	; <UNPREDICTABLE>
 e18:	1c0e0300 	stcne	3, cr0, [lr], {-0}
 e1c:	0600000d 	streq	r0, [r0], -sp
 e20:	0e030016 	mcreq	0, 0, r0, cr3, cr6, {0}
 e24:	0b3b0b3a 	bleq	ec3b14 <__bss_end__+0xeb9554>
 e28:	00001349 	andeq	r1, r0, r9, asr #6
 e2c:	03012e07 	movweq	r2, #7687	; 0x1e07
 e30:	3b0b3a0e 	blcc	2cf670 <__bss_end__+0x2c50b0>
 e34:	4919270b 	ldmdbmi	r9, {r0, r1, r3, r8, r9, sl, sp}
 e38:	12011113 	andne	r1, r1, #-1073741820	; 0xc0000004
 e3c:	97184006 	ldrls	r4, [r8, -r6]
 e40:	13011942 	movwne	r1, #6466	; 0x1942
 e44:	89080000 	stmdbhi	r8, {}	; <UNPREDICTABLE>
 e48:	11000182 	smlabbne	r0, r2, r1, r0
 e4c:	00133101 	andseq	r3, r3, r1, lsl #2
 e50:	012e0900 	teqeq	lr, r0, lsl #18
 e54:	0e03193f 	mcreq	9, 0, r1, cr3, cr15, {1}
 e58:	0b3b0b3a 	bleq	ec3b48 <__bss_end__+0xeb9588>
 e5c:	01111927 	tsteq	r1, r7, lsr #18
 e60:	18400612 	stmdane	r0, {r1, r4, r9, sl}^
 e64:	01194297 			; <UNDEFINED> instruction: 0x01194297
 e68:	0a000013 	beq	ebc <_start-0x7144>
 e6c:	01018289 	smlabbeq	r1, r9, r2, r8
 e70:	13310111 	teqne	r1, #1073741828	; 0x40000004
 e74:	00001301 	andeq	r1, r0, r1, lsl #6
 e78:	01828a0b 	orreq	r8, r2, fp, lsl #20
 e7c:	91180200 	tstls	r8, r0, lsl #4
 e80:	00001842 	andeq	r1, r0, r2, asr #16
 e84:	3f012e0c 	svccc	0x00012e0c
 e88:	3a0e0319 	bcc	381af4 <__bss_end__+0x377534>
 e8c:	270b3b0b 	strcs	r3, [fp, -fp, lsl #22]
 e90:	11134919 	tstne	r3, r9, lsl r9
 e94:	40061201 	andmi	r1, r6, r1, lsl #4
 e98:	19429718 	stmdbne	r2, {r3, r4, r8, r9, sl, ip, pc}^
 e9c:	00001301 	andeq	r1, r0, r1, lsl #6
 ea0:	0300050d 	movweq	r0, #1293	; 0x50d
 ea4:	3b0b3a08 	blcc	2cf6cc <__bss_end__+0x2c510c>
 ea8:	0213490b 	andseq	r4, r3, #180224	; 0x2c000
 eac:	0e000017 	mcreq	0, 0, r0, cr0, cr7, {0}
 eb0:	01018289 	smlabbeq	r1, r9, r2, r8
 eb4:	13310111 	teqne	r1, #1073741828	; 0x40000004
 eb8:	340f0000 	strcc	r0, [pc], #-0	; ec0 <_start-0x7140>
 ebc:	3a0e0300 	bcc	381ac4 <__bss_end__+0x377504>
 ec0:	490b3b0b 	stmdbmi	fp, {r0, r1, r3, r8, r9, fp, ip, sp}
 ec4:	02193f13 	andseq	r3, r9, #19, 30	; 0x4c
 ec8:	10000018 	andne	r0, r0, r8, lsl r0
 ecc:	0b0b000f 	bleq	2c0f10 <__bss_end__+0x2b6950>
 ed0:	00001349 	andeq	r1, r0, r9, asr #6
 ed4:	49003511 	stmdbmi	r0, {r0, r4, r8, sl, ip, sp}
 ed8:	12000013 	andne	r0, r0, #19
 edc:	193f012e 	ldmdbne	pc!, {r1, r2, r3, r5, r8}	; <UNPREDICTABLE>
 ee0:	0b3a0e03 	bleq	e846f4 <__bss_end__+0xe7a134>
 ee4:	19270b3b 	stmdbne	r7!, {r0, r1, r3, r4, r5, r8, r9, fp}
 ee8:	193c1349 	ldmdbne	ip!, {r0, r3, r6, r8, r9, ip}
 eec:	00001301 	andeq	r1, r0, r1, lsl #6
 ef0:	49000513 	stmdbmi	r0, {r0, r1, r4, r8, sl}
 ef4:	14000013 	strne	r0, [r0], #-19
 ef8:	13490026 	movtne	r0, #36902	; 0x9026
 efc:	35150000 	ldrcc	r0, [r5, #-0]
 f00:	16000000 	strne	r0, [r0], -r0
 f04:	193f002e 	ldmdbne	pc!, {r1, r2, r3, r5}	; <UNPREDICTABLE>
 f08:	0b3a0e03 	bleq	e8471c <__bss_end__+0xe7a15c>
 f0c:	19270b3b 	stmdbne	r7!, {r0, r1, r3, r4, r5, r8, r9, fp}
 f10:	0000193c 	andeq	r1, r0, ip, lsr r9
 f14:	3f012e17 	svccc	0x00012e17
 f18:	3a0e0319 	bcc	381b84 <__bss_end__+0x3775c4>
 f1c:	270b3b0b 	strcs	r3, [fp, -fp, lsl #22]
 f20:	01193c19 	tsteq	r9, r9, lsl ip
 f24:	00000013 	andeq	r0, r0, r3, lsl r0
 f28:	25011101 	strcs	r1, [r1, #-257]	; 0x101
 f2c:	030b130e 	movweq	r1, #45838	; 0xb30e
 f30:	110e1b0e 	tstne	lr, lr, lsl #22
 f34:	10061201 	andne	r1, r6, r1, lsl #4
 f38:	02000017 	andeq	r0, r0, #23
 f3c:	0b0b0024 	bleq	2c0fd4 <__bss_end__+0x2b6a14>
 f40:	08030b3e 	stmdaeq	r3, {r1, r2, r3, r4, r5, r8, r9, fp}
 f44:	24030000 	strcs	r0, [r3], #-0
 f48:	3e0b0b00 	vmlacc.f64	d0, d11, d0
 f4c:	000e030b 	andeq	r0, lr, fp, lsl #6
 f50:	012e0400 	teqeq	lr, r0, lsl #8
 f54:	0b3a0e03 	bleq	e84768 <__bss_end__+0xe7a1a8>
 f58:	19270b3b 	stmdbne	r7!, {r0, r1, r3, r4, r5, r8, r9, fp}
 f5c:	01111349 	tsteq	r1, r9, asr #6
 f60:	18400612 	stmdane	r0, {r1, r4, r9, sl}^
 f64:	01194297 			; <UNDEFINED> instruction: 0x01194297
 f68:	05000013 	streq	r0, [r0, #-19]
 f6c:	08030005 	stmdaeq	r3, {r0, r2}
 f70:	0b3b0b3a 	bleq	ec3c60 <__bss_end__+0xeb96a0>
 f74:	17021349 	strne	r1, [r2, -r9, asr #6]
 f78:	89060000 	stmdbhi	r6, {}	; <UNPREDICTABLE>
 f7c:	11010182 	smlabbne	r1, r2, r1, r0
 f80:	00133101 	andseq	r3, r3, r1, lsl #2
 f84:	828a0700 	addhi	r0, sl, #0, 14
 f88:	18020001 	stmdane	r2, {r0}
 f8c:	00184291 	mulseq	r8, r1, r2
 f90:	01150800 	tsteq	r5, r0, lsl #16
 f94:	13491927 	movtne	r1, #39207	; 0x9927
 f98:	00001301 	andeq	r1, r0, r1, lsl #6
 f9c:	49000509 	stmdbmi	r0, {r0, r3, r8, sl}
 fa0:	0a000013 	beq	ff4 <_start-0x700c>
 fa4:	0e030034 	mcreq	0, 0, r0, cr3, cr4, {1}
 fa8:	0b3b0b3a 	bleq	ec3c98 <__bss_end__+0xeb96d8>
 fac:	193f1349 	ldmdbne	pc!, {r0, r3, r6, r8, r9, ip}	; <UNPREDICTABLE>
 fb0:	00001802 	andeq	r1, r0, r2, lsl #16
 fb4:	0b000f0b 	bleq	4be8 <_start-0x3418>
 fb8:	0013490b 	andseq	r4, r3, fp, lsl #18
 fbc:	012e0c00 	teqeq	lr, r0, lsl #24
 fc0:	0e03193f 	mcreq	9, 0, r1, cr3, cr15, {1}
 fc4:	0b3b0b3a 	bleq	ec3cb4 <__bss_end__+0xeb96f4>
 fc8:	193c1927 	ldmdbne	ip!, {r0, r1, r2, r5, r8, fp, ip}
 fcc:	Address 0x0000000000000fcc is out of bounds.


Disassembly of section .debug_loc:

00000000 <.debug_loc>:
       0:	00000000 	andeq	r0, r0, r0
       4:	0000001c 	andeq	r0, r0, ip, lsl r0
       8:	1c500001 	mrrcne	0, 0, r0, r0, cr1	; <UNPREDICTABLE>
       c:	58000000 	stmdapl	r0, {}	; <UNPREDICTABLE>
      10:	04000001 	streq	r0, [r0], #-1
      14:	5001f300 	andpl	pc, r1, r0, lsl #6
      18:	0000009f 	muleq	r0, pc, r0	; <UNPREDICTABLE>
	...
      24:	00002000 	andeq	r2, r0, r0
      28:	51000100 	mrspl	r0, (UNDEF: 16)
      2c:	00000020 	andeq	r0, r0, r0, lsr #32
      30:	00000158 	andeq	r0, r0, r8, asr r1
      34:	01f30004 	mvnseq	r0, r4
      38:	00009f51 	andeq	r9, r0, r1, asr pc
      3c:	00000000 	andeq	r0, r0, r0
      40:	00100000 	andseq	r0, r0, r0
      44:	01380000 	teqeq	r8, r0
      48:	00010000 	andeq	r0, r1, r0
      4c:	00000055 	andeq	r0, r0, r5, asr r0
      50:	00000000 	andeq	r0, r0, r0
      54:	00001400 	andeq	r1, r0, r0, lsl #8
      58:	00003800 	andeq	r3, r0, r0, lsl #16
      5c:	55000100 	strpl	r0, [r0, #-256]	; 0x100
      60:	00000038 	andeq	r0, r0, r8, lsr r0
      64:	00000138 	andeq	r0, r0, r8, lsr r1
      68:	38580001 	ldmdacc	r8, {r0}^
      6c:	58000001 	stmdapl	r0, {r0}
      70:	01000001 	tsteq	r0, r1
      74:	00005500 	andeq	r5, r0, r0, lsl #10
      78:	00000000 	andeq	r0, r0, r0
      7c:	00180000 	andseq	r0, r8, r0
      80:	01380000 	teqeq	r8, r0
      84:	00010000 	andeq	r0, r1, r0
      88:	00000055 	andeq	r0, r0, r5, asr r0
      8c:	00000000 	andeq	r0, r0, r0
      90:	00002400 	andeq	r2, r0, r0, lsl #8
      94:	00013800 	andeq	r3, r1, r0, lsl #16
      98:	55000100 	strpl	r0, [r0, #-256]	; 0x100
	...
      a4:	00000028 	andeq	r0, r0, r8, lsr #32
      a8:	0000002c 	andeq	r0, r0, ip, lsr #32
      ac:	00530001 	subseq	r0, r3, r1
      b0:	00000000 	andeq	r0, r0, r0
      b4:	38000000 	stmdacc	r0, {}	; <UNPREDICTABLE>
      b8:	58000000 	stmdapl	r0, {}	; <UNPREDICTABLE>
      bc:	01000000 	mrseq	r0, (UNDEF: 0)
      c0:	00585800 	subseq	r5, r8, r0, lsl #16
      c4:	01380000 	teqeq	r8, r0
      c8:	00050000 	andeq	r0, r5, r0
      cc:	24310075 	ldrtcs	r0, [r1], #-117	; 0x75
      d0:	0000009f 	muleq	r0, pc, r0	; <UNPREDICTABLE>
      d4:	00000000 	andeq	r0, r0, r0
      d8:	00003800 	andeq	r3, r0, r0, lsl #16
      dc:	00004000 	andeq	r4, r0, r0
      e0:	77000500 	strvc	r0, [r0, -r0, lsl #10]
      e4:	9f1a3100 	svcls	0x001a3100
      e8:	00000040 	andeq	r0, r0, r0, asr #32
      ec:	00000043 	andeq	r0, r0, r3, asr #32
      f0:	43510001 	cmpmi	r1, #1
      f4:	58000000 	stmdapl	r0, {}	; <UNPREDICTABLE>
      f8:	05000001 	streq	r0, [r0, #-1]
      fc:	31007700 	tstcc	r0, r0, lsl #14
     100:	00009f1a 	andeq	r9, r0, sl, lsl pc
     104:	00000000 	andeq	r0, r0, r0
     108:	00440000 	subeq	r0, r4, r0
     10c:	00580000 	subseq	r0, r8, r0
     110:	00010000 	andeq	r0, r1, r0
     114:	00005858 	andeq	r5, r0, r8, asr r8
     118:	00013800 	andeq	r3, r1, r0, lsl #16
     11c:	75000500 	strvc	r0, [r0, #-1280]	; 0x500
     120:	9f243100 	svcls	0x00243100
	...
     12c:	00000048 	andeq	r0, r0, r8, asr #32
     130:	0000004c 	andeq	r0, r0, ip, asr #32
     134:	00530001 	subseq	r0, r3, r1
     138:	00000000 	andeq	r0, r0, r0
     13c:	58000000 	stmdapl	r0, {}	; <UNPREDICTABLE>
     140:	78000000 	stmdavc	r0, {}	; <UNPREDICTABLE>
     144:	01000000 	mrseq	r0, (UNDEF: 0)
     148:	00785800 	rsbseq	r5, r8, r0, lsl #16
     14c:	01380000 	teqeq	r8, r0
     150:	00080000 	andeq	r0, r8, r0
     154:	24310075 	ldrtcs	r0, [r1], #-117	; 0x75
     158:	9f220075 	svcls	0x00220075
	...
     164:	00000064 	andeq	r0, r0, r4, rrx
     168:	00000078 	andeq	r0, r0, r8, ror r0
     16c:	78580001 	ldmdavc	r8, {r0}^
     170:	38000000 	stmdacc	r0, {}	; <UNPREDICTABLE>
     174:	08000001 	stmdaeq	r0, {r0}
     178:	31007500 	tstcc	r0, r0, lsl #10
     17c:	22007524 	andcs	r7, r0, #36, 10	; 0x9000000
     180:	0000009f 	muleq	r0, pc, r0	; <UNPREDICTABLE>
     184:	00000000 	andeq	r0, r0, r0
     188:	00006800 	andeq	r6, r0, r0, lsl #16
     18c:	00006c00 	andeq	r6, r0, r0, lsl #24
     190:	53000100 	movwpl	r0, #256	; 0x100
	...
     19c:	00000078 	andeq	r0, r0, r8, ror r0
     1a0:	00000098 	muleq	r0, r8, r0
     1a4:	98580001 	ldmdals	r8, {r0}^
     1a8:	38000000 	stmdacc	r0, {}	; <UNPREDICTABLE>
     1ac:	05000001 	streq	r0, [r0, #-1]
     1b0:	32007500 	andcc	r7, r0, #0, 10
     1b4:	00009f24 	andeq	r9, r0, r4, lsr #30
     1b8:	00000000 	andeq	r0, r0, r0
     1bc:	00840000 	addeq	r0, r4, r0
     1c0:	00980000 	addseq	r0, r8, r0
     1c4:	00010000 	andeq	r0, r1, r0
     1c8:	00009858 	andeq	r9, r0, r8, asr r8
     1cc:	00013800 	andeq	r3, r1, r0, lsl #16
     1d0:	75000500 	strvc	r0, [r0, #-1280]	; 0x500
     1d4:	9f243200 	svcls	0x00243200
	...
     1e0:	00000088 	andeq	r0, r0, r8, lsl #1
     1e4:	0000008c 	andeq	r0, r0, ip, lsl #1
     1e8:	00530001 	subseq	r0, r3, r1
     1ec:	00000000 	andeq	r0, r0, r0
     1f0:	98000000 	stmdals	r0, {}	; <UNPREDICTABLE>
     1f4:	b8000000 	stmdalt	r0, {}	; <UNPREDICTABLE>
     1f8:	01000000 	mrseq	r0, (UNDEF: 0)
     1fc:	00b85800 	adcseq	r5, r8, r0, lsl #16
     200:	01380000 	teqeq	r8, r0
     204:	00080000 	andeq	r0, r8, r0
     208:	24320075 	ldrtcs	r0, [r2], #-117	; 0x75
     20c:	9f220075 	svcls	0x00220075
	...
     218:	000000a4 	andeq	r0, r0, r4, lsr #1
     21c:	000000b8 	strheq	r0, [r0], -r8
     220:	b8580001 	ldmdalt	r8, {r0}^
     224:	38000000 	stmdacc	r0, {}	; <UNPREDICTABLE>
     228:	08000001 	stmdaeq	r0, {r0}
     22c:	32007500 	andcc	r7, r0, #0, 10
     230:	22007524 	andcs	r7, r0, #36, 10	; 0x9000000
     234:	0000009f 	muleq	r0, pc, r0	; <UNPREDICTABLE>
     238:	00000000 	andeq	r0, r0, r0
     23c:	0000a800 	andeq	sl, r0, r0, lsl #16
     240:	0000ac00 	andeq	sl, r0, r0, lsl #24
     244:	53000100 	movwpl	r0, #256	; 0x100
	...
     250:	000000b8 	strheq	r0, [r0], -r8
     254:	000000d8 	ldrdeq	r0, [r0], -r8
     258:	d8580001 	ldmdale	r8, {r0}^
     25c:	38000000 	stmdacc	r0, {}	; <UNPREDICTABLE>
     260:	0a000001 	beq	26c <_start-0x7d94>
     264:	32007500 	andcc	r7, r0, #0, 10
     268:	31007524 	tstcc	r0, r4, lsr #10
     26c:	009f2224 	addseq	r2, pc, r4, lsr #4
     270:	00000000 	andeq	r0, r0, r0
     274:	c4000000 	strgt	r0, [r0], #-0
     278:	d8000000 	stmdale	r0, {}	; <UNPREDICTABLE>
     27c:	01000000 	mrseq	r0, (UNDEF: 0)
     280:	00d85800 	sbcseq	r5, r8, r0, lsl #16
     284:	01380000 	teqeq	r8, r0
     288:	000a0000 	andeq	r0, sl, r0
     28c:	24320075 	ldrtcs	r0, [r2], #-117	; 0x75
     290:	24310075 	ldrtcs	r0, [r1], #-117	; 0x75
     294:	00009f22 	andeq	r9, r0, r2, lsr #30
     298:	00000000 	andeq	r0, r0, r0
     29c:	00c80000 	sbceq	r0, r8, r0
     2a0:	00cc0000 	sbceq	r0, ip, r0
     2a4:	00010000 	andeq	r0, r1, r0
     2a8:	00000053 	andeq	r0, r0, r3, asr r0
     2ac:	00000000 	andeq	r0, r0, r0
     2b0:	0000d800 	andeq	sp, r0, r0, lsl #16
     2b4:	0000f800 	andeq	pc, r0, r0, lsl #16
     2b8:	58000100 	stmdapl	r0, {r8}
     2bc:	000000f8 	strdeq	r0, [r0], -r8
     2c0:	00000138 	andeq	r0, r0, r8, lsr r1
     2c4:	0075000d 	rsbseq	r0, r5, sp
     2c8:	00752432 	rsbseq	r2, r5, r2, lsr r4
     2cc:	75222431 	strvc	r2, [r2, #-1073]!	; 0x431
     2d0:	009f2200 	addseq	r2, pc, r0, lsl #4
     2d4:	00000000 	andeq	r0, r0, r0
     2d8:	e4000000 	str	r0, [r0], #-0
     2dc:	f8000000 			; <UNDEFINED> instruction: 0xf8000000
     2e0:	01000000 	mrseq	r0, (UNDEF: 0)
     2e4:	00f85800 	rscseq	r5, r8, r0, lsl #16
     2e8:	01380000 	teqeq	r8, r0
     2ec:	000d0000 	andeq	r0, sp, r0
     2f0:	24320075 	ldrtcs	r0, [r2], #-117	; 0x75
     2f4:	24310075 	ldrtcs	r0, [r1], #-117	; 0x75
     2f8:	22007522 	andcs	r7, r0, #142606336	; 0x8800000
     2fc:	0000009f 	muleq	r0, pc, r0	; <UNPREDICTABLE>
     300:	00000000 	andeq	r0, r0, r0
     304:	0000e800 	andeq	lr, r0, r0, lsl #16
     308:	0000ec00 	andeq	lr, r0, r0, lsl #24
     30c:	53000100 	movwpl	r0, #256	; 0x100
	...
     318:	000000f8 	strdeq	r0, [r0], -r8
     31c:	00000118 	andeq	r0, r0, r8, lsl r1
     320:	18580001 	ldmdane	r8, {r0}^
     324:	38000001 	stmdacc	r0, {r0}
     328:	05000001 	streq	r0, [r0, #-1]
     32c:	33007500 	movwcc	r7, #1280	; 0x500
     330:	00009f24 	andeq	r9, r0, r4, lsr #30
     334:	00000000 	andeq	r0, r0, r0
     338:	01040000 	mrseq	r0, (UNDEF: 4)
     33c:	01180000 	tsteq	r8, r0
     340:	00010000 	andeq	r0, r1, r0
     344:	00011858 	andeq	r1, r1, r8, asr r8
     348:	00013800 	andeq	r3, r1, r0, lsl #16
     34c:	75000500 	strvc	r0, [r0, #-1280]	; 0x500
     350:	9f243300 	svcls	0x00243300
	...
     35c:	00000108 	andeq	r0, r0, r8, lsl #2
     360:	0000010c 	andeq	r0, r0, ip, lsl #2
     364:	00530001 	subseq	r0, r3, r1
     368:	00000000 	andeq	r0, r0, r0
     36c:	18000000 	stmdane	r0, {}	; <UNPREDICTABLE>
     370:	20000001 	andcs	r0, r0, r1
     374:	06000001 	streq	r0, [r0], -r1
     378:	08007700 	stmdaeq	r0, {r8, r9, sl, ip, sp, lr}
     37c:	209f1a80 	addscs	r1, pc, r0, lsl #21
     380:	23000001 	movwcs	r0, #1
     384:	01000001 	tsteq	r0, r1
     388:	01235100 	teqeq	r3, r0, lsl #2
     38c:	01580000 	cmpeq	r8, r0
     390:	00060000 	andeq	r0, r6, r0
     394:	80080077 	andhi	r0, r8, r7, ror r0
     398:	00009f1a 	andeq	r9, r0, sl, lsl pc
     39c:	00000000 	andeq	r0, r0, r0
     3a0:	01280000 	teqeq	r8, r0
     3a4:	012c0000 	teqeq	ip, r0
     3a8:	00010000 	andeq	r0, r1, r0
     3ac:	00000053 	andeq	r0, r0, r3, asr r0
     3b0:	00000000 	andeq	r0, r0, r0
     3b4:	00014800 	andeq	r4, r1, r0, lsl #16
     3b8:	00014c00 	andeq	r4, r1, r0, lsl #24
     3bc:	53000100 	movwpl	r0, #256	; 0x100
	...
     3c8:	00000158 	andeq	r0, r0, r8, asr r1
     3cc:	0000016f 	andeq	r0, r0, pc, ror #2
     3d0:	6f500001 	svcvs	0x00500001
     3d4:	d4000001 	strle	r0, [r0], #-1
     3d8:	01000001 	tsteq	r0, r1
     3dc:	01d45900 	bicseq	r5, r4, r0, lsl #18
     3e0:	03100000 	tsteq	r0, #0
     3e4:	00040000 	andeq	r0, r4, r0
     3e8:	9f5001f3 	svcls	0x005001f3
     3ec:	00000310 	andeq	r0, r0, r0, lsl r3
     3f0:	00000318 	andeq	r0, r0, r8, lsl r3
     3f4:	18590001 	ldmdane	r9, {r0}^
     3f8:	20000003 	andcs	r0, r0, r3
     3fc:	04000003 	streq	r0, [r0], #-3
     400:	5001f300 	andpl	pc, r1, r0, lsl #6
     404:	0000009f 	muleq	r0, pc, r0	; <UNPREDICTABLE>
     408:	00000000 	andeq	r0, r0, r0
     40c:	00015800 	andeq	r5, r1, r0, lsl #16
     410:	00016f00 	andeq	r6, r1, r0, lsl #30
     414:	51000100 	mrspl	r0, (UNDEF: 16)
     418:	0000016f 	andeq	r0, r0, pc, ror #2
     41c:	00000320 	andeq	r0, r0, r0, lsr #6
     420:	00560001 	subseq	r0, r6, r1
     424:	00000000 	andeq	r0, r0, r0
     428:	ac000000 	stcge	0, cr0, [r0], {-0}
     42c:	9c000001 	stcls	0, cr0, [r0], {1}
     430:	01000002 	tsteq	r0, r2
     434:	00005800 	andeq	r5, r0, r0, lsl #16
     438:	00000000 	andeq	r0, r0, r0
     43c:	01b00000 	movseq	r0, r0
     440:	02d40000 	sbcseq	r0, r4, #0
     444:	00010000 	andeq	r0, r1, r0
     448:	00000054 	andeq	r0, r0, r4, asr r0
     44c:	00000000 	andeq	r0, r0, r0
     450:	0001b000 	andeq	fp, r1, r0
     454:	0002d400 	andeq	sp, r2, r0, lsl #8
     458:	74000500 	strvc	r0, [r0], #-1280	; 0x500
     45c:	9f253100 	svcls	0x00253100
	...
     468:	000001b0 			; <UNDEFINED> instruction: 0x000001b0
     46c:	000001d4 	ldrdeq	r0, [r0], -r4
     470:	9f300002 	svcls	0x00300002
     474:	000001d4 	ldrdeq	r0, [r0], -r4
     478:	00000310 	andeq	r0, r0, r0, lsl r3
     47c:	18590001 	ldmdane	r9, {r0}^
     480:	20000003 	andcs	r0, r0, r3
     484:	01000003 	tsteq	r0, r3
     488:	00005900 	andeq	r5, r0, r0, lsl #18
     48c:	00000000 	andeq	r0, r0, r0
     490:	016c0000 	cmneq	ip, r0
     494:	016f0000 	cmneq	pc, r0
     498:	00010000 	andeq	r0, r1, r0
     49c:	00016f51 	andeq	r6, r1, r1, asr pc
     4a0:	00032000 	andeq	r2, r3, r0
     4a4:	56000100 	strpl	r0, [r0], -r0, lsl #2
	...
     4b0:	00000174 	andeq	r0, r0, r4, ror r1
     4b4:	000001b0 			; <UNDEFINED> instruction: 0x000001b0
     4b8:	10540001 	subsne	r0, r4, r1
     4bc:	18000003 	stmdane	r0, {r0, r1}
     4c0:	01000003 	tsteq	r0, r3
     4c4:	00005400 	andeq	r5, r0, r0, lsl #8
     4c8:	00000000 	andeq	r0, r0, r0
     4cc:	01ac0000 			; <UNDEFINED> instruction: 0x01ac0000
     4d0:	01c80000 	biceq	r0, r8, r0
     4d4:	00010000 	andeq	r0, r1, r0
     4d8:	00000058 	andeq	r0, r0, r8, asr r0
     4dc:	00000000 	andeq	r0, r0, r0
     4e0:	0001b400 	andeq	fp, r1, r0, lsl #8
     4e4:	0001cf00 	andeq	ip, r1, r0, lsl #30
     4e8:	52000100 	andpl	r0, r0, #0, 2
     4ec:	000001cf 	andeq	r0, r0, pc, asr #3
     4f0:	000002d4 	ldrdeq	r0, [r0], -r4
     4f4:	00740008 	rsbseq	r0, r4, r8
     4f8:	00742531 	rsbseq	r2, r4, r1, lsr r5
     4fc:	00009f22 	andeq	r9, r0, r2, lsr #30
     500:	00000000 	andeq	r0, r0, r0
     504:	01b40000 			; <UNDEFINED> instruction: 0x01b40000
     508:	01c80000 	biceq	r0, r8, r0
     50c:	00010000 	andeq	r0, r1, r0
     510:	00000058 	andeq	r0, r0, r8, asr r0
     514:	00000000 	andeq	r0, r0, r0
     518:	0001b800 	andeq	fp, r1, r0, lsl #16
     51c:	0001bc00 	andeq	fp, r1, r0, lsl #24
     520:	53000100 	movwpl	r0, #256	; 0x100
	...
     52c:	000001d4 	ldrdeq	r0, [r0], -r4
     530:	000002d4 	ldrdeq	r0, [r0], -r4
     534:	00540001 	subseq	r0, r4, r1
     538:	00000000 	andeq	r0, r0, r0
     53c:	d4000000 	strle	r0, [r0], #-0
     540:	e8000001 	stmda	r0, {r0}
     544:	01000001 	tsteq	r0, r1
     548:	00005800 	andeq	r5, r0, r0, lsl #16
     54c:	00000000 	andeq	r0, r0, r0
     550:	01d80000 	bicseq	r0, r8, r0
     554:	01dc0000 	bicseq	r0, ip, r0
     558:	00010000 	andeq	r0, r1, r0
     55c:	00000053 	andeq	r0, r0, r3, asr r0
     560:	00000000 	andeq	r0, r0, r0
     564:	0001f800 	andeq	pc, r1, r0, lsl #16
     568:	0002d400 	andeq	sp, r2, r0, lsl #8
     56c:	54000100 	strpl	r0, [r0], #-256	; 0x100
	...
     578:	000001f8 	strdeq	r0, [r0], -r8
     57c:	0000020c 	andeq	r0, r0, ip, lsl #4
     580:	00580001 	subseq	r0, r8, r1
     584:	00000000 	andeq	r0, r0, r0
     588:	fc000000 	stc2	0, cr0, [r0], {-0}
     58c:	00000001 	andeq	r0, r0, r1
     590:	01000002 	tsteq	r0, r2
     594:	00005300 	andeq	r5, r0, r0, lsl #6
     598:	00000000 	andeq	r0, r0, r0
     59c:	021c0000 	andseq	r0, ip, #0
     5a0:	02d40000 	sbcseq	r0, r4, #0
     5a4:	00010000 	andeq	r0, r1, r0
     5a8:	00000054 	andeq	r0, r0, r4, asr r0
     5ac:	00000000 	andeq	r0, r0, r0
     5b0:	00021c00 	andeq	r1, r2, r0, lsl #24
     5b4:	00023000 	andeq	r3, r2, r0
     5b8:	58000100 	stmdapl	r0, {r8}
	...
     5c4:	00000220 	andeq	r0, r0, r0, lsr #4
     5c8:	00000224 	andeq	r0, r0, r4, lsr #4
     5cc:	00530001 	subseq	r0, r3, r1
     5d0:	00000000 	andeq	r0, r0, r0
     5d4:	40000000 	andmi	r0, r0, r0
     5d8:	d4000002 	strle	r0, [r0], #-2
     5dc:	01000002 	tsteq	r0, r2
     5e0:	00005400 	andeq	r5, r0, r0, lsl #8
     5e4:	00000000 	andeq	r0, r0, r0
     5e8:	02400000 	subeq	r0, r0, #0
     5ec:	02540000 	subseq	r0, r4, #0
     5f0:	00010000 	andeq	r0, r1, r0
     5f4:	00000058 	andeq	r0, r0, r8, asr r0
     5f8:	00000000 	andeq	r0, r0, r0
     5fc:	00024400 	andeq	r4, r2, r0, lsl #8
     600:	00024800 	andeq	r4, r2, r0, lsl #16
     604:	53000100 	movwpl	r0, #256	; 0x100
	...
     610:	00000264 	andeq	r0, r0, r4, ror #4
     614:	000002d4 	ldrdeq	r0, [r0], -r4
     618:	00540001 	subseq	r0, r4, r1
     61c:	00000000 	andeq	r0, r0, r0
     620:	64000000 	strvs	r0, [r0], #-0
     624:	78000002 	stmdavc	r0, {r1}
     628:	01000002 	tsteq	r0, r2
     62c:	00005800 	andeq	r5, r0, r0, lsl #16
     630:	00000000 	andeq	r0, r0, r0
     634:	02680000 	rsbeq	r0, r8, #0
     638:	026c0000 	rsbeq	r0, ip, #0
     63c:	00010000 	andeq	r0, r1, r0
     640:	00000053 	andeq	r0, r0, r3, asr r0
     644:	00000000 	andeq	r0, r0, r0
     648:	00028800 	andeq	r8, r2, r0, lsl #16
     64c:	0002d400 	andeq	sp, r2, r0, lsl #8
     650:	54000100 	strpl	r0, [r0], #-256	; 0x100
	...
     65c:	00000288 	andeq	r0, r0, r8, lsl #5
     660:	0000029c 	muleq	r0, ip, r2
     664:	00580001 	subseq	r0, r8, r1
     668:	00000000 	andeq	r0, r0, r0
     66c:	8c000000 	stchi	0, cr0, [r0], {-0}
     670:	90000002 	andls	r0, r0, r2
     674:	01000002 	tsteq	r0, r2
     678:	00005300 	andeq	r5, r0, r0, lsl #6
     67c:	00000000 	andeq	r0, r0, r0
     680:	02ac0000 	adceq	r0, ip, #0
     684:	02d40000 	sbcseq	r0, r4, #0
     688:	00010000 	andeq	r0, r1, r0
     68c:	00000054 	andeq	r0, r0, r4, asr r0
     690:	00000000 	andeq	r0, r0, r0
     694:	0002b000 	andeq	fp, r2, r0
     698:	0002b400 	andeq	fp, r2, r0, lsl #8
     69c:	53000100 	movwpl	r0, #256	; 0x100
	...
     6a8:	000002cc 	andeq	r0, r0, ip, asr #5
     6ac:	00000310 	andeq	r0, r0, r0, lsl r3
     6b0:	9f300002 	svcls	0x00300002
     6b4:	00000318 	andeq	r0, r0, r8, lsl r3
     6b8:	00000320 	andeq	r0, r0, r0, lsr #6
     6bc:	9f300002 	svcls	0x00300002
	...
     6c8:	000002cc 	andeq	r0, r0, ip, asr #5
     6cc:	00000310 	andeq	r0, r0, r0, lsl r3
     6d0:	18550001 	ldmdane	r5, {r0}^
     6d4:	20000003 	andcs	r0, r0, r3
     6d8:	01000003 	tsteq	r0, r3
     6dc:	00005500 	andeq	r5, r0, r0, lsl #10
     6e0:	00000000 	andeq	r0, r0, r0
     6e4:	02d40000 	sbcseq	r0, r4, #0
     6e8:	03100000 	tsteq	r0, #0
     6ec:	00010000 	andeq	r0, r1, r0
     6f0:	00031854 	andeq	r1, r3, r4, asr r8
     6f4:	00032000 	andeq	r2, r3, r0
     6f8:	54000100 	strpl	r0, [r0], #-256	; 0x100
	...
     704:	00000320 	andeq	r0, r0, r0, lsr #6
     708:	00000340 	andeq	r0, r0, r0, asr #6
     70c:	40500001 	subsmi	r0, r0, r1
     710:	54000003 	strpl	r0, [r0], #-3
     714:	01000003 	tsteq	r0, r3
     718:	03545800 	cmpeq	r4, #0, 16
     71c:	03640000 	cmneq	r4, #0
     720:	00010000 	andeq	r0, r1, r0
     724:	00036450 	andeq	r6, r3, r0, asr r4
     728:	0003ac00 	andeq	sl, r3, r0, lsl #24
     72c:	58000100 	stmdapl	r0, {r8}
	...
     738:	00000320 	andeq	r0, r0, r0, lsr #6
     73c:	00000344 	andeq	r0, r0, r4, asr #6
     740:	44510001 	ldrbmi	r0, [r1], #-1
     744:	54000003 	strpl	r0, [r0], #-3
     748:	01000003 	tsteq	r0, r3
     74c:	03545600 	cmpeq	r4, #0, 12
     750:	03640000 	cmneq	r4, #0
     754:	00010000 	andeq	r0, r1, r0
     758:	00036451 	andeq	r6, r3, r1, asr r4
     75c:	0003ac00 	andeq	sl, r3, r0, lsl #24
     760:	56000100 	strpl	r0, [r0], -r0, lsl #2
	...
     76c:	00000320 	andeq	r0, r0, r0, lsr #6
     770:	00000348 	andeq	r0, r0, r8, asr #6
     774:	48520001 	ldmdami	r2, {r0}^
     778:	54000003 	strpl	r0, [r0], #-3
     77c:	04000003 	streq	r0, [r0], #-3
     780:	5201f300 	andpl	pc, r1, #0, 6
     784:	0003549f 	muleq	r3, pc, r4	; <UNPREDICTABLE>
     788:	00036400 	andeq	r6, r3, r0, lsl #8
     78c:	52000100 	andpl	r0, r0, #0, 2
     790:	00000364 	andeq	r0, r0, r4, ror #6
     794:	000003ac 	andeq	r0, r0, ip, lsr #7
     798:	01770003 	cmneq	r7, r3
     79c:	0000009f 	muleq	r0, pc, r0	; <UNPREDICTABLE>
     7a0:	00000000 	andeq	r0, r0, r0
     7a4:	00032000 	andeq	r2, r3, r0
     7a8:	00034c00 	andeq	r4, r3, r0, lsl #24
     7ac:	53000100 	movwpl	r0, #256	; 0x100
     7b0:	0000034c 	andeq	r0, r0, ip, asr #6
     7b4:	00000354 	andeq	r0, r0, r4, asr r3
     7b8:	01f30004 	mvnseq	r0, r4
     7bc:	03549f53 	cmpeq	r4, #332	; 0x14c
     7c0:	03640000 	cmneq	r4, #0
     7c4:	00010000 	andeq	r0, r1, r0
     7c8:	00036453 	andeq	r6, r3, r3, asr r4
     7cc:	0003ac00 	andeq	sl, r3, r0, lsl #24
     7d0:	f3000400 	vshl.u8	d0, d0, d0
     7d4:	009f5301 	addseq	r5, pc, r1, lsl #6
     7d8:	00000000 	andeq	r0, r0, r0
     7dc:	5c000000 	stcpl	0, cr0, [r0], {-0}
     7e0:	64000003 	strvs	r0, [r0], #-3
     7e4:	02000003 	andeq	r0, r0, #3
     7e8:	649f3000 	ldrvs	r3, [pc], #0	; 7f0 <_start-0x7810>
     7ec:	ac000003 	stcge	0, cr0, [r0], {3}
     7f0:	01000003 	tsteq	r0, r3
     7f4:	00005400 	andeq	r5, r0, r0, lsl #8
     7f8:	00000000 	andeq	r0, r0, r0
     7fc:	03740000 	cmneq	r4, #0
     800:	03840000 	orreq	r0, r4, #0
     804:	00010000 	andeq	r0, r1, r0
     808:	00000050 	andeq	r0, r0, r0, asr r0
     80c:	00000000 	andeq	r0, r0, r0
     810:	0003ac00 	andeq	sl, r3, r0, lsl #24
     814:	0003c800 	andeq	ip, r3, r0, lsl #16
     818:	50000100 	andpl	r0, r0, r0, lsl #2
     81c:	000003c8 	andeq	r0, r0, r8, asr #7
     820:	000003dc 	ldrdeq	r0, [r0], -ip
     824:	dc570001 	mrrcle	0, 0, r0, r7, cr1
     828:	ec000003 	stc	0, cr0, [r0], {3}
     82c:	01000003 	tsteq	r0, r3
     830:	03ec5000 	mvneq	r5, #0
     834:	04240000 	strteq	r0, [r4], #-0
     838:	00010000 	andeq	r0, r1, r0
     83c:	00000057 	andeq	r0, r0, r7, asr r0
     840:	00000000 	andeq	r0, r0, r0
     844:	0003ac00 	andeq	sl, r3, r0, lsl #24
     848:	0003cc00 	andeq	ip, r3, r0, lsl #24
     84c:	51000100 	mrspl	r0, (UNDEF: 16)
     850:	000003cc 	andeq	r0, r0, ip, asr #7
     854:	000003dc 	ldrdeq	r0, [r0], -ip
     858:	dc550001 	mrrcle	0, 0, r0, r5, cr1
     85c:	ec000003 	stc	0, cr0, [r0], {3}
     860:	01000003 	tsteq	r0, r3
     864:	03ec5100 	mvneq	r5, #0, 2
     868:	04240000 	strteq	r0, [r4], #-0
     86c:	00010000 	andeq	r0, r1, r0
     870:	00000055 	andeq	r0, r0, r5, asr r0
     874:	00000000 	andeq	r0, r0, r0
     878:	0003ac00 	andeq	sl, r3, r0, lsl #24
     87c:	0003d000 	andeq	sp, r3, r0
     880:	52000100 	andpl	r0, r0, #0, 2
     884:	000003d0 	ldrdeq	r0, [r0], -r0	; <UNPREDICTABLE>
     888:	000003dc 	ldrdeq	r0, [r0], -ip
     88c:	01f30004 	mvnseq	r0, r4
     890:	03dc9f52 	bicseq	r9, ip, #328	; 0x148
     894:	03ec0000 	mvneq	r0, #0
     898:	00010000 	andeq	r0, r1, r0
     89c:	0003ec52 	andeq	lr, r3, r2, asr ip
     8a0:	00042400 	andeq	r2, r4, r0, lsl #8
     8a4:	76000300 	strvc	r0, [r0], -r0, lsl #6
     8a8:	00009f01 	andeq	r9, r0, r1, lsl #30
     8ac:	00000000 	andeq	r0, r0, r0
     8b0:	03ac0000 			; <UNDEFINED> instruction: 0x03ac0000
     8b4:	03d40000 	bicseq	r0, r4, #0
     8b8:	00010000 	andeq	r0, r1, r0
     8bc:	0003d453 	andeq	sp, r3, r3, asr r4
     8c0:	0003dc00 	andeq	sp, r3, r0, lsl #24
     8c4:	58000100 	stmdapl	r0, {r8}
     8c8:	000003dc 	ldrdeq	r0, [r0], -ip
     8cc:	000003ec 	andeq	r0, r0, ip, ror #7
     8d0:	ec530001 	mrrc	0, 0, r0, r3, cr1
     8d4:	24000003 	strcs	r0, [r0], #-3
     8d8:	01000004 	tsteq	r0, r4
     8dc:	00005800 	andeq	r5, r0, r0, lsl #16
     8e0:	00000000 	andeq	r0, r0, r0
     8e4:	03e40000 	mvneq	r0, #0
     8e8:	03ec0000 	mvneq	r0, #0
     8ec:	00020000 	andeq	r0, r2, r0
     8f0:	03ec9f30 	mvneq	r9, #48, 30	; 0xc0
     8f4:	04240000 	strteq	r0, [r4], #-0
     8f8:	00010000 	andeq	r0, r1, r0
     8fc:	00000054 	andeq	r0, r0, r4, asr r0
     900:	00000000 	andeq	r0, r0, r0
     904:	00042400 	andeq	r2, r4, r0, lsl #8
     908:	00044300 	andeq	r4, r4, r0, lsl #6
     90c:	51000100 	mrspl	r0, (UNDEF: 16)
     910:	00000443 	andeq	r0, r0, r3, asr #8
     914:	000004e0 	andeq	r0, r0, r0, ror #9
     918:	01f30004 	mvnseq	r0, r4
     91c:	00009f51 	andeq	r9, r0, r1, asr pc
     920:	00000000 	andeq	r0, r0, r0
     924:	04240000 	strteq	r0, [r4], #-0
     928:	04430000 	strbeq	r0, [r3], #-0
     92c:	00010000 	andeq	r0, r1, r0
     930:	00044352 	andeq	r4, r4, r2, asr r3
     934:	0004e000 	andeq	lr, r4, r0
     938:	f3000400 	vshl.u8	d0, d0, d0
     93c:	009f5201 	addseq	r5, pc, r1, lsl #4
     940:	00000000 	andeq	r0, r0, r0
     944:	24000000 	strcs	r0, [r0], #-0
     948:	43000004 	movwmi	r0, #4
     94c:	01000004 	tsteq	r0, r4
     950:	04435300 	strbeq	r5, [r3], #-768	; 0x300
     954:	04e00000 	strbteq	r0, [r0], #0
     958:	00010000 	andeq	r0, r1, r0
     95c:	00000055 	andeq	r0, r0, r5, asr r0
     960:	00000000 	andeq	r0, r0, r0
     964:	00046400 	andeq	r6, r4, r0, lsl #8
     968:	0004ac00 	andeq	sl, r4, r0, lsl #24
     96c:	52000100 	andpl	r0, r0, #0, 2
     970:	000004ac 	andeq	r0, r0, ip, lsr #9
     974:	000004b8 			; <UNDEFINED> instruction: 0x000004b8
     978:	00750006 	rsbseq	r0, r5, r6
     97c:	9f1e0077 	svcls	0x001e0077
     980:	000004b8 			; <UNDEFINED> instruction: 0x000004b8
     984:	000004e0 	andeq	r0, r0, r0, ror #9
     988:	00520001 	subseq	r0, r2, r1
     98c:	00000000 	andeq	r0, r0, r0
     990:	e0000000 	and	r0, r0, r0
     994:	eb000004 	bl	9ac <_start-0x7654>
     998:	01000004 	tsteq	r0, r4
     99c:	04eb5000 	strbteq	r5, [fp], #0
     9a0:	05180000 	ldreq	r0, [r8, #-0]
     9a4:	00040000 	andeq	r0, r4, r0
     9a8:	9f5001f3 	svcls	0x005001f3
	...
     9b4:	000004ec 	andeq	r0, r0, ip, ror #9
     9b8:	000004f8 	strdeq	r0, [r0], -r8
     9bc:	00500001 	subseq	r0, r0, r1
     9c0:	00000000 	andeq	r0, r0, r0
     9c4:	18000000 	stmdane	r0, {}	; <UNPREDICTABLE>
     9c8:	28000005 	stmdacs	r0, {r0, r2}
     9cc:	01000005 	tsteq	r0, r5
     9d0:	05285000 	streq	r5, [r8, #-0]!
     9d4:	05440000 	strbeq	r0, [r4, #-0]
     9d8:	00010000 	andeq	r0, r1, r0
     9dc:	00000055 	andeq	r0, r0, r5, asr r0
     9e0:	00000000 	andeq	r0, r0, r0
     9e4:	00051800 	andeq	r1, r5, r0, lsl #16
     9e8:	00052800 	andeq	r2, r5, r0, lsl #16
     9ec:	51000100 	mrspl	r0, (UNDEF: 16)
     9f0:	00000528 	andeq	r0, r0, r8, lsr #10
     9f4:	00000544 	andeq	r0, r0, r4, asr #10
     9f8:	00540001 	subseq	r0, r4, r1
     9fc:	00000000 	andeq	r0, r0, r0
     a00:	44000000 	strmi	r0, [r0], #-0
     a04:	60000005 	andvs	r0, r0, r5
     a08:	01000005 	tsteq	r0, r5
     a0c:	05605000 	strbeq	r5, [r0, #-0]!
     a10:	05ac0000 	streq	r0, [ip, #0]!
     a14:	00010000 	andeq	r0, r1, r0
     a18:	0005ac55 	andeq	sl, r5, r5, asr ip
     a1c:	0005c400 	andeq	ip, r5, r0, lsl #8
     a20:	f3000400 	vshl.u8	d0, d0, d0
     a24:	009f5001 	addseq	r5, pc, r1
     a28:	00000000 	andeq	r0, r0, r0
     a2c:	70000000 	andvc	r0, r0, r0
     a30:	80000005 	andhi	r0, r0, r5
     a34:	01000005 	tsteq	r0, r5
     a38:	05805000 	streq	r5, [r0]
     a3c:	05940000 	ldreq	r0, [r4]
     a40:	00010000 	andeq	r0, r1, r0
     a44:	00059454 	andeq	r9, r5, r4, asr r4
     a48:	00059800 	andeq	r9, r5, r0, lsl #16
     a4c:	50000100 	andpl	r0, r0, r0, lsl #2
     a50:	00000598 	muleq	r0, r8, r5
     a54:	000005ac 	andeq	r0, r0, ip, lsr #11
     a58:	ac540001 	mrrcge	0, 0, r0, r4, cr1
     a5c:	c4000005 	strgt	r0, [r0], #-5
     a60:	01000005 	tsteq	r0, r5
     a64:	00005000 	andeq	r5, r0, r0
     a68:	00000000 	andeq	r0, r0, r0
     a6c:	05c40000 	strbeq	r0, [r4]
     a70:	05d70000 	ldrbeq	r0, [r7]
     a74:	00010000 	andeq	r0, r1, r0
     a78:	0005d750 	andeq	sp, r5, r0, asr r7
     a7c:	00060c00 	andeq	r0, r6, r0, lsl #24
     a80:	f3000400 	vshl.u8	d0, d0, d0
     a84:	009f5001 	addseq	r5, pc, r1
     a88:	00000000 	andeq	r0, r0, r0
     a8c:	c4000000 	strgt	r0, [r0], #-0
     a90:	d7000005 	strle	r0, [r0, -r5]
     a94:	01000005 	tsteq	r0, r5
     a98:	05d75100 	ldrbeq	r5, [r7, #256]	; 0x100
     a9c:	060c0000 	streq	r0, [ip], -r0
     aa0:	00040000 	andeq	r0, r4, r0
     aa4:	9f5101f3 	svcls	0x005101f3
	...
     ab0:	000005c4 	andeq	r0, r0, r4, asr #11
     ab4:	000005d7 	ldrdeq	r0, [r0], -r7
     ab8:	d7520001 	ldrble	r0, [r2, -r1]
     abc:	0c000005 	stceq	0, cr0, [r0], {5}
     ac0:	04000006 	streq	r0, [r0], #-6
     ac4:	5201f300 	andpl	pc, r1, #0, 6
     ac8:	0000009f 	muleq	r0, pc, r0	; <UNPREDICTABLE>
     acc:	00000000 	andeq	r0, r0, r0
     ad0:	0005c400 	andeq	ip, r5, r0, lsl #8
     ad4:	0005d700 	andeq	sp, r5, r0, lsl #14
     ad8:	53000100 	movwpl	r0, #256	; 0x100
     adc:	000005d7 	ldrdeq	r0, [r0], -r7
     ae0:	0000060c 	andeq	r0, r0, ip, lsl #12
     ae4:	01f30004 	mvnseq	r0, r4
     ae8:	00009f53 	andeq	r9, r0, r3, asr pc
     aec:	00000000 	andeq	r0, r0, r0
     af0:	05d80000 	ldrbeq	r0, [r8]
     af4:	05e40000 	strbeq	r0, [r4, #0]!
     af8:	00010000 	andeq	r0, r1, r0
     afc:	0005f850 	andeq	pc, r5, r0, asr r8	; <UNPREDICTABLE>
     b00:	00060c00 	andeq	r0, r6, r0, lsl #24
     b04:	50000100 	andpl	r0, r0, r0, lsl #2
	...
     b10:	0000060c 	andeq	r0, r0, ip, lsl #12
     b14:	00000617 	andeq	r0, r0, r7, lsl r6
     b18:	17500001 	ldrbne	r0, [r0, -r1]
     b1c:	f8000006 			; <UNDEFINED> instruction: 0xf8000006
     b20:	04000006 	streq	r0, [r0], #-6
     b24:	5001f300 	andpl	pc, r1, r0, lsl #6
     b28:	0000009f 	muleq	r0, pc, r0	; <UNPREDICTABLE>
     b2c:	00000000 	andeq	r0, r0, r0
     b30:	00079000 	andeq	r9, r7, r0
     b34:	0007a400 	andeq	sl, r7, r0, lsl #8
     b38:	03000600 	movweq	r0, #1536	; 0x600
     b3c:	0000a1c0 	andeq	sl, r0, r0, asr #3
     b40:	0007a49f 	muleq	r7, pc, r4	; <UNPREDICTABLE>
     b44:	0007fc00 	andeq	pc, r7, r0, lsl #24
     b48:	54000100 	strpl	r0, [r0], #-256	; 0x100
	...
     b54:	00000790 	muleq	r0, r0, r7
     b58:	000007a4 	andeq	r0, r0, r4, lsr #15
     b5c:	9f300002 	svcls	0x00300002
     b60:	000007a4 	andeq	r0, r0, r4, lsr #15
     b64:	000007fc 	strdeq	r0, [r0], -ip
     b68:	00550001 	subseq	r0, r5, r1
     b6c:	00000000 	andeq	r0, r0, r0
     b70:	2c000000 	stccs	0, cr0, [r0], {-0}
     b74:	38000000 	stmdacc	r0, {}	; <UNPREDICTABLE>
     b78:	01000000 	mrseq	r0, (UNDEF: 0)
     b7c:	00385000 	eorseq	r5, r8, r0
     b80:	00480000 	subeq	r0, r8, r0
     b84:	00010000 	andeq	r0, r1, r0
     b88:	00004855 	andeq	r4, r0, r5, asr r8
     b8c:	00005800 	andeq	r5, r0, r0, lsl #16
     b90:	50000100 	andpl	r0, r0, r0, lsl #2
	...
     ba0:	00000010 	andeq	r0, r0, r0, lsl r0
     ba4:	10500001 	subsne	r0, r0, r1
     ba8:	34000000 	strcc	r0, [r0], #-0
     bac:	01000000 	mrseq	r0, (UNDEF: 0)
     bb0:	00005400 	andeq	r5, r0, r0, lsl #8
	...
     bbc:	00040000 	andeq	r0, r4, r0
     bc0:	00010000 	andeq	r0, r1, r0
     bc4:	00000450 	andeq	r0, r0, r0, asr r4
     bc8:	00000c00 	andeq	r0, r0, r0, lsl #24
     bcc:	70000300 	andvc	r0, r0, r0, lsl #6
     bd0:	000c9f30 	andeq	r9, ip, r0, lsr pc
     bd4:	00140000 	andseq	r0, r4, r0
     bd8:	00040000 	andeq	r0, r4, r0
     bdc:	9f5001f3 	svcls	0x005001f3
	...
     be8:	00000014 	andeq	r0, r0, r4, lsl r0
     bec:	00000020 	andeq	r0, r0, r0, lsr #32
     bf0:	20500001 	subscs	r0, r0, r1
     bf4:	2c000000 	stccs	0, cr0, [r0], {-0}
     bf8:	03000000 	movweq	r0, #0
     bfc:	9f017000 	svcls	0x00017000
     c00:	0000002c 	andeq	r0, r0, ip, lsr #32
     c04:	00000040 	andeq	r0, r0, r0, asr #32
     c08:	00500001 	subseq	r0, r0, r1
     c0c:	00000000 	andeq	r0, r0, r0
     c10:	14000000 	strne	r0, [r0], #-0
     c14:	18000000 	stmdane	r0, {}	; <UNPREDICTABLE>
     c18:	01000000 	mrseq	r0, (UNDEF: 0)
     c1c:	00185100 	andseq	r5, r8, r0, lsl #2
     c20:	00400000 	subeq	r0, r0, r0
     c24:	00040000 	andeq	r0, r4, r0
     c28:	9f5101f3 	svcls	0x005101f3
	...
     c34:	00000040 	andeq	r0, r0, r0, asr #32
     c38:	00000060 	andeq	r0, r0, r0, rrx
     c3c:	60500001 	subsvs	r0, r0, r1
     c40:	6c000000 	stcvs	0, cr0, [r0], {-0}
     c44:	03000000 	movweq	r0, #0
     c48:	9f017100 	svcls	0x00017100
     c4c:	0000006c 	andeq	r0, r0, ip, rrx
     c50:	00000074 	andeq	r0, r0, r4, ror r0
     c54:	74510001 	ldrbvc	r0, [r1], #-1
     c58:	80000000 	andhi	r0, r0, r0
     c5c:	03000000 	movweq	r0, #0
     c60:	9f017100 	svcls	0x00017100
	...
     c6c:	00000040 	andeq	r0, r0, r0, asr #32
     c70:	00000050 	andeq	r0, r0, r0, asr r0
     c74:	50510001 	subspl	r0, r1, r1
     c78:	80000000 	andhi	r0, r0, r0
     c7c:	04000000 	streq	r0, [r0], #-0
     c80:	5101f300 	mrspl	pc, SP_irq	; <UNPREDICTABLE>
     c84:	0000009f 	muleq	r0, pc, r0	; <UNPREDICTABLE>
     c88:	00000000 	andeq	r0, r0, r0
     c8c:	00004000 	andeq	r4, r0, r0
     c90:	00005800 	andeq	r5, r0, r0, lsl #16
     c94:	52000100 	andpl	r0, r0, #0, 2
     c98:	00000058 	andeq	r0, r0, r8, asr r0
     c9c:	00000064 	andeq	r0, r0, r4, rrx
     ca0:	64520001 	ldrbvs	r0, [r2], #-1
     ca4:	68000000 	stmdavs	r0, {}	; <UNPREDICTABLE>
     ca8:	03000000 	movweq	r0, #0
     cac:	9f017200 	svcls	0x00017200
     cb0:	00000068 	andeq	r0, r0, r8, rrx
     cb4:	00000080 	andeq	r0, r0, r0, lsl #1
     cb8:	00520001 	subseq	r0, r2, r1
     cbc:	00000000 	andeq	r0, r0, r0
     cc0:	40000000 	andmi	r0, r0, r0
     cc4:	54000000 	strpl	r0, [r0], #-0
     cc8:	01000000 	mrseq	r0, (UNDEF: 0)
     ccc:	00545300 	subseq	r5, r4, r0, lsl #6
     cd0:	00780000 	rsbseq	r0, r8, r0
     cd4:	00010000 	andeq	r0, r1, r0
     cd8:	00000053 	andeq	r0, r0, r3, asr r0
     cdc:	00000000 	andeq	r0, r0, r0
     ce0:	00004800 	andeq	r4, r0, r0, lsl #16
     ce4:	00006000 	andeq	r6, r0, r0
     ce8:	5c000100 	stfpls	f0, [r0], {-0}
     cec:	00000060 	andeq	r0, r0, r0, rrx
     cf0:	00000080 	andeq	r0, r0, r0, lsl #1
     cf4:	01f3000a 	mvnseq	r0, sl
     cf8:	5301f352 	movwpl	pc, #4946	; 0x1352	; <UNPREDICTABLE>
     cfc:	9f01231c 	svcls	0x0001231c
	...
     d08:	00000080 	andeq	r0, r0, r0, lsl #1
     d0c:	000000a4 	andeq	r0, r0, r4, lsr #1
     d10:	a4500001 	ldrbge	r0, [r0], #-1
     d14:	18000000 	stmdane	r0, {}	; <UNPREDICTABLE>
     d18:	03000001 	movweq	r0, #1
     d1c:	9f027000 	svcls	0x00027000
     d20:	00000118 	andeq	r0, r0, r8, lsl r1
     d24:	00000218 	andeq	r0, r0, r8, lsl r2
     d28:	01f30004 	mvnseq	r0, r4
     d2c:	00009f50 	andeq	r9, r0, r0, asr pc
     d30:	00000000 	andeq	r0, r0, r0
     d34:	00800000 	addeq	r0, r0, r0
     d38:	00f00000 	rscseq	r0, r0, r0
     d3c:	00010000 	andeq	r0, r1, r0
     d40:	0000f051 	andeq	pc, r0, r1, asr r0	; <UNPREDICTABLE>
     d44:	00016000 	andeq	r6, r1, r0
     d48:	55000100 	strpl	r0, [r0, #-256]	; 0x100
     d4c:	00000160 	andeq	r0, r0, r0, ror #2
     d50:	00000168 	andeq	r0, r0, r8, ror #2
     d54:	68510001 	ldmdavs	r1, {r0}^
     d58:	88000001 	stmdahi	r0, {r0}
     d5c:	01000001 	tsteq	r0, r1
     d60:	01885500 	orreq	r5, r8, r0, lsl #10
     d64:	019c0000 	orrseq	r0, ip, r0
     d68:	00010000 	andeq	r0, r1, r0
     d6c:	00019c51 	andeq	r9, r1, r1, asr ip
     d70:	0001bc00 	andeq	fp, r1, r0, lsl #24
     d74:	55000100 	strpl	r0, [r0, #-256]	; 0x100
     d78:	000001bc 			; <UNDEFINED> instruction: 0x000001bc
     d7c:	000001c4 	andeq	r0, r0, r4, asr #3
     d80:	c4510001 	ldrbgt	r0, [r1], #-1
     d84:	fc000001 	stc2	0, cr0, [r0], {1}
     d88:	01000001 	tsteq	r0, r1
     d8c:	01fc5500 	mvnseq	r5, r0, lsl #10
     d90:	02180000 	andseq	r0, r8, #0
     d94:	00040000 	andeq	r0, r4, r0
     d98:	9f5101f3 	svcls	0x005101f3
	...
     da4:	00000080 	andeq	r0, r0, r0, lsl #1
     da8:	00000094 	muleq	r0, r4, r0
     dac:	94520001 	ldrbls	r0, [r2], #-1
     db0:	fc000000 	stc2	0, cr0, [r0], {-0}
     db4:	01000001 	tsteq	r0, r1
     db8:	01fc5400 	mvnseq	r5, r0, lsl #8
     dbc:	02180000 	andseq	r0, r8, #0
     dc0:	00040000 	andeq	r0, r4, r0
     dc4:	9f5201f3 	svcls	0x005201f3
	...
     dd0:	00000080 	andeq	r0, r0, r0, lsl #1
     dd4:	00000100 	andeq	r0, r0, r0, lsl #2
     dd8:	04530001 	ldrbeq	r0, [r3], #-1
     ddc:	08000001 	stmdaeq	r0, {r0}
     de0:	01000001 	tsteq	r0, r1
     de4:	01605300 	cmneq	r0, r0, lsl #6
     de8:	01680000 	cmneq	r8, r0
     dec:	00010000 	andeq	r0, r1, r0
     df0:	00016853 	andeq	r6, r1, r3, asr r8
     df4:	00018800 	andeq	r8, r1, r0, lsl #16
     df8:	f3000400 	vshl.u8	d0, d0, d0
     dfc:	889f5301 	ldmhi	pc, {r0, r8, r9, ip, lr}	; <UNPREDICTABLE>
     e00:	90000001 	andls	r0, r0, r1
     e04:	01000001 	tsteq	r0, r1
     e08:	01905300 	orrseq	r5, r0, r0, lsl #6
     e0c:	01940000 	orrseq	r0, r4, r0
     e10:	00010000 	andeq	r0, r1, r0
     e14:	0001945c 	andeq	r9, r1, ip, asr r4
     e18:	00019c00 	andeq	r9, r1, r0, lsl #24
     e1c:	53000100 	movwpl	r0, #256	; 0x100
     e20:	0000019c 	muleq	r0, ip, r1
     e24:	000001bc 			; <UNDEFINED> instruction: 0x000001bc
     e28:	01f30004 	mvnseq	r0, r4
     e2c:	01bc9f53 			; <UNDEFINED> instruction: 0x01bc9f53
     e30:	01cc0000 	biceq	r0, ip, r0
     e34:	00010000 	andeq	r0, r1, r0
     e38:	0001cc53 	andeq	ip, r1, r3, asr ip
     e3c:	0001cf00 	andeq	ip, r1, r0, lsl #30
     e40:	5c000100 	stfpls	f0, [r0], {-0}
     e44:	000001cf 	andeq	r0, r0, pc, asr #3
     e48:	000001d4 	ldrdeq	r0, [r0], -r4
     e4c:	01f30004 	mvnseq	r0, r4
     e50:	00009f53 	andeq	r9, r0, r3, asr pc
     e54:	00000000 	andeq	r0, r0, r0
     e58:	00800000 	addeq	r0, r0, r0
     e5c:	009c0000 	addseq	r0, ip, r0
     e60:	00020000 	andeq	r0, r2, r0
     e64:	009c0091 	umullseq	r0, ip, r1, r0
     e68:	01c80000 	biceq	r0, r8, r0
     e6c:	00010000 	andeq	r0, r1, r0
     e70:	0001d452 	andeq	sp, r1, r2, asr r4
     e74:	0001df00 	andeq	sp, r1, r0, lsl #30
     e78:	52000100 	andpl	r0, r0, #0, 2
	...
     e84:	0000009c 	muleq	r0, ip, r0
     e88:	00000118 	andeq	r0, r0, r8, lsl r1
     e8c:	185d0001 	ldmdane	sp, {r0}^
     e90:	1c000001 	stcne	0, cr0, [r0], {1}
     e94:	01000001 	tsteq	r0, r1
     e98:	011c5300 	tsteq	ip, r0, lsl #6
     e9c:	01200000 	teqeq	r0, r0
     ea0:	00010000 	andeq	r0, r1, r0
     ea4:	00012051 	andeq	r2, r1, r1, asr r0
     ea8:	00016000 	andeq	r6, r1, r0
     eac:	53000100 	movwpl	r0, #256	; 0x100
     eb0:	00000160 	andeq	r0, r0, r0, ror #2
     eb4:	00000168 	andeq	r0, r0, r8, ror #2
     eb8:	685d0001 	ldmdavs	sp, {r0}^
     ebc:	6c000001 	stcvs	0, cr0, [r0], {1}
     ec0:	01000001 	tsteq	r0, r1
     ec4:	016c5e00 	cmneq	ip, r0, lsl #28
     ec8:	01880000 	orreq	r0, r8, r0
     ecc:	00010000 	andeq	r0, r1, r0
     ed0:	00018853 	andeq	r8, r1, r3, asr r8
     ed4:	00019000 	andeq	r9, r1, r0
     ed8:	91000400 	tstls	r0, r0, lsl #8
     edc:	909f7fa1 	addsls	r7, pc, r1, lsr #31
     ee0:	94000001 	strls	r0, [r0], #-1
     ee4:	01000001 	tsteq	r0, r1
     ee8:	01945300 	orrseq	r5, r4, r0, lsl #6
     eec:	019c0000 	orrseq	r0, ip, r0
     ef0:	00010000 	andeq	r0, r1, r0
     ef4:	00019c5d 	andeq	r9, r1, sp, asr ip
     ef8:	0001a000 	andeq	sl, r1, r0
     efc:	5e000100 	adfpls	f0, f0, f0
     f00:	000001a0 	andeq	r0, r0, r0, lsr #3
     f04:	000001bc 			; <UNDEFINED> instruction: 0x000001bc
     f08:	bc530001 	mrrclt	0, 0, r0, r3, cr1
     f0c:	d4000001 	strle	r0, [r0], #-1
     f10:	01000001 	tsteq	r0, r1
     f14:	01d45d00 	bicseq	r5, r4, r0, lsl #26
     f18:	01df0000 	bicseq	r0, pc, r0
     f1c:	00010000 	andeq	r0, r1, r0
     f20:	00000053 	andeq	r0, r0, r3, asr r0
     f24:	00000000 	andeq	r0, r0, r0
     f28:	0000a000 	andeq	sl, r0, r0
     f2c:	0000ec00 	andeq	lr, r0, r0, lsl #24
     f30:	5c000100 	stfpls	f0, [r0], {-0}
     f34:	000000ec 	andeq	r0, r0, ip, ror #1
     f38:	00000100 	andeq	r0, r0, r0, lsl #2
     f3c:	00530001 	subseq	r0, r3, r1
     f40:	04000001 	streq	r0, [r0], #-1
     f44:	01000001 	tsteq	r0, r1
     f48:	01045c00 	tsteq	r4, r0, lsl #24
     f4c:	01080000 	mrseq	r0, (UNDEF: 8)
     f50:	00010000 	andeq	r0, r1, r0
     f54:	00010853 	andeq	r0, r1, r3, asr r8
     f58:	00011800 	andeq	r1, r1, r0, lsl #16
     f5c:	5c000100 	stfpls	f0, [r0], {-0}
     f60:	00000118 	andeq	r0, r0, r8, lsl r1
     f64:	0000011c 	andeq	r0, r0, ip, lsl r1
     f68:	1c500001 	mrrcne	0, 0, r0, r0, cr1	; <UNPREDICTABLE>
     f6c:	3c000001 	stccc	0, cr0, [r0], {1}
     f70:	01000001 	tsteq	r0, r1
     f74:	01445c00 	cmpeq	r4, r0, lsl #24
     f78:	01580000 	cmpeq	r8, r0
     f7c:	00010000 	andeq	r0, r1, r0
     f80:	00015850 	andeq	r5, r1, r0, asr r8
     f84:	00016000 	andeq	r6, r1, r0
     f88:	5c000100 	stfpls	f0, [r0], {-0}
     f8c:	00000160 	andeq	r0, r0, r0, ror #2
     f90:	00000168 	andeq	r0, r0, r8, ror #2
     f94:	68530001 	ldmdavs	r3, {r0}^
     f98:	78000001 	stmdavc	r0, {r0}
     f9c:	01000001 	tsteq	r0, r1
     fa0:	01785c00 	cmneq	r8, r0, lsl #24
     fa4:	01800000 	orreq	r0, r0, r0
     fa8:	00050000 	andeq	r0, r5, r0
     fac:	2534007c 	ldrcs	r0, [r4, #-124]!	; 0x7c
     fb0:	0001809f 	muleq	r1, pc, r0	; <UNPREDICTABLE>
     fb4:	00018800 	andeq	r8, r1, r0, lsl #16
     fb8:	5c000100 	stfpls	f0, [r0], {-0}
     fbc:	00000188 	andeq	r0, r0, r8, lsl #3
     fc0:	00000190 	muleq	r0, r0, r1
     fc4:	90530001 	subsls	r0, r3, r1
     fc8:	94000001 	strls	r0, [r0], #-1
     fcc:	01000001 	tsteq	r0, r1
     fd0:	01945c00 	orrseq	r5, r4, r0, lsl #24
     fd4:	019c0000 	orrseq	r0, ip, r0
     fd8:	00010000 	andeq	r0, r1, r0
     fdc:	00019c53 	andeq	r9, r1, r3, asr ip
     fe0:	0001ac00 	andeq	sl, r1, r0, lsl #24
     fe4:	5c000100 	stfpls	f0, [r0], {-0}
     fe8:	000001ac 	andeq	r0, r0, ip, lsr #3
     fec:	000001b4 			; <UNDEFINED> instruction: 0x000001b4
     ff0:	007c0005 	rsbseq	r0, ip, r5
     ff4:	b49f2531 	ldrlt	r2, [pc], #1329	; ffc <_start-0x7004>
     ff8:	bc000001 	stclt	0, cr0, [r0], {1}
     ffc:	01000001 	tsteq	r0, r1
    1000:	01bc5c00 			; <UNDEFINED> instruction: 0x01bc5c00
    1004:	01cc0000 	biceq	r0, ip, r0
    1008:	00010000 	andeq	r0, r1, r0
    100c:	0001cc53 	andeq	ip, r1, r3, asr ip
    1010:	0001cf00 	andeq	ip, r1, r0, lsl #30
    1014:	5c000100 	stfpls	f0, [r0], {-0}
    1018:	000001cf 	andeq	r0, r0, pc, asr #3
    101c:	000001d4 	ldrdeq	r0, [r0], -r4
    1020:	01f30004 	mvnseq	r0, r4
    1024:	01d49f53 	bicseq	r9, r4, r3, asr pc
    1028:	01df0000 	bicseq	r0, pc, r0
    102c:	00010000 	andeq	r0, r1, r0
    1030:	0000005c 	andeq	r0, r0, ip, asr r0
    1034:	00000000 	andeq	r0, r0, r0
    1038:	0000ec00 	andeq	lr, r0, r0, lsl #24
    103c:	0000fc00 	andeq	pc, r0, r0, lsl #24
    1040:	30000200 	andcc	r0, r0, r0, lsl #4
    1044:	0000fc9f 	muleq	r0, pc, ip	; <UNPREDICTABLE>
    1048:	00010400 	andeq	r0, r1, r0, lsl #8
    104c:	31000200 	mrscc	r0, R8_usr
    1050:	0001049f 	muleq	r1, pc, r4	; <UNPREDICTABLE>
    1054:	00010800 	andeq	r0, r1, r0, lsl #16
    1058:	30000200 	andcc	r0, r0, r0, lsl #4
    105c:	0000009f 	muleq	r0, pc, r0	; <UNPREDICTABLE>
    1060:	00000000 	andeq	r0, r0, r0
    1064:	00021800 	andeq	r1, r2, r0, lsl #16
    1068:	00022800 	andeq	r2, r2, r0, lsl #16
    106c:	50000100 	andpl	r0, r0, r0, lsl #2
    1070:	00000228 	andeq	r0, r0, r8, lsr #4
    1074:	0000023c 	andeq	r0, r0, ip, lsr r2
    1078:	01f30004 	mvnseq	r0, r4
    107c:	023c9f50 	eorseq	r9, ip, #80, 30	; 0x140
    1080:	02680000 	rsbeq	r0, r8, #0
    1084:	00010000 	andeq	r0, r1, r0
    1088:	00000050 	andeq	r0, r0, r0, asr r0
    108c:	00000000 	andeq	r0, r0, r0
    1090:	00021800 	andeq	r1, r2, r0, lsl #16
    1094:	00022c00 	andeq	r2, r2, r0, lsl #24
    1098:	51000100 	mrspl	r0, (UNDEF: 16)
    109c:	0000022c 	andeq	r0, r0, ip, lsr #4
    10a0:	0000023c 	andeq	r0, r0, ip, lsr r2
    10a4:	01f30004 	mvnseq	r0, r4
    10a8:	023c9f51 	eorseq	r9, ip, #324	; 0x144
    10ac:	02680000 	rsbeq	r0, r8, #0
    10b0:	00010000 	andeq	r0, r1, r0
    10b4:	00000051 	andeq	r0, r0, r1, asr r0
    10b8:	00000000 	andeq	r0, r0, r0
    10bc:	00026800 	andeq	r6, r2, r0, lsl #16
    10c0:	00029000 	andeq	r9, r2, r0
    10c4:	50000100 	andpl	r0, r0, r0, lsl #2
    10c8:	00000290 	muleq	r0, r0, r2
    10cc:	000004dc 	ldrdeq	r0, [r0], -ip
    10d0:	dc5b0001 	mrrcle	0, 0, r0, fp, cr1
    10d4:	f0000004 			; <UNDEFINED> instruction: 0xf0000004
    10d8:	04000004 	streq	r0, [r0], #-4
    10dc:	5001f300 	andpl	pc, r1, r0, lsl #6
    10e0:	0000009f 	muleq	r0, pc, r0	; <UNPREDICTABLE>
    10e4:	00000000 	andeq	r0, r0, r0
    10e8:	00026800 	andeq	r6, r2, r0, lsl #16
    10ec:	00027c00 	andeq	r7, r2, r0, lsl #24
    10f0:	51000100 	mrspl	r0, (UNDEF: 16)
    10f4:	0000027c 	andeq	r0, r0, ip, ror r2
    10f8:	00000290 	muleq	r0, r0, r2
    10fc:	01710003 	cmneq	r1, r3
    1100:	0002909f 	muleq	r2, pc, r0	; <UNPREDICTABLE>
    1104:	0004f000 	andeq	pc, r4, r0
    1108:	f3000400 	vshl.u8	d0, d0, d0
    110c:	009f5101 	addseq	r5, pc, r1, lsl #2
    1110:	00000000 	andeq	r0, r0, r0
    1114:	68000000 	stmdavs	r0, {}	; <UNPREDICTABLE>
    1118:	98000002 	stmdals	r0, {r1}
    111c:	01000002 	tsteq	r0, r2
    1120:	02985200 	addseq	r5, r8, #0, 4
    1124:	02c00000 	sbceq	r0, r0, #0
    1128:	00010000 	andeq	r0, r1, r0
    112c:	0002c052 	andeq	ip, r2, r2, asr r0
    1130:	00048c00 	andeq	r8, r4, r0, lsl #24
    1134:	56000100 	strpl	r0, [r0], -r0, lsl #2
    1138:	0000048c 	andeq	r0, r0, ip, lsl #9
    113c:	000004f0 	strdeq	r0, [r0], -r0	; <UNPREDICTABLE>
    1140:	00520001 	subseq	r0, r2, r1
    1144:	00000000 	andeq	r0, r0, r0
    1148:	68000000 	stmdavs	r0, {}	; <UNPREDICTABLE>
    114c:	84000002 	strhi	r0, [r0], #-2
    1150:	01000002 	tsteq	r0, r2
    1154:	00005300 	andeq	r5, r0, r0, lsl #6
    1158:	00000000 	andeq	r0, r0, r0
    115c:	02780000 	rsbseq	r0, r8, #0
    1160:	02900000 	addseq	r0, r0, #0
    1164:	00010000 	andeq	r0, r1, r0
    1168:	00029050 	andeq	r9, r2, r0, asr r0
    116c:	00029400 	andeq	r9, r2, r0, lsl #8
    1170:	54000100 	strpl	r0, [r0], #-256	; 0x100
    1174:	00000294 	muleq	r0, r4, r2
    1178:	000002a0 	andeq	r0, r0, r0, lsr #5
    117c:	01740003 	cmneq	r4, r3
    1180:	0002a09f 	muleq	r2, pc, r0	; <UNPREDICTABLE>
    1184:	0002ac00 	andeq	sl, r2, r0, lsl #24
    1188:	54000100 	strpl	r0, [r0], #-256	; 0x100
    118c:	000002ac 	andeq	r0, r0, ip, lsr #5
    1190:	000002b8 			; <UNDEFINED> instruction: 0x000002b8
    1194:	01740003 	cmneq	r4, r3
    1198:	0002b89f 	muleq	r2, pc, r8	; <UNPREDICTABLE>
    119c:	00049000 	andeq	r9, r4, r0
    11a0:	54000100 	strpl	r0, [r0], #-256	; 0x100
    11a4:	00000490 	muleq	r0, r0, r4
    11a8:	0000049c 	muleq	r0, ip, r4
    11ac:	01740003 	cmneq	r4, r3
    11b0:	00049c9f 	muleq	r4, pc, ip	; <UNPREDICTABLE>
    11b4:	0004c800 	andeq	ip, r4, r0, lsl #16
    11b8:	54000100 	strpl	r0, [r0], #-256	; 0x100
    11bc:	000004c8 	andeq	r0, r0, r8, asr #9
    11c0:	000004d4 	ldrdeq	r0, [r0], -r4
    11c4:	d4500001 	ldrble	r0, [r0], #-1
    11c8:	dc000004 	stcle	0, cr0, [r0], {4}
    11cc:	03000004 	movweq	r0, #4
    11d0:	9f017400 	svcls	0x00017400
	...
    11dc:	00000280 	andeq	r0, r0, r0, lsl #5
    11e0:	000004dc 	ldrdeq	r0, [r0], -ip
    11e4:	dc580001 	mrrcle	0, 0, r0, r8, cr1
    11e8:	f0000004 			; <UNDEFINED> instruction: 0xf0000004
    11ec:	0a000004 	beq	1204 <_start-0x6dfc>
    11f0:	5101f300 	mrspl	pc, SP_irq	; <UNPREDICTABLE>
    11f4:	225001f3 	subscs	r0, r0, #-1073741764	; 0xc000003c
    11f8:	009f1c31 	addseq	r1, pc, r1, lsr ip	; <UNPREDICTABLE>
    11fc:	00000000 	andeq	r0, r0, r0
    1200:	bc000000 	stclt	0, cr0, [r0], {-0}
    1204:	c0000003 	andgt	r0, r0, r3
    1208:	01000003 	tsteq	r0, r3
    120c:	03e45000 	mvneq	r5, #0
    1210:	03e80000 	mvneq	r0, #0
    1214:	00010000 	andeq	r0, r1, r0
    1218:	00040c50 	andeq	r0, r4, r0, asr ip
    121c:	00041000 	andeq	r1, r4, r0
    1220:	50000100 	andpl	r0, r0, r0, lsl #2
    1224:	00000434 	andeq	r0, r0, r4, lsr r4
    1228:	00000438 	andeq	r0, r0, r8, lsr r4
    122c:	40500001 	subsmi	r0, r0, r1
    1230:	44000004 	strmi	r0, [r0], #-4
    1234:	01000004 	tsteq	r0, r4
    1238:	04685000 	strbteq	r5, [r8], #-0
    123c:	046c0000 	strbteq	r0, [ip], #-0
    1240:	00010000 	andeq	r0, r1, r0
    1244:	00048850 	andeq	r8, r4, r0, asr r8
    1248:	0004b000 	andeq	fp, r4, r0
    124c:	50000100 	andpl	r0, r0, r0, lsl #2
	...
    1258:	000002c0 	andeq	r0, r0, r0, asr #5
    125c:	000002c8 	andeq	r0, r0, r8, asr #5
    1260:	9f300002 	svcls	0x00300002
    1264:	000002c8 	andeq	r0, r0, r8, asr #5
    1268:	000002cc 	andeq	r0, r0, ip, asr #5
    126c:	d8570001 	ldmdale	r7, {r0}^
    1270:	b0000002 	andlt	r0, r0, r2
    1274:	01000004 	tsteq	r0, r4
    1278:	00005700 	andeq	r5, r0, r0, lsl #14
    127c:	00000000 	andeq	r0, r0, r0
    1280:	00140000 	andseq	r0, r4, r0
    1284:	001c0000 	andseq	r0, ip, r0
    1288:	00030000 	andeq	r0, r3, r0
    128c:	1c9f0473 	cfldrsne	mvf0, [pc], {115}	; 0x73
    1290:	27000000 	strcs	r0, [r0, -r0]
    1294:	01000000 	mrseq	r0, (UNDEF: 0)
    1298:	00005300 	andeq	r5, r0, r0, lsl #6
    129c:	00000000 	andeq	r0, r0, r0
    12a0:	8de40000 	stclhi	0, cr0, [r4]
    12a4:	8de80000 	stclhi	0, cr0, [r8]
    12a8:	00020000 	andeq	r0, r2, r0
    12ac:	8de89f30 	stclhi	15, cr9, [r8, #192]!	; 0xc0
    12b0:	8dec0000 	stclhi	0, cr0, [ip]
    12b4:	00010000 	andeq	r0, r1, r0
    12b8:	00000050 	andeq	r0, r0, r0, asr r0
    12bc:	00000000 	andeq	r0, r0, r0
    12c0:	008dfc00 	addeq	pc, sp, r0, lsl #24
    12c4:	008e0000 	addeq	r0, lr, r0
    12c8:	30000200 	andcc	r0, r0, r0, lsl #4
    12cc:	008e009f 	umulleq	r0, lr, pc, r0	; <UNPREDICTABLE>
    12d0:	008e0400 	addeq	r0, lr, r0, lsl #8
    12d4:	53000100 	movwpl	r0, #256	; 0x100
    12d8:	00008e08 	andeq	r8, r0, r8, lsl #28
    12dc:	00008e10 	andeq	r8, r0, r0, lsl lr
    12e0:	00530001 	subseq	r0, r3, r1
	...
    12ec:	04000000 	streq	r0, [r0], #-0
    12f0:	01000000 	mrseq	r0, (UNDEF: 0)
    12f4:	00045000 	andeq	r5, r4, r0
    12f8:	000c0000 	andeq	r0, ip, r0
    12fc:	00010000 	andeq	r0, r1, r0
    1300:	00000c53 	andeq	r0, r0, r3, asr ip
    1304:	00001000 	andeq	r1, r0, r0
    1308:	50000100 	andpl	r0, r0, r0, lsl #2
    130c:	00000010 	andeq	r0, r0, r0, lsl r0
    1310:	0000001c 	andeq	r0, r0, ip, lsl r0
    1314:	00530001 	subseq	r0, r3, r1
    1318:	00000000 	andeq	r0, r0, r0
    131c:	3c000000 	stccc	0, cr0, [r0], {-0}
    1320:	47000000 	strmi	r0, [r0, -r0]
    1324:	01000000 	mrseq	r0, (UNDEF: 0)
    1328:	00475000 	subeq	r5, r7, r0
    132c:	00600000 	rsbeq	r0, r0, r0
    1330:	00010000 	andeq	r0, r1, r0
    1334:	00000055 	andeq	r0, r0, r5, asr r0
    1338:	00000000 	andeq	r0, r0, r0
    133c:	00005000 	andeq	r5, r0, r0
    1340:	00005400 	andeq	r5, r0, r0, lsl #8
    1344:	50000100 	andpl	r0, r0, r0, lsl #2
	...
    1350:	00000060 	andeq	r0, r0, r0, rrx
    1354:	0000006c 	andeq	r0, r0, ip, rrx
    1358:	6c500001 	mrrcvs	0, 0, r0, r0, cr1	; <UNPREDICTABLE>
    135c:	74000000 	strvc	r0, [r0], #-0
    1360:	04000000 	streq	r0, [r0], #-0
    1364:	5001f300 	andpl	pc, r1, r0, lsl #6
    1368:	0000009f 	muleq	r0, pc, r0	; <UNPREDICTABLE>
    136c:	00000000 	andeq	r0, r0, r0
    1370:	00007400 	andeq	r7, r0, r0, lsl #8
    1374:	00008000 	andeq	r8, r0, r0
    1378:	50000100 	andpl	r0, r0, r0, lsl #2
    137c:	00000080 	andeq	r0, r0, r0, lsl #1
    1380:	00000088 	andeq	r0, r0, r8, lsl #1
    1384:	01f30004 	mvnseq	r0, r4
    1388:	00009f50 	andeq	r9, r0, r0, asr pc
	...
    1394:	00900000 	addseq	r0, r0, r0
    1398:	00010000 	andeq	r0, r1, r0
    139c:	00009050 	andeq	r9, r0, r0, asr r0
    13a0:	0000d400 	andeq	sp, r0, r0, lsl #8
    13a4:	54000100 	strpl	r0, [r0], #-256	; 0x100
	...
    13b0:	00000048 	andeq	r0, r0, r8, asr #32
    13b4:	0000004c 	andeq	r0, r0, ip, asr #32
    13b8:	54550001 	ldrbpl	r0, [r5], #-1
    13bc:	58000000 	stmdapl	r0, {}	; <UNPREDICTABLE>
    13c0:	01000000 	mrseq	r0, (UNDEF: 0)
    13c4:	00605500 	rsbeq	r5, r0, r0, lsl #10
    13c8:	00640000 	rsbeq	r0, r4, r0
    13cc:	00010000 	andeq	r0, r1, r0
    13d0:	00006c55 	andeq	r6, r0, r5, asr ip
    13d4:	00007000 	andeq	r7, r0, r0
    13d8:	55000100 	strpl	r0, [r0, #-256]	; 0x100
    13dc:	00000078 	andeq	r0, r0, r8, ror r0
    13e0:	0000007c 	andeq	r0, r0, ip, ror r0
    13e4:	84550001 	ldrbhi	r0, [r5], #-1
    13e8:	88000000 	stmdahi	r0, {}	; <UNPREDICTABLE>
    13ec:	01000000 	mrseq	r0, (UNDEF: 0)
    13f0:	008c5500 	addeq	r5, ip, r0, lsl #10
    13f4:	00d40000 	sbcseq	r0, r4, r0
    13f8:	00010000 	andeq	r0, r1, r0
    13fc:	00000055 	andeq	r0, r0, r5, asr r0
    1400:	00000000 	andeq	r0, r0, r0
    1404:	00001c00 	andeq	r1, r0, r0, lsl #24
    1408:	00004400 	andeq	r4, r0, r0, lsl #8
    140c:	53000100 	movwpl	r0, #256	; 0x100
    1410:	00000044 	andeq	r0, r0, r4, asr #32
    1414:	0000004c 	andeq	r0, r0, ip, asr #32
    1418:	0070001c 	rsbseq	r0, r0, ip, lsl r0
    141c:	25f72cf7 	ldrbcs	r2, [r7, #3319]!	; 0xcf7
    1420:	cd0825f4 	cfstr32gt	mvfx2, [r8, #-976]	; 0xfffffc30
    1424:	00cccccc 	sbceq	ip, ip, ip, asr #25
    1428:	1e000000 	cdpne	0, 0, cr0, cr0, cr0, {0}
    142c:	25f72008 	ldrbcs	r2, [r7, #8]!
    1430:	332cf725 	msrcc	CPSR_fs, #9699328	; 0x940000
    1434:	004c9f25 	subeq	r9, ip, r5, lsr #30
    1438:	00500000 	subseq	r0, r0, r0
    143c:	00010000 	andeq	r0, r1, r0
    1440:	00005053 	andeq	r5, r0, r3, asr r0
    1444:	00005800 	andeq	r5, r0, r0, lsl #16
    1448:	70001c00 	andvc	r1, r0, r0, lsl #24
    144c:	f72cf700 			; <UNDEFINED> instruction: 0xf72cf700
    1450:	0825f425 	stmdaeq	r5!, {r0, r2, r5, sl, ip, sp, lr, pc}
    1454:	cccccccd 	stclgt	12, cr12, [ip], {205}	; 0xcd
    1458:	00000000 	andeq	r0, r0, r0
    145c:	f720081e 			; <UNDEFINED> instruction: 0xf720081e
    1460:	2cf72525 	cfldr64cs	mvdx2, [r7], #148	; 0x94
    1464:	589f2533 	ldmpl	pc, {r0, r1, r4, r5, r8, sl, sp}	; <UNPREDICTABLE>
    1468:	5c000000 	stcpl	0, cr0, [r0], {-0}
    146c:	01000000 	mrseq	r0, (UNDEF: 0)
    1470:	005c5300 	subseq	r5, ip, r0, lsl #6
    1474:	00640000 	rsbeq	r0, r4, r0
    1478:	001c0000 	andseq	r0, ip, r0
    147c:	2cf70070 	ldclcs	0, cr0, [r7], #448	; 0x1c0
    1480:	25f425f7 	ldrbcs	r2, [r4, #1527]!	; 0x5f7
    1484:	cccccd08 	stclgt	13, cr12, [ip], {8}
    1488:	000000cc 	andeq	r0, r0, ip, asr #1
    148c:	20081e00 	andcs	r1, r8, r0, lsl #28
    1490:	f72525f7 			; <UNDEFINED> instruction: 0xf72525f7
    1494:	9f25332c 	svcls	0x0025332c
    1498:	00000064 	andeq	r0, r0, r4, rrx
    149c:	00000068 	andeq	r0, r0, r8, rrx
    14a0:	68530001 	ldmdavs	r3, {r0}^
    14a4:	70000000 	andvc	r0, r0, r0
    14a8:	1c000000 	stcne	0, cr0, [r0], {-0}
    14ac:	f7007000 			; <UNDEFINED> instruction: 0xf7007000
    14b0:	f425f72c 	vld1.8	{d15}, [r5 :128], ip
    14b4:	cccd0825 	stclgt	8, cr0, [sp], {37}	; 0x25
    14b8:	0000cccc 	andeq	ip, r0, ip, asr #25
    14bc:	081e0000 	ldmdaeq	lr, {}	; <UNPREDICTABLE>
    14c0:	2525f720 	strcs	pc, [r5, #-1824]!	; 0x720
    14c4:	25332cf7 	ldrcs	r2, [r3, #-3319]!	; 0xcf7
    14c8:	0000709f 	muleq	r0, pc, r0	; <UNPREDICTABLE>
    14cc:	00007400 	andeq	r7, r0, r0, lsl #8
    14d0:	53000100 	movwpl	r0, #256	; 0x100
    14d4:	00000074 	andeq	r0, r0, r4, ror r0
    14d8:	0000007c 	andeq	r0, r0, ip, ror r0
    14dc:	0070001c 	rsbseq	r0, r0, ip, lsl r0
    14e0:	25f72cf7 	ldrbcs	r2, [r7, #3319]!	; 0xcf7
    14e4:	cd0825f4 	cfstr32gt	mvfx2, [r8, #-976]	; 0xfffffc30
    14e8:	00cccccc 	sbceq	ip, ip, ip, asr #25
    14ec:	1e000000 	cdpne	0, 0, cr0, cr0, cr0, {0}
    14f0:	25f72008 	ldrbcs	r2, [r7, #8]!
    14f4:	332cf725 	msrcc	CPSR_fs, #9699328	; 0x940000
    14f8:	007c9f25 	rsbseq	r9, ip, r5, lsr #30
    14fc:	00800000 	addeq	r0, r0, r0
    1500:	00010000 	andeq	r0, r1, r0
    1504:	00008053 	andeq	r8, r0, r3, asr r0
    1508:	00008800 	andeq	r8, r0, r0, lsl #16
    150c:	70001c00 	andvc	r1, r0, r0, lsl #24
    1510:	f72cf700 			; <UNDEFINED> instruction: 0xf72cf700
    1514:	0825f425 	stmdaeq	r5!, {r0, r2, r5, sl, ip, sp, lr, pc}
    1518:	cccccccd 	stclgt	12, cr12, [ip], {205}	; 0xcd
    151c:	00000000 	andeq	r0, r0, r0
    1520:	f720081e 			; <UNDEFINED> instruction: 0xf720081e
    1524:	2cf72525 	cfldr64cs	mvdx2, [r7], #148	; 0x94
    1528:	889f2533 	ldmhi	pc, {r0, r1, r4, r5, r8, sl, sp}	; <UNPREDICTABLE>
    152c:	8c000000 	stchi	0, cr0, [r0], {-0}
    1530:	01000000 	mrseq	r0, (UNDEF: 0)
    1534:	008c5300 	addeq	r5, ip, r0, lsl #6
    1538:	00900000 	addseq	r0, r0, r0
    153c:	001c0000 	andseq	r0, ip, r0
    1540:	2cf70070 	ldclcs	0, cr0, [r7], #448	; 0x1c0
    1544:	25f425f7 	ldrbcs	r2, [r4, #1527]!	; 0x5f7
    1548:	cccccd08 	stclgt	13, cr12, [ip], {8}
    154c:	000000cc 	andeq	r0, r0, ip, asr #1
    1550:	20081e00 	andcs	r1, r8, r0, lsl #28
    1554:	f72525f7 			; <UNDEFINED> instruction: 0xf72525f7
    1558:	9f25332c 	svcls	0x0025332c
    155c:	00000090 	muleq	r0, r0, r0
    1560:	00000098 	muleq	r0, r8, r0
    1564:	0074001c 	rsbseq	r0, r4, ip, lsl r0
    1568:	25f72cf7 	ldrbcs	r2, [r7, #3319]!	; 0xcf7
    156c:	cd0825f4 	cfstr32gt	mvfx2, [r8, #-976]	; 0xfffffc30
    1570:	00cccccc 	sbceq	ip, ip, ip, asr #25
    1574:	1e000000 	cdpne	0, 0, cr0, cr0, cr0, {0}
    1578:	25f72008 	ldrbcs	r2, [r7, #8]!
    157c:	332cf725 	msrcc	CPSR_fs, #9699328	; 0x940000
    1580:	00989f25 	addseq	r9, r8, r5, lsr #30
    1584:	009c0000 	addseq	r0, ip, r0
    1588:	00170000 	andseq	r0, r7, r0
    158c:	2cf70074 	ldclcs	0, cr0, [r7], #464	; 0x1d0
    1590:	007125f7 	ldrshteq	r2, [r1], #-87	; 0xffffffa9
    1594:	25f72cf7 	ldrbcs	r2, [r7, #3319]!	; 0xcf7
    1598:	f720081e 			; <UNDEFINED> instruction: 0xf720081e
    159c:	2cf72525 	cfldr64cs	mvdx2, [r7], #148	; 0x94
    15a0:	9c9f2533 	cfldr32ls	mvfx2, [pc], {51}	; 0x33
    15a4:	d4000000 	strle	r0, [r0], #-0
    15a8:	1c000000 	stcne	0, cr0, [r0], {-0}
    15ac:	f7007400 			; <UNDEFINED> instruction: 0xf7007400
    15b0:	f425f72c 	vld1.8	{d15}, [r5 :128], ip
    15b4:	cccd0825 	stclgt	8, cr0, [sp], {37}	; 0x25
    15b8:	0000cccc 	andeq	ip, r0, ip, asr #25
    15bc:	081e0000 	ldmdaeq	lr, {}	; <UNPREDICTABLE>
    15c0:	2525f720 	strcs	pc, [r5, #-1824]!	; 0x720
    15c4:	25332cf7 	ldrcs	r2, [r3, #-3319]!	; 0xcf7
    15c8:	0000009f 	muleq	r0, pc, r0	; <UNPREDICTABLE>
    15cc:	00000000 	andeq	r0, r0, r0
    15d0:	00009400 	andeq	r9, r0, r0, lsl #8
    15d4:	0000b800 	andeq	fp, r0, r0, lsl #16
    15d8:	50000100 	andpl	r0, r0, r0, lsl #2
    15dc:	000000b8 	strheq	r0, [r0], -r8
    15e0:	000000c4 	andeq	r0, r0, r4, asr #1
    15e4:	71310008 	teqvc	r1, r8
    15e8:	00732400 	rsbseq	r2, r3, r0, lsl #8
    15ec:	00c49f21 	sbceq	r9, r4, r1, lsr #30
    15f0:	00c70000 	sbceq	r0, r7, r0
    15f4:	00010000 	andeq	r0, r1, r0
    15f8:	00000051 	andeq	r0, r0, r1, asr r0
    15fc:	00000000 	andeq	r0, r0, r0
    1600:	0000d400 	andeq	sp, r0, r0, lsl #8
    1604:	0000f800 	andeq	pc, r0, r0, lsl #16
    1608:	50000100 	andpl	r0, r0, r0, lsl #2
    160c:	000000f8 	strdeq	r0, [r0], -r8
    1610:	0000010c 	andeq	r0, r0, ip, lsl #2
    1614:	01f30004 	mvnseq	r0, r4
    1618:	00009f50 	andeq	r9, r0, r0, asr pc
    161c:	00000000 	andeq	r0, r0, r0
    1620:	00e00000 	rsceq	r0, r0, r0
    1624:	00e80000 	rsceq	r0, r8, r0
    1628:	00020000 	andeq	r0, r2, r0
    162c:	00e89f30 	rsceq	r9, r8, r0, lsr pc
    1630:	00e80000 	rsceq	r0, r8, r0
    1634:	00010000 	andeq	r0, r1, r0
    1638:	0000e852 	andeq	lr, r0, r2, asr r8
    163c:	0000f000 	andeq	pc, r0, r0
    1640:	30000200 	andcc	r0, r0, r0, lsl #4
    1644:	0000f09f 	muleq	r0, pc, r0	; <UNPREDICTABLE>
    1648:	00010300 	andeq	r0, r1, r0, lsl #6
    164c:	52000100 	andpl	r0, r0, #0, 2
	...
    1658:	000000e0 	andeq	r0, r0, r0, ror #1
    165c:	000000f4 	strdeq	r0, [r0], -r4
    1660:	9f300002 	svcls	0x00300002
    1664:	000000f4 	strdeq	r0, [r0], -r4
    1668:	00000100 	andeq	r0, r0, r0, lsl #2
    166c:	73310005 	teqvc	r1, #5
    1670:	009f2400 	addseq	r2, pc, r0, lsl #8
    1674:	03000001 	movweq	r0, #1
    1678:	01000001 	tsteq	r0, r1
    167c:	01035100 	mrseq	r5, (UNDEF: 19)
    1680:	010c0000 	mrseq	r0, (UNDEF: 12)
    1684:	00080000 	andeq	r0, r8, r0
    1688:	5001f331 	andpl	pc, r1, r1, lsr r3	; <UNPREDICTABLE>
    168c:	9f241a4f 	svcls	0x00241a4f
	...
    1698:	0000010c 	andeq	r0, r0, ip, lsl #2
    169c:	00000130 	andeq	r0, r0, r0, lsr r1
    16a0:	30500001 	subscc	r0, r0, r1
    16a4:	44000001 	strmi	r0, [r0], #-1
    16a8:	04000001 	streq	r0, [r0], #-1
    16ac:	5001f300 	andpl	pc, r1, r0, lsl #6
    16b0:	0000009f 	muleq	r0, pc, r0	; <UNPREDICTABLE>
    16b4:	00000000 	andeq	r0, r0, r0
    16b8:	00011800 	andeq	r1, r1, r0, lsl #16
    16bc:	00012000 	andeq	r2, r1, r0
    16c0:	30000200 	andcc	r0, r0, r0, lsl #4
    16c4:	0001209f 	muleq	r1, pc, r0	; <UNPREDICTABLE>
    16c8:	00012000 	andeq	r2, r1, r0
    16cc:	52000100 	andpl	r0, r0, #0, 2
    16d0:	00000120 	andeq	r0, r0, r0, lsr #2
    16d4:	00000128 	andeq	r0, r0, r8, lsr #2
    16d8:	9f300002 	svcls	0x00300002
    16dc:	00000128 	andeq	r0, r0, r8, lsr #2
    16e0:	0000013b 	andeq	r0, r0, fp, lsr r1
    16e4:	00520001 	subseq	r0, r2, r1
    16e8:	00000000 	andeq	r0, r0, r0
    16ec:	18000000 	stmdane	r0, {}	; <UNPREDICTABLE>
    16f0:	2c000001 	stccs	0, cr0, [r0], {1}
    16f4:	02000001 	andeq	r0, r0, #1
    16f8:	2c9f3000 	ldccs	0, cr3, [pc], {0}
    16fc:	38000001 	stmdacc	r0, {r0}
    1700:	05000001 	streq	r0, [r0, #-1]
    1704:	00733100 	rsbseq	r3, r3, r0, lsl #2
    1708:	01389f24 	teqeq	r8, r4, lsr #30
    170c:	013b0000 	teqeq	fp, r0
    1710:	00010000 	andeq	r0, r1, r0
    1714:	00013b51 	andeq	r3, r1, r1, asr fp
    1718:	00014400 	andeq	r4, r1, r0, lsl #8
    171c:	31000800 	tstcc	r0, r0, lsl #16
    1720:	4f5001f3 	svcmi	0x005001f3
    1724:	009f241a 	addseq	r2, pc, sl, lsl r4	; <UNPREDICTABLE>
    1728:	00000000 	andeq	r0, r0, r0
    172c:	44000000 	strmi	r0, [r0], #-0
    1730:	d4000001 	strle	r0, [r0], #-1
    1734:	01000001 	tsteq	r0, r1
    1738:	01d45000 	bicseq	r5, r4, r0
    173c:	02100000 	andseq	r0, r0, #0
    1740:	00010000 	andeq	r0, r1, r0
    1744:	00000054 	andeq	r0, r0, r4, asr r0
    1748:	00000000 	andeq	r0, r0, r0
    174c:	00018c00 	andeq	r8, r1, r0, lsl #24
    1750:	00019000 	andeq	r9, r1, r0
    1754:	55000100 	strpl	r0, [r0, #-256]	; 0x100
    1758:	00000198 	muleq	r0, r8, r1
    175c:	0000019c 	muleq	r0, ip, r1
    1760:	a4550001 	ldrbge	r0, [r5], #-1
    1764:	a8000001 	stmdage	r0, {r0}
    1768:	01000001 	tsteq	r0, r1
    176c:	01b05500 	lslseq	r5, r0, #10
    1770:	01b40000 			; <UNDEFINED> instruction: 0x01b40000
    1774:	00010000 	andeq	r0, r1, r0
    1778:	0001bc55 	andeq	fp, r1, r5, asr ip
    177c:	0001c000 	andeq	ip, r1, r0
    1780:	55000100 	strpl	r0, [r0, #-256]	; 0x100
    1784:	000001c8 	andeq	r0, r0, r8, asr #3
    1788:	000001cc 	andeq	r0, r0, ip, asr #3
    178c:	d0550001 	subsle	r0, r5, r1
    1790:	10000001 	andne	r0, r0, r1
    1794:	01000002 	tsteq	r0, r2
    1798:	00005500 	andeq	r5, r0, r0, lsl #10
    179c:	00000000 	andeq	r0, r0, r0
    17a0:	01600000 	cmneq	r0, r0
    17a4:	01880000 	orreq	r0, r8, r0
    17a8:	00010000 	andeq	r0, r1, r0
    17ac:	00018853 	andeq	r8, r1, r3, asr r8
    17b0:	00019000 	andeq	r9, r1, r0
    17b4:	70001c00 	andvc	r1, r0, r0, lsl #24
    17b8:	f72cf700 			; <UNDEFINED> instruction: 0xf72cf700
    17bc:	0825f425 	stmdaeq	r5!, {r0, r2, r5, sl, ip, sp, lr, pc}
    17c0:	cccccccd 	stclgt	12, cr12, [ip], {205}	; 0xcd
    17c4:	00000000 	andeq	r0, r0, r0
    17c8:	f720081e 			; <UNDEFINED> instruction: 0xf720081e
    17cc:	2cf72525 	cfldr64cs	mvdx2, [r7], #148	; 0x94
    17d0:	909f2533 	addsls	r2, pc, r3, lsr r5	; <UNPREDICTABLE>
    17d4:	94000001 	strls	r0, [r0], #-1
    17d8:	01000001 	tsteq	r0, r1
    17dc:	01945300 	orrseq	r5, r4, r0, lsl #6
    17e0:	019c0000 	orrseq	r0, ip, r0
    17e4:	001c0000 	andseq	r0, ip, r0
    17e8:	2cf70070 	ldclcs	0, cr0, [r7], #448	; 0x1c0
    17ec:	25f425f7 	ldrbcs	r2, [r4, #1527]!	; 0x5f7
    17f0:	cccccd08 	stclgt	13, cr12, [ip], {8}
    17f4:	000000cc 	andeq	r0, r0, ip, asr #1
    17f8:	20081e00 	andcs	r1, r8, r0, lsl #28
    17fc:	f72525f7 			; <UNDEFINED> instruction: 0xf72525f7
    1800:	9f25332c 	svcls	0x0025332c
    1804:	0000019c 	muleq	r0, ip, r1
    1808:	000001a0 	andeq	r0, r0, r0, lsr #3
    180c:	a0530001 	subsge	r0, r3, r1
    1810:	a8000001 	stmdage	r0, {r0}
    1814:	1c000001 	stcne	0, cr0, [r0], {1}
    1818:	f7007000 			; <UNDEFINED> instruction: 0xf7007000
    181c:	f425f72c 	vld1.8	{d15}, [r5 :128], ip
    1820:	cccd0825 	stclgt	8, cr0, [sp], {37}	; 0x25
    1824:	0000cccc 	andeq	ip, r0, ip, asr #25
    1828:	081e0000 	ldmdaeq	lr, {}	; <UNPREDICTABLE>
    182c:	2525f720 	strcs	pc, [r5, #-1824]!	; 0x720
    1830:	25332cf7 	ldrcs	r2, [r3, #-3319]!	; 0xcf7
    1834:	0001a89f 	muleq	r1, pc, r8	; <UNPREDICTABLE>
    1838:	0001ac00 	andeq	sl, r1, r0, lsl #24
    183c:	53000100 	movwpl	r0, #256	; 0x100
    1840:	000001ac 	andeq	r0, r0, ip, lsr #3
    1844:	000001b4 			; <UNDEFINED> instruction: 0x000001b4
    1848:	0070001c 	rsbseq	r0, r0, ip, lsl r0
    184c:	25f72cf7 	ldrbcs	r2, [r7, #3319]!	; 0xcf7
    1850:	cd0825f4 	cfstr32gt	mvfx2, [r8, #-976]	; 0xfffffc30
    1854:	00cccccc 	sbceq	ip, ip, ip, asr #25
    1858:	1e000000 	cdpne	0, 0, cr0, cr0, cr0, {0}
    185c:	25f72008 	ldrbcs	r2, [r7, #8]!
    1860:	332cf725 	msrcc	CPSR_fs, #9699328	; 0x940000
    1864:	01b49f25 			; <UNDEFINED> instruction: 0x01b49f25
    1868:	01b80000 			; <UNDEFINED> instruction: 0x01b80000
    186c:	00010000 	andeq	r0, r1, r0
    1870:	0001b853 	andeq	fp, r1, r3, asr r8
    1874:	0001c000 	andeq	ip, r1, r0
    1878:	70001c00 	andvc	r1, r0, r0, lsl #24
    187c:	f72cf700 			; <UNDEFINED> instruction: 0xf72cf700
    1880:	0825f425 	stmdaeq	r5!, {r0, r2, r5, sl, ip, sp, lr, pc}
    1884:	cccccccd 	stclgt	12, cr12, [ip], {205}	; 0xcd
    1888:	00000000 	andeq	r0, r0, r0
    188c:	f720081e 			; <UNDEFINED> instruction: 0xf720081e
    1890:	2cf72525 	cfldr64cs	mvdx2, [r7], #148	; 0x94
    1894:	c09f2533 	addsgt	r2, pc, r3, lsr r5	; <UNPREDICTABLE>
    1898:	c4000001 	strgt	r0, [r0], #-1
    189c:	01000001 	tsteq	r0, r1
    18a0:	01c45300 	biceq	r5, r4, r0, lsl #6
    18a4:	01cc0000 	biceq	r0, ip, r0
    18a8:	001c0000 	andseq	r0, ip, r0
    18ac:	2cf70070 	ldclcs	0, cr0, [r7], #448	; 0x1c0
    18b0:	25f425f7 	ldrbcs	r2, [r4, #1527]!	; 0x5f7
    18b4:	cccccd08 	stclgt	13, cr12, [ip], {8}
    18b8:	000000cc 	andeq	r0, r0, ip, asr #1
    18bc:	20081e00 	andcs	r1, r8, r0, lsl #28
    18c0:	f72525f7 			; <UNDEFINED> instruction: 0xf72525f7
    18c4:	9f25332c 	svcls	0x0025332c
    18c8:	000001cc 	andeq	r0, r0, ip, asr #3
    18cc:	000001d0 	ldrdeq	r0, [r0], -r0	; <UNPREDICTABLE>
    18d0:	d0530001 	subsle	r0, r3, r1
    18d4:	d4000001 	strle	r0, [r0], #-1
    18d8:	1c000001 	stcne	0, cr0, [r0], {1}
    18dc:	f7007000 			; <UNDEFINED> instruction: 0xf7007000
    18e0:	f425f72c 	vld1.8	{d15}, [r5 :128], ip
    18e4:	cccd0825 	stclgt	8, cr0, [sp], {37}	; 0x25
    18e8:	0000cccc 	andeq	ip, r0, ip, asr #25
    18ec:	081e0000 	ldmdaeq	lr, {}	; <UNPREDICTABLE>
    18f0:	2525f720 	strcs	pc, [r5, #-1824]!	; 0x720
    18f4:	25332cf7 	ldrcs	r2, [r3, #-3319]!	; 0xcf7
    18f8:	0001d49f 	muleq	r1, pc, r4	; <UNPREDICTABLE>
    18fc:	0001dc00 	andeq	sp, r1, r0, lsl #24
    1900:	74001c00 	strvc	r1, [r0], #-3072	; 0xc00
    1904:	f72cf700 			; <UNDEFINED> instruction: 0xf72cf700
    1908:	0825f425 	stmdaeq	r5!, {r0, r2, r5, sl, ip, sp, lr, pc}
    190c:	cccccccd 	stclgt	12, cr12, [ip], {205}	; 0xcd
    1910:	00000000 	andeq	r0, r0, r0
    1914:	f720081e 			; <UNDEFINED> instruction: 0xf720081e
    1918:	2cf72525 	cfldr64cs	mvdx2, [r7], #148	; 0x94
    191c:	dc9f2533 	cfldr32le	mvfx2, [pc], {51}	; 0x33
    1920:	e0000001 	and	r0, r0, r1
    1924:	17000001 	strne	r0, [r0, -r1]
    1928:	f7007400 			; <UNDEFINED> instruction: 0xf7007400
    192c:	7125f72c 	msrvc	SP_abt, ip
    1930:	f72cf700 			; <UNDEFINED> instruction: 0xf72cf700
    1934:	20081e25 	andcs	r1, r8, r5, lsr #28
    1938:	f72525f7 			; <UNDEFINED> instruction: 0xf72525f7
    193c:	9f25332c 	svcls	0x0025332c
    1940:	000001e0 	andeq	r0, r0, r0, ror #3
    1944:	00000210 	andeq	r0, r0, r0, lsl r2
    1948:	0074001c 	rsbseq	r0, r4, ip, lsl r0
    194c:	25f72cf7 	ldrbcs	r2, [r7, #3319]!	; 0xcf7
    1950:	cd0825f4 	cfstr32gt	mvfx2, [r8, #-976]	; 0xfffffc30
    1954:	00cccccc 	sbceq	ip, ip, ip, asr #25
    1958:	1e000000 	cdpne	0, 0, cr0, cr0, cr0, {0}
    195c:	25f72008 	ldrbcs	r2, [r7, #8]!
    1960:	332cf725 	msrcc	CPSR_fs, #9699328	; 0x940000
    1964:	00009f25 	andeq	r9, r0, r5, lsr #30
    1968:	00000000 	andeq	r0, r0, r0
    196c:	01d80000 	bicseq	r0, r8, r0
    1970:	01fc0000 	mvnseq	r0, r0
    1974:	00010000 	andeq	r0, r1, r0
    1978:	0001fc50 	andeq	pc, r1, r0, asr ip	; <UNPREDICTABLE>
    197c:	00020300 	andeq	r0, r2, r0, lsl #6
    1980:	51000100 	mrspl	r0, (UNDEF: 16)
	...
    198c:	00000210 	andeq	r0, r0, r0, lsl r2
    1990:	0000022c 	andeq	r0, r0, ip, lsr #4
    1994:	2c500001 	mrrccs	0, 0, r0, r0, cr1	; <UNPREDICTABLE>
    1998:	34000002 	strcc	r0, [r0], #-2
    199c:	01000002 	tsteq	r0, r2
    19a0:	02345400 	eorseq	r5, r4, #0, 8
    19a4:	023c0000 	eorseq	r0, ip, #0
    19a8:	00010000 	andeq	r0, r1, r0
    19ac:	00023c50 	andeq	r3, r2, r0, asr ip
    19b0:	00024400 	andeq	r4, r2, r0, lsl #8
    19b4:	54000100 	strpl	r0, [r0], #-256	; 0x100
    19b8:	00000244 	andeq	r0, r0, r4, asr #4
    19bc:	00000250 	andeq	r0, r0, r0, asr r2
    19c0:	01f30004 	mvnseq	r0, r4
    19c4:	02509f50 	subseq	r9, r0, #80, 30	; 0x140
    19c8:	02540000 	subseq	r0, r4, #0
    19cc:	00010000 	andeq	r0, r1, r0
    19d0:	00025450 	andeq	r5, r2, r0, asr r4
    19d4:	00025c00 	andeq	r5, r2, r0, lsl #24
    19d8:	54000100 	strpl	r0, [r0], #-256	; 0x100
	...
    19e4:	00000220 	andeq	r0, r0, r0, lsr #4
    19e8:	00000230 	andeq	r0, r0, r0, lsr r2
    19ec:	9f300002 	svcls	0x00300002
    19f0:	00000230 	andeq	r0, r0, r0, lsr r2
    19f4:	00000234 	andeq	r0, r0, r4, lsr r2
    19f8:	34500001 	ldrbcc	r0, [r0], #-1
    19fc:	40000002 	andmi	r0, r0, r2
    1a00:	02000002 	andeq	r0, r0, #2
    1a04:	409f3000 	addsmi	r3, pc, r0
    1a08:	4c000002 	stcmi	0, cr0, [r0], {2}
    1a0c:	01000002 	tsteq	r0, r2
    1a10:	00005000 	andeq	r5, r0, r0
    1a14:	00000000 	andeq	r0, r0, r0
    1a18:	025c0000 	subseq	r0, ip, #0
    1a1c:	02900000 	addseq	r0, r0, #0
    1a20:	00010000 	andeq	r0, r1, r0
    1a24:	00029050 	andeq	r9, r2, r0, asr r0
    1a28:	0002a000 	andeq	sl, r2, r0
    1a2c:	f3000400 	vshl.u8	d0, d0, d0
    1a30:	a09f5001 	addsge	r5, pc, r1
    1a34:	c0000002 	andgt	r0, r0, r2
    1a38:	01000002 	tsteq	r0, r2
    1a3c:	02c05000 	sbceq	r5, r0, #0
    1a40:	02d40000 	sbcseq	r0, r4, #0
    1a44:	00040000 	andeq	r0, r4, r0
    1a48:	9f5001f3 	svcls	0x005001f3
	...
    1a54:	0000025c 	andeq	r0, r0, ip, asr r2
    1a58:	00000294 	muleq	r0, r4, r2
    1a5c:	94510001 	ldrbls	r0, [r1], #-1
    1a60:	a0000002 	andge	r0, r0, r2
    1a64:	04000002 	streq	r0, [r0], #-2
    1a68:	5101f300 	mrspl	pc, SP_irq	; <UNPREDICTABLE>
    1a6c:	0002a09f 	muleq	r2, pc, r0	; <UNPREDICTABLE>
    1a70:	0002c400 	andeq	ip, r2, r0, lsl #8
    1a74:	51000100 	mrspl	r0, (UNDEF: 16)
    1a78:	000002c4 	andeq	r0, r0, r4, asr #5
    1a7c:	000002d4 	ldrdeq	r0, [r0], -r4
    1a80:	01f30004 	mvnseq	r0, r4
    1a84:	00009f51 	andeq	r9, r0, r1, asr pc
    1a88:	00000000 	andeq	r0, r0, r0
    1a8c:	02700000 	rsbseq	r0, r0, #0
    1a90:	02900000 	addseq	r0, r0, #0
    1a94:	00010000 	andeq	r0, r1, r0
    1a98:	00029050 	andeq	r9, r2, r0, asr r0
    1a9c:	0002a000 	andeq	sl, r2, r0
    1aa0:	f3000400 	vshl.u8	d0, d0, d0
    1aa4:	009f5001 	addseq	r5, pc, r1
    1aa8:	00000000 	andeq	r0, r0, r0
    1aac:	78000000 	stmdavc	r0, {}	; <UNPREDICTABLE>
    1ab0:	80000002 	andhi	r0, r0, r2
    1ab4:	02000002 	andeq	r0, r0, #2
    1ab8:	809f3000 	addshi	r3, pc, r0
    1abc:	80000002 	andhi	r0, r0, r2
    1ac0:	01000002 	tsteq	r0, r2
    1ac4:	02805200 	addeq	r5, r0, #0, 4
    1ac8:	02880000 	addeq	r0, r8, #0
    1acc:	00020000 	andeq	r0, r2, r0
    1ad0:	02889f30 	addeq	r9, r8, #48, 30	; 0xc0
    1ad4:	029b0000 	addseq	r0, fp, #0
    1ad8:	00010000 	andeq	r0, r1, r0
    1adc:	00000052 	andeq	r0, r0, r2, asr r0
    1ae0:	00000000 	andeq	r0, r0, r0
    1ae4:	00027800 	andeq	r7, r2, r0, lsl #16
    1ae8:	00028c00 	andeq	r8, r2, r0, lsl #24
    1aec:	30000200 	andcc	r0, r0, r0, lsl #4
    1af0:	00028c9f 	muleq	r2, pc, ip	; <UNPREDICTABLE>
    1af4:	00029800 	andeq	r9, r2, r0, lsl #16
    1af8:	31000500 	tstcc	r0, r0, lsl #10
    1afc:	9f240073 	svcls	0x00240073
    1b00:	00000298 	muleq	r0, r8, r2
    1b04:	0000029b 	muleq	r0, fp, r2
    1b08:	9b510001 	blls	1441b14 <__bss_end__+0x1437554>
    1b0c:	a0000002 	andge	r0, r0, r2
    1b10:	08000002 	stmdaeq	r0, {r1}
    1b14:	01f33100 	mvnseq	r3, r0, lsl #2
    1b18:	241a4f50 	ldrcs	r4, [sl], #-3920	; 0xf50
    1b1c:	0000009f 	muleq	r0, pc, r0	; <UNPREDICTABLE>
    1b20:	00000000 	andeq	r0, r0, r0
    1b24:	0002a000 	andeq	sl, r2, r0
    1b28:	0002c000 	andeq	ip, r2, r0
    1b2c:	50000100 	andpl	r0, r0, r0, lsl #2
    1b30:	000002c0 	andeq	r0, r0, r0, asr #5
    1b34:	000002d4 	ldrdeq	r0, [r0], -r4
    1b38:	01f30004 	mvnseq	r0, r4
    1b3c:	00009f50 	andeq	r9, r0, r0, asr pc
    1b40:	00000000 	andeq	r0, r0, r0
    1b44:	02a80000 	adceq	r0, r8, #0
    1b48:	02b00000 	adcseq	r0, r0, #0
    1b4c:	00020000 	andeq	r0, r2, r0
    1b50:	02b09f30 	adcseq	r9, r0, #48, 30	; 0xc0
    1b54:	02b00000 	adcseq	r0, r0, #0
    1b58:	00010000 	andeq	r0, r1, r0
    1b5c:	0002b052 	andeq	fp, r2, r2, asr r0
    1b60:	0002b800 	andeq	fp, r2, r0, lsl #16
    1b64:	30000200 	andcc	r0, r0, r0, lsl #4
    1b68:	0002b89f 	muleq	r2, pc, r8	; <UNPREDICTABLE>
    1b6c:	0002cb00 	andeq	ip, r2, r0, lsl #22
    1b70:	52000100 	andpl	r0, r0, #0, 2
	...
    1b7c:	000002a8 	andeq	r0, r0, r8, lsr #5
    1b80:	000002bc 			; <UNDEFINED> instruction: 0x000002bc
    1b84:	9f300002 	svcls	0x00300002
    1b88:	000002bc 			; <UNDEFINED> instruction: 0x000002bc
    1b8c:	000002c8 	andeq	r0, r0, r8, asr #5
    1b90:	73310005 	teqvc	r1, #5
    1b94:	c89f2400 	ldmgt	pc, {sl, sp}	; <UNPREDICTABLE>
    1b98:	cb000002 	blgt	1ba8 <_start-0x6458>
    1b9c:	01000002 	tsteq	r0, r2
    1ba0:	02cb5100 	sbceq	r5, fp, #0, 2
    1ba4:	02d40000 	sbcseq	r0, r4, #0
    1ba8:	00080000 	andeq	r0, r8, r0
    1bac:	5001f331 	andpl	pc, r1, r1, lsr r3	; <UNPREDICTABLE>
    1bb0:	9f241a4f 	svcls	0x00241a4f
	...
    1bbc:	000002d4 	ldrdeq	r0, [r0], -r4
    1bc0:	0000036c 	andeq	r0, r0, ip, ror #6
    1bc4:	6c500001 	mrrcvs	0, 0, r0, r0, cr1	; <UNPREDICTABLE>
    1bc8:	ac000003 	stcge	0, cr0, [r0], {3}
    1bcc:	01000003 	tsteq	r0, r3
    1bd0:	00005400 	andeq	r5, r0, r0, lsl #8
    1bd4:	00000000 	andeq	r0, r0, r0
    1bd8:	02d40000 	sbcseq	r0, r4, #0
    1bdc:	036f0000 	cmneq	pc, #0
    1be0:	00010000 	andeq	r0, r1, r0
    1be4:	00036f51 	andeq	r6, r3, r1, asr pc
    1be8:	0003ac00 	andeq	sl, r3, r0, lsl #24
    1bec:	f3000400 	vshl.u8	d0, d0, d0
    1bf0:	009f5101 	addseq	r5, pc, r1, lsl #2
    1bf4:	00000000 	andeq	r0, r0, r0
    1bf8:	24000000 	strcs	r0, [r0], #-0
    1bfc:	28000003 	stmdacs	r0, {r0, r1}
    1c00:	01000003 	tsteq	r0, r3
    1c04:	03305600 	teqeq	r0, #0, 12
    1c08:	03340000 	teqeq	r4, #0
    1c0c:	00010000 	andeq	r0, r1, r0
    1c10:	00033c56 	andeq	r3, r3, r6, asr ip
    1c14:	00034000 	andeq	r4, r3, r0
    1c18:	56000100 	strpl	r0, [r0], -r0, lsl #2
    1c1c:	00000348 	andeq	r0, r0, r8, asr #6
    1c20:	0000034c 	andeq	r0, r0, ip, asr #6
    1c24:	54560001 	ldrbpl	r0, [r6], #-1
    1c28:	58000003 	stmdapl	r0, {r0, r1}
    1c2c:	01000003 	tsteq	r0, r3
    1c30:	03605600 	cmneq	r0, #0, 12
    1c34:	03640000 	cmneq	r4, #0
    1c38:	00010000 	andeq	r0, r1, r0
    1c3c:	00036856 	andeq	r6, r3, r6, asr r8
    1c40:	0003ac00 	andeq	sl, r3, r0, lsl #24
    1c44:	56000100 	strpl	r0, [r0], -r0, lsl #2
	...
    1c50:	000002f8 	strdeq	r0, [r0], -r8
    1c54:	00000320 	andeq	r0, r0, r0, lsr #6
    1c58:	20530001 	subscs	r0, r3, r1
    1c5c:	28000003 	stmdacs	r0, {r0, r1}
    1c60:	1c000003 	stcne	0, cr0, [r0], {3}
    1c64:	f7007000 			; <UNDEFINED> instruction: 0xf7007000
    1c68:	f425f72c 	vld1.8	{d15}, [r5 :128], ip
    1c6c:	cccd0825 	stclgt	8, cr0, [sp], {37}	; 0x25
    1c70:	0000cccc 	andeq	ip, r0, ip, asr #25
    1c74:	081e0000 	ldmdaeq	lr, {}	; <UNPREDICTABLE>
    1c78:	2525f720 	strcs	pc, [r5, #-1824]!	; 0x720
    1c7c:	25332cf7 	ldrcs	r2, [r3, #-3319]!	; 0xcf7
    1c80:	0003289f 	muleq	r3, pc, r8	; <UNPREDICTABLE>
    1c84:	00032c00 	andeq	r2, r3, r0, lsl #24
    1c88:	53000100 	movwpl	r0, #256	; 0x100
    1c8c:	0000032c 	andeq	r0, r0, ip, lsr #6
    1c90:	00000334 	andeq	r0, r0, r4, lsr r3
    1c94:	0070001c 	rsbseq	r0, r0, ip, lsl r0
    1c98:	25f72cf7 	ldrbcs	r2, [r7, #3319]!	; 0xcf7
    1c9c:	cd0825f4 	cfstr32gt	mvfx2, [r8, #-976]	; 0xfffffc30
    1ca0:	00cccccc 	sbceq	ip, ip, ip, asr #25
    1ca4:	1e000000 	cdpne	0, 0, cr0, cr0, cr0, {0}
    1ca8:	25f72008 	ldrbcs	r2, [r7, #8]!
    1cac:	332cf725 	msrcc	CPSR_fs, #9699328	; 0x940000
    1cb0:	03349f25 	teqeq	r4, #37, 30	; 0x94
    1cb4:	03380000 	teqeq	r8, #0
    1cb8:	00010000 	andeq	r0, r1, r0
    1cbc:	00033853 	andeq	r3, r3, r3, asr r8
    1cc0:	00034000 	andeq	r4, r3, r0
    1cc4:	70001c00 	andvc	r1, r0, r0, lsl #24
    1cc8:	f72cf700 			; <UNDEFINED> instruction: 0xf72cf700
    1ccc:	0825f425 	stmdaeq	r5!, {r0, r2, r5, sl, ip, sp, lr, pc}
    1cd0:	cccccccd 	stclgt	12, cr12, [ip], {205}	; 0xcd
    1cd4:	00000000 	andeq	r0, r0, r0
    1cd8:	f720081e 			; <UNDEFINED> instruction: 0xf720081e
    1cdc:	2cf72525 	cfldr64cs	mvdx2, [r7], #148	; 0x94
    1ce0:	409f2533 	addsmi	r2, pc, r3, lsr r5	; <UNPREDICTABLE>
    1ce4:	44000003 	strmi	r0, [r0], #-3
    1ce8:	01000003 	tsteq	r0, r3
    1cec:	03445300 	movteq	r5, #17152	; 0x4300
    1cf0:	034c0000 	movteq	r0, #49152	; 0xc000
    1cf4:	001c0000 	andseq	r0, ip, r0
    1cf8:	2cf70070 	ldclcs	0, cr0, [r7], #448	; 0x1c0
    1cfc:	25f425f7 	ldrbcs	r2, [r4, #1527]!	; 0x5f7
    1d00:	cccccd08 	stclgt	13, cr12, [ip], {8}
    1d04:	000000cc 	andeq	r0, r0, ip, asr #1
    1d08:	20081e00 	andcs	r1, r8, r0, lsl #28
    1d0c:	f72525f7 			; <UNDEFINED> instruction: 0xf72525f7
    1d10:	9f25332c 	svcls	0x0025332c
    1d14:	0000034c 	andeq	r0, r0, ip, asr #6
    1d18:	00000350 	andeq	r0, r0, r0, asr r3
    1d1c:	50530001 	subspl	r0, r3, r1
    1d20:	58000003 	stmdapl	r0, {r0, r1}
    1d24:	1c000003 	stcne	0, cr0, [r0], {3}
    1d28:	f7007000 			; <UNDEFINED> instruction: 0xf7007000
    1d2c:	f425f72c 	vld1.8	{d15}, [r5 :128], ip
    1d30:	cccd0825 	stclgt	8, cr0, [sp], {37}	; 0x25
    1d34:	0000cccc 	andeq	ip, r0, ip, asr #25
    1d38:	081e0000 	ldmdaeq	lr, {}	; <UNPREDICTABLE>
    1d3c:	2525f720 	strcs	pc, [r5, #-1824]!	; 0x720
    1d40:	25332cf7 	ldrcs	r2, [r3, #-3319]!	; 0xcf7
    1d44:	0003589f 	muleq	r3, pc, r8	; <UNPREDICTABLE>
    1d48:	00035c00 	andeq	r5, r3, r0, lsl #24
    1d4c:	53000100 	movwpl	r0, #256	; 0x100
    1d50:	0000035c 	andeq	r0, r0, ip, asr r3
    1d54:	00000364 	andeq	r0, r0, r4, ror #6
    1d58:	0070001c 	rsbseq	r0, r0, ip, lsl r0
    1d5c:	25f72cf7 	ldrbcs	r2, [r7, #3319]!	; 0xcf7
    1d60:	cd0825f4 	cfstr32gt	mvfx2, [r8, #-976]	; 0xfffffc30
    1d64:	00cccccc 	sbceq	ip, ip, ip, asr #25
    1d68:	1e000000 	cdpne	0, 0, cr0, cr0, cr0, {0}
    1d6c:	25f72008 	ldrbcs	r2, [r7, #8]!
    1d70:	332cf725 	msrcc	CPSR_fs, #9699328	; 0x940000
    1d74:	03649f25 	cmneq	r4, #37, 30	; 0x94
    1d78:	03680000 	cmneq	r8, #0
    1d7c:	00010000 	andeq	r0, r1, r0
    1d80:	00036853 	andeq	r6, r3, r3, asr r8
    1d84:	00036c00 	andeq	r6, r3, r0, lsl #24
    1d88:	70001c00 	andvc	r1, r0, r0, lsl #24
    1d8c:	f72cf700 			; <UNDEFINED> instruction: 0xf72cf700
    1d90:	0825f425 	stmdaeq	r5!, {r0, r2, r5, sl, ip, sp, lr, pc}
    1d94:	cccccccd 	stclgt	12, cr12, [ip], {205}	; 0xcd
    1d98:	00000000 	andeq	r0, r0, r0
    1d9c:	f720081e 			; <UNDEFINED> instruction: 0xf720081e
    1da0:	2cf72525 	cfldr64cs	mvdx2, [r7], #148	; 0x94
    1da4:	6c9f2533 	cfldr32vs	mvfx2, [pc], {51}	; 0x33
    1da8:	74000003 	strvc	r0, [r0], #-3
    1dac:	1c000003 	stcne	0, cr0, [r0], {3}
    1db0:	f7007400 			; <UNDEFINED> instruction: 0xf7007400
    1db4:	f425f72c 	vld1.8	{d15}, [r5 :128], ip
    1db8:	cccd0825 	stclgt	8, cr0, [sp], {37}	; 0x25
    1dbc:	0000cccc 	andeq	ip, r0, ip, asr #25
    1dc0:	081e0000 	ldmdaeq	lr, {}	; <UNPREDICTABLE>
    1dc4:	2525f720 	strcs	pc, [r5, #-1824]!	; 0x720
    1dc8:	25332cf7 	ldrcs	r2, [r3, #-3319]!	; 0xcf7
    1dcc:	0003749f 	muleq	r3, pc, r4	; <UNPREDICTABLE>
    1dd0:	00037800 	andeq	r7, r3, r0, lsl #16
    1dd4:	74001700 	strvc	r1, [r0], #-1792	; 0x700
    1dd8:	f72cf700 			; <UNDEFINED> instruction: 0xf72cf700
    1ddc:	f7007325 			; <UNDEFINED> instruction: 0xf7007325
    1de0:	1e25f72c 	cdpne	7, 2, cr15, cr5, cr12, {1}
    1de4:	25f72008 	ldrbcs	r2, [r7, #8]!
    1de8:	332cf725 	msrcc	CPSR_fs, #9699328	; 0x940000
    1dec:	03789f25 	cmneq	r8, #37, 30	; 0x94
    1df0:	03ac0000 			; <UNDEFINED> instruction: 0x03ac0000
    1df4:	001c0000 	andseq	r0, ip, r0
    1df8:	2cf70074 	ldclcs	0, cr0, [r7], #464	; 0x1d0
    1dfc:	25f425f7 	ldrbcs	r2, [r4, #1527]!	; 0x5f7
    1e00:	cccccd08 	stclgt	13, cr12, [ip], {8}
    1e04:	000000cc 	andeq	r0, r0, ip, asr #1
    1e08:	20081e00 	andcs	r1, r8, r0, lsl #28
    1e0c:	f72525f7 			; <UNDEFINED> instruction: 0xf72525f7
    1e10:	9f25332c 	svcls	0x0025332c
	...
    1e1c:	00000370 	andeq	r0, r0, r0, ror r3
    1e20:	00000394 	muleq	r0, r4, r3
    1e24:	94500001 	ldrbls	r0, [r0], #-1
    1e28:	9c000003 	stcls	0, cr0, [r0], {3}
    1e2c:	09000003 	stmdbeq	r0, {r0, r1}
    1e30:	73007500 	movwvc	r7, #1280	; 0x500
    1e34:	00712400 	rsbseq	r2, r1, r0, lsl #8
    1e38:	039c9f21 	orrseq	r9, ip, #33, 30	; 0x84
    1e3c:	039f0000 	orrseq	r0, pc, #0
    1e40:	00010000 	andeq	r0, r1, r0
    1e44:	00000051 	andeq	r0, r0, r1, asr r0
    1e48:	00000000 	andeq	r0, r0, r0
    1e4c:	0003ac00 	andeq	sl, r3, r0, lsl #24
    1e50:	0003b800 	andeq	fp, r3, r0, lsl #16
    1e54:	50000100 	andpl	r0, r0, r0, lsl #2
    1e58:	000003b8 			; <UNDEFINED> instruction: 0x000003b8
    1e5c:	000003d8 	ldrdeq	r0, [r0], -r8
    1e60:	01f30004 	mvnseq	r0, r4
    1e64:	00009f50 	andeq	r9, r0, r0, asr pc
    1e68:	00000000 	andeq	r0, r0, r0
    1e6c:	03d80000 	bicseq	r0, r8, #0
    1e70:	03eb0000 	mvneq	r0, #0
    1e74:	00010000 	andeq	r0, r1, r0
    1e78:	0003eb50 	andeq	lr, r3, r0, asr fp
    1e7c:	00042400 	andeq	r2, r4, r0, lsl #8
    1e80:	54000100 	strpl	r0, [r0], #-256	; 0x100
    1e84:	00000424 	andeq	r0, r0, r4, lsr #8
    1e88:	0000045c 	andeq	r0, r0, ip, asr r4
    1e8c:	01f30004 	mvnseq	r0, r4
    1e90:	00009f50 	andeq	r9, r0, r0, asr pc
    1e94:	00000000 	andeq	r0, r0, r0
    1e98:	04440000 	strbeq	r0, [r4], #-0
    1e9c:	04480000 	strbeq	r0, [r8], #-0
    1ea0:	00010000 	andeq	r0, r1, r0
    1ea4:	00044850 	andeq	r4, r4, r0, asr r8
    1ea8:	00044f00 	andeq	r4, r4, r0, lsl #30
    1eac:	51000100 	mrspl	r0, (UNDEF: 16)
	...
    1eb8:	00000400 	andeq	r0, r0, r0, lsl #8
    1ebc:	00000408 	andeq	r0, r0, r8, lsl #8
    1ec0:	08500001 	ldmdaeq	r0, {r0}^
    1ec4:	0f000004 	svceq	0x00000004
    1ec8:	01000004 	tsteq	r0, r4
    1ecc:	00005100 	andeq	r5, r0, r0, lsl #2
    1ed0:	00000000 	andeq	r0, r0, r0
    1ed4:	04200000 	strteq	r0, [r0], #-0
    1ed8:	042c0000 	strteq	r0, [ip], #-0
    1edc:	00010000 	andeq	r0, r1, r0
    1ee0:	00042c50 	andeq	r2, r4, r0, asr ip
    1ee4:	00043300 	andeq	r3, r4, r0, lsl #6
    1ee8:	51000100 	mrspl	r0, (UNDEF: 16)
	...
    1ef4:	0000045c 	andeq	r0, r0, ip, asr r4
    1ef8:	0000046f 	andeq	r0, r0, pc, ror #8
    1efc:	6f500001 	svcvs	0x00500001
    1f00:	a8000004 	stmdage	r0, {r2}
    1f04:	01000004 	tsteq	r0, r4
    1f08:	04a85400 	strteq	r5, [r8], #1024	; 0x400
    1f0c:	04e00000 	strbteq	r0, [r0], #0
    1f10:	00040000 	andeq	r0, r4, r0
    1f14:	9f5001f3 	svcls	0x005001f3
	...
    1f20:	000004c8 	andeq	r0, r0, r8, asr #9
    1f24:	000004cc 	andeq	r0, r0, ip, asr #9
    1f28:	cc500001 	mrrcgt	0, 0, r0, r0, cr1	; <UNPREDICTABLE>
    1f2c:	d3000004 	movwle	r0, #4
    1f30:	01000004 	tsteq	r0, r4
    1f34:	00005100 	andeq	r5, r0, r0, lsl #2
    1f38:	00000000 	andeq	r0, r0, r0
    1f3c:	04840000 	streq	r0, [r4], #0
    1f40:	048c0000 	streq	r0, [ip], #0
    1f44:	00010000 	andeq	r0, r1, r0
    1f48:	00048c50 	andeq	r8, r4, r0, asr ip
    1f4c:	00049300 	andeq	r9, r4, r0, lsl #6
    1f50:	51000100 	mrspl	r0, (UNDEF: 16)
	...
    1f5c:	000004a4 	andeq	r0, r0, r4, lsr #9
    1f60:	000004b0 			; <UNDEFINED> instruction: 0x000004b0
    1f64:	b0500001 	subslt	r0, r0, r1
    1f68:	b7000004 	strlt	r0, [r0, -r4]
    1f6c:	01000004 	tsteq	r0, r4
    1f70:	00005100 	andeq	r5, r0, r0, lsl #2
    1f74:	00000000 	andeq	r0, r0, r0
    1f78:	04e00000 	strbteq	r0, [r0], #0
    1f7c:	04f30000 	ldrbteq	r0, [r3], #0
    1f80:	00010000 	andeq	r0, r1, r0
    1f84:	0004f350 	andeq	pc, r4, r0, asr r3	; <UNPREDICTABLE>
    1f88:	00053400 	andeq	r3, r5, r0, lsl #8
    1f8c:	54000100 	strpl	r0, [r0], #-256	; 0x100
    1f90:	00000534 	andeq	r0, r0, r4, lsr r5
    1f94:	00000558 	andeq	r0, r0, r8, asr r5
    1f98:	01f30004 	mvnseq	r0, r4
    1f9c:	05589f50 	ldrbeq	r9, [r8, #-3920]	; 0xf50
    1fa0:	055c0000 	ldrbeq	r0, [ip, #-0]
    1fa4:	00010000 	andeq	r0, r1, r0
    1fa8:	00055c50 	andeq	r5, r5, r0, asr ip
    1fac:	00056400 	andeq	r6, r5, r0, lsl #8
    1fb0:	54000100 	strpl	r0, [r0], #-256	; 0x100
	...
    1fbc:	00000508 	andeq	r0, r0, r8, lsl #10
    1fc0:	00000517 	andeq	r0, r0, r7, lsl r5
    1fc4:	74310008 	ldrtvc	r0, [r1], #-8
    1fc8:	00702400 	rsbseq	r2, r0, r0, lsl #8
    1fcc:	00009f1a 	andeq	r9, r0, sl, lsl pc
    1fd0:	00000000 	andeq	r0, r0, r0
    1fd4:	05340000 	ldreq	r0, [r4, #-0]!
    1fd8:	054c0000 	strbeq	r0, [ip, #-0]
    1fdc:	00010000 	andeq	r0, r1, r0
    1fe0:	00000054 	andeq	r0, r0, r4, asr r0
    1fe4:	00000000 	andeq	r0, r0, r0
    1fe8:	00056400 	andeq	r6, r5, r0, lsl #8
    1fec:	00057700 	andeq	r7, r5, r0, lsl #14
    1ff0:	50000100 	andpl	r0, r0, r0, lsl #2
    1ff4:	00000577 	andeq	r0, r0, r7, ror r5
    1ff8:	0000059c 	muleq	r0, ip, r5
    1ffc:	9c540001 	mrrcls	0, 0, r0, r4, cr1
    2000:	bc000005 	stclt	0, cr0, [r0], {5}
    2004:	04000005 	streq	r0, [r0], #-5
    2008:	5001f300 	andpl	pc, r1, r0, lsl #6
    200c:	0000009f 	muleq	r0, pc, r0	; <UNPREDICTABLE>
    2010:	00000000 	andeq	r0, r0, r0
    2014:	00003000 	andeq	r3, r0, r0
    2018:	00003c00 	andeq	r3, r0, r0, lsl #24
    201c:	30000200 	andcc	r0, r0, r0, lsl #4
    2020:	00003c9f 	muleq	r0, pc, ip	; <UNPREDICTABLE>
    2024:	00006800 	andeq	r6, r0, r0, lsl #16
    2028:	53000100 	movwpl	r0, #256	; 0x100
	...
    2034:	00000068 	andeq	r0, r0, r8, rrx
    2038:	00000080 	andeq	r0, r0, r0, lsl #1
    203c:	80500001 	subshi	r0, r0, r1
    2040:	8f000000 	svchi	0x00000000
    2044:	02000000 	andeq	r0, r0, #0
    2048:	8f6c9100 	svchi	0x006c9100
    204c:	a4000000 	strge	r0, [r0], #-0
    2050:	04000000 	streq	r0, [r0], #-0
    2054:	5001f300 	andpl	pc, r1, r0, lsl #6
    2058:	0000009f 	muleq	r0, pc, r0	; <UNPREDICTABLE>
    205c:	00000000 	andeq	r0, r0, r0
    2060:	0000a400 	andeq	sl, r0, r0, lsl #8
    2064:	0000bc00 	andeq	fp, r0, r0, lsl #24
    2068:	50000100 	andpl	r0, r0, r0, lsl #2
    206c:	000000bc 	strheq	r0, [r0], -ip
    2070:	000000cb 	andeq	r0, r0, fp, asr #1
    2074:	6c910002 	ldcvs	0, cr0, [r1], {2}
    2078:	000000cb 	andeq	r0, r0, fp, asr #1
    207c:	000000e0 	andeq	r0, r0, r0, ror #1
    2080:	01f30004 	mvnseq	r0, r4
    2084:	00009f50 	andeq	r9, r0, r0, asr pc
    2088:	00000000 	andeq	r0, r0, r0
    208c:	00e00000 	rsceq	r0, r0, r0
    2090:	00f80000 	rscseq	r0, r8, r0
    2094:	00010000 	andeq	r0, r1, r0
    2098:	0000f850 	andeq	pc, r0, r0, asr r8	; <UNPREDICTABLE>
    209c:	00010700 	andeq	r0, r1, r0, lsl #14
    20a0:	91000200 	mrsls	r0, R8_usr
    20a4:	0001076c 	andeq	r0, r1, ip, ror #14
    20a8:	00011c00 	andeq	r1, r1, r0, lsl #24
    20ac:	f3000400 	vshl.u8	d0, d0, d0
    20b0:	009f5001 	addseq	r5, pc, r1
    20b4:	00000000 	andeq	r0, r0, r0
    20b8:	1c000000 	stcne	0, cr0, [r0], {-0}
    20bc:	34000001 	strcc	r0, [r0], #-1
    20c0:	01000001 	tsteq	r0, r1
    20c4:	01345000 	teqeq	r4, r0
    20c8:	01430000 	mrseq	r0, (UNDEF: 67)
    20cc:	00020000 	andeq	r0, r2, r0
    20d0:	01436c91 			; <UNDEFINED> instruction: 0x01436c91
    20d4:	01580000 	cmpeq	r8, r0
    20d8:	00040000 	andeq	r0, r4, r0
    20dc:	9f5001f3 	svcls	0x005001f3
	...
    20e8:	00000158 	andeq	r0, r0, r8, asr r1
    20ec:	00000170 	andeq	r0, r0, r0, ror r1
    20f0:	70500001 	subsvc	r0, r0, r1
    20f4:	7f000001 	svcvc	0x00000001
    20f8:	02000001 	andeq	r0, r0, #1
    20fc:	7f6c9100 	svcvc	0x006c9100
    2100:	94000001 	strls	r0, [r0], #-1
    2104:	04000001 	streq	r0, [r0], #-1
    2108:	5001f300 	andpl	pc, r1, r0, lsl #6
    210c:	0000009f 	muleq	r0, pc, r0	; <UNPREDICTABLE>
    2110:	00000000 	andeq	r0, r0, r0
    2114:	00019400 	andeq	r9, r1, r0, lsl #8
    2118:	0001ac00 	andeq	sl, r1, r0, lsl #24
    211c:	50000100 	andpl	r0, r0, r0, lsl #2
    2120:	000001ac 	andeq	r0, r0, ip, lsr #3
    2124:	000001bb 			; <UNDEFINED> instruction: 0x000001bb
    2128:	6c910002 	ldcvs	0, cr0, [r1], {2}
    212c:	000001bb 			; <UNDEFINED> instruction: 0x000001bb
    2130:	000001d0 	ldrdeq	r0, [r0], -r0	; <UNPREDICTABLE>
    2134:	01f30004 	mvnseq	r0, r4
    2138:	00009f50 	andeq	r9, r0, r0, asr pc
    213c:	00000000 	andeq	r0, r0, r0
    2140:	00fc0000 	rscseq	r0, ip, r0
    2144:	01040000 	mrseq	r0, (UNDEF: 4)
    2148:	00010000 	andeq	r0, r1, r0
    214c:	00010450 	andeq	r0, r1, r0, asr r4
    2150:	00012800 	andeq	r2, r1, r0, lsl #16
    2154:	54000100 	strpl	r0, [r0], #-256	; 0x100
	...
    2164:	0000000b 	andeq	r0, r0, fp
    2168:	0b500001 	bleq	1402174 <__bss_end__+0x13f7bb4>
    216c:	14000000 	strne	r0, [r0], #-0
    2170:	01000000 	mrseq	r0, (UNDEF: 0)
    2174:	00005400 	andeq	r5, r0, r0, lsl #8
    2178:	00000000 	andeq	r0, r0, r0
	...

Disassembly of section .debug_aranges:

00000000 <.debug_aranges>:
   0:	0000001c 	andeq	r0, r0, ip, lsl r0
   4:	00000002 	andeq	r0, r0, r2
   8:	00040000 	andeq	r0, r4, r0
   c:	00000000 	andeq	r0, r0, r0
  10:	00008010 	andeq	r8, r0, r0, lsl r0
  14:	000007fc 	strdeq	r0, [r0], -ip
	...
  20:	0000001c 	andeq	r0, r0, ip, lsl r0
  24:	16040002 	strne	r0, [r4], -r2
  28:	00040000 	andeq	r0, r4, r0
  2c:	00000000 	andeq	r0, r0, r0
  30:	0000880c 	andeq	r8, r0, ip, lsl #16
  34:	00000058 	andeq	r0, r0, r8, asr r0
	...
  40:	0000001c 	andeq	r0, r0, ip, lsl r0
  44:	17990002 	ldrne	r0, [r9, r2]
  48:	00040000 	andeq	r0, r4, r0
  4c:	00000000 	andeq	r0, r0, r0
  50:	00008864 	andeq	r8, r0, r4, ror #16
  54:	00000034 	andeq	r0, r0, r4, lsr r0
	...
  60:	0000001c 	andeq	r0, r0, ip, lsl r0
  64:	188b0002 	stmne	fp, {r1}
  68:	00040000 	andeq	r0, r4, r0
  6c:	00000000 	andeq	r0, r0, r0
  70:	00008898 	muleq	r0, r8, r8
  74:	000004f0 	strdeq	r0, [r0], -r0	; <UNPREDICTABLE>
	...
  80:	0000001c 	andeq	r0, r0, ip, lsl r0
  84:	1ee30002 	cdpne	0, 14, cr0, cr3, cr2, {0}
  88:	00040000 	andeq	r0, r4, r0
  8c:	00000000 	andeq	r0, r0, r0
  90:	00008d88 	andeq	r8, r0, r8, lsl #27
  94:	00000028 	andeq	r0, r0, r8, lsr #32
	...
  a0:	0000001c 	andeq	r0, r0, ip, lsl r0
  a4:	1fe60002 	svcne	0x00e60002
  a8:	00040000 	andeq	r0, r4, r0
  ac:	00000000 	andeq	r0, r0, r0
  b0:	00008db0 			; <UNDEFINED> instruction: 0x00008db0
  b4:	00000034 	andeq	r0, r0, r4, lsr r0
	...
  c0:	0000001c 	andeq	r0, r0, ip, lsl r0
  c4:	20f50002 	rscscs	r0, r5, r2
  c8:	00040000 	andeq	r0, r4, r0
  cc:	00000000 	andeq	r0, r0, r0
  d0:	00008de4 	andeq	r8, r0, r4, ror #27
  d4:	00000074 	andeq	r0, r0, r4, ror r0
	...
  e0:	0000001c 	andeq	r0, r0, ip, lsl r0
  e4:	22a60002 	adccs	r0, r6, #2
  e8:	00040000 	andeq	r0, r4, r0
  ec:	00000000 	andeq	r0, r0, r0
  f0:	00008e58 	andeq	r8, r0, r8, asr lr
  f4:	00000088 	andeq	r0, r0, r8, lsl #1
	...
 100:	0000001c 	andeq	r0, r0, ip, lsl r0
 104:	24820002 	strcs	r0, [r2], #2
 108:	00040000 	andeq	r0, r4, r0
 10c:	00000000 	andeq	r0, r0, r0
 110:	00008ee0 	andeq	r8, r0, r0, ror #29
 114:	000005bc 			; <UNDEFINED> instruction: 0x000005bc
	...
 120:	0000001c 	andeq	r0, r0, ip, lsl r0
 124:	2d550002 	ldclcs	0, cr0, [r5, #-8]
 128:	00040000 	andeq	r0, r4, r0
 12c:	00000000 	andeq	r0, r0, r0
 130:	0000949c 	muleq	r0, ip, r4
 134:	000001d0 	ldrdeq	r0, [r0], -r0	; <UNPREDICTABLE>
	...
 140:	0000001c 	andeq	r0, r0, ip, lsl r0
 144:	32af0002 	adccc	r0, pc, #2
 148:	00040000 	andeq	r0, r4, r0
 14c:	00000000 	andeq	r0, r0, r0
 150:	000097a8 	andeq	r9, r0, r8, lsr #15
 154:	00000154 	andeq	r0, r0, r4, asr r1
	...
 160:	0000001c 	andeq	r0, r0, ip, lsl r0
 164:	36b20002 	ldrtcc	r0, [r2], r2
 168:	00040000 	andeq	r0, r4, r0
 16c:	00000000 	andeq	r0, r0, r0
 170:	000098fc 	strdeq	r9, [r0], -ip
 174:	00000014 	andeq	r0, r0, r4, lsl r0
	...

Disassembly of section .debug_ranges:

00000000 <.debug_ranges>:
   0:	00000790 	muleq	r0, r0, r7
   4:	00000794 	muleq	r0, r4, r7
   8:	00000798 	muleq	r0, r8, r7
   c:	000007c8 	andeq	r0, r0, r8, asr #15
	...
  18:	00008de4 	andeq	r8, r0, r4, ror #27
  1c:	00008e58 	andeq	r8, r0, r8, asr lr
	...

Disassembly of section .debug_line:

00000000 <.debug_line>:
   0:	00000418 	andeq	r0, r0, r8, lsl r4
   4:	023a0002 	eorseq	r0, sl, #2
   8:	01020000 	mrseq	r0, (UNDEF: 2)
   c:	000d0efb 	strdeq	r0, [sp], -fp
  10:	01010101 	tsteq	r1, r1, lsl #2
  14:	01000000 	mrseq	r0, (UNDEF: 0)
  18:	2f010000 	svccs	0x00010000
  1c:	72657355 	rsbvc	r7, r5, #1409286145	; 0x54000001
  20:	72622f73 	rsbvc	r2, r2, #460	; 0x1cc
  24:	6a6e6169 	bvs	1b985d0 <__bss_end__+0x1b8e010>
  28:	442f6e75 	strtmi	r6, [pc], #-3701	; 30 <_start-0x7fd0>
  2c:	746b7365 	strbtvc	r7, [fp], #-869	; 0x365
  30:	732f706f 	teqvc	pc, #111	; 0x6f
  34:	6f6f6863 	svcvs	0x006f6863
  38:	69572f6c 	ldmdbvs	r7, {r2, r3, r5, r6, r8, r9, sl, fp, sp}^
  3c:	7265746e 	rsbvc	r7, r5, #1845493760	; 0x6e000000
  40:	30323931 	eorscc	r3, r2, r1, lsr r9
  44:	3153432f 	cmpcc	r3, pc, lsr #6
  48:	2f453034 	svccs	0x00453034
  4c:	34317363 	ldrtcc	r7, [r1], #-867	; 0x363
  50:	322d6530 	eorcc	r6, sp, #48, 10	; 0xc000000
  54:	6e697730 	mcrvs	7, 3, r7, cr9, cr0, {1}
  58:	62696c2f 	rsbvs	r6, r9, #12032	; 0x2f00
  5c:	632f6970 	teqvs	pc, #112, 18	; 0x1c0000
  60:	30343173 	eorscc	r3, r4, r3, ror r1
  64:	72732d65 	rsbsvc	r2, r3, #6464	; 0x1940
  68:	752f0063 	strvc	r0, [pc, #-99]!	; d <_start-0x7ff3>
  6c:	6c2f7273 	sfmvs	f7, 4, [pc], #-460	; fffffea8 <__bss_end__+0xffff58e8>
  70:	6c61636f 	stclvs	3, cr6, [r1], #-444	; 0xfffffe44
  74:	6c65432f 	stclvs	3, cr4, [r5], #-188	; 0xffffff44
  78:	2f72616c 	svccs	0x0072616c
  7c:	2d6d7261 	sfmcs	f7, 2, [sp, #-388]!	; 0xfffffe7c
  80:	656e6f6e 	strbvs	r6, [lr, #-3950]!	; 0xf6e
  84:	6261652d 	rsbvs	r6, r1, #188743680	; 0xb400000
  88:	2e342f69 	cdpcs	15, 3, cr2, cr4, cr9, {3}
  8c:	2d332e38 	ldccs	14, cr2, [r3, #-224]!	; 0xffffff20
  90:	37317363 	ldrcc	r7, [r1, -r3, ror #6]!
  94:	6c2f6530 	cfstr32vs	mvfx6, [pc], #-192	; ffffffdc <__bss_end__+0xffff5a1c>
  98:	672f6269 	strvs	r6, [pc, -r9, ror #4]!
  9c:	612f6363 	teqvs	pc, r3, ror #6
  a0:	6e2d6d72 	mcrvs	13, 1, r6, cr13, cr2, {3}
  a4:	2d656e6f 	stclcs	14, cr6, [r5, #-444]!	; 0xfffffe44
  a8:	69626165 	stmdbvs	r2!, {r0, r2, r5, r6, r8, sp, lr}^
  ac:	382e342f 	stmdacc	lr!, {r0, r1, r2, r3, r5, sl, ip, sp}
  b0:	692f332e 	stmdbvs	pc!, {r1, r2, r3, r5, r8, r9, ip, sp}	; <UNPREDICTABLE>
  b4:	756c636e 	strbvc	r6, [ip, #-878]!	; 0x36e
  b8:	2f006564 	svccs	0x00006564
  bc:	72657355 	rsbvc	r7, r5, #1409286145	; 0x54000001
  c0:	72622f73 	rsbvc	r2, r2, #460	; 0x1cc
  c4:	6a6e6169 	bvs	1b98670 <__bss_end__+0x1b8e0b0>
  c8:	442f6e75 	strtmi	r6, [pc], #-3701	; d0 <_start-0x7f30>
  cc:	746b7365 	strbtvc	r7, [fp], #-869	; 0x365
  d0:	732f706f 	teqvc	pc, #111	; 0x6f
  d4:	6f6f6863 	svcvs	0x006f6863
  d8:	69572f6c 	ldmdbvs	r7, {r2, r3, r5, r6, r8, r9, sl, fp, sp}^
  dc:	7265746e 	rsbvc	r7, r5, #1845493760	; 0x6e000000
  e0:	30323931 	eorscc	r3, r2, r1, lsr r9
  e4:	3153432f 	cmpcc	r3, pc, lsr #6
  e8:	2f453034 	svccs	0x00453034
  ec:	34317363 	ldrtcc	r7, [r1], #-867	; 0x363
  f0:	322d6530 	eorcc	r6, sp, #48, 10	; 0xc000000
  f4:	6e697730 	mcrvs	7, 3, r7, cr9, cr0, {1}
  f8:	62696c2f 	rsbvs	r6, r9, #12032	; 0x2f00
  fc:	632f6970 	teqvs	pc, #112, 18	; 0x1c0000
 100:	30343173 	eorscc	r3, r4, r3, ror r1
 104:	6e692d65 	cdpvs	13, 6, cr2, cr9, cr5, {3}
 108:	72726574 	rsbsvc	r6, r2, #116, 10	; 0x1d000000
 10c:	00747075 	rsbseq	r7, r4, r5, ror r0
 110:	6573552f 	ldrbvs	r5, [r3, #-1327]!	; 0x52f
 114:	622f7372 	eorvs	r7, pc, #-939524095	; 0xc8000001
 118:	6e616972 	mcrvs	9, 3, r6, cr1, cr2, {3}
 11c:	2f6e756a 	svccs	0x006e756a
 120:	6b736544 	blvs	1cd9638 <__bss_end__+0x1ccf078>
 124:	2f706f74 	svccs	0x00706f74
 128:	6f686373 	svcvs	0x00686373
 12c:	572f6c6f 	strpl	r6, [pc, -pc, ror #24]!
 130:	65746e69 	ldrbvs	r6, [r4, #-3689]!	; 0xe69
 134:	32393172 	eorscc	r3, r9, #-2147483620	; 0x8000001c
 138:	53432f30 	movtpl	r2, #16176	; 0x3f30
 13c:	45303431 	ldrmi	r3, [r0, #-1073]!	; 0x431
 140:	3173632f 	cmncc	r3, pc, lsr #6
 144:	2d653034 	stclcs	0, cr3, [r5, #-208]!	; 0xffffff30
 148:	69773032 	ldmdbvs	r7!, {r1, r4, r5, ip, sp}^
 14c:	696c2f6e 	stmdbvs	ip!, {r1, r2, r3, r5, r6, r8, r9, sl, fp, sp}^
 150:	00697062 	rsbeq	r7, r9, r2, rrx
 154:	6573552f 	ldrbvs	r5, [r3, #-1327]!	; 0x52f
 158:	622f7372 	eorvs	r7, pc, #-939524095	; 0xc8000001
 15c:	6e616972 	mcrvs	9, 3, r6, cr1, cr2, {3}
 160:	2f6e756a 	svccs	0x006e756a
 164:	6b736544 	blvs	1cd967c <__bss_end__+0x1ccf0bc>
 168:	2f706f74 	svccs	0x00706f74
 16c:	6f686373 	svcvs	0x00686373
 170:	572f6c6f 	strpl	r6, [pc, -pc, ror #24]!
 174:	65746e69 	ldrbvs	r6, [r4, #-3689]!	; 0xe69
 178:	32393172 	eorscc	r3, r9, #-2147483620	; 0x8000001c
 17c:	53432f30 	movtpl	r2, #16176	; 0x3f30
 180:	45303431 	ldrmi	r3, [r0, #-1073]!	; 0x431
 184:	3173632f 	cmncc	r3, pc, lsr #6
 188:	2d653034 	stclcs	0, cr3, [r5, #-208]!	; 0xffffff30
 18c:	69773032 	ldmdbvs	r7!, {r1, r4, r5, ip, sp}^
 190:	696c2f6e 	stmdbvs	ip!, {r1, r2, r3, r5, r6, r8, r9, sl, fp, sp}^
 194:	2f697062 	svccs	0x00697062
 198:	6362696c 	cmnvs	r2, #108, 18	; 0x1b0000
 19c:	2d320000 	ldccs	0, cr0, [r2, #-0]
 1a0:	69676f6c 	stmdbvs	r7!, {r2, r3, r5, r6, r8, r9, sl, fp, sp, lr}^
 1a4:	6e612d63 	cdpvs	13, 6, cr2, cr1, cr3, {3}
 1a8:	7a796c61 	bvc	1e5b334 <__bss_end__+0x1e50d74>
 1ac:	632e7265 	teqvs	lr, #1342177286	; 0x50000006
 1b0:	00000000 	andeq	r0, r0, r0
 1b4:	6c637963 	stclvs	9, cr7, [r3], #-396	; 0xfffffe74
 1b8:	74752d65 	ldrbtvc	r2, [r5], #-3429	; 0xd65
 1bc:	682e6c69 	stmdavs	lr!, {r0, r3, r5, r6, sl, fp, sp, lr}
 1c0:	00000100 	andeq	r0, r0, r0, lsl #2
 1c4:	69647473 	stmdbvs	r4!, {r0, r1, r4, r5, r6, sl, ip, sp, lr}^
 1c8:	672d746e 	strvs	r7, [sp, -lr, ror #8]!
 1cc:	682e6363 	stmdavs	lr!, {r0, r1, r5, r6, r8, r9, sp, lr}
 1d0:	00000200 	andeq	r0, r0, r0, lsl #4
 1d4:	6f697067 	svcvs	0x00697067
 1d8:	0100682e 	tsteq	r0, lr, lsr #16
 1dc:	70720000 	rsbsvc	r0, r2, r0
 1e0:	72612d69 	rsbvc	r2, r1, #6720	; 0x1a40
 1e4:	6d69746d 	cfstrdvs	mvd7, [r9, #-436]!	; 0xfffffe4c
 1e8:	682e7265 	stmdavs	lr!, {r0, r2, r5, r6, r9, ip, sp, lr}
 1ec:	00000300 	andeq	r0, r0, r0, lsl #6
 1f0:	752d7773 	strvc	r7, [sp, #-1907]!	; 0x773
 1f4:	2e747261 	cdpcs	2, 7, cr7, cr4, cr1, {3}
 1f8:	00010068 	andeq	r0, r1, r8, rrx
 1fc:	64747300 	ldrbtvs	r7, [r4], #-768	; 0x300
 200:	2e677261 	cdpcs	2, 6, cr7, cr7, cr1, {3}
 204:	00020068 	andeq	r0, r2, r8, rrx
 208:	75623c00 	strbvc	r3, [r2, #-3072]!	; 0xc00
 20c:	2d746c69 	ldclcs	12, cr6, [r4, #-420]!	; 0xfffffe5c
 210:	003e6e69 	eorseq	r6, lr, r9, ror #28
 214:	72000000 	andvc	r0, r0, #0
 218:	682e6970 	stmdavs	lr!, {r4, r5, r6, r8, fp, sp, lr}
 21c:	00000400 	andeq	r0, r0, r0, lsl #8
 220:	702d6176 	eorvc	r6, sp, r6, ror r1
 224:	746e6972 	strbtvc	r6, [lr], #-2418	; 0x972
 228:	00682e6b 	rsbeq	r2, r8, fp, ror #28
 22c:	72000005 	andvc	r0, r0, #5
 230:	692d6970 	pushvs	{r4, r5, r6, r8, fp, sp, lr}
 234:	7265746e 	rsbvc	r7, r5, #1845493760	; 0x6e000000
 238:	74707572 	ldrbtvc	r7, [r0], #-1394	; 0x572
 23c:	00682e73 	rsbeq	r2, r8, r3, ror lr
 240:	00000003 	andeq	r0, r0, r3
 244:	10020500 	andne	r0, r2, r0, lsl #10
 248:	03000080 	movweq	r0, #128	; 0x80
 24c:	2f4c010c 	svccs	0x004c010c
 250:	02043230 	andeq	r3, r4, #48, 4
 254:	66730331 			; <UNDEFINED> instruction: 0x66730331
 258:	0e030104 	adfeqs	f0, f3, f4
 25c:	2d020482 	cfstrscs	mvf0, [r2, #-520]	; 0xfffffdf8
 260:	04667303 	strbteq	r7, [r6], #-771	; 0x303
 264:	82100301 	andshi	r0, r0, #67108864	; 0x4000000
 268:	032b0204 	teqeq	fp, #4, 4	; 0x40000000
 26c:	01046673 	tsteq	r4, r3, ror r6
 270:	04821203 	streq	r1, [r2], #515	; 0x203
 274:	73032902 	movwvc	r2, #14594	; 0x3902
 278:	03010466 	movweq	r0, #5222	; 0x1466
 27c:	02048214 	andeq	r8, r4, #20, 4	; 0x40000001
 280:	032e7903 	teqeq	lr, #49152	; 0xc000
 284:	01046673 	tsteq	r4, r3, ror r6
 288:	04821603 	streq	r1, [r2], #1539	; 0x603
 28c:	2e770302 	cdpcs	3, 7, cr0, cr7, cr2, {0}
 290:	04667303 	strbteq	r7, [r6], #-771	; 0x303
 294:	82180301 	andshi	r0, r8, #67108864	; 0x4000000
 298:	75030204 	strvc	r0, [r3, #-516]	; 0x204
 29c:	6673032e 	ldrbtvs	r0, [r3], -lr, lsr #6
 2a0:	1a030104 	bne	c06b8 <__bss_end__+0xb60f8>
 2a4:	03020482 	movweq	r0, #9346	; 0x2482
 2a8:	73032e73 	movwvc	r2, #15987	; 0x3e73
 2ac:	03010466 	movweq	r0, #5222	; 0x1466
 2b0:	0204821c 	andeq	r8, r4, #28, 4	; 0xc0000001
 2b4:	032e7103 	teqeq	lr, #-1073741824	; 0xc0000000
 2b8:	01046673 	tsteq	r4, r3, ror r6
 2bc:	04821e03 	streq	r1, [r2], #3587	; 0xe03
 2c0:	2e6f0302 	cdpcs	3, 6, cr0, cr15, cr2, {0}
 2c4:	04667303 	strbteq	r7, [r6], #-771	; 0x303
 2c8:	82200301 	eorhi	r0, r0, #67108864	; 0x4000000
 2cc:	4b2e1003 	blmi	b842e0 <__bss_end__+0xb79d20>
 2d0:	2e70034d 	cdpcs	3, 7, cr0, cr0, cr13, {2}
 2d4:	4883844c 	stmmi	r3, {r2, r3, r6, sl, pc}
 2d8:	4e2e0d03 	cdpmi	13, 2, cr0, cr14, cr3, {0}
 2dc:	02043331 	andeq	r3, r4, #-1006632960	; 0xc4000000
 2e0:	042e4003 	strteq	r4, [lr], #-3
 2e4:	00c20301 	sbceq	r0, r2, r1, lsl #6
 2e8:	02042f82 	andeq	r2, r4, #520	; 0x208
 2ec:	667fbd03 	ldrbtvs	fp, [pc], -r3, lsl #26
 2f0:	c5030104 	strgt	r0, [r3, #-260]	; 0x104
 2f4:	042f8200 	strteq	r8, [pc], #-512	; 2fc <_start-0x7d04>
 2f8:	7fba0302 	svcvc	0x00ba0302
 2fc:	03010482 	movweq	r0, #5250	; 0x1482
 300:	2f8200c8 	svccs	0x008200c8
 304:	b7030204 	strlt	r0, [r3, -r4, lsl #4]
 308:	0104827f 	tsteq	r4, pc, ror r2
 30c:	8200cb03 	andhi	ip, r0, #3072	; 0xc00
 310:	0302042f 	movweq	r0, #9263	; 0x242f
 314:	04827fb4 	streq	r7, [r2], #4020	; 0xfb4
 318:	00ce0301 	sbceq	r0, lr, r1, lsl #6
 31c:	02042f82 	andeq	r2, r4, #520	; 0x208
 320:	827fb103 	rsbshi	fp, pc, #-1073741824	; 0xc0000000
 324:	d1030104 	tstle	r3, r4, lsl #2
 328:	042f8200 	strteq	r8, [pc], #-512	; 330 <_start-0x7cd0>
 32c:	7fae0302 	svcvc	0x00ae0302
 330:	03010482 	movweq	r0, #5250	; 0x1482
 334:	2f8200d4 	svccs	0x008200d4
 338:	ab030204 	blge	c0b50 <__bss_end__+0xb6590>
 33c:	0104827f 	tsteq	r4, pc, ror r2
 340:	8200d803 	andhi	sp, r0, #196608	; 0x30000
 344:	4c824c03 	stcmi	12, cr4, [r2], {3}
 348:	03488384 	movteq	r8, #33668	; 0x8384
 34c:	034e2e36 	movteq	r2, #60982	; 0xee36
 350:	29034a54 	stmdbcs	r3, {r2, r4, r6, r9, fp, lr}
 354:	9f34324a 	svcls	0x0034324a
 358:	01040200 	mrseq	r0, R12_usr
 35c:	bb064a06 	bllt	192b7c <__bss_end__+0x1885bc>
 360:	2cbb4b4e 	vldmiacs	fp!, {d4-<overflow reg d42>}
 364:	01040200 	mrseq	r0, R12_usr
 368:	6d062e06 	stcvs	14, cr2, [r6, #-24]	; 0xffffffe8
 36c:	0084a44c 	addeq	sl, r4, ip, asr #8
 370:	06010402 	streq	r0, [r1], -r2, lsl #8
 374:	4dbb064a 	ldcmi	6, cr0, [fp, #296]!	; 0x128
 378:	02040200 	andeq	r0, r4, #0, 4
 37c:	0402004b 	streq	r0, [r2], #-75	; 0x4b
 380:	02008102 	andeq	r8, r0, #-2147483648	; 0x80000000
 384:	2e060104 	adfcss	f0, f6, f4
 388:	a54c4d06 	strbge	r4, [ip, #-3334]	; 0xd06
 38c:	674b4bbc 			; <UNDEFINED> instruction: 0x674b4bbc
 390:	02002f4f 	andeq	r2, r0, #316	; 0x13c
 394:	82060104 	andhi	r0, r6, #4, 2
 398:	04020082 	streq	r0, [r2], #-130	; 0x82
 39c:	02009e04 	andeq	r9, r0, #4, 28	; 0x40
 3a0:	064a0104 	strbeq	r0, [sl], -r4, lsl #2
 3a4:	2fbd88bd 	svccs	0x00bd88bd
 3a8:	24084b4b 	strcs	r4, [r8], #-2891	; 0xb4b
 3ac:	04020067 	streq	r0, [r2], #-103	; 0x67
 3b0:	02002f02 	andeq	r2, r0, #2, 30
 3b4:	00490204 	subeq	r0, r9, r4, lsl #4
 3b8:	06010402 	streq	r0, [r1], -r2, lsl #8
 3bc:	3468062e 	strbtcc	r0, [r8], #-1582	; 0x62e
 3c0:	00a04b86 	adceq	r4, r0, r6, lsl #23
 3c4:	06010402 	streq	r0, [r1], -r2, lsl #8
 3c8:	68bb0666 	ldmvs	fp!, {r1, r2, r5, r6, r9, sl}
 3cc:	674b2208 	strbvs	r2, [fp, -r8, lsl #4]
 3d0:	0e03bc4b 	cdpeq	12, 0, cr11, cr3, cr11, {2}
 3d4:	2f2f359e 	svccs	0x002f359e
 3d8:	01040200 	mrseq	r0, R12_usr
 3dc:	83068206 	movwhi	r8, #25094	; 0x6206
 3e0:	9f678383 	svcls	0x00678383
 3e4:	83838383 	orrhi	r8, r3, #201326594	; 0xc000002
 3e8:	4b4b6c9f 	blmi	12db66c <__bss_end__+0x12d10ac>
 3ec:	4c2f4b85 	stcmi	11, cr4, [pc], #-532	; 1e0 <_start-0x7e20>
 3f0:	4c4bd731 	mcrrmi	7, 3, sp, fp, cr1
 3f4:	04020030 	streq	r0, [r2], #-48	; 0x30
 3f8:	069e0601 	ldreq	r0, [lr], r1, lsl #12
 3fc:	844b67c1 	strbhi	r6, [fp], #-1985	; 0x7c1
 400:	2d2f2f2d 	stccs	15, cr2, [pc, #-180]!	; 354 <_start-0x7cac>
 404:	02040200 	andeq	r0, r4, #0, 4
 408:	0402002f 	streq	r0, [r2], #-47	; 0x2f
 40c:	02008102 	andeq	r8, r0, #-2147483648	; 0x80000000
 410:	4a060104 	bmi	180828 <__bss_end__+0x176268>
 414:	024b6806 	subeq	r6, fp, #393216	; 0x60000
 418:	01010016 	tsteq	r1, r6, lsl r0
 41c:	00000102 	andeq	r0, r0, r2, lsl #2
 420:	00eb0002 	rsceq	r0, fp, r2
 424:	01020000 	mrseq	r0, (UNDEF: 2)
 428:	000d0efb 	strdeq	r0, [sp], -fp
 42c:	01010101 	tsteq	r1, r1, lsl #2
 430:	01000000 	mrseq	r0, (UNDEF: 0)
 434:	6c010000 	stcvs	0, cr0, [r1], {-0}
 438:	00636269 	rsbeq	r6, r3, r9, ror #4
 43c:	7273752f 	rsbsvc	r7, r3, #197132288	; 0xbc00000
 440:	636f6c2f 	cmnvs	pc, #12032	; 0x2f00
 444:	432f6c61 	teqmi	pc, #24832	; 0x6100
 448:	616c6c65 	cmnvs	ip, r5, ror #24
 44c:	72612f72 	rsbvc	r2, r1, #456	; 0x1c8
 450:	6f6e2d6d 	svcvs	0x006e2d6d
 454:	652d656e 	strvs	r6, [sp, #-1390]!	; 0x56e
 458:	2f696261 	svccs	0x00696261
 45c:	2e382e34 	mrccs	14, 1, r2, cr8, cr4, {1}
 460:	73632d33 	cmnvc	r3, #3264	; 0xcc0
 464:	65303731 	ldrvs	r3, [r0, #-1841]!	; 0x731
 468:	62696c2f 	rsbvs	r6, r9, #12032	; 0x2f00
 46c:	6363672f 	cmnvs	r3, #12320768	; 0xbc0000
 470:	6d72612f 	ldfvse	f6, [r2, #-188]!	; 0xffffff44
 474:	6e6f6e2d 	cdpvs	14, 6, cr6, cr15, cr13, {1}
 478:	61652d65 	cmnvs	r5, r5, ror #26
 47c:	342f6962 	strtcc	r6, [pc], #-2402	; 484 <_start-0x7b7c>
 480:	332e382e 	teqcc	lr, #3014656	; 0x2e0000
 484:	636e692f 	cmnvs	lr, #770048	; 0xbc000
 488:	6564756c 	strbvs	r7, [r4, #-1388]!	; 0x56c
 48c:	73552f00 	cmpvc	r5, #0, 30
 490:	2f737265 	svccs	0x00737265
 494:	61697262 	cmnvs	r9, r2, ror #4
 498:	6e756a6e 	vsubvs.f32	s13, s10, s29
 49c:	7365442f 	cmnvc	r5, #788529152	; 0x2f000000
 4a0:	706f746b 	rsbvc	r7, pc, fp, ror #8
 4a4:	6863732f 	stmdavs	r3!, {r0, r1, r2, r3, r5, r8, r9, ip, sp, lr}^
 4a8:	2f6c6f6f 	svccs	0x006c6f6f
 4ac:	746e6957 	strbtvc	r6, [lr], #-2391	; 0x957
 4b0:	39317265 	ldmdbcc	r1!, {r0, r2, r5, r6, r9, ip, sp, lr}
 4b4:	432f3032 	teqmi	pc, #50	; 0x32
 4b8:	30343153 	eorscc	r3, r4, r3, asr r1
 4bc:	73632f45 	cmnvc	r3, #276	; 0x114
 4c0:	65303431 	ldrvs	r3, [r0, #-1073]!	; 0x431
 4c4:	7730322d 	ldrvc	r3, [r0, -sp, lsr #4]!
 4c8:	6c2f6e69 	stcvs	14, cr6, [pc], #-420	; 32c <_start-0x7cd4>
 4cc:	69706269 	ldmdbvs	r0!, {r0, r3, r5, r6, r9, sp, lr}^
 4d0:	72700000 	rsbsvc	r0, r0, #0
 4d4:	6b746e69 	blvs	1d1be80 <__bss_end__+0x1d118c0>
 4d8:	0100632e 	tsteq	r0, lr, lsr #6
 4dc:	74730000 	ldrbtvc	r0, [r3], #-0
 4e0:	67726164 	ldrbvs	r6, [r2, -r4, ror #2]!
 4e4:	0200682e 	andeq	r6, r0, #3014656	; 0x2e0000
 4e8:	623c0000 	eorsvs	r0, ip, #0
 4ec:	746c6975 	strbtvc	r6, [ip], #-2421	; 0x975
 4f0:	3e6e692d 	cdpcc	9, 6, cr6, cr14, cr13, {1}
 4f4:	00000000 	andeq	r0, r0, r0
 4f8:	2e697072 	mcrcs	0, 3, r7, cr9, cr2, {3}
 4fc:	00030068 	andeq	r0, r3, r8, rrx
 500:	2d617600 	stclcs	6, cr7, [r1, #-0]
 504:	6e697270 	mcrvs	2, 3, r7, cr9, cr0, {3}
 508:	682e6b74 	stmdavs	lr!, {r2, r4, r5, r6, r8, r9, fp, sp, lr}
 50c:	00000100 	andeq	r0, r0, r0, lsl #2
 510:	02050000 	andeq	r0, r5, #0
 514:	0000880c 	andeq	r8, r0, ip, lsl #16
 518:	bf4b6b17 	svclt	0x004b6b17
 51c:	000e0289 	andeq	r0, lr, r9, lsl #5
 520:	00960101 	addseq	r0, r6, r1, lsl #2
 524:	00020000 	andeq	r0, r2, r0
 528:	0000006f 	andeq	r0, r0, pc, rrx
 52c:	0efb0102 	cdpeq	1, 15, cr0, cr11, cr2, {0}
 530:	0101000d 	tsteq	r1, sp
 534:	00000101 	andeq	r0, r0, r1, lsl #2
 538:	00000100 	andeq	r0, r0, r0, lsl #2
 53c:	62696c01 	rsbvs	r6, r9, #256	; 0x100
 540:	552f0063 	strpl	r0, [pc, #-99]!	; 4e5 <_start-0x7b1b>
 544:	73726573 	cmnvc	r2, #482344960	; 0x1cc00000
 548:	6972622f 	ldmdbvs	r2!, {r0, r1, r2, r3, r5, r9, sp, lr}^
 54c:	756a6e61 	strbvc	r6, [sl, #-3681]!	; 0xe61
 550:	65442f6e 	strbvs	r2, [r4, #-3950]	; 0xf6e
 554:	6f746b73 	svcvs	0x00746b73
 558:	63732f70 	cmnvs	r3, #112, 30	; 0x1c0
 55c:	6c6f6f68 	stclvs	15, cr6, [pc], #-416	; 3c4 <_start-0x7c3c>
 560:	6e69572f 	cdpvs	7, 6, cr5, cr9, cr15, {1}
 564:	31726574 	cmncc	r2, r4, ror r5
 568:	2f303239 	svccs	0x00303239
 56c:	34315343 	ldrtcc	r5, [r1], #-835	; 0x343
 570:	632f4530 	teqvs	pc, #48, 10	; 0xc000000
 574:	30343173 	eorscc	r3, r4, r3, ror r1
 578:	30322d65 	eorscc	r2, r2, r5, ror #26
 57c:	2f6e6977 	svccs	0x006e6977
 580:	7062696c 	rsbvc	r6, r2, ip, ror #18
 584:	70000069 	andvc	r0, r0, r9, rrx
 588:	2e6b7475 	mcrcs	4, 3, r7, cr11, cr5, {3}
 58c:	00010063 	andeq	r0, r1, r3, rrx
 590:	69707200 	ldmdbvs	r0!, {r9, ip, sp, lr}^
 594:	0200682e 	andeq	r6, r0, #3014656	; 0x2e0000
 598:	00000000 	andeq	r0, r0, r0
 59c:	88640205 	stmdahi	r4!, {r0, r2, r9}^
 5a0:	4c150000 	ldcmi	0, cr0, [r5], {-0}
 5a4:	0402002d 	streq	r0, [r2], #-45	; 0x2d
 5a8:	02002f02 	andeq	r2, r0, #2, 30
 5ac:	00490204 	subeq	r0, r9, r4, lsl #4
 5b0:	06010402 	streq	r0, [r1], -r2, lsl #8
 5b4:	026b062e 	rsbeq	r0, fp, #48234496	; 0x2e00000
 5b8:	01010006 	tsteq	r1, r6
 5bc:	000001dc 	ldrdeq	r0, [r0], -ip
 5c0:	00df0002 	sbcseq	r0, pc, r2
 5c4:	01020000 	mrseq	r0, (UNDEF: 2)
 5c8:	000d0efb 	strdeq	r0, [sp], -fp
 5cc:	01010101 	tsteq	r1, r1, lsl #2
 5d0:	01000000 	mrseq	r0, (UNDEF: 0)
 5d4:	6c010000 	stcvs	0, cr0, [r1], {-0}
 5d8:	00636269 	rsbeq	r6, r3, r9, ror #4
 5dc:	7273752f 	rsbsvc	r7, r3, #197132288	; 0xbc00000
 5e0:	636f6c2f 	cmnvs	pc, #12032	; 0x2f00
 5e4:	432f6c61 	teqmi	pc, #24832	; 0x6100
 5e8:	616c6c65 	cmnvs	ip, r5, ror #24
 5ec:	72612f72 	rsbvc	r2, r1, #456	; 0x1c8
 5f0:	6f6e2d6d 	svcvs	0x006e2d6d
 5f4:	652d656e 	strvs	r6, [sp, #-1390]!	; 0x56e
 5f8:	2f696261 	svccs	0x00696261
 5fc:	2e382e34 	mrccs	14, 1, r2, cr8, cr4, {1}
 600:	73632d33 	cmnvc	r3, #3264	; 0xcc0
 604:	65303731 	ldrvs	r3, [r0, #-1841]!	; 0x731
 608:	62696c2f 	rsbvs	r6, r9, #12032	; 0x2f00
 60c:	6363672f 	cmnvs	r3, #12320768	; 0xbc0000
 610:	6d72612f 	ldfvse	f6, [r2, #-188]!	; 0xffffff44
 614:	6e6f6e2d 	cdpvs	14, 6, cr6, cr15, cr13, {1}
 618:	61652d65 	cmnvs	r5, r5, ror #26
 61c:	342f6962 	strtcc	r6, [pc], #-2402	; 624 <_start-0x79dc>
 620:	332e382e 	teqcc	lr, #3014656	; 0x2e0000
 624:	636e692f 	cmnvs	lr, #770048	; 0xbc000
 628:	6564756c 	strbvs	r7, [r4, #-1388]!	; 0x56c
 62c:	73552f00 	cmpvc	r5, #0, 30
 630:	2f737265 	svccs	0x00737265
 634:	61697262 	cmnvs	r9, r2, ror #4
 638:	6e756a6e 	vsubvs.f32	s13, s10, s29
 63c:	7365442f 	cmnvc	r5, #788529152	; 0x2f000000
 640:	706f746b 	rsbvc	r7, pc, fp, ror #8
 644:	6863732f 	stmdavs	r3!, {r0, r1, r2, r3, r5, r8, r9, ip, sp, lr}^
 648:	2f6c6f6f 	svccs	0x006c6f6f
 64c:	746e6957 	strbtvc	r6, [lr], #-2391	; 0x957
 650:	39317265 	ldmdbcc	r1!, {r0, r2, r5, r6, r9, ip, sp, lr}
 654:	432f3032 	teqmi	pc, #50	; 0x32
 658:	30343153 	eorscc	r3, r4, r3, asr r1
 65c:	73632f45 	cmnvc	r3, #276	; 0x114
 660:	65303431 	ldrvs	r3, [r0, #-1073]!	; 0x431
 664:	7730322d 	ldrvc	r3, [r0, -sp, lsr #4]!
 668:	6c2f6e69 	stcvs	14, cr6, [pc], #-420	; 4cc <_start-0x7b34>
 66c:	69706269 	ldmdbvs	r0!, {r0, r3, r5, r6, r9, sp, lr}^
 670:	61760000 	cmnvs	r6, r0
 674:	6972702d 	ldmdbvs	r2!, {r0, r2, r3, r5, ip, sp, lr}^
 678:	2e6b746e 	cdpcs	4, 6, cr7, cr11, cr14, {3}
 67c:	00010063 	andeq	r0, r1, r3, rrx
 680:	64747300 	ldrbtvs	r7, [r4], #-768	; 0x300
 684:	2e677261 	cdpcs	2, 6, cr7, cr7, cr1, {3}
 688:	00020068 	andeq	r0, r2, r8, rrx
 68c:	69707200 	ldmdbvs	r0!, {r9, ip, sp, lr}^
 690:	0300682e 	movweq	r6, #2094	; 0x82e
 694:	623c0000 	eorsvs	r0, ip, #0
 698:	746c6975 	strbtvc	r6, [ip], #-2421	; 0x975
 69c:	3e6e692d 	cdpcc	9, 6, cr6, cr14, cr13, {1}
 6a0:	00000000 	andeq	r0, r0, r0
 6a4:	02050000 	andeq	r0, r5, #0
 6a8:	00008898 	muleq	r0, r8, r8
 6ac:	01012603 	tsteq	r1, r3, lsl #12
 6b0:	2d3113a5 	ldccs	3, cr1, [r1, #-660]!	; 0xfffffd6c
 6b4:	02040200 	andeq	r0, r4, #0, 4
 6b8:	0402002f 	streq	r0, [r2], #-47	; 0x2f
 6bc:	02002d02 	andeq	r2, r0, #2, 26	; 0x80
 6c0:	002f0204 	eoreq	r0, pc, r4, lsl #4
 6c4:	2d010402 	cfstrscs	mvf0, [r1, #-8]
 6c8:	14304c4c 	ldrtne	r4, [r0], #-3148	; 0xc4c
 6cc:	004f2f4b 	subeq	r2, pc, fp, asr #30
 6d0:	67020402 	strvs	r0, [r2, -r2, lsl #8]
 6d4:	01040200 	mrseq	r0, R12_usr
 6d8:	304d4c65 	subcc	r4, sp, r5, ror #24
 6dc:	30312fa0 	eorscc	r2, r1, r0, lsr #31
 6e0:	84162602 	ldrhi	r2, [r6], #-1538	; 0x602
 6e4:	02002c2d 	andeq	r2, r0, #11520	; 0x2d00
 6e8:	00300104 	eorseq	r0, r0, r4, lsl #2
 6ec:	33010402 	movwcc	r0, #5122	; 0x1402
 6f0:	02006606 	andeq	r6, r0, #6291456	; 0x600000
 6f4:	002e0104 	eoreq	r0, lr, r4, lsl #2
 6f8:	06010402 	streq	r0, [r1], -r2, lsl #8
 6fc:	2f672108 	svccs	0x00672108
 700:	03827303 	orreq	r7, r2, #201326592	; 0xc000000
 704:	02002e13 	andeq	r2, r0, #304	; 0x130
 708:	2e060104 	adfcss	f0, f6, f4
 70c:	01040200 	mrseq	r0, R12_usr
 710:	4b6a9f06 	blmi	1aa8330 <__bss_end__+0x1a9dd70>
 714:	032e6703 	teqeq	lr, #786432	; 0xc0000
 718:	02002e21 	andeq	r2, r0, #528	; 0x210
 71c:	2e060104 	adfcss	f0, f6, f4
 720:	01040200 	mrseq	r0, R12_usr
 724:	02009f06 	andeq	r9, r0, #6, 30
 728:	bd6a0104 	stflte	f0, [sl, #-16]!
 72c:	7fa603f3 	svcvc	0x00a603f3
 730:	002f2008 	eoreq	r2, pc, r8
 734:	06010402 	streq	r0, [r1], -r2, lsl #8
 738:	4bbb064a 	blmi	feec2068 <__bss_end__+0xfeeb7aa8>
 73c:	00da032f 	sbcseq	r0, sl, pc, lsr #6
 740:	484c83f2 	stmdami	ip, {r1, r4, r5, r6, r7, r8, r9, pc}^
 744:	842f2f31 	strthi	r2, [pc], #-3889	; 74c <_start-0x78b4>
 748:	4d2d2f4b 	stcmi	15, cr2, [sp, #-300]!	; 0xfffffed4
 74c:	832f3031 	teqhi	pc, #49	; 0x31
 750:	01040200 	mrseq	r0, R12_usr
 754:	0200be2c 	andeq	fp, r0, #44, 28	; 0x2c0
 758:	4a060104 	bmi	180b70 <__bss_end__+0x1765b0>
 75c:	3602bc06 	strcc	fp, [r2], -r6, lsl #24
 760:	ba0e0316 	blt	3813c0 <__bss_end__+0x376e00>
 764:	08302108 	ldmdaeq	r0!, {r3, r8, sp}
 768:	21083121 	tstcs	r8, r1, lsr #2
 76c:	30210830 	eorcc	r0, r1, r0, lsr r8
 770:	2108304b 	tstcs	r8, fp, asr #32
 774:	2f31d930 	svccs	0x0031d930
 778:	01040200 	mrseq	r0, R12_usr
 77c:	04020065 	streq	r0, [r2], #-101	; 0x65
 780:	004a0602 	subeq	r0, sl, r2, lsl #12
 784:	06010402 	streq	r0, [r1], -r2, lsl #8
 788:	00664203 	rsbeq	r4, r6, r3, lsl #4
 78c:	06020402 	streq	r0, [r2], -r2, lsl #8
 790:	c2030666 	andgt	r0, r3, #106954752	; 0x6600000
 794:	02684a00 	rsbeq	r4, r8, #0, 20
 798:	01010010 	tsteq	r1, r0, lsl r0
 79c:	00000093 	muleq	r0, r3, r0
 7a0:	007d0002 	rsbseq	r0, sp, r2
 7a4:	01020000 	mrseq	r0, (UNDEF: 2)
 7a8:	000d0efb 	strdeq	r0, [sp], -fp
 7ac:	01010101 	tsteq	r1, r1, lsl #2
 7b0:	01000000 	mrseq	r0, (UNDEF: 0)
 7b4:	63010000 	movwvs	r0, #4096	; 0x1000
 7b8:	30343173 	eorscc	r3, r4, r3, ror r1
 7bc:	72732d65 	rsbsvc	r2, r3, #6464	; 0x1940
 7c0:	552f0063 	strpl	r0, [pc, #-99]!	; 765 <_start-0x789b>
 7c4:	73726573 	cmnvc	r2, #482344960	; 0x1cc00000
 7c8:	6972622f 	ldmdbvs	r2!, {r0, r1, r2, r3, r5, r9, sp, lr}^
 7cc:	756a6e61 	strbvc	r6, [sl, #-3681]!	; 0xe61
 7d0:	65442f6e 	strbvs	r2, [r4, #-3950]	; 0xf6e
 7d4:	6f746b73 	svcvs	0x00746b73
 7d8:	63732f70 	cmnvs	r3, #112, 30	; 0x1c0
 7dc:	6c6f6f68 	stclvs	15, cr6, [pc], #-416	; 644 <_start-0x79bc>
 7e0:	6e69572f 	cdpvs	7, 6, cr5, cr9, cr15, {1}
 7e4:	31726574 	cmncc	r2, r4, ror r5
 7e8:	2f303239 	svccs	0x00303239
 7ec:	34315343 	ldrtcc	r5, [r1], #-835	; 0x343
 7f0:	632f4530 	teqvs	pc, #48, 10	; 0xc000000
 7f4:	30343173 	eorscc	r3, r4, r3, ror r1
 7f8:	30322d65 	eorscc	r2, r2, r5, ror #26
 7fc:	2f6e6977 	svccs	0x006e6977
 800:	7062696c 	rsbvc	r6, r2, ip, ror #18
 804:	63000069 	movwvs	r0, #105	; 0x69
 808:	6e61656c 	cdpvs	5, 6, cr6, cr1, cr12, {3}
 80c:	6265722d 	rsbvs	r7, r5, #-805306366	; 0xd0000002
 810:	2e746f6f 	cdpcs	15, 7, cr6, cr4, cr15, {3}
 814:	00010063 	andeq	r0, r1, r3, rrx
 818:	69707200 	ldmdbvs	r0!, {r9, ip, sp, lr}^
 81c:	0200682e 	andeq	r6, r0, #3014656	; 0x2e0000
 820:	00000000 	andeq	r0, r0, r0
 824:	8d880205 	sfmhi	f0, 4, [r8, #20]
 828:	2f150000 	svccs	0x00150000
 82c:	06024b83 	streq	r4, [r2], -r3, lsl #23
 830:	96010100 	strls	r0, [r1], -r0, lsl #2
 834:	02000000 	andeq	r0, r0, #0
 838:	00007700 	andeq	r7, r0, r0, lsl #14
 83c:	fb010200 	blx	41046 <__bss_end__+0x36a86>
 840:	01000d0e 	tsteq	r0, lr, lsl #26
 844:	00010101 	andeq	r0, r1, r1, lsl #2
 848:	00010000 	andeq	r0, r1, r0
 84c:	73630100 	cmnvc	r3, #0, 2
 850:	65303431 	ldrvs	r3, [r0, #-1073]!	; 0x431
 854:	6372732d 	cmnvs	r2, #-1275068416	; 0xb4000000
 858:	73552f00 	cmpvc	r5, #0, 30
 85c:	2f737265 	svccs	0x00737265
 860:	61697262 	cmnvs	r9, r2, ror #4
 864:	6e756a6e 	vsubvs.f32	s13, s10, s29
 868:	7365442f 	cmnvc	r5, #788529152	; 0x2f000000
 86c:	706f746b 	rsbvc	r7, pc, fp, ror #8
 870:	6863732f 	stmdavs	r3!, {r0, r1, r2, r3, r5, r8, r9, ip, sp, lr}^
 874:	2f6c6f6f 	svccs	0x006c6f6f
 878:	746e6957 	strbtvc	r6, [lr], #-2391	; 0x957
 87c:	39317265 	ldmdbcc	r1!, {r0, r2, r5, r6, r9, ip, sp, lr}
 880:	432f3032 	teqmi	pc, #50	; 0x32
 884:	30343153 	eorscc	r3, r4, r3, asr r1
 888:	73632f45 	cmnvc	r3, #276	; 0x114
 88c:	65303431 	ldrvs	r3, [r0, #-1073]!	; 0x431
 890:	7730322d 	ldrvc	r3, [r0, -sp, lsr #4]!
 894:	6c2f6e69 	stcvs	14, cr6, [pc], #-420	; 6f8 <_start-0x7908>
 898:	69706269 	ldmdbvs	r0!, {r0, r3, r5, r6, r9, sp, lr}^
 89c:	73630000 	cmnvc	r3, #0
 8a0:	74726174 	ldrbtvc	r6, [r2], #-372	; 0x174
 8a4:	0100632e 	tsteq	r0, lr, lsr #6
 8a8:	70720000 	rsbsvc	r0, r2, r0
 8ac:	00682e69 	rsbeq	r2, r8, r9, ror #28
 8b0:	00000002 	andeq	r0, r0, r2
 8b4:	b0020500 	andlt	r0, r2, r0, lsl #10
 8b8:	1400008d 	strne	r0, [r0], #-141	; 0x8d
 8bc:	2d2f3132 	stfcss	f3, [pc, #-200]!	; 7fc <_start-0x7804>
 8c0:	0402002f 	streq	r0, [r2], #-47	; 0x2f
 8c4:	2f4d4901 	svccs	0x004d4901
 8c8:	01000602 	tsteq	r0, r2, lsl #12
 8cc:	00009901 	andeq	r9, r0, r1, lsl #18
 8d0:	77000200 	strvc	r0, [r0, -r0, lsl #4]
 8d4:	02000000 	andeq	r0, r0, #0
 8d8:	0d0efb01 	vstreq	d15, [lr, #-4]
 8dc:	01010100 	mrseq	r0, (UNDEF: 17)
 8e0:	00000001 	andeq	r0, r0, r1
 8e4:	01000001 	tsteq	r0, r1
 8e8:	34317363 	ldrtcc	r7, [r1], #-867	; 0x363
 8ec:	732d6530 	teqvc	sp, #48, 10	; 0xc000000
 8f0:	2f006372 	svccs	0x00006372
 8f4:	72657355 	rsbvc	r7, r5, #1409286145	; 0x54000001
 8f8:	72622f73 	rsbvc	r2, r2, #460	; 0x1cc
 8fc:	6a6e6169 	bvs	1b98ea8 <__bss_end__+0x1b8e8e8>
 900:	442f6e75 	strtmi	r6, [pc], #-3701	; 908 <_start-0x76f8>
 904:	746b7365 	strbtvc	r7, [fp], #-869	; 0x365
 908:	732f706f 	teqvc	pc, #111	; 0x6f
 90c:	6f6f6863 	svcvs	0x006f6863
 910:	69572f6c 	ldmdbvs	r7, {r2, r3, r5, r6, r8, r9, sl, fp, sp}^
 914:	7265746e 	rsbvc	r7, r5, #1845493760	; 0x6e000000
 918:	30323931 	eorscc	r3, r2, r1, lsr r9
 91c:	3153432f 	cmpcc	r3, pc, lsr #6
 920:	2f453034 	svccs	0x00453034
 924:	34317363 	ldrtcc	r7, [r1], #-867	; 0x363
 928:	322d6530 	eorcc	r6, sp, #48, 10	; 0xc000000
 92c:	6e697730 	mcrvs	7, 3, r7, cr9, cr0, {1}
 930:	62696c2f 	rsbvs	r6, r9, #12032	; 0x2f00
 934:	00006970 	andeq	r6, r0, r0, ror r9
 938:	6f626572 	svcvs	0x00626572
 93c:	632e746f 	teqvs	lr, #1862270976	; 0x6f000000
 940:	00000100 	andeq	r0, r0, r0, lsl #2
 944:	2e697072 	mcrcs	0, 3, r7, cr9, cr2, {3}
 948:	00020068 	andeq	r0, r2, r8, rrx
 94c:	05000000 	streq	r0, [r0, #-0]
 950:	008de402 	addeq	lr, sp, r2, lsl #8
 954:	010d0300 	mrseq	r0, SP_mon
 958:	852f3114 	strhi	r3, [pc, #-276]!	; 84c <_start-0x77b4>
 95c:	4d4b2f15 	stclmi	15, cr2, [fp, #-84]	; 0xffffffac
 960:	5235672f 	eorspl	r6, r5, #12320768	; 0xbc0000
 964:	00100267 	andseq	r0, r0, r7, ror #4
 968:	00a30101 	adceq	r0, r3, r1, lsl #2
 96c:	00020000 	andeq	r0, r2, r0
 970:	00000076 	andeq	r0, r0, r6, ror r0
 974:	0efb0102 	cdpeq	1, 15, cr0, cr11, cr2, {0}
 978:	0101000d 	tsteq	r1, sp
 97c:	00000101 	andeq	r0, r0, r1, lsl #2
 980:	00000100 	andeq	r0, r0, r0, lsl #2
 984:	31736301 	cmncc	r3, r1, lsl #6
 988:	2d653034 	stclcs	0, cr3, [r5, #-208]!	; 0xffffff30
 98c:	00637273 	rsbeq	r7, r3, r3, ror r2
 990:	6573552f 	ldrbvs	r5, [r3, #-1327]!	; 0x52f
 994:	622f7372 	eorvs	r7, pc, #-939524095	; 0xc8000001
 998:	6e616972 	mcrvs	9, 3, r6, cr1, cr2, {3}
 99c:	2f6e756a 	svccs	0x006e756a
 9a0:	6b736544 	blvs	1cd9eb8 <__bss_end__+0x1ccf8f8>
 9a4:	2f706f74 	svccs	0x00706f74
 9a8:	6f686373 	svcvs	0x00686373
 9ac:	572f6c6f 	strpl	r6, [pc, -pc, ror #24]!
 9b0:	65746e69 	ldrbvs	r6, [r4, #-3689]!	; 0xe69
 9b4:	32393172 	eorscc	r3, r9, #-2147483620	; 0x8000001c
 9b8:	53432f30 	movtpl	r2, #16176	; 0x3f30
 9bc:	45303431 	ldrmi	r3, [r0, #-1073]!	; 0x431
 9c0:	3173632f 	cmncc	r3, pc, lsr #6
 9c4:	2d653034 	stclcs	0, cr3, [r5, #-208]!	; 0xffffff30
 9c8:	69773032 	ldmdbvs	r7!, {r1, r4, r5, ip, sp}^
 9cc:	696c2f6e 	stmdbvs	ip!, {r1, r2, r3, r5, r6, r8, r9, sl, fp, sp}^
 9d0:	00697062 	rsbeq	r7, r9, r2, rrx
 9d4:	6d697400 	cfstrdvs	mvd7, [r9, #-0]
 9d8:	632e7265 	teqvs	lr, #1342177286	; 0x50000006
 9dc:	00000100 	andeq	r0, r0, r0, lsl #2
 9e0:	2e697072 	mcrcs	0, 3, r7, cr9, cr2, {3}
 9e4:	00020068 	andeq	r0, r2, r8, rrx
 9e8:	05000000 	streq	r0, [r0, #-0]
 9ec:	008e5802 	addeq	r5, lr, r2, lsl #16
 9f0:	2f131600 	svccs	0x00131600
 9f4:	0402002d 	streq	r0, [r2], #-45	; 0x2d
 9f8:	062e0601 	strteq	r0, [lr], -r1, lsl #12
 9fc:	4b2f3168 	blmi	bccfa4 <__bss_end__+0xbc29e4>
 a00:	3031324d 	eorscc	r3, r1, sp, asr #4
 a04:	6a2f4c4b 	bvs	bd3b38 <__bss_end__+0xbc9578>
 a08:	2f842f2f 	svccs	0x00842f2f
 a0c:	01000802 	tsteq	r0, r2, lsl #16
 a10:	0000f901 	andeq	pc, r0, r1, lsl #18
 a14:	3b000200 	blcc	121c <_start-0x6de4>
 a18:	02000000 	andeq	r0, r0, #0
 a1c:	0d0efb01 	vstreq	d15, [lr, #-4]
 a20:	01010100 	mrseq	r0, (UNDEF: 17)
 a24:	00000001 	andeq	r0, r0, r1
 a28:	01000001 	tsteq	r0, r1
 a2c:	34317363 	ldrtcc	r7, [r1], #-867	; 0x363
 a30:	732d6530 	teqvc	sp, #48, 10	; 0xc000000
 a34:	00006372 	andeq	r6, r0, r2, ror r3
 a38:	6f697067 	svcvs	0x00697067
 a3c:	0000632e 	andeq	r6, r0, lr, lsr #6
 a40:	70670000 	rsbvc	r0, r7, r0
 a44:	682e6f69 	stmdavs	lr!, {r0, r3, r5, r6, r8, r9, sl, fp, sp, lr}
 a48:	00000100 	andeq	r0, r0, r0, lsl #2
 a4c:	2e697072 	mcrcs	0, 3, r7, cr9, cr2, {3}
 a50:	00000068 	andeq	r0, r0, r8, rrx
 a54:	05000000 	streq	r0, [r0, #-0]
 a58:	008ee002 	addeq	lr, lr, r2
 a5c:	013e0300 	teqeq	lr, r0, lsl #6
 a60:	0869504e 	stmdaeq	r9!, {r1, r2, r3, r6, ip, lr}^
 a64:	67676721 	strbvs	r6, [r7, -r1, lsr #14]!
 a68:	32676767 	rsbcc	r6, r7, #27000832	; 0x19c0000
 a6c:	dc22084b 	stcle	8, cr0, [r2], #-300	; 0xfffffed4
 a70:	4e135131 	mrcmi	1, 0, r5, cr3, cr1, {1}
 a74:	31be3050 			; <UNDEFINED> instruction: 0x31be3050
 a78:	4f4d1350 	svcmi	0x004d1350
 a7c:	504cc030 	subpl	ip, ip, r0, lsr r0
 a80:	67210869 	strvs	r0, [r1, -r9, ror #16]!
 a84:	67676767 	strbvs	r6, [r7, -r7, ror #14]!
 a88:	084b3267 	stmdaeq	fp, {r0, r1, r2, r5, r6, r9, ip, sp}^
 a8c:	504ca421 	subpl	sl, ip, r1, lsr #8
 a90:	0369842f 	cmneq	r9, #788529152	; 0x2f000000
 a94:	0c038275 	sfmeq	f0, 1, [r3], {117}	; 0x75
 a98:	4e304d2e 	cdpmi	13, 3, cr4, cr0, cr14, {1}
 a9c:	4a7f9803 	bmi	1fe6ab0 <__bss_end__+0x1fdc4f0>
 aa0:	504e1351 	subpl	r1, lr, r1, asr r3
 aa4:	1350a530 	cmpne	r0, #48, 10	; 0xc000000
 aa8:	03304f4d 	teqeq	r0, #308	; 0x134
 aac:	6aba00c2 	bvs	fee80dbc <__bss_end__+0xfee767fc>
 ab0:	2108696b 	tstcs	r8, fp, ror #18
 ab4:	67676767 	strbvs	r6, [r7, -r7, ror #14]!
 ab8:	4b326767 	blmi	c9a85c <__bss_end__+0xc9029c>
 abc:	1a032208 	bne	c92e4 <__bss_end__+0xbed24>
 ac0:	4c9f31ba 	ldfmis	f3, [pc], {186}	; 0xba
 ac4:	4e4d522f 	cdpmi	2, 4, cr5, cr13, cr15, {1}
 ac8:	4b674b2f 	blmi	19d378c <__bss_end__+0x19c91cc>
 acc:	4c676768 	stclmi	7, cr6, [r7], #-416	; 0xfffffe60
 ad0:	4b2f672f 	blmi	bda794 <__bss_end__+0xbd01d4>
 ad4:	2f4e4c6e 	svccs	0x004e4c6e
 ad8:	684b674b 	stmdavs	fp, {r0, r1, r3, r6, r8, r9, sl, sp, lr}^
 adc:	2f4c6767 	svccs	0x004c6767
 ae0:	6d4b2f67 	stclvs	15, cr2, [fp, #-412]	; 0xfffffe64
 ae4:	4b2f4e4b 	blmi	bd4418 <__bss_end__+0xbc9e58>
 ae8:	04020067 	streq	r0, [r2], #-103	; 0x67
 aec:	06660601 	strbteq	r0, [r6], -r1, lsl #12
 af0:	002f9f68 	eoreq	r9, pc, r8, ror #30
 af4:	06010402 	streq	r0, [r1], -r2, lsl #8
 af8:	2f68064a 	svccs	0x0068064a
 afc:	034a7303 	movteq	r7, #41731	; 0xa303
 b00:	4c4d2e0e 	mcrrmi	14, 0, r2, sp, cr14
 b04:	bc4b2f4e 	mcrrlt	15, 4, r2, fp, cr14
 b08:	000602bc 			; <UNDEFINED> instruction: 0x000602bc
 b0c:	00d60101 	sbcseq	r0, r6, r1, lsl #2
 b10:	00020000 	andeq	r0, r2, r0
 b14:	00000097 	muleq	r0, r7, r0
 b18:	0efb0102 	cdpeq	1, 15, cr0, cr11, cr2, {0}
 b1c:	0101000d 	tsteq	r1, sp
 b20:	00000101 	andeq	r0, r0, r1, lsl #2
 b24:	00000100 	andeq	r0, r0, r0, lsl #2
 b28:	31736301 	cmncc	r3, r1, lsl #6
 b2c:	2d653034 	stclcs	0, cr3, [r5, #-208]!	; 0xffffff30
 b30:	65746e69 	ldrbvs	r6, [r4, #-3689]!	; 0xe69
 b34:	70757272 	rsbsvc	r7, r5, r2, ror r2
 b38:	552f0074 	strpl	r0, [pc, #-116]!	; acc <_start-0x7534>
 b3c:	73726573 	cmnvc	r2, #482344960	; 0x1cc00000
 b40:	6972622f 	ldmdbvs	r2!, {r0, r1, r2, r3, r5, r9, sp, lr}^
 b44:	756a6e61 	strbvc	r6, [sl, #-3681]!	; 0xe61
 b48:	65442f6e 	strbvs	r2, [r4, #-3950]	; 0xf6e
 b4c:	6f746b73 	svcvs	0x00746b73
 b50:	63732f70 	cmnvs	r3, #112, 30	; 0x1c0
 b54:	6c6f6f68 	stclvs	15, cr6, [pc], #-416	; 9bc <_start-0x7644>
 b58:	6e69572f 	cdpvs	7, 6, cr5, cr9, cr15, {1}
 b5c:	31726574 	cmncc	r2, r4, ror r5
 b60:	2f303239 	svccs	0x00303239
 b64:	34315343 	ldrtcc	r5, [r1], #-835	; 0x343
 b68:	632f4530 	teqvs	pc, #48, 10	; 0xc000000
 b6c:	30343173 	eorscc	r3, r4, r3, ror r1
 b70:	30322d65 	eorscc	r2, r2, r5, ror #26
 b74:	2f6e6977 	svccs	0x006e6977
 b78:	7062696c 	rsbvc	r6, r2, ip, ror #18
 b7c:	69000069 	stmdbvs	r0, {r0, r3, r5, r6}
 b80:	7265746e 	rsbvc	r7, r5, #1845493760	; 0x6e000000
 b84:	74707572 	ldrbtvc	r7, [r0], #-1394	; 0x572
 b88:	2e632d73 	mcrcs	13, 3, r2, cr3, cr3, {3}
 b8c:	00010063 	andeq	r0, r1, r3, rrx
 b90:	69707200 	ldmdbvs	r0!, {r9, ip, sp, lr}^
 b94:	0200682e 	andeq	r6, r0, #3014656	; 0x2e0000
 b98:	70720000 	rsbsvc	r0, r2, r0
 b9c:	6e692d69 	cdpvs	13, 6, cr2, cr9, cr9, {3}
 ba0:	72726574 	rsbsvc	r6, r2, #116, 10	; 0x1d000000
 ba4:	73747075 	cmnvc	r4, #117	; 0x75
 ba8:	0100682e 	tsteq	r0, lr, lsr #16
 bac:	00000000 	andeq	r0, r0, r0
 bb0:	949c0205 	ldrls	r0, [ip], #517	; 0x205
 bb4:	31160000 	tstcc	r6, r0
 bb8:	0e036767 	cdpeq	7, 0, cr6, cr3, cr7, {3}
 bbc:	2d2f832e 	stccs	3, cr8, [pc, #-184]!	; b0c <_start-0x74f4>
 bc0:	02040200 	andeq	r0, r4, #0, 4
 bc4:	0402002f 	streq	r0, [r2], #-47	; 0x2f
 bc8:	02006502 	andeq	r6, r0, #8388608	; 0x800000
 bcc:	2e060104 	adfcss	f0, f6, f4
 bd0:	4ba24c06 	blmi	fe893bf0 <__bss_end__+0xfe889630>
 bd4:	084b9408 	stmdaeq	fp, {r3, sl, ip, pc}^
 bd8:	92084b92 	andls	r4, r8, #149504	; 0x24800
 bdc:	4b92084b 	blmi	fe482d10 <__bss_end__+0xfe478750>
 be0:	024b9208 	subeq	r9, fp, #8, 4	; 0x80000000
 be4:	0101001a 	tsteq	r1, sl, lsl r0
 be8:	00000077 	andeq	r0, r0, r7, ror r0
 bec:	003b0002 	eorseq	r0, fp, r2
 bf0:	01020000 	mrseq	r0, (UNDEF: 2)
 bf4:	000d0efb 	strdeq	r0, [sp], -fp
 bf8:	01010101 	tsteq	r1, r1, lsl #2
 bfc:	01000000 	mrseq	r0, (UNDEF: 0)
 c00:	63010000 	movwvs	r0, #4096	; 0x1000
 c04:	30343173 	eorscc	r3, r4, r3, ror r1
 c08:	72732d65 	rsbsvc	r2, r3, #6464	; 0x1940
 c0c:	75000063 	strvc	r0, [r0, #-99]	; 0x63
 c10:	2e747261 	cdpcs	2, 7, cr7, cr4, cr1, {3}
 c14:	00000063 	andeq	r0, r0, r3, rrx
 c18:	69706700 	ldmdbvs	r0!, {r8, r9, sl, sp, lr}^
 c1c:	00682e6f 	rsbeq	r2, r8, pc, ror #28
 c20:	72000001 	andvc	r0, r0, #1
 c24:	682e6970 	stmdavs	lr!, {r4, r5, r6, r8, fp, sp, lr}
 c28:	00000000 	andeq	r0, r0, r0
 c2c:	02050000 	andeq	r0, r5, #0
 c30:	000097a8 	andeq	r9, r0, r8, lsr #15
 c34:	0100d603 	tsteq	r0, r3, lsl #12
 c38:	5e03672f 	cdppl	7, 0, cr6, cr3, cr15, {1}
 c3c:	67333066 	ldrvs	r3, [r3, -r6, rrx]!
 c40:	30d8306d 	sbcscc	r3, r8, sp, rrx
 c44:	67676767 	strbvs	r6, [r7, -r7, ror #14]!
 c48:	0a036867 	beq	dadec <__bss_end__+0xd082c>
 c4c:	67673082 	strbvs	r3, [r7, -r2, lsl #1]!
 c50:	6a672f69 	bvs	19cc9fc <__bss_end__+0x19c243c>
 c54:	2fc1674c 	svccs	0x00c1674c
 c58:	682f302f 	stmdavs	pc!, {r0, r1, r2, r3, r5, ip, sp}	; <UNPREDICTABLE>
 c5c:	02023049 	andeq	r3, r2, #73	; 0x49
 c60:	86010100 	strhi	r0, [r1], -r0, lsl #2
 c64:	02000000 	andeq	r0, r0, #0
 c68:	00007200 	andeq	r7, r0, r0, lsl #4
 c6c:	fb010200 	blx	41476 <__bss_end__+0x36eb6>
 c70:	01000d0e 	tsteq	r0, lr, lsl #26
 c74:	00010101 	andeq	r0, r1, r1, lsl #2
 c78:	00010000 	andeq	r0, r1, r0
 c7c:	696c0100 	stmdbvs	ip!, {r8}^
 c80:	2f006362 	svccs	0x00006362
 c84:	72657355 	rsbvc	r7, r5, #1409286145	; 0x54000001
 c88:	72622f73 	rsbvc	r2, r2, #460	; 0x1cc
 c8c:	6a6e6169 	bvs	1b99238 <__bss_end__+0x1b8ec78>
 c90:	442f6e75 	strtmi	r6, [pc], #-3701	; c98 <_start-0x7368>
 c94:	746b7365 	strbtvc	r7, [fp], #-869	; 0x365
 c98:	732f706f 	teqvc	pc, #111	; 0x6f
 c9c:	6f6f6863 	svcvs	0x006f6863
 ca0:	69572f6c 	ldmdbvs	r7, {r2, r3, r5, r6, r8, r9, sl, fp, sp}^
 ca4:	7265746e 	rsbvc	r7, r5, #1845493760	; 0x6e000000
 ca8:	30323931 	eorscc	r3, r2, r1, lsr r9
 cac:	3153432f 	cmpcc	r3, pc, lsr #6
 cb0:	2f453034 	svccs	0x00453034
 cb4:	34317363 	ldrtcc	r7, [r1], #-867	; 0x363
 cb8:	322d6530 	eorcc	r6, sp, #48, 10	; 0xc000000
 cbc:	6e697730 	mcrvs	7, 3, r7, cr9, cr0, {1}
 cc0:	62696c2f 	rsbvs	r6, r9, #12032	; 0x2f00
 cc4:	00006970 	andeq	r6, r0, r0, ror r9
 cc8:	63747570 	cmnvs	r4, #112, 10	; 0x1c000000
 ccc:	2e726168 	rpwcssz	f6, f2, #0.0
 cd0:	00010063 	andeq	r0, r1, r3, rrx
 cd4:	69707200 	ldmdbvs	r0!, {r9, ip, sp, lr}^
 cd8:	0200682e 	andeq	r6, r0, #3014656	; 0x2e0000
 cdc:	00000000 	andeq	r0, r0, r0
 ce0:	98fc0205 	ldmls	ip!, {r0, r2, r9}^
 ce4:	4a140000 	bmi	500cec <__bss_end__+0x4f672c>
 ce8:	01000602 	tsteq	r0, r2, lsl #12
 cec:	Address 0x0000000000000cec is out of bounds.


Disassembly of section .debug_str:

00000000 <.debug_str>:
   0:	4f495047 	svcmi	0x00495047
   4:	544e495f 	strbpl	r4, [lr], #-2399	; 0x95f
   8:	50470030 	subpl	r0, r7, r0, lsr r0
   c:	495f4f49 	ldmdbmi	pc, {r0, r3, r6, r8, r9, sl, fp, lr}^	; <UNPREDICTABLE>
  10:	0031544e 	eorseq	r5, r1, lr, asr #8
  14:	4f495047 	svcmi	0x00495047
  18:	544e495f 	strbpl	r4, [lr], #-2399	; 0x95f
  1c:	50470032 	subpl	r0, r7, r2, lsr r0
  20:	495f4f49 	ldmdbmi	pc, {r0, r3, r6, r8, r9, sl, fp, lr}^	; <UNPREDICTABLE>
  24:	0033544e 	eorseq	r5, r3, lr, asr #8
  28:	6f697067 	svcvs	0x00697067
  2c:	6972775f 	ldmdbvs	r2!, {r0, r1, r2, r3, r4, r6, r8, r9, sl, ip, sp, lr}^
  30:	6e006574 	cfrshl64vs	mvdx0, mvdx4, r6
  34:	616d746f 	cmnvs	sp, pc, ror #8
  38:	61006e69 	tstvs	r0, r9, ror #28
  3c:	745f6d72 	ldrbvc	r6, [pc], #-3442	; 44 <_start-0x7fbc>
  40:	72656d69 	rsbvc	r6, r5, #6720	; 0x1a40
  44:	5741525f 	smlsldpl	r5, r1, pc, r2	; <UNPREDICTABLE>
  48:	00515249 	subseq	r5, r1, r9, asr #4
  4c:	74726175 	ldrbtvc	r6, [r2], #-373	; 0x175
  50:	696e695f 	stmdbvs	lr!, {r0, r1, r2, r3, r4, r6, r8, fp, sp, lr}^
  54:	79630074 	stmdbvc	r3!, {r2, r4, r5, r6}^
  58:	65705f63 	ldrbvs	r5, [r0, #-3939]!	; 0xf63
  5c:	69625f72 	stmdbvs	r2!, {r1, r4, r5, r6, r8, r9, sl, fp, ip, lr}^
  60:	6f6c0074 	svcvs	0x006c0074
  64:	6c20676e 	stcvs	7, cr6, [r0], #-440	; 0xfffffe48
  68:	20676e6f 	rsbcs	r6, r7, pc, ror #28
  6c:	69736e75 	ldmdbvs	r3!, {r0, r2, r4, r5, r6, r9, sl, fp, sp, lr}^
  70:	64656e67 	strbtvs	r6, [r5], #-3687	; 0xe67
  74:	746e6920 	strbtvc	r6, [lr], #-2336	; 0x920
  78:	69727700 	ldmdbvs	r2!, {r8, r9, sl, ip, sp, lr}^
  7c:	635f6574 	cmpvs	pc, #116, 10	; 0x1d000000
  80:	755f6379 	ldrbvc	r6, [pc, #-889]	; fffffd0f <__bss_end__+0xffff574f>
  84:	6c69746e 	cfstrdvs	mvd7, [r9], #-440	; 0xfffffe48
  88:	6e6f6c00 	cdpvs	12, 6, cr6, cr15, cr0, {0}
  8c:	6f6c2067 	svcvs	0x006c2067
  90:	6920676e 	stmdbvs	r0!, {r1, r2, r3, r5, r6, r8, r9, sl, sp, lr}
  94:	7300746e 	movwvc	r7, #1134	; 0x46e
  98:	61755f77 	cmnvs	r5, r7, ror pc
  9c:	675f7472 			; <UNDEFINED> instruction: 0x675f7472
  a0:	5f637465 	svcpl	0x00637465
  a4:	656d6974 	strbvs	r6, [sp, #-2420]!	; 0x974
  a8:	0074756f 	rsbseq	r7, r4, pc, ror #10
  ac:	755f7773 	ldrbvc	r7, [pc, #-1907]	; fffff941 <__bss_end__+0xffff5381>
  b0:	5f747261 	svcpl	0x00747261
  b4:	73746567 	cmnvc	r4, #432013312	; 0x19c00000
  b8:	746e755f 	strbtvc	r7, [lr], #-1375	; 0x55f
  bc:	6e006c69 	cdpvs	12, 0, cr6, cr0, cr9, {3}
  c0:	6e657665 	cdpvs	6, 6, cr7, cr5, cr5, {3}
  c4:	61007374 	tstvs	r0, r4, ror r3
  c8:	745f6d72 	ldrbvc	r6, [pc], #-3442	; d0 <_start-0x7f30>
  cc:	72656d69 	rsbvc	r6, r5, #6720	; 0x1a40
  d0:	6e6f435f 	mcrvs	3, 3, r4, cr15, cr15, {2}
  d4:	6c6f7274 	sfmvs	f7, 2, [pc], #-464	; ffffff0c <__bss_end__+0xffff594c>
  d8:	765f5f00 	ldrbvc	r5, [pc], -r0, lsl #30
  dc:	696c5f61 	stmdbvs	ip!, {r0, r5, r6, r8, r9, sl, fp, ip, lr}^
  e0:	61007473 	tstvs	r0, r3, ror r4
  e4:	745f6d72 	ldrbvc	r6, [pc], #-3442	; ec <_start-0x7f14>
  e8:	72656d69 	rsbvc	r6, r5, #6720	; 0x1a40
  ec:	616f4c5f 	cmnvs	pc, pc, asr ip	; <UNPREDICTABLE>
  f0:	72610064 	rsbvc	r0, r1, #100	; 0x64
  f4:	69745f6d 	ldmdbvs	r4!, {r0, r2, r3, r5, r6, r8, r9, sl, fp, ip, lr}^
  f8:	5f72656d 	svcpl	0x0072656d
  fc:	65736142 	ldrbvs	r6, [r3, #-322]!	; 0x142
 100:	76656400 	strbtvc	r6, [r5], -r0, lsl #8
 104:	7261625f 	rsbvc	r6, r1, #-268435451	; 0xf0000005
 108:	72656972 	rsbvc	r6, r5, #1867776	; 0x1c8000
 10c:	5f777300 	svcpl	0x00777300
 110:	74726175 	ldrbtvc	r6, [r2], #-373	; 0x175
 114:	7465675f 	strbtvc	r6, [r5], #-1887	; 0x75f
 118:	72610063 	rsbvc	r0, r1, #99	; 0x63
 11c:	69745f6d 	ldmdbvs	r4!, {r0, r2, r3, r5, r6, r8, r9, sl, fp, ip, lr}^
 120:	5f72656d 	svcpl	0x0072656d
 124:	6b73614d 	blvs	1cd8660 <__bss_end__+0x1cce0a0>
 128:	52496465 	subpl	r6, r9, #1694498816	; 0x65000000
 12c:	6e690051 	mcrvs	0, 3, r0, cr9, cr1, {2}
 130:	6e69705f 	mcrvs	0, 3, r7, cr9, cr15, {2}
 134:	6c656400 	cfstrdvs	mvd6, [r5], #-0
 138:	6e5f7961 	cdpvs	9, 5, cr7, cr15, cr1, {3}
 13c:	6c637963 	stclvs	9, cr7, [r3], #-396	; 0xfffffe74
 140:	67007365 	strvs	r7, [r0, -r5, ror #6]
 144:	5f6f6970 	svcpl	0x006f6970
 148:	6e657665 	cdpvs	6, 6, cr7, cr5, cr5, {3}
 14c:	6c635f74 	stclvs	15, cr5, [r3], #-464	; 0xfffffe30
 150:	00726165 	rsbseq	r6, r2, r5, ror #2
 154:	55465f5f 	strbpl	r5, [r6, #-3935]	; 0xf5f
 158:	4954434e 	ldmdbmi	r4, {r1, r2, r3, r6, r8, r9, lr}^
 15c:	5f5f4e4f 	svcpl	0x005f4e4f
 160:	65766500 	ldrbvs	r6, [r6, #-1280]!	; 0x500
 164:	7300746e 	movwvc	r7, #1134	; 0x46e
 168:	74726f68 	ldrbtvc	r6, [r2], #-3944	; 0xf68
 16c:	736e7520 	cmnvc	lr, #32, 10	; 0x8000000
 170:	656e6769 	strbvs	r6, [lr, #-1897]!	; 0x769
 174:	6e692064 	cdpvs	0, 6, cr2, cr9, cr4, {3}
 178:	77730074 			; <UNDEFINED> instruction: 0x77730074
 17c:	7261755f 	rsbvc	r7, r1, #398458880	; 0x17c00000
 180:	6e695f74 	mcrvs	15, 3, r5, cr9, cr4, {3}
 184:	685f7469 	ldmdavs	pc, {r0, r3, r5, r6, sl, ip, sp, lr}^	; <UNPREDICTABLE>
 188:	65706c65 	ldrbvs	r6, [r0, #-3173]!	; 0xc65
 18c:	69740072 	ldmdbvs	r4!, {r1, r4, r5, r6}^
 190:	756f656d 	strbvc	r6, [pc, #-1389]!	; fffffc2b <__bss_end__+0xffff566b>
 194:	73755f74 	cmnvc	r5, #116, 30	; 0x1d0
 198:	73006365 	movwvc	r6, #869	; 0x365
 19c:	61755f77 	cmnvs	r5, r7, ror pc
 1a0:	705f7472 	subsvc	r7, pc, r2, ror r4	; <UNPREDICTABLE>
 1a4:	00637475 	rsbeq	r7, r3, r5, ror r4
 1a8:	755f7773 	ldrbvc	r7, [pc, #-1907]	; fffffa3d <__bss_end__+0xffff547d>
 1ac:	5f747261 	svcpl	0x00747261
 1b0:	6b747570 	blvs	1d1d778 <__bss_end__+0x1d131b8>
 1b4:	5f617600 	svcpl	0x00617600
 1b8:	6e697270 	mcrvs	2, 3, r7, cr9, cr0, {3}
 1bc:	73006b74 	movwvc	r6, #2932	; 0xb74
 1c0:	61755f77 	cmnvs	r5, r7, ror pc
 1c4:	705f7472 	subsvc	r7, pc, r2, ror r4	; <UNPREDICTABLE>
 1c8:	746e6972 	strbtvc	r6, [lr], #-2418	; 0x972
 1cc:	7067006b 	rsbvc	r0, r7, fp, rrx
 1d0:	725f6f69 	subsvc	r6, pc, #420	; 0x1a4
 1d4:	00646165 	rsbeq	r6, r4, r5, ror #2
 1d8:	61656c63 	cmnvs	r5, r3, ror #24
 1dc:	65725f6e 	ldrbvs	r5, [r2, #-3950]!	; 0xf6e
 1e0:	746f6f62 	strbtvc	r6, [pc], #-3938	; 1e8 <_start-0x7e18>
 1e4:	69706700 	ldmdbvs	r0!, {r8, r9, sl, sp, lr}^
 1e8:	6e695f6f 	cdpvs	15, 6, cr5, cr9, cr15, {3}
 1ec:	69725f74 	ldmdbvs	r2!, {r2, r4, r5, r6, r8, r9, sl, fp, ip, lr}^
 1f0:	676e6973 			; <UNDEFINED> instruction: 0x676e6973
 1f4:	6764655f 			; <UNDEFINED> instruction: 0x6764655f
 1f8:	69730065 	ldmdbvs	r3!, {r0, r2, r5, r6}^
 1fc:	7974657a 	ldmdbvc	r4!, {r1, r3, r4, r5, r6, r8, sl, sp, lr}^
 200:	63006570 	movwvs	r6, #1392	; 0x570
 204:	5f726168 	svcpl	0x00726168
 208:	5f006e69 	svcpl	0x00006e69
 20c:	756e675f 	strbvc	r6, [lr, #-1887]!	; 0x75f
 210:	61765f63 	cmnvs	r6, r3, ror #30
 214:	73696c5f 	cmnvc	r9, #24320	; 0x5f00
 218:	72610074 	rsbvc	r0, r1, #116	; 0x74
 21c:	69745f6d 	ldmdbvs	r4!, {r0, r2, r3, r5, r6, r8, r9, sl, fp, ip, lr}^
 220:	5f72656d 	svcpl	0x0072656d
 224:	6f6c6552 	svcvs	0x006c6552
 228:	73006461 	movwvc	r6, #1121	; 0x461
 22c:	61755f77 	cmnvs	r5, r7, ror pc
 230:	675f7472 			; <UNDEFINED> instruction: 0x675f7472
 234:	5f737465 	svcpl	0x00737465
 238:	656d6974 	strbvs	r6, [sp, #-2420]!	; 0x974
 23c:	0074756f 	rsbseq	r7, r4, pc, ror #10
 240:	6c637963 	stclvs	9, cr7, [r3], #-396	; 0xfffffe74
 244:	6f635f65 	svcvs	0x00635f65
 248:	65746e75 	ldrbvs	r6, [r4, #-3701]!	; 0xe75
 24c:	6e690072 	mcrvs	0, 3, r0, cr9, cr2, {3}
 250:	6e695f74 	mcrvs	15, 3, r5, cr9, cr4, {3}
 254:	5f007469 	svcpl	0x00007469
 258:	0074756f 	rsbseq	r7, r4, pc, ror #10
 25c:	656d6974 	strbvs	r6, [sp, #-2420]!	; 0x974
 260:	65675f72 	strbvs	r5, [r7, #-3954]!	; 0xf72
 264:	73755f74 	cmnvc	r5, #116, 30	; 0x1d0
 268:	725f6365 	subsvc	r6, pc, #-1811939327	; 0x94000001
 26c:	73007761 	movwvc	r7, #1889	; 0x761
 270:	65747379 	ldrbvs	r7, [r4, #-889]!	; 0x379
 274:	6e655f6d 	cdpvs	15, 6, cr5, cr5, cr13, {3}
 278:	656c6261 	strbvs	r6, [ip, #-609]!	; 0x261
 27c:	746e695f 	strbtvc	r6, [lr], #-2399	; 0x95f
 280:	75727265 	ldrbvc	r7, [r2, #-613]!	; 0x265
 284:	00737470 	rsbseq	r7, r3, r0, ror r4
 288:	74726175 	ldrbtvc	r6, [r2], #-373	; 0x175
 28c:	73552f00 	cmpvc	r5, #0, 30
 290:	2f737265 	svccs	0x00737265
 294:	61697262 	cmnvs	r9, r2, ror #4
 298:	6e756a6e 	vsubvs.f32	s13, s10, s29
 29c:	7365442f 	cmnvc	r5, #788529152	; 0x2f000000
 2a0:	706f746b 	rsbvc	r7, pc, fp, ror #8
 2a4:	6863732f 	stmdavs	r3!, {r0, r1, r2, r3, r5, r8, r9, ip, sp, lr}^
 2a8:	2f6c6f6f 	svccs	0x006c6f6f
 2ac:	746e6957 	strbtvc	r6, [lr], #-2391	; 0x957
 2b0:	39317265 	ldmdbcc	r1!, {r0, r2, r5, r6, r9, ip, sp, lr}
 2b4:	432f3032 	teqmi	pc, #50	; 0x32
 2b8:	30343153 	eorscc	r3, r4, r3, asr r1
 2bc:	73632f45 	cmnvc	r3, #276	; 0x114
 2c0:	65303431 	ldrvs	r3, [r0, #-1073]!	; 0x431
 2c4:	7730322d 	ldrvc	r3, [r0, -sp, lsr #4]!
 2c8:	6c2f6e69 	stcvs	14, cr6, [pc], #-420	; 12c <_start-0x7ed4>
 2cc:	2f736261 	svccs	0x00736261
 2d0:	65642d38 	strbvs	r2, [r4, #-3384]!	; 0xd38
 2d4:	65636976 	strbvs	r6, [r3, #-2422]!	; 0x976
 2d8:	746e692d 	strbtvc	r6, [lr], #-2349	; 0x92d
 2dc:	75727265 	ldrbvc	r7, [r2, #-613]!	; 0x265
 2e0:	2f737470 	svccs	0x00737470
 2e4:	74726170 	ldrbtvc	r6, [r2], #-368	; 0x170
 2e8:	70672d31 	rsbvc	r2, r7, r1, lsr sp
 2ec:	692d6f69 	pushvs	{r0, r3, r5, r6, r8, r9, sl, fp, sp, lr}
 2f0:	6e00746e 	cdpvs	4, 0, cr7, cr0, cr14, {3}
 2f4:	65747962 	ldrbvs	r7, [r4, #-2402]!	; 0x962
 2f8:	77730073 			; <UNDEFINED> instruction: 0x77730073
 2fc:	7261755f 	rsbvc	r7, r1, #398458880	; 0x17c00000
 300:	00745f74 	rsbseq	r5, r4, r4, ror pc
 304:	69736e75 	ldmdbvs	r3!, {r0, r2, r4, r5, r6, r9, sl, fp, sp, lr}^
 308:	64656e67 	strbtvs	r6, [r5], #-3687	; 0xe67
 30c:	61686320 	cmnvs	r8, r0, lsr #6
 310:	68730072 	ldmdavs	r3!, {r1, r4, r5, r6}^
 314:	2074726f 	rsbscs	r7, r4, pc, ror #4
 318:	00746e69 	rsbseq	r6, r4, r9, ror #28
 31c:	63657375 	cmnvs	r5, #-738197503	; 0xd4000001
 320:	6d69745f 	cfstrdvs	mvd7, [r9, #-380]!	; 0xfffffe84
 324:	74756f65 	ldrbtvc	r6, [r5], #-3941	; 0xf65
 328:	6c656400 	cfstrdvs	mvd6, [r5], #-0
 32c:	6d5f7961 	ldclvs	9, cr7, [pc, #-388]	; 1b0 <_start-0x7e50>
 330:	69750073 	ldmdbvs	r5!, {r0, r1, r4, r5, r6}^
 334:	3233746e 	eorscc	r7, r3, #1845493760	; 0x6e000000
 338:	6200745f 	andvs	r7, r0, #1593835520	; 0x5f000000
 33c:	00647561 	rsbeq	r7, r4, r1, ror #10
 340:	5f74756f 	svcpl	0x0074756f
 344:	006e6970 	rsbeq	r6, lr, r0, ror r9
 348:	69725f6e 	ldmdbvs	r2!, {r1, r2, r3, r5, r6, r8, r9, sl, fp, ip, lr}^
 34c:	676e6973 			; <UNDEFINED> instruction: 0x676e6973
 350:	6764655f 			; <UNDEFINED> instruction: 0x6764655f
 354:	4e470065 	cdpmi	0, 4, cr0, cr7, cr5, {3}
 358:	20432055 	subcs	r2, r3, r5, asr r0
 35c:	2e382e34 	mrccs	14, 1, r2, cr8, cr4, {1}
 360:	6d2d2033 	stcvs	0, cr2, [sp, #-204]!	; 0xffffff34
 364:	3d757063 	ldclcc	0, cr7, [r5, #-396]!	; 0xfffffe74
 368:	316d7261 	cmncc	sp, r1, ror #4
 36c:	6a363731 	bvs	d8e038 <__bss_end__+0xd83a78>
 370:	732d667a 	teqvc	sp, #127926272	; 0x7a00000
 374:	746d2d20 	strbtvc	r2, [sp], #-3360	; 0xd20
 378:	3d656e75 	stclcc	14, cr6, [r5, #-468]!	; 0xfffffe2c
 37c:	316d7261 	cmncc	sp, r1, ror #4
 380:	6a363731 	bvs	d8e04c <__bss_end__+0xd83a8c>
 384:	732d667a 	teqvc	sp, #127926272	; 0x7a00000
 388:	67672d20 	strbvs	r2, [r7, -r0, lsr #26]!
 38c:	2d206264 	sfmcs	f6, 4, [r0, #-400]!	; 0xfffffe70
 390:	2d20674f 	stccs	7, cr6, [r0, #-316]!	; 0xfffffec4
 394:	3d647473 	cfstrdcc	mvd7, [r4, #-460]!	; 0xfffffe34
 398:	39756e67 	ldmdbcc	r5!, {r0, r1, r2, r5, r6, r9, sl, fp, sp, lr}^
 39c:	662d2039 			; <UNDEFINED> instruction: 0x662d2039
 3a0:	65657266 	strbvs	r7, [r5, #-614]!	; 0x266
 3a4:	6e617473 	mcrvs	4, 3, r7, cr1, cr3, {3}
 3a8:	676e6964 	strbvs	r6, [lr, -r4, ror #18]!
 3ac:	69706700 	ldmdbvs	r0!, {r8, r9, sl, sp, lr}^
 3b0:	65735f6f 	ldrbvs	r5, [r3, #-3951]!	; 0xf6f
 3b4:	6e695f74 	mcrvs	15, 3, r5, cr9, cr4, {3}
 3b8:	00747570 	rsbseq	r7, r4, r0, ror r5
 3bc:	61665f6e 	cmnvs	r6, lr, ror #30
 3c0:	6e696c6c 	cdpvs	12, 6, cr6, cr9, cr12, {3}
 3c4:	64655f67 	strbtvs	r5, [r5], #-3943	; 0xf67
 3c8:	73006567 	movwvc	r6, #1383	; 0x567
 3cc:	61755f77 	cmnvs	r5, r7, ror pc
 3d0:	675f7472 			; <UNDEFINED> instruction: 0x675f7472
 3d4:	5f737465 	svcpl	0x00737465
 3d8:	69746e75 	ldmdbvs	r4!, {r0, r2, r4, r5, r6, r9, sl, fp, sp, lr}^
 3dc:	6c625f6c 	stclvs	15, cr5, [r2], #-432	; 0xfffffe50
 3e0:	2d32006b 	ldccs	0, cr0, [r2, #-428]!	; 0xfffffe54
 3e4:	69676f6c 	stmdbvs	r7!, {r2, r3, r5, r6, r8, r9, sl, fp, sp, lr}^
 3e8:	6e612d63 	cdpvs	13, 6, cr2, cr1, cr3, {3}
 3ec:	7a796c61 	bvc	1e5b578 <__bss_end__+0x1e50fb8>
 3f0:	632e7265 	teqvs	lr, #1342177286	; 0x50000006
 3f4:	615f5f00 	cmpvs	pc, r0, lsl #30
 3f8:	72610070 	rsbvc	r0, r1, #112	; 0x70
 3fc:	69745f6d 	ldmdbvs	r4!, {r0, r2, r3, r5, r6, r8, r9, sl, fp, ip, lr}^
 400:	5f72656d 	svcpl	0x0072656d
 404:	44657250 	strbtmi	r7, [r5], #-592	; 0x250
 408:	64697669 	strbtvs	r7, [r9], #-1641	; 0x669
 40c:	64007265 	strvs	r7, [r0], #-613	; 0x265
 410:	76697265 	strbtvc	r7, [r9], -r5, ror #4
 414:	61006465 	tstvs	r0, r5, ror #8
 418:	745f6d72 	ldrbvc	r6, [pc], #-3442	; 420 <_start-0x7be0>
 41c:	72656d69 	rsbvc	r6, r5, #6720	; 0x1a40
 420:	6c61565f 	stclvs	6, cr5, [r1], #-380	; 0xfffffe84
 424:	61006575 	tstvs	r0, r5, ror r5
 428:	745f6d72 	ldrbvc	r6, [pc], #-3442	; 430 <_start-0x7bd0>
 42c:	72656d69 	rsbvc	r6, r5, #6720	; 0x1a40
 430:	5152495f 	cmppl	r2, pc, asr r9
 434:	61656c43 	cmnvs	r5, r3, asr #24
 438:	70670072 	rsbvc	r0, r7, r2, ror r0
 43c:	735f6f69 	cmpvc	pc, #420	; 0x1a4
 440:	6f5f7465 	svcvs	0x005f7465
 444:	75707475 	ldrbvc	r7, [r0, #-1141]!	; 0x475
 448:	61770074 	cmnvs	r7, r4, ror r0
 44c:	755f7469 	ldrbvc	r7, [pc, #-1129]	; ffffffeb <__bss_end__+0xffff5a2b>
 450:	6c69746e 	cfstrdvs	mvd7, [r9], #-440	; 0xfffffe48
 454:	6573755f 	ldrbvs	r7, [r3, #-1375]!	; 0x55f
 458:	70720063 	rsbsvc	r0, r2, r3, rrx
 45c:	72615f69 	rsbvc	r5, r1, #420	; 0x1a4
 460:	69745f6d 	ldmdbvs	r4!, {r0, r2, r3, r5, r6, r8, r9, sl, fp, ip, lr}^
 464:	5f72656d 	svcpl	0x0072656d
 468:	69750074 	ldmdbvs	r5!, {r2, r4, r5, r6}^
 46c:	5f38746e 	svcpl	0x0038746e
 470:	70670074 	rsbvc	r0, r7, r4, ror r0
 474:	695f6f69 	ldmdbvs	pc, {r0, r3, r5, r6, r8, r9, sl, fp, sp, lr}^	; <UNPREDICTABLE>
 478:	665f746e 	ldrbvs	r7, [pc], -lr, ror #8
 47c:	696c6c61 	stmdbvs	ip!, {r0, r5, r6, sl, fp, sp, lr}^
 480:	655f676e 	ldrbvs	r6, [pc, #-1902]	; fffffd1a <__bss_end__+0xffff575a>
 484:	00656764 	rsbeq	r6, r5, r4, ror #14
 488:	675f7369 	ldrbvs	r7, [pc, -r9, ror #6]
 48c:	5f6f6970 	svcpl	0x006f6970
 490:	00746e69 	rsbseq	r6, r4, r9, ror #28
 494:	73677261 	cmnvc	r7, #268435462	; 0x10000006
 498:	63796300 	cmnvs	r9, #0, 6
 49c:	705f656c 	subsvc	r6, pc, ip, ror #10
 4a0:	625f7265 	subsvs	r7, pc, #1342177286	; 0x50000006
 4a4:	61007469 	tstvs	r0, r9, ror #8
 4a8:	745f6d72 	ldrbvc	r6, [pc], #-3442	; 4b0 <_start-0x7b50>
 4ac:	72656d69 	rsbvc	r6, r5, #6720	; 0x1a40
 4b0:	6572465f 	ldrbvs	r4, [r2, #-1631]!	; 0x65f
 4b4:	6e755265 	cdpvs	2, 7, cr5, cr5, cr5, {3}
 4b8:	676e696e 	strbvs	r6, [lr, -lr, ror #18]!
 4bc:	6e756f43 	cdpvs	15, 7, cr6, cr5, cr3, {2}
 4c0:	00726574 	rsbseq	r6, r2, r4, ror r5
 4c4:	6362696c 	cmnvs	r2, #108, 18	; 0x1b0000
 4c8:	6972702f 	ldmdbvs	r2!, {r0, r1, r2, r3, r5, ip, sp, lr}^
 4cc:	2e6b746e 	cdpcs	4, 6, cr7, cr11, cr14, {3}
 4d0:	552f0063 	strpl	r0, [pc, #-99]!	; 475 <_start-0x7b8b>
 4d4:	73726573 	cmnvc	r2, #482344960	; 0x1cc00000
 4d8:	6972622f 	ldmdbvs	r2!, {r0, r1, r2, r3, r5, r9, sp, lr}^
 4dc:	756a6e61 	strbvc	r6, [sl, #-3681]!	; 0xe61
 4e0:	65442f6e 	strbvs	r2, [r4, #-3950]	; 0xf6e
 4e4:	6f746b73 	svcvs	0x00746b73
 4e8:	63732f70 	cmnvs	r3, #112, 30	; 0x1c0
 4ec:	6c6f6f68 	stclvs	15, cr6, [pc], #-416	; 354 <_start-0x7cac>
 4f0:	6e69572f 	cdpvs	7, 6, cr5, cr9, cr15, {1}
 4f4:	31726574 	cmncc	r2, r4, ror r5
 4f8:	2f303239 	svccs	0x00303239
 4fc:	34315343 	ldrtcc	r5, [r1], #-835	; 0x343
 500:	632f4530 	teqvs	pc, #48, 10	; 0xc000000
 504:	30343173 	eorscc	r3, r4, r3, ror r1
 508:	30322d65 	eorscc	r2, r2, r5, ror #26
 50c:	2f6e6977 	svccs	0x006e6977
 510:	7062696c 	rsbvc	r6, r2, ip, ror #18
 514:	696c0069 	stmdbvs	ip!, {r0, r3, r5, r6}^
 518:	702f6362 	eorvc	r6, pc, r2, ror #6
 51c:	2e6b7475 	mcrcs	4, 3, r7, cr11, cr5, {3}
 520:	6e690063 	cdpvs	0, 6, cr0, cr9, cr3, {3}
 524:	6e726574 	mrcvs	5, 3, r6, cr2, cr4, {3}
 528:	705f6c61 	subsvc	r6, pc, r1, ror #24
 52c:	006b7475 	rsbeq	r7, fp, r5, ror r4
 530:	5f697072 	svcpl	0x00697072
 534:	63747570 	cmnvs	r4, #112, 10	; 0x1c000000
 538:	00726168 	rsbseq	r6, r2, r8, ror #2
 53c:	5f67656e 	svcpl	0x0067656e
 540:	65720070 	ldrbvs	r0, [r2, #-112]!	; 0x70
 544:	73726576 	cmnvc	r2, #494927872	; 0x1d800000
 548:	73690065 	cmnvc	r9, #101	; 0x65
 54c:	69676964 	stmdbvs	r7!, {r2, r5, r6, r8, fp, sp, lr}^
 550:	75700074 	ldrbvc	r0, [r0, #-116]!	; 0x74
 554:	665f7374 			; <UNDEFINED> instruction: 0x665f7374
 558:	61620070 	smcvs	8192	; 0x2000
 55c:	73006573 	movwvc	r6, #1395	; 0x573
 560:	656e6769 	strbvs	r6, [lr, #-1897]!	; 0x769
 564:	00705f64 	rsbseq	r5, r0, r4, ror #30
 568:	6362696c 	cmnvs	r2, #108, 18	; 0x1b0000
 56c:	2d61762f 	stclcs	6, cr7, [r1, #-188]!	; 0xffffff44
 570:	6e697270 	mcrvs	2, 3, r7, cr9, cr0, {3}
 574:	632e6b74 	teqvs	lr, #116, 22	; 0x1d000
 578:	69707200 	ldmdbvs	r0!, {r9, ip, sp, lr}^
 57c:	7465735f 	strbtvc	r7, [r5], #-863	; 0x35f
 580:	74756f5f 	ldrbtvc	r6, [r5], #-3935	; 0xf5f
 584:	00747570 	rsbseq	r7, r4, r0, ror r5
 588:	74646977 	strbtvc	r6, [r4], #-2423	; 0x977
 58c:	75700068 	ldrbvc	r0, [r0, #-104]!	; 0x68
 590:	665f6374 			; <UNDEFINED> instruction: 0x665f6374
 594:	6d650070 	stclvs	0, cr0, [r5, #-448]!	; 0xfffffe40
 598:	72007469 	andvc	r7, r0, #1761607680	; 0x69000000
 59c:	725f6970 	subsvc	r6, pc, #112, 18	; 0x1c0000
 5a0:	6f6f6265 	svcvs	0x006f6265
 5a4:	73630074 	cmnvc	r3, #116	; 0x74
 5a8:	65303431 	ldrvs	r3, [r0, #-1073]!	; 0x431
 5ac:	6372732d 	cmnvs	r2, #-1275068416	; 0xb4000000
 5b0:	656c632f 	strbvs	r6, [ip, #-815]!	; 0x32f
 5b4:	722d6e61 	eorvc	r6, sp, #1552	; 0x610
 5b8:	6f6f6265 	svcvs	0x006f6265
 5bc:	00632e74 	rsbeq	r2, r3, r4, ror lr
 5c0:	34317363 	ldrtcc	r7, [r1], #-867	; 0x363
 5c4:	732d6530 	teqvc	sp, #48, 10	; 0xc000000
 5c8:	632f6372 	teqvs	pc, #-939524095	; 0xc8000001
 5cc:	72617473 	rsbvc	r7, r1, #1929379840	; 0x73000000
 5d0:	00632e74 	rsbeq	r2, r3, r4, ror lr
 5d4:	73625f5f 	cmnvc	r2, #380	; 0x17c
 5d8:	74735f73 	ldrbtvc	r5, [r3], #-3955	; 0xf73
 5dc:	5f747261 	svcpl	0x00747261
 5e0:	5f5f005f 	svcpl	0x005f005f
 5e4:	5f737362 	svcpl	0x00737362
 5e8:	5f646e65 	svcpl	0x00646e65
 5ec:	7362005f 	cmnvc	r2, #95	; 0x5f
 5f0:	6e655f73 	mcrvs	15, 3, r5, cr5, cr3, {3}
 5f4:	635f0064 	cmpvs	pc, #100	; 0x64
 5f8:	72617473 	rsbvc	r7, r1, #1929379840	; 0x73000000
 5fc:	74610074 	strbtvc	r0, [r1], #-116	; 0x74
 600:	6573755f 	ldrbvs	r7, [r3, #-1375]!	; 0x55f
 604:	656c5f72 	strbvs	r5, [ip, #-3954]!	; 0xf72
 608:	006c6576 	rsbeq	r6, ip, r6, ror r5
 60c:	505f4d50 	subspl	r4, pc, r0, asr sp	; <UNPREDICTABLE>
 610:	57535341 	ldrbpl	r5, [r3, -r1, asr #6]
 614:	0044524f 	subeq	r5, r4, pc, asr #4
 618:	34317363 	ldrtcc	r7, [r1], #-867	; 0x363
 61c:	732d6530 	teqvc	sp, #48, 10	; 0xc000000
 620:	722f6372 	eorvc	r6, pc, #-939524095	; 0xc8000001
 624:	6f6f6265 	svcvs	0x006f6265
 628:	00632e74 	rsbeq	r2, r3, r4, ror lr
 62c:	525f4d50 	subspl	r4, pc, #80, 26	; 0x1400
 630:	5f435453 	svcpl	0x00435453
 634:	46435257 			; <UNDEFINED> instruction: 0x46435257
 638:	55465f47 	strbpl	r5, [r6, #-3911]	; 0xf47
 63c:	525f4c4c 	subspl	r4, pc, #76, 24	; 0x4c00
 640:	54455345 	strbpl	r5, [r5], #-837	; 0x345
 644:	5f4d5000 	svcpl	0x004d5000
 648:	474f4457 	smlsldmi	r4, pc, r7, r4	; <UNPREDICTABLE>
 64c:	74657300 	strbtvc	r7, [r5], #-768	; 0x300
 650:	6573755f 	ldrbvs	r7, [r3, #-1375]!	; 0x55f
 654:	656c5f72 	strbvs	r5, [ip, #-3954]!	; 0xf72
 658:	006c6576 	rsbeq	r6, ip, r6, ror r5
 65c:	33545550 	cmpcc	r4, #80, 10	; 0x14000000
 660:	4d500032 	ldclmi	0, cr0, [r0, #-200]	; 0xffffff38
 664:	5453525f 	ldrbpl	r5, [r3], #-607	; 0x25f
 668:	70630043 	rsbvc	r0, r3, r3, asr #32
 66c:	64007273 	strvs	r7, [r0], #-627	; 0x273
 670:	79616c65 	stmdbvc	r1!, {r0, r2, r5, r6, sl, fp, sp, lr}^
 674:	6365735f 	cmnvs	r5, #2080374785	; 0x7c000001
 678:	31736300 	cmncc	r3, r0, lsl #6
 67c:	2d653034 	stclcs	0, cr3, [r5, #-208]!	; 0xffffff30
 680:	2f637273 	svccs	0x00637273
 684:	656d6974 	strbvs	r6, [sp, #-2420]!	; 0x974
 688:	00632e72 	rsbeq	r2, r3, r2, ror lr
 68c:	33544547 	cmpcc	r4, #297795584	; 0x11c00000
 690:	69740032 	ldmdbvs	r4!, {r1, r4, r5}^
 694:	00736b63 	rsbseq	r6, r3, r3, ror #22
 698:	616c6564 	cmnvs	ip, r4, ror #10
 69c:	79635f79 	stmdbvc	r3!, {r0, r3, r4, r5, r6, r8, r9, sl, fp, ip, lr}^
 6a0:	73656c63 	cmnvc	r5, #25344	; 0x6300
 6a4:	6c656400 	cfstrdvs	mvd6, [r5], #-0
 6a8:	755f7961 	ldrbvc	r7, [pc, #-2401]	; fffffd4f <__bss_end__+0xffff578f>
 6ac:	69740073 	ldmdbvs	r4!, {r0, r1, r4, r5, r6}^
 6b0:	5f72656d 	svcpl	0x0072656d
 6b4:	5f746567 	svcpl	0x00746567
 6b8:	63657375 	cmnvs	r5, #-738197503	; 0xd4000001
 6bc:	69706700 	ldmdbvs	r0!, {r8, r9, sl, sp, lr}^
 6c0:	76655f6f 	strbtvc	r5, [r5], -pc, ror #30
 6c4:	5f746e65 	svcpl	0x00746e65
 6c8:	65746564 	ldrbvs	r6, [r4, #-1380]!	; 0x564
 6cc:	64657463 	strbtvs	r7, [r5], #-1123	; 0x463
 6d0:	74757000 	ldrbtvc	r7, [r5], #-0
 6d4:	47003233 	smladxmi	r0, r3, r2, r3
 6d8:	45534650 	ldrbmi	r4, [r3, #-1616]	; 0x650
 6dc:	4700324c 	strmi	r3, [r0, -ip, asr #4]
 6e0:	524c4350 	subpl	r4, ip, #80, 6	; 0x40000001
 6e4:	4e450030 	mcrmi	0, 2, r0, cr5, cr0, {1}
 6e8:	454c4241 	strbmi	r4, [ip, #-577]	; 0x241
 6ec:	5152495f 	cmppl	r2, pc, asr r9
 6f0:	00325f53 	eorseq	r5, r2, r3, asr pc
 6f4:	4f495047 	svcmi	0x00495047
 6f8:	4e55465f 	mrcmi	6, 2, r4, cr5, cr15, {2}
 6fc:	4e495f43 	cdpmi	15, 4, cr5, cr9, cr3, {2}
 700:	00545550 	subseq	r5, r4, r0, asr r5
 704:	6f697067 	svcvs	0x00697067
 708:	7465735f 	strbtvc	r7, [r5], #-863	; 0x35f
 70c:	66666f5f 	uqsaxvs	r6, r6, pc	; <UNPREDICTABLE>
 710:	746e6900 	strbtvc	r6, [lr], #-2304	; 0x900
 714:	73616d5f 	cmnvc	r1, #6080	; 0x17c0
 718:	5047006b 	subpl	r0, r7, fp, rrx
 71c:	30544553 	subscc	r4, r4, r3, asr r5
 720:	53504700 	cmppl	r0, #0, 14
 724:	00315445 	eorseq	r5, r1, r5, asr #8
 728:	5f676572 	svcpl	0x00676572
 72c:	74617473 	strbtvc	r7, [r1], #-1139	; 0x473
 730:	4c504700 	mrrcmi	7, 0, r4, r0, cr0
 734:	00305645 	eorseq	r5, r0, r5, asr #12
 738:	454c5047 	strbmi	r5, [ip, #-71]	; 0x47
 73c:	67003156 	smlsdvs	r0, r6, r1, r3
 740:	5f6f6970 	svcpl	0x006f6970
 744:	00676572 	rsbeq	r6, r7, r2, ror r5
 748:	6f697067 	svcvs	0x00697067
 74c:	4700632e 	strmi	r6, [r0, -lr, lsr #6]
 750:	45534650 	ldrbmi	r4, [r3, #-1616]	; 0x650
 754:	4700304c 	strmi	r3, [r0, -ip, asr #32]
 758:	45534650 	ldrbmi	r4, [r3, #-1616]	; 0x650
 75c:	4700314c 	strmi	r3, [r0, -ip, asr #2]
 760:	45534650 	ldrbmi	r4, [r3, #-1616]	; 0x650
 764:	4700334c 	strmi	r3, [r0, -ip, asr #6]
 768:	45534650 	ldrbmi	r4, [r3, #-1616]	; 0x650
 76c:	4700344c 	strmi	r3, [r0, -ip, asr #8]
 770:	45534650 	ldrbmi	r4, [r3, #-1616]	; 0x650
 774:	6700354c 	strvs	r3, [r0, -ip, asr #10]
 778:	5f6f6970 	svcpl	0x006f6970
 77c:	6c657366 	stclvs	3, cr7, [r5], #-408	; 0xfffffe68
 780:	50470030 	subpl	r0, r7, r0, lsr r0
 784:	31524c43 	cmpcc	r2, r3, asr #24
 788:	69706700 	ldmdbvs	r0!, {r8, r9, sl, sp, lr}^
 78c:	65735f6f 	ldrbvs	r5, [r3, #-3951]!	; 0xf6f
 790:	75665f74 	strbvc	r5, [r6, #-3956]!	; 0xf74
 794:	6974636e 	ldmdbvs	r4!, {r1, r2, r3, r5, r6, r8, r9, sp, lr}^
 798:	47006e6f 	strmi	r6, [r0, -pc, ror #28]
 79c:	4e455250 	mcrmi	2, 2, r5, cr5, cr0, {2}
 7a0:	50470030 	subpl	r0, r7, r0, lsr r0
 7a4:	314e4552 	cmpcc	lr, r2, asr r5
 7a8:	51524900 	cmppl	r2, r0, lsl #18
 7ac:	4e45505f 	mcrmi	0, 2, r5, cr5, cr15, {2}
 7b0:	474e4944 	strbmi	r4, [lr, -r4, asr #18]
 7b4:	4900315f 	stmdbmi	r0, {r0, r1, r2, r3, r4, r6, r8, ip, sp}
 7b8:	505f5152 	subspl	r5, pc, r2, asr r1	; <UNPREDICTABLE>
 7bc:	49444e45 	stmdbmi	r4, {r0, r2, r6, r9, sl, fp, lr}^
 7c0:	325f474e 	subscc	r4, pc, #20447232	; 0x1380000
 7c4:	74696200 	strbtvc	r6, [r9], #-512	; 0x200
 7c8:	6b73616d 	blvs	1cd8d84 <__bss_end__+0x1cce7c4>
 7cc:	69706700 	ldmdbvs	r0!, {r8, r9, sl, sp, lr}^
 7d0:	65735f6f 	ldrbvs	r5, [r3, #-3951]!	; 0xf6f
 7d4:	66003074 			; <UNDEFINED> instruction: 0x66003074
 7d8:	00636e75 	rsbeq	r6, r3, r5, ror lr
 7dc:	44455047 	strbmi	r5, [r5], #-71	; 0x47
 7e0:	47003053 	smlsdmi	r0, r3, r0, r3
 7e4:	53444550 	movtpl	r4, #17744	; 0x4550
 7e8:	70670031 	rsbvc	r0, r7, r1, lsr r0
 7ec:	735f6f69 	cmpvc	pc, #420	; 0x1a4
 7f0:	6f5f7465 	svcvs	0x005f7465
 7f4:	5047006e 	subpl	r0, r7, lr, rrx
 7f8:	304e4546 	subcc	r4, lr, r6, asr #10
 7fc:	46504700 	ldrbmi	r4, [r0], -r0, lsl #14
 800:	00314e45 	eorseq	r4, r1, r5, asr #28
 804:	4f495047 	svcmi	0x00495047
 808:	4e55465f 	mrcmi	6, 2, r4, cr5, cr15, {2}
 80c:	554f5f43 	strbpl	r5, [pc, #-3907]	; fffff8d1 <__bss_end__+0xffff5311>
 810:	54555054 	ldrbpl	r5, [r5], #-84	; 0x54
 814:	74656700 	strbtvc	r6, [r5], #-1792	; 0x700
 818:	67003233 	smladxvs	r0, r3, r2, r3
 81c:	5f6f6970 	svcpl	0x006f6970
 820:	636e7566 	cmnvs	lr, #427819008	; 0x19800000
 824:	4700745f 	smlsdmi	r0, pc, r4, r7	; <UNPREDICTABLE>
 828:	5f4f4950 	svcpl	0x004f4950
 82c:	434e5546 	movtmi	r5, #58694	; 0xe546
 830:	544c415f 	strbpl	r4, [ip], #-351	; 0x15f
 834:	50470030 	subpl	r0, r7, r0, lsr r0
 838:	465f4f49 	ldrbmi	r4, [pc], -r9, asr #30
 83c:	5f434e55 	svcpl	0x00434e55
 840:	31544c41 	cmpcc	r4, r1, asr #24
 844:	49504700 	ldmdbmi	r0, {r8, r9, sl, lr}^
 848:	55465f4f 	strbpl	r5, [r6, #-3919]	; 0xf4f
 84c:	415f434e 	cmpmi	pc, lr, asr #6
 850:	0032544c 	eorseq	r5, r2, ip, asr #8
 854:	4f495047 	svcmi	0x00495047
 858:	4e55465f 	mrcmi	6, 2, r4, cr5, cr15, {2}
 85c:	4c415f43 	mcrrmi	15, 4, r5, r1, cr3
 860:	47003354 	smlsdmi	r0, r4, r3, r3
 864:	5f4f4950 	svcpl	0x004f4950
 868:	434e5546 	movtmi	r5, #58694	; 0xe546
 86c:	544c415f 	strbpl	r4, [ip], #-351	; 0x15f
 870:	50470034 	subpl	r0, r7, r4, lsr r0
 874:	465f4f49 	ldrbmi	r4, [pc], -r9, asr #30
 878:	5f434e55 	svcpl	0x00434e55
 87c:	35544c41 	ldrbcc	r4, [r4, #-3137]	; 0xc41
 880:	67657200 	strbvs	r7, [r5, -r0, lsl #4]!
 884:	6c65735f 	stclvs	3, cr7, [r5], #-380	; 0xfffffe84
 888:	00746365 	rsbseq	r6, r4, r5, ror #6
 88c:	6f697067 	svcvs	0x00697067
 890:	726c635f 	rsbvc	r6, ip, #2080374785	; 0x7c000001
 894:	72700030 	rsbsvc	r0, r0, #48	; 0x30
 898:	74656665 	strbtvc	r6, [r5], #-1637	; 0x665
 89c:	615f6863 	cmpvs	pc, r3, ror #16
 8a0:	74726f62 	ldrbtvc	r6, [r2], #-3938	; 0xf62
 8a4:	6365765f 	cmnvs	r5, #99614720	; 0x5f00000
 8a8:	00726f74 	rsbseq	r6, r2, r4, ror pc
 8ac:	61736944 	cmnvs	r3, r4, asr #18
 8b0:	5f656c62 	svcpl	0x00656c62
 8b4:	69736142 	ldmdbvs	r3!, {r1, r6, r8, sp, lr}^
 8b8:	52495f63 	subpl	r5, r9, #396	; 0x18c
 8bc:	46007351 			; <UNDEFINED> instruction: 0x46007351
 8c0:	635f5149 	cmpvs	pc, #1073741842	; 0x40000012
 8c4:	72746e6f 	rsbsvc	r6, r4, #1776	; 0x6f0
 8c8:	5f006c6f 	svcpl	0x00006c6f
 8cc:	65746e69 	ldrbvs	r6, [r4, #-3689]!	; 0xe69
 8d0:	70757272 	rsbsvc	r7, r5, r2, ror r2
 8d4:	61745f74 	cmnvs	r4, r4, ror pc
 8d8:	00656c62 	rsbeq	r6, r5, r2, ror #24
 8dc:	5f515249 	svcpl	0x00515249
 8e0:	69736162 	ldmdbvs	r3!, {r1, r5, r6, r8, sp, lr}^
 8e4:	65705f63 	ldrbvs	r5, [r0, #-3939]!	; 0xf63
 8e8:	6e69646e 	cdpvs	4, 6, cr6, cr9, cr14, {3}
 8ec:	6e450067 	cdpvs	0, 4, cr0, cr5, cr7, {3}
 8f0:	656c6261 	strbvs	r6, [ip, #-609]!	; 0x261
 8f4:	7361425f 	cmnvc	r1, #-268435451	; 0xf0000005
 8f8:	495f6369 	ldmdbmi	pc, {r0, r3, r5, r6, r8, r9, sp, lr}^	; <UNPREDICTABLE>
 8fc:	00735152 	rsbseq	r5, r3, r2, asr r1
 900:	62616e45 	rsbvs	r6, r1, #1104	; 0x450
 904:	495f656c 	ldmdbmi	pc, {r2, r3, r5, r6, r8, sl, sp, lr}^	; <UNPREDICTABLE>
 908:	5f735152 	svcpl	0x00735152
 90c:	6e450031 	mcrvs	0, 2, r0, cr5, cr1, {1}
 910:	656c6261 	strbvs	r6, [ip, #-609]!	; 0x261
 914:	5152495f 	cmppl	r2, pc, asr r9
 918:	00325f73 	eorseq	r5, r2, r3, ror pc
 91c:	746e695f 	strbtvc	r6, [lr], #-2399	; 0x95f
 920:	75727265 	ldrbvc	r7, [r2, #-613]!	; 0x265
 924:	745f7470 	ldrbvc	r7, [pc], #-1136	; 92c <_start-0x76d4>
 928:	656c6261 	strbvs	r6, [ip, #-609]!	; 0x261
 92c:	646e655f 	strbtvs	r6, [lr], #-1375	; 0x55f
 930:	74616400 	strbtvc	r6, [r1], #-1024	; 0x400
 934:	62615f61 	rsbvs	r5, r1, #388	; 0x184
 938:	5f74726f 	svcpl	0x0074726f
 93c:	74636576 	strbtvc	r6, [r3], #-1398	; 0x576
 940:	4900726f 	stmdbmi	r0, {r0, r1, r2, r3, r5, r6, r9, ip, sp, lr}
 944:	705f5152 	subsvc	r5, pc, r2, asr r1	; <UNPREDICTABLE>
 948:	69646e65 	stmdbvs	r4!, {r0, r2, r5, r6, r9, sl, fp, sp, lr}^
 94c:	325f676e 	subscc	r6, pc, #28835840	; 0x1b80000
 950:	31736300 	cmncc	r3, r0, lsl #6
 954:	2d653034 	stclcs	0, cr3, [r5, #-208]!	; 0xffffff30
 958:	65746e69 	ldrbvs	r6, [r4, #-3689]!	; 0xe69
 95c:	70757272 	rsbsvc	r7, r5, r2, ror r2
 960:	6e692f74 	mcrvs	15, 3, r2, cr9, cr4, {3}
 964:	72726574 	rsbsvc	r6, r2, #116, 10	; 0x1d000000
 968:	73747075 	cmnvc	r4, #117	; 0x75
 96c:	632e632d 	teqvs	lr, #-1275068416	; 0xb4000000
 970:	51524900 	cmppl	r2, r0, lsl #18
 974:	6e65705f 	mcrvs	0, 3, r7, cr5, cr15, {2}
 978:	676e6964 	strbvs	r6, [lr, -r4, ror #18]!
 97c:	7500315f 	strvc	r3, [r0, #-351]	; 0x15f
 980:	6665646e 	strbtvs	r6, [r5], -lr, ror #8
 984:	64656e69 	strbtvs	r6, [r5], #-3689	; 0xe69
 988:	736e695f 	cmnvc	lr, #1556480	; 0x17c000
 98c:	63757274 	cmnvs	r5, #116, 4	; 0x40000007
 990:	6e6f6974 	mcrvs	9, 3, r6, cr15, cr4, {3}
 994:	6365765f 	cmnvs	r5, #99614720	; 0x5f00000
 998:	00726f74 	rsbseq	r6, r2, r4, ror pc
 99c:	65736572 	ldrbvs	r6, [r3, #-1394]!	; 0x572
 9a0:	65765f74 	ldrbvs	r5, [r6, #-3956]!	; 0xf74
 9a4:	726f7463 	rsbvc	r7, pc, #1660944384	; 0x63000000
 9a8:	666f7300 	strbtvs	r7, [pc], -r0, lsl #6
 9ac:	72617774 	rsbvc	r7, r1, #116, 14	; 0x1d00000
 9b0:	6e695f65 	cdpvs	15, 6, cr5, cr9, cr5, {3}
 9b4:	72726574 	rsbsvc	r6, r2, #116, 10	; 0x1d000000
 9b8:	5f747075 	svcpl	0x00747075
 9bc:	74636576 	strbtvc	r6, [r3], #-1398	; 0x576
 9c0:	4400726f 	strmi	r7, [r0], #-623	; 0x26f
 9c4:	62617369 	rsbvs	r7, r1, #-1543503871	; 0xa4000001
 9c8:	495f656c 	ldmdbmi	pc, {r2, r3, r5, r6, r8, sl, sp, lr}^	; <UNPREDICTABLE>
 9cc:	5f735152 	svcpl	0x00735152
 9d0:	69440031 	stmdbvs	r4, {r0, r4, r5}^
 9d4:	6c626173 	stfvse	f6, [r2], #-460	; 0xfffffe34
 9d8:	52495f65 	subpl	r5, r9, #404	; 0x194
 9dc:	325f7351 	subscc	r7, pc, #1140850689	; 0x44000001
 9e0:	73616600 	cmnvc	r1, #0, 12
 9e4:	6e695f74 	mcrvs	15, 3, r5, cr9, cr4, {3}
 9e8:	72726574 	rsbsvc	r6, r2, #116, 10	; 0x1d000000
 9ec:	5f747075 	svcpl	0x00747075
 9f0:	74636576 	strbtvc	r6, [r3], #-1398	; 0x576
 9f4:	4900726f 	stmdbmi	r0, {r0, r1, r2, r3, r5, r6, r9, ip, sp, lr}
 9f8:	425f5152 	subsmi	r5, pc, #-2147483628	; 0x80000014
 9fc:	00657361 	rsbeq	r7, r5, r1, ror #6
 a00:	5f585541 	svcpl	0x00585541
 a04:	4d5f554d 	cfldr64mi	mvdx5, [pc, #-308]	; 8d8 <_start-0x7728>
 a08:	525f5243 	subspl	r5, pc, #805306372	; 0x30000004
 a0c:	41004745 	tstmi	r0, r5, asr #14
 a10:	4d5f5855 	ldclmi	8, cr5, [pc, #-340]	; 8c4 <_start-0x773c>
 a14:	4f495f55 	svcmi	0x00495f55
 a18:	4745525f 	smlsldmi	r5, r5, pc, r2	; <UNPREDICTABLE>
 a1c:	58554100 	ldmdapl	r5, {r8, lr}^
 a20:	5f554d5f 	svcpl	0x00554d5f
 a24:	5f52534d 	svcpl	0x0052534d
 a28:	00474552 	subeq	r4, r7, r2, asr r5
 a2c:	74726175 	ldrbtvc	r6, [r2], #-373	; 0x175
 a30:	6e61635f 	mcrvs	3, 3, r6, cr1, cr15, {2}
 a34:	7465675f 	strbtvc	r6, [r5], #-1887	; 0x75f
 a38:	55410063 	strbpl	r0, [r1, #-99]	; 0x63
 a3c:	554d5f58 	strbpl	r5, [sp, #-3928]	; 0xf58
 a40:	544e435f 	strbpl	r4, [lr], #-863	; 0x35f
 a44:	45525f4c 	ldrbmi	r5, [r2, #-3916]	; 0xf4c
 a48:	61750047 	cmnvs	r5, r7, asr #32
 a4c:	685f7472 	ldmdavs	pc, {r1, r4, r5, r6, sl, ip, sp, lr}^	; <UNPREDICTABLE>
 a50:	645f7361 	ldrbvs	r7, [pc], #-865	; a58 <_start-0x75a8>
 a54:	00617461 	rsbeq	r7, r1, r1, ror #8
 a58:	74726175 	ldrbtvc	r6, [r2], #-373	; 0x175
 a5c:	4100632e 	tstmi	r0, lr, lsr #6
 a60:	4d5f5855 	ldclmi	8, cr5, [pc, #-340]	; 914 <_start-0x76ec>
 a64:	45495f55 	strbmi	r5, [r9, #-3925]	; 0xf55
 a68:	45525f52 	ldrbmi	r5, [r2, #-3922]	; 0xf52
 a6c:	55410047 	strbpl	r0, [r1, #-71]	; 0x47
 a70:	554d5f58 	strbpl	r5, [sp, #-3928]	; 0xf58
 a74:	5249495f 	subpl	r4, r9, #1556480	; 0x17c000
 a78:	4745525f 	smlsldmi	r5, r5, pc, r2	; <UNPREDICTABLE>
 a7c:	72617500 	rsbvc	r7, r1, #0, 10
 a80:	61635f74 	smcvs	13812	; 0x35f4
 a84:	75705f6e 	ldrbvc	r5, [r0, #-3950]!	; 0xf6e
 a88:	41006374 	tstmi	r0, r4, ror r3
 a8c:	455f5855 	ldrbmi	r5, [pc, #-2133]	; 23f <_start-0x7dc1>
 a90:	4c42414e 	stfmie	f4, [r2], {78}	; 0x4e
 a94:	41005345 	tstmi	r0, r5, asr #6
 a98:	495f5855 	ldmdbmi	pc, {r0, r2, r4, r6, fp, ip, lr}^	; <UNPREDICTABLE>
 a9c:	41005152 	tstmi	r0, r2, asr r1
 aa0:	4d5f5855 	ldclmi	8, cr5, [pc, #-340]	; 954 <_start-0x76ac>
 aa4:	41425f55 	cmpmi	r2, r5, asr pc
 aa8:	525f4455 	subspl	r4, pc, #1426063360	; 0x55000000
 aac:	41004745 	tstmi	r0, r5, asr #14
 ab0:	4d5f5855 	ldclmi	8, cr5, [pc, #-340]	; 964 <_start-0x769c>
 ab4:	54535f55 	ldrbpl	r5, [r3], #-3925	; 0xf55
 ab8:	525f5441 	subspl	r5, pc, #1090519040	; 0x41000000
 abc:	41004745 	tstmi	r0, r5, asr #14
 ac0:	4d5f5855 	ldclmi	8, cr5, [pc, #-340]	; 974 <_start-0x768c>
 ac4:	43535f55 	cmpmi	r3, #340	; 0x154
 ac8:	43544152 	cmpmi	r4, #-2147483628	; 0x80000014
 acc:	55410048 	strbpl	r0, [r1, #-72]	; 0x48
 ad0:	554d5f58 	strbpl	r5, [sp, #-3928]	; 0xf58
 ad4:	52434c5f 	subpl	r4, r3, #24320	; 0x5f00
 ad8:	4745525f 	smlsldmi	r5, r5, pc, r2	; <UNPREDICTABLE>
 adc:	58554100 	ldmdapl	r5, {r8, lr}^
 ae0:	5f554d5f 	svcpl	0x00554d5f
 ae4:	5f52534c 	svcpl	0x0052534c
 ae8:	00474552 	subeq	r4, r7, r2, asr r5
 aec:	74726175 	ldrbtvc	r6, [r2], #-373	; 0x175
 af0:	7465675f 	strbtvc	r6, [r5], #-1887	; 0x75f
 af4:	73615f63 	cmnvc	r1, #396	; 0x18c
 af8:	00636e79 	rsbeq	r6, r3, r9, ror lr
 afc:	65746e69 	ldrbvs	r6, [r4, #-3689]!	; 0xe69
 b00:	6c616e72 	stclvs	14, cr6, [r1], #-456	; 0xfffffe38
 b04:	7475705f 	ldrbtvc	r7, [r5], #-95	; 0x5f
 b08:	72616863 	rsbvc	r6, r1, #6488064	; 0x630000
 b0c:	62696c00 	rsbvs	r6, r9, #0, 24
 b10:	75702f63 	ldrbvc	r2, [r0, #-3939]!	; 0xf63
 b14:	61686374 	smcvs	34356	; 0x8634
 b18:	00632e72 	rsbeq	r2, r3, r2, ror lr

Disassembly of section .debug_frame:

00000000 <.debug_frame>:
   0:	0000000c 	andeq	r0, r0, ip
   4:	ffffffff 			; <UNDEFINED> instruction: 0xffffffff
   8:	7c020001 	stcvc	0, cr0, [r2], {1}
   c:	000d0c0e 	andeq	r0, sp, lr, lsl #24
  10:	0000001c 	andeq	r0, r0, ip, lsl r0
  14:	00000000 	andeq	r0, r0, r0
  18:	00008010 	andeq	r8, r0, r0, lsl r0
  1c:	00000158 	andeq	r0, r0, r8, asr r1
  20:	84180e42 	ldrhi	r0, [r8], #-3650	; 0xe42
  24:	86058506 	strhi	r8, [r5], -r6, lsl #10
  28:	88038704 	stmdahi	r3, {r2, r8, r9, sl, pc}
  2c:	00018e02 	andeq	r8, r1, r2, lsl #28
  30:	00000020 	andeq	r0, r0, r0, lsr #32
  34:	00000000 	andeq	r0, r0, r0
  38:	00008168 	andeq	r8, r0, r8, ror #2
  3c:	000001c8 	andeq	r0, r0, r8, asr #3
  40:	83200e42 	teqhi	r0, #1056	; 0x420
  44:	85078408 	strhi	r8, [r7, #-1032]	; 0x408
  48:	87058606 	strhi	r8, [r5, -r6, lsl #12]
  4c:	89038804 	stmdbhi	r3, {r2, fp, pc}
  50:	00018e02 	andeq	r8, r1, r2, lsl #28
  54:	00000020 	andeq	r0, r0, r0, lsr #32
  58:	00000000 	andeq	r0, r0, r0
  5c:	00008330 	andeq	r8, r0, r0, lsr r3
  60:	0000008c 	andeq	r0, r0, ip, lsl #1
  64:	84200e42 	strthi	r0, [r0], #-3650	; 0xe42
  68:	86078508 	strhi	r8, [r7], -r8, lsl #10
  6c:	88058706 	stmdahi	r5, {r1, r2, r8, r9, sl, pc}
  70:	8a038904 	bhi	e2488 <__bss_end__+0xd7ec8>
  74:	00018e02 	andeq	r8, r1, r2, lsl #28
  78:	0000001c 	andeq	r0, r0, ip, lsl r0
  7c:	00000000 	andeq	r0, r0, r0
  80:	000083bc 			; <UNDEFINED> instruction: 0x000083bc
  84:	00000078 	andeq	r0, r0, r8, ror r0
  88:	84180e42 	ldrhi	r0, [r8], #-3650	; 0xe42
  8c:	86058506 	strhi	r8, [r5], -r6, lsl #10
  90:	88038704 	stmdahi	r3, {r2, r8, r9, sl, pc}
  94:	00018e02 	andeq	r8, r1, r2, lsl #28
  98:	0000001c 	andeq	r0, r0, ip, lsl r0
  9c:	00000000 	andeq	r0, r0, r0
  a0:	00008434 	andeq	r8, r0, r4, lsr r4
  a4:	000000bc 	strheq	r0, [r0], -ip
  a8:	84180e42 	ldrhi	r0, [r8], #-3650	; 0xe42
  ac:	86058506 	strhi	r8, [r5], -r6, lsl #10
  b0:	88038704 	stmdahi	r3, {r2, r8, r9, sl, pc}
  b4:	00018e02 	andeq	r8, r1, r2, lsl #28
  b8:	00000014 	andeq	r0, r0, r4, lsl r0
  bc:	00000000 	andeq	r0, r0, r0
  c0:	000084f0 	strdeq	r8, [r0], -r0
  c4:	00000038 	andeq	r0, r0, r8, lsr r0
  c8:	83080e42 	movwhi	r0, #36418	; 0x8e42
  cc:	00018e02 	andeq	r8, r1, r2, lsl #28
  d0:	00000018 	andeq	r0, r0, r8, lsl r0
  d4:	00000000 	andeq	r0, r0, r0
  d8:	00008528 	andeq	r8, r0, r8, lsr #10
  dc:	0000002c 	andeq	r0, r0, ip, lsr #32
  e0:	83100e42 	tsthi	r0, #1056	; 0x420
  e4:	85038404 	strhi	r8, [r3, #-1028]	; 0x404
  e8:	00018e02 	andeq	r8, r1, r2, lsl #28
  ec:	00000024 	andeq	r0, r0, r4, lsr #32
  f0:	00000000 	andeq	r0, r0, r0
  f4:	00008554 	andeq	r8, r0, r4, asr r5
  f8:	00000080 	andeq	r0, r0, r0, lsl #1
  fc:	810c0e42 	tsthi	ip, r2, asr #28
 100:	83028203 	movwhi	r8, #8707	; 0x2203
 104:	180e4201 	stmdane	lr, {r0, r9, lr}
 108:	05850684 	streq	r0, [r5, #1668]	; 0x684
 10c:	0e42048e 	cdpeq	4, 4, cr0, cr2, cr14, {4}
 110:	000003e8 	andeq	r0, r0, r8, ror #7
 114:	00000014 	andeq	r0, r0, r4, lsl r0
 118:	00000000 	andeq	r0, r0, r0
 11c:	000085d4 	ldrdeq	r8, [r0], -r4
 120:	00000048 	andeq	r0, r0, r8, asr #32
 124:	8e040e42 	cdphi	14, 0, cr0, cr4, cr2, {2}
 128:	100e4201 	andne	r4, lr, r1, lsl #4
 12c:	00000014 	andeq	r0, r0, r4, lsl r0
 130:	00000000 	andeq	r0, r0, r0
 134:	0000861c 	andeq	r8, r0, ip, lsl r6
 138:	000000ec 	andeq	r0, r0, ip, ror #1
 13c:	84080e42 	strhi	r0, [r8], #-3650	; 0xe42
 140:	00018e02 	andeq	r8, r1, r2, lsl #28
 144:	0000001c 	andeq	r0, r0, ip, lsl r0
 148:	00000000 	andeq	r0, r0, r0
 14c:	00008708 	andeq	r8, r0, r8, lsl #14
 150:	00000104 	andeq	r0, r0, r4, lsl #2
 154:	84140e42 	ldrhi	r0, [r4], #-3650	; 0xe42
 158:	86048505 	strhi	r8, [r4], -r5, lsl #10
 15c:	8e028703 	cdphi	7, 0, cr8, cr2, cr3, {0}
 160:	300e4201 	andcc	r4, lr, r1, lsl #4
 164:	0000000c 	andeq	r0, r0, ip
 168:	ffffffff 			; <UNDEFINED> instruction: 0xffffffff
 16c:	7c020001 	stcvc	0, cr0, [r2], {1}
 170:	000d0c0e 	andeq	r0, sp, lr, lsl #24
 174:	00000024 	andeq	r0, r0, r4, lsr #32
 178:	00000164 	andeq	r0, r0, r4, ror #2
 17c:	0000880c 	andeq	r8, r0, ip, lsl #16
 180:	00000058 	andeq	r0, r0, r8, asr r0
 184:	80100e42 	andshi	r0, r0, r2, asr #28
 188:	82038104 	andhi	r8, r3, #4, 2
 18c:	42018302 	andmi	r8, r1, #134217728	; 0x8000000
 190:	07841c0e 	streq	r1, [r4, lr, lsl #24]
 194:	058e0685 	streq	r0, [lr, #1669]	; 0x685
 198:	00280e42 	eoreq	r0, r8, r2, asr #28
 19c:	0000000c 	andeq	r0, r0, ip
 1a0:	ffffffff 			; <UNDEFINED> instruction: 0xffffffff
 1a4:	7c020001 	stcvc	0, cr0, [r2], {1}
 1a8:	000d0c0e 	andeq	r0, sp, lr, lsl #24
 1ac:	00000018 	andeq	r0, r0, r8, lsl r0
 1b0:	0000019c 	muleq	r0, ip, r1
 1b4:	00008864 	andeq	r8, r0, r4, ror #16
 1b8:	00000034 	andeq	r0, r0, r4, lsr r0
 1bc:	83100e42 	tsthi	r0, #1056	; 0x420
 1c0:	85038404 	strhi	r8, [r3, #-1028]	; 0x404
 1c4:	00018e02 	andeq	r8, r1, r2, lsl #28
 1c8:	0000000c 	andeq	r0, r0, ip
 1cc:	ffffffff 			; <UNDEFINED> instruction: 0xffffffff
 1d0:	7c020001 	stcvc	0, cr0, [r2], {1}
 1d4:	000d0c0e 	andeq	r0, sp, lr, lsl #24
 1d8:	0000000c 	andeq	r0, r0, ip
 1dc:	000001c8 	andeq	r0, r0, r8, asr #3
 1e0:	00008898 	muleq	r0, r8, r8
 1e4:	00000014 	andeq	r0, r0, r4, lsl r0
 1e8:	0000000c 	andeq	r0, r0, ip
 1ec:	000001c8 	andeq	r0, r0, r8, asr #3
 1f0:	000088ac 	andeq	r8, r0, ip, lsr #17
 1f4:	0000002c 	andeq	r0, r0, ip, lsr #32
 1f8:	0000000c 	andeq	r0, r0, ip
 1fc:	000001c8 	andeq	r0, r0, r8, asr #3
 200:	000088d8 	ldrdeq	r8, [r0], -r8	; <UNPREDICTABLE>
 204:	00000040 	andeq	r0, r0, r0, asr #32
 208:	00000020 	andeq	r0, r0, r0, lsr #32
 20c:	000001c8 	andeq	r0, r0, r8, asr #3
 210:	00008918 	andeq	r8, r0, r8, lsl r9
 214:	00000198 	muleq	r0, r8, r1
 218:	84180e42 	ldrhi	r0, [r8], #-3650	; 0xe42
 21c:	86058506 	strhi	r8, [r5], -r6, lsl #10
 220:	88038704 	stmdahi	r3, {r2, r8, r9, sl, pc}
 224:	42018e02 	andmi	r8, r1, #2, 28
 228:	0000580e 	andeq	r5, r0, lr, lsl #16
 22c:	00000014 	andeq	r0, r0, r4, lsl r0
 230:	000001c8 	andeq	r0, r0, r8, asr #3
 234:	00008ab0 			; <UNDEFINED> instruction: 0x00008ab0
 238:	00000050 	andeq	r0, r0, r0, asr r0
 23c:	83080e42 	movwhi	r0, #36418	; 0x8e42
 240:	00018e02 	andeq	r8, r1, r2, lsl #28
 244:	00000028 	andeq	r0, r0, r8, lsr #32
 248:	000001c8 	andeq	r0, r0, r8, asr #3
 24c:	00008b00 	andeq	r8, r0, r0, lsl #22
 250:	00000288 	andeq	r0, r0, r8, lsl #5
 254:	84240e42 	strthi	r0, [r4], #-3650	; 0xe42
 258:	86088509 	strhi	r8, [r8], -r9, lsl #10
 25c:	88068707 	stmdahi	r6, {r0, r1, r2, r8, r9, sl, pc}
 260:	8a048905 	bhi	12267c <__bss_end__+0x1180bc>
 264:	8e028b03 	vmlahi.f64	d8, d2, d3
 268:	b00e4201 	andlt	r4, lr, r1, lsl #4
 26c:	00000001 	andeq	r0, r0, r1
 270:	0000000c 	andeq	r0, r0, ip
 274:	ffffffff 			; <UNDEFINED> instruction: 0xffffffff
 278:	7c020001 	stcvc	0, cr0, [r2], {1}
 27c:	000d0c0e 	andeq	r0, sp, lr, lsl #24
 280:	00000014 	andeq	r0, r0, r4, lsl r0
 284:	00000270 	andeq	r0, r0, r0, ror r2
 288:	00008d88 	andeq	r8, r0, r8, lsl #27
 28c:	00000028 	andeq	r0, r0, r8, lsr #32
 290:	83080e42 	movwhi	r0, #36418	; 0x8e42
 294:	00018e02 	andeq	r8, r1, r2, lsl #28
 298:	0000000c 	andeq	r0, r0, ip
 29c:	ffffffff 			; <UNDEFINED> instruction: 0xffffffff
 2a0:	7c020001 	stcvc	0, cr0, [r2], {1}
 2a4:	000d0c0e 	andeq	r0, sp, lr, lsl #24
 2a8:	00000014 	andeq	r0, r0, r4, lsl r0
 2ac:	00000298 	muleq	r0, r8, r2
 2b0:	00008db0 			; <UNDEFINED> instruction: 0x00008db0
 2b4:	00000034 	andeq	r0, r0, r4, lsr r0
 2b8:	83080e42 	movwhi	r0, #36418	; 0x8e42
 2bc:	00018e02 	andeq	r8, r1, r2, lsl #28
 2c0:	0000000c 	andeq	r0, r0, ip
 2c4:	ffffffff 			; <UNDEFINED> instruction: 0xffffffff
 2c8:	7c020001 	stcvc	0, cr0, [r2], {1}
 2cc:	000d0c0e 	andeq	r0, sp, lr, lsl #24
 2d0:	0000000c 	andeq	r0, r0, ip
 2d4:	000002c0 	andeq	r0, r0, r0, asr #5
 2d8:	00008de4 	andeq	r8, r0, r4, ror #27
 2dc:	00000018 	andeq	r0, r0, r8, lsl r0
 2e0:	0000000c 	andeq	r0, r0, ip
 2e4:	000002c0 	andeq	r0, r0, r0, asr #5
 2e8:	00008dfc 	strdeq	r8, [r0], -ip
 2ec:	00000014 	andeq	r0, r0, r4, lsl r0
 2f0:	00000014 	andeq	r0, r0, r4, lsl r0
 2f4:	000002c0 	andeq	r0, r0, r0, asr #5
 2f8:	00008e10 	andeq	r8, r0, r0, lsl lr
 2fc:	00000048 	andeq	r0, r0, r8, asr #32
 300:	83080e42 	movwhi	r0, #36418	; 0x8e42
 304:	00018e02 	andeq	r8, r1, r2, lsl #28
 308:	0000000c 	andeq	r0, r0, ip
 30c:	ffffffff 			; <UNDEFINED> instruction: 0xffffffff
 310:	7c020001 	stcvc	0, cr0, [r2], {1}
 314:	000d0c0e 	andeq	r0, sp, lr, lsl #24
 318:	0000000c 	andeq	r0, r0, ip
 31c:	00000308 	andeq	r0, r0, r8, lsl #6
 320:	00008e58 	andeq	r8, r0, r8, asr lr
 324:	0000001c 	andeq	r0, r0, ip, lsl r0
 328:	00000014 	andeq	r0, r0, r4, lsl r0
 32c:	00000308 	andeq	r0, r0, r8, lsl #6
 330:	00008e74 	andeq	r8, r0, r4, ror lr
 334:	00000014 	andeq	r0, r0, r4, lsl r0
 338:	83080e42 	movwhi	r0, #36418	; 0x8e42
 33c:	00018e02 	andeq	r8, r1, r2, lsl #28
 340:	00000014 	andeq	r0, r0, r4, lsl r0
 344:	00000308 	andeq	r0, r0, r8, lsl #6
 348:	00008e88 	andeq	r8, r0, r8, lsl #29
 34c:	0000000c 	andeq	r0, r0, ip
 350:	83080e42 	movwhi	r0, #36418	; 0x8e42
 354:	00018e02 	andeq	r8, r1, r2, lsl #28
 358:	00000018 	andeq	r0, r0, r8, lsl r0
 35c:	00000308 	andeq	r0, r0, r8, lsl #6
 360:	00008e94 	muleq	r0, r4, lr
 364:	00000024 	andeq	r0, r0, r4, lsr #32
 368:	83100e42 	tsthi	r0, #1056	; 0x420
 36c:	85038404 	strhi	r8, [r3, #-1028]	; 0x404
 370:	00018e02 	andeq	r8, r1, r2, lsl #28
 374:	00000014 	andeq	r0, r0, r4, lsl r0
 378:	00000308 	andeq	r0, r0, r8, lsl #6
 37c:	00008eb8 			; <UNDEFINED> instruction: 0x00008eb8
 380:	00000014 	andeq	r0, r0, r4, lsl r0
 384:	83080e42 	movwhi	r0, #36418	; 0x8e42
 388:	00018e02 	andeq	r8, r1, r2, lsl #28
 38c:	00000014 	andeq	r0, r0, r4, lsl r0
 390:	00000308 	andeq	r0, r0, r8, lsl #6
 394:	00008ecc 	andeq	r8, r0, ip, asr #29
 398:	00000014 	andeq	r0, r0, r4, lsl r0
 39c:	83080e42 	movwhi	r0, #36418	; 0x8e42
 3a0:	00018e02 	andeq	r8, r1, r2, lsl #28
 3a4:	0000000c 	andeq	r0, r0, ip
 3a8:	ffffffff 			; <UNDEFINED> instruction: 0xffffffff
 3ac:	7c020001 	stcvc	0, cr0, [r2], {1}
 3b0:	000d0c0e 	andeq	r0, sp, lr, lsl #24
 3b4:	00000018 	andeq	r0, r0, r8, lsl r0
 3b8:	000003a4 	andeq	r0, r0, r4, lsr #7
 3bc:	00008ee0 	andeq	r8, r0, r0, ror #29
 3c0:	000000d4 	ldrdeq	r0, [r0], -r4
 3c4:	83100e42 	tsthi	r0, #1056	; 0x420
 3c8:	85038404 	strhi	r8, [r3, #-1028]	; 0x404
 3cc:	00018e02 	andeq	r8, r1, r2, lsl #28
 3d0:	00000014 	andeq	r0, r0, r4, lsl r0
 3d4:	000003a4 	andeq	r0, r0, r4, lsr #7
 3d8:	00008fb4 			; <UNDEFINED> instruction: 0x00008fb4
 3dc:	00000038 	andeq	r0, r0, r8, lsr r0
 3e0:	83080e42 	movwhi	r0, #36418	; 0x8e42
 3e4:	00018e02 	andeq	r8, r1, r2, lsl #28
 3e8:	00000014 	andeq	r0, r0, r4, lsl r0
 3ec:	000003a4 	andeq	r0, r0, r4, lsr #7
 3f0:	00008fec 	andeq	r8, r0, ip, ror #31
 3f4:	00000038 	andeq	r0, r0, r8, lsr r0
 3f8:	83080e42 	movwhi	r0, #36418	; 0x8e42
 3fc:	00018e02 	andeq	r8, r1, r2, lsl #28
 400:	00000018 	andeq	r0, r0, r8, lsl r0
 404:	000003a4 	andeq	r0, r0, r4, lsr #7
 408:	00009024 	andeq	r9, r0, r4, lsr #32
 40c:	000000cc 	andeq	r0, r0, ip, asr #1
 410:	83100e42 	tsthi	r0, #1056	; 0x420
 414:	85038404 	strhi	r8, [r3, #-1028]	; 0x404
 418:	00018e02 	andeq	r8, r1, r2, lsl #28
 41c:	00000014 	andeq	r0, r0, r4, lsl r0
 420:	000003a4 	andeq	r0, r0, r4, lsr #7
 424:	000090f0 	strdeq	r9, [r0], -r0
 428:	0000004c 	andeq	r0, r0, ip, asr #32
 42c:	84080e42 	strhi	r0, [r8], #-3650	; 0xe42
 430:	00018e02 	andeq	r8, r1, r2, lsl #28
 434:	00000014 	andeq	r0, r0, r4, lsl r0
 438:	000003a4 	andeq	r0, r0, r4, lsr #7
 43c:	0000913c 	andeq	r9, r0, ip, lsr r1
 440:	00000078 	andeq	r0, r0, r8, ror r0
 444:	83080e42 	movwhi	r0, #36418	; 0x8e42
 448:	00018e02 	andeq	r8, r1, r2, lsl #28
 44c:	00000018 	andeq	r0, r0, r8, lsl r0
 450:	000003a4 	andeq	r0, r0, r4, lsr #7
 454:	000091b4 			; <UNDEFINED> instruction: 0x000091b4
 458:	000000d8 	ldrdeq	r0, [r0], -r8
 45c:	84100e42 	ldrhi	r0, [r0], #-3650	; 0xe42
 460:	86038504 	strhi	r8, [r3], -r4, lsl #10
 464:	00018e02 	andeq	r8, r1, r2, lsl #28
 468:	00000014 	andeq	r0, r0, r4, lsl r0
 46c:	000003a4 	andeq	r0, r0, r4, lsr #7
 470:	0000928c 	andeq	r9, r0, ip, lsl #5
 474:	0000002c 	andeq	r0, r0, ip, lsr #32
 478:	83080e42 	movwhi	r0, #36418	; 0x8e42
 47c:	00018e02 	andeq	r8, r1, r2, lsl #28
 480:	00000018 	andeq	r0, r0, r8, lsl r0
 484:	000003a4 	andeq	r0, r0, r4, lsr #7
 488:	000092b8 			; <UNDEFINED> instruction: 0x000092b8
 48c:	00000084 	andeq	r0, r0, r4, lsl #1
 490:	83100e42 	tsthi	r0, #1056	; 0x420
 494:	85038404 	strhi	r8, [r3, #-1028]	; 0x404
 498:	00018e02 	andeq	r8, r1, r2, lsl #28
 49c:	00000018 	andeq	r0, r0, r8, lsl r0
 4a0:	000003a4 	andeq	r0, r0, r4, lsr #7
 4a4:	0000933c 	andeq	r9, r0, ip, lsr r3
 4a8:	00000084 	andeq	r0, r0, r4, lsl #1
 4ac:	83100e42 	tsthi	r0, #1056	; 0x420
 4b0:	85038404 	strhi	r8, [r3, #-1028]	; 0x404
 4b4:	00018e02 	andeq	r8, r1, r2, lsl #28
 4b8:	00000014 	andeq	r0, r0, r4, lsl r0
 4bc:	000003a4 	andeq	r0, r0, r4, lsr #7
 4c0:	000093c0 	andeq	r9, r0, r0, asr #7
 4c4:	00000084 	andeq	r0, r0, r4, lsl #1
 4c8:	84080e42 	strhi	r0, [r8], #-3650	; 0xe42
 4cc:	00018e02 	andeq	r8, r1, r2, lsl #28
 4d0:	00000014 	andeq	r0, r0, r4, lsl r0
 4d4:	000003a4 	andeq	r0, r0, r4, lsr #7
 4d8:	00009444 	andeq	r9, r0, r4, asr #8
 4dc:	00000058 	andeq	r0, r0, r8, asr r0
 4e0:	84080e42 	strhi	r0, [r8], #-3650	; 0xe42
 4e4:	00018e02 	andeq	r8, r1, r2, lsl #28
 4e8:	0000000c 	andeq	r0, r0, ip
 4ec:	ffffffff 			; <UNDEFINED> instruction: 0xffffffff
 4f0:	7c020001 	stcvc	0, cr0, [r2], {1}
 4f4:	000d0c0e 	andeq	r0, sp, lr, lsl #24
 4f8:	00000014 	andeq	r0, r0, r4, lsl r0
 4fc:	000004e8 	andeq	r0, r0, r8, ror #9
 500:	0000949c 	muleq	r0, ip, r4
 504:	00000068 	andeq	r0, r0, r8, rrx
 508:	83080e42 	movwhi	r0, #36418	; 0x8e42
 50c:	00018e02 	andeq	r8, r1, r2, lsl #28
 510:	00000014 	andeq	r0, r0, r4, lsl r0
 514:	000004e8 	andeq	r0, r0, r8, ror #9
 518:	00009504 	andeq	r9, r0, r4, lsl #10
 51c:	0000003c 	andeq	r0, r0, ip, lsr r0
 520:	8e040e42 	cdphi	14, 0, cr0, cr4, cr2, {2}
 524:	100e4201 	andne	r4, lr, r1, lsl #4
 528:	00000014 	andeq	r0, r0, r4, lsl r0
 52c:	000004e8 	andeq	r0, r0, r8, ror #9
 530:	00009540 	andeq	r9, r0, r0, asr #10
 534:	0000003c 	andeq	r0, r0, ip, lsr r0
 538:	8e040e42 	cdphi	14, 0, cr0, cr4, cr2, {2}
 53c:	100e4201 	andne	r4, lr, r1, lsl #4
 540:	00000014 	andeq	r0, r0, r4, lsl r0
 544:	000004e8 	andeq	r0, r0, r8, ror #9
 548:	0000957c 	andeq	r9, r0, ip, ror r5
 54c:	0000003c 	andeq	r0, r0, ip, lsr r0
 550:	8e040e42 	cdphi	14, 0, cr0, cr4, cr2, {2}
 554:	100e4201 	andne	r4, lr, r1, lsl #4
 558:	00000014 	andeq	r0, r0, r4, lsl r0
 55c:	000004e8 	andeq	r0, r0, r8, ror #9
 560:	000095b8 			; <UNDEFINED> instruction: 0x000095b8
 564:	0000003c 	andeq	r0, r0, ip, lsr r0
 568:	8e040e42 	cdphi	14, 0, cr0, cr4, cr2, {2}
 56c:	100e4201 	andne	r4, lr, r1, lsl #4
 570:	00000014 	andeq	r0, r0, r4, lsl r0
 574:	000004e8 	andeq	r0, r0, r8, ror #9
 578:	000095f4 	strdeq	r9, [r0], -r4
 57c:	0000003c 	andeq	r0, r0, ip, lsr r0
 580:	8e040e42 	cdphi	14, 0, cr0, cr4, cr2, {2}
 584:	100e4201 	andne	r4, lr, r1, lsl #4
 588:	00000014 	andeq	r0, r0, r4, lsl r0
 58c:	000004e8 	andeq	r0, r0, r8, ror #9
 590:	00009630 	andeq	r9, r0, r0, lsr r6
 594:	0000003c 	andeq	r0, r0, ip, lsr r0
 598:	8e040e42 	cdphi	14, 0, cr0, cr4, cr2, {2}
 59c:	100e4201 	andne	r4, lr, r1, lsl #4
 5a0:	0000000c 	andeq	r0, r0, ip
 5a4:	ffffffff 			; <UNDEFINED> instruction: 0xffffffff
 5a8:	7c020001 	stcvc	0, cr0, [r2], {1}
 5ac:	000d0c0e 	andeq	r0, sp, lr, lsl #24
 5b0:	00000014 	andeq	r0, r0, r4, lsl r0
 5b4:	000005a0 	andeq	r0, r0, r0, lsr #11
 5b8:	000097a8 	andeq	r9, r0, r8, lsr #15
 5bc:	0000001c 	andeq	r0, r0, ip, lsl r0
 5c0:	83080e42 	movwhi	r0, #36418	; 0x8e42
 5c4:	00018e02 	andeq	r8, r1, r2, lsl #28
 5c8:	00000018 	andeq	r0, r0, r8, lsl r0
 5cc:	000005a0 	andeq	r0, r0, r0, lsr #11
 5d0:	000097c4 	andeq	r9, r0, r4, asr #15
 5d4:	0000009c 	muleq	r0, ip, r0
 5d8:	83100e42 	tsthi	r0, #1056	; 0x420
 5dc:	85038404 	strhi	r8, [r3, #-1028]	; 0x404
 5e0:	00018e02 	andeq	r8, r1, r2, lsl #28
 5e4:	00000014 	andeq	r0, r0, r4, lsl r0
 5e8:	000005a0 	andeq	r0, r0, r0, lsr #11
 5ec:	00009860 	andeq	r9, r0, r0, ror #16
 5f0:	00000028 	andeq	r0, r0, r8, lsr #32
 5f4:	83080e42 	movwhi	r0, #36418	; 0x8e42
 5f8:	00018e02 	andeq	r8, r1, r2, lsl #28
 5fc:	00000014 	andeq	r0, r0, r4, lsl r0
 600:	000005a0 	andeq	r0, r0, r0, lsr #11
 604:	00009888 	andeq	r9, r0, r8, lsl #17
 608:	0000001c 	andeq	r0, r0, ip, lsl r0
 60c:	83080e42 	movwhi	r0, #36418	; 0x8e42
 610:	00018e02 	andeq	r8, r1, r2, lsl #28
 614:	00000014 	andeq	r0, r0, r4, lsl r0
 618:	000005a0 	andeq	r0, r0, r0, lsr #11
 61c:	000098a4 	andeq	r9, r0, r4, lsr #17
 620:	0000002c 	andeq	r0, r0, ip, lsr #32
 624:	84080e42 	strhi	r0, [r8], #-3650	; 0xe42
 628:	00018e02 	andeq	r8, r1, r2, lsl #28
 62c:	00000014 	andeq	r0, r0, r4, lsl r0
 630:	000005a0 	andeq	r0, r0, r0, lsr #11
 634:	000098d0 	ldrdeq	r9, [r0], -r0
 638:	0000000c 	andeq	r0, r0, ip
 63c:	83080e42 	movwhi	r0, #36418	; 0x8e42
 640:	00018e02 	andeq	r8, r1, r2, lsl #28
 644:	00000014 	andeq	r0, r0, r4, lsl r0
 648:	000005a0 	andeq	r0, r0, r0, lsr #11
 64c:	000098dc 	ldrdeq	r9, [r0], -ip
 650:	00000020 	andeq	r0, r0, r0, lsr #32
 654:	83080e42 	movwhi	r0, #36418	; 0x8e42
 658:	00018e02 	andeq	r8, r1, r2, lsl #28
 65c:	0000000c 	andeq	r0, r0, ip
 660:	ffffffff 			; <UNDEFINED> instruction: 0xffffffff
 664:	7c020001 	stcvc	0, cr0, [r2], {1}
 668:	000d0c0e 	andeq	r0, sp, lr, lsl #24
 66c:	00000014 	andeq	r0, r0, r4, lsl r0
 670:	0000065c 	andeq	r0, r0, ip, asr r6
 674:	000098fc 	strdeq	r9, [r0], -ip
 678:	00000014 	andeq	r0, r0, r4, lsl r0
 67c:	84080e42 	strhi	r0, [r8], #-3650	; 0xe42
 680:	00018e02 	andeq	r8, r1, r2, lsl #28
