
2-logic-analyzer.elf:     file format elf32-littlearm


Disassembly of section .text:

00008000 <_start>:
    8000:	e3a0d302 	mov	sp, #134217728	; 0x8000000
    8004:	e3a0b000 	mov	fp, #0
    8008:	eb000388 	bl	8e30 <_cstart>
    800c:	eb0003b6 	bl	8eec <rpi_reboot>

00008010 <sw_uart_putc>:
    8010:	e92d41f0 	push	{r4, r5, r6, r7, r8, lr}
    8014:	e1a07001 	mov	r7, r1
    8018:	e5d06000 	ldrb	r6, [r0]
    801c:	e5905008 	ldr	r5, [r0, #8]
    8020:	ee1f3f3c 	mrc	15, 0, r3, cr15, cr12, {1}
    8024:	ee1f4f3c 	mrc	15, 0, r4, cr15, cr12, {1}
    8028:	e1a00006 	mov	r0, r6
    802c:	e3a01000 	mov	r1, #0
    8030:	eb000478 	bl	9218 <gpio_write>
    8034:	ee1f3f3c 	mrc	15, 0, r3, cr15, cr12, {1}
    8038:	e0643003 	rsb	r3, r4, r3
    803c:	e1550003 	cmp	r5, r3
    8040:	8afffffb 	bhi	8034 <sw_uart_putc+0x24>
    8044:	e1a08085 	lsl	r8, r5, #1
    8048:	e1a00006 	mov	r0, r6
    804c:	e2071001 	and	r1, r7, #1
    8050:	eb000470 	bl	9218 <gpio_write>
    8054:	ee1f3f3c 	mrc	15, 0, r3, cr15, cr12, {1}
    8058:	e0643003 	rsb	r3, r4, r3
    805c:	e1580003 	cmp	r8, r3
    8060:	8afffffb 	bhi	8054 <sw_uart_putc+0x44>
    8064:	e0888005 	add	r8, r8, r5
    8068:	e1a00006 	mov	r0, r6
    806c:	e2071002 	and	r1, r7, #2
    8070:	eb000468 	bl	9218 <gpio_write>
    8074:	ee1f3f3c 	mrc	15, 0, r3, cr15, cr12, {1}
    8078:	e0643003 	rsb	r3, r4, r3
    807c:	e1580003 	cmp	r8, r3
    8080:	8afffffb 	bhi	8074 <sw_uart_putc+0x64>
    8084:	e0888005 	add	r8, r8, r5
    8088:	e1a00006 	mov	r0, r6
    808c:	e2071004 	and	r1, r7, #4
    8090:	eb000460 	bl	9218 <gpio_write>
    8094:	ee1f3f3c 	mrc	15, 0, r3, cr15, cr12, {1}
    8098:	e0643003 	rsb	r3, r4, r3
    809c:	e1580003 	cmp	r8, r3
    80a0:	8afffffb 	bhi	8094 <sw_uart_putc+0x84>
    80a4:	e0888005 	add	r8, r8, r5
    80a8:	e1a00006 	mov	r0, r6
    80ac:	e2071008 	and	r1, r7, #8
    80b0:	eb000458 	bl	9218 <gpio_write>
    80b4:	ee1f3f3c 	mrc	15, 0, r3, cr15, cr12, {1}
    80b8:	e0643003 	rsb	r3, r4, r3
    80bc:	e1580003 	cmp	r8, r3
    80c0:	8afffffb 	bhi	80b4 <sw_uart_putc+0xa4>
    80c4:	e0888005 	add	r8, r8, r5
    80c8:	e1a00006 	mov	r0, r6
    80cc:	e2071010 	and	r1, r7, #16
    80d0:	eb000450 	bl	9218 <gpio_write>
    80d4:	ee1f3f3c 	mrc	15, 0, r3, cr15, cr12, {1}
    80d8:	e0643003 	rsb	r3, r4, r3
    80dc:	e1580003 	cmp	r8, r3
    80e0:	8afffffb 	bhi	80d4 <sw_uart_putc+0xc4>
    80e4:	e0888005 	add	r8, r8, r5
    80e8:	e1a00006 	mov	r0, r6
    80ec:	e2071020 	and	r1, r7, #32
    80f0:	eb000448 	bl	9218 <gpio_write>
    80f4:	ee1f3f3c 	mrc	15, 0, r3, cr15, cr12, {1}
    80f8:	e0643003 	rsb	r3, r4, r3
    80fc:	e1580003 	cmp	r8, r3
    8100:	8afffffb 	bhi	80f4 <sw_uart_putc+0xe4>
    8104:	e0888005 	add	r8, r8, r5
    8108:	e1a00006 	mov	r0, r6
    810c:	e2071040 	and	r1, r7, #64	; 0x40
    8110:	eb000440 	bl	9218 <gpio_write>
    8114:	ee1f3f3c 	mrc	15, 0, r3, cr15, cr12, {1}
    8118:	e0643003 	rsb	r3, r4, r3
    811c:	e1580003 	cmp	r8, r3
    8120:	8afffffb 	bhi	8114 <sw_uart_putc+0x104>
    8124:	e0888005 	add	r8, r8, r5
    8128:	e1a00006 	mov	r0, r6
    812c:	e2071080 	and	r1, r7, #128	; 0x80
    8130:	eb000438 	bl	9218 <gpio_write>
    8134:	ee1f3f3c 	mrc	15, 0, r3, cr15, cr12, {1}
    8138:	e0643003 	rsb	r3, r4, r3
    813c:	e1580003 	cmp	r8, r3
    8140:	8afffffb 	bhi	8134 <sw_uart_putc+0x124>
    8144:	e0885005 	add	r5, r8, r5
    8148:	e1a00006 	mov	r0, r6
    814c:	e3a01001 	mov	r1, #1
    8150:	eb000430 	bl	9218 <gpio_write>
    8154:	ee1f3f3c 	mrc	15, 0, r3, cr15, cr12, {1}
    8158:	e0643003 	rsb	r3, r4, r3
    815c:	e1550003 	cmp	r5, r3
    8160:	8afffffb 	bhi	8154 <sw_uart_putc+0x144>
    8164:	e8bd81f0 	pop	{r4, r5, r6, r7, r8, pc}

00008168 <sw_uart_getc_timeout>:
    8168:	e92d43f8 	push	{r3, r4, r5, r6, r7, r8, r9, lr}
    816c:	e1a09000 	mov	r9, r0
    8170:	e5d07001 	ldrb	r7, [r0, #1]
    8174:	e1a05007 	mov	r5, r7
    8178:	e1a06001 	mov	r6, r1
    817c:	eb000373 	bl	8f50 <timer_get_usec_raw>
    8180:	e1a04000 	mov	r4, r0
    8184:	e1a00005 	mov	r0, r5
    8188:	eb00040f 	bl	91cc <gpio_read>
    818c:	e3500000 	cmp	r0, #0
    8190:	0a000005 	beq	81ac <sw_uart_getc_timeout+0x44>
    8194:	eb00036d 	bl	8f50 <timer_get_usec_raw>
    8198:	e0640000 	rsb	r0, r4, r0
    819c:	e1560000 	cmp	r6, r0
    81a0:	2afffff7 	bcs	8184 <sw_uart_getc_timeout+0x1c>
    81a4:	e3a03000 	mov	r3, #0
    81a8:	ea000000 	b	81b0 <sw_uart_getc_timeout+0x48>
    81ac:	e3a03001 	mov	r3, #1
    81b0:	e3530000 	cmp	r3, #0
    81b4:	0a000059 	beq	8320 <sw_uart_getc_timeout+0x1b8>
    81b8:	ee1f8f3c 	mrc	15, 0, r8, cr15, cr12, {1}
    81bc:	e5994008 	ldr	r4, [r9, #8]
    81c0:	e08420a4 	add	r2, r4, r4, lsr #1
    81c4:	ee1f3f3c 	mrc	15, 0, r3, cr15, cr12, {1}
    81c8:	e0683003 	rsb	r3, r8, r3
    81cc:	e1520003 	cmp	r2, r3
    81d0:	8afffffb 	bhi	81c4 <sw_uart_getc_timeout+0x5c>
    81d4:	e0888004 	add	r8, r8, r4
    81d8:	e1a00007 	mov	r0, r7
    81dc:	eb0003fa 	bl	91cc <gpio_read>
    81e0:	e1a09750 	asr	r9, r0, r7
    81e4:	ee1f3f3c 	mrc	15, 0, r3, cr15, cr12, {1}
    81e8:	e0683003 	rsb	r3, r8, r3
    81ec:	e1540003 	cmp	r4, r3
    81f0:	8afffffb 	bhi	81e4 <sw_uart_getc_timeout+0x7c>
    81f4:	e0888004 	add	r8, r8, r4
    81f8:	e1a00007 	mov	r0, r7
    81fc:	eb0003f2 	bl	91cc <gpio_read>
    8200:	e1a00750 	asr	r0, r0, r7
    8204:	e1899080 	orr	r9, r9, r0, lsl #1
    8208:	ee1f3f3c 	mrc	15, 0, r3, cr15, cr12, {1}
    820c:	e0683003 	rsb	r3, r8, r3
    8210:	e1540003 	cmp	r4, r3
    8214:	8afffffb 	bhi	8208 <sw_uart_getc_timeout+0xa0>
    8218:	e0888004 	add	r8, r8, r4
    821c:	e1a00007 	mov	r0, r7
    8220:	eb0003e9 	bl	91cc <gpio_read>
    8224:	e1a00750 	asr	r0, r0, r7
    8228:	e1899100 	orr	r9, r9, r0, lsl #2
    822c:	ee1f3f3c 	mrc	15, 0, r3, cr15, cr12, {1}
    8230:	e0683003 	rsb	r3, r8, r3
    8234:	e1540003 	cmp	r4, r3
    8238:	8afffffb 	bhi	822c <sw_uart_getc_timeout+0xc4>
    823c:	e0888004 	add	r8, r8, r4
    8240:	e1a00007 	mov	r0, r7
    8244:	eb0003e0 	bl	91cc <gpio_read>
    8248:	e1a00750 	asr	r0, r0, r7
    824c:	e1899180 	orr	r9, r9, r0, lsl #3
    8250:	ee1f3f3c 	mrc	15, 0, r3, cr15, cr12, {1}
    8254:	e0683003 	rsb	r3, r8, r3
    8258:	e1540003 	cmp	r4, r3
    825c:	8afffffb 	bhi	8250 <sw_uart_getc_timeout+0xe8>
    8260:	e0888004 	add	r8, r8, r4
    8264:	e1a00007 	mov	r0, r7
    8268:	eb0003d7 	bl	91cc <gpio_read>
    826c:	e1a00750 	asr	r0, r0, r7
    8270:	e1899200 	orr	r9, r9, r0, lsl #4
    8274:	ee1f3f3c 	mrc	15, 0, r3, cr15, cr12, {1}
    8278:	e0683003 	rsb	r3, r8, r3
    827c:	e1540003 	cmp	r4, r3
    8280:	8afffffb 	bhi	8274 <sw_uart_getc_timeout+0x10c>
    8284:	e0888004 	add	r8, r8, r4
    8288:	e1a00007 	mov	r0, r7
    828c:	eb0003ce 	bl	91cc <gpio_read>
    8290:	e1a00750 	asr	r0, r0, r7
    8294:	e1899280 	orr	r9, r9, r0, lsl #5
    8298:	ee1f3f3c 	mrc	15, 0, r3, cr15, cr12, {1}
    829c:	e0683003 	rsb	r3, r8, r3
    82a0:	e1540003 	cmp	r4, r3
    82a4:	8afffffb 	bhi	8298 <sw_uart_getc_timeout+0x130>
    82a8:	e0888004 	add	r8, r8, r4
    82ac:	e1a00007 	mov	r0, r7
    82b0:	eb0003c5 	bl	91cc <gpio_read>
    82b4:	e1a00750 	asr	r0, r0, r7
    82b8:	e1899300 	orr	r9, r9, r0, lsl #6
    82bc:	ee1f3f3c 	mrc	15, 0, r3, cr15, cr12, {1}
    82c0:	e0683003 	rsb	r3, r8, r3
    82c4:	e1540003 	cmp	r4, r3
    82c8:	8afffffb 	bhi	82bc <sw_uart_getc_timeout+0x154>
    82cc:	e1a00007 	mov	r0, r7
    82d0:	eb0003bd 	bl	91cc <gpio_read>
    82d4:	e1a00750 	asr	r0, r0, r7
    82d8:	e1899380 	orr	r9, r9, r0, lsl #7
    82dc:	eb00031b 	bl	8f50 <timer_get_usec_raw>
    82e0:	e1a04000 	mov	r4, r0
    82e4:	e1a00005 	mov	r0, r5
    82e8:	eb0003b7 	bl	91cc <gpio_read>
    82ec:	e3500000 	cmp	r0, #0
    82f0:	0a000005 	beq	830c <sw_uart_getc_timeout+0x1a4>
    82f4:	eb000315 	bl	8f50 <timer_get_usec_raw>
    82f8:	e0640000 	rsb	r0, r4, r0
    82fc:	e1560000 	cmp	r6, r0
    8300:	2afffff7 	bcs	82e4 <sw_uart_getc_timeout+0x17c>
    8304:	e3a03000 	mov	r3, #0
    8308:	ea000000 	b	8310 <sw_uart_getc_timeout+0x1a8>
    830c:	e3a03001 	mov	r3, #1
    8310:	e3530000 	cmp	r3, #0
    8314:	0a000003 	beq	8328 <sw_uart_getc_timeout+0x1c0>
    8318:	e1a00009 	mov	r0, r9
    831c:	e8bd83f8 	pop	{r3, r4, r5, r6, r7, r8, r9, pc}
    8320:	e3e00000 	mvn	r0, #0
    8324:	e8bd83f8 	pop	{r3, r4, r5, r6, r7, r8, r9, pc}
    8328:	e3e00000 	mvn	r0, #0
    832c:	e8bd83f8 	pop	{r3, r4, r5, r6, r7, r8, r9, pc}

00008330 <sw_uart_gets_until>:
    8330:	e92d47f0 	push	{r4, r5, r6, r7, r8, r9, sl, lr}
    8334:	e1a08000 	mov	r8, r0
    8338:	e1a06001 	mov	r6, r1
    833c:	e1a09003 	mov	r9, r3
    8340:	e59da020 	ldr	sl, [sp, #32]
    8344:	e3520000 	cmp	r2, #0
    8348:	1a000006 	bne	8368 <sw_uart_gets_until+0x38>
    834c:	eb000150 	bl	8894 <rpi_reset_putc>
    8350:	e59f005c 	ldr	r0, [pc, #92]	; 83b4 <sw_uart_gets_until+0x84>
    8354:	e59f105c 	ldr	r1, [pc, #92]	; 83b8 <sw_uart_gets_until+0x88>
    8358:	e59f205c 	ldr	r2, [pc, #92]	; 83bc <sw_uart_gets_until+0x8c>
    835c:	e3a03075 	mov	r3, #117	; 0x75
    8360:	eb000130 	bl	8828 <printk>
    8364:	eb00029f 	bl	8de8 <clean_reboot>
    8368:	e3a04000 	mov	r4, #0
    836c:	e5c14000 	strb	r4, [r1]
    8370:	e2427001 	sub	r7, r2, #1
    8374:	ea000007 	b	8398 <sw_uart_gets_until+0x68>
    8378:	e1a00008 	mov	r0, r8
    837c:	e1a0100a 	mov	r1, sl
    8380:	ebffff78 	bl	8168 <sw_uart_getc_timeout>
    8384:	e6ef0070 	uxtb	r0, r0
    8388:	e1500009 	cmp	r0, r9
    838c:	0a000004 	beq	83a4 <sw_uart_gets_until+0x74>
    8390:	e7c60005 	strb	r0, [r6, r5]
    8394:	e2844001 	add	r4, r4, #1
    8398:	e1a05004 	mov	r5, r4
    839c:	e1540007 	cmp	r4, r7
    83a0:	3afffff4 	bcc	8378 <sw_uart_gets_until+0x48>
    83a4:	e3a03000 	mov	r3, #0
    83a8:	e7c63005 	strb	r3, [r6, r5]
    83ac:	e1a00004 	mov	r0, r4
    83b0:	e8bd87f0 	pop	{r4, r5, r6, r7, r8, r9, sl, pc}
    83b4:	00009b94 	muleq	r0, r4, fp
    83b8:	00009bb0 			; <UNDEFINED> instruction: 0x00009bb0
    83bc:	00009b14 	andeq	r9, r0, r4, lsl fp

000083c0 <sw_uart_gets_timeout>:
    83c0:	e92d41f0 	push	{r4, r5, r6, r7, r8, lr}
    83c4:	e1a07000 	mov	r7, r0
    83c8:	e1a05001 	mov	r5, r1
    83cc:	e1a08003 	mov	r8, r3
    83d0:	e3520000 	cmp	r2, #0
    83d4:	1a000006 	bne	83f4 <sw_uart_gets_timeout+0x34>
    83d8:	eb00012d 	bl	8894 <rpi_reset_putc>
    83dc:	e59f004c 	ldr	r0, [pc, #76]	; 8430 <sw_uart_gets_timeout+0x70>
    83e0:	e59f104c 	ldr	r1, [pc, #76]	; 8434 <sw_uart_gets_timeout+0x74>
    83e4:	e59f204c 	ldr	r2, [pc, #76]	; 8438 <sw_uart_gets_timeout+0x78>
    83e8:	e3a0308b 	mov	r3, #139	; 0x8b
    83ec:	eb00010d 	bl	8828 <printk>
    83f0:	eb00027c 	bl	8de8 <clean_reboot>
    83f4:	e3a04000 	mov	r4, #0
    83f8:	e5c14000 	strb	r4, [r1]
    83fc:	e2426001 	sub	r6, r2, #1
    8400:	ea000004 	b	8418 <sw_uart_gets_timeout+0x58>
    8404:	e1a00007 	mov	r0, r7
    8408:	e1a01008 	mov	r1, r8
    840c:	ebffff55 	bl	8168 <sw_uart_getc_timeout>
    8410:	e7c50004 	strb	r0, [r5, r4]
    8414:	e2844001 	add	r4, r4, #1
    8418:	e1540006 	cmp	r4, r6
    841c:	3afffff8 	bcc	8404 <sw_uart_gets_timeout+0x44>
    8420:	e3a03000 	mov	r3, #0
    8424:	e7c53004 	strb	r3, [r5, r4]
    8428:	e1a00004 	mov	r0, r4
    842c:	e8bd81f0 	pop	{r4, r5, r6, r7, r8, pc}
    8430:	00009b94 	muleq	r0, r4, fp
    8434:	00009bb0 			; <UNDEFINED> instruction: 0x00009bb0
    8438:	00009b28 	andeq	r9, r0, r8, lsr #22

0000843c <sw_uart_init_helper>:
    843c:	e92d41f0 	push	{r4, r5, r6, r7, r8, lr}
    8440:	e1a04000 	mov	r4, r0
    8444:	e1a06001 	mov	r6, r1
    8448:	e1a08002 	mov	r8, r2
    844c:	e1a05003 	mov	r5, r3
    8450:	e59d7018 	ldr	r7, [sp, #24]
    8454:	e1a00001 	mov	r0, r1
    8458:	eb0002d7 	bl	8fbc <gpio_set_output>
    845c:	e1a00008 	mov	r0, r8
    8460:	eb000326 	bl	9100 <gpio_set_input>
    8464:	e1a00006 	mov	r0, r6
    8468:	e3a01001 	mov	r1, #1
    846c:	eb000369 	bl	9218 <gpio_write>
    8470:	e3a03001 	mov	r3, #1
    8474:	ee0f3f1c 	mcr	15, 0, r3, cr15, cr12, {0}
    8478:	e0020795 	mul	r2, r5, r7
    847c:	e59f3068 	ldr	r3, [pc, #104]	; 84ec <sw_uart_init_helper+0xb0>
    8480:	e0653003 	rsb	r3, r5, r3
    8484:	e1530002 	cmp	r3, r2
    8488:	8a000005 	bhi	84a4 <sw_uart_init_helper+0x68>
    848c:	e59f3058 	ldr	r3, [pc, #88]	; 84ec <sw_uart_init_helper+0xb0>
    8490:	e0853003 	add	r3, r5, r3
    8494:	e1530002 	cmp	r3, r2
    8498:	2a000003 	bcs	84ac <sw_uart_init_helper+0x70>
    849c:	e3a03000 	mov	r3, #0
    84a0:	ea000002 	b	84b0 <sw_uart_init_helper+0x74>
    84a4:	e3a03000 	mov	r3, #0
    84a8:	ea000000 	b	84b0 <sw_uart_init_helper+0x74>
    84ac:	e3a03001 	mov	r3, #1
    84b0:	e3530000 	cmp	r3, #0
    84b4:	1a000006 	bne	84d4 <sw_uart_init_helper+0x98>
    84b8:	eb0000f5 	bl	8894 <rpi_reset_putc>
    84bc:	e59f002c 	ldr	r0, [pc, #44]	; 84f0 <sw_uart_init_helper+0xb4>
    84c0:	e59f102c 	ldr	r1, [pc, #44]	; 84f4 <sw_uart_init_helper+0xb8>
    84c4:	e59f202c 	ldr	r2, [pc, #44]	; 84f8 <sw_uart_init_helper+0xbc>
    84c8:	e3a030a6 	mov	r3, #166	; 0xa6
    84cc:	eb0000d5 	bl	8828 <printk>
    84d0:	eb000244 	bl	8de8 <clean_reboot>
    84d4:	e5c46000 	strb	r6, [r4]
    84d8:	e5c48001 	strb	r8, [r4, #1]
    84dc:	e5845004 	str	r5, [r4, #4]
    84e0:	e5847008 	str	r7, [r4, #8]
    84e4:	e1a00004 	mov	r0, r4
    84e8:	e8bd81f0 	pop	{r4, r5, r6, r7, r8, pc}
    84ec:	29b92700 	ldmibcs	r9!, {r8, r9, sl, sp}
    84f0:	00009bc4 	andeq	r9, r0, r4, asr #23
    84f4:	00009bb0 			; <UNDEFINED> instruction: 0x00009bb0
    84f8:	00009b40 	andeq	r9, r0, r0, asr #22

000084fc <sw_uart_getc>:
    84fc:	e92d4008 	push	{r3, lr}
    8500:	e3e01000 	mvn	r1, #0
    8504:	ebffff17 	bl	8168 <sw_uart_getc_timeout>
    8508:	e3500000 	cmp	r0, #0
    850c:	a8bd8008 	popge	{r3, pc}
    8510:	eb0000df 	bl	8894 <rpi_reset_putc>
    8514:	e59f0010 	ldr	r0, [pc, #16]	; 852c <sw_uart_getc+0x30>
    8518:	e59f1010 	ldr	r1, [pc, #16]	; 8530 <sw_uart_getc+0x34>
    851c:	e59f2010 	ldr	r2, [pc, #16]	; 8534 <sw_uart_getc+0x38>
    8520:	e3a030b5 	mov	r3, #181	; 0xb5
    8524:	eb0000bf 	bl	8828 <printk>
    8528:	eb00022e 	bl	8de8 <clean_reboot>
    852c:	00009c08 	andeq	r9, r0, r8, lsl #24
    8530:	00009bb0 			; <UNDEFINED> instruction: 0x00009bb0
    8534:	00009b54 	andeq	r9, r0, r4, asr fp

00008538 <sw_uart_putk>:
    8538:	e92d4038 	push	{r3, r4, r5, lr}
    853c:	e1a05000 	mov	r5, r0
    8540:	e1a04001 	mov	r4, r1
    8544:	ea000002 	b	8554 <sw_uart_putk+0x1c>
    8548:	e1a00005 	mov	r0, r5
    854c:	ebfffeaf 	bl	8010 <sw_uart_putc>
    8550:	e2844001 	add	r4, r4, #1
    8554:	e5d41000 	ldrb	r1, [r4]
    8558:	e3510000 	cmp	r1, #0
    855c:	1afffff9 	bne	8548 <sw_uart_putk+0x10>
    8560:	e8bd8038 	pop	{r3, r4, r5, pc}

00008564 <sw_uart_printk>:
    8564:	e92d000e 	push	{r1, r2, r3}
    8568:	e92d4030 	push	{r4, r5, lr}
    856c:	e24dde1d 	sub	sp, sp, #464	; 0x1d0
    8570:	e1a05000 	mov	r5, r0
    8574:	e28d3e1e 	add	r3, sp, #480	; 0x1e0
    8578:	e58d3000 	str	r3, [sp]
    857c:	e28d0004 	add	r0, sp, #4
    8580:	e3a01f73 	mov	r1, #460	; 0x1cc
    8584:	e59d21dc 	ldr	r2, [sp, #476]	; 0x1dc
    8588:	eb000174 	bl	8b60 <va_printk>
    858c:	e1a04000 	mov	r4, r0
    8590:	e59f3040 	ldr	r3, [pc, #64]	; 85d8 <sw_uart_printk+0x74>
    8594:	e1500003 	cmp	r0, r3
    8598:	9a000006 	bls	85b8 <sw_uart_printk+0x54>
    859c:	eb0000bc 	bl	8894 <rpi_reset_putc>
    85a0:	e59f0034 	ldr	r0, [pc, #52]	; 85dc <sw_uart_printk+0x78>
    85a4:	e59f1034 	ldr	r1, [pc, #52]	; 85e0 <sw_uart_printk+0x7c>
    85a8:	e59f2034 	ldr	r2, [pc, #52]	; 85e4 <sw_uart_printk+0x80>
    85ac:	e3a030c9 	mov	r3, #201	; 0xc9
    85b0:	eb00009c 	bl	8828 <printk>
    85b4:	eb00020b 	bl	8de8 <clean_reboot>
    85b8:	e1a00005 	mov	r0, r5
    85bc:	e28d1004 	add	r1, sp, #4
    85c0:	ebffffdc 	bl	8538 <sw_uart_putk>
    85c4:	e1a00004 	mov	r0, r4
    85c8:	e28dde1d 	add	sp, sp, #464	; 0x1d0
    85cc:	e8bd4030 	pop	{r4, r5, lr}
    85d0:	e28dd00c 	add	sp, sp, #12
    85d4:	e12fff1e 	bx	lr
    85d8:	000001ca 	andeq	r0, r0, sl, asr #3
    85dc:	00009c40 	andeq	r9, r0, r0, asr #24
    85e0:	00009bb0 			; <UNDEFINED> instruction: 0x00009bb0
    85e4:	00009b64 	andeq	r9, r0, r4, ror #22

000085e8 <sw_uart_gets_until_blk>:
    85e8:	e52de004 	push	{lr}		; (str lr, [sp, #-4]!)
    85ec:	e24dd00c 	sub	sp, sp, #12
    85f0:	e3e0c000 	mvn	ip, #0
    85f4:	e58dc000 	str	ip, [sp]
    85f8:	ebffff4c 	bl	8330 <sw_uart_gets_until>
    85fc:	e3500000 	cmp	r0, #0
    8600:	aa000006 	bge	8620 <sw_uart_gets_until_blk+0x38>
    8604:	eb0000a2 	bl	8894 <rpi_reset_putc>
    8608:	e59f0018 	ldr	r0, [pc, #24]	; 8628 <sw_uart_gets_until_blk+0x40>
    860c:	e59f1018 	ldr	r1, [pc, #24]	; 862c <sw_uart_gets_until_blk+0x44>
    8610:	e59f2018 	ldr	r2, [pc, #24]	; 8630 <sw_uart_gets_until_blk+0x48>
    8614:	e3a030d1 	mov	r3, #209	; 0xd1
    8618:	eb000082 	bl	8828 <printk>
    861c:	eb0001f1 	bl	8de8 <clean_reboot>
    8620:	e28dd00c 	add	sp, sp, #12
    8624:	e49df004 	pop	{pc}		; (ldr pc, [sp], #4)
    8628:	00009c08 	andeq	r9, r0, r8, lsl #24
    862c:	00009bb0 			; <UNDEFINED> instruction: 0x00009bb0
    8630:	00009b74 	andeq	r9, r0, r4, ror fp

00008634 <interrupt_vector>:
    8634:	e92d4010 	push	{r4, lr}
    8638:	ee1f4f3c 	mrc	15, 0, r4, cr15, cr12, {1}
    863c:	eb0004a2 	bl	98cc <dev_barrier>
    8640:	e3a00031 	mov	r0, #49	; 0x31
    8644:	eb000347 	bl	9368 <is_gpio_int>
    8648:	e3500000 	cmp	r0, #0
    864c:	1a000003 	bne	8660 <interrupt_vector+0x2c>
    8650:	e3a00032 	mov	r0, #50	; 0x32
    8654:	eb000343 	bl	9368 <is_gpio_int>
    8658:	e3500000 	cmp	r0, #0
    865c:	0a000027 	beq	8700 <interrupt_vector+0xcc>
    8660:	e3a00014 	mov	r0, #20
    8664:	eb0002d8 	bl	91cc <gpio_read>
    8668:	e3500000 	cmp	r0, #0
    866c:	1a00000f 	bne	86b0 <interrupt_vector+0x7c>
    8670:	e59f30a0 	ldr	r3, [pc, #160]	; 8718 <interrupt_vector+0xe4>
    8674:	e5932000 	ldr	r2, [r3]
    8678:	e2822001 	add	r2, r2, #1
    867c:	e5832000 	str	r2, [r3]
    8680:	e5931004 	ldr	r1, [r3, #4]
    8684:	e59f2090 	ldr	r2, [pc, #144]	; 871c <interrupt_vector+0xe8>
    8688:	e7820181 	str	r0, [r2, r1, lsl #3]
    868c:	e5930004 	ldr	r0, [r3, #4]
    8690:	e5931008 	ldr	r1, [r3, #8]
    8694:	e0641001 	rsb	r1, r4, r1
    8698:	e0822180 	add	r2, r2, r0, lsl #3
    869c:	e5821004 	str	r1, [r2, #4]
    86a0:	e5932004 	ldr	r2, [r3, #4]
    86a4:	e2822001 	add	r2, r2, #1
    86a8:	e5832004 	str	r2, [r3, #4]
    86ac:	ea000013 	b	8700 <interrupt_vector+0xcc>
    86b0:	e3a00014 	mov	r0, #20
    86b4:	eb0002c4 	bl	91cc <gpio_read>
    86b8:	e3500000 	cmp	r0, #0
    86bc:	da00000f 	ble	8700 <interrupt_vector+0xcc>
    86c0:	e59f3050 	ldr	r3, [pc, #80]	; 8718 <interrupt_vector+0xe4>
    86c4:	e593200c 	ldr	r2, [r3, #12]
    86c8:	e2822001 	add	r2, r2, #1
    86cc:	e583200c 	str	r2, [r3, #12]
    86d0:	e5931004 	ldr	r1, [r3, #4]
    86d4:	e59f2040 	ldr	r2, [pc, #64]	; 871c <interrupt_vector+0xe8>
    86d8:	e3a00001 	mov	r0, #1
    86dc:	e7820181 	str	r0, [r2, r1, lsl #3]
    86e0:	e5930004 	ldr	r0, [r3, #4]
    86e4:	e5931008 	ldr	r1, [r3, #8]
    86e8:	e0641001 	rsb	r1, r4, r1
    86ec:	e0822180 	add	r2, r2, r0, lsl #3
    86f0:	e5821004 	str	r1, [r2, #4]
    86f4:	e5932004 	ldr	r2, [r3, #4]
    86f8:	e2822001 	add	r2, r2, #1
    86fc:	e5832004 	str	r2, [r3, #4]
    8700:	e59f3010 	ldr	r3, [pc, #16]	; 8718 <interrupt_vector+0xe4>
    8704:	e5834008 	str	r4, [r3, #8]
    8708:	e3a00014 	mov	r0, #20
    870c:	eb000383 	bl	9520 <gpio_event_clear>
    8710:	eb00046d 	bl	98cc <dev_barrier>
    8714:	e8bd8010 	pop	{r4, pc}
    8718:	00009f44 	andeq	r9, r0, r4, asr #30
    871c:	0000a364 	andeq	sl, r0, r4, ror #6

00008720 <notmain>:
    8720:	e92d40f0 	push	{r4, r5, r6, r7, lr}
    8724:	e24dd01c 	sub	sp, sp, #28
    8728:	eb000392 	bl	9578 <uart_init>
    872c:	e3a03001 	mov	r3, #1
    8730:	ee0f3f1c 	mcr	15, 0, r3, cr15, cr12, {0}
    8734:	eb0003e4 	bl	96cc <int_init>
    8738:	e59f30c0 	ldr	r3, [pc, #192]	; 8800 <notmain+0xe0>
    873c:	e58d3000 	str	r3, [sp]
    8740:	e28d000c 	add	r0, sp, #12
    8744:	e3a01015 	mov	r1, #21
    8748:	e3a02014 	mov	r2, #20
    874c:	e59f30b0 	ldr	r3, [pc, #176]	; 8804 <notmain+0xe4>
    8750:	ebffff39 	bl	843c <sw_uart_init_helper>
    8754:	e3a00014 	mov	r0, #20
    8758:	eb00030d 	bl	9394 <gpio_int_rising_edge>
    875c:	e3a00014 	mov	r0, #20
    8760:	eb00032c 	bl	9418 <gpio_int_falling_edge>
    8764:	eb000471 	bl	9930 <system_enable_interrupts>
    8768:	e3a00014 	mov	r0, #20
    876c:	eb000296 	bl	91cc <gpio_read>
    8770:	e1a00a40 	asr	r0, r0, #20
    8774:	e3500001 	cmp	r0, #1
    8778:	0a000006 	beq	8798 <notmain+0x78>
    877c:	eb000044 	bl	8894 <rpi_reset_putc>
    8780:	e59f0080 	ldr	r0, [pc, #128]	; 8808 <notmain+0xe8>
    8784:	e59f1080 	ldr	r1, [pc, #128]	; 880c <notmain+0xec>
    8788:	e59f2080 	ldr	r2, [pc, #128]	; 8810 <notmain+0xf0>
    878c:	e3a03f43 	mov	r3, #268	; 0x10c
    8790:	eb000024 	bl	8828 <printk>
    8794:	eb000193 	bl	8de8 <clean_reboot>
    8798:	e28d000c 	add	r0, sp, #12
    879c:	e3a01055 	mov	r1, #85	; 0x55
    87a0:	ebfffe1a 	bl	8010 <sw_uart_putc>
    87a4:	e3a00064 	mov	r0, #100	; 0x64
    87a8:	eb0001f9 	bl	8f94 <delay_ms>
    87ac:	e59f3060 	ldr	r3, [pc, #96]	; 8814 <notmain+0xf4>
    87b0:	e5931004 	ldr	r1, [r3, #4]
    87b4:	e59f005c 	ldr	r0, [pc, #92]	; 8818 <notmain+0xf8>
    87b8:	eb00001a 	bl	8828 <printk>
    87bc:	e3a05000 	mov	r5, #0
    87c0:	e59f4054 	ldr	r4, [pc, #84]	; 881c <notmain+0xfc>
    87c4:	e59f6048 	ldr	r6, [pc, #72]	; 8814 <notmain+0xf4>
    87c8:	e59f7050 	ldr	r7, [pc, #80]	; 8820 <notmain+0x100>
    87cc:	ea000005 	b	87e8 <notmain+0xc8>
    87d0:	e1a00007 	mov	r0, r7
    87d4:	e5941000 	ldr	r1, [r4]
    87d8:	e5942004 	ldr	r2, [r4, #4]
    87dc:	eb000011 	bl	8828 <printk>
    87e0:	e2855001 	add	r5, r5, #1
    87e4:	e2844008 	add	r4, r4, #8
    87e8:	e5963004 	ldr	r3, [r6, #4]
    87ec:	e1550003 	cmp	r5, r3
    87f0:	3afffff6 	bcc	87d0 <notmain+0xb0>
    87f4:	e59f0028 	ldr	r0, [pc, #40]	; 8824 <notmain+0x104>
    87f8:	eb00000a 	bl	8828 <printk>
    87fc:	eb000179 	bl	8de8 <clean_reboot>
    8800:	000017bc 			; <UNDEFINED> instruction: 0x000017bc
    8804:	0001c200 	andeq	ip, r1, r0, lsl #4
    8808:	00009c64 	andeq	r9, r0, r4, ror #24
    880c:	00009bb0 			; <UNDEFINED> instruction: 0x00009bb0
    8810:	00009b8c 	andeq	r9, r0, ip, lsl #23
    8814:	00009f44 	andeq	r9, r0, r4, asr #30
    8818:	00009c94 	muleq	r0, r4, ip
    881c:	0000a364 	andeq	sl, r0, r4, ror #6
    8820:	00009ca0 	andeq	r9, r0, r0, lsr #25
    8824:	00009cb0 			; <UNDEFINED> instruction: 0x00009cb0

00008828 <printk>:
    8828:	e92d000f 	push	{r0, r1, r2, r3}
    882c:	e92d4030 	push	{r4, r5, lr}
    8830:	e24dd00c 	sub	sp, sp, #12
    8834:	e28d301c 	add	r3, sp, #28
    8838:	e58d3004 	str	r3, [sp, #4]
    883c:	e59f4034 	ldr	r4, [pc, #52]	; 8878 <printk+0x50>
    8840:	e1a00004 	mov	r0, r4
    8844:	e3a01b01 	mov	r1, #1024	; 0x400
    8848:	e59d2018 	ldr	r2, [sp, #24]
    884c:	eb0000c3 	bl	8b60 <va_printk>
    8850:	e1a05000 	mov	r5, r0
    8854:	e59f3020 	ldr	r3, [pc, #32]	; 887c <printk+0x54>
    8858:	e5933000 	ldr	r3, [r3]
    885c:	e1a00004 	mov	r0, r4
    8860:	e12fff33 	blx	r3
    8864:	e1a00005 	mov	r0, r5
    8868:	e28dd00c 	add	sp, sp, #12
    886c:	e8bd4030 	pop	{r4, r5, lr}
    8870:	e28dd010 	add	sp, sp, #16
    8874:	e12fff1e 	bx	lr
    8878:	00009f54 	andeq	r9, r0, r4, asr pc
    887c:	00009a7c 	andeq	r9, r0, ip, ror sl

00008880 <internal_putchar>:
    8880:	e92d4010 	push	{r4, lr}
    8884:	e1a04000 	mov	r4, r0
    8888:	eb000379 	bl	9674 <uart_putc>
    888c:	e1a00004 	mov	r0, r4
    8890:	e8bd8010 	pop	{r4, pc}

00008894 <rpi_reset_putc>:
    8894:	e59f2008 	ldr	r2, [pc, #8]	; 88a4 <rpi_reset_putc+0x10>
    8898:	e59f3008 	ldr	r3, [pc, #8]	; 88a8 <rpi_reset_putc+0x14>
    889c:	e5832000 	str	r2, [r3]
    88a0:	e12fff1e 	bx	lr
    88a4:	00008880 	andeq	r8, r0, r0, lsl #17
    88a8:	00009a78 	andeq	r9, r0, r8, ror sl

000088ac <rpi_set_putc>:
    88ac:	e59f3004 	ldr	r3, [pc, #4]	; 88b8 <rpi_set_putc+0xc>
    88b0:	e5830000 	str	r0, [r3]
    88b4:	e12fff1e 	bx	lr
    88b8:	00009a78 	andeq	r9, r0, r8, ror sl

000088bc <internal_putk>:
    88bc:	e92d4038 	push	{r3, r4, r5, lr}
    88c0:	e1a04000 	mov	r4, r0
    88c4:	e59f5020 	ldr	r5, [pc, #32]	; 88ec <internal_putk+0x30>
    88c8:	ea000002 	b	88d8 <internal_putk+0x1c>
    88cc:	e5953000 	ldr	r3, [r5]
    88d0:	e12fff33 	blx	r3
    88d4:	e2844001 	add	r4, r4, #1
    88d8:	e5d40000 	ldrb	r0, [r4]
    88dc:	e3500000 	cmp	r0, #0
    88e0:	1afffff9 	bne	88cc <internal_putk+0x10>
    88e4:	e3a00001 	mov	r0, #1
    88e8:	e8bd8038 	pop	{r3, r4, r5, pc}
    88ec:	00009a78 	andeq	r9, r0, r8, ror sl

000088f0 <isdigit>:
    88f0:	e2400030 	sub	r0, r0, #48	; 0x30
    88f4:	e3500009 	cmp	r0, #9
    88f8:	83a00000 	movhi	r0, #0
    88fc:	93a00001 	movls	r0, #1
    8900:	e12fff1e 	bx	lr

00008904 <pad>:
    8904:	e0611000 	rsb	r1, r1, r0
    8908:	e3a03020 	mov	r3, #32
    890c:	ea000002 	b	891c <pad+0x18>
    8910:	e5c03000 	strb	r3, [r0]
    8914:	e2811001 	add	r1, r1, #1
    8918:	e2800001 	add	r0, r0, #1
    891c:	e1510002 	cmp	r1, r2
    8920:	bafffffa 	blt	8910 <pad+0xc>
    8924:	e3a03000 	mov	r3, #0
    8928:	e5c03000 	strb	r3, [r0]
    892c:	e12fff1e 	bx	lr

00008930 <reverse>:
    8930:	e063c002 	rsb	ip, r3, r2
    8934:	e28cc001 	add	ip, ip, #1
    8938:	e15c0001 	cmp	ip, r1
    893c:	c061100c 	rsbgt	r1, r1, ip
    8940:	c0833001 	addgt	r3, r3, r1
    8944:	e2422001 	sub	r2, r2, #1
    8948:	e1a01000 	mov	r1, r0
    894c:	ea000002 	b	895c <reverse+0x2c>
    8950:	e452c001 	ldrb	ip, [r2], #-1
    8954:	e5c1c000 	strb	ip, [r1]
    8958:	e2811001 	add	r1, r1, #1
    895c:	e1520003 	cmp	r2, r3
    8960:	2afffffa 	bcs	8950 <reverse+0x20>
    8964:	e3a03000 	mov	r3, #0
    8968:	e5c13000 	strb	r3, [r1]
    896c:	e12fff1e 	bx	lr

00008970 <emit>:
    8970:	e92d41f0 	push	{r4, r5, r6, r7, r8, lr}
    8974:	e24dd040 	sub	sp, sp, #64	; 0x40
    8978:	e1a05001 	mov	r5, r1
    897c:	e1a04002 	mov	r4, r2
    8980:	e59d2058 	ldr	r2, [sp, #88]	; 0x58
    8984:	e1520004 	cmp	r2, r4
    8988:	c2442001 	subgt	r2, r4, #1
    898c:	e1a0c003 	mov	ip, r3
    8990:	e2400002 	sub	r0, r0, #2
    8994:	e350000e 	cmp	r0, #14
    8998:	979ff100 	ldrls	pc, [pc, r0, lsl #2]
    899c:	ea000042 	b	8aac <emit+0x13c>
    89a0:	00008a84 	andeq	r8, r0, r4, lsl #21
    89a4:	00008aac 	andeq	r8, r0, ip, lsr #21
    89a8:	00008aac 	andeq	r8, r0, ip, lsr #21
    89ac:	00008aac 	andeq	r8, r0, ip, lsr #21
    89b0:	00008aac 	andeq	r8, r0, ip, lsr #21
    89b4:	00008aac 	andeq	r8, r0, ip, lsr #21
    89b8:	00008a78 	andeq	r8, r0, r8, ror sl
    89bc:	00008aac 	andeq	r8, r0, ip, lsr #21
    89c0:	000089dc 	ldrdeq	r8, [r0], -ip
    89c4:	00008aac 	andeq	r8, r0, ip, lsr #21
    89c8:	00008aac 	andeq	r8, r0, ip, lsr #21
    89cc:	00008aac 	andeq	r8, r0, ip, lsr #21
    89d0:	00008aac 	andeq	r8, r0, ip, lsr #21
    89d4:	00008aac 	andeq	r8, r0, ip, lsr #21
    89d8:	00008a50 	andeq	r8, r0, r0, asr sl
    89dc:	e59d105c 	ldr	r1, [sp, #92]	; 0x5c
    89e0:	e2911000 	adds	r1, r1, #0
    89e4:	13a01001 	movne	r1, #1
    89e8:	e0111fa3 	ands	r1, r1, r3, lsr #31
    89ec:	1263c000 	rsbne	ip, r3, #0
    89f0:	13a08001 	movne	r8, #1
    89f4:	03a08000 	moveq	r8, #0
    89f8:	e1a0100d 	mov	r1, sp
    89fc:	e59f70ec 	ldr	r7, [pc, #236]	; 8af0 <emit+0x180>
    8a00:	e59f60ec 	ldr	r6, [pc, #236]	; 8af4 <emit+0x184>
    8a04:	ea000000 	b	8a0c <emit+0x9c>
    8a08:	e1a01003 	mov	r1, r3
    8a0c:	e2813001 	add	r3, r1, #1
    8a10:	e08e0c97 	umull	r0, lr, r7, ip
    8a14:	e1a0e1ae 	lsr	lr, lr, #3
    8a18:	e1a0000e 	mov	r0, lr
    8a1c:	e08ee10e 	add	lr, lr, lr, lsl #2
    8a20:	e1a0e08e 	lsl	lr, lr, #1
    8a24:	e06ee00c 	rsb	lr, lr, ip
    8a28:	e7d6c00e 	ldrb	ip, [r6, lr]
    8a2c:	e5c1c000 	strb	ip, [r1]
    8a30:	e1a0c000 	mov	ip, r0
    8a34:	e3500000 	cmp	r0, #0
    8a38:	1afffff2 	bne	8a08 <emit+0x98>
    8a3c:	e3580000 	cmp	r8, #0
    8a40:	12813002 	addne	r3, r1, #2
    8a44:	13a0002d 	movne	r0, #45	; 0x2d
    8a48:	15c10001 	strbne	r0, [r1, #1]
    8a4c:	ea00001d 	b	8ac8 <emit+0x158>
    8a50:	e1a0e00d 	mov	lr, sp
    8a54:	e59f009c 	ldr	r0, [pc, #156]	; 8af8 <emit+0x188>
    8a58:	e28e3001 	add	r3, lr, #1
    8a5c:	e20c100f 	and	r1, ip, #15
    8a60:	e7d01001 	ldrb	r1, [r0, r1]
    8a64:	e5ce1000 	strb	r1, [lr]
    8a68:	e1a0e003 	mov	lr, r3
    8a6c:	e1b0c22c 	lsrs	ip, ip, #4
    8a70:	1afffff8 	bne	8a58 <emit+0xe8>
    8a74:	ea000013 	b	8ac8 <emit+0x158>
    8a78:	e5cd3000 	strb	r3, [sp]
    8a7c:	e28d3001 	add	r3, sp, #1
    8a80:	ea000010 	b	8ac8 <emit+0x158>
    8a84:	e1a0e00d 	mov	lr, sp
    8a88:	e59f006c 	ldr	r0, [pc, #108]	; 8afc <emit+0x18c>
    8a8c:	e28e3001 	add	r3, lr, #1
    8a90:	e20c1001 	and	r1, ip, #1
    8a94:	e7d01001 	ldrb	r1, [r0, r1]
    8a98:	e5ce1000 	strb	r1, [lr]
    8a9c:	e1a0e003 	mov	lr, r3
    8aa0:	e1b0c0ac 	lsrs	ip, ip, #1
    8aa4:	1afffff8 	bne	8a8c <emit+0x11c>
    8aa8:	ea000006 	b	8ac8 <emit+0x158>
    8aac:	ebffff78 	bl	8894 <rpi_reset_putc>
    8ab0:	e59f0048 	ldr	r0, [pc, #72]	; 8b00 <emit+0x190>
    8ab4:	e59f1048 	ldr	r1, [pc, #72]	; 8b04 <emit+0x194>
    8ab8:	e59f2048 	ldr	r2, [pc, #72]	; 8b08 <emit+0x198>
    8abc:	e3a03075 	mov	r3, #117	; 0x75
    8ac0:	ebffff58 	bl	8828 <printk>
    8ac4:	eb0000c7 	bl	8de8 <clean_reboot>
    8ac8:	e1a00003 	mov	r0, r3
    8acc:	e1a0100d 	mov	r1, sp
    8ad0:	ebffff8b 	bl	8904 <pad>
    8ad4:	e1a02000 	mov	r2, r0
    8ad8:	e1a00005 	mov	r0, r5
    8adc:	e1a01004 	mov	r1, r4
    8ae0:	e1a0300d 	mov	r3, sp
    8ae4:	ebffff91 	bl	8930 <reverse>
    8ae8:	e28dd040 	add	sp, sp, #64	; 0x40
    8aec:	e8bd81f0 	pop	{r4, r5, r6, r7, r8, pc}
    8af0:	cccccccd 	stclgt	12, cr12, [ip], {205}	; 0xcd
    8af4:	00009d08 	andeq	r9, r0, r8, lsl #26
    8af8:	00009d14 	andeq	r9, r0, r4, lsl sp
    8afc:	00009d28 	andeq	r9, r0, r8, lsr #26
    8b00:	00009ce0 	andeq	r9, r0, r0, ror #25
    8b04:	00009cf4 	strdeq	r9, [r0], -r4
    8b08:	00009cbc 			; <UNDEFINED> instruction: 0x00009cbc

00008b0c <rpi_set_output>:
    8b0c:	e92d4008 	push	{r3, lr}
    8b10:	e3500000 	cmp	r0, #0
    8b14:	1a000006 	bne	8b34 <rpi_set_output+0x28>
    8b18:	ebffff5d 	bl	8894 <rpi_reset_putc>
    8b1c:	e59f0028 	ldr	r0, [pc, #40]	; 8b4c <rpi_set_output+0x40>
    8b20:	e59f1028 	ldr	r1, [pc, #40]	; 8b50 <rpi_set_output+0x44>
    8b24:	e59f2028 	ldr	r2, [pc, #40]	; 8b54 <rpi_set_output+0x48>
    8b28:	e3a03020 	mov	r3, #32
    8b2c:	ebffff3d 	bl	8828 <printk>
    8b30:	eb0000ac 	bl	8de8 <clean_reboot>
    8b34:	e59f301c 	ldr	r3, [pc, #28]	; 8b58 <rpi_set_output+0x4c>
    8b38:	e5830000 	str	r0, [r3]
    8b3c:	e3510000 	cmp	r1, #0
    8b40:	159f3014 	ldrne	r3, [pc, #20]	; 8b5c <rpi_set_output+0x50>
    8b44:	15831000 	strne	r1, [r3]
    8b48:	e8bd8008 	pop	{r3, pc}
    8b4c:	00009d2c 	andeq	r9, r0, ip, lsr #26
    8b50:	00009cf4 	strdeq	r9, [r0], -r4
    8b54:	00009cc4 	andeq	r9, r0, r4, asr #25
    8b58:	00009a78 	andeq	r9, r0, r8, ror sl
    8b5c:	00009a7c 	andeq	r9, r0, ip, ror sl

00008b60 <va_printk>:
    8b60:	e92d4ff0 	push	{r4, r5, r6, r7, r8, r9, sl, fp, lr}
    8b64:	e24dd08c 	sub	sp, sp, #140	; 0x8c
    8b68:	e1a0a000 	mov	sl, r0
    8b6c:	e1a09003 	mov	r9, r3
    8b70:	e2411001 	sub	r1, r1, #1
    8b74:	e0808001 	add	r8, r0, r1
    8b78:	e3a03000 	mov	r3, #0
    8b7c:	e5c03000 	strb	r3, [r0]
    8b80:	e1a04000 	mov	r4, r0
    8b84:	e1a0b003 	mov	fp, r3
    8b88:	ea000086 	b	8da8 <va_printk+0x248>
    8b8c:	e3530025 	cmp	r3, #37	; 0x25
    8b90:	12822001 	addne	r2, r2, #1
    8b94:	15c43000 	strbne	r3, [r4]
    8b98:	12844001 	addne	r4, r4, #1
    8b9c:	1a000081 	bne	8da8 <va_printk+0x248>
    8ba0:	e5d21001 	ldrb	r1, [r2, #1]
    8ba4:	e3510025 	cmp	r1, #37	; 0x25
    8ba8:	05c43000 	strbeq	r3, [r4]
    8bac:	02822002 	addeq	r2, r2, #2
    8bb0:	02844001 	addeq	r4, r4, #1
    8bb4:	0a00007b 	beq	8da8 <va_printk+0x248>
    8bb8:	e2826001 	add	r6, r2, #1
    8bbc:	e1a0700b 	mov	r7, fp
    8bc0:	ea000004 	b	8bd8 <va_printk+0x78>
    8bc4:	e0877107 	add	r7, r7, r7, lsl #2
    8bc8:	e1a07087 	lsl	r7, r7, #1
    8bcc:	e0877005 	add	r7, r7, r5
    8bd0:	e2477030 	sub	r7, r7, #48	; 0x30
    8bd4:	e2866001 	add	r6, r6, #1
    8bd8:	e5d65000 	ldrb	r5, [r6]
    8bdc:	e1a00005 	mov	r0, r5
    8be0:	ebffff42 	bl	88f0 <isdigit>
    8be4:	e3500000 	cmp	r0, #0
    8be8:	1afffff5 	bne	8bc4 <va_printk+0x64>
    8bec:	e357001f 	cmp	r7, #31
    8bf0:	9a000006 	bls	8c10 <va_printk+0xb0>
    8bf4:	ebffff26 	bl	8894 <rpi_reset_putc>
    8bf8:	e59f01d4 	ldr	r0, [pc, #468]	; 8dd4 <va_printk+0x274>
    8bfc:	e59f11d4 	ldr	r1, [pc, #468]	; 8dd8 <va_printk+0x278>
    8c00:	e59f21d4 	ldr	r2, [pc, #468]	; 8ddc <va_printk+0x27c>
    8c04:	e3a03092 	mov	r3, #146	; 0x92
    8c08:	ebffff06 	bl	8828 <printk>
    8c0c:	eb000075 	bl	8de8 <clean_reboot>
    8c10:	e2455062 	sub	r5, r5, #98	; 0x62
    8c14:	e3550016 	cmp	r5, #22
    8c18:	979ff105 	ldrls	pc, [pc, r5, lsl #2]
    8c1c:	ea00004e 	b	8d5c <va_printk+0x1fc>
    8c20:	00008d08 	andeq	r8, r0, r8, lsl #26
    8c24:	00008d38 	andeq	r8, r0, r8, lsr sp
    8c28:	00008c98 	muleq	r0, r8, ip
    8c2c:	00008d5c 	andeq	r8, r0, ip, asr sp
    8c30:	00008c7c 	andeq	r8, r0, ip, ror ip
    8c34:	00008d5c 	andeq	r8, r0, ip, asr sp
    8c38:	00008d5c 	andeq	r8, r0, ip, asr sp
    8c3c:	00008d5c 	andeq	r8, r0, ip, asr sp
    8c40:	00008d5c 	andeq	r8, r0, ip, asr sp
    8c44:	00008d5c 	andeq	r8, r0, ip, asr sp
    8c48:	00008d5c 	andeq	r8, r0, ip, asr sp
    8c4c:	00008d5c 	andeq	r8, r0, ip, asr sp
    8c50:	00008d5c 	andeq	r8, r0, ip, asr sp
    8c54:	00008d5c 	andeq	r8, r0, ip, asr sp
    8c58:	00008ce4 	andeq	r8, r0, r4, ror #25
    8c5c:	00008d5c 	andeq	r8, r0, ip, asr sp
    8c60:	00008d5c 	andeq	r8, r0, ip, asr sp
    8c64:	00008d2c 	andeq	r8, r0, ip, lsr #26
    8c68:	00008d5c 	andeq	r8, r0, ip, asr sp
    8c6c:	00008cc0 	andeq	r8, r0, r0, asr #25
    8c70:	00008d5c 	andeq	r8, r0, ip, asr sp
    8c74:	00008d5c 	andeq	r8, r0, ip, asr sp
    8c78:	00008ce4 	andeq	r8, r0, r4, ror #25
    8c7c:	ebffff04 	bl	8894 <rpi_reset_putc>
    8c80:	e59f0158 	ldr	r0, [pc, #344]	; 8de0 <va_printk+0x280>
    8c84:	e59f114c 	ldr	r1, [pc, #332]	; 8dd8 <va_printk+0x278>
    8c88:	e59f214c 	ldr	r2, [pc, #332]	; 8ddc <va_printk+0x27c>
    8c8c:	e3a03098 	mov	r3, #152	; 0x98
    8c90:	ebfffee4 	bl	8828 <printk>
    8c94:	eb000053 	bl	8de8 <clean_reboot>
    8c98:	e5993000 	ldr	r3, [r9]
    8c9c:	e2899004 	add	r9, r9, #4
    8ca0:	e58d7000 	str	r7, [sp]
    8ca4:	e3a02001 	mov	r2, #1
    8ca8:	e58d2004 	str	r2, [sp, #4]
    8cac:	e3a0000a 	mov	r0, #10
    8cb0:	e28d1008 	add	r1, sp, #8
    8cb4:	e3a02080 	mov	r2, #128	; 0x80
    8cb8:	ebffff2c 	bl	8970 <emit>
    8cbc:	ea00002f 	b	8d80 <va_printk+0x220>
    8cc0:	e5993000 	ldr	r3, [r9]
    8cc4:	e2899004 	add	r9, r9, #4
    8cc8:	e58d7000 	str	r7, [sp]
    8ccc:	e58db004 	str	fp, [sp, #4]
    8cd0:	e3a0000a 	mov	r0, #10
    8cd4:	e28d1008 	add	r1, sp, #8
    8cd8:	e3a02080 	mov	r2, #128	; 0x80
    8cdc:	ebffff23 	bl	8970 <emit>
    8ce0:	ea000026 	b	8d80 <va_printk+0x220>
    8ce4:	e5993000 	ldr	r3, [r9]
    8ce8:	e2899004 	add	r9, r9, #4
    8cec:	e58d7000 	str	r7, [sp]
    8cf0:	e58db004 	str	fp, [sp, #4]
    8cf4:	e3a00010 	mov	r0, #16
    8cf8:	e28d1008 	add	r1, sp, #8
    8cfc:	e3a02080 	mov	r2, #128	; 0x80
    8d00:	ebffff1a 	bl	8970 <emit>
    8d04:	ea00001d 	b	8d80 <va_printk+0x220>
    8d08:	e5993000 	ldr	r3, [r9]
    8d0c:	e2899004 	add	r9, r9, #4
    8d10:	e58d7000 	str	r7, [sp]
    8d14:	e58db004 	str	fp, [sp, #4]
    8d18:	e3a00002 	mov	r0, #2
    8d1c:	e28d1008 	add	r1, sp, #8
    8d20:	e3a02080 	mov	r2, #128	; 0x80
    8d24:	ebffff11 	bl	8970 <emit>
    8d28:	ea000014 	b	8d80 <va_printk+0x220>
    8d2c:	e5990000 	ldr	r0, [r9]
    8d30:	e2899004 	add	r9, r9, #4
    8d34:	ea000011 	b	8d80 <va_printk+0x220>
    8d38:	e5993000 	ldr	r3, [r9]
    8d3c:	e2899004 	add	r9, r9, #4
    8d40:	e58d7000 	str	r7, [sp]
    8d44:	e58db004 	str	fp, [sp, #4]
    8d48:	e3a00008 	mov	r0, #8
    8d4c:	e08d1000 	add	r1, sp, r0
    8d50:	e3a02080 	mov	r2, #128	; 0x80
    8d54:	ebffff05 	bl	8970 <emit>
    8d58:	ea000008 	b	8d80 <va_printk+0x220>
    8d5c:	ebfffecc 	bl	8894 <rpi_reset_putc>
    8d60:	e5d63000 	ldrb	r3, [r6]
    8d64:	e58d3000 	str	r3, [sp]
    8d68:	e59f0074 	ldr	r0, [pc, #116]	; 8de4 <va_printk+0x284>
    8d6c:	e59f1064 	ldr	r1, [pc, #100]	; 8dd8 <va_printk+0x278>
    8d70:	e59f2064 	ldr	r2, [pc, #100]	; 8ddc <va_printk+0x27c>
    8d74:	e3a030b9 	mov	r3, #185	; 0xb9
    8d78:	ebfffeaa 	bl	8828 <printk>
    8d7c:	eb000019 	bl	8de8 <clean_reboot>
    8d80:	e2862001 	add	r2, r6, #1
    8d84:	ea000002 	b	8d94 <va_printk+0x234>
    8d88:	e2800001 	add	r0, r0, #1
    8d8c:	e5c43000 	strb	r3, [r4]
    8d90:	e2844001 	add	r4, r4, #1
    8d94:	e1540008 	cmp	r4, r8
    8d98:	2a000002 	bcs	8da8 <va_printk+0x248>
    8d9c:	e5d03000 	ldrb	r3, [r0]
    8da0:	e3530000 	cmp	r3, #0
    8da4:	1afffff7 	bne	8d88 <va_printk+0x228>
    8da8:	e5d23000 	ldrb	r3, [r2]
    8dac:	e3530000 	cmp	r3, #0
    8db0:	0a000001 	beq	8dbc <va_printk+0x25c>
    8db4:	e1540008 	cmp	r4, r8
    8db8:	3affff73 	bcc	8b8c <va_printk+0x2c>
    8dbc:	e2840001 	add	r0, r4, #1
    8dc0:	e3a03000 	mov	r3, #0
    8dc4:	e5c43000 	strb	r3, [r4]
    8dc8:	e06a0000 	rsb	r0, sl, r0
    8dcc:	e28dd08c 	add	sp, sp, #140	; 0x8c
    8dd0:	e8bd8ff0 	pop	{r4, r5, r6, r7, r8, r9, sl, fp, pc}
    8dd4:	00009d44 	andeq	r9, r0, r4, asr #26
    8dd8:	00009cf4 	strdeq	r9, [r0], -r4
    8ddc:	00009cd4 	ldrdeq	r9, [r0], -r4
    8de0:	00009d60 	andeq	r9, r0, r0, ror #26
    8de4:	00009d88 	andeq	r9, r0, r8, lsl #27

00008de8 <clean_reboot>:
    8de8:	e92d4008 	push	{r3, lr}
    8dec:	e59f3014 	ldr	r3, [pc, #20]	; 8e08 <clean_reboot+0x20>
    8df0:	e5933000 	ldr	r3, [r3]
    8df4:	e59f0010 	ldr	r0, [pc, #16]	; 8e0c <clean_reboot+0x24>
    8df8:	e12fff33 	blx	r3
    8dfc:	e3a00064 	mov	r0, #100	; 0x64
    8e00:	eb000063 	bl	8f94 <delay_ms>
    8e04:	eb000038 	bl	8eec <rpi_reboot>
    8e08:	00009a7c 	andeq	r9, r0, ip, ror sl
    8e0c:	00009dc0 	andeq	r9, r0, r0, asr #27

00008e10 <internal_sw_putchar>:
    8e10:	e92d4010 	push	{r4, lr}
    8e14:	e1a04000 	mov	r4, r0
    8e18:	e59f000c 	ldr	r0, [pc, #12]	; 8e2c <internal_sw_putchar+0x1c>
    8e1c:	e6ef1074 	uxtb	r1, r4
    8e20:	ebfffc7a 	bl	8010 <sw_uart_putc>
    8e24:	e1a00004 	mov	r0, r4
    8e28:	e8bd8010 	pop	{r4, pc}
    8e2c:	0000a354 	andeq	sl, r0, r4, asr r3

00008e30 <_cstart>:
    8e30:	e92d4008 	push	{r3, lr}
    8e34:	e59f3068 	ldr	r3, [pc, #104]	; 8ea4 <_cstart+0x74>
    8e38:	e59f2068 	ldr	r2, [pc, #104]	; 8ea8 <_cstart+0x78>
    8e3c:	e3a01000 	mov	r1, #0
    8e40:	ea000001 	b	8e4c <_cstart+0x1c>
    8e44:	e5831000 	str	r1, [r3]
    8e48:	e2833004 	add	r3, r3, #4
    8e4c:	e1530002 	cmp	r3, r2
    8e50:	3afffffb 	bcc	8e44 <_cstart+0x14>
    8e54:	eb0002f5 	bl	9a30 <cb_get_block>
    8e58:	e3500000 	cmp	r0, #0
    8e5c:	0a00000e 	beq	8e9c <_cstart+0x6c>
    8e60:	e5d02004 	ldrb	r2, [r0, #4]
    8e64:	e3520002 	cmp	r2, #2
    8e68:	1a00000b 	bne	8e9c <_cstart+0x6c>
    8e6c:	e59f1038 	ldr	r1, [pc, #56]	; 8eac <_cstart+0x7c>
    8e70:	e59f2038 	ldr	r2, [pc, #56]	; 8eb0 <_cstart+0x80>
    8e74:	e5821000 	str	r1, [r2]
    8e78:	e59fc034 	ldr	ip, [pc, #52]	; 8eb4 <_cstart+0x84>
    8e7c:	e2803008 	add	r3, r0, #8
    8e80:	e8930007 	ldm	r3, {r0, r1, r2}
    8e84:	e88c0007 	stm	ip, {r0, r1, r2}
    8e88:	e1a0000c 	mov	r0, ip
    8e8c:	e59f1024 	ldr	r1, [pc, #36]	; 8eb8 <_cstart+0x88>
    8e90:	ebfffdb3 	bl	8564 <sw_uart_printk>
    8e94:	e59f0020 	ldr	r0, [pc, #32]	; 8ebc <_cstart+0x8c>
    8e98:	ebfffe62 	bl	8828 <printk>
    8e9c:	ebfffe1f 	bl	8720 <notmain>
    8ea0:	eb000011 	bl	8eec <rpi_reboot>
    8ea4:	00009f44 	andeq	r9, r0, r4, asr #30
    8ea8:	0000a768 	andeq	sl, r0, r8, ror #14
    8eac:	00008e10 	andeq	r8, r0, r0, lsl lr
    8eb0:	00009a78 	andeq	r9, r0, r8, ror sl
    8eb4:	0000a354 	andeq	sl, r0, r4, asr r3
    8eb8:	00009dcc 	andeq	r9, r0, ip, asr #27
    8ebc:	00009df0 	strdeq	r9, [r0], -r0

00008ec0 <at_user_level>:
    8ec0:	e10f0000 	mrs	r0, CPSR
    8ec4:	e200001f 	and	r0, r0, #31
    8ec8:	e3500010 	cmp	r0, #16
    8ecc:	13a00000 	movne	r0, #0
    8ed0:	03a00001 	moveq	r0, #1
    8ed4:	e12fff1e 	bx	lr

00008ed8 <set_user_level>:
    8ed8:	e10f3000 	mrs	r3, CPSR
    8edc:	e3c3301f 	bic	r3, r3, #31
    8ee0:	e3833010 	orr	r3, r3, #16
    8ee4:	e129f003 	msr	CPSR_fc, r3
    8ee8:	e12fff1e 	bx	lr

00008eec <rpi_reboot>:
    8eec:	e92d4008 	push	{r3, lr}
    8ef0:	ebfffff2 	bl	8ec0 <at_user_level>
    8ef4:	e3500000 	cmp	r0, #0
    8ef8:	0a000000 	beq	8f00 <rpi_reboot+0x14>
    8efc:	ebfffff5 	bl	8ed8 <set_user_level>
    8f00:	e3a0001e 	mov	r0, #30
    8f04:	eb000022 	bl	8f94 <delay_ms>
    8f08:	e59f0014 	ldr	r0, [pc, #20]	; 8f24 <rpi_reboot+0x38>
    8f0c:	e59f1014 	ldr	r1, [pc, #20]	; 8f28 <rpi_reboot+0x3c>
    8f10:	eb000275 	bl	98ec <PUT32>
    8f14:	e59f0010 	ldr	r0, [pc, #16]	; 8f2c <rpi_reboot+0x40>
    8f18:	e59f1010 	ldr	r1, [pc, #16]	; 8f30 <rpi_reboot+0x44>
    8f1c:	eb000272 	bl	98ec <PUT32>
    8f20:	eafffffe 	b	8f20 <rpi_reboot+0x34>
    8f24:	20100024 	andscs	r0, r0, r4, lsr #32
    8f28:	5a000001 	bpl	8f34 <delay_cycles>
    8f2c:	2010001c 	andscs	r0, r0, ip, lsl r0
    8f30:	5a000020 	bpl	8fb8 <delay_sec+0x10>

00008f34 <delay_cycles>:
    8f34:	ea000001 	b	8f40 <delay_cycles+0xc>
    8f38:	e2811000 	add	r1, r1, #0
    8f3c:	e1a00003 	mov	r0, r3
    8f40:	e2403001 	sub	r3, r0, #1
    8f44:	e3500000 	cmp	r0, #0
    8f48:	1afffffa 	bne	8f38 <delay_cycles+0x4>
    8f4c:	e12fff1e 	bx	lr

00008f50 <timer_get_usec_raw>:
    8f50:	e92d4008 	push	{r3, lr}
    8f54:	e59f0004 	ldr	r0, [pc, #4]	; 8f60 <timer_get_usec_raw+0x10>
    8f58:	eb00026f 	bl	991c <GET32>
    8f5c:	e8bd8008 	pop	{r3, pc}
    8f60:	20003004 	andcs	r3, r0, r4

00008f64 <timer_get_usec>:
    8f64:	e92d4008 	push	{r3, lr}
    8f68:	ebfffff8 	bl	8f50 <timer_get_usec_raw>
    8f6c:	e8bd8008 	pop	{r3, pc}

00008f70 <delay_us>:
    8f70:	e92d4038 	push	{r3, r4, r5, lr}
    8f74:	e1a05000 	mov	r5, r0
    8f78:	ebfffff9 	bl	8f64 <timer_get_usec>
    8f7c:	e1a04000 	mov	r4, r0
    8f80:	ebfffff7 	bl	8f64 <timer_get_usec>
    8f84:	e0640000 	rsb	r0, r4, r0
    8f88:	e1500005 	cmp	r0, r5
    8f8c:	3afffffb 	bcc	8f80 <delay_us+0x10>
    8f90:	e8bd8038 	pop	{r3, r4, r5, pc}

00008f94 <delay_ms>:
    8f94:	e92d4008 	push	{r3, lr}
    8f98:	e3a03ffa 	mov	r3, #1000	; 0x3e8
    8f9c:	e0000093 	mul	r0, r3, r0
    8fa0:	ebfffff2 	bl	8f70 <delay_us>
    8fa4:	e8bd8008 	pop	{r3, pc}

00008fa8 <delay_sec>:
    8fa8:	e92d4008 	push	{r3, lr}
    8fac:	e3a03ffa 	mov	r3, #1000	; 0x3e8
    8fb0:	e0000093 	mul	r0, r3, r0
    8fb4:	ebfffff6 	bl	8f94 <delay_ms>
    8fb8:	e8bd8008 	pop	{r3, pc}

00008fbc <gpio_set_output>:
    8fbc:	e92d4038 	push	{r3, r4, r5, lr}
    8fc0:	e1a04000 	mov	r4, r0
    8fc4:	e350001f 	cmp	r0, #31
    8fc8:	88bd8038 	pophi	{r3, r4, r5, pc}
    8fcc:	e59f30b4 	ldr	r3, [pc, #180]	; 9088 <gpio_set_output+0xcc>
    8fd0:	e0832093 	umull	r2, r3, r3, r0
    8fd4:	e1a031a3 	lsr	r3, r3, #3
    8fd8:	e3530005 	cmp	r3, #5
    8fdc:	979ff103 	ldrls	pc, [pc, r3, lsl #2]
    8fe0:	ea000017 	b	9044 <gpio_set_output+0x88>
    8fe4:	00008ffc 	strdeq	r8, [r0], -ip
    8fe8:	00009008 	andeq	r9, r0, r8
    8fec:	00009014 	andeq	r9, r0, r4, lsl r0
    8ff0:	00009020 	andeq	r9, r0, r0, lsr #32
    8ff4:	0000902c 	andeq	r9, r0, ip, lsr #32
    8ff8:	00009038 	andeq	r9, r0, r8, lsr r0
    8ffc:	e59f3088 	ldr	r3, [pc, #136]	; 908c <gpio_set_output+0xd0>
    9000:	e5935000 	ldr	r5, [r3]
    9004:	ea00000f 	b	9048 <gpio_set_output+0x8c>
    9008:	e59f307c 	ldr	r3, [pc, #124]	; 908c <gpio_set_output+0xd0>
    900c:	e5935004 	ldr	r5, [r3, #4]
    9010:	ea00000c 	b	9048 <gpio_set_output+0x8c>
    9014:	e59f3070 	ldr	r3, [pc, #112]	; 908c <gpio_set_output+0xd0>
    9018:	e5935008 	ldr	r5, [r3, #8]
    901c:	ea000009 	b	9048 <gpio_set_output+0x8c>
    9020:	e59f3064 	ldr	r3, [pc, #100]	; 908c <gpio_set_output+0xd0>
    9024:	e593500c 	ldr	r5, [r3, #12]
    9028:	ea000006 	b	9048 <gpio_set_output+0x8c>
    902c:	e59f3058 	ldr	r3, [pc, #88]	; 908c <gpio_set_output+0xd0>
    9030:	e5935010 	ldr	r5, [r3, #16]
    9034:	ea000003 	b	9048 <gpio_set_output+0x8c>
    9038:	e59f304c 	ldr	r3, [pc, #76]	; 908c <gpio_set_output+0xd0>
    903c:	e5935014 	ldr	r5, [r3, #20]
    9040:	ea000000 	b	9048 <gpio_set_output+0x8c>
    9044:	e3a05000 	mov	r5, #0
    9048:	e1a00005 	mov	r0, r5
    904c:	eb000230 	bl	9914 <get32>
    9050:	e59f1030 	ldr	r1, [pc, #48]	; 9088 <gpio_set_output+0xcc>
    9054:	e0813491 	umull	r3, r1, r1, r4
    9058:	e1a011a1 	lsr	r1, r1, #3
    905c:	e0811101 	add	r1, r1, r1, lsl #2
    9060:	e1a01081 	lsl	r1, r1, #1
    9064:	e0611004 	rsb	r1, r1, r4
    9068:	e0811081 	add	r1, r1, r1, lsl #1
    906c:	e3a03007 	mov	r3, #7
    9070:	e1c03113 	bic	r3, r0, r3, lsl r1
    9074:	e1a00005 	mov	r0, r5
    9078:	e3a02001 	mov	r2, #1
    907c:	e1831112 	orr	r1, r3, r2, lsl r1
    9080:	eb000217 	bl	98e4 <put32>
    9084:	e8bd8038 	pop	{r3, r4, r5, pc}
    9088:	cccccccd 	stclgt	12, cr12, [ip], {205}	; 0xcd
    908c:	00009a80 	andeq	r9, r0, r0, lsl #21

00009090 <gpio_set_on>:
    9090:	e92d4008 	push	{r3, lr}
    9094:	e350001f 	cmp	r0, #31
    9098:	88bd8008 	pophi	{r3, pc}
    909c:	959f3020 	ldrls	r3, [pc, #32]	; 90c4 <gpio_set_on+0x34>
    90a0:	95932018 	ldrls	r2, [r3, #24]
    90a4:	859f3018 	ldrhi	r3, [pc, #24]	; 90c4 <gpio_set_on+0x34>
    90a8:	8593201c 	ldrhi	r2, [r3, #28]
    90ac:	e200301f 	and	r3, r0, #31
    90b0:	e1a00002 	mov	r0, r2
    90b4:	e3a01001 	mov	r1, #1
    90b8:	e1a01311 	lsl	r1, r1, r3
    90bc:	eb000208 	bl	98e4 <put32>
    90c0:	e8bd8008 	pop	{r3, pc}
    90c4:	00009a80 	andeq	r9, r0, r0, lsl #21

000090c8 <gpio_set_off>:
    90c8:	e92d4008 	push	{r3, lr}
    90cc:	e350001f 	cmp	r0, #31
    90d0:	88bd8008 	pophi	{r3, pc}
    90d4:	959f3020 	ldrls	r3, [pc, #32]	; 90fc <gpio_set_off+0x34>
    90d8:	95932020 	ldrls	r2, [r3, #32]
    90dc:	859f3018 	ldrhi	r3, [pc, #24]	; 90fc <gpio_set_off+0x34>
    90e0:	85932024 	ldrhi	r2, [r3, #36]	; 0x24
    90e4:	e200301f 	and	r3, r0, #31
    90e8:	e1a00002 	mov	r0, r2
    90ec:	e3a01001 	mov	r1, #1
    90f0:	e1a01311 	lsl	r1, r1, r3
    90f4:	eb0001fa 	bl	98e4 <put32>
    90f8:	e8bd8008 	pop	{r3, pc}
    90fc:	00009a80 	andeq	r9, r0, r0, lsl #21

00009100 <gpio_set_input>:
    9100:	e92d4038 	push	{r3, r4, r5, lr}
    9104:	e1a04000 	mov	r4, r0
    9108:	e350001f 	cmp	r0, #31
    910c:	88bd8038 	pophi	{r3, r4, r5, pc}
    9110:	e59f30ac 	ldr	r3, [pc, #172]	; 91c4 <gpio_set_input+0xc4>
    9114:	e0832093 	umull	r2, r3, r3, r0
    9118:	e1a031a3 	lsr	r3, r3, #3
    911c:	e3530005 	cmp	r3, #5
    9120:	979ff103 	ldrls	pc, [pc, r3, lsl #2]
    9124:	ea000017 	b	9188 <gpio_set_input+0x88>
    9128:	00009140 	andeq	r9, r0, r0, asr #2
    912c:	0000914c 	andeq	r9, r0, ip, asr #2
    9130:	00009158 	andeq	r9, r0, r8, asr r1
    9134:	00009164 	andeq	r9, r0, r4, ror #2
    9138:	00009170 	andeq	r9, r0, r0, ror r1
    913c:	0000917c 	andeq	r9, r0, ip, ror r1
    9140:	e59f3080 	ldr	r3, [pc, #128]	; 91c8 <gpio_set_input+0xc8>
    9144:	e5935000 	ldr	r5, [r3]
    9148:	ea00000f 	b	918c <gpio_set_input+0x8c>
    914c:	e59f3074 	ldr	r3, [pc, #116]	; 91c8 <gpio_set_input+0xc8>
    9150:	e5935004 	ldr	r5, [r3, #4]
    9154:	ea00000c 	b	918c <gpio_set_input+0x8c>
    9158:	e59f3068 	ldr	r3, [pc, #104]	; 91c8 <gpio_set_input+0xc8>
    915c:	e5935008 	ldr	r5, [r3, #8]
    9160:	ea000009 	b	918c <gpio_set_input+0x8c>
    9164:	e59f305c 	ldr	r3, [pc, #92]	; 91c8 <gpio_set_input+0xc8>
    9168:	e593500c 	ldr	r5, [r3, #12]
    916c:	ea000006 	b	918c <gpio_set_input+0x8c>
    9170:	e59f3050 	ldr	r3, [pc, #80]	; 91c8 <gpio_set_input+0xc8>
    9174:	e5935010 	ldr	r5, [r3, #16]
    9178:	ea000003 	b	918c <gpio_set_input+0x8c>
    917c:	e59f3044 	ldr	r3, [pc, #68]	; 91c8 <gpio_set_input+0xc8>
    9180:	e5935014 	ldr	r5, [r3, #20]
    9184:	ea000000 	b	918c <gpio_set_input+0x8c>
    9188:	e3a05000 	mov	r5, #0
    918c:	e1a00005 	mov	r0, r5
    9190:	eb0001df 	bl	9914 <get32>
    9194:	e59f1028 	ldr	r1, [pc, #40]	; 91c4 <gpio_set_input+0xc4>
    9198:	e0813491 	umull	r3, r1, r1, r4
    919c:	e1a011a1 	lsr	r1, r1, #3
    91a0:	e0811101 	add	r1, r1, r1, lsl #2
    91a4:	e1a01081 	lsl	r1, r1, #1
    91a8:	e0611004 	rsb	r1, r1, r4
    91ac:	e0811081 	add	r1, r1, r1, lsl #1
    91b0:	e3a03007 	mov	r3, #7
    91b4:	e1c01113 	bic	r1, r0, r3, lsl r1
    91b8:	e1a00005 	mov	r0, r5
    91bc:	eb0001c8 	bl	98e4 <put32>
    91c0:	e8bd8038 	pop	{r3, r4, r5, pc}
    91c4:	cccccccd 	stclgt	12, cr12, [ip], {205}	; 0xcd
    91c8:	00009a80 	andeq	r9, r0, r0, lsl #21

000091cc <gpio_read>:
    91cc:	e92d4010 	push	{r4, lr}
    91d0:	e1a04000 	mov	r4, r0
    91d4:	e350001f 	cmp	r0, #31
    91d8:	8a00000b 	bhi	920c <gpio_read+0x40>
    91dc:	8a000003 	bhi	91f0 <gpio_read+0x24>
    91e0:	e59f302c 	ldr	r3, [pc, #44]	; 9214 <gpio_read+0x48>
    91e4:	e5930028 	ldr	r0, [r3, #40]	; 0x28
    91e8:	eb0001c9 	bl	9914 <get32>
    91ec:	ea000002 	b	91fc <gpio_read+0x30>
    91f0:	e59f301c 	ldr	r3, [pc, #28]	; 9214 <gpio_read+0x48>
    91f4:	e593002c 	ldr	r0, [r3, #44]	; 0x2c
    91f8:	eb0001c5 	bl	9914 <get32>
    91fc:	e204401f 	and	r4, r4, #31
    9200:	e3a03001 	mov	r3, #1
    9204:	e0000413 	and	r0, r0, r3, lsl r4
    9208:	e8bd8010 	pop	{r4, pc}
    920c:	e3e00000 	mvn	r0, #0
    9210:	e8bd8010 	pop	{r4, pc}
    9214:	00009a80 	andeq	r9, r0, r0, lsl #21

00009218 <gpio_write>:
    9218:	e92d4008 	push	{r3, lr}
    921c:	e350001f 	cmp	r0, #31
    9220:	88bd8008 	pophi	{r3, pc}
    9224:	e3510000 	cmp	r1, #0
    9228:	0a00000b 	beq	925c <gpio_write+0x44>
    922c:	e350001f 	cmp	r0, #31
    9230:	88bd8008 	pophi	{r3, pc}
    9234:	959f3050 	ldrls	r3, [pc, #80]	; 928c <gpio_write+0x74>
    9238:	95932018 	ldrls	r2, [r3, #24]
    923c:	859f3048 	ldrhi	r3, [pc, #72]	; 928c <gpio_write+0x74>
    9240:	8593201c 	ldrhi	r2, [r3, #28]
    9244:	e200301f 	and	r3, r0, #31
    9248:	e1a00002 	mov	r0, r2
    924c:	e3a01001 	mov	r1, #1
    9250:	e1a01311 	lsl	r1, r1, r3
    9254:	eb0001a2 	bl	98e4 <put32>
    9258:	e8bd8008 	pop	{r3, pc}
    925c:	e350001f 	cmp	r0, #31
    9260:	88bd8008 	pophi	{r3, pc}
    9264:	959f3020 	ldrls	r3, [pc, #32]	; 928c <gpio_write+0x74>
    9268:	95932020 	ldrls	r2, [r3, #32]
    926c:	859f3018 	ldrhi	r3, [pc, #24]	; 928c <gpio_write+0x74>
    9270:	85932024 	ldrhi	r2, [r3, #36]	; 0x24
    9274:	e200301f 	and	r3, r0, #31
    9278:	e1a00002 	mov	r0, r2
    927c:	e3a01001 	mov	r1, #1
    9280:	e1a01311 	lsl	r1, r1, r3
    9284:	eb000196 	bl	98e4 <put32>
    9288:	e8bd8008 	pop	{r3, pc}
    928c:	00009a80 	andeq	r9, r0, r0, lsl #21

00009290 <gpio_set_function>:
    9290:	e92d4070 	push	{r4, r5, r6, lr}
    9294:	e1a04000 	mov	r4, r0
    9298:	e1a05001 	mov	r5, r1
    929c:	e3510007 	cmp	r1, #7
    92a0:	9350001f 	cmpls	r0, #31
    92a4:	88bd8070 	pophi	{r4, r5, r6, pc}
    92a8:	e59f30b0 	ldr	r3, [pc, #176]	; 9360 <gpio_set_function+0xd0>
    92ac:	e0832093 	umull	r2, r3, r3, r0
    92b0:	e1a031a3 	lsr	r3, r3, #3
    92b4:	e3530005 	cmp	r3, #5
    92b8:	979ff103 	ldrls	pc, [pc, r3, lsl #2]
    92bc:	ea000017 	b	9320 <gpio_set_function+0x90>
    92c0:	000092d8 	ldrdeq	r9, [r0], -r8
    92c4:	000092e4 	andeq	r9, r0, r4, ror #5
    92c8:	000092f0 	strdeq	r9, [r0], -r0
    92cc:	000092fc 	strdeq	r9, [r0], -ip
    92d0:	00009308 	andeq	r9, r0, r8, lsl #6
    92d4:	00009314 	andeq	r9, r0, r4, lsl r3
    92d8:	e59f3084 	ldr	r3, [pc, #132]	; 9364 <gpio_set_function+0xd4>
    92dc:	e5936000 	ldr	r6, [r3]
    92e0:	ea00000f 	b	9324 <gpio_set_function+0x94>
    92e4:	e59f3078 	ldr	r3, [pc, #120]	; 9364 <gpio_set_function+0xd4>
    92e8:	e5936004 	ldr	r6, [r3, #4]
    92ec:	ea00000c 	b	9324 <gpio_set_function+0x94>
    92f0:	e59f306c 	ldr	r3, [pc, #108]	; 9364 <gpio_set_function+0xd4>
    92f4:	e5936008 	ldr	r6, [r3, #8]
    92f8:	ea000009 	b	9324 <gpio_set_function+0x94>
    92fc:	e59f3060 	ldr	r3, [pc, #96]	; 9364 <gpio_set_function+0xd4>
    9300:	e593600c 	ldr	r6, [r3, #12]
    9304:	ea000006 	b	9324 <gpio_set_function+0x94>
    9308:	e59f3054 	ldr	r3, [pc, #84]	; 9364 <gpio_set_function+0xd4>
    930c:	e5936010 	ldr	r6, [r3, #16]
    9310:	ea000003 	b	9324 <gpio_set_function+0x94>
    9314:	e59f3048 	ldr	r3, [pc, #72]	; 9364 <gpio_set_function+0xd4>
    9318:	e5936014 	ldr	r6, [r3, #20]
    931c:	ea000000 	b	9324 <gpio_set_function+0x94>
    9320:	e3a06000 	mov	r6, #0
    9324:	e1a00006 	mov	r0, r6
    9328:	eb000179 	bl	9914 <get32>
    932c:	e59f302c 	ldr	r3, [pc, #44]	; 9360 <gpio_set_function+0xd0>
    9330:	e0832493 	umull	r2, r3, r3, r4
    9334:	e1a031a3 	lsr	r3, r3, #3
    9338:	e0833103 	add	r3, r3, r3, lsl #2
    933c:	e1a03083 	lsl	r3, r3, #1
    9340:	e0633004 	rsb	r3, r3, r4
    9344:	e0833083 	add	r3, r3, r3, lsl #1
    9348:	e3a01007 	mov	r1, #7
    934c:	e1c01311 	bic	r1, r0, r1, lsl r3
    9350:	e1a00006 	mov	r0, r6
    9354:	e1811315 	orr	r1, r1, r5, lsl r3
    9358:	eb000161 	bl	98e4 <put32>
    935c:	e8bd8070 	pop	{r4, r5, r6, pc}
    9360:	cccccccd 	stclgt	12, cr12, [ip], {205}	; 0xcd
    9364:	00009a80 	andeq	r9, r0, r0, lsl #21

00009368 <is_gpio_int>:
    9368:	e92d4008 	push	{r3, lr}
    936c:	e59f301c 	ldr	r3, [pc, #28]	; 9390 <is_gpio_int+0x28>
    9370:	e5930030 	ldr	r0, [r3, #48]	; 0x30
    9374:	eb000166 	bl	9914 <get32>
    9378:	e3500000 	cmp	r0, #0
    937c:	0a000001 	beq	9388 <is_gpio_int+0x20>
    9380:	e3a00001 	mov	r0, #1
    9384:	e8bd8008 	pop	{r3, pc}
    9388:	e3a00000 	mov	r0, #0
    938c:	e8bd8008 	pop	{r3, pc}
    9390:	00009a80 	andeq	r9, r0, r0, lsl #21

00009394 <gpio_int_rising_edge>:
    9394:	e92d4038 	push	{r3, r4, r5, lr}
    9398:	e1a04000 	mov	r4, r0
    939c:	e350001f 	cmp	r0, #31
    93a0:	88bd8038 	pophi	{r3, r4, r5, pc}
    93a4:	eb000148 	bl	98cc <dev_barrier>
    93a8:	e354001f 	cmp	r4, #31
    93ac:	8a000007 	bhi	93d0 <gpio_int_rising_edge+0x3c>
    93b0:	e59f505c 	ldr	r5, [pc, #92]	; 9414 <gpio_int_rising_edge+0x80>
    93b4:	e5950034 	ldr	r0, [r5, #52]	; 0x34
    93b8:	eb000155 	bl	9914 <get32>
    93bc:	e3a01001 	mov	r1, #1
    93c0:	e1801411 	orr	r1, r0, r1, lsl r4
    93c4:	e5950034 	ldr	r0, [r5, #52]	; 0x34
    93c8:	eb000145 	bl	98e4 <put32>
    93cc:	ea000007 	b	93f0 <gpio_int_rising_edge+0x5c>
    93d0:	e59f503c 	ldr	r5, [pc, #60]	; 9414 <gpio_int_rising_edge+0x80>
    93d4:	e5950038 	ldr	r0, [r5, #56]	; 0x38
    93d8:	eb00014d 	bl	9914 <get32>
    93dc:	e204401f 	and	r4, r4, #31
    93e0:	e3a01001 	mov	r1, #1
    93e4:	e1801411 	orr	r1, r0, r1, lsl r4
    93e8:	e5950038 	ldr	r0, [r5, #56]	; 0x38
    93ec:	eb00013c 	bl	98e4 <put32>
    93f0:	eb000135 	bl	98cc <dev_barrier>
    93f4:	e59f4018 	ldr	r4, [pc, #24]	; 9414 <gpio_int_rising_edge+0x80>
    93f8:	e594003c 	ldr	r0, [r4, #60]	; 0x3c
    93fc:	eb000144 	bl	9914 <get32>
    9400:	e3801802 	orr	r1, r0, #131072	; 0x20000
    9404:	e594003c 	ldr	r0, [r4, #60]	; 0x3c
    9408:	eb000135 	bl	98e4 <put32>
    940c:	eb00012e 	bl	98cc <dev_barrier>
    9410:	e8bd8038 	pop	{r3, r4, r5, pc}
    9414:	00009a80 	andeq	r9, r0, r0, lsl #21

00009418 <gpio_int_falling_edge>:
    9418:	e92d4038 	push	{r3, r4, r5, lr}
    941c:	e1a04000 	mov	r4, r0
    9420:	e350001f 	cmp	r0, #31
    9424:	88bd8038 	pophi	{r3, r4, r5, pc}
    9428:	eb000127 	bl	98cc <dev_barrier>
    942c:	e354001f 	cmp	r4, #31
    9430:	8a000007 	bhi	9454 <gpio_int_falling_edge+0x3c>
    9434:	e59f505c 	ldr	r5, [pc, #92]	; 9498 <gpio_int_falling_edge+0x80>
    9438:	e5950040 	ldr	r0, [r5, #64]	; 0x40
    943c:	eb000134 	bl	9914 <get32>
    9440:	e3a01001 	mov	r1, #1
    9444:	e1801411 	orr	r1, r0, r1, lsl r4
    9448:	e5950040 	ldr	r0, [r5, #64]	; 0x40
    944c:	eb000124 	bl	98e4 <put32>
    9450:	ea000007 	b	9474 <gpio_int_falling_edge+0x5c>
    9454:	e59f503c 	ldr	r5, [pc, #60]	; 9498 <gpio_int_falling_edge+0x80>
    9458:	e5950044 	ldr	r0, [r5, #68]	; 0x44
    945c:	eb00012c 	bl	9914 <get32>
    9460:	e204401f 	and	r4, r4, #31
    9464:	e3a01001 	mov	r1, #1
    9468:	e1801411 	orr	r1, r0, r1, lsl r4
    946c:	e5950044 	ldr	r0, [r5, #68]	; 0x44
    9470:	eb00011b 	bl	98e4 <put32>
    9474:	eb000114 	bl	98cc <dev_barrier>
    9478:	e59f4018 	ldr	r4, [pc, #24]	; 9498 <gpio_int_falling_edge+0x80>
    947c:	e594003c 	ldr	r0, [r4, #60]	; 0x3c
    9480:	eb000123 	bl	9914 <get32>
    9484:	e3801601 	orr	r1, r0, #1048576	; 0x100000
    9488:	e594003c 	ldr	r0, [r4, #60]	; 0x3c
    948c:	eb000114 	bl	98e4 <put32>
    9490:	eb00010d 	bl	98cc <dev_barrier>
    9494:	e8bd8038 	pop	{r3, r4, r5, pc}
    9498:	00009a80 	andeq	r9, r0, r0, lsl #21

0000949c <gpio_event_detected>:
    949c:	e92d4010 	push	{r4, lr}
    94a0:	e1a04000 	mov	r4, r0
    94a4:	e350001f 	cmp	r0, #31
    94a8:	8a000019 	bhi	9514 <gpio_event_detected+0x78>
    94ac:	eb000106 	bl	98cc <dev_barrier>
    94b0:	e354001f 	cmp	r4, #31
    94b4:	8a000008 	bhi	94dc <gpio_event_detected+0x40>
    94b8:	e59f305c 	ldr	r3, [pc, #92]	; 951c <gpio_event_detected+0x80>
    94bc:	e5930048 	ldr	r0, [r3, #72]	; 0x48
    94c0:	eb000113 	bl	9914 <get32>
    94c4:	e3a03001 	mov	r3, #1
    94c8:	e0103413 	ands	r3, r0, r3, lsl r4
    94cc:	0a00000d 	beq	9508 <gpio_event_detected+0x6c>
    94d0:	eb0000fd 	bl	98cc <dev_barrier>
    94d4:	e3a00001 	mov	r0, #1
    94d8:	e8bd8010 	pop	{r4, pc}
    94dc:	e59f3038 	ldr	r3, [pc, #56]	; 951c <gpio_event_detected+0x80>
    94e0:	e593004c 	ldr	r0, [r3, #76]	; 0x4c
    94e4:	eb00010a 	bl	9914 <get32>
    94e8:	e3a03001 	mov	r3, #1
    94ec:	e0004413 	and	r4, r0, r3, lsl r4
    94f0:	eb0000f5 	bl	98cc <dev_barrier>
    94f4:	e3540000 	cmp	r4, #0
    94f8:	0a000002 	beq	9508 <gpio_event_detected+0x6c>
    94fc:	eb0000f2 	bl	98cc <dev_barrier>
    9500:	e3a00001 	mov	r0, #1
    9504:	e8bd8010 	pop	{r4, pc}
    9508:	eb0000ef 	bl	98cc <dev_barrier>
    950c:	e3a00000 	mov	r0, #0
    9510:	e8bd8010 	pop	{r4, pc}
    9514:	e3e00000 	mvn	r0, #0
    9518:	e8bd8010 	pop	{r4, pc}
    951c:	00009a80 	andeq	r9, r0, r0, lsl #21

00009520 <gpio_event_clear>:
    9520:	e92d4010 	push	{r4, lr}
    9524:	e1a04000 	mov	r4, r0
    9528:	e350001f 	cmp	r0, #31
    952c:	88bd8010 	pophi	{r4, pc}
    9530:	eb0000e5 	bl	98cc <dev_barrier>
    9534:	e354001f 	cmp	r4, #31
    9538:	8a000005 	bhi	9554 <gpio_event_clear+0x34>
    953c:	e59f3030 	ldr	r3, [pc, #48]	; 9574 <gpio_event_clear+0x54>
    9540:	e5930048 	ldr	r0, [r3, #72]	; 0x48
    9544:	e3a01001 	mov	r1, #1
    9548:	e1a01411 	lsl	r1, r1, r4
    954c:	eb0000e4 	bl	98e4 <put32>
    9550:	ea000005 	b	956c <gpio_event_clear+0x4c>
    9554:	e204401f 	and	r4, r4, #31
    9558:	e59f3014 	ldr	r3, [pc, #20]	; 9574 <gpio_event_clear+0x54>
    955c:	e593004c 	ldr	r0, [r3, #76]	; 0x4c
    9560:	e3a01001 	mov	r1, #1
    9564:	e1a01411 	lsl	r1, r1, r4
    9568:	eb0000dd 	bl	98e4 <put32>
    956c:	eb0000d6 	bl	98cc <dev_barrier>
    9570:	e8bd8010 	pop	{r4, pc}
    9574:	00009a80 	andeq	r9, r0, r0, lsl #21

00009578 <uart_init>:
    9578:	e92d4038 	push	{r3, r4, r5, lr}
    957c:	eb0000d2 	bl	98cc <dev_barrier>
    9580:	e3a0000e 	mov	r0, #14
    9584:	e3a01002 	mov	r1, #2
    9588:	ebffff40 	bl	9290 <gpio_set_function>
    958c:	e3a0000f 	mov	r0, #15
    9590:	e3a01002 	mov	r1, #2
    9594:	ebffff3d 	bl	9290 <gpio_set_function>
    9598:	eb0000cb 	bl	98cc <dev_barrier>
    959c:	e59f4068 	ldr	r4, [pc, #104]	; 960c <uart_init+0x94>
    95a0:	e5945000 	ldr	r5, [r4]
    95a4:	e1a00005 	mov	r0, r5
    95a8:	eb0000d9 	bl	9914 <get32>
    95ac:	e3801001 	orr	r1, r0, #1
    95b0:	e1a00005 	mov	r0, r5
    95b4:	eb0000ca 	bl	98e4 <put32>
    95b8:	eb0000c3 	bl	98cc <dev_barrier>
    95bc:	e5940004 	ldr	r0, [r4, #4]
    95c0:	e3a01000 	mov	r1, #0
    95c4:	eb0000c6 	bl	98e4 <put32>
    95c8:	e5940008 	ldr	r0, [r4, #8]
    95cc:	e3a01000 	mov	r1, #0
    95d0:	eb0000c3 	bl	98e4 <put32>
    95d4:	e594000c 	ldr	r0, [r4, #12]
    95d8:	e3a01006 	mov	r1, #6
    95dc:	eb0000c0 	bl	98e4 <put32>
    95e0:	e5940010 	ldr	r0, [r4, #16]
    95e4:	e3a01003 	mov	r1, #3
    95e8:	eb0000bd 	bl	98e4 <put32>
    95ec:	e5940014 	ldr	r0, [r4, #20]
    95f0:	e59f1018 	ldr	r1, [pc, #24]	; 9610 <uart_init+0x98>
    95f4:	eb0000ba 	bl	98e4 <put32>
    95f8:	e5940004 	ldr	r0, [r4, #4]
    95fc:	e3a01003 	mov	r1, #3
    9600:	eb0000b7 	bl	98e4 <put32>
    9604:	eb0000b0 	bl	98cc <dev_barrier>
    9608:	e8bd8038 	pop	{r3, r4, r5, pc}
    960c:	00009ae0 	andeq	r9, r0, r0, ror #21
    9610:	0000010e 	andeq	r0, r0, lr, lsl #2

00009614 <uart_can_getc>:
    9614:	e92d4008 	push	{r3, lr}
    9618:	e59f300c 	ldr	r3, [pc, #12]	; 962c <uart_can_getc+0x18>
    961c:	e5930018 	ldr	r0, [r3, #24]
    9620:	eb0000bb 	bl	9914 <get32>
    9624:	e2000001 	and	r0, r0, #1
    9628:	e8bd8008 	pop	{r3, pc}
    962c:	00009ae0 	andeq	r9, r0, r0, ror #21

00009630 <uart_getc>:
    9630:	e92d4008 	push	{r3, lr}
    9634:	ebfffff6 	bl	9614 <uart_can_getc>
    9638:	e3500000 	cmp	r0, #0
    963c:	0afffffc 	beq	9634 <uart_getc+0x4>
    9640:	e59f300c 	ldr	r3, [pc, #12]	; 9654 <uart_getc+0x24>
    9644:	e593001c 	ldr	r0, [r3, #28]
    9648:	eb0000b1 	bl	9914 <get32>
    964c:	e6ef0070 	uxtb	r0, r0
    9650:	e8bd8008 	pop	{r3, pc}
    9654:	00009ae0 	andeq	r9, r0, r0, ror #21

00009658 <uart_can_putc>:
    9658:	e92d4008 	push	{r3, lr}
    965c:	e59f300c 	ldr	r3, [pc, #12]	; 9670 <uart_can_putc+0x18>
    9660:	e5930018 	ldr	r0, [r3, #24]
    9664:	eb0000aa 	bl	9914 <get32>
    9668:	e2000020 	and	r0, r0, #32
    966c:	e8bd8008 	pop	{r3, pc}
    9670:	00009ae0 	andeq	r9, r0, r0, ror #21

00009674 <uart_putc>:
    9674:	e92d4010 	push	{r4, lr}
    9678:	e1a04000 	mov	r4, r0
    967c:	ebfffff5 	bl	9658 <uart_can_putc>
    9680:	e3500000 	cmp	r0, #0
    9684:	0afffffc 	beq	967c <uart_putc+0x8>
    9688:	e59f300c 	ldr	r3, [pc, #12]	; 969c <uart_putc+0x28>
    968c:	e593001c 	ldr	r0, [r3, #28]
    9690:	e1a01004 	mov	r1, r4
    9694:	eb000092 	bl	98e4 <put32>
    9698:	e8bd8010 	pop	{r4, pc}
    969c:	00009ae0 	andeq	r9, r0, r0, ror #21

000096a0 <uart_has_data>:
    96a0:	e92d4008 	push	{r3, lr}
    96a4:	ebffffda 	bl	9614 <uart_can_getc>
    96a8:	e8bd8008 	pop	{r3, pc}

000096ac <uart_getc_async>:
    96ac:	e92d4008 	push	{r3, lr}
    96b0:	ebfffffa 	bl	96a0 <uart_has_data>
    96b4:	e3500000 	cmp	r0, #0
    96b8:	0a000001 	beq	96c4 <uart_getc_async+0x18>
    96bc:	ebffffdb 	bl	9630 <uart_getc>
    96c0:	e8bd8008 	pop	{r3, pc}
    96c4:	e3e00000 	mvn	r0, #0
    96c8:	e8bd8008 	pop	{r3, pc}

000096cc <int_init>:
    96cc:	e92d4008 	push	{r3, lr}
    96d0:	e59f004c 	ldr	r0, [pc, #76]	; 9724 <int_init+0x58>
    96d4:	e3e01000 	mvn	r1, #0
    96d8:	eb000083 	bl	98ec <PUT32>
    96dc:	e59f0044 	ldr	r0, [pc, #68]	; 9728 <int_init+0x5c>
    96e0:	e3e01000 	mvn	r1, #0
    96e4:	eb000080 	bl	98ec <PUT32>
    96e8:	eb000077 	bl	98cc <dev_barrier>
    96ec:	e59f3038 	ldr	r3, [pc, #56]	; 972c <int_init+0x60>
    96f0:	e59f0038 	ldr	r0, [pc, #56]	; 9730 <int_init+0x64>
    96f4:	e0630000 	rsb	r0, r3, r0
    96f8:	e1a00140 	asr	r0, r0, #2
    96fc:	e3a03000 	mov	r3, #0
    9700:	e59fc024 	ldr	ip, [pc, #36]	; 972c <int_init+0x60>
    9704:	ea000003 	b	9718 <int_init+0x4c>
    9708:	e1a02103 	lsl	r2, r3, #2
    970c:	e79c1103 	ldr	r1, [ip, r3, lsl #2]
    9710:	e5821000 	str	r1, [r2]
    9714:	e2833001 	add	r3, r3, #1
    9718:	e1530000 	cmp	r3, r0
    971c:	3afffff9 	bcc	9708 <int_init+0x3c>
    9720:	e8bd8008 	pop	{r3, pc}
    9724:	2000b21c 	andcs	fp, r0, ip, lsl r2
    9728:	2000b220 	andcs	fp, r0, r0, lsr #4
    972c:	00009950 	andeq	r9, r0, r0, asr r9
    9730:	000099a0 	andeq	r9, r0, r0, lsr #19

00009734 <fast_interrupt_vector>:
    9734:	e52de004 	push	{lr}		; (str lr, [sp, #-4]!)
    9738:	e24dd00c 	sub	sp, sp, #12
    973c:	e1a04000 	mov	r4, r0
    9740:	ebfffc53 	bl	8894 <rpi_reset_putc>
    9744:	e59f301c 	ldr	r3, [pc, #28]	; 9768 <fast_interrupt_vector+0x34>
    9748:	e58d3000 	str	r3, [sp]
    974c:	e58d4004 	str	r4, [sp, #4]
    9750:	e59f0014 	ldr	r0, [pc, #20]	; 976c <fast_interrupt_vector+0x38>
    9754:	e59f1014 	ldr	r1, [pc, #20]	; 9770 <fast_interrupt_vector+0x3c>
    9758:	e59f2014 	ldr	r2, [pc, #20]	; 9774 <fast_interrupt_vector+0x40>
    975c:	e3a03020 	mov	r3, #32
    9760:	ebfffc30 	bl	8828 <printk>
    9764:	ebfffd9f 	bl	8de8 <clean_reboot>
    9768:	00009ee8 	andeq	r9, r0, r8, ror #29
    976c:	00009e8c 	andeq	r9, r0, ip, lsl #29
    9770:	00009ec8 	andeq	r9, r0, r8, asr #29
    9774:	00009dfc 	strdeq	r9, [r0], -ip

00009778 <software_interrupt_vector>:
    9778:	e52de004 	push	{lr}		; (str lr, [sp, #-4]!)
    977c:	e24dd00c 	sub	sp, sp, #12
    9780:	e1a04000 	mov	r4, r0
    9784:	ebfffc42 	bl	8894 <rpi_reset_putc>
    9788:	e59f301c 	ldr	r3, [pc, #28]	; 97ac <software_interrupt_vector+0x34>
    978c:	e58d3000 	str	r3, [sp]
    9790:	e58d4004 	str	r4, [sp, #4]
    9794:	e59f0014 	ldr	r0, [pc, #20]	; 97b0 <software_interrupt_vector+0x38>
    9798:	e59f1014 	ldr	r1, [pc, #20]	; 97b4 <software_interrupt_vector+0x3c>
    979c:	e59f2014 	ldr	r2, [pc, #20]	; 97b8 <software_interrupt_vector+0x40>
    97a0:	e3a03025 	mov	r3, #37	; 0x25
    97a4:	ebfffc1f 	bl	8828 <printk>
    97a8:	ebfffd8e 	bl	8de8 <clean_reboot>
    97ac:	00009ef0 	strdeq	r9, [r0], -r0
    97b0:	00009e8c 	andeq	r9, r0, ip, lsl #29
    97b4:	00009ec8 	andeq	r9, r0, r8, asr #29
    97b8:	00009e14 	andeq	r9, r0, r4, lsl lr

000097bc <reset_vector>:
    97bc:	e52de004 	push	{lr}		; (str lr, [sp, #-4]!)
    97c0:	e24dd00c 	sub	sp, sp, #12
    97c4:	e1a04000 	mov	r4, r0
    97c8:	ebfffc31 	bl	8894 <rpi_reset_putc>
    97cc:	e59f301c 	ldr	r3, [pc, #28]	; 97f0 <reset_vector+0x34>
    97d0:	e58d3000 	str	r3, [sp]
    97d4:	e58d4004 	str	r4, [sp, #4]
    97d8:	e59f0014 	ldr	r0, [pc, #20]	; 97f4 <reset_vector+0x38>
    97dc:	e59f1014 	ldr	r1, [pc, #20]	; 97f8 <reset_vector+0x3c>
    97e0:	e59f2014 	ldr	r2, [pc, #20]	; 97fc <reset_vector+0x40>
    97e4:	e3a03028 	mov	r3, #40	; 0x28
    97e8:	ebfffc0e 	bl	8828 <printk>
    97ec:	ebfffd7d 	bl	8de8 <clean_reboot>
    97f0:	00009f00 	andeq	r9, r0, r0, lsl #30
    97f4:	00009e8c 	andeq	r9, r0, ip, lsl #29
    97f8:	00009ec8 	andeq	r9, r0, r8, asr #29
    97fc:	00009e30 	andeq	r9, r0, r0, lsr lr

00009800 <undefined_instruction_vector>:
    9800:	e52de004 	push	{lr}		; (str lr, [sp, #-4]!)
    9804:	e24dd00c 	sub	sp, sp, #12
    9808:	e1a04000 	mov	r4, r0
    980c:	ebfffc20 	bl	8894 <rpi_reset_putc>
    9810:	e59f301c 	ldr	r3, [pc, #28]	; 9834 <undefined_instruction_vector+0x34>
    9814:	e58d3000 	str	r3, [sp]
    9818:	e58d4004 	str	r4, [sp, #4]
    981c:	e59f0014 	ldr	r0, [pc, #20]	; 9838 <undefined_instruction_vector+0x38>
    9820:	e59f1014 	ldr	r1, [pc, #20]	; 983c <undefined_instruction_vector+0x3c>
    9824:	e59f2014 	ldr	r2, [pc, #20]	; 9840 <undefined_instruction_vector+0x40>
    9828:	e3a0302b 	mov	r3, #43	; 0x2b
    982c:	ebfffbfd 	bl	8828 <printk>
    9830:	ebfffd6c 	bl	8de8 <clean_reboot>
    9834:	00009f10 	andeq	r9, r0, r0, lsl pc
    9838:	00009e8c 	andeq	r9, r0, ip, lsl #29
    983c:	00009ec8 	andeq	r9, r0, r8, asr #29
    9840:	00009e40 	andeq	r9, r0, r0, asr #28

00009844 <prefetch_abort_vector>:
    9844:	e52de004 	push	{lr}		; (str lr, [sp, #-4]!)
    9848:	e24dd00c 	sub	sp, sp, #12
    984c:	e1a04000 	mov	r4, r0
    9850:	ebfffc0f 	bl	8894 <rpi_reset_putc>
    9854:	e59f301c 	ldr	r3, [pc, #28]	; 9878 <prefetch_abort_vector+0x34>
    9858:	e58d3000 	str	r3, [sp]
    985c:	e58d4004 	str	r4, [sp, #4]
    9860:	e59f0014 	ldr	r0, [pc, #20]	; 987c <prefetch_abort_vector+0x38>
    9864:	e59f1014 	ldr	r1, [pc, #20]	; 9880 <prefetch_abort_vector+0x3c>
    9868:	e59f2014 	ldr	r2, [pc, #20]	; 9884 <prefetch_abort_vector+0x40>
    986c:	e3a0302e 	mov	r3, #46	; 0x2e
    9870:	ebfffbec 	bl	8828 <printk>
    9874:	ebfffd5b 	bl	8de8 <clean_reboot>
    9878:	00009f28 	andeq	r9, r0, r8, lsr #30
    987c:	00009e8c 	andeq	r9, r0, ip, lsl #29
    9880:	00009ec8 	andeq	r9, r0, r8, asr #29
    9884:	00009e60 	andeq	r9, r0, r0, ror #28

00009888 <data_abort_vector>:
    9888:	e52de004 	push	{lr}		; (str lr, [sp, #-4]!)
    988c:	e24dd00c 	sub	sp, sp, #12
    9890:	e1a04000 	mov	r4, r0
    9894:	ebfffbfe 	bl	8894 <rpi_reset_putc>
    9898:	e59f301c 	ldr	r3, [pc, #28]	; 98bc <data_abort_vector+0x34>
    989c:	e58d3000 	str	r3, [sp]
    98a0:	e58d4004 	str	r4, [sp, #4]
    98a4:	e59f0014 	ldr	r0, [pc, #20]	; 98c0 <data_abort_vector+0x38>
    98a8:	e59f1014 	ldr	r1, [pc, #20]	; 98c4 <data_abort_vector+0x3c>
    98ac:	e59f2014 	ldr	r2, [pc, #20]	; 98c8 <data_abort_vector+0x40>
    98b0:	e3a03031 	mov	r3, #49	; 0x31
    98b4:	ebfffbdb 	bl	8828 <printk>
    98b8:	ebfffd4a 	bl	8de8 <clean_reboot>
    98bc:	00009f38 	andeq	r9, r0, r8, lsr pc
    98c0:	00009e8c 	andeq	r9, r0, ip, lsl #29
    98c4:	00009ec8 	andeq	r9, r0, r8, asr #29
    98c8:	00009e78 	andeq	r9, r0, r8, ror lr

000098cc <dev_barrier>:
    98cc:	ea000002 	b	98dc <dsb>

000098d0 <dmb>:
    98d0:	e3a00000 	mov	r0, #0
    98d4:	ee070fba 	mcr	15, 0, r0, cr7, cr10, {5}
    98d8:	e12fff1e 	bx	lr

000098dc <dsb>:
    98dc:	ee070f9a 	mcr	15, 0, r0, cr7, cr10, {4}
    98e0:	e12fff1e 	bx	lr

000098e4 <put32>:
    98e4:	e5801000 	str	r1, [r0]
    98e8:	e12fff1e 	bx	lr

000098ec <PUT32>:
    98ec:	e5801000 	str	r1, [r0]
    98f0:	e12fff1e 	bx	lr

000098f4 <put16>:
    98f4:	e1c010b0 	strh	r1, [r0]
    98f8:	e12fff1e 	bx	lr

000098fc <PUT16>:
    98fc:	e1c010b0 	strh	r1, [r0]
    9900:	e12fff1e 	bx	lr

00009904 <put8>:
    9904:	e5c01000 	strb	r1, [r0]
    9908:	e12fff1e 	bx	lr

0000990c <PUT8>:
    990c:	e5c01000 	strb	r1, [r0]
    9910:	e12fff1e 	bx	lr

00009914 <get32>:
    9914:	e5900000 	ldr	r0, [r0]
    9918:	e12fff1e 	bx	lr

0000991c <GET32>:
    991c:	e5900000 	ldr	r0, [r0]
    9920:	e12fff1e 	bx	lr

00009924 <GETPC>:
    9924:	e1a0000e 	mov	r0, lr
    9928:	e12fff1e 	bx	lr

0000992c <dummy>:
    992c:	e12fff1e 	bx	lr

00009930 <system_enable_interrupts>:
    9930:	e10f0000 	mrs	r0, CPSR
    9934:	e3c00080 	bic	r0, r0, #128	; 0x80
    9938:	e121f000 	msr	CPSR_c, r0
    993c:	e12fff1e 	bx	lr

00009940 <system_disable_interrupts>:
    9940:	e10f0000 	mrs	r0, CPSR
    9944:	e3800080 	orr	r0, r0, #128	; 0x80
    9948:	e121f000 	msr	CPSR_c, r0
    994c:	e12fff1e 	bx	lr

00009950 <_interrupt_table>:
    9950:	e59ff030 	ldr	pc, [pc, #48]	; 9988 <_reset_asm>
    9954:	e59ff030 	ldr	pc, [pc, #48]	; 998c <_undefined_instruction_asm>
    9958:	e59ff030 	ldr	pc, [pc, #48]	; 9990 <_software_interrupt_asm>
    995c:	e59ff030 	ldr	pc, [pc, #48]	; 9994 <_prefetch_abort_asm>
    9960:	e59ff030 	ldr	pc, [pc, #48]	; 9998 <_data_abort_asm>
    9964:	e59ff01c 	ldr	pc, [pc, #28]	; 9988 <_reset_asm>
    9968:	e59ff02c 	ldr	pc, [pc, #44]	; 999c <_interrupt_asm>

0000996c <fast_interrupt_asm>:
    996c:	e24ee004 	sub	lr, lr, #4
    9970:	e52de004 	push	{lr}		; (str lr, [sp, #-4]!)
    9974:	e92d1fff 	push	{r0, r1, r2, r3, r4, r5, r6, r7, r8, r9, sl, fp, ip}
    9978:	e1a0000e 	mov	r0, lr
    997c:	ebffff6c 	bl	9734 <fast_interrupt_vector>
    9980:	e8bd1fff 	pop	{r0, r1, r2, r3, r4, r5, r6, r7, r8, r9, sl, fp, ip}
    9984:	e8fd8000 	ldm	sp!, {pc}^

00009988 <_reset_asm>:
    9988:	000099e8 	andeq	r9, r0, r8, ror #19

0000998c <_undefined_instruction_asm>:
    998c:	000099f0 	strdeq	r9, [r0], -r0

00009990 <_software_interrupt_asm>:
    9990:	000099bc 			; <UNDEFINED> instruction: 0x000099bc

00009994 <_prefetch_abort_asm>:
    9994:	000099f8 	strdeq	r9, [r0], -r8

00009998 <_data_abort_asm>:
    9998:	00009a00 	andeq	r9, r0, r0, lsl #20

0000999c <_interrupt_asm>:
    999c:	000099a0 	andeq	r9, r0, r0, lsr #19

000099a0 <_interrupt_table_end>:
    99a0:	e3a0d409 	mov	sp, #150994944	; 0x9000000
    99a4:	e24ee004 	sub	lr, lr, #4
    99a8:	e92d5fff 	push	{r0, r1, r2, r3, r4, r5, r6, r7, r8, r9, sl, fp, ip, lr}
    99ac:	e1a0000e 	mov	r0, lr
    99b0:	ebfffb1f 	bl	8634 <interrupt_vector>
    99b4:	e8bd5fff 	pop	{r0, r1, r2, r3, r4, r5, r6, r7, r8, r9, sl, fp, ip, lr}
    99b8:	e1b0f00e 	movs	pc, lr

000099bc <software_interrupt_asm>:
    99bc:	e52de004 	push	{lr}		; (str lr, [sp, #-4]!)
    99c0:	e92d1ffe 	push	{r1, r2, r3, r4, r5, r6, r7, r8, r9, sl, fp, ip}
    99c4:	e24ee004 	sub	lr, lr, #4
    99c8:	e1a0200e 	mov	r2, lr
    99cc:	e1a01000 	mov	r1, r0
    99d0:	e1a0000e 	mov	r0, lr
    99d4:	eb000003 	bl	99e8 <reset_asm>
    99d8:	e8bd1ffe 	pop	{r1, r2, r3, r4, r5, r6, r7, r8, r9, sl, fp, ip}
    99dc:	e49de004 	pop	{lr}		; (ldr lr, [sp], #4)
    99e0:	e8fd8000 	ldm	sp!, {pc}^
    99e4:	e1b0f00e 	movs	pc, lr

000099e8 <reset_asm>:
    99e8:	e24ee004 	sub	lr, lr, #4
    99ec:	ebffff72 	bl	97bc <reset_vector>

000099f0 <undefined_instruction_asm>:
    99f0:	e24ee004 	sub	lr, lr, #4
    99f4:	ebffff81 	bl	9800 <undefined_instruction_vector>

000099f8 <prefetch_abort_asm>:
    99f8:	e24ee004 	sub	lr, lr, #4
    99fc:	ebffff90 	bl	9844 <prefetch_abort_vector>

00009a00 <data_abort_asm>:
    9a00:	e24ee004 	sub	lr, lr, #4
    9a04:	ebffff9f 	bl	9888 <data_abort_vector>

00009a08 <cb_new>:
    9a08:	e92d4008 	push	{r3, lr}
    9a0c:	e3a00409 	mov	r0, #150994944	; 0x9000000
    9a10:	e3a01000 	mov	r1, #0
    9a14:	e3a02004 	mov	r2, #4
    9a18:	eb00000e 	bl	9a58 <memset>
    9a1c:	e3a00409 	mov	r0, #150994944	; 0x9000000
    9a20:	e59f3004 	ldr	r3, [pc, #4]	; 9a2c <cb_new+0x24>
    9a24:	e5803000 	str	r3, [r0]
    9a28:	e8bd8008 	pop	{r3, pc}
    9a2c:	12345678 	eorsne	r5, r4, #120, 12	; 0x7800000

00009a30 <cb_get_block>:
    9a30:	e3a03409 	mov	r3, #150994944	; 0x9000000
    9a34:	e5932000 	ldr	r2, [r3]
    9a38:	e59f3014 	ldr	r3, [pc, #20]	; 9a54 <cb_get_block+0x24>
    9a3c:	e1520003 	cmp	r2, r3
    9a40:	0a000001 	beq	9a4c <cb_get_block+0x1c>
    9a44:	e3a00000 	mov	r0, #0
    9a48:	e12fff1e 	bx	lr
    9a4c:	e3a00409 	mov	r0, #150994944	; 0x9000000
    9a50:	e12fff1e 	bx	lr
    9a54:	12345678 	eorsne	r5, r4, #120, 12	; 0x7800000

00009a58 <memset>:
    9a58:	e0802002 	add	r2, r0, r2
    9a5c:	e1a03000 	mov	r3, r0
    9a60:	ea000001 	b	9a6c <memset+0x14>
    9a64:	e5c31000 	strb	r1, [r3]
    9a68:	e2833001 	add	r3, r3, #1
    9a6c:	e1530002 	cmp	r3, r2
    9a70:	3afffffb 	bcc	9a64 <memset+0xc>
    9a74:	e12fff1e 	bx	lr

Disassembly of section .data:

00009a78 <rpi_putchar>:
    9a78:	00008880 	andeq	r8, r0, r0, lsl #17

00009a7c <putk>:
    9a7c:	000088bc 			; <UNDEFINED> instruction: 0x000088bc

00009a80 <GPFSEL0>:
    9a80:	20200000 	eorcs	r0, r0, r0

00009a84 <GPFSEL1>:
    9a84:	20200004 	eorcs	r0, r0, r4

00009a88 <GPFSEL2>:
    9a88:	20200008 	eorcs	r0, r0, r8

00009a8c <GPFSEL3>:
    9a8c:	2020000c 	eorcs	r0, r0, ip

00009a90 <GPFSEL4>:
    9a90:	20200010 	eorcs	r0, r0, r0, lsl r0

00009a94 <GPFSEL5>:
    9a94:	20200014 	eorcs	r0, r0, r4, lsl r0

00009a98 <GPSET0>:
    9a98:	2020001c 	eorcs	r0, r0, ip, lsl r0

00009a9c <GPSET1>:
    9a9c:	20200020 	eorcs	r0, r0, r0, lsr #32

00009aa0 <GPCLR0>:
    9aa0:	20200028 	eorcs	r0, r0, r8, lsr #32

00009aa4 <GPCLR1>:
    9aa4:	2020002c 	eorcs	r0, r0, ip, lsr #32

00009aa8 <GPLEV0>:
    9aa8:	20200034 	eorcs	r0, r0, r4, lsr r0

00009aac <GPLEV1>:
    9aac:	20200038 	eorcs	r0, r0, r8, lsr r0

00009ab0 <IRQ_PENDING_2>:
    9ab0:	2000b208 	andcs	fp, r0, r8, lsl #4

00009ab4 <GPREN0>:
    9ab4:	2020004c 	eorcs	r0, r0, ip, asr #32

00009ab8 <GPREN1>:
    9ab8:	20200050 	eorcs	r0, r0, r0, asr r0

00009abc <ENABLE_IRQS_2>:
    9abc:	2000b214 	andcs	fp, r0, r4, lsl r2

00009ac0 <GPFEN0>:
    9ac0:	20200058 	eorcs	r0, r0, r8, asr r0

00009ac4 <GPFEN1>:
    9ac4:	2020005c 	eorcs	r0, r0, ip, asr r0

00009ac8 <GPEDS0>:
    9ac8:	20200040 	eorcs	r0, r0, r0, asr #32

00009acc <GPEDS1>:
    9acc:	20200044 	eorcs	r0, r0, r4, asr #32

00009ad0 <IRQ_PENDING_1>:
    9ad0:	2000b204 	andcs	fp, r0, r4, lsl #4

00009ad4 <gpio_clr0>:
    9ad4:	20200028 	eorcs	r0, r0, r8, lsr #32

00009ad8 <gpio_set0>:
    9ad8:	2020001c 	eorcs	r0, r0, ip, lsl r0

00009adc <gpio_fsel0>:
    9adc:	20200000 	eorcs	r0, r0, r0

00009ae0 <AUX_ENABLES>:
    9ae0:	20215004 	eorcs	r5, r1, r4

00009ae4 <AUX_MU_CNTL_REG>:
    9ae4:	20215060 	eorcs	r5, r1, r0, rrx

00009ae8 <AUX_MU_IER_REG>:
    9ae8:	20215044 	eorcs	r5, r1, r4, asr #32

00009aec <AUX_MU_IIR_REG>:
    9aec:	20215048 	eorcs	r5, r1, r8, asr #32

00009af0 <AUX_MU_LCR_REG>:
    9af0:	2021504c 	eorcs	r5, r1, ip, asr #32

00009af4 <AUX_MU_BAUD_REG>:
    9af4:	20215068 	eorcs	r5, r1, r8, rrx

00009af8 <AUX_MU_LSR_REG>:
    9af8:	20215054 	eorcs	r5, r1, r4, asr r0

00009afc <AUX_MU_IO_REG>:
    9afc:	20215040 	eorcs	r5, r1, r0, asr #32

00009b00 <AUX_MU_STAT_REG>:
    9b00:	20215064 	eorcs	r5, r1, r4, rrx

00009b04 <AUX_MU_SCRATCH>:
    9b04:	2021505c 	eorcs	r5, r1, ip, asr r0

00009b08 <AUX_MU_MSR_REG>:
    9b08:	20215058 	eorcs	r5, r1, r8, asr r0

00009b0c <AUX_MU_MCR_REG>:
    9b0c:	20215050 	eorcs	r5, r1, r0, asr r0

00009b10 <AUX_IRQ>:
    9b10:	20215000 	eorcs	r5, r1, r0

Disassembly of section .rodata:

00009b14 <__FUNCTION__.4416>:
    9b14:	755f7773 	ldrbvc	r7, [pc, #-1907]	; 93a9 <gpio_int_rising_edge+0x15>
    9b18:	5f747261 	svcpl	0x00747261
    9b1c:	73746567 	cmnvc	r4, #432013312	; 0x19c00000
    9b20:	746e755f 	strbtvc	r7, [lr], #-1375	; 0x55f
    9b24:	00006c69 	andeq	r6, r0, r9, ror #24

00009b28 <__FUNCTION__.4428>:
    9b28:	755f7773 	ldrbvc	r7, [pc, #-1907]	; 93bd <gpio_int_rising_edge+0x29>
    9b2c:	5f747261 	svcpl	0x00747261
    9b30:	73746567 	cmnvc	r4, #432013312	; 0x19c00000
    9b34:	6d69745f 	cfstrdvs	mvd7, [r9, #-380]!	; 0xfffffe84
    9b38:	74756f65 	ldrbtvc	r6, [r5], #-3941	; 0xf65
    9b3c:	00000000 	andeq	r0, r0, r0

00009b40 <__FUNCTION__.4442>:
    9b40:	755f7773 	ldrbvc	r7, [pc, #-1907]	; 93d5 <gpio_int_rising_edge+0x41>
    9b44:	5f747261 	svcpl	0x00747261
    9b48:	74696e69 	strbtvc	r6, [r9], #-3689	; 0xe69
    9b4c:	6c65685f 	stclvs	8, cr6, [r5], #-380	; 0xfffffe84
    9b50:	00726570 	rsbseq	r6, r2, r0, ror r5

00009b54 <__FUNCTION__.4448>:
    9b54:	755f7773 	ldrbvc	r7, [pc, #-1907]	; 93e9 <gpio_int_rising_edge+0x55>
    9b58:	5f747261 	svcpl	0x00747261
    9b5c:	63746567 	cmnvs	r4, #432013312	; 0x19c00000
    9b60:	00000000 	andeq	r0, r0, r0

00009b64 <__FUNCTION__.4470>:
    9b64:	755f7773 	ldrbvc	r7, [pc, #-1907]	; 93f9 <gpio_int_rising_edge+0x65>
    9b68:	5f747261 	svcpl	0x00747261
    9b6c:	6e697270 	mcrvs	2, 3, r7, cr9, cr0, {3}
    9b70:	00006b74 	andeq	r6, r0, r4, ror fp

00009b74 <__FUNCTION__.4478>:
    9b74:	755f7773 	ldrbvc	r7, [pc, #-1907]	; 9409 <gpio_int_rising_edge+0x75>
    9b78:	5f747261 	svcpl	0x00747261
    9b7c:	73746567 	cmnvc	r4, #432013312	; 0x19c00000
    9b80:	746e755f 	strbtvc	r7, [lr], #-1375	; 0x55f
    9b84:	625f6c69 	subsvs	r6, pc, #26880	; 0x6900
    9b88:	00006b6c 	andeq	r6, r0, ip, ror #22

00009b8c <__FUNCTION__.4500>:
    9b8c:	6d746f6e 	ldclvs	15, cr6, [r4, #-440]!	; 0xfffffe48
    9b90:	006e6961 	rsbeq	r6, lr, r1, ror #18
    9b94:	494e4150 	stmdbmi	lr, {r4, r6, r8, lr}^
    9b98:	73253a43 	teqvc	r5, #274432	; 0x43000
    9b9c:	3a73253a 	bcc	1cd308c <__bss_end__+0x1cc8924>
    9ba0:	6e3a6425 	cdpvs	4, 3, cr6, cr10, cr5, {1}
    9ba4:	65747962 	ldrbvs	r7, [r4, #-2402]!	; 0x962
    9ba8:	0a303e73 	beq	c1957c <__bss_end__+0xc0ee14>
    9bac:	00000000 	andeq	r0, r0, r0
    9bb0:	6f6c2d32 	svcvs	0x006c2d32
    9bb4:	2d636967 	stclcs	9, cr6, [r3, #-412]!	; 0xfffffe64
    9bb8:	6c616e61 	stclvs	14, cr6, [r1], #-388	; 0xfffffe7c
    9bbc:	72657a79 	rsbvc	r7, r5, #495616	; 0x79000
    9bc0:	0000632e 	andeq	r6, r0, lr, lsr #6
    9bc4:	494e4150 	stmdbmi	lr, {r4, r6, r8, lr}^
    9bc8:	73253a43 	teqvc	r5, #274432	; 0x43000
    9bcc:	3a73253a 	bcc	1cd30bc <__bss_end__+0x1cc8954>
    9bd0:	283a6425 	ldmdacs	sl!, {r0, r2, r5, sl, sp, lr}
    9bd4:	207a686d 	rsbscs	r6, sl, sp, ror #16
    9bd8:	6162202d 	cmnvs	r2, sp, lsr #32
    9bdc:	20296475 	eorcs	r6, r9, r5, ror r4
    9be0:	64203d3c 	strtvs	r3, [r0], #-3388	; 0xd3c
    9be4:	76697265 	strbtvc	r7, [r9], -r5, ror #4
    9be8:	26206465 	strtcs	r6, [r0], -r5, ror #8
    9bec:	65642026 	strbvs	r2, [r4, #-38]!	; 0x26
    9bf0:	65766972 	ldrbvs	r6, [r6, #-2418]!	; 0x972
    9bf4:	3d3c2064 	ldccc	0, cr2, [ip, #-400]!	; 0xfffffe70
    9bf8:	686d2820 	stmdavs	sp!, {r5, fp, sp}^
    9bfc:	202b207a 	eorcs	r2, fp, sl, ror r0
    9c00:	64756162 	ldrbtvs	r6, [r5], #-354	; 0x162
    9c04:	00000a29 	andeq	r0, r0, r9, lsr #20
    9c08:	494e4150 	stmdbmi	lr, {r4, r6, r8, lr}^
    9c0c:	73253a43 	teqvc	r5, #274432	; 0x43000
    9c10:	3a73253a 	bcc	1cd3100 <__bss_end__+0x1cc8998>
    9c14:	693a6425 	ldmdbvs	sl!, {r0, r2, r5, sl, sp, lr}
    9c18:	736f706d 	cmnvc	pc, #109	; 0x6d
    9c1c:	6c626973 	stclvs	9, cr6, [r2], #-460	; 0xfffffe34
    9c20:	68203a65 	stmdavs	r0!, {r0, r2, r5, r6, r9, fp, ip, sp}
    9c24:	20657661 	rsbcs	r7, r5, r1, ror #12
    9c28:	69206e61 	stmdbvs	r0!, {r0, r5, r6, r9, sl, fp, sp, lr}
    9c2c:	6e69666e 	cdpvs	6, 6, cr6, cr9, cr14, {3}
    9c30:	20657469 	rsbcs	r7, r5, r9, ror #8
    9c34:	656d6974 	strbvs	r6, [sp, #-2420]!	; 0x974
    9c38:	2174756f 	cmncs	r4, pc, ror #10
    9c3c:	00000a0a 	andeq	r0, r0, sl, lsl #20
    9c40:	494e4150 	stmdbmi	lr, {r4, r6, r8, lr}^
    9c44:	73253a43 	teqvc	r5, #274432	; 0x43000
    9c48:	3a73253a 	bcc	1cd3138 <__bss_end__+0x1cc89d0>
    9c4c:	733a6425 	teqvc	sl, #620756992	; 0x25000000
    9c50:	203c207a 	eorscs	r2, ip, sl, ror r0
    9c54:	657a6973 	ldrbvs	r6, [sl, #-2419]!	; 0x973
    9c58:	6220666f 	eorvs	r6, r0, #116391936	; 0x6f00000
    9c5c:	312d6675 	teqcc	sp, r5, ror r6
    9c60:	0000000a 	andeq	r0, r0, sl
    9c64:	494e4150 	stmdbmi	lr, {r4, r6, r8, lr}^
    9c68:	73253a43 	teqvc	r5, #274432	; 0x43000
    9c6c:	3a73253a 	bcc	1cd315c <__bss_end__+0x1cc89f4>
    9c70:	673a6425 	ldrvs	r6, [sl, -r5, lsr #8]!
    9c74:	5f6f6970 	svcpl	0x006f6970
    9c78:	64616572 	strbtvs	r6, [r1], #-1394	; 0x572
    9c7c:	5f6e6928 	svcpl	0x006e6928
    9c80:	296e6970 	stmdbcs	lr!, {r4, r5, r6, r8, fp, sp, lr}^
    9c84:	6e693e3e 	mcrvs	14, 3, r3, cr9, cr14, {1}
    9c88:	6e69705f 	mcrvs	0, 3, r7, cr9, cr15, {2}
    9c8c:	203d3d20 	eorscs	r3, sp, r0, lsr #26
    9c90:	00000a31 	andeq	r0, r0, r1, lsr sl
    9c94:	6576656e 	ldrbvs	r6, [r6, #-1390]!	; 0x56e
    9c98:	253d746e 	ldrcs	r7, [sp, #-1134]!	; 0x46e
    9c9c:	00000a64 	andeq	r0, r0, r4, ror #20
    9ca0:	253d7609 	ldrcs	r7, [sp, #-1545]!	; 0x609
    9ca4:	63202c64 	teqvs	r0, #100, 24	; 0x6400
    9ca8:	253d6379 	ldrcs	r6, [sp, #-889]!	; 0x379
    9cac:	00000a64 	andeq	r0, r0, r4, ror #20
    9cb0:	43435553 	movtmi	r5, #13651	; 0x3553
    9cb4:	21535345 	cmpcs	r3, r5, asr #6
    9cb8:	0000000a 	andeq	r0, r0, sl

00009cbc <__FUNCTION__.4216>:
    9cbc:	74696d65 	strbtvc	r6, [r9], #-3429	; 0xd65
    9cc0:	00000000 	andeq	r0, r0, r0

00009cc4 <__FUNCTION__.4164>:
    9cc4:	5f697072 	svcpl	0x00697072
    9cc8:	5f746573 	svcpl	0x00746573
    9ccc:	7074756f 	rsbsvc	r7, r4, pc, ror #10
    9cd0:	00007475 	andeq	r7, r0, r5, ror r4

00009cd4 <__FUNCTION__.4238>:
    9cd4:	705f6176 	subsvc	r6, pc, r6, ror r1	; <UNPREDICTABLE>
    9cd8:	746e6972 	strbtvc	r6, [lr], #-2418	; 0x972
    9cdc:	0000006b 	andeq	r0, r0, fp, rrx
    9ce0:	494e4150 	stmdbmi	lr, {r4, r6, r8, lr}^
    9ce4:	73253a43 	teqvc	r5, #274432	; 0x43000
    9ce8:	3a73253a 	bcc	1cd31d8 <__bss_end__+0x1cc8a70>
    9cec:	303a6425 	eorscc	r6, sl, r5, lsr #8
    9cf0:	0000000a 	andeq	r0, r0, sl
    9cf4:	6362696c 	cmnvs	r2, #108, 18	; 0x1b0000
    9cf8:	2d61762f 	stclcs	6, cr7, [r1, #-188]!	; 0xffffff44
    9cfc:	6e697270 	mcrvs	2, 3, r7, cr9, cr0, {3}
    9d00:	632e6b74 	teqvs	lr, #116, 22	; 0x1d000
    9d04:	00000000 	andeq	r0, r0, r0
    9d08:	33323130 	teqcc	r2, #48, 2
    9d0c:	37363534 			; <UNDEFINED> instruction: 0x37363534
    9d10:	00003938 	andeq	r3, r0, r8, lsr r9
    9d14:	33323130 	teqcc	r2, #48, 2
    9d18:	37363534 			; <UNDEFINED> instruction: 0x37363534
    9d1c:	62613938 	rsbvs	r3, r1, #56, 18	; 0xe0000
    9d20:	66656463 	strbtvs	r6, [r5], -r3, ror #8
    9d24:	00000000 	andeq	r0, r0, r0
    9d28:	00003130 	andeq	r3, r0, r0, lsr r1
    9d2c:	494e4150 	stmdbmi	lr, {r4, r6, r8, lr}^
    9d30:	73253a43 	teqvc	r5, #274432	; 0x43000
    9d34:	3a73253a 	bcc	1cd3224 <__bss_end__+0x1cc8abc>
    9d38:	703a6425 	eorsvc	r6, sl, r5, lsr #8
    9d3c:	5f637475 	svcpl	0x00637475
    9d40:	000a7066 	andeq	r7, sl, r6, rrx
    9d44:	494e4150 	stmdbmi	lr, {r4, r6, r8, lr}^
    9d48:	73253a43 	teqvc	r5, #274432	; 0x43000
    9d4c:	3a73253a 	bcc	1cd323c <__bss_end__+0x1cc8ad4>
    9d50:	773a6425 	ldrvc	r6, [sl, -r5, lsr #8]!
    9d54:	68746469 	ldmdavs	r4!, {r0, r3, r5, r6, sl, sp, lr}^
    9d58:	33203c20 	teqcc	r0, #32, 24	; 0x2000
    9d5c:	00000a32 	andeq	r0, r0, r2, lsr sl
    9d60:	494e4150 	stmdbmi	lr, {r4, r6, r8, lr}^
    9d64:	73253a43 	teqvc	r5, #274432	; 0x43000
    9d68:	3a73253a 	bcc	1cd3258 <__bss_end__+0x1cc8af0>
    9d6c:	663a6425 	ldrtvs	r6, [sl], -r5, lsr #8
    9d70:	74616f6c 	strbtvc	r6, [r1], #-3948	; 0xf6c
    9d74:	746f6e20 	strbtvc	r6, [pc], #-3616	; 9d7c <__FUNCTION__.4238+0xa8>
    9d78:	616e6520 	cmnvs	lr, r0, lsr #10
    9d7c:	64656c62 	strbtvs	r6, [r5], #-3170	; 0xc62
    9d80:	0a212121 	beq	85220c <__bss_end__+0x847aa4>
    9d84:	00000000 	andeq	r0, r0, r0
    9d88:	494e4150 	stmdbmi	lr, {r4, r6, r8, lr}^
    9d8c:	73253a43 	teqvc	r5, #274432	; 0x43000
    9d90:	3a73253a 	bcc	1cd3280 <__bss_end__+0x1cc8b18>
    9d94:	703a6425 	eorsvc	r6, sl, r5, lsr #8
    9d98:	746e6972 	strbtvc	r6, [lr], #-2418	; 0x972
    9d9c:	6e203a6b 	vnmulvs.f32	s6, s0, s23
    9da0:	6820746f 	stmdavs	r0!, {r0, r1, r2, r3, r5, r6, sl, ip, sp, lr}
    9da4:	6c646e61 	stclvs	14, cr6, [r4], #-388	; 0xfffffe7c
    9da8:	20676e69 	rsbcs	r6, r7, r9, ror #28
    9dac:	63657073 	cmnvs	r5, #115	; 0x73
    9db0:	65696669 	strbvs	r6, [r9, #-1641]!	; 0x669
    9db4:	25272072 	strcs	r2, [r7, #-114]!	; 0x72
    9db8:	0a0a2763 	beq	293b4c <__bss_end__+0x2893e4>
    9dbc:	00000000 	andeq	r0, r0, r0
    9dc0:	454e4f44 	strbmi	r4, [lr, #-3908]	; 0xf44
    9dc4:	0a212121 	beq	852250 <__bss_end__+0x847ae8>
    9dc8:	00000000 	andeq	r0, r0, r0
    9dcc:	756f6261 	strbvc	r6, [pc, #-609]!	; 9b73 <__FUNCTION__.4470+0xf>
    9dd0:	6f742074 	svcvs	0x00742074
    9dd4:	69727020 	ldmdbvs	r2!, {r5, ip, sp, lr}^
    9dd8:	6f20746e 	svcvs	0x0020746e
    9ddc:	6572206e 	ldrbvs	r2, [r2, #-110]!	; 0x6e
    9de0:	616c7567 	cmnvs	ip, r7, ror #10
    9de4:	72702072 	rsbsvc	r2, r0, #114	; 0x72
    9de8:	66746e69 	ldrbtvs	r6, [r4], -r9, ror #28
    9dec:	0000000a 	andeq	r0, r0, sl
    9df0:	63637573 	cmnvs	r3, #482344960	; 0x1cc00000
    9df4:	21737365 	cmncs	r3, r5, ror #6
    9df8:	0000000a 	andeq	r0, r0, sl

00009dfc <__FUNCTION__.4196>:
    9dfc:	74736166 	ldrbtvc	r6, [r3], #-358	; 0x166
    9e00:	746e695f 	strbtvc	r6, [lr], #-2399	; 0x95f
    9e04:	75727265 	ldrbvc	r7, [r2, #-613]!	; 0x265
    9e08:	765f7470 			; <UNDEFINED> instruction: 0x765f7470
    9e0c:	6f746365 	svcvs	0x00746365
    9e10:	00000072 	andeq	r0, r0, r2, ror r0

00009e14 <__FUNCTION__.4200>:
    9e14:	74666f73 	strbtvc	r6, [r6], #-3955	; 0xf73
    9e18:	65726177 	ldrbvs	r6, [r2, #-375]!	; 0x177
    9e1c:	746e695f 	strbtvc	r6, [lr], #-2399	; 0x95f
    9e20:	75727265 	ldrbvc	r7, [r2, #-613]!	; 0x265
    9e24:	765f7470 			; <UNDEFINED> instruction: 0x765f7470
    9e28:	6f746365 	svcvs	0x00746365
    9e2c:	00000072 	andeq	r0, r0, r2, ror r0

00009e30 <__FUNCTION__.4204>:
    9e30:	65736572 	ldrbvs	r6, [r3, #-1394]!	; 0x572
    9e34:	65765f74 	ldrbvs	r5, [r6, #-3956]!	; 0xf74
    9e38:	726f7463 	rsbvc	r7, pc, #1660944384	; 0x63000000
    9e3c:	00000000 	andeq	r0, r0, r0

00009e40 <__FUNCTION__.4208>:
    9e40:	65646e75 	strbvs	r6, [r4, #-3701]!	; 0xe75
    9e44:	656e6966 	strbvs	r6, [lr, #-2406]!	; 0x966
    9e48:	6e695f64 	cdpvs	15, 6, cr5, cr9, cr4, {3}
    9e4c:	75727473 	ldrbvc	r7, [r2, #-1139]!	; 0x473
    9e50:	6f697463 	svcvs	0x00697463
    9e54:	65765f6e 	ldrbvs	r5, [r6, #-3950]!	; 0xf6e
    9e58:	726f7463 	rsbvc	r7, pc, #1660944384	; 0x63000000
    9e5c:	00000000 	andeq	r0, r0, r0

00009e60 <__FUNCTION__.4212>:
    9e60:	66657270 			; <UNDEFINED> instruction: 0x66657270
    9e64:	68637465 	stmdavs	r3!, {r0, r2, r5, r6, sl, ip, sp, lr}^
    9e68:	6f62615f 	svcvs	0x0062615f
    9e6c:	765f7472 			; <UNDEFINED> instruction: 0x765f7472
    9e70:	6f746365 	svcvs	0x00746365
    9e74:	00000072 	andeq	r0, r0, r2, ror r0

00009e78 <__FUNCTION__.4216>:
    9e78:	61746164 	cmnvs	r4, r4, ror #2
    9e7c:	6f62615f 	svcvs	0x0062615f
    9e80:	765f7472 			; <UNDEFINED> instruction: 0x765f7472
    9e84:	6f746365 	svcvs	0x00746365
    9e88:	00000072 	andeq	r0, r0, r2, ror r0
    9e8c:	494e4150 	stmdbmi	lr, {r4, r6, r8, lr}^
    9e90:	73253a43 	teqvc	r5, #274432	; 0x43000
    9e94:	3a73253a 	bcc	1cd3384 <__bss_end__+0x1cc8c1c>
    9e98:	453a6425 	ldrmi	r6, [sl, #-1061]!	; 0x425
    9e9c:	524f5252 	subpl	r5, pc, #536870917	; 0x20000005
    9ea0:	6e75203a 	mrcvs	0, 3, r2, cr5, cr10, {1}
    9ea4:	646e6168 	strbtvs	r6, [lr], #-360	; 0x168
    9ea8:	2064656c 	rsbcs	r6, r4, ip, ror #10
    9eac:	65637865 	strbvs	r7, [r3, #-2149]!	; 0x865
    9eb0:	6f697470 	svcvs	0x00697470
    9eb4:	253c206e 	ldrcs	r2, [ip, #-110]!	; 0x6e
    9eb8:	61203e73 	teqvs	r0, r3, ror lr
    9ebc:	43502074 	cmpmi	r0, #116	; 0x74
    9ec0:	0a78253d 	beq	1e133bc <__bss_end__+0x1e08c54>
    9ec4:	0000000a 	andeq	r0, r0, sl
    9ec8:	34317363 	ldrtcc	r7, [r1], #-867	; 0x363
    9ecc:	692d6530 	pushvs	{r4, r5, r8, sl, sp, lr}
    9ed0:	7265746e 	rsbvc	r7, r5, #1845493760	; 0x6e000000
    9ed4:	74707572 	ldrbtvc	r7, [r0], #-1394	; 0x572
    9ed8:	746e692f 	strbtvc	r6, [lr], #-2351	; 0x92f
    9edc:	75727265 	ldrbvc	r7, [r2, #-613]!	; 0x265
    9ee0:	2d737470 	cfldrdcs	mvd7, [r3, #-448]!	; 0xfffffe40
    9ee4:	00632e63 	rsbeq	r2, r3, r3, ror #28
    9ee8:	74736166 	ldrbtvc	r6, [r3], #-358	; 0x166
    9eec:	00000000 	andeq	r0, r0, r0
    9ef0:	74666f73 	strbtvc	r6, [r6], #-3955	; 0xf73
    9ef4:	746e6920 	strbtvc	r6, [lr], #-2336	; 0x920
    9ef8:	75727265 	ldrbvc	r7, [r2, #-613]!	; 0x265
    9efc:	00007470 	andeq	r7, r0, r0, ror r4
    9f00:	65736572 	ldrbvs	r6, [r3, #-1394]!	; 0x572
    9f04:	65762074 	ldrbvs	r2, [r6, #-116]!	; 0x74
    9f08:	726f7463 	rsbvc	r7, pc, #1660944384	; 0x63000000
    9f0c:	00000000 	andeq	r0, r0, r0
    9f10:	65646e75 	strbvs	r6, [r4, #-3701]!	; 0xe75
    9f14:	656e6966 	strbvs	r6, [lr, #-2406]!	; 0x966
    9f18:	6e692064 	cdpvs	0, 6, cr2, cr9, cr4, {3}
    9f1c:	75727473 	ldrbvc	r7, [r2, #-1139]!	; 0x473
    9f20:	6f697463 	svcvs	0x00697463
    9f24:	0000006e 	andeq	r0, r0, lr, rrx
    9f28:	66657270 			; <UNDEFINED> instruction: 0x66657270
    9f2c:	68637465 	stmdavs	r3!, {r0, r2, r5, r6, sl, ip, sp, lr}^
    9f30:	6f626120 	svcvs	0x00626120
    9f34:	00007472 	andeq	r7, r0, r2, ror r4
    9f38:	61746164 	cmnvs	r4, r4, ror #2
    9f3c:	6f626120 	svcvs	0x00626120
    9f40:	00007472 	andeq	r7, r0, r2, ror r4

Disassembly of section .bss:

00009f44 <__bss_start__>:
    9f44:	00000000 	andeq	r0, r0, r0

00009f48 <nevents>:
    9f48:	00000000 	andeq	r0, r0, r0

00009f4c <cycle_counter>:
    9f4c:	00000000 	andeq	r0, r0, r0

00009f50 <n_rising_edge>:
    9f50:	00000000 	andeq	r0, r0, r0

00009f54 <buf.4164>:
	...

0000a354 <console_uart>:
	...

0000a360 <rpi_arm_timer_t>:
    a360:	00000000 	andeq	r0, r0, r0

0000a364 <events>:
	...

Disassembly of section .ARM.attributes:

00000000 <.ARM.attributes>:
   0:	00002a41 	andeq	r2, r0, r1, asr #20
   4:	61656100 	cmnvs	r5, r0, lsl #2
   8:	01006962 	tsteq	r0, r2, ror #18
   c:	00000020 	andeq	r0, r0, r0, lsr #32
  10:	4b5a3605 	blmi	168d82c <__bss_end__+0x16830c4>
  14:	08070600 	stmdaeq	r7, {r9, sl}
  18:	12010901 	andne	r0, r1, #16384	; 0x4000
  1c:	15011404 	strne	r1, [r1, #-1028]	; 0x404
  20:	18031701 	stmdane	r3, {r0, r8, r9, sl, ip}
  24:	22011a01 	andcs	r1, r1, #4096	; 0x1000
  28:	Address 0x0000000000000028 is out of bounds.


Disassembly of section .comment:

00000000 <.comment>:
   0:	3a434347 	bcc	10d0d24 <__bss_end__+0x10c65bc>
   4:	4e472820 	cdpmi	8, 4, cr2, cr7, cr0, {1}
   8:	34202955 	strtcc	r2, [r0], #-2389	; 0x955
   c:	332e382e 	teqcc	lr, #3014656	; 0x2e0000
	...

Disassembly of section .debug_info:

00000000 <.debug_info>:
       0:	00001646 	andeq	r1, r0, r6, asr #12
       4:	00000004 	andeq	r0, r0, r4
       8:	01040000 	mrseq	r0, (UNDEF: 4)
       c:	00000360 	andeq	r0, r0, r0, ror #6
      10:	0003ec01 	andeq	lr, r3, r1, lsl #24
      14:	00029700 	andeq	r9, r2, r0, lsl #14
      18:	00801000 	addeq	r1, r0, r0
      1c:	00081800 	andeq	r1, r8, r0, lsl #16
      20:	00000000 	andeq	r0, r0, r0
      24:	05040200 	streq	r0, [r4, #-512]	; 0x200
      28:	00746e69 	rsbseq	r6, r4, r9, ror #28
      2c:	7b070403 	blvc	1c1040 <__bss_end__+0x1b68d8>
      30:	03000000 	movweq	r0, #0
      34:	03100601 	tsteq	r0, #1048576	; 0x100000
      38:	02030000 	andeq	r0, r3, #0
      3c:	00031c05 	andeq	r1, r3, r5, lsl #24
      40:	05040300 	streq	r0, [r4, #-768]	; 0x300
      44:	0000009d 	muleq	r0, sp, r0
      48:	98050803 	stmdals	r5, {r0, r1, fp}
      4c:	04000000 	streq	r0, [r0], #-0
      50:	00000474 	andeq	r0, r0, r4, ror r4
      54:	005a2e03 	subseq	r2, sl, r3, lsl #28
      58:	01030000 	mrseq	r0, (UNDEF: 3)
      5c:	00030e08 	andeq	r0, r3, r8, lsl #28
      60:	07020300 	streq	r0, [r2, -r0, lsl #6]
      64:	00000176 	andeq	r0, r0, r6, ror r1
      68:	00033c04 	andeq	r3, r3, r4, lsl #24
      6c:	73340300 	teqvc	r4, #0, 6
      70:	03000000 	movweq	r0, #0
      74:	00760704 	rsbseq	r0, r6, r4, lsl #14
      78:	08030000 	stmdaeq	r3, {}	; <UNPREDICTABLE>
      7c:	00007107 	andeq	r7, r0, r7, lsl #2
      80:	07040300 	streq	r0, [r4, -r0, lsl #6]
      84:	00000209 	andeq	r0, r0, r9, lsl #4
      88:	04060405 	streq	r0, [r6], #-1029	; 0x405
      8c:	00000090 	muleq	r0, r0, r0
      90:	17080103 	strne	r0, [r8, -r3, lsl #2]
      94:	06000003 	streq	r0, [r0], -r3
      98:	00009d04 	andeq	r9, r0, r4, lsl #26
      9c:	00900700 	addseq	r0, r0, r0, lsl #14
      a0:	90080000 	andls	r0, r8, r0
      a4:	b2000000 	andlt	r0, r0, #0
      a8:	09000000 	stmdbeq	r0, {}	; <UNPREDICTABLE>
      ac:	00000081 	andeq	r0, r0, r1, lsl #1
      b0:	010a0007 	tsteq	sl, r7
      b4:	00d33704 	sbcseq	r3, r3, r4, lsl #14
      b8:	000b0000 	andeq	r0, fp, r0
      bc:	31000000 	mrscc	r0, (UNDEF: 0)
      c0:	00000a0b 	andeq	r0, r0, fp, lsl #20
      c4:	140b3200 	strne	r3, [fp], #-512	; 0x200
      c8:	33000000 	movwcc	r0, #0
      cc:	00001e0b 	andeq	r1, r0, fp, lsl #28
      d0:	0a003400 	beq	d0d8 <__bss_end__+0x2970>
      d4:	40330504 	eorsmi	r0, r3, r4, lsl #10
      d8:	0b000001 	bleq	e4 <_start-0x7f1c>
      dc:	00000101 	andeq	r0, r0, r1, lsl #2
      e0:	8082e880 	addhi	lr, r2, r0, lsl #17
      e4:	00f20b02 	rscseq	r0, r2, r2, lsl #22
      e8:	e8800000 	stm	r0, {}	; <UNPREDICTABLE>
      ec:	0b028082 	bleq	a02fc <__bss_end__+0x95b94>
      f0:	00000421 	andeq	r0, r0, r1, lsr #8
      f4:	8082e884 	addhi	lr, r2, r4, lsl #17
      f8:	00d60b02 	sbcseq	r0, r6, r2, lsl #22
      fc:	e8880000 	stm	r8, {}	; <UNPREDICTABLE>
     100:	0b028082 	bleq	a0310 <__bss_end__+0x95ba8>
     104:	00000431 	andeq	r0, r0, r1, lsr r4
     108:	8082e88c 	addhi	lr, r2, ip, lsl #17
     10c:	004a0b02 	subeq	r0, sl, r2, lsl #22
     110:	e8900000 	ldm	r0, {}	; <UNPREDICTABLE>
     114:	0b028082 	bleq	a0324 <__bss_end__+0x95bbc>
     118:	00000129 	andeq	r0, r0, r9, lsr #2
     11c:	8082e894 	umullhi	lr, r2, r4, r8
     120:	02290b02 	eoreq	r0, r9, #2048	; 0x800
     124:	e8980000 	ldm	r8, {}	; <UNPREDICTABLE>
     128:	0b028082 	bleq	a0338 <__bss_end__+0x95bd0>
     12c:	00000404 	andeq	r0, r0, r4, lsl #8
     130:	8082e89c 	umullhi	lr, r2, ip, r8
     134:	04b10b02 	ldrteq	r0, [r1], #2818	; 0xb02
     138:	e8a00000 	stmia	r0!, {}	; <UNPREDICTABLE>
     13c:	00028082 	andeq	r8, r2, r2, lsl #1
     140:	00002c0c 	andeq	r2, r0, ip, lsl #24
     144:	060c0d00 	streq	r0, [ip], -r0, lsl #26
     148:	00017c0e 	andeq	r7, r1, lr, lsl #24
     14c:	78740e00 	ldmdavc	r4!, {r9, sl, fp}^
     150:	4f0f0600 	svcmi	0x000f0600
     154:	00000000 	andeq	r0, r0, r0
     158:	0078720e 	rsbseq	r7, r8, lr, lsl #4
     15c:	004f0f06 	subeq	r0, pc, r6, lsl #30
     160:	0f010000 	svceq	0x00010000
     164:	00000345 	andeq	r0, r0, r5, asr #6
     168:	00681006 	rsbeq	r1, r8, r6
     16c:	0f040000 	svceq	0x00040000
     170:	000004a3 	andeq	r0, r0, r3, lsr #9
     174:	00681106 	rsbeq	r1, r8, r6, lsl #2
     178:	00080000 	andeq	r0, r8, r0
     17c:	00030404 	andeq	r0, r3, r4, lsl #8
     180:	45120600 	ldrmi	r0, [r2, #-1536]	; 0x600
     184:	04000001 	streq	r0, [r0], #-1
     188:	0000021a 	andeq	r0, r0, sl, lsl r2
     18c:	01922807 	orrseq	r2, r2, r7, lsl #16
     190:	e8100000 	ldmda	r0, {}	; <UNPREDICTABLE>
     194:	04000000 	streq	r0, [r0], #-0
     198:	01a90008 			; <UNDEFINED> instruction: 0x01a90008
     19c:	ff110000 			; <UNDEFINED> instruction: 0xff110000
     1a0:	88000003 	stmdahi	r0, {r0, r1}
     1a4:	00000000 	andeq	r0, r0, r0
     1a8:	00ea0400 	rsceq	r0, sl, r0, lsl #8
     1ac:	62070000 	andvs	r0, r7, #0
     1b0:	00000187 	andeq	r0, r0, r7, lsl #3
     1b4:	d601010a 	strle	r0, [r1], -sl, lsl #2
     1b8:	000001c9 	andeq	r0, r0, r9, asr #3
     1bc:	00034a0b 	andeq	r4, r3, fp, lsl #20
     1c0:	3d0b1500 	cfstr32cc	mvfx1, [fp, #-0]
     1c4:	14000001 	strne	r0, [r0], #-1
     1c8:	01701000 	cmneq	r0, r0
     1cc:	01080000 	mrseq	r0, (UNDEF: 8)
     1d0:	0001ecda 	ldrdeq	lr, [r1], -sl
     1d4:	00760e00 	rsbseq	r0, r6, r0, lsl #28
     1d8:	002cdb01 	eoreq	sp, ip, r1, lsl #22
     1dc:	0f000000 	svceq	0x00000000
     1e0:	0000014a 	andeq	r0, r0, sl, asr #2
     1e4:	002cdc01 	eoreq	sp, ip, r1, lsl #24
     1e8:	00040000 	andeq	r0, r4, r0
     1ec:	00014412 	andeq	r4, r1, r2, lsl r4
     1f0:	03090200 	movweq	r0, #37376	; 0x9200
     1f4:	0000021a 	andeq	r0, r0, sl, lsl r2
     1f8:	00065813 	andeq	r5, r6, r3, lsl r8
     1fc:	2c090200 	sfmcs	f0, 4, [r9], {-0}
     200:	14000000 	strne	r0, [r0], #-0
     204:	0902006e 	stmdbeq	r2, {r1, r2, r3, r5, r6}
     208:	0000002c 	andeq	r0, r0, ip, lsr #32
     20c:	02661615 	rsbeq	r1, r6, #22020096	; 0x1500000
     210:	0c020000 	stceq	0, cr0, [r2], {-0}
     214:	0000002c 	andeq	r0, r0, ip, lsr #32
     218:	88120000 	ldmdahi	r2, {}	; <UNPREDICTABLE>
     21c:	02000000 	andeq	r0, r0, #0
     220:	02510317 	subseq	r0, r1, #1543503872	; 0x5c000000
     224:	70140000 	andsvc	r0, r4, r0
     228:	02006e69 	andeq	r6, r0, #1680	; 0x690
     22c:	00002c17 	andeq	r2, r0, r7, lsl ip
     230:	00761400 	rsbseq	r1, r6, r0, lsl #8
     234:	002c1702 	eoreq	r1, ip, r2, lsl #14
     238:	58130000 	ldmdapl	r3, {}	; <UNPREDICTABLE>
     23c:	02000006 	andeq	r0, r0, #6
     240:	00002c17 	andeq	r2, r0, r7, lsl ip
     244:	014a1300 	mrseq	r1, (UNDEF: 122)
     248:	17020000 	strne	r0, [r2, -r0]
     24c:	0000002c 	andeq	r0, r0, ip, lsr #32
     250:	01aa1700 			; <UNDEFINED> instruction: 0x01aa1700
     254:	0d010000 	stceq	0, cr0, [r1, #-0]
     258:	00008010 	andeq	r8, r0, r0, lsl r0
     25c:	00000158 	andeq	r0, r0, r8, asr r1
     260:	08309c01 	ldmdaeq	r0!, {r0, sl, fp, ip, pc}
     264:	29180000 	ldmdbcs	r8, {}	; <UNPREDICTABLE>
     268:	01000006 	tsteq	r0, r6
     26c:	0008300d 	andeq	r3, r8, sp
     270:	00000000 	andeq	r0, r0, r0
     274:	00631900 	rsbeq	r1, r3, r0, lsl #18
     278:	005a0d01 	subseq	r0, sl, r1, lsl #26
     27c:	00210000 	eoreq	r0, r1, r0
     280:	741a0000 	ldrvc	r0, [sl], #-0
     284:	0f010078 	svceq	0x00010078
     288:	00000025 	andeq	r0, r0, r5, lsr #32
     28c:	08007606 	stmdaeq	r0, {r1, r2, r9, sl, ip, sp, lr}
     290:	1b9f1aff 	blne	fe7c6e94 <__bss_end__+0xfe7bc72c>
     294:	1001006e 	andne	r0, r1, lr, rrx
     298:	00000068 	andeq	r0, r0, r8, rrx
     29c:	00000042 	andeq	r0, r0, r2, asr #32
     2a0:	0100751b 	tsteq	r0, fp, lsl r5
     2a4:	00006811 	andeq	r6, r0, r1, lsl r8
     2a8:	00004200 	andeq	r4, r0, r0, lsl #4
     2ac:	00731c00 	rsbseq	r1, r3, r0, lsl #24
     2b0:	00681201 	rsbeq	r1, r8, r1, lsl #4
     2b4:	651b0000 	ldrvs	r0, [fp, #-0]
     2b8:	0100646e 	tsteq	r0, lr, ror #8
     2bc:	00002c15 	andeq	r2, r0, r5, lsl ip
     2c0:	00005500 	andeq	r5, r0, r0, lsl #10
     2c4:	06581d00 	ldrbeq	r1, [r8], -r0, lsl #26
     2c8:	16010000 	strne	r0, [r1], -r0
     2cc:	0000002c 	andeq	r0, r0, ip, lsr #32
     2d0:	201e5401 	andscs	r5, lr, r1, lsl #8
     2d4:	04000080 	streq	r0, [r0], #-128	; 0x80
     2d8:	eb000000 	bl	2e0 <_start-0x7d20>
     2dc:	16000002 	strne	r0, [r0], -r2
     2e0:	00000266 	andeq	r0, r0, r6, ror #4
     2e4:	002c1201 	eoreq	r1, ip, r1, lsl #4
     2e8:	1e000000 	cdpne	0, 0, cr0, cr0, cr0, {0}
     2ec:	00008024 	andeq	r8, r0, r4, lsr #32
     2f0:	00000004 	andeq	r0, r0, r4
     2f4:	00000306 	andeq	r0, r0, r6, lsl #6
     2f8:	0002661d 	andeq	r6, r2, sp, lsl r6
     2fc:	2c160100 	ldfcss	f0, [r6], {-0}
     300:	01000000 	mrseq	r0, (UNDEF: 0)
     304:	1a1f0054 	bne	7c045c <__bss_end__+0x7b5cf4>
     308:	28000002 	stmdacs	r0, {r1}
     30c:	1c000080 	stcne	0, cr0, [r0], {128}	; 0x80
     310:	01000000 	mrseq	r0, (UNDEF: 0)
     314:	00038319 	andeq	r8, r3, r9, lsl r3
     318:	02452000 	subeq	r2, r5, #0
     31c:	007e0000 	rsbseq	r0, lr, r0
     320:	3a210000 	bcc	840328 <__bss_end__+0x835bc0>
     324:	01000002 	tsteq	r0, r2
     328:	02312254 	eorseq	r2, r1, #84, 4	; 0x40000005
     32c:	21000000 	mrscs	r0, (UNDEF: 0)
     330:	00000226 	andeq	r0, r0, r6, lsr #4
     334:	ec1f5601 	ldc	6, cr5, [pc], {1}
     338:	34000001 	strcc	r0, [r0], #-1
     33c:	10000080 	andne	r0, r0, r0, lsl #1
     340:	02000000 	andeq	r0, r0, #0
     344:	00036d1a 	andeq	r6, r3, sl, lsl sp
     348:	02032000 	andeq	r2, r3, #0
     34c:	00910000 	addseq	r0, r1, r0
     350:	f8210000 			; <UNDEFINED> instruction: 0xf8210000
     354:	01000001 	tsteq	r0, r1
     358:	80342354 	eorshi	r2, r4, r4, asr r3
     35c:	00040000 	andeq	r0, r4, r0
     360:	0d240000 	stceq	0, cr0, [r4, #-0]
     364:	a4000002 	strge	r0, [r0], #-2
     368:	00000000 	andeq	r0, r0, r0
     36c:	80342500 	eorshi	r2, r4, r0, lsl #10
     370:	15380000 	ldrne	r0, [r8, #-0]!
     374:	01260000 	teqeq	r6, r0
     378:	26300151 			; <UNDEFINED> instruction: 0x26300151
     37c:	76025001 	strvc	r5, [r2], -r1
     380:	1f000000 	svcne	0x00000000
     384:	0000021a 	andeq	r0, r0, sl, lsl r2
     388:	00008048 	andeq	r8, r0, r8, asr #32
     38c:	0000001c 	andeq	r0, r0, ip, lsl r0
     390:	04061b01 	streq	r1, [r6], #-2817	; 0xb01
     394:	45200000 	strmi	r0, [r0, #-0]!
     398:	b7000002 	strlt	r0, [r0, -r2]
     39c:	21000000 	mrscs	r0, (UNDEF: 0)
     3a0:	0000023a 	andeq	r0, r0, sl, lsr r2
     3a4:	31205401 	teqcc	r0, r1, lsl #8
     3a8:	d9000002 	stmdble	r0, {r1}
     3ac:	21000000 	mrscs	r0, (UNDEF: 0)
     3b0:	00000226 	andeq	r0, r0, r6, lsr #4
     3b4:	ec1f5601 	ldc	6, cr5, [pc], {1}
     3b8:	54000001 	strpl	r0, [r0], #-1
     3bc:	10000080 	andne	r0, r0, r0, lsl #1
     3c0:	02000000 	andeq	r0, r0, #0
     3c4:	0003ed1a 	andeq	lr, r3, sl, lsl sp
     3c8:	02032000 	andeq	r2, r3, #0
     3cc:	010a0000 	mrseq	r0, (UNDEF: 10)
     3d0:	f8210000 			; <UNDEFINED> instruction: 0xf8210000
     3d4:	01000001 	tsteq	r0, r1
     3d8:	80542354 	subshi	r2, r4, r4, asr r3
     3dc:	00040000 	andeq	r0, r4, r0
     3e0:	0d240000 	stceq	0, cr0, [r4, #-0]
     3e4:	2c000002 	stccs	0, cr0, [r0], {2}
     3e8:	00000001 	andeq	r0, r0, r1
     3ec:	80542500 	subshi	r2, r4, r0, lsl #10
     3f0:	15380000 	ldrne	r0, [r8, #-0]!
     3f4:	01260000 	teqeq	r6, r0
     3f8:	00770451 	rsbseq	r0, r7, r1, asr r4
     3fc:	01261a31 	teqeq	r6, r1, lsr sl
     400:	00760250 	rsbseq	r0, r6, r0, asr r2
     404:	1a1f0000 	bne	7c040c <__bss_end__+0x7b5ca4>
     408:	68000002 	stmdavs	r0, {r1}
     40c:	1c000080 	stcne	0, cr0, [r0], {128}	; 0x80
     410:	01000000 	mrseq	r0, (UNDEF: 0)
     414:	00048e1d 	andeq	r8, r4, sp, lsl lr
     418:	02452000 	subeq	r2, r5, #0
     41c:	013f0000 	teqeq	pc, r0
     420:	3a210000 	bcc	840428 <__bss_end__+0x835cc0>
     424:	01000002 	tsteq	r0, r2
     428:	02312154 	eorseq	r2, r1, #84, 2
     42c:	77080000 	strvc	r0, [r8, -r0]
     430:	081a3200 	ldmdaeq	sl, {r9, ip, sp}
     434:	219f1aff 			; <UNDEFINED> instruction: 0x219f1aff
     438:	00000226 	andeq	r0, r0, r6, lsr #4
     43c:	ec1f5601 	ldc	6, cr5, [pc], {1}
     440:	74000001 	strvc	r0, [r0], #-1
     444:	10000080 	andne	r0, r0, r0, lsl #1
     448:	02000000 	andeq	r0, r0, #0
     44c:	0004751a 	andeq	r7, r4, sl, lsl r5
     450:	02032000 	andeq	r2, r3, #0
     454:	01640000 	cmneq	r4, r0
     458:	f8210000 			; <UNDEFINED> instruction: 0xf8210000
     45c:	01000001 	tsteq	r0, r1
     460:	80742354 	rsbshi	r2, r4, r4, asr r3
     464:	00040000 	andeq	r0, r4, r0
     468:	0d240000 	stceq	0, cr0, [r4, #-0]
     46c:	89000002 	stmdbhi	r0, {r1}
     470:	00000001 	andeq	r0, r0, r1
     474:	80742500 	rsbshi	r2, r4, r0, lsl #10
     478:	15380000 	ldrne	r0, [r8, #-0]!
     47c:	01260000 	teqeq	r6, r0
     480:	00770451 	rsbseq	r0, r7, r1, asr r4
     484:	01261a32 	teqeq	r6, r2, lsr sl
     488:	00760250 	rsbseq	r0, r6, r0, asr r2
     48c:	1a1f0000 	bne	7c0494 <__bss_end__+0x7b5d2c>
     490:	88000002 	stmdahi	r0, {r1}
     494:	1c000080 	stcne	0, cr0, [r0], {128}	; 0x80
     498:	01000000 	mrseq	r0, (UNDEF: 0)
     49c:	0005161f 	andeq	r1, r5, pc, lsl r6
     4a0:	02452000 	subeq	r2, r5, #0
     4a4:	019c0000 	orrseq	r0, ip, r0
     4a8:	3a210000 	bcc	8404b0 <__bss_end__+0x835d48>
     4ac:	01000002 	tsteq	r0, r2
     4b0:	02312154 	eorseq	r2, r1, #84, 2
     4b4:	77080000 	strvc	r0, [r8, -r0]
     4b8:	081a3400 	ldmdaeq	sl, {sl, ip, sp}
     4bc:	219f1aff 			; <UNDEFINED> instruction: 0x219f1aff
     4c0:	00000226 	andeq	r0, r0, r6, lsr #4
     4c4:	ec1f5601 	ldc	6, cr5, [pc], {1}
     4c8:	94000001 	strls	r0, [r0], #-1
     4cc:	10000080 	andne	r0, r0, r0, lsl #1
     4d0:	02000000 	andeq	r0, r0, #0
     4d4:	0004fd1a 	andeq	pc, r4, sl, lsl sp	; <UNPREDICTABLE>
     4d8:	02032000 	andeq	r2, r3, #0
     4dc:	01be0000 			; <UNDEFINED> instruction: 0x01be0000
     4e0:	f8210000 			; <UNDEFINED> instruction: 0xf8210000
     4e4:	01000001 	tsteq	r0, r1
     4e8:	80942354 	addshi	r2, r4, r4, asr r3
     4ec:	00040000 	andeq	r0, r4, r0
     4f0:	0d240000 	stceq	0, cr0, [r4, #-0]
     4f4:	e0000002 	and	r0, r0, r2
     4f8:	00000001 	andeq	r0, r0, r1
     4fc:	80942500 	addshi	r2, r4, r0, lsl #10
     500:	15380000 	ldrne	r0, [r8, #-0]!
     504:	01260000 	teqeq	r6, r0
     508:	00770451 	rsbseq	r0, r7, r1, asr r4
     50c:	01261a34 	teqeq	r6, r4, lsr sl
     510:	00760250 	rsbseq	r0, r6, r0, asr r2
     514:	1a1f0000 	bne	7c051c <__bss_end__+0x7b5db4>
     518:	a8000002 	stmdage	r0, {r1}
     51c:	1c000080 	stcne	0, cr0, [r0], {128}	; 0x80
     520:	01000000 	mrseq	r0, (UNDEF: 0)
     524:	00059e21 	andeq	r9, r5, r1, lsr #28
     528:	02452000 	subeq	r2, r5, #0
     52c:	01f30000 	mvnseq	r0, r0
     530:	3a210000 	bcc	840538 <__bss_end__+0x835dd0>
     534:	01000002 	tsteq	r0, r2
     538:	02312154 	eorseq	r2, r1, #84, 2
     53c:	77080000 	strvc	r0, [r8, -r0]
     540:	081a3800 	ldmdaeq	sl, {fp, ip, sp}
     544:	219f1aff 			; <UNDEFINED> instruction: 0x219f1aff
     548:	00000226 	andeq	r0, r0, r6, lsr #4
     54c:	ec1f5601 	ldc	6, cr5, [pc], {1}
     550:	b4000001 	strlt	r0, [r0], #-1
     554:	10000080 	andne	r0, r0, r0, lsl #1
     558:	02000000 	andeq	r0, r0, #0
     55c:	0005851a 	andeq	r8, r5, sl, lsl r5
     560:	02032000 	andeq	r2, r3, #0
     564:	02180000 	andseq	r0, r8, #0
     568:	f8210000 			; <UNDEFINED> instruction: 0xf8210000
     56c:	01000001 	tsteq	r0, r1
     570:	80b42354 	adcshi	r2, r4, r4, asr r3
     574:	00040000 	andeq	r0, r4, r0
     578:	0d240000 	stceq	0, cr0, [r4, #-0]
     57c:	3d000002 	stccc	0, cr0, [r0, #-8]
     580:	00000002 	andeq	r0, r0, r2
     584:	80b42500 	adcshi	r2, r4, r0, lsl #10
     588:	15380000 	ldrne	r0, [r8, #-0]!
     58c:	01260000 	teqeq	r6, r0
     590:	00770451 	rsbseq	r0, r7, r1, asr r4
     594:	01261a38 	teqeq	r6, r8, lsr sl
     598:	00760250 	rsbseq	r0, r6, r0, asr r2
     59c:	1a1f0000 	bne	7c05a4 <__bss_end__+0x7b5e3c>
     5a0:	c8000002 	stmdagt	r0, {r1}
     5a4:	1c000080 	stcne	0, cr0, [r0], {128}	; 0x80
     5a8:	01000000 	mrseq	r0, (UNDEF: 0)
     5ac:	00062623 	andeq	r2, r6, r3, lsr #12
     5b0:	02452000 	subeq	r2, r5, #0
     5b4:	02500000 	subseq	r0, r0, #0
     5b8:	3a210000 	bcc	8405c0 <__bss_end__+0x835e58>
     5bc:	01000002 	tsteq	r0, r2
     5c0:	02312154 	eorseq	r2, r1, #84, 2
     5c4:	77080000 	strvc	r0, [r8, -r0]
     5c8:	081a4000 	ldmdaeq	sl, {lr}
     5cc:	219f1aff 			; <UNDEFINED> instruction: 0x219f1aff
     5d0:	00000226 	andeq	r0, r0, r6, lsr #4
     5d4:	ec1f5601 	ldc	6, cr5, [pc], {1}
     5d8:	d4000001 	strle	r0, [r0], #-1
     5dc:	10000080 	andne	r0, r0, r0, lsl #1
     5e0:	02000000 	andeq	r0, r0, #0
     5e4:	00060d1a 	andeq	r0, r6, sl, lsl sp
     5e8:	02032000 	andeq	r2, r3, #0
     5ec:	02770000 	rsbseq	r0, r7, #0
     5f0:	f8210000 			; <UNDEFINED> instruction: 0xf8210000
     5f4:	01000001 	tsteq	r0, r1
     5f8:	80d42354 	sbcshi	r2, r4, r4, asr r3
     5fc:	00040000 	andeq	r0, r4, r0
     600:	0d240000 	stceq	0, cr0, [r4, #-0]
     604:	9e000002 	cdpls	0, 0, cr0, cr0, cr2, {0}
     608:	00000002 	andeq	r0, r0, r2
     60c:	80d42500 	sbcshi	r2, r4, r0, lsl #10
     610:	15380000 	ldrne	r0, [r8, #-0]!
     614:	01260000 	teqeq	r6, r0
     618:	00770451 	rsbseq	r0, r7, r1, asr r4
     61c:	01261a40 	teqeq	r6, r0, asr #20
     620:	00760250 	rsbseq	r0, r6, r0, asr r2
     624:	1a1f0000 	bne	7c062c <__bss_end__+0x7b5ec4>
     628:	e8000002 	stmda	r0, {r1}
     62c:	1c000080 	stcne	0, cr0, [r0], {128}	; 0x80
     630:	01000000 	mrseq	r0, (UNDEF: 0)
     634:	0006b025 	andeq	fp, r6, r5, lsr #32
     638:	02452000 	subeq	r2, r5, #0
     63c:	02b10000 	adcseq	r0, r1, #0
     640:	3a210000 	bcc	840648 <__bss_end__+0x835ee0>
     644:	01000002 	tsteq	r0, r2
     648:	02312154 	eorseq	r2, r1, #84, 2
     64c:	77090000 	strvc	r0, [r9, -r0]
     650:	1a200800 	bne	802658 <__bss_end__+0x7f7ef0>
     654:	9f1aff08 	svcls	0x001aff08
     658:	00022621 	andeq	r2, r2, r1, lsr #12
     65c:	1f560100 	svcne	0x00560100
     660:	000001ec 	andeq	r0, r0, ip, ror #3
     664:	000080f4 	strdeq	r8, [r0], -r4
     668:	00000010 	andeq	r0, r0, r0, lsl r0
     66c:	06961a02 	ldreq	r1, [r6], r2, lsl #20
     670:	03200000 	teqeq	r0, #0
     674:	db000002 	blle	684 <_start-0x797c>
     678:	21000002 	tstcs	r0, r2
     67c:	000001f8 	strdeq	r0, [r0], -r8
     680:	f4235401 	vld3.8	{d5-d7}, [r3], r1
     684:	04000080 	streq	r0, [r0], #-128	; 0x80
     688:	24000000 	strcs	r0, [r0], #-0
     68c:	0000020d 	andeq	r0, r0, sp, lsl #4
     690:	00000305 	andeq	r0, r0, r5, lsl #6
     694:	f4250000 	vld4.8	{d0-d3}, [r5], r0
     698:	38000080 	stmdacc	r0, {r7}
     69c:	26000015 			; <UNDEFINED> instruction: 0x26000015
     6a0:	77055101 	strvc	r5, [r5, -r1, lsl #2]
     6a4:	1a200800 	bne	8026ac <__bss_end__+0x7f7f44>
     6a8:	02500126 	subseq	r0, r0, #-2147483639	; 0x80000009
     6ac:	00000076 	andeq	r0, r0, r6, ror r0
     6b0:	00021a1f 	andeq	r1, r2, pc, lsl sl
     6b4:	00810800 	addeq	r0, r1, r0, lsl #16
     6b8:	00001c00 	andeq	r1, r0, r0, lsl #24
     6bc:	3a270100 	bcc	9c0ac4 <__bss_end__+0x9b635c>
     6c0:	20000007 	andcs	r0, r0, r7
     6c4:	00000245 	andeq	r0, r0, r5, asr #4
     6c8:	00000318 	andeq	r0, r0, r8, lsl r3
     6cc:	00023a21 	andeq	r3, r2, r1, lsr #20
     6d0:	21540100 	cmpcs	r4, r0, lsl #2
     6d4:	00000231 	andeq	r0, r0, r1, lsr r2
     6d8:	08007709 	stmdaeq	r0, {r0, r3, r8, r9, sl, ip, sp, lr}
     6dc:	ff081a40 			; <UNDEFINED> instruction: 0xff081a40
     6e0:	26219f1a 	qadd16cs	r9, r1, sl
     6e4:	01000002 	tsteq	r0, r2
     6e8:	01ec1f56 	mvneq	r1, r6, asr pc
     6ec:	81140000 	tsthi	r4, r0
     6f0:	00100000 	andseq	r0, r0, r0
     6f4:	1a020000 	bne	806fc <__bss_end__+0x75f94>
     6f8:	00000720 	andeq	r0, r0, r0, lsr #14
     6fc:	00020320 	andeq	r0, r2, r0, lsr #6
     700:	00033a00 	andeq	r3, r3, r0, lsl #20
     704:	01f82100 	mvnseq	r2, r0, lsl #2
     708:	54010000 	strpl	r0, [r1], #-0
     70c:	00811423 	addeq	r1, r1, r3, lsr #8
     710:	00000400 	andeq	r0, r0, r0, lsl #8
     714:	020d2400 	andeq	r2, sp, #0, 8
     718:	035c0000 	cmpeq	ip, #0
     71c:	00000000 	andeq	r0, r0, r0
     720:	00811425 	addeq	r1, r1, r5, lsr #8
     724:	00153800 	andseq	r3, r5, r0, lsl #16
     728:	51012600 	tstpl	r1, r0, lsl #12
     72c:	08007705 	stmdaeq	r0, {r0, r2, r8, r9, sl, ip, sp, lr}
     730:	01261a40 	teqeq	r6, r0, asr #20
     734:	00760250 	rsbseq	r0, r6, r0, asr r2
     738:	1a1f0000 	bne	7c0740 <__bss_end__+0x7b5fd8>
     73c:	28000002 	stmdacs	r0, {r1}
     740:	1c000081 	stcne	0, cr0, [r0], {129}	; 0x81
     744:	01000000 	mrseq	r0, (UNDEF: 0)
     748:	0007ba29 	andeq	fp, r7, r9, lsr #20
     74c:	02452100 	subeq	r2, r5, #0, 2
     750:	58010000 	stmdapl	r1, {}	; <UNPREDICTABLE>
     754:	00023a21 	andeq	r3, r2, r1, lsr #20
     758:	20540100 	subscs	r0, r4, r0, lsl #2
     75c:	00000231 	andeq	r0, r0, r1, lsr r2
     760:	0000036f 	andeq	r0, r0, pc, ror #6
     764:	00022621 	andeq	r2, r2, r1, lsr #12
     768:	1f560100 	svcne	0x00560100
     76c:	000001ec 	andeq	r0, r0, ip, ror #3
     770:	00008134 	andeq	r8, r0, r4, lsr r1
     774:	00000010 	andeq	r0, r0, r0, lsl r0
     778:	07a01a02 	streq	r1, [r0, r2, lsl #20]!
     77c:	03210000 	teqeq	r1, #0
     780:	01000002 	tsteq	r0, r2
     784:	01f82158 	mvnseq	r2, r8, asr r1
     788:	54010000 	strpl	r0, [r1], #-0
     78c:	00813423 	addeq	r3, r1, r3, lsr #8
     790:	00000400 	andeq	r0, r0, r0, lsl #8
     794:	020d2400 	andeq	r2, sp, #0, 8
     798:	03a20000 			; <UNDEFINED> instruction: 0x03a20000
     79c:	00000000 	andeq	r0, r0, r0
     7a0:	00813425 	addeq	r3, r1, r5, lsr #8
     7a4:	00153800 	andseq	r3, r5, r0, lsl #16
     7a8:	51012600 	tstpl	r1, r0, lsl #12
     7ac:	08007705 	stmdaeq	r0, {r0, r2, r8, r9, sl, ip, sp, lr}
     7b0:	01261a80 	smlawbeq	r6, r0, sl, r1
     7b4:	00760250 	rsbseq	r0, r6, r0, asr r2
     7b8:	1a270000 	bne	9c07c0 <__bss_end__+0x9b6058>
     7bc:	48000002 	stmdami	r0, {r1}
     7c0:	1c000081 	stcne	0, cr0, [r0], {129}	; 0x81
     7c4:	01000000 	mrseq	r0, (UNDEF: 0)
     7c8:	0245212b 	subeq	r2, r5, #-1073741814	; 0xc000000a
     7cc:	55010000 	strpl	r0, [r1, #-0]
     7d0:	00023a21 	andeq	r3, r2, r1, lsr #20
     7d4:	22540100 	subscs	r0, r4, #0, 2
     7d8:	00000231 	andeq	r0, r0, r1, lsr r2
     7dc:	02262101 	eoreq	r2, r6, #1073741824	; 0x40000000
     7e0:	56010000 	strpl	r0, [r1], -r0
     7e4:	0001ec1f 	andeq	lr, r1, pc, lsl ip
     7e8:	00815400 	addeq	r5, r1, r0, lsl #8
     7ec:	00001000 	andeq	r1, r0, r0
     7f0:	191a0200 	ldmdbne	sl, {r9}
     7f4:	21000008 	tstcs	r0, r8
     7f8:	00000203 	andeq	r0, r0, r3, lsl #4
     7fc:	f8215501 			; <UNDEFINED> instruction: 0xf8215501
     800:	01000001 	tsteq	r0, r1
     804:	81542354 	cmphi	r4, r4, asr r3
     808:	00040000 	andeq	r0, r4, r0
     80c:	0d240000 	stceq	0, cr0, [r4, #-0]
     810:	b5000002 	strlt	r0, [r0, #-2]
     814:	00000003 	andeq	r0, r0, r3
     818:	81542500 	cmphi	r4, r0, lsl #10
     81c:	15380000 	ldrne	r0, [r8, #-0]!
     820:	01260000 	teqeq	r6, r0
     824:	26310151 			; <UNDEFINED> instruction: 0x26310151
     828:	76025001 	strvc	r5, [r2], -r1
     82c:	00000000 	andeq	r0, r0, r0
     830:	017c0406 	cmneq	ip, r6, lsl #8
     834:	54280000 	strtpl	r0, [r8], #-0
     838:	01000004 	tsteq	r0, r4
     83c:	0000252f 	andeq	r2, r0, pc, lsr #10
     840:	08700300 	ldmdaeq	r0!, {r8, r9}^
     844:	72140000 	andsvc	r0, r4, #0
     848:	2f010078 	svccs	0x00010078
     84c:	00000025 	andeq	r0, r0, r5, lsr #32
     850:	01007614 	tsteq	r0, r4, lsl r6
     854:	0000252f 	andeq	r2, r0, pc, lsr #10
     858:	019d1300 	orrseq	r1, sp, r0, lsl #6
     85c:	2f010000 	svccs	0x00010000
     860:	0000002c 	andeq	r0, r0, ip, lsr #32
     864:	00065816 	andeq	r5, r6, r6, lsl r8
     868:	2c300100 	ldfcss	f0, [r0], #-0
     86c:	00000000 	andeq	r0, r0, r0
     870:	0000a629 	andeq	sl, r0, r9, lsr #12
     874:	253c0100 	ldrcs	r0, [ip, #-256]!	; 0x100
     878:	68000000 	stmdavs	r0, {}	; <UNPREDICTABLE>
     87c:	c8000081 	stmdagt	r0, {r0, r7}
     880:	01000001 	tsteq	r0, r1
     884:	000c2c9c 	muleq	ip, ip, ip
     888:	06291800 	strteq	r1, [r9], -r0, lsl #16
     88c:	3c010000 	stccc	0, cr0, [r1], {-0}
     890:	00000830 	andeq	r0, r0, r0, lsr r8
     894:	000003c8 	andeq	r0, r0, r8, asr #7
     898:	00019d18 	andeq	r9, r1, r8, lsl sp
     89c:	253c0100 	ldrcs	r0, [ip, #-256]!	; 0x100
     8a0:	0d000000 	stceq	0, cr0, [r0, #-0]
     8a4:	1a000004 	bne	8bc <_start-0x7744>
     8a8:	01007872 	tsteq	r0, r2, ror r8
     8ac:	0000253d 	andeq	r2, r0, sp, lsr r5
     8b0:	1b550100 	blne	1540cb8 <__bss_end__+0x1536550>
     8b4:	44010073 	strmi	r0, [r1], #-115	; 0x73
     8b8:	0000002c 	andeq	r0, r0, ip, lsr #32
     8bc:	0000042b 	andeq	r0, r0, fp, lsr #8
     8c0:	0100751b 	tsteq	r0, fp, lsl r5
     8c4:	00006847 	andeq	r6, r0, r7, asr #16
     8c8:	00043e00 	andeq	r3, r4, r0, lsl #28
     8cc:	006e1b00 	rsbeq	r1, lr, r0, lsl #22
     8d0:	002c4801 	eoreq	r4, ip, r1, lsl #16
     8d4:	04510000 	ldrbeq	r0, [r1], #-0
     8d8:	631b0000 	tstvs	fp, #0
     8dc:	2c490100 	stfcse	f0, [r9], {-0}
     8e0:	68000000 	stmdavs	r0, {}	; <UNPREDICTABLE>
     8e4:	1f000004 	svcne	0x00000004
     8e8:	00000836 	andeq	r0, r0, r6, lsr r8
     8ec:	0000817c 	andeq	r8, r0, ip, ror r1
     8f0:	00000034 	andeq	r0, r0, r4, lsr r0
     8f4:	094a4001 	stmdbeq	sl, {r0, lr}^
     8f8:	59200000 	stmdbpl	r0!, {}	; <UNPREDICTABLE>
     8fc:	92000008 	andls	r0, r0, #8
     900:	22000004 	andcs	r0, r0, #4
     904:	00000850 	andeq	r0, r0, r0, asr r8
     908:	08462100 	stmdaeq	r6, {r8, sp}^
     90c:	55010000 	strpl	r0, [r1, #-0]
     910:	00817c23 	addeq	r7, r1, r3, lsr #24
     914:	00003400 	andeq	r3, r0, r0, lsl #8
     918:	08642400 	stmdaeq	r4!, {sl, sp}^
     91c:	04b00000 	ldrteq	r0, [r0], #0
     920:	802a0000 	eorhi	r0, sl, r0
     924:	4e000081 	cdpmi	0, 0, cr0, cr0, cr1, {4}
     928:	2b000015 	blcs	984 <_start-0x767c>
     92c:	0000818c 	andeq	r8, r0, ip, lsl #3
     930:	00001559 	andeq	r1, r0, r9, asr r5
     934:	0000093f 	andeq	r0, r0, pc, lsr r9
     938:	02500126 	subseq	r0, r0, #-2147483639	; 0x80000009
     93c:	2a000075 	bcs	b18 <_start-0x74e8>
     940:	00008198 	muleq	r0, r8, r1
     944:	0000154e 	andeq	r1, r0, lr, asr #10
     948:	b81e0000 	ldmdalt	lr, {}	; <UNPREDICTABLE>
     94c:	04000081 	streq	r0, [r0], #-129	; 0x81
     950:	67000000 	strvs	r0, [r0, -r0]
     954:	2c000009 	stccs	0, cr0, [r0], {9}
     958:	00000266 	andeq	r0, r0, r6, ror #4
     95c:	002c4401 	eoreq	r4, ip, r1, lsl #8
     960:	04ce0000 	strbeq	r0, [lr], #0
     964:	1f000000 	svcne	0x00000000
     968:	000001ec 	andeq	r0, r0, ip, ror #3
     96c:	000081c4 	andeq	r8, r0, r4, asr #3
     970:	00000010 	andeq	r0, r0, r0, lsl r0
     974:	09a04c01 	stmibeq	r0!, {r0, sl, fp, lr}
     978:	03200000 	teqeq	r0, #0
     97c:	e1000002 	tst	r0, r2
     980:	20000004 	andcs	r0, r0, r4
     984:	000001f8 	strdeq	r0, [r0], -r8
     988:	00000506 	andeq	r0, r0, r6, lsl #10
     98c:	0081c423 	addeq	ip, r1, r3, lsr #8
     990:	00000400 	andeq	r0, r0, r0, lsl #8
     994:	020d2400 	andeq	r2, sp, #0, 8
     998:	05190000 	ldreq	r0, [r9, #-0]
     99c:	00000000 	andeq	r0, r0, r0
     9a0:	0001ec1f 	andeq	lr, r1, pc, lsl ip
     9a4:	0081e400 	addeq	lr, r1, r0, lsl #8
     9a8:	00001000 	andeq	r1, r0, r0
     9ac:	d9500100 	ldmdble	r0, {r8}^
     9b0:	20000009 	andcs	r0, r0, r9
     9b4:	00000203 	andeq	r0, r0, r3, lsl #4
     9b8:	0000052c 	andeq	r0, r0, ip, lsr #10
     9bc:	0001f820 	andeq	pc, r1, r0, lsr #16
     9c0:	00053f00 	andeq	r3, r5, r0, lsl #30
     9c4:	81e42300 	mvnhi	r2, r0, lsl #6
     9c8:	00040000 	andeq	r0, r4, r0
     9cc:	0d240000 	stceq	0, cr0, [r4, #-0]
     9d0:	52000002 	andpl	r0, r0, #2
     9d4:	00000005 	andeq	r0, r0, r5
     9d8:	01ec1f00 	mvneq	r1, r0, lsl #30
     9dc:	82080000 	andhi	r0, r8, #0
     9e0:	00100000 	andseq	r0, r0, r0
     9e4:	53010000 	movwpl	r0, #4096	; 0x1000
     9e8:	00000a12 	andeq	r0, r0, r2, lsl sl
     9ec:	00020320 	andeq	r0, r2, r0, lsr #6
     9f0:	00056500 	andeq	r6, r5, r0, lsl #10
     9f4:	01f82000 	mvnseq	r2, r0
     9f8:	05780000 	ldrbeq	r0, [r8, #-0]!
     9fc:	08230000 	stmdaeq	r3!, {}	; <UNPREDICTABLE>
     a00:	04000082 	streq	r0, [r0], #-130	; 0x82
     a04:	24000000 	strcs	r0, [r0], #-0
     a08:	0000020d 	andeq	r0, r0, sp, lsl #4
     a0c:	0000058b 	andeq	r0, r0, fp, lsl #11
     a10:	ec1f0000 	ldc	0, cr0, [pc], {-0}
     a14:	2c000001 	stccs	0, cr0, [r0], {1}
     a18:	10000082 	andne	r0, r0, r2, lsl #1
     a1c:	01000000 	mrseq	r0, (UNDEF: 0)
     a20:	000a4b56 	andeq	r4, sl, r6, asr fp
     a24:	02032000 	andeq	r2, r3, #0
     a28:	059e0000 	ldreq	r0, [lr]
     a2c:	f8200000 			; <UNDEFINED> instruction: 0xf8200000
     a30:	b1000001 	tstlt	r0, r1
     a34:	23000005 	movwcs	r0, #5
     a38:	0000822c 	andeq	r8, r0, ip, lsr #4
     a3c:	00000004 	andeq	r0, r0, r4
     a40:	00020d24 	andeq	r0, r2, r4, lsr #26
     a44:	0005c400 	andeq	ip, r5, r0, lsl #8
     a48:	1f000000 	svcne	0x00000000
     a4c:	000001ec 	andeq	r0, r0, ip, ror #3
     a50:	00008250 	andeq	r8, r0, r0, asr r2
     a54:	00000010 	andeq	r0, r0, r0, lsl r0
     a58:	0a845901 	beq	fe116e64 <__bss_end__+0xfe10c6fc>
     a5c:	03200000 	teqeq	r0, #0
     a60:	d7000002 	strle	r0, [r0, -r2]
     a64:	20000005 	andcs	r0, r0, r5
     a68:	000001f8 	strdeq	r0, [r0], -r8
     a6c:	000005ea 	andeq	r0, r0, sl, ror #11
     a70:	00825023 	addeq	r5, r2, r3, lsr #32
     a74:	00000400 	andeq	r0, r0, r0, lsl #8
     a78:	020d2400 	andeq	r2, sp, #0, 8
     a7c:	05fd0000 	ldrbeq	r0, [sp, #0]!
     a80:	00000000 	andeq	r0, r0, r0
     a84:	0001ec1f 	andeq	lr, r1, pc, lsl ip
     a88:	00827400 	addeq	r7, r2, r0, lsl #8
     a8c:	00001000 	andeq	r1, r0, r0
     a90:	bd5c0100 	ldflte	f0, [ip, #-0]
     a94:	2000000a 	andcs	r0, r0, sl
     a98:	00000203 	andeq	r0, r0, r3, lsl #4
     a9c:	00000610 	andeq	r0, r0, r0, lsl r6
     aa0:	0001f820 	andeq	pc, r1, r0, lsr #16
     aa4:	00062300 	andeq	r2, r6, r0, lsl #6
     aa8:	82742300 	rsbshi	r2, r4, #0, 6
     aac:	00040000 	andeq	r0, r4, r0
     ab0:	0d240000 	stceq	0, cr0, [r4, #-0]
     ab4:	36000002 	strcc	r0, [r0], -r2
     ab8:	00000006 	andeq	r0, r0, r6
     abc:	01ec1f00 	mvneq	r1, r0, lsl #30
     ac0:	82980000 	addshi	r0, r8, #0
     ac4:	00100000 	andseq	r0, r0, r0
     ac8:	5f010000 	svcpl	0x00010000
     acc:	00000af6 	strdeq	r0, [r0], -r6
     ad0:	00020320 	andeq	r0, r2, r0, lsr #6
     ad4:	00064900 	andeq	r4, r6, r0, lsl #18
     ad8:	01f82000 	mvnseq	r2, r0
     adc:	065c0000 	ldrbeq	r0, [ip], -r0
     ae0:	98230000 	stmdals	r3!, {}	; <UNPREDICTABLE>
     ae4:	04000082 	streq	r0, [r0], #-130	; 0x82
     ae8:	24000000 	strcs	r0, [r0], #-0
     aec:	0000020d 	andeq	r0, r0, sp, lsl #4
     af0:	0000066f 	andeq	r0, r0, pc, ror #12
     af4:	ec1f0000 	ldc	0, cr0, [pc], {-0}
     af8:	bc000001 	stclt	0, cr0, [r0], {1}
     afc:	10000082 	andne	r0, r0, r2, lsl #1
     b00:	01000000 	mrseq	r0, (UNDEF: 0)
     b04:	000b2b62 	andeq	r2, fp, r2, ror #22
     b08:	02032000 	andeq	r2, r3, #0
     b0c:	06820000 	streq	r0, [r2], r0
     b10:	f82d0000 			; <UNDEFINED> instruction: 0xf82d0000
     b14:	23000001 	movwcs	r0, #1
     b18:	000082bc 			; <UNDEFINED> instruction: 0x000082bc
     b1c:	00000004 	andeq	r0, r0, r4
     b20:	00020d24 	andeq	r0, r2, r4, lsr #26
     b24:	00069500 	andeq	r9, r6, r0, lsl #10
     b28:	1f000000 	svcne	0x00000000
     b2c:	00000836 	andeq	r0, r0, r6, lsr r8
     b30:	000082dc 	ldrdeq	r8, [r0], -ip
     b34:	00000034 	andeq	r0, r0, r4, lsr r0
     b38:	0b8f6901 	bleq	fe3daf44 <__bss_end__+0xfe3d07dc>
     b3c:	592d0000 	pushpl	{}	; <UNPREDICTABLE>
     b40:	20000008 	andcs	r0, r0, r8
     b44:	00000850 	andeq	r0, r0, r0, asr r8
     b48:	000006a8 	andeq	r0, r0, r8, lsr #13
     b4c:	00084620 	andeq	r4, r8, r0, lsr #12
     b50:	0006c800 	andeq	ip, r6, r0, lsl #16
     b54:	82dc2300 	sbcshi	r2, ip, #0, 6
     b58:	00340000 	eorseq	r0, r4, r0
     b5c:	64240000 	strtvs	r0, [r4], #-0
     b60:	e6000008 	str	r0, [r0], -r8
     b64:	2a000006 	bcs	b84 <_start-0x747c>
     b68:	000082e0 	andeq	r8, r0, r0, ror #5
     b6c:	0000154e 	andeq	r1, r0, lr, asr #10
     b70:	0082ec2b 	addeq	lr, r2, fp, lsr #24
     b74:	00155900 	andseq	r5, r5, r0, lsl #18
     b78:	000b8400 	andeq	r8, fp, r0, lsl #8
     b7c:	50012600 	andpl	r2, r1, r0, lsl #12
     b80:	00007502 	andeq	r7, r0, r2, lsl #10
     b84:	0082f82a 	addeq	pc, r2, sl, lsr #16
     b88:	00154e00 	andseq	r4, r5, r0, lsl #28
     b8c:	2b000000 	blcs	b94 <_start-0x746c>
     b90:	000081e0 	andeq	r8, r0, r0, ror #3
     b94:	00001559 	andeq	r1, r0, r9, asr r5
     b98:	00000ba3 	andeq	r0, r0, r3, lsr #23
     b9c:	02500126 	subseq	r0, r0, #-2147483639	; 0x80000009
     ba0:	2b000075 	blcs	d7c <_start-0x7284>
     ba4:	00008200 	andeq	r8, r0, r0, lsl #4
     ba8:	00001559 	andeq	r1, r0, r9, asr r5
     bac:	00000bb7 			; <UNDEFINED> instruction: 0x00000bb7
     bb0:	02500126 	subseq	r0, r0, #-2147483639	; 0x80000009
     bb4:	2b000075 	blcs	d90 <_start-0x7270>
     bb8:	00008224 	andeq	r8, r0, r4, lsr #4
     bbc:	00001559 	andeq	r1, r0, r9, asr r5
     bc0:	00000bcb 	andeq	r0, r0, fp, asr #23
     bc4:	02500126 	subseq	r0, r0, #-2147483639	; 0x80000009
     bc8:	2b000075 	blcs	da4 <_start-0x725c>
     bcc:	00008248 	andeq	r8, r0, r8, asr #4
     bd0:	00001559 	andeq	r1, r0, r9, asr r5
     bd4:	00000bdf 	ldrdeq	r0, [r0], -pc	; <UNPREDICTABLE>
     bd8:	02500126 	subseq	r0, r0, #-2147483639	; 0x80000009
     bdc:	2b000075 	blcs	db8 <_start-0x7248>
     be0:	0000826c 	andeq	r8, r0, ip, ror #4
     be4:	00001559 	andeq	r1, r0, r9, asr r5
     be8:	00000bf3 	strdeq	r0, [r0], -r3
     bec:	02500126 	subseq	r0, r0, #-2147483639	; 0x80000009
     bf0:	2b000075 	blcs	dcc <_start-0x7234>
     bf4:	00008290 	muleq	r0, r0, r2
     bf8:	00001559 	andeq	r1, r0, r9, asr r5
     bfc:	00000c07 	andeq	r0, r0, r7, lsl #24
     c00:	02500126 	subseq	r0, r0, #-2147483639	; 0x80000009
     c04:	2b000075 	blcs	de0 <_start-0x7220>
     c08:	000082b4 			; <UNDEFINED> instruction: 0x000082b4
     c0c:	00001559 	andeq	r1, r0, r9, asr r5
     c10:	00000c1b 	andeq	r0, r0, fp, lsl ip
     c14:	02500126 	subseq	r0, r0, #-2147483639	; 0x80000009
     c18:	25000075 	strcs	r0, [r0, #-117]	; 0x75
     c1c:	000082d4 	ldrdeq	r8, [r0], -r4
     c20:	00001559 	andeq	r1, r0, r9, asr r5
     c24:	02500126 	subseq	r0, r0, #-2147483639	; 0x80000009
     c28:	00000075 	andeq	r0, r0, r5, ror r0
     c2c:	0000bb29 	andeq	fp, r0, r9, lsr #22
     c30:	25740100 	ldrbcs	r0, [r4, #-256]!	; 0x100
     c34:	30000000 	andcc	r0, r0, r0
     c38:	90000083 	andls	r0, r0, r3, lsl #1
     c3c:	01000000 	mrseq	r0, (UNDEF: 0)
     c40:	000d109c 	muleq	sp, ip, r0
     c44:	00751900 	rsbseq	r1, r5, r0, lsl #18
     c48:	08307401 	ldmdaeq	r0!, {r0, sl, ip, sp, lr}
     c4c:	07040000 	streq	r0, [r4, -r0]
     c50:	62190000 	andsvs	r0, r9, #0
     c54:	01006675 	tsteq	r0, r5, ror r6
     c58:	000d1074 	andeq	r1, sp, r4, ror r0
     c5c:	00073800 	andeq	r3, r7, r0, lsl #16
     c60:	02fd1800 	rscseq	r1, sp, #0, 16
     c64:	74010000 	strvc	r0, [r1], #-0
     c68:	00000068 	andeq	r0, r0, r8, rrx
     c6c:	0000076c 	andeq	r0, r0, ip, ror #14
     c70:	646e6519 	strbtvs	r6, [lr], #-1305	; 0x519
     c74:	4f740100 	svcmi	0x00740100
     c78:	a5000000 	strge	r0, [r0, #-0]
     c7c:	2e000007 	cdpcs	0, 0, cr0, cr0, cr7, {0}
     c80:	00000326 	andeq	r0, r0, r6, lsr #6
     c84:	00687401 	rsbeq	r7, r8, r1, lsl #8
     c88:	91020000 	mrsls	r0, (UNDEF: 2)
     c8c:	01632f00 	cmneq	r3, r0, lsl #30
     c90:	0d260000 	stceq	0, cr0, [r6, #-0]
     c94:	03050000 	movweq	r0, #20480	; 0x5000
     c98:	00009b14 	andeq	r9, r0, r4, lsl fp
     c9c:	0100691b 	tsteq	r0, fp, lsl r9
     ca0:	00002578 	andeq	r2, r0, r8, ror r5
     ca4:	0007df00 	andeq	sp, r7, r0, lsl #30
     ca8:	02122c00 	andseq	r2, r2, #0, 24
     cac:	79010000 	stmdbvc	r1, {}	; <UNPREDICTABLE>
     cb0:	0000004f 	andeq	r0, r0, pc, asr #32
     cb4:	000007fe 	strdeq	r0, [r0], -lr
     cb8:	0083502a 	addeq	r5, r3, sl, lsr #32
     cbc:	00156e00 	andseq	r6, r5, r0, lsl #28
     cc0:	83642b00 	cmnhi	r4, #0, 22
     cc4:	15750000 	ldrbne	r0, [r5, #-0]!
     cc8:	0cf00000 	ldcleq	0, cr0, [r0]
     ccc:	01260000 	teqeq	r6, r0
     cd0:	75080253 	strvc	r0, [r8, #-595]	; 0x253
     cd4:	05520126 	ldrbeq	r0, [r2, #-294]	; 0x126
     cd8:	009b1403 	addseq	r1, fp, r3, lsl #8
     cdc:	51012600 	tstpl	r1, r0, lsl #12
     ce0:	9bb00305 	blls	fec018fc <__bss_end__+0xfebf7194>
     ce4:	01260000 	teqeq	r6, r0
     ce8:	94030550 	strls	r0, [r3], #-1360	; 0x550
     cec:	0000009b 	muleq	r0, fp, r0
     cf0:	0083682a 	addeq	r6, r3, sl, lsr #16
     cf4:	00158b00 	andseq	r8, r5, r0, lsl #22
     cf8:	83842500 	orrhi	r2, r4, #0, 10
     cfc:	08700000 	ldmdaeq	r0!, {}^	; <UNPREDICTABLE>
     d00:	01260000 	teqeq	r6, r0
     d04:	007a0251 	rsbseq	r0, sl, r1, asr r2
     d08:	02500126 	subseq	r0, r0, #-2147483639	; 0x80000009
     d0c:	00000078 	andeq	r0, r0, r8, ror r0
     d10:	004f0406 	subeq	r0, pc, r6, lsl #8
     d14:	90080000 	andls	r0, r8, r0
     d18:	26000000 	strcs	r0, [r0], -r0
     d1c:	0900000d 	stmdbeq	r0, {r0, r2, r3}
     d20:	00000081 	andeq	r0, r0, r1, lsl #1
     d24:	16070012 			; <UNDEFINED> instruction: 0x16070012
     d28:	2900000d 	stmdbcs	r0, {r0, r2, r3}
     d2c:	0000023a 	andeq	r0, r0, sl, lsr r2
     d30:	00258801 	eoreq	r8, r5, r1, lsl #16
     d34:	83c00000 	bichi	r0, r0, #0
     d38:	007c0000 	rsbseq	r0, ip, r0
     d3c:	9c010000 	stcls	0, cr0, [r1], {-0}
     d40:	00000df2 	strdeq	r0, [r0], -r2
     d44:	01007519 	tsteq	r0, r9, lsl r5
     d48:	00083088 	andeq	r3, r8, r8, lsl #1
     d4c:	00081100 	andeq	r1, r8, r0, lsl #2
     d50:	75621900 	strbvc	r1, [r2, #-2304]!	; 0x900
     d54:	88010066 	stmdahi	r1, {r1, r2, r5, r6}
     d58:	00000d10 	andeq	r0, r0, r0, lsl sp
     d5c:	00000845 	andeq	r0, r0, r5, asr #16
     d60:	0002fd18 	andeq	pc, r2, r8, lsl sp	; <UNPREDICTABLE>
     d64:	68890100 	stmvs	r9, {r8}
     d68:	79000000 	stmdbvc	r0, {}	; <UNPREDICTABLE>
     d6c:	18000008 	stmdane	r0, {r3}
     d70:	00000326 	andeq	r0, r0, r6, lsr #6
     d74:	00688901 	rsbeq	r8, r8, r1, lsl #18
     d78:	08b20000 	ldmeq	r2!, {}	; <UNPREDICTABLE>
     d7c:	632f0000 	teqvs	pc, #0
     d80:	02000001 	andeq	r0, r0, #1
     d84:	0500000e 	streq	r0, [r0, #-14]
     d88:	009b2803 	addseq	r2, fp, r3, lsl #16
     d8c:	00691b00 	rsbeq	r1, r9, r0, lsl #22
     d90:	00258e01 	eoreq	r8, r5, r1, lsl #28
     d94:	08e60000 	stmiaeq	r6!, {}^	; <UNPREDICTABLE>
     d98:	dc2a0000 	stcle	0, cr0, [sl], #-0
     d9c:	6e000083 	cdpvs	0, 0, cr0, cr0, cr3, {4}
     da0:	2b000015 	blcs	dfc <_start-0x7204>
     da4:	000083f0 	strdeq	r8, [r0], -r0
     da8:	00001575 	andeq	r1, r0, r5, ror r5
     dac:	00000dd2 	ldrdeq	r0, [r0], -r2
     db0:	02530126 	subseq	r0, r3, #-2147483639	; 0x80000009
     db4:	01268b08 	teqeq	r6, r8, lsl #22
     db8:	28030552 	stmdacs	r3, {r1, r4, r6, r8, sl}
     dbc:	2600009b 			; <UNDEFINED> instruction: 0x2600009b
     dc0:	03055101 	movweq	r5, #20737	; 0x5101
     dc4:	00009bb0 			; <UNDEFINED> instruction: 0x00009bb0
     dc8:	05500126 	ldrbeq	r0, [r0, #-294]	; 0x126
     dcc:	009b9403 	addseq	r9, fp, r3, lsl #8
     dd0:	f42a0000 	vld4.8	{d0-d3}, [sl], r0
     dd4:	8b000083 	blhi	fe8 <_start-0x7018>
     dd8:	25000015 	strcs	r0, [r0, #-21]
     ddc:	00008410 	andeq	r8, r0, r0, lsl r4
     de0:	00000870 	andeq	r0, r0, r0, ror r8
     de4:	02510126 	subseq	r0, r1, #-2147483639	; 0x80000009
     de8:	01260078 	teqeq	r6, r8, ror r0
     dec:	00770250 	rsbseq	r0, r7, r0, asr r2
     df0:	90080000 	andls	r0, r8, r0
     df4:	02000000 	andeq	r0, r0, #0
     df8:	0900000e 	stmdbeq	r0, {r1, r2, r3}
     dfc:	00000081 	andeq	r0, r0, r1, lsl #1
     e00:	f2070014 	vqadd.s8	d0, d7, d4
     e04:	2900000d 	stmdbcs	r0, {r0, r2, r3}
     e08:	00000189 	andeq	r0, r0, r9, lsl #3
     e0c:	017c9b01 	cmneq	ip, r1, lsl #22
     e10:	843c0000 	ldrthi	r0, [ip], #-0
     e14:	00c00000 	sbceq	r0, r0, r0
     e18:	9c010000 	stcls	0, cr0, [r1], {-0}
     e1c:	00000f22 	andeq	r0, r0, r2, lsr #30
     e20:	00787419 	rsbseq	r7, r8, r9, lsl r4
     e24:	004f9b01 	subeq	r9, pc, r1, lsl #22
     e28:	09050000 	stmdbeq	r5, {}	; <UNPREDICTABLE>
     e2c:	72190000 	andsvc	r0, r9, #0
     e30:	9b010078 	blls	41018 <__bss_end__+0x368b0>
     e34:	0000004f 	andeq	r0, r0, pc, asr #32
     e38:	00000926 	andeq	r0, r0, r6, lsr #18
     e3c:	00034518 	andeq	r4, r3, r8, lsl r5
     e40:	689b0100 	ldmvs	fp, {r8}
     e44:	47000000 	strmi	r0, [r0, -r0]
     e48:	2e000009 	cdpcs	0, 0, cr0, cr0, cr9, {0}
     e4c:	00000065 	andeq	r0, r0, r5, rrx
     e50:	00689b01 	rsbeq	r9, r8, r1, lsl #22
     e54:	91020000 	mrsls	r0, (UNDEF: 2)
     e58:	686d3000 	stmdavs	sp!, {ip, sp}^
     e5c:	a401007a 	strge	r0, [r1], #-122	; 0x7a
     e60:	0000002c 	andeq	r0, r0, ip, lsr #32
     e64:	29b92700 	ldmibcs	r9!, {r8, r9, sl, sp}
     e68:	0004192c 	andeq	r1, r4, ip, lsr #18
     e6c:	2ca50100 	stfcss	f0, [r5]
     e70:	65000000 	strvs	r0, [r0, #-0]
     e74:	2f000009 	svccs	0x00000009
     e78:	00000163 	andeq	r0, r0, r3, ror #2
     e7c:	00000f32 	andeq	r0, r0, r2, lsr pc
     e80:	9b400305 	blls	1001a9c <__bss_end__+0xff7334>
     e84:	701e0000 	andsvc	r0, lr, r0
     e88:	08000084 	stmdaeq	r0, {r2, r7}
     e8c:	9f000000 	svcls	0x00000000
     e90:	3100000e 	tstcc	r0, lr
     e94:	01006e69 	tsteq	r0, r9, ror #28
     e98:	00002ca0 	andeq	r2, r0, r0, lsr #25
     e9c:	2b000100 	blcs	12a4 <_start-0x6d5c>
     ea0:	0000845c 	andeq	r8, r0, ip, asr r4
     ea4:	00001592 	muleq	r0, r2, r5
     ea8:	00000eb3 			; <UNDEFINED> instruction: 0x00000eb3
     eac:	02500126 	subseq	r0, r0, #-2147483639	; 0x80000009
     eb0:	2b000076 	blcs	1090 <_start-0x6f70>
     eb4:	00008464 	andeq	r8, r0, r4, ror #8
     eb8:	000015a3 	andeq	r1, r0, r3, lsr #11
     ebc:	00000ec7 	andeq	r0, r0, r7, asr #29
     ec0:	02500126 	subseq	r0, r0, #-2147483639	; 0x80000009
     ec4:	2b000078 	blcs	10ac <_start-0x6f54>
     ec8:	00008470 	andeq	r8, r0, r0, ror r4
     ecc:	00001538 	andeq	r1, r0, r8, lsr r5
     ed0:	00000ee0 	andeq	r0, r0, r0, ror #29
     ed4:	01510126 	cmpeq	r1, r6, lsr #2
     ed8:	50012631 	andpl	r2, r1, r1, lsr r6
     edc:	00007602 	andeq	r7, r0, r2, lsl #12
     ee0:	0084bc2a 	addeq	fp, r4, sl, lsr #24
     ee4:	00156e00 	andseq	r6, r5, r0, lsl #28
     ee8:	84d02b00 	ldrbhi	r2, [r0], #2816	; 0xb00
     eec:	15750000 	ldrbne	r0, [r5, #-0]!
     ef0:	0f180000 	svceq	0x00180000
     ef4:	01260000 	teqeq	r6, r0
     ef8:	a6080253 			; <UNDEFINED> instruction: 0xa6080253
     efc:	05520126 	ldrbeq	r0, [r2, #-294]	; 0x126
     f00:	009b4003 	addseq	r4, fp, r3
     f04:	51012600 	tstpl	r1, r0, lsl #12
     f08:	9bb00305 	blls	fec01b24 <__bss_end__+0xfebf73bc>
     f0c:	01260000 	teqeq	r6, r0
     f10:	c4030550 	strgt	r0, [r3], #-1360	; 0x550
     f14:	0000009b 	muleq	r0, fp, r0
     f18:	0084d42a 	addeq	sp, r4, sl, lsr #8
     f1c:	00158b00 	andseq	r8, r5, r0, lsl #22
     f20:	90080000 	andls	r0, r8, r0
     f24:	32000000 	andcc	r0, r0, #0
     f28:	0900000f 	stmdbeq	r0, {r0, r1, r2, r3}
     f2c:	00000081 	andeq	r0, r0, r1, lsl #1
     f30:	22070013 	andcs	r0, r7, #19
     f34:	2900000f 	stmdbcs	r0, {r0, r1, r2, r3}
     f38:	0000011c 	andeq	r0, r0, ip, lsl r1
     f3c:	0025b201 	eoreq	fp, r5, r1, lsl #4
     f40:	84fc0000 	ldrbthi	r0, [ip], #0
     f44:	003c0000 	eorseq	r0, ip, r0
     f48:	9c010000 	stcls	0, cr0, [r1], {-0}
     f4c:	00000fda 	ldrdeq	r0, [r0], -sl
     f50:	00062918 	andeq	r2, r6, r8, lsl r9
     f54:	30b20100 	adcscc	r0, r2, r0, lsl #2
     f58:	93000008 	movwls	r0, #8
     f5c:	1b000009 	blne	f88 <_start-0x7078>
     f60:	00736572 	rsbseq	r6, r3, r2, ror r5
     f64:	0025b301 	eoreq	fp, r5, r1, lsl #6
     f68:	09b40000 	ldmibeq	r4!, {}	; <UNPREDICTABLE>
     f6c:	632f0000 	teqvs	pc, #0
     f70:	ea000001 	b	f7c <_start-0x7084>
     f74:	0500000f 	streq	r0, [r0, #-15]
     f78:	009b5403 	addseq	r5, fp, r3, lsl #8
     f7c:	85082b00 	strhi	r2, [r8, #-2816]	; 0xb00
     f80:	08700000 	ldmdaeq	r0!, {}^	; <UNPREDICTABLE>
     f84:	0f980000 	svceq	0x00980000
     f88:	01260000 	teqeq	r6, r0
     f8c:	ff090251 			; <UNDEFINED> instruction: 0xff090251
     f90:	03500126 	cmpeq	r0, #-2147483639	; 0x80000009
     f94:	005001f3 	ldrsheq	r0, [r0], #-19	; 0xffffffed
     f98:	0085142a 	addeq	r1, r5, sl, lsr #8
     f9c:	00156e00 	andseq	r6, r5, r0, lsl #28
     fa0:	85282b00 	strhi	r2, [r8, #-2816]!	; 0xb00
     fa4:	15750000 	ldrbne	r0, [r5, #-0]!
     fa8:	0fd00000 	svceq	0x00d00000
     fac:	01260000 	teqeq	r6, r0
     fb0:	b5080253 	strlt	r0, [r8, #-595]	; 0x253
     fb4:	05520126 	ldrbeq	r0, [r2, #-294]	; 0x126
     fb8:	009b5403 	addseq	r5, fp, r3, lsl #8
     fbc:	51012600 	tstpl	r1, r0, lsl #12
     fc0:	9bb00305 	blls	fec01bdc <__bss_end__+0xfebf7474>
     fc4:	01260000 	teqeq	r6, r0
     fc8:	08030550 	stmdaeq	r3, {r4, r6, r8, sl}
     fcc:	0000009c 	muleq	r0, ip, r0
     fd0:	00852c2a 	addeq	r2, r5, sl, lsr #24
     fd4:	00158b00 	andseq	r8, r5, r0, lsl #22
     fd8:	90080000 	andls	r0, r8, r0
     fdc:	ea000000 	b	fe4 <_start-0x701c>
     fe0:	0900000f 	stmdbeq	r0, {r0, r1, r2, r3}
     fe4:	00000081 	andeq	r0, r0, r1, lsl #1
     fe8:	da07000c 	ble	1c1020 <__bss_end__+0x1b68b8>
     fec:	1700000f 	strne	r0, [r0, -pc]
     ff0:	000001b7 			; <UNDEFINED> instruction: 0x000001b7
     ff4:	8538b901 	ldrhi	fp, [r8, #-2305]!	; 0x901
     ff8:	002c0000 	eoreq	r0, ip, r0
     ffc:	9c010000 	stcls	0, cr0, [r1], {-0}
    1000:	00001033 	andeq	r1, r0, r3, lsr r0
    1004:	00062918 	andeq	r2, r6, r8, lsl r9
    1008:	30b90100 	adcscc	r0, r9, r0, lsl #2
    100c:	c7000008 	strgt	r0, [r0, -r8]
    1010:	19000009 	stmdbne	r0, {r0, r3}
    1014:	0067736d 	rsbeq	r7, r7, sp, ror #6
    1018:	0097b901 	addseq	fp, r7, r1, lsl #18
    101c:	09e50000 	stmibeq	r5!, {}^	; <UNPREDICTABLE>
    1020:	50250000 	eorpl	r0, r5, r0
    1024:	51000085 	smlabbpl	r0, r5, r0, r0
    1028:	26000002 	strcs	r0, [r0], -r2
    102c:	75025001 	strvc	r5, [r2, #-1]
    1030:	29000000 	stmdbcs	r0, {}	; <UNPREDICTABLE>
    1034:	000001ce 	andeq	r0, r0, lr, asr #3
    1038:	0025c201 	eoreq	ip, r5, r1, lsl #4
    103c:	85640000 	strbhi	r0, [r4, #-0]!
    1040:	00840000 	addeq	r0, r4, r0
    1044:	9c010000 	stcls	0, cr0, [r1], {-0}
    1048:	00001127 	andeq	r1, r0, r7, lsr #2
    104c:	00062918 	andeq	r2, r6, r8, lsl r9
    1050:	30c20100 	sbccc	r0, r2, r0, lsl #2
    1054:	03000008 	movweq	r0, #8
    1058:	3200000a 	andcc	r0, r0, #10
    105c:	00746d66 	rsbseq	r6, r4, r6, ror #26
    1060:	0097c201 	addseq	ip, r7, r1, lsl #4
    1064:	91020000 	mrsls	r0, (UNDEF: 2)
    1068:	621a3374 	andsvs	r3, sl, #116, 6	; 0xd0000001
    106c:	01006675 	tsteq	r0, r5, ror r6
    1070:	001127c3 	andseq	r2, r1, r3, asr #15
    1074:	9c910300 	ldcls	3, cr0, [r1], {0}
    1078:	049e1d7c 	ldreq	r1, [lr], #3452	; 0xd7c
    107c:	c5010000 	strgt	r0, [r1, #-0]
    1080:	000001a9 	andeq	r0, r0, r9, lsr #3
    1084:	7c989103 	ldfvcd	f1, [r8], {3}
    1088:	007a731b 	rsbseq	r7, sl, fp, lsl r3
    108c:	0025c701 	eoreq	ip, r5, r1, lsl #14
    1090:	0a2f0000 	beq	bc1098 <__bss_end__+0xbb6930>
    1094:	632f0000 	teqvs	pc, #0
    1098:	48000001 	stmdami	r0, {r0}
    109c:	05000011 	streq	r0, [r0, #-17]
    10a0:	009b6403 	addseq	r6, fp, r3, lsl #8
    10a4:	858c2b00 	strhi	r2, [ip, #2816]	; 0xb00
    10a8:	15b40000 	ldrne	r0, [r4, #0]!
    10ac:	10ce0000 	sbcne	r0, lr, r0
    10b0:	01260000 	teqeq	r6, r0
    10b4:	58910253 	ldmpl	r1, {r0, r1, r4, r6, r9}
    10b8:	03520126 	cmpeq	r2, #-2147483639	; 0x80000009
    10bc:	26065491 			; <UNDEFINED> instruction: 0x26065491
    10c0:	0a035101 	beq	d54cc <__bss_end__+0xcad64>
    10c4:	012601cc 	smlawteq	r6, ip, r1, r0
    10c8:	fc910350 	ldc2	3, cr0, [r1], {80}	; 0x50
    10cc:	a02a007b 	eorge	r0, sl, fp, ror r0
    10d0:	6e000085 	cdpvs	0, 0, cr0, cr0, cr5, {4}
    10d4:	2b000015 	blcs	1130 <_start-0x6ed0>
    10d8:	000085b4 			; <UNDEFINED> instruction: 0x000085b4
    10dc:	00001575 	andeq	r1, r0, r5, ror r5
    10e0:	00001106 	andeq	r1, r0, r6, lsl #2
    10e4:	02530126 	subseq	r0, r3, #-2147483639	; 0x80000009
    10e8:	0126c908 	teqeq	r6, r8, lsl #18
    10ec:	64030552 	strvs	r0, [r3], #-1362	; 0x552
    10f0:	2600009b 			; <UNDEFINED> instruction: 0x2600009b
    10f4:	03055101 	movweq	r5, #20737	; 0x5101
    10f8:	00009bb0 			; <UNDEFINED> instruction: 0x00009bb0
    10fc:	05500126 	ldrbeq	r0, [r0, #-294]	; 0x126
    1100:	009c4003 	addseq	r4, ip, r3
    1104:	b82a0000 	stmdalt	sl!, {}	; <UNPREDICTABLE>
    1108:	8b000085 	blhi	1324 <_start-0x6cdc>
    110c:	25000015 	strcs	r0, [r0, #-21]
    1110:	000085c4 	andeq	r8, r0, r4, asr #11
    1114:	00000fef 	andeq	r0, r0, pc, ror #31
    1118:	03510126 	cmpeq	r1, #-2147483639	; 0x80000009
    111c:	267bfc91 			; <UNDEFINED> instruction: 0x267bfc91
    1120:	75025001 	strvc	r5, [r2, #-1]
    1124:	08000000 	stmdaeq	r0, {}	; <UNPREDICTABLE>
    1128:	00000090 	muleq	r0, r0, r0
    112c:	00001138 	andeq	r1, r0, r8, lsr r1
    1130:	00008134 	andeq	r8, r0, r4, lsr r1
    1134:	0001cb00 	andeq	ip, r1, r0, lsl #22
    1138:	00009008 	andeq	r9, r0, r8
    113c:	00114800 	andseq	r4, r1, r0, lsl #16
    1140:	00810900 	addeq	r0, r1, r0, lsl #18
    1144:	000e0000 	andeq	r0, lr, r0
    1148:	00113807 	andseq	r3, r1, r7, lsl #16
    114c:	03d52900 	bicseq	r2, r5, #0, 18
    1150:	ce010000 	cdpgt	0, 0, cr0, cr1, cr0, {0}
    1154:	00000025 	andeq	r0, r0, r5, lsr #32
    1158:	000085e8 	andeq	r8, r0, r8, ror #11
    115c:	0000004c 	andeq	r0, r0, ip, asr #32
    1160:	122a9c01 	eorne	r9, sl, #256	; 0x100
    1164:	75190000 	ldrvc	r0, [r9, #-0]
    1168:	30ce0100 	sbccc	r0, lr, r0, lsl #2
    116c:	6e000008 	cdpvs	0, 0, cr0, cr0, cr8, {0}
    1170:	1900000a 	stmdbne	r0, {r1, r3}
    1174:	00667562 	rsbeq	r7, r6, r2, ror #10
    1178:	0d10ce01 	ldceq	14, cr12, [r0, #-4]
    117c:	0a8f0000 	beq	fe3c1184 <__bss_end__+0xfe3b6a1c>
    1180:	fd180000 	ldc2	0, cr0, [r8, #-0]
    1184:	01000002 	tsteq	r0, r2
    1188:	000068ce 	andeq	r6, r0, lr, asr #17
    118c:	000ab000 	andeq	fp, sl, r0
    1190:	6e651900 	cdpvs	9, 6, cr1, cr5, cr0, {0}
    1194:	ce010064 	cdpgt	0, 0, cr0, cr1, cr4, {3}
    1198:	0000004f 	andeq	r0, r0, pc, asr #32
    119c:	00000ad1 	ldrdeq	r0, [r0], -r1
    11a0:	7365721b 	cmnvc	r5, #-1342177279	; 0xb0000001
    11a4:	25cf0100 	strbcs	r0, [pc, #256]	; 12ac <_start-0x6d54>
    11a8:	f2000000 	vhadd.s8	d0, d0, d0
    11ac:	2f00000a 	svccs	0x0000000a
    11b0:	00000163 	andeq	r0, r0, r3, ror #2
    11b4:	0000123a 	andeq	r1, r0, sl, lsr r2
    11b8:	9b740305 	blls	1d01dd4 <__bss_end__+0x1cf766c>
    11bc:	fc2b0000 	stc2	0, cr0, [fp], #-0
    11c0:	2c000085 	stccs	0, cr0, [r0], {133}	; 0x85
    11c4:	e800000c 	stmda	r0, {r2, r3}
    11c8:	26000011 			; <UNDEFINED> instruction: 0x26000011
    11cc:	f3035201 	vhsub.u8	d5, d3, d1
    11d0:	01265201 	teqeq	r6, r1, lsl #4
    11d4:	01f30351 	mvnseq	r0, r1, asr r3
    11d8:	50012651 	andpl	r2, r1, r1, asr r6
    11dc:	5001f303 	andpl	pc, r1, r3, lsl #6
    11e0:	007d0226 	rsbseq	r0, sp, r6, lsr #4
    11e4:	00ff0902 	rscseq	r0, pc, r2, lsl #18
    11e8:	0086082a 	addeq	r0, r6, sl, lsr #16
    11ec:	00156e00 	andseq	r6, r5, r0, lsl #28
    11f0:	861c2b00 	ldrhi	r2, [ip], -r0, lsl #22
    11f4:	15750000 	ldrbne	r0, [r5, #-0]!
    11f8:	12200000 	eorne	r0, r0, #0
    11fc:	01260000 	teqeq	r6, r0
    1200:	d1080253 	tstle	r8, r3, asr r2
    1204:	05520126 	ldrbeq	r0, [r2, #-294]	; 0x126
    1208:	009b7403 	addseq	r7, fp, r3, lsl #8
    120c:	51012600 	tstpl	r1, r0, lsl #12
    1210:	9bb00305 	blls	fec01e2c <__bss_end__+0xfebf76c4>
    1214:	01260000 	teqeq	r6, r0
    1218:	08030550 	stmdaeq	r3, {r4, r6, r8, sl}
    121c:	0000009c 	muleq	r0, ip, r0
    1220:	0086202a 	addeq	r2, r6, sl, lsr #32
    1224:	00158b00 	andseq	r8, r5, r0, lsl #22
    1228:	90080000 	andls	r0, r8, r0
    122c:	3a000000 	bcc	1234 <_start-0x6dcc>
    1230:	09000012 	stmdbeq	r0, {r1, r4}
    1234:	00000081 	andeq	r0, r0, r1, lsl #1
    1238:	2a070016 	bcs	1c1298 <__bss_end__+0x1b6b30>
    123c:	17000012 	smladne	r0, r2, r0, r0
    1240:	00000b7c 	andeq	r0, r0, ip, ror fp
    1244:	8634e101 	ldrthi	lr, [r4], -r1, lsl #2
    1248:	00ec0000 	rsceq	r0, ip, r0
    124c:	9c010000 	stcls	0, cr0, [r1], {-0}
    1250:	000012fc 	strdeq	r1, [r0], -ip
    1254:	00637019 	rsbeq	r7, r3, r9, lsl r0
    1258:	002ce101 	eoreq	lr, ip, r1, lsl #2
    125c:	0b100000 	bleq	401264 <__bss_end__+0x3f6afc>
    1260:	731a0000 	tstvc	sl, #0
    1264:	2ce80100 	stfcse	f0, [r8]
    1268:	01000000 	mrseq	r0, (UNDEF: 0)
    126c:	86381e54 			; <UNDEFINED> instruction: 0x86381e54
    1270:	00040000 	andeq	r0, r4, r0
    1274:	12880000 	addne	r0, r8, #0
    1278:	661d0000 	ldrvs	r0, [sp], -r0
    127c:	01000002 	tsteq	r0, r2
    1280:	00002ce8 	andeq	r2, r0, r8, ror #25
    1284:	00540100 	subseq	r0, r4, r0, lsl #2
    1288:	0086402a 	addeq	r4, r6, sl, lsr #32
    128c:	0015d800 	andseq	sp, r5, r0, lsl #16
    1290:	86482b00 	strbhi	r2, [r8], -r0, lsl #22
    1294:	15df0000 	ldrbne	r0, [pc]	; 129c <_start-0x6d64>
    1298:	12a50000 	adcne	r0, r5, #0
    129c:	01260000 	teqeq	r6, r0
    12a0:	31080250 	tstcc	r8, r0, asr r2
    12a4:	86582b00 	ldrbhi	r2, [r8], -r0, lsl #22
    12a8:	15df0000 	ldrbne	r0, [pc]	; 12b0 <_start-0x6d50>
    12ac:	12b90000 	adcsne	r0, r9, #0
    12b0:	01260000 	teqeq	r6, r0
    12b4:	32080250 	andcc	r0, r8, #80, 4
    12b8:	86682b00 	strbthi	r2, [r8], -r0, lsl #22
    12bc:	15590000 	ldrbne	r0, [r9, #-0]
    12c0:	12cc0000 	sbcne	r0, ip, #0
    12c4:	01260000 	teqeq	r6, r0
    12c8:	00440150 	subeq	r0, r4, r0, asr r1
    12cc:	0086b82b 	addeq	fp, r6, fp, lsr #16
    12d0:	00155900 	andseq	r5, r5, r0, lsl #18
    12d4:	0012df00 	andseq	sp, r2, r0, lsl #30
    12d8:	50012600 	andpl	r2, r1, r0, lsl #12
    12dc:	2b004401 	blcs	122e8 <__bss_end__+0x7b80>
    12e0:	00008710 	andeq	r8, r0, r0, lsl r7
    12e4:	000015f4 	strdeq	r1, [r0], -r4
    12e8:	000012f2 	strdeq	r1, [r0], -r2
    12ec:	01500126 	cmpeq	r0, r6, lsr #2
    12f0:	142a0044 	strtne	r0, [sl], #-68	; 0x44
    12f4:	d8000087 	stmdale	r0, {r0, r1, r2, r7}
    12f8:	00000015 	andeq	r0, r0, r5, lsl r0
    12fc:	00004217 	andeq	r4, r0, r7, lsl r2
    1300:	20ff0100 	rscscs	r0, pc, r0, lsl #2
    1304:	08000087 	stmdaeq	r0, {r0, r1, r2, r7}
    1308:	01000001 	tsteq	r0, r1
    130c:	0014b29c 	mulseq	r4, ip, r2
    1310:	00753500 	rsbseq	r3, r5, r0, lsl #10
    1314:	7c010601 	stcvc	6, cr0, [r1], {1}
    1318:	02000001 	andeq	r0, r0, #1
    131c:	632f5c91 	teqvs	pc, #37120	; 0x9100
    1320:	b2000001 	andlt	r0, r0, #1
    1324:	05000014 	streq	r0, [r0, #-20]
    1328:	009b8c03 	addseq	r8, fp, r3, lsl #24
    132c:	00623600 	rsbeq	r3, r2, r0, lsl #12
    1330:	2c011201 	sfmcs	f1, 4, [r1], {1}
    1334:	55000000 	strpl	r0, [r0, #-0]
    1338:	01006537 	tsteq	r0, r7, lsr r5
    133c:	14b70116 	ldrtne	r0, [r7], #278	; 0x116
    1340:	0b310000 	bleq	c41348 <__bss_end__+0xc36be0>
    1344:	2c1e0000 	ldccs	0, cr0, [lr], {-0}
    1348:	08000087 	stmdaeq	r0, {r0, r1, r2, r7}
    134c:	60000000 	andvs	r0, r0, r0
    1350:	36000013 			; <UNDEFINED> instruction: 0x36000013
    1354:	01006e69 	tsteq	r0, r9, ror #28
    1358:	002c0101 	eoreq	r0, ip, r1, lsl #2
    135c:	00010000 	andeq	r0, r1, r0
    1360:	00000038 	andeq	r0, r0, r8, lsr r0
    1364:	00138800 	andseq	r8, r3, r0, lsl #16
    1368:	00693700 	rsbeq	r3, r9, r0, lsl #14
    136c:	25011701 	strcs	r1, [r1, #-1793]	; 0x701
    1370:	54000000 	strpl	r0, [r0], #-0
    1374:	2500000b 	strcs	r0, [r0, #-11]
    1378:	000087e0 	andeq	r8, r0, r0, ror #15
    137c:	00001575 	andeq	r1, r0, r5, ror r5
    1380:	02500126 	subseq	r0, r0, #-2147483639	; 0x80000009
    1384:	00000077 	andeq	r0, r0, r7, ror r0
    1388:	00872c2a 	addeq	r2, r7, sl, lsr #24
    138c:	00160500 	andseq	r0, r6, r0, lsl #10
    1390:	87382a00 	ldrhi	r2, [r8, -r0, lsl #20]!
    1394:	160c0000 	strne	r0, [ip], -r0
    1398:	542b0000 	strtpl	r0, [fp], #-0
    139c:	07000087 	streq	r0, [r0, -r7, lsl #1]
    13a0:	c800000e 	stmdagt	r0, {r1, r2, r3}
    13a4:	26000013 			; <UNDEFINED> instruction: 0x26000013
    13a8:	08045301 	stmdaeq	r4, {r0, r8, r9, ip, lr}
    13ac:	262439e1 	strtcs	r3, [r4], -r1, ror #19
    13b0:	44015201 	strmi	r5, [r1], #-513	; 0x201
    13b4:	01510126 	cmpeq	r1, r6, lsr #2
    13b8:	50012645 	andpl	r2, r1, r5, asr #12
    13bc:	26549102 	ldrbcs	r9, [r4], -r2, lsl #2
    13c0:	03007d02 	movweq	r7, #3330	; 0xd02
    13c4:	0017bc0a 	andseq	fp, r7, sl, lsl #24
    13c8:	00875c2b 	addeq	r5, r7, fp, lsr #24
    13cc:	00161300 	andseq	r1, r6, r0, lsl #6
    13d0:	0013db00 	andseq	sp, r3, r0, lsl #22
    13d4:	50012600 	andpl	r2, r1, r0, lsl #12
    13d8:	2b004401 	blcs	123e4 <__bss_end__+0x7c7c>
    13dc:	00008764 	andeq	r8, r0, r4, ror #14
    13e0:	00001624 	andeq	r1, r0, r4, lsr #12
    13e4:	000013ee 	andeq	r1, r0, lr, ror #7
    13e8:	01500126 	cmpeq	r0, r6, lsr #2
    13ec:	682a0044 	stmdavs	sl!, {r2, r6}
    13f0:	35000087 	strcc	r0, [r0, #-135]	; 0x87
    13f4:	2b000016 	blcs	1454 <_start-0x6bac>
    13f8:	00008770 	andeq	r8, r0, r0, ror r7
    13fc:	00001559 	andeq	r1, r0, r9, asr r5
    1400:	0000140a 	andeq	r1, r0, sl, lsl #8
    1404:	01500126 	cmpeq	r0, r6, lsr #2
    1408:	802a0044 	eorhi	r0, sl, r4, asr #32
    140c:	6e000087 	cdpvs	0, 0, cr0, cr0, cr7, {4}
    1410:	2b000015 	blcs	146c <_start-0x6b94>
    1414:	00008794 	muleq	r0, r4, r7
    1418:	00001575 	andeq	r1, r0, r5, ror r5
    141c:	00001443 	andeq	r1, r0, r3, asr #8
    1420:	03530126 	cmpeq	r3, #-2147483639	; 0x80000009
    1424:	26010c0a 	strcs	r0, [r1], -sl, lsl #24
    1428:	03055201 	movweq	r5, #20993	; 0x5201
    142c:	00009b8c 	andeq	r9, r0, ip, lsl #23
    1430:	05510126 	ldrbeq	r0, [r1, #-294]	; 0x126
    1434:	009bb003 	addseq	fp, fp, r3
    1438:	50012600 	andpl	r2, r1, r0, lsl #12
    143c:	9c640305 	stclls	3, cr0, [r4], #-20	; 0xffffffec
    1440:	2a000000 	bcs	1448 <_start-0x6bb8>
    1444:	00008798 	muleq	r0, r8, r7
    1448:	0000158b 	andeq	r1, r0, fp, lsl #11
    144c:	0087a42b 	addeq	sl, r7, fp, lsr #8
    1450:	00025100 	andeq	r5, r2, r0, lsl #2
    1454:	00146600 	andseq	r6, r4, r0, lsl #12
    1458:	51012600 	tstpl	r1, r0, lsl #12
    145c:	26550802 	ldrbcs	r0, [r5], -r2, lsl #16
    1460:	91025001 	tstls	r2, r1
    1464:	ac2b0054 	stcge	0, cr0, [fp], #-336	; 0xfffffeb0
    1468:	3c000087 	stccc	0, cr0, [r0], {135}	; 0x87
    146c:	7a000016 	bvc	14cc <_start-0x6b34>
    1470:	26000014 			; <UNDEFINED> instruction: 0x26000014
    1474:	08025001 	stmdaeq	r2, {r0, ip, lr}
    1478:	bc2b0064 	stclt	0, cr0, [fp], #-400	; 0xfffffe70
    147c:	75000087 	strvc	r0, [r0, #-135]	; 0x87
    1480:	91000015 	tstls	r0, r5, lsl r0
    1484:	26000014 			; <UNDEFINED> instruction: 0x26000014
    1488:	03055001 	movweq	r5, #20481	; 0x5001
    148c:	00009c94 	muleq	r0, r4, ip
    1490:	87fc2b00 	ldrbhi	r2, [ip, r0, lsl #22]!
    1494:	15750000 	ldrbne	r0, [r5, #-0]!
    1498:	14a80000 	strtne	r0, [r8], #0
    149c:	01260000 	teqeq	r6, r0
    14a0:	b0030550 	andlt	r0, r3, r0, asr r5
    14a4:	0000009c 	muleq	r0, ip, r0
    14a8:	0088002a 	addeq	r0, r8, sl, lsr #32
    14ac:	00158b00 	andseq	r8, r5, r0, lsl #22
    14b0:	a2070000 	andge	r0, r7, #0
    14b4:	06000000 	streq	r0, [r0], -r0
    14b8:	0001c904 	andeq	ip, r1, r4, lsl #18
    14bc:	03521d00 	cmpeq	r2, #0, 26
    14c0:	d7010000 	strle	r0, [r1, -r0]
    14c4:	00000140 	andeq	r0, r0, r0, asr #2
    14c8:	9f500305 	svcls	0x00500305
    14cc:	c61d0000 	ldrgt	r0, [sp], -r0
    14d0:	01000003 	tsteq	r0, r3
    14d4:	000140d7 	ldrdeq	r4, [r1], -r7
    14d8:	44030500 	strmi	r0, [r3], #-1280	; 0x500
    14dc:	1d00009f 	stcne	0, cr0, [r0, #-636]	; 0xfffffd84
    14e0:	000000ce 	andeq	r0, r0, lr, asr #1
    14e4:	0140de01 	cmpeq	r0, r1, lsl #28
    14e8:	03050000 	movweq	r0, #20480	; 0x5000
    14ec:	00009f48 	andeq	r9, r0, r8, asr #30
    14f0:	00024f1d 	andeq	r4, r2, sp, lsl pc
    14f4:	01df0100 	bicseq	r0, pc, r0, lsl #2
    14f8:	05000015 	streq	r0, [r0, #-21]
    14fc:	009f4c03 	addseq	r4, pc, r3, lsl #24
    1500:	00250c00 	eoreq	r0, r5, r0, lsl #24
    1504:	64390000 	ldrtvs	r0, [r9], #-0
    1508:	05000004 	streq	r0, [r0, #-4]
    150c:	0000d380 	andeq	sp, r0, r0, lsl #7
    1510:	60030500 	andvs	r0, r3, r0, lsl #10
    1514:	080000a3 	stmdaeq	r0, {r0, r1, r5, r7}
    1518:	000001c9 	andeq	r0, r0, r9, asr #3
    151c:	00001527 	andeq	r1, r0, r7, lsr #10
    1520:	00008109 	andeq	r8, r0, r9, lsl #2
    1524:	39007f00 	stmdbcc	r0, {r8, r9, sl, fp, ip, sp, lr}
    1528:	000000cf 	andeq	r0, r0, pc, asr #1
    152c:	1517dd01 	ldrne	sp, [r7, #-3329]	; 0xd01
    1530:	03050000 	movweq	r0, #20480	; 0x5000
    1534:	0000a364 	andeq	sl, r0, r4, ror #6
    1538:	0000373a 	andeq	r3, r0, sl, lsr r7
    153c:	4e210400 	cdpmi	4, 2, cr0, cr1, cr0, {0}
    1540:	3b000015 	blcc	159c <_start-0x6a64>
    1544:	0000002c 	andeq	r0, r0, ip, lsr #32
    1548:	00002c3b 	andeq	r2, r0, fp, lsr ip
    154c:	6b3c0000 	blvs	f01554 <__bss_end__+0xef6dec>
    1550:	09000002 	stmdbeq	r0, {r1}
    1554:	00002c57 	andeq	r2, r0, r7, asr ip
    1558:	01dd3d00 	bicseq	r3, sp, r0, lsl #26
    155c:	24040000 	strcs	r0, [r4], #-0
    1560:	00000025 	andeq	r0, r0, r5, lsr #32
    1564:	0000156e 	andeq	r1, r0, lr, ror #10
    1568:	00002c3b 	andeq	r2, r0, fp, lsr ip
    156c:	283e0000 	ldmdacs	lr!, {}	; <UNPREDICTABLE>
    1570:	09000000 	stmdbeq	r0, {}	; <UNPREDICTABLE>
    1574:	01c73d1e 	biceq	r3, r7, lr, lsl sp
    1578:	29090000 	stmdbcs	r9, {}	; <UNPREDICTABLE>
    157c:	00000025 	andeq	r0, r0, r5, lsr #32
    1580:	0000158b 	andeq	r1, r0, fp, lsl #11
    1584:	0000973b 	andeq	r9, r0, fp, lsr r7
    1588:	3e003300 	cdpcc	3, 0, cr3, cr0, cr0, {0}
    158c:	000001e7 	andeq	r0, r0, r7, ror #3
    1590:	443a6609 	ldrtmi	r6, [sl], #-1545	; 0x609
    1594:	04000004 	streq	r0, [r0], #-4
    1598:	0015a31d 	andseq	sl, r5, sp, lsl r3
    159c:	002c3b00 	eoreq	r3, ip, r0, lsl #22
    15a0:	3a000000 	bcc	15a8 <_start-0x6a58>
    15a4:	000003b7 			; <UNDEFINED> instruction: 0x000003b7
    15a8:	15b41c04 	ldrne	r1, [r4, #3076]!	; 0xc04
    15ac:	2c3b0000 	ldccs	0, cr0, [fp], #-0
    15b0:	00000000 	andeq	r0, r0, r0
    15b4:	0001c43d 	andeq	ip, r1, sp, lsr r4
    15b8:	25020a00 	strcs	r0, [r2, #-2560]	; 0xa00
    15bc:	d8000000 	stmdale	r0, {}	; <UNPREDICTABLE>
    15c0:	3b000015 	blcc	161c <_start-0x69e4>
    15c4:	0000008a 	andeq	r0, r0, sl, lsl #1
    15c8:	0000253b 	andeq	r2, r0, fp, lsr r5
    15cc:	00973b00 	addseq	r3, r7, r0, lsl #22
    15d0:	a93b0000 	ldmdbge	fp!, {}	; <UNPREDICTABLE>
    15d4:	00000001 	andeq	r0, r0, r1
    15d8:	0001103e 	andeq	r1, r1, lr, lsr r0
    15dc:	3d870900 	stccc	9, cr0, [r7]
    15e0:	00000492 	muleq	r0, r2, r4
    15e4:	00253804 	eoreq	r3, r5, r4, lsl #16
    15e8:	15f40000 	ldrbne	r0, [r4, #0]!
    15ec:	2c3b0000 	ldccs	0, cr0, [fp], #-0
    15f0:	00000000 	andeq	r0, r0, r0
    15f4:	0001523a 	andeq	r5, r1, sl, lsr r2
    15f8:	054e0400 	strbeq	r0, [lr, #-1024]	; 0x400
    15fc:	3b000016 	blcc	165c <_start-0x69a4>
    1600:	0000002c 	andeq	r0, r0, ip, lsr #32
    1604:	005b3e00 	subseq	r3, fp, r0, lsl #28
    1608:	3a090000 	bcc	241610 <__bss_end__+0x236ea8>
    160c:	00025d3e 	andeq	r5, r2, lr, lsr sp
    1610:	3a330b00 	bcc	cc4218 <__bss_end__+0xcb9ab0>
    1614:	000001f4 	strdeq	r0, [r0], -r4
    1618:	16243f04 	strtne	r3, [r4], -r4, lsl #30
    161c:	2c3b0000 	ldccs	0, cr0, [fp], #-0
    1620:	00000000 	andeq	r0, r0, r0
    1624:	00047c3a 	andeq	r7, r4, sl, lsr ip
    1628:	35460400 	strbcc	r0, [r6, #-1024]	; 0x400
    162c:	3b000016 	blcc	168c <_start-0x6974>
    1630:	0000002c 	andeq	r0, r0, ip, lsr #32
    1634:	027e3e00 	rsbseq	r3, lr, #0, 28
    1638:	310b0000 	mrscc	r0, (UNDEF: 11)
    163c:	0003333f 	andeq	r3, r3, pc, lsr r3
    1640:	3b500900 	blcc	1403a48 <__bss_end__+0x13f92e0>
    1644:	0000002c 	andeq	r0, r0, ip, lsr #32
    1648:	01910000 	orrseq	r0, r1, r0
    164c:	00040000 	andeq	r0, r4, r0
    1650:	00000341 	andeq	r0, r0, r1, asr #6
    1654:	03600104 	cmneq	r0, #4, 2
    1658:	ce010000 	cdpgt	0, 0, cr0, cr1, cr0, {0}
    165c:	dc000004 	stcle	0, cr0, [r0], {4}
    1660:	28000004 	stmdacs	r0, {r2}
    1664:	58000088 	stmdapl	r0, {r3, r7}
    1668:	1c000000 	stcne	0, cr0, [r0], {-0}
    166c:	02000004 	andeq	r0, r0, #4
    1670:	0000021a 	andeq	r0, r0, sl, lsl r2
    1674:	00302802 	eorseq	r2, r0, r2, lsl #16
    1678:	e8030000 	stmda	r3, {}	; <UNPREDICTABLE>
    167c:	04000000 	streq	r0, [r0], #-0
    1680:	00470003 	subeq	r0, r7, r3
    1684:	ff040000 			; <UNDEFINED> instruction: 0xff040000
    1688:	47000003 	strmi	r0, [r0, -r3]
    168c:	00000000 	andeq	r0, r0, r0
    1690:	02040500 	andeq	r0, r4, #0, 10
    1694:	000000ea 	andeq	r0, r0, sl, ror #1
    1698:	00256202 	eoreq	r6, r5, r2, lsl #4
    169c:	04060000 	streq	r0, [r6], #-0
    16a0:	746e6905 	strbtvc	r6, [lr], #-2309	; 0x905
    16a4:	07040700 	streq	r0, [r4, -r0, lsl #14]
    16a8:	0000007b 	andeq	r0, r0, fp, ror r0
    16ac:	10060107 	andne	r0, r6, r7, lsl #2
    16b0:	07000003 	streq	r0, [r0, -r3]
    16b4:	031c0502 	tsteq	ip, #8388608	; 0x800000
    16b8:	04070000 	streq	r0, [r7], #-0
    16bc:	00009d05 	andeq	r9, r0, r5, lsl #26
    16c0:	05080700 	streq	r0, [r8, #-1792]	; 0x700
    16c4:	00000098 	muleq	r0, r8, r0
    16c8:	0e080107 	adfeqe	f0, f0, f7
    16cc:	07000003 	streq	r0, [r0, -r3]
    16d0:	01760702 	cmneq	r6, r2, lsl #14
    16d4:	04070000 	streq	r0, [r7], #-0
    16d8:	00007607 	andeq	r7, r0, r7, lsl #12
    16dc:	07080700 	streq	r0, [r8, -r0, lsl #14]
    16e0:	00000071 	andeq	r0, r0, r1, ror r0
    16e4:	09070407 	stmdbeq	r7, {r0, r1, r2, sl}
    16e8:	08000002 	stmdaeq	r0, {r1}
    16ec:	0000a704 	andeq	sl, r0, r4, lsl #14
    16f0:	08010700 	stmdaeq	r1, {r8, r9, sl}
    16f4:	00000317 	andeq	r0, r0, r7, lsl r3
    16f8:	00b40408 	adcseq	r0, r4, r8, lsl #8
    16fc:	a7090000 	strge	r0, [r9, -r0]
    1700:	0a000000 	beq	1708 <_start-0x68f8>
    1704:	000001c7 	andeq	r0, r0, r7, asr #3
    1708:	00540601 	subseq	r0, r4, r1, lsl #12
    170c:	88280000 	stmdahi	r8!, {}	; <UNPREDICTABLE>
    1710:	00580000 	subseq	r0, r8, r0
    1714:	9c010000 	stcls	0, cr0, [r1], {-0}
    1718:	00000143 	andeq	r0, r0, r3, asr #2
    171c:	746d660b 	strbtvc	r6, [sp], #-1547	; 0x60b
    1720:	ae060100 	adfges	f0, f6, f0
    1724:	02000000 	andeq	r0, r0, #0
    1728:	0d0c7091 	stceq	0, cr7, [ip, #-580]	; 0xfffffdbc
    172c:	00667562 	rsbeq	r7, r6, r2, ror #10
    1730:	01430801 	cmpeq	r3, r1, lsl #16
    1734:	03050000 	movweq	r0, #20480	; 0x5000
    1738:	00009f54 	andeq	r9, r0, r4, asr pc
    173c:	00049e0e 	andeq	r9, r4, lr, lsl #28
    1740:	49090100 	stmdbmi	r9, {r8}
    1744:	02000000 	andeq	r0, r0, #0
    1748:	730f5c91 	movwvc	r5, #64657	; 0xfc91
    174c:	0c01007a 	stceq	0, cr0, [r1], {122}	; 0x7a
    1750:	00000054 	andeq	r0, r0, r4, asr r0
    1754:	00000b73 	andeq	r0, r0, r3, ror fp
    1758:	00885010 	addeq	r5, r8, r0, lsl r0
    175c:	00017400 	andeq	r7, r1, r0, lsl #8
    1760:	00013600 	andeq	r3, r1, r0, lsl #12
    1764:	53011100 	movwpl	r1, #4352	; 0x1100
    1768:	114c9102 	cmpne	ip, r2, lsl #2
    176c:	91035201 	tstls	r3, r1, lsl #4
    1770:	01110648 	tsteq	r1, r8, asr #12
    1774:	000a0351 	andeq	r0, sl, r1, asr r3
    1778:	50011104 	andpl	r1, r1, r4, lsl #2
    177c:	00007402 	andeq	r7, r0, r2, lsl #8
    1780:	00886412 	addeq	r6, r8, r2, lsl r4
    1784:	50011100 	andpl	r1, r1, r0, lsl #2
    1788:	00007402 	andeq	r7, r0, r2, lsl #8
    178c:	00a71300 	adceq	r1, r7, r0, lsl #6
    1790:	01540000 	cmpeq	r4, r0
    1794:	9a140000 	bls	50179c <__bss_end__+0x4f7034>
    1798:	ff000000 			; <UNDEFINED> instruction: 0xff000000
    179c:	54150003 	ldrpl	r0, [r5], #-3
    17a0:	63000000 	movwvs	r0, #0
    17a4:	16000001 	strne	r0, [r0], -r1
    17a8:	000000ae 	andeq	r0, r0, lr, lsr #1
    17ac:	056e1700 	strbeq	r1, [lr, #-1792]!	; 0x700
    17b0:	22040000 	andcs	r0, r4, #0
    17b4:	0000016e 	andeq	r0, r0, lr, ror #2
    17b8:	01540408 	cmpeq	r4, r8, lsl #8
    17bc:	c4180000 	ldrgt	r0, [r8], #-0
    17c0:	05000001 	streq	r0, [r0, #-1]
    17c4:	00005402 	andeq	r5, r0, r2, lsl #8
    17c8:	00a11600 	adceq	r1, r1, r0, lsl #12
    17cc:	54160000 	ldrpl	r0, [r6], #-0
    17d0:	16000000 	strne	r0, [r0], -r0
    17d4:	000000ae 	andeq	r0, r0, lr, lsr #1
    17d8:	00004916 	andeq	r4, r0, r6, lsl r9
    17dc:	13000000 	movwne	r0, #0
    17e0:	04000001 	streq	r0, [r0], #-1
    17e4:	00047200 	andeq	r7, r4, r0, lsl #4
    17e8:	60010400 	andvs	r0, r1, r0, lsl #8
    17ec:	01000003 	tsteq	r0, r3
    17f0:	0000053d 	andeq	r0, r0, sp, lsr r5
    17f4:	000004dc 	ldrdeq	r0, [r0], -ip
    17f8:	00008880 	andeq	r8, r0, r0, lsl #17
    17fc:	0000003c 	andeq	r0, r0, ip, lsr r0
    1800:	00000522 	andeq	r0, r0, r2, lsr #10
    1804:	69050402 	stmdbvs	r5, {r1, sl}
    1808:	0300746e 	movweq	r7, #1134	; 0x46e
    180c:	007b0704 	rsbseq	r0, fp, r4, lsl #14
    1810:	01030000 	mrseq	r0, (UNDEF: 3)
    1814:	00031006 	andeq	r1, r3, r6
    1818:	05020300 	streq	r0, [r2, #-768]	; 0x300
    181c:	0000031c 	andeq	r0, r0, ip, lsl r3
    1820:	9d050403 	cfstrsls	mvf0, [r5, #-12]
    1824:	03000000 	movweq	r0, #0
    1828:	00980508 	addseq	r0, r8, r8, lsl #10
    182c:	01030000 	mrseq	r0, (UNDEF: 3)
    1830:	00030e08 	andeq	r0, r3, r8, lsl #28
    1834:	07020300 	streq	r0, [r2, -r0, lsl #6]
    1838:	00000176 	andeq	r0, r0, r6, ror r1
    183c:	76070403 	strvc	r0, [r7], -r3, lsl #8
    1840:	03000000 	movweq	r0, #0
    1844:	00710708 	rsbseq	r0, r1, r8, lsl #14
    1848:	04030000 	streq	r0, [r3], #-0
    184c:	00020907 	andeq	r0, r2, r7, lsl #18
    1850:	08010300 	stmdaeq	r1, {r8, r9}
    1854:	00000317 	andeq	r0, r0, r7, lsl r3
    1858:	00052004 	andeq	r2, r5, r4
    185c:	25030100 	strcs	r0, [r3, #-256]	; 0x100
    1860:	80000000 	andhi	r0, r0, r0
    1864:	14000088 	strne	r0, [r0], #-136	; 0x88
    1868:	01000000 	mrseq	r0, (UNDEF: 0)
    186c:	0000b09c 	muleq	r0, ip, r0
    1870:	00630500 	rsbeq	r0, r3, r0, lsl #10
    1874:	00250301 	eoreq	r0, r5, r1, lsl #6
    1878:	0b9c0000 	bleq	fe701880 <__bss_end__+0xfe6f7118>
    187c:	8c060000 	stchi	0, cr0, [r6], {-0}
    1880:	09000088 	stmdbeq	r0, {r3, r7}
    1884:	07000001 	streq	r0, [r0, -r1]
    1888:	74025001 	strvc	r5, [r2], #-1
    188c:	08000000 	stmdaeq	r0, {}	; <UNPREDICTABLE>
    1890:	00000028 	andeq	r0, r0, r8, lsr #32
    1894:	88940801 	ldmhi	r4, {r0, fp}
    1898:	00180000 	andseq	r0, r8, r0
    189c:	9c010000 	stcls	0, cr0, [r1], {-0}
    18a0:	00054c09 	andeq	r4, r5, r9, lsl #24
    18a4:	ac0b0100 	stfges	f0, [fp], {-0}
    18a8:	10000088 	andne	r0, r0, r8, lsl #1
    18ac:	01000000 	mrseq	r0, (UNDEF: 0)
    18b0:	0000e39c 	muleq	r0, ip, r3
    18b4:	70660a00 	rsbvc	r0, r6, r0, lsl #20
    18b8:	f20b0100 	vrhadd.s8	d0, d11, d0
    18bc:	01000000 	mrseq	r0, (UNDEF: 0)
    18c0:	250b0050 	strcs	r0, [fp, #-80]	; 0x50
    18c4:	f2000000 	vhadd.s8	d0, d0, d0
    18c8:	0c000000 	stceq	0, cr0, [r0], {-0}
    18cc:	00000025 	andeq	r0, r0, r5, lsr #32
    18d0:	e3040d00 	movw	r0, #19712	; 0x4d00
    18d4:	0e000000 	cdpeq	0, 0, cr0, cr0, cr0, {0}
    18d8:	00000531 	andeq	r0, r0, r1, lsr r5
    18dc:	00f20601 	rscseq	r0, r2, r1, lsl #12
    18e0:	03050000 	movweq	r0, #20480	; 0x5000
    18e4:	00009a78 	andeq	r9, r0, r8, ror sl
    18e8:	0001ad0f 	andeq	sl, r1, pc, lsl #26
    18ec:	0c3c0200 	lfmeq	f0, 4, [ip], #-0
    18f0:	0000002c 	andeq	r0, r0, ip, lsr #32
    18f4:	00ee0000 	rsceq	r0, lr, r0
    18f8:	00040000 	andeq	r0, r4, r0
    18fc:	0000055a 	andeq	r0, r0, sl, asr r5
    1900:	03600104 	cmneq	r0, #4, 2
    1904:	59010000 	stmdbpl	r1, {}	; <UNPREDICTABLE>
    1908:	dc000005 	stcle	0, cr0, [r0], {5}
    190c:	bc000004 	stclt	0, cr0, [r0], {4}
    1910:	34000088 	strcc	r0, [r0], #-136	; 0x88
    1914:	b0000000 	andlt	r0, r0, r0
    1918:	02000005 	andeq	r0, r0, #5
    191c:	6e690504 	cdpvs	5, 6, cr0, cr9, cr4, {0}
    1920:	04030074 	streq	r0, [r3], #-116	; 0x74
    1924:	00007b07 	andeq	r7, r0, r7, lsl #22
    1928:	06010300 	streq	r0, [r1], -r0, lsl #6
    192c:	00000310 	andeq	r0, r0, r0, lsl r3
    1930:	1c050203 	sfmne	f0, 4, [r5], {3}
    1934:	03000003 	movweq	r0, #3
    1938:	009d0504 	addseq	r0, sp, r4, lsl #10
    193c:	08030000 	stmdaeq	r3, {}	; <UNPREDICTABLE>
    1940:	00009805 	andeq	r9, r0, r5, lsl #16
    1944:	08010300 	stmdaeq	r1, {r8, r9}
    1948:	0000030e 	andeq	r0, r0, lr, lsl #6
    194c:	76070203 	strvc	r0, [r7], -r3, lsl #4
    1950:	03000001 	movweq	r0, #1
    1954:	00760704 	rsbseq	r0, r6, r4, lsl #14
    1958:	08030000 	stmdaeq	r3, {}	; <UNPREDICTABLE>
    195c:	00007107 	andeq	r7, r0, r7, lsl #2
    1960:	07040300 	streq	r0, [r4, -r0, lsl #6]
    1964:	00000209 	andeq	r0, r0, r9, lsl #4
    1968:	17080103 	strne	r0, [r8, -r3, lsl #2]
    196c:	04000003 	streq	r0, [r0], #-3
    1970:	00007f04 	andeq	r7, r0, r4, lsl #30
    1974:	00720500 	rsbseq	r0, r2, r0, lsl #10
    1978:	65060000 	strvs	r0, [r6, #-0]
    197c:	01000005 	tsteq	r0, r5
    1980:	00002504 	andeq	r2, r0, r4, lsl #10
    1984:	0088bc00 	addeq	fp, r8, r0, lsl #24
    1988:	00003400 	andeq	r3, r0, r0, lsl #8
    198c:	ab9c0100 	blge	fe701d94 <__bss_end__+0xfe6f762c>
    1990:	07000000 	streq	r0, [r0, -r0]
    1994:	04010070 	streq	r0, [r1], #-112	; 0x70
    1998:	00000079 	andeq	r0, r0, r9, ror r0
    199c:	00000bba 			; <UNDEFINED> instruction: 0x00000bba
    19a0:	00250800 	eoreq	r0, r5, r0, lsl #16
    19a4:	00ba0000 	adcseq	r0, sl, r0
    19a8:	25090000 	strcs	r0, [r9, #-0]
    19ac:	00000000 	andeq	r0, r0, r0
    19b0:	0005310a 	andeq	r3, r5, sl, lsl #2
    19b4:	c51d0200 	ldrgt	r0, [sp, #-512]	; 0x200
    19b8:	04000000 	streq	r0, [r0], #-0
    19bc:	0000ab04 	andeq	sl, r0, r4, lsl #22
    19c0:	00250800 	eoreq	r0, r5, r0, lsl #16
    19c4:	00da0000 	sbcseq	r0, sl, r0
    19c8:	79090000 	stmdbvc	r9, {}	; <UNPREDICTABLE>
    19cc:	00000000 	andeq	r0, r0, r0
    19d0:	00056e0b 	andeq	r6, r5, fp, lsl #28
    19d4:	eb0c0100 	bl	301ddc <__bss_end__+0x2f7674>
    19d8:	05000000 	streq	r0, [r0, #-0]
    19dc:	009a7c03 	addseq	r7, sl, r3, lsl #24
    19e0:	cb040400 	blgt	1029e8 <__bss_end__+0xf8280>
    19e4:	00000000 	andeq	r0, r0, r0
    19e8:	00000681 	andeq	r0, r0, r1, lsl #13
    19ec:	05f30004 	ldrbeq	r0, [r3, #4]!
    19f0:	01040000 	mrseq	r0, (UNDEF: 4)
    19f4:	00000360 	andeq	r0, r0, r0, ror #6
    19f8:	00059f01 	andeq	r9, r5, r1, lsl #30
    19fc:	0004dc00 	andeq	sp, r4, r0, lsl #24
    1a00:	0088f000 	addeq	pc, r8, r0
    1a04:	0004f800 	andeq	pc, r4, r0, lsl #16
    1a08:	00064a00 	andeq	r4, r6, r0, lsl #20
    1a0c:	05040200 	streq	r0, [r4, #-512]	; 0x200
    1a10:	00746e69 	rsbseq	r6, r4, r9, ror #28
    1a14:	7b070403 	blvc	1c2a28 <__bss_end__+0x1b82c0>
    1a18:	03000000 	movweq	r0, #0
    1a1c:	03100601 	tsteq	r0, #1048576	; 0x100000
    1a20:	02030000 	andeq	r0, r3, #0
    1a24:	00031c05 	andeq	r1, r3, r5, lsl #24
    1a28:	05040300 	streq	r0, [r4, #-768]	; 0x300
    1a2c:	0000009d 	muleq	r0, sp, r0
    1a30:	98050803 	stmdals	r5, {r0, r1, fp}
    1a34:	03000000 	movweq	r0, #0
    1a38:	030e0801 	movweq	r0, #59393	; 0xe801
    1a3c:	02030000 	andeq	r0, r3, #0
    1a40:	00017607 	andeq	r7, r1, r7, lsl #12
    1a44:	07040300 	streq	r0, [r4, -r0, lsl #6]
    1a48:	00000076 	andeq	r0, r0, r6, ror r0
    1a4c:	71070803 	tstvc	r7, r3, lsl #16
    1a50:	03000000 	movweq	r0, #0
    1a54:	02090704 	andeq	r0, r9, #4, 14	; 0x100000
    1a58:	04040000 	streq	r0, [r4], #-0
    1a5c:	007a0405 	rsbseq	r0, sl, r5, lsl #8
    1a60:	01030000 	mrseq	r0, (UNDEF: 3)
    1a64:	00031708 	andeq	r1, r3, r8, lsl #14
    1a68:	87040500 	strhi	r0, [r4, -r0, lsl #10]
    1a6c:	06000000 	streq	r0, [r0], -r0
    1a70:	0000007a 	andeq	r0, r0, sl, ror r0
    1a74:	00021a07 	andeq	r1, r2, r7, lsl #20
    1a78:	97280200 	strls	r0, [r8, -r0, lsl #4]!
    1a7c:	08000000 	stmdaeq	r0, {}	; <UNPREDICTABLE>
    1a80:	000000e8 	andeq	r0, r0, r8, ror #1
    1a84:	ae000404 	cdpge	4, 0, cr0, cr0, cr4, {0}
    1a88:	09000000 	stmdbeq	r0, {}	; <UNPREDICTABLE>
    1a8c:	000003ff 	strdeq	r0, [r0], -pc	; <UNPREDICTABLE>
    1a90:	00000072 	andeq	r0, r0, r2, ror r0
    1a94:	ea070000 	b	1c1a9c <__bss_end__+0x1b7334>
    1a98:	02000000 	andeq	r0, r0, #0
    1a9c:	00008c62 	andeq	r8, r0, r2, ror #24
    1aa0:	05810a00 	streq	r0, [r1, #2560]	; 0xa00
    1aa4:	27010000 	strcs	r0, [r1, -r0]
    1aa8:	00000025 	andeq	r0, r0, r5, lsr #32
    1aac:	000088f0 	strdeq	r8, [r0], -r0
    1ab0:	00000014 	andeq	r0, r0, r4, lsl r0
    1ab4:	00e09c01 	rsceq	r9, r0, r1, lsl #24
    1ab8:	630b0000 	movwvs	r0, #45056	; 0xb000
    1abc:	25270100 	strcs	r0, [r7, #-256]!	; 0x100
    1ac0:	d8000000 	stmdale	r0, {}	; <UNPREDICTABLE>
    1ac4:	0000000b 	andeq	r0, r0, fp
    1ac8:	6461700c 	strbtvs	r7, [r1], #-12
    1acc:	742e0100 	strtvc	r0, [lr], #-256	; 0x100
    1ad0:	04000000 	streq	r0, [r0], #-0
    1ad4:	2c000089 	stccs	0, cr0, [r0], {137}	; 0x89
    1ad8:	01000000 	mrseq	r0, (UNDEF: 0)
    1adc:	0001309c 	muleq	r1, ip, r0
    1ae0:	00700b00 	rsbseq	r0, r0, r0, lsl #22
    1ae4:	00742e01 	rsbseq	r2, r4, r1, lsl #28
    1ae8:	0c060000 	stceq	0, cr0, [r6], {-0}
    1aec:	910d0000 	mrsls	r0, (UNDEF: 13)
    1af0:	01000005 	tsteq	r0, r5
    1af4:	0000742e 	andeq	r7, r0, lr, lsr #8
    1af8:	000c3100 	andeq	r3, ip, r0, lsl #2
    1afc:	05bf0e00 	ldreq	r0, [pc, #3584]!	; 2904 <_start-0x56fc>
    1b00:	2e010000 	cdpcs	0, 0, cr0, cr1, cr0, {0}
    1b04:	00000025 	andeq	r0, r0, r5, lsr #32
    1b08:	6c0f5201 	sfmvs	f5, 4, [pc], {1}
    1b0c:	01006e65 	tsteq	r0, r5, ror #28
    1b10:	0000252f 	andeq	r2, r0, pc, lsr #10
    1b14:	00510100 	subseq	r0, r1, r0, lsl #2
    1b18:	0005790a 	andeq	r7, r5, sl, lsl #18
    1b1c:	74370100 	ldrtvc	r0, [r7], #-256	; 0x100
    1b20:	30000000 	andcc	r0, r0, r0
    1b24:	40000089 	andmi	r0, r0, r9, lsl #1
    1b28:	01000000 	mrseq	r0, (UNDEF: 0)
    1b2c:	00019c9c 	muleq	r1, ip, ip
    1b30:	73640b00 	cmnvc	r4, #0, 22
    1b34:	37010074 	smlsdxcc	r1, r4, r0, r0
    1b38:	00000074 	andeq	r0, r0, r4, ror r0
    1b3c:	00000c52 	andeq	r0, r0, r2, asr ip
    1b40:	01006e0b 	tsteq	r0, fp, lsl #28
    1b44:	00002537 	andeq	r2, r0, r7, lsr r5
    1b48:	000c8a00 	andeq	r8, ip, r0, lsl #20
    1b4c:	00700b00 	rsbseq	r0, r0, r0, lsl #22
    1b50:	00743701 	rsbseq	r3, r4, r1, lsl #14
    1b54:	0cab0000 	stceq	0, cr0, [fp]
    1b58:	580d0000 	stmdapl	sp, {}	; <UNPREDICTABLE>
    1b5c:	01000006 	tsteq	r0, r6
    1b60:	00007437 	andeq	r7, r0, r7, lsr r4
    1b64:	000ce100 	andeq	lr, ip, r0, lsl #2
    1b68:	656c1000 	strbvs	r1, [ip, #-0]!
    1b6c:	3901006e 	stmdbcc	r1, {r1, r2, r3, r5, r6}
    1b70:	00000025 	andeq	r0, r0, r5, lsr #32
    1b74:	00000cff 	strdeq	r0, [r0], -pc	; <UNPREDICTABLE>
    1b78:	0100730f 	tsteq	r0, pc, lsl #6
    1b7c:	0000743d 	andeq	r7, r0, sp, lsr r4
    1b80:	00500100 	subseq	r0, r0, r0, lsl #2
    1b84:	0005cd0a 	andeq	ip, r5, sl, lsl #26
    1b88:	74470100 	strbvc	r0, [r7], #-256	; 0x100
    1b8c:	70000000 	andvc	r0, r0, r0
    1b90:	9c000089 	stcls	0, cr0, [r0], {137}	; 0x89
    1b94:	01000001 	tsteq	r0, r1
    1b98:	0002d39c 	muleq	r2, ip, r3
    1b9c:	05910d00 	ldreq	r0, [r1, #3328]	; 0xd00
    1ba0:	47010000 	strmi	r0, [r1, -r0]
    1ba4:	0000002c 	andeq	r0, r0, ip, lsr #32
    1ba8:	00000d26 	andeq	r0, r0, r6, lsr #26
    1bac:	7473640b 	ldrbtvc	r6, [r3], #-1035	; 0x40b
    1bb0:	74470100 	strbvc	r0, [r7], #-256	; 0x100
    1bb4:	54000000 	strpl	r0, [r0], #-0
    1bb8:	0b00000d 	bleq	1bf4 <_start-0x640c>
    1bbc:	4701006e 	strmi	r0, [r1, -lr, rrx]
    1bc0:	00000025 	andeq	r0, r0, r5, lsr #32
    1bc4:	00000dc2 	andeq	r0, r0, r2, asr #27
    1bc8:	6c61760b 	stclvs	6, cr7, [r1], #-44	; 0xffffffd4
    1bcc:	25470100 	strbcs	r0, [r7, #-256]	; 0x100
    1bd0:	ee000000 	cdp	0, 0, cr0, cr0, cr0, {0}
    1bd4:	0d00000d 	stceq	0, cr0, [r0, #-52]	; 0xffffffcc
    1bd8:	000005bf 			; <UNDEFINED> instruction: 0x000005bf
    1bdc:	00254701 	eoreq	r4, r5, r1, lsl #14
    1be0:	0e6d0000 	cdpeq	0, 6, cr0, cr13, cr0, {0}
    1be4:	960e0000 	strls	r0, [lr], -r0
    1be8:	01000005 	tsteq	r0, r5
    1bec:	00002547 	andeq	r2, r0, r7, asr #10
    1bf0:	04910200 	ldreq	r0, [r1], #512	; 0x200
    1bf4:	6675620f 	ldrbtvs	r6, [r5], -pc, lsl #4
    1bf8:	d34c0100 	movtle	r0, #49408	; 0xc100
    1bfc:	03000002 	movweq	r0, #2
    1c00:	107fa891 			; <UNDEFINED> instruction: 0x107fa891
    1c04:	4c010070 	stcmi	0, cr0, [r1], {112}	; 0x70
    1c08:	00000074 	andeq	r0, r0, r4, ror r0
    1c0c:	00000e97 	muleq	r0, r7, lr
    1c10:	01007510 	tsteq	r0, r0, lsl r5
    1c14:	00002c4d 	andeq	r2, r0, sp, asr #24
    1c18:	000f3c00 	andeq	r3, pc, r0, lsl #24
    1c1c:	01631100 	cmneq	r3, r0, lsl #2
    1c20:	02f30000 	rscseq	r0, r3, #0
    1c24:	03050000 	movweq	r0, #20480	; 0x5000
    1c28:	00009cbc 			; <UNDEFINED> instruction: 0x00009cbc
    1c2c:	0089dc12 	addeq	sp, r9, r2, lsl ip
    1c30:	00007400 	andeq	r7, r0, r0, lsl #8
    1c34:	00026100 	andeq	r6, r2, r0, lsl #2
    1c38:	05731300 	ldrbeq	r1, [r3, #-768]!	; 0x300
    1c3c:	52010000 	andpl	r0, r1, #0
    1c40:	0000002c 	andeq	r0, r0, ip, lsr #32
    1c44:	00001041 	andeq	r1, r0, r1, asr #32
    1c48:	8ab01400 	bhi	fec06c50 <__bss_end__+0xfebfc4e8>
    1c4c:	06600000 	strbteq	r0, [r0], -r0
    1c50:	c4150000 	ldrgt	r0, [r5], #-0
    1c54:	6700008a 	strvs	r0, [r0, -sl, lsl #1]
    1c58:	99000006 	stmdbls	r0, {r1, r2}
    1c5c:	16000002 	strne	r0, [r0], -r2
    1c60:	08025301 	stmdaeq	r2, {r0, r8, r9, ip, lr}
    1c64:	52011675 	andpl	r1, r1, #122683392	; 0x7500000
    1c68:	9cbc0305 	ldcls	3, cr0, [ip], #20
    1c6c:	01160000 	tsteq	r6, r0
    1c70:	f4030551 	vst3.16	{d0,d2,d4}, [r3 :64], r1
    1c74:	1600009c 			; <UNDEFINED> instruction: 0x1600009c
    1c78:	03055001 	movweq	r5, #20481	; 0x5001
    1c7c:	00009ce0 	andeq	r9, r0, r0, ror #25
    1c80:	8ac81400 	bhi	ff206c88 <__bss_end__+0xff1fc520>
    1c84:	067d0000 	ldrbteq	r0, [sp], -r0
    1c88:	d4150000 	ldrle	r0, [r5], #-0
    1c8c:	e000008a 	and	r0, r0, sl, lsl #1
    1c90:	b6000000 	strlt	r0, [r0], -r0
    1c94:	16000002 	strne	r0, [r0], -r2
    1c98:	7d025101 	stfvcs	f5, [r2, #-4]
    1c9c:	e8170000 	ldmda	r7, {}	; <UNPREDICTABLE>
    1ca0:	3000008a 	andcc	r0, r0, sl, lsl #1
    1ca4:	16000001 	strne	r0, [r0], -r1
    1ca8:	7d025301 	stcvc	3, cr5, [r2, #-4]
    1cac:	51011600 	tstpl	r1, r0, lsl #12
    1cb0:	16007402 	strne	r7, [r0], -r2, lsl #8
    1cb4:	75025001 	strvc	r5, [r2, #-1]
    1cb8:	18000000 	stmdane	r0, {}	; <UNPREDICTABLE>
    1cbc:	0000007a 	andeq	r0, r0, sl, ror r0
    1cc0:	000002e3 	andeq	r0, r0, r3, ror #5
    1cc4:	00006b19 	andeq	r6, r0, r9, lsl fp
    1cc8:	18003f00 	stmdane	r0, {r8, r9, sl, fp, ip, sp}
    1ccc:	0000007a 	andeq	r0, r0, sl, ror r0
    1cd0:	000002f3 	strdeq	r0, [r0], -r3
    1cd4:	00006b19 	andeq	r6, r0, r9, lsl fp
    1cd8:	06000400 	streq	r0, [r0], -r0, lsl #8
    1cdc:	000002e3 	andeq	r0, r0, r3, ror #5
    1ce0:	0005b01a 	andeq	fp, r5, sl, lsl r0
    1ce4:	0c1f0100 	ldfeqs	f0, [pc], {-0}
    1ce8:	5400008b 	strpl	r0, [r0], #-139	; 0x8b
    1cec:	01000000 	mrseq	r0, (UNDEF: 0)
    1cf0:	00037c9c 	muleq	r3, ip, ip
    1cf4:	05c50d00 	strbeq	r0, [r5, #3328]	; 0xd00
    1cf8:	1f010000 	svcne	0x00010000
    1cfc:	0000038b 	andeq	r0, r0, fp, lsl #7
    1d00:	0000106d 	andeq	r1, r0, sp, rrx
    1d04:	0005890d 	andeq	r8, r5, sp, lsl #18
    1d08:	a01f0100 	andsge	r0, pc, r0, lsl #2
    1d0c:	99000003 	stmdbls	r0, {r0, r1}
    1d10:	11000010 	tstne	r0, r0, lsl r0
    1d14:	00000163 	andeq	r0, r0, r3, ror #2
    1d18:	000003b6 			; <UNDEFINED> instruction: 0x000003b6
    1d1c:	9cc40305 	stclls	3, cr0, [r4], {5}
    1d20:	1c140000 	ldcne	0, cr0, [r4], {-0}
    1d24:	6000008b 	andvs	r0, r0, fp, lsl #1
    1d28:	15000006 	strne	r0, [r0, #-6]
    1d2c:	00008b30 	andeq	r8, r0, r0, lsr fp
    1d30:	00000667 	andeq	r0, r0, r7, ror #12
    1d34:	00000372 	andeq	r0, r0, r2, ror r3
    1d38:	02530116 	subseq	r0, r3, #-2147483643	; 0x80000005
    1d3c:	01162008 	tsteq	r6, r8
    1d40:	c4030552 	strgt	r0, [r3], #-1362	; 0x552
    1d44:	1600009c 			; <UNDEFINED> instruction: 0x1600009c
    1d48:	03055101 	movweq	r5, #20737	; 0x5101
    1d4c:	00009cf4 	strdeq	r9, [r0], -r4
    1d50:	05500116 	ldrbeq	r0, [r0, #-278]	; 0x116
    1d54:	009d2c03 	addseq	r2, sp, r3, lsl #24
    1d58:	34140000 	ldrcc	r0, [r4], #-0
    1d5c:	7d00008b 	stcvc	0, cr0, [r0, #-556]	; 0xfffffdd4
    1d60:	00000006 	andeq	r0, r0, r6
    1d64:	0000251b 	andeq	r2, r0, fp, lsl r5
    1d68:	00038b00 	andeq	r8, r3, r0, lsl #22
    1d6c:	00251c00 	eoreq	r1, r5, r0, lsl #24
    1d70:	05000000 	streq	r0, [r0, #-0]
    1d74:	00037c04 	andeq	r7, r3, r4, lsl #24
    1d78:	00251b00 	eoreq	r1, r5, r0, lsl #22
    1d7c:	03a00000 	moveq	r0, #0
    1d80:	811c0000 	tsthi	ip, r0
    1d84:	00000000 	andeq	r0, r0, r0
    1d88:	03910405 	orrseq	r0, r1, #83886080	; 0x5000000
    1d8c:	7a180000 	bvc	601d94 <__bss_end__+0x5f762c>
    1d90:	b6000000 	strlt	r0, [r0], -r0
    1d94:	19000003 	stmdbne	r0, {r0, r1}
    1d98:	0000006b 	andeq	r0, r0, fp, rrx
    1d9c:	a606000e 	strge	r0, [r6], -lr
    1da0:	1d000003 	stcne	0, cr0, [r0, #-12]
    1da4:	000001c4 	andeq	r0, r0, r4, asr #3
    1da8:	00257d01 	eoreq	r7, r5, r1, lsl #26
    1dac:	8b600000 	blhi	1801db4 <__bss_end__+0x17f764c>
    1db0:	02880000 	addeq	r0, r8, #0
    1db4:	9c010000 	stcls	0, cr0, [r1], {-0}
    1db8:	00000625 	andeq	r0, r0, r5, lsr #12
    1dbc:	6675620b 	ldrbtvs	r6, [r5], -fp, lsl #4
    1dc0:	747d0100 	ldrbtvc	r0, [sp], #-256	; 0x100
    1dc4:	c5000000 	strgt	r0, [r0, #-0]
    1dc8:	0b000010 	bleq	1e10 <_start-0x61f0>
    1dcc:	7d01006e 	stcvc	0, cr0, [r1, #-440]	; 0xfffffe48
    1dd0:	00000025 	andeq	r0, r0, r5, lsr #32
    1dd4:	000010f1 	strdeq	r1, [r0], -r1	; <UNPREDICTABLE>
    1dd8:	746d660b 	strbtvc	r6, [sp], #-1547	; 0x60b
    1ddc:	817d0100 	cmnhi	sp, r0, lsl #2
    1de0:	1f000000 	svcne	0x00000000
    1de4:	0d000011 	stceq	0, cr0, [r0, #-68]	; 0xffffffbc
    1de8:	0000049e 	muleq	r0, lr, r4
    1dec:	00ae7d01 	adceq	r7, lr, r1, lsl #26
    1df0:	11530000 	cmpne	r3, r0
    1df4:	70100000 	andsvc	r0, r0, r0
    1df8:	747e0100 	ldrbtvc	r0, [lr], #-256	; 0x100
    1dfc:	66000000 	strvs	r0, [r0], -r0
    1e00:	10000011 	andne	r0, r0, r1, lsl r0
    1e04:	7e010065 	cdpvc	0, 0, cr0, cr1, cr5, {3}
    1e08:	00000074 	andeq	r0, r0, r4, ror r0
    1e0c:	000011e4 	andeq	r1, r0, r4, ror #3
    1e10:	00016311 	andeq	r6, r1, r1, lsl r3
    1e14:	00063500 	andeq	r3, r6, r0, lsl #10
    1e18:	d4030500 	strle	r0, [r3], #-1280	; 0x500
    1e1c:	1e00009c 	mcrne	0, 0, r0, cr0, cr12, {4}
    1e20:	00000018 	andeq	r0, r0, r8, lsl r0
    1e24:	01007310 	tsteq	r0, r0, lsl r3
    1e28:	0000748b 	andeq	r7, r0, fp, lsl #9
    1e2c:	00120b00 	andseq	r0, r2, r0, lsl #22
    1e30:	756e0f00 	strbvc	r0, [lr, #-3840]!	; 0xf00
    1e34:	8b01006d 	blhi	41ff0 <__bss_end__+0x37888>
    1e38:	0000063a 	andeq	r0, r0, sl, lsr r6
    1e3c:	7ed89103 	atnvce	f1, f3
    1e40:	0005bf13 	andeq	fp, r5, r3, lsl pc
    1e44:	2c8c0100 	stfcss	f0, [ip], {0}
    1e48:	60000000 	andvs	r0, r0, r0
    1e4c:	15000012 	strne	r0, [r0, #-18]
    1e50:	00008be4 	andeq	r8, r0, r4, ror #23
    1e54:	000000b9 	strheq	r0, [r0], -r9
    1e58:	0000047b 	andeq	r0, r0, fp, ror r4
    1e5c:	02500116 	subseq	r0, r0, #-2147483643	; 0x80000005
    1e60:	14000075 	strne	r0, [r0], #-117	; 0x75
    1e64:	00008bf8 	strdeq	r8, [r0], -r8	; <UNPREDICTABLE>
    1e68:	00000660 	andeq	r0, r0, r0, ror #12
    1e6c:	008c0c15 	addeq	r0, ip, r5, lsl ip
    1e70:	00066700 	andeq	r6, r6, r0, lsl #14
    1e74:	0004b300 	andeq	fp, r4, r0, lsl #6
    1e78:	53011600 	movwpl	r1, #5632	; 0x1600
    1e7c:	16920802 	ldrne	r0, [r2], r2, lsl #16
    1e80:	03055201 	movweq	r5, #20993	; 0x5201
    1e84:	00009cd4 	ldrdeq	r9, [r0], -r4
    1e88:	05510116 	ldrbeq	r0, [r1, #-278]	; 0x116
    1e8c:	009cf403 	addseq	pc, ip, r3, lsl #8
    1e90:	50011600 	andpl	r1, r1, r0, lsl #12
    1e94:	9d440305 	stclls	3, cr0, [r4, #-20]	; 0xffffffec
    1e98:	14000000 	strne	r0, [r0], #-0
    1e9c:	00008c10 	andeq	r8, r0, r0, lsl ip
    1ea0:	0000067d 	andeq	r0, r0, sp, ror r6
    1ea4:	008c8014 	addeq	r8, ip, r4, lsl r0
    1ea8:	00066000 	andeq	r6, r6, r0
    1eac:	8c941500 	cfldr32hi	mvfx1, [r4], {0}
    1eb0:	06670000 	strbteq	r0, [r7], -r0
    1eb4:	04f40000 	ldrbteq	r0, [r4], #0
    1eb8:	01160000 	tsteq	r6, r0
    1ebc:	98080253 	stmdals	r8, {r0, r1, r4, r6, r9}
    1ec0:	05520116 	ldrbeq	r0, [r2, #-278]	; 0x116
    1ec4:	009cd403 	addseq	sp, ip, r3, lsl #8
    1ec8:	51011600 	tstpl	r1, r0, lsl #12
    1ecc:	9cf40305 	ldclls	3, cr0, [r4], #20
    1ed0:	01160000 	tsteq	r6, r0
    1ed4:	60030550 	andvs	r0, r3, r0, asr r5
    1ed8:	0000009d 	muleq	r0, sp, r0
    1edc:	008c9814 	addeq	r9, ip, r4, lsl r8
    1ee0:	00067d00 	andeq	r7, r6, r0, lsl #26
    1ee4:	8cbc1500 	cfldr32hi	mvfx1, [ip]
    1ee8:	019c0000 	orrseq	r0, ip, r0
    1eec:	052a0000 	streq	r0, [sl, #-0]!
    1ef0:	01160000 	tsteq	r6, r0
    1ef4:	80080252 	andhi	r0, r8, r2, asr r2
    1ef8:	03510116 	cmpeq	r1, #-2147483643	; 0x80000005
    1efc:	167ed091 			; <UNDEFINED> instruction: 0x167ed091
    1f00:	3a015001 	bcc	55f0c <__bss_end__+0x4b7a4>
    1f04:	047d0216 	ldrbteq	r0, [sp], #-534	; 0x216
    1f08:	02163101 	andseq	r3, r6, #1073741824	; 0x40000000
    1f0c:	7702007d 	smlsdxvc	r2, sp, r0, r0
    1f10:	e0150000 	ands	r0, r5, r0
    1f14:	9c00008c 	stcls	0, cr0, [r0], {140}	; 0x8c
    1f18:	58000001 	stmdapl	r0, {r0}
    1f1c:	16000005 	strne	r0, [r0], -r5
    1f20:	08025201 	stmdaeq	r2, {r0, r9, ip, lr}
    1f24:	51011680 	smlabbpl	r1, r0, r6, r1
    1f28:	7ed09103 	atnvcs	f1, f3
    1f2c:	01500116 	cmpeq	r0, r6, lsl r1
    1f30:	7d02163a 	stcvc	6, cr1, [r2, #-232]	; 0xffffff18
    1f34:	007b0204 	rsbseq	r0, fp, r4, lsl #4
    1f38:	007d0216 	rsbseq	r0, sp, r6, lsl r2
    1f3c:	00007702 	andeq	r7, r0, r2, lsl #14
    1f40:	008d0415 	addeq	r0, sp, r5, lsl r4
    1f44:	00019c00 	andeq	r9, r1, r0, lsl #24
    1f48:	00058600 	andeq	r8, r5, r0, lsl #12
    1f4c:	52011600 	andpl	r1, r1, #0, 12
    1f50:	16800802 	strne	r0, [r0], r2, lsl #16
    1f54:	91035101 	tstls	r3, r1, lsl #2
    1f58:	01167ed0 			; <UNDEFINED> instruction: 0x01167ed0
    1f5c:	16400150 			; <UNDEFINED> instruction: 0x16400150
    1f60:	02047d02 	andeq	r7, r4, #2, 26	; 0x80
    1f64:	0216007b 	andseq	r0, r6, #123	; 0x7b
    1f68:	7702007d 	smlsdxvc	r2, sp, r0, r0
    1f6c:	28150000 	ldmdacs	r5, {}	; <UNPREDICTABLE>
    1f70:	9c00008d 	stcls	0, cr0, [r0], {141}	; 0x8d
    1f74:	b4000001 	strlt	r0, [r0], #-1
    1f78:	16000005 	strne	r0, [r0], -r5
    1f7c:	08025201 	stmdaeq	r2, {r0, r9, ip, lr}
    1f80:	51011680 	smlabbpl	r1, r0, r6, r1
    1f84:	7ed09103 	atnvcs	f1, f3
    1f88:	01500116 	cmpeq	r0, r6, lsl r1
    1f8c:	7d021632 	stcvc	6, cr1, [r2, #-200]	; 0xffffff38
    1f90:	007b0204 	rsbseq	r0, fp, r4, lsl #4
    1f94:	007d0216 	rsbseq	r0, sp, r6, lsl r2
    1f98:	00007702 	andeq	r7, r0, r2, lsl #14
    1f9c:	008d5815 	addeq	r5, sp, r5, lsl r8
    1fa0:	00019c00 	andeq	r9, r1, r0, lsl #24
    1fa4:	0005e200 	andeq	lr, r5, r0, lsl #4
    1fa8:	52011600 	andpl	r1, r1, #0, 12
    1fac:	16800802 	strne	r0, [r0], r2, lsl #16
    1fb0:	91035101 	tstls	r3, r1, lsl #2
    1fb4:	01167ed0 			; <UNDEFINED> instruction: 0x01167ed0
    1fb8:	16380150 			; <UNDEFINED> instruction: 0x16380150
    1fbc:	02047d02 	andeq	r7, r4, #2, 26	; 0x80
    1fc0:	0216007b 	andseq	r0, r6, #123	; 0x7b
    1fc4:	7702007d 	smlsdxvc	r2, sp, r0, r0
    1fc8:	60140000 	andsvs	r0, r4, r0
    1fcc:	6000008d 	andvs	r0, r0, sp, lsl #1
    1fd0:	15000006 	strne	r0, [r0, #-6]
    1fd4:	00008d7c 	andeq	r8, r0, ip, ror sp
    1fd8:	00000667 	andeq	r0, r0, r7, ror #12
    1fdc:	0000061a 	andeq	r0, r0, sl, lsl r6
    1fe0:	02530116 	subseq	r0, r3, #-2147483643	; 0x80000005
    1fe4:	0116b908 	tsteq	r6, r8, lsl #18
    1fe8:	d4030552 	strle	r0, [r3], #-1362	; 0x552
    1fec:	1600009c 			; <UNDEFINED> instruction: 0x1600009c
    1ff0:	03055101 	movweq	r5, #20737	; 0x5101
    1ff4:	00009cf4 	strdeq	r9, [r0], -r4
    1ff8:	05500116 	ldrbeq	r0, [r0, #-278]	; 0x116
    1ffc:	009d8803 	addseq	r8, sp, r3, lsl #16
    2000:	80140000 	andshi	r0, r4, r0
    2004:	7d00008d 	stcvc	0, cr0, [r0, #-564]	; 0xfffffdcc
    2008:	00000006 	andeq	r0, r0, r6
    200c:	007a1800 	rsbseq	r1, sl, r0, lsl #16
    2010:	06350000 	ldrteq	r0, [r5], -r0
    2014:	6b190000 	blvs	64201c <__bss_end__+0x6378b4>
    2018:	09000000 	stmdbeq	r0, {}	; <UNPREDICTABLE>
    201c:	06250600 	strteq	r0, [r5], -r0, lsl #12
    2020:	7a180000 	bvc	602028 <__bss_end__+0x5f78c0>
    2024:	4a000000 	bmi	202c <_start-0x5fd4>
    2028:	19000006 	stmdbne	r0, {r1, r2}
    202c:	0000006b 	andeq	r0, r0, fp, rrx
    2030:	311f007f 	tstcc	pc, pc, ror r0	; <UNPREDICTABLE>
    2034:	03000005 	movweq	r0, #5
    2038:	00038b1d 	andeq	r8, r3, sp, lsl fp
    203c:	056e1f00 	strbeq	r1, [lr, #-3840]!	; 0xf00
    2040:	22030000 	andcs	r0, r3, #0
    2044:	000003a0 	andeq	r0, r0, r0, lsr #7
    2048:	00002820 	andeq	r2, r0, r0, lsr #16
    204c:	211e0300 	tstcs	lr, r0, lsl #6
    2050:	000001c7 	andeq	r0, r0, r7, asr #3
    2054:	00252903 	eoreq	r2, r5, r3, lsl #18
    2058:	067d0000 	ldrbteq	r0, [sp], -r0
    205c:	811c0000 	tsthi	ip, r0
    2060:	22000000 	andcs	r0, r0, #0
    2064:	01e72000 	mvneq	r2, r0
    2068:	66030000 	strvs	r0, [r3], -r0
    206c:	0000ff00 	andeq	pc, r0, r0, lsl #30
    2070:	cf000400 	svcgt	0x00000400
    2074:	04000007 	streq	r0, [r0], #-7
    2078:	00036001 	andeq	r6, r3, r1
    207c:	05dd0100 	ldrbeq	r0, [sp, #256]	; 0x100
    2080:	04dc0000 	ldrbeq	r0, [ip], #0
    2084:	8de80000 	stclhi	0, cr0, [r8]
    2088:	00280000 	eoreq	r0, r8, r0
    208c:	082c0000 	stmdaeq	ip!, {}	; <UNPREDICTABLE>
    2090:	04020000 	streq	r0, [r2], #-0
    2094:	746e6905 	strbtvc	r6, [lr], #-2309	; 0x905
    2098:	07040300 	streq	r0, [r4, -r0, lsl #6]
    209c:	0000007b 	andeq	r0, r0, fp, ror r0
    20a0:	10060103 	andne	r0, r6, r3, lsl #2
    20a4:	03000003 	movweq	r0, #3
    20a8:	031c0502 	tsteq	ip, #8388608	; 0x800000
    20ac:	04030000 	streq	r0, [r3], #-0
    20b0:	00009d05 	andeq	r9, r0, r5, lsl #26
    20b4:	05080300 	streq	r0, [r8, #-768]	; 0x300
    20b8:	00000098 	muleq	r0, r8, r0
    20bc:	0e080103 	adfeqe	f0, f0, f3
    20c0:	03000003 	movweq	r0, #3
    20c4:	01760702 	cmneq	r6, r2, lsl #14
    20c8:	04030000 	streq	r0, [r3], #-0
    20cc:	00007607 	andeq	r7, r0, r7, lsl #12
    20d0:	07080300 	streq	r0, [r8, -r0, lsl #6]
    20d4:	00000071 	andeq	r0, r0, r1, ror r0
    20d8:	09070403 	stmdbeq	r7, {r0, r1, sl}
    20dc:	03000002 	movweq	r0, #2
    20e0:	03170801 	tsteq	r7, #65536	; 0x10000
    20e4:	04040000 	streq	r0, [r4], #-0
    20e8:	0000007f 	andeq	r0, r0, pc, ror r0
    20ec:	00007205 	andeq	r7, r0, r5, lsl #4
    20f0:	01e70600 	mvneq	r0, r0, lsl #12
    20f4:	04010000 	streq	r0, [r1], #-0
    20f8:	00008de8 	andeq	r8, r0, r8, ror #27
    20fc:	00000028 	andeq	r0, r0, r8, lsr #32
    2100:	00ca9c01 	sbceq	r9, sl, r1, lsl #24
    2104:	fc070000 	stc2	0, cr0, [r7], {-0}
    2108:	ac00008d 	stcge	0, cr0, [r0], {141}	; 0x8d
    210c:	08000000 	stmdaeq	r0, {}	; <UNPREDICTABLE>
    2110:	03055001 	movweq	r5, #20481	; 0x5001
    2114:	00009dc0 	andeq	r9, r0, r0, asr #27
    2118:	8e040900 	cdphi	9, 0, cr0, cr4, cr0, {0}
    211c:	00ea0000 	rsceq	r0, sl, r0
    2120:	00c00000 	sbceq	r0, r0, r0
    2124:	01080000 	mrseq	r0, (UNDEF: 8)
    2128:	64080250 	strvs	r0, [r8], #-592	; 0x250
    212c:	8e080a00 	vmlahi.f32	s0, s16, s0
    2130:	00fb0000 	rscseq	r0, fp, r0
    2134:	0b000000 	bleq	213c <_start-0x5ec4>
    2138:	00000025 	andeq	r0, r0, r5, lsr #32
    213c:	000000d9 	ldrdeq	r0, [r0], -r9
    2140:	0000790c 	andeq	r7, r0, ip, lsl #18
    2144:	6e0d0000 	cdpvs	0, 0, cr0, cr13, cr0, {0}
    2148:	02000005 	andeq	r0, r0, #5
    214c:	0000e422 	andeq	lr, r0, r2, lsr #8
    2150:	ca040400 	bgt	103158 <__bss_end__+0xf89f0>
    2154:	0e000000 	cdpeq	0, 0, cr0, cr0, cr0, {0}
    2158:	00000333 	andeq	r0, r0, r3, lsr r3
    215c:	00fb5002 	rscseq	r5, fp, r2
    2160:	2c0c0000 	stccs	0, cr0, [ip], {-0}
    2164:	00000000 	andeq	r0, r0, r0
    2168:	0005d20f 	andeq	sp, r5, pc, lsl #4
    216c:	00630200 	rsbeq	r0, r3, r0, lsl #4
    2170:	000002dd 	ldrdeq	r0, [r0], -sp
    2174:	08990004 	ldmeq	r9, {r2}
    2178:	01040000 	mrseq	r0, (UNDEF: 4)
    217c:	00000360 	andeq	r0, r0, r0, ror #6
    2180:	00069801 	andeq	r9, r6, r1, lsl #16
    2184:	0004dc00 	andeq	sp, r4, r0, lsl #24
    2188:	008e1000 	addeq	r1, lr, r0
    218c:	0000b000 	andeq	fp, r0, r0
    2190:	0008c300 	andeq	ip, r8, r0, lsl #6
    2194:	05040200 	streq	r0, [r4, #-512]	; 0x200
    2198:	00746e69 	rsbseq	r6, r4, r9, ror #28
    219c:	7b070403 	blvc	1c31b0 <__bss_end__+0x1b8a48>
    21a0:	03000000 	movweq	r0, #0
    21a4:	03100601 	tsteq	r0, #1048576	; 0x100000
    21a8:	02030000 	andeq	r0, r3, #0
    21ac:	00031c05 	andeq	r1, r3, r5, lsl #24
    21b0:	05040300 	streq	r0, [r4, #-768]	; 0x300
    21b4:	0000009d 	muleq	r0, sp, r0
    21b8:	98050803 	stmdals	r5, {r0, r1, fp}
    21bc:	04000000 	streq	r0, [r0], #-0
    21c0:	00000474 	andeq	r0, r0, r4, ror r4
    21c4:	005a2e02 	subseq	r2, sl, r2, lsl #28
    21c8:	01030000 	mrseq	r0, (UNDEF: 3)
    21cc:	00030e08 	andeq	r0, r3, r8, lsl #28
    21d0:	07020300 	streq	r0, [r2, -r0, lsl #6]
    21d4:	00000176 	andeq	r0, r0, r6, ror r1
    21d8:	00033c04 	andeq	r3, r3, r4, lsl #24
    21dc:	73340200 	teqvc	r4, #0, 4
    21e0:	03000000 	movweq	r0, #0
    21e4:	00760704 	rsbseq	r0, r6, r4, lsl #14
    21e8:	08030000 	stmdaeq	r3, {}	; <UNPREDICTABLE>
    21ec:	00007107 	andeq	r7, r0, r7, lsl #2
    21f0:	07040300 	streq	r0, [r4, -r0, lsl #6]
    21f4:	00000209 	andeq	r0, r0, r9, lsl #4
    21f8:	17080103 	strne	r0, [r8, -r3, lsl #2]
    21fc:	05000003 	streq	r0, [r0, #-3]
    2200:	00009504 	andeq	r9, r0, r4, lsl #10
    2204:	00880600 	addeq	r0, r8, r0, lsl #12
    2208:	0c070000 	stceq	0, cr0, [r7], {-0}
    220c:	00d10e03 	sbcseq	r0, r1, r3, lsl #28
    2210:	74080000 	strvc	r0, [r8], #-0
    2214:	0f030078 	svceq	0x00030078
    2218:	0000004f 	andeq	r0, r0, pc, asr #32
    221c:	78720800 	ldmdavc	r2!, {fp}^
    2220:	4f0f0300 	svcmi	0x000f0300
    2224:	01000000 	mrseq	r0, (UNDEF: 0)
    2228:	00034509 	andeq	r4, r3, r9, lsl #10
    222c:	68100300 	ldmdavs	r0, {r8, r9}
    2230:	04000000 	streq	r0, [r0], #-0
    2234:	0004a309 	andeq	sl, r4, r9, lsl #6
    2238:	68110300 	ldmdavs	r1, {r8, r9}
    223c:	08000000 	stmdaeq	r0, {}	; <UNPREDICTABLE>
    2240:	03040400 	movweq	r0, #17408	; 0x4400
    2244:	12030000 	andne	r0, r3, #0
    2248:	0000009a 	muleq	r0, sl, r0
    224c:	1004010a 	andne	r0, r4, sl, lsl #2
    2250:	000000f7 	strdeq	r0, [r0], -r7
    2254:	0006490b 	andeq	r4, r6, fp, lsl #18
    2258:	3c0b0100 	stfccs	f0, [fp], {-0}
    225c:	02000006 	andeq	r0, r0, #6
    2260:	00062e0b 	andeq	r2, r6, fp, lsl #28
    2264:	04000300 	streq	r0, [r0], #-768	; 0x300
    2268:	0000065e 	andeq	r0, r0, lr, asr r6
    226c:	00dc1004 	sbcseq	r1, ip, r4
    2270:	14070000 	strne	r0, [r7], #-0
    2274:	012f1404 	teqeq	pc, r4, lsl #8
    2278:	b8090000 	stmdalt	r9, {}	; <UNPREDICTABLE>
    227c:	04000006 	streq	r0, [r0], #-6
    2280:	00002c15 	andeq	r2, r0, r5, lsl ip
    2284:	ac090000 	stcge	0, cr0, [r9], {-0}
    2288:	04000006 	streq	r0, [r0], #-6
    228c:	0000f718 	andeq	pc, r0, r8, lsl r7	; <UNPREDICTABLE>
    2290:	77090400 	strvc	r0, [r9, -r0, lsl #8]
    2294:	04000006 	streq	r0, [r0], #-6
    2298:	0000d11b 	andeq	sp, r0, fp, lsl r1
    229c:	04000800 	streq	r0, [r0], #-2048	; 0x800
    22a0:	00000669 	andeq	r0, r0, r9, ror #12
    22a4:	01022004 	tsteq	r2, r4
    22a8:	f70c0000 			; <UNDEFINED> instruction: 0xf70c0000
    22ac:	01000005 	tsteq	r0, r5
    22b0:	00002506 	andeq	r2, r0, r6, lsl #10
    22b4:	008e1000 	addeq	r1, lr, r0
    22b8:	00002000 	andeq	r2, r0, r0
    22bc:	7a9c0100 	bvc	fe7026c4 <__bss_end__+0xfe6f7f5c>
    22c0:	0d000001 	stceq	0, cr0, [r0, #-4]
    22c4:	06010063 	streq	r0, [r1], -r3, rrx
    22c8:	00000025 	andeq	r0, r0, r5, lsr #32
    22cc:	0000128a 	andeq	r1, r0, sl, lsl #5
    22d0:	008e240e 	addeq	r2, lr, lr, lsl #8
    22d4:	00027a00 	andeq	r7, r2, r0, lsl #20
    22d8:	51010f00 	tstpl	r1, r0, lsl #30
    22dc:	0f007402 	svceq	0x00007402
    22e0:	03055001 	movweq	r5, #20481	; 0x5001
    22e4:	0000a354 	andeq	sl, r0, r4, asr r3
    22e8:	56100000 	ldrpl	r0, [r0], -r0
    22ec:	01000006 	tsteq	r0, r6
    22f0:	008e300b 	addeq	r3, lr, fp
    22f4:	00009000 	andeq	r9, r0, r0
    22f8:	279c0100 	ldrcs	r0, [ip, r0, lsl #2]
    22fc:	11000002 	tstne	r0, r2
    2300:	0000060b 	andeq	r0, r0, fp, lsl #12
    2304:	00250c01 	eoreq	r0, r5, r1, lsl #24
    2308:	8c110000 	ldchi	0, cr0, [r1], {-0}
    230c:	01000006 	tsteq	r0, r6
    2310:	0000250c 	andeq	r2, r0, ip, lsl #10
    2314:	00421200 	subeq	r1, r2, r0, lsl #4
    2318:	0d010000 	stceq	0, cr0, [r1, #-0]
    231c:	73736213 	cmnvc	r3, #805306369	; 0x30000001
    2320:	270f0100 	strcs	r0, [pc, -r0, lsl #2]
    2324:	a8000002 	stmdage	r0, {r1}
    2328:	14000012 	strne	r0, [r0], #-18
    232c:	00000619 	andeq	r0, r0, r9, lsl r6
    2330:	02271001 	eoreq	r1, r7, #1
    2334:	63130000 	tstvs	r3, #0
    2338:	17010062 	strne	r0, [r1, -r2, rrx]
    233c:	0000022d 	andeq	r0, r0, sp, lsr #4
    2340:	000012c8 	andeq	r1, r0, r8, asr #5
    2344:	008e5815 	addeq	r5, lr, r5, lsl r8
    2348:	00029600 	andeq	r9, r2, r0, lsl #12
    234c:	8e941600 	cdphi	6, 9, cr1, cr4, cr0, {0}
    2350:	02a10000 	adceq	r0, r1, #0
    2354:	01fd0000 	mvnseq	r0, r0
    2358:	010f0000 	mrseq	r0, CPSR
    235c:	cc030551 	cfstr32gt	mvfx0, [r3], {81}	; 0x51
    2360:	0f00009d 	svceq	0x0000009d
    2364:	03055001 	movweq	r5, #20481	; 0x5001
    2368:	0000a354 	andeq	sl, r0, r4, asr r3
    236c:	8e9c1600 	cdphi	6, 9, cr1, cr12, cr0, {0}
    2370:	02bc0000 	adcseq	r0, ip, #0
    2374:	02140000 	andseq	r0, r4, #0
    2378:	010f0000 	mrseq	r0, CPSR
    237c:	f0030550 			; <UNDEFINED> instruction: 0xf0030550
    2380:	0000009d 	muleq	r0, sp, r0
    2384:	008ea015 	addeq	sl, lr, r5, lsl r0
    2388:	0002d200 	andeq	sp, r2, r0, lsl #4
    238c:	8ea41500 	cdphi	5, 10, cr1, cr4, cr0, {0}
    2390:	02d90000 	sbcseq	r0, r9, #0
    2394:	05000000 	streq	r0, [r0, #-0]
    2398:	00002504 	andeq	r2, r0, r4, lsl #10
    239c:	2f040500 	svccs	0x00040500
    23a0:	17000001 	strne	r0, [r0, -r1]
    23a4:	00000621 	andeq	r0, r0, r1, lsr #12
    23a8:	00d10501 	sbcseq	r0, r1, r1, lsl #10
    23ac:	03050000 	movweq	r0, #20480	; 0x5000
    23b0:	0000a354 	andeq	sl, r0, r4, asr r3
    23b4:	00002518 	andeq	r2, r0, r8, lsl r5
    23b8:	00025300 	andeq	r5, r2, r0, lsl #6
    23bc:	00251900 	eoreq	r1, r5, r0, lsl #18
    23c0:	11000000 	mrsne	r0, (UNDEF: 0)
    23c4:	00000531 	andeq	r0, r0, r1, lsr r5
    23c8:	025e1d05 	subseq	r1, lr, #320	; 0x140
    23cc:	04050000 	streq	r0, [r5], #-0
    23d0:	00000244 	andeq	r0, r0, r4, asr #4
    23d4:	00060b11 	andeq	r0, r6, r1, lsl fp
    23d8:	250c0100 	strcs	r0, [ip, #-256]	; 0x100
    23dc:	11000000 	mrsne	r0, (UNDEF: 0)
    23e0:	0000068c 	andeq	r0, r0, ip, lsl #13
    23e4:	00250c01 	eoreq	r0, r5, r1, lsl #24
    23e8:	aa1a0000 	bge	6823f0 <__bss_end__+0x677c88>
    23ec:	03000001 	movweq	r0, #1
    23f0:	00029044 	andeq	r9, r2, r4, asr #32
    23f4:	02901900 	addseq	r1, r0, #0, 18
    23f8:	5a190000 	bpl	642400 <__bss_end__+0x637c98>
    23fc:	00000000 	andeq	r0, r0, r0
    2400:	00d10405 	sbcseq	r0, r1, r5, lsl #8
    2404:	7f1b0000 	svcvc	0x001b0000
    2408:	04000006 	streq	r0, [r0], #-6
    240c:	00022d2a 	andeq	r2, r2, sl, lsr #26
    2410:	01ce1c00 	biceq	r1, lr, r0, lsl #24
    2414:	15030000 	strne	r0, [r3, #-0]
    2418:	00000025 	andeq	r0, r0, r5, lsr #32
    241c:	000002bc 			; <UNDEFINED> instruction: 0x000002bc
    2420:	00029019 	andeq	r9, r2, r9, lsl r0
    2424:	008f1900 	addeq	r1, pc, r0, lsl #18
    2428:	001d0000 	andseq	r0, sp, r0
    242c:	0001c71c 	andeq	ip, r1, ip, lsl r7
    2430:	25290500 	strcs	r0, [r9, #-1280]!	; 0x500
    2434:	d2000000 	andle	r0, r0, #0
    2438:	19000002 	stmdbne	r0, {r1}
    243c:	0000008f 	andeq	r0, r0, pc, lsl #1
    2440:	4212001d 	andsmi	r0, r2, #29
    2444:	05000000 	streq	r0, [r0, #-0]
    2448:	05d212ce 	ldrbeq	r1, [r2, #718]	; 0x2ce
    244c:	63050000 	movwvs	r0, #20480	; 0x5000
    2450:	0001ad00 	andeq	sl, r1, r0, lsl #26
    2454:	30000400 	andcc	r0, r0, r0, lsl #8
    2458:	0400000a 	streq	r0, [r0], #-10
    245c:	00036001 	andeq	r6, r3, r1
    2460:	06d80100 	ldrbeq	r0, [r8], r0, lsl #2
    2464:	04dc0000 	ldrbeq	r0, [ip], #0
    2468:	00300000 	eorseq	r0, r0, r0
    246c:	00000000 	andeq	r0, r0, r0
    2470:	09e80000 	stmibeq	r8!, {}^	; <UNPREDICTABLE>
    2474:	04020000 	streq	r0, [r2], #-0
    2478:	746e6905 	strbtvc	r6, [lr], #-2309	; 0x905
    247c:	07040300 	streq	r0, [r4, -r0, lsl #6]
    2480:	0000007b 	andeq	r0, r0, fp, ror r0
    2484:	10060103 	andne	r0, r6, r3, lsl #2
    2488:	03000003 	movweq	r0, #3
    248c:	031c0502 	tsteq	ip, #8388608	; 0x800000
    2490:	04030000 	streq	r0, [r3], #-0
    2494:	00009d05 	andeq	r9, r0, r5, lsl #26
    2498:	05080300 	streq	r0, [r8, #-768]	; 0x300
    249c:	00000098 	muleq	r0, r8, r0
    24a0:	0e080103 	adfeqe	f0, f0, f3
    24a4:	03000003 	movweq	r0, #3
    24a8:	01760702 	cmneq	r6, r2, lsl #14
    24ac:	04030000 	streq	r0, [r3], #-0
    24b0:	00007607 	andeq	r7, r0, r7, lsl #12
    24b4:	07080300 	streq	r0, [r8, -r0, lsl #6]
    24b8:	00000071 	andeq	r0, r0, r1, ror r0
    24bc:	09070403 	stmdbeq	r7, {r0, r1, sl}
    24c0:	03000002 	movweq	r0, #2
    24c4:	03170801 	tsteq	r7, #65536	; 0x10000
    24c8:	be040000 	cdplt	0, 0, cr0, cr4, cr0, {0}
    24cc:	01000006 	tsteq	r0, r6
    24d0:	0000250e 	andeq	r2, r0, lr, lsl #10
    24d4:	008ec000 	addeq	ip, lr, r0
    24d8:	00001800 	andeq	r1, r0, r0, lsl #16
    24dc:	a29c0100 	addsge	r0, ip, #0, 2
    24e0:	05000000 	streq	r0, [r0, #-0]
    24e4:	0000072a 	andeq	r0, r0, sl, lsr #14
    24e8:	002c0f01 	eoreq	r0, ip, r1, lsl #30
    24ec:	12e80000 	rscne	r0, r8, #0
    24f0:	06000000 	streq	r0, [r0], -r0
    24f4:	0000070d 	andeq	r0, r0, sp, lsl #14
    24f8:	8ed81701 	cdphi	7, 13, cr1, cr8, cr1, {0}
    24fc:	00140000 	andseq	r0, r4, r0
    2500:	9c010000 	stcls	0, cr0, [r1], {-0}
    2504:	000000c7 	andeq	r0, r0, r7, asr #1
    2508:	00072a05 	andeq	r2, r7, r5, lsl #20
    250c:	2c180100 	ldfcss	f0, [r8], {-0}
    2510:	07000000 	streq	r0, [r0, -r0]
    2514:	00000013 	andeq	r0, r0, r3, lsl r0
    2518:	0005d206 	andeq	sp, r5, r6, lsl #4
    251c:	ec1f0100 	ldfs	f0, [pc], {-0}
    2520:	4800008e 	stmdami	r0, {r1, r2, r3, r7}
    2524:	01000000 	mrseq	r0, (UNDEF: 0)
    2528:	0001779c 	muleq	r1, ip, r7
    252c:	07220700 	streq	r0, [r2, -r0, lsl #14]!
    2530:	2a010000 	bcs	42538 <__bss_end__+0x37dd0>
    2534:	00000177 	andeq	r0, r0, r7, ror r1
    2538:	2010001c 	andscs	r0, r0, ip, lsl r0
    253c:	00070507 	andeq	r0, r7, r7, lsl #10
    2540:	772b0100 	strvc	r0, [fp, -r0, lsl #2]!
    2544:	24000001 	strcs	r0, [r0], #-1
    2548:	07201000 	streq	r1, [r0, -r0]!
    254c:	000006cc 	andeq	r0, r0, ip, asr #13
    2550:	01772c01 	cmneq	r7, r1, lsl #24
    2554:	00000000 	andeq	r0, r0, r0
    2558:	ec085a00 	stc	10, cr5, [r8], {-0}
    255c:	01000006 	tsteq	r0, r6
    2560:	0001772d 	andeq	r7, r1, sp, lsr #14
    2564:	f4092000 	vst4.8	{d2-d5}, [r9], r0
    2568:	7900008e 	stmdbvc	r0, {r1, r2, r3, r7}
    256c:	09000000 	stmdbeq	r0, {}	; <UNPREDICTABLE>
    2570:	00008f00 	andeq	r8, r0, r0, lsl #30
    2574:	000000a2 	andeq	r0, r0, r2, lsr #1
    2578:	008f080a 	addeq	r0, pc, sl, lsl #16
    257c:	00018d00 	andeq	r8, r1, r0, lsl #26
    2580:	00013a00 	andeq	r3, r1, r0, lsl #20
    2584:	50010b00 	andpl	r0, r1, r0, lsl #22
    2588:	0a004e01 	beq	15d94 <__bss_end__+0xb62c>
    258c:	00008f14 	andeq	r8, r0, r4, lsl pc
    2590:	0000019e 	muleq	r0, lr, r1
    2594:	0000015a 	andeq	r0, r0, sl, asr r1
    2598:	0551010b 	ldrbeq	r0, [r1, #-267]	; 0x10b
    259c:	0000010c 	andeq	r0, r0, ip, lsl #2
    25a0:	50010b5a 	andpl	r0, r1, sl, asr fp
    25a4:	00240c05 	eoreq	r0, r4, r5, lsl #24
    25a8:	0c002010 	stceq	0, cr2, [r0], {16}
    25ac:	00008f20 	andeq	r8, r0, r0, lsr #30
    25b0:	0000019e 	muleq	r0, lr, r1
    25b4:	0551010b 	ldrbeq	r0, [r1, #-267]	; 0x10b
    25b8:	0000200c 	andeq	r2, r0, ip
    25bc:	50010b5a 	andpl	r0, r1, sl, asr fp
    25c0:	001c0c05 	andseq	r0, ip, r5, lsl #24
    25c4:	00002010 	andeq	r2, r0, r0, lsl r0
    25c8:	0000250d 	andeq	r2, r0, sp, lsl #10
    25cc:	06c10800 	strbeq	r0, [r1], r0, lsl #16
    25d0:	0d010000 	stceq	0, cr0, [r1, #-0]
    25d4:	00000188 	andeq	r0, r0, r8, lsl #3
    25d8:	002c0d10 	eoreq	r0, ip, r0, lsl sp
    25dc:	330e0000 	movwcc	r0, #57344	; 0xe000
    25e0:	02000003 	andeq	r0, r0, #3
    25e4:	00019e50 	andeq	r9, r1, r0, asr lr
    25e8:	002c0f00 	eoreq	r0, ip, r0, lsl #30
    25ec:	10000000 	andne	r0, r0, r0
    25f0:	0000071c 	andeq	r0, r0, ip, lsl r7
    25f4:	2c0f9902 	stccs	9, cr9, [pc], {2}
    25f8:	0f000000 	svceq	0x00000000
    25fc:	0000002c 	andeq	r0, r0, ip, lsr #32
    2600:	01d80000 	bicseq	r0, r8, r0
    2604:	00040000 	andeq	r0, r4, r0
    2608:	00000b1e 	andeq	r0, r0, lr, lsl fp
    260c:	03600104 	cmneq	r0, #4, 2
    2610:	39010000 	stmdbcc	r1, {}	; <UNPREDICTABLE>
    2614:	dc000007 	stcle	0, cr0, [r0], {7}
    2618:	34000004 	strcc	r0, [r0], #-4
    261c:	8800008f 	stmdahi	r0, {r0, r1, r2, r3, r7}
    2620:	85000000 	strhi	r0, [r0, #-0]
    2624:	0200000a 	andeq	r0, r0, #10
    2628:	6e690504 	cdpvs	5, 6, cr0, cr9, cr4, {0}
    262c:	04030074 	streq	r0, [r3], #-116	; 0x74
    2630:	00007b07 	andeq	r7, r0, r7, lsl #22
    2634:	06010300 	streq	r0, [r1], -r0, lsl #6
    2638:	00000310 	andeq	r0, r0, r0, lsl r3
    263c:	1c050203 	sfmne	f0, 4, [r5], {3}
    2640:	03000003 	movweq	r0, #3
    2644:	009d0504 	addseq	r0, sp, r4, lsl #10
    2648:	08030000 	stmdaeq	r3, {}	; <UNPREDICTABLE>
    264c:	00009805 	andeq	r9, r0, r5, lsl #16
    2650:	08010300 	stmdaeq	r1, {r8, r9}
    2654:	0000030e 	andeq	r0, r0, lr, lsl #6
    2658:	76070203 	strvc	r0, [r7], -r3, lsl #4
    265c:	03000001 	movweq	r0, #1
    2660:	00760704 	rsbseq	r0, r6, r4, lsl #14
    2664:	08030000 	stmdaeq	r3, {}	; <UNPREDICTABLE>
    2668:	00007107 	andeq	r7, r0, r7, lsl #2
    266c:	07040300 	streq	r0, [r4, -r0, lsl #6]
    2670:	00000209 	andeq	r0, r0, r9, lsl #4
    2674:	17080103 	strne	r0, [r8, -r3, lsl #2]
    2678:	04000003 	streq	r0, [r0], #-3
    267c:	00000758 	andeq	r0, r0, r8, asr r7
    2680:	8f340501 	svchi	0x00340501
    2684:	001c0000 	andseq	r0, ip, r0
    2688:	9c010000 	stcls	0, cr0, [r1], {-0}
    268c:	0000009e 	muleq	r0, lr, r0
    2690:	00075205 	andeq	r5, r7, r5, lsl #4
    2694:	2c050100 	stfcss	f0, [r5], {-0}
    2698:	31000000 	mrscc	r0, (UNDEF: 0)
    269c:	00000013 	andeq	r0, r0, r3, lsl r0
    26a0:	00026b06 	andeq	r6, r2, r6, lsl #22
    26a4:	2c0b0100 	stfcss	f0, [fp], {-0}
    26a8:	50000000 	andpl	r0, r0, r0
    26ac:	1400008f 	strne	r0, [r0], #-143	; 0x8f
    26b0:	01000000 	mrseq	r0, (UNDEF: 0)
    26b4:	0000cb9c 	muleq	r0, ip, fp
    26b8:	8f5c0700 	svchi	0x005c0700
    26bc:	01ca0000 	biceq	r0, sl, r0
    26c0:	01080000 	mrseq	r0, (UNDEF: 8)
    26c4:	040c0550 	streq	r0, [ip], #-1360	; 0x550
    26c8:	00200030 	eoreq	r0, r0, r0, lsr r0
    26cc:	076e0600 	strbeq	r0, [lr, -r0, lsl #12]!
    26d0:	10010000 	andne	r0, r1, r0
    26d4:	0000002c 	andeq	r0, r0, ip, lsr #32
    26d8:	00008f64 	andeq	r8, r0, r4, ror #30
    26dc:	0000000c 	andeq	r0, r0, ip
    26e0:	00f99c01 	rscseq	r9, r9, r1, lsl #24
    26e4:	75090000 	strvc	r0, [r9, #-0]
    26e8:	2c140100 	ldfcss	f0, [r4], {-0}
    26ec:	01000000 	mrseq	r0, (UNDEF: 0)
    26f0:	8f6c0a50 	svchi	0x006c0a50
    26f4:	009e0000 	addseq	r0, lr, r0
    26f8:	04000000 	streq	r0, [r0], #-0
    26fc:	00000765 	andeq	r0, r0, r5, ror #14
    2700:	8f701901 	svchi	0x00701901
    2704:	00240000 	eoreq	r0, r4, r0
    2708:	9c010000 	stcls	0, cr0, [r1], {-0}
    270c:	00000157 	andeq	r0, r0, r7, asr r1
    2710:	0073750b 	rsbseq	r7, r3, fp, lsl #10
    2714:	002c1901 	eoreq	r1, ip, r1, lsl #18
    2718:	13650000 	cmnne	r5, #0
    271c:	72090000 	andvc	r0, r9, #0
    2720:	1a010062 	bne	428b0 <__bss_end__+0x38148>
    2724:	0000002c 	andeq	r0, r0, ip, lsr #32
    2728:	800c5401 	andhi	r5, ip, r1, lsl #8
    272c:	1000008f 	andne	r0, r0, pc, lsl #1
    2730:	4d000000 	stcmi	0, cr0, [r0, #-0]
    2734:	0d000001 	stceq	0, cr0, [r0, #-4]
    2738:	01006172 	tsteq	r0, r2, ror r1
    273c:	00002c1c 	andeq	r2, r0, ip, lsl ip
    2740:	00138300 	andseq	r8, r3, r0, lsl #6
    2744:	8f840a00 	svchi	0x00840a00
    2748:	00cb0000 	sbceq	r0, fp, r0
    274c:	0a000000 	beq	2754 <_start-0x58ac>
    2750:	00008f7c 	andeq	r8, r0, ip, ror pc
    2754:	000000cb 	andeq	r0, r0, fp, asr #1
    2758:	03330400 	teqeq	r3, #0, 8
    275c:	22010000 	andcs	r0, r1, #0
    2760:	00008f94 	muleq	r0, r4, pc	; <UNPREDICTABLE>
    2764:	00000014 	andeq	r0, r0, r4, lsl r0
    2768:	01909c01 	orrseq	r9, r0, r1, lsl #24
    276c:	6d0b0000 	stcvs	0, cr0, [fp, #-0]
    2770:	22010073 	andcs	r0, r1, #115	; 0x73
    2774:	0000002c 	andeq	r0, r0, ip, lsr #32
    2778:	00001396 	muleq	r0, r6, r3
    277c:	008fa407 	addeq	sl, pc, r7, lsl #8
    2780:	0000f900 	andeq	pc, r0, r0, lsl #18
    2784:	50010800 	andpl	r0, r1, r0, lsl #16
    2788:	5001f307 	andpl	pc, r1, r7, lsl #6
    278c:	1e03e80a 	cdpne	8, 0, cr14, cr3, cr10, {0}
    2790:	2f040000 	svccs	0x00040000
    2794:	01000007 	tsteq	r0, r7
    2798:	008fa825 	addeq	sl, pc, r5, lsr #16
    279c:	00001400 	andeq	r1, r0, r0, lsl #8
    27a0:	ca9c0100 	bgt	fe702ba8 <__bss_end__+0xfe6f8440>
    27a4:	0b000001 	bleq	27b0 <_start-0x5850>
    27a8:	00636573 	rsbeq	r6, r3, r3, ror r5
    27ac:	002c2501 	eoreq	r2, ip, r1, lsl #10
    27b0:	13b70000 			; <UNDEFINED> instruction: 0x13b70000
    27b4:	b8070000 	stmdalt	r7, {}	; <UNPREDICTABLE>
    27b8:	5700008f 	strpl	r0, [r0, -pc, lsl #1]
    27bc:	08000001 	stmdaeq	r0, {r0}
    27c0:	f3075001 	vhadd.u8	d5, d7, d1
    27c4:	e80a5001 	stmda	sl, {r0, ip, lr}
    27c8:	00001e03 	andeq	r1, r0, r3, lsl #28
    27cc:	00074c0e 	andeq	r4, r7, lr, lsl #24
    27d0:	2ca50200 	sfmcs	f0, 4, [r5]
    27d4:	0f000000 	svceq	0x00000000
    27d8:	0000002c 	andeq	r0, r0, ip, lsr #32
    27dc:	08cf0000 	stmiaeq	pc, {}^	; <UNPREDICTABLE>
    27e0:	00040000 	andeq	r0, r4, r0
    27e4:	00000c01 	andeq	r0, r0, r1, lsl #24
    27e8:	03600104 	cmneq	r0, #4, 2
    27ec:	d1010000 	mrsle	r0, (UNDEF: 1)
    27f0:	dc000007 	stcle	0, cr0, [r0], {7}
    27f4:	bc000004 	stclt	0, cr0, [r0], {4}
    27f8:	bc00008f 	stclt	0, cr0, [r0], {143}	; 0x8f
    27fc:	2c000005 	stccs	0, cr0, [r0], {5}
    2800:	0200000b 	andeq	r0, r0, #11
    2804:	00710708 	rsbseq	r0, r1, r8, lsl #14
    2808:	04020000 	streq	r0, [r2], #-0
    280c:	00007b07 	andeq	r7, r0, r7, lsl #22
    2810:	06010200 	streq	r0, [r1], -r0, lsl #4
    2814:	00000310 	andeq	r0, r0, r0, lsl r3
    2818:	1c050202 	sfmne	f0, 4, [r5], {2}
    281c:	02000003 	andeq	r0, r0, #3
    2820:	009d0504 	addseq	r0, sp, r4, lsl #10
    2824:	08020000 	stmdaeq	r2, {}	; <UNPREDICTABLE>
    2828:	00009805 	andeq	r9, r0, r5, lsl #16
    282c:	08010200 	stmdaeq	r1, {r9}
    2830:	0000030e 	andeq	r0, r0, lr, lsl #6
    2834:	76070202 	strvc	r0, [r7], -r2, lsl #4
    2838:	02000001 	andeq	r0, r0, #1
    283c:	00760704 	rsbseq	r0, r6, r4, lsl #14
    2840:	04030000 	streq	r0, [r3], #-0
    2844:	746e6905 	strbtvc	r6, [lr], #-2309	; 0x905
    2848:	07040200 	streq	r0, [r4, -r0, lsl #4]
    284c:	00000209 	andeq	r0, r0, r9, lsl #4
    2850:	17080102 	strne	r0, [r8, -r2, lsl #2]
    2854:	04000003 	streq	r0, [r0], #-3
    2858:	b20c0201 	andlt	r0, ip, #268435456	; 0x10000000
    285c:	05000000 	streq	r0, [r0, #-0]
    2860:	000007b4 			; <UNDEFINED> instruction: 0x000007b4
    2864:	08cb0500 	stmiaeq	fp, {r8, sl}^
    2868:	05010000 	streq	r0, [r1, #-0]
    286c:	000008ee 	andeq	r0, r0, lr, ror #17
    2870:	08fd0504 	ldmeq	sp!, {r2, r8, sl}^
    2874:	05050000 	streq	r0, [r5, #-0]
    2878:	0000090c 	andeq	r0, r0, ip, lsl #18
    287c:	091b0506 	ldmdbeq	fp, {r1, r2, r8, sl}
    2880:	05070000 	streq	r0, [r7, #-0]
    2884:	0000092a 	andeq	r0, r0, sl, lsr #18
    2888:	09390503 	ldmdbeq	r9!, {r0, r1, r8, sl}
    288c:	00020000 	andeq	r0, r2, r0
    2890:	0008e206 	andeq	lr, r8, r6, lsl #4
    2894:	79150200 	ldmdbvc	r5, {r9}
    2898:	07000000 	streq	r0, [r0, -r0]
    289c:	00000444 	andeq	r0, r0, r4, asr #8
    28a0:	8fbc3f01 	svchi	0x00bc3f01
    28a4:	00d40000 	sbcseq	r0, r4, r0
    28a8:	9c010000 	stcls	0, cr0, [r1], {-0}
    28ac:	00000133 	andeq	r0, r0, r3, lsr r1
    28b0:	6e697008 	cdpvs	0, 6, cr7, cr9, cr8, {0}
    28b4:	2c3f0100 	ldfcss	f0, [pc], #-0	; 28bc <_start-0x5744>
    28b8:	d8000000 	stmdale	r0, {}	; <UNPREDICTABLE>
    28bc:	09000013 	stmdbeq	r0, {r0, r1, r4}
    28c0:	0000080d 	andeq	r0, r0, sp, lsl #16
    28c4:	01334701 	teqeq	r3, r1, lsl #14
    28c8:	13f60000 	mvnsne	r0, #0
    28cc:	48090000 	stmdami	r9, {}	; <UNPREDICTABLE>
    28d0:	01000009 	tsteq	r0, r9
    28d4:	00002c49 	andeq	r2, r0, r9, asr #24
    28d8:	00144b00 	andseq	r4, r4, r0, lsl #22
    28dc:	088c0900 	stmeq	ip, {r8, fp}
    28e0:	57010000 	strpl	r0, [r1, -r0]
    28e4:	0000002c 	andeq	r0, r0, ip, lsr #32
    28e8:	00001617 	andeq	r1, r0, r7, lsl r6
    28ec:	0090500a 	addseq	r5, r0, sl
    28f0:	00088e00 	andeq	r8, r8, r0, lsl #28
    28f4:	00012200 	andeq	r2, r1, r0, lsl #4
    28f8:	50010b00 	andpl	r0, r1, r0, lsl #22
    28fc:	00007502 	andeq	r7, r0, r2, lsl #10
    2900:	0090840c 	addseq	r8, r0, ip, lsl #8
    2904:	0008af00 	andeq	sl, r8, r0, lsl #30
    2908:	50010b00 	andpl	r0, r1, r0, lsl #22
    290c:	00007502 	andeq	r7, r0, r2, lsl #10
    2910:	39040d00 	stmdbcc	r4, {r8, sl, fp}
    2914:	0e000001 	cdpeq	0, 0, cr0, cr0, cr1, {0}
    2918:	0000002c 	andeq	r0, r0, ip, lsr #32
    291c:	0008b10f 	andeq	fp, r8, pc, lsl #2
    2920:	03600100 	cmneq	r0, #0, 2
    2924:	0000016c 	andeq	r0, r0, ip, ror #2
    2928:	6e697010 	mcrvs	0, 3, r7, cr9, cr0, {0}
    292c:	2c600100 	stfcse	f0, [r0], #-0
    2930:	11000000 	mrsne	r0, (UNDEF: 0)
    2934:	0000080d 	andeq	r0, r0, sp, lsl #16
    2938:	01336701 	teqeq	r3, r1, lsl #14
    293c:	8c110000 	ldchi	0, cr0, [r1], {-0}
    2940:	01000008 	tsteq	r0, r8
    2944:	00002c68 	andeq	r2, r0, r8, ror #24
    2948:	3e120000 	cdpcc	0, 1, cr0, cr2, cr0, {0}
    294c:	90000001 	andls	r0, r0, r1
    2950:	38000090 	stmdacc	r0, {r4, r7}
    2954:	01000000 	mrseq	r0, (UNDEF: 0)
    2958:	0001b09c 	muleq	r1, ip, r0
    295c:	014a1300 	mrseq	r1, (UNDEF: 122)
    2960:	16470000 	strbne	r0, [r7], -r0
    2964:	55140000 	ldrpl	r0, [r4, #-0]
    2968:	68000001 	stmdavs	r0, {r0}
    296c:	14000016 	strne	r0, [r0], #-22
    2970:	00000160 	andeq	r0, r0, r0, ror #2
    2974:	0000169e 	muleq	r0, lr, r6
    2978:	0090c00c 	addseq	ip, r0, ip
    297c:	0008af00 	andeq	sl, r8, r0, lsl #30
    2980:	51010b00 	tstpl	r1, r0, lsl #22
    2984:	01f33107 	mvnseq	r3, r7, lsl #2
    2988:	241a4f50 	ldrcs	r4, [sl], #-3920	; 0xf50
    298c:	c40f0000 	strgt	r0, [pc], #-0	; 2994 <_start-0x566c>
    2990:	01000007 	tsteq	r0, r7
    2994:	01de037b 	bicseq	r0, lr, fp, ror r3
    2998:	70100000 	andsvc	r0, r0, r0
    299c:	01006e69 	tsteq	r0, r9, ror #28
    29a0:	00002c7b 	andeq	r2, r0, fp, ror ip
    29a4:	080d1100 	stmdaeq	sp, {r8, ip}
    29a8:	81010000 	mrshi	r0, (UNDEF: 1)
    29ac:	00000133 	andeq	r0, r0, r3, lsr r1
    29b0:	00088c11 	andeq	r8, r8, r1, lsl ip
    29b4:	2c820100 	stfcss	f0, [r2], {0}
    29b8:	00000000 	andeq	r0, r0, r0
    29bc:	0001b012 	andeq	fp, r1, r2, lsl r0
    29c0:	0090c800 	addseq	ip, r0, r0, lsl #16
    29c4:	00003800 	andeq	r3, r0, r0, lsl #16
    29c8:	229c0100 	addscs	r0, ip, #0, 2
    29cc:	13000002 	movwne	r0, #2
    29d0:	000001bc 			; <UNDEFINED> instruction: 0x000001bc
    29d4:	000016de 	ldrdeq	r1, [r0], -lr
    29d8:	0001c714 	andeq	ip, r1, r4, lsl r7
    29dc:	0016ff00 	andseq	pc, r6, r0, lsl #30
    29e0:	01d21400 	bicseq	r1, r2, r0, lsl #8
    29e4:	17350000 	ldrne	r0, [r5, -r0]!
    29e8:	f80c0000 			; <UNDEFINED> instruction: 0xf80c0000
    29ec:	af000090 	svcge	0x00000090
    29f0:	0b000008 	bleq	2a18 <_start-0x55e8>
    29f4:	31075101 	tstcc	r7, r1, lsl #2
    29f8:	4f5001f3 	svcmi	0x005001f3
    29fc:	0000241a 	andeq	r2, r0, sl, lsl r4
    2a00:	0003b707 	andeq	fp, r3, r7, lsl #14
    2a04:	00950100 	addseq	r0, r5, r0, lsl #2
    2a08:	cc000091 	stcgt	0, cr0, [r0], {145}	; 0x91
    2a0c:	01000000 	mrseq	r0, (UNDEF: 0)
    2a10:	0002989c 	muleq	r2, ip, r8
    2a14:	69700800 	ldmdbvs	r0!, {fp}^
    2a18:	9501006e 	strls	r0, [r1, #-110]	; 0x6e
    2a1c:	0000002c 	andeq	r0, r0, ip, lsr #32
    2a20:	00001775 	andeq	r1, r0, r5, ror r7
    2a24:	00080d09 	andeq	r0, r8, r9, lsl #26
    2a28:	339b0100 	orrscc	r0, fp, #0, 2
    2a2c:	93000001 	movwls	r0, #1
    2a30:	09000017 	stmdbeq	r0, {r0, r1, r2, r4}
    2a34:	00000948 	andeq	r0, r0, r8, asr #18
    2a38:	002c9d01 	eoreq	r9, ip, r1, lsl #26
    2a3c:	17e80000 	strbne	r0, [r8, r0]!
    2a40:	8c090000 	stchi	0, cr0, [r9], {-0}
    2a44:	01000008 	tsteq	r0, r8
    2a48:	00002cab 	andeq	r2, r0, fp, lsr #25
    2a4c:	0019b400 	andseq	fp, r9, r0, lsl #8
    2a50:	91940a00 	orrsls	r0, r4, r0, lsl #20
    2a54:	088e0000 	stmeq	lr, {}	; <UNPREDICTABLE>
    2a58:	02870000 	addeq	r0, r7, #0
    2a5c:	010b0000 	mrseq	r0, (UNDEF: 11)
    2a60:	00750250 	rsbseq	r0, r5, r0, asr r2
    2a64:	91c00c00 	bicls	r0, r0, r0, lsl #24
    2a68:	08af0000 	stmiaeq	pc!, {}	; <UNPREDICTABLE>
    2a6c:	010b0000 	mrseq	r0, (UNDEF: 11)
    2a70:	00750250 	rsbseq	r0, r5, r0, asr r2
    2a74:	dd150000 	ldcle	0, cr0, [r5, #-0]
    2a78:	01000001 	tsteq	r0, r1
    2a7c:	000064b3 			; <UNDEFINED> instruction: 0x000064b3
    2a80:	0091cc00 	addseq	ip, r1, r0, lsl #24
    2a84:	00004c00 	andeq	r4, r0, r0, lsl #24
    2a88:	e09c0100 	adds	r0, ip, r0, lsl #2
    2a8c:	08000002 	stmdaeq	r0, {r1}
    2a90:	006e6970 	rsbeq	r6, lr, r0, ror r9
    2a94:	002cb301 	eoreq	fp, ip, r1, lsl #6
    2a98:	19d20000 	ldmibne	r2, {}^	; <UNPREDICTABLE>
    2a9c:	76160000 	ldrvc	r0, [r6], -r0
    2aa0:	2cb90100 	ldfcss	f0, [r9]
    2aa4:	2a000000 	bcs	2aac <_start-0x5554>
    2aa8:	1700001a 	smladne	r0, sl, r0, r0
    2aac:	000091ec 	andeq	r9, r0, ip, ror #3
    2ab0:	0000088e 	andeq	r0, r0, lr, lsl #17
    2ab4:	0091fc17 	addseq	pc, r1, r7, lsl ip	; <UNPREDICTABLE>
    2ab8:	00088e00 	andeq	r8, r8, r0, lsl #28
    2abc:	37070000 	strcc	r0, [r7, -r0]
    2ac0:	01000000 	mrseq	r0, (UNDEF: 0)
    2ac4:	009218c5 	addseq	r1, r2, r5, asr #17
    2ac8:	00007800 	andeq	r7, r0, r0, lsl #16
    2acc:	aa9c0100 	bge	fe702ed4 <__bss_end__+0xfe6f876c>
    2ad0:	08000003 	stmdaeq	r0, {r0, r1}
    2ad4:	006e6970 	rsbeq	r6, lr, r0, ror r9
    2ad8:	002cc501 	eoreq	ip, ip, r1, lsl #10
    2adc:	1a600000 	bne	1802ae4 <__bss_end__+0x17f837c>
    2ae0:	76080000 	strvc	r0, [r8], -r0
    2ae4:	2cc50100 	stfcse	f0, [r5], {0}
    2ae8:	9a000000 	bls	2af0 <_start-0x5510>
    2aec:	1800001a 	stmdane	r0, {r1, r3, r4}
    2af0:	0000013e 	andeq	r0, r0, lr, lsr r1
    2af4:	0000922c 	andeq	r9, r0, ip, lsr #4
    2af8:	00000030 	andeq	r0, r0, r0, lsr r0
    2afc:	035fcc01 	cmpeq	pc, #256	; 0x100
    2b00:	4a130000 	bmi	4c2b08 <__bss_end__+0x4b83a0>
    2b04:	d4000001 	strle	r0, [r0], #-1
    2b08:	1900001a 	stmdbne	r0, {r1, r3, r4}
    2b0c:	0000922c 	andeq	r9, r0, ip, lsr #4
    2b10:	00000030 	andeq	r0, r0, r0, lsr r0
    2b14:	00015514 	andeq	r5, r1, r4, lsl r5
    2b18:	001af500 	andseq	pc, sl, r0, lsl #10
    2b1c:	01601400 	cmneq	r0, r0, lsl #8
    2b20:	1b2b0000 	blne	ac2b28 <__bss_end__+0xab83c0>
    2b24:	580c0000 	stmdapl	ip, {}	; <UNPREDICTABLE>
    2b28:	af000092 	svcge	0x00000092
    2b2c:	0b000008 	bleq	2b54 <_start-0x54ac>
    2b30:	31075101 	tstcc	r7, r1, lsl #2
    2b34:	4f5001f3 	svcmi	0x005001f3
    2b38:	0000241a 	andeq	r2, r0, sl, lsl r4
    2b3c:	01b01a00 	lslseq	r1, r0, #20
    2b40:	925c0000 	subsls	r0, ip, #0
    2b44:	00340000 	eorseq	r0, r4, r0
    2b48:	ce010000 	cdpgt	0, 0, cr0, cr1, cr0, {0}
    2b4c:	0001bc13 	andeq	fp, r1, r3, lsl ip
    2b50:	001b6b00 	andseq	r6, fp, r0, lsl #22
    2b54:	925c1900 	subsls	r1, ip, #0, 18
    2b58:	00340000 	eorseq	r0, r4, r0
    2b5c:	c7140000 	ldrgt	r0, [r4, -r0]
    2b60:	8c000001 	stchi	0, cr0, [r0], {1}
    2b64:	1400001b 	strne	r0, [r0], #-27
    2b68:	000001d2 	ldrdeq	r0, [r0], -r2
    2b6c:	00001bc2 	andeq	r1, r0, r2, asr #23
    2b70:	0092880c 	addseq	r8, r2, ip, lsl #16
    2b74:	0008af00 	andeq	sl, r8, r0, lsl #30
    2b78:	51010b00 	tstpl	r1, r0, lsl #22
    2b7c:	01f33107 	mvnseq	r3, r7, lsl #2
    2b80:	241a4f50 	ldrcs	r4, [sl], #-3920	; 0xf50
    2b84:	00000000 	andeq	r0, r0, r0
    2b88:	00085007 	andeq	r5, r8, r7
    2b8c:	90d10100 	sbcsls	r0, r1, r0, lsl #2
    2b90:	d8000092 	stmdale	r0, {r1, r4, r7}
    2b94:	01000000 	mrseq	r0, (UNDEF: 0)
    2b98:	00042f9c 	muleq	r4, ip, pc	; <UNPREDICTABLE>
    2b9c:	69700800 	ldmdbvs	r0!, {fp}^
    2ba0:	d101006e 	tstle	r1, lr, rrx
    2ba4:	0000002c 	andeq	r0, r0, ip, lsr #32
    2ba8:	00001c02 	andeq	r1, r0, r2, lsl #24
    2bac:	00089e1b 	andeq	r9, r8, fp, lsl lr
    2bb0:	b2d10100 	sbcslt	r0, r1, #0, 2
    2bb4:	20000000 	andcs	r0, r0, r0
    2bb8:	0900001c 	stmdbeq	r0, {r2, r3, r4}
    2bbc:	0000080d 	andeq	r0, r0, sp, lsl #16
    2bc0:	0133d901 	teqeq	r3, r1, lsl #18
    2bc4:	1c410000 	marne	acc0, r0, r1
    2bc8:	48090000 	stmdami	r9, {}	; <UNPREDICTABLE>
    2bcc:	01000009 	tsteq	r0, r9
    2bd0:	00002cda 	ldrdeq	r2, [r0], -sl
    2bd4:	001c9600 	andseq	r9, ip, r0, lsl #12
    2bd8:	088c0900 	stmeq	ip, {r8, fp}
    2bdc:	e8010000 	stmda	r1, {}	; <UNPREDICTABLE>
    2be0:	0000002c 	andeq	r0, r0, ip, lsr #32
    2be4:	00001e62 	andeq	r1, r0, r2, ror #28
    2be8:	00932c0a 	addseq	r2, r3, sl, lsl #24
    2bec:	00088e00 	andeq	r8, r8, r0, lsl #28
    2bf0:	00041e00 	andeq	r1, r4, r0, lsl #28
    2bf4:	50010b00 	andpl	r0, r1, r0, lsl #22
    2bf8:	00007602 	andeq	r7, r0, r2, lsl #12
    2bfc:	00935c0c 	addseq	r5, r3, ip, lsl #24
    2c00:	0008af00 	andeq	sl, r8, r0, lsl #30
    2c04:	50010b00 	andpl	r0, r1, r0, lsl #22
    2c08:	00007602 	andeq	r7, r0, r2, lsl #12
    2c0c:	04921c00 	ldreq	r1, [r2], #3072	; 0xc00
    2c10:	05010000 	streq	r0, [r1, #-0]
    2c14:	00006401 	andeq	r6, r0, r1, lsl #8
    2c18:	00936800 	addseq	r6, r3, r0, lsl #16
    2c1c:	00002c00 	andeq	r2, r0, r0, lsl #24
    2c20:	639c0100 	orrsvs	r0, ip, #0, 2
    2c24:	1d000004 	stcne	0, cr0, [r0, #-16]
    2c28:	00000495 	muleq	r0, r5, r4
    2c2c:	2c010501 	cfstr32cs	mvfx0, [r1], {1}
    2c30:	93000000 	movwls	r0, #0
    2c34:	1700001e 	smladne	r0, lr, r0, r0
    2c38:	00009378 	andeq	r9, r0, r8, ror r3
    2c3c:	0000088e 	andeq	r0, r0, lr, lsl #17
    2c40:	01f41e00 	mvnseq	r1, r0, lsl #28
    2c44:	14010000 	strne	r0, [r1], #-0
    2c48:	00939401 	addseq	r9, r3, r1, lsl #8
    2c4c:	00008400 	andeq	r8, r0, r0, lsl #8
    2c50:	279c0100 	ldrcs	r0, [ip, r0, lsl #2]
    2c54:	1f000005 	svcne	0x00000005
    2c58:	006e6970 	rsbeq	r6, lr, r0, ror r9
    2c5c:	2c011401 	cfstrscs	mvf1, [r1], {1}
    2c60:	b4000000 	strlt	r0, [r0], #-0
    2c64:	2000001e 	andcs	r0, r0, lr, lsl r0
    2c68:	000007df 	ldrdeq	r0, [r0], -pc	; <UNPREDICTABLE>
    2c6c:	2c012601 	stccs	6, cr2, [r1], {1}
    2c70:	e0000000 	and	r0, r0, r0
    2c74:	2100001e 	tstcs	r0, lr, lsl r0
    2c78:	000093b0 			; <UNDEFINED> instruction: 0x000093b0
    2c7c:	0000001c 	andeq	r0, r0, ip, lsl r0
    2c80:	000004c9 	andeq	r0, r0, r9, asr #9
    2c84:	00088c20 	andeq	r8, r8, r0, lsr #24
    2c88:	011d0100 	tsteq	sp, r0, lsl #2
    2c8c:	0000002c 	andeq	r0, r0, ip, lsr #32
    2c90:	00001efe 	strdeq	r1, [r0], -lr
    2c94:	0093bc17 	addseq	fp, r3, r7, lsl ip
    2c98:	00088e00 	andeq	r8, r8, r0, lsl #28
    2c9c:	93cc1700 	bicls	r1, ip, #0, 14
    2ca0:	08af0000 	stmiaeq	pc!, {}	; <UNPREDICTABLE>
    2ca4:	21000000 	mrscs	r0, (UNDEF: 0)
    2ca8:	000093d0 	ldrdeq	r9, [r0], -r0
    2cac:	00000020 	andeq	r0, r0, r0, lsr #32
    2cb0:	000004f9 	strdeq	r0, [r0], -r9
    2cb4:	00088c20 	andeq	r8, r8, r0, lsr #24
    2cb8:	01210100 	teqeq	r1, r0, lsl #2
    2cbc:	0000002c 	andeq	r0, r0, ip, lsr #32
    2cc0:	00001f1c 	andeq	r1, r0, ip, lsl pc
    2cc4:	0093dc17 	addseq	sp, r3, r7, lsl ip
    2cc8:	00088e00 	andeq	r8, r8, r0, lsl #28
    2ccc:	93f01700 	mvnsls	r1, #0, 14
    2cd0:	08af0000 	stmiaeq	pc!, {}	; <UNPREDICTABLE>
    2cd4:	17000000 	strne	r0, [r0, -r0]
    2cd8:	000093a8 	andeq	r9, r0, r8, lsr #7
    2cdc:	000008cb 	andeq	r0, r0, fp, asr #17
    2ce0:	0093f417 	addseq	pc, r3, r7, lsl r4	; <UNPREDICTABLE>
    2ce4:	0008cb00 	andeq	ip, r8, r0, lsl #22
    2ce8:	94001700 	strls	r1, [r0], #-1792	; 0x700
    2cec:	088e0000 	stmeq	lr, {}	; <UNPREDICTABLE>
    2cf0:	0c170000 	ldceq	0, cr0, [r7], {-0}
    2cf4:	af000094 	svcge	0x00000094
    2cf8:	17000008 	strne	r0, [r0, -r8]
    2cfc:	00009410 	andeq	r9, r0, r0, lsl r4
    2d00:	000008cb 	andeq	r0, r0, fp, asr #17
    2d04:	047c1e00 	ldrbteq	r1, [ip], #-3584	; 0xe00
    2d08:	31010000 	mrscc	r0, (UNDEF: 1)
    2d0c:	00941801 	addseq	r1, r4, r1, lsl #16
    2d10:	00008400 	andeq	r8, r0, r0, lsl #8
    2d14:	eb9c0100 	bl	fe70311c <__bss_end__+0xfe6f89b4>
    2d18:	1f000005 	svcne	0x00000005
    2d1c:	006e6970 	rsbeq	r6, lr, r0, ror r9
    2d20:	2c013101 	stfcss	f3, [r1], {1}
    2d24:	3a000000 	bcc	2d2c <_start-0x52d4>
    2d28:	2000001f 	andcs	r0, r0, pc, lsl r0
    2d2c:	000007df 	ldrdeq	r0, [r0], -pc	; <UNPREDICTABLE>
    2d30:	2c014201 	sfmcs	f4, 4, [r1], {1}
    2d34:	66000000 	strvs	r0, [r0], -r0
    2d38:	2100001f 	tstcs	r0, pc, lsl r0
    2d3c:	00009434 	andeq	r9, r0, r4, lsr r4
    2d40:	0000001c 	andeq	r0, r0, ip, lsl r0
    2d44:	0000058d 	andeq	r0, r0, sp, lsl #11
    2d48:	00088c20 	andeq	r8, r8, r0, lsr #24
    2d4c:	01390100 	teqeq	r9, r0, lsl #2
    2d50:	0000002c 	andeq	r0, r0, ip, lsr #32
    2d54:	00001f84 	andeq	r1, r0, r4, lsl #31
    2d58:	00944017 	addseq	r4, r4, r7, lsl r0
    2d5c:	00088e00 	andeq	r8, r8, r0, lsl #28
    2d60:	94501700 	ldrbls	r1, [r0], #-1792	; 0x700
    2d64:	08af0000 	stmiaeq	pc!, {}	; <UNPREDICTABLE>
    2d68:	21000000 	mrscs	r0, (UNDEF: 0)
    2d6c:	00009454 	andeq	r9, r0, r4, asr r4
    2d70:	00000020 	andeq	r0, r0, r0, lsr #32
    2d74:	000005bd 			; <UNDEFINED> instruction: 0x000005bd
    2d78:	00088c20 	andeq	r8, r8, r0, lsr #24
    2d7c:	013d0100 	teqeq	sp, r0, lsl #2
    2d80:	0000002c 	andeq	r0, r0, ip, lsr #32
    2d84:	00001fa2 	andeq	r1, r0, r2, lsr #31
    2d88:	00946017 	addseq	r6, r4, r7, lsl r0
    2d8c:	00088e00 	andeq	r8, r8, r0, lsl #28
    2d90:	94741700 	ldrbtls	r1, [r4], #-1792	; 0x700
    2d94:	08af0000 	stmiaeq	pc!, {}	; <UNPREDICTABLE>
    2d98:	17000000 	strne	r0, [r0, -r0]
    2d9c:	0000942c 	andeq	r9, r0, ip, lsr #8
    2da0:	000008cb 	andeq	r0, r0, fp, asr #17
    2da4:	00947817 	addseq	r7, r4, r7, lsl r8
    2da8:	0008cb00 	andeq	ip, r8, r0, lsl #22
    2dac:	94841700 	strls	r1, [r4], #1792	; 0x700
    2db0:	088e0000 	stmeq	lr, {}	; <UNPREDICTABLE>
    2db4:	90170000 	andsls	r0, r7, r0
    2db8:	af000094 	svcge	0x00000094
    2dbc:	17000008 	strne	r0, [r0, -r8]
    2dc0:	00009494 	muleq	r0, r4, r4
    2dc4:	000008cb 	andeq	r0, r0, fp, asr #17
    2dc8:	077d1c00 	ldrbeq	r1, [sp, -r0, lsl #24]!
    2dcc:	4c010000 	stcmi	0, cr0, [r1], {-0}
    2dd0:	00006401 	andeq	r6, r0, r1, lsl #8
    2dd4:	00949c00 	addseq	r9, r4, r0, lsl #24
    2dd8:	00008400 	andeq	r8, r0, r0, lsl #8
    2ddc:	919c0100 	orrsls	r0, ip, r0, lsl #2
    2de0:	1f000006 	svcne	0x00000006
    2de4:	006e6970 	rsbeq	r6, lr, r0, ror r9
    2de8:	2c014c01 	stccs	12, cr4, [r1], {1}
    2dec:	c0000000 	andgt	r0, r0, r0
    2df0:	2100001f 	tstcs	r0, pc, lsl r0
    2df4:	000094b8 			; <UNDEFINED> instruction: 0x000094b8
    2df8:	00000024 	andeq	r0, r0, r4, lsr #32
    2dfc:	00000645 	andeq	r0, r0, r5, asr #12
    2e00:	0007f620 	andeq	pc, r7, r0, lsr #12
    2e04:	01530100 	cmpeq	r3, r0, lsl #2
    2e08:	0000002c 	andeq	r0, r0, ip, lsr #32
    2e0c:	00002002 	andeq	r2, r0, r2
    2e10:	0094c417 	addseq	ip, r4, r7, lsl r4
    2e14:	00088e00 	andeq	r8, r8, r0, lsl #28
    2e18:	94d41700 	ldrbls	r1, [r4], #1792	; 0x700
    2e1c:	08cb0000 	stmiaeq	fp, {}^	; <UNPREDICTABLE>
    2e20:	21000000 	mrscs	r0, (UNDEF: 0)
    2e24:	000094dc 	ldrdeq	r9, [r0], -ip
    2e28:	0000002c 	andeq	r0, r0, ip, lsr #32
    2e2c:	0000067e 	andeq	r0, r0, lr, ror r6
    2e30:	0007f620 	andeq	pc, r7, r0, lsr #12
    2e34:	01560100 	cmpeq	r6, r0, lsl #2
    2e38:	0000002c 	andeq	r0, r0, ip, lsr #32
    2e3c:	0000201c 	andeq	r2, r0, ip, lsl r0
    2e40:	0094e817 	addseq	lr, r4, r7, lsl r8
    2e44:	00088e00 	andeq	r8, r8, r0, lsl #28
    2e48:	94f41700 	ldrbtls	r1, [r4], #1792	; 0x700
    2e4c:	08cb0000 	stmiaeq	fp, {}^	; <UNPREDICTABLE>
    2e50:	00170000 	andseq	r0, r7, r0
    2e54:	cb000095 	blgt	30b0 <_start-0x4f50>
    2e58:	00000008 	andeq	r0, r0, r8
    2e5c:	0094b017 	addseq	fp, r4, r7, lsl r0
    2e60:	0008cb00 	andeq	ip, r8, r0, lsl #22
    2e64:	950c1700 	strls	r1, [ip, #-1792]	; 0x700
    2e68:	08cb0000 	stmiaeq	fp, {}^	; <UNPREDICTABLE>
    2e6c:	1e000000 	cdpne	0, 0, cr0, cr0, cr0, {0}
    2e70:	00000152 	andeq	r0, r0, r2, asr r1
    2e74:	20015f01 	andcs	r5, r1, r1, lsl #30
    2e78:	58000095 	stmdapl	r0, {r0, r2, r4, r7}
    2e7c:	01000000 	mrseq	r0, (UNDEF: 0)
    2e80:	0006f69c 	muleq	r6, ip, r6
    2e84:	69701f00 	ldmdbvs	r0!, {r8, r9, sl, fp, ip}^
    2e88:	5f01006e 	svcpl	0x0001006e
    2e8c:	00002c01 	andeq	r2, r0, r1, lsl #24
    2e90:	00202f00 	eoreq	r2, r0, r0, lsl #30
    2e94:	95341700 	ldrls	r1, [r4, #-1792]!	; 0x700
    2e98:	08cb0000 	stmiaeq	fp, {}^	; <UNPREDICTABLE>
    2e9c:	500a0000 	andpl	r0, sl, r0
    2ea0:	af000095 	svcge	0x00000095
    2ea4:	d6000008 	strle	r0, [r0], -r8
    2ea8:	0b000006 	bleq	2ec8 <_start-0x5138>
    2eac:	31045101 	tstcc	r4, r1, lsl #2
    2eb0:	00240074 	eoreq	r0, r4, r4, ror r0
    2eb4:	00956c0a 	addseq	r6, r5, sl, lsl #24
    2eb8:	0008af00 	andeq	sl, r8, r0, lsl #30
    2ebc:	0006ec00 	andeq	lr, r6, r0, lsl #24
    2ec0:	51010b00 	tstpl	r1, r0, lsl #22
    2ec4:	00743104 	rsbseq	r3, r4, r4, lsl #2
    2ec8:	70170024 	andsvc	r0, r7, r4, lsr #32
    2ecc:	cb000095 	blgt	3128 <_start-0x4ed8>
    2ed0:	00000008 	andeq	r0, r0, r8
    2ed4:	00083e22 	andeq	r3, r8, r2, lsr #28
    2ed8:	33280100 	teqcc	r8, #0, 2
    2edc:	05000001 	streq	r0, [r0, #-1]
    2ee0:	009adc03 	addseq	sp, sl, r3, lsl #24
    2ee4:	08942200 	ldmeq	r4, {r9, sp}
    2ee8:	29010000 	stmdbcs	r1, {}	; <UNPREDICTABLE>
    2eec:	00000133 	andeq	r0, r0, r3, lsr r1
    2ef0:	9ad80305 	bls	ff603b0c <__bss_end__+0xff5f93a4>
    2ef4:	53220000 	teqpl	r2, #0
    2ef8:	01000009 	tsteq	r0, r9
    2efc:	0001332a 	andeq	r3, r1, sl, lsr #6
    2f00:	d4030500 	strle	r0, [r3], #-1280	; 0x500
    2f04:	2200009a 	andcs	r0, r0, #154	; 0x9a
    2f08:	00000816 	andeq	r0, r0, r6, lsl r8
    2f0c:	01332c01 	teqeq	r3, r1, lsl #24
    2f10:	03050000 	movweq	r0, #20480	; 0x5000
    2f14:	00009a80 	andeq	r9, r0, r0, lsl #21
    2f18:	00081e22 	andeq	r1, r8, r2, lsr #28
    2f1c:	332d0100 	teqcc	sp, #0, 2
    2f20:	05000001 	streq	r0, [r0, #-1]
    2f24:	009a8403 	addseq	r8, sl, r3, lsl #8
    2f28:	07972200 	ldreq	r2, [r7, r0, lsl #4]
    2f2c:	2e010000 	cdpcs	0, 0, cr0, cr1, cr0, {0}
    2f30:	00000133 	andeq	r0, r0, r3, lsr r1
    2f34:	9a880305 	bls	fe203b50 <__bss_end__+0xfe1f93e8>
    2f38:	26220000 	strtcs	r0, [r2], -r0
    2f3c:	01000008 	tsteq	r0, r8
    2f40:	0001332f 	andeq	r3, r1, pc, lsr #6
    2f44:	8c030500 	cfstr32hi	mvfx0, [r3], {-0}
    2f48:	2200009a 	andcs	r0, r0, #154	; 0x9a
    2f4c:	0000082e 	andeq	r0, r0, lr, lsr #16
    2f50:	01333001 	teqeq	r3, r1
    2f54:	03050000 	movweq	r0, #20480	; 0x5000
    2f58:	00009a90 	muleq	r0, r0, sl
    2f5c:	00083622 	andeq	r3, r8, r2, lsr #12
    2f60:	33310100 	teqcc	r1, #0, 2
    2f64:	05000001 	streq	r0, [r0, #-1]
    2f68:	009a9403 	addseq	r9, sl, r3, lsl #8
    2f6c:	07e82200 	strbeq	r2, [r8, r0, lsl #4]!
    2f70:	33010000 	movwcc	r0, #4096	; 0x1000
    2f74:	00000133 	andeq	r0, r0, r3, lsr r1
    2f78:	9a980305 	bls	fe603b94 <__bss_end__+0xfe5f942c>
    2f7c:	ef220000 	svc	0x00220000
    2f80:	01000007 	tsteq	r0, r7
    2f84:	00013334 	andeq	r3, r1, r4, lsr r3
    2f88:	9c030500 	cfstr32ls	mvfx0, [r3], {-0}
    2f8c:	2200009a 	andcs	r0, r0, #154	; 0x9a
    2f90:	0000079f 	muleq	r0, pc, r7	; <UNPREDICTABLE>
    2f94:	01333601 	teqeq	r3, r1, lsl #12
    2f98:	03050000 	movweq	r0, #20480	; 0x5000
    2f9c:	00009aa0 	andeq	r9, r0, r0, lsr #21
    2fa0:	00084922 	andeq	r4, r8, r2, lsr #18
    2fa4:	33370100 	teqcc	r7, #0, 2
    2fa8:	05000001 	streq	r0, [r0, #-1]
    2fac:	009aa403 	addseq	sl, sl, r3, lsl #8
    2fb0:	07ff2200 	ldrbeq	r2, [pc, r0, lsl #4]!
    2fb4:	39010000 	stmdbcc	r1, {}	; <UNPREDICTABLE>
    2fb8:	00000133 	andeq	r0, r0, r3, lsr r1
    2fbc:	9aa80305 	bls	fea03bd8 <__bss_end__+0xfe9f9470>
    2fc0:	06220000 	strteq	r0, [r2], -r0
    2fc4:	01000008 	tsteq	r0, r8
    2fc8:	0001333a 	andeq	r3, r1, sl, lsr r3
    2fcc:	ac030500 	cfstr32ge	mvfx0, [r3], {-0}
    2fd0:	2200009a 	andcs	r0, r0, #154	; 0x9a
    2fd4:	00000870 	andeq	r0, r0, r0, ror r8
    2fd8:	0133f001 	teqeq	r3, r1
    2fdc:	03050000 	movweq	r0, #20480	; 0x5000
    2fe0:	00009ad0 	ldrdeq	r9, [r0], -r0
    2fe4:	00087e22 	andeq	r7, r8, r2, lsr #28
    2fe8:	33f10100 	mvnscc	r0, #0, 2
    2fec:	05000001 	streq	r0, [r0, #-1]
    2ff0:	009ab003 	addseq	fp, sl, r3
    2ff4:	08a32200 	stmiaeq	r3!, {r9, sp}
    2ff8:	f3010000 	vhadd.u8	d0, d1, d0
    2ffc:	00000133 	andeq	r0, r0, r3, lsr r1
    3000:	9ac80305 	bls	ff203c1c <__bss_end__+0xff1f94b4>
    3004:	aa220000 	bge	88300c <__bss_end__+0x8788a4>
    3008:	01000008 	tsteq	r0, r8
    300c:	000133f4 	strdeq	r3, [r1], -r4
    3010:	cc030500 	cfstr32gt	mvfx0, [r3], {-0}
    3014:	2200009a 	andcs	r0, r0, #154	; 0x9a
    3018:	00000862 	andeq	r0, r0, r2, ror #16
    301c:	0133f601 	teqeq	r3, r1, lsl #12
    3020:	03050000 	movweq	r0, #20480	; 0x5000
    3024:	00009ab4 			; <UNDEFINED> instruction: 0x00009ab4
    3028:	00086922 	andeq	r6, r8, r2, lsr #18
    302c:	33f70100 	mvnscc	r0, #0, 2
    3030:	05000001 	streq	r0, [r0, #-1]
    3034:	009ab803 	addseq	fp, sl, r3, lsl #16
    3038:	08bd2200 	popeq	{r9, sp}
    303c:	f9010000 			; <UNDEFINED> instruction: 0xf9010000
    3040:	00000133 	andeq	r0, r0, r3, lsr r1
    3044:	9ac00305 	bls	ff003c60 <__bss_end__+0xfeff94f8>
    3048:	c4220000 	strtgt	r0, [r2], #-0
    304c:	01000008 	tsteq	r0, r8
    3050:	000133fa 	strdeq	r3, [r1], -sl
    3054:	c4030500 	strgt	r0, [r3], #-1280	; 0x500
    3058:	2200009a 	andcs	r0, r0, #154	; 0x9a
    305c:	000007a6 	andeq	r0, r0, r6, lsr #15
    3060:	0133fc01 	teqeq	r3, r1, lsl #24
    3064:	03050000 	movweq	r0, #20480	; 0x5000
    3068:	00009abc 			; <UNDEFINED> instruction: 0x00009abc
    306c:	0008dc23 	andeq	sp, r8, r3, lsr #24
    3070:	2c200100 	stfcss	f0, [r0], #-0
    3074:	a3000000 	movwge	r0, #0
    3078:	24000008 	strcs	r0, [r0], #-8
    307c:	000008a3 	andeq	r0, r0, r3, lsr #17
    3080:	a9040d00 	stmdbge	r4, {r8, sl, fp}
    3084:	25000008 	strcs	r0, [r0, #-8]
    3088:	000008ae 	andeq	r0, r0, lr, lsr #17
    308c:	07912726 	ldreq	r2, [r1, r6, lsr #14]
    3090:	1e010000 	cdpne	0, 0, cr0, cr1, cr0, {0}
    3094:	000008c5 	andeq	r0, r0, r5, asr #17
    3098:	0008c524 	andeq	ip, r8, r4, lsr #10
    309c:	002c2400 	eoreq	r2, ip, r0, lsl #8
    30a0:	0d000000 	stceq	0, cr0, [r0, #-0]
    30a4:	0008ae04 	andeq	sl, r8, r4, lsl #28
    30a8:	01102800 	tsteq	r0, r0, lsl #16
    30ac:	87030000 	strhi	r0, [r3, -r0]
    30b0:	0003ff00 	andeq	pc, r3, r0, lsl #30
    30b4:	44000400 	strmi	r0, [r0], #-1024	; 0x400
    30b8:	0400000e 	streq	r0, [r0], #-14
    30bc:	00036001 	andeq	r6, r3, r1
    30c0:	0a240100 	beq	9034c8 <__bss_end__+0x8f8d60>
    30c4:	04dc0000 	ldrbeq	r0, [ip], #0
    30c8:	95780000 	ldrbls	r0, [r8, #-0]!
    30cc:	01540000 	cmpeq	r4, r0
    30d0:	0cb80000 	ldceq	0, cr0, [r8]
    30d4:	04020000 	streq	r0, [r2], #-0
    30d8:	746e6905 	strbtvc	r6, [lr], #-2309	; 0x905
    30dc:	07040300 	streq	r0, [r4, -r0, lsl #6]
    30e0:	0000007b 	andeq	r0, r0, fp, ror r0
    30e4:	10060103 	andne	r0, r6, r3, lsl #2
    30e8:	03000003 	movweq	r0, #3
    30ec:	031c0502 	tsteq	ip, #8388608	; 0x800000
    30f0:	04030000 	streq	r0, [r3], #-0
    30f4:	00009d05 	andeq	r9, r0, r5, lsl #26
    30f8:	05080300 	streq	r0, [r8, #-768]	; 0x300
    30fc:	00000098 	muleq	r0, r8, r0
    3100:	0e080103 	adfeqe	f0, f0, f3
    3104:	03000003 	movweq	r0, #3
    3108:	01760702 	cmneq	r6, r2, lsl #14
    310c:	04030000 	streq	r0, [r3], #-0
    3110:	00007607 	andeq	r7, r0, r7, lsl #12
    3114:	07080300 	streq	r0, [r8, -r0, lsl #6]
    3118:	00000071 	andeq	r0, r0, r1, ror r0
    311c:	09070403 	stmdbeq	r7, {r0, r1, sl}
    3120:	03000002 	movweq	r0, #2
    3124:	03170801 	tsteq	r7, #65536	; 0x10000
    3128:	01040000 	mrseq	r0, (UNDEF: 4)
    312c:	00b20c02 	adcseq	r0, r2, r2, lsl #24
    3130:	b4050000 	strlt	r0, [r5], #-0
    3134:	00000007 	andeq	r0, r0, r7
    3138:	0008cb05 	andeq	ip, r8, r5, lsl #22
    313c:	ee050100 	adfs	f0, f5, f0
    3140:	04000008 	streq	r0, [r0], #-8
    3144:	0008fd05 	andeq	pc, r8, r5, lsl #26
    3148:	0c050500 	cfstr32eq	mvfx0, [r5], {-0}
    314c:	06000009 	streq	r0, [r0], -r9
    3150:	00091b05 	andeq	r1, r9, r5, lsl #22
    3154:	2a050700 	bcs	144d5c <__bss_end__+0x13a5f4>
    3158:	03000009 	movweq	r0, #9
    315c:	00093905 	andeq	r3, r9, r5, lsl #18
    3160:	06000200 	streq	r0, [r0], -r0, lsl #4
    3164:	000008e2 	andeq	r0, r0, r2, ror #17
    3168:	00791502 	rsbseq	r1, r9, r2, lsl #10
    316c:	5b070000 	blpl	1c3174 <__bss_end__+0x1b8a0c>
    3170:	01000000 	mrseq	r0, (UNDEF: 0)
    3174:	00957837 	addseq	r7, r5, r7, lsr r8
    3178:	00009c00 	andeq	r9, r0, r0, lsl #24
    317c:	c39c0100 	orrsgt	r0, ip, #0, 2
    3180:	08000001 	stmdaeq	r0, {r0}
    3184:	00009580 	andeq	r9, r0, r0, lsl #11
    3188:	000003a8 	andeq	r0, r0, r8, lsr #7
    318c:	00958c09 	addseq	r8, r5, r9, lsl #24
    3190:	0003af00 	andeq	sl, r3, r0, lsl #30
    3194:	0000f300 	andeq	pc, r0, r0, lsl #6
    3198:	51010a00 	tstpl	r1, r0, lsl #20
    319c:	010a3201 	tsteq	sl, r1, lsl #4
    31a0:	003e0150 	eorseq	r0, lr, r0, asr r1
    31a4:	00959809 	addseq	r9, r5, r9, lsl #16
    31a8:	0003af00 	andeq	sl, r3, r0, lsl #30
    31ac:	00010b00 	andeq	r0, r1, r0, lsl #22
    31b0:	51010a00 	tstpl	r1, r0, lsl #20
    31b4:	010a3201 	tsteq	sl, r1, lsl #4
    31b8:	003f0150 	eorseq	r0, pc, r0, asr r1	; <UNPREDICTABLE>
    31bc:	00959c08 	addseq	r9, r5, r8, lsl #24
    31c0:	0003a800 	andeq	sl, r3, r0, lsl #16
    31c4:	95ac0900 	strls	r0, [ip, #2304]!	; 0x900
    31c8:	03c50000 	biceq	r0, r5, #0
    31cc:	01280000 	teqeq	r8, r0
    31d0:	010a0000 	mrseq	r0, (UNDEF: 10)
    31d4:	00750250 	rsbseq	r0, r5, r0, asr r2
    31d8:	95b80900 	ldrls	r0, [r8, #2304]!	; 0x900
    31dc:	03e60000 	mvneq	r0, #0
    31e0:	013c0000 	teqeq	ip, r0
    31e4:	010a0000 	mrseq	r0, (UNDEF: 10)
    31e8:	00750250 	rsbseq	r0, r5, r0, asr r2
    31ec:	95bc0800 	ldrls	r0, [ip, #2048]!	; 0x800
    31f0:	03a80000 			; <UNDEFINED> instruction: 0x03a80000
    31f4:	c8090000 	stmdagt	r9, {}	; <UNPREDICTABLE>
    31f8:	e6000095 			; <UNDEFINED> instruction: 0xe6000095
    31fc:	58000003 	stmdapl	r0, {r0, r1}
    3200:	0a000001 	beq	320c <_start-0x4df4>
    3204:	30015101 	andcc	r5, r1, r1, lsl #2
    3208:	95d40900 	ldrbls	r0, [r4, #2304]	; 0x900
    320c:	03e60000 	mvneq	r0, #0
    3210:	016b0000 	cmneq	fp, r0
    3214:	010a0000 	mrseq	r0, (UNDEF: 10)
    3218:	00300151 	eorseq	r0, r0, r1, asr r1
    321c:	0095e009 	addseq	lr, r5, r9
    3220:	0003e600 	andeq	lr, r3, r0, lsl #12
    3224:	00017e00 	andeq	r7, r1, r0, lsl #28
    3228:	51010a00 	tstpl	r1, r0, lsl #20
    322c:	09003601 	stmdbeq	r0, {r0, r9, sl, ip, sp}
    3230:	000095ec 	andeq	r9, r0, ip, ror #11
    3234:	000003e6 	andeq	r0, r0, r6, ror #7
    3238:	00000191 	muleq	r0, r1, r1
    323c:	0151010a 	cmpeq	r1, sl, lsl #2
    3240:	f8090033 			; <UNDEFINED> instruction: 0xf8090033
    3244:	e6000095 			; <UNDEFINED> instruction: 0xe6000095
    3248:	a6000003 	strge	r0, [r0], -r3
    324c:	0a000001 	beq	3258 <_start-0x4da8>
    3250:	0a035101 	beq	d765c <__bss_end__+0xccef4>
    3254:	0900010e 	stmdbeq	r0, {r1, r2, r3, r8}
    3258:	00009604 	andeq	r9, r0, r4, lsl #12
    325c:	000003e6 	andeq	r0, r0, r6, ror #7
    3260:	000001b9 			; <UNDEFINED> instruction: 0x000001b9
    3264:	0151010a 	cmpeq	r1, sl, lsl #2
    3268:	08080033 	stmdaeq	r8, {r0, r1, r4, r5}
    326c:	a8000096 	stmdage	r0, {r1, r2, r4, r7}
    3270:	00000003 	andeq	r0, r0, r3
    3274:	0009890b 	andeq	r8, r9, fp, lsl #18
    3278:	25570100 	ldrbcs	r0, [r7, #-256]	; 0x100
    327c:	14000000 	strne	r0, [r0], #-0
    3280:	1c000096 	stcne	0, cr0, [r0], {150}	; 0x96
    3284:	01000000 	mrseq	r0, (UNDEF: 0)
    3288:	0001e69c 	muleq	r1, ip, r6
    328c:	96240800 	strtls	r0, [r4], -r0, lsl #16
    3290:	03c50000 	biceq	r0, r5, #0
    3294:	0b000000 	bleq	329c <_start-0x4d64>
    3298:	0000011f 	andeq	r0, r0, pc, lsl r1
    329c:	00255d01 	eoreq	r5, r5, r1, lsl #26
    32a0:	96300000 	ldrtls	r0, [r0], -r0
    32a4:	00280000 	eoreq	r0, r8, r0
    32a8:	9c010000 	stcls	0, cr0, [r1], {-0}
    32ac:	00000212 	andeq	r0, r0, r2, lsl r2
    32b0:	00963808 	addseq	r3, r6, r8, lsl #16
    32b4:	0001c300 	andeq	ip, r1, r0, lsl #6
    32b8:	964c0800 	strbls	r0, [ip], -r0, lsl #16
    32bc:	03c50000 	biceq	r0, r5, #0
    32c0:	0b000000 	bleq	32c8 <_start-0x4d38>
    32c4:	000009d3 	ldrdeq	r0, [r0], -r3
    32c8:	00256401 	eoreq	r6, r5, r1, lsl #8
    32cc:	96580000 	ldrbls	r0, [r8], -r0
    32d0:	001c0000 	andseq	r0, ip, r0
    32d4:	9c010000 	stcls	0, cr0, [r1], {-0}
    32d8:	00000235 	andeq	r0, r0, r5, lsr r2
    32dc:	00966808 	addseq	r6, r6, r8, lsl #16
    32e0:	0003c500 	andeq	ip, r3, r0, lsl #10
    32e4:	ad070000 	stcge	0, cr0, [r7, #-0]
    32e8:	01000001 	tsteq	r0, r1
    32ec:	0096746a 	addseq	r7, r6, sl, ror #8
    32f0:	00002c00 	andeq	r2, r0, r0, lsl #24
    32f4:	719c0100 	orrsvc	r0, ip, r0, lsl #2
    32f8:	0c000002 	stceq	0, cr0, [r0], {2}
    32fc:	6a010063 	bvs	43490 <__bss_end__+0x38d28>
    3300:	0000002c 	andeq	r0, r0, ip, lsr #32
    3304:	0000205b 	andeq	r2, r0, fp, asr r0
    3308:	00968008 	addseq	r8, r6, r8
    330c:	00021200 	andeq	r1, r2, r0, lsl #4
    3310:	96980d00 	ldrls	r0, [r8], r0, lsl #26
    3314:	03e60000 	mvneq	r0, #0
    3318:	010a0000 	mrseq	r0, (UNDEF: 10)
    331c:	00740251 	rsbseq	r0, r4, r1, asr r2
    3320:	a70b0000 	strge	r0, [fp, -r0]
    3324:	01000009 	tsteq	r0, r9
    3328:	00002574 	andeq	r2, r0, r4, ror r5
    332c:	0096a000 	addseq	sl, r6, r0
    3330:	00000c00 	andeq	r0, r0, r0, lsl #24
    3334:	949c0100 	ldrls	r0, [ip], #256	; 0x100
    3338:	08000002 	stmdaeq	r0, {r1}
    333c:	000096a8 	andeq	r9, r0, r8, lsr #13
    3340:	000001c3 	andeq	r0, r0, r3, asr #3
    3344:	0a500b00 	beq	1405f4c <__bss_end__+0x13fb7e4>
    3348:	78010000 	stmdavc	r1, {}	; <UNPREDICTABLE>
    334c:	00000025 	andeq	r0, r0, r5, lsr #32
    3350:	000096ac 	andeq	r9, r0, ip, lsr #13
    3354:	00000020 	andeq	r0, r0, r0, lsr #32
    3358:	02c09c01 	sbceq	r9, r0, #256	; 0x100
    335c:	b4080000 	strlt	r0, [r8], #-0
    3360:	71000096 	swpvc	r0, r6, [r0]	; <UNPREDICTABLE>
    3364:	08000002 	stmdaeq	r0, {r1}
    3368:	000096c0 	andeq	r9, r0, r0, asr #13
    336c:	000001e6 	andeq	r0, r0, r6, ror #3
    3370:	09ed0e00 	stmibeq	sp!, {r9, sl, fp}^
    3374:	16010000 	strne	r0, [r1], -r0
    3378:	000002d1 	ldrdeq	r0, [r0], -r1
    337c:	9b100305 	blls	403f98 <__bss_end__+0x3f9830>
    3380:	040f0000 	streq	r0, [pc], #-0	; 3388 <_start-0x4c78>
    3384:	000002d7 	ldrdeq	r0, [r0], -r7
    3388:	00002c10 	andeq	r2, r0, r0, lsl ip
    338c:	09e10e00 	stmibeq	r1!, {r9, sl, fp}^
    3390:	17010000 	strne	r0, [r1, -r0]
    3394:	000002d1 	ldrdeq	r0, [r0], -r1
    3398:	9ae00305 	bls	ff803fb4 <__bss_end__+0xff7f984c>
    339c:	6c0e0000 	stcvs	0, cr0, [lr], {-0}
    33a0:	01000009 	tsteq	r0, r9
    33a4:	0002d11a 	andeq	sp, r2, sl, lsl r1
    33a8:	fc030500 	stc2	5, cr0, [r3], {-0}
    33ac:	0e00009a 	mcreq	0, 0, r0, cr0, cr10, {4}
    33b0:	000009b5 			; <UNDEFINED> instruction: 0x000009b5
    33b4:	02d11b01 	sbcseq	r1, r1, #1024	; 0x400
    33b8:	03050000 	movweq	r0, #20480	; 0x5000
    33bc:	00009ae8 	andeq	r9, r0, r8, ror #21
    33c0:	0009c40e 	andeq	ip, r9, lr, lsl #8
    33c4:	d11c0100 	tstle	ip, r0, lsl #2
    33c8:	05000002 	streq	r0, [r0, #-2]
    33cc:	009aec03 	addseq	lr, sl, r3, lsl #24
    33d0:	0a320e00 	beq	c86bd8 <__bss_end__+0xc7c470>
    33d4:	1d010000 	stcne	0, cr0, [r1, #-0]
    33d8:	000002d1 	ldrdeq	r0, [r0], -r1
    33dc:	9af00305 	bls	ffc03ff8 <__bss_end__+0xffbf9890>
    33e0:	5d0e0000 	stcpl	0, cr0, [lr, #-0]
    33e4:	01000009 	tsteq	r0, r9
    33e8:	0002d11e 	andeq	sp, r2, lr, lsl r1
    33ec:	0c030500 	cfstr32eq	mvfx0, [r3], {-0}
    33f0:	0e00009b 	mcreq	0, 0, r0, cr0, cr11, {4}
    33f4:	00000a41 	andeq	r0, r0, r1, asr #20
    33f8:	02d11f01 	sbcseq	r1, r1, #1, 30
    33fc:	03050000 	movweq	r0, #20480	; 0x5000
    3400:	00009af8 	strdeq	r9, [r0], -r8
    3404:	00097a0e 	andeq	r7, r9, lr, lsl #20
    3408:	d1200100 	teqle	r0, r0, lsl #2
    340c:	05000002 	streq	r0, [r0, #-2]
    3410:	009b0803 	addseq	r0, fp, r3, lsl #16
    3414:	0a150e00 	beq	546c1c <__bss_end__+0x53c4b4>
    3418:	21010000 	mrscs	r0, (UNDEF: 1)
    341c:	000002d1 	ldrdeq	r0, [r0], -r1
    3420:	9b040305 	blls	10403c <__bss_end__+0xf98d4>
    3424:	970e0000 	strls	r0, [lr, -r0]
    3428:	01000009 	tsteq	r0, r9
    342c:	0002d122 	andeq	sp, r2, r2, lsr #2
    3430:	e4030500 	str	r0, [r3], #-1280	; 0x500
    3434:	0e00009a 	mcreq	0, 0, r0, cr0, cr10, {4}
    3438:	00000a05 	andeq	r0, r0, r5, lsl #20
    343c:	02d12301 	sbcseq	r2, r1, #67108864	; 0x4000000
    3440:	03050000 	movweq	r0, #20480	; 0x5000
    3444:	00009b00 	andeq	r9, r0, r0, lsl #22
    3448:	0009f50e 	andeq	pc, r9, lr, lsl #10
    344c:	d1240100 	teqle	r4, r0, lsl #2
    3450:	05000002 	streq	r0, [r0, #-2]
    3454:	009af403 	addseq	pc, sl, r3, lsl #8
    3458:	01101100 	tsteq	r0, r0, lsl #2
    345c:	87030000 	strhi	r0, [r3, -r0]
    3460:	00085012 	andeq	r5, r8, r2, lsl r0
    3464:	c5190200 	ldrgt	r0, [r9, #-512]	; 0x200
    3468:	13000003 	movwne	r0, #3
    346c:	0000002c 	andeq	r0, r0, ip, lsr #32
    3470:	0000b213 	andeq	fp, r0, r3, lsl r2
    3474:	dc140000 	ldcle	0, cr0, [r4], {-0}
    3478:	03000008 	movweq	r0, #8
    347c:	00002ca6 	andeq	r2, r0, r6, lsr #25
    3480:	0003da00 	andeq	sp, r3, r0, lsl #20
    3484:	03da1300 	bicseq	r1, sl, #0, 6
    3488:	0f000000 	svceq	0x00000000
    348c:	0003e004 	andeq	lr, r3, r4
    3490:	03e51500 	mvneq	r1, #0, 10
    3494:	12160000 	andsne	r0, r6, #0
    3498:	00000791 	muleq	r0, r1, r7
    349c:	03fc9a03 	mvnseq	r9, #12288	; 0x3000
    34a0:	fc130000 	ldc2	0, cr0, [r3], {-0}
    34a4:	13000003 	movwne	r0, #3
    34a8:	0000002c 	andeq	r0, r0, ip, lsr #32
    34ac:	e5040f00 	str	r0, [r4, #-3840]	; 0xf00
    34b0:	00000003 	andeq	r0, r0, r3
    34b4:	0000058d 	andeq	r0, r0, sp, lsl #11
    34b8:	0f720004 	svceq	0x00720004
    34bc:	01040000 	mrseq	r0, (UNDEF: 4)
    34c0:	00000360 	andeq	r0, r0, r0, ror #6
    34c4:	000b1b01 	andeq	r1, fp, r1, lsl #22
    34c8:	0004dc00 	andeq	sp, r4, r0, lsl #24
    34cc:	0096cc00 	addseq	ip, r6, r0, lsl #24
    34d0:	00020000 	andeq	r0, r2, r0
    34d4:	000dbd00 	andeq	fp, sp, r0, lsl #26
    34d8:	05040200 	streq	r0, [r4, #-512]	; 0x200
    34dc:	00746e69 	rsbseq	r6, r4, r9, ror #28
    34e0:	7b070403 	blvc	1c44f4 <__bss_end__+0x1b9d8c>
    34e4:	03000000 	movweq	r0, #0
    34e8:	03100601 	tsteq	r0, #1048576	; 0x100000
    34ec:	02030000 	andeq	r0, r3, #0
    34f0:	00031c05 	andeq	r1, r3, r5, lsl #24
    34f4:	05040300 	streq	r0, [r4, #-768]	; 0x300
    34f8:	0000009d 	muleq	r0, sp, r0
    34fc:	98050803 	stmdals	r5, {r0, r1, fp}
    3500:	03000000 	movweq	r0, #0
    3504:	030e0801 	movweq	r0, #59393	; 0xe801
    3508:	02030000 	andeq	r0, r3, #0
    350c:	00017607 	andeq	r7, r1, r7, lsl #12
    3510:	07040300 	streq	r0, [r4, -r0, lsl #6]
    3514:	00000076 	andeq	r0, r0, r6, ror r0
    3518:	71070803 	tstvc	r7, r3, lsl #16
    351c:	03000000 	movweq	r0, #0
    3520:	02090704 	andeq	r0, r9, #4, 14	; 0x100000
    3524:	01030000 	mrseq	r0, (UNDEF: 3)
    3528:	00031708 	andeq	r1, r3, r8, lsl #14
    352c:	7f040400 	svcvc	0x00040400
    3530:	05000000 	streq	r0, [r0, #-0]
    3534:	00000072 	andeq	r0, r0, r2, ror r0
    3538:	00007206 	andeq	r7, r0, r6, lsl #4
    353c:	00009400 	andeq	r9, r0, r0, lsl #8
    3540:	006b0700 	rsbeq	r0, fp, r0, lsl #14
    3544:	00190000 	andseq	r0, r9, r0
    3548:	14030408 	strne	r0, [r3], #-1032	; 0x408
    354c:	0000010b 	andeq	r0, r0, fp, lsl #2
    3550:	000bc109 	andeq	ip, fp, r9, lsl #2
    3554:	82e48000 	rschi	r8, r4, #0
    3558:	a6090280 	strge	r0, [r9], -r0, lsl #5
    355c:	8000000a 	andhi	r0, r0, sl
    3560:	028082e4 	addeq	r8, r0, #228, 4	; 0x4000000e
    3564:	000b3b09 	andeq	r3, fp, r9, lsl #22
    3568:	82e48400 	rschi	r8, r4, #0, 8
    356c:	0d090280 	sfmeq	f0, 4, [r9, #-512]	; 0xfffffe00
    3570:	8800000b 	stmdahi	r0, {r0, r1, r3}
    3574:	028082e4 	addeq	r8, r0, #228, 4	; 0x4000000e
    3578:	000a8909 	andeq	r8, sl, r9, lsl #18
    357c:	82e48c00 	rschi	r8, r4, #0, 24
    3580:	ca090280 	bgt	243f88 <__bss_end__+0x239820>
    3584:	9000000a 	andls	r0, r0, sl
    3588:	028082e4 	addeq	r8, r0, #228, 4	; 0x4000000e
    358c:	000ad809 	andeq	sp, sl, r9, lsl #16
    3590:	82e49400 	rschi	r9, r4, #0, 8
    3594:	b8090280 	stmdalt	r9, {r7, r9}
    3598:	9800000a 	stmdals	r0, {r1, r3}
    359c:	028082e4 	addeq	r8, r0, #228, 4	; 0x4000000e
    35a0:	000b8d09 	andeq	r8, fp, r9, lsl #26
    35a4:	82e49c00 	rschi	r9, r4, #0, 24
    35a8:	9c090280 	sfmls	f0, 4, [r9], {128}	; 0x80
    35ac:	a000000b 	andge	r0, r0, fp
    35b0:	028082e4 	addeq	r8, r0, #228, 4	; 0x4000000e
    35b4:	000a7609 	andeq	r7, sl, r9, lsl #12
    35b8:	82e4a400 	rschi	sl, r4, #0, 8
    35bc:	0a000280 	beq	3fc4 <_start-0x403c>
    35c0:	0000025d 	andeq	r0, r0, sp, asr r2
    35c4:	96cc0501 	strbls	r0, [ip], r1, lsl #10
    35c8:	00680000 	rsbeq	r0, r8, r0
    35cc:	9c010000 	stcls	0, cr0, [r1], {-0}
    35d0:	000001b7 			; <UNDEFINED> instruction: 0x000001b7
    35d4:	000a950b 	andeq	r9, sl, fp, lsl #10
    35d8:	2c110100 	ldfcss	f0, [r1], {-0}
    35dc:	0b000000 	bleq	35e4 <_start-0x4a1c>
    35e0:	00000ae6 	andeq	r0, r0, r6, ror #21
    35e4:	002c1201 	eoreq	r1, ip, r1, lsl #4
    35e8:	640c0000 	strvs	r0, [ip], #-0
    35ec:	01007473 	tsteq	r0, r3, ror r4
    35f0:	0001b716 	andeq	fp, r1, r6, lsl r7
    35f4:	730d0000 	movwvc	r0, #53248	; 0xd000
    35f8:	01006372 	tsteq	r0, r2, ror r3
    35fc:	0001b717 	andeq	fp, r1, r7, lsl r7
    3600:	006e0e00 	rsbeq	r0, lr, r0, lsl #28
    3604:	002c1801 	eoreq	r1, ip, r1, lsl #16
    3608:	50010000 	andpl	r0, r1, r0
    360c:	0096fc0f 	addseq	pc, r6, pc, lsl #24
    3610:	00002400 	andeq	r2, r0, r0, lsl #8
    3614:	00017300 	andeq	r7, r1, r0, lsl #6
    3618:	00691000 	rsbeq	r1, r9, r0
    361c:	00251901 	eoreq	r1, r5, r1, lsl #18
    3620:	20790000 	rsbscs	r0, r9, r0
    3624:	11000000 	mrsne	r0, (UNDEF: 0)
    3628:	000096dc 	ldrdeq	r9, [r0], -ip
    362c:	0000054f 	andeq	r0, r0, pc, asr #10
    3630:	00000190 	muleq	r0, r0, r1
    3634:	02510112 	subseq	r0, r1, #-2147483644	; 0x80000004
    3638:	0112ff09 	tsteq	r2, r9, lsl #30
    363c:	1c0c0550 	cfstr32ne	mvfx0, [ip], {80}	; 0x50
    3640:	002000b2 	strhteq	r0, [r0], -r2
    3644:	0096e811 	addseq	lr, r6, r1, lsl r8
    3648:	00054f00 	andeq	r4, r5, r0, lsl #30
    364c:	0001ad00 	andeq	sl, r1, r0, lsl #26
    3650:	51011200 	mrspl	r1, R9_usr
    3654:	12ff0902 	rscsne	r0, pc, #32768	; 0x8000
    3658:	0c055001 	stceq	0, cr5, [r5], {1}
    365c:	2000b220 	andcs	fp, r0, r0, lsr #4
    3660:	96ec1300 	strbtls	r1, [ip], r0, lsl #6
    3664:	05650000 	strbeq	r0, [r5, #-0]!
    3668:	04000000 	streq	r0, [r0], #-0
    366c:	00002c04 	andeq	r2, r0, r4, lsl #24
    3670:	0bab0a00 	bleq	feac5e78 <__bss_end__+0xfeabb710>
    3674:	1f010000 	svcne	0x00010000
    3678:	00009734 	andeq	r9, r0, r4, lsr r7
    367c:	00000044 	andeq	r0, r0, r4, asr #32
    3680:	02429c01 	subeq	r9, r2, #256	; 0x100
    3684:	70140000 	andsvc	r0, r4, r0
    3688:	1f010063 	svcne	0x00010063
    368c:	0000002c 	andeq	r0, r0, ip, lsr #32
    3690:	00002098 	muleq	r0, r8, r0
    3694:	00016315 	andeq	r6, r1, r5, lsl r3
    3698:	00025200 	andeq	r5, r2, r0, lsl #4
    369c:	fc030500 	stc2	5, cr0, [r3], {-0}
    36a0:	1300009d 	movwne	r0, #157	; 0x9d
    36a4:	00009744 	andeq	r9, r0, r4, asr #14
    36a8:	0000056c 	andeq	r0, r0, ip, ror #10
    36ac:	00976411 	addseq	r6, r7, r1, lsl r4
    36b0:	00057300 	andeq	r7, r5, r0, lsl #6
    36b4:	00023800 	andeq	r3, r2, r0, lsl #16
    36b8:	53011200 	movwpl	r1, #4608	; 0x1200
    36bc:	12200802 	eorne	r0, r0, #131072	; 0x20000
    36c0:	03055201 	movweq	r5, #20993	; 0x5201
    36c4:	00009dfc 	strdeq	r9, [r0], -ip
    36c8:	05510112 	ldrbeq	r0, [r1, #-274]	; 0x112
    36cc:	009ec803 	addseq	ip, lr, r3, lsl #16
    36d0:	50011200 	andpl	r1, r1, r0, lsl #4
    36d4:	9e8c0305 	cdpls	3, 8, cr0, cr12, cr5, {0}
    36d8:	02120000 	andseq	r0, r2, #0
    36dc:	7402047d 	strvc	r0, [r2], #-1149	; 0x47d
    36e0:	7d021200 	sfmvc	f1, 4, [r2, #-0]
    36e4:	e8030500 	stmda	r3, {r8, sl}
    36e8:	0000009e 	muleq	r0, lr, r0
    36ec:	00976813 	addseq	r6, r7, r3, lsl r8
    36f0:	00058900 	andeq	r8, r5, r0, lsl #18
    36f4:	72060000 	andvc	r0, r6, #0
    36f8:	52000000 	andpl	r0, r0, #0
    36fc:	07000002 	streq	r0, [r0, -r2]
    3700:	0000006b 	andeq	r0, r0, fp, rrx
    3704:	42050015 	andmi	r0, r5, #21
    3708:	0a000002 	beq	3718 <_start-0x48e8>
    370c:	00000b73 	andeq	r0, r0, r3, ror fp
    3710:	97782401 	ldrbls	r2, [r8, -r1, lsl #8]!
    3714:	00440000 	subeq	r0, r4, r0
    3718:	9c010000 	stcls	0, cr0, [r1], {-0}
    371c:	000002dc 	ldrdeq	r0, [r0], -ip
    3720:	00637014 	rsbeq	r7, r3, r4, lsl r0
    3724:	002c2401 	eoreq	r2, ip, r1, lsl #8
    3728:	20b60000 	adcscs	r0, r6, r0
    372c:	63150000 	tstvs	r5, #0
    3730:	dc000001 	stcle	0, cr0, [r0], {1}
    3734:	05000002 	streq	r0, [r0, #-2]
    3738:	009e1403 	addseq	r1, lr, r3, lsl #8
    373c:	97881300 	strls	r1, [r8, r0, lsl #6]
    3740:	056c0000 	strbeq	r0, [ip, #-0]!
    3744:	a8110000 	ldmdage	r1, {}	; <UNPREDICTABLE>
    3748:	73000097 	movwvc	r0, #151	; 0x97
    374c:	d2000005 	andle	r0, r0, #5
    3750:	12000002 	andne	r0, r0, #2
    3754:	08025301 	stmdaeq	r2, {r0, r8, r9, ip, lr}
    3758:	52011225 	andpl	r1, r1, #1342177282	; 0x50000002
    375c:	9e140305 	cdpls	3, 1, cr0, cr4, cr5, {0}
    3760:	01120000 	tsteq	r2, r0
    3764:	c8030551 	stmdagt	r3, {r0, r4, r6, r8, sl}
    3768:	1200009e 	andne	r0, r0, #158	; 0x9e
    376c:	03055001 	movweq	r5, #20481	; 0x5001
    3770:	00009e8c 	andeq	r9, r0, ip, lsl #29
    3774:	047d0212 	ldrbteq	r0, [sp], #-530	; 0x212
    3778:	12007402 	andne	r7, r0, #33554432	; 0x2000000
    377c:	05007d02 	streq	r7, [r0, #-3330]	; 0xd02
    3780:	009ef003 	addseq	pc, lr, r3
    3784:	ac130000 	ldcge	0, cr0, [r3], {-0}
    3788:	89000097 	stmdbhi	r0, {r0, r1, r2, r4, r7}
    378c:	00000005 	andeq	r0, r0, r5
    3790:	00008405 	andeq	r8, r0, r5, lsl #8
    3794:	0b660a00 	bleq	1985f9c <__bss_end__+0x197b834>
    3798:	27010000 	strcs	r0, [r1, -r0]
    379c:	000097bc 			; <UNDEFINED> instruction: 0x000097bc
    37a0:	00000044 	andeq	r0, r0, r4, asr #32
    37a4:	03669c01 	cmneq	r6, #256	; 0x100
    37a8:	70140000 	andsvc	r0, r4, r0
    37ac:	27010063 	strcs	r0, [r1, -r3, rrx]
    37b0:	0000002c 	andeq	r0, r0, ip, lsr #32
    37b4:	000020d4 	ldrdeq	r2, [r0], -r4
    37b8:	00016315 	andeq	r6, r1, r5, lsl r3
    37bc:	00037600 	andeq	r7, r3, r0, lsl #12
    37c0:	30030500 	andcc	r0, r3, r0, lsl #10
    37c4:	1300009e 	movwne	r0, #158	; 0x9e
    37c8:	000097cc 	andeq	r9, r0, ip, asr #15
    37cc:	0000056c 	andeq	r0, r0, ip, ror #10
    37d0:	0097ec11 	addseq	lr, r7, r1, lsl ip
    37d4:	00057300 	andeq	r7, r5, r0, lsl #6
    37d8:	00035c00 	andeq	r5, r3, r0, lsl #24
    37dc:	53011200 	movwpl	r1, #4608	; 0x1200
    37e0:	12280802 	eorne	r0, r8, #131072	; 0x20000
    37e4:	03055201 	movweq	r5, #20993	; 0x5201
    37e8:	00009e30 	andeq	r9, r0, r0, lsr lr
    37ec:	05510112 	ldrbeq	r0, [r1, #-274]	; 0x112
    37f0:	009ec803 	addseq	ip, lr, r3, lsl #16
    37f4:	50011200 	andpl	r1, r1, r0, lsl #4
    37f8:	9e8c0305 	cdpls	3, 8, cr0, cr12, cr5, {0}
    37fc:	02120000 	andseq	r0, r2, #0
    3800:	7402047d 	strvc	r0, [r2], #-1149	; 0x47d
    3804:	7d021200 	sfmvc	f1, 4, [r2, #-0]
    3808:	00030500 	andeq	r0, r3, r0, lsl #10
    380c:	0000009f 	muleq	r0, pc, r0	; <UNPREDICTABLE>
    3810:	0097f013 	addseq	pc, r7, r3, lsl r0	; <UNPREDICTABLE>
    3814:	00058900 	andeq	r8, r5, r0, lsl #18
    3818:	72060000 	andvc	r0, r6, #0
    381c:	76000000 	strvc	r0, [r0], -r0
    3820:	07000003 	streq	r0, [r0, -r3]
    3824:	0000006b 	andeq	r0, r0, fp, rrx
    3828:	6605000c 	strvs	r0, [r5], -ip
    382c:	0a000003 	beq	3840 <_start-0x47c0>
    3830:	00000b49 	andeq	r0, r0, r9, asr #22
    3834:	98002a01 	stmdals	r0, {r0, r9, fp, sp}
    3838:	00440000 	subeq	r0, r4, r0
    383c:	9c010000 	stcls	0, cr0, [r1], {-0}
    3840:	00000400 	andeq	r0, r0, r0, lsl #8
    3844:	00637014 	rsbeq	r7, r3, r4, lsl r0
    3848:	002c2a01 	eoreq	r2, ip, r1, lsl #20
    384c:	20f20000 	rscscs	r0, r2, r0
    3850:	63150000 	tstvs	r5, #0
    3854:	10000001 	andne	r0, r0, r1
    3858:	05000004 	streq	r0, [r0, #-4]
    385c:	009e4003 	addseq	r4, lr, r3
    3860:	98101300 	ldmdals	r0, {r8, r9, ip}
    3864:	056c0000 	strbeq	r0, [ip, #-0]!
    3868:	30110000 	andscc	r0, r1, r0
    386c:	73000098 	movwvc	r0, #152	; 0x98
    3870:	f6000005 			; <UNDEFINED> instruction: 0xf6000005
    3874:	12000003 	andne	r0, r0, #3
    3878:	08025301 	stmdaeq	r2, {r0, r8, r9, ip, lr}
    387c:	5201122b 	andpl	r1, r1, #-1342177278	; 0xb0000002
    3880:	9e400305 	cdpls	3, 4, cr0, cr0, cr5, {0}
    3884:	01120000 	tsteq	r2, r0
    3888:	c8030551 	stmdagt	r3, {r0, r4, r6, r8, sl}
    388c:	1200009e 	andne	r0, r0, #158	; 0x9e
    3890:	03055001 	movweq	r5, #20481	; 0x5001
    3894:	00009e8c 	andeq	r9, r0, ip, lsl #29
    3898:	047d0212 	ldrbteq	r0, [sp], #-530	; 0x212
    389c:	12007402 	andne	r7, r0, #33554432	; 0x2000000
    38a0:	05007d02 	streq	r7, [r0, #-3330]	; 0xd02
    38a4:	009f1003 	addseq	r1, pc, r3
    38a8:	34130000 	ldrcc	r0, [r3], #-0
    38ac:	89000098 	stmdbhi	r0, {r3, r4, r7}
    38b0:	00000005 	andeq	r0, r0, r5
    38b4:	00007206 	andeq	r7, r0, r6, lsl #4
    38b8:	00041000 	andeq	r1, r4, r0
    38bc:	006b0700 	rsbeq	r0, fp, r0, lsl #14
    38c0:	001c0000 	andseq	r0, ip, r0
    38c4:	00040005 	andeq	r0, r4, r5
    38c8:	0a600a00 	beq	18060d0 <__bss_end__+0x17fb968>
    38cc:	2d010000 	stccs	0, cr0, [r1, #-0]
    38d0:	00009844 	andeq	r9, r0, r4, asr #16
    38d4:	00000044 	andeq	r0, r0, r4, asr #32
    38d8:	049a9c01 	ldreq	r9, [sl], #3073	; 0xc01
    38dc:	70140000 	andsvc	r0, r4, r0
    38e0:	2d010063 	stccs	0, cr0, [r1, #-396]	; 0xfffffe74
    38e4:	0000002c 	andeq	r0, r0, ip, lsr #32
    38e8:	00002110 	andeq	r2, r0, r0, lsl r1
    38ec:	00016315 	andeq	r6, r1, r5, lsl r3
    38f0:	00049a00 	andeq	r9, r4, r0, lsl #20
    38f4:	60030500 	andvs	r0, r3, r0, lsl #10
    38f8:	1300009e 	movwne	r0, #158	; 0x9e
    38fc:	00009854 	andeq	r9, r0, r4, asr r8
    3900:	0000056c 	andeq	r0, r0, ip, ror #10
    3904:	00987411 	addseq	r7, r8, r1, lsl r4
    3908:	00057300 	andeq	r7, r5, r0, lsl #6
    390c:	00049000 	andeq	r9, r4, r0
    3910:	53011200 	movwpl	r1, #4608	; 0x1200
    3914:	122e0802 	eorne	r0, lr, #131072	; 0x20000
    3918:	03055201 	movweq	r5, #20993	; 0x5201
    391c:	00009e60 	andeq	r9, r0, r0, ror #28
    3920:	05510112 	ldrbeq	r0, [r1, #-274]	; 0x112
    3924:	009ec803 	addseq	ip, lr, r3, lsl #16
    3928:	50011200 	andpl	r1, r1, r0, lsl #4
    392c:	9e8c0305 	cdpls	3, 8, cr0, cr12, cr5, {0}
    3930:	02120000 	andseq	r0, r2, #0
    3934:	7402047d 	strvc	r0, [r2], #-1149	; 0x47d
    3938:	7d021200 	sfmvc	f1, 4, [r2, #-0]
    393c:	28030500 	stmdacs	r3, {r8, sl}
    3940:	0000009f 	muleq	r0, pc, r0	; <UNPREDICTABLE>
    3944:	00987813 	addseq	r7, r8, r3, lsl r8
    3948:	00058900 	andeq	r8, r5, r0, lsl #18
    394c:	42050000 	andmi	r0, r5, #0
    3950:	0a000002 	beq	3960 <_start-0x46a0>
    3954:	00000afb 	strdeq	r0, [r0], -fp
    3958:	98883001 	stmls	r8, {r0, ip, sp}
    395c:	00440000 	subeq	r0, r4, r0
    3960:	9c010000 	stcls	0, cr0, [r1], {-0}
    3964:	00000524 	andeq	r0, r0, r4, lsr #10
    3968:	00637014 	rsbeq	r7, r3, r4, lsl r0
    396c:	002c3001 	eoreq	r3, ip, r1
    3970:	212e0000 	teqcs	lr, r0
    3974:	63150000 	tstvs	r5, #0
    3978:	34000001 	strcc	r0, [r0], #-1
    397c:	05000005 	streq	r0, [r0, #-5]
    3980:	009e7803 	addseq	r7, lr, r3, lsl #16
    3984:	98981300 	ldmls	r8, {r8, r9, ip}
    3988:	056c0000 	strbeq	r0, [ip, #-0]!
    398c:	b8110000 	ldmdalt	r1, {}	; <UNPREDICTABLE>
    3990:	73000098 	movwvc	r0, #152	; 0x98
    3994:	1a000005 	bne	39b0 <_start-0x4650>
    3998:	12000005 	andne	r0, r0, #5
    399c:	08025301 	stmdaeq	r2, {r0, r8, r9, ip, lr}
    39a0:	52011231 	andpl	r1, r1, #268435459	; 0x10000003
    39a4:	9e780305 	cdpls	3, 7, cr0, cr8, cr5, {0}
    39a8:	01120000 	tsteq	r2, r0
    39ac:	c8030551 	stmdagt	r3, {r0, r4, r6, r8, sl}
    39b0:	1200009e 	andne	r0, r0, #158	; 0x9e
    39b4:	03055001 	movweq	r5, #20481	; 0x5001
    39b8:	00009e8c 	andeq	r9, r0, ip, lsl #29
    39bc:	047d0212 	ldrbteq	r0, [sp], #-530	; 0x212
    39c0:	12007402 	andne	r7, r0, #33554432	; 0x2000000
    39c4:	05007d02 	streq	r7, [r0, #-3330]	; 0xd02
    39c8:	009f3803 	addseq	r3, pc, r3, lsl #16
    39cc:	bc130000 	ldclt	0, cr0, [r3], {-0}
    39d0:	89000098 	stmdbhi	r0, {r3, r4, r7}
    39d4:	00000005 	andeq	r0, r0, r5
    39d8:	00007206 	andeq	r7, r0, r6, lsl #4
    39dc:	00053400 	andeq	r3, r5, r0, lsl #8
    39e0:	006b0700 	rsbeq	r0, fp, r0, lsl #14
    39e4:	00110000 	andseq	r0, r1, r0
    39e8:	00052405 	andeq	r2, r5, r5, lsl #8
    39ec:	0a950b00 	beq	fe5465f4 <__bss_end__+0xfe53be8c>
    39f0:	11010000 	mrsne	r0, (UNDEF: 1)
    39f4:	0000002c 	andeq	r0, r0, ip, lsr #32
    39f8:	000ae60b 	andeq	lr, sl, fp, lsl #12
    39fc:	2c120100 	ldfcss	f0, [r2], {-0}
    3a00:	16000000 	strne	r0, [r0], -r0
    3a04:	0000071c 	andeq	r0, r0, ip, lsl r7
    3a08:	05659902 	strbeq	r9, [r5, #-2306]!	; 0x902
    3a0c:	2c170000 	ldccs	0, cr0, [r7], {-0}
    3a10:	17000000 	strne	r0, [r0, -r0]
    3a14:	0000002c 	andeq	r0, r0, ip, lsr #32
    3a18:	01101800 	tsteq	r0, r0, lsl #16
    3a1c:	87020000 	strhi	r0, [r2, -r0]
    3a20:	00002818 	andeq	r2, r0, r8, lsl r8
    3a24:	191e0200 	ldmdbne	lr, {r9}
    3a28:	000001c7 	andeq	r0, r0, r7, asr #3
    3a2c:	00252902 	eoreq	r2, r5, r2, lsl #18
    3a30:	05890000 	streq	r0, [r9]
    3a34:	79170000 	ldmdbvc	r7, {}	; <UNPREDICTABLE>
    3a38:	1a000000 	bne	3a40 <_start-0x45c0>
    3a3c:	01e71800 	mvneq	r1, r0, lsl #16
    3a40:	66020000 	strvs	r0, [r2], -r0
    3a44:	0001c300 	andeq	ip, r1, r0, lsl #6
    3a48:	c9000400 	stmdbgt	r0, {sl}
    3a4c:	04000010 	streq	r0, [r0], #-16
    3a50:	00036001 	andeq	r6, r3, r1
    3a54:	0bdf0100 	bleq	ff7c3e5c <__bss_end__+0xff7b96f4>
    3a58:	04dc0000 	ldrbeq	r0, [ip], #0
    3a5c:	9a080000 	bls	203a64 <__bss_end__+0x1f92fc>
    3a60:	00500000 	subseq	r0, r0, r0
    3a64:	0e970000 	cdpeq	0, 9, cr0, cr7, cr0, {0}
    3a68:	04020000 	streq	r0, [r2], #-0
    3a6c:	746e6905 	strbtvc	r6, [lr], #-2309	; 0x905
    3a70:	0bca0300 	bleq	ff284678 <__bss_end__+0xff279f10>
    3a74:	d4020000 	strle	r0, [r2], #-0
    3a78:	00000037 	andeq	r0, r0, r7, lsr r0
    3a7c:	7b070404 	blvc	1c4a94 <__bss_end__+0x1ba32c>
    3a80:	04000000 	streq	r0, [r0], #-0
    3a84:	03100601 	tsteq	r0, #1048576	; 0x100000
    3a88:	02040000 	andeq	r0, r4, #0
    3a8c:	00031c05 	andeq	r1, r3, r5, lsl #24
    3a90:	05040400 	streq	r0, [r4, #-1024]	; 0x400
    3a94:	0000009d 	muleq	r0, sp, r0
    3a98:	98050804 	stmdals	r5, {r2, fp}
    3a9c:	03000000 	movweq	r0, #0
    3aa0:	00000474 	andeq	r0, r0, r4, ror r4
    3aa4:	00652e03 	rsbeq	r2, r5, r3, lsl #28
    3aa8:	01040000 	mrseq	r0, (UNDEF: 4)
    3aac:	00030e08 	andeq	r0, r3, r8, lsl #28
    3ab0:	07020400 	streq	r0, [r2, -r0, lsl #8]
    3ab4:	00000176 	andeq	r0, r0, r6, ror r1
    3ab8:	00033c03 	andeq	r3, r3, r3, lsl #24
    3abc:	7e340300 	cdpvc	3, 3, cr0, cr4, cr0, {0}
    3ac0:	04000000 	streq	r0, [r0], #-0
    3ac4:	00760704 	rsbseq	r0, r6, r4, lsl #14
    3ac8:	08040000 	stmdaeq	r4, {}	; <UNPREDICTABLE>
    3acc:	00007107 	andeq	r7, r0, r7, lsl #2
    3ad0:	07040400 	streq	r0, [r4, -r0, lsl #8]
    3ad4:	00000209 	andeq	r0, r0, r9, lsl #4
    3ad8:	01040405 	tsteq	r4, r5, lsl #8
    3adc:	00031708 	andeq	r1, r3, r8, lsl #14
    3ae0:	040c0600 	streq	r0, [ip], #-1536	; 0x600
    3ae4:	0000d30e 	andeq	sp, r0, lr, lsl #6
    3ae8:	78740700 	ldmdavc	r4!, {r8, r9, sl}^
    3aec:	5a0f0400 	bpl	3c4af4 <__bss_end__+0x3ba38c>
    3af0:	00000000 	andeq	r0, r0, r0
    3af4:	00787207 	rsbseq	r7, r8, r7, lsl #4
    3af8:	005a0f04 	subseq	r0, sl, r4, lsl #30
    3afc:	08010000 	stmdaeq	r1, {}	; <UNPREDICTABLE>
    3b00:	00000345 	andeq	r0, r0, r5, asr #6
    3b04:	00731004 	rsbseq	r1, r3, r4
    3b08:	08040000 	stmdaeq	r4, {}	; <UNPREDICTABLE>
    3b0c:	000004a3 	andeq	r0, r0, r3, lsr #9
    3b10:	00731104 	rsbseq	r1, r3, r4, lsl #2
    3b14:	00080000 	andeq	r0, r8, r0
    3b18:	00030403 	andeq	r0, r3, r3, lsl #8
    3b1c:	9c120400 	cfldrsls	mvf0, [r2], {-0}
    3b20:	09000000 	stmdbeq	r0, {}	; <UNPREDICTABLE>
    3b24:	f9100501 			; <UNDEFINED> instruction: 0xf9100501
    3b28:	0a000000 	beq	3b30 <_start-0x44d0>
    3b2c:	00000649 	andeq	r0, r0, r9, asr #12
    3b30:	063c0a01 	ldrteq	r0, [ip], -r1, lsl #20
    3b34:	0a020000 	beq	83b3c <__bss_end__+0x793d4>
    3b38:	0000062e 	andeq	r0, r0, lr, lsr #12
    3b3c:	5e030003 	cdppl	0, 0, cr0, cr3, cr3, {0}
    3b40:	05000006 	streq	r0, [r0, #-6]
    3b44:	0000de10 	andeq	sp, r0, r0, lsl lr
    3b48:	05140600 	ldreq	r0, [r4, #-1536]	; 0x600
    3b4c:	00013114 	andeq	r3, r1, r4, lsl r1
    3b50:	06b80800 	ldrteq	r0, [r8], r0, lsl #16
    3b54:	15050000 	strne	r0, [r5, #-0]
    3b58:	00000037 	andeq	r0, r0, r7, lsr r0
    3b5c:	06ac0800 	strteq	r0, [ip], r0, lsl #16
    3b60:	18050000 	stmdane	r5, {}	; <UNPREDICTABLE>
    3b64:	000000f9 	strdeq	r0, [r0], -r9
    3b68:	06770804 	ldrbteq	r0, [r7], -r4, lsl #16
    3b6c:	1b050000 	blne	143b74 <__bss_end__+0x13940c>
    3b70:	000000d3 	ldrdeq	r0, [r0], -r3
    3b74:	69030008 	stmdbvs	r3, {r3}
    3b78:	05000006 	streq	r0, [r0, #-6]
    3b7c:	00010420 	andeq	r0, r1, r0, lsr #8
    3b80:	0bd80b00 	bleq	ff606788 <__bss_end__+0xff5fc020>
    3b84:	05010000 	streq	r0, [r1, #-0]
    3b88:	0000017e 	andeq	r0, r0, lr, ror r1
    3b8c:	00009a08 	andeq	r9, r0, r8, lsl #20
    3b90:	00000028 	andeq	r0, r0, r8, lsr #32
    3b94:	017e9c01 	cmneq	lr, r1, lsl #24
    3b98:	630c0000 	movwvs	r0, #49152	; 0xc000
    3b9c:	7e060100 	adfvcs	f0, f6, f0
    3ba0:	00000001 	andeq	r0, r0, r1
    3ba4:	0d090000 	stceq	0, cr0, [r9, #-0]
    3ba8:	00009a1c 	andeq	r9, r0, ip, lsl sl
    3bac:	000001ab 	andeq	r0, r0, fp, lsr #3
    3bb0:	0152010e 	cmpeq	r2, lr, lsl #2
    3bb4:	51010e34 	tstpl	r1, r4, lsr lr
    3bb8:	010e3001 	tsteq	lr, r1
    3bbc:	47420350 	smlsldmi	r0, r2, r0, r3
    3bc0:	0f000024 	svceq	0x00000024
    3bc4:	00013104 	andeq	r3, r1, r4, lsl #2
    3bc8:	067f0b00 	ldrbteq	r0, [pc], -r0, lsl #22
    3bcc:	0c010000 	stceq	0, cr0, [r1], {-0}
    3bd0:	0000017e 	andeq	r0, r0, lr, ror r1
    3bd4:	00009a30 	andeq	r9, r0, r0, lsr sl
    3bd8:	00000028 	andeq	r0, r0, r8, lsr #32
    3bdc:	01ab9c01 			; <UNDEFINED> instruction: 0x01ab9c01
    3be0:	630c0000 	movwvs	r0, #49152	; 0xc000
    3be4:	7e0d0100 	adfvce	f0, f5, f0
    3be8:	00000001 	andeq	r0, r0, r1
    3bec:	00090000 	andeq	r0, r9, r0
    3bf0:	000bd110 	andeq	sp, fp, r0, lsl r1
    3bf4:	931b0600 	tstls	fp, #0, 12
    3bf8:	11000000 	mrsne	r0, (UNDEF: 0)
    3bfc:	00000093 	muleq	r0, r3, r0
    3c00:	00002511 	andeq	r2, r0, r1, lsl r5
    3c04:	002c1100 	eoreq	r1, ip, r0, lsl #2
    3c08:	00000000 	andeq	r0, r0, r0
    3c0c:	000000db 	ldrdeq	r0, [r0], -fp
    3c10:	11ad0004 			; <UNDEFINED> instruction: 0x11ad0004
    3c14:	01040000 	mrseq	r0, (UNDEF: 4)
    3c18:	00000360 	andeq	r0, r0, r0, ror #6
    3c1c:	000bfa01 	andeq	pc, fp, r1, lsl #20
    3c20:	0004dc00 	andeq	sp, r4, r0, lsl #24
    3c24:	009a5800 	addseq	r5, sl, r0, lsl #16
    3c28:	00002000 	andeq	r2, r0, r0
    3c2c:	000fc300 	andeq	ip, pc, r0, lsl #6
    3c30:	06010200 	streq	r0, [r1], -r0, lsl #4
    3c34:	00000310 	andeq	r0, r0, r0, lsl r3
    3c38:	0e080102 	adfeqe	f0, f0, f2
    3c3c:	02000003 	andeq	r0, r0, #3
    3c40:	031c0502 	tsteq	ip, #8388608	; 0x800000
    3c44:	02020000 	andeq	r0, r2, #0
    3c48:	00017607 	andeq	r7, r1, r7, lsl #12
    3c4c:	05040300 	streq	r0, [r4, #-768]	; 0x300
    3c50:	00746e69 	rsbseq	r6, r4, r9, ror #28
    3c54:	7b070402 	blvc	1c4c64 <__bss_end__+0x1ba4fc>
    3c58:	02000000 	andeq	r0, r0, #0
    3c5c:	00980508 	addseq	r0, r8, r8, lsl #10
    3c60:	08020000 	stmdaeq	r2, {}	; <UNPREDICTABLE>
    3c64:	00007107 	andeq	r7, r0, r7, lsl #2
    3c68:	05040200 	streq	r0, [r4, #-512]	; 0x200
    3c6c:	0000009d 	muleq	r0, sp, r0
    3c70:	09070402 	stmdbeq	r7, {r1, sl}
    3c74:	04000002 	streq	r0, [r0], #-2
    3c78:	07040204 	streq	r0, [r4, -r4, lsl #4]
    3c7c:	00000076 	andeq	r0, r0, r6, ror r0
    3c80:	007a0405 	rsbseq	r0, sl, r5, lsl #8
    3c84:	01020000 	mrseq	r0, (UNDEF: 2)
    3c88:	00031708 	andeq	r1, r3, r8, lsl #14
    3c8c:	0bca0600 	bleq	ff285494 <__bss_end__+0xff27ad2c>
    3c90:	d4020000 	strle	r0, [r2], #-0
    3c94:	00000048 	andeq	r0, r0, r8, asr #32
    3c98:	000bd107 	andeq	sp, fp, r7, lsl #2
    3c9c:	6b1b0300 	blvs	6c48a4 <__bss_end__+0x6ba13c>
    3ca0:	58000000 	stmdapl	r0, {}	; <UNPREDICTABLE>
    3ca4:	2000009a 	mulcs	r0, sl, r0
    3ca8:	01000000 	mrseq	r0, (UNDEF: 0)
    3cac:	705f089c 			; <UNDEFINED> instruction: 0x705f089c
    3cb0:	6b030100 	blvs	c40b8 <__bss_end__+0xb9950>
    3cb4:	01000000 	mrseq	r0, (UNDEF: 0)
    3cb8:	00630850 	rsbeq	r0, r3, r0, asr r8
    3cbc:	00410301 	subeq	r0, r1, r1, lsl #6
    3cc0:	51010000 	mrspl	r0, (UNDEF: 1)
    3cc4:	01006e09 	tsteq	r0, r9, lsl #28
    3cc8:	00008103 	andeq	r8, r0, r3, lsl #2
    3ccc:	00214c00 	eoreq	r4, r1, r0, lsl #24
    3cd0:	00700a00 	rsbseq	r0, r0, r0, lsl #20
    3cd4:	00740401 	rsbseq	r0, r4, r1, lsl #8
    3cd8:	216d0000 	cmncs	sp, r0
    3cdc:	650b0000 	strvs	r0, [fp, #-0]
    3ce0:	74040100 	strvc	r0, [r4], #-256	; 0x100
    3ce4:	01000000 	mrseq	r0, (UNDEF: 0)
    3ce8:	Address 0x0000000000003ce8 is out of bounds.


Disassembly of section .debug_abbrev:

00000000 <.debug_abbrev>:
       0:	25011101 	strcs	r1, [r1, #-257]	; 0x101
       4:	030b130e 	movweq	r1, #45838	; 0xb30e
       8:	110e1b0e 	tstne	lr, lr, lsl #22
       c:	10061201 	andne	r1, r6, r1, lsl #4
      10:	02000017 	andeq	r0, r0, #23
      14:	0b0b0024 	bleq	2c00ac <__bss_end__+0x2b5944>
      18:	08030b3e 	stmdaeq	r3, {r1, r2, r3, r4, r5, r8, r9, fp}
      1c:	24030000 	strcs	r0, [r3], #-0
      20:	3e0b0b00 	vmlacc.f64	d0, d11, d0
      24:	000e030b 	andeq	r0, lr, fp, lsl #6
      28:	00160400 	andseq	r0, r6, r0, lsl #8
      2c:	0b3a0e03 	bleq	e83840 <__bss_end__+0xe790d8>
      30:	13490b3b 	movtne	r0, #39739	; 0x9b3b
      34:	0f050000 	svceq	0x00050000
      38:	000b0b00 	andeq	r0, fp, r0, lsl #22
      3c:	000f0600 	andeq	r0, pc, r0, lsl #12
      40:	13490b0b 	movtne	r0, #39691	; 0x9b0b
      44:	26070000 	strcs	r0, [r7], -r0
      48:	00134900 	andseq	r4, r3, r0, lsl #18
      4c:	01010800 	tsteq	r1, r0, lsl #16
      50:	13011349 	movwne	r1, #4937	; 0x1349
      54:	21090000 	mrscs	r0, (UNDEF: 9)
      58:	2f134900 	svccs	0x00134900
      5c:	0a00000b 	beq	90 <_start-0x7f70>
      60:	0b0b0104 	bleq	2c0478 <__bss_end__+0x2b5d10>
      64:	0b3b0b3a 	bleq	ec2d54 <__bss_end__+0xeb85ec>
      68:	00001301 	andeq	r1, r0, r1, lsl #6
      6c:	0300280b 	movweq	r2, #2059	; 0x80b
      70:	000d1c0e 	andeq	r1, sp, lr, lsl #24
      74:	00350c00 	eorseq	r0, r5, r0, lsl #24
      78:	00001349 	andeq	r1, r0, r9, asr #6
      7c:	0b01130d 	bleq	44cb8 <__bss_end__+0x3a550>
      80:	3b0b3a0b 	blcc	2ce8b4 <__bss_end__+0x2c414c>
      84:	0013010b 	andseq	r0, r3, fp, lsl #2
      88:	000d0e00 	andeq	r0, sp, r0, lsl #28
      8c:	0b3a0803 	bleq	e820a0 <__bss_end__+0xe77938>
      90:	13490b3b 	movtne	r0, #39739	; 0x9b3b
      94:	00000b38 	andeq	r0, r0, r8, lsr fp
      98:	03000d0f 	movweq	r0, #3343	; 0xd0f
      9c:	3b0b3a0e 	blcc	2ce8dc <__bss_end__+0x2c4174>
      a0:	3813490b 	ldmdacc	r3, {r0, r1, r3, r8, fp, lr}
      a4:	1000000b 	andne	r0, r0, fp
      a8:	0e030113 	mcreq	1, 0, r0, cr3, cr3, {0}
      ac:	0b3a0b0b 	bleq	e82ce0 <__bss_end__+0xe78578>
      b0:	13010b3b 	movwne	r0, #6971	; 0x1b3b
      b4:	0d110000 	ldceq	0, cr0, [r1, #-0]
      b8:	490e0300 	stmdbmi	lr, {r8, r9}
      bc:	340b3813 	strcc	r3, [fp], #-2067	; 0x813
      c0:	12000019 	andne	r0, r0, #25
      c4:	0e03012e 	adfeqsp	f0, f3, #0.5
      c8:	0b3b0b3a 	bleq	ec2db8 <__bss_end__+0xeb8650>
      cc:	0b201927 	bleq	806570 <__bss_end__+0x7fbe08>
      d0:	00001301 	andeq	r1, r0, r1, lsl #6
      d4:	03000513 	movweq	r0, #1299	; 0x513
      d8:	3b0b3a0e 	blcc	2ce918 <__bss_end__+0x2c41b0>
      dc:	0013490b 	andseq	r4, r3, fp, lsl #18
      e0:	00051400 	andeq	r1, r5, r0, lsl #8
      e4:	0b3a0803 	bleq	e820f8 <__bss_end__+0xe77990>
      e8:	13490b3b 	movtne	r0, #39739	; 0x9b3b
      ec:	0b150000 	bleq	5400f4 <__bss_end__+0x53598c>
      f0:	16000001 	strne	r0, [r0], -r1
      f4:	0e030034 	mcreq	0, 0, r0, cr3, cr4, {1}
      f8:	0b3b0b3a 	bleq	ec2de8 <__bss_end__+0xeb8680>
      fc:	00001349 	andeq	r1, r0, r9, asr #6
     100:	3f012e17 	svccc	0x00012e17
     104:	3a0e0319 	bcc	380d70 <__bss_end__+0x376608>
     108:	270b3b0b 	strcs	r3, [fp, -fp, lsl #22]
     10c:	12011119 	andne	r1, r1, #1073741830	; 0x40000006
     110:	97184006 	ldrls	r4, [r8, -r6]
     114:	13011942 	movwne	r1, #6466	; 0x1942
     118:	05180000 	ldreq	r0, [r8, #-0]
     11c:	3a0e0300 	bcc	380d24 <__bss_end__+0x3765bc>
     120:	490b3b0b 	stmdbmi	fp, {r0, r1, r3, r8, r9, fp, ip, sp}
     124:	00170213 	andseq	r0, r7, r3, lsl r2
     128:	00051900 	andeq	r1, r5, r0, lsl #18
     12c:	0b3a0803 	bleq	e82140 <__bss_end__+0xe779d8>
     130:	13490b3b 	movtne	r0, #39739	; 0x9b3b
     134:	00001702 	andeq	r1, r0, r2, lsl #14
     138:	0300341a 	movweq	r3, #1050	; 0x41a
     13c:	3b0b3a08 	blcc	2ce964 <__bss_end__+0x2c41fc>
     140:	0213490b 	andseq	r4, r3, #180224	; 0x2c000
     144:	1b000018 	blne	1ac <_start-0x7e54>
     148:	08030034 	stmdaeq	r3, {r2, r4, r5}
     14c:	0b3b0b3a 	bleq	ec2e3c <__bss_end__+0xeb86d4>
     150:	17021349 	strne	r1, [r2, -r9, asr #6]
     154:	341c0000 	ldrcc	r0, [ip], #-0
     158:	3a080300 	bcc	200d60 <__bss_end__+0x1f65f8>
     15c:	490b3b0b 	stmdbmi	fp, {r0, r1, r3, r8, r9, fp, ip, sp}
     160:	1d000013 	stcne	0, cr0, [r0, #-76]	; 0xffffffb4
     164:	0e030034 	mcreq	0, 0, r0, cr3, cr4, {1}
     168:	0b3b0b3a 	bleq	ec2e58 <__bss_end__+0xeb86f0>
     16c:	18021349 	stmdane	r2, {r0, r3, r6, r8, r9, ip}
     170:	0b1e0000 	bleq	780178 <__bss_end__+0x775a10>
     174:	12011101 	andne	r1, r1, #1073741824	; 0x40000000
     178:	00130106 	andseq	r0, r3, r6, lsl #2
     17c:	011d1f00 	tsteq	sp, r0, lsl #30
     180:	01111331 	tsteq	r1, r1, lsr r3
     184:	0b580612 	bleq	16019d4 <__bss_end__+0x15f726c>
     188:	13010b59 	movwne	r0, #7001	; 0x1b59
     18c:	05200000 	streq	r0, [r0, #-0]!
     190:	02133100 	andseq	r3, r3, #0, 2
     194:	21000017 	tstcs	r0, r7, lsl r0
     198:	13310005 	teqne	r1, #5
     19c:	00001802 	andeq	r1, r0, r2, lsl #16
     1a0:	31000522 	tstcc	r0, r2, lsr #10
     1a4:	000b1c13 	andeq	r1, fp, r3, lsl ip
     1a8:	010b2300 	mrseq	r2, (UNDEF: 59)
     1ac:	06120111 			; <UNDEFINED> instruction: 0x06120111
     1b0:	34240000 	strtcc	r0, [r4], #-0
     1b4:	02133100 	andseq	r3, r3, #0, 2
     1b8:	25000017 	strcs	r0, [r0, #-23]
     1bc:	01018289 	smlabbeq	r1, r9, r2, r8
     1c0:	13310111 	teqne	r1, #1073741828	; 0x40000004
     1c4:	8a260000 	bhi	9801cc <__bss_end__+0x975a64>
     1c8:	02000182 	andeq	r0, r0, #-2147483616	; 0x80000020
     1cc:	18429118 	stmdane	r2, {r3, r4, r8, ip, pc}^
     1d0:	1d270000 	stcne	0, cr0, [r7, #-0]
     1d4:	11133101 	tstne	r3, r1, lsl #2
     1d8:	58061201 	stmdapl	r6, {r0, r9, ip}
     1dc:	000b590b 	andeq	r5, fp, fp, lsl #18
     1e0:	012e2800 	teqeq	lr, r0, lsl #16
     1e4:	0b3a0e03 	bleq	e839f8 <__bss_end__+0xe79290>
     1e8:	19270b3b 	stmdbne	r7!, {r0, r1, r3, r4, r5, r8, r9, fp}
     1ec:	0b201349 	bleq	804f18 <__bss_end__+0x7fa7b0>
     1f0:	00001301 	andeq	r1, r0, r1, lsl #6
     1f4:	3f012e29 	svccc	0x00012e29
     1f8:	3a0e0319 	bcc	380e64 <__bss_end__+0x3766fc>
     1fc:	270b3b0b 	strcs	r3, [fp, -fp, lsl #22]
     200:	11134919 	tstne	r3, r9, lsl r9
     204:	40061201 	andmi	r1, r6, r1, lsl #4
     208:	19429718 	stmdbne	r2, {r3, r4, r8, r9, sl, ip, pc}^
     20c:	00001301 	andeq	r1, r0, r1, lsl #6
     210:	0182892a 	orreq	r8, r2, sl, lsr #18
     214:	31011100 	mrscc	r1, (UNDEF: 17)
     218:	2b000013 	blcs	26c <_start-0x7d94>
     21c:	01018289 	smlabbeq	r1, r9, r2, r8
     220:	13310111 	teqne	r1, #1073741828	; 0x40000004
     224:	00001301 	andeq	r1, r0, r1, lsl #6
     228:	0300342c 	movweq	r3, #1068	; 0x42c
     22c:	3b0b3a0e 	blcc	2cea6c <__bss_end__+0x2c4304>
     230:	0213490b 	andseq	r4, r3, #180224	; 0x2c000
     234:	2d000017 	stccs	0, cr0, [r0, #-92]	; 0xffffffa4
     238:	13310005 	teqne	r1, #5
     23c:	052e0000 	streq	r0, [lr, #-0]!
     240:	3a0e0300 	bcc	380e48 <__bss_end__+0x3766e0>
     244:	490b3b0b 	stmdbmi	fp, {r0, r1, r3, r8, r9, fp, ip, sp}
     248:	00180213 	andseq	r0, r8, r3, lsl r2
     24c:	00342f00 	eorseq	r2, r4, r0, lsl #30
     250:	13490e03 	movtne	r0, #40451	; 0x9e03
     254:	18021934 	stmdane	r2, {r2, r4, r5, r8, fp, ip}
     258:	34300000 	ldrtcc	r0, [r0], #-0
     25c:	3a080300 	bcc	200e64 <__bss_end__+0x1f66fc>
     260:	490b3b0b 	stmdbmi	fp, {r0, r1, r3, r8, r9, fp, ip, sp}
     264:	00061c13 	andeq	r1, r6, r3, lsl ip
     268:	00343100 	eorseq	r3, r4, r0, lsl #2
     26c:	0b3a0803 	bleq	e82280 <__bss_end__+0xe77b18>
     270:	13490b3b 	movtne	r0, #39739	; 0x9b3b
     274:	00000b1c 	andeq	r0, r0, ip, lsl fp
     278:	03000532 	movweq	r0, #1330	; 0x532
     27c:	3b0b3a08 	blcc	2ceaa4 <__bss_end__+0x2c433c>
     280:	0213490b 	andseq	r4, r3, #180224	; 0x2c000
     284:	33000018 	movwcc	r0, #24
     288:	00000018 	andeq	r0, r0, r8, lsl r0
     28c:	49002134 	stmdbmi	r0, {r2, r4, r5, r8, sp}
     290:	00052f13 	andeq	r2, r5, r3, lsl pc
     294:	00343500 	eorseq	r3, r4, r0, lsl #10
     298:	0b3a0803 	bleq	e822ac <__bss_end__+0xe77b44>
     29c:	1349053b 	movtne	r0, #38203	; 0x953b
     2a0:	00001802 	andeq	r1, r0, r2, lsl #16
     2a4:	03003436 	movweq	r3, #1078	; 0x436
     2a8:	3b0b3a08 	blcc	2cead0 <__bss_end__+0x2c4368>
     2ac:	1c134905 	ldcne	9, cr4, [r3], {5}
     2b0:	3700000b 	strcc	r0, [r0, -fp]
     2b4:	08030034 	stmdaeq	r3, {r2, r4, r5}
     2b8:	053b0b3a 	ldreq	r0, [fp, #-2874]!	; 0xb3a
     2bc:	17021349 	strne	r1, [r2, -r9, asr #6]
     2c0:	0b380000 	bleq	e002c8 <__bss_end__+0xdf5b60>
     2c4:	01175501 	tsteq	r7, r1, lsl #10
     2c8:	39000013 	stmdbcc	r0, {r0, r1, r4}
     2cc:	0e030034 	mcreq	0, 0, r0, cr3, cr4, {1}
     2d0:	0b3b0b3a 	bleq	ec2fc0 <__bss_end__+0xeb8858>
     2d4:	193f1349 	ldmdbne	pc!, {r0, r3, r6, r8, r9, ip}	; <UNPREDICTABLE>
     2d8:	00001802 	andeq	r1, r0, r2, lsl #16
     2dc:	3f012e3a 	svccc	0x00012e3a
     2e0:	3a0e0319 	bcc	380f4c <__bss_end__+0x3767e4>
     2e4:	270b3b0b 	strcs	r3, [fp, -fp, lsl #22]
     2e8:	01193c19 	tsteq	r9, r9, lsl ip
     2ec:	3b000013 	blcc	340 <_start-0x7cc0>
     2f0:	13490005 	movtne	r0, #36869	; 0x9005
     2f4:	2e3c0000 	cdpcs	0, 3, cr0, cr12, cr0, {0}
     2f8:	03193f00 	tsteq	r9, #0, 30
     2fc:	3b0b3a0e 	blcc	2ceb3c <__bss_end__+0x2c43d4>
     300:	4919270b 	ldmdbmi	r9, {r0, r1, r3, r8, r9, sl, sp}
     304:	00193c13 	andseq	r3, r9, r3, lsl ip
     308:	012e3d00 	teqeq	lr, r0, lsl #26
     30c:	0e03193f 	mcreq	9, 0, r1, cr3, cr15, {1}
     310:	0b3b0b3a 	bleq	ec3000 <__bss_end__+0xeb8898>
     314:	13491927 	movtne	r1, #39207	; 0x9927
     318:	1301193c 	movwne	r1, #6460	; 0x193c
     31c:	2e3e0000 	cdpcs	0, 3, cr0, cr14, cr0, {0}
     320:	03193f00 	tsteq	r9, #0, 30
     324:	3b0b3a0e 	blcc	2ceb64 <__bss_end__+0x2c43fc>
     328:	3c19270b 	ldccc	7, cr2, [r9], {11}
     32c:	3f000019 	svccc	0x00000019
     330:	193f012e 	ldmdbne	pc!, {r1, r2, r3, r5, r8}	; <UNPREDICTABLE>
     334:	0b3a0e03 	bleq	e83b48 <__bss_end__+0xe793e0>
     338:	19270b3b 	stmdbne	r7!, {r0, r1, r3, r4, r5, r8, r9, fp}
     33c:	0000193c 	andeq	r1, r0, ip, lsr r9
     340:	01110100 	tsteq	r1, r0, lsl #2
     344:	0b130e25 	bleq	4c3be0 <__bss_end__+0x4b9478>
     348:	0e1b0e03 	cdpeq	14, 1, cr0, cr11, cr3, {0}
     34c:	06120111 			; <UNDEFINED> instruction: 0x06120111
     350:	00001710 	andeq	r1, r0, r0, lsl r7
     354:	03001602 	movweq	r1, #1538	; 0x602
     358:	3b0b3a0e 	blcc	2ceb98 <__bss_end__+0x2c4430>
     35c:	0013490b 	andseq	r4, r3, fp, lsl #18
     360:	01130300 	tsteq	r3, r0, lsl #6
     364:	0b0b0e03 	bleq	2c3b78 <__bss_end__+0x2b9410>
     368:	0b3b0b3a 	bleq	ec3058 <__bss_end__+0xeb88f0>
     36c:	00001301 	andeq	r1, r0, r1, lsl #6
     370:	03000d04 	movweq	r0, #3332	; 0xd04
     374:	3813490e 	ldmdacc	r3, {r1, r2, r3, r8, fp, lr}
     378:	0019340b 	andseq	r3, r9, fp, lsl #8
     37c:	000f0500 	andeq	r0, pc, r0, lsl #10
     380:	00000b0b 	andeq	r0, r0, fp, lsl #22
     384:	0b002406 	bleq	93a4 <gpio_int_rising_edge+0x10>
     388:	030b3e0b 	movweq	r3, #48651	; 0xbe0b
     38c:	07000008 	streq	r0, [r0, -r8]
     390:	0b0b0024 	bleq	2c0428 <__bss_end__+0x2b5cc0>
     394:	0e030b3e 	vmoveq.16	d3[0], r0
     398:	0f080000 	svceq	0x00080000
     39c:	490b0b00 	stmdbmi	fp, {r8, r9, fp}
     3a0:	09000013 	stmdbeq	r0, {r0, r1, r4}
     3a4:	13490026 	movtne	r0, #36902	; 0x9026
     3a8:	2e0a0000 	cdpcs	0, 0, cr0, cr10, cr0, {0}
     3ac:	03193f01 	tsteq	r9, #1, 30
     3b0:	3b0b3a0e 	blcc	2cebf0 <__bss_end__+0x2c4488>
     3b4:	4919270b 	ldmdbmi	r9, {r0, r1, r3, r8, r9, sl, sp}
     3b8:	12011113 	andne	r1, r1, #-1073741820	; 0xc0000004
     3bc:	97184006 	ldrls	r4, [r8, -r6]
     3c0:	13011942 	movwne	r1, #6466	; 0x1942
     3c4:	050b0000 	streq	r0, [fp, #-0]
     3c8:	3a080300 	bcc	200fd0 <__bss_end__+0x1f6868>
     3cc:	490b3b0b 	stmdbmi	fp, {r0, r1, r3, r8, r9, fp, ip, sp}
     3d0:	00180213 	andseq	r0, r8, r3, lsl r2
     3d4:	00180c00 	andseq	r0, r8, r0, lsl #24
     3d8:	340d0000 	strcc	r0, [sp], #-0
     3dc:	3a080300 	bcc	200fe4 <__bss_end__+0x1f687c>
     3e0:	490b3b0b 	stmdbmi	fp, {r0, r1, r3, r8, r9, fp, ip, sp}
     3e4:	00180213 	andseq	r0, r8, r3, lsl r2
     3e8:	00340e00 	eorseq	r0, r4, r0, lsl #28
     3ec:	0b3a0e03 	bleq	e83c00 <__bss_end__+0xe79498>
     3f0:	13490b3b 	movtne	r0, #39739	; 0x9b3b
     3f4:	00001802 	andeq	r1, r0, r2, lsl #16
     3f8:	0300340f 	movweq	r3, #1039	; 0x40f
     3fc:	3b0b3a08 	blcc	2cec24 <__bss_end__+0x2c44bc>
     400:	0213490b 	andseq	r4, r3, #180224	; 0x2c000
     404:	10000017 	andne	r0, r0, r7, lsl r0
     408:	01018289 	smlabbeq	r1, r9, r2, r8
     40c:	13310111 	teqne	r1, #1073741828	; 0x40000004
     410:	00001301 	andeq	r1, r0, r1, lsl #6
     414:	01828a11 	orreq	r8, r2, r1, lsl sl
     418:	91180200 	tstls	r8, r0, lsl #4
     41c:	00001842 	andeq	r1, r0, r2, asr #16
     420:	01828912 	orreq	r8, r2, r2, lsl r9
     424:	00011101 	andeq	r1, r1, r1, lsl #2
     428:	01011300 	mrseq	r1, SP_irq
     42c:	13011349 	movwne	r1, #4937	; 0x1349
     430:	21140000 	tstcs	r4, r0
     434:	2f134900 	svccs	0x00134900
     438:	15000005 	strne	r0, [r0, #-5]
     43c:	19270115 	stmdbne	r7!, {r0, r2, r4, r8}
     440:	13011349 	movwne	r1, #4937	; 0x1349
     444:	05160000 	ldreq	r0, [r6, #-0]
     448:	00134900 	andseq	r4, r3, r0, lsl #18
     44c:	00341700 	eorseq	r1, r4, r0, lsl #14
     450:	0b3a0e03 	bleq	e83c64 <__bss_end__+0xe794fc>
     454:	13490b3b 	movtne	r0, #39739	; 0x9b3b
     458:	193c193f 	ldmdbne	ip!, {r0, r1, r2, r3, r4, r5, r8, fp, ip}
     45c:	2e180000 	cdpcs	0, 1, cr0, cr8, cr0, {0}
     460:	03193f01 	tsteq	r9, #1, 30
     464:	3b0b3a0e 	blcc	2ceca4 <__bss_end__+0x2c453c>
     468:	4919270b 	ldmdbmi	r9, {r0, r1, r3, r8, r9, sl, sp}
     46c:	00193c13 	andseq	r3, r9, r3, lsl ip
     470:	11010000 	mrsne	r0, (UNDEF: 1)
     474:	130e2501 	movwne	r2, #58625	; 0xe501
     478:	1b0e030b 	blne	3810ac <__bss_end__+0x376944>
     47c:	1201110e 	andne	r1, r1, #-2147483645	; 0x80000003
     480:	00171006 	andseq	r1, r7, r6
     484:	00240200 	eoreq	r0, r4, r0, lsl #4
     488:	0b3e0b0b 	bleq	f830bc <__bss_end__+0xf78954>
     48c:	00000803 	andeq	r0, r0, r3, lsl #16
     490:	0b002403 	bleq	94a4 <gpio_event_detected+0x8>
     494:	030b3e0b 	movweq	r3, #48651	; 0xbe0b
     498:	0400000e 	streq	r0, [r0], #-14
     49c:	0e03012e 	adfeqsp	f0, f3, #0.5
     4a0:	0b3b0b3a 	bleq	ec3190 <__bss_end__+0xeb8a28>
     4a4:	13491927 	movtne	r1, #39207	; 0x9927
     4a8:	06120111 			; <UNDEFINED> instruction: 0x06120111
     4ac:	42971840 	addsmi	r1, r7, #64, 16	; 0x400000
     4b0:	00130119 	andseq	r0, r3, r9, lsl r1
     4b4:	00050500 	andeq	r0, r5, r0, lsl #10
     4b8:	0b3a0803 	bleq	e824cc <__bss_end__+0xe77d64>
     4bc:	13490b3b 	movtne	r0, #39739	; 0x9b3b
     4c0:	00001702 	andeq	r1, r0, r2, lsl #14
     4c4:	01828906 	orreq	r8, r2, r6, lsl #18
     4c8:	31011101 	tstcc	r1, r1, lsl #2
     4cc:	07000013 	smladeq	r0, r3, r0, r0
     4d0:	0001828a 	andeq	r8, r1, sl, lsl #5
     4d4:	42911802 	addsmi	r1, r1, #131072	; 0x20000
     4d8:	08000018 	stmdaeq	r0, {r3, r4}
     4dc:	193f002e 	ldmdbne	pc!, {r1, r2, r3, r5}	; <UNPREDICTABLE>
     4e0:	0b3a0e03 	bleq	e83cf4 <__bss_end__+0xe7958c>
     4e4:	19270b3b 	stmdbne	r7!, {r0, r1, r3, r4, r5, r8, r9, fp}
     4e8:	06120111 			; <UNDEFINED> instruction: 0x06120111
     4ec:	42971840 	addsmi	r1, r7, #64, 16	; 0x400000
     4f0:	09000019 	stmdbeq	r0, {r0, r3, r4}
     4f4:	193f012e 	ldmdbne	pc!, {r1, r2, r3, r5, r8}	; <UNPREDICTABLE>
     4f8:	0b3a0e03 	bleq	e83d0c <__bss_end__+0xe795a4>
     4fc:	19270b3b 	stmdbne	r7!, {r0, r1, r3, r4, r5, r8, r9, fp}
     500:	06120111 			; <UNDEFINED> instruction: 0x06120111
     504:	42971840 	addsmi	r1, r7, #64, 16	; 0x400000
     508:	00130119 	andseq	r0, r3, r9, lsl r1
     50c:	00050a00 	andeq	r0, r5, r0, lsl #20
     510:	0b3a0803 	bleq	e82524 <__bss_end__+0xe77dbc>
     514:	13490b3b 	movtne	r0, #39739	; 0x9b3b
     518:	00001802 	andeq	r1, r0, r2, lsl #16
     51c:	2701150b 	strcs	r1, [r1, -fp, lsl #10]
     520:	01134919 	tsteq	r3, r9, lsl r9
     524:	0c000013 	stceq	0, cr0, [r0], {19}
     528:	13490005 	movtne	r0, #36869	; 0x9005
     52c:	0f0d0000 	svceq	0x000d0000
     530:	490b0b00 	stmdbmi	fp, {r8, r9, fp}
     534:	0e000013 	mcreq	0, 0, r0, cr0, cr3, {0}
     538:	0e030034 	mcreq	0, 0, r0, cr3, cr4, {1}
     53c:	0b3b0b3a 	bleq	ec322c <__bss_end__+0xeb8ac4>
     540:	193f1349 	ldmdbne	pc!, {r0, r3, r6, r8, r9, ip}	; <UNPREDICTABLE>
     544:	00001802 	andeq	r1, r0, r2, lsl #16
     548:	3f012e0f 	svccc	0x00012e0f
     54c:	3a0e0319 	bcc	3811b8 <__bss_end__+0x376a50>
     550:	270b3b0b 	strcs	r3, [fp, -fp, lsl #22]
     554:	00193c19 	andseq	r3, r9, r9, lsl ip
     558:	11010000 	mrsne	r0, (UNDEF: 1)
     55c:	130e2501 	movwne	r2, #58625	; 0xe501
     560:	1b0e030b 	blne	381194 <__bss_end__+0x376a2c>
     564:	1201110e 	andne	r1, r1, #-2147483645	; 0x80000003
     568:	00171006 	andseq	r1, r7, r6
     56c:	00240200 	eoreq	r0, r4, r0, lsl #4
     570:	0b3e0b0b 	bleq	f831a4 <__bss_end__+0xf78a3c>
     574:	00000803 	andeq	r0, r0, r3, lsl #16
     578:	0b002403 	bleq	958c <uart_init+0x14>
     57c:	030b3e0b 	movweq	r3, #48651	; 0xbe0b
     580:	0400000e 	streq	r0, [r0], #-14
     584:	0b0b000f 	bleq	2c05c8 <__bss_end__+0x2b5e60>
     588:	00001349 	andeq	r1, r0, r9, asr #6
     58c:	49002605 	stmdbmi	r0, {r0, r2, r9, sl, sp}
     590:	06000013 			; <UNDEFINED> instruction: 0x06000013
     594:	193f012e 	ldmdbne	pc!, {r1, r2, r3, r5, r8}	; <UNPREDICTABLE>
     598:	0b3a0e03 	bleq	e83dac <__bss_end__+0xe79644>
     59c:	19270b3b 	stmdbne	r7!, {r0, r1, r3, r4, r5, r8, r9, fp}
     5a0:	01111349 	tsteq	r1, r9, asr #6
     5a4:	18400612 	stmdane	r0, {r1, r4, r9, sl}^
     5a8:	01194296 			; <UNDEFINED> instruction: 0x01194296
     5ac:	07000013 	smladeq	r0, r3, r0, r0
     5b0:	08030005 	stmdaeq	r3, {r0, r2}
     5b4:	0b3b0b3a 	bleq	ec32a4 <__bss_end__+0xeb8b3c>
     5b8:	17021349 	strne	r1, [r2, -r9, asr #6]
     5bc:	15080000 	strne	r0, [r8, #-0]
     5c0:	49192701 	ldmdbmi	r9, {r0, r8, r9, sl, sp}
     5c4:	00130113 	andseq	r0, r3, r3, lsl r1
     5c8:	00050900 	andeq	r0, r5, r0, lsl #18
     5cc:	00001349 	andeq	r1, r0, r9, asr #6
     5d0:	0300340a 	movweq	r3, #1034	; 0x40a
     5d4:	3b0b3a0e 	blcc	2cee14 <__bss_end__+0x2c46ac>
     5d8:	3f13490b 	svccc	0x0013490b
     5dc:	00193c19 	andseq	r3, r9, r9, lsl ip
     5e0:	00340b00 	eorseq	r0, r4, r0, lsl #22
     5e4:	0b3a0e03 	bleq	e83df8 <__bss_end__+0xe79690>
     5e8:	13490b3b 	movtne	r0, #39739	; 0x9b3b
     5ec:	1802193f 	stmdane	r2, {r0, r1, r2, r3, r4, r5, r8, fp, ip}
     5f0:	01000000 	mrseq	r0, (UNDEF: 0)
     5f4:	0e250111 	mcreq	1, 1, r0, cr5, cr1, {0}
     5f8:	0e030b13 	vmoveq.32	d3[0], r0
     5fc:	01110e1b 	tsteq	r1, fp, lsl lr
     600:	17100612 			; <UNDEFINED> instruction: 0x17100612
     604:	24020000 	strcs	r0, [r2], #-0
     608:	3e0b0b00 	vmlacc.f64	d0, d11, d0
     60c:	0008030b 	andeq	r0, r8, fp, lsl #6
     610:	00240300 	eoreq	r0, r4, r0, lsl #6
     614:	0b3e0b0b 	bleq	f83248 <__bss_end__+0xf78ae0>
     618:	00000e03 	andeq	r0, r0, r3, lsl #28
     61c:	0b000f04 	bleq	4234 <_start-0x3dcc>
     620:	0500000b 	streq	r0, [r0, #-11]
     624:	0b0b000f 	bleq	2c0668 <__bss_end__+0x2b5f00>
     628:	00001349 	andeq	r1, r0, r9, asr #6
     62c:	49002606 	stmdbmi	r0, {r1, r2, r9, sl, sp}
     630:	07000013 	smladeq	r0, r3, r0, r0
     634:	0e030016 	mcreq	0, 0, r0, cr3, cr6, {0}
     638:	0b3b0b3a 	bleq	ec3328 <__bss_end__+0xeb8bc0>
     63c:	00001349 	andeq	r1, r0, r9, asr #6
     640:	03011308 	movweq	r1, #4872	; 0x1308
     644:	3a0b0b0e 	bcc	2c3284 <__bss_end__+0x2b8b1c>
     648:	010b3b0b 	tsteq	fp, fp, lsl #22
     64c:	09000013 	stmdbeq	r0, {r0, r1, r4}
     650:	0e03000d 	cdpeq	0, 0, cr0, cr3, cr13, {0}
     654:	0b381349 	bleq	e05380 <__bss_end__+0xdfac18>
     658:	00001934 	andeq	r1, r0, r4, lsr r9
     65c:	03012e0a 	movweq	r2, #7690	; 0x1e0a
     660:	3b0b3a0e 	blcc	2ceea0 <__bss_end__+0x2c4738>
     664:	4919270b 	ldmdbmi	r9, {r0, r1, r3, r8, r9, sl, sp}
     668:	12011113 	andne	r1, r1, #-1073741820	; 0xc0000004
     66c:	97184006 	ldrls	r4, [r8, -r6]
     670:	13011942 	movwne	r1, #6466	; 0x1942
     674:	050b0000 	streq	r0, [fp, #-0]
     678:	3a080300 	bcc	201280 <__bss_end__+0x1f6b18>
     67c:	490b3b0b 	stmdbmi	fp, {r0, r1, r3, r8, r9, fp, ip, sp}
     680:	00170213 	andseq	r0, r7, r3, lsl r2
     684:	012e0c00 	teqeq	lr, r0, lsl #24
     688:	0b3a0803 	bleq	e8269c <__bss_end__+0xe77f34>
     68c:	19270b3b 	stmdbne	r7!, {r0, r1, r3, r4, r5, r8, r9, fp}
     690:	01111349 	tsteq	r1, r9, asr #6
     694:	18400612 	stmdane	r0, {r1, r4, r9, sl}^
     698:	01194297 			; <UNDEFINED> instruction: 0x01194297
     69c:	0d000013 	stceq	0, cr0, [r0, #-76]	; 0xffffffb4
     6a0:	0e030005 	cdpeq	0, 0, cr0, cr3, cr5, {0}
     6a4:	0b3b0b3a 	bleq	ec3394 <__bss_end__+0xeb8c2c>
     6a8:	17021349 	strne	r1, [r2, -r9, asr #6]
     6ac:	050e0000 	streq	r0, [lr, #-0]
     6b0:	3a0e0300 	bcc	3812b8 <__bss_end__+0x376b50>
     6b4:	490b3b0b 	stmdbmi	fp, {r0, r1, r3, r8, r9, fp, ip, sp}
     6b8:	00180213 	andseq	r0, r8, r3, lsl r2
     6bc:	00340f00 	eorseq	r0, r4, r0, lsl #30
     6c0:	0b3a0803 	bleq	e826d4 <__bss_end__+0xe77f6c>
     6c4:	13490b3b 	movtne	r0, #39739	; 0x9b3b
     6c8:	00001802 	andeq	r1, r0, r2, lsl #16
     6cc:	03003410 	movweq	r3, #1040	; 0x410
     6d0:	3b0b3a08 	blcc	2ceef8 <__bss_end__+0x2c4790>
     6d4:	0213490b 	andseq	r4, r3, #180224	; 0x2c000
     6d8:	11000017 	tstne	r0, r7, lsl r0
     6dc:	0e030034 	mcreq	0, 0, r0, cr3, cr4, {1}
     6e0:	19341349 	ldmdbne	r4!, {r0, r3, r6, r8, r9, ip}
     6e4:	00001802 	andeq	r1, r0, r2, lsl #16
     6e8:	11010b12 	tstne	r1, r2, lsl fp
     6ec:	01061201 	tsteq	r6, r1, lsl #4
     6f0:	13000013 	movwne	r0, #19
     6f4:	0e030034 	mcreq	0, 0, r0, cr3, cr4, {1}
     6f8:	0b3b0b3a 	bleq	ec33e8 <__bss_end__+0xeb8c80>
     6fc:	17021349 	strne	r1, [r2, -r9, asr #6]
     700:	89140000 	ldmdbhi	r4, {}	; <UNPREDICTABLE>
     704:	11000182 	smlabbne	r0, r2, r1, r0
     708:	00133101 	andseq	r3, r3, r1, lsl #2
     70c:	82891500 	addhi	r1, r9, #0, 10
     710:	01110101 	tsteq	r1, r1, lsl #2
     714:	13011331 	movwne	r1, #4913	; 0x1331
     718:	8a160000 	bhi	580720 <__bss_end__+0x575fb8>
     71c:	02000182 	andeq	r0, r0, #-2147483616	; 0x80000020
     720:	18429118 	stmdane	r2, {r3, r4, r8, ip, pc}^
     724:	89170000 	ldmdbhi	r7, {}	; <UNPREDICTABLE>
     728:	11010182 	smlabbne	r1, r2, r1, r0
     72c:	00133101 	andseq	r3, r3, r1, lsl #2
     730:	01011800 	tsteq	r1, r0, lsl #16
     734:	13011349 	movwne	r1, #4937	; 0x1349
     738:	21190000 	tstcs	r9, r0
     73c:	2f134900 	svccs	0x00134900
     740:	1a00000b 	bne	774 <_start-0x788c>
     744:	193f012e 	ldmdbne	pc!, {r1, r2, r3, r5, r8}	; <UNPREDICTABLE>
     748:	0b3a0e03 	bleq	e83f5c <__bss_end__+0xe797f4>
     74c:	19270b3b 	stmdbne	r7!, {r0, r1, r3, r4, r5, r8, r9, fp}
     750:	06120111 			; <UNDEFINED> instruction: 0x06120111
     754:	42971840 	addsmi	r1, r7, #64, 16	; 0x400000
     758:	00130119 	andseq	r0, r3, r9, lsl r1
     75c:	01151b00 	tsteq	r5, r0, lsl #22
     760:	13491927 	movtne	r1, #39207	; 0x9927
     764:	00001301 	andeq	r1, r0, r1, lsl #6
     768:	4900051c 	stmdbmi	r0, {r2, r3, r4, r8, sl}
     76c:	1d000013 	stcne	0, cr0, [r0, #-76]	; 0xffffffb4
     770:	193f012e 	ldmdbne	pc!, {r1, r2, r3, r5, r8}	; <UNPREDICTABLE>
     774:	0b3a0e03 	bleq	e83f88 <__bss_end__+0xe79820>
     778:	19270b3b 	stmdbne	r7!, {r0, r1, r3, r4, r5, r8, r9, fp}
     77c:	01111349 	tsteq	r1, r9, asr #6
     780:	18400612 	stmdane	r0, {r1, r4, r9, sl}^
     784:	01194297 			; <UNDEFINED> instruction: 0x01194297
     788:	1e000013 	mcrne	0, 0, r0, cr0, cr3, {0}
     78c:	1755010b 	ldrbne	r0, [r5, -fp, lsl #2]
     790:	341f0000 	ldrcc	r0, [pc], #-0	; 798 <_start-0x7868>
     794:	3a0e0300 	bcc	38139c <__bss_end__+0x376c34>
     798:	490b3b0b 	stmdbmi	fp, {r0, r1, r3, r8, r9, fp, ip, sp}
     79c:	3c193f13 	ldccc	15, cr3, [r9], {19}
     7a0:	20000019 	andcs	r0, r0, r9, lsl r0
     7a4:	193f002e 	ldmdbne	pc!, {r1, r2, r3, r5}	; <UNPREDICTABLE>
     7a8:	0b3a0e03 	bleq	e83fbc <__bss_end__+0xe79854>
     7ac:	19270b3b 	stmdbne	r7!, {r0, r1, r3, r4, r5, r8, r9, fp}
     7b0:	0000193c 	andeq	r1, r0, ip, lsr r9
     7b4:	3f012e21 	svccc	0x00012e21
     7b8:	3a0e0319 	bcc	381424 <__bss_end__+0x376cbc>
     7bc:	270b3b0b 	strcs	r3, [fp, -fp, lsl #22]
     7c0:	3c134919 	ldccc	9, cr4, [r3], {25}
     7c4:	00130119 	andseq	r0, r3, r9, lsl r1
     7c8:	00182200 	andseq	r2, r8, r0, lsl #4
     7cc:	01000000 	mrseq	r0, (UNDEF: 0)
     7d0:	0e250111 	mcreq	1, 1, r0, cr5, cr1, {0}
     7d4:	0e030b13 	vmoveq.32	d3[0], r0
     7d8:	01110e1b 	tsteq	r1, fp, lsl lr
     7dc:	17100612 			; <UNDEFINED> instruction: 0x17100612
     7e0:	24020000 	strcs	r0, [r2], #-0
     7e4:	3e0b0b00 	vmlacc.f64	d0, d11, d0
     7e8:	0008030b 	andeq	r0, r8, fp, lsl #6
     7ec:	00240300 	eoreq	r0, r4, r0, lsl #6
     7f0:	0b3e0b0b 	bleq	f83424 <__bss_end__+0xf78cbc>
     7f4:	00000e03 	andeq	r0, r0, r3, lsl #28
     7f8:	0b000f04 	bleq	4410 <_start-0x3bf0>
     7fc:	0013490b 	andseq	r4, r3, fp, lsl #18
     800:	00260500 	eoreq	r0, r6, r0, lsl #10
     804:	00001349 	andeq	r1, r0, r9, asr #6
     808:	3f012e06 	svccc	0x00012e06
     80c:	3a0e0319 	bcc	381478 <__bss_end__+0x376d10>
     810:	270b3b0b 	strcs	r3, [fp, -fp, lsl #22]
     814:	12011119 	andne	r1, r1, #1073741830	; 0x40000006
     818:	97184006 	ldrls	r4, [r8, -r6]
     81c:	13011942 	movwne	r1, #6466	; 0x1942
     820:	89070000 	stmdbhi	r7, {}	; <UNPREDICTABLE>
     824:	11010182 	smlabbne	r1, r2, r1, r0
     828:	00130101 	andseq	r0, r3, r1, lsl #2
     82c:	828a0800 	addhi	r0, sl, #0, 16
     830:	18020001 	stmdane	r2, {r0}
     834:	00184291 	mulseq	r8, r1, r2
     838:	82890900 	addhi	r0, r9, #0, 18
     83c:	01110101 	tsteq	r1, r1, lsl #2
     840:	13011331 	movwne	r1, #4913	; 0x1331
     844:	890a0000 	stmdbhi	sl, {}	; <UNPREDICTABLE>
     848:	11000182 	smlabbne	r0, r2, r1, r0
     84c:	00133101 	andseq	r3, r3, r1, lsl #2
     850:	01150b00 	tsteq	r5, r0, lsl #22
     854:	13491927 	movtne	r1, #39207	; 0x9927
     858:	00001301 	andeq	r1, r0, r1, lsl #6
     85c:	4900050c 	stmdbmi	r0, {r2, r3, r8, sl}
     860:	0d000013 	stceq	0, cr0, [r0, #-76]	; 0xffffffb4
     864:	0e030034 	mcreq	0, 0, r0, cr3, cr4, {1}
     868:	0b3b0b3a 	bleq	ec3558 <__bss_end__+0xeb8df0>
     86c:	193f1349 	ldmdbne	pc!, {r0, r3, r6, r8, r9, ip}	; <UNPREDICTABLE>
     870:	0000193c 	andeq	r1, r0, ip, lsr r9
     874:	3f012e0e 	svccc	0x00012e0e
     878:	3a0e0319 	bcc	3814e4 <__bss_end__+0x376d7c>
     87c:	270b3b0b 	strcs	r3, [fp, -fp, lsl #22]
     880:	01193c19 	tsteq	r9, r9, lsl ip
     884:	0f000013 	svceq	0x00000013
     888:	193f002e 	ldmdbne	pc!, {r1, r2, r3, r5}	; <UNPREDICTABLE>
     88c:	0b3a0e03 	bleq	e840a0 <__bss_end__+0xe79938>
     890:	19270b3b 	stmdbne	r7!, {r0, r1, r3, r4, r5, r8, r9, fp}
     894:	0000193c 	andeq	r1, r0, ip, lsr r9
     898:	01110100 	tsteq	r1, r0, lsl #2
     89c:	0b130e25 	bleq	4c4138 <__bss_end__+0x4b99d0>
     8a0:	0e1b0e03 	cdpeq	14, 1, cr0, cr11, cr3, {0}
     8a4:	06120111 			; <UNDEFINED> instruction: 0x06120111
     8a8:	00001710 	andeq	r1, r0, r0, lsl r7
     8ac:	0b002402 	bleq	98bc <data_abort_vector+0x34>
     8b0:	030b3e0b 	movweq	r3, #48651	; 0xbe0b
     8b4:	03000008 	movweq	r0, #8
     8b8:	0b0b0024 	bleq	2c0950 <__bss_end__+0x2b61e8>
     8bc:	0e030b3e 	vmoveq.16	d3[0], r0
     8c0:	16040000 	strne	r0, [r4], -r0
     8c4:	3a0e0300 	bcc	3814cc <__bss_end__+0x376d64>
     8c8:	490b3b0b 	stmdbmi	fp, {r0, r1, r3, r8, r9, fp, ip, sp}
     8cc:	05000013 	streq	r0, [r0, #-19]
     8d0:	0b0b000f 	bleq	2c0914 <__bss_end__+0x2b61ac>
     8d4:	00001349 	andeq	r1, r0, r9, asr #6
     8d8:	49002606 	stmdbmi	r0, {r1, r2, r9, sl, sp}
     8dc:	07000013 	smladeq	r0, r3, r0, r0
     8e0:	0b0b0113 	bleq	2c0d34 <__bss_end__+0x2b65cc>
     8e4:	0b3b0b3a 	bleq	ec35d4 <__bss_end__+0xeb8e6c>
     8e8:	00001301 	andeq	r1, r0, r1, lsl #6
     8ec:	03000d08 	movweq	r0, #3336	; 0xd08
     8f0:	3b0b3a08 	blcc	2cf118 <__bss_end__+0x2c49b0>
     8f4:	3813490b 	ldmdacc	r3, {r0, r1, r3, r8, fp, lr}
     8f8:	0900000b 	stmdbeq	r0, {r0, r1, r3}
     8fc:	0e03000d 	cdpeq	0, 0, cr0, cr3, cr13, {0}
     900:	0b3b0b3a 	bleq	ec35f0 <__bss_end__+0xeb8e88>
     904:	0b381349 	bleq	e05630 <__bss_end__+0xdfaec8>
     908:	040a0000 	streq	r0, [sl], #-0
     90c:	3a0b0b01 	bcc	2c3518 <__bss_end__+0x2b8db0>
     910:	010b3b0b 	tsteq	fp, fp, lsl #22
     914:	0b000013 	bleq	968 <_start-0x7698>
     918:	0e030028 	cdpeq	0, 0, cr0, cr3, cr8, {1}
     91c:	00000d1c 	andeq	r0, r0, ip, lsl sp
     920:	03012e0c 	movweq	r2, #7692	; 0x1e0c
     924:	3b0b3a0e 	blcc	2cf164 <__bss_end__+0x2c49fc>
     928:	4919270b 	ldmdbmi	r9, {r0, r1, r3, r8, r9, sl, sp}
     92c:	12011113 	andne	r1, r1, #-1073741820	; 0xc0000004
     930:	97184006 	ldrls	r4, [r8, -r6]
     934:	13011942 	movwne	r1, #6466	; 0x1942
     938:	050d0000 	streq	r0, [sp, #-0]
     93c:	3a080300 	bcc	201544 <__bss_end__+0x1f6ddc>
     940:	490b3b0b 	stmdbmi	fp, {r0, r1, r3, r8, r9, fp, ip, sp}
     944:	00170213 	andseq	r0, r7, r3, lsl r2
     948:	82890e00 	addhi	r0, r9, #0, 28
     94c:	01110101 	tsteq	r1, r1, lsl #2
     950:	00001331 	andeq	r1, r0, r1, lsr r3
     954:	01828a0f 	orreq	r8, r2, pc, lsl #20
     958:	91180200 	tstls	r8, r0, lsl #4
     95c:	00001842 	andeq	r1, r0, r2, asr #16
     960:	3f012e10 	svccc	0x00012e10
     964:	3a0e0319 	bcc	3815d0 <__bss_end__+0x376e68>
     968:	110b3b0b 	tstne	fp, fp, lsl #22
     96c:	40061201 	andmi	r1, r6, r1, lsl #4
     970:	19429718 	stmdbne	r2, {r3, r4, r8, r9, sl, ip, pc}^
     974:	00001301 	andeq	r1, r0, r1, lsl #6
     978:	03003411 	movweq	r3, #1041	; 0x411
     97c:	3b0b3a0e 	blcc	2cf1bc <__bss_end__+0x2c4a54>
     980:	3f13490b 	svccc	0x0013490b
     984:	00193c19 	andseq	r3, r9, r9, lsl ip
     988:	002e1200 	eoreq	r1, lr, r0, lsl #4
     98c:	0e03193f 	mcreq	9, 0, r1, cr3, cr15, {1}
     990:	0b3b0b3a 	bleq	ec3680 <__bss_end__+0xeb8f18>
     994:	193c1927 	ldmdbne	ip!, {r0, r1, r2, r5, r8, fp, ip}
     998:	34130000 	ldrcc	r0, [r3], #-0
     99c:	3a080300 	bcc	2015a4 <__bss_end__+0x1f6e3c>
     9a0:	490b3b0b 	stmdbmi	fp, {r0, r1, r3, r8, r9, fp, ip, sp}
     9a4:	00170213 	andseq	r0, r7, r3, lsl r2
     9a8:	00341400 	eorseq	r1, r4, r0, lsl #8
     9ac:	0b3a0e03 	bleq	e841c0 <__bss_end__+0xe79a58>
     9b0:	13490b3b 	movtne	r0, #39739	; 0x9b3b
     9b4:	89150000 	ldmdbhi	r5, {}	; <UNPREDICTABLE>
     9b8:	11000182 	smlabbne	r0, r2, r1, r0
     9bc:	00133101 	andseq	r3, r3, r1, lsl #2
     9c0:	82891600 	addhi	r1, r9, #0, 12
     9c4:	01110101 	tsteq	r1, r1, lsl #2
     9c8:	13011331 	movwne	r1, #4913	; 0x1331
     9cc:	34170000 	ldrcc	r0, [r7], #-0
     9d0:	3a0e0300 	bcc	3815d8 <__bss_end__+0x376e70>
     9d4:	490b3b0b 	stmdbmi	fp, {r0, r1, r3, r8, r9, fp, ip, sp}
     9d8:	00180213 	andseq	r0, r8, r3, lsl r2
     9dc:	01151800 	tsteq	r5, r0, lsl #16
     9e0:	13491927 	movtne	r1, #39207	; 0x9927
     9e4:	00001301 	andeq	r1, r0, r1, lsl #6
     9e8:	49000519 	stmdbmi	r0, {r0, r3, r4, r8, sl}
     9ec:	1a000013 	bne	a40 <_start-0x75c0>
     9f0:	193f012e 	ldmdbne	pc!, {r1, r2, r3, r5, r8}	; <UNPREDICTABLE>
     9f4:	0b3a0e03 	bleq	e84208 <__bss_end__+0xe79aa0>
     9f8:	19270b3b 	stmdbne	r7!, {r0, r1, r3, r4, r5, r8, r9, fp}
     9fc:	1301193c 	movwne	r1, #6460	; 0x193c
     a00:	2e1b0000 	cdpcs	0, 1, cr0, cr11, cr0, {0}
     a04:	03193f00 	tsteq	r9, #0, 30
     a08:	3b0b3a0e 	blcc	2cf248 <__bss_end__+0x2c4ae0>
     a0c:	4919270b 	ldmdbmi	r9, {r0, r1, r3, r8, r9, sl, sp}
     a10:	00193c13 	andseq	r3, r9, r3, lsl ip
     a14:	012e1c00 	teqeq	lr, r0, lsl #24
     a18:	0e03193f 	mcreq	9, 0, r1, cr3, cr15, {1}
     a1c:	0b3b0b3a 	bleq	ec370c <__bss_end__+0xeb8fa4>
     a20:	13491927 	movtne	r1, #39207	; 0x9927
     a24:	1301193c 	movwne	r1, #6460	; 0x193c
     a28:	181d0000 	ldmdane	sp, {}	; <UNPREDICTABLE>
     a2c:	00000000 	andeq	r0, r0, r0
     a30:	25011101 	strcs	r1, [r1, #-257]	; 0x101
     a34:	030b130e 	movweq	r1, #45838	; 0xb30e
     a38:	550e1b0e 	strpl	r1, [lr, #-2830]	; 0xb0e
     a3c:	10011117 	andne	r1, r1, r7, lsl r1
     a40:	02000017 	andeq	r0, r0, #23
     a44:	0b0b0024 	bleq	2c0adc <__bss_end__+0x2b6374>
     a48:	08030b3e 	stmdaeq	r3, {r1, r2, r3, r4, r5, r8, r9, fp}
     a4c:	24030000 	strcs	r0, [r3], #-0
     a50:	3e0b0b00 	vmlacc.f64	d0, d11, d0
     a54:	000e030b 	andeq	r0, lr, fp, lsl #6
     a58:	012e0400 	teqeq	lr, r0, lsl #8
     a5c:	0e03193f 	mcreq	9, 0, r1, cr3, cr15, {1}
     a60:	0b3b0b3a 	bleq	ec3750 <__bss_end__+0xeb8fe8>
     a64:	13491927 	movtne	r1, #39207	; 0x9927
     a68:	06120111 			; <UNDEFINED> instruction: 0x06120111
     a6c:	42971840 	addsmi	r1, r7, #64, 16	; 0x400000
     a70:	00130119 	andseq	r0, r3, r9, lsl r1
     a74:	00340500 	eorseq	r0, r4, r0, lsl #10
     a78:	0b3a0e03 	bleq	e8428c <__bss_end__+0xe79b24>
     a7c:	13490b3b 	movtne	r0, #39739	; 0x9b3b
     a80:	00001702 	andeq	r1, r0, r2, lsl #14
     a84:	3f012e06 	svccc	0x00012e06
     a88:	3a0e0319 	bcc	3816f4 <__bss_end__+0x376f8c>
     a8c:	270b3b0b 	strcs	r3, [fp, -fp, lsl #22]
     a90:	12011119 	andne	r1, r1, #1073741830	; 0x40000006
     a94:	97184006 	ldrls	r4, [r8, -r6]
     a98:	13011942 	movwne	r1, #6466	; 0x1942
     a9c:	34070000 	strcc	r0, [r7], #-0
     aa0:	3a0e0300 	bcc	3816a8 <__bss_end__+0x376f40>
     aa4:	490b3b0b 	stmdbmi	fp, {r0, r1, r3, r8, r9, fp, ip, sp}
     aa8:	00061c13 	andeq	r1, r6, r3, lsl ip
     aac:	00340800 	eorseq	r0, r4, r0, lsl #16
     ab0:	0b3a0e03 	bleq	e842c4 <__bss_end__+0xe79b5c>
     ab4:	13490b3b 	movtne	r0, #39739	; 0x9b3b
     ab8:	00000b1c 	andeq	r0, r0, ip, lsl fp
     abc:	01828909 	orreq	r8, r2, r9, lsl #18
     ac0:	31011100 	mrscc	r1, (UNDEF: 17)
     ac4:	0a000013 	beq	b18 <_start-0x74e8>
     ac8:	01018289 	smlabbeq	r1, r9, r2, r8
     acc:	13310111 	teqne	r1, #1073741828	; 0x40000004
     ad0:	00001301 	andeq	r1, r0, r1, lsl #6
     ad4:	01828a0b 	orreq	r8, r2, fp, lsl #20
     ad8:	91180200 	tstls	r8, r0, lsl #4
     adc:	00001842 	andeq	r1, r0, r2, asr #16
     ae0:	0182890c 	orreq	r8, r2, ip, lsl #18
     ae4:	31011101 	tstcc	r1, r1, lsl #2
     ae8:	0d000013 	stceq	0, cr0, [r0, #-76]	; 0xffffffb4
     aec:	13490026 	movtne	r0, #36902	; 0x9026
     af0:	2e0e0000 	cdpcs	0, 0, cr0, cr14, cr0, {0}
     af4:	03193f01 	tsteq	r9, #1, 30
     af8:	3b0b3a0e 	blcc	2cf338 <__bss_end__+0x2c4bd0>
     afc:	3c19270b 	ldccc	7, cr2, [r9], {11}
     b00:	00130119 	andseq	r0, r3, r9, lsl r1
     b04:	00050f00 	andeq	r0, r5, r0, lsl #30
     b08:	00001349 	andeq	r1, r0, r9, asr #6
     b0c:	3f012e10 	svccc	0x00012e10
     b10:	3a0e0319 	bcc	38177c <__bss_end__+0x377014>
     b14:	270b3b0b 	strcs	r3, [fp, -fp, lsl #22]
     b18:	00193c19 	andseq	r3, r9, r9, lsl ip
     b1c:	11010000 	mrsne	r0, (UNDEF: 1)
     b20:	130e2501 	movwne	r2, #58625	; 0xe501
     b24:	1b0e030b 	blne	381758 <__bss_end__+0x376ff0>
     b28:	1201110e 	andne	r1, r1, #-2147483645	; 0x80000003
     b2c:	00171006 	andseq	r1, r7, r6
     b30:	00240200 	eoreq	r0, r4, r0, lsl #4
     b34:	0b3e0b0b 	bleq	f83768 <__bss_end__+0xf79000>
     b38:	00000803 	andeq	r0, r0, r3, lsl #16
     b3c:	0b002403 	bleq	9b50 <__FUNCTION__.4442+0x10>
     b40:	030b3e0b 	movweq	r3, #48651	; 0xbe0b
     b44:	0400000e 	streq	r0, [r0], #-14
     b48:	193f012e 	ldmdbne	pc!, {r1, r2, r3, r5, r8}	; <UNPREDICTABLE>
     b4c:	0b3a0e03 	bleq	e84360 <__bss_end__+0xe79bf8>
     b50:	19270b3b 	stmdbne	r7!, {r0, r1, r3, r4, r5, r8, r9, fp}
     b54:	06120111 			; <UNDEFINED> instruction: 0x06120111
     b58:	42971840 	addsmi	r1, r7, #64, 16	; 0x400000
     b5c:	00130119 	andseq	r0, r3, r9, lsl r1
     b60:	00050500 	andeq	r0, r5, r0, lsl #10
     b64:	0b3a0e03 	bleq	e84378 <__bss_end__+0xe79c10>
     b68:	13490b3b 	movtne	r0, #39739	; 0x9b3b
     b6c:	00001702 	andeq	r1, r0, r2, lsl #14
     b70:	3f012e06 	svccc	0x00012e06
     b74:	3a0e0319 	bcc	3817e0 <__bss_end__+0x377078>
     b78:	270b3b0b 	strcs	r3, [fp, -fp, lsl #22]
     b7c:	11134919 	tstne	r3, r9, lsl r9
     b80:	40061201 	andmi	r1, r6, r1, lsl #4
     b84:	19429718 	stmdbne	r2, {r3, r4, r8, r9, sl, ip, pc}^
     b88:	00001301 	andeq	r1, r0, r1, lsl #6
     b8c:	01828907 	orreq	r8, r2, r7, lsl #18
     b90:	31011101 	tstcc	r1, r1, lsl #2
     b94:	08000013 	stmdaeq	r0, {r0, r1, r4}
     b98:	0001828a 	andeq	r8, r1, sl, lsl #5
     b9c:	42911802 	addsmi	r1, r1, #131072	; 0x20000
     ba0:	09000018 	stmdbeq	r0, {r3, r4}
     ba4:	08030034 	stmdaeq	r3, {r2, r4, r5}
     ba8:	0b3b0b3a 	bleq	ec3898 <__bss_end__+0xeb9130>
     bac:	18021349 	stmdane	r2, {r0, r3, r6, r8, r9, ip}
     bb0:	890a0000 	stmdbhi	sl, {}	; <UNPREDICTABLE>
     bb4:	11000182 	smlabbne	r0, r2, r1, r0
     bb8:	00133101 	andseq	r3, r3, r1, lsl #2
     bbc:	00050b00 	andeq	r0, r5, r0, lsl #22
     bc0:	0b3a0803 	bleq	e82bd4 <__bss_end__+0xe7846c>
     bc4:	13490b3b 	movtne	r0, #39739	; 0x9b3b
     bc8:	00001702 	andeq	r1, r0, r2, lsl #14
     bcc:	11010b0c 	tstne	r1, ip, lsl #22
     bd0:	01061201 	tsteq	r6, r1, lsl #4
     bd4:	0d000013 	stceq	0, cr0, [r0, #-76]	; 0xffffffb4
     bd8:	08030034 	stmdaeq	r3, {r2, r4, r5}
     bdc:	0b3b0b3a 	bleq	ec38cc <__bss_end__+0xeb9164>
     be0:	17021349 	strne	r1, [r2, -r9, asr #6]
     be4:	2e0e0000 	cdpcs	0, 0, cr0, cr14, cr0, {0}
     be8:	03193f01 	tsteq	r9, #1, 30
     bec:	3b0b3a0e 	blcc	2cf42c <__bss_end__+0x2c4cc4>
     bf0:	4919270b 	ldmdbmi	r9, {r0, r1, r3, r8, r9, sl, sp}
     bf4:	00193c13 	andseq	r3, r9, r3, lsl ip
     bf8:	00050f00 	andeq	r0, r5, r0, lsl #30
     bfc:	00001349 	andeq	r1, r0, r9, asr #6
     c00:	01110100 	tsteq	r1, r0, lsl #2
     c04:	0b130e25 	bleq	4c44a0 <__bss_end__+0x4b9d38>
     c08:	0e1b0e03 	cdpeq	14, 1, cr0, cr11, cr3, {0}
     c0c:	06120111 			; <UNDEFINED> instruction: 0x06120111
     c10:	00001710 	andeq	r1, r0, r0, lsl r7
     c14:	0b002402 	bleq	9c24 <__FUNCTION__.4500+0x98>
     c18:	030b3e0b 	movweq	r3, #48651	; 0xbe0b
     c1c:	0300000e 	movweq	r0, #14
     c20:	0b0b0024 	bleq	2c0cb8 <__bss_end__+0x2b6550>
     c24:	08030b3e 	stmdaeq	r3, {r1, r2, r3, r4, r5, r8, r9, fp}
     c28:	04040000 	streq	r0, [r4], #-0
     c2c:	3a0b0b01 	bcc	2c3838 <__bss_end__+0x2b90d0>
     c30:	010b3b0b 	tsteq	fp, fp, lsl #22
     c34:	05000013 	streq	r0, [r0, #-19]
     c38:	0e030028 	cdpeq	0, 0, cr0, cr3, cr8, {1}
     c3c:	00000d1c 	andeq	r0, r0, ip, lsl sp
     c40:	03001606 	movweq	r1, #1542	; 0x606
     c44:	3b0b3a0e 	blcc	2cf484 <__bss_end__+0x2c4d1c>
     c48:	0013490b 	andseq	r4, r3, fp, lsl #18
     c4c:	012e0700 	teqeq	lr, r0, lsl #14
     c50:	0e03193f 	mcreq	9, 0, r1, cr3, cr15, {1}
     c54:	0b3b0b3a 	bleq	ec3944 <__bss_end__+0xeb91dc>
     c58:	01111927 	tsteq	r1, r7, lsr #18
     c5c:	18400612 	stmdane	r0, {r1, r4, r9, sl}^
     c60:	01194297 			; <UNDEFINED> instruction: 0x01194297
     c64:	08000013 	stmdaeq	r0, {r0, r1, r4}
     c68:	08030005 	stmdaeq	r3, {r0, r2}
     c6c:	0b3b0b3a 	bleq	ec395c <__bss_end__+0xeb91f4>
     c70:	17021349 	strne	r1, [r2, -r9, asr #6]
     c74:	34090000 	strcc	r0, [r9], #-0
     c78:	3a0e0300 	bcc	381880 <__bss_end__+0x377118>
     c7c:	490b3b0b 	stmdbmi	fp, {r0, r1, r3, r8, r9, fp, ip, sp}
     c80:	00170213 	andseq	r0, r7, r3, lsl r2
     c84:	82890a00 	addhi	r0, r9, #0, 20
     c88:	01110101 	tsteq	r1, r1, lsl #2
     c8c:	13011331 	movwne	r1, #4913	; 0x1331
     c90:	8a0b0000 	bhi	2c0c98 <__bss_end__+0x2b6530>
     c94:	02000182 	andeq	r0, r0, #-2147483616	; 0x80000020
     c98:	18429118 	stmdane	r2, {r3, r4, r8, ip, pc}^
     c9c:	890c0000 	stmdbhi	ip, {}	; <UNPREDICTABLE>
     ca0:	11010182 	smlabbne	r1, r2, r1, r0
     ca4:	00133101 	andseq	r3, r3, r1, lsl #2
     ca8:	000f0d00 	andeq	r0, pc, r0, lsl #26
     cac:	13490b0b 	movtne	r0, #39691	; 0x9b0b
     cb0:	350e0000 	strcc	r0, [lr, #-0]
     cb4:	00134900 	andseq	r4, r3, r0, lsl #18
     cb8:	012e0f00 	teqeq	lr, r0, lsl #30
     cbc:	0e03193f 	mcreq	9, 0, r1, cr3, cr15, {1}
     cc0:	0b3b0b3a 	bleq	ec39b0 <__bss_end__+0xeb9248>
     cc4:	0b201927 	bleq	807168 <__bss_end__+0x7fca00>
     cc8:	00001301 	andeq	r1, r0, r1, lsl #6
     ccc:	03000510 	movweq	r0, #1296	; 0x510
     cd0:	3b0b3a08 	blcc	2cf4f8 <__bss_end__+0x2c4d90>
     cd4:	0013490b 	andseq	r4, r3, fp, lsl #18
     cd8:	00341100 	eorseq	r1, r4, r0, lsl #2
     cdc:	0b3a0e03 	bleq	e844f0 <__bss_end__+0xe79d88>
     ce0:	13490b3b 	movtne	r0, #39739	; 0x9b3b
     ce4:	2e120000 	cdpcs	0, 1, cr0, cr2, cr0, {0}
     ce8:	11133101 	tstne	r3, r1, lsl #2
     cec:	40061201 	andmi	r1, r6, r1, lsl #4
     cf0:	19429718 	stmdbne	r2, {r3, r4, r8, r9, sl, ip, pc}^
     cf4:	00001301 	andeq	r1, r0, r1, lsl #6
     cf8:	31000513 	tstcc	r0, r3, lsl r5
     cfc:	00170213 	andseq	r0, r7, r3, lsl r2
     d00:	00341400 	eorseq	r1, r4, r0, lsl #8
     d04:	17021331 	smladxne	r2, r1, r3, r1
     d08:	2e150000 	cdpcs	0, 1, cr0, cr5, cr0, {0}
     d0c:	03193f01 	tsteq	r9, #1, 30
     d10:	3b0b3a0e 	blcc	2cf550 <__bss_end__+0x2c4de8>
     d14:	4919270b 	ldmdbmi	r9, {r0, r1, r3, r8, r9, sl, sp}
     d18:	12011113 	andne	r1, r1, #-1073741820	; 0xc0000004
     d1c:	97184006 	ldrls	r4, [r8, -r6]
     d20:	13011942 	movwne	r1, #6466	; 0x1942
     d24:	34160000 	ldrcc	r0, [r6], #-0
     d28:	3a080300 	bcc	201930 <__bss_end__+0x1f71c8>
     d2c:	490b3b0b 	stmdbmi	fp, {r0, r1, r3, r8, r9, fp, ip, sp}
     d30:	00170213 	andseq	r0, r7, r3, lsl r2
     d34:	82891700 	addhi	r1, r9, #0, 14
     d38:	01110001 	tsteq	r1, r1
     d3c:	00001331 	andeq	r1, r0, r1, lsr r3
     d40:	31011d18 	tstcc	r1, r8, lsl sp
     d44:	12011113 	andne	r1, r1, #-1073741820	; 0xc0000004
     d48:	590b5806 	stmdbpl	fp, {r1, r2, fp, ip, lr}
     d4c:	0013010b 	andseq	r0, r3, fp, lsl #2
     d50:	010b1900 	tsteq	fp, r0, lsl #18
     d54:	06120111 			; <UNDEFINED> instruction: 0x06120111
     d58:	1d1a0000 	ldcne	0, cr0, [sl, #-0]
     d5c:	11133101 	tstne	r3, r1, lsl #2
     d60:	58061201 	stmdapl	r6, {r0, r9, ip}
     d64:	000b590b 	andeq	r5, fp, fp, lsl #18
     d68:	00051b00 	andeq	r1, r5, r0, lsl #22
     d6c:	0b3a0e03 	bleq	e84580 <__bss_end__+0xe79e18>
     d70:	13490b3b 	movtne	r0, #39739	; 0x9b3b
     d74:	00001702 	andeq	r1, r0, r2, lsl #14
     d78:	3f012e1c 	svccc	0x00012e1c
     d7c:	3a0e0319 	bcc	3819e8 <__bss_end__+0x377280>
     d80:	27053b0b 	strcs	r3, [r5, -fp, lsl #22]
     d84:	11134919 	tstne	r3, r9, lsl r9
     d88:	40061201 	andmi	r1, r6, r1, lsl #4
     d8c:	19429718 	stmdbne	r2, {r3, r4, r8, r9, sl, ip, pc}^
     d90:	00001301 	andeq	r1, r0, r1, lsl #6
     d94:	0300051d 	movweq	r0, #1309	; 0x51d
     d98:	3b0b3a0e 	blcc	2cf5d8 <__bss_end__+0x2c4e70>
     d9c:	02134905 	andseq	r4, r3, #81920	; 0x14000
     da0:	1e000017 	mcrne	0, 0, r0, cr0, cr7, {0}
     da4:	193f012e 	ldmdbne	pc!, {r1, r2, r3, r5, r8}	; <UNPREDICTABLE>
     da8:	0b3a0e03 	bleq	e845bc <__bss_end__+0xe79e54>
     dac:	1927053b 	stmdbne	r7!, {r0, r1, r3, r4, r5, r8, sl}
     db0:	06120111 			; <UNDEFINED> instruction: 0x06120111
     db4:	42971840 	addsmi	r1, r7, #64, 16	; 0x400000
     db8:	00130119 	andseq	r0, r3, r9, lsl r1
     dbc:	00051f00 	andeq	r1, r5, r0, lsl #30
     dc0:	0b3a0803 	bleq	e82dd4 <__bss_end__+0xe7866c>
     dc4:	1349053b 	movtne	r0, #38203	; 0x953b
     dc8:	00001702 	andeq	r1, r0, r2, lsl #14
     dcc:	03003420 	movweq	r3, #1056	; 0x420
     dd0:	3b0b3a0e 	blcc	2cf610 <__bss_end__+0x2c4ea8>
     dd4:	02134905 	andseq	r4, r3, #81920	; 0x14000
     dd8:	21000017 	tstcs	r0, r7, lsl r0
     ddc:	0111010b 	tsteq	r1, fp, lsl #2
     de0:	13010612 	movwne	r0, #5650	; 0x1612
     de4:	34220000 	strtcc	r0, [r2], #-0
     de8:	3a0e0300 	bcc	3819f0 <__bss_end__+0x377288>
     dec:	490b3b0b 	stmdbmi	fp, {r0, r1, r3, r8, r9, fp, ip, sp}
     df0:	02193f13 	andseq	r3, r9, #19, 30	; 0x4c
     df4:	23000018 	movwcs	r0, #24
     df8:	193f012e 	ldmdbne	pc!, {r1, r2, r3, r5, r8}	; <UNPREDICTABLE>
     dfc:	0b3a0e03 	bleq	e84610 <__bss_end__+0xe79ea8>
     e00:	19270b3b 	stmdbne	r7!, {r0, r1, r3, r4, r5, r8, r9, fp}
     e04:	193c1349 	ldmdbne	ip!, {r0, r3, r6, r8, r9, ip}
     e08:	00001301 	andeq	r1, r0, r1, lsl #6
     e0c:	49000524 	stmdbmi	r0, {r2, r5, r8, sl}
     e10:	25000013 	strcs	r0, [r0, #-19]
     e14:	13490026 	movtne	r0, #36902	; 0x9026
     e18:	35260000 	strcc	r0, [r6, #-0]!
     e1c:	27000000 	strcs	r0, [r0, -r0]
     e20:	193f012e 	ldmdbne	pc!, {r1, r2, r3, r5, r8}	; <UNPREDICTABLE>
     e24:	0b3a0e03 	bleq	e84638 <__bss_end__+0xe79ed0>
     e28:	19270b3b 	stmdbne	r7!, {r0, r1, r3, r4, r5, r8, r9, fp}
     e2c:	1301193c 	movwne	r1, #6460	; 0x193c
     e30:	2e280000 	cdpcs	0, 2, cr0, cr8, cr0, {0}
     e34:	03193f00 	tsteq	r9, #0, 30
     e38:	3b0b3a0e 	blcc	2cf678 <__bss_end__+0x2c4f10>
     e3c:	3c19270b 	ldccc	7, cr2, [r9], {11}
     e40:	00000019 	andeq	r0, r0, r9, lsl r0
     e44:	25011101 	strcs	r1, [r1, #-257]	; 0x101
     e48:	030b130e 	movweq	r1, #45838	; 0xb30e
     e4c:	110e1b0e 	tstne	lr, lr, lsl #22
     e50:	10061201 	andne	r1, r6, r1, lsl #4
     e54:	02000017 	andeq	r0, r0, #23
     e58:	0b0b0024 	bleq	2c0ef0 <__bss_end__+0x2b6788>
     e5c:	08030b3e 	stmdaeq	r3, {r1, r2, r3, r4, r5, r8, r9, fp}
     e60:	24030000 	strcs	r0, [r3], #-0
     e64:	3e0b0b00 	vmlacc.f64	d0, d11, d0
     e68:	000e030b 	andeq	r0, lr, fp, lsl #6
     e6c:	01040400 	tsteq	r4, r0, lsl #8
     e70:	0b3a0b0b 	bleq	e83aa4 <__bss_end__+0xe7933c>
     e74:	13010b3b 	movwne	r0, #6971	; 0x1b3b
     e78:	28050000 	stmdacs	r5, {}	; <UNPREDICTABLE>
     e7c:	1c0e0300 	stcne	3, cr0, [lr], {-0}
     e80:	0600000d 	streq	r0, [r0], -sp
     e84:	0e030016 	mcreq	0, 0, r0, cr3, cr6, {0}
     e88:	0b3b0b3a 	bleq	ec3b78 <__bss_end__+0xeb9410>
     e8c:	00001349 	andeq	r1, r0, r9, asr #6
     e90:	3f012e07 	svccc	0x00012e07
     e94:	3a0e0319 	bcc	381b00 <__bss_end__+0x377398>
     e98:	270b3b0b 	strcs	r3, [fp, -fp, lsl #22]
     e9c:	12011119 	andne	r1, r1, #1073741830	; 0x40000006
     ea0:	97184006 	ldrls	r4, [r8, -r6]
     ea4:	13011942 	movwne	r1, #6466	; 0x1942
     ea8:	89080000 	stmdbhi	r8, {}	; <UNPREDICTABLE>
     eac:	11000182 	smlabbne	r0, r2, r1, r0
     eb0:	00133101 	andseq	r3, r3, r1, lsl #2
     eb4:	82890900 	addhi	r0, r9, #0, 18
     eb8:	01110101 	tsteq	r1, r1, lsl #2
     ebc:	13011331 	movwne	r1, #4913	; 0x1331
     ec0:	8a0a0000 	bhi	280ec8 <__bss_end__+0x276760>
     ec4:	02000182 	andeq	r0, r0, #-2147483616	; 0x80000020
     ec8:	18429118 	stmdane	r2, {r3, r4, r8, ip, pc}^
     ecc:	2e0b0000 	cdpcs	0, 0, cr0, cr11, cr0, {0}
     ed0:	03193f01 	tsteq	r9, #1, 30
     ed4:	3b0b3a0e 	blcc	2cf714 <__bss_end__+0x2c4fac>
     ed8:	4919270b 	ldmdbmi	r9, {r0, r1, r3, r8, r9, sl, sp}
     edc:	12011113 	andne	r1, r1, #-1073741820	; 0xc0000004
     ee0:	97184006 	ldrls	r4, [r8, -r6]
     ee4:	13011942 	movwne	r1, #6466	; 0x1942
     ee8:	050c0000 	streq	r0, [ip, #-0]
     eec:	3a080300 	bcc	201af4 <__bss_end__+0x1f738c>
     ef0:	490b3b0b 	stmdbmi	fp, {r0, r1, r3, r8, r9, fp, ip, sp}
     ef4:	00170213 	andseq	r0, r7, r3, lsl r2
     ef8:	82890d00 	addhi	r0, r9, #0, 26
     efc:	01110101 	tsteq	r1, r1, lsl #2
     f00:	00001331 	andeq	r1, r0, r1, lsr r3
     f04:	0300340e 	movweq	r3, #1038	; 0x40e
     f08:	3b0b3a0e 	blcc	2cf748 <__bss_end__+0x2c4fe0>
     f0c:	3f13490b 	svccc	0x0013490b
     f10:	00180219 	andseq	r0, r8, r9, lsl r2
     f14:	000f0f00 	andeq	r0, pc, r0, lsl #30
     f18:	13490b0b 	movtne	r0, #39691	; 0x9b0b
     f1c:	35100000 	ldrcc	r0, [r0, #-0]
     f20:	00134900 	andseq	r4, r3, r0, lsl #18
     f24:	002e1100 	eoreq	r1, lr, r0, lsl #2
     f28:	0e03193f 	mcreq	9, 0, r1, cr3, cr15, {1}
     f2c:	0b3b0b3a 	bleq	ec3c1c <__bss_end__+0xeb94b4>
     f30:	193c1927 	ldmdbne	ip!, {r0, r1, r2, r5, r8, fp, ip}
     f34:	2e120000 	cdpcs	0, 1, cr0, cr2, cr0, {0}
     f38:	03193f01 	tsteq	r9, #1, 30
     f3c:	3b0b3a0e 	blcc	2cf77c <__bss_end__+0x2c5014>
     f40:	3c19270b 	ldccc	7, cr2, [r9], {11}
     f44:	00130119 	andseq	r0, r3, r9, lsl r1
     f48:	00051300 	andeq	r1, r5, r0, lsl #6
     f4c:	00001349 	andeq	r1, r0, r9, asr #6
     f50:	3f012e14 	svccc	0x00012e14
     f54:	3a0e0319 	bcc	381bc0 <__bss_end__+0x377458>
     f58:	270b3b0b 	strcs	r3, [fp, -fp, lsl #22]
     f5c:	3c134919 	ldccc	9, cr4, [r3], {25}
     f60:	00130119 	andseq	r0, r3, r9, lsl r1
     f64:	00261500 	eoreq	r1, r6, r0, lsl #10
     f68:	00001349 	andeq	r1, r0, r9, asr #6
     f6c:	00003516 	andeq	r3, r0, r6, lsl r5
     f70:	11010000 	mrsne	r0, (UNDEF: 1)
     f74:	130e2501 	movwne	r2, #58625	; 0xe501
     f78:	1b0e030b 	blne	381bac <__bss_end__+0x377444>
     f7c:	1201110e 	andne	r1, r1, #-2147483645	; 0x80000003
     f80:	00171006 	andseq	r1, r7, r6
     f84:	00240200 	eoreq	r0, r4, r0, lsl #4
     f88:	0b3e0b0b 	bleq	f83bbc <__bss_end__+0xf79454>
     f8c:	00000803 	andeq	r0, r0, r3, lsl #16
     f90:	0b002403 	bleq	9fa4 <buf.4164+0x50>
     f94:	030b3e0b 	movweq	r3, #48651	; 0xbe0b
     f98:	0400000e 	streq	r0, [r0], #-14
     f9c:	0b0b000f 	bleq	2c0fe0 <__bss_end__+0x2b6878>
     fa0:	00001349 	andeq	r1, r0, r9, asr #6
     fa4:	49002605 	stmdbmi	r0, {r0, r2, r9, sl, sp}
     fa8:	06000013 			; <UNDEFINED> instruction: 0x06000013
     fac:	13490101 	movtne	r0, #37121	; 0x9101
     fb0:	00001301 	andeq	r1, r0, r1, lsl #6
     fb4:	49002107 	stmdbmi	r0, {r0, r1, r2, r8, sp}
     fb8:	000b2f13 	andeq	r2, fp, r3, lsl pc
     fbc:	01040800 	tsteq	r4, r0, lsl #16
     fc0:	0b3a0b0b 	bleq	e83bf4 <__bss_end__+0xe7948c>
     fc4:	13010b3b 	movwne	r0, #6971	; 0x1b3b
     fc8:	28090000 	stmdacs	r9, {}	; <UNPREDICTABLE>
     fcc:	1c0e0300 	stcne	3, cr0, [lr], {-0}
     fd0:	0a00000d 	beq	100c <_start-0x6ff4>
     fd4:	193f012e 	ldmdbne	pc!, {r1, r2, r3, r5, r8}	; <UNPREDICTABLE>
     fd8:	0b3a0e03 	bleq	e847ec <__bss_end__+0xe7a084>
     fdc:	19270b3b 	stmdbne	r7!, {r0, r1, r3, r4, r5, r8, r9, fp}
     fe0:	06120111 			; <UNDEFINED> instruction: 0x06120111
     fe4:	42971840 	addsmi	r1, r7, #64, 16	; 0x400000
     fe8:	00130119 	andseq	r0, r3, r9, lsl r1
     fec:	00340b00 	eorseq	r0, r4, r0, lsl #22
     ff0:	0b3a0e03 	bleq	e84804 <__bss_end__+0xe7a09c>
     ff4:	13490b3b 	movtne	r0, #39739	; 0x9b3b
     ff8:	193c193f 	ldmdbne	ip!, {r0, r1, r2, r3, r4, r5, r8, fp, ip}
     ffc:	340c0000 	strcc	r0, [ip], #-0
    1000:	3a080300 	bcc	201c08 <__bss_end__+0x1f74a0>
    1004:	490b3b0b 	stmdbmi	fp, {r0, r1, r3, r8, r9, fp, ip, sp}
    1008:	000b1c13 	andeq	r1, fp, r3, lsl ip
    100c:	00340d00 	eorseq	r0, r4, r0, lsl #26
    1010:	0b3a0803 	bleq	e83024 <__bss_end__+0xe788bc>
    1014:	13490b3b 	movtne	r0, #39739	; 0x9b3b
    1018:	340e0000 	strcc	r0, [lr], #-0
    101c:	3a080300 	bcc	201c24 <__bss_end__+0x1f74bc>
    1020:	490b3b0b 	stmdbmi	fp, {r0, r1, r3, r8, r9, fp, ip, sp}
    1024:	00180213 	andseq	r0, r8, r3, lsl r2
    1028:	010b0f00 	tsteq	fp, r0, lsl #30
    102c:	06120111 			; <UNDEFINED> instruction: 0x06120111
    1030:	00001301 	andeq	r1, r0, r1, lsl #6
    1034:	03003410 	movweq	r3, #1040	; 0x410
    1038:	3b0b3a08 	blcc	2cf860 <__bss_end__+0x2c50f8>
    103c:	0213490b 	andseq	r4, r3, #180224	; 0x2c000
    1040:	11000017 	tstne	r0, r7, lsl r0
    1044:	01018289 	smlabbeq	r1, r9, r2, r8
    1048:	13310111 	teqne	r1, #1073741828	; 0x40000004
    104c:	00001301 	andeq	r1, r0, r1, lsl #6
    1050:	01828a12 	orreq	r8, r2, r2, lsl sl
    1054:	91180200 	tstls	r8, r0, lsl #4
    1058:	00001842 	andeq	r1, r0, r2, asr #16
    105c:	01828913 	orreq	r8, r2, r3, lsl r9
    1060:	31011100 	mrscc	r1, (UNDEF: 17)
    1064:	14000013 	strne	r0, [r0], #-19
    1068:	08030005 	stmdaeq	r3, {r0, r2}
    106c:	0b3b0b3a 	bleq	ec3d5c <__bss_end__+0xeb95f4>
    1070:	17021349 	strne	r1, [r2, -r9, asr #6]
    1074:	34150000 	ldrcc	r0, [r5], #-0
    1078:	490e0300 	stmdbmi	lr, {r8, r9}
    107c:	02193413 	andseq	r3, r9, #318767104	; 0x13000000
    1080:	16000018 			; <UNDEFINED> instruction: 0x16000018
    1084:	193f012e 	ldmdbne	pc!, {r1, r2, r3, r5, r8}	; <UNPREDICTABLE>
    1088:	0b3a0e03 	bleq	e8489c <__bss_end__+0xe7a134>
    108c:	19270b3b 	stmdbne	r7!, {r0, r1, r3, r4, r5, r8, r9, fp}
    1090:	1301193c 	movwne	r1, #6460	; 0x193c
    1094:	05170000 	ldreq	r0, [r7, #-0]
    1098:	00134900 	andseq	r4, r3, r0, lsl #18
    109c:	002e1800 	eoreq	r1, lr, r0, lsl #16
    10a0:	0e03193f 	mcreq	9, 0, r1, cr3, cr15, {1}
    10a4:	0b3b0b3a 	bleq	ec3d94 <__bss_end__+0xeb962c>
    10a8:	193c1927 	ldmdbne	ip!, {r0, r1, r2, r5, r8, fp, ip}
    10ac:	2e190000 	cdpcs	0, 1, cr0, cr9, cr0, {0}
    10b0:	03193f01 	tsteq	r9, #1, 30
    10b4:	3b0b3a0e 	blcc	2cf8f4 <__bss_end__+0x2c518c>
    10b8:	4919270b 	ldmdbmi	r9, {r0, r1, r3, r8, r9, sl, sp}
    10bc:	01193c13 	tsteq	r9, r3, lsl ip
    10c0:	1a000013 	bne	1114 <_start-0x6eec>
    10c4:	00000018 	andeq	r0, r0, r8, lsl r0
    10c8:	01110100 	tsteq	r1, r0, lsl #2
    10cc:	0b130e25 	bleq	4c4968 <__bss_end__+0x4ba200>
    10d0:	0e1b0e03 	cdpeq	14, 1, cr0, cr11, cr3, {0}
    10d4:	06120111 			; <UNDEFINED> instruction: 0x06120111
    10d8:	00001710 	andeq	r1, r0, r0, lsl r7
    10dc:	0b002402 	bleq	a0ec <buf.4164+0x198>
    10e0:	030b3e0b 	movweq	r3, #48651	; 0xbe0b
    10e4:	03000008 	movweq	r0, #8
    10e8:	0e030016 	mcreq	0, 0, r0, cr3, cr6, {0}
    10ec:	0b3b0b3a 	bleq	ec3ddc <__bss_end__+0xeb9674>
    10f0:	00001349 	andeq	r1, r0, r9, asr #6
    10f4:	0b002404 	bleq	a10c <buf.4164+0x1b8>
    10f8:	030b3e0b 	movweq	r3, #48651	; 0xbe0b
    10fc:	0500000e 	streq	r0, [r0, #-14]
    1100:	0b0b000f 	bleq	2c1144 <__bss_end__+0x2b69dc>
    1104:	13060000 	movwne	r0, #24576	; 0x6000
    1108:	3a0b0b01 	bcc	2c3d14 <__bss_end__+0x2b95ac>
    110c:	010b3b0b 	tsteq	fp, fp, lsl #22
    1110:	07000013 	smladeq	r0, r3, r0, r0
    1114:	0803000d 	stmdaeq	r3, {r0, r2, r3}
    1118:	0b3b0b3a 	bleq	ec3e08 <__bss_end__+0xeb96a0>
    111c:	0b381349 	bleq	e05e48 <__bss_end__+0xdfb6e0>
    1120:	0d080000 	stceq	0, cr0, [r8, #-0]
    1124:	3a0e0300 	bcc	381d2c <__bss_end__+0x3775c4>
    1128:	490b3b0b 	stmdbmi	fp, {r0, r1, r3, r8, r9, fp, ip, sp}
    112c:	000b3813 	andeq	r3, fp, r3, lsl r8
    1130:	01040900 	tsteq	r4, r0, lsl #18
    1134:	0b3a0b0b 	bleq	e83d68 <__bss_end__+0xe79600>
    1138:	13010b3b 	movwne	r0, #6971	; 0x1b3b
    113c:	280a0000 	stmdacs	sl, {}	; <UNPREDICTABLE>
    1140:	1c0e0300 	stcne	3, cr0, [lr], {-0}
    1144:	0b00000d 	bleq	1180 <_start-0x6e80>
    1148:	193f012e 	ldmdbne	pc!, {r1, r2, r3, r5, r8}	; <UNPREDICTABLE>
    114c:	0b3a0e03 	bleq	e84960 <__bss_end__+0xe7a1f8>
    1150:	19270b3b 	stmdbne	r7!, {r0, r1, r3, r4, r5, r8, r9, fp}
    1154:	01111349 	tsteq	r1, r9, asr #6
    1158:	18400612 	stmdane	r0, {r1, r4, r9, sl}^
    115c:	01194297 			; <UNDEFINED> instruction: 0x01194297
    1160:	0c000013 	stceq	0, cr0, [r0], {19}
    1164:	08030034 	stmdaeq	r3, {r2, r4, r5}
    1168:	0b3b0b3a 	bleq	ec3e58 <__bss_end__+0xeb96f0>
    116c:	061c1349 	ldreq	r1, [ip], -r9, asr #6
    1170:	890d0000 	stmdbhi	sp, {}	; <UNPREDICTABLE>
    1174:	11010182 	smlabbne	r1, r2, r1, r0
    1178:	00133101 	andseq	r3, r3, r1, lsl #2
    117c:	828a0e00 	addhi	r0, sl, #0, 28
    1180:	18020001 	stmdane	r2, {r0}
    1184:	00184291 	mulseq	r8, r1, r2
    1188:	000f0f00 	andeq	r0, pc, r0, lsl #30
    118c:	13490b0b 	movtne	r0, #39691	; 0x9b0b
    1190:	2e100000 	cdpcs	0, 1, cr0, cr0, cr0, {0}
    1194:	03193f01 	tsteq	r9, #1, 30
    1198:	3b0b3a0e 	blcc	2cf9d8 <__bss_end__+0x2c5270>
    119c:	4919270b 	ldmdbmi	r9, {r0, r1, r3, r8, r9, sl, sp}
    11a0:	00193c13 	andseq	r3, r9, r3, lsl ip
    11a4:	00051100 	andeq	r1, r5, r0, lsl #2
    11a8:	00001349 	andeq	r1, r0, r9, asr #6
    11ac:	01110100 	tsteq	r1, r0, lsl #2
    11b0:	0b130e25 	bleq	4c4a4c <__bss_end__+0x4ba2e4>
    11b4:	0e1b0e03 	cdpeq	14, 1, cr0, cr11, cr3, {0}
    11b8:	06120111 			; <UNDEFINED> instruction: 0x06120111
    11bc:	00001710 	andeq	r1, r0, r0, lsl r7
    11c0:	0b002402 	bleq	a1d0 <buf.4164+0x27c>
    11c4:	030b3e0b 	movweq	r3, #48651	; 0xbe0b
    11c8:	0300000e 	movweq	r0, #14
    11cc:	0b0b0024 	bleq	2c1264 <__bss_end__+0x2b6afc>
    11d0:	08030b3e 	stmdaeq	r3, {r1, r2, r3, r4, r5, r8, r9, fp}
    11d4:	0f040000 	svceq	0x00040000
    11d8:	000b0b00 	andeq	r0, fp, r0, lsl #22
    11dc:	000f0500 	andeq	r0, pc, r0, lsl #10
    11e0:	13490b0b 	movtne	r0, #39691	; 0x9b0b
    11e4:	16060000 	strne	r0, [r6], -r0
    11e8:	3a0e0300 	bcc	381df0 <__bss_end__+0x377688>
    11ec:	490b3b0b 	stmdbmi	fp, {r0, r1, r3, r8, r9, fp, ip, sp}
    11f0:	07000013 	smladeq	r0, r3, r0, r0
    11f4:	193f012e 	ldmdbne	pc!, {r1, r2, r3, r5, r8}	; <UNPREDICTABLE>
    11f8:	0b3a0e03 	bleq	e84a0c <__bss_end__+0xe7a2a4>
    11fc:	19270b3b 	stmdbne	r7!, {r0, r1, r3, r4, r5, r8, r9, fp}
    1200:	01111349 	tsteq	r1, r9, asr #6
    1204:	18400612 	stmdane	r0, {r1, r4, r9, sl}^
    1208:	00194297 	mulseq	r9, r7, r2
    120c:	00050800 	andeq	r0, r5, r0, lsl #16
    1210:	0b3a0803 	bleq	e83224 <__bss_end__+0xe78abc>
    1214:	13490b3b 	movtne	r0, #39739	; 0x9b3b
    1218:	00001802 	andeq	r1, r0, r2, lsl #16
    121c:	03000509 	movweq	r0, #1289	; 0x509
    1220:	3b0b3a08 	blcc	2cfa48 <__bss_end__+0x2c52e0>
    1224:	0213490b 	andseq	r4, r3, #180224	; 0x2c000
    1228:	0a000017 	beq	128c <_start-0x6d74>
    122c:	08030034 	stmdaeq	r3, {r2, r4, r5}
    1230:	0b3b0b3a 	bleq	ec3f20 <__bss_end__+0xeb97b8>
    1234:	17021349 	strne	r1, [r2, -r9, asr #6]
    1238:	340b0000 	strcc	r0, [fp], #-0
    123c:	3a080300 	bcc	201e44 <__bss_end__+0x1f76dc>
    1240:	490b3b0b 	stmdbmi	fp, {r0, r1, r3, r8, r9, fp, ip, sp}
    1244:	00180213 	andseq	r0, r8, r3, lsl r2
	...

Disassembly of section .debug_loc:

00000000 <.debug_loc>:
       0:	00000000 	andeq	r0, r0, r0
       4:	0000001c 	andeq	r0, r0, ip, lsl r0
       8:	1c500001 	mrrcne	0, 0, r0, r0, cr1	; <UNPREDICTABLE>
       c:	58000000 	stmdapl	r0, {}	; <UNPREDICTABLE>
      10:	04000001 	streq	r0, [r0], #-1
      14:	5001f300 	andpl	pc, r1, r0, lsl #6
      18:	0000009f 	muleq	r0, pc, r0	; <UNPREDICTABLE>
	...
      24:	00002000 	andeq	r2, r0, r0
      28:	51000100 	mrspl	r0, (UNDEF: 16)
      2c:	00000020 	andeq	r0, r0, r0, lsr #32
      30:	00000158 	andeq	r0, r0, r8, asr r1
      34:	01f30004 	mvnseq	r0, r4
      38:	00009f51 	andeq	r9, r0, r1, asr pc
      3c:	00000000 	andeq	r0, r0, r0
      40:	00100000 	andseq	r0, r0, r0
      44:	01380000 	teqeq	r8, r0
      48:	00010000 	andeq	r0, r1, r0
      4c:	00000055 	andeq	r0, r0, r5, asr r0
      50:	00000000 	andeq	r0, r0, r0
      54:	00001400 	andeq	r1, r0, r0, lsl #8
      58:	00003800 	andeq	r3, r0, r0, lsl #16
      5c:	55000100 	strpl	r0, [r0, #-256]	; 0x100
      60:	00000038 	andeq	r0, r0, r8, lsr r0
      64:	00000138 	andeq	r0, r0, r8, lsr r1
      68:	38580001 	ldmdacc	r8, {r0}^
      6c:	58000001 	stmdapl	r0, {r0}
      70:	01000001 	tsteq	r0, r1
      74:	00005500 	andeq	r5, r0, r0, lsl #10
      78:	00000000 	andeq	r0, r0, r0
      7c:	00180000 	andseq	r0, r8, r0
      80:	01380000 	teqeq	r8, r0
      84:	00010000 	andeq	r0, r1, r0
      88:	00000055 	andeq	r0, r0, r5, asr r0
      8c:	00000000 	andeq	r0, r0, r0
      90:	00002400 	andeq	r2, r0, r0, lsl #8
      94:	00013800 	andeq	r3, r1, r0, lsl #16
      98:	55000100 	strpl	r0, [r0, #-256]	; 0x100
	...
      a4:	00000028 	andeq	r0, r0, r8, lsr #32
      a8:	0000002c 	andeq	r0, r0, ip, lsr #32
      ac:	00530001 	subseq	r0, r3, r1
      b0:	00000000 	andeq	r0, r0, r0
      b4:	38000000 	stmdacc	r0, {}	; <UNPREDICTABLE>
      b8:	58000000 	stmdapl	r0, {}	; <UNPREDICTABLE>
      bc:	01000000 	mrseq	r0, (UNDEF: 0)
      c0:	00585800 	subseq	r5, r8, r0, lsl #16
      c4:	01380000 	teqeq	r8, r0
      c8:	00050000 	andeq	r0, r5, r0
      cc:	24310075 	ldrtcs	r0, [r1], #-117	; 0x75
      d0:	0000009f 	muleq	r0, pc, r0	; <UNPREDICTABLE>
      d4:	00000000 	andeq	r0, r0, r0
      d8:	00003800 	andeq	r3, r0, r0, lsl #16
      dc:	00004000 	andeq	r4, r0, r0
      e0:	77000500 	strvc	r0, [r0, -r0, lsl #10]
      e4:	9f1a3100 	svcls	0x001a3100
      e8:	00000040 	andeq	r0, r0, r0, asr #32
      ec:	00000043 	andeq	r0, r0, r3, asr #32
      f0:	43510001 	cmpmi	r1, #1
      f4:	58000000 	stmdapl	r0, {}	; <UNPREDICTABLE>
      f8:	05000001 	streq	r0, [r0, #-1]
      fc:	31007700 	tstcc	r0, r0, lsl #14
     100:	00009f1a 	andeq	r9, r0, sl, lsl pc
     104:	00000000 	andeq	r0, r0, r0
     108:	00440000 	subeq	r0, r4, r0
     10c:	00580000 	subseq	r0, r8, r0
     110:	00010000 	andeq	r0, r1, r0
     114:	00005858 	andeq	r5, r0, r8, asr r8
     118:	00013800 	andeq	r3, r1, r0, lsl #16
     11c:	75000500 	strvc	r0, [r0, #-1280]	; 0x500
     120:	9f243100 	svcls	0x00243100
	...
     12c:	00000048 	andeq	r0, r0, r8, asr #32
     130:	0000004c 	andeq	r0, r0, ip, asr #32
     134:	00530001 	subseq	r0, r3, r1
     138:	00000000 	andeq	r0, r0, r0
     13c:	58000000 	stmdapl	r0, {}	; <UNPREDICTABLE>
     140:	78000000 	stmdavc	r0, {}	; <UNPREDICTABLE>
     144:	01000000 	mrseq	r0, (UNDEF: 0)
     148:	00785800 	rsbseq	r5, r8, r0, lsl #16
     14c:	01380000 	teqeq	r8, r0
     150:	00080000 	andeq	r0, r8, r0
     154:	24310075 	ldrtcs	r0, [r1], #-117	; 0x75
     158:	9f220075 	svcls	0x00220075
	...
     164:	00000064 	andeq	r0, r0, r4, rrx
     168:	00000078 	andeq	r0, r0, r8, ror r0
     16c:	78580001 	ldmdavc	r8, {r0}^
     170:	38000000 	stmdacc	r0, {}	; <UNPREDICTABLE>
     174:	08000001 	stmdaeq	r0, {r0}
     178:	31007500 	tstcc	r0, r0, lsl #10
     17c:	22007524 	andcs	r7, r0, #36, 10	; 0x9000000
     180:	0000009f 	muleq	r0, pc, r0	; <UNPREDICTABLE>
     184:	00000000 	andeq	r0, r0, r0
     188:	00006800 	andeq	r6, r0, r0, lsl #16
     18c:	00006c00 	andeq	r6, r0, r0, lsl #24
     190:	53000100 	movwpl	r0, #256	; 0x100
	...
     19c:	00000078 	andeq	r0, r0, r8, ror r0
     1a0:	00000098 	muleq	r0, r8, r0
     1a4:	98580001 	ldmdals	r8, {r0}^
     1a8:	38000000 	stmdacc	r0, {}	; <UNPREDICTABLE>
     1ac:	05000001 	streq	r0, [r0, #-1]
     1b0:	32007500 	andcc	r7, r0, #0, 10
     1b4:	00009f24 	andeq	r9, r0, r4, lsr #30
     1b8:	00000000 	andeq	r0, r0, r0
     1bc:	00840000 	addeq	r0, r4, r0
     1c0:	00980000 	addseq	r0, r8, r0
     1c4:	00010000 	andeq	r0, r1, r0
     1c8:	00009858 	andeq	r9, r0, r8, asr r8
     1cc:	00013800 	andeq	r3, r1, r0, lsl #16
     1d0:	75000500 	strvc	r0, [r0, #-1280]	; 0x500
     1d4:	9f243200 	svcls	0x00243200
	...
     1e0:	00000088 	andeq	r0, r0, r8, lsl #1
     1e4:	0000008c 	andeq	r0, r0, ip, lsl #1
     1e8:	00530001 	subseq	r0, r3, r1
     1ec:	00000000 	andeq	r0, r0, r0
     1f0:	98000000 	stmdals	r0, {}	; <UNPREDICTABLE>
     1f4:	b8000000 	stmdalt	r0, {}	; <UNPREDICTABLE>
     1f8:	01000000 	mrseq	r0, (UNDEF: 0)
     1fc:	00b85800 	adcseq	r5, r8, r0, lsl #16
     200:	01380000 	teqeq	r8, r0
     204:	00080000 	andeq	r0, r8, r0
     208:	24320075 	ldrtcs	r0, [r2], #-117	; 0x75
     20c:	9f220075 	svcls	0x00220075
	...
     218:	000000a4 	andeq	r0, r0, r4, lsr #1
     21c:	000000b8 	strheq	r0, [r0], -r8
     220:	b8580001 	ldmdalt	r8, {r0}^
     224:	38000000 	stmdacc	r0, {}	; <UNPREDICTABLE>
     228:	08000001 	stmdaeq	r0, {r0}
     22c:	32007500 	andcc	r7, r0, #0, 10
     230:	22007524 	andcs	r7, r0, #36, 10	; 0x9000000
     234:	0000009f 	muleq	r0, pc, r0	; <UNPREDICTABLE>
     238:	00000000 	andeq	r0, r0, r0
     23c:	0000a800 	andeq	sl, r0, r0, lsl #16
     240:	0000ac00 	andeq	sl, r0, r0, lsl #24
     244:	53000100 	movwpl	r0, #256	; 0x100
	...
     250:	000000b8 	strheq	r0, [r0], -r8
     254:	000000d8 	ldrdeq	r0, [r0], -r8
     258:	d8580001 	ldmdale	r8, {r0}^
     25c:	38000000 	stmdacc	r0, {}	; <UNPREDICTABLE>
     260:	0a000001 	beq	26c <_start-0x7d94>
     264:	32007500 	andcc	r7, r0, #0, 10
     268:	31007524 	tstcc	r0, r4, lsr #10
     26c:	009f2224 	addseq	r2, pc, r4, lsr #4
     270:	00000000 	andeq	r0, r0, r0
     274:	c4000000 	strgt	r0, [r0], #-0
     278:	d8000000 	stmdale	r0, {}	; <UNPREDICTABLE>
     27c:	01000000 	mrseq	r0, (UNDEF: 0)
     280:	00d85800 	sbcseq	r5, r8, r0, lsl #16
     284:	01380000 	teqeq	r8, r0
     288:	000a0000 	andeq	r0, sl, r0
     28c:	24320075 	ldrtcs	r0, [r2], #-117	; 0x75
     290:	24310075 	ldrtcs	r0, [r1], #-117	; 0x75
     294:	00009f22 	andeq	r9, r0, r2, lsr #30
     298:	00000000 	andeq	r0, r0, r0
     29c:	00c80000 	sbceq	r0, r8, r0
     2a0:	00cc0000 	sbceq	r0, ip, r0
     2a4:	00010000 	andeq	r0, r1, r0
     2a8:	00000053 	andeq	r0, r0, r3, asr r0
     2ac:	00000000 	andeq	r0, r0, r0
     2b0:	0000d800 	andeq	sp, r0, r0, lsl #16
     2b4:	0000f800 	andeq	pc, r0, r0, lsl #16
     2b8:	58000100 	stmdapl	r0, {r8}
     2bc:	000000f8 	strdeq	r0, [r0], -r8
     2c0:	00000138 	andeq	r0, r0, r8, lsr r1
     2c4:	0075000d 	rsbseq	r0, r5, sp
     2c8:	00752432 	rsbseq	r2, r5, r2, lsr r4
     2cc:	75222431 	strvc	r2, [r2, #-1073]!	; 0x431
     2d0:	009f2200 	addseq	r2, pc, r0, lsl #4
     2d4:	00000000 	andeq	r0, r0, r0
     2d8:	e4000000 	str	r0, [r0], #-0
     2dc:	f8000000 			; <UNDEFINED> instruction: 0xf8000000
     2e0:	01000000 	mrseq	r0, (UNDEF: 0)
     2e4:	00f85800 	rscseq	r5, r8, r0, lsl #16
     2e8:	01380000 	teqeq	r8, r0
     2ec:	000d0000 	andeq	r0, sp, r0
     2f0:	24320075 	ldrtcs	r0, [r2], #-117	; 0x75
     2f4:	24310075 	ldrtcs	r0, [r1], #-117	; 0x75
     2f8:	22007522 	andcs	r7, r0, #142606336	; 0x8800000
     2fc:	0000009f 	muleq	r0, pc, r0	; <UNPREDICTABLE>
     300:	00000000 	andeq	r0, r0, r0
     304:	0000e800 	andeq	lr, r0, r0, lsl #16
     308:	0000ec00 	andeq	lr, r0, r0, lsl #24
     30c:	53000100 	movwpl	r0, #256	; 0x100
	...
     318:	000000f8 	strdeq	r0, [r0], -r8
     31c:	00000118 	andeq	r0, r0, r8, lsl r1
     320:	18580001 	ldmdane	r8, {r0}^
     324:	38000001 	stmdacc	r0, {r0}
     328:	05000001 	streq	r0, [r0, #-1]
     32c:	33007500 	movwcc	r7, #1280	; 0x500
     330:	00009f24 	andeq	r9, r0, r4, lsr #30
     334:	00000000 	andeq	r0, r0, r0
     338:	01040000 	mrseq	r0, (UNDEF: 4)
     33c:	01180000 	tsteq	r8, r0
     340:	00010000 	andeq	r0, r1, r0
     344:	00011858 	andeq	r1, r1, r8, asr r8
     348:	00013800 	andeq	r3, r1, r0, lsl #16
     34c:	75000500 	strvc	r0, [r0, #-1280]	; 0x500
     350:	9f243300 	svcls	0x00243300
	...
     35c:	00000108 	andeq	r0, r0, r8, lsl #2
     360:	0000010c 	andeq	r0, r0, ip, lsl #2
     364:	00530001 	subseq	r0, r3, r1
     368:	00000000 	andeq	r0, r0, r0
     36c:	18000000 	stmdane	r0, {}	; <UNPREDICTABLE>
     370:	20000001 	andcs	r0, r0, r1
     374:	06000001 	streq	r0, [r0], -r1
     378:	08007700 	stmdaeq	r0, {r8, r9, sl, ip, sp, lr}
     37c:	209f1a80 	addscs	r1, pc, r0, lsl #21
     380:	23000001 	movwcs	r0, #1
     384:	01000001 	tsteq	r0, r1
     388:	01235100 	teqeq	r3, r0, lsl #2
     38c:	01580000 	cmpeq	r8, r0
     390:	00060000 	andeq	r0, r6, r0
     394:	80080077 	andhi	r0, r8, r7, ror r0
     398:	00009f1a 	andeq	r9, r0, sl, lsl pc
     39c:	00000000 	andeq	r0, r0, r0
     3a0:	01280000 	teqeq	r8, r0
     3a4:	012c0000 	teqeq	ip, r0
     3a8:	00010000 	andeq	r0, r1, r0
     3ac:	00000053 	andeq	r0, r0, r3, asr r0
     3b0:	00000000 	andeq	r0, r0, r0
     3b4:	00014800 	andeq	r4, r1, r0, lsl #16
     3b8:	00014c00 	andeq	r4, r1, r0, lsl #24
     3bc:	53000100 	movwpl	r0, #256	; 0x100
	...
     3c8:	00000158 	andeq	r0, r0, r8, asr r1
     3cc:	0000016f 	andeq	r0, r0, pc, ror #2
     3d0:	6f500001 	svcvs	0x00500001
     3d4:	d4000001 	strle	r0, [r0], #-1
     3d8:	01000001 	tsteq	r0, r1
     3dc:	01d45900 	bicseq	r5, r4, r0, lsl #18
     3e0:	03100000 	tsteq	r0, #0
     3e4:	00040000 	andeq	r0, r4, r0
     3e8:	9f5001f3 	svcls	0x005001f3
     3ec:	00000310 	andeq	r0, r0, r0, lsl r3
     3f0:	00000318 	andeq	r0, r0, r8, lsl r3
     3f4:	18590001 	ldmdane	r9, {r0}^
     3f8:	20000003 	andcs	r0, r0, r3
     3fc:	04000003 	streq	r0, [r0], #-3
     400:	5001f300 	andpl	pc, r1, r0, lsl #6
     404:	0000009f 	muleq	r0, pc, r0	; <UNPREDICTABLE>
     408:	00000000 	andeq	r0, r0, r0
     40c:	00015800 	andeq	r5, r1, r0, lsl #16
     410:	00016f00 	andeq	r6, r1, r0, lsl #30
     414:	51000100 	mrspl	r0, (UNDEF: 16)
     418:	0000016f 	andeq	r0, r0, pc, ror #2
     41c:	00000320 	andeq	r0, r0, r0, lsr #6
     420:	00560001 	subseq	r0, r6, r1
     424:	00000000 	andeq	r0, r0, r0
     428:	ac000000 	stcge	0, cr0, [r0], {-0}
     42c:	9c000001 	stcls	0, cr0, [r0], {1}
     430:	01000002 	tsteq	r0, r2
     434:	00005800 	andeq	r5, r0, r0, lsl #16
     438:	00000000 	andeq	r0, r0, r0
     43c:	01b00000 	movseq	r0, r0
     440:	02d40000 	sbcseq	r0, r4, #0
     444:	00010000 	andeq	r0, r1, r0
     448:	00000054 	andeq	r0, r0, r4, asr r0
     44c:	00000000 	andeq	r0, r0, r0
     450:	0001b000 	andeq	fp, r1, r0
     454:	0002d400 	andeq	sp, r2, r0, lsl #8
     458:	74000500 	strvc	r0, [r0], #-1280	; 0x500
     45c:	9f253100 	svcls	0x00253100
	...
     468:	000001b0 			; <UNDEFINED> instruction: 0x000001b0
     46c:	000001d4 	ldrdeq	r0, [r0], -r4
     470:	9f300002 	svcls	0x00300002
     474:	000001d4 	ldrdeq	r0, [r0], -r4
     478:	00000310 	andeq	r0, r0, r0, lsl r3
     47c:	18590001 	ldmdane	r9, {r0}^
     480:	20000003 	andcs	r0, r0, r3
     484:	01000003 	tsteq	r0, r3
     488:	00005900 	andeq	r5, r0, r0, lsl #18
     48c:	00000000 	andeq	r0, r0, r0
     490:	016c0000 	cmneq	ip, r0
     494:	016f0000 	cmneq	pc, r0
     498:	00010000 	andeq	r0, r1, r0
     49c:	00016f51 	andeq	r6, r1, r1, asr pc
     4a0:	00032000 	andeq	r2, r3, r0
     4a4:	56000100 	strpl	r0, [r0], -r0, lsl #2
	...
     4b0:	00000174 	andeq	r0, r0, r4, ror r1
     4b4:	000001b0 			; <UNDEFINED> instruction: 0x000001b0
     4b8:	10540001 	subsne	r0, r4, r1
     4bc:	18000003 	stmdane	r0, {r0, r1}
     4c0:	01000003 	tsteq	r0, r3
     4c4:	00005400 	andeq	r5, r0, r0, lsl #8
     4c8:	00000000 	andeq	r0, r0, r0
     4cc:	01ac0000 			; <UNDEFINED> instruction: 0x01ac0000
     4d0:	01c80000 	biceq	r0, r8, r0
     4d4:	00010000 	andeq	r0, r1, r0
     4d8:	00000058 	andeq	r0, r0, r8, asr r0
     4dc:	00000000 	andeq	r0, r0, r0
     4e0:	0001b400 	andeq	fp, r1, r0, lsl #8
     4e4:	0001cf00 	andeq	ip, r1, r0, lsl #30
     4e8:	52000100 	andpl	r0, r0, #0, 2
     4ec:	000001cf 	andeq	r0, r0, pc, asr #3
     4f0:	000002d4 	ldrdeq	r0, [r0], -r4
     4f4:	00740008 	rsbseq	r0, r4, r8
     4f8:	00742531 	rsbseq	r2, r4, r1, lsr r5
     4fc:	00009f22 	andeq	r9, r0, r2, lsr #30
     500:	00000000 	andeq	r0, r0, r0
     504:	01b40000 			; <UNDEFINED> instruction: 0x01b40000
     508:	01c80000 	biceq	r0, r8, r0
     50c:	00010000 	andeq	r0, r1, r0
     510:	00000058 	andeq	r0, r0, r8, asr r0
     514:	00000000 	andeq	r0, r0, r0
     518:	0001b800 	andeq	fp, r1, r0, lsl #16
     51c:	0001bc00 	andeq	fp, r1, r0, lsl #24
     520:	53000100 	movwpl	r0, #256	; 0x100
	...
     52c:	000001d4 	ldrdeq	r0, [r0], -r4
     530:	000002d4 	ldrdeq	r0, [r0], -r4
     534:	00540001 	subseq	r0, r4, r1
     538:	00000000 	andeq	r0, r0, r0
     53c:	d4000000 	strle	r0, [r0], #-0
     540:	e8000001 	stmda	r0, {r0}
     544:	01000001 	tsteq	r0, r1
     548:	00005800 	andeq	r5, r0, r0, lsl #16
     54c:	00000000 	andeq	r0, r0, r0
     550:	01d80000 	bicseq	r0, r8, r0
     554:	01dc0000 	bicseq	r0, ip, r0
     558:	00010000 	andeq	r0, r1, r0
     55c:	00000053 	andeq	r0, r0, r3, asr r0
     560:	00000000 	andeq	r0, r0, r0
     564:	0001f800 	andeq	pc, r1, r0, lsl #16
     568:	0002d400 	andeq	sp, r2, r0, lsl #8
     56c:	54000100 	strpl	r0, [r0], #-256	; 0x100
	...
     578:	000001f8 	strdeq	r0, [r0], -r8
     57c:	0000020c 	andeq	r0, r0, ip, lsl #4
     580:	00580001 	subseq	r0, r8, r1
     584:	00000000 	andeq	r0, r0, r0
     588:	fc000000 	stc2	0, cr0, [r0], {-0}
     58c:	00000001 	andeq	r0, r0, r1
     590:	01000002 	tsteq	r0, r2
     594:	00005300 	andeq	r5, r0, r0, lsl #6
     598:	00000000 	andeq	r0, r0, r0
     59c:	021c0000 	andseq	r0, ip, #0
     5a0:	02d40000 	sbcseq	r0, r4, #0
     5a4:	00010000 	andeq	r0, r1, r0
     5a8:	00000054 	andeq	r0, r0, r4, asr r0
     5ac:	00000000 	andeq	r0, r0, r0
     5b0:	00021c00 	andeq	r1, r2, r0, lsl #24
     5b4:	00023000 	andeq	r3, r2, r0
     5b8:	58000100 	stmdapl	r0, {r8}
	...
     5c4:	00000220 	andeq	r0, r0, r0, lsr #4
     5c8:	00000224 	andeq	r0, r0, r4, lsr #4
     5cc:	00530001 	subseq	r0, r3, r1
     5d0:	00000000 	andeq	r0, r0, r0
     5d4:	40000000 	andmi	r0, r0, r0
     5d8:	d4000002 	strle	r0, [r0], #-2
     5dc:	01000002 	tsteq	r0, r2
     5e0:	00005400 	andeq	r5, r0, r0, lsl #8
     5e4:	00000000 	andeq	r0, r0, r0
     5e8:	02400000 	subeq	r0, r0, #0
     5ec:	02540000 	subseq	r0, r4, #0
     5f0:	00010000 	andeq	r0, r1, r0
     5f4:	00000058 	andeq	r0, r0, r8, asr r0
     5f8:	00000000 	andeq	r0, r0, r0
     5fc:	00024400 	andeq	r4, r2, r0, lsl #8
     600:	00024800 	andeq	r4, r2, r0, lsl #16
     604:	53000100 	movwpl	r0, #256	; 0x100
	...
     610:	00000264 	andeq	r0, r0, r4, ror #4
     614:	000002d4 	ldrdeq	r0, [r0], -r4
     618:	00540001 	subseq	r0, r4, r1
     61c:	00000000 	andeq	r0, r0, r0
     620:	64000000 	strvs	r0, [r0], #-0
     624:	78000002 	stmdavc	r0, {r1}
     628:	01000002 	tsteq	r0, r2
     62c:	00005800 	andeq	r5, r0, r0, lsl #16
     630:	00000000 	andeq	r0, r0, r0
     634:	02680000 	rsbeq	r0, r8, #0
     638:	026c0000 	rsbeq	r0, ip, #0
     63c:	00010000 	andeq	r0, r1, r0
     640:	00000053 	andeq	r0, r0, r3, asr r0
     644:	00000000 	andeq	r0, r0, r0
     648:	00028800 	andeq	r8, r2, r0, lsl #16
     64c:	0002d400 	andeq	sp, r2, r0, lsl #8
     650:	54000100 	strpl	r0, [r0], #-256	; 0x100
	...
     65c:	00000288 	andeq	r0, r0, r8, lsl #5
     660:	0000029c 	muleq	r0, ip, r2
     664:	00580001 	subseq	r0, r8, r1
     668:	00000000 	andeq	r0, r0, r0
     66c:	8c000000 	stchi	0, cr0, [r0], {-0}
     670:	90000002 	andls	r0, r0, r2
     674:	01000002 	tsteq	r0, r2
     678:	00005300 	andeq	r5, r0, r0, lsl #6
     67c:	00000000 	andeq	r0, r0, r0
     680:	02ac0000 	adceq	r0, ip, #0
     684:	02d40000 	sbcseq	r0, r4, #0
     688:	00010000 	andeq	r0, r1, r0
     68c:	00000054 	andeq	r0, r0, r4, asr r0
     690:	00000000 	andeq	r0, r0, r0
     694:	0002b000 	andeq	fp, r2, r0
     698:	0002b400 	andeq	fp, r2, r0, lsl #8
     69c:	53000100 	movwpl	r0, #256	; 0x100
	...
     6a8:	000002cc 	andeq	r0, r0, ip, asr #5
     6ac:	00000310 	andeq	r0, r0, r0, lsl r3
     6b0:	9f300002 	svcls	0x00300002
     6b4:	00000318 	andeq	r0, r0, r8, lsl r3
     6b8:	00000320 	andeq	r0, r0, r0, lsr #6
     6bc:	9f300002 	svcls	0x00300002
	...
     6c8:	000002cc 	andeq	r0, r0, ip, asr #5
     6cc:	00000310 	andeq	r0, r0, r0, lsl r3
     6d0:	18550001 	ldmdane	r5, {r0}^
     6d4:	20000003 	andcs	r0, r0, r3
     6d8:	01000003 	tsteq	r0, r3
     6dc:	00005500 	andeq	r5, r0, r0, lsl #10
     6e0:	00000000 	andeq	r0, r0, r0
     6e4:	02d40000 	sbcseq	r0, r4, #0
     6e8:	03100000 	tsteq	r0, #0
     6ec:	00010000 	andeq	r0, r1, r0
     6f0:	00031854 	andeq	r1, r3, r4, asr r8
     6f4:	00032000 	andeq	r2, r3, r0
     6f8:	54000100 	strpl	r0, [r0], #-256	; 0x100
	...
     704:	00000320 	andeq	r0, r0, r0, lsr #6
     708:	0000033f 	andeq	r0, r0, pc, lsr r3
     70c:	3f500001 	svccc	0x00500001
     710:	58000003 	stmdapl	r0, {r0, r1}
     714:	01000003 	tsteq	r0, r3
     718:	03585800 	cmpeq	r8, #0, 16
     71c:	03680000 	cmneq	r8, #0
     720:	00010000 	andeq	r0, r1, r0
     724:	00036850 	andeq	r6, r3, r0, asr r8
     728:	0003b000 	andeq	fp, r3, r0
     72c:	58000100 	stmdapl	r0, {r8}
	...
     738:	00000320 	andeq	r0, r0, r0, lsr #6
     73c:	0000033f 	andeq	r0, r0, pc, lsr r3
     740:	3f510001 	svccc	0x00510001
     744:	58000003 	stmdapl	r0, {r0, r1}
     748:	01000003 	tsteq	r0, r3
     74c:	03585600 	cmpeq	r8, #0, 12
     750:	03680000 	cmneq	r8, #0
     754:	00010000 	andeq	r0, r1, r0
     758:	00036851 	andeq	r6, r3, r1, asr r8
     75c:	0003b000 	andeq	fp, r3, r0
     760:	56000100 	strpl	r0, [r0], -r0, lsl #2
	...
     76c:	00000320 	andeq	r0, r0, r0, lsr #6
     770:	0000033f 	andeq	r0, r0, pc, lsr r3
     774:	3f520001 	svccc	0x00520001
     778:	58000003 	stmdapl	r0, {r0, r1}
     77c:	04000003 	streq	r0, [r0], #-3
     780:	5201f300 	andpl	pc, r1, #0, 6
     784:	0003589f 	muleq	r3, pc, r8	; <UNPREDICTABLE>
     788:	00036800 	andeq	r6, r3, r0, lsl #16
     78c:	52000100 	andpl	r0, r0, #0, 2
     790:	00000368 	andeq	r0, r0, r8, ror #6
     794:	000003b0 			; <UNDEFINED> instruction: 0x000003b0
     798:	01770003 	cmneq	r7, r3
     79c:	0000009f 	muleq	r0, pc, r0	; <UNPREDICTABLE>
     7a0:	00000000 	andeq	r0, r0, r0
     7a4:	00032000 	andeq	r2, r3, r0
     7a8:	00033f00 	andeq	r3, r3, r0, lsl #30
     7ac:	53000100 	movwpl	r0, #256	; 0x100
     7b0:	0000033f 	andeq	r0, r0, pc, lsr r3
     7b4:	00000358 	andeq	r0, r0, r8, asr r3
     7b8:	01f30004 	mvnseq	r0, r4
     7bc:	03589f53 	cmpeq	r8, #332	; 0x14c
     7c0:	03680000 	cmneq	r8, #0
     7c4:	00010000 	andeq	r0, r1, r0
     7c8:	00036853 	andeq	r6, r3, r3, asr r8
     7cc:	0003b000 	andeq	fp, r3, r0
     7d0:	f3000400 	vshl.u8	d0, d0, d0
     7d4:	009f5301 	addseq	r5, pc, r1, lsl #6
     7d8:	00000000 	andeq	r0, r0, r0
     7dc:	60000000 	andvs	r0, r0, r0
     7e0:	68000003 	stmdavs	r0, {r0, r1}
     7e4:	02000003 	andeq	r0, r0, #3
     7e8:	689f3000 	ldmvs	pc, {ip, sp}	; <UNPREDICTABLE>
     7ec:	b0000003 	andlt	r0, r0, r3
     7f0:	01000003 	tsteq	r0, r3
     7f4:	00005400 	andeq	r5, r0, r0, lsl #8
     7f8:	00000000 	andeq	r0, r0, r0
     7fc:	03780000 	cmneq	r8, #0
     800:	03880000 	orreq	r0, r8, #0
     804:	00010000 	andeq	r0, r1, r0
     808:	00000050 	andeq	r0, r0, r0, asr r0
     80c:	00000000 	andeq	r0, r0, r0
     810:	0003b000 	andeq	fp, r3, r0
     814:	0003cb00 	andeq	ip, r3, r0, lsl #22
     818:	50000100 	andpl	r0, r0, r0, lsl #2
     81c:	000003cb 	andeq	r0, r0, fp, asr #7
     820:	000003e4 	andeq	r0, r0, r4, ror #7
     824:	e4570001 	ldrb	r0, [r7], #-1
     828:	f4000003 	vst4.8	{d0-d3}, [r0], r3
     82c:	01000003 	tsteq	r0, r3
     830:	03f45000 	mvnseq	r5, #0
     834:	042c0000 	strteq	r0, [ip], #-0
     838:	00010000 	andeq	r0, r1, r0
     83c:	00000057 	andeq	r0, r0, r7, asr r0
     840:	00000000 	andeq	r0, r0, r0
     844:	0003b000 	andeq	fp, r3, r0
     848:	0003cb00 	andeq	ip, r3, r0, lsl #22
     84c:	51000100 	mrspl	r0, (UNDEF: 16)
     850:	000003cb 	andeq	r0, r0, fp, asr #7
     854:	000003e4 	andeq	r0, r0, r4, ror #7
     858:	e4550001 	ldrb	r0, [r5], #-1
     85c:	f4000003 	vst4.8	{d0-d3}, [r0], r3
     860:	01000003 	tsteq	r0, r3
     864:	03f45100 	mvnseq	r5, #0, 2
     868:	042c0000 	strteq	r0, [ip], #-0
     86c:	00010000 	andeq	r0, r1, r0
     870:	00000055 	andeq	r0, r0, r5, asr r0
     874:	00000000 	andeq	r0, r0, r0
     878:	0003b000 	andeq	fp, r3, r0
     87c:	0003cb00 	andeq	ip, r3, r0, lsl #22
     880:	52000100 	andpl	r0, r0, #0, 2
     884:	000003cb 	andeq	r0, r0, fp, asr #7
     888:	000003e4 	andeq	r0, r0, r4, ror #7
     88c:	01f30004 	mvnseq	r0, r4
     890:	03e49f52 	mvneq	r9, #328	; 0x148
     894:	03f40000 	mvnseq	r0, #0
     898:	00010000 	andeq	r0, r1, r0
     89c:	0003f452 	andeq	pc, r3, r2, asr r4	; <UNPREDICTABLE>
     8a0:	00042c00 	andeq	r2, r4, r0, lsl #24
     8a4:	76000300 	strvc	r0, [r0], -r0, lsl #6
     8a8:	00009f01 	andeq	r9, r0, r1, lsl #30
     8ac:	00000000 	andeq	r0, r0, r0
     8b0:	03b00000 	movseq	r0, #0
     8b4:	03cb0000 	biceq	r0, fp, #0
     8b8:	00010000 	andeq	r0, r1, r0
     8bc:	0003cb53 	andeq	ip, r3, r3, asr fp
     8c0:	0003e400 	andeq	lr, r3, r0, lsl #8
     8c4:	58000100 	stmdapl	r0, {r8}
     8c8:	000003e4 	andeq	r0, r0, r4, ror #7
     8cc:	000003f4 	strdeq	r0, [r0], -r4
     8d0:	f4530001 			; <UNDEFINED> instruction: 0xf4530001
     8d4:	2c000003 	stccs	0, cr0, [r0], {3}
     8d8:	01000004 	tsteq	r0, r4
     8dc:	00005800 	andeq	r5, r0, r0, lsl #16
     8e0:	00000000 	andeq	r0, r0, r0
     8e4:	03ec0000 	mvneq	r0, #0
     8e8:	03f40000 	mvnseq	r0, #0
     8ec:	00020000 	andeq	r0, r2, r0
     8f0:	03f49f30 	mvnseq	r9, #48, 30	; 0xc0
     8f4:	042c0000 	strteq	r0, [ip], #-0
     8f8:	00010000 	andeq	r0, r1, r0
     8fc:	00000054 	andeq	r0, r0, r4, asr r0
     900:	00000000 	andeq	r0, r0, r0
     904:	00042c00 	andeq	r2, r4, r0, lsl #24
     908:	00044b00 	andeq	r4, r4, r0, lsl #22
     90c:	51000100 	mrspl	r0, (UNDEF: 16)
     910:	0000044b 	andeq	r0, r0, fp, asr #8
     914:	000004ec 	andeq	r0, r0, ip, ror #9
     918:	01f30004 	mvnseq	r0, r4
     91c:	00009f51 	andeq	r9, r0, r1, asr pc
     920:	00000000 	andeq	r0, r0, r0
     924:	042c0000 	strteq	r0, [ip], #-0
     928:	044b0000 	strbeq	r0, [fp], #-0
     92c:	00010000 	andeq	r0, r1, r0
     930:	00044b52 	andeq	r4, r4, r2, asr fp
     934:	0004ec00 	andeq	lr, r4, r0, lsl #24
     938:	f3000400 	vshl.u8	d0, d0, d0
     93c:	009f5201 	addseq	r5, pc, r1, lsl #4
     940:	00000000 	andeq	r0, r0, r0
     944:	2c000000 	stccs	0, cr0, [r0], {-0}
     948:	4b000004 	blmi	960 <_start-0x76a0>
     94c:	01000004 	tsteq	r0, r4
     950:	044b5300 	strbeq	r5, [fp], #-768	; 0x300
     954:	04ec0000 	strbteq	r0, [ip], #0
     958:	00010000 	andeq	r0, r1, r0
     95c:	00000055 	andeq	r0, r0, r5, asr r0
     960:	00000000 	andeq	r0, r0, r0
     964:	00046c00 	andeq	r6, r4, r0, lsl #24
     968:	0004ab00 	andeq	sl, r4, r0, lsl #22
     96c:	52000100 	andpl	r0, r0, #0, 2
     970:	000004ab 	andeq	r0, r0, fp, lsr #9
     974:	000004c4 	andeq	r0, r0, r4, asr #9
     978:	00750006 	rsbseq	r0, r5, r6
     97c:	9f1e0077 	svcls	0x001e0077
     980:	000004c4 	andeq	r0, r0, r4, asr #9
     984:	000004ec 	andeq	r0, r0, ip, ror #9
     988:	00520001 	subseq	r0, r2, r1
     98c:	00000000 	andeq	r0, r0, r0
     990:	ec000000 	stc	0, cr0, [r0], {-0}
     994:	f7000004 			; <UNDEFINED> instruction: 0xf7000004
     998:	01000004 	tsteq	r0, r4
     99c:	04f75000 	ldrbteq	r5, [r7], #0
     9a0:	05280000 	streq	r0, [r8, #-0]!
     9a4:	00040000 	andeq	r0, r4, r0
     9a8:	9f5001f3 	svcls	0x005001f3
	...
     9b4:	000004f8 	strdeq	r0, [r0], -r8
     9b8:	00000503 	andeq	r0, r0, r3, lsl #10
     9bc:	00500001 	subseq	r0, r0, r1
     9c0:	00000000 	andeq	r0, r0, r0
     9c4:	28000000 	stmdacs	r0, {}	; <UNPREDICTABLE>
     9c8:	38000005 	stmdacc	r0, {r0, r2}
     9cc:	01000005 	tsteq	r0, r5
     9d0:	05385000 	ldreq	r5, [r8, #-0]!
     9d4:	05540000 	ldrbeq	r0, [r4, #-0]
     9d8:	00010000 	andeq	r0, r1, r0
     9dc:	00000055 	andeq	r0, r0, r5, asr r0
     9e0:	00000000 	andeq	r0, r0, r0
     9e4:	00052800 	andeq	r2, r5, r0, lsl #16
     9e8:	00053800 	andeq	r3, r5, r0, lsl #16
     9ec:	51000100 	mrspl	r0, (UNDEF: 16)
     9f0:	00000538 	andeq	r0, r0, r8, lsr r5
     9f4:	00000554 	andeq	r0, r0, r4, asr r5
     9f8:	00540001 	subseq	r0, r4, r1
     9fc:	00000000 	andeq	r0, r0, r0
     a00:	54000000 	strpl	r0, [r0], #-0
     a04:	70000005 	andvc	r0, r0, r5
     a08:	01000005 	tsteq	r0, r5
     a0c:	05705000 	ldrbeq	r5, [r0, #-0]!
     a10:	05c00000 	strbeq	r0, [r0]
     a14:	00010000 	andeq	r0, r1, r0
     a18:	0005c055 	andeq	ip, r5, r5, asr r0
     a1c:	0005d800 	andeq	sp, r5, r0, lsl #16
     a20:	f3000400 	vshl.u8	d0, d0, d0
     a24:	009f5001 	addseq	r5, pc, r1
     a28:	00000000 	andeq	r0, r0, r0
     a2c:	80000000 	andhi	r0, r0, r0
     a30:	8f000005 	svchi	0x00000005
     a34:	01000005 	tsteq	r0, r5
     a38:	058f5000 	streq	r5, [pc]	; a40 <_start-0x75c0>
     a3c:	05a80000 	streq	r0, [r8, #0]!
     a40:	00010000 	andeq	r0, r1, r0
     a44:	0005a854 	andeq	sl, r5, r4, asr r8
     a48:	0005ac00 	andeq	sl, r5, r0, lsl #24
     a4c:	50000100 	andpl	r0, r0, r0, lsl #2
     a50:	000005ac 	andeq	r0, r0, ip, lsr #11
     a54:	000005c0 	andeq	r0, r0, r0, asr #11
     a58:	c0540001 	subsgt	r0, r4, r1
     a5c:	d8000005 	stmdale	r0, {r0, r2}
     a60:	01000005 	tsteq	r0, r5
     a64:	00005000 	andeq	r5, r0, r0
     a68:	00000000 	andeq	r0, r0, r0
     a6c:	05d80000 	ldrbeq	r0, [r8]
     a70:	05eb0000 	strbeq	r0, [fp, #0]!
     a74:	00010000 	andeq	r0, r1, r0
     a78:	0005eb50 	andeq	lr, r5, r0, asr fp
     a7c:	00062400 	andeq	r2, r6, r0, lsl #8
     a80:	f3000400 	vshl.u8	d0, d0, d0
     a84:	009f5001 	addseq	r5, pc, r1
     a88:	00000000 	andeq	r0, r0, r0
     a8c:	d8000000 	stmdale	r0, {}	; <UNPREDICTABLE>
     a90:	eb000005 	bl	aac <_start-0x7554>
     a94:	01000005 	tsteq	r0, r5
     a98:	05eb5100 	strbeq	r5, [fp, #256]!	; 0x100
     a9c:	06240000 	strteq	r0, [r4], -r0
     aa0:	00040000 	andeq	r0, r4, r0
     aa4:	9f5101f3 	svcls	0x005101f3
	...
     ab0:	000005d8 	ldrdeq	r0, [r0], -r8
     ab4:	000005eb 	andeq	r0, r0, fp, ror #11
     ab8:	eb520001 	bl	1480ac4 <__bss_end__+0x147635c>
     abc:	24000005 	strcs	r0, [r0], #-5
     ac0:	04000006 	streq	r0, [r0], #-6
     ac4:	5201f300 	andpl	pc, r1, #0, 6
     ac8:	0000009f 	muleq	r0, pc, r0	; <UNPREDICTABLE>
     acc:	00000000 	andeq	r0, r0, r0
     ad0:	0005d800 	andeq	sp, r5, r0, lsl #16
     ad4:	0005eb00 	andeq	lr, r5, r0, lsl #22
     ad8:	53000100 	movwpl	r0, #256	; 0x100
     adc:	000005eb 	andeq	r0, r0, fp, ror #11
     ae0:	00000624 	andeq	r0, r0, r4, lsr #12
     ae4:	01f30004 	mvnseq	r0, r4
     ae8:	00009f53 	andeq	r9, r0, r3, asr pc
     aec:	00000000 	andeq	r0, r0, r0
     af0:	05ec0000 	strbeq	r0, [ip, #0]!
     af4:	05f70000 	ldrbeq	r0, [r7, #0]!
     af8:	00010000 	andeq	r0, r1, r0
     afc:	00061050 	andeq	r1, r6, r0, asr r0
     b00:	00062400 	andeq	r2, r6, r0, lsl #8
     b04:	50000100 	andpl	r0, r0, r0, lsl #2
	...
     b10:	00000624 	andeq	r0, r0, r4, lsr #12
     b14:	0000062f 	andeq	r0, r0, pc, lsr #12
     b18:	2f500001 	svccs	0x00500001
     b1c:	10000006 	andne	r0, r0, r6
     b20:	04000007 	streq	r0, [r0], #-7
     b24:	5001f300 	andpl	pc, r1, r0, lsl #6
     b28:	0000009f 	muleq	r0, pc, r0	; <UNPREDICTABLE>
     b2c:	00000000 	andeq	r0, r0, r0
     b30:	0007ac00 	andeq	sl, r7, r0, lsl #24
     b34:	0007c000 	andeq	ip, r7, r0
     b38:	03000600 	movweq	r0, #1536	; 0x600
     b3c:	0000a364 	andeq	sl, r0, r4, ror #6
     b40:	0007c09f 	muleq	r7, pc, r0	; <UNPREDICTABLE>
     b44:	00081800 	andeq	r1, r8, r0, lsl #16
     b48:	54000100 	strpl	r0, [r0], #-256	; 0x100
	...
     b54:	000007ac 	andeq	r0, r0, ip, lsr #15
     b58:	000007c0 	andeq	r0, r0, r0, asr #15
     b5c:	9f300002 	svcls	0x00300002
     b60:	000007c0 	andeq	r0, r0, r0, asr #15
     b64:	00000818 	andeq	r0, r0, r8, lsl r8
     b68:	00550001 	subseq	r0, r5, r1
     b6c:	00000000 	andeq	r0, r0, r0
     b70:	2c000000 	stccs	0, cr0, [r0], {-0}
     b74:	38000000 	stmdacc	r0, {}	; <UNPREDICTABLE>
     b78:	01000000 	mrseq	r0, (UNDEF: 0)
     b7c:	00385000 	eorseq	r5, r8, r0
     b80:	00480000 	subeq	r0, r8, r0
     b84:	00010000 	andeq	r0, r1, r0
     b88:	00004855 	andeq	r4, r0, r5, asr r8
     b8c:	00005800 	andeq	r5, r0, r0, lsl #16
     b90:	50000100 	andpl	r0, r0, r0, lsl #2
	...
     ba0:	0000000b 	andeq	r0, r0, fp
     ba4:	0b500001 	bleq	1400bb0 <__bss_end__+0x13f6448>
     ba8:	14000000 	strne	r0, [r0], #-0
     bac:	01000000 	mrseq	r0, (UNDEF: 0)
     bb0:	00005400 	andeq	r5, r0, r0, lsl #8
	...
     bbc:	00100000 	andseq	r0, r0, r0
     bc0:	00010000 	andeq	r0, r1, r0
     bc4:	00001050 	andeq	r1, r0, r0, asr r0
     bc8:	00003400 	andeq	r3, r0, r0, lsl #8
     bcc:	54000100 	strpl	r0, [r0], #-256	; 0x100
	...
     bdc:	00000004 	andeq	r0, r0, r4
     be0:	04500001 	ldrbeq	r0, [r0], #-1
     be4:	0c000000 	stceq	0, cr0, [r0], {-0}
     be8:	03000000 	movweq	r0, #0
     bec:	9f307000 	svcls	0x00307000
     bf0:	0000000c 	andeq	r0, r0, ip
     bf4:	00000014 	andeq	r0, r0, r4, lsl r0
     bf8:	01f30004 	mvnseq	r0, r4
     bfc:	00009f50 	andeq	r9, r0, r0, asr pc
     c00:	00000000 	andeq	r0, r0, r0
     c04:	00140000 	andseq	r0, r4, r0
     c08:	00200000 	eoreq	r0, r0, r0
     c0c:	00010000 	andeq	r0, r1, r0
     c10:	00002050 	andeq	r2, r0, r0, asr r0
     c14:	00002c00 	andeq	r2, r0, r0, lsl #24
     c18:	70000300 	andvc	r0, r0, r0, lsl #6
     c1c:	002c9f01 	eoreq	r9, ip, r1, lsl #30
     c20:	00400000 	subeq	r0, r0, r0
     c24:	00010000 	andeq	r0, r1, r0
     c28:	00000050 	andeq	r0, r0, r0, asr r0
     c2c:	00000000 	andeq	r0, r0, r0
     c30:	00001400 	andeq	r1, r0, r0, lsl #8
     c34:	00001800 	andeq	r1, r0, r0, lsl #16
     c38:	51000100 	mrspl	r0, (UNDEF: 16)
     c3c:	00000018 	andeq	r0, r0, r8, lsl r0
     c40:	00000040 	andeq	r0, r0, r0, asr #32
     c44:	01f30004 	mvnseq	r0, r4
     c48:	00009f51 	andeq	r9, r0, r1, asr pc
     c4c:	00000000 	andeq	r0, r0, r0
     c50:	00400000 	subeq	r0, r0, r0
     c54:	00600000 	rsbeq	r0, r0, r0
     c58:	00010000 	andeq	r0, r1, r0
     c5c:	00006050 	andeq	r6, r0, r0, asr r0
     c60:	00006c00 	andeq	r6, r0, r0, lsl #24
     c64:	71000300 	mrsvc	r0, LR_irq
     c68:	006c9f01 	rsbeq	r9, ip, r1, lsl #30
     c6c:	00740000 	rsbseq	r0, r4, r0
     c70:	00010000 	andeq	r0, r1, r0
     c74:	00007451 	andeq	r7, r0, r1, asr r4
     c78:	00008000 	andeq	r8, r0, r0
     c7c:	71000300 	mrsvc	r0, LR_irq
     c80:	00009f01 	andeq	r9, r0, r1, lsl #30
     c84:	00000000 	andeq	r0, r0, r0
     c88:	00400000 	subeq	r0, r0, r0
     c8c:	00500000 	subseq	r0, r0, r0
     c90:	00010000 	andeq	r0, r1, r0
     c94:	00005051 	andeq	r5, r0, r1, asr r0
     c98:	00008000 	andeq	r8, r0, r0
     c9c:	f3000400 	vshl.u8	d0, d0, d0
     ca0:	009f5101 	addseq	r5, pc, r1, lsl #2
     ca4:	00000000 	andeq	r0, r0, r0
     ca8:	40000000 	andmi	r0, r0, r0
     cac:	58000000 	stmdapl	r0, {}	; <UNPREDICTABLE>
     cb0:	01000000 	mrseq	r0, (UNDEF: 0)
     cb4:	00585200 	subseq	r5, r8, r0, lsl #4
     cb8:	00640000 	rsbeq	r0, r4, r0
     cbc:	00010000 	andeq	r0, r1, r0
     cc0:	00006452 	andeq	r6, r0, r2, asr r4
     cc4:	00006800 	andeq	r6, r0, r0, lsl #16
     cc8:	72000300 	andvc	r0, r0, #0, 6
     ccc:	00689f01 	rsbeq	r9, r8, r1, lsl #30
     cd0:	00800000 	addeq	r0, r0, r0
     cd4:	00010000 	andeq	r0, r1, r0
     cd8:	00000052 	andeq	r0, r0, r2, asr r0
     cdc:	00000000 	andeq	r0, r0, r0
     ce0:	00004000 	andeq	r4, r0, r0
     ce4:	00005400 	andeq	r5, r0, r0, lsl #8
     ce8:	53000100 	movwpl	r0, #256	; 0x100
     cec:	00000054 	andeq	r0, r0, r4, asr r0
     cf0:	00000078 	andeq	r0, r0, r8, ror r0
     cf4:	00530001 	subseq	r0, r3, r1
     cf8:	00000000 	andeq	r0, r0, r0
     cfc:	48000000 	stmdami	r0, {}	; <UNPREDICTABLE>
     d00:	60000000 	andvs	r0, r0, r0
     d04:	01000000 	mrseq	r0, (UNDEF: 0)
     d08:	00605c00 	rsbeq	r5, r0, r0, lsl #24
     d0c:	00800000 	addeq	r0, r0, r0
     d10:	000a0000 	andeq	r0, sl, r0
     d14:	f35201f3 	vbsl	q8, q9, <illegal reg q9.5>
     d18:	231c5301 	tstcs	ip, #67108864	; 0x4000000
     d1c:	00009f01 	andeq	r9, r0, r1, lsl #30
     d20:	00000000 	andeq	r0, r0, r0
     d24:	00800000 	addeq	r0, r0, r0
     d28:	00a40000 	adceq	r0, r4, r0
     d2c:	00010000 	andeq	r0, r1, r0
     d30:	0000a450 	andeq	sl, r0, r0, asr r4
     d34:	00011800 	andeq	r1, r1, r0, lsl #16
     d38:	70000300 	andvc	r0, r0, r0, lsl #6
     d3c:	01189f02 	tsteq	r8, r2, lsl #30
     d40:	021c0000 	andseq	r0, ip, #0
     d44:	00040000 	andeq	r0, r4, r0
     d48:	9f5001f3 	svcls	0x005001f3
	...
     d54:	00000080 	andeq	r0, r0, r0, lsl #1
     d58:	000000f0 	strdeq	r0, [r0], -r0	; <UNPREDICTABLE>
     d5c:	f0510001 			; <UNDEFINED> instruction: 0xf0510001
     d60:	60000000 	andvs	r0, r0, r0
     d64:	01000001 	tsteq	r0, r1
     d68:	01605500 	cmneq	r0, r0, lsl #10
     d6c:	01680000 	cmneq	r8, r0
     d70:	00010000 	andeq	r0, r1, r0
     d74:	00016851 	andeq	r6, r1, r1, asr r8
     d78:	00018800 	andeq	r8, r1, r0, lsl #16
     d7c:	55000100 	strpl	r0, [r0, #-256]	; 0x100
     d80:	00000188 	andeq	r0, r0, r8, lsl #3
     d84:	0000019c 	muleq	r0, ip, r1
     d88:	9c510001 	mrrcls	0, 0, r0, r1, cr1
     d8c:	bc000001 	stclt	0, cr0, [r0], {1}
     d90:	01000001 	tsteq	r0, r1
     d94:	01bc5500 			; <UNDEFINED> instruction: 0x01bc5500
     d98:	01bf0000 			; <UNDEFINED> instruction: 0x01bf0000
     d9c:	00010000 	andeq	r0, r1, r0
     da0:	0001bf51 	andeq	fp, r1, r1, asr pc
     da4:	00020000 	andeq	r0, r2, r0
     da8:	55000100 	strpl	r0, [r0, #-256]	; 0x100
     dac:	00000200 	andeq	r0, r0, r0, lsl #4
     db0:	0000021c 	andeq	r0, r0, ip, lsl r2
     db4:	01f30004 	mvnseq	r0, r4
     db8:	00009f51 	andeq	r9, r0, r1, asr pc
     dbc:	00000000 	andeq	r0, r0, r0
     dc0:	00800000 	addeq	r0, r0, r0
     dc4:	00940000 	addseq	r0, r4, r0
     dc8:	00010000 	andeq	r0, r1, r0
     dcc:	00009452 	andeq	r9, r0, r2, asr r4
     dd0:	00020000 	andeq	r0, r2, r0
     dd4:	54000100 	strpl	r0, [r0], #-256	; 0x100
     dd8:	00000200 	andeq	r0, r0, r0, lsl #4
     ddc:	0000021c 	andeq	r0, r0, ip, lsl r2
     de0:	01f30004 	mvnseq	r0, r4
     de4:	00009f52 	andeq	r9, r0, r2, asr pc
     de8:	00000000 	andeq	r0, r0, r0
     dec:	00800000 	addeq	r0, r0, r0
     df0:	01000000 	mrseq	r0, (UNDEF: 0)
     df4:	00010000 	andeq	r0, r1, r0
     df8:	00010453 	andeq	r0, r1, r3, asr r4
     dfc:	00010800 	andeq	r0, r1, r0, lsl #16
     e00:	53000100 	movwpl	r0, #256	; 0x100
     e04:	00000160 	andeq	r0, r0, r0, ror #2
     e08:	00000168 	andeq	r0, r0, r8, ror #2
     e0c:	68530001 	ldmdavs	r3, {r0}^
     e10:	88000001 	stmdahi	r0, {r0}
     e14:	04000001 	streq	r0, [r0], #-1
     e18:	5301f300 	movwpl	pc, #4864	; 0x1300	; <UNPREDICTABLE>
     e1c:	0001889f 	muleq	r1, pc, r8	; <UNPREDICTABLE>
     e20:	00019000 	andeq	r9, r1, r0
     e24:	53000100 	movwpl	r0, #256	; 0x100
     e28:	00000190 	muleq	r0, r0, r1
     e2c:	00000194 	muleq	r0, r4, r1
     e30:	945c0001 	ldrbls	r0, [ip], #-1
     e34:	9c000001 	stcls	0, cr0, [r0], {1}
     e38:	01000001 	tsteq	r0, r1
     e3c:	019c5300 	orrseq	r5, ip, r0, lsl #6
     e40:	01bc0000 			; <UNDEFINED> instruction: 0x01bc0000
     e44:	00040000 	andeq	r0, r4, r0
     e48:	9f5301f3 	svcls	0x005301f3
     e4c:	000001bc 			; <UNDEFINED> instruction: 0x000001bc
     e50:	000001bf 			; <UNDEFINED> instruction: 0x000001bf
     e54:	bf530001 	svclt	0x00530001
     e58:	d8000001 	stmdale	r0, {r0}
     e5c:	04000001 	streq	r0, [r0], #-1
     e60:	5301f300 	movwpl	pc, #4864	; 0x1300	; <UNPREDICTABLE>
     e64:	0000009f 	muleq	r0, pc, r0	; <UNPREDICTABLE>
     e68:	00000000 	andeq	r0, r0, r0
     e6c:	00008000 	andeq	r8, r0, r0
     e70:	00009c00 	andeq	r9, r0, r0, lsl #24
     e74:	91000200 	mrsls	r0, R8_usr
     e78:	00009c00 	andeq	r9, r0, r0, lsl #24
     e7c:	0001bf00 	andeq	fp, r1, r0, lsl #30
     e80:	52000100 	andpl	r0, r0, #0, 2
     e84:	000001d8 	ldrdeq	r0, [r0], -r8
     e88:	000001e3 	andeq	r0, r0, r3, ror #3
     e8c:	00520001 	subseq	r0, r2, r1
     e90:	00000000 	andeq	r0, r0, r0
     e94:	9c000000 	stcls	0, cr0, [r0], {-0}
     e98:	18000000 	stmdane	r0, {}	; <UNPREDICTABLE>
     e9c:	01000001 	tsteq	r0, r1
     ea0:	01185d00 	tsteq	r8, r0, lsl #26
     ea4:	011c0000 	tsteq	ip, r0
     ea8:	00010000 	andeq	r0, r1, r0
     eac:	00011c53 	andeq	r1, r1, r3, asr ip
     eb0:	00012000 	andeq	r2, r1, r0
     eb4:	51000100 	mrspl	r0, (UNDEF: 16)
     eb8:	00000120 	andeq	r0, r0, r0, lsr #2
     ebc:	00000160 	andeq	r0, r0, r0, ror #2
     ec0:	60530001 	subsvs	r0, r3, r1
     ec4:	68000001 	stmdavs	r0, {r0}
     ec8:	01000001 	tsteq	r0, r1
     ecc:	01685d00 	cmneq	r8, r0, lsl #26
     ed0:	016c0000 	cmneq	ip, r0
     ed4:	00010000 	andeq	r0, r1, r0
     ed8:	00016c5e 	andeq	r6, r1, lr, asr ip
     edc:	00018800 	andeq	r8, r1, r0, lsl #16
     ee0:	53000100 	movwpl	r0, #256	; 0x100
     ee4:	00000188 	andeq	r0, r0, r8, lsl #3
     ee8:	00000190 	muleq	r0, r0, r1
     eec:	a1910004 	orrsge	r0, r1, r4
     ef0:	01909f7f 	orrseq	r9, r0, pc, ror pc
     ef4:	01940000 	orrseq	r0, r4, r0
     ef8:	00010000 	andeq	r0, r1, r0
     efc:	00019453 	andeq	r9, r1, r3, asr r4
     f00:	00019c00 	andeq	r9, r1, r0, lsl #24
     f04:	5d000100 	stfpls	f0, [r0, #-0]
     f08:	0000019c 	muleq	r0, ip, r1
     f0c:	000001a0 	andeq	r0, r0, r0, lsr #3
     f10:	a05e0001 	subsge	r0, lr, r1
     f14:	bc000001 	stclt	0, cr0, [r0], {1}
     f18:	01000001 	tsteq	r0, r1
     f1c:	01bc5300 			; <UNDEFINED> instruction: 0x01bc5300
     f20:	01d80000 	bicseq	r0, r8, r0
     f24:	00010000 	andeq	r0, r1, r0
     f28:	0001d85d 	andeq	sp, r1, sp, asr r8
     f2c:	0001e300 	andeq	lr, r1, r0, lsl #6
     f30:	53000100 	movwpl	r0, #256	; 0x100
	...
     f3c:	000000a0 	andeq	r0, r0, r0, lsr #1
     f40:	000000ec 	andeq	r0, r0, ip, ror #1
     f44:	ec5c0001 	mrrc	0, 0, r0, ip, cr1
     f48:	00000000 	andeq	r0, r0, r0
     f4c:	01000001 	tsteq	r0, r1
     f50:	01005300 	mrseq	r5, LR_irq
     f54:	01040000 	mrseq	r0, (UNDEF: 4)
     f58:	00010000 	andeq	r0, r1, r0
     f5c:	0001045c 	andeq	r0, r1, ip, asr r4
     f60:	00010800 	andeq	r0, r1, r0, lsl #16
     f64:	53000100 	movwpl	r0, #256	; 0x100
     f68:	00000108 	andeq	r0, r0, r8, lsl #2
     f6c:	00000118 	andeq	r0, r0, r8, lsl r1
     f70:	185c0001 	ldmdane	ip, {r0}^
     f74:	1c000001 	stcne	0, cr0, [r0], {1}
     f78:	01000001 	tsteq	r0, r1
     f7c:	011c5000 	tsteq	ip, r0
     f80:	013c0000 	teqeq	ip, r0
     f84:	00010000 	andeq	r0, r1, r0
     f88:	0001445c 	andeq	r4, r1, ip, asr r4
     f8c:	00015800 	andeq	r5, r1, r0, lsl #16
     f90:	50000100 	andpl	r0, r0, r0, lsl #2
     f94:	00000158 	andeq	r0, r0, r8, asr r1
     f98:	00000160 	andeq	r0, r0, r0, ror #2
     f9c:	605c0001 	subsvs	r0, ip, r1
     fa0:	68000001 	stmdavs	r0, {r0}
     fa4:	01000001 	tsteq	r0, r1
     fa8:	01685300 	cmneq	r8, r0, lsl #6
     fac:	01780000 	cmneq	r8, r0
     fb0:	00010000 	andeq	r0, r1, r0
     fb4:	0001785c 	andeq	r7, r1, ip, asr r8
     fb8:	00018000 	andeq	r8, r1, r0
     fbc:	7c000500 	cfstr32vc	mvfx0, [r0], {-0}
     fc0:	9f253400 	svcls	0x00253400
     fc4:	00000180 	andeq	r0, r0, r0, lsl #3
     fc8:	00000188 	andeq	r0, r0, r8, lsl #3
     fcc:	885c0001 	ldmdahi	ip, {r0}^
     fd0:	90000001 	andls	r0, r0, r1
     fd4:	01000001 	tsteq	r0, r1
     fd8:	01905300 	orrseq	r5, r0, r0, lsl #6
     fdc:	01940000 	orrseq	r0, r4, r0
     fe0:	00010000 	andeq	r0, r1, r0
     fe4:	0001945c 	andeq	r9, r1, ip, asr r4
     fe8:	00019c00 	andeq	r9, r1, r0, lsl #24
     fec:	53000100 	movwpl	r0, #256	; 0x100
     ff0:	0000019c 	muleq	r0, ip, r1
     ff4:	000001ac 	andeq	r0, r0, ip, lsr #3
     ff8:	ac5c0001 	mrrcge	0, 0, r0, ip, cr1
     ffc:	b4000001 	strlt	r0, [r0], #-1
    1000:	05000001 	streq	r0, [r0, #-1]
    1004:	31007c00 	tstcc	r0, r0, lsl #24
    1008:	01b49f25 			; <UNDEFINED> instruction: 0x01b49f25
    100c:	01bc0000 			; <UNDEFINED> instruction: 0x01bc0000
    1010:	00010000 	andeq	r0, r1, r0
    1014:	0001bc5c 	andeq	fp, r1, ip, asr ip
    1018:	0001bf00 	andeq	fp, r1, r0, lsl #30
    101c:	53000100 	movwpl	r0, #256	; 0x100
    1020:	000001bf 			; <UNDEFINED> instruction: 0x000001bf
    1024:	000001d8 	ldrdeq	r0, [r0], -r8
    1028:	01f30004 	mvnseq	r0, r4
    102c:	01d89f53 	bicseq	r9, r8, r3, asr pc
    1030:	01e30000 	mvneq	r0, r0
    1034:	00010000 	andeq	r0, r1, r0
    1038:	0000005c 	andeq	r0, r0, ip, asr r0
    103c:	00000000 	andeq	r0, r0, r0
    1040:	0000ec00 	andeq	lr, r0, r0, lsl #24
    1044:	0000fc00 	andeq	pc, r0, r0, lsl #24
    1048:	30000200 	andcc	r0, r0, r0, lsl #4
    104c:	0000fc9f 	muleq	r0, pc, ip	; <UNPREDICTABLE>
    1050:	00010400 	andeq	r0, r1, r0, lsl #8
    1054:	31000200 	mrscc	r0, R8_usr
    1058:	0001049f 	muleq	r1, pc, r4	; <UNPREDICTABLE>
    105c:	00010800 	andeq	r0, r1, r0, lsl #16
    1060:	30000200 	andcc	r0, r0, r0, lsl #4
    1064:	0000009f 	muleq	r0, pc, r0	; <UNPREDICTABLE>
    1068:	00000000 	andeq	r0, r0, r0
    106c:	00021c00 	andeq	r1, r2, r0, lsl #24
    1070:	00022b00 	andeq	r2, r2, r0, lsl #22
    1074:	50000100 	andpl	r0, r0, r0, lsl #2
    1078:	0000022b 	andeq	r0, r0, fp, lsr #4
    107c:	00000244 	andeq	r0, r0, r4, asr #4
    1080:	01f30004 	mvnseq	r0, r4
    1084:	02449f50 	subeq	r9, r4, #80, 30	; 0x140
    1088:	02700000 	rsbseq	r0, r0, #0
    108c:	00010000 	andeq	r0, r1, r0
    1090:	00000050 	andeq	r0, r0, r0, asr r0
    1094:	00000000 	andeq	r0, r0, r0
    1098:	00021c00 	andeq	r1, r2, r0, lsl #24
    109c:	00022b00 	andeq	r2, r2, r0, lsl #22
    10a0:	51000100 	mrspl	r0, (UNDEF: 16)
    10a4:	0000022b 	andeq	r0, r0, fp, lsr #4
    10a8:	00000244 	andeq	r0, r0, r4, asr #4
    10ac:	01f30004 	mvnseq	r0, r4
    10b0:	02449f51 	subeq	r9, r4, #324	; 0x144
    10b4:	02700000 	rsbseq	r0, r0, #0
    10b8:	00010000 	andeq	r0, r1, r0
    10bc:	00000051 	andeq	r0, r0, r1, asr r0
    10c0:	00000000 	andeq	r0, r0, r0
    10c4:	00027000 	andeq	r7, r2, r0
    10c8:	00029c00 	andeq	r9, r2, r0, lsl #24
    10cc:	50000100 	andpl	r0, r0, r0, lsl #2
    10d0:	0000029c 	muleq	r0, ip, r2
    10d4:	000004e4 	andeq	r0, r0, r4, ror #9
    10d8:	e45a0001 	ldrb	r0, [sl], #-1
    10dc:	f8000004 			; <UNDEFINED> instruction: 0xf8000004
    10e0:	04000004 	streq	r0, [r0], #-4
    10e4:	5001f300 	andpl	pc, r1, r0, lsl #6
    10e8:	0000009f 	muleq	r0, pc, r0	; <UNPREDICTABLE>
    10ec:	00000000 	andeq	r0, r0, r0
    10f0:	00027000 	andeq	r7, r2, r0
    10f4:	00028400 	andeq	r8, r2, r0, lsl #8
    10f8:	51000100 	mrspl	r0, (UNDEF: 16)
    10fc:	00000284 	andeq	r0, r0, r4, lsl #5
    1100:	0000029c 	muleq	r0, ip, r2
    1104:	01710003 	cmneq	r1, r3
    1108:	00029c9f 	muleq	r2, pc, ip	; <UNPREDICTABLE>
    110c:	0004f800 	andeq	pc, r4, r0, lsl #16
    1110:	f3000400 	vshl.u8	d0, d0, d0
    1114:	009f5101 	addseq	r5, pc, r1, lsl #2
    1118:	00000000 	andeq	r0, r0, r0
    111c:	70000000 	andvc	r0, r0, r0
    1120:	a4000002 	strge	r0, [r0], #-2
    1124:	01000002 	tsteq	r0, r2
    1128:	02a45200 	adceq	r5, r4, #0, 4
    112c:	02cc0000 	sbceq	r0, ip, #0
    1130:	00010000 	andeq	r0, r1, r0
    1134:	0002cc52 	andeq	ip, r2, r2, asr ip
    1138:	00049400 	andeq	r9, r4, r0, lsl #8
    113c:	56000100 	strpl	r0, [r0], -r0, lsl #2
    1140:	00000494 	muleq	r0, r4, r4
    1144:	000004f8 	strdeq	r0, [r0], -r8
    1148:	00520001 	subseq	r0, r2, r1
    114c:	00000000 	andeq	r0, r0, r0
    1150:	70000000 	andvc	r0, r0, r0
    1154:	8c000002 	stchi	0, cr0, [r0], {2}
    1158:	01000002 	tsteq	r0, r2
    115c:	00005300 	andeq	r5, r0, r0, lsl #6
    1160:	00000000 	andeq	r0, r0, r0
    1164:	02800000 	addeq	r0, r0, #0
    1168:	029c0000 	addseq	r0, ip, #0
    116c:	00010000 	andeq	r0, r1, r0
    1170:	00029c50 	andeq	r9, r2, r0, asr ip
    1174:	0002a000 	andeq	sl, r2, r0
    1178:	54000100 	strpl	r0, [r0], #-256	; 0x100
    117c:	000002a0 	andeq	r0, r0, r0, lsr #5
    1180:	000002ac 	andeq	r0, r0, ip, lsr #5
    1184:	01740003 	cmneq	r4, r3
    1188:	0002ac9f 	muleq	r2, pc, ip	; <UNPREDICTABLE>
    118c:	0002b800 	andeq	fp, r2, r0, lsl #16
    1190:	54000100 	strpl	r0, [r0], #-256	; 0x100
    1194:	000002b8 			; <UNDEFINED> instruction: 0x000002b8
    1198:	000002c4 	andeq	r0, r0, r4, asr #5
    119c:	01740003 	cmneq	r4, r3
    11a0:	0002c49f 	muleq	r2, pc, r4	; <UNPREDICTABLE>
    11a4:	00049800 	andeq	r9, r4, r0, lsl #16
    11a8:	54000100 	strpl	r0, [r0], #-256	; 0x100
    11ac:	00000498 	muleq	r0, r8, r4
    11b0:	000004a4 	andeq	r0, r0, r4, lsr #9
    11b4:	01740003 	cmneq	r4, r3
    11b8:	0004a49f 	muleq	r4, pc, r4	; <UNPREDICTABLE>
    11bc:	0004d000 	andeq	sp, r4, r0
    11c0:	54000100 	strpl	r0, [r0], #-256	; 0x100
    11c4:	000004d0 	ldrdeq	r0, [r0], -r0	; <UNPREDICTABLE>
    11c8:	000004dc 	ldrdeq	r0, [r0], -ip
    11cc:	dc500001 	mrrcle	0, 0, r0, r0, cr1	; <UNPREDICTABLE>
    11d0:	e4000004 	str	r0, [r0], #-4
    11d4:	03000004 	movweq	r0, #4
    11d8:	9f017400 	svcls	0x00017400
	...
    11e4:	00000288 	andeq	r0, r0, r8, lsl #5
    11e8:	000004e4 	andeq	r0, r0, r4, ror #9
    11ec:	e4580001 	ldrb	r0, [r8], #-1
    11f0:	f8000004 			; <UNDEFINED> instruction: 0xf8000004
    11f4:	0a000004 	beq	120c <_start-0x6df4>
    11f8:	5101f300 	mrspl	pc, SP_irq	; <UNPREDICTABLE>
    11fc:	225001f3 	subscs	r0, r0, #-1073741764	; 0xc000003c
    1200:	009f1c31 	addseq	r1, pc, r1, lsr ip	; <UNPREDICTABLE>
    1204:	00000000 	andeq	r0, r0, r0
    1208:	cc000000 	stcgt	0, cr0, [r0], {-0}
    120c:	d0000003 	andle	r0, r0, r3
    1210:	01000003 	tsteq	r0, r3
    1214:	03f05000 	mvnseq	r5, #0
    1218:	03f40000 	mvnseq	r0, #0
    121c:	00010000 	andeq	r0, r1, r0
    1220:	00041450 	andeq	r1, r4, r0, asr r4
    1224:	00041800 	andeq	r1, r4, r0, lsl #16
    1228:	50000100 	andpl	r0, r0, r0, lsl #2
    122c:	00000438 	andeq	r0, r0, r8, lsr r4
    1230:	0000043c 	andeq	r0, r0, ip, lsr r4
    1234:	44500001 	ldrbmi	r0, [r0], #-1
    1238:	48000004 	stmdami	r0, {r2}
    123c:	01000004 	tsteq	r0, r4
    1240:	04685000 	strbteq	r5, [r8], #-0
    1244:	046c0000 	strbteq	r0, [ip], #-0
    1248:	00010000 	andeq	r0, r1, r0
    124c:	00049050 	andeq	r9, r4, r0, asr r0
    1250:	0004b800 	andeq	fp, r4, r0, lsl #16
    1254:	50000100 	andpl	r0, r0, r0, lsl #2
	...
    1260:	000002cc 	andeq	r0, r0, ip, asr #5
    1264:	000002d4 	ldrdeq	r0, [r0], -r4
    1268:	9f300002 	svcls	0x00300002
    126c:	000002d4 	ldrdeq	r0, [r0], -r4
    1270:	000002d8 	ldrdeq	r0, [r0], -r8
    1274:	e4570001 	ldrb	r0, [r7], #-1
    1278:	b8000002 	stmdalt	r0, {r1}
    127c:	01000004 	tsteq	r0, r4
    1280:	00005700 	andeq	r5, r0, r0, lsl #14
	...
    128c:	000c0000 	andeq	r0, ip, r0
    1290:	00010000 	andeq	r0, r1, r0
    1294:	00000c50 	andeq	r0, r0, r0, asr ip
    1298:	00002000 	andeq	r2, r0, r0
    129c:	54000100 	strpl	r0, [r0], #-256	; 0x100
	...
    12a8:	00000034 	andeq	r0, r0, r4, lsr r0
    12ac:	0000003c 	andeq	r0, r0, ip, lsr r0
    12b0:	04730003 	ldrbteq	r0, [r3], #-3
    12b4:	00003c9f 	muleq	r0, pc, ip	; <UNPREDICTABLE>
    12b8:	00004700 	andeq	r4, r0, r0, lsl #14
    12bc:	53000100 	movwpl	r0, #256	; 0x100
	...
    12c8:	00000048 	andeq	r0, r0, r8, asr #32
    12cc:	00000074 	andeq	r0, r0, r4, ror r0
    12d0:	74500001 	ldrbvc	r0, [r0], #-1
    12d4:	83000000 	movwhi	r0, #0
    12d8:	03000000 	movweq	r0, #0
    12dc:	9f787300 	svcls	0x00787300
	...
    12e8:	00008ec0 	andeq	r8, r0, r0, asr #29
    12ec:	00008ec4 	andeq	r8, r0, r4, asr #29
    12f0:	9f300002 	svcls	0x00300002
    12f4:	00008ec4 	andeq	r8, r0, r4, asr #29
    12f8:	00008ec8 	andeq	r8, r0, r8, asr #29
    12fc:	00500001 	subseq	r0, r0, r1
    1300:	00000000 	andeq	r0, r0, r0
    1304:	d8000000 	stmdale	r0, {}	; <UNPREDICTABLE>
    1308:	dc00008e 	stcle	0, cr0, [r0], {142}	; 0x8e
    130c:	0200008e 	andeq	r0, r0, #142	; 0x8e
    1310:	dc9f3000 	ldcle	0, cr3, [pc], {0}
    1314:	e000008e 	and	r0, r0, lr, lsl #1
    1318:	0100008e 	smlabbeq	r0, lr, r0, r0
    131c:	8ee45300 	cdphi	3, 14, cr5, cr4, cr0, {0}
    1320:	8eec0000 	cdphi	0, 14, cr0, cr12, cr0, {0}
    1324:	00010000 	andeq	r0, r1, r0
    1328:	00000053 	andeq	r0, r0, r3, asr r0
	...
    1334:	00000400 	andeq	r0, r0, r0, lsl #8
    1338:	50000100 	andpl	r0, r0, r0, lsl #2
    133c:	00000004 	andeq	r0, r0, r4
    1340:	0000000c 	andeq	r0, r0, ip
    1344:	0c530001 	mrrceq	0, 0, r0, r3, cr1
    1348:	10000000 	andne	r0, r0, r0
    134c:	01000000 	mrseq	r0, (UNDEF: 0)
    1350:	00105000 	andseq	r5, r0, r0
    1354:	001c0000 	andseq	r0, ip, r0
    1358:	00010000 	andeq	r0, r1, r0
    135c:	00000053 	andeq	r0, r0, r3, asr r0
    1360:	00000000 	andeq	r0, r0, r0
    1364:	00003c00 	andeq	r3, r0, r0, lsl #24
    1368:	00004700 	andeq	r4, r0, r0, lsl #14
    136c:	50000100 	andpl	r0, r0, r0, lsl #2
    1370:	00000047 	andeq	r0, r0, r7, asr #32
    1374:	00000060 	andeq	r0, r0, r0, rrx
    1378:	00550001 	subseq	r0, r5, r1
    137c:	00000000 	andeq	r0, r0, r0
    1380:	50000000 	andpl	r0, r0, r0
    1384:	54000000 	strpl	r0, [r0], #-0
    1388:	01000000 	mrseq	r0, (UNDEF: 0)
    138c:	00005000 	andeq	r5, r0, r0
    1390:	00000000 	andeq	r0, r0, r0
    1394:	00600000 	rsbeq	r0, r0, r0
    1398:	006c0000 	rsbeq	r0, ip, r0
    139c:	00010000 	andeq	r0, r1, r0
    13a0:	00006c50 	andeq	r6, r0, r0, asr ip
    13a4:	00007400 	andeq	r7, r0, r0, lsl #8
    13a8:	f3000400 	vshl.u8	d0, d0, d0
    13ac:	009f5001 	addseq	r5, pc, r1
    13b0:	00000000 	andeq	r0, r0, r0
    13b4:	74000000 	strvc	r0, [r0], #-0
    13b8:	80000000 	andhi	r0, r0, r0
    13bc:	01000000 	mrseq	r0, (UNDEF: 0)
    13c0:	00805000 	addeq	r5, r0, r0
    13c4:	00880000 	addeq	r0, r8, r0
    13c8:	00040000 	andeq	r0, r4, r0
    13cc:	9f5001f3 	svcls	0x005001f3
	...
    13dc:	00000090 	muleq	r0, r0, r0
    13e0:	90500001 	subsls	r0, r0, r1
    13e4:	d4000000 	strle	r0, [r0], #-0
    13e8:	01000000 	mrseq	r0, (UNDEF: 0)
    13ec:	00005400 	andeq	r5, r0, r0, lsl #8
    13f0:	00000000 	andeq	r0, r0, r0
    13f4:	00480000 	subeq	r0, r8, r0
    13f8:	004c0000 	subeq	r0, ip, r0
    13fc:	00010000 	andeq	r0, r1, r0
    1400:	00005455 	andeq	r5, r0, r5, asr r4
    1404:	00005800 	andeq	r5, r0, r0, lsl #16
    1408:	55000100 	strpl	r0, [r0, #-256]	; 0x100
    140c:	00000060 	andeq	r0, r0, r0, rrx
    1410:	00000064 	andeq	r0, r0, r4, rrx
    1414:	6c550001 	mrrcvs	0, 0, r0, r5, cr1
    1418:	70000000 	andvc	r0, r0, r0
    141c:	01000000 	mrseq	r0, (UNDEF: 0)
    1420:	00785500 	rsbseq	r5, r8, r0, lsl #10
    1424:	007c0000 	rsbseq	r0, ip, r0
    1428:	00010000 	andeq	r0, r1, r0
    142c:	00008455 	andeq	r8, r0, r5, asr r4
    1430:	00008800 	andeq	r8, r0, r0, lsl #16
    1434:	55000100 	strpl	r0, [r0, #-256]	; 0x100
    1438:	0000008c 	andeq	r0, r0, ip, lsl #1
    143c:	000000d4 	ldrdeq	r0, [r0], -r4
    1440:	00550001 	subseq	r0, r5, r1
    1444:	00000000 	andeq	r0, r0, r0
    1448:	1c000000 	stcne	0, cr0, [r0], {-0}
    144c:	44000000 	strmi	r0, [r0], #-0
    1450:	01000000 	mrseq	r0, (UNDEF: 0)
    1454:	00445300 	subeq	r5, r4, r0, lsl #6
    1458:	004c0000 	subeq	r0, ip, r0
    145c:	001c0000 	andseq	r0, ip, r0
    1460:	2cf70070 	ldclcs	0, cr0, [r7], #448	; 0x1c0
    1464:	25f425f7 	ldrbcs	r2, [r4, #1527]!	; 0x5f7
    1468:	cccccd08 	stclgt	13, cr12, [ip], {8}
    146c:	000000cc 	andeq	r0, r0, ip, asr #1
    1470:	20081e00 	andcs	r1, r8, r0, lsl #28
    1474:	f72525f7 			; <UNDEFINED> instruction: 0xf72525f7
    1478:	9f25332c 	svcls	0x0025332c
    147c:	0000004c 	andeq	r0, r0, ip, asr #32
    1480:	00000050 	andeq	r0, r0, r0, asr r0
    1484:	50530001 	subspl	r0, r3, r1
    1488:	58000000 	stmdapl	r0, {}	; <UNPREDICTABLE>
    148c:	1c000000 	stcne	0, cr0, [r0], {-0}
    1490:	f7007000 			; <UNDEFINED> instruction: 0xf7007000
    1494:	f425f72c 	vld1.8	{d15}, [r5 :128], ip
    1498:	cccd0825 	stclgt	8, cr0, [sp], {37}	; 0x25
    149c:	0000cccc 	andeq	ip, r0, ip, asr #25
    14a0:	081e0000 	ldmdaeq	lr, {}	; <UNPREDICTABLE>
    14a4:	2525f720 	strcs	pc, [r5, #-1824]!	; 0x720
    14a8:	25332cf7 	ldrcs	r2, [r3, #-3319]!	; 0xcf7
    14ac:	0000589f 	muleq	r0, pc, r8	; <UNPREDICTABLE>
    14b0:	00005c00 	andeq	r5, r0, r0, lsl #24
    14b4:	53000100 	movwpl	r0, #256	; 0x100
    14b8:	0000005c 	andeq	r0, r0, ip, asr r0
    14bc:	00000064 	andeq	r0, r0, r4, rrx
    14c0:	0070001c 	rsbseq	r0, r0, ip, lsl r0
    14c4:	25f72cf7 	ldrbcs	r2, [r7, #3319]!	; 0xcf7
    14c8:	cd0825f4 	cfstr32gt	mvfx2, [r8, #-976]	; 0xfffffc30
    14cc:	00cccccc 	sbceq	ip, ip, ip, asr #25
    14d0:	1e000000 	cdpne	0, 0, cr0, cr0, cr0, {0}
    14d4:	25f72008 	ldrbcs	r2, [r7, #8]!
    14d8:	332cf725 	msrcc	CPSR_fs, #9699328	; 0x940000
    14dc:	00649f25 	rsbeq	r9, r4, r5, lsr #30
    14e0:	00680000 	rsbeq	r0, r8, r0
    14e4:	00010000 	andeq	r0, r1, r0
    14e8:	00006853 	andeq	r6, r0, r3, asr r8
    14ec:	00007000 	andeq	r7, r0, r0
    14f0:	70001c00 	andvc	r1, r0, r0, lsl #24
    14f4:	f72cf700 			; <UNDEFINED> instruction: 0xf72cf700
    14f8:	0825f425 	stmdaeq	r5!, {r0, r2, r5, sl, ip, sp, lr, pc}
    14fc:	cccccccd 	stclgt	12, cr12, [ip], {205}	; 0xcd
    1500:	00000000 	andeq	r0, r0, r0
    1504:	f720081e 			; <UNDEFINED> instruction: 0xf720081e
    1508:	2cf72525 	cfldr64cs	mvdx2, [r7], #148	; 0x94
    150c:	709f2533 	addsvc	r2, pc, r3, lsr r5	; <UNPREDICTABLE>
    1510:	74000000 	strvc	r0, [r0], #-0
    1514:	01000000 	mrseq	r0, (UNDEF: 0)
    1518:	00745300 	rsbseq	r5, r4, r0, lsl #6
    151c:	007c0000 	rsbseq	r0, ip, r0
    1520:	001c0000 	andseq	r0, ip, r0
    1524:	2cf70070 	ldclcs	0, cr0, [r7], #448	; 0x1c0
    1528:	25f425f7 	ldrbcs	r2, [r4, #1527]!	; 0x5f7
    152c:	cccccd08 	stclgt	13, cr12, [ip], {8}
    1530:	000000cc 	andeq	r0, r0, ip, asr #1
    1534:	20081e00 	andcs	r1, r8, r0, lsl #28
    1538:	f72525f7 			; <UNDEFINED> instruction: 0xf72525f7
    153c:	9f25332c 	svcls	0x0025332c
    1540:	0000007c 	andeq	r0, r0, ip, ror r0
    1544:	00000080 	andeq	r0, r0, r0, lsl #1
    1548:	80530001 	subshi	r0, r3, r1
    154c:	88000000 	stmdahi	r0, {}	; <UNPREDICTABLE>
    1550:	1c000000 	stcne	0, cr0, [r0], {-0}
    1554:	f7007000 			; <UNDEFINED> instruction: 0xf7007000
    1558:	f425f72c 	vld1.8	{d15}, [r5 :128], ip
    155c:	cccd0825 	stclgt	8, cr0, [sp], {37}	; 0x25
    1560:	0000cccc 	andeq	ip, r0, ip, asr #25
    1564:	081e0000 	ldmdaeq	lr, {}	; <UNPREDICTABLE>
    1568:	2525f720 	strcs	pc, [r5, #-1824]!	; 0x720
    156c:	25332cf7 	ldrcs	r2, [r3, #-3319]!	; 0xcf7
    1570:	0000889f 	muleq	r0, pc, r8	; <UNPREDICTABLE>
    1574:	00008c00 	andeq	r8, r0, r0, lsl #24
    1578:	53000100 	movwpl	r0, #256	; 0x100
    157c:	0000008c 	andeq	r0, r0, ip, lsl #1
    1580:	00000090 	muleq	r0, r0, r0
    1584:	0070001c 	rsbseq	r0, r0, ip, lsl r0
    1588:	25f72cf7 	ldrbcs	r2, [r7, #3319]!	; 0xcf7
    158c:	cd0825f4 	cfstr32gt	mvfx2, [r8, #-976]	; 0xfffffc30
    1590:	00cccccc 	sbceq	ip, ip, ip, asr #25
    1594:	1e000000 	cdpne	0, 0, cr0, cr0, cr0, {0}
    1598:	25f72008 	ldrbcs	r2, [r7, #8]!
    159c:	332cf725 	msrcc	CPSR_fs, #9699328	; 0x940000
    15a0:	00909f25 	addseq	r9, r0, r5, lsr #30
    15a4:	00980000 	addseq	r0, r8, r0
    15a8:	001c0000 	andseq	r0, ip, r0
    15ac:	2cf70074 	ldclcs	0, cr0, [r7], #464	; 0x1d0
    15b0:	25f425f7 	ldrbcs	r2, [r4, #1527]!	; 0x5f7
    15b4:	cccccd08 	stclgt	13, cr12, [ip], {8}
    15b8:	000000cc 	andeq	r0, r0, ip, asr #1
    15bc:	20081e00 	andcs	r1, r8, r0, lsl #28
    15c0:	f72525f7 			; <UNDEFINED> instruction: 0xf72525f7
    15c4:	9f25332c 	svcls	0x0025332c
    15c8:	00000098 	muleq	r0, r8, r0
    15cc:	0000009c 	muleq	r0, ip, r0
    15d0:	00740017 	rsbseq	r0, r4, r7, lsl r0
    15d4:	25f72cf7 	ldrbcs	r2, [r7, #3319]!	; 0xcf7
    15d8:	2cf70071 	ldclcs	0, cr0, [r7], #452	; 0x1c4
    15dc:	081e25f7 	ldmdaeq	lr, {r0, r1, r2, r4, r5, r6, r7, r8, sl, sp}
    15e0:	2525f720 	strcs	pc, [r5, #-1824]!	; 0x720
    15e4:	25332cf7 	ldrcs	r2, [r3, #-3319]!	; 0xcf7
    15e8:	00009c9f 	muleq	r0, pc, ip	; <UNPREDICTABLE>
    15ec:	0000d400 	andeq	sp, r0, r0, lsl #8
    15f0:	74001c00 	strvc	r1, [r0], #-3072	; 0xc00
    15f4:	f72cf700 			; <UNDEFINED> instruction: 0xf72cf700
    15f8:	0825f425 	stmdaeq	r5!, {r0, r2, r5, sl, ip, sp, lr, pc}
    15fc:	cccccccd 	stclgt	12, cr12, [ip], {205}	; 0xcd
    1600:	00000000 	andeq	r0, r0, r0
    1604:	f720081e 			; <UNDEFINED> instruction: 0xf720081e
    1608:	2cf72525 	cfldr64cs	mvdx2, [r7], #148	; 0x94
    160c:	009f2533 	addseq	r2, pc, r3, lsr r5	; <UNPREDICTABLE>
    1610:	00000000 	andeq	r0, r0, r0
    1614:	94000000 	strls	r0, [r0], #-0
    1618:	b8000000 	stmdalt	r0, {}	; <UNPREDICTABLE>
    161c:	01000000 	mrseq	r0, (UNDEF: 0)
    1620:	00b85000 	adcseq	r5, r8, r0
    1624:	00c40000 	sbceq	r0, r4, r0
    1628:	00080000 	andeq	r0, r8, r0
    162c:	24007131 	strcs	r7, [r0], #-305	; 0x131
    1630:	9f210073 	svcls	0x00210073
    1634:	000000c4 	andeq	r0, r0, r4, asr #1
    1638:	000000c7 	andeq	r0, r0, r7, asr #1
    163c:	00510001 	subseq	r0, r1, r1
    1640:	00000000 	andeq	r0, r0, r0
    1644:	d4000000 	strle	r0, [r0], #-0
    1648:	f8000000 			; <UNDEFINED> instruction: 0xf8000000
    164c:	01000000 	mrseq	r0, (UNDEF: 0)
    1650:	00f85000 	rscseq	r5, r8, r0
    1654:	010c0000 	mrseq	r0, (UNDEF: 12)
    1658:	00040000 	andeq	r0, r4, r0
    165c:	9f5001f3 	svcls	0x005001f3
	...
    1668:	000000e0 	andeq	r0, r0, r0, ror #1
    166c:	000000e8 	andeq	r0, r0, r8, ror #1
    1670:	9f300002 	svcls	0x00300002
    1674:	000000e8 	andeq	r0, r0, r8, ror #1
    1678:	000000e8 	andeq	r0, r0, r8, ror #1
    167c:	e8520001 	ldmda	r2, {r0}^
    1680:	f0000000 			; <UNDEFINED> instruction: 0xf0000000
    1684:	02000000 	andeq	r0, r0, #0
    1688:	f09f3000 			; <UNDEFINED> instruction: 0xf09f3000
    168c:	03000000 	movweq	r0, #0
    1690:	01000001 	tsteq	r0, r1
    1694:	00005200 	andeq	r5, r0, r0, lsl #4
    1698:	00000000 	andeq	r0, r0, r0
    169c:	00e00000 	rsceq	r0, r0, r0
    16a0:	00f40000 	rscseq	r0, r4, r0
    16a4:	00020000 	andeq	r0, r2, r0
    16a8:	00f49f30 	rscseq	r9, r4, r0, lsr pc
    16ac:	01000000 	mrseq	r0, (UNDEF: 0)
    16b0:	00050000 	andeq	r0, r5, r0
    16b4:	24007331 	strcs	r7, [r0], #-817	; 0x331
    16b8:	0001009f 	muleq	r1, pc, r0	; <UNPREDICTABLE>
    16bc:	00010300 	andeq	r0, r1, r0, lsl #6
    16c0:	51000100 	mrspl	r0, (UNDEF: 16)
    16c4:	00000103 	andeq	r0, r0, r3, lsl #2
    16c8:	0000010c 	andeq	r0, r0, ip, lsl #2
    16cc:	f3310008 	vhadd.u<illegal width 64>	d0, d1, d8
    16d0:	1a4f5001 	bne	13d56dc <__bss_end__+0x13caf74>
    16d4:	00009f24 	andeq	r9, r0, r4, lsr #30
    16d8:	00000000 	andeq	r0, r0, r0
    16dc:	010c0000 	mrseq	r0, (UNDEF: 12)
    16e0:	01300000 	teqeq	r0, r0
    16e4:	00010000 	andeq	r0, r1, r0
    16e8:	00013050 	andeq	r3, r1, r0, asr r0
    16ec:	00014400 	andeq	r4, r1, r0, lsl #8
    16f0:	f3000400 	vshl.u8	d0, d0, d0
    16f4:	009f5001 	addseq	r5, pc, r1
    16f8:	00000000 	andeq	r0, r0, r0
    16fc:	18000000 	stmdane	r0, {}	; <UNPREDICTABLE>
    1700:	20000001 	andcs	r0, r0, r1
    1704:	02000001 	andeq	r0, r0, #1
    1708:	209f3000 	addscs	r3, pc, r0
    170c:	20000001 	andcs	r0, r0, r1
    1710:	01000001 	tsteq	r0, r1
    1714:	01205200 	teqeq	r0, r0, lsl #4
    1718:	01280000 	teqeq	r8, r0
    171c:	00020000 	andeq	r0, r2, r0
    1720:	01289f30 	teqeq	r8, r0, lsr pc
    1724:	013b0000 	teqeq	fp, r0
    1728:	00010000 	andeq	r0, r1, r0
    172c:	00000052 	andeq	r0, r0, r2, asr r0
    1730:	00000000 	andeq	r0, r0, r0
    1734:	00011800 	andeq	r1, r1, r0, lsl #16
    1738:	00012c00 	andeq	r2, r1, r0, lsl #24
    173c:	30000200 	andcc	r0, r0, r0, lsl #4
    1740:	00012c9f 	muleq	r1, pc, ip	; <UNPREDICTABLE>
    1744:	00013800 	andeq	r3, r1, r0, lsl #16
    1748:	31000500 	tstcc	r0, r0, lsl #10
    174c:	9f240073 	svcls	0x00240073
    1750:	00000138 	andeq	r0, r0, r8, lsr r1
    1754:	0000013b 	andeq	r0, r0, fp, lsr r1
    1758:	3b510001 	blcc	1441764 <__bss_end__+0x1436ffc>
    175c:	44000001 	strmi	r0, [r0], #-1
    1760:	08000001 	stmdaeq	r0, {r0}
    1764:	01f33100 	mvnseq	r3, r0, lsl #2
    1768:	241a4f50 	ldrcs	r4, [sl], #-3920	; 0xf50
    176c:	0000009f 	muleq	r0, pc, r0	; <UNPREDICTABLE>
    1770:	00000000 	andeq	r0, r0, r0
    1774:	00014400 	andeq	r4, r1, r0, lsl #8
    1778:	0001d400 	andeq	sp, r1, r0, lsl #8
    177c:	50000100 	andpl	r0, r0, r0, lsl #2
    1780:	000001d4 	ldrdeq	r0, [r0], -r4
    1784:	00000210 	andeq	r0, r0, r0, lsl r2
    1788:	00540001 	subseq	r0, r4, r1
    178c:	00000000 	andeq	r0, r0, r0
    1790:	8c000000 	stchi	0, cr0, [r0], {-0}
    1794:	90000001 	andls	r0, r0, r1
    1798:	01000001 	tsteq	r0, r1
    179c:	01985500 	orrseq	r5, r8, r0, lsl #10
    17a0:	019c0000 	orrseq	r0, ip, r0
    17a4:	00010000 	andeq	r0, r1, r0
    17a8:	0001a455 	andeq	sl, r1, r5, asr r4
    17ac:	0001a800 	andeq	sl, r1, r0, lsl #16
    17b0:	55000100 	strpl	r0, [r0, #-256]	; 0x100
    17b4:	000001b0 			; <UNDEFINED> instruction: 0x000001b0
    17b8:	000001b4 			; <UNDEFINED> instruction: 0x000001b4
    17bc:	bc550001 	mrrclt	0, 0, r0, r5, cr1
    17c0:	c0000001 	andgt	r0, r0, r1
    17c4:	01000001 	tsteq	r0, r1
    17c8:	01c85500 	biceq	r5, r8, r0, lsl #10
    17cc:	01cc0000 	biceq	r0, ip, r0
    17d0:	00010000 	andeq	r0, r1, r0
    17d4:	0001d055 	andeq	sp, r1, r5, asr r0
    17d8:	00021000 	andeq	r1, r2, r0
    17dc:	55000100 	strpl	r0, [r0, #-256]	; 0x100
	...
    17e8:	00000160 	andeq	r0, r0, r0, ror #2
    17ec:	00000188 	andeq	r0, r0, r8, lsl #3
    17f0:	88530001 	ldmdahi	r3, {r0}^
    17f4:	90000001 	andls	r0, r0, r1
    17f8:	1c000001 	stcne	0, cr0, [r0], {1}
    17fc:	f7007000 			; <UNDEFINED> instruction: 0xf7007000
    1800:	f425f72c 	vld1.8	{d15}, [r5 :128], ip
    1804:	cccd0825 	stclgt	8, cr0, [sp], {37}	; 0x25
    1808:	0000cccc 	andeq	ip, r0, ip, asr #25
    180c:	081e0000 	ldmdaeq	lr, {}	; <UNPREDICTABLE>
    1810:	2525f720 	strcs	pc, [r5, #-1824]!	; 0x720
    1814:	25332cf7 	ldrcs	r2, [r3, #-3319]!	; 0xcf7
    1818:	0001909f 	muleq	r1, pc, r0	; <UNPREDICTABLE>
    181c:	00019400 	andeq	r9, r1, r0, lsl #8
    1820:	53000100 	movwpl	r0, #256	; 0x100
    1824:	00000194 	muleq	r0, r4, r1
    1828:	0000019c 	muleq	r0, ip, r1
    182c:	0070001c 	rsbseq	r0, r0, ip, lsl r0
    1830:	25f72cf7 	ldrbcs	r2, [r7, #3319]!	; 0xcf7
    1834:	cd0825f4 	cfstr32gt	mvfx2, [r8, #-976]	; 0xfffffc30
    1838:	00cccccc 	sbceq	ip, ip, ip, asr #25
    183c:	1e000000 	cdpne	0, 0, cr0, cr0, cr0, {0}
    1840:	25f72008 	ldrbcs	r2, [r7, #8]!
    1844:	332cf725 	msrcc	CPSR_fs, #9699328	; 0x940000
    1848:	019c9f25 	orrseq	r9, ip, r5, lsr #30
    184c:	01a00000 	moveq	r0, r0
    1850:	00010000 	andeq	r0, r1, r0
    1854:	0001a053 	andeq	sl, r1, r3, asr r0
    1858:	0001a800 	andeq	sl, r1, r0, lsl #16
    185c:	70001c00 	andvc	r1, r0, r0, lsl #24
    1860:	f72cf700 			; <UNDEFINED> instruction: 0xf72cf700
    1864:	0825f425 	stmdaeq	r5!, {r0, r2, r5, sl, ip, sp, lr, pc}
    1868:	cccccccd 	stclgt	12, cr12, [ip], {205}	; 0xcd
    186c:	00000000 	andeq	r0, r0, r0
    1870:	f720081e 			; <UNDEFINED> instruction: 0xf720081e
    1874:	2cf72525 	cfldr64cs	mvdx2, [r7], #148	; 0x94
    1878:	a89f2533 	ldmge	pc, {r0, r1, r4, r5, r8, sl, sp}	; <UNPREDICTABLE>
    187c:	ac000001 	stcge	0, cr0, [r0], {1}
    1880:	01000001 	tsteq	r0, r1
    1884:	01ac5300 			; <UNDEFINED> instruction: 0x01ac5300
    1888:	01b40000 			; <UNDEFINED> instruction: 0x01b40000
    188c:	001c0000 	andseq	r0, ip, r0
    1890:	2cf70070 	ldclcs	0, cr0, [r7], #448	; 0x1c0
    1894:	25f425f7 	ldrbcs	r2, [r4, #1527]!	; 0x5f7
    1898:	cccccd08 	stclgt	13, cr12, [ip], {8}
    189c:	000000cc 	andeq	r0, r0, ip, asr #1
    18a0:	20081e00 	andcs	r1, r8, r0, lsl #28
    18a4:	f72525f7 			; <UNDEFINED> instruction: 0xf72525f7
    18a8:	9f25332c 	svcls	0x0025332c
    18ac:	000001b4 			; <UNDEFINED> instruction: 0x000001b4
    18b0:	000001b8 			; <UNDEFINED> instruction: 0x000001b8
    18b4:	b8530001 	ldmdalt	r3, {r0}^
    18b8:	c0000001 	andgt	r0, r0, r1
    18bc:	1c000001 	stcne	0, cr0, [r0], {1}
    18c0:	f7007000 			; <UNDEFINED> instruction: 0xf7007000
    18c4:	f425f72c 	vld1.8	{d15}, [r5 :128], ip
    18c8:	cccd0825 	stclgt	8, cr0, [sp], {37}	; 0x25
    18cc:	0000cccc 	andeq	ip, r0, ip, asr #25
    18d0:	081e0000 	ldmdaeq	lr, {}	; <UNPREDICTABLE>
    18d4:	2525f720 	strcs	pc, [r5, #-1824]!	; 0x720
    18d8:	25332cf7 	ldrcs	r2, [r3, #-3319]!	; 0xcf7
    18dc:	0001c09f 	muleq	r1, pc, r0	; <UNPREDICTABLE>
    18e0:	0001c400 	andeq	ip, r1, r0, lsl #8
    18e4:	53000100 	movwpl	r0, #256	; 0x100
    18e8:	000001c4 	andeq	r0, r0, r4, asr #3
    18ec:	000001cc 	andeq	r0, r0, ip, asr #3
    18f0:	0070001c 	rsbseq	r0, r0, ip, lsl r0
    18f4:	25f72cf7 	ldrbcs	r2, [r7, #3319]!	; 0xcf7
    18f8:	cd0825f4 	cfstr32gt	mvfx2, [r8, #-976]	; 0xfffffc30
    18fc:	00cccccc 	sbceq	ip, ip, ip, asr #25
    1900:	1e000000 	cdpne	0, 0, cr0, cr0, cr0, {0}
    1904:	25f72008 	ldrbcs	r2, [r7, #8]!
    1908:	332cf725 	msrcc	CPSR_fs, #9699328	; 0x940000
    190c:	01cc9f25 	biceq	r9, ip, r5, lsr #30
    1910:	01d00000 	bicseq	r0, r0, r0
    1914:	00010000 	andeq	r0, r1, r0
    1918:	0001d053 	andeq	sp, r1, r3, asr r0
    191c:	0001d400 	andeq	sp, r1, r0, lsl #8
    1920:	70001c00 	andvc	r1, r0, r0, lsl #24
    1924:	f72cf700 			; <UNDEFINED> instruction: 0xf72cf700
    1928:	0825f425 	stmdaeq	r5!, {r0, r2, r5, sl, ip, sp, lr, pc}
    192c:	cccccccd 	stclgt	12, cr12, [ip], {205}	; 0xcd
    1930:	00000000 	andeq	r0, r0, r0
    1934:	f720081e 			; <UNDEFINED> instruction: 0xf720081e
    1938:	2cf72525 	cfldr64cs	mvdx2, [r7], #148	; 0x94
    193c:	d49f2533 	ldrle	r2, [pc], #1331	; 1944 <_start-0x66bc>
    1940:	dc000001 	stcle	0, cr0, [r0], {1}
    1944:	1c000001 	stcne	0, cr0, [r0], {1}
    1948:	f7007400 			; <UNDEFINED> instruction: 0xf7007400
    194c:	f425f72c 	vld1.8	{d15}, [r5 :128], ip
    1950:	cccd0825 	stclgt	8, cr0, [sp], {37}	; 0x25
    1954:	0000cccc 	andeq	ip, r0, ip, asr #25
    1958:	081e0000 	ldmdaeq	lr, {}	; <UNPREDICTABLE>
    195c:	2525f720 	strcs	pc, [r5, #-1824]!	; 0x720
    1960:	25332cf7 	ldrcs	r2, [r3, #-3319]!	; 0xcf7
    1964:	0001dc9f 	muleq	r1, pc, ip	; <UNPREDICTABLE>
    1968:	0001e000 	andeq	lr, r1, r0
    196c:	74001700 	strvc	r1, [r0], #-1792	; 0x700
    1970:	f72cf700 			; <UNDEFINED> instruction: 0xf72cf700
    1974:	f7007125 			; <UNDEFINED> instruction: 0xf7007125
    1978:	1e25f72c 	cdpne	7, 2, cr15, cr5, cr12, {1}
    197c:	25f72008 	ldrbcs	r2, [r7, #8]!
    1980:	332cf725 	msrcc	CPSR_fs, #9699328	; 0x940000
    1984:	01e09f25 	mvneq	r9, r5, lsr #30
    1988:	02100000 	andseq	r0, r0, #0
    198c:	001c0000 	andseq	r0, ip, r0
    1990:	2cf70074 	ldclcs	0, cr0, [r7], #464	; 0x1d0
    1994:	25f425f7 	ldrbcs	r2, [r4, #1527]!	; 0x5f7
    1998:	cccccd08 	stclgt	13, cr12, [ip], {8}
    199c:	000000cc 	andeq	r0, r0, ip, asr #1
    19a0:	20081e00 	andcs	r1, r8, r0, lsl #28
    19a4:	f72525f7 			; <UNDEFINED> instruction: 0xf72525f7
    19a8:	9f25332c 	svcls	0x0025332c
	...
    19b4:	000001d8 	ldrdeq	r0, [r0], -r8
    19b8:	000001fc 	strdeq	r0, [r0], -ip
    19bc:	fc500001 	mrrc2	0, 0, r0, r0, cr1	; <UNPREDICTABLE>
    19c0:	03000001 	movweq	r0, #1
    19c4:	01000002 	tsteq	r0, r2
    19c8:	00005100 	andeq	r5, r0, r0, lsl #2
    19cc:	00000000 	andeq	r0, r0, r0
    19d0:	02100000 	andseq	r0, r0, #0
    19d4:	022c0000 	eoreq	r0, ip, #0
    19d8:	00010000 	andeq	r0, r1, r0
    19dc:	00022c50 	andeq	r2, r2, r0, asr ip
    19e0:	00023400 	andeq	r3, r2, r0, lsl #8
    19e4:	54000100 	strpl	r0, [r0], #-256	; 0x100
    19e8:	00000234 	andeq	r0, r0, r4, lsr r2
    19ec:	0000023c 	andeq	r0, r0, ip, lsr r2
    19f0:	3c500001 	mrrccc	0, 0, r0, r0, cr1	; <UNPREDICTABLE>
    19f4:	44000002 	strmi	r0, [r0], #-2
    19f8:	01000002 	tsteq	r0, r2
    19fc:	02445400 	subeq	r5, r4, #0, 8
    1a00:	02500000 	subseq	r0, r0, #0
    1a04:	00040000 	andeq	r0, r4, r0
    1a08:	9f5001f3 	svcls	0x005001f3
    1a0c:	00000250 	andeq	r0, r0, r0, asr r2
    1a10:	00000254 	andeq	r0, r0, r4, asr r2
    1a14:	54500001 	ldrbpl	r0, [r0], #-1
    1a18:	5c000002 	stcpl	0, cr0, [r0], {2}
    1a1c:	01000002 	tsteq	r0, r2
    1a20:	00005400 	andeq	r5, r0, r0, lsl #8
    1a24:	00000000 	andeq	r0, r0, r0
    1a28:	02200000 	eoreq	r0, r0, #0
    1a2c:	02300000 	eorseq	r0, r0, #0
    1a30:	00020000 	andeq	r0, r2, r0
    1a34:	02309f30 	eorseq	r9, r0, #48, 30	; 0xc0
    1a38:	02340000 	eorseq	r0, r4, #0
    1a3c:	00010000 	andeq	r0, r1, r0
    1a40:	00023450 	andeq	r3, r2, r0, asr r4
    1a44:	00024000 	andeq	r4, r2, r0
    1a48:	30000200 	andcc	r0, r0, r0, lsl #4
    1a4c:	0002409f 	muleq	r2, pc, r0	; <UNPREDICTABLE>
    1a50:	00024c00 	andeq	r4, r2, r0, lsl #24
    1a54:	50000100 	andpl	r0, r0, r0, lsl #2
	...
    1a60:	0000025c 	andeq	r0, r0, ip, asr r2
    1a64:	00000290 	muleq	r0, r0, r2
    1a68:	90500001 	subsls	r0, r0, r1
    1a6c:	a0000002 	andge	r0, r0, r2
    1a70:	04000002 	streq	r0, [r0], #-2
    1a74:	5001f300 	andpl	pc, r1, r0, lsl #6
    1a78:	0002a09f 	muleq	r2, pc, r0	; <UNPREDICTABLE>
    1a7c:	0002c000 	andeq	ip, r2, r0
    1a80:	50000100 	andpl	r0, r0, r0, lsl #2
    1a84:	000002c0 	andeq	r0, r0, r0, asr #5
    1a88:	000002d4 	ldrdeq	r0, [r0], -r4
    1a8c:	01f30004 	mvnseq	r0, r4
    1a90:	00009f50 	andeq	r9, r0, r0, asr pc
    1a94:	00000000 	andeq	r0, r0, r0
    1a98:	025c0000 	subseq	r0, ip, #0
    1a9c:	02940000 	addseq	r0, r4, #0
    1aa0:	00010000 	andeq	r0, r1, r0
    1aa4:	00029451 	andeq	r9, r2, r1, asr r4
    1aa8:	0002a000 	andeq	sl, r2, r0
    1aac:	f3000400 	vshl.u8	d0, d0, d0
    1ab0:	a09f5101 	addsge	r5, pc, r1, lsl #2
    1ab4:	c4000002 	strgt	r0, [r0], #-2
    1ab8:	01000002 	tsteq	r0, r2
    1abc:	02c45100 	sbceq	r5, r4, #0, 2
    1ac0:	02d40000 	sbcseq	r0, r4, #0
    1ac4:	00040000 	andeq	r0, r4, r0
    1ac8:	9f5101f3 	svcls	0x005101f3
	...
    1ad4:	00000270 	andeq	r0, r0, r0, ror r2
    1ad8:	00000290 	muleq	r0, r0, r2
    1adc:	90500001 	subsls	r0, r0, r1
    1ae0:	a0000002 	andge	r0, r0, r2
    1ae4:	04000002 	streq	r0, [r0], #-2
    1ae8:	5001f300 	andpl	pc, r1, r0, lsl #6
    1aec:	0000009f 	muleq	r0, pc, r0	; <UNPREDICTABLE>
    1af0:	00000000 	andeq	r0, r0, r0
    1af4:	00027800 	andeq	r7, r2, r0, lsl #16
    1af8:	00028000 	andeq	r8, r2, r0
    1afc:	30000200 	andcc	r0, r0, r0, lsl #4
    1b00:	0002809f 	muleq	r2, pc, r0	; <UNPREDICTABLE>
    1b04:	00028000 	andeq	r8, r2, r0
    1b08:	52000100 	andpl	r0, r0, #0, 2
    1b0c:	00000280 	andeq	r0, r0, r0, lsl #5
    1b10:	00000288 	andeq	r0, r0, r8, lsl #5
    1b14:	9f300002 	svcls	0x00300002
    1b18:	00000288 	andeq	r0, r0, r8, lsl #5
    1b1c:	0000029b 	muleq	r0, fp, r2
    1b20:	00520001 	subseq	r0, r2, r1
    1b24:	00000000 	andeq	r0, r0, r0
    1b28:	78000000 	stmdavc	r0, {}	; <UNPREDICTABLE>
    1b2c:	8c000002 	stchi	0, cr0, [r0], {2}
    1b30:	02000002 	andeq	r0, r0, #2
    1b34:	8c9f3000 	ldchi	0, cr3, [pc], {0}
    1b38:	98000002 	stmdals	r0, {r1}
    1b3c:	05000002 	streq	r0, [r0, #-2]
    1b40:	00733100 	rsbseq	r3, r3, r0, lsl #2
    1b44:	02989f24 	addseq	r9, r8, #36, 30	; 0x90
    1b48:	029b0000 	addseq	r0, fp, #0
    1b4c:	00010000 	andeq	r0, r1, r0
    1b50:	00029b51 	andeq	r9, r2, r1, asr fp
    1b54:	0002a000 	andeq	sl, r2, r0
    1b58:	31000800 	tstcc	r0, r0, lsl #16
    1b5c:	4f5001f3 	svcmi	0x005001f3
    1b60:	009f241a 	addseq	r2, pc, sl, lsl r4	; <UNPREDICTABLE>
    1b64:	00000000 	andeq	r0, r0, r0
    1b68:	a0000000 	andge	r0, r0, r0
    1b6c:	c0000002 	andgt	r0, r0, r2
    1b70:	01000002 	tsteq	r0, r2
    1b74:	02c05000 	sbceq	r5, r0, #0
    1b78:	02d40000 	sbcseq	r0, r4, #0
    1b7c:	00040000 	andeq	r0, r4, r0
    1b80:	9f5001f3 	svcls	0x005001f3
	...
    1b8c:	000002a8 	andeq	r0, r0, r8, lsr #5
    1b90:	000002b0 			; <UNDEFINED> instruction: 0x000002b0
    1b94:	9f300002 	svcls	0x00300002
    1b98:	000002b0 			; <UNDEFINED> instruction: 0x000002b0
    1b9c:	000002b0 			; <UNDEFINED> instruction: 0x000002b0
    1ba0:	b0520001 	subslt	r0, r2, r1
    1ba4:	b8000002 	stmdalt	r0, {r1}
    1ba8:	02000002 	andeq	r0, r0, #2
    1bac:	b89f3000 	ldmlt	pc, {ip, sp}	; <UNPREDICTABLE>
    1bb0:	cb000002 	blgt	1bc0 <_start-0x6440>
    1bb4:	01000002 	tsteq	r0, r2
    1bb8:	00005200 	andeq	r5, r0, r0, lsl #4
    1bbc:	00000000 	andeq	r0, r0, r0
    1bc0:	02a80000 	adceq	r0, r8, #0
    1bc4:	02bc0000 	adcseq	r0, ip, #0
    1bc8:	00020000 	andeq	r0, r2, r0
    1bcc:	02bc9f30 	adcseq	r9, ip, #48, 30	; 0xc0
    1bd0:	02c80000 	sbceq	r0, r8, #0
    1bd4:	00050000 	andeq	r0, r5, r0
    1bd8:	24007331 	strcs	r7, [r0], #-817	; 0x331
    1bdc:	0002c89f 	muleq	r2, pc, r8	; <UNPREDICTABLE>
    1be0:	0002cb00 	andeq	ip, r2, r0, lsl #22
    1be4:	51000100 	mrspl	r0, (UNDEF: 16)
    1be8:	000002cb 	andeq	r0, r0, fp, asr #5
    1bec:	000002d4 	ldrdeq	r0, [r0], -r4
    1bf0:	f3310008 	vhadd.u<illegal width 64>	d0, d1, d8
    1bf4:	1a4f5001 	bne	13d5c00 <__bss_end__+0x13cb498>
    1bf8:	00009f24 	andeq	r9, r0, r4, lsr #30
    1bfc:	00000000 	andeq	r0, r0, r0
    1c00:	02d40000 	sbcseq	r0, r4, #0
    1c04:	036c0000 	cmneq	ip, #0
    1c08:	00010000 	andeq	r0, r1, r0
    1c0c:	00036c50 	andeq	r6, r3, r0, asr ip
    1c10:	0003ac00 	andeq	sl, r3, r0, lsl #24
    1c14:	54000100 	strpl	r0, [r0], #-256	; 0x100
	...
    1c20:	000002d4 	ldrdeq	r0, [r0], -r4
    1c24:	0000036f 	andeq	r0, r0, pc, ror #6
    1c28:	6f510001 	svcvs	0x00510001
    1c2c:	ac000003 	stcge	0, cr0, [r0], {3}
    1c30:	04000003 	streq	r0, [r0], #-3
    1c34:	5101f300 	mrspl	pc, SP_irq	; <UNPREDICTABLE>
    1c38:	0000009f 	muleq	r0, pc, r0	; <UNPREDICTABLE>
    1c3c:	00000000 	andeq	r0, r0, r0
    1c40:	00032400 	andeq	r2, r3, r0, lsl #8
    1c44:	00032800 	andeq	r2, r3, r0, lsl #16
    1c48:	56000100 	strpl	r0, [r0], -r0, lsl #2
    1c4c:	00000330 	andeq	r0, r0, r0, lsr r3
    1c50:	00000334 	andeq	r0, r0, r4, lsr r3
    1c54:	3c560001 	mrrccc	0, 0, r0, r6, cr1
    1c58:	40000003 	andmi	r0, r0, r3
    1c5c:	01000003 	tsteq	r0, r3
    1c60:	03485600 	movteq	r5, #34304	; 0x8600
    1c64:	034c0000 	movteq	r0, #49152	; 0xc000
    1c68:	00010000 	andeq	r0, r1, r0
    1c6c:	00035456 	andeq	r5, r3, r6, asr r4
    1c70:	00035800 	andeq	r5, r3, r0, lsl #16
    1c74:	56000100 	strpl	r0, [r0], -r0, lsl #2
    1c78:	00000360 	andeq	r0, r0, r0, ror #6
    1c7c:	00000364 	andeq	r0, r0, r4, ror #6
    1c80:	68560001 	ldmdavs	r6, {r0}^
    1c84:	ac000003 	stcge	0, cr0, [r0], {3}
    1c88:	01000003 	tsteq	r0, r3
    1c8c:	00005600 	andeq	r5, r0, r0, lsl #12
    1c90:	00000000 	andeq	r0, r0, r0
    1c94:	02f80000 	rscseq	r0, r8, #0
    1c98:	03200000 	teqeq	r0, #0
    1c9c:	00010000 	andeq	r0, r1, r0
    1ca0:	00032053 	andeq	r2, r3, r3, asr r0
    1ca4:	00032800 	andeq	r2, r3, r0, lsl #16
    1ca8:	70001c00 	andvc	r1, r0, r0, lsl #24
    1cac:	f72cf700 			; <UNDEFINED> instruction: 0xf72cf700
    1cb0:	0825f425 	stmdaeq	r5!, {r0, r2, r5, sl, ip, sp, lr, pc}
    1cb4:	cccccccd 	stclgt	12, cr12, [ip], {205}	; 0xcd
    1cb8:	00000000 	andeq	r0, r0, r0
    1cbc:	f720081e 			; <UNDEFINED> instruction: 0xf720081e
    1cc0:	2cf72525 	cfldr64cs	mvdx2, [r7], #148	; 0x94
    1cc4:	289f2533 	ldmcs	pc, {r0, r1, r4, r5, r8, sl, sp}	; <UNPREDICTABLE>
    1cc8:	2c000003 	stccs	0, cr0, [r0], {3}
    1ccc:	01000003 	tsteq	r0, r3
    1cd0:	032c5300 	teqeq	ip, #0, 6
    1cd4:	03340000 	teqeq	r4, #0
    1cd8:	001c0000 	andseq	r0, ip, r0
    1cdc:	2cf70070 	ldclcs	0, cr0, [r7], #448	; 0x1c0
    1ce0:	25f425f7 	ldrbcs	r2, [r4, #1527]!	; 0x5f7
    1ce4:	cccccd08 	stclgt	13, cr12, [ip], {8}
    1ce8:	000000cc 	andeq	r0, r0, ip, asr #1
    1cec:	20081e00 	andcs	r1, r8, r0, lsl #28
    1cf0:	f72525f7 			; <UNDEFINED> instruction: 0xf72525f7
    1cf4:	9f25332c 	svcls	0x0025332c
    1cf8:	00000334 	andeq	r0, r0, r4, lsr r3
    1cfc:	00000338 	andeq	r0, r0, r8, lsr r3
    1d00:	38530001 	ldmdacc	r3, {r0}^
    1d04:	40000003 	andmi	r0, r0, r3
    1d08:	1c000003 	stcne	0, cr0, [r0], {3}
    1d0c:	f7007000 			; <UNDEFINED> instruction: 0xf7007000
    1d10:	f425f72c 	vld1.8	{d15}, [r5 :128], ip
    1d14:	cccd0825 	stclgt	8, cr0, [sp], {37}	; 0x25
    1d18:	0000cccc 	andeq	ip, r0, ip, asr #25
    1d1c:	081e0000 	ldmdaeq	lr, {}	; <UNPREDICTABLE>
    1d20:	2525f720 	strcs	pc, [r5, #-1824]!	; 0x720
    1d24:	25332cf7 	ldrcs	r2, [r3, #-3319]!	; 0xcf7
    1d28:	0003409f 	muleq	r3, pc, r0	; <UNPREDICTABLE>
    1d2c:	00034400 	andeq	r4, r3, r0, lsl #8
    1d30:	53000100 	movwpl	r0, #256	; 0x100
    1d34:	00000344 	andeq	r0, r0, r4, asr #6
    1d38:	0000034c 	andeq	r0, r0, ip, asr #6
    1d3c:	0070001c 	rsbseq	r0, r0, ip, lsl r0
    1d40:	25f72cf7 	ldrbcs	r2, [r7, #3319]!	; 0xcf7
    1d44:	cd0825f4 	cfstr32gt	mvfx2, [r8, #-976]	; 0xfffffc30
    1d48:	00cccccc 	sbceq	ip, ip, ip, asr #25
    1d4c:	1e000000 	cdpne	0, 0, cr0, cr0, cr0, {0}
    1d50:	25f72008 	ldrbcs	r2, [r7, #8]!
    1d54:	332cf725 	msrcc	CPSR_fs, #9699328	; 0x940000
    1d58:	034c9f25 	movteq	r9, #53029	; 0xcf25
    1d5c:	03500000 	cmpeq	r0, #0
    1d60:	00010000 	andeq	r0, r1, r0
    1d64:	00035053 	andeq	r5, r3, r3, asr r0
    1d68:	00035800 	andeq	r5, r3, r0, lsl #16
    1d6c:	70001c00 	andvc	r1, r0, r0, lsl #24
    1d70:	f72cf700 			; <UNDEFINED> instruction: 0xf72cf700
    1d74:	0825f425 	stmdaeq	r5!, {r0, r2, r5, sl, ip, sp, lr, pc}
    1d78:	cccccccd 	stclgt	12, cr12, [ip], {205}	; 0xcd
    1d7c:	00000000 	andeq	r0, r0, r0
    1d80:	f720081e 			; <UNDEFINED> instruction: 0xf720081e
    1d84:	2cf72525 	cfldr64cs	mvdx2, [r7], #148	; 0x94
    1d88:	589f2533 	ldmpl	pc, {r0, r1, r4, r5, r8, sl, sp}	; <UNPREDICTABLE>
    1d8c:	5c000003 	stcpl	0, cr0, [r0], {3}
    1d90:	01000003 	tsteq	r0, r3
    1d94:	035c5300 	cmpeq	ip, #0, 6
    1d98:	03640000 	cmneq	r4, #0
    1d9c:	001c0000 	andseq	r0, ip, r0
    1da0:	2cf70070 	ldclcs	0, cr0, [r7], #448	; 0x1c0
    1da4:	25f425f7 	ldrbcs	r2, [r4, #1527]!	; 0x5f7
    1da8:	cccccd08 	stclgt	13, cr12, [ip], {8}
    1dac:	000000cc 	andeq	r0, r0, ip, asr #1
    1db0:	20081e00 	andcs	r1, r8, r0, lsl #28
    1db4:	f72525f7 			; <UNDEFINED> instruction: 0xf72525f7
    1db8:	9f25332c 	svcls	0x0025332c
    1dbc:	00000364 	andeq	r0, r0, r4, ror #6
    1dc0:	00000368 	andeq	r0, r0, r8, ror #6
    1dc4:	68530001 	ldmdavs	r3, {r0}^
    1dc8:	6c000003 	stcvs	0, cr0, [r0], {3}
    1dcc:	1c000003 	stcne	0, cr0, [r0], {3}
    1dd0:	f7007000 			; <UNDEFINED> instruction: 0xf7007000
    1dd4:	f425f72c 	vld1.8	{d15}, [r5 :128], ip
    1dd8:	cccd0825 	stclgt	8, cr0, [sp], {37}	; 0x25
    1ddc:	0000cccc 	andeq	ip, r0, ip, asr #25
    1de0:	081e0000 	ldmdaeq	lr, {}	; <UNPREDICTABLE>
    1de4:	2525f720 	strcs	pc, [r5, #-1824]!	; 0x720
    1de8:	25332cf7 	ldrcs	r2, [r3, #-3319]!	; 0xcf7
    1dec:	00036c9f 	muleq	r3, pc, ip	; <UNPREDICTABLE>
    1df0:	00037400 	andeq	r7, r3, r0, lsl #8
    1df4:	74001c00 	strvc	r1, [r0], #-3072	; 0xc00
    1df8:	f72cf700 			; <UNDEFINED> instruction: 0xf72cf700
    1dfc:	0825f425 	stmdaeq	r5!, {r0, r2, r5, sl, ip, sp, lr, pc}
    1e00:	cccccccd 	stclgt	12, cr12, [ip], {205}	; 0xcd
    1e04:	00000000 	andeq	r0, r0, r0
    1e08:	f720081e 			; <UNDEFINED> instruction: 0xf720081e
    1e0c:	2cf72525 	cfldr64cs	mvdx2, [r7], #148	; 0x94
    1e10:	749f2533 	ldrvc	r2, [pc], #1331	; 1e18 <_start-0x61e8>
    1e14:	78000003 	stmdavc	r0, {r0, r1}
    1e18:	17000003 	strne	r0, [r0, -r3]
    1e1c:	f7007400 			; <UNDEFINED> instruction: 0xf7007400
    1e20:	7325f72c 	msrvc	CPSR_sc, #44, 14	; 0xb00000
    1e24:	f72cf700 			; <UNDEFINED> instruction: 0xf72cf700
    1e28:	20081e25 	andcs	r1, r8, r5, lsr #28
    1e2c:	f72525f7 			; <UNDEFINED> instruction: 0xf72525f7
    1e30:	9f25332c 	svcls	0x0025332c
    1e34:	00000378 	andeq	r0, r0, r8, ror r3
    1e38:	000003ac 	andeq	r0, r0, ip, lsr #7
    1e3c:	0074001c 	rsbseq	r0, r4, ip, lsl r0
    1e40:	25f72cf7 	ldrbcs	r2, [r7, #3319]!	; 0xcf7
    1e44:	cd0825f4 	cfstr32gt	mvfx2, [r8, #-976]	; 0xfffffc30
    1e48:	00cccccc 	sbceq	ip, ip, ip, asr #25
    1e4c:	1e000000 	cdpne	0, 0, cr0, cr0, cr0, {0}
    1e50:	25f72008 	ldrbcs	r2, [r7, #8]!
    1e54:	332cf725 	msrcc	CPSR_fs, #9699328	; 0x940000
    1e58:	00009f25 	andeq	r9, r0, r5, lsr #30
    1e5c:	00000000 	andeq	r0, r0, r0
    1e60:	03700000 	cmneq	r0, #0
    1e64:	03940000 	orrseq	r0, r4, #0
    1e68:	00010000 	andeq	r0, r1, r0
    1e6c:	00039450 	andeq	r9, r3, r0, asr r4
    1e70:	00039c00 	andeq	r9, r3, r0, lsl #24
    1e74:	75000900 	strvc	r0, [r0, #-2304]	; 0x900
    1e78:	24007300 	strcs	r7, [r0], #-768	; 0x300
    1e7c:	9f210071 	svcls	0x00210071
    1e80:	0000039c 	muleq	r0, ip, r3
    1e84:	0000039f 	muleq	r0, pc, r3	; <UNPREDICTABLE>
    1e88:	00510001 	subseq	r0, r1, r1
    1e8c:	00000000 	andeq	r0, r0, r0
    1e90:	ac000000 	stcge	0, cr0, [r0], {-0}
    1e94:	b8000003 	stmdalt	r0, {r0, r1}
    1e98:	01000003 	tsteq	r0, r3
    1e9c:	03b85000 			; <UNDEFINED> instruction: 0x03b85000
    1ea0:	03d80000 	bicseq	r0, r8, #0
    1ea4:	00040000 	andeq	r0, r4, r0
    1ea8:	9f5001f3 	svcls	0x005001f3
	...
    1eb4:	000003d8 	ldrdeq	r0, [r0], -r8
    1eb8:	000003eb 	andeq	r0, r0, fp, ror #7
    1ebc:	eb500001 	bl	1401ec8 <__bss_end__+0x13f7760>
    1ec0:	24000003 	strcs	r0, [r0], #-3
    1ec4:	01000004 	tsteq	r0, r4
    1ec8:	04245400 	strteq	r5, [r4], #-1024	; 0x400
    1ecc:	045c0000 	ldrbeq	r0, [ip], #-0
    1ed0:	00040000 	andeq	r0, r4, r0
    1ed4:	9f5001f3 	svcls	0x005001f3
	...
    1ee0:	00000444 	andeq	r0, r0, r4, asr #8
    1ee4:	00000448 	andeq	r0, r0, r8, asr #8
    1ee8:	48500001 	ldmdami	r0, {r0}^
    1eec:	4f000004 	svcmi	0x00000004
    1ef0:	01000004 	tsteq	r0, r4
    1ef4:	00005100 	andeq	r5, r0, r0, lsl #2
    1ef8:	00000000 	andeq	r0, r0, r0
    1efc:	04000000 	streq	r0, [r0], #-0
    1f00:	04080000 	streq	r0, [r8], #-0
    1f04:	00010000 	andeq	r0, r1, r0
    1f08:	00040850 	andeq	r0, r4, r0, asr r8
    1f0c:	00040f00 	andeq	r0, r4, r0, lsl #30
    1f10:	51000100 	mrspl	r0, (UNDEF: 16)
	...
    1f1c:	00000420 	andeq	r0, r0, r0, lsr #8
    1f20:	0000042c 	andeq	r0, r0, ip, lsr #8
    1f24:	2c500001 	mrrccs	0, 0, r0, r0, cr1	; <UNPREDICTABLE>
    1f28:	33000004 	movwcc	r0, #4
    1f2c:	01000004 	tsteq	r0, r4
    1f30:	00005100 	andeq	r5, r0, r0, lsl #2
    1f34:	00000000 	andeq	r0, r0, r0
    1f38:	045c0000 	ldrbeq	r0, [ip], #-0
    1f3c:	046f0000 	strbteq	r0, [pc], #-0	; 1f44 <_start-0x60bc>
    1f40:	00010000 	andeq	r0, r1, r0
    1f44:	00046f50 	andeq	r6, r4, r0, asr pc
    1f48:	0004a800 	andeq	sl, r4, r0, lsl #16
    1f4c:	54000100 	strpl	r0, [r0], #-256	; 0x100
    1f50:	000004a8 	andeq	r0, r0, r8, lsr #9
    1f54:	000004e0 	andeq	r0, r0, r0, ror #9
    1f58:	01f30004 	mvnseq	r0, r4
    1f5c:	00009f50 	andeq	r9, r0, r0, asr pc
    1f60:	00000000 	andeq	r0, r0, r0
    1f64:	04c80000 	strbeq	r0, [r8], #0
    1f68:	04cc0000 	strbeq	r0, [ip], #0
    1f6c:	00010000 	andeq	r0, r1, r0
    1f70:	0004cc50 	andeq	ip, r4, r0, asr ip
    1f74:	0004d300 	andeq	sp, r4, r0, lsl #6
    1f78:	51000100 	mrspl	r0, (UNDEF: 16)
	...
    1f84:	00000484 	andeq	r0, r0, r4, lsl #9
    1f88:	0000048c 	andeq	r0, r0, ip, lsl #9
    1f8c:	8c500001 	mrrchi	0, 0, r0, r0, cr1	; <UNPREDICTABLE>
    1f90:	93000004 	movwls	r0, #4
    1f94:	01000004 	tsteq	r0, r4
    1f98:	00005100 	andeq	r5, r0, r0, lsl #2
    1f9c:	00000000 	andeq	r0, r0, r0
    1fa0:	04a40000 	strteq	r0, [r4], #0
    1fa4:	04b00000 	ldrteq	r0, [r0], #0
    1fa8:	00010000 	andeq	r0, r1, r0
    1fac:	0004b050 	andeq	fp, r4, r0, asr r0
    1fb0:	0004b700 	andeq	fp, r4, r0, lsl #14
    1fb4:	51000100 	mrspl	r0, (UNDEF: 16)
	...
    1fc0:	000004e0 	andeq	r0, r0, r0, ror #9
    1fc4:	000004f3 	strdeq	r0, [r0], -r3
    1fc8:	f3500001 	vhadd.u16	d16, d0, d1
    1fcc:	34000004 	strcc	r0, [r0], #-4
    1fd0:	01000005 	tsteq	r0, r5
    1fd4:	05345400 	ldreq	r5, [r4, #-1024]!	; 0x400
    1fd8:	05580000 	ldrbeq	r0, [r8, #-0]
    1fdc:	00040000 	andeq	r0, r4, r0
    1fe0:	9f5001f3 	svcls	0x005001f3
    1fe4:	00000558 	andeq	r0, r0, r8, asr r5
    1fe8:	0000055c 	andeq	r0, r0, ip, asr r5
    1fec:	5c500001 	mrrcpl	0, 0, r0, r0, cr1	; <UNPREDICTABLE>
    1ff0:	64000005 	strvs	r0, [r0], #-5
    1ff4:	01000005 	tsteq	r0, r5
    1ff8:	00005400 	andeq	r5, r0, r0, lsl #8
    1ffc:	00000000 	andeq	r0, r0, r0
    2000:	05080000 	streq	r0, [r8, #-0]
    2004:	05170000 	ldreq	r0, [r7, #-0]
    2008:	00080000 	andeq	r0, r8, r0
    200c:	24007431 	strcs	r7, [r0], #-1073	; 0x431
    2010:	9f1a0070 	svcls	0x001a0070
	...
    201c:	00000534 	andeq	r0, r0, r4, lsr r5
    2020:	0000054c 	andeq	r0, r0, ip, asr #10
    2024:	00540001 	subseq	r0, r4, r1
    2028:	00000000 	andeq	r0, r0, r0
    202c:	64000000 	strvs	r0, [r0], #-0
    2030:	77000005 	strvc	r0, [r0, -r5]
    2034:	01000005 	tsteq	r0, r5
    2038:	05775000 	ldrbeq	r5, [r7, #-0]!
    203c:	059c0000 	ldreq	r0, [ip]
    2040:	00010000 	andeq	r0, r1, r0
    2044:	00059c54 	andeq	r9, r5, r4, asr ip
    2048:	0005bc00 	andeq	fp, r5, r0, lsl #24
    204c:	f3000400 	vshl.u8	d0, d0, d0
    2050:	009f5001 	addseq	r5, pc, r1
    2054:	00000000 	andeq	r0, r0, r0
    2058:	fc000000 	stc2	0, cr0, [r0], {-0}
    205c:	04000000 	streq	r0, [r0], #-0
    2060:	01000001 	tsteq	r0, r1
    2064:	01045000 	mrseq	r5, (UNDEF: 4)
    2068:	01280000 	teqeq	r8, r0
    206c:	00010000 	andeq	r0, r1, r0
    2070:	00000054 	andeq	r0, r0, r4, asr r0
    2074:	00000000 	andeq	r0, r0, r0
    2078:	00003000 	andeq	r3, r0, r0
    207c:	00003c00 	andeq	r3, r0, r0, lsl #24
    2080:	30000200 	andcc	r0, r0, r0, lsl #4
    2084:	00003c9f 	muleq	r0, pc, ip	; <UNPREDICTABLE>
    2088:	00006800 	andeq	r6, r0, r0, lsl #16
    208c:	53000100 	movwpl	r0, #256	; 0x100
	...
    2098:	00000068 	andeq	r0, r0, r8, rrx
    209c:	00000077 	andeq	r0, r0, r7, ror r0
    20a0:	77500001 	ldrbvc	r0, [r0, -r1]
    20a4:	ac000000 	stcge	0, cr0, [r0], {-0}
    20a8:	01000000 	mrseq	r0, (UNDEF: 0)
    20ac:	00005400 	andeq	r5, r0, r0, lsl #8
    20b0:	00000000 	andeq	r0, r0, r0
    20b4:	00ac0000 	adceq	r0, ip, r0
    20b8:	00bb0000 	adcseq	r0, fp, r0
    20bc:	00010000 	andeq	r0, r1, r0
    20c0:	0000bb50 	andeq	fp, r0, r0, asr fp
    20c4:	0000f000 	andeq	pc, r0, r0
    20c8:	54000100 	strpl	r0, [r0], #-256	; 0x100
	...
    20d4:	000000f0 	strdeq	r0, [r0], -r0	; <UNPREDICTABLE>
    20d8:	000000ff 	strdeq	r0, [r0], -pc	; <UNPREDICTABLE>
    20dc:	ff500001 			; <UNDEFINED> instruction: 0xff500001
    20e0:	34000000 	strcc	r0, [r0], #-0
    20e4:	01000001 	tsteq	r0, r1
    20e8:	00005400 	andeq	r5, r0, r0, lsl #8
    20ec:	00000000 	andeq	r0, r0, r0
    20f0:	01340000 	teqeq	r4, r0
    20f4:	01430000 	mrseq	r0, (UNDEF: 67)
    20f8:	00010000 	andeq	r0, r1, r0
    20fc:	00014350 	andeq	r4, r1, r0, asr r3
    2100:	00017800 	andeq	r7, r1, r0, lsl #16
    2104:	54000100 	strpl	r0, [r0], #-256	; 0x100
	...
    2110:	00000178 	andeq	r0, r0, r8, ror r1
    2114:	00000187 	andeq	r0, r0, r7, lsl #3
    2118:	87500001 	ldrbhi	r0, [r0, -r1]
    211c:	bc000001 	stclt	0, cr0, [r0], {1}
    2120:	01000001 	tsteq	r0, r1
    2124:	00005400 	andeq	r5, r0, r0, lsl #8
    2128:	00000000 	andeq	r0, r0, r0
    212c:	01bc0000 			; <UNDEFINED> instruction: 0x01bc0000
    2130:	01cb0000 	biceq	r0, fp, r0
    2134:	00010000 	andeq	r0, r1, r0
    2138:	0001cb50 	andeq	ip, r1, r0, asr fp
    213c:	00020000 	andeq	r0, r2, r0
    2140:	54000100 	strpl	r0, [r0], #-256	; 0x100
	...
    2150:	00000004 	andeq	r0, r0, r4
    2154:	04520001 	ldrbeq	r0, [r2], #-1
    2158:	20000000 	andcs	r0, r0, r0
    215c:	04000000 	streq	r0, [r0], #-0
    2160:	5201f300 	andpl	pc, r1, #0, 6
    2164:	0000009f 	muleq	r0, pc, r0	; <UNPREDICTABLE>
	...
    2170:	00000c00 	andeq	r0, r0, r0, lsl #24
    2174:	50000100 	andpl	r0, r0, r0, lsl #2
    2178:	0000000c 	andeq	r0, r0, ip
    217c:	00000014 	andeq	r0, r0, r4, lsl r0
    2180:	01730003 	cmneq	r3, r3
    2184:	0000149f 	muleq	r0, pc, r4	; <UNPREDICTABLE>
    2188:	00002000 	andeq	r2, r0, r0
    218c:	53000100 	movwpl	r0, #256	; 0x100
	...

Disassembly of section .debug_aranges:

00000000 <.debug_aranges>:
   0:	0000001c 	andeq	r0, r0, ip, lsl r0
   4:	00000002 	andeq	r0, r0, r2
   8:	00040000 	andeq	r0, r4, r0
   c:	00000000 	andeq	r0, r0, r0
  10:	00008010 	andeq	r8, r0, r0, lsl r0
  14:	00000818 	andeq	r0, r0, r8, lsl r8
	...
  20:	0000001c 	andeq	r0, r0, ip, lsl r0
  24:	164a0002 	strbne	r0, [sl], -r2
  28:	00040000 	andeq	r0, r4, r0
  2c:	00000000 	andeq	r0, r0, r0
  30:	00008828 	andeq	r8, r0, r8, lsr #16
  34:	00000058 	andeq	r0, r0, r8, asr r0
	...
  40:	0000001c 	andeq	r0, r0, ip, lsl r0
  44:	17df0002 	ldrbne	r0, [pc, r2]
  48:	00040000 	andeq	r0, r4, r0
  4c:	00000000 	andeq	r0, r0, r0
  50:	00008880 	andeq	r8, r0, r0, lsl #17
  54:	0000003c 	andeq	r0, r0, ip, lsr r0
	...
  60:	0000001c 	andeq	r0, r0, ip, lsl r0
  64:	18f60002 	ldmne	r6!, {r1}^
  68:	00040000 	andeq	r0, r4, r0
  6c:	00000000 	andeq	r0, r0, r0
  70:	000088bc 			; <UNDEFINED> instruction: 0x000088bc
  74:	00000034 	andeq	r0, r0, r4, lsr r0
	...
  80:	0000001c 	andeq	r0, r0, ip, lsl r0
  84:	19e80002 	stmibne	r8!, {r1}^
  88:	00040000 	andeq	r0, r4, r0
  8c:	00000000 	andeq	r0, r0, r0
  90:	000088f0 	strdeq	r8, [r0], -r0
  94:	000004f8 	strdeq	r0, [r0], -r8
	...
  a0:	0000001c 	andeq	r0, r0, ip, lsl r0
  a4:	206d0002 	rsbcs	r0, sp, r2
  a8:	00040000 	andeq	r0, r4, r0
  ac:	00000000 	andeq	r0, r0, r0
  b0:	00008de8 	andeq	r8, r0, r8, ror #27
  b4:	00000028 	andeq	r0, r0, r8, lsr #32
	...
  c0:	0000001c 	andeq	r0, r0, ip, lsl r0
  c4:	21700002 	cmncs	r0, r2
  c8:	00040000 	andeq	r0, r4, r0
  cc:	00000000 	andeq	r0, r0, r0
  d0:	00008e10 	andeq	r8, r0, r0, lsl lr
  d4:	000000b0 	strheq	r0, [r0], -r0	; <UNPREDICTABLE>
	...
  e0:	0000001c 	andeq	r0, r0, ip, lsl r0
  e4:	24510002 	ldrbcs	r0, [r1], #-2
  e8:	00040000 	andeq	r0, r4, r0
  ec:	00000000 	andeq	r0, r0, r0
  f0:	00008ec0 	andeq	r8, r0, r0, asr #29
  f4:	00000074 	andeq	r0, r0, r4, ror r0
	...
 100:	0000001c 	andeq	r0, r0, ip, lsl r0
 104:	26020002 	strcs	r0, [r2], -r2
 108:	00040000 	andeq	r0, r4, r0
 10c:	00000000 	andeq	r0, r0, r0
 110:	00008f34 	andeq	r8, r0, r4, lsr pc
 114:	00000088 	andeq	r0, r0, r8, lsl #1
	...
 120:	0000001c 	andeq	r0, r0, ip, lsl r0
 124:	27de0002 	ldrbcs	r0, [lr, r2]
 128:	00040000 	andeq	r0, r4, r0
 12c:	00000000 	andeq	r0, r0, r0
 130:	00008fbc 			; <UNDEFINED> instruction: 0x00008fbc
 134:	000005bc 			; <UNDEFINED> instruction: 0x000005bc
	...
 140:	0000001c 	andeq	r0, r0, ip, lsl r0
 144:	30b10002 	adcscc	r0, r1, r2
 148:	00040000 	andeq	r0, r4, r0
 14c:	00000000 	andeq	r0, r0, r0
 150:	00009578 	andeq	r9, r0, r8, ror r5
 154:	00000154 	andeq	r0, r0, r4, asr r1
	...
 160:	0000001c 	andeq	r0, r0, ip, lsl r0
 164:	34b40002 	ldrtcc	r0, [r4], #2
 168:	00040000 	andeq	r0, r4, r0
 16c:	00000000 	andeq	r0, r0, r0
 170:	000096cc 	andeq	r9, r0, ip, asr #13
 174:	00000200 	andeq	r0, r0, r0, lsl #4
	...
 180:	0000001c 	andeq	r0, r0, ip, lsl r0
 184:	3a450002 	bcc	1140194 <__bss_end__+0x1135a2c>
 188:	00040000 	andeq	r0, r4, r0
 18c:	00000000 	andeq	r0, r0, r0
 190:	00009a08 	andeq	r9, r0, r8, lsl #20
 194:	00000050 	andeq	r0, r0, r0, asr r0
	...
 1a0:	0000001c 	andeq	r0, r0, ip, lsl r0
 1a4:	3c0c0002 	stccc	0, cr0, [ip], {2}
 1a8:	00040000 	andeq	r0, r4, r0
 1ac:	00000000 	andeq	r0, r0, r0
 1b0:	00009a58 	andeq	r9, r0, r8, asr sl
 1b4:	00000020 	andeq	r0, r0, r0, lsr #32
	...

Disassembly of section .debug_ranges:

00000000 <.debug_ranges>:
   0:	000007ac 	andeq	r0, r0, ip, lsr #15
   4:	000007b0 			; <UNDEFINED> instruction: 0x000007b0
   8:	000007b4 			; <UNDEFINED> instruction: 0x000007b4
   c:	000007e4 	andeq	r0, r0, r4, ror #15
	...
  18:	00000294 	muleq	r0, r4, r2
  1c:	00000298 	muleq	r0, r8, r2
  20:	000002c8 	andeq	r0, r0, r8, asr #5
  24:	000004b8 			; <UNDEFINED> instruction: 0x000004b8
	...
  30:	00008ec0 	andeq	r8, r0, r0, asr #29
  34:	00008f34 	andeq	r8, r0, r4, lsr pc
	...

Disassembly of section .debug_line:

00000000 <.debug_line>:
       0:	00000418 	andeq	r0, r0, r8, lsl r4
       4:	023a0002 	eorseq	r0, sl, #2
       8:	01020000 	mrseq	r0, (UNDEF: 2)
       c:	000d0efb 	strdeq	r0, [sp], -fp
      10:	01010101 	tsteq	r1, r1, lsl #2
      14:	01000000 	mrseq	r0, (UNDEF: 0)
      18:	2f010000 	svccs	0x00010000
      1c:	72657355 	rsbvc	r7, r5, #1409286145	; 0x54000001
      20:	72622f73 	rsbvc	r2, r2, #460	; 0x1cc
      24:	6a6e6169 	bvs	1b985d0 <__bss_end__+0x1b8de68>
      28:	442f6e75 	strtmi	r6, [pc], #-3701	; 30 <_start-0x7fd0>
      2c:	746b7365 	strbtvc	r7, [fp], #-869	; 0x365
      30:	732f706f 	teqvc	pc, #111	; 0x6f
      34:	6f6f6863 	svcvs	0x006f6863
      38:	69572f6c 	ldmdbvs	r7, {r2, r3, r5, r6, r8, r9, sl, fp, sp}^
      3c:	7265746e 	rsbvc	r7, r5, #1845493760	; 0x6e000000
      40:	30323931 	eorscc	r3, r2, r1, lsr r9
      44:	3153432f 	cmpcc	r3, pc, lsr #6
      48:	2f453034 	svccs	0x00453034
      4c:	34317363 	ldrtcc	r7, [r1], #-867	; 0x363
      50:	322d6530 	eorcc	r6, sp, #48, 10	; 0xc000000
      54:	6e697730 	mcrvs	7, 3, r7, cr9, cr0, {1}
      58:	62696c2f 	rsbvs	r6, r9, #12032	; 0x2f00
      5c:	632f6970 	teqvs	pc, #112, 18	; 0x1c0000
      60:	30343173 	eorscc	r3, r4, r3, ror r1
      64:	72732d65 	rsbsvc	r2, r3, #6464	; 0x1940
      68:	752f0063 	strvc	r0, [pc, #-99]!	; d <_start-0x7ff3>
      6c:	6c2f7273 	sfmvs	f7, 4, [pc], #-460	; fffffea8 <__bss_end__+0xffff5740>
      70:	6c61636f 	stclvs	3, cr6, [r1], #-444	; 0xfffffe44
      74:	6c65432f 	stclvs	3, cr4, [r5], #-188	; 0xffffff44
      78:	2f72616c 	svccs	0x0072616c
      7c:	2d6d7261 	sfmcs	f7, 2, [sp, #-388]!	; 0xfffffe7c
      80:	656e6f6e 	strbvs	r6, [lr, #-3950]!	; 0xf6e
      84:	6261652d 	rsbvs	r6, r1, #188743680	; 0xb400000
      88:	2e342f69 	cdpcs	15, 3, cr2, cr4, cr9, {3}
      8c:	2d332e38 	ldccs	14, cr2, [r3, #-224]!	; 0xffffff20
      90:	37317363 	ldrcc	r7, [r1, -r3, ror #6]!
      94:	6c2f6530 	cfstr32vs	mvfx6, [pc], #-192	; ffffffdc <__bss_end__+0xffff5874>
      98:	672f6269 	strvs	r6, [pc, -r9, ror #4]!
      9c:	612f6363 	teqvs	pc, r3, ror #6
      a0:	6e2d6d72 	mcrvs	13, 1, r6, cr13, cr2, {3}
      a4:	2d656e6f 	stclcs	14, cr6, [r5, #-444]!	; 0xfffffe44
      a8:	69626165 	stmdbvs	r2!, {r0, r2, r5, r6, r8, sp, lr}^
      ac:	382e342f 	stmdacc	lr!, {r0, r1, r2, r3, r5, sl, ip, sp}
      b0:	692f332e 	stmdbvs	pc!, {r1, r2, r3, r5, r8, r9, ip, sp}	; <UNPREDICTABLE>
      b4:	756c636e 	strbvc	r6, [ip, #-878]!	; 0x36e
      b8:	2f006564 	svccs	0x00006564
      bc:	72657355 	rsbvc	r7, r5, #1409286145	; 0x54000001
      c0:	72622f73 	rsbvc	r2, r2, #460	; 0x1cc
      c4:	6a6e6169 	bvs	1b98670 <__bss_end__+0x1b8df08>
      c8:	442f6e75 	strtmi	r6, [pc], #-3701	; d0 <_start-0x7f30>
      cc:	746b7365 	strbtvc	r7, [fp], #-869	; 0x365
      d0:	732f706f 	teqvc	pc, #111	; 0x6f
      d4:	6f6f6863 	svcvs	0x006f6863
      d8:	69572f6c 	ldmdbvs	r7, {r2, r3, r5, r6, r8, r9, sl, fp, sp}^
      dc:	7265746e 	rsbvc	r7, r5, #1845493760	; 0x6e000000
      e0:	30323931 	eorscc	r3, r2, r1, lsr r9
      e4:	3153432f 	cmpcc	r3, pc, lsr #6
      e8:	2f453034 	svccs	0x00453034
      ec:	34317363 	ldrtcc	r7, [r1], #-867	; 0x363
      f0:	322d6530 	eorcc	r6, sp, #48, 10	; 0xc000000
      f4:	6e697730 	mcrvs	7, 3, r7, cr9, cr0, {1}
      f8:	62696c2f 	rsbvs	r6, r9, #12032	; 0x2f00
      fc:	632f6970 	teqvs	pc, #112, 18	; 0x1c0000
     100:	30343173 	eorscc	r3, r4, r3, ror r1
     104:	6e692d65 	cdpvs	13, 6, cr2, cr9, cr5, {3}
     108:	72726574 	rsbsvc	r6, r2, #116, 10	; 0x1d000000
     10c:	00747075 	rsbseq	r7, r4, r5, ror r0
     110:	6573552f 	ldrbvs	r5, [r3, #-1327]!	; 0x52f
     114:	622f7372 	eorvs	r7, pc, #-939524095	; 0xc8000001
     118:	6e616972 	mcrvs	9, 3, r6, cr1, cr2, {3}
     11c:	2f6e756a 	svccs	0x006e756a
     120:	6b736544 	blvs	1cd9638 <__bss_end__+0x1cceed0>
     124:	2f706f74 	svccs	0x00706f74
     128:	6f686373 	svcvs	0x00686373
     12c:	572f6c6f 	strpl	r6, [pc, -pc, ror #24]!
     130:	65746e69 	ldrbvs	r6, [r4, #-3689]!	; 0xe69
     134:	32393172 	eorscc	r3, r9, #-2147483620	; 0x8000001c
     138:	53432f30 	movtpl	r2, #16176	; 0x3f30
     13c:	45303431 	ldrmi	r3, [r0, #-1073]!	; 0x431
     140:	3173632f 	cmncc	r3, pc, lsr #6
     144:	2d653034 	stclcs	0, cr3, [r5, #-208]!	; 0xffffff30
     148:	69773032 	ldmdbvs	r7!, {r1, r4, r5, ip, sp}^
     14c:	696c2f6e 	stmdbvs	ip!, {r1, r2, r3, r5, r6, r8, r9, sl, fp, sp}^
     150:	00697062 	rsbeq	r7, r9, r2, rrx
     154:	6573552f 	ldrbvs	r5, [r3, #-1327]!	; 0x52f
     158:	622f7372 	eorvs	r7, pc, #-939524095	; 0xc8000001
     15c:	6e616972 	mcrvs	9, 3, r6, cr1, cr2, {3}
     160:	2f6e756a 	svccs	0x006e756a
     164:	6b736544 	blvs	1cd967c <__bss_end__+0x1ccef14>
     168:	2f706f74 	svccs	0x00706f74
     16c:	6f686373 	svcvs	0x00686373
     170:	572f6c6f 	strpl	r6, [pc, -pc, ror #24]!
     174:	65746e69 	ldrbvs	r6, [r4, #-3689]!	; 0xe69
     178:	32393172 	eorscc	r3, r9, #-2147483620	; 0x8000001c
     17c:	53432f30 	movtpl	r2, #16176	; 0x3f30
     180:	45303431 	ldrmi	r3, [r0, #-1073]!	; 0x431
     184:	3173632f 	cmncc	r3, pc, lsr #6
     188:	2d653034 	stclcs	0, cr3, [r5, #-208]!	; 0xffffff30
     18c:	69773032 	ldmdbvs	r7!, {r1, r4, r5, ip, sp}^
     190:	696c2f6e 	stmdbvs	ip!, {r1, r2, r3, r5, r6, r8, r9, sl, fp, sp}^
     194:	2f697062 	svccs	0x00697062
     198:	6362696c 	cmnvs	r2, #108, 18	; 0x1b0000
     19c:	2d320000 	ldccs	0, cr0, [r2, #-0]
     1a0:	69676f6c 	stmdbvs	r7!, {r2, r3, r5, r6, r8, r9, sl, fp, sp, lr}^
     1a4:	6e612d63 	cdpvs	13, 6, cr2, cr1, cr3, {3}
     1a8:	7a796c61 	bvc	1e5b334 <__bss_end__+0x1e50bcc>
     1ac:	632e7265 	teqvs	lr, #1342177286	; 0x50000006
     1b0:	00000000 	andeq	r0, r0, r0
     1b4:	6c637963 	stclvs	9, cr7, [r3], #-396	; 0xfffffe74
     1b8:	74752d65 	ldrbtvc	r2, [r5], #-3429	; 0xd65
     1bc:	682e6c69 	stmdavs	lr!, {r0, r3, r5, r6, sl, fp, sp, lr}
     1c0:	00000100 	andeq	r0, r0, r0, lsl #2
     1c4:	69647473 	stmdbvs	r4!, {r0, r1, r4, r5, r6, sl, ip, sp, lr}^
     1c8:	672d746e 	strvs	r7, [sp, -lr, ror #8]!
     1cc:	682e6363 	stmdavs	lr!, {r0, r1, r5, r6, r8, r9, sp, lr}
     1d0:	00000200 	andeq	r0, r0, r0, lsl #4
     1d4:	6f697067 	svcvs	0x00697067
     1d8:	0100682e 	tsteq	r0, lr, lsr #16
     1dc:	70720000 	rsbsvc	r0, r2, r0
     1e0:	72612d69 	rsbvc	r2, r1, #6720	; 0x1a40
     1e4:	6d69746d 	cfstrdvs	mvd7, [r9, #-436]!	; 0xfffffe4c
     1e8:	682e7265 	stmdavs	lr!, {r0, r2, r5, r6, r9, ip, sp, lr}
     1ec:	00000300 	andeq	r0, r0, r0, lsl #6
     1f0:	752d7773 	strvc	r7, [sp, #-1907]!	; 0x773
     1f4:	2e747261 	cdpcs	2, 7, cr7, cr4, cr1, {3}
     1f8:	00010068 	andeq	r0, r1, r8, rrx
     1fc:	64747300 	ldrbtvs	r7, [r4], #-768	; 0x300
     200:	2e677261 	cdpcs	2, 6, cr7, cr7, cr1, {3}
     204:	00020068 	andeq	r0, r2, r8, rrx
     208:	75623c00 	strbvc	r3, [r2, #-3072]!	; 0xc00
     20c:	2d746c69 	ldclcs	12, cr6, [r4, #-420]!	; 0xfffffe5c
     210:	003e6e69 	eorseq	r6, lr, r9, ror #28
     214:	72000000 	andvc	r0, r0, #0
     218:	682e6970 	stmdavs	lr!, {r4, r5, r6, r8, fp, sp, lr}
     21c:	00000400 	andeq	r0, r0, r0, lsl #8
     220:	702d6176 	eorvc	r6, sp, r6, ror r1
     224:	746e6972 	strbtvc	r6, [lr], #-2418	; 0x972
     228:	00682e6b 	rsbeq	r2, r8, fp, ror #28
     22c:	72000005 	andvc	r0, r0, #5
     230:	692d6970 	pushvs	{r4, r5, r6, r8, fp, sp, lr}
     234:	7265746e 	rsbvc	r7, r5, #1845493760	; 0x6e000000
     238:	74707572 	ldrbtvc	r7, [r0], #-1394	; 0x572
     23c:	00682e73 	rsbeq	r2, r8, r3, ror lr
     240:	00000003 	andeq	r0, r0, r3
     244:	10020500 	andne	r0, r2, r0, lsl #10
     248:	03000080 	movweq	r0, #128	; 0x80
     24c:	2f4c010c 	svccs	0x004c010c
     250:	02043230 	andeq	r3, r4, #48, 4
     254:	66730331 			; <UNDEFINED> instruction: 0x66730331
     258:	0e030104 	adfeqs	f0, f3, f4
     25c:	2d020482 	cfstrscs	mvf0, [r2, #-520]	; 0xfffffdf8
     260:	04667303 	strbteq	r7, [r6], #-771	; 0x303
     264:	82100301 	andshi	r0, r0, #67108864	; 0x4000000
     268:	032b0204 	teqeq	fp, #4, 4	; 0x40000000
     26c:	01046673 	tsteq	r4, r3, ror r6
     270:	04821203 	streq	r1, [r2], #515	; 0x203
     274:	73032902 	movwvc	r2, #14594	; 0x3902
     278:	03010466 	movweq	r0, #5222	; 0x1466
     27c:	02048214 	andeq	r8, r4, #20, 4	; 0x40000001
     280:	032e7903 	teqeq	lr, #49152	; 0xc000
     284:	01046673 	tsteq	r4, r3, ror r6
     288:	04821603 	streq	r1, [r2], #1539	; 0x603
     28c:	2e770302 	cdpcs	3, 7, cr0, cr7, cr2, {0}
     290:	04667303 	strbteq	r7, [r6], #-771	; 0x303
     294:	82180301 	andshi	r0, r8, #67108864	; 0x4000000
     298:	75030204 	strvc	r0, [r3, #-516]	; 0x204
     29c:	6673032e 	ldrbtvs	r0, [r3], -lr, lsr #6
     2a0:	1a030104 	bne	c06b8 <__bss_end__+0xb5f50>
     2a4:	03020482 	movweq	r0, #9346	; 0x2482
     2a8:	73032e73 	movwvc	r2, #15987	; 0x3e73
     2ac:	03010466 	movweq	r0, #5222	; 0x1466
     2b0:	0204821c 	andeq	r8, r4, #28, 4	; 0xc0000001
     2b4:	032e7103 	teqeq	lr, #-1073741824	; 0xc0000000
     2b8:	01046673 	tsteq	r4, r3, ror r6
     2bc:	04821e03 	streq	r1, [r2], #3587	; 0xe03
     2c0:	2e6f0302 	cdpcs	3, 6, cr0, cr15, cr2, {0}
     2c4:	04667303 	strbteq	r7, [r6], #-771	; 0x303
     2c8:	82200301 	eorhi	r0, r0, #67108864	; 0x4000000
     2cc:	4b2e1003 	blmi	b842e0 <__bss_end__+0xb79b78>
     2d0:	2e70034d 	cdpcs	3, 7, cr0, cr0, cr13, {2}
     2d4:	4883844c 	stmmi	r3, {r2, r3, r6, sl, pc}
     2d8:	4e2e0d03 	cdpmi	13, 2, cr0, cr14, cr3, {0}
     2dc:	02043331 	andeq	r3, r4, #-1006632960	; 0xc4000000
     2e0:	042e4003 	strteq	r4, [lr], #-3
     2e4:	00c20301 	sbceq	r0, r2, r1, lsl #6
     2e8:	02042f82 	andeq	r2, r4, #520	; 0x208
     2ec:	667fbd03 	ldrbtvs	fp, [pc], -r3, lsl #26
     2f0:	c5030104 	strgt	r0, [r3, #-260]	; 0x104
     2f4:	042f8200 	strteq	r8, [pc], #-512	; 2fc <_start-0x7d04>
     2f8:	7fba0302 	svcvc	0x00ba0302
     2fc:	03010482 	movweq	r0, #5250	; 0x1482
     300:	2f8200c8 	svccs	0x008200c8
     304:	b7030204 	strlt	r0, [r3, -r4, lsl #4]
     308:	0104827f 	tsteq	r4, pc, ror r2
     30c:	8200cb03 	andhi	ip, r0, #3072	; 0xc00
     310:	0302042f 	movweq	r0, #9263	; 0x242f
     314:	04827fb4 	streq	r7, [r2], #4020	; 0xfb4
     318:	00ce0301 	sbceq	r0, lr, r1, lsl #6
     31c:	02042f82 	andeq	r2, r4, #520	; 0x208
     320:	827fb103 	rsbshi	fp, pc, #-1073741824	; 0xc0000000
     324:	d1030104 	tstle	r3, r4, lsl #2
     328:	042f8200 	strteq	r8, [pc], #-512	; 330 <_start-0x7cd0>
     32c:	7fae0302 	svcvc	0x00ae0302
     330:	03010482 	movweq	r0, #5250	; 0x1482
     334:	2f8200d4 	svccs	0x008200d4
     338:	ab030204 	blge	c0b50 <__bss_end__+0xb63e8>
     33c:	0104827f 	tsteq	r4, pc, ror r2
     340:	8200d803 	andhi	sp, r0, #196608	; 0x30000
     344:	4c824c03 	stcmi	12, cr4, [r2], {3}
     348:	03488384 	movteq	r8, #33668	; 0x8384
     34c:	034e2e36 	movteq	r2, #60982	; 0xee36
     350:	29034a54 	stmdbcs	r3, {r2, r4, r6, r9, fp, lr}
     354:	9f34324a 	svcls	0x0034324a
     358:	01040200 	mrseq	r0, R12_usr
     35c:	d7064a06 	strle	r4, [r6, -r6, lsl #20]
     360:	2cbb4b4e 	vldmiacs	fp!, {d4-<overflow reg d42>}
     364:	01040200 	mrseq	r0, R12_usr
     368:	6d062e06 	stcvs	14, cr2, [r6, #-24]	; 0xffffffe8
     36c:	0084a44c 	addeq	sl, r4, ip, asr #8
     370:	06010402 	streq	r0, [r1], -r2, lsl #8
     374:	4dd7064a 	ldclmi	6, cr0, [r7, #296]	; 0x128
     378:	02040200 	andeq	r0, r4, #0, 4
     37c:	0402004b 	streq	r0, [r2], #-75	; 0x4b
     380:	02008102 	andeq	r8, r0, #-2147483648	; 0x80000000
     384:	2e060104 	adfcss	f0, f6, f4
     388:	a54c4d06 	strbge	r4, [ip, #-3334]	; 0xd06
     38c:	674b4bbc 			; <UNDEFINED> instruction: 0x674b4bbc
     390:	02002f4f 	andeq	r2, r0, #316	; 0x13c
     394:	82060104 	andhi	r0, r6, #4, 2
     398:	04020082 	streq	r0, [r2], #-130	; 0x82
     39c:	02009e04 	andeq	r9, r0, #4, 28	; 0x40
     3a0:	064a0104 	strbeq	r0, [sl], -r4, lsl #2
     3a4:	2fbd88d9 	svccs	0x00bd88d9
     3a8:	40084b4b 	andmi	r4, r8, fp, asr #22
     3ac:	04020067 	streq	r0, [r2], #-103	; 0x67
     3b0:	02002f02 	andeq	r2, r0, #2, 30
     3b4:	00490204 	subeq	r0, r9, r4, lsl #4
     3b8:	06010402 	streq	r0, [r1], -r2, lsl #8
     3bc:	3468062e 	strbtcc	r0, [r8], #-1582	; 0x62e
     3c0:	00a04b86 	adceq	r4, r0, r6, lsl #23
     3c4:	06010402 	streq	r0, [r1], -r2, lsl #8
     3c8:	68d70666 	ldmvs	r7, {r1, r2, r5, r6, r9, sl}^
     3cc:	674b2208 	strbvs	r2, [fp, -r8, lsl #4]
     3d0:	0e03d84b 	cdpeq	8, 0, cr13, cr3, cr11, {2}
     3d4:	2f2f359e 	svccs	0x002f359e
     3d8:	01040200 	mrseq	r0, R12_usr
     3dc:	83068206 	movwhi	r8, #25094	; 0x6206
     3e0:	9f678383 	svcls	0x00678383
     3e4:	83838383 	orrhi	r8, r3, #201326594	; 0xc000002
     3e8:	4b4b6c9f 	blmi	12db66c <__bss_end__+0x12d0f04>
     3ec:	4c2f4b85 	stcmi	11, cr4, [pc], #-532	; 1e0 <_start-0x7e20>
     3f0:	4c4bd731 	mcrrmi	7, 3, sp, fp, cr1
     3f4:	04020030 	streq	r0, [r2], #-48	; 0x30
     3f8:	069e0601 	ldreq	r0, [lr], r1, lsl #12
     3fc:	844b67dd 	strbhi	r6, [fp], #-2013	; 0x7dd
     400:	2d2f2f2d 	stccs	15, cr2, [pc, #-180]!	; 354 <_start-0x7cac>
     404:	02040200 	andeq	r0, r4, #0, 4
     408:	0402002f 	streq	r0, [r2], #-47	; 0x2f
     40c:	02008102 	andeq	r8, r0, #-2147483648	; 0x80000000
     410:	4a060104 	bmi	180828 <__bss_end__+0x1760c0>
     414:	024b6806 	subeq	r6, fp, #393216	; 0x60000
     418:	01010016 	tsteq	r1, r6, lsl r0
     41c:	00000102 	andeq	r0, r0, r2, lsl #2
     420:	00eb0002 	rsceq	r0, fp, r2
     424:	01020000 	mrseq	r0, (UNDEF: 2)
     428:	000d0efb 	strdeq	r0, [sp], -fp
     42c:	01010101 	tsteq	r1, r1, lsl #2
     430:	01000000 	mrseq	r0, (UNDEF: 0)
     434:	6c010000 	stcvs	0, cr0, [r1], {-0}
     438:	00636269 	rsbeq	r6, r3, r9, ror #4
     43c:	7273752f 	rsbsvc	r7, r3, #197132288	; 0xbc00000
     440:	636f6c2f 	cmnvs	pc, #12032	; 0x2f00
     444:	432f6c61 	teqmi	pc, #24832	; 0x6100
     448:	616c6c65 	cmnvs	ip, r5, ror #24
     44c:	72612f72 	rsbvc	r2, r1, #456	; 0x1c8
     450:	6f6e2d6d 	svcvs	0x006e2d6d
     454:	652d656e 	strvs	r6, [sp, #-1390]!	; 0x56e
     458:	2f696261 	svccs	0x00696261
     45c:	2e382e34 	mrccs	14, 1, r2, cr8, cr4, {1}
     460:	73632d33 	cmnvc	r3, #3264	; 0xcc0
     464:	65303731 	ldrvs	r3, [r0, #-1841]!	; 0x731
     468:	62696c2f 	rsbvs	r6, r9, #12032	; 0x2f00
     46c:	6363672f 	cmnvs	r3, #12320768	; 0xbc0000
     470:	6d72612f 	ldfvse	f6, [r2, #-188]!	; 0xffffff44
     474:	6e6f6e2d 	cdpvs	14, 6, cr6, cr15, cr13, {1}
     478:	61652d65 	cmnvs	r5, r5, ror #26
     47c:	342f6962 	strtcc	r6, [pc], #-2402	; 484 <_start-0x7b7c>
     480:	332e382e 	teqcc	lr, #3014656	; 0x2e0000
     484:	636e692f 	cmnvs	lr, #770048	; 0xbc000
     488:	6564756c 	strbvs	r7, [r4, #-1388]!	; 0x56c
     48c:	73552f00 	cmpvc	r5, #0, 30
     490:	2f737265 	svccs	0x00737265
     494:	61697262 	cmnvs	r9, r2, ror #4
     498:	6e756a6e 	vsubvs.f32	s13, s10, s29
     49c:	7365442f 	cmnvc	r5, #788529152	; 0x2f000000
     4a0:	706f746b 	rsbvc	r7, pc, fp, ror #8
     4a4:	6863732f 	stmdavs	r3!, {r0, r1, r2, r3, r5, r8, r9, ip, sp, lr}^
     4a8:	2f6c6f6f 	svccs	0x006c6f6f
     4ac:	746e6957 	strbtvc	r6, [lr], #-2391	; 0x957
     4b0:	39317265 	ldmdbcc	r1!, {r0, r2, r5, r6, r9, ip, sp, lr}
     4b4:	432f3032 	teqmi	pc, #50	; 0x32
     4b8:	30343153 	eorscc	r3, r4, r3, asr r1
     4bc:	73632f45 	cmnvc	r3, #276	; 0x114
     4c0:	65303431 	ldrvs	r3, [r0, #-1073]!	; 0x431
     4c4:	7730322d 	ldrvc	r3, [r0, -sp, lsr #4]!
     4c8:	6c2f6e69 	stcvs	14, cr6, [pc], #-420	; 32c <_start-0x7cd4>
     4cc:	69706269 	ldmdbvs	r0!, {r0, r3, r5, r6, r9, sp, lr}^
     4d0:	72700000 	rsbsvc	r0, r0, #0
     4d4:	6b746e69 	blvs	1d1be80 <__bss_end__+0x1d11718>
     4d8:	0100632e 	tsteq	r0, lr, lsr #6
     4dc:	74730000 	ldrbtvc	r0, [r3], #-0
     4e0:	67726164 	ldrbvs	r6, [r2, -r4, ror #2]!
     4e4:	0200682e 	andeq	r6, r0, #3014656	; 0x2e0000
     4e8:	623c0000 	eorsvs	r0, ip, #0
     4ec:	746c6975 	strbtvc	r6, [ip], #-2421	; 0x975
     4f0:	3e6e692d 	cdpcc	9, 6, cr6, cr14, cr13, {1}
     4f4:	00000000 	andeq	r0, r0, r0
     4f8:	2e697072 	mcrcs	0, 3, r7, cr9, cr2, {3}
     4fc:	00030068 	andeq	r0, r3, r8, rrx
     500:	2d617600 	stclcs	6, cr7, [r1, #-0]
     504:	6e697270 	mcrvs	2, 3, r7, cr9, cr0, {3}
     508:	682e6b74 	stmdavs	lr!, {r2, r4, r5, r6, r8, r9, fp, sp, lr}
     50c:	00000100 	andeq	r0, r0, r0, lsl #2
     510:	02050000 	andeq	r0, r5, #0
     514:	00008828 	andeq	r8, r0, r8, lsr #16
     518:	bf4b6b17 	svclt	0x004b6b17
     51c:	000e0289 	andeq	r0, lr, r9, lsl #5
     520:	008a0101 	addeq	r0, sl, r1, lsl #2
     524:	00020000 	andeq	r0, r2, r0
     528:	00000072 	andeq	r0, r0, r2, ror r0
     52c:	0efb0102 	cdpeq	1, 15, cr0, cr11, cr2, {0}
     530:	0101000d 	tsteq	r1, sp
     534:	00000101 	andeq	r0, r0, r1, lsl #2
     538:	00000100 	andeq	r0, r0, r0, lsl #2
     53c:	62696c01 	rsbvs	r6, r9, #256	; 0x100
     540:	552f0063 	strpl	r0, [pc, #-99]!	; 4e5 <_start-0x7b1b>
     544:	73726573 	cmnvc	r2, #482344960	; 0x1cc00000
     548:	6972622f 	ldmdbvs	r2!, {r0, r1, r2, r3, r5, r9, sp, lr}^
     54c:	756a6e61 	strbvc	r6, [sl, #-3681]!	; 0xe61
     550:	65442f6e 	strbvs	r2, [r4, #-3950]	; 0xf6e
     554:	6f746b73 	svcvs	0x00746b73
     558:	63732f70 	cmnvs	r3, #112, 30	; 0x1c0
     55c:	6c6f6f68 	stclvs	15, cr6, [pc], #-416	; 3c4 <_start-0x7c3c>
     560:	6e69572f 	cdpvs	7, 6, cr5, cr9, cr15, {1}
     564:	31726574 	cmncc	r2, r4, ror r5
     568:	2f303239 	svccs	0x00303239
     56c:	34315343 	ldrtcc	r5, [r1], #-835	; 0x343
     570:	632f4530 	teqvs	pc, #48, 10	; 0xc000000
     574:	30343173 	eorscc	r3, r4, r3, ror r1
     578:	30322d65 	eorscc	r2, r2, r5, ror #26
     57c:	2f6e6977 	svccs	0x006e6977
     580:	7062696c 	rsbvc	r6, r2, ip, ror #18
     584:	70000069 	andvc	r0, r0, r9, rrx
     588:	68637475 	stmdavs	r3!, {r0, r2, r4, r5, r6, sl, ip, sp, lr}^
     58c:	632e7261 	teqvs	lr, #268435462	; 0x10000006
     590:	00000100 	andeq	r0, r0, r0, lsl #2
     594:	2e697072 	mcrcs	0, 3, r7, cr9, cr2, {3}
     598:	00020068 	andeq	r0, r2, r8, rrx
     59c:	05000000 	streq	r0, [r0, #-0]
     5a0:	00888002 	addeq	r8, r8, r2
     5a4:	6b4a1400 	blvs	12855ac <__bss_end__+0x127ae44>
     5a8:	0213bc13 	andseq	fp, r3, #4864	; 0x1300
     5ac:	01010008 	tsteq	r1, r8
     5b0:	00000096 	muleq	r0, r6, r0
     5b4:	006f0002 	rsbeq	r0, pc, r2
     5b8:	01020000 	mrseq	r0, (UNDEF: 2)
     5bc:	000d0efb 	strdeq	r0, [sp], -fp
     5c0:	01010101 	tsteq	r1, r1, lsl #2
     5c4:	01000000 	mrseq	r0, (UNDEF: 0)
     5c8:	6c010000 	stcvs	0, cr0, [r1], {-0}
     5cc:	00636269 	rsbeq	r6, r3, r9, ror #4
     5d0:	6573552f 	ldrbvs	r5, [r3, #-1327]!	; 0x52f
     5d4:	622f7372 	eorvs	r7, pc, #-939524095	; 0xc8000001
     5d8:	6e616972 	mcrvs	9, 3, r6, cr1, cr2, {3}
     5dc:	2f6e756a 	svccs	0x006e756a
     5e0:	6b736544 	blvs	1cd9af8 <__bss_end__+0x1ccf390>
     5e4:	2f706f74 	svccs	0x00706f74
     5e8:	6f686373 	svcvs	0x00686373
     5ec:	572f6c6f 	strpl	r6, [pc, -pc, ror #24]!
     5f0:	65746e69 	ldrbvs	r6, [r4, #-3689]!	; 0xe69
     5f4:	32393172 	eorscc	r3, r9, #-2147483620	; 0x8000001c
     5f8:	53432f30 	movtpl	r2, #16176	; 0x3f30
     5fc:	45303431 	ldrmi	r3, [r0, #-1073]!	; 0x431
     600:	3173632f 	cmncc	r3, pc, lsr #6
     604:	2d653034 	stclcs	0, cr3, [r5, #-208]!	; 0xffffff30
     608:	69773032 	ldmdbvs	r7!, {r1, r4, r5, ip, sp}^
     60c:	696c2f6e 	stmdbvs	ip!, {r1, r2, r3, r5, r6, r8, r9, sl, fp, sp}^
     610:	00697062 	rsbeq	r7, r9, r2, rrx
     614:	74757000 	ldrbtvc	r7, [r5], #-0
     618:	00632e6b 	rsbeq	r2, r3, fp, ror #28
     61c:	72000001 	andvc	r0, r0, #1
     620:	682e6970 	stmdavs	lr!, {r4, r5, r6, r8, fp, sp, lr}
     624:	00000200 	andeq	r0, r0, r0, lsl #4
     628:	02050000 	andeq	r0, r5, #0
     62c:	000088bc 			; <UNDEFINED> instruction: 0x000088bc
     630:	002d4c15 	eoreq	r4, sp, r5, lsl ip
     634:	2f020402 	svccs	0x00020402
     638:	02040200 	andeq	r0, r4, #0, 4
     63c:	04020049 	streq	r0, [r2], #-73	; 0x49
     640:	062e0601 	strteq	r0, [lr], -r1, lsl #12
     644:	0006026b 	andeq	r0, r6, fp, ror #4
     648:	01de0101 	bicseq	r0, lr, r1, lsl #2
     64c:	00020000 	andeq	r0, r2, r0
     650:	000000df 	ldrdeq	r0, [r0], -pc	; <UNPREDICTABLE>
     654:	0efb0102 	cdpeq	1, 15, cr0, cr11, cr2, {0}
     658:	0101000d 	tsteq	r1, sp
     65c:	00000101 	andeq	r0, r0, r1, lsl #2
     660:	00000100 	andeq	r0, r0, r0, lsl #2
     664:	62696c01 	rsbvs	r6, r9, #256	; 0x100
     668:	752f0063 	strvc	r0, [pc, #-99]!	; 60d <_start-0x79f3>
     66c:	6c2f7273 	sfmvs	f7, 4, [pc], #-460	; 4a8 <_start-0x7b58>
     670:	6c61636f 	stclvs	3, cr6, [r1], #-444	; 0xfffffe44
     674:	6c65432f 	stclvs	3, cr4, [r5], #-188	; 0xffffff44
     678:	2f72616c 	svccs	0x0072616c
     67c:	2d6d7261 	sfmcs	f7, 2, [sp, #-388]!	; 0xfffffe7c
     680:	656e6f6e 	strbvs	r6, [lr, #-3950]!	; 0xf6e
     684:	6261652d 	rsbvs	r6, r1, #188743680	; 0xb400000
     688:	2e342f69 	cdpcs	15, 3, cr2, cr4, cr9, {3}
     68c:	2d332e38 	ldccs	14, cr2, [r3, #-224]!	; 0xffffff20
     690:	37317363 	ldrcc	r7, [r1, -r3, ror #6]!
     694:	6c2f6530 	cfstr32vs	mvfx6, [pc], #-192	; 5dc <_start-0x7a24>
     698:	672f6269 	strvs	r6, [pc, -r9, ror #4]!
     69c:	612f6363 	teqvs	pc, r3, ror #6
     6a0:	6e2d6d72 	mcrvs	13, 1, r6, cr13, cr2, {3}
     6a4:	2d656e6f 	stclcs	14, cr6, [r5, #-444]!	; 0xfffffe44
     6a8:	69626165 	stmdbvs	r2!, {r0, r2, r5, r6, r8, sp, lr}^
     6ac:	382e342f 	stmdacc	lr!, {r0, r1, r2, r3, r5, sl, ip, sp}
     6b0:	692f332e 	stmdbvs	pc!, {r1, r2, r3, r5, r8, r9, ip, sp}	; <UNPREDICTABLE>
     6b4:	756c636e 	strbvc	r6, [ip, #-878]!	; 0x36e
     6b8:	2f006564 	svccs	0x00006564
     6bc:	72657355 	rsbvc	r7, r5, #1409286145	; 0x54000001
     6c0:	72622f73 	rsbvc	r2, r2, #460	; 0x1cc
     6c4:	6a6e6169 	bvs	1b98c70 <__bss_end__+0x1b8e508>
     6c8:	442f6e75 	strtmi	r6, [pc], #-3701	; 6d0 <_start-0x7930>
     6cc:	746b7365 	strbtvc	r7, [fp], #-869	; 0x365
     6d0:	732f706f 	teqvc	pc, #111	; 0x6f
     6d4:	6f6f6863 	svcvs	0x006f6863
     6d8:	69572f6c 	ldmdbvs	r7, {r2, r3, r5, r6, r8, r9, sl, fp, sp}^
     6dc:	7265746e 	rsbvc	r7, r5, #1845493760	; 0x6e000000
     6e0:	30323931 	eorscc	r3, r2, r1, lsr r9
     6e4:	3153432f 	cmpcc	r3, pc, lsr #6
     6e8:	2f453034 	svccs	0x00453034
     6ec:	34317363 	ldrtcc	r7, [r1], #-867	; 0x363
     6f0:	322d6530 	eorcc	r6, sp, #48, 10	; 0xc000000
     6f4:	6e697730 	mcrvs	7, 3, r7, cr9, cr0, {1}
     6f8:	62696c2f 	rsbvs	r6, r9, #12032	; 0x2f00
     6fc:	00006970 	andeq	r6, r0, r0, ror r9
     700:	702d6176 	eorvc	r6, sp, r6, ror r1
     704:	746e6972 	strbtvc	r6, [lr], #-2418	; 0x972
     708:	00632e6b 	rsbeq	r2, r3, fp, ror #28
     70c:	73000001 	movwvc	r0, #1
     710:	72616474 	rsbvc	r6, r1, #116, 8	; 0x74000000
     714:	00682e67 	rsbeq	r2, r8, r7, ror #28
     718:	72000002 	andvc	r0, r0, #2
     71c:	682e6970 	stmdavs	lr!, {r4, r5, r6, r8, fp, sp, lr}
     720:	00000300 	andeq	r0, r0, r0, lsl #6
     724:	6975623c 	ldmdbvs	r5!, {r2, r3, r4, r5, r9, sp, lr}^
     728:	692d746c 	pushvs	{r2, r3, r5, r6, sl, ip, sp, lr}
     72c:	00003e6e 	andeq	r3, r0, lr, ror #28
     730:	00000000 	andeq	r0, r0, r0
     734:	88f00205 	ldmhi	r0!, {r0, r2, r9}^
     738:	26030000 	strcs	r0, [r3], -r0
     73c:	13a50101 			; <UNDEFINED> instruction: 0x13a50101
     740:	02002d31 	andeq	r2, r0, #3136	; 0xc40
     744:	002f0204 	eoreq	r0, pc, r4, lsl #4
     748:	2d020402 	cfstrscs	mvf0, [r2, #-8]
     74c:	02040200 	andeq	r0, r4, #0, 4
     750:	0402002f 	streq	r0, [r2], #-47	; 0x2f
     754:	4c4c2d01 	mcrrmi	13, 0, r2, ip, cr1
     758:	2f4b1430 	svccs	0x004b1430
     75c:	0402004f 	streq	r0, [r2], #-79	; 0x4f
     760:	02006702 	andeq	r6, r0, #524288	; 0x80000
     764:	4c650104 	stfmie	f0, [r5], #-16
     768:	2fa0304d 	svccs	0x00a0304d
     76c:	26023031 			; <UNDEFINED> instruction: 0x26023031
     770:	2c2d8416 	cfstrscs	mvf8, [sp], #-88	; 0xffffffa8
     774:	01040200 	mrseq	r0, R12_usr
     778:	04020030 	streq	r0, [r2], #-48	; 0x30
     77c:	66063301 	strvs	r3, [r6], -r1, lsl #6
     780:	01040200 	mrseq	r0, R12_usr
     784:	0402002e 	streq	r0, [r2], #-46	; 0x2e
     788:	21080601 	tstcs	r8, r1, lsl #12
     78c:	73032f67 	movwvc	r2, #16231	; 0x3f67
     790:	2e130382 	cdpcs	3, 1, cr0, cr3, cr2, {4}
     794:	01040200 	mrseq	r0, R12_usr
     798:	02002e06 	andeq	r2, r0, #6, 28	; 0x60
     79c:	9f060104 	svcls	0x00060104
     7a0:	67034b6a 	strvs	r4, [r3, -sl, ror #22]
     7a4:	2e21032e 	cdpcs	3, 2, cr0, cr1, cr14, {1}
     7a8:	01040200 	mrseq	r0, R12_usr
     7ac:	02002e06 	andeq	r2, r0, #6, 28	; 0x60
     7b0:	9f060104 	svcls	0x00060104
     7b4:	01040200 	mrseq	r0, R12_usr
     7b8:	03f3d96a 	mvnseq	sp, #1736704	; 0x1a8000
     7bc:	20087fa6 	andcs	r7, r8, r6, lsr #31
     7c0:	0402002f 	streq	r0, [r2], #-47	; 0x2f
     7c4:	064a0601 	strbeq	r0, [sl], -r1, lsl #12
     7c8:	032f4bd7 	teqeq	pc, #220160	; 0x35c00
     7cc:	83f200da 	mvnshi	r0, #218	; 0xda
     7d0:	0e03484c 	cdpeq	8, 0, cr4, cr3, cr12, {2}
     7d4:	2e75032e 	cdpcs	3, 7, cr0, cr5, cr14, {1}
     7d8:	4b842f2f 	blmi	fe10c49c <__bss_end__+0xfe101d34>
     7dc:	314d2d2f 	cmpcc	sp, pc, lsr #26
     7e0:	00832f30 	addeq	r2, r3, r0, lsr pc
     7e4:	2c010402 	cfstrscs	mvf0, [r1], {2}
     7e8:	040200a2 	streq	r0, [r2], #-162	; 0xa2
     7ec:	064a0601 	strbeq	r0, [sl], -r1, lsl #12
     7f0:	163602d8 			; <UNDEFINED> instruction: 0x163602d8
     7f4:	08d60e03 	ldmeq	r6, {r0, r1, r9, sl, fp}^
     7f8:	31f33021 	mvnscc	r3, r1, lsr #32
     7fc:	30f330f3 	ldrshtcc	r3, [r3], #3
     800:	30f3304b 	rscscc	r3, r3, fp, asr #32
     804:	2f312308 	svccs	0x00312308
     808:	01040200 	mrseq	r0, R12_usr
     80c:	04020065 	streq	r0, [r2], #-101	; 0x65
     810:	004a0602 	subeq	r0, sl, r2, lsl #12
     814:	06010402 	streq	r0, [r1], -r2, lsl #8
     818:	00664203 	rsbeq	r4, r6, r3, lsl #4
     81c:	06020402 	streq	r0, [r2], -r2, lsl #8
     820:	c2030666 	andgt	r0, r3, #106954752	; 0x6600000
     824:	02684a00 	rsbeq	r4, r8, #0, 20
     828:	01010010 	tsteq	r1, r0, lsl r0
     82c:	00000093 	muleq	r0, r3, r0
     830:	007d0002 	rsbseq	r0, sp, r2
     834:	01020000 	mrseq	r0, (UNDEF: 2)
     838:	000d0efb 	strdeq	r0, [sp], -fp
     83c:	01010101 	tsteq	r1, r1, lsl #2
     840:	01000000 	mrseq	r0, (UNDEF: 0)
     844:	63010000 	movwvs	r0, #4096	; 0x1000
     848:	30343173 	eorscc	r3, r4, r3, ror r1
     84c:	72732d65 	rsbsvc	r2, r3, #6464	; 0x1940
     850:	552f0063 	strpl	r0, [pc, #-99]!	; 7f5 <_start-0x780b>
     854:	73726573 	cmnvc	r2, #482344960	; 0x1cc00000
     858:	6972622f 	ldmdbvs	r2!, {r0, r1, r2, r3, r5, r9, sp, lr}^
     85c:	756a6e61 	strbvc	r6, [sl, #-3681]!	; 0xe61
     860:	65442f6e 	strbvs	r2, [r4, #-3950]	; 0xf6e
     864:	6f746b73 	svcvs	0x00746b73
     868:	63732f70 	cmnvs	r3, #112, 30	; 0x1c0
     86c:	6c6f6f68 	stclvs	15, cr6, [pc], #-416	; 6d4 <_start-0x792c>
     870:	6e69572f 	cdpvs	7, 6, cr5, cr9, cr15, {1}
     874:	31726574 	cmncc	r2, r4, ror r5
     878:	2f303239 	svccs	0x00303239
     87c:	34315343 	ldrtcc	r5, [r1], #-835	; 0x343
     880:	632f4530 	teqvs	pc, #48, 10	; 0xc000000
     884:	30343173 	eorscc	r3, r4, r3, ror r1
     888:	30322d65 	eorscc	r2, r2, r5, ror #26
     88c:	2f6e6977 	svccs	0x006e6977
     890:	7062696c 	rsbvc	r6, r2, ip, ror #18
     894:	63000069 	movwvs	r0, #105	; 0x69
     898:	6e61656c 	cdpvs	5, 6, cr6, cr1, cr12, {3}
     89c:	6265722d 	rsbvs	r7, r5, #-805306366	; 0xd0000002
     8a0:	2e746f6f 	cdpcs	15, 7, cr6, cr4, cr15, {3}
     8a4:	00010063 	andeq	r0, r1, r3, rrx
     8a8:	69707200 	ldmdbvs	r0!, {r9, ip, sp, lr}^
     8ac:	0200682e 	andeq	r6, r0, #3014656	; 0x2e0000
     8b0:	00000000 	andeq	r0, r0, r0
     8b4:	8de80205 	sfmhi	f0, 2, [r8, #20]!
     8b8:	2f150000 	svccs	0x00150000
     8bc:	06024b83 	streq	r4, [r2], -r3, lsl #23
     8c0:	21010100 	mrscs	r0, (UNDEF: 17)
     8c4:	02000001 	andeq	r0, r0, #1
     8c8:	0000f800 	andeq	pc, r0, r0, lsl #16
     8cc:	fb010200 	blx	410d6 <__bss_end__+0x3696e>
     8d0:	01000d0e 	tsteq	r0, lr, lsl #26
     8d4:	00010101 	andeq	r0, r1, r1, lsl #2
     8d8:	00010000 	andeq	r0, r1, r0
     8dc:	73630100 	cmnvc	r3, #0, 2
     8e0:	65303431 	ldrvs	r3, [r0, #-1073]!	; 0x431
     8e4:	6372732d 	cmnvs	r2, #-1275068416	; 0xb4000000
     8e8:	73752f00 	cmnvc	r5, #0, 30
     8ec:	6f6c2f72 	svcvs	0x006c2f72
     8f0:	2f6c6163 	svccs	0x006c6163
     8f4:	6c6c6543 	cfstr64vs	mvdx6, [ip], #-268	; 0xfffffef4
     8f8:	612f7261 	teqvs	pc, r1, ror #4
     8fc:	6e2d6d72 	mcrvs	13, 1, r6, cr13, cr2, {3}
     900:	2d656e6f 	stclcs	14, cr6, [r5, #-444]!	; 0xfffffe44
     904:	69626165 	stmdbvs	r2!, {r0, r2, r5, r6, r8, sp, lr}^
     908:	382e342f 	stmdacc	lr!, {r0, r1, r2, r3, r5, sl, ip, sp}
     90c:	632d332e 	teqvs	sp, #-1207959552	; 0xb8000000
     910:	30373173 	eorscc	r3, r7, r3, ror r1
     914:	696c2f65 	stmdbvs	ip!, {r0, r2, r5, r6, r8, r9, sl, fp, sp}^
     918:	63672f62 	cmnvs	r7, #392	; 0x188
     91c:	72612f63 	rsbvc	r2, r1, #396	; 0x18c
     920:	6f6e2d6d 	svcvs	0x006e2d6d
     924:	652d656e 	strvs	r6, [sp, #-1390]!	; 0x56e
     928:	2f696261 	svccs	0x00696261
     92c:	2e382e34 	mrccs	14, 1, r2, cr8, cr4, {1}
     930:	6e692f33 	mcrvs	15, 3, r2, cr9, cr3, {1}
     934:	64756c63 	ldrbtvs	r6, [r5], #-3171	; 0xc63
     938:	552f0065 	strpl	r0, [pc, #-101]!	; 8db <_start-0x7725>
     93c:	73726573 	cmnvc	r2, #482344960	; 0x1cc00000
     940:	6972622f 	ldmdbvs	r2!, {r0, r1, r2, r3, r5, r9, sp, lr}^
     944:	756a6e61 	strbvc	r6, [sl, #-3681]!	; 0xe61
     948:	65442f6e 	strbvs	r2, [r4, #-3950]	; 0xf6e
     94c:	6f746b73 	svcvs	0x00746b73
     950:	63732f70 	cmnvs	r3, #112, 30	; 0x1c0
     954:	6c6f6f68 	stclvs	15, cr6, [pc], #-416	; 7bc <_start-0x7844>
     958:	6e69572f 	cdpvs	7, 6, cr5, cr9, cr15, {1}
     95c:	31726574 	cmncc	r2, r4, ror r5
     960:	2f303239 	svccs	0x00303239
     964:	34315343 	ldrtcc	r5, [r1], #-835	; 0x343
     968:	632f4530 	teqvs	pc, #48, 10	; 0xc000000
     96c:	30343173 	eorscc	r3, r4, r3, ror r1
     970:	30322d65 	eorscc	r2, r2, r5, ror #26
     974:	2f6e6977 	svccs	0x006e6977
     978:	7062696c 	rsbvc	r6, r2, ip, ror #18
     97c:	63000069 	movwvs	r0, #105	; 0x69
     980:	72617473 	rsbvc	r7, r1, #1929379840	; 0x73000000
     984:	00632e74 	rsbeq	r2, r3, r4, ror lr
     988:	73000001 	movwvc	r0, #1
     98c:	6e696474 	mcrvs	4, 3, r6, cr9, cr4, {3}
     990:	63672d74 	cmnvs	r7, #116, 26	; 0x1d00
     994:	00682e63 	rsbeq	r2, r8, r3, ror #28
     998:	73000002 	movwvc	r0, #2
     99c:	61752d77 	cmnvs	r5, r7, ror sp
     9a0:	682e7472 	stmdavs	lr!, {r1, r4, r5, r6, sl, ip, sp, lr}
     9a4:	00000100 	andeq	r0, r0, r0, lsl #2
     9a8:	746e6f63 	strbtvc	r6, [lr], #-3939	; 0xf63
     9ac:	2d6c6f72 	stclcs	15, cr6, [ip, #-456]!	; 0xfffffe38
     9b0:	636f6c62 	cmnvs	pc, #25088	; 0x6200
     9b4:	00682e6b 	rsbeq	r2, r8, fp, ror #28
     9b8:	72000001 	andvc	r0, r0, #1
     9bc:	682e6970 	stmdavs	lr!, {r4, r5, r6, r8, fp, sp, lr}
     9c0:	00000300 	andeq	r0, r0, r0, lsl #6
     9c4:	02050000 	andeq	r0, r5, #0
     9c8:	00008e10 	andeq	r8, r0, r0, lsl lr
     9cc:	68684b17 	stmdavs	r8!, {r0, r1, r2, r4, r8, r9, fp, lr}^
     9d0:	2d2f3132 	stfcss	f3, [pc, #-200]!	; 910 <_start-0x76f0>
     9d4:	0402002f 	streq	r0, [r2], #-47	; 0x2f
     9d8:	2f4f4901 	svccs	0x004f4901
     9dc:	8367674b 	cmnhi	r7, #19660800	; 0x12c0000
     9e0:	022f4e67 	eoreq	r4, pc, #1648	; 0x670
     9e4:	01010010 	tsteq	r1, r0, lsl r0
     9e8:	00000099 	muleq	r0, r9, r0
     9ec:	00770002 	rsbseq	r0, r7, r2
     9f0:	01020000 	mrseq	r0, (UNDEF: 2)
     9f4:	000d0efb 	strdeq	r0, [sp], -fp
     9f8:	01010101 	tsteq	r1, r1, lsl #2
     9fc:	01000000 	mrseq	r0, (UNDEF: 0)
     a00:	63010000 	movwvs	r0, #4096	; 0x1000
     a04:	30343173 	eorscc	r3, r4, r3, ror r1
     a08:	72732d65 	rsbsvc	r2, r3, #6464	; 0x1940
     a0c:	552f0063 	strpl	r0, [pc, #-99]!	; 9b1 <_start-0x764f>
     a10:	73726573 	cmnvc	r2, #482344960	; 0x1cc00000
     a14:	6972622f 	ldmdbvs	r2!, {r0, r1, r2, r3, r5, r9, sp, lr}^
     a18:	756a6e61 	strbvc	r6, [sl, #-3681]!	; 0xe61
     a1c:	65442f6e 	strbvs	r2, [r4, #-3950]	; 0xf6e
     a20:	6f746b73 	svcvs	0x00746b73
     a24:	63732f70 	cmnvs	r3, #112, 30	; 0x1c0
     a28:	6c6f6f68 	stclvs	15, cr6, [pc], #-416	; 890 <_start-0x7770>
     a2c:	6e69572f 	cdpvs	7, 6, cr5, cr9, cr15, {1}
     a30:	31726574 	cmncc	r2, r4, ror r5
     a34:	2f303239 	svccs	0x00303239
     a38:	34315343 	ldrtcc	r5, [r1], #-835	; 0x343
     a3c:	632f4530 	teqvs	pc, #48, 10	; 0xc000000
     a40:	30343173 	eorscc	r3, r4, r3, ror r1
     a44:	30322d65 	eorscc	r2, r2, r5, ror #26
     a48:	2f6e6977 	svccs	0x006e6977
     a4c:	7062696c 	rsbvc	r6, r2, ip, ror #18
     a50:	72000069 	andvc	r0, r0, #105	; 0x69
     a54:	6f6f6265 	svcvs	0x006f6265
     a58:	00632e74 	rsbeq	r2, r3, r4, ror lr
     a5c:	72000001 	andvc	r0, r0, #1
     a60:	682e6970 	stmdavs	lr!, {r4, r5, r6, r8, fp, sp, lr}
     a64:	00000200 	andeq	r0, r0, r0, lsl #4
     a68:	02050000 	andeq	r0, r5, #0
     a6c:	00008ec0 	andeq	r8, r0, r0, asr #29
     a70:	14010d03 	strne	r0, [r1], #-3331	; 0xd03
     a74:	15852f31 	strne	r2, [r5, #3889]	; 0xf31
     a78:	2f4d4b2f 	svccs	0x004d4b2f
     a7c:	67523567 	ldrbvs	r3, [r2, -r7, ror #10]
     a80:	01001002 	tsteq	r0, r2
     a84:	0000a301 	andeq	sl, r0, r1, lsl #6
     a88:	76000200 	strvc	r0, [r0], -r0, lsl #4
     a8c:	02000000 	andeq	r0, r0, #0
     a90:	0d0efb01 	vstreq	d15, [lr, #-4]
     a94:	01010100 	mrseq	r0, (UNDEF: 17)
     a98:	00000001 	andeq	r0, r0, r1
     a9c:	01000001 	tsteq	r0, r1
     aa0:	34317363 	ldrtcc	r7, [r1], #-867	; 0x363
     aa4:	732d6530 	teqvc	sp, #48, 10	; 0xc000000
     aa8:	2f006372 	svccs	0x00006372
     aac:	72657355 	rsbvc	r7, r5, #1409286145	; 0x54000001
     ab0:	72622f73 	rsbvc	r2, r2, #460	; 0x1cc
     ab4:	6a6e6169 	bvs	1b99060 <__bss_end__+0x1b8e8f8>
     ab8:	442f6e75 	strtmi	r6, [pc], #-3701	; ac0 <_start-0x7540>
     abc:	746b7365 	strbtvc	r7, [fp], #-869	; 0x365
     ac0:	732f706f 	teqvc	pc, #111	; 0x6f
     ac4:	6f6f6863 	svcvs	0x006f6863
     ac8:	69572f6c 	ldmdbvs	r7, {r2, r3, r5, r6, r8, r9, sl, fp, sp}^
     acc:	7265746e 	rsbvc	r7, r5, #1845493760	; 0x6e000000
     ad0:	30323931 	eorscc	r3, r2, r1, lsr r9
     ad4:	3153432f 	cmpcc	r3, pc, lsr #6
     ad8:	2f453034 	svccs	0x00453034
     adc:	34317363 	ldrtcc	r7, [r1], #-867	; 0x363
     ae0:	322d6530 	eorcc	r6, sp, #48, 10	; 0xc000000
     ae4:	6e697730 	mcrvs	7, 3, r7, cr9, cr0, {1}
     ae8:	62696c2f 	rsbvs	r6, r9, #12032	; 0x2f00
     aec:	00006970 	andeq	r6, r0, r0, ror r9
     af0:	656d6974 	strbvs	r6, [sp, #-2420]!	; 0x974
     af4:	00632e72 	rsbeq	r2, r3, r2, ror lr
     af8:	72000001 	andvc	r0, r0, #1
     afc:	682e6970 	stmdavs	lr!, {r4, r5, r6, r8, fp, sp, lr}
     b00:	00000200 	andeq	r0, r0, r0, lsl #4
     b04:	02050000 	andeq	r0, r5, #0
     b08:	00008f34 	andeq	r8, r0, r4, lsr pc
     b0c:	2d2f1316 	stccs	3, cr1, [pc, #-88]!	; abc <_start-0x7544>
     b10:	01040200 	mrseq	r0, R12_usr
     b14:	68062e06 	stmdavs	r6, {r1, r2, r9, sl, fp, sp}
     b18:	4d4b2f31 	stclmi	15, cr2, [fp, #-196]	; 0xffffff3c
     b1c:	4b303132 	blmi	c0cfec <__bss_end__+0xc02884>
     b20:	2f6a2f4c 	svccs	0x006a2f4c
     b24:	022f842f 	eoreq	r8, pc, #788529152	; 0x2f000000
     b28:	01010008 	tsteq	r1, r8
     b2c:	00000188 	andeq	r0, r0, r8, lsl #3
     b30:	00ca0002 	sbceq	r0, sl, r2
     b34:	01020000 	mrseq	r0, (UNDEF: 2)
     b38:	000d0efb 	strdeq	r0, [sp], -fp
     b3c:	01010101 	tsteq	r1, r1, lsl #2
     b40:	01000000 	mrseq	r0, (UNDEF: 0)
     b44:	6d010000 	stcvs	0, cr0, [r1, #-0]
     b48:	72732d79 	rsbsvc	r2, r3, #7744	; 0x1e40
     b4c:	552f0063 	strpl	r0, [pc, #-99]!	; af1 <_start-0x750f>
     b50:	73726573 	cmnvc	r2, #482344960	; 0x1cc00000
     b54:	6972622f 	ldmdbvs	r2!, {r0, r1, r2, r3, r5, r9, sp, lr}^
     b58:	756a6e61 	strbvc	r6, [sl, #-3681]!	; 0xe61
     b5c:	65442f6e 	strbvs	r2, [r4, #-3950]	; 0xf6e
     b60:	6f746b73 	svcvs	0x00746b73
     b64:	63732f70 	cmnvs	r3, #112, 30	; 0x1c0
     b68:	6c6f6f68 	stclvs	15, cr6, [pc], #-416	; 9d0 <_start-0x7630>
     b6c:	6e69572f 	cdpvs	7, 6, cr5, cr9, cr15, {1}
     b70:	31726574 	cmncc	r2, r4, ror r5
     b74:	2f303239 	svccs	0x00303239
     b78:	34315343 	ldrtcc	r5, [r1], #-835	; 0x343
     b7c:	632f4530 	teqvs	pc, #48, 10	; 0xc000000
     b80:	30343173 	eorscc	r3, r4, r3, ror r1
     b84:	30322d65 	eorscc	r2, r2, r5, ror #26
     b88:	2f6e6977 	svccs	0x006e6977
     b8c:	7062696c 	rsbvc	r6, r2, ip, ror #18
     b90:	73632f69 	cmnvc	r3, #420	; 0x1a4
     b94:	65303431 	ldrvs	r3, [r0, #-1073]!	; 0x431
     b98:	6372732d 	cmnvs	r2, #-1275068416	; 0xb4000000
     b9c:	73552f00 	cmpvc	r5, #0, 30
     ba0:	2f737265 	svccs	0x00737265
     ba4:	61697262 	cmnvs	r9, r2, ror #4
     ba8:	6e756a6e 	vsubvs.f32	s13, s10, s29
     bac:	7365442f 	cmnvc	r5, #788529152	; 0x2f000000
     bb0:	706f746b 	rsbvc	r7, pc, fp, ror #8
     bb4:	6863732f 	stmdavs	r3!, {r0, r1, r2, r3, r5, r8, r9, ip, sp, lr}^
     bb8:	2f6c6f6f 	svccs	0x006c6f6f
     bbc:	746e6957 	strbtvc	r6, [lr], #-2391	; 0x957
     bc0:	39317265 	ldmdbcc	r1!, {r0, r2, r5, r6, r9, ip, sp, lr}
     bc4:	432f3032 	teqmi	pc, #50	; 0x32
     bc8:	30343153 	eorscc	r3, r4, r3, asr r1
     bcc:	73632f45 	cmnvc	r3, #276	; 0x114
     bd0:	65303431 	ldrvs	r3, [r0, #-1073]!	; 0x431
     bd4:	7730322d 	ldrvc	r3, [r0, -sp, lsr #4]!
     bd8:	6c2f6e69 	stcvs	14, cr6, [pc], #-420	; a3c <_start-0x75c4>
     bdc:	69706269 	ldmdbvs	r0!, {r0, r3, r5, r6, r9, sp, lr}^
     be0:	70670000 	rsbvc	r0, r7, r0
     be4:	632e6f69 	teqvs	lr, #420	; 0x1a4
     be8:	00000100 	andeq	r0, r0, r0, lsl #2
     bec:	6f697067 	svcvs	0x00697067
     bf0:	0200682e 	andeq	r6, r0, #3014656	; 0x2e0000
     bf4:	70720000 	rsbsvc	r0, r2, r0
     bf8:	00682e69 	rsbeq	r2, r8, r9, ror #28
     bfc:	00000003 	andeq	r0, r0, r3
     c00:	bc020500 	cfstr32lt	mvfx0, [r2], {-0}
     c04:	0300008f 	movweq	r0, #143	; 0x8f
     c08:	504e013e 	subpl	r0, lr, lr, lsr r1
     c0c:	67210869 	strvs	r0, [r1, -r9, ror #16]!
     c10:	67676767 	strbvs	r6, [r7, -r7, ror #14]!
     c14:	084b3267 	stmdaeq	fp, {r0, r1, r2, r5, r6, r9, ip, sp}^
     c18:	5131dc22 	teqpl	r1, r2, lsr #24
     c1c:	30504e13 	subscc	r4, r0, r3, lsl lr
     c20:	135031be 	cmpne	r0, #-2147483601	; 0x8000002f
     c24:	c0304f4d 	eorsgt	r4, r0, sp, asr #30
     c28:	0869504c 	stmdaeq	r9!, {r2, r3, r6, ip, lr}^
     c2c:	67676721 	strbvs	r6, [r7, -r1, lsr #14]!
     c30:	32676767 	rsbcc	r6, r7, #27000832	; 0x19c0000
     c34:	a421084b 	strtge	r0, [r1], #-2123	; 0x84b
     c38:	842f504c 	strthi	r5, [pc], #-76	; c40 <_start-0x73c0>
     c3c:	82750369 	rsbshi	r0, r5, #-1543503871	; 0xa4000001
     c40:	4d2e0c03 	stcmi	12, cr0, [lr, #-12]!
     c44:	98034e30 	stmdals	r3, {r4, r5, r9, sl, fp, lr}
     c48:	13514a7f 	cmpne	r1, #520192	; 0x7f000
     c4c:	a530504e 	ldrge	r5, [r0, #-78]!	; 0x4e
     c50:	4f4d1350 	svcmi	0x004d1350
     c54:	00c20330 	sbceq	r0, r2, r0, lsr r3
     c58:	696b6aba 	stmdbvs	fp!, {r1, r3, r4, r5, r7, r9, fp, sp, lr}^
     c5c:	67672108 	strbvs	r2, [r7, -r8, lsl #2]!
     c60:	67676767 	strbvs	r6, [r7, -r7, ror #14]!
     c64:	22084b32 	andcs	r4, r8, #51200	; 0xc800
     c68:	31ba1a03 			; <UNDEFINED> instruction: 0x31ba1a03
     c6c:	522f4c9f 	eorpl	r4, pc, #40704	; 0x9f00
     c70:	4b2f4e4d 	blmi	bd45ac <__bss_end__+0xbc9e44>
     c74:	67684b67 	strbvs	r4, [r8, -r7, ror #22]!
     c78:	672f4c67 	strvs	r4, [pc, -r7, ror #24]!
     c7c:	4c6e4b2f 	stclmi	11, cr4, [lr], #-188	; 0xffffff44
     c80:	674b2f4e 	strbvs	r2, [fp, -lr, asr #30]
     c84:	6767684b 	strbvs	r6, [r7, -fp, asr #16]!
     c88:	2f672f4c 	svccs	0x00672f4c
     c8c:	4e4b6d4b 	cdpmi	13, 4, cr6, cr11, cr11, {2}
     c90:	00674b2f 	rsbeq	r4, r7, pc, lsr #22
     c94:	06010402 	streq	r0, [r1], -r2, lsl #8
     c98:	9f680666 	svcls	0x00680666
     c9c:	0402002f 	streq	r0, [r2], #-47	; 0x2f
     ca0:	064a0601 	strbeq	r0, [sl], -r1, lsl #12
     ca4:	73032f68 	movwvc	r2, #16232	; 0x3f68
     ca8:	2e0e034a 	cdpcs	3, 0, cr0, cr14, cr10, {2}
     cac:	2f4e4c4d 	svccs	0x004e4c4d
     cb0:	02bcbc4b 	adcseq	fp, ip, #19200	; 0x4b00
     cb4:	01010006 	tsteq	r1, r6
     cb8:	00000101 	andeq	r0, r0, r1, lsl #2
     cbc:	00ca0002 	sbceq	r0, sl, r2
     cc0:	01020000 	mrseq	r0, (UNDEF: 2)
     cc4:	000d0efb 	strdeq	r0, [sp], -fp
     cc8:	01010101 	tsteq	r1, r1, lsl #2
     ccc:	01000000 	mrseq	r0, (UNDEF: 0)
     cd0:	6d010000 	stcvs	0, cr0, [r1, #-0]
     cd4:	72732d79 	rsbsvc	r2, r3, #7744	; 0x1e40
     cd8:	552f0063 	strpl	r0, [pc, #-99]!	; c7d <_start-0x7383>
     cdc:	73726573 	cmnvc	r2, #482344960	; 0x1cc00000
     ce0:	6972622f 	ldmdbvs	r2!, {r0, r1, r2, r3, r5, r9, sp, lr}^
     ce4:	756a6e61 	strbvc	r6, [sl, #-3681]!	; 0xe61
     ce8:	65442f6e 	strbvs	r2, [r4, #-3950]	; 0xf6e
     cec:	6f746b73 	svcvs	0x00746b73
     cf0:	63732f70 	cmnvs	r3, #112, 30	; 0x1c0
     cf4:	6c6f6f68 	stclvs	15, cr6, [pc], #-416	; b5c <_start-0x74a4>
     cf8:	6e69572f 	cdpvs	7, 6, cr5, cr9, cr15, {1}
     cfc:	31726574 	cmncc	r2, r4, ror r5
     d00:	2f303239 	svccs	0x00303239
     d04:	34315343 	ldrtcc	r5, [r1], #-835	; 0x343
     d08:	632f4530 	teqvs	pc, #48, 10	; 0xc000000
     d0c:	30343173 	eorscc	r3, r4, r3, ror r1
     d10:	30322d65 	eorscc	r2, r2, r5, ror #26
     d14:	2f6e6977 	svccs	0x006e6977
     d18:	7062696c 	rsbvc	r6, r2, ip, ror #18
     d1c:	73632f69 	cmnvc	r3, #420	; 0x1a4
     d20:	65303431 	ldrvs	r3, [r0, #-1073]!	; 0x431
     d24:	6372732d 	cmnvs	r2, #-1275068416	; 0xb4000000
     d28:	73552f00 	cmpvc	r5, #0, 30
     d2c:	2f737265 	svccs	0x00737265
     d30:	61697262 	cmnvs	r9, r2, ror #4
     d34:	6e756a6e 	vsubvs.f32	s13, s10, s29
     d38:	7365442f 	cmnvc	r5, #788529152	; 0x2f000000
     d3c:	706f746b 	rsbvc	r7, pc, fp, ror #8
     d40:	6863732f 	stmdavs	r3!, {r0, r1, r2, r3, r5, r8, r9, ip, sp, lr}^
     d44:	2f6c6f6f 	svccs	0x006c6f6f
     d48:	746e6957 	strbtvc	r6, [lr], #-2391	; 0x957
     d4c:	39317265 	ldmdbcc	r1!, {r0, r2, r5, r6, r9, ip, sp, lr}
     d50:	432f3032 	teqmi	pc, #50	; 0x32
     d54:	30343153 	eorscc	r3, r4, r3, asr r1
     d58:	73632f45 	cmnvc	r3, #276	; 0x114
     d5c:	65303431 	ldrvs	r3, [r0, #-1073]!	; 0x431
     d60:	7730322d 	ldrvc	r3, [r0, -sp, lsr #4]!
     d64:	6c2f6e69 	stcvs	14, cr6, [pc], #-420	; bc8 <_start-0x7438>
     d68:	69706269 	ldmdbvs	r0!, {r0, r3, r5, r6, r9, sp, lr}^
     d6c:	61750000 	cmnvs	r5, r0
     d70:	632e7472 	teqvs	lr, #1912602624	; 0x72000000
     d74:	00000100 	andeq	r0, r0, r0, lsl #2
     d78:	6f697067 	svcvs	0x00697067
     d7c:	0200682e 	andeq	r6, r0, #3014656	; 0x2e0000
     d80:	70720000 	rsbsvc	r0, r2, r0
     d84:	00682e69 	rsbeq	r2, r8, r9, ror #28
     d88:	00000003 	andeq	r0, r0, r3
     d8c:	78020500 	stmdavc	r2, {r8, sl}
     d90:	03000095 	movweq	r0, #149	; 0x95
     d94:	33300136 	teqcc	r0, #-2147483635	; 0x8000000d
     d98:	d8306d67 	ldmdale	r0!, {r0, r1, r2, r5, r6, r8, sl, fp, sp, lr}
     d9c:	67676730 			; <UNDEFINED> instruction: 0x67676730
     da0:	86686767 	strbthi	r6, [r8], -r7, ror #14
     da4:	306a672f 	rsbcc	r6, sl, pc, lsr #14
     da8:	2f696767 	svccs	0x00696767
     dac:	674c6a67 	strbvs	r6, [ip, -r7, ror #20]
     db0:	302f2fc1 	eorcc	r2, pc, r1, asr #31
     db4:	3049682f 	subcc	r6, r9, pc, lsr #16
     db8:	01000202 	tsteq	r0, r2, lsl #4
     dbc:	0000d601 	andeq	sp, r0, r1, lsl #12
     dc0:	97000200 	strls	r0, [r0, -r0, lsl #4]
     dc4:	02000000 	andeq	r0, r0, #0
     dc8:	0d0efb01 	vstreq	d15, [lr, #-4]
     dcc:	01010100 	mrseq	r0, (UNDEF: 17)
     dd0:	00000001 	andeq	r0, r0, r1
     dd4:	01000001 	tsteq	r0, r1
     dd8:	34317363 	ldrtcc	r7, [r1], #-867	; 0x363
     ddc:	692d6530 	pushvs	{r4, r5, r8, sl, sp, lr}
     de0:	7265746e 	rsbvc	r7, r5, #1845493760	; 0x6e000000
     de4:	74707572 	ldrbtvc	r7, [r0], #-1394	; 0x572
     de8:	73552f00 	cmpvc	r5, #0, 30
     dec:	2f737265 	svccs	0x00737265
     df0:	61697262 	cmnvs	r9, r2, ror #4
     df4:	6e756a6e 	vsubvs.f32	s13, s10, s29
     df8:	7365442f 	cmnvc	r5, #788529152	; 0x2f000000
     dfc:	706f746b 	rsbvc	r7, pc, fp, ror #8
     e00:	6863732f 	stmdavs	r3!, {r0, r1, r2, r3, r5, r8, r9, ip, sp, lr}^
     e04:	2f6c6f6f 	svccs	0x006c6f6f
     e08:	746e6957 	strbtvc	r6, [lr], #-2391	; 0x957
     e0c:	39317265 	ldmdbcc	r1!, {r0, r2, r5, r6, r9, ip, sp, lr}
     e10:	432f3032 	teqmi	pc, #50	; 0x32
     e14:	30343153 	eorscc	r3, r4, r3, asr r1
     e18:	73632f45 	cmnvc	r3, #276	; 0x114
     e1c:	65303431 	ldrvs	r3, [r0, #-1073]!	; 0x431
     e20:	7730322d 	ldrvc	r3, [r0, -sp, lsr #4]!
     e24:	6c2f6e69 	stcvs	14, cr6, [pc], #-420	; c88 <_start-0x7378>
     e28:	69706269 	ldmdbvs	r0!, {r0, r3, r5, r6, r9, sp, lr}^
     e2c:	6e690000 	cdpvs	0, 6, cr0, cr9, cr0, {0}
     e30:	72726574 	rsbsvc	r6, r2, #116, 10	; 0x1d000000
     e34:	73747075 	cmnvc	r4, #117	; 0x75
     e38:	632e632d 	teqvs	lr, #-1275068416	; 0xb4000000
     e3c:	00000100 	andeq	r0, r0, r0, lsl #2
     e40:	2e697072 	mcrcs	0, 3, r7, cr9, cr2, {3}
     e44:	00020068 	andeq	r0, r2, r8, rrx
     e48:	69707200 	ldmdbvs	r0!, {r9, ip, sp, lr}^
     e4c:	746e692d 	strbtvc	r6, [lr], #-2349	; 0x92d
     e50:	75727265 	ldrbvc	r7, [r2, #-613]!	; 0x265
     e54:	2e737470 	mrccs	4, 3, r7, cr3, cr0, {3}
     e58:	00010068 	andeq	r0, r1, r8, rrx
     e5c:	05000000 	streq	r0, [r0, #-0]
     e60:	0096cc02 	addseq	ip, r6, r2, lsl #24
     e64:	67311600 	ldrvs	r1, [r1, -r0, lsl #12]!
     e68:	2e0e0367 	cdpcs	3, 0, cr0, cr14, cr7, {3}
     e6c:	002d2f83 	eoreq	r2, sp, r3, lsl #31
     e70:	2f020402 	svccs	0x00020402
     e74:	02040200 	andeq	r0, r4, #0, 4
     e78:	04020065 	streq	r0, [r2], #-101	; 0x65
     e7c:	062e0601 	strteq	r0, [lr], -r1, lsl #12
     e80:	0867a24c 	stmdaeq	r7!, {r2, r3, r6, r9, sp, pc}^
     e84:	ae0867b0 	mcrge	7, 0, r6, cr8, cr0, {5}
     e88:	67ae0867 	strvs	r0, [lr, r7, ror #16]!
     e8c:	0867ae08 	stmdaeq	r7!, {r3, r9, sl, fp, sp, pc}^
     e90:	1c0267ae 	stcne	7, cr6, [r2], {174}	; 0xae
     e94:	28010100 	stmdacs	r1, {r8}
     e98:	02000001 	andeq	r0, r0, #1
     e9c:	00010d00 	andeq	r0, r1, r0, lsl #26
     ea0:	fb010200 	blx	416aa <__bss_end__+0x36f42>
     ea4:	01000d0e 	tsteq	r0, lr, lsl #26
     ea8:	00010101 	andeq	r0, r1, r1, lsl #2
     eac:	00010000 	andeq	r0, r1, r0
     eb0:	73630100 	cmnvc	r3, #0, 2
     eb4:	65303431 	ldrvs	r3, [r0, #-1073]!	; 0x431
     eb8:	6372732d 	cmnvs	r2, #-1275068416	; 0xb4000000
     ebc:	73752f00 	cmnvc	r5, #0, 30
     ec0:	6f6c2f72 	svcvs	0x006c2f72
     ec4:	2f6c6163 	svccs	0x006c6163
     ec8:	6c6c6543 	cfstr64vs	mvdx6, [ip], #-268	; 0xfffffef4
     ecc:	612f7261 	teqvs	pc, r1, ror #4
     ed0:	6e2d6d72 	mcrvs	13, 1, r6, cr13, cr2, {3}
     ed4:	2d656e6f 	stclcs	14, cr6, [r5, #-444]!	; 0xfffffe44
     ed8:	69626165 	stmdbvs	r2!, {r0, r2, r5, r6, r8, sp, lr}^
     edc:	382e342f 	stmdacc	lr!, {r0, r1, r2, r3, r5, sl, ip, sp}
     ee0:	632d332e 	teqvs	sp, #-1207959552	; 0xb8000000
     ee4:	30373173 	eorscc	r3, r7, r3, ror r1
     ee8:	696c2f65 	stmdbvs	ip!, {r0, r2, r5, r6, r8, r9, sl, fp, sp}^
     eec:	63672f62 	cmnvs	r7, #392	; 0x188
     ef0:	72612f63 	rsbvc	r2, r1, #396	; 0x18c
     ef4:	6f6e2d6d 	svcvs	0x006e2d6d
     ef8:	652d656e 	strvs	r6, [sp, #-1390]!	; 0x56e
     efc:	2f696261 	svccs	0x00696261
     f00:	2e382e34 	mrccs	14, 1, r2, cr8, cr4, {1}
     f04:	6e692f33 	mcrvs	15, 3, r2, cr9, cr3, {1}
     f08:	64756c63 	ldrbtvs	r6, [r5], #-3171	; 0xc63
     f0c:	752f0065 	strvc	r0, [pc, #-101]!	; eaf <_start-0x7151>
     f10:	6c2f7273 	sfmvs	f7, 4, [pc], #-460	; d4c <_start-0x72b4>
     f14:	6c61636f 	stclvs	3, cr6, [r1], #-444	; 0xfffffe44
     f18:	6c65432f 	stclvs	3, cr4, [r5], #-188	; 0xffffff44
     f1c:	2f72616c 	svccs	0x0072616c
     f20:	2d6d7261 	sfmcs	f7, 2, [sp, #-388]!	; 0xfffffe7c
     f24:	656e6f6e 	strbvs	r6, [lr, #-3950]!	; 0xf6e
     f28:	6261652d 	rsbvs	r6, r1, #188743680	; 0xb400000
     f2c:	2e342f69 	cdpcs	15, 3, cr2, cr4, cr9, {3}
     f30:	2d332e38 	ldccs	14, cr2, [r3, #-224]!	; 0xffffff20
     f34:	37317363 	ldrcc	r7, [r1, -r3, ror #6]!
     f38:	612f6530 	teqvs	pc, r0, lsr r5	; <UNPREDICTABLE>
     f3c:	6e2d6d72 	mcrvs	13, 1, r6, cr13, cr2, {3}
     f40:	2d656e6f 	stclcs	14, cr6, [r5, #-444]!	; 0xfffffe44
     f44:	69626165 	stmdbvs	r2!, {r0, r2, r5, r6, r8, sp, lr}^
     f48:	636e692f 	cmnvs	lr, #770048	; 0xbc000
     f4c:	6564756c 	strbvs	r7, [r4, #-1388]!	; 0x56c
     f50:	6f630000 	svcvs	0x00630000
     f54:	6f72746e 	svcvs	0x0072746e
     f58:	6c622d6c 	stclvs	13, cr2, [r2], #-432	; 0xfffffe50
     f5c:	2e6b636f 	cdpcs	3, 6, cr6, cr11, cr15, {3}
     f60:	00010063 	andeq	r0, r1, r3, rrx
     f64:	64747300 	ldrbtvs	r7, [r4], #-768	; 0x300
     f68:	2e666564 	cdpcs	5, 6, cr6, cr6, cr4, {3}
     f6c:	00020068 	andeq	r0, r2, r8, rrx
     f70:	64747300 	ldrbtvs	r7, [r4], #-768	; 0x300
     f74:	2d746e69 	ldclcs	14, cr6, [r4, #-420]!	; 0xfffffe5c
     f78:	2e636367 	cdpcs	3, 6, cr6, cr3, cr7, {3}
     f7c:	00020068 	andeq	r0, r2, r8, rrx
     f80:	2d777300 	ldclcs	3, cr7, [r7, #-0]
     f84:	74726175 	ldrbtvc	r6, [r2], #-373	; 0x175
     f88:	0100682e 	tsteq	r0, lr, lsr #16
     f8c:	6f630000 	svcvs	0x00630000
     f90:	6f72746e 	svcvs	0x0072746e
     f94:	6c622d6c 	stclvs	13, cr2, [r2], #-432	; 0xfffffe50
     f98:	2e6b636f 	cdpcs	3, 6, cr6, cr11, cr15, {3}
     f9c:	00010068 	andeq	r0, r1, r8, rrx
     fa0:	72747300 	rsbsvc	r7, r4, #0, 6
     fa4:	2e676e69 	cdpcs	14, 6, cr6, cr7, cr9, {3}
     fa8:	00030068 	andeq	r0, r3, r8, rrx
     fac:	05000000 	streq	r0, [r0, #-0]
     fb0:	009a0802 	addseq	r0, sl, r2, lsl #16
     fb4:	83301600 	teqhi	r0, #0, 12
     fb8:	9f144c68 	svcls	0x00144c68
     fbc:	04022f4b 	streq	r2, [r2], #-3915	; 0xf4b
     fc0:	ec010100 	stfs	f0, [r1], {-0}
     fc4:	02000000 	andeq	r0, r0, #0
     fc8:	0000d000 	andeq	sp, r0, r0
     fcc:	fb010200 	blx	417d6 <__bss_end__+0x3706e>
     fd0:	01000d0e 	tsteq	r0, lr, lsl #26
     fd4:	00010101 	andeq	r0, r1, r1, lsl #2
     fd8:	00010000 	andeq	r0, r1, r0
     fdc:	696c0100 	stmdbvs	ip!, {r8}^
     fe0:	2f006362 	svccs	0x00006362
     fe4:	2f727375 	svccs	0x00727375
     fe8:	61636f6c 	cmnvs	r3, ip, ror #30
     fec:	65432f6c 	strbvs	r2, [r3, #-3948]	; 0xf6c
     ff0:	72616c6c 	rsbvc	r6, r1, #108, 24	; 0x6c00
     ff4:	6d72612f 	ldfvse	f6, [r2, #-188]!	; 0xffffff44
     ff8:	6e6f6e2d 	cdpvs	14, 6, cr6, cr15, cr13, {1}
     ffc:	61652d65 	cmnvs	r5, r5, ror #26
    1000:	342f6962 	strtcc	r6, [pc], #-2402	; 1008 <_start-0x6ff8>
    1004:	332e382e 	teqcc	lr, #3014656	; 0x2e0000
    1008:	3173632d 	cmncc	r3, sp, lsr #6
    100c:	2f653037 	svccs	0x00653037
    1010:	2f62696c 	svccs	0x0062696c
    1014:	2f636367 	svccs	0x00636367
    1018:	2d6d7261 	sfmcs	f7, 2, [sp, #-388]!	; 0xfffffe7c
    101c:	656e6f6e 	strbvs	r6, [lr, #-3950]!	; 0xf6e
    1020:	6261652d 	rsbvs	r6, r1, #188743680	; 0xb400000
    1024:	2e342f69 	cdpcs	15, 3, cr2, cr4, cr9, {3}
    1028:	2f332e38 	svccs	0x00332e38
    102c:	6c636e69 	stclvs	14, cr6, [r3], #-420	; 0xfffffe5c
    1030:	00656475 	rsbeq	r6, r5, r5, ror r4
    1034:	7273752f 	rsbsvc	r7, r3, #197132288	; 0xbc00000
    1038:	636f6c2f 	cmnvs	pc, #12032	; 0x2f00
    103c:	432f6c61 	teqmi	pc, #24832	; 0x6100
    1040:	616c6c65 	cmnvs	ip, r5, ror #24
    1044:	72612f72 	rsbvc	r2, r1, #456	; 0x1c8
    1048:	6f6e2d6d 	svcvs	0x006e2d6d
    104c:	652d656e 	strvs	r6, [sp, #-1390]!	; 0x56e
    1050:	2f696261 	svccs	0x00696261
    1054:	2e382e34 	mrccs	14, 1, r2, cr8, cr4, {1}
    1058:	73632d33 	cmnvc	r3, #3264	; 0xcc0
    105c:	65303731 	ldrvs	r3, [r0, #-1841]!	; 0x731
    1060:	6d72612f 	ldfvse	f6, [r2, #-188]!	; 0xffffff44
    1064:	6e6f6e2d 	cdpvs	14, 6, cr6, cr15, cr13, {1}
    1068:	61652d65 	cmnvs	r5, r5, ror #26
    106c:	692f6962 	stmdbvs	pc!, {r1, r5, r6, r8, fp, sp, lr}	; <UNPREDICTABLE>
    1070:	756c636e 	strbvc	r6, [ip, #-878]!	; 0x36e
    1074:	00006564 	andeq	r6, r0, r4, ror #10
    1078:	736d656d 	cmnvc	sp, #457179136	; 0x1b400000
    107c:	632e7465 	teqvs	lr, #1694498816	; 0x65000000
    1080:	00000100 	andeq	r0, r0, r0, lsl #2
    1084:	64647473 	strbtvs	r7, [r4], #-1139	; 0x473
    1088:	682e6665 	stmdavs	lr!, {r0, r2, r5, r6, r9, sl, sp, lr}
    108c:	00000200 	andeq	r0, r0, r0, lsl #4
    1090:	69727473 	ldmdbvs	r2!, {r0, r1, r4, r5, r6, sl, ip, sp, lr}^
    1094:	682e676e 	stmdavs	lr!, {r1, r2, r3, r5, r6, r8, r9, sl, sp, lr}
    1098:	00000300 	andeq	r0, r0, r0, lsl #6
    109c:	02050000 	andeq	r0, r5, #0
    10a0:	00009a58 	andeq	r9, r0, r8, asr sl
    10a4:	2f4c1314 	svccs	0x004c1314
    10a8:	01040200 	mrseq	r0, R12_usr
    10ac:	02024d49 	andeq	r4, r2, #4672	; 0x1240
    10b0:	Address 0x00000000000010b0 is out of bounds.


Disassembly of section .debug_str:

00000000 <.debug_str>:
   0:	4f495047 	svcmi	0x00495047
   4:	544e495f 	strbpl	r4, [lr], #-2399	; 0x95f
   8:	50470030 	subpl	r0, r7, r0, lsr r0
   c:	495f4f49 	ldmdbmi	pc, {r0, r3, r6, r8, r9, sl, fp, lr}^	; <UNPREDICTABLE>
  10:	0031544e 	eorseq	r5, r1, lr, asr #8
  14:	4f495047 	svcmi	0x00495047
  18:	544e495f 	strbpl	r4, [lr], #-2399	; 0x95f
  1c:	50470032 	subpl	r0, r7, r2, lsr r0
  20:	495f4f49 	ldmdbmi	pc, {r0, r3, r6, r8, r9, sl, fp, lr}^	; <UNPREDICTABLE>
  24:	0033544e 	eorseq	r5, r3, lr, asr #8
  28:	5f697072 	svcpl	0x00697072
  2c:	65736572 	ldrbvs	r6, [r3, #-1394]!	; 0x572
  30:	75705f74 	ldrbvc	r5, [r0, #-3956]!	; 0xf74
  34:	67006374 	smlsdxvs	r0, r4, r3, r6
  38:	5f6f6970 	svcpl	0x006f6970
  3c:	74697277 	strbtvc	r7, [r9], #-631	; 0x277
  40:	6f6e0065 	svcvs	0x006e0065
  44:	69616d74 	stmdbvs	r1!, {r2, r4, r5, r6, r8, sl, fp, sp, lr}^
  48:	7261006e 	rsbvc	r0, r1, #110	; 0x6e
  4c:	69745f6d 	ldmdbvs	r4!, {r0, r2, r3, r5, r6, r8, r9, sl, fp, ip, lr}^
  50:	5f72656d 	svcpl	0x0072656d
  54:	49574152 	ldmdbmi	r7, {r1, r4, r6, r8, lr}^
  58:	75005152 	strvc	r5, [r0, #-338]	; 0x152
  5c:	5f747261 	svcpl	0x00747261
  60:	74696e69 	strbtvc	r6, [r9], #-3689	; 0xe69
  64:	63796300 	cmnvs	r9, #0, 6
  68:	7265705f 	rsbvc	r7, r5, #95	; 0x5f
  6c:	7469625f 	strbtvc	r6, [r9], #-607	; 0x25f
  70:	6e6f6c00 	cdpvs	12, 6, cr6, cr15, cr0, {0}
  74:	6f6c2067 	svcvs	0x006c2067
  78:	7520676e 	strvc	r6, [r0, #-1902]!	; 0x76e
  7c:	6769736e 	strbvs	r7, [r9, -lr, ror #6]!
  80:	2064656e 	rsbcs	r6, r4, lr, ror #10
  84:	00746e69 	rsbseq	r6, r4, r9, ror #28
  88:	74697277 	strbtvc	r7, [r9], #-631	; 0x277
  8c:	79635f65 	stmdbvc	r3!, {r0, r2, r5, r6, r8, r9, sl, fp, ip, lr}^
  90:	6e755f63 	cdpvs	15, 7, cr5, cr5, cr3, {3}
  94:	006c6974 	rsbeq	r6, ip, r4, ror r9
  98:	676e6f6c 	strbvs	r6, [lr, -ip, ror #30]!
  9c:	6e6f6c20 	cdpvs	12, 6, cr6, cr15, cr0, {1}
  a0:	6e692067 	cdpvs	0, 6, cr2, cr9, cr7, {3}
  a4:	77730074 			; <UNDEFINED> instruction: 0x77730074
  a8:	7261755f 	rsbvc	r7, r1, #398458880	; 0x17c00000
  ac:	65675f74 	strbvs	r5, [r7, #-3956]!	; 0xf74
  b0:	745f6374 	ldrbvc	r6, [pc], #-884	; b8 <_start-0x7f48>
  b4:	6f656d69 	svcvs	0x00656d69
  b8:	73007475 	movwvc	r7, #1141	; 0x475
  bc:	61755f77 	cmnvs	r5, r7, ror pc
  c0:	675f7472 			; <UNDEFINED> instruction: 0x675f7472
  c4:	5f737465 	svcpl	0x00737465
  c8:	69746e75 	ldmdbvs	r4!, {r0, r2, r4, r5, r6, r9, sl, fp, sp, lr}^
  cc:	656e006c 	strbvs	r0, [lr, #-108]!	; 0x6c
  d0:	746e6576 	strbtvc	r6, [lr], #-1398	; 0x576
  d4:	72610073 	rsbvc	r0, r1, #115	; 0x73
  d8:	69745f6d 	ldmdbvs	r4!, {r0, r2, r3, r5, r6, r8, r9, sl, fp, ip, lr}^
  dc:	5f72656d 	svcpl	0x0072656d
  e0:	746e6f43 	strbtvc	r6, [lr], #-3907	; 0xf43
  e4:	006c6f72 	rsbeq	r6, ip, r2, ror pc
  e8:	61765f5f 	cmnvs	r6, pc, asr pc
  ec:	73696c5f 	cmnvc	r9, #24320	; 0x5f00
  f0:	72610074 	rsbvc	r0, r1, #116	; 0x74
  f4:	69745f6d 	ldmdbvs	r4!, {r0, r2, r3, r5, r6, r8, r9, sl, fp, ip, lr}^
  f8:	5f72656d 	svcpl	0x0072656d
  fc:	64616f4c 	strbtvs	r6, [r1], #-3916	; 0xf4c
 100:	6d726100 	ldfvse	f6, [r2, #-0]
 104:	6d69745f 	cfstrdvs	mvd7, [r9, #-380]!	; 0xfffffe84
 108:	425f7265 	subsmi	r7, pc, #1342177286	; 0x50000006
 10c:	00657361 	rsbeq	r7, r5, r1, ror #6
 110:	5f766564 	svcpl	0x00766564
 114:	72726162 	rsbsvc	r6, r2, #-2147483624	; 0x80000018
 118:	00726569 	rsbseq	r6, r2, r9, ror #10
 11c:	755f7773 	ldrbvc	r7, [pc, #-1907]	; fffff9b1 <__bss_end__+0xffff5249>
 120:	5f747261 	svcpl	0x00747261
 124:	63746567 	cmnvs	r4, #432013312	; 0x19c00000
 128:	6d726100 	ldfvse	f6, [r2, #-0]
 12c:	6d69745f 	cfstrdvs	mvd7, [r9, #-380]!	; 0xfffffe84
 130:	4d5f7265 	lfmmi	f7, 2, [pc, #-404]	; ffffffa4 <__bss_end__+0xffff583c>
 134:	656b7361 	strbvs	r7, [fp, #-865]!	; 0x361
 138:	51524964 	cmppl	r2, r4, ror #18
 13c:	5f6e6900 	svcpl	0x006e6900
 140:	006e6970 	rsbeq	r6, lr, r0, ror r9
 144:	616c6564 	cmnvs	ip, r4, ror #10
 148:	636e5f79 	cmnvs	lr, #484	; 0x1e4
 14c:	656c6379 	strbvs	r6, [ip, #-889]!	; 0x379
 150:	70670073 	rsbvc	r0, r7, r3, ror r0
 154:	655f6f69 	ldrbvs	r6, [pc, #-3945]	; fffff1f3 <__bss_end__+0xffff4a8b>
 158:	746e6576 	strbtvc	r6, [lr], #-1398	; 0x576
 15c:	656c635f 	strbvs	r6, [ip, #-863]!	; 0x35f
 160:	5f007261 	svcpl	0x00007261
 164:	4e55465f 	mrcmi	6, 2, r4, cr5, cr15, {2}
 168:	4f495443 	svcmi	0x00495443
 16c:	005f5f4e 	subseq	r5, pc, lr, asr #30
 170:	6e657665 	cdpvs	6, 6, cr7, cr5, cr5, {3}
 174:	68730074 	ldmdavs	r3!, {r2, r4, r5, r6}^
 178:	2074726f 	rsbscs	r7, r4, pc, ror #4
 17c:	69736e75 	ldmdbvs	r3!, {r0, r2, r4, r5, r6, r9, sl, fp, sp, lr}^
 180:	64656e67 	strbtvs	r6, [r5], #-3687	; 0xe67
 184:	746e6920 	strbtvc	r6, [lr], #-2336	; 0x920
 188:	5f777300 	svcpl	0x00777300
 18c:	74726175 	ldrbtvc	r6, [r2], #-373	; 0x175
 190:	696e695f 	stmdbvs	lr!, {r0, r1, r2, r3, r4, r6, r8, fp, sp, lr}^
 194:	65685f74 	strbvs	r5, [r8, #-3956]!	; 0xf74
 198:	7265706c 	rsbvc	r7, r5, #108	; 0x6c
 19c:	6d697400 	cfstrdvs	mvd7, [r9, #-0]
 1a0:	74756f65 	ldrbtvc	r6, [r5], #-3941	; 0xf65
 1a4:	6573755f 	ldrbvs	r7, [r3, #-1375]!	; 0x55f
 1a8:	77730063 	ldrbvc	r0, [r3, -r3, rrx]!
 1ac:	7261755f 	rsbvc	r7, r1, #398458880	; 0x17c00000
 1b0:	75705f74 	ldrbvc	r5, [r0, #-3956]!	; 0xf74
 1b4:	73006374 	movwvc	r6, #884	; 0x374
 1b8:	61755f77 	cmnvs	r5, r7, ror pc
 1bc:	705f7472 	subsvc	r7, pc, r2, ror r4	; <UNPREDICTABLE>
 1c0:	006b7475 	rsbeq	r7, fp, r5, ror r4
 1c4:	705f6176 	subsvc	r6, pc, r6, ror r1	; <UNPREDICTABLE>
 1c8:	746e6972 	strbtvc	r6, [lr], #-2418	; 0x972
 1cc:	7773006b 	ldrbvc	r0, [r3, -fp, rrx]!
 1d0:	7261755f 	rsbvc	r7, r1, #398458880	; 0x17c00000
 1d4:	72705f74 	rsbsvc	r5, r0, #116, 30	; 0x1d0
 1d8:	6b746e69 	blvs	1d1bb84 <__bss_end__+0x1d1141c>
 1dc:	69706700 	ldmdbvs	r0!, {r8, r9, sl, sp, lr}^
 1e0:	65725f6f 	ldrbvs	r5, [r2, #-3951]!	; 0xf6f
 1e4:	63006461 	movwvs	r6, #1121	; 0x461
 1e8:	6e61656c 	cdpvs	5, 6, cr6, cr1, cr12, {3}
 1ec:	6265725f 	rsbvs	r7, r5, #-268435451	; 0xf0000005
 1f0:	00746f6f 	rsbseq	r6, r4, pc, ror #30
 1f4:	6f697067 	svcvs	0x00697067
 1f8:	746e695f 	strbtvc	r6, [lr], #-2399	; 0x95f
 1fc:	7369725f 	cmnvc	r9, #-268435451	; 0xf0000005
 200:	5f676e69 	svcpl	0x00676e69
 204:	65676465 	strbvs	r6, [r7, #-1125]!	; 0x465
 208:	7a697300 	bvc	1a5ce10 <__bss_end__+0x1a526a8>
 20c:	70797465 	rsbsvc	r7, r9, r5, ror #8
 210:	68630065 	stmdavs	r3!, {r0, r2, r5, r6}^
 214:	695f7261 	ldmdbvs	pc, {r0, r5, r6, r9, ip, sp, lr}^	; <UNPREDICTABLE>
 218:	5f5f006e 	svcpl	0x005f006e
 21c:	63756e67 	cmnvs	r5, #1648	; 0x670
 220:	5f61765f 	svcpl	0x0061765f
 224:	7473696c 	ldrbtvc	r6, [r3], #-2412	; 0x96c
 228:	6d726100 	ldfvse	f6, [r2, #-0]
 22c:	6d69745f 	cfstrdvs	mvd7, [r9, #-380]!	; 0xfffffe84
 230:	525f7265 	subspl	r7, pc, #1342177286	; 0x50000006
 234:	616f6c65 	cmnvs	pc, r5, ror #24
 238:	77730064 	ldrbvc	r0, [r3, -r4, rrx]!
 23c:	7261755f 	rsbvc	r7, r1, #398458880	; 0x17c00000
 240:	65675f74 	strbvs	r5, [r7, #-3956]!	; 0xf74
 244:	745f7374 	ldrbvc	r7, [pc], #-884	; 24c <_start-0x7db4>
 248:	6f656d69 	svcvs	0x00656d69
 24c:	63007475 	movwvs	r7, #1141	; 0x475
 250:	656c6379 	strbvs	r6, [ip, #-889]!	; 0x379
 254:	756f635f 	strbvc	r6, [pc, #-863]!	; fffffefd <__bss_end__+0xffff5795>
 258:	7265746e 	rsbvc	r7, r5, #1845493760	; 0x6e000000
 25c:	746e6900 	strbtvc	r6, [lr], #-2304	; 0x900
 260:	696e695f 	stmdbvs	lr!, {r0, r1, r2, r3, r4, r6, r8, fp, sp, lr}^
 264:	6f5f0074 	svcvs	0x005f0074
 268:	74007475 	strvc	r7, [r0], #-1141	; 0x475
 26c:	72656d69 	rsbvc	r6, r5, #6720	; 0x1a40
 270:	7465675f 	strbtvc	r6, [r5], #-1887	; 0x75f
 274:	6573755f 	ldrbvs	r7, [r3, #-1375]!	; 0x55f
 278:	61725f63 	cmnvs	r2, r3, ror #30
 27c:	79730077 	ldmdbvc	r3!, {r0, r1, r2, r4, r5, r6}^
 280:	6d657473 	cfstrdvs	mvd7, [r5, #-460]!	; 0xfffffe34
 284:	616e655f 	cmnvs	lr, pc, asr r5
 288:	5f656c62 	svcpl	0x00656c62
 28c:	65746e69 	ldrbvs	r6, [r4, #-3689]!	; 0xe69
 290:	70757272 	rsbsvc	r7, r5, r2, ror r2
 294:	2f007374 	svccs	0x00007374
 298:	72657355 	rsbvc	r7, r5, #1409286145	; 0x54000001
 29c:	72622f73 	rsbvc	r2, r2, #460	; 0x1cc
 2a0:	6a6e6169 	bvs	1b9884c <__bss_end__+0x1b8e0e4>
 2a4:	442f6e75 	strtmi	r6, [pc], #-3701	; 2ac <_start-0x7d54>
 2a8:	746b7365 	strbtvc	r7, [fp], #-869	; 0x365
 2ac:	732f706f 	teqvc	pc, #111	; 0x6f
 2b0:	6f6f6863 	svcvs	0x006f6863
 2b4:	69572f6c 	ldmdbvs	r7, {r2, r3, r5, r6, r8, r9, sl, fp, sp}^
 2b8:	7265746e 	rsbvc	r7, r5, #1845493760	; 0x6e000000
 2bc:	30323931 	eorscc	r3, r2, r1, lsr r9
 2c0:	3153432f 	cmpcc	r3, pc, lsr #6
 2c4:	2f453034 	svccs	0x00453034
 2c8:	34317363 	ldrtcc	r7, [r1], #-867	; 0x363
 2cc:	322d6530 	eorcc	r6, sp, #48, 10	; 0xc000000
 2d0:	6e697730 	mcrvs	7, 3, r7, cr9, cr0, {1}
 2d4:	62616c2f 	rsbvs	r6, r1, #12032	; 0x2f00
 2d8:	2d382f73 	ldccs	15, cr2, [r8, #-460]!	; 0xfffffe34
 2dc:	69766564 	ldmdbvs	r6!, {r2, r5, r6, r8, sl, sp, lr}^
 2e0:	692d6563 	pushvs	{r0, r1, r5, r6, r8, sl, sp, lr}
 2e4:	7265746e 	rsbvc	r7, r5, #1845493760	; 0x6e000000
 2e8:	74707572 	ldrbtvc	r7, [r0], #-1394	; 0x572
 2ec:	61702f73 	cmnvs	r0, r3, ror pc
 2f0:	2d317472 	cfldrscs	mvf7, [r1, #-456]!	; 0xfffffe38
 2f4:	6f697067 	svcvs	0x00697067
 2f8:	746e692d 	strbtvc	r6, [lr], #-2349	; 0x92d
 2fc:	79626e00 	stmdbvc	r2!, {r9, sl, fp, sp, lr}^
 300:	00736574 	rsbseq	r6, r3, r4, ror r5
 304:	755f7773 	ldrbvc	r7, [pc, #-1907]	; fffffb99 <__bss_end__+0xffff5431>
 308:	5f747261 	svcpl	0x00747261
 30c:	6e750074 	mrcvs	0, 3, r0, cr5, cr4, {3}
 310:	6e676973 	mcrvs	9, 3, r6, cr7, cr3, {3}
 314:	63206465 	teqvs	r0, #1694498816	; 0x65000000
 318:	00726168 	rsbseq	r6, r2, r8, ror #2
 31c:	726f6873 	rsbvc	r6, pc, #7536640	; 0x730000
 320:	6e692074 	mcrvs	0, 3, r2, cr9, cr4, {3}
 324:	73750074 	cmnvc	r5, #116	; 0x74
 328:	745f6365 	ldrbvc	r6, [pc], #-869	; 330 <_start-0x7cd0>
 32c:	6f656d69 	svcvs	0x00656d69
 330:	64007475 	strvs	r7, [r0], #-1141	; 0x475
 334:	79616c65 	stmdbvc	r1!, {r0, r2, r5, r6, sl, fp, sp, lr}^
 338:	00736d5f 	rsbseq	r6, r3, pc, asr sp
 33c:	746e6975 	strbtvc	r6, [lr], #-2421	; 0x975
 340:	745f3233 	ldrbvc	r3, [pc], #-563	; 348 <_start-0x7cb8>
 344:	75616200 	strbvc	r6, [r1, #-512]!	; 0x200
 348:	756f0064 	strbvc	r0, [pc, #-100]!	; 2ec <_start-0x7d14>
 34c:	69705f74 	ldmdbvs	r0!, {r2, r4, r5, r6, r8, r9, sl, fp, ip, lr}^
 350:	5f6e006e 	svcpl	0x006e006e
 354:	69736972 	ldmdbvs	r3!, {r1, r4, r5, r6, r8, fp, sp, lr}^
 358:	655f676e 	ldrbvs	r6, [pc, #-1902]	; fffffbf2 <__bss_end__+0xffff548a>
 35c:	00656764 	rsbeq	r6, r5, r4, ror #14
 360:	20554e47 	subscs	r4, r5, r7, asr #28
 364:	2e342043 	cdpcs	0, 3, cr2, cr4, cr3, {2}
 368:	20332e38 	eorscs	r2, r3, r8, lsr lr
 36c:	70636d2d 	rsbvc	r6, r3, sp, lsr #26
 370:	72613d75 	rsbvc	r3, r1, #7488	; 0x1d40
 374:	3731316d 	ldrcc	r3, [r1, -sp, ror #2]!
 378:	667a6a36 			; <UNDEFINED> instruction: 0x667a6a36
 37c:	2d20732d 	stccs	3, cr7, [r0, #-180]!	; 0xffffff4c
 380:	6e75746d 	cdpvs	4, 7, cr7, cr5, cr13, {3}
 384:	72613d65 	rsbvc	r3, r1, #6464	; 0x1940
 388:	3731316d 	ldrcc	r3, [r1, -sp, ror #2]!
 38c:	667a6a36 			; <UNDEFINED> instruction: 0x667a6a36
 390:	2d20732d 	stccs	3, cr7, [r0, #-180]!	; 0xffffff4c
 394:	62646767 	rsbvs	r6, r4, #27000832	; 0x19c0000
 398:	674f2d20 	strbvs	r2, [pc, -r0, lsr #26]
 39c:	74732d20 	ldrbtvc	r2, [r3], #-3360	; 0xd20
 3a0:	6e673d64 	cdpvs	13, 6, cr3, cr7, cr4, {3}
 3a4:	20393975 	eorscs	r3, r9, r5, ror r9
 3a8:	7266662d 	rsbvc	r6, r6, #47185920	; 0x2d00000
 3ac:	74736565 	ldrbtvc	r6, [r3], #-1381	; 0x565
 3b0:	69646e61 	stmdbvs	r4!, {r0, r5, r6, r9, sl, fp, sp, lr}^
 3b4:	6700676e 	strvs	r6, [r0, -lr, ror #14]
 3b8:	5f6f6970 	svcpl	0x006f6970
 3bc:	5f746573 	svcpl	0x00746573
 3c0:	75706e69 	ldrbvc	r6, [r0, #-3689]!	; 0xe69
 3c4:	5f6e0074 	svcpl	0x006e0074
 3c8:	6c6c6166 	stfvse	f6, [ip], #-408	; 0xfffffe68
 3cc:	5f676e69 	svcpl	0x00676e69
 3d0:	65676465 	strbvs	r6, [r7, #-1125]!	; 0x465
 3d4:	5f777300 	svcpl	0x00777300
 3d8:	74726175 	ldrbtvc	r6, [r2], #-373	; 0x175
 3dc:	7465675f 	strbtvc	r6, [r5], #-1887	; 0x75f
 3e0:	6e755f73 	mrcvs	15, 3, r5, cr5, cr3, {3}
 3e4:	5f6c6974 	svcpl	0x006c6974
 3e8:	006b6c62 	rsbeq	r6, fp, r2, ror #24
 3ec:	6f6c2d32 	svcvs	0x006c2d32
 3f0:	2d636967 	stclcs	9, cr6, [r3, #-412]!	; 0xfffffe64
 3f4:	6c616e61 	stclvs	14, cr6, [r1], #-388	; 0xfffffe7c
 3f8:	72657a79 	rsbvc	r7, r5, #495616	; 0x79000
 3fc:	5f00632e 	svcpl	0x0000632e
 400:	0070615f 	rsbseq	r6, r0, pc, asr r1
 404:	5f6d7261 	svcpl	0x006d7261
 408:	656d6974 	strbvs	r6, [sp, #-2420]!	; 0x974
 40c:	72505f72 	subsvc	r5, r0, #456	; 0x1c8
 410:	76694465 	strbtvc	r4, [r9], -r5, ror #8
 414:	72656469 	rsbvc	r6, r5, #1761607680	; 0x69000000
 418:	72656400 	rsbvc	r6, r5, #0, 8
 41c:	64657669 	strbtvs	r7, [r5], #-1641	; 0x669
 420:	6d726100 	ldfvse	f6, [r2, #-0]
 424:	6d69745f 	cfstrdvs	mvd7, [r9, #-380]!	; 0xfffffe84
 428:	565f7265 	ldrbpl	r7, [pc], -r5, ror #4
 42c:	65756c61 	ldrbvs	r6, [r5, #-3169]!	; 0xc61
 430:	6d726100 	ldfvse	f6, [r2, #-0]
 434:	6d69745f 	cfstrdvs	mvd7, [r9, #-380]!	; 0xfffffe84
 438:	495f7265 	ldmdbmi	pc, {r0, r2, r5, r6, r9, ip, sp, lr}^	; <UNPREDICTABLE>
 43c:	6c435152 	stfvse	f5, [r3], {82}	; 0x52
 440:	00726165 	rsbseq	r6, r2, r5, ror #2
 444:	6f697067 	svcvs	0x00697067
 448:	7465735f 	strbtvc	r7, [r5], #-863	; 0x35f
 44c:	74756f5f 	ldrbtvc	r6, [r5], #-3935	; 0xf5f
 450:	00747570 	rsbseq	r7, r4, r0, ror r5
 454:	74696177 	strbtvc	r6, [r9], #-375	; 0x177
 458:	746e755f 	strbtvc	r7, [lr], #-1375	; 0x55f
 45c:	755f6c69 	ldrbvc	r6, [pc, #-3177]	; fffff7fb <__bss_end__+0xffff5093>
 460:	00636573 	rsbeq	r6, r3, r3, ror r5
 464:	5f697072 	svcpl	0x00697072
 468:	5f6d7261 	svcpl	0x006d7261
 46c:	656d6974 	strbvs	r6, [sp, #-2420]!	; 0x974
 470:	00745f72 	rsbseq	r5, r4, r2, ror pc
 474:	746e6975 	strbtvc	r6, [lr], #-2421	; 0x975
 478:	00745f38 	rsbseq	r5, r4, r8, lsr pc
 47c:	6f697067 	svcvs	0x00697067
 480:	746e695f 	strbtvc	r6, [lr], #-2399	; 0x95f
 484:	6c61665f 	stclvs	6, cr6, [r1], #-380	; 0xfffffe84
 488:	676e696c 	strbvs	r6, [lr, -ip, ror #18]!
 48c:	6764655f 			; <UNDEFINED> instruction: 0x6764655f
 490:	73690065 	cmnvc	r9, #101	; 0x65
 494:	6970675f 	ldmdbvs	r0!, {r0, r1, r2, r3, r4, r6, r8, r9, sl, sp, lr}^
 498:	6e695f6f 	cdpvs	15, 6, cr5, cr9, cr15, {3}
 49c:	72610074 	rsbvc	r0, r1, #116	; 0x74
 4a0:	63007367 	movwvs	r7, #871	; 0x367
 4a4:	656c6379 	strbvs	r6, [ip, #-889]!	; 0x379
 4a8:	7265705f 	rsbvc	r7, r5, #95	; 0x5f
 4ac:	7469625f 	strbtvc	r6, [r9], #-607	; 0x25f
 4b0:	6d726100 	ldfvse	f6, [r2, #-0]
 4b4:	6d69745f 	cfstrdvs	mvd7, [r9, #-380]!	; 0xfffffe84
 4b8:	465f7265 	ldrbmi	r7, [pc], -r5, ror #4
 4bc:	52656572 	rsbpl	r6, r5, #478150656	; 0x1c800000
 4c0:	696e6e75 	stmdbvs	lr!, {r0, r2, r4, r5, r6, r9, sl, fp, sp, lr}^
 4c4:	6f43676e 	svcvs	0x0043676e
 4c8:	65746e75 	ldrbvs	r6, [r4, #-3701]!	; 0xe75
 4cc:	696c0072 	stmdbvs	ip!, {r1, r4, r5, r6}^
 4d0:	702f6362 	eorvc	r6, pc, r2, ror #6
 4d4:	746e6972 	strbtvc	r6, [lr], #-2418	; 0x972
 4d8:	00632e6b 	rsbeq	r2, r3, fp, ror #28
 4dc:	6573552f 	ldrbvs	r5, [r3, #-1327]!	; 0x52f
 4e0:	622f7372 	eorvs	r7, pc, #-939524095	; 0xc8000001
 4e4:	6e616972 	mcrvs	9, 3, r6, cr1, cr2, {3}
 4e8:	2f6e756a 	svccs	0x006e756a
 4ec:	6b736544 	blvs	1cd9a04 <__bss_end__+0x1ccf29c>
 4f0:	2f706f74 	svccs	0x00706f74
 4f4:	6f686373 	svcvs	0x00686373
 4f8:	572f6c6f 	strpl	r6, [pc, -pc, ror #24]!
 4fc:	65746e69 	ldrbvs	r6, [r4, #-3689]!	; 0xe69
 500:	32393172 	eorscc	r3, r9, #-2147483620	; 0x8000001c
 504:	53432f30 	movtpl	r2, #16176	; 0x3f30
 508:	45303431 	ldrmi	r3, [r0, #-1073]!	; 0x431
 50c:	3173632f 	cmncc	r3, pc, lsr #6
 510:	2d653034 	stclcs	0, cr3, [r5, #-208]!	; 0xffffff30
 514:	69773032 	ldmdbvs	r7!, {r1, r4, r5, ip, sp}^
 518:	696c2f6e 	stmdbvs	ip!, {r1, r2, r3, r5, r6, r8, r9, sl, fp, sp}^
 51c:	00697062 	rsbeq	r7, r9, r2, rrx
 520:	65746e69 	ldrbvs	r6, [r4, #-3689]!	; 0xe69
 524:	6c616e72 	stclvs	14, cr6, [r1], #-456	; 0xfffffe38
 528:	7475705f 	ldrbtvc	r7, [r5], #-95	; 0x5f
 52c:	72616863 	rsbvc	r6, r1, #6488064	; 0x630000
 530:	69707200 	ldmdbvs	r0!, {r9, ip, sp, lr}^
 534:	7475705f 	ldrbtvc	r7, [r5], #-95	; 0x5f
 538:	72616863 	rsbvc	r6, r1, #6488064	; 0x630000
 53c:	62696c00 	rsbvs	r6, r9, #0, 24
 540:	75702f63 	ldrbvc	r2, [r0, #-3939]!	; 0xf63
 544:	61686374 	smcvs	34356	; 0x8634
 548:	00632e72 	rsbeq	r2, r3, r2, ror lr
 54c:	5f697072 	svcpl	0x00697072
 550:	5f746573 	svcpl	0x00746573
 554:	63747570 	cmnvs	r4, #112, 10	; 0x1c000000
 558:	62696c00 	rsbvs	r6, r9, #0, 24
 55c:	75702f63 	ldrbvc	r2, [r0, #-3939]!	; 0xf63
 560:	632e6b74 	teqvs	lr, #116, 22	; 0x1d000
 564:	746e6900 	strbtvc	r6, [lr], #-2304	; 0x900
 568:	616e7265 	cmnvs	lr, r5, ror #4
 56c:	75705f6c 	ldrbvc	r5, [r0, #-3948]!	; 0xf6c
 570:	6e006b74 	vmovvs.16	d0[1], r6
 574:	705f6765 	subsvc	r6, pc, r5, ror #14
 578:	76657200 	strbtvc	r7, [r5], -r0, lsl #4
 57c:	65737265 	ldrbvs	r7, [r3, #-613]!	; 0x265
 580:	64736900 	ldrbtvs	r6, [r3], #-2304	; 0x900
 584:	74696769 	strbtvc	r6, [r9], #-1897	; 0x769
 588:	74757000 	ldrbtvc	r7, [r5], #-0
 58c:	70665f73 	rsbvc	r5, r6, r3, ror pc
 590:	73616200 	cmnvc	r1, #0, 4
 594:	69730065 	ldmdbvs	r3!, {r0, r2, r5, r6}^
 598:	64656e67 	strbtvs	r6, [r5], #-3687	; 0xe67
 59c:	6c00705f 	stcvs	0, cr7, [r0], {95}	; 0x5f
 5a0:	2f636269 	svccs	0x00636269
 5a4:	702d6176 	eorvc	r6, sp, r6, ror r1
 5a8:	746e6972 	strbtvc	r6, [lr], #-2418	; 0x972
 5ac:	00632e6b 	rsbeq	r2, r3, fp, ror #28
 5b0:	5f697072 	svcpl	0x00697072
 5b4:	5f746573 	svcpl	0x00746573
 5b8:	7074756f 	rsbsvc	r7, r4, pc, ror #10
 5bc:	77007475 	smlsdxvc	r0, r5, r4, r7
 5c0:	68746469 	ldmdavs	r4!, {r0, r3, r5, r6, sl, sp, lr}^
 5c4:	74757000 	ldrbtvc	r7, [r5], #-0
 5c8:	70665f63 	rsbvc	r5, r6, r3, ror #30
 5cc:	696d6500 	stmdbvs	sp!, {r8, sl, sp, lr}^
 5d0:	70720074 	rsbsvc	r0, r2, r4, ror r0
 5d4:	65725f69 	ldrbvs	r5, [r2, #-3945]!	; 0xf69
 5d8:	746f6f62 	strbtvc	r6, [pc], #-3938	; 5e0 <_start-0x7a20>
 5dc:	31736300 	cmncc	r3, r0, lsl #6
 5e0:	2d653034 	stclcs	0, cr3, [r5, #-208]!	; 0xffffff30
 5e4:	2f637273 	svccs	0x00637273
 5e8:	61656c63 	cmnvs	r5, r3, ror #24
 5ec:	65722d6e 	ldrbvs	r2, [r2, #-3438]!	; 0xd6e
 5f0:	746f6f62 	strbtvc	r6, [pc], #-3938	; 5f8 <_start-0x7a08>
 5f4:	6900632e 	stmdbvs	r0, {r1, r2, r3, r5, r8, r9, sp, lr}
 5f8:	7265746e 	rsbvc	r7, r5, #1845493760	; 0x6e000000
 5fc:	5f6c616e 	svcpl	0x006c616e
 600:	705f7773 	subsvc	r7, pc, r3, ror r7	; <UNPREDICTABLE>
 604:	68637475 	stmdavs	r3!, {r0, r2, r4, r5, r6, sl, ip, sp, lr}^
 608:	5f007261 	svcpl	0x00007261
 60c:	7373625f 	cmnvc	r3, #-268435451	; 0xf0000005
 610:	6174735f 	cmnvs	r4, pc, asr r3
 614:	5f5f7472 	svcpl	0x005f7472
 618:	73736200 	cmnvc	r3, #0, 4
 61c:	646e655f 	strbtvs	r6, [lr], #-1375	; 0x55f
 620:	6e6f6300 	cdpvs	3, 6, cr6, cr15, cr0, {0}
 624:	656c6f73 	strbvs	r6, [ip, #-3955]!	; 0xf73
 628:	7261755f 	rsbvc	r7, r1, #398458880	; 0x17c00000
 62c:	55500074 	ldrbpl	r0, [r0, #-116]	; 0x74
 630:	455f4354 	ldrbmi	r4, [pc, #-852]	; 2e4 <_start-0x7d1c>
 634:	555f5053 	ldrbpl	r5, [pc, #-83]	; 5e9 <_start-0x7a17>
 638:	00545241 	subseq	r5, r4, r1, asr #4
 63c:	43545550 	cmpmi	r4, #80, 10	; 0x14000000
 640:	5f57535f 	svcpl	0x0057535f
 644:	54524155 	ldrbpl	r4, [r2], #-341	; 0x155
 648:	54555000 	ldrbpl	r5, [r5], #-0
 64c:	57485f43 	strbpl	r5, [r8, -r3, asr #30]
 650:	5241555f 	subpl	r5, r1, #398458880	; 0x17c00000
 654:	635f0054 	cmpvs	pc, #84	; 0x54
 658:	72617473 	rsbvc	r7, r1, #1929379840	; 0x73000000
 65c:	61750074 	cmnvs	r5, r4, ror r0
 660:	645f7472 	ldrbvs	r7, [pc], #-1138	; 668 <_start-0x7998>
 664:	745f7665 	ldrbvc	r7, [pc], #-1637	; 66c <_start-0x7994>
 668:	6e6f6300 	cdpvs	3, 6, cr6, cr15, cr0, {0}
 66c:	6c6f7274 	sfmvs	f7, 2, [pc], #-464	; 4a4 <_start-0x7b5c>
 670:	6b6c625f 	blvs	1b18ff4 <__bss_end__+0x1b0e88c>
 674:	7300745f 	movwvc	r7, #1119	; 0x45f
 678:	61755f77 	cmnvs	r5, r7, ror pc
 67c:	63007472 	movwvs	r7, #1138	; 0x472
 680:	65675f62 	strbvs	r5, [r7, #-3938]!	; 0xf62
 684:	6c625f74 	stclvs	15, cr5, [r2], #-464	; 0xfffffe30
 688:	006b636f 	rsbeq	r6, fp, pc, ror #6
 68c:	73625f5f 	cmnvc	r2, #380	; 0x17c
 690:	6e655f73 	mcrvs	15, 3, r5, cr5, cr3, {3}
 694:	005f5f64 	subseq	r5, pc, r4, ror #30
 698:	34317363 	ldrtcc	r7, [r1], #-867	; 0x363
 69c:	732d6530 	teqvc	sp, #48, 10	; 0xc000000
 6a0:	632f6372 	teqvs	pc, #-939524095	; 0xc8000001
 6a4:	72617473 	rsbvc	r7, r1, #1929379840	; 0x73000000
 6a8:	00632e74 	rsbeq	r2, r3, r4, ror lr
 6ac:	736e6f63 	cmnvc	lr, #396	; 0x18c
 6b0:	5f656c6f 	svcpl	0x00656c6f
 6b4:	00766564 	rsbseq	r6, r6, r4, ror #10
 6b8:	6967616d 	stmdbvs	r7!, {r0, r2, r3, r5, r6, r8, sp, lr}^
 6bc:	74610063 	strbtvc	r0, [r1], #-99	; 0x63
 6c0:	6573755f 	ldrbvs	r7, [r3, #-1375]!	; 0x55f
 6c4:	656c5f72 	strbvs	r5, [ip, #-3954]!	; 0xf72
 6c8:	006c6576 	rsbeq	r6, ip, r6, ror r5
 6cc:	505f4d50 	subspl	r4, pc, r0, asr sp	; <UNPREDICTABLE>
 6d0:	57535341 	ldrbpl	r5, [r3, -r1, asr #6]
 6d4:	0044524f 	subeq	r5, r4, pc, asr #4
 6d8:	34317363 	ldrtcc	r7, [r1], #-867	; 0x363
 6dc:	732d6530 	teqvc	sp, #48, 10	; 0xc000000
 6e0:	722f6372 	eorvc	r6, pc, #-939524095	; 0xc8000001
 6e4:	6f6f6265 	svcvs	0x006f6265
 6e8:	00632e74 	rsbeq	r2, r3, r4, ror lr
 6ec:	525f4d50 	subspl	r4, pc, #80, 26	; 0x1400
 6f0:	5f435453 	svcpl	0x00435453
 6f4:	46435257 			; <UNDEFINED> instruction: 0x46435257
 6f8:	55465f47 	strbpl	r5, [r6, #-3911]	; 0xf47
 6fc:	525f4c4c 	subspl	r4, pc, #76, 24	; 0x4c00
 700:	54455345 	strbpl	r5, [r5], #-837	; 0x345
 704:	5f4d5000 	svcpl	0x004d5000
 708:	474f4457 	smlsldmi	r4, pc, r7, r4	; <UNPREDICTABLE>
 70c:	74657300 	strbtvc	r7, [r5], #-768	; 0x300
 710:	6573755f 	ldrbvs	r7, [r3, #-1375]!	; 0x55f
 714:	656c5f72 	strbvs	r5, [ip, #-3954]!	; 0xf72
 718:	006c6576 	rsbeq	r6, ip, r6, ror r5
 71c:	33545550 	cmpcc	r4, #80, 10	; 0x14000000
 720:	4d500032 	ldclmi	0, cr0, [r0, #-200]	; 0xffffff38
 724:	5453525f 	ldrbpl	r5, [r3], #-607	; 0x25f
 728:	70630043 	rsbvc	r0, r3, r3, asr #32
 72c:	64007273 	strvs	r7, [r0], #-627	; 0x273
 730:	79616c65 	stmdbvc	r1!, {r0, r2, r5, r6, sl, fp, sp, lr}^
 734:	6365735f 	cmnvs	r5, #2080374785	; 0x7c000001
 738:	31736300 	cmncc	r3, r0, lsl #6
 73c:	2d653034 	stclcs	0, cr3, [r5, #-208]!	; 0xffffff30
 740:	2f637273 	svccs	0x00637273
 744:	656d6974 	strbvs	r6, [sp, #-2420]!	; 0x974
 748:	00632e72 	rsbeq	r2, r3, r2, ror lr
 74c:	33544547 	cmpcc	r4, #297795584	; 0x11c00000
 750:	69740032 	ldmdbvs	r4!, {r1, r4, r5}^
 754:	00736b63 	rsbseq	r6, r3, r3, ror #22
 758:	616c6564 	cmnvs	ip, r4, ror #10
 75c:	79635f79 	stmdbvc	r3!, {r0, r3, r4, r5, r6, r8, r9, sl, fp, ip, lr}^
 760:	73656c63 	cmnvc	r5, #25344	; 0x6300
 764:	6c656400 	cfstrdvs	mvd6, [r5], #-0
 768:	755f7961 	ldrbvc	r7, [pc, #-2401]	; fffffe0f <__bss_end__+0xffff56a7>
 76c:	69740073 	ldmdbvs	r4!, {r0, r1, r4, r5, r6}^
 770:	5f72656d 	svcpl	0x0072656d
 774:	5f746567 	svcpl	0x00746567
 778:	63657375 	cmnvs	r5, #-738197503	; 0xd4000001
 77c:	69706700 	ldmdbvs	r0!, {r8, r9, sl, sp, lr}^
 780:	76655f6f 	strbtvc	r5, [r5], -pc, ror #30
 784:	5f746e65 	svcpl	0x00746e65
 788:	65746564 	ldrbvs	r6, [r4, #-1380]!	; 0x564
 78c:	64657463 	strbtvs	r7, [r5], #-1123	; 0x463
 790:	74757000 	ldrbtvc	r7, [r5], #-0
 794:	47003233 	smladxmi	r0, r3, r2, r3
 798:	45534650 	ldrbmi	r4, [r3, #-1616]	; 0x650
 79c:	4700324c 	strmi	r3, [r0, -ip, asr #4]
 7a0:	524c4350 	subpl	r4, ip, #80, 6	; 0x40000001
 7a4:	4e450030 	mcrmi	0, 2, r0, cr5, cr0, {1}
 7a8:	454c4241 	strbmi	r4, [ip, #-577]	; 0x241
 7ac:	5152495f 	cmppl	r2, pc, asr r9
 7b0:	00325f53 	eorseq	r5, r2, r3, asr pc
 7b4:	4f495047 	svcmi	0x00495047
 7b8:	4e55465f 	mrcmi	6, 2, r4, cr5, cr15, {2}
 7bc:	4e495f43 	cdpmi	15, 4, cr5, cr9, cr3, {2}
 7c0:	00545550 	subseq	r5, r4, r0, asr r5
 7c4:	6f697067 	svcvs	0x00697067
 7c8:	7465735f 	strbtvc	r7, [r5], #-863	; 0x35f
 7cc:	66666f5f 	uqsaxvs	r6, r6, pc	; <UNPREDICTABLE>
 7d0:	2d796d00 	ldclcs	13, cr6, [r9, #-0]
 7d4:	2f637273 	svccs	0x00637273
 7d8:	6f697067 	svcvs	0x00697067
 7dc:	6900632e 	stmdbvs	r0, {r1, r2, r3, r5, r8, r9, sp, lr}
 7e0:	6d5f746e 	cfldrdvs	mvd7, [pc, #-440]	; 630 <_start-0x79d0>
 7e4:	006b7361 	rsbeq	r7, fp, r1, ror #6
 7e8:	45535047 	ldrbmi	r5, [r3, #-71]	; 0x47
 7ec:	47003054 	smlsdmi	r0, r4, r0, r3
 7f0:	54455350 	strbpl	r5, [r5], #-848	; 0x350
 7f4:	65720031 	ldrbvs	r0, [r2, #-49]!	; 0x31
 7f8:	74735f67 	ldrbtvc	r5, [r3], #-3943	; 0xf67
 7fc:	47007461 	strmi	r7, [r0, -r1, ror #8]
 800:	56454c50 			; <UNDEFINED> instruction: 0x56454c50
 804:	50470030 	subpl	r0, r7, r0, lsr r0
 808:	3156454c 	cmpcc	r6, ip, asr #10
 80c:	69706700 	ldmdbvs	r0!, {r8, r9, sl, sp, lr}^
 810:	65725f6f 	ldrbvs	r5, [r2, #-3951]!	; 0xf6f
 814:	50470067 	subpl	r0, r7, r7, rrx
 818:	4c455346 	mcrrmi	3, 4, r5, r5, cr6
 81c:	50470030 	subpl	r0, r7, r0, lsr r0
 820:	4c455346 	mcrrmi	3, 4, r5, r5, cr6
 824:	50470031 	subpl	r0, r7, r1, lsr r0
 828:	4c455346 	mcrrmi	3, 4, r5, r5, cr6
 82c:	50470033 	subpl	r0, r7, r3, lsr r0
 830:	4c455346 	mcrrmi	3, 4, r5, r5, cr6
 834:	50470034 	subpl	r0, r7, r4, lsr r0
 838:	4c455346 	mcrrmi	3, 4, r5, r5, cr6
 83c:	70670035 	rsbvc	r0, r7, r5, lsr r0
 840:	665f6f69 	ldrbvs	r6, [pc], -r9, ror #30
 844:	306c6573 	rsbcc	r6, ip, r3, ror r5
 848:	43504700 	cmpmi	r0, #0, 14
 84c:	0031524c 	eorseq	r5, r1, ip, asr #4
 850:	6f697067 	svcvs	0x00697067
 854:	7465735f 	strbtvc	r7, [r5], #-863	; 0x35f
 858:	6e75665f 	mrcvs	6, 3, r6, cr5, cr15, {2}
 85c:	6f697463 	svcvs	0x00697463
 860:	5047006e 	subpl	r0, r7, lr, rrx
 864:	304e4552 	subcc	r4, lr, r2, asr r5
 868:	52504700 	subspl	r4, r0, #0, 14
 86c:	00314e45 	eorseq	r4, r1, r5, asr #28
 870:	5f515249 	svcpl	0x00515249
 874:	444e4550 	strbmi	r4, [lr], #-1360	; 0x550
 878:	5f474e49 	svcpl	0x00474e49
 87c:	52490031 	subpl	r0, r9, #49	; 0x31
 880:	45505f51 	ldrbmi	r5, [r0, #-3921]	; 0xf51
 884:	4e49444e 	cdpmi	4, 4, cr4, cr9, cr14, {2}
 888:	00325f47 	eorseq	r5, r2, r7, asr #30
 88c:	6d746962 	ldclvs	9, cr6, [r4, #-392]!	; 0xfffffe78
 890:	006b7361 	rsbeq	r7, fp, r1, ror #6
 894:	6f697067 	svcvs	0x00697067
 898:	7465735f 	strbtvc	r7, [r5], #-863	; 0x35f
 89c:	75660030 	strbvc	r0, [r6, #-48]!	; 0x30
 8a0:	4700636e 	strmi	r6, [r0, -lr, ror #6]
 8a4:	53444550 	movtpl	r4, #17744	; 0x4550
 8a8:	50470030 	subpl	r0, r7, r0, lsr r0
 8ac:	31534445 	cmpcc	r3, r5, asr #8
 8b0:	69706700 	ldmdbvs	r0!, {r8, r9, sl, sp, lr}^
 8b4:	65735f6f 	ldrbvs	r5, [r3, #-3951]!	; 0xf6f
 8b8:	6e6f5f74 	mcrvs	15, 3, r5, cr15, cr4, {3}
 8bc:	46504700 	ldrbmi	r4, [r0], -r0, lsl #14
 8c0:	00304e45 	eorseq	r4, r0, r5, asr #28
 8c4:	45465047 	strbmi	r5, [r6, #-71]	; 0x47
 8c8:	4700314e 	strmi	r3, [r0, -lr, asr #2]
 8cc:	5f4f4950 	svcpl	0x004f4950
 8d0:	434e5546 	movtmi	r5, #58694	; 0xe546
 8d4:	54554f5f 	ldrbpl	r4, [r5], #-3935	; 0xf5f
 8d8:	00545550 	subseq	r5, r4, r0, asr r5
 8dc:	33746567 	cmncc	r4, #432013312	; 0x19c00000
 8e0:	70670032 	rsbvc	r0, r7, r2, lsr r0
 8e4:	665f6f69 	ldrbvs	r6, [pc], -r9, ror #30
 8e8:	5f636e75 	svcpl	0x00636e75
 8ec:	50470074 	subpl	r0, r7, r4, ror r0
 8f0:	465f4f49 	ldrbmi	r4, [pc], -r9, asr #30
 8f4:	5f434e55 	svcpl	0x00434e55
 8f8:	30544c41 	subscc	r4, r4, r1, asr #24
 8fc:	49504700 	ldmdbmi	r0, {r8, r9, sl, lr}^
 900:	55465f4f 	strbpl	r5, [r6, #-3919]	; 0xf4f
 904:	415f434e 	cmpmi	pc, lr, asr #6
 908:	0031544c 	eorseq	r5, r1, ip, asr #8
 90c:	4f495047 	svcmi	0x00495047
 910:	4e55465f 	mrcmi	6, 2, r4, cr5, cr15, {2}
 914:	4c415f43 	mcrrmi	15, 4, r5, r1, cr3
 918:	47003254 	smlsdmi	r0, r4, r2, r3
 91c:	5f4f4950 	svcpl	0x004f4950
 920:	434e5546 	movtmi	r5, #58694	; 0xe546
 924:	544c415f 	strbpl	r4, [ip], #-351	; 0x15f
 928:	50470033 	subpl	r0, r7, r3, lsr r0
 92c:	465f4f49 	ldrbmi	r4, [pc], -r9, asr #30
 930:	5f434e55 	svcpl	0x00434e55
 934:	34544c41 	ldrbcc	r4, [r4], #-3137	; 0xc41
 938:	49504700 	ldmdbmi	r0, {r8, r9, sl, lr}^
 93c:	55465f4f 	strbpl	r5, [r6, #-3919]	; 0xf4f
 940:	415f434e 	cmpmi	pc, lr, asr #6
 944:	0035544c 	eorseq	r5, r5, ip, asr #8
 948:	5f676572 	svcpl	0x00676572
 94c:	656c6573 	strbvs	r6, [ip, #-1395]!	; 0x573
 950:	67007463 	strvs	r7, [r0, -r3, ror #8]
 954:	5f6f6970 	svcpl	0x006f6970
 958:	30726c63 	rsbscc	r6, r2, r3, ror #24
 95c:	58554100 	ldmdapl	r5, {r8, lr}^
 960:	5f554d5f 	svcpl	0x00554d5f
 964:	5f52434d 	svcpl	0x0052434d
 968:	00474552 	subeq	r4, r7, r2, asr r5
 96c:	5f585541 	svcpl	0x00585541
 970:	495f554d 	ldmdbmi	pc, {r0, r2, r3, r6, r8, sl, ip, lr}^	; <UNPREDICTABLE>
 974:	45525f4f 	ldrbmi	r5, [r2, #-3919]	; 0xf4f
 978:	55410047 	strbpl	r0, [r1, #-71]	; 0x47
 97c:	554d5f58 	strbpl	r5, [sp, #-3928]	; 0xf58
 980:	52534d5f 	subspl	r4, r3, #6080	; 0x17c0
 984:	4745525f 	smlsldmi	r5, r5, pc, r2	; <UNPREDICTABLE>
 988:	72617500 	rsbvc	r7, r1, #0, 10
 98c:	61635f74 	smcvs	13812	; 0x35f4
 990:	65675f6e 	strbvs	r5, [r7, #-3950]!	; 0xf6e
 994:	41006374 	tstmi	r0, r4, ror r3
 998:	4d5f5855 	ldclmi	8, cr5, [pc, #-340]	; 84c <_start-0x77b4>
 99c:	4e435f55 	mcrmi	15, 2, r5, cr3, cr5, {2}
 9a0:	525f4c54 	subspl	r4, pc, #84, 24	; 0x5400
 9a4:	75004745 	strvc	r4, [r0, #-1861]	; 0x745
 9a8:	5f747261 	svcpl	0x00747261
 9ac:	5f736168 	svcpl	0x00736168
 9b0:	61746164 	cmnvs	r4, r4, ror #2
 9b4:	58554100 	ldmdapl	r5, {r8, lr}^
 9b8:	5f554d5f 	svcpl	0x00554d5f
 9bc:	5f524549 	svcpl	0x00524549
 9c0:	00474552 	subeq	r4, r7, r2, asr r5
 9c4:	5f585541 	svcpl	0x00585541
 9c8:	495f554d 	ldmdbmi	pc, {r0, r2, r3, r6, r8, sl, ip, lr}^	; <UNPREDICTABLE>
 9cc:	525f5249 	subspl	r5, pc, #-1879048188	; 0x90000004
 9d0:	75004745 	strvc	r4, [r0, #-1861]	; 0x745
 9d4:	5f747261 	svcpl	0x00747261
 9d8:	5f6e6163 	svcpl	0x006e6163
 9dc:	63747570 	cmnvs	r4, #112, 10	; 0x1c000000
 9e0:	58554100 	ldmdapl	r5, {r8, lr}^
 9e4:	414e455f 	cmpmi	lr, pc, asr r5
 9e8:	53454c42 	movtpl	r4, #23618	; 0x5c42
 9ec:	58554100 	ldmdapl	r5, {r8, lr}^
 9f0:	5152495f 	cmppl	r2, pc, asr r9
 9f4:	58554100 	ldmdapl	r5, {r8, lr}^
 9f8:	5f554d5f 	svcpl	0x00554d5f
 9fc:	44554142 	ldrbmi	r4, [r5], #-322	; 0x142
 a00:	4745525f 	smlsldmi	r5, r5, pc, r2	; <UNPREDICTABLE>
 a04:	58554100 	ldmdapl	r5, {r8, lr}^
 a08:	5f554d5f 	svcpl	0x00554d5f
 a0c:	54415453 	strbpl	r5, [r1], #-1107	; 0x453
 a10:	4745525f 	smlsldmi	r5, r5, pc, r2	; <UNPREDICTABLE>
 a14:	58554100 	ldmdapl	r5, {r8, lr}^
 a18:	5f554d5f 	svcpl	0x00554d5f
 a1c:	41524353 	cmpmi	r2, r3, asr r3
 a20:	00484354 	subeq	r4, r8, r4, asr r3
 a24:	732d796d 	teqvc	sp, #1785856	; 0x1b4000
 a28:	752f6372 	strvc	r6, [pc, #-882]!	; 6be <_start-0x7942>
 a2c:	2e747261 	cdpcs	2, 7, cr7, cr4, cr1, {3}
 a30:	55410063 	strbpl	r0, [r1, #-99]	; 0x63
 a34:	554d5f58 	strbpl	r5, [sp, #-3928]	; 0xf58
 a38:	52434c5f 	subpl	r4, r3, #24320	; 0x5f00
 a3c:	4745525f 	smlsldmi	r5, r5, pc, r2	; <UNPREDICTABLE>
 a40:	58554100 	ldmdapl	r5, {r8, lr}^
 a44:	5f554d5f 	svcpl	0x00554d5f
 a48:	5f52534c 	svcpl	0x0052534c
 a4c:	00474552 	subeq	r4, r7, r2, asr r5
 a50:	74726175 	ldrbtvc	r6, [r2], #-373	; 0x175
 a54:	7465675f 	strbtvc	r6, [r5], #-1887	; 0x75f
 a58:	73615f63 	cmnvc	r1, #396	; 0x18c
 a5c:	00636e79 	rsbeq	r6, r3, r9, ror lr
 a60:	66657270 			; <UNDEFINED> instruction: 0x66657270
 a64:	68637465 	stmdavs	r3!, {r0, r2, r5, r6, sl, ip, sp, lr}^
 a68:	6f62615f 	svcvs	0x0062615f
 a6c:	765f7472 			; <UNDEFINED> instruction: 0x765f7472
 a70:	6f746365 	svcvs	0x00746365
 a74:	69440072 	stmdbvs	r4, {r1, r4, r5, r6}^
 a78:	6c626173 	stfvse	f6, [r2], #-460	; 0xfffffe34
 a7c:	61425f65 	cmpvs	r2, r5, ror #30
 a80:	5f636973 	svcpl	0x00636973
 a84:	73515249 	cmpvc	r1, #-1879048188	; 0x90000004
 a88:	51494600 	cmppl	r9, r0, lsl #12
 a8c:	6e6f635f 	mcrvs	3, 3, r6, cr15, cr15, {2}
 a90:	6c6f7274 	sfmvs	f7, 2, [pc], #-464	; 8c8 <_start-0x7738>
 a94:	6e695f00 	cdpvs	15, 6, cr5, cr9, cr0, {0}
 a98:	72726574 	rsbsvc	r6, r2, #116, 10	; 0x1d000000
 a9c:	5f747075 	svcpl	0x00747075
 aa0:	6c626174 	stfvse	f6, [r2], #-464	; 0xfffffe30
 aa4:	52490065 	subpl	r0, r9, #101	; 0x65
 aa8:	61625f51 	cmnvs	r2, r1, asr pc
 aac:	5f636973 	svcpl	0x00636973
 ab0:	646e6570 	strbtvs	r6, [lr], #-1392	; 0x570
 ab4:	00676e69 	rsbeq	r6, r7, r9, ror #28
 ab8:	62616e45 	rsbvs	r6, r1, #1104	; 0x450
 abc:	425f656c 	subsmi	r6, pc, #108, 10	; 0x1b000000
 ac0:	63697361 	cmnvs	r9, #-2080374783	; 0x84000001
 ac4:	5152495f 	cmppl	r2, pc, asr r9
 ac8:	6e450073 	mcrvs	0, 2, r0, cr5, cr3, {3}
 acc:	656c6261 	strbvs	r6, [ip, #-609]!	; 0x261
 ad0:	5152495f 	cmppl	r2, pc, asr r9
 ad4:	00315f73 	eorseq	r5, r1, r3, ror pc
 ad8:	62616e45 	rsbvs	r6, r1, #1104	; 0x450
 adc:	495f656c 	ldmdbmi	pc, {r2, r3, r5, r6, r8, sl, sp, lr}^	; <UNPREDICTABLE>
 ae0:	5f735152 	svcpl	0x00735152
 ae4:	695f0032 	ldmdbvs	pc, {r1, r4, r5}^	; <UNPREDICTABLE>
 ae8:	7265746e 	rsbvc	r7, r5, #1845493760	; 0x6e000000
 aec:	74707572 	ldrbtvc	r7, [r0], #-1394	; 0x572
 af0:	6261745f 	rsbvs	r7, r1, #1593835520	; 0x5f000000
 af4:	655f656c 	ldrbvs	r6, [pc, #-1388]	; 590 <_start-0x7a70>
 af8:	6400646e 	strvs	r6, [r0], #-1134	; 0x46e
 afc:	5f617461 	svcpl	0x00617461
 b00:	726f6261 	rsbvc	r6, pc, #268435462	; 0x10000006
 b04:	65765f74 	ldrbvs	r5, [r6, #-3956]!	; 0xf74
 b08:	726f7463 	rsbvc	r7, pc, #1660944384	; 0x63000000
 b0c:	51524900 	cmppl	r2, r0, lsl #18
 b10:	6e65705f 	mcrvs	0, 3, r7, cr5, cr15, {2}
 b14:	676e6964 	strbvs	r6, [lr, -r4, ror #18]!
 b18:	6300325f 	movwvs	r3, #607	; 0x25f
 b1c:	30343173 	eorscc	r3, r4, r3, ror r1
 b20:	6e692d65 	cdpvs	13, 6, cr2, cr9, cr5, {3}
 b24:	72726574 	rsbsvc	r6, r2, #116, 10	; 0x1d000000
 b28:	2f747075 	svccs	0x00747075
 b2c:	65746e69 	ldrbvs	r6, [r4, #-3689]!	; 0xe69
 b30:	70757272 	rsbsvc	r7, r5, r2, ror r2
 b34:	632d7374 	teqvs	sp, #116, 6	; 0xd0000001
 b38:	4900632e 	stmdbmi	r0, {r1, r2, r3, r5, r8, r9, sp, lr}
 b3c:	705f5152 	subsvc	r5, pc, r2, asr r1	; <UNPREDICTABLE>
 b40:	69646e65 	stmdbvs	r4!, {r0, r2, r5, r6, r9, sl, fp, sp, lr}^
 b44:	315f676e 	cmpcc	pc, lr, ror #14
 b48:	646e7500 	strbtvs	r7, [lr], #-1280	; 0x500
 b4c:	6e696665 	cdpvs	6, 6, cr6, cr9, cr5, {3}
 b50:	695f6465 	ldmdbvs	pc, {r0, r2, r5, r6, sl, sp, lr}^	; <UNPREDICTABLE>
 b54:	7274736e 	rsbsvc	r7, r4, #-1207959551	; 0xb8000001
 b58:	69746375 	ldmdbvs	r4!, {r0, r2, r4, r5, r6, r8, r9, sp, lr}^
 b5c:	765f6e6f 	ldrbvc	r6, [pc], -pc, ror #28
 b60:	6f746365 	svcvs	0x00746365
 b64:	65720072 	ldrbvs	r0, [r2, #-114]!	; 0x72
 b68:	5f746573 	svcpl	0x00746573
 b6c:	74636576 	strbtvc	r6, [r3], #-1398	; 0x576
 b70:	7300726f 	movwvc	r7, #623	; 0x26f
 b74:	7774666f 	ldrbvc	r6, [r4, -pc, ror #12]!
 b78:	5f657261 	svcpl	0x00657261
 b7c:	65746e69 	ldrbvs	r6, [r4, #-3689]!	; 0xe69
 b80:	70757272 	rsbsvc	r7, r5, r2, ror r2
 b84:	65765f74 	ldrbvs	r5, [r6, #-3956]!	; 0xf74
 b88:	726f7463 	rsbvc	r7, pc, #1660944384	; 0x63000000
 b8c:	73694400 	cmnvc	r9, #0, 8
 b90:	656c6261 	strbvs	r6, [ip, #-609]!	; 0x261
 b94:	5152495f 	cmppl	r2, pc, asr r9
 b98:	00315f73 	eorseq	r5, r1, r3, ror pc
 b9c:	61736944 	cmnvs	r3, r4, asr #18
 ba0:	5f656c62 	svcpl	0x00656c62
 ba4:	73515249 	cmpvc	r1, #-1879048188	; 0x90000004
 ba8:	6600325f 			; <UNDEFINED> instruction: 0x6600325f
 bac:	5f747361 	svcpl	0x00747361
 bb0:	65746e69 	ldrbvs	r6, [r4, #-3689]!	; 0xe69
 bb4:	70757272 	rsbsvc	r7, r5, r2, ror r2
 bb8:	65765f74 	ldrbvs	r5, [r6, #-3956]!	; 0xf74
 bbc:	726f7463 	rsbvc	r7, pc, #1660944384	; 0x63000000
 bc0:	51524900 	cmppl	r2, r0, lsl #18
 bc4:	7361425f 	cmnvc	r1, #-268435451	; 0xf0000005
 bc8:	69730065 	ldmdbvs	r3!, {r0, r2, r5, r6}^
 bcc:	745f657a 	ldrbvc	r6, [pc], #-1402	; bd4 <_start-0x742c>
 bd0:	6d656d00 	stclvs	13, cr6, [r5, #-0]
 bd4:	00746573 	rsbseq	r6, r4, r3, ror r5
 bd8:	6e5f6263 	cdpvs	2, 5, cr6, cr15, cr3, {3}
 bdc:	63007765 	movwvs	r7, #1893	; 0x765
 be0:	30343173 	eorscc	r3, r4, r3, ror r1
 be4:	72732d65 	rsbsvc	r2, r3, #6464	; 0x1940
 be8:	6f632f63 	svcvs	0x00632f63
 bec:	6f72746e 	svcvs	0x0072746e
 bf0:	6c622d6c 	stclvs	13, cr2, [r2], #-432	; 0xfffffe50
 bf4:	2e6b636f 	cdpcs	3, 6, cr6, cr11, cr15, {3}
 bf8:	696c0063 	stmdbvs	ip!, {r0, r1, r5, r6}^
 bfc:	6d2f6362 	stcvs	3, cr6, [pc, #-392]!	; a7c <_start-0x7584>
 c00:	65736d65 	ldrbvs	r6, [r3, #-3429]!	; 0xd65
 c04:	00632e74 	rsbeq	r2, r3, r4, ror lr

Disassembly of section .debug_frame:

00000000 <.debug_frame>:
   0:	0000000c 	andeq	r0, r0, ip
   4:	ffffffff 			; <UNDEFINED> instruction: 0xffffffff
   8:	7c020001 	stcvc	0, cr0, [r2], {1}
   c:	000d0c0e 	andeq	r0, sp, lr, lsl #24
  10:	0000001c 	andeq	r0, r0, ip, lsl r0
  14:	00000000 	andeq	r0, r0, r0
  18:	00008010 	andeq	r8, r0, r0, lsl r0
  1c:	00000158 	andeq	r0, r0, r8, asr r1
  20:	84180e42 	ldrhi	r0, [r8], #-3650	; 0xe42
  24:	86058506 	strhi	r8, [r5], -r6, lsl #10
  28:	88038704 	stmdahi	r3, {r2, r8, r9, sl, pc}
  2c:	00018e02 	andeq	r8, r1, r2, lsl #28
  30:	00000020 	andeq	r0, r0, r0, lsr #32
  34:	00000000 	andeq	r0, r0, r0
  38:	00008168 	andeq	r8, r0, r8, ror #2
  3c:	000001c8 	andeq	r0, r0, r8, asr #3
  40:	83200e42 	teqhi	r0, #1056	; 0x420
  44:	85078408 	strhi	r8, [r7, #-1032]	; 0x408
  48:	87058606 	strhi	r8, [r5, -r6, lsl #12]
  4c:	89038804 	stmdbhi	r3, {r2, fp, pc}
  50:	00018e02 	andeq	r8, r1, r2, lsl #28
  54:	00000020 	andeq	r0, r0, r0, lsr #32
  58:	00000000 	andeq	r0, r0, r0
  5c:	00008330 	andeq	r8, r0, r0, lsr r3
  60:	00000090 	muleq	r0, r0, r0
  64:	84200e42 	strthi	r0, [r0], #-3650	; 0xe42
  68:	86078508 	strhi	r8, [r7], -r8, lsl #10
  6c:	88058706 	stmdahi	r5, {r1, r2, r8, r9, sl, pc}
  70:	8a038904 	bhi	e2488 <__bss_end__+0xd7d20>
  74:	00018e02 	andeq	r8, r1, r2, lsl #28
  78:	0000001c 	andeq	r0, r0, ip, lsl r0
  7c:	00000000 	andeq	r0, r0, r0
  80:	000083c0 	andeq	r8, r0, r0, asr #7
  84:	0000007c 	andeq	r0, r0, ip, ror r0
  88:	84180e42 	ldrhi	r0, [r8], #-3650	; 0xe42
  8c:	86058506 	strhi	r8, [r5], -r6, lsl #10
  90:	88038704 	stmdahi	r3, {r2, r8, r9, sl, pc}
  94:	00018e02 	andeq	r8, r1, r2, lsl #28
  98:	0000001c 	andeq	r0, r0, ip, lsl r0
  9c:	00000000 	andeq	r0, r0, r0
  a0:	0000843c 	andeq	r8, r0, ip, lsr r4
  a4:	000000c0 	andeq	r0, r0, r0, asr #1
  a8:	84180e42 	ldrhi	r0, [r8], #-3650	; 0xe42
  ac:	86058506 	strhi	r8, [r5], -r6, lsl #10
  b0:	88038704 	stmdahi	r3, {r2, r8, r9, sl, pc}
  b4:	00018e02 	andeq	r8, r1, r2, lsl #28
  b8:	00000014 	andeq	r0, r0, r4, lsl r0
  bc:	00000000 	andeq	r0, r0, r0
  c0:	000084fc 	strdeq	r8, [r0], -ip
  c4:	0000003c 	andeq	r0, r0, ip, lsr r0
  c8:	83080e42 	movwhi	r0, #36418	; 0x8e42
  cc:	00018e02 	andeq	r8, r1, r2, lsl #28
  d0:	00000018 	andeq	r0, r0, r8, lsl r0
  d4:	00000000 	andeq	r0, r0, r0
  d8:	00008538 	andeq	r8, r0, r8, lsr r5
  dc:	0000002c 	andeq	r0, r0, ip, lsr #32
  e0:	83100e42 	tsthi	r0, #1056	; 0x420
  e4:	85038404 	strhi	r8, [r3, #-1028]	; 0x404
  e8:	00018e02 	andeq	r8, r1, r2, lsl #28
  ec:	00000024 	andeq	r0, r0, r4, lsr #32
  f0:	00000000 	andeq	r0, r0, r0
  f4:	00008564 	andeq	r8, r0, r4, ror #10
  f8:	00000084 	andeq	r0, r0, r4, lsl #1
  fc:	810c0e42 	tsthi	ip, r2, asr #28
 100:	83028203 	movwhi	r8, #8707	; 0x2203
 104:	180e4201 	stmdane	lr, {r0, r9, lr}
 108:	05850684 	streq	r0, [r5, #1668]	; 0x684
 10c:	0e42048e 	cdpeq	4, 4, cr0, cr2, cr14, {4}
 110:	000003e8 	andeq	r0, r0, r8, ror #7
 114:	00000014 	andeq	r0, r0, r4, lsl r0
 118:	00000000 	andeq	r0, r0, r0
 11c:	000085e8 	andeq	r8, r0, r8, ror #11
 120:	0000004c 	andeq	r0, r0, ip, asr #32
 124:	8e040e42 	cdphi	14, 0, cr0, cr4, cr2, {2}
 128:	100e4201 	andne	r4, lr, r1, lsl #4
 12c:	00000014 	andeq	r0, r0, r4, lsl r0
 130:	00000000 	andeq	r0, r0, r0
 134:	00008634 	andeq	r8, r0, r4, lsr r6
 138:	000000ec 	andeq	r0, r0, ip, ror #1
 13c:	84080e42 	strhi	r0, [r8], #-3650	; 0xe42
 140:	00018e02 	andeq	r8, r1, r2, lsl #28
 144:	0000001c 	andeq	r0, r0, ip, lsl r0
 148:	00000000 	andeq	r0, r0, r0
 14c:	00008720 	andeq	r8, r0, r0, lsr #14
 150:	00000108 	andeq	r0, r0, r8, lsl #2
 154:	84140e42 	ldrhi	r0, [r4], #-3650	; 0xe42
 158:	86048505 	strhi	r8, [r4], -r5, lsl #10
 15c:	8e028703 	cdphi	7, 0, cr8, cr2, cr3, {0}
 160:	300e4201 	andcc	r4, lr, r1, lsl #4
 164:	0000000c 	andeq	r0, r0, ip
 168:	ffffffff 			; <UNDEFINED> instruction: 0xffffffff
 16c:	7c020001 	stcvc	0, cr0, [r2], {1}
 170:	000d0c0e 	andeq	r0, sp, lr, lsl #24
 174:	00000024 	andeq	r0, r0, r4, lsr #32
 178:	00000164 	andeq	r0, r0, r4, ror #2
 17c:	00008828 	andeq	r8, r0, r8, lsr #16
 180:	00000058 	andeq	r0, r0, r8, asr r0
 184:	80100e42 	andshi	r0, r0, r2, asr #28
 188:	82038104 	andhi	r8, r3, #4, 2
 18c:	42018302 	andmi	r8, r1, #134217728	; 0x8000000
 190:	07841c0e 	streq	r1, [r4, lr, lsl #24]
 194:	058e0685 	streq	r0, [lr, #1669]	; 0x685
 198:	00280e42 	eoreq	r0, r8, r2, asr #28
 19c:	0000000c 	andeq	r0, r0, ip
 1a0:	ffffffff 			; <UNDEFINED> instruction: 0xffffffff
 1a4:	7c020001 	stcvc	0, cr0, [r2], {1}
 1a8:	000d0c0e 	andeq	r0, sp, lr, lsl #24
 1ac:	00000014 	andeq	r0, r0, r4, lsl r0
 1b0:	0000019c 	muleq	r0, ip, r1
 1b4:	00008880 	andeq	r8, r0, r0, lsl #17
 1b8:	00000014 	andeq	r0, r0, r4, lsl r0
 1bc:	84080e42 	strhi	r0, [r8], #-3650	; 0xe42
 1c0:	00018e02 	andeq	r8, r1, r2, lsl #28
 1c4:	0000000c 	andeq	r0, r0, ip
 1c8:	0000019c 	muleq	r0, ip, r1
 1cc:	00008894 	muleq	r0, r4, r8
 1d0:	00000018 	andeq	r0, r0, r8, lsl r0
 1d4:	0000000c 	andeq	r0, r0, ip
 1d8:	0000019c 	muleq	r0, ip, r1
 1dc:	000088ac 	andeq	r8, r0, ip, lsr #17
 1e0:	00000010 	andeq	r0, r0, r0, lsl r0
 1e4:	0000000c 	andeq	r0, r0, ip
 1e8:	ffffffff 			; <UNDEFINED> instruction: 0xffffffff
 1ec:	7c020001 	stcvc	0, cr0, [r2], {1}
 1f0:	000d0c0e 	andeq	r0, sp, lr, lsl #24
 1f4:	00000018 	andeq	r0, r0, r8, lsl r0
 1f8:	000001e4 	andeq	r0, r0, r4, ror #3
 1fc:	000088bc 			; <UNDEFINED> instruction: 0x000088bc
 200:	00000034 	andeq	r0, r0, r4, lsr r0
 204:	83100e42 	tsthi	r0, #1056	; 0x420
 208:	85038404 	strhi	r8, [r3, #-1028]	; 0x404
 20c:	00018e02 	andeq	r8, r1, r2, lsl #28
 210:	0000000c 	andeq	r0, r0, ip
 214:	ffffffff 			; <UNDEFINED> instruction: 0xffffffff
 218:	7c020001 	stcvc	0, cr0, [r2], {1}
 21c:	000d0c0e 	andeq	r0, sp, lr, lsl #24
 220:	0000000c 	andeq	r0, r0, ip
 224:	00000210 	andeq	r0, r0, r0, lsl r2
 228:	000088f0 	strdeq	r8, [r0], -r0
 22c:	00000014 	andeq	r0, r0, r4, lsl r0
 230:	0000000c 	andeq	r0, r0, ip
 234:	00000210 	andeq	r0, r0, r0, lsl r2
 238:	00008904 	andeq	r8, r0, r4, lsl #18
 23c:	0000002c 	andeq	r0, r0, ip, lsr #32
 240:	0000000c 	andeq	r0, r0, ip
 244:	00000210 	andeq	r0, r0, r0, lsl r2
 248:	00008930 	andeq	r8, r0, r0, lsr r9
 24c:	00000040 	andeq	r0, r0, r0, asr #32
 250:	00000020 	andeq	r0, r0, r0, lsr #32
 254:	00000210 	andeq	r0, r0, r0, lsl r2
 258:	00008970 	andeq	r8, r0, r0, ror r9
 25c:	0000019c 	muleq	r0, ip, r1
 260:	84180e42 	ldrhi	r0, [r8], #-3650	; 0xe42
 264:	86058506 	strhi	r8, [r5], -r6, lsl #10
 268:	88038704 	stmdahi	r3, {r2, r8, r9, sl, pc}
 26c:	42018e02 	andmi	r8, r1, #2, 28
 270:	0000580e 	andeq	r5, r0, lr, lsl #16
 274:	00000014 	andeq	r0, r0, r4, lsl r0
 278:	00000210 	andeq	r0, r0, r0, lsl r2
 27c:	00008b0c 	andeq	r8, r0, ip, lsl #22
 280:	00000054 	andeq	r0, r0, r4, asr r0
 284:	83080e42 	movwhi	r0, #36418	; 0x8e42
 288:	00018e02 	andeq	r8, r1, r2, lsl #28
 28c:	00000028 	andeq	r0, r0, r8, lsr #32
 290:	00000210 	andeq	r0, r0, r0, lsl r2
 294:	00008b60 	andeq	r8, r0, r0, ror #22
 298:	00000288 	andeq	r0, r0, r8, lsl #5
 29c:	84240e42 	strthi	r0, [r4], #-3650	; 0xe42
 2a0:	86088509 	strhi	r8, [r8], -r9, lsl #10
 2a4:	88068707 	stmdahi	r6, {r0, r1, r2, r8, r9, sl, pc}
 2a8:	8a048905 	bhi	1226c4 <__bss_end__+0x117f5c>
 2ac:	8e028b03 	vmlahi.f64	d8, d2, d3
 2b0:	b00e4201 	andlt	r4, lr, r1, lsl #4
 2b4:	00000001 	andeq	r0, r0, r1
 2b8:	0000000c 	andeq	r0, r0, ip
 2bc:	ffffffff 			; <UNDEFINED> instruction: 0xffffffff
 2c0:	7c020001 	stcvc	0, cr0, [r2], {1}
 2c4:	000d0c0e 	andeq	r0, sp, lr, lsl #24
 2c8:	00000014 	andeq	r0, r0, r4, lsl r0
 2cc:	000002b8 			; <UNDEFINED> instruction: 0x000002b8
 2d0:	00008de8 	andeq	r8, r0, r8, ror #27
 2d4:	00000028 	andeq	r0, r0, r8, lsr #32
 2d8:	83080e42 	movwhi	r0, #36418	; 0x8e42
 2dc:	00018e02 	andeq	r8, r1, r2, lsl #28
 2e0:	0000000c 	andeq	r0, r0, ip
 2e4:	ffffffff 			; <UNDEFINED> instruction: 0xffffffff
 2e8:	7c020001 	stcvc	0, cr0, [r2], {1}
 2ec:	000d0c0e 	andeq	r0, sp, lr, lsl #24
 2f0:	00000014 	andeq	r0, r0, r4, lsl r0
 2f4:	000002e0 	andeq	r0, r0, r0, ror #5
 2f8:	00008e10 	andeq	r8, r0, r0, lsl lr
 2fc:	00000020 	andeq	r0, r0, r0, lsr #32
 300:	84080e42 	strhi	r0, [r8], #-3650	; 0xe42
 304:	00018e02 	andeq	r8, r1, r2, lsl #28
 308:	00000014 	andeq	r0, r0, r4, lsl r0
 30c:	000002e0 	andeq	r0, r0, r0, ror #5
 310:	00008e30 	andeq	r8, r0, r0, lsr lr
 314:	00000090 	muleq	r0, r0, r0
 318:	83080e42 	movwhi	r0, #36418	; 0x8e42
 31c:	00018e02 	andeq	r8, r1, r2, lsl #28
 320:	0000000c 	andeq	r0, r0, ip
 324:	ffffffff 			; <UNDEFINED> instruction: 0xffffffff
 328:	7c020001 	stcvc	0, cr0, [r2], {1}
 32c:	000d0c0e 	andeq	r0, sp, lr, lsl #24
 330:	0000000c 	andeq	r0, r0, ip
 334:	00000320 	andeq	r0, r0, r0, lsr #6
 338:	00008ec0 	andeq	r8, r0, r0, asr #29
 33c:	00000018 	andeq	r0, r0, r8, lsl r0
 340:	0000000c 	andeq	r0, r0, ip
 344:	00000320 	andeq	r0, r0, r0, lsr #6
 348:	00008ed8 	ldrdeq	r8, [r0], -r8	; <UNPREDICTABLE>
 34c:	00000014 	andeq	r0, r0, r4, lsl r0
 350:	00000014 	andeq	r0, r0, r4, lsl r0
 354:	00000320 	andeq	r0, r0, r0, lsr #6
 358:	00008eec 	andeq	r8, r0, ip, ror #29
 35c:	00000048 	andeq	r0, r0, r8, asr #32
 360:	83080e42 	movwhi	r0, #36418	; 0x8e42
 364:	00018e02 	andeq	r8, r1, r2, lsl #28
 368:	0000000c 	andeq	r0, r0, ip
 36c:	ffffffff 			; <UNDEFINED> instruction: 0xffffffff
 370:	7c020001 	stcvc	0, cr0, [r2], {1}
 374:	000d0c0e 	andeq	r0, sp, lr, lsl #24
 378:	0000000c 	andeq	r0, r0, ip
 37c:	00000368 	andeq	r0, r0, r8, ror #6
 380:	00008f34 	andeq	r8, r0, r4, lsr pc
 384:	0000001c 	andeq	r0, r0, ip, lsl r0
 388:	00000014 	andeq	r0, r0, r4, lsl r0
 38c:	00000368 	andeq	r0, r0, r8, ror #6
 390:	00008f50 	andeq	r8, r0, r0, asr pc
 394:	00000014 	andeq	r0, r0, r4, lsl r0
 398:	83080e42 	movwhi	r0, #36418	; 0x8e42
 39c:	00018e02 	andeq	r8, r1, r2, lsl #28
 3a0:	00000014 	andeq	r0, r0, r4, lsl r0
 3a4:	00000368 	andeq	r0, r0, r8, ror #6
 3a8:	00008f64 	andeq	r8, r0, r4, ror #30
 3ac:	0000000c 	andeq	r0, r0, ip
 3b0:	83080e42 	movwhi	r0, #36418	; 0x8e42
 3b4:	00018e02 	andeq	r8, r1, r2, lsl #28
 3b8:	00000018 	andeq	r0, r0, r8, lsl r0
 3bc:	00000368 	andeq	r0, r0, r8, ror #6
 3c0:	00008f70 	andeq	r8, r0, r0, ror pc
 3c4:	00000024 	andeq	r0, r0, r4, lsr #32
 3c8:	83100e42 	tsthi	r0, #1056	; 0x420
 3cc:	85038404 	strhi	r8, [r3, #-1028]	; 0x404
 3d0:	00018e02 	andeq	r8, r1, r2, lsl #28
 3d4:	00000014 	andeq	r0, r0, r4, lsl r0
 3d8:	00000368 	andeq	r0, r0, r8, ror #6
 3dc:	00008f94 	muleq	r0, r4, pc	; <UNPREDICTABLE>
 3e0:	00000014 	andeq	r0, r0, r4, lsl r0
 3e4:	83080e42 	movwhi	r0, #36418	; 0x8e42
 3e8:	00018e02 	andeq	r8, r1, r2, lsl #28
 3ec:	00000014 	andeq	r0, r0, r4, lsl r0
 3f0:	00000368 	andeq	r0, r0, r8, ror #6
 3f4:	00008fa8 	andeq	r8, r0, r8, lsr #31
 3f8:	00000014 	andeq	r0, r0, r4, lsl r0
 3fc:	83080e42 	movwhi	r0, #36418	; 0x8e42
 400:	00018e02 	andeq	r8, r1, r2, lsl #28
 404:	0000000c 	andeq	r0, r0, ip
 408:	ffffffff 			; <UNDEFINED> instruction: 0xffffffff
 40c:	7c020001 	stcvc	0, cr0, [r2], {1}
 410:	000d0c0e 	andeq	r0, sp, lr, lsl #24
 414:	00000018 	andeq	r0, r0, r8, lsl r0
 418:	00000404 	andeq	r0, r0, r4, lsl #8
 41c:	00008fbc 			; <UNDEFINED> instruction: 0x00008fbc
 420:	000000d4 	ldrdeq	r0, [r0], -r4
 424:	83100e42 	tsthi	r0, #1056	; 0x420
 428:	85038404 	strhi	r8, [r3, #-1028]	; 0x404
 42c:	00018e02 	andeq	r8, r1, r2, lsl #28
 430:	00000014 	andeq	r0, r0, r4, lsl r0
 434:	00000404 	andeq	r0, r0, r4, lsl #8
 438:	00009090 	muleq	r0, r0, r0
 43c:	00000038 	andeq	r0, r0, r8, lsr r0
 440:	83080e42 	movwhi	r0, #36418	; 0x8e42
 444:	00018e02 	andeq	r8, r1, r2, lsl #28
 448:	00000014 	andeq	r0, r0, r4, lsl r0
 44c:	00000404 	andeq	r0, r0, r4, lsl #8
 450:	000090c8 	andeq	r9, r0, r8, asr #1
 454:	00000038 	andeq	r0, r0, r8, lsr r0
 458:	83080e42 	movwhi	r0, #36418	; 0x8e42
 45c:	00018e02 	andeq	r8, r1, r2, lsl #28
 460:	00000018 	andeq	r0, r0, r8, lsl r0
 464:	00000404 	andeq	r0, r0, r4, lsl #8
 468:	00009100 	andeq	r9, r0, r0, lsl #2
 46c:	000000cc 	andeq	r0, r0, ip, asr #1
 470:	83100e42 	tsthi	r0, #1056	; 0x420
 474:	85038404 	strhi	r8, [r3, #-1028]	; 0x404
 478:	00018e02 	andeq	r8, r1, r2, lsl #28
 47c:	00000014 	andeq	r0, r0, r4, lsl r0
 480:	00000404 	andeq	r0, r0, r4, lsl #8
 484:	000091cc 	andeq	r9, r0, ip, asr #3
 488:	0000004c 	andeq	r0, r0, ip, asr #32
 48c:	84080e42 	strhi	r0, [r8], #-3650	; 0xe42
 490:	00018e02 	andeq	r8, r1, r2, lsl #28
 494:	00000014 	andeq	r0, r0, r4, lsl r0
 498:	00000404 	andeq	r0, r0, r4, lsl #8
 49c:	00009218 	andeq	r9, r0, r8, lsl r2
 4a0:	00000078 	andeq	r0, r0, r8, ror r0
 4a4:	83080e42 	movwhi	r0, #36418	; 0x8e42
 4a8:	00018e02 	andeq	r8, r1, r2, lsl #28
 4ac:	00000018 	andeq	r0, r0, r8, lsl r0
 4b0:	00000404 	andeq	r0, r0, r4, lsl #8
 4b4:	00009290 	muleq	r0, r0, r2
 4b8:	000000d8 	ldrdeq	r0, [r0], -r8
 4bc:	84100e42 	ldrhi	r0, [r0], #-3650	; 0xe42
 4c0:	86038504 	strhi	r8, [r3], -r4, lsl #10
 4c4:	00018e02 	andeq	r8, r1, r2, lsl #28
 4c8:	00000014 	andeq	r0, r0, r4, lsl r0
 4cc:	00000404 	andeq	r0, r0, r4, lsl #8
 4d0:	00009368 	andeq	r9, r0, r8, ror #6
 4d4:	0000002c 	andeq	r0, r0, ip, lsr #32
 4d8:	83080e42 	movwhi	r0, #36418	; 0x8e42
 4dc:	00018e02 	andeq	r8, r1, r2, lsl #28
 4e0:	00000018 	andeq	r0, r0, r8, lsl r0
 4e4:	00000404 	andeq	r0, r0, r4, lsl #8
 4e8:	00009394 	muleq	r0, r4, r3
 4ec:	00000084 	andeq	r0, r0, r4, lsl #1
 4f0:	83100e42 	tsthi	r0, #1056	; 0x420
 4f4:	85038404 	strhi	r8, [r3, #-1028]	; 0x404
 4f8:	00018e02 	andeq	r8, r1, r2, lsl #28
 4fc:	00000018 	andeq	r0, r0, r8, lsl r0
 500:	00000404 	andeq	r0, r0, r4, lsl #8
 504:	00009418 	andeq	r9, r0, r8, lsl r4
 508:	00000084 	andeq	r0, r0, r4, lsl #1
 50c:	83100e42 	tsthi	r0, #1056	; 0x420
 510:	85038404 	strhi	r8, [r3, #-1028]	; 0x404
 514:	00018e02 	andeq	r8, r1, r2, lsl #28
 518:	00000014 	andeq	r0, r0, r4, lsl r0
 51c:	00000404 	andeq	r0, r0, r4, lsl #8
 520:	0000949c 	muleq	r0, ip, r4
 524:	00000084 	andeq	r0, r0, r4, lsl #1
 528:	84080e42 	strhi	r0, [r8], #-3650	; 0xe42
 52c:	00018e02 	andeq	r8, r1, r2, lsl #28
 530:	00000014 	andeq	r0, r0, r4, lsl r0
 534:	00000404 	andeq	r0, r0, r4, lsl #8
 538:	00009520 	andeq	r9, r0, r0, lsr #10
 53c:	00000058 	andeq	r0, r0, r8, asr r0
 540:	84080e42 	strhi	r0, [r8], #-3650	; 0xe42
 544:	00018e02 	andeq	r8, r1, r2, lsl #28
 548:	0000000c 	andeq	r0, r0, ip
 54c:	ffffffff 			; <UNDEFINED> instruction: 0xffffffff
 550:	7c020001 	stcvc	0, cr0, [r2], {1}
 554:	000d0c0e 	andeq	r0, sp, lr, lsl #24
 558:	00000018 	andeq	r0, r0, r8, lsl r0
 55c:	00000548 	andeq	r0, r0, r8, asr #10
 560:	00009578 	andeq	r9, r0, r8, ror r5
 564:	0000009c 	muleq	r0, ip, r0
 568:	83100e42 	tsthi	r0, #1056	; 0x420
 56c:	85038404 	strhi	r8, [r3, #-1028]	; 0x404
 570:	00018e02 	andeq	r8, r1, r2, lsl #28
 574:	00000014 	andeq	r0, r0, r4, lsl r0
 578:	00000548 	andeq	r0, r0, r8, asr #10
 57c:	00009614 	andeq	r9, r0, r4, lsl r6
 580:	0000001c 	andeq	r0, r0, ip, lsl r0
 584:	83080e42 	movwhi	r0, #36418	; 0x8e42
 588:	00018e02 	andeq	r8, r1, r2, lsl #28
 58c:	00000014 	andeq	r0, r0, r4, lsl r0
 590:	00000548 	andeq	r0, r0, r8, asr #10
 594:	00009630 	andeq	r9, r0, r0, lsr r6
 598:	00000028 	andeq	r0, r0, r8, lsr #32
 59c:	83080e42 	movwhi	r0, #36418	; 0x8e42
 5a0:	00018e02 	andeq	r8, r1, r2, lsl #28
 5a4:	00000014 	andeq	r0, r0, r4, lsl r0
 5a8:	00000548 	andeq	r0, r0, r8, asr #10
 5ac:	00009658 	andeq	r9, r0, r8, asr r6
 5b0:	0000001c 	andeq	r0, r0, ip, lsl r0
 5b4:	83080e42 	movwhi	r0, #36418	; 0x8e42
 5b8:	00018e02 	andeq	r8, r1, r2, lsl #28
 5bc:	00000014 	andeq	r0, r0, r4, lsl r0
 5c0:	00000548 	andeq	r0, r0, r8, asr #10
 5c4:	00009674 	andeq	r9, r0, r4, ror r6
 5c8:	0000002c 	andeq	r0, r0, ip, lsr #32
 5cc:	84080e42 	strhi	r0, [r8], #-3650	; 0xe42
 5d0:	00018e02 	andeq	r8, r1, r2, lsl #28
 5d4:	00000014 	andeq	r0, r0, r4, lsl r0
 5d8:	00000548 	andeq	r0, r0, r8, asr #10
 5dc:	000096a0 	andeq	r9, r0, r0, lsr #13
 5e0:	0000000c 	andeq	r0, r0, ip
 5e4:	83080e42 	movwhi	r0, #36418	; 0x8e42
 5e8:	00018e02 	andeq	r8, r1, r2, lsl #28
 5ec:	00000014 	andeq	r0, r0, r4, lsl r0
 5f0:	00000548 	andeq	r0, r0, r8, asr #10
 5f4:	000096ac 	andeq	r9, r0, ip, lsr #13
 5f8:	00000020 	andeq	r0, r0, r0, lsr #32
 5fc:	83080e42 	movwhi	r0, #36418	; 0x8e42
 600:	00018e02 	andeq	r8, r1, r2, lsl #28
 604:	0000000c 	andeq	r0, r0, ip
 608:	ffffffff 			; <UNDEFINED> instruction: 0xffffffff
 60c:	7c020001 	stcvc	0, cr0, [r2], {1}
 610:	000d0c0e 	andeq	r0, sp, lr, lsl #24
 614:	00000014 	andeq	r0, r0, r4, lsl r0
 618:	00000604 	andeq	r0, r0, r4, lsl #12
 61c:	000096cc 	andeq	r9, r0, ip, asr #13
 620:	00000068 	andeq	r0, r0, r8, rrx
 624:	83080e42 	movwhi	r0, #36418	; 0x8e42
 628:	00018e02 	andeq	r8, r1, r2, lsl #28
 62c:	00000014 	andeq	r0, r0, r4, lsl r0
 630:	00000604 	andeq	r0, r0, r4, lsl #12
 634:	00009734 	andeq	r9, r0, r4, lsr r7
 638:	00000044 	andeq	r0, r0, r4, asr #32
 63c:	8e040e42 	cdphi	14, 0, cr0, cr4, cr2, {2}
 640:	100e4201 	andne	r4, lr, r1, lsl #4
 644:	00000014 	andeq	r0, r0, r4, lsl r0
 648:	00000604 	andeq	r0, r0, r4, lsl #12
 64c:	00009778 	andeq	r9, r0, r8, ror r7
 650:	00000044 	andeq	r0, r0, r4, asr #32
 654:	8e040e42 	cdphi	14, 0, cr0, cr4, cr2, {2}
 658:	100e4201 	andne	r4, lr, r1, lsl #4
 65c:	00000014 	andeq	r0, r0, r4, lsl r0
 660:	00000604 	andeq	r0, r0, r4, lsl #12
 664:	000097bc 			; <UNDEFINED> instruction: 0x000097bc
 668:	00000044 	andeq	r0, r0, r4, asr #32
 66c:	8e040e42 	cdphi	14, 0, cr0, cr4, cr2, {2}
 670:	100e4201 	andne	r4, lr, r1, lsl #4
 674:	00000014 	andeq	r0, r0, r4, lsl r0
 678:	00000604 	andeq	r0, r0, r4, lsl #12
 67c:	00009800 	andeq	r9, r0, r0, lsl #16
 680:	00000044 	andeq	r0, r0, r4, asr #32
 684:	8e040e42 	cdphi	14, 0, cr0, cr4, cr2, {2}
 688:	100e4201 	andne	r4, lr, r1, lsl #4
 68c:	00000014 	andeq	r0, r0, r4, lsl r0
 690:	00000604 	andeq	r0, r0, r4, lsl #12
 694:	00009844 	andeq	r9, r0, r4, asr #16
 698:	00000044 	andeq	r0, r0, r4, asr #32
 69c:	8e040e42 	cdphi	14, 0, cr0, cr4, cr2, {2}
 6a0:	100e4201 	andne	r4, lr, r1, lsl #4
 6a4:	00000014 	andeq	r0, r0, r4, lsl r0
 6a8:	00000604 	andeq	r0, r0, r4, lsl #12
 6ac:	00009888 	andeq	r9, r0, r8, lsl #17
 6b0:	00000044 	andeq	r0, r0, r4, asr #32
 6b4:	8e040e42 	cdphi	14, 0, cr0, cr4, cr2, {2}
 6b8:	100e4201 	andne	r4, lr, r1, lsl #4
 6bc:	0000000c 	andeq	r0, r0, ip
 6c0:	ffffffff 			; <UNDEFINED> instruction: 0xffffffff
 6c4:	7c020001 	stcvc	0, cr0, [r2], {1}
 6c8:	000d0c0e 	andeq	r0, sp, lr, lsl #24
 6cc:	00000014 	andeq	r0, r0, r4, lsl r0
 6d0:	000006bc 			; <UNDEFINED> instruction: 0x000006bc
 6d4:	00009a08 	andeq	r9, r0, r8, lsl #20
 6d8:	00000028 	andeq	r0, r0, r8, lsr #32
 6dc:	83080e42 	movwhi	r0, #36418	; 0x8e42
 6e0:	00018e02 	andeq	r8, r1, r2, lsl #28
 6e4:	0000000c 	andeq	r0, r0, ip
 6e8:	000006bc 			; <UNDEFINED> instruction: 0x000006bc
 6ec:	00009a30 	andeq	r9, r0, r0, lsr sl
 6f0:	00000028 	andeq	r0, r0, r8, lsr #32
 6f4:	0000000c 	andeq	r0, r0, ip
 6f8:	ffffffff 			; <UNDEFINED> instruction: 0xffffffff
 6fc:	7c020001 	stcvc	0, cr0, [r2], {1}
 700:	000d0c0e 	andeq	r0, sp, lr, lsl #24
 704:	0000000c 	andeq	r0, r0, ip
 708:	000006f4 	strdeq	r0, [r0], -r4
 70c:	00009a58 	andeq	r9, r0, r8, asr sl
 710:	00000020 	andeq	r0, r0, r0, lsr #32
